---
triple:          'x86_64-apple-darwin'
binary-path:     '/Users/kema/git/rust-serv/target/debug/deps/libthiserror_impl-d21ef3227975a22e.dylib'
relocations:
  - { offset: 0x1E, size: 0x8, addend: 0x0, symName: __RINvMNtNtNtCslJiobkLta79_5alloc11collections5btree4nodeINtB3_8LeafNodeNtNtB9_6string6StringNtNtB5_7set_val9SetValZSTE3newNtNtB9_5alloc6GlobalECsiK7Gs1zPIjf_14thiserror_impl, symObjAddr: 0x0, symBinAddr: 0xBD0, symSize: 0x60 }
  - { offset: 0x101A0, size: 0x8, addend: 0x0, symName: __RNCINvMss_NtNtNtCslJiobkLta79_5alloc11collections5btree4nodeINtB8_7NodeRefNtNtB8_6marker5OwnedNtNtBe_6string6StringNtNtBa_7set_val9SetValZSTNtB1c_14LeafOrInternalE19push_internal_levelNtNtBe_5alloc6GlobalE0CsiK7Gs1zPIjf_14thiserror_impl, symObjAddr: 0xD2D0, symBinAddr: 0xDEA0, symSize: 0x30 }
  - { offset: 0x101F9, size: 0x8, addend: 0x0, symName: __RNCINvMss_NtNtNtCslJiobkLta79_5alloc11collections5btree4nodeINtB8_7NodeRefNtNtB8_6marker5OwnedNtNtBe_6string6StringTINtNtBa_3set8BTreeSetB1u_EINtNtCsdGrGZaRBwMb_3syn10punctuated10PunctuatedNtCsaKzlTDPUHDb_11proc_macro211TokenStreamNtNtB2l_5token4PlusEENtB1c_14LeafOrInternalE19push_internal_levelNtNtBe_5alloc6GlobalE0CsiK7Gs1zPIjf_14thiserror_impl, symObjAddr: 0xD300, symBinAddr: 0xDED0, symSize: 0x30 }
  - { offset: 0x10252, size: 0x8, addend: 0x0, symName: __RNCINvMss_NtNtNtCslJiobkLta79_5alloc11collections5btree4nodeINtB8_7NodeRefNtNtB8_6marker5OwnedNtNtCsiK7Gs1zPIjf_14thiserror_impl5unraw10IdentUnrawNtNtBa_7set_val9SetValZSTNtB1c_14LeafOrInternalE19push_internal_levelNtNtBe_5alloc6GlobalE0B1y_, symObjAddr: 0xD330, symBinAddr: 0xDF00, symSize: 0x30 }
  - { offset: 0x102AB, size: 0x8, addend: 0x0, symName: __RNCINvMss_NtNtNtCslJiobkLta79_5alloc11collections5btree4nodeINtB8_7NodeRefNtNtB8_6marker5OwnedRNtCsaKzlTDPUHDb_11proc_macro25IdentNtNtBa_7set_val9SetValZSTNtB1c_14LeafOrInternalE19push_internal_levelNtNtBe_5alloc6GlobalE0CsiK7Gs1zPIjf_14thiserror_impl, symObjAddr: 0xD360, symBinAddr: 0xDF30, symSize: 0x30 }
  - { offset: 0x10304, size: 0x8, addend: 0x0, symName: __RNCINvMss_NtNtNtCslJiobkLta79_5alloc11collections5btree4nodeINtB8_7NodeRefNtNtB8_6marker5OwnedTjNtNtCsiK7Gs1zPIjf_14thiserror_impl4attr5TraitENtNtBa_7set_val9SetValZSTNtB1c_14LeafOrInternalE19push_internal_levelNtNtBe_5alloc6GlobalE0B1A_, symObjAddr: 0xD390, symBinAddr: 0xDF60, symSize: 0x30 }
  - { offset: 0x19351, size: 0x8, addend: 0x0, symName: __RINvNtNtNtCslJiobkLta79_5alloc11collections5btree4node12slice_insertINtNtNtCsieiGu2EXtoJ_4core3ptr8non_null7NonNullINtB2_8LeafNodeNtNtB8_6string6StringNtNtB4_7set_val9SetValZSTEEECsiK7Gs1zPIjf_14thiserror_impl, symObjAddr: 0xBF90, symBinAddr: 0xCB60, symSize: 0x130 }
  - { offset: 0x194B7, size: 0x8, addend: 0x0, symName: __RINvNtNtNtCslJiobkLta79_5alloc11collections5btree4node12slice_insertINtNtNtCsieiGu2EXtoJ_4core3ptr8non_null7NonNullINtB2_8LeafNodeNtNtB8_6string6StringTINtNtB4_3set8BTreeSetB24_EINtNtCsdGrGZaRBwMb_3syn10punctuated10PunctuatedNtCsaKzlTDPUHDb_11proc_macro211TokenStreamNtNtB2V_5token4PlusEEEEECsiK7Gs1zPIjf_14thiserror_impl, symObjAddr: 0xC0C0, symBinAddr: 0xCC90, symSize: 0x130 }
  - { offset: 0x1961D, size: 0x8, addend: 0x0, symName: __RINvNtNtNtCslJiobkLta79_5alloc11collections5btree4node12slice_insertINtNtNtCsieiGu2EXtoJ_4core3ptr8non_null7NonNullINtB2_8LeafNodeNtNtCsiK7Gs1zPIjf_14thiserror_impl5unraw10IdentUnrawNtNtB4_7set_val9SetValZSTEEEB28_, symObjAddr: 0xC1F0, symBinAddr: 0xCDC0, symSize: 0x130 }
  - { offset: 0x19783, size: 0x8, addend: 0x0, symName: __RINvNtNtNtCslJiobkLta79_5alloc11collections5btree4node12slice_insertINtNtNtCsieiGu2EXtoJ_4core3ptr8non_null7NonNullINtB2_8LeafNodeTjNtNtCsiK7Gs1zPIjf_14thiserror_impl4attr5TraitENtNtB4_7set_val9SetValZSTEEEB2a_, symObjAddr: 0xC320, symBinAddr: 0xCEF0, symSize: 0x130 }
  - { offset: 0x198E9, size: 0x8, addend: 0x0, symName: __RINvNtNtNtCslJiobkLta79_5alloc11collections5btree4node12slice_insertNtNtB4_7set_val9SetValZSTECsiK7Gs1zPIjf_14thiserror_impl, symObjAddr: 0xC450, symBinAddr: 0xD020, symSize: 0xB0 }
  - { offset: 0x19A02, size: 0x8, addend: 0x0, symName: __RINvNtNtNtCslJiobkLta79_5alloc11collections5btree4node12slice_insertNtNtB8_6string6StringECsiK7Gs1zPIjf_14thiserror_impl, symObjAddr: 0xC500, symBinAddr: 0xD0D0, symSize: 0x180 }
  - { offset: 0x19B89, size: 0x8, addend: 0x0, symName: __RINvNtNtNtCslJiobkLta79_5alloc11collections5btree4node12slice_insertNtNtCsiK7Gs1zPIjf_14thiserror_impl5unraw10IdentUnrawEB18_, symObjAddr: 0xC680, symBinAddr: 0xD250, symSize: 0x180 }
  - { offset: 0x19D10, size: 0x8, addend: 0x0, symName: __RINvNtNtNtCslJiobkLta79_5alloc11collections5btree4node12slice_insertTINtNtB4_3set8BTreeSetNtNtB8_6string6StringEINtNtCsdGrGZaRBwMb_3syn10punctuated10PunctuatedNtCsaKzlTDPUHDb_11proc_macro211TokenStreamNtNtB1R_5token4PlusEEECsiK7Gs1zPIjf_14thiserror_impl, symObjAddr: 0xC800, symBinAddr: 0xD3D0, symSize: 0x180 }
  - { offset: 0x19E97, size: 0x8, addend: 0x0, symName: __RINvNtNtNtCslJiobkLta79_5alloc11collections5btree4node12slice_insertTjNtNtCsiK7Gs1zPIjf_14thiserror_impl4attr5TraitEEB1a_, symObjAddr: 0xC980, symBinAddr: 0xD550, symSize: 0x140 }
  - { offset: 0x19FFF, size: 0x8, addend: 0x0, symName: __RINvNtNtNtCslJiobkLta79_5alloc11collections5btree4node13move_to_sliceINtNtNtCsieiGu2EXtoJ_4core3ptr8non_null7NonNullINtB2_8LeafNodeNtNtB8_6string6StringNtNtB4_7set_val9SetValZSTEEECsiK7Gs1zPIjf_14thiserror_impl, symObjAddr: 0xCAC0, symBinAddr: 0xD690, symSize: 0x90 }
  - { offset: 0x1A0AB, size: 0x8, addend: 0x0, symName: __RINvNtNtNtCslJiobkLta79_5alloc11collections5btree4node13move_to_sliceINtNtNtCsieiGu2EXtoJ_4core3ptr8non_null7NonNullINtB2_8LeafNodeNtNtB8_6string6StringTINtNtB4_3set8BTreeSetB25_EINtNtCsdGrGZaRBwMb_3syn10punctuated10PunctuatedNtCsaKzlTDPUHDb_11proc_macro211TokenStreamNtNtB2W_5token4PlusEEEEECsiK7Gs1zPIjf_14thiserror_impl, symObjAddr: 0xCB50, symBinAddr: 0xD720, symSize: 0x90 }
  - { offset: 0x1A157, size: 0x8, addend: 0x0, symName: __RINvNtNtNtCslJiobkLta79_5alloc11collections5btree4node13move_to_sliceINtNtNtCsieiGu2EXtoJ_4core3ptr8non_null7NonNullINtB2_8LeafNodeNtNtCsiK7Gs1zPIjf_14thiserror_impl5unraw10IdentUnrawNtNtB4_7set_val9SetValZSTEEEB29_, symObjAddr: 0xCBE0, symBinAddr: 0xD7B0, symSize: 0x90 }
  - { offset: 0x1A203, size: 0x8, addend: 0x0, symName: __RINvNtNtNtCslJiobkLta79_5alloc11collections5btree4node13move_to_sliceINtNtNtCsieiGu2EXtoJ_4core3ptr8non_null7NonNullINtB2_8LeafNodeRNtCsaKzlTDPUHDb_11proc_macro25IdentNtNtB4_7set_val9SetValZSTEEECsiK7Gs1zPIjf_14thiserror_impl, symObjAddr: 0xCC70, symBinAddr: 0xD840, symSize: 0x90 }
  - { offset: 0x1A2AF, size: 0x8, addend: 0x0, symName: __RINvNtNtNtCslJiobkLta79_5alloc11collections5btree4node13move_to_sliceINtNtNtCsieiGu2EXtoJ_4core3ptr8non_null7NonNullINtB2_8LeafNodeTjNtNtCsiK7Gs1zPIjf_14thiserror_impl4attr5TraitENtNtB4_7set_val9SetValZSTEEEB2b_, symObjAddr: 0xCD00, symBinAddr: 0xD8D0, symSize: 0x90 }
  - { offset: 0x1A35B, size: 0x8, addend: 0x0, symName: __RINvNtNtNtCslJiobkLta79_5alloc11collections5btree4node13move_to_sliceNtNtB4_7set_val9SetValZSTECsiK7Gs1zPIjf_14thiserror_impl, symObjAddr: 0xCD90, symBinAddr: 0xD960, symSize: 0xA0 }
  - { offset: 0x1A407, size: 0x8, addend: 0x0, symName: __RINvNtNtNtCslJiobkLta79_5alloc11collections5btree4node13move_to_sliceNtNtB8_6string6StringECsiK7Gs1zPIjf_14thiserror_impl, symObjAddr: 0xCE30, symBinAddr: 0xDA00, symSize: 0xA0 }
  - { offset: 0x1A4B3, size: 0x8, addend: 0x0, symName: __RINvNtNtNtCslJiobkLta79_5alloc11collections5btree4node13move_to_sliceNtNtCsiK7Gs1zPIjf_14thiserror_impl5unraw10IdentUnrawEB19_, symObjAddr: 0xCED0, symBinAddr: 0xDAA0, symSize: 0xA0 }
  - { offset: 0x1A55F, size: 0x8, addend: 0x0, symName: __RINvNtNtNtCslJiobkLta79_5alloc11collections5btree4node13move_to_sliceRNtCsaKzlTDPUHDb_11proc_macro25IdentECsiK7Gs1zPIjf_14thiserror_impl, symObjAddr: 0xCF70, symBinAddr: 0xDB40, symSize: 0x90 }
  - { offset: 0x1A60B, size: 0x8, addend: 0x0, symName: __RINvNtNtNtCslJiobkLta79_5alloc11collections5btree4node13move_to_sliceTINtNtB4_3set8BTreeSetNtNtB8_6string6StringEINtNtCsdGrGZaRBwMb_3syn10punctuated10PunctuatedNtCsaKzlTDPUHDb_11proc_macro211TokenStreamNtNtB1S_5token4PlusEEECsiK7Gs1zPIjf_14thiserror_impl, symObjAddr: 0xD000, symBinAddr: 0xDBD0, symSize: 0xA0 }
  - { offset: 0x1A6B7, size: 0x8, addend: 0x0, symName: __RINvNtNtNtCslJiobkLta79_5alloc11collections5btree4node13move_to_sliceTjNtNtCsiK7Gs1zPIjf_14thiserror_impl4attr5TraitEEB1b_, symObjAddr: 0xD0A0, symBinAddr: 0xDC70, symSize: 0xA0 }
  - { offset: 0x1A763, size: 0x8, addend: 0x0, symName: __RINvNtNtNtCslJiobkLta79_5alloc11collections5btree4node9slice_shrINtNtNtCsieiGu2EXtoJ_4core3ptr8non_null7NonNullINtB2_8LeafNodeRNtCsaKzlTDPUHDb_11proc_macro25IdentNtNtB4_7set_val9SetValZSTEEECsiK7Gs1zPIjf_14thiserror_impl, symObjAddr: 0xD140, symBinAddr: 0xDD10, symSize: 0x90 }
  - { offset: 0x1A835, size: 0x8, addend: 0x0, symName: __RINvNtNtNtCslJiobkLta79_5alloc11collections5btree4node9slice_shrNtNtB4_7set_val9SetValZSTECsiK7Gs1zPIjf_14thiserror_impl, symObjAddr: 0xD1D0, symBinAddr: 0xDDA0, symSize: 0x70 }
  - { offset: 0x1A907, size: 0x8, addend: 0x0, symName: __RINvNtNtNtCslJiobkLta79_5alloc11collections5btree4node9slice_shrRNtCsaKzlTDPUHDb_11proc_macro25IdentECsiK7Gs1zPIjf_14thiserror_impl, symObjAddr: 0xD240, symBinAddr: 0xDE10, symSize: 0x90 }
  - { offset: 0x1BEB0, size: 0x8, addend: 0x0, symName: __RNvXNvMsT_NtNtNtCslJiobkLta79_5alloc11collections5btree4nodeINtB8_6HandleINtB8_7NodeRefNtNtB8_6marker5DyingpppENtB1p_2KVE12drop_key_valINtB2_7DropperNtNtBa_7set_val9SetValZSTENtNtNtCsieiGu2EXtoJ_4core3ops4drop4Drop4dropCsiK7Gs1zPIjf_14thiserror_impl, symObjAddr: 0x184E0, symBinAddr: 0x190B0, symSize: 0x20 }
  - { offset: 0x1BEE3, size: 0x8, addend: 0x0, symName: __RNvXNvMsT_NtNtNtCslJiobkLta79_5alloc11collections5btree4nodeINtB8_6HandleINtB8_7NodeRefNtNtB8_6marker5DyingpppENtB1p_2KVE12drop_key_valINtB2_7DropperTINtNtBa_3set8BTreeSetNtNtBe_6string6StringEINtNtCsdGrGZaRBwMb_3syn10punctuated10PunctuatedNtCsaKzlTDPUHDb_11proc_macro211TokenStreamNtNtB3a_5token4PlusEEENtNtNtCsieiGu2EXtoJ_4core3ops4drop4Drop4dropCsiK7Gs1zPIjf_14thiserror_impl, symObjAddr: 0x18500, symBinAddr: 0x190D0, symSize: 0x20 }
  - { offset: 0x1DB1A, size: 0x8, addend: 0x0, symName: __RINvMNtNtNtCslJiobkLta79_5alloc11collections5btree4nodeINtB3_8LeafNodeNtNtB9_6string6StringNtNtB5_7set_val9SetValZSTE3newNtNtB9_5alloc6GlobalECsiK7Gs1zPIjf_14thiserror_impl, symObjAddr: 0x0, symBinAddr: 0xBD0, symSize: 0x60 }
  - { offset: 0x1DF23, size: 0x8, addend: 0x0, symName: __RINvMNtNtNtCslJiobkLta79_5alloc11collections5btree4nodeINtB3_8LeafNodeNtNtB9_6string6StringTINtNtB5_3set8BTreeSetB16_EINtNtCsdGrGZaRBwMb_3syn10punctuated10PunctuatedNtCsaKzlTDPUHDb_11proc_macro211TokenStreamNtNtB1X_5token4PlusEEE3newNtNtB9_5alloc6GlobalECsiK7Gs1zPIjf_14thiserror_impl, symObjAddr: 0x60, symBinAddr: 0xC30, symSize: 0x60 }
  - { offset: 0x1E1E0, size: 0x8, addend: 0x0, symName: __RINvMNtNtNtCslJiobkLta79_5alloc11collections5btree4nodeINtB3_8LeafNodeNtNtCsiK7Gs1zPIjf_14thiserror_impl5unraw10IdentUnrawNtNtB5_7set_val9SetValZSTE3newNtNtB9_5alloc6GlobalEB1a_, symObjAddr: 0xC0, symBinAddr: 0xC90, symSize: 0x60 }
  - { offset: 0x1E4AA, size: 0x8, addend: 0x0, symName: __RINvMNtNtNtCslJiobkLta79_5alloc11collections5btree4nodeINtB3_8LeafNodeRNtCsaKzlTDPUHDb_11proc_macro25IdentNtNtB5_7set_val9SetValZSTE3newNtNtB9_5alloc6GlobalECsiK7Gs1zPIjf_14thiserror_impl, symObjAddr: 0x120, symBinAddr: 0xCF0, symSize: 0x50 }
  - { offset: 0x1E785, size: 0x8, addend: 0x0, symName: __RINvMNtNtNtCslJiobkLta79_5alloc11collections5btree4nodeINtB3_8LeafNodeTjNtNtCsiK7Gs1zPIjf_14thiserror_impl4attr5TraitENtNtB5_7set_val9SetValZSTE3newNtNtB9_5alloc6GlobalEB1c_, symObjAddr: 0x170, symBinAddr: 0xD40, symSize: 0x60 }
  - { offset: 0x1ED4A, size: 0x8, addend: 0x0, symName: __RINvMNtNtNtCslJiobkLta79_5alloc11collections5btree6appendINtNtB5_4node7NodeRefNtNtBW_6marker5OwnedRNtCsaKzlTDPUHDb_11proc_macro25IdentNtNtB5_7set_val9SetValZSTNtB1g_14LeafOrInternalE9bulk_pushINtNtB5_17dedup_sorted_iter15DedupSortedIterB1y_B28_INtNtNtNtCsieiGu2EXtoJ_4core4iter8adapters3map3MapINtNtNtB9_3vec9into_iter8IntoIterB1y_ENCINvMse_NtB5_3setINtB5t_8BTreeSetB1y_E16from_sorted_iterB4I_E0EENtNtB9_5alloc6GlobalECsiK7Gs1zPIjf_14thiserror_impl, symObjAddr: 0x1D0, symBinAddr: 0xDA0, symSize: 0x540 }
  - { offset: 0x1F38C, size: 0x8, addend: 0x0, symName: __RINvMs0_NtNtNtCslJiobkLta79_5alloc11collections5btree6searchINtNtB8_4node7NodeRefNtNtBZ_6marker3MutNtNtBc_6string6StringNtNtB8_7set_val9SetValZSTNtB1j_14LeafOrInternalE14find_key_indexB1z_ECsiK7Gs1zPIjf_14thiserror_impl, symObjAddr: 0x710, symBinAddr: 0x12E0, symSize: 0x240 }
  - { offset: 0x1F77E, size: 0x8, addend: 0x0, symName: __RINvMs0_NtNtNtCslJiobkLta79_5alloc11collections5btree6searchINtNtB8_4node7NodeRefNtNtBZ_6marker3MutNtNtBc_6string6StringTINtNtB8_3set8BTreeSetB1z_EINtNtCsdGrGZaRBwMb_3syn10punctuated10PunctuatedNtCsaKzlTDPUHDb_11proc_macro211TokenStreamNtNtB2q_5token4PlusEENtB1j_14LeafOrInternalE14find_key_indexB1z_ECsiK7Gs1zPIjf_14thiserror_impl, symObjAddr: 0x950, symBinAddr: 0x1520, symSize: 0x240 }
  - { offset: 0x1FBDC, size: 0x8, addend: 0x0, symName: __RINvMs0_NtNtNtCslJiobkLta79_5alloc11collections5btree6searchINtNtB8_4node7NodeRefNtNtBZ_6marker3MutNtNtCsiK7Gs1zPIjf_14thiserror_impl5unraw10IdentUnrawNtNtB8_7set_val9SetValZSTNtB1j_14LeafOrInternalE14find_key_indexB1z_EB1D_, symObjAddr: 0xB90, symBinAddr: 0x1760, symSize: 0x240 }
  - { offset: 0x2003A, size: 0x8, addend: 0x0, symName: __RINvMs0_NtNtNtCslJiobkLta79_5alloc11collections5btree6searchINtNtB8_4node7NodeRefNtNtBZ_6marker3MutTjNtNtCsiK7Gs1zPIjf_14thiserror_impl4attr5TraitENtNtB8_7set_val9SetValZSTNtB1j_14LeafOrInternalE14find_key_indexB1z_EB1F_, symObjAddr: 0xDD0, symBinAddr: 0x19A0, symSize: 0x240 }
  - { offset: 0x2042C, size: 0x8, addend: 0x0, symName: __RINvMs0_NtNtNtCslJiobkLta79_5alloc11collections5btree6searchINtNtB8_4node7NodeRefNtNtBZ_6marker5ImmutNtNtBc_6string6StringTINtNtB8_3set8BTreeSetB1B_EINtNtCsdGrGZaRBwMb_3syn10punctuated10PunctuatedNtCsaKzlTDPUHDb_11proc_macro211TokenStreamNtNtB2s_5token4PlusEENtB1j_14LeafOrInternalE14find_key_indexB1B_ECsiK7Gs1zPIjf_14thiserror_impl, symObjAddr: 0x1010, symBinAddr: 0x1BE0, symSize: 0x240 }
  - { offset: 0x2081E, size: 0x8, addend: 0x0, symName: __RINvMs0_NtNtNtCslJiobkLta79_5alloc11collections5btree6searchINtNtB8_4node7NodeRefNtNtBZ_6marker5ImmutNtNtCsiK7Gs1zPIjf_14thiserror_impl5unraw10IdentUnrawNtNtB8_7set_val9SetValZSTNtB1j_14LeafOrInternalE14find_key_indexB1B_EB1F_, symObjAddr: 0x1250, symBinAddr: 0x1E20, symSize: 0x240 }
  - { offset: 0x20C6F, size: 0x8, addend: 0x0, symName: __RINvMs0_NtNtNtCslJiobkLta79_5alloc11collections5btree6searchINtNtB8_4node7NodeRefNtNtBZ_6marker5ImmutRNtCsaKzlTDPUHDb_11proc_macro25IdentNtNtB8_7set_val9SetValZSTNtB1j_14LeafOrInternalE14find_key_indexB1C_ECsiK7Gs1zPIjf_14thiserror_impl, symObjAddr: 0x1490, symBinAddr: 0x2060, symSize: 0x240 }
  - { offset: 0x20FE6, size: 0x8, addend: 0x0, symName: __RINvMs9_NtNtNtCslJiobkLta79_5alloc11collections5btree4nodeINtB6_7NodeRefNtNtB6_6marker5OwnedNtNtBc_6string6StringNtNtB8_7set_val9SetValZSTNtB1a_8InternalE12new_internalNtNtBc_5alloc6GlobalECsiK7Gs1zPIjf_14thiserror_impl, symObjAddr: 0x16D0, symBinAddr: 0x22A0, symSize: 0x90 }
  - { offset: 0x21219, size: 0x8, addend: 0x0, symName: __RINvMs9_NtNtNtCslJiobkLta79_5alloc11collections5btree4nodeINtB6_7NodeRefNtNtB6_6marker5OwnedNtNtBc_6string6StringNtNtB8_7set_val9SetValZSTNtB1a_8InternalE17from_new_internalNtNtBc_5alloc6GlobalECsiK7Gs1zPIjf_14thiserror_impl, symObjAddr: 0x1760, symBinAddr: 0x2330, symSize: 0xD0 }
  - { offset: 0x21412, size: 0x8, addend: 0x0, symName: __RINvMs9_NtNtNtCslJiobkLta79_5alloc11collections5btree4nodeINtB6_7NodeRefNtNtB6_6marker5OwnedNtNtBc_6string6StringTINtNtB8_3set8BTreeSetB1s_EINtNtCsdGrGZaRBwMb_3syn10punctuated10PunctuatedNtCsaKzlTDPUHDb_11proc_macro211TokenStreamNtNtB2j_5token4PlusEENtB1a_8InternalE12new_internalNtNtBc_5alloc6GlobalECsiK7Gs1zPIjf_14thiserror_impl, symObjAddr: 0x1830, symBinAddr: 0x2400, symSize: 0x90 }
  - { offset: 0x21645, size: 0x8, addend: 0x0, symName: __RINvMs9_NtNtNtCslJiobkLta79_5alloc11collections5btree4nodeINtB6_7NodeRefNtNtB6_6marker5OwnedNtNtBc_6string6StringTINtNtB8_3set8BTreeSetB1s_EINtNtCsdGrGZaRBwMb_3syn10punctuated10PunctuatedNtCsaKzlTDPUHDb_11proc_macro211TokenStreamNtNtB2j_5token4PlusEENtB1a_8InternalE17from_new_internalNtNtBc_5alloc6GlobalECsiK7Gs1zPIjf_14thiserror_impl, symObjAddr: 0x18C0, symBinAddr: 0x2490, symSize: 0xD0 }
  - { offset: 0x2183E, size: 0x8, addend: 0x0, symName: __RINvMs9_NtNtNtCslJiobkLta79_5alloc11collections5btree4nodeINtB6_7NodeRefNtNtB6_6marker5OwnedNtNtCsiK7Gs1zPIjf_14thiserror_impl5unraw10IdentUnrawNtNtB8_7set_val9SetValZSTNtB1a_8InternalE12new_internalNtNtBc_5alloc6GlobalEB1w_, symObjAddr: 0x1990, symBinAddr: 0x2560, symSize: 0x90 }
  - { offset: 0x21A71, size: 0x8, addend: 0x0, symName: __RINvMs9_NtNtNtCslJiobkLta79_5alloc11collections5btree4nodeINtB6_7NodeRefNtNtB6_6marker5OwnedNtNtCsiK7Gs1zPIjf_14thiserror_impl5unraw10IdentUnrawNtNtB8_7set_val9SetValZSTNtB1a_8InternalE17from_new_internalNtNtBc_5alloc6GlobalEB1w_, symObjAddr: 0x1A20, symBinAddr: 0x25F0, symSize: 0xD0 }
  - { offset: 0x21C6A, size: 0x8, addend: 0x0, symName: __RINvMs9_NtNtNtCslJiobkLta79_5alloc11collections5btree4nodeINtB6_7NodeRefNtNtB6_6marker5OwnedRNtCsaKzlTDPUHDb_11proc_macro25IdentNtNtB8_7set_val9SetValZSTNtB1a_8InternalE12new_internalNtNtBc_5alloc6GlobalECsiK7Gs1zPIjf_14thiserror_impl, symObjAddr: 0x1AF0, symBinAddr: 0x26C0, symSize: 0x80 }
  - { offset: 0x21E90, size: 0x8, addend: 0x0, symName: __RINvMs9_NtNtNtCslJiobkLta79_5alloc11collections5btree4nodeINtB6_7NodeRefNtNtB6_6marker5OwnedRNtCsaKzlTDPUHDb_11proc_macro25IdentNtNtB8_7set_val9SetValZSTNtB1a_8InternalE17from_new_internalNtNtBc_5alloc6GlobalECsiK7Gs1zPIjf_14thiserror_impl, symObjAddr: 0x1B70, symBinAddr: 0x2740, symSize: 0xD0 }
  - { offset: 0x22089, size: 0x8, addend: 0x0, symName: __RINvMs9_NtNtNtCslJiobkLta79_5alloc11collections5btree4nodeINtB6_7NodeRefNtNtB6_6marker5OwnedTjNtNtCsiK7Gs1zPIjf_14thiserror_impl4attr5TraitENtNtB8_7set_val9SetValZSTNtB1a_8InternalE12new_internalNtNtBc_5alloc6GlobalEB1y_, symObjAddr: 0x1C40, symBinAddr: 0x2810, symSize: 0x90 }
  - { offset: 0x222BC, size: 0x8, addend: 0x0, symName: __RINvMs9_NtNtNtCslJiobkLta79_5alloc11collections5btree4nodeINtB6_7NodeRefNtNtB6_6marker5OwnedTjNtNtCsiK7Gs1zPIjf_14thiserror_impl4attr5TraitENtNtB8_7set_val9SetValZSTNtB1a_8InternalE17from_new_internalNtNtBc_5alloc6GlobalEB1y_, symObjAddr: 0x1CD0, symBinAddr: 0x28A0, symSize: 0xD0 }
  - { offset: 0x226AA, size: 0x8, addend: 0x0, symName: __RINvMsK_NtNtNtCslJiobkLta79_5alloc11collections5btree4nodeINtB6_6HandleINtB6_7NodeRefNtNtB6_6marker3MutNtNtBc_6string6StringNtNtB8_7set_val9SetValZSTNtB1n_4LeafENtB1n_4EdgeE6insertNtNtBc_5alloc6GlobalECsiK7Gs1zPIjf_14thiserror_impl, symObjAddr: 0x1DA0, symBinAddr: 0x2970, symSize: 0x700 }
  - { offset: 0x22B98, size: 0x8, addend: 0x0, symName: __RINvMsK_NtNtNtCslJiobkLta79_5alloc11collections5btree4nodeINtB6_6HandleINtB6_7NodeRefNtNtB6_6marker3MutNtNtBc_6string6StringTINtNtB8_3set8BTreeSetB1D_EINtNtCsdGrGZaRBwMb_3syn10punctuated10PunctuatedNtCsaKzlTDPUHDb_11proc_macro211TokenStreamNtNtB2u_5token4PlusEENtB1n_4LeafENtB1n_4EdgeE6insertNtNtBc_5alloc6GlobalECsiK7Gs1zPIjf_14thiserror_impl, symObjAddr: 0x24A0, symBinAddr: 0x3070, symSize: 0x7D0 }
  - { offset: 0x23086, size: 0x8, addend: 0x0, symName: __RINvMsK_NtNtNtCslJiobkLta79_5alloc11collections5btree4nodeINtB6_6HandleINtB6_7NodeRefNtNtB6_6marker3MutNtNtCsiK7Gs1zPIjf_14thiserror_impl5unraw10IdentUnrawNtNtB8_7set_val9SetValZSTNtB1n_4LeafENtB1n_4EdgeE6insertNtNtBc_5alloc6GlobalEB1H_, symObjAddr: 0x2C70, symBinAddr: 0x3840, symSize: 0x6F0 }
  - { offset: 0x23574, size: 0x8, addend: 0x0, symName: __RINvMsK_NtNtNtCslJiobkLta79_5alloc11collections5btree4nodeINtB6_6HandleINtB6_7NodeRefNtNtB6_6marker3MutTjNtNtCsiK7Gs1zPIjf_14thiserror_impl4attr5TraitENtNtB8_7set_val9SetValZSTNtB1n_4LeafENtB1n_4EdgeE6insertNtNtBc_5alloc6GlobalEB1J_, symObjAddr: 0x3360, symBinAddr: 0x3F30, symSize: 0x6A0 }
  - { offset: 0x23999, size: 0x8, addend: 0x0, symName: __RINvMsM_NtNtNtCslJiobkLta79_5alloc11collections5btree4nodeINtB6_6HandleINtB6_7NodeRefNtNtB6_6marker3MutNtNtBc_6string6StringNtNtB8_7set_val9SetValZSTNtB1n_8InternalENtB1n_4EdgeE6insertNtNtBc_5alloc6GlobalECsiK7Gs1zPIjf_14thiserror_impl, symObjAddr: 0x3A00, symBinAddr: 0x45D0, symSize: 0x6B0 }
  - { offset: 0x23D23, size: 0x8, addend: 0x0, symName: __RINvMsM_NtNtNtCslJiobkLta79_5alloc11collections5btree4nodeINtB6_6HandleINtB6_7NodeRefNtNtB6_6marker3MutNtNtBc_6string6StringTINtNtB8_3set8BTreeSetB1D_EINtNtCsdGrGZaRBwMb_3syn10punctuated10PunctuatedNtCsaKzlTDPUHDb_11proc_macro211TokenStreamNtNtB2u_5token4PlusEENtB1n_8InternalENtB1n_4EdgeE6insertNtNtBc_5alloc6GlobalECsiK7Gs1zPIjf_14thiserror_impl, symObjAddr: 0x40B0, symBinAddr: 0x4C80, symSize: 0x7C0 }
  - { offset: 0x240AD, size: 0x8, addend: 0x0, symName: __RINvMsM_NtNtNtCslJiobkLta79_5alloc11collections5btree4nodeINtB6_6HandleINtB6_7NodeRefNtNtB6_6marker3MutNtNtCsiK7Gs1zPIjf_14thiserror_impl5unraw10IdentUnrawNtNtB8_7set_val9SetValZSTNtB1n_8InternalENtB1n_4EdgeE6insertNtNtBc_5alloc6GlobalEB1H_, symObjAddr: 0x4870, symBinAddr: 0x5440, symSize: 0x6B0 }
  - { offset: 0x24437, size: 0x8, addend: 0x0, symName: __RINvMsM_NtNtNtCslJiobkLta79_5alloc11collections5btree4nodeINtB6_6HandleINtB6_7NodeRefNtNtB6_6marker3MutTjNtNtCsiK7Gs1zPIjf_14thiserror_impl4attr5TraitENtNtB8_7set_val9SetValZSTNtB1n_8InternalENtB1n_4EdgeE6insertNtNtBc_5alloc6GlobalEB1J_, symObjAddr: 0x4F20, symBinAddr: 0x5AF0, symSize: 0x670 }
  - { offset: 0x24729, size: 0x8, addend: 0x0, symName: __RINvMsN_NtNtNtCslJiobkLta79_5alloc11collections5btree4nodeINtB6_6HandleINtB6_7NodeRefNtNtB6_6marker3MutNtNtBc_6string6StringNtNtB8_7set_val9SetValZSTNtB1n_4LeafENtB1n_4EdgeE16insert_recursingNtNtBc_5alloc6GlobalNCNvMs6_NtNtB8_3map5entryINtB3v_11VacantEntryB1D_B1Y_E12insert_entry0ECsiK7Gs1zPIjf_14thiserror_impl, symObjAddr: 0x5590, symBinAddr: 0x6160, symSize: 0x660 }
  - { offset: 0x24A57, size: 0x8, addend: 0x0, symName: __RINvMsN_NtNtNtCslJiobkLta79_5alloc11collections5btree4nodeINtB6_6HandleINtB6_7NodeRefNtNtB6_6marker3MutNtNtBc_6string6StringTINtNtB8_3set8BTreeSetB1D_EINtNtCsdGrGZaRBwMb_3syn10punctuated10PunctuatedNtCsaKzlTDPUHDb_11proc_macro211TokenStreamNtNtB2u_5token4PlusEENtB1n_4LeafENtB1n_4EdgeE16insert_recursingNtNtBc_5alloc6GlobalNCNvMs6_NtNtB8_3map5entryINtB5j_11VacantEntryB1D_B1Y_E12insert_entry0ECsiK7Gs1zPIjf_14thiserror_impl, symObjAddr: 0x5BF0, symBinAddr: 0x67C0, symSize: 0x710 }
  - { offset: 0x24D85, size: 0x8, addend: 0x0, symName: __RINvMsN_NtNtNtCslJiobkLta79_5alloc11collections5btree4nodeINtB6_6HandleINtB6_7NodeRefNtNtB6_6marker3MutNtNtCsiK7Gs1zPIjf_14thiserror_impl5unraw10IdentUnrawNtNtB8_7set_val9SetValZSTNtB1n_4LeafENtB1n_4EdgeE16insert_recursingNtNtBc_5alloc6GlobalNCNvMs6_NtNtB8_3map5entryINtB40_11VacantEntryB1D_B2t_E12insert_entry0EB1H_, symObjAddr: 0x6300, symBinAddr: 0x6ED0, symSize: 0x650 }
  - { offset: 0x250B3, size: 0x8, addend: 0x0, symName: __RINvMsN_NtNtNtCslJiobkLta79_5alloc11collections5btree4nodeINtB6_6HandleINtB6_7NodeRefNtNtB6_6marker3MutTjNtNtCsiK7Gs1zPIjf_14thiserror_impl4attr5TraitENtNtB8_7set_val9SetValZSTNtB1n_4LeafENtB1n_4EdgeE16insert_recursingNtNtBc_5alloc6GlobalNCNvMs6_NtNtB8_3map5entryINtB3W_11VacantEntryB1D_B2p_E12insert_entry0EB1J_, symObjAddr: 0x6950, symBinAddr: 0x7520, symSize: 0x5A0 }
  - { offset: 0x2535D, size: 0x8, addend: 0x0, symName: __RINvMsV_NtNtNtCslJiobkLta79_5alloc11collections5btree4nodeINtB6_6HandleINtB6_7NodeRefNtNtB6_6marker3MutNtNtBc_6string6StringNtNtB8_7set_val9SetValZSTNtB1n_4LeafENtB1n_2KVE5splitNtNtBc_5alloc6GlobalECsiK7Gs1zPIjf_14thiserror_impl, symObjAddr: 0x6EF0, symBinAddr: 0x7AC0, symSize: 0xB0 }
  - { offset: 0x2544C, size: 0x8, addend: 0x0, symName: __RINvMsV_NtNtNtCslJiobkLta79_5alloc11collections5btree4nodeINtB6_6HandleINtB6_7NodeRefNtNtB6_6marker3MutNtNtBc_6string6StringTINtNtB8_3set8BTreeSetB1D_EINtNtCsdGrGZaRBwMb_3syn10punctuated10PunctuatedNtCsaKzlTDPUHDb_11proc_macro211TokenStreamNtNtB2u_5token4PlusEENtB1n_4LeafENtB1n_2KVE5splitNtNtBc_5alloc6GlobalECsiK7Gs1zPIjf_14thiserror_impl, symObjAddr: 0x6FA0, symBinAddr: 0x7B70, symSize: 0xF0 }
  - { offset: 0x2553B, size: 0x8, addend: 0x0, symName: __RINvMsV_NtNtNtCslJiobkLta79_5alloc11collections5btree4nodeINtB6_6HandleINtB6_7NodeRefNtNtB6_6marker3MutNtNtCsiK7Gs1zPIjf_14thiserror_impl5unraw10IdentUnrawNtNtB8_7set_val9SetValZSTNtB1n_4LeafENtB1n_2KVE5splitNtNtBc_5alloc6GlobalEB1H_, symObjAddr: 0x7090, symBinAddr: 0x7C60, symSize: 0xB0 }
  - { offset: 0x2562A, size: 0x8, addend: 0x0, symName: __RINvMsV_NtNtNtCslJiobkLta79_5alloc11collections5btree4nodeINtB6_6HandleINtB6_7NodeRefNtNtB6_6marker3MutTjNtNtCsiK7Gs1zPIjf_14thiserror_impl4attr5TraitENtNtB8_7set_val9SetValZSTNtB1n_4LeafENtB1n_2KVE5splitNtNtBc_5alloc6GlobalEB1J_, symObjAddr: 0x7140, symBinAddr: 0x7D10, symSize: 0xC0 }
  - { offset: 0x25841, size: 0x8, addend: 0x0, symName: __RINvMsW_NtNtNtCslJiobkLta79_5alloc11collections5btree4nodeINtB6_6HandleINtB6_7NodeRefNtNtB6_6marker3MutNtNtBc_6string6StringNtNtB8_7set_val9SetValZSTNtB1n_8InternalENtB1n_2KVE5splitNtNtBc_5alloc6GlobalECsiK7Gs1zPIjf_14thiserror_impl, symObjAddr: 0x7200, symBinAddr: 0x7DD0, symSize: 0x340 }
  - { offset: 0x25CFD, size: 0x8, addend: 0x0, symName: __RINvMsW_NtNtNtCslJiobkLta79_5alloc11collections5btree4nodeINtB6_6HandleINtB6_7NodeRefNtNtB6_6marker3MutNtNtBc_6string6StringTINtNtB8_3set8BTreeSetB1D_EINtNtCsdGrGZaRBwMb_3syn10punctuated10PunctuatedNtCsaKzlTDPUHDb_11proc_macro211TokenStreamNtNtB2u_5token4PlusEENtB1n_8InternalENtB1n_2KVE5splitNtNtBc_5alloc6GlobalECsiK7Gs1zPIjf_14thiserror_impl, symObjAddr: 0x7540, symBinAddr: 0x8110, symSize: 0x350 }
  - { offset: 0x261B9, size: 0x8, addend: 0x0, symName: __RINvMsW_NtNtNtCslJiobkLta79_5alloc11collections5btree4nodeINtB6_6HandleINtB6_7NodeRefNtNtB6_6marker3MutNtNtCsiK7Gs1zPIjf_14thiserror_impl5unraw10IdentUnrawNtNtB8_7set_val9SetValZSTNtB1n_8InternalENtB1n_2KVE5splitNtNtBc_5alloc6GlobalEB1H_, symObjAddr: 0x7890, symBinAddr: 0x8460, symSize: 0x340 }
  - { offset: 0x26675, size: 0x8, addend: 0x0, symName: __RINvMsW_NtNtNtCslJiobkLta79_5alloc11collections5btree4nodeINtB6_6HandleINtB6_7NodeRefNtNtB6_6marker3MutTjNtNtCsiK7Gs1zPIjf_14thiserror_impl4attr5TraitENtNtB8_7set_val9SetValZSTNtB1n_8InternalENtB1n_2KVE5splitNtNtBc_5alloc6GlobalEB1J_, symObjAddr: 0x7BD0, symBinAddr: 0x87A0, symSize: 0x320 }
  - { offset: 0x26A6C, size: 0x8, addend: 0x0, symName: __RINvMs_NtNtNtCslJiobkLta79_5alloc11collections5btree4nodeINtB5_12InternalNodeNtNtBb_6string6StringNtNtB7_7set_val9SetValZSTE3newNtNtBb_5alloc6GlobalECsiK7Gs1zPIjf_14thiserror_impl, symObjAddr: 0x7EF0, symBinAddr: 0x8AC0, symSize: 0x60 }
  - { offset: 0x26C88, size: 0x8, addend: 0x0, symName: __RINvMs_NtNtNtCslJiobkLta79_5alloc11collections5btree4nodeINtB5_12InternalNodeNtNtBb_6string6StringTINtNtB7_3set8BTreeSetB1d_EINtNtCsdGrGZaRBwMb_3syn10punctuated10PunctuatedNtCsaKzlTDPUHDb_11proc_macro211TokenStreamNtNtB24_5token4PlusEEE3newNtNtBb_5alloc6GlobalECsiK7Gs1zPIjf_14thiserror_impl, symObjAddr: 0x7F50, symBinAddr: 0x8B20, symSize: 0x60 }
  - { offset: 0x26EA4, size: 0x8, addend: 0x0, symName: __RINvMs_NtNtNtCslJiobkLta79_5alloc11collections5btree4nodeINtB5_12InternalNodeNtNtCsiK7Gs1zPIjf_14thiserror_impl5unraw10IdentUnrawNtNtB7_7set_val9SetValZSTE3newNtNtBb_5alloc6GlobalEB1h_, symObjAddr: 0x7FB0, symBinAddr: 0x8B80, symSize: 0x60 }
  - { offset: 0x270C0, size: 0x8, addend: 0x0, symName: __RINvMs_NtNtNtCslJiobkLta79_5alloc11collections5btree4nodeINtB5_12InternalNodeRNtCsaKzlTDPUHDb_11proc_macro25IdentNtNtB7_7set_val9SetValZSTE3newNtNtBb_5alloc6GlobalECsiK7Gs1zPIjf_14thiserror_impl, symObjAddr: 0x8010, symBinAddr: 0x8BE0, symSize: 0x50 }
  - { offset: 0x272DC, size: 0x8, addend: 0x0, symName: __RINvMs_NtNtNtCslJiobkLta79_5alloc11collections5btree4nodeINtB5_12InternalNodeTjNtNtCsiK7Gs1zPIjf_14thiserror_impl4attr5TraitENtNtB7_7set_val9SetValZSTE3newNtNtBb_5alloc6GlobalEB1j_, symObjAddr: 0x8060, symBinAddr: 0x8C30, symSize: 0x60 }
  - { offset: 0x275D7, size: 0x8, addend: 0x0, symName: __RINvMs_NtNtNtCslJiobkLta79_5alloc11collections5btree6searchINtNtB7_4node7NodeRefNtNtBY_6marker3MutNtNtBb_6string6StringNtNtB7_7set_val9SetValZSTNtB1i_14LeafOrInternalE11search_treeB1y_ECsiK7Gs1zPIjf_14thiserror_impl, symObjAddr: 0x80C0, symBinAddr: 0x8C90, symSize: 0x3A0 }
  - { offset: 0x27927, size: 0x8, addend: 0x0, symName: __RINvMs_NtNtNtCslJiobkLta79_5alloc11collections5btree6searchINtNtB7_4node7NodeRefNtNtBY_6marker3MutNtNtBb_6string6StringTINtNtB7_3set8BTreeSetB1y_EINtNtCsdGrGZaRBwMb_3syn10punctuated10PunctuatedNtCsaKzlTDPUHDb_11proc_macro211TokenStreamNtNtB2p_5token4PlusEENtB1i_14LeafOrInternalE11search_treeB1y_ECsiK7Gs1zPIjf_14thiserror_impl, symObjAddr: 0x8460, symBinAddr: 0x9030, symSize: 0x3A0 }
  - { offset: 0x27C77, size: 0x8, addend: 0x0, symName: __RINvMs_NtNtNtCslJiobkLta79_5alloc11collections5btree6searchINtNtB7_4node7NodeRefNtNtBY_6marker3MutNtNtCsiK7Gs1zPIjf_14thiserror_impl5unraw10IdentUnrawNtNtB7_7set_val9SetValZSTNtB1i_14LeafOrInternalE11search_treeB1y_EB1C_, symObjAddr: 0x8800, symBinAddr: 0x93D0, symSize: 0x3A0 }
  - { offset: 0x27FC7, size: 0x8, addend: 0x0, symName: __RINvMs_NtNtNtCslJiobkLta79_5alloc11collections5btree6searchINtNtB7_4node7NodeRefNtNtBY_6marker3MutTjNtNtCsiK7Gs1zPIjf_14thiserror_impl4attr5TraitENtNtB7_7set_val9SetValZSTNtB1i_14LeafOrInternalE11search_treeB1y_EB1E_, symObjAddr: 0x8BA0, symBinAddr: 0x9770, symSize: 0x3A0 }
  - { offset: 0x28353, size: 0x8, addend: 0x0, symName: __RINvMs_NtNtNtCslJiobkLta79_5alloc11collections5btree6searchINtNtB7_4node7NodeRefNtNtBY_6marker5ImmutNtNtBb_6string6StringTINtNtB7_3set8BTreeSetB1A_EINtNtCsdGrGZaRBwMb_3syn10punctuated10PunctuatedNtCsaKzlTDPUHDb_11proc_macro211TokenStreamNtNtB2r_5token4PlusEENtB1i_14LeafOrInternalE11search_treeB1A_ECsiK7Gs1zPIjf_14thiserror_impl, symObjAddr: 0x8F40, symBinAddr: 0x9B10, symSize: 0x3A0 }
  - { offset: 0x286A3, size: 0x8, addend: 0x0, symName: __RINvMs_NtNtNtCslJiobkLta79_5alloc11collections5btree6searchINtNtB7_4node7NodeRefNtNtBY_6marker5ImmutNtNtCsiK7Gs1zPIjf_14thiserror_impl5unraw10IdentUnrawNtNtB7_7set_val9SetValZSTNtB1i_14LeafOrInternalE11search_treeB1A_EB1E_, symObjAddr: 0x92E0, symBinAddr: 0x9EB0, symSize: 0x3A0 }
  - { offset: 0x289F3, size: 0x8, addend: 0x0, symName: __RINvMs_NtNtNtCslJiobkLta79_5alloc11collections5btree6searchINtNtB7_4node7NodeRefNtNtBY_6marker5ImmutRNtCsaKzlTDPUHDb_11proc_macro25IdentNtNtB7_7set_val9SetValZSTNtB1i_14LeafOrInternalE11search_treeB1B_ECsiK7Gs1zPIjf_14thiserror_impl, symObjAddr: 0x9680, symBinAddr: 0xA250, symSize: 0x3A0 }
  - { offset: 0x28CD1, size: 0x8, addend: 0x0, symName: __RINvMsh_NtNtNtCslJiobkLta79_5alloc11collections5btree4nodeINtB6_7NodeRefNtNtB6_6marker5DyingNtNtBc_6string6StringNtNtB8_7set_val9SetValZSTNtB1a_14LeafOrInternalE21deallocate_and_ascendNtNtBc_5alloc6GlobalECsiK7Gs1zPIjf_14thiserror_impl, symObjAddr: 0x9A20, symBinAddr: 0xA5F0, symSize: 0x1A0 }
  - { offset: 0x28F52, size: 0x8, addend: 0x0, symName: __RINvMsh_NtNtNtCslJiobkLta79_5alloc11collections5btree4nodeINtB6_7NodeRefNtNtB6_6marker5DyingNtNtBc_6string6StringTINtNtB8_3set8BTreeSetB1s_EINtNtCsdGrGZaRBwMb_3syn10punctuated10PunctuatedNtCsaKzlTDPUHDb_11proc_macro211TokenStreamNtNtB2j_5token4PlusEENtB1a_14LeafOrInternalE21deallocate_and_ascendNtNtBc_5alloc6GlobalECsiK7Gs1zPIjf_14thiserror_impl, symObjAddr: 0x9BC0, symBinAddr: 0xA790, symSize: 0x1A0 }
  - { offset: 0x291D3, size: 0x8, addend: 0x0, symName: __RINvMsh_NtNtNtCslJiobkLta79_5alloc11collections5btree4nodeINtB6_7NodeRefNtNtB6_6marker5DyingNtNtCsiK7Gs1zPIjf_14thiserror_impl5unraw10IdentUnrawNtNtB8_7set_val9SetValZSTNtB1a_14LeafOrInternalE21deallocate_and_ascendNtNtBc_5alloc6GlobalEB1w_, symObjAddr: 0x9D60, symBinAddr: 0xA930, symSize: 0x1A0 }
  - { offset: 0x29454, size: 0x8, addend: 0x0, symName: __RINvMsh_NtNtNtCslJiobkLta79_5alloc11collections5btree4nodeINtB6_7NodeRefNtNtB6_6marker5DyingRNtCsaKzlTDPUHDb_11proc_macro25IdentNtNtB8_7set_val9SetValZSTNtB1a_14LeafOrInternalE21deallocate_and_ascendNtNtBc_5alloc6GlobalECsiK7Gs1zPIjf_14thiserror_impl, symObjAddr: 0x9F00, symBinAddr: 0xAAD0, symSize: 0x1A0 }
  - { offset: 0x296D5, size: 0x8, addend: 0x0, symName: __RINvMsh_NtNtNtCslJiobkLta79_5alloc11collections5btree4nodeINtB6_7NodeRefNtNtB6_6marker5DyingTjNtNtCsiK7Gs1zPIjf_14thiserror_impl4attr5TraitENtNtB8_7set_val9SetValZSTNtB1a_14LeafOrInternalE21deallocate_and_ascendNtNtBc_5alloc6GlobalEB1y_, symObjAddr: 0xA0A0, symBinAddr: 0xAC70, symSize: 0x1A0 }
  - { offset: 0x29929, size: 0x8, addend: 0x0, symName: __RINvMsj_NtNtNtCslJiobkLta79_5alloc11collections5btree8navigateINtNtB8_4node6HandleINtB11_7NodeRefNtNtB11_6marker5DyingNtNtBc_6string6StringNtNtB8_7set_val9SetValZSTNtB1z_4LeafENtB1z_4EdgeE16deallocating_endNtNtBc_5alloc6GlobalECsiK7Gs1zPIjf_14thiserror_impl, symObjAddr: 0xA240, symBinAddr: 0xAE10, symSize: 0xF0 }
  - { offset: 0x29B9F, size: 0x8, addend: 0x0, symName: __RINvMsj_NtNtNtCslJiobkLta79_5alloc11collections5btree8navigateINtNtB8_4node6HandleINtB11_7NodeRefNtNtB11_6marker5DyingNtNtBc_6string6StringNtNtB8_7set_val9SetValZSTNtB1z_4LeafENtB1z_4EdgeE17deallocating_nextNtNtBc_5alloc6GlobalECsiK7Gs1zPIjf_14thiserror_impl, symObjAddr: 0xA330, symBinAddr: 0xAF00, symSize: 0x370 }
  - { offset: 0x29DEA, size: 0x8, addend: 0x0, symName: __RINvMsj_NtNtNtCslJiobkLta79_5alloc11collections5btree8navigateINtNtB8_4node6HandleINtB11_7NodeRefNtNtB11_6marker5DyingNtNtBc_6string6StringTINtNtB8_3set8BTreeSetB1S_EINtNtCsdGrGZaRBwMb_3syn10punctuated10PunctuatedNtCsaKzlTDPUHDb_11proc_macro211TokenStreamNtNtB2J_5token4PlusEENtB1z_4LeafENtB1z_4EdgeE16deallocating_endNtNtBc_5alloc6GlobalECsiK7Gs1zPIjf_14thiserror_impl, symObjAddr: 0xA6A0, symBinAddr: 0xB270, symSize: 0xF0 }
  - { offset: 0x2A060, size: 0x8, addend: 0x0, symName: __RINvMsj_NtNtNtCslJiobkLta79_5alloc11collections5btree8navigateINtNtB8_4node6HandleINtB11_7NodeRefNtNtB11_6marker5DyingNtNtBc_6string6StringTINtNtB8_3set8BTreeSetB1S_EINtNtCsdGrGZaRBwMb_3syn10punctuated10PunctuatedNtCsaKzlTDPUHDb_11proc_macro211TokenStreamNtNtB2J_5token4PlusEENtB1z_4LeafENtB1z_4EdgeE17deallocating_nextNtNtBc_5alloc6GlobalECsiK7Gs1zPIjf_14thiserror_impl, symObjAddr: 0xA790, symBinAddr: 0xB360, symSize: 0x370 }
  - { offset: 0x2A2AB, size: 0x8, addend: 0x0, symName: __RINvMsj_NtNtNtCslJiobkLta79_5alloc11collections5btree8navigateINtNtB8_4node6HandleINtB11_7NodeRefNtNtB11_6marker5DyingNtNtCsiK7Gs1zPIjf_14thiserror_impl5unraw10IdentUnrawNtNtB8_7set_val9SetValZSTNtB1z_4LeafENtB1z_4EdgeE16deallocating_endNtNtBc_5alloc6GlobalEB1W_, symObjAddr: 0xAB00, symBinAddr: 0xB6D0, symSize: 0xF0 }
  - { offset: 0x2A521, size: 0x8, addend: 0x0, symName: __RINvMsj_NtNtNtCslJiobkLta79_5alloc11collections5btree8navigateINtNtB8_4node6HandleINtB11_7NodeRefNtNtB11_6marker5DyingNtNtCsiK7Gs1zPIjf_14thiserror_impl5unraw10IdentUnrawNtNtB8_7set_val9SetValZSTNtB1z_4LeafENtB1z_4EdgeE17deallocating_nextNtNtBc_5alloc6GlobalEB1W_, symObjAddr: 0xABF0, symBinAddr: 0xB7C0, symSize: 0x370 }
  - { offset: 0x2A76C, size: 0x8, addend: 0x0, symName: __RINvMsj_NtNtNtCslJiobkLta79_5alloc11collections5btree8navigateINtNtB8_4node6HandleINtB11_7NodeRefNtNtB11_6marker5DyingRNtCsaKzlTDPUHDb_11proc_macro25IdentNtNtB8_7set_val9SetValZSTNtB1z_4LeafENtB1z_4EdgeE16deallocating_endNtNtBc_5alloc6GlobalECsiK7Gs1zPIjf_14thiserror_impl, symObjAddr: 0xAF60, symBinAddr: 0xBB30, symSize: 0xF0 }
  - { offset: 0x2A9E2, size: 0x8, addend: 0x0, symName: __RINvMsj_NtNtNtCslJiobkLta79_5alloc11collections5btree8navigateINtNtB8_4node6HandleINtB11_7NodeRefNtNtB11_6marker5DyingRNtCsaKzlTDPUHDb_11proc_macro25IdentNtNtB8_7set_val9SetValZSTNtB1z_4LeafENtB1z_4EdgeE17deallocating_nextNtNtBc_5alloc6GlobalECsiK7Gs1zPIjf_14thiserror_impl, symObjAddr: 0xB050, symBinAddr: 0xBC20, symSize: 0x360 }
  - { offset: 0x2AC2D, size: 0x8, addend: 0x0, symName: __RINvMsj_NtNtNtCslJiobkLta79_5alloc11collections5btree8navigateINtNtB8_4node6HandleINtB11_7NodeRefNtNtB11_6marker5DyingTjNtNtCsiK7Gs1zPIjf_14thiserror_impl4attr5TraitENtNtB8_7set_val9SetValZSTNtB1z_4LeafENtB1z_4EdgeE16deallocating_endNtNtBc_5alloc6GlobalEB1Y_, symObjAddr: 0xB3B0, symBinAddr: 0xBF80, symSize: 0xF0 }
  - { offset: 0x2AEA3, size: 0x8, addend: 0x0, symName: __RINvMsj_NtNtNtCslJiobkLta79_5alloc11collections5btree8navigateINtNtB8_4node6HandleINtB11_7NodeRefNtNtB11_6marker5DyingTjNtNtCsiK7Gs1zPIjf_14thiserror_impl4attr5TraitENtNtB8_7set_val9SetValZSTNtB1z_4LeafENtB1z_4EdgeE17deallocating_nextNtNtBc_5alloc6GlobalEB1Y_, symObjAddr: 0xB4A0, symBinAddr: 0xC070, symSize: 0x370 }
  - { offset: 0x2B105, size: 0x8, addend: 0x0, symName: __RINvMsp_NtNtNtCslJiobkLta79_5alloc11collections5btree4nodeINtB6_7NodeRefNtNtB6_6marker3MutNtNtBc_6string6StringNtNtB8_7set_val9SetValZSTNtB1a_8InternalE30correct_childrens_parent_linksINtNtNtCsieiGu2EXtoJ_4core3ops5range14RangeInclusivejEECsiK7Gs1zPIjf_14thiserror_impl, symObjAddr: 0xB810, symBinAddr: 0xC3E0, symSize: 0xC0 }
  - { offset: 0x2B23D, size: 0x8, addend: 0x0, symName: __RINvMsp_NtNtNtCslJiobkLta79_5alloc11collections5btree4nodeINtB6_7NodeRefNtNtB6_6marker3MutNtNtBc_6string6StringNtNtB8_7set_val9SetValZSTNtB1a_8InternalE30correct_childrens_parent_linksINtNtNtCsieiGu2EXtoJ_4core3ops5range5RangejEECsiK7Gs1zPIjf_14thiserror_impl, symObjAddr: 0xB8D0, symBinAddr: 0xC4A0, symSize: 0xC0 }
  - { offset: 0x2B374, size: 0x8, addend: 0x0, symName: __RINvMsp_NtNtNtCslJiobkLta79_5alloc11collections5btree4nodeINtB6_7NodeRefNtNtB6_6marker3MutNtNtBc_6string6StringTINtNtB8_3set8BTreeSetB1q_EINtNtCsdGrGZaRBwMb_3syn10punctuated10PunctuatedNtCsaKzlTDPUHDb_11proc_macro211TokenStreamNtNtB2h_5token4PlusEENtB1a_8InternalE30correct_childrens_parent_linksINtNtNtCsieiGu2EXtoJ_4core3ops5range14RangeInclusivejEECsiK7Gs1zPIjf_14thiserror_impl, symObjAddr: 0xB990, symBinAddr: 0xC560, symSize: 0xC0 }
  - { offset: 0x2B4AC, size: 0x8, addend: 0x0, symName: __RINvMsp_NtNtNtCslJiobkLta79_5alloc11collections5btree4nodeINtB6_7NodeRefNtNtB6_6marker3MutNtNtBc_6string6StringTINtNtB8_3set8BTreeSetB1q_EINtNtCsdGrGZaRBwMb_3syn10punctuated10PunctuatedNtCsaKzlTDPUHDb_11proc_macro211TokenStreamNtNtB2h_5token4PlusEENtB1a_8InternalE30correct_childrens_parent_linksINtNtNtCsieiGu2EXtoJ_4core3ops5range5RangejEECsiK7Gs1zPIjf_14thiserror_impl, symObjAddr: 0xBA50, symBinAddr: 0xC620, symSize: 0xC0 }
  - { offset: 0x2B5E3, size: 0x8, addend: 0x0, symName: __RINvMsp_NtNtNtCslJiobkLta79_5alloc11collections5btree4nodeINtB6_7NodeRefNtNtB6_6marker3MutNtNtCsiK7Gs1zPIjf_14thiserror_impl5unraw10IdentUnrawNtNtB8_7set_val9SetValZSTNtB1a_8InternalE30correct_childrens_parent_linksINtNtNtCsieiGu2EXtoJ_4core3ops5range14RangeInclusivejEEB1u_, symObjAddr: 0xBB10, symBinAddr: 0xC6E0, symSize: 0xC0 }
  - { offset: 0x2B71B, size: 0x8, addend: 0x0, symName: __RINvMsp_NtNtNtCslJiobkLta79_5alloc11collections5btree4nodeINtB6_7NodeRefNtNtB6_6marker3MutNtNtCsiK7Gs1zPIjf_14thiserror_impl5unraw10IdentUnrawNtNtB8_7set_val9SetValZSTNtB1a_8InternalE30correct_childrens_parent_linksINtNtNtCsieiGu2EXtoJ_4core3ops5range5RangejEEB1u_, symObjAddr: 0xBBD0, symBinAddr: 0xC7A0, symSize: 0xC0 }
  - { offset: 0x2B852, size: 0x8, addend: 0x0, symName: __RINvMsp_NtNtNtCslJiobkLta79_5alloc11collections5btree4nodeINtB6_7NodeRefNtNtB6_6marker3MutRNtCsaKzlTDPUHDb_11proc_macro25IdentNtNtB8_7set_val9SetValZSTNtB1a_8InternalE30correct_childrens_parent_linksINtNtNtCsieiGu2EXtoJ_4core3ops5range14RangeInclusivejEECsiK7Gs1zPIjf_14thiserror_impl, symObjAddr: 0xBC90, symBinAddr: 0xC860, symSize: 0xC0 }
  - { offset: 0x2B98A, size: 0x8, addend: 0x0, symName: __RINvMsp_NtNtNtCslJiobkLta79_5alloc11collections5btree4nodeINtB6_7NodeRefNtNtB6_6marker3MutRNtCsaKzlTDPUHDb_11proc_macro25IdentNtNtB8_7set_val9SetValZSTNtB1a_8InternalE30correct_childrens_parent_linksINtNtNtCsieiGu2EXtoJ_4core3ops5range5RangejEECsiK7Gs1zPIjf_14thiserror_impl, symObjAddr: 0xBD50, symBinAddr: 0xC920, symSize: 0xC0 }
  - { offset: 0x2BAC1, size: 0x8, addend: 0x0, symName: __RINvMsp_NtNtNtCslJiobkLta79_5alloc11collections5btree4nodeINtB6_7NodeRefNtNtB6_6marker3MutTjNtNtCsiK7Gs1zPIjf_14thiserror_impl4attr5TraitENtNtB8_7set_val9SetValZSTNtB1a_8InternalE30correct_childrens_parent_linksINtNtNtCsieiGu2EXtoJ_4core3ops5range14RangeInclusivejEEB1w_, symObjAddr: 0xBE10, symBinAddr: 0xC9E0, symSize: 0xC0 }
  - { offset: 0x2BBF9, size: 0x8, addend: 0x0, symName: __RINvMsp_NtNtNtCslJiobkLta79_5alloc11collections5btree4nodeINtB6_7NodeRefNtNtB6_6marker3MutTjNtNtCsiK7Gs1zPIjf_14thiserror_impl4attr5TraitENtNtB8_7set_val9SetValZSTNtB1a_8InternalE30correct_childrens_parent_linksINtNtNtCsieiGu2EXtoJ_4core3ops5range5RangejEEB1w_, symObjAddr: 0xBED0, symBinAddr: 0xCAA0, symSize: 0xC0 }
  - { offset: 0x2C2CC, size: 0x8, addend: 0x0, symName: __RNvMs0_NtNtNtCslJiobkLta79_5alloc11collections5btree3fixINtNtB7_4node7NodeRefNtNtBV_6marker5OwnedRNtCsaKzlTDPUHDb_11proc_macro25IdentNtNtB7_7set_val9SetValZSTNtB1f_14LeafOrInternalE29fix_right_border_of_plentifulCsiK7Gs1zPIjf_14thiserror_impl, symObjAddr: 0xD3C0, symBinAddr: 0xDF90, symSize: 0x1E0 }
  - { offset: 0x2CA17, size: 0x8, addend: 0x0, symName: __RNvMs10_NtNtNtCslJiobkLta79_5alloc11collections5btree4nodeINtB6_16BalancingContextRNtCsaKzlTDPUHDb_11proc_macro25IdentNtNtB8_7set_val9SetValZSTE15bulk_steal_leftCsiK7Gs1zPIjf_14thiserror_impl, symObjAddr: 0xD5A0, symBinAddr: 0xE170, symSize: 0xC80 }
  - { offset: 0x2DE5D, size: 0x8, addend: 0x0, symName: __RNvMsJ_NtNtNtCslJiobkLta79_5alloc11collections5btree4nodeINtB5_6HandleINtB5_7NodeRefNtNtB5_6marker3MutNtNtBb_6string6StringNtNtB7_7set_val9SetValZSTNtB1m_4LeafENtB1m_4EdgeE10insert_fitCsiK7Gs1zPIjf_14thiserror_impl, symObjAddr: 0xE220, symBinAddr: 0xEDF0, symSize: 0x250 }
  - { offset: 0x2E3D0, size: 0x8, addend: 0x0, symName: __RNvMsJ_NtNtNtCslJiobkLta79_5alloc11collections5btree4nodeINtB5_6HandleINtB5_7NodeRefNtNtB5_6marker3MutNtNtBb_6string6StringTINtNtB7_3set8BTreeSetB1C_EINtNtCsdGrGZaRBwMb_3syn10punctuated10PunctuatedNtCsaKzlTDPUHDb_11proc_macro211TokenStreamNtNtB2t_5token4PlusEENtB1m_4LeafENtB1m_4EdgeE10insert_fitCsiK7Gs1zPIjf_14thiserror_impl, symObjAddr: 0xE470, symBinAddr: 0xF040, symSize: 0x2C0 }
  - { offset: 0x2E943, size: 0x8, addend: 0x0, symName: __RNvMsJ_NtNtNtCslJiobkLta79_5alloc11collections5btree4nodeINtB5_6HandleINtB5_7NodeRefNtNtB5_6marker3MutNtNtCsiK7Gs1zPIjf_14thiserror_impl5unraw10IdentUnrawNtNtB7_7set_val9SetValZSTNtB1m_4LeafENtB1m_4EdgeE10insert_fitB1G_, symObjAddr: 0xE730, symBinAddr: 0xF300, symSize: 0x250 }
  - { offset: 0x2EEB6, size: 0x8, addend: 0x0, symName: __RNvMsJ_NtNtNtCslJiobkLta79_5alloc11collections5btree4nodeINtB5_6HandleINtB5_7NodeRefNtNtB5_6marker3MutTjNtNtCsiK7Gs1zPIjf_14thiserror_impl4attr5TraitENtNtB7_7set_val9SetValZSTNtB1m_4LeafENtB1m_4EdgeE10insert_fitB1I_, symObjAddr: 0xE980, symBinAddr: 0xF550, symSize: 0x240 }
  - { offset: 0x2F331, size: 0x8, addend: 0x0, symName: __RNvMsL_NtNtNtCslJiobkLta79_5alloc11collections5btree4nodeINtB5_6HandleINtB5_7NodeRefNtNtB5_6marker3MutNtNtBb_6string6StringNtNtB7_7set_val9SetValZSTNtB1m_8InternalENtB1m_4EdgeE19correct_parent_linkCsiK7Gs1zPIjf_14thiserror_impl, symObjAddr: 0xEBC0, symBinAddr: 0xF790, symSize: 0xA0 }
  - { offset: 0x2F539, size: 0x8, addend: 0x0, symName: __RNvMsL_NtNtNtCslJiobkLta79_5alloc11collections5btree4nodeINtB5_6HandleINtB5_7NodeRefNtNtB5_6marker3MutNtNtBb_6string6StringTINtNtB7_3set8BTreeSetB1C_EINtNtCsdGrGZaRBwMb_3syn10punctuated10PunctuatedNtCsaKzlTDPUHDb_11proc_macro211TokenStreamNtNtB2t_5token4PlusEENtB1m_8InternalENtB1m_4EdgeE19correct_parent_linkCsiK7Gs1zPIjf_14thiserror_impl, symObjAddr: 0xEC60, symBinAddr: 0xF830, symSize: 0xA0 }
  - { offset: 0x2F741, size: 0x8, addend: 0x0, symName: __RNvMsL_NtNtNtCslJiobkLta79_5alloc11collections5btree4nodeINtB5_6HandleINtB5_7NodeRefNtNtB5_6marker3MutNtNtCsiK7Gs1zPIjf_14thiserror_impl5unraw10IdentUnrawNtNtB7_7set_val9SetValZSTNtB1m_8InternalENtB1m_4EdgeE19correct_parent_linkB1G_, symObjAddr: 0xED00, symBinAddr: 0xF8D0, symSize: 0xA0 }
  - { offset: 0x2F93C, size: 0x8, addend: 0x0, symName: __RNvMsL_NtNtNtCslJiobkLta79_5alloc11collections5btree4nodeINtB5_6HandleINtB5_7NodeRefNtNtB5_6marker3MutRNtCsaKzlTDPUHDb_11proc_macro25IdentNtNtB7_7set_val9SetValZSTNtB1m_8InternalENtB1m_4EdgeE19correct_parent_linkCsiK7Gs1zPIjf_14thiserror_impl, symObjAddr: 0xEDA0, symBinAddr: 0xF970, symSize: 0xA0 }
  - { offset: 0x2FB44, size: 0x8, addend: 0x0, symName: __RNvMsL_NtNtNtCslJiobkLta79_5alloc11collections5btree4nodeINtB5_6HandleINtB5_7NodeRefNtNtB5_6marker3MutTjNtNtCsiK7Gs1zPIjf_14thiserror_impl4attr5TraitENtNtB7_7set_val9SetValZSTNtB1m_8InternalENtB1m_4EdgeE19correct_parent_linkB1I_, symObjAddr: 0xEE40, symBinAddr: 0xFA10, symSize: 0xA0 }
  - { offset: 0x2FE7A, size: 0x8, addend: 0x0, symName: __RNvMsM_NtNtNtCslJiobkLta79_5alloc11collections5btree4nodeINtB5_6HandleINtB5_7NodeRefNtNtB5_6marker3MutNtNtBb_6string6StringNtNtB7_7set_val9SetValZSTNtB1m_8InternalENtB1m_4EdgeE10insert_fitCsiK7Gs1zPIjf_14thiserror_impl, symObjAddr: 0xEEE0, symBinAddr: 0xFAB0, symSize: 0x320 }
  - { offset: 0x3051B, size: 0x8, addend: 0x0, symName: __RNvMsM_NtNtNtCslJiobkLta79_5alloc11collections5btree4nodeINtB5_6HandleINtB5_7NodeRefNtNtB5_6marker3MutNtNtBb_6string6StringTINtNtB7_3set8BTreeSetB1C_EINtNtCsdGrGZaRBwMb_3syn10punctuated10PunctuatedNtCsaKzlTDPUHDb_11proc_macro211TokenStreamNtNtB2t_5token4PlusEENtB1m_8InternalENtB1m_4EdgeE10insert_fitCsiK7Gs1zPIjf_14thiserror_impl, symObjAddr: 0xF200, symBinAddr: 0xFDD0, symSize: 0x390 }
  - { offset: 0x30BBC, size: 0x8, addend: 0x0, symName: __RNvMsM_NtNtNtCslJiobkLta79_5alloc11collections5btree4nodeINtB5_6HandleINtB5_7NodeRefNtNtB5_6marker3MutNtNtCsiK7Gs1zPIjf_14thiserror_impl5unraw10IdentUnrawNtNtB7_7set_val9SetValZSTNtB1m_8InternalENtB1m_4EdgeE10insert_fitB1G_, symObjAddr: 0xF590, symBinAddr: 0x10160, symSize: 0x320 }
  - { offset: 0x3125D, size: 0x8, addend: 0x0, symName: __RNvMsM_NtNtNtCslJiobkLta79_5alloc11collections5btree4nodeINtB5_6HandleINtB5_7NodeRefNtNtB5_6marker3MutTjNtNtCsiK7Gs1zPIjf_14thiserror_impl4attr5TraitENtNtB7_7set_val9SetValZSTNtB1m_8InternalENtB1m_4EdgeE10insert_fitB1I_, symObjAddr: 0xF8B0, symBinAddr: 0x10480, symSize: 0x310 }
  - { offset: 0x31794, size: 0x8, addend: 0x0, symName: __RNvMsO_NtNtNtCslJiobkLta79_5alloc11collections5btree4nodeINtB5_6HandleINtB5_7NodeRefNtNtB5_6marker3MutNtNtBb_6string6StringNtNtB7_7set_val9SetValZSTNtB1m_8InternalENtB1m_4EdgeE7descendCsiK7Gs1zPIjf_14thiserror_impl, symObjAddr: 0xFBC0, symBinAddr: 0x10790, symSize: 0x80 }
  - { offset: 0x3198F, size: 0x8, addend: 0x0, symName: __RNvMsO_NtNtNtCslJiobkLta79_5alloc11collections5btree4nodeINtB5_6HandleINtB5_7NodeRefNtNtB5_6marker3MutNtNtBb_6string6StringTINtNtB7_3set8BTreeSetB1C_EINtNtCsdGrGZaRBwMb_3syn10punctuated10PunctuatedNtCsaKzlTDPUHDb_11proc_macro211TokenStreamNtNtB2t_5token4PlusEENtB1m_8InternalENtB1m_4EdgeE7descendCsiK7Gs1zPIjf_14thiserror_impl, symObjAddr: 0xFC40, symBinAddr: 0x10810, symSize: 0x80 }
  - { offset: 0x31B8A, size: 0x8, addend: 0x0, symName: __RNvMsO_NtNtNtCslJiobkLta79_5alloc11collections5btree4nodeINtB5_6HandleINtB5_7NodeRefNtNtB5_6marker3MutNtNtCsiK7Gs1zPIjf_14thiserror_impl5unraw10IdentUnrawNtNtB7_7set_val9SetValZSTNtB1m_8InternalENtB1m_4EdgeE7descendB1G_, symObjAddr: 0xFCC0, symBinAddr: 0x10890, symSize: 0x80 }
  - { offset: 0x31D85, size: 0x8, addend: 0x0, symName: __RNvMsO_NtNtNtCslJiobkLta79_5alloc11collections5btree4nodeINtB5_6HandleINtB5_7NodeRefNtNtB5_6marker3MutRNtCsaKzlTDPUHDb_11proc_macro25IdentNtNtB7_7set_val9SetValZSTNtB1m_8InternalENtB1m_4EdgeE7descendCsiK7Gs1zPIjf_14thiserror_impl, symObjAddr: 0xFD40, symBinAddr: 0x10910, symSize: 0x80 }
  - { offset: 0x31F80, size: 0x8, addend: 0x0, symName: __RNvMsO_NtNtNtCslJiobkLta79_5alloc11collections5btree4nodeINtB5_6HandleINtB5_7NodeRefNtNtB5_6marker3MutTjNtNtCsiK7Gs1zPIjf_14thiserror_impl4attr5TraitENtNtB7_7set_val9SetValZSTNtB1m_8InternalENtB1m_4EdgeE7descendB1I_, symObjAddr: 0xFDC0, symBinAddr: 0x10990, symSize: 0x80 }
  - { offset: 0x32150, size: 0x8, addend: 0x0, symName: __RNvMsO_NtNtNtCslJiobkLta79_5alloc11collections5btree4nodeINtB5_6HandleINtB5_7NodeRefNtNtB5_6marker5DyingNtNtBb_6string6StringNtNtB7_7set_val9SetValZSTNtB1m_8InternalENtB1m_4EdgeE7descendCsiK7Gs1zPIjf_14thiserror_impl, symObjAddr: 0xFE40, symBinAddr: 0x10A10, symSize: 0x80 }
  - { offset: 0x32320, size: 0x8, addend: 0x0, symName: __RNvMsO_NtNtNtCslJiobkLta79_5alloc11collections5btree4nodeINtB5_6HandleINtB5_7NodeRefNtNtB5_6marker5DyingNtNtBb_6string6StringTINtNtB7_3set8BTreeSetB1E_EINtNtCsdGrGZaRBwMb_3syn10punctuated10PunctuatedNtCsaKzlTDPUHDb_11proc_macro211TokenStreamNtNtB2v_5token4PlusEENtB1m_8InternalENtB1m_4EdgeE7descendCsiK7Gs1zPIjf_14thiserror_impl, symObjAddr: 0xFEC0, symBinAddr: 0x10A90, symSize: 0x80 }
  - { offset: 0x324F0, size: 0x8, addend: 0x0, symName: __RNvMsO_NtNtNtCslJiobkLta79_5alloc11collections5btree4nodeINtB5_6HandleINtB5_7NodeRefNtNtB5_6marker5DyingNtNtCsiK7Gs1zPIjf_14thiserror_impl5unraw10IdentUnrawNtNtB7_7set_val9SetValZSTNtB1m_8InternalENtB1m_4EdgeE7descendB1I_, symObjAddr: 0xFF40, symBinAddr: 0x10B10, symSize: 0x80 }
  - { offset: 0x326C0, size: 0x8, addend: 0x0, symName: __RNvMsO_NtNtNtCslJiobkLta79_5alloc11collections5btree4nodeINtB5_6HandleINtB5_7NodeRefNtNtB5_6marker5DyingRNtCsaKzlTDPUHDb_11proc_macro25IdentNtNtB7_7set_val9SetValZSTNtB1m_8InternalENtB1m_4EdgeE7descendCsiK7Gs1zPIjf_14thiserror_impl, symObjAddr: 0xFFC0, symBinAddr: 0x10B90, symSize: 0x80 }
  - { offset: 0x32890, size: 0x8, addend: 0x0, symName: __RNvMsO_NtNtNtCslJiobkLta79_5alloc11collections5btree4nodeINtB5_6HandleINtB5_7NodeRefNtNtB5_6marker5DyingTjNtNtCsiK7Gs1zPIjf_14thiserror_impl4attr5TraitENtNtB7_7set_val9SetValZSTNtB1m_8InternalENtB1m_4EdgeE7descendB1K_, symObjAddr: 0x10040, symBinAddr: 0x10C10, symSize: 0x80 }
  - { offset: 0x32A60, size: 0x8, addend: 0x0, symName: __RNvMsO_NtNtNtCslJiobkLta79_5alloc11collections5btree4nodeINtB5_6HandleINtB5_7NodeRefNtNtB5_6marker5ImmutNtNtBb_6string6StringTINtNtB7_3set8BTreeSetB1E_EINtNtCsdGrGZaRBwMb_3syn10punctuated10PunctuatedNtCsaKzlTDPUHDb_11proc_macro211TokenStreamNtNtB2v_5token4PlusEENtB1m_8InternalENtB1m_4EdgeE7descendCsiK7Gs1zPIjf_14thiserror_impl, symObjAddr: 0x100C0, symBinAddr: 0x10C90, symSize: 0x80 }
  - { offset: 0x32C30, size: 0x8, addend: 0x0, symName: __RNvMsO_NtNtNtCslJiobkLta79_5alloc11collections5btree4nodeINtB5_6HandleINtB5_7NodeRefNtNtB5_6marker5ImmutNtNtCsiK7Gs1zPIjf_14thiserror_impl5unraw10IdentUnrawNtNtB7_7set_val9SetValZSTNtB1m_8InternalENtB1m_4EdgeE7descendB1I_, symObjAddr: 0x10140, symBinAddr: 0x10D10, symSize: 0x80 }
  - { offset: 0x32E00, size: 0x8, addend: 0x0, symName: __RNvMsO_NtNtNtCslJiobkLta79_5alloc11collections5btree4nodeINtB5_6HandleINtB5_7NodeRefNtNtB5_6marker5ImmutRNtCsaKzlTDPUHDb_11proc_macro25IdentNtNtB7_7set_val9SetValZSTNtB1m_8InternalENtB1m_4EdgeE7descendCsiK7Gs1zPIjf_14thiserror_impl, symObjAddr: 0x101C0, symBinAddr: 0x10D90, symSize: 0x80 }
  - { offset: 0x32FD0, size: 0x8, addend: 0x0, symName: __RNvMsO_NtNtNtCslJiobkLta79_5alloc11collections5btree4nodeINtB5_6HandleINtB5_7NodeRefNtNtB5_6marker5ImmutTjNtNtCsiK7Gs1zPIjf_14thiserror_impl4attr5TraitENtNtB7_7set_val9SetValZSTNtB1m_8InternalENtB1m_4EdgeE7descendB1K_, symObjAddr: 0x10240, symBinAddr: 0x10E10, symSize: 0x80 }
  - { offset: 0x332AE, size: 0x8, addend: 0x0, symName: __RNvMsP_NtNtNtCslJiobkLta79_5alloc11collections5btree4nodeINtB5_6HandleINtB5_7NodeRefNtNtB5_6marker5ImmutNtNtBb_6string6StringTINtNtB7_3set8BTreeSetB1E_EINtNtCsdGrGZaRBwMb_3syn10punctuated10PunctuatedNtCsaKzlTDPUHDb_11proc_macro211TokenStreamNtNtB2v_5token4PlusEENtB1m_14LeafOrInternalENtB1m_2KVE7into_kvCsiK7Gs1zPIjf_14thiserror_impl, symObjAddr: 0x102C0, symBinAddr: 0x10E90, symSize: 0xF0 }
  - { offset: 0x33615, size: 0x8, addend: 0x0, symName: __RNvMsP_NtNtNtCslJiobkLta79_5alloc11collections5btree4nodeINtB5_6HandleINtB5_7NodeRefNtNtB5_6marker5ImmutNtNtCsiK7Gs1zPIjf_14thiserror_impl5unraw10IdentUnrawNtNtB7_7set_val9SetValZSTNtB1m_14LeafOrInternalENtB1m_2KVE7into_kvB1I_, symObjAddr: 0x103B0, symBinAddr: 0x10F80, symSize: 0xE0 }
  - { offset: 0x33944, size: 0x8, addend: 0x0, symName: __RNvMsP_NtNtNtCslJiobkLta79_5alloc11collections5btree4nodeINtB5_6HandleINtB5_7NodeRefNtNtB5_6marker5ImmutRNtCsaKzlTDPUHDb_11proc_macro25IdentNtNtB7_7set_val9SetValZSTNtB1m_14LeafOrInternalENtB1m_2KVE7into_kvCsiK7Gs1zPIjf_14thiserror_impl, symObjAddr: 0x10490, symBinAddr: 0x11060, symSize: 0xE0 }
  - { offset: 0x33C8D, size: 0x8, addend: 0x0, symName: __RNvMsP_NtNtNtCslJiobkLta79_5alloc11collections5btree4nodeINtB5_6HandleINtB5_7NodeRefNtNtB5_6marker5ImmutTjNtNtCsiK7Gs1zPIjf_14thiserror_impl4attr5TraitENtNtB7_7set_val9SetValZSTNtB1m_4LeafENtB1m_2KVE7into_kvB1K_, symObjAddr: 0x10570, symBinAddr: 0x11140, symSize: 0xD0 }
  - { offset: 0x33F73, size: 0x8, addend: 0x0, symName: __RNvMsP_NtNtNtCslJiobkLta79_5alloc11collections5btree4nodeINtB5_6HandleINtB5_7NodeRefNtNtB5_6marker5ImmutTjNtNtCsiK7Gs1zPIjf_14thiserror_impl4attr5TraitENtNtB7_7set_val9SetValZSTNtB1m_8InternalENtB1m_2KVE7into_kvB1K_, symObjAddr: 0x10640, symBinAddr: 0x11210, symSize: 0xD0 }
  - { offset: 0x341F6, size: 0x8, addend: 0x0, symName: __RNvMsQ_NtNtNtCslJiobkLta79_5alloc11collections5btree4nodeINtB5_6HandleINtB5_7NodeRefNtNtB5_6marker3MutNtNtBb_6string6StringNtNtB7_7set_val9SetValZSTNtB1m_14LeafOrInternalENtB1m_2KVE12into_val_mutCsiK7Gs1zPIjf_14thiserror_impl, symObjAddr: 0x10710, symBinAddr: 0x112E0, symSize: 0x80 }
  - { offset: 0x34366, size: 0x8, addend: 0x0, symName: __RNvMsQ_NtNtNtCslJiobkLta79_5alloc11collections5btree4nodeINtB5_6HandleINtB5_7NodeRefNtNtB5_6marker3MutNtNtBb_6string6StringTINtNtB7_3set8BTreeSetB1C_EINtNtCsdGrGZaRBwMb_3syn10punctuated10PunctuatedNtCsaKzlTDPUHDb_11proc_macro211TokenStreamNtNtB2t_5token4PlusEENtB1m_14LeafOrInternalENtB1m_2KVE12into_val_mutCsiK7Gs1zPIjf_14thiserror_impl, symObjAddr: 0x10790, symBinAddr: 0x11360, symSize: 0x80 }
  - { offset: 0x344D6, size: 0x8, addend: 0x0, symName: __RNvMsQ_NtNtNtCslJiobkLta79_5alloc11collections5btree4nodeINtB5_6HandleINtB5_7NodeRefNtNtB5_6marker3MutNtNtCsiK7Gs1zPIjf_14thiserror_impl5unraw10IdentUnrawNtNtB7_7set_val9SetValZSTNtB1m_14LeafOrInternalENtB1m_2KVE12into_val_mutB1G_, symObjAddr: 0x10810, symBinAddr: 0x113E0, symSize: 0x80 }
  - { offset: 0x34646, size: 0x8, addend: 0x0, symName: __RNvMsQ_NtNtNtCslJiobkLta79_5alloc11collections5btree4nodeINtB5_6HandleINtB5_7NodeRefNtNtB5_6marker3MutRNtCsaKzlTDPUHDb_11proc_macro25IdentNtNtB7_7set_val9SetValZSTNtB1m_4LeafENtB1m_2KVE12into_val_mutCsiK7Gs1zPIjf_14thiserror_impl, symObjAddr: 0x10890, symBinAddr: 0x11460, symSize: 0x80 }
  - { offset: 0x347B6, size: 0x8, addend: 0x0, symName: __RNvMsQ_NtNtNtCslJiobkLta79_5alloc11collections5btree4nodeINtB5_6HandleINtB5_7NodeRefNtNtB5_6marker3MutTjNtNtCsiK7Gs1zPIjf_14thiserror_impl4attr5TraitENtNtB7_7set_val9SetValZSTNtB1m_14LeafOrInternalENtB1m_2KVE12into_val_mutB1I_, symObjAddr: 0x10910, symBinAddr: 0x114E0, symSize: 0x80 }
  - { offset: 0x34926, size: 0x8, addend: 0x0, symName: __RNvMsQ_NtNtNtCslJiobkLta79_5alloc11collections5btree4nodeINtB5_6HandleINtB5_7NodeRefNtNtB5_6marker3MutTjNtNtCsiK7Gs1zPIjf_14thiserror_impl4attr5TraitENtNtB7_7set_val9SetValZSTNtB1m_4LeafENtB1m_2KVE12into_val_mutB1I_, symObjAddr: 0x10990, symBinAddr: 0x11560, symSize: 0x80 }
  - { offset: 0x34AF8, size: 0x8, addend: 0x0, symName: __RNvMsS_NtNtNtCslJiobkLta79_5alloc11collections5btree4nodeINtB5_6HandleINtB5_7NodeRefNtNtB5_6marker3MutNtNtBb_6string6StringNtNtB7_7set_val9SetValZSTNtB1m_14LeafOrInternalENtB1m_2KVE6kv_mutCsiK7Gs1zPIjf_14thiserror_impl, symObjAddr: 0x10A10, symBinAddr: 0x115E0, symSize: 0x100 }
  - { offset: 0x34D98, size: 0x8, addend: 0x0, symName: __RNvMsS_NtNtNtCslJiobkLta79_5alloc11collections5btree4nodeINtB5_6HandleINtB5_7NodeRefNtNtB5_6marker3MutNtNtCsiK7Gs1zPIjf_14thiserror_impl5unraw10IdentUnrawNtNtB7_7set_val9SetValZSTNtB1m_14LeafOrInternalENtB1m_2KVE6kv_mutB1G_, symObjAddr: 0x10B10, symBinAddr: 0x116E0, symSize: 0x100 }
  - { offset: 0x34F6D, size: 0x8, addend: 0x0, symName: __RNvMsS_NtNtNtCslJiobkLta79_5alloc11collections5btree4nodeINtB5_6HandleINtB5_7NodeRefNtNtB5_6marker3MutRNtCsaKzlTDPUHDb_11proc_macro25IdentNtNtB7_7set_val9SetValZSTNtB1m_8InternalENtB1m_2KVE10replace_kvCsiK7Gs1zPIjf_14thiserror_impl, symObjAddr: 0x10C10, symBinAddr: 0x117E0, symSize: 0x60 }
  - { offset: 0x350E8, size: 0x8, addend: 0x0, symName: __RNvMsS_NtNtNtCslJiobkLta79_5alloc11collections5btree4nodeINtB5_6HandleINtB5_7NodeRefNtNtB5_6marker3MutRNtCsaKzlTDPUHDb_11proc_macro25IdentNtNtB7_7set_val9SetValZSTNtB1m_8InternalENtB1m_2KVE6kv_mutCsiK7Gs1zPIjf_14thiserror_impl, symObjAddr: 0x10C70, symBinAddr: 0x11840, symSize: 0x100 }
  - { offset: 0x35388, size: 0x8, addend: 0x0, symName: __RNvMsS_NtNtNtCslJiobkLta79_5alloc11collections5btree4nodeINtB5_6HandleINtB5_7NodeRefNtNtB5_6marker3MutTjNtNtCsiK7Gs1zPIjf_14thiserror_impl4attr5TraitENtNtB7_7set_val9SetValZSTNtB1m_14LeafOrInternalENtB1m_2KVE6kv_mutB1I_, symObjAddr: 0x10D70, symBinAddr: 0x11940, symSize: 0xF0 }
  - { offset: 0x3560A, size: 0x8, addend: 0x0, symName: __RNvMsT_NtNtNtCslJiobkLta79_5alloc11collections5btree4nodeINtB5_6HandleINtB5_7NodeRefNtNtB5_6marker5DyingNtNtBb_6string6StringNtNtB7_7set_val9SetValZSTNtB1m_14LeafOrInternalENtB1m_2KVE12drop_key_valCsiK7Gs1zPIjf_14thiserror_impl, symObjAddr: 0x10E60, symBinAddr: 0x11A30, symSize: 0x130 }
  - { offset: 0x358AD, size: 0x8, addend: 0x0, symName: __RNvMsT_NtNtNtCslJiobkLta79_5alloc11collections5btree4nodeINtB5_6HandleINtB5_7NodeRefNtNtB5_6marker5DyingNtNtBb_6string6StringTINtNtB7_3set8BTreeSetB1E_EINtNtCsdGrGZaRBwMb_3syn10punctuated10PunctuatedNtCsaKzlTDPUHDb_11proc_macro211TokenStreamNtNtB2v_5token4PlusEENtB1m_14LeafOrInternalENtB1m_2KVE12drop_key_valCsiK7Gs1zPIjf_14thiserror_impl, symObjAddr: 0x10F90, symBinAddr: 0x11B60, symSize: 0x140 }
  - { offset: 0x35B50, size: 0x8, addend: 0x0, symName: __RNvMsT_NtNtNtCslJiobkLta79_5alloc11collections5btree4nodeINtB5_6HandleINtB5_7NodeRefNtNtB5_6marker5DyingNtNtCsiK7Gs1zPIjf_14thiserror_impl5unraw10IdentUnrawNtNtB7_7set_val9SetValZSTNtB1m_14LeafOrInternalENtB1m_2KVE12drop_key_valB1I_, symObjAddr: 0x110D0, symBinAddr: 0x11CA0, symSize: 0x130 }
  - { offset: 0x35DBB, size: 0x8, addend: 0x0, symName: __RNvMsT_NtNtNtCslJiobkLta79_5alloc11collections5btree4nodeINtB5_6HandleINtB5_7NodeRefNtNtB5_6marker5DyingRNtCsaKzlTDPUHDb_11proc_macro25IdentNtNtB7_7set_val9SetValZSTNtB1m_14LeafOrInternalENtB1m_2KVE12drop_key_valCsiK7Gs1zPIjf_14thiserror_impl, symObjAddr: 0x11200, symBinAddr: 0x11DD0, symSize: 0x100 }
  - { offset: 0x35FC9, size: 0x8, addend: 0x0, symName: __RNvMsT_NtNtNtCslJiobkLta79_5alloc11collections5btree4nodeINtB5_6HandleINtB5_7NodeRefNtNtB5_6marker5DyingTjNtNtCsiK7Gs1zPIjf_14thiserror_impl4attr5TraitENtNtB7_7set_val9SetValZSTNtB1m_14LeafOrInternalENtB1m_2KVE12drop_key_valB1K_, symObjAddr: 0x11300, symBinAddr: 0x11ED0, symSize: 0xF0 }
  - { offset: 0x3623A, size: 0x8, addend: 0x0, symName: __RNvMsT_NtNtNtCslJiobkLta79_5alloc11collections5btree4nodeINtB5_6HandleINtB5_7NodeRefNtNtB5_6marker5DyingTjNtNtCsiK7Gs1zPIjf_14thiserror_impl4attr5TraitENtNtB7_7set_val9SetValZSTNtB1m_14LeafOrInternalENtB1m_2KVE12into_key_valB1K_, symObjAddr: 0x113F0, symBinAddr: 0x11FC0, symSize: 0x100 }
  - { offset: 0x366F7, size: 0x8, addend: 0x0, symName: __RNvMsU_NtNtNtCslJiobkLta79_5alloc11collections5btree4nodeINtB5_6HandleINtB5_7NodeRefNtNtB5_6marker3MutNtNtBb_6string6StringNtNtB7_7set_val9SetValZSTNtB1m_4LeafENtB1m_2KVE15split_leaf_dataCsiK7Gs1zPIjf_14thiserror_impl, symObjAddr: 0x114F0, symBinAddr: 0x120C0, symSize: 0x520 }
  - { offset: 0x3711C, size: 0x8, addend: 0x0, symName: __RNvMsU_NtNtNtCslJiobkLta79_5alloc11collections5btree4nodeINtB5_6HandleINtB5_7NodeRefNtNtB5_6marker3MutNtNtBb_6string6StringNtNtB7_7set_val9SetValZSTNtB1m_8InternalENtB1m_2KVE15split_leaf_dataCsiK7Gs1zPIjf_14thiserror_impl, symObjAddr: 0x11A10, symBinAddr: 0x125E0, symSize: 0x520 }
  - { offset: 0x37B41, size: 0x8, addend: 0x0, symName: __RNvMsU_NtNtNtCslJiobkLta79_5alloc11collections5btree4nodeINtB5_6HandleINtB5_7NodeRefNtNtB5_6marker3MutNtNtBb_6string6StringTINtNtB7_3set8BTreeSetB1C_EINtNtCsdGrGZaRBwMb_3syn10punctuated10PunctuatedNtCsaKzlTDPUHDb_11proc_macro211TokenStreamNtNtB2t_5token4PlusEENtB1m_4LeafENtB1m_2KVE15split_leaf_dataCsiK7Gs1zPIjf_14thiserror_impl, symObjAddr: 0x11F30, symBinAddr: 0x12B00, symSize: 0x580 }
  - { offset: 0x385F1, size: 0x8, addend: 0x0, symName: __RNvMsU_NtNtNtCslJiobkLta79_5alloc11collections5btree4nodeINtB5_6HandleINtB5_7NodeRefNtNtB5_6marker3MutNtNtBb_6string6StringTINtNtB7_3set8BTreeSetB1C_EINtNtCsdGrGZaRBwMb_3syn10punctuated10PunctuatedNtCsaKzlTDPUHDb_11proc_macro211TokenStreamNtNtB2t_5token4PlusEENtB1m_8InternalENtB1m_2KVE15split_leaf_dataCsiK7Gs1zPIjf_14thiserror_impl, symObjAddr: 0x124B0, symBinAddr: 0x13080, symSize: 0x580 }
  - { offset: 0x390A1, size: 0x8, addend: 0x0, symName: __RNvMsU_NtNtNtCslJiobkLta79_5alloc11collections5btree4nodeINtB5_6HandleINtB5_7NodeRefNtNtB5_6marker3MutNtNtCsiK7Gs1zPIjf_14thiserror_impl5unraw10IdentUnrawNtNtB7_7set_val9SetValZSTNtB1m_4LeafENtB1m_2KVE15split_leaf_dataB1G_, symObjAddr: 0x12A30, symBinAddr: 0x13600, symSize: 0x520 }
  - { offset: 0x39AC6, size: 0x8, addend: 0x0, symName: __RNvMsU_NtNtNtCslJiobkLta79_5alloc11collections5btree4nodeINtB5_6HandleINtB5_7NodeRefNtNtB5_6marker3MutNtNtCsiK7Gs1zPIjf_14thiserror_impl5unraw10IdentUnrawNtNtB7_7set_val9SetValZSTNtB1m_8InternalENtB1m_2KVE15split_leaf_dataB1G_, symObjAddr: 0x12F50, symBinAddr: 0x13B20, symSize: 0x520 }
  - { offset: 0x3A4EB, size: 0x8, addend: 0x0, symName: __RNvMsU_NtNtNtCslJiobkLta79_5alloc11collections5btree4nodeINtB5_6HandleINtB5_7NodeRefNtNtB5_6marker3MutTjNtNtCsiK7Gs1zPIjf_14thiserror_impl4attr5TraitENtNtB7_7set_val9SetValZSTNtB1m_4LeafENtB1m_2KVE15split_leaf_dataB1I_, symObjAddr: 0x13470, symBinAddr: 0x14040, symSize: 0x490 }
  - { offset: 0x3AF10, size: 0x8, addend: 0x0, symName: __RNvMsU_NtNtNtCslJiobkLta79_5alloc11collections5btree4nodeINtB5_6HandleINtB5_7NodeRefNtNtB5_6marker3MutTjNtNtCsiK7Gs1zPIjf_14thiserror_impl4attr5TraitENtNtB7_7set_val9SetValZSTNtB1m_8InternalENtB1m_2KVE15split_leaf_dataB1I_, symObjAddr: 0x13900, symBinAddr: 0x144D0, symSize: 0x490 }
  - { offset: 0x3B764, size: 0x8, addend: 0x0, symName: __RNvMsX_NtNtNtCslJiobkLta79_5alloc11collections5btree4nodeINtB5_6HandleINtB5_7NodeRefNtNtB5_6marker3MutRNtCsaKzlTDPUHDb_11proc_macro25IdentNtNtB7_7set_val9SetValZSTNtB1m_8InternalENtB1m_2KVE22consider_for_balancingCsiK7Gs1zPIjf_14thiserror_impl, symObjAddr: 0x13D90, symBinAddr: 0x14960, symSize: 0x130 }
  - { offset: 0x3B9A3, size: 0x8, addend: 0x0, symName: __RNvMse_NtNtNtCslJiobkLta79_5alloc11collections5btree4nodeINtB5_7NodeRefNtNtB5_6marker3MutNtNtBb_6string6StringNtNtB7_7set_val9SetValZSTNtB19_14LeafOrInternalE6ascendCsiK7Gs1zPIjf_14thiserror_impl, symObjAddr: 0x13EC0, symBinAddr: 0x14A90, symSize: 0x230 }
  - { offset: 0x3BC2A, size: 0x8, addend: 0x0, symName: __RNvMse_NtNtNtCslJiobkLta79_5alloc11collections5btree4nodeINtB5_7NodeRefNtNtB5_6marker3MutNtNtBb_6string6StringTINtNtB7_3set8BTreeSetB1p_EINtNtCsdGrGZaRBwMb_3syn10punctuated10PunctuatedNtCsaKzlTDPUHDb_11proc_macro211TokenStreamNtNtB2g_5token4PlusEENtB19_14LeafOrInternalE6ascendCsiK7Gs1zPIjf_14thiserror_impl, symObjAddr: 0x140F0, symBinAddr: 0x14CC0, symSize: 0x230 }
  - { offset: 0x3BEB1, size: 0x8, addend: 0x0, symName: __RNvMse_NtNtNtCslJiobkLta79_5alloc11collections5btree4nodeINtB5_7NodeRefNtNtB5_6marker3MutNtNtCsiK7Gs1zPIjf_14thiserror_impl5unraw10IdentUnrawNtNtB7_7set_val9SetValZSTNtB19_14LeafOrInternalE6ascendB1t_, symObjAddr: 0x14320, symBinAddr: 0x14EF0, symSize: 0x230 }
  - { offset: 0x3C138, size: 0x8, addend: 0x0, symName: __RNvMse_NtNtNtCslJiobkLta79_5alloc11collections5btree4nodeINtB5_7NodeRefNtNtB5_6marker3MutRNtCsaKzlTDPUHDb_11proc_macro25IdentNtNtB7_7set_val9SetValZSTNtB19_14LeafOrInternalE6ascendCsiK7Gs1zPIjf_14thiserror_impl, symObjAddr: 0x14550, symBinAddr: 0x15120, symSize: 0x230 }
  - { offset: 0x3C3BF, size: 0x8, addend: 0x0, symName: __RNvMse_NtNtNtCslJiobkLta79_5alloc11collections5btree4nodeINtB5_7NodeRefNtNtB5_6marker3MutTjNtNtCsiK7Gs1zPIjf_14thiserror_impl4attr5TraitENtNtB7_7set_val9SetValZSTNtB19_14LeafOrInternalE6ascendB1v_, symObjAddr: 0x14780, symBinAddr: 0x15350, symSize: 0x240 }
  - { offset: 0x3C61F, size: 0x8, addend: 0x0, symName: __RNvMse_NtNtNtCslJiobkLta79_5alloc11collections5btree4nodeINtB5_7NodeRefNtNtB5_6marker5DyingNtNtBb_6string6StringNtNtB7_7set_val9SetValZSTNtB19_14LeafOrInternalE6ascendCsiK7Gs1zPIjf_14thiserror_impl, symObjAddr: 0x149C0, symBinAddr: 0x15590, symSize: 0x230 }
  - { offset: 0x3C87F, size: 0x8, addend: 0x0, symName: __RNvMse_NtNtNtCslJiobkLta79_5alloc11collections5btree4nodeINtB5_7NodeRefNtNtB5_6marker5DyingNtNtBb_6string6StringTINtNtB7_3set8BTreeSetB1r_EINtNtCsdGrGZaRBwMb_3syn10punctuated10PunctuatedNtCsaKzlTDPUHDb_11proc_macro211TokenStreamNtNtB2i_5token4PlusEENtB19_14LeafOrInternalE6ascendCsiK7Gs1zPIjf_14thiserror_impl, symObjAddr: 0x14BF0, symBinAddr: 0x157C0, symSize: 0x230 }
  - { offset: 0x3CADF, size: 0x8, addend: 0x0, symName: __RNvMse_NtNtNtCslJiobkLta79_5alloc11collections5btree4nodeINtB5_7NodeRefNtNtB5_6marker5DyingNtNtCsiK7Gs1zPIjf_14thiserror_impl5unraw10IdentUnrawNtNtB7_7set_val9SetValZSTNtB19_14LeafOrInternalE6ascendB1v_, symObjAddr: 0x14E20, symBinAddr: 0x159F0, symSize: 0x230 }
  - { offset: 0x3CD3F, size: 0x8, addend: 0x0, symName: __RNvMse_NtNtNtCslJiobkLta79_5alloc11collections5btree4nodeINtB5_7NodeRefNtNtB5_6marker5DyingRNtCsaKzlTDPUHDb_11proc_macro25IdentNtNtB7_7set_val9SetValZSTNtB19_14LeafOrInternalE6ascendCsiK7Gs1zPIjf_14thiserror_impl, symObjAddr: 0x15050, symBinAddr: 0x15C20, symSize: 0x230 }
  - { offset: 0x3CF9F, size: 0x8, addend: 0x0, symName: __RNvMse_NtNtNtCslJiobkLta79_5alloc11collections5btree4nodeINtB5_7NodeRefNtNtB5_6marker5DyingTjNtNtCsiK7Gs1zPIjf_14thiserror_impl4attr5TraitENtNtB7_7set_val9SetValZSTNtB19_14LeafOrInternalE6ascendB1x_, symObjAddr: 0x15280, symBinAddr: 0x15E50, symSize: 0x240 }
  - { offset: 0x3D1B5, size: 0x8, addend: 0x0, symName: __RNvMsg_NtNtNtCslJiobkLta79_5alloc11collections5btree4nodeINtB5_7NodeRefNtNtB5_6marker5ImmutNtNtBb_6string6StringNtNtB7_7set_val9SetValZSTNtB19_14LeafOrInternalE4keysCsiK7Gs1zPIjf_14thiserror_impl, symObjAddr: 0x154C0, symBinAddr: 0x16090, symSize: 0x90 }
  - { offset: 0x3D37C, size: 0x8, addend: 0x0, symName: __RNvMsg_NtNtNtCslJiobkLta79_5alloc11collections5btree4nodeINtB5_7NodeRefNtNtB5_6marker5ImmutNtNtBb_6string6StringTINtNtB7_3set8BTreeSetB1r_EINtNtCsdGrGZaRBwMb_3syn10punctuated10PunctuatedNtCsaKzlTDPUHDb_11proc_macro211TokenStreamNtNtB2i_5token4PlusEENtB19_14LeafOrInternalE4keysCsiK7Gs1zPIjf_14thiserror_impl, symObjAddr: 0x15550, symBinAddr: 0x16120, symSize: 0x90 }
  - { offset: 0x3D561, size: 0x8, addend: 0x0, symName: __RNvMsg_NtNtNtCslJiobkLta79_5alloc11collections5btree4nodeINtB5_7NodeRefNtNtB5_6marker5ImmutNtNtCsiK7Gs1zPIjf_14thiserror_impl5unraw10IdentUnrawNtNtB7_7set_val9SetValZSTNtB19_14LeafOrInternalE4keysB1v_, symObjAddr: 0x155E0, symBinAddr: 0x161B0, symSize: 0x90 }
  - { offset: 0x3D746, size: 0x8, addend: 0x0, symName: __RNvMsg_NtNtNtCslJiobkLta79_5alloc11collections5btree4nodeINtB5_7NodeRefNtNtB5_6marker5ImmutRNtCsaKzlTDPUHDb_11proc_macro25IdentNtNtB7_7set_val9SetValZSTNtB19_14LeafOrInternalE4keysCsiK7Gs1zPIjf_14thiserror_impl, symObjAddr: 0x15670, symBinAddr: 0x16240, symSize: 0x90 }
  - { offset: 0x3D938, size: 0x8, addend: 0x0, symName: __RNvMsg_NtNtNtCslJiobkLta79_5alloc11collections5btree4nodeINtB5_7NodeRefNtNtB5_6marker5ImmutTjNtNtCsiK7Gs1zPIjf_14thiserror_impl4attr5TraitENtNtB7_7set_val9SetValZSTNtB19_14LeafOrInternalE4keysB1x_, symObjAddr: 0x15700, symBinAddr: 0x162D0, symSize: 0x90 }
  - { offset: 0x3DBDE, size: 0x8, addend: 0x0, symName: __RNvMsn_NtNtNtCslJiobkLta79_5alloc11collections5btree8navigateINtNtB7_4node7NodeRefNtNtB10_6marker3MutRNtCsaKzlTDPUHDb_11proc_macro25IdentNtNtB7_7set_val9SetValZSTNtB1k_14LeafOrInternalE14last_leaf_edgeCsiK7Gs1zPIjf_14thiserror_impl, symObjAddr: 0x15790, symBinAddr: 0x16360, symSize: 0x100 }
  - { offset: 0x3DF65, size: 0x8, addend: 0x0, symName: __RNvMsp_NtNtNtCslJiobkLta79_5alloc11collections5btree8navigateINtNtB7_4node6HandleINtB10_7NodeRefNtNtB10_6marker5DyingNtNtBb_6string6StringNtNtB7_7set_val9SetValZSTNtB1y_14LeafOrInternalENtB1y_2KVE14next_leaf_edgeCsiK7Gs1zPIjf_14thiserror_impl, symObjAddr: 0x15890, symBinAddr: 0x16460, symSize: 0x320 }
  - { offset: 0x3E3E8, size: 0x8, addend: 0x0, symName: __RNvMsp_NtNtNtCslJiobkLta79_5alloc11collections5btree8navigateINtNtB7_4node6HandleINtB10_7NodeRefNtNtB10_6marker5DyingNtNtBb_6string6StringTINtNtB7_3set8BTreeSetB1R_EINtNtCsdGrGZaRBwMb_3syn10punctuated10PunctuatedNtCsaKzlTDPUHDb_11proc_macro211TokenStreamNtNtB2I_5token4PlusEENtB1y_14LeafOrInternalENtB1y_2KVE14next_leaf_edgeCsiK7Gs1zPIjf_14thiserror_impl, symObjAddr: 0x15BB0, symBinAddr: 0x16780, symSize: 0x320 }
  - { offset: 0x3E86B, size: 0x8, addend: 0x0, symName: __RNvMsp_NtNtNtCslJiobkLta79_5alloc11collections5btree8navigateINtNtB7_4node6HandleINtB10_7NodeRefNtNtB10_6marker5DyingNtNtCsiK7Gs1zPIjf_14thiserror_impl5unraw10IdentUnrawNtNtB7_7set_val9SetValZSTNtB1y_14LeafOrInternalENtB1y_2KVE14next_leaf_edgeB1V_, symObjAddr: 0x15ED0, symBinAddr: 0x16AA0, symSize: 0x320 }
  - { offset: 0x3ECEE, size: 0x8, addend: 0x0, symName: __RNvMsp_NtNtNtCslJiobkLta79_5alloc11collections5btree8navigateINtNtB7_4node6HandleINtB10_7NodeRefNtNtB10_6marker5DyingRNtCsaKzlTDPUHDb_11proc_macro25IdentNtNtB7_7set_val9SetValZSTNtB1y_14LeafOrInternalENtB1y_2KVE14next_leaf_edgeCsiK7Gs1zPIjf_14thiserror_impl, symObjAddr: 0x161F0, symBinAddr: 0x16DC0, symSize: 0x320 }
  - { offset: 0x3F171, size: 0x8, addend: 0x0, symName: __RNvMsp_NtNtNtCslJiobkLta79_5alloc11collections5btree8navigateINtNtB7_4node6HandleINtB10_7NodeRefNtNtB10_6marker5DyingTjNtNtCsiK7Gs1zPIjf_14thiserror_impl4attr5TraitENtNtB7_7set_val9SetValZSTNtB1y_14LeafOrInternalENtB1y_2KVE14next_leaf_edgeB1X_, symObjAddr: 0x16510, symBinAddr: 0x170E0, symSize: 0x320 }
  - { offset: 0x3F5A2, size: 0x8, addend: 0x0, symName: __RNvMsu_NtNtNtCslJiobkLta79_5alloc11collections5btree4nodeINtB5_7NodeRefNtNtB5_6marker3MutNtNtBb_6string6StringNtNtB7_7set_val9SetValZSTNtB19_4LeafE16push_with_handleCsiK7Gs1zPIjf_14thiserror_impl, symObjAddr: 0x16830, symBinAddr: 0x17400, symSize: 0x270 }
  - { offset: 0x3FACA, size: 0x8, addend: 0x0, symName: __RNvMsu_NtNtNtCslJiobkLta79_5alloc11collections5btree4nodeINtB5_7NodeRefNtNtB5_6marker3MutNtNtBb_6string6StringTINtNtB7_3set8BTreeSetB1p_EINtNtCsdGrGZaRBwMb_3syn10punctuated10PunctuatedNtCsaKzlTDPUHDb_11proc_macro211TokenStreamNtNtB2g_5token4PlusEENtB19_4LeafE16push_with_handleCsiK7Gs1zPIjf_14thiserror_impl, symObjAddr: 0x16AA0, symBinAddr: 0x17670, symSize: 0x2F0 }
  - { offset: 0x3FFFB, size: 0x8, addend: 0x0, symName: __RNvMsu_NtNtNtCslJiobkLta79_5alloc11collections5btree4nodeINtB5_7NodeRefNtNtB5_6marker3MutNtNtCsiK7Gs1zPIjf_14thiserror_impl5unraw10IdentUnrawNtNtB7_7set_val9SetValZSTNtB19_4LeafE16push_with_handleB1t_, symObjAddr: 0x16D90, symBinAddr: 0x17960, symSize: 0x270 }
  - { offset: 0x404A3, size: 0x8, addend: 0x0, symName: __RNvMsu_NtNtNtCslJiobkLta79_5alloc11collections5btree4nodeINtB5_7NodeRefNtNtB5_6marker3MutRNtCsaKzlTDPUHDb_11proc_macro25IdentNtNtB7_7set_val9SetValZSTNtB19_4LeafE16push_with_handleCsiK7Gs1zPIjf_14thiserror_impl, symObjAddr: 0x17000, symBinAddr: 0x17BD0, symSize: 0x1D0 }
  - { offset: 0x40917, size: 0x8, addend: 0x0, symName: __RNvMsu_NtNtNtCslJiobkLta79_5alloc11collections5btree4nodeINtB5_7NodeRefNtNtB5_6marker3MutTjNtNtCsiK7Gs1zPIjf_14thiserror_impl4attr5TraitENtNtB7_7set_val9SetValZSTNtB19_4LeafE16push_with_handleB1v_, symObjAddr: 0x171D0, symBinAddr: 0x17DA0, symSize: 0x200 }
  - { offset: 0x40EA4, size: 0x8, addend: 0x0, symName: __RNvMsv_NtNtNtCslJiobkLta79_5alloc11collections5btree4nodeINtB5_7NodeRefNtNtB5_6marker3MutNtNtBb_6string6StringNtNtB7_7set_val9SetValZSTNtB19_8InternalE4pushCsiK7Gs1zPIjf_14thiserror_impl, symObjAddr: 0x173D0, symBinAddr: 0x17FA0, symSize: 0x380 }
  - { offset: 0x415FE, size: 0x8, addend: 0x0, symName: __RNvMsv_NtNtNtCslJiobkLta79_5alloc11collections5btree4nodeINtB5_7NodeRefNtNtB5_6marker3MutNtNtBb_6string6StringTINtNtB7_3set8BTreeSetB1p_EINtNtCsdGrGZaRBwMb_3syn10punctuated10PunctuatedNtCsaKzlTDPUHDb_11proc_macro211TokenStreamNtNtB2g_5token4PlusEENtB19_8InternalE4pushCsiK7Gs1zPIjf_14thiserror_impl, symObjAddr: 0x17750, symBinAddr: 0x18320, symSize: 0x410 }
  - { offset: 0x41D62, size: 0x8, addend: 0x0, symName: __RNvMsv_NtNtNtCslJiobkLta79_5alloc11collections5btree4nodeINtB5_7NodeRefNtNtB5_6marker3MutNtNtCsiK7Gs1zPIjf_14thiserror_impl5unraw10IdentUnrawNtNtB7_7set_val9SetValZSTNtB19_8InternalE4pushB1t_, symObjAddr: 0x17B60, symBinAddr: 0x18730, symSize: 0x380 }
  - { offset: 0x4243C, size: 0x8, addend: 0x0, symName: __RNvMsv_NtNtNtCslJiobkLta79_5alloc11collections5btree4nodeINtB5_7NodeRefNtNtB5_6marker3MutRNtCsaKzlTDPUHDb_11proc_macro25IdentNtNtB7_7set_val9SetValZSTNtB19_8InternalE4pushCsiK7Gs1zPIjf_14thiserror_impl, symObjAddr: 0x17EE0, symBinAddr: 0x18AB0, symSize: 0x2F0 }
  - { offset: 0x42AE2, size: 0x8, addend: 0x0, symName: __RNvMsv_NtNtNtCslJiobkLta79_5alloc11collections5btree4nodeINtB5_7NodeRefNtNtB5_6marker3MutTjNtNtCsiK7Gs1zPIjf_14thiserror_impl4attr5TraitENtNtB7_7set_val9SetValZSTNtB19_8InternalE4pushB1v_, symObjAddr: 0x181D0, symBinAddr: 0x18DA0, symSize: 0x310 }
  - { offset: 0x42F5A, size: 0x8, addend: 0x0, symName: __RNCNCNvNtCsiK7Gs1zPIjf_14thiserror_impl6expand9impl_enums0_00B7_, symObjAddr: 0x0, symBinAddr: 0x190F0, symSize: 0x10 }
  - { offset: 0x43A3E, size: 0x8, addend: 0x0, symName: __RNCNCNvNtCsiK7Gs1zPIjf_14thiserror_impl6expand9impl_enums0_00B7_, symObjAddr: 0x0, symBinAddr: 0x190F0, symSize: 0x10 }
  - { offset: 0x43A84, size: 0x8, addend: 0x0, symName: __RNCNCNvNtCsiK7Gs1zPIjf_14thiserror_impl6expand9impl_enums1_00B7_, symObjAddr: 0x10, symBinAddr: 0x19100, symSize: 0x200 }
  - { offset: 0x43B4F, size: 0x8, addend: 0x0, symName: __RNCNvNtCsiK7Gs1zPIjf_14thiserror_impl6expand9impl_enum0B5_, symObjAddr: 0x3EC0, symBinAddr: 0x1CFB0, symSize: 0x1130 }
  - { offset: 0x43E3D, size: 0x8, addend: 0x0, symName: __RNCNvNtCsiK7Gs1zPIjf_14thiserror_impl6expand9impl_enums0_0B5_, symObjAddr: 0x4FF0, symBinAddr: 0x1E0E0, symSize: 0x40 }
  - { offset: 0x43E76, size: 0x8, addend: 0x0, symName: __RNCNvNtCsiK7Gs1zPIjf_14thiserror_impl6expand9impl_enums1_0B5_, symObjAddr: 0x5030, symBinAddr: 0x1E120, symSize: 0xAF0 }
  - { offset: 0x4417D, size: 0x8, addend: 0x0, symName: __RNCNvNtCsiK7Gs1zPIjf_14thiserror_impl6expand9impl_enums2_0B5_, symObjAddr: 0x5B20, symBinAddr: 0x1EC10, symSize: 0xCC0 }
  - { offset: 0x44472, size: 0x8, addend: 0x0, symName: __RNCNvNtCsiK7Gs1zPIjf_14thiserror_impl6expand9impl_enums_0B5_, symObjAddr: 0x67E0, symBinAddr: 0x1F8D0, symSize: 0x2690 }
  - { offset: 0x44B55, size: 0x8, addend: 0x0, symName: __RNCNvNtCsiK7Gs1zPIjf_14thiserror_impl6expand10fields_pat0B5_, symObjAddr: 0x210, symBinAddr: 0x19300, symSize: 0x20 }
  - { offset: 0x44B8E, size: 0x8, addend: 0x0, symName: __RNCNvNtCsiK7Gs1zPIjf_14thiserror_impl6expand10fields_pats_0B5_, symObjAddr: 0x230, symBinAddr: 0x19320, symSize: 0x1E0 }
  - { offset: 0x44C46, size: 0x8, addend: 0x0, symName: __RNCNvNtCsiK7Gs1zPIjf_14thiserror_impl6expand11impl_struct0B5_, symObjAddr: 0x410, symBinAddr: 0x19500, symSize: 0x470 }
  - { offset: 0x44CD4, size: 0x8, addend: 0x0, symName: __RNCNvNtCsiK7Gs1zPIjf_14thiserror_impl6expand11impl_structs0_0B5_, symObjAddr: 0x880, symBinAddr: 0x19970, symSize: 0xA60 }
  - { offset: 0x44EA2, size: 0x8, addend: 0x0, symName: __RNCNvNtCsiK7Gs1zPIjf_14thiserror_impl6expand11impl_structs1_0B5_, symObjAddr: 0x12E0, symBinAddr: 0x1A3D0, symSize: 0xC10 }
  - { offset: 0x45111, size: 0x8, addend: 0x0, symName: __RNCNvNtCsiK7Gs1zPIjf_14thiserror_impl6expand11impl_structs_0B5_, symObjAddr: 0x1EF0, symBinAddr: 0x1AFE0, symSize: 0x1AC0 }
  - { offset: 0x45461, size: 0x8, addend: 0x0, symName: __RNCNvNtCsiK7Gs1zPIjf_14thiserror_impl6expand16from_initializer0B5_, symObjAddr: 0x39B0, symBinAddr: 0x1CAA0, symSize: 0x510 }
  - { offset: 0x45515, size: 0x8, addend: 0x0, symName: __RNvNtCsiK7Gs1zPIjf_14thiserror_impl6expand10fields_pat, symObjAddr: 0x8E70, symBinAddr: 0x21F60, symSize: 0x5F0 }
  - { offset: 0x45723, size: 0x8, addend: 0x0, symName: __RNvNtCsiK7Gs1zPIjf_14thiserror_impl6expand10try_expand, symObjAddr: 0x9460, symBinAddr: 0x22550, symSize: 0x2F0 }
  - { offset: 0x457F3, size: 0x8, addend: 0x0, symName: __RNvNtCsiK7Gs1zPIjf_14thiserror_impl6expand11impl_struct, symObjAddr: 0x9750, symBinAddr: 0x22840, symSize: 0x1BF0 }
  - { offset: 0x45C64, size: 0x8, addend: 0x0, symName: __RNvNtCsiK7Gs1zPIjf_14thiserror_impl6expand14type_is_option, symObjAddr: 0xB340, symBinAddr: 0x24430, symSize: 0x30 }
  - { offset: 0x45C92, size: 0x8, addend: 0x0, symName: __RNvNtCsiK7Gs1zPIjf_14thiserror_impl6expand14use_as_display, symObjAddr: 0xB370, symBinAddr: 0x24460, symSize: 0x170 }
  - { offset: 0x45CD6, size: 0x8, addend: 0x0, symName: __RNvNtCsiK7Gs1zPIjf_14thiserror_impl6expand15call_site_ident, symObjAddr: 0xB4E0, symBinAddr: 0x245D0, symSize: 0xC0 }
  - { offset: 0x45D1A, size: 0x8, addend: 0x0, symName: __RNvNtCsiK7Gs1zPIjf_14thiserror_impl6expand15unoptional_type, symObjAddr: 0xB5A0, symBinAddr: 0x24690, symSize: 0xB0 }
  - { offset: 0x45D7C, size: 0x8, addend: 0x0, symName: __RNvNtCsiK7Gs1zPIjf_14thiserror_impl6expand16from_initializer, symObjAddr: 0xB650, symBinAddr: 0x24740, symSize: 0x400 }
  - { offset: 0x45E80, size: 0x8, addend: 0x0, symName: __RNvNtCsiK7Gs1zPIjf_14thiserror_impl6expand24type_parameter_of_option, symObjAddr: 0xBA50, symBinAddr: 0x24B40, symSize: 0x1B0 }
  - { offset: 0x45F4A, size: 0x8, addend: 0x0, symName: __RNvNtCsiK7Gs1zPIjf_14thiserror_impl6expand6derive, symObjAddr: 0xBC00, symBinAddr: 0x24CF0, symSize: 0xD0 }
  - { offset: 0x45FA8, size: 0x8, addend: 0x0, symName: __RNvNtCsiK7Gs1zPIjf_14thiserror_impl6expand9impl_enum, symObjAddr: 0xBCD0, symBinAddr: 0x24DC0, symSize: 0x26A0 }
  - { offset: 0x49346, size: 0x8, addend: 0x0, symName: __RNvXs1_NtNtNtCsieiGu2EXtoJ_4core3ops8function5implsQNCNvNtCsiK7Gs1zPIjf_14thiserror_impl6expand9impl_enums2_0INtB7_5FnMutTRNtNtBU_3ast7VariantEE8call_mutBU_, symObjAddr: 0xE370, symBinAddr: 0x27460, symSize: 0x30 }
  - { offset: 0x50A26, size: 0x8, addend: 0x0, symName: __RINvMs6_NtCsjK30CmJ87bX_9hashbrown3rawINtB6_8RawTableTRNtNtCsiK7Gs1zPIjf_14thiserror_impl5unraw11MemberUnrawjEE14reserve_rehashNCINvNtB8_3map11make_hasherBQ_jNtNtNtCsHUR1vrdMJt_3std4hash6random11RandomStateE0EBV_, symObjAddr: 0x0, symBinAddr: 0x1E5CC0, symSize: 0xD60 }
  - { offset: 0x50A62, size: 0x8, addend: 0x0, symName: __RNCINvMs6_NtCsjK30CmJ87bX_9hashbrown3rawINtB8_8RawTableTRNtNtCsiK7Gs1zPIjf_14thiserror_impl5unraw11MemberUnrawjEE14reserve_rehashNCINvNtBa_3map11make_hasherBS_jNtNtNtCsHUR1vrdMJt_3std4hash6random11RandomStateE0E0BX_, symObjAddr: 0x1BC0, symBinAddr: 0x282F0, symSize: 0xB0 }
  - { offset: 0x50C2E, size: 0x8, addend: 0x0, symName: __RNCINvMs6_NtCsjK30CmJ87bX_9hashbrown3rawINtB8_8RawTableTRNtNtCsiK7Gs1zPIjf_14thiserror_impl5unraw11MemberUnrawjEE24find_or_find_insert_slotNCINvNtBa_3map14equivalent_keyBS_BS_jE0NCINvB2i_11make_hasherBS_jNtNtNtCsHUR1vrdMJt_3std4hash6random11RandomStateE0E0BX_, symObjAddr: 0x1C70, symBinAddr: 0x283A0, symSize: 0xB0 }
  - { offset: 0x50E0A, size: 0x8, addend: 0x0, symName: __RNCINvMs6_NtCsjK30CmJ87bX_9hashbrown3rawINtB8_8RawTableTRNtNtCsiK7Gs1zPIjf_14thiserror_impl5unraw11MemberUnrawjEE4findNCINvNtBa_3map14equivalent_keyBT_BS_jE0E0BX_, symObjAddr: 0x1D20, symBinAddr: 0x28450, symSize: 0xB0 }
  - { offset: 0x51717, size: 0x8, addend: 0x0, symName: __RNCINvMsa_NtCsjK30CmJ87bX_9hashbrown3rawNtB8_13RawTableInner14prepare_resizeNtNtCslJiobkLta79_5alloc5alloc6GlobalE0CsiK7Gs1zPIjf_14thiserror_impl, symObjAddr: 0x1DD0, symBinAddr: 0x28500, symSize: 0xD0 }
  - { offset: 0x518E5, size: 0x8, addend: 0x0, symName: __RNCNvMsa_NtCsjK30CmJ87bX_9hashbrown3rawNtB7_13RawTableInner15rehash_in_place0CsiK7Gs1zPIjf_14thiserror_impl, symObjAddr: 0x1EA0, symBinAddr: 0x285D0, symSize: 0x250 }
  - { offset: 0x51E20, size: 0x8, addend: 0x0, symName: __RNvNtCsjK30CmJ87bX_9hashbrown3raw19capacity_to_bucketsCsiK7Gs1zPIjf_14thiserror_impl, symObjAddr: 0x3670, symBinAddr: 0x29DA0, symSize: 0x280 }
  - { offset: 0x52036, size: 0x8, addend: 0x0, symName: __RNvXsg_NtCsjK30CmJ87bX_9hashbrown3rawINtB5_8RawTableTRNtNtCsiK7Gs1zPIjf_14thiserror_impl5unraw11MemberUnrawjEENtNtNtCsieiGu2EXtoJ_4core3ops4drop4Drop4dropBU_, symObjAddr: 0x38F0, symBinAddr: 0x2A020, symSize: 0x30 }
  - { offset: 0x5584B, size: 0x8, addend: 0x0, symName: __RINvMs6_NtCsjK30CmJ87bX_9hashbrown3rawINtB6_8RawTableTRNtNtCsiK7Gs1zPIjf_14thiserror_impl5unraw11MemberUnrawjEE14reserve_rehashNCINvNtB8_3map11make_hasherBQ_jNtNtNtCsHUR1vrdMJt_3std4hash6random11RandomStateE0EBV_, symObjAddr: 0x0, symBinAddr: 0x1E5CC0, symSize: 0xD60 }
  - { offset: 0x5631E, size: 0x8, addend: 0x0, symName: __RINvMs6_NtCsjK30CmJ87bX_9hashbrown3rawINtB6_8RawTableTRNtNtCsiK7Gs1zPIjf_14thiserror_impl5unraw11MemberUnrawjEE24find_or_find_insert_slotNCINvNtB8_3map14equivalent_keyBQ_BQ_jE0NCINvB2g_11make_hasherBQ_jNtNtNtCsHUR1vrdMJt_3std4hash6random11RandomStateE0EBV_, symObjAddr: 0xD60, symBinAddr: 0x27490, symSize: 0x160 }
  - { offset: 0x567E8, size: 0x8, addend: 0x0, symName: __RINvMs6_NtCsjK30CmJ87bX_9hashbrown3rawINtB6_8RawTableTRNtNtCsiK7Gs1zPIjf_14thiserror_impl5unraw11MemberUnrawjEE4findNCINvNtB8_3map14equivalent_keyBR_BQ_jE0EBV_, symObjAddr: 0xEC0, symBinAddr: 0x275F0, symSize: 0x480 }
  - { offset: 0x56D01, size: 0x8, addend: 0x0, symName: __RINvMs6_NtCsjK30CmJ87bX_9hashbrown3rawINtB6_8RawTableTRNtNtCsiK7Gs1zPIjf_14thiserror_impl5unraw11MemberUnrawjEE7reserveNCINvNtB8_3map11make_hasherBQ_jNtNtNtCsHUR1vrdMJt_3std4hash6random11RandomStateE0EBV_, symObjAddr: 0x1340, symBinAddr: 0x27A70, symSize: 0xC0 }
  - { offset: 0x56E75, size: 0x8, addend: 0x0, symName: __RINvMsa_NtCsjK30CmJ87bX_9hashbrown3rawNtB6_13RawTableInner13drop_elementsTRNtNtCsiK7Gs1zPIjf_14thiserror_impl5unraw11MemberUnrawjEEB1f_, symObjAddr: 0x1400, symBinAddr: 0x27B30, symSize: 0x30 }
  - { offset: 0x570CC, size: 0x8, addend: 0x0, symName: __RINvMsa_NtCsjK30CmJ87bX_9hashbrown3rawNtB6_13RawTableInner16drop_inner_tableTRNtNtCsiK7Gs1zPIjf_14thiserror_impl5unraw11MemberUnrawjENtNtCslJiobkLta79_5alloc5alloc6GlobalEB1i_, symObjAddr: 0x1430, symBinAddr: 0x27B60, symSize: 0xD0 }
  - { offset: 0x572C8, size: 0x8, addend: 0x0, symName: __RINvMsa_NtCsjK30CmJ87bX_9hashbrown3rawNtB6_13RawTableInner17new_uninitializedNtNtCslJiobkLta79_5alloc5alloc6GlobalECsiK7Gs1zPIjf_14thiserror_impl, symObjAddr: 0x1500, symBinAddr: 0x27C30, symSize: 0x290 }
  - { offset: 0x5751C, size: 0x8, addend: 0x0, symName: __RINvMsa_NtCsjK30CmJ87bX_9hashbrown3rawNtB6_13RawTableInner22fallible_with_capacityNtNtCslJiobkLta79_5alloc5alloc6GlobalECsiK7Gs1zPIjf_14thiserror_impl, symObjAddr: 0x1790, symBinAddr: 0x27EC0, symSize: 0x430 }
  - { offset: 0x57E1A, size: 0x8, addend: 0x0, symName: __RNvMs1_NtCsjK30CmJ87bX_9hashbrown3rawNtB5_11TableLayout20calculate_layout_forCsiK7Gs1zPIjf_14thiserror_impl, symObjAddr: 0x20F0, symBinAddr: 0x28820, symSize: 0x2F0 }
  - { offset: 0x582BD, size: 0x8, addend: 0x0, symName: __RNvMs6_NtCsjK30CmJ87bX_9hashbrown3rawINtB5_8RawTableTRNtNtCsiK7Gs1zPIjf_14thiserror_impl5unraw11MemberUnrawjEE14insert_in_slotBU_, symObjAddr: 0x23E0, symBinAddr: 0x28B10, symSize: 0x160 }
  - { offset: 0x58766, size: 0x8, addend: 0x0, symName: __RNvMsa_NtCsjK30CmJ87bX_9hashbrown3rawNtB5_13RawTableInner15fix_insert_slotCsiK7Gs1zPIjf_14thiserror_impl, symObjAddr: 0x2540, symBinAddr: 0x28C70, symSize: 0x140 }
  - { offset: 0x58AFF, size: 0x8, addend: 0x0, symName: __RNvMsa_NtCsjK30CmJ87bX_9hashbrown3rawNtB5_13RawTableInner15rehash_in_placeCsiK7Gs1zPIjf_14thiserror_impl, symObjAddr: 0x2680, symBinAddr: 0x28DB0, symSize: 0x5B0 }
  - { offset: 0x592CB, size: 0x8, addend: 0x0, symName: __RNvMsa_NtCsjK30CmJ87bX_9hashbrown3rawNtB5_13RawTableInner16find_insert_slotCsiK7Gs1zPIjf_14thiserror_impl, symObjAddr: 0x2C30, symBinAddr: 0x29360, symSize: 0x130 }
  - { offset: 0x594CA, size: 0x8, addend: 0x0, symName: __RNvMsa_NtCsjK30CmJ87bX_9hashbrown3rawNtB5_13RawTableInner19prepare_insert_slotCsiK7Gs1zPIjf_14thiserror_impl, symObjAddr: 0x2D60, symBinAddr: 0x29490, symSize: 0x60 }
  - { offset: 0x597BB, size: 0x8, addend: 0x0, symName: __RNvMsa_NtCsjK30CmJ87bX_9hashbrown3rawNtB5_13RawTableInner23prepare_rehash_in_placeCsiK7Gs1zPIjf_14thiserror_impl, symObjAddr: 0x2DC0, symBinAddr: 0x294F0, symSize: 0x340 }
  - { offset: 0x59EE2, size: 0x8, addend: 0x0, symName: __RNvMsa_NtCsjK30CmJ87bX_9hashbrown3rawNtB5_13RawTableInner25find_insert_slot_in_groupCsiK7Gs1zPIjf_14thiserror_impl, symObjAddr: 0x3100, symBinAddr: 0x29830, symSize: 0x160 }
  - { offset: 0x5A1E0, size: 0x8, addend: 0x0, symName: __RNvMsa_NtCsjK30CmJ87bX_9hashbrown3rawNtB5_13RawTableInner30find_or_find_insert_slot_innerCsiK7Gs1zPIjf_14thiserror_impl, symObjAddr: 0x3260, symBinAddr: 0x29990, symSize: 0x410 }
  - { offset: 0x5A615, size: 0x8, addend: 0x0, symName: __RINvMs0_NtNtNtNtCsHUR1vrdMJt_3std3sys12thread_local6native4lazyINtB6_7StorageINtNtCsieiGu2EXtoJ_4core4cell4CellTyyEEzE11get_or_initNvNvNvMNtNtBe_4hash6randomNtB2c_11RandomState3new4KEYS6___initECsiK7Gs1zPIjf_14thiserror_impl, symObjAddr: 0x0, symBinAddr: 0x2A050, symSize: 0x90 }
  - { offset: 0x5A637, size: 0x8, addend: 0x0, symName: ___rustc_proc_macro_decls_da527bb0b06e13d3__, symObjAddr: 0x3A60, symBinAddr: 0x231A08, symSize: 0x0 }
  - { offset: 0x5A7CD, size: 0x8, addend: 0x0, symName: __RNvCsiK7Gs1zPIjf_14thiserror_impl12derive_error, symObjAddr: 0xB50, symBinAddr: 0x2A940, symSize: 0x180 }
  - { offset: 0x5A8BE, size: 0x8, addend: 0x0, symName: __RNvXCsiK7Gs1zPIjf_14thiserror_implNtB2_7privateNtNtCs9OU1sGv5X54_5quote9to_tokens8ToTokens9to_tokens, symObjAddr: 0x2000, symBinAddr: 0x2BDF0, symSize: 0x60 }
  - { offset: 0x5ABC9, size: 0x8, addend: 0x0, symName: __RNCINvNtNtCscKtU6MdFI5n_10proc_macro6bridge6client10run_clientNtB4_11TokenStreamINtNtCsieiGu2EXtoJ_4core6option6OptionBY_ENCNCINvMs6_B4_INtB4_6ClientNtB8_11TokenStreamB2n_E7expand1NvCsiK7Gs1zPIjf_14thiserror_impl12derive_errorE00E0B2U_, symObjAddr: 0x6F0, symBinAddr: 0x2A4E0, symSize: 0x420 }
  - { offset: 0x5ADEF, size: 0x8, addend: 0x0, symName: __RNCNCINvNtNtCscKtU6MdFI5n_10proc_macro6bridge6client10run_clientNtB6_11TokenStreamINtNtCsieiGu2EXtoJ_4core6option6OptionB10_ENCNCINvMs6_B6_INtB6_6ClientNtBa_11TokenStreamB2q_E7expand1NvCsiK7Gs1zPIjf_14thiserror_impl12derive_errorE00E00B2X_, symObjAddr: 0xB30, symBinAddr: 0x2A920, symSize: 0x20 }
  - { offset: 0x5AE6F, size: 0x8, addend: 0x0, symName: __RNCNCINvMs6_NtNtCscKtU6MdFI5n_10proc_macro6bridge6clientINtBa_6ClientNtBe_11TokenStreamB15_E7expand1NvCsiK7Gs1zPIjf_14thiserror_impl12derive_errorE00B1C_, symObjAddr: 0xB10, symBinAddr: 0x2A900, symSize: 0x20 }
  - { offset: 0x5AEB8, size: 0x8, addend: 0x0, symName: __RNCINvMs6_NtNtCscKtU6MdFI5n_10proc_macro6bridge6clientINtB8_6ClientNtBc_11TokenStreamB13_E7expand1NvCsiK7Gs1zPIjf_14thiserror_impl12derive_errorE0B1A_, symObjAddr: 0x6C0, symBinAddr: 0x2A4B0, symSize: 0x30 }
  - { offset: 0x5AF03, size: 0x8, addend: 0x0, symName: __RINvNtNtCscKtU6MdFI5n_10proc_macro6bridge6client10run_clientNtB2_11TokenStreamINtNtCsieiGu2EXtoJ_4core6option6OptionBW_ENCNCINvMs6_B2_INtB2_6ClientNtB6_11TokenStreamB2l_E7expand1NvCsiK7Gs1zPIjf_14thiserror_impl12derive_errorE00EB2S_, symObjAddr: 0x3D0, symBinAddr: 0x2A1C0, symSize: 0x2E0 }
  - { offset: 0x5B140, size: 0x8, addend: 0x0, symName: __RNvXsf_NtNtCscKtU6MdFI5n_10proc_macro6bridge6clientNtB5_11TokenStreamINtNtB7_3rpc6EncodeuE6encodeCsiK7Gs1zPIjf_14thiserror_impl, symObjAddr: 0x2EC0, symBinAddr: 0x2CC00, symSize: 0x40 }
  - { offset: 0x5B251, size: 0x8, addend: 0x0, symName: __RNvXsi_NtNtCscKtU6MdFI5n_10proc_macro6bridge6clientNtB5_11TokenStreamINtNtB7_3rpc9DecodeMutuE6decodeCsiK7Gs1zPIjf_14thiserror_impl, symObjAddr: 0x3300, symBinAddr: 0x2D040, symSize: 0x20 }
  - { offset: 0x5B29A, size: 0x8, addend: 0x0, symName: __RNvXsk_NtNtCscKtU6MdFI5n_10proc_macro6bridge6clientNtB5_4SpanINtNtB7_3rpc9DecodeMutuE6decodeCsiK7Gs1zPIjf_14thiserror_impl, symObjAddr: 0x3320, symBinAddr: 0x2D060, symSize: 0x20 }
  - { offset: 0x5FA6A, size: 0x8, addend: 0x0, symName: __RNvXs17_NtNtCsieiGu2EXtoJ_4core3cmp5implsiNtB8_3Ord3cmpCsiK7Gs1zPIjf_14thiserror_impl, symObjAddr: 0x2090, symBinAddr: 0x2BE80, symSize: 0x20 }
  - { offset: 0x5FAAD, size: 0x8, addend: 0x0, symName: __RNvXsV_NtNtCsieiGu2EXtoJ_4core3cmp5implsjNtB7_3Ord3cmpCsiK7Gs1zPIjf_14thiserror_impl, symObjAddr: 0x2EA0, symBinAddr: 0x2CBE0, symSize: 0x20 }
  - { offset: 0x629F1, size: 0x8, addend: 0x0, symName: __RINvXNtNtNtNtCsHUR1vrdMJt_3std3sys12thread_local6native4lazyzNtB3_14DestroyedState13register_dtorINtNtCsieiGu2EXtoJ_4core4cell4CellTyyEEECsiK7Gs1zPIjf_14thiserror_impl, symObjAddr: 0x6B0, symBinAddr: 0x2A4A0, symSize: 0x10 }
  - { offset: 0x62BC7, size: 0x8, addend: 0x0, symName: __RINvMs0_NtNtNtNtCsHUR1vrdMJt_3std3sys12thread_local6native4lazyINtB6_7StorageINtNtCsieiGu2EXtoJ_4core4cell4CellTyyEEzE11get_or_initNvNvNvMNtNtBe_4hash6randomNtB2c_11RandomState3new4KEYS6___initECsiK7Gs1zPIjf_14thiserror_impl, symObjAddr: 0x0, symBinAddr: 0x2A050, symSize: 0x90 }
  - { offset: 0x62DD2, size: 0x8, addend: 0x0, symName: __RINvMs0_NtNtNtNtCsHUR1vrdMJt_3std3sys12thread_local6native4lazyINtB6_7StorageINtNtCsieiGu2EXtoJ_4core4cell4CellTyyEEzE16get_or_init_slowNvNvNvMNtNtBe_4hash6randomNtB2h_11RandomState3new4KEYS6___initECsiK7Gs1zPIjf_14thiserror_impl, symObjAddr: 0x90, symBinAddr: 0x1E6A20, symSize: 0x260 }
  - { offset: 0x630AA, size: 0x8, addend: 0x0, symName: __RINvNtCsdGrGZaRBwMb_3syn11parse_quote5parseNtNtB4_8generics14WherePredicateECsiK7Gs1zPIjf_14thiserror_impl, symObjAddr: 0x2F0, symBinAddr: 0x2A0E0, symSize: 0xE0 }
  - { offset: 0x63CA0, size: 0x8, addend: 0x0, symName: __RNvXsh_NtCsdGrGZaRBwMb_3syn5parseNvYNtNtB7_8generics14WherePredicateNtNtB7_11parse_quote10ParseQuote5parseNtB5_6Parser6parse2CsiK7Gs1zPIjf_14thiserror_impl, symObjAddr: 0x2F00, symBinAddr: 0x2CC40, symSize: 0x400 }
  - { offset: 0x68BE3, size: 0x8, addend: 0x0, symName: __RNvXs1_NtCslJiobkLta79_5alloc7raw_vecINtB5_6RawVecNtCsaKzlTDPUHDb_11proc_macro211TokenStreamENtNtNtCsieiGu2EXtoJ_4core3ops4drop4Drop4dropCsiK7Gs1zPIjf_14thiserror_impl, symObjAddr: 0x20B0, symBinAddr: 0x2BEA0, symSize: 0x30 }
  - { offset: 0x68C1F, size: 0x8, addend: 0x0, symName: __RNvXs1_NtCslJiobkLta79_5alloc7raw_vecINtB5_6RawVecNtNtCsiK7Gs1zPIjf_14thiserror_impl3ast5FieldENtNtNtCsieiGu2EXtoJ_4core3ops4drop4Drop4dropBQ_, symObjAddr: 0x20E0, symBinAddr: 0x2BED0, symSize: 0x30 }
  - { offset: 0x68C5B, size: 0x8, addend: 0x0, symName: __RNvXs1_NtCslJiobkLta79_5alloc7raw_vecINtB5_6RawVecNtNtCsiK7Gs1zPIjf_14thiserror_impl3ast7VariantENtNtNtCsieiGu2EXtoJ_4core3ops4drop4Drop4dropBQ_, symObjAddr: 0x2110, symBinAddr: 0x2BF00, symSize: 0x30 }
  - { offset: 0x68C97, size: 0x8, addend: 0x0, symName: __RNvXs1_NtCslJiobkLta79_5alloc7raw_vecINtB5_6RawVecRNtCsaKzlTDPUHDb_11proc_macro25IdentENtNtNtCsieiGu2EXtoJ_4core3ops4drop4Drop4dropCsiK7Gs1zPIjf_14thiserror_impl, symObjAddr: 0x2140, symBinAddr: 0x2BF30, symSize: 0x20 }
  - { offset: 0x68CD3, size: 0x8, addend: 0x0, symName: __RNvXs1_NtCslJiobkLta79_5alloc7raw_vecINtB5_6RawVecTNtCsaKzlTDPUHDb_11proc_macro211TokenStreamNtNtCsdGrGZaRBwMb_3syn5token4PlusEENtNtNtCsieiGu2EXtoJ_4core3ops4drop4Drop4dropCsiK7Gs1zPIjf_14thiserror_impl, symObjAddr: 0x2160, symBinAddr: 0x2BF50, symSize: 0x30 }
  - { offset: 0x68D0F, size: 0x8, addend: 0x0, symName: __RNvXs1_NtCslJiobkLta79_5alloc7raw_vecINtB5_6RawVecTNtCsaKzlTDPUHDb_11proc_macro25IdentNtBP_11TokenStreamEENtNtNtCsieiGu2EXtoJ_4core3ops4drop4Drop4dropCsiK7Gs1zPIjf_14thiserror_impl, symObjAddr: 0x2190, symBinAddr: 0x2BF80, symSize: 0x30 }
  - { offset: 0x69995, size: 0x8, addend: 0x0, symName: __RNvMs_NtCslJiobkLta79_5alloc5boxedINtB4_3BoxINtNtNtNtB6_11collections5btree4node12InternalNodeNtNtB6_6string6StringNtNtBL_7set_val9SetValZSTEE13new_uninit_inCsiK7Gs1zPIjf_14thiserror_impl, symObjAddr: 0xE80, symBinAddr: 0x2AC70, symSize: 0x80 }
  - { offset: 0x69A8D, size: 0x8, addend: 0x0, symName: __RNvMs_NtCslJiobkLta79_5alloc5boxedINtB4_3BoxINtNtNtNtB6_11collections5btree4node12InternalNodeNtNtB6_6string6StringNtNtBL_7set_val9SetValZSTEE17try_new_uninit_inCsiK7Gs1zPIjf_14thiserror_impl, symObjAddr: 0xF00, symBinAddr: 0x2ACF0, symSize: 0x140 }
  - { offset: 0x69CCB, size: 0x8, addend: 0x0, symName: __RNvMs_NtCslJiobkLta79_5alloc5boxedINtB4_3BoxINtNtNtNtB6_11collections5btree4node12InternalNodeNtNtB6_6string6StringTINtNtBL_3set8BTreeSetB1u_EINtNtCsdGrGZaRBwMb_3syn10punctuated10PunctuatedNtCsaKzlTDPUHDb_11proc_macro211TokenStreamNtNtB2l_5token4PlusEEEE13new_uninit_inCsiK7Gs1zPIjf_14thiserror_impl, symObjAddr: 0x1040, symBinAddr: 0x2AE30, symSize: 0x80 }
  - { offset: 0x69DC3, size: 0x8, addend: 0x0, symName: __RNvMs_NtCslJiobkLta79_5alloc5boxedINtB4_3BoxINtNtNtNtB6_11collections5btree4node12InternalNodeNtNtB6_6string6StringTINtNtBL_3set8BTreeSetB1u_EINtNtCsdGrGZaRBwMb_3syn10punctuated10PunctuatedNtCsaKzlTDPUHDb_11proc_macro211TokenStreamNtNtB2l_5token4PlusEEEE17try_new_uninit_inCsiK7Gs1zPIjf_14thiserror_impl, symObjAddr: 0x10C0, symBinAddr: 0x2AEB0, symSize: 0x140 }
  - { offset: 0x6A001, size: 0x8, addend: 0x0, symName: __RNvMs_NtCslJiobkLta79_5alloc5boxedINtB4_3BoxINtNtNtNtB6_11collections5btree4node12InternalNodeNtNtCsiK7Gs1zPIjf_14thiserror_impl5unraw10IdentUnrawNtNtBL_7set_val9SetValZSTEE13new_uninit_inB1y_, symObjAddr: 0x1200, symBinAddr: 0x2AFF0, symSize: 0x80 }
  - { offset: 0x6A0F9, size: 0x8, addend: 0x0, symName: __RNvMs_NtCslJiobkLta79_5alloc5boxedINtB4_3BoxINtNtNtNtB6_11collections5btree4node12InternalNodeNtNtCsiK7Gs1zPIjf_14thiserror_impl5unraw10IdentUnrawNtNtBL_7set_val9SetValZSTEE17try_new_uninit_inB1y_, symObjAddr: 0x1280, symBinAddr: 0x2B070, symSize: 0x140 }
  - { offset: 0x6A337, size: 0x8, addend: 0x0, symName: __RNvMs_NtCslJiobkLta79_5alloc5boxedINtB4_3BoxINtNtNtNtB6_11collections5btree4node12InternalNodeRNtCsaKzlTDPUHDb_11proc_macro25IdentNtNtBL_7set_val9SetValZSTEE13new_uninit_inCsiK7Gs1zPIjf_14thiserror_impl, symObjAddr: 0x13C0, symBinAddr: 0x2B1B0, symSize: 0x80 }
  - { offset: 0x6A42F, size: 0x8, addend: 0x0, symName: __RNvMs_NtCslJiobkLta79_5alloc5boxedINtB4_3BoxINtNtNtNtB6_11collections5btree4node12InternalNodeRNtCsaKzlTDPUHDb_11proc_macro25IdentNtNtBL_7set_val9SetValZSTEE17try_new_uninit_inCsiK7Gs1zPIjf_14thiserror_impl, symObjAddr: 0x1440, symBinAddr: 0x2B230, symSize: 0x140 }
  - { offset: 0x6A66D, size: 0x8, addend: 0x0, symName: __RNvMs_NtCslJiobkLta79_5alloc5boxedINtB4_3BoxINtNtNtNtB6_11collections5btree4node12InternalNodeTjNtNtCsiK7Gs1zPIjf_14thiserror_impl4attr5TraitENtNtBL_7set_val9SetValZSTEE13new_uninit_inB1A_, symObjAddr: 0x1580, symBinAddr: 0x2B370, symSize: 0x80 }
  - { offset: 0x6A765, size: 0x8, addend: 0x0, symName: __RNvMs_NtCslJiobkLta79_5alloc5boxedINtB4_3BoxINtNtNtNtB6_11collections5btree4node12InternalNodeTjNtNtCsiK7Gs1zPIjf_14thiserror_impl4attr5TraitENtNtBL_7set_val9SetValZSTEE17try_new_uninit_inB1A_, symObjAddr: 0x1600, symBinAddr: 0x2B3F0, symSize: 0x140 }
  - { offset: 0x6A9A3, size: 0x8, addend: 0x0, symName: __RNvMs_NtCslJiobkLta79_5alloc5boxedINtB4_3BoxINtNtNtNtB6_11collections5btree4node8LeafNodeNtNtB6_6string6StringNtNtBL_7set_val9SetValZSTEE13new_uninit_inCsiK7Gs1zPIjf_14thiserror_impl, symObjAddr: 0x1740, symBinAddr: 0x2B530, symSize: 0x80 }
  - { offset: 0x6AA9B, size: 0x8, addend: 0x0, symName: __RNvMs_NtCslJiobkLta79_5alloc5boxedINtB4_3BoxINtNtNtNtB6_11collections5btree4node8LeafNodeNtNtB6_6string6StringNtNtBL_7set_val9SetValZSTEE17try_new_uninit_inCsiK7Gs1zPIjf_14thiserror_impl, symObjAddr: 0x17C0, symBinAddr: 0x2B5B0, symSize: 0x140 }
  - { offset: 0x6ACD9, size: 0x8, addend: 0x0, symName: __RNvMs_NtCslJiobkLta79_5alloc5boxedINtB4_3BoxINtNtNtNtB6_11collections5btree4node8LeafNodeNtNtB6_6string6StringTINtNtBL_3set8BTreeSetB1p_EINtNtCsdGrGZaRBwMb_3syn10punctuated10PunctuatedNtCsaKzlTDPUHDb_11proc_macro211TokenStreamNtNtB2g_5token4PlusEEEE13new_uninit_inCsiK7Gs1zPIjf_14thiserror_impl, symObjAddr: 0x1900, symBinAddr: 0x2B6F0, symSize: 0x80 }
  - { offset: 0x6ADD1, size: 0x8, addend: 0x0, symName: __RNvMs_NtCslJiobkLta79_5alloc5boxedINtB4_3BoxINtNtNtNtB6_11collections5btree4node8LeafNodeNtNtB6_6string6StringTINtNtBL_3set8BTreeSetB1p_EINtNtCsdGrGZaRBwMb_3syn10punctuated10PunctuatedNtCsaKzlTDPUHDb_11proc_macro211TokenStreamNtNtB2g_5token4PlusEEEE17try_new_uninit_inCsiK7Gs1zPIjf_14thiserror_impl, symObjAddr: 0x1980, symBinAddr: 0x2B770, symSize: 0x140 }
  - { offset: 0x6B00F, size: 0x8, addend: 0x0, symName: __RNvMs_NtCslJiobkLta79_5alloc5boxedINtB4_3BoxINtNtNtNtB6_11collections5btree4node8LeafNodeNtNtCsiK7Gs1zPIjf_14thiserror_impl5unraw10IdentUnrawNtNtBL_7set_val9SetValZSTEE13new_uninit_inB1t_, symObjAddr: 0x1AC0, symBinAddr: 0x2B8B0, symSize: 0x80 }
  - { offset: 0x6B107, size: 0x8, addend: 0x0, symName: __RNvMs_NtCslJiobkLta79_5alloc5boxedINtB4_3BoxINtNtNtNtB6_11collections5btree4node8LeafNodeNtNtCsiK7Gs1zPIjf_14thiserror_impl5unraw10IdentUnrawNtNtBL_7set_val9SetValZSTEE17try_new_uninit_inB1t_, symObjAddr: 0x1B40, symBinAddr: 0x2B930, symSize: 0x140 }
  - { offset: 0x6B345, size: 0x8, addend: 0x0, symName: __RNvMs_NtCslJiobkLta79_5alloc5boxedINtB4_3BoxINtNtNtNtB6_11collections5btree4node8LeafNodeRNtCsaKzlTDPUHDb_11proc_macro25IdentNtNtBL_7set_val9SetValZSTEE13new_uninit_inCsiK7Gs1zPIjf_14thiserror_impl, symObjAddr: 0x1C80, symBinAddr: 0x2BA70, symSize: 0x80 }
  - { offset: 0x6B43D, size: 0x8, addend: 0x0, symName: __RNvMs_NtCslJiobkLta79_5alloc5boxedINtB4_3BoxINtNtNtNtB6_11collections5btree4node8LeafNodeRNtCsaKzlTDPUHDb_11proc_macro25IdentNtNtBL_7set_val9SetValZSTEE17try_new_uninit_inCsiK7Gs1zPIjf_14thiserror_impl, symObjAddr: 0x1D00, symBinAddr: 0x2BAF0, symSize: 0x140 }
  - { offset: 0x6B67B, size: 0x8, addend: 0x0, symName: __RNvMs_NtCslJiobkLta79_5alloc5boxedINtB4_3BoxINtNtNtNtB6_11collections5btree4node8LeafNodeTjNtNtCsiK7Gs1zPIjf_14thiserror_impl4attr5TraitENtNtBL_7set_val9SetValZSTEE13new_uninit_inB1v_, symObjAddr: 0x1E40, symBinAddr: 0x2BC30, symSize: 0x80 }
  - { offset: 0x6B773, size: 0x8, addend: 0x0, symName: __RNvMs_NtCslJiobkLta79_5alloc5boxedINtB4_3BoxINtNtNtNtB6_11collections5btree4node8LeafNodeTjNtNtCsiK7Gs1zPIjf_14thiserror_impl4attr5TraitENtNtBL_7set_val9SetValZSTEE17try_new_uninit_inB1v_, symObjAddr: 0x1EC0, symBinAddr: 0x2BCB0, symSize: 0x140 }
  - { offset: 0x6BC15, size: 0x8, addend: 0x0, symName: __RNvXs6_NtCslJiobkLta79_5alloc5boxedINtB5_3BoxDNtNtCsieiGu2EXtoJ_4core5error5ErrorNtNtBM_6marker4SyncNtB1j_4SendEL_ENtNtNtBM_3ops4drop4Drop4dropCsiK7Gs1zPIjf_14thiserror_impl, symObjAddr: 0x21C0, symBinAddr: 0x2BFB0, symSize: 0xC0 }
  - { offset: 0x6BD52, size: 0x8, addend: 0x0, symName: __RNvXs6_NtCslJiobkLta79_5alloc5boxedINtB5_3BoxINtNtCsdGrGZaRBwMb_3syn5drops6NoDropDINtNtBM_10punctuated9IterTraitNtNtBM_4data5FieldEp4ItemRB1M_EL_EENtNtNtCsieiGu2EXtoJ_4core3ops4drop4Drop4dropCsiK7Gs1zPIjf_14thiserror_impl, symObjAddr: 0x2280, symBinAddr: 0x2C070, symSize: 0x120 }
  - { offset: 0x6BE8F, size: 0x8, addend: 0x0, symName: __RNvXs6_NtCslJiobkLta79_5alloc5boxedINtB5_3BoxINtNtCsdGrGZaRBwMb_3syn5drops6NoDropDINtNtBM_10punctuated9IterTraitNtNtBM_4data7VariantEp4ItemRB1M_EL_EENtNtNtCsieiGu2EXtoJ_4core3ops4drop4Drop4dropCsiK7Gs1zPIjf_14thiserror_impl, symObjAddr: 0x23A0, symBinAddr: 0x2C190, symSize: 0x120 }
  - { offset: 0x6BFCC, size: 0x8, addend: 0x0, symName: __RNvXs6_NtCslJiobkLta79_5alloc5boxedINtB5_3BoxINtNtCsdGrGZaRBwMb_3syn5drops6NoDropDINtNtBM_10punctuated9IterTraitNtNtBM_4path15GenericArgumentEp4ItemRB1M_EL_EENtNtNtCsieiGu2EXtoJ_4core3ops4drop4Drop4dropCsiK7Gs1zPIjf_14thiserror_impl, symObjAddr: 0x24C0, symBinAddr: 0x2C2B0, symSize: 0x120 }
  - { offset: 0x6C109, size: 0x8, addend: 0x0, symName: __RNvXs6_NtCslJiobkLta79_5alloc5boxedINtB5_3BoxINtNtCsdGrGZaRBwMb_3syn5drops6NoDropDINtNtBM_10punctuated9IterTraitNtNtBM_8generics12GenericParamEp4ItemRB1M_EL_EENtNtNtCsieiGu2EXtoJ_4core3ops4drop4Drop4dropCsiK7Gs1zPIjf_14thiserror_impl, symObjAddr: 0x25E0, symBinAddr: 0x2C3D0, symSize: 0x120 }
  - { offset: 0x6C246, size: 0x8, addend: 0x0, symName: __RNvXs6_NtCslJiobkLta79_5alloc5boxedINtB5_3BoxINtNtNtNtB7_11collections5btree4node12InternalNodeNtNtB7_6string6StringNtNtBM_7set_val9SetValZSTEENtNtNtCsieiGu2EXtoJ_4core3ops4drop4Drop4dropCsiK7Gs1zPIjf_14thiserror_impl, symObjAddr: 0x2700, symBinAddr: 0x2C4F0, symSize: 0xB0 }
  - { offset: 0x6C381, size: 0x8, addend: 0x0, symName: __RNvXs6_NtCslJiobkLta79_5alloc5boxedINtB5_3BoxINtNtNtNtB7_11collections5btree4node12InternalNodeNtNtB7_6string6StringTINtNtBM_3set8BTreeSetB1v_EINtNtCsdGrGZaRBwMb_3syn10punctuated10PunctuatedNtCsaKzlTDPUHDb_11proc_macro211TokenStreamNtNtB2m_5token4PlusEEEENtNtNtCsieiGu2EXtoJ_4core3ops4drop4Drop4dropCsiK7Gs1zPIjf_14thiserror_impl, symObjAddr: 0x27B0, symBinAddr: 0x2C5A0, symSize: 0xB0 }
  - { offset: 0x6C4BC, size: 0x8, addend: 0x0, symName: __RNvXs6_NtCslJiobkLta79_5alloc5boxedINtB5_3BoxINtNtNtNtB7_11collections5btree4node12InternalNodeNtNtCsiK7Gs1zPIjf_14thiserror_impl5unraw10IdentUnrawNtNtBM_7set_val9SetValZSTEENtNtNtCsieiGu2EXtoJ_4core3ops4drop4Drop4dropB1z_, symObjAddr: 0x2860, symBinAddr: 0x2C650, symSize: 0xB0 }
  - { offset: 0x6C5F7, size: 0x8, addend: 0x0, symName: __RNvXs6_NtCslJiobkLta79_5alloc5boxedINtB5_3BoxINtNtNtNtB7_11collections5btree4node12InternalNodeTjNtNtCsiK7Gs1zPIjf_14thiserror_impl4attr5TraitENtNtBM_7set_val9SetValZSTEENtNtNtCsieiGu2EXtoJ_4core3ops4drop4Drop4dropB1B_, symObjAddr: 0x29C0, symBinAddr: 0x2C700, symSize: 0xB0 }
  - { offset: 0x6C732, size: 0x8, addend: 0x0, symName: __RNvXs6_NtCslJiobkLta79_5alloc5boxedINtB5_3BoxINtNtNtNtB7_11collections5btree4node8LeafNodeNtNtB7_6string6StringNtNtBM_7set_val9SetValZSTEENtNtNtCsieiGu2EXtoJ_4core3ops4drop4Drop4dropCsiK7Gs1zPIjf_14thiserror_impl, symObjAddr: 0x2A70, symBinAddr: 0x2C7B0, symSize: 0xB0 }
  - { offset: 0x6C86D, size: 0x8, addend: 0x0, symName: __RNvXs6_NtCslJiobkLta79_5alloc5boxedINtB5_3BoxINtNtNtNtB7_11collections5btree4node8LeafNodeNtNtB7_6string6StringTINtNtBM_3set8BTreeSetB1q_EINtNtCsdGrGZaRBwMb_3syn10punctuated10PunctuatedNtCsaKzlTDPUHDb_11proc_macro211TokenStreamNtNtB2h_5token4PlusEEEENtNtNtCsieiGu2EXtoJ_4core3ops4drop4Drop4dropCsiK7Gs1zPIjf_14thiserror_impl, symObjAddr: 0x2B20, symBinAddr: 0x2C860, symSize: 0xB0 }
  - { offset: 0x6C9A8, size: 0x8, addend: 0x0, symName: __RNvXs6_NtCslJiobkLta79_5alloc5boxedINtB5_3BoxINtNtNtNtB7_11collections5btree4node8LeafNodeNtNtCsiK7Gs1zPIjf_14thiserror_impl5unraw10IdentUnrawNtNtBM_7set_val9SetValZSTEENtNtNtCsieiGu2EXtoJ_4core3ops4drop4Drop4dropB1u_, symObjAddr: 0x2BD0, symBinAddr: 0x2C910, symSize: 0xB0 }
  - { offset: 0x6CAE3, size: 0x8, addend: 0x0, symName: __RNvXs6_NtCslJiobkLta79_5alloc5boxedINtB5_3BoxINtNtNtNtB7_11collections5btree4node8LeafNodeTjNtNtCsiK7Gs1zPIjf_14thiserror_impl4attr5TraitENtNtBM_7set_val9SetValZSTEENtNtNtCsieiGu2EXtoJ_4core3ops4drop4Drop4dropB1w_, symObjAddr: 0x2C80, symBinAddr: 0x2C9C0, symSize: 0xB0 }
  - { offset: 0x6CC1E, size: 0x8, addend: 0x0, symName: __RNvXs6_NtCslJiobkLta79_5alloc5boxedINtB5_3BoxNtCsaKzlTDPUHDb_11proc_macro211TokenStreamENtNtNtCsieiGu2EXtoJ_4core3ops4drop4Drop4dropCsiK7Gs1zPIjf_14thiserror_impl, symObjAddr: 0x2D30, symBinAddr: 0x2CA70, symSize: 0xB0 }
  - { offset: 0x6CD59, size: 0x8, addend: 0x0, symName: __RNvXs6_NtCslJiobkLta79_5alloc5boxedINtB5_3BoxNtNtNtCsHUR1vrdMJt_3std2io5error6CustomENtNtNtCsieiGu2EXtoJ_4core3ops4drop4Drop4dropCsiK7Gs1zPIjf_14thiserror_impl, symObjAddr: 0x2DE0, symBinAddr: 0x2CB20, symSize: 0xB0 }
  - { offset: 0x6CE9A, size: 0x8, addend: 0x0, symName: __RNvXsC_NtCslJiobkLta79_5alloc5boxedINtB5_3BoxNtCsaKzlTDPUHDb_11proc_macro211TokenStreamEINtNtCsieiGu2EXtoJ_4core7convert5AsRefBH_E6as_refCsiK7Gs1zPIjf_14thiserror_impl, symObjAddr: 0x2E90, symBinAddr: 0x2CBD0, symSize: 0x10 }
  - { offset: 0x6D106, size: 0x8, addend: 0x0, symName: __RNvMs0_NtCslJiobkLta79_5alloc7raw_vecINtB5_6RawVecNtCsaKzlTDPUHDb_11proc_macro211TokenStreamE8grow_oneCsiK7Gs1zPIjf_14thiserror_impl, symObjAddr: 0xCD0, symBinAddr: 0x2AAC0, symSize: 0x90 }
  - { offset: 0x6D1E3, size: 0x8, addend: 0x0, symName: __RNvMs0_NtCslJiobkLta79_5alloc7raw_vecINtB5_6RawVecTNtCsaKzlTDPUHDb_11proc_macro211TokenStreamNtNtCsdGrGZaRBwMb_3syn5token4PlusEE8grow_oneCsiK7Gs1zPIjf_14thiserror_impl, symObjAddr: 0xD60, symBinAddr: 0x2AB50, symSize: 0x90 }
  - { offset: 0x6D2B3, size: 0x8, addend: 0x0, symName: __RNvMs0_NtCslJiobkLta79_5alloc7raw_vecINtB5_6RawVecTNtCsaKzlTDPUHDb_11proc_macro25IdentNtBP_11TokenStreamEE8grow_oneCsiK7Gs1zPIjf_14thiserror_impl, symObjAddr: 0xDF0, symBinAddr: 0x2ABE0, symSize: 0x90 }
  - { offset: 0x6E0BC, size: 0x8, addend: 0x0, symName: __RNvXNtCs9OU1sGv5X54_5quote9to_tokensRNtNtCsdGrGZaRBwMb_3syn6derive11DeriveInputNtB2_8ToTokens9to_tokensCsiK7Gs1zPIjf_14thiserror_impl, symObjAddr: 0x2060, symBinAddr: 0x2BE50, symSize: 0x30 }
  - { offset: 0x6E101, size: 0x8, addend: 0x0, symName: __RNvYRNtNtCsdGrGZaRBwMb_3syn6derive11DeriveInputNtNtCs9OU1sGv5X54_5quote9to_tokens8ToTokens15to_token_streamCsiK7Gs1zPIjf_14thiserror_impl, symObjAddr: 0x3340, symBinAddr: 0x2D080, symSize: 0x90 }
  - { offset: 0x6E14B, size: 0x8, addend: 0x0, symName: __RNvYRNtNtCsdGrGZaRBwMb_3syn6derive11DeriveInputNtNtCs9OU1sGv5X54_5quote9to_tokens8ToTokens17into_token_streamCsiK7Gs1zPIjf_14thiserror_impl, symObjAddr: 0x33D0, symBinAddr: 0x2D110, symSize: 0x50 }
  - { offset: 0x6F37A, size: 0x8, addend: 0x0, symName: __RINvMNtCsdGrGZaRBwMb_3syn5errorNtB3_5Error11new_spannedRNtCsaKzlTDPUHDb_11proc_macro211TokenStreamNtNtCslJiobkLta79_5alloc6string6StringECsiK7Gs1zPIjf_14thiserror_impl, symObjAddr: 0x0, symBinAddr: 0x2D1A0, symSize: 0xC0 }
  - { offset: 0x6F474, size: 0x8, addend: 0x0, symName: __RNvXss_NtCslJiobkLta79_5alloc6stringNtB5_6StringNtNtNtCsieiGu2EXtoJ_4core3ops5deref5Deref5derefCsiK7Gs1zPIjf_14thiserror_impl, symObjAddr: 0x58F0, symBinAddr: 0x32A90, symSize: 0x20 }
  - { offset: 0x6F4A8, size: 0x8, addend: 0x0, symName: __RINvXsn_NtCslJiobkLta79_5alloc6stringNtB6_6StringNtNtCsieiGu2EXtoJ_4core4hash4Hash4hashNtNtNtCsHUR1vrdMJt_3std4hash6random13DefaultHasherECsiK7Gs1zPIjf_14thiserror_impl, symObjAddr: 0x1F50, symBinAddr: 0x2F0F0, symSize: 0x80 }
  - { offset: 0x6F659, size: 0x8, addend: 0x0, symName: __RNvXs1e_NtCslJiobkLta79_5alloc6stringNtB6_6StringNtNtCsieiGu2EXtoJ_4core3cmp3Ord3cmpCsiK7Gs1zPIjf_14thiserror_impl, symObjAddr: 0x56D0, symBinAddr: 0x32870, symSize: 0x20 }
  - { offset: 0x6F69C, size: 0x8, addend: 0x0, symName: __RNvXsT_NtCslJiobkLta79_5alloc6stringNtB5_6StringNtNtCsieiGu2EXtoJ_4core3fmt5Write10write_charCsiK7Gs1zPIjf_14thiserror_impl, symObjAddr: 0x5810, symBinAddr: 0x329B0, symSize: 0x30 }
  - { offset: 0x6F6D9, size: 0x8, addend: 0x0, symName: __RNvXsT_NtCslJiobkLta79_5alloc6stringNtB5_6StringNtNtCsieiGu2EXtoJ_4core3fmt5Write9write_strCsiK7Gs1zPIjf_14thiserror_impl, symObjAddr: 0x5840, symBinAddr: 0x329E0, symSize: 0x30 }
  - { offset: 0x6F71C, size: 0x8, addend: 0x0, symName: __RNvXsp_NtCslJiobkLta79_5alloc6stringNtB5_6StringINtNtNtCsieiGu2EXtoJ_4core3ops5arith9AddAssignReE10add_assignCsiK7Gs1zPIjf_14thiserror_impl, symObjAddr: 0x58C0, symBinAddr: 0x32A60, symSize: 0x30 }
  - { offset: 0x6F75B, size: 0x8, addend: 0x0, symName: __RNvXsw_NtCslJiobkLta79_5alloc6stringNtNtCsdGrGZaRBwMb_3syn3lit8LitFloatNtB5_8ToString9to_stringCsiK7Gs1zPIjf_14thiserror_impl, symObjAddr: 0x5910, symBinAddr: 0x32AB0, symSize: 0x30 }
  - { offset: 0x6F798, size: 0x8, addend: 0x0, symName: __RNvXsx_NtCslJiobkLta79_5alloc6stringNtNtCsdGrGZaRBwMb_3syn3lit8LitFloatNtB5_12SpecToString14spec_to_stringCsiK7Gs1zPIjf_14thiserror_impl, symObjAddr: 0x5940, symBinAddr: 0x32AE0, symSize: 0x120 }
  - { offset: 0x7474C, size: 0x8, addend: 0x0, symName: __RNvNvXs2_NtNtCsieiGu2EXtoJ_4core5slice5indexINtNtNtBb_3ops5range5RangejEINtB7_10SliceIndexSpE13get_unchecked18precondition_checkCsiK7Gs1zPIjf_14thiserror_impl, symObjAddr: 0x53F0, symBinAddr: 0x32590, symSize: 0xC0 }
  - { offset: 0x747C8, size: 0x8, addend: 0x0, symName: __RNvNvXs2_NtNtCsieiGu2EXtoJ_4core5slice5indexINtNtNtBb_3ops5range5RangejEINtB7_10SliceIndexSpE17get_unchecked_mut18precondition_checkCsiK7Gs1zPIjf_14thiserror_impl, symObjAddr: 0x54B0, symBinAddr: 0x32650, symSize: 0xC0 }
  - { offset: 0x74A1C, size: 0x8, addend: 0x0, symName: __RNvNvXs0_NtNtCsieiGu2EXtoJ_4core5slice5indexjINtB7_10SliceIndexSpE13get_unchecked18precondition_checkCsiK7Gs1zPIjf_14thiserror_impl, symObjAddr: 0x5210, symBinAddr: 0x323B0, symSize: 0xA0 }
  - { offset: 0x74A8A, size: 0x8, addend: 0x0, symName: __RNvNvXs0_NtNtCsieiGu2EXtoJ_4core5slice5indexjINtB7_10SliceIndexSpE17get_unchecked_mut18precondition_checkCsiK7Gs1zPIjf_14thiserror_impl, symObjAddr: 0x52B0, symBinAddr: 0x32450, symSize: 0xA0 }
  - { offset: 0x74AF3, size: 0x8, addend: 0x0, symName: __RNvXs0_NtNtCsieiGu2EXtoJ_4core5slice5indexjINtB5_10SliceIndexSNtNtCsiK7Gs1zPIjf_14thiserror_impl3ast5FieldE5indexB12_, symObjAddr: 0x5610, symBinAddr: 0x327B0, symSize: 0x60 }
  - { offset: 0x74B39, size: 0x8, addend: 0x0, symName: __RNvXs0_NtNtCsieiGu2EXtoJ_4core5slice5indexjINtB5_10SliceIndexSTNtNtCsdGrGZaRBwMb_3syn4path15GenericArgumentNtNtB13_5token5CommaEE5indexCsiK7Gs1zPIjf_14thiserror_impl, symObjAddr: 0x5670, symBinAddr: 0x32810, symSize: 0x60 }
  - { offset: 0x74C01, size: 0x8, addend: 0x0, symName: __RNvNvXs1_NtNtCsieiGu2EXtoJ_4core5slice5indexNtNtNtBb_3ops11index_range10IndexRangeINtB7_10SliceIndexSpE17get_unchecked_mut18precondition_checkCsiK7Gs1zPIjf_14thiserror_impl, symObjAddr: 0x5350, symBinAddr: 0x324F0, symSize: 0xA0 }
  - { offset: 0x74CF7, size: 0x8, addend: 0x0, symName: __RNvMNtCsieiGu2EXtoJ_4core5sliceSNtNtCsiK7Gs1zPIjf_14thiserror_impl3ast5Field4iterBy_, symObjAddr: 0x27D0, symBinAddr: 0x2F970, symSize: 0x20 }
  - { offset: 0x74D2E, size: 0x8, addend: 0x0, symName: __RNvMNtCsieiGu2EXtoJ_4core5sliceSNtNtCsiK7Gs1zPIjf_14thiserror_impl3ast7Variant4iterBy_, symObjAddr: 0x27F0, symBinAddr: 0x2F990, symSize: 0x20 }
  - { offset: 0x74E99, size: 0x8, addend: 0x0, symName: __RINvNtNtNtNtCsieiGu2EXtoJ_4core5slice4sort6stable5drift10create_runRNtCsaKzlTDPUHDb_11proc_macro25IdentNvYB13_NtNtBa_3cmp10PartialOrd2ltECsiK7Gs1zPIjf_14thiserror_impl, symObjAddr: 0x10D0, symBinAddr: 0x2E270, symSize: 0x570 }
  - { offset: 0x753A7, size: 0x8, addend: 0x0, symName: __RINvNtNtNtNtCsieiGu2EXtoJ_4core5slice4sort6stable5drift16stable_quicksortRNtCsaKzlTDPUHDb_11proc_macro25IdentNvYB19_NtNtBa_3cmp10PartialOrd2ltECsiK7Gs1zPIjf_14thiserror_impl, symObjAddr: 0x1640, symBinAddr: 0x2E7E0, symSize: 0xC0 }
  - { offset: 0x755CD, size: 0x8, addend: 0x0, symName: __RINvNtNtNtNtCsieiGu2EXtoJ_4core5slice4sort6stable5drift4sortRNtCsaKzlTDPUHDb_11proc_macro25IdentNvYBW_NtNtBa_3cmp10PartialOrd2ltECsiK7Gs1zPIjf_14thiserror_impl, symObjAddr: 0x1700, symBinAddr: 0x2E8A0, symSize: 0x7A0 }
  - { offset: 0x75E4C, size: 0x8, addend: 0x0, symName: __RNvXs_NtNtCsieiGu2EXtoJ_4core5slice4iterRSNtNtCsiK7Gs1zPIjf_14thiserror_impl3ast5FieldNtNtNtNtB8_4iter6traits7collect12IntoIterator9into_iterBI_, symObjAddr: 0x5870, symBinAddr: 0x32A10, symSize: 0x50 }
  - { offset: 0x76930, size: 0x8, addend: 0x0, symName: __RNvXNtCsieiGu2EXtoJ_4core6borrowNtNtCslJiobkLta79_5alloc6string6StringINtB2_6BorrowBu_E6borrowCsiK7Gs1zPIjf_14thiserror_impl, symObjAddr: 0x5600, symBinAddr: 0x327A0, symSize: 0x10 }
  - { offset: 0x774AF, size: 0x8, addend: 0x0, symName: __RNCNvMs0_NtCsiK7Gs1zPIjf_14thiserror_impl3astNtB7_4Enum8from_syn0B9_, symObjAddr: 0x1FF0, symBinAddr: 0x2F190, symSize: 0x3A0 }
  - { offset: 0x775D3, size: 0x8, addend: 0x0, symName: __RNCNvMs2_NtCsiK7Gs1zPIjf_14thiserror_impl3astNtB7_5Field17multiple_from_syn0B9_, symObjAddr: 0x2390, symBinAddr: 0x2F530, symSize: 0x60 }
  - { offset: 0x7763C, size: 0x8, addend: 0x0, symName: __RNcNtNtNtCsiK7Gs1zPIjf_14thiserror_impl3ast5Input4Enum0B7_, symObjAddr: 0x23F0, symBinAddr: 0x2F590, symSize: 0x40 }
  - { offset: 0x7766B, size: 0x8, addend: 0x0, symName: __RNcNtNtNtCsiK7Gs1zPIjf_14thiserror_impl3ast5Input6Struct0B7_, symObjAddr: 0x2430, symBinAddr: 0x2F5D0, symSize: 0x40 }
  - { offset: 0x77A0E, size: 0x8, addend: 0x0, symName: __RNvXs4_NtCsiK7Gs1zPIjf_14thiserror_impl3astNtB5_13ContainerKindNtNtCsieiGu2EXtoJ_4core3fmt7Display3fmt, symObjAddr: 0x56F0, symBinAddr: 0x32890, symSize: 0x120 }
  - { offset: 0x77B57, size: 0x8, addend: 0x0, symName: __RNCNvMNtCsiK7Gs1zPIjf_14thiserror_impl8genericsNtB4_13ParamsInScope3new0B6_, symObjAddr: 0x1FD0, symBinAddr: 0x2F170, symSize: 0x20 }
  - { offset: 0x77BDA, size: 0x8, addend: 0x0, symName: __RNvNtCsiK7Gs1zPIjf_14thiserror_impl8generics5crawl, symObjAddr: 0x4E50, symBinAddr: 0x31FF0, symSize: 0x3C0 }
  - { offset: 0x7CE88, size: 0x8, addend: 0x0, symName: __RINvMNtCsdGrGZaRBwMb_3syn5errorNtB3_5Error11new_spannedRNtCsaKzlTDPUHDb_11proc_macro211TokenStreamNtNtCslJiobkLta79_5alloc6string6StringECsiK7Gs1zPIjf_14thiserror_impl, symObjAddr: 0x0, symBinAddr: 0x2D1A0, symSize: 0xC0 }
  - { offset: 0x7D3BF, size: 0x8, addend: 0x0, symName: __RINvMNtCsdGrGZaRBwMb_3syn5errorNtB3_5Error11new_spannedRNtNtB5_4attr9AttributeReECsiK7Gs1zPIjf_14thiserror_impl, symObjAddr: 0xC0, symBinAddr: 0x2D260, symSize: 0xB0 }
  - { offset: 0x7D40F, size: 0x8, addend: 0x0, symName: __RINvMNtCsdGrGZaRBwMb_3syn5errorNtB3_5Error11new_spannedRNtNtB5_4data7VariantReECsiK7Gs1zPIjf_14thiserror_impl, symObjAddr: 0x170, symBinAddr: 0x2D310, symSize: 0xB0 }
  - { offset: 0x7D45F, size: 0x8, addend: 0x0, symName: __RINvMNtCsdGrGZaRBwMb_3syn5errorNtB3_5Error11new_spannedRNtNtB5_6derive11DeriveInputReECsiK7Gs1zPIjf_14thiserror_impl, symObjAddr: 0x220, symBinAddr: 0x2D3C0, symSize: 0xB0 }
  - { offset: 0x7D4AF, size: 0x8, addend: 0x0, symName: __RINvMNtCsdGrGZaRBwMb_3syn5errorNtB3_5Error11new_spannedRRNtNtB5_4attr9AttributeReECsiK7Gs1zPIjf_14thiserror_impl, symObjAddr: 0x2D0, symBinAddr: 0x2D470, symSize: 0xB0 }
  - { offset: 0x7D638, size: 0x8, addend: 0x0, symName: __RINvMs_NtCsiK7Gs1zPIjf_14thiserror_impl8genericsNtB5_14InferredBounds6insertNtCsaKzlTDPUHDb_11proc_macro211TokenStreamB1c_EB7_, symObjAddr: 0x380, symBinAddr: 0x2D520, symSize: 0x370 }
  - { offset: 0x7D6F0, size: 0x8, addend: 0x0, symName: __RINvMs_NtCsiK7Gs1zPIjf_14thiserror_impl8genericsNtB5_14InferredBounds6insertNtNtCsdGrGZaRBwMb_3syn5token8SelfTypeNtNtB7_4attr5TraitEB7_, symObjAddr: 0x6F0, symBinAddr: 0x2D890, symSize: 0x340 }
  - { offset: 0x7D7B5, size: 0x8, addend: 0x0, symName: __RINvMs_NtCsiK7Gs1zPIjf_14thiserror_impl8genericsNtB5_14InferredBounds6insertRNtNtCsdGrGZaRBwMb_3syn2ty4TypeNtCsaKzlTDPUHDb_11proc_macro211TokenStreamEB7_, symObjAddr: 0xA30, symBinAddr: 0x2DBD0, symSize: 0x360 }
  - { offset: 0x7D86D, size: 0x8, addend: 0x0, symName: __RINvMs_NtCsiK7Gs1zPIjf_14thiserror_impl8genericsNtB5_14InferredBounds6insertRNtNtCsdGrGZaRBwMb_3syn2ty4TypeNtNtB7_4attr5TraitEB7_, symObjAddr: 0xD90, symBinAddr: 0x2DF30, symSize: 0x340 }
  - { offset: 0x7DCE5, size: 0x8, addend: 0x0, symName: __RINvNvXNtCs9OU1sGv5X54_5quote3extNtCsaKzlTDPUHDb_11proc_macro211TokenStreamNtB5_14TokenStreamExt10append_all13do_append_allINtNtCsdGrGZaRBwMb_3syn10punctuated5PairsBv_NtNtB22_5token4PlusEECsiK7Gs1zPIjf_14thiserror_impl, symObjAddr: 0x1EA0, symBinAddr: 0x2F040, symSize: 0xB0 }
  - { offset: 0x7DD65, size: 0x8, addend: 0x0, symName: __RNvXNtCs9OU1sGv5X54_5quote14ident_fragmentRNtNtCslJiobkLta79_5alloc6string6StringNtB2_13IdentFragment3fmtCsiK7Gs1zPIjf_14thiserror_impl, symObjAddr: 0x5570, symBinAddr: 0x32710, symSize: 0x30 }
  - { offset: 0x7DDA8, size: 0x8, addend: 0x0, symName: __RNvXNtCs9OU1sGv5X54_5quote14ident_fragmentRNtNtCslJiobkLta79_5alloc6string6StringNtB2_13IdentFragment4spanCsiK7Gs1zPIjf_14thiserror_impl, symObjAddr: 0x55A0, symBinAddr: 0x32740, symSize: 0x30 }
  - { offset: 0x7DDE3, size: 0x8, addend: 0x0, symName: __RNvYNtNtCslJiobkLta79_5alloc6string6StringNtNtCs9OU1sGv5X54_5quote14ident_fragment13IdentFragment4spanCsiK7Gs1zPIjf_14thiserror_impl, symObjAddr: 0x5A60, symBinAddr: 0x32C00, symSize: 0x20 }
  - { offset: 0x7DE24, size: 0x8, addend: 0x0, symName: __RNvXNtCs9OU1sGv5X54_5quote9to_tokensRNtNtCsdGrGZaRBwMb_3syn3lit6LitStrNtB2_8ToTokens9to_tokensCsiK7Gs1zPIjf_14thiserror_impl, symObjAddr: 0x55D0, symBinAddr: 0x32770, symSize: 0x30 }
  - { offset: 0x7DE69, size: 0x8, addend: 0x0, symName: __RNvYRNtNtCsdGrGZaRBwMb_3syn4data7VariantNtNtCs9OU1sGv5X54_5quote9to_tokens8ToTokens15to_token_streamCsiK7Gs1zPIjf_14thiserror_impl, symObjAddr: 0x5A80, symBinAddr: 0x32C20, symSize: 0x90 }
  - { offset: 0x7DEB3, size: 0x8, addend: 0x0, symName: __RNvYRNtNtCsdGrGZaRBwMb_3syn4data7VariantNtNtCs9OU1sGv5X54_5quote9to_tokens8ToTokens17into_token_streamCsiK7Gs1zPIjf_14thiserror_impl, symObjAddr: 0x5B10, symBinAddr: 0x32CB0, symSize: 0x50 }
  - { offset: 0x7E0C5, size: 0x8, addend: 0x0, symName: __RNvMNtCsiK7Gs1zPIjf_14thiserror_impl3astNtB2_5Input8from_syn, symObjAddr: 0x2470, symBinAddr: 0x2F610, symSize: 0x130 }
  - { offset: 0x7E13B, size: 0x8, addend: 0x0, symName: __RNvMNtCsiK7Gs1zPIjf_14thiserror_impl4propNtNtB4_3ast6Struct10from_field, symObjAddr: 0x25A0, symBinAddr: 0x2F740, symSize: 0x30 }
  - { offset: 0x7E15D, size: 0x8, addend: 0x0, symName: __RNvMNtCsiK7Gs1zPIjf_14thiserror_impl4propNtNtB4_3ast6Struct12source_field, symObjAddr: 0x25D0, symBinAddr: 0x2F770, symSize: 0x30 }
  - { offset: 0x7E17F, size: 0x8, addend: 0x0, symName: __RNvMNtCsiK7Gs1zPIjf_14thiserror_impl4propNtNtB4_3ast6Struct15backtrace_field, symObjAddr: 0x2600, symBinAddr: 0x2F7A0, symSize: 0x30 }
  - { offset: 0x7E1A1, size: 0x8, addend: 0x0, symName: __RNvMNtCsiK7Gs1zPIjf_14thiserror_impl4propNtNtB4_3ast6Struct24distinct_backtrace_field, symObjAddr: 0x2630, symBinAddr: 0x2F7D0, symSize: 0x90 }
  - { offset: 0x7E20A, size: 0x8, addend: 0x0, symName: __RNvMNtCsiK7Gs1zPIjf_14thiserror_impl5validNtNtB4_3ast5Input8validate, symObjAddr: 0x26C0, symBinAddr: 0x2F860, symSize: 0x70 }
  - { offset: 0x7E2CA, size: 0x8, addend: 0x0, symName: __RNvMNtCsiK7Gs1zPIjf_14thiserror_impl8genericsNtB2_13ParamsInScope10intersects, symObjAddr: 0x2730, symBinAddr: 0x2F8D0, symSize: 0x30 }
  - { offset: 0x7E30F, size: 0x8, addend: 0x0, symName: __RNvMNtCsiK7Gs1zPIjf_14thiserror_impl8genericsNtB2_13ParamsInScope3new, symObjAddr: 0x2760, symBinAddr: 0x2F900, symSize: 0x70 }
  - { offset: 0x7E341, size: 0x8, addend: 0x0, symName: __RNvMNtCslJiobkLta79_5alloc6stringNtB2_6String3newCsiK7Gs1zPIjf_14thiserror_impl, symObjAddr: 0x2810, symBinAddr: 0x2F9B0, symSize: 0x40 }
  - { offset: 0x7E51E, size: 0x8, addend: 0x0, symName: __RNvMNtCslJiobkLta79_5alloc6stringNtB2_6String4pushCsiK7Gs1zPIjf_14thiserror_impl, symObjAddr: 0x2850, symBinAddr: 0x2F9F0, symSize: 0x130 }
  - { offset: 0x7E7E7, size: 0x8, addend: 0x0, symName: __RNvMNtCslJiobkLta79_5alloc6stringNtB2_6String6as_strCsiK7Gs1zPIjf_14thiserror_impl, symObjAddr: 0x2980, symBinAddr: 0x2FB20, symSize: 0x60 }
  - { offset: 0x7E9B5, size: 0x8, addend: 0x0, symName: __RNvMNtCslJiobkLta79_5alloc6stringNtB2_6String8push_strCsiK7Gs1zPIjf_14thiserror_impl, symObjAddr: 0x29E0, symBinAddr: 0x2FB80, symSize: 0x50 }
  - { offset: 0x7EB0A, size: 0x8, addend: 0x0, symName: __RNvMs0_NtCsiK7Gs1zPIjf_14thiserror_impl3astNtB5_4Enum8from_syn, symObjAddr: 0x2A30, symBinAddr: 0x2FBD0, symSize: 0x450 }
  - { offset: 0x7EC09, size: 0x8, addend: 0x0, symName: __RNvMs0_NtCsiK7Gs1zPIjf_14thiserror_impl4propNtNtB7_3ast7Variant10from_field, symObjAddr: 0x2E80, symBinAddr: 0x30020, symSize: 0x30 }
  - { offset: 0x7EC2B, size: 0x8, addend: 0x0, symName: __RNvMs0_NtCsiK7Gs1zPIjf_14thiserror_impl4propNtNtB7_3ast7Variant12source_field, symObjAddr: 0x2EB0, symBinAddr: 0x30050, symSize: 0x30 }
  - { offset: 0x7EC4D, size: 0x8, addend: 0x0, symName: __RNvMs0_NtCsiK7Gs1zPIjf_14thiserror_impl4propNtNtB7_3ast7Variant15backtrace_field, symObjAddr: 0x2EE0, symBinAddr: 0x30080, symSize: 0x30 }
  - { offset: 0x7EC6F, size: 0x8, addend: 0x0, symName: __RNvMs0_NtCsiK7Gs1zPIjf_14thiserror_impl4propNtNtB7_3ast7Variant24distinct_backtrace_field, symObjAddr: 0x2F10, symBinAddr: 0x300B0, symSize: 0x90 }
  - { offset: 0x7ECD8, size: 0x8, addend: 0x0, symName: __RNvMs0_NtCsiK7Gs1zPIjf_14thiserror_impl5validNtNtB7_3ast4Enum8validate, symObjAddr: 0x2FA0, symBinAddr: 0x30140, symSize: 0x2A0 }
  - { offset: 0x7ED76, size: 0x8, addend: 0x0, symName: __RNvMs1_NtCsiK7Gs1zPIjf_14thiserror_impl3astNtB5_7Variant8from_syn, symObjAddr: 0x3240, symBinAddr: 0x303E0, symSize: 0x360 }
  - { offset: 0x7EE16, size: 0x8, addend: 0x0, symName: __RNvMs1_NtCsiK7Gs1zPIjf_14thiserror_impl4propNtNtB7_3ast5Field11source_span, symObjAddr: 0x35A0, symBinAddr: 0x30740, symSize: 0xD0 }
  - { offset: 0x7EE6A, size: 0x8, addend: 0x0, symName: __RNvMs1_NtCsiK7Gs1zPIjf_14thiserror_impl4propNtNtB7_3ast5Field12is_backtrace, symObjAddr: 0x3670, symBinAddr: 0x30810, symSize: 0x30 }
  - { offset: 0x7EE8C, size: 0x8, addend: 0x0, symName: __RNvMs1_NtCsiK7Gs1zPIjf_14thiserror_impl5validNtNtB7_3ast7Variant8validate, symObjAddr: 0x36A0, symBinAddr: 0x30840, symSize: 0x3C0 }
  - { offset: 0x7EF54, size: 0x8, addend: 0x0, symName: __RNvMs2_NtCsiK7Gs1zPIjf_14thiserror_impl3astNtB5_5Field17multiple_from_syn, symObjAddr: 0x3A60, symBinAddr: 0x30C00, symSize: 0x70 }
  - { offset: 0x7EF84, size: 0x8, addend: 0x0, symName: __RNvMs2_NtCsiK7Gs1zPIjf_14thiserror_impl3astNtB5_5Field8from_syn, symObjAddr: 0x3AD0, symBinAddr: 0x30C70, symSize: 0x2C0 }
  - { offset: 0x7F013, size: 0x8, addend: 0x0, symName: __RNvMs2_NtCsiK7Gs1zPIjf_14thiserror_impl5validNtNtB7_3ast5Field8validate, symObjAddr: 0x3D90, symBinAddr: 0x30F30, symSize: 0x130 }
  - { offset: 0x7F091, size: 0x8, addend: 0x0, symName: __RNvMs3_NtCsiK7Gs1zPIjf_14thiserror_impl3astNtB5_13ContainerKind11from_struct, symObjAddr: 0x3EC0, symBinAddr: 0x31060, symSize: 0x60 }
  - { offset: 0x7F0B3, size: 0x8, addend: 0x0, symName: __RNvMs3_NtCsiK7Gs1zPIjf_14thiserror_impl3astNtB5_13ContainerKind12from_variant, symObjAddr: 0x3F20, symBinAddr: 0x310C0, symSize: 0x60 }
  - { offset: 0x7F0D5, size: 0x8, addend: 0x0, symName: __RNvMs_NtCsiK7Gs1zPIjf_14thiserror_impl3astNtB4_6Struct8from_syn, symObjAddr: 0x3F80, symBinAddr: 0x31120, symSize: 0x530 }
  - { offset: 0x7F207, size: 0x8, addend: 0x0, symName: __RNvMs_NtCsiK7Gs1zPIjf_14thiserror_impl4propNtNtB6_3ast4Enum10has_source, symObjAddr: 0x44B0, symBinAddr: 0x31650, symSize: 0x40 }
  - { offset: 0x7F229, size: 0x8, addend: 0x0, symName: __RNvMs_NtCsiK7Gs1zPIjf_14thiserror_impl4propNtNtB6_3ast4Enum11has_display, symObjAddr: 0x44F0, symBinAddr: 0x31690, symSize: 0xF0 }
  - { offset: 0x7F24B, size: 0x8, addend: 0x0, symName: __RNvMs_NtCsiK7Gs1zPIjf_14thiserror_impl4propNtNtB6_3ast4Enum13has_backtrace, symObjAddr: 0x45E0, symBinAddr: 0x31780, symSize: 0x40 }
  - { offset: 0x7F26D, size: 0x8, addend: 0x0, symName: __RNvMs_NtCsiK7Gs1zPIjf_14thiserror_impl5validNtNtB6_3ast6Struct8validate, symObjAddr: 0x4620, symBinAddr: 0x317C0, symSize: 0x480 }
  - { offset: 0x7F38B, size: 0x8, addend: 0x0, symName: __RNvMs_NtCsiK7Gs1zPIjf_14thiserror_impl8genericsNtB4_14InferredBounds20augment_where_clause, symObjAddr: 0x4AA0, symBinAddr: 0x31C40, symSize: 0x320 }
  - { offset: 0x7F473, size: 0x8, addend: 0x0, symName: __RNvMs_NtCsiK7Gs1zPIjf_14thiserror_impl8genericsNtB4_14InferredBounds3new, symObjAddr: 0x4DC0, symBinAddr: 0x31F60, symSize: 0x90 }
  - { offset: 0x7F94B, size: 0x8, addend: 0x0, symName: __RINvMs2_NtNtCsHUR1vrdMJt_3std6thread5localINtB6_8LocalKeyINtNtCsieiGu2EXtoJ_4core4cell4CellPuEE4withNCNvMs3_B6_BE_7replace0B1r_ECsiK7Gs1zPIjf_14thiserror_impl, symObjAddr: 0x0, symBinAddr: 0x32D00, symSize: 0x50 }
  - { offset: 0x846BA, size: 0x8, addend: 0x0, symName: __RINvXs2E_NtNtCsieiGu2EXtoJ_4core5slice4iterINtB7_4IterNtNtCsiK7Gs1zPIjf_14thiserror_impl3ast5FieldENtNtNtNtBb_4iter6traits8iterator8Iterator8find_mapNtNtBU_4attr6SourceNCNvMs1_NtBU_5validNtBS_7Variant8validate0EBU_, symObjAddr: 0x1520, symBinAddr: 0x34120, symSize: 0xE0 }
  - { offset: 0x8473F, size: 0x8, addend: 0x0, symName: __RINvXs2E_NtNtCsieiGu2EXtoJ_4core5slice4iterINtB7_4IterNtNtCsiK7Gs1zPIjf_14thiserror_impl3ast5FieldENtNtNtNtBb_4iter6traits8iterator8Iterator8find_mapNtNtBU_4attr6SourceNCNvMs_NtBU_5validNtBS_6Struct8validate0EBU_, symObjAddr: 0x1600, symBinAddr: 0x34200, symSize: 0xE0 }
  - { offset: 0x847C4, size: 0x8, addend: 0x0, symName: __RINvXs2E_NtNtCsieiGu2EXtoJ_4core5slice4iterINtB7_4IterNtNtCsiK7Gs1zPIjf_14thiserror_impl3ast7VariantENtNtNtNtBb_4iter6traits8iterator8Iterator3allNCNvMs_NtBU_4propNtBS_4Enum11has_displays_0EBU_, symObjAddr: 0x16E0, symBinAddr: 0x342E0, symSize: 0xA0 }
  - { offset: 0x84829, size: 0x8, addend: 0x0, symName: __RINvXs2E_NtNtCsieiGu2EXtoJ_4core5slice4iterINtB7_4IterNtNtCsiK7Gs1zPIjf_14thiserror_impl3ast7VariantENtNtNtNtBb_4iter6traits8iterator8Iterator3anyNCNvMs_NtBU_4propNtBS_4Enum10has_source0EBU_, symObjAddr: 0x1780, symBinAddr: 0x34380, symSize: 0x90 }
  - { offset: 0x8488E, size: 0x8, addend: 0x0, symName: __RINvXs2E_NtNtCsieiGu2EXtoJ_4core5slice4iterINtB7_4IterNtNtCsiK7Gs1zPIjf_14thiserror_impl3ast7VariantENtNtNtNtBb_4iter6traits8iterator8Iterator3anyNCNvMs_NtBU_4propNtBS_4Enum11has_display0EBU_, symObjAddr: 0x1810, symBinAddr: 0x34410, symSize: 0x90 }
  - { offset: 0x848F3, size: 0x8, addend: 0x0, symName: __RINvXs2E_NtNtCsieiGu2EXtoJ_4core5slice4iterINtB7_4IterNtNtCsiK7Gs1zPIjf_14thiserror_impl3ast7VariantENtNtNtNtBb_4iter6traits8iterator8Iterator3anyNCNvMs_NtBU_4propNtBS_4Enum13has_backtrace0EBU_, symObjAddr: 0x18A0, symBinAddr: 0x344A0, symSize: 0x90 }
  - { offset: 0x84958, size: 0x8, addend: 0x0, symName: __RINvXs2E_NtNtCsieiGu2EXtoJ_4core5slice4iterINtB7_4IterNtNtCsiK7Gs1zPIjf_14thiserror_impl3ast7VariantENtNtNtNtBb_4iter6traits8iterator8Iterator3anyNCNvNtBU_6expand9impl_enums0_0EBU_, symObjAddr: 0x1930, symBinAddr: 0x34530, symSize: 0x90 }
  - { offset: 0x849BD, size: 0x8, addend: 0x0, symName: __RINvXs2E_NtNtCsieiGu2EXtoJ_4core5slice4iterINtB7_4IterNtNtCsiK7Gs1zPIjf_14thiserror_impl3ast7VariantENtNtNtNtBb_4iter6traits8iterator8Iterator4folduNCINvNtNtB1H_8adapters3map8map_foldRBQ_NtCsaKzlTDPUHDb_11proc_macro211TokenStreamuNCNvNtBU_6expand9impl_enums1_0NCINvNvB1B_8for_each4callB2Z_NCINvMsi_NtCslJiobkLta79_5alloc3vecINtB4M_3VecB2Z_E14extend_trustedINtB2r_3MapBF_B3G_EE0E0E0EBU_, symObjAddr: 0x19C0, symBinAddr: 0x345C0, symSize: 0x190 }
  - { offset: 0x84AFE, size: 0x8, addend: 0x0, symName: __RINvXs2E_NtNtCsieiGu2EXtoJ_4core5slice4iterINtB7_4IterNtNtCsiK7Gs1zPIjf_14thiserror_impl3ast7VariantENtNtNtNtBb_4iter6traits8iterator8Iterator8find_mapNtCsaKzlTDPUHDb_11proc_macro211TokenStreamQNCNvNtBU_6expand9impl_enums2_0EBU_, symObjAddr: 0x1B50, symBinAddr: 0x34750, symSize: 0x120 }
  - { offset: 0x84B83, size: 0x8, addend: 0x0, symName: __RNvXs2E_NtNtCsieiGu2EXtoJ_4core5slice4iterINtB6_4IterNtCsaKzlTDPUHDb_11proc_macro211TokenStreamENtNtNtNtBa_4iter6traits8iterator8Iterator4nextCsiK7Gs1zPIjf_14thiserror_impl, symObjAddr: 0x26D0, symBinAddr: 0x352C0, symSize: 0x90 }
  - { offset: 0x84CA4, size: 0x8, addend: 0x0, symName: __RNvXs2E_NtNtCsieiGu2EXtoJ_4core5slice4iterINtB6_4IterNtNtCsiK7Gs1zPIjf_14thiserror_impl3ast5FieldENtNtNtNtBa_4iter6traits8iterator8Iterator4nextBT_, symObjAddr: 0x2760, symBinAddr: 0x35350, symSize: 0x90 }
  - { offset: 0x84DC5, size: 0x8, addend: 0x0, symName: __RNvXs2E_NtNtCsieiGu2EXtoJ_4core5slice4iterINtB6_4IterNtNtCsiK7Gs1zPIjf_14thiserror_impl3ast7VariantENtNtNtNtBa_4iter6traits8iterator8Iterator4nextBT_, symObjAddr: 0x27F0, symBinAddr: 0x353E0, symSize: 0x90 }
  - { offset: 0x84EE6, size: 0x8, addend: 0x0, symName: __RNvXs2E_NtNtCsieiGu2EXtoJ_4core5slice4iterINtB6_4IterNtNtCsiK7Gs1zPIjf_14thiserror_impl3ast7VariantENtNtNtNtBa_4iter6traits8iterator8Iterator9size_hintBT_, symObjAddr: 0x2880, symBinAddr: 0x35470, symSize: 0x60 }
  - { offset: 0x84F55, size: 0x8, addend: 0x0, symName: __RNvXs2E_NtNtCsieiGu2EXtoJ_4core5slice4iterINtB6_4IterNtNtCsiK7Gs1zPIjf_14thiserror_impl5unraw10IdentUnrawENtNtNtNtBa_4iter6traits8iterator8Iterator4nextBT_, symObjAddr: 0x28E0, symBinAddr: 0x354D0, symSize: 0x90 }
  - { offset: 0x85076, size: 0x8, addend: 0x0, symName: __RNvXs2E_NtNtCsieiGu2EXtoJ_4core5slice4iterINtB6_4IterNtNtCslJiobkLta79_5alloc6string6StringENtNtNtNtBa_4iter6traits8iterator8Iterator4nextCsiK7Gs1zPIjf_14thiserror_impl, symObjAddr: 0x2970, symBinAddr: 0x35560, symSize: 0x90 }
  - { offset: 0x85197, size: 0x8, addend: 0x0, symName: __RNvXs2E_NtNtCsieiGu2EXtoJ_4core5slice4iterINtB6_4IterRNtCsaKzlTDPUHDb_11proc_macro25IdentENtNtNtNtBa_4iter6traits8iterator8Iterator4nextCsiK7Gs1zPIjf_14thiserror_impl, symObjAddr: 0x2A00, symBinAddr: 0x355F0, symSize: 0x90 }
  - { offset: 0x852B8, size: 0x8, addend: 0x0, symName: __RNvXs2E_NtNtCsieiGu2EXtoJ_4core5slice4iterINtB6_4IterTNtCsaKzlTDPUHDb_11proc_macro211TokenStreamNtNtCsdGrGZaRBwMb_3syn5token4PlusEENtNtNtNtBa_4iter6traits8iterator8Iterator4nextCsiK7Gs1zPIjf_14thiserror_impl, symObjAddr: 0x2A90, symBinAddr: 0x35680, symSize: 0x90 }
  - { offset: 0x853D9, size: 0x8, addend: 0x0, symName: __RNvXs2E_NtNtCsieiGu2EXtoJ_4core5slice4iterINtB6_4IterTNtCsaKzlTDPUHDb_11proc_macro25IdentNtBS_11TokenStreamEENtNtNtNtBa_4iter6traits8iterator8Iterator4nextCsiK7Gs1zPIjf_14thiserror_impl, symObjAddr: 0x2B20, symBinAddr: 0x35710, symSize: 0x90 }
  - { offset: 0x854FA, size: 0x8, addend: 0x0, symName: __RNvXs2E_NtNtCsieiGu2EXtoJ_4core5slice4iterINtB6_4IterTNtNtCsiK7Gs1zPIjf_14thiserror_impl9scan_expr5InputNtBS_6ActionEENtNtNtNtBa_4iter6traits8iterator8Iterator4nextBU_, symObjAddr: 0x2BB0, symBinAddr: 0x357A0, symSize: 0x90 }
  - { offset: 0x8561B, size: 0x8, addend: 0x0, symName: __RNvXs2E_NtNtCsieiGu2EXtoJ_4core5slice4iterINtB6_4IterTjNtNtCsiK7Gs1zPIjf_14thiserror_impl4attr5TraitEENtNtNtNtBa_4iter6traits8iterator8Iterator4nextBV_, symObjAddr: 0x2C40, symBinAddr: 0x35830, symSize: 0x90 }
  - { offset: 0x8595D, size: 0x8, addend: 0x0, symName: __RNvXs2F_NtNtCsieiGu2EXtoJ_4core5slice4iterINtB6_4IterTNtNtCsdGrGZaRBwMb_3syn4data7VariantNtNtBU_5token5CommaEENtNtNtNtBa_4iter6traits12double_ended19DoubleEndedIterator9next_backCsiK7Gs1zPIjf_14thiserror_impl, symObjAddr: 0x2CD0, symBinAddr: 0x358C0, symSize: 0x100 }
  - { offset: 0x85AAC, size: 0x8, addend: 0x0, symName: __RNvXs2F_NtNtCsieiGu2EXtoJ_4core5slice4iterINtB6_4IterTNtNtCsdGrGZaRBwMb_3syn4path15GenericArgumentNtNtBU_5token5CommaEENtNtNtNtBa_4iter6traits12double_ended19DoubleEndedIterator9next_backCsiK7Gs1zPIjf_14thiserror_impl, symObjAddr: 0x2DD0, symBinAddr: 0x359C0, symSize: 0x100 }
  - { offset: 0x85C78, size: 0x8, addend: 0x0, symName: __RNvXs5_NtNtCsieiGu2EXtoJ_4core5slice4iterINtB5_4IterTNtNtCsdGrGZaRBwMb_3syn4data7VariantNtNtBT_5token5CommaEENtNtB9_5clone5Clone5cloneCsiK7Gs1zPIjf_14thiserror_impl, symObjAddr: 0x2F70, symBinAddr: 0x35B60, symSize: 0x20 }
  - { offset: 0x85CAD, size: 0x8, addend: 0x0, symName: __RNvXs5_NtNtCsieiGu2EXtoJ_4core5slice4iterINtB5_4IterTNtNtCsdGrGZaRBwMb_3syn4path15GenericArgumentNtNtBT_5token5CommaEENtNtB9_5clone5Clone5cloneCsiK7Gs1zPIjf_14thiserror_impl, symObjAddr: 0x2F90, symBinAddr: 0x35B80, symSize: 0x20 }
  - { offset: 0x865F1, size: 0x8, addend: 0x0, symName: __RINvXs9_NtNtCsieiGu2EXtoJ_4core4hash5implsmNtB8_4Hash4hashNtNtNtCsHUR1vrdMJt_3std4hash6random13DefaultHasherECsiK7Gs1zPIjf_14thiserror_impl, symObjAddr: 0x1C70, symBinAddr: 0x34870, symSize: 0x30 }
  - { offset: 0x8670C, size: 0x8, addend: 0x0, symName: __RINvYINtNtNtCsieiGu2EXtoJ_4core5slice4iter4IterNtNtCsiK7Gs1zPIjf_14thiserror_impl3ast5FieldENtNtNtNtBa_4iter6traits8iterator8Iterator3mapNtCsaKzlTDPUHDb_11proc_macro25IdentNCNCNvNtBN_6expand9impl_enums1_00EBN_, symObjAddr: 0x1CA0, symBinAddr: 0x348A0, symSize: 0x20 }
  - { offset: 0x86764, size: 0x8, addend: 0x0, symName: __RINvYINtNtNtCsieiGu2EXtoJ_4core5slice4iter4IterNtNtCsiK7Gs1zPIjf_14thiserror_impl3ast5FieldENtNtNtNtBa_4iter6traits8iterator8Iterator3mapRNtNtBN_5unraw11MemberUnrawNCNvNtBN_6expand10fields_pat0EBN_, symObjAddr: 0x1CC0, symBinAddr: 0x348C0, symSize: 0x20 }
  - { offset: 0x867BC, size: 0x8, addend: 0x0, symName: __RINvYINtNtNtCsieiGu2EXtoJ_4core5slice4iter4IterNtNtCsiK7Gs1zPIjf_14thiserror_impl3ast7VariantENtNtNtNtBa_4iter6traits8iterator8Iterator10filter_mapNtCsaKzlTDPUHDb_11proc_macro211TokenStreamNCNvNtBN_6expand9impl_enums2_0EBN_, symObjAddr: 0x1CE0, symBinAddr: 0x348E0, symSize: 0x50 }
  - { offset: 0x8682A, size: 0x8, addend: 0x0, symName: __RINvYINtNtNtCsieiGu2EXtoJ_4core5slice4iter4IterNtNtCsiK7Gs1zPIjf_14thiserror_impl3ast7VariantENtNtNtNtBa_4iter6traits8iterator8Iterator3mapNtCsaKzlTDPUHDb_11proc_macro211TokenStreamNCNvNtBN_6expand9impl_enum0EBN_, symObjAddr: 0x1D30, symBinAddr: 0x34930, symSize: 0x30 }
  - { offset: 0x86897, size: 0x8, addend: 0x0, symName: __RINvYINtNtNtCsieiGu2EXtoJ_4core5slice4iter4IterNtNtCsiK7Gs1zPIjf_14thiserror_impl3ast7VariantENtNtNtNtBa_4iter6traits8iterator8Iterator3mapNtCsaKzlTDPUHDb_11proc_macro211TokenStreamNCNvNtBN_6expand9impl_enums1_0EBN_, symObjAddr: 0x1D60, symBinAddr: 0x34960, symSize: 0x30 }
  - { offset: 0x86904, size: 0x8, addend: 0x0, symName: __RINvYINtNtNtCsieiGu2EXtoJ_4core5slice4iter4IterNtNtCsiK7Gs1zPIjf_14thiserror_impl3ast7VariantENtNtNtNtBa_4iter6traits8iterator8Iterator3mapNtCsaKzlTDPUHDb_11proc_macro211TokenStreamNCNvNtBN_6expand9impl_enums_0EBN_, symObjAddr: 0x1D90, symBinAddr: 0x34990, symSize: 0x30 }
  - { offset: 0x86971, size: 0x8, addend: 0x0, symName: __RINvYINtNtNtCsieiGu2EXtoJ_4core5slice4iter4IterTNtCsaKzlTDPUHDb_11proc_macro25IdentNtBM_11TokenStreamEENtNtNtNtBa_4iter6traits8iterator8Iterator3mapRB1j_NCNvXNtCsiK7Gs1zPIjf_14thiserror_impl4attrNtB2w_7DisplayNtNtCs9OU1sGv5X54_5quote9to_tokens8ToTokens9to_tokenss_0EB2y_, symObjAddr: 0x1DC0, symBinAddr: 0x349C0, symSize: 0x20 }
  - { offset: 0x869C9, size: 0x8, addend: 0x0, symName: __RINvYINtNtNtCsieiGu2EXtoJ_4core5slice4iter4IterTNtCsaKzlTDPUHDb_11proc_macro25IdentNtBM_11TokenStreamEENtNtNtNtBa_4iter6traits8iterator8Iterator3mapRBK_NCNvXNtCsiK7Gs1zPIjf_14thiserror_impl4attrNtB2v_7DisplayNtNtCs9OU1sGv5X54_5quote9to_tokens8ToTokens9to_tokens0EB2x_, symObjAddr: 0x1DE0, symBinAddr: 0x349E0, symSize: 0x20 }
  - { offset: 0x86A21, size: 0x8, addend: 0x0, symName: __RNvYINtNtNtCsieiGu2EXtoJ_4core5slice4iter4IterNtNtCsiK7Gs1zPIjf_14thiserror_impl3ast5FieldENtNtNtNtB9_4iter6traits8iterator8Iterator9enumerateBM_, symObjAddr: 0x3BA0, symBinAddr: 0x36790, symSize: 0x20 }
  - { offset: 0x86E98, size: 0x8, addend: 0x0, symName: __RNvXs1_NtNtNtCsieiGu2EXtoJ_4core5array4iter10iter_innerINtB5_15PolymorphicIterAINtNtNtBb_3mem12maybe_uninit11MaybeUninitjEj2_ENtNtNtBb_3ops4drop4Drop4dropCsiK7Gs1zPIjf_14thiserror_impl, symObjAddr: 0x26A0, symBinAddr: 0x35290, symSize: 0x30 }
  - { offset: 0x86F63, size: 0x8, addend: 0x0, symName: __RNvNvNtCsieiGu2EXtoJ_4core9ub_checks23maybe_is_nonoverlapping7runtimeCsiK7Gs1zPIjf_14thiserror_impl, symObjAddr: 0x25E0, symBinAddr: 0x351D0, symSize: 0xC0 }
  - { offset: 0x872AF, size: 0x8, addend: 0x0, symName: __RNvXs5_NtNtCscKtU6MdFI5n_10proc_macro6bridge6bufferNtB5_6BufferNtNtNtCsieiGu2EXtoJ_4core3ops4drop4Drop4dropCsiK7Gs1zPIjf_14thiserror_impl, symObjAddr: 0x2ED0, symBinAddr: 0x35AC0, symSize: 0xA0 }
  - { offset: 0x884BE, size: 0x8, addend: 0x0, symName: __RNCNvMs3_NtNtCsHUR1vrdMJt_3std6thread5localINtB7_8LocalKeyINtNtCsieiGu2EXtoJ_4core4cell4CellPuEE7replace0CsiK7Gs1zPIjf_14thiserror_impl, symObjAddr: 0x1E00, symBinAddr: 0x34A00, symSize: 0x20 }
  - { offset: 0x8868C, size: 0x8, addend: 0x0, symName: __RINvMs2_NtNtCsHUR1vrdMJt_3std6thread5localINtB6_8LocalKeyINtNtCsieiGu2EXtoJ_4core4cell4CellPuEE4withNCNvMs3_B6_BE_7replace0B1r_ECsiK7Gs1zPIjf_14thiserror_impl, symObjAddr: 0x0, symBinAddr: 0x32D00, symSize: 0x50 }
  - { offset: 0x88745, size: 0x8, addend: 0x0, symName: __RINvMs2_NtNtCsHUR1vrdMJt_3std6thread5localINtB6_8LocalKeyINtNtCsieiGu2EXtoJ_4core4cell4CellPuEE8try_withNCNvMs3_B6_BE_7replace0B1r_ECsiK7Gs1zPIjf_14thiserror_impl, symObjAddr: 0x50, symBinAddr: 0x32D50, symSize: 0xF0 }
  - { offset: 0x888E5, size: 0x8, addend: 0x0, symName: __RINvMs2_NtNtCsHUR1vrdMJt_3std6thread5localINtB6_8LocalKeyINtNtCsieiGu2EXtoJ_4core4cell4CellTyyEEE4withNCNvMNtNtBa_4hash6randomNtB1H_11RandomState3new0B20_ECsiK7Gs1zPIjf_14thiserror_impl, symObjAddr: 0x140, symBinAddr: 0x32E40, symSize: 0x50 }
  - { offset: 0x8899E, size: 0x8, addend: 0x0, symName: __RINvMs2_NtNtCsHUR1vrdMJt_3std6thread5localINtB6_8LocalKeyINtNtCsieiGu2EXtoJ_4core4cell4CellTyyEEE8try_withNCNvMNtNtBa_4hash6randomNtB1L_11RandomState3new0B24_ECsiK7Gs1zPIjf_14thiserror_impl, symObjAddr: 0x190, symBinAddr: 0x32E90, symSize: 0xF0 }
  - { offset: 0x88B99, size: 0x8, addend: 0x0, symName: __RINvMs3_NtNtCscKtU6MdFI5n_10proc_macro6bridge6bufferNtB6_6Buffer17extend_from_arrayKj4_ECsiK7Gs1zPIjf_14thiserror_impl, symObjAddr: 0x280, symBinAddr: 0x32F80, symSize: 0x1E0 }
  - { offset: 0x88D21, size: 0x8, addend: 0x0, symName: __RINvMs3_NtNtCscKtU6MdFI5n_10proc_macro6bridge6bufferNtB6_6Buffer17extend_from_arrayKj8_ECsiK7Gs1zPIjf_14thiserror_impl, symObjAddr: 0x460, symBinAddr: 0x33160, symSize: 0x1E0 }
  - { offset: 0x891E3, size: 0x8, addend: 0x0, symName: __RINvNtCsdGrGZaRBwMb_3syn5parse12parse_scopedNCNvNtCsiK7Gs1zPIjf_14thiserror_impl4attr21parse_error_attribute0EBM_, symObjAddr: 0x13F0, symBinAddr: 0x340F0, symSize: 0x30 }
  - { offset: 0x8923F, size: 0x8, addend: 0x0, symName: __RNvXsh_NtCsdGrGZaRBwMb_3syn5parseNvYNtCsaKzlTDPUHDb_11proc_macro25IdentNtB5_5Parse5parseNtB5_6Parser6parse2CsiK7Gs1zPIjf_14thiserror_impl, symObjAddr: 0x2FB0, symBinAddr: 0x35BA0, symSize: 0x3F0 }
  - { offset: 0x89350, size: 0x8, addend: 0x0, symName: __RNvXsh_NtCsdGrGZaRBwMb_3syn5parseNvYNtNtB7_4expr4ExprNtB5_5Parse5parseNtB5_6Parser6parse2CsiK7Gs1zPIjf_14thiserror_impl, symObjAddr: 0x33A0, symBinAddr: 0x35F90, symSize: 0x400 }
  - { offset: 0x89461, size: 0x8, addend: 0x0, symName: __RNvXsh_NtCsdGrGZaRBwMb_3syn5parseNvYNtNtB7_6derive11DeriveInputNtB5_5Parse5parseNtB5_6Parser6parse2CsiK7Gs1zPIjf_14thiserror_impl, symObjAddr: 0x37A0, symBinAddr: 0x36390, symSize: 0x400 }
  - { offset: 0x89578, size: 0x8, addend: 0x0, symName: __RNvYNvYNtCsaKzlTDPUHDb_11proc_macro25IdentNtNtCsdGrGZaRBwMb_3syn5parse5Parse5parseNtBG_6Parser9parse_strCsiK7Gs1zPIjf_14thiserror_impl, symObjAddr: 0x3BC0, symBinAddr: 0x367B0, symSize: 0x130 }
  - { offset: 0x895D4, size: 0x8, addend: 0x0, symName: __RNvYNvYNtNtCsdGrGZaRBwMb_3syn6derive11DeriveInputNtNtB9_5parse5Parse5parseNtBN_6Parser5parseCsiK7Gs1zPIjf_14thiserror_impl, symObjAddr: 0x3CF0, symBinAddr: 0x368E0, symSize: 0x70 }
  - { offset: 0x8F9EF, size: 0x8, addend: 0x0, symName: __RINvMs9_NtCsdGrGZaRBwMb_3syn5parseNtB6_11ParseBuffer4stepNCNvNtCsiK7Gs1zPIjf_14thiserror_impl9scan_expr9scan_expr0bEBZ_, symObjAddr: 0x640, symBinAddr: 0x33340, symSize: 0x1F0 }
  - { offset: 0x8FA78, size: 0x8, addend: 0x0, symName: __RINvMs9_NtCsdGrGZaRBwMb_3syn5parseNtB6_11ParseBuffer4stepNCNvNtCsiK7Gs1zPIjf_14thiserror_impl9scan_expr9scan_exprs0_0bEBZ_, symObjAddr: 0x830, symBinAddr: 0x33530, symSize: 0x1E0 }
  - { offset: 0x8FB01, size: 0x8, addend: 0x0, symName: __RINvMs9_NtCsdGrGZaRBwMb_3syn5parseNtB6_11ParseBuffer4stepNCNvNtCsiK7Gs1zPIjf_14thiserror_impl9scan_expr9scan_exprs1_0bEBZ_, symObjAddr: 0xA10, symBinAddr: 0x33710, symSize: 0x1E0 }
  - { offset: 0x8FB8A, size: 0x8, addend: 0x0, symName: __RINvMs9_NtCsdGrGZaRBwMb_3syn5parseNtB6_11ParseBuffer4stepNCNvNtCsiK7Gs1zPIjf_14thiserror_impl9scan_expr9scan_exprs_0bEBZ_, symObjAddr: 0xBF0, symBinAddr: 0x338F0, symSize: 0x200 }
  - { offset: 0x8FC13, size: 0x8, addend: 0x0, symName: __RINvMs9_NtCsdGrGZaRBwMb_3syn5parseNtB6_11ParseBuffer4stepNCNvXs0_NvNtNvNtCsiK7Gs1zPIjf_14thiserror_impl4attr21parse_error_attribute2kw1__NtB13_11transparentNtB6_5Parse5parse0B2b_EB19_, symObjAddr: 0xDF0, symBinAddr: 0x33AF0, symSize: 0x1E0 }
  - { offset: 0x8FC9C, size: 0x8, addend: 0x0, symName: __RINvMs9_NtCsdGrGZaRBwMb_3syn5parseNtB6_11ParseBuffer4stepNCNvXs0_NvNtNvNtCsiK7Gs1zPIjf_14thiserror_impl4attr21parse_error_attribute2kws_1__NtB13_3fmtNtB6_5Parse5parse0B2d_EB19_, symObjAddr: 0xFD0, symBinAddr: 0x33CD0, symSize: 0x1E0 }
  - { offset: 0x8FD25, size: 0x8, addend: 0x0, symName: __RINvMs9_NtCsdGrGZaRBwMb_3syn5parseNtB6_11ParseBuffer5parseINtNtCsieiGu2EXtoJ_4core6option6OptionNtCsaKzlTDPUHDb_11proc_macro29TokenTreeEECsiK7Gs1zPIjf_14thiserror_impl, symObjAddr: 0x11B0, symBinAddr: 0x33EB0, symSize: 0x30 }
  - { offset: 0x8FD51, size: 0x8, addend: 0x0, symName: __RINvMs9_NtCsdGrGZaRBwMb_3syn5parseNtB6_11ParseBuffer5parseNtCsaKzlTDPUHDb_11proc_macro29TokenTreeECsiK7Gs1zPIjf_14thiserror_impl, symObjAddr: 0x11E0, symBinAddr: 0x33EE0, symSize: 0x30 }
  - { offset: 0x8FD7D, size: 0x8, addend: 0x0, symName: __RINvMs9_NtCsdGrGZaRBwMb_3syn5parseNtB6_11ParseBuffer5parseNtNtCsiK7Gs1zPIjf_14thiserror_impl5unraw10IdentUnrawEBY_, symObjAddr: 0x1210, symBinAddr: 0x33F10, symSize: 0x30 }
  - { offset: 0x8FDA9, size: 0x8, addend: 0x0, symName: __RINvMs9_NtCsdGrGZaRBwMb_3syn5parseNtB6_11ParseBuffer5parseNtNtNvNtCsiK7Gs1zPIjf_14thiserror_impl4attr21parse_error_attribute2kw11transparentEB12_, symObjAddr: 0x1240, symBinAddr: 0x33F40, symSize: 0x30 }
  - { offset: 0x8FDD5, size: 0x8, addend: 0x0, symName: __RINvMs9_NtCsdGrGZaRBwMb_3syn5parseNtB6_11ParseBuffer5parseNtNtNvNtCsiK7Gs1zPIjf_14thiserror_impl4attr21parse_error_attribute2kw3fmtEB12_, symObjAddr: 0x1270, symBinAddr: 0x33F70, symSize: 0x30 }
  - { offset: 0x8FE26, size: 0x8, addend: 0x0, symName: __RINvMs9_NtCsdGrGZaRBwMb_3syn5parseNtB6_11ParseBuffer5peek2INvNtB8_5token2EqNtNtB8_9lookahead11TokenMarkerEECsiK7Gs1zPIjf_14thiserror_impl, symObjAddr: 0x12A0, symBinAddr: 0x33FA0, symSize: 0x30 }
  - { offset: 0x8FE86, size: 0x8, addend: 0x0, symName: __RINvMs9_NtCsdGrGZaRBwMb_3syn5parseNtB6_11ParseBuffer5peek2INvNtB8_5token4EqEqNtNtB8_9lookahead11TokenMarkerEECsiK7Gs1zPIjf_14thiserror_impl, symObjAddr: 0x12D0, symBinAddr: 0x33FD0, symSize: 0x30 }
  - { offset: 0x8FEC1, size: 0x8, addend: 0x0, symName: __RINvMs9_NtCsdGrGZaRBwMb_3syn5parseNtB6_11ParseBuffer5peek2NtNtB8_9lookahead3EndECsiK7Gs1zPIjf_14thiserror_impl, symObjAddr: 0x1300, symBinAddr: 0x34000, symSize: 0x30 }
  - { offset: 0x8FEFC, size: 0x8, addend: 0x0, symName: __RINvMs9_NtCsdGrGZaRBwMb_3syn5parseNtB6_11ParseBuffer5peek2NtNtNtB8_3ext7private6PeekFnECsiK7Gs1zPIjf_14thiserror_impl, symObjAddr: 0x1330, symBinAddr: 0x34030, symSize: 0x30 }
  - { offset: 0x8FF5C, size: 0x8, addend: 0x0, symName: __RINvMs9_NtCsdGrGZaRBwMb_3syn5parseNtB6_11ParseBuffer5peek2NvNtB8_3lit6LitIntECsiK7Gs1zPIjf_14thiserror_impl, symObjAddr: 0x1360, symBinAddr: 0x34060, symSize: 0x30 }
  - { offset: 0x8FFBC, size: 0x8, addend: 0x0, symName: __RINvMs9_NtCsdGrGZaRBwMb_3syn5parseNtB6_11ParseBuffer5peek2NvNtB8_3lit8LitFloatECsiK7Gs1zPIjf_14thiserror_impl, symObjAddr: 0x1390, symBinAddr: 0x34090, symSize: 0x30 }
  - { offset: 0x8FFF7, size: 0x8, addend: 0x0, symName: __RINvMs9_NtCsdGrGZaRBwMb_3syn5parseNtB6_11ParseBuffer5peek3INvNtB8_5token4EqEqNtNtB8_9lookahead11TokenMarkerEECsiK7Gs1zPIjf_14thiserror_impl, symObjAddr: 0x13C0, symBinAddr: 0x340C0, symSize: 0x30 }
  - { offset: 0x907FF, size: 0x8, addend: 0x0, symName: __RNvMNtNtNtCsieiGu2EXtoJ_4core4iter8adapters7step_byINtB2_6StepByINtNtNtB8_3ops5range5RangejEE3newCsiK7Gs1zPIjf_14thiserror_impl, symObjAddr: 0x1E20, symBinAddr: 0x34A20, symSize: 0xD0 }
  - { offset: 0x90867, size: 0x8, addend: 0x0, symName: __RNvMs3_NtNtCscKtU6MdFI5n_10proc_macro6bridge6bufferNtB5_6Buffer17extend_from_sliceCsiK7Gs1zPIjf_14thiserror_impl, symObjAddr: 0x1EF0, symBinAddr: 0x34AF0, symSize: 0x1E0 }
  - { offset: 0x909E4, size: 0x8, addend: 0x0, symName: __RNvMs3_NtNtCscKtU6MdFI5n_10proc_macro6bridge6bufferNtB5_6Buffer4pushCsiK7Gs1zPIjf_14thiserror_impl, symObjAddr: 0x20D0, symBinAddr: 0x34CD0, symSize: 0x1A0 }
  - { offset: 0x90B68, size: 0x8, addend: 0x0, symName: __RNvMs4_NtNtCsieiGu2EXtoJ_4core5slice4iterINtB5_4IterNtCsaKzlTDPUHDb_11proc_macro211TokenStreamE3newCsiK7Gs1zPIjf_14thiserror_impl, symObjAddr: 0x2270, symBinAddr: 0x34E70, symSize: 0x50 }
  - { offset: 0x90D2F, size: 0x8, addend: 0x0, symName: __RNvMs4_NtNtCsieiGu2EXtoJ_4core5slice4iterINtB5_4IterNtNtCsiK7Gs1zPIjf_14thiserror_impl3ast5FieldE3newBS_, symObjAddr: 0x22C0, symBinAddr: 0x34EC0, symSize: 0x50 }
  - { offset: 0x90EDC, size: 0x8, addend: 0x0, symName: __RNvMs4_NtNtCsieiGu2EXtoJ_4core5slice4iterINtB5_4IterNtNtCsiK7Gs1zPIjf_14thiserror_impl3ast7VariantE3newBS_, symObjAddr: 0x2310, symBinAddr: 0x34F10, symSize: 0x50 }
  - { offset: 0x910A3, size: 0x8, addend: 0x0, symName: __RNvMs4_NtNtCsieiGu2EXtoJ_4core5slice4iterINtB5_4IterTNtCsaKzlTDPUHDb_11proc_macro211TokenStreamNtNtCsdGrGZaRBwMb_3syn5token4PlusEE3newCsiK7Gs1zPIjf_14thiserror_impl, symObjAddr: 0x2360, symBinAddr: 0x34F60, symSize: 0x50 }
  - { offset: 0x9126A, size: 0x8, addend: 0x0, symName: __RNvMs4_NtNtCsieiGu2EXtoJ_4core5slice4iterINtB5_4IterTNtCsaKzlTDPUHDb_11proc_macro25IdentNtBR_11TokenStreamEE3newCsiK7Gs1zPIjf_14thiserror_impl, symObjAddr: 0x23B0, symBinAddr: 0x34FB0, symSize: 0x50 }
  - { offset: 0x914E3, size: 0x8, addend: 0x0, symName: __RNvMs6_NtNtNtCsieiGu2EXtoJ_4core5array4iter10iter_innerINtB5_15PolymorphicIterSINtNtNtBb_3mem12maybe_uninit11MaybeUninitjEE4nextCsiK7Gs1zPIjf_14thiserror_impl, symObjAddr: 0x2400, symBinAddr: 0x35000, symSize: 0x1D0 }
  - { offset: 0x92055, size: 0x8, addend: 0x0, symName: __RINvNtCsieiGu2EXtoJ_4core9panicking13panic_displayNtNtCsdGrGZaRBwMb_3syn5error5ErrorECsiK7Gs1zPIjf_14thiserror_impl, symObjAddr: 0x0, symBinAddr: 0x36950, symSize: 0xA0 }
  - { offset: 0x920B1, size: 0x8, addend: 0x0, symName: __RNvXsw_NtCslJiobkLta79_5alloc6stringNtCsaKzlTDPUHDb_11proc_macro211TokenStreamNtB5_8ToString9to_stringCsiK7Gs1zPIjf_14thiserror_impl, symObjAddr: 0x4090, symBinAddr: 0x3A9E0, symSize: 0x30 }
  - { offset: 0x920EE, size: 0x8, addend: 0x0, symName: __RNvXsx_NtCslJiobkLta79_5alloc6stringNtCsaKzlTDPUHDb_11proc_macro211TokenStreamNtB5_12SpecToString14spec_to_stringCsiK7Gs1zPIjf_14thiserror_impl, symObjAddr: 0x40C0, symBinAddr: 0x3AA10, symSize: 0x120 }
  - { offset: 0x9355C, size: 0x8, addend: 0x0, symName: __RINvXNvMNtCslJiobkLta79_5alloc5sliceSp9to_vec_inTNtCsaKzlTDPUHDb_11proc_macro25IdentNtBN_11TokenStreamENtB3_10ConvertVec6to_vecNtNtB8_5alloc6GlobalECsiK7Gs1zPIjf_14thiserror_impl, symObjAddr: 0x2450, symBinAddr: 0x38DA0, symSize: 0x490 }
  - { offset: 0x94BB3, size: 0x8, addend: 0x0, symName: __RNvXs7_NtNtCsieiGu2EXtoJ_4core3cmp5implsRNtCsaKzlTDPUHDb_11proc_macro25IdentNtB7_9PartialEq2neCsiK7Gs1zPIjf_14thiserror_impl, symObjAddr: 0x3D50, symBinAddr: 0x3A6A0, symSize: 0x30 }
  - { offset: 0x94C08, size: 0x8, addend: 0x0, symName: __RNvXs8_NtNtCsieiGu2EXtoJ_4core3cmp5implsRNtCsaKzlTDPUHDb_11proc_macro25IdentNtB7_10PartialOrd2ltCsiK7Gs1zPIjf_14thiserror_impl, symObjAddr: 0x3D80, symBinAddr: 0x3A6D0, symSize: 0x30 }
  - { offset: 0x94C5E, size: 0x8, addend: 0x0, symName: __RNvYNtCsaKzlTDPUHDb_11proc_macro25IdentINtNtCsieiGu2EXtoJ_4core3cmp9PartialEqReE2neCsiK7Gs1zPIjf_14thiserror_impl, symObjAddr: 0x4270, symBinAddr: 0x3ABC0, symSize: 0x20 }
  - { offset: 0x94CAD, size: 0x8, addend: 0x0, symName: __RNvYNtCsaKzlTDPUHDb_11proc_macro25IdentNtNtCsieiGu2EXtoJ_4core3cmp9PartialEq2neCsiK7Gs1zPIjf_14thiserror_impl, symObjAddr: 0x43D0, symBinAddr: 0x3AD20, symSize: 0x20 }
  - { offset: 0x94D02, size: 0x8, addend: 0x0, symName: __RNvYNtCsaKzlTDPUHDb_11proc_macro25IdentNtNtCsieiGu2EXtoJ_4core3cmp10PartialOrd2ltCsiK7Gs1zPIjf_14thiserror_impl, symObjAddr: 0x4380, symBinAddr: 0x3ACD0, symSize: 0x50 }
  - { offset: 0x9774D, size: 0x8, addend: 0x0, symName: __RINvNtCsieiGu2EXtoJ_4core9panicking13panic_displayNtNtCsdGrGZaRBwMb_3syn5error5ErrorECsiK7Gs1zPIjf_14thiserror_impl, symObjAddr: 0x0, symBinAddr: 0x36950, symSize: 0xA0 }
  - { offset: 0x977DF, size: 0x8, addend: 0x0, symName: __RINvNtNtCsieiGu2EXtoJ_4core4iter8adapters11try_processINtNtB2_3map3MapINtNtB2_9enumerate9EnumerateINtNtCsdGrGZaRBwMb_3syn10punctuated4IterNtNtB1D_4data5FieldEENCNvMs2_NtCsiK7Gs1zPIjf_14thiserror_impl3astNtB2F_5Field17multiple_from_syn0EB3f_INtNtB6_6result6ResultNtNtB6_7convert10InfallibleNtNtB1D_5error5ErrorENCINvXso_B3T_IB3R_INtNtCslJiobkLta79_5alloc3vec3VecB3f_EB4D_EINtNtNtB4_6traits7collect12FromIteratorIB3R_B3f_B4D_EE9from_iterBQ_E0B5g_EB2H_, symObjAddr: 0xA0, symBinAddr: 0x369F0, symSize: 0x200 }
  - { offset: 0x978A8, size: 0x8, addend: 0x0, symName: __RINvNtNtCsieiGu2EXtoJ_4core4iter8adapters11try_processINtNtB2_3map3MapINtNtCsdGrGZaRBwMb_3syn10punctuated4IterNtNtB1b_4data7VariantENCNvMs0_NtCsiK7Gs1zPIjf_14thiserror_impl3astNtB2e_4Enum8from_syn0ENtB2e_7VariantINtNtB6_6result6ResultNtNtB6_7convert10InfallibleNtNtB1b_5error5ErrorENCINvXso_B3r_IB3p_INtNtCslJiobkLta79_5alloc3vec3VecB3a_EB4b_EINtNtNtB4_6traits7collect12FromIteratorIB3p_B3a_B4b_EE9from_iterBQ_E0B4O_EB2g_, symObjAddr: 0x2A0, symBinAddr: 0x36BF0, symSize: 0x230 }
  - { offset: 0x97976, size: 0x8, addend: 0x0, symName: __RINvXNtNtCsieiGu2EXtoJ_4core4iter8adaptersINtB3_12GenericShuntINtNtB3_3map3MapINtNtB3_9enumerate9EnumerateINtNtCsdGrGZaRBwMb_3syn10punctuated4IterNtNtB1L_4data5FieldEENCNvMs2_NtCsiK7Gs1zPIjf_14thiserror_impl3astNtB2N_5Field17multiple_from_syn0EINtNtB7_6result6ResultNtNtB7_7convert10InfallibleNtNtB1L_5error5ErrorEENtNtNtB5_6traits8iterator8Iterator8try_folduNCINvNvB53_12try_for_each4callB3n_INtNtNtB7_3ops12control_flow11ControlFlowB3n_ENcNtB6j_5Break0E0B6j_EB2P_, symObjAddr: 0x22B0, symBinAddr: 0x38C00, symSize: 0xD0 }
  - { offset: 0x97A3F, size: 0x8, addend: 0x0, symName: __RINvXNtNtCsieiGu2EXtoJ_4core4iter8adaptersINtB3_12GenericShuntINtNtB3_3map3MapINtNtCsdGrGZaRBwMb_3syn10punctuated4IterNtNtB1j_4data7VariantENCNvMs0_NtCsiK7Gs1zPIjf_14thiserror_impl3astNtB2m_4Enum8from_syn0EINtNtB7_6result6ResultNtNtB7_7convert10InfallibleNtNtB1j_5error5ErrorEENtNtNtB5_6traits8iterator8Iterator8try_folduNCINvNvB4r_12try_for_each4callNtB2m_7VariantINtNtNtB7_3ops12control_flow11ControlFlowB5D_ENcNtB5R_5Break0E0B5R_EB2o_, symObjAddr: 0x2380, symBinAddr: 0x38CD0, symSize: 0xD0 }
  - { offset: 0x97B0D, size: 0x8, addend: 0x0, symName: __RNCINvXNtNtCsieiGu2EXtoJ_4core4iter8adaptersINtB5_12GenericShuntINtNtB5_3map3MapINtNtB5_9enumerate9EnumerateINtNtCsdGrGZaRBwMb_3syn10punctuated4IterNtNtB1N_4data5FieldEENCNvMs2_NtCsiK7Gs1zPIjf_14thiserror_impl3astNtB2P_5Field17multiple_from_syn0EINtNtB9_6result6ResultNtNtB9_7convert10InfallibleNtNtB1N_5error5ErrorEENtNtNtB7_6traits8iterator8Iterator8try_folduNCINvNvB55_12try_for_each4callB3p_INtNtNtB9_3ops12control_flow11ControlFlowB3p_ENcNtB6l_5Break0E0B6l_E0B2R_, symObjAddr: 0x2CB0, symBinAddr: 0x39600, symSize: 0x2D0 }
  - { offset: 0x97C09, size: 0x8, addend: 0x0, symName: __RNCINvXNtNtCsieiGu2EXtoJ_4core4iter8adaptersINtB5_12GenericShuntINtNtB5_3map3MapINtNtCsdGrGZaRBwMb_3syn10punctuated4IterNtNtB1l_4data7VariantENCNvMs0_NtCsiK7Gs1zPIjf_14thiserror_impl3astNtB2o_4Enum8from_syn0EINtNtB9_6result6ResultNtNtB9_7convert10InfallibleNtNtB1l_5error5ErrorEENtNtNtB7_6traits8iterator8Iterator8try_folduNCINvNvB4t_12try_for_each4callNtB2o_7VariantINtNtNtB9_3ops12control_flow11ControlFlowB5F_ENcNtB5T_5Break0E0B5T_E0B2q_, symObjAddr: 0x2F80, symBinAddr: 0x398D0, symSize: 0x2D0 }
  - { offset: 0x97D06, size: 0x8, addend: 0x0, symName: __RNvXNtNtCsieiGu2EXtoJ_4core4iter8adaptersINtB2_12GenericShuntINtNtB2_3map3MapINtNtB2_9enumerate9EnumerateINtNtCsdGrGZaRBwMb_3syn10punctuated4IterNtNtB1K_4data5FieldEENCNvMs2_NtCsiK7Gs1zPIjf_14thiserror_impl3astNtB2M_5Field17multiple_from_syn0EINtNtB6_6result6ResultNtNtB6_7convert10InfallibleNtNtB1K_5error5ErrorEENtNtNtB4_6traits8iterator8Iterator4nextB2O_, symObjAddr: 0x3770, symBinAddr: 0x3A0C0, symSize: 0xE0 }
  - { offset: 0x97D9A, size: 0x8, addend: 0x0, symName: __RNvXNtNtCsieiGu2EXtoJ_4core4iter8adaptersINtB2_12GenericShuntINtNtB2_3map3MapINtNtB2_9enumerate9EnumerateINtNtCsdGrGZaRBwMb_3syn10punctuated4IterNtNtB1K_4data5FieldEENCNvMs2_NtCsiK7Gs1zPIjf_14thiserror_impl3astNtB2M_5Field17multiple_from_syn0EINtNtB6_6result6ResultNtNtB6_7convert10InfallibleNtNtB1K_5error5ErrorEENtNtNtB4_6traits8iterator8Iterator9size_hintB2O_, symObjAddr: 0x3850, symBinAddr: 0x3A1A0, symSize: 0xA0 }
  - { offset: 0x97E12, size: 0x8, addend: 0x0, symName: __RNvXNtNtCsieiGu2EXtoJ_4core4iter8adaptersINtB2_12GenericShuntINtNtB2_3map3MapINtNtCsdGrGZaRBwMb_3syn10punctuated4IterNtNtB1i_4data7VariantENCNvMs0_NtCsiK7Gs1zPIjf_14thiserror_impl3astNtB2l_4Enum8from_syn0EINtNtB6_6result6ResultNtNtB6_7convert10InfallibleNtNtB1i_5error5ErrorEENtNtNtB4_6traits8iterator8Iterator4nextB2n_, symObjAddr: 0x38F0, symBinAddr: 0x3A240, symSize: 0xE0 }
  - { offset: 0x97EA6, size: 0x8, addend: 0x0, symName: __RNvXNtNtCsieiGu2EXtoJ_4core4iter8adaptersINtB2_12GenericShuntINtNtB2_3map3MapINtNtCsdGrGZaRBwMb_3syn10punctuated4IterNtNtB1i_4data7VariantENCNvMs0_NtCsiK7Gs1zPIjf_14thiserror_impl3astNtB2l_4Enum8from_syn0EINtNtB6_6result6ResultNtNtB6_7convert10InfallibleNtNtB1i_5error5ErrorEENtNtNtB4_6traits8iterator8Iterator9size_hintB2n_, symObjAddr: 0x39D0, symBinAddr: 0x3A320, symSize: 0xA0 }
  - { offset: 0x980F1, size: 0x8, addend: 0x0, symName: __RNvXsh_NtNtNtCsieiGu2EXtoJ_4core4iter8adapters7step_byINtNtNtBb_3ops5range5RangejEINtB5_14SpecRangeSetupBQ_E5setupCsiK7Gs1zPIjf_14thiserror_impl, symObjAddr: 0x3F30, symBinAddr: 0x3A880, symSize: 0x160 }
  - { offset: 0x98325, size: 0x8, addend: 0x0, symName: __RNvXs3_NtNtCsieiGu2EXtoJ_4core4iter5rangeINtNtNtB9_3ops5range5RangejENtB5_17RangeIteratorImpl9spec_nextCsiK7Gs1zPIjf_14thiserror_impl, symObjAddr: 0x3BB0, symBinAddr: 0x3A500, symSize: 0x80 }
  - { offset: 0x983F4, size: 0x8, addend: 0x0, symName: __RNvXs4_NtNtCsieiGu2EXtoJ_4core4iter5rangeINtNtNtB9_3ops5range5RangejENtNtNtB7_6traits8iterator8Iterator4nextCsiK7Gs1zPIjf_14thiserror_impl, symObjAddr: 0x3C30, symBinAddr: 0x3A580, symSize: 0x20 }
  - { offset: 0x98458, size: 0x8, addend: 0x0, symName: __RNvXsc_NtNtCsieiGu2EXtoJ_4core4iter5rangeINtNtNtB9_3ops5range14RangeInclusivejENtB5_26RangeInclusiveIteratorImpl9spec_nextCsiK7Gs1zPIjf_14thiserror_impl, symObjAddr: 0x3E40, symBinAddr: 0x3A790, symSize: 0xD0 }
  - { offset: 0x98559, size: 0x8, addend: 0x0, symName: __RNvXsd_NtNtCsieiGu2EXtoJ_4core4iter5rangeINtNtNtB9_3ops5range14RangeInclusivejENtNtNtB7_6traits8iterator8Iterator4nextCsiK7Gs1zPIjf_14thiserror_impl, symObjAddr: 0x3F10, symBinAddr: 0x3A860, symSize: 0x20 }
  - { offset: 0x985FB, size: 0x8, addend: 0x0, symName: __RINvYINtNtNtCsieiGu2EXtoJ_4core4iter8adapters12GenericShuntINtNtB6_3map3MapINtNtB6_9enumerate9EnumerateINtNtCsdGrGZaRBwMb_3syn10punctuated4IterNtNtB1I_4data5FieldEENCNvMs2_NtCsiK7Gs1zPIjf_14thiserror_impl3astNtB2K_5Field17multiple_from_syn0EINtNtBa_6result6ResultNtNtBa_7convert10InfallibleNtNtB1I_5error5ErrorEENtNtNtB8_6traits8iterator8Iterator7collectINtNtCslJiobkLta79_5alloc3vec3VecB3k_EEB2M_, symObjAddr: 0x29D0, symBinAddr: 0x39320, symSize: 0x80 }
  - { offset: 0x98691, size: 0x8, addend: 0x0, symName: __RINvYINtNtNtCsieiGu2EXtoJ_4core4iter8adapters12GenericShuntINtNtB6_3map3MapINtNtCsdGrGZaRBwMb_3syn10punctuated4IterNtNtB1g_4data7VariantENCNvMs0_NtCsiK7Gs1zPIjf_14thiserror_impl3astNtB2j_4Enum8from_syn0EINtNtBa_6result6ResultNtNtBa_7convert10InfallibleNtNtB1g_5error5ErrorEENtNtNtB8_6traits8iterator8Iterator7collectINtNtCslJiobkLta79_5alloc3vec3VecNtB2j_7VariantEEB2l_, symObjAddr: 0x2A50, symBinAddr: 0x393A0, symSize: 0x90 }
  - { offset: 0x98731, size: 0x8, addend: 0x0, symName: __RNCINvNvNtNtNtNtCsieiGu2EXtoJ_4core4iter6traits8iterator8Iterator12try_for_each4callNtNtCsiK7Gs1zPIjf_14thiserror_impl3ast5FieldINtNtNtBe_3ops12control_flow11ControlFlowB1k_ENcNtB22_5Break0E0B1o_, symObjAddr: 0x2AE0, symBinAddr: 0x39430, symSize: 0x70 }
  - { offset: 0x98797, size: 0x8, addend: 0x0, symName: __RNCINvNvNtNtNtNtCsieiGu2EXtoJ_4core4iter6traits8iterator8Iterator12try_for_each4callNtNtCsiK7Gs1zPIjf_14thiserror_impl3ast7VariantINtNtNtBe_3ops12control_flow11ControlFlowB1k_ENcNtB24_5Break0E0B1o_, symObjAddr: 0x2B50, symBinAddr: 0x394A0, symSize: 0x70 }
  - { offset: 0x9882F, size: 0x8, addend: 0x0, symName: __RNCINvNvNtNtNtNtCsieiGu2EXtoJ_4core4iter6traits8iterator8Iterator8for_each4callNtCsaKzlTDPUHDb_11proc_macro211TokenStreamNCINvMsi_NtCslJiobkLta79_5alloc3vecINtB24_3VecB1f_E14extend_trustedINtNtNtBc_8adapters3map3MapINtNtNtBe_5slice4iter4IterNtNtCsiK7Gs1zPIjf_14thiserror_impl3ast7VariantENCNvNtB3V_6expand9impl_enums1_0EE0E0B3V_, symObjAddr: 0x2BC0, symBinAddr: 0x39510, symSize: 0x40 }
  - { offset: 0x98888, size: 0x8, addend: 0x0, symName: __RNCINvNvNtNtNtNtCsieiGu2EXtoJ_4core4iter6traits8iterator8Iterator8for_each4callNtCsaKzlTDPUHDb_11proc_macro29TokenTreeNCINvXsa_NtB1h_8fallbackNtB21_11TokenStreamINtNtBa_7collect6ExtendB1f_E6extendINtNtNtCslJiobkLta79_5alloc3vec9into_iter8IntoIterB1f_EE0E0CsiK7Gs1zPIjf_14thiserror_impl, symObjAddr: 0x2C00, symBinAddr: 0x39550, symSize: 0x40 }
  - { offset: 0x988E1, size: 0x8, addend: 0x0, symName: __RNCINvNvNtNtNtNtCsieiGu2EXtoJ_4core4iter6traits8iterator8Iterator8for_each4callNtCsaKzlTDPUHDb_11proc_macro29TokenTreeNCINvXsa_NtB1h_8fallbackNtB21_11TokenStreamINtNtBa_7collect6ExtendB1f_E6extendNtB1h_11TokenStreamE0E0CsiK7Gs1zPIjf_14thiserror_impl, symObjAddr: 0x2C40, symBinAddr: 0x39590, symSize: 0x40 }
  - { offset: 0x9893A, size: 0x8, addend: 0x0, symName: __RNCINvNvNtNtNtNtCsieiGu2EXtoJ_4core4iter6traits8iterator8Iterator8for_each4callNtCscKtU6MdFI5n_10proc_macro9TokenTreeNCINvXsg_B1h_NtB1h_11TokenStreamINtNtBa_7collect12FromIteratorB1f_E9from_iterINtNtNtBc_8adapters3map3MapINtNtNtCslJiobkLta79_5alloc3vec9into_iter8IntoIterNtCsaKzlTDPUHDb_11proc_macro29TokenTreeENvNtB4n_3imp19into_compiler_tokenEE0E0CsiK7Gs1zPIjf_14thiserror_impl, symObjAddr: 0x2C80, symBinAddr: 0x395D0, symSize: 0x30 }
  - { offset: 0x989A4, size: 0x8, addend: 0x0, symName: __RNCNvXs_NvNtNtNtNtCsieiGu2EXtoJ_4core4iter6traits8iterator8Iterator10advance_byINtNtCsdGrGZaRBwMb_3syn10punctuated11PrivateIterNtNtB1k_4data7VariantNtNtB1k_5token5CommaENtB6_13SpecAdvanceBy15spec_advance_by0CsiK7Gs1zPIjf_14thiserror_impl, symObjAddr: 0x3250, symBinAddr: 0x39BA0, symSize: 0x20 }
  - { offset: 0x989F1, size: 0x8, addend: 0x0, symName: __RNCNvXs_NvNtNtNtNtCsieiGu2EXtoJ_4core4iter6traits8iterator8Iterator10advance_byINtNtCsdGrGZaRBwMb_3syn10punctuated11PrivateIterNtNtB1k_4path15GenericArgumentNtNtB1k_5token5CommaENtB6_13SpecAdvanceBy15spec_advance_by0CsiK7Gs1zPIjf_14thiserror_impl, symObjAddr: 0x3270, symBinAddr: 0x39BC0, symSize: 0x20 }
  - { offset: 0x98AE7, size: 0x8, addend: 0x0, symName: __RNvXNtNtNtCsieiGu2EXtoJ_4core4iter6traits7collectINtNtB6_8adapters12GenericShuntINtNtBO_3map3MapINtNtBO_9enumerate9EnumerateINtNtCsdGrGZaRBwMb_3syn10punctuated4IterNtNtB23_4data5FieldEENCNvMs2_NtCsiK7Gs1zPIjf_14thiserror_impl3astNtB35_5Field17multiple_from_syn0EINtNtB8_6result6ResultNtNtB8_7convert10InfallibleNtNtB23_5error5ErrorEENtB2_12IntoIterator9into_iterB37_, symObjAddr: 0x3A70, symBinAddr: 0x3A3C0, symSize: 0x30 }
  - { offset: 0x98B1F, size: 0x8, addend: 0x0, symName: __RNvXNtNtNtCsieiGu2EXtoJ_4core4iter6traits7collectINtNtB6_8adapters12GenericShuntINtNtBO_3map3MapINtNtCsdGrGZaRBwMb_3syn10punctuated4IterNtNtB1B_4data7VariantENCNvMs0_NtCsiK7Gs1zPIjf_14thiserror_impl3astNtB2E_4Enum8from_syn0EINtNtB8_6result6ResultNtNtB8_7convert10InfallibleNtNtB1B_5error5ErrorEENtB2_12IntoIterator9into_iterB2G_, symObjAddr: 0x3AA0, symBinAddr: 0x3A3F0, symSize: 0x30 }
  - { offset: 0x98FDC, size: 0x8, addend: 0x0, symName: __RINvNtNtNtNtCsieiGu2EXtoJ_4core5slice4sort6shared9smallsort11insert_tailRNtCsaKzlTDPUHDb_11proc_macro25IdentNvYB18_NtNtBa_3cmp10PartialOrd2ltECsiK7Gs1zPIjf_14thiserror_impl, symObjAddr: 0x4D0, symBinAddr: 0x36E20, symSize: 0x1E0 }
  - { offset: 0x99136, size: 0x8, addend: 0x0, symName: __RINvNtNtNtNtCsieiGu2EXtoJ_4core5slice4sort6shared9smallsort12sort4_stableRNtCsaKzlTDPUHDb_11proc_macro25IdentNvYB19_NtNtBa_3cmp10PartialOrd2ltECsiK7Gs1zPIjf_14thiserror_impl, symObjAddr: 0x6B0, symBinAddr: 0x37000, symSize: 0xBF0 }
  - { offset: 0x9A41B, size: 0x8, addend: 0x0, symName: __RINvNtNtNtNtCsieiGu2EXtoJ_4core5slice4sort6shared9smallsort12sort8_stableRNtCsaKzlTDPUHDb_11proc_macro25IdentNvYB19_NtNtBa_3cmp10PartialOrd2ltECsiK7Gs1zPIjf_14thiserror_impl, symObjAddr: 0x12A0, symBinAddr: 0x37BF0, symSize: 0xA0 }
  - { offset: 0x9A5CA, size: 0x8, addend: 0x0, symName: __RINvNtNtNtNtCsieiGu2EXtoJ_4core5slice4sort6shared9smallsort19bidirectional_mergeRNtCsaKzlTDPUHDb_11proc_macro25IdentNvYB1g_NtNtBa_3cmp10PartialOrd2ltECsiK7Gs1zPIjf_14thiserror_impl, symObjAddr: 0x1340, symBinAddr: 0x37C90, symSize: 0x700 }
  - { offset: 0x9AC90, size: 0x8, addend: 0x0, symName: __RINvNtNtNtNtCsieiGu2EXtoJ_4core5slice4sort6shared9smallsort25insertion_sort_shift_leftRNtCsaKzlTDPUHDb_11proc_macro25IdentNvYB1m_NtNtBa_3cmp10PartialOrd2ltECsiK7Gs1zPIjf_14thiserror_impl, symObjAddr: 0x1A40, symBinAddr: 0x38390, symSize: 0xB0 }
  - { offset: 0x9ADCD, size: 0x8, addend: 0x0, symName: __RINvNtNtNtNtCsieiGu2EXtoJ_4core5slice4sort6shared9smallsort31small_sort_general_with_scratchRNtCsaKzlTDPUHDb_11proc_macro25IdentNvYB1s_NtNtBa_3cmp10PartialOrd2ltECsiK7Gs1zPIjf_14thiserror_impl, symObjAddr: 0x1AF0, symBinAddr: 0x38440, symSize: 0x6E0 }
  - { offset: 0x9B2AC, size: 0x8, addend: 0x0, symName: __RNvXs5_NtNtNtNtCsieiGu2EXtoJ_4core5slice4sort6shared9smallsortINtB5_10CopyOnDropRNtCsaKzlTDPUHDb_11proc_macro25IdentENtNtNtBd_3ops4drop4Drop4dropCsiK7Gs1zPIjf_14thiserror_impl, symObjAddr: 0x3CE0, symBinAddr: 0x3A630, symSize: 0x70 }
  - { offset: 0x9B355, size: 0x8, addend: 0x0, symName: __RNvXs0_NtNtNtNtCsieiGu2EXtoJ_4core5slice4sort6stable9quicksortRNtCsaKzlTDPUHDb_11proc_macro25IdentNtB5_8IsFreeze9is_freezeCsiK7Gs1zPIjf_14thiserror_impl, symObjAddr: 0x3AE0, symBinAddr: 0x3A430, symSize: 0x10 }
  - { offset: 0x9B421, size: 0x8, addend: 0x0, symName: __RNvMNtCsieiGu2EXtoJ_4core5sliceSNtCsaKzlTDPUHDb_11proc_macro211TokenStream4iterCsiK7Gs1zPIjf_14thiserror_impl, symObjAddr: 0x3290, symBinAddr: 0x39BE0, symSize: 0x20 }
  - { offset: 0x9B47F, size: 0x8, addend: 0x0, symName: __RNvMNtCsieiGu2EXtoJ_4core5sliceSRNtCsaKzlTDPUHDb_11proc_macro25Ident22split_at_mut_uncheckedCsiK7Gs1zPIjf_14thiserror_impl, symObjAddr: 0x32B0, symBinAddr: 0x39C00, symSize: 0x110 }
  - { offset: 0x9B621, size: 0x8, addend: 0x0, symName: __RNvMNtCsieiGu2EXtoJ_4core5sliceSRNtCsaKzlTDPUHDb_11proc_macro25Ident7reverseCsiK7Gs1zPIjf_14thiserror_impl, symObjAddr: 0x33C0, symBinAddr: 0x39D10, symSize: 0x100 }
  - { offset: 0x9B7D6, size: 0x8, addend: 0x0, symName: __RNvMNtCsieiGu2EXtoJ_4core5sliceSTNtCsaKzlTDPUHDb_11proc_macro211TokenStreamNtNtCsdGrGZaRBwMb_3syn5token4PlusE4iterCsiK7Gs1zPIjf_14thiserror_impl, symObjAddr: 0x34C0, symBinAddr: 0x39E10, symSize: 0x20 }
  - { offset: 0x9B80D, size: 0x8, addend: 0x0, symName: __RNvMNtCsieiGu2EXtoJ_4core5sliceSTNtCsaKzlTDPUHDb_11proc_macro25IdentNtBx_11TokenStreamE4iterCsiK7Gs1zPIjf_14thiserror_impl, symObjAddr: 0x34E0, symBinAddr: 0x39E30, symSize: 0x20 }
  - { offset: 0x9BA94, size: 0x8, addend: 0x0, symName: __RNvXs5_NtNtCsieiGu2EXtoJ_4core5slice5indexINtNtNtB9_3ops5range9RangeFromjEINtB5_10SliceIndexSRNtCsaKzlTDPUHDb_11proc_macro25IdentE9index_mutCsiK7Gs1zPIjf_14thiserror_impl, symObjAddr: 0x3C50, symBinAddr: 0x3A5A0, symSize: 0x90 }
  - { offset: 0x9C2A9, size: 0x8, addend: 0x0, symName: __RNvXs1_NtCsieiGu2EXtoJ_4core7convertNtCsaKzlTDPUHDb_11proc_macro211TokenStreamINtB5_4IntoNtCscKtU6MdFI5n_10proc_macro11TokenStreamE4intoCsiK7Gs1zPIjf_14thiserror_impl, symObjAddr: 0x3BA0, symBinAddr: 0x3A4F0, symSize: 0x10 }
  - { offset: 0x9C335, size: 0x8, addend: 0x0, symName: __RNvNtNtCsieiGu2EXtoJ_4core4char7methods25encode_utf8_raw_uncheckedCsiK7Gs1zPIjf_14thiserror_impl, symObjAddr: 0x35D0, symBinAddr: 0x39F20, symSize: 0x140 }
  - { offset: 0x9C4E5, size: 0x8, addend: 0x0, symName: __RNvXs0_NtCsieiGu2EXtoJ_4core6borrowRNtCsaKzlTDPUHDb_11proc_macro25IdentINtB5_6BorrowBy_E6borrowCsiK7Gs1zPIjf_14thiserror_impl, symObjAddr: 0x3AD0, symBinAddr: 0x3A420, symSize: 0x10 }
  - { offset: 0x9C700, size: 0x8, addend: 0x0, symName: __RINvNvNtNtCscKtU6MdFI5n_10proc_macro6bridge14selfless_reify31reify_to_extern_c_fn_hrt_bridge7wrapperNtNtB6_6buffer6BufferNCINvMs6_NtB6_6clientINtB24_6ClientNtB8_11TokenStreamB2u_E7expand1NvCsiK7Gs1zPIjf_14thiserror_impl12derive_errorE0EB31_, symObjAddr: 0x21D0, symBinAddr: 0x38B20, symSize: 0xA0 }
  - { offset: 0x9D24F, size: 0x8, addend: 0x0, symName: __RINvXs4_CsaKzlTDPUHDb_11proc_macro2NtB6_11TokenStreamINtNtNtNtCsieiGu2EXtoJ_4core4iter6traits7collect6ExtendNtB6_9TokenTreeE6extendBx_ECsiK7Gs1zPIjf_14thiserror_impl, symObjAddr: 0x28E0, symBinAddr: 0x39230, symSize: 0x20 }
  - { offset: 0x9D298, size: 0x8, addend: 0x0, symName: __RINvXsD_CsaKzlTDPUHDb_11proc_macro2NtB6_5IdentNtNtCsieiGu2EXtoJ_4core4hash4Hash4hashNtNtNtCsHUR1vrdMJt_3std4hash6random13DefaultHasherECsiK7Gs1zPIjf_14thiserror_impl, symObjAddr: 0x2900, symBinAddr: 0x39250, symSize: 0x80 }
  - { offset: 0x9D2E0, size: 0x8, addend: 0x0, symName: __RINvXsa_CsaKzlTDPUHDb_11proc_macro2NtB6_11TokenStreamINtNtNtNtCsieiGu2EXtoJ_4core4iter6traits7collect12FromIteratorNtB6_9TokenTreeE9from_iterINtNtCslJiobkLta79_5alloc3vec3VecB1P_EECsiK7Gs1zPIjf_14thiserror_impl, symObjAddr: 0x2980, symBinAddr: 0x392D0, symSize: 0x50 }
  - { offset: 0x9D31E, size: 0x8, addend: 0x0, symName: __RNvXs11_CsaKzlTDPUHDb_11proc_macro2NtB6_7SpacingNtNtCsieiGu2EXtoJ_4core3cmp9PartialEq2eqCsiK7Gs1zPIjf_14thiserror_impl, symObjAddr: 0x3AF0, symBinAddr: 0x3A440, symSize: 0x30 }
  - { offset: 0x9D39D, size: 0x8, addend: 0x0, symName: __RNvXs12_CsaKzlTDPUHDb_11proc_macro2NtB6_5IdentNtNtCsieiGu2EXtoJ_4core5clone5Clone5cloneCsiK7Gs1zPIjf_14thiserror_impl, symObjAddr: 0x3B20, symBinAddr: 0x3A470, symSize: 0x80 }
  - { offset: 0x9D3D1, size: 0x8, addend: 0x0, symName: __RNvXsK_CsaKzlTDPUHDb_11proc_macro2NtB5_11TokenStreamNtNtCsieiGu2EXtoJ_4core5clone5Clone5cloneCsiK7Gs1zPIjf_14thiserror_impl, symObjAddr: 0x3DB0, symBinAddr: 0x3A700, symSize: 0x90 }
  - { offset: 0xA2972, size: 0x8, addend: 0x0, symName: __RINvXNtCs9OU1sGv5X54_5quote3extNtCsaKzlTDPUHDb_11proc_macro211TokenStreamNtB3_14TokenStreamExt10append_allINtNtCsdGrGZaRBwMb_3syn10punctuated5PairsBt_NtNtB1L_5token4PlusEECsiK7Gs1zPIjf_14thiserror_impl, symObjAddr: 0x2270, symBinAddr: 0x38BC0, symSize: 0x40 }
  - { offset: 0xA29BE, size: 0x8, addend: 0x0, symName: __RNvXNtCs9OU1sGv5X54_5quote9to_tokensRNtCsaKzlTDPUHDb_11proc_macro211TokenStreamNtB2_8ToTokens9to_tokensCsiK7Gs1zPIjf_14thiserror_impl, symObjAddr: 0x3710, symBinAddr: 0x3A060, symSize: 0x30 }
  - { offset: 0xA29FD, size: 0x8, addend: 0x0, symName: __RNvXNtCs9OU1sGv5X54_5quote9to_tokensRNtCsaKzlTDPUHDb_11proc_macro25IdentNtB2_8ToTokens9to_tokensCsiK7Gs1zPIjf_14thiserror_impl, symObjAddr: 0x3740, symBinAddr: 0x3A090, symSize: 0x30 }
  - { offset: 0xA2A42, size: 0x8, addend: 0x0, symName: __RNvYNtCsaKzlTDPUHDb_11proc_macro211TokenStreamNtNtCs9OU1sGv5X54_5quote9to_tokens8ToTokens15to_token_streamCsiK7Gs1zPIjf_14thiserror_impl, symObjAddr: 0x41E0, symBinAddr: 0x3AB30, symSize: 0x90 }
  - { offset: 0xA2A8C, size: 0x8, addend: 0x0, symName: __RNvYNtCsaKzlTDPUHDb_11proc_macro25IdentNtNtCs9OU1sGv5X54_5quote9to_tokens8ToTokens15to_token_streamCsiK7Gs1zPIjf_14thiserror_impl, symObjAddr: 0x4290, symBinAddr: 0x3ABE0, symSize: 0x90 }
  - { offset: 0xA2AD6, size: 0x8, addend: 0x0, symName: __RNvYNtCsaKzlTDPUHDb_11proc_macro25IdentNtNtCs9OU1sGv5X54_5quote9to_tokens8ToTokens17into_token_streamCsiK7Gs1zPIjf_14thiserror_impl, symObjAddr: 0x4320, symBinAddr: 0x3AC70, symSize: 0x60 }
  - { offset: 0xA2B0C, size: 0x8, addend: 0x0, symName: __RNvYRNtCsaKzlTDPUHDb_11proc_macro211TokenStreamNtNtCs9OU1sGv5X54_5quote9to_tokens8ToTokens15to_token_streamCsiK7Gs1zPIjf_14thiserror_impl, symObjAddr: 0x43F0, symBinAddr: 0x3AD40, symSize: 0x90 }
  - { offset: 0xA2B56, size: 0x8, addend: 0x0, symName: __RNvYRNtCsaKzlTDPUHDb_11proc_macro211TokenStreamNtNtCs9OU1sGv5X54_5quote9to_tokens8ToTokens17into_token_streamCsiK7Gs1zPIjf_14thiserror_impl, symObjAddr: 0x4480, symBinAddr: 0x3ADD0, symSize: 0x50 }
  - { offset: 0xA36EE, size: 0x8, addend: 0x0, symName: __RNvMNtNtNtCsjK30CmJ87bX_9hashbrown7control5group4sse2NtB2_5Group44convert_special_to_empty_and_full_to_deletedCsiK7Gs1zPIjf_14thiserror_impl, symObjAddr: 0x3500, symBinAddr: 0x39E50, symSize: 0xD0 }
  - { offset: 0xA3CFB, size: 0x8, addend: 0x0, symName: __RINvMNtCsdGrGZaRBwMb_3syn9lookaheadNtB3_10Lookahead14peekINvNtNvNtCsiK7Gs1zPIjf_14thiserror_impl4attr21parse_error_attribute2kw11transparentNtB3_11TokenMarkerEEB12_, symObjAddr: 0x0, symBinAddr: 0x3AE20, symSize: 0x30 }
  - { offset: 0xA422F, size: 0x8, addend: 0x0, symName: __RINvXsg_CscKtU6MdFI5n_10proc_macroNtB6_11TokenStreamINtNtNtNtCsieiGu2EXtoJ_4core4iter6traits7collect12FromIteratorNtB6_9TokenTreeE9from_iterINtNtNtBV_8adapters3map3MapINtNtNtCslJiobkLta79_5alloc3vec9into_iter8IntoIterNtCsaKzlTDPUHDb_11proc_macro29TokenTreeENvNtB3v_3imp19into_compiler_tokenEECsiK7Gs1zPIjf_14thiserror_impl, symObjAddr: 0x2300, symBinAddr: 0x3D120, symSize: 0x130 }
  - { offset: 0xA429A, size: 0x8, addend: 0x0, symName: __RNCINvXsg_CscKtU6MdFI5n_10proc_macroNtB8_11TokenStreamINtNtNtNtCsieiGu2EXtoJ_4core4iter6traits7collect12FromIteratorNtB8_9TokenTreeE9from_iterINtNtNtBX_8adapters3map3MapINtNtNtCslJiobkLta79_5alloc3vec9into_iter8IntoIterNtCsaKzlTDPUHDb_11proc_macro29TokenTreeENvNtB3x_3imp19into_compiler_tokenEE0CsiK7Gs1zPIjf_14thiserror_impl, symObjAddr: 0x2AA0, symBinAddr: 0x3D8C0, symSize: 0x20 }
  - { offset: 0xA42FA, size: 0x8, addend: 0x0, symName: __RNvXs1e_CscKtU6MdFI5n_10proc_macroNtB6_5IdentNtNtCsieiGu2EXtoJ_4core5clone5Clone5cloneCsiK7Gs1zPIjf_14thiserror_impl, symObjAddr: 0x3BA0, symBinAddr: 0x3E9C0, symSize: 0x40 }
  - { offset: 0xA432E, size: 0x8, addend: 0x0, symName: __RNvXsU_CscKtU6MdFI5n_10proc_macroNtB5_11TokenStreamNtNtCsieiGu2EXtoJ_4core5clone5Clone5cloneCsiK7Gs1zPIjf_14thiserror_impl, symObjAddr: 0x3BE0, symBinAddr: 0x3EA00, symSize: 0x50 }
  - { offset: 0xA4EDA, size: 0x8, addend: 0x0, symName: __RNCNvXs1_NtNtNtCsHUR1vrdMJt_3std2io5error14repr_bitpackedNtB7_4ReprNtNtNtCsieiGu2EXtoJ_4core3ops4drop4Drop4drop0CsiK7Gs1zPIjf_14thiserror_impl, symObjAddr: 0x2AC0, symBinAddr: 0x3D8E0, symSize: 0x30 }
  - { offset: 0xA4F8F, size: 0x8, addend: 0x0, symName: __RNvXs1_NtNtNtCsHUR1vrdMJt_3std2io5error14repr_bitpackedNtB5_4ReprNtNtNtCsieiGu2EXtoJ_4core3ops4drop4Drop4dropCsiK7Gs1zPIjf_14thiserror_impl, symObjAddr: 0x3B70, symBinAddr: 0x3E990, symSize: 0x30 }
  - { offset: 0xA4FB8, size: 0x8, addend: 0x0, symName: __RINvNtNtNtCsHUR1vrdMJt_3std2io5error14repr_bitpacked11decode_reprINtNtCslJiobkLta79_5alloc5boxed3BoxNtB4_6CustomENCNvXs1_B2_NtB2_4ReprNtNtNtCsieiGu2EXtoJ_4core3ops4drop4Drop4drop0ECsiK7Gs1zPIjf_14thiserror_impl, symObjAddr: 0x260, symBinAddr: 0x3B080, symSize: 0x200 }
  - { offset: 0xA5219, size: 0x8, addend: 0x0, symName: __RNvNtNtNtCsHUR1vrdMJt_3std2io5error14repr_bitpacked14kind_from_primCsiK7Gs1zPIjf_14thiserror_impl, symObjAddr: 0x2C70, symBinAddr: 0x3DA90, symSize: 0x5B0 }
  - { offset: 0xA75C3, size: 0x8, addend: 0x0, symName: __RNvXs0_NtCsdGrGZaRBwMb_3syn5tokenNtNtB7_9lookahead3EndNtB5_5Token4peekCsiK7Gs1zPIjf_14thiserror_impl, symObjAddr: 0x3470, symBinAddr: 0x3E290, symSize: 0x30 }
  - { offset: 0xAEE95, size: 0x8, addend: 0x0, symName: __RINvNtNtNtCsieiGu2EXtoJ_4core5slice4sort6stable14driftsort_mainRNtCsaKzlTDPUHDb_11proc_macro25IdentNvYBZ_NtNtB8_3cmp10PartialOrd2ltINtNtCslJiobkLta79_5alloc3vec3VecBZ_EECsiK7Gs1zPIjf_14thiserror_impl, symObjAddr: 0x460, symBinAddr: 0x3B280, symSize: 0x330 }
  - { offset: 0xAF0D5, size: 0x8, addend: 0x0, symName: __RINvNtNtNtNtCsieiGu2EXtoJ_4core5slice4sort6stable9quicksort16stable_partitionRNtCsaKzlTDPUHDb_11proc_macro25IdentNCINvB2_9quicksortB1d_NvYB1d_NtNtBa_3cmp10PartialOrd2ltE0ECsiK7Gs1zPIjf_14thiserror_impl, symObjAddr: 0xF60, symBinAddr: 0x3BD80, symSize: 0x6C0 }
  - { offset: 0xAF554, size: 0x8, addend: 0x0, symName: __RINvNtNtNtNtCsieiGu2EXtoJ_4core5slice4sort6stable9quicksort16stable_partitionRNtCsaKzlTDPUHDb_11proc_macro25IdentNvYB1d_NtNtBa_3cmp10PartialOrd2ltECsiK7Gs1zPIjf_14thiserror_impl, symObjAddr: 0x1620, symBinAddr: 0x3C440, symSize: 0x6C0 }
  - { offset: 0xAF9D3, size: 0x8, addend: 0x0, symName: __RINvNtNtNtNtCsieiGu2EXtoJ_4core5slice4sort6stable9quicksort9quicksortRNtCsaKzlTDPUHDb_11proc_macro25IdentNvYB15_NtNtBa_3cmp10PartialOrd2ltECsiK7Gs1zPIjf_14thiserror_impl, symObjAddr: 0x1CE0, symBinAddr: 0x3CB00, symSize: 0x4E0 }
  - { offset: 0xAFC69, size: 0x8, addend: 0x0, symName: __RNCINvNtNtNtNtCsieiGu2EXtoJ_4core5slice4sort6stable9quicksort9quicksortRNtCsaKzlTDPUHDb_11proc_macro25IdentNvYB17_NtNtBc_3cmp10PartialOrd2ltE0CsiK7Gs1zPIjf_14thiserror_impl, symObjAddr: 0x2A60, symBinAddr: 0x3D880, symSize: 0x40 }
  - { offset: 0xB077F, size: 0x8, addend: 0x0, symName: __RNCINvNtNtNtCsieiGu2EXtoJ_4core4iter8adapters3map12map_try_foldRNtNtCsdGrGZaRBwMb_3syn4data7VariantINtNtBa_6result6ResultNtNtCsiK7Gs1zPIjf_14thiserror_impl3ast7VariantNtNtB14_5error5ErrorEuINtNtNtBa_3ops12control_flow11ControlFlowIB32_B1V_EENCNvMs0_B1X_NtB1X_4Enum8from_syn0NCINvXB6_INtB6_12GenericShuntINtB4_3MapINtNtB14_10punctuated4IterB10_EB3R_EIB1A_NtNtBa_7convert10InfallibleB2F_EENtNtNtB8_6traits8iterator8Iterator8try_folduNCINvNvB6d_12try_for_each4callB1V_B3G_NcNtB3G_5Break0E0B3G_E0E0B1Z_, symObjAddr: 0x2710, symBinAddr: 0x3D530, symSize: 0xB0 }
  - { offset: 0xB0811, size: 0x8, addend: 0x0, symName: __RNCINvNtNtNtCsieiGu2EXtoJ_4core4iter8adapters3map12map_try_foldTjRNtNtCsdGrGZaRBwMb_3syn4data5FieldEINtNtBa_6result6ResultNtNtCsiK7Gs1zPIjf_14thiserror_impl3ast5FieldNtNtB16_5error5ErrorEuINtNtNtBa_3ops12control_flow11ControlFlowIB31_B1W_EENCNvMs2_B1Y_B1W_17multiple_from_syn0NCINvXB6_INtB6_12GenericShuntINtB4_3MapINtNtB6_9enumerate9EnumerateINtNtB16_10punctuated4IterB12_EEB3Q_EIB1B_NtNtBa_7convert10InfallibleB2E_EENtNtNtB8_6traits8iterator8Iterator8try_folduNCINvNvB6I_12try_for_each4callB1W_B3F_NcNtB3F_5Break0E0B3F_E0E0B20_, symObjAddr: 0x27C0, symBinAddr: 0x3D5E0, symSize: 0xC0 }
  - { offset: 0xB08A9, size: 0x8, addend: 0x0, symName: __RINvXs0_NtNtNtCsieiGu2EXtoJ_4core4iter8adapters3mapINtB6_3MapINtNtB8_9enumerate9EnumerateINtNtCsdGrGZaRBwMb_3syn10punctuated4IterNtNtB1u_4data5FieldEENCNvMs2_NtCsiK7Gs1zPIjf_14thiserror_impl3astNtB2w_5Field17multiple_from_syn0ENtNtNtBa_6traits8iterator8Iterator8try_folduNCINvXB8_INtB8_12GenericShuntBN_INtNtBc_6result6ResultNtNtBc_7convert10InfallibleNtNtB1u_5error5ErrorEEB3D_8try_folduNCINvNvB3D_12try_for_each4callB36_INtNtNtBc_3ops12control_flow11ControlFlowB36_ENcNtB6M_5Break0E0B6M_E0IB6N_B6M_EEB2y_, symObjAddr: 0x21C0, symBinAddr: 0x3CFE0, symSize: 0x50 }
  - { offset: 0xB094C, size: 0x8, addend: 0x0, symName: __RINvXs0_NtNtNtCsieiGu2EXtoJ_4core4iter8adapters3mapINtB6_3MapINtNtCsdGrGZaRBwMb_3syn10punctuated4IterNtNtB12_4data7VariantENCNvMs0_NtCsiK7Gs1zPIjf_14thiserror_impl3astNtB25_4Enum8from_syn0ENtNtNtBa_6traits8iterator8Iterator8try_folduNCINvXB8_INtB8_12GenericShuntBN_INtNtBc_6result6ResultNtNtBc_7convert10InfallibleNtNtB12_5error5ErrorEEB31_8try_folduNCINvNvB31_12try_for_each4callNtB25_7VariantINtNtNtBc_3ops12control_flow11ControlFlowB66_ENcNtB6k_5Break0E0B6k_E0IB6l_B6k_EEB27_, symObjAddr: 0x2210, symBinAddr: 0x3D030, symSize: 0x50 }
  - { offset: 0xB09EF, size: 0x8, addend: 0x0, symName: __RINvXs0_NtNtNtCsieiGu2EXtoJ_4core4iter8adapters3mapINtB6_3MapINtNtNtBc_5slice4iter4IterNtNtCsiK7Gs1zPIjf_14thiserror_impl3ast7VariantENCNvNtB1r_6expand9impl_enums1_0ENtNtNtBa_6traits8iterator8Iterator4folduNCINvNvB2E_8for_each4callNtCsaKzlTDPUHDb_11proc_macro211TokenStreamNCINvMsi_NtCslJiobkLta79_5alloc3vecINtB4w_3VecB3H_E14extend_trustedBN_E0E0EB1r_, symObjAddr: 0x2260, symBinAddr: 0x3D080, symSize: 0x60 }
  - { offset: 0xB0A88, size: 0x8, addend: 0x0, symName: __RINvXs0_NtNtNtCsieiGu2EXtoJ_4core4iter8adapters3mapINtB6_3MapINtNtNtCslJiobkLta79_5alloc3vec9into_iter8IntoIterNtCsaKzlTDPUHDb_11proc_macro29TokenTreeENvNtB1N_3imp19into_compiler_tokenENtNtNtBa_6traits8iterator8Iterator4folduNCINvNvB2X_8for_each4callNtCscKtU6MdFI5n_10proc_macro9TokenTreeNCINvXsg_B42_NtB42_11TokenStreamINtNtB31_7collect12FromIteratorB40_E9from_iterBN_E0E0ECsiK7Gs1zPIjf_14thiserror_impl, symObjAddr: 0x22C0, symBinAddr: 0x3D0E0, symSize: 0x40 }
  - { offset: 0xB0AFA, size: 0x8, addend: 0x0, symName: __RNvXs0_NtNtNtCsieiGu2EXtoJ_4core4iter8adapters3mapINtB5_3MapINtNtB7_8peekable8PeekableIBN_INtNtNtBb_5slice4iter4IterNtNtCsiK7Gs1zPIjf_14thiserror_impl3ast5FieldENCNvNtB1U_6expand10fields_pat0EENCB2B_s_0ENtNtNtB9_6traits8iterator8Iterator4nextB1U_, symObjAddr: 0x34A0, symBinAddr: 0x3E2C0, symSize: 0xA0 }
  - { offset: 0xB0BA6, size: 0x8, addend: 0x0, symName: __RNvXs0_NtNtNtCsieiGu2EXtoJ_4core4iter8adapters3mapINtB5_3MapINtNtB7_9enumerate9EnumerateINtNtCsdGrGZaRBwMb_3syn10punctuated4IterNtNtB1t_4data5FieldEENCNvMs2_NtCsiK7Gs1zPIjf_14thiserror_impl3astNtB2v_5Field17multiple_from_syn0ENtNtNtB9_6traits8iterator8Iterator9size_hintB2x_, symObjAddr: 0x3540, symBinAddr: 0x3E360, symSize: 0x30 }
  - { offset: 0xB0BED, size: 0x8, addend: 0x0, symName: __RNvXs0_NtNtNtCsieiGu2EXtoJ_4core4iter8adapters3mapINtB5_3MapINtNtCsdGrGZaRBwMb_3syn10punctuated4IterNtNtB11_4data7VariantENCNvMs0_NtCsiK7Gs1zPIjf_14thiserror_impl3astNtB24_4Enum8from_syn0ENtNtNtB9_6traits8iterator8Iterator9size_hintB26_, symObjAddr: 0x3570, symBinAddr: 0x3E390, symSize: 0x30 }
  - { offset: 0xB0C34, size: 0x8, addend: 0x0, symName: __RNvXs0_NtNtNtCsieiGu2EXtoJ_4core4iter8adapters3mapINtB5_3MapINtNtNtBb_3str4iter5SplitcEINvCsdGrGZaRBwMb_3syn9parse_strNtNtB1q_4expr5IndexEENtNtNtB9_6traits8iterator8Iterator4nextCsiK7Gs1zPIjf_14thiserror_impl, symObjAddr: 0x35A0, symBinAddr: 0x3E3C0, symSize: 0xC0 }
  - { offset: 0xB0CE1, size: 0x8, addend: 0x0, symName: __RNvXs0_NtNtNtCsieiGu2EXtoJ_4core4iter8adapters3mapINtB5_3MapINtNtNtBb_5slice4iter4IterNtNtCsiK7Gs1zPIjf_14thiserror_impl3ast5FieldENCNCNvNtB1q_6expand9impl_enums1_00ENtNtNtB9_6traits8iterator8Iterator4nextB1q_, symObjAddr: 0x3660, symBinAddr: 0x3E480, symSize: 0xA0 }
  - { offset: 0xB0D8D, size: 0x8, addend: 0x0, symName: __RNvXs0_NtNtNtCsieiGu2EXtoJ_4core4iter8adapters3mapINtB5_3MapINtNtNtBb_5slice4iter4IterNtNtCsiK7Gs1zPIjf_14thiserror_impl3ast5FieldENCNvNtB1q_6expand10fields_pat0ENtNtNtB9_6traits8iterator8Iterator4nextB1q_, symObjAddr: 0x3700, symBinAddr: 0x3E520, symSize: 0x80 }
  - { offset: 0xB0E39, size: 0x8, addend: 0x0, symName: __RNvXs0_NtNtNtCsieiGu2EXtoJ_4core4iter8adapters3mapINtB5_3MapINtNtNtBb_5slice4iter4IterNtNtCsiK7Gs1zPIjf_14thiserror_impl3ast7VariantENCNvNtB1q_6expand9impl_enum0ENtNtNtB9_6traits8iterator8Iterator4nextB1q_, symObjAddr: 0x3780, symBinAddr: 0x3E5A0, symSize: 0xB0 }
  - { offset: 0xB0EE6, size: 0x8, addend: 0x0, symName: __RNvXs0_NtNtNtCsieiGu2EXtoJ_4core4iter8adapters3mapINtB5_3MapINtNtNtBb_5slice4iter4IterNtNtCsiK7Gs1zPIjf_14thiserror_impl3ast7VariantENCNvNtB1q_6expand9impl_enums1_0ENtNtNtB9_6traits8iterator8Iterator9size_hintB1q_, symObjAddr: 0x3830, symBinAddr: 0x3E650, symSize: 0x30 }
  - { offset: 0xB0F2D, size: 0x8, addend: 0x0, symName: __RNvXs0_NtNtNtCsieiGu2EXtoJ_4core4iter8adapters3mapINtB5_3MapINtNtNtBb_5slice4iter4IterNtNtCsiK7Gs1zPIjf_14thiserror_impl3ast7VariantENCNvNtB1q_6expand9impl_enums_0ENtNtNtB9_6traits8iterator8Iterator4nextB1q_, symObjAddr: 0x3860, symBinAddr: 0x3E680, symSize: 0xB0 }
  - { offset: 0xB0FDA, size: 0x8, addend: 0x0, symName: __RNvXs0_NtNtNtCsieiGu2EXtoJ_4core4iter8adapters3mapINtB5_3MapINtNtNtBb_5slice4iter4IterTNtCsaKzlTDPUHDb_11proc_macro25IdentNtB1p_11TokenStreamEENCNvXNtCsiK7Gs1zPIjf_14thiserror_impl4attrNtB2m_7DisplayNtNtCs9OU1sGv5X54_5quote9to_tokens8ToTokens9to_tokens0ENtNtNtB9_6traits8iterator8Iterator4nextB2o_, symObjAddr: 0x3910, symBinAddr: 0x3E730, symSize: 0x80 }
  - { offset: 0xB1086, size: 0x8, addend: 0x0, symName: __RNvXs0_NtNtNtCsieiGu2EXtoJ_4core4iter8adapters3mapINtB5_3MapINtNtNtBb_5slice4iter4IterTNtCsaKzlTDPUHDb_11proc_macro25IdentNtB1p_11TokenStreamEENCNvXNtCsiK7Gs1zPIjf_14thiserror_impl4attrNtB2m_7DisplayNtNtCs9OU1sGv5X54_5quote9to_tokens8ToTokens9to_tokenss_0ENtNtNtB9_6traits8iterator8Iterator4nextB2o_, symObjAddr: 0x3990, symBinAddr: 0x3E7B0, symSize: 0x80 }
  - { offset: 0xB1132, size: 0x8, addend: 0x0, symName: __RNvXs0_NtNtNtCsieiGu2EXtoJ_4core4iter8adapters3mapINtB5_3MapINtNtNtCslJiobkLta79_5alloc3vec9into_iter8IntoIterNtCsaKzlTDPUHDb_11proc_macro29TokenTreeENvNtB1M_3imp19into_compiler_tokenENtNtNtB9_6traits8iterator8Iterator9size_hintCsiK7Gs1zPIjf_14thiserror_impl, symObjAddr: 0x3A10, symBinAddr: 0x3E830, symSize: 0x30 }
  - { offset: 0xB1179, size: 0x8, addend: 0x0, symName: __RNvXs0_NtNtNtCsieiGu2EXtoJ_4core4iter8adapters3mapINtB5_3MapINtNtNtCslJiobkLta79_5alloc3vec9into_iter8IntoIterRNtCsaKzlTDPUHDb_11proc_macro25IdentENCINvMse_NtNtNtB13_11collections5btree3setINtB2u_8BTreeSetB1K_E16from_sorted_iterBW_E0ENtNtNtB9_6traits8iterator8Iterator4nextCsiK7Gs1zPIjf_14thiserror_impl, symObjAddr: 0x3A40, symBinAddr: 0x3E860, symSize: 0x80 }
  - { offset: 0xB1225, size: 0x8, addend: 0x0, symName: __RNvXs0_NtNtNtCsieiGu2EXtoJ_4core4iter8adapters3mapINtB5_3MapNtNtCsdGrGZaRBwMb_3syn8generics10TypeParamsNCNvMNtCsiK7Gs1zPIjf_14thiserror_impl8genericsNtB1I_13ParamsInScope3new0ENtNtNtB9_6traits8iterator8Iterator4nextB1K_, symObjAddr: 0x3AC0, symBinAddr: 0x3E8E0, symSize: 0x80 }
  - { offset: 0xB12D1, size: 0x8, addend: 0x0, symName: __RNvXs0_NtNtNtCsieiGu2EXtoJ_4core4iter8adapters3mapINtB5_3MapNtNtCsdGrGZaRBwMb_3syn8generics10TypeParamsNCNvMNtCsiK7Gs1zPIjf_14thiserror_impl8genericsNtB1I_13ParamsInScope3new0ENtNtNtB9_6traits8iterator8Iterator9size_hintB1K_, symObjAddr: 0x3B40, symBinAddr: 0x3E960, symSize: 0x30 }
  - { offset: 0xB13ED, size: 0x8, addend: 0x0, symName: __RNCINvNtNtNtCsieiGu2EXtoJ_4core4iter8adapters3map8map_foldNtCsaKzlTDPUHDb_11proc_macro29TokenTreeNtCscKtU6MdFI5n_10proc_macro9TokenTreeuNvNtBW_3imp19into_compiler_tokenNCINvNvNtNtNtB8_6traits8iterator8Iterator8for_each4callB1x_NCINvXsg_B1z_NtB1z_11TokenStreamINtNtB2R_7collect12FromIteratorB1x_E9from_iterINtB4_3MapINtNtNtCslJiobkLta79_5alloc3vec9into_iter8IntoIterBU_EB2a_EE0E0E0CsiK7Gs1zPIjf_14thiserror_impl, symObjAddr: 0x2880, symBinAddr: 0x3D6A0, symSize: 0xB0 }
  - { offset: 0xB1473, size: 0x8, addend: 0x0, symName: __RNCINvNtNtNtCsieiGu2EXtoJ_4core4iter8adapters3map8map_foldRNtNtCsiK7Gs1zPIjf_14thiserror_impl3ast7VariantNtCsaKzlTDPUHDb_11proc_macro211TokenStreamuNCNvNtBZ_6expand9impl_enums1_0NCINvNvNtNtNtB8_6traits8iterator8Iterator8for_each4callB1F_NCINvMsi_NtCslJiobkLta79_5alloc3vecINtB3W_3VecB1F_E14extend_trustedINtB4_3MapINtNtNtBa_5slice4iter4IterBV_EB2m_EE0E0E0BZ_, symObjAddr: 0x2930, symBinAddr: 0x3D750, symSize: 0x90 }
  - { offset: 0xB1976, size: 0x8, addend: 0x0, symName: __RINvYINtNtNtNtCsieiGu2EXtoJ_4core4iter8adapters3map3MapINtNtB8_9enumerate9EnumerateINtNtCsdGrGZaRBwMb_3syn10punctuated4IterNtNtB1o_4data5FieldEENCNvMs2_NtCsiK7Gs1zPIjf_14thiserror_impl3astNtB2q_5Field17multiple_from_syn0ENtNtNtBa_6traits8iterator8Iterator7collectINtNtBc_6result6ResultINtNtCslJiobkLta79_5alloc3vec3VecB30_ENtNtB1o_5error5ErrorEEB2s_, symObjAddr: 0x2430, symBinAddr: 0x3D250, symSize: 0x70 }
  - { offset: 0xB1A0C, size: 0x8, addend: 0x0, symName: __RINvYINtNtNtNtCsieiGu2EXtoJ_4core4iter8adapters3map3MapINtNtCsdGrGZaRBwMb_3syn10punctuated4IterNtNtBW_4data7VariantENCNvMs0_NtCsiK7Gs1zPIjf_14thiserror_impl3astNtB1Y_4Enum8from_syn0ENtNtNtBa_6traits8iterator8Iterator7collectINtNtBc_6result6ResultINtNtCslJiobkLta79_5alloc3vec3VecNtB1Y_7VariantENtNtBW_5error5ErrorEEB20_, symObjAddr: 0x24A0, symBinAddr: 0x3D2C0, symSize: 0x80 }
  - { offset: 0xB1AA2, size: 0x8, addend: 0x0, symName: __RINvYINtNtNtNtCsieiGu2EXtoJ_4core4iter8adapters3map3MapINtNtNtBc_5slice4iter4IterNtNtCsiK7Gs1zPIjf_14thiserror_impl3ast7VariantENCNvNtB1l_6expand9impl_enums1_0ENtNtNtBa_6traits8iterator8Iterator7collectINtNtCslJiobkLta79_5alloc3vec3VecNtCsaKzlTDPUHDb_11proc_macro211TokenStreamEEB1l_, symObjAddr: 0x2520, symBinAddr: 0x3D340, symSize: 0x70 }
  - { offset: 0xB1B38, size: 0x8, addend: 0x0, symName: __RINvYINtNtNtNtCsieiGu2EXtoJ_4core4iter8adapters3map3MapINtNtNtBc_5slice4iter4IterNtNtCsiK7Gs1zPIjf_14thiserror_impl3ast7VariantENCNvNtB1l_6expand9impl_enums1_0ENtNtNtBa_6traits8iterator8Iterator8for_eachNCINvMsi_NtCslJiobkLta79_5alloc3vecINtB3o_3VecNtCsaKzlTDPUHDb_11proc_macro211TokenStreamE14extend_trustedB3_E0EB1l_, symObjAddr: 0x2590, symBinAddr: 0x3D3B0, symSize: 0x30 }
  - { offset: 0xB1BA3, size: 0x8, addend: 0x0, symName: __RINvYINtNtNtNtCsieiGu2EXtoJ_4core4iter8adapters3map3MapINtNtNtCslJiobkLta79_5alloc3vec9into_iter8IntoIterNtCsaKzlTDPUHDb_11proc_macro29TokenTreeENvNtB1H_3imp19into_compiler_tokenENtNtNtBa_6traits8iterator8Iterator7collectNtCscKtU6MdFI5n_10proc_macro11TokenStreamECsiK7Gs1zPIjf_14thiserror_impl, symObjAddr: 0x25C0, symBinAddr: 0x3D3E0, symSize: 0x70 }
  - { offset: 0xB1C39, size: 0x8, addend: 0x0, symName: __RINvYINtNtNtNtCsieiGu2EXtoJ_4core4iter8adapters3map3MapINtNtNtCslJiobkLta79_5alloc3vec9into_iter8IntoIterNtCsaKzlTDPUHDb_11proc_macro29TokenTreeENvNtB1H_3imp19into_compiler_tokenENtNtNtBa_6traits8iterator8Iterator8for_eachNCINvXsg_CscKtU6MdFI5n_10proc_macroNtB3H_11TokenStreamINtNtB2V_7collect12FromIteratorNtB3H_9TokenTreeE9from_iterB3_E0ECsiK7Gs1zPIjf_14thiserror_impl, symObjAddr: 0x2630, symBinAddr: 0x3D450, symSize: 0x20 }
  - { offset: 0xB1C85, size: 0x8, addend: 0x0, symName: __RINvYINtNtNtNtCsieiGu2EXtoJ_4core4iter8adapters3map3MapNtNtCsdGrGZaRBwMb_3syn8generics10TypeParamsNCNvMNtCsiK7Gs1zPIjf_14thiserror_impl8genericsNtB1D_13ParamsInScope3new0ENtNtNtBa_6traits8iterator8Iterator7collectINtNtCslJiobkLta79_5alloc3vec3VecRNtCsaKzlTDPUHDb_11proc_macro25IdentEEB1F_, symObjAddr: 0x2650, symBinAddr: 0x3D470, symSize: 0x60 }
  - { offset: 0xB1D1A, size: 0x8, addend: 0x0, symName: __RINvYINtNtNtNtCsieiGu2EXtoJ_4core4iter8adapters3map3MapNtNtCsdGrGZaRBwMb_3syn8generics10TypeParamsNCNvMNtCsiK7Gs1zPIjf_14thiserror_impl8genericsNtB1D_13ParamsInScope3new0ENtNtNtBa_6traits8iterator8Iterator7collectINtNtNtNtCslJiobkLta79_5alloc11collections5btree3set8BTreeSetRNtCsaKzlTDPUHDb_11proc_macro25IdentEEB1F_, symObjAddr: 0x26B0, symBinAddr: 0x3D4D0, symSize: 0x60 }
  - { offset: 0xB1DAF, size: 0x8, addend: 0x0, symName: __RNvYINtNtNtNtCsieiGu2EXtoJ_4core4iter8adapters3map3MapINtNtNtBb_5slice4iter4IterNtNtCsiK7Gs1zPIjf_14thiserror_impl3ast5FieldENCNvNtB1k_6expand10fields_pat0ENtNtNtB9_6traits8iterator8Iterator8peekableB1k_, symObjAddr: 0x3C80, symBinAddr: 0x3EAA0, symSize: 0x30 }
  - { offset: 0xB1DFB, size: 0x8, addend: 0x0, symName: __RNvYINtNtNtNtCsieiGu2EXtoJ_4core4iter8adapters3map3MapINtNtNtCslJiobkLta79_5alloc3vec9into_iter8IntoIterRNtCsaKzlTDPUHDb_11proc_macro25IdentENCINvMse_NtNtNtBX_11collections5btree3setINtB2o_8BTreeSetB1E_E16from_sorted_iterBQ_E0ENtNtNtB9_6traits8iterator8Iterator8peekableCsiK7Gs1zPIjf_14thiserror_impl, symObjAddr: 0x3D50, symBinAddr: 0x3EB70, symSize: 0x40 }
  - { offset: 0xB1E53, size: 0x8, addend: 0x0, symName: __RNvXNtNtNtCsieiGu2EXtoJ_4core4iter6traits7collectINtNtNtB6_8adapters3map3MapINtNtBQ_9enumerate9EnumerateINtNtCsdGrGZaRBwMb_3syn10punctuated4IterNtNtB1J_4data5FieldEENCNvMs2_NtCsiK7Gs1zPIjf_14thiserror_impl3astNtB2L_5Field17multiple_from_syn0ENtB2_12IntoIterator9into_iterB2N_, symObjAddr: 0x3320, symBinAddr: 0x3E140, symSize: 0x30 }
  - { offset: 0xB1E8A, size: 0x8, addend: 0x0, symName: __RNvXNtNtNtCsieiGu2EXtoJ_4core4iter6traits7collectINtNtNtB6_8adapters3map3MapINtNtCsdGrGZaRBwMb_3syn10punctuated4IterNtNtB1h_4data7VariantENCNvMs0_NtCsiK7Gs1zPIjf_14thiserror_impl3astNtB2k_4Enum8from_syn0ENtB2_12IntoIterator9into_iterB2m_, symObjAddr: 0x3350, symBinAddr: 0x3E170, symSize: 0x30 }
  - { offset: 0xB1EC2, size: 0x8, addend: 0x0, symName: __RNvXNtNtNtCsieiGu2EXtoJ_4core4iter6traits7collectINtNtNtB6_8adapters3map3MapINtNtNtB8_5slice4iter4IterNtNtCsiK7Gs1zPIjf_14thiserror_impl3ast7VariantENCNvNtB1G_6expand9impl_enums1_0ENtB2_12IntoIterator9into_iterB1G_, symObjAddr: 0x3380, symBinAddr: 0x3E1A0, symSize: 0x30 }
  - { offset: 0xB1EF9, size: 0x8, addend: 0x0, symName: __RNvXNtNtNtCsieiGu2EXtoJ_4core4iter6traits7collectINtNtNtB6_8adapters3map3MapINtNtNtCslJiobkLta79_5alloc3vec9into_iter8IntoIterNtCsaKzlTDPUHDb_11proc_macro29TokenTreeENvNtB22_3imp19into_compiler_tokenENtB2_12IntoIterator9into_iterCsiK7Gs1zPIjf_14thiserror_impl, symObjAddr: 0x33B0, symBinAddr: 0x3E1D0, symSize: 0x30 }
  - { offset: 0xB1F30, size: 0x8, addend: 0x0, symName: __RNvXNtNtNtCsieiGu2EXtoJ_4core4iter6traits7collectINtNtNtB6_8adapters3map3MapINtNtNtCslJiobkLta79_5alloc3vec9into_iter8IntoIterRNtCsaKzlTDPUHDb_11proc_macro25IdentENCINvMse_NtNtNtB1j_11collections5btree3setINtB2K_8BTreeSetB20_E16from_sorted_iterB1c_E0ENtB2_12IntoIterator9into_iterCsiK7Gs1zPIjf_14thiserror_impl, symObjAddr: 0x33E0, symBinAddr: 0x3E200, symSize: 0x30 }
  - { offset: 0xB1F67, size: 0x8, addend: 0x0, symName: __RNvXNtNtNtCsieiGu2EXtoJ_4core4iter6traits7collectINtNtNtB6_8adapters3map3MapNtNtCsdGrGZaRBwMb_3syn8generics10TypeParamsNCNvMNtCsiK7Gs1zPIjf_14thiserror_impl8genericsNtB1Y_13ParamsInScope3new0ENtB2_12IntoIterator9into_iterB20_, symObjAddr: 0x3410, symBinAddr: 0x3E230, symSize: 0x20 }
  - { offset: 0xB36FA, size: 0x8, addend: 0x0, symName: __RINvNtCslJiobkLta79_5alloc5slice11stable_sortRNtCsaKzlTDPUHDb_11proc_macro25IdentNvYBH_NtNtCsieiGu2EXtoJ_4core3cmp10PartialOrd2ltECsiK7Gs1zPIjf_14thiserror_impl, symObjAddr: 0x1B0, symBinAddr: 0x3AFD0, symSize: 0xB0 }
  - { offset: 0xB37C8, size: 0x8, addend: 0x0, symName: __RNvXNvXNvMNtCslJiobkLta79_5alloc5sliceSp9to_vec_inpNtB5_10ConvertVec6to_vecINtB2_9DropGuardTNtCsaKzlTDPUHDb_11proc_macro25IdentNtB1u_11TokenStreamENtNtBa_5alloc6GlobalENtNtNtCsieiGu2EXtoJ_4core3ops4drop4Drop4dropCsiK7Gs1zPIjf_14thiserror_impl, symObjAddr: 0x3440, symBinAddr: 0x3E260, symSize: 0x30 }
  - { offset: 0xB4307, size: 0x8, addend: 0x0, symName: __RINvNtNtNtCslJiobkLta79_5alloc11collections5btree3mem7replaceINtNtB4_4node6HandleINtB10_7NodeRefNtNtB10_6marker5DyingNtNtB8_6string6StringNtNtB4_7set_val9SetValZSTNtB1y_4LeafENtB1y_4EdgeEIBY_IB1i_B1w_B1R_B2c_NtB1y_14LeafOrInternalENtB1y_2KVENCINvMsm_NtB4_8navigateBX_27deallocating_next_uncheckedNtNtB8_5alloc6GlobalE0ECsiK7Gs1zPIjf_14thiserror_impl, symObjAddr: 0x790, symBinAddr: 0x3B5B0, symSize: 0x110 }
  - { offset: 0xB43F9, size: 0x8, addend: 0x0, symName: __RINvNtNtNtCslJiobkLta79_5alloc11collections5btree3mem7replaceINtNtB4_4node6HandleINtB10_7NodeRefNtNtB10_6marker5DyingNtNtB8_6string6StringTINtNtB4_3set8BTreeSetB1R_EINtNtCsdGrGZaRBwMb_3syn10punctuated10PunctuatedNtCsaKzlTDPUHDb_11proc_macro211TokenStreamNtNtB2I_5token4PlusEENtB1y_4LeafENtB1y_4EdgeEIBY_IB1i_B1w_B1R_B2c_NtB1y_14LeafOrInternalENtB1y_2KVENCINvMsm_NtB4_8navigateBX_27deallocating_next_uncheckedNtNtB8_5alloc6GlobalE0ECsiK7Gs1zPIjf_14thiserror_impl, symObjAddr: 0x8A0, symBinAddr: 0x3B6C0, symSize: 0x110 }
  - { offset: 0xB44EB, size: 0x8, addend: 0x0, symName: __RINvNtNtNtCslJiobkLta79_5alloc11collections5btree3mem7replaceINtNtB4_4node6HandleINtB10_7NodeRefNtNtB10_6marker5DyingNtNtCsiK7Gs1zPIjf_14thiserror_impl5unraw10IdentUnrawNtNtB4_7set_val9SetValZSTNtB1y_4LeafENtB1y_4EdgeEIBY_IB1i_B1w_B1R_B2H_NtB1y_14LeafOrInternalENtB1y_2KVENCINvMsm_NtB4_8navigateBX_27deallocating_next_uncheckedNtNtB8_5alloc6GlobalE0EB1V_, symObjAddr: 0x9B0, symBinAddr: 0x3B7D0, symSize: 0x110 }
  - { offset: 0xB45DD, size: 0x8, addend: 0x0, symName: __RINvNtNtNtCslJiobkLta79_5alloc11collections5btree3mem7replaceINtNtB4_4node6HandleINtB10_7NodeRefNtNtB10_6marker5DyingRNtCsaKzlTDPUHDb_11proc_macro25IdentNtNtB4_7set_val9SetValZSTNtB1y_4LeafENtB1y_4EdgeEIBY_IB1i_B1w_B1R_B2r_NtB1y_14LeafOrInternalENtB1y_2KVENCINvMsm_NtB4_8navigateBX_27deallocating_next_uncheckedNtNtB8_5alloc6GlobalE0ECsiK7Gs1zPIjf_14thiserror_impl, symObjAddr: 0xAC0, symBinAddr: 0x3B8E0, symSize: 0x110 }
  - { offset: 0xB46CF, size: 0x8, addend: 0x0, symName: __RINvNtNtNtCslJiobkLta79_5alloc11collections5btree3mem7replaceINtNtB4_4node6HandleINtB10_7NodeRefNtNtB10_6marker5DyingTjNtNtCsiK7Gs1zPIjf_14thiserror_impl4attr5TraitENtNtB4_7set_val9SetValZSTNtB1y_4LeafENtB1y_4EdgeEIBY_IB1i_B1w_B1R_B2D_NtB1y_14LeafOrInternalENtB1y_2KVENCINvMsm_NtB4_8navigateBX_27deallocating_next_uncheckedNtNtB8_5alloc6GlobalE0EB1X_, symObjAddr: 0xBD0, symBinAddr: 0x3B9F0, symSize: 0x110 }
  - { offset: 0xB47C1, size: 0x8, addend: 0x0, symName: __RINvNtNtNtCslJiobkLta79_5alloc11collections5btree3mem7replaceINtNtB4_4node7NodeRefNtNtB10_6marker5OwnedNtNtB8_6string6StringNtNtB4_7set_val9SetValZSTNtB1k_14LeafOrInternalEuNCINvB2_8take_mutBX_NCINvMss_B10_BX_19push_internal_levelNtNtB8_5alloc6GlobalE0E0ECsiK7Gs1zPIjf_14thiserror_impl, symObjAddr: 0xCE0, symBinAddr: 0x3BB00, symSize: 0x80 }
  - { offset: 0xB48AB, size: 0x8, addend: 0x0, symName: __RINvNtNtNtCslJiobkLta79_5alloc11collections5btree3mem7replaceINtNtB4_4node7NodeRefNtNtB10_6marker5OwnedNtNtB8_6string6StringTINtNtB4_3set8BTreeSetB1D_EINtNtCsdGrGZaRBwMb_3syn10punctuated10PunctuatedNtCsaKzlTDPUHDb_11proc_macro211TokenStreamNtNtB2u_5token4PlusEENtB1k_14LeafOrInternalEuNCINvB2_8take_mutBX_NCINvMss_B10_BX_19push_internal_levelNtNtB8_5alloc6GlobalE0E0ECsiK7Gs1zPIjf_14thiserror_impl, symObjAddr: 0xD60, symBinAddr: 0x3BB80, symSize: 0x80 }
  - { offset: 0xB4995, size: 0x8, addend: 0x0, symName: __RINvNtNtNtCslJiobkLta79_5alloc11collections5btree3mem7replaceINtNtB4_4node7NodeRefNtNtB10_6marker5OwnedNtNtCsiK7Gs1zPIjf_14thiserror_impl5unraw10IdentUnrawNtNtB4_7set_val9SetValZSTNtB1k_14LeafOrInternalEuNCINvB2_8take_mutBX_NCINvMss_B10_BX_19push_internal_levelNtNtB8_5alloc6GlobalE0E0EB1H_, symObjAddr: 0xDE0, symBinAddr: 0x3BC00, symSize: 0x80 }
  - { offset: 0xB4A7F, size: 0x8, addend: 0x0, symName: __RINvNtNtNtCslJiobkLta79_5alloc11collections5btree3mem7replaceINtNtB4_4node7NodeRefNtNtB10_6marker5OwnedRNtCsaKzlTDPUHDb_11proc_macro25IdentNtNtB4_7set_val9SetValZSTNtB1k_14LeafOrInternalEuNCINvB2_8take_mutBX_NCINvMss_B10_BX_19push_internal_levelNtNtB8_5alloc6GlobalE0E0ECsiK7Gs1zPIjf_14thiserror_impl, symObjAddr: 0xE60, symBinAddr: 0x3BC80, symSize: 0x80 }
  - { offset: 0xB4B69, size: 0x8, addend: 0x0, symName: __RINvNtNtNtCslJiobkLta79_5alloc11collections5btree3mem7replaceINtNtB4_4node7NodeRefNtNtB10_6marker5OwnedTjNtNtCsiK7Gs1zPIjf_14thiserror_impl4attr5TraitENtNtB4_7set_val9SetValZSTNtB1k_14LeafOrInternalEuNCINvB2_8take_mutBX_NCINvMss_B10_BX_19push_internal_levelNtNtB8_5alloc6GlobalE0E0EB1J_, symObjAddr: 0xEE0, symBinAddr: 0x3BD00, symSize: 0x80 }
  - { offset: 0xB4C58, size: 0x8, addend: 0x0, symName: __RNCINvNtNtNtCslJiobkLta79_5alloc11collections5btree3mem8take_mutINtNtB6_4node7NodeRefNtNtB13_6marker5OwnedNtNtBa_6string6StringNtNtB6_7set_val9SetValZSTNtB1n_14LeafOrInternalENCINvMss_B13_B10_19push_internal_levelNtNtBa_5alloc6GlobalE0E0CsiK7Gs1zPIjf_14thiserror_impl, symObjAddr: 0x29C0, symBinAddr: 0x3D7E0, symSize: 0x20 }
  - { offset: 0xB4CA5, size: 0x8, addend: 0x0, symName: __RNCINvNtNtNtCslJiobkLta79_5alloc11collections5btree3mem8take_mutINtNtB6_4node7NodeRefNtNtB13_6marker5OwnedNtNtBa_6string6StringTINtNtB6_3set8BTreeSetB1G_EINtNtCsdGrGZaRBwMb_3syn10punctuated10PunctuatedNtCsaKzlTDPUHDb_11proc_macro211TokenStreamNtNtB2x_5token4PlusEENtB1n_14LeafOrInternalENCINvMss_B13_B10_19push_internal_levelNtNtBa_5alloc6GlobalE0E0CsiK7Gs1zPIjf_14thiserror_impl, symObjAddr: 0x29E0, symBinAddr: 0x3D800, symSize: 0x20 }
  - { offset: 0xB4CF2, size: 0x8, addend: 0x0, symName: __RNCINvNtNtNtCslJiobkLta79_5alloc11collections5btree3mem8take_mutINtNtB6_4node7NodeRefNtNtB13_6marker5OwnedNtNtCsiK7Gs1zPIjf_14thiserror_impl5unraw10IdentUnrawNtNtB6_7set_val9SetValZSTNtB1n_14LeafOrInternalENCINvMss_B13_B10_19push_internal_levelNtNtBa_5alloc6GlobalE0E0B1K_, symObjAddr: 0x2A00, symBinAddr: 0x3D820, symSize: 0x20 }
  - { offset: 0xB4D3F, size: 0x8, addend: 0x0, symName: __RNCINvNtNtNtCslJiobkLta79_5alloc11collections5btree3mem8take_mutINtNtB6_4node7NodeRefNtNtB13_6marker5OwnedRNtCsaKzlTDPUHDb_11proc_macro25IdentNtNtB6_7set_val9SetValZSTNtB1n_14LeafOrInternalENCINvMss_B13_B10_19push_internal_levelNtNtBa_5alloc6GlobalE0E0CsiK7Gs1zPIjf_14thiserror_impl, symObjAddr: 0x2A20, symBinAddr: 0x3D840, symSize: 0x20 }
  - { offset: 0xB4D8C, size: 0x8, addend: 0x0, symName: __RNCINvNtNtNtCslJiobkLta79_5alloc11collections5btree3mem8take_mutINtNtB6_4node7NodeRefNtNtB13_6marker5OwnedTjNtNtCsiK7Gs1zPIjf_14thiserror_impl4attr5TraitENtNtB6_7set_val9SetValZSTNtB1n_14LeafOrInternalENCINvMss_B13_B10_19push_internal_levelNtNtBa_5alloc6GlobalE0E0B1M_, symObjAddr: 0x2A40, symBinAddr: 0x3D860, symSize: 0x20 }
  - { offset: 0xB4E43, size: 0x8, addend: 0x0, symName: __RNvXNvNtNtNtCslJiobkLta79_5alloc11collections5btree3mem7replaceNtB2_10PanicGuardNtNtNtCsieiGu2EXtoJ_4core3ops4drop4Drop4dropCsiK7Gs1zPIjf_14thiserror_impl, symObjAddr: 0x3430, symBinAddr: 0x3E250, symSize: 0x10 }
  - { offset: 0xB5212, size: 0x8, addend: 0x0, symName: __RINvMNtCsdGrGZaRBwMb_3syn9lookaheadNtB3_10Lookahead14peekINvNtNvNtCsiK7Gs1zPIjf_14thiserror_impl4attr21parse_error_attribute2kw11transparentNtB3_11TokenMarkerEEB12_, symObjAddr: 0x0, symBinAddr: 0x3AE20, symSize: 0x30 }
  - { offset: 0xB5263, size: 0x8, addend: 0x0, symName: __RINvMNtCsdGrGZaRBwMb_3syn9lookaheadNtB3_10Lookahead14peekINvNtNvNtCsiK7Gs1zPIjf_14thiserror_impl4attr21parse_error_attribute2kw3fmtNtB3_11TokenMarkerEEB12_, symObjAddr: 0x30, symBinAddr: 0x3AE50, symSize: 0x30 }
  - { offset: 0xB53E0, size: 0x8, addend: 0x0, symName: __RNvYINtNtNtNtCsieiGu2EXtoJ_4core4iter8adapters3map3MapINtNtB7_8peekable8PeekableIB3_INtNtNtBb_5slice4iter4IterNtNtCsiK7Gs1zPIjf_14thiserror_impl3ast5FieldENCNvNtB1O_6expand10fields_pat0EENCB2v_s_0ENtNtNtCs9OU1sGv5X54_5quote9___private3ext14RepIteratorExt15quote_into_iterB1O_, symObjAddr: 0x3C30, symBinAddr: 0x3EA50, symSize: 0x30 }
  - { offset: 0xB5415, size: 0x8, addend: 0x0, symName: __RNvYINtNtNtNtCsieiGu2EXtoJ_4core4iter8adapters3map3MapINtNtNtBb_5slice4iter4IterNtNtCsiK7Gs1zPIjf_14thiserror_impl3ast5FieldENCNCNvNtB1k_6expand9impl_enums1_00ENtNtNtCs9OU1sGv5X54_5quote9___private3ext14RepIteratorExt15quote_into_iterB1k_, symObjAddr: 0x3C60, symBinAddr: 0x3EA80, symSize: 0x20 }
  - { offset: 0xB544A, size: 0x8, addend: 0x0, symName: __RNvYINtNtNtNtCsieiGu2EXtoJ_4core4iter8adapters3map3MapINtNtNtBb_5slice4iter4IterNtNtCsiK7Gs1zPIjf_14thiserror_impl3ast7VariantENCNvNtB1k_6expand9impl_enum0ENtNtNtCs9OU1sGv5X54_5quote9___private3ext14RepIteratorExt15quote_into_iterB1k_, symObjAddr: 0x3CB0, symBinAddr: 0x3EAD0, symSize: 0x30 }
  - { offset: 0xB547F, size: 0x8, addend: 0x0, symName: __RNvYINtNtNtNtCsieiGu2EXtoJ_4core4iter8adapters3map3MapINtNtNtBb_5slice4iter4IterNtNtCsiK7Gs1zPIjf_14thiserror_impl3ast7VariantENCNvNtB1k_6expand9impl_enums_0ENtNtNtCs9OU1sGv5X54_5quote9___private3ext14RepIteratorExt15quote_into_iterB1k_, symObjAddr: 0x3CE0, symBinAddr: 0x3EB00, symSize: 0x30 }
  - { offset: 0xB54B4, size: 0x8, addend: 0x0, symName: __RNvYINtNtNtNtCsieiGu2EXtoJ_4core4iter8adapters3map3MapINtNtNtBb_5slice4iter4IterTNtCsaKzlTDPUHDb_11proc_macro25IdentNtB1j_11TokenStreamEENCNvXNtCsiK7Gs1zPIjf_14thiserror_impl4attrNtB2g_7DisplayNtNtCs9OU1sGv5X54_5quote9to_tokens8ToTokens9to_tokens0ENtNtNtB39_9___private3ext14RepIteratorExt15quote_into_iterB2i_, symObjAddr: 0x3D10, symBinAddr: 0x3EB30, symSize: 0x20 }
  - { offset: 0xB54E9, size: 0x8, addend: 0x0, symName: __RNvYINtNtNtNtCsieiGu2EXtoJ_4core4iter8adapters3map3MapINtNtNtBb_5slice4iter4IterTNtCsaKzlTDPUHDb_11proc_macro25IdentNtB1j_11TokenStreamEENCNvXNtCsiK7Gs1zPIjf_14thiserror_impl4attrNtB2g_7DisplayNtNtCs9OU1sGv5X54_5quote9to_tokens8ToTokens9to_tokenss_0ENtNtNtB39_9___private3ext14RepIteratorExt15quote_into_iterB2i_, symObjAddr: 0x3D30, symBinAddr: 0x3EB50, symSize: 0x20 }
  - { offset: 0xB5533, size: 0x8, addend: 0x0, symName: __RNvXNtCs9OU1sGv5X54_5quote14ident_fragmentRReNtB2_13IdentFragment3fmtCsiK7Gs1zPIjf_14thiserror_impl, symObjAddr: 0x3220, symBinAddr: 0x3E040, symSize: 0x30 }
  - { offset: 0xB5576, size: 0x8, addend: 0x0, symName: __RNvXNtCs9OU1sGv5X54_5quote14ident_fragmentRReNtB2_13IdentFragment4spanCsiK7Gs1zPIjf_14thiserror_impl, symObjAddr: 0x3250, symBinAddr: 0x3E070, symSize: 0x30 }
  - { offset: 0xB55AB, size: 0x8, addend: 0x0, symName: __RNvXNtCs9OU1sGv5X54_5quote14ident_fragmentReNtB2_13IdentFragment3fmtCsiK7Gs1zPIjf_14thiserror_impl, symObjAddr: 0x3280, symBinAddr: 0x3E0A0, symSize: 0x40 }
  - { offset: 0xB55EE, size: 0x8, addend: 0x0, symName: __RNvXNtCs9OU1sGv5X54_5quote14ident_fragmentReNtB2_13IdentFragment4spanCsiK7Gs1zPIjf_14thiserror_impl, symObjAddr: 0x32C0, symBinAddr: 0x3E0E0, symSize: 0x30 }
  - { offset: 0xB5623, size: 0x8, addend: 0x0, symName: __RNvXNtCs9OU1sGv5X54_5quote14ident_fragmentRmNtB2_13IdentFragment3fmtCsiK7Gs1zPIjf_14thiserror_impl, symObjAddr: 0x32F0, symBinAddr: 0x3E110, symSize: 0x30 }
  - { offset: 0xB566C, size: 0x8, addend: 0x0, symName: __RNvYeNtNtCs9OU1sGv5X54_5quote14ident_fragment13IdentFragment4spanCsiK7Gs1zPIjf_14thiserror_impl, symObjAddr: 0x3D90, symBinAddr: 0x3EBB0, symSize: 0x20 }
  - { offset: 0xB56BE, size: 0x8, addend: 0x0, symName: __RINvMNtNtCsieiGu2EXtoJ_4core3fmt2rtNtB3_8Argument11new_displayINtNtCs9OU1sGv5X54_5quote9___private20IdentFragmentAdapterRNtNtCsdGrGZaRBwMb_3syn4expr5IndexEECsiK7Gs1zPIjf_14thiserror_impl, symObjAddr: 0x60, symBinAddr: 0x3AE80, symSize: 0x30 }
  - { offset: 0xB5703, size: 0x8, addend: 0x0, symName: __RINvMNtNtCsieiGu2EXtoJ_4core3fmt2rtNtB3_8Argument11new_displayINtNtCs9OU1sGv5X54_5quote9___private20IdentFragmentAdapterRNtNtCslJiobkLta79_5alloc6string6StringEECsiK7Gs1zPIjf_14thiserror_impl, symObjAddr: 0x90, symBinAddr: 0x3AEB0, symSize: 0x30 }
  - { offset: 0xB5748, size: 0x8, addend: 0x0, symName: __RINvMNtNtCsieiGu2EXtoJ_4core3fmt2rtNtB3_8Argument11new_displayINtNtCs9OU1sGv5X54_5quote9___private20IdentFragmentAdapterRRNtNtCsdGrGZaRBwMb_3syn4expr5IndexEECsiK7Gs1zPIjf_14thiserror_impl, symObjAddr: 0xC0, symBinAddr: 0x3AEE0, symSize: 0x30 }
  - { offset: 0xB578D, size: 0x8, addend: 0x0, symName: __RINvMNtNtCsieiGu2EXtoJ_4core3fmt2rtNtB3_8Argument11new_displayINtNtCs9OU1sGv5X54_5quote9___private20IdentFragmentAdapterRReEECsiK7Gs1zPIjf_14thiserror_impl, symObjAddr: 0xF0, symBinAddr: 0x3AF10, symSize: 0x30 }
  - { offset: 0xB57D2, size: 0x8, addend: 0x0, symName: __RINvMNtNtCsieiGu2EXtoJ_4core3fmt2rtNtB3_8Argument11new_displayINtNtCs9OU1sGv5X54_5quote9___private20IdentFragmentAdapterRmEECsiK7Gs1zPIjf_14thiserror_impl, symObjAddr: 0x120, symBinAddr: 0x3AF40, symSize: 0x30 }
  - { offset: 0xB580A, size: 0x8, addend: 0x0, symName: __RINvMNtNtCsieiGu2EXtoJ_4core3fmt2rtNtB3_8Argument11new_displayNtNtCsiK7Gs1zPIjf_14thiserror_impl3ast13ContainerKindEB12_, symObjAddr: 0x150, symBinAddr: 0x3AF70, symSize: 0x30 }
  - { offset: 0xB585C, size: 0x8, addend: 0x0, symName: __RINvMNtNtCsieiGu2EXtoJ_4core3fmt2rtNtB3_8Argument11new_displayNtNtNtCsdGrGZaRBwMb_3syn4attr7parsing16DisplayAttrStyleECsiK7Gs1zPIjf_14thiserror_impl, symObjAddr: 0x180, symBinAddr: 0x3AFA0, symSize: 0x30 }
  - { offset: 0xB6662, size: 0x8, addend: 0x0, symName: __RNvMNtNtNtCsieiGu2EXtoJ_4core5slice4sort6stableINtB2_14AlignedStorageRNtCsaKzlTDPUHDb_11proc_macro25IdentKj1000_E19as_uninit_slice_mutCsiK7Gs1zPIjf_14thiserror_impl, symObjAddr: 0x2AF0, symBinAddr: 0x3D910, symSize: 0x60 }
  - { offset: 0xB6716, size: 0x8, addend: 0x0, symName: __RNvMNtNtNtNtCsieiGu2EXtoJ_4core5slice4sort6stable9quicksortINtB2_14PartitionStateRNtCsaKzlTDPUHDb_11proc_macro25IdentE13partition_oneCsiK7Gs1zPIjf_14thiserror_impl, symObjAddr: 0x2B50, symBinAddr: 0x3D970, symSize: 0x120 }
  - { offset: 0xB7089, size: 0x8, addend: 0x0, symName: __RINvMNtNtNtNtCsieiGu2EXtoJ_4core5slice4sort6stable5mergeINtB3_10MergeStateRNtCsaKzlTDPUHDb_11proc_macro25IdentE10merge_downNvYB1a_NtNtBb_3cmp10PartialOrd2ltECsiK7Gs1zPIjf_14thiserror_impl, symObjAddr: 0x0, symBinAddr: 0x3EBD0, symSize: 0x220 }
  - { offset: 0xB9179, size: 0x8, addend: 0x0, symName: __RINvNtNtNtNtCsieiGu2EXtoJ_4core5slice4sort6stable5merge5mergeRNtCsaKzlTDPUHDb_11proc_macro25IdentNvYBX_NtNtBa_3cmp10PartialOrd2ltECsiK7Gs1zPIjf_14thiserror_impl, symObjAddr: 0x510, symBinAddr: 0x3F0E0, symSize: 0x440 }
  - { offset: 0xB93ED, size: 0x8, addend: 0x0, symName: __RNvXs_NtNtNtNtCsieiGu2EXtoJ_4core5slice4sort6stable5mergeINtB4_10MergeStateRNtCsaKzlTDPUHDb_11proc_macro25IdentENtNtNtBc_3ops4drop4Drop4dropCsiK7Gs1zPIjf_14thiserror_impl, symObjAddr: 0x2EB0, symBinAddr: 0x41A80, symSize: 0xD0 }
  - { offset: 0xBC8CC, size: 0x8, addend: 0x0, symName: __RNCNvMs3_NtNtNtCsieiGu2EXtoJ_4core4iter8adapters8peekableINtB7_8PeekableINtNtB9_3map3MapINtNtNtBd_5slice4iter4IterNtNtCsiK7Gs1zPIjf_14thiserror_impl3ast5FieldENCNvNtB1S_6expand10fields_pat0EE4peek0B1S_, symObjAddr: 0xEB0, symBinAddr: 0x3FA80, symSize: 0x20 }
  - { offset: 0xBC903, size: 0x8, addend: 0x0, symName: __RNCNvMs3_NtNtNtCsieiGu2EXtoJ_4core4iter8adapters8peekableINtB7_8PeekableINtNtB9_3map3MapINtNtNtCslJiobkLta79_5alloc3vec9into_iter8IntoIterRNtCsaKzlTDPUHDb_11proc_macro25IdentENCINvMse_NtNtNtB1v_11collections5btree3setINtB2W_8BTreeSetB2c_E16from_sorted_iterB1o_E0EE4peek0CsiK7Gs1zPIjf_14thiserror_impl, symObjAddr: 0xED0, symBinAddr: 0x3FAA0, symSize: 0x20 }
  - { offset: 0xBC941, size: 0x8, addend: 0x0, symName: __RNvXs_NtNtNtCsieiGu2EXtoJ_4core4iter8adapters8peekableINtB4_8PeekableINtNtB6_3map3MapINtNtNtBa_5slice4iter4IterNtNtCsiK7Gs1zPIjf_14thiserror_impl3ast5FieldENCNvNtB1P_6expand10fields_pat0EENtNtNtB8_6traits8iterator8Iterator4nextB1P_, symObjAddr: 0x2E40, symBinAddr: 0x41A10, symSize: 0x70 }
  - { offset: 0xBC9DA, size: 0x8, addend: 0x0, symName: __RNvXs0_NtNtNtCsieiGu2EXtoJ_4core4iter8adapters10filter_mapINtB5_9FilterMapINtNtNtBb_5slice4iter4IterNtNtCsiK7Gs1zPIjf_14thiserror_impl3ast7VariantENCNvNtB1E_6expand9impl_enums2_0ENtNtNtB9_6traits8iterator8Iterator4nextB1E_, symObjAddr: 0x2D10, symBinAddr: 0x418E0, symSize: 0x30 }
  - { offset: 0xBCA66, size: 0x8, addend: 0x0, symName: __RINvYINtNtNtCslJiobkLta79_5alloc3vec9into_iter8IntoIterNtCsaKzlTDPUHDb_11proc_macro29TokenTreeENtNtNtNtCsieiGu2EXtoJ_4core4iter6traits8iterator8Iterator3mapNtCscKtU6MdFI5n_10proc_macro9TokenTreeNvNtBT_3imp19into_compiler_tokenECsiK7Gs1zPIjf_14thiserror_impl, symObjAddr: 0xCB0, symBinAddr: 0x3F880, symSize: 0x30 }
  - { offset: 0xBCAD3, size: 0x8, addend: 0x0, symName: __RINvYINtNtNtCslJiobkLta79_5alloc3vec9into_iter8IntoIterNtCsaKzlTDPUHDb_11proc_macro29TokenTreeENtNtNtNtCsieiGu2EXtoJ_4core4iter6traits8iterator8Iterator7collectNtNtBT_3imp11TokenStreamECsiK7Gs1zPIjf_14thiserror_impl, symObjAddr: 0xCE0, symBinAddr: 0x3F8B0, symSize: 0x70 }
  - { offset: 0xBCB69, size: 0x8, addend: 0x0, symName: __RINvYINtNtNtCslJiobkLta79_5alloc3vec9into_iter8IntoIterNtCsaKzlTDPUHDb_11proc_macro29TokenTreeENtNtNtNtCsieiGu2EXtoJ_4core4iter6traits8iterator8Iterator7collectNtNtBT_8fallback11TokenStreamECsiK7Gs1zPIjf_14thiserror_impl, symObjAddr: 0xD50, symBinAddr: 0x3F920, symSize: 0x70 }
  - { offset: 0xBCBFF, size: 0x8, addend: 0x0, symName: __RINvYINtNtNtCslJiobkLta79_5alloc3vec9into_iter8IntoIterNtCsaKzlTDPUHDb_11proc_macro29TokenTreeENtNtNtNtCsieiGu2EXtoJ_4core4iter6traits8iterator8Iterator8for_eachNCINvXsa_NtBT_8fallbackNtB2I_11TokenStreamINtNtB1z_7collect6ExtendBR_E6extendB3_E0ECsiK7Gs1zPIjf_14thiserror_impl, symObjAddr: 0xDC0, symBinAddr: 0x3F990, symSize: 0x20 }
  - { offset: 0xBCC4B, size: 0x8, addend: 0x0, symName: __RINvYINtNtNtCslJiobkLta79_5alloc3vec9into_iter8IntoIterRNtCsaKzlTDPUHDb_11proc_macro25IdentENtNtNtNtCsieiGu2EXtoJ_4core4iter6traits8iterator8Iterator3mapTBR_NtNtNtNtBa_11collections5btree7set_val9SetValZSTENCINvMse_NtB2z_3setINtB3r_8BTreeSetBR_E16from_sorted_iterB3_E0ECsiK7Gs1zPIjf_14thiserror_impl, symObjAddr: 0xDE0, symBinAddr: 0x3F9B0, symSize: 0x30 }
  - { offset: 0xBCCB8, size: 0x8, addend: 0x0, symName: __RINvYINtNtNtNtCsieiGu2EXtoJ_4core4iter8adapters8peekable8PeekableINtNtB8_3map3MapINtNtNtBc_5slice4iter4IterNtNtCsiK7Gs1zPIjf_14thiserror_impl3ast5FieldENCNvNtB1L_6expand10fields_pat0EENtNtNtBa_6traits8iterator8Iterator3mapNtCsaKzlTDPUHDb_11proc_macro25IdentNCB2s_s_0EB1L_, symObjAddr: 0xE10, symBinAddr: 0x3F9E0, symSize: 0x30 }
  - { offset: 0xBCD63, size: 0x8, addend: 0x0, symName: __RNvXNtNtNtCsieiGu2EXtoJ_4core4iter6traits7collectINtNtNtCslJiobkLta79_5alloc3vec9into_iter8IntoIterNtCsaKzlTDPUHDb_11proc_macro29TokenTreeENtB2_12IntoIterator9into_iterCsiK7Gs1zPIjf_14thiserror_impl, symObjAddr: 0x2C70, symBinAddr: 0x41840, symSize: 0x30 }
  - { offset: 0xBCDD1, size: 0x8, addend: 0x0, symName: __RNvYINtNtNtCslJiobkLta79_5alloc3vec9into_iter8IntoIterRNtCsaKzlTDPUHDb_11proc_macro25IdentENtNtNtNtCsieiGu2EXtoJ_4core4iter6traits10exact_size17ExactSizeIterator3lenCsiK7Gs1zPIjf_14thiserror_impl, symObjAddr: 0x3000, symBinAddr: 0x41BD0, symSize: 0xE0 }
  - { offset: 0xBD1EB, size: 0x8, addend: 0x0, symName: __RNvMNtCsieiGu2EXtoJ_4core3stre16split_at_checkedCsiK7Gs1zPIjf_14thiserror_impl, symObjAddr: 0x14E0, symBinAddr: 0x400B0, symSize: 0xF0 }
  - { offset: 0xBD29E, size: 0x8, addend: 0x0, symName: __RNvMNtCsieiGu2EXtoJ_4core3stre18split_at_uncheckedCsiK7Gs1zPIjf_14thiserror_impl, symObjAddr: 0x15D0, symBinAddr: 0x401A0, symSize: 0xF0 }
  - { offset: 0xBD473, size: 0x8, addend: 0x0, symName: __RNvMNtCsieiGu2EXtoJ_4core3stre3lenCsiK7Gs1zPIjf_14thiserror_impl, symObjAddr: 0x16C0, symBinAddr: 0x40290, symSize: 0x20 }
  - { offset: 0xBD49F, size: 0x8, addend: 0x0, symName: __RNvMNtCsieiGu2EXtoJ_4core3stre5charsCsiK7Gs1zPIjf_14thiserror_impl, symObjAddr: 0x16E0, symBinAddr: 0x402B0, symSize: 0x20 }
  - { offset: 0xBD50D, size: 0x8, addend: 0x0, symName: __RNvMNtCsieiGu2EXtoJ_4core3stre8split_atCsiK7Gs1zPIjf_14thiserror_impl, symObjAddr: 0x1700, symBinAddr: 0x402D0, symSize: 0xA0 }
  - { offset: 0xBD795, size: 0x8, addend: 0x0, symName: __RINvXs3_NtNtCslJiobkLta79_5alloc3vec9into_iterINtB6_8IntoIterNtCsaKzlTDPUHDb_11proc_macro29TokenTreeENtNtNtNtCsieiGu2EXtoJ_4core4iter6traits8iterator8Iterator4folduNCINvNtNtB1H_8adapters3map8map_foldBX_NtCscKtU6MdFI5n_10proc_macro9TokenTreeuNvNtBZ_3imp19into_compiler_tokenNCINvNvB1B_8for_each4callB3e_NCINvXsg_B3g_NtB3g_11TokenStreamINtNtB1F_7collect12FromIteratorB3e_E9from_iterINtB2H_3MapBI_B3R_EE0E0E0ECsiK7Gs1zPIjf_14thiserror_impl, symObjAddr: 0x9F0, symBinAddr: 0x3F5C0, symSize: 0x160 }
  - { offset: 0xBD94F, size: 0x8, addend: 0x0, symName: __RINvXs3_NtNtCslJiobkLta79_5alloc3vec9into_iterINtB6_8IntoIterNtCsaKzlTDPUHDb_11proc_macro29TokenTreeENtNtNtNtCsieiGu2EXtoJ_4core4iter6traits8iterator8Iterator4folduNCINvNvB1B_8for_each4callBX_NCINvXsa_NtBZ_8fallbackNtB3d_11TokenStreamINtNtB1F_7collect6ExtendBX_E6extendBI_E0E0ECsiK7Gs1zPIjf_14thiserror_impl, symObjAddr: 0xB50, symBinAddr: 0x3F720, symSize: 0x160 }
  - { offset: 0xBDB09, size: 0x8, addend: 0x0, symName: __RNvXs3_NtNtCslJiobkLta79_5alloc3vec9into_iterINtB5_8IntoIterRNtCsaKzlTDPUHDb_11proc_macro25IdentENtNtNtNtCsieiGu2EXtoJ_4core4iter6traits8iterator8Iterator4nextCsiK7Gs1zPIjf_14thiserror_impl, symObjAddr: 0x2D40, symBinAddr: 0x41910, symSize: 0xA0 }
  - { offset: 0xBDC67, size: 0x8, addend: 0x0, symName: __RNvXs3_NtNtCslJiobkLta79_5alloc3vec9into_iterINtB5_8IntoIterRNtCsaKzlTDPUHDb_11proc_macro25IdentENtNtNtNtCsieiGu2EXtoJ_4core4iter6traits8iterator8Iterator9size_hintCsiK7Gs1zPIjf_14thiserror_impl, symObjAddr: 0x2DE0, symBinAddr: 0x419B0, symSize: 0x60 }
  - { offset: 0xBDDBF, size: 0x8, addend: 0x0, symName: __RNvXNvXsd_NtNtCslJiobkLta79_5alloc3vec9into_iterINtB8_8IntoIterppENtNtNtCsieiGu2EXtoJ_4core3ops4drop4Drop4dropINtB2_9DropGuardRNtCsaKzlTDPUHDb_11proc_macro25IdentNtNtBc_5alloc6GlobalEB12_4dropCsiK7Gs1zPIjf_14thiserror_impl, symObjAddr: 0x2CA0, symBinAddr: 0x41870, symSize: 0x70 }
  - { offset: 0xBDEFD, size: 0x8, addend: 0x0, symName: __RNvXsd_NtNtCslJiobkLta79_5alloc3vec9into_iterINtB5_8IntoIterRNtCsaKzlTDPUHDb_11proc_macro25IdentENtNtNtCsieiGu2EXtoJ_4core3ops4drop4Drop4dropCsiK7Gs1zPIjf_14thiserror_impl, symObjAddr: 0x2F80, symBinAddr: 0x41B50, symSize: 0x80 }
  - { offset: 0xBEE03, size: 0x8, addend: 0x0, symName: __RNCNvMs6_NtNtNtNtCslJiobkLta79_5alloc11collections5btree3map5entryINtB7_11VacantEntryNtNtBf_6string6StringNtNtBb_7set_val9SetValZSTE12insert_entry0CsiK7Gs1zPIjf_14thiserror_impl, symObjAddr: 0xEF0, symBinAddr: 0x3FAC0, symSize: 0x170 }
  - { offset: 0xBEF62, size: 0x8, addend: 0x0, symName: __RNCNvMs6_NtNtNtNtCslJiobkLta79_5alloc11collections5btree3map5entryINtB7_11VacantEntryNtNtBf_6string6StringTINtNtBb_3set8BTreeSetB1l_EINtNtCsdGrGZaRBwMb_3syn10punctuated10PunctuatedNtCsaKzlTDPUHDb_11proc_macro211TokenStreamNtNtB2c_5token4PlusEEE12insert_entry0CsiK7Gs1zPIjf_14thiserror_impl, symObjAddr: 0x1060, symBinAddr: 0x3FC30, symSize: 0x1E0 }
  - { offset: 0xBF0C1, size: 0x8, addend: 0x0, symName: __RNCNvMs6_NtNtNtNtCslJiobkLta79_5alloc11collections5btree3map5entryINtB7_11VacantEntryNtNtCsiK7Gs1zPIjf_14thiserror_impl5unraw10IdentUnrawNtNtBb_7set_val9SetValZSTE12insert_entry0B1p_, symObjAddr: 0x1240, symBinAddr: 0x3FE10, symSize: 0x170 }
  - { offset: 0xBF220, size: 0x8, addend: 0x0, symName: __RNCNvMs6_NtNtNtNtCslJiobkLta79_5alloc11collections5btree3map5entryINtB7_11VacantEntryTjNtNtCsiK7Gs1zPIjf_14thiserror_impl4attr5TraitENtNtBb_7set_val9SetValZSTE12insert_entry0B1r_, symObjAddr: 0x13B0, symBinAddr: 0x3FF80, symSize: 0x130 }
  - { offset: 0xC10D3, size: 0x8, addend: 0x0, symName: __RINvMNtNtNtNtCsieiGu2EXtoJ_4core5slice4sort6stable5mergeINtB3_10MergeStateRNtCsaKzlTDPUHDb_11proc_macro25IdentE10merge_downNvYB1a_NtNtBb_3cmp10PartialOrd2ltECsiK7Gs1zPIjf_14thiserror_impl, symObjAddr: 0x0, symBinAddr: 0x3EBD0, symSize: 0x220 }
  - { offset: 0xC1267, size: 0x8, addend: 0x0, symName: __RINvMNtNtNtNtCsieiGu2EXtoJ_4core5slice4sort6stable5mergeINtB3_10MergeStateRNtCsaKzlTDPUHDb_11proc_macro25IdentE8merge_upNvYB1a_NtNtBb_3cmp10PartialOrd2ltECsiK7Gs1zPIjf_14thiserror_impl, symObjAddr: 0x220, symBinAddr: 0x3EDF0, symSize: 0x1A0 }
  - { offset: 0xC1567, size: 0x8, addend: 0x0, symName: __RNCINvNtCsjK30CmJ87bX_9hashbrown3map14equivalent_keyNtNtCsiK7Gs1zPIjf_14thiserror_impl5unraw11MemberUnrawRBO_jE0BS_, symObjAddr: 0xE70, symBinAddr: 0x3FA40, symSize: 0x20 }
  - { offset: 0xC15BE, size: 0x8, addend: 0x0, symName: __RNCINvNtCsjK30CmJ87bX_9hashbrown3map14equivalent_keyRNtNtCsiK7Gs1zPIjf_14thiserror_impl5unraw11MemberUnrawBO_jE0BT_, symObjAddr: 0xE90, symBinAddr: 0x3FA60, symSize: 0x20 }
  - { offset: 0xC16C4, size: 0x8, addend: 0x0, symName: __RNCINvNtCsjK30CmJ87bX_9hashbrown3map11make_hasherRNtNtCsiK7Gs1zPIjf_14thiserror_impl5unraw11MemberUnrawjNtNtNtCsHUR1vrdMJt_3std4hash6random11RandomStateE0BQ_, symObjAddr: 0xE40, symBinAddr: 0x3FA10, symSize: 0x30 }
  - { offset: 0xC670C, size: 0x8, addend: 0x0, symName: __RINvNvNtCsHUR1vrdMJt_3std9panicking12catch_unwind7do_callINtNtNtCsieiGu2EXtoJ_4core5panic11unwind_safe16AssertUnwindSafeNCINvNtNtCscKtU6MdFI5n_10proc_macro6bridge6client10run_clientNtB1Z_11TokenStreamINtNtB10_6option6OptionB2T_ENCNCINvMs6_B1Z_INtB1Z_6ClientNtB23_11TokenStreamB47_E7expand1NvCsiK7Gs1zPIjf_14thiserror_impl12derive_errorE00E0EuEB4F_, symObjAddr: 0x950, symBinAddr: 0x3F520, symSize: 0x40 }
  - { offset: 0xC67D5, size: 0x8, addend: 0x0, symName: __RINvNvNtCsHUR1vrdMJt_3std9panicking12catch_unwind8do_catchINtNtNtCsieiGu2EXtoJ_4core5panic11unwind_safe16AssertUnwindSafeNCINvNtNtCscKtU6MdFI5n_10proc_macro6bridge6client10run_clientNtB20_11TokenStreamINtNtB11_6option6OptionB2U_ENCNCINvMs6_B20_INtB20_6ClientNtB24_11TokenStreamB48_E7expand1NvCsiK7Gs1zPIjf_14thiserror_impl12derive_errorE00E0EuEB4G_, symObjAddr: 0x990, symBinAddr: 0x3F560, symSize: 0x60 }
  - { offset: 0xC695C, size: 0x8, addend: 0x0, symName: __RINvMs0_NtNtNtCsHUR1vrdMJt_3std11collections4hash3mapINtB6_7HashMapRNtNtCsiK7Gs1zPIjf_14thiserror_impl5unraw11MemberUnrawjE3getB14_EB18_, symObjAddr: 0x3C0, symBinAddr: 0x3EF90, symSize: 0x60 }
  - { offset: 0xC6AE9, size: 0x8, addend: 0x0, symName: __RINvMs1_NtCsjK30CmJ87bX_9hashbrown3mapINtB6_7HashMapRNtNtCsiK7Gs1zPIjf_14thiserror_impl5unraw11MemberUnrawjNtNtNtCsHUR1vrdMJt_3std4hash6random11RandomStateE9get_innerBP_EBT_, symObjAddr: 0x420, symBinAddr: 0x3EFF0, symSize: 0xF0 }
  - { offset: 0xC7CC2, size: 0x8, addend: 0x0, symName: __RNvMNtNtNtCsHUR1vrdMJt_3std11collections4hash3mapINtB2_7HashMapRNtNtCsiK7Gs1zPIjf_14thiserror_impl5unraw11MemberUnrawjE3newB14_, symObjAddr: 0x17A0, symBinAddr: 0x40370, symSize: 0xA0 }
  - { offset: 0xC7D7E, size: 0x8, addend: 0x0, symName: __RNvMs0_NtNtNtCsHUR1vrdMJt_3std11collections4hash3mapINtB5_7HashMapRNtNtCsiK7Gs1zPIjf_14thiserror_impl5unraw11MemberUnrawjE6insertB17_, symObjAddr: 0x1840, symBinAddr: 0x40410, symSize: 0x20 }
  - { offset: 0xC7EAD, size: 0x8, addend: 0x0, symName: __RNvMs1_NtCsjK30CmJ87bX_9hashbrown3mapINtB5_7HashMapRNtNtCsiK7Gs1zPIjf_14thiserror_impl5unraw11MemberUnrawjNtNtNtCsHUR1vrdMJt_3std4hash6random11RandomStateE6insertBS_, symObjAddr: 0x1860, symBinAddr: 0x40430, symSize: 0x1F0 }
  - { offset: 0xC808A, size: 0x8, addend: 0x0, symName: __RNvMs3_NtNtNtCsieiGu2EXtoJ_4core4iter8adapters8peekableINtB5_8PeekableINtNtB7_3map3MapINtNtNtBb_5slice4iter4IterNtNtCsiK7Gs1zPIjf_14thiserror_impl3ast5FieldENCNvNtB1Q_6expand10fields_pat0EE4peekB1Q_, symObjAddr: 0x1A50, symBinAddr: 0x40620, symSize: 0x60 }
  - { offset: 0xC8199, size: 0x8, addend: 0x0, symName: __RNvMs5_NtNtNtNtCslJiobkLta79_5alloc11collections5btree3map5entryINtB5_5EntryNtNtBd_6string6StringTINtNtB9_3set8BTreeSetB1c_EINtNtCsdGrGZaRBwMb_3syn10punctuated10PunctuatedNtCsaKzlTDPUHDb_11proc_macro211TokenStreamNtNtB23_5token4PlusEEE10or_defaultCsiK7Gs1zPIjf_14thiserror_impl, symObjAddr: 0x1AB0, symBinAddr: 0x40680, symSize: 0x1C0 }
  - { offset: 0xC846B, size: 0x8, addend: 0x0, symName: __RNvMs6_NtNtNtNtCslJiobkLta79_5alloc11collections5btree3map5entryINtB5_11VacantEntryNtNtBd_6string6StringNtNtB9_7set_val9SetValZSTE12insert_entryCsiK7Gs1zPIjf_14thiserror_impl, symObjAddr: 0x1C70, symBinAddr: 0x40840, symSize: 0x360 }
  - { offset: 0xC8920, size: 0x8, addend: 0x0, symName: __RNvMs6_NtNtNtNtCslJiobkLta79_5alloc11collections5btree3map5entryINtB5_11VacantEntryNtNtBd_6string6StringTINtNtB9_3set8BTreeSetB1j_EINtNtCsdGrGZaRBwMb_3syn10punctuated10PunctuatedNtCsaKzlTDPUHDb_11proc_macro211TokenStreamNtNtB2a_5token4PlusEEE12insert_entryCsiK7Gs1zPIjf_14thiserror_impl, symObjAddr: 0x1FD0, symBinAddr: 0x40BA0, symSize: 0x430 }
  - { offset: 0xC8DE2, size: 0x8, addend: 0x0, symName: __RNvMs6_NtNtNtNtCslJiobkLta79_5alloc11collections5btree3map5entryINtB5_11VacantEntryNtNtCsiK7Gs1zPIjf_14thiserror_impl5unraw10IdentUnrawNtNtB9_7set_val9SetValZSTE12insert_entryB1n_, symObjAddr: 0x2400, symBinAddr: 0x40FD0, symSize: 0x360 }
  - { offset: 0xC92A4, size: 0x8, addend: 0x0, symName: __RNvMs6_NtNtNtNtCslJiobkLta79_5alloc11collections5btree3map5entryINtB5_11VacantEntryTjNtNtCsiK7Gs1zPIjf_14thiserror_impl4attr5TraitENtNtB9_7set_val9SetValZSTE12insert_entryB1p_, symObjAddr: 0x2760, symBinAddr: 0x41330, symSize: 0x310 }
  - { offset: 0xC9597, size: 0x8, addend: 0x0, symName: __RNvMs7_NtNtNtNtCslJiobkLta79_5alloc11collections5btree3map5entryINtB5_13OccupiedEntryNtNtBd_6string6StringNtNtB9_7set_val9SetValZSTE6insertCsiK7Gs1zPIjf_14thiserror_impl, symObjAddr: 0x2A70, symBinAddr: 0x41640, symSize: 0x40 }
  - { offset: 0xC95FA, size: 0x8, addend: 0x0, symName: __RNvMs7_NtNtNtNtCslJiobkLta79_5alloc11collections5btree3map5entryINtB5_13OccupiedEntryNtNtBd_6string6StringNtNtB9_7set_val9SetValZSTE8into_mutCsiK7Gs1zPIjf_14thiserror_impl, symObjAddr: 0x2AB0, symBinAddr: 0x41680, symSize: 0x50 }
  - { offset: 0xC9639, size: 0x8, addend: 0x0, symName: __RNvMs7_NtNtNtNtCslJiobkLta79_5alloc11collections5btree3map5entryINtB5_13OccupiedEntryNtNtBd_6string6StringTINtNtB9_3set8BTreeSetB1l_EINtNtCsdGrGZaRBwMb_3syn10punctuated10PunctuatedNtCsaKzlTDPUHDb_11proc_macro211TokenStreamNtNtB2c_5token4PlusEEE8into_mutCsiK7Gs1zPIjf_14thiserror_impl, symObjAddr: 0x2B00, symBinAddr: 0x416D0, symSize: 0x50 }
  - { offset: 0xC96B3, size: 0x8, addend: 0x0, symName: __RNvMs7_NtNtNtNtCslJiobkLta79_5alloc11collections5btree3map5entryINtB5_13OccupiedEntryNtNtCsiK7Gs1zPIjf_14thiserror_impl5unraw10IdentUnrawNtNtB9_7set_val9SetValZSTE6insertB1p_, symObjAddr: 0x2B50, symBinAddr: 0x41720, symSize: 0x40 }
  - { offset: 0xC9716, size: 0x8, addend: 0x0, symName: __RNvMs7_NtNtNtNtCslJiobkLta79_5alloc11collections5btree3map5entryINtB5_13OccupiedEntryNtNtCsiK7Gs1zPIjf_14thiserror_impl5unraw10IdentUnrawNtNtB9_7set_val9SetValZSTE8into_mutB1p_, symObjAddr: 0x2B90, symBinAddr: 0x41760, symSize: 0x50 }
  - { offset: 0xC9790, size: 0x8, addend: 0x0, symName: __RNvMs7_NtNtNtNtCslJiobkLta79_5alloc11collections5btree3map5entryINtB5_13OccupiedEntryTjNtNtCsiK7Gs1zPIjf_14thiserror_impl4attr5TraitENtNtB9_7set_val9SetValZSTE6insertB1r_, symObjAddr: 0x2BE0, symBinAddr: 0x417B0, symSize: 0x40 }
  - { offset: 0xC97F3, size: 0x8, addend: 0x0, symName: __RNvMs7_NtNtNtNtCslJiobkLta79_5alloc11collections5btree3map5entryINtB5_13OccupiedEntryTjNtNtCsiK7Gs1zPIjf_14thiserror_impl4attr5TraitENtNtB9_7set_val9SetValZSTE8into_mutB1r_, symObjAddr: 0x2C20, symBinAddr: 0x417F0, symSize: 0x50 }
  - { offset: 0xC99D8, size: 0x8, addend: 0x0, symName: __RNvYINtNtNtNtCsieiGu2EXtoJ_4core4iter8adapters10filter_map9FilterMapINtNtNtBb_5slice4iter4IterNtNtCsiK7Gs1zPIjf_14thiserror_impl3ast7VariantENCNvNtB1y_6expand9impl_enums2_0ENtNtNtCs9OU1sGv5X54_5quote9___private3ext14RepIteratorExt15quote_into_iterB1y_, symObjAddr: 0x30E0, symBinAddr: 0x41CB0, symSize: 0x30 }
  - { offset: 0xC9A0E, size: 0x8, addend: 0x0, symName: __RNvYINtNtNtNtCsieiGu2EXtoJ_4core4iter8adapters8peekable8PeekableINtNtB7_3map3MapINtNtNtBb_5slice4iter4IterNtNtCsiK7Gs1zPIjf_14thiserror_impl3ast5FieldENCNvNtB1K_6expand10fields_pat0EENtNtNtCs9OU1sGv5X54_5quote9___private3ext14RepIteratorExt15quote_into_iterB1K_, symObjAddr: 0x3110, symBinAddr: 0x41CE0, symSize: 0x30 }
  - { offset: 0xC9C28, size: 0x8, addend: 0x0, symName: __RINvMs_NtNtCsieiGu2EXtoJ_4core3fmt2rtNtB7_9Arguments6new_v1Kj3_Kj2_ECsiK7Gs1zPIjf_14thiserror_impl, symObjAddr: 0x0, symBinAddr: 0x41D10, symSize: 0x40 }
  - { offset: 0xCA120, size: 0x8, addend: 0x0, symName: __RNCNCNvXsx_NtCsdGrGZaRBwMb_3syn10punctuatedINtB9_11PrivateIterNtNtBb_4data7VariantNtNtBb_5token5CommaENtNtNtNtCsieiGu2EXtoJ_4core4iter6traits12double_ended19DoubleEndedIterator9next_back00CsiK7Gs1zPIjf_14thiserror_impl, symObjAddr: 0xB60, symBinAddr: 0x42870, symSize: 0x10 }
  - { offset: 0xCA16B, size: 0x8, addend: 0x0, symName: __RNCNCNvXsx_NtCsdGrGZaRBwMb_3syn10punctuatedINtB9_11PrivateIterNtNtBb_4path15GenericArgumentNtNtBb_5token5CommaENtNtNtNtCsieiGu2EXtoJ_4core4iter6traits12double_ended19DoubleEndedIterator9next_back00CsiK7Gs1zPIjf_14thiserror_impl, symObjAddr: 0xB70, symBinAddr: 0x42880, symSize: 0x10 }
  - { offset: 0xCA1C5, size: 0x8, addend: 0x0, symName: __RNCNvXsx_NtCsdGrGZaRBwMb_3syn10punctuatedINtB7_11PrivateIterNtNtB9_4data7VariantNtNtB9_5token5CommaENtNtNtNtCsieiGu2EXtoJ_4core4iter6traits12double_ended19DoubleEndedIterator9next_back0CsiK7Gs1zPIjf_14thiserror_impl, symObjAddr: 0xC60, symBinAddr: 0x42970, symSize: 0x30 }
  - { offset: 0xCA207, size: 0x8, addend: 0x0, symName: __RNCNvXsx_NtCsdGrGZaRBwMb_3syn10punctuatedINtB7_11PrivateIterNtNtB9_4path15GenericArgumentNtNtB9_5token5CommaENtNtNtNtCsieiGu2EXtoJ_4core4iter6traits12double_ended19DoubleEndedIterator9next_back0CsiK7Gs1zPIjf_14thiserror_impl, symObjAddr: 0xC90, symBinAddr: 0x429A0, symSize: 0x30 }
  - { offset: 0xCA24A, size: 0x8, addend: 0x0, symName: __RNvXsx_NtCsdGrGZaRBwMb_3syn10punctuatedINtB5_11PrivateIterNtNtB7_4data7VariantNtNtB7_5token5CommaENtNtNtNtCsieiGu2EXtoJ_4core4iter6traits12double_ended19DoubleEndedIterator9next_backCsiK7Gs1zPIjf_14thiserror_impl, symObjAddr: 0x5180, symBinAddr: 0x46E90, symSize: 0x40 }
  - { offset: 0xCA28A, size: 0x8, addend: 0x0, symName: __RNvXsx_NtCsdGrGZaRBwMb_3syn10punctuatedINtB5_11PrivateIterNtNtB7_4path15GenericArgumentNtNtB7_5token5CommaENtNtNtNtCsieiGu2EXtoJ_4core4iter6traits12double_ended19DoubleEndedIterator9next_backCsiK7Gs1zPIjf_14thiserror_impl, symObjAddr: 0x51C0, symBinAddr: 0x46ED0, symSize: 0x40 }
  - { offset: 0xCA2D5, size: 0x8, addend: 0x0, symName: __RNCNvXsc_NtCsdGrGZaRBwMb_3syn10punctuatedINtB7_5PairsNtCsaKzlTDPUHDb_11proc_macro211TokenStreamNtNtB9_5token4PlusENtNtNtNtCsieiGu2EXtoJ_4core4iter6traits8iterator8Iterator4next0CsiK7Gs1zPIjf_14thiserror_impl, symObjAddr: 0xB80, symBinAddr: 0x42890, symSize: 0x30 }
  - { offset: 0xCA34A, size: 0x8, addend: 0x0, symName: __RNCNvXsc_NtCsdGrGZaRBwMb_3syn10punctuatedINtB7_5PairsNtCsaKzlTDPUHDb_11proc_macro211TokenStreamNtNtB9_5token4PlusENtNtNtNtCsieiGu2EXtoJ_4core4iter6traits8iterator8Iterator4nexts_0CsiK7Gs1zPIjf_14thiserror_impl, symObjAddr: 0xBB0, symBinAddr: 0x428C0, symSize: 0x50 }
  - { offset: 0xCA394, size: 0x8, addend: 0x0, symName: __RNvXsc_NtCsdGrGZaRBwMb_3syn10punctuatedINtB5_5PairsNtCsaKzlTDPUHDb_11proc_macro211TokenStreamNtNtB7_5token4PlusENtNtNtNtCsieiGu2EXtoJ_4core4iter6traits8iterator8Iterator4nextCsiK7Gs1zPIjf_14thiserror_impl, symObjAddr: 0x46B0, symBinAddr: 0x463C0, symSize: 0x60 }
  - { offset: 0xCA3DF, size: 0x8, addend: 0x0, symName: __RNCNvXsw_NtCsdGrGZaRBwMb_3syn10punctuatedINtB7_11PrivateIterNtNtB9_4data7VariantNtNtB9_5token5CommaENtNtNtNtCsieiGu2EXtoJ_4core4iter6traits8iterator8Iterator4next0CsiK7Gs1zPIjf_14thiserror_impl, symObjAddr: 0xC00, symBinAddr: 0x42910, symSize: 0x10 }
  - { offset: 0xCA42A, size: 0x8, addend: 0x0, symName: __RNCNvXsw_NtCsdGrGZaRBwMb_3syn10punctuatedINtB7_11PrivateIterNtNtB9_4data7VariantNtNtB9_5token5CommaENtNtNtNtCsieiGu2EXtoJ_4core4iter6traits8iterator8Iterator4nexts_0CsiK7Gs1zPIjf_14thiserror_impl, symObjAddr: 0xC10, symBinAddr: 0x42920, symSize: 0x20 }
  - { offset: 0xCA46C, size: 0x8, addend: 0x0, symName: __RNCNvXsw_NtCsdGrGZaRBwMb_3syn10punctuatedINtB7_11PrivateIterNtNtB9_4path15GenericArgumentNtNtB9_5token5CommaENtNtNtNtCsieiGu2EXtoJ_4core4iter6traits8iterator8Iterator4next0CsiK7Gs1zPIjf_14thiserror_impl, symObjAddr: 0xC30, symBinAddr: 0x42940, symSize: 0x10 }
  - { offset: 0xCA4B7, size: 0x8, addend: 0x0, symName: __RNCNvXsw_NtCsdGrGZaRBwMb_3syn10punctuatedINtB7_11PrivateIterNtNtB9_4path15GenericArgumentNtNtB9_5token5CommaENtNtNtNtCsieiGu2EXtoJ_4core4iter6traits8iterator8Iterator4nexts_0CsiK7Gs1zPIjf_14thiserror_impl, symObjAddr: 0xC40, symBinAddr: 0x42950, symSize: 0x20 }
  - { offset: 0xCA508, size: 0x8, addend: 0x0, symName: __RNvXsw_NtCsdGrGZaRBwMb_3syn10punctuatedINtB5_11PrivateIterNtNtB7_4data7VariantNtNtB7_5token5CommaENtNtNtNtCsieiGu2EXtoJ_4core4iter6traits8iterator8Iterator4nextCsiK7Gs1zPIjf_14thiserror_impl, symObjAddr: 0x50A0, symBinAddr: 0x46DB0, symSize: 0x40 }
  - { offset: 0xCA548, size: 0x8, addend: 0x0, symName: __RNvXsw_NtCsdGrGZaRBwMb_3syn10punctuatedINtB5_11PrivateIterNtNtB7_4path15GenericArgumentNtNtB7_5token5CommaENtNtNtNtCsieiGu2EXtoJ_4core4iter6traits8iterator8Iterator4nextCsiK7Gs1zPIjf_14thiserror_impl, symObjAddr: 0x50E0, symBinAddr: 0x46DF0, symSize: 0x40 }
  - { offset: 0xCA593, size: 0x8, addend: 0x0, symName: __RNcNtINtNtCsdGrGZaRBwMb_3syn10punctuated4PairRNtCsaKzlTDPUHDb_11proc_macro211TokenStreamRNtNtB8_5token4PlusE3End0CsiK7Gs1zPIjf_14thiserror_impl, symObjAddr: 0xCC0, symBinAddr: 0x429D0, symSize: 0x20 }
  - { offset: 0xCA747, size: 0x8, addend: 0x0, symName: __RNvXNtNtCsdGrGZaRBwMb_3syn10punctuated8printingINtB4_10PunctuatedNtCsaKzlTDPUHDb_11proc_macro211TokenStreamNtNtB6_5token4PlusENtNtCs9OU1sGv5X54_5quote9to_tokens8ToTokens9to_tokensCsiK7Gs1zPIjf_14thiserror_impl, symObjAddr: 0x3C30, symBinAddr: 0x45940, symSize: 0x40 }
  - { offset: 0xCA798, size: 0x8, addend: 0x0, symName: __RNvXs_NtNtCsdGrGZaRBwMb_3syn10punctuated8printingINtB6_4PairRNtCsaKzlTDPUHDb_11proc_macro211TokenStreamRNtNtB8_5token4PlusENtNtCs9OU1sGv5X54_5quote9to_tokens8ToTokens9to_tokensCsiK7Gs1zPIjf_14thiserror_impl, symObjAddr: 0x42B0, symBinAddr: 0x45FC0, symSize: 0x90 }
  - { offset: 0xCA82E, size: 0x8, addend: 0x0, symName: __RNvXs9_NtCsdGrGZaRBwMb_3syn10punctuatedRINtB5_10PunctuatedNtNtB7_4path11PathSegmentNtNtB7_5token7PathSepENtNtNtNtCsieiGu2EXtoJ_4core4iter6traits7collect12IntoIterator9into_iterCsiK7Gs1zPIjf_14thiserror_impl, symObjAddr: 0x3F90, symBinAddr: 0x45CA0, symSize: 0x20 }
  - { offset: 0xCA86E, size: 0x8, addend: 0x0, symName: __RNvXs9_NtCsdGrGZaRBwMb_3syn10punctuatedRINtB5_10PunctuatedNtNtB7_4path15GenericArgumentNtNtB7_5token5CommaENtNtNtNtCsieiGu2EXtoJ_4core4iter6traits7collect12IntoIterator9into_iterCsiK7Gs1zPIjf_14thiserror_impl, symObjAddr: 0x3FB0, symBinAddr: 0x45CC0, symSize: 0x20 }
  - { offset: 0xCA8B4, size: 0x8, addend: 0x0, symName: __RNvXsA_NtCsdGrGZaRBwMb_3syn10punctuatedINtB5_11PrivateIterNtNtB7_4data7VariantNtNtB7_5token5CommaEINtB5_9IterTraitBU_E9clone_boxCsiK7Gs1zPIjf_14thiserror_impl, symObjAddr: 0x3FD0, symBinAddr: 0x45CE0, symSize: 0x90 }
  - { offset: 0xCA913, size: 0x8, addend: 0x0, symName: __RNvXsA_NtCsdGrGZaRBwMb_3syn10punctuatedINtB5_11PrivateIterNtNtB7_4path15GenericArgumentNtNtB7_5token5CommaEINtB5_9IterTraitBU_E9clone_boxCsiK7Gs1zPIjf_14thiserror_impl, symObjAddr: 0x4060, symBinAddr: 0x45D70, symSize: 0x90 }
  - { offset: 0xCA978, size: 0x8, addend: 0x0, symName: __RNvXsN_NtCsdGrGZaRBwMb_3syn10punctuatedINtB5_10PunctuatedNtNtB7_4path15GenericArgumentNtNtB7_5token5CommaEINtNtNtCsieiGu2EXtoJ_4core3ops5index5IndexjE5indexCsiK7Gs1zPIjf_14thiserror_impl, symObjAddr: 0x40F0, symBinAddr: 0x45E00, symSize: 0x140 }
  - { offset: 0xCA9E3, size: 0x8, addend: 0x0, symName: __RNvXsb_NtCsdGrGZaRBwMb_3syn10punctuatedINtB5_10PunctuatedNtCsaKzlTDPUHDb_11proc_macro211TokenStreamNtNtB7_5token4PlusENtNtCsieiGu2EXtoJ_4core7default7Default7defaultCsiK7Gs1zPIjf_14thiserror_impl, symObjAddr: 0x4610, symBinAddr: 0x46320, symSize: 0x30 }
  - { offset: 0xCAA1A, size: 0x8, addend: 0x0, symName: __RNvXst_NtCsdGrGZaRBwMb_3syn10punctuatedINtB5_4IterNtNtB7_4data5FieldENtNtNtNtCsieiGu2EXtoJ_4core4iter6traits8iterator8Iterator9size_hintCsiK7Gs1zPIjf_14thiserror_impl, symObjAddr: 0x4F20, symBinAddr: 0x46C30, symSize: 0x60 }
  - { offset: 0xCAA51, size: 0x8, addend: 0x0, symName: __RNvXst_NtCsdGrGZaRBwMb_3syn10punctuatedINtB5_4IterNtNtB7_4data7VariantENtNtNtNtCsieiGu2EXtoJ_4core4iter6traits8iterator8Iterator4nextCsiK7Gs1zPIjf_14thiserror_impl, symObjAddr: 0x4F80, symBinAddr: 0x46C90, symSize: 0x30 }
  - { offset: 0xCAA88, size: 0x8, addend: 0x0, symName: __RNvXst_NtCsdGrGZaRBwMb_3syn10punctuatedINtB5_4IterNtNtB7_4data7VariantENtNtNtNtCsieiGu2EXtoJ_4core4iter6traits8iterator8Iterator9size_hintCsiK7Gs1zPIjf_14thiserror_impl, symObjAddr: 0x4FB0, symBinAddr: 0x46CC0, symSize: 0x60 }
  - { offset: 0xCAABF, size: 0x8, addend: 0x0, symName: __RNvXst_NtCsdGrGZaRBwMb_3syn10punctuatedINtB5_4IterNtNtB7_4path15GenericArgumentENtNtNtNtCsieiGu2EXtoJ_4core4iter6traits8iterator8Iterator4nextCsiK7Gs1zPIjf_14thiserror_impl, symObjAddr: 0x5010, symBinAddr: 0x46D20, symSize: 0x30 }
  - { offset: 0xCAAFC, size: 0x8, addend: 0x0, symName: __RNvXsv_NtCsdGrGZaRBwMb_3syn10punctuatedINtB5_4IterNtNtB7_4data5FieldENtNtNtNtCsieiGu2EXtoJ_4core4iter6traits10exact_size17ExactSizeIterator3lenCsiK7Gs1zPIjf_14thiserror_impl, symObjAddr: 0x5040, symBinAddr: 0x46D50, symSize: 0x30 }
  - { offset: 0xCAB33, size: 0x8, addend: 0x0, symName: __RNvXsv_NtCsdGrGZaRBwMb_3syn10punctuatedINtB5_4IterNtNtB7_4data7VariantENtNtNtNtCsieiGu2EXtoJ_4core4iter6traits10exact_size17ExactSizeIterator3lenCsiK7Gs1zPIjf_14thiserror_impl, symObjAddr: 0x5070, symBinAddr: 0x46D80, symSize: 0x30 }
  - { offset: 0xCAB70, size: 0x8, addend: 0x0, symName: __RNvXsy_NtCsdGrGZaRBwMb_3syn10punctuatedINtB5_11PrivateIterNtNtB7_4data7VariantNtNtB7_5token5CommaENtNtNtNtCsieiGu2EXtoJ_4core4iter6traits10exact_size17ExactSizeIterator3lenCsiK7Gs1zPIjf_14thiserror_impl, symObjAddr: 0x5440, symBinAddr: 0x47150, symSize: 0x80 }
  - { offset: 0xCABE8, size: 0x8, addend: 0x0, symName: __RNvXsy_NtCsdGrGZaRBwMb_3syn10punctuatedINtB5_11PrivateIterNtNtB7_4path15GenericArgumentNtNtB7_5token5CommaENtNtNtNtCsieiGu2EXtoJ_4core4iter6traits10exact_size17ExactSizeIterator3lenCsiK7Gs1zPIjf_14thiserror_impl, symObjAddr: 0x54C0, symBinAddr: 0x471D0, symSize: 0x80 }
  - { offset: 0xCAC66, size: 0x8, addend: 0x0, symName: __RNvXsz_NtCsdGrGZaRBwMb_3syn10punctuatedINtB5_11PrivateIterNtNtB7_4data7VariantNtNtB7_5token5CommaENtNtCsieiGu2EXtoJ_4core5clone5Clone5cloneCsiK7Gs1zPIjf_14thiserror_impl, symObjAddr: 0x5540, symBinAddr: 0x47250, symSize: 0x70 }
  - { offset: 0xCACA6, size: 0x8, addend: 0x0, symName: __RNvXsz_NtCsdGrGZaRBwMb_3syn10punctuatedINtB5_11PrivateIterNtNtB7_4path15GenericArgumentNtNtB7_5token5CommaENtNtCsieiGu2EXtoJ_4core5clone5Clone5cloneCsiK7Gs1zPIjf_14thiserror_impl, symObjAddr: 0x55B0, symBinAddr: 0x472C0, symSize: 0x70 }
  - { offset: 0xCF8A1, size: 0x8, addend: 0x0, symName: __RNvXsh_NtCsdGrGZaRBwMb_3syn5parseNvNtCsiK7Gs1zPIjf_14thiserror_impl3fmt19explicit_named_argsNtB5_6Parser6parse2Bz_, symObjAddr: 0x4840, symBinAddr: 0x46550, symSize: 0x470 }
  - { offset: 0xD0A31, size: 0x8, addend: 0x0, symName: __RNvXsw_NtCslJiobkLta79_5alloc6stringNtNtCsiK7Gs1zPIjf_14thiserror_impl5unraw10IdentUnrawNtB5_8ToString9to_stringBC_, symObjAddr: 0x5120, symBinAddr: 0x46E30, symSize: 0x30 }
  - { offset: 0xD0A68, size: 0x8, addend: 0x0, symName: __RNvXsw_NtCslJiobkLta79_5alloc6stringNtNtCsiK7Gs1zPIjf_14thiserror_impl5unraw11MemberUnrawNtB5_8ToString9to_stringBC_, symObjAddr: 0x5150, symBinAddr: 0x46E60, symSize: 0x30 }
  - { offset: 0xD0AA5, size: 0x8, addend: 0x0, symName: __RNvXsx_NtCslJiobkLta79_5alloc6stringNtNtCsiK7Gs1zPIjf_14thiserror_impl5unraw10IdentUnrawNtB5_12SpecToString14spec_to_stringBC_, symObjAddr: 0x5200, symBinAddr: 0x46F10, symSize: 0x120 }
  - { offset: 0xD0B71, size: 0x8, addend: 0x0, symName: __RNvXsx_NtCslJiobkLta79_5alloc6stringNtNtCsiK7Gs1zPIjf_14thiserror_impl5unraw11MemberUnrawNtB5_12SpecToString14spec_to_stringBC_, symObjAddr: 0x5320, symBinAddr: 0x47030, symSize: 0x120 }
  - { offset: 0xD1114, size: 0x8, addend: 0x0, symName: __RNvNtCslJiobkLta79_5alloc3fmt6formatCsiK7Gs1zPIjf_14thiserror_impl, symObjAddr: 0x3840, symBinAddr: 0x45550, symSize: 0xC0 }
  - { offset: 0xD1997, size: 0x8, addend: 0x0, symName: __RNvXNtNtCscKtU6MdFI5n_10proc_macro6bridge3rpcuINtB2_6EncodeuE6encodeCsiK7Gs1zPIjf_14thiserror_impl, symObjAddr: 0x3C20, symBinAddr: 0x45930, symSize: 0x10 }
  - { offset: 0xD1A10, size: 0x8, addend: 0x0, symName: __RNvXsa_NtNtCscKtU6MdFI5n_10proc_macro6bridge3rpcRShINtB5_6EncodeuE6encodeCsiK7Gs1zPIjf_14thiserror_impl, symObjAddr: 0x4540, symBinAddr: 0x46250, symSize: 0xD0 }
  - { offset: 0xD1B18, size: 0x8, addend: 0x0, symName: __RNvXsc_NtNtCscKtU6MdFI5n_10proc_macro6bridge3rpcReINtB5_6EncodeuE6encodeCsiK7Gs1zPIjf_14thiserror_impl, symObjAddr: 0x4710, symBinAddr: 0x46420, symSize: 0x30 }
  - { offset: 0xD1C00, size: 0x8, addend: 0x0, symName: __RNvXsl_NtNtCscKtU6MdFI5n_10proc_macro6bridge3rpcNtB5_12PanicMessageINtB5_6EncodeuE6encodeCsiK7Gs1zPIjf_14thiserror_impl, symObjAddr: 0x4CB0, symBinAddr: 0x469C0, symSize: 0x130 }
  - { offset: 0xD1DD0, size: 0x8, addend: 0x0, symName: __RNvXso_NtNtCscKtU6MdFI5n_10proc_macro6bridge3rpcmINtB5_9DecodeMutuE6decodeCsiK7Gs1zPIjf_14thiserror_impl, symObjAddr: 0x4DE0, symBinAddr: 0x46AF0, symSize: 0x140 }
  - { offset: 0xD21ED, size: 0x8, addend: 0x0, symName: __RNvMs9_NtCsieiGu2EXtoJ_4core3numj11checked_addCsiK7Gs1zPIjf_14thiserror_impl, symObjAddr: 0x19C0, symBinAddr: 0x436D0, symSize: 0x70 }
  - { offset: 0xD2277, size: 0x8, addend: 0x0, symName: __RNvNvMs9_NtCsieiGu2EXtoJ_4core3numj13unchecked_add18precondition_checkCsiK7Gs1zPIjf_14thiserror_impl, symObjAddr: 0x3A60, symBinAddr: 0x45770, symSize: 0xA0 }
  - { offset: 0xD23E0, size: 0x8, addend: 0x0, symName: __RNvNvMs3_NtCsieiGu2EXtoJ_4core3numi13unchecked_neg18precondition_checkCsiK7Gs1zPIjf_14thiserror_impl, symObjAddr: 0x39B0, symBinAddr: 0x456C0, symSize: 0xB0 }
  - { offset: 0xD5669, size: 0x8, addend: 0x0, symName: __RINvNtNtNtNtCsieiGu2EXtoJ_4core5slice4sort6shared5pivot11median3_recRNtCsaKzlTDPUHDb_11proc_macro25IdentNvYB14_NtNtBa_3cmp10PartialOrd2ltECsiK7Gs1zPIjf_14thiserror_impl, symObjAddr: 0x40, symBinAddr: 0x41D50, symSize: 0x250 }
  - { offset: 0xD586D, size: 0x8, addend: 0x0, symName: __RINvNtNtNtNtCsieiGu2EXtoJ_4core5slice4sort6shared5pivot12choose_pivotRNtCsaKzlTDPUHDb_11proc_macro25IdentNvYB15_NtNtBa_3cmp10PartialOrd2ltECsiK7Gs1zPIjf_14thiserror_impl, symObjAddr: 0x290, symBinAddr: 0x41FA0, symSize: 0x280 }
  - { offset: 0xD5D49, size: 0x8, addend: 0x0, symName: __RNvXs7_NtNtCsieiGu2EXtoJ_4core3cmp5implsRNtNtCsiK7Gs1zPIjf_14thiserror_impl5unraw10IdentUnrawINtB7_9PartialEqReE2eqBH_, symObjAddr: 0x3E80, symBinAddr: 0x45B90, symSize: 0x30 }
  - { offset: 0xD5D98, size: 0x8, addend: 0x0, symName: __RNvXs7_NtNtCsieiGu2EXtoJ_4core3cmp5implsRNtNtCsiK7Gs1zPIjf_14thiserror_impl5unraw10IdentUnrawNtB7_9PartialEq2eqBH_, symObjAddr: 0x3EB0, symBinAddr: 0x45BC0, symSize: 0x30 }
  - { offset: 0xD5DE7, size: 0x8, addend: 0x0, symName: __RNvXs7_NtNtCsieiGu2EXtoJ_4core3cmp5implsRNtNtCsiK7Gs1zPIjf_14thiserror_impl5unraw11MemberUnrawNtB7_9PartialEq2eqBH_, symObjAddr: 0x3EE0, symBinAddr: 0x45BF0, symSize: 0x30 }
  - { offset: 0xD5E97, size: 0x8, addend: 0x0, symName: __RNvYNtNtCsiK7Gs1zPIjf_14thiserror_impl5unraw11MemberUnrawNtNtCsieiGu2EXtoJ_4core3cmp9PartialEq2neB6_, symObjAddr: 0x5C40, symBinAddr: 0x47950, symSize: 0x20 }
  - { offset: 0xD6948, size: 0x8, addend: 0x0, symName: __RINvXs3_NtNtCsieiGu2EXtoJ_4core4hash5implsRNtNtCsiK7Gs1zPIjf_14thiserror_impl5unraw11MemberUnrawNtB8_4Hash4hashNtNtNtCsHUR1vrdMJt_3std4hash6random13DefaultHasherEBJ_, symObjAddr: 0x510, symBinAddr: 0x42220, symSize: 0x20 }
  - { offset: 0xD6993, size: 0x8, addend: 0x0, symName: __RINvXs3_NtNtCsieiGu2EXtoJ_4core4hash5implsRRNtNtCsiK7Gs1zPIjf_14thiserror_impl5unraw11MemberUnrawNtB8_4Hash4hashNtNtNtCsHUR1vrdMJt_3std4hash6random13DefaultHasherEBK_, symObjAddr: 0x530, symBinAddr: 0x42240, symSize: 0x20 }
  - { offset: 0xD6AB7, size: 0x8, addend: 0x0, symName: __RINvYINtNtCsdGrGZaRBwMb_3syn10punctuated11PrivateIterNtNtB8_4data7VariantNtNtB8_5token5CommaENtNtNtNtCsieiGu2EXtoJ_4core4iter6traits8iterator8Iterator8try_foldINtNtNtB1B_3num7nonzero7NonZerojENCNvXs_NvB1t_10advance_byB3_NtB3b_13SpecAdvanceBy15spec_advance_by0INtNtB1B_6option6OptionB2x_EECsiK7Gs1zPIjf_14thiserror_impl, symObjAddr: 0x600, symBinAddr: 0x42310, symSize: 0x130 }
  - { offset: 0xD6B6B, size: 0x8, addend: 0x0, symName: __RINvYINtNtCsdGrGZaRBwMb_3syn10punctuated11PrivateIterNtNtB8_4path15GenericArgumentNtNtB8_5token5CommaENtNtNtNtCsieiGu2EXtoJ_4core4iter6traits8iterator8Iterator8try_foldINtNtNtB1K_3num7nonzero7NonZerojENCNvXs_NvB1C_10advance_byB3_NtB3k_13SpecAdvanceBy15spec_advance_by0INtNtB1K_6option6OptionB2G_EECsiK7Gs1zPIjf_14thiserror_impl, symObjAddr: 0x730, symBinAddr: 0x42440, symSize: 0x130 }
  - { offset: 0xD6C1F, size: 0x8, addend: 0x0, symName: __RINvYINtNtCsdGrGZaRBwMb_3syn10punctuated4IterNtNtB8_4data5FieldENtNtNtNtCsieiGu2EXtoJ_4core4iter6traits8iterator8Iterator8try_folduNCINvNvXs_NtNtB16_8adapters9enumerateINtB2f_9EnumeratepEB10_8try_fold9enumerateRBH_uINtNtNtB18_3ops12control_flow11ControlFlowIB3s_NtNtCsiK7Gs1zPIjf_14thiserror_impl3ast5FieldEENCINvNtB2h_3map12map_try_foldTjB3m_EINtNtB18_6result6ResultB4c_NtNtB8_5error5ErrorEuB3r_NCNvMs2_B4e_B4c_17multiple_from_syn0NCINvXB2h_INtB2h_12GenericShuntINtB51_3MapIB2H_B3_EB6m_EIB5x_NtNtB18_7convert10InfallibleB5X_EEB10_8try_folduNCINvNvB10_12try_for_each4callB4c_B47_NcNtB47_5Break0E0B47_E0E0E0B3r_EB4g_, symObjAddr: 0x860, symBinAddr: 0x42570, symSize: 0x160 }
  - { offset: 0xD6CDB, size: 0x8, addend: 0x0, symName: __RINvYINtNtCsdGrGZaRBwMb_3syn10punctuated4IterNtNtB8_4data7VariantENtNtNtNtCsieiGu2EXtoJ_4core4iter6traits8iterator8Iterator3mapINtNtB1a_6result6ResultNtNtCsiK7Gs1zPIjf_14thiserror_impl3ast7VariantNtNtB8_5error5ErrorENCNvMs0_B2q_NtB2q_4Enum8from_syn0EB2s_, symObjAddr: 0x9C0, symBinAddr: 0x426D0, symSize: 0x40 }
  - { offset: 0xD6D49, size: 0x8, addend: 0x0, symName: __RINvYINtNtCsdGrGZaRBwMb_3syn10punctuated4IterNtNtB8_4data7VariantENtNtNtNtCsieiGu2EXtoJ_4core4iter6traits8iterator8Iterator8try_folduNCINvNtNtB18_8adapters3map12map_try_foldRBH_INtNtB1a_6result6ResultNtNtCsiK7Gs1zPIjf_14thiserror_impl3ast7VariantNtNtB8_5error5ErrorEuINtNtNtB1a_3ops12control_flow11ControlFlowIB4i_B3c_EENCNvMs0_B3e_NtB3e_4Enum8from_syn0NCINvXB2e_INtB2e_12GenericShuntINtB2c_3MapB3_B58_EIB2Q_NtNtB1a_7convert10InfallibleB3W_EEB12_8try_folduNCINvNvB12_12try_for_each4callB3c_B4X_NcNtB4X_5Break0E0B4X_E0E0B4h_EB3g_, symObjAddr: 0xA00, symBinAddr: 0x42710, symSize: 0x160 }
  - { offset: 0xD6E0F, size: 0x8, addend: 0x0, symName: __RNvXs_NvNtNtNtNtCsieiGu2EXtoJ_4core4iter6traits8iterator8Iterator10advance_byINtNtCsdGrGZaRBwMb_3syn10punctuated11PrivateIterNtNtB1i_4data7VariantNtNtB1i_5token5CommaENtB4_13SpecAdvanceBy15spec_advance_byCsiK7Gs1zPIjf_14thiserror_impl, symObjAddr: 0x4340, symBinAddr: 0x46050, symSize: 0x90 }
  - { offset: 0xD6EBD, size: 0x8, addend: 0x0, symName: __RNvXs_NvNtNtNtNtCsieiGu2EXtoJ_4core4iter6traits8iterator8Iterator10advance_byINtNtCsdGrGZaRBwMb_3syn10punctuated11PrivateIterNtNtB1i_4path15GenericArgumentNtNtB1i_5token5CommaENtB4_13SpecAdvanceBy15spec_advance_byCsiK7Gs1zPIjf_14thiserror_impl, symObjAddr: 0x43D0, symBinAddr: 0x460E0, symSize: 0x90 }
  - { offset: 0xD6F81, size: 0x8, addend: 0x0, symName: __RNvYINtNtCsdGrGZaRBwMb_3syn10punctuated11PrivateIterNtNtB7_4data7VariantNtNtB7_5token5CommaENtNtNtNtCsieiGu2EXtoJ_4core4iter6traits8iterator8Iterator10advance_byCsiK7Gs1zPIjf_14thiserror_impl, symObjAddr: 0x5850, symBinAddr: 0x47560, symSize: 0x20 }
  - { offset: 0xD6FC7, size: 0x8, addend: 0x0, symName: __RNvYINtNtCsdGrGZaRBwMb_3syn10punctuated11PrivateIterNtNtB7_4data7VariantNtNtB7_5token5CommaENtNtNtNtCsieiGu2EXtoJ_4core4iter6traits8iterator8Iterator3nthCsiK7Gs1zPIjf_14thiserror_impl, symObjAddr: 0x5870, symBinAddr: 0x47580, symSize: 0x80 }
  - { offset: 0xD7097, size: 0x8, addend: 0x0, symName: __RNvYINtNtCsdGrGZaRBwMb_3syn10punctuated11PrivateIterNtNtB7_4data7VariantNtNtB7_5token5CommaENtNtNtNtCsieiGu2EXtoJ_4core4iter6traits8iterator8Iterator9size_hintCsiK7Gs1zPIjf_14thiserror_impl, symObjAddr: 0x58F0, symBinAddr: 0x47600, symSize: 0x30 }
  - { offset: 0xD70CC, size: 0x8, addend: 0x0, symName: __RNvYINtNtCsdGrGZaRBwMb_3syn10punctuated11PrivateIterNtNtB7_4path15GenericArgumentNtNtB7_5token5CommaENtNtNtNtCsieiGu2EXtoJ_4core4iter6traits8iterator8Iterator10advance_byCsiK7Gs1zPIjf_14thiserror_impl, symObjAddr: 0x5B50, symBinAddr: 0x47860, symSize: 0x20 }
  - { offset: 0xD7112, size: 0x8, addend: 0x0, symName: __RNvYINtNtCsdGrGZaRBwMb_3syn10punctuated11PrivateIterNtNtB7_4path15GenericArgumentNtNtB7_5token5CommaENtNtNtNtCsieiGu2EXtoJ_4core4iter6traits8iterator8Iterator3nthCsiK7Gs1zPIjf_14thiserror_impl, symObjAddr: 0x5B70, symBinAddr: 0x47880, symSize: 0x80 }
  - { offset: 0xD71E2, size: 0x8, addend: 0x0, symName: __RNvYINtNtCsdGrGZaRBwMb_3syn10punctuated11PrivateIterNtNtB7_4path15GenericArgumentNtNtB7_5token5CommaENtNtNtNtCsieiGu2EXtoJ_4core4iter6traits8iterator8Iterator9size_hintCsiK7Gs1zPIjf_14thiserror_impl, symObjAddr: 0x5BF0, symBinAddr: 0x47900, symSize: 0x30 }
  - { offset: 0xD7217, size: 0x8, addend: 0x0, symName: __RNvYINtNtCsdGrGZaRBwMb_3syn10punctuated4IterNtNtB7_4data5FieldENtNtNtNtCsieiGu2EXtoJ_4core4iter6traits8iterator8Iterator9enumerateCsiK7Gs1zPIjf_14thiserror_impl, symObjAddr: 0x5C20, symBinAddr: 0x47930, symSize: 0x20 }
  - { offset: 0xD72A1, size: 0x8, addend: 0x0, symName: __RNvXNtNtNtCsieiGu2EXtoJ_4core4iter6traits7collectINtNtCsdGrGZaRBwMb_3syn10punctuated5PairsNtCsaKzlTDPUHDb_11proc_macro211TokenStreamNtNtBQ_5token4PlusENtB2_12IntoIterator9into_iterCsiK7Gs1zPIjf_14thiserror_impl, symObjAddr: 0x3C70, symBinAddr: 0x45980, symSize: 0x20 }
  - { offset: 0xD72E4, size: 0x8, addend: 0x0, symName: __RNvYINtNtCsdGrGZaRBwMb_3syn10punctuated11PrivateIterNtNtB7_4data7VariantNtNtB7_5token5CommaENtNtNtNtCsieiGu2EXtoJ_4core4iter6traits10exact_size17ExactSizeIterator8is_emptyCsiK7Gs1zPIjf_14thiserror_impl, symObjAddr: 0x5620, symBinAddr: 0x47330, symSize: 0x20 }
  - { offset: 0xD7319, size: 0x8, addend: 0x0, symName: __RNvYINtNtCsdGrGZaRBwMb_3syn10punctuated11PrivateIterNtNtB7_4path15GenericArgumentNtNtB7_5token5CommaENtNtNtNtCsieiGu2EXtoJ_4core4iter6traits10exact_size17ExactSizeIterator8is_emptyCsiK7Gs1zPIjf_14thiserror_impl, symObjAddr: 0x5920, symBinAddr: 0x47630, symSize: 0x20 }
  - { offset: 0xD735A, size: 0x8, addend: 0x0, symName: __RNvYINtNtCsdGrGZaRBwMb_3syn10punctuated11PrivateIterNtNtB7_4data7VariantNtNtB7_5token5CommaENtNtNtNtCsieiGu2EXtoJ_4core4iter6traits12double_ended19DoubleEndedIterator15advance_back_byCsiK7Gs1zPIjf_14thiserror_impl, symObjAddr: 0x5640, symBinAddr: 0x47350, symSize: 0x1A0 }
  - { offset: 0xD74D9, size: 0x8, addend: 0x0, symName: __RNvYINtNtCsdGrGZaRBwMb_3syn10punctuated11PrivateIterNtNtB7_4data7VariantNtNtB7_5token5CommaENtNtNtNtCsieiGu2EXtoJ_4core4iter6traits12double_ended19DoubleEndedIterator8nth_backCsiK7Gs1zPIjf_14thiserror_impl, symObjAddr: 0x57E0, symBinAddr: 0x474F0, symSize: 0x70 }
  - { offset: 0xD7557, size: 0x8, addend: 0x0, symName: __RNvYINtNtCsdGrGZaRBwMb_3syn10punctuated11PrivateIterNtNtB7_4path15GenericArgumentNtNtB7_5token5CommaENtNtNtNtCsieiGu2EXtoJ_4core4iter6traits12double_ended19DoubleEndedIterator15advance_back_byCsiK7Gs1zPIjf_14thiserror_impl, symObjAddr: 0x5940, symBinAddr: 0x47650, symSize: 0x1A0 }
  - { offset: 0xD76D6, size: 0x8, addend: 0x0, symName: __RNvYINtNtCsdGrGZaRBwMb_3syn10punctuated11PrivateIterNtNtB7_4path15GenericArgumentNtNtB7_5token5CommaENtNtNtNtCsieiGu2EXtoJ_4core4iter6traits12double_ended19DoubleEndedIterator8nth_backCsiK7Gs1zPIjf_14thiserror_impl, symObjAddr: 0x5AE0, symBinAddr: 0x477F0, symSize: 0x70 }
  - { offset: 0xD7A88, size: 0x8, addend: 0x0, symName: __RNvNvMNtNtCsieiGu2EXtoJ_4core5alloc6layoutNtB4_6Layout25from_size_align_unchecked18precondition_checkCsiK7Gs1zPIjf_14thiserror_impl, symObjAddr: 0x3900, symBinAddr: 0x45610, symSize: 0xB0 }
  - { offset: 0xD7AFE, size: 0x8, addend: 0x0, symName: __RNvXNtCsieiGu2EXtoJ_4core6borrowNtNtCsiK7Gs1zPIjf_14thiserror_impl5unraw10IdentUnrawINtB2_6BorrowBu_E6borrowBy_, symObjAddr: 0x3C00, symBinAddr: 0x45910, symSize: 0x10 }
  - { offset: 0xD7B33, size: 0x8, addend: 0x0, symName: __RNvXNtCsieiGu2EXtoJ_4core6borrowRNtNtCsiK7Gs1zPIjf_14thiserror_impl5unraw11MemberUnrawINtB2_6BorrowBu_E6borrowBz_, symObjAddr: 0x3C10, symBinAddr: 0x45920, symSize: 0x10 }
  - { offset: 0xD7B6E, size: 0x8, addend: 0x0, symName: __RNvXs0_NtCsieiGu2EXtoJ_4core6borrowRNtNtCsiK7Gs1zPIjf_14thiserror_impl5unraw11MemberUnrawINtB5_6BorrowBy_E6borrowBC_, symObjAddr: 0x3C90, symBinAddr: 0x459A0, symSize: 0x10 }
  - { offset: 0xD8A18, size: 0x8, addend: 0x0, symName: __RINvXsc_NtCsiK7Gs1zPIjf_14thiserror_impl5unrawNtB6_11MemberUnrawNtNtCsieiGu2EXtoJ_4core4hash4Hash4hashNtNtNtCsHUR1vrdMJt_3std4hash6random13DefaultHasherEB8_, symObjAddr: 0x550, symBinAddr: 0x42260, symSize: 0xB0 }
  - { offset: 0xD8B54, size: 0x8, addend: 0x0, symName: __RNvXs1_NtCsiK7Gs1zPIjf_14thiserror_impl5unrawNtB5_10IdentUnrawNtNtCsieiGu2EXtoJ_4core3cmp9PartialEq2eq, symObjAddr: 0x3CA0, symBinAddr: 0x459B0, symSize: 0xB0 }
  - { offset: 0xD8B94, size: 0x8, addend: 0x0, symName: __RNvXs2_NtCsiK7Gs1zPIjf_14thiserror_impl5unrawNtB5_10IdentUnrawINtNtCsieiGu2EXtoJ_4core3cmp9PartialEqeE2eq, symObjAddr: 0x3D50, symBinAddr: 0x45A60, symSize: 0x30 }
  - { offset: 0xD8BD4, size: 0x8, addend: 0x0, symName: __RNvXs3_NtCsiK7Gs1zPIjf_14thiserror_impl5unrawNtB5_10IdentUnrawNtNtCsieiGu2EXtoJ_4core3cmp3Ord3cmp, symObjAddr: 0x3D80, symBinAddr: 0x45A90, symSize: 0xB0 }
  - { offset: 0xD8C14, size: 0x8, addend: 0x0, symName: __RNvXs5_NtCsiK7Gs1zPIjf_14thiserror_impl5unrawNtB5_10IdentUnrawNtNtCsdGrGZaRBwMb_3syn5parse5Parse5parse, symObjAddr: 0x3E30, symBinAddr: 0x45B40, symSize: 0x50 }
  - { offset: 0xD8C46, size: 0x8, addend: 0x0, symName: __RNvXs8_NtCsiK7Gs1zPIjf_14thiserror_impl5unrawNtB5_11MemberUnrawNtNtCsieiGu2EXtoJ_4core3fmt7Display3fmt, symObjAddr: 0x3F10, symBinAddr: 0x45C20, symSize: 0x80 }
  - { offset: 0xD8CB8, size: 0x8, addend: 0x0, symName: __RNvXs_NtCsiK7Gs1zPIjf_14thiserror_impl5unrawNtB4_10IdentUnrawNtNtCsieiGu2EXtoJ_4core3fmt7Display3fmt, symObjAddr: 0x4230, symBinAddr: 0x45F40, symSize: 0x80 }
  - { offset: 0xD8CF8, size: 0x8, addend: 0x0, symName: __RNvXsa_NtCsiK7Gs1zPIjf_14thiserror_impl5unrawNtB5_11MemberUnrawNtNtCsieiGu2EXtoJ_4core3cmp9PartialEq2eq, symObjAddr: 0x4460, symBinAddr: 0x46170, symSize: 0xE0 }
  - { offset: 0xD8D90, size: 0x8, addend: 0x0, symName: __RNvXsb_NtCsiK7Gs1zPIjf_14thiserror_impl5unrawNtB5_11MemberUnrawINtNtCsieiGu2EXtoJ_4core3cmp9PartialEqeE2eq, symObjAddr: 0x4640, symBinAddr: 0x46350, symSize: 0x70 }
  - { offset: 0xD8DED, size: 0x8, addend: 0x0, symName: __RNvXsd_NtCsiK7Gs1zPIjf_14thiserror_impl5unrawNtB5_11MemberUnrawNtNtCs9OU1sGv5X54_5quote9to_tokens8ToTokens9to_tokens, symObjAddr: 0x4740, symBinAddr: 0x46450, symSize: 0xB0 }
  - { offset: 0xD8E5B, size: 0x8, addend: 0x0, symName: __RNvXse_NtCsiK7Gs1zPIjf_14thiserror_impl5unrawNtB5_10IdentUnrawNtNtCsieiGu2EXtoJ_4core5clone5Clone5cloneB7_, symObjAddr: 0x47F0, symBinAddr: 0x46500, symSize: 0x50 }
  - { offset: 0xD8F94, size: 0x8, addend: 0x0, symName: __RNvNtCsiK7Gs1zPIjf_14thiserror_impl3fmt10take_ident, symObjAddr: 0x1A30, symBinAddr: 0x43740, symSize: 0x180 }
  - { offset: 0xD9034, size: 0x8, addend: 0x0, symName: __RNvNtCsiK7Gs1zPIjf_14thiserror_impl3fmt11is_syn_full, symObjAddr: 0x1BB0, symBinAddr: 0x438C0, symSize: 0x230 }
  - { offset: 0xD909F, size: 0x8, addend: 0x0, symName: __RNvNtCsiK7Gs1zPIjf_14thiserror_impl3fmt19explicit_named_args, symObjAddr: 0x1DE0, symBinAddr: 0x43AF0, symSize: 0x620 }
  - { offset: 0xD915B, size: 0x8, addend: 0x0, symName: __RNvNtCsiK7Gs1zPIjf_14thiserror_impl3fmt23try_explicit_named_args, symObjAddr: 0x2400, symBinAddr: 0x44110, symSize: 0x940 }
  - { offset: 0xD9291, size: 0x8, addend: 0x0, symName: __RNvNtCsiK7Gs1zPIjf_14thiserror_impl3fmt28fallback_explicit_named_args, symObjAddr: 0x2D40, symBinAddr: 0x44A50, symSize: 0x5D0 }
  - { offset: 0xD9385, size: 0x8, addend: 0x0, symName: __RNvNtCsiK7Gs1zPIjf_14thiserror_impl3fmt7between, symObjAddr: 0x3310, symBinAddr: 0x45020, symSize: 0x400 }
  - { offset: 0xD9485, size: 0x8, addend: 0x0, symName: __RNvNtCsiK7Gs1zPIjf_14thiserror_impl3fmt8take_int, symObjAddr: 0x3710, symBinAddr: 0x45420, symSize: 0x130 }
  - { offset: 0xD967E, size: 0x8, addend: 0x0, symName: __RINvMs_NtNtCsieiGu2EXtoJ_4core3fmt2rtNtB7_9Arguments6new_v1Kj3_Kj2_ECsiK7Gs1zPIjf_14thiserror_impl, symObjAddr: 0x0, symBinAddr: 0x41D10, symSize: 0x40 }
  - { offset: 0xD997B, size: 0x8, addend: 0x0, symName: __RNvMNtCsdGrGZaRBwMb_3syn10punctuatedINtB2_10PunctuatedNtCsaKzlTDPUHDb_11proc_macro211TokenStreamNtNtB4_5token4PlusE10push_punctCsiK7Gs1zPIjf_14thiserror_impl, symObjAddr: 0xCE0, symBinAddr: 0x429F0, symSize: 0x220 }
  - { offset: 0xD99F9, size: 0x8, addend: 0x0, symName: __RNvMNtCsdGrGZaRBwMb_3syn10punctuatedINtB2_10PunctuatedNtCsaKzlTDPUHDb_11proc_macro211TokenStreamNtNtB4_5token4PlusE10push_valueCsiK7Gs1zPIjf_14thiserror_impl, symObjAddr: 0xF00, symBinAddr: 0x42C10, symSize: 0x1C0 }
  - { offset: 0xD9A67, size: 0x8, addend: 0x0, symName: __RNvMNtCsdGrGZaRBwMb_3syn10punctuatedINtB2_10PunctuatedNtCsaKzlTDPUHDb_11proc_macro211TokenStreamNtNtB4_5token4PlusE17empty_or_trailingCsiK7Gs1zPIjf_14thiserror_impl, symObjAddr: 0x10C0, symBinAddr: 0x42DD0, symSize: 0x30 }
  - { offset: 0xD9A9B, size: 0x8, addend: 0x0, symName: __RNvMNtCsdGrGZaRBwMb_3syn10punctuatedINtB2_10PunctuatedNtCsaKzlTDPUHDb_11proc_macro211TokenStreamNtNtB4_5token4PlusE3newCsiK7Gs1zPIjf_14thiserror_impl, symObjAddr: 0x10F0, symBinAddr: 0x42E00, symSize: 0x50 }
  - { offset: 0xD9AC1, size: 0x8, addend: 0x0, symName: __RNvMNtCsdGrGZaRBwMb_3syn10punctuatedINtB2_10PunctuatedNtCsaKzlTDPUHDb_11proc_macro211TokenStreamNtNtB4_5token4PlusE4pushCsiK7Gs1zPIjf_14thiserror_impl, symObjAddr: 0x1140, symBinAddr: 0x42E50, symSize: 0xE0 }
  - { offset: 0xD9B2B, size: 0x8, addend: 0x0, symName: __RNvMNtCsdGrGZaRBwMb_3syn10punctuatedINtB2_10PunctuatedNtCsaKzlTDPUHDb_11proc_macro211TokenStreamNtNtB4_5token4PlusE5pairsCsiK7Gs1zPIjf_14thiserror_impl, symObjAddr: 0x1220, symBinAddr: 0x42F30, symSize: 0x80 }
  - { offset: 0xD9B79, size: 0x8, addend: 0x0, symName: __RNvMNtCsdGrGZaRBwMb_3syn10punctuatedINtB2_10PunctuatedNtNtB4_4data7VariantNtNtB4_5token5CommaE4iterCsiK7Gs1zPIjf_14thiserror_impl, symObjAddr: 0x12A0, symBinAddr: 0x42FB0, symSize: 0xC0 }
  - { offset: 0xD9BD8, size: 0x8, addend: 0x0, symName: __RNvMNtCsdGrGZaRBwMb_3syn10punctuatedINtB2_10PunctuatedNtNtB4_4path15GenericArgumentNtNtB4_5token5CommaE3lenCsiK7Gs1zPIjf_14thiserror_impl, symObjAddr: 0x1360, symBinAddr: 0x43070, symSize: 0x80 }
  - { offset: 0xD9C47, size: 0x8, addend: 0x0, symName: __RNvMNtCsdGrGZaRBwMb_3syn10punctuatedINtB2_10PunctuatedNtNtB4_4path15GenericArgumentNtNtB4_5token5CommaE4iterCsiK7Gs1zPIjf_14thiserror_impl, symObjAddr: 0x13E0, symBinAddr: 0x430F0, symSize: 0xC0 }
  - { offset: 0xD9CA6, size: 0x8, addend: 0x0, symName: __RNvMNtCsdGrGZaRBwMb_3syn10punctuatedINtB2_10PunctuatedNtNtB4_8generics14WherePredicateNtNtB4_5token5CommaE4pushCsiK7Gs1zPIjf_14thiserror_impl, symObjAddr: 0x14A0, symBinAddr: 0x431B0, symSize: 0x110 }
  - { offset: 0xD9CE9, size: 0x8, addend: 0x0, symName: __RNvMNtCsiK7Gs1zPIjf_14thiserror_impl5unrawNtB2_10IdentUnraw3new, symObjAddr: 0x15B0, symBinAddr: 0x432C0, symSize: 0x30 }
  - { offset: 0xD9D18, size: 0x8, addend: 0x0, symName: __RNvMNtCsiK7Gs1zPIjf_14thiserror_impl5unrawNtB2_10IdentUnraw8set_span, symObjAddr: 0x15E0, symBinAddr: 0x432F0, symSize: 0x30 }
  - { offset: 0xD9D55, size: 0x8, addend: 0x0, symName: __RNvMNtCsiK7Gs1zPIjf_14thiserror_impl5unrawNtB2_10IdentUnraw8to_local, symObjAddr: 0x1610, symBinAddr: 0x43320, symSize: 0x350 }
  - { offset: 0xD9DB0, size: 0x8, addend: 0x0, symName: __RNvMs7_NtCsiK7Gs1zPIjf_14thiserror_impl5unrawNtB5_11MemberUnraw4span, symObjAddr: 0x1960, symBinAddr: 0x43670, symSize: 0x60 }
  - { offset: 0xD9F98, size: 0x8, addend: 0x0, symName: __RNvXCsjK30CmJ87bX_9hashbrownNtNtCsiK7Gs1zPIjf_14thiserror_impl5unraw11MemberUnrawINtB2_10EquivalentRBq_E10equivalentBu_, symObjAddr: 0x3B00, symBinAddr: 0x45810, symSize: 0x50 }
  - { offset: 0xDA009, size: 0x8, addend: 0x0, symName: __RNvXCsjK30CmJ87bX_9hashbrownRNtNtCsiK7Gs1zPIjf_14thiserror_impl5unraw11MemberUnrawINtB2_10EquivalentBq_E10equivalentBv_, symObjAddr: 0x3B50, symBinAddr: 0x45860, symSize: 0x50 }
  - { offset: 0xDA098, size: 0x8, addend: 0x0, symName: __RNvXNtCs9OU1sGv5X54_5quote9to_tokensRINtNtCsdGrGZaRBwMb_3syn10punctuated10PunctuatedNtCsaKzlTDPUHDb_11proc_macro211TokenStreamNtNtBE_5token4PlusENtB2_8ToTokens9to_tokensCsiK7Gs1zPIjf_14thiserror_impl, symObjAddr: 0x3BA0, symBinAddr: 0x458B0, symSize: 0x30 }
  - { offset: 0xDA0D7, size: 0x8, addend: 0x0, symName: __RNvXNtCs9OU1sGv5X54_5quote9to_tokensRNtNtCsiK7Gs1zPIjf_14thiserror_impl5unraw11MemberUnrawNtB2_8ToTokens9to_tokensBD_, symObjAddr: 0x3BD0, symBinAddr: 0x458E0, symSize: 0x30 }
  - { offset: 0xDA957, size: 0x8, addend: 0x0, symName: __RINvMNtCsieiGu2EXtoJ_4core6resultINtB3_6ResultNtCsaKzlTDPUHDb_11proc_macro25IdentNtNtCsdGrGZaRBwMb_3syn5error5ErrorE3mapNtNtCsiK7Gs1zPIjf_14thiserror_impl5unraw10IdentUnrawNvMB1W_B1U_3newEB1Y_, symObjAddr: 0x0, symBinAddr: 0x47970, symSize: 0xE0 }
  - { offset: 0xDADA3, size: 0x8, addend: 0x0, symName: __RNvXsV_NtCscKtU6MdFI5n_10proc_macro6bridgeINtNtCsieiGu2EXtoJ_4core6result6ResultINtNtBJ_6option6OptionNtNtB5_6client11TokenStreamEuEINtNtB5_3rpc6EncodeuE6encodeCsiK7Gs1zPIjf_14thiserror_impl, symObjAddr: 0x2E50, symBinAddr: 0x4A660, symSize: 0xE0 }
  - { offset: 0xDAE67, size: 0x8, addend: 0x0, symName: __RNvXsV_NtCscKtU6MdFI5n_10proc_macro6bridgeINtNtCsieiGu2EXtoJ_4core6result6ResultuNtNtB5_3rpc12PanicMessageEINtB1j_6EncodeuE6encodeCsiK7Gs1zPIjf_14thiserror_impl, symObjAddr: 0x2F30, symBinAddr: 0x4A740, symSize: 0x120 }
  - { offset: 0xDBF67, size: 0x8, addend: 0x0, symName: __RINvNtCsieiGu2EXtoJ_4core3ptr10swap_chunkKj1_ECsiK7Gs1zPIjf_14thiserror_impl, symObjAddr: 0x300, symBinAddr: 0x47C70, symSize: 0x30 }
  - { offset: 0xDBFA0, size: 0x8, addend: 0x0, symName: __RINvNtCsieiGu2EXtoJ_4core3ptr10swap_chunkKj2_ECsiK7Gs1zPIjf_14thiserror_impl, symObjAddr: 0x330, symBinAddr: 0x47CA0, symSize: 0x30 }
  - { offset: 0xDBFD9, size: 0x8, addend: 0x0, symName: __RINvNtCsieiGu2EXtoJ_4core3ptr10swap_chunkKj4_ECsiK7Gs1zPIjf_14thiserror_impl, symObjAddr: 0x360, symBinAddr: 0x47CD0, symSize: 0x30 }
  - { offset: 0xDC012, size: 0x8, addend: 0x0, symName: __RINvNtCsieiGu2EXtoJ_4core3ptr10swap_chunkKj8_ECsiK7Gs1zPIjf_14thiserror_impl, symObjAddr: 0x390, symBinAddr: 0x47D00, symSize: 0x30 }
  - { offset: 0xDC104, size: 0x8, addend: 0x0, symName: __RNvNvNtCsieiGu2EXtoJ_4core3ptr19swap_nonoverlapping18precondition_checkCsiK7Gs1zPIjf_14thiserror_impl, symObjAddr: 0x1580, symBinAddr: 0x48D90, symSize: 0x4E0 }
  - { offset: 0xDC444, size: 0x8, addend: 0x0, symName: __RINvNtCsieiGu2EXtoJ_4core3ptr19swap_nonoverlappinghECsiK7Gs1zPIjf_14thiserror_impl, symObjAddr: 0x520, symBinAddr: 0x47D30, symSize: 0xB0 }
  - { offset: 0xDC637, size: 0x8, addend: 0x0, symName: __RINvNvNtCsieiGu2EXtoJ_4core3ptr25swap_nonoverlapping_bytes26swap_nonoverlapping_chunksKj8_ECsiK7Gs1zPIjf_14thiserror_impl, symObjAddr: 0x5D0, symBinAddr: 0x47DE0, symSize: 0x110 }
  - { offset: 0xDC7DC, size: 0x8, addend: 0x0, symName: __RNvNvNtCsieiGu2EXtoJ_4core3ptr25swap_nonoverlapping_bytes25swap_nonoverlapping_shortCsiK7Gs1zPIjf_14thiserror_impl, symObjAddr: 0x1A60, symBinAddr: 0x49270, symSize: 0x160 }
  - { offset: 0xDC9E9, size: 0x8, addend: 0x0, symName: __RNvNtCsieiGu2EXtoJ_4core3ptr25swap_nonoverlapping_bytesCsiK7Gs1zPIjf_14thiserror_impl, symObjAddr: 0xCD0, symBinAddr: 0x484E0, symSize: 0xD0 }
  - { offset: 0xDCE34, size: 0x8, addend: 0x0, symName: __RNvNvNtCsieiGu2EXtoJ_4core3ptr19copy_nonoverlapping18precondition_checkCsiK7Gs1zPIjf_14thiserror_impl, symObjAddr: 0x10D0, symBinAddr: 0x488E0, symSize: 0x4B0 }
  - { offset: 0xDD145, size: 0x8, addend: 0x0, symName: __RNvNvNtCsieiGu2EXtoJ_4core3ptr4copy18precondition_checkCsiK7Gs1zPIjf_14thiserror_impl, symObjAddr: 0x1BC0, symBinAddr: 0x493D0, symSize: 0x330 }
  - { offset: 0xDD3F3, size: 0x8, addend: 0x0, symName: __RNvNvNtCsieiGu2EXtoJ_4core3ptr7replace18precondition_checkCsiK7Gs1zPIjf_14thiserror_impl, symObjAddr: 0x1EF0, symBinAddr: 0x49700, symSize: 0x1E0 }
  - { offset: 0xDD979, size: 0x8, addend: 0x0, symName: __RINvXso_NtCsieiGu2EXtoJ_4core6resultINtB6_6ResultINtNtCslJiobkLta79_5alloc3vec3VecNtNtCsiK7Gs1zPIjf_14thiserror_impl3ast5FieldENtNtCsdGrGZaRBwMb_3syn5error5ErrorEINtNtNtNtB8_4iter6traits7collect12FromIteratorIBz_B1i_B21_EE9from_iterINtNtNtB2H_8adapters3map3MapINtNtB3N_9enumerate9EnumerateINtNtB25_10punctuated4IterNtNtB25_4data5FieldEENCNvMs2_B1k_B1i_17multiple_from_syn0EEB1m_, symObjAddr: 0x6E0, symBinAddr: 0x47EF0, symSize: 0x30 }
  - { offset: 0xDD9CC, size: 0x8, addend: 0x0, symName: __RINvXso_NtCsieiGu2EXtoJ_4core6resultINtB6_6ResultINtNtCslJiobkLta79_5alloc3vec3VecNtNtCsiK7Gs1zPIjf_14thiserror_impl3ast7VariantENtNtCsdGrGZaRBwMb_3syn5error5ErrorEINtNtNtNtB8_4iter6traits7collect12FromIteratorIBz_B1i_B23_EE9from_iterINtNtNtB2J_8adapters3map3MapINtNtB27_10punctuated4IterNtNtB27_4data7VariantENCNvMs0_B1k_NtB1k_4Enum8from_syn0EEB1m_, symObjAddr: 0x710, symBinAddr: 0x47F20, symSize: 0x30 }
  - { offset: 0xDDA24, size: 0x8, addend: 0x0, symName: __RNCINvXso_NtCsieiGu2EXtoJ_4core6resultINtB8_6ResultINtNtCslJiobkLta79_5alloc3vec3VecNtNtCsiK7Gs1zPIjf_14thiserror_impl3ast5FieldENtNtCsdGrGZaRBwMb_3syn5error5ErrorEINtNtNtNtBa_4iter6traits7collect12FromIteratorIBB_B1k_B23_EE9from_iterINtNtNtB2J_8adapters3map3MapINtNtB3P_9enumerate9EnumerateINtNtB27_10punctuated4IterNtNtB27_4data5FieldEENCNvMs2_B1m_B1k_17multiple_from_syn0EE0B1o_, symObjAddr: 0x840, symBinAddr: 0x48050, symSize: 0x30 }
  - { offset: 0xDDA82, size: 0x8, addend: 0x0, symName: __RNCINvXso_NtCsieiGu2EXtoJ_4core6resultINtB8_6ResultINtNtCslJiobkLta79_5alloc3vec3VecNtNtCsiK7Gs1zPIjf_14thiserror_impl3ast7VariantENtNtCsdGrGZaRBwMb_3syn5error5ErrorEINtNtNtNtBa_4iter6traits7collect12FromIteratorIBB_B1k_B25_EE9from_iterINtNtNtB2L_8adapters3map3MapINtNtB29_10punctuated4IterNtNtB29_4data7VariantENCNvMs0_B1m_NtB1m_4Enum8from_syn0EE0B1o_, symObjAddr: 0x870, symBinAddr: 0x48080, symSize: 0x30 }
  - { offset: 0xDDD12, size: 0x8, addend: 0x0, symName: __RNvXsq_NtCsieiGu2EXtoJ_4core6resultINtB5_6ResultINtNtB7_6option6OptionNtCsaKzlTDPUHDb_11proc_macro29TokenTreeENtNtCsdGrGZaRBwMb_3syn5error5ErrorEINtNtNtB7_3ops9try_trait12FromResidualIBy_NtNtB7_7convert10InfallibleB1K_EE13from_residualCsiK7Gs1zPIjf_14thiserror_impl, symObjAddr: 0x3FD0, symBinAddr: 0x4B7E0, symSize: 0x60 }
  - { offset: 0xDDD97, size: 0x8, addend: 0x0, symName: __RNvXsq_NtCsieiGu2EXtoJ_4core6resultINtB5_6ResultINtNtCslJiobkLta79_5alloc3vec3VecNtNtCsiK7Gs1zPIjf_14thiserror_impl3ast5FieldENtNtCsdGrGZaRBwMb_3syn5error5ErrorEINtNtNtB7_3ops9try_trait12FromResidualIBy_NtNtB7_7convert10InfallibleB20_EE13from_residualB1l_, symObjAddr: 0x4030, symBinAddr: 0x4B840, symSize: 0x60 }
  - { offset: 0xDDE1C, size: 0x8, addend: 0x0, symName: __RNvXsq_NtCsieiGu2EXtoJ_4core6resultINtB5_6ResultINtNtCslJiobkLta79_5alloc3vec3VecNtNtCsiK7Gs1zPIjf_14thiserror_impl3ast7VariantENtNtCsdGrGZaRBwMb_3syn5error5ErrorEINtNtNtB7_3ops9try_trait12FromResidualIBy_NtNtB7_7convert10InfallibleB22_EE13from_residualB1l_, symObjAddr: 0x4090, symBinAddr: 0x4B8A0, symSize: 0x60 }
  - { offset: 0xDDEA1, size: 0x8, addend: 0x0, symName: __RNvXsq_NtCsieiGu2EXtoJ_4core6resultINtB5_6ResultNtCsaKzlTDPUHDb_11proc_macro25IdentNtNtCsdGrGZaRBwMb_3syn5error5ErrorEINtNtNtB7_3ops9try_trait12FromResidualIBy_NtNtB7_7convert10InfallibleNtBM_8LexErrorEE13from_residualCsiK7Gs1zPIjf_14thiserror_impl, symObjAddr: 0x40F0, symBinAddr: 0x4B900, symSize: 0x60 }
  - { offset: 0xDDF08, size: 0x8, addend: 0x0, symName: __RNvXsq_NtCsieiGu2EXtoJ_4core6resultINtB5_6ResultNtNtCsiK7Gs1zPIjf_14thiserror_impl3ast4EnumNtNtCsdGrGZaRBwMb_3syn5error5ErrorEINtNtNtB7_3ops9try_trait12FromResidualIBy_NtNtB7_7convert10InfallibleB1r_EE13from_residualBO_, symObjAddr: 0x4150, symBinAddr: 0x4B960, symSize: 0x60 }
  - { offset: 0xDDF8D, size: 0x8, addend: 0x0, symName: __RNvXsq_NtCsieiGu2EXtoJ_4core6resultINtB5_6ResultNtNtCsiK7Gs1zPIjf_14thiserror_impl3ast5FieldNtNtCsdGrGZaRBwMb_3syn5error5ErrorEINtNtNtB7_3ops9try_trait12FromResidualIBy_NtNtB7_7convert10InfallibleB1s_EE13from_residualBO_, symObjAddr: 0x41B0, symBinAddr: 0x4B9C0, symSize: 0x60 }
  - { offset: 0xDE012, size: 0x8, addend: 0x0, symName: __RNvXsq_NtCsieiGu2EXtoJ_4core6resultINtB5_6ResultNtNtCsiK7Gs1zPIjf_14thiserror_impl3ast6StructNtNtCsdGrGZaRBwMb_3syn5error5ErrorEINtNtNtB7_3ops9try_trait12FromResidualIBy_NtNtB7_7convert10InfallibleB1t_EE13from_residualBO_, symObjAddr: 0x4210, symBinAddr: 0x4BA20, symSize: 0x60 }
  - { offset: 0xDE097, size: 0x8, addend: 0x0, symName: __RNvXsq_NtCsieiGu2EXtoJ_4core6resultINtB5_6ResultNtNtCsiK7Gs1zPIjf_14thiserror_impl3ast7VariantNtNtCsdGrGZaRBwMb_3syn5error5ErrorEINtNtNtB7_3ops9try_trait12FromResidualIBy_NtNtB7_7convert10InfallibleB1u_EE13from_residualBO_, symObjAddr: 0x4270, symBinAddr: 0x4BA80, symSize: 0x60 }
  - { offset: 0xDE11C, size: 0x8, addend: 0x0, symName: __RNvXsq_NtCsieiGu2EXtoJ_4core6resultINtB5_6ResultNtNtCsiK7Gs1zPIjf_14thiserror_impl3fmt12FmtArgumentsNtNtCsdGrGZaRBwMb_3syn5error5ErrorEINtNtNtB7_3ops9try_trait12FromResidualIBy_NtNtB7_7convert10InfallibleB1A_EE13from_residualBO_, symObjAddr: 0x42D0, symBinAddr: 0x4BAE0, symSize: 0x60 }
  - { offset: 0xDE1A1, size: 0x8, addend: 0x0, symName: __RNvXsq_NtCsieiGu2EXtoJ_4core6resultINtB5_6ResultNtNtCsiK7Gs1zPIjf_14thiserror_impl4attr5AttrsNtNtCsdGrGZaRBwMb_3syn5error5ErrorEINtNtNtB7_3ops9try_trait12FromResidualIBy_NtNtB7_7convert10InfallibleB1t_EE13from_residualBO_, symObjAddr: 0x4330, symBinAddr: 0x4BB40, symSize: 0x60 }
  - { offset: 0xDE226, size: 0x8, addend: 0x0, symName: __RNvXsq_NtCsieiGu2EXtoJ_4core6resultINtB5_6ResultNtNtNvNtCsiK7Gs1zPIjf_14thiserror_impl4attr21parse_error_attribute2kw11transparentNtNtCsdGrGZaRBwMb_3syn5error5ErrorEINtNtNtB7_3ops9try_trait12FromResidualIBy_NtNtB7_7convert10InfallibleB24_EE13from_residualBS_, symObjAddr: 0x4390, symBinAddr: 0x4BBA0, symSize: 0x50 }
  - { offset: 0xDE2AB, size: 0x8, addend: 0x0, symName: __RNvXsq_NtCsieiGu2EXtoJ_4core6resultINtB5_6ResultNtNtNvNtCsiK7Gs1zPIjf_14thiserror_impl4attr21parse_error_attribute2kw3fmtNtNtCsdGrGZaRBwMb_3syn5error5ErrorEINtNtNtB7_3ops9try_trait12FromResidualIBy_NtNtB7_7convert10InfallibleB1V_EE13from_residualBS_, symObjAddr: 0x43E0, symBinAddr: 0x4BBF0, symSize: 0x50 }
  - { offset: 0xDE476, size: 0x8, addend: 0x0, symName: __RNvXsp_NtCsieiGu2EXtoJ_4core6resultINtB5_6ResultINtNtB7_6option6OptionNtCsaKzlTDPUHDb_11proc_macro29TokenTreeENtNtCsdGrGZaRBwMb_3syn5error5ErrorENtNtNtB7_3ops9try_trait3Try6branchCsiK7Gs1zPIjf_14thiserror_impl, symObjAddr: 0x31E0, symBinAddr: 0x4A9F0, symSize: 0xD0 }
  - { offset: 0xDE4F4, size: 0x8, addend: 0x0, symName: __RNvXsp_NtCsieiGu2EXtoJ_4core6resultINtB5_6ResultINtNtCslJiobkLta79_5alloc3vec3VecNtNtCsiK7Gs1zPIjf_14thiserror_impl3ast5FieldENtNtCsdGrGZaRBwMb_3syn5error5ErrorENtNtNtB7_3ops9try_trait3Try11from_outputB1l_, symObjAddr: 0x32B0, symBinAddr: 0x4AAC0, symSize: 0x30 }
  - { offset: 0xDE534, size: 0x8, addend: 0x0, symName: __RNvXsp_NtCsieiGu2EXtoJ_4core6resultINtB5_6ResultINtNtCslJiobkLta79_5alloc3vec3VecNtNtCsiK7Gs1zPIjf_14thiserror_impl3ast5FieldENtNtCsdGrGZaRBwMb_3syn5error5ErrorENtNtNtB7_3ops9try_trait3Try6branchB1l_, symObjAddr: 0x32E0, symBinAddr: 0x4AAF0, symSize: 0xC0 }
  - { offset: 0xDE5B2, size: 0x8, addend: 0x0, symName: __RNvXsp_NtCsieiGu2EXtoJ_4core6resultINtB5_6ResultINtNtCslJiobkLta79_5alloc3vec3VecNtNtCsiK7Gs1zPIjf_14thiserror_impl3ast7VariantENtNtCsdGrGZaRBwMb_3syn5error5ErrorENtNtNtB7_3ops9try_trait3Try11from_outputB1l_, symObjAddr: 0x33A0, symBinAddr: 0x4ABB0, symSize: 0x30 }
  - { offset: 0xDE5F2, size: 0x8, addend: 0x0, symName: __RNvXsp_NtCsieiGu2EXtoJ_4core6resultINtB5_6ResultINtNtCslJiobkLta79_5alloc3vec3VecNtNtCsiK7Gs1zPIjf_14thiserror_impl3ast7VariantENtNtCsdGrGZaRBwMb_3syn5error5ErrorENtNtNtB7_3ops9try_trait3Try6branchB1l_, symObjAddr: 0x33D0, symBinAddr: 0x4ABE0, symSize: 0xC0 }
  - { offset: 0xDE670, size: 0x8, addend: 0x0, symName: __RNvXsp_NtCsieiGu2EXtoJ_4core6resultINtB5_6ResultNtCsaKzlTDPUHDb_11proc_macro29TokenTreeNtNtCsdGrGZaRBwMb_3syn5error5ErrorENtNtNtB7_3ops9try_trait3Try6branchCsiK7Gs1zPIjf_14thiserror_impl, symObjAddr: 0x3490, symBinAddr: 0x4ACA0, symSize: 0xD0 }
  - { offset: 0xDE6EE, size: 0x8, addend: 0x0, symName: __RNvXsp_NtCsieiGu2EXtoJ_4core6resultINtB5_6ResultNtNtCsdGrGZaRBwMb_3syn6derive11DeriveInputNtNtBO_5error5ErrorENtNtNtB7_3ops9try_trait3Try6branchCsiK7Gs1zPIjf_14thiserror_impl, symObjAddr: 0x3560, symBinAddr: 0x4AD70, symSize: 0xE0 }
  - { offset: 0xDE76C, size: 0x8, addend: 0x0, symName: __RNvXsp_NtCsieiGu2EXtoJ_4core6resultINtB5_6ResultNtNtCsiK7Gs1zPIjf_14thiserror_impl3ast5FieldNtNtCsdGrGZaRBwMb_3syn5error5ErrorENtNtNtB7_3ops9try_trait3Try6branchBO_, symObjAddr: 0x3640, symBinAddr: 0x4AE50, symSize: 0xF0 }
  - { offset: 0xDE7EA, size: 0x8, addend: 0x0, symName: __RNvXsp_NtCsieiGu2EXtoJ_4core6resultINtB5_6ResultNtNtCsiK7Gs1zPIjf_14thiserror_impl3ast5InputNtNtCsdGrGZaRBwMb_3syn5error5ErrorENtNtNtB7_3ops9try_trait3Try6branchBO_, symObjAddr: 0x3730, symBinAddr: 0x4AF40, symSize: 0xE0 }
  - { offset: 0xDE868, size: 0x8, addend: 0x0, symName: __RNvXsp_NtCsieiGu2EXtoJ_4core6resultINtB5_6ResultNtNtCsiK7Gs1zPIjf_14thiserror_impl3ast7VariantNtNtCsdGrGZaRBwMb_3syn5error5ErrorENtNtNtB7_3ops9try_trait3Try6branchBO_, symObjAddr: 0x3810, symBinAddr: 0x4B020, symSize: 0xF0 }
  - { offset: 0xDE8E6, size: 0x8, addend: 0x0, symName: __RNvXsp_NtCsieiGu2EXtoJ_4core6resultINtB5_6ResultNtNtCsiK7Gs1zPIjf_14thiserror_impl3fmt12FmtArgumentsNtNtCsdGrGZaRBwMb_3syn5error5ErrorENtNtNtB7_3ops9try_trait3Try6branchBO_, symObjAddr: 0x3900, symBinAddr: 0x4B110, symSize: 0xD0 }
  - { offset: 0xDE964, size: 0x8, addend: 0x0, symName: __RNvXsp_NtCsieiGu2EXtoJ_4core6resultINtB5_6ResultNtNtCsiK7Gs1zPIjf_14thiserror_impl4attr5AttrsNtNtCsdGrGZaRBwMb_3syn5error5ErrorENtNtNtB7_3ops9try_trait3Try6branchBO_, symObjAddr: 0x39D0, symBinAddr: 0x4B1E0, symSize: 0xF0 }
  - { offset: 0xDE9E2, size: 0x8, addend: 0x0, symName: __RNvXsp_NtCsieiGu2EXtoJ_4core6resultINtB5_6ResultNtNtCsiK7Gs1zPIjf_14thiserror_impl5unraw10IdentUnrawNtNtCsdGrGZaRBwMb_3syn5error5ErrorENtNtNtB7_3ops9try_trait3Try6branchBO_, symObjAddr: 0x3AC0, symBinAddr: 0x4B2D0, symSize: 0xC0 }
  - { offset: 0xDEA60, size: 0x8, addend: 0x0, symName: __RNvXsp_NtCsieiGu2EXtoJ_4core6resultINtB5_6ResultNtNtNvNtCsiK7Gs1zPIjf_14thiserror_impl4attr21parse_error_attribute2kw11transparentNtNtCsdGrGZaRBwMb_3syn5error5ErrorENtNtNtB7_3ops9try_trait3Try6branchBS_, symObjAddr: 0x3B80, symBinAddr: 0x4B390, symSize: 0xB0 }
  - { offset: 0xDEADD, size: 0x8, addend: 0x0, symName: __RNvXsp_NtCsieiGu2EXtoJ_4core6resultINtB5_6ResultNtNtNvNtCsiK7Gs1zPIjf_14thiserror_impl4attr21parse_error_attribute2kw3fmtNtNtCsdGrGZaRBwMb_3syn5error5ErrorENtNtNtB7_3ops9try_trait3Try6branchBS_, symObjAddr: 0x3C30, symBinAddr: 0x4B440, symSize: 0xB0 }
  - { offset: 0xDEB5A, size: 0x8, addend: 0x0, symName: __RNvXsp_NtCsieiGu2EXtoJ_4core6resultINtB5_6ResultRNtNtCsdGrGZaRBwMb_3syn4path4PathNtNtBP_5error5ErrorENtNtNtB7_3ops9try_trait3Try6branchCsiK7Gs1zPIjf_14thiserror_impl, symObjAddr: 0x3CE0, symBinAddr: 0x4B4F0, symSize: 0xB0 }
  - { offset: 0xDEBD7, size: 0x8, addend: 0x0, symName: __RNvXsp_NtCsieiGu2EXtoJ_4core6resultINtB5_6ResultTNtNtNvNtCsiK7Gs1zPIjf_14thiserror_impl4attr21parse_error_attribute2kw11transparentNtNtCsdGrGZaRBwMb_3syn6buffer6CursorENtNtB29_5error5ErrorENtNtNtB7_3ops9try_trait3Try6branchBT_, symObjAddr: 0x3D90, symBinAddr: 0x4B5A0, symSize: 0xC0 }
  - { offset: 0xDEC55, size: 0x8, addend: 0x0, symName: __RNvXsp_NtCsieiGu2EXtoJ_4core6resultINtB5_6ResultTNtNtNvNtCsiK7Gs1zPIjf_14thiserror_impl4attr21parse_error_attribute2kw3fmtNtNtCsdGrGZaRBwMb_3syn6buffer6CursorENtNtB20_5error5ErrorENtNtNtB7_3ops9try_trait3Try6branchBT_, symObjAddr: 0x3E50, symBinAddr: 0x4B660, symSize: 0xC0 }
  - { offset: 0xDECD3, size: 0x8, addend: 0x0, symName: __RNvXsp_NtCsieiGu2EXtoJ_4core6resultINtB5_6ResultTbNtNtCsdGrGZaRBwMb_3syn6buffer6CursorENtNtBQ_5error5ErrorENtNtNtB7_3ops9try_trait3Try6branchCsiK7Gs1zPIjf_14thiserror_impl, symObjAddr: 0x3F10, symBinAddr: 0x4B720, symSize: 0xC0 }
  - { offset: 0xE2764, size: 0x8, addend: 0x0, symName: __RNvXsF_NtNtCsieiGu2EXtoJ_4core4iter5rangejNtB5_4Step17forward_uncheckedCsiK7Gs1zPIjf_14thiserror_impl, symObjAddr: 0x2E10, symBinAddr: 0x4A620, symSize: 0x40 }
  - { offset: 0xE331D, size: 0x8, addend: 0x0, symName: __RINvYNtNtNtCsHUR1vrdMJt_3std4hash6random11RandomStateNtNtCsieiGu2EXtoJ_4core4hash11BuildHasher8hash_oneRNtNtCsiK7Gs1zPIjf_14thiserror_impl5unraw11MemberUnrawEB1I_, symObjAddr: 0x740, symBinAddr: 0x47F50, symSize: 0x80 }
  - { offset: 0xE3384, size: 0x8, addend: 0x0, symName: __RINvYNtNtNtCsHUR1vrdMJt_3std4hash6random11RandomStateNtNtCsieiGu2EXtoJ_4core4hash11BuildHasher8hash_oneRRNtNtCsiK7Gs1zPIjf_14thiserror_impl5unraw11MemberUnrawEB1J_, symObjAddr: 0x7C0, symBinAddr: 0x47FD0, symSize: 0x80 }
  - { offset: 0xE34D5, size: 0x8, addend: 0x0, symName: __RNvNtNtCsieiGu2EXtoJ_4core4hash3sip9u8to64_leCsiK7Gs1zPIjf_14thiserror_impl, symObjAddr: 0xE40, symBinAddr: 0x48650, symSize: 0x290 }
  - { offset: 0xE3729, size: 0x8, addend: 0x0, symName: __RNvXs3_NtNtCsieiGu2EXtoJ_4core4hash3sipINtB5_6HasherNtB5_11Sip13RoundsENtB7_6Hasher5writeCsiK7Gs1zPIjf_14thiserror_impl, symObjAddr: 0x22C0, symBinAddr: 0x49AD0, symSize: 0x260 }
  - { offset: 0xE389F, size: 0x8, addend: 0x0, symName: __RNvXs3_NtNtCsieiGu2EXtoJ_4core4hash3sipINtB5_6HasherNtB5_11Sip13RoundsENtB7_6Hasher6finishCsiK7Gs1zPIjf_14thiserror_impl, symObjAddr: 0x2520, symBinAddr: 0x49D30, symSize: 0x90 }
  - { offset: 0xE3912, size: 0x8, addend: 0x0, symName: __RNvXs3_NtNtCsieiGu2EXtoJ_4core4hash3sipINtB5_6HasherNtB5_11Sip13RoundsENtB7_6Hasher9write_strCsiK7Gs1zPIjf_14thiserror_impl, symObjAddr: 0x25B0, symBinAddr: 0x49DC0, symSize: 0x40 }
  - { offset: 0xE3978, size: 0x8, addend: 0x0, symName: __RNvXs6_NtNtCsieiGu2EXtoJ_4core4hash3sipNtB5_11Sip13RoundsNtB5_3Sip8c_roundsCsiK7Gs1zPIjf_14thiserror_impl, symObjAddr: 0x26E0, symBinAddr: 0x49EF0, symSize: 0x180 }
  - { offset: 0xE3AF4, size: 0x8, addend: 0x0, symName: __RNvXs6_NtNtCsieiGu2EXtoJ_4core4hash3sipNtB5_11Sip13RoundsNtB5_3Sip8d_roundsCsiK7Gs1zPIjf_14thiserror_impl, symObjAddr: 0x2860, symBinAddr: 0x4A070, symSize: 0x4C0 }
  - { offset: 0xE3F67, size: 0x8, addend: 0x0, symName: __RNvYNtNtNtCsHUR1vrdMJt_3std4hash6random13DefaultHasherNtNtCsieiGu2EXtoJ_4core4hash6Hasher9write_u32CsiK7Gs1zPIjf_14thiserror_impl, symObjAddr: 0x4440, symBinAddr: 0x4BC50, symSize: 0x30 }
  - { offset: 0xE4659, size: 0x8, addend: 0x0, symName: __RNvNvNtNtCsieiGu2EXtoJ_4core4char7convert18from_u32_unchecked18precondition_checkCsiK7Gs1zPIjf_14thiserror_impl, symObjAddr: 0x20D0, symBinAddr: 0x498E0, symSize: 0xF0 }
  - { offset: 0xE48EC, size: 0x8, addend: 0x0, symName: __RNvXs_NtCslJiobkLta79_5alloc5allocNtB4_6GlobalNtNtCsieiGu2EXtoJ_4core5alloc9Allocator10deallocateCsiK7Gs1zPIjf_14thiserror_impl, symObjAddr: 0x3050, symBinAddr: 0x4A860, symSize: 0x70 }
  - { offset: 0xE49B4, size: 0x8, addend: 0x0, symName: __RNvXs_NtCslJiobkLta79_5alloc5allocNtB4_6GlobalNtNtCsieiGu2EXtoJ_4core5alloc9Allocator8allocateCsiK7Gs1zPIjf_14thiserror_impl, symObjAddr: 0x30C0, symBinAddr: 0x4A8D0, symSize: 0x30 }
  - { offset: 0xE49EF, size: 0x8, addend: 0x0, symName: __RNvNtCslJiobkLta79_5alloc5alloc15exchange_mallocCsiK7Gs1zPIjf_14thiserror_impl, symObjAddr: 0xDA0, symBinAddr: 0x485B0, symSize: 0xA0 }
  - { offset: 0xE4A8B, size: 0x8, addend: 0x0, symName: __RNvXs1_NtCslJiobkLta79_5alloc5allocNtB5_6GlobalNtNtCsieiGu2EXtoJ_4core5clone5Clone5cloneCsiK7Gs1zPIjf_14thiserror_impl, symObjAddr: 0x2230, symBinAddr: 0x49A40, symSize: 0x10 }
  - { offset: 0xEAC0D, size: 0x8, addend: 0x0, symName: __RNCNkNvNvMNtNtCsHUR1vrdMJt_3std4hash6randomNtB8_11RandomState3new4KEYS0s_0CsiK7Gs1zPIjf_14thiserror_impl, symObjAddr: 0x8A0, symBinAddr: 0x480B0, symSize: 0x30 }
  - { offset: 0xEAC4B, size: 0x8, addend: 0x0, symName: __RNvNvNvMNtNtCsHUR1vrdMJt_3std4hash6randomNtB6_11RandomState3new4KEYS6___initCsiK7Gs1zPIjf_14thiserror_impl, symObjAddr: 0x21C0, symBinAddr: 0x499D0, symSize: 0x20 }
  - { offset: 0xEAC69, size: 0x8, addend: 0x0, symName: __RNCNvMNtNtCsHUR1vrdMJt_3std4hash6randomNtB4_11RandomState3new0CsiK7Gs1zPIjf_14thiserror_impl, symObjAddr: 0x8D0, symBinAddr: 0x480E0, symSize: 0x20 }
  - { offset: 0xEAD2E, size: 0x8, addend: 0x0, symName: __RNvXs2_NtNtCsHUR1vrdMJt_3std4hash6randomNtB5_13DefaultHasherNtNtCsieiGu2EXtoJ_4core4hash6Hasher5writeCsiK7Gs1zPIjf_14thiserror_impl, symObjAddr: 0x2240, symBinAddr: 0x49A50, symSize: 0x30 }
  - { offset: 0xEAD89, size: 0x8, addend: 0x0, symName: __RNvXs2_NtNtCsHUR1vrdMJt_3std4hash6randomNtB5_13DefaultHasherNtNtCsieiGu2EXtoJ_4core4hash6Hasher6finishCsiK7Gs1zPIjf_14thiserror_impl, symObjAddr: 0x2270, symBinAddr: 0x49A80, symSize: 0x20 }
  - { offset: 0xEADD2, size: 0x8, addend: 0x0, symName: __RNvXs2_NtNtCsHUR1vrdMJt_3std4hash6randomNtB5_13DefaultHasherNtNtCsieiGu2EXtoJ_4core4hash6Hasher9write_strCsiK7Gs1zPIjf_14thiserror_impl, symObjAddr: 0x2290, symBinAddr: 0x49AA0, symSize: 0x30 }
  - { offset: 0xEAE33, size: 0x8, addend: 0x0, symName: __RNvXs_NtNtCsHUR1vrdMJt_3std4hash6randomNtB4_11RandomStateNtNtCsieiGu2EXtoJ_4core4hash11BuildHasher12build_hasherCsiK7Gs1zPIjf_14thiserror_impl, symObjAddr: 0x30F0, symBinAddr: 0x4A900, symSize: 0xF0 }
  - { offset: 0xEAF23, size: 0x8, addend: 0x0, symName: __RINvMNtCsieiGu2EXtoJ_4core6resultINtB3_6ResultNtCsaKzlTDPUHDb_11proc_macro25IdentNtNtCsdGrGZaRBwMb_3syn5error5ErrorE3mapNtNtCsiK7Gs1zPIjf_14thiserror_impl5unraw10IdentUnrawNvMB1W_B1U_3newEB1Y_, symObjAddr: 0x0, symBinAddr: 0x47970, symSize: 0xE0 }
  - { offset: 0xEB5BA, size: 0x8, addend: 0x0, symName: __RINvMNtCsieiGu2EXtoJ_4core6resultINtB3_6ResultNtNtCsiK7Gs1zPIjf_14thiserror_impl3ast4EnumNtNtCsdGrGZaRBwMb_3syn5error5ErrorE3mapNtBK_5InputNcNtB22_4Enum0EBM_, symObjAddr: 0xE0, symBinAddr: 0x47A50, symSize: 0x100 }
  - { offset: 0xEB666, size: 0x8, addend: 0x0, symName: __RINvMNtCsieiGu2EXtoJ_4core6resultINtB3_6ResultNtNtCsiK7Gs1zPIjf_14thiserror_impl3ast6StructNtNtCsdGrGZaRBwMb_3syn5error5ErrorE3mapNtBK_5InputNcNtB24_6Struct0EBM_, symObjAddr: 0x1E0, symBinAddr: 0x47B50, symSize: 0x100 }
  - { offset: 0xEB704, size: 0x8, addend: 0x0, symName: __RINvNtCs9OU1sGv5X54_5quote9___private8get_spanNtCsaKzlTDPUHDb_11proc_macro24SpanECsiK7Gs1zPIjf_14thiserror_impl, symObjAddr: 0x2E0, symBinAddr: 0x47C50, symSize: 0x20 }
  - { offset: 0xEB7F5, size: 0x8, addend: 0x0, symName: __RNvXs5_NtCs9OU1sGv5X54_5quote9___privateINtB5_9RepInterpNtCsaKzlTDPUHDb_11proc_macro211TokenStreamENtNtB7_9to_tokens8ToTokens9to_tokensCsiK7Gs1zPIjf_14thiserror_impl, symObjAddr: 0x25F0, symBinAddr: 0x49E00, symSize: 0x30 }
  - { offset: 0xEB834, size: 0x8, addend: 0x0, symName: __RNvXs5_NtCs9OU1sGv5X54_5quote9___privateINtB5_9RepInterpNtCsaKzlTDPUHDb_11proc_macro25IdentENtNtB7_9to_tokens8ToTokens9to_tokensCsiK7Gs1zPIjf_14thiserror_impl, symObjAddr: 0x2620, symBinAddr: 0x49E30, symSize: 0x30 }
  - { offset: 0xEB873, size: 0x8, addend: 0x0, symName: __RNvXs5_NtCs9OU1sGv5X54_5quote9___privateINtB5_9RepInterpRNtCsaKzlTDPUHDb_11proc_macro211TokenStreamENtNtB7_9to_tokens8ToTokens9to_tokensCsiK7Gs1zPIjf_14thiserror_impl, symObjAddr: 0x2650, symBinAddr: 0x49E60, symSize: 0x30 }
  - { offset: 0xEB8B2, size: 0x8, addend: 0x0, symName: __RNvXs5_NtCs9OU1sGv5X54_5quote9___privateINtB5_9RepInterpRNtCsaKzlTDPUHDb_11proc_macro25IdentENtNtB7_9to_tokens8ToTokens9to_tokensCsiK7Gs1zPIjf_14thiserror_impl, symObjAddr: 0x2680, symBinAddr: 0x49E90, symSize: 0x30 }
  - { offset: 0xEB8F1, size: 0x8, addend: 0x0, symName: __RNvXs5_NtCs9OU1sGv5X54_5quote9___privateINtB5_9RepInterpRNtNtCsiK7Gs1zPIjf_14thiserror_impl5unraw11MemberUnrawENtNtB7_9to_tokens8ToTokens9to_tokensBX_, symObjAddr: 0x26B0, symBinAddr: 0x49EC0, symSize: 0x30 }
  - { offset: 0xEB936, size: 0x8, addend: 0x0, symName: __RNvXs7_NtCs9OU1sGv5X54_5quote9___privateINtB5_20IdentFragmentAdapterRNtNtCsdGrGZaRBwMb_3syn4expr5IndexENtNtCsieiGu2EXtoJ_4core3fmt7Display3fmtCsiK7Gs1zPIjf_14thiserror_impl, symObjAddr: 0x2D20, symBinAddr: 0x4A530, symSize: 0x30 }
  - { offset: 0xEB97C, size: 0x8, addend: 0x0, symName: __RNvXs7_NtCs9OU1sGv5X54_5quote9___privateINtB5_20IdentFragmentAdapterRNtNtCslJiobkLta79_5alloc6string6StringENtNtCsieiGu2EXtoJ_4core3fmt7Display3fmtCsiK7Gs1zPIjf_14thiserror_impl, symObjAddr: 0x2D50, symBinAddr: 0x4A560, symSize: 0x30 }
  - { offset: 0xEB9C2, size: 0x8, addend: 0x0, symName: __RNvXs7_NtCs9OU1sGv5X54_5quote9___privateINtB5_20IdentFragmentAdapterRRNtNtCsdGrGZaRBwMb_3syn4expr5IndexENtNtCsieiGu2EXtoJ_4core3fmt7Display3fmtCsiK7Gs1zPIjf_14thiserror_impl, symObjAddr: 0x2D80, symBinAddr: 0x4A590, symSize: 0x30 }
  - { offset: 0xEBA08, size: 0x8, addend: 0x0, symName: __RNvXs7_NtCs9OU1sGv5X54_5quote9___privateINtB5_20IdentFragmentAdapterRReENtNtCsieiGu2EXtoJ_4core3fmt7Display3fmtCsiK7Gs1zPIjf_14thiserror_impl, symObjAddr: 0x2DB0, symBinAddr: 0x4A5C0, symSize: 0x30 }
  - { offset: 0xEBA4E, size: 0x8, addend: 0x0, symName: __RNvXs7_NtCs9OU1sGv5X54_5quote9___privateINtB5_20IdentFragmentAdapterRmENtNtCsieiGu2EXtoJ_4core3fmt7Display3fmtCsiK7Gs1zPIjf_14thiserror_impl, symObjAddr: 0x2DE0, symBinAddr: 0x4A5F0, symSize: 0x30 }
  - { offset: 0xEBA9A, size: 0x8, addend: 0x0, symName: __RNvYINtNtCs9OU1sGv5X54_5quote9___private11HasIteratorKb1_EINtB5_16CheckHasIteratorKBQ_E5checkCsiK7Gs1zPIjf_14thiserror_impl, symObjAddr: 0x4430, symBinAddr: 0x4BC40, symSize: 0x10 }
  - { offset: 0xEBCC5, size: 0x8, addend: 0x0, symName: __RNvXs1_NtCsjK30CmJ87bX_9hashbrown10scopeguardINtB5_10ScopeGuardNtNtB7_3raw13RawTableInnerNCINvMsa_B11_BZ_14prepare_resizeNtNtCslJiobkLta79_5alloc5alloc6GlobalE0ENtNtNtCsieiGu2EXtoJ_4core3ops4drop4Drop4dropCsiK7Gs1zPIjf_14thiserror_impl, symObjAddr: 0x21E0, symBinAddr: 0x499F0, symSize: 0x20 }
  - { offset: 0xEBCFF, size: 0x8, addend: 0x0, symName: __RNvXs1_NtCsjK30CmJ87bX_9hashbrown10scopeguardINtB5_10ScopeGuardQNtNtB7_3raw13RawTableInnerNCNvMsa_B12_B10_15rehash_in_place0ENtNtNtCsieiGu2EXtoJ_4core3ops4drop4Drop4dropCsiK7Gs1zPIjf_14thiserror_impl, symObjAddr: 0x2200, symBinAddr: 0x49A10, symSize: 0x30 }
  - { offset: 0xEBF15, size: 0x8, addend: 0x0, symName: __RNvMNtCsieiGu2EXtoJ_4core6resultINtB2_6ResultNtCsaKzlTDPUHDb_11proc_macro25IdentNtNtCsdGrGZaRBwMb_3syn5error5ErrorE6is_errCsiK7Gs1zPIjf_14thiserror_impl, symObjAddr: 0x8F0, symBinAddr: 0x48100, symSize: 0x20 }
  - { offset: 0xEBF75, size: 0x8, addend: 0x0, symName: __RNvMNtCsieiGu2EXtoJ_4core6resultINtB2_6ResultNtNtCsdGrGZaRBwMb_3syn2op5BinOpNtNtBL_5error5ErrorE5is_okCsiK7Gs1zPIjf_14thiserror_impl, symObjAddr: 0x910, symBinAddr: 0x48120, symSize: 0x30 }
  - { offset: 0xEBFB7, size: 0x8, addend: 0x0, symName: __RNvMNtCsieiGu2EXtoJ_4core6resultINtB2_6ResultNtNtCsdGrGZaRBwMb_3syn4expr4ExprNtNtBL_5error5ErrorE5is_okCsiK7Gs1zPIjf_14thiserror_impl, symObjAddr: 0x940, symBinAddr: 0x48150, symSize: 0x30 }
  - { offset: 0xEC179, size: 0x8, addend: 0x0, symName: __RNvMNtCslJiobkLta79_5alloc5allocNtB2_6Global10alloc_implCsiK7Gs1zPIjf_14thiserror_impl, symObjAddr: 0x970, symBinAddr: 0x48180, symSize: 0x290 }
  - { offset: 0xEC500, size: 0x8, addend: 0x0, symName: __RNvMs0_NtNtCsieiGu2EXtoJ_4core4hash3sipINtB5_6HasherNtB5_11Sip13RoundsE5resetCsiK7Gs1zPIjf_14thiserror_impl, symObjAddr: 0xC00, symBinAddr: 0x48410, symSize: 0x70 }
  - { offset: 0xEC545, size: 0x8, addend: 0x0, symName: __RNvMs6_NtCs9OU1sGv5X54_5quote9___privateINtB5_20IdentFragmentAdapterRNtNtCslJiobkLta79_5alloc6string6StringE4spanCsiK7Gs1zPIjf_14thiserror_impl, symObjAddr: 0xC70, symBinAddr: 0x48480, symSize: 0x20 }
  - { offset: 0xEC598, size: 0x8, addend: 0x0, symName: __RNvMs6_NtCs9OU1sGv5X54_5quote9___privateINtB5_20IdentFragmentAdapterRRNtNtCsdGrGZaRBwMb_3syn4expr5IndexE4spanCsiK7Gs1zPIjf_14thiserror_impl, symObjAddr: 0xC90, symBinAddr: 0x484A0, symSize: 0x20 }
  - { offset: 0xEC5DE, size: 0x8, addend: 0x0, symName: __RNvMs6_NtCs9OU1sGv5X54_5quote9___privateINtB5_20IdentFragmentAdapterRReE4spanCsiK7Gs1zPIjf_14thiserror_impl, symObjAddr: 0xCB0, symBinAddr: 0x484C0, symSize: 0x20 }
  - { offset: 0xECD42, size: 0x8, addend: 0x0, symName: __RINvMsc_NtNtNtCslJiobkLta79_5alloc11collections5btree3setINtB6_8BTreeSetNtNtCsiK7Gs1zPIjf_14thiserror_impl5unraw10IdentUnrawE8containsB18_EB1c_, symObjAddr: 0x0, symBinAddr: 0x4BC80, symSize: 0x50 }
  - { offset: 0xECE4A, size: 0x8, addend: 0x0, symName: __RINvNtNtNtCscKtU6MdFI5n_10proc_macro6bridge6client5state3setINtNtCsieiGu2EXtoJ_4core6option6OptionNtB4_11TokenStreamENCNCINvB4_10run_clientB1y_BW_NCNCINvMs6_B4_INtB4_6ClientNtB8_11TokenStreamB2L_E7expand1NvCsiK7Gs1zPIjf_14thiserror_impl12derive_errorE00E00EB3i_, symObjAddr: 0x9B0, symBinAddr: 0x4C630, symSize: 0xC0 }
  - { offset: 0xECF2A, size: 0x8, addend: 0x0, symName: __RNCNkNvNtNtNtCscKtU6MdFI5n_10proc_macro6bridge6client5state12BRIDGE_STATE0s_0CsiK7Gs1zPIjf_14thiserror_impl, symObjAddr: 0xDD0, symBinAddr: 0x4CA50, symSize: 0x20 }
  - { offset: 0xEE3F7, size: 0x8, addend: 0x0, symName: __RNvNvMs1_NtNtCsieiGu2EXtoJ_4core3ptr8non_nullINtB7_7NonNullpE13new_unchecked18precondition_checkCsiK7Gs1zPIjf_14thiserror_impl, symObjAddr: 0x1D50, symBinAddr: 0x4D9D0, symSize: 0x90 }
  - { offset: 0xEEF2D, size: 0x8, addend: 0x0, symName: __RNvYNtNtCsdGrGZaRBwMb_3syn6buffer6CursorNtNtCsieiGu2EXtoJ_4core3cmp10PartialOrd2ltCsiK7Gs1zPIjf_14thiserror_impl, symObjAddr: 0x3560, symBinAddr: 0x4F1E0, symSize: 0x50 }
  - { offset: 0xF2DC8, size: 0x8, addend: 0x0, symName: __RNvXsn_NtNtCsieiGu2EXtoJ_4core5panic11unwind_safeINtB5_16AssertUnwindSafeNCINvNtNtCscKtU6MdFI5n_10proc_macro6bridge6client10run_clientNtB1e_11TokenStreamINtNtB9_6option6OptionB28_ENCNCINvMs6_B1e_INtB1e_6ClientNtB1i_11TokenStreamB3l_E7expand1NvCsiK7Gs1zPIjf_14thiserror_impl12derive_errorE00E0EINtNtNtB9_3ops8function6FnOnceuE9call_onceB3T_, symObjAddr: 0x3490, symBinAddr: 0x4F110, symSize: 0x30 }
  - { offset: 0xF2EA2, size: 0x8, addend: 0x0, symName: __RNvNtNtNtCsieiGu2EXtoJ_4core9core_arch3x864sse212__mm_or_si128CsiK7Gs1zPIjf_14thiserror_impl, symObjAddr: 0x1A70, symBinAddr: 0x4D6F0, symSize: 0x20 }
  - { offset: 0xF2FB1, size: 0x8, addend: 0x0, symName: __RNvNtNtNtCsieiGu2EXtoJ_4core9core_arch3x864sse213__mm_set1_epi8CsiK7Gs1zPIjf_14thiserror_impl, symObjAddr: 0x1A90, symBinAddr: 0x4D710, symSize: 0x90 }
  - { offset: 0xF310B, size: 0x8, addend: 0x0, symName: __RNvNtNtNtCsieiGu2EXtoJ_4core9core_arch3x864sse214__mm_cmpeq_epi8CsiK7Gs1zPIjf_14thiserror_impl, symObjAddr: 0x1B20, symBinAddr: 0x4D7A0, symSize: 0x80 }
  - { offset: 0xF314B, size: 0x8, addend: 0x0, symName: __RNvNtNtNtCsieiGu2EXtoJ_4core9core_arch3x864sse214__mm_cmpgt_epi8CsiK7Gs1zPIjf_14thiserror_impl, symObjAddr: 0x1BA0, symBinAddr: 0x4D820, symSize: 0x80 }
  - { offset: 0xF318B, size: 0x8, addend: 0x0, symName: __RNvNtNtNtCsieiGu2EXtoJ_4core9core_arch3x864sse214__mm_load_si128CsiK7Gs1zPIjf_14thiserror_impl, symObjAddr: 0x1C20, symBinAddr: 0x4D8A0, symSize: 0x20 }
  - { offset: 0xF31CA, size: 0x8, addend: 0x0, symName: __RNvNtNtNtCsieiGu2EXtoJ_4core9core_arch3x864sse215__mm_loadu_si128CsiK7Gs1zPIjf_14thiserror_impl, symObjAddr: 0x1C40, symBinAddr: 0x4D8C0, symSize: 0x90 }
  - { offset: 0xF3259, size: 0x8, addend: 0x0, symName: __RNvNtNtNtCsieiGu2EXtoJ_4core9core_arch3x864sse215__mm_store_si128CsiK7Gs1zPIjf_14thiserror_impl, symObjAddr: 0x1CD0, symBinAddr: 0x4D950, symSize: 0x20 }
  - { offset: 0xF3292, size: 0x8, addend: 0x0, symName: __RNvNtNtNtCsieiGu2EXtoJ_4core9core_arch3x864sse217__mm_movemask_epi8CsiK7Gs1zPIjf_14thiserror_impl, symObjAddr: 0x1CF0, symBinAddr: 0x4D970, symSize: 0x50 }
  - { offset: 0xF32FE, size: 0x8, addend: 0x0, symName: __RNvNtNtNtCsieiGu2EXtoJ_4core9core_arch3x864sse217__mm_setzero_si128CsiK7Gs1zPIjf_14thiserror_impl, symObjAddr: 0x1D40, symBinAddr: 0x4D9C0, symSize: 0x10 }
  - { offset: 0xF3449, size: 0x8, addend: 0x0, symName: __RNvXNtNtNtCsieiGu2EXtoJ_4core5array4iter10iter_innerSINtNtNtB8_3mem12maybe_uninit11MaybeUninitjENtB2_11PartialDrop12partial_dropCsiK7Gs1zPIjf_14thiserror_impl, symObjAddr: 0x2930, symBinAddr: 0x4E5B0, symSize: 0xB0 }
  - { offset: 0xF355F, size: 0x8, addend: 0x0, symName: __RNvXs_NtNtNtCsieiGu2EXtoJ_4core5array4iter10iter_innerAINtNtNtBa_3mem12maybe_uninit11MaybeUninitjEj2_NtB4_11PartialDrop12partial_dropCsiK7Gs1zPIjf_14thiserror_impl, symObjAddr: 0x2E80, symBinAddr: 0x4EB00, symSize: 0x40 }
  - { offset: 0xF35C9, size: 0x8, addend: 0x0, symName: __RNvXsf_NtCsieiGu2EXtoJ_4core5tupleTINtNtNtNtCslJiobkLta79_5alloc11collections5btree3set8BTreeSetNtNtBG_6string6StringEINtNtCsdGrGZaRBwMb_3syn10punctuated10PunctuatedNtCsaKzlTDPUHDb_11proc_macro211TokenStreamNtNtB1X_5token4PlusEENtNtB7_7default7Default7defaultCsiK7Gs1zPIjf_14thiserror_impl, symObjAddr: 0x3100, symBinAddr: 0x4ED80, symSize: 0xB0 }
  - { offset: 0xF40F1, size: 0x8, addend: 0x0, symName: __RINvXsd_NtNtNtCslJiobkLta79_5alloc11collections5btree3setINtB6_8BTreeSetRNtCsaKzlTDPUHDb_11proc_macro25IdentEINtNtNtNtCsieiGu2EXtoJ_4core4iter6traits7collect12FromIteratorB18_E9from_iterINtNtNtB1Q_8adapters3map3MapNtNtCsdGrGZaRBwMb_3syn8generics10TypeParamsNCNvMNtCsiK7Gs1zPIjf_14thiserror_impl8genericsNtB4c_13ParamsInScope3new0EEB4e_, symObjAddr: 0xB90, symBinAddr: 0x4C810, symSize: 0x1D0 }
  - { offset: 0xF4297, size: 0x8, addend: 0x0, symName: __RNCINvMse_NtNtNtCslJiobkLta79_5alloc11collections5btree3setINtB8_8BTreeSetRNtCsaKzlTDPUHDb_11proc_macro25IdentE16from_sorted_iterINtNtNtBe_3vec9into_iter8IntoIterB1a_EE0CsiK7Gs1zPIjf_14thiserror_impl, symObjAddr: 0xD60, symBinAddr: 0x4C9E0, symSize: 0x20 }
  - { offset: 0xF42F9, size: 0x8, addend: 0x0, symName: __RNvXs3_NtNtNtCslJiobkLta79_5alloc11collections5btree3setINtB5_8BTreeSetTjNtNtCsiK7Gs1zPIjf_14thiserror_impl4attr5TraitEENtNtCsieiGu2EXtoJ_4core5clone5Clone10clone_fromB1d_, symObjAddr: 0x29E0, symBinAddr: 0x4E660, symSize: 0x20 }
  - { offset: 0xF4341, size: 0x8, addend: 0x0, symName: __RNvXs3_NtNtNtCslJiobkLta79_5alloc11collections5btree3setINtB5_8BTreeSetTjNtNtCsiK7Gs1zPIjf_14thiserror_impl4attr5TraitEENtNtCsieiGu2EXtoJ_4core5clone5Clone5cloneB1d_, symObjAddr: 0x2A00, symBinAddr: 0x4E680, symSize: 0x50 }
  - { offset: 0xF4385, size: 0x8, addend: 0x0, symName: __RNvXsg_NtNtNtCslJiobkLta79_5alloc11collections5btree3setINtB5_8BTreeSetTjNtNtCsiK7Gs1zPIjf_14thiserror_impl4attr5TraitEENtNtNtNtCsieiGu2EXtoJ_4core4iter6traits7collect12IntoIterator9into_iterB1d_, symObjAddr: 0x3330, symBinAddr: 0x4EFB0, symSize: 0x50 }
  - { offset: 0xF43CC, size: 0x8, addend: 0x0, symName: __RNvXsn_NtNtNtCslJiobkLta79_5alloc11collections5btree3setINtB5_8BTreeSetNtNtBb_6string6StringENtNtCsieiGu2EXtoJ_4core7default7Default7defaultCsiK7Gs1zPIjf_14thiserror_impl, symObjAddr: 0x34C0, symBinAddr: 0x4F140, symSize: 0x40 }
  - { offset: 0xF4432, size: 0x8, addend: 0x0, symName: __RNvXsy_NtNtNtCslJiobkLta79_5alloc11collections5btree3setINtB5_8IntoIterTjNtNtCsiK7Gs1zPIjf_14thiserror_impl4attr5TraitEENtNtNtNtCsieiGu2EXtoJ_4core4iter6traits8iterator8Iterator4nextB1d_, symObjAddr: 0x3500, symBinAddr: 0x4F180, symSize: 0x60 }
  - { offset: 0xF58CD, size: 0x8, addend: 0x0, symName: __RINvXsd_NtCslJiobkLta79_5alloc3vecINtB6_3VecNtCsaKzlTDPUHDb_11proc_macro211TokenStreamEINtNtNtNtCsieiGu2EXtoJ_4core4iter6traits7collect12FromIteratorBG_E9from_iterINtNtNtB1u_8adapters3map3MapINtNtNtB1w_5slice4iter4IterNtNtCsiK7Gs1zPIjf_14thiserror_impl3ast7VariantENCNvNtB3y_6expand9impl_enums1_0EEB3y_, symObjAddr: 0xA70, symBinAddr: 0x4C6F0, symSize: 0x40 }
  - { offset: 0xF590E, size: 0x8, addend: 0x0, symName: __RINvXsd_NtCslJiobkLta79_5alloc3vecINtB6_3VecNtNtCsiK7Gs1zPIjf_14thiserror_impl3ast5FieldEINtNtNtNtCsieiGu2EXtoJ_4core4iter6traits7collect12FromIteratorBG_E9from_iterINtNtB1w_8adapters12GenericShuntINtNtB2G_3map3MapINtNtB2G_9enumerate9EnumerateINtNtCsdGrGZaRBwMb_3syn10punctuated4IterNtNtB3Y_4data5FieldEENCNvMs2_BI_BG_17multiple_from_syn0EINtNtB1y_6result6ResultNtNtB1y_7convert10InfallibleNtNtB3Y_5error5ErrorEEEBK_, symObjAddr: 0xAB0, symBinAddr: 0x4C730, symSize: 0x40 }
  - { offset: 0xF594F, size: 0x8, addend: 0x0, symName: __RINvXsd_NtCslJiobkLta79_5alloc3vecINtB6_3VecNtNtCsiK7Gs1zPIjf_14thiserror_impl3ast7VariantEINtNtNtNtCsieiGu2EXtoJ_4core4iter6traits7collect12FromIteratorBG_E9from_iterINtNtB1y_8adapters12GenericShuntINtNtB2I_3map3MapINtNtCsdGrGZaRBwMb_3syn10punctuated4IterNtNtB3x_4data7VariantENCNvMs0_BI_NtBI_4Enum8from_syn0EINtNtB1A_6result6ResultNtNtB1A_7convert10InfallibleNtNtB3x_5error5ErrorEEEBK_, symObjAddr: 0xAF0, symBinAddr: 0x4C770, symSize: 0x40 }
  - { offset: 0xF5990, size: 0x8, addend: 0x0, symName: __RINvXsd_NtCslJiobkLta79_5alloc3vecINtB6_3VecRNtCsaKzlTDPUHDb_11proc_macro25IdentEINtNtNtNtCsieiGu2EXtoJ_4core4iter6traits7collect12FromIteratorBG_E9from_iterINtNtNtB1o_8adapters3map3MapNtNtCsdGrGZaRBwMb_3syn8generics10TypeParamsNCNvMNtCsiK7Gs1zPIjf_14thiserror_impl8genericsNtB3J_13ParamsInScope3new0EEB3L_, symObjAddr: 0xB30, symBinAddr: 0x4C7B0, symSize: 0x60 }
  - { offset: 0xF5A11, size: 0x8, addend: 0x0, symName: __RNCINvMsi_NtCslJiobkLta79_5alloc3vecINtB8_3VecNtCsaKzlTDPUHDb_11proc_macro211TokenStreamE14extend_trustedINtNtNtNtCsieiGu2EXtoJ_4core4iter8adapters3map3MapINtNtNtB1O_5slice4iter4IterNtNtCsiK7Gs1zPIjf_14thiserror_impl3ast7VariantENCNvNtB2Y_6expand9impl_enums1_0EE0B2Y_, symObjAddr: 0xD80, symBinAddr: 0x4CA00, symSize: 0x50 }
  - { offset: 0xF5ADA, size: 0x8, addend: 0x0, symName: __RNvNvMs_NtCslJiobkLta79_5alloc3vecINtB6_3VecppE7set_len18precondition_checkCsiK7Gs1zPIjf_14thiserror_impl, symObjAddr: 0x1DE0, symBinAddr: 0x4DA60, symSize: 0xA0 }
  - { offset: 0xF5B4E, size: 0x8, addend: 0x0, symName: __RNvXNtNtCslJiobkLta79_5alloc3vec11spec_extendINtB4_3VecNtNtCsiK7Gs1zPIjf_14thiserror_impl3ast5FieldEINtB2_10SpecExtendBR_INtNtNtCsieiGu2EXtoJ_4core4iter8adapters12GenericShuntINtNtB1Y_3map3MapINtNtB1Y_9enumerate9EnumerateINtNtCsdGrGZaRBwMb_3syn10punctuated4IterNtNtB3C_4data5FieldEENCNvMs2_BT_BR_17multiple_from_syn0EINtNtB22_6result6ResultNtNtB22_7convert10InfallibleNtNtB3C_5error5ErrorEEE11spec_extendBV_, symObjAddr: 0x1E80, symBinAddr: 0x4DB00, symSize: 0x20 }
  - { offset: 0xF5BA0, size: 0x8, addend: 0x0, symName: __RNvXNtNtCslJiobkLta79_5alloc3vec11spec_extendINtB4_3VecNtNtCsiK7Gs1zPIjf_14thiserror_impl3ast7VariantEINtB2_10SpecExtendBR_INtNtNtCsieiGu2EXtoJ_4core4iter8adapters12GenericShuntINtNtB20_3map3MapINtNtCsdGrGZaRBwMb_3syn10punctuated4IterNtNtB3b_4data7VariantENCNvMs0_BT_NtBT_4Enum8from_syn0EINtNtB24_6result6ResultNtNtB24_7convert10InfallibleNtNtB3b_5error5ErrorEEE11spec_extendBV_, symObjAddr: 0x1EA0, symBinAddr: 0x4DB20, symSize: 0x20 }
  - { offset: 0xF5BF2, size: 0x8, addend: 0x0, symName: __RNvXNtNtCslJiobkLta79_5alloc3vec11spec_extendINtB4_3VecRNtCsaKzlTDPUHDb_11proc_macro25IdentEINtB2_10SpecExtendBR_INtNtNtNtCsieiGu2EXtoJ_4core4iter8adapters3map3MapNtNtCsdGrGZaRBwMb_3syn8generics10TypeParamsNCNvMNtCsiK7Gs1zPIjf_14thiserror_impl8genericsNtB3n_13ParamsInScope3new0EE11spec_extendB3p_, symObjAddr: 0x1EC0, symBinAddr: 0x4DB40, symSize: 0x20 }
  - { offset: 0xF5C49, size: 0x8, addend: 0x0, symName: __RNvXs_NtNtCslJiobkLta79_5alloc3vec11spec_extendINtB6_3VecNtCsaKzlTDPUHDb_11proc_macro211TokenStreamEINtB4_10SpecExtendBT_INtNtNtNtCsieiGu2EXtoJ_4core4iter8adapters3map3MapINtNtNtB24_5slice4iter4IterNtNtCsiK7Gs1zPIjf_14thiserror_impl3ast7VariantENCNvNtB3e_6expand9impl_enums1_0EE11spec_extendB3e_, symObjAddr: 0x2CA0, symBinAddr: 0x4E920, symSize: 0x20 }
  - { offset: 0xF5CA7, size: 0x8, addend: 0x0, symName: __RNvXNtNtCslJiobkLta79_5alloc3vec14spec_from_iterINtB4_3VecNtCsaKzlTDPUHDb_11proc_macro211TokenStreamEINtB2_12SpecFromIterBU_INtNtNtNtCsieiGu2EXtoJ_4core4iter8adapters3map3MapINtNtNtB27_5slice4iter4IterNtNtCsiK7Gs1zPIjf_14thiserror_impl3ast7VariantENCNvNtB3h_6expand9impl_enums1_0EE9from_iterB3h_, symObjAddr: 0x1EE0, symBinAddr: 0x4DB60, symSize: 0x20 }
  - { offset: 0xF5CE6, size: 0x8, addend: 0x0, symName: __RNvXNtNtCslJiobkLta79_5alloc3vec14spec_from_iterINtB4_3VecNtNtCsiK7Gs1zPIjf_14thiserror_impl3ast5FieldEINtB2_12SpecFromIterBU_INtNtNtCsieiGu2EXtoJ_4core4iter8adapters12GenericShuntINtNtB23_3map3MapINtNtB23_9enumerate9EnumerateINtNtCsdGrGZaRBwMb_3syn10punctuated4IterNtNtB3H_4data5FieldEENCNvMs2_BW_BU_17multiple_from_syn0EINtNtB27_6result6ResultNtNtB27_7convert10InfallibleNtNtB3H_5error5ErrorEEE9from_iterBY_, symObjAddr: 0x1F00, symBinAddr: 0x4DB80, symSize: 0x20 }
  - { offset: 0xF5D25, size: 0x8, addend: 0x0, symName: __RNvXNtNtCslJiobkLta79_5alloc3vec14spec_from_iterINtB4_3VecNtNtCsiK7Gs1zPIjf_14thiserror_impl3ast7VariantEINtB2_12SpecFromIterBU_INtNtNtCsieiGu2EXtoJ_4core4iter8adapters12GenericShuntINtNtB25_3map3MapINtNtCsdGrGZaRBwMb_3syn10punctuated4IterNtNtB3g_4data7VariantENCNvMs0_BW_NtBW_4Enum8from_syn0EINtNtB29_6result6ResultNtNtB29_7convert10InfallibleNtNtB3g_5error5ErrorEEE9from_iterBY_, symObjAddr: 0x1F20, symBinAddr: 0x4DBA0, symSize: 0x20 }
  - { offset: 0xF5D64, size: 0x8, addend: 0x0, symName: __RNvXNtNtCslJiobkLta79_5alloc3vec14spec_from_iterINtB4_3VecRNtCsaKzlTDPUHDb_11proc_macro25IdentEINtB2_12SpecFromIterBU_INtNtNtNtCsieiGu2EXtoJ_4core4iter8adapters3map3MapNtNtCsdGrGZaRBwMb_3syn8generics10TypeParamsNCNvMNtCsiK7Gs1zPIjf_14thiserror_impl8genericsNtB3s_13ParamsInScope3new0EE9from_iterB3u_, symObjAddr: 0x1F40, symBinAddr: 0x4DBC0, symSize: 0x30 }
  - { offset: 0xF5DAE, size: 0x8, addend: 0x0, symName: __RNvXNtNtCslJiobkLta79_5alloc3vec21spec_from_iter_nestedINtB4_3VecNtNtCsiK7Gs1zPIjf_14thiserror_impl3ast5FieldEINtB2_18SpecFromIterNestedB11_INtNtNtCsieiGu2EXtoJ_4core4iter8adapters12GenericShuntINtNtB2h_3map3MapINtNtB2h_9enumerate9EnumerateINtNtCsdGrGZaRBwMb_3syn10punctuated4IterNtNtB3V_4data5FieldEENCNvMs2_B13_B11_17multiple_from_syn0EINtNtB2l_6result6ResultNtNtB2l_7convert10InfallibleNtNtB3V_5error5ErrorEEE9from_iterB15_, symObjAddr: 0x1F70, symBinAddr: 0x4DBF0, symSize: 0x350 }
  - { offset: 0xF6063, size: 0x8, addend: 0x0, symName: __RNvXNtNtCslJiobkLta79_5alloc3vec21spec_from_iter_nestedINtB4_3VecNtNtCsiK7Gs1zPIjf_14thiserror_impl3ast7VariantEINtB2_18SpecFromIterNestedB11_INtNtNtCsieiGu2EXtoJ_4core4iter8adapters12GenericShuntINtNtB2j_3map3MapINtNtCsdGrGZaRBwMb_3syn10punctuated4IterNtNtB3u_4data7VariantENCNvMs0_B13_NtB13_4Enum8from_syn0EINtNtB2n_6result6ResultNtNtB2n_7convert10InfallibleNtNtB3u_5error5ErrorEEE9from_iterB15_, symObjAddr: 0x22C0, symBinAddr: 0x4DF40, symSize: 0x370 }
  - { offset: 0xF6318, size: 0x8, addend: 0x0, symName: __RNvXNtNtCslJiobkLta79_5alloc3vec21spec_from_iter_nestedINtB4_3VecRNtCsaKzlTDPUHDb_11proc_macro25IdentEINtB2_18SpecFromIterNestedB11_INtNtNtNtCsieiGu2EXtoJ_4core4iter8adapters3map3MapNtNtCsdGrGZaRBwMb_3syn8generics10TypeParamsNCNvMNtCsiK7Gs1zPIjf_14thiserror_impl8genericsNtB3G_13ParamsInScope3new0EE9from_iterB3I_, symObjAddr: 0x2630, symBinAddr: 0x4E2B0, symSize: 0x300 }
  - { offset: 0xF65D6, size: 0x8, addend: 0x0, symName: __RNvXs_NtNtCslJiobkLta79_5alloc3vec21spec_from_iter_nestedINtB6_3VecNtCsaKzlTDPUHDb_11proc_macro211TokenStreamEINtB4_18SpecFromIterNestedB13_INtNtNtNtCsieiGu2EXtoJ_4core4iter8adapters3map3MapINtNtNtB2n_5slice4iter4IterNtNtCsiK7Gs1zPIjf_14thiserror_impl3ast7VariantENCNvNtB3x_6expand9impl_enums1_0EE9from_iterB3x_, symObjAddr: 0x2CC0, symBinAddr: 0x4E940, symSize: 0x1C0 }
  - { offset: 0xF66B5, size: 0x8, addend: 0x0, symName: __RNvXs6_NtCslJiobkLta79_5alloc3vecINtB5_3VecNtCsaKzlTDPUHDb_11proc_macro211TokenStreamENtNtNtCsieiGu2EXtoJ_4core3ops5deref5Deref5derefCsiK7Gs1zPIjf_14thiserror_impl, symObjAddr: 0x2A80, symBinAddr: 0x4E700, symSize: 0x20 }
  - { offset: 0xF66F5, size: 0x8, addend: 0x0, symName: __RNvXs6_NtCslJiobkLta79_5alloc3vecINtB5_3VecNtNtCsiK7Gs1zPIjf_14thiserror_impl3ast5FieldENtNtNtCsieiGu2EXtoJ_4core3ops5deref5Deref5derefBJ_, symObjAddr: 0x2AA0, symBinAddr: 0x4E720, symSize: 0x20 }
  - { offset: 0xF6735, size: 0x8, addend: 0x0, symName: __RNvXs6_NtCslJiobkLta79_5alloc3vecINtB5_3VecNtNtCsiK7Gs1zPIjf_14thiserror_impl3ast7VariantENtNtNtCsieiGu2EXtoJ_4core3ops5deref5Deref5derefBJ_, symObjAddr: 0x2AC0, symBinAddr: 0x4E740, symSize: 0x20 }
  - { offset: 0xF6775, size: 0x8, addend: 0x0, symName: __RNvXs6_NtCslJiobkLta79_5alloc3vecINtB5_3VecTNtCsaKzlTDPUHDb_11proc_macro211TokenStreamNtNtCsdGrGZaRBwMb_3syn5token4PlusEENtNtNtCsieiGu2EXtoJ_4core3ops5deref5Deref5derefCsiK7Gs1zPIjf_14thiserror_impl, symObjAddr: 0x2AE0, symBinAddr: 0x4E760, symSize: 0x20 }
  - { offset: 0xF67B5, size: 0x8, addend: 0x0, symName: __RNvXs6_NtCslJiobkLta79_5alloc3vecINtB5_3VecTNtCsaKzlTDPUHDb_11proc_macro25IdentNtBI_11TokenStreamEENtNtNtCsieiGu2EXtoJ_4core3ops5deref5Deref5derefCsiK7Gs1zPIjf_14thiserror_impl, symObjAddr: 0x2B00, symBinAddr: 0x4E780, symSize: 0x20 }
  - { offset: 0xF691B, size: 0x8, addend: 0x0, symName: __RNvXs9_NtCslJiobkLta79_5alloc3vecINtB5_3VecTNtCsaKzlTDPUHDb_11proc_macro25IdentNtBI_11TokenStreamEENtNtCsieiGu2EXtoJ_4core5clone5Clone5cloneCsiK7Gs1zPIjf_14thiserror_impl, symObjAddr: 0x2C10, symBinAddr: 0x4E890, symSize: 0x90 }
  - { offset: 0xF6AF2, size: 0x8, addend: 0x0, symName: __RNvXsb_NtCslJiobkLta79_5alloc3vecINtB5_3VecNtNtCsiK7Gs1zPIjf_14thiserror_impl3ast5FieldEINtNtNtCsieiGu2EXtoJ_4core3ops5index5IndexjE5indexBJ_, symObjAddr: 0x2EC0, symBinAddr: 0x4EB40, symSize: 0x80 }
  - { offset: 0xF6C74, size: 0x8, addend: 0x0, symName: __RNvXsb_NtCslJiobkLta79_5alloc3vecINtB5_3VecTNtNtCsdGrGZaRBwMb_3syn4path15GenericArgumentNtNtBK_5token5CommaEEINtNtNtCsieiGu2EXtoJ_4core3ops5index5IndexjE5indexCsiK7Gs1zPIjf_14thiserror_impl, symObjAddr: 0x2F40, symBinAddr: 0x4EBC0, symSize: 0x80 }
  - { offset: 0xF6DFC, size: 0x8, addend: 0x0, symName: __RNvXse_NtCslJiobkLta79_5alloc3vecINtB5_3VecRNtCsaKzlTDPUHDb_11proc_macro25IdentENtNtNtNtCsieiGu2EXtoJ_4core4iter6traits7collect12IntoIterator9into_iterCsiK7Gs1zPIjf_14thiserror_impl, symObjAddr: 0x2FC0, symBinAddr: 0x4EC40, symSize: 0x140 }
  - { offset: 0xF7092, size: 0x8, addend: 0x0, symName: __RNvXsf_NtCslJiobkLta79_5alloc3vecRINtB5_3VecNtCsaKzlTDPUHDb_11proc_macro211TokenStreamENtNtNtNtCsieiGu2EXtoJ_4core4iter6traits7collect12IntoIterator9into_iterCsiK7Gs1zPIjf_14thiserror_impl, symObjAddr: 0x31B0, symBinAddr: 0x4EE30, symSize: 0x80 }
  - { offset: 0xF72BF, size: 0x8, addend: 0x0, symName: __RNvXsf_NtCslJiobkLta79_5alloc3vecRINtB5_3VecNtNtCsiK7Gs1zPIjf_14thiserror_impl3ast5FieldENtNtNtNtCsieiGu2EXtoJ_4core4iter6traits7collect12IntoIterator9into_iterBK_, symObjAddr: 0x3230, symBinAddr: 0x4EEB0, symSize: 0x80 }
  - { offset: 0xF74EC, size: 0x8, addend: 0x0, symName: __RNvXsf_NtCslJiobkLta79_5alloc3vecRINtB5_3VecNtNtCsiK7Gs1zPIjf_14thiserror_impl3ast7VariantENtNtNtNtCsieiGu2EXtoJ_4core4iter6traits7collect12IntoIterator9into_iterBK_, symObjAddr: 0x32B0, symBinAddr: 0x4EF30, symSize: 0x80 }
  - { offset: 0xF771F, size: 0x8, addend: 0x0, symName: __RNvXsn_NtCslJiobkLta79_5alloc3vecINtB5_3VecNtCsaKzlTDPUHDb_11proc_macro211TokenStreamENtNtNtCsieiGu2EXtoJ_4core3ops4drop4Drop4dropCsiK7Gs1zPIjf_14thiserror_impl, symObjAddr: 0x3380, symBinAddr: 0x4F000, symSize: 0x30 }
  - { offset: 0xF77CF, size: 0x8, addend: 0x0, symName: __RNvXsn_NtCslJiobkLta79_5alloc3vecINtB5_3VecNtNtCsiK7Gs1zPIjf_14thiserror_impl3ast5FieldENtNtNtCsieiGu2EXtoJ_4core3ops4drop4Drop4dropBJ_, symObjAddr: 0x33B0, symBinAddr: 0x4F030, symSize: 0x30 }
  - { offset: 0xF787F, size: 0x8, addend: 0x0, symName: __RNvXsn_NtCslJiobkLta79_5alloc3vecINtB5_3VecNtNtCsiK7Gs1zPIjf_14thiserror_impl3ast7VariantENtNtNtCsieiGu2EXtoJ_4core3ops4drop4Drop4dropBJ_, symObjAddr: 0x33E0, symBinAddr: 0x4F060, symSize: 0x30 }
  - { offset: 0xF792F, size: 0x8, addend: 0x0, symName: __RNvXsn_NtCslJiobkLta79_5alloc3vecINtB5_3VecRNtCsaKzlTDPUHDb_11proc_macro25IdentENtNtNtCsieiGu2EXtoJ_4core3ops4drop4Drop4dropCsiK7Gs1zPIjf_14thiserror_impl, symObjAddr: 0x3410, symBinAddr: 0x4F090, symSize: 0x20 }
  - { offset: 0xF79DF, size: 0x8, addend: 0x0, symName: __RNvXsn_NtCslJiobkLta79_5alloc3vecINtB5_3VecTNtCsaKzlTDPUHDb_11proc_macro211TokenStreamNtNtCsdGrGZaRBwMb_3syn5token4PlusEENtNtNtCsieiGu2EXtoJ_4core3ops4drop4Drop4dropCsiK7Gs1zPIjf_14thiserror_impl, symObjAddr: 0x3430, symBinAddr: 0x4F0B0, symSize: 0x30 }
  - { offset: 0xF7A8F, size: 0x8, addend: 0x0, symName: __RNvXsn_NtCslJiobkLta79_5alloc3vecINtB5_3VecTNtCsaKzlTDPUHDb_11proc_macro25IdentNtBI_11TokenStreamEENtNtNtCsieiGu2EXtoJ_4core3ops4drop4Drop4dropCsiK7Gs1zPIjf_14thiserror_impl, symObjAddr: 0x3460, symBinAddr: 0x4F0E0, symSize: 0x30 }
  - { offset: 0xF89B6, size: 0x8, addend: 0x0, symName: __RNvXs8_NtCslJiobkLta79_5alloc5sliceINtNtB7_3vec3VecRNtCsaKzlTDPUHDb_11proc_macro25IdentEINtNtNtNtCsieiGu2EXtoJ_4core5slice4sort6stable8BufGuardBN_E13with_capacityCsiK7Gs1zPIjf_14thiserror_impl, symObjAddr: 0x2B20, symBinAddr: 0x4E7A0, symSize: 0x60 }
  - { offset: 0xF8A57, size: 0x8, addend: 0x0, symName: __RNvXs8_NtCslJiobkLta79_5alloc5sliceINtNtB7_3vec3VecRNtCsaKzlTDPUHDb_11proc_macro25IdentEINtNtNtNtCsieiGu2EXtoJ_4core5slice4sort6stable8BufGuardBN_E19as_uninit_slice_mutCsiK7Gs1zPIjf_14thiserror_impl, symObjAddr: 0x2B80, symBinAddr: 0x4E800, symSize: 0x90 }
  - { offset: 0xF8D7E, size: 0x8, addend: 0x0, symName: __RINvMsc_NtNtNtCslJiobkLta79_5alloc11collections5btree3setINtB6_8BTreeSetNtNtCsiK7Gs1zPIjf_14thiserror_impl5unraw10IdentUnrawE8containsB18_EB1c_, symObjAddr: 0x0, symBinAddr: 0x4BC80, symSize: 0x50 }
  - { offset: 0xF8EF4, size: 0x8, addend: 0x0, symName: __RINvMsc_NtNtNtCslJiobkLta79_5alloc11collections5btree3setINtB6_8BTreeSetRNtCsaKzlTDPUHDb_11proc_macro25IdentE8containsB19_ECsiK7Gs1zPIjf_14thiserror_impl, symObjAddr: 0x50, symBinAddr: 0x4BCD0, symSize: 0x50 }
  - { offset: 0xF8F92, size: 0x8, addend: 0x0, symName: __RINvMse_NtNtNtCslJiobkLta79_5alloc11collections5btree3setINtB6_8BTreeSetRNtCsaKzlTDPUHDb_11proc_macro25IdentE16from_sorted_iterINtNtNtBc_3vec9into_iter8IntoIterB18_EECsiK7Gs1zPIjf_14thiserror_impl, symObjAddr: 0xA0, symBinAddr: 0x4BD20, symSize: 0x80 }
  - { offset: 0xFE849, size: 0x8, addend: 0x0, symName: __RINvMsi_NtCslJiobkLta79_5alloc3vecINtB6_3VecNtCsaKzlTDPUHDb_11proc_macro211TokenStreamE14extend_trustedINtNtNtNtCsieiGu2EXtoJ_4core4iter8adapters3map3MapINtNtNtB1M_5slice4iter4IterNtNtCsiK7Gs1zPIjf_14thiserror_impl3ast7VariantENCNvNtB2W_6expand9impl_enums1_0EEB2W_, symObjAddr: 0x120, symBinAddr: 0x4BDA0, symSize: 0x1C0 }
  - { offset: 0xFECA3, size: 0x8, addend: 0x0, symName: __RINvMsi_NtCslJiobkLta79_5alloc3vecINtB6_3VecNtNtCsiK7Gs1zPIjf_14thiserror_impl3ast5FieldE16extend_desugaredINtNtNtCsieiGu2EXtoJ_4core4iter8adapters12GenericShuntINtNtB1K_3map3MapINtNtB1K_9enumerate9EnumerateINtNtCsdGrGZaRBwMb_3syn10punctuated4IterNtNtB3o_4data5FieldEENCNvMs2_BI_BG_17multiple_from_syn0EINtNtB1O_6result6ResultNtNtB1O_7convert10InfallibleNtNtB3o_5error5ErrorEEEBK_, symObjAddr: 0x2E0, symBinAddr: 0x4BF60, symSize: 0x250 }
  - { offset: 0xFF140, size: 0x8, addend: 0x0, symName: __RINvMsi_NtCslJiobkLta79_5alloc3vecINtB6_3VecNtNtCsiK7Gs1zPIjf_14thiserror_impl3ast7VariantE16extend_desugaredINtNtNtCsieiGu2EXtoJ_4core4iter8adapters12GenericShuntINtNtB1M_3map3MapINtNtCsdGrGZaRBwMb_3syn10punctuated4IterNtNtB2X_4data7VariantENCNvMs0_BI_NtBI_4Enum8from_syn0EINtNtB1Q_6result6ResultNtNtB1Q_7convert10InfallibleNtNtB2X_5error5ErrorEEEBK_, symObjAddr: 0x530, symBinAddr: 0x4C1B0, symSize: 0x250 }
  - { offset: 0xFF5B6, size: 0x8, addend: 0x0, symName: __RINvMsi_NtCslJiobkLta79_5alloc3vecINtB6_3VecRNtCsaKzlTDPUHDb_11proc_macro25IdentE16extend_desugaredINtNtNtNtCsieiGu2EXtoJ_4core4iter8adapters3map3MapNtNtCsdGrGZaRBwMb_3syn8generics10TypeParamsNCNvMNtCsiK7Gs1zPIjf_14thiserror_impl8genericsNtB39_13ParamsInScope3new0EEB3b_, symObjAddr: 0x780, symBinAddr: 0x4C400, symSize: 0x230 }
  - { offset: 0xFFAD4, size: 0x8, addend: 0x0, symName: __RNvMNtCslJiobkLta79_5alloc3vecINtB2_3VecNtCsaKzlTDPUHDb_11proc_macro211TokenStreamE3newCsiK7Gs1zPIjf_14thiserror_impl, symObjAddr: 0xDF0, symBinAddr: 0x4CA70, symSize: 0x30 }
  - { offset: 0xFFAF1, size: 0x8, addend: 0x0, symName: __RNvMNtCslJiobkLta79_5alloc3vecINtB2_3VecTNtCsaKzlTDPUHDb_11proc_macro211TokenStreamNtNtCsdGrGZaRBwMb_3syn5token4PlusEE3newCsiK7Gs1zPIjf_14thiserror_impl, symObjAddr: 0xE20, symBinAddr: 0x4CAA0, symSize: 0x30 }
  - { offset: 0xFFB0E, size: 0x8, addend: 0x0, symName: __RNvMNtCslJiobkLta79_5alloc3vecINtB2_3VecTNtCsaKzlTDPUHDb_11proc_macro25IdentNtBF_11TokenStreamEE3newCsiK7Gs1zPIjf_14thiserror_impl, symObjAddr: 0xE50, symBinAddr: 0x4CAD0, symSize: 0x30 }
  - { offset: 0xFFB47, size: 0x8, addend: 0x0, symName: __RNvMs1_NtNtCsieiGu2EXtoJ_4core3ptr8non_nullINtB5_7NonNullNtNtCsiK7Gs1zPIjf_14thiserror_impl3ast7VariantE20offset_from_unsignedBX_, symObjAddr: 0xE80, symBinAddr: 0x4CB00, symSize: 0x70 }
  - { offset: 0xFFC37, size: 0x8, addend: 0x0, symName: __RNvMs1_NtNtCsieiGu2EXtoJ_4core3ptr8non_nullINtB5_7NonNullRNtCsaKzlTDPUHDb_11proc_macro25IdentE20offset_from_unsignedCsiK7Gs1zPIjf_14thiserror_impl, symObjAddr: 0xEF0, symBinAddr: 0x4CB70, symSize: 0x60 }
  - { offset: 0xFFD41, size: 0x8, addend: 0x0, symName: __RNvMs1_NtNtCsieiGu2EXtoJ_4core3ptr8non_nullINtB5_7NonNullTNtNtCsdGrGZaRBwMb_3syn4data7VariantNtNtBY_5token5CommaEE20offset_from_unsignedCsiK7Gs1zPIjf_14thiserror_impl, symObjAddr: 0xF50, symBinAddr: 0x4CBD0, symSize: 0x70 }
  - { offset: 0xFFE4B, size: 0x8, addend: 0x0, symName: __RNvMs1_NtNtCsieiGu2EXtoJ_4core3ptr8non_nullINtB5_7NonNullTNtNtCsdGrGZaRBwMb_3syn4path15GenericArgumentNtNtBY_5token5CommaEE20offset_from_unsignedCsiK7Gs1zPIjf_14thiserror_impl, symObjAddr: 0xFC0, symBinAddr: 0x4CC40, symSize: 0x70 }
  - { offset: 0xFFF1F, size: 0x8, addend: 0x0, symName: __RNvMs_NtCslJiobkLta79_5alloc3vecINtB4_3VecNtCsaKzlTDPUHDb_11proc_macro211TokenStreamE4pushCsiK7Gs1zPIjf_14thiserror_impl, symObjAddr: 0x1030, symBinAddr: 0x4CCB0, symSize: 0x20 }
  - { offset: 0x100094, size: 0x8, addend: 0x0, symName: __RNvMs_NtCslJiobkLta79_5alloc3vecINtB4_3VecNtCsaKzlTDPUHDb_11proc_macro211TokenStreamE7reserveCsiK7Gs1zPIjf_14thiserror_impl, symObjAddr: 0x1050, symBinAddr: 0x4CCD0, symSize: 0xB0 }
  - { offset: 0x1002A5, size: 0x8, addend: 0x0, symName: __RNvMs_NtCslJiobkLta79_5alloc3vecINtB4_3VecNtCsaKzlTDPUHDb_11proc_macro211TokenStreamE8as_sliceCsiK7Gs1zPIjf_14thiserror_impl, symObjAddr: 0x1100, symBinAddr: 0x4CD80, symSize: 0x50 }
  - { offset: 0x10044B, size: 0x8, addend: 0x0, symName: __RNvMs_NtCslJiobkLta79_5alloc3vecINtB4_3VecNtCsaKzlTDPUHDb_11proc_macro211TokenStreamE8push_mutCsiK7Gs1zPIjf_14thiserror_impl, symObjAddr: 0x1150, symBinAddr: 0x4CDD0, symSize: 0x120 }
  - { offset: 0x100600, size: 0x8, addend: 0x0, symName: __RNvMs_NtCslJiobkLta79_5alloc3vecINtB4_3VecNtNtCsiK7Gs1zPIjf_14thiserror_impl3ast5FieldE3lenBI_, symObjAddr: 0x1270, symBinAddr: 0x4CEF0, symSize: 0x10 }
  - { offset: 0x10074B, size: 0x8, addend: 0x0, symName: __RNvMs_NtCslJiobkLta79_5alloc3vecINtB4_3VecNtNtCsiK7Gs1zPIjf_14thiserror_impl3ast5FieldE7reserveBI_, symObjAddr: 0x1280, symBinAddr: 0x4CF00, symSize: 0xB0 }
  - { offset: 0x10094F, size: 0x8, addend: 0x0, symName: __RNvMs_NtCslJiobkLta79_5alloc3vecINtB4_3VecNtNtCsiK7Gs1zPIjf_14thiserror_impl3ast5FieldE8as_sliceBI_, symObjAddr: 0x1330, symBinAddr: 0x4CFB0, symSize: 0x50 }
  - { offset: 0x100B1F, size: 0x8, addend: 0x0, symName: __RNvMs_NtCslJiobkLta79_5alloc3vecINtB4_3VecNtNtCsiK7Gs1zPIjf_14thiserror_impl3ast7VariantE7reserveBI_, symObjAddr: 0x1380, symBinAddr: 0x4D000, symSize: 0xB0 }
  - { offset: 0x100D23, size: 0x8, addend: 0x0, symName: __RNvMs_NtCslJiobkLta79_5alloc3vecINtB4_3VecNtNtCsiK7Gs1zPIjf_14thiserror_impl3ast7VariantE8as_sliceBI_, symObjAddr: 0x1430, symBinAddr: 0x4D0B0, symSize: 0x50 }
  - { offset: 0x100E02, size: 0x8, addend: 0x0, symName: __RNvMs_NtCslJiobkLta79_5alloc3vecINtB4_3VecNtNtCsiK7Gs1zPIjf_14thiserror_impl3ast7VariantE8is_emptyBI_, symObjAddr: 0x1480, symBinAddr: 0x4D100, symSize: 0x20 }
  - { offset: 0x100F6B, size: 0x8, addend: 0x0, symName: __RNvMs_NtCslJiobkLta79_5alloc3vecINtB4_3VecRNtCsaKzlTDPUHDb_11proc_macro25IdentE7reserveCsiK7Gs1zPIjf_14thiserror_impl, symObjAddr: 0x14A0, symBinAddr: 0x4D120, symSize: 0xB0 }
  - { offset: 0x1010E5, size: 0x8, addend: 0x0, symName: __RNvMs_NtCslJiobkLta79_5alloc3vecINtB4_3VecTNtCsaKzlTDPUHDb_11proc_macro211TokenStreamNtNtCsdGrGZaRBwMb_3syn5token4PlusEE4pushCsiK7Gs1zPIjf_14thiserror_impl, symObjAddr: 0x1550, symBinAddr: 0x4D1D0, symSize: 0x20 }
  - { offset: 0x1011F5, size: 0x8, addend: 0x0, symName: __RNvMs_NtCslJiobkLta79_5alloc3vecINtB4_3VecTNtCsaKzlTDPUHDb_11proc_macro211TokenStreamNtNtCsdGrGZaRBwMb_3syn5token4PlusEE8as_sliceCsiK7Gs1zPIjf_14thiserror_impl, symObjAddr: 0x1570, symBinAddr: 0x4D1F0, symSize: 0x50 }
  - { offset: 0x10139B, size: 0x8, addend: 0x0, symName: __RNvMs_NtCslJiobkLta79_5alloc3vecINtB4_3VecTNtCsaKzlTDPUHDb_11proc_macro211TokenStreamNtNtCsdGrGZaRBwMb_3syn5token4PlusEE8push_mutCsiK7Gs1zPIjf_14thiserror_impl, symObjAddr: 0x15C0, symBinAddr: 0x4D240, symSize: 0x130 }
  - { offset: 0x10155D, size: 0x8, addend: 0x0, symName: __RNvMs_NtCslJiobkLta79_5alloc3vecINtB4_3VecTNtCsaKzlTDPUHDb_11proc_macro25IdentNtBH_11TokenStreamEE4pushCsiK7Gs1zPIjf_14thiserror_impl, symObjAddr: 0x16F0, symBinAddr: 0x4D370, symSize: 0x20 }
  - { offset: 0x101640, size: 0x8, addend: 0x0, symName: __RNvMs_NtCslJiobkLta79_5alloc3vecINtB4_3VecTNtCsaKzlTDPUHDb_11proc_macro25IdentNtBH_11TokenStreamEE7set_lenCsiK7Gs1zPIjf_14thiserror_impl, symObjAddr: 0x1710, symBinAddr: 0x4D390, symSize: 0x70 }
  - { offset: 0x1017CA, size: 0x8, addend: 0x0, symName: __RNvMs_NtCslJiobkLta79_5alloc3vecINtB4_3VecTNtCsaKzlTDPUHDb_11proc_macro25IdentNtBH_11TokenStreamEE8as_sliceCsiK7Gs1zPIjf_14thiserror_impl, symObjAddr: 0x1780, symBinAddr: 0x4D400, symSize: 0x50 }
  - { offset: 0x1018A9, size: 0x8, addend: 0x0, symName: __RNvMs_NtCslJiobkLta79_5alloc3vecINtB4_3VecTNtCsaKzlTDPUHDb_11proc_macro25IdentNtBH_11TokenStreamEE8is_emptyCsiK7Gs1zPIjf_14thiserror_impl, symObjAddr: 0x17D0, symBinAddr: 0x4D450, symSize: 0x20 }
  - { offset: 0x1019E8, size: 0x8, addend: 0x0, symName: __RNvMs_NtCslJiobkLta79_5alloc3vecINtB4_3VecTNtCsaKzlTDPUHDb_11proc_macro25IdentNtBH_11TokenStreamEE8push_mutCsiK7Gs1zPIjf_14thiserror_impl, symObjAddr: 0x17F0, symBinAddr: 0x4D470, symSize: 0x130 }
  - { offset: 0x101BB6, size: 0x8, addend: 0x0, symName: __RNvMsb_NtNtNtCslJiobkLta79_5alloc11collections5btree3setINtB5_8BTreeSetNtNtCsiK7Gs1zPIjf_14thiserror_impl5unraw10IdentUnrawE3newB1b_, symObjAddr: 0x1920, symBinAddr: 0x4D5A0, symSize: 0x40 }
  - { offset: 0x101C01, size: 0x8, addend: 0x0, symName: __RNvMsb_NtNtNtCslJiobkLta79_5alloc11collections5btree3setINtB5_8BTreeSetTjNtNtCsiK7Gs1zPIjf_14thiserror_impl4attr5TraitEE3newB1d_, symObjAddr: 0x1960, symBinAddr: 0x4D5E0, symSize: 0x40 }
  - { offset: 0x101C85, size: 0x8, addend: 0x0, symName: __RNvMsc_NtNtNtCslJiobkLta79_5alloc11collections5btree3setINtB5_8BTreeSetNtNtBb_6string6StringE6insertCsiK7Gs1zPIjf_14thiserror_impl, symObjAddr: 0x19A0, symBinAddr: 0x4D620, symSize: 0x40 }
  - { offset: 0x101D4B, size: 0x8, addend: 0x0, symName: __RNvMsc_NtNtNtCslJiobkLta79_5alloc11collections5btree3setINtB5_8BTreeSetNtNtCsiK7Gs1zPIjf_14thiserror_impl5unraw10IdentUnrawE6insertB1b_, symObjAddr: 0x19E0, symBinAddr: 0x4D660, symSize: 0x40 }
  - { offset: 0x101E11, size: 0x8, addend: 0x0, symName: __RNvMsc_NtNtNtCslJiobkLta79_5alloc11collections5btree3setINtB5_8BTreeSetTjNtNtCsiK7Gs1zPIjf_14thiserror_impl4attr5TraitEE6insertB1d_, symObjAddr: 0x1A20, symBinAddr: 0x4D6A0, symSize: 0x50 }
  - { offset: 0x102563, size: 0x8, addend: 0x0, symName: __RNvXs4_NtNtCs9OU1sGv5X54_5quote9___private3extINtNtCslJiobkLta79_5alloc3vec3VecNtCsaKzlTDPUHDb_11proc_macro211TokenStreamENtB5_16RepAsIteratorExt15quote_into_iterCsiK7Gs1zPIjf_14thiserror_impl, symObjAddr: 0x2A50, symBinAddr: 0x4E6D0, symSize: 0x30 }
  - { offset: 0x1034DB, size: 0x8, addend: 0x0, symName: __RINvYINtNtNtCsieiGu2EXtoJ_4core3str4iter5SplitcENtNtNtNtBa_4iter6traits8iterator8Iterator3mapINtNtBa_6result6ResultNtNtCsdGrGZaRBwMb_3syn4expr5IndexNtNtB1T_5error5ErrorEINvB1T_9parse_strB1P_EECsiK7Gs1zPIjf_14thiserror_impl, symObjAddr: 0x0, symBinAddr: 0x4F230, symSize: 0x30 }
  - { offset: 0x1053C4, size: 0x8, addend: 0x0, symName: __RNvXs0_NtCsdGrGZaRBwMb_3syn5tokenNtNtNvNtCsiK7Gs1zPIjf_14thiserror_impl4attr21parse_error_attribute2kw11transparentNtB5_5Token4peekBD_, symObjAddr: 0x75A0, symBinAddr: 0x567D0, symSize: 0x30 }
  - { offset: 0x1053F9, size: 0x8, addend: 0x0, symName: __RNvXs0_NtCsdGrGZaRBwMb_3syn5tokenNtNtNvNtCsiK7Gs1zPIjf_14thiserror_impl4attr21parse_error_attribute2kw11transparentNtB5_5Token7displayBD_, symObjAddr: 0x75D0, symBinAddr: 0x56800, symSize: 0x20 }
  - { offset: 0x105420, size: 0x8, addend: 0x0, symName: __RNvXs0_NtCsdGrGZaRBwMb_3syn5tokenNtNtNvNtCsiK7Gs1zPIjf_14thiserror_impl4attr21parse_error_attribute2kw3fmtNtB5_5Token4peekBD_, symObjAddr: 0x75F0, symBinAddr: 0x56820, symSize: 0x30 }
  - { offset: 0x105455, size: 0x8, addend: 0x0, symName: __RNvXs0_NtCsdGrGZaRBwMb_3syn5tokenNtNtNvNtCsiK7Gs1zPIjf_14thiserror_impl4attr21parse_error_attribute2kw3fmtNtB5_5Token7displayBD_, symObjAddr: 0x7620, symBinAddr: 0x56850, symSize: 0x20 }
  - { offset: 0x108354, size: 0x8, addend: 0x0, symName: __RNvXs0_NtCsdGrGZaRBwMb_3syn5dropsINtB5_6NoDropDINtNtB7_10punctuated9IterTraitNtNtB7_4data7VariantEp4ItemRB1d_EL_ENtNtNtCsieiGu2EXtoJ_4core3ops5deref8DerefMut9deref_mutCsiK7Gs1zPIjf_14thiserror_impl, symObjAddr: 0x7540, symBinAddr: 0x56770, symSize: 0x30 }
  - { offset: 0x108389, size: 0x8, addend: 0x0, symName: __RNvXs0_NtCsdGrGZaRBwMb_3syn5dropsINtB5_6NoDropDINtNtB7_10punctuated9IterTraitNtNtB7_4path15GenericArgumentEp4ItemRB1d_EL_ENtNtNtCsieiGu2EXtoJ_4core3ops5deref8DerefMut9deref_mutCsiK7Gs1zPIjf_14thiserror_impl, symObjAddr: 0x7570, symBinAddr: 0x567A0, symSize: 0x30 }
  - { offset: 0x1083C4, size: 0x8, addend: 0x0, symName: __RNvXs_NtCsdGrGZaRBwMb_3syn5dropsINtB4_6NoDropDINtNtB6_10punctuated9IterTraitNtNtB6_4data7VariantEp4ItemRB1c_EL_ENtNtNtCsieiGu2EXtoJ_4core3ops5deref5Deref5derefCsiK7Gs1zPIjf_14thiserror_impl, symObjAddr: 0x7900, symBinAddr: 0x56B30, symSize: 0x30 }
  - { offset: 0x108441, size: 0x8, addend: 0x0, symName: __RNvXsh_NtCsdGrGZaRBwMb_3syn5parseNCNvNtCsiK7Gs1zPIjf_14thiserror_impl4attr21parse_error_attribute0NtB5_6Parser14___parse_scopedBB_, symObjAddr: 0x7ED0, symBinAddr: 0x57100, symSize: 0x430 }
  - { offset: 0x10A900, size: 0x8, addend: 0x0, symName: __RNvNvMNtNtCsieiGu2EXtoJ_4core3ptr9const_ptrPp20offset_from_unsigned18precondition_checkCsiK7Gs1zPIjf_14thiserror_impl, symObjAddr: 0x6700, symBinAddr: 0x55930, symSize: 0xA0 }
  - { offset: 0x10AC5A, size: 0x8, addend: 0x0, symName: __RINvYINtNtNtCsieiGu2EXtoJ_4core3str4iter5SplitcENtNtNtNtBa_4iter6traits8iterator8Iterator3mapINtNtBa_6result6ResultNtNtCsdGrGZaRBwMb_3syn4expr5IndexNtNtB1T_5error5ErrorEINvB1T_9parse_strB1P_EECsiK7Gs1zPIjf_14thiserror_impl, symObjAddr: 0x0, symBinAddr: 0x4F230, symSize: 0x30 }
  - { offset: 0x10AD70, size: 0x8, addend: 0x0, symName: __RNvXNtNtCsieiGu2EXtoJ_4core3str4iterNtB2_5CharsNtNtNtNtB6_4iter6traits8iterator8Iterator4nextCsiK7Gs1zPIjf_14thiserror_impl, symObjAddr: 0x74E0, symBinAddr: 0x56710, symSize: 0x60 }
  - { offset: 0x10AE3A, size: 0x8, addend: 0x0, symName: __RNvXs0_NtNtCsieiGu2EXtoJ_4core3str4iterNtB5_5CharsNtNtNtNtB9_4iter6traits12double_ended19DoubleEndedIterator9next_backCsiK7Gs1zPIjf_14thiserror_impl, symObjAddr: 0x77D0, symBinAddr: 0x56A00, symSize: 0x60 }
  - { offset: 0x10DE06, size: 0x8, addend: 0x0, symName: __RNvXNtCsieiGu2EXtoJ_4core6borrowTjNtNtCsiK7Gs1zPIjf_14thiserror_impl4attr5TraitEINtB2_6BorrowBu_E6borrowBA_, symObjAddr: 0x74D0, symBinAddr: 0x56700, symSize: 0x10 }
  - { offset: 0x10DECF, size: 0x8, addend: 0x0, symName: __RNvXse_NtCsieiGu2EXtoJ_4core5tupleTjNtNtCsiK7Gs1zPIjf_14thiserror_impl4attr5TraitENtNtB7_3cmp3Ord3cmpBC_, symObjAddr: 0x7E80, symBinAddr: 0x570B0, symSize: 0x50 }
  - { offset: 0x10DF44, size: 0x8, addend: 0x0, symName: __RNvYNtNtCsiK7Gs1zPIjf_14thiserror_impl4attr3FmtNtNtCsieiGu2EXtoJ_4core5clone5Clone10clone_fromB6_, symObjAddr: 0x8300, symBinAddr: 0x57530, symSize: 0x90 }
  - { offset: 0x10DF83, size: 0x8, addend: 0x0, symName: __RNvYNtNtCsiK7Gs1zPIjf_14thiserror_impl4attr7DisplayNtNtCsieiGu2EXtoJ_4core5clone5Clone10clone_fromB6_, symObjAddr: 0x84B0, symBinAddr: 0x576E0, symSize: 0x90 }
  - { offset: 0x10E0EB, size: 0x8, addend: 0x0, symName: __RNCNvNtCsiK7Gs1zPIjf_14thiserror_impl4attr21parse_error_attribute0B5_, symObjAddr: 0x30, symBinAddr: 0x4F260, symSize: 0xE40 }
  - { offset: 0x10E300, size: 0x8, addend: 0x0, symName: __RNCNvXs0_NvNtNvNtCsiK7Gs1zPIjf_14thiserror_impl4attr21parse_error_attribute2kw1__NtB9_11transparentNtNtCsdGrGZaRBwMb_3syn5parse5Parse5parse0Bf_, symObjAddr: 0xEB0, symBinAddr: 0x500E0, symSize: 0x240 }
  - { offset: 0x10E35D, size: 0x8, addend: 0x0, symName: __RNCNvXs0_NvNtNvNtCsiK7Gs1zPIjf_14thiserror_impl4attr21parse_error_attribute2kws_1__NtB9_3fmtNtNtCsdGrGZaRBwMb_3syn5parse5Parse5parse0Bf_, symObjAddr: 0x10F0, symBinAddr: 0x50320, symSize: 0x240 }
  - { offset: 0x10E3C9, size: 0x8, addend: 0x0, symName: __RNvXs0_NvNtNvNtCsiK7Gs1zPIjf_14thiserror_impl4attr21parse_error_attribute2kw1__NtB7_11transparentNtNtCsdGrGZaRBwMb_3syn5parse5Parse5parse, symObjAddr: 0x7830, symBinAddr: 0x56A60, symSize: 0x30 }
  - { offset: 0x10E3F5, size: 0x8, addend: 0x0, symName: __RNvXs0_NvNtNvNtCsiK7Gs1zPIjf_14thiserror_impl4attr21parse_error_attribute2kws_1__NtB7_3fmtNtNtCsdGrGZaRBwMb_3syn5parse5Parse5parse, symObjAddr: 0x7860, symBinAddr: 0x56A90, symSize: 0x30 }
  - { offset: 0x10E427, size: 0x8, addend: 0x0, symName: __RNvXs_NvNtNvNtCsiK7Gs1zPIjf_14thiserror_impl4attr21parse_error_attribute2kw1__NtB6_11transparentNtNtNtCsdGrGZaRBwMb_3syn5token7private11CustomToken4peek, symObjAddr: 0x7BF0, symBinAddr: 0x56E20, symSize: 0xF0 }
  - { offset: 0x10E478, size: 0x8, addend: 0x0, symName: __RNvXs_NvNtNvNtCsiK7Gs1zPIjf_14thiserror_impl4attr21parse_error_attribute2kw1__NtB6_11transparentNtNtNtCsdGrGZaRBwMb_3syn5token7private11CustomToken7display, symObjAddr: 0x7CE0, symBinAddr: 0x56F10, symSize: 0x20 }
  - { offset: 0x10E495, size: 0x8, addend: 0x0, symName: __RNvXs_NvNtNvNtCsiK7Gs1zPIjf_14thiserror_impl4attr21parse_error_attribute2kws_1__NtB6_3fmtNtNtNtCsdGrGZaRBwMb_3syn5token7private11CustomToken4peek, symObjAddr: 0x7D00, symBinAddr: 0x56F30, symSize: 0xF0 }
  - { offset: 0x10E4E6, size: 0x8, addend: 0x0, symName: __RNvXs_NvNtNvNtCsiK7Gs1zPIjf_14thiserror_impl4attr21parse_error_attribute2kws_1__NtB6_3fmtNtNtNtCsdGrGZaRBwMb_3syn5token7private11CustomToken7display, symObjAddr: 0x7DF0, symBinAddr: 0x57020, symSize: 0x20 }
  - { offset: 0x10E56F, size: 0x8, addend: 0x0, symName: __RNCNvXNtCsiK7Gs1zPIjf_14thiserror_impl4attrNtB4_7DisplayNtNtCs9OU1sGv5X54_5quote9to_tokens8ToTokens9to_tokens0B6_, symObjAddr: 0xE70, symBinAddr: 0x500A0, symSize: 0x20 }
  - { offset: 0x10E5A4, size: 0x8, addend: 0x0, symName: __RNCNvXNtCsiK7Gs1zPIjf_14thiserror_impl4attrNtB4_7DisplayNtNtCs9OU1sGv5X54_5quote9to_tokens8ToTokens9to_tokenss_0B6_, symObjAddr: 0xE90, symBinAddr: 0x500C0, symSize: 0x20 }
  - { offset: 0x10E5E8, size: 0x8, addend: 0x0, symName: __RNvXNtCsiK7Gs1zPIjf_14thiserror_impl4attrNtB2_7DisplayNtNtCs9OU1sGv5X54_5quote9to_tokens8ToTokens9to_tokens, symObjAddr: 0x67D0, symBinAddr: 0x55A00, symSize: 0xD00 }
  - { offset: 0x10EAAD, size: 0x8, addend: 0x0, symName: __RNvNtCsiK7Gs1zPIjf_14thiserror_impl4attr16parse_token_expr, symObjAddr: 0x3940, symBinAddr: 0x52B70, symSize: 0x2410 }
  - { offset: 0x10F065, size: 0x8, addend: 0x0, symName: __RNvNtCsiK7Gs1zPIjf_14thiserror_impl4attr21parse_error_attribute, symObjAddr: 0x5D50, symBinAddr: 0x54F80, symSize: 0x60 }
  - { offset: 0x10F09F, size: 0x8, addend: 0x0, symName: __RNvNtCsiK7Gs1zPIjf_14thiserror_impl4attr3get, symObjAddr: 0x5DB0, symBinAddr: 0x54FE0, symSize: 0x950 }
  - { offset: 0x10F1C9, size: 0x8, addend: 0x0, symName: __RNvXs0_NtCsiK7Gs1zPIjf_14thiserror_impl4attrNtB5_7DisplayNtNtCsieiGu2EXtoJ_4core5clone5Clone5cloneB7_, symObjAddr: 0x7640, symBinAddr: 0x56870, symSize: 0x190 }
  - { offset: 0x10F1FB, size: 0x8, addend: 0x0, symName: __RNvXs7_NtCsiK7Gs1zPIjf_14thiserror_impl4attrNtB5_3FmtNtNtCsieiGu2EXtoJ_4core5clone5Clone5cloneB7_, symObjAddr: 0x7890, symBinAddr: 0x56AC0, symSize: 0x60 }
  - { offset: 0x10F22D, size: 0x8, addend: 0x0, symName: __RNvXs9_NtCsiK7Gs1zPIjf_14thiserror_impl4attrNtB5_5TraitNtNtCsieiGu2EXtoJ_4core5clone5Clone5cloneB7_, symObjAddr: 0x78F0, symBinAddr: 0x56B20, symSize: 0x10 }
  - { offset: 0x10F25F, size: 0x8, addend: 0x0, symName: __RNvXs_NtCsiK7Gs1zPIjf_14thiserror_impl4attrNtB4_5TraitNtNtCs9OU1sGv5X54_5quote9to_tokens8ToTokens9to_tokens, symObjAddr: 0x7930, symBinAddr: 0x56B60, symSize: 0x2C0 }
  - { offset: 0x10F2EA, size: 0x8, addend: 0x0, symName: __RNvXsc_NtCsiK7Gs1zPIjf_14thiserror_impl4attrNtB5_5TraitNtNtCsieiGu2EXtoJ_4core3cmp9PartialEq2eqB7_, symObjAddr: 0x7E10, symBinAddr: 0x57040, symSize: 0x30 }
  - { offset: 0x10F364, size: 0x8, addend: 0x0, symName: __RNvXsd_NtCsiK7Gs1zPIjf_14thiserror_impl4attrNtB5_5TraitNtNtCsieiGu2EXtoJ_4core3cmp3Ord3cmpB7_, symObjAddr: 0x7E40, symBinAddr: 0x57070, symSize: 0x40 }
  - { offset: 0x10FAA8, size: 0x8, addend: 0x0, symName: __RNvMNtCsdGrGZaRBwMb_3syn5dropsINtB2_6NoDropINtNtB4_10punctuated11PrivateIterNtNtB4_4data7VariantNtNtB4_5token5CommaEE3newCsiK7Gs1zPIjf_14thiserror_impl, symObjAddr: 0x1330, symBinAddr: 0x50560, symSize: 0x40 }
  - { offset: 0x10FB32, size: 0x8, addend: 0x0, symName: __RNvMNtCsdGrGZaRBwMb_3syn5dropsINtB2_6NoDropINtNtB4_10punctuated11PrivateIterNtNtB4_4path15GenericArgumentNtNtB4_5token5CommaEE3newCsiK7Gs1zPIjf_14thiserror_impl, symObjAddr: 0x1370, symBinAddr: 0x505A0, symSize: 0x40 }
  - { offset: 0x10FD6F, size: 0x8, addend: 0x0, symName: __RNvMNtCsiK7Gs1zPIjf_14thiserror_impl3fmtNtNtB4_4attr7Display16expand_shorthand, symObjAddr: 0x13B0, symBinAddr: 0x505E0, symSize: 0x2570 }
  - { offset: 0x1104E5, size: 0x8, addend: 0x0, symName: __RNvXNtCs9OU1sGv5X54_5quote9to_tokensRNtNtCsiK7Gs1zPIjf_14thiserror_impl4attr7DisplayNtB2_8ToTokens9to_tokensBD_, symObjAddr: 0x67A0, symBinAddr: 0x559D0, symSize: 0x30 }
  - { offset: 0x11052A, size: 0x8, addend: 0x0, symName: __RNvYNtNtCsiK7Gs1zPIjf_14thiserror_impl4attr5TraitNtNtCs9OU1sGv5X54_5quote9to_tokens8ToTokens15to_token_streamB6_, symObjAddr: 0x8390, symBinAddr: 0x575C0, symSize: 0x90 }
  - { offset: 0x110574, size: 0x8, addend: 0x0, symName: __RNvYNtNtCsiK7Gs1zPIjf_14thiserror_impl4attr7DisplayNtNtCs9OU1sGv5X54_5quote9to_tokens8ToTokens15to_token_streamB6_, symObjAddr: 0x8420, symBinAddr: 0x57650, symSize: 0x90 }
  - { offset: 0x1105C1, size: 0x8, addend: 0x0, symName: __RNvMNtNtCs9OU1sGv5X54_5quote9___private8get_spanINtB2_7GetSpanNtCsaKzlTDPUHDb_11proc_macro24SpanE11___into_spanCsiK7Gs1zPIjf_14thiserror_impl, symObjAddr: 0x3920, symBinAddr: 0x52B50, symSize: 0x20 }
  - { offset: 0x110CBA, size: 0x8, addend: 0x0, symName: __RINvMsi_NtNtNtCslJiobkLta79_5alloc11collections5btree3mapINtB6_8BTreeMapNtNtBc_6string6StringTINtNtB8_3set8BTreeSetB18_EINtNtCsdGrGZaRBwMb_3syn10punctuated10PunctuatedNtCsaKzlTDPUHDb_11proc_macro211TokenStreamNtNtB1Z_5token4PlusEEE3getB18_ECsiK7Gs1zPIjf_14thiserror_impl, symObjAddr: 0x0, symBinAddr: 0x57770, symSize: 0x100 }
  - { offset: 0x110FDB, size: 0x8, addend: 0x0, symName: __RNvXs7_NtNtCscKtU6MdFI5n_10proc_macro6bridge3rpcINtNtNtCsieiGu2EXtoJ_4core3num7nonzero7NonZeromEINtB5_9DecodeMutuE6decodeCsiK7Gs1zPIjf_14thiserror_impl, symObjAddr: 0x4140, symBinAddr: 0x5B8B0, symSize: 0x50 }
  - { offset: 0x1115EA, size: 0x8, addend: 0x0, symName: __RINvXs8_NtCsaKzlTDPUHDb_11proc_macro28fallbackNtB6_11TokenStreamINtNtNtNtCsieiGu2EXtoJ_4core4iter6traits7collect12FromIteratorNtB8_9TokenTreeE9from_iterINtNtNtCslJiobkLta79_5alloc3vec9into_iter8IntoIterB20_EECsiK7Gs1zPIjf_14thiserror_impl, symObjAddr: 0x1480, symBinAddr: 0x58BF0, symSize: 0xC0 }
  - { offset: 0x11163E, size: 0x8, addend: 0x0, symName: __RINvXsa_NtCsaKzlTDPUHDb_11proc_macro28fallbackNtB6_11TokenStreamINtNtNtNtCsieiGu2EXtoJ_4core4iter6traits7collect6ExtendNtB8_9TokenTreeE6extendINtNtNtCslJiobkLta79_5alloc3vec9into_iter8IntoIterB1T_EECsiK7Gs1zPIjf_14thiserror_impl, symObjAddr: 0x1540, symBinAddr: 0x58CB0, symSize: 0xC0 }
  - { offset: 0x1116A0, size: 0x8, addend: 0x0, symName: __RINvXsa_NtCsaKzlTDPUHDb_11proc_macro28fallbackNtB6_11TokenStreamINtNtNtNtCsieiGu2EXtoJ_4core4iter6traits7collect6ExtendNtB8_9TokenTreeE6extendNtB8_11TokenStreamECsiK7Gs1zPIjf_14thiserror_impl, symObjAddr: 0x1600, symBinAddr: 0x58D70, symSize: 0xC0 }
  - { offset: 0x111707, size: 0x8, addend: 0x0, symName: __RNCINvXsa_NtCsaKzlTDPUHDb_11proc_macro28fallbackNtB8_11TokenStreamINtNtNtNtCsieiGu2EXtoJ_4core4iter6traits7collect6ExtendNtBa_9TokenTreeE6extendINtNtNtCslJiobkLta79_5alloc3vec9into_iter8IntoIterB1V_EE0CsiK7Gs1zPIjf_14thiserror_impl, symObjAddr: 0x17E0, symBinAddr: 0x58F50, symSize: 0xA0 }
  - { offset: 0x11174D, size: 0x8, addend: 0x0, symName: __RNCINvXsa_NtCsaKzlTDPUHDb_11proc_macro28fallbackNtB8_11TokenStreamINtNtNtNtCsieiGu2EXtoJ_4core4iter6traits7collect6ExtendNtBa_9TokenTreeE6extendNtBa_11TokenStreamE0CsiK7Gs1zPIjf_14thiserror_impl, symObjAddr: 0x1880, symBinAddr: 0x58FF0, symSize: 0xA0 }
  - { offset: 0x1117AD, size: 0x8, addend: 0x0, symName: __RNvXsA_NtCsaKzlTDPUHDb_11proc_macro28fallbackNtB5_5IdentNtNtCsieiGu2EXtoJ_4core5clone5Clone5cloneCsiK7Gs1zPIjf_14thiserror_impl, symObjAddr: 0x4190, symBinAddr: 0x5B900, symSize: 0x90 }
  - { offset: 0x1117E1, size: 0x8, addend: 0x0, symName: __RNvXss_NtCsaKzlTDPUHDb_11proc_macro28fallbackNtB5_11TokenStreamNtNtCsieiGu2EXtoJ_4core5clone5Clone5cloneCsiK7Gs1zPIjf_14thiserror_impl, symObjAddr: 0x4220, symBinAddr: 0x5B990, symSize: 0x20 }
  - { offset: 0x111813, size: 0x8, addend: 0x0, symName: __RNvXsu_NtCsaKzlTDPUHDb_11proc_macro28fallbackNtB5_4SpanNtNtCsieiGu2EXtoJ_4core5clone5Clone5cloneCsiK7Gs1zPIjf_14thiserror_impl, symObjAddr: 0x4240, symBinAddr: 0x5B9B0, symSize: 0x10 }
  - { offset: 0x111B30, size: 0x8, addend: 0x0, symName: __RNvNtCsiK7Gs1zPIjf_14thiserror_impl8fallback6expand, symObjAddr: 0x2F20, symBinAddr: 0x5A690, symSize: 0xC30 }
  - { offset: 0x1153D0, size: 0x8, addend: 0x0, symName: __RNvNvMsd_NtNtCsieiGu2EXtoJ_4core3num7nonzeroINtB7_7NonZeropE13new_unchecked18precondition_checkCsiK7Gs1zPIjf_14thiserror_impl, symObjAddr: 0x3BF0, symBinAddr: 0x5B360, symSize: 0x80 }
  - { offset: 0x115D26, size: 0x8, addend: 0x0, symName: __RINvYNtNtCsaKzlTDPUHDb_11proc_macro212token_stream8IntoIterNtNtNtNtCsieiGu2EXtoJ_4core4iter6traits8iterator8Iterator4folduNCINvNvBV_8for_each4callNtB7_9TokenTreeNCINvXsa_NtB7_8fallbackNtB2I_11TokenStreamINtNtBZ_7collect6ExtendB2k_E6extendNtB7_11TokenStreamE0E0ECsiK7Gs1zPIjf_14thiserror_impl, symObjAddr: 0x16C0, symBinAddr: 0x58E30, symSize: 0x100 }
  - { offset: 0x115DB8, size: 0x8, addend: 0x0, symName: __RINvYNtNtCsaKzlTDPUHDb_11proc_macro212token_stream8IntoIterNtNtNtNtCsieiGu2EXtoJ_4core4iter6traits8iterator8Iterator8for_eachNCINvXsa_NtB7_8fallbackNtB28_11TokenStreamINtNtBZ_7collect6ExtendNtB7_9TokenTreeE6extendNtB7_11TokenStreamE0ECsiK7Gs1zPIjf_14thiserror_impl, symObjAddr: 0x17C0, symBinAddr: 0x58F30, symSize: 0x20 }
  - { offset: 0x116217, size: 0x8, addend: 0x0, symName: __RINvNvMNtCsieiGu2EXtoJ_4core5sliceSp7reverse7revswapRNtCsaKzlTDPUHDb_11proc_macro25IdentECsiK7Gs1zPIjf_14thiserror_impl, symObjAddr: 0x4E0, symBinAddr: 0x57C50, symSize: 0x300 }
  - { offset: 0x1163D4, size: 0x8, addend: 0x0, symName: __RNvMNtCsieiGu2EXtoJ_4core5sliceSh15copy_from_sliceCsiK7Gs1zPIjf_14thiserror_impl, symObjAddr: 0x1920, symBinAddr: 0x59090, symSize: 0xA0 }
  - { offset: 0x11647D, size: 0x8, addend: 0x0, symName: __RNvNvMNtCsieiGu2EXtoJ_4core5sliceSp22split_at_mut_unchecked18precondition_checkCsiK7Gs1zPIjf_14thiserror_impl, symObjAddr: 0x3B50, symBinAddr: 0x5B2C0, symSize: 0xA0 }
  - { offset: 0x116589, size: 0x8, addend: 0x0, symName: __RNvYINtNtNtNtCslJiobkLta79_5alloc11collections5btree3map8BTreeMapTjNtNtCsiK7Gs1zPIjf_14thiserror_impl4attr5TraitENtNtB7_7set_val9SetValZSTENtNtCsieiGu2EXtoJ_4core5clone5Clone10clone_fromB17_, symObjAddr: 0x5300, symBinAddr: 0x5CA70, symSize: 0x80 }
  - { offset: 0x1187A7, size: 0x8, addend: 0x0, symName: __RINvNvXs0_NtNtNtCslJiobkLta79_5alloc11collections5btree3mapINtB8_8BTreeMappppENtNtCsieiGu2EXtoJ_4core5clone5Clone5clone13clone_subtreeTjNtNtCsiK7Gs1zPIjf_14thiserror_impl4attr5TraitENtNtBa_7set_val9SetValZSTNtNtBe_5alloc6GlobalEB2e_, symObjAddr: 0x7E0, symBinAddr: 0x57F50, symSize: 0xCA0 }
  - { offset: 0x118FA6, size: 0x8, addend: 0x0, symName: __RNvXs0_NtNtNtCslJiobkLta79_5alloc11collections5btree3mapINtB5_8BTreeMapTjNtNtCsiK7Gs1zPIjf_14thiserror_impl4attr5TraitENtNtB7_7set_val9SetValZSTENtNtCsieiGu2EXtoJ_4core5clone5Clone5cloneB1d_, symObjAddr: 0x3FE0, symBinAddr: 0x5B750, symSize: 0xF0 }
  - { offset: 0x1199CE, size: 0x8, addend: 0x0, symName: __RNvXNtNtNtCslJiobkLta79_5alloc11collections5btree3mapINtB2_8BTreeMapNtNtB8_6string6StringNtNtB4_7set_val9SetValZSTENtNtNtCsieiGu2EXtoJ_4core3ops4drop4Drop4dropCsiK7Gs1zPIjf_14thiserror_impl, symObjAddr: 0x3C70, symBinAddr: 0x5B3E0, symSize: 0x40 }
  - { offset: 0x119A4C, size: 0x8, addend: 0x0, symName: __RNvXNtNtNtCslJiobkLta79_5alloc11collections5btree3mapINtB2_8BTreeMapNtNtB8_6string6StringTINtNtB4_3set8BTreeSetB14_EINtNtCsdGrGZaRBwMb_3syn10punctuated10PunctuatedNtCsaKzlTDPUHDb_11proc_macro211TokenStreamNtNtB1V_5token4PlusEEENtNtNtCsieiGu2EXtoJ_4core3ops4drop4Drop4dropCsiK7Gs1zPIjf_14thiserror_impl, symObjAddr: 0x3CB0, symBinAddr: 0x5B420, symSize: 0x40 }
  - { offset: 0x119ACA, size: 0x8, addend: 0x0, symName: __RNvXNtNtNtCslJiobkLta79_5alloc11collections5btree3mapINtB2_8BTreeMapNtNtCsiK7Gs1zPIjf_14thiserror_impl5unraw10IdentUnrawNtNtB4_7set_val9SetValZSTENtNtNtCsieiGu2EXtoJ_4core3ops4drop4Drop4dropB18_, symObjAddr: 0x3CF0, symBinAddr: 0x5B460, symSize: 0x40 }
  - { offset: 0x119B48, size: 0x8, addend: 0x0, symName: __RNvXNtNtNtCslJiobkLta79_5alloc11collections5btree3mapINtB2_8BTreeMapRNtCsaKzlTDPUHDb_11proc_macro25IdentNtNtB4_7set_val9SetValZSTENtNtNtCsieiGu2EXtoJ_4core3ops4drop4Drop4dropCsiK7Gs1zPIjf_14thiserror_impl, symObjAddr: 0x3D30, symBinAddr: 0x5B4A0, symSize: 0x40 }
  - { offset: 0x119BC6, size: 0x8, addend: 0x0, symName: __RNvXNtNtNtCslJiobkLta79_5alloc11collections5btree3mapINtB2_8BTreeMapTjNtNtCsiK7Gs1zPIjf_14thiserror_impl4attr5TraitENtNtB4_7set_val9SetValZSTENtNtNtCsieiGu2EXtoJ_4core3ops4drop4Drop4dropB1a_, symObjAddr: 0x3D70, symBinAddr: 0x5B4E0, symSize: 0x40 }
  - { offset: 0x119C54, size: 0x8, addend: 0x0, symName: __RNvXNvXsw_NtNtNtCslJiobkLta79_5alloc11collections5btree3mapINtB8_8IntoIterpppENtNtNtCsieiGu2EXtoJ_4core3ops4drop4Drop4dropINtB2_9DropGuardNtNtBe_6string6StringNtNtBa_7set_val9SetValZSTNtNtBe_5alloc6GlobalEB1e_4dropCsiK7Gs1zPIjf_14thiserror_impl, symObjAddr: 0x3DB0, symBinAddr: 0x5B520, symSize: 0x70 }
  - { offset: 0x119CB7, size: 0x8, addend: 0x0, symName: __RNvXNvXsw_NtNtNtCslJiobkLta79_5alloc11collections5btree3mapINtB8_8IntoIterpppENtNtNtCsieiGu2EXtoJ_4core3ops4drop4Drop4dropINtB2_9DropGuardNtNtBe_6string6StringTINtNtBa_3set8BTreeSetB2c_EINtNtCsdGrGZaRBwMb_3syn10punctuated10PunctuatedNtCsaKzlTDPUHDb_11proc_macro211TokenStreamNtNtB33_5token4PlusEENtNtBe_5alloc6GlobalEB1e_4dropCsiK7Gs1zPIjf_14thiserror_impl, symObjAddr: 0x3E20, symBinAddr: 0x5B590, symSize: 0x70 }
  - { offset: 0x119D1A, size: 0x8, addend: 0x0, symName: __RNvXNvXsw_NtNtNtCslJiobkLta79_5alloc11collections5btree3mapINtB8_8IntoIterpppENtNtNtCsieiGu2EXtoJ_4core3ops4drop4Drop4dropINtB2_9DropGuardNtNtCsiK7Gs1zPIjf_14thiserror_impl5unraw10IdentUnrawNtNtBa_7set_val9SetValZSTNtNtBe_5alloc6GlobalEB1e_4dropB2g_, symObjAddr: 0x3E90, symBinAddr: 0x5B600, symSize: 0x70 }
  - { offset: 0x119D7D, size: 0x8, addend: 0x0, symName: __RNvXNvXsw_NtNtNtCslJiobkLta79_5alloc11collections5btree3mapINtB8_8IntoIterpppENtNtNtCsieiGu2EXtoJ_4core3ops4drop4Drop4dropINtB2_9DropGuardRNtCsaKzlTDPUHDb_11proc_macro25IdentNtNtBa_7set_val9SetValZSTNtNtBe_5alloc6GlobalEB1e_4dropCsiK7Gs1zPIjf_14thiserror_impl, symObjAddr: 0x3F00, symBinAddr: 0x5B670, symSize: 0x70 }
  - { offset: 0x119DE0, size: 0x8, addend: 0x0, symName: __RNvXNvXsw_NtNtNtCslJiobkLta79_5alloc11collections5btree3mapINtB8_8IntoIterpppENtNtNtCsieiGu2EXtoJ_4core3ops4drop4Drop4dropINtB2_9DropGuardTjNtNtCsiK7Gs1zPIjf_14thiserror_impl4attr5TraitENtNtBa_7set_val9SetValZSTNtNtBe_5alloc6GlobalEB1e_4dropB2i_, symObjAddr: 0x3F70, symBinAddr: 0x5B6E0, symSize: 0x70 }
  - { offset: 0x119F35, size: 0x8, addend: 0x0, symName: __RNvXsw_NtNtNtCslJiobkLta79_5alloc11collections5btree3mapINtB5_8IntoIterNtNtBb_6string6StringNtNtB7_7set_val9SetValZSTENtNtNtCsieiGu2EXtoJ_4core3ops4drop4Drop4dropCsiK7Gs1zPIjf_14thiserror_impl, symObjAddr: 0x4F70, symBinAddr: 0x5C6E0, symSize: 0xA0 }
  - { offset: 0x119FA6, size: 0x8, addend: 0x0, symName: __RNvXsw_NtNtNtCslJiobkLta79_5alloc11collections5btree3mapINtB5_8IntoIterNtNtBb_6string6StringTINtNtB7_3set8BTreeSetB17_EINtNtCsdGrGZaRBwMb_3syn10punctuated10PunctuatedNtCsaKzlTDPUHDb_11proc_macro211TokenStreamNtNtB1Y_5token4PlusEEENtNtNtCsieiGu2EXtoJ_4core3ops4drop4Drop4dropCsiK7Gs1zPIjf_14thiserror_impl, symObjAddr: 0x5010, symBinAddr: 0x5C780, symSize: 0xA0 }
  - { offset: 0x11A017, size: 0x8, addend: 0x0, symName: __RNvXsw_NtNtNtCslJiobkLta79_5alloc11collections5btree3mapINtB5_8IntoIterNtNtCsiK7Gs1zPIjf_14thiserror_impl5unraw10IdentUnrawNtNtB7_7set_val9SetValZSTENtNtNtCsieiGu2EXtoJ_4core3ops4drop4Drop4dropB1b_, symObjAddr: 0x50B0, symBinAddr: 0x5C820, symSize: 0xA0 }
  - { offset: 0x11A088, size: 0x8, addend: 0x0, symName: __RNvXsw_NtNtNtCslJiobkLta79_5alloc11collections5btree3mapINtB5_8IntoIterRNtCsaKzlTDPUHDb_11proc_macro25IdentNtNtB7_7set_val9SetValZSTENtNtNtCsieiGu2EXtoJ_4core3ops4drop4Drop4dropCsiK7Gs1zPIjf_14thiserror_impl, symObjAddr: 0x5150, symBinAddr: 0x5C8C0, symSize: 0xA0 }
  - { offset: 0x11A0F9, size: 0x8, addend: 0x0, symName: __RNvXsw_NtNtNtCslJiobkLta79_5alloc11collections5btree3mapINtB5_8IntoIterTjNtNtCsiK7Gs1zPIjf_14thiserror_impl4attr5TraitENtNtB7_7set_val9SetValZSTENtNtNtCsieiGu2EXtoJ_4core3ops4drop4Drop4dropB1d_, symObjAddr: 0x51F0, symBinAddr: 0x5C960, symSize: 0xA0 }
  - { offset: 0x11A170, size: 0x8, addend: 0x0, symName: __RNvXs1q_NtNtNtCslJiobkLta79_5alloc11collections5btree3mapINtB6_8BTreeMapNtNtBc_6string6StringTINtNtB8_3set8BTreeSetB18_EINtNtCsdGrGZaRBwMb_3syn10punctuated10PunctuatedNtCsaKzlTDPUHDb_11proc_macro211TokenStreamNtNtB1Z_5token4PlusEEEINtNtNtCsieiGu2EXtoJ_4core3ops5index5IndexRB18_E5indexCsiK7Gs1zPIjf_14thiserror_impl, symObjAddr: 0x40D0, symBinAddr: 0x5B840, symSize: 0x70 }
  - { offset: 0x11A1F5, size: 0x8, addend: 0x0, symName: __RNvXsv_NtNtNtCslJiobkLta79_5alloc11collections5btree3mapINtB5_8BTreeMapNtNtBb_6string6StringNtNtB7_7set_val9SetValZSTENtNtNtNtCsieiGu2EXtoJ_4core4iter6traits7collect12IntoIterator9into_iterCsiK7Gs1zPIjf_14thiserror_impl, symObjAddr: 0x4250, symBinAddr: 0x5B9C0, symSize: 0x2A0 }
  - { offset: 0x11A36B, size: 0x8, addend: 0x0, symName: __RNvXsv_NtNtNtCslJiobkLta79_5alloc11collections5btree3mapINtB5_8BTreeMapNtNtBb_6string6StringTINtNtB7_3set8BTreeSetB17_EINtNtCsdGrGZaRBwMb_3syn10punctuated10PunctuatedNtCsaKzlTDPUHDb_11proc_macro211TokenStreamNtNtB1Y_5token4PlusEEENtNtNtNtCsieiGu2EXtoJ_4core4iter6traits7collect12IntoIterator9into_iterCsiK7Gs1zPIjf_14thiserror_impl, symObjAddr: 0x44F0, symBinAddr: 0x5BC60, symSize: 0x2A0 }
  - { offset: 0x11A4E1, size: 0x8, addend: 0x0, symName: __RNvXsv_NtNtNtCslJiobkLta79_5alloc11collections5btree3mapINtB5_8BTreeMapNtNtCsiK7Gs1zPIjf_14thiserror_impl5unraw10IdentUnrawNtNtB7_7set_val9SetValZSTENtNtNtNtCsieiGu2EXtoJ_4core4iter6traits7collect12IntoIterator9into_iterB1b_, symObjAddr: 0x4790, symBinAddr: 0x5BF00, symSize: 0x2A0 }
  - { offset: 0x11A657, size: 0x8, addend: 0x0, symName: __RNvXsv_NtNtNtCslJiobkLta79_5alloc11collections5btree3mapINtB5_8BTreeMapRNtCsaKzlTDPUHDb_11proc_macro25IdentNtNtB7_7set_val9SetValZSTENtNtNtNtCsieiGu2EXtoJ_4core4iter6traits7collect12IntoIterator9into_iterCsiK7Gs1zPIjf_14thiserror_impl, symObjAddr: 0x4A30, symBinAddr: 0x5C1A0, symSize: 0x2A0 }
  - { offset: 0x11A7CD, size: 0x8, addend: 0x0, symName: __RNvXsv_NtNtNtCslJiobkLta79_5alloc11collections5btree3mapINtB5_8BTreeMapTjNtNtCsiK7Gs1zPIjf_14thiserror_impl4attr5TraitENtNtB7_7set_val9SetValZSTENtNtNtNtCsieiGu2EXtoJ_4core4iter6traits7collect12IntoIterator9into_iterB1d_, symObjAddr: 0x4CD0, symBinAddr: 0x5C440, symSize: 0x2A0 }
  - { offset: 0x11A98F, size: 0x8, addend: 0x0, symName: __RNvXsy_NtNtNtCslJiobkLta79_5alloc11collections5btree3mapINtB5_8IntoIterTjNtNtCsiK7Gs1zPIjf_14thiserror_impl4attr5TraitENtNtB7_7set_val9SetValZSTENtNtNtNtCsieiGu2EXtoJ_4core4iter6traits8iterator8Iterator4nextB1d_, symObjAddr: 0x5290, symBinAddr: 0x5CA00, symSize: 0x70 }
  - { offset: 0x121148, size: 0x8, addend: 0x0, symName: __RINvMsi_NtNtNtCslJiobkLta79_5alloc11collections5btree3mapINtB6_8BTreeMapNtNtBc_6string6StringTINtNtB8_3set8BTreeSetB18_EINtNtCsdGrGZaRBwMb_3syn10punctuated10PunctuatedNtCsaKzlTDPUHDb_11proc_macro211TokenStreamNtNtB1Z_5token4PlusEEE3getB18_ECsiK7Gs1zPIjf_14thiserror_impl, symObjAddr: 0x0, symBinAddr: 0x57770, symSize: 0x100 }
  - { offset: 0x121391, size: 0x8, addend: 0x0, symName: __RINvMsi_NtNtNtCslJiobkLta79_5alloc11collections5btree3mapINtB6_8BTreeMapNtNtCsiK7Gs1zPIjf_14thiserror_impl5unraw10IdentUnrawNtNtB8_7set_val9SetValZSTE3getB18_EB1c_, symObjAddr: 0x100, symBinAddr: 0x57870, symSize: 0x100 }
  - { offset: 0x12167D, size: 0x8, addend: 0x0, symName: __RINvMsi_NtNtNtCslJiobkLta79_5alloc11collections5btree3mapINtB6_8BTreeMapRNtCsaKzlTDPUHDb_11proc_macro25IdentNtNtB8_7set_val9SetValZSTE27bulk_build_from_sorted_iterINtNtNtNtCsieiGu2EXtoJ_4core4iter8adapters3map3MapINtNtNtBc_3vec9into_iter8IntoIterB18_ENCINvMse_NtB8_3setINtB4a_8BTreeSetB18_E16from_sorted_iterB3p_E0EECsiK7Gs1zPIjf_14thiserror_impl, symObjAddr: 0x200, symBinAddr: 0x57970, symSize: 0x1E0 }
  - { offset: 0x121842, size: 0x8, addend: 0x0, symName: __RINvMsi_NtNtNtCslJiobkLta79_5alloc11collections5btree3mapINtB6_8BTreeMapRNtCsaKzlTDPUHDb_11proc_macro25IdentNtNtB8_7set_val9SetValZSTE3getB19_ECsiK7Gs1zPIjf_14thiserror_impl, symObjAddr: 0x3E0, symBinAddr: 0x57B50, symSize: 0x100 }
  - { offset: 0x122303, size: 0x8, addend: 0x0, symName: __RNvMs10_NtNtCsieiGu2EXtoJ_4core9core_arch3x86NtB6_7___m128i8as_i8x16CsiK7Gs1zPIjf_14thiserror_impl, symObjAddr: 0x19C0, symBinAddr: 0x59130, symSize: 0x20 }
  - { offset: 0x122326, size: 0x8, addend: 0x0, symName: __RNvMsg_NtNtNtCslJiobkLta79_5alloc11collections5btree3mapINtB5_8BTreeMapNtNtBb_6string6StringTINtNtB7_3set8BTreeSetB17_EINtNtCsdGrGZaRBwMb_3syn10punctuated10PunctuatedNtCsaKzlTDPUHDb_11proc_macro211TokenStreamNtNtB1Y_5token4PlusEEE3newCsiK7Gs1zPIjf_14thiserror_impl, symObjAddr: 0x19E0, symBinAddr: 0x59150, symSize: 0x30 }
  - { offset: 0x1223E7, size: 0x8, addend: 0x0, symName: __RNvMsi_NtNtNtCslJiobkLta79_5alloc11collections5btree3mapINtB5_8BTreeMapNtNtBb_6string6StringNtNtB7_7set_val9SetValZSTE5entryCsiK7Gs1zPIjf_14thiserror_impl, symObjAddr: 0x1A10, symBinAddr: 0x59180, symSize: 0x3A0 }
  - { offset: 0x12252C, size: 0x8, addend: 0x0, symName: __RNvMsi_NtNtNtCslJiobkLta79_5alloc11collections5btree3mapINtB5_8BTreeMapNtNtBb_6string6StringNtNtB7_7set_val9SetValZSTE6insertCsiK7Gs1zPIjf_14thiserror_impl, symObjAddr: 0x1DB0, symBinAddr: 0x59520, symSize: 0x160 }
  - { offset: 0x122681, size: 0x8, addend: 0x0, symName: __RNvMsi_NtNtNtCslJiobkLta79_5alloc11collections5btree3mapINtB5_8BTreeMapNtNtBb_6string6StringTINtNtB7_3set8BTreeSetB17_EINtNtCsdGrGZaRBwMb_3syn10punctuated10PunctuatedNtCsaKzlTDPUHDb_11proc_macro211TokenStreamNtNtB1Y_5token4PlusEEE5entryCsiK7Gs1zPIjf_14thiserror_impl, symObjAddr: 0x1F10, symBinAddr: 0x59680, symSize: 0x3A0 }
  - { offset: 0x12281A, size: 0x8, addend: 0x0, symName: __RNvMsi_NtNtNtCslJiobkLta79_5alloc11collections5btree3mapINtB5_8BTreeMapNtNtCsiK7Gs1zPIjf_14thiserror_impl5unraw10IdentUnrawNtNtB7_7set_val9SetValZSTE5entryB1b_, symObjAddr: 0x22B0, symBinAddr: 0x59A20, symSize: 0x3A0 }
  - { offset: 0x122952, size: 0x8, addend: 0x0, symName: __RNvMsi_NtNtNtCslJiobkLta79_5alloc11collections5btree3mapINtB5_8BTreeMapNtNtCsiK7Gs1zPIjf_14thiserror_impl5unraw10IdentUnrawNtNtB7_7set_val9SetValZSTE6insertB1b_, symObjAddr: 0x2650, symBinAddr: 0x59DC0, symSize: 0x160 }
  - { offset: 0x122A9A, size: 0x8, addend: 0x0, symName: __RNvMsi_NtNtNtCslJiobkLta79_5alloc11collections5btree3mapINtB5_8BTreeMapTjNtNtCsiK7Gs1zPIjf_14thiserror_impl4attr5TraitENtNtB7_7set_val9SetValZSTE5entryB1d_, symObjAddr: 0x27B0, symBinAddr: 0x59F20, symSize: 0x340 }
  - { offset: 0x122BD2, size: 0x8, addend: 0x0, symName: __RNvMsi_NtNtNtCslJiobkLta79_5alloc11collections5btree3mapINtB5_8BTreeMapTjNtNtCsiK7Gs1zPIjf_14thiserror_impl4attr5TraitENtNtB7_7set_val9SetValZSTE6insertB1d_, symObjAddr: 0x2AF0, symBinAddr: 0x5A260, symSize: 0x160 }
  - { offset: 0x122CD4, size: 0x8, addend: 0x0, symName: __RNvMsx_NtNtNtCslJiobkLta79_5alloc11collections5btree3mapINtB5_8IntoIterNtNtBb_6string6StringNtNtB7_7set_val9SetValZSTE10dying_nextCsiK7Gs1zPIjf_14thiserror_impl, symObjAddr: 0x2C50, symBinAddr: 0x5A3C0, symSize: 0x90 }
  - { offset: 0x122D1F, size: 0x8, addend: 0x0, symName: __RNvMsx_NtNtNtCslJiobkLta79_5alloc11collections5btree3mapINtB5_8IntoIterNtNtBb_6string6StringTINtNtB7_3set8BTreeSetB17_EINtNtCsdGrGZaRBwMb_3syn10punctuated10PunctuatedNtCsaKzlTDPUHDb_11proc_macro211TokenStreamNtNtB1Y_5token4PlusEEE10dying_nextCsiK7Gs1zPIjf_14thiserror_impl, symObjAddr: 0x2CE0, symBinAddr: 0x5A450, symSize: 0x90 }
  - { offset: 0x122D6A, size: 0x8, addend: 0x0, symName: __RNvMsx_NtNtNtCslJiobkLta79_5alloc11collections5btree3mapINtB5_8IntoIterNtNtCsiK7Gs1zPIjf_14thiserror_impl5unraw10IdentUnrawNtNtB7_7set_val9SetValZSTE10dying_nextB1b_, symObjAddr: 0x2D70, symBinAddr: 0x5A4E0, symSize: 0x90 }
  - { offset: 0x122DB5, size: 0x8, addend: 0x0, symName: __RNvMsx_NtNtNtCslJiobkLta79_5alloc11collections5btree3mapINtB5_8IntoIterRNtCsaKzlTDPUHDb_11proc_macro25IdentNtNtB7_7set_val9SetValZSTE10dying_nextCsiK7Gs1zPIjf_14thiserror_impl, symObjAddr: 0x2E00, symBinAddr: 0x5A570, symSize: 0x90 }
  - { offset: 0x122E00, size: 0x8, addend: 0x0, symName: __RNvMsx_NtNtNtCslJiobkLta79_5alloc11collections5btree3mapINtB5_8IntoIterTjNtNtCsiK7Gs1zPIjf_14thiserror_impl4attr5TraitENtNtB7_7set_val9SetValZSTE10dying_nextB1d_, symObjAddr: 0x2E90, symBinAddr: 0x5A600, symSize: 0x90 }
  - { offset: 0x1233BE, size: 0x8, addend: 0x0, symName: __RNvYNtNtCsdGrGZaRBwMb_3syn5token8SelfTypeNtNtCs9OU1sGv5X54_5quote9to_tokens8ToTokens15to_token_streamCsiK7Gs1zPIjf_14thiserror_impl, symObjAddr: 0x5380, symBinAddr: 0x5CAF0, symSize: 0x90 }
  - { offset: 0x123A03, size: 0x8, addend: 0x0, symName: __RINvCsdGrGZaRBwMb_3syn5parseNtNtB2_6derive11DeriveInputECsiK7Gs1zPIjf_14thiserror_impl, symObjAddr: 0x0, symBinAddr: 0x5CB80, symSize: 0x30 }
  - { offset: 0x123DCF, size: 0x8, addend: 0x0, symName: __RNvXs1J_NtCscKtU6MdFI5n_10proc_macro6bridgeINtB6_11ExpnGlobalsNtNtB6_6client4SpanEINtNtB6_3rpc9DecodeMutuE6decodeCsiK7Gs1zPIjf_14thiserror_impl, symObjAddr: 0x3F90, symBinAddr: 0x60A70, symSize: 0xA0 }
  - { offset: 0x123E26, size: 0x8, addend: 0x0, symName: __RNvXs9_NtNtCscKtU6MdFI5n_10proc_macro6bridge3rpcTINtB7_11ExpnGlobalsNtNtB7_6client4SpanENtB16_11TokenStreamEINtB5_9DecodeMutuE6decodeCsiK7Gs1zPIjf_14thiserror_impl, symObjAddr: 0x4460, symBinAddr: 0x60F40, symSize: 0x80 }
  - { offset: 0x123FAC, size: 0x8, addend: 0x0, symName: __RNvXsR_NtCscKtU6MdFI5n_10proc_macro6bridgeINtNtCsieiGu2EXtoJ_4core6option6OptionNtNtB5_6client11TokenStreamEINtNtB5_3rpc6EncodeuE6encodeCsiK7Gs1zPIjf_14thiserror_impl, symObjAddr: 0x4610, symBinAddr: 0x610F0, symSize: 0xB0 }
  - { offset: 0x124052, size: 0x8, addend: 0x0, symName: __RNvXsR_NtCscKtU6MdFI5n_10proc_macro6bridgeINtNtCsieiGu2EXtoJ_4core6option6OptionReEINtNtB5_3rpc6EncodeuE6encodeCsiK7Gs1zPIjf_14thiserror_impl, symObjAddr: 0x46C0, symBinAddr: 0x611A0, symSize: 0xC0 }
  - { offset: 0x1245AC, size: 0x8, addend: 0x0, symName: __RNvXs1_NtCsaKzlTDPUHDb_11proc_macro26markerNtB5_19ProcMacroAutoTraitsNtNtCsieiGu2EXtoJ_4core5clone5Clone5cloneCsiK7Gs1zPIjf_14thiserror_impl, symObjAddr: 0x4030, symBinAddr: 0x60B10, symSize: 0x10 }
  - { offset: 0x124D05, size: 0x8, addend: 0x0, symName: __RNCNvNtCsiK7Gs1zPIjf_14thiserror_impl4prop24distinct_backtrace_field0B5_, symObjAddr: 0x2F70, symBinAddr: 0x5FA70, symSize: 0x40 }
  - { offset: 0x124D4C, size: 0x8, addend: 0x0, symName: __RNCNvMs_NtCsiK7Gs1zPIjf_14thiserror_impl4propNtNtB8_3ast4Enum10has_source0B8_, symObjAddr: 0x2E10, symBinAddr: 0x5F910, symSize: 0x70 }
  - { offset: 0x124D8F, size: 0x8, addend: 0x0, symName: __RNCNvMs_NtCsiK7Gs1zPIjf_14thiserror_impl4propNtNtB8_3ast4Enum11has_display0B8_, symObjAddr: 0x2E80, symBinAddr: 0x5F980, symSize: 0x70 }
  - { offset: 0x124DC5, size: 0x8, addend: 0x0, symName: __RNCNvMs_NtCsiK7Gs1zPIjf_14thiserror_impl4propNtNtB8_3ast4Enum11has_displays_0B8_, symObjAddr: 0x2EF0, symBinAddr: 0x5F9F0, symSize: 0x40 }
  - { offset: 0x124E0F, size: 0x8, addend: 0x0, symName: __RNCNvMs_NtCsiK7Gs1zPIjf_14thiserror_impl4propNtNtB8_3ast4Enum13has_backtrace0B8_, symObjAddr: 0x2F30, symBinAddr: 0x5FA30, symSize: 0x40 }
  - { offset: 0x124E4E, size: 0x8, addend: 0x0, symName: __RNvNtCsiK7Gs1zPIjf_14thiserror_impl4prop10from_field, symObjAddr: 0x3630, symBinAddr: 0x60130, symSize: 0xA0 }
  - { offset: 0x124EA4, size: 0x8, addend: 0x0, symName: __RNvNtCsiK7Gs1zPIjf_14thiserror_impl4prop12source_field, symObjAddr: 0x36D0, symBinAddr: 0x601D0, symSize: 0x1B0 }
  - { offset: 0x124F52, size: 0x8, addend: 0x0, symName: __RNvNtCsiK7Gs1zPIjf_14thiserror_impl4prop15backtrace_field, symObjAddr: 0x3880, symBinAddr: 0x60380, symSize: 0x130 }
  - { offset: 0x124FD3, size: 0x8, addend: 0x0, symName: __RNvNtCsiK7Gs1zPIjf_14thiserror_impl4prop17type_is_backtrace, symObjAddr: 0x39B0, symBinAddr: 0x604B0, symSize: 0xE0 }
  - { offset: 0x125063, size: 0x8, addend: 0x0, symName: __RNvNtCsiK7Gs1zPIjf_14thiserror_impl4prop24distinct_backtrace_field, symObjAddr: 0x3A90, symBinAddr: 0x60590, symSize: 0x60 }
  - { offset: 0x12899F, size: 0x8, addend: 0x0, symName: __RNvXs3_NtCsieiGu2EXtoJ_4core6optionINtB5_6OptionNtNtCsiK7Gs1zPIjf_14thiserror_impl4attr3FmtENtNtB7_5clone5Clone10clone_fromBO_, symObjAddr: 0x4180, symBinAddr: 0x60C60, symSize: 0x160 }
  - { offset: 0x128A9B, size: 0x8, addend: 0x0, symName: __RNvXs3_NtCsieiGu2EXtoJ_4core6optionINtB5_6OptionNtNtCsiK7Gs1zPIjf_14thiserror_impl4attr7DisplayENtNtB7_5clone5Clone10clone_fromBO_, symObjAddr: 0x42E0, symBinAddr: 0x60DC0, symSize: 0x160 }
  - { offset: 0x128BD3, size: 0x8, addend: 0x0, symName: __RNvXs6_NtCsieiGu2EXtoJ_4core6optionINtB5_6OptionRNtCsaKzlTDPUHDb_11proc_macro211TokenStreamENtNtNtNtB7_4iter6traits7collect12IntoIterator9into_iterCsiK7Gs1zPIjf_14thiserror_impl, symObjAddr: 0x4440, symBinAddr: 0x60F20, symSize: 0x10 }
  - { offset: 0x128C10, size: 0x8, addend: 0x0, symName: __RNvXsC_NtCsieiGu2EXtoJ_4core6optionINtB5_6OptionRNtNtCsiK7Gs1zPIjf_14thiserror_impl3ast5FieldENtNtNtB7_3ops9try_trait3Try6branchBP_, symObjAddr: 0x44E0, symBinAddr: 0x60FC0, symSize: 0x40 }
  - { offset: 0x128DAF, size: 0x8, addend: 0x0, symName: __RNvXsD_NtCsieiGu2EXtoJ_4core6optionINtB5_6OptionNtCsaKzlTDPUHDb_11proc_macro211TokenStreamEINtNtNtB7_3ops9try_trait12FromResidualIBy_NtNtB7_7convert10InfallibleEE13from_residualCsiK7Gs1zPIjf_14thiserror_impl, symObjAddr: 0x4520, symBinAddr: 0x61000, symSize: 0x20 }
  - { offset: 0x128DE2, size: 0x8, addend: 0x0, symName: __RNvXsD_NtCsieiGu2EXtoJ_4core6optionINtB5_6OptionRNtNtCsiK7Gs1zPIjf_14thiserror_impl3ast5FieldEINtNtNtB7_3ops9try_trait12FromResidualIBy_NtNtB7_7convert10InfallibleEE13from_residualBP_, symObjAddr: 0x4540, symBinAddr: 0x61020, symSize: 0x10 }
  - { offset: 0x128F11, size: 0x8, addend: 0x0, symName: __RNvXsP_NtCsieiGu2EXtoJ_4core6optionINtB5_8IntoIterRNtNtCsdGrGZaRBwMb_3syn4data7VariantENtNtB7_5clone5Clone5cloneCsiK7Gs1zPIjf_14thiserror_impl, symObjAddr: 0x4550, symBinAddr: 0x61030, symSize: 0x60 }
  - { offset: 0x128FBC, size: 0x8, addend: 0x0, symName: __RNvXsP_NtCsieiGu2EXtoJ_4core6optionINtB5_8IntoIterRNtNtCsdGrGZaRBwMb_3syn4path15GenericArgumentENtNtB7_5clone5Clone5cloneCsiK7Gs1zPIjf_14thiserror_impl, symObjAddr: 0x45B0, symBinAddr: 0x61090, symSize: 0x60 }
  - { offset: 0x1295A5, size: 0x8, addend: 0x0, symName: __RNvXsw_NtCsieiGu2EXtoJ_4core6optionINtB5_8IntoIterRNtCsaKzlTDPUHDb_11proc_macro211TokenStreamENtNtNtNtB7_4iter6traits8iterator8Iterator4nextCsiK7Gs1zPIjf_14thiserror_impl, symObjAddr: 0x51A0, symBinAddr: 0x61C80, symSize: 0x20 }
  - { offset: 0x12961D, size: 0x8, addend: 0x0, symName: __RNvXsw_NtCsieiGu2EXtoJ_4core6optionINtB5_8IntoIterRNtNtCsdGrGZaRBwMb_3syn4data7VariantENtNtNtNtB7_4iter6traits8iterator8Iterator9size_hintCsiK7Gs1zPIjf_14thiserror_impl, symObjAddr: 0x51C0, symBinAddr: 0x61CA0, symSize: 0x30 }
  - { offset: 0x129695, size: 0x8, addend: 0x0, symName: __RNvXsw_NtCsieiGu2EXtoJ_4core6optionINtB5_8IntoIterRNtNtCsdGrGZaRBwMb_3syn4path15GenericArgumentENtNtNtNtB7_4iter6traits8iterator8Iterator9size_hintCsiK7Gs1zPIjf_14thiserror_impl, symObjAddr: 0x51F0, symBinAddr: 0x61CD0, symSize: 0x30 }
  - { offset: 0x12A951, size: 0x8, addend: 0x0, symName: __RINvNtCsieiGu2EXtoJ_4core3ptr13drop_in_placeINtNtB4_4cell10UnsafeCellNtNtNtCscKtU6MdFI5n_10proc_macro6bridge6client6BridgeEECsiK7Gs1zPIjf_14thiserror_impl, symObjAddr: 0xE40, symBinAddr: 0x5D980, symSize: 0x20 }
  - { offset: 0x12A980, size: 0x8, addend: 0x0, symName: __RINvNtCsieiGu2EXtoJ_4core3ptr13drop_in_placeINtNtB4_4cell7RefCellNtNtNtCscKtU6MdFI5n_10proc_macro6bridge6client6BridgeEECsiK7Gs1zPIjf_14thiserror_impl, symObjAddr: 0xE60, symBinAddr: 0x5D9A0, symSize: 0x20 }
  - { offset: 0x12A9AF, size: 0x8, addend: 0x0, symName: __RINvNtCsieiGu2EXtoJ_4core3ptr13drop_in_placeINtNtB4_6option6OptionIBH_NtCsaKzlTDPUHDb_11proc_macro211TokenStreamEEECsiK7Gs1zPIjf_14thiserror_impl, symObjAddr: 0xE80, symBinAddr: 0x5D9C0, symSize: 0x40 }
  - { offset: 0x12A9DE, size: 0x8, addend: 0x0, symName: __RINvNtCsieiGu2EXtoJ_4core3ptr13drop_in_placeINtNtB4_6option6OptionINtNtB4_6result6ResultNtNtB4_7convert10InfallibleNtNtCsdGrGZaRBwMb_3syn5error5ErrorEEECsiK7Gs1zPIjf_14thiserror_impl, symObjAddr: 0xEC0, symBinAddr: 0x5DA00, symSize: 0x40 }
  - { offset: 0x12AA0D, size: 0x8, addend: 0x0, symName: __RINvNtCsieiGu2EXtoJ_4core3ptr13drop_in_placeINtNtB4_6option6OptionINtNtB4_6result6ResultNtNtCsdGrGZaRBwMb_3syn4expr5IndexNtNtB1s_5error5ErrorEEECsiK7Gs1zPIjf_14thiserror_impl, symObjAddr: 0xF00, symBinAddr: 0x5DA40, symSize: 0x40 }
  - { offset: 0x12AA3C, size: 0x8, addend: 0x0, symName: __RINvNtCsieiGu2EXtoJ_4core3ptr13drop_in_placeINtNtB4_6option6OptionINtNtCslJiobkLta79_5alloc5boxed3BoxNtCsaKzlTDPUHDb_11proc_macro211TokenStreamEEECsiK7Gs1zPIjf_14thiserror_impl, symObjAddr: 0xF40, symBinAddr: 0x5DA80, symSize: 0x40 }
  - { offset: 0x12AA6B, size: 0x8, addend: 0x0, symName: __RINvNtCsieiGu2EXtoJ_4core3ptr13drop_in_placeINtNtB4_6option6OptionNtNtCsdGrGZaRBwMb_3syn5parse11ParseBufferEECsiK7Gs1zPIjf_14thiserror_impl, symObjAddr: 0xF80, symBinAddr: 0x5DAC0, symSize: 0x30 }
  - { offset: 0x12AA9A, size: 0x8, addend: 0x0, symName: __RINvNtCsieiGu2EXtoJ_4core3ptr13drop_in_placeINtNtB4_6option6OptionNtNtCsiK7Gs1zPIjf_14thiserror_impl4attr3FmtEEB16_, symObjAddr: 0xFB0, symBinAddr: 0x5DAF0, symSize: 0x40 }
  - { offset: 0x12AAC9, size: 0x8, addend: 0x0, symName: __RINvNtCsieiGu2EXtoJ_4core3ptr13drop_in_placeINtNtB4_6option6OptionNtNtCsiK7Gs1zPIjf_14thiserror_impl4attr7DisplayEEB16_, symObjAddr: 0xFF0, symBinAddr: 0x5DB30, symSize: 0x40 }
  - { offset: 0x12AAF8, size: 0x8, addend: 0x0, symName: __RINvNtCsieiGu2EXtoJ_4core3ptr13drop_in_placeINtNtB4_6result6ResultNtCsaKzlTDPUHDb_11proc_macro25IdentNtNtCsdGrGZaRBwMb_3syn5error5ErrorEECsiK7Gs1zPIjf_14thiserror_impl, symObjAddr: 0x1030, symBinAddr: 0x5DB70, symSize: 0x40 }
  - { offset: 0x12AB27, size: 0x8, addend: 0x0, symName: __RINvNtCsieiGu2EXtoJ_4core3ptr13drop_in_placeINtNtB4_6result6ResultNtNtB4_7convert10InfallibleNtNtCsdGrGZaRBwMb_3syn5error5ErrorEECsiK7Gs1zPIjf_14thiserror_impl, symObjAddr: 0x1070, symBinAddr: 0x5DBB0, symSize: 0x20 }
  - { offset: 0x12AB56, size: 0x8, addend: 0x0, symName: __RINvNtCsieiGu2EXtoJ_4core3ptr13drop_in_placeINtNtB4_6result6ResultNtNtCsdGrGZaRBwMb_3syn4expr4ExprNtNtB16_5error5ErrorEECsiK7Gs1zPIjf_14thiserror_impl, symObjAddr: 0x1090, symBinAddr: 0x5DBD0, symSize: 0x50 }
  - { offset: 0x12AB85, size: 0x8, addend: 0x0, symName: __RINvNtCsieiGu2EXtoJ_4core3ptr13drop_in_placeINtNtB4_6result6ResultNtNtCsdGrGZaRBwMb_3syn4expr5IndexNtNtB16_5error5ErrorEECsiK7Gs1zPIjf_14thiserror_impl, symObjAddr: 0x10E0, symBinAddr: 0x5DC20, symSize: 0x40 }
  - { offset: 0x12ABB4, size: 0x8, addend: 0x0, symName: __RINvNtCsieiGu2EXtoJ_4core3ptr13drop_in_placeINtNtB4_6result6ResultNtNtCsiK7Gs1zPIjf_14thiserror_impl3fmt12FmtArgumentsNtNtCsdGrGZaRBwMb_3syn5error5ErrorEEB16_, symObjAddr: 0x1120, symBinAddr: 0x5DC60, symSize: 0x50 }
  - { offset: 0x12ABE3, size: 0x8, addend: 0x0, symName: __RINvNtCsieiGu2EXtoJ_4core3ptr13drop_in_placeINtNtCs9OU1sGv5X54_5quote9___private9RepInterpNtCsaKzlTDPUHDb_11proc_macro211TokenStreamEECsiK7Gs1zPIjf_14thiserror_impl, symObjAddr: 0x1170, symBinAddr: 0x5DCB0, symSize: 0x20 }
  - { offset: 0x12AC12, size: 0x8, addend: 0x0, symName: __RINvNtCsieiGu2EXtoJ_4core3ptr13drop_in_placeINtNtCs9OU1sGv5X54_5quote9___private9RepInterpNtCsaKzlTDPUHDb_11proc_macro25IdentEECsiK7Gs1zPIjf_14thiserror_impl, symObjAddr: 0x1190, symBinAddr: 0x5DCD0, symSize: 0x20 }
  - { offset: 0x12AC41, size: 0x8, addend: 0x0, symName: __RINvNtCsieiGu2EXtoJ_4core3ptr13drop_in_placeINtNtCsdGrGZaRBwMb_3syn10punctuated10PunctuatedNtCsaKzlTDPUHDb_11proc_macro211TokenStreamNtNtBL_5token4PlusEECsiK7Gs1zPIjf_14thiserror_impl, symObjAddr: 0x11B0, symBinAddr: 0x5DCF0, symSize: 0x60 }
  - { offset: 0x12AC70, size: 0x8, addend: 0x0, symName: __RINvNtCsieiGu2EXtoJ_4core3ptr13drop_in_placeINtNtCsdGrGZaRBwMb_3syn10punctuated4IterNtNtBL_4data5FieldEECsiK7Gs1zPIjf_14thiserror_impl, symObjAddr: 0x1210, symBinAddr: 0x5DD50, symSize: 0x20 }
  - { offset: 0x12AC9F, size: 0x8, addend: 0x0, symName: __RINvNtCsieiGu2EXtoJ_4core3ptr13drop_in_placeINtNtCsdGrGZaRBwMb_3syn10punctuated4IterNtNtBL_4data7VariantEECsiK7Gs1zPIjf_14thiserror_impl, symObjAddr: 0x1230, symBinAddr: 0x5DD70, symSize: 0x20 }
  - { offset: 0x12ACCE, size: 0x8, addend: 0x0, symName: __RINvNtCsieiGu2EXtoJ_4core3ptr13drop_in_placeINtNtCsdGrGZaRBwMb_3syn10punctuated4IterNtNtBL_4path15GenericArgumentEECsiK7Gs1zPIjf_14thiserror_impl, symObjAddr: 0x1250, symBinAddr: 0x5DD90, symSize: 0x20 }
  - { offset: 0x12ACFD, size: 0x8, addend: 0x0, symName: __RINvNtCsieiGu2EXtoJ_4core3ptr13drop_in_placeINtNtCsdGrGZaRBwMb_3syn10punctuated4IterNtNtBL_8generics12GenericParamEECsiK7Gs1zPIjf_14thiserror_impl, symObjAddr: 0x1270, symBinAddr: 0x5DDB0, symSize: 0x20 }
  - { offset: 0x12AD2C, size: 0x8, addend: 0x0, symName: __RINvNtCsieiGu2EXtoJ_4core3ptr13drop_in_placeINtNtCsjK30CmJ87bX_9hashbrown10scopeguard10ScopeGuardNtNtBL_3raw13RawTableInnerNCINvMsa_B1z_B1x_14prepare_resizeNtNtCslJiobkLta79_5alloc5alloc6GlobalE0EECsiK7Gs1zPIjf_14thiserror_impl, symObjAddr: 0x1290, symBinAddr: 0x5DDD0, symSize: 0x20 }
  - { offset: 0x12AD5B, size: 0x8, addend: 0x0, symName: __RINvNtCsieiGu2EXtoJ_4core3ptr13drop_in_placeINtNtCsjK30CmJ87bX_9hashbrown10scopeguard10ScopeGuardQNtNtBL_3raw13RawTableInnerNCNvMsa_B1A_B1y_15rehash_in_place0EECsiK7Gs1zPIjf_14thiserror_impl, symObjAddr: 0x12B0, symBinAddr: 0x5DDF0, symSize: 0x20 }
  - { offset: 0x12AD8A, size: 0x8, addend: 0x0, symName: __RINvNtCsieiGu2EXtoJ_4core3ptr13drop_in_placeINtNtCsjK30CmJ87bX_9hashbrown3map7HashMapRNtNtCsiK7Gs1zPIjf_14thiserror_impl5unraw11MemberUnrawjNtNtNtCsHUR1vrdMJt_3std4hash6random11RandomStateEEB1q_, symObjAddr: 0x12D0, symBinAddr: 0x5DE10, symSize: 0x20 }
  - { offset: 0x12ADB9, size: 0x8, addend: 0x0, symName: __RINvNtCsieiGu2EXtoJ_4core3ptr13drop_in_placeINtNtCsjK30CmJ87bX_9hashbrown3raw8RawTableTRNtNtCsiK7Gs1zPIjf_14thiserror_impl5unraw11MemberUnrawjEEEB1s_, symObjAddr: 0x12F0, symBinAddr: 0x5DE30, symSize: 0x20 }
  - { offset: 0x12ADE8, size: 0x8, addend: 0x0, symName: __RINvNtCsieiGu2EXtoJ_4core3ptr13drop_in_placeINtNtCslJiobkLta79_5alloc3vec3VecNtCsaKzlTDPUHDb_11proc_macro211TokenStreamEECsiK7Gs1zPIjf_14thiserror_impl, symObjAddr: 0x1310, symBinAddr: 0x5DE50, symSize: 0x50 }
  - { offset: 0x12AE17, size: 0x8, addend: 0x0, symName: __RINvNtCsieiGu2EXtoJ_4core3ptr13drop_in_placeINtNtCslJiobkLta79_5alloc3vec3VecNtNtCsiK7Gs1zPIjf_14thiserror_impl3ast5FieldEEB1h_, symObjAddr: 0x1360, symBinAddr: 0x5DEA0, symSize: 0x50 }
  - { offset: 0x12AE46, size: 0x8, addend: 0x0, symName: __RINvNtCsieiGu2EXtoJ_4core3ptr13drop_in_placeINtNtCslJiobkLta79_5alloc3vec3VecNtNtCsiK7Gs1zPIjf_14thiserror_impl3ast7VariantEEB1h_, symObjAddr: 0x13B0, symBinAddr: 0x5DEF0, symSize: 0x50 }
  - { offset: 0x12AE75, size: 0x8, addend: 0x0, symName: __RINvNtCsieiGu2EXtoJ_4core3ptr13drop_in_placeINtNtCslJiobkLta79_5alloc3vec3VecRNtCsaKzlTDPUHDb_11proc_macro25IdentEECsiK7Gs1zPIjf_14thiserror_impl, symObjAddr: 0x1400, symBinAddr: 0x5DF40, symSize: 0x50 }
  - { offset: 0x12AEA4, size: 0x8, addend: 0x0, symName: __RINvNtCsieiGu2EXtoJ_4core3ptr13drop_in_placeINtNtCslJiobkLta79_5alloc3vec3VecTNtCsaKzlTDPUHDb_11proc_macro211TokenStreamNtNtCsdGrGZaRBwMb_3syn5token4PlusEEECsiK7Gs1zPIjf_14thiserror_impl, symObjAddr: 0x1450, symBinAddr: 0x5DF90, symSize: 0x50 }
  - { offset: 0x12AED3, size: 0x8, addend: 0x0, symName: __RINvNtCsieiGu2EXtoJ_4core3ptr13drop_in_placeINtNtCslJiobkLta79_5alloc3vec3VecTNtCsaKzlTDPUHDb_11proc_macro25IdentNtB1g_11TokenStreamEEECsiK7Gs1zPIjf_14thiserror_impl, symObjAddr: 0x14A0, symBinAddr: 0x5DFE0, symSize: 0x50 }
  - { offset: 0x12AF02, size: 0x8, addend: 0x0, symName: __RINvNtCsieiGu2EXtoJ_4core3ptr13drop_in_placeINtNtCslJiobkLta79_5alloc5boxed3BoxDNtNtB4_5error5ErrorNtNtB4_6marker4SyncNtB1B_4SendEL_EECsiK7Gs1zPIjf_14thiserror_impl, symObjAddr: 0x14F0, symBinAddr: 0x5E030, symSize: 0x70 }
  - { offset: 0x12AF31, size: 0x8, addend: 0x0, symName: __RINvNtCsieiGu2EXtoJ_4core3ptr13drop_in_placeINtNtCslJiobkLta79_5alloc5boxed3BoxINtNtCsdGrGZaRBwMb_3syn5drops6NoDropDINtNtB1k_10punctuated9IterTraitNtNtB1k_4data5FieldEp4ItemRB2l_EL_EEECsiK7Gs1zPIjf_14thiserror_impl, symObjAddr: 0x1560, symBinAddr: 0x5E0A0, symSize: 0x20 }
  - { offset: 0x12AF60, size: 0x8, addend: 0x0, symName: __RINvNtCsieiGu2EXtoJ_4core3ptr13drop_in_placeINtNtCslJiobkLta79_5alloc5boxed3BoxINtNtCsdGrGZaRBwMb_3syn5drops6NoDropDINtNtB1k_10punctuated9IterTraitNtNtB1k_4data7VariantEp4ItemRB2l_EL_EEECsiK7Gs1zPIjf_14thiserror_impl, symObjAddr: 0x1580, symBinAddr: 0x5E0C0, symSize: 0x20 }
  - { offset: 0x12AF8F, size: 0x8, addend: 0x0, symName: __RINvNtCsieiGu2EXtoJ_4core3ptr13drop_in_placeINtNtCslJiobkLta79_5alloc5boxed3BoxINtNtCsdGrGZaRBwMb_3syn5drops6NoDropDINtNtB1k_10punctuated9IterTraitNtNtB1k_4path15GenericArgumentEp4ItemRB2l_EL_EEECsiK7Gs1zPIjf_14thiserror_impl, symObjAddr: 0x15A0, symBinAddr: 0x5E0E0, symSize: 0x20 }
  - { offset: 0x12AFBE, size: 0x8, addend: 0x0, symName: __RINvNtCsieiGu2EXtoJ_4core3ptr13drop_in_placeINtNtCslJiobkLta79_5alloc5boxed3BoxINtNtCsdGrGZaRBwMb_3syn5drops6NoDropDINtNtB1k_10punctuated9IterTraitNtNtB1k_8generics12GenericParamEp4ItemRB2l_EL_EEECsiK7Gs1zPIjf_14thiserror_impl, symObjAddr: 0x15C0, symBinAddr: 0x5E100, symSize: 0x20 }
  - { offset: 0x12AFED, size: 0x8, addend: 0x0, symName: __RINvNtCsieiGu2EXtoJ_4core3ptr13drop_in_placeINtNtCslJiobkLta79_5alloc5boxed3BoxINtNtNtNtBL_11collections5btree4node12InternalNodeNtNtBL_6string6StringNtNtB1k_7set_val9SetValZSTEEECsiK7Gs1zPIjf_14thiserror_impl, symObjAddr: 0x15E0, symBinAddr: 0x5E120, symSize: 0x20 }
  - { offset: 0x12B01C, size: 0x8, addend: 0x0, symName: __RINvNtCsieiGu2EXtoJ_4core3ptr13drop_in_placeINtNtCslJiobkLta79_5alloc5boxed3BoxINtNtNtNtBL_11collections5btree4node12InternalNodeNtNtBL_6string6StringTINtNtB1k_3set8BTreeSetB23_EINtNtCsdGrGZaRBwMb_3syn10punctuated10PunctuatedNtCsaKzlTDPUHDb_11proc_macro211TokenStreamNtNtB2V_5token4PlusEEEEECsiK7Gs1zPIjf_14thiserror_impl, symObjAddr: 0x1600, symBinAddr: 0x5E140, symSize: 0x20 }
  - { offset: 0x12B04B, size: 0x8, addend: 0x0, symName: __RINvNtCsieiGu2EXtoJ_4core3ptr13drop_in_placeINtNtCslJiobkLta79_5alloc5boxed3BoxINtNtNtNtBL_11collections5btree4node12InternalNodeNtNtCsiK7Gs1zPIjf_14thiserror_impl5unraw10IdentUnrawNtNtB1k_7set_val9SetValZSTEEEB27_, symObjAddr: 0x1620, symBinAddr: 0x5E160, symSize: 0x20 }
  - { offset: 0x12B07A, size: 0x8, addend: 0x0, symName: __RINvNtCsieiGu2EXtoJ_4core3ptr13drop_in_placeINtNtCslJiobkLta79_5alloc5boxed3BoxINtNtNtNtBL_11collections5btree4node12InternalNodeTjNtNtCsiK7Gs1zPIjf_14thiserror_impl4attr5TraitENtNtB1k_7set_val9SetValZSTEEEB29_, symObjAddr: 0x1660, symBinAddr: 0x5E180, symSize: 0x20 }
  - { offset: 0x12B0A9, size: 0x8, addend: 0x0, symName: __RINvNtCsieiGu2EXtoJ_4core3ptr13drop_in_placeINtNtCslJiobkLta79_5alloc5boxed3BoxINtNtNtNtBL_11collections5btree4node8LeafNodeNtNtBL_6string6StringNtNtB1k_7set_val9SetValZSTEEECsiK7Gs1zPIjf_14thiserror_impl, symObjAddr: 0x1680, symBinAddr: 0x5E1A0, symSize: 0x20 }
  - { offset: 0x12B0D8, size: 0x8, addend: 0x0, symName: __RINvNtCsieiGu2EXtoJ_4core3ptr13drop_in_placeINtNtCslJiobkLta79_5alloc5boxed3BoxINtNtNtNtBL_11collections5btree4node8LeafNodeNtNtBL_6string6StringTINtNtB1k_3set8BTreeSetB1Y_EINtNtCsdGrGZaRBwMb_3syn10punctuated10PunctuatedNtCsaKzlTDPUHDb_11proc_macro211TokenStreamNtNtB2Q_5token4PlusEEEEECsiK7Gs1zPIjf_14thiserror_impl, symObjAddr: 0x16A0, symBinAddr: 0x5E1C0, symSize: 0x20 }
  - { offset: 0x12B107, size: 0x8, addend: 0x0, symName: __RINvNtCsieiGu2EXtoJ_4core3ptr13drop_in_placeINtNtCslJiobkLta79_5alloc5boxed3BoxINtNtNtNtBL_11collections5btree4node8LeafNodeNtNtCsiK7Gs1zPIjf_14thiserror_impl5unraw10IdentUnrawNtNtB1k_7set_val9SetValZSTEEEB22_, symObjAddr: 0x16C0, symBinAddr: 0x5E1E0, symSize: 0x20 }
  - { offset: 0x12B136, size: 0x8, addend: 0x0, symName: __RINvNtCsieiGu2EXtoJ_4core3ptr13drop_in_placeINtNtCslJiobkLta79_5alloc5boxed3BoxINtNtNtNtBL_11collections5btree4node8LeafNodeTjNtNtCsiK7Gs1zPIjf_14thiserror_impl4attr5TraitENtNtB1k_7set_val9SetValZSTEEEB24_, symObjAddr: 0x16E0, symBinAddr: 0x5E200, symSize: 0x20 }
  - { offset: 0x12B165, size: 0x8, addend: 0x0, symName: __RINvNtCsieiGu2EXtoJ_4core3ptr13drop_in_placeINtNtCslJiobkLta79_5alloc5boxed3BoxNtCsaKzlTDPUHDb_11proc_macro211TokenStreamEECsiK7Gs1zPIjf_14thiserror_impl, symObjAddr: 0x1700, symBinAddr: 0x5E220, symSize: 0x50 }
  - { offset: 0x12B194, size: 0x8, addend: 0x0, symName: __RINvNtCsieiGu2EXtoJ_4core3ptr13drop_in_placeINtNtCslJiobkLta79_5alloc5boxed3BoxNtNtNtCsHUR1vrdMJt_3std2io5error6CustomEECsiK7Gs1zPIjf_14thiserror_impl, symObjAddr: 0x1750, symBinAddr: 0x5E270, symSize: 0x50 }
  - { offset: 0x12B1C3, size: 0x8, addend: 0x0, symName: __RINvNtCsieiGu2EXtoJ_4core3ptr13drop_in_placeINtNtCslJiobkLta79_5alloc7raw_vec6RawVecNtCsaKzlTDPUHDb_11proc_macro211TokenStreamEECsiK7Gs1zPIjf_14thiserror_impl, symObjAddr: 0x17A0, symBinAddr: 0x5E2C0, symSize: 0x20 }
  - { offset: 0x12B1F2, size: 0x8, addend: 0x0, symName: __RINvNtCsieiGu2EXtoJ_4core3ptr13drop_in_placeINtNtCslJiobkLta79_5alloc7raw_vec6RawVecNtNtCsiK7Gs1zPIjf_14thiserror_impl3ast5FieldEEB1o_, symObjAddr: 0x17C0, symBinAddr: 0x5E2E0, symSize: 0x20 }
  - { offset: 0x12B221, size: 0x8, addend: 0x0, symName: __RINvNtCsieiGu2EXtoJ_4core3ptr13drop_in_placeINtNtCslJiobkLta79_5alloc7raw_vec6RawVecNtNtCsiK7Gs1zPIjf_14thiserror_impl3ast7VariantEEB1o_, symObjAddr: 0x17E0, symBinAddr: 0x5E300, symSize: 0x20 }
  - { offset: 0x12B250, size: 0x8, addend: 0x0, symName: __RINvNtCsieiGu2EXtoJ_4core3ptr13drop_in_placeINtNtCslJiobkLta79_5alloc7raw_vec6RawVecRNtCsaKzlTDPUHDb_11proc_macro25IdentEECsiK7Gs1zPIjf_14thiserror_impl, symObjAddr: 0x1800, symBinAddr: 0x5E320, symSize: 0x20 }
  - { offset: 0x12B27F, size: 0x8, addend: 0x0, symName: __RINvNtCsieiGu2EXtoJ_4core3ptr13drop_in_placeINtNtCslJiobkLta79_5alloc7raw_vec6RawVecTNtCsaKzlTDPUHDb_11proc_macro211TokenStreamNtNtCsdGrGZaRBwMb_3syn5token4PlusEEECsiK7Gs1zPIjf_14thiserror_impl, symObjAddr: 0x1820, symBinAddr: 0x5E340, symSize: 0x20 }
  - { offset: 0x12B2AE, size: 0x8, addend: 0x0, symName: __RINvNtCsieiGu2EXtoJ_4core3ptr13drop_in_placeINtNtCslJiobkLta79_5alloc7raw_vec6RawVecTNtCsaKzlTDPUHDb_11proc_macro25IdentNtB1n_11TokenStreamEEECsiK7Gs1zPIjf_14thiserror_impl, symObjAddr: 0x1840, symBinAddr: 0x5E360, symSize: 0x20 }
  - { offset: 0x12B2DD, size: 0x8, addend: 0x0, symName: __RINvNtCsieiGu2EXtoJ_4core3ptr13drop_in_placeINtNtNtB4_3ops12control_flow11ControlFlowIBH_NtNtCsiK7Gs1zPIjf_14thiserror_impl3ast5FieldEEEB1t_, symObjAddr: 0x1860, symBinAddr: 0x5E380, symSize: 0x40 }
  - { offset: 0x12B30C, size: 0x8, addend: 0x0, symName: __RINvNtCsieiGu2EXtoJ_4core3ptr13drop_in_placeINtNtNtB4_3ops12control_flow11ControlFlowNtNtCsiK7Gs1zPIjf_14thiserror_impl3ast5FieldEEB1p_, symObjAddr: 0x18A0, symBinAddr: 0x5E3C0, symSize: 0x40 }
  - { offset: 0x12B33B, size: 0x8, addend: 0x0, symName: __RINvNtCsieiGu2EXtoJ_4core3ptr13drop_in_placeINtNtNtB4_3ops12control_flow11ControlFlowNtNtCsiK7Gs1zPIjf_14thiserror_impl3ast7VariantEEB1p_, symObjAddr: 0x18E0, symBinAddr: 0x5E400, symSize: 0x40 }
  - { offset: 0x12B36A, size: 0x8, addend: 0x0, symName: __RINvNtCsieiGu2EXtoJ_4core3ptr13drop_in_placeINtNtNtB4_4iter8adapters12GenericShuntINtNtBJ_3map3MapINtNtBJ_9enumerate9EnumerateINtNtCsdGrGZaRBwMb_3syn10punctuated4IterNtNtB25_4data5FieldEENCNvMs2_NtCsiK7Gs1zPIjf_14thiserror_impl3astNtB37_5Field17multiple_from_syn0EINtNtB4_6result6ResultNtNtB4_7convert10InfallibleNtNtB25_5error5ErrorEEEB39_, symObjAddr: 0x1920, symBinAddr: 0x5E440, symSize: 0x20 }
  - { offset: 0x12B399, size: 0x8, addend: 0x0, symName: __RINvNtCsieiGu2EXtoJ_4core3ptr13drop_in_placeINtNtNtB4_4iter8adapters12GenericShuntINtNtBJ_3map3MapINtNtCsdGrGZaRBwMb_3syn10punctuated4IterNtNtB1D_4data7VariantENCNvMs0_NtCsiK7Gs1zPIjf_14thiserror_impl3astNtB2G_4Enum8from_syn0EINtNtB4_6result6ResultNtNtB4_7convert10InfallibleNtNtB1D_5error5ErrorEEEB2I_, symObjAddr: 0x1940, symBinAddr: 0x5E460, symSize: 0x20 }
  - { offset: 0x12B3C8, size: 0x8, addend: 0x0, symName: __RINvNtCsieiGu2EXtoJ_4core3ptr13drop_in_placeINtNtNtB4_5array4iter8IntoIterjKj2_EECsiK7Gs1zPIjf_14thiserror_impl, symObjAddr: 0x1960, symBinAddr: 0x5E480, symSize: 0x50 }
  - { offset: 0x12B3F7, size: 0x8, addend: 0x0, symName: __RINvNtCsieiGu2EXtoJ_4core3ptr13drop_in_placeINtNtNtCsHUR1vrdMJt_3std2io5error9ErrorDataINtNtCslJiobkLta79_5alloc5boxed3BoxNtBJ_6CustomEEECsiK7Gs1zPIjf_14thiserror_impl, symObjAddr: 0x19B0, symBinAddr: 0x5E4D0, symSize: 0x30 }
  - { offset: 0x12B426, size: 0x8, addend: 0x0, symName: __RINvNtCsieiGu2EXtoJ_4core3ptr13drop_in_placeINtNtNtCslJiobkLta79_5alloc3vec9into_iter8IntoIterRNtCsaKzlTDPUHDb_11proc_macro25IdentEECsiK7Gs1zPIjf_14thiserror_impl, symObjAddr: 0x19E0, symBinAddr: 0x5E500, symSize: 0x20 }
  - { offset: 0x12B455, size: 0x8, addend: 0x0, symName: __RINvNtCsieiGu2EXtoJ_4core3ptr13drop_in_placeINtNtNtNtB4_4iter8adapters3map3MapINtNtBL_9enumerate9EnumerateINtNtCsdGrGZaRBwMb_3syn10punctuated4IterNtNtB1L_4data5FieldEENCNvMs2_NtCsiK7Gs1zPIjf_14thiserror_impl3astNtB2N_5Field17multiple_from_syn0EEB2P_, symObjAddr: 0x1A00, symBinAddr: 0x5E520, symSize: 0x20 }
  - { offset: 0x12B484, size: 0x8, addend: 0x0, symName: __RINvNtCsieiGu2EXtoJ_4core3ptr13drop_in_placeINtNtNtNtB4_4iter8adapters3map3MapINtNtCsdGrGZaRBwMb_3syn10punctuated4IterNtNtB1j_4data7VariantENCNvMs0_NtCsiK7Gs1zPIjf_14thiserror_impl3astNtB2m_4Enum8from_syn0EEB2o_, symObjAddr: 0x1A20, symBinAddr: 0x5E540, symSize: 0x20 }
  - { offset: 0x12B4B3, size: 0x8, addend: 0x0, symName: __RINvNtCsieiGu2EXtoJ_4core3ptr13drop_in_placeINtNtNtNtB4_4iter8adapters3map3MapINtNtNtCslJiobkLta79_5alloc3vec9into_iter8IntoIterNtCsaKzlTDPUHDb_11proc_macro29TokenTreeENvNtB24_3imp19into_compiler_tokenEECsiK7Gs1zPIjf_14thiserror_impl, symObjAddr: 0x1A40, symBinAddr: 0x5E560, symSize: 0x20 }
  - { offset: 0x12B4E2, size: 0x8, addend: 0x0, symName: __RINvNtCsieiGu2EXtoJ_4core3ptr13drop_in_placeINtNtNtNtB4_4iter8adapters3map3MapINtNtNtCslJiobkLta79_5alloc3vec9into_iter8IntoIterRNtCsaKzlTDPUHDb_11proc_macro25IdentENCINvMse_NtNtNtB1l_11collections5btree3setINtB2M_8BTreeSetB22_E16from_sorted_iterB1e_E0EECsiK7Gs1zPIjf_14thiserror_impl, symObjAddr: 0x1A60, symBinAddr: 0x5E580, symSize: 0x20 }
  - { offset: 0x12B511, size: 0x8, addend: 0x0, symName: __RINvNtCsieiGu2EXtoJ_4core3ptr13drop_in_placeINtNtNtNtB4_4iter8adapters3map3MapNtNtCsdGrGZaRBwMb_3syn8generics10TypeParamsNCNvMNtCsiK7Gs1zPIjf_14thiserror_impl8genericsNtB20_13ParamsInScope3new0EEB22_, symObjAddr: 0x1A80, symBinAddr: 0x5E5A0, symSize: 0x20 }
  - { offset: 0x12B540, size: 0x8, addend: 0x0, symName: __RINvNtCsieiGu2EXtoJ_4core3ptr13drop_in_placeINtNtNtNtB4_4iter8adapters8peekable8PeekableINtNtBL_3map3MapINtNtNtCslJiobkLta79_5alloc3vec9into_iter8IntoIterRNtCsaKzlTDPUHDb_11proc_macro25IdentENCINvMse_NtNtNtB1L_11collections5btree3setINtB3c_8BTreeSetB2s_E16from_sorted_iterB1E_E0EEECsiK7Gs1zPIjf_14thiserror_impl, symObjAddr: 0x1AA0, symBinAddr: 0x5E5C0, symSize: 0x20 }
  - { offset: 0x12B56F, size: 0x8, addend: 0x0, symName: __RINvNtCsieiGu2EXtoJ_4core3ptr13drop_in_placeINtNtNtNtB4_4iter8adapters9enumerate9EnumerateINtNtCsdGrGZaRBwMb_3syn10punctuated4IterNtNtB1v_4data5FieldEEECsiK7Gs1zPIjf_14thiserror_impl, symObjAddr: 0x1AC0, symBinAddr: 0x5E5E0, symSize: 0x20 }
  - { offset: 0x12B59E, size: 0x8, addend: 0x0, symName: __RINvNtCsieiGu2EXtoJ_4core3ptr13drop_in_placeINtNtNtNtB4_5array4iter10iter_inner15PolymorphicIterAINtNtNtB4_3mem12maybe_uninit11MaybeUninitjEj2_EECsiK7Gs1zPIjf_14thiserror_impl, symObjAddr: 0x1AE0, symBinAddr: 0x5E600, symSize: 0x20 }
  - { offset: 0x12B5CD, size: 0x8, addend: 0x0, symName: __RINvNtCsieiGu2EXtoJ_4core3ptr13drop_in_placeINtNtNtNtCsHUR1vrdMJt_3std11collections4hash3map7HashMapRNtNtCsiK7Gs1zPIjf_14thiserror_impl5unraw11MemberUnrawjEEB1F_, symObjAddr: 0x1B00, symBinAddr: 0x5E620, symSize: 0x20 }
  - { offset: 0x12B5FC, size: 0x8, addend: 0x0, symName: __RINvNtCsieiGu2EXtoJ_4core3ptr13drop_in_placeINtNtNtNtCslJiobkLta79_5alloc11collections5btree17dedup_sorted_iter15DedupSortedIterRNtCsaKzlTDPUHDb_11proc_macro25IdentNtNtBL_7set_val9SetValZSTINtNtNtNtB4_4iter8adapters3map3MapINtNtNtBP_3vec9into_iter8IntoIterB22_ENCINvMse_NtBL_3setINtB4k_8BTreeSetB22_E16from_sorted_iterB3z_E0EEECsiK7Gs1zPIjf_14thiserror_impl, symObjAddr: 0x1B20, symBinAddr: 0x5E640, symSize: 0x20 }
  - { offset: 0x12B62B, size: 0x8, addend: 0x0, symName: __RINvNtCsieiGu2EXtoJ_4core3ptr13drop_in_placeINtNtNtNtCslJiobkLta79_5alloc11collections5btree3map8BTreeMapNtNtBP_6string6StringNtNtBL_7set_val9SetValZSTEECsiK7Gs1zPIjf_14thiserror_impl, symObjAddr: 0x1B40, symBinAddr: 0x5E660, symSize: 0x20 }
  - { offset: 0x12B65A, size: 0x8, addend: 0x0, symName: __RINvNtCsieiGu2EXtoJ_4core3ptr13drop_in_placeINtNtNtNtCslJiobkLta79_5alloc11collections5btree3map8BTreeMapNtNtBP_6string6StringTINtNtBL_3set8BTreeSetB1F_EINtNtCsdGrGZaRBwMb_3syn10punctuated10PunctuatedNtCsaKzlTDPUHDb_11proc_macro211TokenStreamNtNtB2w_5token4PlusEEEECsiK7Gs1zPIjf_14thiserror_impl, symObjAddr: 0x1B60, symBinAddr: 0x5E680, symSize: 0x20 }
  - { offset: 0x12B689, size: 0x8, addend: 0x0, symName: __RINvNtCsieiGu2EXtoJ_4core3ptr13drop_in_placeINtNtNtNtCslJiobkLta79_5alloc11collections5btree3map8BTreeMapNtNtCsiK7Gs1zPIjf_14thiserror_impl5unraw10IdentUnrawNtNtBL_7set_val9SetValZSTEEB1J_, symObjAddr: 0x1B80, symBinAddr: 0x5E6A0, symSize: 0x20 }
  - { offset: 0x12B6B8, size: 0x8, addend: 0x0, symName: __RINvNtCsieiGu2EXtoJ_4core3ptr13drop_in_placeINtNtNtNtCslJiobkLta79_5alloc11collections5btree3map8BTreeMapRNtCsaKzlTDPUHDb_11proc_macro25IdentNtNtBL_7set_val9SetValZSTEECsiK7Gs1zPIjf_14thiserror_impl, symObjAddr: 0x1BA0, symBinAddr: 0x5E6C0, symSize: 0x20 }
  - { offset: 0x12B6E7, size: 0x8, addend: 0x0, symName: __RINvNtCsieiGu2EXtoJ_4core3ptr13drop_in_placeINtNtNtNtCslJiobkLta79_5alloc11collections5btree3map8BTreeMapTjNtNtCsiK7Gs1zPIjf_14thiserror_impl4attr5TraitENtNtBL_7set_val9SetValZSTEEB1L_, symObjAddr: 0x1BC0, symBinAddr: 0x5E6E0, symSize: 0x20 }
  - { offset: 0x12B716, size: 0x8, addend: 0x0, symName: __RINvNtCsieiGu2EXtoJ_4core3ptr13drop_in_placeINtNtNtNtCslJiobkLta79_5alloc11collections5btree3map8IntoIterNtNtBP_6string6StringNtNtBL_7set_val9SetValZSTEECsiK7Gs1zPIjf_14thiserror_impl, symObjAddr: 0x1BE0, symBinAddr: 0x5E700, symSize: 0x20 }
  - { offset: 0x12B745, size: 0x8, addend: 0x0, symName: __RINvNtCsieiGu2EXtoJ_4core3ptr13drop_in_placeINtNtNtNtCslJiobkLta79_5alloc11collections5btree3map8IntoIterNtNtBP_6string6StringTINtNtBL_3set8BTreeSetB1F_EINtNtCsdGrGZaRBwMb_3syn10punctuated10PunctuatedNtCsaKzlTDPUHDb_11proc_macro211TokenStreamNtNtB2w_5token4PlusEEEECsiK7Gs1zPIjf_14thiserror_impl, symObjAddr: 0x1C00, symBinAddr: 0x5E720, symSize: 0x20 }
  - { offset: 0x12B774, size: 0x8, addend: 0x0, symName: __RINvNtCsieiGu2EXtoJ_4core3ptr13drop_in_placeINtNtNtNtCslJiobkLta79_5alloc11collections5btree3map8IntoIterNtNtCsiK7Gs1zPIjf_14thiserror_impl5unraw10IdentUnrawNtNtBL_7set_val9SetValZSTEEB1J_, symObjAddr: 0x1C20, symBinAddr: 0x5E740, symSize: 0x20 }
  - { offset: 0x12B7A3, size: 0x8, addend: 0x0, symName: __RINvNtCsieiGu2EXtoJ_4core3ptr13drop_in_placeINtNtNtNtCslJiobkLta79_5alloc11collections5btree3map8IntoIterRNtCsaKzlTDPUHDb_11proc_macro25IdentNtNtBL_7set_val9SetValZSTEECsiK7Gs1zPIjf_14thiserror_impl, symObjAddr: 0x1C40, symBinAddr: 0x5E760, symSize: 0x20 }
  - { offset: 0x12B7D2, size: 0x8, addend: 0x0, symName: __RINvNtCsieiGu2EXtoJ_4core3ptr13drop_in_placeINtNtNtNtCslJiobkLta79_5alloc11collections5btree3map8IntoIterTjNtNtCsiK7Gs1zPIjf_14thiserror_impl4attr5TraitENtNtBL_7set_val9SetValZSTEEB1L_, symObjAddr: 0x1C60, symBinAddr: 0x5E780, symSize: 0x20 }
  - { offset: 0x12B801, size: 0x8, addend: 0x0, symName: __RINvNtCsieiGu2EXtoJ_4core3ptr13drop_in_placeINtNtNtNtCslJiobkLta79_5alloc11collections5btree3set8BTreeSetNtNtBP_6string6StringEECsiK7Gs1zPIjf_14thiserror_impl, symObjAddr: 0x1C80, symBinAddr: 0x5E7A0, symSize: 0x20 }
  - { offset: 0x12B830, size: 0x8, addend: 0x0, symName: __RINvNtCsieiGu2EXtoJ_4core3ptr13drop_in_placeINtNtNtNtCslJiobkLta79_5alloc11collections5btree3set8BTreeSetNtNtCsiK7Gs1zPIjf_14thiserror_impl5unraw10IdentUnrawEEB1J_, symObjAddr: 0x1CA0, symBinAddr: 0x5E7C0, symSize: 0x20 }
  - { offset: 0x12B85F, size: 0x8, addend: 0x0, symName: __RINvNtCsieiGu2EXtoJ_4core3ptr13drop_in_placeINtNtNtNtCslJiobkLta79_5alloc11collections5btree3set8BTreeSetRNtCsaKzlTDPUHDb_11proc_macro25IdentEECsiK7Gs1zPIjf_14thiserror_impl, symObjAddr: 0x1CC0, symBinAddr: 0x5E7E0, symSize: 0x20 }
  - { offset: 0x12B88E, size: 0x8, addend: 0x0, symName: __RINvNtCsieiGu2EXtoJ_4core3ptr13drop_in_placeINtNtNtNtCslJiobkLta79_5alloc11collections5btree3set8BTreeSetTjNtNtCsiK7Gs1zPIjf_14thiserror_impl4attr5TraitEEEB1L_, symObjAddr: 0x1CE0, symBinAddr: 0x5E800, symSize: 0x20 }
  - { offset: 0x12B8BD, size: 0x8, addend: 0x0, symName: __RINvNtCsieiGu2EXtoJ_4core3ptr13drop_in_placeINtNtNtNtCslJiobkLta79_5alloc11collections5btree3set8IntoIterTjNtNtCsiK7Gs1zPIjf_14thiserror_impl4attr5TraitEEEB1L_, symObjAddr: 0x1D00, symBinAddr: 0x5E820, symSize: 0x20 }
  - { offset: 0x12B8EC, size: 0x8, addend: 0x0, symName: __RINvNtCsieiGu2EXtoJ_4core3ptr13drop_in_placeINtNtNtNtCslJiobkLta79_5alloc11collections5btree4node11SplitResultNtNtBP_6string6StringNtNtBL_7set_val9SetValZSTNtNtBJ_6marker4LeafEECsiK7Gs1zPIjf_14thiserror_impl, symObjAddr: 0x1D20, symBinAddr: 0x5E840, symSize: 0x20 }
  - { offset: 0x12B91B, size: 0x8, addend: 0x0, symName: __RINvNtCsieiGu2EXtoJ_4core3ptr13drop_in_placeINtNtNtNtCslJiobkLta79_5alloc11collections5btree4node11SplitResultNtNtBP_6string6StringNtNtBL_7set_val9SetValZSTNtNtBJ_6marker8InternalEECsiK7Gs1zPIjf_14thiserror_impl, symObjAddr: 0x1D40, symBinAddr: 0x5E860, symSize: 0x20 }
  - { offset: 0x12B94A, size: 0x8, addend: 0x0, symName: __RINvNtCsieiGu2EXtoJ_4core3ptr13drop_in_placeINtNtNtNtCslJiobkLta79_5alloc11collections5btree4node11SplitResultNtNtBP_6string6StringTINtNtBL_3set8BTreeSetB1K_EINtNtCsdGrGZaRBwMb_3syn10punctuated10PunctuatedNtCsaKzlTDPUHDb_11proc_macro211TokenStreamNtNtB2B_5token4PlusEENtNtBJ_6marker4LeafEECsiK7Gs1zPIjf_14thiserror_impl, symObjAddr: 0x1D60, symBinAddr: 0x5E880, symSize: 0x20 }
  - { offset: 0x12B979, size: 0x8, addend: 0x0, symName: __RINvNtCsieiGu2EXtoJ_4core3ptr13drop_in_placeINtNtNtNtCslJiobkLta79_5alloc11collections5btree4node11SplitResultNtNtBP_6string6StringTINtNtBL_3set8BTreeSetB1K_EINtNtCsdGrGZaRBwMb_3syn10punctuated10PunctuatedNtCsaKzlTDPUHDb_11proc_macro211TokenStreamNtNtB2B_5token4PlusEENtNtBJ_6marker8InternalEECsiK7Gs1zPIjf_14thiserror_impl, symObjAddr: 0x1D80, symBinAddr: 0x5E8A0, symSize: 0x20 }
  - { offset: 0x12B9A8, size: 0x8, addend: 0x0, symName: __RINvNtCsieiGu2EXtoJ_4core3ptr13drop_in_placeINtNtNtNtCslJiobkLta79_5alloc11collections5btree4node11SplitResultNtNtCsiK7Gs1zPIjf_14thiserror_impl5unraw10IdentUnrawNtNtBL_7set_val9SetValZSTNtNtBJ_6marker4LeafEEB1O_, symObjAddr: 0x1DA0, symBinAddr: 0x5E8C0, symSize: 0x20 }
  - { offset: 0x12B9D7, size: 0x8, addend: 0x0, symName: __RINvNtCsieiGu2EXtoJ_4core3ptr13drop_in_placeINtNtNtNtCslJiobkLta79_5alloc11collections5btree4node11SplitResultNtNtCsiK7Gs1zPIjf_14thiserror_impl5unraw10IdentUnrawNtNtBL_7set_val9SetValZSTNtNtBJ_6marker8InternalEEB1O_, symObjAddr: 0x1DC0, symBinAddr: 0x5E8E0, symSize: 0x20 }
  - { offset: 0x12BA06, size: 0x8, addend: 0x0, symName: __RINvNtCsieiGu2EXtoJ_4core3ptr13drop_in_placeINtNtNtNtNtB4_5slice4sort6shared9smallsort10CopyOnDropRNtCsaKzlTDPUHDb_11proc_macro25IdentEECsiK7Gs1zPIjf_14thiserror_impl, symObjAddr: 0x1DE0, symBinAddr: 0x5E900, symSize: 0x20 }
  - { offset: 0x12BA35, size: 0x8, addend: 0x0, symName: __RINvNtCsieiGu2EXtoJ_4core3ptr13drop_in_placeINtNtNtNtNtB4_5slice4sort6stable5merge10MergeStateRNtCsaKzlTDPUHDb_11proc_macro25IdentEECsiK7Gs1zPIjf_14thiserror_impl, symObjAddr: 0x1E00, symBinAddr: 0x5E920, symSize: 0x20 }
  - { offset: 0x12BA64, size: 0x8, addend: 0x0, symName: __RINvNtCsieiGu2EXtoJ_4core3ptr13drop_in_placeINtNtNtNtNtCslJiobkLta79_5alloc11collections5btree3map5entry11VacantEntryNtNtBR_6string6StringTINtNtBN_3set8BTreeSetB1R_EINtNtCsdGrGZaRBwMb_3syn10punctuated10PunctuatedNtCsaKzlTDPUHDb_11proc_macro211TokenStreamNtNtB2I_5token4PlusEEEECsiK7Gs1zPIjf_14thiserror_impl, symObjAddr: 0x1E20, symBinAddr: 0x5E940, symSize: 0x20 }
  - { offset: 0x12BA93, size: 0x8, addend: 0x0, symName: __RINvNtCsieiGu2EXtoJ_4core3ptr13drop_in_placeINtNtNtNtNtCslJiobkLta79_5alloc11collections5btree3map5entry5EntryNtNtBR_6string6StringTINtNtBN_3set8BTreeSetB1K_EINtNtCsdGrGZaRBwMb_3syn10punctuated10PunctuatedNtCsaKzlTDPUHDb_11proc_macro211TokenStreamNtNtB2B_5token4PlusEEEECsiK7Gs1zPIjf_14thiserror_impl, symObjAddr: 0x1E40, symBinAddr: 0x5E960, symSize: 0x40 }
  - { offset: 0x12BAC2, size: 0x8, addend: 0x0, symName: __RINvNtCsieiGu2EXtoJ_4core3ptr13drop_in_placeINtNvMsT_NtNtNtCslJiobkLta79_5alloc11collections5btree4nodeINtBP_6HandleINtBP_7NodeRefNtNtBP_6marker5DyingpppENtB26_2KVE12drop_key_val7DropperNtNtBR_7set_val9SetValZSTEECsiK7Gs1zPIjf_14thiserror_impl, symObjAddr: 0x1E80, symBinAddr: 0x5E9A0, symSize: 0x20 }
  - { offset: 0x12BAF1, size: 0x8, addend: 0x0, symName: __RINvNtCsieiGu2EXtoJ_4core3ptr13drop_in_placeINtNvMsT_NtNtNtCslJiobkLta79_5alloc11collections5btree4nodeINtBP_6HandleINtBP_7NodeRefNtNtBP_6marker5DyingpppENtB26_2KVE12drop_key_val7DropperTINtNtBR_3set8BTreeSetNtNtBV_6string6StringEINtNtCsdGrGZaRBwMb_3syn10punctuated10PunctuatedNtCsaKzlTDPUHDb_11proc_macro211TokenStreamNtNtB3L_5token4PlusEEEECsiK7Gs1zPIjf_14thiserror_impl, symObjAddr: 0x1EA0, symBinAddr: 0x5E9C0, symSize: 0x20 }
  - { offset: 0x12BB20, size: 0x8, addend: 0x0, symName: __RINvNtCsieiGu2EXtoJ_4core3ptr13drop_in_placeINtNvXNvMNtCslJiobkLta79_5alloc5sliceSp9to_vec_inpNtBM_10ConvertVec6to_vec9DropGuardTNtCsaKzlTDPUHDb_11proc_macro25IdentNtB25_11TokenStreamENtNtBR_5alloc6GlobalEECsiK7Gs1zPIjf_14thiserror_impl, symObjAddr: 0x1EE0, symBinAddr: 0x5E9E0, symSize: 0x20 }
  - { offset: 0x12BB4F, size: 0x8, addend: 0x0, symName: __RINvNtCsieiGu2EXtoJ_4core3ptr13drop_in_placeINtNvXsd_NtNtCslJiobkLta79_5alloc3vec9into_iterINtBP_8IntoIterppENtNtNtB4_3ops4drop4Drop4drop9DropGuardRNtCsaKzlTDPUHDb_11proc_macro25IdentNtNtBT_5alloc6GlobalEECsiK7Gs1zPIjf_14thiserror_impl, symObjAddr: 0x1F00, symBinAddr: 0x5EA00, symSize: 0x20 }
  - { offset: 0x12BB7E, size: 0x8, addend: 0x0, symName: __RINvNtCsieiGu2EXtoJ_4core3ptr13drop_in_placeINtNvXsw_NtNtNtCslJiobkLta79_5alloc11collections5btree3mapINtBP_8IntoIterpppENtNtNtB4_3ops4drop4Drop4drop9DropGuardNtNtBV_6string6StringNtNtBR_7set_val9SetValZSTNtNtBV_5alloc6GlobalEECsiK7Gs1zPIjf_14thiserror_impl, symObjAddr: 0x1F20, symBinAddr: 0x5EA20, symSize: 0x20 }
  - { offset: 0x12BBAD, size: 0x8, addend: 0x0, symName: __RINvNtCsieiGu2EXtoJ_4core3ptr13drop_in_placeINtNvXsw_NtNtNtCslJiobkLta79_5alloc11collections5btree3mapINtBP_8IntoIterpppENtNtNtB4_3ops4drop4Drop4drop9DropGuardNtNtBV_6string6StringTINtNtBR_3set8BTreeSetB2x_EINtNtCsdGrGZaRBwMb_3syn10punctuated10PunctuatedNtCsaKzlTDPUHDb_11proc_macro211TokenStreamNtNtB3o_5token4PlusEENtNtBV_5alloc6GlobalEECsiK7Gs1zPIjf_14thiserror_impl, symObjAddr: 0x1F40, symBinAddr: 0x5EA40, symSize: 0x20 }
  - { offset: 0x12BBDC, size: 0x8, addend: 0x0, symName: __RINvNtCsieiGu2EXtoJ_4core3ptr13drop_in_placeINtNvXsw_NtNtNtCslJiobkLta79_5alloc11collections5btree3mapINtBP_8IntoIterpppENtNtNtB4_3ops4drop4Drop4drop9DropGuardNtNtCsiK7Gs1zPIjf_14thiserror_impl5unraw10IdentUnrawNtNtBR_7set_val9SetValZSTNtNtBV_5alloc6GlobalEEB2B_, symObjAddr: 0x1F60, symBinAddr: 0x5EA60, symSize: 0x20 }
  - { offset: 0x12BC0B, size: 0x8, addend: 0x0, symName: __RINvNtCsieiGu2EXtoJ_4core3ptr13drop_in_placeINtNvXsw_NtNtNtCslJiobkLta79_5alloc11collections5btree3mapINtBP_8IntoIterpppENtNtNtB4_3ops4drop4Drop4drop9DropGuardRNtCsaKzlTDPUHDb_11proc_macro25IdentNtNtBR_7set_val9SetValZSTNtNtBV_5alloc6GlobalEECsiK7Gs1zPIjf_14thiserror_impl, symObjAddr: 0x1F80, symBinAddr: 0x5EA80, symSize: 0x20 }
  - { offset: 0x12BC3A, size: 0x8, addend: 0x0, symName: __RINvNtCsieiGu2EXtoJ_4core3ptr13drop_in_placeINtNvXsw_NtNtNtCslJiobkLta79_5alloc11collections5btree3mapINtBP_8IntoIterpppENtNtNtB4_3ops4drop4Drop4drop9DropGuardTjNtNtCsiK7Gs1zPIjf_14thiserror_impl4attr5TraitENtNtBR_7set_val9SetValZSTNtNtBV_5alloc6GlobalEEB2D_, symObjAddr: 0x1FA0, symBinAddr: 0x5EAA0, symSize: 0x20 }
  - { offset: 0x12BC69, size: 0x8, addend: 0x0, symName: __RINvNtCsieiGu2EXtoJ_4core3ptr13drop_in_placeNCINvMsi_NtCslJiobkLta79_5alloc3vecINtBP_3VecNtCsaKzlTDPUHDb_11proc_macro211TokenStreamE14extend_trustedINtNtNtNtB4_4iter8adapters3map3MapINtNtNtB4_5slice4iter4IterNtNtCsiK7Gs1zPIjf_14thiserror_impl3ast7VariantENCNvNtB3o_6expand9impl_enums1_0EE0EB3o_, symObjAddr: 0x1FC0, symBinAddr: 0x5EAC0, symSize: 0x20 }
  - { offset: 0x12BC98, size: 0x8, addend: 0x0, symName: __RINvNtCsieiGu2EXtoJ_4core3ptr13drop_in_placeNCINvNtNtNtB4_4iter8adapters3map8map_foldRNtNtCsiK7Gs1zPIjf_14thiserror_impl3ast7VariantNtCsaKzlTDPUHDb_11proc_macro211TokenStreamuNCNvNtB1q_6expand9impl_enums1_0NCINvNvNtNtNtBP_6traits8iterator8Iterator8for_each4callB26_NCINvMsi_NtCslJiobkLta79_5alloc3vecINtB4o_3VecB26_E14extend_trustedINtBL_3MapINtNtNtB4_5slice4iter4IterB1m_EB2N_EE0E0E0EB1q_, symObjAddr: 0x1FE0, symBinAddr: 0x5EAE0, symSize: 0x20 }
  - { offset: 0x12BCC7, size: 0x8, addend: 0x0, symName: __RINvNtCsieiGu2EXtoJ_4core3ptr13drop_in_placeNCINvNvNtNtNtNtB4_4iter6traits8iterator8Iterator8for_each4callNtCsaKzlTDPUHDb_11proc_macro211TokenStreamNCINvMsi_NtCslJiobkLta79_5alloc3vecINtB2v_3VecB1G_E14extend_trustedINtNtNtBT_8adapters3map3MapINtNtNtB4_5slice4iter4IterNtNtCsiK7Gs1zPIjf_14thiserror_impl3ast7VariantENCNvNtB4m_6expand9impl_enums1_0EE0E0EB4m_, symObjAddr: 0x2000, symBinAddr: 0x5EB00, symSize: 0x20 }
  - { offset: 0x12BCF6, size: 0x8, addend: 0x0, symName: __RINvNtCsieiGu2EXtoJ_4core3ptr13drop_in_placeNCNCINvNtNtCscKtU6MdFI5n_10proc_macro6bridge6client10run_clientNtBN_11TokenStreamINtNtB4_6option6OptionB1H_ENCNCINvMs6_BN_INtBN_6ClientNtBR_11TokenStreamB2R_E7expand1NvCsiK7Gs1zPIjf_14thiserror_impl12derive_errorE00E00EB3o_, symObjAddr: 0x2020, symBinAddr: 0x5EB20, symSize: 0x20 }
  - { offset: 0x12BD25, size: 0x8, addend: 0x0, symName: __RINvNtCsieiGu2EXtoJ_4core3ptr13drop_in_placeNCNvNtCsiK7Gs1zPIjf_14thiserror_impl6expand11impl_structs0_0EBM_, symObjAddr: 0x2040, symBinAddr: 0x5EB40, symSize: 0x20 }
  - { offset: 0x12BD54, size: 0x8, addend: 0x0, symName: __RINvNtCsieiGu2EXtoJ_4core3ptr13drop_in_placeNtNtCsdGrGZaRBwMb_3syn6derive11DeriveInputECsiK7Gs1zPIjf_14thiserror_impl, symObjAddr: 0x2060, symBinAddr: 0x5EB60, symSize: 0xF0 }
  - { offset: 0x12BD83, size: 0x8, addend: 0x0, symName: __RINvNtCsieiGu2EXtoJ_4core3ptr13drop_in_placeNtNtCsdGrGZaRBwMb_3syn8generics10TypeParamsECsiK7Gs1zPIjf_14thiserror_impl, symObjAddr: 0x2150, symBinAddr: 0x5EC50, symSize: 0x20 }
  - { offset: 0x12BDB2, size: 0x8, addend: 0x0, symName: __RINvNtCsieiGu2EXtoJ_4core3ptr13drop_in_placeNtNtCsdGrGZaRBwMb_3syn8generics9LifetimesECsiK7Gs1zPIjf_14thiserror_impl, symObjAddr: 0x2170, symBinAddr: 0x5EC70, symSize: 0x20 }
  - { offset: 0x12BDE1, size: 0x8, addend: 0x0, symName: __RINvNtCsieiGu2EXtoJ_4core3ptr13drop_in_placeNtNtCsiK7Gs1zPIjf_14thiserror_impl3ast4EnumEBK_, symObjAddr: 0x2190, symBinAddr: 0x5EC90, symSize: 0x90 }
  - { offset: 0x12BE10, size: 0x8, addend: 0x0, symName: __RINvNtCsieiGu2EXtoJ_4core3ptr13drop_in_placeNtNtCsiK7Gs1zPIjf_14thiserror_impl3ast5FieldEBK_, symObjAddr: 0x2220, symBinAddr: 0x5ED20, symSize: 0x60 }
  - { offset: 0x12BE3F, size: 0x8, addend: 0x0, symName: __RINvNtCsieiGu2EXtoJ_4core3ptr13drop_in_placeNtNtCsiK7Gs1zPIjf_14thiserror_impl3ast5InputEBK_, symObjAddr: 0x2280, symBinAddr: 0x5ED80, symSize: 0x40 }
  - { offset: 0x12BE6E, size: 0x8, addend: 0x0, symName: __RINvNtCsieiGu2EXtoJ_4core3ptr13drop_in_placeNtNtCsiK7Gs1zPIjf_14thiserror_impl3ast6StructEBK_, symObjAddr: 0x22C0, symBinAddr: 0x5EDC0, symSize: 0x90 }
  - { offset: 0x12BE9D, size: 0x8, addend: 0x0, symName: __RINvNtCsieiGu2EXtoJ_4core3ptr13drop_in_placeNtNtCsiK7Gs1zPIjf_14thiserror_impl3ast7VariantEBK_, symObjAddr: 0x2350, symBinAddr: 0x5EE50, symSize: 0x90 }
  - { offset: 0x12BECC, size: 0x8, addend: 0x0, symName: __RINvNtCsieiGu2EXtoJ_4core3ptr13drop_in_placeNtNtCsiK7Gs1zPIjf_14thiserror_impl3fmt12FmtArgumentsEBK_, symObjAddr: 0x23E0, symBinAddr: 0x5EEE0, symSize: 0x60 }
  - { offset: 0x12BEFB, size: 0x8, addend: 0x0, symName: __RINvNtCsieiGu2EXtoJ_4core3ptr13drop_in_placeNtNtCsiK7Gs1zPIjf_14thiserror_impl4attr3FmtEBK_, symObjAddr: 0x2440, symBinAddr: 0x5EF40, symSize: 0x20 }
  - { offset: 0x12BF2A, size: 0x8, addend: 0x0, symName: __RINvNtCsieiGu2EXtoJ_4core3ptr13drop_in_placeNtNtCsiK7Gs1zPIjf_14thiserror_impl4attr5AttrsEBK_, symObjAddr: 0x2460, symBinAddr: 0x5EF60, symSize: 0x60 }
  - { offset: 0x12BF59, size: 0x8, addend: 0x0, symName: __RINvNtCsieiGu2EXtoJ_4core3ptr13drop_in_placeNtNtCsiK7Gs1zPIjf_14thiserror_impl4attr7DisplayEBK_, symObjAddr: 0x24C0, symBinAddr: 0x5EFC0, symSize: 0xB0 }
  - { offset: 0x12BF88, size: 0x8, addend: 0x0, symName: __RINvNtCsieiGu2EXtoJ_4core3ptr13drop_in_placeNtNtCsiK7Gs1zPIjf_14thiserror_impl5unraw10IdentUnrawEBK_, symObjAddr: 0x2570, symBinAddr: 0x5F070, symSize: 0x20 }
  - { offset: 0x12BFB7, size: 0x8, addend: 0x0, symName: __RINvNtCsieiGu2EXtoJ_4core3ptr13drop_in_placeNtNtCsiK7Gs1zPIjf_14thiserror_impl5unraw11MemberUnrawEBK_, symObjAddr: 0x2590, symBinAddr: 0x5F090, symSize: 0x40 }
  - { offset: 0x12BFE6, size: 0x8, addend: 0x0, symName: __RINvNtCsieiGu2EXtoJ_4core3ptr13drop_in_placeNtNtCsiK7Gs1zPIjf_14thiserror_impl8generics13ParamsInScopeEBK_, symObjAddr: 0x25D0, symBinAddr: 0x5F0D0, symSize: 0x20 }
  - { offset: 0x12C015, size: 0x8, addend: 0x0, symName: __RINvNtCsieiGu2EXtoJ_4core3ptr13drop_in_placeNtNtCsiK7Gs1zPIjf_14thiserror_impl8generics14InferredBoundsEBK_, symObjAddr: 0x25F0, symBinAddr: 0x5F0F0, symSize: 0x60 }
  - { offset: 0x12C044, size: 0x8, addend: 0x0, symName: __RINvNtCsieiGu2EXtoJ_4core3ptr13drop_in_placeNtNtNtCsHUR1vrdMJt_3std2io5error5ErrorECsiK7Gs1zPIjf_14thiserror_impl, symObjAddr: 0x2650, symBinAddr: 0x5F150, symSize: 0x20 }
  - { offset: 0x12C073, size: 0x8, addend: 0x0, symName: __RINvNtCsieiGu2EXtoJ_4core3ptr13drop_in_placeNtNtNtCsHUR1vrdMJt_3std2io5error6CustomECsiK7Gs1zPIjf_14thiserror_impl, symObjAddr: 0x2670, symBinAddr: 0x5F170, symSize: 0x20 }
  - { offset: 0x12C0A2, size: 0x8, addend: 0x0, symName: __RINvNtCsieiGu2EXtoJ_4core3ptr13drop_in_placeNtNtNtCscKtU6MdFI5n_10proc_macro6bridge3rpc12PanicMessageECsiK7Gs1zPIjf_14thiserror_impl, symObjAddr: 0x2690, symBinAddr: 0x5F190, symSize: 0x50 }
  - { offset: 0x12C0D1, size: 0x8, addend: 0x0, symName: __RINvNtCsieiGu2EXtoJ_4core3ptr13drop_in_placeNtNtNtCscKtU6MdFI5n_10proc_macro6bridge6buffer6BufferECsiK7Gs1zPIjf_14thiserror_impl, symObjAddr: 0x26E0, symBinAddr: 0x5F1E0, symSize: 0x20 }
  - { offset: 0x12C100, size: 0x8, addend: 0x0, symName: __RINvNtCsieiGu2EXtoJ_4core3ptr13drop_in_placeNtNtNtCscKtU6MdFI5n_10proc_macro6bridge6client6BridgeECsiK7Gs1zPIjf_14thiserror_impl, symObjAddr: 0x2700, symBinAddr: 0x5F200, symSize: 0x20 }
  - { offset: 0x12C12F, size: 0x8, addend: 0x0, symName: __RINvNtCsieiGu2EXtoJ_4core3ptr13drop_in_placeNtNtNtNtCsHUR1vrdMJt_3std2io5error14repr_bitpacked4ReprECsiK7Gs1zPIjf_14thiserror_impl, symObjAddr: 0x2720, symBinAddr: 0x5F220, symSize: 0x20 }
  - { offset: 0x12C15E, size: 0x8, addend: 0x0, symName: __RINvNtCsieiGu2EXtoJ_4core3ptr13drop_in_placeNtNvNtNtNtCscKtU6MdFI5n_10proc_macro6bridge6client5state3set13RestoreOnDropECsiK7Gs1zPIjf_14thiserror_impl, symObjAddr: 0x2740, symBinAddr: 0x5F240, symSize: 0x20 }
  - { offset: 0x12C18D, size: 0x8, addend: 0x0, symName: __RINvNtCsieiGu2EXtoJ_4core3ptr13drop_in_placeNtNvNtNtNtCslJiobkLta79_5alloc11collections5btree3mem7replace10PanicGuardECsiK7Gs1zPIjf_14thiserror_impl, symObjAddr: 0x2760, symBinAddr: 0x5F260, symSize: 0x20 }
  - { offset: 0x12C1BC, size: 0x8, addend: 0x0, symName: __RINvNtCsieiGu2EXtoJ_4core3ptr13drop_in_placeSNtCsaKzlTDPUHDb_11proc_macro211TokenStreamECsiK7Gs1zPIjf_14thiserror_impl, symObjAddr: 0x2780, symBinAddr: 0x5F280, symSize: 0xA0 }
  - { offset: 0x12C1EB, size: 0x8, addend: 0x0, symName: __RINvNtCsieiGu2EXtoJ_4core3ptr13drop_in_placeSNtNtCsiK7Gs1zPIjf_14thiserror_impl3ast5FieldEBL_, symObjAddr: 0x2820, symBinAddr: 0x5F320, symSize: 0xA0 }
  - { offset: 0x12C21A, size: 0x8, addend: 0x0, symName: __RINvNtCsieiGu2EXtoJ_4core3ptr13drop_in_placeSNtNtCsiK7Gs1zPIjf_14thiserror_impl3ast7VariantEBL_, symObjAddr: 0x28C0, symBinAddr: 0x5F3C0, symSize: 0xA0 }
  - { offset: 0x12C249, size: 0x8, addend: 0x0, symName: __RINvNtCsieiGu2EXtoJ_4core3ptr13drop_in_placeSTNtCsaKzlTDPUHDb_11proc_macro211TokenStreamNtNtCsdGrGZaRBwMb_3syn5token4PlusEECsiK7Gs1zPIjf_14thiserror_impl, symObjAddr: 0x2960, symBinAddr: 0x5F460, symSize: 0xA0 }
  - { offset: 0x12C278, size: 0x8, addend: 0x0, symName: __RINvNtCsieiGu2EXtoJ_4core3ptr13drop_in_placeSTNtCsaKzlTDPUHDb_11proc_macro25IdentNtBK_11TokenStreamEECsiK7Gs1zPIjf_14thiserror_impl, symObjAddr: 0x2A00, symBinAddr: 0x5F500, symSize: 0xA0 }
  - { offset: 0x12C2A7, size: 0x8, addend: 0x0, symName: __RINvNtCsieiGu2EXtoJ_4core3ptr13drop_in_placeTINtNtB4_6option6OptionINtNtB4_6result6ResultNtNtCsdGrGZaRBwMb_3syn4expr5IndexNtNtB1t_5error5ErrorEEBH_BH_EECsiK7Gs1zPIjf_14thiserror_impl, symObjAddr: 0x2AA0, symBinAddr: 0x5F5A0, symSize: 0x90 }
  - { offset: 0x12C2D6, size: 0x8, addend: 0x0, symName: __RINvNtCsieiGu2EXtoJ_4core3ptr13drop_in_placeTINtNtNtNtCslJiobkLta79_5alloc11collections5btree3set8BTreeSetNtNtBQ_6string6StringEINtNtCsdGrGZaRBwMb_3syn10punctuated10PunctuatedNtCsaKzlTDPUHDb_11proc_macro211TokenStreamNtNtB27_5token4PlusEEECsiK7Gs1zPIjf_14thiserror_impl, symObjAddr: 0x2B30, symBinAddr: 0x5F630, symSize: 0x60 }
  - { offset: 0x12C305, size: 0x8, addend: 0x0, symName: __RINvNtCsieiGu2EXtoJ_4core3ptr13drop_in_placeTNtCsaKzlTDPUHDb_11proc_macro211TokenStreamNtNtCsdGrGZaRBwMb_3syn5token4PlusEECsiK7Gs1zPIjf_14thiserror_impl, symObjAddr: 0x2B90, symBinAddr: 0x5F690, symSize: 0x20 }
  - { offset: 0x12C334, size: 0x8, addend: 0x0, symName: __RINvNtCsieiGu2EXtoJ_4core3ptr13drop_in_placeTNtCsaKzlTDPUHDb_11proc_macro25IdentNtBJ_11TokenStreamEECsiK7Gs1zPIjf_14thiserror_impl, symObjAddr: 0x2BB0, symBinAddr: 0x5F6B0, symSize: 0x60 }
  - { offset: 0x12C363, size: 0x8, addend: 0x0, symName: __RINvNtCsieiGu2EXtoJ_4core3ptr13drop_in_placeTNtNtCsiK7Gs1zPIjf_14thiserror_impl5unraw10IdentUnrawNtNtNtNtCslJiobkLta79_5alloc11collections5btree7set_val9SetValZSTEEBL_, symObjAddr: 0x2C10, symBinAddr: 0x5F710, symSize: 0x20 }
  - { offset: 0x12C392, size: 0x8, addend: 0x0, symName: __RINvNtCsieiGu2EXtoJ_4core3ptr13drop_in_placeTNtNtCslJiobkLta79_5alloc6string6StringNtNtNtNtBL_11collections5btree7set_val9SetValZSTEECsiK7Gs1zPIjf_14thiserror_impl, symObjAddr: 0x2C30, symBinAddr: 0x5F730, symSize: 0x20 }
  - { offset: 0x12C3C1, size: 0x8, addend: 0x0, symName: __RINvNtCsieiGu2EXtoJ_4core3ptr13drop_in_placeTNtNtCslJiobkLta79_5alloc6string6StringTINtNtNtNtBL_11collections5btree3set8BTreeSetBH_EINtNtCsdGrGZaRBwMb_3syn10punctuated10PunctuatedNtCsaKzlTDPUHDb_11proc_macro211TokenStreamNtNtB2b_5token4PlusEEEECsiK7Gs1zPIjf_14thiserror_impl, symObjAddr: 0x2C50, symBinAddr: 0x5F750, symSize: 0x60 }
  - { offset: 0x12C656, size: 0x8, addend: 0x0, symName: __RNvNvNtCsieiGu2EXtoJ_4core4hint16assert_unchecked18precondition_checkCsiK7Gs1zPIjf_14thiserror_impl, symObjAddr: 0x3AF0, symBinAddr: 0x605F0, symSize: 0xA0 }
  - { offset: 0x12C6B6, size: 0x8, addend: 0x0, symName: __RNvNvNtCsieiGu2EXtoJ_4core4hint21unreachable_unchecked18precondition_checkCsiK7Gs1zPIjf_14thiserror_impl, symObjAddr: 0x3B90, symBinAddr: 0x60690, symSize: 0x80 }
  - { offset: 0x12C9F8, size: 0x8, addend: 0x0, symName: __RNCINvNvXs_NtNtNtCsieiGu2EXtoJ_4core4iter8adapters9enumerateINtB9_9EnumeratepENtNtNtBd_6traits8iterator8Iterator8try_fold9enumerateRNtNtCsdGrGZaRBwMb_3syn4data5FielduINtNtNtBf_3ops12control_flow11ControlFlowIB2F_NtNtCsiK7Gs1zPIjf_14thiserror_impl3ast5FieldEENCINvNtBb_3map12map_try_foldTjB25_EINtNtBf_6result6ResultB3o_NtNtB2a_5error5ErrorEuB2E_NCNvMs2_B3q_B3o_17multiple_from_syn0NCINvXBb_INtBb_12GenericShuntINtB4d_3MapIBX_INtNtB2a_10punctuated4IterB26_EEB5x_EIB4I_NtNtBf_7convert10InfallibleB57_EEB1e_8try_folduNCINvNvB1e_12try_for_each4callB3o_B3j_NcNtB3j_5Break0E0B3j_E0E0E0B3s_, symObjAddr: 0x2D30, symBinAddr: 0x5F830, symSize: 0xE0 }
  - { offset: 0x12CA90, size: 0x8, addend: 0x0, symName: __RINvXs_NtNtNtCsieiGu2EXtoJ_4core4iter8adapters9enumerateINtB5_9EnumerateINtNtCsdGrGZaRBwMb_3syn10punctuated4IterNtNtB1d_4data5FieldEENtNtNtB9_6traits8iterator8Iterator8try_folduNCINvNtB7_3map12map_try_foldTjRB1M_EINtNtBb_6result6ResultNtNtCsiK7Gs1zPIjf_14thiserror_impl3ast5FieldNtNtB1d_5error5ErrorEuINtNtNtBb_3ops12control_flow11ControlFlowIB4Q_B3L_EENCNvMs2_B3N_B3L_17multiple_from_syn0NCINvXB7_INtB7_12GenericShuntINtB2U_3MapBS_B5F_EIB3q_NtNtBb_7convert10InfallibleB4t_EEB27_8try_folduNCINvNvB27_12try_for_each4callB3L_B5u_NcNtB5u_5Break0E0B5u_E0E0B4P_EB3P_, symObjAddr: 0x2CB0, symBinAddr: 0x5F7B0, symSize: 0x50 }
  - { offset: 0x12CB22, size: 0x8, addend: 0x0, symName: __RNvXs_NtNtNtCsieiGu2EXtoJ_4core4iter8adapters9enumerateINtB4_9EnumerateINtNtCsdGrGZaRBwMb_3syn10punctuated4IterNtNtB1c_4data5FieldEENtNtNtB8_6traits8iterator8Iterator9size_hintCsiK7Gs1zPIjf_14thiserror_impl, symObjAddr: 0x4900, symBinAddr: 0x613E0, symSize: 0x30 }
  - { offset: 0x12CB57, size: 0x8, addend: 0x0, symName: __RNvXs_NtNtNtCsieiGu2EXtoJ_4core4iter8adapters9enumerateINtB4_9EnumerateINtNtNtBa_5slice4iter4IterNtNtCsiK7Gs1zPIjf_14thiserror_impl3ast5FieldEENtNtNtB8_6traits8iterator8Iterator4nextB1B_, symObjAddr: 0x4930, symBinAddr: 0x61410, symSize: 0xE0 }
  - { offset: 0x12CC3D, size: 0x8, addend: 0x0, symName: __RNvXs_NtNtNtCsieiGu2EXtoJ_4core4iter8adapters9enumerateINtB4_9EnumerateINtNtNtBa_5slice4iter4IterNtNtCsiK7Gs1zPIjf_14thiserror_impl5unraw10IdentUnrawEENtNtNtB8_6traits8iterator8Iterator4nextB1B_, symObjAddr: 0x4A10, symBinAddr: 0x614F0, symSize: 0xE0 }
  - { offset: 0x12CD23, size: 0x8, addend: 0x0, symName: __RNvXs_NtNtNtCsieiGu2EXtoJ_4core4iter8adapters9enumerateINtB4_9EnumerateINtNtNtBa_5slice4iter4IterNtNtCslJiobkLta79_5alloc6string6StringEENtNtNtB8_6traits8iterator8Iterator4nextCsiK7Gs1zPIjf_14thiserror_impl, symObjAddr: 0x4AF0, symBinAddr: 0x615D0, symSize: 0xE0 }
  - { offset: 0x12CE09, size: 0x8, addend: 0x0, symName: __RNvXs_NtNtNtCsieiGu2EXtoJ_4core4iter8adapters9enumerateINtB4_9EnumerateINtNtNtBa_5slice4iter4IterRNtCsaKzlTDPUHDb_11proc_macro25IdentEENtNtNtB8_6traits8iterator8Iterator4nextCsiK7Gs1zPIjf_14thiserror_impl, symObjAddr: 0x4BD0, symBinAddr: 0x616B0, symSize: 0xE0 }
  - { offset: 0x12CEEF, size: 0x8, addend: 0x0, symName: __RNvXs_NtNtNtCsieiGu2EXtoJ_4core4iter8adapters9enumerateINtB4_9EnumerateINtNtNtBa_5slice4iter4IterTNtCsaKzlTDPUHDb_11proc_macro25IdentNtB1A_11TokenStreamEEENtNtNtB8_6traits8iterator8Iterator4nextCsiK7Gs1zPIjf_14thiserror_impl, symObjAddr: 0x4CB0, symBinAddr: 0x61790, symSize: 0xE0 }
  - { offset: 0x12CFD5, size: 0x8, addend: 0x0, symName: __RNvXs_NtNtNtCsieiGu2EXtoJ_4core4iter8adapters9enumerateINtB4_9EnumerateINtNtNtBa_5slice4iter4IterTjNtNtCsiK7Gs1zPIjf_14thiserror_impl4attr5TraitEEENtNtNtB8_6traits8iterator8Iterator4nextB1D_, symObjAddr: 0x4D90, symBinAddr: 0x61870, symSize: 0xE0 }
  - { offset: 0x12D2A2, size: 0x8, addend: 0x0, symName: __RINvYINtNtNtNtCsieiGu2EXtoJ_4core4iter8adapters9enumerate9EnumerateINtNtCsdGrGZaRBwMb_3syn10punctuated4IterNtNtB18_4data5FieldEENtNtNtBa_6traits8iterator8Iterator3mapINtNtBc_6result6ResultNtNtCsiK7Gs1zPIjf_14thiserror_impl3ast5FieldNtNtB18_5error5ErrorENCNvMs2_B32_B30_17multiple_from_syn0EB34_, symObjAddr: 0x2D00, symBinAddr: 0x5F800, symSize: 0x30 }
  - { offset: 0x12D33A, size: 0x8, addend: 0x0, symName: __RNvXNtNtNtCsieiGu2EXtoJ_4core4iter6traits7collectINtNtNtB6_8adapters9enumerate9EnumerateINtNtNtB8_5slice4iter4IterNtNtCsiK7Gs1zPIjf_14thiserror_impl3ast5FieldEENtB2_12IntoIterator9into_iterB1S_, symObjAddr: 0x3F50, symBinAddr: 0x60A50, symSize: 0x20 }
  - { offset: 0x12D37D, size: 0x8, addend: 0x0, symName: __RNvYINtNtCsieiGu2EXtoJ_4core6option8IntoIterRNtNtCsdGrGZaRBwMb_3syn4data7VariantENtNtNtNtB7_4iter6traits10exact_size17ExactSizeIterator3lenCsiK7Gs1zPIjf_14thiserror_impl, symObjAddr: 0x5220, symBinAddr: 0x61D00, symSize: 0xE0 }
  - { offset: 0x12D47D, size: 0x8, addend: 0x0, symName: __RNvYINtNtCsieiGu2EXtoJ_4core6option8IntoIterRNtNtCsdGrGZaRBwMb_3syn4path15GenericArgumentENtNtNtNtB7_4iter6traits10exact_size17ExactSizeIterator3lenCsiK7Gs1zPIjf_14thiserror_impl, symObjAddr: 0x5300, symBinAddr: 0x61DE0, symSize: 0xE0 }
  - { offset: 0x12DD7F, size: 0x8, addend: 0x0, symName: __RNcNtINtNtNtCsieiGu2EXtoJ_4core3ops12control_flow11ControlFlowNtNtCsiK7Gs1zPIjf_14thiserror_impl3ast5FieldE5Break0B12_, symObjAddr: 0x3040, symBinAddr: 0x5FB40, symSize: 0x30 }
  - { offset: 0x12DDBA, size: 0x8, addend: 0x0, symName: __RNcNtINtNtNtCsieiGu2EXtoJ_4core3ops12control_flow11ControlFlowNtNtCsiK7Gs1zPIjf_14thiserror_impl3ast7VariantE5Break0B12_, symObjAddr: 0x3070, symBinAddr: 0x5FB70, symSize: 0x30 }
  - { offset: 0x12DDFC, size: 0x8, addend: 0x0, symName: __RNvXNtNtCsieiGu2EXtoJ_4core3ops12control_flowINtB2_11ControlFlowIBI_NtNtCsiK7Gs1zPIjf_14thiserror_impl3ast5FieldEENtNtB4_9try_trait3Try11from_outputB18_, symObjAddr: 0x3C10, symBinAddr: 0x60710, symSize: 0x20 }
  - { offset: 0x12DE3A, size: 0x8, addend: 0x0, symName: __RNvXNtNtCsieiGu2EXtoJ_4core3ops12control_flowINtB2_11ControlFlowIBI_NtNtCsiK7Gs1zPIjf_14thiserror_impl3ast5FieldEENtNtB4_9try_trait3Try6branchB18_, symObjAddr: 0x3C30, symBinAddr: 0x60730, symSize: 0xB0 }
  - { offset: 0x12DEB4, size: 0x8, addend: 0x0, symName: __RNvXNtNtCsieiGu2EXtoJ_4core3ops12control_flowINtB2_11ControlFlowIBI_NtNtCsiK7Gs1zPIjf_14thiserror_impl3ast7VariantEENtNtB4_9try_trait3Try11from_outputB18_, symObjAddr: 0x3CE0, symBinAddr: 0x607E0, symSize: 0x20 }
  - { offset: 0x12DEF2, size: 0x8, addend: 0x0, symName: __RNvXNtNtCsieiGu2EXtoJ_4core3ops12control_flowINtB2_11ControlFlowIBI_NtNtCsiK7Gs1zPIjf_14thiserror_impl3ast7VariantEENtNtB4_9try_trait3Try6branchB18_, symObjAddr: 0x3D00, symBinAddr: 0x60800, symSize: 0xB0 }
  - { offset: 0x12DF6C, size: 0x8, addend: 0x0, symName: __RNvXNtNtCsieiGu2EXtoJ_4core3ops12control_flowINtB2_11ControlFlowNtNtCsiK7Gs1zPIjf_14thiserror_impl3ast5FieldENtNtB4_9try_trait3Try11from_outputB14_, symObjAddr: 0x3DB0, symBinAddr: 0x608B0, symSize: 0x20 }
  - { offset: 0x12DFAA, size: 0x8, addend: 0x0, symName: __RNvXNtNtCsieiGu2EXtoJ_4core3ops12control_flowINtB2_11ControlFlowNtNtCsiK7Gs1zPIjf_14thiserror_impl3ast5FieldENtNtB4_9try_trait3Try6branchB14_, symObjAddr: 0x3DD0, symBinAddr: 0x608D0, symSize: 0xB0 }
  - { offset: 0x12E024, size: 0x8, addend: 0x0, symName: __RNvXNtNtCsieiGu2EXtoJ_4core3ops12control_flowINtB2_11ControlFlowNtNtCsiK7Gs1zPIjf_14thiserror_impl3ast7VariantENtNtB4_9try_trait3Try11from_outputB14_, symObjAddr: 0x3E80, symBinAddr: 0x60980, symSize: 0x20 }
  - { offset: 0x12E062, size: 0x8, addend: 0x0, symName: __RNvXNtNtCsieiGu2EXtoJ_4core3ops12control_flowINtB2_11ControlFlowNtNtCsiK7Gs1zPIjf_14thiserror_impl3ast7VariantENtNtB4_9try_trait3Try6branchB14_, symObjAddr: 0x3EA0, symBinAddr: 0x609A0, symSize: 0xB0 }
  - { offset: 0x12E0E2, size: 0x8, addend: 0x0, symName: __RNvXs_NtNtCsieiGu2EXtoJ_4core3ops12control_flowINtB4_11ControlFlowIBK_NtNtCsiK7Gs1zPIjf_14thiserror_impl3ast5FieldEEINtNtB6_9try_trait12FromResidualIBK_B12_NtNtB8_7convert10InfallibleEE13from_residualB1a_, symObjAddr: 0x4780, symBinAddr: 0x61260, symSize: 0x60 }
  - { offset: 0x12E121, size: 0x8, addend: 0x0, symName: __RNvXs_NtNtCsieiGu2EXtoJ_4core3ops12control_flowINtB4_11ControlFlowIBK_NtNtCsiK7Gs1zPIjf_14thiserror_impl3ast7VariantEEINtNtB6_9try_trait12FromResidualIBK_B12_NtNtB8_7convert10InfallibleEE13from_residualB1a_, symObjAddr: 0x47E0, symBinAddr: 0x612C0, symSize: 0x60 }
  - { offset: 0x12E160, size: 0x8, addend: 0x0, symName: __RNvXs_NtNtCsieiGu2EXtoJ_4core3ops12control_flowINtB4_11ControlFlowNtNtCsiK7Gs1zPIjf_14thiserror_impl3ast5FieldEINtNtB6_9try_trait12FromResidualIBK_B12_NtNtB8_7convert10InfallibleEE13from_residualB16_, symObjAddr: 0x4840, symBinAddr: 0x61320, symSize: 0x60 }
  - { offset: 0x12E19F, size: 0x8, addend: 0x0, symName: __RNvXs_NtNtCsieiGu2EXtoJ_4core3ops12control_flowINtB4_11ControlFlowNtNtCsiK7Gs1zPIjf_14thiserror_impl3ast7VariantEINtNtB6_9try_trait12FromResidualIBK_B12_NtNtB8_7convert10InfallibleEE13from_residualB16_, symObjAddr: 0x48A0, symBinAddr: 0x61380, symSize: 0x60 }
  - { offset: 0x12E9F2, size: 0x8, addend: 0x0, symName: __RNSNvYNCINvMs6_NtCsjK30CmJ87bX_9hashbrown3rawINtBd_8RawTableTRNtNtCsiK7Gs1zPIjf_14thiserror_impl5unraw11MemberUnrawjEE14reserve_rehashNCINvNtBf_3map11make_hasherBX_jNtNtNtCsHUR1vrdMJt_3std4hash6random11RandomStateE0E0INtNtNtCsieiGu2EXtoJ_4core3ops8function6FnOnceTQNtBd_13RawTableInnerjEE9call_once6vtableB12_, symObjAddr: 0x2FB0, symBinAddr: 0x5FAB0, symSize: 0x30 }
  - { offset: 0x12EA36, size: 0x8, addend: 0x0, symName: __RNSNvYNCINvMs6_NtCsjK30CmJ87bX_9hashbrown3rawINtBd_8RawTableTRNtNtCsiK7Gs1zPIjf_14thiserror_impl5unraw11MemberUnrawjEE24find_or_find_insert_slotNCINvNtBf_3map14equivalent_keyBX_BX_jE0NCINvB2n_11make_hasherBX_jNtNtNtCsHUR1vrdMJt_3std4hash6random11RandomStateE0E0INtNtNtCsieiGu2EXtoJ_4core3ops8function6FnOnceTjEE9call_once6vtableB12_, symObjAddr: 0x2FE0, symBinAddr: 0x5FAE0, symSize: 0x30 }
  - { offset: 0x12EA7A, size: 0x8, addend: 0x0, symName: __RNSNvYNCINvMs6_NtCsjK30CmJ87bX_9hashbrown3rawINtBd_8RawTableTRNtNtCsiK7Gs1zPIjf_14thiserror_impl5unraw11MemberUnrawjEE4findNCINvNtBf_3map14equivalent_keyBY_BX_jE0E0INtNtNtCsieiGu2EXtoJ_4core3ops8function6FnOnceTjEE9call_once6vtableB12_, symObjAddr: 0x3010, symBinAddr: 0x5FB10, symSize: 0x30 }
  - { offset: 0x12EABE, size: 0x8, addend: 0x0, symName: __RNvYNCINvMs6_NtCsjK30CmJ87bX_9hashbrown3rawINtBb_8RawTableTRNtNtCsiK7Gs1zPIjf_14thiserror_impl5unraw11MemberUnrawjEE14reserve_rehashNCINvNtBd_3map11make_hasherBV_jNtNtNtCsHUR1vrdMJt_3std4hash6random11RandomStateE0E0INtNtNtCsieiGu2EXtoJ_4core3ops8function6FnOnceTQNtBb_13RawTableInnerjEE9call_onceB10_, symObjAddr: 0x5420, symBinAddr: 0x61F00, symSize: 0x50 }
  - { offset: 0x12EB02, size: 0x8, addend: 0x0, symName: __RNvYNCINvMs6_NtCsjK30CmJ87bX_9hashbrown3rawINtBb_8RawTableTRNtNtCsiK7Gs1zPIjf_14thiserror_impl5unraw11MemberUnrawjEE24find_or_find_insert_slotNCINvNtBd_3map14equivalent_keyBV_BV_jE0NCINvB2l_11make_hasherBV_jNtNtNtCsHUR1vrdMJt_3std4hash6random11RandomStateE0E0INtNtNtCsieiGu2EXtoJ_4core3ops8function6FnOnceTjEE9call_onceB10_, symObjAddr: 0x5470, symBinAddr: 0x61F50, symSize: 0x50 }
  - { offset: 0x12EB46, size: 0x8, addend: 0x0, symName: __RNvYNCINvMs6_NtCsjK30CmJ87bX_9hashbrown3rawINtBb_8RawTableTRNtNtCsiK7Gs1zPIjf_14thiserror_impl5unraw11MemberUnrawjEE4findNCINvNtBd_3map14equivalent_keyBW_BV_jE0E0INtNtNtCsieiGu2EXtoJ_4core3ops8function6FnOnceTjEE9call_onceB10_, symObjAddr: 0x54C0, symBinAddr: 0x61FA0, symSize: 0x50 }
  - { offset: 0x12EB8A, size: 0x8, addend: 0x0, symName: __RNvYNCNkNvNtNtNtCscKtU6MdFI5n_10proc_macro6bridge6client5state12BRIDGE_STATE0s_0INtNtNtCsieiGu2EXtoJ_4core3ops8function6FnOnceTINtNtB1n_6option6OptionQIB22_INtNtB1n_4cell4CellPuEEEEE9call_onceCsiK7Gs1zPIjf_14thiserror_impl, symObjAddr: 0x5510, symBinAddr: 0x61FF0, symSize: 0x40 }
  - { offset: 0x12EBCE, size: 0x8, addend: 0x0, symName: __RNvYNCNkNvNvMNtNtCsHUR1vrdMJt_3std4hash6randomNtBb_11RandomState3new4KEYS0s_0INtNtNtCsieiGu2EXtoJ_4core3ops8function6FnOnceTINtNtB1k_6option6OptionQIB1Z_INtNtB1k_4cell4CellTyyEEEEEE9call_onceCsiK7Gs1zPIjf_14thiserror_impl, symObjAddr: 0x5550, symBinAddr: 0x62030, symSize: 0x40 }
  - { offset: 0x12EC12, size: 0x8, addend: 0x0, symName: __RNvYNCNvNtCsiK7Gs1zPIjf_14thiserror_impl4attr21parse_error_attribute0INtNtNtCsieiGu2EXtoJ_4core3ops8function6FnOnceTRNtNtCsdGrGZaRBwMb_3syn5parse11ParseBufferEE9call_onceB8_, symObjAddr: 0x5590, symBinAddr: 0x62070, symSize: 0x40 }
  - { offset: 0x12EC57, size: 0x8, addend: 0x0, symName: __RNvYNcNtINtNtCsdGrGZaRBwMb_3syn10punctuated4PairRNtCsaKzlTDPUHDb_11proc_macro211TokenStreamRNtNtBb_5token4PlusE3End0INtNtNtCsieiGu2EXtoJ_4core3ops8function6FnOnceTBK_EE9call_onceCsiK7Gs1zPIjf_14thiserror_impl, symObjAddr: 0x55D0, symBinAddr: 0x620B0, symSize: 0x30 }
  - { offset: 0x12EC9B, size: 0x8, addend: 0x0, symName: __RNvYNcNtNtNtCsiK7Gs1zPIjf_14thiserror_impl3ast5Input4Enum0INtNtNtCsieiGu2EXtoJ_4core3ops8function6FnOnceTNtB8_4EnumEE9call_onceBa_, symObjAddr: 0x56E0, symBinAddr: 0x621C0, symSize: 0x50 }
  - { offset: 0x12ECE0, size: 0x8, addend: 0x0, symName: __RNvYNcNtNtNtCsiK7Gs1zPIjf_14thiserror_impl3ast5Input6Struct0INtNtNtCsieiGu2EXtoJ_4core3ops8function6FnOnceTNtB8_6StructEE9call_onceBa_, symObjAddr: 0x5730, symBinAddr: 0x62210, symSize: 0x50 }
  - { offset: 0x12ED25, size: 0x8, addend: 0x0, symName: __RNvYNvMNtCsiK7Gs1zPIjf_14thiserror_impl5unrawNtB5_10IdentUnraw3newINtNtNtCsieiGu2EXtoJ_4core3ops8function6FnOnceTNtCsaKzlTDPUHDb_11proc_macro25IdentEE9call_onceB7_, symObjAddr: 0x57A0, symBinAddr: 0x62280, symSize: 0x40 }
  - { offset: 0x12ED69, size: 0x8, addend: 0x0, symName: __RNvYNvNtCsiK7Gs1zPIjf_14thiserror_impl3fmt11is_syn_fullINtNtNtCsieiGu2EXtoJ_4core3ops8function6FnOnceuE9call_onceB6_, symObjAddr: 0x5830, symBinAddr: 0x62310, symSize: 0x20 }
  - { offset: 0x12EDAD, size: 0x8, addend: 0x0, symName: __RNvYNvNtCsiK7Gs1zPIjf_14thiserror_impl3fmt19explicit_named_argsINtNtNtCsieiGu2EXtoJ_4core3ops8function6FnOnceTRNtNtCsdGrGZaRBwMb_3syn5parse11ParseBufferEE9call_onceB6_, symObjAddr: 0x5850, symBinAddr: 0x62330, symSize: 0x30 }
  - { offset: 0x12EDF1, size: 0x8, addend: 0x0, symName: __RNvYNvNvNvMNtNtCsHUR1vrdMJt_3std4hash6randomNtB9_11RandomState3new4KEYS6___initINtNtNtCsieiGu2EXtoJ_4core3ops8function6FnOnceuE9call_onceCsiK7Gs1zPIjf_14thiserror_impl, symObjAddr: 0x5880, symBinAddr: 0x62360, symSize: 0x20 }
  - { offset: 0x12EE35, size: 0x8, addend: 0x0, symName: __RNvYNvYINtNtCslJiobkLta79_5alloc5boxed3BoxNtCsaKzlTDPUHDb_11proc_macro211TokenStreamEINtNtCsieiGu2EXtoJ_4core7convert5AsRefBE_E6as_refINtNtNtB1q_3ops8function6FnOnceTRB5_EE9call_onceCsiK7Gs1zPIjf_14thiserror_impl, symObjAddr: 0x58A0, symBinAddr: 0x62380, symSize: 0x20 }
  - { offset: 0x12EE79, size: 0x8, addend: 0x0, symName: __RNvYNvYNtCsaKzlTDPUHDb_11proc_macro25IdentNtNtCsdGrGZaRBwMb_3syn5parse5Parse5parseINtNtNtCsieiGu2EXtoJ_4core3ops8function6FnOnceTRNtBG_11ParseBufferEE9call_onceCsiK7Gs1zPIjf_14thiserror_impl, symObjAddr: 0x58C0, symBinAddr: 0x623A0, symSize: 0x30 }
  - { offset: 0x12EEBD, size: 0x8, addend: 0x0, symName: __RNvYNvYNtNtCsdGrGZaRBwMb_3syn4expr4ExprNtNtB9_5parse5Parse5parseINtNtNtCsieiGu2EXtoJ_4core3ops8function6FnOnceTRNtBD_11ParseBufferEE9call_onceCsiK7Gs1zPIjf_14thiserror_impl, symObjAddr: 0x58F0, symBinAddr: 0x623D0, symSize: 0x30 }
  - { offset: 0x12EF01, size: 0x8, addend: 0x0, symName: __RNvYNvYNtNtCsdGrGZaRBwMb_3syn6derive11DeriveInputNtNtB9_5parse5Parse5parseINtNtNtCsieiGu2EXtoJ_4core3ops8function6FnOnceTRNtBN_11ParseBufferEE9call_onceCsiK7Gs1zPIjf_14thiserror_impl, symObjAddr: 0x5920, symBinAddr: 0x62400, symSize: 0x30 }
  - { offset: 0x12EF45, size: 0x8, addend: 0x0, symName: __RNvYNvYNtNtCsdGrGZaRBwMb_3syn8generics14WherePredicateNtNtB9_11parse_quote10ParseQuote5parseINtNtNtCsieiGu2EXtoJ_4core3ops8function6FnOnceTRNtNtB9_5parse11ParseBufferEE9call_onceCsiK7Gs1zPIjf_14thiserror_impl, symObjAddr: 0x5950, symBinAddr: 0x62430, symSize: 0x30 }
  - { offset: 0x12EF8F, size: 0x8, addend: 0x0, symName: __RNvYINvCsdGrGZaRBwMb_3syn9parse_strNtNtB5_4expr5IndexEINtNtNtCsieiGu2EXtoJ_4core3ops8function5FnMutTReEE8call_mutCsiK7Gs1zPIjf_14thiserror_impl, symObjAddr: 0x53E0, symBinAddr: 0x61EC0, symSize: 0x40 }
  - { offset: 0x12EFD3, size: 0x8, addend: 0x0, symName: __RNvYNcNtINtNtNtCsieiGu2EXtoJ_4core3ops12control_flow11ControlFlowNtNtCsiK7Gs1zPIjf_14thiserror_impl3ast5FieldE5Break0INtNtBb_8function5FnMutTB11_EE8call_mutB15_, symObjAddr: 0x5600, symBinAddr: 0x620E0, symSize: 0x70 }
  - { offset: 0x12F018, size: 0x8, addend: 0x0, symName: __RNvYNcNtINtNtNtCsieiGu2EXtoJ_4core3ops12control_flow11ControlFlowNtNtCsiK7Gs1zPIjf_14thiserror_impl3ast7VariantE5Break0INtNtBb_8function5FnMutTB11_EE8call_mutB15_, symObjAddr: 0x5670, symBinAddr: 0x62150, symSize: 0x70 }
  - { offset: 0x12F05D, size: 0x8, addend: 0x0, symName: __RNvYNvNtCsaKzlTDPUHDb_11proc_macro23imp19into_compiler_tokenINtNtNtCsieiGu2EXtoJ_4core3ops8function5FnMutTNtB6_9TokenTreeEE8call_mutCsiK7Gs1zPIjf_14thiserror_impl, symObjAddr: 0x57E0, symBinAddr: 0x622C0, symSize: 0x50 }
  - { offset: 0x12F0A1, size: 0x8, addend: 0x0, symName: __RNvYNvYRNtCsaKzlTDPUHDb_11proc_macro25IdentNtNtCsieiGu2EXtoJ_4core3cmp10PartialOrd2ltINtNtNtBJ_3ops8function5FnMutTRB5_B1P_EE8call_mutCsiK7Gs1zPIjf_14thiserror_impl, symObjAddr: 0x5980, symBinAddr: 0x62460, symSize: 0x30 }
  - { offset: 0x12F0EB, size: 0x8, addend: 0x0, symName: __RNvYNvCsiK7Gs1zPIjf_14thiserror_impl12derive_errorINtNtNtCsieiGu2EXtoJ_4core3ops8function2FnTNtCscKtU6MdFI5n_10proc_macro11TokenStreamEE4callB4_, symObjAddr: 0x5780, symBinAddr: 0x62260, symSize: 0x20 }
  - { offset: 0x12F937, size: 0x8, addend: 0x0, symName: __RNvYTNtCsaKzlTDPUHDb_11proc_macro25IdentNtB5_11TokenStreamENtNtCsieiGu2EXtoJ_4core5clone5Clone5cloneCsiK7Gs1zPIjf_14thiserror_impl, symObjAddr: 0x59B0, symBinAddr: 0x62490, symSize: 0x70 }
  - { offset: 0x12F968, size: 0x8, addend: 0x0, symName: __RNvYTjNtNtCsiK7Gs1zPIjf_14thiserror_impl4attr5TraitENtNtCsieiGu2EXtoJ_4core5clone5Clone5cloneB8_, symObjAddr: 0x5A20, symBinAddr: 0x62500, symSize: 0x60 }
  - { offset: 0x12FA61, size: 0x8, addend: 0x0, symName: __RINvCsdGrGZaRBwMb_3syn5parseNtNtB2_6derive11DeriveInputECsiK7Gs1zPIjf_14thiserror_impl, symObjAddr: 0x0, symBinAddr: 0x5CB80, symSize: 0x30 }
  - { offset: 0x12FA98, size: 0x8, addend: 0x0, symName: __RINvCsdGrGZaRBwMb_3syn6parse2NtNtB2_4expr4ExprECsiK7Gs1zPIjf_14thiserror_impl, symObjAddr: 0x30, symBinAddr: 0x5CBB0, symSize: 0x30 }
  - { offset: 0x12FAD0, size: 0x8, addend: 0x0, symName: __RINvCsdGrGZaRBwMb_3syn9parse_strNtCsaKzlTDPUHDb_11proc_macro25IdentECsiK7Gs1zPIjf_14thiserror_impl, symObjAddr: 0x60, symBinAddr: 0x5CBE0, symSize: 0x30 }
  - { offset: 0x134A6B, size: 0x8, addend: 0x0, symName: __RNvXsb_NtCsdGrGZaRBwMb_3syn5parseINtNtCsieiGu2EXtoJ_4core6option6OptionNtCsaKzlTDPUHDb_11proc_macro29TokenTreeENtB5_5Parse5parseCsiK7Gs1zPIjf_14thiserror_impl, symObjAddr: 0x4FF0, symBinAddr: 0x61AD0, symSize: 0x1B0 }
  - { offset: 0x1365A1, size: 0x8, addend: 0x0, symName: __RNvXs7_NtNtNtCslJiobkLta79_5alloc11collections5btree7set_valNtB5_9SetValZSTNtNtCsieiGu2EXtoJ_4core5clone5Clone5cloneCsiK7Gs1zPIjf_14thiserror_impl, symObjAddr: 0x4450, symBinAddr: 0x60F30, symSize: 0x10 }
  - { offset: 0x13758E, size: 0x8, addend: 0x0, symName: __RNvXs_NtNtNtCslJiobkLta79_5alloc11collections5btree17dedup_sorted_iterINtB4_15DedupSortedIterRNtCsaKzlTDPUHDb_11proc_macro25IdentNtNtB6_7set_val9SetValZSTINtNtNtNtCsieiGu2EXtoJ_4core4iter8adapters3map3MapINtNtNtBa_3vec9into_iter8IntoIterB1t_ENCINvMse_NtB6_3setINtB41_8BTreeSetB1t_E16from_sorted_iterB3g_E0EENtNtNtB2z_6traits8iterator8Iterator4nextCsiK7Gs1zPIjf_14thiserror_impl, symObjAddr: 0x4E70, symBinAddr: 0x61950, symSize: 0x180 }
  - { offset: 0x13828E, size: 0x8, addend: 0x0, symName: __RINvMNtCsieiGu2EXtoJ_4core6optionINtB3_6OptionIBw_RNtNtCsiK7Gs1zPIjf_14thiserror_impl5unraw11MemberUnrawEE18get_or_insert_withNCNvMs3_NtNtNtB5_4iter8adapters8peekableINtB28_8PeekableINtNtB2a_3map3MapINtNtNtB5_5slice4iter4IterNtNtBR_3ast5FieldENCNvNtBR_6expand10fields_pat0EE4peek0EBR_, symObjAddr: 0x90, symBinAddr: 0x5CC10, symSize: 0xD0 }
  - { offset: 0x1383E2, size: 0x8, addend: 0x0, symName: __RINvMNtCsieiGu2EXtoJ_4core6optionINtB3_6OptionIBw_TRNtCsaKzlTDPUHDb_11proc_macro25IdentNtNtNtNtCslJiobkLta79_5alloc11collections5btree7set_val9SetValZSTEEE18get_or_insert_withNCNvMs3_NtNtNtB5_4iter8adapters8peekableINtB2V_8PeekableINtNtB2X_3map3MapINtNtNtB1v_3vec9into_iter8IntoIterBN_ENCINvMse_NtB1r_3setINtB4J_8BTreeSetBN_E16from_sorted_iterB3Y_E0EE4peek0ECsiK7Gs1zPIjf_14thiserror_impl, symObjAddr: 0x160, symBinAddr: 0x5CCE0, symSize: 0xD0 }
  - { offset: 0x1384A8, size: 0x8, addend: 0x0, symName: __RINvMNtCsieiGu2EXtoJ_4core6optionINtB3_6OptionINtNtCsdGrGZaRBwMb_3syn10punctuated4PairRNtCsaKzlTDPUHDb_11proc_macro211TokenStreamRNtNtBN_5token4PlusEE7or_elseNCNvXsc_BL_INtBL_5PairsB1n_B24_ENtNtNtNtB5_4iter6traits8iterator8Iterator4nexts_0ECsiK7Gs1zPIjf_14thiserror_impl, symObjAddr: 0x230, symBinAddr: 0x5CDB0, symSize: 0xB0 }
  - { offset: 0x13850B, size: 0x8, addend: 0x0, symName: __RINvMNtCsieiGu2EXtoJ_4core6optionINtB3_6OptionNtCsaKzlTDPUHDb_11proc_macro211TokenStreamE3mapBI_NCNvNtCsiK7Gs1zPIjf_14thiserror_impl6expand11impl_struct0EB1C_, symObjAddr: 0x2E0, symBinAddr: 0x5CE60, symSize: 0xD0 }
  - { offset: 0x1385AC, size: 0x8, addend: 0x0, symName: __RINvMNtCsieiGu2EXtoJ_4core6optionINtB3_6OptionNtCsaKzlTDPUHDb_11proc_macro211TokenStreamE3mapBI_NCNvNtCsiK7Gs1zPIjf_14thiserror_impl6expand11impl_structs0_0EB1C_, symObjAddr: 0x3B0, symBinAddr: 0x5CF30, symSize: 0x130 }
  - { offset: 0x13864C, size: 0x8, addend: 0x0, symName: __RINvMNtCsieiGu2EXtoJ_4core6optionINtB3_6OptionRINtNtCslJiobkLta79_5alloc5boxed3BoxNtCsaKzlTDPUHDb_11proc_macro211TokenStreamEE3mapRB1i_NvYBJ_INtNtB5_7convert5AsRefB1i_E6as_refECsiK7Gs1zPIjf_14thiserror_impl, symObjAddr: 0x4E0, symBinAddr: 0x5D060, symSize: 0x50 }
  - { offset: 0x1386CF, size: 0x8, addend: 0x0, symName: __RINvMNtCsieiGu2EXtoJ_4core6optionINtB3_6OptionRNtCsaKzlTDPUHDb_11proc_macro211TokenStreamE3mapINtNtCsdGrGZaRBwMb_3syn10punctuated4PairBI_RNtNtB1z_5token4PlusENcNtB1u_3End0ECsiK7Gs1zPIjf_14thiserror_impl, symObjAddr: 0x530, symBinAddr: 0x5D0B0, symSize: 0x80 }
  - { offset: 0x138754, size: 0x8, addend: 0x0, symName: __RINvMNtCsieiGu2EXtoJ_4core6optionINtB3_6OptionRNtNtCsdGrGZaRBwMb_3syn4data7VariantE7or_elseNCNvXsw_NtBN_10punctuatedINtB1z_11PrivateIterBJ_NtNtBN_5token5CommaENtNtNtNtB5_4iter6traits8iterator8Iterator4nexts_0ECsiK7Gs1zPIjf_14thiserror_impl, symObjAddr: 0x5B0, symBinAddr: 0x5D130, symSize: 0x90 }
  - { offset: 0x1387DD, size: 0x8, addend: 0x0, symName: __RINvMNtCsieiGu2EXtoJ_4core6optionINtB3_6OptionRNtNtCsdGrGZaRBwMb_3syn4data7VariantE7or_elseNCNvXsx_NtBN_10punctuatedINtB1z_11PrivateIterBJ_NtNtBN_5token5CommaENtNtNtNtB5_4iter6traits12double_ended19DoubleEndedIterator9next_back0ECsiK7Gs1zPIjf_14thiserror_impl, symObjAddr: 0x640, symBinAddr: 0x5D1C0, symSize: 0x90 }
  - { offset: 0x138859, size: 0x8, addend: 0x0, symName: __RINvMNtCsieiGu2EXtoJ_4core6optionINtB3_6OptionRNtNtCsdGrGZaRBwMb_3syn4path15GenericArgumentE7or_elseNCNvXsw_NtBN_10punctuatedINtB1I_11PrivateIterBJ_NtNtBN_5token5CommaENtNtNtNtB5_4iter6traits8iterator8Iterator4nexts_0ECsiK7Gs1zPIjf_14thiserror_impl, symObjAddr: 0x6D0, symBinAddr: 0x5D250, symSize: 0x90 }
  - { offset: 0x1388E2, size: 0x8, addend: 0x0, symName: __RINvMNtCsieiGu2EXtoJ_4core6optionINtB3_6OptionRNtNtCsdGrGZaRBwMb_3syn4path15GenericArgumentE7or_elseNCNvXsx_NtBN_10punctuatedINtB1I_11PrivateIterBJ_NtNtBN_5token5CommaENtNtNtNtB5_4iter6traits12double_ended19DoubleEndedIterator9next_back0ECsiK7Gs1zPIjf_14thiserror_impl, symObjAddr: 0x760, symBinAddr: 0x5D2E0, symSize: 0x90 }
  - { offset: 0x138951, size: 0x8, addend: 0x0, symName: __RINvMNtCsieiGu2EXtoJ_4core6optionINtB3_6OptionRNtNtCsdGrGZaRBwMb_3syn8lifetime8LifetimeE6map_orbNCNvNtCsiK7Gs1zPIjf_14thiserror_impl5valid28contains_non_static_lifetime0EB1C_, symObjAddr: 0x7F0, symBinAddr: 0x5D370, symSize: 0x90 }
  - { offset: 0x1389EA, size: 0x8, addend: 0x0, symName: __RINvMNtCsieiGu2EXtoJ_4core6optionINtB3_6OptionRNtNtCsiK7Gs1zPIjf_14thiserror_impl3ast5FieldE3mapIBw_NtCsaKzlTDPUHDb_11proc_macro211TokenStreamENCNvNtBN_6expand11impl_structs1_0EBN_, symObjAddr: 0x880, symBinAddr: 0x5D400, symSize: 0xB0 }
  - { offset: 0x138A57, size: 0x8, addend: 0x0, symName: __RINvMNtCsieiGu2EXtoJ_4core6optionINtB3_6OptionRNtNtCsiK7Gs1zPIjf_14thiserror_impl3ast5FieldE3mapNtCsaKzlTDPUHDb_11proc_macro211TokenStreamNCNvNtBN_6expand11impl_structs_0EBN_, symObjAddr: 0x930, symBinAddr: 0x5D4B0, symSize: 0x90 }
  - { offset: 0x138AC2, size: 0x8, addend: 0x0, symName: __RINvMNtCsieiGu2EXtoJ_4core6optionINtB3_6OptionRNtNtCsiK7Gs1zPIjf_14thiserror_impl3ast5FieldE3mapNtCsaKzlTDPUHDb_11proc_macro211TokenStreamNCNvNtBN_6expand16from_initializer0EBN_, symObjAddr: 0x9C0, symBinAddr: 0x5D540, symSize: 0x80 }
  - { offset: 0x138B2D, size: 0x8, addend: 0x0, symName: __RINvMNtCsieiGu2EXtoJ_4core6optionINtB3_6OptionRNtNtCsiK7Gs1zPIjf_14thiserror_impl3ast5FieldE6map_orbNCNvNtBN_4prop24distinct_backtrace_field0EBN_, symObjAddr: 0xA40, symBinAddr: 0x5D5C0, symSize: 0xA0 }
  - { offset: 0x138BAC, size: 0x8, addend: 0x0, symName: __RINvMNtCsieiGu2EXtoJ_4core6optionINtB3_6OptionRNtNtCsiK7Gs1zPIjf_14thiserror_impl4attr7DisplayE6map_orbNCNCNvNtBN_6expand9impl_enums0_00EBN_, symObjAddr: 0xAE0, symBinAddr: 0x5D660, symSize: 0x90 }
  - { offset: 0x138C49, size: 0x8, addend: 0x0, symName: __RINvMNtCsieiGu2EXtoJ_4core6optionINtB3_6OptionRTNtCsaKzlTDPUHDb_11proc_macro211TokenStreamNtNtCsdGrGZaRBwMb_3syn5token4PlusEE3mapINtNtB1u_10punctuated4PairRBK_RB1q_ENCNvXsc_B26_INtB26_5PairsBK_B1q_ENtNtNtNtB5_4iter6traits8iterator8Iterator4next0ECsiK7Gs1zPIjf_14thiserror_impl, symObjAddr: 0xB70, symBinAddr: 0x5D6F0, symSize: 0x80 }
  - { offset: 0x138CB4, size: 0x8, addend: 0x0, symName: __RINvMNtCsieiGu2EXtoJ_4core6optionINtB3_6OptionRTNtNtCsdGrGZaRBwMb_3syn4data7VariantNtNtBO_5token5CommaEE3mapRBK_NCNCNvXsx_NtBO_10punctuatedINtB1W_11PrivateIterBK_B1j_ENtNtNtNtB5_4iter6traits12double_ended19DoubleEndedIterator9next_back00ECsiK7Gs1zPIjf_14thiserror_impl, symObjAddr: 0xBF0, symBinAddr: 0x5D770, symSize: 0x50 }
  - { offset: 0x138D1F, size: 0x8, addend: 0x0, symName: __RINvMNtCsieiGu2EXtoJ_4core6optionINtB3_6OptionRTNtNtCsdGrGZaRBwMb_3syn4data7VariantNtNtBO_5token5CommaEE3mapRBK_NCNvXsw_NtBO_10punctuatedINtB1U_11PrivateIterBK_B1j_ENtNtNtNtB5_4iter6traits8iterator8Iterator4next0ECsiK7Gs1zPIjf_14thiserror_impl, symObjAddr: 0xC40, symBinAddr: 0x5D7C0, symSize: 0x50 }
  - { offset: 0x138D8A, size: 0x8, addend: 0x0, symName: __RINvMNtCsieiGu2EXtoJ_4core6optionINtB3_6OptionRTNtNtCsdGrGZaRBwMb_3syn4path15GenericArgumentNtNtBO_5token5CommaEE3mapRBK_NCNCNvXsx_NtBO_10punctuatedINtB25_11PrivateIterBK_B1s_ENtNtNtNtB5_4iter6traits12double_ended19DoubleEndedIterator9next_back00ECsiK7Gs1zPIjf_14thiserror_impl, symObjAddr: 0xC90, symBinAddr: 0x5D810, symSize: 0x50 }
  - { offset: 0x138DF5, size: 0x8, addend: 0x0, symName: __RINvMNtCsieiGu2EXtoJ_4core6optionINtB3_6OptionRTNtNtCsdGrGZaRBwMb_3syn4path15GenericArgumentNtNtBO_5token5CommaEE3mapRBK_NCNvXsw_NtBO_10punctuatedINtB23_11PrivateIterBK_B1s_ENtNtNtNtB5_4iter6traits8iterator8Iterator4next0ECsiK7Gs1zPIjf_14thiserror_impl, symObjAddr: 0xCE0, symBinAddr: 0x5D860, symSize: 0x50 }
  - { offset: 0x138EE2, size: 0x8, addend: 0x0, symName: __RINvMNtCsieiGu2EXtoJ_4core6optionINtB3_6OptionbE18get_or_insert_withNvNtCsiK7Gs1zPIjf_14thiserror_impl3fmt11is_syn_fullEB18_, symObjAddr: 0xD30, symBinAddr: 0x5D8B0, symSize: 0xD0 }
  - { offset: 0x139089, size: 0x8, addend: 0x0, symName: __RNvMNtCsieiGu2EXtoJ_4core6optionINtB2_6OptionINtNtCslJiobkLta79_5alloc5boxed3BoxNtCsaKzlTDPUHDb_11proc_macro211TokenStreamEE4takeCsiK7Gs1zPIjf_14thiserror_impl, symObjAddr: 0x30A0, symBinAddr: 0x5FBA0, symSize: 0x20 }
  - { offset: 0x1390E0, size: 0x8, addend: 0x0, symName: __RNvMNtCsieiGu2EXtoJ_4core6optionINtB2_6OptionINtNtCslJiobkLta79_5alloc5boxed3BoxNtCsaKzlTDPUHDb_11proc_macro211TokenStreamEE6as_refCsiK7Gs1zPIjf_14thiserror_impl, symObjAddr: 0x30C0, symBinAddr: 0x5FBC0, symSize: 0x50 }
  - { offset: 0x139146, size: 0x8, addend: 0x0, symName: __RNvMNtCsieiGu2EXtoJ_4core6optionINtB2_6OptionINtNtCslJiobkLta79_5alloc5boxed3BoxNtCsaKzlTDPUHDb_11proc_macro211TokenStreamEE7is_noneCsiK7Gs1zPIjf_14thiserror_impl, symObjAddr: 0x3110, symBinAddr: 0x5FC10, symSize: 0x30 }
  - { offset: 0x139190, size: 0x8, addend: 0x0, symName: __RNvMNtCsieiGu2EXtoJ_4core6optionINtB2_6OptionINtNtCslJiobkLta79_5alloc5boxed3BoxNtCsaKzlTDPUHDb_11proc_macro211TokenStreamEE7is_someCsiK7Gs1zPIjf_14thiserror_impl, symObjAddr: 0x3140, symBinAddr: 0x5FC40, symSize: 0x30 }
  - { offset: 0x1391E5, size: 0x8, addend: 0x0, symName: __RNvMNtCsieiGu2EXtoJ_4core6optionINtB2_6OptionNtCsaKzlTDPUHDb_11proc_macro211TokenStreamE7is_noneCsiK7Gs1zPIjf_14thiserror_impl, symObjAddr: 0x3170, symBinAddr: 0x5FC70, symSize: 0x30 }
  - { offset: 0x13922F, size: 0x8, addend: 0x0, symName: __RNvMNtCsieiGu2EXtoJ_4core6optionINtB2_6OptionNtCsaKzlTDPUHDb_11proc_macro24SpanE2orCsiK7Gs1zPIjf_14thiserror_impl, symObjAddr: 0x31A0, symBinAddr: 0x5FCA0, symSize: 0x60 }
  - { offset: 0x139295, size: 0x8, addend: 0x0, symName: __RNvMNtCsieiGu2EXtoJ_4core6optionINtB2_6OptionNtCsaKzlTDPUHDb_11proc_macro25IdentE7is_someCsiK7Gs1zPIjf_14thiserror_impl, symObjAddr: 0x3200, symBinAddr: 0x5FD00, symSize: 0x30 }
  - { offset: 0x1392CE, size: 0x8, addend: 0x0, symName: __RNvMNtCsieiGu2EXtoJ_4core6optionINtB2_6OptionNtCsaKzlTDPUHDb_11proc_macro29TokenTreeE7is_someCsiK7Gs1zPIjf_14thiserror_impl, symObjAddr: 0x3230, symBinAddr: 0x5FD30, symSize: 0x30 }
  - { offset: 0x139307, size: 0x8, addend: 0x0, symName: __RNvMNtCsieiGu2EXtoJ_4core6optionINtB2_6OptionNtNtCsdGrGZaRBwMb_3syn3lit3LitE7is_someCsiK7Gs1zPIjf_14thiserror_impl, symObjAddr: 0x3260, symBinAddr: 0x5FD60, symSize: 0x30 }
  - { offset: 0x13935C, size: 0x8, addend: 0x0, symName: __RNvMNtCsieiGu2EXtoJ_4core6optionINtB2_6OptionNtNtCsiK7Gs1zPIjf_14thiserror_impl4attr11TransparentE7is_noneBL_, symObjAddr: 0x3290, symBinAddr: 0x5FD90, symSize: 0x30 }
  - { offset: 0x1393A6, size: 0x8, addend: 0x0, symName: __RNvMNtCsieiGu2EXtoJ_4core6optionINtB2_6OptionNtNtCsiK7Gs1zPIjf_14thiserror_impl4attr11TransparentE7is_someBL_, symObjAddr: 0x32C0, symBinAddr: 0x5FDC0, symSize: 0x30 }
  - { offset: 0x1393FB, size: 0x8, addend: 0x0, symName: __RNvMNtCsieiGu2EXtoJ_4core6optionINtB2_6OptionNtNtCsiK7Gs1zPIjf_14thiserror_impl4attr3FmtE7is_noneBL_, symObjAddr: 0x32F0, symBinAddr: 0x5FDF0, symSize: 0x30 }
  - { offset: 0x139445, size: 0x8, addend: 0x0, symName: __RNvMNtCsieiGu2EXtoJ_4core6optionINtB2_6OptionNtNtCsiK7Gs1zPIjf_14thiserror_impl4attr3FmtE7is_someBL_, symObjAddr: 0x3320, symBinAddr: 0x5FE20, symSize: 0x30 }
  - { offset: 0x13947E, size: 0x8, addend: 0x0, symName: __RNvMNtCsieiGu2EXtoJ_4core6optionINtB2_6OptionNtNtCsiK7Gs1zPIjf_14thiserror_impl4attr4FromE7is_someBL_, symObjAddr: 0x3350, symBinAddr: 0x5FE50, symSize: 0x30 }
  - { offset: 0x1394B7, size: 0x8, addend: 0x0, symName: __RNvMNtCsieiGu2EXtoJ_4core6optionINtB2_6OptionNtNtCsiK7Gs1zPIjf_14thiserror_impl4attr6SourceE7is_someBL_, symObjAddr: 0x3380, symBinAddr: 0x5FE80, symSize: 0x30 }
  - { offset: 0x1394F0, size: 0x8, addend: 0x0, symName: __RNvMNtCsieiGu2EXtoJ_4core6optionINtB2_6OptionNtNtCsiK7Gs1zPIjf_14thiserror_impl4attr7DisplayE6as_refBL_, symObjAddr: 0x33B0, symBinAddr: 0x5FEB0, symSize: 0x50 }
  - { offset: 0x139556, size: 0x8, addend: 0x0, symName: __RNvMNtCsieiGu2EXtoJ_4core6optionINtB2_6OptionNtNtCsiK7Gs1zPIjf_14thiserror_impl4attr7DisplayE7is_noneBL_, symObjAddr: 0x3400, symBinAddr: 0x5FF00, symSize: 0x30 }
  - { offset: 0x1395A0, size: 0x8, addend: 0x0, symName: __RNvMNtCsieiGu2EXtoJ_4core6optionINtB2_6OptionNtNtCsiK7Gs1zPIjf_14thiserror_impl4attr7DisplayE7is_someBL_, symObjAddr: 0x3430, symBinAddr: 0x5FF30, symSize: 0x30 }
  - { offset: 0x1395D9, size: 0x8, addend: 0x0, symName: __RNvMNtCsieiGu2EXtoJ_4core6optionINtB2_6OptionRNtNtCsdGrGZaRBwMb_3syn2ty4TypeE7is_someCsiK7Gs1zPIjf_14thiserror_impl, symObjAddr: 0x3460, symBinAddr: 0x5FF60, symSize: 0x30 }
  - { offset: 0x139605, size: 0x8, addend: 0x0, symName: __RNvMNtCsieiGu2EXtoJ_4core6optionINtB2_6OptionRNtNtCsdGrGZaRBwMb_3syn2ty4TypeE9unwrap_orCsiK7Gs1zPIjf_14thiserror_impl, symObjAddr: 0x3490, symBinAddr: 0x5FF90, symSize: 0x50 }
  - { offset: 0x139687, size: 0x8, addend: 0x0, symName: __RNvMNtCsieiGu2EXtoJ_4core6optionINtB2_6OptionRNtNtCsdGrGZaRBwMb_3syn4attr9AttributeE7is_noneCsiK7Gs1zPIjf_14thiserror_impl, symObjAddr: 0x34E0, symBinAddr: 0x5FFE0, symSize: 0x30 }
  - { offset: 0x1396D1, size: 0x8, addend: 0x0, symName: __RNvMNtCsieiGu2EXtoJ_4core6optionINtB2_6OptionRNtNtCsdGrGZaRBwMb_3syn4attr9AttributeE7is_someCsiK7Gs1zPIjf_14thiserror_impl, symObjAddr: 0x3510, symBinAddr: 0x60010, symSize: 0x30 }
  - { offset: 0x139717, size: 0x8, addend: 0x0, symName: __RNvMNtCsieiGu2EXtoJ_4core6optionINtB2_6OptionRNtNtCsdGrGZaRBwMb_3syn8generics13LifetimeParamE7is_someCsiK7Gs1zPIjf_14thiserror_impl, symObjAddr: 0x3540, symBinAddr: 0x60040, symSize: 0x30 }
  - { offset: 0x13975D, size: 0x8, addend: 0x0, symName: __RNvMNtCsieiGu2EXtoJ_4core6optionINtB2_6OptionRNtNtCsdGrGZaRBwMb_3syn8generics9TypeParamE7is_someCsiK7Gs1zPIjf_14thiserror_impl, symObjAddr: 0x3570, symBinAddr: 0x60070, symSize: 0x30 }
  - { offset: 0x139789, size: 0x8, addend: 0x0, symName: __RNvMNtCsieiGu2EXtoJ_4core6optionINtB2_6OptionRNtNtCsiK7Gs1zPIjf_14thiserror_impl3ast5FieldE2orBM_, symObjAddr: 0x35A0, symBinAddr: 0x600A0, symSize: 0x60 }
  - { offset: 0x1397EF, size: 0x8, addend: 0x0, symName: __RNvMNtCsieiGu2EXtoJ_4core6optionINtB2_6OptionRNtNtCsiK7Gs1zPIjf_14thiserror_impl3ast5FieldE7is_someBM_, symObjAddr: 0x3600, symBinAddr: 0x60100, symSize: 0x30 }
  - { offset: 0x1399A1, size: 0x8, addend: 0x0, symName: __RNvXs3_NtCs9OU1sGv5X54_5quote9to_tokensINtNtCsieiGu2EXtoJ_4core6option6OptionIBC_NtCsaKzlTDPUHDb_11proc_macro211TokenStreamEENtB5_8ToTokens9to_tokensCsiK7Gs1zPIjf_14thiserror_impl, symObjAddr: 0x4040, symBinAddr: 0x60B20, symSize: 0x70 }
  - { offset: 0x1399FD, size: 0x8, addend: 0x0, symName: __RNvXs3_NtCs9OU1sGv5X54_5quote9to_tokensINtNtCsieiGu2EXtoJ_4core6option6OptionNtCsaKzlTDPUHDb_11proc_macro211TokenStreamENtB5_8ToTokens9to_tokensCsiK7Gs1zPIjf_14thiserror_impl, symObjAddr: 0x40B0, symBinAddr: 0x60B90, symSize: 0x70 }
  - { offset: 0x139A59, size: 0x8, addend: 0x0, symName: __RNvXs3_NtCs9OU1sGv5X54_5quote9to_tokensINtNtCsieiGu2EXtoJ_4core6option6OptionRNtNtCsdGrGZaRBwMb_3syn8generics11WhereClauseENtB5_8ToTokens9to_tokensCsiK7Gs1zPIjf_14thiserror_impl, symObjAddr: 0x4120, symBinAddr: 0x60C00, symSize: 0x60 }
  - { offset: 0x13B2FC, size: 0x8, addend: 0x0, symName: __RINvMNtCsdGrGZaRBwMb_3syn4attrNtB3_9Attribute15parse_args_withNCNvNtCsiK7Gs1zPIjf_14thiserror_impl4attr21parse_error_attribute0EB14_, symObjAddr: 0x0, symBinAddr: 0x62560, symSize: 0x490 }
  - { offset: 0x13B320, size: 0x8, addend: 0x0, symName: __RNvNtCsiK7Gs1zPIjf_14thiserror_impl9scan_expr11BREAK_LABEL, symObjAddr: 0x64E8, symBinAddr: 0x233270, symSize: 0x0 }
  - { offset: 0x13B545, size: 0x8, addend: 0x0, symName: __RNvNtCsiK7Gs1zPIjf_14thiserror_impl9scan_expr11BREAK_VALUE, symObjAddr: 0x6548, symBinAddr: 0x2332D0, symSize: 0x0 }
  - { offset: 0x13B55F, size: 0x8, addend: 0x0, symName: __RNvNtCsiK7Gs1zPIjf_14thiserror_impl9scan_expr11CLOSURE_RET, symObjAddr: 0x6608, symBinAddr: 0x233390, symSize: 0x0 }
  - { offset: 0x13B579, size: 0x8, addend: 0x0, symName: __RNvNtCsiK7Gs1zPIjf_14thiserror_impl9scan_expr12CLOSURE_ARGS, symObjAddr: 0x6668, symBinAddr: 0x2333F0, symSize: 0x0 }
  - { offset: 0x13B593, size: 0x8, addend: 0x0, symName: __RNvNtCsiK7Gs1zPIjf_14thiserror_impl9scan_expr3DOT, symObjAddr: 0x66C8, symBinAddr: 0x233450, symSize: 0x0 }
  - { offset: 0x13B5AD, size: 0x8, addend: 0x0, symName: __RNvNtCsiK7Gs1zPIjf_14thiserror_impl9scan_expr3FOR, symObjAddr: 0x6758, symBinAddr: 0x2334E0, symSize: 0x0 }
  - { offset: 0x13B5C7, size: 0x8, addend: 0x0, symName: __RNvNtCsiK7Gs1zPIjf_14thiserror_impl9scan_expr3RAW, symObjAddr: 0x67B8, symBinAddr: 0x233540, symSize: 0x0 }
  - { offset: 0x13B5E1, size: 0x8, addend: 0x0, symName: __RNvNtCsiK7Gs1zPIjf_14thiserror_impl9scan_expr4INIT, symObjAddr: 0x68A8, symBinAddr: 0x233630, symSize: 0x0 }
  - { offset: 0x13B5FB, size: 0x8, addend: 0x0, symName: __RNvNtCsiK7Gs1zPIjf_14thiserror_impl9scan_expr4PATH, symObjAddr: 0x6DE8, symBinAddr: 0x233B70, symSize: 0x0 }
  - { offset: 0x13B615, size: 0x8, addend: 0x0, symName: __RNvNtCsiK7Gs1zPIjf_14thiserror_impl9scan_expr5ASYNC, symObjAddr: 0x6EA8, symBinAddr: 0x233C30, symSize: 0x0 }
  - { offset: 0x13B62F, size: 0x8, addend: 0x0, symName: __RNvNtCsiK7Gs1zPIjf_14thiserror_impl9scan_expr5BLOCK, symObjAddr: 0x6F38, symBinAddr: 0x233CC0, symSize: 0x0 }
  - { offset: 0x13B649, size: 0x8, addend: 0x0, symName: __RNvNtCsiK7Gs1zPIjf_14thiserror_impl9scan_expr5CONST, symObjAddr: 0x6F68, symBinAddr: 0x233CF0, symSize: 0x0 }
  - { offset: 0x13B663, size: 0x8, addend: 0x0, symName: __RNvNtCsiK7Gs1zPIjf_14thiserror_impl9scan_expr5RANGE, symObjAddr: 0x6FC8, symBinAddr: 0x233D50, symSize: 0x0 }
  - { offset: 0x13B67D, size: 0x8, addend: 0x0, symName: __RNvNtCsiK7Gs1zPIjf_14thiserror_impl9scan_expr6METHOD, symObjAddr: 0x70E8, symBinAddr: 0x233E70, symSize: 0x0 }
  - { offset: 0x13B697, size: 0x8, addend: 0x0, symName: __RNvNtCsiK7Gs1zPIjf_14thiserror_impl9scan_expr6RETURN, symObjAddr: 0x7118, symBinAddr: 0x233EA0, symSize: 0x0 }
  - { offset: 0x13B6B1, size: 0x8, addend: 0x0, symName: __RNvNtCsiK7Gs1zPIjf_14thiserror_impl9scan_expr7CLOSURE, symObjAddr: 0x7178, symBinAddr: 0x233F00, symSize: 0x0 }
  - { offset: 0x13B6CB, size: 0x8, addend: 0x0, symName: __RNvNtCsiK7Gs1zPIjf_14thiserror_impl9scan_expr7IF_ELSE, symObjAddr: 0x7298, symBinAddr: 0x234020, symSize: 0x0 }
  - { offset: 0x13B6E5, size: 0x8, addend: 0x0, symName: __RNvNtCsiK7Gs1zPIjf_14thiserror_impl9scan_expr7IF_THEN, symObjAddr: 0x72F8, symBinAddr: 0x234080, symSize: 0x0 }
  - { offset: 0x13B6FF, size: 0x8, addend: 0x0, symName: __RNvNtCsiK7Gs1zPIjf_14thiserror_impl9scan_expr7PATTERN, symObjAddr: 0x7358, symBinAddr: 0x2340E0, symSize: 0x0 }
  - { offset: 0x13B719, size: 0x8, addend: 0x0, symName: __RNvNtCsiK7Gs1zPIjf_14thiserror_impl9scan_expr7POSTFIX, symObjAddr: 0x7658, symBinAddr: 0x2343E0, symSize: 0x0 }
  - { offset: 0x13B733, size: 0x8, addend: 0x0, symName: __RNvNtCsiK7Gs1zPIjf_14thiserror_impl9scan_expr8CONTINUE, symObjAddr: 0x7838, symBinAddr: 0x2345C0, symSize: 0x0 }
  - { offset: 0x13B74D, size: 0x8, addend: 0x0, symName: __RNvNtCsiK7Gs1zPIjf_14thiserror_impl9scan_expr9REFERENCE, symObjAddr: 0x7898, symBinAddr: 0x234620, symSize: 0x0 }
  - { offset: 0x13B75F, size: 0x8, addend: 0x0, symName: __RNCNvNtCsiK7Gs1zPIjf_14thiserror_impl9scan_expr9scan_expr0B5_, symObjAddr: 0x11D0, symBinAddr: 0x63730, symSize: 0x230 }
  - { offset: 0x13B7E8, size: 0x8, addend: 0x0, symName: __RNCNvNtCsiK7Gs1zPIjf_14thiserror_impl9scan_expr9scan_exprs0_0B5_, symObjAddr: 0x1400, symBinAddr: 0x63960, symSize: 0x130 }
  - { offset: 0x13B85C, size: 0x8, addend: 0x0, symName: __RNCNvNtCsiK7Gs1zPIjf_14thiserror_impl9scan_expr9scan_exprs1_0B5_, symObjAddr: 0x1530, symBinAddr: 0x63A90, symSize: 0x140 }
  - { offset: 0x13B8DF, size: 0x8, addend: 0x0, symName: __RNCNvNtCsiK7Gs1zPIjf_14thiserror_impl9scan_expr9scan_exprs_0B5_, symObjAddr: 0x1670, symBinAddr: 0x63BD0, symSize: 0x380 }
  - { offset: 0x13BA0C, size: 0x8, addend: 0x0, symName: __RNvNtCsiK7Gs1zPIjf_14thiserror_impl9scan_expr9scan_expr, symObjAddr: 0x4360, symBinAddr: 0x668C0, symSize: 0xFB0 }
  - { offset: 0x13BFB2, size: 0x8, addend: 0x0, symName: __RNCNvMs1_NtCsiK7Gs1zPIjf_14thiserror_impl5validNtNtB9_3ast7Variant8validate0B9_, symObjAddr: 0x1160, symBinAddr: 0x636C0, symSize: 0x20 }
  - { offset: 0x13BFFB, size: 0x8, addend: 0x0, symName: __RNCNvMs_NtCsiK7Gs1zPIjf_14thiserror_impl5validNtNtB8_3ast6Struct8validate0B8_, symObjAddr: 0x1180, symBinAddr: 0x636E0, symSize: 0x20 }
  - { offset: 0x13C03F, size: 0x8, addend: 0x0, symName: __RNCNvNtCsiK7Gs1zPIjf_14thiserror_impl5valid28contains_non_static_lifetime0B5_, symObjAddr: 0x11A0, symBinAddr: 0x63700, symSize: 0x30 }
  - { offset: 0x13C07D, size: 0x8, addend: 0x0, symName: __RNvNtCsiK7Gs1zPIjf_14thiserror_impl5valid17check_field_attrs, symObjAddr: 0x34F0, symBinAddr: 0x65A50, symSize: 0x7C0 }
  - { offset: 0x13C246, size: 0x8, addend: 0x0, symName: __RNvNtCsiK7Gs1zPIjf_14thiserror_impl5valid21check_non_field_attrs, symObjAddr: 0x3CB0, symBinAddr: 0x66210, symSize: 0x3D0 }
  - { offset: 0x13C308, size: 0x8, addend: 0x0, symName: __RNvNtCsiK7Gs1zPIjf_14thiserror_impl5valid28contains_non_static_lifetime, symObjAddr: 0x4080, symBinAddr: 0x665E0, symSize: 0x2E0 }
  - { offset: 0x13CD1C, size: 0x8, addend: 0x0, symName: __RINvXs5_NtCsaKzlTDPUHDb_11proc_macro23impNtB6_11TokenStreamINtNtNtNtCsieiGu2EXtoJ_4core4iter6traits7collect12FromIteratorNtB8_9TokenTreeE9from_iterINtNtNtCslJiobkLta79_5alloc3vec9into_iter8IntoIterB1V_EECsiK7Gs1zPIjf_14thiserror_impl, symObjAddr: 0xC00, symBinAddr: 0x63160, symSize: 0x1C0 }
  - { offset: 0x13CD58, size: 0x8, addend: 0x0, symName: __RINvXs7_NtCsaKzlTDPUHDb_11proc_macro23impNtB6_11TokenStreamINtNtNtNtCsieiGu2EXtoJ_4core4iter6traits7collect6ExtendNtB8_9TokenTreeE6extendNtB8_11TokenStreamECsiK7Gs1zPIjf_14thiserror_impl, symObjAddr: 0xDC0, symBinAddr: 0x63320, symSize: 0x170 }
  - { offset: 0x13CDF4, size: 0x8, addend: 0x0, symName: __RNvXsA_NtCsaKzlTDPUHDb_11proc_macro23impNtB5_19DeferredTokenStreamNtNtCsieiGu2EXtoJ_4core5clone5Clone5cloneCsiK7Gs1zPIjf_14thiserror_impl, symObjAddr: 0x5960, symBinAddr: 0x67EC0, symSize: 0xA0 }
  - { offset: 0x13CE26, size: 0x8, addend: 0x0, symName: __RNvXsF_NtCsaKzlTDPUHDb_11proc_macro23impNtB5_5IdentNtNtCsieiGu2EXtoJ_4core5clone5Clone5cloneCsiK7Gs1zPIjf_14thiserror_impl, symObjAddr: 0x5A00, symBinAddr: 0x67F60, symSize: 0x90 }
  - { offset: 0x13CE96, size: 0x8, addend: 0x0, symName: __RNvXsz_NtCsaKzlTDPUHDb_11proc_macro23impNtB5_11TokenStreamNtNtCsieiGu2EXtoJ_4core5clone5Clone5cloneCsiK7Gs1zPIjf_14thiserror_impl, symObjAddr: 0x5B70, symBinAddr: 0x680D0, symSize: 0xB0 }
  - { offset: 0x141468, size: 0x8, addend: 0x0, symName: __RINvYNtNtCsdGrGZaRBwMb_3syn8generics10TypeParamsNtNtNtNtCsieiGu2EXtoJ_4core4iter6traits8iterator8Iterator3mapRNtCsaKzlTDPUHDb_11proc_macro25IdentNCNvMNtCsiK7Gs1zPIjf_14thiserror_impl8genericsNtB2o_13ParamsInScope3new0EB2q_, symObjAddr: 0xF60, symBinAddr: 0x634C0, symSize: 0x20 }
  - { offset: 0x1414C0, size: 0x8, addend: 0x0, symName: __RNvYNtNtCsdGrGZaRBwMb_3syn8generics10TypeParamsNtNtNtNtCsieiGu2EXtoJ_4core4iter6traits8iterator8Iterator9size_hintCsiK7Gs1zPIjf_14thiserror_impl, symObjAddr: 0x5C20, symBinAddr: 0x68180, symSize: 0x30 }
  - { offset: 0x141835, size: 0x8, addend: 0x0, symName: __RNvMsl_NtCsieiGu2EXtoJ_4core5arrayATNtNtCsiK7Gs1zPIjf_14thiserror_impl9scan_expr5InputNtBA_6ActionEj1c_8as_sliceBC_, symObjAddr: 0x34D0, symBinAddr: 0x65A30, symSize: 0x20 }
  - { offset: 0x141877, size: 0x8, addend: 0x0, symName: __RNvXs4_NtNtCsieiGu2EXtoJ_4core5array4iterINtB5_8IntoIterjKj2_ENtNtNtB9_3ops4drop4Drop4dropCsiK7Gs1zPIjf_14thiserror_impl, symObjAddr: 0x5950, symBinAddr: 0x67EB0, symSize: 0x10 }
  - { offset: 0x141C5F, size: 0x8, addend: 0x0, symName: __RNvNvNtNtCsieiGu2EXtoJ_4core5slice3raw14from_raw_parts18precondition_checkCsiK7Gs1zPIjf_14thiserror_impl, symObjAddr: 0x5310, symBinAddr: 0x67870, symSize: 0x260 }
  - { offset: 0x141E2D, size: 0x8, addend: 0x0, symName: __RNvNvNtNtCsieiGu2EXtoJ_4core5slice3raw18from_raw_parts_mut18precondition_checkCsiK7Gs1zPIjf_14thiserror_impl, symObjAddr: 0x5570, symBinAddr: 0x67AD0, symSize: 0x260 }
  - { offset: 0x14213B, size: 0x8, addend: 0x0, symName: __RNvXs_NtNtCsieiGu2EXtoJ_4core5slice4iterRSTNtNtCsiK7Gs1zPIjf_14thiserror_impl9scan_expr5InputNtBH_6ActionENtNtNtNtB8_4iter6traits7collect12IntoIterator9into_iterBJ_, symObjAddr: 0x5B20, symBinAddr: 0x68080, symSize: 0x50 }
  - { offset: 0x142317, size: 0x8, addend: 0x0, symName: __RNvXs_NtNtCsieiGu2EXtoJ_4core3str6traitseNtNtB8_3cmp9PartialEq2eqCsiK7Gs1zPIjf_14thiserror_impl, symObjAddr: 0x5A90, symBinAddr: 0x67FF0, symSize: 0x90 }
  - { offset: 0x1449BE, size: 0x8, addend: 0x0, symName: __RINvXsa_NtCsdGrGZaRBwMb_3syn4exprNtB6_5IndexNtNtCsieiGu2EXtoJ_4core4hash4Hash4hashNtNtNtCsHUR1vrdMJt_3std4hash6random13DefaultHasherECsiK7Gs1zPIjf_14thiserror_impl, symObjAddr: 0xF30, symBinAddr: 0x63490, symSize: 0x30 }
  - { offset: 0x1473AF, size: 0x8, addend: 0x0, symName: __RNvXNtCsdGrGZaRBwMb_3syn11parse_quoteNtNtB4_8generics14WherePredicateNtB2_10ParseQuote5parseCsiK7Gs1zPIjf_14thiserror_impl, symObjAddr: 0x5920, symBinAddr: 0x67E80, symSize: 0x30 }
  - { offset: 0x14A493, size: 0x8, addend: 0x0, symName: __RNCINvMsm_NtNtNtCslJiobkLta79_5alloc11collections5btree8navigateINtNtBa_4node6HandleINtB13_7NodeRefNtNtB13_6marker5DyingNtNtBe_6string6StringNtNtBa_7set_val9SetValZSTNtB1B_4LeafENtB1B_4EdgeE27deallocating_next_uncheckedNtNtBe_5alloc6GlobalE0CsiK7Gs1zPIjf_14thiserror_impl, symObjAddr: 0xF80, symBinAddr: 0x634E0, symSize: 0x60 }
  - { offset: 0x14A503, size: 0x8, addend: 0x0, symName: __RNCINvMsm_NtNtNtCslJiobkLta79_5alloc11collections5btree8navigateINtNtBa_4node6HandleINtB13_7NodeRefNtNtB13_6marker5DyingNtNtBe_6string6StringTINtNtBa_3set8BTreeSetB1U_EINtNtCsdGrGZaRBwMb_3syn10punctuated10PunctuatedNtCsaKzlTDPUHDb_11proc_macro211TokenStreamNtNtB2L_5token4PlusEENtB1B_4LeafENtB1B_4EdgeE27deallocating_next_uncheckedNtNtBe_5alloc6GlobalE0CsiK7Gs1zPIjf_14thiserror_impl, symObjAddr: 0xFE0, symBinAddr: 0x63540, symSize: 0x60 }
  - { offset: 0x14A573, size: 0x8, addend: 0x0, symName: __RNCINvMsm_NtNtNtCslJiobkLta79_5alloc11collections5btree8navigateINtNtBa_4node6HandleINtB13_7NodeRefNtNtB13_6marker5DyingNtNtCsiK7Gs1zPIjf_14thiserror_impl5unraw10IdentUnrawNtNtBa_7set_val9SetValZSTNtB1B_4LeafENtB1B_4EdgeE27deallocating_next_uncheckedNtNtBe_5alloc6GlobalE0B1Y_, symObjAddr: 0x1040, symBinAddr: 0x635A0, symSize: 0x60 }
  - { offset: 0x14A5E3, size: 0x8, addend: 0x0, symName: __RNCINvMsm_NtNtNtCslJiobkLta79_5alloc11collections5btree8navigateINtNtBa_4node6HandleINtB13_7NodeRefNtNtB13_6marker5DyingRNtCsaKzlTDPUHDb_11proc_macro25IdentNtNtBa_7set_val9SetValZSTNtB1B_4LeafENtB1B_4EdgeE27deallocating_next_uncheckedNtNtBe_5alloc6GlobalE0CsiK7Gs1zPIjf_14thiserror_impl, symObjAddr: 0x10A0, symBinAddr: 0x63600, symSize: 0x60 }
  - { offset: 0x14A653, size: 0x8, addend: 0x0, symName: __RNCINvMsm_NtNtNtCslJiobkLta79_5alloc11collections5btree8navigateINtNtBa_4node6HandleINtB13_7NodeRefNtNtB13_6marker5DyingTjNtNtCsiK7Gs1zPIjf_14thiserror_impl4attr5TraitENtNtBa_7set_val9SetValZSTNtB1B_4LeafENtB1B_4EdgeE27deallocating_next_uncheckedNtNtBe_5alloc6GlobalE0B20_, symObjAddr: 0x1100, symBinAddr: 0x63660, symSize: 0x60 }
  - { offset: 0x14AD5F, size: 0x8, addend: 0x0, symName: __RINvMNtCsdGrGZaRBwMb_3syn4attrNtB3_9Attribute15parse_args_withNCNvNtCsiK7Gs1zPIjf_14thiserror_impl4attr21parse_error_attribute0EB14_, symObjAddr: 0x0, symBinAddr: 0x62560, symSize: 0x490 }
  - { offset: 0x14AEBA, size: 0x8, addend: 0x0, symName: __RINvMs0_NtCsdGrGZaRBwMb_3syn4attrNtB6_8MetaList15parse_args_withNCNvNtCsiK7Gs1zPIjf_14thiserror_impl4attr21parse_error_attribute0EB16_, symObjAddr: 0x490, symBinAddr: 0x629F0, symSize: 0x130 }
  - { offset: 0x14AF89, size: 0x8, addend: 0x0, symName: __RINvMsb_NtNtNtCslJiobkLta79_5alloc11collections5btree8navigateINtB6_13LazyLeafRangeNtNtNtB8_4node6marker5DyingNtNtBc_6string6StringNtNtB8_7set_val9SetValZSTE16deallocating_endNtNtBc_5alloc6GlobalECsiK7Gs1zPIjf_14thiserror_impl, symObjAddr: 0x5C0, symBinAddr: 0x62B20, symSize: 0x90 }
  - { offset: 0x14B05B, size: 0x8, addend: 0x0, symName: __RINvMsb_NtNtNtCslJiobkLta79_5alloc11collections5btree8navigateINtB6_13LazyLeafRangeNtNtNtB8_4node6marker5DyingNtNtBc_6string6StringNtNtB8_7set_val9SetValZSTE27deallocating_next_uncheckedNtNtBc_5alloc6GlobalECsiK7Gs1zPIjf_14thiserror_impl, symObjAddr: 0x650, symBinAddr: 0x62BB0, symSize: 0xB0 }
  - { offset: 0x14B1B2, size: 0x8, addend: 0x0, symName: __RINvMsb_NtNtNtCslJiobkLta79_5alloc11collections5btree8navigateINtB6_13LazyLeafRangeNtNtNtB8_4node6marker5DyingNtNtBc_6string6StringTINtNtB8_3set8BTreeSetB1K_EINtNtCsdGrGZaRBwMb_3syn10punctuated10PunctuatedNtCsaKzlTDPUHDb_11proc_macro211TokenStreamNtNtB2B_5token4PlusEEE16deallocating_endNtNtBc_5alloc6GlobalECsiK7Gs1zPIjf_14thiserror_impl, symObjAddr: 0x700, symBinAddr: 0x62C60, symSize: 0x90 }
  - { offset: 0x14B284, size: 0x8, addend: 0x0, symName: __RINvMsb_NtNtNtCslJiobkLta79_5alloc11collections5btree8navigateINtB6_13LazyLeafRangeNtNtNtB8_4node6marker5DyingNtNtBc_6string6StringTINtNtB8_3set8BTreeSetB1K_EINtNtCsdGrGZaRBwMb_3syn10punctuated10PunctuatedNtCsaKzlTDPUHDb_11proc_macro211TokenStreamNtNtB2B_5token4PlusEEE27deallocating_next_uncheckedNtNtBc_5alloc6GlobalECsiK7Gs1zPIjf_14thiserror_impl, symObjAddr: 0x790, symBinAddr: 0x62CF0, symSize: 0xB0 }
  - { offset: 0x14B367, size: 0x8, addend: 0x0, symName: __RINvMsb_NtNtNtCslJiobkLta79_5alloc11collections5btree8navigateINtB6_13LazyLeafRangeNtNtNtB8_4node6marker5DyingNtNtCsiK7Gs1zPIjf_14thiserror_impl5unraw10IdentUnrawNtNtB8_7set_val9SetValZSTE16deallocating_endNtNtBc_5alloc6GlobalEB1O_, symObjAddr: 0x840, symBinAddr: 0x62DA0, symSize: 0x90 }
  - { offset: 0x14B439, size: 0x8, addend: 0x0, symName: __RINvMsb_NtNtNtCslJiobkLta79_5alloc11collections5btree8navigateINtB6_13LazyLeafRangeNtNtNtB8_4node6marker5DyingNtNtCsiK7Gs1zPIjf_14thiserror_impl5unraw10IdentUnrawNtNtB8_7set_val9SetValZSTE27deallocating_next_uncheckedNtNtBc_5alloc6GlobalEB1O_, symObjAddr: 0x8D0, symBinAddr: 0x62E30, symSize: 0xB0 }
  - { offset: 0x14B529, size: 0x8, addend: 0x0, symName: __RINvMsb_NtNtNtCslJiobkLta79_5alloc11collections5btree8navigateINtB6_13LazyLeafRangeNtNtNtB8_4node6marker5DyingRNtCsaKzlTDPUHDb_11proc_macro25IdentNtNtB8_7set_val9SetValZSTE16deallocating_endNtNtBc_5alloc6GlobalECsiK7Gs1zPIjf_14thiserror_impl, symObjAddr: 0x980, symBinAddr: 0x62EE0, symSize: 0x90 }
  - { offset: 0x14B5FB, size: 0x8, addend: 0x0, symName: __RINvMsb_NtNtNtCslJiobkLta79_5alloc11collections5btree8navigateINtB6_13LazyLeafRangeNtNtNtB8_4node6marker5DyingRNtCsaKzlTDPUHDb_11proc_macro25IdentNtNtB8_7set_val9SetValZSTE27deallocating_next_uncheckedNtNtBc_5alloc6GlobalECsiK7Gs1zPIjf_14thiserror_impl, symObjAddr: 0xA10, symBinAddr: 0x62F70, symSize: 0xB0 }
  - { offset: 0x14B6AA, size: 0x8, addend: 0x0, symName: __RINvMsb_NtNtNtCslJiobkLta79_5alloc11collections5btree8navigateINtB6_13LazyLeafRangeNtNtNtB8_4node6marker5DyingTjNtNtCsiK7Gs1zPIjf_14thiserror_impl4attr5TraitENtNtB8_7set_val9SetValZSTE16deallocating_endNtNtBc_5alloc6GlobalEB1Q_, symObjAddr: 0xAC0, symBinAddr: 0x63020, symSize: 0x90 }
  - { offset: 0x14B77C, size: 0x8, addend: 0x0, symName: __RINvMsb_NtNtNtCslJiobkLta79_5alloc11collections5btree8navigateINtB6_13LazyLeafRangeNtNtNtB8_4node6marker5DyingTjNtNtCsiK7Gs1zPIjf_14thiserror_impl4attr5TraitENtNtB8_7set_val9SetValZSTE27deallocating_next_uncheckedNtNtBc_5alloc6GlobalEB1Q_, symObjAddr: 0xB50, symBinAddr: 0x630B0, symSize: 0xB0 }
  - { offset: 0x14BB21, size: 0x8, addend: 0x0, symName: __RNvMsb_NtNtNtCslJiobkLta79_5alloc11collections5btree8navigateINtB5_13LazyLeafRangeNtNtNtB7_4node6marker5DyingNtNtBb_6string6StringNtNtB7_7set_val9SetValZSTE10take_frontCsiK7Gs1zPIjf_14thiserror_impl, symObjAddr: 0x19F0, symBinAddr: 0x63F50, symSize: 0x2E0 }
  - { offset: 0x14BE9C, size: 0x8, addend: 0x0, symName: __RNvMsb_NtNtNtCslJiobkLta79_5alloc11collections5btree8navigateINtB5_13LazyLeafRangeNtNtNtB7_4node6marker5DyingNtNtBb_6string6StringTINtNtB7_3set8BTreeSetB1J_EINtNtCsdGrGZaRBwMb_3syn10punctuated10PunctuatedNtCsaKzlTDPUHDb_11proc_macro211TokenStreamNtNtB2A_5token4PlusEEE10take_frontCsiK7Gs1zPIjf_14thiserror_impl, symObjAddr: 0x1CD0, symBinAddr: 0x64230, symSize: 0x2E0 }
  - { offset: 0x14C217, size: 0x8, addend: 0x0, symName: __RNvMsb_NtNtNtCslJiobkLta79_5alloc11collections5btree8navigateINtB5_13LazyLeafRangeNtNtNtB7_4node6marker5DyingNtNtCsiK7Gs1zPIjf_14thiserror_impl5unraw10IdentUnrawNtNtB7_7set_val9SetValZSTE10take_frontB1N_, symObjAddr: 0x1FB0, symBinAddr: 0x64510, symSize: 0x2E0 }
  - { offset: 0x14C592, size: 0x8, addend: 0x0, symName: __RNvMsb_NtNtNtCslJiobkLta79_5alloc11collections5btree8navigateINtB5_13LazyLeafRangeNtNtNtB7_4node6marker5DyingRNtCsaKzlTDPUHDb_11proc_macro25IdentNtNtB7_7set_val9SetValZSTE10take_frontCsiK7Gs1zPIjf_14thiserror_impl, symObjAddr: 0x2290, symBinAddr: 0x647F0, symSize: 0x2E0 }
  - { offset: 0x14C90D, size: 0x8, addend: 0x0, symName: __RNvMsb_NtNtNtCslJiobkLta79_5alloc11collections5btree8navigateINtB5_13LazyLeafRangeNtNtNtB7_4node6marker5DyingTjNtNtCsiK7Gs1zPIjf_14thiserror_impl4attr5TraitENtNtB7_7set_val9SetValZSTE10take_frontB1P_, symObjAddr: 0x2570, symBinAddr: 0x64AD0, symSize: 0x2E0 }
  - { offset: 0x14CC6C, size: 0x8, addend: 0x0, symName: __RNvMsc_NtNtNtCslJiobkLta79_5alloc11collections5btree8navigateINtB5_13LazyLeafRangeNtNtNtB7_4node6marker5DyingNtNtBb_6string6StringNtNtB7_7set_val9SetValZSTE10init_frontCsiK7Gs1zPIjf_14thiserror_impl, symObjAddr: 0x2850, symBinAddr: 0x64DB0, symSize: 0x280 }
  - { offset: 0x14CF58, size: 0x8, addend: 0x0, symName: __RNvMsc_NtNtNtCslJiobkLta79_5alloc11collections5btree8navigateINtB5_13LazyLeafRangeNtNtNtB7_4node6marker5DyingNtNtBb_6string6StringTINtNtB7_3set8BTreeSetB1J_EINtNtCsdGrGZaRBwMb_3syn10punctuated10PunctuatedNtCsaKzlTDPUHDb_11proc_macro211TokenStreamNtNtB2A_5token4PlusEEE10init_frontCsiK7Gs1zPIjf_14thiserror_impl, symObjAddr: 0x2AD0, symBinAddr: 0x65030, symSize: 0x280 }
  - { offset: 0x14D244, size: 0x8, addend: 0x0, symName: __RNvMsc_NtNtNtCslJiobkLta79_5alloc11collections5btree8navigateINtB5_13LazyLeafRangeNtNtNtB7_4node6marker5DyingNtNtCsiK7Gs1zPIjf_14thiserror_impl5unraw10IdentUnrawNtNtB7_7set_val9SetValZSTE10init_frontB1N_, symObjAddr: 0x2D50, symBinAddr: 0x652B0, symSize: 0x280 }
  - { offset: 0x14D530, size: 0x8, addend: 0x0, symName: __RNvMsc_NtNtNtCslJiobkLta79_5alloc11collections5btree8navigateINtB5_13LazyLeafRangeNtNtNtB7_4node6marker5DyingRNtCsaKzlTDPUHDb_11proc_macro25IdentNtNtB7_7set_val9SetValZSTE10init_frontCsiK7Gs1zPIjf_14thiserror_impl, symObjAddr: 0x2FD0, symBinAddr: 0x65530, symSize: 0x280 }
  - { offset: 0x14D81C, size: 0x8, addend: 0x0, symName: __RNvMsc_NtNtNtCslJiobkLta79_5alloc11collections5btree8navigateINtB5_13LazyLeafRangeNtNtNtB7_4node6marker5DyingTjNtNtCsiK7Gs1zPIjf_14thiserror_impl4attr5TraitENtNtB7_7set_val9SetValZSTE10init_frontB1P_, symObjAddr: 0x3250, symBinAddr: 0x657B0, symSize: 0x280 }
  - { offset: 0x14DB3D, size: 0x8, addend: 0x0, symName: __RNvXNtCs9OU1sGv5X54_5quote14ident_fragmentRNtNtCsdGrGZaRBwMb_3syn4expr5IndexNtB2_13IdentFragment3fmtCsiK7Gs1zPIjf_14thiserror_impl, symObjAddr: 0x57D0, symBinAddr: 0x67D30, symSize: 0x30 }
  - { offset: 0x14DB80, size: 0x8, addend: 0x0, symName: __RNvXNtCs9OU1sGv5X54_5quote14ident_fragmentRNtNtCsdGrGZaRBwMb_3syn4expr5IndexNtB2_13IdentFragment4spanCsiK7Gs1zPIjf_14thiserror_impl, symObjAddr: 0x5800, symBinAddr: 0x67D60, symSize: 0x30 }
  - { offset: 0x14DBB5, size: 0x8, addend: 0x0, symName: __RNvXNtCs9OU1sGv5X54_5quote14ident_fragmentRRNtNtCsdGrGZaRBwMb_3syn4expr5IndexNtB2_13IdentFragment3fmtCsiK7Gs1zPIjf_14thiserror_impl, symObjAddr: 0x5830, symBinAddr: 0x67D90, symSize: 0x30 }
  - { offset: 0x14DBF8, size: 0x8, addend: 0x0, symName: __RNvXNtCs9OU1sGv5X54_5quote14ident_fragmentRRNtNtCsdGrGZaRBwMb_3syn4expr5IndexNtB2_13IdentFragment4spanCsiK7Gs1zPIjf_14thiserror_impl, symObjAddr: 0x5860, symBinAddr: 0x67DC0, symSize: 0x30 }
  - { offset: 0x14DC39, size: 0x8, addend: 0x0, symName: __RNvXNtCs9OU1sGv5X54_5quote9to_tokensRNtNtCsdGrGZaRBwMb_3syn4expr8ExprPathNtB2_8ToTokens9to_tokensCsiK7Gs1zPIjf_14thiserror_impl, symObjAddr: 0x5890, symBinAddr: 0x67DF0, symSize: 0x30 }
  - { offset: 0x14DC78, size: 0x8, addend: 0x0, symName: __RNvXNtCs9OU1sGv5X54_5quote9to_tokensRNtNtCsdGrGZaRBwMb_3syn8generics11WhereClauseNtB2_8ToTokens9to_tokensCsiK7Gs1zPIjf_14thiserror_impl, symObjAddr: 0x58C0, symBinAddr: 0x67E20, symSize: 0x30 }
  - { offset: 0x14DCB7, size: 0x8, addend: 0x0, symName: __RNvXNtCs9OU1sGv5X54_5quote9to_tokensRRNtNtCsdGrGZaRBwMb_3syn4attr9AttributeNtB2_8ToTokens9to_tokensCsiK7Gs1zPIjf_14thiserror_impl, symObjAddr: 0x58F0, symBinAddr: 0x67E50, symSize: 0x30 }
  - { offset: 0x14DCFC, size: 0x8, addend: 0x0, symName: __RNvYRNtNtCsdGrGZaRBwMb_3syn4attr9AttributeNtNtCs9OU1sGv5X54_5quote9to_tokens8ToTokens15to_token_streamCsiK7Gs1zPIjf_14thiserror_impl, symObjAddr: 0x5C50, symBinAddr: 0x681B0, symSize: 0x90 }
  - { offset: 0x14DD46, size: 0x8, addend: 0x0, symName: __RNvYRNtNtCsdGrGZaRBwMb_3syn4attr9AttributeNtNtCs9OU1sGv5X54_5quote9to_tokens8ToTokens17into_token_streamCsiK7Gs1zPIjf_14thiserror_impl, symObjAddr: 0x5CE0, symBinAddr: 0x68240, symSize: 0x50 }
  - { offset: 0x14DD7B, size: 0x8, addend: 0x0, symName: __RNvYRRNtNtCsdGrGZaRBwMb_3syn4attr9AttributeNtNtCs9OU1sGv5X54_5quote9to_tokens8ToTokens15to_token_streamCsiK7Gs1zPIjf_14thiserror_impl, symObjAddr: 0x5D30, symBinAddr: 0x68290, symSize: 0x90 }
  - { offset: 0x14DDC5, size: 0x8, addend: 0x0, symName: __RNvYRRNtNtCsdGrGZaRBwMb_3syn4attr9AttributeNtNtCs9OU1sGv5X54_5quote9to_tokens8ToTokens17into_token_streamCsiK7Gs1zPIjf_14thiserror_impl, symObjAddr: 0x5DC0, symBinAddr: 0x68320, symSize: 0x50 }
  - { offset: 0x14E35D, size: 0x8, addend: 0x0, symName: __RINvXNvMNtCslJiobkLta79_5alloc5sliceSp9to_vec_inNtNtCsdGrGZaRBwMb_3syn4item11ForeignItemNtB3_10ConvertVec6to_vecNtNtB8_5alloc6GlobalEBO_, symObjAddr: 0x0, symBinAddr: 0x683E0, symSize: 0x490 }
  - { offset: 0x14FB51, size: 0x8, addend: 0x0, symName: __RINvXNvMNtCslJiobkLta79_5alloc5sliceSp9to_vec_inNtNtCsdGrGZaRBwMb_3syn4item11ForeignItemNtB3_10ConvertVec6to_vecNtNtB8_5alloc6GlobalEBO_, symObjAddr: 0x0, symBinAddr: 0x683E0, symSize: 0x490 }
  - { offset: 0x1500A5, size: 0x8, addend: 0x0, symName: __RINvXNvMNtCslJiobkLta79_5alloc5sliceSp9to_vec_inNtNtCsdGrGZaRBwMb_3syn4item4ItemNtB3_10ConvertVec6to_vecNtNtB8_5alloc6GlobalEBO_, symObjAddr: 0x490, symBinAddr: 0x68870, symSize: 0x490 }
  - { offset: 0x1505F9, size: 0x8, addend: 0x0, symName: __RINvXNvMNtCslJiobkLta79_5alloc5sliceSp9to_vec_inNtNtCsdGrGZaRBwMb_3syn4item8ImplItemNtB3_10ConvertVec6to_vecNtNtB8_5alloc6GlobalEBO_, symObjAddr: 0x920, symBinAddr: 0x68D00, symSize: 0x490 }
  - { offset: 0x150B4D, size: 0x8, addend: 0x0, symName: __RINvXNvMNtCslJiobkLta79_5alloc5sliceSp9to_vec_inNtNtCsdGrGZaRBwMb_3syn4item9TraitItemNtB3_10ConvertVec6to_vecNtNtB8_5alloc6GlobalEBO_, symObjAddr: 0xDB0, symBinAddr: 0x69190, symSize: 0x490 }
  - { offset: 0x1510A1, size: 0x8, addend: 0x0, symName: __RINvXNvMNtCslJiobkLta79_5alloc5sliceSp9to_vec_inTNtNtCsdGrGZaRBwMb_3syn4item5FnArgNtNtBP_5token5CommaENtB3_10ConvertVec6to_vecNtNtB8_5alloc6GlobalEBP_, symObjAddr: 0x1240, symBinAddr: 0x69620, symSize: 0x490 }
  - { offset: 0x1515F5, size: 0x8, addend: 0x0, symName: __RINvXNvMNtCslJiobkLta79_5alloc5sliceSp9to_vec_inTNtNtCsdGrGZaRBwMb_3syn4item7UseTreeNtNtBP_5token5CommaENtB3_10ConvertVec6to_vecNtNtB8_5alloc6GlobalEBP_, symObjAddr: 0x16D0, symBinAddr: 0x69AB0, symSize: 0x490 }
  - { offset: 0x156125, size: 0x8, addend: 0x0, symName: __RNcNtNtNtCsdGrGZaRBwMb_3syn4item11ForeignItem5Macro0B7_, symObjAddr: 0x1B60, symBinAddr: 0x69F40, symSize: 0x40 }
  - { offset: 0x15615C, size: 0x8, addend: 0x0, symName: __RNcNtNtNtCsdGrGZaRBwMb_3syn4item16StaticMutability3Mut0B7_, symObjAddr: 0x1BA0, symBinAddr: 0x69F80, symSize: 0x10 }
  - { offset: 0x156192, size: 0x8, addend: 0x0, symName: __RNcNtNtNtCsdGrGZaRBwMb_3syn4item4Item10ForeignMod0B7_, symObjAddr: 0x1BB0, symBinAddr: 0x69F90, symSize: 0x40 }
  - { offset: 0x1561C1, size: 0x8, addend: 0x0, symName: __RNcNtNtNtCsdGrGZaRBwMb_3syn4item4Item10TraitAlias0B7_, symObjAddr: 0x1BF0, symBinAddr: 0x69FD0, symSize: 0x40 }
  - { offset: 0x1561F0, size: 0x8, addend: 0x0, symName: __RNcNtNtNtCsdGrGZaRBwMb_3syn4item4Item11ExternCrate0B7_, symObjAddr: 0x1C30, symBinAddr: 0x6A010, symSize: 0x40 }
  - { offset: 0x15621F, size: 0x8, addend: 0x0, symName: __RNcNtNtNtCsdGrGZaRBwMb_3syn4item4Item2Fn0B7_, symObjAddr: 0x1C70, symBinAddr: 0x6A050, symSize: 0x30 }
  - { offset: 0x15624E, size: 0x8, addend: 0x0, symName: __RNcNtNtNtCsdGrGZaRBwMb_3syn4item4Item3Mod0B7_, symObjAddr: 0x1CA0, symBinAddr: 0x6A080, symSize: 0x40 }
  - { offset: 0x15627D, size: 0x8, addend: 0x0, symName: __RNcNtNtNtCsdGrGZaRBwMb_3syn4item4Item4Enum0B7_, symObjAddr: 0x1CE0, symBinAddr: 0x6A0C0, symSize: 0x40 }
  - { offset: 0x1562AC, size: 0x8, addend: 0x0, symName: __RNcNtNtNtCsdGrGZaRBwMb_3syn4item4Item5Macro0B7_, symObjAddr: 0x1D20, symBinAddr: 0x6A100, symSize: 0x40 }
  - { offset: 0x1562DB, size: 0x8, addend: 0x0, symName: __RNcNtNtNtCsdGrGZaRBwMb_3syn4item4Item5Trait0B7_, symObjAddr: 0x1D60, symBinAddr: 0x6A140, symSize: 0x40 }
  - { offset: 0x15630A, size: 0x8, addend: 0x0, symName: __RNcNtNtNtCsdGrGZaRBwMb_3syn4item4Item5Union0B7_, symObjAddr: 0x1DA0, symBinAddr: 0x6A180, symSize: 0x40 }
  - { offset: 0x156339, size: 0x8, addend: 0x0, symName: __RNcNtNtNtCsdGrGZaRBwMb_3syn4item4Item6Struct0B7_, symObjAddr: 0x1DE0, symBinAddr: 0x6A1C0, symSize: 0x40 }
  - { offset: 0x15636E, size: 0x8, addend: 0x0, symName: __RNcNtNtNtCsdGrGZaRBwMb_3syn4item8ImplItem5Macro0B7_, symObjAddr: 0x1E20, symBinAddr: 0x6A200, symSize: 0x40 }
  - { offset: 0x1563A5, size: 0x8, addend: 0x0, symName: __RNcNtNtNtCsdGrGZaRBwMb_3syn4item9TraitItem2Fn0B7_, symObjAddr: 0x1E60, symBinAddr: 0x6A240, symSize: 0x40 }
  - { offset: 0x1563D6, size: 0x8, addend: 0x0, symName: __RNcNtNtNtCsdGrGZaRBwMb_3syn4item9TraitItem5Macro0B7_, symObjAddr: 0x1EA0, symBinAddr: 0x6A280, symSize: 0x40 }
  - { offset: 0x15640D, size: 0x8, addend: 0x0, symName: __RNvXNtNtCsdGrGZaRBwMb_3syn4item7parsingNtB4_4ItemNtNtB6_5parse5Parse5parse, symObjAddr: 0x45C0, symBinAddr: 0x6A6C0, symSize: 0x220 }
  - { offset: 0x1564B5, size: 0x8, addend: 0x0, symName: __RNvXs0_NtNtCsdGrGZaRBwMb_3syn4item7parsingNtB7_9ItemMacroNtNtB9_5parse5Parse5parse, symObjAddr: 0x4970, symBinAddr: 0x6AA70, symSize: 0x900 }
  - { offset: 0x156683, size: 0x8, addend: 0x0, symName: __RNvXs1_NtNtCsdGrGZaRBwMb_3syn4item7parsingNtB7_15ItemExternCrateNtNtB9_5parse5Parse5parse, symObjAddr: 0x61D0, symBinAddr: 0x6BDF0, symSize: 0xC80 }
  - { offset: 0x15688D, size: 0x8, addend: 0x0, symName: __RNvXs3_NtNtCsdGrGZaRBwMb_3syn4item7parsingNtB7_7UseTreeNtNtB9_5parse5Parse5parse, symObjAddr: 0xF1E0, symBinAddr: 0x71660, symSize: 0x50 }
  - { offset: 0x1568DF, size: 0x8, addend: 0x0, symName: __RNvXs6_NtNtCsdGrGZaRBwMb_3syn4item7parsingNtB7_9SignatureNtNtB9_5parse5Parse5parse, symObjAddr: 0x127D0, symBinAddr: 0x71920, symSize: 0x60 }
  - { offset: 0x156931, size: 0x8, addend: 0x0, symName: __RNvXsa_NtNtCsdGrGZaRBwMb_3syn4item7parsingNtB7_7ItemModNtNtB9_5parse5Parse5parse, symObjAddr: 0x14920, symBinAddr: 0x72080, symSize: 0x10F0 }
  - { offset: 0x156B94, size: 0x8, addend: 0x0, symName: __RNvXsb_NtNtCsdGrGZaRBwMb_3syn4item7parsingNtB7_14ItemForeignModNtNtB9_5parse5Parse5parse, symObjAddr: 0x15B30, symBinAddr: 0x73250, symSize: 0x7D0 }
  - { offset: 0x156D46, size: 0x8, addend: 0x0, symName: __RNvXsc_NtNtCsdGrGZaRBwMb_3syn4item7parsingNtB7_11ForeignItemNtNtB9_5parse5Parse5parse, symObjAddr: 0x164A0, symBinAddr: 0x73B80, symSize: 0x22C0 }
  - { offset: 0x1573C0, size: 0x8, addend: 0x0, symName: __RNvXsg_NtNtCsdGrGZaRBwMb_3syn4item7parsingNtB7_16ForeignItemMacroNtNtB9_5parse5Parse5parse, symObjAddr: 0x1A410, symBinAddr: 0x76040, symSize: 0x410 }
  - { offset: 0x1574D4, size: 0x8, addend: 0x0, symName: __RNvXsi_NtNtCsdGrGZaRBwMb_3syn4item7parsingNtB7_10ItemStructNtNtB9_5parse5Parse5parse, symObjAddr: 0x1B5E0, symBinAddr: 0x764B0, symSize: 0x960 }
  - { offset: 0x1576D1, size: 0x8, addend: 0x0, symName: __RNvXsj_NtNtCsdGrGZaRBwMb_3syn4item7parsingNtB7_8ItemEnumNtNtB9_5parse5Parse5parse, symObjAddr: 0x1C090, symBinAddr: 0x76F20, symSize: 0x940 }
  - { offset: 0x1578CE, size: 0x8, addend: 0x0, symName: __RNvXsk_NtNtCsdGrGZaRBwMb_3syn4item7parsingNtB7_9ItemUnionNtNtB9_5parse5Parse5parse, symObjAddr: 0x1CD40, symBinAddr: 0x77BD0, symSize: 0x940 }
  - { offset: 0x157ABA, size: 0x8, addend: 0x0, symName: __RNvXsl_NtNtCsdGrGZaRBwMb_3syn4item7parsingNtB7_9ItemTraitNtNtB9_5parse5Parse5parse, symObjAddr: 0x1D820, symBinAddr: 0x78670, symSize: 0x860 }
  - { offset: 0x157CC1, size: 0x8, addend: 0x0, symName: __RNvXsn_NtNtCsdGrGZaRBwMb_3syn4item7parsingNtB7_9TraitItemNtNtB9_5parse5Parse5parse, symObjAddr: 0x1E5A0, symBinAddr: 0x79040, symSize: 0x19C0 }
  - { offset: 0x158141, size: 0x8, addend: 0x0, symName: __RNvXsp_NtNtCsdGrGZaRBwMb_3syn4item7parsingNtB7_11TraitItemFnNtNtB9_5parse5Parse5parse, symObjAddr: 0x20C80, symBinAddr: 0x7ABA0, symSize: 0xAF0 }
  - { offset: 0x15834D, size: 0x8, addend: 0x0, symName: __RNvXsr_NtNtCsdGrGZaRBwMb_3syn4item7parsingNtB7_14TraitItemMacroNtNtB9_5parse5Parse5parse, symObjAddr: 0x225F0, symBinAddr: 0x7B850, symSize: 0x410 }
  - { offset: 0x158461, size: 0x8, addend: 0x0, symName: __RNvXst_NtNtCsdGrGZaRBwMb_3syn4item7parsingNtB7_8ImplItemNtNtB9_5parse5Parse5parse, symObjAddr: 0x22C60, symBinAddr: 0x7BDE0, symSize: 0x1CB0 }
  - { offset: 0x158968, size: 0x8, addend: 0x0, symName: __RNvXsx_NtNtCsdGrGZaRBwMb_3syn4item7parsingNtB7_13ImplItemMacroNtNtB9_5parse5Parse5parse, symObjAddr: 0x26A90, symBinAddr: 0x7E1E0, symSize: 0x410 }
  - { offset: 0x158A7C, size: 0x8, addend: 0x0, symName: __RNvXsz_NtNtCsdGrGZaRBwMb_3syn4item7parsingNtB7_16StaticMutabilityNtNtB9_5parse5Parse5parse, symObjAddr: 0x26F70, symBinAddr: 0x7E640, symSize: 0xD0 }
  - { offset: 0x158AF2, size: 0x8, addend: 0x0, symName: __RNvXNtNtCsdGrGZaRBwMb_3syn4item8printingNtB4_15ItemExternCrateNtNtCs9OU1sGv5X54_5quote9to_tokens8ToTokens9to_tokens, symObjAddr: 0x47E0, symBinAddr: 0x6A8E0, symSize: 0x100 }
  - { offset: 0x158B5F, size: 0x8, addend: 0x0, symName: __RNvXs0_NtNtCsdGrGZaRBwMb_3syn4item8printingNtB7_10ItemStaticNtNtCs9OU1sGv5X54_5quote9to_tokens8ToTokens9to_tokens, symObjAddr: 0x5270, symBinAddr: 0x6B370, symSize: 0xE0 }
  - { offset: 0x158B9E, size: 0x8, addend: 0x0, symName: __RNvXs1_NtNtCsdGrGZaRBwMb_3syn4item8printingNtB7_9ItemConstNtNtCs9OU1sGv5X54_5quote9to_tokens8ToTokens9to_tokens, symObjAddr: 0x6E50, symBinAddr: 0x6CA70, symSize: 0xF0 }
  - { offset: 0x158BDD, size: 0x8, addend: 0x0, symName: __RNvXs2_NtNtCsdGrGZaRBwMb_3syn4item8printingNtB7_6ItemFnNtNtCs9OU1sGv5X54_5quote9to_tokens8ToTokens9to_tokens, symObjAddr: 0xC060, symBinAddr: 0x70650, symSize: 0xD0 }
  - { offset: 0x158C1C, size: 0x8, addend: 0x0, symName: __RNvXs3_NtNtCsdGrGZaRBwMb_3syn4item8printingNtB7_7ItemModNtNtCs9OU1sGv5X54_5quote9to_tokens8ToTokens9to_tokens, symObjAddr: 0xF230, symBinAddr: 0x716B0, symSize: 0x110 }
  - { offset: 0x158C89, size: 0x8, addend: 0x0, symName: __RNvXs4_NtNtCsdGrGZaRBwMb_3syn4item8printingNtB7_14ItemForeignModNtNtCs9OU1sGv5X54_5quote9to_tokens8ToTokens9to_tokens, symObjAddr: 0x10B10, symBinAddr: 0x717C0, symSize: 0x80 }
  - { offset: 0x158CC8, size: 0x8, addend: 0x0, symName: __RNvXs5_NtNtCsdGrGZaRBwMb_3syn4item8printingNtB7_8ItemTypeNtNtCs9OU1sGv5X54_5quote9to_tokens8ToTokens9to_tokens, symObjAddr: 0x12300, symBinAddr: 0x71840, symSize: 0xE0 }
  - { offset: 0x158D07, size: 0x8, addend: 0x0, symName: __RNvXs6_NtNtCsdGrGZaRBwMb_3syn4item8printingNtB7_8ItemEnumNtNtCs9OU1sGv5X54_5quote9to_tokens8ToTokens9to_tokens, symObjAddr: 0x12830, symBinAddr: 0x71980, symSize: 0xC0 }
  - { offset: 0x158D46, size: 0x8, addend: 0x0, symName: __RNvXs7_NtNtCsdGrGZaRBwMb_3syn4item8printingNtB7_10ItemStructNtNtCs9OU1sGv5X54_5quote9to_tokens8ToTokens9to_tokens, symObjAddr: 0x12DC0, symBinAddr: 0x71A40, symSize: 0x180 }
  - { offset: 0x158DC1, size: 0x8, addend: 0x0, symName: __RNvXs8_NtNtCsdGrGZaRBwMb_3syn4item8printingNtB7_9ItemUnionNtNtCs9OU1sGv5X54_5quote9to_tokens8ToTokens9to_tokens, symObjAddr: 0x139D0, symBinAddr: 0x71BC0, symSize: 0xC0 }
  - { offset: 0x158E00, size: 0x8, addend: 0x0, symName: __RNvXs9_NtNtCsdGrGZaRBwMb_3syn4item8printingNtB7_9ItemTraitNtNtCs9OU1sGv5X54_5quote9to_tokens8ToTokens9to_tokens, symObjAddr: 0x13CD0, symBinAddr: 0x71C80, symSize: 0x130 }
  - { offset: 0x158E3F, size: 0x8, addend: 0x0, symName: __RNvXs_NtNtCsdGrGZaRBwMb_3syn4item8printingNtB6_7ItemUseNtNtCs9OU1sGv5X54_5quote9to_tokens8ToTokens9to_tokens, symObjAddr: 0x14840, symBinAddr: 0x71FE0, symSize: 0xA0 }
  - { offset: 0x158E7E, size: 0x8, addend: 0x0, symName: __RNvXsa_NtNtCsdGrGZaRBwMb_3syn4item8printingNtB7_14ItemTraitAliasNtNtCs9OU1sGv5X54_5quote9to_tokens8ToTokens9to_tokens, symObjAddr: 0x15A10, symBinAddr: 0x73170, symSize: 0xE0 }
  - { offset: 0x158EBD, size: 0x8, addend: 0x0, symName: __RNvXsb_NtNtCsdGrGZaRBwMb_3syn4item8printingNtB7_8ItemImplNtNtCs9OU1sGv5X54_5quote9to_tokens8ToTokens9to_tokens, symObjAddr: 0x16300, symBinAddr: 0x73A20, symSize: 0x160 }
  - { offset: 0x158F3A, size: 0x8, addend: 0x0, symName: __RNvXsc_NtNtCsdGrGZaRBwMb_3syn4item8printingNtB7_9ItemMacroNtNtCs9OU1sGv5X54_5quote9to_tokens8ToTokens9to_tokens, symObjAddr: 0x18760, symBinAddr: 0x75E40, symSize: 0x130 }
  - { offset: 0x158FCB, size: 0x8, addend: 0x0, symName: __RNvXsd_NtNtCsdGrGZaRBwMb_3syn4item8printingNtB7_7UsePathNtNtCs9OU1sGv5X54_5quote9to_tokens8ToTokens9to_tokens, symObjAddr: 0x18E20, symBinAddr: 0x75F70, symSize: 0x50 }
  - { offset: 0x15900A, size: 0x8, addend: 0x0, symName: __RNvXse_NtNtCsdGrGZaRBwMb_3syn4item8printingNtB7_7UseNameNtNtCs9OU1sGv5X54_5quote9to_tokens8ToTokens9to_tokens, symObjAddr: 0x19960, symBinAddr: 0x75FC0, symSize: 0x30 }
  - { offset: 0x159049, size: 0x8, addend: 0x0, symName: __RNvXsf_NtNtCsdGrGZaRBwMb_3syn4item8printingNtB7_9UseRenameNtNtCs9OU1sGv5X54_5quote9to_tokens8ToTokens9to_tokens, symObjAddr: 0x1A380, symBinAddr: 0x75FF0, symSize: 0x50 }
  - { offset: 0x159088, size: 0x8, addend: 0x0, symName: __RNvXsg_NtNtCsdGrGZaRBwMb_3syn4item8printingNtB7_7UseGlobNtNtCs9OU1sGv5X54_5quote9to_tokens8ToTokens9to_tokens, symObjAddr: 0x1A820, symBinAddr: 0x76450, symSize: 0x30 }
  - { offset: 0x1590C7, size: 0x8, addend: 0x0, symName: __RNvXsh_NtNtCsdGrGZaRBwMb_3syn4item8printingNtB7_8UseGroupNtNtCs9OU1sGv5X54_5quote9to_tokens8ToTokens9to_tokens, symObjAddr: 0x1B570, symBinAddr: 0x76480, symSize: 0x30 }
  - { offset: 0x159106, size: 0x8, addend: 0x0, symName: __RNvXsi_NtNtCsdGrGZaRBwMb_3syn4item8printingNtB7_14TraitItemConstNtNtCs9OU1sGv5X54_5quote9to_tokens8ToTokens9to_tokens, symObjAddr: 0x1BF40, symBinAddr: 0x76E10, symSize: 0x110 }
  - { offset: 0x159173, size: 0x8, addend: 0x0, symName: __RNvXsj_NtNtCsdGrGZaRBwMb_3syn4item8printingNtB7_11TraitItemFnNtNtCs9OU1sGv5X54_5quote9to_tokens8ToTokens9to_tokens, symObjAddr: 0x1C9D0, symBinAddr: 0x77860, symSize: 0xD0 }
  - { offset: 0x1591D0, size: 0x8, addend: 0x0, symName: __RNvXsk_NtNtCsdGrGZaRBwMb_3syn4item8printingNtB7_13TraitItemTypeNtNtCs9OU1sGv5X54_5quote9to_tokens8ToTokens9to_tokens, symObjAddr: 0x1D680, symBinAddr: 0x78510, symSize: 0x160 }
  - { offset: 0x15923D, size: 0x8, addend: 0x0, symName: __RNvXsl_NtNtCsdGrGZaRBwMb_3syn4item8printingNtB7_14TraitItemMacroNtNtCs9OU1sGv5X54_5quote9to_tokens8ToTokens9to_tokens, symObjAddr: 0x1E080, symBinAddr: 0x78ED0, symSize: 0x70 }
  - { offset: 0x15927C, size: 0x8, addend: 0x0, symName: __RNvXsm_NtNtCsdGrGZaRBwMb_3syn4item8printingNtB7_13ImplItemConstNtNtCs9OU1sGv5X54_5quote9to_tokens8ToTokens9to_tokens, symObjAddr: 0x1E460, symBinAddr: 0x78F40, symSize: 0x100 }
  - { offset: 0x1592BB, size: 0x8, addend: 0x0, symName: __RNvXsn_NtNtCsdGrGZaRBwMb_3syn4item8printingNtB7_10ImplItemFnNtNtCs9OU1sGv5X54_5quote9to_tokens8ToTokens9to_tokens, symObjAddr: 0x1FF60, symBinAddr: 0x7AA00, symSize: 0xA0 }
  - { offset: 0x1592FA, size: 0x8, addend: 0x0, symName: __RNvXso_NtNtCsdGrGZaRBwMb_3syn4item8printingNtB7_12ImplItemTypeNtNtCs9OU1sGv5X54_5quote9to_tokens8ToTokens9to_tokens, symObjAddr: 0x20B40, symBinAddr: 0x7AAA0, symSize: 0x100 }
  - { offset: 0x159339, size: 0x8, addend: 0x0, symName: __RNvXsp_NtNtCsdGrGZaRBwMb_3syn4item8printingNtB7_13ImplItemMacroNtNtCs9OU1sGv5X54_5quote9to_tokens8ToTokens9to_tokens, symObjAddr: 0x21770, symBinAddr: 0x7B690, symSize: 0x70 }
  - { offset: 0x159378, size: 0x8, addend: 0x0, symName: __RNvXsq_NtNtCsdGrGZaRBwMb_3syn4item8printingNtB7_13ForeignItemFnNtNtCs9OU1sGv5X54_5quote9to_tokens8ToTokens9to_tokens, symObjAddr: 0x22540, symBinAddr: 0x7B7D0, symSize: 0x80 }
  - { offset: 0x1593B7, size: 0x8, addend: 0x0, symName: __RNvXsr_NtNtCsdGrGZaRBwMb_3syn4item8printingNtB7_17ForeignItemStaticNtNtCs9OU1sGv5X54_5quote9to_tokens8ToTokens9to_tokens, symObjAddr: 0x22A00, symBinAddr: 0x7BC60, symSize: 0xC0 }
  - { offset: 0x1593F6, size: 0x8, addend: 0x0, symName: __RNvXss_NtNtCsdGrGZaRBwMb_3syn4item8printingNtB7_15ForeignItemTypeNtNtCs9OU1sGv5X54_5quote9to_tokens8ToTokens9to_tokens, symObjAddr: 0x22B60, symBinAddr: 0x7BD20, symSize: 0xC0 }
  - { offset: 0x159435, size: 0x8, addend: 0x0, symName: __RNvXst_NtNtCsdGrGZaRBwMb_3syn4item8printingNtB7_16ForeignItemMacroNtNtCs9OU1sGv5X54_5quote9to_tokens8ToTokens9to_tokens, symObjAddr: 0x24910, symBinAddr: 0x7DA90, symSize: 0x70 }
  - { offset: 0x159474, size: 0x8, addend: 0x0, symName: __RNvXsu_NtNtCsdGrGZaRBwMb_3syn4item8printingNtB7_9SignatureNtNtCs9OU1sGv5X54_5quote9to_tokens8ToTokens9to_tokens, symObjAddr: 0x25730, symBinAddr: 0x7DB00, symSize: 0xE0 }
  - { offset: 0x1594B3, size: 0x8, addend: 0x0, symName: __RNvXsv_NtNtCsdGrGZaRBwMb_3syn4item8printingNtB7_8ReceiverNtNtCs9OU1sGv5X54_5quote9to_tokens8ToTokens9to_tokens, symObjAddr: 0x25950, symBinAddr: 0x7DCC0, symSize: 0x450 }
  - { offset: 0x1595A9, size: 0x8, addend: 0x0, symName: __RNvXsw_NtNtCsdGrGZaRBwMb_3syn4item8printingNtB7_8VariadicNtNtCs9OU1sGv5X54_5quote9to_tokens8ToTokens9to_tokens, symObjAddr: 0x26980, symBinAddr: 0x7E110, symSize: 0xD0 }
  - { offset: 0x159616, size: 0x8, addend: 0x0, symName: __RNvXsx_NtNtCsdGrGZaRBwMb_3syn4item8printingNtB7_16StaticMutabilityNtNtCs9OU1sGv5X54_5quote9to_tokens8ToTokens9to_tokens, symObjAddr: 0x26EA0, symBinAddr: 0x7E5F0, symSize: 0x50 }
  - { offset: 0x159674, size: 0x8, addend: 0x0, symName: __RNvXsA_NtCsdGrGZaRBwMb_3syn4itemNtB5_9TraitItemNtNtCs9OU1sGv5X54_5quote9to_tokens8ToTokens9to_tokens, symObjAddr: 0x13E00, symBinAddr: 0x71DB0, symSize: 0xE0 }
  - { offset: 0x159741, size: 0x8, addend: 0x0, symName: __RNvXsF_NtCsdGrGZaRBwMb_3syn4itemNtB5_8ImplItemNtNtCs9OU1sGv5X54_5quote9to_tokens8ToTokens9to_tokens, symObjAddr: 0x13FD0, symBinAddr: 0x71E90, symSize: 0xE0 }
  - { offset: 0x15980E, size: 0x8, addend: 0x0, symName: __RNvXsI_NtCsdGrGZaRBwMb_3syn4itemNtB5_5FnArgNtNtCs9OU1sGv5X54_5quote9to_tokens8ToTokens9to_tokens, symObjAddr: 0x14130, symBinAddr: 0x71F70, symSize: 0x70 }
  - { offset: 0x159884, size: 0x8, addend: 0x0, symName: __RNvXsk_NtCsdGrGZaRBwMb_3syn4itemNtB5_4ItemNtNtCs9OU1sGv5X54_5quote9to_tokens8ToTokens9to_tokens, symObjAddr: 0x1CAA0, symBinAddr: 0x77930, symSize: 0x2A0 }
  - { offset: 0x159A9A, size: 0x8, addend: 0x0, symName: __RNvXsq_NtCsdGrGZaRBwMb_3syn4itemNtB5_7UseTreeNtNtCs9OU1sGv5X54_5quote9to_tokens8ToTokens9to_tokens, symObjAddr: 0x217E0, symBinAddr: 0x7B700, symSize: 0xD0 }
  - { offset: 0x159B67, size: 0x8, addend: 0x0, symName: __RNvXsv_NtCsdGrGZaRBwMb_3syn4itemNtB5_11ForeignItemNtNtCs9OU1sGv5X54_5quote9to_tokens8ToTokens9to_tokens, symObjAddr: 0x25810, symBinAddr: 0x7DBE0, symSize: 0xE0 }
  - { offset: 0x15A76E, size: 0x8, addend: 0x0, symName: __RNvXs16_NtNtCsdGrGZaRBwMb_3syn3gen5cloneNtNtBa_4item5FnArgNtNtCsieiGu2EXtoJ_4core5clone5Clone5clone, symObjAddr: 0x5350, symBinAddr: 0x6B450, symSize: 0xE0 }
  - { offset: 0x15A7D6, size: 0x8, addend: 0x0, symName: __RNvXs17_NtNtCsdGrGZaRBwMb_3syn3gen5cloneNtNtBa_4item11ForeignItemNtNtCsieiGu2EXtoJ_4core5clone5Clone5clone, symObjAddr: 0x5430, symBinAddr: 0x6B530, symSize: 0x200 }
  - { offset: 0x15A898, size: 0x8, addend: 0x0, symName: __RNvXs18_NtNtCsdGrGZaRBwMb_3syn3gen5cloneNtNtBa_4item13ForeignItemFnNtNtCsieiGu2EXtoJ_4core5clone5Clone5clone, symObjAddr: 0x5630, symBinAddr: 0x6B730, symSize: 0x1A0 }
  - { offset: 0x15A8CC, size: 0x8, addend: 0x0, symName: __RNvXs19_NtNtCsdGrGZaRBwMb_3syn3gen5cloneNtNtBa_4item16ForeignItemMacroNtNtCsieiGu2EXtoJ_4core5clone5Clone5clone, symObjAddr: 0x5890, symBinAddr: 0x6B8D0, symSize: 0x130 }
  - { offset: 0x15A900, size: 0x8, addend: 0x0, symName: __RNvXs1A_NtNtCsdGrGZaRBwMb_3syn3gen5cloneNtNtBa_4item9ItemUnionNtNtCsieiGu2EXtoJ_4core5clone5Clone5clone, symObjAddr: 0x59C0, symBinAddr: 0x6BA00, symSize: 0x220 }
  - { offset: 0x15A934, size: 0x8, addend: 0x0, symName: __RNvXs1B_NtNtCsdGrGZaRBwMb_3syn3gen5cloneNtNtBa_4item7ItemUseNtNtCsieiGu2EXtoJ_4core5clone5Clone5clone, symObjAddr: 0x5BE0, symBinAddr: 0x6BC20, symSize: 0x1D0 }
  - { offset: 0x15A968, size: 0x8, addend: 0x0, symName: __RNvXs1a_NtNtCsdGrGZaRBwMb_3syn3gen5cloneNtNtBa_4item17ForeignItemStaticNtNtCsieiGu2EXtoJ_4core5clone5Clone5clone, symObjAddr: 0x6F40, symBinAddr: 0x6CB60, symSize: 0x250 }
  - { offset: 0x15A99C, size: 0x8, addend: 0x0, symName: __RNvXs1b_NtNtCsdGrGZaRBwMb_3syn3gen5cloneNtNtBa_4item15ForeignItemTypeNtNtCsieiGu2EXtoJ_4core5clone5Clone5clone, symObjAddr: 0x7190, symBinAddr: 0x6CDB0, symSize: 0x210 }
  - { offset: 0x15A9D0, size: 0x8, addend: 0x0, symName: __RNvXs1f_NtNtCsdGrGZaRBwMb_3syn3gen5cloneNtNtBa_4item8ImplItemNtNtCsieiGu2EXtoJ_4core5clone5Clone5clone, symObjAddr: 0x73A0, symBinAddr: 0x6CFC0, symSize: 0x200 }
  - { offset: 0x15AA92, size: 0x8, addend: 0x0, symName: __RNvXs1g_NtNtCsdGrGZaRBwMb_3syn3gen5cloneNtNtBa_4item13ImplItemConstNtNtCsieiGu2EXtoJ_4core5clone5Clone5clone, symObjAddr: 0x75A0, symBinAddr: 0x6D1C0, symSize: 0x3A0 }
  - { offset: 0x15AAC6, size: 0x8, addend: 0x0, symName: __RNvXs1h_NtNtCsdGrGZaRBwMb_3syn3gen5cloneNtNtBa_4item10ImplItemFnNtNtCsieiGu2EXtoJ_4core5clone5Clone5clone, symObjAddr: 0x7940, symBinAddr: 0x6D560, symSize: 0x1F0 }
  - { offset: 0x15AAFA, size: 0x8, addend: 0x0, symName: __RNvXs1i_NtNtCsdGrGZaRBwMb_3syn3gen5cloneNtNtBa_4item13ImplItemMacroNtNtCsieiGu2EXtoJ_4core5clone5Clone5clone, symObjAddr: 0x7B30, symBinAddr: 0x6D750, symSize: 0x130 }
  - { offset: 0x15AB2E, size: 0x8, addend: 0x0, symName: __RNvXs1j_NtNtCsdGrGZaRBwMb_3syn3gen5cloneNtNtBa_4item12ImplItemTypeNtNtCsieiGu2EXtoJ_4core5clone5Clone5clone, symObjAddr: 0x7C60, symBinAddr: 0x6D880, symSize: 0x310 }
  - { offset: 0x15AB62, size: 0x8, addend: 0x0, symName: __RNvXs1m_NtNtCsdGrGZaRBwMb_3syn3gen5cloneNtNtBa_4item4ItemNtNtCsieiGu2EXtoJ_4core5clone5Clone5clone, symObjAddr: 0x7F80, symBinAddr: 0x6DB90, symSize: 0x5C0 }
  - { offset: 0x15AD77, size: 0x8, addend: 0x0, symName: __RNvXs1n_NtNtCsdGrGZaRBwMb_3syn3gen5cloneNtNtBa_4item9ItemConstNtNtCsieiGu2EXtoJ_4core5clone5Clone5clone, symObjAddr: 0x8540, symBinAddr: 0x6E150, symSize: 0x320 }
  - { offset: 0x15ADAB, size: 0x8, addend: 0x0, symName: __RNvXs1o_NtNtCsdGrGZaRBwMb_3syn3gen5cloneNtNtBa_4item8ItemEnumNtNtCsieiGu2EXtoJ_4core5clone5Clone5clone, symObjAddr: 0x8860, symBinAddr: 0x6E470, symSize: 0x260 }
  - { offset: 0x15ADDF, size: 0x8, addend: 0x0, symName: __RNvXs1p_NtNtCsdGrGZaRBwMb_3syn3gen5cloneNtNtBa_4item15ItemExternCrateNtNtCsieiGu2EXtoJ_4core5clone5Clone5clone, symObjAddr: 0x8AC0, symBinAddr: 0x6E6D0, symSize: 0x200 }
  - { offset: 0x15AE13, size: 0x8, addend: 0x0, symName: __RNvXs1q_NtNtCsdGrGZaRBwMb_3syn3gen5cloneNtNtBa_4item6ItemFnNtNtCsieiGu2EXtoJ_4core5clone5Clone5clone, symObjAddr: 0x8CC0, symBinAddr: 0x6E8D0, symSize: 0x1A0 }
  - { offset: 0x15AE47, size: 0x8, addend: 0x0, symName: __RNvXs1r_NtNtCsdGrGZaRBwMb_3syn3gen5cloneNtNtBa_4item14ItemForeignModNtNtCsieiGu2EXtoJ_4core5clone5Clone5clone, symObjAddr: 0x8E60, symBinAddr: 0x6EA70, symSize: 0x170 }
  - { offset: 0x15AE7B, size: 0x8, addend: 0x0, symName: __RNvXs1s_NtNtCsdGrGZaRBwMb_3syn3gen5cloneNtNtBa_4item8ItemImplNtNtCsieiGu2EXtoJ_4core5clone5Clone5clone, symObjAddr: 0x8FD0, symBinAddr: 0x6EBE0, symSize: 0x2D0 }
  - { offset: 0x15AEAF, size: 0x8, addend: 0x0, symName: __RNvXs1t_NtNtCsdGrGZaRBwMb_3syn3gen5cloneNtNtBa_4item9ItemMacroNtNtCsieiGu2EXtoJ_4core5clone5Clone5clone, symObjAddr: 0x92A0, symBinAddr: 0x6EEB0, symSize: 0x190 }
  - { offset: 0x15AEE3, size: 0x8, addend: 0x0, symName: __RNvXs1u_NtNtCsdGrGZaRBwMb_3syn3gen5cloneNtNtBa_4item7ItemModNtNtCsieiGu2EXtoJ_4core5clone5Clone5clone, symObjAddr: 0x9430, symBinAddr: 0x6F040, symSize: 0x240 }
  - { offset: 0x15AF17, size: 0x8, addend: 0x0, symName: __RNvXs1v_NtNtCsdGrGZaRBwMb_3syn3gen5cloneNtNtBa_4item10ItemStaticNtNtCsieiGu2EXtoJ_4core5clone5Clone5clone, symObjAddr: 0x9670, symBinAddr: 0x6F280, symSize: 0x2D0 }
  - { offset: 0x15AF4B, size: 0x8, addend: 0x0, symName: __RNvXs1w_NtNtCsdGrGZaRBwMb_3syn3gen5cloneNtNtBa_4item10ItemStructNtNtCsieiGu2EXtoJ_4core5clone5Clone5clone, symObjAddr: 0x9940, symBinAddr: 0x6F550, symSize: 0x270 }
  - { offset: 0x15AF7F, size: 0x8, addend: 0x0, symName: __RNvXs1x_NtNtCsdGrGZaRBwMb_3syn3gen5cloneNtNtBa_4item9ItemTraitNtNtCsieiGu2EXtoJ_4core5clone5Clone5clone, symObjAddr: 0x9BB0, symBinAddr: 0x6F7C0, symSize: 0x3B0 }
  - { offset: 0x15AFB3, size: 0x8, addend: 0x0, symName: __RNvXs1y_NtNtCsdGrGZaRBwMb_3syn3gen5cloneNtNtBa_4item14ItemTraitAliasNtNtCsieiGu2EXtoJ_4core5clone5Clone5clone, symObjAddr: 0x9F60, symBinAddr: 0x6FB70, symSize: 0x2B0 }
  - { offset: 0x15AFE7, size: 0x8, addend: 0x0, symName: __RNvXs1z_NtNtCsdGrGZaRBwMb_3syn3gen5cloneNtNtBa_4item8ItemTypeNtNtCsieiGu2EXtoJ_4core5clone5Clone5clone, symObjAddr: 0xA210, symBinAddr: 0x6FE20, symSize: 0x2A0 }
  - { offset: 0x15B01B, size: 0x8, addend: 0x0, symName: __RNvXs2I_NtNtCsdGrGZaRBwMb_3syn3gen5cloneNtNtBa_4item7UseGlobNtNtCsieiGu2EXtoJ_4core5clone5Clone5clone, symObjAddr: 0xB290, symBinAddr: 0x700C0, symSize: 0x40 }
  - { offset: 0x15B04F, size: 0x8, addend: 0x0, symName: __RNvXs2J_NtNtCsdGrGZaRBwMb_3syn3gen5cloneNtNtBa_4item8UseGroupNtNtCsieiGu2EXtoJ_4core5clone5Clone5clone, symObjAddr: 0xB3B0, symBinAddr: 0x70100, symSize: 0x80 }
  - { offset: 0x15B083, size: 0x8, addend: 0x0, symName: __RNvXs2K_NtNtCsdGrGZaRBwMb_3syn3gen5cloneNtNtBa_4item7UseNameNtNtCsieiGu2EXtoJ_4core5clone5Clone5clone, symObjAddr: 0xB430, symBinAddr: 0x70180, symSize: 0x50 }
  - { offset: 0x15B0B7, size: 0x8, addend: 0x0, symName: __RNvXs2L_NtNtCsdGrGZaRBwMb_3syn3gen5cloneNtNtBa_4item7UsePathNtNtCsieiGu2EXtoJ_4core5clone5Clone5clone, symObjAddr: 0xB530, symBinAddr: 0x701D0, symSize: 0xC0 }
  - { offset: 0x15B0EB, size: 0x8, addend: 0x0, symName: __RNvXs2M_NtNtCsdGrGZaRBwMb_3syn3gen5cloneNtNtBa_4item9UseRenameNtNtCsieiGu2EXtoJ_4core5clone5Clone5clone, symObjAddr: 0xB5F0, symBinAddr: 0x70290, symSize: 0xC0 }
  - { offset: 0x15B11F, size: 0x8, addend: 0x0, symName: __RNvXs2N_NtNtCsdGrGZaRBwMb_3syn3gen5cloneNtNtBa_4item7UseTreeNtNtCsieiGu2EXtoJ_4core5clone5Clone5clone, symObjAddr: 0xB770, symBinAddr: 0x70350, symSize: 0x1F0 }
  - { offset: 0x15B1E1, size: 0x8, addend: 0x0, symName: __RNvXs2O_NtNtCsdGrGZaRBwMb_3syn3gen5cloneNtNtBa_4item8VariadicNtNtCsieiGu2EXtoJ_4core5clone5Clone5clone, symObjAddr: 0xB960, symBinAddr: 0x70540, symSize: 0x110 }
  - { offset: 0x15B215, size: 0x8, addend: 0x0, symName: __RNvXs2b_NtNtCsdGrGZaRBwMb_3syn3gen5cloneNtNtBa_4item8ReceiverNtNtCsieiGu2EXtoJ_4core5clone5Clone5clone, symObjAddr: 0xC830, symBinAddr: 0x70720, symSize: 0x180 }
  - { offset: 0x15B249, size: 0x8, addend: 0x0, symName: __RNvXs2d_NtNtCsdGrGZaRBwMb_3syn3gen5cloneNtNtBa_4item9SignatureNtNtCsieiGu2EXtoJ_4core5clone5Clone5clone, symObjAddr: 0xD180, symBinAddr: 0x708A0, symSize: 0x340 }
  - { offset: 0x15B27D, size: 0x8, addend: 0x0, symName: __RNvXs2e_NtNtCsdGrGZaRBwMb_3syn3gen5cloneNtNtBa_4item16StaticMutabilityNtNtCsieiGu2EXtoJ_4core5clone5Clone5clone, symObjAddr: 0xD4C0, symBinAddr: 0x70BE0, symSize: 0x60 }
  - { offset: 0x15B2CF, size: 0x8, addend: 0x0, symName: __RNvXs2k_NtNtCsdGrGZaRBwMb_3syn3gen5cloneNtNtBa_4item9TraitItemNtNtCsieiGu2EXtoJ_4core5clone5Clone5clone, symObjAddr: 0xD7D0, symBinAddr: 0x70C40, symSize: 0x200 }
  - { offset: 0x15B391, size: 0x8, addend: 0x0, symName: __RNvXs2l_NtNtCsdGrGZaRBwMb_3syn3gen5cloneNtNtBa_4item14TraitItemConstNtNtCsieiGu2EXtoJ_4core5clone5Clone5clone, symObjAddr: 0xDAC0, symBinAddr: 0x70E40, symSize: 0x2A0 }
  - { offset: 0x15B3C5, size: 0x8, addend: 0x0, symName: __RNvXs2m_NtNtCsdGrGZaRBwMb_3syn3gen5cloneNtNtBa_4item11TraitItemFnNtNtCsieiGu2EXtoJ_4core5clone5Clone5clone, symObjAddr: 0xDD60, symBinAddr: 0x710E0, symSize: 0x190 }
  - { offset: 0x15B3F9, size: 0x8, addend: 0x0, symName: __RNvXs2n_NtNtCsdGrGZaRBwMb_3syn3gen5cloneNtNtBa_4item14TraitItemMacroNtNtCsieiGu2EXtoJ_4core5clone5Clone5clone, symObjAddr: 0xDF30, symBinAddr: 0x71270, symSize: 0x130 }
  - { offset: 0x15B42D, size: 0x8, addend: 0x0, symName: __RNvXs2o_NtNtCsdGrGZaRBwMb_3syn3gen5cloneNtNtBa_4item13TraitItemTypeNtNtCsieiGu2EXtoJ_4core5clone5Clone5clone, symObjAddr: 0xE060, symBinAddr: 0x713A0, symSize: 0x2C0 }
  - { offset: 0x15F616, size: 0x8, addend: 0x0, symName: __RNvMNtCsieiGu2EXtoJ_4core5sliceSTNtNtCsdGrGZaRBwMb_3syn4item5FnArgNtNtBz_5token5CommaE4iterBz_, symObjAddr: 0x2180, symBinAddr: 0x6A560, symSize: 0x20 }
  - { offset: 0x15F64D, size: 0x8, addend: 0x0, symName: __RNvMNtCsieiGu2EXtoJ_4core5sliceSTNtNtCsdGrGZaRBwMb_3syn4item7UseTreeNtNtBz_5token5CommaE4iterBz_, symObjAddr: 0x21A0, symBinAddr: 0x6A580, symSize: 0x20 }
  - { offset: 0x160861, size: 0x8, addend: 0x0, symName: __RNvXNtNtCsieiGu2EXtoJ_4core5clone6uninitNtNtCsdGrGZaRBwMb_3syn4item5FnArgNtB2_8CopySpec9clone_oneBG_, symObjAddr: 0x48E0, symBinAddr: 0x6A9E0, symSize: 0x50 }
  - { offset: 0x1608C6, size: 0x8, addend: 0x0, symName: __RNvXNtNtCsieiGu2EXtoJ_4core5clone6uninitNtNtCsdGrGZaRBwMb_3syn4item7UseTreeNtB2_8CopySpec9clone_oneBG_, symObjAddr: 0x4930, symBinAddr: 0x6AA30, symSize: 0x40 }
  - { offset: 0x16264A, size: 0x8, addend: 0x0, symName: __RNvMNtCsdGrGZaRBwMb_3syn4itemNtB2_4Item13replace_attrs, symObjAddr: 0x1EE0, symBinAddr: 0x6A2C0, symSize: 0x2A0 }
  - { offset: 0x162884, size: 0x8, addend: 0x0, symName: __RNvXNtCs9OU1sGv5X54_5quote9to_tokensRNtNtCsdGrGZaRBwMb_3syn4item11ForeignItemNtB2_8ToTokens9to_tokensBD_, symObjAddr: 0x44A0, symBinAddr: 0x6A5A0, symSize: 0x30 }
  - { offset: 0x1628C3, size: 0x8, addend: 0x0, symName: __RNvXNtCs9OU1sGv5X54_5quote9to_tokensRNtNtCsdGrGZaRBwMb_3syn4item4ItemNtB2_8ToTokens9to_tokensBD_, symObjAddr: 0x44D0, symBinAddr: 0x6A5D0, symSize: 0x30 }
  - { offset: 0x162902, size: 0x8, addend: 0x0, symName: __RNvXNtCs9OU1sGv5X54_5quote9to_tokensRNtNtCsdGrGZaRBwMb_3syn4item5FnArgNtB2_8ToTokens9to_tokensBD_, symObjAddr: 0x4500, symBinAddr: 0x6A600, symSize: 0x30 }
  - { offset: 0x162941, size: 0x8, addend: 0x0, symName: __RNvXNtCs9OU1sGv5X54_5quote9to_tokensRNtNtCsdGrGZaRBwMb_3syn4item7UseTreeNtB2_8ToTokens9to_tokensBD_, symObjAddr: 0x4530, symBinAddr: 0x6A630, symSize: 0x30 }
  - { offset: 0x162980, size: 0x8, addend: 0x0, symName: __RNvXNtCs9OU1sGv5X54_5quote9to_tokensRNtNtCsdGrGZaRBwMb_3syn4item8ImplItemNtB2_8ToTokens9to_tokensBD_, symObjAddr: 0x4560, symBinAddr: 0x6A660, symSize: 0x30 }
  - { offset: 0x1629BF, size: 0x8, addend: 0x0, symName: __RNvXNtCs9OU1sGv5X54_5quote9to_tokensRNtNtCsdGrGZaRBwMb_3syn4item9TraitItemNtB2_8ToTokens9to_tokensBD_, symObjAddr: 0x4590, symBinAddr: 0x6A690, symSize: 0x30 }
  - { offset: 0x162D9C, size: 0x8, addend: 0x0, symName: __RINvMs_NtCslJiobkLta79_5alloc3vecINtB5_3VecReE10retain_mutNCNvMNtCsdGrGZaRBwMb_3syn9lookaheadNtBZ_10Lookahead15error0EB11_, symObjAddr: 0x0, symBinAddr: 0x7E710, symSize: 0x160 }
  - { offset: 0x16AEEE, size: 0x8, addend: 0x0, symName: __RNvXs1_NtCsieiGu2EXtoJ_4core7convertINtNtCslJiobkLta79_5alloc3vec3VechEINtB5_4IntoBy_E4intoCsdGrGZaRBwMb_3syn, symObjAddr: 0x7580, symBinAddr: 0x840A0, symSize: 0x20 }
  - { offset: 0x16B185, size: 0x8, addend: 0x0, symName: __RINvNvMs_NtCslJiobkLta79_5alloc3vecINtB7_3VecppE10retain_mut12process_loopNCNvMNtCsdGrGZaRBwMb_3syn9lookaheadNtB1f_10Lookahead15error0ReNtNtB9_5alloc6GlobalKb0_EB1h_, symObjAddr: 0x160, symBinAddr: 0x7E870, symSize: 0xB0 }
  - { offset: 0x16B2D9, size: 0x8, addend: 0x0, symName: __RINvNvMs_NtCslJiobkLta79_5alloc3vecINtB7_3VecppE10retain_mut12process_loopNCNvMNtCsdGrGZaRBwMb_3syn9lookaheadNtB1f_10Lookahead15error0ReNtNtB9_5alloc6GlobalKb1_EB1h_, symObjAddr: 0x210, symBinAddr: 0x7E920, symSize: 0x130 }
  - { offset: 0x16B4CF, size: 0x8, addend: 0x0, symName: __RNvXNvMs_NtCslJiobkLta79_5alloc3vecINtB7_3VecppE10retain_mutINtB2_15BackshiftOnDropReNtNtB9_5alloc6GlobalENtNtNtCsieiGu2EXtoJ_4core3ops4drop4Drop4dropCsdGrGZaRBwMb_3syn, symObjAddr: 0x6EE0, symBinAddr: 0x83C80, symSize: 0x190 }
  - { offset: 0x16B715, size: 0x8, addend: 0x0, symName: __RNvNvMs_NtCslJiobkLta79_5alloc3vecINtB6_3VecppE17from_raw_parts_in18precondition_checkCsdGrGZaRBwMb_3syn, symObjAddr: 0x5950, symBinAddr: 0x83B40, symSize: 0xA0 }
  - { offset: 0x16B783, size: 0x8, addend: 0x0, symName: __RNvNvMs_NtCslJiobkLta79_5alloc3vecINtB6_3VecppE7set_len18precondition_checkCsdGrGZaRBwMb_3syn, symObjAddr: 0x59F0, symBinAddr: 0x83BE0, symSize: 0xA0 }
  - { offset: 0x16BB8A, size: 0x8, addend: 0x0, symName: __RINvXsh_NtCslJiobkLta79_5alloc3vecINtB6_3VecNtNtCsdGrGZaRBwMb_3syn4attr9AttributeEINtNtNtNtCsieiGu2EXtoJ_4core4iter6traits7collect6ExtendBG_E6extendBw_EBK_, symObjAddr: 0x340, symBinAddr: 0x7EA50, symSize: 0x40 }
  - { offset: 0x16EEBA, size: 0x8, addend: 0x0, symName: __RNvXs6_NtCslJiobkLta79_5alloc3vecINtB5_3VecNtNtCsdGrGZaRBwMb_3syn4attr9AttributeENtNtNtCsieiGu2EXtoJ_4core3ops5deref5Deref5derefBJ_, symObjAddr: 0x7600, symBinAddr: 0x840C0, symSize: 0x20 }
  - { offset: 0x16EEFA, size: 0x8, addend: 0x0, symName: __RNvXs6_NtCslJiobkLta79_5alloc3vecINtB5_3VecNtNtCsdGrGZaRBwMb_3syn4expr3ArmENtNtNtCsieiGu2EXtoJ_4core3ops5deref5Deref5derefBJ_, symObjAddr: 0x7620, symBinAddr: 0x840E0, symSize: 0x20 }
  - { offset: 0x16EF3A, size: 0x8, addend: 0x0, symName: __RNvXs6_NtCslJiobkLta79_5alloc3vecINtB5_3VecReENtNtNtCsieiGu2EXtoJ_4core3ops5deref5Deref5derefCsdGrGZaRBwMb_3syn, symObjAddr: 0x7660, symBinAddr: 0x84100, symSize: 0x20 }
  - { offset: 0x16EF7A, size: 0x8, addend: 0x0, symName: __RNvXs6_NtCslJiobkLta79_5alloc3vecINtB5_3VecTNtNtCsdGrGZaRBwMb_3syn2ty4TypeNtNtBK_5token5CommaEENtNtNtCsieiGu2EXtoJ_4core3ops5deref5Deref5derefBK_, symObjAddr: 0x7680, symBinAddr: 0x84120, symSize: 0x20 }
  - { offset: 0x16EFBA, size: 0x8, addend: 0x0, symName: __RNvXs6_NtCslJiobkLta79_5alloc3vecINtB5_3VecTNtNtCsdGrGZaRBwMb_3syn2ty9BareFnArgNtNtBK_5token5CommaEENtNtNtCsieiGu2EXtoJ_4core3ops5deref5Deref5derefBK_, symObjAddr: 0x76A0, symBinAddr: 0x84140, symSize: 0x20 }
  - { offset: 0x16EFFA, size: 0x8, addend: 0x0, symName: __RNvXs6_NtCslJiobkLta79_5alloc3vecINtB5_3VecTNtNtCsdGrGZaRBwMb_3syn3pat3PatNtNtBK_5token2OrEENtNtNtCsieiGu2EXtoJ_4core3ops5deref5Deref5derefBK_, symObjAddr: 0x76C0, symBinAddr: 0x84160, symSize: 0x20 }
  - { offset: 0x16F03A, size: 0x8, addend: 0x0, symName: __RNvXs6_NtCslJiobkLta79_5alloc3vecINtB5_3VecTNtNtCsdGrGZaRBwMb_3syn3pat3PatNtNtBK_5token5CommaEENtNtNtCsieiGu2EXtoJ_4core3ops5deref5Deref5derefBK_, symObjAddr: 0x76E0, symBinAddr: 0x84180, symSize: 0x20 }
  - { offset: 0x16F07A, size: 0x8, addend: 0x0, symName: __RNvXs6_NtCslJiobkLta79_5alloc3vecINtB5_3VecTNtNtCsdGrGZaRBwMb_3syn3pat8FieldPatNtNtBK_5token5CommaEENtNtNtCsieiGu2EXtoJ_4core3ops5deref5Deref5derefBK_, symObjAddr: 0x7700, symBinAddr: 0x841A0, symSize: 0x20 }
  - { offset: 0x16F0BA, size: 0x8, addend: 0x0, symName: __RNvXs6_NtCslJiobkLta79_5alloc3vecINtB5_3VecTNtNtCsdGrGZaRBwMb_3syn4data5FieldNtNtBK_5token5CommaEENtNtNtCsieiGu2EXtoJ_4core3ops5deref5Deref5derefBK_, symObjAddr: 0x7720, symBinAddr: 0x841C0, symSize: 0x20 }
  - { offset: 0x16F0FA, size: 0x8, addend: 0x0, symName: __RNvXs6_NtCslJiobkLta79_5alloc3vecINtB5_3VecTNtNtCsdGrGZaRBwMb_3syn4data7VariantNtNtBK_5token5CommaEENtNtNtCsieiGu2EXtoJ_4core3ops5deref5Deref5derefBK_, symObjAddr: 0x7740, symBinAddr: 0x841E0, symSize: 0x20 }
  - { offset: 0x16F13A, size: 0x8, addend: 0x0, symName: __RNvXs6_NtCslJiobkLta79_5alloc3vecINtB5_3VecTNtNtCsdGrGZaRBwMb_3syn4expr10FieldValueNtNtBK_5token5CommaEENtNtNtCsieiGu2EXtoJ_4core3ops5deref5Deref5derefBK_, symObjAddr: 0x7760, symBinAddr: 0x84200, symSize: 0x20 }
  - { offset: 0x16F17A, size: 0x8, addend: 0x0, symName: __RNvXs6_NtCslJiobkLta79_5alloc3vecINtB5_3VecTNtNtCsdGrGZaRBwMb_3syn4expr4ExprNtNtBK_5token5CommaEENtNtNtCsieiGu2EXtoJ_4core3ops5deref5Deref5derefBK_, symObjAddr: 0x7780, symBinAddr: 0x84220, symSize: 0x20 }
  - { offset: 0x16F1BA, size: 0x8, addend: 0x0, symName: __RNvXs6_NtCslJiobkLta79_5alloc3vecINtB5_3VecTNtNtCsdGrGZaRBwMb_3syn4item5FnArgNtNtBK_5token5CommaEENtNtNtCsieiGu2EXtoJ_4core3ops5deref5Deref5derefBK_, symObjAddr: 0x77A0, symBinAddr: 0x84240, symSize: 0x20 }
  - { offset: 0x16F1FA, size: 0x8, addend: 0x0, symName: __RNvXs6_NtCslJiobkLta79_5alloc3vecINtB5_3VecTNtNtCsdGrGZaRBwMb_3syn4item7UseTreeNtNtBK_5token5CommaEENtNtNtCsieiGu2EXtoJ_4core3ops5deref5Deref5derefBK_, symObjAddr: 0x77C0, symBinAddr: 0x84260, symSize: 0x20 }
  - { offset: 0x16F23A, size: 0x8, addend: 0x0, symName: __RNvXs6_NtCslJiobkLta79_5alloc3vecINtB5_3VecTNtNtCsdGrGZaRBwMb_3syn4path11PathSegmentNtNtBK_5token7PathSepEENtNtNtCsieiGu2EXtoJ_4core3ops5deref5Deref5derefBK_, symObjAddr: 0x77E0, symBinAddr: 0x84280, symSize: 0x20 }
  - { offset: 0x16F27A, size: 0x8, addend: 0x0, symName: __RNvXs6_NtCslJiobkLta79_5alloc3vecINtB5_3VecTNtNtCsdGrGZaRBwMb_3syn4path15GenericArgumentNtNtBK_5token5CommaEENtNtNtCsieiGu2EXtoJ_4core3ops5deref5Deref5derefBK_, symObjAddr: 0x7800, symBinAddr: 0x842A0, symSize: 0x20 }
  - { offset: 0x16F2BA, size: 0x8, addend: 0x0, symName: __RNvXs6_NtCslJiobkLta79_5alloc3vecINtB5_3VecTNtNtCsdGrGZaRBwMb_3syn8generics12GenericParamNtNtBK_5token5CommaEENtNtNtCsieiGu2EXtoJ_4core3ops5deref5Deref5derefBK_, symObjAddr: 0x7820, symBinAddr: 0x842C0, symSize: 0x20 }
  - { offset: 0x16F2FA, size: 0x8, addend: 0x0, symName: __RNvXs6_NtCslJiobkLta79_5alloc3vecINtB5_3VecTNtNtCsdGrGZaRBwMb_3syn8generics13CapturedParamNtNtBK_5token5CommaEENtNtNtCsieiGu2EXtoJ_4core3ops5deref5Deref5derefBK_, symObjAddr: 0x7840, symBinAddr: 0x842E0, symSize: 0x20 }
  - { offset: 0x16F33A, size: 0x8, addend: 0x0, symName: __RNvXs6_NtCslJiobkLta79_5alloc3vecINtB5_3VecTNtNtCsdGrGZaRBwMb_3syn8generics14TypeParamBoundNtNtBK_5token4PlusEENtNtNtCsieiGu2EXtoJ_4core3ops5deref5Deref5derefBK_, symObjAddr: 0x7860, symBinAddr: 0x84300, symSize: 0x20 }
  - { offset: 0x16F37A, size: 0x8, addend: 0x0, symName: __RNvXs6_NtCslJiobkLta79_5alloc3vecINtB5_3VecTNtNtCsdGrGZaRBwMb_3syn8generics14WherePredicateNtNtBK_5token5CommaEENtNtNtCsieiGu2EXtoJ_4core3ops5deref5Deref5derefBK_, symObjAddr: 0x7880, symBinAddr: 0x84320, symSize: 0x20 }
  - { offset: 0x16F3BA, size: 0x8, addend: 0x0, symName: __RNvXs6_NtCslJiobkLta79_5alloc3vecINtB5_3VecTNtNtCsdGrGZaRBwMb_3syn8lifetime8LifetimeNtNtBK_5token4PlusEENtNtNtCsieiGu2EXtoJ_4core3ops5deref5Deref5derefBK_, symObjAddr: 0x78A0, symBinAddr: 0x84340, symSize: 0x20 }
  - { offset: 0x16F3FA, size: 0x8, addend: 0x0, symName: __RNvXs6_NtCslJiobkLta79_5alloc3vecINtB5_3VechENtNtNtCsieiGu2EXtoJ_4core3ops5deref5Deref5derefCsdGrGZaRBwMb_3syn, symObjAddr: 0x78C0, symBinAddr: 0x84360, symSize: 0x20 }
  - { offset: 0x16FBC0, size: 0x8, addend: 0x0, symName: __RNvXsb_NtCslJiobkLta79_5alloc3vecINtB5_3VecNtNtCsdGrGZaRBwMb_3syn5error12ErrorMessageEINtNtNtCsieiGu2EXtoJ_4core3ops5index5IndexjE5indexBJ_, symObjAddr: 0x8800, symBinAddr: 0x851D0, symSize: 0x80 }
  - { offset: 0x16FD42, size: 0x8, addend: 0x0, symName: __RNvXsb_NtCslJiobkLta79_5alloc3vecINtB5_3VecReEINtNtNtCsieiGu2EXtoJ_4core3ops5index5IndexjE5indexCsdGrGZaRBwMb_3syn, symObjAddr: 0x8880, symBinAddr: 0x85250, symSize: 0x80 }
  - { offset: 0x16FEC4, size: 0x8, addend: 0x0, symName: __RNvXsb_NtCslJiobkLta79_5alloc3vecINtB5_3VecTNtNtCsdGrGZaRBwMb_3syn3pat3PatNtNtBK_5token5CommaEEINtNtNtCsieiGu2EXtoJ_4core3ops5index5IndexjE5indexBK_, symObjAddr: 0x8900, symBinAddr: 0x852D0, symSize: 0x80 }
  - { offset: 0x170046, size: 0x8, addend: 0x0, symName: __RNvXsb_NtCslJiobkLta79_5alloc3vecINtB5_3VecTNtNtCsdGrGZaRBwMb_3syn4path11PathSegmentNtNtBK_5token7PathSepEEINtNtNtCsieiGu2EXtoJ_4core3ops5index5IndexjE5indexBK_, symObjAddr: 0x8980, symBinAddr: 0x85350, symSize: 0x80 }
  - { offset: 0x1701C8, size: 0x8, addend: 0x0, symName: __RNvXsb_NtCslJiobkLta79_5alloc3vecINtB5_3VechEINtNtNtCsieiGu2EXtoJ_4core3ops5index5IndexINtNtBM_5range9RangeFromjEE5indexCsdGrGZaRBwMb_3syn, symObjAddr: 0x8A00, symBinAddr: 0x853D0, symSize: 0x70 }
  - { offset: 0x17034A, size: 0x8, addend: 0x0, symName: __RNvXsb_NtCslJiobkLta79_5alloc3vecINtB5_3VechEINtNtNtCsieiGu2EXtoJ_4core3ops5index5IndexjE5indexCsdGrGZaRBwMb_3syn, symObjAddr: 0x8A70, symBinAddr: 0x85440, symSize: 0x70 }
  - { offset: 0x17068C, size: 0x8, addend: 0x0, symName: __RNvXs0_NtNtCslJiobkLta79_5alloc3vec11spec_extendINtB7_3VecNtNtCsdGrGZaRBwMb_3syn4attr9AttributeEINtB5_10SpecExtendBU_INtNtB7_9into_iter8IntoIterBU_EE11spec_extendBY_, symObjAddr: 0x7440, symBinAddr: 0x84010, symSize: 0x90 }
  - { offset: 0x1706F9, size: 0x8, addend: 0x0, symName: __RNvXs7_NtCslJiobkLta79_5alloc3vecINtB5_3VecTNtNtCsdGrGZaRBwMb_3syn4path11PathSegmentNtNtBK_5token7PathSepEENtNtNtCsieiGu2EXtoJ_4core3ops5deref8DerefMut9deref_mutBK_, symObjAddr: 0x7900, symBinAddr: 0x84380, symSize: 0x20 }
  - { offset: 0x1707CF, size: 0x8, addend: 0x0, symName: __RNvXs9_NtCslJiobkLta79_5alloc3vecINtB5_3VecNtNtCsdGrGZaRBwMb_3syn4attr9AttributeENtNtCsieiGu2EXtoJ_4core5clone5Clone5cloneBJ_, symObjAddr: 0x7940, symBinAddr: 0x843A0, symSize: 0x90 }
  - { offset: 0x1709A0, size: 0x8, addend: 0x0, symName: __RNvXs9_NtCslJiobkLta79_5alloc3vecINtB5_3VecNtNtCsdGrGZaRBwMb_3syn4expr3ArmENtNtCsieiGu2EXtoJ_4core5clone5Clone5cloneBJ_, symObjAddr: 0x79D0, symBinAddr: 0x84430, symSize: 0x90 }
  - { offset: 0x170B71, size: 0x8, addend: 0x0, symName: __RNvXs9_NtCslJiobkLta79_5alloc3vecINtB5_3VecNtNtCsdGrGZaRBwMb_3syn4item11ForeignItemENtNtCsieiGu2EXtoJ_4core5clone5Clone5cloneBJ_, symObjAddr: 0x7A60, symBinAddr: 0x844C0, symSize: 0x90 }
  - { offset: 0x170D42, size: 0x8, addend: 0x0, symName: __RNvXs9_NtCslJiobkLta79_5alloc3vecINtB5_3VecNtNtCsdGrGZaRBwMb_3syn4item4ItemENtNtCsieiGu2EXtoJ_4core5clone5Clone5cloneBJ_, symObjAddr: 0x7AF0, symBinAddr: 0x84550, symSize: 0x90 }
  - { offset: 0x170F13, size: 0x8, addend: 0x0, symName: __RNvXs9_NtCslJiobkLta79_5alloc3vecINtB5_3VecNtNtCsdGrGZaRBwMb_3syn4item8ImplItemENtNtCsieiGu2EXtoJ_4core5clone5Clone5cloneBJ_, symObjAddr: 0x7B80, symBinAddr: 0x845E0, symSize: 0x90 }
  - { offset: 0x1710E4, size: 0x8, addend: 0x0, symName: __RNvXs9_NtCslJiobkLta79_5alloc3vecINtB5_3VecNtNtCsdGrGZaRBwMb_3syn4item9TraitItemENtNtCsieiGu2EXtoJ_4core5clone5Clone5cloneBJ_, symObjAddr: 0x7C10, symBinAddr: 0x84670, symSize: 0x90 }
  - { offset: 0x1712B5, size: 0x8, addend: 0x0, symName: __RNvXs9_NtCslJiobkLta79_5alloc3vecINtB5_3VecNtNtCsdGrGZaRBwMb_3syn4stmt4StmtENtNtCsieiGu2EXtoJ_4core5clone5Clone5cloneBJ_, symObjAddr: 0x7CA0, symBinAddr: 0x84700, symSize: 0x90 }
  - { offset: 0x171486, size: 0x8, addend: 0x0, symName: __RNvXs9_NtCslJiobkLta79_5alloc3vecINtB5_3VecTNtNtCsdGrGZaRBwMb_3syn2ty4TypeNtNtBK_5token5CommaEENtNtCsieiGu2EXtoJ_4core5clone5Clone5cloneBK_, symObjAddr: 0x7DC0, symBinAddr: 0x84790, symSize: 0x90 }
  - { offset: 0x171657, size: 0x8, addend: 0x0, symName: __RNvXs9_NtCslJiobkLta79_5alloc3vecINtB5_3VecTNtNtCsdGrGZaRBwMb_3syn2ty9BareFnArgNtNtBK_5token5CommaEENtNtCsieiGu2EXtoJ_4core5clone5Clone5cloneBK_, symObjAddr: 0x7E50, symBinAddr: 0x84820, symSize: 0x90 }
  - { offset: 0x171828, size: 0x8, addend: 0x0, symName: __RNvXs9_NtCslJiobkLta79_5alloc3vecINtB5_3VecTNtNtCsdGrGZaRBwMb_3syn3pat3PatNtNtBK_5token2OrEENtNtCsieiGu2EXtoJ_4core5clone5Clone5cloneBK_, symObjAddr: 0x7EE0, symBinAddr: 0x848B0, symSize: 0x90 }
  - { offset: 0x1719F9, size: 0x8, addend: 0x0, symName: __RNvXs9_NtCslJiobkLta79_5alloc3vecINtB5_3VecTNtNtCsdGrGZaRBwMb_3syn3pat3PatNtNtBK_5token5CommaEENtNtCsieiGu2EXtoJ_4core5clone5Clone5cloneBK_, symObjAddr: 0x7F70, symBinAddr: 0x84940, symSize: 0x90 }
  - { offset: 0x171BCA, size: 0x8, addend: 0x0, symName: __RNvXs9_NtCslJiobkLta79_5alloc3vecINtB5_3VecTNtNtCsdGrGZaRBwMb_3syn3pat8FieldPatNtNtBK_5token5CommaEENtNtCsieiGu2EXtoJ_4core5clone5Clone5cloneBK_, symObjAddr: 0x8000, symBinAddr: 0x849D0, symSize: 0x90 }
  - { offset: 0x171D9B, size: 0x8, addend: 0x0, symName: __RNvXs9_NtCslJiobkLta79_5alloc3vecINtB5_3VecTNtNtCsdGrGZaRBwMb_3syn4data5FieldNtNtBK_5token5CommaEENtNtCsieiGu2EXtoJ_4core5clone5Clone5cloneBK_, symObjAddr: 0x8090, symBinAddr: 0x84A60, symSize: 0x90 }
  - { offset: 0x171F6C, size: 0x8, addend: 0x0, symName: __RNvXs9_NtCslJiobkLta79_5alloc3vecINtB5_3VecTNtNtCsdGrGZaRBwMb_3syn4data7VariantNtNtBK_5token5CommaEENtNtCsieiGu2EXtoJ_4core5clone5Clone5cloneBK_, symObjAddr: 0x8120, symBinAddr: 0x84AF0, symSize: 0x90 }
  - { offset: 0x17213D, size: 0x8, addend: 0x0, symName: __RNvXs9_NtCslJiobkLta79_5alloc3vecINtB5_3VecTNtNtCsdGrGZaRBwMb_3syn4expr10FieldValueNtNtBK_5token5CommaEENtNtCsieiGu2EXtoJ_4core5clone5Clone5cloneBK_, symObjAddr: 0x81B0, symBinAddr: 0x84B80, symSize: 0x90 }
  - { offset: 0x17230E, size: 0x8, addend: 0x0, symName: __RNvXs9_NtCslJiobkLta79_5alloc3vecINtB5_3VecTNtNtCsdGrGZaRBwMb_3syn4expr4ExprNtNtBK_5token5CommaEENtNtCsieiGu2EXtoJ_4core5clone5Clone5cloneBK_, symObjAddr: 0x8240, symBinAddr: 0x84C10, symSize: 0x90 }
  - { offset: 0x1724DF, size: 0x8, addend: 0x0, symName: __RNvXs9_NtCslJiobkLta79_5alloc3vecINtB5_3VecTNtNtCsdGrGZaRBwMb_3syn4item5FnArgNtNtBK_5token5CommaEENtNtCsieiGu2EXtoJ_4core5clone5Clone5cloneBK_, symObjAddr: 0x82D0, symBinAddr: 0x84CA0, symSize: 0x90 }
  - { offset: 0x1726B0, size: 0x8, addend: 0x0, symName: __RNvXs9_NtCslJiobkLta79_5alloc3vecINtB5_3VecTNtNtCsdGrGZaRBwMb_3syn4item7UseTreeNtNtBK_5token5CommaEENtNtCsieiGu2EXtoJ_4core5clone5Clone5cloneBK_, symObjAddr: 0x8360, symBinAddr: 0x84D30, symSize: 0x90 }
  - { offset: 0x172881, size: 0x8, addend: 0x0, symName: __RNvXs9_NtCslJiobkLta79_5alloc3vecINtB5_3VecTNtNtCsdGrGZaRBwMb_3syn4path11PathSegmentNtNtBK_5token7PathSepEENtNtCsieiGu2EXtoJ_4core5clone5Clone5cloneBK_, symObjAddr: 0x83F0, symBinAddr: 0x84DC0, symSize: 0x90 }
  - { offset: 0x172A52, size: 0x8, addend: 0x0, symName: __RNvXs9_NtCslJiobkLta79_5alloc3vecINtB5_3VecTNtNtCsdGrGZaRBwMb_3syn4path15GenericArgumentNtNtBK_5token5CommaEENtNtCsieiGu2EXtoJ_4core5clone5Clone5cloneBK_, symObjAddr: 0x8480, symBinAddr: 0x84E50, symSize: 0x90 }
  - { offset: 0x172C23, size: 0x8, addend: 0x0, symName: __RNvXs9_NtCslJiobkLta79_5alloc3vecINtB5_3VecTNtNtCsdGrGZaRBwMb_3syn8generics12GenericParamNtNtBK_5token5CommaEENtNtCsieiGu2EXtoJ_4core5clone5Clone5cloneBK_, symObjAddr: 0x8510, symBinAddr: 0x84EE0, symSize: 0x90 }
  - { offset: 0x172DF4, size: 0x8, addend: 0x0, symName: __RNvXs9_NtCslJiobkLta79_5alloc3vecINtB5_3VecTNtNtCsdGrGZaRBwMb_3syn8generics13CapturedParamNtNtBK_5token5CommaEENtNtCsieiGu2EXtoJ_4core5clone5Clone5cloneBK_, symObjAddr: 0x85A0, symBinAddr: 0x84F70, symSize: 0x90 }
  - { offset: 0x172FC5, size: 0x8, addend: 0x0, symName: __RNvXs9_NtCslJiobkLta79_5alloc3vecINtB5_3VecTNtNtCsdGrGZaRBwMb_3syn8generics14TypeParamBoundNtNtBK_5token4PlusEENtNtCsieiGu2EXtoJ_4core5clone5Clone5cloneBK_, symObjAddr: 0x8630, symBinAddr: 0x85000, symSize: 0x90 }
  - { offset: 0x173196, size: 0x8, addend: 0x0, symName: __RNvXs9_NtCslJiobkLta79_5alloc3vecINtB5_3VecTNtNtCsdGrGZaRBwMb_3syn8generics14WherePredicateNtNtBK_5token5CommaEENtNtCsieiGu2EXtoJ_4core5clone5Clone5cloneBK_, symObjAddr: 0x86C0, symBinAddr: 0x85090, symSize: 0x90 }
  - { offset: 0x173367, size: 0x8, addend: 0x0, symName: __RNvXs9_NtCslJiobkLta79_5alloc3vecINtB5_3VecTNtNtCsdGrGZaRBwMb_3syn8lifetime8LifetimeNtNtBK_5token4PlusEENtNtCsieiGu2EXtoJ_4core5clone5Clone5cloneBK_, symObjAddr: 0x8750, symBinAddr: 0x85120, symSize: 0x90 }
  - { offset: 0x17353E, size: 0x8, addend: 0x0, symName: __RNvXsc_NtCslJiobkLta79_5alloc3vecINtB5_3VecNtNtCsdGrGZaRBwMb_3syn6buffer5EntryEINtNtNtCsieiGu2EXtoJ_4core3ops5index8IndexMutjE9index_mutBJ_, symObjAddr: 0x8AE0, symBinAddr: 0x854B0, symSize: 0x80 }
  - { offset: 0x173692, size: 0x8, addend: 0x0, symName: __RNvXsc_NtCslJiobkLta79_5alloc3vecINtB5_3VechEINtNtNtCsieiGu2EXtoJ_4core3ops5index8IndexMutjE9index_mutCsdGrGZaRBwMb_3syn, symObjAddr: 0x8B60, symBinAddr: 0x85530, symSize: 0x70 }
  - { offset: 0x1737EC, size: 0x8, addend: 0x0, symName: __RNvXse_NtCslJiobkLta79_5alloc3vecINtB5_3VecNtNtCsdGrGZaRBwMb_3syn4attr9AttributeENtNtNtNtCsieiGu2EXtoJ_4core4iter6traits7collect12IntoIterator9into_iterBJ_, symObjAddr: 0x8BD0, symBinAddr: 0x855A0, symSize: 0x140 }
  - { offset: 0x173A7C, size: 0x8, addend: 0x0, symName: __RNvXse_NtCslJiobkLta79_5alloc3vecINtB5_3VecNtNtCsdGrGZaRBwMb_3syn8generics14TypeParamBoundENtNtNtNtCsieiGu2EXtoJ_4core4iter6traits7collect12IntoIterator9into_iterBJ_, symObjAddr: 0x8F90, symBinAddr: 0x856E0, symSize: 0x140 }
  - { offset: 0x173D0C, size: 0x8, addend: 0x0, symName: __RNvXse_NtCslJiobkLta79_5alloc3vecINtB5_3VecTNtNtCsdGrGZaRBwMb_3syn4path11PathSegmentNtNtBK_5token7PathSepEENtNtNtNtCsieiGu2EXtoJ_4core4iter6traits7collect12IntoIterator9into_iterBK_, symObjAddr: 0x9350, symBinAddr: 0x85820, symSize: 0x140 }
  - { offset: 0x173F9C, size: 0x8, addend: 0x0, symName: __RNvXse_NtCslJiobkLta79_5alloc3vecINtB5_3VecTNtNtCsdGrGZaRBwMb_3syn8generics14TypeParamBoundNtNtBK_5token4PlusEENtNtNtNtCsieiGu2EXtoJ_4core4iter6traits7collect12IntoIterator9into_iterBK_, symObjAddr: 0x9490, symBinAddr: 0x85960, symSize: 0x140 }
  - { offset: 0x174232, size: 0x8, addend: 0x0, symName: __RNvXsf_NtCslJiobkLta79_5alloc3vecRINtB5_3VecNtNtCsdGrGZaRBwMb_3syn4attr9AttributeENtNtNtNtCsieiGu2EXtoJ_4core4iter6traits7collect12IntoIterator9into_iterBK_, symObjAddr: 0x95D0, symBinAddr: 0x85AA0, symSize: 0x80 }
  - { offset: 0x17445F, size: 0x8, addend: 0x0, symName: __RNvXsf_NtCslJiobkLta79_5alloc3vecRINtB5_3VecNtNtCsdGrGZaRBwMb_3syn4item11ForeignItemENtNtNtNtCsieiGu2EXtoJ_4core4iter6traits7collect12IntoIterator9into_iterBK_, symObjAddr: 0x9650, symBinAddr: 0x85B20, symSize: 0x80 }
  - { offset: 0x17468C, size: 0x8, addend: 0x0, symName: __RNvXsf_NtCslJiobkLta79_5alloc3vecRINtB5_3VecNtNtCsdGrGZaRBwMb_3syn4item4ItemENtNtNtNtCsieiGu2EXtoJ_4core4iter6traits7collect12IntoIterator9into_iterBK_, symObjAddr: 0x96D0, symBinAddr: 0x85BA0, symSize: 0x80 }
  - { offset: 0x1748B9, size: 0x8, addend: 0x0, symName: __RNvXsf_NtCslJiobkLta79_5alloc3vecRINtB5_3VecNtNtCsdGrGZaRBwMb_3syn4item8ImplItemENtNtNtNtCsieiGu2EXtoJ_4core4iter6traits7collect12IntoIterator9into_iterBK_, symObjAddr: 0x9750, symBinAddr: 0x85C20, symSize: 0x80 }
  - { offset: 0x174AE6, size: 0x8, addend: 0x0, symName: __RNvXsf_NtCslJiobkLta79_5alloc3vecRINtB5_3VecNtNtCsdGrGZaRBwMb_3syn4item9TraitItemENtNtNtNtCsieiGu2EXtoJ_4core4iter6traits7collect12IntoIterator9into_iterBK_, symObjAddr: 0x97D0, symBinAddr: 0x85CA0, symSize: 0x80 }
  - { offset: 0x174D13, size: 0x8, addend: 0x0, symName: __RNvXsf_NtCslJiobkLta79_5alloc3vecRINtB5_3VecNtNtCsdGrGZaRBwMb_3syn4stmt4StmtENtNtNtNtCsieiGu2EXtoJ_4core4iter6traits7collect12IntoIterator9into_iterBK_, symObjAddr: 0x9850, symBinAddr: 0x85D20, symSize: 0x80 }
  - { offset: 0x174F40, size: 0x8, addend: 0x0, symName: __RNvXsf_NtCslJiobkLta79_5alloc3vecRINtB5_3VecNtNtCsdGrGZaRBwMb_3syn5error12ErrorMessageENtNtNtNtCsieiGu2EXtoJ_4core4iter6traits7collect12IntoIterator9into_iterBK_, symObjAddr: 0x98D0, symBinAddr: 0x85DA0, symSize: 0x80 }
  - { offset: 0x175173, size: 0x8, addend: 0x0, symName: __RNvXsg_NtCslJiobkLta79_5alloc3vecQINtB5_3VechENtNtNtNtCsieiGu2EXtoJ_4core4iter6traits7collect12IntoIterator9into_iterCsdGrGZaRBwMb_3syn, symObjAddr: 0xA250, symBinAddr: 0x85E20, symSize: 0x80 }
  - { offset: 0x17539A, size: 0x8, addend: 0x0, symName: __RNvXsn_NtCslJiobkLta79_5alloc3vecINtB5_3VecNtNtCsdGrGZaRBwMb_3syn4attr9AttributeENtNtNtCsieiGu2EXtoJ_4core3ops4drop4Drop4dropBJ_, symObjAddr: 0xA2D0, symBinAddr: 0x85EA0, symSize: 0x30 }
  - { offset: 0x17544A, size: 0x8, addend: 0x0, symName: __RNvXsn_NtCslJiobkLta79_5alloc3vecINtB5_3VecNtNtCsdGrGZaRBwMb_3syn4expr3ArmENtNtNtCsieiGu2EXtoJ_4core3ops4drop4Drop4dropBJ_, symObjAddr: 0xA330, symBinAddr: 0x85ED0, symSize: 0x30 }
  - { offset: 0x1754FA, size: 0x8, addend: 0x0, symName: __RNvXsn_NtCslJiobkLta79_5alloc3vecINtB5_3VecNtNtCsdGrGZaRBwMb_3syn4expr6ExprIfENtNtNtCsieiGu2EXtoJ_4core3ops4drop4Drop4dropBJ_, symObjAddr: 0xA360, symBinAddr: 0x85F00, symSize: 0x30 }
