---
triple:          'x86_64-apple-darwin'
binary-path:     '/Users/kema/git/rust-serv/target/debug/build/paste-9f8c3484b0953bde/build_script_build-9f8c3484b0953bde'
relocations:
  - { offset: 0x1E, size: 0x8, addend: 0x0, symName: __RINvMNtCsieiGu2EXtoJ_4core3stre5parsemECse2QOtlhqWv3_18build_script_build, symObjAddr: 0x0, symBinAddr: 0x100000B90, symSize: 0x30 }
  - { offset: 0x84, size: 0x8, addend: 0x0, symName: __RNvXNvNtCsHUR1vrdMJt_3std2io17default_write_fmtINtB2_7AdapterNtNtNtNtB6_3sys5stdio4unix6StderrENtNtCsieiGu2EXtoJ_4core3fmt5Write9write_strCse2QOtlhqWv3_18build_script_build, symObjAddr: 0x4F90, symBinAddr: 0x100005A70, symSize: 0xA0 }
  - { offset: 0x20A, size: 0x8, addend: 0x0, symName: __RNCNvXs1_NtNtNtCsHUR1vrdMJt_3std2io5error14repr_bitpackedNtB7_4ReprNtNtNtCsieiGu2EXtoJ_4core3ops4drop4Drop4drop0Cse2QOtlhqWv3_18build_script_build, symObjAddr: 0x1BB0, symBinAddr: 0x1000026A0, symSize: 0x30 }
  - { offset: 0x2BF, size: 0x8, addend: 0x0, symName: __RNvXs1_NtNtNtCsHUR1vrdMJt_3std2io5error14repr_bitpackedNtB5_4ReprNtNtNtCsieiGu2EXtoJ_4core3ops4drop4Drop4dropCse2QOtlhqWv3_18build_script_build, symObjAddr: 0x5170, symBinAddr: 0x100005C50, symSize: 0x30 }
  - { offset: 0x2E8, size: 0x8, addend: 0x0, symName: __RINvNtNtNtCsHUR1vrdMJt_3std2io5error14repr_bitpacked11decode_reprINtNtCslJiobkLta79_5alloc5boxed3BoxNtB4_6CustomENCNvXs1_B2_NtB2_4ReprNtNtNtCsieiGu2EXtoJ_4core3ops4drop4Drop4drop0ECse2QOtlhqWv3_18build_script_build, symObjAddr: 0x1600, symBinAddr: 0x1000020F0, symSize: 0x200 }
  - { offset: 0x55A, size: 0x8, addend: 0x0, symName: __RNCNvMs0_NtNtNtCsHUR1vrdMJt_3std2io5error14repr_bitpackedNtB7_4Repr4data0Cse2QOtlhqWv3_18build_script_build, symObjAddr: 0x1BA0, symBinAddr: 0x100002690, symSize: 0x10 }
  - { offset: 0x592, size: 0x8, addend: 0x0, symName: __RINvNtNtNtCsHUR1vrdMJt_3std2io5error14repr_bitpacked11decode_reprRNtB4_6CustomNCNvMs0_B2_NtB2_4Repr4data0ECse2QOtlhqWv3_18build_script_build, symObjAddr: 0x1800, symBinAddr: 0x1000022F0, symSize: 0x200 }
  - { offset: 0x7F3, size: 0x8, addend: 0x0, symName: __RNvNtNtNtCsHUR1vrdMJt_3std2io5error14repr_bitpacked14kind_from_primCse2QOtlhqWv3_18build_script_build, symObjAddr: 0x3F60, symBinAddr: 0x100004A40, symSize: 0x5B0 }
  - { offset: 0x1300, size: 0x8, addend: 0x0, symName: __RINvNtCsHUR1vrdMJt_3std2io17default_write_fmtNtNtNtNtB4_3sys5stdio4unix6StderrECse2QOtlhqWv3_18build_script_build, symObjAddr: 0x980, symBinAddr: 0x100001510, symSize: 0x120 }
  - { offset: 0x13B5, size: 0x8, addend: 0x0, symName: __RNvYNtNtNtNtCsHUR1vrdMJt_3std3sys5stdio4unix6StderrNtNtBa_2io5Write9write_allCse2QOtlhqWv3_18build_script_build, symObjAddr: 0x6710, symBinAddr: 0x1000071F0, symSize: 0x2E0 }
  - { offset: 0x155B, size: 0x8, addend: 0x0, symName: __RNvYNtNtNtNtCsHUR1vrdMJt_3std3sys5stdio4unix6StderrNtNtBa_2io5Write9write_fmtCse2QOtlhqWv3_18build_script_build, symObjAddr: 0x69F0, symBinAddr: 0x1000074D0, symSize: 0x170 }
  - { offset: 0x18CC, size: 0x8, addend: 0x0, symName: __RINvNtNtCsHUR1vrdMJt_3std3sys9backtrace28___rust_begin_short_backtraceFEuuECse2QOtlhqWv3_18build_script_build, symObjAddr: 0x15E0, symBinAddr: 0x1000020D0, symSize: 0x20 }
  - { offset: 0x1989, size: 0x8, addend: 0x0, symName: __RNvNtNtNtCsHUR1vrdMJt_3std3sys2fs4unix23debug_assert_fd_is_openCse2QOtlhqWv3_18build_script_build, symObjAddr: 0x4510, symBinAddr: 0x100004FF0, symSize: 0xB0 }
  - { offset: 0x1A1A, size: 0x8, addend: 0x0, symName: __RNCINvNtCsHUR1vrdMJt_3std2rt10lang_startuE0Cse2QOtlhqWv3_18build_script_build, symObjAddr: 0x1B70, symBinAddr: 0x100002660, symSize: 0x30 }
  - { offset: 0x1A84, size: 0x8, addend: 0x0, symName: __RINvNtCsHUR1vrdMJt_3std2rt10lang_startuECse2QOtlhqWv3_18build_script_build, symObjAddr: 0xAA0, symBinAddr: 0x100001630, symSize: 0x40 }
  - { offset: 0x1B08, size: 0x8, addend: 0x0, symName: __RNvXs3_NtNtCsHUR1vrdMJt_3std3ffi6os_strNtB5_8OsStringINtNtNtCsieiGu2EXtoJ_4core3ops5index5IndexNtNtBU_5range9RangeFullE5indexCse2QOtlhqWv3_18build_script_build, symObjAddr: 0x52C0, symBinAddr: 0x100005DA0, symSize: 0x60 }
  - { offset: 0x1C50, size: 0x8, addend: 0x0, symName: __RNvXsV_NtNtCsHUR1vrdMJt_3std3ffi6os_strNtB5_8OsStringINtNtCsieiGu2EXtoJ_4core7convert5AsRefNtB5_5OsStrE6as_refCse2QOtlhqWv3_18build_script_build, symObjAddr: 0x59E0, symBinAddr: 0x1000064C0, symSize: 0x20 }
  - { offset: 0x1CA2, size: 0x8, addend: 0x0, symName: __RNvXsW_NtNtCsHUR1vrdMJt_3std3ffi6os_streINtNtCsieiGu2EXtoJ_4core7convert5AsRefNtB5_5OsStrE6as_refCse2QOtlhqWv3_18build_script_build, symObjAddr: 0x5A00, symBinAddr: 0x1000064E0, symSize: 0x20 }
  - { offset: 0x1DA2, size: 0x8, addend: 0x0, symName: __RNvXsZ_NtCsHUR1vrdMJt_3std7processuNtB5_11Termination6reportCse2QOtlhqWv3_18build_script_build, symObjAddr: 0x5A40, symBinAddr: 0x100006520, symSize: 0x10 }
  - { offset: 0x1E18, size: 0x8, addend: 0x0, symName: __RNvXs5_NtNtNtCsHUR1vrdMJt_3std2os2fd5ownedNtB5_7OwnedFdNtNtNtCsieiGu2EXtoJ_4core3ops4drop4Drop4dropCse2QOtlhqWv3_18build_script_build, symObjAddr: 0x53F0, symBinAddr: 0x100005ED0, symSize: 0x30 }
  - { offset: 0x1E49, size: 0x8, addend: 0x0, symName: __RINvNtCsHUR1vrdMJt_3std3env6var_osReECse2QOtlhqWv3_18build_script_build, symObjAddr: 0xAE0, symBinAddr: 0x100001670, symSize: 0x60 }
  - { offset: 0x2576, size: 0x8, addend: 0x0, symName: __RNvNvMs1_NtNtCsieiGu2EXtoJ_4core3ptr8non_nullINtB7_7NonNullpE13new_unchecked18precondition_checkCse2QOtlhqWv3_18build_script_build, symObjAddr: 0x4670, symBinAddr: 0x100005150, symSize: 0x90 }
  - { offset: 0x2C1B, size: 0x8, addend: 0x0, symName: __RINvNtCsieiGu2EXtoJ_4core3ptr13drop_in_placeINtNtB4_6option6OptionINtNtCslJiobkLta79_5alloc5boxed3BoxSmEEECse2QOtlhqWv3_18build_script_build, symObjAddr: 0xBE0, symBinAddr: 0x1000016D0, symSize: 0x40 }
  - { offset: 0x2C4A, size: 0x8, addend: 0x0, symName: __RINvNtCsieiGu2EXtoJ_4core3ptr13drop_in_placeINtNtB4_6option6OptionNtNtNtCsHUR1vrdMJt_3std3ffi6os_str8OsStringEECse2QOtlhqWv3_18build_script_build, symObjAddr: 0xC20, symBinAddr: 0x100001710, symSize: 0x40 }
  - { offset: 0x2C79, size: 0x8, addend: 0x0, symName: __RINvNtCsieiGu2EXtoJ_4core3ptr13drop_in_placeINtNtB4_6option6OptionNtNtNtCslJiobkLta79_5alloc3ffi5c_str7CStringEECse2QOtlhqWv3_18build_script_build, symObjAddr: 0xC60, symBinAddr: 0x100001750, symSize: 0x40 }
  - { offset: 0x2CA8, size: 0x8, addend: 0x0, symName: __RINvNtCsieiGu2EXtoJ_4core3ptr13drop_in_placeINtNtB4_6option6OptionNtNtNtNtNtCsHUR1vrdMJt_3std3sys7process4unix6common5StdioEECse2QOtlhqWv3_18build_script_build, symObjAddr: 0xCA0, symBinAddr: 0x100001790, symSize: 0x40 }
  - { offset: 0x2CD7, size: 0x8, addend: 0x0, symName: __RINvNtCsieiGu2EXtoJ_4core3ptr13drop_in_placeINtNtB4_6result6ResultNtNtCsHUR1vrdMJt_3std7process6OutputNtNtNtB16_2io5error5ErrorEECse2QOtlhqWv3_18build_script_build, symObjAddr: 0xCE0, symBinAddr: 0x1000017D0, symSize: 0x50 }
  - { offset: 0x2D06, size: 0x8, addend: 0x0, symName: __RINvNtCsieiGu2EXtoJ_4core3ptr13drop_in_placeINtNtB4_6result6ResultuNtNtNtCsHUR1vrdMJt_3std2io5error5ErrorEECse2QOtlhqWv3_18build_script_build, symObjAddr: 0xD30, symBinAddr: 0x100001820, symSize: 0x40 }
  - { offset: 0x2D35, size: 0x8, addend: 0x0, symName: __RINvNtCsieiGu2EXtoJ_4core3ptr13drop_in_placeINtNtCslJiobkLta79_5alloc3vec3VecINtNtBL_5boxed3BoxDINtNtNtB4_3ops8function5FnMutuEp6OutputINtNtB4_6result6ResultuNtNtNtCsHUR1vrdMJt_3std2io5error5ErrorENtNtB4_6marker4SyncNtB3b_4SendEL_EEECse2QOtlhqWv3_18build_script_build, symObjAddr: 0xD70, symBinAddr: 0x100001860, symSize: 0x50 }
  - { offset: 0x2D64, size: 0x8, addend: 0x0, symName: __RINvNtCsieiGu2EXtoJ_4core3ptr13drop_in_placeINtNtCslJiobkLta79_5alloc3vec3VecPaEECse2QOtlhqWv3_18build_script_build, symObjAddr: 0xDC0, symBinAddr: 0x1000018B0, symSize: 0x50 }
  - { offset: 0x2D93, size: 0x8, addend: 0x0, symName: __RINvNtCsieiGu2EXtoJ_4core3ptr13drop_in_placeINtNtCslJiobkLta79_5alloc3vec3VechEECse2QOtlhqWv3_18build_script_build, symObjAddr: 0xE10, symBinAddr: 0x100001900, symSize: 0x50 }
  - { offset: 0x2DC2, size: 0x8, addend: 0x0, symName: __RINvNtCsieiGu2EXtoJ_4core3ptr13drop_in_placeINtNtCslJiobkLta79_5alloc5boxed3BoxDINtNtNtB4_3ops8function5FnMutuEp6OutputINtNtB4_6result6ResultuNtNtNtCsHUR1vrdMJt_3std2io5error5ErrorENtNtB4_6marker4SyncNtB2V_4SendEL_EECse2QOtlhqWv3_18build_script_build, symObjAddr: 0xE60, symBinAddr: 0x100001950, symSize: 0x70 }
  - { offset: 0x2DF1, size: 0x8, addend: 0x0, symName: __RINvNtCsieiGu2EXtoJ_4core3ptr13drop_in_placeINtNtCslJiobkLta79_5alloc5boxed3BoxDNtNtB4_5error5ErrorNtNtB4_6marker4SyncNtB1B_4SendEL_EECse2QOtlhqWv3_18build_script_build, symObjAddr: 0xED0, symBinAddr: 0x1000019C0, symSize: 0x70 }
  - { offset: 0x2E20, size: 0x8, addend: 0x0, symName: __RINvNtCsieiGu2EXtoJ_4core3ptr13drop_in_placeINtNtCslJiobkLta79_5alloc5boxed3BoxNtNtNtCsHUR1vrdMJt_3std2io5error6CustomEECse2QOtlhqWv3_18build_script_build, symObjAddr: 0xF40, symBinAddr: 0x100001A30, symSize: 0x50 }
  - { offset: 0x2E4F, size: 0x8, addend: 0x0, symName: __RINvNtCsieiGu2EXtoJ_4core3ptr13drop_in_placeINtNtCslJiobkLta79_5alloc5boxed3BoxShEECse2QOtlhqWv3_18build_script_build, symObjAddr: 0xF90, symBinAddr: 0x100001A80, symSize: 0x20 }
  - { offset: 0x2E7E, size: 0x8, addend: 0x0, symName: __RINvNtCsieiGu2EXtoJ_4core3ptr13drop_in_placeINtNtCslJiobkLta79_5alloc5boxed3BoxSmEECse2QOtlhqWv3_18build_script_build, symObjAddr: 0xFB0, symBinAddr: 0x100001AA0, symSize: 0x20 }
  - { offset: 0x2EAD, size: 0x8, addend: 0x0, symName: __RINvNtCsieiGu2EXtoJ_4core3ptr13drop_in_placeINtNtCslJiobkLta79_5alloc7raw_vec6RawVecINtNtBL_5boxed3BoxDINtNtNtB4_3ops8function5FnMutuEp6OutputINtNtB4_6result6ResultuNtNtNtCsHUR1vrdMJt_3std2io5error5ErrorENtNtB4_6marker4SyncNtB3i_4SendEL_EEECse2QOtlhqWv3_18build_script_build, symObjAddr: 0xFD0, symBinAddr: 0x100001AC0, symSize: 0x20 }
  - { offset: 0x2EDC, size: 0x8, addend: 0x0, symName: __RINvNtCsieiGu2EXtoJ_4core3ptr13drop_in_placeINtNtCslJiobkLta79_5alloc7raw_vec6RawVecPaEECse2QOtlhqWv3_18build_script_build, symObjAddr: 0xFF0, symBinAddr: 0x100001AE0, symSize: 0x20 }
  - { offset: 0x2F0B, size: 0x8, addend: 0x0, symName: __RINvNtCsieiGu2EXtoJ_4core3ptr13drop_in_placeINtNtCslJiobkLta79_5alloc7raw_vec6RawVechEECse2QOtlhqWv3_18build_script_build, symObjAddr: 0x1010, symBinAddr: 0x100001B00, symSize: 0x20 }
  - { offset: 0x2F3A, size: 0x8, addend: 0x0, symName: __RINvNtCsieiGu2EXtoJ_4core3ptr13drop_in_placeINtNtNtCsHUR1vrdMJt_3std2io5error9ErrorDataINtNtCslJiobkLta79_5alloc5boxed3BoxNtBJ_6CustomEEECse2QOtlhqWv3_18build_script_build, symObjAddr: 0x1030, symBinAddr: 0x100001B20, symSize: 0x30 }
  - { offset: 0x2F69, size: 0x8, addend: 0x0, symName: __RINvNtCsieiGu2EXtoJ_4core3ptr13drop_in_placeINtNtNtNtCslJiobkLta79_5alloc11collections5btree3map8BTreeMapNtNtNtCsHUR1vrdMJt_3std3ffi6os_str8OsStringINtNtB4_6option6OptionB1F_EEECse2QOtlhqWv3_18build_script_build, symObjAddr: 0x1060, symBinAddr: 0x100001B50, symSize: 0x20 }
  - { offset: 0x2F98, size: 0x8, addend: 0x0, symName: __RINvNtCsieiGu2EXtoJ_4core3ptr13drop_in_placeINtNtNtNtCslJiobkLta79_5alloc11collections5btree3map8IntoIterNtNtNtCsHUR1vrdMJt_3std3ffi6os_str8OsStringINtNtB4_6option6OptionB1F_EEECse2QOtlhqWv3_18build_script_build, symObjAddr: 0x1080, symBinAddr: 0x100001B70, symSize: 0x20 }
  - { offset: 0x2FC7, size: 0x8, addend: 0x0, symName: __RINvNtCsieiGu2EXtoJ_4core3ptr13drop_in_placeINtNvMsT_NtNtNtCslJiobkLta79_5alloc11collections5btree4nodeINtBP_6HandleINtBP_7NodeRefNtNtBP_6marker5DyingpppENtB26_2KVE12drop_key_val7DropperINtNtB4_6option6OptionNtNtNtCsHUR1vrdMJt_3std3ffi6os_str8OsStringEEECse2QOtlhqWv3_18build_script_build, symObjAddr: 0x10A0, symBinAddr: 0x100001B90, symSize: 0x20 }
  - { offset: 0x2FF6, size: 0x8, addend: 0x0, symName: __RINvNtCsieiGu2EXtoJ_4core3ptr13drop_in_placeINtNvNtCsHUR1vrdMJt_3std2io17default_write_fmt7AdapterNtNtNtNtBN_3sys5stdio4unix6StderrEECse2QOtlhqWv3_18build_script_build, symObjAddr: 0x10C0, symBinAddr: 0x100001BB0, symSize: 0x20 }
  - { offset: 0x3025, size: 0x8, addend: 0x0, symName: __RINvNtCsieiGu2EXtoJ_4core3ptr13drop_in_placeINtNvXsw_NtNtNtCslJiobkLta79_5alloc11collections5btree3mapINtBP_8IntoIterpppENtNtNtB4_3ops4drop4Drop4drop9DropGuardNtNtNtCsHUR1vrdMJt_3std3ffi6os_str8OsStringINtNtB4_6option6OptionB2x_ENtNtBV_5alloc6GlobalEECse2QOtlhqWv3_18build_script_build, symObjAddr: 0x10E0, symBinAddr: 0x100001BD0, symSize: 0x20 }
  - { offset: 0x3054, size: 0x8, addend: 0x0, symName: __RINvNtCsieiGu2EXtoJ_4core3ptr13drop_in_placeNtNtCsHUR1vrdMJt_3std7process6OutputECse2QOtlhqWv3_18build_script_build, symObjAddr: 0x1100, symBinAddr: 0x100001BF0, symSize: 0x60 }
  - { offset: 0x3083, size: 0x8, addend: 0x0, symName: __RINvNtCsieiGu2EXtoJ_4core3ptr13drop_in_placeNtNtCsHUR1vrdMJt_3std7process7CommandECse2QOtlhqWv3_18build_script_build, symObjAddr: 0x1160, symBinAddr: 0x100001C50, symSize: 0x20 }
  - { offset: 0x30B2, size: 0x8, addend: 0x0, symName: __RINvNtCsieiGu2EXtoJ_4core3ptr13drop_in_placeNtNtNtCsHUR1vrdMJt_3std2io5error5ErrorECse2QOtlhqWv3_18build_script_build, symObjAddr: 0x1180, symBinAddr: 0x100001C70, symSize: 0x20 }
  - { offset: 0x30E1, size: 0x8, addend: 0x0, symName: __RINvNtCsieiGu2EXtoJ_4core3ptr13drop_in_placeNtNtNtCsHUR1vrdMJt_3std2io5error6CustomECse2QOtlhqWv3_18build_script_build, symObjAddr: 0x11A0, symBinAddr: 0x100001C90, symSize: 0x20 }
  - { offset: 0x3110, size: 0x8, addend: 0x0, symName: __RINvNtCsieiGu2EXtoJ_4core3ptr13drop_in_placeNtNtNtCsHUR1vrdMJt_3std3ffi6os_str8OsStringECse2QOtlhqWv3_18build_script_build, symObjAddr: 0x11C0, symBinAddr: 0x100001CB0, symSize: 0x20 }
  - { offset: 0x313F, size: 0x8, addend: 0x0, symName: __RINvNtCsieiGu2EXtoJ_4core3ptr13drop_in_placeNtNtNtCslJiobkLta79_5alloc3ffi5c_str7CStringECse2QOtlhqWv3_18build_script_build, symObjAddr: 0x11E0, symBinAddr: 0x100001CD0, symSize: 0x50 }
  - { offset: 0x316E, size: 0x8, addend: 0x0, symName: __RINvNtCsieiGu2EXtoJ_4core3ptr13drop_in_placeNtNtNtNtCsHUR1vrdMJt_3std2io5error14repr_bitpacked4ReprECse2QOtlhqWv3_18build_script_build, symObjAddr: 0x1230, symBinAddr: 0x100001D20, symSize: 0x20 }
  - { offset: 0x319D, size: 0x8, addend: 0x0, symName: __RINvNtCsieiGu2EXtoJ_4core3ptr13drop_in_placeNtNtNtNtCsHUR1vrdMJt_3std2os2fd5owned7OwnedFdECse2QOtlhqWv3_18build_script_build, symObjAddr: 0x1250, symBinAddr: 0x100001D40, symSize: 0x20 }
  - { offset: 0x31CC, size: 0x8, addend: 0x0, symName: __RINvNtCsieiGu2EXtoJ_4core3ptr13drop_in_placeNtNtNtNtCsHUR1vrdMJt_3std3sys2fd4unix8FileDescECse2QOtlhqWv3_18build_script_build, symObjAddr: 0x1270, symBinAddr: 0x100001D60, symSize: 0x20 }
  - { offset: 0x31FB, size: 0x8, addend: 0x0, symName: __RINvNtCsieiGu2EXtoJ_4core3ptr13drop_in_placeNtNtNtNtCsHUR1vrdMJt_3std3sys6os_str5bytes3BufECse2QOtlhqWv3_18build_script_build, symObjAddr: 0x1290, symBinAddr: 0x100001D80, symSize: 0x20 }
  - { offset: 0x322A, size: 0x8, addend: 0x0, symName: __RINvNtCsieiGu2EXtoJ_4core3ptr13drop_in_placeNtNtNtNtCsHUR1vrdMJt_3std3sys7process3env10CommandEnvECse2QOtlhqWv3_18build_script_build, symObjAddr: 0x12B0, symBinAddr: 0x100001DA0, symSize: 0x20 }
  - { offset: 0x3259, size: 0x8, addend: 0x0, symName: __RINvNtCsieiGu2EXtoJ_4core3ptr13drop_in_placeNtNtNtNtNtCsHUR1vrdMJt_3std3sys7process4unix6common5StdioECse2QOtlhqWv3_18build_script_build, symObjAddr: 0x12D0, symBinAddr: 0x100001DC0, symSize: 0x30 }
  - { offset: 0x3288, size: 0x8, addend: 0x0, symName: __RINvNtCsieiGu2EXtoJ_4core3ptr13drop_in_placeNtNtNtNtNtCsHUR1vrdMJt_3std3sys7process4unix6common7CommandECse2QOtlhqWv3_18build_script_build, symObjAddr: 0x1300, symBinAddr: 0x100001DF0, symSize: 0x1D0 }
  - { offset: 0x32B7, size: 0x8, addend: 0x0, symName: __RINvNtCsieiGu2EXtoJ_4core3ptr13drop_in_placeNtNtNtNtNtNtCsHUR1vrdMJt_3std3sys7process4unix6common13cstring_array12CStringArrayECse2QOtlhqWv3_18build_script_build, symObjAddr: 0x14D0, symBinAddr: 0x100001FC0, symSize: 0x50 }
  - { offset: 0x32E6, size: 0x8, addend: 0x0, symName: __RINvNtCsieiGu2EXtoJ_4core3ptr13drop_in_placeNtNvNtNtNtCslJiobkLta79_5alloc11collections5btree3mem7replace10PanicGuardECse2QOtlhqWv3_18build_script_build, symObjAddr: 0x1520, symBinAddr: 0x100002010, symSize: 0x20 }
  - { offset: 0x3315, size: 0x8, addend: 0x0, symName: __RINvNtCsieiGu2EXtoJ_4core3ptr13drop_in_placeSINtNtCslJiobkLta79_5alloc5boxed3BoxDINtNtNtB4_3ops8function5FnMutuEp6OutputINtNtB4_6result6ResultuNtNtNtCsHUR1vrdMJt_3std2io5error5ErrorENtNtB4_6marker4SyncNtB2W_4SendEL_EECse2QOtlhqWv3_18build_script_build, symObjAddr: 0x1540, symBinAddr: 0x100002030, symSize: 0xA0 }
  - { offset: 0x3A80, size: 0x8, addend: 0x0, symName: __RNvXs5_NtNtCsieiGu2EXtoJ_4core3num5errorNtB5_15TryFromIntErrorNtNtB9_3fmt5Debug3fmtCse2QOtlhqWv3_18build_script_build, symObjAddr: 0x5320, symBinAddr: 0x100005E00, symSize: 0x50 }
  - { offset: 0x3C5C, size: 0x8, addend: 0x0, symName: __RNvMsA_NtCsieiGu2EXtoJ_4core3numm16from_ascii_radixCse2QOtlhqWv3_18build_script_build, symObjAddr: 0x2630, symBinAddr: 0x100003120, symSize: 0x640 }
  - { offset: 0x3F86, size: 0x8, addend: 0x0, symName: __RNvXsz_NtCsieiGu2EXtoJ_4core3nummNtNtNtB7_3str6traits7FromStr8from_strCse2QOtlhqWv3_18build_script_build, symObjAddr: 0x65C0, symBinAddr: 0x1000070A0, symSize: 0x40 }
  - { offset: 0x3FE6, size: 0x8, addend: 0x0, symName: __RINvMNtCsieiGu2EXtoJ_4core3stre5parsemECse2QOtlhqWv3_18build_script_build, symObjAddr: 0x0, symBinAddr: 0x100000B90, symSize: 0x30 }
  - { offset: 0x401D, size: 0x8, addend: 0x0, symName: __RINvMNtCsieiGu2EXtoJ_4core3stre5splitcECse2QOtlhqWv3_18build_script_build, symObjAddr: 0x30, symBinAddr: 0x100000BC0, symSize: 0xB0 }
  - { offset: 0x41E2, size: 0x8, addend: 0x0, symName: __RNvNvXs5_NtNtCsieiGu2EXtoJ_4core3str6traitsINtNtNtBb_3ops5range5RangejEINtNtNtBb_5slice5index10SliceIndexeE13get_unchecked18precondition_checkCse2QOtlhqWv3_18build_script_build, symObjAddr: 0x4E40, symBinAddr: 0x100005920, symSize: 0xC0 }
  - { offset: 0x425F, size: 0x8, addend: 0x0, symName: __RNvXs_NtNtCsieiGu2EXtoJ_4core3str6traitseNtNtB8_3cmp9PartialEq2eqCse2QOtlhqWv3_18build_script_build, symObjAddr: 0x5AC0, symBinAddr: 0x1000065A0, symSize: 0x90 }
  - { offset: 0x4455, size: 0x8, addend: 0x0, symName: __RNvXsX_NtNtCsieiGu2EXtoJ_4core3str4iterINtB5_5SplitcENtNtNtNtB9_4iter6traits8iterator8Iterator4nextCse2QOtlhqWv3_18build_script_build, symObjAddr: 0x5A20, symBinAddr: 0x100006500, symSize: 0x20 }
  - { offset: 0x451D, size: 0x8, addend: 0x0, symName: __RNvXs2_NtNtCsieiGu2EXtoJ_4core3str7patterncNtB5_7Pattern13into_searcherCse2QOtlhqWv3_18build_script_build, symObjAddr: 0x51A0, symBinAddr: 0x100005C80, symSize: 0x120 }
  - { offset: 0x463E, size: 0x8, addend: 0x0, symName: __RNvXs_NtNtCsieiGu2EXtoJ_4core3str7patternNtB4_12CharSearcherNtB4_8Searcher10next_matchCse2QOtlhqWv3_18build_script_build, symObjAddr: 0x5B50, symBinAddr: 0x100006630, symSize: 0x4A0 }
  - { offset: 0x4BE3, size: 0x8, addend: 0x0, symName: __RNvXs_NtNtCsieiGu2EXtoJ_4core3str7patternNtB4_12CharSearcherNtB4_8Searcher8haystackCse2QOtlhqWv3_18build_script_build, symObjAddr: 0x5FF0, symBinAddr: 0x100006AD0, symSize: 0x20 }
  - { offset: 0x4E61, size: 0x8, addend: 0x0, symName: __RNvXs_NvNtNtCsieiGu2EXtoJ_4core3fmt5Write9write_fmtQINtNvNtCsHUR1vrdMJt_3std2io17default_write_fmt7AdapterNtNtNtNtBV_3sys5stdio4unix6StderrENtB4_12SpecWriteFmt14spec_write_fmtCse2QOtlhqWv3_18build_script_build, symObjAddr: 0x6010, symBinAddr: 0x100006AF0, symSize: 0x170 }
  - { offset: 0x4F18, size: 0x8, addend: 0x0, symName: __RNvYINtNvNtCsHUR1vrdMJt_3std2io17default_write_fmt7AdapterNtNtNtNtB9_3sys5stdio4unix6StderrENtNtCsieiGu2EXtoJ_4core3fmt5Write10write_charCse2QOtlhqWv3_18build_script_build, symObjAddr: 0x6640, symBinAddr: 0x100007120, symSize: 0x70 }
  - { offset: 0x4F80, size: 0x8, addend: 0x0, symName: __RNvYINtNvNtCsHUR1vrdMJt_3std2io17default_write_fmt7AdapterNtNtNtNtB9_3sys5stdio4unix6StderrENtNtCsieiGu2EXtoJ_4core3fmt5Write9write_fmtCse2QOtlhqWv3_18build_script_build, symObjAddr: 0x66B0, symBinAddr: 0x100007190, symSize: 0x20 }
  - { offset: 0x57BF, size: 0x8, addend: 0x0, symName: __RNvXsC_NtCsieiGu2EXtoJ_4core6optionINtB5_6OptionNtNtCsHUR1vrdMJt_3std7process6OutputENtNtNtB7_3ops9try_trait3Try6branchCse2QOtlhqWv3_18build_script_build, symObjAddr: 0x5830, symBinAddr: 0x100006310, symSize: 0x80 }
  - { offset: 0x5815, size: 0x8, addend: 0x0, symName: __RNvXsC_NtCsieiGu2EXtoJ_4core6optionINtB5_6OptionNtNtNtCsHUR1vrdMJt_3std3ffi6os_str8OsStringENtNtNtB7_3ops9try_trait3Try6branchCse2QOtlhqWv3_18build_script_build, symObjAddr: 0x58B0, symBinAddr: 0x100006390, symSize: 0x80 }
  - { offset: 0x586B, size: 0x8, addend: 0x0, symName: __RNvXsC_NtCsieiGu2EXtoJ_4core6optionINtB5_6OptionReENtNtNtB7_3ops9try_trait3Try6branchCse2QOtlhqWv3_18build_script_build, symObjAddr: 0x5930, symBinAddr: 0x100006410, symSize: 0x60 }
  - { offset: 0x58C0, size: 0x8, addend: 0x0, symName: __RNvXsC_NtCsieiGu2EXtoJ_4core6optionINtB5_6OptionmENtNtNtB7_3ops9try_trait3Try6branchCse2QOtlhqWv3_18build_script_build, symObjAddr: 0x5990, symBinAddr: 0x100006470, symSize: 0x40 }
  - { offset: 0x59C1, size: 0x8, addend: 0x0, symName: __RNvXsD_NtCsieiGu2EXtoJ_4core6optionINtB5_6OptionNtCse2QOtlhqWv3_18build_script_build12RustcVersionEINtNtNtB7_3ops9try_trait12FromResidualIBy_NtNtB7_7convert10InfallibleEE13from_residualBM_, symObjAddr: 0x59D0, symBinAddr: 0x1000064B0, symSize: 0x10 }
  - { offset: 0x5C93, size: 0x8, addend: 0x0, symName: __RNvXsd_NtCsieiGu2EXtoJ_4core6optionINtB5_6OptionReENtNtB7_3cmp9PartialEq2eqCse2QOtlhqWv3_18build_script_build, symObjAddr: 0x6180, symBinAddr: 0x100006C60, symSize: 0xB0 }
  - { offset: 0x63F3, size: 0x8, addend: 0x0, symName: __RNvNvMNtNtCsieiGu2EXtoJ_4core5alloc6layoutNtB4_6Layout25from_size_align_unchecked18precondition_checkCse2QOtlhqWv3_18build_script_build, symObjAddr: 0x45C0, symBinAddr: 0x1000050A0, symSize: 0xB0 }
  - { offset: 0x64DF, size: 0x8, addend: 0x0, symName: __RNvXNtCsieiGu2EXtoJ_4core7convertReINtB2_5AsRefNtNtNtCsHUR1vrdMJt_3std3ffi6os_str5OsStrE6as_refCse2QOtlhqWv3_18build_script_build, symObjAddr: 0x4F00, symBinAddr: 0x1000059E0, symSize: 0x30 }
  - { offset: 0x65F7, size: 0x8, addend: 0x0, symName: __RNvNvNtCsieiGu2EXtoJ_4core4hint21unreachable_unchecked18precondition_checkCse2QOtlhqWv3_18build_script_build, symObjAddr: 0x4700, symBinAddr: 0x1000051E0, symSize: 0x80 }
  - { offset: 0x665C, size: 0x8, addend: 0x0, symName: __RNSNvYNCINvNtCsHUR1vrdMJt_3std2rt10lang_startuE0INtNtNtCsieiGu2EXtoJ_4core3ops8function6FnOnceuE9call_once6vtableCse2QOtlhqWv3_18build_script_build, symObjAddr: 0x1BE0, symBinAddr: 0x1000026D0, symSize: 0x20 }
  - { offset: 0x66A0, size: 0x8, addend: 0x0, symName: __RNvYFEuINtNtNtCsieiGu2EXtoJ_4core3ops8function6FnOnceuE9call_onceCse2QOtlhqWv3_18build_script_build, symObjAddr: 0x6600, symBinAddr: 0x1000070E0, symSize: 0x20 }
  - { offset: 0x66E0, size: 0x8, addend: 0x0, symName: __RNvYNCINvNtCsHUR1vrdMJt_3std2rt10lang_startuE0INtNtNtCsieiGu2EXtoJ_4core3ops8function6FnOnceuE9call_onceCse2QOtlhqWv3_18build_script_build, symObjAddr: 0x66D0, symBinAddr: 0x1000071B0, symSize: 0x40 }
  - { offset: 0x6A9C, size: 0x8, addend: 0x0, symName: __RNvMNtNtCsieiGu2EXtoJ_4core4char7methodsc8to_digitCse2QOtlhqWv3_18build_script_build, symObjAddr: 0x2540, symBinAddr: 0x100003030, symSize: 0xF0 }
  - { offset: 0x6BF0, size: 0x8, addend: 0x0, symName: __RNvNtNtCsieiGu2EXtoJ_4core4char7methods15encode_utf8_rawCse2QOtlhqWv3_18build_script_build, symObjAddr: 0x3C60, symBinAddr: 0x100004740, symSize: 0xE0 }
  - { offset: 0x6CF0, size: 0x8, addend: 0x0, symName: __RNvNtNtCsieiGu2EXtoJ_4core4char7methods25encode_utf8_raw_uncheckedCse2QOtlhqWv3_18build_script_build, symObjAddr: 0x3D40, symBinAddr: 0x100004820, symSize: 0x140 }
  - { offset: 0x6F3A, size: 0x8, addend: 0x0, symName: __RNvNvXs0_NtNtCsieiGu2EXtoJ_4core5slice5indexjINtB7_10SliceIndexSpE13get_unchecked18precondition_checkCse2QOtlhqWv3_18build_script_build, symObjAddr: 0x4C40, symBinAddr: 0x100005720, symSize: 0xA0 }
  - { offset: 0x6FA8, size: 0x8, addend: 0x0, symName: __RNvNvXs0_NtNtCsieiGu2EXtoJ_4core5slice5indexjINtB7_10SliceIndexSpE17get_unchecked_mut18precondition_checkCse2QOtlhqWv3_18build_script_build, symObjAddr: 0x4CE0, symBinAddr: 0x1000057C0, symSize: 0xA0 }
  - { offset: 0x707D, size: 0x8, addend: 0x0, symName: __RNvNvXs2_NtNtCsieiGu2EXtoJ_4core5slice5indexINtNtNtBb_3ops5range5RangejEINtB7_10SliceIndexSpE13get_unchecked18precondition_checkCse2QOtlhqWv3_18build_script_build, symObjAddr: 0x4D80, symBinAddr: 0x100005860, symSize: 0xC0 }
  - { offset: 0x71F3, size: 0x8, addend: 0x0, symName: __RNvXs5_NtNtCsieiGu2EXtoJ_4core5slice5indexINtNtNtB9_3ops5range9RangeFromjEINtB5_10SliceIndexShE5indexCse2QOtlhqWv3_18build_script_build, symObjAddr: 0x5370, symBinAddr: 0x100005E50, symSize: 0x80 }
  - { offset: 0x760F, size: 0x8, addend: 0x0, symName: __RNvNvNtNtCsieiGu2EXtoJ_4core5slice3raw14from_raw_parts18precondition_checkCse2QOtlhqWv3_18build_script_build, symObjAddr: 0x4780, symBinAddr: 0x100005260, symSize: 0x260 }
  - { offset: 0x77DD, size: 0x8, addend: 0x0, symName: __RNvNvNtNtCsieiGu2EXtoJ_4core5slice3raw18from_raw_parts_mut18precondition_checkCse2QOtlhqWv3_18build_script_build, symObjAddr: 0x49E0, symBinAddr: 0x1000054C0, symSize: 0x260 }
  - { offset: 0x7A11, size: 0x8, addend: 0x0, symName: __RNvNtNtCsieiGu2EXtoJ_4core5slice6memchr6memchrCse2QOtlhqWv3_18build_script_build, symObjAddr: 0x3E80, symBinAddr: 0x100004960, symSize: 0xE0 }
  - { offset: 0x7D1B, size: 0x8, addend: 0x0, symName: __RNvXs7_NtNtCsieiGu2EXtoJ_4core3cmp5implsReNtB7_9PartialEq2eqCse2QOtlhqWv3_18build_script_build, symObjAddr: 0x57F0, symBinAddr: 0x1000062D0, symSize: 0x40 }
  - { offset: 0x7DE9, size: 0x8, addend: 0x0, symName: __RNvYINtNtCsieiGu2EXtoJ_4core6option6OptionReENtNtB7_3cmp9PartialEq2neCse2QOtlhqWv3_18build_script_build, symObjAddr: 0x6620, symBinAddr: 0x100007100, symSize: 0x20 }
  - { offset: 0x8053, size: 0x8, addend: 0x0, symName: __RINvMs_NtNtCsieiGu2EXtoJ_4core3fmt2rtNtB7_9Arguments9new_constKj1_ECse2QOtlhqWv3_18build_script_build, symObjAddr: 0xE0, symBinAddr: 0x100000C70, symSize: 0x40 }
  - { offset: 0x8248, size: 0x8, addend: 0x0, symName: __RNCINvMsm_NtNtNtCslJiobkLta79_5alloc11collections5btree8navigateINtNtBa_4node6HandleINtB13_7NodeRefNtNtB13_6marker5DyingNtNtNtCsHUR1vrdMJt_3std3ffi6os_str8OsStringINtNtCsieiGu2EXtoJ_4core6option6OptionB1U_ENtB1B_4LeafENtB1B_4EdgeE27deallocating_next_uncheckedNtNtBe_5alloc6GlobalE0Cse2QOtlhqWv3_18build_script_build, symObjAddr: 0x1B10, symBinAddr: 0x100002600, symSize: 0x60 }
  - { offset: 0x8E17, size: 0x8, addend: 0x0, symName: __RNvXNvMsT_NtNtNtCslJiobkLta79_5alloc11collections5btree4nodeINtB8_6HandleINtB8_7NodeRefNtNtB8_6marker5DyingpppENtB1p_2KVE12drop_key_valINtB2_7DropperINtNtCsieiGu2EXtoJ_4core6option6OptionNtNtNtCsHUR1vrdMJt_3std3ffi6os_str8OsStringEENtNtNtB2s_3ops4drop4Drop4dropCse2QOtlhqWv3_18build_script_build, symObjAddr: 0x4F70, symBinAddr: 0x100005A50, symSize: 0x20 }
  - { offset: 0x8F61, size: 0x8, addend: 0x0, symName: __RNvXNtNtNtCslJiobkLta79_5alloc11collections5btree3mapINtB2_8BTreeMapNtNtNtCsHUR1vrdMJt_3std3ffi6os_str8OsStringINtNtCsieiGu2EXtoJ_4core6option6OptionB14_EENtNtNtB1Q_3ops4drop4Drop4dropCse2QOtlhqWv3_18build_script_build, symObjAddr: 0x4F30, symBinAddr: 0x100005A10, symSize: 0x40 }
  - { offset: 0x8FEF, size: 0x8, addend: 0x0, symName: __RNvXNvXsw_NtNtNtCslJiobkLta79_5alloc11collections5btree3mapINtB8_8IntoIterpppENtNtNtCsieiGu2EXtoJ_4core3ops4drop4Drop4dropINtB2_9DropGuardNtNtNtCsHUR1vrdMJt_3std3ffi6os_str8OsStringINtNtB1k_6option6OptionB2c_ENtNtBe_5alloc6GlobalEB1e_4dropCse2QOtlhqWv3_18build_script_build, symObjAddr: 0x5040, symBinAddr: 0x100005B20, symSize: 0x70 }
  - { offset: 0x9084, size: 0x8, addend: 0x0, symName: __RNvXsw_NtNtNtCslJiobkLta79_5alloc11collections5btree3mapINtB5_8IntoIterNtNtNtCsHUR1vrdMJt_3std3ffi6os_str8OsStringINtNtCsieiGu2EXtoJ_4core6option6OptionB17_EENtNtNtB1T_3ops4drop4Drop4dropCse2QOtlhqWv3_18build_script_build, symObjAddr: 0x6520, symBinAddr: 0x100007000, symSize: 0xA0 }
  - { offset: 0x90FB, size: 0x8, addend: 0x0, symName: __RNvXsv_NtNtNtCslJiobkLta79_5alloc11collections5btree3mapINtB5_8BTreeMapNtNtNtCsHUR1vrdMJt_3std3ffi6os_str8OsStringINtNtCsieiGu2EXtoJ_4core6option6OptionB17_EENtNtNtNtB1T_4iter6traits7collect12IntoIterator9into_iterCse2QOtlhqWv3_18build_script_build, symObjAddr: 0x6280, symBinAddr: 0x100006D60, symSize: 0x2A0 }
  - { offset: 0x9278, size: 0x8, addend: 0x0, symName: __RINvNtNtNtCslJiobkLta79_5alloc11collections5btree3mem7replaceINtNtB4_4node6HandleINtB10_7NodeRefNtNtB10_6marker5DyingNtNtNtCsHUR1vrdMJt_3std3ffi6os_str8OsStringINtNtCsieiGu2EXtoJ_4core6option6OptionB1R_ENtB1y_4LeafENtB1y_4EdgeEIBY_IB1i_B1w_B1R_B2y_NtB1y_14LeafOrInternalENtB1y_2KVENCINvMsm_NtB4_8navigateBX_27deallocating_next_uncheckedNtNtB8_5alloc6GlobalE0ECse2QOtlhqWv3_18build_script_build, symObjAddr: 0x1A00, symBinAddr: 0x1000024F0, symSize: 0x110 }
  - { offset: 0x9374, size: 0x8, addend: 0x0, symName: __RNvXNvNtNtNtCslJiobkLta79_5alloc11collections5btree3mem7replaceNtB2_10PanicGuardNtNtNtCsieiGu2EXtoJ_4core3ops4drop4Drop4dropCse2QOtlhqWv3_18build_script_build, symObjAddr: 0x5030, symBinAddr: 0x100005B10, symSize: 0x10 }
  - { offset: 0x94EC, size: 0x8, addend: 0x0, symName: __RNvXs6_NtCslJiobkLta79_5alloc3vecINtB5_3VechENtNtNtCsieiGu2EXtoJ_4core3ops5deref5Deref5derefCse2QOtlhqWv3_18build_script_build, symObjAddr: 0x5420, symBinAddr: 0x100005F00, symSize: 0x20 }
  - { offset: 0x9532, size: 0x8, addend: 0x0, symName: __RNvXsn_NtCslJiobkLta79_5alloc3vecINtB5_3VecINtNtB7_5boxed3BoxDINtNtNtCsieiGu2EXtoJ_4core3ops8function5FnMutuEp6OutputINtNtB15_6result6ResultuNtNtNtCsHUR1vrdMJt_3std2io5error5ErrorENtNtB15_6marker4SyncNtB2U_4SendEL_EENtNtB13_4drop4Drop4dropCse2QOtlhqWv3_18build_script_build, symObjAddr: 0x6230, symBinAddr: 0x100006D10, symSize: 0x30 }
  - { offset: 0x95E2, size: 0x8, addend: 0x0, symName: __RNvXsn_NtCslJiobkLta79_5alloc3vecINtB5_3VecPaENtNtNtCsieiGu2EXtoJ_4core3ops4drop4Drop4dropCse2QOtlhqWv3_18build_script_build, symObjAddr: 0x6260, symBinAddr: 0x100006D40, symSize: 0x20 }
  - { offset: 0x96A6, size: 0x8, addend: 0x0, symName: __RNvXs1_NtCslJiobkLta79_5alloc5allocNtB5_6GlobalNtNtCsieiGu2EXtoJ_4core5clone5Clone5cloneCse2QOtlhqWv3_18build_script_build, symObjAddr: 0x5110, symBinAddr: 0x100005BF0, symSize: 0x10 }
  - { offset: 0x96F7, size: 0x8, addend: 0x0, symName: __RNvXs_NtCslJiobkLta79_5alloc5allocNtB4_6GlobalNtNtCsieiGu2EXtoJ_4core5alloc9Allocator10deallocateCse2QOtlhqWv3_18build_script_build, symObjAddr: 0x5A50, symBinAddr: 0x100006530, symSize: 0x70 }
  - { offset: 0x9A02, size: 0x8, addend: 0x0, symName: __RNvXs1_NtCslJiobkLta79_5alloc7raw_vecINtB5_6RawVecINtNtB7_5boxed3BoxDINtNtNtCsieiGu2EXtoJ_4core3ops8function5FnMutuEp6OutputINtNtB1c_6result6ResultuNtNtNtCsHUR1vrdMJt_3std2io5error5ErrorENtNtB1c_6marker4SyncNtB31_4SendEL_EENtNtB1a_4drop4Drop4dropCse2QOtlhqWv3_18build_script_build, symObjAddr: 0x5120, symBinAddr: 0x100005C00, symSize: 0x30 }
  - { offset: 0x9A3E, size: 0x8, addend: 0x0, symName: __RNvXs1_NtCslJiobkLta79_5alloc7raw_vecINtB5_6RawVecPaENtNtNtCsieiGu2EXtoJ_4core3ops4drop4Drop4dropCse2QOtlhqWv3_18build_script_build, symObjAddr: 0x5150, symBinAddr: 0x100005C30, symSize: 0x20 }
  - { offset: 0x9AA0, size: 0x8, addend: 0x0, symName: __RNvXs0_NtNtCslJiobkLta79_5alloc3ffi5c_strNtB5_7CStringNtNtNtCsieiGu2EXtoJ_4core3ops4drop4Drop4dropCse2QOtlhqWv3_18build_script_build, symObjAddr: 0x50B0, symBinAddr: 0x100005B90, symSize: 0x60 }
  - { offset: 0x9B83, size: 0x8, addend: 0x0, symName: __RNvXs6_NtCslJiobkLta79_5alloc5boxedINtB5_3BoxDINtNtNtCsieiGu2EXtoJ_4core3ops8function5FnMutuEp6OutputINtNtBP_6result6ResultuNtNtNtCsHUR1vrdMJt_3std2io5error5ErrorENtNtBP_6marker4SyncNtB2D_4SendEL_ENtNtBN_4drop4Drop4dropCse2QOtlhqWv3_18build_script_build, symObjAddr: 0x5440, symBinAddr: 0x100005F20, symSize: 0xC0 }
  - { offset: 0x9CC0, size: 0x8, addend: 0x0, symName: __RNvXs6_NtCslJiobkLta79_5alloc5boxedINtB5_3BoxDNtNtCsieiGu2EXtoJ_4core5error5ErrorNtNtBM_6marker4SyncNtB1j_4SendEL_ENtNtNtBM_3ops4drop4Drop4dropCse2QOtlhqWv3_18build_script_build, symObjAddr: 0x5500, symBinAddr: 0x100005FE0, symSize: 0xC0 }
  - { offset: 0x9DFD, size: 0x8, addend: 0x0, symName: __RNvXs6_NtCslJiobkLta79_5alloc5boxedINtB5_3BoxNtNtNtCsHUR1vrdMJt_3std2io5error6CustomENtNtNtCsieiGu2EXtoJ_4core3ops4drop4Drop4dropCse2QOtlhqWv3_18build_script_build, symObjAddr: 0x55C0, symBinAddr: 0x1000060A0, symSize: 0xB0 }
  - { offset: 0x9F38, size: 0x8, addend: 0x0, symName: __RNvXs6_NtCslJiobkLta79_5alloc5boxedINtB5_3BoxShENtNtNtCsieiGu2EXtoJ_4core3ops4drop4Drop4dropCse2QOtlhqWv3_18build_script_build, symObjAddr: 0x5670, symBinAddr: 0x100006150, symSize: 0xC0 }
  - { offset: 0xA075, size: 0x8, addend: 0x0, symName: __RNvXs6_NtCslJiobkLta79_5alloc5boxedINtB5_3BoxSmENtNtNtCsieiGu2EXtoJ_4core3ops4drop4Drop4dropCse2QOtlhqWv3_18build_script_build, symObjAddr: 0x5730, symBinAddr: 0x100006210, symSize: 0xC0 }
  - { offset: 0xA24C, size: 0x8, addend: 0x0, symName: __RINvMsb_NtNtNtCslJiobkLta79_5alloc11collections5btree8navigateINtB6_13LazyLeafRangeNtNtNtB8_4node6marker5DyingNtNtNtCsHUR1vrdMJt_3std3ffi6os_str8OsStringINtNtCsieiGu2EXtoJ_4core6option6OptionB1K_EE16deallocating_endNtNtBc_5alloc6GlobalECse2QOtlhqWv3_18build_script_build, symObjAddr: 0x120, symBinAddr: 0x100000CB0, symSize: 0x90 }
  - { offset: 0xA349, size: 0x8, addend: 0x0, symName: __RINvMsb_NtNtNtCslJiobkLta79_5alloc11collections5btree8navigateINtB6_13LazyLeafRangeNtNtNtB8_4node6marker5DyingNtNtNtCsHUR1vrdMJt_3std3ffi6os_str8OsStringINtNtCsieiGu2EXtoJ_4core6option6OptionB1K_EE27deallocating_next_uncheckedNtNtBc_5alloc6GlobalECse2QOtlhqWv3_18build_script_build, symObjAddr: 0x1B0, symBinAddr: 0x100000D40, symSize: 0xB0 }
  - { offset: 0xA4CC, size: 0x8, addend: 0x0, symName: __RINvMsh_NtNtNtCslJiobkLta79_5alloc11collections5btree4nodeINtB6_7NodeRefNtNtB6_6marker5DyingNtNtNtCsHUR1vrdMJt_3std3ffi6os_str8OsStringINtNtCsieiGu2EXtoJ_4core6option6OptionB1s_ENtB1a_14LeafOrInternalE21deallocate_and_ascendNtNtBc_5alloc6GlobalECse2QOtlhqWv3_18build_script_build, symObjAddr: 0x260, symBinAddr: 0x100000DF0, symSize: 0x1A0 }
  - { offset: 0xA702, size: 0x8, addend: 0x0, symName: __RINvMsj_NtNtNtCslJiobkLta79_5alloc11collections5btree8navigateINtNtB8_4node6HandleINtB11_7NodeRefNtNtB11_6marker5DyingNtNtNtCsHUR1vrdMJt_3std3ffi6os_str8OsStringINtNtCsieiGu2EXtoJ_4core6option6OptionB1S_ENtB1z_4LeafENtB1z_4EdgeE16deallocating_endNtNtBc_5alloc6GlobalECse2QOtlhqWv3_18build_script_build, symObjAddr: 0x400, symBinAddr: 0x100000F90, symSize: 0xF0 }
  - { offset: 0xA985, size: 0x8, addend: 0x0, symName: __RINvMsj_NtNtNtCslJiobkLta79_5alloc11collections5btree8navigateINtNtB8_4node6HandleINtB11_7NodeRefNtNtB11_6marker5DyingNtNtNtCsHUR1vrdMJt_3std3ffi6os_str8OsStringINtNtCsieiGu2EXtoJ_4core6option6OptionB1S_ENtB1z_4LeafENtB1z_4EdgeE17deallocating_nextNtNtBc_5alloc6GlobalECse2QOtlhqWv3_18build_script_build, symObjAddr: 0x4F0, symBinAddr: 0x100001080, symSize: 0x370 }
  - { offset: 0xAC81, size: 0x8, addend: 0x0, symName: __RINvMsk_NtCsHUR1vrdMJt_3std7processNtB6_7Command3argReECse2QOtlhqWv3_18build_script_build, symObjAddr: 0x860, symBinAddr: 0x1000013F0, symSize: 0x60 }
  - { offset: 0xACBC, size: 0x8, addend: 0x0, symName: __RINvMsk_NtCsHUR1vrdMJt_3std7processNtB6_7Command3newNtNtNtB8_3ffi6os_str8OsStringECse2QOtlhqWv3_18build_script_build, symObjAddr: 0x8C0, symBinAddr: 0x100001450, symSize: 0xC0 }
  - { offset: 0xAF53, size: 0x8, addend: 0x0, symName: __RNvCse2QOtlhqWv3_18build_script_build13rustc_version, symObjAddr: 0x1C00, symBinAddr: 0x1000026F0, symSize: 0x670 }
  - { offset: 0xB097, size: 0x8, addend: 0x0, symName: __RNvCse2QOtlhqWv3_18build_script_build4main, symObjAddr: 0x2270, symBinAddr: 0x100002D60, symSize: 0xF0 }
  - { offset: 0xB0DC, size: 0x8, addend: 0x0, symName: __RNvMNtCsieiGu2EXtoJ_4core6resultINtB2_6ResultNtNtCsHUR1vrdMJt_3std7process6OutputNtNtNtBL_2io5error5ErrorE2okCse2QOtlhqWv3_18build_script_build, symObjAddr: 0x2360, symBinAddr: 0x100002E50, symSize: 0xB0 }
  - { offset: 0xB130, size: 0x8, addend: 0x0, symName: __RNvMNtCsieiGu2EXtoJ_4core6resultINtB2_6ResultReNtNtNtB4_3str5error9Utf8ErrorE2okCse2QOtlhqWv3_18build_script_build, symObjAddr: 0x2410, symBinAddr: 0x100002F00, symSize: 0x50 }
  - { offset: 0xB184, size: 0x8, addend: 0x0, symName: __RNvMNtCsieiGu2EXtoJ_4core6resultINtB2_6ResulthNtNtNtB4_3num5error15TryFromIntErrorE6expectCse2QOtlhqWv3_18build_script_build, symObjAddr: 0x2460, symBinAddr: 0x100002F50, symSize: 0x80 }
  - { offset: 0xB1E6, size: 0x8, addend: 0x0, symName: __RNvMNtCsieiGu2EXtoJ_4core6resultINtB2_6ResultmNtNtNtB4_3num5error13ParseIntErrorE2okCse2QOtlhqWv3_18build_script_build, symObjAddr: 0x24E0, symBinAddr: 0x100002FD0, symSize: 0x60 }
  - { offset: 0xB356, size: 0x8, addend: 0x0, symName: __RNvMsO_NtNtNtCslJiobkLta79_5alloc11collections5btree4nodeINtB5_6HandleINtB5_7NodeRefNtNtB5_6marker5DyingNtNtNtCsHUR1vrdMJt_3std3ffi6os_str8OsStringINtNtCsieiGu2EXtoJ_4core6option6OptionB1E_ENtB1m_8InternalENtB1m_4EdgeE7descendCse2QOtlhqWv3_18build_script_build, symObjAddr: 0x2C70, symBinAddr: 0x100003760, symSize: 0x80 }
  - { offset: 0xB645, size: 0x8, addend: 0x0, symName: __RNvMsT_NtNtNtCslJiobkLta79_5alloc11collections5btree4nodeINtB5_6HandleINtB5_7NodeRefNtNtB5_6marker5DyingNtNtNtCsHUR1vrdMJt_3std3ffi6os_str8OsStringINtNtCsieiGu2EXtoJ_4core6option6OptionB1E_ENtB1m_14LeafOrInternalENtB1m_2KVE12drop_key_valCse2QOtlhqWv3_18build_script_build, symObjAddr: 0x2CF0, symBinAddr: 0x1000037E0, symSize: 0x140 }
  - { offset: 0xB8C5, size: 0x8, addend: 0x0, symName: __RNvMs_NtCslJiobkLta79_5alloc3vecINtB4_3VechE8as_sliceCse2QOtlhqWv3_18build_script_build, symObjAddr: 0x2E30, symBinAddr: 0x100003920, symSize: 0x50 }
  - { offset: 0xBAF7, size: 0x8, addend: 0x0, symName: __RNvMsb_NtNtNtCslJiobkLta79_5alloc11collections5btree8navigateINtB5_13LazyLeafRangeNtNtNtB7_4node6marker5DyingNtNtNtCsHUR1vrdMJt_3std3ffi6os_str8OsStringINtNtCsieiGu2EXtoJ_4core6option6OptionB1J_EE10take_frontCse2QOtlhqWv3_18build_script_build, symObjAddr: 0x2E80, symBinAddr: 0x100003970, symSize: 0x2E0 }
  - { offset: 0xBE56, size: 0x8, addend: 0x0, symName: __RNvMsc_NtNtNtCslJiobkLta79_5alloc11collections5btree8navigateINtB5_13LazyLeafRangeNtNtNtB7_4node6marker5DyingNtNtNtCsHUR1vrdMJt_3std3ffi6os_str8OsStringINtNtCsieiGu2EXtoJ_4core6option6OptionB1J_EE10init_frontCse2QOtlhqWv3_18build_script_build, symObjAddr: 0x3160, symBinAddr: 0x100003C50, symSize: 0x280 }
  - { offset: 0xC0F9, size: 0x8, addend: 0x0, symName: __RNvMse_NtNtNtCslJiobkLta79_5alloc11collections5btree4nodeINtB5_7NodeRefNtNtB5_6marker5DyingNtNtNtCsHUR1vrdMJt_3std3ffi6os_str8OsStringINtNtCsieiGu2EXtoJ_4core6option6OptionB1r_ENtB19_14LeafOrInternalE6ascendCse2QOtlhqWv3_18build_script_build, symObjAddr: 0x33E0, symBinAddr: 0x100003ED0, symSize: 0x230 }
  - { offset: 0xC2AC, size: 0x8, addend: 0x0, symName: __RNvMsf_NtNtCsieiGu2EXtoJ_4core3str4iterINtB5_13SplitInternalcE4nextCse2QOtlhqWv3_18build_script_build, symObjAddr: 0x3610, symBinAddr: 0x100004100, symSize: 0x180 }
  - { offset: 0xC3F0, size: 0x8, addend: 0x0, symName: __RNvMsf_NtNtCsieiGu2EXtoJ_4core3str4iterINtB5_13SplitInternalcE7get_endCse2QOtlhqWv3_18build_script_build, symObjAddr: 0x3790, symBinAddr: 0x100004280, symSize: 0x110 }
  - { offset: 0xC70A, size: 0x8, addend: 0x0, symName: __RNvMsp_NtNtNtCslJiobkLta79_5alloc11collections5btree8navigateINtNtB7_4node6HandleINtB10_7NodeRefNtNtB10_6marker5DyingNtNtNtCsHUR1vrdMJt_3std3ffi6os_str8OsStringINtNtCsieiGu2EXtoJ_4core6option6OptionB1R_ENtB1y_14LeafOrInternalENtB1y_2KVE14next_leaf_edgeCse2QOtlhqWv3_18build_script_build, symObjAddr: 0x38A0, symBinAddr: 0x100004390, symSize: 0x320 }
  - { offset: 0xC986, size: 0x8, addend: 0x0, symName: __RNvMsx_NtNtNtCslJiobkLta79_5alloc11collections5btree3mapINtB5_8IntoIterNtNtNtCsHUR1vrdMJt_3std3ffi6os_str8OsStringINtNtCsieiGu2EXtoJ_4core6option6OptionB17_EE10dying_nextCse2QOtlhqWv3_18build_script_build, symObjAddr: 0x3BC0, symBinAddr: 0x1000046B0, symSize: 0x90 }
  - { offset: 0xD6DB, size: 0x8, addend: 0x0, symName: ___llvm_profile_get_magic, symObjAddr: 0x20, symBinAddr: 0x1000076D0, symSize: 0x10 }
  - { offset: 0xD6FC, size: 0x8, addend: 0x0, symName: ___llvm_profile_get_num_padding_bytes, symObjAddr: 0x40, symBinAddr: 0x1000076E0, symSize: 0x10 }
  - { offset: 0xD72D, size: 0x8, addend: 0x0, symName: ___llvm_profile_get_version, symObjAddr: 0x50, symBinAddr: 0x1000076F0, symSize: 0x10 }
  - { offset: 0xD7A2, size: 0x8, addend: 0x0, symName: ___llvm_profile_is_continuous_mode_enabled, symObjAddr: 0x0, symBinAddr: 0x100007700, symSize: 0x20 }
  - { offset: 0xD7BF, size: 0x8, addend: 0x0, symName: _ContinuouslySyncProfile, symObjAddr: 0x40E0, symBinAddr: 0x100063DD0, symSize: 0x0 }
  - { offset: 0xD7E1, size: 0x8, addend: 0x0, symName: _PageSize, symObjAddr: 0x40E4, symBinAddr: 0x100063DD4, symSize: 0x0 }
  - { offset: 0xD80F, size: 0x8, addend: 0x0, symName: ___llvm_profile_is_continuous_mode_enabled, symObjAddr: 0x0, symBinAddr: 0x100007700, symSize: 0x20 }
  - { offset: 0xD830, size: 0x8, addend: 0x0, symName: ___llvm_profile_enable_continuous_mode, symObjAddr: 0x20, symBinAddr: 0x100007720, symSize: 0x10 }
  - { offset: 0xD84D, size: 0x8, addend: 0x0, symName: ___llvm_profile_disable_continuous_mode, symObjAddr: 0x30, symBinAddr: 0x100007730, symSize: 0x10 }
  - { offset: 0xD86A, size: 0x8, addend: 0x0, symName: ___llvm_profile_set_page_size, symObjAddr: 0x40, symBinAddr: 0x100007740, symSize: 0x10 }
  - { offset: 0xD895, size: 0x8, addend: 0x0, symName: ___llvm_profile_get_size_for_buffer, symObjAddr: 0x50, symBinAddr: 0x100007750, symSize: 0xD0 }
  - { offset: 0xDCE3, size: 0x8, addend: 0x0, symName: ___llvm_profile_get_size_for_buffer_internal, symObjAddr: 0x120, symBinAddr: 0x100007820, symSize: 0x210 }
  - { offset: 0xE087, size: 0x8, addend: 0x0, symName: ___llvm_profile_get_num_data, symObjAddr: 0x330, symBinAddr: 0x100007A30, symSize: 0x10 }
  - { offset: 0xE0C0, size: 0x8, addend: 0x0, symName: ___llvm_profile_get_data_size, symObjAddr: 0x340, symBinAddr: 0x100007A40, symSize: 0x10 }
  - { offset: 0xE0EC, size: 0x8, addend: 0x0, symName: ___llvm_profile_get_data_size, symObjAddr: 0x340, symBinAddr: 0x100007A40, symSize: 0x10 }
  - { offset: 0xE122, size: 0x8, addend: 0x0, symName: ___llvm_profile_get_num_vtable, symObjAddr: 0x350, symBinAddr: 0x100007A50, symSize: 0x20 }
  - { offset: 0xE178, size: 0x8, addend: 0x0, symName: ___llvm_profile_get_vtable_section_size, symObjAddr: 0x370, symBinAddr: 0x100007A70, symSize: 0x10 }
  - { offset: 0xE19F, size: 0x8, addend: 0x0, symName: ___llvm_profile_counter_entry_size, symObjAddr: 0x380, symBinAddr: 0x100007A80, symSize: 0x20 }
  - { offset: 0xE1B7, size: 0x8, addend: 0x0, symName: ___llvm_profile_get_num_counters, symObjAddr: 0x3A0, symBinAddr: 0x100007AA0, symSize: 0x50 }
  - { offset: 0xE20C, size: 0x8, addend: 0x0, symName: ___llvm_profile_get_counters_size, symObjAddr: 0x3F0, symBinAddr: 0x100007AF0, symSize: 0x60 }
  - { offset: 0xE2A0, size: 0x8, addend: 0x0, symName: ___llvm_profile_get_num_bitmap_bytes, symObjAddr: 0x450, symBinAddr: 0x100007B50, symSize: 0x10 }
  - { offset: 0xE2C7, size: 0x8, addend: 0x0, symName: ___llvm_profile_get_name_size, symObjAddr: 0x460, symBinAddr: 0x100007B60, symSize: 0x10 }
  - { offset: 0xE2EE, size: 0x8, addend: 0x0, symName: ___llvm_profile_get_padding_sizes_for_counters, symObjAddr: 0x470, symBinAddr: 0x100007B70, symSize: 0x1B0 }
  - { offset: 0xE40D, size: 0x8, addend: 0x0, symName: _initBufferWriter, symObjAddr: 0x620, symBinAddr: 0x100007D20, symSize: 0x10 }
  - { offset: 0xE577, size: 0x8, addend: 0x0, symName: _lprofCurFilename, symObjAddr: 0xA6F8, symBinAddr: 0x100063DD8, symSize: 0x0 }
  - { offset: 0xE6A0, size: 0x8, addend: 0x0, symName: _ProfileFile, symObjAddr: 0xA7C8, symBinAddr: 0x100063EA8, symSize: 0x0 }
  - { offset: 0xE8CE, size: 0x8, addend: 0x0, symName: _ProfileMergeRequested, symObjAddr: 0xA7D0, symBinAddr: 0x100063EB0, symSize: 0x0 }
  - { offset: 0xEA6D, size: 0x8, addend: 0x0, symName: _getCurFilenameLength, symObjAddr: 0x180, symBinAddr: 0x100007D30, symSize: 0xE0 }
  - { offset: 0xEAF5, size: 0x8, addend: 0x0, symName: _getCurFilename, symObjAddr: 0x260, symBinAddr: 0x100007E10, symSize: 0x380 }
  - { offset: 0xED7A, size: 0x8, addend: 0x0, symName: _parseAndSetFilename, symObjAddr: 0x6B0, symBinAddr: 0x100008190, symSize: 0x590 }
  - { offset: 0xEF96, size: 0x8, addend: 0x0, symName: ___llvm_profile_initialize, symObjAddr: 0xC40, symBinAddr: 0x100008720, symSize: 0x90 }
  - { offset: 0xF012, size: 0x8, addend: 0x0, symName: ___llvm_profile_write_file, symObjAddr: 0xD30, symBinAddr: 0x1000087B0, symSize: 0x160 }
  - { offset: 0xF1D9, size: 0x8, addend: 0x0, symName: _writeFile, symObjAddr: 0xE90, symBinAddr: 0x100008910, symSize: 0x2B0 }
  - { offset: 0xF380, size: 0x8, addend: 0x0, symName: _writeFileWithoutReturn, symObjAddr: 0x1190, symBinAddr: 0x100008BC0, symSize: 0x10 }
  - { offset: 0xF3B5, size: 0x8, addend: 0x0, symName: _getProfileFileSizeForMerging, symObjAddr: 0x13C0, symBinAddr: 0x100008BD0, symSize: 0xC0 }
  - { offset: 0xF3FA, size: 0x8, addend: 0x0, symName: _mmapForContinuousMode, symObjAddr: 0x1480, symBinAddr: 0x100008C90, symSize: 0x2D0 }
  - { offset: 0xF5B8, size: 0x8, addend: 0x0, symName: _fileWriter, symObjAddr: 0x1750, symBinAddr: 0x100008F60, symSize: 0x150 }
  - { offset: 0xF683, size: 0x8, addend: 0x0, symName: _binaryIdsStringWriter, symObjAddr: 0x18A0, symBinAddr: 0x1000090B0, symSize: 0xA0 }
  - { offset: 0xF720, size: 0x8, addend: 0x0, symName: _truncateCurrentFile, symObjAddr: 0x1940, symBinAddr: 0x100009150, symSize: 0xB0 }
  - { offset: 0xF7C1, size: 0x8, addend: 0x0, symName: _initializeProfileForContinuousMode, symObjAddr: 0x19F0, symBinAddr: 0x100009200, symSize: 0x2C0 }
  - { offset: 0xF9A8, size: 0x8, addend: 0x0, symName: _createProfileDir, symObjAddr: 0x1CB0, symBinAddr: 0x1000094C0, symSize: 0x7F }
  - { offset: 0xFB17, size: 0x8, addend: 0x0, symName: _lprofProfileDumped, symObjAddr: 0x0, symBinAddr: 0x100009540, symSize: 0x10 }
  - { offset: 0xFB34, size: 0x8, addend: 0x0, symName: _ProfileDumped, symObjAddr: 0x4E0, symBinAddr: 0x100063EB4, symSize: 0x0 }
  - { offset: 0xFB44, size: 0x8, addend: 0x0, symName: _lprofProfileDumped, symObjAddr: 0x0, symBinAddr: 0x100009540, symSize: 0x10 }
  - { offset: 0xFB8C, size: 0x8, addend: 0x0, symName: _lprofGetLoadModuleSignature, symObjAddr: 0x0, symBinAddr: 0x100009550, symSize: 0xE0 }
  - { offset: 0xFBB9, size: 0x8, addend: 0x0, symName: _VPMergeHook, symObjAddr: 0x2AA0, symBinAddr: 0x1000660A0, symSize: 0x0 }
  - { offset: 0xFE1D, size: 0x8, addend: 0x0, symName: _lprofGetLoadModuleSignature, symObjAddr: 0x0, symBinAddr: 0x100009550, symSize: 0xE0 }
  - { offset: 0xFE91, size: 0x8, addend: 0x0, symName: ___llvm_profile_check_compatibility, symObjAddr: 0xE0, symBinAddr: 0x100009630, symSize: 0x190 }
  - { offset: 0xFF71, size: 0x8, addend: 0x0, symName: ___llvm_profile_merge_from_buffer, symObjAddr: 0x270, symBinAddr: 0x1000097C0, symSize: 0x4D8 }
  - { offset: 0x101D1, size: 0x8, addend: 0x0, symName: _lprofMergeValueProfData, symObjAddr: 0x0, symBinAddr: 0x100009CA0, symSize: 0xF1 }
  - { offset: 0x101E2, size: 0x8, addend: 0x0, symName: _lprofMergeValueProfData, symObjAddr: 0x0, symBinAddr: 0x100009CA0, symSize: 0xF1 }
  - { offset: 0x104A0, size: 0x8, addend: 0x0, symName: ___llvm_profile_begin_data, symObjAddr: 0x0, symBinAddr: 0x100009DA0, symSize: 0x10 }
  - { offset: 0x104BF, size: 0x8, addend: 0x0, symName: _CurrentVNode, symObjAddr: 0xE8, symBinAddr: 0x1000632A8, symSize: 0x0 }
  - { offset: 0x1053B, size: 0x8, addend: 0x0, symName: _EndVNode, symObjAddr: 0xF0, symBinAddr: 0x1000632B0, symSize: 0x0 }
  - { offset: 0x10544, size: 0x8, addend: 0x0, symName: ___llvm_profile_begin_data, symObjAddr: 0x0, symBinAddr: 0x100009DA0, symSize: 0x10 }
  - { offset: 0x10565, size: 0x8, addend: 0x0, symName: ___llvm_profile_end_data, symObjAddr: 0x10, symBinAddr: 0x100009DB0, symSize: 0x10 }
  - { offset: 0x10586, size: 0x8, addend: 0x0, symName: ___llvm_profile_begin_names, symObjAddr: 0x20, symBinAddr: 0x100009DC0, symSize: 0x10 }
  - { offset: 0x105A7, size: 0x8, addend: 0x0, symName: ___llvm_profile_end_names, symObjAddr: 0x30, symBinAddr: 0x100009DD0, symSize: 0x10 }
  - { offset: 0x105C8, size: 0x8, addend: 0x0, symName: ___llvm_profile_begin_counters, symObjAddr: 0x40, symBinAddr: 0x100009DE0, symSize: 0x10 }
  - { offset: 0x105E9, size: 0x8, addend: 0x0, symName: ___llvm_profile_end_counters, symObjAddr: 0x50, symBinAddr: 0x100009DF0, symSize: 0x10 }
  - { offset: 0x1060A, size: 0x8, addend: 0x0, symName: ___llvm_profile_begin_bitmap, symObjAddr: 0x60, symBinAddr: 0x100009E00, symSize: 0x10 }
  - { offset: 0x1062B, size: 0x8, addend: 0x0, symName: ___llvm_profile_end_bitmap, symObjAddr: 0x70, symBinAddr: 0x100009E10, symSize: 0x10 }
  - { offset: 0x1064C, size: 0x8, addend: 0x0, symName: ___llvm_profile_begin_vtables, symObjAddr: 0x80, symBinAddr: 0x100009E20, symSize: 0x10 }
  - { offset: 0x1066D, size: 0x8, addend: 0x0, symName: ___llvm_profile_end_vtables, symObjAddr: 0x90, symBinAddr: 0x100009E30, symSize: 0x10 }
  - { offset: 0x1068E, size: 0x8, addend: 0x0, symName: ___llvm_profile_begin_vtabnames, symObjAddr: 0xA0, symBinAddr: 0x100009E40, symSize: 0x10 }
  - { offset: 0x106AF, size: 0x8, addend: 0x0, symName: ___llvm_profile_end_vtabnames, symObjAddr: 0xB0, symBinAddr: 0x100009E50, symSize: 0x10 }
  - { offset: 0x106D0, size: 0x8, addend: 0x0, symName: ___llvm_profile_begin_vnodes, symObjAddr: 0xC0, symBinAddr: 0x100009E60, symSize: 0x10 }
  - { offset: 0x106F1, size: 0x8, addend: 0x0, symName: ___llvm_profile_end_vnodes, symObjAddr: 0xD0, symBinAddr: 0x100009E70, symSize: 0x10 }
  - { offset: 0x10712, size: 0x8, addend: 0x0, symName: ___llvm_write_binary_ids, symObjAddr: 0xE0, symBinAddr: 0x100009E80, symSize: 0x3 }
  - { offset: 0x10996, size: 0x8, addend: 0x0, symName: __GLOBAL__sub_I_InstrProfilingRuntime.cpp, symObjAddr: 0x0, symBinAddr: 0x100009E90, symSize: 0x12 }
  - { offset: 0x109B9, size: 0x8, addend: 0x0, symName: ___llvm_profile_runtime, symObjAddr: 0x580, symBinAddr: 0x1000660A8, symSize: 0x0 }
  - { offset: 0x109EA, size: 0x8, addend: 0x0, symName: __GLOBAL__sub_I_InstrProfilingRuntime.cpp, symObjAddr: 0x0, symBinAddr: 0x100009E90, symSize: 0x12 }
  - { offset: 0x10A66, size: 0x8, addend: 0x0, symName: ___llvm_profile_recursive_mkdir, symObjAddr: 0x0, symBinAddr: 0x100009EB0, symSize: 0x40 }
  - { offset: 0x10A85, size: 0x8, addend: 0x0, symName: _lprofDirMode, symObjAddr: 0x6F8, symBinAddr: 0x1000632B8, symSize: 0x0 }
  - { offset: 0x10AF0, size: 0x8, addend: 0x0, symName: ___llvm_profile_recursive_mkdir, symObjAddr: 0x0, symBinAddr: 0x100009EB0, symSize: 0x40 }
  - { offset: 0x10B6F, size: 0x8, addend: 0x0, symName: _lprofGetHostName, symObjAddr: 0x60, symBinAddr: 0x100009EF0, symSize: 0x70 }
  - { offset: 0x10C9E, size: 0x8, addend: 0x0, symName: _lprofLockFileHandle, symObjAddr: 0x1B0, symBinAddr: 0x100009F60, symSize: 0x70 }
  - { offset: 0x10D2C, size: 0x8, addend: 0x0, symName: _lprofUnlockFileHandle, symObjAddr: 0x220, symBinAddr: 0x100009FD0, symSize: 0x70 }
  - { offset: 0x10D94, size: 0x8, addend: 0x0, symName: _lprofOpenFileEx, symObjAddr: 0x290, symBinAddr: 0x10000A040, symSize: 0xB0 }
  - { offset: 0x10E26, size: 0x8, addend: 0x0, symName: _lprofGetFileContentBuffer, symObjAddr: 0x340, symBinAddr: 0x10000A0F0, symSize: 0x1B0 }
  - { offset: 0x10EB3, size: 0x8, addend: 0x0, symName: _lprofReleaseBuffer, symObjAddr: 0x4F0, symBinAddr: 0x10000A2A0, symSize: 0x70 }
  - { offset: 0x10EF5, size: 0x8, addend: 0x0, symName: _lprofFindFirstDirSeparator, symObjAddr: 0x660, symBinAddr: 0x10000A310, symSize: 0x10 }
  - { offset: 0x10F35, size: 0x8, addend: 0x0, symName: _lprofSuspendSigKill, symObjAddr: 0x680, symBinAddr: 0x10000A320, symSize: 0x10 }
  - { offset: 0x10F58, size: 0x8, addend: 0x0, symName: _lprofRestoreSigKill, symObjAddr: 0x690, symBinAddr: 0x10000A330, symSize: 0x10 }
  - { offset: 0x10F77, size: 0x8, addend: 0x0, symName: _lprofAtExit, symObjAddr: 0x6F0, symBinAddr: 0x10000A340, symSize: 0x5 }
  - { offset: 0x11288, size: 0x8, addend: 0x0, symName: _getValueProfRecordHeaderSize, symObjAddr: 0x0, symBinAddr: 0x10000A350, symSize: 0x10 }
  - { offset: 0x112A7, size: 0x8, addend: 0x0, symName: _VPMaxNumValsPerSite, symObjAddr: 0x1468, symBinAddr: 0x1000632C0, symSize: 0x0 }
  - { offset: 0x1133C, size: 0x8, addend: 0x0, symName: _hasNonDefaultValsPerSite, symObjAddr: 0xEE78, symBinAddr: 0x100063EB8, symSize: 0x0 }
  - { offset: 0x11363, size: 0x8, addend: 0x0, symName: _OutOfNodesWarnings, symObjAddr: 0xEE80, symBinAddr: 0x100063EC0, symSize: 0x0 }
  - { offset: 0x11378, size: 0x8, addend: 0x0, symName: _hasStaticCounters, symObjAddr: 0xEE7C, symBinAddr: 0x100063EBC, symSize: 0x0 }
  - { offset: 0x11395, size: 0x8, addend: 0x0, symName: _TheVPDataReader, symObjAddr: 0x1470, symBinAddr: 0x1000632C8, symSize: 0x0 }
  - { offset: 0x1162B, size: 0x8, addend: 0x0, symName: _RTRecord, symObjAddr: 0xEE88, symBinAddr: 0x100063EC8, symSize: 0x0 }
  - { offset: 0x1180D, size: 0x8, addend: 0x0, symName: _getValueProfRecordHeaderSize, symObjAddr: 0x0, symBinAddr: 0x10000A350, symSize: 0x10 }
  - { offset: 0x11861, size: 0x8, addend: 0x0, symName: _getValueProfRecordValueData, symObjAddr: 0x20, symBinAddr: 0x10000A360, symSize: 0x10 }
  - { offset: 0x1190D, size: 0x8, addend: 0x0, symName: _getValueProfRecordNext, symObjAddr: 0x130, symBinAddr: 0x10000A370, symSize: 0x100 }
  - { offset: 0x11915, size: 0x8, addend: 0x0, symName: _getFirstValueProfRecord, symObjAddr: 0x230, symBinAddr: 0x10000A470, symSize: 0x10 }
  - { offset: 0x1199B, size: 0x8, addend: 0x0, symName: _getFirstValueProfRecord, symObjAddr: 0x230, symBinAddr: 0x10000A470, symSize: 0x10 }
  - { offset: 0x11A7B, size: 0x8, addend: 0x0, symName: _lprofSetupValueProfiler, symObjAddr: 0x8C0, symBinAddr: 0x10000A480, symSize: 0x50 }
  - { offset: 0x11B8D, size: 0x8, addend: 0x0, symName: ___llvm_profile_instrument_target_value, symObjAddr: 0xB90, symBinAddr: 0x10000A4D0, symSize: 0x240 }
  - { offset: 0x11CA8, size: 0x8, addend: 0x0, symName: _lprofGetVPDataReader, symObjAddr: 0xE20, symBinAddr: 0x10000A710, symSize: 0x10 }
  - { offset: 0x11CCA, size: 0x8, addend: 0x0, symName: _initializeValueProfRuntimeRecord, symObjAddr: 0xE30, symBinAddr: 0x10000A720, symSize: 0x390 }
  - { offset: 0x11DE6, size: 0x8, addend: 0x0, symName: _getNumValueDataForSiteWrapper, symObjAddr: 0x11C0, symBinAddr: 0x10000AAB0, symSize: 0x20 }
  - { offset: 0x11E2A, size: 0x8, addend: 0x0, symName: _getNumValueDataForSiteWrapper, symObjAddr: 0x11C0, symBinAddr: 0x10000AAB0, symSize: 0x20 }
  - { offset: 0x11E4F, size: 0x8, addend: 0x0, symName: _getValueProfDataSizeWrapper, symObjAddr: 0x11E0, symBinAddr: 0x10000AAD0, symSize: 0xB0 }
  - { offset: 0x11E75, size: 0x8, addend: 0x0, symName: _getValueProfDataSizeWrapper, symObjAddr: 0x11E0, symBinAddr: 0x10000AAD0, symSize: 0xB0 }
  - { offset: 0x11EA6, size: 0x8, addend: 0x0, symName: _getValueProfDataSizeWrapper, symObjAddr: 0x11E0, symBinAddr: 0x10000AAD0, symSize: 0xB0 }
  - { offset: 0x11F02, size: 0x8, addend: 0x0, symName: _getNextNValueData, symObjAddr: 0x1290, symBinAddr: 0x10000AB80, symSize: 0xC0 }
  - { offset: 0x11F99, size: 0x8, addend: 0x0, symName: _getNumValueSitesRT, symObjAddr: 0x1350, symBinAddr: 0x10000AC40, symSize: 0x10 }
  - { offset: 0x11FD9, size: 0x8, addend: 0x0, symName: _getNumValueDataRT, symObjAddr: 0x1360, symBinAddr: 0x10000AC50, symSize: 0x101 }
  - { offset: 0x1208E, size: 0x8, addend: 0x0, symName: ___llvm_profile_raw_version, symObjAddr: 0x0, symBinAddr: 0x1000632F8, symSize: 0x0 }
  - { offset: 0x120D0, size: 0x8, addend: 0x0, symName: _lprofBufferWriter, symObjAddr: 0x0, symBinAddr: 0x10000AD60, symSize: 0x60 }
  - { offset: 0x120EF, size: 0x8, addend: 0x0, symName: _FreeHook, symObjAddr: 0x55B0, symBinAddr: 0x1000660B0, symSize: 0x0 }
  - { offset: 0x12115, size: 0x8, addend: 0x0, symName: _DynamicBufferIOBuffer, symObjAddr: 0x55B8, symBinAddr: 0x1000660B8, symSize: 0x0 }
  - { offset: 0x12143, size: 0x8, addend: 0x0, symName: _VPBufferSize, symObjAddr: 0x55C0, symBinAddr: 0x1000660C0, symSize: 0x0 }
  - { offset: 0x1216A, size: 0x8, addend: 0x0, symName: _TheBufferIO, symObjAddr: 0x75D0, symBinAddr: 0x100065EF0, symSize: 0x0 }
  - { offset: 0x122B4, size: 0x8, addend: 0x0, symName: _BufferIOBuffer, symObjAddr: 0x55D0, symBinAddr: 0x100063EF0, symSize: 0x0 }
  - { offset: 0x122DE, size: 0x8, addend: 0x0, symName: _VPDataArray, symObjAddr: 0x75F0, symBinAddr: 0x100065F10, symSize: 0x0 }
  - { offset: 0x12354, size: 0x8, addend: 0x0, symName: _lprofBufferWriter, symObjAddr: 0x0, symBinAddr: 0x10000AD60, symSize: 0x60 }
  - { offset: 0x1246D, size: 0x8, addend: 0x0, symName: _lprofBufferIOWrite, symObjAddr: 0x100, symBinAddr: 0x10000ADC0, symSize: 0x110 }
  - { offset: 0x12586, size: 0x8, addend: 0x0, symName: _lprofWriteData, symObjAddr: 0x2A0, symBinAddr: 0x10000AED0, symSize: 0x120 }
  - { offset: 0x129BC, size: 0x8, addend: 0x0, symName: _lprofWriteDataImpl, symObjAddr: 0x3C0, symBinAddr: 0x10000AFF0, symSize: 0x6E0 }
  - { offset: 0x12D08, size: 0x8, addend: 0x0, symName: _writeOneValueProfData, symObjAddr: 0xB40, symBinAddr: 0x10000B6D0, symSize: 0x438 }
  - { offset: 0x12FC2, size: 0x8, addend: 0x0, symName: __RNvCskdKJRKLKjqM_7___rustc10rust_panic, symObjAddr: 0x0, symBinAddr: 0x10004D8E0, symSize: 0x70 }
  - { offset: 0x13324, size: 0x8, addend: 0x0, symName: '__ZN42_$LT$$RF$T$u20$as$u20$core..fmt..Debug$GT$3fmt17h4fdfc8dc92b8280eE', symObjAddr: 0x27870, symBinAddr: 0x10001EE90, symSize: 0x20 }
  - { offset: 0x13355, size: 0x8, addend: 0x0, symName: '__ZN42_$LT$$RF$T$u20$as$u20$core..fmt..Debug$GT$3fmt17h611062ea6589b381E', symObjAddr: 0x27920, symBinAddr: 0x10001EEB0, symSize: 0x30 }
  - { offset: 0x1339B, size: 0x8, addend: 0x0, symName: '__ZN42_$LT$$RF$T$u20$as$u20$core..fmt..Debug$GT$3fmt17h67462dcd352e9f70E', symObjAddr: 0x27A20, symBinAddr: 0x10001EEE0, symSize: 0x30 }
  - { offset: 0x133EF, size: 0x8, addend: 0x0, symName: '__ZN42_$LT$$RF$T$u20$as$u20$core..fmt..Debug$GT$3fmt17h7225122a94cfb215E', symObjAddr: 0x27AB0, symBinAddr: 0x10001EF10, symSize: 0x80 }
  - { offset: 0x1348A, size: 0x8, addend: 0x0, symName: '__ZN42_$LT$$RF$T$u20$as$u20$core..fmt..Debug$GT$3fmt17h94e75b9b1a04870cE', symObjAddr: 0x27C70, symBinAddr: 0x10001EF90, symSize: 0xA0 }
  - { offset: 0x13519, size: 0x8, addend: 0x0, symName: '__ZN42_$LT$$RF$T$u20$as$u20$core..fmt..Debug$GT$3fmt17ha3f9e4fd80ade547E', symObjAddr: 0x27D30, symBinAddr: 0x10001F030, symSize: 0x20 }
  - { offset: 0x1352D, size: 0x8, addend: 0x0, symName: '__ZN42_$LT$$RF$T$u20$as$u20$core..fmt..Debug$GT$3fmt17hd6b383e11abcf534E', symObjAddr: 0x27FB0, symBinAddr: 0x10001F050, symSize: 0x20 }
  - { offset: 0x1355E, size: 0x8, addend: 0x0, symName: '__ZN42_$LT$$RF$T$u20$as$u20$core..fmt..Debug$GT$3fmt17hedcae28885211270E', symObjAddr: 0x28060, symBinAddr: 0x10001F070, symSize: 0x80 }
  - { offset: 0x13690, size: 0x8, addend: 0x0, symName: '__ZN44_$LT$$RF$T$u20$as$u20$core..fmt..Display$GT$3fmt17h2befab159451fc05E', symObjAddr: 0x28130, symBinAddr: 0x10001F0F0, symSize: 0x20 }
  - { offset: 0x136AB, size: 0x8, addend: 0x0, symName: '__ZN44_$LT$$RF$T$u20$as$u20$core..fmt..Display$GT$3fmt17had011a6e3beb8b51E', symObjAddr: 0x28150, symBinAddr: 0x10001F110, symSize: 0x90 }
  - { offset: 0x13769, size: 0x8, addend: 0x0, symName: '__ZN4core3fmt3num50_$LT$impl$u20$core..fmt..Debug$u20$for$u20$i32$GT$3fmt17h0317b62489790191E', symObjAddr: 0x284D0, symBinAddr: 0x10001F1A0, symSize: 0x30 }
  - { offset: 0x13798, size: 0x8, addend: 0x0, symName: '__ZN4core3fmt3num52_$LT$impl$u20$core..fmt..Debug$u20$for$u20$usize$GT$3fmt17h4806199c82f902ceE', symObjAddr: 0x28590, symBinAddr: 0x10001F1D0, symSize: 0x30 }
  - { offset: 0x137E9, size: 0x8, addend: 0x0, symName: __ZN4core3fmt5Write10write_char17h2203fddc9d642afeE, symObjAddr: 0x285C0, symBinAddr: 0x10001F200, symSize: 0xF0 }
  - { offset: 0x13930, size: 0x8, addend: 0x0, symName: __ZN4core3fmt5Write10write_char17h80d2a9496aca00b0E, symObjAddr: 0x28810, symBinAddr: 0x10001F2F0, symSize: 0xE0 }
  - { offset: 0x139B4, size: 0x8, addend: 0x0, symName: __ZN4core3fmt5Write10write_char17hc46b6f7c3c3194cbE, symObjAddr: 0x288F0, symBinAddr: 0x10001F3D0, symSize: 0x130 }
  - { offset: 0x13B56, size: 0x8, addend: 0x0, symName: __ZN4core3fmt5Write10write_char17hdac7d1ed87bd809bE, symObjAddr: 0x28B00, symBinAddr: 0x10001F500, symSize: 0x160 }
  - { offset: 0x13D09, size: 0x8, addend: 0x0, symName: __ZN4core3fmt5Write9write_fmt17hd3928726ab1abb27E, symObjAddr: 0x28D00, symBinAddr: 0x10001F660, symSize: 0x50 }
  - { offset: 0x13D38, size: 0x8, addend: 0x0, symName: __ZN4core3fmt5Write9write_fmt17he343009274951ef4E, symObjAddr: 0x28D50, symBinAddr: 0x10001F6B0, symSize: 0x50 }
  - { offset: 0x13D67, size: 0x8, addend: 0x0, symName: __ZN4core3fmt5Write9write_fmt17he408d8c37cd4c2c5E, symObjAddr: 0x28DA0, symBinAddr: 0x10001F700, symSize: 0x50 }
  - { offset: 0x13D96, size: 0x8, addend: 0x0, symName: __ZN4core3fmt5Write9write_fmt17hec70cb0fc9ef19e4E, symObjAddr: 0x28DF0, symBinAddr: 0x10001F750, symSize: 0x50 }
  - { offset: 0x13DC5, size: 0x8, addend: 0x0, symName: __ZN4core3fmt5Write9write_fmt17hfbfca6c33e82dca5E, symObjAddr: 0x28E40, symBinAddr: 0x10001F7A0, symSize: 0x50 }
  - { offset: 0x13E22, size: 0x8, addend: 0x0, symName: '__ZN50_$LT$$BP$mut$u20$T$u20$as$u20$core..fmt..Debug$GT$3fmt17h461ef72b23c2334dE', symObjAddr: 0x3AB30, symBinAddr: 0x10002C2A0, symSize: 0x10 }
  - { offset: 0x13E6F, size: 0x8, addend: 0x0, symName: '__ZN52_$LT$$RF$mut$u20$T$u20$as$u20$core..fmt..Display$GT$3fmt17he99623082ea1fa3dE', symObjAddr: 0x3B1B0, symBinAddr: 0x10002C2B0, symSize: 0x20 }
  - { offset: 0x164E3, size: 0x8, addend: 0x0, symName: '__ZN4core3ptr107drop_in_place$LT$core..pin..Pin$LT$alloc..boxed..Box$LT$std..sys..pal..unix..sync..mutex..Mutex$GT$$GT$$GT$17he4bee0bcfb03f75fE', symObjAddr: 0x294F0, symBinAddr: 0x10001FA00, symSize: 0x30 }
  - { offset: 0x1657A, size: 0x8, addend: 0x0, symName: '__ZN4core3ptr109drop_in_place$LT$alloc..sync..Arc$LT$std..sync..poison..mutex..Mutex$LT$alloc..vec..Vec$LT$u8$GT$$GT$$GT$$GT$17he5b3c9d5553080edE', symObjAddr: 0x29520, symBinAddr: 0x10001FA30, symSize: 0x20 }
  - { offset: 0x165FB, size: 0x8, addend: 0x0, symName: '__ZN4core3ptr119drop_in_place$LT$std..io..default_write_fmt..Adapter$LT$std..io..cursor..Cursor$LT$$RF$mut$u20$$u5b$u8$u5d$$GT$$GT$$GT$17h8ef58680b6ede286E', symObjAddr: 0x295C0, symBinAddr: 0x10001FA50, symSize: 0x20 }
  - { offset: 0x1661E, size: 0x8, addend: 0x0, symName: '__ZN4core3ptr123drop_in_place$LT$addr2line..Context$LT$gimli..read..endian_slice..EndianSlice$LT$gimli..endianity..LittleEndian$GT$$GT$$GT$17h4096ebf47a84add1E', symObjAddr: 0x295E0, symBinAddr: 0x10001FA70, symSize: 0x60 }
  - { offset: 0x166C3, size: 0x8, addend: 0x0, symName: '__ZN4core3ptr128drop_in_place$LT$core..result..Result$LT$$RF$std..thread..Thread$C$$LP$$RF$std..thread..Thread$C$std..thread..Thread$RP$$GT$$GT$17h5b35dce14f68d27eE', symObjAddr: 0x29640, symBinAddr: 0x10001FAD0, symSize: 0x20 }
  - { offset: 0x167E5, size: 0x8, addend: 0x0, symName: '__ZN4core3ptr129drop_in_place$LT$addr2line..unit..ResUnit$LT$gimli..read..endian_slice..EndianSlice$LT$gimli..endianity..LittleEndian$GT$$GT$$GT$17h5b41b59ec8c6acd1E', symObjAddr: 0x29660, symBinAddr: 0x10001FAF0, symSize: 0x100 }
  - { offset: 0x169F3, size: 0x8, addend: 0x0, symName: '__ZN4core3ptr129drop_in_place$LT$addr2line..unit..SupUnit$LT$gimli..read..endian_slice..EndianSlice$LT$gimli..endianity..LittleEndian$GT$$GT$$GT$17h7745e598093ea497E', symObjAddr: 0x29760, symBinAddr: 0x10001FBF0, symSize: 0x50 }
  - { offset: 0x16A9E, size: 0x8, addend: 0x0, symName: '__ZN4core3ptr130drop_in_place$LT$addr2line..unit..ResUnits$LT$gimli..read..endian_slice..EndianSlice$LT$gimli..endianity..LittleEndian$GT$$GT$$GT$17h8ac001c378159224E', symObjAddr: 0x297B0, symBinAddr: 0x10001FC40, symSize: 0xE0 }
  - { offset: 0x16C47, size: 0x8, addend: 0x0, symName: '__ZN4core3ptr130drop_in_place$LT$addr2line..unit..SupUnits$LT$gimli..read..endian_slice..EndianSlice$LT$gimli..endianity..LittleEndian$GT$$GT$$GT$17hf4d4e85b8cf1677eE', symObjAddr: 0x29890, symBinAddr: 0x10001FD20, symSize: 0xE0 }
  - { offset: 0x16DE3, size: 0x8, addend: 0x0, symName: '__ZN4core3ptr130drop_in_place$LT$gimli..read..dwarf..Dwarf$LT$gimli..read..endian_slice..EndianSlice$LT$gimli..endianity..LittleEndian$GT$$GT$$GT$17h00351692336cc8a5E', symObjAddr: 0x29970, symBinAddr: 0x10001FE00, symSize: 0x60 }
  - { offset: 0x16E4D, size: 0x8, addend: 0x0, symName: '__ZN4core3ptr131drop_in_place$LT$$u5b$core..option..Option$LT$core..option..Option$LT$std..backtrace_rs..symbolize..gimli..Mapping$GT$$GT$$u5d$$GT$17h5e49fcba991e0fefE', symObjAddr: 0x299D0, symBinAddr: 0x10001FE60, symSize: 0xE0 }
  - { offset: 0x16EF7, size: 0x8, addend: 0x0, symName: '__ZN4core3ptr131drop_in_place$LT$alloc..boxed..Box$LT$dyn$u20$core..ops..function..FnOnce$LT$$LP$$RP$$GT$$u2b$Output$u20$$u3d$$u20$$LP$$RP$$GT$$GT$17h34dfa6de81a90f60E', symObjAddr: 0x29AB0, symBinAddr: 0x10001FF40, symSize: 0x70 }
  - { offset: 0x16FE2, size: 0x8, addend: 0x0, symName: '__ZN4core3ptr137drop_in_place$LT$gimli..read..dwarf..Unit$LT$gimli..read..endian_slice..EndianSlice$LT$gimli..endianity..LittleEndian$GT$$C$usize$GT$$GT$17h8a3dedf63945c7ffE', symObjAddr: 0x29B20, symBinAddr: 0x10001FFB0, symSize: 0x50 }
  - { offset: 0x170CB, size: 0x8, addend: 0x0, symName: '__ZN4core3ptr138drop_in_place$LT$addr2line..function..LazyFunction$LT$gimli..read..endian_slice..EndianSlice$LT$gimli..endianity..LittleEndian$GT$$GT$$GT$17h0f8e66548b648d63E', symObjAddr: 0x29B70, symBinAddr: 0x100020000, symSize: 0x60 }
  - { offset: 0x170E2, size: 0x8, addend: 0x0, symName: '__ZN4core3ptr138drop_in_place$LT$addr2line..function..LazyFunction$LT$gimli..read..endian_slice..EndianSlice$LT$gimli..endianity..LittleEndian$GT$$GT$$GT$17h0f8e66548b648d63E', symObjAddr: 0x29B70, symBinAddr: 0x100020000, symSize: 0x60 }
  - { offset: 0x170F7, size: 0x8, addend: 0x0, symName: '__ZN4core3ptr138drop_in_place$LT$addr2line..function..LazyFunction$LT$gimli..read..endian_slice..EndianSlice$LT$gimli..endianity..LittleEndian$GT$$GT$$GT$17h0f8e66548b648d63E', symObjAddr: 0x29B70, symBinAddr: 0x100020000, symSize: 0x60 }
  - { offset: 0x1710C, size: 0x8, addend: 0x0, symName: '__ZN4core3ptr138drop_in_place$LT$addr2line..function..LazyFunction$LT$gimli..read..endian_slice..EndianSlice$LT$gimli..endianity..LittleEndian$GT$$GT$$GT$17h0f8e66548b648d63E', symObjAddr: 0x29B70, symBinAddr: 0x100020000, symSize: 0x60 }
  - { offset: 0x17240, size: 0x8, addend: 0x0, symName: '__ZN4core3ptr144drop_in_place$LT$alloc..vec..Vec$LT$core..option..Option$LT$core..option..Option$LT$std..backtrace_rs..symbolize..gimli..Mapping$GT$$GT$$GT$$GT$17hd133ee3f082661a3E', symObjAddr: 0x29BD0, symBinAddr: 0x100020060, symSize: 0x80 }
  - { offset: 0x1739A, size: 0x8, addend: 0x0, symName: '__ZN4core3ptr152drop_in_place$LT$alloc..vec..Vec$LT$addr2line..unit..ResUnit$LT$gimli..read..endian_slice..EndianSlice$LT$gimli..endianity..LittleEndian$GT$$GT$$GT$$GT$17h687eea1ef8e4dccbE', symObjAddr: 0x29D40, symBinAddr: 0x1000200E0, symSize: 0xD0 }
  - { offset: 0x17509, size: 0x8, addend: 0x0, symName: '__ZN4core3ptr152drop_in_place$LT$alloc..vec..Vec$LT$addr2line..unit..SupUnit$LT$gimli..read..endian_slice..EndianSlice$LT$gimli..endianity..LittleEndian$GT$$GT$$GT$$GT$17h43b55f1c1ec40770E', symObjAddr: 0x29E10, symBinAddr: 0x1000201B0, symSize: 0x100 }
  - { offset: 0x1770D, size: 0x8, addend: 0x0, symName: '__ZN4core3ptr156drop_in_place$LT$alloc..boxed..Box$LT$$u5b$core..option..Option$LT$core..option..Option$LT$std..backtrace_rs..symbolize..gimli..Mapping$GT$$GT$$u5d$$GT$$GT$17h64285ccbe01a68bbE', symObjAddr: 0x29F10, symBinAddr: 0x1000202B0, symSize: 0xF0 }
  - { offset: 0x17837, size: 0x8, addend: 0x0, symName: '__ZN4core3ptr159drop_in_place$LT$alloc..sync..ArcInner$LT$gimli..read..dwarf..Dwarf$LT$gimli..read..endian_slice..EndianSlice$LT$gimli..endianity..LittleEndian$GT$$GT$$GT$$GT$17ha7d070261ff0f422E', symObjAddr: 0x2A0A0, symBinAddr: 0x1000203A0, symSize: 0x60 }
  - { offset: 0x178E8, size: 0x8, addend: 0x0, symName: '__ZN4core3ptr161drop_in_place$LT$alloc..vec..Vec$LT$addr2line..function..LazyFunction$LT$gimli..read..endian_slice..EndianSlice$LT$gimli..endianity..LittleEndian$GT$$GT$$GT$$GT$17h224d020c77f1c5c5E', symObjAddr: 0x2A100, symBinAddr: 0x100020400, symSize: 0xC0 }
  - { offset: 0x17B25, size: 0x8, addend: 0x0, symName: '__ZN4core3ptr172drop_in_place$LT$core..result..Result$LT$addr2line..Context$LT$gimli..read..endian_slice..EndianSlice$LT$gimli..endianity..LittleEndian$GT$$GT$$C$gimli..read..Error$GT$$GT$17h9689e9d3357a2b29E', symObjAddr: 0x2A270, symBinAddr: 0x1000204C0, symSize: 0x70 }
  - { offset: 0x17BA6, size: 0x8, addend: 0x0, symName: '__ZN4core3ptr173drop_in_place$LT$alloc..boxed..Box$LT$$u5b$addr2line..function..LazyFunction$LT$gimli..read..endian_slice..EndianSlice$LT$gimli..endianity..LittleEndian$GT$$GT$$u5d$$GT$$GT$17h854691247aa87af0E', symObjAddr: 0x2A2E0, symBinAddr: 0x100020530, symSize: 0xA0 }
  - { offset: 0x17BBD, size: 0x8, addend: 0x0, symName: '__ZN4core3ptr173drop_in_place$LT$alloc..boxed..Box$LT$$u5b$addr2line..function..LazyFunction$LT$gimli..read..endian_slice..EndianSlice$LT$gimli..endianity..LittleEndian$GT$$GT$$u5d$$GT$$GT$17h854691247aa87af0E', symObjAddr: 0x2A2E0, symBinAddr: 0x100020530, symSize: 0xA0 }
  - { offset: 0x17D92, size: 0x8, addend: 0x0, symName: '__ZN4core3ptr181drop_in_place$LT$core..option..Option$LT$gimli..read..line..IncompleteLineProgram$LT$gimli..read..endian_slice..EndianSlice$LT$gimli..endianity..LittleEndian$GT$$C$usize$GT$$GT$$GT$17ha2da1af52ac50966E', symObjAddr: 0x2A3F0, symBinAddr: 0x1000205D0, symSize: 0xA0 }
  - { offset: 0x17FEB, size: 0x8, addend: 0x0, symName: '__ZN4core3ptr181drop_in_place$LT$core..result..Result$LT$addr2line..frame..FrameIter$LT$gimli..read..endian_slice..EndianSlice$LT$gimli..endianity..LittleEndian$GT$$GT$$C$gimli..read..Error$GT$$GT$17hb41a886cf8fb4359E', symObjAddr: 0x2A490, symBinAddr: 0x100020670, symSize: 0x40 }
  - { offset: 0x18129, size: 0x8, addend: 0x0, symName: '__ZN4core3ptr184drop_in_place$LT$core..result..Result$LT$addr2line..function..Functions$LT$gimli..read..endian_slice..EndianSlice$LT$gimli..endianity..LittleEndian$GT$$GT$$C$gimli..read..Error$GT$$GT$17h16817f6f8b785913E', symObjAddr: 0x2A4D0, symBinAddr: 0x1000206B0, symSize: 0xE0 }
  - { offset: 0x183B9, size: 0x8, addend: 0x0, symName: '__ZN4core3ptr194drop_in_place$LT$core..result..Result$LT$std..sync..poison..mutex..MutexGuard$LT$$LP$$RP$$GT$$C$std..sync..poison..PoisonError$LT$std..sync..poison..mutex..MutexGuard$LT$$LP$$RP$$GT$$GT$$GT$$GT$17h05108be9b923664fE', symObjAddr: 0x2A620, symBinAddr: 0x100020790, symSize: 0x50 }
  - { offset: 0x183F7, size: 0x8, addend: 0x0, symName: '__ZN4core3ptr231drop_in_place$LT$core..result..Result$LT$core..option..Option$LT$alloc..boxed..Box$LT$addr2line..unit..DwoUnit$LT$gimli..read..endian_slice..EndianSlice$LT$gimli..endianity..LittleEndian$GT$$GT$$GT$$GT$$C$gimli..read..Error$GT$$GT$17h77faee68108766d7E', symObjAddr: 0x2A670, symBinAddr: 0x1000207E0, symSize: 0xB0 }
  - { offset: 0x185C1, size: 0x8, addend: 0x0, symName: '__ZN4core3ptr238drop_in_place$LT$alloc..boxed..convert..$LT$impl$u20$core..convert..From$LT$alloc..string..String$GT$$u20$for$u20$alloc..boxed..Box$LT$dyn$u20$core..error..Error$u2b$core..marker..Sync$u2b$core..marker..Send$GT$$GT$..from..StringError$GT$17h77c71369405e109cE', symObjAddr: 0x2A720, symBinAddr: 0x100020890, symSize: 0x20 }
  - { offset: 0x1866C, size: 0x8, addend: 0x0, symName: '__ZN4core3ptr275drop_in_place$LT$gimli..read..line..LineRows$LT$gimli..read..endian_slice..EndianSlice$LT$gimli..endianity..LittleEndian$GT$$C$gimli..read..line..IncompleteLineProgram$LT$gimli..read..endian_slice..EndianSlice$LT$gimli..endianity..LittleEndian$GT$$C$usize$GT$$C$usize$GT$$GT$17hadd9cd2441f7544fE', symObjAddr: 0x2A740, symBinAddr: 0x1000208B0, symSize: 0xA0 }
  - { offset: 0x188E1, size: 0x8, addend: 0x0, symName: '__ZN4core3ptr280drop_in_place$LT$$LT$alloc..collections..btree..map..IntoIter$LT$K$C$V$C$A$GT$$u20$as$u20$core..ops..drop..Drop$GT$..drop..DropGuard$LT$u64$C$core..result..Result$LT$alloc..sync..Arc$LT$gimli..read..abbrev..Abbreviations$GT$$C$gimli..read..Error$GT$$C$alloc..alloc..Global$GT$$GT$17h12b50f4912f8d053E', symObjAddr: 0x2A7E0, symBinAddr: 0x100020950, symSize: 0x80 }
  - { offset: 0x18A0D, size: 0x8, addend: 0x0, symName: '__ZN4core3ptr284drop_in_place$LT$core..result..Result$LT$$RF$core..result..Result$LT$addr2line..line..Lines$C$gimli..read..Error$GT$$C$$LP$$RF$core..result..Result$LT$addr2line..line..Lines$C$gimli..read..Error$GT$$C$core..result..Result$LT$addr2line..line..Lines$C$gimli..read..Error$GT$$RP$$GT$$GT$17h10f406cda706aac9E', symObjAddr: 0x2A860, symBinAddr: 0x1000209D0, symSize: 0x20 }
  - { offset: 0x18A3E, size: 0x8, addend: 0x0, symName: '__ZN4core3ptr37drop_in_place$LT$std..env..VarsOs$GT$17h46b78f62b627aed3E', symObjAddr: 0x2A880, symBinAddr: 0x1000209F0, symSize: 0xB0 }
  - { offset: 0x18D03, size: 0x8, addend: 0x0, symName: '__ZN4core3ptr42drop_in_place$LT$alloc..string..String$GT$17h13a2c872d6de9b78E', symObjAddr: 0x2AA20, symBinAddr: 0x100020AA0, symSize: 0x20 }
  - { offset: 0x18D98, size: 0x8, addend: 0x0, symName: '__ZN4core3ptr42drop_in_place$LT$std..io..error..Error$GT$17hf3cc5d9531ccf1c0E', symObjAddr: 0x2AA40, symBinAddr: 0x100020AC0, symSize: 0xA0 }
  - { offset: 0x18FB6, size: 0x8, addend: 0x0, symName: '__ZN4core3ptr44drop_in_place$LT$object..read..ObjectMap$GT$17h9dfc9bd6f6ee5a53E', symObjAddr: 0x2AAE0, symBinAddr: 0x100020B60, symSize: 0x50 }
  - { offset: 0x190E5, size: 0x8, addend: 0x0, symName: '__ZN4core3ptr46drop_in_place$LT$alloc..vec..Vec$LT$u8$GT$$GT$17h50cadf63df0efd66E', symObjAddr: 0x2AB90, symBinAddr: 0x100020BB0, symSize: 0x20 }
  - { offset: 0x19164, size: 0x8, addend: 0x0, symName: '__ZN4core3ptr46drop_in_place$LT$std..io..stdio..StdinLock$GT$17h859807256c432efeE', symObjAddr: 0x2ABB0, symBinAddr: 0x100020BD0, symSize: 0x50 }
  - { offset: 0x1917B, size: 0x8, addend: 0x0, symName: '__ZN4core3ptr46drop_in_place$LT$std..io..stdio..StdinLock$GT$17h859807256c432efeE', symObjAddr: 0x2ABB0, symBinAddr: 0x100020BD0, symSize: 0x50 }
  - { offset: 0x19190, size: 0x8, addend: 0x0, symName: '__ZN4core3ptr46drop_in_place$LT$std..io..stdio..StdinLock$GT$17h859807256c432efeE', symObjAddr: 0x2ABB0, symBinAddr: 0x100020BD0, symSize: 0x50 }
  - { offset: 0x19274, size: 0x8, addend: 0x0, symName: '__ZN4core3ptr48drop_in_place$LT$alloc..ffi..c_str..NulError$GT$17h05fdddfd5dec9957E', symObjAddr: 0x2AD00, symBinAddr: 0x100020C20, symSize: 0x20 }
  - { offset: 0x19317, size: 0x8, addend: 0x0, symName: '__ZN4core3ptr557drop_in_place$LT$core..result..Result$LT$$RF$core..result..Result$LT$addr2line..function..Function$LT$gimli..read..endian_slice..EndianSlice$LT$gimli..endianity..LittleEndian$GT$$GT$$C$gimli..read..Error$GT$$C$$LP$$RF$core..result..Result$LT$addr2line..function..Function$LT$gimli..read..endian_slice..EndianSlice$LT$gimli..endianity..LittleEndian$GT$$GT$$C$gimli..read..Error$GT$$C$core..result..Result$LT$addr2line..function..Function$LT$gimli..read..endian_slice..EndianSlice$LT$gimli..endianity..LittleEndian$GT$$GT$$C$gimli..read..Error$GT$$RP$$GT$$GT$17hc44de9d152e84349E', symObjAddr: 0x2AFE0, symBinAddr: 0x100020C40, symSize: 0x60 }
  - { offset: 0x19501, size: 0x8, addend: 0x0, symName: '__ZN4core3ptr55drop_in_place$LT$gimli..read..abbrev..Abbreviations$GT$17h650fa2a70ecf9e05E', symObjAddr: 0x2B040, symBinAddr: 0x100020CA0, symSize: 0x130 }
  - { offset: 0x1984A, size: 0x8, addend: 0x0, symName: '__ZN4core3ptr560drop_in_place$LT$core..result..Result$LT$$RF$core..result..Result$LT$addr2line..function..Functions$LT$gimli..read..endian_slice..EndianSlice$LT$gimli..endianity..LittleEndian$GT$$GT$$C$gimli..read..Error$GT$$C$$LP$$RF$core..result..Result$LT$addr2line..function..Functions$LT$gimli..read..endian_slice..EndianSlice$LT$gimli..endianity..LittleEndian$GT$$GT$$C$gimli..read..Error$GT$$C$core..result..Result$LT$addr2line..function..Functions$LT$gimli..read..endian_slice..EndianSlice$LT$gimli..endianity..LittleEndian$GT$$GT$$C$gimli..read..Error$GT$$RP$$GT$$GT$17h6cf82f479787438aE', symObjAddr: 0x2B270, symBinAddr: 0x100020DD0, symSize: 0x20 }
  - { offset: 0x198A5, size: 0x8, addend: 0x0, symName: '__ZN4core3ptr60drop_in_place$LT$gimli..read..abbrev..AbbreviationsCache$GT$17h8ea9413fce52b0aeE', symObjAddr: 0x2B290, symBinAddr: 0x100020DF0, symSize: 0xE0 }
  - { offset: 0x19A0C, size: 0x8, addend: 0x0, symName: '__ZN4core3ptr64drop_in_place$LT$std..sys..pal..unix..sync..mutex..AttrGuard$GT$17h07975ffc5879c9b3E', symObjAddr: 0x2B3E0, symBinAddr: 0x100020ED0, symSize: 0x40 }
  - { offset: 0x19A2F, size: 0x8, addend: 0x0, symName: '__ZN4core3ptr64drop_in_place$LT$std..sys..process..unix..common..ChildPipes$GT$17h8a41ca136ef85558E', symObjAddr: 0x2B420, symBinAddr: 0x100020F10, symSize: 0x50 }
  - { offset: 0x19B31, size: 0x8, addend: 0x0, symName: '__ZN4core3ptr64drop_in_place$LT$std..sys..process..unix..common..StdioPipes$GT$17h923111f52d7e035aE', symObjAddr: 0x2B470, symBinAddr: 0x100020F60, symSize: 0x40 }
  - { offset: 0x19CA9, size: 0x8, addend: 0x0, symName: '__ZN4core3ptr65drop_in_place$LT$alloc..vec..Vec$LT$alloc..string..String$GT$$GT$17h7048242ed88ea37eE', symObjAddr: 0x2B4B0, symBinAddr: 0x100020FA0, symSize: 0x90 }
  - { offset: 0x19E0F, size: 0x8, addend: 0x0, symName: '__ZN4core3ptr65drop_in_place$LT$std..backtrace_rs..symbolize..gimli..Context$GT$17hc7e1db2a9c32a85bE', symObjAddr: 0x2B540, symBinAddr: 0x100021030, symSize: 0x100 }
  - { offset: 0x1A08D, size: 0x8, addend: 0x0, symName: '__ZN4core3ptr66drop_in_place$LT$std..backtrace_rs..backtrace..libunwind..Bomb$GT$17hd5948bcabaf539edE', symObjAddr: 0x2B640, symBinAddr: 0x100021130, symSize: 0x50 }
  - { offset: 0x1A0D9, size: 0x8, addend: 0x0, symName: '__ZN4core3ptr701drop_in_place$LT$core..result..Result$LT$$RF$core..result..Result$LT$core..option..Option$LT$alloc..boxed..Box$LT$addr2line..unit..DwoUnit$LT$gimli..read..endian_slice..EndianSlice$LT$gimli..endianity..LittleEndian$GT$$GT$$GT$$GT$$C$gimli..read..Error$GT$$C$$LP$$RF$core..result..Result$LT$core..option..Option$LT$alloc..boxed..Box$LT$addr2line..unit..DwoUnit$LT$gimli..read..endian_slice..EndianSlice$LT$gimli..endianity..LittleEndian$GT$$GT$$GT$$GT$$C$gimli..read..Error$GT$$C$core..result..Result$LT$core..option..Option$LT$alloc..boxed..Box$LT$addr2line..unit..DwoUnit$LT$gimli..read..endian_slice..EndianSlice$LT$gimli..endianity..LittleEndian$GT$$GT$$GT$$GT$$C$gimli..read..Error$GT$$RP$$GT$$GT$17h4c871d662e9baba8E', symObjAddr: 0x2B690, symBinAddr: 0x100021180, symSize: 0x20 }
  - { offset: 0x1A17A, size: 0x8, addend: 0x0, symName: '__ZN4core3ptr70drop_in_place$LT$std..backtrace_rs..symbolize..gimli..stash..Stash$GT$17h9192affd8a73d22bE', symObjAddr: 0x2B6B0, symBinAddr: 0x1000211A0, symSize: 0xE0 }
  - { offset: 0x1A420, size: 0x8, addend: 0x0, symName: '__ZN4core3ptr71drop_in_place$LT$std..backtrace_rs..symbolize..gimli..macho..Object$GT$17he8bfbbbc576ba26bE', symObjAddr: 0x2B790, symBinAddr: 0x100021280, symSize: 0xD0 }
  - { offset: 0x1A6E5, size: 0x8, addend: 0x0, symName: '__ZN4core3ptr71drop_in_place$LT$std..panicking..panic_handler..FormatStringPayload$GT$17he2832ae2b85e7af7E', symObjAddr: 0x2B860, symBinAddr: 0x100021350, symSize: 0x30 }
  - { offset: 0x1A7A1, size: 0x8, addend: 0x0, symName: '__ZN4core3ptr72drop_in_place$LT$core..option..Option$LT$object..read..ObjectMap$GT$$GT$17hfcefd03af094224dE', symObjAddr: 0x2B890, symBinAddr: 0x100021380, symSize: 0x60 }
  - { offset: 0x1A91E, size: 0x8, addend: 0x0, symName: '__ZN4core3ptr73drop_in_place$LT$alloc..vec..Vec$LT$addr2line..line..LineSequence$GT$$GT$17ha6ada6d850d6bfd7E', symObjAddr: 0x2B8F0, symBinAddr: 0x1000213E0, symSize: 0x90 }
  - { offset: 0x1AA76, size: 0x8, addend: 0x0, symName: '__ZN4core3ptr77drop_in_place$LT$alloc..boxed..Box$LT$$u5b$alloc..string..String$u5d$$GT$$GT$17hb3442e265eb8e1dcE', symObjAddr: 0x2B9D0, symBinAddr: 0x100021470, symSize: 0x60 }
  - { offset: 0x1AA8D, size: 0x8, addend: 0x0, symName: '__ZN4core3ptr77drop_in_place$LT$alloc..boxed..Box$LT$$u5b$alloc..string..String$u5d$$GT$$GT$17hb3442e265eb8e1dcE', symObjAddr: 0x2B9D0, symBinAddr: 0x100021470, symSize: 0x60 }
  - { offset: 0x1AB8B, size: 0x8, addend: 0x0, symName: '__ZN4core3ptr78drop_in_place$LT$core..result..Result$LT$usize$C$std..io..error..Error$GT$$GT$17h5cf9dfd69ab55d35E', symObjAddr: 0x2BA30, symBinAddr: 0x1000214D0, symSize: 0x20 }
  - { offset: 0x1AB9F, size: 0x8, addend: 0x0, symName: '__ZN4core3ptr79drop_in_place$LT$std..sync..poison..rwlock..RwLockReadGuard$LT$$LP$$RP$$GT$$GT$17h4fa0e4fa5e15bd74E', symObjAddr: 0x2BA50, symBinAddr: 0x1000214F0, symSize: 0x50 }
  - { offset: 0x1AC3B, size: 0x8, addend: 0x0, symName: '__ZN4core3ptr81drop_in_place$LT$core..result..Result$LT$$LP$$RP$$C$std..io..error..Error$GT$$GT$17h1c1edd567460b3feE', symObjAddr: 0x2BB50, symBinAddr: 0x100021540, symSize: 0x20 }
  - { offset: 0x1AC6B, size: 0x8, addend: 0x0, symName: '__ZN4core3ptr81drop_in_place$LT$std..sys..process..unix..common..cstring_array..CStringArray$GT$17h1ce3a250115cbe70E', symObjAddr: 0x2BB70, symBinAddr: 0x100021560, symSize: 0xD0 }
  - { offset: 0x1AFB3, size: 0x8, addend: 0x0, symName: '__ZN4core3ptr82drop_in_place$LT$alloc..sync..ArcInner$LT$std..sys..fs..unix..InnerReadDir$GT$$GT$17ha8fbff3aaada4fb8E', symObjAddr: 0x2BC40, symBinAddr: 0x100021630, symSize: 0x60 }
  - { offset: 0x1B156, size: 0x8, addend: 0x0, symName: '__ZN4core3ptr84drop_in_place$LT$$LP$std..ffi..os_str..OsString$C$std..ffi..os_str..OsString$RP$$GT$17hbc09269b3e4ede67E', symObjAddr: 0x2BCA0, symBinAddr: 0x100021690, symSize: 0x50 }
  - { offset: 0x1B2A3, size: 0x8, addend: 0x0, symName: '__ZN4core3ptr90drop_in_place$LT$std..io..buffered..bufwriter..BufWriter$LT$W$GT$..flush_buf..BufGuard$GT$17he4170abc552595a7E', symObjAddr: 0x2BD40, symBinAddr: 0x1000216E0, symSize: 0x50 }
  - { offset: 0x1B42A, size: 0x8, addend: 0x0, symName: '__ZN4core3ptr92drop_in_place$LT$core..result..Result$LT$addr2line..line..Lines$C$gimli..read..Error$GT$$GT$17h2e8e0626d3a84d8eE', symObjAddr: 0x2BDF0, symBinAddr: 0x100021730, symSize: 0xE0 }
  - { offset: 0x1B670, size: 0x8, addend: 0x0, symName: '__ZN4core3ptr93drop_in_place$LT$core..option..Option$LT$std..backtrace_rs..symbolize..gimli..Mapping$GT$$GT$17h136f8c1ae5619cc2E', symObjAddr: 0x2BED0, symBinAddr: 0x100021810, symSize: 0x70 }
  - { offset: 0x1B6FF, size: 0x8, addend: 0x0, symName: '__ZN4core3ptr95drop_in_place$LT$std..io..buffered..linewriter..LineWriter$LT$std..io..stdio..StdoutRaw$GT$$GT$17h9eac947b14297a02E', symObjAddr: 0x2BF40, symBinAddr: 0x100021880, symSize: 0x100 }
  - { offset: 0x1DA8F, size: 0x8, addend: 0x0, symName: __ZN4core5panic12PanicPayload6as_str17h0a0af93859b241b1E, symObjAddr: 0x302B0, symBinAddr: 0x100021AE0, symSize: 0x10 }
  - { offset: 0x1E32E, size: 0x8, addend: 0x0, symName: '__ZN70_$LT$core..num..error..TryFromIntError$u20$as$u20$core..fmt..Debug$GT$3fmt17hf51a2ad22619e644E', symObjAddr: 0x54380, symBinAddr: 0x10003C1A0, symSize: 0x40 }
  - { offset: 0x200D2, size: 0x8, addend: 0x0, symName: __ZN4core5slice4sort8unstable7ipnsort17h2b4a537af7352546E, symObjAddr: 0x39850, symBinAddr: 0x10002B080, symSize: 0x1A0 }
  - { offset: 0x2037A, size: 0x8, addend: 0x0, symName: __ZN4core5slice4sort8unstable7ipnsort17h52ef4485ec8e6977E, symObjAddr: 0x399F0, symBinAddr: 0x10002B220, symSize: 0xE0 }
  - { offset: 0x2053C, size: 0x8, addend: 0x0, symName: __ZN4core5slice4sort8unstable8heapsort8heapsort17h4b4721c6bb82e1c1E, symObjAddr: 0x39AD0, symBinAddr: 0x10002B300, symSize: 0x120 }
  - { offset: 0x20782, size: 0x8, addend: 0x0, symName: __ZN4core5slice4sort8unstable8heapsort8heapsort17hab9566a01254ecddE, symObjAddr: 0x39BF0, symBinAddr: 0x10002B420, symSize: 0x1D0 }
  - { offset: 0x20B34, size: 0x8, addend: 0x0, symName: __ZN4core5slice4sort8unstable9quicksort9quicksort17h0b8d9e0f156a468cE, symObjAddr: 0x39DC0, symBinAddr: 0x10002B5F0, symSize: 0x540 }
  - { offset: 0x213D4, size: 0x8, addend: 0x0, symName: __ZN4core5slice4sort8unstable9quicksort9quicksort17h5a50d5c9a636cab4E, symObjAddr: 0x3A300, symBinAddr: 0x10002BB30, symSize: 0x761 }
  - { offset: 0x22037, size: 0x8, addend: 0x0, symName: __ZN4core5slice4sort6stable14driftsort_main17h3220260173ca707fE, symObjAddr: 0x31FD0, symBinAddr: 0x100023800, symSize: 0x150 }
  - { offset: 0x2230F, size: 0x8, addend: 0x0, symName: __ZN4core5slice4sort6stable14driftsort_main17h4699f0e78e45ec48E, symObjAddr: 0x32120, symBinAddr: 0x100023950, symSize: 0x150 }
  - { offset: 0x225E7, size: 0x8, addend: 0x0, symName: __ZN4core5slice4sort6stable14driftsort_main17h9e6c77f5f42fb271E, symObjAddr: 0x32270, symBinAddr: 0x100023AA0, symSize: 0x160 }
  - { offset: 0x22915, size: 0x8, addend: 0x0, symName: __ZN4core5slice4sort6stable14driftsort_main17ha76b3f8bfe5161d7E, symObjAddr: 0x323D0, symBinAddr: 0x100023C00, symSize: 0x160 }
  - { offset: 0x22C43, size: 0x8, addend: 0x0, symName: __ZN4core5slice4sort6stable14driftsort_main17hdb3cc37e344db5cdE, symObjAddr: 0x32530, symBinAddr: 0x100023D60, symSize: 0x150 }
  - { offset: 0x22F1B, size: 0x8, addend: 0x0, symName: __ZN4core5slice4sort6stable14driftsort_main17hf9b576397ab84e46E, symObjAddr: 0x32680, symBinAddr: 0x100023EB0, symSize: 0x160 }
  - { offset: 0x23385, size: 0x8, addend: 0x0, symName: __ZN4core5slice4sort6stable5drift4sort17h0344cd1179273fdfE, symObjAddr: 0x327E0, symBinAddr: 0x100024010, symSize: 0x6E0 }
  - { offset: 0x23B2D, size: 0x8, addend: 0x0, symName: __ZN4core5slice4sort6stable5drift4sort17h5d73a28370e736e7E, symObjAddr: 0x32EC0, symBinAddr: 0x1000246F0, symSize: 0x690 }
  - { offset: 0x242E4, size: 0x8, addend: 0x0, symName: __ZN4core5slice4sort6stable5drift4sort17h7d35ffbcc89f38d4E, symObjAddr: 0x33550, symBinAddr: 0x100024D80, symSize: 0x6D0 }
  - { offset: 0x24AA1, size: 0x8, addend: 0x0, symName: __ZN4core5slice4sort6stable5drift4sort17h8e4dd7b37e0e34b5E, symObjAddr: 0x33C20, symBinAddr: 0x100025450, symSize: 0x6E0 }
  - { offset: 0x25233, size: 0x8, addend: 0x0, symName: __ZN4core5slice4sort6stable5drift4sort17hd3daeb0e07815f37E, symObjAddr: 0x34300, symBinAddr: 0x100025B30, symSize: 0x690 }
  - { offset: 0x259EA, size: 0x8, addend: 0x0, symName: __ZN4core5slice4sort6stable5drift4sort17hdee5488c31b7bf79E, symObjAddr: 0x34990, symBinAddr: 0x1000261C0, symSize: 0x6B0 }
  - { offset: 0x2642B, size: 0x8, addend: 0x0, symName: __ZN4core5slice4sort6stable9quicksort9quicksort17h49e735213ea776e8E, symObjAddr: 0x35040, symBinAddr: 0x100026870, symSize: 0xC20 }
  - { offset: 0x271A4, size: 0x8, addend: 0x0, symName: __ZN4core5slice4sort6stable9quicksort9quicksort17h4e0f96bb5e50204eE, symObjAddr: 0x35C60, symBinAddr: 0x100027490, symSize: 0xD60 }
  - { offset: 0x27F53, size: 0x8, addend: 0x0, symName: __ZN4core5slice4sort6stable9quicksort9quicksort17h5039615b86acfb17E, symObjAddr: 0x369C0, symBinAddr: 0x1000281F0, symSize: 0xB50 }
  - { offset: 0x28D4D, size: 0x8, addend: 0x0, symName: __ZN4core5slice4sort6stable9quicksort9quicksort17h54d5655b54e85608E, symObjAddr: 0x37510, symBinAddr: 0x100028D40, symSize: 0xC40 }
  - { offset: 0x29AD6, size: 0x8, addend: 0x0, symName: __ZN4core5slice4sort6stable9quicksort9quicksort17h563ccb161c809bb9E, symObjAddr: 0x38150, symBinAddr: 0x100029980, symSize: 0xB50 }
  - { offset: 0x2A3AE, size: 0x8, addend: 0x0, symName: __ZN4core5slice4sort6stable9quicksort9quicksort17ha4eccc1b33417963E, symObjAddr: 0x38CA0, symBinAddr: 0x10002A4D0, symSize: 0xBB0 }
  - { offset: 0x2B8D9, size: 0x8, addend: 0x0, symName: __ZN4core5slice4sort6shared9smallsort12sort4_stable17h429c53b39c3949acE, symObjAddr: 0x30980, symBinAddr: 0x1000221B0, symSize: 0x1B0 }
  - { offset: 0x2BAB0, size: 0x8, addend: 0x0, symName: __ZN4core5slice4sort6shared9smallsort12sort4_stable17h8e40b2e7e5f636d6E, symObjAddr: 0x30B30, symBinAddr: 0x100022360, symSize: 0x1F0 }
  - { offset: 0x2BEBB, size: 0x8, addend: 0x0, symName: __ZN4core5slice4sort6shared9smallsort12sort8_stable17hd86b794b574b633cE, symObjAddr: 0x30D20, symBinAddr: 0x100022550, symSize: 0x3E0 }
  - { offset: 0x2C573, size: 0x8, addend: 0x0, symName: __ZN4core5slice4sort6shared9smallsort18small_sort_general17h0ffd90b03ee23f71E, symObjAddr: 0x31100, symBinAddr: 0x100022930, symSize: 0x510 }
  - { offset: 0x2CA90, size: 0x8, addend: 0x0, symName: __ZN4core5slice4sort6shared9smallsort18small_sort_general17h7a2a4ab0b4034136E, symObjAddr: 0x31610, symBinAddr: 0x100022E40, symSize: 0x600 }
  - { offset: 0x2D293, size: 0x8, addend: 0x0, symName: __ZN4core5slice4sort6shared9smallsort25insertion_sort_shift_left17h0b99a1dace0461e0E, symObjAddr: 0x31C10, symBinAddr: 0x100023440, symSize: 0x120 }
  - { offset: 0x2D458, size: 0x8, addend: 0x0, symName: __ZN4core5slice4sort6shared9smallsort25insertion_sort_shift_left17h1aa889efeb4092c1E, symObjAddr: 0x31D30, symBinAddr: 0x100023560, symSize: 0xF0 }
  - { offset: 0x2D586, size: 0x8, addend: 0x0, symName: __ZN4core5slice4sort6shared9smallsort25insertion_sort_shift_left17h39fda689822c34e3E, symObjAddr: 0x31E20, symBinAddr: 0x100023650, symSize: 0xF0 }
  - { offset: 0x2D6B5, size: 0x8, addend: 0x0, symName: __ZN4core5slice4sort6shared9smallsort25insertion_sort_shift_left17h519a67896e46d7b4E, symObjAddr: 0x31F10, symBinAddr: 0x100023740, symSize: 0xC0 }
  - { offset: 0x2D9D5, size: 0x8, addend: 0x0, symName: __ZN4core5slice4sort6shared5pivot11median3_rec17h0bad552e41eb9dc6E, symObjAddr: 0x302C0, symBinAddr: 0x100021AF0, symSize: 0xC0 }
  - { offset: 0x2DADC, size: 0x8, addend: 0x0, symName: __ZN4core5slice4sort6shared5pivot11median3_rec17h69042159816e04f4E, symObjAddr: 0x30380, symBinAddr: 0x100021BB0, symSize: 0xC0 }
  - { offset: 0x2DBE5, size: 0x8, addend: 0x0, symName: __ZN4core5slice4sort6shared5pivot11median3_rec17h6b39c5ff16384b97E, symObjAddr: 0x30440, symBinAddr: 0x100021C70, symSize: 0xB0 }
  - { offset: 0x2DD18, size: 0x8, addend: 0x0, symName: __ZN4core5slice4sort6shared5pivot11median3_rec17h78bc361aba28d375E, symObjAddr: 0x304F0, symBinAddr: 0x100021D20, symSize: 0x140 }
  - { offset: 0x2DF4D, size: 0x8, addend: 0x0, symName: __ZN4core5slice4sort6shared5pivot11median3_rec17h864e4c2ed0405f91E, symObjAddr: 0x30630, symBinAddr: 0x100021E60, symSize: 0xC0 }
  - { offset: 0x2E054, size: 0x8, addend: 0x0, symName: __ZN4core5slice4sort6shared5pivot11median3_rec17h9ee77f2cab2d4c5dE, symObjAddr: 0x306F0, symBinAddr: 0x100021F20, symSize: 0xC0 }
  - { offset: 0x2E15B, size: 0x8, addend: 0x0, symName: __ZN4core5slice4sort6shared5pivot11median3_rec17ha14fc07cd9e49161E, symObjAddr: 0x307B0, symBinAddr: 0x100021FE0, symSize: 0xC0 }
  - { offset: 0x2E262, size: 0x8, addend: 0x0, symName: __ZN4core5slice4sort6shared5pivot11median3_rec17hfa048ff775602914E, symObjAddr: 0x30870, symBinAddr: 0x1000220A0, symSize: 0x110 }
  - { offset: 0x2E46E, size: 0x8, addend: 0x0, symName: '__ZN55_$LT$$RF$str$u20$as$u20$core..str..pattern..Pattern$GT$15is_contained_in17hc8794a96b582b38aE', symObjAddr: 0x3B790, symBinAddr: 0x10002C2D0, symSize: 0x860 }
  - { offset: 0x2EC09, size: 0x8, addend: 0x0, symName: '__ZN4core3str7pattern13simd_contains28_$u7b$$u7b$closure$u7d$$u7d$17ha6d539c15f4ab7c0E', symObjAddr: 0x2C040, symBinAddr: 0x10004E470, symSize: 0x100 }
  - { offset: 0x30688, size: 0x8, addend: 0x0, symName: '__ZN4core3ops8function6FnOnce40call_once$u7b$$u7b$vtable.shim$u7d$$u7d$17h0d3238feb6ae2c7dE', symObjAddr: 0x29150, symBinAddr: 0x10001F7F0, symSize: 0x10 }
  - { offset: 0x306C4, size: 0x8, addend: 0x0, symName: '__ZN4core3ops8function6FnOnce40call_once$u7b$$u7b$vtable.shim$u7d$$u7d$17h3292d6654d591370E', symObjAddr: 0x29160, symBinAddr: 0x10001F800, symSize: 0x90 }
  - { offset: 0x307A8, size: 0x8, addend: 0x0, symName: '__ZN4core3ops8function6FnOnce40call_once$u7b$$u7b$vtable.shim$u7d$$u7d$17h59b44727da8ea4adE', symObjAddr: 0x29280, symBinAddr: 0x10001F890, symSize: 0x90 }
  - { offset: 0x30912, size: 0x8, addend: 0x0, symName: '__ZN4core3ops8function6FnOnce40call_once$u7b$$u7b$vtable.shim$u7d$$u7d$17h8ff5d8d366cb3dcdE', symObjAddr: 0x29350, symBinAddr: 0x10001F920, symSize: 0x90 }
  - { offset: 0x30A58, size: 0x8, addend: 0x0, symName: '__ZN4core3ops8function6FnOnce40call_once$u7b$$u7b$vtable.shim$u7d$$u7d$17h994b7e277a3827ddE', symObjAddr: 0x293E0, symBinAddr: 0x10001F9B0, symSize: 0x10 }
  - { offset: 0x30AA9, size: 0x8, addend: 0x0, symName: '__ZN4core3ops8function6FnOnce40call_once$u7b$$u7b$vtable.shim$u7d$$u7d$17h9e6dbb12aa376ac1E', symObjAddr: 0x29400, symBinAddr: 0x10001F9C0, symSize: 0x10 }
  - { offset: 0x30AE5, size: 0x8, addend: 0x0, symName: '__ZN4core3ops8function6FnOnce40call_once$u7b$$u7b$vtable.shim$u7d$$u7d$17hdb0d13364863d228E', symObjAddr: 0x29420, symBinAddr: 0x10001F9D0, symSize: 0x20 }
  - { offset: 0x30B21, size: 0x8, addend: 0x0, symName: '__ZN4core3ops8function6FnOnce40call_once$u7b$$u7b$vtable.shim$u7d$$u7d$17hf1524fee5c53f54cE', symObjAddr: 0x294E0, symBinAddr: 0x10001F9F0, symSize: 0x10 }
  - { offset: 0x31936, size: 0x8, addend: 0x0, symName: '__ZN36_$LT$T$u20$as$u20$core..any..Any$GT$7type_id17hf38d30a50d909875E', symObjAddr: 0x1250, symBinAddr: 0x10000C040, symSize: 0x30 }
  - { offset: 0x31965, size: 0x8, addend: 0x0, symName: '__ZN36_$LT$T$u20$as$u20$core..any..Any$GT$7type_id17hfe9fbb449010764eE', symObjAddr: 0x1280, symBinAddr: 0x10000C070, symSize: 0x30 }
  - { offset: 0x3284F, size: 0x8, addend: 0x0, symName: '__ZN4core5array69_$LT$impl$u20$core..fmt..Debug$u20$for$u20$$u5b$T$u3b$$u20$N$u5d$$GT$3fmt17h374d7be30a463273E', symObjAddr: 0x300E0, symBinAddr: 0x100021980, symSize: 0xF0 }
  - { offset: 0x32AD9, size: 0x8, addend: 0x0, symName: '__ZN4core4cell4once17OnceCell$LT$T$GT$8try_init17h164ad122d3fdde11E', symObjAddr: 0x2C140, symBinAddr: 0x10004E570, symSize: 0x70 }
  - { offset: 0x32AF7, size: 0x8, addend: 0x0, symName: '__ZN4core4cell4once17OnceCell$LT$T$GT$8try_init17h164ad122d3fdde11E', symObjAddr: 0x2C140, symBinAddr: 0x10004E570, symSize: 0x70 }
  - { offset: 0x32B0C, size: 0x8, addend: 0x0, symName: '__ZN4core4cell4once17OnceCell$LT$T$GT$8try_init17h164ad122d3fdde11E', symObjAddr: 0x2C140, symBinAddr: 0x10004E570, symSize: 0x70 }
  - { offset: 0x32B20, size: 0x8, addend: 0x0, symName: '__ZN4core4cell4once17OnceCell$LT$T$GT$8try_init17h164ad122d3fdde11E', symObjAddr: 0x2C140, symBinAddr: 0x10004E570, symSize: 0x70 }
  - { offset: 0x32B77, size: 0x8, addend: 0x0, symName: '__ZN4core4cell4once17OnceCell$LT$T$GT$8try_init17h5eaa6e42f622c98bE', symObjAddr: 0x2C1B0, symBinAddr: 0x10004E5E0, symSize: 0x80 }
  - { offset: 0x32C2A, size: 0x8, addend: 0x0, symName: '__ZN4core4cell4once17OnceCell$LT$T$GT$8try_init17h8d9b52977b5ff1b0E', symObjAddr: 0x2C230, symBinAddr: 0x10004E660, symSize: 0x8B0 }
  - { offset: 0x337E7, size: 0x8, addend: 0x0, symName: '__ZN4core4cell4once17OnceCell$LT$T$GT$8try_init17h963735826f59da1dE', symObjAddr: 0x2CAE0, symBinAddr: 0x10004EF10, symSize: 0x110 }
  - { offset: 0x33A47, size: 0x8, addend: 0x0, symName: '__ZN4core4cell4once17OnceCell$LT$T$GT$8try_init17hbb32d690264a29aeE', symObjAddr: 0x2CBF0, symBinAddr: 0x10004F020, symSize: 0x25C0 }
  - { offset: 0x36BF3, size: 0x8, addend: 0x0, symName: '__ZN4core4cell4once17OnceCell$LT$T$GT$8try_init17he85fbe2a3a1ae7fbE', symObjAddr: 0x2F1B0, symBinAddr: 0x1000515E0, symSize: 0xF30 }
  - { offset: 0x387BC, size: 0x8, addend: 0x0, symName: __ZN4core5error5Error11description17ha6a6a08fd0b06ebcE, symObjAddr: 0x301F0, symBinAddr: 0x100021A70, symSize: 0x20 }
  - { offset: 0x387D6, size: 0x8, addend: 0x0, symName: __ZN4core5error5Error5cause17h5b5fd61b0af24bd8E, symObjAddr: 0x30210, symBinAddr: 0x100021A90, symSize: 0x10 }
  - { offset: 0x387F0, size: 0x8, addend: 0x0, symName: __ZN4core5error5Error7provide17hcf50e4f5391fe1b4E, symObjAddr: 0x30240, symBinAddr: 0x100021AA0, symSize: 0x10 }
  - { offset: 0x3880A, size: 0x8, addend: 0x0, symName: __ZN4core5error5Error7type_id17h1548aa106e60bc02E, symObjAddr: 0x30250, symBinAddr: 0x100021AB0, symSize: 0x30 }
  - { offset: 0x38840, size: 0x8, addend: 0x0, symName: __ZN4core9panicking13assert_failed17h65a30f1e9a91e300E, symObjAddr: 0x3AA61, symBinAddr: 0x100052511, symSize: 0x33 }
  - { offset: 0x3885C, size: 0x8, addend: 0x0, symName: __ZN4core9panicking13assert_failed17hd751ab4adab24333E, symObjAddr: 0x3AAF2, symBinAddr: 0x100052552, symSize: 0x3E }
  - { offset: 0x38941, size: 0x8, addend: 0x0, symName: __RNvCskdKJRKLKjqM_7___rustc10rust_panic, symObjAddr: 0x0, symBinAddr: 0x10004D8E0, symSize: 0x70 }
  - { offset: 0x38972, size: 0x8, addend: 0x0, symName: __RNvCskdKJRKLKjqM_7___rustc17___rust_drop_panic, symObjAddr: 0x1D0, symBinAddr: 0x10000BC60, symSize: 0xD0 }
  - { offset: 0x38BBD, size: 0x8, addend: 0x0, symName: __RNvCskdKJRKLKjqM_7___rustc17rust_begin_unwind, symObjAddr: 0x2A0, symBinAddr: 0x10000BD30, symSize: 0x30 }
  - { offset: 0x38C03, size: 0x8, addend: 0x0, symName: __RNvCskdKJRKLKjqM_7___rustc24___rust_foreign_exception, symObjAddr: 0x360, symBinAddr: 0x10000BDF0, symSize: 0xD0 }
  - { offset: 0x38ECC, size: 0x8, addend: 0x0, symName: __ZN3std9panicking11panic_count17is_zero_slow_path17hc9cf2ba853cb1a44E, symObjAddr: 0x26310, symBinAddr: 0x10004E450, symSize: 0x20 }
  - { offset: 0x38F7B, size: 0x8, addend: 0x0, symName: __ZN3std9panicking11panic_count8increase17hf57f6317579ad19bE, symObjAddr: 0x26370, symBinAddr: 0x10001E1C0, symSize: 0x40 }
  - { offset: 0x38F92, size: 0x8, addend: 0x0, symName: __ZN3std9panicking11panic_count8increase17hf57f6317579ad19bE, symObjAddr: 0x26370, symBinAddr: 0x10001E1C0, symSize: 0x40 }
  - { offset: 0x38FA7, size: 0x8, addend: 0x0, symName: __ZN3std9panicking11panic_count8increase17hf57f6317579ad19bE, symObjAddr: 0x26370, symBinAddr: 0x10001E1C0, symSize: 0x40 }
  - { offset: 0x3915D, size: 0x8, addend: 0x0, symName: __ZN3std9panicking12default_hook17hfd692237a6812b4aE, symObjAddr: 0x263EB, symBinAddr: 0x10001E20B, symSize: 0x12B }
  - { offset: 0x392F4, size: 0x8, addend: 0x0, symName: '__ZN3std9panicking12default_hook28_$u7b$$u7b$closure$u7d$$u7d$17h4c39689ecd8341bfE', symObjAddr: 0x26516, symBinAddr: 0x10001E336, symSize: 0x18A }
  - { offset: 0x394BB, size: 0x8, addend: 0x0, symName: '__ZN3std9panicking12default_hook28_$u7b$$u7b$closure$u7d$$u7d$28_$u7b$$u7b$closure$u7d$$u7d$17h141942b3ab6b1748E', symObjAddr: 0x266A0, symBinAddr: 0x10001E4C0, symSize: 0x380 }
  - { offset: 0x39BEB, size: 0x8, addend: 0x0, symName: __ZN3std9panicking13panic_handler19FormatStringPayload4fill17hd583736f0adc2b9eE, symObjAddr: 0x26A20, symBinAddr: 0x10001E840, symSize: 0xC0 }
  - { offset: 0x39D08, size: 0x8, addend: 0x0, symName: '__ZN3std9panicking13panic_handler28_$u7b$$u7b$closure$u7d$$u7d$17h0449b52d62cc4acdE', symObjAddr: 0x26AE0, symBinAddr: 0x10001E900, symSize: 0xD0 }
  - { offset: 0x39E64, size: 0x8, addend: 0x0, symName: '__ZN86_$LT$std..panicking..panic_handler..StaticStrPayload$u20$as$u20$core..fmt..Display$GT$3fmt17h611d737e25d39e04E', symObjAddr: 0x58C20, symBinAddr: 0x10003C9D0, symSize: 0x20 }
  - { offset: 0x39E85, size: 0x8, addend: 0x0, symName: '__ZN89_$LT$std..panicking..panic_handler..FormatStringPayload$u20$as$u20$core..fmt..Display$GT$3fmt17h2c418704e9a80b67E', symObjAddr: 0x59030, symBinAddr: 0x10003C9F0, symSize: 0x70 }
  - { offset: 0x39F79, size: 0x8, addend: 0x0, symName: '__ZN93_$LT$std..panicking..panic_handler..StaticStrPayload$u20$as$u20$core..panic..PanicPayload$GT$3get17h54b2dcb3b150a54cE', symObjAddr: 0x59900, symBinAddr: 0x10003CB80, symSize: 0x10 }
  - { offset: 0x39F94, size: 0x8, addend: 0x0, symName: '__ZN93_$LT$std..panicking..panic_handler..StaticStrPayload$u20$as$u20$core..panic..PanicPayload$GT$6as_str17h5a1a7c38fda21c29E', symObjAddr: 0x59910, symBinAddr: 0x10003CB90, symSize: 0x10 }
  - { offset: 0x39FAF, size: 0x8, addend: 0x0, symName: '__ZN93_$LT$std..panicking..panic_handler..StaticStrPayload$u20$as$u20$core..panic..PanicPayload$GT$8take_box17hdf5e7dcb860e8869E', symObjAddr: 0x59920, symBinAddr: 0x10003CBA0, symSize: 0x50 }
  - { offset: 0x3A02C, size: 0x8, addend: 0x0, symName: '__ZN96_$LT$std..panicking..panic_handler..FormatStringPayload$u20$as$u20$core..panic..PanicPayload$GT$3get17he619996a915dba5aE', symObjAddr: 0x5A150, symBinAddr: 0x10003D010, symSize: 0x20 }
  - { offset: 0x3A047, size: 0x8, addend: 0x0, symName: '__ZN96_$LT$std..panicking..panic_handler..FormatStringPayload$u20$as$u20$core..panic..PanicPayload$GT$8take_box17h1d68480d8bee4f17E', symObjAddr: 0x5A170, symBinAddr: 0x10003D030, symSize: 0xA0 }
  - { offset: 0x3A199, size: 0x8, addend: 0x0, symName: __ZN3std9panicking14payload_as_str17h7b83b1c48b989ea0E, symObjAddr: 0x26C50, symBinAddr: 0x10001E9D0, symSize: 0x7D }
  - { offset: 0x3A2DE, size: 0x8, addend: 0x0, symName: __ZN3std9panicking15panic_with_hook17he1033abc98626357E, symObjAddr: 0x26CCD, symBinAddr: 0x10001EA4D, symSize: 0x43D }
  - { offset: 0x3ABEF, size: 0x8, addend: 0x0, symName: '__ZN102_$LT$std..sys..process..unix..common..cstring_array..CStringArray$u20$as$u20$core..ops..drop..Drop$GT$4drop17he5543c9769e7fd90E', symObjAddr: 0x450, symBinAddr: 0x10000BEC0, symSize: 0x80 }
  - { offset: 0x3ADDE, size: 0x8, addend: 0x0, symName: '__ZN3std3sys7process4unix4unix58_$LT$impl$u20$std..sys..process..unix..common..Command$GT$5spawn17h46e68499be7c758aE', symObjAddr: 0x1C540, symBinAddr: 0x100019B60, symSize: 0xB40 }
  - { offset: 0x3BF16, size: 0x8, addend: 0x0, symName: '__ZN3std3sys7process4unix4unix58_$LT$impl$u20$std..sys..process..unix..common..Command$GT$7do_exec17hc77e9106886026bdE', symObjAddr: 0x1D080, symBinAddr: 0x10001A6A0, symSize: 0x300 }
  - { offset: 0x3C828, size: 0x8, addend: 0x0, symName: __ZN3std3sys7process4unix6common7Command11capture_env17hd300f48339f72723E, symObjAddr: 0x1D560, symBinAddr: 0x10001AB80, symSize: 0x1340 }
  - { offset: 0x3EC61, size: 0x8, addend: 0x0, symName: __ZN3std3sys7process4unix6common7Command3arg17h2290bede5cd0c511E, symObjAddr: 0x1E8A0, symBinAddr: 0x10001BEC0, symSize: 0xE0 }
  - { offset: 0x3EF79, size: 0x8, addend: 0x0, symName: __ZN3std3sys7process4unix6common7Command3new17h8c9a3e952b3e1597E, symObjAddr: 0x1EA50, symBinAddr: 0x10001BFA0, symSize: 0x2C0 }
  - { offset: 0x3F4F8, size: 0x8, addend: 0x0, symName: __ZN3std3sys7process4unix6common7Command8setup_io17h44d01f140f181a7bE, symObjAddr: 0x1EF40, symBinAddr: 0x10001C260, symSize: 0x2C0 }
  - { offset: 0x3F940, size: 0x8, addend: 0x0, symName: __ZN3std3sys7process4unix6common5Stdio14to_child_stdio17h71e11b2b2a755fcfE, symObjAddr: 0x1D410, symBinAddr: 0x10001AA30, symSize: 0x150 }
  - { offset: 0x3FB0E, size: 0x8, addend: 0x0, symName: __ZN3std3sys7process4unix4unix7Process4wait17h0b44ee4aeb74829cE, symObjAddr: 0x1D380, symBinAddr: 0x10001A9A0, symSize: 0x90 }
  - { offset: 0x3FCC5, size: 0x8, addend: 0x0, symName: __ZN3std3sys3pal6common14small_c_string24run_with_cstr_allocating17h5cc89072fa4ee439E, symObjAddr: 0x19EE0, symBinAddr: 0x10004DC00, symSize: 0x90 }
  - { offset: 0x3FE34, size: 0x8, addend: 0x0, symName: __ZN3std3sys3pal6common14small_c_string24run_with_cstr_allocating17hc579900339e23d19E, symObjAddr: 0x1A190, symBinAddr: 0x10004DC90, symSize: 0xB0 }
  - { offset: 0x40010, size: 0x8, addend: 0x0, symName: __ZN3std3sys3pal6common14small_c_string24run_with_cstr_allocating17he4af3d6cbd61cc52E, symObjAddr: 0x1A2F0, symBinAddr: 0x10004DD40, symSize: 0xB0 }
  - { offset: 0x40231, size: 0x8, addend: 0x0, symName: __ZN3std3sys3pal4unix14stack_overflow11thread_info16set_current_info17h9c07c7c3f5a792f2E, symObjAddr: 0x17860, symBinAddr: 0x100017730, symSize: 0xEA0 }
  - { offset: 0x41523, size: 0x8, addend: 0x0, symName: __ZN3std3sys3pal4unix14stack_overflow3imp12drop_handler17h10e97a4f0d9b05d8E, symObjAddr: 0x18700, symBinAddr: 0x1000185D0, symSize: 0x520 }
  - { offset: 0x41DA4, size: 0x8, addend: 0x0, symName: __ZN3std3sys3pal4unix14stack_overflow3imp12make_handler17h7ea0af42963bc428E, symObjAddr: 0x18C20, symBinAddr: 0x100018AF0, symSize: 0x290 }
  - { offset: 0x42177, size: 0x8, addend: 0x0, symName: __ZN3std3sys3pal4unix14stack_overflow3imp14signal_handler17ha77e123931615aa3E, symObjAddr: 0x18EB0, symBinAddr: 0x100018D80, symSize: 0x380 }
  - { offset: 0x42875, size: 0x8, addend: 0x0, symName: __ZN3std3sys3pal4unix4sync5mutex5Mutex4init17hc0cd42f50e15ec42E, symObjAddr: 0x199B0, symBinAddr: 0x1000196F0, symSize: 0x160 }
  - { offset: 0x42931, size: 0x8, addend: 0x0, symName: __ZN3std3sys3pal4unix4sync5mutex5Mutex4lock4fail17ha33bd018f471c78aE, symObjAddr: 0x19B30, symBinAddr: 0x10004DB00, symSize: 0x100 }
  - { offset: 0x42C59, size: 0x8, addend: 0x0, symName: __ZN3std3sys3pal4unix14abort_internal17h2d7ebcba1920d509E, symObjAddr: 0x17850, symBinAddr: 0x10004DAF0, symSize: 0x10 }
  - { offset: 0x42C74, size: 0x8, addend: 0x0, symName: __ZN3std3sys3pal4unix17decode_error_kind17h447b85d7b88dc1dcE, symObjAddr: 0x19230, symBinAddr: 0x100019100, symSize: 0x250 }
  - { offset: 0x42CC6, size: 0x8, addend: 0x0, symName: __ZN3std3sys3pal4unix4pipe5read217ha7a4612c351c75ceE, symObjAddr: 0x19610, symBinAddr: 0x100019350, symSize: 0x240 }
  - { offset: 0x431BC, size: 0x8, addend: 0x0, symName: __ZN3std3sys3pal4unix4pipe8AnonPipe5write17h03f32ade1d6c5c2bE, symObjAddr: 0x19850, symBinAddr: 0x100019590, symSize: 0x50 }
  - { offset: 0x432AC, size: 0x8, addend: 0x0, symName: __ZN3std3sys3pal4unix4pipe9anon_pipe17h32c3626b874411c6E, symObjAddr: 0x198A0, symBinAddr: 0x1000195E0, symSize: 0x110 }
  - { offset: 0x4366F, size: 0x8, addend: 0x0, symName: __ZN3std3sys12thread_local6native5eager7destroy17h52ab99797ee9e6c0E, symObjAddr: 0x122C0, symBinAddr: 0x100016D50, symSize: 0x20 }
  - { offset: 0x437F1, size: 0x8, addend: 0x0, symName: __ZN3std3sys12thread_local5guard5apple6enable9run_dtors17h38edc9b0697859adE, symObjAddr: 0x121D0, symBinAddr: 0x100016C60, symSize: 0xF0 }
  - { offset: 0x43C8F, size: 0x8, addend: 0x0, symName: __ZN3std3sys12thread_local11destructors4list8register17h1d9ec60dd9886de7E, symObjAddr: 0x120E0, symBinAddr: 0x100016B70, symSize: 0xF0 }
  - { offset: 0x43F6B, size: 0x8, addend: 0x0, symName: __ZN3std3sys3env4unix13env_read_lock17h6b780f3777072ce3E, symObjAddr: 0x165B0, symBinAddr: 0x100017390, symSize: 0x280 }
  - { offset: 0x44632, size: 0x8, addend: 0x0, symName: '__ZN3std3sys3env4unix6getenv28_$u7b$$u7b$closure$u7d$$u7d$17hbced0c0771611cafE', symObjAddr: 0x16830, symBinAddr: 0x100017610, symSize: 0x120 }
  - { offset: 0x4490D, size: 0x8, addend: 0x0, symName: __ZN3std3sys2fs4unix4File6open_c17he05b2f9a6cd0c0a5E, symObjAddr: 0x14FB0, symBinAddr: 0x100017010, symSize: 0x180 }
  - { offset: 0x44AC8, size: 0x8, addend: 0x0, symName: '__ZN65_$LT$std..sys..fs..unix..Dir$u20$as$u20$core..ops..drop..Drop$GT$4drop17h00566fb81437571eE', symObjAddr: 0x531C0, symBinAddr: 0x10003BCD0, symSize: 0xD0 }
  - { offset: 0x44BBE, size: 0x8, addend: 0x0, symName: __ZN3std3sys2fs8read_dir17he96197a45d71fcd1E, symObjAddr: 0x160D0, symBinAddr: 0x100017190, symSize: 0x200 }
  - { offset: 0x44FD0, size: 0x8, addend: 0x0, symName: __ZN3std3sys2fd4unix8FileDesc11read_to_end17h9d33e58bea107262E, symObjAddr: 0x137D0, symBinAddr: 0x100016D70, symSize: 0x2A0 }
  - { offset: 0x4547E, size: 0x8, addend: 0x0, symName: '__ZN64_$LT$std..sys..stdio..unix..Stderr$u20$as$u20$std..io..Write$GT$14write_vectored17h2dbb79a2e8dce948E', symObjAddr: 0x52F00, symBinAddr: 0x10003BC10, symSize: 0x50 }
  - { offset: 0x4554D, size: 0x8, addend: 0x0, symName: '__ZN64_$LT$std..sys..stdio..unix..Stderr$u20$as$u20$std..io..Write$GT$17is_write_vectored17h9d9019aa34dca71eE', symObjAddr: 0x52F50, symBinAddr: 0x10003BC60, symSize: 0x10 }
  - { offset: 0x45567, size: 0x8, addend: 0x0, symName: '__ZN64_$LT$std..sys..stdio..unix..Stderr$u20$as$u20$std..io..Write$GT$5flush17haca374bc2fb40ebcE', symObjAddr: 0x52F60, symBinAddr: 0x10003BC70, symSize: 0x10 }
  - { offset: 0x45581, size: 0x8, addend: 0x0, symName: '__ZN64_$LT$std..sys..stdio..unix..Stderr$u20$as$u20$std..io..Write$GT$5write17h4b5035fe5e5f2032E', symObjAddr: 0x52F70, symBinAddr: 0x10003BC80, symSize: 0x50 }
  - { offset: 0x456CE, size: 0x8, addend: 0x0, symName: '__ZN3std3sys4sync8once_box16OnceBox$LT$T$GT$10initialize17h6aa2ce4cfc78c157E', symObjAddr: 0x1B490, symBinAddr: 0x10004E090, symSize: 0x120 }
  - { offset: 0x45990, size: 0x8, addend: 0x0, symName: __ZN3std3sys4sync4once5queue4Once4call17h8e466067d86cbcb3E, symObjAddr: 0x1A7E0, symBinAddr: 0x10004DDF0, symSize: 0x210 }
  - { offset: 0x45C4A, size: 0x8, addend: 0x0, symName: '__ZN82_$LT$std..sys..sync..once..queue..WaiterQueue$u20$as$u20$core..ops..drop..Drop$GT$4drop17h17a27c240e6095eaE', symObjAddr: 0x586D0, symBinAddr: 0x10003C900, symSize: 0xD0 }
  - { offset: 0x45DFF, size: 0x8, addend: 0x0, symName: __ZN3std3sys4sync4once5queue4wait17hcf137e24f8369e0fE, symObjAddr: 0x1ABE0, symBinAddr: 0x100019850, symSize: 0x160 }
  - { offset: 0x462E2, size: 0x8, addend: 0x0, symName: __ZN3std3sys4sync6rwlock5queue6RwLock12unlock_queue17h2b38c5d2f4e14db6E, symObjAddr: 0x1AD60, symBinAddr: 0x1000199B0, symSize: 0x180 }
  - { offset: 0x46901, size: 0x8, addend: 0x0, symName: __ZN3std3sys4sync6rwlock5queue6RwLock16unlock_contended17h434533e27b51e3a9E, symObjAddr: 0x1B1F0, symBinAddr: 0x10004E000, symSize: 0x40 }
  - { offset: 0x469DD, size: 0x8, addend: 0x0, symName: __ZN3std3sys4sync6rwlock5queue6RwLock21read_unlock_contended17ha0f88a0fd7df0d66E, symObjAddr: 0x1B230, symBinAddr: 0x10004E040, symSize: 0x50 }
  - { offset: 0x46C35, size: 0x8, addend: 0x0, symName: __ZN3std3sys4sync6rwlock5queue9read_lock17h5e2659437ef5e87cE, symObjAddr: 0x1B280, symBinAddr: 0x100019B30, symSize: 0x30 }
  - { offset: 0x46C4E, size: 0x8, addend: 0x0, symName: '__ZN83_$LT$std..sys..sync..rwlock..queue..PanicGuard$u20$as$u20$core..ops..drop..Drop$GT$4drop17h9abf048048014633E', symObjAddr: 0x58950, symBinAddr: 0x1000526E0, symSize: 0x60 }
  - { offset: 0x46D13, size: 0x8, addend: 0x0, symName: '__ZN3std3sys11personality3gcc14find_eh_action28_$u7b$$u7b$closure$u7d$$u7d$17h71a716f7697f7c23E', symObjAddr: 0x120C0, symBinAddr: 0x100016B50, symSize: 0x10 }
  - { offset: 0x46D27, size: 0x8, addend: 0x0, symName: '__ZN3std3sys11personality3gcc14find_eh_action28_$u7b$$u7b$closure$u7d$$u7d$17hf3d297c424dd88bbE', symObjAddr: 0x120D0, symBinAddr: 0x100016B60, symSize: 0x10 }
  - { offset: 0x46D73, size: 0x8, addend: 0x0, symName: _rust_eh_personality, symObjAddr: 0x5D880, symBinAddr: 0x1000404A0, symSize: 0x640 }
  - { offset: 0x47862, size: 0x8, addend: 0x0, symName: '__ZN3std3sys9backtrace10_print_fmt28_$u7b$$u7b$closure$u7d$$u7d$17h240c89470c2fecd8E', symObjAddr: 0x1F310, symBinAddr: 0x10001C520, symSize: 0x130 }
  - { offset: 0x4794A, size: 0x8, addend: 0x0, symName: '__ZN3std3sys9backtrace10_print_fmt28_$u7b$$u7b$closure$u7d$$u7d$17h32646e4212c9eef0E', symObjAddr: 0x1F440, symBinAddr: 0x10001C650, symSize: 0x20 }
  - { offset: 0x4798B, size: 0x8, addend: 0x0, symName: '__ZN3std3sys9backtrace10_print_fmt28_$u7b$$u7b$closure$u7d$$u7d$28_$u7b$$u7b$closure$u7d$$u7d$17h9218d583d276298aE', symObjAddr: 0x1F460, symBinAddr: 0x10001C670, symSize: 0x2A0 }
  - { offset: 0x47B7E, size: 0x8, addend: 0x0, symName: __ZN3std3sys9backtrace13BacktraceLock5print17h5e73de0c808691a4E, symObjAddr: 0x1F700, symBinAddr: 0x10001C910, symSize: 0x60 }
  - { offset: 0x47BAF, size: 0x8, addend: 0x0, symName: __ZN3std3sys9backtrace15output_filename17ha87664c578f770efE, symObjAddr: 0x1F760, symBinAddr: 0x10001C970, symSize: 0x120 }
  - { offset: 0x47D1B, size: 0x8, addend: 0x0, symName: __ZN3std3sys9backtrace26__rust_end_short_backtrace17h3fc1fab9d4b6800aE, symObjAddr: 0x1F880, symBinAddr: 0x10001CA90, symSize: 0x10 }
  - { offset: 0x47D35, size: 0x8, addend: 0x0, symName: __ZN3std3sys9backtrace4lock17h2bb35fe2884a3a88E, symObjAddr: 0x1F8A0, symBinAddr: 0x10001CAA0, symSize: 0x80 }
  - { offset: 0x47E8B, size: 0x8, addend: 0x0, symName: '__ZN98_$LT$std..sys..backtrace..BacktraceLock..print..DisplayBacktrace$u20$as$u20$core..fmt..Display$GT$3fmt17hbb4f642dcc320b1dE', symObjAddr: 0x5A3B0, symBinAddr: 0x10003D0D0, symSize: 0x280 }
  - { offset: 0x483EA, size: 0x8, addend: 0x0, symName: __RNvCskdKJRKLKjqM_7___rustc11___rdl_alloc, symObjAddr: 0x70, symBinAddr: 0x10000BB10, symSize: 0x70 }
  - { offset: 0x48468, size: 0x8, addend: 0x0, symName: __RNvCskdKJRKLKjqM_7___rustc13___rdl_dealloc, symObjAddr: 0xF0, symBinAddr: 0x10000BB80, symSize: 0x10 }
  - { offset: 0x48499, size: 0x8, addend: 0x0, symName: __RNvCskdKJRKLKjqM_7___rustc13___rdl_realloc, symObjAddr: 0x100, symBinAddr: 0x10000BB90, symSize: 0xD0 }
  - { offset: 0x4857D, size: 0x8, addend: 0x0, symName: __RNvCskdKJRKLKjqM_7___rustc18___rdl_alloc_zeroed, symObjAddr: 0x2D0, symBinAddr: 0x10000BD60, symSize: 0x90 }
  - { offset: 0x48622, size: 0x8, addend: 0x0, symName: __RNvCskdKJRKLKjqM_7___rustc8___rg_oom, symObjAddr: 0x430, symBinAddr: 0x10004D950, symSize: 0x20 }
  - { offset: 0x4863E, size: 0x8, addend: 0x0, symName: __ZN3std5alloc24default_alloc_error_hook17h037631a9e9542696E, symObjAddr: 0x23AD0, symBinAddr: 0x10001DA80, symSize: 0x160 }
  - { offset: 0x488CB, size: 0x8, addend: 0x0, symName: __ZN3std5alloc8rust_oom17he6554ab5e3e4bfbfE, symObjAddr: 0x23C30, symBinAddr: 0x10004E270, symSize: 0x20 }
  - { offset: 0x48918, size: 0x8, addend: 0x0, symName: __ZN3std2rt15handle_rt_panic17hc19cb4ec1bf553a3E, symObjAddr: 0xF090, symBinAddr: 0x10004DA90, symSize: 0x60 }
  - { offset: 0x489A8, size: 0x8, addend: 0x0, symName: __ZN3std2rt19lang_start_internal17he54b1e510ff92df3E, symObjAddr: 0xF0F0, symBinAddr: 0x100015D20, symSize: 0x6C0 }
  - { offset: 0x495B4, size: 0x8, addend: 0x0, symName: __ZN3std2io5error14repr_bitpacked11decode_repr17ha713e1d9a867e6ffE, symObjAddr: 0xC820, symBinAddr: 0x100014DF0, symSize: 0x60 }
  - { offset: 0x49648, size: 0x8, addend: 0x0, symName: __ZN3std2io5error5Error3new17hca09cf106a8bb92bE, symObjAddr: 0xC960, symBinAddr: 0x100014E50, symSize: 0x120 }
  - { offset: 0x49A45, size: 0x8, addend: 0x0, symName: '__ZN3std2io5error83_$LT$impl$u20$core..fmt..Debug$u20$for$u20$std..io..error..repr_bitpacked..Repr$GT$3fmt17h0c2c47996b5c8151E', symObjAddr: 0xCB00, symBinAddr: 0x100014F70, symSize: 0x300 }
  - { offset: 0x49C9D, size: 0x8, addend: 0x0, symName: '__ZN58_$LT$std..io..error..Error$u20$as$u20$core..fmt..Debug$GT$3fmt17h4e87839884dfef9aE', symObjAddr: 0x3D080, symBinAddr: 0x10002CCE0, symSize: 0x10 }
  - { offset: 0x49CB7, size: 0x8, addend: 0x0, symName: '__ZN60_$LT$std..io..error..Error$u20$as$u20$core..fmt..Display$GT$3fmt17hb9b71bb9d61087ecE', symObjAddr: 0x4F030, symBinAddr: 0x10003B340, symSize: 0x280 }
  - { offset: 0x49EEA, size: 0x8, addend: 0x0, symName: '__ZN62_$LT$std..io..error..ErrorKind$u20$as$u20$core..fmt..Debug$GT$3fmt17hd88fc964aff56ab8E', symObjAddr: 0x51C40, symBinAddr: 0x10003BAC0, symSize: 0x30 }
  - { offset: 0x49F7D, size: 0x8, addend: 0x0, symName: '__ZN3std2io8buffered9bufwriter18BufWriter$LT$W$GT$14write_all_cold17h4cf021826987ea15E', symObjAddr: 0xDCD0, symBinAddr: 0x10004D970, symSize: 0x120 }
  - { offset: 0x4A1BC, size: 0x8, addend: 0x0, symName: '__ZN3std2io8buffered9bufwriter18BufWriter$LT$W$GT$9flush_buf17h223037aba0b50117E', symObjAddr: 0xDDF0, symBinAddr: 0x100015AE0, symSize: 0x240 }
  - { offset: 0x4A7D4, size: 0x8, addend: 0x0, symName: __ZN3std2io5Write18write_all_vectored17hc2fed901070b4d06E, symObjAddr: 0xC160, symBinAddr: 0x100014730, symSize: 0x1D0 }
  - { offset: 0x4AA19, size: 0x8, addend: 0x0, symName: __ZN3std2io5Write9write_all17ha0278d11ab8e55b7E, symObjAddr: 0xC330, symBinAddr: 0x100014900, symSize: 0xA0 }
  - { offset: 0x4AB09, size: 0x8, addend: 0x0, symName: __ZN3std2io5Write9write_fmt17h0157f34dfbceefe5E, symObjAddr: 0xC3D0, symBinAddr: 0x1000149A0, symSize: 0x170 }
  - { offset: 0x4ADE3, size: 0x8, addend: 0x0, symName: __ZN3std2io5Write9write_fmt17h24b62528f4d1168aE, symObjAddr: 0xC540, symBinAddr: 0x100014B10, symSize: 0x170 }
  - { offset: 0x4B0BD, size: 0x8, addend: 0x0, symName: __ZN3std2io5Write9write_fmt17h5e34a6300392fe22E, symObjAddr: 0xC6B0, symBinAddr: 0x100014C80, symSize: 0x170 }
  - { offset: 0x4B402, size: 0x8, addend: 0x0, symName: __ZN3std2io5stdio22try_set_output_capture17hb613035c20b6d0f1E, symObjAddr: 0xD2C0, symBinAddr: 0x100015660, symSize: 0xB0 }
  - { offset: 0x4B697, size: 0x8, addend: 0x0, symName: __ZN3std2io5stdio31print_to_buffer_if_capture_used17hde0c84d24b5006f1E, symObjAddr: 0xD440, symBinAddr: 0x100015710, symSize: 0x220 }
  - { offset: 0x4BDA9, size: 0x8, addend: 0x0, symName: __ZN3std2io5stdio6Stderr4lock17h9794f8e40f87e1fdE, symObjAddr: 0xD8C0, symBinAddr: 0x100015930, symSize: 0xC0 }
  - { offset: 0x4C078, size: 0x8, addend: 0x0, symName: __ZN3std2io5stdio6_print17he5f702afc7c35b8cE, symObjAddr: 0xD980, symBinAddr: 0x1000159F0, symSize: 0xF0 }
  - { offset: 0x4C1ED, size: 0x8, addend: 0x0, symName: '__ZN61_$LT$$RF$std..io..stdio..Stdout$u20$as$u20$std..io..Write$GT$9write_fmt17h0eee9ce97af14d23E', symObjAddr: 0x50590, symBinAddr: 0x10003B5C0, symSize: 0x1C0 }
  - { offset: 0x4C671, size: 0x8, addend: 0x0, symName: '__ZN61_$LT$std..io..stdio..StdoutLock$u20$as$u20$std..io..Write$GT$9write_all17h054337cb99b92b16E', symObjAddr: 0x51070, symBinAddr: 0x10003B780, symSize: 0x260 }
  - { offset: 0x4CCF3, size: 0x8, addend: 0x0, symName: '__ZN3std2io5impls74_$LT$impl$u20$std..io..Write$u20$for$u20$alloc..vec..Vec$LT$u8$C$A$GT$$GT$14write_vectored17h396066abfc006fcaE', symObjAddr: 0xCE00, symBinAddr: 0x100015270, symSize: 0x180 }
  - { offset: 0x4CEF5, size: 0x8, addend: 0x0, symName: '__ZN3std2io5impls74_$LT$impl$u20$std..io..Write$u20$for$u20$alloc..vec..Vec$LT$u8$C$A$GT$$GT$17is_write_vectored17h473fffb9382bf9c6E', symObjAddr: 0xCF80, symBinAddr: 0x1000153F0, symSize: 0x10 }
  - { offset: 0x4CF1E, size: 0x8, addend: 0x0, symName: '__ZN3std2io5impls74_$LT$impl$u20$std..io..Write$u20$for$u20$alloc..vec..Vec$LT$u8$C$A$GT$$GT$18write_all_vectored17hcfe81a52ebadbc0bE', symObjAddr: 0xCF90, symBinAddr: 0x100015400, symSize: 0x170 }
  - { offset: 0x4CF49, size: 0x8, addend: 0x0, symName: '__ZN3std2io5impls74_$LT$impl$u20$std..io..Write$u20$for$u20$alloc..vec..Vec$LT$u8$C$A$GT$$GT$18write_all_vectored17hcfe81a52ebadbc0bE', symObjAddr: 0xCF90, symBinAddr: 0x100015400, symSize: 0x170 }
  - { offset: 0x4CF5E, size: 0x8, addend: 0x0, symName: '__ZN3std2io5impls74_$LT$impl$u20$std..io..Write$u20$for$u20$alloc..vec..Vec$LT$u8$C$A$GT$$GT$18write_all_vectored17hcfe81a52ebadbc0bE', symObjAddr: 0xCF90, symBinAddr: 0x100015400, symSize: 0x170 }
  - { offset: 0x4CF73, size: 0x8, addend: 0x0, symName: '__ZN3std2io5impls74_$LT$impl$u20$std..io..Write$u20$for$u20$alloc..vec..Vec$LT$u8$C$A$GT$$GT$18write_all_vectored17hcfe81a52ebadbc0bE', symObjAddr: 0xCF90, symBinAddr: 0x100015400, symSize: 0x170 }
  - { offset: 0x4CF87, size: 0x8, addend: 0x0, symName: '__ZN3std2io5impls74_$LT$impl$u20$std..io..Write$u20$for$u20$alloc..vec..Vec$LT$u8$C$A$GT$$GT$18write_all_vectored17hcfe81a52ebadbc0bE', symObjAddr: 0xCF90, symBinAddr: 0x100015400, symSize: 0x170 }
  - { offset: 0x4CF9B, size: 0x8, addend: 0x0, symName: '__ZN3std2io5impls74_$LT$impl$u20$std..io..Write$u20$for$u20$alloc..vec..Vec$LT$u8$C$A$GT$$GT$18write_all_vectored17hcfe81a52ebadbc0bE', symObjAddr: 0xCF90, symBinAddr: 0x100015400, symSize: 0x170 }
  - { offset: 0x4D155, size: 0x8, addend: 0x0, symName: '__ZN3std2io5impls74_$LT$impl$u20$std..io..Write$u20$for$u20$alloc..vec..Vec$LT$u8$C$A$GT$$GT$5flush17hc83d241489517b1fE', symObjAddr: 0xD100, symBinAddr: 0x100015570, symSize: 0x10 }
  - { offset: 0x4D170, size: 0x8, addend: 0x0, symName: '__ZN3std2io5impls74_$LT$impl$u20$std..io..Write$u20$for$u20$alloc..vec..Vec$LT$u8$C$A$GT$$GT$5write17h0e0da068fc5acedeE', symObjAddr: 0xD110, symBinAddr: 0x100015580, symSize: 0x70 }
  - { offset: 0x4D256, size: 0x8, addend: 0x0, symName: '__ZN3std2io5impls74_$LT$impl$u20$std..io..Write$u20$for$u20$alloc..vec..Vec$LT$u8$C$A$GT$$GT$9write_all17h7bccd6e9d3e19e7fE', symObjAddr: 0xD180, symBinAddr: 0x1000155F0, symSize: 0x70 }
  - { offset: 0x4D35E, size: 0x8, addend: 0x0, symName: __ZN3std2io19default_read_to_end16small_probe_read17hed37023dae20d6feE, symObjAddr: 0xB720, symBinAddr: 0x100014640, symSize: 0xF0 }
  - { offset: 0x4D637, size: 0x8, addend: 0x0, symName: '__ZN81_$LT$std..io..default_write_fmt..Adapter$LT$T$GT$$u20$as$u20$core..fmt..Write$GT$9write_str17h1649a3991f2ea191E', symObjAddr: 0x57A70, symBinAddr: 0x10003C6D0, symSize: 0xD0 }
  - { offset: 0x4D743, size: 0x8, addend: 0x0, symName: '__ZN81_$LT$std..io..default_write_fmt..Adapter$LT$T$GT$$u20$as$u20$core..fmt..Write$GT$9write_str17h65288afb60bc4b22E', symObjAddr: 0x57C60, symBinAddr: 0x10003C7A0, symSize: 0x70 }
  - { offset: 0x4D830, size: 0x8, addend: 0x0, symName: '__ZN81_$LT$std..io..default_write_fmt..Adapter$LT$T$GT$$u20$as$u20$core..fmt..Write$GT$9write_str17h9ddd3fd8700ebc6eE', symObjAddr: 0x57CD0, symBinAddr: 0x10003C810, symSize: 0x50 }
  - { offset: 0x4D85A, size: 0x8, addend: 0x0, symName: '__ZN81_$LT$std..io..default_write_fmt..Adapter$LT$T$GT$$u20$as$u20$core..fmt..Write$GT$9write_str17hf60e64c5a7fc0711E', symObjAddr: 0x57D20, symBinAddr: 0x10003C860, symSize: 0xA0 }
  - { offset: 0x4DA9D, size: 0x8, addend: 0x0, symName: __ZN3std4path4Path13_strip_prefix17h57206cfe16291a76E, symObjAddr: 0x20BD0, symBinAddr: 0x10001D160, symSize: 0x3C0 }
  - { offset: 0x4DBAD, size: 0x8, addend: 0x0, symName: __ZN3std4path4Path5_join17hf8c84868fde1d922E, symObjAddr: 0x21720, symBinAddr: 0x10001D520, symSize: 0x190 }
  - { offset: 0x4E274, size: 0x8, addend: 0x0, symName: __ZN3std4path10Components15len_before_body17hc0c9c8c5c44312a5E, symObjAddr: 0x1F920, symBinAddr: 0x10001CB20, symSize: 0x170 }
  - { offset: 0x4E28B, size: 0x8, addend: 0x0, symName: __ZN3std4path10Components15len_before_body17hc0c9c8c5c44312a5E, symObjAddr: 0x1F920, symBinAddr: 0x10001CB20, symSize: 0x170 }
  - { offset: 0x4E2A0, size: 0x8, addend: 0x0, symName: __ZN3std4path10Components15len_before_body17hc0c9c8c5c44312a5E, symObjAddr: 0x1F920, symBinAddr: 0x10001CB20, symSize: 0x170 }
  - { offset: 0x4E478, size: 0x8, addend: 0x0, symName: __ZN3std4path10Components25parse_next_component_back17h39a0247b7cda8e0bE, symObjAddr: 0x1FA90, symBinAddr: 0x10001CC90, symSize: 0xF0 }
  - { offset: 0x4E617, size: 0x8, addend: 0x0, symName: __ZN3std4path10Components7as_path17h069c6a5a65b7ff44E, symObjAddr: 0x1FB80, symBinAddr: 0x10001CD80, symSize: 0x3E0 }
  - { offset: 0x4EA48, size: 0x8, addend: 0x0, symName: '__ZN61_$LT$std..path..Component$u20$as$u20$core..cmp..PartialEq$GT$2eq17h491fa3e2db060d13E', symObjAddr: 0x512F0, symBinAddr: 0x10003B9E0, symSize: 0xE0 }
  - { offset: 0x4EB02, size: 0x8, addend: 0x0, symName: '__ZN80_$LT$std..path..Components$u20$as$u20$core..iter..traits..iterator..Iterator$GT$4next17hee0b9dd08b602416E', symObjAddr: 0x57330, symBinAddr: 0x10003C2C0, symSize: 0x410 }
  - { offset: 0x4EEA3, size: 0x8, addend: 0x0, symName: '__ZN95_$LT$std..path..Components$u20$as$u20$core..iter..traits..double_ended..DoubleEndedIterator$GT$9next_back17h714e7cb7d2d85f84E', symObjAddr: 0x59CE0, symBinAddr: 0x10003CBF0, symSize: 0x420 }
  - { offset: 0x4F0AF, size: 0x8, addend: 0x0, symName: __ZN3std7process5abort17h0d4477327f66e8fbE, symObjAddr: 0x25400, symBinAddr: 0x10004E440, symSize: 0x10 }
  - { offset: 0x4F0CF, size: 0x8, addend: 0x0, symName: __ZN3std7process7Command6output17hff2e6d5f551a1910E, symObjAddr: 0x25550, symBinAddr: 0x10001DE70, symSize: 0x350 }
  - { offset: 0x4F67E, size: 0x8, addend: 0x0, symName: '__ZN118_$LT$std..thread..thread_name_string..ThreadNameString$u20$as$u20$core..convert..From$LT$alloc..string..String$GT$$GT$4from17h61e83cd51d9b6e6aE', symObjAddr: 0x10C0, symBinAddr: 0x10000BF40, symSize: 0x100 }
  - { offset: 0x4FA36, size: 0x8, addend: 0x0, symName: __ZN3std6thread7current12init_current17h90dce586534f49cdE, symObjAddr: 0x245B0, symBinAddr: 0x10004E290, symSize: 0x160 }
  - { offset: 0x4FD4E, size: 0x8, addend: 0x0, symName: __ZN3std6thread7current13current_os_id17h7dd262076b74b984E, symObjAddr: 0x24710, symBinAddr: 0x10001DDF0, symSize: 0x80 }
  - { offset: 0x4FF61, size: 0x8, addend: 0x0, symName: __ZN3std6thread6Thread3new17haba3f9a731f34843E, symObjAddr: 0x241F0, symBinAddr: 0x10001DCB0, symSize: 0x140 }
  - { offset: 0x502A8, size: 0x8, addend: 0x0, symName: __ZN3std6thread8ThreadId3new9exhausted17h406b0b054c541c40E, symObjAddr: 0x248A0, symBinAddr: 0x10004E3F0, symSize: 0x50 }
  - { offset: 0x50328, size: 0x8, addend: 0x0, symName: __ZN3std12backtrace_rs5print17BacktraceFrameFmt21print_raw_with_column17h124737e9f41c54b0E, symObjAddr: 0x12B0, symBinAddr: 0x10000C0A0, symSize: 0x560 }
  - { offset: 0x5051E, size: 0x8, addend: 0x0, symName: __ZN3std12backtrace_rs9backtrace9libunwind5trace8trace_fn17hc5d3caa7e26e2d87E, symObjAddr: 0x1810, symBinAddr: 0x10000C600, symSize: 0x50 }
  - { offset: 0x505D9, size: 0x8, addend: 0x0, symName: __ZN3std12backtrace_rs9symbolize5gimli4mmap17h12ebabe808a68383E, symObjAddr: 0x1860, symBinAddr: 0x10000C650, symSize: 0x210 }
  - { offset: 0x50AC6, size: 0x8, addend: 0x0, symName: __ZN3std12backtrace_rs9symbolize5gimli5macho11find_header17hde9f2a87e444cec9E, symObjAddr: 0x1A70, symBinAddr: 0x10000C860, symSize: 0x190 }
  - { offset: 0x511A4, size: 0x8, addend: 0x0, symName: __ZN3std12backtrace_rs9symbolize5gimli5macho6Object5parse17h400ac0874d941337E, symObjAddr: 0x1C00, symBinAddr: 0x10000C9F0, symSize: 0x1040 }
  - { offset: 0x530CB, size: 0x8, addend: 0x0, symName: __ZN3std12backtrace_rs9symbolize5gimli5macho6Object7section17hf53b9a42818e2c3dE, symObjAddr: 0x2C40, symBinAddr: 0x10000DA30, symSize: 0x180 }
  - { offset: 0x53505, size: 0x8, addend: 0x0, symName: __ZN3std12backtrace_rs9symbolize5gimli7Context11find_frames17h15418eb91b7e6263E, symObjAddr: 0x2DC0, symBinAddr: 0x10000DBB0, symSize: 0x3D0 }
  - { offset: 0x538E5, size: 0x8, addend: 0x0, symName: __ZN3std12backtrace_rs9symbolize5gimli7Context3new17hb329d27e4d696e6aE, symObjAddr: 0x3190, symBinAddr: 0x10000DF80, symSize: 0x3050 }
  - { offset: 0x57A43, size: 0x8, addend: 0x0, symName: __ZN3std12backtrace_rs9symbolize5gimli7resolve17h34165e1bf34eef53E, symObjAddr: 0x61E0, symBinAddr: 0x100010FD0, symSize: 0x3560 }
  - { offset: 0x5DACF, size: 0x8, addend: 0x0, symName: __ZN3std12backtrace_rs9symbolize6Symbol4name17hd612854ad8f0ffd0E, symObjAddr: 0x9780, symBinAddr: 0x100014530, symSize: 0x110 }
  - { offset: 0x5DC08, size: 0x8, addend: 0x0, symName: '__ZN79_$LT$std..backtrace_rs..symbolize..SymbolName$u20$as$u20$core..fmt..Display$GT$3fmt17hdc33297e1ed74ca2E', symObjAddr: 0x56AE0, symBinAddr: 0x10003C1E0, symSize: 0xE0 }
  - { offset: 0x5DF8C, size: 0x8, addend: 0x0, symName: '__ZN64_$LT$std..ffi..os_str..Display$u20$as$u20$core..fmt..Display$GT$3fmt17hc3b4edbdc1de5d2aE', symObjAddr: 0x52BC0, symBinAddr: 0x10003BB40, symSize: 0xD0 }
  - { offset: 0x5E011, size: 0x8, addend: 0x0, symName: '__ZN3std4sync6poison5mutex14Mutex$LT$T$GT$4lock17hc2ce4f843db9b8deE', symObjAddr: 0x23070, symBinAddr: 0x10001DA10, symSize: 0x70 }
  - { offset: 0x5E270, size: 0x8, addend: 0x0, symName: '__ZN3std4sync6poison4once4Once15call_once_force28_$u7b$$u7b$closure$u7d$$u7d$17h3fd27ef06f442f06E', symObjAddr: 0x22AF0, symBinAddr: 0x10001D6B0, symSize: 0x90 }
  - { offset: 0x5E327, size: 0x8, addend: 0x0, symName: '__ZN3std4sync6poison4once4Once15call_once_force28_$u7b$$u7b$closure$u7d$$u7d$17hcef2943343630694E', symObjAddr: 0x22D80, symBinAddr: 0x10001D740, symSize: 0x90 }
  - { offset: 0x5E484, size: 0x8, addend: 0x0, symName: '__ZN3std4sync6poison4once4Once9call_once28_$u7b$$u7b$closure$u7d$$u7d$17h5c617ced4614c08fE', symObjAddr: 0x22E30, symBinAddr: 0x10001D7D0, symSize: 0x240 }
  - { offset: 0x5EC27, size: 0x8, addend: 0x0, symName: '__ZN3std4sync9once_lock17OnceLock$LT$T$GT$10initialize17h9ad90c5bfd166a66E', symObjAddr: 0x23793, symBinAddr: 0x10004E1B3, symSize: 0x59 }
  - { offset: 0x5EC52, size: 0x8, addend: 0x0, symName: '__ZN3std4sync9once_lock17OnceLock$LT$T$GT$10initialize17h9ad90c5bfd166a66E', symObjAddr: 0x23793, symBinAddr: 0x10004E1B3, symSize: 0x59 }
  - { offset: 0x5EC66, size: 0x8, addend: 0x0, symName: '__ZN3std4sync9once_lock17OnceLock$LT$T$GT$10initialize17h9ad90c5bfd166a66E', symObjAddr: 0x23793, symBinAddr: 0x10004E1B3, symSize: 0x59 }
  - { offset: 0x5EC7A, size: 0x8, addend: 0x0, symName: '__ZN3std4sync9once_lock17OnceLock$LT$T$GT$10initialize17h9ad90c5bfd166a66E', symObjAddr: 0x23793, symBinAddr: 0x10004E1B3, symSize: 0x59 }
  - { offset: 0x5EC90, size: 0x8, addend: 0x0, symName: '__ZN3std4sync9once_lock17OnceLock$LT$T$GT$10initialize17hdc61a2003d8acd11E', symObjAddr: 0x23841, symBinAddr: 0x10004E211, symSize: 0x5F }
  - { offset: 0x5ECBB, size: 0x8, addend: 0x0, symName: '__ZN3std4sync9once_lock17OnceLock$LT$T$GT$10initialize17hdc61a2003d8acd11E', symObjAddr: 0x23841, symBinAddr: 0x10004E211, symSize: 0x5F }
  - { offset: 0x5ECCF, size: 0x8, addend: 0x0, symName: '__ZN3std4sync9once_lock17OnceLock$LT$T$GT$10initialize17hdc61a2003d8acd11E', symObjAddr: 0x23841, symBinAddr: 0x10004E211, symSize: 0x5F }
  - { offset: 0x5ECE3, size: 0x8, addend: 0x0, symName: '__ZN3std4sync9once_lock17OnceLock$LT$T$GT$10initialize17hdc61a2003d8acd11E', symObjAddr: 0x23841, symBinAddr: 0x10004E211, symSize: 0x5F }
  - { offset: 0x5EE65, size: 0x8, addend: 0x0, symName: __ZN3std5panic19get_backtrace_style17h4c7362303865842eE, symObjAddr: 0x23C60, symBinAddr: 0x10001DBE0, symSize: 0xD0 }
  - { offset: 0x5EE83, size: 0x8, addend: 0x0, symName: __ZN3std5panic19get_backtrace_style17h4c7362303865842eE, symObjAddr: 0x23C60, symBinAddr: 0x10001DBE0, symSize: 0xD0 }
  - { offset: 0x5EE98, size: 0x8, addend: 0x0, symName: __ZN3std5panic19get_backtrace_style17h4c7362303865842eE, symObjAddr: 0x23C60, symBinAddr: 0x10001DBE0, symSize: 0xD0 }
  - { offset: 0x5F105, size: 0x8, addend: 0x0, symName: __ZN3std3env11current_dir17h09876c9b4b89060dE, symObjAddr: 0xF800, symBinAddr: 0x1000163E0, symSize: 0x1C0 }
  - { offset: 0x5F534, size: 0x8, addend: 0x0, symName: __ZN3std3env7_var_os17ha90d6152c34619e1E, symObjAddr: 0xFB80, symBinAddr: 0x1000165A0, symSize: 0x170 }
  - { offset: 0x5F7F4, size: 0x8, addend: 0x0, symName: __ZN3std3env7vars_os17hc4844c317b828c1aE, symObjAddr: 0xFF30, symBinAddr: 0x100016710, symSize: 0x440 }
  - { offset: 0x60564, size: 0x8, addend: 0x0, symName: __ZN5alloc5alloc15exchange_malloc17hdc54b6ad35f557b1E, symObjAddr: 0x452D0, symBinAddr: 0x100031B70, symSize: 0x40 }
  - { offset: 0x617E6, size: 0x8, addend: 0x0, symName: '__ZN64_$LT$alloc..ffi..c_str..NulError$u20$as$u20$core..fmt..Debug$GT$3fmt17h42a8844572b8105bE', symObjAddr: 0x524F0, symBinAddr: 0x10003BAF0, symSize: 0x50 }
  - { offset: 0x6299A, size: 0x8, addend: 0x0, symName: '__ZN5alloc11collections5btree4node208Handle$LT$alloc..collections..btree..node..NodeRef$LT$alloc..collections..btree..node..marker..Mut$C$K$C$V$C$alloc..collections..btree..node..marker..Leaf$GT$$C$alloc..collections..btree..node..marker..KV$GT$5split17h2e0ddf5cd10d99d6E', symObjAddr: 0x40F70, symBinAddr: 0x10002E680, symSize: 0x1C0 }
  - { offset: 0x62D76, size: 0x8, addend: 0x0, symName: '__ZN5alloc11collections5btree4node208Handle$LT$alloc..collections..btree..node..NodeRef$LT$alloc..collections..btree..node..marker..Mut$C$K$C$V$C$alloc..collections..btree..node..marker..Leaf$GT$$C$alloc..collections..btree..node..marker..KV$GT$5split17hb1ffacf0e82edab8E', symObjAddr: 0x41330, symBinAddr: 0x10002E840, symSize: 0x1F0 }
  - { offset: 0x63228, size: 0x8, addend: 0x0, symName: '__ZN5alloc11collections5btree4node212Handle$LT$alloc..collections..btree..node..NodeRef$LT$alloc..collections..btree..node..marker..Mut$C$K$C$V$C$alloc..collections..btree..node..marker..Internal$GT$$C$alloc..collections..btree..node..marker..KV$GT$5split17h17c643d4c82620a0E', symObjAddr: 0x41820, symBinAddr: 0x10002EA30, symSize: 0x280 }
  - { offset: 0x63772, size: 0x8, addend: 0x0, symName: '__ZN5alloc11collections5btree4node212Handle$LT$alloc..collections..btree..node..NodeRef$LT$alloc..collections..btree..node..marker..Mut$C$K$C$V$C$alloc..collections..btree..node..marker..Internal$GT$$C$alloc..collections..btree..node..marker..KV$GT$5split17hce29b28e134d751bE', symObjAddr: 0x41AA0, symBinAddr: 0x10002ECB0, symSize: 0x2F0 }
  - { offset: 0x63E85, size: 0x8, addend: 0x0, symName: '__ZN5alloc11collections5btree6remove259_$LT$impl$u20$alloc..collections..btree..node..Handle$LT$alloc..collections..btree..node..NodeRef$LT$alloc..collections..btree..node..marker..Mut$C$K$C$V$C$alloc..collections..btree..node..marker..Leaf$GT$$C$alloc..collections..btree..node..marker..KV$GT$$GT$14remove_leaf_kv17h2a34ebe0da4333d8E', symObjAddr: 0x434D0, symBinAddr: 0x1000306E0, symSize: 0x8C0 }
  - { offset: 0x64AC6, size: 0x8, addend: 0x0, symName: '__ZN5alloc11collections5btree6remove259_$LT$impl$u20$alloc..collections..btree..node..Handle$LT$alloc..collections..btree..node..NodeRef$LT$alloc..collections..btree..node..marker..Mut$C$K$C$V$C$alloc..collections..btree..node..marker..Leaf$GT$$C$alloc..collections..btree..node..marker..KV$GT$$GT$14remove_leaf_kv17hc8882eb65a8263c2E', symObjAddr: 0x43D90, symBinAddr: 0x100030FA0, symSize: 0x900 }
  - { offset: 0x658C5, size: 0x8, addend: 0x0, symName: '__ZN5alloc11collections5btree4node29BalancingContext$LT$K$C$V$GT$15bulk_steal_left17h3b899cdacc6f7634E', symObjAddr: 0x41D90, symBinAddr: 0x10002EFA0, symSize: 0x400 }
  - { offset: 0x65D8B, size: 0x8, addend: 0x0, symName: '__ZN5alloc11collections5btree4node29BalancingContext$LT$K$C$V$GT$15bulk_steal_left17h66a91518f6da12fdE', symObjAddr: 0x42190, symBinAddr: 0x10002F3A0, symSize: 0x370 }
  - { offset: 0x6626F, size: 0x8, addend: 0x0, symName: '__ZN5alloc11collections5btree4node29BalancingContext$LT$K$C$V$GT$16bulk_steal_right17h4e21d715a5e05da5E', symObjAddr: 0x42500, symBinAddr: 0x10002F710, symSize: 0x3C0 }
  - { offset: 0x66889, size: 0x8, addend: 0x0, symName: '__ZN5alloc11collections5btree4node29BalancingContext$LT$K$C$V$GT$16bulk_steal_right17ha9d1e50b5a62421eE', symObjAddr: 0x428C0, symBinAddr: 0x10002FAD0, symSize: 0x440 }
  - { offset: 0x66E17, size: 0x8, addend: 0x0, symName: '__ZN5alloc11collections5btree4node29BalancingContext$LT$K$C$V$GT$8do_merge17h23068df04fc85f6cE', symObjAddr: 0x42D00, symBinAddr: 0x10002FF10, symSize: 0x400 }
  - { offset: 0x6736E, size: 0x8, addend: 0x0, symName: '__ZN5alloc11collections5btree4node29BalancingContext$LT$K$C$V$GT$8do_merge17h59e33ac8b4f1aedbE', symObjAddr: 0x43100, symBinAddr: 0x100030310, symSize: 0x3D0 }
  - { offset: 0x67BD1, size: 0x8, addend: 0x0, symName: '__ZN5alloc11collections5btree3map25BTreeMap$LT$K$C$V$C$A$GT$6insert17h573ce44374f5ebb6E', symObjAddr: 0x3E760, symBinAddr: 0x10002CCF0, symSize: 0xE50 }
  - { offset: 0x691B3, size: 0x8, addend: 0x0, symName: '__ZN5alloc11collections5btree3map25IntoIter$LT$K$C$V$C$A$GT$10dying_next17h0137cfdaf279346fE', symObjAddr: 0x40430, symBinAddr: 0x10002DB40, symSize: 0x3C0 }
  - { offset: 0x6951F, size: 0x8, addend: 0x0, symName: '__ZN5alloc11collections5btree3map25IntoIter$LT$K$C$V$C$A$GT$10dying_next17h74ba4dc90cd3bd84E', symObjAddr: 0x407F0, symBinAddr: 0x10002DF00, symSize: 0x3C0 }
  - { offset: 0x6988B, size: 0x8, addend: 0x0, symName: '__ZN5alloc11collections5btree3map25IntoIter$LT$K$C$V$C$A$GT$10dying_next17h786570e0d2d29ee1E', symObjAddr: 0x40BB0, symBinAddr: 0x10002E2C0, symSize: 0x3C0 }
  - { offset: 0x6A857, size: 0x8, addend: 0x0, symName: '__ZN5alloc7raw_vec19RawVec$LT$T$C$A$GT$8grow_one17h1578391f1dd2c7daE', symObjAddr: 0x45380, symBinAddr: 0x100031BB0, symSize: 0xC0 }
  - { offset: 0x6A96D, size: 0x8, addend: 0x0, symName: '__ZN5alloc7raw_vec19RawVec$LT$T$C$A$GT$8grow_one17h1a8e605a6c9c7a9cE', symObjAddr: 0x45440, symBinAddr: 0x100031C70, symSize: 0xC0 }
  - { offset: 0x6AA98, size: 0x8, addend: 0x0, symName: '__ZN5alloc7raw_vec19RawVec$LT$T$C$A$GT$8grow_one17h496d6c99f941dcd8E', symObjAddr: 0x45500, symBinAddr: 0x100031D30, symSize: 0xB0 }
  - { offset: 0x6ABAE, size: 0x8, addend: 0x0, symName: '__ZN5alloc7raw_vec19RawVec$LT$T$C$A$GT$8grow_one17h62d92001f5fd4088E', symObjAddr: 0x455B0, symBinAddr: 0x100031DE0, symSize: 0xC0 }
  - { offset: 0x6ACC4, size: 0x8, addend: 0x0, symName: '__ZN5alloc7raw_vec19RawVec$LT$T$C$A$GT$8grow_one17h882f0afd17fb4cf1E', symObjAddr: 0x45670, symBinAddr: 0x100031EA0, symSize: 0xC0 }
  - { offset: 0x6ADEF, size: 0x8, addend: 0x0, symName: '__ZN5alloc7raw_vec19RawVec$LT$T$C$A$GT$8grow_one17h9215a3a3eddacbe8E', symObjAddr: 0x45730, symBinAddr: 0x100031F60, symSize: 0xC0 }
  - { offset: 0x6AF05, size: 0x8, addend: 0x0, symName: '__ZN5alloc7raw_vec19RawVec$LT$T$C$A$GT$8grow_one17h944deff35e2917e9E', symObjAddr: 0x457F0, symBinAddr: 0x100032020, symSize: 0xC0 }
  - { offset: 0x6B030, size: 0x8, addend: 0x0, symName: '__ZN5alloc7raw_vec19RawVec$LT$T$C$A$GT$8grow_one17h9e141b6ec2b6b304E', symObjAddr: 0x458B0, symBinAddr: 0x1000320E0, symSize: 0xB0 }
  - { offset: 0x6B146, size: 0x8, addend: 0x0, symName: '__ZN5alloc7raw_vec19RawVec$LT$T$C$A$GT$8grow_one17haba969b9d90e429dE', symObjAddr: 0x45960, symBinAddr: 0x100032190, symSize: 0xC0 }
  - { offset: 0x6B271, size: 0x8, addend: 0x0, symName: '__ZN5alloc7raw_vec19RawVec$LT$T$C$A$GT$8grow_one17hea102eabff85231dE', symObjAddr: 0x45AD0, symBinAddr: 0x100032250, symSize: 0xB0 }
  - { offset: 0x6B387, size: 0x8, addend: 0x0, symName: '__ZN5alloc7raw_vec19RawVec$LT$T$C$A$GT$8grow_one17hf1b3041c36e8ca25E', symObjAddr: 0x45B80, symBinAddr: 0x100032300, symSize: 0xB0 }
  - { offset: 0x6B6FD, size: 0x8, addend: 0x0, symName: __ZN5alloc7raw_vec11finish_grow17h446b951c64c58a29E, symObjAddr: 0x45310, symBinAddr: 0x100052590, symSize: 0x70 }
  - { offset: 0x6B789, size: 0x8, addend: 0x0, symName: '__ZN5alloc7raw_vec20RawVecInner$LT$A$GT$7reserve21do_reserve_and_handle17ha31d691a92aa6984E', symObjAddr: 0x45C30, symBinAddr: 0x100052600, symSize: 0xE0 }
  - { offset: 0x6BA41, size: 0x8, addend: 0x0, symName: '__ZN58_$LT$alloc..string..String$u20$as$u20$core..fmt..Debug$GT$3fmt17hc75db25d6de527ebE', symObjAddr: 0x3CEA0, symBinAddr: 0x10002CB30, symSize: 0x20 }
  - { offset: 0x6BAFC, size: 0x8, addend: 0x0, symName: '__ZN58_$LT$alloc..string..String$u20$as$u20$core..fmt..Write$GT$10write_char17hba3be11e36d4a54fE', symObjAddr: 0x3CEC0, symBinAddr: 0x10002CB50, symSize: 0x120 }
  - { offset: 0x6BC82, size: 0x8, addend: 0x0, symName: '__ZN58_$LT$alloc..string..String$u20$as$u20$core..fmt..Write$GT$9write_str17h0e3a6c0844845614E', symObjAddr: 0x3CFE0, symBinAddr: 0x10002CC70, symSize: 0x70 }
  - { offset: 0x6BD7C, size: 0x8, addend: 0x0, symName: '__ZN60_$LT$alloc..string..String$u20$as$u20$core..fmt..Display$GT$3fmt17h3ce6768c6f20d89dE', symObjAddr: 0x4EC80, symBinAddr: 0x10003B320, symSize: 0x20 }
  - { offset: 0x6C227, size: 0x8, addend: 0x0, symName: '__ZN5alloc4sync16Arc$LT$T$C$A$GT$9drop_slow17h165e22aa5ecb5c14E', symObjAddr: 0x44F90, symBinAddr: 0x1000318A0, symSize: 0x90 }
  - { offset: 0x6C523, size: 0x8, addend: 0x0, symName: '__ZN5alloc4sync16Arc$LT$T$C$A$GT$9drop_slow17h1b88c69b37654d90E', symObjAddr: 0x45020, symBinAddr: 0x100031930, symSize: 0xA0 }
  - { offset: 0x6C72C, size: 0x8, addend: 0x0, symName: '__ZN5alloc4sync16Arc$LT$T$C$A$GT$9drop_slow17h38a2709360a70488E', symObjAddr: 0x450C0, symBinAddr: 0x1000319D0, symSize: 0x60 }
  - { offset: 0x6C8F4, size: 0x8, addend: 0x0, symName: '__ZN5alloc4sync16Arc$LT$T$C$A$GT$9drop_slow17h4fe547a59c8e5f5cE', symObjAddr: 0x45120, symBinAddr: 0x100031A30, symSize: 0x30 }
  - { offset: 0x6C9D5, size: 0x8, addend: 0x0, symName: '__ZN5alloc4sync16Arc$LT$T$C$A$GT$9drop_slow17h5dbc3385cf3806bdE', symObjAddr: 0x45150, symBinAddr: 0x100031A60, symSize: 0x70 }
  - { offset: 0x6CB7B, size: 0x8, addend: 0x0, symName: '__ZN5alloc4sync16Arc$LT$T$C$A$GT$9drop_slow17h6f3c55e925f13c23E', symObjAddr: 0x451C0, symBinAddr: 0x100031AD0, symSize: 0xA0 }
  - { offset: 0x6D74D, size: 0x8, addend: 0x0, symName: __ZN6object4read7archive13ArchiveMember5parse17hd3e51da29e5488c1E, symObjAddr: 0x53F80, symBinAddr: 0x10003BDA0, symSize: 0x350 }
  - { offset: 0x6DEA4, size: 0x8, addend: 0x0, symName: __ZN6object4read7archive23parse_bsd_extended_name17h1aeb333c92faa5e9E, symObjAddr: 0x542D0, symBinAddr: 0x10003C0F0, symSize: 0xB0 }
  - { offset: 0x6E2B8, size: 0x8, addend: 0x0, symName: '__ZN9addr2line4unit16ResUnit$LT$R$GT$25find_function_or_location28_$u7b$$u7b$closure$u7d$$u7d$17h74f8b46b09233272E', symObjAddr: 0x5B2C0, symBinAddr: 0x10003DFE0, symSize: 0x2F0 }
  - { offset: 0x6E65E, size: 0x8, addend: 0x0, symName: '__ZN9addr2line4unit16ResUnit$LT$R$GT$25find_function_or_location17h779b8cc8975ca827E', symObjAddr: 0x5AE20, symBinAddr: 0x10003DB40, symSize: 0x4A0 }
  - { offset: 0x6EB89, size: 0x8, addend: 0x0, symName: '__ZN9addr2line16Context$LT$R$GT$9find_unit17hafe5c4000e4dcc90E', symObjAddr: 0x5A630, symBinAddr: 0x10003D350, symSize: 0x150 }
  - { offset: 0x6ED6E, size: 0x8, addend: 0x0, symName: '__ZN9addr2line6lookup30LoopingLookup$LT$T$C$L$C$F$GT$10new_lookup17hcb3afea57a5db3abE', symObjAddr: 0x5B900, symBinAddr: 0x10003E620, symSize: 0x530 }
  - { offset: 0x6F296, size: 0x8, addend: 0x0, symName: __ZN9addr2line4line11render_file17h1c7a4084725a11a9E, symObjAddr: 0x5A780, symBinAddr: 0x10003D4A0, symSize: 0x6A0 }
  - { offset: 0x6FC2C, size: 0x8, addend: 0x0, symName: '__ZN9addr2line8function17Function$LT$R$GT$14parse_children17h1b46ddfba7fb182cE', symObjAddr: 0x5C240, symBinAddr: 0x10003EF60, symSize: 0x1390 }
  - { offset: 0x71248, size: 0x8, addend: 0x0, symName: __ZN9addr2line8function10name_entry17h5deb9017d935ead1E, symObjAddr: 0x5BE30, symBinAddr: 0x10003EB50, symSize: 0x410 }
  - { offset: 0x716A4, size: 0x8, addend: 0x0, symName: __ZN9addr2line8function9name_attr17hc5ba8693362fa215E, symObjAddr: 0x5D5D0, symBinAddr: 0x1000402F0, symSize: 0x1B0 }
  - { offset: 0x718C9, size: 0x8, addend: 0x0, symName: '__ZN9addr2line5frame18FrameIter$LT$R$GT$4next17h7dae5ed4e94f9885E', symObjAddr: 0x5B5B0, symBinAddr: 0x10003E2D0, symSize: 0x350 }
  - { offset: 0x7217C, size: 0x8, addend: 0x0, symName: '__ZN5gimli4read5dwarf14Dwarf$LT$R$GT$11attr_string17hc5d4d70dcc99f435E', symObjAddr: 0x4CCF0, symBinAddr: 0x100039390, symSize: 0x210 }
  - { offset: 0x72999, size: 0x8, addend: 0x0, symName: '__ZN5gimli4read5dwarf13Unit$LT$R$GT$3new17h575ffe3f9752d03fE', symObjAddr: 0x4A4A0, symBinAddr: 0x100036B40, symSize: 0x2850 }
  - { offset: 0x75F14, size: 0x8, addend: 0x0, symName: '__ZN5gimli4read7aranges30ArangeHeader$LT$R$C$Offset$GT$5parse17h9e159263f6fe8401E', symObjAddr: 0x4DA20, symBinAddr: 0x10003A0C0, symSize: 0x2A0 }
  - { offset: 0x76A17, size: 0x8, addend: 0x0, symName: '__ZN5gimli4read4unit18Attribute$LT$R$GT$5value17h523c462abedaae9bE', symObjAddr: 0x492D0, symBinAddr: 0x100035970, symSize: 0x7C0 }
  - { offset: 0x76E22, size: 0x8, addend: 0x0, symName: '__ZN90_$LT$gimli..read..unit..AttributeValue$LT$R$C$Offset$GT$$u20$as$u20$core..clone..Clone$GT$5clone17h098c211905b07158E', symObjAddr: 0x590A0, symBinAddr: 0x10003CA60, symSize: 0x120 }
  - { offset: 0x76E82, size: 0x8, addend: 0x0, symName: '__ZN5gimli4read4unit32AttributeValue$LT$R$C$Offset$GT$11udata_value17h684c5d824dd1bde2E', symObjAddr: 0x49DC0, symBinAddr: 0x100036460, symSize: 0x80 }
  - { offset: 0x76EDD, size: 0x8, addend: 0x0, symName: __ZN5gimli4read4unit15parse_attribute17h3d2d3a95c0efe23eE, symObjAddr: 0x47250, symBinAddr: 0x1000338F0, symSize: 0x1960 }
  - { offset: 0x7A278, size: 0x8, addend: 0x0, symName: __ZN5gimli4read4unit15skip_attributes17h92846bd14a53eed5E, symObjAddr: 0x48BB0, symBinAddr: 0x100035250, symSize: 0x720 }
  - { offset: 0x7AC46, size: 0x8, addend: 0x0, symName: '__ZN5gimli4read4unit22EntriesCursor$LT$R$GT$10next_entry17hd847dc3188d94e5bE', symObjAddr: 0x49A90, symBinAddr: 0x100036130, symSize: 0x330 }
  - { offset: 0x7B18D, size: 0x8, addend: 0x0, symName: '__ZN5gimli4read4unit33DebugInfoUnitHeadersIter$LT$R$GT$4next17hed0a8460df0391bfE', symObjAddr: 0x49E40, symBinAddr: 0x1000364E0, symSize: 0x660 }
  - { offset: 0x7C36A, size: 0x8, addend: 0x0, symName: __ZN5gimli4read6reader6Reader11read_offset17h5a1a189216526f37E, symObjAddr: 0x4D790, symBinAddr: 0x100039E30, symSize: 0xB0 }
  - { offset: 0x7C5A7, size: 0x8, addend: 0x0, symName: __ZN5gimli4read6reader6Reader12read_uleb12817hf97552d5eed3df2dE, symObjAddr: 0x4D840, symBinAddr: 0x100039EE0, symSize: 0xB0 }
  - { offset: 0x7C655, size: 0x8, addend: 0x0, symName: __ZN5gimli4read6reader6Reader17read_sized_offset17h97b79870f9951699E, symObjAddr: 0x4D8F0, symBinAddr: 0x100039F90, symSize: 0x130 }
  - { offset: 0x7CD25, size: 0x8, addend: 0x0, symName: '__ZN5gimli4read8rnglists20RngListIter$LT$R$GT$4next17h8b60fae141bf2d6cE', symObjAddr: 0x4DCC0, symBinAddr: 0x10003A360, symSize: 0xFC0 }
  - { offset: 0x7F3ED, size: 0x8, addend: 0x0, symName: '__ZN5gimli4read5index18UnitIndex$LT$R$GT$5parse17h95a74f9af645c1edE', symObjAddr: 0x4CF00, symBinAddr: 0x1000395A0, symSize: 0x890 }
  - { offset: 0x7F40A, size: 0x8, addend: 0x0, symName: '__ZN5gimli4read5index18UnitIndex$LT$R$GT$5parse17h95a74f9af645c1edE', symObjAddr: 0x4CF00, symBinAddr: 0x1000395A0, symSize: 0x890 }
  - { offset: 0x7F41E, size: 0x8, addend: 0x0, symName: '__ZN5gimli4read5index18UnitIndex$LT$R$GT$5parse17h95a74f9af645c1edE', symObjAddr: 0x4CF00, symBinAddr: 0x1000395A0, symSize: 0x890 }
  - { offset: 0x7FAE3, size: 0x8, addend: 0x0, symName: '__ZN5gimli4read4line27FileEntry$LT$R$C$Offset$GT$5parse17hd9bc2270faf33decE', symObjAddr: 0x46FF0, symBinAddr: 0x100033690, symSize: 0x260 }
  - { offset: 0x7FD2F, size: 0x8, addend: 0x0, symName: __ZN5gimli4read4line13parse_file_v517hd02b9988ac8f9c5bE, symObjAddr: 0x45D10, symBinAddr: 0x1000323B0, symSize: 0x350 }
  - { offset: 0x7FEA8, size: 0x8, addend: 0x0, symName: __ZN5gimli4read4line15FileEntryFormat5parse17h2a60ff0d29a79605E, symObjAddr: 0x46060, symBinAddr: 0x100032700, symSize: 0x3B0 }
  - { offset: 0x80642, size: 0x8, addend: 0x0, symName: __ZN5gimli4read4line15parse_attribute17h7d59469e6c7378d7E, symObjAddr: 0x46410, symBinAddr: 0x100032AB0, symSize: 0xAD0 }
  - { offset: 0x82047, size: 0x8, addend: 0x0, symName: __ZN5gimli4read4line18parse_directory_v517hb56c57b85d13b5daE, symObjAddr: 0x46EE0, symBinAddr: 0x100033580, symSize: 0x110 }
  - { offset: 0x822FB, size: 0x8, addend: 0x0, symName: __RNvCskdKJRKLKjqM_7___rustc18___rust_start_panic, symObjAddr: 0x0, symBinAddr: 0x100040AE0, symSize: 0xB0 }
  - { offset: 0x823D6, size: 0x8, addend: 0x0, symName: __ZN12panic_unwind3imp5panic17exception_cleanup17hb98a4cfa7a07ae95E, symObjAddr: 0x100, symBinAddr: 0x100040BE0, symSize: 0x20 }
  - { offset: 0x823F2, size: 0x8, addend: 0x0, symName: __RNvCskdKJRKLKjqM_7___rustc18___rust_start_panic, symObjAddr: 0x0, symBinAddr: 0x100040AE0, symSize: 0xB0 }
  - { offset: 0x8247C, size: 0x8, addend: 0x0, symName: __RNvCskdKJRKLKjqM_7___rustc20___rust_panic_cleanup, symObjAddr: 0xB0, symBinAddr: 0x100040B90, symSize: 0x50 }
  - { offset: 0x8251F, size: 0x8, addend: 0x0, symName: '__ZN4core3ptr49drop_in_place$LT$panic_unwind..imp..Exception$GT$17h0f7b2fc4f2fea7f1E', symObjAddr: 0x120, symBinAddr: 0x100040C00, symSize: 0x70 }
  - { offset: 0x82626, size: 0x8, addend: 0x0, symName: '__ZN4core3ptr74drop_in_place$LT$alloc..boxed..Box$LT$panic_unwind..imp..Exception$GT$$GT$17hcd43110ac76b9736E', symObjAddr: 0x190, symBinAddr: 0x100040C70, symSize: 0x89 }
  - { offset: 0x82A70, size: 0x8, addend: 0x0, symName: __ZN6memchr4arch6x86_646memchr10memchr_raw6detect17h2099730146b20b08E, symObjAddr: 0xF90, symBinAddr: 0x100041020, symSize: 0x1C0 }
  - { offset: 0x83025, size: 0x8, addend: 0x0, symName: __ZN6memchr4arch6x86_646memchr10memchr_raw9find_sse217ha1fdf339af5e94d5E, symObjAddr: 0x1150, symBinAddr: 0x1000411E0, symSize: 0x1B0 }
  - { offset: 0x835B0, size: 0x8, addend: 0x0, symName: __ZN6memchr4arch6x86_646memchr11memchr2_raw6detect17h84a70ada683e86a1E, symObjAddr: 0x1300, symBinAddr: 0x100041390, symSize: 0x1A0 }
  - { offset: 0x83C43, size: 0x8, addend: 0x0, symName: __ZN6memchr4arch6x86_646memchr11memchr2_raw9find_sse217hc70ae4e2a27bbbefE, symObjAddr: 0x14A0, symBinAddr: 0x100041530, symSize: 0x1A0 }
  - { offset: 0x844A7, size: 0x8, addend: 0x0, symName: '__ZN69_$LT$core..alloc..layout..LayoutError$u20$as$u20$core..fmt..Debug$GT$3fmt17hb904d59a11340822E', symObjAddr: 0x57F0, symBinAddr: 0x100048FE0, symSize: 0x20 }
  - { offset: 0x84730, size: 0x8, addend: 0x0, symName: __ZN5alloc5alloc18handle_alloc_error17h3762db9dd870b9a9E, symObjAddr: 0x35BA, symBinAddr: 0x1000527EA, symSize: 0x16 }
  - { offset: 0x849CD, size: 0x8, addend: 0x0, symName: __ZN5alloc7raw_vec11finish_grow17h3ef34721aec5e3b7E, symObjAddr: 0x52C0, symBinAddr: 0x100052800, symSize: 0x6E }
  - { offset: 0x84A42, size: 0x8, addend: 0x0, symName: __ZN5alloc7raw_vec12handle_error17h937a4fa340d4a4b8E, symObjAddr: 0x532E, symBinAddr: 0x10005286E, symSize: 0x22 }
  - { offset: 0x84A81, size: 0x8, addend: 0x0, symName: __ZN5alloc7raw_vec17capacity_overflow17hfafd9746150329d6E, symObjAddr: 0x5350, symBinAddr: 0x100052890, symSize: 0x40 }
  - { offset: 0x84ABA, size: 0x8, addend: 0x0, symName: '__ZN5alloc7raw_vec20RawVecInner$LT$A$GT$7reserve21do_reserve_and_handle17h05c0f4d79cdd84bfE', symObjAddr: 0x5430, symBinAddr: 0x1000528D0, symSize: 0xB0 }
  - { offset: 0x84C46, size: 0x8, addend: 0x0, symName: '__ZN254_$LT$alloc..boxed..convert..$LT$impl$u20$core..convert..From$LT$alloc..string..String$GT$$u20$for$u20$alloc..boxed..Box$LT$dyn$u20$core..error..Error$u2b$core..marker..Sync$u2b$core..marker..Send$GT$$GT$..from..StringError$u20$as$u20$core..fmt..Debug$GT$3fmt17hcf569323b84bf267E', symObjAddr: 0x140, symBinAddr: 0x100048B80, symSize: 0x20 }
  - { offset: 0x84D17, size: 0x8, addend: 0x0, symName: '__ZN256_$LT$alloc..boxed..convert..$LT$impl$u20$core..convert..From$LT$alloc..string..String$GT$$u20$for$u20$alloc..boxed..Box$LT$dyn$u20$core..error..Error$u2b$core..marker..Sync$u2b$core..marker..Send$GT$$GT$..from..StringError$u20$as$u20$core..fmt..Display$GT$3fmt17h1b1a69dfec465030E', symObjAddr: 0x160, symBinAddr: 0x100048BA0, symSize: 0x20 }
  - { offset: 0x84E0A, size: 0x8, addend: 0x0, symName: '__ZN100_$LT$alloc..ffi..c_str..CString$u20$as$u20$core..convert..From$LT$$RF$core..ffi..c_str..CStr$GT$$GT$4from17hc090e98bd546633bE', symObjAddr: 0xC0, symBinAddr: 0x100048B00, symSize: 0x80 }
  - { offset: 0x84F7A, size: 0x8, addend: 0x0, symName: __ZN5alloc3ffi5c_str7CString19_from_vec_unchecked17ha526334e500b1abdE, symObjAddr: 0xC50, symBinAddr: 0x100048BC0, symSize: 0x120 }
  - { offset: 0x852CA, size: 0x8, addend: 0x0, symName: __ZN5alloc3ffi5c_str7CString8from_raw17h143e54ce9e8a4932E, symObjAddr: 0xE20, symBinAddr: 0x100048CE0, symSize: 0x20 }
  - { offset: 0x85303, size: 0x8, addend: 0x0, symName: '__ZN72_$LT$$RF$str$u20$as$u20$alloc..ffi..c_str..CString..new..SpecNewImpl$GT$13spec_new_impl17h86c6e2e3ca147532E', symObjAddr: 0x5810, symBinAddr: 0x100049000, symSize: 0x120 }
  - { offset: 0x85719, size: 0x8, addend: 0x0, symName: __ZN5alloc6string6String15from_utf8_lossy17h0471d885b3e9b3ebE, symObjAddr: 0x4790, symBinAddr: 0x100048D70, symSize: 0x270 }
  - { offset: 0x85DC5, size: 0x8, addend: 0x0, symName: '__ZN98_$LT$alloc..string..String$u20$as$u20$core..convert..From$LT$alloc..borrow..Cow$LT$str$GT$$GT$$GT$4from17h1463175ae5508b78E', symObjAddr: 0x61F0, symBinAddr: 0x100049120, symSize: 0xAB }
  - { offset: 0x85FC5, size: 0x8, addend: 0x0, symName: __ZN5alloc4sync32arcinner_layout_for_value_layout17h6aceeaaa01c07cfaE, symObjAddr: 0x2690, symBinAddr: 0x100048D00, symSize: 0x70 }
  - { offset: 0x85FDC, size: 0x8, addend: 0x0, symName: __ZN5alloc4sync32arcinner_layout_for_value_layout17h6aceeaaa01c07cfaE, symObjAddr: 0x2690, symBinAddr: 0x100048D00, symSize: 0x70 }
  - { offset: 0x85FF1, size: 0x8, addend: 0x0, symName: __ZN5alloc4sync32arcinner_layout_for_value_layout17h6aceeaaa01c07cfaE, symObjAddr: 0x2690, symBinAddr: 0x100048D00, symSize: 0x70 }
  - { offset: 0x8611A, size: 0x8, addend: 0x0, symName: '__ZN71_$LT$core..ops..range..Range$LT$Idx$GT$$u20$as$u20$core..fmt..Debug$GT$3fmt17hc330239f60cc9eb3E', symObjAddr: 0x1F4B0, symBinAddr: 0x10004D6F0, symSize: 0x50 }
  - { offset: 0x86391, size: 0x8, addend: 0x0, symName: '__ZN4core4char7methods22_$LT$impl$u20$char$GT$16escape_debug_ext17hb449749641e3affeE', symObjAddr: 0x176B0, symBinAddr: 0x10004CB00, symSize: 0x2D0 }
  - { offset: 0x86589, size: 0x8, addend: 0x0, symName: __ZN4core4char7methods15encode_utf8_raw8do_panic7runtime17hb720cf973e12fcdfE, symObjAddr: 0x17590, symBinAddr: 0x100052A70, symSize: 0x90 }
  - { offset: 0x86737, size: 0x8, addend: 0x0, symName: __ZN4core3num22from_ascii_radix_panic8do_panic7runtime17hf55c31c541c87b43E, symObjAddr: 0xD980, symBinAddr: 0x100052990, symSize: 0x60 }
  - { offset: 0x8676A, size: 0x8, addend: 0x0, symName: __ZN4core3num22from_ascii_radix_panic17h56065ab58d046821E, symObjAddr: 0xD970, symBinAddr: 0x100052980, symSize: 0x10 }
  - { offset: 0x86A1B, size: 0x8, addend: 0x0, symName: __ZN4core6option13expect_failed17h1ec281f12b35982eE, symObjAddr: 0x18040, symBinAddr: 0x100052CE0, symSize: 0x60 }
  - { offset: 0x86A63, size: 0x8, addend: 0x0, symName: __ZN4core6option13unwrap_failed17hd0abc7d118070f58E, symObjAddr: 0x180A0, symBinAddr: 0x100052D40, symSize: 0x20 }
  - { offset: 0x86F6B, size: 0x8, addend: 0x0, symName: __ZN4core5slice5index16slice_index_fail8do_panic7runtime17h41282b038f05ddfaE, symObjAddr: 0x17D00, symBinAddr: 0x100052B90, symSize: 0x70 }
  - { offset: 0x86F9C, size: 0x8, addend: 0x0, symName: __ZN4core5slice5index16slice_index_fail8do_panic7runtime17haaf49c781c78a5c0E, symObjAddr: 0x17D70, symBinAddr: 0x100052C00, symSize: 0x70 }
  - { offset: 0x86FCD, size: 0x8, addend: 0x0, symName: __ZN4core5slice5index16slice_index_fail8do_panic7runtime17hae4da62edc07a39fE, symObjAddr: 0x17DE0, symBinAddr: 0x100052C70, symSize: 0x70 }
  - { offset: 0x87000, size: 0x8, addend: 0x0, symName: __ZN4core5slice5index16slice_index_fail17h1a065c4e1a1e0b41E, symObjAddr: 0x17CC0, symBinAddr: 0x100052B50, symSize: 0x40 }
  - { offset: 0x870AC, size: 0x8, addend: 0x0, symName: __ZN4core5slice6memchr14memchr_aligned17hbe324882bd8e8f20E, symObjAddr: 0x17E50, symBinAddr: 0x10004CE30, symSize: 0xE0 }
  - { offset: 0x871A6, size: 0x8, addend: 0x0, symName: __ZN4core5slice6memchr7memrchr17h3060eb51c807ecd7E, symObjAddr: 0x17F30, symBinAddr: 0x10004CF10, symSize: 0x110 }
  - { offset: 0x87396, size: 0x8, addend: 0x0, symName: __ZN4core5slice4sort6shared9smallsort22panic_on_ord_violation17hd9a4c3c4a8ebe09aE, symObjAddr: 0x17BA0, symBinAddr: 0x100052B00, symSize: 0x50 }
  - { offset: 0x873D3, size: 0x8, addend: 0x0, symName: __ZN4core5slice4sort6stable5drift11sqrt_approx17h5b54c8126d8482dbE, symObjAddr: 0x17BF0, symBinAddr: 0x10004CE00, symSize: 0x30 }
  - { offset: 0x874C8, size: 0x8, addend: 0x0, symName: __ZN4core3fmt9Formatter10debug_list17h9d2456a350d67ad8E, symObjAddr: 0xA1C0, symBinAddr: 0x10004AAA0, symSize: 0x40 }
  - { offset: 0x87508, size: 0x8, addend: 0x0, symName: __ZN4core3fmt9Formatter11debug_tuple17hdcc53271f394ac41E, symObjAddr: 0xA200, symBinAddr: 0x10004AAE0, symSize: 0x50 }
  - { offset: 0x8755D, size: 0x8, addend: 0x0, symName: __ZN4core3fmt9Formatter12debug_struct17h8c9b9889fabaa42eE, symObjAddr: 0xA250, symBinAddr: 0x10004AB30, symSize: 0x40 }
  - { offset: 0x875C6, size: 0x8, addend: 0x0, symName: __ZN4core3fmt9Formatter12pad_integral17h5b6fb6906b7fe010E, symObjAddr: 0xA2F0, symBinAddr: 0x10004ABD0, symSize: 0x4A0 }
  - { offset: 0x87855, size: 0x8, addend: 0x0, symName: __ZN4core3fmt9Formatter25debug_tuple_field1_finish17hc108d765633dc1f9E, symObjAddr: 0xACB0, symBinAddr: 0x10004B070, symSize: 0x140 }
  - { offset: 0x87A5D, size: 0x8, addend: 0x0, symName: __ZN4core3fmt9Formatter25debug_tuple_field2_finish17h3020954311064adeE, symObjAddr: 0xADF0, symBinAddr: 0x10004B1B0, symSize: 0x1A0 }
  - { offset: 0x87D55, size: 0x8, addend: 0x0, symName: __ZN4core3fmt9Formatter26debug_struct_field1_finish17h161bc6caec1550cdE, symObjAddr: 0xBA70, symBinAddr: 0x10004B350, symSize: 0xB0 }
  - { offset: 0x87E2C, size: 0x8, addend: 0x0, symName: __ZN4core3fmt9Formatter26debug_struct_field2_finish17h9392189e9ab00f59E, symObjAddr: 0xBB20, symBinAddr: 0x10004B400, symSize: 0xD0 }
  - { offset: 0x87F03, size: 0x8, addend: 0x0, symName: __ZN4core3fmt9Formatter3pad17h37b5dfd85e2b0428E, symObjAddr: 0xC000, symBinAddr: 0x10004B4D0, symSize: 0x3D0 }
  - { offset: 0x88175, size: 0x8, addend: 0x0, symName: __ZN4core3fmt9Formatter9write_str17h532155584af4b419E, symObjAddr: 0xC460, symBinAddr: 0x10004B8A0, symSize: 0x20 }
  - { offset: 0x881E5, size: 0x8, addend: 0x0, symName: __ZN4core3fmt8builders11DebugStruct5field17h99bfe0cd343e038aE, symObjAddr: 0x97F0, symBinAddr: 0x10004A750, symSize: 0x190 }
  - { offset: 0x883F9, size: 0x8, addend: 0x0, symName: __ZN4core3fmt8builders11DebugStruct6finish17h759eca09f088587cE, symObjAddr: 0x9980, symBinAddr: 0x10004A8E0, symSize: 0x60 }
  - { offset: 0x88521, size: 0x8, addend: 0x0, symName: __ZN4core3fmt8builders10DebugTuple5field17hcff3261d35d211e6E, symObjAddr: 0x9550, symBinAddr: 0x10004A590, symSize: 0x130 }
  - { offset: 0x8868F, size: 0x8, addend: 0x0, symName: __ZN4core3fmt8builders10DebugTuple6finish17hee865a46ed84494bE, symObjAddr: 0x9680, symBinAddr: 0x10004A6C0, symSize: 0x90 }
  - { offset: 0x887CA, size: 0x8, addend: 0x0, symName: __ZN4core3fmt8builders8DebugSet5entry17h9ad4bd41e6760f90E, symObjAddr: 0x9F60, symBinAddr: 0x10004A940, symSize: 0x120 }
  - { offset: 0x889AB, size: 0x8, addend: 0x0, symName: __ZN4core3fmt8builders9DebugList6finish17he5544af857123449E, symObjAddr: 0xA180, symBinAddr: 0x10004AA60, symSize: 0x40 }
  - { offset: 0x88A28, size: 0x8, addend: 0x0, symName: '__ZN68_$LT$core..fmt..builders..PadAdapter$u20$as$u20$core..fmt..Write$GT$10write_char17h8781eb8fef702588E', symObjAddr: 0x1E270, symBinAddr: 0x10004D410, symSize: 0x60 }
  - { offset: 0x88A51, size: 0x8, addend: 0x0, symName: '__ZN68_$LT$core..fmt..builders..PadAdapter$u20$as$u20$core..fmt..Write$GT$9write_str17h3ac9bf90fc6b2989E', symObjAddr: 0x1E2D0, symBinAddr: 0x10004D470, symSize: 0x280 }
  - { offset: 0x88CB3, size: 0x8, addend: 0x0, symName: '__ZN57_$LT$core..fmt..Formatter$u20$as$u20$core..fmt..Write$GT$10write_char17h4978b0c667a9d8b0E', symObjAddr: 0x1A5E0, symBinAddr: 0x10004D3B0, symSize: 0x20 }
  - { offset: 0x88CEF, size: 0x8, addend: 0x0, symName: '__ZN40_$LT$str$u20$as$u20$core..fmt..Debug$GT$3fmt17h3cbb4b7bcf7be3d7E', symObjAddr: 0x240, symBinAddr: 0x1000491D0, symSize: 0x3A0 }
  - { offset: 0x89152, size: 0x8, addend: 0x0, symName: '__ZN41_$LT$char$u20$as$u20$core..fmt..Debug$GT$3fmt17h4e11ed1b5452e387E', symObjAddr: 0x5E0, symBinAddr: 0x100049570, symSize: 0xA0 }
  - { offset: 0x8927B, size: 0x8, addend: 0x0, symName: '__ZN42_$LT$$RF$T$u20$as$u20$core..fmt..Debug$GT$3fmt17h0f40b67a922b1ec5E', symObjAddr: 0x680, symBinAddr: 0x100049610, symSize: 0x10 }
  - { offset: 0x89296, size: 0x8, addend: 0x0, symName: '__ZN42_$LT$$RF$T$u20$as$u20$core..fmt..Debug$GT$3fmt17h7680cd2a2d1e04fdE', symObjAddr: 0x6B0, symBinAddr: 0x100049620, symSize: 0x20 }
  - { offset: 0x892B8, size: 0x8, addend: 0x0, symName: '__ZN42_$LT$$RF$T$u20$as$u20$core..fmt..Debug$GT$3fmt17he2aa20ce460ddad7E', symObjAddr: 0x860, symBinAddr: 0x100049640, symSize: 0x10 }
  - { offset: 0x892E0, size: 0x8, addend: 0x0, symName: '__ZN42_$LT$str$u20$as$u20$core..fmt..Display$GT$3fmt17h83ec9ba80990d67aE', symObjAddr: 0x870, symBinAddr: 0x100049650, symSize: 0x20 }
  - { offset: 0x89308, size: 0x8, addend: 0x0, symName: '__ZN43_$LT$char$u20$as$u20$core..fmt..Display$GT$3fmt17ha887c9494bff9603E', symObjAddr: 0x8D0, symBinAddr: 0x100049670, symSize: 0xC0 }
  - { offset: 0x89377, size: 0x8, addend: 0x0, symName: '__ZN44_$LT$$RF$T$u20$as$u20$core..fmt..Display$GT$3fmt17h1fb02a4f1d7d14b9E', symObjAddr: 0x990, symBinAddr: 0x100049730, symSize: 0x20 }
  - { offset: 0x8944B, size: 0x8, addend: 0x0, symName: '__ZN4core3fmt3num3imp51_$LT$impl$u20$core..fmt..Display$u20$for$u20$u8$GT$3fmt17h1a13e7c6295dbb75E', symObjAddr: 0x2630, symBinAddr: 0x100049910, symSize: 0xA0 }
  - { offset: 0x89530, size: 0x8, addend: 0x0, symName: '__ZN4core3fmt3num3imp52_$LT$impl$u20$core..fmt..Display$u20$for$u20$i32$GT$3fmt17h4add2573f547cd42E', symObjAddr: 0x27D0, symBinAddr: 0x1000499B0, symSize: 0x120 }
  - { offset: 0x89650, size: 0x8, addend: 0x0, symName: '__ZN4core3fmt3num3imp52_$LT$impl$u20$core..fmt..Display$u20$for$u20$u32$GT$3fmt17haa57ce01fac3917eE', symObjAddr: 0x2B00, symBinAddr: 0x100049AD0, symSize: 0x110 }
  - { offset: 0x8975D, size: 0x8, addend: 0x0, symName: '__ZN4core3fmt3num3imp52_$LT$impl$u20$core..fmt..Display$u20$for$u20$u64$GT$3fmt17h8b8600c70b3a3ac8E', symObjAddr: 0x2C10, symBinAddr: 0x100049BE0, symSize: 0x110 }
  - { offset: 0x89898, size: 0x8, addend: 0x0, symName: '__ZN4core3fmt3num52_$LT$impl$u20$core..fmt..LowerHex$u20$for$u20$u8$GT$3fmt17h39a52b6e10cf70aeE', symObjAddr: 0x4AE0, symBinAddr: 0x10004A040, symSize: 0x70 }
  - { offset: 0x89929, size: 0x8, addend: 0x0, symName: '__ZN4core3fmt3num52_$LT$impl$u20$core..fmt..UpperHex$u20$for$u20$u8$GT$3fmt17h865b83e01c77f87fE', symObjAddr: 0x4BC0, symBinAddr: 0x10004A0B0, symSize: 0x70 }
  - { offset: 0x899CD, size: 0x8, addend: 0x0, symName: '__ZN4core3fmt3num53_$LT$impl$u20$core..fmt..UpperHex$u20$for$u20$u32$GT$3fmt17he24323287b2084c2E', symObjAddr: 0x5170, symBinAddr: 0x10004A270, symSize: 0x70 }
  - { offset: 0x89A5E, size: 0x8, addend: 0x0, symName: '__ZN4core3fmt3num53_$LT$impl$u20$core..fmt..LowerHex$u20$for$u20$u64$GT$3fmt17h3112ef8c0abad7d1E', symObjAddr: 0x4F40, symBinAddr: 0x10004A190, symSize: 0x70 }
  - { offset: 0x89AEF, size: 0x8, addend: 0x0, symName: '__ZN4core3fmt3num53_$LT$impl$u20$core..fmt..UpperHex$u20$for$u20$u64$GT$3fmt17hf363a6f2e4cad34eE', symObjAddr: 0x51E0, symBinAddr: 0x10004A2E0, symSize: 0x70 }
  - { offset: 0x89B73, size: 0x8, addend: 0x0, symName: '__ZN4core3fmt3num50_$LT$impl$u20$core..fmt..Debug$u20$for$u20$u64$GT$3fmt17h376bce9b57b8a762E', symObjAddr: 0x3E60, symBinAddr: 0x100049CF0, symSize: 0x1A0 }
  - { offset: 0x89D07, size: 0x8, addend: 0x0, symName: '__ZN4core3fmt3num52_$LT$impl$u20$core..fmt..Debug$u20$for$u20$usize$GT$3fmt17h4806199c82f902ceE', symObjAddr: 0x48C0, symBinAddr: 0x100049E90, symSize: 0x1B0 }
  - { offset: 0x89E88, size: 0x8, addend: 0x0, symName: '__ZN4core3fmt3num53_$LT$impl$u20$core..fmt..LowerHex$u20$for$u20$i32$GT$3fmt17hfee837de970427b1E', symObjAddr: 0x4D80, symBinAddr: 0x10004A120, symSize: 0x70 }
  - { offset: 0x89F2E, size: 0x8, addend: 0x0, symName: '__ZN4core3fmt3num53_$LT$impl$u20$core..fmt..UpperHex$u20$for$u20$i32$GT$3fmt17h26acf60f65152f77E', symObjAddr: 0x5020, symBinAddr: 0x10004A200, symSize: 0x70 }
  - { offset: 0x8A142, size: 0x8, addend: 0x0, symName: __ZN4core3fmt17pointer_fmt_inner17h97023b135e02a0e7E, symObjAddr: 0x1240, symBinAddr: 0x100049870, symSize: 0xA0 }
  - { offset: 0x8A233, size: 0x8, addend: 0x0, symName: __ZN4core3fmt5Write9write_fmt17h852655db2bea3a71E, symObjAddr: 0x6270, symBinAddr: 0x10004A350, symSize: 0x20 }
  - { offset: 0x8A2B2, size: 0x8, addend: 0x0, symName: __ZN4core3fmt5write17h32d512c5550f2c71E, symObjAddr: 0x9280, symBinAddr: 0x10004A370, symSize: 0x220 }
  - { offset: 0x8A460, size: 0x8, addend: 0x0, symName: __ZN4core3fmt9Formatter12pad_integral12write_prefix17he3bb54c358307d3fE, symObjAddr: 0xA290, symBinAddr: 0x10004AB70, symSize: 0x60 }
  - { offset: 0x8A4C8, size: 0x8, addend: 0x0, symName: '__ZN59_$LT$core..fmt..Arguments$u20$as$u20$core..fmt..Display$GT$3fmt17hfd1b80e04662b19aE', symObjAddr: 0x1B480, symBinAddr: 0x10004D3D0, symSize: 0x20 }
  - { offset: 0x8A5EB, size: 0x8, addend: 0x0, symName: __ZN4core6result13unwrap_failed17h5b5681f5bd639151E, symObjAddr: 0x180C0, symBinAddr: 0x100052D60, symSize: 0x80 }
  - { offset: 0x8A80D, size: 0x8, addend: 0x0, symName: __ZN4core3str5count14do_count_chars17hc493e781e0338f55E, symObjAddr: 0x16370, symBinAddr: 0x10004BC60, symSize: 0x5A0 }
  - { offset: 0x8AC55, size: 0x8, addend: 0x0, symName: __ZN4core3str5count23char_count_general_case17h45b75eff409d0732E, symObjAddr: 0x16910, symBinAddr: 0x10004C200, symSize: 0xB0 }
  - { offset: 0x8ACA9, size: 0x8, addend: 0x0, symName: __ZN4core3str5count23char_count_general_case17h45b75eff409d0732E, symObjAddr: 0x16910, symBinAddr: 0x10004C200, symSize: 0xB0 }
  - { offset: 0x8AD26, size: 0x8, addend: 0x0, symName: __ZN4core3str16slice_error_fail17h7ebf3d4aa8bf503fE, symObjAddr: 0x15DF0, symBinAddr: 0x1000529F0, symSize: 0x10 }
  - { offset: 0x8AD40, size: 0x8, addend: 0x0, symName: __ZN4core3str19slice_error_fail_rt17hfa55243860877ddbE, symObjAddr: 0x15E40, symBinAddr: 0x10004B8C0, symSize: 0x3A0 }
  - { offset: 0x8AF27, size: 0x8, addend: 0x0, symName: __ZN4core3str7pattern11StrSearcher3new17hfab9aab88f91478aE, symObjAddr: 0x16A00, symBinAddr: 0x10004C2B0, symSize: 0x640 }
  - { offset: 0x8B1E7, size: 0x8, addend: 0x0, symName: __ZN4core3str8converts9from_utf817hab685de2f5c40023E, symObjAddr: 0x17250, symBinAddr: 0x10004C8F0, symSize: 0x210 }
  - { offset: 0x8B255, size: 0x8, addend: 0x0, symName: '__ZN87_$LT$core..str..lossy..Utf8Chunks$u20$as$u20$core..iter..traits..iterator..Iterator$GT$4next17hc6bf0146e235ca7cE', symObjAddr: 0x217F0, symBinAddr: 0x10004D740, symSize: 0x1A0 }
  - { offset: 0x8B469, size: 0x8, addend: 0x0, symName: __ZN4core3ffi5c_str4CStr19from_bytes_with_nul17h663354f457718412E, symObjAddr: 0xFF0, symBinAddr: 0x100049750, symSize: 0x120 }
  - { offset: 0x8B57F, size: 0x8, addend: 0x0, symName: __ZN4core4cell22panic_already_borrowed8do_panic7runtime17hb02334c284ba6668E, symObjAddr: 0x17470, symBinAddr: 0x100052A10, symSize: 0x60 }
  - { offset: 0x8B5B2, size: 0x8, addend: 0x0, symName: __ZN4core4cell22panic_already_borrowed17h380a7ae12b05c21bE, symObjAddr: 0x17460, symBinAddr: 0x100052A00, symSize: 0x10 }
  - { offset: 0x8B5E7, size: 0x8, addend: 0x0, symName: '__ZN65_$LT$core..cell..BorrowMutError$u20$as$u20$core..fmt..Display$GT$3fmt17hbdc0278247eb0cacE', symObjAddr: 0x1C610, symBinAddr: 0x10004D3F0, symSize: 0x20 }
  - { offset: 0x8B637, size: 0x8, addend: 0x0, symName: __ZN4core7unicode12unicode_data15grapheme_extend11lookup_slow17hdcf8fe3bcaa288d6E, symObjAddr: 0x185E0, symBinAddr: 0x10004D020, symSize: 0x100 }
  - { offset: 0x8B852, size: 0x8, addend: 0x0, symName: __ZN4core7unicode9printable12is_printable17hc67588a861ee36a9E, symObjAddr: 0x18AB0, symBinAddr: 0x10004D120, symSize: 0x290 }
  - { offset: 0x8BB83, size: 0x8, addend: 0x0, symName: __ZN4core5alloc6layout6Layout19is_size_align_valid17h9b309ba4c67ddf6eE, symObjAddr: 0x17A30, symBinAddr: 0x10004CDD0, symSize: 0x30 }
  - { offset: 0x8BBCD, size: 0x8, addend: 0x0, symName: __ZN4core9panicking11panic_const23panic_const_div_by_zero17h1817bf4a5c63dcf1E, symObjAddr: 0x18D40, symBinAddr: 0x100052DE0, symSize: 0x40 }
  - { offset: 0x8BBFC, size: 0x8, addend: 0x0, symName: __ZN4core9panicking11panic_const23panic_const_rem_by_zero17h66d921d73263a198E, symObjAddr: 0x18DC0, symBinAddr: 0x100052E20, symSize: 0x40 }
  - { offset: 0x8BC2C, size: 0x8, addend: 0x0, symName: __ZN4core9panicking13assert_failed17haff998095acd4f8eE, symObjAddr: 0x192EE, symBinAddr: 0x100052E6E, symSize: 0x2F }
  - { offset: 0x8BC47, size: 0x8, addend: 0x0, symName: __ZN4core9panicking13assert_failed17hf790c8989ead8b5cE, symObjAddr: 0x1931D, symBinAddr: 0x100052E9D, symSize: 0x33 }
  - { offset: 0x8BC62, size: 0x8, addend: 0x0, symName: __ZN4core9panicking14panic_nounwind17h4e71c9dba73fe19eE, symObjAddr: 0x19350, symBinAddr: 0x100052ED0, symSize: 0x50 }
  - { offset: 0x8BC91, size: 0x8, addend: 0x0, symName: __ZN4core9panicking16panic_in_cleanup17h278dcedb7b834eecE, symObjAddr: 0x19418, symBinAddr: 0x100052F28, symSize: 0x13 }
  - { offset: 0x8BCAC, size: 0x8, addend: 0x0, symName: __ZN4core9panicking18panic_bounds_check17hd6c879668b498650E, symObjAddr: 0x1942B, symBinAddr: 0x100052F3B, symSize: 0x65 }
  - { offset: 0x8BCEB, size: 0x8, addend: 0x0, symName: __ZN4core9panicking18panic_nounwind_fmt17h13cf4419fe26bc7eE, symObjAddr: 0x19490, symBinAddr: 0x100052FA0, symSize: 0x5B }
  - { offset: 0x8BD30, size: 0x8, addend: 0x0, symName: __ZN4core9panicking19assert_failed_inner17h4305f0dee9388e3cE, symObjAddr: 0x194EB, symBinAddr: 0x100052FFB, symSize: 0x127 }
  - { offset: 0x8BD6A, size: 0x8, addend: 0x0, symName: __ZN4core9panicking19panic_cannot_unwind17ha66eab6f79487262E, symObjAddr: 0x19612, symBinAddr: 0x100053122, symSize: 0x1E }
  - { offset: 0x8BD85, size: 0x8, addend: 0x0, symName: __ZN4core9panicking26panic_nounwind_nobacktrace17hb4fbf937932f35e4E, symObjAddr: 0x19630, symBinAddr: 0x100053140, symSize: 0x4D }
  - { offset: 0x8BDB4, size: 0x8, addend: 0x0, symName: __ZN4core9panicking5panic17hea69a7d4c28c810cE, symObjAddr: 0x19780, symBinAddr: 0x100053190, symSize: 0x50 }
  - { offset: 0x8BDE3, size: 0x8, addend: 0x0, symName: __ZN4core9panicking9panic_fmt17h46fb0d6076d2bd77E, symObjAddr: 0x197D0, symBinAddr: 0x1000531E0, symSize: 0x20 }
...
