---
triple:          'x86_64-apple-darwin'
binary-path:     '/Users/kema/git/rust-serv/target/debug/deps/libpaste-343553fc10e890a0.dylib'
relocations:
  - { offset: 0x1E, size: 0x8, addend: 0x0, symName: __RINvMsi_NtCslJiobkLta79_5alloc3vecINtB6_3VechE14extend_trustedINtNtNtNtCsieiGu2EXtoJ_4core4iter8adapters3map3MapINtNtNtB17_5slice4iter4IterhENCNvNtB8_3str13replace_ascii0EECs25VvWdXQPOU_5paste, symObjAddr: 0x0, symBinAddr: 0xBC0, symSize: 0x1C0 }
  - { offset: 0x40, size: 0x8, addend: 0x0, symName: ___rustc_proc_macro_decls_1868a98167e1f892__, symObjAddr: 0x52D0, symBinAddr: 0x80620, symSize: 0x0 }
  - { offset: 0x8E, size: 0x8, addend: 0x0, symName: __RNvXs_NvCs25VvWdXQPOU_5paste29is_single_interpolation_groupNtB4_5StateNtNtCsieiGu2EXtoJ_4core3cmp9PartialEq2eqB6_, symObjAddr: 0x43B0, symBinAddr: 0x4F70, symSize: 0x30 }
  - { offset: 0x138, size: 0x8, addend: 0x0, symName: __RNCNvCs25VvWdXQPOU_5paste16pasted_to_tokens0B3_, symObjAddr: 0x270, symBinAddr: 0xE30, symSize: 0x30 }
  - { offset: 0x171, size: 0x8, addend: 0x0, symName: __RNCNvCs25VvWdXQPOU_5paste16pasted_to_tokenss0_0B3_, symObjAddr: 0x2A0, symBinAddr: 0xE60, symSize: 0x50 }
  - { offset: 0x1B4, size: 0x8, addend: 0x0, symName: __RNCNvCs25VvWdXQPOU_5paste16pasted_to_tokenss_0B3_, symObjAddr: 0x2F0, symBinAddr: 0xEB0, symSize: 0x50 }
  - { offset: 0x1EC, size: 0x8, addend: 0x0, symName: __RNvCs25VvWdXQPOU_5paste16pasted_to_tokens, symObjAddr: 0x340, symBinAddr: 0xF00, symSize: 0x7F0 }
  - { offset: 0x351, size: 0x8, addend: 0x0, symName: __RNvCs25VvWdXQPOU_5paste18is_paste_operation, symObjAddr: 0xB30, symBinAddr: 0x16F0, symSize: 0x290 }
  - { offset: 0x3DC, size: 0x8, addend: 0x0, symName: __RNvCs25VvWdXQPOU_5paste25parse_bracket_as_segments, symObjAddr: 0xDC0, symBinAddr: 0x1980, symSize: 0xE00 }
  - { offset: 0x56E, size: 0x8, addend: 0x0, symName: __RNvCs25VvWdXQPOU_5paste29is_single_interpolation_group, symObjAddr: 0x1BC0, symBinAddr: 0x2780, symSize: 0x4B0 }
  - { offset: 0x66D, size: 0x8, addend: 0x0, symName: __RNvCs25VvWdXQPOU_5paste4expr, symObjAddr: 0x2070, symBinAddr: 0x2C30, symSize: 0x20 }
  - { offset: 0x699, size: 0x8, addend: 0x0, symName: __RNvCs25VvWdXQPOU_5paste4item, symObjAddr: 0x2090, symBinAddr: 0x2C50, symSize: 0x20 }
  - { offset: 0x6C5, size: 0x8, addend: 0x0, symName: __RNvCs25VvWdXQPOU_5paste5paste, symObjAddr: 0x20B0, symBinAddr: 0x2C70, symSize: 0x170 }
  - { offset: 0x74F, size: 0x8, addend: 0x0, symName: __RNvCs25VvWdXQPOU_5paste6expand, symObjAddr: 0x2220, symBinAddr: 0x2DE0, symSize: 0x1400 }
  - { offset: 0xB50, size: 0x8, addend: 0x0, symName: __RNvXs_Cs25VvWdXQPOU_5pasteNtB4_10LookbehindNtNtCsieiGu2EXtoJ_4core3cmp9PartialEq2eqB4_, symObjAddr: 0x41A0, symBinAddr: 0x4D60, symSize: 0x30 }
  - { offset: 0x2C8C, size: 0x8, addend: 0x0, symName: __RNvXs3_NtNtCsieiGu2EXtoJ_4core3str7patternNCNvCs25VvWdXQPOU_5paste16pasted_to_tokens0NtB5_11MultiCharEq7matchesBI_, symObjAddr: 0x4160, symBinAddr: 0x4D20, symSize: 0x20 }
  - { offset: 0x2CD8, size: 0x8, addend: 0x0, symName: __RNvXsr_NtNtCsieiGu2EXtoJ_4core3str7patternNCNvCs25VvWdXQPOU_5paste16pasted_to_tokens0NtB5_7Pattern12is_prefix_ofBI_, symObjAddr: 0x48C0, symBinAddr: 0x5480, symSize: 0x20 }
  - { offset: 0x3885, size: 0x8, addend: 0x0, symName: __RINvXsd_NtCslJiobkLta79_5alloc3vecINtB6_3VechEINtNtNtNtCsieiGu2EXtoJ_4core4iter6traits7collect12FromIteratorhE9from_iterINtNtNtBP_8adapters3map3MapINtNtNtBR_5slice4iter4IterhENCNvNtB8_3str13replace_ascii0EECs25VvWdXQPOU_5paste, symObjAddr: 0x1C0, symBinAddr: 0xD80, symSize: 0x40 }
  - { offset: 0x38CC, size: 0x8, addend: 0x0, symName: __RINvXsh_NtCslJiobkLta79_5alloc3vecINtB6_3VecNtNtCs25VvWdXQPOU_5paste7segment7SegmentEINtNtNtNtCsieiGu2EXtoJ_4core4iter6traits7collect6ExtendBG_E6extendBw_EBK_, symObjAddr: 0x200, symBinAddr: 0xDC0, symSize: 0x40 }
  - { offset: 0x392C, size: 0x8, addend: 0x0, symName: __RNCINvMsi_NtCslJiobkLta79_5alloc3vecINtB8_3VechE14extend_trustedINtNtNtNtCsieiGu2EXtoJ_4core4iter8adapters3map3MapINtNtNtB19_5slice4iter4IterhENCNvNtBa_3str13replace_ascii0EE0Cs25VvWdXQPOU_5paste, symObjAddr: 0x240, symBinAddr: 0xE00, symSize: 0x30 }
  - { offset: 0x3DB8, size: 0x8, addend: 0x0, symName: __RNvNvMs_NtCslJiobkLta79_5alloc3vecINtB6_3VecppE17from_raw_parts_in18precondition_checkCs25VvWdXQPOU_5paste, symObjAddr: 0x3F70, symBinAddr: 0x4B30, symSize: 0xA0 }
  - { offset: 0x3E26, size: 0x8, addend: 0x0, symName: __RNvNvMs_NtCslJiobkLta79_5alloc3vecINtB6_3VecppE7set_len18precondition_checkCs25VvWdXQPOU_5paste, symObjAddr: 0x4010, symBinAddr: 0x4BD0, symSize: 0xA0 }
  - { offset: 0x3E9A, size: 0x8, addend: 0x0, symName: __RNvXNtNtCslJiobkLta79_5alloc3vec14spec_from_iterINtB4_3VechEINtB2_12SpecFromIterhINtNtNtNtCsieiGu2EXtoJ_4core4iter8adapters3map3MapINtNtNtB1q_5slice4iter4IterhENCNvNtB6_3str13replace_ascii0EE9from_iterCs25VvWdXQPOU_5paste, symObjAddr: 0x40B0, symBinAddr: 0x4C70, symSize: 0x20 }
  - { offset: 0x409A, size: 0x8, addend: 0x0, symName: __RNvXs0_NtNtCslJiobkLta79_5alloc3vec11spec_extendINtB7_3VecNtNtCs25VvWdXQPOU_5paste7segment7SegmentEINtB5_10SpecExtendBU_INtNtB7_9into_iter8IntoIterBU_EE11spec_extendBY_, symObjAddr: 0x40D0, symBinAddr: 0x4C90, symSize: 0x90 }
  - { offset: 0x4106, size: 0x8, addend: 0x0, symName: __RNvXs_NtNtCslJiobkLta79_5alloc3vec11spec_extendINtB6_3VechEINtB4_10SpecExtendhINtNtNtNtCsieiGu2EXtoJ_4core4iter8adapters3map3MapINtNtNtB1n_5slice4iter4IterhENCNvNtB8_3str13replace_ascii0EE11spec_extendCs25VvWdXQPOU_5paste, symObjAddr: 0x41D0, symBinAddr: 0x4D90, symSize: 0x20 }
  - { offset: 0x415F, size: 0x8, addend: 0x0, symName: __RNvXs6_NtCslJiobkLta79_5alloc3vecINtB5_3VecNtNtCs25VvWdXQPOU_5paste7segment7SegmentENtNtNtCsieiGu2EXtoJ_4core3ops5deref5Deref5derefBJ_, symObjAddr: 0x4180, symBinAddr: 0x4D40, symSize: 0x20 }
  - { offset: 0x41AA, size: 0x8, addend: 0x0, symName: __RNvXs_NtNtCslJiobkLta79_5alloc3vec21spec_from_iter_nestedINtB6_3VechEINtB4_18SpecFromIterNestedhINtNtNtNtCsieiGu2EXtoJ_4core4iter8adapters3map3MapINtNtNtB1F_5slice4iter4IterhENCNvNtB8_3str13replace_ascii0EE9from_iterCs25VvWdXQPOU_5paste, symObjAddr: 0x41F0, symBinAddr: 0x4DB0, symSize: 0x1C0 }
  - { offset: 0x4289, size: 0x8, addend: 0x0, symName: __RNvXse_NtCslJiobkLta79_5alloc3vecINtB5_3VecNtCscKtU6MdFI5n_10proc_macro9TokenTreeENtNtNtNtCsieiGu2EXtoJ_4core4iter6traits7collect12IntoIterator9into_iterCs25VvWdXQPOU_5paste, symObjAddr: 0x43E0, symBinAddr: 0x4FA0, symSize: 0x140 }
  - { offset: 0x4519, size: 0x8, addend: 0x0, symName: __RNvXse_NtCslJiobkLta79_5alloc3vecINtB5_3VecNtNtB7_6string6StringENtNtNtNtCsieiGu2EXtoJ_4core4iter6traits7collect12IntoIterator9into_iterCs25VvWdXQPOU_5paste, symObjAddr: 0x4520, symBinAddr: 0x50E0, symSize: 0x140 }
  - { offset: 0x47A9, size: 0x8, addend: 0x0, symName: __RNvXse_NtCslJiobkLta79_5alloc3vecINtB5_3VecNtNtCs25VvWdXQPOU_5paste7segment7SegmentENtNtNtNtCsieiGu2EXtoJ_4core4iter6traits7collect12IntoIterator9into_iterBJ_, symObjAddr: 0x4660, symBinAddr: 0x5220, symSize: 0x140 }
  - { offset: 0x4A75, size: 0x8, addend: 0x0, symName: __RNvXsg_NtCslJiobkLta79_5alloc3vecQINtB5_3VecNtNtCs25VvWdXQPOU_5paste7segment7SegmentENtNtNtNtCsieiGu2EXtoJ_4core4iter6traits7collect12IntoIterator9into_iterBK_, symObjAddr: 0x47A0, symBinAddr: 0x5360, symSize: 0x90 }
  - { offset: 0x4CF7, size: 0x8, addend: 0x0, symName: __RNvXsn_NtCslJiobkLta79_5alloc3vecINtB5_3VecINtNtCscKtU6MdFI5n_10proc_macro6bridge9TokenTreeNtNtBI_6client11TokenStreamNtB1t_4SpanNtNtBI_6symbol6SymbolEENtNtNtCsieiGu2EXtoJ_4core3ops4drop4Drop4dropCs25VvWdXQPOU_5paste, symObjAddr: 0x4830, symBinAddr: 0x53F0, symSize: 0x30 }
  - { offset: 0x4DA7, size: 0x8, addend: 0x0, symName: __RNvXsn_NtCslJiobkLta79_5alloc3vecINtB5_3VecNtNtB7_6string6StringENtNtNtCsieiGu2EXtoJ_4core3ops4drop4Drop4dropCs25VvWdXQPOU_5paste, symObjAddr: 0x4860, symBinAddr: 0x5420, symSize: 0x30 }
  - { offset: 0x4E57, size: 0x8, addend: 0x0, symName: __RNvXsn_NtCslJiobkLta79_5alloc3vecINtB5_3VecNtNtCs25VvWdXQPOU_5paste7segment7SegmentENtNtNtCsieiGu2EXtoJ_4core3ops4drop4Drop4dropBJ_, symObjAddr: 0x4890, symBinAddr: 0x5450, symSize: 0x30 }
  - { offset: 0x505A, size: 0x8, addend: 0x0, symName: __RINvMsi_NtCslJiobkLta79_5alloc3vecINtB6_3VechE14extend_trustedINtNtNtNtCsieiGu2EXtoJ_4core4iter8adapters3map3MapINtNtNtB17_5slice4iter4IterhENCNvNtB8_3str13replace_ascii0EECs25VvWdXQPOU_5paste, symObjAddr: 0x0, symBinAddr: 0xBC0, symSize: 0x1C0 }
  - { offset: 0x5274, size: 0x8, addend: 0x0, symName: __RNvMNtCslJiobkLta79_5alloc3vecINtB2_3VecNtNtB4_6string6StringE3newCs25VvWdXQPOU_5paste, symObjAddr: 0x3620, symBinAddr: 0x41E0, symSize: 0x30 }
  - { offset: 0x5291, size: 0x8, addend: 0x0, symName: __RNvMNtCslJiobkLta79_5alloc3vecINtB2_3VecNtNtCs25VvWdXQPOU_5paste7segment7SegmentE3newBG_, symObjAddr: 0x3650, symBinAddr: 0x4210, symSize: 0x30 }
  - { offset: 0x538F, size: 0x8, addend: 0x0, symName: __RNvMs_NtCslJiobkLta79_5alloc3vecINtB4_3VecNtCscKtU6MdFI5n_10proc_macro9TokenTreeE17from_raw_parts_inCs25VvWdXQPOU_5paste, symObjAddr: 0x3680, symBinAddr: 0x4240, symSize: 0xA0 }
  - { offset: 0x5670, size: 0x8, addend: 0x0, symName: __RNvMs_NtCslJiobkLta79_5alloc3vecINtB4_3VecNtNtB6_6string6StringE3popCs25VvWdXQPOU_5paste, symObjAddr: 0x3720, symBinAddr: 0x42E0, symSize: 0x110 }
  - { offset: 0x5805, size: 0x8, addend: 0x0, symName: __RNvMs_NtCslJiobkLta79_5alloc3vecINtB4_3VecNtNtB6_6string6StringE4pushCs25VvWdXQPOU_5paste, symObjAddr: 0x3830, symBinAddr: 0x43F0, symSize: 0x20 }
  - { offset: 0x5936, size: 0x8, addend: 0x0, symName: __RNvMs_NtCslJiobkLta79_5alloc3vecINtB4_3VecNtNtB6_6string6StringE8push_mutCs25VvWdXQPOU_5paste, symObjAddr: 0x3850, symBinAddr: 0x4410, symSize: 0x110 }
  - { offset: 0x5BF8, size: 0x8, addend: 0x0, symName: __RNvMs_NtCslJiobkLta79_5alloc3vecINtB4_3VecNtNtCs25VvWdXQPOU_5paste7segment7SegmentE15append_elementsBI_, symObjAddr: 0x3960, symBinAddr: 0x4520, symSize: 0xC0 }
  - { offset: 0x5D9A, size: 0x8, addend: 0x0, symName: __RNvMs_NtCslJiobkLta79_5alloc3vecINtB4_3VecNtNtCs25VvWdXQPOU_5paste7segment7SegmentE4pushBI_, symObjAddr: 0x3A20, symBinAddr: 0x45E0, symSize: 0x20 }
  - { offset: 0x5F0F, size: 0x8, addend: 0x0, symName: __RNvMs_NtCslJiobkLta79_5alloc3vecINtB4_3VecNtNtCs25VvWdXQPOU_5paste7segment7SegmentE7reserveBI_, symObjAddr: 0x3A40, symBinAddr: 0x4600, symSize: 0xB0 }
  - { offset: 0x610A, size: 0x8, addend: 0x0, symName: __RNvMs_NtCslJiobkLta79_5alloc3vecINtB4_3VecNtNtCs25VvWdXQPOU_5paste7segment7SegmentE8as_sliceBI_, symObjAddr: 0x3AF0, symBinAddr: 0x46B0, symSize: 0x50 }
  - { offset: 0x62B0, size: 0x8, addend: 0x0, symName: __RNvMs_NtCslJiobkLta79_5alloc3vecINtB4_3VecNtNtCs25VvWdXQPOU_5paste7segment7SegmentE8push_mutBI_, symObjAddr: 0x3B40, symBinAddr: 0x4700, symSize: 0x130 }
  - { offset: 0x6546, size: 0x8, addend: 0x0, symName: __RNvMs_NtCslJiobkLta79_5alloc3vecINtB4_3VechE5clearCs25VvWdXQPOU_5paste, symObjAddr: 0x3C70, symBinAddr: 0x4830, symSize: 0x70 }
  - { offset: 0x68D2, size: 0x8, addend: 0x0, symName: __RNvMs_NtCslJiobkLta79_5alloc3vecINtB4_3VechE9split_offCs25VvWdXQPOU_5paste, symObjAddr: 0x3CE0, symBinAddr: 0x48A0, symSize: 0x290 }
  - { offset: 0x7561, size: 0x8, addend: 0x0, symName: __RINvXs3_NtNtCslJiobkLta79_5alloc3vec9into_iterINtB6_8IntoIterNtCscKtU6MdFI5n_10proc_macro9TokenTreeENtNtNtNtCsieiGu2EXtoJ_4core4iter6traits8iterator8Iterator4folduNCINvNvB1A_8for_each4callBX_NCINvXsg_BZ_NtBZ_11TokenStreamINtNtB1E_7collect12FromIteratorBX_E9from_iterINtB8_3VecBX_EE0E0ECs25VvWdXQPOU_5paste, symObjAddr: 0x0, symBinAddr: 0x54A0, symSize: 0x140 }
  - { offset: 0x7716, size: 0x8, addend: 0x0, symName: __RNCINvXsf_NtCslJiobkLta79_5alloc6stringNtB8_6StringINtNtNtNtCsieiGu2EXtoJ_4core4iter6traits7collect6ExtendBB_E6extendINtNtNtBa_3vec9into_iter8IntoIterBB_EE0Cs25VvWdXQPOU_5paste, symObjAddr: 0x5A0, symBinAddr: 0x5A40, symSize: 0x110 }
  - { offset: 0x79FD, size: 0x8, addend: 0x0, symName: __RINvXs8_NtCslJiobkLta79_5alloc6stringNtB6_6StringINtNtNtNtCsieiGu2EXtoJ_4core4iter6traits7collect12FromIteratorBz_E9from_iterINtNtNtB8_3vec9into_iter8IntoIterBz_EECs25VvWdXQPOU_5paste, symObjAddr: 0x290, symBinAddr: 0x5730, symSize: 0x190 }
  - { offset: 0x7ABB, size: 0x8, addend: 0x0, symName: __RINvXsb_NtCslJiobkLta79_5alloc6stringNtB6_6StringINtNtNtNtCsieiGu2EXtoJ_4core4iter6traits7collect6ExtendcE6extendNtNtBU_4char13EscapeDefaultECs25VvWdXQPOU_5paste, symObjAddr: 0x420, symBinAddr: 0x58C0, symSize: 0xA0 }
  - { offset: 0x7B5E, size: 0x8, addend: 0x0, symName: __RNCINvXsb_NtCslJiobkLta79_5alloc6stringNtB8_6StringINtNtNtNtCsieiGu2EXtoJ_4core4iter6traits7collect6ExtendcE6extendNtNtBW_4char13EscapeDefaultE0Cs25VvWdXQPOU_5paste, symObjAddr: 0x570, symBinAddr: 0x5A10, symSize: 0x30 }
  - { offset: 0x7C5D, size: 0x8, addend: 0x0, symName: __RNvXss_NtCslJiobkLta79_5alloc6stringNtB5_6StringNtNtNtCsieiGu2EXtoJ_4core3ops5deref5Deref5derefCs25VvWdXQPOU_5paste, symObjAddr: 0x1F10, symBinAddr: 0x73B0, symSize: 0x20 }
  - { offset: 0x7CF8, size: 0x8, addend: 0x0, symName: __RNvXsq_NtCslJiobkLta79_5alloc6stringNtB5_6StringINtNtNtCsieiGu2EXtoJ_4core3ops5index5IndexINtNtBP_5range5RangejEE5indexCs25VvWdXQPOU_5paste, symObjAddr: 0x1E90, symBinAddr: 0x7330, symSize: 0x80 }
  - { offset: 0x7E48, size: 0x8, addend: 0x0, symName: __RNvXs1n_NtCslJiobkLta79_5alloc6stringNtB6_6StringINtNtCsieiGu2EXtoJ_4core3cmp9PartialEqReE2eqCs25VvWdXQPOU_5paste, symObjAddr: 0x15F0, symBinAddr: 0x6A90, symSize: 0x130 }
  - { offset: 0x812A, size: 0x8, addend: 0x0, symName: __RNvXsT_NtCslJiobkLta79_5alloc6stringNtB5_6StringNtNtCsieiGu2EXtoJ_4core3fmt5Write10write_charCs25VvWdXQPOU_5paste, symObjAddr: 0x19A0, symBinAddr: 0x6E40, symSize: 0x30 }
  - { offset: 0x8167, size: 0x8, addend: 0x0, symName: __RNvXsT_NtCslJiobkLta79_5alloc6stringNtB5_6StringNtNtCsieiGu2EXtoJ_4core3fmt5Write9write_strCs25VvWdXQPOU_5paste, symObjAddr: 0x19D0, symBinAddr: 0x6E70, symSize: 0x30 }
  - { offset: 0x81AA, size: 0x8, addend: 0x0, symName: __RNvXsm_NtCslJiobkLta79_5alloc6stringNtB5_6StringNtNtCsieiGu2EXtoJ_4core3fmt5Debug3fmtCs25VvWdXQPOU_5paste, symObjAddr: 0x1E20, symBinAddr: 0x72C0, symSize: 0x70 }
  - { offset: 0x84AF, size: 0x8, addend: 0x0, symName: __RINvXs3_NtNtCslJiobkLta79_5alloc3vec9into_iterINtB6_8IntoIterNtCscKtU6MdFI5n_10proc_macro9TokenTreeENtNtNtNtCsieiGu2EXtoJ_4core4iter6traits8iterator8Iterator4folduNCINvNvB1A_8for_each4callBX_NCINvXsg_BZ_NtBZ_11TokenStreamINtNtB1E_7collect12FromIteratorBX_E9from_iterINtB8_3VecBX_EE0E0ECs25VvWdXQPOU_5paste, symObjAddr: 0x0, symBinAddr: 0x54A0, symSize: 0x140 }
  - { offset: 0x8669, size: 0x8, addend: 0x0, symName: __RINvXs3_NtNtCslJiobkLta79_5alloc3vec9into_iterINtB6_8IntoIterNtNtBa_6string6StringENtNtNtNtCsieiGu2EXtoJ_4core4iter6traits8iterator8Iterator4folduNCINvNvB1j_8for_each4callBX_NCINvXsf_BZ_BX_INtNtB1n_7collect6ExtendBX_E6extendBI_E0E0ECs25VvWdXQPOU_5paste, symObjAddr: 0x140, symBinAddr: 0x55E0, symSize: 0x150 }
  - { offset: 0x8823, size: 0x8, addend: 0x0, symName: __RNvXs3_NtNtCslJiobkLta79_5alloc3vec9into_iterINtB5_8IntoIterINtNtCscKtU6MdFI5n_10proc_macro6bridge9TokenTreeNtNtBZ_6client11TokenStreamNtB1K_4SpanNtNtBZ_6symbol6SymbolEENtNtNtNtCsieiGu2EXtoJ_4core4iter6traits8iterator8Iterator9size_hintCs25VvWdXQPOU_5paste, symObjAddr: 0x1720, symBinAddr: 0x6BC0, symSize: 0x60 }
  - { offset: 0x887E, size: 0x8, addend: 0x0, symName: __RNvXs3_NtNtCslJiobkLta79_5alloc3vec9into_iterINtB5_8IntoIterNtCscKtU6MdFI5n_10proc_macro9TokenTreeENtNtNtNtCsieiGu2EXtoJ_4core4iter6traits8iterator8Iterator9size_hintCs25VvWdXQPOU_5paste, symObjAddr: 0x1780, symBinAddr: 0x6C20, symSize: 0x60 }
  - { offset: 0x88D9, size: 0x8, addend: 0x0, symName: __RNvXs3_NtNtCslJiobkLta79_5alloc3vec9into_iterINtB5_8IntoIterNtNtB9_6string6StringENtNtNtNtCsieiGu2EXtoJ_4core4iter6traits8iterator8Iterator4nextCs25VvWdXQPOU_5paste, symObjAddr: 0x17E0, symBinAddr: 0x6C80, symSize: 0x100 }
  - { offset: 0x8A37, size: 0x8, addend: 0x0, symName: __RNvXs3_NtNtCslJiobkLta79_5alloc3vec9into_iterINtB5_8IntoIterNtNtB9_6string6StringENtNtNtNtCsieiGu2EXtoJ_4core4iter6traits8iterator8Iterator9size_hintCs25VvWdXQPOU_5paste, symObjAddr: 0x18E0, symBinAddr: 0x6D80, symSize: 0x60 }
  - { offset: 0x8A92, size: 0x8, addend: 0x0, symName: __RNvXs3_NtNtCslJiobkLta79_5alloc3vec9into_iterINtB5_8IntoIterNtNtCs25VvWdXQPOU_5paste7segment7SegmentENtNtNtNtCsieiGu2EXtoJ_4core4iter6traits8iterator8Iterator9size_hintB10_, symObjAddr: 0x1940, symBinAddr: 0x6DE0, symSize: 0x60 }
  - { offset: 0x8C38, size: 0x8, addend: 0x0, symName: __RNvXNvXsd_NtNtCslJiobkLta79_5alloc3vec9into_iterINtB8_8IntoIterppENtNtNtCsieiGu2EXtoJ_4core3ops4drop4Drop4dropINtB2_9DropGuardINtNtCscKtU6MdFI5n_10proc_macro6bridge9TokenTreeNtNtB23_6client11TokenStreamNtB2O_4SpanNtNtB23_6symbol6SymbolENtNtBc_5alloc6GlobalEB12_4dropCs25VvWdXQPOU_5paste, symObjAddr: 0x1430, symBinAddr: 0x68D0, symSize: 0x70 }
  - { offset: 0x8D4D, size: 0x8, addend: 0x0, symName: __RNvXNvXsd_NtNtCslJiobkLta79_5alloc3vec9into_iterINtB8_8IntoIterppENtNtNtCsieiGu2EXtoJ_4core3ops4drop4Drop4dropINtB2_9DropGuardNtCscKtU6MdFI5n_10proc_macro9TokenTreeNtNtBc_5alloc6GlobalEB12_4dropCs25VvWdXQPOU_5paste, symObjAddr: 0x14A0, symBinAddr: 0x6940, symSize: 0x70 }
  - { offset: 0x8E62, size: 0x8, addend: 0x0, symName: __RNvXNvXsd_NtNtCslJiobkLta79_5alloc3vec9into_iterINtB8_8IntoIterppENtNtNtCsieiGu2EXtoJ_4core3ops4drop4Drop4dropINtB2_9DropGuardNtNtBc_6string6StringNtNtBc_5alloc6GlobalEB12_4dropCs25VvWdXQPOU_5paste, symObjAddr: 0x1510, symBinAddr: 0x69B0, symSize: 0x70 }
  - { offset: 0x8F77, size: 0x8, addend: 0x0, symName: __RNvXNvXsd_NtNtCslJiobkLta79_5alloc3vec9into_iterINtB8_8IntoIterppENtNtNtCsieiGu2EXtoJ_4core3ops4drop4Drop4dropINtB2_9DropGuardNtNtCs25VvWdXQPOU_5paste7segment7SegmentNtNtBc_5alloc6GlobalEB12_4dropB24_, symObjAddr: 0x1580, symBinAddr: 0x6A20, symSize: 0x70 }
  - { offset: 0x912A, size: 0x8, addend: 0x0, symName: __RNvXsd_NtNtCslJiobkLta79_5alloc3vec9into_iterINtB5_8IntoIterINtNtCscKtU6MdFI5n_10proc_macro6bridge9TokenTreeNtNtBZ_6client11TokenStreamNtB1K_4SpanNtNtBZ_6symbol6SymbolEENtNtNtCsieiGu2EXtoJ_4core3ops4drop4Drop4dropCs25VvWdXQPOU_5paste, symObjAddr: 0x1BE0, symBinAddr: 0x7080, symSize: 0x90 }
  - { offset: 0x91C5, size: 0x8, addend: 0x0, symName: __RNvXsd_NtNtCslJiobkLta79_5alloc3vec9into_iterINtB5_8IntoIterNtCscKtU6MdFI5n_10proc_macro9TokenTreeENtNtNtCsieiGu2EXtoJ_4core3ops4drop4Drop4dropCs25VvWdXQPOU_5paste, symObjAddr: 0x1C70, symBinAddr: 0x7110, symSize: 0x90 }
  - { offset: 0x9260, size: 0x8, addend: 0x0, symName: __RNvXsd_NtNtCslJiobkLta79_5alloc3vec9into_iterINtB5_8IntoIterNtNtB9_6string6StringENtNtNtCsieiGu2EXtoJ_4core3ops4drop4Drop4dropCs25VvWdXQPOU_5paste, symObjAddr: 0x1D00, symBinAddr: 0x71A0, symSize: 0x90 }
  - { offset: 0x92FB, size: 0x8, addend: 0x0, symName: __RNvXsd_NtNtCslJiobkLta79_5alloc3vec9into_iterINtB5_8IntoIterNtNtCs25VvWdXQPOU_5paste7segment7SegmentENtNtNtCsieiGu2EXtoJ_4core3ops4drop4Drop4dropB10_, symObjAddr: 0x1D90, symBinAddr: 0x7230, symSize: 0x90 }
  - { offset: 0xB059, size: 0x8, addend: 0x0, symName: __RINvYINtNtNtCslJiobkLta79_5alloc3vec9into_iter8IntoIterNtCscKtU6MdFI5n_10proc_macro9TokenTreeENtNtNtNtCsieiGu2EXtoJ_4core4iter6traits8iterator8Iterator8for_eachNCINvXsg_BT_NtBT_11TokenStreamINtNtB1y_7collect12FromIteratorBR_E9from_iterINtB8_3VecBR_EE0ECs25VvWdXQPOU_5paste, symObjAddr: 0x4C0, symBinAddr: 0x5960, symSize: 0x20 }
  - { offset: 0xB0A5, size: 0x8, addend: 0x0, symName: __RINvYINtNtNtCslJiobkLta79_5alloc3vec9into_iter8IntoIterNtNtBa_6string6StringENtNtNtNtCsieiGu2EXtoJ_4core4iter6traits8iterator8Iterator7collectBR_ECs25VvWdXQPOU_5paste, symObjAddr: 0x4E0, symBinAddr: 0x5980, symSize: 0x70 }
  - { offset: 0xB13B, size: 0x8, addend: 0x0, symName: __RINvYINtNtNtCslJiobkLta79_5alloc3vec9into_iter8IntoIterNtNtBa_6string6StringENtNtNtNtCsieiGu2EXtoJ_4core4iter6traits8iterator8Iterator8for_eachNCINvXsf_BT_BR_INtNtB1h_7collect6ExtendBR_E6extendB3_E0ECs25VvWdXQPOU_5paste, symObjAddr: 0x550, symBinAddr: 0x59F0, symSize: 0x20 }
  - { offset: 0xB1C5, size: 0x8, addend: 0x0, symName: __RNvXNtNtNtCsieiGu2EXtoJ_4core4iter6traits7collectINtNtNtCslJiobkLta79_5alloc3vec9into_iter8IntoIterNtNtBS_6string6StringENtB2_12IntoIterator9into_iterCs25VvWdXQPOU_5paste, symObjAddr: 0x1400, symBinAddr: 0x68A0, symSize: 0x30 }
  - { offset: 0xB2A2, size: 0x8, addend: 0x0, symName: __RNvYINtNtNtCslJiobkLta79_5alloc3vec9into_iter8IntoIterINtNtCscKtU6MdFI5n_10proc_macro6bridge9TokenTreeNtNtBT_6client11TokenStreamNtB1E_4SpanNtNtBT_6symbol6SymbolEENtNtNtNtCsieiGu2EXtoJ_4core4iter6traits10exact_size17ExactSizeIterator3lenCs25VvWdXQPOU_5paste, symObjAddr: 0x1F30, symBinAddr: 0x73D0, symSize: 0xE0 }
  - { offset: 0xB3A2, size: 0x8, addend: 0x0, symName: __RNvYINtNtNtCslJiobkLta79_5alloc3vec9into_iter8IntoIterNtCscKtU6MdFI5n_10proc_macro9TokenTreeENtNtNtNtCsieiGu2EXtoJ_4core4iter6traits10exact_size17ExactSizeIterator3lenCs25VvWdXQPOU_5paste, symObjAddr: 0x2010, symBinAddr: 0x74B0, symSize: 0xE0 }
  - { offset: 0xB4A2, size: 0x8, addend: 0x0, symName: __RNvYINtNtNtCslJiobkLta79_5alloc3vec9into_iter8IntoIterNtNtB9_6string6StringENtNtNtNtCsieiGu2EXtoJ_4core4iter6traits10exact_size17ExactSizeIterator3lenCs25VvWdXQPOU_5paste, symObjAddr: 0x20F0, symBinAddr: 0x7590, symSize: 0xE0 }
  - { offset: 0xB5A2, size: 0x8, addend: 0x0, symName: __RNvYINtNtNtCslJiobkLta79_5alloc3vec9into_iter8IntoIterNtNtCs25VvWdXQPOU_5paste7segment7SegmentENtNtNtNtCsieiGu2EXtoJ_4core4iter6traits10exact_size17ExactSizeIterator3lenBU_, symObjAddr: 0x21D0, symBinAddr: 0x7670, symSize: 0xE0 }
  - { offset: 0xB8D1, size: 0x8, addend: 0x0, symName: __RNvXs_NvNtNtCsieiGu2EXtoJ_4core3fmt5Write9write_fmtQNtNtCslJiobkLta79_5alloc6string6StringNtB4_12SpecWriteFmt14spec_write_fmtCs25VvWdXQPOU_5paste, symObjAddr: 0x1A70, symBinAddr: 0x6F10, symSize: 0x170 }
  - { offset: 0xB988, size: 0x8, addend: 0x0, symName: __RNvYNtNtCslJiobkLta79_5alloc6string6StringNtNtCsieiGu2EXtoJ_4core3fmt5Write9write_fmtCs25VvWdXQPOU_5paste, symObjAddr: 0x22B0, symBinAddr: 0x7750, symSize: 0x20 }
  - { offset: 0xC277, size: 0x8, addend: 0x0, symName: __RNvXNtCsieiGu2EXtoJ_4core7convertRNtNtCslJiobkLta79_5alloc6string6StringINtB2_5AsRefNtNtNtCsHUR1vrdMJt_3std3ffi6os_str5OsStrE6as_refCs25VvWdXQPOU_5paste, symObjAddr: 0x13E0, symBinAddr: 0x6880, symSize: 0x20 }
  - { offset: 0xCD69, size: 0x8, addend: 0x0, symName: __RNvMNtCslJiobkLta79_5alloc6stringNtB2_6String3lenCs25VvWdXQPOU_5paste, symObjAddr: 0x6B0, symBinAddr: 0x5B50, symSize: 0x10 }
  - { offset: 0xCDB1, size: 0x8, addend: 0x0, symName: __RNvMNtCslJiobkLta79_5alloc6stringNtB2_6String3newCs25VvWdXQPOU_5paste, symObjAddr: 0x6C0, symBinAddr: 0x5B60, symSize: 0x40 }
  - { offset: 0xCF50, size: 0x8, addend: 0x0, symName: __RNvMNtCslJiobkLta79_5alloc6stringNtB2_6String4pushCs25VvWdXQPOU_5paste, symObjAddr: 0x700, symBinAddr: 0x5BA0, symSize: 0x130 }
  - { offset: 0xD184, size: 0x8, addend: 0x0, symName: __RNvMNtCslJiobkLta79_5alloc6stringNtB2_6String5clearCs25VvWdXQPOU_5paste, symObjAddr: 0x830, symBinAddr: 0x5CD0, symSize: 0x20 }
  - { offset: 0xD23C, size: 0x8, addend: 0x0, symName: __RNvMNtCslJiobkLta79_5alloc6stringNtB2_6String6as_strCs25VvWdXQPOU_5paste, symObjAddr: 0x850, symBinAddr: 0x5CF0, symSize: 0x60 }
  - { offset: 0xD511, size: 0x8, addend: 0x0, symName: __RNvMNtCslJiobkLta79_5alloc6stringNtB2_6String6insertCs25VvWdXQPOU_5paste, symObjAddr: 0x8B0, symBinAddr: 0x5D50, symSize: 0x370 }
  - { offset: 0xDC20, size: 0x8, addend: 0x0, symName: __RNvMNtCslJiobkLta79_5alloc6stringNtB2_6String6removeCs25VvWdXQPOU_5paste, symObjAddr: 0xC20, symBinAddr: 0x60C0, symSize: 0x3D0 }
  - { offset: 0xE22D, size: 0x8, addend: 0x0, symName: __RNvMNtCslJiobkLta79_5alloc6stringNtB2_6String8push_strCs25VvWdXQPOU_5paste, symObjAddr: 0xFF0, symBinAddr: 0x6490, symSize: 0x50 }
  - { offset: 0xE4EB, size: 0x8, addend: 0x0, symName: __RNvMNtCslJiobkLta79_5alloc6stringNtB2_6String8truncateCs25VvWdXQPOU_5paste, symObjAddr: 0x1040, symBinAddr: 0x64E0, symSize: 0x1C0 }
  - { offset: 0xE8A2, size: 0x8, addend: 0x0, symName: __RNvMNtCslJiobkLta79_5alloc6stringNtB2_6String9split_offCs25VvWdXQPOU_5paste, symObjAddr: 0x1200, symBinAddr: 0x66A0, symSize: 0x180 }
  - { offset: 0xEBC4, size: 0x8, addend: 0x0, symName: __RNvMs_NtNtCslJiobkLta79_5alloc3vec9into_iterINtB4_8IntoIterNtNtCs25VvWdXQPOU_5paste7segment7SegmentE8as_sliceBZ_, symObjAddr: 0x1380, symBinAddr: 0x6820, symSize: 0x60 }
  - { offset: 0xF028, size: 0x8, addend: 0x0, symName: __RNvXsX_NtNtCsHUR1vrdMJt_3std3ffi6os_strNtNtCslJiobkLta79_5alloc6string6StringINtNtCsieiGu2EXtoJ_4core7convert5AsRefNtB5_5OsStrE6as_refCs25VvWdXQPOU_5paste, symObjAddr: 0x1A00, symBinAddr: 0x6EA0, symSize: 0x70 }
  - { offset: 0xF6B2, size: 0x8, addend: 0x0, symName: __RINvNtNtNtCsHUR1vrdMJt_3std2io5error14repr_bitpacked11decode_reprINtNtCslJiobkLta79_5alloc5boxed3BoxNtB4_6CustomENCNvXs1_B2_NtB2_4ReprNtNtNtCsieiGu2EXtoJ_4core3ops4drop4Drop4drop0ECs25VvWdXQPOU_5paste, symObjAddr: 0x0, symBinAddr: 0x7770, symSize: 0x200 }
  - { offset: 0xF768, size: 0x8, addend: 0x0, symName: __RINvNtNtNtCscKtU6MdFI5n_10proc_macro6bridge6client5state3setINtNtCsieiGu2EXtoJ_4core6option6OptionNtB4_11TokenStreamENCNCINvB4_10run_clientB1y_BW_NCNCINvMs6_B4_INtB4_6ClientNtB8_11TokenStreamB2L_E7expand1NvCs25VvWdXQPOU_5paste4exprE00E00EB3i_, symObjAddr: 0x200, symBinAddr: 0x7970, symSize: 0xC0 }
  - { offset: 0xF83E, size: 0x8, addend: 0x0, symName: __RINvNtNtNtCscKtU6MdFI5n_10proc_macro6bridge6client5state3setINtNtCsieiGu2EXtoJ_4core6option6OptionNtB4_11TokenStreamENCNCINvB4_10run_clientB1y_BW_NCNCINvMs6_B4_INtB4_6ClientNtB8_11TokenStreamB2L_E7expand1NvCs25VvWdXQPOU_5paste4itemE00E00EB3i_, symObjAddr: 0x2C0, symBinAddr: 0x7A30, symSize: 0xC0 }
  - { offset: 0xF914, size: 0x8, addend: 0x0, symName: __RINvNtNtNtCscKtU6MdFI5n_10proc_macro6bridge6client5state3setINtNtCsieiGu2EXtoJ_4core6option6OptionNtB4_11TokenStreamENCNCINvB4_10run_clientB1y_BW_NCNCINvMs6_B4_INtB4_6ClientNtB8_11TokenStreamB2L_E7expand1NvCs25VvWdXQPOU_5paste5pasteE00E00EB3i_, symObjAddr: 0x380, symBinAddr: 0x7AF0, symSize: 0xC0 }
  - { offset: 0xF9F4, size: 0x8, addend: 0x0, symName: __RNCNkNvNtNtNtCscKtU6MdFI5n_10proc_macro6bridge6client5state12BRIDGE_STATE0s_0Cs25VvWdXQPOU_5paste, symObjAddr: 0xA40, symBinAddr: 0x81B0, symSize: 0x20 }
  - { offset: 0xFF82, size: 0x8, addend: 0x0, symName: __RNvXs7_NtNtCscKtU6MdFI5n_10proc_macro6bridge3rpcINtNtNtCsieiGu2EXtoJ_4core3num7nonzero7NonZeromEINtB5_9DecodeMutuE6decodeCs25VvWdXQPOU_5paste, symObjAddr: 0x3960, symBinAddr: 0xB0D0, symSize: 0x50 }
  - { offset: 0x100DD, size: 0x8, addend: 0x0, symName: __RNvXsV_NtCscKtU6MdFI5n_10proc_macro6bridgeINtNtCsieiGu2EXtoJ_4core6result6ResultINtNtBJ_6option6OptionNtNtB5_6client11TokenStreamEuEINtNtB5_3rpc6EncodeuE6encodeCs25VvWdXQPOU_5paste, symObjAddr: 0x39B0, symBinAddr: 0xB120, symSize: 0xE0 }
  - { offset: 0x101A1, size: 0x8, addend: 0x0, symName: __RNvXsV_NtCscKtU6MdFI5n_10proc_macro6bridgeINtNtCsieiGu2EXtoJ_4core6result6ResultuNtNtB5_3rpc12PanicMessageEINtB1j_6EncodeuE6encodeCs25VvWdXQPOU_5paste, symObjAddr: 0x3A90, symBinAddr: 0xB200, symSize: 0x120 }
  - { offset: 0x1109E, size: 0x8, addend: 0x0, symName: __RNvNvMNtNtCsieiGu2EXtoJ_4core3ptr9const_ptrPp20offset_from_unsigned18precondition_checkCs25VvWdXQPOU_5paste, symObjAddr: 0x35E0, symBinAddr: 0xAD50, symSize: 0xA0 }
  - { offset: 0x11C11, size: 0x8, addend: 0x0, symName: __RNvXsp_NtCsieiGu2EXtoJ_4core6resultINtB5_6ResultINtNtCslJiobkLta79_5alloc3vec3VecNtNtCs25VvWdXQPOU_5paste7segment7SegmentENtNtB1l_5error5ErrorENtNtNtB7_3ops9try_trait3Try6branchB1l_, symObjAddr: 0x3BB0, symBinAddr: 0xB320, symSize: 0xF0 }
  - { offset: 0x11C8F, size: 0x8, addend: 0x0, symName: __RNvXsp_NtCsieiGu2EXtoJ_4core6resultINtB5_6ResultNtCscKtU6MdFI5n_10proc_macro11TokenStreamNtNtCs25VvWdXQPOU_5paste5error5ErrorENtNtNtB7_3ops9try_trait3Try6branchB1t_, symObjAddr: 0x3CA0, symBinAddr: 0xB410, symSize: 0xC0 }
  - { offset: 0x11D0D, size: 0x8, addend: 0x0, symName: __RNvXsp_NtCsieiGu2EXtoJ_4core6resultINtB5_6ResultNtNtCslJiobkLta79_5alloc6string6StringNtNtCs25VvWdXQPOU_5paste5error5ErrorENtNtNtB7_3ops9try_trait3Try6branchB1q_, symObjAddr: 0x3D60, symBinAddr: 0xB4D0, symSize: 0xF0 }
  - { offset: 0x11D91, size: 0x8, addend: 0x0, symName: __RNvXsq_NtCsieiGu2EXtoJ_4core6resultINtB5_6ResultINtNtCslJiobkLta79_5alloc3vec3VecNtNtCs25VvWdXQPOU_5paste7segment7SegmentENtNtB1l_5error5ErrorEINtNtNtB7_3ops9try_trait12FromResidualIBy_NtNtB7_7convert10InfallibleB1W_EE13from_residualB1l_, symObjAddr: 0x3E50, symBinAddr: 0xB5C0, symSize: 0x70 }
  - { offset: 0x11E16, size: 0x8, addend: 0x0, symName: __RNvXsq_NtCsieiGu2EXtoJ_4core6resultINtB5_6ResultNtCscKtU6MdFI5n_10proc_macro11TokenStreamNtNtCs25VvWdXQPOU_5paste5error5ErrorEINtNtNtB7_3ops9try_trait12FromResidualIBy_NtNtB7_7convert10InfallibleB1p_EE13from_residualB1t_, symObjAddr: 0x3EC0, symBinAddr: 0xB630, symSize: 0x70 }
  - { offset: 0x12282, size: 0x8, addend: 0x0, symName: __RINvYNtNtCscKtU6MdFI5n_10proc_macro12token_stream8IntoIterNtNtNtNtCsieiGu2EXtoJ_4core4iter6traits8iterator8Iterator4folduNCINvNvBU_8for_each4callNtB7_9TokenTreeNCINvXsi_B7_NtB7_11TokenStreamINtNtBY_7collect6ExtendB2j_E6extendB2K_E0E0ECs25VvWdXQPOU_5paste, symObjAddr: 0x440, symBinAddr: 0x7BB0, symSize: 0xD0 }
  - { offset: 0x12313, size: 0x8, addend: 0x0, symName: __RINvYNtNtCscKtU6MdFI5n_10proc_macro12token_stream8IntoIterNtNtNtNtCsieiGu2EXtoJ_4core4iter6traits8iterator8Iterator7inspectNCNvNtCs25VvWdXQPOU_5paste4attr11expand_attr0EB23_, symObjAddr: 0x510, symBinAddr: 0x7C80, symSize: 0x30 }
  - { offset: 0x12377, size: 0x8, addend: 0x0, symName: __RINvYNtNtCscKtU6MdFI5n_10proc_macro12token_stream8IntoIterNtNtNtNtCsieiGu2EXtoJ_4core4iter6traits8iterator8Iterator8for_eachNCINvXsi_B7_NtB7_11TokenStreamINtNtBY_7collect6ExtendNtB7_9TokenTreeE6extendB2a_E0ECs25VvWdXQPOU_5paste, symObjAddr: 0x540, symBinAddr: 0x7CB0, symSize: 0x20 }
  - { offset: 0x123C3, size: 0x8, addend: 0x0, symName: __RINvYNtNtCscKtU6MdFI5n_10proc_macro12token_stream8IntoIterNtNtNtNtCsieiGu2EXtoJ_4core4iter6traits8iterator8Iterator8try_foldjNCINvNvXs7_NtNtB10_8adapters4takeINtB2a_4TakepENtB2a_8SpecTake13spec_for_each5checkNtB7_9TokenTreeNCINvXsi_B7_NtB7_11TokenStreamINtNtBY_7collect6ExtendB3k_E6extendIB2x_QINtNtB2c_8peekable8PeekableB3_EEE0E0INtNtB12_6option6OptionjEECs25VvWdXQPOU_5paste, symObjAddr: 0x560, symBinAddr: 0x7CD0, symSize: 0x1D0 }
  - { offset: 0x12478, size: 0x8, addend: 0x0, symName: __RINvYNtNtCscKtU6MdFI5n_10proc_macro12token_stream8IntoIterNtNtNtNtCsieiGu2EXtoJ_4core4iter6traits8iterator8Iterator8try_folduNCINvNtNtB10_8adapters7inspect16inspect_try_foldNtB7_9TokenTreeuINtNtNtB12_3ops12control_flow11ControlFlowuENCNvNtCs25VvWdXQPOU_5paste4attr11expand_attr0NCINvNvBU_3all5checkB2L_NCB3L_s_0E0E0B31_EB3P_, symObjAddr: 0x730, symBinAddr: 0x7EA0, symSize: 0x120 }
  - { offset: 0x1252C, size: 0x8, addend: 0x0, symName: __RINvYNtNtCscKtU6MdFI5n_10proc_macro12token_stream8IntoIterNtNtNtNtCsieiGu2EXtoJ_4core4iter6traits8iterator8Iterator8try_folduNCINvNvXs_NtNtB10_8adapters4takeINtB29_4TakepEBU_8try_fold5checkNtB7_9TokenTreeuINtNtNtB12_3ops9try_trait17NeverShortCircuituENCINvMB3k_B3h_10wrap_mut_2uB31_QNCINvNvBU_8for_each4callB31_NCINvXsg_B7_NtB7_11TokenStreamINtNtBY_7collect12FromIteratorB31_E9from_iterINtNtB2b_5chain5ChainIB2w_B3_EINtNtNtB10_7sources4once4OnceB31_EEE0E0E0E0INtNtB3m_12control_flow11ControlFlowB3h_EECs25VvWdXQPOU_5paste, symObjAddr: 0x850, symBinAddr: 0x7FC0, symSize: 0x140 }
  - { offset: 0x125E0, size: 0x8, addend: 0x0, symName: __RINvYNtNtCsieiGu2EXtoJ_4core4char13EscapeDefaultNtNtNtNtB7_4iter6traits8iterator8Iterator4folduNCINvNvBK_8for_each4callcNCINvXsb_NtCslJiobkLta79_5alloc6stringNtB23_6StringINtNtBO_7collect6ExtendcE6extendB3_E0E0ECs25VvWdXQPOU_5paste, symObjAddr: 0x990, symBinAddr: 0x8100, symSize: 0x90 }
  - { offset: 0x12670, size: 0x8, addend: 0x0, symName: __RINvYNtNtCsieiGu2EXtoJ_4core4char13EscapeDefaultNtNtNtNtB7_4iter6traits8iterator8Iterator8for_eachNCINvXsb_NtCslJiobkLta79_5alloc6stringNtB1H_6StringINtNtBO_7collect6ExtendcE6extendB3_E0ECs25VvWdXQPOU_5paste, symObjAddr: 0xA20, symBinAddr: 0x8190, symSize: 0x20 }
  - { offset: 0x126BC, size: 0x8, addend: 0x0, symName: __RNvYNtNtCscKtU6MdFI5n_10proc_macro12token_stream8IntoIterNtNtNtNtCsieiGu2EXtoJ_4core4iter6traits8iterator8Iterator4takeCs25VvWdXQPOU_5paste, symObjAddr: 0x3F30, symBinAddr: 0xB6A0, symSize: 0x30 }
  - { offset: 0x12717, size: 0x8, addend: 0x0, symName: __RNvYNtNtCscKtU6MdFI5n_10proc_macro12token_stream8IntoIterNtNtNtNtCsieiGu2EXtoJ_4core4iter6traits8iterator8Iterator8peekableCs25VvWdXQPOU_5paste, symObjAddr: 0x3F60, symBinAddr: 0xB6D0, symSize: 0x50 }
  - { offset: 0x127D3, size: 0x8, addend: 0x0, symName: __RNvXNtNtNtCsieiGu2EXtoJ_4core4iter6traits7collectNtNtB8_4char11ToLowercaseNtB2_12IntoIterator9into_iterCs25VvWdXQPOU_5paste, symObjAddr: 0x3770, symBinAddr: 0xAEE0, symSize: 0x30 }
  - { offset: 0x1280A, size: 0x8, addend: 0x0, symName: __RNvXNtNtNtCsieiGu2EXtoJ_4core4iter6traits7collectNtNtB8_4char11ToUppercaseNtB2_12IntoIterator9into_iterCs25VvWdXQPOU_5paste, symObjAddr: 0x37A0, symBinAddr: 0xAF10, symSize: 0x30 }
  - { offset: 0x12841, size: 0x8, addend: 0x0, symName: __RNvXNtNtNtCsieiGu2EXtoJ_4core4iter6traits7collectNtNtB8_4char13EscapeDefaultNtB2_12IntoIterator9into_iterCs25VvWdXQPOU_5paste, symObjAddr: 0x37D0, symBinAddr: 0xAF40, symSize: 0x20 }
  - { offset: 0x1300A, size: 0x8, addend: 0x0, symName: __RNvNtCsieiGu2EXtoJ_4core4char8from_u32Cs25VvWdXQPOU_5paste, symObjAddr: 0x2F00, symBinAddr: 0xA670, symSize: 0x20 }
  - { offset: 0x1306C, size: 0x8, addend: 0x0, symName: __RNvNtNtCsieiGu2EXtoJ_4core4char7convert8from_u32Cs25VvWdXQPOU_5paste, symObjAddr: 0x2FE0, symBinAddr: 0xA750, symSize: 0x50 }
  - { offset: 0x13110, size: 0x8, addend: 0x0, symName: __RNvNvNtNtCsieiGu2EXtoJ_4core4char7convert18from_u32_unchecked18precondition_checkCs25VvWdXQPOU_5paste, symObjAddr: 0x3680, symBinAddr: 0xADF0, symSize: 0xF0 }
  - { offset: 0x131EA, size: 0x8, addend: 0x0, symName: __RNvXs4_NtCsieiGu2EXtoJ_4core4charNtB5_13EscapeDefaultNtNtNtNtB7_4iter6traits8iterator8Iterator4nextCs25VvWdXQPOU_5paste, symObjAddr: 0x38E0, symBinAddr: 0xB050, symSize: 0x50 }
  - { offset: 0x13288, size: 0x8, addend: 0x0, symName: __RNvXs4_NtCsieiGu2EXtoJ_4core4charNtB5_13EscapeDefaultNtNtNtNtB7_4iter6traits8iterator8Iterator9size_hintCs25VvWdXQPOU_5paste, symObjAddr: 0x3930, symBinAddr: 0xB0A0, symSize: 0x30 }
  - { offset: 0x1365C, size: 0x8, addend: 0x0, symName: __RNCNvXs1_NtNtNtCsHUR1vrdMJt_3std2io5error14repr_bitpackedNtB7_4ReprNtNtNtCsieiGu2EXtoJ_4core3ops4drop4Drop4drop0Cs25VvWdXQPOU_5paste, symObjAddr: 0xB60, symBinAddr: 0x82D0, symSize: 0x30 }
  - { offset: 0x13711, size: 0x8, addend: 0x0, symName: __RNvXs1_NtNtNtCsHUR1vrdMJt_3std2io5error14repr_bitpackedNtB5_4ReprNtNtNtCsieiGu2EXtoJ_4core3ops4drop4Drop4dropCs25VvWdXQPOU_5paste, symObjAddr: 0x38B0, symBinAddr: 0xB020, symSize: 0x30 }
  - { offset: 0x1373A, size: 0x8, addend: 0x0, symName: __RINvNtNtNtCsHUR1vrdMJt_3std2io5error14repr_bitpacked11decode_reprINtNtCslJiobkLta79_5alloc5boxed3BoxNtB4_6CustomENCNvXs1_B2_NtB2_4ReprNtNtNtCsieiGu2EXtoJ_4core3ops4drop4Drop4drop0ECs25VvWdXQPOU_5paste, symObjAddr: 0x0, symBinAddr: 0x7770, symSize: 0x200 }
  - { offset: 0x1399B, size: 0x8, addend: 0x0, symName: __RNvNtNtNtCsHUR1vrdMJt_3std2io5error14repr_bitpacked14kind_from_primCs25VvWdXQPOU_5paste, symObjAddr: 0x3030, symBinAddr: 0xA7A0, symSize: 0x5B0 }
  - { offset: 0x1475C, size: 0x8, addend: 0x0, symName: __RNCNvNtCslJiobkLta79_5alloc3fmt6format0Cs25VvWdXQPOU_5paste, symObjAddr: 0xB20, symBinAddr: 0x8290, symSize: 0x40 }
  - { offset: 0x1478D, size: 0x8, addend: 0x0, symName: __RNvNtCslJiobkLta79_5alloc3fmt6formatCs25VvWdXQPOU_5paste, symObjAddr: 0x2F20, symBinAddr: 0xA690, symSize: 0xC0 }
  - { offset: 0x149D7, size: 0x8, addend: 0x0, symName: __RNvXs1_NtCslJiobkLta79_5alloc7raw_vecINtB5_6RawVecINtNtCscKtU6MdFI5n_10proc_macro6bridge9TokenTreeNtNtBP_6client11TokenStreamNtB1A_4SpanNtNtBP_6symbol6SymbolEENtNtNtCsieiGu2EXtoJ_4core3ops4drop4Drop4dropCs25VvWdXQPOU_5paste, symObjAddr: 0x37F0, symBinAddr: 0xAF60, symSize: 0x30 }
  - { offset: 0x14A13, size: 0x8, addend: 0x0, symName: __RNvXs1_NtCslJiobkLta79_5alloc7raw_vecINtB5_6RawVecNtCscKtU6MdFI5n_10proc_macro9TokenTreeENtNtNtCsieiGu2EXtoJ_4core3ops4drop4Drop4dropCs25VvWdXQPOU_5paste, symObjAddr: 0x3820, symBinAddr: 0xAF90, symSize: 0x30 }
  - { offset: 0x14A4F, size: 0x8, addend: 0x0, symName: __RNvXs1_NtCslJiobkLta79_5alloc7raw_vecINtB5_6RawVecNtNtB7_6string6StringENtNtNtCsieiGu2EXtoJ_4core3ops4drop4Drop4dropCs25VvWdXQPOU_5paste, symObjAddr: 0x3850, symBinAddr: 0xAFC0, symSize: 0x30 }
  - { offset: 0x14A8B, size: 0x8, addend: 0x0, symName: __RNvXs1_NtCslJiobkLta79_5alloc7raw_vecINtB5_6RawVecNtNtCs25VvWdXQPOU_5paste7segment7SegmentENtNtNtCsieiGu2EXtoJ_4core3ops4drop4Drop4dropBQ_, symObjAddr: 0x3880, symBinAddr: 0xAFF0, symSize: 0x30 }
  - { offset: 0x14C48, size: 0x8, addend: 0x0, symName: __RNCNvNtCs25VvWdXQPOU_5paste4attr11expand_attr0B5_, symObjAddr: 0xA60, symBinAddr: 0x81D0, symSize: 0x50 }
  - { offset: 0x14C7D, size: 0x8, addend: 0x0, symName: __RNCNvNtCs25VvWdXQPOU_5paste4attr11expand_attrs_0B5_, symObjAddr: 0xAB0, symBinAddr: 0x8220, symSize: 0x70 }
  - { offset: 0x14CBC, size: 0x8, addend: 0x0, symName: __RNvNtCs25VvWdXQPOU_5paste4attr11expand_attr, symObjAddr: 0xFC0, symBinAddr: 0x8730, symSize: 0x1040 }
  - { offset: 0x14EEC, size: 0x8, addend: 0x0, symName: __RNvNtCs25VvWdXQPOU_5paste4attr13is_stringlike, symObjAddr: 0x2000, symBinAddr: 0x9770, symSize: 0x3E0 }
  - { offset: 0x14F99, size: 0x8, addend: 0x0, symName: __RNvNtCs25VvWdXQPOU_5paste4attr24do_paste_name_value_attr, symObjAddr: 0x23E0, symBinAddr: 0x9B50, symSize: 0xB20 }
  - { offset: 0x15390, size: 0x8, addend: 0x0, symName: __RNvMNtCsieiGu2EXtoJ_4core6resultINtB2_6ResulthNtNtNtB4_3num5error15TryFromIntErrorE6expectCs25VvWdXQPOU_5paste, symObjAddr: 0xB90, symBinAddr: 0x8300, symSize: 0x80 }
  - { offset: 0x153F2, size: 0x8, addend: 0x0, symName: __RNvMNtCsieiGu2EXtoJ_4core6resultINtB2_6ResultuNtNtB4_3fmt5ErrorE6expectCs25VvWdXQPOU_5paste, symObjAddr: 0xC10, symBinAddr: 0x8380, symSize: 0x80 }
  - { offset: 0x154B3, size: 0x8, addend: 0x0, symName: __RNvMs0_NtCslJiobkLta79_5alloc7raw_vecINtB5_6RawVecNtNtCs25VvWdXQPOU_5paste7segment7SegmentE8grow_oneBQ_, symObjAddr: 0xC90, symBinAddr: 0x8400, symSize: 0x90 }
  - { offset: 0x155C7, size: 0x8, addend: 0x0, symName: __RNvMs2_NtCslJiobkLta79_5alloc7raw_vecNtB5_11RawVecInner16with_capacity_inCs25VvWdXQPOU_5paste, symObjAddr: 0xD20, symBinAddr: 0x8490, symSize: 0x150 }
  - { offset: 0x15757, size: 0x8, addend: 0x0, symName: __RNvMsd_NtCsieiGu2EXtoJ_4core4charNtB5_15CaseMappingIter3newCs25VvWdXQPOU_5paste, symObjAddr: 0xE70, symBinAddr: 0x85E0, symSize: 0x150 }
  - { offset: 0x15CB9, size: 0x8, addend: 0x0, symName: __RINvMNtCslJiobkLta79_5alloc5sliceSNtCscKtU6MdFI5n_10proc_macro9TokenTree8into_vecNtNtB5_5alloc6GlobalECs25VvWdXQPOU_5paste, symObjAddr: 0x0, symBinAddr: 0xB720, symSize: 0x40 }
  - { offset: 0x15D22, size: 0x8, addend: 0x0, symName: __RNvXsw_NtCslJiobkLta79_5alloc6stringNtCscKtU6MdFI5n_10proc_macro5IdentNtB5_8ToString9to_stringCs25VvWdXQPOU_5paste, symObjAddr: 0x37B0, symBinAddr: 0xEED0, symSize: 0x30 }
  - { offset: 0x15D59, size: 0x8, addend: 0x0, symName: __RNvXsw_NtCslJiobkLta79_5alloc6stringNtCscKtU6MdFI5n_10proc_macro7LiteralNtB5_8ToString9to_stringCs25VvWdXQPOU_5paste, symObjAddr: 0x37E0, symBinAddr: 0xEF00, symSize: 0x30 }
  - { offset: 0x15D96, size: 0x8, addend: 0x0, symName: __RNvXsx_NtCslJiobkLta79_5alloc6stringNtCscKtU6MdFI5n_10proc_macro5IdentNtB5_12SpecToString14spec_to_stringCs25VvWdXQPOU_5paste, symObjAddr: 0x3810, symBinAddr: 0xEF30, symSize: 0x120 }
  - { offset: 0x15E62, size: 0x8, addend: 0x0, symName: __RNvXsx_NtCslJiobkLta79_5alloc6stringNtCscKtU6MdFI5n_10proc_macro7LiteralNtB5_12SpecToString14spec_to_stringCs25VvWdXQPOU_5paste, symObjAddr: 0x3930, symBinAddr: 0xF050, symSize: 0x120 }
  - { offset: 0x161DF, size: 0x8, addend: 0x0, symName: __RINvMNtCslJiobkLta79_5alloc5sliceSNtCscKtU6MdFI5n_10proc_macro9TokenTree8into_vecNtNtB5_5alloc6GlobalECs25VvWdXQPOU_5paste, symObjAddr: 0x0, symBinAddr: 0xB720, symSize: 0x40 }
  - { offset: 0x1676F, size: 0x8, addend: 0x0, symName: __RNvNvNtCsieiGu2EXtoJ_4core3ptr19copy_nonoverlapping18precondition_checkCs25VvWdXQPOU_5paste, symObjAddr: 0x22F0, symBinAddr: 0xDA10, symSize: 0x4B0 }
  - { offset: 0x16A80, size: 0x8, addend: 0x0, symName: __RNvNvNtCsieiGu2EXtoJ_4core3ptr4copy18precondition_checkCs25VvWdXQPOU_5paste, symObjAddr: 0x27A0, symBinAddr: 0xDEC0, symSize: 0x330 }
  - { offset: 0x16F96, size: 0x8, addend: 0x0, symName: __RNvXs5_NtNtCsieiGu2EXtoJ_4core3num5errorNtB5_15TryFromIntErrorNtNtB9_3fmt5Debug3fmtCs25VvWdXQPOU_5paste, symObjAddr: 0x33A0, symBinAddr: 0xEAC0, symSize: 0x50 }
  - { offset: 0x17AE8, size: 0x8, addend: 0x0, symName: __RNvXsH_NtCsieiGu2EXtoJ_4core3fmtNtB5_5ErrorNtB5_5Debug3fmtCs25VvWdXQPOU_5paste, symObjAddr: 0x3470, symBinAddr: 0xEB90, symSize: 0x40 }
  - { offset: 0x17CAE, size: 0x8, addend: 0x0, symName: __RINvNtCsieiGu2EXtoJ_4core3mem7replaceNtNtCslJiobkLta79_5alloc6string6StringECs25VvWdXQPOU_5paste, symObjAddr: 0x120, symBinAddr: 0xB840, symSize: 0x40 }
  - { offset: 0x1817A, size: 0x8, addend: 0x0, symName: __RINvXNtNtNtCsieiGu2EXtoJ_4core4iter6traits8iteratorQINtNtNtB7_8adapters8peekable8PeekableNtNtCscKtU6MdFI5n_10proc_macro12token_stream8IntoIterENtB3_8Iterator8try_foldjNCINvNvXs7_NtBT_4takeINtB2Q_4TakepENtB2Q_8SpecTake13spec_for_each5checkNtB1t_9TokenTreeNCINvXsi_B1t_NtB1t_11TokenStreamINtNtB5_7collect6ExtendB3O_E6extendIB31_BN_EE0E0INtNtB9_6option6OptionjEECs25VvWdXQPOU_5paste, symObjAddr: 0x6A0, symBinAddr: 0xBDC0, symSize: 0x20 }
  - { offset: 0x181EA, size: 0x8, addend: 0x0, symName: __RNvXNtNtNtCsieiGu2EXtoJ_4core4iter6traits8iteratorQINtNtNtB6_8adapters8peekable8PeekableNtNtCscKtU6MdFI5n_10proc_macro12token_stream8IntoIterENtB2_8Iterator9size_hintCs25VvWdXQPOU_5paste, symObjAddr: 0x30D0, symBinAddr: 0xE7F0, symSize: 0x30 }
  - { offset: 0x18227, size: 0x8, addend: 0x0, symName: __RINvXs0_NtNtNtCsieiGu2EXtoJ_4core4iter6traits8iteratorQINtNtNtBa_8adapters8peekable8PeekableNtNtCscKtU6MdFI5n_10proc_macro12token_stream8IntoIterENtB6_15IteratorRefSpec13spec_try_foldjNCINvNvXs7_NtBW_4takeINtB37_4TakepENtB37_8SpecTake13spec_for_each5checkNtB1w_9TokenTreeNCINvXsi_B1w_NtB1w_11TokenStreamINtNtB8_7collect6ExtendB45_E6extendIB3i_BQ_EE0E0INtNtBc_6option6OptionjEECs25VvWdXQPOU_5paste, symObjAddr: 0x6C0, symBinAddr: 0xBDE0, symSize: 0x30 }
  - { offset: 0x1829D, size: 0x8, addend: 0x0, symName: __RNvYINtNtNtNtCsieiGu2EXtoJ_4core4iter8adapters8peekable8PeekableNtNtCscKtU6MdFI5n_10proc_macro12token_stream8IntoIterENtNtNtB9_6traits8iterator8Iterator6by_refCs25VvWdXQPOU_5paste, symObjAddr: 0x3A50, symBinAddr: 0xF170, symSize: 0x10 }
  - { offset: 0x182D4, size: 0x8, addend: 0x0, symName: __RNvYQINtNtNtNtCsieiGu2EXtoJ_4core4iter8adapters8peekable8PeekableNtNtCscKtU6MdFI5n_10proc_macro12token_stream8IntoIterENtNtNtBa_6traits8iterator8Iterator4takeCs25VvWdXQPOU_5paste, symObjAddr: 0x3A80, symBinAddr: 0xF1A0, symSize: 0x20 }
  - { offset: 0x1832C, size: 0x8, addend: 0x0, symName: __RINvXs_NtNtNtCsieiGu2EXtoJ_4core4iter8adapters8peekableINtB5_8PeekableNtNtCscKtU6MdFI5n_10proc_macro12token_stream8IntoIterENtNtNtB9_6traits8iterator8Iterator8try_foldjNCINvNvXs7_NtB7_4takeINtB2R_4TakepENtB2R_8SpecTake13spec_for_each5checkNtB1a_9TokenTreeNCINvXsi_B1a_NtB1a_11TokenStreamINtNtB22_7collect6ExtendB3P_E6extendIB32_QBR_EE0E0INtNtBb_6option6OptionjEECs25VvWdXQPOU_5paste, symObjAddr: 0x6F0, symBinAddr: 0xBE10, symSize: 0x2A0 }
  - { offset: 0x18432, size: 0x8, addend: 0x0, symName: __RNvXs_NtNtNtCsieiGu2EXtoJ_4core4iter8adapters8peekableINtB4_8PeekableNtNtCscKtU6MdFI5n_10proc_macro12token_stream8IntoIterENtNtNtB8_6traits8iterator8Iterator4nextCs25VvWdXQPOU_5paste, symObjAddr: 0x3540, symBinAddr: 0xEC60, symSize: 0xC0 }
  - { offset: 0x184BF, size: 0x8, addend: 0x0, symName: __RNvXs_NtNtNtCsieiGu2EXtoJ_4core4iter8adapters8peekableINtB4_8PeekableNtNtCscKtU6MdFI5n_10proc_macro12token_stream8IntoIterENtNtNtB8_6traits8iterator8Iterator9size_hintCs25VvWdXQPOU_5paste, symObjAddr: 0x3600, symBinAddr: 0xED20, symSize: 0x1B0 }
  - { offset: 0x185E2, size: 0x8, addend: 0x0, symName: __RNCNvMs3_NtNtNtCsieiGu2EXtoJ_4core4iter8adapters8peekableINtB7_8PeekableNtNtCscKtU6MdFI5n_10proc_macro12token_stream8IntoIterE4peek0Cs25VvWdXQPOU_5paste, symObjAddr: 0x1050, symBinAddr: 0xC770, symSize: 0x30 }
  - { offset: 0x187B2, size: 0x8, addend: 0x0, symName: __RNvMNtCsieiGu2EXtoJ_4core5sliceSc12chunks_exactCs25VvWdXQPOU_5paste, symObjAddr: 0x1560, symBinAddr: 0xCC80, symSize: 0x160 }
  - { offset: 0x188AB, size: 0x8, addend: 0x0, symName: __RNvMNtCsieiGu2EXtoJ_4core5sliceSc18split_at_uncheckedCs25VvWdXQPOU_5paste, symObjAddr: 0x16C0, symBinAddr: 0xCDE0, symSize: 0xF0 }
  - { offset: 0x18A53, size: 0x8, addend: 0x0, symName: __RNvMNtCsieiGu2EXtoJ_4core5sliceSh15copy_from_sliceCs25VvWdXQPOU_5paste, symObjAddr: 0x17B0, symBinAddr: 0xCED0, symSize: 0xA0 }
  - { offset: 0x18B23, size: 0x8, addend: 0x0, symName: __RNvNvMNtCsieiGu2EXtoJ_4core5sliceSp18split_at_unchecked18precondition_checkCs25VvWdXQPOU_5paste, symObjAddr: 0x2250, symBinAddr: 0xD970, symSize: 0xA0 }
  - { offset: 0x18BF7, size: 0x8, addend: 0x0, symName: __RNvNvNtNtCsieiGu2EXtoJ_4core5slice3raw14from_raw_parts18precondition_checkCs25VvWdXQPOU_5paste, symObjAddr: 0x2BF0, symBinAddr: 0xE310, symSize: 0x260 }
  - { offset: 0x18DC5, size: 0x8, addend: 0x0, symName: __RNvNvNtNtCsieiGu2EXtoJ_4core5slice3raw18from_raw_parts_mut18precondition_checkCs25VvWdXQPOU_5paste, symObjAddr: 0x2E50, symBinAddr: 0xE570, symSize: 0x260 }
  - { offset: 0x18F9F, size: 0x8, addend: 0x0, symName: __RNvMNtNtCsieiGu2EXtoJ_4core4char7methodsc12is_uppercaseCs25VvWdXQPOU_5paste, symObjAddr: 0x1850, symBinAddr: 0xCF70, symSize: 0x50 }
  - { offset: 0x18FE3, size: 0x8, addend: 0x0, symName: __RNvMNtNtCsieiGu2EXtoJ_4core4char7methodsc12to_lowercaseCs25VvWdXQPOU_5paste, symObjAddr: 0x18A0, symBinAddr: 0xCFC0, symSize: 0x60 }
  - { offset: 0x19011, size: 0x8, addend: 0x0, symName: __RNvMNtNtCsieiGu2EXtoJ_4core4char7methodsc12to_uppercaseCs25VvWdXQPOU_5paste, symObjAddr: 0x1900, symBinAddr: 0xD020, symSize: 0x60 }
  - { offset: 0x1907B, size: 0x8, addend: 0x0, symName: __RNvMNtNtCsieiGu2EXtoJ_4core4char7methodsc14escape_defaultCs25VvWdXQPOU_5paste, symObjAddr: 0x1960, symBinAddr: 0xD080, symSize: 0x300 }
  - { offset: 0x192C7, size: 0x8, addend: 0x0, symName: __RNvMNtNtCsieiGu2EXtoJ_4core4char7methodsc14is_ascii_digitCs25VvWdXQPOU_5paste, symObjAddr: 0x1C60, symBinAddr: 0xD380, symSize: 0x40 }
  - { offset: 0x192F5, size: 0x8, addend: 0x0, symName: __RNvMNtNtCsieiGu2EXtoJ_4core4char7methodsc8to_digitCs25VvWdXQPOU_5paste, symObjAddr: 0x1CA0, symBinAddr: 0xD3C0, symSize: 0xF0 }
  - { offset: 0x193F5, size: 0x8, addend: 0x0, symName: __RNvNtNtCsieiGu2EXtoJ_4core4char7methods15encode_utf8_rawCs25VvWdXQPOU_5paste, symObjAddr: 0x2030, symBinAddr: 0xD750, symSize: 0xE0 }
  - { offset: 0x194F5, size: 0x8, addend: 0x0, symName: __RNvNtNtCsieiGu2EXtoJ_4core4char7methods25encode_utf8_raw_uncheckedCs25VvWdXQPOU_5paste, symObjAddr: 0x2110, symBinAddr: 0xD830, symSize: 0x140 }
  - { offset: 0x19B17, size: 0x8, addend: 0x0, symName: __RNvNvNtCsieiGu2EXtoJ_4core4hint16assert_unchecked18precondition_checkCs25VvWdXQPOU_5paste, symObjAddr: 0x2AD0, symBinAddr: 0xE1F0, symSize: 0xA0 }
  - { offset: 0x19B77, size: 0x8, addend: 0x0, symName: __RNvNvNtCsieiGu2EXtoJ_4core4hint21unreachable_unchecked18precondition_checkCs25VvWdXQPOU_5paste, symObjAddr: 0x2B70, symBinAddr: 0xE290, symSize: 0x80 }
  - { offset: 0x19BDC, size: 0x8, addend: 0x0, symName: __RNvXNtNtCsieiGu2EXtoJ_4core3cmp5implsuNtB4_9PartialEq2eqCs25VvWdXQPOU_5paste, symObjAddr: 0x30B0, symBinAddr: 0xE7D0, symSize: 0x20 }
  - { offset: 0x19C20, size: 0x8, addend: 0x0, symName: __RNvYNtCscKtU6MdFI5n_10proc_macro9DelimiterNtNtCsieiGu2EXtoJ_4core3cmp9PartialEq2neCs25VvWdXQPOU_5paste, symObjAddr: 0x3A60, symBinAddr: 0xF180, symSize: 0x20 }
  - { offset: 0x1A327, size: 0x8, addend: 0x0, symName: __RINvNvNtNtCscKtU6MdFI5n_10proc_macro6bridge14selfless_reify31reify_to_extern_c_fn_hrt_bridge7wrapperNtNtB6_6buffer6BufferNCINvMs6_NtB6_6clientINtB24_6ClientNtB8_11TokenStreamB2u_E7expand1NvCs25VvWdXQPOU_5paste4exprE0EB31_, symObjAddr: 0x4C0, symBinAddr: 0xBBE0, symSize: 0xA0 }
  - { offset: 0x1A3BF, size: 0x8, addend: 0x0, symName: __RINvNvNtNtCscKtU6MdFI5n_10proc_macro6bridge14selfless_reify31reify_to_extern_c_fn_hrt_bridge7wrapperNtNtB6_6buffer6BufferNCINvMs6_NtB6_6clientINtB24_6ClientNtB8_11TokenStreamB2u_E7expand1NvCs25VvWdXQPOU_5paste4itemE0EB31_, symObjAddr: 0x560, symBinAddr: 0xBC80, symSize: 0xA0 }
  - { offset: 0x1A457, size: 0x8, addend: 0x0, symName: __RINvNvNtNtCscKtU6MdFI5n_10proc_macro6bridge14selfless_reify31reify_to_extern_c_fn_hrt_bridge7wrapperNtNtB6_6buffer6BufferNCINvMs6_NtB6_6clientINtB24_6ClientNtB8_11TokenStreamB2u_E7expand1NvCs25VvWdXQPOU_5paste5pasteE0EB31_, symObjAddr: 0x600, symBinAddr: 0xBD20, symSize: 0xA0 }
  - { offset: 0x1A603, size: 0x8, addend: 0x0, symName: __RNvXs10_NtCscKtU6MdFI5n_10proc_macro6bridgeINtB6_9DelimSpanNtNtB6_6client4SpanENtNtCsieiGu2EXtoJ_4core5clone5Clone5cloneCs25VvWdXQPOU_5paste, symObjAddr: 0x3140, symBinAddr: 0xE860, symSize: 0xA0 }
  - { offset: 0x1A640, size: 0x8, addend: 0x0, symName: __RNvXs15_NtCscKtU6MdFI5n_10proc_macro6bridgeINtB6_5GroupNtNtB6_6client11TokenStreamNtBT_4SpanENtNtCsieiGu2EXtoJ_4core5clone5Clone5cloneCs25VvWdXQPOU_5paste, symObjAddr: 0x3200, symBinAddr: 0xE920, symSize: 0xD0 }
  - { offset: 0x1A6DC, size: 0x8, addend: 0x0, symName: __RNvXs1J_NtCscKtU6MdFI5n_10proc_macro6bridgeINtB6_11ExpnGlobalsNtNtB6_6client4SpanEINtNtB6_3rpc9DecodeMutuE6decodeCs25VvWdXQPOU_5paste, symObjAddr: 0x32D0, symBinAddr: 0xE9F0, symSize: 0xA0 }
  - { offset: 0x1A733, size: 0x8, addend: 0x0, symName: __RNvXs9_NtNtCscKtU6MdFI5n_10proc_macro6bridge3rpcTINtB7_11ExpnGlobalsNtNtB7_6client4SpanENtB16_11TokenStreamEINtB5_9DecodeMutuE6decodeCs25VvWdXQPOU_5paste, symObjAddr: 0x33F0, symBinAddr: 0xEB10, symSize: 0x80 }
  - { offset: 0x1A932, size: 0x8, addend: 0x0, symName: __RINvXsg_CscKtU6MdFI5n_10proc_macroNtB6_11TokenStreamINtNtNtNtCsieiGu2EXtoJ_4core4iter6traits7collect12FromIteratorNtB6_9TokenTreeE9from_iterINtNtCslJiobkLta79_5alloc3vec3VecB1O_EECs25VvWdXQPOU_5paste, symObjAddr: 0x990, symBinAddr: 0xC0B0, symSize: 0x130 }
  - { offset: 0x1A998, size: 0x8, addend: 0x0, symName: __RINvXsg_CscKtU6MdFI5n_10proc_macroNtB6_11TokenStreamINtNtNtNtCsieiGu2EXtoJ_4core4iter6traits7collect12FromIteratorNtB6_9TokenTreeE9from_iterINtNtNtBV_8adapters5chain5ChainINtNtB2j_4take4TakeNtNtB6_12token_stream8IntoIterEINtNtNtBV_7sources4once4OnceB1O_EEECs25VvWdXQPOU_5paste, symObjAddr: 0xAC0, symBinAddr: 0xC1E0, symSize: 0x170 }
  - { offset: 0x1AA03, size: 0x8, addend: 0x0, symName: __RNCINvXsg_CscKtU6MdFI5n_10proc_macroNtB8_11TokenStreamINtNtNtNtCsieiGu2EXtoJ_4core4iter6traits7collect12FromIteratorNtB8_9TokenTreeE9from_iterINtNtCslJiobkLta79_5alloc3vec3VecB1Q_EE0Cs25VvWdXQPOU_5paste, symObjAddr: 0xFB0, symBinAddr: 0xC6D0, symSize: 0x20 }
  - { offset: 0x1AA49, size: 0x8, addend: 0x0, symName: __RNCINvXsg_CscKtU6MdFI5n_10proc_macroNtB8_11TokenStreamINtNtNtNtCsieiGu2EXtoJ_4core4iter6traits7collect12FromIteratorNtB8_9TokenTreeE9from_iterINtNtNtBX_8adapters5chain5ChainINtNtB2l_4take4TakeNtNtB8_12token_stream8IntoIterEINtNtNtBX_7sources4once4OnceB1Q_EEE0Cs25VvWdXQPOU_5paste, symObjAddr: 0xFD0, symBinAddr: 0xC6F0, symSize: 0x20 }
  - { offset: 0x1AA96, size: 0x8, addend: 0x0, symName: __RINvXsi_CscKtU6MdFI5n_10proc_macroNtB6_11TokenStreamINtNtNtNtCsieiGu2EXtoJ_4core4iter6traits7collect6ExtendNtB6_9TokenTreeE6extendBw_ECs25VvWdXQPOU_5paste, symObjAddr: 0xC30, symBinAddr: 0xC350, symSize: 0x140 }
  - { offset: 0x1AB06, size: 0x8, addend: 0x0, symName: __RINvXsi_CscKtU6MdFI5n_10proc_macroNtB6_11TokenStreamINtNtNtNtCsieiGu2EXtoJ_4core4iter6traits7collect6ExtendNtB6_9TokenTreeE6extendINtNtNtBV_7sources4once4OnceB1H_EECs25VvWdXQPOU_5paste, symObjAddr: 0xD70, symBinAddr: 0xC490, symSize: 0x120 }
  - { offset: 0x1AB77, size: 0x8, addend: 0x0, symName: __RINvXsi_CscKtU6MdFI5n_10proc_macroNtB6_11TokenStreamINtNtNtNtCsieiGu2EXtoJ_4core4iter6traits7collect6ExtendNtB6_9TokenTreeE6extendINtNtNtBV_8adapters4take4TakeQINtNtB29_8peekable8PeekableNtNtB6_12token_stream8IntoIterEEECs25VvWdXQPOU_5paste, symObjAddr: 0xE90, symBinAddr: 0xC5B0, symSize: 0x120 }
  - { offset: 0x1ABEC, size: 0x8, addend: 0x0, symName: __RNCINvXsi_CscKtU6MdFI5n_10proc_macroNtB8_11TokenStreamINtNtNtNtCsieiGu2EXtoJ_4core4iter6traits7collect6ExtendNtB8_9TokenTreeE6extendBy_E0Cs25VvWdXQPOU_5paste, symObjAddr: 0xFF0, symBinAddr: 0xC710, symSize: 0x20 }
  - { offset: 0x1AC32, size: 0x8, addend: 0x0, symName: __RNCINvXsi_CscKtU6MdFI5n_10proc_macroNtB8_11TokenStreamINtNtNtNtCsieiGu2EXtoJ_4core4iter6traits7collect6ExtendNtB8_9TokenTreeE6extendINtNtNtBX_7sources4once4OnceB1J_EE0Cs25VvWdXQPOU_5paste, symObjAddr: 0x1010, symBinAddr: 0xC730, symSize: 0x20 }
  - { offset: 0x1AC78, size: 0x8, addend: 0x0, symName: __RNCINvXsi_CscKtU6MdFI5n_10proc_macroNtB8_11TokenStreamINtNtNtNtCsieiGu2EXtoJ_4core4iter6traits7collect6ExtendNtB8_9TokenTreeE6extendINtNtNtBX_8adapters4take4TakeQINtNtB2b_8peekable8PeekableNtNtB8_12token_stream8IntoIterEEE0Cs25VvWdXQPOU_5paste, symObjAddr: 0x1030, symBinAddr: 0xC750, symSize: 0x20 }
  - { offset: 0x1ACF3, size: 0x8, addend: 0x0, symName: __RNvXs10_CscKtU6MdFI5n_10proc_macroNtB6_5GroupNtNtCsieiGu2EXtoJ_4core5clone5Clone5cloneCs25VvWdXQPOU_5paste, symObjAddr: 0x3100, symBinAddr: 0xE820, symSize: 0x40 }
  - { offset: 0x1AD27, size: 0x8, addend: 0x0, symName: __RNvXs15_CscKtU6MdFI5n_10proc_macroNtB6_9DelimiterNtNtCsieiGu2EXtoJ_4core3cmp9PartialEq2eqCs25VvWdXQPOU_5paste, symObjAddr: 0x31E0, symBinAddr: 0xE900, symSize: 0x20 }
  - { offset: 0x1AD8E, size: 0x8, addend: 0x0, symName: __RNvXs1c_CscKtU6MdFI5n_10proc_macroNtB6_7SpacingNtNtCsieiGu2EXtoJ_4core3cmp9PartialEq2eqCs25VvWdXQPOU_5paste, symObjAddr: 0x3370, symBinAddr: 0xEA90, symSize: 0x30 }
  - { offset: 0x1ADD1, size: 0x8, addend: 0x0, symName: __RNvXsU_CscKtU6MdFI5n_10proc_macroNtB5_11TokenStreamNtNtCsieiGu2EXtoJ_4core5clone5Clone5cloneCs25VvWdXQPOU_5paste, symObjAddr: 0x34B0, symBinAddr: 0xEBD0, symSize: 0x50 }
  - { offset: 0x1AE3A, size: 0x8, addend: 0x0, symName: __RNvXsV_CscKtU6MdFI5n_10proc_macroNtB5_8LexErrorNtNtCsieiGu2EXtoJ_4core3fmt5Debug3fmtCs25VvWdXQPOU_5paste, symObjAddr: 0x3500, symBinAddr: 0xEC20, symSize: 0x40 }
  - { offset: 0x1B060, size: 0x8, addend: 0x0, symName: __RINvMs_NtNtCsieiGu2EXtoJ_4core3fmt2rtNtB7_9Arguments6new_v1Kj1_KBW_ECs25VvWdXQPOU_5paste, symObjAddr: 0x40, symBinAddr: 0xB760, symSize: 0x40 }
  - { offset: 0x1B0AA, size: 0x8, addend: 0x0, symName: __RINvMs_NtNtCsieiGu2EXtoJ_4core3fmt2rtNtB7_9Arguments6new_v1Kj2_Kj1_ECs25VvWdXQPOU_5paste, symObjAddr: 0x80, symBinAddr: 0xB7A0, symSize: 0x40 }
  - { offset: 0x1B0E4, size: 0x8, addend: 0x0, symName: __RINvNtCsHUR1vrdMJt_3std3env3varRNtNtCslJiobkLta79_5alloc6string6StringECs25VvWdXQPOU_5paste, symObjAddr: 0xC0, symBinAddr: 0xB7E0, symSize: 0x60 }
  - { offset: 0x1B179, size: 0x8, addend: 0x0, symName: __RINvNvNtCsHUR1vrdMJt_3std9panicking12catch_unwind7do_callINtNtNtCsieiGu2EXtoJ_4core5panic11unwind_safe16AssertUnwindSafeNCINvNtNtCscKtU6MdFI5n_10proc_macro6bridge6client10run_clientNtB1Z_11TokenStreamINtNtB10_6option6OptionB2T_ENCNCINvMs6_B1Z_INtB1Z_6ClientNtB23_11TokenStreamB47_E7expand1NvCs25VvWdXQPOU_5paste4exprE00E0EuEB4F_, symObjAddr: 0x160, symBinAddr: 0xB880, symSize: 0x40 }
  - { offset: 0x1B242, size: 0x8, addend: 0x0, symName: __RINvNvNtCsHUR1vrdMJt_3std9panicking12catch_unwind7do_callINtNtNtCsieiGu2EXtoJ_4core5panic11unwind_safe16AssertUnwindSafeNCINvNtNtCscKtU6MdFI5n_10proc_macro6bridge6client10run_clientNtB1Z_11TokenStreamINtNtB10_6option6OptionB2T_ENCNCINvMs6_B1Z_INtB1Z_6ClientNtB23_11TokenStreamB47_E7expand1NvCs25VvWdXQPOU_5paste4itemE00E0EuEB4F_, symObjAddr: 0x1A0, symBinAddr: 0xB8C0, symSize: 0x40 }
  - { offset: 0x1B30B, size: 0x8, addend: 0x0, symName: __RINvNvNtCsHUR1vrdMJt_3std9panicking12catch_unwind7do_callINtNtNtCsieiGu2EXtoJ_4core5panic11unwind_safe16AssertUnwindSafeNCINvNtNtCscKtU6MdFI5n_10proc_macro6bridge6client10run_clientNtB1Z_11TokenStreamINtNtB10_6option6OptionB2T_ENCNCINvMs6_B1Z_INtB1Z_6ClientNtB23_11TokenStreamB47_E7expand1NvCs25VvWdXQPOU_5paste5pasteE00E0EuEB4F_, symObjAddr: 0x1E0, symBinAddr: 0xB900, symSize: 0x40 }
  - { offset: 0x1B3D4, size: 0x8, addend: 0x0, symName: __RINvNvNtCsHUR1vrdMJt_3std9panicking12catch_unwind7do_callNCNvCs25VvWdXQPOU_5paste16pasted_to_tokenss0_0NtCscKtU6MdFI5n_10proc_macro5IdentEBX_, symObjAddr: 0x220, symBinAddr: 0xB940, symSize: 0x60 }
  - { offset: 0x1B4BA, size: 0x8, addend: 0x0, symName: __RINvNvNtCsHUR1vrdMJt_3std9panicking12catch_unwind7do_callNCNvCs25VvWdXQPOU_5paste16pasted_to_tokenss_0INtNtCsieiGu2EXtoJ_4core6result6ResultNtCscKtU6MdFI5n_10proc_macro7LiteralNtB2g_8LexErrorEEBX_, symObjAddr: 0x280, symBinAddr: 0xB9A0, symSize: 0x60 }
  - { offset: 0x1B5A0, size: 0x8, addend: 0x0, symName: __RINvNvNtCsHUR1vrdMJt_3std9panicking12catch_unwind8do_catchINtNtNtCsieiGu2EXtoJ_4core5panic11unwind_safe16AssertUnwindSafeNCINvNtNtCscKtU6MdFI5n_10proc_macro6bridge6client10run_clientNtB20_11TokenStreamINtNtB11_6option6OptionB2U_ENCNCINvMs6_B20_INtB20_6ClientNtB24_11TokenStreamB48_E7expand1NvCs25VvWdXQPOU_5paste4exprE00E0EuEB4G_, symObjAddr: 0x2E0, symBinAddr: 0xBA00, symSize: 0x60 }
  - { offset: 0x1B635, size: 0x8, addend: 0x0, symName: __RINvNvNtCsHUR1vrdMJt_3std9panicking12catch_unwind8do_catchINtNtNtCsieiGu2EXtoJ_4core5panic11unwind_safe16AssertUnwindSafeNCINvNtNtCscKtU6MdFI5n_10proc_macro6bridge6client10run_clientNtB20_11TokenStreamINtNtB11_6option6OptionB2U_ENCNCINvMs6_B20_INtB20_6ClientNtB24_11TokenStreamB48_E7expand1NvCs25VvWdXQPOU_5paste4itemE00E0EuEB4G_, symObjAddr: 0x340, symBinAddr: 0xBA60, symSize: 0x60 }
  - { offset: 0x1B6CA, size: 0x8, addend: 0x0, symName: __RINvNvNtCsHUR1vrdMJt_3std9panicking12catch_unwind8do_catchINtNtNtCsieiGu2EXtoJ_4core5panic11unwind_safe16AssertUnwindSafeNCINvNtNtCscKtU6MdFI5n_10proc_macro6bridge6client10run_clientNtB20_11TokenStreamINtNtB11_6option6OptionB2U_ENCNCINvMs6_B20_INtB20_6ClientNtB24_11TokenStreamB48_E7expand1NvCs25VvWdXQPOU_5paste5pasteE00E0EuEB4G_, symObjAddr: 0x3A0, symBinAddr: 0xBAC0, symSize: 0x60 }
  - { offset: 0x1B75F, size: 0x8, addend: 0x0, symName: __RINvNvNtCsHUR1vrdMJt_3std9panicking12catch_unwind8do_catchNCNvCs25VvWdXQPOU_5paste16pasted_to_tokenss0_0NtCscKtU6MdFI5n_10proc_macro5IdentEBY_, symObjAddr: 0x400, symBinAddr: 0xBB20, symSize: 0x60 }
  - { offset: 0x1B7F4, size: 0x8, addend: 0x0, symName: __RINvNvNtCsHUR1vrdMJt_3std9panicking12catch_unwind8do_catchNCNvCs25VvWdXQPOU_5paste16pasted_to_tokenss_0INtNtCsieiGu2EXtoJ_4core6result6ResultNtCscKtU6MdFI5n_10proc_macro7LiteralNtB2h_8LexErrorEEBY_, symObjAddr: 0x460, symBinAddr: 0xBB80, symSize: 0x60 }
  - { offset: 0x1BD95, size: 0x8, addend: 0x0, symName: __RNvMNtCs25VvWdXQPOU_5paste5errorNtB2_5Error16to_compile_error, symObjAddr: 0x1080, symBinAddr: 0xC7A0, symSize: 0x420 }
  - { offset: 0x1BE08, size: 0x8, addend: 0x0, symName: __RNvMNtCs25VvWdXQPOU_5paste5errorNtB2_5Error3new, symObjAddr: 0x14A0, symBinAddr: 0xCBC0, symSize: 0x40 }
  - { offset: 0x1BE38, size: 0x8, addend: 0x0, symName: __RNvMNtCs25VvWdXQPOU_5paste5errorNtB2_5Error4new2, symObjAddr: 0x14E0, symBinAddr: 0xCC00, symSize: 0x80 }
  - { offset: 0x1C138, size: 0x8, addend: 0x0, symName: __RNvMs3_NtNtNtCsieiGu2EXtoJ_4core4iter8adapters8peekableINtB5_8PeekableNtNtCscKtU6MdFI5n_10proc_macro12token_stream8IntoIterE4peekCs25VvWdXQPOU_5paste, symObjAddr: 0x1D90, symBinAddr: 0xD4B0, symSize: 0x70 }
  - { offset: 0x1C1B7, size: 0x8, addend: 0x0, symName: __RNvMs8_CscKtU6MdFI5n_10proc_macroNtB5_11TokenStream3newCs25VvWdXQPOU_5paste, symObjAddr: 0x1E00, symBinAddr: 0xD520, symSize: 0x10 }
  - { offset: 0x1C1D7, size: 0x8, addend: 0x0, symName: __RNvMsE_CscKtU6MdFI5n_10proc_macroNtB5_5Punct4spanCs25VvWdXQPOU_5paste, symObjAddr: 0x1E10, symBinAddr: 0xD530, symSize: 0x10 }
  - { offset: 0x1C1FA, size: 0x8, addend: 0x0, symName: __RNvMsE_CscKtU6MdFI5n_10proc_macroNtB5_5Punct7as_charCs25VvWdXQPOU_5paste, symObjAddr: 0x1E20, symBinAddr: 0xD540, symSize: 0x10 }
  - { offset: 0x1C21D, size: 0x8, addend: 0x0, symName: __RNvMsE_CscKtU6MdFI5n_10proc_macroNtB5_5Punct7spacingCs25VvWdXQPOU_5paste, symObjAddr: 0x1E30, symBinAddr: 0xD550, symSize: 0x20 }
  - { offset: 0x1C24D, size: 0x8, addend: 0x0, symName: __RNvMsE_CscKtU6MdFI5n_10proc_macroNtB5_5Punct8set_spanCs25VvWdXQPOU_5paste, symObjAddr: 0x1E50, symBinAddr: 0xD570, symSize: 0x10 }
  - { offset: 0x1C28C, size: 0x8, addend: 0x0, symName: __RNvMsJ_CscKtU6MdFI5n_10proc_macroNtB5_5Ident4spanCs25VvWdXQPOU_5paste, symObjAddr: 0x1E60, symBinAddr: 0xD580, symSize: 0x10 }
  - { offset: 0x1C2BC, size: 0x8, addend: 0x0, symName: __RNvMsM_CscKtU6MdFI5n_10proc_macroNtB5_7Literal4spanCs25VvWdXQPOU_5paste, symObjAddr: 0x1E70, symBinAddr: 0xD590, symSize: 0x10 }
  - { offset: 0x1C2EC, size: 0x8, addend: 0x0, symName: __RNvMsM_CscKtU6MdFI5n_10proc_macroNtB5_7Literal8set_spanCs25VvWdXQPOU_5paste, symObjAddr: 0x1E80, symBinAddr: 0xD5A0, symSize: 0x10 }
  - { offset: 0x1C377, size: 0x8, addend: 0x0, symName: __RNvMsq_CscKtU6MdFI5n_10proc_macroNtB5_9TokenTree4spanCs25VvWdXQPOU_5paste, symObjAddr: 0x1E90, symBinAddr: 0xD5B0, symSize: 0x90 }
  - { offset: 0x1C541, size: 0x8, addend: 0x0, symName: __RNvMsq_CscKtU6MdFI5n_10proc_macroNtB5_9TokenTree8set_spanCs25VvWdXQPOU_5paste, symObjAddr: 0x1F20, symBinAddr: 0xD640, symSize: 0xC0 }
  - { offset: 0x1C69A, size: 0x8, addend: 0x0, symName: __RNvMsz_CscKtU6MdFI5n_10proc_macroNtB5_5Group4spanCs25VvWdXQPOU_5paste, symObjAddr: 0x1FE0, symBinAddr: 0xD700, symSize: 0x10 }
  - { offset: 0x1C6CD, size: 0x8, addend: 0x0, symName: __RNvMsz_CscKtU6MdFI5n_10proc_macroNtB5_5Group8set_spanCs25VvWdXQPOU_5paste, symObjAddr: 0x1FF0, symBinAddr: 0xD710, symSize: 0x30 }
  - { offset: 0x1C714, size: 0x8, addend: 0x0, symName: __RNvMsz_CscKtU6MdFI5n_10proc_macroNtB5_5Group9delimiterCs25VvWdXQPOU_5paste, symObjAddr: 0x2020, symBinAddr: 0xD740, symSize: 0x10 }
  - { offset: 0x1CA7C, size: 0x8, addend: 0x0, symName: __RINvMNtCsieiGu2EXtoJ_4core3stre11starts_withNCNvCs25VvWdXQPOU_5paste16pasted_to_tokens0EBK_, symObjAddr: 0x0, symBinAddr: 0xF1C0, symSize: 0x20 }
  - { offset: 0x1CC5C, size: 0x8, addend: 0x0, symName: __RNCINvNtNtCscKtU6MdFI5n_10proc_macro6bridge6client10run_clientNtB4_11TokenStreamINtNtCsieiGu2EXtoJ_4core6option6OptionBY_ENCNCINvMs6_B4_INtB4_6ClientNtB8_11TokenStreamB2n_E7expand1NvCs25VvWdXQPOU_5paste4exprE00E0B2U_, symObjAddr: 0x1220, symBinAddr: 0x103C0, symSize: 0x420 }
  - { offset: 0x1CE7D, size: 0x8, addend: 0x0, symName: __RNCINvNtNtCscKtU6MdFI5n_10proc_macro6bridge6client10run_clientNtB4_11TokenStreamINtNtCsieiGu2EXtoJ_4core6option6OptionBY_ENCNCINvMs6_B4_INtB4_6ClientNtB8_11TokenStreamB2n_E7expand1NvCs25VvWdXQPOU_5paste4itemE00E0B2U_, symObjAddr: 0x1640, symBinAddr: 0x107E0, symSize: 0x420 }
  - { offset: 0x1D09E, size: 0x8, addend: 0x0, symName: __RNCINvNtNtCscKtU6MdFI5n_10proc_macro6bridge6client10run_clientNtB4_11TokenStreamINtNtCsieiGu2EXtoJ_4core6option6OptionBY_ENCNCINvMs6_B4_INtB4_6ClientNtB8_11TokenStreamB2n_E7expand1NvCs25VvWdXQPOU_5paste5pasteE00E0B2U_, symObjAddr: 0x1A60, symBinAddr: 0x10C00, symSize: 0x420 }
  - { offset: 0x1D2C4, size: 0x8, addend: 0x0, symName: __RNCNCINvNtNtCscKtU6MdFI5n_10proc_macro6bridge6client10run_clientNtB6_11TokenStreamINtNtCsieiGu2EXtoJ_4core6option6OptionB10_ENCNCINvMs6_B6_INtB6_6ClientNtBa_11TokenStreamB2q_E7expand1NvCs25VvWdXQPOU_5paste4exprE00E00B2X_, symObjAddr: 0x1FD0, symBinAddr: 0x11170, symSize: 0x20 }
  - { offset: 0x1D320, size: 0x8, addend: 0x0, symName: __RNCNCINvNtNtCscKtU6MdFI5n_10proc_macro6bridge6client10run_clientNtB6_11TokenStreamINtNtCsieiGu2EXtoJ_4core6option6OptionB10_ENCNCINvMs6_B6_INtB6_6ClientNtBa_11TokenStreamB2q_E7expand1NvCs25VvWdXQPOU_5paste4itemE00E00B2X_, symObjAddr: 0x1FF0, symBinAddr: 0x11190, symSize: 0x20 }
  - { offset: 0x1D37C, size: 0x8, addend: 0x0, symName: __RNCNCINvNtNtCscKtU6MdFI5n_10proc_macro6bridge6client10run_clientNtB6_11TokenStreamINtNtCsieiGu2EXtoJ_4core6option6OptionB10_ENCNCINvMs6_B6_INtB6_6ClientNtBa_11TokenStreamB2q_E7expand1NvCs25VvWdXQPOU_5paste5pasteE00E00B2X_, symObjAddr: 0x2010, symBinAddr: 0x111B0, symSize: 0x20 }
  - { offset: 0x1D422, size: 0x8, addend: 0x0, symName: __RNCNCINvMs6_NtNtCscKtU6MdFI5n_10proc_macro6bridge6clientINtBa_6ClientNtBe_11TokenStreamB15_E7expand1NvCs25VvWdXQPOU_5paste4exprE00B1C_, symObjAddr: 0x1F70, symBinAddr: 0x11110, symSize: 0x20 }
  - { offset: 0x1D46A, size: 0x8, addend: 0x0, symName: __RNCNCINvMs6_NtNtCscKtU6MdFI5n_10proc_macro6bridge6clientINtBa_6ClientNtBe_11TokenStreamB15_E7expand1NvCs25VvWdXQPOU_5paste4itemE00B1C_, symObjAddr: 0x1F90, symBinAddr: 0x11130, symSize: 0x20 }
  - { offset: 0x1D4B2, size: 0x8, addend: 0x0, symName: __RNCNCINvMs6_NtNtCscKtU6MdFI5n_10proc_macro6bridge6clientINtBa_6ClientNtBe_11TokenStreamB15_E7expand1NvCs25VvWdXQPOU_5paste5pasteE00B1C_, symObjAddr: 0x1FB0, symBinAddr: 0x11150, symSize: 0x20 }
  - { offset: 0x1D4FB, size: 0x8, addend: 0x0, symName: __RNCINvMs6_NtNtCscKtU6MdFI5n_10proc_macro6bridge6clientINtB8_6ClientNtBc_11TokenStreamB13_E7expand1NvCs25VvWdXQPOU_5paste4exprE0B1A_, symObjAddr: 0x1190, symBinAddr: 0x10330, symSize: 0x30 }
  - { offset: 0x1D544, size: 0x8, addend: 0x0, symName: __RNCINvMs6_NtNtCscKtU6MdFI5n_10proc_macro6bridge6clientINtB8_6ClientNtBc_11TokenStreamB13_E7expand1NvCs25VvWdXQPOU_5paste4itemE0B1A_, symObjAddr: 0x11C0, symBinAddr: 0x10360, symSize: 0x30 }
  - { offset: 0x1D58D, size: 0x8, addend: 0x0, symName: __RNCINvMs6_NtNtCscKtU6MdFI5n_10proc_macro6bridge6clientINtB8_6ClientNtBc_11TokenStreamB13_E7expand1NvCs25VvWdXQPOU_5paste5pasteE0B1A_, symObjAddr: 0x11F0, symBinAddr: 0x10390, symSize: 0x30 }
  - { offset: 0x1D5F9, size: 0x8, addend: 0x0, symName: __RINvNtNtCscKtU6MdFI5n_10proc_macro6bridge6client10run_clientNtB2_11TokenStreamINtNtCsieiGu2EXtoJ_4core6option6OptionBW_ENCNCINvMs6_B2_INtB2_6ClientNtB6_11TokenStreamB2l_E7expand1NvCs25VvWdXQPOU_5paste4exprE00EB2S_, symObjAddr: 0x470, symBinAddr: 0xF610, symSize: 0x2E0 }
  - { offset: 0x1D7E3, size: 0x8, addend: 0x0, symName: __RINvNtNtCscKtU6MdFI5n_10proc_macro6bridge6client10run_clientNtB2_11TokenStreamINtNtCsieiGu2EXtoJ_4core6option6OptionBW_ENCNCINvMs6_B2_INtB2_6ClientNtB6_11TokenStreamB2l_E7expand1NvCs25VvWdXQPOU_5paste4itemE00EB2S_, symObjAddr: 0x750, symBinAddr: 0xF8F0, symSize: 0x2E0 }
  - { offset: 0x1D9CD, size: 0x8, addend: 0x0, symName: __RINvNtNtCscKtU6MdFI5n_10proc_macro6bridge6client10run_clientNtB2_11TokenStreamINtNtCsieiGu2EXtoJ_4core6option6OptionBW_ENCNCINvMs6_B2_INtB2_6ClientNtB6_11TokenStreamB2l_E7expand1NvCs25VvWdXQPOU_5paste5pasteE00EB2S_, symObjAddr: 0xA30, symBinAddr: 0xFBD0, symSize: 0x2E0 }
  - { offset: 0x1DC0A, size: 0x8, addend: 0x0, symName: __RNvXsf_NtNtCscKtU6MdFI5n_10proc_macro6bridge6clientNtB5_11TokenStreamINtNtB7_3rpc6EncodeuE6encodeCs25VvWdXQPOU_5paste, symObjAddr: 0x2F20, symBinAddr: 0x120B0, symSize: 0x40 }
  - { offset: 0x1DD1B, size: 0x8, addend: 0x0, symName: __RNvXsi_NtNtCscKtU6MdFI5n_10proc_macro6bridge6clientNtB5_11TokenStreamINtNtB7_3rpc9DecodeMutuE6decodeCs25VvWdXQPOU_5paste, symObjAddr: 0x2F60, symBinAddr: 0x120F0, symSize: 0x20 }
  - { offset: 0x1DD64, size: 0x8, addend: 0x0, symName: __RNvXsk_NtNtCscKtU6MdFI5n_10proc_macro6bridge6clientNtB5_4SpanINtNtB7_3rpc9DecodeMutuE6decodeCs25VvWdXQPOU_5paste, symObjAddr: 0x2F80, symBinAddr: 0x12110, symSize: 0x20 }
  - { offset: 0x1DDAD, size: 0x8, addend: 0x0, symName: __RNvXsm_NtNtCscKtU6MdFI5n_10proc_macro6bridge6clientNtB5_4SpanNtNtCsieiGu2EXtoJ_4core5clone5Clone5cloneCs25VvWdXQPOU_5paste, symObjAddr: 0x2FA0, symBinAddr: 0x12130, symSize: 0x10 }
  - { offset: 0x1EBF0, size: 0x8, addend: 0x0, symName: __RNvNvMs1_NtNtCsieiGu2EXtoJ_4core3ptr8non_nullINtB7_7NonNullpE13new_unchecked18precondition_checkCs25VvWdXQPOU_5paste, symObjAddr: 0x2630, symBinAddr: 0x117C0, symSize: 0x90 }
  - { offset: 0x1F0C3, size: 0x8, addend: 0x0, symName: __RINvMNtCsieiGu2EXtoJ_4core3stre11starts_withNCNvCs25VvWdXQPOU_5paste16pasted_to_tokens0EBK_, symObjAddr: 0x0, symBinAddr: 0xF1C0, symSize: 0x20 }
  - { offset: 0x1F109, size: 0x8, addend: 0x0, symName: __RINvMNtCsieiGu2EXtoJ_4core3stre11starts_withRScECs25VvWdXQPOU_5paste, symObjAddr: 0x20, symBinAddr: 0xF1E0, symSize: 0x40 }
  - { offset: 0x1F14F, size: 0x8, addend: 0x0, symName: __RINvMNtCsieiGu2EXtoJ_4core3stre11starts_withReECs25VvWdXQPOU_5paste, symObjAddr: 0x60, symBinAddr: 0xF220, symSize: 0x40 }
  - { offset: 0x1F195, size: 0x8, addend: 0x0, symName: __RINvMNtCsieiGu2EXtoJ_4core3stre11starts_withcECs25VvWdXQPOU_5paste, symObjAddr: 0xA0, symBinAddr: 0xF260, symSize: 0x30 }
  - { offset: 0x1F1E8, size: 0x8, addend: 0x0, symName: __RINvMNtCsieiGu2EXtoJ_4core3stre4findcECs25VvWdXQPOU_5paste, symObjAddr: 0xD0, symBinAddr: 0xF290, symSize: 0xD0 }
  - { offset: 0x1F282, size: 0x8, addend: 0x0, symName: __RINvMNtCsieiGu2EXtoJ_4core3stre5rfindcECs25VvWdXQPOU_5paste, symObjAddr: 0x1A0, symBinAddr: 0xF360, symSize: 0xD0 }
  - { offset: 0x1F30F, size: 0x8, addend: 0x0, symName: __RINvMNtCsieiGu2EXtoJ_4core3stre8containsRScECs25VvWdXQPOU_5paste, symObjAddr: 0x270, symBinAddr: 0xF430, symSize: 0x40 }
  - { offset: 0x1F355, size: 0x8, addend: 0x0, symName: __RINvMNtCsieiGu2EXtoJ_4core3stre9ends_withcECs25VvWdXQPOU_5paste, symObjAddr: 0x2B0, symBinAddr: 0xF470, symSize: 0x30 }
  - { offset: 0x1F39B, size: 0x8, addend: 0x0, symName: __RNvMNtCsieiGu2EXtoJ_4core3stre5charsCs25VvWdXQPOU_5paste, symObjAddr: 0x2050, symBinAddr: 0x111F0, symSize: 0x20 }
  - { offset: 0x20D00, size: 0x8, addend: 0x0, symName: __RINvXs7_NtNtNtCsieiGu2EXtoJ_4core4iter8adapters4takeINtB6_4TakeNtNtCscKtU6MdFI5n_10proc_macro12token_stream8IntoIterENtB6_8SpecTake9spec_folduQNCINvNvNtNtNtBa_6traits8iterator8Iterator8for_each4callNtB13_9TokenTreeNCINvXsg_B13_NtB13_11TokenStreamINtNtB2s_7collect12FromIteratorB3a_E9from_iterINtNtB8_5chain5ChainBO_INtNtNtBa_7sources4once4OnceB3a_EEE0E0ECs25VvWdXQPOU_5paste, symObjAddr: 0xD10, symBinAddr: 0xFEB0, symSize: 0x50 }
  - { offset: 0x20D64, size: 0x8, addend: 0x0, symName: __RINvXs7_NtNtNtCsieiGu2EXtoJ_4core4iter8adapters4takeINtB6_4TakeQINtNtB8_8peekable8PeekableNtNtCscKtU6MdFI5n_10proc_macro12token_stream8IntoIterEENtB6_8SpecTake13spec_for_eachNCINvXsi_B1u_NtB1u_11TokenStreamINtNtNtBa_6traits7collect6ExtendNtB1u_9TokenTreeE6extendBO_E0ECs25VvWdXQPOU_5paste, symObjAddr: 0xD60, symBinAddr: 0xFF00, symSize: 0x70 }
  - { offset: 0x20DCF, size: 0x8, addend: 0x0, symName: __RNCINvNvXs7_NtNtNtCsieiGu2EXtoJ_4core4iter8adapters4takeINtBa_4TakepENtBa_8SpecTake13spec_for_each5checkNtCscKtU6MdFI5n_10proc_macro9TokenTreeNCINvXsi_B1G_NtB1G_11TokenStreamINtNtNtBe_6traits7collect6ExtendB1E_E6extendIBT_QINtNtBc_8peekable8PeekableNtNtB1G_12token_stream8IntoIterEEE0E0Cs25VvWdXQPOU_5paste, symObjAddr: 0x1E80, symBinAddr: 0x11020, symSize: 0x80 }
  - { offset: 0x20E56, size: 0x8, addend: 0x0, symName: __RINvXs_NtNtNtCsieiGu2EXtoJ_4core4iter8adapters4takeINtB5_4TakeNtNtCscKtU6MdFI5n_10proc_macro12token_stream8IntoIterENtNtNtB9_6traits8iterator8Iterator4folduQNCINvNvB1Q_8for_each4callNtB12_9TokenTreeNCINvXsg_B12_NtB12_11TokenStreamINtNtB1U_7collect12FromIteratorB2U_E9from_iterINtNtB7_5chain5ChainBN_INtNtNtB9_7sources4once4OnceB2U_EEE0E0ECs25VvWdXQPOU_5paste, symObjAddr: 0xDD0, symBinAddr: 0xFF70, symSize: 0x20 }
  - { offset: 0x20EB6, size: 0x8, addend: 0x0, symName: __RINvXs_NtNtNtCsieiGu2EXtoJ_4core4iter8adapters4takeINtB5_4TakeNtNtCscKtU6MdFI5n_10proc_macro12token_stream8IntoIterENtNtNtB9_6traits8iterator8Iterator8try_folduNCINvMNtNtBb_3ops9try_traitINtB2E_17NeverShortCircuituE10wrap_mut_2uNtB12_9TokenTreeQNCINvNvB1Q_8for_each4callB3E_NCINvXsg_B12_NtB12_11TokenStreamINtNtB1U_7collect12FromIteratorB3E_E9from_iterINtNtB7_5chain5ChainBN_INtNtNtB9_7sources4once4OnceB3E_EEE0E0E0B2Z_ECs25VvWdXQPOU_5paste, symObjAddr: 0xDF0, symBinAddr: 0xFF90, symSize: 0xA0 }
  - { offset: 0x20F63, size: 0x8, addend: 0x0, symName: __RINvXs_NtNtNtCsieiGu2EXtoJ_4core4iter8adapters4takeINtB5_4TakeQINtNtB7_8peekable8PeekableNtNtCscKtU6MdFI5n_10proc_macro12token_stream8IntoIterEENtNtNtB9_6traits8iterator8Iterator8for_eachNCINvXsi_B1t_NtB1t_11TokenStreamINtNtB2m_7collect6ExtendNtB1t_9TokenTreeE6extendBN_E0ECs25VvWdXQPOU_5paste, symObjAddr: 0xE90, symBinAddr: 0x10030, symSize: 0x20 }
  - { offset: 0x20FB5, size: 0x8, addend: 0x0, symName: __RNCINvNvXs_NtNtNtCsieiGu2EXtoJ_4core4iter8adapters4takeINtB9_4TakepENtNtNtBd_6traits8iterator8Iterator8try_fold5checkNtCscKtU6MdFI5n_10proc_macro9TokenTreeuINtNtNtBf_3ops9try_trait17NeverShortCircuituENCINvMB2x_B2u_10wrap_mut_2uB1R_QNCINvNvB14_8for_each4callB1R_NCINvXsg_B1T_NtB1T_11TokenStreamINtNtB18_7collect12FromIteratorB1R_E9from_iterINtNtBb_5chain5ChainIBS_NtNtB1T_12token_stream8IntoIterEINtNtNtBd_7sources4once4OnceB1R_EEE0E0E0E0Cs25VvWdXQPOU_5paste, symObjAddr: 0x1F00, symBinAddr: 0x110A0, symSize: 0x70 }
  - { offset: 0x2107C, size: 0x8, addend: 0x0, symName: __RNvXs_NtNtNtCsieiGu2EXtoJ_4core4iter8adapters4takeINtB4_4TakeNtNtCscKtU6MdFI5n_10proc_macro12token_stream8IntoIterENtNtNtB8_6traits8iterator8Iterator9size_hintCs25VvWdXQPOU_5paste, symObjAddr: 0x2A50, symBinAddr: 0x11BE0, symSize: 0x110 }
  - { offset: 0x21159, size: 0x8, addend: 0x0, symName: __RNvXs_NtNtNtCsieiGu2EXtoJ_4core4iter8adapters4takeINtB4_4TakeQINtNtB6_8peekable8PeekableNtNtCscKtU6MdFI5n_10proc_macro12token_stream8IntoIterEENtNtNtB8_6traits8iterator8Iterator9size_hintCs25VvWdXQPOU_5paste, symObjAddr: 0x2B60, symBinAddr: 0x11CF0, symSize: 0x110 }
  - { offset: 0x21296, size: 0x8, addend: 0x0, symName: __RINvXs_NtNtNtCsieiGu2EXtoJ_4core4iter8adapters5chainINtB5_5ChainINtNtB7_4take4TakeNtNtCscKtU6MdFI5n_10proc_macro12token_stream8IntoIterEINtNtNtB9_7sources4once4OnceNtB1m_9TokenTreeEENtNtNtB9_6traits8iterator8Iterator4folduNCINvNvB2U_8for_each4callB2C_NCINvXsg_B1m_NtB1m_11TokenStreamINtNtB2Y_7collect12FromIteratorB2C_E9from_iterBO_E0E0ECs25VvWdXQPOU_5paste, symObjAddr: 0xEB0, symBinAddr: 0x10050, symSize: 0x130 }
  - { offset: 0x21333, size: 0x8, addend: 0x0, symName: __RNvXs_NtNtNtCsieiGu2EXtoJ_4core4iter8adapters5chainINtB4_5ChainINtNtB6_4take4TakeNtNtCscKtU6MdFI5n_10proc_macro12token_stream8IntoIterEINtNtNtB8_7sources4once4OnceNtB1l_9TokenTreeEENtNtNtB8_6traits8iterator8Iterator9size_hintCs25VvWdXQPOU_5paste, symObjAddr: 0x2C70, symBinAddr: 0x11E00, symSize: 0x270 }
  - { offset: 0x215AF, size: 0x8, addend: 0x0, symName: __RINvYINtNtNtNtCsieiGu2EXtoJ_4core4iter8adapters4take4TakeNtNtCscKtU6MdFI5n_10proc_macro12token_stream8IntoIterENtNtNtBa_6traits8iterator8Iterator5chainINtNtNtBa_7sources4once4OnceNtBX_9TokenTreeEECs25VvWdXQPOU_5paste, symObjAddr: 0xFE0, symBinAddr: 0x10180, symSize: 0x100 }
  - { offset: 0x21629, size: 0x8, addend: 0x0, symName: __RINvYINtNtNtNtCsieiGu2EXtoJ_4core4iter8adapters5chain5ChainINtNtB8_4take4TakeNtNtCscKtU6MdFI5n_10proc_macro12token_stream8IntoIterEINtNtNtBa_7sources4once4OnceNtB1h_9TokenTreeEENtNtNtBa_6traits8iterator8Iterator7collectNtB1h_11TokenStreamECs25VvWdXQPOU_5paste, symObjAddr: 0x10E0, symBinAddr: 0x10280, symSize: 0x90 }
  - { offset: 0x216BF, size: 0x8, addend: 0x0, symName: __RINvYINtNtNtNtCsieiGu2EXtoJ_4core4iter8adapters5chain5ChainINtNtB8_4take4TakeNtNtCscKtU6MdFI5n_10proc_macro12token_stream8IntoIterEINtNtNtBa_7sources4once4OnceNtB1h_9TokenTreeEENtNtNtBa_6traits8iterator8Iterator8for_eachNCINvXsg_B1h_NtB1h_11TokenStreamINtNtB2T_7collect12FromIteratorB2x_E9from_iterB3_E0ECs25VvWdXQPOU_5paste, symObjAddr: 0x1170, symBinAddr: 0x10310, symSize: 0x20 }
  - { offset: 0x21736, size: 0x8, addend: 0x0, symName: __RNvXNtNtNtCsieiGu2EXtoJ_4core4iter6traits7collectINtNtNtB6_8adapters4take4TakeQINtNtBQ_8peekable8PeekableNtNtCscKtU6MdFI5n_10proc_macro12token_stream8IntoIterEENtB2_12IntoIterator9into_iterCs25VvWdXQPOU_5paste, symObjAddr: 0x28C0, symBinAddr: 0x11A50, symSize: 0x20 }
  - { offset: 0x2176D, size: 0x8, addend: 0x0, symName: __RNvXNtNtNtCsieiGu2EXtoJ_4core4iter6traits7collectINtNtNtB6_8adapters5chain5ChainINtNtBQ_4take4TakeNtNtCscKtU6MdFI5n_10proc_macro12token_stream8IntoIterEINtNtNtB6_7sources4once4OnceNtB1C_9TokenTreeEENtB2_12IntoIterator9into_iterCs25VvWdXQPOU_5paste, symObjAddr: 0x28E0, symBinAddr: 0x11A70, symSize: 0x30 }
  - { offset: 0x218C8, size: 0x8, addend: 0x0, symName: __RNvNvXs0_NtNtCsieiGu2EXtoJ_4core5slice5indexjINtB7_10SliceIndexSpE13get_unchecked18precondition_checkCs25VvWdXQPOU_5paste, symObjAddr: 0x26C0, symBinAddr: 0x11850, symSize: 0xA0 }
  - { offset: 0x2193C, size: 0x8, addend: 0x0, symName: __RNvNvXs1_NtNtCsieiGu2EXtoJ_4core5slice5indexNtNtNtBb_3ops11index_range10IndexRangeINtB7_10SliceIndexSpE17get_unchecked_mut18precondition_checkCs25VvWdXQPOU_5paste, symObjAddr: 0x2760, symBinAddr: 0x118F0, symSize: 0xA0 }
  - { offset: 0x219E3, size: 0x8, addend: 0x0, symName: __RNvNvXs2_NtNtCsieiGu2EXtoJ_4core5slice5indexINtNtNtBb_3ops5range5RangejEINtB7_10SliceIndexSpE13get_unchecked18precondition_checkCs25VvWdXQPOU_5paste, symObjAddr: 0x2800, symBinAddr: 0x11990, symSize: 0xC0 }
  - { offset: 0x21B3F, size: 0x8, addend: 0x0, symName: __RNvXNtNtNtCsieiGu2EXtoJ_4core5array4iter10iter_innerSINtNtNtB8_3mem12maybe_uninit11MaybeUninitcENtB2_11PartialDrop12partial_dropCs25VvWdXQPOU_5paste, symObjAddr: 0x2910, symBinAddr: 0x11AA0, symSize: 0xB0 }
  - { offset: 0x21C55, size: 0x8, addend: 0x0, symName: __RNvXs_NtNtNtCsieiGu2EXtoJ_4core5array4iter10iter_innerAINtNtNtBa_3mem12maybe_uninit11MaybeUninitcEj3_NtB4_11PartialDrop12partial_dropCs25VvWdXQPOU_5paste, symObjAddr: 0x2EE0, symBinAddr: 0x12070, symSize: 0x40 }
  - { offset: 0x21CE2, size: 0x8, addend: 0x0, symName: __RNvXs4_NtNtCsieiGu2EXtoJ_4core5array4iterINtB5_8IntoItercKj3_ENtNtNtB9_3ops4drop4Drop4dropCs25VvWdXQPOU_5paste, symObjAddr: 0x29D0, symBinAddr: 0x11B60, symSize: 0x10 }
  - { offset: 0x22092, size: 0x8, addend: 0x0, symName: __RNvXs_NtCslJiobkLta79_5alloc5allocNtB4_6GlobalNtNtCsieiGu2EXtoJ_4core5alloc9Allocator10deallocateCs25VvWdXQPOU_5paste, symObjAddr: 0x29E0, symBinAddr: 0x11B70, symSize: 0x70 }
  - { offset: 0x2215B, size: 0x8, addend: 0x0, symName: __RNvNtCslJiobkLta79_5alloc5alloc15exchange_mallocCs25VvWdXQPOU_5paste, symObjAddr: 0x2590, symBinAddr: 0x11720, symSize: 0xA0 }
  - { offset: 0x221F7, size: 0x8, addend: 0x0, symName: __RNvXs1_NtCslJiobkLta79_5alloc5allocNtB5_6GlobalNtNtCsieiGu2EXtoJ_4core5clone5Clone5cloneCs25VvWdXQPOU_5paste, symObjAddr: 0x29C0, symBinAddr: 0x11B50, symSize: 0x10 }
  - { offset: 0x22301, size: 0x8, addend: 0x0, symName: __RINvMNtNtCsieiGu2EXtoJ_4core3fmt2rtNtB3_8Argument9new_debugNtNtCslJiobkLta79_5alloc6string6StringECs25VvWdXQPOU_5paste, symObjAddr: 0x2E0, symBinAddr: 0xF4A0, symSize: 0x30 }
  - { offset: 0x223E2, size: 0x8, addend: 0x0, symName: __RNCNvMs3_NtNtCsHUR1vrdMJt_3std6thread5localINtB7_8LocalKeyINtNtCsieiGu2EXtoJ_4core4cell4CellPuEE7replace0Cs25VvWdXQPOU_5paste, symObjAddr: 0x2030, symBinAddr: 0x111D0, symSize: 0x20 }
  - { offset: 0x226E5, size: 0x8, addend: 0x0, symName: __RINvMs2_NtNtCsHUR1vrdMJt_3std6thread5localINtB6_8LocalKeyINtNtCsieiGu2EXtoJ_4core4cell4CellPuEE4withNCNvMs3_B6_BE_7replace0B1r_ECs25VvWdXQPOU_5paste, symObjAddr: 0x310, symBinAddr: 0xF4D0, symSize: 0x50 }
  - { offset: 0x2279E, size: 0x8, addend: 0x0, symName: __RINvMs2_NtNtCsHUR1vrdMJt_3std6thread5localINtB6_8LocalKeyINtNtCsieiGu2EXtoJ_4core4cell4CellPuEE8try_withNCNvMs3_B6_BE_7replace0B1r_ECs25VvWdXQPOU_5paste, symObjAddr: 0x360, symBinAddr: 0xF520, symSize: 0xF0 }
  - { offset: 0x23178, size: 0x8, addend: 0x0, symName: __RNvMNtCslJiobkLta79_5alloc5allocNtB2_6Global10alloc_implCs25VvWdXQPOU_5paste, symObjAddr: 0x2070, symBinAddr: 0x11210, symSize: 0x290 }
  - { offset: 0x2351B, size: 0x8, addend: 0x0, symName: __RNvMs1_NtNtCsieiGu2EXtoJ_4core3ptr8non_nullINtB5_7NonNullINtNtCscKtU6MdFI5n_10proc_macro6bridge9TokenTreeNtNtBW_6client11TokenStreamNtB1H_4SpanNtNtBW_6symbol6SymbolEE20offset_from_unsignedCs25VvWdXQPOU_5paste, symObjAddr: 0x2300, symBinAddr: 0x114A0, symSize: 0x70 }
  - { offset: 0x23625, size: 0x8, addend: 0x0, symName: __RNvMs1_NtNtCsieiGu2EXtoJ_4core3ptr8non_nullINtB5_7NonNullNtCscKtU6MdFI5n_10proc_macro9TokenTreeE20offset_from_unsignedCs25VvWdXQPOU_5paste, symObjAddr: 0x2370, symBinAddr: 0x11510, symSize: 0x70 }
  - { offset: 0x2382C, size: 0x8, addend: 0x0, symName: __RNvMs1_NtNtCsieiGu2EXtoJ_4core3ptr8non_nullINtB5_7NonNullNtNtCs25VvWdXQPOU_5paste7segment7SegmentE20offset_from_unsignedBX_, symObjAddr: 0x23E0, symBinAddr: 0x11580, symSize: 0x70 }
  - { offset: 0x23936, size: 0x8, addend: 0x0, symName: __RNvMs1_NtNtCsieiGu2EXtoJ_4core3ptr8non_nullINtB5_7NonNullNtNtCslJiobkLta79_5alloc6string6StringE20offset_from_unsignedCs25VvWdXQPOU_5paste, symObjAddr: 0x2450, symBinAddr: 0x115F0, symSize: 0x70 }
  - { offset: 0x23A47, size: 0x8, addend: 0x0, symName: __RNvMs1_NtNtCsieiGu2EXtoJ_4core3ptr8non_nullINtB5_7NonNullcE20offset_from_unsignedCs25VvWdXQPOU_5paste, symObjAddr: 0x24C0, symBinAddr: 0x11660, symSize: 0x60 }
  - { offset: 0x23B37, size: 0x8, addend: 0x0, symName: __RNvMs1_NtNtCsieiGu2EXtoJ_4core3ptr8non_nullINtB5_7NonNullhE20offset_from_unsignedCs25VvWdXQPOU_5paste, symObjAddr: 0x2520, symBinAddr: 0x116C0, symSize: 0x60 }
  - { offset: 0x23E90, size: 0x8, addend: 0x0, symName: __RINvNtCsHUR1vrdMJt_3std5panic12catch_unwindNCNvCs25VvWdXQPOU_5paste16pasted_to_tokenss0_0NtCscKtU6MdFI5n_10proc_macro5IdentEBJ_, symObjAddr: 0x0, symBinAddr: 0x12180, symSize: 0xA0 }
  - { offset: 0x244FD, size: 0x8, addend: 0x0, symName: __RINvNtCsHUR1vrdMJt_3std5panic12catch_unwindNCNvCs25VvWdXQPOU_5paste16pasted_to_tokenss0_0NtCscKtU6MdFI5n_10proc_macro5IdentEBJ_, symObjAddr: 0x0, symBinAddr: 0x12180, symSize: 0xA0 }
  - { offset: 0x24590, size: 0x8, addend: 0x0, symName: __RINvNtCsHUR1vrdMJt_3std5panic12catch_unwindNCNvCs25VvWdXQPOU_5paste16pasted_to_tokenss_0INtNtCsieiGu2EXtoJ_4core6result6ResultNtCscKtU6MdFI5n_10proc_macro7LiteralNtB22_8LexErrorEEBJ_, symObjAddr: 0xA0, symBinAddr: 0x12220, symSize: 0xA0 }
  - { offset: 0x25533, size: 0x8, addend: 0x0, symName: __RNCINvNtNtNtCsieiGu2EXtoJ_4core4iter8adapters3map8map_foldRhhuNCNvNtCslJiobkLta79_5alloc3str13replace_ascii0NCINvNvNtNtNtB8_6traits8iterator8Iterator8for_each4callhNCINvMsi_NtB14_3vecINtB2L_3VechE14extend_trustedINtB4_3MapINtNtNtBa_5slice4iter4IterhEBY_EE0E0E0Cs25VvWdXQPOU_5paste, symObjAddr: 0x240, symBinAddr: 0x123C0, symSize: 0x70 }
  - { offset: 0x255BE, size: 0x8, addend: 0x0, symName: __RINvXs0_NtNtNtCsieiGu2EXtoJ_4core4iter8adapters3mapINtB6_3MapINtNtNtBc_5slice4iter4IterhENCNvNtCslJiobkLta79_5alloc3str13replace_ascii0ENtNtNtBa_6traits8iterator8Iterator4folduNCINvNvB2a_8for_each4callhNCINvMsi_NtB1v_3vecINtB3n_3VechE14extend_trustedBN_E0E0ECs25VvWdXQPOU_5paste, symObjAddr: 0x140, symBinAddr: 0x122C0, symSize: 0x60 }
  - { offset: 0x25657, size: 0x8, addend: 0x0, symName: __RNvXs0_NtNtNtCsieiGu2EXtoJ_4core4iter8adapters3mapINtB5_3MapINtNtNtBb_5slice4iter4IterhENCNvNtCslJiobkLta79_5alloc3str13replace_ascii0ENtNtNtB9_6traits8iterator8Iterator9size_hintCs25VvWdXQPOU_5paste, symObjAddr: 0x3160, symBinAddr: 0x152E0, symSize: 0x30 }
  - { offset: 0x25762, size: 0x8, addend: 0x0, symName: __RINvYINtNtNtNtCsieiGu2EXtoJ_4core4iter8adapters3map3MapINtNtNtBc_5slice4iter4IterhENCNvNtCslJiobkLta79_5alloc3str13replace_ascii0ENtNtNtBa_6traits8iterator8Iterator7collectINtNtB1p_3vec3VechEECs25VvWdXQPOU_5paste, symObjAddr: 0x1A0, symBinAddr: 0x12320, symSize: 0x70 }
  - { offset: 0x257F8, size: 0x8, addend: 0x0, symName: __RINvYINtNtNtNtCsieiGu2EXtoJ_4core4iter8adapters3map3MapINtNtNtBc_5slice4iter4IterhENCNvNtCslJiobkLta79_5alloc3str13replace_ascii0ENtNtNtBa_6traits8iterator8Iterator8for_eachNCINvMsi_NtB1p_3vecINtB2U_3VechE14extend_trustedB3_E0ECs25VvWdXQPOU_5paste, symObjAddr: 0x210, symBinAddr: 0x12390, symSize: 0x30 }
  - { offset: 0x2589C, size: 0x8, addend: 0x0, symName: __RNvXNtNtNtCsieiGu2EXtoJ_4core4iter6traits7collectINtNtNtB6_8adapters3map3MapINtNtNtB8_5slice4iter4IterhENCNvNtCslJiobkLta79_5alloc3str13replace_ascii0ENtB2_12IntoIterator9into_iterCs25VvWdXQPOU_5paste, symObjAddr: 0x2C80, symBinAddr: 0x14E00, symSize: 0x30 }
  - { offset: 0x25ADC, size: 0x8, addend: 0x0, symName: __RNCNvXsL_NtNtCsieiGu2EXtoJ_4core5slice3cmpcNtB7_13SliceContains14slice_contains0Cs25VvWdXQPOU_5paste, symObjAddr: 0x2B0, symBinAddr: 0x12430, symSize: 0x30 }
  - { offset: 0x25B2B, size: 0x8, addend: 0x0, symName: __RNCNvXsL_NtNtCsieiGu2EXtoJ_4core5slice3cmpcNtB7_13SliceContains14slice_containss_0Cs25VvWdXQPOU_5paste, symObjAddr: 0x2E0, symBinAddr: 0x12460, symSize: 0x20 }
  - { offset: 0x25B6C, size: 0x8, addend: 0x0, symName: __RNvXsL_NtNtCsieiGu2EXtoJ_4core5slice3cmpcNtB5_13SliceContains14slice_containsCs25VvWdXQPOU_5paste, symObjAddr: 0x3860, symBinAddr: 0x159E0, symSize: 0x190 }
  - { offset: 0x265B8, size: 0x8, addend: 0x0, symName: __RNvXs_NtNtCsieiGu2EXtoJ_4core5slice4iterRSNtNtCs25VvWdXQPOU_5paste7segment7SegmentNtNtNtNtB8_4iter6traits7collect12IntoIterator9into_iterBI_, symObjAddr: 0x3EB0, symBinAddr: 0x16030, symSize: 0x50 }
  - { offset: 0x2677B, size: 0x8, addend: 0x0, symName: __RNvNvMNtNtCsieiGu2EXtoJ_4core5alloc6layoutNtB4_6Layout25from_size_align_unchecked18precondition_checkCs25VvWdXQPOU_5paste, symObjAddr: 0x2BD0, symBinAddr: 0x14D50, symSize: 0xB0 }
  - { offset: 0x2686B, size: 0x8, addend: 0x0, symName: __RNvXsd_NtCsieiGu2EXtoJ_4core5arrayAcj2_INtNtNtB7_3ops5index5IndexNtNtBG_5range9RangeFullE5indexCs25VvWdXQPOU_5paste, symObjAddr: 0x3F20, symBinAddr: 0x160A0, symSize: 0x30 }
  - { offset: 0x268D8, size: 0x8, addend: 0x0, symName: __RNvXsd_NtCsieiGu2EXtoJ_4core5arrayAcj4_INtNtNtB7_3ops5index5IndexNtNtBG_5range9RangeFullE5indexCs25VvWdXQPOU_5paste, symObjAddr: 0x3F50, symBinAddr: 0x160D0, symSize: 0x30 }
  - { offset: 0x26B95, size: 0x8, addend: 0x0, symName: __RNvXs0_NtNtCsieiGu2EXtoJ_4core3str7patternNtB5_12CharSearcherNtB5_15ReverseSearcher15next_match_backCs25VvWdXQPOU_5paste, symObjAddr: 0x2CB0, symBinAddr: 0x14E30, symSize: 0x4B0 }
  - { offset: 0x2721E, size: 0x8, addend: 0x0, symName: __RNvXst_NtNtCsieiGu2EXtoJ_4core3str7patternReNtB5_7Pattern12is_prefix_ofCs25VvWdXQPOU_5paste, symObjAddr: 0x3FE0, symBinAddr: 0x16160, symSize: 0x40 }
  - { offset: 0x27261, size: 0x8, addend: 0x0, symName: __RNvXs2_NtNtCsieiGu2EXtoJ_4core3str7patterncNtB5_7Pattern12is_prefix_ofCs25VvWdXQPOU_5paste, symObjAddr: 0x3190, symBinAddr: 0x15310, symSize: 0x80 }
  - { offset: 0x2730A, size: 0x8, addend: 0x0, symName: __RNvXs2_NtNtCsieiGu2EXtoJ_4core3str7patterncNtB5_7Pattern12is_suffix_ofCs25VvWdXQPOU_5paste, symObjAddr: 0x3210, symBinAddr: 0x15390, symSize: 0x80 }
  - { offset: 0x273B3, size: 0x8, addend: 0x0, symName: __RNvXs2_NtNtCsieiGu2EXtoJ_4core3str7patterncNtB5_7Pattern13into_searcherCs25VvWdXQPOU_5paste, symObjAddr: 0x3290, symBinAddr: 0x15410, symSize: 0x120 }
  - { offset: 0x274CE, size: 0x8, addend: 0x0, symName: __RNvXs2_NtNtCsieiGu2EXtoJ_4core3str7patterncNtB5_7Pattern15as_utf8_patternCs25VvWdXQPOU_5paste, symObjAddr: 0x33B0, symBinAddr: 0x15530, symSize: 0x40 }
  - { offset: 0x27502, size: 0x8, addend: 0x0, symName: __RNvXs6_NtNtCsieiGu2EXtoJ_4core3str7patternRScNtB5_11MultiCharEq7matchesCs25VvWdXQPOU_5paste, symObjAddr: 0x33F0, symBinAddr: 0x15570, symSize: 0x40 }
  - { offset: 0x2756B, size: 0x8, addend: 0x0, symName: __RNvXs7_NtNtCsieiGu2EXtoJ_4core3str7patternINtB5_18MultiCharEqPatternNCNvCs25VvWdXQPOU_5paste16pasted_to_tokens0ENtB5_7Pattern13into_searcherB18_, symObjAddr: 0x3430, symBinAddr: 0x155B0, symSize: 0xB0 }
  - { offset: 0x275C7, size: 0x8, addend: 0x0, symName: __RNvXs7_NtNtCsieiGu2EXtoJ_4core3str7patternINtB5_18MultiCharEqPatternRScENtB5_7Pattern13into_searcherCs25VvWdXQPOU_5paste, symObjAddr: 0x34E0, symBinAddr: 0x15660, symSize: 0xD0 }
  - { offset: 0x27629, size: 0x8, addend: 0x0, symName: __RNvXs8_NtNtCsieiGu2EXtoJ_4core3str7patternINtB5_19MultiCharEqSearcherNCNvCs25VvWdXQPOU_5paste16pasted_to_tokens0ENtB5_8Searcher4nextB19_, symObjAddr: 0x35B0, symBinAddr: 0x15730, symSize: 0x160 }
  - { offset: 0x27751, size: 0x8, addend: 0x0, symName: __RNvXs8_NtNtCsieiGu2EXtoJ_4core3str7patternINtB5_19MultiCharEqSearcherRScENtB5_8Searcher4nextCs25VvWdXQPOU_5paste, symObjAddr: 0x3710, symBinAddr: 0x15890, symSize: 0x150 }
  - { offset: 0x2787F, size: 0x8, addend: 0x0, symName: __RNvXs_NtNtCsieiGu2EXtoJ_4core3str7patternNtB4_12CharSearcherNtB4_8Searcher10next_matchCs25VvWdXQPOU_5paste, symObjAddr: 0x39F0, symBinAddr: 0x15B70, symSize: 0x4A0 }
  - { offset: 0x27E24, size: 0x8, addend: 0x0, symName: __RNvXs_NtNtCsieiGu2EXtoJ_4core3str7patternNtB4_12CharSearcherNtB4_8Searcher8haystackCs25VvWdXQPOU_5paste, symObjAddr: 0x3E90, symBinAddr: 0x16010, symSize: 0x20 }
  - { offset: 0x27E58, size: 0x8, addend: 0x0, symName: __RNvXsm_NtNtCsieiGu2EXtoJ_4core3str7patternRScNtB5_7Pattern12is_prefix_ofCs25VvWdXQPOU_5paste, symObjAddr: 0x3F80, symBinAddr: 0x16100, symSize: 0x30 }
  - { offset: 0x27E95, size: 0x8, addend: 0x0, symName: __RNvXsm_NtNtCsieiGu2EXtoJ_4core3str7patternRScNtB5_7Pattern15is_contained_inCs25VvWdXQPOU_5paste, symObjAddr: 0x3FB0, symBinAddr: 0x16130, symSize: 0x30 }
  - { offset: 0x27ED8, size: 0x8, addend: 0x0, symName: __RNvYINtNtNtCsieiGu2EXtoJ_4core3str7pattern18MultiCharEqPatternNCNvCs25VvWdXQPOU_5paste16pasted_to_tokens0ENtB5_7Pattern12is_prefix_ofB12_, symObjAddr: 0x4020, symBinAddr: 0x161A0, symSize: 0x80 }
  - { offset: 0x27F1B, size: 0x8, addend: 0x0, symName: __RNvYINtNtNtCsieiGu2EXtoJ_4core3str7pattern18MultiCharEqPatternRScENtB5_7Pattern12is_prefix_ofCs25VvWdXQPOU_5paste, symObjAddr: 0x40A0, symBinAddr: 0x16220, symSize: 0xA0 }
  - { offset: 0x27F5E, size: 0x8, addend: 0x0, symName: __RNvYINtNtNtCsieiGu2EXtoJ_4core3str7pattern18MultiCharEqPatternRScENtB5_7Pattern15is_contained_inCs25VvWdXQPOU_5paste, symObjAddr: 0x4140, symBinAddr: 0x162C0, symSize: 0x90 }
  - { offset: 0x27FC4, size: 0x8, addend: 0x0, symName: __RNvYINtNtNtCsieiGu2EXtoJ_4core3str7pattern19MultiCharEqSearcherRScENtB5_8Searcher10next_matchCs25VvWdXQPOU_5paste, symObjAddr: 0x41D0, symBinAddr: 0x16350, symSize: 0x90 }
  - { offset: 0x283F3, size: 0x8, addend: 0x0, symName: __RNvYjNtNtCsieiGu2EXtoJ_4core3cmp3Ord3minCs25VvWdXQPOU_5paste, symObjAddr: 0x4260, symBinAddr: 0x163E0, symSize: 0x60 }
  - { offset: 0x2859B, size: 0x8, addend: 0x0, symName: __RNvNtCs25VvWdXQPOU_5paste7segment5parse, symObjAddr: 0x300, symBinAddr: 0x12480, symSize: 0x1880 }
  - { offset: 0x2889E, size: 0x8, addend: 0x0, symName: __RNvNtCs25VvWdXQPOU_5paste7segment5paste, symObjAddr: 0x1B80, symBinAddr: 0x13D00, symSize: 0x1050 }
  - { offset: 0x28D34, size: 0x8, addend: 0x0, symName: __RNvXs_NtNtCslJiobkLta79_5alloc3vec15set_len_on_dropNtB4_12SetLenOnDropNtNtNtCsieiGu2EXtoJ_4core3ops4drop4Drop4dropCs25VvWdXQPOU_5paste, symObjAddr: 0x3F00, symBinAddr: 0x16080, symSize: 0x20 }
  - { offset: 0x296E6, size: 0x8, addend: 0x0, symName: __RINvMs3_NtCslJiobkLta79_5alloc3stre7replacecECs25VvWdXQPOU_5paste, symObjAddr: 0x0, symBinAddr: 0x16480, symSize: 0x900 }
  - { offset: 0x2A56C, size: 0x8, addend: 0x0, symName: __RNCNvMsp_NtNtCsieiGu2EXtoJ_4core3str4iterINtB7_20MatchIndicesInternalcE4next0Cs25VvWdXQPOU_5paste, symObjAddr: 0x1300, symBinAddr: 0x17780, symSize: 0xD0 }
  - { offset: 0x2A6FE, size: 0x8, addend: 0x0, symName: __RNvXNtNtCsieiGu2EXtoJ_4core3str4iterNtB2_5CharsNtNtNtNtB6_4iter6traits8iterator8Iterator4nextCs25VvWdXQPOU_5paste, symObjAddr: 0x18D0, symBinAddr: 0x17D50, symSize: 0x60 }
  - { offset: 0x2A7D0, size: 0x8, addend: 0x0, symName: __RNvXs3_NtNtCsieiGu2EXtoJ_4core3str4iterNtB5_11CharIndicesNtNtNtNtB9_4iter6traits8iterator8Iterator4nextCs25VvWdXQPOU_5paste, symObjAddr: 0x1DE0, symBinAddr: 0x18250, symSize: 0x110 }
  - { offset: 0x2AA8B, size: 0x8, addend: 0x0, symName: __RNvNvXs5_NtNtCsieiGu2EXtoJ_4core3str6traitsINtNtNtBb_3ops5range5RangejEINtNtNtBb_5slice5index10SliceIndexeE13get_unchecked18precondition_checkCs25VvWdXQPOU_5paste, symObjAddr: 0x1790, symBinAddr: 0x17C10, symSize: 0xC0 }
  - { offset: 0x2AB08, size: 0x8, addend: 0x0, symName: __RNvXs_NtNtCsieiGu2EXtoJ_4core3str6traitseNtNtB8_3cmp9PartialEq2eqCs25VvWdXQPOU_5paste, symObjAddr: 0x2010, symBinAddr: 0x18480, symSize: 0x90 }
  - { offset: 0x2ACBC, size: 0x8, addend: 0x0, symName: __RINvNtNtCsieiGu2EXtoJ_4core3str11validations15next_code_pointINtNtNtB6_5slice4iter4IterhEECs25VvWdXQPOU_5paste, symObjAddr: 0xB80, symBinAddr: 0x17000, symSize: 0x260 }
  - { offset: 0x2AF6F, size: 0x8, addend: 0x0, symName: __RINvXs2E_NtNtCsieiGu2EXtoJ_4core5slice4iterINtB7_4ItercENtNtNtNtBb_4iter6traits8iterator8Iterator3anyNCNvXsL_NtB9_3cmpcNtB1J_13SliceContains14slice_containss_0ECs25VvWdXQPOU_5paste, symObjAddr: 0xE10, symBinAddr: 0x17290, symSize: 0xA0 }
  - { offset: 0x2AFD4, size: 0x8, addend: 0x0, symName: __RINvXs2E_NtNtCsieiGu2EXtoJ_4core5slice4iterINtB7_4ItercENtNtNtNtBb_4iter6traits8iterator8Iterator4foldbNCNvXsL_NtB9_3cmpcNtB1L_13SliceContains14slice_contains0ECs25VvWdXQPOU_5paste, symObjAddr: 0xEB0, symBinAddr: 0x17330, symSize: 0x1A0 }
  - { offset: 0x2B119, size: 0x8, addend: 0x0, symName: __RINvXs2E_NtNtCsieiGu2EXtoJ_4core5slice4iterINtB7_4IterhENtNtNtNtBb_4iter6traits8iterator8Iterator4folduNCINvNtNtBY_8adapters3map8map_foldRhhuNCNvNtCslJiobkLta79_5alloc3str13replace_ascii0NCINvNvBS_8for_each4callhNCINvMsi_NtB2l_3vecINtB3x_3VechE14extend_trustedINtB1I_3MapBF_B2f_EE0E0E0ECs25VvWdXQPOU_5paste, symObjAddr: 0x1050, symBinAddr: 0x174D0, symSize: 0x190 }
  - { offset: 0x2B25A, size: 0x8, addend: 0x0, symName: __RNvXs2E_NtNtCsieiGu2EXtoJ_4core5slice4iterINtB6_4IterNtNtCs25VvWdXQPOU_5paste7segment7SegmentENtNtNtNtBa_4iter6traits8iterator8Iterator4nextBT_, symObjAddr: 0x1AF0, symBinAddr: 0x17F60, symSize: 0x90 }
  - { offset: 0x2B37B, size: 0x8, addend: 0x0, symName: __RNvXs2E_NtNtCsieiGu2EXtoJ_4core5slice4iterINtB6_4ItercENtNtNtNtBa_4iter6traits8iterator8Iterator4nextCs25VvWdXQPOU_5paste, symObjAddr: 0x1B80, symBinAddr: 0x17FF0, symSize: 0x90 }
  - { offset: 0x2B49C, size: 0x8, addend: 0x0, symName: __RNvXs2E_NtNtCsieiGu2EXtoJ_4core5slice4iterINtB6_4IterhENtNtNtNtBa_4iter6traits8iterator8Iterator4nextCs25VvWdXQPOU_5paste, symObjAddr: 0x1C10, symBinAddr: 0x18080, symSize: 0x90 }
  - { offset: 0x2B5BD, size: 0x8, addend: 0x0, symName: __RNvXs2E_NtNtCsieiGu2EXtoJ_4core5slice4iterINtB6_4IterhENtNtNtNtBa_4iter6traits8iterator8Iterator9size_hintCs25VvWdXQPOU_5paste, symObjAddr: 0x1CA0, symBinAddr: 0x18110, symSize: 0x60 }
  - { offset: 0x2B632, size: 0x8, addend: 0x0, symName: __RNvXs1q_NtNtCsieiGu2EXtoJ_4core5slice4iterINtB6_11ChunksExactcENtNtNtNtBa_4iter6traits8iterator8Iterator4nextCs25VvWdXQPOU_5paste, symObjAddr: 0x1990, symBinAddr: 0x17E00, symSize: 0x160 }
  - { offset: 0x2B6F0, size: 0x8, addend: 0x0, symName: __RNvXs2M_NtNtCsieiGu2EXtoJ_4core5slice4iterINtB6_7IterMutNtNtCs25VvWdXQPOU_5paste7segment7SegmentENtNtNtNtBa_4iter6traits8iterator8Iterator4nextBW_, symObjAddr: 0x1D00, symBinAddr: 0x18170, symSize: 0x90 }
  - { offset: 0x2C478, size: 0x8, addend: 0x0, symName: __RINvXs1_NtNtNtCsieiGu2EXtoJ_4core4iter8adapters7inspectINtB6_7InspectNtNtCscKtU6MdFI5n_10proc_macro12token_stream8IntoIterNCNvNtCs25VvWdXQPOU_5paste4attr11expand_attr0ENtNtNtBa_6traits8iterator8Iterator8try_folduNCINvNvB2G_3all5checkNtB19_9TokenTreeNCB1Y_s_0E0INtNtNtBc_3ops12control_flow11ControlFlowuEEB22_, symObjAddr: 0xDE0, symBinAddr: 0x17260, symSize: 0x30 }
  - { offset: 0x2C4F3, size: 0x8, addend: 0x0, symName: __RNCINvNtNtNtCsieiGu2EXtoJ_4core4iter8adapters7inspect16inspect_try_foldNtCscKtU6MdFI5n_10proc_macro9TokenTreeuINtNtNtBa_3ops12control_flow11ControlFlowuENCNvNtCs25VvWdXQPOU_5paste4attr11expand_attr0NCINvNvNtNtNtB8_6traits8iterator8Iterator3all5checkB17_NCB2t_s_0E0E0B2x_, symObjAddr: 0x1240, symBinAddr: 0x176C0, symSize: 0xC0 }
  - { offset: 0x2C607, size: 0x8, addend: 0x0, symName: __RINvYINtNtNtNtCsieiGu2EXtoJ_4core4iter8adapters7inspect7InspectNtNtCscKtU6MdFI5n_10proc_macro12token_stream8IntoIterNCNvNtCs25VvWdXQPOU_5paste4attr11expand_attr0ENtNtNtBa_6traits8iterator8Iterator3allNCB1S_s_0EB1W_, symObjAddr: 0x11E0, symBinAddr: 0x17660, symSize: 0x30 }
  - { offset: 0x2C6E4, size: 0x8, addend: 0x0, symName: __RNvXNtNtNtCsieiGu2EXtoJ_4core4iter6traits7collectNtNtNtB8_3str4iter5CharsNtB2_12IntoIterator9into_iterCs25VvWdXQPOU_5paste, symObjAddr: 0x1930, symBinAddr: 0x17DB0, symSize: 0x20 }
  - { offset: 0x2C80A, size: 0x8, addend: 0x0, symName: __RNvXsn_NtNtCsieiGu2EXtoJ_4core5panic11unwind_safeINtB5_16AssertUnwindSafeNCINvNtNtCscKtU6MdFI5n_10proc_macro6bridge6client10run_clientNtB1e_11TokenStreamINtNtB9_6option6OptionB28_ENCNCINvMs6_B1e_INtB1e_6ClientNtB1i_11TokenStreamB3l_E7expand1NvCs25VvWdXQPOU_5paste4exprE00E0EINtNtNtB9_3ops8function6FnOnceuE9call_onceB3T_, symObjAddr: 0x20A0, symBinAddr: 0x18510, symSize: 0x30 }
  - { offset: 0x2C862, size: 0x8, addend: 0x0, symName: __RNvXsn_NtNtCsieiGu2EXtoJ_4core5panic11unwind_safeINtB5_16AssertUnwindSafeNCINvNtNtCscKtU6MdFI5n_10proc_macro6bridge6client10run_clientNtB1e_11TokenStreamINtNtB9_6option6OptionB28_ENCNCINvMs6_B1e_INtB1e_6ClientNtB1i_11TokenStreamB3l_E7expand1NvCs25VvWdXQPOU_5paste4itemE00E0EINtNtNtB9_3ops8function6FnOnceuE9call_onceB3T_, symObjAddr: 0x20D0, symBinAddr: 0x18540, symSize: 0x30 }
  - { offset: 0x2C8BA, size: 0x8, addend: 0x0, symName: __RNvXsn_NtNtCsieiGu2EXtoJ_4core5panic11unwind_safeINtB5_16AssertUnwindSafeNCINvNtNtCscKtU6MdFI5n_10proc_macro6bridge6client10run_clientNtB1e_11TokenStreamINtNtB9_6option6OptionB28_ENCNCINvMs6_B1e_INtB1e_6ClientNtB1i_11TokenStreamB3l_E7expand1NvCs25VvWdXQPOU_5paste5pasteE00E0EINtNtNtB9_3ops8function6FnOnceuE9call_onceB3T_, symObjAddr: 0x2100, symBinAddr: 0x18570, symSize: 0x30 }
  - { offset: 0x2CAD7, size: 0x8, addend: 0x0, symName: __RNvXNtNtCsieiGu2EXtoJ_4core3ops12control_flowINtB2_11ControlFlowINtNtB4_9try_trait17NeverShortCircuituEENtB13_3Try11from_outputCs25VvWdXQPOU_5paste, symObjAddr: 0x1850, symBinAddr: 0x17CD0, symSize: 0x10 }
  - { offset: 0x2CB15, size: 0x8, addend: 0x0, symName: __RNvXNtNtCsieiGu2EXtoJ_4core3ops12control_flowINtB2_11ControlFlowINtNtB4_9try_trait17NeverShortCircuituEENtB13_3Try6branchCs25VvWdXQPOU_5paste, symObjAddr: 0x1860, symBinAddr: 0x17CE0, symSize: 0x30 }
  - { offset: 0x2CB8D, size: 0x8, addend: 0x0, symName: __RNvXNtNtCsieiGu2EXtoJ_4core3ops12control_flowINtB2_11ControlFlowuENtNtB4_9try_trait3Try11from_outputCs25VvWdXQPOU_5paste, symObjAddr: 0x1890, symBinAddr: 0x17D10, symSize: 0x10 }
  - { offset: 0x2CBCB, size: 0x8, addend: 0x0, symName: __RNvXNtNtCsieiGu2EXtoJ_4core3ops12control_flowINtB2_11ControlFlowuENtNtB4_9try_trait3Try6branchCs25VvWdXQPOU_5paste, symObjAddr: 0x18A0, symBinAddr: 0x17D20, symSize: 0x30 }
  - { offset: 0x2CC49, size: 0x8, addend: 0x0, symName: __RNvXs9_NtNtCsieiGu2EXtoJ_4core3ops12control_flowINtB5_11ControlFlowuENtNtB9_3cmp9PartialEq2eqCs25VvWdXQPOU_5paste, symObjAddr: 0x1EF0, symBinAddr: 0x18360, symSize: 0xE0 }
  - { offset: 0x2CD6B, size: 0x8, addend: 0x0, symName: __RNvXs_NtNtCsieiGu2EXtoJ_4core3ops12control_flowINtB4_11ControlFlowINtNtB6_9try_trait17NeverShortCircuituEEINtB15_12FromResidualIBK_B12_NtNtB8_7convert10InfallibleEE13from_residualCs25VvWdXQPOU_5paste, symObjAddr: 0x1FD0, symBinAddr: 0x18440, symSize: 0x10 }
  - { offset: 0x2CDA9, size: 0x8, addend: 0x0, symName: __RNvXs_NtNtCsieiGu2EXtoJ_4core3ops12control_flowINtB4_11ControlFlowuEINtNtB6_9try_trait12FromResidualIBK_uNtNtB8_7convert10InfallibleEE13from_residualCs25VvWdXQPOU_5paste, symObjAddr: 0x1FE0, symBinAddr: 0x18450, symSize: 0x10 }
  - { offset: 0x2D0DE, size: 0x8, addend: 0x0, symName: __RNCINvMNtNtCsieiGu2EXtoJ_4core3ops9try_traitINtB5_17NeverShortCircuituE10wrap_mut_2uNtCscKtU6MdFI5n_10proc_macro9TokenTreeQNCINvNvNtNtNtNtB9_4iter6traits8iterator8Iterator8for_each4callB1k_NCINvXsg_B1m_NtB1m_11TokenStreamINtNtB28_7collect12FromIteratorB1k_E9from_iterINtNtNtB2a_8adapters5chain5ChainINtNtB4m_4take4TakeNtNtB1m_12token_stream8IntoIterEINtNtNtB2a_7sources4once4OnceB1k_EEE0E0E0Cs25VvWdXQPOU_5paste, symObjAddr: 0x1210, symBinAddr: 0x17690, symSize: 0x30 }
  - { offset: 0x2D154, size: 0x8, addend: 0x0, symName: __RNvXs_NtNtCsieiGu2EXtoJ_4core3ops9try_traitINtB4_17NeverShortCircuituENtB4_3Try11from_outputCs25VvWdXQPOU_5paste, symObjAddr: 0x1FF0, symBinAddr: 0x18460, symSize: 0x10 }
  - { offset: 0x2D187, size: 0x8, addend: 0x0, symName: __RNvXs_NtNtCsieiGu2EXtoJ_4core3ops9try_traitINtB4_17NeverShortCircuituENtB4_3Try6branchCs25VvWdXQPOU_5paste, symObjAddr: 0x2000, symBinAddr: 0x18470, symSize: 0x10 }
  - { offset: 0x2D297, size: 0x8, addend: 0x0, symName: __RINvNtCsieiGu2EXtoJ_4core6escape10hex_escapeKja_ECs25VvWdXQPOU_5paste, symObjAddr: 0x900, symBinAddr: 0x16D80, symSize: 0x110 }
  - { offset: 0x2D35E, size: 0x8, addend: 0x0, symName: __RINvNtCsieiGu2EXtoJ_4core6escape12escape_asciiKja_ECs25VvWdXQPOU_5paste, symObjAddr: 0xA10, symBinAddr: 0x16E90, symSize: 0x170 }
  - { offset: 0x2D628, size: 0x8, addend: 0x0, symName: __RNvXs1_NtNtNtCsieiGu2EXtoJ_4core5array4iter10iter_innerINtB5_15PolymorphicIterAINtNtNtBb_3mem12maybe_uninit11MaybeUninitcEj3_ENtNtNtBb_3ops4drop4Drop4dropCs25VvWdXQPOU_5paste, symObjAddr: 0x1960, symBinAddr: 0x17DD0, symSize: 0x30 }
  - { offset: 0x2E1D0, size: 0x8, addend: 0x0, symName: __RINvMs3_NtCslJiobkLta79_5alloc3stre7replacecECs25VvWdXQPOU_5paste, symObjAddr: 0x0, symBinAddr: 0x16480, symSize: 0x900 }
  - { offset: 0x2ECFC, size: 0x8, addend: 0x0, symName: __RNCNvNtCslJiobkLta79_5alloc3str13replace_ascii0Cs25VvWdXQPOU_5paste, symObjAddr: 0x13D0, symBinAddr: 0x17850, symSize: 0x40 }
  - { offset: 0x2ED56, size: 0x8, addend: 0x0, symName: __RNvXs2_NtCslJiobkLta79_5alloc3streNtNtB7_6borrow7ToOwned8to_ownedCs25VvWdXQPOU_5paste, symObjAddr: 0x1D90, symBinAddr: 0x18200, symSize: 0x50 }
  - { offset: 0x2F6EC, size: 0x8, addend: 0x0, symName: __RNvMNtCsieiGu2EXtoJ_4core6escapeINtB2_15EscapeIterInnerKja_NtB2_13AlwaysEscapedE9backslashCs25VvWdXQPOU_5paste, symObjAddr: 0x1410, symBinAddr: 0x17890, symSize: 0x90 }
  - { offset: 0x2F8D9, size: 0x8, addend: 0x0, symName: __RNvMs6_NtNtNtCsieiGu2EXtoJ_4core5array4iter10iter_innerINtB5_15PolymorphicIterSINtNtNtBb_3mem12maybe_uninit11MaybeUninitcEE9next_backCs25VvWdXQPOU_5paste, symObjAddr: 0x14A0, symBinAddr: 0x17920, symSize: 0x1D0 }
  - { offset: 0x2FB7C, size: 0x8, addend: 0x0, symName: __RNvMs_NtCsieiGu2EXtoJ_4core6escapeINtB4_15EscapeIterInnerKja_NtB4_13AlwaysEscapedE4nextCs25VvWdXQPOU_5paste, symObjAddr: 0x1670, symBinAddr: 0x17AF0, symSize: 0x120 }
  - { offset: 0x3045C, size: 0x8, addend: 0x0, symName: __RINvMNtCsieiGu2EXtoJ_4core6optionINtB3_6OptionIBw_NtCscKtU6MdFI5n_10proc_macro9TokenTreeEE18get_or_insert_withNCNvMs3_NtNtNtB5_4iter8adapters8peekableINtB1S_8PeekableNtNtBO_12token_stream8IntoIterE4peek0ECs25VvWdXQPOU_5paste, symObjAddr: 0x0, symBinAddr: 0x185A0, symSize: 0x140 }
  - { offset: 0x31172, size: 0x8, addend: 0x0, symName: __RINvNtCsieiGu2EXtoJ_4core3ptr13drop_in_placeINtNtB4_4cell10UnsafeCellNtNtNtCscKtU6MdFI5n_10proc_macro6bridge6client6BridgeEECs25VvWdXQPOU_5paste, symObjAddr: 0x6D0, symBinAddr: 0x18BF0, symSize: 0x20 }
  - { offset: 0x311A1, size: 0x8, addend: 0x0, symName: __RINvNtCsieiGu2EXtoJ_4core3ptr13drop_in_placeINtNtB4_4cell7RefCellNtNtNtCscKtU6MdFI5n_10proc_macro6bridge6client6BridgeEECs25VvWdXQPOU_5paste, symObjAddr: 0x6F0, symBinAddr: 0x18C10, symSize: 0x20 }
  - { offset: 0x311D0, size: 0x8, addend: 0x0, symName: __RINvNtCsieiGu2EXtoJ_4core3ptr13drop_in_placeINtNtB4_6option4ItemNtCscKtU6MdFI5n_10proc_macro9TokenTreeEECs25VvWdXQPOU_5paste, symObjAddr: 0x710, symBinAddr: 0x18C30, symSize: 0x20 }
  - { offset: 0x311FF, size: 0x8, addend: 0x0, symName: __RINvNtCsieiGu2EXtoJ_4core3ptr13drop_in_placeINtNtB4_6option6OptionIBH_NtCscKtU6MdFI5n_10proc_macro9TokenTreeEEECs25VvWdXQPOU_5paste, symObjAddr: 0x730, symBinAddr: 0x18C50, symSize: 0x40 }
  - { offset: 0x3122E, size: 0x8, addend: 0x0, symName: __RINvNtCsieiGu2EXtoJ_4core3ptr13drop_in_placeINtNtB4_6option6OptionINtNtNtNtB4_4iter7sources4once4OnceNtCscKtU6MdFI5n_10proc_macro9TokenTreeEEECs25VvWdXQPOU_5paste, symObjAddr: 0x770, symBinAddr: 0x18C90, symSize: 0x40 }
  - { offset: 0x3125D, size: 0x8, addend: 0x0, symName: __RINvNtCsieiGu2EXtoJ_4core3ptr13drop_in_placeINtNtB4_6option6OptionINtNtNtNtB4_4iter8adapters4take4TakeNtNtCscKtU6MdFI5n_10proc_macro12token_stream8IntoIterEEECs25VvWdXQPOU_5paste, symObjAddr: 0x7B0, symBinAddr: 0x18CD0, symSize: 0x40 }
  - { offset: 0x3128C, size: 0x8, addend: 0x0, symName: __RINvNtCsieiGu2EXtoJ_4core3ptr13drop_in_placeINtNtB4_6option6OptionNtCscKtU6MdFI5n_10proc_macro5GroupEECs25VvWdXQPOU_5paste, symObjAddr: 0x7F0, symBinAddr: 0x18D10, symSize: 0x40 }
  - { offset: 0x312BB, size: 0x8, addend: 0x0, symName: __RINvNtCsieiGu2EXtoJ_4core3ptr13drop_in_placeINtNtB4_6option6OptionNtCscKtU6MdFI5n_10proc_macro9TokenTreeEECs25VvWdXQPOU_5paste, symObjAddr: 0x830, symBinAddr: 0x18D50, symSize: 0x40 }
  - { offset: 0x312EA, size: 0x8, addend: 0x0, symName: __RINvNtCsieiGu2EXtoJ_4core3ptr13drop_in_placeINtNtB4_6option6OptionNtNtNtCscKtU6MdFI5n_10proc_macro6bridge6client11TokenStreamEECs25VvWdXQPOU_5paste, symObjAddr: 0x870, symBinAddr: 0x18D90, symSize: 0x40 }
  - { offset: 0x31319, size: 0x8, addend: 0x0, symName: __RINvNtCsieiGu2EXtoJ_4core3ptr13drop_in_placeINtNtB4_6option8IntoIterNtCscKtU6MdFI5n_10proc_macro9TokenTreeEECs25VvWdXQPOU_5paste, symObjAddr: 0x8B0, symBinAddr: 0x18DD0, symSize: 0x20 }
  - { offset: 0x31348, size: 0x8, addend: 0x0, symName: __RINvNtCsieiGu2EXtoJ_4core3ptr13drop_in_placeINtNtB4_6result6ResultIBH_NtCscKtU6MdFI5n_10proc_macro7LiteralNtB18_8LexErrorEINtNtCslJiobkLta79_5alloc5boxed3BoxDNtNtB4_3any3AnyNtNtB4_6marker4SendEL_EEECs25VvWdXQPOU_5paste, symObjAddr: 0x8D0, symBinAddr: 0x18DF0, symSize: 0x30 }
  - { offset: 0x31377, size: 0x8, addend: 0x0, symName: __RINvNtCsieiGu2EXtoJ_4core3ptr13drop_in_placeINtNtB4_6result6ResultNtCscKtU6MdFI5n_10proc_macro5IdentINtNtCslJiobkLta79_5alloc5boxed3BoxDNtNtB4_3any3AnyNtNtB4_6marker4SendEL_EEECs25VvWdXQPOU_5paste, symObjAddr: 0x900, symBinAddr: 0x18E20, symSize: 0x30 }
  - { offset: 0x313A6, size: 0x8, addend: 0x0, symName: __RINvNtCsieiGu2EXtoJ_4core3ptr13drop_in_placeINtNtB4_6result6ResultNtNtCslJiobkLta79_5alloc6string6StringNtNtCsHUR1vrdMJt_3std3env8VarErrorEECs25VvWdXQPOU_5paste, symObjAddr: 0x930, symBinAddr: 0x18E50, symSize: 0x40 }
  - { offset: 0x313D5, size: 0x8, addend: 0x0, symName: __RINvNtCsieiGu2EXtoJ_4core3ptr13drop_in_placeINtNtCscKtU6MdFI5n_10proc_macro6bridge5GroupNtNtBJ_6client11TokenStreamNtB1q_4SpanEECs25VvWdXQPOU_5paste, symObjAddr: 0x970, symBinAddr: 0x18E90, symSize: 0x20 }
  - { offset: 0x31404, size: 0x8, addend: 0x0, symName: __RINvNtCsieiGu2EXtoJ_4core3ptr13drop_in_placeINtNtCscKtU6MdFI5n_10proc_macro6bridge9TokenTreeNtNtBJ_6client11TokenStreamNtB1u_4SpanNtNtBJ_6symbol6SymbolEECs25VvWdXQPOU_5paste, symObjAddr: 0x990, symBinAddr: 0x18EB0, symSize: 0x40 }
  - { offset: 0x31433, size: 0x8, addend: 0x0, symName: __RINvNtCsieiGu2EXtoJ_4core3ptr13drop_in_placeINtNtCslJiobkLta79_5alloc3vec3VecINtNtCscKtU6MdFI5n_10proc_macro6bridge9TokenTreeNtNtB1g_6client11TokenStreamNtB21_4SpanNtNtB1g_6symbol6SymbolEEECs25VvWdXQPOU_5paste, symObjAddr: 0x9D0, symBinAddr: 0x18EF0, symSize: 0x50 }
  - { offset: 0x31462, size: 0x8, addend: 0x0, symName: __RINvNtCsieiGu2EXtoJ_4core3ptr13drop_in_placeINtNtCslJiobkLta79_5alloc3vec3VecNtNtBL_6string6StringEECs25VvWdXQPOU_5paste, symObjAddr: 0xA20, symBinAddr: 0x18F40, symSize: 0x50 }
  - { offset: 0x31491, size: 0x8, addend: 0x0, symName: __RINvNtCsieiGu2EXtoJ_4core3ptr13drop_in_placeINtNtCslJiobkLta79_5alloc3vec3VecNtNtCs25VvWdXQPOU_5paste7segment7SegmentEEB1h_, symObjAddr: 0xA70, symBinAddr: 0x18F90, symSize: 0x50 }
  - { offset: 0x314C0, size: 0x8, addend: 0x0, symName: __RINvNtCsieiGu2EXtoJ_4core3ptr13drop_in_placeINtNtCslJiobkLta79_5alloc3vec3VechEECs25VvWdXQPOU_5paste, symObjAddr: 0xAC0, symBinAddr: 0x18FE0, symSize: 0x50 }
  - { offset: 0x314EF, size: 0x8, addend: 0x0, symName: __RINvNtCsieiGu2EXtoJ_4core3ptr13drop_in_placeINtNtCslJiobkLta79_5alloc5boxed3BoxDNtNtB4_3any3AnyNtNtB4_6marker4SendEL_EECs25VvWdXQPOU_5paste, symObjAddr: 0xB10, symBinAddr: 0x19030, symSize: 0x70 }
  - { offset: 0x3151E, size: 0x8, addend: 0x0, symName: __RINvNtCsieiGu2EXtoJ_4core3ptr13drop_in_placeINtNtCslJiobkLta79_5alloc5boxed3BoxDNtNtB4_5error5ErrorNtNtB4_6marker4SyncNtB1B_4SendEL_EECs25VvWdXQPOU_5paste, symObjAddr: 0xB80, symBinAddr: 0x190A0, symSize: 0x70 }
  - { offset: 0x3154D, size: 0x8, addend: 0x0, symName: __RINvNtCsieiGu2EXtoJ_4core3ptr13drop_in_placeINtNtCslJiobkLta79_5alloc5boxed3BoxNtNtNtCsHUR1vrdMJt_3std2io5error6CustomEECs25VvWdXQPOU_5paste, symObjAddr: 0xBF0, symBinAddr: 0x19110, symSize: 0x50 }
  - { offset: 0x3157C, size: 0x8, addend: 0x0, symName: __RINvNtCsieiGu2EXtoJ_4core3ptr13drop_in_placeINtNtCslJiobkLta79_5alloc7raw_vec6RawVecINtNtCscKtU6MdFI5n_10proc_macro6bridge9TokenTreeNtNtB1n_6client11TokenStreamNtB28_4SpanNtNtB1n_6symbol6SymbolEEECs25VvWdXQPOU_5paste, symObjAddr: 0xC40, symBinAddr: 0x19160, symSize: 0x20 }
  - { offset: 0x315AB, size: 0x8, addend: 0x0, symName: __RINvNtCsieiGu2EXtoJ_4core3ptr13drop_in_placeINtNtCslJiobkLta79_5alloc7raw_vec6RawVecNtCscKtU6MdFI5n_10proc_macro9TokenTreeEECs25VvWdXQPOU_5paste, symObjAddr: 0xC60, symBinAddr: 0x19180, symSize: 0x20 }
  - { offset: 0x315DA, size: 0x8, addend: 0x0, symName: __RINvNtCsieiGu2EXtoJ_4core3ptr13drop_in_placeINtNtCslJiobkLta79_5alloc7raw_vec6RawVecNtNtBL_6string6StringEECs25VvWdXQPOU_5paste, symObjAddr: 0xC80, symBinAddr: 0x191A0, symSize: 0x20 }
  - { offset: 0x31609, size: 0x8, addend: 0x0, symName: __RINvNtCsieiGu2EXtoJ_4core3ptr13drop_in_placeINtNtCslJiobkLta79_5alloc7raw_vec6RawVecNtNtCs25VvWdXQPOU_5paste7segment7SegmentEEB1o_, symObjAddr: 0xCA0, symBinAddr: 0x191C0, symSize: 0x20 }
  - { offset: 0x31638, size: 0x8, addend: 0x0, symName: __RINvNtCsieiGu2EXtoJ_4core3ptr13drop_in_placeINtNtCslJiobkLta79_5alloc7raw_vec6RawVechEECs25VvWdXQPOU_5paste, symObjAddr: 0xCC0, symBinAddr: 0x191E0, symSize: 0x20 }
  - { offset: 0x31667, size: 0x8, addend: 0x0, symName: __RINvNtCsieiGu2EXtoJ_4core3ptr13drop_in_placeINtNtNtB4_5array4iter8IntoItercKj3_EECs25VvWdXQPOU_5paste, symObjAddr: 0xCE0, symBinAddr: 0x19200, symSize: 0x50 }
  - { offset: 0x31696, size: 0x8, addend: 0x0, symName: __RINvNtCsieiGu2EXtoJ_4core3ptr13drop_in_placeINtNtNtCsHUR1vrdMJt_3std2io5error9ErrorDataINtNtCslJiobkLta79_5alloc5boxed3BoxNtBJ_6CustomEEECs25VvWdXQPOU_5paste, symObjAddr: 0xD30, symBinAddr: 0x19250, symSize: 0x30 }
  - { offset: 0x316C5, size: 0x8, addend: 0x0, symName: __RINvNtCsieiGu2EXtoJ_4core3ptr13drop_in_placeINtNtNtCslJiobkLta79_5alloc3vec9into_iter8IntoIterINtNtCscKtU6MdFI5n_10proc_macro6bridge9TokenTreeNtNtB1x_6client11TokenStreamNtB2i_4SpanNtNtB1x_6symbol6SymbolEEECs25VvWdXQPOU_5paste, symObjAddr: 0xD60, symBinAddr: 0x19280, symSize: 0x20 }
  - { offset: 0x316F4, size: 0x8, addend: 0x0, symName: __RINvNtCsieiGu2EXtoJ_4core3ptr13drop_in_placeINtNtNtCslJiobkLta79_5alloc3vec9into_iter8IntoIterNtCscKtU6MdFI5n_10proc_macro9TokenTreeEECs25VvWdXQPOU_5paste, symObjAddr: 0xD80, symBinAddr: 0x192A0, symSize: 0x20 }
  - { offset: 0x31723, size: 0x8, addend: 0x0, symName: __RINvNtCsieiGu2EXtoJ_4core3ptr13drop_in_placeINtNtNtCslJiobkLta79_5alloc3vec9into_iter8IntoIterNtNtBN_6string6StringEECs25VvWdXQPOU_5paste, symObjAddr: 0xDA0, symBinAddr: 0x192C0, symSize: 0x20 }
  - { offset: 0x31752, size: 0x8, addend: 0x0, symName: __RINvNtCsieiGu2EXtoJ_4core3ptr13drop_in_placeINtNtNtCslJiobkLta79_5alloc3vec9into_iter8IntoIterNtNtCs25VvWdXQPOU_5paste7segment7SegmentEEB1y_, symObjAddr: 0xDC0, symBinAddr: 0x192E0, symSize: 0x20 }
  - { offset: 0x31781, size: 0x8, addend: 0x0, symName: __RINvNtCsieiGu2EXtoJ_4core3ptr13drop_in_placeINtNtNtNtB4_4iter7sources4once4OnceNtCscKtU6MdFI5n_10proc_macro9TokenTreeEECs25VvWdXQPOU_5paste, symObjAddr: 0xDE0, symBinAddr: 0x19300, symSize: 0x20 }
  - { offset: 0x317B0, size: 0x8, addend: 0x0, symName: __RINvNtCsieiGu2EXtoJ_4core3ptr13drop_in_placeINtNtNtNtB4_4iter8adapters4take4TakeNtNtCscKtU6MdFI5n_10proc_macro12token_stream8IntoIterEECs25VvWdXQPOU_5paste, symObjAddr: 0xE00, symBinAddr: 0x19320, symSize: 0x20 }
  - { offset: 0x317DF, size: 0x8, addend: 0x0, symName: __RINvNtCsieiGu2EXtoJ_4core3ptr13drop_in_placeINtNtNtNtB4_4iter8adapters5chain5ChainINtNtBL_4take4TakeNtNtCscKtU6MdFI5n_10proc_macro12token_stream8IntoIterEINtNtNtBN_7sources4once4OnceNtB1E_9TokenTreeEEECs25VvWdXQPOU_5paste, symObjAddr: 0xE20, symBinAddr: 0x19340, symSize: 0x60 }
  - { offset: 0x3180E, size: 0x8, addend: 0x0, symName: __RINvNtCsieiGu2EXtoJ_4core3ptr13drop_in_placeINtNtNtNtB4_4iter8adapters7inspect7InspectNtNtCscKtU6MdFI5n_10proc_macro12token_stream8IntoIterNCNvNtCs25VvWdXQPOU_5paste4attr11expand_attr0EEB2j_, symObjAddr: 0xE80, symBinAddr: 0x193A0, symSize: 0x20 }
  - { offset: 0x3183D, size: 0x8, addend: 0x0, symName: __RINvNtCsieiGu2EXtoJ_4core3ptr13drop_in_placeINtNtNtNtB4_4iter8adapters8peekable8PeekableNtNtCscKtU6MdFI5n_10proc_macro12token_stream8IntoIterEECs25VvWdXQPOU_5paste, symObjAddr: 0xEA0, symBinAddr: 0x193C0, symSize: 0x60 }
  - { offset: 0x3186C, size: 0x8, addend: 0x0, symName: __RINvNtCsieiGu2EXtoJ_4core3ptr13drop_in_placeINtNtNtNtB4_5array4iter10iter_inner15PolymorphicIterAINtNtNtB4_3mem12maybe_uninit11MaybeUninitcEj3_EECs25VvWdXQPOU_5paste, symObjAddr: 0xF00, symBinAddr: 0x19420, symSize: 0x20 }
  - { offset: 0x3189B, size: 0x8, addend: 0x0, symName: __RINvNtCsieiGu2EXtoJ_4core3ptr13drop_in_placeINtNvXsd_NtNtCslJiobkLta79_5alloc3vec9into_iterINtBP_8IntoIterppENtNtNtB4_3ops4drop4Drop4drop9DropGuardINtNtCscKtU6MdFI5n_10proc_macro6bridge9TokenTreeNtNtB2o_6client11TokenStreamNtB39_4SpanNtNtB2o_6symbol6SymbolENtNtBT_5alloc6GlobalEECs25VvWdXQPOU_5paste, symObjAddr: 0xF20, symBinAddr: 0x19440, symSize: 0x20 }
  - { offset: 0x318CA, size: 0x8, addend: 0x0, symName: __RINvNtCsieiGu2EXtoJ_4core3ptr13drop_in_placeINtNvXsd_NtNtCslJiobkLta79_5alloc3vec9into_iterINtBP_8IntoIterppENtNtNtB4_3ops4drop4Drop4drop9DropGuardNtCscKtU6MdFI5n_10proc_macro9TokenTreeNtNtBT_5alloc6GlobalEECs25VvWdXQPOU_5paste, symObjAddr: 0xF40, symBinAddr: 0x19460, symSize: 0x20 }
  - { offset: 0x318F9, size: 0x8, addend: 0x0, symName: __RINvNtCsieiGu2EXtoJ_4core3ptr13drop_in_placeINtNvXsd_NtNtCslJiobkLta79_5alloc3vec9into_iterINtBP_8IntoIterppENtNtNtB4_3ops4drop4Drop4drop9DropGuardNtNtBT_6string6StringNtNtBT_5alloc6GlobalEECs25VvWdXQPOU_5paste, symObjAddr: 0xF60, symBinAddr: 0x19480, symSize: 0x20 }
  - { offset: 0x31928, size: 0x8, addend: 0x0, symName: __RINvNtCsieiGu2EXtoJ_4core3ptr13drop_in_placeINtNvXsd_NtNtCslJiobkLta79_5alloc3vec9into_iterINtBP_8IntoIterppENtNtNtB4_3ops4drop4Drop4drop9DropGuardNtNtCs25VvWdXQPOU_5paste7segment7SegmentNtNtBT_5alloc6GlobalEEB2p_, symObjAddr: 0xF80, symBinAddr: 0x194A0, symSize: 0x20 }
  - { offset: 0x31957, size: 0x8, addend: 0x0, symName: __RINvNtCsieiGu2EXtoJ_4core3ptr13drop_in_placeNCINvMsi_NtCslJiobkLta79_5alloc3vecINtBP_3VechE14extend_trustedINtNtNtNtB4_4iter8adapters3map3MapINtNtNtB4_5slice4iter4IterhENCNvNtBR_3str13replace_ascii0EE0ECs25VvWdXQPOU_5paste, symObjAddr: 0xFA0, symBinAddr: 0x194C0, symSize: 0x20 }
  - { offset: 0x31986, size: 0x8, addend: 0x0, symName: __RINvNtCsieiGu2EXtoJ_4core3ptr13drop_in_placeNCINvNtNtNtB4_4iter8adapters3map8map_foldRhhuNCNvNtCslJiobkLta79_5alloc3str13replace_ascii0NCINvNvNtNtNtBP_6traits8iterator8Iterator8for_each4callhNCINvMsi_NtB1v_3vecINtB3c_3VechE14extend_trustedINtBL_3MapINtNtNtB4_5slice4iter4IterhEB1p_EE0E0E0ECs25VvWdXQPOU_5paste, symObjAddr: 0xFC0, symBinAddr: 0x194E0, symSize: 0x20 }
  - { offset: 0x319B5, size: 0x8, addend: 0x0, symName: __RINvNtCsieiGu2EXtoJ_4core3ptr13drop_in_placeNCINvNvNtNtNtNtB4_4iter6traits8iterator8Iterator8for_each4callhNCINvMsi_NtCslJiobkLta79_5alloc3vecINtB1Q_3VechE14extend_trustedINtNtNtBT_8adapters3map3MapINtNtNtB4_5slice4iter4IterhENCNvNtB1S_3str13replace_ascii0EE0E0ECs25VvWdXQPOU_5paste, symObjAddr: 0xFE0, symBinAddr: 0x19500, symSize: 0x20 }
  - { offset: 0x319E4, size: 0x8, addend: 0x0, symName: __RINvNtCsieiGu2EXtoJ_4core3ptr13drop_in_placeNCNCINvNtNtCscKtU6MdFI5n_10proc_macro6bridge6client10run_clientNtBN_11TokenStreamINtNtB4_6option6OptionB1H_ENCNCINvMs6_BN_INtBN_6ClientNtBR_11TokenStreamB2R_E7expand1NvCs25VvWdXQPOU_5paste4exprE00E00EB3o_, symObjAddr: 0x1000, symBinAddr: 0x19520, symSize: 0x20 }
  - { offset: 0x31A13, size: 0x8, addend: 0x0, symName: __RINvNtCsieiGu2EXtoJ_4core3ptr13drop_in_placeNCNCINvNtNtCscKtU6MdFI5n_10proc_macro6bridge6client10run_clientNtBN_11TokenStreamINtNtB4_6option6OptionB1H_ENCNCINvMs6_BN_INtBN_6ClientNtBR_11TokenStreamB2R_E7expand1NvCs25VvWdXQPOU_5paste4itemE00E00EB3o_, symObjAddr: 0x1020, symBinAddr: 0x19540, symSize: 0x20 }
  - { offset: 0x31A42, size: 0x8, addend: 0x0, symName: __RINvNtCsieiGu2EXtoJ_4core3ptr13drop_in_placeNCNCINvNtNtCscKtU6MdFI5n_10proc_macro6bridge6client10run_clientNtBN_11TokenStreamINtNtB4_6option6OptionB1H_ENCNCINvMs6_BN_INtBN_6ClientNtBR_11TokenStreamB2R_E7expand1NvCs25VvWdXQPOU_5paste5pasteE00E00EB3o_, symObjAddr: 0x1040, symBinAddr: 0x19560, symSize: 0x20 }
  - { offset: 0x31A71, size: 0x8, addend: 0x0, symName: __RINvNtCsieiGu2EXtoJ_4core3ptr13drop_in_placeNtCscKtU6MdFI5n_10proc_macro11TokenStreamECs25VvWdXQPOU_5paste, symObjAddr: 0x1060, symBinAddr: 0x19580, symSize: 0x20 }
  - { offset: 0x31AA0, size: 0x8, addend: 0x0, symName: __RINvNtCsieiGu2EXtoJ_4core3ptr13drop_in_placeNtCscKtU6MdFI5n_10proc_macro17ConcatTreesHelperECs25VvWdXQPOU_5paste, symObjAddr: 0x1080, symBinAddr: 0x195A0, symSize: 0x20 }
  - { offset: 0x31ACF, size: 0x8, addend: 0x0, symName: __RINvNtCsieiGu2EXtoJ_4core3ptr13drop_in_placeNtCscKtU6MdFI5n_10proc_macro5GroupECs25VvWdXQPOU_5paste, symObjAddr: 0x10A0, symBinAddr: 0x195C0, symSize: 0x20 }
  - { offset: 0x31AFE, size: 0x8, addend: 0x0, symName: __RINvNtCsieiGu2EXtoJ_4core3ptr13drop_in_placeNtCscKtU6MdFI5n_10proc_macro9TokenTreeECs25VvWdXQPOU_5paste, symObjAddr: 0x10C0, symBinAddr: 0x195E0, symSize: 0x40 }
  - { offset: 0x31B2D, size: 0x8, addend: 0x0, symName: __RINvNtCsieiGu2EXtoJ_4core3ptr13drop_in_placeNtNtB4_4char11ToLowercaseECs25VvWdXQPOU_5paste, symObjAddr: 0x1100, symBinAddr: 0x19620, symSize: 0x20 }
  - { offset: 0x31B5C, size: 0x8, addend: 0x0, symName: __RINvNtCsieiGu2EXtoJ_4core3ptr13drop_in_placeNtNtB4_4char11ToUppercaseECs25VvWdXQPOU_5paste, symObjAddr: 0x1120, symBinAddr: 0x19640, symSize: 0x20 }
  - { offset: 0x31B8B, size: 0x8, addend: 0x0, symName: __RINvNtCsieiGu2EXtoJ_4core3ptr13drop_in_placeNtNtB4_4char15CaseMappingIterECs25VvWdXQPOU_5paste, symObjAddr: 0x1140, symBinAddr: 0x19660, symSize: 0x20 }
  - { offset: 0x31BBA, size: 0x8, addend: 0x0, symName: __RINvNtCsieiGu2EXtoJ_4core3ptr13drop_in_placeNtNtCs25VvWdXQPOU_5paste5error5ErrorEBK_, symObjAddr: 0x1160, symBinAddr: 0x19680, symSize: 0x20 }
  - { offset: 0x31BE9, size: 0x8, addend: 0x0, symName: __RINvNtCsieiGu2EXtoJ_4core3ptr13drop_in_placeNtNtCs25VvWdXQPOU_5paste7segment6LitStrEBK_, symObjAddr: 0x1180, symBinAddr: 0x196A0, symSize: 0x20 }
  - { offset: 0x31C18, size: 0x8, addend: 0x0, symName: __RINvNtCsieiGu2EXtoJ_4core3ptr13drop_in_placeNtNtCs25VvWdXQPOU_5paste7segment7SegmentEBK_, symObjAddr: 0x11A0, symBinAddr: 0x196C0, symSize: 0x50 }
  - { offset: 0x31C47, size: 0x8, addend: 0x0, symName: __RINvNtCsieiGu2EXtoJ_4core3ptr13drop_in_placeNtNtCsHUR1vrdMJt_3std3env8VarErrorECs25VvWdXQPOU_5paste, symObjAddr: 0x11F0, symBinAddr: 0x19710, symSize: 0x40 }
  - { offset: 0x31C76, size: 0x8, addend: 0x0, symName: __RINvNtCsieiGu2EXtoJ_4core3ptr13drop_in_placeNtNtCscKtU6MdFI5n_10proc_macro12token_stream8IntoIterECs25VvWdXQPOU_5paste, symObjAddr: 0x1230, symBinAddr: 0x19750, symSize: 0x20 }
  - { offset: 0x31CA5, size: 0x8, addend: 0x0, symName: __RINvNtCsieiGu2EXtoJ_4core3ptr13drop_in_placeNtNtCslJiobkLta79_5alloc6string6StringECs25VvWdXQPOU_5paste, symObjAddr: 0x1250, symBinAddr: 0x19770, symSize: 0x20 }
  - { offset: 0x31CD4, size: 0x8, addend: 0x0, symName: __RINvNtCsieiGu2EXtoJ_4core3ptr13drop_in_placeNtNtNtCsHUR1vrdMJt_3std2io5error5ErrorECs25VvWdXQPOU_5paste, symObjAddr: 0x1270, symBinAddr: 0x19790, symSize: 0x20 }
  - { offset: 0x31D03, size: 0x8, addend: 0x0, symName: __RINvNtCsieiGu2EXtoJ_4core3ptr13drop_in_placeNtNtNtCsHUR1vrdMJt_3std2io5error6CustomECs25VvWdXQPOU_5paste, symObjAddr: 0x1290, symBinAddr: 0x197B0, symSize: 0x20 }
  - { offset: 0x31D32, size: 0x8, addend: 0x0, symName: __RINvNtCsieiGu2EXtoJ_4core3ptr13drop_in_placeNtNtNtCsHUR1vrdMJt_3std3ffi6os_str8OsStringECs25VvWdXQPOU_5paste, symObjAddr: 0x12B0, symBinAddr: 0x197D0, symSize: 0x20 }
  - { offset: 0x31D61, size: 0x8, addend: 0x0, symName: __RINvNtCsieiGu2EXtoJ_4core3ptr13drop_in_placeNtNtNtCscKtU6MdFI5n_10proc_macro6bridge3rpc12PanicMessageECs25VvWdXQPOU_5paste, symObjAddr: 0x12D0, symBinAddr: 0x197F0, symSize: 0x50 }
  - { offset: 0x31D90, size: 0x8, addend: 0x0, symName: __RINvNtCsieiGu2EXtoJ_4core3ptr13drop_in_placeNtNtNtCscKtU6MdFI5n_10proc_macro6bridge6buffer6BufferECs25VvWdXQPOU_5paste, symObjAddr: 0x1320, symBinAddr: 0x19840, symSize: 0x20 }
  - { offset: 0x31DBF, size: 0x8, addend: 0x0, symName: __RINvNtCsieiGu2EXtoJ_4core3ptr13drop_in_placeNtNtNtCscKtU6MdFI5n_10proc_macro6bridge6client11TokenStreamECs25VvWdXQPOU_5paste, symObjAddr: 0x1340, symBinAddr: 0x19860, symSize: 0x20 }
  - { offset: 0x31DEE, size: 0x8, addend: 0x0, symName: __RINvNtCsieiGu2EXtoJ_4core3ptr13drop_in_placeNtNtNtCscKtU6MdFI5n_10proc_macro6bridge6client6BridgeECs25VvWdXQPOU_5paste, symObjAddr: 0x1360, symBinAddr: 0x19880, symSize: 0x20 }
  - { offset: 0x31E1D, size: 0x8, addend: 0x0, symName: __RINvNtCsieiGu2EXtoJ_4core3ptr13drop_in_placeNtNtNtCslJiobkLta79_5alloc3vec15set_len_on_drop12SetLenOnDropECs25VvWdXQPOU_5paste, symObjAddr: 0x1380, symBinAddr: 0x198A0, symSize: 0x20 }
  - { offset: 0x31E4C, size: 0x8, addend: 0x0, symName: __RINvNtCsieiGu2EXtoJ_4core3ptr13drop_in_placeNtNtNtNtCsHUR1vrdMJt_3std2io5error14repr_bitpacked4ReprECs25VvWdXQPOU_5paste, symObjAddr: 0x13A0, symBinAddr: 0x198C0, symSize: 0x20 }
  - { offset: 0x31E7B, size: 0x8, addend: 0x0, symName: __RINvNtCsieiGu2EXtoJ_4core3ptr13drop_in_placeNtNtNtNtCsHUR1vrdMJt_3std3sys6os_str5bytes3BufECs25VvWdXQPOU_5paste, symObjAddr: 0x13C0, symBinAddr: 0x198E0, symSize: 0x20 }
  - { offset: 0x31EAA, size: 0x8, addend: 0x0, symName: __RINvNtCsieiGu2EXtoJ_4core3ptr13drop_in_placeNtNvNtNtNtCscKtU6MdFI5n_10proc_macro6bridge6client5state3set13RestoreOnDropECs25VvWdXQPOU_5paste, symObjAddr: 0x13E0, symBinAddr: 0x19900, symSize: 0x20 }
  - { offset: 0x31ED9, size: 0x8, addend: 0x0, symName: __RINvNtCsieiGu2EXtoJ_4core3ptr13drop_in_placeSINtNtCscKtU6MdFI5n_10proc_macro6bridge9TokenTreeNtNtBK_6client11TokenStreamNtB1v_4SpanNtNtBK_6symbol6SymbolEECs25VvWdXQPOU_5paste, symObjAddr: 0x1400, symBinAddr: 0x19920, symSize: 0xA0 }
  - { offset: 0x31F08, size: 0x8, addend: 0x0, symName: __RINvNtCsieiGu2EXtoJ_4core3ptr13drop_in_placeSNtCscKtU6MdFI5n_10proc_macro9TokenTreeECs25VvWdXQPOU_5paste, symObjAddr: 0x14A0, symBinAddr: 0x199C0, symSize: 0xA0 }
  - { offset: 0x31F37, size: 0x8, addend: 0x0, symName: __RINvNtCsieiGu2EXtoJ_4core3ptr13drop_in_placeSNtNtCs25VvWdXQPOU_5paste7segment7SegmentEBL_, symObjAddr: 0x1540, symBinAddr: 0x19A60, symSize: 0xA0 }
  - { offset: 0x31F66, size: 0x8, addend: 0x0, symName: __RINvNtCsieiGu2EXtoJ_4core3ptr13drop_in_placeSNtNtCslJiobkLta79_5alloc6string6StringECs25VvWdXQPOU_5paste, symObjAddr: 0x15E0, symBinAddr: 0x19B00, symSize: 0xA0 }
  - { offset: 0x32264, size: 0x8, addend: 0x0, symName: __RNvMsA_NtCsieiGu2EXtoJ_4core3numm14from_str_radixCs25VvWdXQPOU_5paste, symObjAddr: 0x2000, symBinAddr: 0x1A520, symSize: 0x30 }
  - { offset: 0x322A1, size: 0x8, addend: 0x0, symName: __RNvMsA_NtCsieiGu2EXtoJ_4core3numm16from_ascii_radixCs25VvWdXQPOU_5paste, symObjAddr: 0x2030, symBinAddr: 0x1A550, symSize: 0x640 }
  - { offset: 0x32649, size: 0x8, addend: 0x0, symName: __RNvNvMs4_NtCsieiGu2EXtoJ_4core3numh13unchecked_add18precondition_checkCs25VvWdXQPOU_5paste, symObjAddr: 0x2750, symBinAddr: 0x1AC70, symSize: 0xA0 }
  - { offset: 0x32749, size: 0x8, addend: 0x0, symName: __RNvNvMs9_NtCsieiGu2EXtoJ_4core3numj13unchecked_add18precondition_checkCs25VvWdXQPOU_5paste, symObjAddr: 0x27F0, symBinAddr: 0x1AD10, symSize: 0xA0 }
  - { offset: 0x32807, size: 0x8, addend: 0x0, symName: __RNvNvMs9_NtCsieiGu2EXtoJ_4core3numj13unchecked_sub18precondition_checkCs25VvWdXQPOU_5paste, symObjAddr: 0x2890, symBinAddr: 0x1ADB0, symSize: 0xA0 }
  - { offset: 0x33063, size: 0x8, addend: 0x0, symName: __RNvXsC_NtCsieiGu2EXtoJ_4core6optionINtB5_6OptionjENtNtNtB7_3ops9try_trait3Try11from_outputCs25VvWdXQPOU_5paste, symObjAddr: 0x3360, symBinAddr: 0x1B880, symSize: 0x20 }
  - { offset: 0x3309A, size: 0x8, addend: 0x0, symName: __RNvXsC_NtCsieiGu2EXtoJ_4core6optionINtB5_6OptionjENtNtNtB7_3ops9try_trait3Try6branchCs25VvWdXQPOU_5paste, symObjAddr: 0x3380, symBinAddr: 0x1B8A0, symSize: 0x40 }
  - { offset: 0x330F5, size: 0x8, addend: 0x0, symName: __RNvXsD_NtCsieiGu2EXtoJ_4core6optionINtB5_6OptionjEINtNtNtB7_3ops9try_trait12FromResidualIBy_NtNtB7_7convert10InfallibleEE13from_residualCs25VvWdXQPOU_5paste, symObjAddr: 0x33C0, symBinAddr: 0x1B8E0, symSize: 0x10 }
  - { offset: 0x3348B, size: 0x8, addend: 0x0, symName: __RINvNtNtNtCsieiGu2EXtoJ_4core4iter7sources4once4onceNtCscKtU6MdFI5n_10proc_macro9TokenTreeECs25VvWdXQPOU_5paste, symObjAddr: 0x1680, symBinAddr: 0x19BA0, symSize: 0x60 }
  - { offset: 0x334D9, size: 0x8, addend: 0x0, symName: __RNvXNtNtNtCsieiGu2EXtoJ_4core4iter7sources4onceINtB2_4OnceNtCscKtU6MdFI5n_10proc_macro9TokenTreeENtNtNtB6_6traits8iterator8Iterator4nextCs25VvWdXQPOU_5paste, symObjAddr: 0x2A20, symBinAddr: 0x1AF40, symSize: 0x40 }
  - { offset: 0x33564, size: 0x8, addend: 0x0, symName: __RNvXNtNtNtCsieiGu2EXtoJ_4core4iter7sources4onceINtB2_4OnceNtCscKtU6MdFI5n_10proc_macro9TokenTreeENtNtNtB6_6traits8iterator8Iterator9size_hintCs25VvWdXQPOU_5paste, symObjAddr: 0x2A60, symBinAddr: 0x1AF80, symSize: 0x30 }
  - { offset: 0x3361F, size: 0x8, addend: 0x0, symName: __RINvYINtNtNtNtCsieiGu2EXtoJ_4core4iter7sources4once4OnceNtCscKtU6MdFI5n_10proc_macro9TokenTreeENtNtNtBa_6traits8iterator8Iterator4folduNCINvNvB1v_8for_each4callBS_NCINvXsg_BU_NtBU_11TokenStreamINtNtB1z_7collect12FromIteratorBS_E9from_iterINtNtNtBa_8adapters5chain5ChainINtNtB3T_4take4TakeNtNtBU_12token_stream8IntoIterEB3_EE0E0ECs25VvWdXQPOU_5paste, symObjAddr: 0x1850, symBinAddr: 0x19D70, symSize: 0xD0 }
  - { offset: 0x336B0, size: 0x8, addend: 0x0, symName: __RINvYINtNtNtNtCsieiGu2EXtoJ_4core4iter7sources4once4OnceNtCscKtU6MdFI5n_10proc_macro9TokenTreeENtNtNtBa_6traits8iterator8Iterator4folduNCINvNvB1v_8for_each4callBS_NCINvXsi_BU_NtBU_11TokenStreamINtNtB1z_7collect6ExtendBS_E6extendB3_E0E0ECs25VvWdXQPOU_5paste, symObjAddr: 0x1920, symBinAddr: 0x19E40, symSize: 0xD0 }
  - { offset: 0x33741, size: 0x8, addend: 0x0, symName: __RINvYINtNtNtNtCsieiGu2EXtoJ_4core4iter7sources4once4OnceNtCscKtU6MdFI5n_10proc_macro9TokenTreeENtNtNtBa_6traits8iterator8Iterator8for_eachNCINvXsi_BU_NtBU_11TokenStreamINtNtB1z_7collect6ExtendBS_E6extendB3_E0ECs25VvWdXQPOU_5paste, symObjAddr: 0x19F0, symBinAddr: 0x19F10, symSize: 0x20 }
  - { offset: 0x33797, size: 0x8, addend: 0x0, symName: __RNCINvNvNtNtNtNtCsieiGu2EXtoJ_4core4iter6traits8iterator8Iterator3all5checkNtCscKtU6MdFI5n_10proc_macro9TokenTreeNCNvNtCs25VvWdXQPOU_5paste4attr11expand_attrs_0E0B1T_, symObjAddr: 0x1A10, symBinAddr: 0x19F30, symSize: 0x50 }
  - { offset: 0x33800, size: 0x8, addend: 0x0, symName: __RNCINvNvNtNtNtNtCsieiGu2EXtoJ_4core4iter6traits8iterator8Iterator8for_each4callNtCscKtU6MdFI5n_10proc_macro9TokenTreeNCINvXsg_B1h_NtB1h_11TokenStreamINtNtBa_7collect12FromIteratorB1f_E9from_iterINtNtCslJiobkLta79_5alloc3vec3VecB1f_EE0E0Cs25VvWdXQPOU_5paste, symObjAddr: 0x1A60, symBinAddr: 0x19F80, symSize: 0x30 }
  - { offset: 0x33859, size: 0x8, addend: 0x0, symName: __RNCINvNvNtNtNtNtCsieiGu2EXtoJ_4core4iter6traits8iterator8Iterator8for_each4callNtCscKtU6MdFI5n_10proc_macro9TokenTreeNCINvXsg_B1h_NtB1h_11TokenStreamINtNtBa_7collect12FromIteratorB1f_E9from_iterINtNtNtBc_8adapters5chain5ChainINtNtB3b_4take4TakeNtNtB1h_12token_stream8IntoIterEINtNtNtBc_7sources4once4OnceB1f_EEE0E0Cs25VvWdXQPOU_5paste, symObjAddr: 0x1A90, symBinAddr: 0x19FB0, symSize: 0x30 }
  - { offset: 0x338B2, size: 0x8, addend: 0x0, symName: __RNCINvNvNtNtNtNtCsieiGu2EXtoJ_4core4iter6traits8iterator8Iterator8for_each4callNtCscKtU6MdFI5n_10proc_macro9TokenTreeNCINvXsi_B1h_NtB1h_11TokenStreamINtNtBa_7collect6ExtendB1f_E6extendB24_E0E0Cs25VvWdXQPOU_5paste, symObjAddr: 0x1AC0, symBinAddr: 0x19FE0, symSize: 0x30 }
  - { offset: 0x3390B, size: 0x8, addend: 0x0, symName: __RNCINvNvNtNtNtNtCsieiGu2EXtoJ_4core4iter6traits8iterator8Iterator8for_each4callNtCscKtU6MdFI5n_10proc_macro9TokenTreeNCINvXsi_B1h_NtB1h_11TokenStreamINtNtBa_7collect6ExtendB1f_E6extendINtNtNtBc_7sources4once4OnceB1f_EE0E0Cs25VvWdXQPOU_5paste, symObjAddr: 0x1AF0, symBinAddr: 0x1A010, symSize: 0x30 }
  - { offset: 0x33964, size: 0x8, addend: 0x0, symName: __RNCINvNvNtNtNtNtCsieiGu2EXtoJ_4core4iter6traits8iterator8Iterator8for_each4callNtNtCslJiobkLta79_5alloc6string6StringNCINvXsf_B1h_B1f_INtNtBa_7collect6ExtendB1f_E6extendINtNtNtB1j_3vec9into_iter8IntoIterB1f_EE0E0Cs25VvWdXQPOU_5paste, symObjAddr: 0x1B20, symBinAddr: 0x1A040, symSize: 0x40 }
  - { offset: 0x339BD, size: 0x8, addend: 0x0, symName: __RNCINvNvNtNtNtNtCsieiGu2EXtoJ_4core4iter6traits8iterator8Iterator8for_each4callcNCINvXsb_NtCslJiobkLta79_5alloc6stringNtB1p_6StringINtNtBa_7collect6ExtendcE6extendNtNtBe_4char13EscapeDefaultE0E0Cs25VvWdXQPOU_5paste, symObjAddr: 0x1B60, symBinAddr: 0x1A080, symSize: 0x20 }
  - { offset: 0x33A15, size: 0x8, addend: 0x0, symName: __RNCINvNvNtNtNtNtCsieiGu2EXtoJ_4core4iter6traits8iterator8Iterator8for_each4callhNCINvMsi_NtCslJiobkLta79_5alloc3vecINtB1p_3VechE14extend_trustedINtNtNtBc_8adapters3map3MapINtNtNtBe_5slice4iter4IterhENCNvNtB1r_3str13replace_ascii0EE0E0Cs25VvWdXQPOU_5paste, symObjAddr: 0x1B80, symBinAddr: 0x1A0A0, symSize: 0x20 }
  - { offset: 0x33AB4, size: 0x8, addend: 0x0, symName: __RNvXNtNtNtCsieiGu2EXtoJ_4core4iter6traits7collectINtNtNtB6_7sources4once4OnceNtCscKtU6MdFI5n_10proc_macro9TokenTreeENtB2_12IntoIterator9into_iterCs25VvWdXQPOU_5paste, symObjAddr: 0x2A00, symBinAddr: 0x1AF20, symSize: 0x20 }
  - { offset: 0x34532, size: 0x8, addend: 0x0, symName: __RNvNtNtCsieiGu2EXtoJ_4core5slice6memchr6memchrCs25VvWdXQPOU_5paste, symObjAddr: 0x2670, symBinAddr: 0x1AB90, symSize: 0xE0 }
  - { offset: 0x34664, size: 0x8, addend: 0x0, symName: __RNvXs5_NtNtCsieiGu2EXtoJ_4core5slice5indexINtNtNtB9_3ops5range9RangeFromjEINtB5_10SliceIndexShE5indexCs25VvWdXQPOU_5paste, symObjAddr: 0x2E00, symBinAddr: 0x1B320, symSize: 0x80 }
  - { offset: 0x34775, size: 0x8, addend: 0x0, symName: __RNvXs7_NtNtCsieiGu2EXtoJ_4core5slice5indexNtNtNtB9_3ops5range9RangeFullINtB5_10SliceIndexScE5indexCs25VvWdXQPOU_5paste, symObjAddr: 0x3210, symBinAddr: 0x1B730, symSize: 0x20 }
  - { offset: 0x3492D, size: 0x8, addend: 0x0, symName: __RNvNvNtCsieiGu2EXtoJ_4core9ub_checks23maybe_is_nonoverlapping7runtimeCs25VvWdXQPOU_5paste, symObjAddr: 0x2930, symBinAddr: 0x1AE50, symSize: 0xC0 }
  - { offset: 0x34AEF, size: 0x8, addend: 0x0, symName: __RNvXs1_NtNtNtCsieiGu2EXtoJ_4core3ops8function5implsQNCINvNvNtNtNtNtBb_4iter6traits8iterator8Iterator8for_each4callNtCscKtU6MdFI5n_10proc_macro9TokenTreeNCINvXsg_B1Q_NtB1Q_11TokenStreamINtNtBZ_7collect12FromIteratorB1O_E9from_iterINtNtNtB11_8adapters5chain5ChainINtNtB3K_4take4TakeNtNtB1Q_12token_stream8IntoIterEINtNtNtB11_7sources4once4OnceB1O_EEE0E0INtB7_5FnMutTuB1O_EE8call_mutCs25VvWdXQPOU_5paste, symObjAddr: 0x2A90, symBinAddr: 0x1AFB0, symSize: 0x40 }
  - { offset: 0x34B41, size: 0x8, addend: 0x0, symName: __RNvYNCNkNvNtNtNtCscKtU6MdFI5n_10proc_macro6bridge6client5state12BRIDGE_STATE0s_0INtNtNtCsieiGu2EXtoJ_4core3ops8function6FnOnceTINtNtB1n_6option6OptionQIB22_INtNtB1n_4cell4CellPuEEEEE9call_onceCs25VvWdXQPOU_5paste, symObjAddr: 0x38B0, symBinAddr: 0x1BDD0, symSize: 0x40 }
  - { offset: 0x34B85, size: 0x8, addend: 0x0, symName: __RNvYNvMsq_CscKtU6MdFI5n_10proc_macroNtB8_9TokenTree4spanINtNtNtCsieiGu2EXtoJ_4core3ops8function6FnOnceTRBy_EE9call_onceCs25VvWdXQPOU_5paste, symObjAddr: 0x3950, symBinAddr: 0x1BE70, symSize: 0x20 }
  - { offset: 0x34BC9, size: 0x8, addend: 0x0, symName: __RNvYNvYeNtNtCslJiobkLta79_5alloc6borrow7ToOwned8to_ownedINtNtNtCsieiGu2EXtoJ_4core3ops8function6FnOnceTReEE9call_onceCs25VvWdXQPOU_5paste, symObjAddr: 0x3970, symBinAddr: 0x1BE90, symSize: 0x30 }
  - { offset: 0x34C13, size: 0x8, addend: 0x0, symName: __RNvYNvCs25VvWdXQPOU_5paste4exprINtNtNtCsieiGu2EXtoJ_4core3ops8function2FnTNtCscKtU6MdFI5n_10proc_macro11TokenStreamEE4callB4_, symObjAddr: 0x38F0, symBinAddr: 0x1BE10, symSize: 0x20 }
  - { offset: 0x34C57, size: 0x8, addend: 0x0, symName: __RNvYNvCs25VvWdXQPOU_5paste4itemINtNtNtCsieiGu2EXtoJ_4core3ops8function2FnTNtCscKtU6MdFI5n_10proc_macro11TokenStreamEE4callB4_, symObjAddr: 0x3910, symBinAddr: 0x1BE30, symSize: 0x20 }
  - { offset: 0x34C9B, size: 0x8, addend: 0x0, symName: __RNvYNvCs25VvWdXQPOU_5paste5pasteINtNtNtCsieiGu2EXtoJ_4core3ops8function2FnTNtCscKtU6MdFI5n_10proc_macro11TokenStreamEE4callB4_, symObjAddr: 0x3930, symBinAddr: 0x1BE50, symSize: 0x20 }
  - { offset: 0x34F30, size: 0x8, addend: 0x0, symName: __RNvXs5_NtNtCsieiGu2EXtoJ_4core3str6traitsINtNtNtB9_3ops5range5RangejEINtNtNtB9_5slice5index10SliceIndexeE3getCs25VvWdXQPOU_5paste, symObjAddr: 0x2B70, symBinAddr: 0x1B090, symSize: 0x1F0 }
  - { offset: 0x35077, size: 0x8, addend: 0x0, symName: __RNvXs5_NtNtCsieiGu2EXtoJ_4core3str6traitsINtNtNtB9_3ops5range5RangejEINtNtNtB9_5slice5index10SliceIndexeE5indexCs25VvWdXQPOU_5paste, symObjAddr: 0x2D60, symBinAddr: 0x1B280, symSize: 0xA0 }
  - { offset: 0x35159, size: 0x8, addend: 0x0, symName: __RNvXs9_NtNtCsieiGu2EXtoJ_4core3str6traitsINtNtNtB9_3ops5range9RangeFromjEINtNtNtB9_5slice5index10SliceIndexeE3getCs25VvWdXQPOU_5paste, symObjAddr: 0x3230, symBinAddr: 0x1B750, symSize: 0x130 }
  - { offset: 0x35D00, size: 0x8, addend: 0x0, symName: __RNvXs5_NtNtCscKtU6MdFI5n_10proc_macro6bridge6bufferNtB5_6BufferNtNtNtCsieiGu2EXtoJ_4core3ops4drop4Drop4dropCs25VvWdXQPOU_5paste, symObjAddr: 0x2AD0, symBinAddr: 0x1AFF0, symSize: 0xA0 }
  - { offset: 0x35E01, size: 0x8, addend: 0x0, symName: __RNvXNtNtCscKtU6MdFI5n_10proc_macro6bridge3rpcuINtB2_6EncodeuE6encodeCs25VvWdXQPOU_5paste, symObjAddr: 0x29F0, symBinAddr: 0x1AF10, symSize: 0x10 }
  - { offset: 0x35EDA, size: 0x8, addend: 0x0, symName: __RNvXsa_NtNtCscKtU6MdFI5n_10proc_macro6bridge3rpcRShINtB5_6EncodeuE6encodeCs25VvWdXQPOU_5paste, symObjAddr: 0x3540, symBinAddr: 0x1BA60, symSize: 0xD0 }
  - { offset: 0x35FE2, size: 0x8, addend: 0x0, symName: __RNvXsc_NtNtCscKtU6MdFI5n_10proc_macro6bridge3rpcReINtB5_6EncodeuE6encodeCs25VvWdXQPOU_5paste, symObjAddr: 0x3610, symBinAddr: 0x1BB30, symSize: 0x30 }
  - { offset: 0x360CA, size: 0x8, addend: 0x0, symName: __RNvXsl_NtNtCscKtU6MdFI5n_10proc_macro6bridge3rpcNtB5_12PanicMessageINtB5_6EncodeuE6encodeCs25VvWdXQPOU_5paste, symObjAddr: 0x3640, symBinAddr: 0x1BB60, symSize: 0x130 }
  - { offset: 0x3629A, size: 0x8, addend: 0x0, symName: __RNvXso_NtNtCscKtU6MdFI5n_10proc_macro6bridge3rpcmINtB5_9DecodeMutuE6decodeCs25VvWdXQPOU_5paste, symObjAddr: 0x3770, symBinAddr: 0x1BC90, symSize: 0x140 }
  - { offset: 0x36408, size: 0x8, addend: 0x0, symName: __RNvXsR_NtCscKtU6MdFI5n_10proc_macro6bridgeINtNtCsieiGu2EXtoJ_4core6option6OptionNtNtB5_6client11TokenStreamEINtNtB5_3rpc6EncodeuE6encodeCs25VvWdXQPOU_5paste, symObjAddr: 0x33D0, symBinAddr: 0x1B8F0, symSize: 0xB0 }
  - { offset: 0x364AE, size: 0x8, addend: 0x0, symName: __RNvXsR_NtCscKtU6MdFI5n_10proc_macro6bridgeINtNtCsieiGu2EXtoJ_4core6option6OptionReEINtNtB5_3rpc6EncodeuE6encodeCs25VvWdXQPOU_5paste, symObjAddr: 0x3480, symBinAddr: 0x1B9A0, symSize: 0xC0 }
  - { offset: 0x36F0B, size: 0x8, addend: 0x0, symName: __RINvXs_NvMNtCslJiobkLta79_5alloc5sliceSp9to_vec_inhNtB5_10ConvertVec6to_vecNtNtBa_5alloc6GlobalECs25VvWdXQPOU_5paste, symObjAddr: 0x16E0, symBinAddr: 0x19C00, symSize: 0x170 }
  - { offset: 0x37187, size: 0x8, addend: 0x0, symName: __RNvXs6_NtCslJiobkLta79_5alloc5boxedINtB5_3BoxANtCscKtU6MdFI5n_10proc_macro9TokenTreej1_ENtNtNtCsieiGu2EXtoJ_4core3ops4drop4Drop4dropCs25VvWdXQPOU_5paste, symObjAddr: 0x2E80, symBinAddr: 0x1B3A0, symSize: 0xB0 }
  - { offset: 0x372C2, size: 0x8, addend: 0x0, symName: __RNvXs6_NtCslJiobkLta79_5alloc5boxedINtB5_3BoxANtCscKtU6MdFI5n_10proc_macro9TokenTreej3_ENtNtNtCsieiGu2EXtoJ_4core3ops4drop4Drop4dropCs25VvWdXQPOU_5paste, symObjAddr: 0x2F30, symBinAddr: 0x1B450, symSize: 0xB0 }
  - { offset: 0x373FD, size: 0x8, addend: 0x0, symName: __RNvXs6_NtCslJiobkLta79_5alloc5boxedINtB5_3BoxDNtNtCsieiGu2EXtoJ_4core3any3AnyNtNtBM_6marker4SendEL_ENtNtNtBM_3ops4drop4Drop4dropCs25VvWdXQPOU_5paste, symObjAddr: 0x2FE0, symBinAddr: 0x1B500, symSize: 0xC0 }
  - { offset: 0x3753A, size: 0x8, addend: 0x0, symName: __RNvXs6_NtCslJiobkLta79_5alloc5boxedINtB5_3BoxDNtNtCsieiGu2EXtoJ_4core5error5ErrorNtNtBM_6marker4SyncNtB1j_4SendEL_ENtNtNtBM_3ops4drop4Drop4dropCs25VvWdXQPOU_5paste, symObjAddr: 0x30A0, symBinAddr: 0x1B5C0, symSize: 0xC0 }
  - { offset: 0x37677, size: 0x8, addend: 0x0, symName: __RNvXs6_NtCslJiobkLta79_5alloc5boxedINtB5_3BoxNtNtNtCsHUR1vrdMJt_3std2io5error6CustomENtNtNtCsieiGu2EXtoJ_4core3ops4drop4Drop4dropCs25VvWdXQPOU_5paste, symObjAddr: 0x3160, symBinAddr: 0x1B680, symSize: 0xB0 }
  - { offset: 0x377EC, size: 0x8, addend: 0x0, symName: __RINvMNtCsieiGu2EXtoJ_4core6optionINtB3_6OptionIBw_NtCscKtU6MdFI5n_10proc_macro9TokenTreeEE18get_or_insert_withNCNvMs3_NtNtNtB5_4iter8adapters8peekableINtB1S_8PeekableNtNtBO_12token_stream8IntoIterE4peek0ECs25VvWdXQPOU_5paste, symObjAddr: 0x0, symBinAddr: 0x185A0, symSize: 0x140 }
  - { offset: 0x378B0, size: 0x8, addend: 0x0, symName: __RINvMNtCsieiGu2EXtoJ_4core6optionINtB3_6OptionRNtCscKtU6MdFI5n_10proc_macro9TokenTreeE6map_orNtBL_4SpanNvMsq_BL_BJ_4spanECs25VvWdXQPOU_5paste, symObjAddr: 0x140, symBinAddr: 0x186E0, symSize: 0x90 }
  - { offset: 0x37A4F, size: 0x8, addend: 0x0, symName: __RINvMNtCsieiGu2EXtoJ_4core6optionINtB3_6OptionReE11map_or_elseNtNtCslJiobkLta79_5alloc6string6StringNCNvNtB12_3fmt6format0NvYeNtNtB12_6borrow7ToOwned8to_ownedECs25VvWdXQPOU_5paste, symObjAddr: 0x1D0, symBinAddr: 0x18770, symSize: 0xC0 }
  - { offset: 0x37B68, size: 0x8, addend: 0x0, symName: __RINvMs3_NtNtCscKtU6MdFI5n_10proc_macro6bridge6bufferNtB6_6Buffer17extend_from_arrayKj4_ECs25VvWdXQPOU_5paste, symObjAddr: 0x290, symBinAddr: 0x18830, symSize: 0x1E0 }
  - { offset: 0x37CF0, size: 0x8, addend: 0x0, symName: __RINvMs3_NtNtCscKtU6MdFI5n_10proc_macro6bridge6bufferNtB6_6Buffer17extend_from_arrayKj8_ECs25VvWdXQPOU_5paste, symObjAddr: 0x470, symBinAddr: 0x18A10, symSize: 0x1E0 }
  - { offset: 0x38022, size: 0x8, addend: 0x0, symName: __RNvMNtCsieiGu2EXtoJ_4core6optionINtB2_6OptionNtCscKtU6MdFI5n_10proc_macro5GroupE4takeCs25VvWdXQPOU_5paste, symObjAddr: 0x1BA0, symBinAddr: 0x1A0C0, symSize: 0x40 }
  - { offset: 0x38079, size: 0x8, addend: 0x0, symName: __RNvMNtCsieiGu2EXtoJ_4core6optionINtB2_6OptionNtCscKtU6MdFI5n_10proc_macro9TokenTreeE6as_refCs25VvWdXQPOU_5paste, symObjAddr: 0x1BE0, symBinAddr: 0x1A100, symSize: 0x40 }
  - { offset: 0x380DF, size: 0x8, addend: 0x0, symName: __RNvMNtCsieiGu2EXtoJ_4core6optionINtB2_6OptionNtCscKtU6MdFI5n_10proc_macro9TokenTreeE7is_noneCs25VvWdXQPOU_5paste, symObjAddr: 0x1C20, symBinAddr: 0x1A140, symSize: 0x30 }
  - { offset: 0x38129, size: 0x8, addend: 0x0, symName: __RNvMNtCsieiGu2EXtoJ_4core6optionINtB2_6OptionNtCscKtU6MdFI5n_10proc_macro9TokenTreeE7is_someCs25VvWdXQPOU_5paste, symObjAddr: 0x1C50, symBinAddr: 0x1A170, symSize: 0x30 }
  - { offset: 0x38167, size: 0x8, addend: 0x0, symName: __RNvMs3_NtNtCscKtU6MdFI5n_10proc_macro6bridge6bufferNtB5_6Buffer17extend_from_sliceCs25VvWdXQPOU_5paste, symObjAddr: 0x1C80, symBinAddr: 0x1A1A0, symSize: 0x1E0 }
  - { offset: 0x382E4, size: 0x8, addend: 0x0, symName: __RNvMs3_NtNtCscKtU6MdFI5n_10proc_macro6bridge6bufferNtB5_6Buffer4pushCs25VvWdXQPOU_5paste, symObjAddr: 0x1E60, symBinAddr: 0x1A380, symSize: 0x1A0 }
  - { offset: 0x391EE, size: 0x8, addend: 0x0, symName: ___llvm_profile_get_magic, symObjAddr: 0x20, symBinAddr: 0x1BF30, symSize: 0x10 }
  - { offset: 0x3920F, size: 0x8, addend: 0x0, symName: ___llvm_profile_get_num_padding_bytes, symObjAddr: 0x40, symBinAddr: 0x1BF40, symSize: 0x10 }
  - { offset: 0x39240, size: 0x8, addend: 0x0, symName: ___llvm_profile_get_version, symObjAddr: 0x50, symBinAddr: 0x1BF50, symSize: 0x10 }
  - { offset: 0x392B5, size: 0x8, addend: 0x0, symName: ___llvm_profile_is_continuous_mode_enabled, symObjAddr: 0x0, symBinAddr: 0x1BF60, symSize: 0x20 }
  - { offset: 0x392D2, size: 0x8, addend: 0x0, symName: _ContinuouslySyncProfile, symObjAddr: 0x40E0, symBinAddr: 0x886B0, symSize: 0x0 }
  - { offset: 0x392F4, size: 0x8, addend: 0x0, symName: _PageSize, symObjAddr: 0x40E4, symBinAddr: 0x886B4, symSize: 0x0 }
  - { offset: 0x39322, size: 0x8, addend: 0x0, symName: ___llvm_profile_is_continuous_mode_enabled, symObjAddr: 0x0, symBinAddr: 0x1BF60, symSize: 0x20 }
  - { offset: 0x39343, size: 0x8, addend: 0x0, symName: ___llvm_profile_enable_continuous_mode, symObjAddr: 0x20, symBinAddr: 0x1BF80, symSize: 0x10 }
  - { offset: 0x39360, size: 0x8, addend: 0x0, symName: ___llvm_profile_disable_continuous_mode, symObjAddr: 0x30, symBinAddr: 0x1BF90, symSize: 0x10 }
  - { offset: 0x3937D, size: 0x8, addend: 0x0, symName: ___llvm_profile_set_page_size, symObjAddr: 0x40, symBinAddr: 0x1BFA0, symSize: 0x10 }
  - { offset: 0x393A8, size: 0x8, addend: 0x0, symName: ___llvm_profile_get_size_for_buffer, symObjAddr: 0x50, symBinAddr: 0x1BFB0, symSize: 0xD0 }
  - { offset: 0x397F6, size: 0x8, addend: 0x0, symName: ___llvm_profile_get_size_for_buffer_internal, symObjAddr: 0x120, symBinAddr: 0x1C080, symSize: 0x210 }
  - { offset: 0x39B9A, size: 0x8, addend: 0x0, symName: ___llvm_profile_get_num_data, symObjAddr: 0x330, symBinAddr: 0x1C290, symSize: 0x10 }
  - { offset: 0x39BD3, size: 0x8, addend: 0x0, symName: ___llvm_profile_get_data_size, symObjAddr: 0x340, symBinAddr: 0x1C2A0, symSize: 0x10 }
  - { offset: 0x39BFF, size: 0x8, addend: 0x0, symName: ___llvm_profile_get_data_size, symObjAddr: 0x340, symBinAddr: 0x1C2A0, symSize: 0x10 }
  - { offset: 0x39C35, size: 0x8, addend: 0x0, symName: ___llvm_profile_get_num_vtable, symObjAddr: 0x350, symBinAddr: 0x1C2B0, symSize: 0x20 }
  - { offset: 0x39C8B, size: 0x8, addend: 0x0, symName: ___llvm_profile_get_vtable_section_size, symObjAddr: 0x370, symBinAddr: 0x1C2D0, symSize: 0x10 }
  - { offset: 0x39CB2, size: 0x8, addend: 0x0, symName: ___llvm_profile_counter_entry_size, symObjAddr: 0x380, symBinAddr: 0x1C2E0, symSize: 0x20 }
  - { offset: 0x39CCA, size: 0x8, addend: 0x0, symName: ___llvm_profile_get_num_counters, symObjAddr: 0x3A0, symBinAddr: 0x1C300, symSize: 0x50 }
  - { offset: 0x39D1F, size: 0x8, addend: 0x0, symName: ___llvm_profile_get_counters_size, symObjAddr: 0x3F0, symBinAddr: 0x1C350, symSize: 0x60 }
  - { offset: 0x39DB3, size: 0x8, addend: 0x0, symName: ___llvm_profile_get_num_bitmap_bytes, symObjAddr: 0x450, symBinAddr: 0x1C3B0, symSize: 0x10 }
  - { offset: 0x39DDA, size: 0x8, addend: 0x0, symName: ___llvm_profile_get_name_size, symObjAddr: 0x460, symBinAddr: 0x1C3C0, symSize: 0x10 }
  - { offset: 0x39E01, size: 0x8, addend: 0x0, symName: ___llvm_profile_get_padding_sizes_for_counters, symObjAddr: 0x470, symBinAddr: 0x1C3D0, symSize: 0x1B0 }
  - { offset: 0x39F20, size: 0x8, addend: 0x0, symName: _initBufferWriter, symObjAddr: 0x620, symBinAddr: 0x1C580, symSize: 0x10 }
  - { offset: 0x3A08A, size: 0x8, addend: 0x0, symName: _lprofCurFilename, symObjAddr: 0xA6F8, symBinAddr: 0x886B8, symSize: 0x0 }
  - { offset: 0x3A1B3, size: 0x8, addend: 0x0, symName: _ProfileFile, symObjAddr: 0xA7C8, symBinAddr: 0x88788, symSize: 0x0 }
  - { offset: 0x3A3E1, size: 0x8, addend: 0x0, symName: _ProfileMergeRequested, symObjAddr: 0xA7D0, symBinAddr: 0x88790, symSize: 0x0 }
  - { offset: 0x3A582, size: 0x8, addend: 0x0, symName: _getCurFilenameLength, symObjAddr: 0x180, symBinAddr: 0x1C590, symSize: 0xE0 }
  - { offset: 0x3A60D, size: 0x8, addend: 0x0, symName: _getCurFilename, symObjAddr: 0x260, symBinAddr: 0x1C670, symSize: 0x380 }
  - { offset: 0x3A89D, size: 0x8, addend: 0x0, symName: _parseAndSetFilename, symObjAddr: 0x6B0, symBinAddr: 0x1C9F0, symSize: 0x590 }
  - { offset: 0x3AABB, size: 0x8, addend: 0x0, symName: ___llvm_profile_initialize, symObjAddr: 0xC40, symBinAddr: 0x1CF80, symSize: 0x90 }
  - { offset: 0x3AB37, size: 0x8, addend: 0x0, symName: ___llvm_profile_write_file, symObjAddr: 0xD30, symBinAddr: 0x1D010, symSize: 0x160 }
  - { offset: 0x3AD0A, size: 0x8, addend: 0x0, symName: _writeFile, symObjAddr: 0xE90, symBinAddr: 0x1D170, symSize: 0x2B0 }
  - { offset: 0x3AEB3, size: 0x8, addend: 0x0, symName: _writeFileWithoutReturn, symObjAddr: 0x1190, symBinAddr: 0x1D420, symSize: 0x10 }
  - { offset: 0x3AEEA, size: 0x8, addend: 0x0, symName: _getProfileFileSizeForMerging, symObjAddr: 0x13C0, symBinAddr: 0x1D430, symSize: 0xC0 }
  - { offset: 0x3AF2F, size: 0x8, addend: 0x0, symName: _mmapForContinuousMode, symObjAddr: 0x1480, symBinAddr: 0x1D4F0, symSize: 0x2D0 }
  - { offset: 0x3B0EE, size: 0x8, addend: 0x0, symName: _fileWriter, symObjAddr: 0x1750, symBinAddr: 0x1D7C0, symSize: 0x150 }
  - { offset: 0x3B1BE, size: 0x8, addend: 0x0, symName: _binaryIdsStringWriter, symObjAddr: 0x18A0, symBinAddr: 0x1D910, symSize: 0xA0 }
  - { offset: 0x3B25F, size: 0x8, addend: 0x0, symName: _truncateCurrentFile, symObjAddr: 0x1940, symBinAddr: 0x1D9B0, symSize: 0xB0 }
  - { offset: 0x3B305, size: 0x8, addend: 0x0, symName: _initializeProfileForContinuousMode, symObjAddr: 0x19F0, symBinAddr: 0x1DA60, symSize: 0x2C0 }
  - { offset: 0x3B4F4, size: 0x8, addend: 0x0, symName: _createProfileDir, symObjAddr: 0x1CB0, symBinAddr: 0x1DD20, symSize: 0x7F }
  - { offset: 0x3B665, size: 0x8, addend: 0x0, symName: _lprofProfileDumped, symObjAddr: 0x0, symBinAddr: 0x1DDA0, symSize: 0x10 }
  - { offset: 0x3B682, size: 0x8, addend: 0x0, symName: _ProfileDumped, symObjAddr: 0x4E0, symBinAddr: 0x88794, symSize: 0x0 }
  - { offset: 0x3B692, size: 0x8, addend: 0x0, symName: _lprofProfileDumped, symObjAddr: 0x0, symBinAddr: 0x1DDA0, symSize: 0x10 }
  - { offset: 0x3B6DA, size: 0x8, addend: 0x0, symName: _lprofGetLoadModuleSignature, symObjAddr: 0x0, symBinAddr: 0x1DDB0, symSize: 0xE0 }
  - { offset: 0x3B707, size: 0x8, addend: 0x0, symName: _VPMergeHook, symObjAddr: 0x2AA0, symBinAddr: 0x8A930, symSize: 0x0 }
  - { offset: 0x3B96B, size: 0x8, addend: 0x0, symName: _lprofGetLoadModuleSignature, symObjAddr: 0x0, symBinAddr: 0x1DDB0, symSize: 0xE0 }
  - { offset: 0x3B9DF, size: 0x8, addend: 0x0, symName: ___llvm_profile_check_compatibility, symObjAddr: 0xE0, symBinAddr: 0x1DE90, symSize: 0x190 }
  - { offset: 0x3BABF, size: 0x8, addend: 0x0, symName: ___llvm_profile_merge_from_buffer, symObjAddr: 0x270, symBinAddr: 0x1E020, symSize: 0x4D8 }
  - { offset: 0x3BD1F, size: 0x8, addend: 0x0, symName: _lprofMergeValueProfData, symObjAddr: 0x0, symBinAddr: 0x1E500, symSize: 0xF1 }
  - { offset: 0x3BD30, size: 0x8, addend: 0x0, symName: _lprofMergeValueProfData, symObjAddr: 0x0, symBinAddr: 0x1E500, symSize: 0xF1 }
  - { offset: 0x3BFEE, size: 0x8, addend: 0x0, symName: ___llvm_profile_begin_data, symObjAddr: 0x0, symBinAddr: 0x1E600, symSize: 0x10 }
  - { offset: 0x3C00D, size: 0x8, addend: 0x0, symName: _CurrentVNode, symObjAddr: 0xE8, symBinAddr: 0x87B18, symSize: 0x0 }
  - { offset: 0x3C089, size: 0x8, addend: 0x0, symName: _EndVNode, symObjAddr: 0xF0, symBinAddr: 0x87B20, symSize: 0x0 }
  - { offset: 0x3C092, size: 0x8, addend: 0x0, symName: ___llvm_profile_begin_data, symObjAddr: 0x0, symBinAddr: 0x1E600, symSize: 0x10 }
  - { offset: 0x3C0B3, size: 0x8, addend: 0x0, symName: ___llvm_profile_end_data, symObjAddr: 0x10, symBinAddr: 0x1E610, symSize: 0x10 }
  - { offset: 0x3C0D4, size: 0x8, addend: 0x0, symName: ___llvm_profile_begin_names, symObjAddr: 0x20, symBinAddr: 0x1E620, symSize: 0x10 }
  - { offset: 0x3C0F5, size: 0x8, addend: 0x0, symName: ___llvm_profile_end_names, symObjAddr: 0x30, symBinAddr: 0x1E630, symSize: 0x10 }
  - { offset: 0x3C116, size: 0x8, addend: 0x0, symName: ___llvm_profile_begin_counters, symObjAddr: 0x40, symBinAddr: 0x1E640, symSize: 0x10 }
  - { offset: 0x3C137, size: 0x8, addend: 0x0, symName: ___llvm_profile_end_counters, symObjAddr: 0x50, symBinAddr: 0x1E650, symSize: 0x10 }
  - { offset: 0x3C158, size: 0x8, addend: 0x0, symName: ___llvm_profile_begin_bitmap, symObjAddr: 0x60, symBinAddr: 0x1E660, symSize: 0x10 }
  - { offset: 0x3C179, size: 0x8, addend: 0x0, symName: ___llvm_profile_end_bitmap, symObjAddr: 0x70, symBinAddr: 0x1E670, symSize: 0x10 }
  - { offset: 0x3C19A, size: 0x8, addend: 0x0, symName: ___llvm_profile_begin_vtables, symObjAddr: 0x80, symBinAddr: 0x1E680, symSize: 0x10 }
  - { offset: 0x3C1BB, size: 0x8, addend: 0x0, symName: ___llvm_profile_end_vtables, symObjAddr: 0x90, symBinAddr: 0x1E690, symSize: 0x10 }
  - { offset: 0x3C1DC, size: 0x8, addend: 0x0, symName: ___llvm_profile_begin_vtabnames, symObjAddr: 0xA0, symBinAddr: 0x1E6A0, symSize: 0x10 }
  - { offset: 0x3C1FD, size: 0x8, addend: 0x0, symName: ___llvm_profile_end_vtabnames, symObjAddr: 0xB0, symBinAddr: 0x1E6B0, symSize: 0x10 }
  - { offset: 0x3C21E, size: 0x8, addend: 0x0, symName: ___llvm_profile_begin_vnodes, symObjAddr: 0xC0, symBinAddr: 0x1E6C0, symSize: 0x10 }
  - { offset: 0x3C23F, size: 0x8, addend: 0x0, symName: ___llvm_profile_end_vnodes, symObjAddr: 0xD0, symBinAddr: 0x1E6D0, symSize: 0x10 }
  - { offset: 0x3C260, size: 0x8, addend: 0x0, symName: ___llvm_write_binary_ids, symObjAddr: 0xE0, symBinAddr: 0x1E6E0, symSize: 0x3 }
  - { offset: 0x3C4E4, size: 0x8, addend: 0x0, symName: __GLOBAL__sub_I_InstrProfilingRuntime.cpp, symObjAddr: 0x0, symBinAddr: 0x1E6F0, symSize: 0x12 }
  - { offset: 0x3C507, size: 0x8, addend: 0x0, symName: ___llvm_profile_runtime, symObjAddr: 0x580, symBinAddr: 0x8A938, symSize: 0x0 }
  - { offset: 0x3C538, size: 0x8, addend: 0x0, symName: __GLOBAL__sub_I_InstrProfilingRuntime.cpp, symObjAddr: 0x0, symBinAddr: 0x1E6F0, symSize: 0x12 }
  - { offset: 0x3C5B4, size: 0x8, addend: 0x0, symName: ___llvm_profile_recursive_mkdir, symObjAddr: 0x0, symBinAddr: 0x1E710, symSize: 0x40 }
  - { offset: 0x3C5D3, size: 0x8, addend: 0x0, symName: _lprofDirMode, symObjAddr: 0x6F8, symBinAddr: 0x87B28, symSize: 0x0 }
  - { offset: 0x3C63E, size: 0x8, addend: 0x0, symName: ___llvm_profile_recursive_mkdir, symObjAddr: 0x0, symBinAddr: 0x1E710, symSize: 0x40 }
  - { offset: 0x3C6BD, size: 0x8, addend: 0x0, symName: _lprofGetHostName, symObjAddr: 0x60, symBinAddr: 0x1E750, symSize: 0x70 }
  - { offset: 0x3C7EC, size: 0x8, addend: 0x0, symName: _lprofLockFileHandle, symObjAddr: 0x1B0, symBinAddr: 0x1E7C0, symSize: 0x70 }
  - { offset: 0x3C87A, size: 0x8, addend: 0x0, symName: _lprofUnlockFileHandle, symObjAddr: 0x220, symBinAddr: 0x1E830, symSize: 0x70 }
  - { offset: 0x3C8E2, size: 0x8, addend: 0x0, symName: _lprofOpenFileEx, symObjAddr: 0x290, symBinAddr: 0x1E8A0, symSize: 0xB0 }
  - { offset: 0x3C974, size: 0x8, addend: 0x0, symName: _lprofGetFileContentBuffer, symObjAddr: 0x340, symBinAddr: 0x1E950, symSize: 0x1B0 }
  - { offset: 0x3CA03, size: 0x8, addend: 0x0, symName: _lprofReleaseBuffer, symObjAddr: 0x4F0, symBinAddr: 0x1EB00, symSize: 0x70 }
  - { offset: 0x3CA45, size: 0x8, addend: 0x0, symName: _lprofFindFirstDirSeparator, symObjAddr: 0x660, symBinAddr: 0x1EB70, symSize: 0x10 }
  - { offset: 0x3CA85, size: 0x8, addend: 0x0, symName: _lprofSuspendSigKill, symObjAddr: 0x680, symBinAddr: 0x1EB80, symSize: 0x10 }
  - { offset: 0x3CAA8, size: 0x8, addend: 0x0, symName: _lprofRestoreSigKill, symObjAddr: 0x690, symBinAddr: 0x1EB90, symSize: 0x10 }
  - { offset: 0x3CAC7, size: 0x8, addend: 0x0, symName: _lprofAtExit, symObjAddr: 0x6F0, symBinAddr: 0x1EBA0, symSize: 0x5 }
  - { offset: 0x3CDD8, size: 0x8, addend: 0x0, symName: _getValueProfRecordHeaderSize, symObjAddr: 0x0, symBinAddr: 0x1EBB0, symSize: 0x10 }
  - { offset: 0x3CDF7, size: 0x8, addend: 0x0, symName: _VPMaxNumValsPerSite, symObjAddr: 0x1468, symBinAddr: 0x87B30, symSize: 0x0 }
  - { offset: 0x3CE8C, size: 0x8, addend: 0x0, symName: _hasNonDefaultValsPerSite, symObjAddr: 0xEE78, symBinAddr: 0x88798, symSize: 0x0 }
  - { offset: 0x3CEB3, size: 0x8, addend: 0x0, symName: _OutOfNodesWarnings, symObjAddr: 0xEE80, symBinAddr: 0x887A0, symSize: 0x0 }
  - { offset: 0x3CEC8, size: 0x8, addend: 0x0, symName: _hasStaticCounters, symObjAddr: 0xEE7C, symBinAddr: 0x8879C, symSize: 0x0 }
  - { offset: 0x3CEE5, size: 0x8, addend: 0x0, symName: _TheVPDataReader, symObjAddr: 0x1470, symBinAddr: 0x87B38, symSize: 0x0 }
  - { offset: 0x3D17B, size: 0x8, addend: 0x0, symName: _RTRecord, symObjAddr: 0xEE88, symBinAddr: 0x887A8, symSize: 0x0 }
  - { offset: 0x3D35D, size: 0x8, addend: 0x0, symName: _getValueProfRecordHeaderSize, symObjAddr: 0x0, symBinAddr: 0x1EBB0, symSize: 0x10 }
  - { offset: 0x3D3B1, size: 0x8, addend: 0x0, symName: _getValueProfRecordValueData, symObjAddr: 0x20, symBinAddr: 0x1EBC0, symSize: 0x10 }
  - { offset: 0x3D45D, size: 0x8, addend: 0x0, symName: _getValueProfRecordNext, symObjAddr: 0x130, symBinAddr: 0x1EBD0, symSize: 0x100 }
  - { offset: 0x3D465, size: 0x8, addend: 0x0, symName: _getFirstValueProfRecord, symObjAddr: 0x230, symBinAddr: 0x1ECD0, symSize: 0x10 }
  - { offset: 0x3D4EB, size: 0x8, addend: 0x0, symName: _getFirstValueProfRecord, symObjAddr: 0x230, symBinAddr: 0x1ECD0, symSize: 0x10 }
  - { offset: 0x3D5CB, size: 0x8, addend: 0x0, symName: _lprofSetupValueProfiler, symObjAddr: 0x8C0, symBinAddr: 0x1ECE0, symSize: 0x50 }
  - { offset: 0x3D6DD, size: 0x8, addend: 0x0, symName: ___llvm_profile_instrument_target_value, symObjAddr: 0xB90, symBinAddr: 0x1ED30, symSize: 0x240 }
  - { offset: 0x3D7F8, size: 0x8, addend: 0x0, symName: _lprofGetVPDataReader, symObjAddr: 0xE20, symBinAddr: 0x1EF70, symSize: 0x10 }
  - { offset: 0x3D81B, size: 0x8, addend: 0x0, symName: _initializeValueProfRuntimeRecord, symObjAddr: 0xE30, symBinAddr: 0x1EF80, symSize: 0x390 }
  - { offset: 0x3D940, size: 0x8, addend: 0x0, symName: _getNumValueDataForSiteWrapper, symObjAddr: 0x11C0, symBinAddr: 0x1F310, symSize: 0x20 }
  - { offset: 0x3D984, size: 0x8, addend: 0x0, symName: _getNumValueDataForSiteWrapper, symObjAddr: 0x11C0, symBinAddr: 0x1F310, symSize: 0x20 }
  - { offset: 0x3D9AA, size: 0x8, addend: 0x0, symName: _getValueProfDataSizeWrapper, symObjAddr: 0x11E0, symBinAddr: 0x1F330, symSize: 0xB0 }
  - { offset: 0x3D9D0, size: 0x8, addend: 0x0, symName: _getValueProfDataSizeWrapper, symObjAddr: 0x11E0, symBinAddr: 0x1F330, symSize: 0xB0 }
  - { offset: 0x3DA01, size: 0x8, addend: 0x0, symName: _getValueProfDataSizeWrapper, symObjAddr: 0x11E0, symBinAddr: 0x1F330, symSize: 0xB0 }
  - { offset: 0x3DA5E, size: 0x8, addend: 0x0, symName: _getNextNValueData, symObjAddr: 0x1290, symBinAddr: 0x1F3E0, symSize: 0xC0 }
  - { offset: 0x3DAF8, size: 0x8, addend: 0x0, symName: _getNumValueSitesRT, symObjAddr: 0x1350, symBinAddr: 0x1F4A0, symSize: 0x10 }
  - { offset: 0x3DB39, size: 0x8, addend: 0x0, symName: _getNumValueDataRT, symObjAddr: 0x1360, symBinAddr: 0x1F4B0, symSize: 0x101 }
  - { offset: 0x3DBF1, size: 0x8, addend: 0x0, symName: ___llvm_profile_raw_version, symObjAddr: 0x0, symBinAddr: 0x87B68, symSize: 0x0 }
  - { offset: 0x3DC33, size: 0x8, addend: 0x0, symName: _lprofBufferWriter, symObjAddr: 0x0, symBinAddr: 0x1F5C0, symSize: 0x60 }
  - { offset: 0x3DC52, size: 0x8, addend: 0x0, symName: _FreeHook, symObjAddr: 0x55B0, symBinAddr: 0x8A940, symSize: 0x0 }
  - { offset: 0x3DC78, size: 0x8, addend: 0x0, symName: _DynamicBufferIOBuffer, symObjAddr: 0x55B8, symBinAddr: 0x8A948, symSize: 0x0 }
  - { offset: 0x3DCA6, size: 0x8, addend: 0x0, symName: _VPBufferSize, symObjAddr: 0x55C0, symBinAddr: 0x8A950, symSize: 0x0 }
  - { offset: 0x3DCCD, size: 0x8, addend: 0x0, symName: _TheBufferIO, symObjAddr: 0x75D0, symBinAddr: 0x8A7D0, symSize: 0x0 }
  - { offset: 0x3DE17, size: 0x8, addend: 0x0, symName: _BufferIOBuffer, symObjAddr: 0x55D0, symBinAddr: 0x887D0, symSize: 0x0 }
  - { offset: 0x3DE41, size: 0x8, addend: 0x0, symName: _VPDataArray, symObjAddr: 0x75F0, symBinAddr: 0x8A7F0, symSize: 0x0 }
  - { offset: 0x3DEB7, size: 0x8, addend: 0x0, symName: _lprofBufferWriter, symObjAddr: 0x0, symBinAddr: 0x1F5C0, symSize: 0x60 }
  - { offset: 0x3DFD0, size: 0x8, addend: 0x0, symName: _lprofBufferIOWrite, symObjAddr: 0x100, symBinAddr: 0x1F620, symSize: 0x110 }
  - { offset: 0x3E0E9, size: 0x8, addend: 0x0, symName: _lprofWriteData, symObjAddr: 0x2A0, symBinAddr: 0x1F730, symSize: 0x120 }
  - { offset: 0x3E521, size: 0x8, addend: 0x0, symName: _lprofWriteDataImpl, symObjAddr: 0x3C0, symBinAddr: 0x1F850, symSize: 0x6E0 }
  - { offset: 0x3E87C, size: 0x8, addend: 0x0, symName: _writeOneValueProfData, symObjAddr: 0xB40, symBinAddr: 0x1FF30, symSize: 0x438 }
  - { offset: 0x3ECDB, size: 0x8, addend: 0x0, symName: '__ZN107_$LT$proc_macro..bridge..buffer..Buffer$u20$as$u20$core..convert..From$LT$alloc..vec..Vec$LT$u8$GT$$GT$$GT$4from4drop17hd72fc05f241bd369E', symObjAddr: 0xB60, symBinAddr: 0x20500, symSize: 0x30 }
  - { offset: 0x3ED82, size: 0x8, addend: 0x0, symName: '__ZN107_$LT$proc_macro..bridge..buffer..Buffer$u20$as$u20$core..convert..From$LT$alloc..vec..Vec$LT$u8$GT$$GT$$GT$4from7reserve17haedd2fb703e9d73bE', symObjAddr: 0xB90, symBinAddr: 0x20530, symSize: 0x90 }
  - { offset: 0x3F0B4, size: 0x8, addend: 0x0, symName: '__ZN71_$LT$$RF$str$u20$as$u20$proc_macro..bridge..rpc..DecodeMut$LT$S$GT$$GT$6decode17h2302a82e31a00500E', symObjAddr: 0x24230, symBinAddr: 0x27D80, symSize: 0xC0 }
  - { offset: 0x3F26E, size: 0x8, addend: 0x0, symName: '__ZN10proc_macro6bridge3rpc165_$LT$impl$u20$core..convert..From$LT$proc_macro..bridge..rpc..PanicMessage$GT$$u20$for$u20$alloc..boxed..Box$LT$dyn$u20$core..any..Any$u2b$core..marker..Send$GT$$GT$4from17h7088adbaeddaa7f6E', symObjAddr: 0x142F0, symBinAddr: 0x21DD0, symSize: 0xF0 }
  - { offset: 0x3F414, size: 0x8, addend: 0x0, symName: '__ZN155_$LT$proc_macro..bridge..rpc..PanicMessage$u20$as$u20$core..convert..From$LT$alloc..boxed..Box$LT$dyn$u20$core..any..Any$u2b$core..marker..Send$GT$$GT$$GT$4from17h5486e80969f5b0f4E', symObjAddr: 0x1ECB0, symBinAddr: 0x264A0, symSize: 0x150 }
  - { offset: 0x3F72F, size: 0x8, addend: 0x0, symName: '__ZN95_$LT$proc_macro..bridge..client..state..set..RestoreOnDrop$u20$as$u20$core..ops..drop..Drop$GT$4drop17h2dd41e2d3d134982E', symObjAddr: 0x25A50, symBinAddr: 0x283B0, symSize: 0x20 }
  - { offset: 0x3F8A0, size: 0x8, addend: 0x0, symName: __ZN10proc_macro6bridge6client11TokenStream12concat_trees17hf0411163da410178E, symObjAddr: 0x14500, symBinAddr: 0x21EC0, symSize: 0x750 }
  - { offset: 0x3FF92, size: 0x8, addend: 0x0, symName: '__ZN81_$LT$proc_macro..bridge..client..TokenStream$u20$as$u20$core..ops..drop..Drop$GT$4drop17h1f7ad44ee0ec675cE', symObjAddr: 0x24EE0, symBinAddr: 0x282B0, symSize: 0x20 }
  - { offset: 0x400A3, size: 0x8, addend: 0x0, symName: '__ZN10proc_macro6bridge6client6Bridge4with28_$u7b$$u7b$closure$u7d$$u7d$17h4214b6f6b3cfd975E', symObjAddr: 0x16BB0, symBinAddr: 0x226B0, symSize: 0x530 }
  - { offset: 0x408AB, size: 0x8, addend: 0x0, symName: __ZN10proc_macro6bridge6client24maybe_install_panic_hook17h392df2dc04d2be0dE, symObjAddr: 0x16720, symBinAddr: 0x22610, symSize: 0x60 }
  - { offset: 0x4091E, size: 0x8, addend: 0x0, symName: '__ZN10proc_macro6bridge6client24maybe_install_panic_hook28_$u7b$$u7b$closure$u7d$$u7d$28_$u7b$$u7b$closure$u7d$$u7d$17h1e02a45df9c79b0bE', symObjAddr: 0x16780, symBinAddr: 0x22670, symSize: 0x40 }
  - { offset: 0x40A56, size: 0x8, addend: 0x0, symName: '__ZN78_$LT$proc_macro..bridge..client..TokenStream$u20$as$u20$core..clone..Clone$GT$5clone17ha90d5be9b8d30c9cE', symObjAddr: 0x24B40, symBinAddr: 0x27F10, symSize: 0x3A0 }
  - { offset: 0x40F23, size: 0x8, addend: 0x0, symName: __ZN10proc_macro6bridge6symbol6Symbol14invalidate_all17h42dd5d4673f208c2E, symObjAddr: 0x17140, symBinAddr: 0x22BE0, symSize: 0x160 }
  - { offset: 0x413A7, size: 0x8, addend: 0x0, symName: __ZN10proc_macro6bridge6symbol6Symbol3new17hce9f3b0800ddd67fE, symObjAddr: 0x172A0, symBinAddr: 0x22D40, symSize: 0x6D0 }
  - { offset: 0x4265D, size: 0x8, addend: 0x0, symName: __ZN10proc_macro6bridge6symbol6Symbol9new_ident17hdbd265d0b9dc9f59E, symObjAddr: 0x17970, symBinAddr: 0x23410, symSize: 0x970 }
  - { offset: 0x4317C, size: 0x8, addend: 0x0, symName: '__ZN73_$LT$proc_macro..bridge..symbol..Symbol$u20$as$u20$core..fmt..Display$GT$3fmt17h62b0ea76b33c0ed7E', symObjAddr: 0x24690, symBinAddr: 0x27E40, symSize: 0xD0 }
  - { offset: 0x434A1, size: 0x8, addend: 0x0, symName: '__ZN95_$LT$proc_macro..bridge..symbol..Symbol$u20$as$u20$proc_macro..bridge..rpc..Encode$LT$S$GT$$GT$6encode17h0872b082dd2ef707E', symObjAddr: 0x25A70, symBinAddr: 0x283D0, symSize: 0x200 }
  - { offset: 0x43914, size: 0x8, addend: 0x0, symName: '__ZN10proc_macro6bridge103_$LT$impl$u20$proc_macro..bridge..rpc..DecodeMut$LT$S$GT$$u20$for$u20$core..option..Option$LT$T$GT$$GT$6decode17h9fde5a218349777cE', symObjAddr: 0x13AC0, symBinAddr: 0x21BC0, symSize: 0x100 }
  - { offset: 0x43B96, size: 0x8, addend: 0x0, symName: '__ZN106_$LT$proc_macro..bridge..Literal$LT$Sp$C$Sy$GT$$u20$as$u20$proc_macro..bridge..rpc..DecodeMut$LT$S$GT$$GT$6decode17ha5d18b0c05e99bffE', symObjAddr: 0x9D0, symBinAddr: 0x20370, symSize: 0x190 }
  - { offset: 0x43F11, size: 0x8, addend: 0x0, symName: '__ZN10proc_macro6bridge107_$LT$impl$u20$proc_macro..bridge..rpc..DecodeMut$LT$S$GT$$u20$for$u20$core..result..Result$LT$T$C$E$GT$$GT$6decode17h7d4bb560489bc316E', symObjAddr: 0x140A0, symBinAddr: 0x21CC0, symSize: 0x110 }
  - { offset: 0x44153, size: 0x8, addend: 0x0, symName: __ZN10proc_macro6bridge5arena5Arena4grow17ha66ad542db88f62eE, symObjAddr: 0x143E0, symBinAddr: 0x629A0, symSize: 0x120 }
  - { offset: 0x446CB, size: 0x8, addend: 0x0, symName: '__ZN125_$LT$proc_macro..bridge..TokenTree$LT$TokenStream$C$Span$C$Symbol$GT$$u20$as$u20$proc_macro..bridge..rpc..Encode$LT$S$GT$$GT$6encode17hd81bc4d48fd3ca75E', symObjAddr: 0x1D160, symBinAddr: 0x24950, symSize: 0x1B50 }
  - { offset: 0x45CF9, size: 0x8, addend: 0x0, symName: '__ZN97_$LT$proc_macro..bridge..api_tags..Method$u20$as$u20$proc_macro..bridge..rpc..Encode$LT$S$GT$$GT$6encode17h807fb9e98443d9f8E', symObjAddr: 0x25C70, symBinAddr: 0x285D0, symSize: 0x12D0 }
  - { offset: 0x4636A, size: 0x8, addend: 0x0, symName: __ZN10proc_macro17ConcatTreesHelper3new17hc53324f08346941aE, symObjAddr: 0x28F0, symBinAddr: 0x21610, symSize: 0x90 }
  - { offset: 0x464A5, size: 0x8, addend: 0x0, symName: __ZN10proc_macro17ConcatTreesHelper4push17hbddbcaf7519d76d7E, symObjAddr: 0x2980, symBinAddr: 0x216A0, symSize: 0x140 }
  - { offset: 0x4667D, size: 0x8, addend: 0x0, symName: __ZN10proc_macro17ConcatTreesHelper5build17h9b60a8648b468d35E, symObjAddr: 0x2AC0, symBinAddr: 0x217E0, symSize: 0x30 }
  - { offset: 0x46691, size: 0x8, addend: 0x0, symName: __ZN10proc_macro17ConcatTreesHelper9append_to17hb7f495cfa9dbb08dE, symObjAddr: 0x2AF0, symBinAddr: 0x21810, symSize: 0x40 }
  - { offset: 0x46707, size: 0x8, addend: 0x0, symName: __ZN10proc_macro11TokenStream8is_empty17h5dbd6ad1774c9946E, symObjAddr: 0x1880, symBinAddr: 0x205C0, symSize: 0x470 }
  - { offset: 0x46BED, size: 0x8, addend: 0x0, symName: '__ZN10proc_macro12token_stream95_$LT$impl$u20$core..iter..traits..collect..IntoIterator$u20$for$u20$proc_macro..TokenStream$GT$9into_iter17h9e3b309d5e331af4E', symObjAddr: 0x1D10, symBinAddr: 0x20A30, symSize: 0xBE0 }
  - { offset: 0x48129, size: 0x8, addend: 0x0, symName: '__ZN93_$LT$proc_macro..token_stream..IntoIter$u20$as$u20$core..iter..traits..iterator..Iterator$GT$4next17hdc8334fda910bc49E', symObjAddr: 0x25940, symBinAddr: 0x282D0, symSize: 0xA0 }
  - { offset: 0x481C2, size: 0x8, addend: 0x0, symName: '__ZN93_$LT$proc_macro..token_stream..IntoIter$u20$as$u20$core..iter..traits..iterator..Iterator$GT$9size_hint17h8689d8e3cfbf9a7bE', symObjAddr: 0x25A10, symBinAddr: 0x28370, symSize: 0x40 }
  - { offset: 0x48248, size: 0x8, addend: 0x0, symName: __ZN10proc_macro5Group3new17h7a887c7a7c293079E, symObjAddr: 0x6600, symBinAddr: 0x21850, symSize: 0xB0 }
  - { offset: 0x4842B, size: 0x8, addend: 0x0, symName: __ZN10proc_macro5Group6stream17hb3d861b8562d3088E, symObjAddr: 0x66B0, symBinAddr: 0x21900, symSize: 0x20 }
  - { offset: 0x48477, size: 0x8, addend: 0x0, symName: __ZN10proc_macro5Ident3new17h0a918a82ff29bf0bE, symObjAddr: 0x66D0, symBinAddr: 0x21920, symSize: 0x30 }
  - { offset: 0x4849F, size: 0x8, addend: 0x0, symName: __ZN10proc_macro5Punct3new17hf948c2befc46d439E, symObjAddr: 0x6730, symBinAddr: 0x21950, symSize: 0x270 }
  - { offset: 0x48624, size: 0x8, addend: 0x0, symName: '__ZN56_$LT$proc_macro..Ident$u20$as$u20$core..fmt..Display$GT$3fmt17h13323e19c7d64be1E', symObjAddr: 0x21B10, symBinAddr: 0x26E40, symSize: 0x50 }
  - { offset: 0x48662, size: 0x8, addend: 0x0, symName: __ZN10proc_macro7Literal6string17ha133a27d695a48e1E, symObjAddr: 0x1C4A0, symBinAddr: 0x24870, symSize: 0xE0 }
  - { offset: 0x489CA, size: 0x8, addend: 0x0, symName: __ZN10proc_macro6escape12escape_bytes17h2430230ecac91a51E, symObjAddr: 0x18330, symBinAddr: 0x23D80, symSize: 0x8D0 }
  - { offset: 0x49B3E, size: 0x8, addend: 0x0, symName: '__ZN10proc_macro7Literal20with_stringify_parts28_$u7b$$u7b$closure$u7d$$u7d$17h1dc919b4c939ff9cE', symObjAddr: 0x1C280, symBinAddr: 0x24650, symSize: 0x220 }
  - { offset: 0x49D4A, size: 0x8, addend: 0x0, symName: '__ZN58_$LT$proc_macro..Literal$u20$as$u20$core..fmt..Display$GT$3fmt17h85d9b19e6aaef6fcE', symObjAddr: 0x22020, symBinAddr: 0x26E90, symSize: 0x210 }
  - { offset: 0x4A365, size: 0x8, addend: 0x0, symName: '__ZN66_$LT$proc_macro..Literal$u20$as$u20$core..str..traits..FromStr$GT$8from_str17hba0b8a0fbff77826E', symObjAddr: 0x23250, symBinAddr: 0x272B0, symSize: 0x5F0 }
  - { offset: 0x4A948, size: 0x8, addend: 0x0, symName: '__ZN70_$LT$proc_macro..TokenStream$u20$as$u20$core..str..traits..FromStr$GT$8from_str17h2e2a8b990b9e6966E', symObjAddr: 0x23D50, symBinAddr: 0x278A0, symSize: 0x4E0 }
  - { offset: 0x4B614, size: 0x8, addend: 0x0, symName: '__ZN4core3ptr103drop_in_place$LT$proc_macro..bridge..client..TokenStream..concat_trees..$u7b$$u7b$closure$u7d$$u7d$$GT$17h02627110e7a860c9E', symObjAddr: 0x1FA60, symBinAddr: 0x269C0, symSize: 0x60 }
  - { offset: 0x4B808, size: 0x8, addend: 0x0, symName: '__ZN4core3ptr131drop_in_place$LT$proc_macro..bridge..client..maybe_install_panic_hook..$u7b$$u7b$closure$u7d$$u7d$..$u7b$$u7b$closure$u7d$$u7d$$GT$17hf44dc7d0da987595E', symObjAddr: 0x1FBA0, symBinAddr: 0x26A20, symSize: 0x70 }
  - { offset: 0x4B91D, size: 0x8, addend: 0x0, symName: '__ZN4core3ptr192drop_in_place$LT$alloc..vec..Vec$LT$proc_macro..bridge..TokenTree$LT$proc_macro..bridge..client..TokenStream$C$proc_macro..bridge..client..Span$C$proc_macro..bridge..symbol..Symbol$GT$$GT$$GT$17hf3328f62cc3a4335E', symObjAddr: 0x1FD10, symBinAddr: 0x26A90, symSize: 0x110 }
  - { offset: 0x4BC6D, size: 0x8, addend: 0x0, symName: '__ZN4core3ptr208drop_in_place$LT$alloc..vec..into_iter..IntoIter$LT$proc_macro..bridge..TokenTree$LT$proc_macro..bridge..client..TokenStream$C$proc_macro..bridge..client..Span$C$proc_macro..bridge..symbol..Symbol$GT$$GT$$GT$17h51180449b6f3d1f6E', symObjAddr: 0x1FE20, symBinAddr: 0x26BA0, symSize: 0x120 }
  - { offset: 0x4C04C, size: 0x8, addend: 0x0, symName: '__ZN4core3ptr42drop_in_place$LT$alloc..string..String$GT$17h775a4877fabc8dadE', symObjAddr: 0x1FF40, symBinAddr: 0x26CC0, symSize: 0x20 }
  - { offset: 0x4C0D9, size: 0x8, addend: 0x0, symName: '__ZN4core3ptr46drop_in_place$LT$alloc..vec..Vec$LT$u8$GT$$GT$17ha92156de904a6d7bE', symObjAddr: 0x1FFB0, symBinAddr: 0x26CE0, symSize: 0x20 }
  - { offset: 0x4C1D2, size: 0x8, addend: 0x0, symName: '__ZN4core3ptr84drop_in_place$LT$core..cell..RefCell$LT$proc_macro..bridge..symbol..Interner$GT$$GT$17h36fdcf97b4e2d6f0E', symObjAddr: 0x20350, symBinAddr: 0x26D00, symSize: 0xD0 }
  - { offset: 0x4C4F1, size: 0x8, addend: 0x0, symName: '__ZN4core3ptr91drop_in_place$LT$alloc..boxed..Box$LT$dyn$u20$core..any..Any$u2b$core..marker..Send$GT$$GT$17hf4ede311b0456381E', symObjAddr: 0x204D0, symBinAddr: 0x26DD0, symSize: 0x70 }
  - { offset: 0x4CED8, size: 0x8, addend: 0x0, symName: '__ZN4core3ops8function6FnOnce40call_once$u7b$$u7b$vtable.shim$u7d$$u7d$17h444f4e33603225acE', symObjAddr: 0x1F770, symBinAddr: 0x26850, symSize: 0xC0 }
  - { offset: 0x4D0DF, size: 0x8, addend: 0x0, symName: '__ZN4core3ops8function6FnOnce40call_once$u7b$$u7b$vtable.shim$u7d$$u7d$17hf4eb035b18f4544cE', symObjAddr: 0x1F830, symBinAddr: 0x26910, symSize: 0xB0 }
  - { offset: 0x4D51E, size: 0x8, addend: 0x0, symName: '__ZN63_$LT$core..cell..BorrowMutError$u20$as$u20$core..fmt..Debug$GT$3fmt17hbf4bd7fd14196292E', symObjAddr: 0x23020, symBinAddr: 0x27220, symSize: 0x20 }
  - { offset: 0x4D88C, size: 0x8, addend: 0x0, symName: '__ZN44_$LT$$RF$T$u20$as$u20$core..fmt..Display$GT$3fmt17h83c29917fc11ea17E', symObjAddr: 0x1F6D0, symBinAddr: 0x26800, symSize: 0x20 }
  - { offset: 0x4D8AD, size: 0x8, addend: 0x0, symName: '__ZN42_$LT$$RF$T$u20$as$u20$core..fmt..Debug$GT$3fmt17h9f9aba1550e0dc97E', symObjAddr: 0x1F540, symBinAddr: 0x26750, symSize: 0x30 }
  - { offset: 0x4D8F3, size: 0x8, addend: 0x0, symName: '__ZN42_$LT$$RF$T$u20$as$u20$core..fmt..Debug$GT$3fmt17hcdf8d7af4b2129bfE', symObjAddr: 0x1F570, symBinAddr: 0x26780, symSize: 0x60 }
  - { offset: 0x4D91D, size: 0x8, addend: 0x0, symName: '__ZN42_$LT$$RF$T$u20$as$u20$core..fmt..Debug$GT$3fmt17hf1e3c9a12f803514E', symObjAddr: 0x1F5D0, symBinAddr: 0x267E0, symSize: 0x20 }
  - { offset: 0x4D956, size: 0x8, addend: 0x0, symName: '__ZN4core3fmt3num52_$LT$impl$u20$core..fmt..Debug$u20$for$u20$usize$GT$3fmt17h4806199c82f902ceE', symObjAddr: 0x1F6F0, symBinAddr: 0x26820, symSize: 0x30 }
  - { offset: 0x4DA65, size: 0x8, addend: 0x0, symName: '__ZN64_$LT$core..str..error..Utf8Error$u20$as$u20$core..fmt..Debug$GT$3fmt17hea00a6f0d3919a35E', symObjAddr: 0x23040, symBinAddr: 0x27240, symSize: 0x70 }
  - { offset: 0x4DDC8, size: 0x8, addend: 0x0, symName: '__ZN36_$LT$T$u20$as$u20$core..any..Any$GT$7type_id17h9d0800d098a11807E', symObjAddr: 0x1F250, symBinAddr: 0x265F0, symSize: 0x30 }
  - { offset: 0x4DDF7, size: 0x8, addend: 0x0, symName: '__ZN36_$LT$T$u20$as$u20$core..any..Any$GT$7type_id17ha4c22623c15a5176E', symObjAddr: 0x1F280, symBinAddr: 0x26620, symSize: 0x30 }
  - { offset: 0x4DE26, size: 0x8, addend: 0x0, symName: '__ZN36_$LT$T$u20$as$u20$core..any..Any$GT$7type_id17hf66eb08084247317E', symObjAddr: 0x1F2B0, symBinAddr: 0x26650, symSize: 0x30 }
  - { offset: 0x4E0E4, size: 0x8, addend: 0x0, symName: '__ZN5alloc7raw_vec19RawVec$LT$T$C$A$GT$8grow_one17hdd7d8749705d506fE', symObjAddr: 0x22680, symBinAddr: 0x270A0, symSize: 0xC0 }
  - { offset: 0x4E1FA, size: 0x8, addend: 0x0, symName: '__ZN5alloc7raw_vec19RawVec$LT$T$C$A$GT$8grow_one17he86eef8c8419129dE', symObjAddr: 0x22740, symBinAddr: 0x27160, symSize: 0xC0 }
  - { offset: 0x4E334, size: 0x8, addend: 0x0, symName: __ZN5alloc7raw_vec11finish_grow17h7953c9aa831e2cb5E, symObjAddr: 0x22490, symBinAddr: 0x62C40, symSize: 0x70 }
  - { offset: 0x4E3C1, size: 0x8, addend: 0x0, symName: '__ZN5alloc7raw_vec20RawVecInner$LT$A$GT$7reserve21do_reserve_and_handle17h06b6efbb55255c82E', symObjAddr: 0x22800, symBinAddr: 0x62CB0, symSize: 0xB0 }
  - { offset: 0x4ED56, size: 0x8, addend: 0x0, symName: '__ZN3std3sys12thread_local6native4lazy20Storage$LT$T$C$D$GT$16get_or_init_slow17hdaffd25f2289a7bdE', symObjAddr: 0x1F2E0, symBinAddr: 0x62AC0, symSize: 0x180 }
  - { offset: 0x4EEAC, size: 0x8, addend: 0x0, symName: __ZN3std3sys12thread_local6native4lazy7destroy17h13a45acde78ce680E, symObjAddr: 0x1F460, symBinAddr: 0x26680, symSize: 0x20 }
  - { offset: 0x4EF6C, size: 0x8, addend: 0x0, symName: '__ZN3std4sync6poison4once4Once9call_once28_$u7b$$u7b$closure$u7d$$u7d$17h1893f8be3876b285E', symObjAddr: 0x1F480, symBinAddr: 0x266A0, symSize: 0xB0 }
  - { offset: 0x4F110, size: 0x8, addend: 0x0, symName: '__ZN9hashbrown3raw21RawTable$LT$T$C$A$GT$14reserve_rehash17h9e13de7df797533aE', symObjAddr: 0x26F40, symBinAddr: 0x62D60, symSize: 0x8B0 }
  - { offset: 0x50CF4, size: 0x8, addend: 0x0, symName: __RNvCskdKJRKLKjqM_7___rustc10rust_panic, symObjAddr: 0x0, symBinAddr: 0x63610, symSize: 0x70 }
  - { offset: 0x50FAD, size: 0x8, addend: 0x0, symName: '__ZN42_$LT$$RF$T$u20$as$u20$core..fmt..Debug$GT$3fmt17h611062ea6589b381E', symObjAddr: 0x27920, symBinAddr: 0x36E10, symSize: 0x30 }
  - { offset: 0x50FF3, size: 0x8, addend: 0x0, symName: '__ZN42_$LT$$RF$T$u20$as$u20$core..fmt..Debug$GT$3fmt17h67462dcd352e9f70E', symObjAddr: 0x27A20, symBinAddr: 0x36E40, symSize: 0x30 }
  - { offset: 0x51039, size: 0x8, addend: 0x0, symName: '__ZN42_$LT$$RF$T$u20$as$u20$core..fmt..Debug$GT$3fmt17ha3f9e4fd80ade547E', symObjAddr: 0x27D30, symBinAddr: 0x36E70, symSize: 0x20 }
  - { offset: 0x5104D, size: 0x8, addend: 0x0, symName: '__ZN42_$LT$$RF$T$u20$as$u20$core..fmt..Debug$GT$3fmt17hd6b383e11abcf534E', symObjAddr: 0x27FB0, symBinAddr: 0x36E90, symSize: 0x20 }
  - { offset: 0x5107E, size: 0x8, addend: 0x0, symName: '__ZN42_$LT$$RF$T$u20$as$u20$core..fmt..Debug$GT$3fmt17hedcae28885211270E', symObjAddr: 0x28060, symBinAddr: 0x36EB0, symSize: 0x80 }
  - { offset: 0x511A2, size: 0x8, addend: 0x0, symName: '__ZN44_$LT$$RF$T$u20$as$u20$core..fmt..Display$GT$3fmt17h2befab159451fc05E', symObjAddr: 0x28130, symBinAddr: 0x36F30, symSize: 0x20 }
  - { offset: 0x511BD, size: 0x8, addend: 0x0, symName: '__ZN44_$LT$$RF$T$u20$as$u20$core..fmt..Display$GT$3fmt17had011a6e3beb8b51E', symObjAddr: 0x28150, symBinAddr: 0x36F50, symSize: 0x90 }
  - { offset: 0x51267, size: 0x8, addend: 0x0, symName: '__ZN4core3fmt3num50_$LT$impl$u20$core..fmt..Debug$u20$for$u20$i32$GT$3fmt17h0317b62489790191E', symObjAddr: 0x284D0, symBinAddr: 0x36FE0, symSize: 0x30 }
  - { offset: 0x51296, size: 0x8, addend: 0x0, symName: '__ZN4core3fmt3num52_$LT$impl$u20$core..fmt..Debug$u20$for$u20$usize$GT$3fmt17h4806199c82f902ceE', symObjAddr: 0x28590, symBinAddr: 0x37010, symSize: 0x30 }
  - { offset: 0x512E7, size: 0x8, addend: 0x0, symName: __ZN4core3fmt5Write10write_char17h2203fddc9d642afeE, symObjAddr: 0x285C0, symBinAddr: 0x37040, symSize: 0xF0 }
  - { offset: 0x5142E, size: 0x8, addend: 0x0, symName: __ZN4core3fmt5Write10write_char17hc46b6f7c3c3194cbE, symObjAddr: 0x288F0, symBinAddr: 0x37130, symSize: 0x130 }
  - { offset: 0x515D0, size: 0x8, addend: 0x0, symName: __ZN4core3fmt5Write10write_char17hdac7d1ed87bd809bE, symObjAddr: 0x28B00, symBinAddr: 0x37260, symSize: 0x160 }
  - { offset: 0x51776, size: 0x8, addend: 0x0, symName: __ZN4core3fmt5Write9write_fmt17hd3928726ab1abb27E, symObjAddr: 0x28D00, symBinAddr: 0x373C0, symSize: 0x50 }
  - { offset: 0x517A5, size: 0x8, addend: 0x0, symName: __ZN4core3fmt5Write9write_fmt17he408d8c37cd4c2c5E, symObjAddr: 0x28DA0, symBinAddr: 0x37410, symSize: 0x50 }
  - { offset: 0x517D4, size: 0x8, addend: 0x0, symName: __ZN4core3fmt5Write9write_fmt17hec70cb0fc9ef19e4E, symObjAddr: 0x28DF0, symBinAddr: 0x37460, symSize: 0x50 }
  - { offset: 0x51803, size: 0x8, addend: 0x0, symName: __ZN4core3fmt5Write9write_fmt17hfbfca6c33e82dca5E, symObjAddr: 0x28E40, symBinAddr: 0x374B0, symSize: 0x50 }
  - { offset: 0x51860, size: 0x8, addend: 0x0, symName: '__ZN50_$LT$$BP$mut$u20$T$u20$as$u20$core..fmt..Debug$GT$3fmt17h461ef72b23c2334dE', symObjAddr: 0x3AB30, symBinAddr: 0x43A70, symSize: 0x10 }
  - { offset: 0x518AD, size: 0x8, addend: 0x0, symName: '__ZN52_$LT$$RF$mut$u20$T$u20$as$u20$core..fmt..Display$GT$3fmt17he99623082ea1fa3dE', symObjAddr: 0x3B1B0, symBinAddr: 0x43A80, symSize: 0x20 }
  - { offset: 0x5376D, size: 0x8, addend: 0x0, symName: '__ZN4core3ptr107drop_in_place$LT$core..pin..Pin$LT$alloc..boxed..Box$LT$std..sys..pal..unix..sync..mutex..Mutex$GT$$GT$$GT$17he4bee0bcfb03f75fE', symObjAddr: 0x294F0, symBinAddr: 0x37600, symSize: 0x30 }
  - { offset: 0x53804, size: 0x8, addend: 0x0, symName: '__ZN4core3ptr109drop_in_place$LT$alloc..sync..Arc$LT$std..sync..poison..mutex..Mutex$LT$alloc..vec..Vec$LT$u8$GT$$GT$$GT$$GT$17he5b3c9d5553080edE', symObjAddr: 0x29520, symBinAddr: 0x37630, symSize: 0x20 }
  - { offset: 0x53885, size: 0x8, addend: 0x0, symName: '__ZN4core3ptr119drop_in_place$LT$std..io..default_write_fmt..Adapter$LT$std..io..cursor..Cursor$LT$$RF$mut$u20$$u5b$u8$u5d$$GT$$GT$$GT$17h8ef58680b6ede286E', symObjAddr: 0x295C0, symBinAddr: 0x37650, symSize: 0x20 }
  - { offset: 0x538A8, size: 0x8, addend: 0x0, symName: '__ZN4core3ptr123drop_in_place$LT$addr2line..Context$LT$gimli..read..endian_slice..EndianSlice$LT$gimli..endianity..LittleEndian$GT$$GT$$GT$17h4096ebf47a84add1E', symObjAddr: 0x295E0, symBinAddr: 0x37670, symSize: 0x60 }
  - { offset: 0x5394D, size: 0x8, addend: 0x0, symName: '__ZN4core3ptr128drop_in_place$LT$core..result..Result$LT$$RF$std..thread..Thread$C$$LP$$RF$std..thread..Thread$C$std..thread..Thread$RP$$GT$$GT$17h5b35dce14f68d27eE', symObjAddr: 0x29640, symBinAddr: 0x376D0, symSize: 0x20 }
  - { offset: 0x53A6F, size: 0x8, addend: 0x0, symName: '__ZN4core3ptr129drop_in_place$LT$addr2line..unit..ResUnit$LT$gimli..read..endian_slice..EndianSlice$LT$gimli..endianity..LittleEndian$GT$$GT$$GT$17h5b41b59ec8c6acd1E', symObjAddr: 0x29660, symBinAddr: 0x376F0, symSize: 0x100 }
  - { offset: 0x53C7D, size: 0x8, addend: 0x0, symName: '__ZN4core3ptr129drop_in_place$LT$addr2line..unit..SupUnit$LT$gimli..read..endian_slice..EndianSlice$LT$gimli..endianity..LittleEndian$GT$$GT$$GT$17h7745e598093ea497E', symObjAddr: 0x29760, symBinAddr: 0x377F0, symSize: 0x50 }
  - { offset: 0x53D28, size: 0x8, addend: 0x0, symName: '__ZN4core3ptr130drop_in_place$LT$addr2line..unit..ResUnits$LT$gimli..read..endian_slice..EndianSlice$LT$gimli..endianity..LittleEndian$GT$$GT$$GT$17h8ac001c378159224E', symObjAddr: 0x297B0, symBinAddr: 0x37840, symSize: 0xE0 }
  - { offset: 0x53ED1, size: 0x8, addend: 0x0, symName: '__ZN4core3ptr130drop_in_place$LT$addr2line..unit..SupUnits$LT$gimli..read..endian_slice..EndianSlice$LT$gimli..endianity..LittleEndian$GT$$GT$$GT$17hf4d4e85b8cf1677eE', symObjAddr: 0x29890, symBinAddr: 0x37920, symSize: 0xE0 }
  - { offset: 0x5406D, size: 0x8, addend: 0x0, symName: '__ZN4core3ptr130drop_in_place$LT$gimli..read..dwarf..Dwarf$LT$gimli..read..endian_slice..EndianSlice$LT$gimli..endianity..LittleEndian$GT$$GT$$GT$17h00351692336cc8a5E', symObjAddr: 0x29970, symBinAddr: 0x37A00, symSize: 0x60 }
  - { offset: 0x540D7, size: 0x8, addend: 0x0, symName: '__ZN4core3ptr131drop_in_place$LT$$u5b$core..option..Option$LT$core..option..Option$LT$std..backtrace_rs..symbolize..gimli..Mapping$GT$$GT$$u5d$$GT$17h5e49fcba991e0fefE', symObjAddr: 0x299D0, symBinAddr: 0x37A60, symSize: 0xE0 }
  - { offset: 0x54181, size: 0x8, addend: 0x0, symName: '__ZN4core3ptr131drop_in_place$LT$alloc..boxed..Box$LT$dyn$u20$core..ops..function..FnOnce$LT$$LP$$RP$$GT$$u2b$Output$u20$$u3d$$u20$$LP$$RP$$GT$$GT$17h34dfa6de81a90f60E', symObjAddr: 0x29AB0, symBinAddr: 0x37B40, symSize: 0x70 }
  - { offset: 0x5426C, size: 0x8, addend: 0x0, symName: '__ZN4core3ptr137drop_in_place$LT$gimli..read..dwarf..Unit$LT$gimli..read..endian_slice..EndianSlice$LT$gimli..endianity..LittleEndian$GT$$C$usize$GT$$GT$17h8a3dedf63945c7ffE', symObjAddr: 0x29B20, symBinAddr: 0x37BB0, symSize: 0x50 }
  - { offset: 0x54355, size: 0x8, addend: 0x0, symName: '__ZN4core3ptr138drop_in_place$LT$addr2line..function..LazyFunction$LT$gimli..read..endian_slice..EndianSlice$LT$gimli..endianity..LittleEndian$GT$$GT$$GT$17h0f8e66548b648d63E', symObjAddr: 0x29B70, symBinAddr: 0x37C00, symSize: 0x60 }
  - { offset: 0x5436C, size: 0x8, addend: 0x0, symName: '__ZN4core3ptr138drop_in_place$LT$addr2line..function..LazyFunction$LT$gimli..read..endian_slice..EndianSlice$LT$gimli..endianity..LittleEndian$GT$$GT$$GT$17h0f8e66548b648d63E', symObjAddr: 0x29B70, symBinAddr: 0x37C00, symSize: 0x60 }
  - { offset: 0x54381, size: 0x8, addend: 0x0, symName: '__ZN4core3ptr138drop_in_place$LT$addr2line..function..LazyFunction$LT$gimli..read..endian_slice..EndianSlice$LT$gimli..endianity..LittleEndian$GT$$GT$$GT$17h0f8e66548b648d63E', symObjAddr: 0x29B70, symBinAddr: 0x37C00, symSize: 0x60 }
  - { offset: 0x54396, size: 0x8, addend: 0x0, symName: '__ZN4core3ptr138drop_in_place$LT$addr2line..function..LazyFunction$LT$gimli..read..endian_slice..EndianSlice$LT$gimli..endianity..LittleEndian$GT$$GT$$GT$17h0f8e66548b648d63E', symObjAddr: 0x29B70, symBinAddr: 0x37C00, symSize: 0x60 }
  - { offset: 0x544CA, size: 0x8, addend: 0x0, symName: '__ZN4core3ptr144drop_in_place$LT$alloc..vec..Vec$LT$core..option..Option$LT$core..option..Option$LT$std..backtrace_rs..symbolize..gimli..Mapping$GT$$GT$$GT$$GT$17hd133ee3f082661a3E', symObjAddr: 0x29BD0, symBinAddr: 0x37C60, symSize: 0x80 }
  - { offset: 0x54624, size: 0x8, addend: 0x0, symName: '__ZN4core3ptr152drop_in_place$LT$alloc..vec..Vec$LT$addr2line..unit..ResUnit$LT$gimli..read..endian_slice..EndianSlice$LT$gimli..endianity..LittleEndian$GT$$GT$$GT$$GT$17h687eea1ef8e4dccbE', symObjAddr: 0x29D40, symBinAddr: 0x37CE0, symSize: 0xD0 }
  - { offset: 0x54793, size: 0x8, addend: 0x0, symName: '__ZN4core3ptr152drop_in_place$LT$alloc..vec..Vec$LT$addr2line..unit..SupUnit$LT$gimli..read..endian_slice..EndianSlice$LT$gimli..endianity..LittleEndian$GT$$GT$$GT$$GT$17h43b55f1c1ec40770E', symObjAddr: 0x29E10, symBinAddr: 0x37DB0, symSize: 0x100 }
  - { offset: 0x54997, size: 0x8, addend: 0x0, symName: '__ZN4core3ptr156drop_in_place$LT$alloc..boxed..Box$LT$$u5b$core..option..Option$LT$core..option..Option$LT$std..backtrace_rs..symbolize..gimli..Mapping$GT$$GT$$u5d$$GT$$GT$17h64285ccbe01a68bbE', symObjAddr: 0x29F10, symBinAddr: 0x37EB0, symSize: 0xF0 }
  - { offset: 0x54AC1, size: 0x8, addend: 0x0, symName: '__ZN4core3ptr159drop_in_place$LT$alloc..sync..ArcInner$LT$gimli..read..dwarf..Dwarf$LT$gimli..read..endian_slice..EndianSlice$LT$gimli..endianity..LittleEndian$GT$$GT$$GT$$GT$17ha7d070261ff0f422E', symObjAddr: 0x2A0A0, symBinAddr: 0x37FA0, symSize: 0x60 }
  - { offset: 0x54B72, size: 0x8, addend: 0x0, symName: '__ZN4core3ptr161drop_in_place$LT$alloc..vec..Vec$LT$addr2line..function..LazyFunction$LT$gimli..read..endian_slice..EndianSlice$LT$gimli..endianity..LittleEndian$GT$$GT$$GT$$GT$17h224d020c77f1c5c5E', symObjAddr: 0x2A100, symBinAddr: 0x38000, symSize: 0xC0 }
  - { offset: 0x54DAF, size: 0x8, addend: 0x0, symName: '__ZN4core3ptr172drop_in_place$LT$core..result..Result$LT$addr2line..Context$LT$gimli..read..endian_slice..EndianSlice$LT$gimli..endianity..LittleEndian$GT$$GT$$C$gimli..read..Error$GT$$GT$17h9689e9d3357a2b29E', symObjAddr: 0x2A270, symBinAddr: 0x380C0, symSize: 0x70 }
  - { offset: 0x54E30, size: 0x8, addend: 0x0, symName: '__ZN4core3ptr173drop_in_place$LT$alloc..boxed..Box$LT$$u5b$addr2line..function..LazyFunction$LT$gimli..read..endian_slice..EndianSlice$LT$gimli..endianity..LittleEndian$GT$$GT$$u5d$$GT$$GT$17h854691247aa87af0E', symObjAddr: 0x2A2E0, symBinAddr: 0x38130, symSize: 0xA0 }
  - { offset: 0x54E47, size: 0x8, addend: 0x0, symName: '__ZN4core3ptr173drop_in_place$LT$alloc..boxed..Box$LT$$u5b$addr2line..function..LazyFunction$LT$gimli..read..endian_slice..EndianSlice$LT$gimli..endianity..LittleEndian$GT$$GT$$u5d$$GT$$GT$17h854691247aa87af0E', symObjAddr: 0x2A2E0, symBinAddr: 0x38130, symSize: 0xA0 }
  - { offset: 0x5501C, size: 0x8, addend: 0x0, symName: '__ZN4core3ptr181drop_in_place$LT$core..option..Option$LT$gimli..read..line..IncompleteLineProgram$LT$gimli..read..endian_slice..EndianSlice$LT$gimli..endianity..LittleEndian$GT$$C$usize$GT$$GT$$GT$17ha2da1af52ac50966E', symObjAddr: 0x2A3F0, symBinAddr: 0x381D0, symSize: 0xA0 }
  - { offset: 0x55275, size: 0x8, addend: 0x0, symName: '__ZN4core3ptr181drop_in_place$LT$core..result..Result$LT$addr2line..frame..FrameIter$LT$gimli..read..endian_slice..EndianSlice$LT$gimli..endianity..LittleEndian$GT$$GT$$C$gimli..read..Error$GT$$GT$17hb41a886cf8fb4359E', symObjAddr: 0x2A490, symBinAddr: 0x38270, symSize: 0x40 }
  - { offset: 0x553B3, size: 0x8, addend: 0x0, symName: '__ZN4core3ptr184drop_in_place$LT$core..result..Result$LT$addr2line..function..Functions$LT$gimli..read..endian_slice..EndianSlice$LT$gimli..endianity..LittleEndian$GT$$GT$$C$gimli..read..Error$GT$$GT$17h16817f6f8b785913E', symObjAddr: 0x2A4D0, symBinAddr: 0x382B0, symSize: 0xE0 }
  - { offset: 0x5566D, size: 0x8, addend: 0x0, symName: '__ZN4core3ptr231drop_in_place$LT$core..result..Result$LT$core..option..Option$LT$alloc..boxed..Box$LT$addr2line..unit..DwoUnit$LT$gimli..read..endian_slice..EndianSlice$LT$gimli..endianity..LittleEndian$GT$$GT$$GT$$GT$$C$gimli..read..Error$GT$$GT$17h77faee68108766d7E', symObjAddr: 0x2A670, symBinAddr: 0x38390, symSize: 0xB0 }
  - { offset: 0x55837, size: 0x8, addend: 0x0, symName: '__ZN4core3ptr238drop_in_place$LT$alloc..boxed..convert..$LT$impl$u20$core..convert..From$LT$alloc..string..String$GT$$u20$for$u20$alloc..boxed..Box$LT$dyn$u20$core..error..Error$u2b$core..marker..Sync$u2b$core..marker..Send$GT$$GT$..from..StringError$GT$17h77c71369405e109cE', symObjAddr: 0x2A720, symBinAddr: 0x38440, symSize: 0x20 }
  - { offset: 0x558E2, size: 0x8, addend: 0x0, symName: '__ZN4core3ptr275drop_in_place$LT$gimli..read..line..LineRows$LT$gimli..read..endian_slice..EndianSlice$LT$gimli..endianity..LittleEndian$GT$$C$gimli..read..line..IncompleteLineProgram$LT$gimli..read..endian_slice..EndianSlice$LT$gimli..endianity..LittleEndian$GT$$C$usize$GT$$C$usize$GT$$GT$17hadd9cd2441f7544fE', symObjAddr: 0x2A740, symBinAddr: 0x38460, symSize: 0xA0 }
  - { offset: 0x55B57, size: 0x8, addend: 0x0, symName: '__ZN4core3ptr280drop_in_place$LT$$LT$alloc..collections..btree..map..IntoIter$LT$K$C$V$C$A$GT$$u20$as$u20$core..ops..drop..Drop$GT$..drop..DropGuard$LT$u64$C$core..result..Result$LT$alloc..sync..Arc$LT$gimli..read..abbrev..Abbreviations$GT$$C$gimli..read..Error$GT$$C$alloc..alloc..Global$GT$$GT$17h12b50f4912f8d053E', symObjAddr: 0x2A7E0, symBinAddr: 0x38500, symSize: 0x80 }
  - { offset: 0x55C83, size: 0x8, addend: 0x0, symName: '__ZN4core3ptr284drop_in_place$LT$core..result..Result$LT$$RF$core..result..Result$LT$addr2line..line..Lines$C$gimli..read..Error$GT$$C$$LP$$RF$core..result..Result$LT$addr2line..line..Lines$C$gimli..read..Error$GT$$C$core..result..Result$LT$addr2line..line..Lines$C$gimli..read..Error$GT$$RP$$GT$$GT$17h10f406cda706aac9E', symObjAddr: 0x2A860, symBinAddr: 0x38580, symSize: 0x20 }
  - { offset: 0x55CB4, size: 0x8, addend: 0x0, symName: '__ZN4core3ptr41drop_in_place$LT$std..panicking..Hook$GT$17hfd140d835b55425bE', symObjAddr: 0x2A9B0, symBinAddr: 0x385A0, symSize: 0x70 }
  - { offset: 0x55DAD, size: 0x8, addend: 0x0, symName: '__ZN4core3ptr42drop_in_place$LT$alloc..string..String$GT$17h13a2c872d6de9b78E', symObjAddr: 0x2AA20, symBinAddr: 0x38610, symSize: 0x20 }
  - { offset: 0x55E42, size: 0x8, addend: 0x0, symName: '__ZN4core3ptr42drop_in_place$LT$std..io..error..Error$GT$17hf3cc5d9531ccf1c0E', symObjAddr: 0x2AA40, symBinAddr: 0x38630, symSize: 0xA0 }
  - { offset: 0x56060, size: 0x8, addend: 0x0, symName: '__ZN4core3ptr44drop_in_place$LT$object..read..ObjectMap$GT$17h9dfc9bd6f6ee5a53E', symObjAddr: 0x2AAE0, symBinAddr: 0x386D0, symSize: 0x50 }
  - { offset: 0x5618F, size: 0x8, addend: 0x0, symName: '__ZN4core3ptr46drop_in_place$LT$alloc..vec..Vec$LT$u8$GT$$GT$17h50cadf63df0efd66E', symObjAddr: 0x2AB90, symBinAddr: 0x38720, symSize: 0x20 }
  - { offset: 0x5620E, size: 0x8, addend: 0x0, symName: '__ZN4core3ptr46drop_in_place$LT$std..io..stdio..StdinLock$GT$17h859807256c432efeE', symObjAddr: 0x2ABB0, symBinAddr: 0x38740, symSize: 0x50 }
  - { offset: 0x56225, size: 0x8, addend: 0x0, symName: '__ZN4core3ptr46drop_in_place$LT$std..io..stdio..StdinLock$GT$17h859807256c432efeE', symObjAddr: 0x2ABB0, symBinAddr: 0x38740, symSize: 0x50 }
  - { offset: 0x5623A, size: 0x8, addend: 0x0, symName: '__ZN4core3ptr46drop_in_place$LT$std..io..stdio..StdinLock$GT$17h859807256c432efeE', symObjAddr: 0x2ABB0, symBinAddr: 0x38740, symSize: 0x50 }
  - { offset: 0x5631E, size: 0x8, addend: 0x0, symName: '__ZN4core3ptr48drop_in_place$LT$alloc..ffi..c_str..NulError$GT$17h05fdddfd5dec9957E', symObjAddr: 0x2AD00, symBinAddr: 0x38790, symSize: 0x20 }
  - { offset: 0x563C1, size: 0x8, addend: 0x0, symName: '__ZN4core3ptr557drop_in_place$LT$core..result..Result$LT$$RF$core..result..Result$LT$addr2line..function..Function$LT$gimli..read..endian_slice..EndianSlice$LT$gimli..endianity..LittleEndian$GT$$GT$$C$gimli..read..Error$GT$$C$$LP$$RF$core..result..Result$LT$addr2line..function..Function$LT$gimli..read..endian_slice..EndianSlice$LT$gimli..endianity..LittleEndian$GT$$GT$$C$gimli..read..Error$GT$$C$core..result..Result$LT$addr2line..function..Function$LT$gimli..read..endian_slice..EndianSlice$LT$gimli..endianity..LittleEndian$GT$$GT$$C$gimli..read..Error$GT$$RP$$GT$$GT$17hc44de9d152e84349E', symObjAddr: 0x2AFE0, symBinAddr: 0x387B0, symSize: 0x60 }
  - { offset: 0x565AB, size: 0x8, addend: 0x0, symName: '__ZN4core3ptr55drop_in_place$LT$gimli..read..abbrev..Abbreviations$GT$17h650fa2a70ecf9e05E', symObjAddr: 0x2B040, symBinAddr: 0x38810, symSize: 0x130 }
  - { offset: 0x568F4, size: 0x8, addend: 0x0, symName: '__ZN4core3ptr560drop_in_place$LT$core..result..Result$LT$$RF$core..result..Result$LT$addr2line..function..Functions$LT$gimli..read..endian_slice..EndianSlice$LT$gimli..endianity..LittleEndian$GT$$GT$$C$gimli..read..Error$GT$$C$$LP$$RF$core..result..Result$LT$addr2line..function..Functions$LT$gimli..read..endian_slice..EndianSlice$LT$gimli..endianity..LittleEndian$GT$$GT$$C$gimli..read..Error$GT$$C$core..result..Result$LT$addr2line..function..Functions$LT$gimli..read..endian_slice..EndianSlice$LT$gimli..endianity..LittleEndian$GT$$GT$$C$gimli..read..Error$GT$$RP$$GT$$GT$17h6cf82f479787438aE', symObjAddr: 0x2B270, symBinAddr: 0x38940, symSize: 0x20 }
  - { offset: 0x5694F, size: 0x8, addend: 0x0, symName: '__ZN4core3ptr60drop_in_place$LT$gimli..read..abbrev..AbbreviationsCache$GT$17h8ea9413fce52b0aeE', symObjAddr: 0x2B290, symBinAddr: 0x38960, symSize: 0xE0 }
  - { offset: 0x56AB6, size: 0x8, addend: 0x0, symName: '__ZN4core3ptr61drop_in_place$LT$std..panicking..resume_unwind..RewrapBox$GT$17h476d69bd28bb5666E', symObjAddr: 0x2B370, symBinAddr: 0x38A40, symSize: 0x70 }
  - { offset: 0x56BAF, size: 0x8, addend: 0x0, symName: '__ZN4core3ptr64drop_in_place$LT$std..sys..pal..unix..sync..mutex..AttrGuard$GT$17h07975ffc5879c9b3E', symObjAddr: 0x2B3E0, symBinAddr: 0x38AB0, symSize: 0x40 }
  - { offset: 0x56BEE, size: 0x8, addend: 0x0, symName: '__ZN4core3ptr65drop_in_place$LT$alloc..vec..Vec$LT$alloc..string..String$GT$$GT$17h7048242ed88ea37eE', symObjAddr: 0x2B4B0, symBinAddr: 0x38AF0, symSize: 0x90 }
  - { offset: 0x56D54, size: 0x8, addend: 0x0, symName: '__ZN4core3ptr65drop_in_place$LT$std..backtrace_rs..symbolize..gimli..Context$GT$17hc7e1db2a9c32a85bE', symObjAddr: 0x2B540, symBinAddr: 0x38B80, symSize: 0x100 }
  - { offset: 0x56FD2, size: 0x8, addend: 0x0, symName: '__ZN4core3ptr66drop_in_place$LT$std..backtrace_rs..backtrace..libunwind..Bomb$GT$17hd5948bcabaf539edE', symObjAddr: 0x2B640, symBinAddr: 0x38C80, symSize: 0x50 }
  - { offset: 0x5701E, size: 0x8, addend: 0x0, symName: '__ZN4core3ptr701drop_in_place$LT$core..result..Result$LT$$RF$core..result..Result$LT$core..option..Option$LT$alloc..boxed..Box$LT$addr2line..unit..DwoUnit$LT$gimli..read..endian_slice..EndianSlice$LT$gimli..endianity..LittleEndian$GT$$GT$$GT$$GT$$C$gimli..read..Error$GT$$C$$LP$$RF$core..result..Result$LT$core..option..Option$LT$alloc..boxed..Box$LT$addr2line..unit..DwoUnit$LT$gimli..read..endian_slice..EndianSlice$LT$gimli..endianity..LittleEndian$GT$$GT$$GT$$GT$$C$gimli..read..Error$GT$$C$core..result..Result$LT$core..option..Option$LT$alloc..boxed..Box$LT$addr2line..unit..DwoUnit$LT$gimli..read..endian_slice..EndianSlice$LT$gimli..endianity..LittleEndian$GT$$GT$$GT$$GT$$C$gimli..read..Error$GT$$RP$$GT$$GT$17h4c871d662e9baba8E', symObjAddr: 0x2B690, symBinAddr: 0x38CD0, symSize: 0x20 }
  - { offset: 0x570BF, size: 0x8, addend: 0x0, symName: '__ZN4core3ptr70drop_in_place$LT$std..backtrace_rs..symbolize..gimli..stash..Stash$GT$17h9192affd8a73d22bE', symObjAddr: 0x2B6B0, symBinAddr: 0x38CF0, symSize: 0xE0 }
  - { offset: 0x57365, size: 0x8, addend: 0x0, symName: '__ZN4core3ptr71drop_in_place$LT$std..backtrace_rs..symbolize..gimli..macho..Object$GT$17he8bfbbbc576ba26bE', symObjAddr: 0x2B790, symBinAddr: 0x38DD0, symSize: 0xD0 }
  - { offset: 0x5762A, size: 0x8, addend: 0x0, symName: '__ZN4core3ptr71drop_in_place$LT$std..panicking..panic_handler..FormatStringPayload$GT$17he2832ae2b85e7af7E', symObjAddr: 0x2B860, symBinAddr: 0x38EA0, symSize: 0x30 }
  - { offset: 0x576E6, size: 0x8, addend: 0x0, symName: '__ZN4core3ptr72drop_in_place$LT$core..option..Option$LT$object..read..ObjectMap$GT$$GT$17hfcefd03af094224dE', symObjAddr: 0x2B890, symBinAddr: 0x38ED0, symSize: 0x60 }
  - { offset: 0x57863, size: 0x8, addend: 0x0, symName: '__ZN4core3ptr73drop_in_place$LT$alloc..vec..Vec$LT$addr2line..line..LineSequence$GT$$GT$17ha6ada6d850d6bfd7E', symObjAddr: 0x2B8F0, symBinAddr: 0x38F30, symSize: 0x90 }
  - { offset: 0x579BB, size: 0x8, addend: 0x0, symName: '__ZN4core3ptr77drop_in_place$LT$alloc..boxed..Box$LT$$u5b$alloc..string..String$u5d$$GT$$GT$17hb3442e265eb8e1dcE', symObjAddr: 0x2B9D0, symBinAddr: 0x38FC0, symSize: 0x60 }
  - { offset: 0x579D2, size: 0x8, addend: 0x0, symName: '__ZN4core3ptr77drop_in_place$LT$alloc..boxed..Box$LT$$u5b$alloc..string..String$u5d$$GT$$GT$17hb3442e265eb8e1dcE', symObjAddr: 0x2B9D0, symBinAddr: 0x38FC0, symSize: 0x60 }
  - { offset: 0x57AD0, size: 0x8, addend: 0x0, symName: '__ZN4core3ptr79drop_in_place$LT$std..sync..poison..rwlock..RwLockReadGuard$LT$$LP$$RP$$GT$$GT$17h4fa0e4fa5e15bd74E', symObjAddr: 0x2BA50, symBinAddr: 0x39020, symSize: 0x50 }
  - { offset: 0x57B6C, size: 0x8, addend: 0x0, symName: '__ZN4core3ptr81drop_in_place$LT$core..result..Result$LT$$LP$$RP$$C$std..io..error..Error$GT$$GT$17h1c1edd567460b3feE', symObjAddr: 0x2BB50, symBinAddr: 0x39070, symSize: 0x20 }
  - { offset: 0x57B9C, size: 0x8, addend: 0x0, symName: '__ZN4core3ptr82drop_in_place$LT$alloc..sync..ArcInner$LT$std..sys..fs..unix..InnerReadDir$GT$$GT$17ha8fbff3aaada4fb8E', symObjAddr: 0x2BC40, symBinAddr: 0x39090, symSize: 0x60 }
  - { offset: 0x57D69, size: 0x8, addend: 0x0, symName: '__ZN4core3ptr92drop_in_place$LT$core..result..Result$LT$addr2line..line..Lines$C$gimli..read..Error$GT$$GT$17h2e8e0626d3a84d8eE', symObjAddr: 0x2BDF0, symBinAddr: 0x390F0, symSize: 0xE0 }
  - { offset: 0x57FAF, size: 0x8, addend: 0x0, symName: '__ZN4core3ptr93drop_in_place$LT$core..option..Option$LT$std..backtrace_rs..symbolize..gimli..Mapping$GT$$GT$17h136f8c1ae5619cc2E', symObjAddr: 0x2BED0, symBinAddr: 0x391D0, symSize: 0x70 }
  - { offset: 0x59855, size: 0x8, addend: 0x0, symName: __ZN4core5panic12PanicPayload6as_str17h0a0af93859b241b1E, symObjAddr: 0x302B0, symBinAddr: 0x392B0, symSize: 0x10 }
  - { offset: 0x5B327, size: 0x8, addend: 0x0, symName: __ZN4core5slice4sort8unstable7ipnsort17h2b4a537af7352546E, symObjAddr: 0x39850, symBinAddr: 0x42850, symSize: 0x1A0 }
  - { offset: 0x5B5CF, size: 0x8, addend: 0x0, symName: __ZN4core5slice4sort8unstable7ipnsort17h52ef4485ec8e6977E, symObjAddr: 0x399F0, symBinAddr: 0x429F0, symSize: 0xE0 }
  - { offset: 0x5B791, size: 0x8, addend: 0x0, symName: __ZN4core5slice4sort8unstable8heapsort8heapsort17h4b4721c6bb82e1c1E, symObjAddr: 0x39AD0, symBinAddr: 0x42AD0, symSize: 0x120 }
  - { offset: 0x5B9D7, size: 0x8, addend: 0x0, symName: __ZN4core5slice4sort8unstable8heapsort8heapsort17hab9566a01254ecddE, symObjAddr: 0x39BF0, symBinAddr: 0x42BF0, symSize: 0x1D0 }
  - { offset: 0x5BD89, size: 0x8, addend: 0x0, symName: __ZN4core5slice4sort8unstable9quicksort9quicksort17h0b8d9e0f156a468cE, symObjAddr: 0x39DC0, symBinAddr: 0x42DC0, symSize: 0x540 }
  - { offset: 0x5C629, size: 0x8, addend: 0x0, symName: __ZN4core5slice4sort8unstable9quicksort9quicksort17h5a50d5c9a636cab4E, symObjAddr: 0x3A300, symBinAddr: 0x43300, symSize: 0x761 }
  - { offset: 0x5D28C, size: 0x8, addend: 0x0, symName: __ZN4core5slice4sort6stable14driftsort_main17h3220260173ca707fE, symObjAddr: 0x31FD0, symBinAddr: 0x3AFD0, symSize: 0x150 }
  - { offset: 0x5D564, size: 0x8, addend: 0x0, symName: __ZN4core5slice4sort6stable14driftsort_main17h4699f0e78e45ec48E, symObjAddr: 0x32120, symBinAddr: 0x3B120, symSize: 0x150 }
  - { offset: 0x5D83C, size: 0x8, addend: 0x0, symName: __ZN4core5slice4sort6stable14driftsort_main17h9e6c77f5f42fb271E, symObjAddr: 0x32270, symBinAddr: 0x3B270, symSize: 0x160 }
  - { offset: 0x5DB6A, size: 0x8, addend: 0x0, symName: __ZN4core5slice4sort6stable14driftsort_main17ha76b3f8bfe5161d7E, symObjAddr: 0x323D0, symBinAddr: 0x3B3D0, symSize: 0x160 }
  - { offset: 0x5DE98, size: 0x8, addend: 0x0, symName: __ZN4core5slice4sort6stable14driftsort_main17hdb3cc37e344db5cdE, symObjAddr: 0x32530, symBinAddr: 0x3B530, symSize: 0x150 }
  - { offset: 0x5E170, size: 0x8, addend: 0x0, symName: __ZN4core5slice4sort6stable14driftsort_main17hf9b576397ab84e46E, symObjAddr: 0x32680, symBinAddr: 0x3B680, symSize: 0x160 }
  - { offset: 0x5E5DA, size: 0x8, addend: 0x0, symName: __ZN4core5slice4sort6stable5drift4sort17h0344cd1179273fdfE, symObjAddr: 0x327E0, symBinAddr: 0x3B7E0, symSize: 0x6E0 }
  - { offset: 0x5ED82, size: 0x8, addend: 0x0, symName: __ZN4core5slice4sort6stable5drift4sort17h5d73a28370e736e7E, symObjAddr: 0x32EC0, symBinAddr: 0x3BEC0, symSize: 0x690 }
  - { offset: 0x5F539, size: 0x8, addend: 0x0, symName: __ZN4core5slice4sort6stable5drift4sort17h7d35ffbcc89f38d4E, symObjAddr: 0x33550, symBinAddr: 0x3C550, symSize: 0x6D0 }
  - { offset: 0x5FCF6, size: 0x8, addend: 0x0, symName: __ZN4core5slice4sort6stable5drift4sort17h8e4dd7b37e0e34b5E, symObjAddr: 0x33C20, symBinAddr: 0x3CC20, symSize: 0x6E0 }
  - { offset: 0x60488, size: 0x8, addend: 0x0, symName: __ZN4core5slice4sort6stable5drift4sort17hd3daeb0e07815f37E, symObjAddr: 0x34300, symBinAddr: 0x3D300, symSize: 0x690 }
  - { offset: 0x60C3F, size: 0x8, addend: 0x0, symName: __ZN4core5slice4sort6stable5drift4sort17hdee5488c31b7bf79E, symObjAddr: 0x34990, symBinAddr: 0x3D990, symSize: 0x6B0 }
  - { offset: 0x61680, size: 0x8, addend: 0x0, symName: __ZN4core5slice4sort6stable9quicksort9quicksort17h49e735213ea776e8E, symObjAddr: 0x35040, symBinAddr: 0x3E040, symSize: 0xC20 }
  - { offset: 0x623F9, size: 0x8, addend: 0x0, symName: __ZN4core5slice4sort6stable9quicksort9quicksort17h4e0f96bb5e50204eE, symObjAddr: 0x35C60, symBinAddr: 0x3EC60, symSize: 0xD60 }
  - { offset: 0x631A8, size: 0x8, addend: 0x0, symName: __ZN4core5slice4sort6stable9quicksort9quicksort17h5039615b86acfb17E, symObjAddr: 0x369C0, symBinAddr: 0x3F9C0, symSize: 0xB50 }
  - { offset: 0x63FA2, size: 0x8, addend: 0x0, symName: __ZN4core5slice4sort6stable9quicksort9quicksort17h54d5655b54e85608E, symObjAddr: 0x37510, symBinAddr: 0x40510, symSize: 0xC40 }
  - { offset: 0x64D2B, size: 0x8, addend: 0x0, symName: __ZN4core5slice4sort6stable9quicksort9quicksort17h563ccb161c809bb9E, symObjAddr: 0x38150, symBinAddr: 0x41150, symSize: 0xB50 }
  - { offset: 0x65603, size: 0x8, addend: 0x0, symName: __ZN4core5slice4sort6stable9quicksort9quicksort17ha4eccc1b33417963E, symObjAddr: 0x38CA0, symBinAddr: 0x41CA0, symSize: 0xBB0 }
  - { offset: 0x66B2E, size: 0x8, addend: 0x0, symName: __ZN4core5slice4sort6shared9smallsort12sort4_stable17h429c53b39c3949acE, symObjAddr: 0x30980, symBinAddr: 0x39980, symSize: 0x1B0 }
  - { offset: 0x66D05, size: 0x8, addend: 0x0, symName: __ZN4core5slice4sort6shared9smallsort12sort4_stable17h8e40b2e7e5f636d6E, symObjAddr: 0x30B30, symBinAddr: 0x39B30, symSize: 0x1F0 }
  - { offset: 0x67110, size: 0x8, addend: 0x0, symName: __ZN4core5slice4sort6shared9smallsort12sort8_stable17hd86b794b574b633cE, symObjAddr: 0x30D20, symBinAddr: 0x39D20, symSize: 0x3E0 }
  - { offset: 0x677C8, size: 0x8, addend: 0x0, symName: __ZN4core5slice4sort6shared9smallsort18small_sort_general17h0ffd90b03ee23f71E, symObjAddr: 0x31100, symBinAddr: 0x3A100, symSize: 0x510 }
  - { offset: 0x67CE5, size: 0x8, addend: 0x0, symName: __ZN4core5slice4sort6shared9smallsort18small_sort_general17h7a2a4ab0b4034136E, symObjAddr: 0x31610, symBinAddr: 0x3A610, symSize: 0x600 }
  - { offset: 0x684E8, size: 0x8, addend: 0x0, symName: __ZN4core5slice4sort6shared9smallsort25insertion_sort_shift_left17h0b99a1dace0461e0E, symObjAddr: 0x31C10, symBinAddr: 0x3AC10, symSize: 0x120 }
  - { offset: 0x686AD, size: 0x8, addend: 0x0, symName: __ZN4core5slice4sort6shared9smallsort25insertion_sort_shift_left17h1aa889efeb4092c1E, symObjAddr: 0x31D30, symBinAddr: 0x3AD30, symSize: 0xF0 }
  - { offset: 0x687DB, size: 0x8, addend: 0x0, symName: __ZN4core5slice4sort6shared9smallsort25insertion_sort_shift_left17h39fda689822c34e3E, symObjAddr: 0x31E20, symBinAddr: 0x3AE20, symSize: 0xF0 }
  - { offset: 0x6890A, size: 0x8, addend: 0x0, symName: __ZN4core5slice4sort6shared9smallsort25insertion_sort_shift_left17h519a67896e46d7b4E, symObjAddr: 0x31F10, symBinAddr: 0x3AF10, symSize: 0xC0 }
  - { offset: 0x68C2A, size: 0x8, addend: 0x0, symName: __ZN4core5slice4sort6shared5pivot11median3_rec17h0bad552e41eb9dc6E, symObjAddr: 0x302C0, symBinAddr: 0x392C0, symSize: 0xC0 }
  - { offset: 0x68D31, size: 0x8, addend: 0x0, symName: __ZN4core5slice4sort6shared5pivot11median3_rec17h69042159816e04f4E, symObjAddr: 0x30380, symBinAddr: 0x39380, symSize: 0xC0 }
  - { offset: 0x68E3A, size: 0x8, addend: 0x0, symName: __ZN4core5slice4sort6shared5pivot11median3_rec17h6b39c5ff16384b97E, symObjAddr: 0x30440, symBinAddr: 0x39440, symSize: 0xB0 }
  - { offset: 0x68F6D, size: 0x8, addend: 0x0, symName: __ZN4core5slice4sort6shared5pivot11median3_rec17h78bc361aba28d375E, symObjAddr: 0x304F0, symBinAddr: 0x394F0, symSize: 0x140 }
  - { offset: 0x691A2, size: 0x8, addend: 0x0, symName: __ZN4core5slice4sort6shared5pivot11median3_rec17h864e4c2ed0405f91E, symObjAddr: 0x30630, symBinAddr: 0x39630, symSize: 0xC0 }
  - { offset: 0x692A9, size: 0x8, addend: 0x0, symName: __ZN4core5slice4sort6shared5pivot11median3_rec17h9ee77f2cab2d4c5dE, symObjAddr: 0x306F0, symBinAddr: 0x396F0, symSize: 0xC0 }
  - { offset: 0x693B0, size: 0x8, addend: 0x0, symName: __ZN4core5slice4sort6shared5pivot11median3_rec17ha14fc07cd9e49161E, symObjAddr: 0x307B0, symBinAddr: 0x397B0, symSize: 0xC0 }
  - { offset: 0x694B7, size: 0x8, addend: 0x0, symName: __ZN4core5slice4sort6shared5pivot11median3_rec17hfa048ff775602914E, symObjAddr: 0x30870, symBinAddr: 0x39870, symSize: 0x110 }
  - { offset: 0x696C3, size: 0x8, addend: 0x0, symName: '__ZN55_$LT$$RF$str$u20$as$u20$core..str..pattern..Pattern$GT$15is_contained_in17hc8794a96b582b38aE', symObjAddr: 0x3B790, symBinAddr: 0x43AA0, symSize: 0x860 }
  - { offset: 0x69E5E, size: 0x8, addend: 0x0, symName: '__ZN4core3str7pattern13simd_contains28_$u7b$$u7b$closure$u7d$$u7d$17ha6d539c15f4ab7c0E', symObjAddr: 0x2C040, symBinAddr: 0x640A0, symSize: 0x100 }
  - { offset: 0x6B2A0, size: 0x8, addend: 0x0, symName: '__ZN4core3ops8function6FnOnce40call_once$u7b$$u7b$vtable.shim$u7d$$u7d$17h0d3238feb6ae2c7dE', symObjAddr: 0x29150, symBinAddr: 0x37520, symSize: 0x10 }
  - { offset: 0x6B2DC, size: 0x8, addend: 0x0, symName: '__ZN4core3ops8function6FnOnce40call_once$u7b$$u7b$vtable.shim$u7d$$u7d$17h8ff5d8d366cb3dcdE', symObjAddr: 0x29350, symBinAddr: 0x37530, symSize: 0x90 }
  - { offset: 0x6B422, size: 0x8, addend: 0x0, symName: '__ZN4core3ops8function6FnOnce40call_once$u7b$$u7b$vtable.shim$u7d$$u7d$17h994b7e277a3827ddE', symObjAddr: 0x293E0, symBinAddr: 0x375C0, symSize: 0x10 }
  - { offset: 0x6B473, size: 0x8, addend: 0x0, symName: '__ZN4core3ops8function6FnOnce40call_once$u7b$$u7b$vtable.shim$u7d$$u7d$17h9d2e7babc27e55d4E', symObjAddr: 0x293F0, symBinAddr: 0x375D0, symSize: 0x10 }
  - { offset: 0x6B4AF, size: 0x8, addend: 0x0, symName: '__ZN4core3ops8function6FnOnce40call_once$u7b$$u7b$vtable.shim$u7d$$u7d$17h9e6dbb12aa376ac1E', symObjAddr: 0x29400, symBinAddr: 0x375E0, symSize: 0x10 }
  - { offset: 0x6B4EB, size: 0x8, addend: 0x0, symName: '__ZN4core3ops8function6FnOnce40call_once$u7b$$u7b$vtable.shim$u7d$$u7d$17hf1524fee5c53f54cE', symObjAddr: 0x294E0, symBinAddr: 0x375F0, symSize: 0x10 }
  - { offset: 0x6B62C, size: 0x8, addend: 0x0, symName: __ZN4core3ops8function2Fn4call17h19d0f265096c9754E, symObjAddr: 0x28E90, symBinAddr: 0x37500, symSize: 0x10 }
  - { offset: 0x6B659, size: 0x8, addend: 0x0, symName: __ZN4core3ops8function5FnMut8call_mut17h3b64f0f58b72bb4bE, symObjAddr: 0x29140, symBinAddr: 0x37510, symSize: 0x10 }
  - { offset: 0x6C1A3, size: 0x8, addend: 0x0, symName: '__ZN36_$LT$T$u20$as$u20$core..any..Any$GT$7type_id17hef7f9b259cc5ed22E', symObjAddr: 0x1220, symBinAddr: 0x29D50, symSize: 0x30 }
  - { offset: 0x6C1D2, size: 0x8, addend: 0x0, symName: '__ZN36_$LT$T$u20$as$u20$core..any..Any$GT$7type_id17hf38d30a50d909875E', symObjAddr: 0x1250, symBinAddr: 0x29D80, symSize: 0x30 }
  - { offset: 0x6C201, size: 0x8, addend: 0x0, symName: '__ZN36_$LT$T$u20$as$u20$core..any..Any$GT$7type_id17hfe9fbb449010764eE', symObjAddr: 0x1280, symBinAddr: 0x29DB0, symSize: 0x30 }
  - { offset: 0x6D171, size: 0x8, addend: 0x0, symName: '__ZN4core4cell4once17OnceCell$LT$T$GT$8try_init17h164ad122d3fdde11E', symObjAddr: 0x2C140, symBinAddr: 0x641A0, symSize: 0x70 }
  - { offset: 0x6D18F, size: 0x8, addend: 0x0, symName: '__ZN4core4cell4once17OnceCell$LT$T$GT$8try_init17h164ad122d3fdde11E', symObjAddr: 0x2C140, symBinAddr: 0x641A0, symSize: 0x70 }
  - { offset: 0x6D1A4, size: 0x8, addend: 0x0, symName: '__ZN4core4cell4once17OnceCell$LT$T$GT$8try_init17h164ad122d3fdde11E', symObjAddr: 0x2C140, symBinAddr: 0x641A0, symSize: 0x70 }
  - { offset: 0x6D1B8, size: 0x8, addend: 0x0, symName: '__ZN4core4cell4once17OnceCell$LT$T$GT$8try_init17h164ad122d3fdde11E', symObjAddr: 0x2C140, symBinAddr: 0x641A0, symSize: 0x70 }
  - { offset: 0x6D20F, size: 0x8, addend: 0x0, symName: '__ZN4core4cell4once17OnceCell$LT$T$GT$8try_init17h5eaa6e42f622c98bE', symObjAddr: 0x2C1B0, symBinAddr: 0x64210, symSize: 0x80 }
  - { offset: 0x6D2C2, size: 0x8, addend: 0x0, symName: '__ZN4core4cell4once17OnceCell$LT$T$GT$8try_init17h8d9b52977b5ff1b0E', symObjAddr: 0x2C230, symBinAddr: 0x64290, symSize: 0x8B0 }
  - { offset: 0x6DE7F, size: 0x8, addend: 0x0, symName: '__ZN4core4cell4once17OnceCell$LT$T$GT$8try_init17h963735826f59da1dE', symObjAddr: 0x2CAE0, symBinAddr: 0x64B40, symSize: 0x110 }
  - { offset: 0x6E0DF, size: 0x8, addend: 0x0, symName: '__ZN4core4cell4once17OnceCell$LT$T$GT$8try_init17hbb32d690264a29aeE', symObjAddr: 0x2CBF0, symBinAddr: 0x64C50, symSize: 0x25C0 }
  - { offset: 0x7128B, size: 0x8, addend: 0x0, symName: '__ZN4core4cell4once17OnceCell$LT$T$GT$8try_init17he85fbe2a3a1ae7fbE', symObjAddr: 0x2F1B0, symBinAddr: 0x67210, symSize: 0xF30 }
  - { offset: 0x72D64, size: 0x8, addend: 0x0, symName: __ZN4core5error5Error11description17ha6a6a08fd0b06ebcE, symObjAddr: 0x301F0, symBinAddr: 0x39240, symSize: 0x20 }
  - { offset: 0x72D7E, size: 0x8, addend: 0x0, symName: __ZN4core5error5Error5cause17h5b5fd61b0af24bd8E, symObjAddr: 0x30210, symBinAddr: 0x39260, symSize: 0x10 }
  - { offset: 0x72D98, size: 0x8, addend: 0x0, symName: __ZN4core5error5Error7provide17hcf50e4f5391fe1b4E, symObjAddr: 0x30240, symBinAddr: 0x39270, symSize: 0x10 }
  - { offset: 0x72DB2, size: 0x8, addend: 0x0, symName: __ZN4core5error5Error7type_id17h1548aa106e60bc02E, symObjAddr: 0x30250, symBinAddr: 0x39280, symSize: 0x30 }
  - { offset: 0x72DE8, size: 0x8, addend: 0x0, symName: __ZN4core9panicking13assert_failed17hd751ab4adab24333E, symObjAddr: 0x3AAF2, symBinAddr: 0x68142, symSize: 0x3E }
  - { offset: 0x72ECD, size: 0x8, addend: 0x0, symName: __RNvCskdKJRKLKjqM_7___rustc10rust_panic, symObjAddr: 0x0, symBinAddr: 0x63610, symSize: 0x70 }
  - { offset: 0x72EFE, size: 0x8, addend: 0x0, symName: __RNvCskdKJRKLKjqM_7___rustc17___rust_drop_panic, symObjAddr: 0x1D0, symBinAddr: 0x299F0, symSize: 0xD0 }
  - { offset: 0x73149, size: 0x8, addend: 0x0, symName: __RNvCskdKJRKLKjqM_7___rustc17rust_begin_unwind, symObjAddr: 0x2A0, symBinAddr: 0x29AC0, symSize: 0x30 }
  - { offset: 0x7318F, size: 0x8, addend: 0x0, symName: __RNvCskdKJRKLKjqM_7___rustc24___rust_foreign_exception, symObjAddr: 0x360, symBinAddr: 0x29B80, symSize: 0xD0 }
  - { offset: 0x7344A, size: 0x8, addend: 0x0, symName: __ZN3std9panicking11panic_count17is_zero_slow_path17hc9cf2ba853cb1a44E, symObjAddr: 0x26310, symBinAddr: 0x63FB0, symSize: 0x20 }
  - { offset: 0x734F9, size: 0x8, addend: 0x0, symName: __ZN3std9panicking11panic_count8increase17hf57f6317579ad19bE, symObjAddr: 0x26370, symBinAddr: 0x35E90, symSize: 0x40 }
  - { offset: 0x73510, size: 0x8, addend: 0x0, symName: __ZN3std9panicking11panic_count8increase17hf57f6317579ad19bE, symObjAddr: 0x26370, symBinAddr: 0x35E90, symSize: 0x40 }
  - { offset: 0x73525, size: 0x8, addend: 0x0, symName: __ZN3std9panicking11panic_count8increase17hf57f6317579ad19bE, symObjAddr: 0x26370, symBinAddr: 0x35E90, symSize: 0x40 }
  - { offset: 0x7366A, size: 0x8, addend: 0x0, symName: __ZN3std9panicking12catch_unwind7cleanup17ha00ce520227b8041E, symObjAddr: 0x263C2, symBinAddr: 0x63FD2, symSize: 0x29 }
  - { offset: 0x7377C, size: 0x8, addend: 0x0, symName: __ZN3std9panicking12default_hook17hfd692237a6812b4aE, symObjAddr: 0x263EB, symBinAddr: 0x35EDB, symSize: 0x12B }
  - { offset: 0x73913, size: 0x8, addend: 0x0, symName: '__ZN3std9panicking12default_hook28_$u7b$$u7b$closure$u7d$$u7d$17h4c39689ecd8341bfE', symObjAddr: 0x26516, symBinAddr: 0x36006, symSize: 0x18A }
  - { offset: 0x73ADA, size: 0x8, addend: 0x0, symName: '__ZN3std9panicking12default_hook28_$u7b$$u7b$closure$u7d$$u7d$28_$u7b$$u7b$closure$u7d$$u7d$17h141942b3ab6b1748E', symObjAddr: 0x266A0, symBinAddr: 0x36190, symSize: 0x380 }
  - { offset: 0x7420A, size: 0x8, addend: 0x0, symName: __ZN3std9panicking13panic_handler19FormatStringPayload4fill17hd583736f0adc2b9eE, symObjAddr: 0x26A20, symBinAddr: 0x36510, symSize: 0xC0 }
  - { offset: 0x74327, size: 0x8, addend: 0x0, symName: '__ZN3std9panicking13panic_handler28_$u7b$$u7b$closure$u7d$$u7d$17h0449b52d62cc4acdE', symObjAddr: 0x26AE0, symBinAddr: 0x365D0, symSize: 0xD0 }
  - { offset: 0x74483, size: 0x8, addend: 0x0, symName: '__ZN86_$LT$std..panicking..panic_handler..StaticStrPayload$u20$as$u20$core..fmt..Display$GT$3fmt17h611d737e25d39e04E', symObjAddr: 0x58C20, symBinAddr: 0x4F910, symSize: 0x20 }
  - { offset: 0x744A4, size: 0x8, addend: 0x0, symName: '__ZN89_$LT$std..panicking..panic_handler..FormatStringPayload$u20$as$u20$core..fmt..Display$GT$3fmt17h2c418704e9a80b67E', symObjAddr: 0x59030, symBinAddr: 0x4F960, symSize: 0x70 }
  - { offset: 0x74598, size: 0x8, addend: 0x0, symName: '__ZN93_$LT$std..panicking..panic_handler..StaticStrPayload$u20$as$u20$core..panic..PanicPayload$GT$3get17h54b2dcb3b150a54cE', symObjAddr: 0x59900, symBinAddr: 0x4FAF0, symSize: 0x10 }
  - { offset: 0x745B3, size: 0x8, addend: 0x0, symName: '__ZN93_$LT$std..panicking..panic_handler..StaticStrPayload$u20$as$u20$core..panic..PanicPayload$GT$6as_str17h5a1a7c38fda21c29E', symObjAddr: 0x59910, symBinAddr: 0x4FB00, symSize: 0x10 }
  - { offset: 0x745CE, size: 0x8, addend: 0x0, symName: '__ZN93_$LT$std..panicking..panic_handler..StaticStrPayload$u20$as$u20$core..panic..PanicPayload$GT$8take_box17hdf5e7dcb860e8869E', symObjAddr: 0x59920, symBinAddr: 0x4FB10, symSize: 0x50 }
  - { offset: 0x7464B, size: 0x8, addend: 0x0, symName: '__ZN96_$LT$std..panicking..panic_handler..FormatStringPayload$u20$as$u20$core..panic..PanicPayload$GT$3get17he619996a915dba5aE', symObjAddr: 0x5A150, symBinAddr: 0x4FF80, symSize: 0x20 }
  - { offset: 0x74666, size: 0x8, addend: 0x0, symName: '__ZN96_$LT$std..panicking..panic_handler..FormatStringPayload$u20$as$u20$core..panic..PanicPayload$GT$8take_box17h1d68480d8bee4f17E', symObjAddr: 0x5A170, symBinAddr: 0x4FFA0, symSize: 0xA0 }
  - { offset: 0x747B8, size: 0x8, addend: 0x0, symName: __ZN3std9panicking13resume_unwind17h0fcdfed71f2f3be7E, symObjAddr: 0x26BB0, symBinAddr: 0x64000, symSize: 0xA0 }
  - { offset: 0x749C4, size: 0x8, addend: 0x0, symName: __ZN3std9panicking14payload_as_str17h7b83b1c48b989ea0E, symObjAddr: 0x26C50, symBinAddr: 0x366A0, symSize: 0x7D }
  - { offset: 0x74B09, size: 0x8, addend: 0x0, symName: __ZN3std9panicking15panic_with_hook17he1033abc98626357E, symObjAddr: 0x26CCD, symBinAddr: 0x3671D, symSize: 0x43D }
  - { offset: 0x7537B, size: 0x8, addend: 0x0, symName: __ZN3std9panicking8set_hook17h4ed3f820c265c048E, symObjAddr: 0x27120, symBinAddr: 0x36B60, symSize: 0x190 }
  - { offset: 0x75634, size: 0x8, addend: 0x0, symName: __ZN3std9panicking9take_hook17h9f00528036206a6fE, symObjAddr: 0x272B0, symBinAddr: 0x36CF0, symSize: 0x120 }
  - { offset: 0x75801, size: 0x8, addend: 0x0, symName: '__ZN79_$LT$std..panicking..resume_unwind..RewrapBox$u20$as$u20$core..fmt..Display$GT$3fmt17hdd4d35c3ddf8dd96E', symObjAddr: 0x57250, symBinAddr: 0x4F230, symSize: 0x20 }
  - { offset: 0x75822, size: 0x8, addend: 0x0, symName: '__ZN86_$LT$std..panicking..resume_unwind..RewrapBox$u20$as$u20$core..panic..PanicPayload$GT$3get17h83a388dc5564d47cE', symObjAddr: 0x58C40, symBinAddr: 0x4F930, symSize: 0x10 }
  - { offset: 0x7583D, size: 0x8, addend: 0x0, symName: '__ZN86_$LT$std..panicking..resume_unwind..RewrapBox$u20$as$u20$core..panic..PanicPayload$GT$8take_box17hb72db7824160d6caE', symObjAddr: 0x58C50, symBinAddr: 0x4F940, symSize: 0x20 }
  - { offset: 0x75968, size: 0x8, addend: 0x0, symName: __ZN3std3sys3pal6common14small_c_string24run_with_cstr_allocating17h5cc89072fa4ee439E, symObjAddr: 0x19EE0, symBinAddr: 0x637B0, symSize: 0x90 }
  - { offset: 0x75AD7, size: 0x8, addend: 0x0, symName: __ZN3std3sys3pal6common14small_c_string24run_with_cstr_allocating17hc579900339e23d19E, symObjAddr: 0x1A190, symBinAddr: 0x63840, symSize: 0xB0 }
  - { offset: 0x75CB3, size: 0x8, addend: 0x0, symName: __ZN3std3sys3pal6common14small_c_string24run_with_cstr_allocating17he4af3d6cbd61cc52E, symObjAddr: 0x1A2F0, symBinAddr: 0x638F0, symSize: 0xB0 }
  - { offset: 0x75F44, size: 0x8, addend: 0x0, symName: __ZN3std3sys3pal4unix4sync5mutex5Mutex4init17hc0cd42f50e15ec42E, symObjAddr: 0x199B0, symBinAddr: 0x34260, symSize: 0x160 }
  - { offset: 0x76000, size: 0x8, addend: 0x0, symName: __ZN3std3sys3pal4unix4sync5mutex5Mutex4lock4fail17ha33bd018f471c78aE, symObjAddr: 0x19B30, symBinAddr: 0x636B0, symSize: 0x100 }
  - { offset: 0x762B5, size: 0x8, addend: 0x0, symName: __ZN3std3sys3pal4unix14abort_internal17h2d7ebcba1920d509E, symObjAddr: 0x17850, symBinAddr: 0x636A0, symSize: 0x10 }
  - { offset: 0x762D0, size: 0x8, addend: 0x0, symName: __ZN3std3sys3pal4unix17decode_error_kind17h447b85d7b88dc1dcE, symObjAddr: 0x19230, symBinAddr: 0x34010, symSize: 0x250 }
  - { offset: 0x76349, size: 0x8, addend: 0x0, symName: __ZN3std3sys12thread_local6native5eager7destroy17h52ab99797ee9e6c0E, symObjAddr: 0x122C0, symBinAddr: 0x338D0, symSize: 0x20 }
  - { offset: 0x764CB, size: 0x8, addend: 0x0, symName: __ZN3std3sys12thread_local5guard5apple6enable9run_dtors17h38edc9b0697859adE, symObjAddr: 0x121D0, symBinAddr: 0x337E0, symSize: 0xF0 }
  - { offset: 0x76969, size: 0x8, addend: 0x0, symName: __ZN3std3sys12thread_local11destructors4list8register17h1d9ec60dd9886de7E, symObjAddr: 0x120E0, symBinAddr: 0x336F0, symSize: 0xF0 }
  - { offset: 0x76BF8, size: 0x8, addend: 0x0, symName: __ZN3std3sys3env4unix13env_read_lock17h6b780f3777072ce3E, symObjAddr: 0x165B0, symBinAddr: 0x33C70, symSize: 0x280 }
  - { offset: 0x772BF, size: 0x8, addend: 0x0, symName: '__ZN3std3sys3env4unix6getenv28_$u7b$$u7b$closure$u7d$$u7d$17hbced0c0771611cafE', symObjAddr: 0x16830, symBinAddr: 0x33EF0, symSize: 0x120 }
  - { offset: 0x77544, size: 0x8, addend: 0x0, symName: __ZN3std3sys2fs4unix4File6open_c17he05b2f9a6cd0c0a5E, symObjAddr: 0x14FB0, symBinAddr: 0x338F0, symSize: 0x180 }
  - { offset: 0x776FF, size: 0x8, addend: 0x0, symName: '__ZN65_$LT$std..sys..fs..unix..Dir$u20$as$u20$core..ops..drop..Drop$GT$4drop17h00566fb81437571eE', symObjAddr: 0x531C0, symBinAddr: 0x4EC50, symSize: 0xD0 }
  - { offset: 0x777F5, size: 0x8, addend: 0x0, symName: __ZN3std3sys2fs8read_dir17he96197a45d71fcd1E, symObjAddr: 0x160D0, symBinAddr: 0x33A70, symSize: 0x200 }
  - { offset: 0x77BEB, size: 0x8, addend: 0x0, symName: '__ZN64_$LT$std..sys..stdio..unix..Stderr$u20$as$u20$std..io..Write$GT$14write_vectored17h2dbb79a2e8dce948E', symObjAddr: 0x52F00, symBinAddr: 0x4EB90, symSize: 0x50 }
  - { offset: 0x77CBA, size: 0x8, addend: 0x0, symName: '__ZN64_$LT$std..sys..stdio..unix..Stderr$u20$as$u20$std..io..Write$GT$17is_write_vectored17h9d9019aa34dca71eE', symObjAddr: 0x52F50, symBinAddr: 0x4EBE0, symSize: 0x10 }
  - { offset: 0x77CD4, size: 0x8, addend: 0x0, symName: '__ZN64_$LT$std..sys..stdio..unix..Stderr$u20$as$u20$std..io..Write$GT$5flush17haca374bc2fb40ebcE', symObjAddr: 0x52F60, symBinAddr: 0x4EBF0, symSize: 0x10 }
  - { offset: 0x77CEE, size: 0x8, addend: 0x0, symName: '__ZN64_$LT$std..sys..stdio..unix..Stderr$u20$as$u20$std..io..Write$GT$5write17h4b5035fe5e5f2032E', symObjAddr: 0x52F70, symBinAddr: 0x4EC00, symSize: 0x50 }
  - { offset: 0x77E1B, size: 0x8, addend: 0x0, symName: '__ZN3std3sys4sync8once_box16OnceBox$LT$T$GT$10initialize17h6aa2ce4cfc78c157E', symObjAddr: 0x1B490, symBinAddr: 0x63C40, symSize: 0x120 }
  - { offset: 0x78068, size: 0x8, addend: 0x0, symName: __ZN3std3sys4sync4once5queue4Once4call17h8e466067d86cbcb3E, symObjAddr: 0x1A7E0, symBinAddr: 0x639A0, symSize: 0x210 }
  - { offset: 0x78308, size: 0x8, addend: 0x0, symName: '__ZN82_$LT$std..sys..sync..once..queue..WaiterQueue$u20$as$u20$core..ops..drop..Drop$GT$4drop17h17a27c240e6095eaE', symObjAddr: 0x586D0, symBinAddr: 0x4F840, symSize: 0xD0 }
  - { offset: 0x784BD, size: 0x8, addend: 0x0, symName: __ZN3std3sys4sync4once5queue4wait17hcf137e24f8369e0fE, symObjAddr: 0x1ABE0, symBinAddr: 0x343C0, symSize: 0x160 }
  - { offset: 0x789A0, size: 0x8, addend: 0x0, symName: __ZN3std3sys4sync6rwlock5queue6RwLock12unlock_queue17h2b38c5d2f4e14db6E, symObjAddr: 0x1AD60, symBinAddr: 0x34520, symSize: 0x180 }
  - { offset: 0x78FBF, size: 0x8, addend: 0x0, symName: __ZN3std3sys4sync6rwlock5queue6RwLock16unlock_contended17h434533e27b51e3a9E, symObjAddr: 0x1B1F0, symBinAddr: 0x63BB0, symSize: 0x40 }
  - { offset: 0x7909B, size: 0x8, addend: 0x0, symName: __ZN3std3sys4sync6rwlock5queue6RwLock21read_unlock_contended17ha0f88a0fd7df0d66E, symObjAddr: 0x1B230, symBinAddr: 0x63BF0, symSize: 0x50 }
  - { offset: 0x7931D, size: 0x8, addend: 0x0, symName: __ZN3std3sys4sync6rwlock5queue9read_lock17h5e2659437ef5e87cE, symObjAddr: 0x1B280, symBinAddr: 0x346A0, symSize: 0x30 }
  - { offset: 0x79343, size: 0x8, addend: 0x0, symName: '__ZN83_$LT$std..sys..sync..rwlock..queue..PanicGuard$u20$as$u20$core..ops..drop..Drop$GT$4drop17h9abf048048014633E', symObjAddr: 0x58950, symBinAddr: 0x682D0, symSize: 0x60 }
  - { offset: 0x793EC, size: 0x8, addend: 0x0, symName: '__ZN3std3sys11personality3gcc14find_eh_action28_$u7b$$u7b$closure$u7d$$u7d$17h71a716f7697f7c23E', symObjAddr: 0x120C0, symBinAddr: 0x336D0, symSize: 0x10 }
  - { offset: 0x79400, size: 0x8, addend: 0x0, symName: '__ZN3std3sys11personality3gcc14find_eh_action28_$u7b$$u7b$closure$u7d$$u7d$17hf3d297c424dd88bbE', symObjAddr: 0x120D0, symBinAddr: 0x336E0, symSize: 0x10 }
  - { offset: 0x7944C, size: 0x8, addend: 0x0, symName: _rust_eh_personality, symObjAddr: 0x5D880, symBinAddr: 0x53410, symSize: 0x640 }
  - { offset: 0x79F3B, size: 0x8, addend: 0x0, symName: '__ZN3std3sys9backtrace10_print_fmt28_$u7b$$u7b$closure$u7d$$u7d$17h240c89470c2fecd8E', symObjAddr: 0x1F310, symBinAddr: 0x346D0, symSize: 0x130 }
  - { offset: 0x7A023, size: 0x8, addend: 0x0, symName: '__ZN3std3sys9backtrace10_print_fmt28_$u7b$$u7b$closure$u7d$$u7d$17h32646e4212c9eef0E', symObjAddr: 0x1F440, symBinAddr: 0x34800, symSize: 0x20 }
  - { offset: 0x7A064, size: 0x8, addend: 0x0, symName: '__ZN3std3sys9backtrace10_print_fmt28_$u7b$$u7b$closure$u7d$$u7d$28_$u7b$$u7b$closure$u7d$$u7d$17h9218d583d276298aE', symObjAddr: 0x1F460, symBinAddr: 0x34820, symSize: 0x2A0 }
  - { offset: 0x7A257, size: 0x8, addend: 0x0, symName: __ZN3std3sys9backtrace13BacktraceLock5print17h5e73de0c808691a4E, symObjAddr: 0x1F700, symBinAddr: 0x34AC0, symSize: 0x60 }
  - { offset: 0x7A288, size: 0x8, addend: 0x0, symName: __ZN3std3sys9backtrace15output_filename17ha87664c578f770efE, symObjAddr: 0x1F760, symBinAddr: 0x34B20, symSize: 0x120 }
  - { offset: 0x7A3F4, size: 0x8, addend: 0x0, symName: __ZN3std3sys9backtrace26__rust_end_short_backtrace17h3fc1fab9d4b6800aE, symObjAddr: 0x1F880, symBinAddr: 0x34C40, symSize: 0x10 }
  - { offset: 0x7A40E, size: 0x8, addend: 0x0, symName: __ZN3std3sys9backtrace4lock17h2bb35fe2884a3a88E, symObjAddr: 0x1F8A0, symBinAddr: 0x34C50, symSize: 0x80 }
  - { offset: 0x7A564, size: 0x8, addend: 0x0, symName: '__ZN98_$LT$std..sys..backtrace..BacktraceLock..print..DisplayBacktrace$u20$as$u20$core..fmt..Display$GT$3fmt17hbb4f642dcc320b1dE', symObjAddr: 0x5A3B0, symBinAddr: 0x50040, symSize: 0x280 }
  - { offset: 0x7AAC3, size: 0x8, addend: 0x0, symName: __RNvCskdKJRKLKjqM_7___rustc11___rdl_alloc, symObjAddr: 0x70, symBinAddr: 0x298A0, symSize: 0x70 }
  - { offset: 0x7AB41, size: 0x8, addend: 0x0, symName: __RNvCskdKJRKLKjqM_7___rustc13___rdl_dealloc, symObjAddr: 0xF0, symBinAddr: 0x29910, symSize: 0x10 }
  - { offset: 0x7AB72, size: 0x8, addend: 0x0, symName: __RNvCskdKJRKLKjqM_7___rustc13___rdl_realloc, symObjAddr: 0x100, symBinAddr: 0x29920, symSize: 0xD0 }
  - { offset: 0x7AC56, size: 0x8, addend: 0x0, symName: __RNvCskdKJRKLKjqM_7___rustc18___rdl_alloc_zeroed, symObjAddr: 0x2D0, symBinAddr: 0x29AF0, symSize: 0x90 }
  - { offset: 0x7ACFB, size: 0x8, addend: 0x0, symName: __RNvCskdKJRKLKjqM_7___rustc8___rg_oom, symObjAddr: 0x430, symBinAddr: 0x63680, symSize: 0x20 }
  - { offset: 0x7AD17, size: 0x8, addend: 0x0, symName: __ZN3std5alloc24default_alloc_error_hook17h037631a9e9542696E, symObjAddr: 0x23AD0, symBinAddr: 0x35B20, symSize: 0x160 }
  - { offset: 0x7AFA4, size: 0x8, addend: 0x0, symName: __ZN3std5alloc8rust_oom17he6554ab5e3e4bfbfE, symObjAddr: 0x23C30, symBinAddr: 0x63D60, symSize: 0x20 }
  - { offset: 0x7B0EE, size: 0x8, addend: 0x0, symName: __ZN3std2io5error5Error3new17hca09cf106a8bb92bE, symObjAddr: 0xC960, symBinAddr: 0x32A40, symSize: 0x120 }
  - { offset: 0x7B492, size: 0x8, addend: 0x0, symName: '__ZN3std2io5error83_$LT$impl$u20$core..fmt..Debug$u20$for$u20$std..io..error..repr_bitpacked..Repr$GT$3fmt17h0c2c47996b5c8151E', symObjAddr: 0xCB00, symBinAddr: 0x32B60, symSize: 0x300 }
  - { offset: 0x7B6EA, size: 0x8, addend: 0x0, symName: '__ZN58_$LT$std..io..error..Error$u20$as$u20$core..fmt..Debug$GT$3fmt17h4e87839884dfef9aE', symObjAddr: 0x3D080, symBinAddr: 0x444B0, symSize: 0x10 }
  - { offset: 0x7B704, size: 0x8, addend: 0x0, symName: '__ZN60_$LT$std..io..error..Error$u20$as$u20$core..fmt..Display$GT$3fmt17hb9b71bb9d61087ecE', symObjAddr: 0x4F030, symBinAddr: 0x4E6E0, symSize: 0x280 }
  - { offset: 0x7B937, size: 0x8, addend: 0x0, symName: '__ZN62_$LT$std..io..error..ErrorKind$u20$as$u20$core..fmt..Debug$GT$3fmt17hd88fc964aff56ab8E', symObjAddr: 0x51C40, symBinAddr: 0x4EA40, symSize: 0x30 }
  - { offset: 0x7B958, size: 0x8, addend: 0x0, symName: __ZN3std2io5Write18write_all_vectored17hc2fed901070b4d06E, symObjAddr: 0xC160, symBinAddr: 0x32380, symSize: 0x1D0 }
  - { offset: 0x7BB9D, size: 0x8, addend: 0x0, symName: __ZN3std2io5Write9write_all17ha0278d11ab8e55b7E, symObjAddr: 0xC330, symBinAddr: 0x32550, symSize: 0xA0 }
  - { offset: 0x7BC8D, size: 0x8, addend: 0x0, symName: __ZN3std2io5Write9write_fmt17h0157f34dfbceefe5E, symObjAddr: 0xC3D0, symBinAddr: 0x325F0, symSize: 0x170 }
  - { offset: 0x7BF67, size: 0x8, addend: 0x0, symName: __ZN3std2io5Write9write_fmt17h24b62528f4d1168aE, symObjAddr: 0xC540, symBinAddr: 0x32760, symSize: 0x170 }
  - { offset: 0x7C241, size: 0x8, addend: 0x0, symName: __ZN3std2io5Write9write_fmt17h5e34a6300392fe22E, symObjAddr: 0xC6B0, symBinAddr: 0x328D0, symSize: 0x170 }
  - { offset: 0x7C56A, size: 0x8, addend: 0x0, symName: __ZN3std2io5stdio22try_set_output_capture17hb613035c20b6d0f1E, symObjAddr: 0xD2C0, symBinAddr: 0x33250, symSize: 0xB0 }
  - { offset: 0x7C7E2, size: 0x8, addend: 0x0, symName: '__ZN3std2io5impls74_$LT$impl$u20$std..io..Write$u20$for$u20$alloc..vec..Vec$LT$u8$C$A$GT$$GT$14write_vectored17h396066abfc006fcaE', symObjAddr: 0xCE00, symBinAddr: 0x32E60, symSize: 0x180 }
  - { offset: 0x7C9E4, size: 0x8, addend: 0x0, symName: '__ZN3std2io5impls74_$LT$impl$u20$std..io..Write$u20$for$u20$alloc..vec..Vec$LT$u8$C$A$GT$$GT$17is_write_vectored17h473fffb9382bf9c6E', symObjAddr: 0xCF80, symBinAddr: 0x32FE0, symSize: 0x10 }
  - { offset: 0x7CA0D, size: 0x8, addend: 0x0, symName: '__ZN3std2io5impls74_$LT$impl$u20$std..io..Write$u20$for$u20$alloc..vec..Vec$LT$u8$C$A$GT$$GT$18write_all_vectored17hcfe81a52ebadbc0bE', symObjAddr: 0xCF90, symBinAddr: 0x32FF0, symSize: 0x170 }
  - { offset: 0x7CA38, size: 0x8, addend: 0x0, symName: '__ZN3std2io5impls74_$LT$impl$u20$std..io..Write$u20$for$u20$alloc..vec..Vec$LT$u8$C$A$GT$$GT$18write_all_vectored17hcfe81a52ebadbc0bE', symObjAddr: 0xCF90, symBinAddr: 0x32FF0, symSize: 0x170 }
  - { offset: 0x7CA4D, size: 0x8, addend: 0x0, symName: '__ZN3std2io5impls74_$LT$impl$u20$std..io..Write$u20$for$u20$alloc..vec..Vec$LT$u8$C$A$GT$$GT$18write_all_vectored17hcfe81a52ebadbc0bE', symObjAddr: 0xCF90, symBinAddr: 0x32FF0, symSize: 0x170 }
  - { offset: 0x7CA62, size: 0x8, addend: 0x0, symName: '__ZN3std2io5impls74_$LT$impl$u20$std..io..Write$u20$for$u20$alloc..vec..Vec$LT$u8$C$A$GT$$GT$18write_all_vectored17hcfe81a52ebadbc0bE', symObjAddr: 0xCF90, symBinAddr: 0x32FF0, symSize: 0x170 }
  - { offset: 0x7CA76, size: 0x8, addend: 0x0, symName: '__ZN3std2io5impls74_$LT$impl$u20$std..io..Write$u20$for$u20$alloc..vec..Vec$LT$u8$C$A$GT$$GT$18write_all_vectored17hcfe81a52ebadbc0bE', symObjAddr: 0xCF90, symBinAddr: 0x32FF0, symSize: 0x170 }
  - { offset: 0x7CA8A, size: 0x8, addend: 0x0, symName: '__ZN3std2io5impls74_$LT$impl$u20$std..io..Write$u20$for$u20$alloc..vec..Vec$LT$u8$C$A$GT$$GT$18write_all_vectored17hcfe81a52ebadbc0bE', symObjAddr: 0xCF90, symBinAddr: 0x32FF0, symSize: 0x170 }
  - { offset: 0x7CC44, size: 0x8, addend: 0x0, symName: '__ZN3std2io5impls74_$LT$impl$u20$std..io..Write$u20$for$u20$alloc..vec..Vec$LT$u8$C$A$GT$$GT$5flush17hc83d241489517b1fE', symObjAddr: 0xD100, symBinAddr: 0x33160, symSize: 0x10 }
  - { offset: 0x7CC5F, size: 0x8, addend: 0x0, symName: '__ZN3std2io5impls74_$LT$impl$u20$std..io..Write$u20$for$u20$alloc..vec..Vec$LT$u8$C$A$GT$$GT$5write17h0e0da068fc5acedeE', symObjAddr: 0xD110, symBinAddr: 0x33170, symSize: 0x70 }
  - { offset: 0x7CD45, size: 0x8, addend: 0x0, symName: '__ZN3std2io5impls74_$LT$impl$u20$std..io..Write$u20$for$u20$alloc..vec..Vec$LT$u8$C$A$GT$$GT$9write_all17h7bccd6e9d3e19e7fE', symObjAddr: 0xD180, symBinAddr: 0x331E0, symSize: 0x70 }
  - { offset: 0x7CF32, size: 0x8, addend: 0x0, symName: '__ZN81_$LT$std..io..default_write_fmt..Adapter$LT$T$GT$$u20$as$u20$core..fmt..Write$GT$9write_str17h1649a3991f2ea191E', symObjAddr: 0x57A70, symBinAddr: 0x4F660, symSize: 0xD0 }
  - { offset: 0x7D03E, size: 0x8, addend: 0x0, symName: '__ZN81_$LT$std..io..default_write_fmt..Adapter$LT$T$GT$$u20$as$u20$core..fmt..Write$GT$9write_str17h65288afb60bc4b22E', symObjAddr: 0x57C60, symBinAddr: 0x4F730, symSize: 0x70 }
  - { offset: 0x7D12B, size: 0x8, addend: 0x0, symName: '__ZN81_$LT$std..io..default_write_fmt..Adapter$LT$T$GT$$u20$as$u20$core..fmt..Write$GT$9write_str17hf60e64c5a7fc0711E', symObjAddr: 0x57D20, symBinAddr: 0x4F7A0, symSize: 0xA0 }
  - { offset: 0x7D360, size: 0x8, addend: 0x0, symName: __ZN3std4path4Path13_strip_prefix17h57206cfe16291a76E, symObjAddr: 0x20BD0, symBinAddr: 0x35310, symSize: 0x3C0 }
  - { offset: 0x7D470, size: 0x8, addend: 0x0, symName: __ZN3std4path4Path5_join17hf8c84868fde1d922E, symObjAddr: 0x21720, symBinAddr: 0x356D0, symSize: 0x190 }
  - { offset: 0x7DB37, size: 0x8, addend: 0x0, symName: __ZN3std4path10Components15len_before_body17hc0c9c8c5c44312a5E, symObjAddr: 0x1F920, symBinAddr: 0x34CD0, symSize: 0x170 }
  - { offset: 0x7DB4E, size: 0x8, addend: 0x0, symName: __ZN3std4path10Components15len_before_body17hc0c9c8c5c44312a5E, symObjAddr: 0x1F920, symBinAddr: 0x34CD0, symSize: 0x170 }
  - { offset: 0x7DB63, size: 0x8, addend: 0x0, symName: __ZN3std4path10Components15len_before_body17hc0c9c8c5c44312a5E, symObjAddr: 0x1F920, symBinAddr: 0x34CD0, symSize: 0x170 }
  - { offset: 0x7DD3B, size: 0x8, addend: 0x0, symName: __ZN3std4path10Components25parse_next_component_back17h39a0247b7cda8e0bE, symObjAddr: 0x1FA90, symBinAddr: 0x34E40, symSize: 0xF0 }
  - { offset: 0x7DEDA, size: 0x8, addend: 0x0, symName: __ZN3std4path10Components7as_path17h069c6a5a65b7ff44E, symObjAddr: 0x1FB80, symBinAddr: 0x34F30, symSize: 0x3E0 }
  - { offset: 0x7E30B, size: 0x8, addend: 0x0, symName: '__ZN61_$LT$std..path..Component$u20$as$u20$core..cmp..PartialEq$GT$2eq17h491fa3e2db060d13E', symObjAddr: 0x512F0, symBinAddr: 0x4E960, symSize: 0xE0 }
  - { offset: 0x7E3C5, size: 0x8, addend: 0x0, symName: '__ZN80_$LT$std..path..Components$u20$as$u20$core..iter..traits..iterator..Iterator$GT$4next17hee0b9dd08b602416E', symObjAddr: 0x57330, symBinAddr: 0x4F250, symSize: 0x410 }
  - { offset: 0x7E766, size: 0x8, addend: 0x0, symName: '__ZN95_$LT$std..path..Components$u20$as$u20$core..iter..traits..double_ended..DoubleEndedIterator$GT$9next_back17h714e7cb7d2d85f84E', symObjAddr: 0x59CE0, symBinAddr: 0x4FB60, symSize: 0x420 }
  - { offset: 0x7E95F, size: 0x8, addend: 0x0, symName: __ZN3std7process5abort17h0d4477327f66e8fbE, symObjAddr: 0x25400, symBinAddr: 0x63FA0, symSize: 0x10 }
  - { offset: 0x7E98A, size: 0x8, addend: 0x0, symName: '__ZN118_$LT$std..thread..thread_name_string..ThreadNameString$u20$as$u20$core..convert..From$LT$alloc..string..String$GT$$GT$4from17h61e83cd51d9b6e6aE', symObjAddr: 0x10C0, symBinAddr: 0x29C50, symSize: 0x100 }
  - { offset: 0x7EC0E, size: 0x8, addend: 0x0, symName: __ZN3std6thread5local18panic_access_error17h1e9c6bd8f0d440e3E, symObjAddr: 0x24040, symBinAddr: 0x63D90, symSize: 0x60 }
  - { offset: 0x7EC43, size: 0x8, addend: 0x0, symName: '__ZN68_$LT$std..thread..local..AccessError$u20$as$u20$core..fmt..Debug$GT$3fmt17h19d84e0a8b904c5cE', symObjAddr: 0x53E10, symBinAddr: 0x4ED20, symSize: 0x30 }
  - { offset: 0x7ED0F, size: 0x8, addend: 0x0, symName: __ZN3std6thread7current12init_current17h90dce586534f49cdE, symObjAddr: 0x245B0, symBinAddr: 0x63DF0, symSize: 0x160 }
  - { offset: 0x7F0A7, size: 0x8, addend: 0x0, symName: __ZN3std6thread6Thread3new17haba3f9a731f34843E, symObjAddr: 0x241F0, symBinAddr: 0x35D50, symSize: 0x140 }
  - { offset: 0x7F3EE, size: 0x8, addend: 0x0, symName: __ZN3std6thread8ThreadId3new9exhausted17h406b0b054c541c40E, symObjAddr: 0x248A0, symBinAddr: 0x63F50, symSize: 0x50 }
  - { offset: 0x7F48A, size: 0x8, addend: 0x0, symName: __ZN3std12backtrace_rs5print17BacktraceFrameFmt21print_raw_with_column17h124737e9f41c54b0E, symObjAddr: 0x12B0, symBinAddr: 0x29DE0, symSize: 0x560 }
  - { offset: 0x7F680, size: 0x8, addend: 0x0, symName: __ZN3std12backtrace_rs9backtrace9libunwind5trace8trace_fn17hc5d3caa7e26e2d87E, symObjAddr: 0x1810, symBinAddr: 0x2A340, symSize: 0x50 }
  - { offset: 0x7F73B, size: 0x8, addend: 0x0, symName: __ZN3std12backtrace_rs9symbolize5gimli4mmap17h12ebabe808a68383E, symObjAddr: 0x1860, symBinAddr: 0x2A390, symSize: 0x210 }
  - { offset: 0x7FC28, size: 0x8, addend: 0x0, symName: __ZN3std12backtrace_rs9symbolize5gimli5macho11find_header17hde9f2a87e444cec9E, symObjAddr: 0x1A70, symBinAddr: 0x2A5A0, symSize: 0x190 }
  - { offset: 0x80306, size: 0x8, addend: 0x0, symName: __ZN3std12backtrace_rs9symbolize5gimli5macho6Object5parse17h400ac0874d941337E, symObjAddr: 0x1C00, symBinAddr: 0x2A730, symSize: 0x1040 }
  - { offset: 0x8222D, size: 0x8, addend: 0x0, symName: __ZN3std12backtrace_rs9symbolize5gimli5macho6Object7section17hf53b9a42818e2c3dE, symObjAddr: 0x2C40, symBinAddr: 0x2B770, symSize: 0x180 }
  - { offset: 0x82667, size: 0x8, addend: 0x0, symName: __ZN3std12backtrace_rs9symbolize5gimli7Context11find_frames17h15418eb91b7e6263E, symObjAddr: 0x2DC0, symBinAddr: 0x2B8F0, symSize: 0x3D0 }
  - { offset: 0x82A47, size: 0x8, addend: 0x0, symName: __ZN3std12backtrace_rs9symbolize5gimli7Context3new17hb329d27e4d696e6aE, symObjAddr: 0x3190, symBinAddr: 0x2BCC0, symSize: 0x3050 }
  - { offset: 0x86BA5, size: 0x8, addend: 0x0, symName: __ZN3std12backtrace_rs9symbolize5gimli7resolve17h34165e1bf34eef53E, symObjAddr: 0x61E0, symBinAddr: 0x2ED10, symSize: 0x3560 }
  - { offset: 0x8CC31, size: 0x8, addend: 0x0, symName: __ZN3std12backtrace_rs9symbolize6Symbol4name17hd612854ad8f0ffd0E, symObjAddr: 0x9780, symBinAddr: 0x32270, symSize: 0x110 }
  - { offset: 0x8CD6A, size: 0x8, addend: 0x0, symName: '__ZN79_$LT$std..backtrace_rs..symbolize..SymbolName$u20$as$u20$core..fmt..Display$GT$3fmt17hdc33297e1ed74ca2E', symObjAddr: 0x56AE0, symBinAddr: 0x4F150, symSize: 0xE0 }
  - { offset: 0x8D095, size: 0x8, addend: 0x0, symName: '__ZN64_$LT$std..ffi..os_str..Display$u20$as$u20$core..fmt..Display$GT$3fmt17hc3b4edbdc1de5d2aE', symObjAddr: 0x52BC0, symBinAddr: 0x4EAC0, symSize: 0xD0 }
  - { offset: 0x8D11A, size: 0x8, addend: 0x0, symName: '__ZN3std4sync6poison5mutex14Mutex$LT$T$GT$4lock17hc2ce4f843db9b8deE', symObjAddr: 0x23070, symBinAddr: 0x35860, symSize: 0x70 }
  - { offset: 0x8D33F, size: 0x8, addend: 0x0, symName: '__ZN3std4sync6poison6rwlock15RwLock$LT$T$GT$5write17h3f9ac71f61f78640E', symObjAddr: 0x230E0, symBinAddr: 0x358D0, symSize: 0x250 }
  - { offset: 0x8DA75, size: 0x8, addend: 0x0, symName: __ZN3std5panic13resume_unwind17hf1a9d0c0bd7b809aE, symObjAddr: 0x23C50, symBinAddr: 0x63D80, symSize: 0x10 }
  - { offset: 0x8DAA4, size: 0x8, addend: 0x0, symName: __ZN3std5panic19get_backtrace_style17h4c7362303865842eE, symObjAddr: 0x23C60, symBinAddr: 0x35C80, symSize: 0xD0 }
  - { offset: 0x8DAC2, size: 0x8, addend: 0x0, symName: __ZN3std5panic19get_backtrace_style17h4c7362303865842eE, symObjAddr: 0x23C60, symBinAddr: 0x35C80, symSize: 0xD0 }
  - { offset: 0x8DAD7, size: 0x8, addend: 0x0, symName: __ZN3std5panic19get_backtrace_style17h4c7362303865842eE, symObjAddr: 0x23C60, symBinAddr: 0x35C80, symSize: 0xD0 }
  - { offset: 0x8DD44, size: 0x8, addend: 0x0, symName: __ZN3std3env11current_dir17h09876c9b4b89060dE, symObjAddr: 0xF800, symBinAddr: 0x33300, symSize: 0x1C0 }
  - { offset: 0x8E181, size: 0x8, addend: 0x0, symName: __ZN3std3env4_var17h75d65b34efbdced7E, symObjAddr: 0xFAA0, symBinAddr: 0x334C0, symSize: 0xA0 }
  - { offset: 0x8E27D, size: 0x8, addend: 0x0, symName: __ZN3std3env7_var_os17ha90d6152c34619e1E, symObjAddr: 0xFB80, symBinAddr: 0x33560, symSize: 0x170 }
  - { offset: 0x8E814, size: 0x8, addend: 0x0, symName: __ZN5alloc5alloc15exchange_malloc17hdc54b6ad35f557b1E, symObjAddr: 0x452D0, symBinAddr: 0x44F10, symSize: 0x40 }
  - { offset: 0x8F676, size: 0x8, addend: 0x0, symName: '__ZN64_$LT$alloc..ffi..c_str..NulError$u20$as$u20$core..fmt..Debug$GT$3fmt17h42a8844572b8105bE', symObjAddr: 0x524F0, symBinAddr: 0x4EA70, symSize: 0x50 }
  - { offset: 0x8FB1E, size: 0x8, addend: 0x0, symName: '__ZN5alloc11collections5btree3map25IntoIter$LT$K$C$V$C$A$GT$10dying_next17h0137cfdaf279346fE', symObjAddr: 0x40430, symBinAddr: 0x444C0, symSize: 0x3C0 }
  - { offset: 0x8FE8A, size: 0x8, addend: 0x0, symName: '__ZN5alloc11collections5btree3map25IntoIter$LT$K$C$V$C$A$GT$10dying_next17h74ba4dc90cd3bd84E', symObjAddr: 0x407F0, symBinAddr: 0x44880, symSize: 0x3C0 }
  - { offset: 0x90BC8, size: 0x8, addend: 0x0, symName: '__ZN5alloc7raw_vec19RawVec$LT$T$C$A$GT$8grow_one17h1578391f1dd2c7daE', symObjAddr: 0x45380, symBinAddr: 0x44F50, symSize: 0xC0 }
  - { offset: 0x90CDE, size: 0x8, addend: 0x0, symName: '__ZN5alloc7raw_vec19RawVec$LT$T$C$A$GT$8grow_one17h1a8e605a6c9c7a9cE', symObjAddr: 0x45440, symBinAddr: 0x45010, symSize: 0xC0 }
  - { offset: 0x90E09, size: 0x8, addend: 0x0, symName: '__ZN5alloc7raw_vec19RawVec$LT$T$C$A$GT$8grow_one17h496d6c99f941dcd8E', symObjAddr: 0x45500, symBinAddr: 0x450D0, symSize: 0xB0 }
  - { offset: 0x90F1F, size: 0x8, addend: 0x0, symName: '__ZN5alloc7raw_vec19RawVec$LT$T$C$A$GT$8grow_one17h62d92001f5fd4088E', symObjAddr: 0x455B0, symBinAddr: 0x45180, symSize: 0xC0 }
  - { offset: 0x91035, size: 0x8, addend: 0x0, symName: '__ZN5alloc7raw_vec19RawVec$LT$T$C$A$GT$8grow_one17h882f0afd17fb4cf1E', symObjAddr: 0x45670, symBinAddr: 0x45240, symSize: 0xC0 }
  - { offset: 0x91160, size: 0x8, addend: 0x0, symName: '__ZN5alloc7raw_vec19RawVec$LT$T$C$A$GT$8grow_one17h9215a3a3eddacbe8E', symObjAddr: 0x45730, symBinAddr: 0x45300, symSize: 0xC0 }
  - { offset: 0x91276, size: 0x8, addend: 0x0, symName: '__ZN5alloc7raw_vec19RawVec$LT$T$C$A$GT$8grow_one17h944deff35e2917e9E', symObjAddr: 0x457F0, symBinAddr: 0x453C0, symSize: 0xC0 }
  - { offset: 0x913A1, size: 0x8, addend: 0x0, symName: '__ZN5alloc7raw_vec19RawVec$LT$T$C$A$GT$8grow_one17h9e141b6ec2b6b304E', symObjAddr: 0x458B0, symBinAddr: 0x45480, symSize: 0xB0 }
  - { offset: 0x914B7, size: 0x8, addend: 0x0, symName: '__ZN5alloc7raw_vec19RawVec$LT$T$C$A$GT$8grow_one17haba969b9d90e429dE', symObjAddr: 0x45960, symBinAddr: 0x45530, symSize: 0xC0 }
  - { offset: 0x915E2, size: 0x8, addend: 0x0, symName: '__ZN5alloc7raw_vec19RawVec$LT$T$C$A$GT$8grow_one17hea102eabff85231dE', symObjAddr: 0x45AD0, symBinAddr: 0x455F0, symSize: 0xB0 }
  - { offset: 0x916F8, size: 0x8, addend: 0x0, symName: '__ZN5alloc7raw_vec19RawVec$LT$T$C$A$GT$8grow_one17hf1b3041c36e8ca25E', symObjAddr: 0x45B80, symBinAddr: 0x456A0, symSize: 0xB0 }
  - { offset: 0x91A36, size: 0x8, addend: 0x0, symName: __ZN5alloc7raw_vec11finish_grow17h446b951c64c58a29E, symObjAddr: 0x45310, symBinAddr: 0x68180, symSize: 0x70 }
  - { offset: 0x91AC2, size: 0x8, addend: 0x0, symName: '__ZN5alloc7raw_vec20RawVecInner$LT$A$GT$7reserve21do_reserve_and_handle17ha31d691a92aa6984E', symObjAddr: 0x45C30, symBinAddr: 0x681F0, symSize: 0xE0 }
  - { offset: 0x91D7A, size: 0x8, addend: 0x0, symName: '__ZN58_$LT$alloc..string..String$u20$as$u20$core..fmt..Debug$GT$3fmt17hc75db25d6de527ebE', symObjAddr: 0x3CEA0, symBinAddr: 0x44300, symSize: 0x20 }
  - { offset: 0x91E35, size: 0x8, addend: 0x0, symName: '__ZN58_$LT$alloc..string..String$u20$as$u20$core..fmt..Write$GT$10write_char17hba3be11e36d4a54fE', symObjAddr: 0x3CEC0, symBinAddr: 0x44320, symSize: 0x120 }
  - { offset: 0x91FBB, size: 0x8, addend: 0x0, symName: '__ZN58_$LT$alloc..string..String$u20$as$u20$core..fmt..Write$GT$9write_str17h0e3a6c0844845614E', symObjAddr: 0x3CFE0, symBinAddr: 0x44440, symSize: 0x70 }
  - { offset: 0x920B5, size: 0x8, addend: 0x0, symName: '__ZN60_$LT$alloc..string..String$u20$as$u20$core..fmt..Display$GT$3fmt17h3ce6768c6f20d89dE', symObjAddr: 0x4EC80, symBinAddr: 0x4E6C0, symSize: 0x20 }
  - { offset: 0x92528, size: 0x8, addend: 0x0, symName: '__ZN5alloc4sync16Arc$LT$T$C$A$GT$9drop_slow17h165e22aa5ecb5c14E', symObjAddr: 0x44F90, symBinAddr: 0x44C40, symSize: 0x90 }
  - { offset: 0x92824, size: 0x8, addend: 0x0, symName: '__ZN5alloc4sync16Arc$LT$T$C$A$GT$9drop_slow17h1b88c69b37654d90E', symObjAddr: 0x45020, symBinAddr: 0x44CD0, symSize: 0xA0 }
  - { offset: 0x92A2D, size: 0x8, addend: 0x0, symName: '__ZN5alloc4sync16Arc$LT$T$C$A$GT$9drop_slow17h38a2709360a70488E', symObjAddr: 0x450C0, symBinAddr: 0x44D70, symSize: 0x60 }
  - { offset: 0x92BF5, size: 0x8, addend: 0x0, symName: '__ZN5alloc4sync16Arc$LT$T$C$A$GT$9drop_slow17h4fe547a59c8e5f5cE', symObjAddr: 0x45120, symBinAddr: 0x44DD0, symSize: 0x30 }
  - { offset: 0x92CD6, size: 0x8, addend: 0x0, symName: '__ZN5alloc4sync16Arc$LT$T$C$A$GT$9drop_slow17h5dbc3385cf3806bdE', symObjAddr: 0x45150, symBinAddr: 0x44E00, symSize: 0x70 }
  - { offset: 0x92E7C, size: 0x8, addend: 0x0, symName: '__ZN5alloc4sync16Arc$LT$T$C$A$GT$9drop_slow17h6f3c55e925f13c23E', symObjAddr: 0x451C0, symBinAddr: 0x44E70, symSize: 0xA0 }
  - { offset: 0x93A40, size: 0x8, addend: 0x0, symName: __ZN6object4read7archive13ArchiveMember5parse17hd3e51da29e5488c1E, symObjAddr: 0x53F80, symBinAddr: 0x4ED50, symSize: 0x350 }
  - { offset: 0x94197, size: 0x8, addend: 0x0, symName: __ZN6object4read7archive23parse_bsd_extended_name17h1aeb333c92faa5e9E, symObjAddr: 0x542D0, symBinAddr: 0x4F0A0, symSize: 0xB0 }
  - { offset: 0x945AB, size: 0x8, addend: 0x0, symName: '__ZN9addr2line4unit16ResUnit$LT$R$GT$25find_function_or_location28_$u7b$$u7b$closure$u7d$$u7d$17h74f8b46b09233272E', symObjAddr: 0x5B2C0, symBinAddr: 0x50F50, symSize: 0x2F0 }
  - { offset: 0x94951, size: 0x8, addend: 0x0, symName: '__ZN9addr2line4unit16ResUnit$LT$R$GT$25find_function_or_location17h779b8cc8975ca827E', symObjAddr: 0x5AE20, symBinAddr: 0x50AB0, symSize: 0x4A0 }
  - { offset: 0x94E7C, size: 0x8, addend: 0x0, symName: '__ZN9addr2line16Context$LT$R$GT$9find_unit17hafe5c4000e4dcc90E', symObjAddr: 0x5A630, symBinAddr: 0x502C0, symSize: 0x150 }
  - { offset: 0x95061, size: 0x8, addend: 0x0, symName: '__ZN9addr2line6lookup30LoopingLookup$LT$T$C$L$C$F$GT$10new_lookup17hcb3afea57a5db3abE', symObjAddr: 0x5B900, symBinAddr: 0x51590, symSize: 0x530 }
  - { offset: 0x95589, size: 0x8, addend: 0x0, symName: __ZN9addr2line4line11render_file17h1c7a4084725a11a9E, symObjAddr: 0x5A780, symBinAddr: 0x50410, symSize: 0x6A0 }
  - { offset: 0x95F1F, size: 0x8, addend: 0x0, symName: '__ZN9addr2line8function17Function$LT$R$GT$14parse_children17h1b46ddfba7fb182cE', symObjAddr: 0x5C240, symBinAddr: 0x51ED0, symSize: 0x1390 }
  - { offset: 0x9753B, size: 0x8, addend: 0x0, symName: __ZN9addr2line8function10name_entry17h5deb9017d935ead1E, symObjAddr: 0x5BE30, symBinAddr: 0x51AC0, symSize: 0x410 }
  - { offset: 0x97997, size: 0x8, addend: 0x0, symName: __ZN9addr2line8function9name_attr17hc5ba8693362fa215E, symObjAddr: 0x5D5D0, symBinAddr: 0x53260, symSize: 0x1B0 }
  - { offset: 0x97BBC, size: 0x8, addend: 0x0, symName: '__ZN9addr2line5frame18FrameIter$LT$R$GT$4next17h7dae5ed4e94f9885E', symObjAddr: 0x5B5B0, symBinAddr: 0x51240, symSize: 0x350 }
  - { offset: 0x9846F, size: 0x8, addend: 0x0, symName: '__ZN5gimli4read5dwarf14Dwarf$LT$R$GT$11attr_string17hc5d4d70dcc99f435E', symObjAddr: 0x4CCF0, symBinAddr: 0x4C730, symSize: 0x210 }
  - { offset: 0x98C8C, size: 0x8, addend: 0x0, symName: '__ZN5gimli4read5dwarf13Unit$LT$R$GT$3new17h575ffe3f9752d03fE', symObjAddr: 0x4A4A0, symBinAddr: 0x49EE0, symSize: 0x2850 }
  - { offset: 0x9C207, size: 0x8, addend: 0x0, symName: '__ZN5gimli4read7aranges30ArangeHeader$LT$R$C$Offset$GT$5parse17h9e159263f6fe8401E', symObjAddr: 0x4DA20, symBinAddr: 0x4D460, symSize: 0x2A0 }
  - { offset: 0x9CD0A, size: 0x8, addend: 0x0, symName: '__ZN5gimli4read4unit18Attribute$LT$R$GT$5value17h523c462abedaae9bE', symObjAddr: 0x492D0, symBinAddr: 0x48D10, symSize: 0x7C0 }
  - { offset: 0x9D115, size: 0x8, addend: 0x0, symName: '__ZN90_$LT$gimli..read..unit..AttributeValue$LT$R$C$Offset$GT$$u20$as$u20$core..clone..Clone$GT$5clone17h098c211905b07158E', symObjAddr: 0x590A0, symBinAddr: 0x4F9D0, symSize: 0x120 }
  - { offset: 0x9D175, size: 0x8, addend: 0x0, symName: '__ZN5gimli4read4unit32AttributeValue$LT$R$C$Offset$GT$11udata_value17h684c5d824dd1bde2E', symObjAddr: 0x49DC0, symBinAddr: 0x49800, symSize: 0x80 }
  - { offset: 0x9D1D0, size: 0x8, addend: 0x0, symName: __ZN5gimli4read4unit15parse_attribute17h3d2d3a95c0efe23eE, symObjAddr: 0x47250, symBinAddr: 0x46C90, symSize: 0x1960 }
  - { offset: 0xA056B, size: 0x8, addend: 0x0, symName: __ZN5gimli4read4unit15skip_attributes17h92846bd14a53eed5E, symObjAddr: 0x48BB0, symBinAddr: 0x485F0, symSize: 0x720 }
  - { offset: 0xA0F39, size: 0x8, addend: 0x0, symName: '__ZN5gimli4read4unit22EntriesCursor$LT$R$GT$10next_entry17hd847dc3188d94e5bE', symObjAddr: 0x49A90, symBinAddr: 0x494D0, symSize: 0x330 }
  - { offset: 0xA1480, size: 0x8, addend: 0x0, symName: '__ZN5gimli4read4unit33DebugInfoUnitHeadersIter$LT$R$GT$4next17hed0a8460df0391bfE', symObjAddr: 0x49E40, symBinAddr: 0x49880, symSize: 0x660 }
  - { offset: 0xA265D, size: 0x8, addend: 0x0, symName: __ZN5gimli4read6reader6Reader11read_offset17h5a1a189216526f37E, symObjAddr: 0x4D790, symBinAddr: 0x4D1D0, symSize: 0xB0 }
  - { offset: 0xA289A, size: 0x8, addend: 0x0, symName: __ZN5gimli4read6reader6Reader12read_uleb12817hf97552d5eed3df2dE, symObjAddr: 0x4D840, symBinAddr: 0x4D280, symSize: 0xB0 }
  - { offset: 0xA2948, size: 0x8, addend: 0x0, symName: __ZN5gimli4read6reader6Reader17read_sized_offset17h97b79870f9951699E, symObjAddr: 0x4D8F0, symBinAddr: 0x4D330, symSize: 0x130 }
  - { offset: 0xA3018, size: 0x8, addend: 0x0, symName: '__ZN5gimli4read8rnglists20RngListIter$LT$R$GT$4next17h8b60fae141bf2d6cE', symObjAddr: 0x4DCC0, symBinAddr: 0x4D700, symSize: 0xFC0 }
  - { offset: 0xA56E0, size: 0x8, addend: 0x0, symName: '__ZN5gimli4read5index18UnitIndex$LT$R$GT$5parse17h95a74f9af645c1edE', symObjAddr: 0x4CF00, symBinAddr: 0x4C940, symSize: 0x890 }
  - { offset: 0xA56FD, size: 0x8, addend: 0x0, symName: '__ZN5gimli4read5index18UnitIndex$LT$R$GT$5parse17h95a74f9af645c1edE', symObjAddr: 0x4CF00, symBinAddr: 0x4C940, symSize: 0x890 }
  - { offset: 0xA5711, size: 0x8, addend: 0x0, symName: '__ZN5gimli4read5index18UnitIndex$LT$R$GT$5parse17h95a74f9af645c1edE', symObjAddr: 0x4CF00, symBinAddr: 0x4C940, symSize: 0x890 }
  - { offset: 0xA5DD6, size: 0x8, addend: 0x0, symName: '__ZN5gimli4read4line27FileEntry$LT$R$C$Offset$GT$5parse17hd9bc2270faf33decE', symObjAddr: 0x46FF0, symBinAddr: 0x46A30, symSize: 0x260 }
  - { offset: 0xA6022, size: 0x8, addend: 0x0, symName: __ZN5gimli4read4line13parse_file_v517hd02b9988ac8f9c5bE, symObjAddr: 0x45D10, symBinAddr: 0x45750, symSize: 0x350 }
  - { offset: 0xA619B, size: 0x8, addend: 0x0, symName: __ZN5gimli4read4line15FileEntryFormat5parse17h2a60ff0d29a79605E, symObjAddr: 0x46060, symBinAddr: 0x45AA0, symSize: 0x3B0 }
  - { offset: 0xA6935, size: 0x8, addend: 0x0, symName: __ZN5gimli4read4line15parse_attribute17h7d59469e6c7378d7E, symObjAddr: 0x46410, symBinAddr: 0x45E50, symSize: 0xAD0 }
  - { offset: 0xA833A, size: 0x8, addend: 0x0, symName: __ZN5gimli4read4line18parse_directory_v517hb56c57b85d13b5daE, symObjAddr: 0x46EE0, symBinAddr: 0x46920, symSize: 0x110 }
  - { offset: 0xA85C2, size: 0x8, addend: 0x0, symName: __RNvCskdKJRKLKjqM_7___rustc18___rust_start_panic, symObjAddr: 0x0, symBinAddr: 0x53A50, symSize: 0xB0 }
  - { offset: 0xA869D, size: 0x8, addend: 0x0, symName: __ZN12panic_unwind3imp5panic17exception_cleanup17hb98a4cfa7a07ae95E, symObjAddr: 0x100, symBinAddr: 0x53B50, symSize: 0x20 }
  - { offset: 0xA86B9, size: 0x8, addend: 0x0, symName: __RNvCskdKJRKLKjqM_7___rustc18___rust_start_panic, symObjAddr: 0x0, symBinAddr: 0x53A50, symSize: 0xB0 }
  - { offset: 0xA8743, size: 0x8, addend: 0x0, symName: __RNvCskdKJRKLKjqM_7___rustc20___rust_panic_cleanup, symObjAddr: 0xB0, symBinAddr: 0x53B00, symSize: 0x50 }
  - { offset: 0xA87E6, size: 0x8, addend: 0x0, symName: '__ZN4core3ptr49drop_in_place$LT$panic_unwind..imp..Exception$GT$17h0f7b2fc4f2fea7f1E', symObjAddr: 0x120, symBinAddr: 0x53B70, symSize: 0x70 }
  - { offset: 0xA88ED, size: 0x8, addend: 0x0, symName: '__ZN4core3ptr74drop_in_place$LT$alloc..boxed..Box$LT$panic_unwind..imp..Exception$GT$$GT$17hcd43110ac76b9736E', symObjAddr: 0x190, symBinAddr: 0x53BE0, symSize: 0x89 }
  - { offset: 0xA8D37, size: 0x8, addend: 0x0, symName: __ZN6memchr4arch6x86_646memchr10memchr_raw6detect17h2099730146b20b08E, symObjAddr: 0xF90, symBinAddr: 0x53F90, symSize: 0x1C0 }
  - { offset: 0xA92EC, size: 0x8, addend: 0x0, symName: __ZN6memchr4arch6x86_646memchr10memchr_raw9find_sse217ha1fdf339af5e94d5E, symObjAddr: 0x1150, symBinAddr: 0x54150, symSize: 0x1B0 }
  - { offset: 0xA9877, size: 0x8, addend: 0x0, symName: __ZN6memchr4arch6x86_646memchr11memchr2_raw6detect17h84a70ada683e86a1E, symObjAddr: 0x1300, symBinAddr: 0x54300, symSize: 0x1A0 }
  - { offset: 0xA9F0A, size: 0x8, addend: 0x0, symName: __ZN6memchr4arch6x86_646memchr11memchr2_raw9find_sse217hc70ae4e2a27bbbefE, symObjAddr: 0x14A0, symBinAddr: 0x544A0, symSize: 0x1A0 }
  - { offset: 0xAA66B, size: 0x8, addend: 0x0, symName: __ZN9hashbrown3raw11Fallibility17capacity_overflow17hc92e32d4ab7d6e63E, symObjAddr: 0x170, symBinAddr: 0x5BAF0, symSize: 0x50 }
  - { offset: 0xAA69A, size: 0x8, addend: 0x0, symName: __ZN9hashbrown3raw11Fallibility9alloc_err17h8d4ad82e4949f018E, symObjAddr: 0x1C0, symBinAddr: 0x5BB40, symSize: 0x20 }
  - { offset: 0xAA739, size: 0x8, addend: 0x0, symName: __ZN4core3fmt5Write9write_fmt17hde1139b32b86906dE, symObjAddr: 0x1A0, symBinAddr: 0x5BBA0, symSize: 0x50 }
  - { offset: 0xAA77B, size: 0x8, addend: 0x0, symName: '__ZN53_$LT$core..fmt..Error$u20$as$u20$core..fmt..Debug$GT$3fmt17hc4ce8d9026949125E', symObjAddr: 0x5A0, symBinAddr: 0x5BC10, symSize: 0x20 }
  - { offset: 0xAA920, size: 0x8, addend: 0x0, symName: '__ZN69_$LT$core..alloc..layout..LayoutError$u20$as$u20$core..fmt..Debug$GT$3fmt17hb904d59a11340822E', symObjAddr: 0x57F0, symBinAddr: 0x5D900, symSize: 0x20 }
  - { offset: 0xAA96D, size: 0x8, addend: 0x0, symName: '__ZN4core3ptr42drop_in_place$LT$alloc..string..String$GT$17hb78d7b2b342e8423E', symObjAddr: 0x210, symBinAddr: 0x5BBF0, symSize: 0x20 }
  - { offset: 0xAB15A, size: 0x8, addend: 0x0, symName: __ZN5alloc5alloc18handle_alloc_error17h3762db9dd870b9a9E, symObjAddr: 0x35BA, symBinAddr: 0x6844A, symSize: 0x16 }
  - { offset: 0xAB421, size: 0x8, addend: 0x0, symName: __ZN5alloc7raw_vec11finish_grow17h3ef34721aec5e3b7E, symObjAddr: 0x52C0, symBinAddr: 0x68460, symSize: 0x6E }
  - { offset: 0xAB496, size: 0x8, addend: 0x0, symName: __ZN5alloc7raw_vec12handle_error17h937a4fa340d4a4b8E, symObjAddr: 0x532E, symBinAddr: 0x684CE, symSize: 0x22 }
  - { offset: 0xAB4D5, size: 0x8, addend: 0x0, symName: __ZN5alloc7raw_vec17capacity_overflow17hfafd9746150329d6E, symObjAddr: 0x5350, symBinAddr: 0x684F0, symSize: 0x40 }
  - { offset: 0xAB50E, size: 0x8, addend: 0x0, symName: '__ZN5alloc7raw_vec20RawVecInner$LT$A$GT$7reserve21do_reserve_and_handle17h05c0f4d79cdd84bfE', symObjAddr: 0x5430, symBinAddr: 0x68530, symSize: 0xB0 }
  - { offset: 0xAB674, size: 0x8, addend: 0x0, symName: '__ZN254_$LT$alloc..boxed..convert..$LT$impl$u20$core..convert..From$LT$alloc..string..String$GT$$u20$for$u20$alloc..boxed..Box$LT$dyn$u20$core..error..Error$u2b$core..marker..Sync$u2b$core..marker..Send$GT$$GT$..from..StringError$u20$as$u20$core..fmt..Debug$GT$3fmt17hcf569323b84bf267E', symObjAddr: 0x140, symBinAddr: 0x5BB60, symSize: 0x20 }
  - { offset: 0xAB745, size: 0x8, addend: 0x0, symName: '__ZN256_$LT$alloc..boxed..convert..$LT$impl$u20$core..convert..From$LT$alloc..string..String$GT$$u20$for$u20$alloc..boxed..Box$LT$dyn$u20$core..error..Error$u2b$core..marker..Sync$u2b$core..marker..Send$GT$$GT$..from..StringError$u20$as$u20$core..fmt..Display$GT$3fmt17h1b1a69dfec465030E', symObjAddr: 0x160, symBinAddr: 0x5BB80, symSize: 0x20 }
  - { offset: 0xAB824, size: 0x8, addend: 0x0, symName: __ZN5alloc3ffi5c_str7CString19_from_vec_unchecked17ha526334e500b1abdE, symObjAddr: 0xC50, symBinAddr: 0x5BDA0, symSize: 0x120 }
  - { offset: 0xABB92, size: 0x8, addend: 0x0, symName: '__ZN72_$LT$$RF$str$u20$as$u20$alloc..ffi..c_str..CString..new..SpecNewImpl$GT$13spec_new_impl17h86c6e2e3ca147532E', symObjAddr: 0x5810, symBinAddr: 0x5D920, symSize: 0x120 }
  - { offset: 0xABFCB, size: 0x8, addend: 0x0, symName: '__ZN5alloc3vec16Vec$LT$T$C$A$GT$9split_off13assert_failed17h16d721080282630dE', symObjAddr: 0x262D, symBinAddr: 0x683DD, symSize: 0x63 }
  - { offset: 0xAC0A9, size: 0x8, addend: 0x0, symName: __ZN5alloc6string6String15from_utf8_lossy17h0471d885b3e9b3ebE, symObjAddr: 0x4790, symBinAddr: 0x5D600, symSize: 0x270 }
  - { offset: 0xAC747, size: 0x8, addend: 0x0, symName: '__ZN58_$LT$alloc..string..String$u20$as$u20$core..fmt..Write$GT$10write_char17hba3be11e36d4a54fE', symObjAddr: 0x620, symBinAddr: 0x5BC30, symSize: 0x110 }
  - { offset: 0xAC8CD, size: 0x8, addend: 0x0, symName: '__ZN58_$LT$alloc..string..String$u20$as$u20$core..fmt..Write$GT$9write_str17h0e3a6c0844845614E', symObjAddr: 0x730, symBinAddr: 0x5BD40, symSize: 0x60 }
  - { offset: 0xAC9D5, size: 0x8, addend: 0x0, symName: '__ZN98_$LT$alloc..string..String$u20$as$u20$core..convert..From$LT$alloc..borrow..Cow$LT$str$GT$$GT$$GT$4from17h1463175ae5508b78E', symObjAddr: 0x61F0, symBinAddr: 0x5DA40, symSize: 0xAB }
  - { offset: 0xACB65, size: 0x8, addend: 0x0, symName: '__ZN60_$LT$alloc..string..String$u20$as$u20$core..clone..Clone$GT$5clone17hd38a3a1339e7125eE', symObjAddr: 0x5550, symBinAddr: 0x5D870, symSize: 0x90 }
  - { offset: 0xACD59, size: 0x8, addend: 0x0, symName: __ZN5alloc3fmt6format12format_inner17h3a5f8b83fd90200fE, symObjAddr: 0xE40, symBinAddr: 0x5BEC0, symSize: 0x210 }
  - { offset: 0xAD01C, size: 0x8, addend: 0x0, symName: '__ZN5alloc3str21_$LT$impl$u20$str$GT$12to_lowercase17h7fc27efec5ec3e37E', symObjAddr: 0x1050, symBinAddr: 0x5C0D0, symSize: 0xCE0 }
  - { offset: 0xAE16B, size: 0x8, addend: 0x0, symName: '__ZN5alloc3str21_$LT$impl$u20$str$GT$12to_uppercase17ha1fed58c6879ddc6E', symObjAddr: 0x1D30, symBinAddr: 0x5CDB0, symSize: 0x7E0 }
  - { offset: 0xAECF3, size: 0x8, addend: 0x0, symName: __ZN5alloc4sync32arcinner_layout_for_value_layout17h6aceeaaa01c07cfaE, symObjAddr: 0x2690, symBinAddr: 0x5D590, symSize: 0x70 }
  - { offset: 0xAED0A, size: 0x8, addend: 0x0, symName: __ZN5alloc4sync32arcinner_layout_for_value_layout17h6aceeaaa01c07cfaE, symObjAddr: 0x2690, symBinAddr: 0x5D590, symSize: 0x70 }
  - { offset: 0xAED1F, size: 0x8, addend: 0x0, symName: __ZN5alloc4sync32arcinner_layout_for_value_layout17h6aceeaaa01c07cfaE, symObjAddr: 0x2690, symBinAddr: 0x5D590, symSize: 0x70 }
  - { offset: 0xAEE94, size: 0x8, addend: 0x0, symName: '__ZN71_$LT$core..ops..range..Range$LT$Idx$GT$$u20$as$u20$core..fmt..Debug$GT$3fmt17hc330239f60cc9eb3E', symObjAddr: 0x1F4B0, symBinAddr: 0x62790, symSize: 0x50 }
  - { offset: 0xAF1AD, size: 0x8, addend: 0x0, symName: '__ZN4core4char7methods22_$LT$impl$u20$char$GT$16escape_debug_ext17hb449749641e3affeE', symObjAddr: 0x176B0, symBinAddr: 0x61580, symSize: 0x2D0 }
  - { offset: 0xAF3DB, size: 0x8, addend: 0x0, symName: __ZN4core4char7methods15encode_utf8_raw8do_panic7runtime17hb720cf973e12fcdfE, symObjAddr: 0x17590, symBinAddr: 0x68740, symSize: 0x90 }
  - { offset: 0xAF492, size: 0x8, addend: 0x0, symName: '__ZN82_$LT$core..char..ToLowercase$u20$as$u20$core..iter..traits..iterator..Iterator$GT$4next17he97a84082cbbe05bE', symObjAddr: 0x20720, symBinAddr: 0x627E0, symSize: 0x20 }
  - { offset: 0xAF797, size: 0x8, addend: 0x0, symName: __ZN4core3num22from_ascii_radix_panic8do_panic7runtime17hf55c31c541c87b43E, symObjAddr: 0xD980, symBinAddr: 0x685F0, symSize: 0x60 }
  - { offset: 0xAF7CA, size: 0x8, addend: 0x0, symName: __ZN4core3num22from_ascii_radix_panic17h56065ab58d046821E, symObjAddr: 0xD970, symBinAddr: 0x685E0, symSize: 0x10 }
  - { offset: 0xAFAF1, size: 0x8, addend: 0x0, symName: __ZN4core6option13expect_failed17h1ec281f12b35982eE, symObjAddr: 0x18040, symBinAddr: 0x68A40, symSize: 0x60 }
  - { offset: 0xAFB39, size: 0x8, addend: 0x0, symName: __ZN4core6option13unwrap_failed17hd0abc7d118070f58E, symObjAddr: 0x180A0, symBinAddr: 0x68AA0, symSize: 0x20 }
  - { offset: 0xAFD1A, size: 0x8, addend: 0x0, symName: __ZN4core5ascii14escape_default17h0a6aca021d957f3eE, symObjAddr: 0x17A60, symBinAddr: 0x61880, symSize: 0x80 }
  - { offset: 0xAFF46, size: 0x8, addend: 0x0, symName: '__ZN4core5slice29_$LT$impl$u20$$u5b$T$u5d$$GT$15copy_from_slice17len_mismatch_fail8do_panic7runtime17hb32068666e296a35E', symObjAddr: 0x17B00, symBinAddr: 0x687F0, symSize: 0x70 }
  - { offset: 0xAFF79, size: 0x8, addend: 0x0, symName: '__ZN4core5slice29_$LT$impl$u20$$u5b$T$u5d$$GT$15copy_from_slice17len_mismatch_fail17he7a976f8c4d5df82E', symObjAddr: 0x17AE0, symBinAddr: 0x687D0, symSize: 0x20 }
  - { offset: 0xB0300, size: 0x8, addend: 0x0, symName: __ZN4core5slice5index16slice_index_fail8do_panic7runtime17h41282b038f05ddfaE, symObjAddr: 0x17D00, symBinAddr: 0x688F0, symSize: 0x70 }
  - { offset: 0xB0331, size: 0x8, addend: 0x0, symName: __ZN4core5slice5index16slice_index_fail8do_panic7runtime17haaf49c781c78a5c0E, symObjAddr: 0x17D70, symBinAddr: 0x68960, symSize: 0x70 }
  - { offset: 0xB0362, size: 0x8, addend: 0x0, symName: __ZN4core5slice5index16slice_index_fail8do_panic7runtime17hae4da62edc07a39fE, symObjAddr: 0x17DE0, symBinAddr: 0x689D0, symSize: 0x70 }
  - { offset: 0xB0395, size: 0x8, addend: 0x0, symName: __ZN4core5slice5index16slice_index_fail17h1a065c4e1a1e0b41E, symObjAddr: 0x17CC0, symBinAddr: 0x688B0, symSize: 0x40 }
  - { offset: 0xB0441, size: 0x8, addend: 0x0, symName: __ZN4core5slice6memchr14memchr_aligned17hbe324882bd8e8f20E, symObjAddr: 0x17E50, symBinAddr: 0x61930, symSize: 0xE0 }
  - { offset: 0xB053B, size: 0x8, addend: 0x0, symName: __ZN4core5slice6memchr7memrchr17h3060eb51c807ecd7E, symObjAddr: 0x17F30, symBinAddr: 0x61A10, symSize: 0x110 }
  - { offset: 0xB072B, size: 0x8, addend: 0x0, symName: __ZN4core5slice4sort6shared9smallsort22panic_on_ord_violation17hd9a4c3c4a8ebe09aE, symObjAddr: 0x17BA0, symBinAddr: 0x68860, symSize: 0x50 }
  - { offset: 0xB0768, size: 0x8, addend: 0x0, symName: __ZN4core5slice4sort6stable5drift11sqrt_approx17h5b54c8126d8482dbE, symObjAddr: 0x17BF0, symBinAddr: 0x61900, symSize: 0x30 }
  - { offset: 0xB085D, size: 0x8, addend: 0x0, symName: __ZN4core3fmt9Formatter10debug_list17h9d2456a350d67ad8E, symObjAddr: 0xA1C0, symBinAddr: 0x5F520, symSize: 0x40 }
  - { offset: 0xB089D, size: 0x8, addend: 0x0, symName: __ZN4core3fmt9Formatter11debug_tuple17hdcc53271f394ac41E, symObjAddr: 0xA200, symBinAddr: 0x5F560, symSize: 0x50 }
  - { offset: 0xB08F2, size: 0x8, addend: 0x0, symName: __ZN4core3fmt9Formatter12debug_struct17h8c9b9889fabaa42eE, symObjAddr: 0xA250, symBinAddr: 0x5F5B0, symSize: 0x40 }
  - { offset: 0xB095B, size: 0x8, addend: 0x0, symName: __ZN4core3fmt9Formatter12pad_integral17h5b6fb6906b7fe010E, symObjAddr: 0xA2F0, symBinAddr: 0x5F650, symSize: 0x4A0 }
  - { offset: 0xB0BEA, size: 0x8, addend: 0x0, symName: __ZN4core3fmt9Formatter25debug_tuple_field1_finish17hc108d765633dc1f9E, symObjAddr: 0xACB0, symBinAddr: 0x5FAF0, symSize: 0x140 }
  - { offset: 0xB0DF2, size: 0x8, addend: 0x0, symName: __ZN4core3fmt9Formatter25debug_tuple_field2_finish17h3020954311064adeE, symObjAddr: 0xADF0, symBinAddr: 0x5FC30, symSize: 0x1A0 }
  - { offset: 0xB10EA, size: 0x8, addend: 0x0, symName: __ZN4core3fmt9Formatter26debug_struct_field1_finish17h161bc6caec1550cdE, symObjAddr: 0xBA70, symBinAddr: 0x5FDD0, symSize: 0xB0 }
  - { offset: 0xB11C1, size: 0x8, addend: 0x0, symName: __ZN4core3fmt9Formatter26debug_struct_field2_finish17h9392189e9ab00f59E, symObjAddr: 0xBB20, symBinAddr: 0x5FE80, symSize: 0xD0 }
  - { offset: 0xB1298, size: 0x8, addend: 0x0, symName: __ZN4core3fmt9Formatter3pad17h37b5dfd85e2b0428E, symObjAddr: 0xC000, symBinAddr: 0x5FF50, symSize: 0x3D0 }
  - { offset: 0xB150A, size: 0x8, addend: 0x0, symName: __ZN4core3fmt9Formatter9write_str17h532155584af4b419E, symObjAddr: 0xC460, symBinAddr: 0x60320, symSize: 0x20 }
  - { offset: 0xB157A, size: 0x8, addend: 0x0, symName: __ZN4core3fmt8builders11DebugStruct5field17h99bfe0cd343e038aE, symObjAddr: 0x97F0, symBinAddr: 0x5F1D0, symSize: 0x190 }
  - { offset: 0xB178E, size: 0x8, addend: 0x0, symName: __ZN4core3fmt8builders11DebugStruct6finish17h759eca09f088587cE, symObjAddr: 0x9980, symBinAddr: 0x5F360, symSize: 0x60 }
  - { offset: 0xB18B6, size: 0x8, addend: 0x0, symName: __ZN4core3fmt8builders10DebugTuple5field17hcff3261d35d211e6E, symObjAddr: 0x9550, symBinAddr: 0x5F010, symSize: 0x130 }
  - { offset: 0xB1A24, size: 0x8, addend: 0x0, symName: __ZN4core3fmt8builders10DebugTuple6finish17hee865a46ed84494bE, symObjAddr: 0x9680, symBinAddr: 0x5F140, symSize: 0x90 }
  - { offset: 0xB1B5F, size: 0x8, addend: 0x0, symName: __ZN4core3fmt8builders8DebugSet5entry17h9ad4bd41e6760f90E, symObjAddr: 0x9F60, symBinAddr: 0x5F3C0, symSize: 0x120 }
  - { offset: 0xB1D40, size: 0x8, addend: 0x0, symName: __ZN4core3fmt8builders9DebugList6finish17he5544af857123449E, symObjAddr: 0xA180, symBinAddr: 0x5F4E0, symSize: 0x40 }
  - { offset: 0xB1DBD, size: 0x8, addend: 0x0, symName: '__ZN68_$LT$core..fmt..builders..PadAdapter$u20$as$u20$core..fmt..Write$GT$10write_char17h8781eb8fef702588E', symObjAddr: 0x1E270, symBinAddr: 0x624B0, symSize: 0x60 }
  - { offset: 0xB1DE6, size: 0x8, addend: 0x0, symName: '__ZN68_$LT$core..fmt..builders..PadAdapter$u20$as$u20$core..fmt..Write$GT$9write_str17h3ac9bf90fc6b2989E', symObjAddr: 0x1E2D0, symBinAddr: 0x62510, symSize: 0x280 }
  - { offset: 0xB2048, size: 0x8, addend: 0x0, symName: '__ZN57_$LT$core..fmt..Formatter$u20$as$u20$core..fmt..Write$GT$10write_char17h4978b0c667a9d8b0E', symObjAddr: 0x1A5E0, symBinAddr: 0x62430, symSize: 0x20 }
  - { offset: 0xB2084, size: 0x8, addend: 0x0, symName: '__ZN40_$LT$str$u20$as$u20$core..fmt..Debug$GT$3fmt17h3cbb4b7bcf7be3d7E', symObjAddr: 0x240, symBinAddr: 0x5DAF0, symSize: 0x3A0 }
  - { offset: 0xB24E7, size: 0x8, addend: 0x0, symName: '__ZN41_$LT$char$u20$as$u20$core..fmt..Debug$GT$3fmt17h4e11ed1b5452e387E', symObjAddr: 0x5E0, symBinAddr: 0x5DE90, symSize: 0xA0 }
  - { offset: 0xB2610, size: 0x8, addend: 0x0, symName: '__ZN42_$LT$$RF$T$u20$as$u20$core..fmt..Debug$GT$3fmt17h0f40b67a922b1ec5E', symObjAddr: 0x680, symBinAddr: 0x5DF30, symSize: 0x10 }
  - { offset: 0xB262B, size: 0x8, addend: 0x0, symName: '__ZN42_$LT$$RF$T$u20$as$u20$core..fmt..Debug$GT$3fmt17h7680cd2a2d1e04fdE', symObjAddr: 0x6B0, symBinAddr: 0x5DF40, symSize: 0x20 }
  - { offset: 0xB264D, size: 0x8, addend: 0x0, symName: '__ZN42_$LT$$RF$T$u20$as$u20$core..fmt..Debug$GT$3fmt17h868720066d227907E', symObjAddr: 0x6D0, symBinAddr: 0x5DF60, symSize: 0x160 }
  - { offset: 0xB2874, size: 0x8, addend: 0x0, symName: '__ZN42_$LT$$RF$T$u20$as$u20$core..fmt..Debug$GT$3fmt17he2aa20ce460ddad7E', symObjAddr: 0x860, symBinAddr: 0x5E0C0, symSize: 0x10 }
  - { offset: 0xB289C, size: 0x8, addend: 0x0, symName: '__ZN42_$LT$str$u20$as$u20$core..fmt..Display$GT$3fmt17h83ec9ba80990d67aE', symObjAddr: 0x870, symBinAddr: 0x5E0D0, symSize: 0x20 }
  - { offset: 0xB28C4, size: 0x8, addend: 0x0, symName: '__ZN43_$LT$char$u20$as$u20$core..fmt..Display$GT$3fmt17ha887c9494bff9603E', symObjAddr: 0x8D0, symBinAddr: 0x5E0F0, symSize: 0xC0 }
  - { offset: 0xB2933, size: 0x8, addend: 0x0, symName: '__ZN44_$LT$$RF$T$u20$as$u20$core..fmt..Display$GT$3fmt17h1fb02a4f1d7d14b9E', symObjAddr: 0x990, symBinAddr: 0x5E1B0, symSize: 0x20 }
  - { offset: 0xB2A07, size: 0x8, addend: 0x0, symName: '__ZN4core3fmt3num3imp51_$LT$impl$u20$core..fmt..Display$u20$for$u20$u8$GT$3fmt17h1a13e7c6295dbb75E', symObjAddr: 0x2630, symBinAddr: 0x5E390, symSize: 0xA0 }
  - { offset: 0xB2AEC, size: 0x8, addend: 0x0, symName: '__ZN4core3fmt3num3imp52_$LT$impl$u20$core..fmt..Display$u20$for$u20$i32$GT$3fmt17h4add2573f547cd42E', symObjAddr: 0x27D0, symBinAddr: 0x5E430, symSize: 0x120 }
  - { offset: 0xB2C0C, size: 0x8, addend: 0x0, symName: '__ZN4core3fmt3num3imp52_$LT$impl$u20$core..fmt..Display$u20$for$u20$u32$GT$3fmt17haa57ce01fac3917eE', symObjAddr: 0x2B00, symBinAddr: 0x5E550, symSize: 0x110 }
  - { offset: 0xB2D19, size: 0x8, addend: 0x0, symName: '__ZN4core3fmt3num3imp52_$LT$impl$u20$core..fmt..Display$u20$for$u20$u64$GT$3fmt17h8b8600c70b3a3ac8E', symObjAddr: 0x2C10, symBinAddr: 0x5E660, symSize: 0x110 }
  - { offset: 0xB2E54, size: 0x8, addend: 0x0, symName: '__ZN4core3fmt3num52_$LT$impl$u20$core..fmt..LowerHex$u20$for$u20$u8$GT$3fmt17h39a52b6e10cf70aeE', symObjAddr: 0x4AE0, symBinAddr: 0x5EAC0, symSize: 0x70 }
  - { offset: 0xB2EE5, size: 0x8, addend: 0x0, symName: '__ZN4core3fmt3num52_$LT$impl$u20$core..fmt..UpperHex$u20$for$u20$u8$GT$3fmt17h865b83e01c77f87fE', symObjAddr: 0x4BC0, symBinAddr: 0x5EB30, symSize: 0x70 }
  - { offset: 0xB2F89, size: 0x8, addend: 0x0, symName: '__ZN4core3fmt3num53_$LT$impl$u20$core..fmt..UpperHex$u20$for$u20$u32$GT$3fmt17he24323287b2084c2E', symObjAddr: 0x5170, symBinAddr: 0x5ECF0, symSize: 0x70 }
  - { offset: 0xB301A, size: 0x8, addend: 0x0, symName: '__ZN4core3fmt3num53_$LT$impl$u20$core..fmt..LowerHex$u20$for$u20$u64$GT$3fmt17h3112ef8c0abad7d1E', symObjAddr: 0x4F40, symBinAddr: 0x5EC10, symSize: 0x70 }
  - { offset: 0xB30AB, size: 0x8, addend: 0x0, symName: '__ZN4core3fmt3num53_$LT$impl$u20$core..fmt..UpperHex$u20$for$u20$u64$GT$3fmt17hf363a6f2e4cad34eE', symObjAddr: 0x51E0, symBinAddr: 0x5ED60, symSize: 0x70 }
  - { offset: 0xB312F, size: 0x8, addend: 0x0, symName: '__ZN4core3fmt3num50_$LT$impl$u20$core..fmt..Debug$u20$for$u20$u64$GT$3fmt17h376bce9b57b8a762E', symObjAddr: 0x3E60, symBinAddr: 0x5E770, symSize: 0x1A0 }
  - { offset: 0xB32C3, size: 0x8, addend: 0x0, symName: '__ZN4core3fmt3num52_$LT$impl$u20$core..fmt..Debug$u20$for$u20$usize$GT$3fmt17h4806199c82f902ceE', symObjAddr: 0x48C0, symBinAddr: 0x5E910, symSize: 0x1B0 }
  - { offset: 0xB3444, size: 0x8, addend: 0x0, symName: '__ZN4core3fmt3num53_$LT$impl$u20$core..fmt..LowerHex$u20$for$u20$i32$GT$3fmt17hfee837de970427b1E', symObjAddr: 0x4D80, symBinAddr: 0x5EBA0, symSize: 0x70 }
  - { offset: 0xB34EA, size: 0x8, addend: 0x0, symName: '__ZN4core3fmt3num53_$LT$impl$u20$core..fmt..UpperHex$u20$for$u20$i32$GT$3fmt17h26acf60f65152f77E', symObjAddr: 0x5020, symBinAddr: 0x5EC80, symSize: 0x70 }
  - { offset: 0xB374C, size: 0x8, addend: 0x0, symName: __ZN4core3fmt17pointer_fmt_inner17h97023b135e02a0e7E, symObjAddr: 0x1240, symBinAddr: 0x5E2F0, symSize: 0xA0 }
  - { offset: 0xB383D, size: 0x8, addend: 0x0, symName: __ZN4core3fmt5Write9write_fmt17h852655db2bea3a71E, symObjAddr: 0x6270, symBinAddr: 0x5EDD0, symSize: 0x20 }
  - { offset: 0xB38BC, size: 0x8, addend: 0x0, symName: __ZN4core3fmt5write17h32d512c5550f2c71E, symObjAddr: 0x9280, symBinAddr: 0x5EDF0, symSize: 0x220 }
  - { offset: 0xB3A6A, size: 0x8, addend: 0x0, symName: __ZN4core3fmt9Formatter12pad_integral12write_prefix17he3bb54c358307d3fE, symObjAddr: 0xA290, symBinAddr: 0x5F5F0, symSize: 0x60 }
  - { offset: 0xB3AD2, size: 0x8, addend: 0x0, symName: '__ZN59_$LT$core..fmt..Arguments$u20$as$u20$core..fmt..Display$GT$3fmt17hfd1b80e04662b19aE', symObjAddr: 0x1B480, symBinAddr: 0x62450, symSize: 0x20 }
  - { offset: 0xB3C2D, size: 0x8, addend: 0x0, symName: __ZN4core6result13unwrap_failed17h5b5681f5bd639151E, symObjAddr: 0x180C0, symBinAddr: 0x68AC0, symSize: 0x80 }
  - { offset: 0xB3E4F, size: 0x8, addend: 0x0, symName: __ZN4core3str5count14do_count_chars17hc493e781e0338f55E, symObjAddr: 0x16370, symBinAddr: 0x606E0, symSize: 0x5A0 }
  - { offset: 0xB4297, size: 0x8, addend: 0x0, symName: __ZN4core3str5count23char_count_general_case17h45b75eff409d0732E, symObjAddr: 0x16910, symBinAddr: 0x60C80, symSize: 0xB0 }
  - { offset: 0xB42EB, size: 0x8, addend: 0x0, symName: __ZN4core3str5count23char_count_general_case17h45b75eff409d0732E, symObjAddr: 0x16910, symBinAddr: 0x60C80, symSize: 0xB0 }
  - { offset: 0xB4368, size: 0x8, addend: 0x0, symName: __ZN4core3str16slice_error_fail17h7ebf3d4aa8bf503fE, symObjAddr: 0x15DF0, symBinAddr: 0x68650, symSize: 0x10 }
  - { offset: 0xB4382, size: 0x8, addend: 0x0, symName: __ZN4core3str19slice_error_fail_rt17hfa55243860877ddbE, symObjAddr: 0x15E40, symBinAddr: 0x60340, symSize: 0x3A0 }
  - { offset: 0xB4569, size: 0x8, addend: 0x0, symName: __ZN4core3str7pattern11StrSearcher3new17hfab9aab88f91478aE, symObjAddr: 0x16A00, symBinAddr: 0x60D30, symSize: 0x640 }
  - { offset: 0xB4829, size: 0x8, addend: 0x0, symName: __ZN4core3str8converts9from_utf817hab685de2f5c40023E, symObjAddr: 0x17250, symBinAddr: 0x61370, symSize: 0x210 }
  - { offset: 0xB4897, size: 0x8, addend: 0x0, symName: '__ZN87_$LT$core..str..lossy..Utf8Chunks$u20$as$u20$core..iter..traits..iterator..Iterator$GT$4next17hc6bf0146e235ca7cE', symObjAddr: 0x217F0, symBinAddr: 0x62800, symSize: 0x1A0 }
  - { offset: 0xB4AAB, size: 0x8, addend: 0x0, symName: __ZN4core3ffi5c_str4CStr19from_bytes_with_nul17h663354f457718412E, symObjAddr: 0xFF0, symBinAddr: 0x5E1D0, symSize: 0x120 }
  - { offset: 0xB4BC1, size: 0x8, addend: 0x0, symName: __ZN4core4cell22panic_already_borrowed8do_panic7runtime17hb02334c284ba6668E, symObjAddr: 0x17470, symBinAddr: 0x68670, symSize: 0x60 }
  - { offset: 0xB4BF4, size: 0x8, addend: 0x0, symName: __ZN4core4cell22panic_already_borrowed17h380a7ae12b05c21bE, symObjAddr: 0x17460, symBinAddr: 0x68660, symSize: 0x10 }
  - { offset: 0xB4C3B, size: 0x8, addend: 0x0, symName: __ZN4core4cell30panic_already_mutably_borrowed8do_panic7runtime17h6df1817d5b28cca4E, symObjAddr: 0x174E0, symBinAddr: 0x686E0, symSize: 0x60 }
  - { offset: 0xB4C6E, size: 0x8, addend: 0x0, symName: __ZN4core4cell30panic_already_mutably_borrowed17hba8509c21e3c3d56E, symObjAddr: 0x174D0, symBinAddr: 0x686D0, symSize: 0x10 }
  - { offset: 0xB4CA3, size: 0x8, addend: 0x0, symName: '__ZN62_$LT$core..cell..BorrowError$u20$as$u20$core..fmt..Display$GT$3fmt17h1a48923c96fcfccdE', symObjAddr: 0x1C100, symBinAddr: 0x62470, symSize: 0x20 }
  - { offset: 0xB4CDA, size: 0x8, addend: 0x0, symName: '__ZN65_$LT$core..cell..BorrowMutError$u20$as$u20$core..fmt..Display$GT$3fmt17hbdc0278247eb0cacE', symObjAddr: 0x1C610, symBinAddr: 0x62490, symSize: 0x20 }
  - { offset: 0xB4D2A, size: 0x8, addend: 0x0, symName: __ZN4core7unicode12unicode_data15grapheme_extend11lookup_slow17hdcf8fe3bcaa288d6E, symObjAddr: 0x185E0, symBinAddr: 0x61EC0, symSize: 0x100 }
  - { offset: 0xB4FA6, size: 0x8, addend: 0x0, symName: __ZN4core7unicode12unicode_data11conversions8to_lower17hf7b90ace71030055E, symObjAddr: 0x18240, symBinAddr: 0x61B20, symSize: 0x140 }
  - { offset: 0xB4FC4, size: 0x8, addend: 0x0, symName: __ZN4core7unicode12unicode_data11conversions8to_lower17hf7b90ace71030055E, symObjAddr: 0x18240, symBinAddr: 0x61B20, symSize: 0x140 }
  - { offset: 0xB50F0, size: 0x8, addend: 0x0, symName: __ZN4core7unicode12unicode_data11conversions8to_upper17h3725250915cb3818E, symObjAddr: 0x18380, symBinAddr: 0x61C60, symSize: 0x160 }
  - { offset: 0xB510E, size: 0x8, addend: 0x0, symName: __ZN4core7unicode12unicode_data11conversions8to_upper17h3725250915cb3818E, symObjAddr: 0x18380, symBinAddr: 0x61C60, symSize: 0x160 }
  - { offset: 0xB527C, size: 0x8, addend: 0x0, symName: __ZN4core7unicode12unicode_data14case_ignorable11lookup_slow17h4b92ef760de8f376E, symObjAddr: 0x184E0, symBinAddr: 0x61DC0, symSize: 0x100 }
  - { offset: 0xB5456, size: 0x8, addend: 0x0, symName: __ZN4core7unicode12unicode_data5cased11lookup_slow17h690883e53f85f30fE, symObjAddr: 0x187E0, symBinAddr: 0x61FC0, symSize: 0xF0 }
  - { offset: 0xB5623, size: 0x8, addend: 0x0, symName: __ZN4core7unicode12unicode_data9uppercase6lookup17h5a5ef3cfcfb7a95eE, symObjAddr: 0x189C0, symBinAddr: 0x620B0, symSize: 0xF0 }
  - { offset: 0xB5675, size: 0x8, addend: 0x0, symName: __ZN4core7unicode9printable12is_printable17hc67588a861ee36a9E, symObjAddr: 0x18AB0, symBinAddr: 0x621A0, symSize: 0x290 }
  - { offset: 0xB59A6, size: 0x8, addend: 0x0, symName: __ZN4core5alloc6layout6Layout19is_size_align_valid17h9b309ba4c67ddf6eE, symObjAddr: 0x17A30, symBinAddr: 0x61850, symSize: 0x30 }
  - { offset: 0xB59F0, size: 0x8, addend: 0x0, symName: __ZN4core9panicking11panic_const23panic_const_div_by_zero17h1817bf4a5c63dcf1E, symObjAddr: 0x18D40, symBinAddr: 0x68B40, symSize: 0x40 }
  - { offset: 0xB5A1F, size: 0x8, addend: 0x0, symName: __ZN4core9panicking11panic_const23panic_const_rem_by_zero17h66d921d73263a198E, symObjAddr: 0x18DC0, symBinAddr: 0x68B80, symSize: 0x40 }
  - { offset: 0xB5A4E, size: 0x8, addend: 0x0, symName: __ZN4core9panicking11panic_const24panic_const_add_overflow17hbc5e9fcbe302c148E, symObjAddr: 0x18E00, symBinAddr: 0x68BC0, symSize: 0x40 }
  - { offset: 0xB5A7D, size: 0x8, addend: 0x0, symName: __ZN4core9panicking11panic_const24panic_const_sub_overflow17hed39324016f6b9e2E, symObjAddr: 0x18FC0, symBinAddr: 0x68C00, symSize: 0x40 }
  - { offset: 0xB5AAD, size: 0x8, addend: 0x0, symName: __ZN4core9panicking13assert_failed17h512a2273a08e4ba1E, symObjAddr: 0x192BF, symBinAddr: 0x68C4F, symSize: 0x2F }
  - { offset: 0xB5AC8, size: 0x8, addend: 0x0, symName: __ZN4core9panicking13assert_failed17haff998095acd4f8eE, symObjAddr: 0x192EE, symBinAddr: 0x68C7E, symSize: 0x2F }
  - { offset: 0xB5AE3, size: 0x8, addend: 0x0, symName: __ZN4core9panicking13assert_failed17hf790c8989ead8b5cE, symObjAddr: 0x1931D, symBinAddr: 0x68CAD, symSize: 0x33 }
  - { offset: 0xB5AFE, size: 0x8, addend: 0x0, symName: __ZN4core9panicking14panic_nounwind17h4e71c9dba73fe19eE, symObjAddr: 0x19350, symBinAddr: 0x68CE0, symSize: 0x50 }
  - { offset: 0xB5B2D, size: 0x8, addend: 0x0, symName: __ZN4core9panicking16panic_in_cleanup17h278dcedb7b834eecE, symObjAddr: 0x19418, symBinAddr: 0x68D38, symSize: 0x13 }
  - { offset: 0xB5B48, size: 0x8, addend: 0x0, symName: __ZN4core9panicking18panic_bounds_check17hd6c879668b498650E, symObjAddr: 0x1942B, symBinAddr: 0x68D4B, symSize: 0x65 }
  - { offset: 0xB5B87, size: 0x8, addend: 0x0, symName: __ZN4core9panicking18panic_nounwind_fmt17h13cf4419fe26bc7eE, symObjAddr: 0x19490, symBinAddr: 0x68DB0, symSize: 0x5B }
  - { offset: 0xB5BCC, size: 0x8, addend: 0x0, symName: __ZN4core9panicking19assert_failed_inner17h4305f0dee9388e3cE, symObjAddr: 0x194EB, symBinAddr: 0x68E0B, symSize: 0x127 }
  - { offset: 0xB5C06, size: 0x8, addend: 0x0, symName: __ZN4core9panicking19panic_cannot_unwind17ha66eab6f79487262E, symObjAddr: 0x19612, symBinAddr: 0x68F32, symSize: 0x1E }
  - { offset: 0xB5C21, size: 0x8, addend: 0x0, symName: __ZN4core9panicking26panic_nounwind_nobacktrace17hb4fbf937932f35e4E, symObjAddr: 0x19630, symBinAddr: 0x68F50, symSize: 0x4D }
  - { offset: 0xB5C50, size: 0x8, addend: 0x0, symName: __ZN4core9panicking30panic_null_pointer_dereference17hc3aa2b7b81bedb80E, symObjAddr: 0x1967D, symBinAddr: 0x68F9D, symSize: 0x3A }
  - { offset: 0xB5C81, size: 0x8, addend: 0x0, symName: __ZN4core9panicking36panic_misaligned_pointer_dereference17h6c4371a49e27ad8cE, symObjAddr: 0x1970F, symBinAddr: 0x68FDF, symSize: 0x71 }
  - { offset: 0xB5CB3, size: 0x8, addend: 0x0, symName: __ZN4core9panicking5panic17hea69a7d4c28c810cE, symObjAddr: 0x19780, symBinAddr: 0x69050, symSize: 0x50 }
  - { offset: 0xB5CE2, size: 0x8, addend: 0x0, symName: __ZN4core9panicking9panic_fmt17h46fb0d6076d2bd77E, symObjAddr: 0x197D0, symBinAddr: 0x690A0, symSize: 0x20 }
...
