---
triple:          'x86_64-apple-darwin'
binary-path:     '/Users/kema/git/rust-serv/target/debug/build/aws-lc-sys-f67ae09d36ec3169/build_script_main-f67ae09d36ec3169'
relocations:
  - { offset: 0x1E, size: 0x8, addend: 0x0, symName: __RINvMs6_NtCsjK30CmJ87bX_9hashbrown3rawINtB6_8RawTableTNtNtCslJiobkLta79_5alloc6string6StringNtNtCscVIntrQSCr8_17build_script_main10cc_builder15CompilerFeatureEE14reserve_rehashNCINvNtB8_3map11make_hasherBQ_B1s_NtNtNtCsHUR1vrdMJt_3std4hash6random11RandomStateE0EB1w_, symObjAddr: 0x0, symBinAddr: 0x10014D650, symSize: 0xD70 }
  - { offset: 0x5A, size: 0x8, addend: 0x0, symName: __RNCINvMs6_NtCsjK30CmJ87bX_9hashbrown3rawINtB8_8RawTableTNtNtCslJiobkLta79_5alloc6string6StringNtNtCscVIntrQSCr8_17build_script_main10cc_builder15CompilerFeatureEE14reserve_rehashNCINvNtBa_3map11make_hasherBS_B1u_NtNtNtCsHUR1vrdMJt_3std4hash6random11RandomStateE0E0B1y_, symObjAddr: 0x1E70, symBinAddr: 0x100001CC0, symSize: 0xB0 }
  - { offset: 0x220, size: 0x8, addend: 0x0, symName: __RNCINvMs6_NtCsjK30CmJ87bX_9hashbrown3rawINtB8_8RawTableTNtNtCslJiobkLta79_5alloc6string6StringNtNtCscVIntrQSCr8_17build_script_main10cc_builder15CompilerFeatureEE14reserve_rehashNCINvNtBa_3map11make_hasherBS_B1u_NtNtNtCsHUR1vrdMJt_3std4hash6random11RandomStateE0Es_0B1y_, symObjAddr: 0x1F20, symBinAddr: 0x100001D70, symSize: 0x30 }
  - { offset: 0x27D, size: 0x8, addend: 0x0, symName: __RNCINvMs6_NtCsjK30CmJ87bX_9hashbrown3rawINtB8_8RawTableTNtNtCslJiobkLta79_5alloc6string6StringNtNtCscVIntrQSCr8_17build_script_main10cc_builder15CompilerFeatureEE24find_or_find_insert_slotNCINvNtBa_3map14equivalent_keyBS_BS_B1u_E0NCINvB35_11make_hasherBS_B1u_NtNtNtCsHUR1vrdMJt_3std4hash6random11RandomStateE0E0B1y_, symObjAddr: 0x1F50, symBinAddr: 0x100001DA0, symSize: 0xB0 }
  - { offset: 0x459, size: 0x8, addend: 0x0, symName: __RNCINvMs6_NtCsjK30CmJ87bX_9hashbrown3rawINtB8_8RawTableTNtNtCslJiobkLta79_5alloc6string6StringNtNtCscVIntrQSCr8_17build_script_main10cc_builder15CompilerFeatureEE4findNCINvNtBa_3map14equivalent_keyBS_BS_B1u_E0E0B1y_, symObjAddr: 0x2000, symBinAddr: 0x100001E50, symSize: 0xB0 }
  - { offset: 0x119B, size: 0x8, addend: 0x0, symName: __RNvXsg_NtCsjK30CmJ87bX_9hashbrown3rawINtB5_8RawTableTNtNtCslJiobkLta79_5alloc6string6StringINtNtCsieiGu2EXtoJ_4core6option6OptionNtNtNtCsHUR1vrdMJt_3std3ffi6os_str8OsStringEEENtNtNtB1w_3ops4drop4Drop4dropCscVIntrQSCr8_17build_script_main, symObjAddr: 0x3860, symBinAddr: 0x1000036B0, symSize: 0x30 }
  - { offset: 0x11D7, size: 0x8, addend: 0x0, symName: __RNvXsg_NtCsjK30CmJ87bX_9hashbrown3rawINtB5_8RawTableTNtNtCslJiobkLta79_5alloc6string6StringNtNtCscVIntrQSCr8_17build_script_main10cc_builder15CompilerFeatureEENtNtNtCsieiGu2EXtoJ_4core3ops4drop4Drop4dropB1v_, symObjAddr: 0x3890, symBinAddr: 0x1000036E0, symSize: 0x30 }
  - { offset: 0x4772, size: 0x8, addend: 0x0, symName: __RINvMs6_NtCsjK30CmJ87bX_9hashbrown3rawINtB6_8RawTableTNtNtCslJiobkLta79_5alloc6string6StringNtNtCscVIntrQSCr8_17build_script_main10cc_builder15CompilerFeatureEE14reserve_rehashNCINvNtB8_3map11make_hasherBQ_B1s_NtNtNtCsHUR1vrdMJt_3std4hash6random11RandomStateE0EB1w_, symObjAddr: 0x0, symBinAddr: 0x10014D650, symSize: 0xD70 }
  - { offset: 0x5245, size: 0x8, addend: 0x0, symName: __RINvMs6_NtCsjK30CmJ87bX_9hashbrown3rawINtB6_8RawTableTNtNtCslJiobkLta79_5alloc6string6StringNtNtCscVIntrQSCr8_17build_script_main10cc_builder15CompilerFeatureEE24find_or_find_insert_slotNCINvNtB8_3map14equivalent_keyBQ_BQ_B1s_E0NCINvB33_11make_hasherBQ_B1s_NtNtNtCsHUR1vrdMJt_3std4hash6random11RandomStateE0EB1w_, symObjAddr: 0xD70, symBinAddr: 0x100000BC0, symSize: 0x160 }
  - { offset: 0x570F, size: 0x8, addend: 0x0, symName: __RINvMs6_NtCsjK30CmJ87bX_9hashbrown3rawINtB6_8RawTableTNtNtCslJiobkLta79_5alloc6string6StringNtNtCscVIntrQSCr8_17build_script_main10cc_builder15CompilerFeatureEE4findNCINvNtB8_3map14equivalent_keyBQ_BQ_B1s_E0EB1w_, symObjAddr: 0xED0, symBinAddr: 0x100000D20, symSize: 0x480 }
  - { offset: 0x5C28, size: 0x8, addend: 0x0, symName: __RINvMs6_NtCsjK30CmJ87bX_9hashbrown3rawINtB6_8RawTableTNtNtCslJiobkLta79_5alloc6string6StringNtNtCscVIntrQSCr8_17build_script_main10cc_builder15CompilerFeatureEE7reserveNCINvNtB8_3map11make_hasherBQ_B1s_NtNtNtCsHUR1vrdMJt_3std4hash6random11RandomStateE0EB1w_, symObjAddr: 0x1350, symBinAddr: 0x1000011A0, symSize: 0xC0 }
  - { offset: 0x5E52, size: 0x8, addend: 0x0, symName: __RINvMsa_NtCsjK30CmJ87bX_9hashbrown3rawNtB6_13RawTableInner13drop_elementsTNtNtCslJiobkLta79_5alloc6string6StringINtNtCsieiGu2EXtoJ_4core6option6OptionNtNtNtCsHUR1vrdMJt_3std3ffi6os_str8OsStringEEECscVIntrQSCr8_17build_script_main, symObjAddr: 0x1410, symBinAddr: 0x100001260, symSize: 0x1D0 }
  - { offset: 0x61A9, size: 0x8, addend: 0x0, symName: __RINvMsa_NtCsjK30CmJ87bX_9hashbrown3rawNtB6_13RawTableInner13drop_elementsTNtNtCslJiobkLta79_5alloc6string6StringNtNtCscVIntrQSCr8_17build_script_main10cc_builder15CompilerFeatureEEB1Q_, symObjAddr: 0x15E0, symBinAddr: 0x100001430, symSize: 0x1D0 }
  - { offset: 0x650C, size: 0x8, addend: 0x0, symName: __RINvMsa_NtCsjK30CmJ87bX_9hashbrown3rawNtB6_13RawTableInner16drop_inner_tableTNtNtCslJiobkLta79_5alloc6string6StringINtNtCsieiGu2EXtoJ_4core6option6OptionNtNtNtCsHUR1vrdMJt_3std3ffi6os_str8OsStringEENtNtB1h_5alloc6GlobalECscVIntrQSCr8_17build_script_main, symObjAddr: 0x17B0, symBinAddr: 0x100001600, symSize: 0xD0 }
  - { offset: 0x6785, size: 0x8, addend: 0x0, symName: __RINvMsa_NtCsjK30CmJ87bX_9hashbrown3rawNtB6_13RawTableInner16drop_inner_tableTNtNtCslJiobkLta79_5alloc6string6StringNtNtCscVIntrQSCr8_17build_script_main10cc_builder15CompilerFeatureENtNtB1h_5alloc6GlobalEB1T_, symObjAddr: 0x1880, symBinAddr: 0x1000016D0, symSize: 0xD0 }
  - { offset: 0x6A8B, size: 0x8, addend: 0x0, symName: __RINvMsi_NtCsjK30CmJ87bX_9hashbrown3rawINtB6_12RawIterRangeTNtNtCslJiobkLta79_5alloc6string6StringINtNtCsieiGu2EXtoJ_4core6option6OptionNtNtNtCsHUR1vrdMJt_3std3ffi6os_str8OsStringEEE9next_implKb0_ECscVIntrQSCr8_17build_script_main, symObjAddr: 0x1950, symBinAddr: 0x1000017A0, symSize: 0x290 }
  - { offset: 0x6F95, size: 0x8, addend: 0x0, symName: __RINvMsi_NtCsjK30CmJ87bX_9hashbrown3rawINtB6_12RawIterRangeTNtNtCslJiobkLta79_5alloc6string6StringNtNtCscVIntrQSCr8_17build_script_main10cc_builder15CompilerFeatureEE9next_implKb0_EB1B_, symObjAddr: 0x1BE0, symBinAddr: 0x100001A30, symSize: 0x290 }
  - { offset: 0x771E, size: 0x8, addend: 0x0, symName: __RNvMs1_NtCsjK30CmJ87bX_9hashbrown3rawNtB5_11TableLayout20calculate_layout_forCscVIntrQSCr8_17build_script_main, symObjAddr: 0x20B0, symBinAddr: 0x100001F00, symSize: 0x2F0 }
  - { offset: 0x7BC1, size: 0x8, addend: 0x0, symName: __RNvMs6_NtCsjK30CmJ87bX_9hashbrown3rawINtB5_8RawTableTNtNtCslJiobkLta79_5alloc6string6StringNtNtCscVIntrQSCr8_17build_script_main10cc_builder15CompilerFeatureEE14insert_in_slotB1v_, symObjAddr: 0x23A0, symBinAddr: 0x1000021F0, symSize: 0x150 }
  - { offset: 0x8061, size: 0x8, addend: 0x0, symName: __RNvMsa_NtCsjK30CmJ87bX_9hashbrown3rawNtB5_13RawTableInner15fix_insert_slotCscVIntrQSCr8_17build_script_main, symObjAddr: 0x24F0, symBinAddr: 0x100002340, symSize: 0x140 }
  - { offset: 0x8414, size: 0x8, addend: 0x0, symName: __RNvMsa_NtCsjK30CmJ87bX_9hashbrown3rawNtB5_13RawTableInner15rehash_in_placeCscVIntrQSCr8_17build_script_main, symObjAddr: 0x2630, symBinAddr: 0x100002480, symSize: 0x5B0 }
  - { offset: 0x8BE0, size: 0x8, addend: 0x0, symName: __RNvMsa_NtCsjK30CmJ87bX_9hashbrown3rawNtB5_13RawTableInner16find_insert_slotCscVIntrQSCr8_17build_script_main, symObjAddr: 0x2BE0, symBinAddr: 0x100002A30, symSize: 0x130 }
  - { offset: 0x8DDF, size: 0x8, addend: 0x0, symName: __RNvMsa_NtCsjK30CmJ87bX_9hashbrown3rawNtB5_13RawTableInner19prepare_insert_slotCscVIntrQSCr8_17build_script_main, symObjAddr: 0x2D10, symBinAddr: 0x100002B60, symSize: 0x60 }
  - { offset: 0x90D0, size: 0x8, addend: 0x0, symName: __RNvMsa_NtCsjK30CmJ87bX_9hashbrown3rawNtB5_13RawTableInner23prepare_rehash_in_placeCscVIntrQSCr8_17build_script_main, symObjAddr: 0x2D70, symBinAddr: 0x100002BC0, symSize: 0x340 }
  - { offset: 0x97F7, size: 0x8, addend: 0x0, symName: __RNvMsa_NtCsjK30CmJ87bX_9hashbrown3rawNtB5_13RawTableInner25find_insert_slot_in_groupCscVIntrQSCr8_17build_script_main, symObjAddr: 0x30B0, symBinAddr: 0x100002F00, symSize: 0x160 }
  - { offset: 0x9AF5, size: 0x8, addend: 0x0, symName: __RNvMsa_NtCsjK30CmJ87bX_9hashbrown3rawNtB5_13RawTableInner30find_or_find_insert_slot_innerCscVIntrQSCr8_17build_script_main, symObjAddr: 0x3210, symBinAddr: 0x100003060, symSize: 0x410 }
  - { offset: 0x9F84, size: 0x8, addend: 0x0, symName: __RNvMsi_NtCsjK30CmJ87bX_9hashbrown3rawINtB5_12RawIterRangeTNtNtCslJiobkLta79_5alloc6string6StringINtNtCsieiGu2EXtoJ_4core6option6OptionNtNtNtCsHUR1vrdMJt_3std3ffi6os_str8OsStringEEE3newCscVIntrQSCr8_17build_script_main, symObjAddr: 0x3620, symBinAddr: 0x100003470, symSize: 0x120 }
  - { offset: 0xA2A4, size: 0x8, addend: 0x0, symName: __RNvMsi_NtCsjK30CmJ87bX_9hashbrown3rawINtB5_12RawIterRangeTNtNtCslJiobkLta79_5alloc6string6StringNtNtCscVIntrQSCr8_17build_script_main10cc_builder15CompilerFeatureEE3newB1A_, symObjAddr: 0x3740, symBinAddr: 0x100003590, symSize: 0x120 }
  - { offset: 0xA577, size: 0x8, addend: 0x0, symName: __RINvCscVIntrQSCr8_17build_script_main12emit_warningNtNtCslJiobkLta79_5alloc6string6StringEB2_, symObjAddr: 0x0, symBinAddr: 0x100003710, symSize: 0xC0 }
  - { offset: 0xA689, size: 0x8, addend: 0x0, symName: __RNvCscVIntrQSCr8_17build_script_main12PREGENERATED, symObjAddr: 0x224C0, symBinAddr: 0x1001C8970, symSize: 0x0 }
  - { offset: 0xA6A4, size: 0x8, addend: 0x0, symName: __RNvCscVIntrQSCr8_17build_script_main16AWS_LC_SYS_C_STD, symObjAddr: 0xC620, symBinAddr: 0x1001B71F0, symSize: 0x0 }
  - { offset: 0xA6ED, size: 0x8, addend: 0x0, symName: __RNvCscVIntrQSCr8_17build_script_main17AWS_LC_SYS_NO_ASM, symObjAddr: 0x224C1, symBinAddr: 0x1001C8971, symSize: 0x0 }
  - { offset: 0xA708, size: 0x8, addend: 0x0, symName: __RNvCscVIntrQSCr8_17build_script_main20AWS_LC_SYS_NO_PREFIX, symObjAddr: 0x224C2, symBinAddr: 0x1001C8972, symSize: 0x0 }
  - { offset: 0xA723, size: 0x8, addend: 0x0, symName: __RNvCscVIntrQSCr8_17build_script_main24AWS_LC_SYS_CMAKE_BUILDER, symObjAddr: 0xC621, symBinAddr: 0x1001B71F1, symSize: 0x0 }
  - { offset: 0xA73E, size: 0x8, addend: 0x0, symName: __RNvCscVIntrQSCr8_17build_script_main24AWS_LC_SYS_PREBUILT_NASM, symObjAddr: 0xC622, symBinAddr: 0x1001B71F2, symSize: 0x0 }
  - { offset: 0xA759, size: 0x8, addend: 0x0, symName: __RNvCscVIntrQSCr8_17build_script_main25AWS_LC_SYS_NO_U1_BINDINGS, symObjAddr: 0xC623, symBinAddr: 0x1001B71F3, symSize: 0x0 }
  - { offset: 0xA774, size: 0x8, addend: 0x0, symName: __RNvCscVIntrQSCr8_17build_script_main27AWS_LC_SYS_EFFECTIVE_TARGET, symObjAddr: 0xC628, symBinAddr: 0x1001B71F8, symSize: 0x0 }
  - { offset: 0xA78F, size: 0x8, addend: 0x0, symName: __RNvCscVIntrQSCr8_17build_script_main27AWS_LC_SYS_EXTERNAL_BINDGEN, symObjAddr: 0xC640, symBinAddr: 0x1001B7210, symSize: 0x0 }
  - { offset: 0xA7AA, size: 0x8, addend: 0x0, symName: __RNvCscVIntrQSCr8_17build_script_main28AWS_LC_SYS_NO_JITTER_ENTROPY, symObjAddr: 0xC641, symBinAddr: 0x1001B7211, symSize: 0x0 }
  - { offset: 0xA7C5, size: 0x8, addend: 0x0, symName: __RNvCscVIntrQSCr8_17build_script_main30AWS_LC_SYS_NO_PREGENERATED_SRC, symObjAddr: 0x224C3, symBinAddr: 0x1001C8973, symSize: 0x0 }
  - { offset: 0xA7E0, size: 0x8, addend: 0x0, symName: __RNvCscVIntrQSCr8_17build_script_main33AWS_LC_SYS_PREGENERATING_BINDINGS, symObjAddr: 0x224C4, symBinAddr: 0x1001C8974, symSize: 0x0 }
  - { offset: 0xA813, size: 0x8, addend: 0x0, symName: __RINvCscVIntrQSCr8_17build_script_main12emit_warningNtNtCslJiobkLta79_5alloc6string6StringEB2_, symObjAddr: 0x0, symBinAddr: 0x100003710, symSize: 0xC0 }
  - { offset: 0xA865, size: 0x8, addend: 0x0, symName: __RINvCscVIntrQSCr8_17build_script_main12emit_warningReEB2_, symObjAddr: 0xC0, symBinAddr: 0x1000037D0, symSize: 0xB0 }
  - { offset: 0xA8B7, size: 0x8, addend: 0x0, symName: __RINvCscVIntrQSCr8_17build_script_main12optional_envNtNtCslJiobkLta79_5alloc6string6StringEB2_, symObjAddr: 0x170, symBinAddr: 0x100003880, symSize: 0x300 }
  - { offset: 0xA989, size: 0x8, addend: 0x0, symName: __RINvCscVIntrQSCr8_17build_script_main12optional_envReEB2_, symObjAddr: 0x470, symBinAddr: 0x100003B80, symSize: 0x2E0 }
  - { offset: 0xAA5A, size: 0x8, addend: 0x0, symName: __RINvCscVIntrQSCr8_17build_script_main18set_env_for_targetReBT_EB2_, symObjAddr: 0x750, symBinAddr: 0x100003E60, symSize: 0x4D0 }
  - { offset: 0xABDC, size: 0x8, addend: 0x0, symName: __RINvCscVIntrQSCr8_17build_script_main18set_env_for_targetReNtNtCslJiobkLta79_5alloc6string6StringEB2_, symObjAddr: 0xC20, symBinAddr: 0x100004330, symSize: 0x4F0 }
  - { offset: 0xAD5E, size: 0x8, addend: 0x0, symName: __RINvCscVIntrQSCr8_17build_script_main18set_env_for_targetReRNtNtCslJiobkLta79_5alloc6string6StringEB2_, symObjAddr: 0x1110, symBinAddr: 0x100004820, symSize: 0x4C0 }
  - { offset: 0xAEE0, size: 0x8, addend: 0x0, symName: __RINvCscVIntrQSCr8_17build_script_main19optional_env_targetReEB2_, symObjAddr: 0x15D0, symBinAddr: 0x100004CE0, symSize: 0x300 }
  - { offset: 0xAFB1, size: 0x8, addend: 0x0, symName: __RINvCscVIntrQSCr8_17build_script_main25optional_env_crate_targetReEB2_, symObjAddr: 0x18D0, symBinAddr: 0x100004FE0, symSize: 0x5A0 }
  - { offset: 0xB100, size: 0x8, addend: 0x0, symName: __RINvCscVIntrQSCr8_17build_script_main34optional_env_optional_crate_targetReEB2_, symObjAddr: 0x1E70, symBinAddr: 0x100005580, symSize: 0x100 }
  - { offset: 0xB14B, size: 0x8, addend: 0x0, symName: __RINvCscVIntrQSCr8_17build_script_main7set_envReNtNtCslJiobkLta79_5alloc6string6StringEB2_, symObjAddr: 0x1F70, symBinAddr: 0x100005680, symSize: 0x2E0 }
  - { offset: 0xB229, size: 0x8, addend: 0x0, symName: __RINvCscVIntrQSCr8_17build_script_main9cargo_envReEB2_, symObjAddr: 0x2250, symBinAddr: 0x100005960, symSize: 0xA0 }
  - { offset: 0xB281, size: 0x8, addend: 0x0, symName: __RNCINvCscVIntrQSCr8_17build_script_main9cargo_envReE0B4_, symObjAddr: 0x22F0, symBinAddr: 0x100005A00, symSize: 0x90 }
  - { offset: 0xB2E6, size: 0x8, addend: 0x0, symName: __RNCNvCscVIntrQSCr8_17build_script_main11get_builder0B3_, symObjAddr: 0x2380, symBinAddr: 0x100005A90, symSize: 0x1D0 }
  - { offset: 0xB35E, size: 0x8, addend: 0x0, symName: __RNCNvCscVIntrQSCr8_17build_script_main11get_builders_0B3_, symObjAddr: 0x2550, symBinAddr: 0x100005C60, symSize: 0x1D0 }
  - { offset: 0xB42E, size: 0x8, addend: 0x0, symName: __RNCNvCscVIntrQSCr8_17build_script_main13parse_to_bool0B3_, symObjAddr: 0x2720, symBinAddr: 0x100005E30, symSize: 0x30 }
  - { offset: 0xB471, size: 0x8, addend: 0x0, symName: __RNCNvCscVIntrQSCr8_17build_script_main19setup_include_paths0B3_, symObjAddr: 0x2750, symBinAddr: 0x100005E60, symSize: 0x30 }
  - { offset: 0xB4B7, size: 0x8, addend: 0x0, symName: __RNCNvCscVIntrQSCr8_17build_script_main28get_aws_lc_sys_includes_path0B3_, symObjAddr: 0x2780, symBinAddr: 0x100005E90, symSize: 0x70 }
  - { offset: 0xB4F6, size: 0x8, addend: 0x0, symName: __RNvCscVIntrQSCr8_17build_script_main10crate_name, symObjAddr: 0x27F0, symBinAddr: 0x100005F00, symSize: 0x40 }
  - { offset: 0xB514, size: 0x8, addend: 0x0, symName: __RNvCscVIntrQSCr8_17build_script_main10initialize, symObjAddr: 0x2830, symBinAddr: 0x100005F40, symSize: 0x510 }
  - { offset: 0xB52E, size: 0x8, addend: 0x0, symName: __RNvCscVIntrQSCr8_17build_script_main10target_env, symObjAddr: 0x2D40, symBinAddr: 0x100006450, symSize: 0x40 }
  - { offset: 0xB54C, size: 0x8, addend: 0x0, symName: __RNvCscVIntrQSCr8_17build_script_main11current_dir, symObjAddr: 0x2D80, symBinAddr: 0x100006490, symSize: 0xC0 }
  - { offset: 0xB5A3, size: 0x8, addend: 0x0, symName: __RNvCscVIntrQSCr8_17build_script_main11get_builder, symObjAddr: 0x2E40, symBinAddr: 0x100006550, symSize: 0x6E0 }
  - { offset: 0xB740, size: 0x8, addend: 0x0, symName: __RNvCscVIntrQSCr8_17build_script_main11target_arch, symObjAddr: 0x3520, symBinAddr: 0x100006C30, symSize: 0x40 }
  - { offset: 0xB75E, size: 0x8, addend: 0x0, symName: __RNvCscVIntrQSCr8_17build_script_main12get_crate_cc, symObjAddr: 0x3560, symBinAddr: 0x100006C70, symSize: 0xA0 }
  - { offset: 0xB77C, size: 0x8, addend: 0x0, symName: __RNvCscVIntrQSCr8_17build_script_main12is_no_prefix, symObjAddr: 0x3600, symBinAddr: 0x100006D10, symSize: 0x40 }
  - { offset: 0xB79A, size: 0x8, addend: 0x0, symName: __RNvCscVIntrQSCr8_17build_script_main13get_crate_cxx, symObjAddr: 0x3640, symBinAddr: 0x100006D50, symSize: 0xA0 }
  - { offset: 0xB7B8, size: 0x8, addend: 0x0, symName: __RNvCscVIntrQSCr8_17build_script_main13is_crt_static, symObjAddr: 0x36E0, symBinAddr: 0x100006DF0, symSize: 0xA0 }
  - { offset: 0xB7ED, size: 0x8, addend: 0x0, symName: __RNvCscVIntrQSCr8_17build_script_main13parse_to_bool, symObjAddr: 0x3780, symBinAddr: 0x100006E90, symSize: 0x490 }
  - { offset: 0xB8A7, size: 0x8, addend: 0x0, symName: __RNvCscVIntrQSCr8_17build_script_main13prefix_string, symObjAddr: 0x3C10, symBinAddr: 0x100007320, symSize: 0x160 }
  - { offset: 0xB903, size: 0x8, addend: 0x0, symName: __RNvCscVIntrQSCr8_17build_script_main13target_vendor, symObjAddr: 0x3D70, symBinAddr: 0x100007480, symSize: 0x40 }
  - { offset: 0xB921, size: 0x8, addend: 0x0, symName: __RNvCscVIntrQSCr8_17build_script_main14emit_rustc_cfg, symObjAddr: 0x3DB0, symBinAddr: 0x1000074C0, symSize: 0x160 }
  - { offset: 0xB9BE, size: 0x8, addend: 0x0, symName: __RNvCscVIntrQSCr8_17build_script_main14handle_bindgen, symObjAddr: 0x3F10, symBinAddr: 0x100007620, symSize: 0x20 }
  - { offset: 0xB9FB, size: 0x8, addend: 0x0, symName: __RNvCscVIntrQSCr8_17build_script_main14verify_bindgen, symObjAddr: 0x3F30, symBinAddr: 0x100007640, symSize: 0x6A0 }
  - { offset: 0xBB2E, size: 0x8, addend: 0x0, symName: __RNvCscVIntrQSCr8_17build_script_main15env_var_to_bool, symObjAddr: 0x45D0, symBinAddr: 0x100007CE0, symSize: 0xE0 }
  - { offset: 0xBB6F, size: 0x8, addend: 0x0, symName: __RNvCscVIntrQSCr8_17build_script_main15execute_command, symObjAddr: 0x46B0, symBinAddr: 0x100007DC0, symSize: 0x560 }
  - { offset: 0xBBF0, size: 0x8, addend: 0x0, symName: __RNvCscVIntrQSCr8_17build_script_main15requested_c_std, symObjAddr: 0x4C10, symBinAddr: 0x100008320, symSize: 0x40 }
  - { offset: 0xBC0E, size: 0x8, addend: 0x0, symName: __RNvCscVIntrQSCr8_17build_script_main16effective_target, symObjAddr: 0x4C50, symBinAddr: 0x100008360, symSize: 0x1D0 }
  - { offset: 0xBC43, size: 0x8, addend: 0x0, symName: __RNvCscVIntrQSCr8_17build_script_main16get_crate_cflags, symObjAddr: 0x4E20, symBinAddr: 0x100008530, symSize: 0xA0 }
  - { offset: 0xBC61, size: 0x8, addend: 0x0, symName: __RNvCscVIntrQSCr8_17build_script_main16has_pregenerated, symObjAddr: 0x4EC0, symBinAddr: 0x1000085D0, symSize: 0x40 }
  - { offset: 0xBC7F, size: 0x8, addend: 0x0, symName: __RNvCscVIntrQSCr8_17build_script_main16is_cmake_builder, symObjAddr: 0x4F00, symBinAddr: 0x100008610, symSize: 0x60 }
  - { offset: 0xBC9D, size: 0x8, addend: 0x0, symName: __RNvCscVIntrQSCr8_17build_script_main17prepare_cargo_cfg, symObjAddr: 0x4F60, symBinAddr: 0x100008670, symSize: 0x10 }
  - { offset: 0xBCB7, size: 0x8, addend: 0x0, symName: __RNvCscVIntrQSCr8_17build_script_main17test_nasm_command, symObjAddr: 0x4F70, symBinAddr: 0x100008680, symSize: 0xB0 }
  - { offset: 0xBCF4, size: 0x8, addend: 0x0, symName: __RNvCscVIntrQSCr8_17build_script_main17use_prebuilt_nasm, symObjAddr: 0x5020, symBinAddr: 0x100008730, symSize: 0x180 }
  - { offset: 0xBD12, size: 0x8, addend: 0x0, symName: __RNvCscVIntrQSCr8_17build_script_main18prepare_clang_args, symObjAddr: 0x51A0, symBinAddr: 0x1000088B0, symSize: 0x520 }
  - { offset: 0xBDAB, size: 0x8, addend: 0x0, symName: __RNvCscVIntrQSCr8_17build_script_main18use_no_u1_bindings, symObjAddr: 0x56C0, symBinAddr: 0x100008DD0, symSize: 0x40 }
  - { offset: 0xBDC9, size: 0x8, addend: 0x0, symName: __RNvCscVIntrQSCr8_17build_script_main19allow_prebuilt_nasm, symObjAddr: 0x5700, symBinAddr: 0x100008E10, symSize: 0x40 }
  - { offset: 0xBDE7, size: 0x8, addend: 0x0, symName: __RNvCscVIntrQSCr8_17build_script_main19has_bindgen_feature, symObjAddr: 0x5740, symBinAddr: 0x100008E50, symSize: 0x20 }
  - { offset: 0xBE05, size: 0x8, addend: 0x0, symName: __RNvCscVIntrQSCr8_17build_script_main19is_bindgen_required, symObjAddr: 0x5760, symBinAddr: 0x100008E70, symSize: 0x90 }
  - { offset: 0xBE23, size: 0x8, addend: 0x0, symName: __RNvCscVIntrQSCr8_17build_script_main19setup_include_paths, symObjAddr: 0x57F0, symBinAddr: 0x100008F00, symSize: 0x950 }
  - { offset: 0xBF7D, size: 0x8, addend: 0x0, symName: __RNvCscVIntrQSCr8_17build_script_main19target_chokes_on_u1, symObjAddr: 0x6140, symBinAddr: 0x100009850, symSize: 0x100 }
  - { offset: 0xBF9B, size: 0x8, addend: 0x0, symName: __RNvCscVIntrQSCr8_17build_script_main20is_cranelift_backend, symObjAddr: 0x6240, symBinAddr: 0x100009950, symSize: 0x1F0 }
  - { offset: 0xBFFE, size: 0x8, addend: 0x0, symName: __RNvCscVIntrQSCr8_17build_script_main21env_crate_var_to_bool, symObjAddr: 0x6430, symBinAddr: 0x100009B40, symSize: 0xE0 }
  - { offset: 0xC03F, size: 0x8, addend: 0x0, symName: __RNvCscVIntrQSCr8_17build_script_main21get_rust_include_path, symObjAddr: 0x6510, symBinAddr: 0x100009C20, symSize: 0x40 }
  - { offset: 0xC06B, size: 0x8, addend: 0x0, symName: __RNvCscVIntrQSCr8_17build_script_main21test_clang_cl_command, symObjAddr: 0x6550, symBinAddr: 0x100009C60, symSize: 0x80 }
  - { offset: 0xC089, size: 0x8, addend: 0x0, symName: __RNvCscVIntrQSCr8_17build_script_main22disable_jitter_entropy, symObjAddr: 0x65D0, symBinAddr: 0x100009CE0, symSize: 0x40 }
  - { offset: 0xC0A7, size: 0x8, addend: 0x0, symName: __RNvCscVIntrQSCr8_17build_script_main22is_no_pregenerated_src, symObjAddr: 0x6610, symBinAddr: 0x100009D20, symSize: 0x40 }
  - { offset: 0xC0C5, size: 0x8, addend: 0x0, symName: __RNvCscVIntrQSCr8_17build_script_main23add_header_include_path, symObjAddr: 0x6650, symBinAddr: 0x100009D60, symSize: 0xC0 }
  - { offset: 0xC0FF, size: 0x8, addend: 0x0, symName: __RNvCscVIntrQSCr8_17build_script_main23get_aws_lc_include_path, symObjAddr: 0x6710, symBinAddr: 0x100009E20, symSize: 0xB0 }
  - { offset: 0xC12B, size: 0x8, addend: 0x0, symName: __RNvCscVIntrQSCr8_17build_script_main23invoke_external_bindgen, symObjAddr: 0x67C0, symBinAddr: 0x100009ED0, symSize: 0x1500 }
  - { offset: 0xC3CA, size: 0x8, addend: 0x0, symName: __RNvCscVIntrQSCr8_17build_script_main25is_pregenerating_bindings, symObjAddr: 0x7CC0, symBinAddr: 0x10000B3D0, symSize: 0x40 }
  - { offset: 0xC3E8, size: 0x8, addend: 0x0, symName: __RNvCscVIntrQSCr8_17build_script_main26get_generated_include_path, symObjAddr: 0x7D00, symBinAddr: 0x10000B410, symSize: 0x40 }
  - { offset: 0xC414, size: 0x8, addend: 0x0, symName: __RNvCscVIntrQSCr8_17build_script_main27target_has_prefixed_symbols, symObjAddr: 0x7D40, symBinAddr: 0x10000B450, symSize: 0x160 }
  - { offset: 0xC432, size: 0x8, addend: 0x0, symName: __RNvCscVIntrQSCr8_17build_script_main28get_aws_lc_sys_includes_path, symObjAddr: 0x7EA0, symBinAddr: 0x10000B5B0, symSize: 0x50 }
  - { offset: 0xC44F, size: 0x8, addend: 0x0, symName: __RNvCscVIntrQSCr8_17build_script_main29is_external_bindgen_requested, symObjAddr: 0x7EF0, symBinAddr: 0x10000B600, symSize: 0x40 }
  - { offset: 0xC46D, size: 0x8, addend: 0x0, symName: __RNvCscVIntrQSCr8_17build_script_main4main, symObjAddr: 0x7F30, symBinAddr: 0x10000B640, symSize: 0x1220 }
  - { offset: 0xC7D1, size: 0x8, addend: 0x0, symName: __RNvCscVIntrQSCr8_17build_script_main6target, symObjAddr: 0x9150, symBinAddr: 0x10000C860, symSize: 0x40 }
  - { offset: 0xC7EF, size: 0x8, addend: 0x0, symName: __RNvCscVIntrQSCr8_17build_script_main7out_dir, symObjAddr: 0x9190, symBinAddr: 0x10000C8A0, symSize: 0x50 }
  - { offset: 0xC80D, size: 0x8, addend: 0x0, symName: __RNvCscVIntrQSCr8_17build_script_main9is_no_asm, symObjAddr: 0x91E0, symBinAddr: 0x10000C8F0, symSize: 0x40 }
  - { offset: 0xC82B, size: 0x8, addend: 0x0, symName: __RNvCscVIntrQSCr8_17build_script_main9target_os, symObjAddr: 0x9220, symBinAddr: 0x10000C930, symSize: 0x40 }
  - { offset: 0xC84E, size: 0x8, addend: 0x0, symName: __RNvXCscVIntrQSCr8_17build_script_mainNtB2_13OutputLibTypeNtNtCsieiGu2EXtoJ_4core7default7Default7default, symObjAddr: 0x9680, symBinAddr: 0x10000CD90, symSize: 0x60 }
  - { offset: 0xC871, size: 0x8, addend: 0x0, symName: __RNvXsb_CscVIntrQSCr8_17build_script_mainNtB5_13OutputLibTypeNtNtCsieiGu2EXtoJ_4core3cmp9PartialEq2eqB5_, symObjAddr: 0x9700, symBinAddr: 0x10000CE10, symSize: 0x30 }
  - { offset: 0xC8EB, size: 0x8, addend: 0x0, symName: __RNvXsf_CscVIntrQSCr8_17build_script_mainNtB5_13CStdRequestedNtNtCsieiGu2EXtoJ_4core3fmt5Debug3fmtB5_, symObjAddr: 0x9730, symBinAddr: 0x10000CE40, symSize: 0x90 }
  - { offset: 0xDCEA, size: 0x8, addend: 0x0, symName: __RNvXs3_NtNtCsieiGu2EXtoJ_4core3str7patternNCNvCscVIntrQSCr8_17build_script_main13parse_to_bool0NtB5_11MultiCharEq7matchesBI_, symObjAddr: 0x96E0, symBinAddr: 0x10000CDF0, symSize: 0x20 }
  - { offset: 0xDD36, size: 0x8, addend: 0x0, symName: __RNvXsr_NtNtCsieiGu2EXtoJ_4core3str7patternNCNvCscVIntrQSCr8_17build_script_main13parse_to_bool0NtB5_7Pattern12is_prefix_ofBI_, symObjAddr: 0x97C0, symBinAddr: 0x10000CED0, symSize: 0x20 }
  - { offset: 0xE38D, size: 0x8, addend: 0x0, symName: __RNvMs0_CscVIntrQSCr8_17build_script_mainNtB5_9OutputLib7libname, symObjAddr: 0x9260, symBinAddr: 0x10000C970, symSize: 0x1A0 }
  - { offset: 0xE452, size: 0x8, addend: 0x0, symName: __RNvMs1_CscVIntrQSCr8_17build_script_mainNtB5_13CStdRequested8from_env, symObjAddr: 0x9400, symBinAddr: 0x10000CB10, symSize: 0x220 }
  - { offset: 0xE4E6, size: 0x8, addend: 0x0, symName: __RNvMs_CscVIntrQSCr8_17build_script_mainNtB4_13OutputLibType13rust_lib_type, symObjAddr: 0x9620, symBinAddr: 0x10000CD30, symSize: 0x60 }
  - { offset: 0xE939, size: 0x8, addend: 0x0, symName: __RINvMNtCscVIntrQSCr8_17build_script_main10cc_builderNtB3_11BuildOption17flag_if_supportedeEB5_, symObjAddr: 0x0, symBinAddr: 0x10000CF10, symSize: 0x170 }
  - { offset: 0xF267, size: 0x8, addend: 0x0, symName: __RNvNtCscVIntrQSCr8_17build_script_main10cc_builder16identify_sources, symObjAddr: 0x8590, symBinAddr: 0x1000154A0, symSize: 0xC50 }
  - { offset: 0xF307, size: 0x8, addend: 0x0, symName: __RNvXs0_NtCscVIntrQSCr8_17build_script_main10cc_builderNtB5_9CcBuilderNtB7_7Builder18check_dependencies, symObjAddr: 0x91E0, symBinAddr: 0x1000160F0, symSize: 0x1C0 }
  - { offset: 0xF335, size: 0x8, addend: 0x0, symName: __RNvXs0_NtCscVIntrQSCr8_17build_script_main10cc_builderNtB5_9CcBuilderNtB7_7Builder4name, symObjAddr: 0x93A0, symBinAddr: 0x1000162B0, symSize: 0x20 }
  - { offset: 0xF363, size: 0x8, addend: 0x0, symName: __RNvXs0_NtCscVIntrQSCr8_17build_script_main10cc_builderNtB5_9CcBuilderNtB7_7Builder5build, symObjAddr: 0x93C0, symBinAddr: 0x1000162D0, symSize: 0x360 }
  - { offset: 0xF3CC, size: 0x8, addend: 0x0, symName: __RNvXs2_NtCscVIntrQSCr8_17build_script_main10cc_builderNtB5_15CompilerFeatureNtNtCsieiGu2EXtoJ_4core3cmp9PartialEq2eqB7_, symObjAddr: 0x9720, symBinAddr: 0x100016630, symSize: 0x20 }
  - { offset: 0x10D16, size: 0x8, addend: 0x0, symName: __RNvMNtCsieiGu2EXtoJ_4core5sliceSNtNtCscVIntrQSCr8_17build_script_main10cc_builder15CompilerFeature8containsBy_, symObjAddr: 0x25E0, symBinAddr: 0x10000F4F0, symSize: 0x30 }
  - { offset: 0x10E8A, size: 0x8, addend: 0x0, symName: __RNvXsf_NtNtCsieiGu2EXtoJ_4core5slice3cmpNtNtCscVIntrQSCr8_17build_script_main10cc_builder15CompilerFeatureNtB5_13SliceContains14slice_containsBG_, symObjAddr: 0x9740, symBinAddr: 0x100016650, symSize: 0x60 }
  - { offset: 0x11C8D, size: 0x8, addend: 0x0, symName: __RINvMNtCscVIntrQSCr8_17build_script_main10cc_builderNtB3_11BuildOption17flag_if_supportedeEB5_, symObjAddr: 0x0, symBinAddr: 0x10000CF10, symSize: 0x170 }
  - { offset: 0x11CC6, size: 0x8, addend: 0x0, symName: __RINvMNtCscVIntrQSCr8_17build_script_main10cc_builderNtB3_11BuildOption3stdeEB5_, symObjAddr: 0x170, symBinAddr: 0x10000D080, symSize: 0x60 }
  - { offset: 0x11CFE, size: 0x8, addend: 0x0, symName: __RINvMNtCscVIntrQSCr8_17build_script_main10cc_builderNtB3_11BuildOption4flagNtNtCslJiobkLta79_5alloc6string6StringEB5_, symObjAddr: 0x1D0, symBinAddr: 0x10000D0E0, symSize: 0x60 }
  - { offset: 0x11D29, size: 0x8, addend: 0x0, symName: __RINvMNtCscVIntrQSCr8_17build_script_main10cc_builderNtB3_11BuildOption4flageEB5_, symObjAddr: 0x230, symBinAddr: 0x10000D140, symSize: 0x60 }
  - { offset: 0x11D54, size: 0x8, addend: 0x0, symName: __RINvMNtCscVIntrQSCr8_17build_script_main10cc_builderNtB3_11BuildOption6defineeeEB5_, symObjAddr: 0x290, symBinAddr: 0x10000D1A0, symSize: 0xC0 }
  - { offset: 0x11D96, size: 0x8, addend: 0x0, symName: __RINvMNtCscVIntrQSCr8_17build_script_main10cc_builderNtB3_11BuildOption7includeNtNtCsHUR1vrdMJt_3std4path7PathBufEB5_, symObjAddr: 0x350, symBinAddr: 0x10000D260, symSize: 0x60 }
  - { offset: 0x11DCF, size: 0x8, addend: 0x0, symName: __RINvMs_NtCscVIntrQSCr8_17build_script_main10cc_builderNtB5_9CcBuilder14compiler_checkINtNtCslJiobkLta79_5alloc3vec3VecNtNtB1q_6string6StringEB1S_EB7_, symObjAddr: 0x3B0, symBinAddr: 0x10000D2C0, symSize: 0xC30 }
  - { offset: 0x1204F, size: 0x8, addend: 0x0, symName: __RINvMs_NtCscVIntrQSCr8_17build_script_main10cc_builderNtB5_9CcBuilder14compiler_checkINtNtCslJiobkLta79_5alloc3vec3VecReEB1S_EB7_, symObjAddr: 0xFE0, symBinAddr: 0x10000DEF0, symSize: 0xC30 }
  - { offset: 0x12307, size: 0x8, addend: 0x0, symName: __RNvMNtCscVIntrQSCr8_17build_script_main10cc_builderNtB2_11BuildOption10apply_nasm, symObjAddr: 0x1C10, symBinAddr: 0x10000EB20, symSize: 0x130 }
  - { offset: 0x12554, size: 0x8, addend: 0x0, symName: __RNvMNtCscVIntrQSCr8_17build_script_main10cc_builderNtB2_11BuildOption11apply_cmake, symObjAddr: 0x1D40, symBinAddr: 0x10000EC50, symSize: 0x760 }
  - { offset: 0x127B8, size: 0x8, addend: 0x0, symName: __RNvMNtCscVIntrQSCr8_17build_script_main10cc_builderNtB2_11BuildOption8apply_cc, symObjAddr: 0x24A0, symBinAddr: 0x10000F3B0, symSize: 0x140 }
  - { offset: 0x12870, size: 0x8, addend: 0x0, symName: __RNvMs_NtCscVIntrQSCr8_17build_script_main10cc_builderNtB4_9CcBuilder11add_defines, symObjAddr: 0x2610, symBinAddr: 0x10000F520, symSize: 0x3F0 }
  - { offset: 0x128EF, size: 0x8, addend: 0x0, symName: __RNvMs_NtCscVIntrQSCr8_17build_script_main10cc_builderNtB4_9CcBuilder12add_includes, symObjAddr: 0x2A00, symBinAddr: 0x10000F910, symSize: 0x820 }
  - { offset: 0x1293F, size: 0x8, addend: 0x0, symName: __RNvMs_NtCscVIntrQSCr8_17build_script_main10cc_builderNtB4_9CcBuilder12memcmp_check, symObjAddr: 0x3220, symBinAddr: 0x100010130, symSize: 0xE80 }
  - { offset: 0x12BE5, size: 0x8, addend: 0x0, symName: __RNvMs_NtCscVIntrQSCr8_17build_script_main10cc_builderNtB4_9CcBuilder13add_all_files, symObjAddr: 0x40A0, symBinAddr: 0x100010FB0, symSize: 0x1720 }
  - { offset: 0x12FF1, size: 0x8, addend: 0x0, symName: __RNvMs_NtCscVIntrQSCr8_17build_script_main10cc_builderNtB4_9CcBuilder13build_library, symObjAddr: 0x57C0, symBinAddr: 0x1000126D0, symSize: 0x240 }
  - { offset: 0x1308E, size: 0x8, addend: 0x0, symName: __RNvMs_NtCscVIntrQSCr8_17build_script_main10cc_builderNtB4_9CcBuilder14create_builder, symObjAddr: 0x5A00, symBinAddr: 0x100012910, symSize: 0x1D0 }
  - { offset: 0x13115, size: 0x8, addend: 0x0, symName: __RNvMs_NtCscVIntrQSCr8_17build_script_main10cc_builderNtB4_9CcBuilder15prepare_builder, symObjAddr: 0x5BD0, symBinAddr: 0x100012AE0, symSize: 0x420 }
  - { offset: 0x131BB, size: 0x8, addend: 0x0, symName: __RNvMs_NtCscVIntrQSCr8_17build_script_main10cc_builderNtB4_9CcBuilder19run_compiler_checks, symObjAddr: 0x5FF0, symBinAddr: 0x100012F00, symSize: 0x570 }
  - { offset: 0x13204, size: 0x8, addend: 0x0, symName: __RNvMs_NtCscVIntrQSCr8_17build_script_main10cc_builderNtB4_9CcBuilder29collect_cc_only_build_options, symObjAddr: 0x6560, symBinAddr: 0x100013470, symSize: 0x400 }
  - { offset: 0x1327B, size: 0x8, addend: 0x0, symName: __RNvMs_NtCscVIntrQSCr8_17build_script_main10cc_builderNtB4_9CcBuilder30prepare_jitter_entropy_builder, symObjAddr: 0x6960, symBinAddr: 0x100013870, symSize: 0x810 }
  - { offset: 0x1335D, size: 0x8, addend: 0x0, symName: __RNvMs_NtCscVIntrQSCr8_17build_script_main10cc_builderNtB4_9CcBuilder31collect_universal_build_options, symObjAddr: 0x7170, symBinAddr: 0x100014080, symSize: 0x11A0 }
  - { offset: 0x13630, size: 0x8, addend: 0x0, symName: __RNvMs_NtCscVIntrQSCr8_17build_script_main10cc_builderNtB4_9CcBuilder35build_s2n_bignum_source_feature_map, symObjAddr: 0x8310, symBinAddr: 0x100015220, symSize: 0x120 }
  - { offset: 0x1365B, size: 0x8, addend: 0x0, symName: __RNvMs_NtCscVIntrQSCr8_17build_script_main10cc_builderNtB4_9CcBuilder3new, symObjAddr: 0x8430, symBinAddr: 0x100015340, symSize: 0x160 }
  - { offset: 0x13A67, size: 0x8, addend: 0x0, symName: __RINvMNtCscVIntrQSCr8_17build_script_main12nasm_builderNtB3_11NasmBuilder4fileNtNtCsHUR1vrdMJt_3std4path7PathBufEB5_, symObjAddr: 0x0, symBinAddr: 0x1000166B0, symSize: 0xA0 }
  - { offset: 0x1503D, size: 0x8, addend: 0x0, symName: __RINvYINtNtNtCsieiGu2EXtoJ_4core3str4iter5SplitcENtNtNtNtBa_4iter6traits8iterator8Iterator8try_foldINtNtNtBa_3num7nonzero7NonZerojENCNvXs_NvBK_10advance_byB3_NtB2b_13SpecAdvanceBy15spec_advance_by0INtNtBa_6option6OptionB1y_EECscVIntrQSCr8_17build_script_main, symObjAddr: 0xD80, symBinAddr: 0x100017430, symSize: 0x180 }
  - { offset: 0x150FB, size: 0x8, addend: 0x0, symName: __RNvXs_NvNtNtNtNtCsieiGu2EXtoJ_4core4iter6traits8iterator8Iterator10advance_byINtNtNtBe_3str4iter5SplitcENtB4_13SpecAdvanceBy15spec_advance_byCscVIntrQSCr8_17build_script_main, symObjAddr: 0x6FF0, symBinAddr: 0x10001D6A0, symSize: 0x90 }
  - { offset: 0x151B8, size: 0x8, addend: 0x0, symName: __RNvYINtNtNtCsieiGu2EXtoJ_4core3str4iter5SplitcENtNtNtNtB9_4iter6traits8iterator8Iterator10advance_byCscVIntrQSCr8_17build_script_main, symObjAddr: 0x70B0, symBinAddr: 0x10001D760, symSize: 0x20 }
  - { offset: 0x151FE, size: 0x8, addend: 0x0, symName: __RNvYINtNtNtCsieiGu2EXtoJ_4core3str4iter5SplitcENtNtNtNtB9_4iter6traits8iterator8Iterator3nthCscVIntrQSCr8_17build_script_main, symObjAddr: 0x70D0, symBinAddr: 0x10001D780, symSize: 0x80 }
  - { offset: 0x152DA, size: 0x8, addend: 0x0, symName: __RNvXNtNtNtCsieiGu2EXtoJ_4core4iter6traits7collectNtNtNtB8_3str4iter15SplitWhitespaceNtB2_12IntoIterator9into_iterCscVIntrQSCr8_17build_script_main, symObjAddr: 0x67E0, symBinAddr: 0x10001CE90, symSize: 0x30 }
  - { offset: 0x157A0, size: 0x8, addend: 0x0, symName: __RNvXs3_NtNtCsieiGu2EXtoJ_4core3str4iterNtB5_11CharIndicesNtNtNtNtB9_4iter6traits8iterator8Iterator4nextCscVIntrQSCr8_17build_script_main, symObjAddr: 0x6810, symBinAddr: 0x10001CEC0, symSize: 0x110 }
  - { offset: 0x159C1, size: 0x8, addend: 0x0, symName: __RNvXsz_NtNtCsieiGu2EXtoJ_4core3str4iterNtB5_15SplitWhitespaceNtNtNtNtB9_4iter6traits8iterator8Iterator4nextCscVIntrQSCr8_17build_script_main, symObjAddr: 0x7080, symBinAddr: 0x10001D730, symSize: 0x30 }
  - { offset: 0x15FE4, size: 0x8, addend: 0x0, symName: __RNvNtCscVIntrQSCr8_17build_script_main13cmake_builder18find_cmake_command, symObjAddr: 0x62A0, symBinAddr: 0x10001C950, symSize: 0x4F0 }
  - { offset: 0x16054, size: 0x8, addend: 0x0, symName: __RNvNtCscVIntrQSCr8_17build_script_main13cmake_builder25test_prebuilt_nasm_script, symObjAddr: 0x6790, symBinAddr: 0x10001CE40, symSize: 0x50 }
  - { offset: 0x16085, size: 0x8, addend: 0x0, symName: __RNvXs_NtCscVIntrQSCr8_17build_script_main13cmake_builderNtB4_12CmakeBuilderNtB6_7Builder18check_dependencies, symObjAddr: 0x6920, symBinAddr: 0x10001CFD0, symSize: 0x450 }
  - { offset: 0x160E1, size: 0x8, addend: 0x0, symName: __RNvXs_NtCscVIntrQSCr8_17build_script_main13cmake_builderNtB4_12CmakeBuilderNtB6_7Builder4name, symObjAddr: 0x6D70, symBinAddr: 0x10001D420, symSize: 0x20 }
  - { offset: 0x1610F, size: 0x8, addend: 0x0, symName: __RNvXs_NtCscVIntrQSCr8_17build_script_main13cmake_builderNtB4_12CmakeBuilderNtB6_7Builder5build, symObjAddr: 0x6D90, symBinAddr: 0x10001D440, symSize: 0x260 }
  - { offset: 0x1754C, size: 0x8, addend: 0x0, symName: __RINvMNtCscVIntrQSCr8_17build_script_main12nasm_builderNtB3_11NasmBuilder4fileNtNtCsHUR1vrdMJt_3std4path7PathBufEB5_, symObjAddr: 0x0, symBinAddr: 0x1000166B0, symSize: 0xA0 }
  - { offset: 0x175AD, size: 0x8, addend: 0x0, symName: __RINvMNtCscVIntrQSCr8_17build_script_main12nasm_builderNtB3_11NasmBuilder7includeRNtNtCsHUR1vrdMJt_3std4path4PathEB5_, symObjAddr: 0xA0, symBinAddr: 0x100016750, symSize: 0x90 }
  - { offset: 0x176AE, size: 0x8, addend: 0x0, symName: __RINvMNtNtCsieiGu2EXtoJ_4core3fmt2rtNtB3_8Argument11new_displayINtNtCslJiobkLta79_5alloc5boxed3BoxeEECscVIntrQSCr8_17build_script_main, symObjAddr: 0x130, symBinAddr: 0x1000167E0, symSize: 0x30 }
  - { offset: 0x1771A, size: 0x8, addend: 0x0, symName: __RINvMNtNtCsieiGu2EXtoJ_4core3fmt2rtNtB3_8Argument11new_displayRNtNtCsHUR1vrdMJt_3std4path7DisplayECscVIntrQSCr8_17build_script_main, symObjAddr: 0x160, symBinAddr: 0x100016810, symSize: 0x30 }
  - { offset: 0x17759, size: 0x8, addend: 0x0, symName: __RINvMNtNtCsieiGu2EXtoJ_4core3fmt2rtNtB3_8Argument11new_displaybECscVIntrQSCr8_17build_script_main, symObjAddr: 0x190, symBinAddr: 0x100016840, symSize: 0x30 }
  - { offset: 0x17791, size: 0x8, addend: 0x0, symName: __RINvMNtNtCsieiGu2EXtoJ_4core3fmt2rtNtB3_8Argument9new_debugNtCscVIntrQSCr8_17build_script_main13CStdRequestedEBX_, symObjAddr: 0x1C0, symBinAddr: 0x100016870, symSize: 0x30 }
  - { offset: 0x177D6, size: 0x8, addend: 0x0, symName: __RINvMNtNtCsieiGu2EXtoJ_4core3fmt2rtNtB3_8Argument9new_debugRINtNtB7_6option6OptionNtNtCslJiobkLta79_5alloc6string6StringEECscVIntrQSCr8_17build_script_main, symObjAddr: 0x1F0, symBinAddr: 0x1000168A0, symSize: 0x30 }
  - { offset: 0x17839, size: 0x8, addend: 0x0, symName: __RINvMNtNtCsieiGu2EXtoJ_4core3fmt2rtNtB3_8Argument9new_debugRINtNtB7_6result6ResultINtNtCslJiobkLta79_5alloc3vec3VecNtNtCsHUR1vrdMJt_3std4path7PathBufENtCseYC8vFNOjrM_2cc5ErrorEECscVIntrQSCr8_17build_script_main, symObjAddr: 0x220, symBinAddr: 0x1000168D0, symSize: 0x30 }
  - { offset: 0x17898, size: 0x8, addend: 0x0, symName: __RINvMNtNtCsieiGu2EXtoJ_4core3fmt2rtNtB3_8Argument9new_debugRSRNtNtNtCsHUR1vrdMJt_3std3ffi6os_str5OsStrECscVIntrQSCr8_17build_script_main, symObjAddr: 0x250, symBinAddr: 0x100016900, symSize: 0x30 }
  - { offset: 0x17BD3, size: 0x8, addend: 0x0, symName: __RNCINvNtCsjK30CmJ87bX_9hashbrown3map14equivalent_keyNtNtCslJiobkLta79_5alloc6string6StringBO_NtNtCscVIntrQSCr8_17build_script_main10cc_builder15CompilerFeatureE0B1x_, symObjAddr: 0xF30, symBinAddr: 0x1000175E0, symSize: 0x20 }
  - { offset: 0x17DF7, size: 0x8, addend: 0x0, symName: __RNCINvNtCsjK30CmJ87bX_9hashbrown3map11make_hasherNtNtCslJiobkLta79_5alloc6string6StringNtNtCscVIntrQSCr8_17build_script_main10cc_builder15CompilerFeatureNtNtNtCsHUR1vrdMJt_3std4hash6random11RandomStateE0B1r_, symObjAddr: 0xF00, symBinAddr: 0x1000175B0, symSize: 0x30 }
  - { offset: 0x1818D, size: 0x8, addend: 0x0, symName: __RINvMs1_NtCsjK30CmJ87bX_9hashbrown3mapINtB6_7HashMapNtNtCslJiobkLta79_5alloc6string6StringNtNtCscVIntrQSCr8_17build_script_main10cc_builder15CompilerFeatureNtNtNtCsHUR1vrdMJt_3std4hash6random11RandomStateE9get_innerBO_EB1u_, symObjAddr: 0x280, symBinAddr: 0x100016930, symSize: 0xF0 }
  - { offset: 0x18395, size: 0x8, addend: 0x0, symName: __RINvMs_NtNtCsieiGu2EXtoJ_4core3fmt2rtNtB7_9Arguments6new_v1Kj4_Kj3_ECscVIntrQSCr8_17build_script_main, symObjAddr: 0x370, symBinAddr: 0x100016A20, symSize: 0x40 }
  - { offset: 0x183F9, size: 0x8, addend: 0x0, symName: __RINvMs_NtNtCsieiGu2EXtoJ_4core3fmt2rtNtB7_9Arguments6new_v1Kj5_Kj4_ECscVIntrQSCr8_17build_script_main, symObjAddr: 0x3B0, symBinAddr: 0x100016A60, symSize: 0x40 }
  - { offset: 0x1845D, size: 0x8, addend: 0x0, symName: __RINvMs_NtNtCsieiGu2EXtoJ_4core3fmt2rtNtB7_9Arguments6new_v1Kj7_Kj6_ECscVIntrQSCr8_17build_script_main, symObjAddr: 0x3F0, symBinAddr: 0x100016AA0, symSize: 0x40 }
  - { offset: 0x18497, size: 0x8, addend: 0x0, symName: __RINvNtCsPjO8QFnvM3_8fs_extra4file4copyRNtNtCslJiobkLta79_5alloc6string6StringRNtNtCsHUR1vrdMJt_3std4path7PathBufECscVIntrQSCr8_17build_script_main, symObjAddr: 0x430, symBinAddr: 0x100016AE0, symSize: 0x950 }
  - { offset: 0x188CA, size: 0x8, addend: 0x0, symName: __RNvMNtCscVIntrQSCr8_17build_script_main12nasm_builderNtB2_11NasmBuilder21compile_intermediates, symObjAddr: 0xF50, symBinAddr: 0x100017600, symSize: 0x1740 }
  - { offset: 0x18C75, size: 0x8, addend: 0x0, symName: __RNvMNtCscVIntrQSCr8_17build_script_main12nasm_builderNtB2_11NasmBuilder3new, symObjAddr: 0x2690, symBinAddr: 0x100018D40, symSize: 0x1F0 }
  - { offset: 0x18CA7, size: 0x8, addend: 0x0, symName: __RNvMNtCscVIntrQSCr8_17build_script_main12nasm_builderNtB2_11NasmBuilder4flag, symObjAddr: 0x2880, symBinAddr: 0x100018F30, symSize: 0x50 }
  - { offset: 0x18CD7, size: 0x8, addend: 0x0, symName: __RNvMNtCscVIntrQSCr8_17build_script_main12nasm_builderNtB2_11NasmBuilder6define, symObjAddr: 0x28D0, symBinAddr: 0x100018F80, symSize: 0x100 }
  - { offset: 0x18D22, size: 0x8, addend: 0x0, symName: __RNvMNtCscVIntrQSCr8_17build_script_main13cmake_builderNtB2_12CmakeBuilder13build_library, symObjAddr: 0x29D0, symBinAddr: 0x100019080, symSize: 0xC0 }
  - { offset: 0x190C0, size: 0x8, addend: 0x0, symName: __RNvMNtCscVIntrQSCr8_17build_script_main13cmake_builderNtB2_12CmakeBuilder16get_cmake_config, symObjAddr: 0x2A90, symBinAddr: 0x100019140, symSize: 0x30 }
  - { offset: 0x190EF, size: 0x8, addend: 0x0, symName: __RNvMNtCscVIntrQSCr8_17build_script_main13cmake_builderNtB2_12CmakeBuilder17configure_android, symObjAddr: 0x2AC0, symBinAddr: 0x100019170, symSize: 0x1C0 }
  - { offset: 0x191A8, size: 0x8, addend: 0x0, symName: __RNvMNtCscVIntrQSCr8_17build_script_main13cmake_builderNtB2_12CmakeBuilder17configure_windows, symObjAddr: 0x2C80, symBinAddr: 0x100019330, symSize: 0x550 }
  - { offset: 0x19264, size: 0x8, addend: 0x0, symName: __RNvMNtCscVIntrQSCr8_17build_script_main13cmake_builderNtB2_12CmakeBuilder19artifact_output_dir, symObjAddr: 0x31D0, symBinAddr: 0x100019880, symSize: 0xC0 }
  - { offset: 0x192C9, size: 0x8, addend: 0x0, symName: __RNvMNtCscVIntrQSCr8_17build_script_main13cmake_builderNtB2_12CmakeBuilder19prepare_cmake_build, symObjAddr: 0x3290, symBinAddr: 0x100019940, symSize: 0x13D0 }
  - { offset: 0x193F5, size: 0x8, addend: 0x0, symName: __RNvMNtCscVIntrQSCr8_17build_script_main13cmake_builderNtB2_12CmakeBuilder22configure_open_harmony, symObjAddr: 0x4660, symBinAddr: 0x10001AD10, symSize: 0xB20 }
  - { offset: 0x19546, size: 0x8, addend: 0x0, symName: __RNvMNtCscVIntrQSCr8_17build_script_main13cmake_builderNtB2_12CmakeBuilder23configure_prebuilt_nasm, symObjAddr: 0x5180, symBinAddr: 0x10001B830, symSize: 0x2B0 }
  - { offset: 0x195BC, size: 0x8, addend: 0x0, symName: __RNvMNtCscVIntrQSCr8_17build_script_main13cmake_builderNtB2_12CmakeBuilder27select_prebuilt_nasm_script, symObjAddr: 0x5430, symBinAddr: 0x10001BAE0, symSize: 0x5A0 }
  - { offset: 0x196A9, size: 0x8, addend: 0x0, symName: __RNvMNtCscVIntrQSCr8_17build_script_main13cmake_builderNtB2_12CmakeBuilder29apply_universal_build_options, symObjAddr: 0x59D0, symBinAddr: 0x10001C080, symSize: 0x2A0 }
  - { offset: 0x19755, size: 0x8, addend: 0x0, symName: __RNvMNtCscVIntrQSCr8_17build_script_main13cmake_builderNtB2_12CmakeBuilder33preserve_cflag_optimization_flags, symObjAddr: 0x5C70, symBinAddr: 0x10001C320, symSize: 0x2C0 }
  - { offset: 0x1980A, size: 0x8, addend: 0x0, symName: __RNvMNtCscVIntrQSCr8_17build_script_main13cmake_builderNtB2_12CmakeBuilder3new, symObjAddr: 0x5F30, symBinAddr: 0x10001C5E0, symSize: 0x90 }
  - { offset: 0x1986D, size: 0x8, addend: 0x0, symName: __RNvMNtNtNtCsjK30CmJ87bX_9hashbrown7control5group4sse2NtB2_5Group44convert_special_to_empty_and_full_to_deletedCscVIntrQSCr8_17build_script_main, symObjAddr: 0x5FC0, symBinAddr: 0x10001C670, symSize: 0xD0 }
  - { offset: 0x19993, size: 0x8, addend: 0x0, symName: __RNvMs1_NtCsjK30CmJ87bX_9hashbrown3mapINtB5_7HashMapNtNtCslJiobkLta79_5alloc6string6StringNtNtCscVIntrQSCr8_17build_script_main10cc_builder15CompilerFeatureNtNtNtCsHUR1vrdMJt_3std4hash6random11RandomStateE6insertB1t_, symObjAddr: 0x6090, symBinAddr: 0x10001C740, symSize: 0x210 }
  - { offset: 0x19D98, size: 0x8, addend: 0x0, symName: __RINvMsi_NtCslJiobkLta79_5alloc3vecINtB6_3VecNtNtNtCsHUR1vrdMJt_3std3ffi6os_str8OsStringE14extend_trustedINtNtNtNtCsieiGu2EXtoJ_4core4iter8adapters3map3MapINtNtNtB1N_5slice4iter4IterNtNtB8_6string6StringENvYRB2T_INtNtB1N_7convert4IntoBG_E4intoEECscVIntrQSCr8_17build_script_main, symObjAddr: 0x0, symBinAddr: 0x10001D800, symSize: 0x1A0 }
  - { offset: 0x1B063, size: 0x8, addend: 0x0, symName: __RNvXs19_NtCsieiGu2EXtoJ_4core3fmtRINtNtCslJiobkLta79_5alloc3vec3VecNtNtCsHUR1vrdMJt_3std4path7PathBufENtB6_5Debug3fmtCscVIntrQSCr8_17build_script_main, symObjAddr: 0x2210, symBinAddr: 0x10001FA10, symSize: 0x20 }
  - { offset: 0x1D19C, size: 0x8, addend: 0x0, symName: __RINvXsd_NtCslJiobkLta79_5alloc3vecINtB6_3VecNtNtCsHUR1vrdMJt_3std4path7PathBufEINtNtNtNtCsieiGu2EXtoJ_4core4iter6traits7collect12FromIteratorBG_E9from_iterNtNtBK_3env10SplitPathsECscVIntrQSCr8_17build_script_main, symObjAddr: 0xA90, symBinAddr: 0x10001E290, symSize: 0x40 }
  - { offset: 0x1D1DD, size: 0x8, addend: 0x0, symName: __RINvXsd_NtCslJiobkLta79_5alloc3vecINtB6_3VecNtNtNtCsHUR1vrdMJt_3std3ffi6os_str8OsStringEINtNtNtNtCsieiGu2EXtoJ_4core4iter6traits7collect12FromIteratorBG_E9from_iterINtNtNtB1v_8adapters3map3MapINtNtNtB1x_5slice4iter4IterReENvYBG_INtNtB1x_7convert4FromRB3v_E4fromEECscVIntrQSCr8_17build_script_main, symObjAddr: 0xAD0, symBinAddr: 0x10001E2D0, symSize: 0x60 }
  - { offset: 0x1D21D, size: 0x8, addend: 0x0, symName: __RINvXsd_NtCslJiobkLta79_5alloc3vecINtB6_3VecRNtNtNtCsHUR1vrdMJt_3std3ffi6os_str5OsStrEINtNtNtNtCsieiGu2EXtoJ_4core4iter6traits7collect12FromIteratorBG_E9from_iterINtNtNtB1t_8adapters3map3MapINtNtNtB1v_5slice4iter4IterNtBJ_8OsStringENvMs0_BJ_B3t_9as_os_strEECscVIntrQSCr8_17build_script_main, symObjAddr: 0xB30, symBinAddr: 0x10001E330, symSize: 0x60 }
  - { offset: 0x1D263, size: 0x8, addend: 0x0, symName: __RINvXsh_NtCslJiobkLta79_5alloc3vecINtB6_3VecNtNtCsHUR1vrdMJt_3std4path7PathBufEINtNtNtNtCsieiGu2EXtoJ_4core4iter6traits7collect6ExtendBG_E6extendBw_ECscVIntrQSCr8_17build_script_main, symObjAddr: 0xB90, symBinAddr: 0x10001E390, symSize: 0x40 }
  - { offset: 0x1D2B8, size: 0x8, addend: 0x0, symName: __RINvXsh_NtCslJiobkLta79_5alloc3vecINtB6_3VecNtNtNtCsHUR1vrdMJt_3std3ffi6os_str8OsStringEINtNtNtNtCsieiGu2EXtoJ_4core4iter6traits7collect6ExtendBG_E6extendINtNtNtB1v_8adapters3map3MapINtNtNtB1x_5slice4iter4IterNtNtB8_6string6StringENvYRB3l_INtNtB1x_7convert4IntoBG_E4intoEECscVIntrQSCr8_17build_script_main, symObjAddr: 0xBD0, symBinAddr: 0x10001E3D0, symSize: 0x50 }
  - { offset: 0x1D30C, size: 0x8, addend: 0x0, symName: __RINvXsh_NtCslJiobkLta79_5alloc3vecINtB6_3VecReEINtNtNtNtCsieiGu2EXtoJ_4core4iter6traits7collect6ExtendBG_E6extendABG_j2_ECscVIntrQSCr8_17build_script_main, symObjAddr: 0xC20, symBinAddr: 0x10001E420, symSize: 0x40 }
  - { offset: 0x1D361, size: 0x8, addend: 0x0, symName: __RINvXsh_NtCslJiobkLta79_5alloc3vecINtB6_3VecReEINtNtNtNtCsieiGu2EXtoJ_4core4iter6traits7collect6ExtendBG_E6extendABG_j3_ECscVIntrQSCr8_17build_script_main, symObjAddr: 0xC60, symBinAddr: 0x10001E460, symSize: 0x40 }
  - { offset: 0x1D3B6, size: 0x8, addend: 0x0, symName: __RINvXsh_NtCslJiobkLta79_5alloc3vecINtB6_3VecReEINtNtNtNtCsieiGu2EXtoJ_4core4iter6traits7collect6ExtendBG_E6extendABG_j6_ECscVIntrQSCr8_17build_script_main, symObjAddr: 0xCA0, symBinAddr: 0x10001E4A0, symSize: 0x40 }
  - { offset: 0x1D40B, size: 0x8, addend: 0x0, symName: __RINvXsh_NtCslJiobkLta79_5alloc3vecINtB6_3VecReEINtNtNtNtCsieiGu2EXtoJ_4core4iter6traits7collect6ExtendBG_E6extendBw_ECscVIntrQSCr8_17build_script_main, symObjAddr: 0xCE0, symBinAddr: 0x10001E4E0, symSize: 0x40 }
  - { offset: 0x1D46B, size: 0x8, addend: 0x0, symName: __RNCINvMsi_NtCslJiobkLta79_5alloc3vecINtB8_3VecNtNtNtCsHUR1vrdMJt_3std3ffi6os_str8OsStringE14extend_trustedINtNtNtNtCsieiGu2EXtoJ_4core4iter8adapters3map3MapINtNtNtB1P_5slice4iter4IterNtNtBa_6string6StringENvYRB2V_INtNtB1P_7convert4IntoBI_E4intoEE0CscVIntrQSCr8_17build_script_main, symObjAddr: 0xD20, symBinAddr: 0x10001E520, symSize: 0x40 }
  - { offset: 0x1D513, size: 0x8, addend: 0x0, symName: __RNCINvMsi_NtCslJiobkLta79_5alloc3vecINtB8_3VecNtNtNtCsHUR1vrdMJt_3std3ffi6os_str8OsStringE14extend_trustedINtNtNtNtCsieiGu2EXtoJ_4core4iter8adapters3map3MapINtNtNtB1P_5slice4iter4IterReENvYBI_INtNtB1P_7convert4FromRB2V_E4fromEE0CscVIntrQSCr8_17build_script_main, symObjAddr: 0xD60, symBinAddr: 0x10001E560, symSize: 0x40 }
  - { offset: 0x1D5BB, size: 0x8, addend: 0x0, symName: __RNCINvMsi_NtCslJiobkLta79_5alloc3vecINtB8_3VecRNtNtNtCsHUR1vrdMJt_3std3ffi6os_str5OsStrE14extend_trustedINtNtNtNtCsieiGu2EXtoJ_4core4iter8adapters3map3MapINtNtNtB1N_5slice4iter4IterNtBL_8OsStringENvMs0_BL_B2T_9as_os_strEE0CscVIntrQSCr8_17build_script_main, symObjAddr: 0xDA0, symBinAddr: 0x10001E5A0, symSize: 0x40 }
  - { offset: 0x1D678, size: 0x8, addend: 0x0, symName: __RNCINvMsi_NtCslJiobkLta79_5alloc3vecINtB8_3VecReE14extend_trustedINtNtNtCsieiGu2EXtoJ_4core5array4iter8IntoIterBI_Kj2_EE0CscVIntrQSCr8_17build_script_main, symObjAddr: 0xDE0, symBinAddr: 0x10001E5E0, symSize: 0x40 }
  - { offset: 0x1D735, size: 0x8, addend: 0x0, symName: __RNCINvMsi_NtCslJiobkLta79_5alloc3vecINtB8_3VecReE14extend_trustedINtNtNtCsieiGu2EXtoJ_4core5array4iter8IntoIterBI_Kj3_EE0CscVIntrQSCr8_17build_script_main, symObjAddr: 0xE20, symBinAddr: 0x10001E620, symSize: 0x40 }
  - { offset: 0x1D7F2, size: 0x8, addend: 0x0, symName: __RNCINvMsi_NtCslJiobkLta79_5alloc3vecINtB8_3VecReE14extend_trustedINtNtNtCsieiGu2EXtoJ_4core5array4iter8IntoIterBI_Kj6_EE0CscVIntrQSCr8_17build_script_main, symObjAddr: 0xE60, symBinAddr: 0x10001E660, symSize: 0x40 }
  - { offset: 0x1E169, size: 0x8, addend: 0x0, symName: __RNvNvMs_NtCslJiobkLta79_5alloc3vecINtB6_3VecppE17from_raw_parts_in18precondition_checkCscVIntrQSCr8_17build_script_main, symObjAddr: 0x1BE0, symBinAddr: 0x10001F3E0, symSize: 0xA0 }
  - { offset: 0x1E1D7, size: 0x8, addend: 0x0, symName: __RNvNvMs_NtCslJiobkLta79_5alloc3vecINtB6_3VecppE7set_len18precondition_checkCscVIntrQSCr8_17build_script_main, symObjAddr: 0x1C80, symBinAddr: 0x10001F480, symSize: 0xA0 }
  - { offset: 0x1E24B, size: 0x8, addend: 0x0, symName: __RNvXNtNtCslJiobkLta79_5alloc3vec14spec_from_iterINtB4_3VecNtNtCsHUR1vrdMJt_3std4path7PathBufEINtB2_12SpecFromIterBU_NtNtBY_3env10SplitPathsE9from_iterCscVIntrQSCr8_17build_script_main, symObjAddr: 0x1D20, symBinAddr: 0x10001F520, symSize: 0x20 }
  - { offset: 0x1E28A, size: 0x8, addend: 0x0, symName: __RNvXNtNtCslJiobkLta79_5alloc3vec14spec_from_iterINtB4_3VecNtNtNtCsHUR1vrdMJt_3std3ffi6os_str8OsStringEINtB2_12SpecFromIterBU_INtNtNtNtCsieiGu2EXtoJ_4core4iter8adapters3map3MapINtNtNtB28_5slice4iter4IterReENvYBU_INtNtB28_7convert4FromRB3e_E4fromEE9from_iterCscVIntrQSCr8_17build_script_main, symObjAddr: 0x1D40, symBinAddr: 0x10001F540, symSize: 0x30 }
  - { offset: 0x1E2C8, size: 0x8, addend: 0x0, symName: __RNvXNtNtCslJiobkLta79_5alloc3vec14spec_from_iterINtB4_3VecRNtNtNtCsHUR1vrdMJt_3std3ffi6os_str5OsStrEINtB2_12SpecFromIterBU_INtNtNtNtCsieiGu2EXtoJ_4core4iter8adapters3map3MapINtNtNtB26_5slice4iter4IterNtBX_8OsStringENvMs0_BX_B3c_9as_os_strEE9from_iterCscVIntrQSCr8_17build_script_main, symObjAddr: 0x1D70, symBinAddr: 0x10001F570, symSize: 0x30 }
  - { offset: 0x1E312, size: 0x8, addend: 0x0, symName: __RNvXNtNtCslJiobkLta79_5alloc3vec21spec_from_iter_nestedINtB4_3VecNtNtCsHUR1vrdMJt_3std4path7PathBufEINtB2_18SpecFromIterNestedB11_NtNtB15_3env10SplitPathsE9from_iterCscVIntrQSCr8_17build_script_main, symObjAddr: 0x1DA0, symBinAddr: 0x10001F5A0, symSize: 0x350 }
  - { offset: 0x1E5CD, size: 0x8, addend: 0x0, symName: __RNvXs_NtNtCslJiobkLta79_5alloc3vec21spec_from_iter_nestedINtB6_3VecNtNtNtCsHUR1vrdMJt_3std3ffi6os_str8OsStringEINtB4_18SpecFromIterNestedB13_INtNtNtNtCsieiGu2EXtoJ_4core4iter8adapters3map3MapINtNtNtB2o_5slice4iter4IterReENvYB13_INtNtB2o_7convert4FromRB3u_E4fromEE9from_iterCscVIntrQSCr8_17build_script_main, symObjAddr: 0x2330, symBinAddr: 0x10001FB30, symSize: 0x1B0 }
  - { offset: 0x1E6A5, size: 0x8, addend: 0x0, symName: __RNvXs_NtNtCslJiobkLta79_5alloc3vec21spec_from_iter_nestedINtB6_3VecRNtNtNtCsHUR1vrdMJt_3std3ffi6os_str5OsStrEINtB4_18SpecFromIterNestedB13_INtNtNtNtCsieiGu2EXtoJ_4core4iter8adapters3map3MapINtNtNtB2m_5slice4iter4IterNtB16_8OsStringENvMs0_B16_B3s_9as_os_strEE9from_iterCscVIntrQSCr8_17build_script_main, symObjAddr: 0x24E0, symBinAddr: 0x10001FCE0, symSize: 0x1B0 }
  - { offset: 0x1E8FE, size: 0x8, addend: 0x0, symName: __RNvXs0_NtNtCslJiobkLta79_5alloc3vec11spec_extendINtB7_3VecNtNtCsHUR1vrdMJt_3std4path7PathBufEINtB5_10SpecExtendBU_INtNtB7_9into_iter8IntoIterBU_EE11spec_extendCscVIntrQSCr8_17build_script_main, symObjAddr: 0x20F0, symBinAddr: 0x10001F8F0, symSize: 0x90 }
  - { offset: 0x1E964, size: 0x8, addend: 0x0, symName: __RNvXs0_NtNtCslJiobkLta79_5alloc3vec11spec_extendINtB7_3VecReEINtB5_10SpecExtendBU_INtNtB7_9into_iter8IntoIterBU_EE11spec_extendCscVIntrQSCr8_17build_script_main, symObjAddr: 0x2180, symBinAddr: 0x10001F980, symSize: 0x90 }
  - { offset: 0x1E9D0, size: 0x8, addend: 0x0, symName: __RNvXs_NtNtCslJiobkLta79_5alloc3vec11spec_extendINtB6_3VecNtNtNtCsHUR1vrdMJt_3std3ffi6os_str8OsStringEINtB4_10SpecExtendBT_INtNtNtNtCsieiGu2EXtoJ_4core4iter8adapters3map3MapINtNtNtB25_5slice4iter4IterNtNtB8_6string6StringENvYRB3b_INtNtB25_7convert4IntoBT_E4intoEE11spec_extendCscVIntrQSCr8_17build_script_main, symObjAddr: 0x2270, symBinAddr: 0x10001FA70, symSize: 0x20 }
  - { offset: 0x1EA21, size: 0x8, addend: 0x0, symName: __RNvXs_NtNtCslJiobkLta79_5alloc3vec11spec_extendINtB6_3VecNtNtNtCsHUR1vrdMJt_3std3ffi6os_str8OsStringEINtB4_10SpecExtendBT_INtNtNtNtCsieiGu2EXtoJ_4core4iter8adapters3map3MapINtNtNtB25_5slice4iter4IterReENvYBT_INtNtB25_7convert4FromRB3b_E4fromEE11spec_extendCscVIntrQSCr8_17build_script_main, symObjAddr: 0x2290, symBinAddr: 0x10001FA90, symSize: 0x20 }
  - { offset: 0x1EA72, size: 0x8, addend: 0x0, symName: __RNvXs_NtNtCslJiobkLta79_5alloc3vec11spec_extendINtB6_3VecRNtNtNtCsHUR1vrdMJt_3std3ffi6os_str5OsStrEINtB4_10SpecExtendBT_INtNtNtNtCsieiGu2EXtoJ_4core4iter8adapters3map3MapINtNtNtB23_5slice4iter4IterNtBW_8OsStringENvMs0_BW_B39_9as_os_strEE11spec_extendCscVIntrQSCr8_17build_script_main, symObjAddr: 0x22B0, symBinAddr: 0x10001FAB0, symSize: 0x20 }
  - { offset: 0x1EAC3, size: 0x8, addend: 0x0, symName: __RNvXs_NtNtCslJiobkLta79_5alloc3vec11spec_extendINtB6_3VecReEINtB4_10SpecExtendBT_INtNtNtCsieiGu2EXtoJ_4core5array4iter8IntoIterBT_Kj2_EE11spec_extendCscVIntrQSCr8_17build_script_main, symObjAddr: 0x22D0, symBinAddr: 0x10001FAD0, symSize: 0x20 }
  - { offset: 0x1EB15, size: 0x8, addend: 0x0, symName: __RNvXs_NtNtCslJiobkLta79_5alloc3vec11spec_extendINtB6_3VecReEINtB4_10SpecExtendBT_INtNtNtCsieiGu2EXtoJ_4core5array4iter8IntoIterBT_Kj3_EE11spec_extendCscVIntrQSCr8_17build_script_main, symObjAddr: 0x22F0, symBinAddr: 0x10001FAF0, symSize: 0x20 }
  - { offset: 0x1EB67, size: 0x8, addend: 0x0, symName: __RNvXs_NtNtCslJiobkLta79_5alloc3vec11spec_extendINtB6_3VecReEINtB4_10SpecExtendBT_INtNtNtCsieiGu2EXtoJ_4core5array4iter8IntoIterBT_Kj6_EE11spec_extendCscVIntrQSCr8_17build_script_main, symObjAddr: 0x2310, symBinAddr: 0x10001FB10, symSize: 0x20 }
  - { offset: 0x1EBC0, size: 0x8, addend: 0x0, symName: __RNvXs6_NtCslJiobkLta79_5alloc3vecINtB5_3VecNtNtCscVIntrQSCr8_17build_script_main10cc_builder15CompilerFeatureENtNtNtCsieiGu2EXtoJ_4core3ops5deref5Deref5derefBJ_, symObjAddr: 0x2230, symBinAddr: 0x10001FA30, symSize: 0x20 }
  - { offset: 0x1EC00, size: 0x8, addend: 0x0, symName: __RNvXs6_NtCslJiobkLta79_5alloc3vecINtB5_3VecRNtNtNtCsHUR1vrdMJt_3std3ffi6os_str5OsStrENtNtNtCsieiGu2EXtoJ_4core3ops5deref5Deref5derefCscVIntrQSCr8_17build_script_main, symObjAddr: 0x2250, symBinAddr: 0x10001FA50, symSize: 0x20 }
  - { offset: 0x1ED36, size: 0x8, addend: 0x0, symName: __RNvXsb_NtCslJiobkLta79_5alloc3vecINtB5_3VecReEINtNtNtCsieiGu2EXtoJ_4core3ops5index5IndexjE5indexCscVIntrQSCr8_17build_script_main, symObjAddr: 0x2690, symBinAddr: 0x10001FE90, symSize: 0x80 }
  - { offset: 0x1EEBE, size: 0x8, addend: 0x0, symName: __RNvXse_NtCslJiobkLta79_5alloc3vecINtB5_3VecNtNtCsHUR1vrdMJt_3std4path7PathBufENtNtNtNtCsieiGu2EXtoJ_4core4iter6traits7collect12IntoIterator9into_iterCscVIntrQSCr8_17build_script_main, symObjAddr: 0x2710, symBinAddr: 0x10001FF10, symSize: 0x140 }
  - { offset: 0x1F14E, size: 0x8, addend: 0x0, symName: __RNvXse_NtCslJiobkLta79_5alloc3vecINtB5_3VecNtNtCscVIntrQSCr8_17build_script_main10cc_builder11BuildOptionENtNtNtNtCsieiGu2EXtoJ_4core4iter6traits7collect12IntoIterator9into_iterBJ_, symObjAddr: 0x2850, symBinAddr: 0x100020050, symSize: 0x140 }
  - { offset: 0x1F3DE, size: 0x8, addend: 0x0, symName: __RNvXse_NtCslJiobkLta79_5alloc3vecINtB5_3VecReENtNtNtNtCsieiGu2EXtoJ_4core4iter6traits7collect12IntoIterator9into_iterCscVIntrQSCr8_17build_script_main, symObjAddr: 0x2990, symBinAddr: 0x100020190, symSize: 0x140 }
  - { offset: 0x1F674, size: 0x8, addend: 0x0, symName: __RNvXsf_NtCslJiobkLta79_5alloc3vecRINtB5_3VecNtNtCscVIntrQSCr8_17build_script_main10cc_builder11BuildOptionENtNtNtNtCsieiGu2EXtoJ_4core4iter6traits7collect12IntoIterator9into_iterBK_, symObjAddr: 0x2AD0, symBinAddr: 0x1000202D0, symSize: 0x80 }
  - { offset: 0x1F8A1, size: 0x8, addend: 0x0, symName: __RNvXsf_NtCslJiobkLta79_5alloc3vecRINtB5_3VecTNtNtB7_6string6StringINtNtCsieiGu2EXtoJ_4core6option6OptionBH_EEENtNtNtNtB17_4iter6traits7collect12IntoIterator9into_iterCscVIntrQSCr8_17build_script_main, symObjAddr: 0x2B50, symBinAddr: 0x100020350, symSize: 0x80 }
  - { offset: 0x1FAD4, size: 0x8, addend: 0x0, symName: __RNvXsn_NtCslJiobkLta79_5alloc3vecINtB5_3VecNtNtCscVIntrQSCr8_17build_script_main10cc_builder11BuildOptionENtNtNtCsieiGu2EXtoJ_4core3ops4drop4Drop4dropBJ_, symObjAddr: 0x2BD0, symBinAddr: 0x1000203D0, symSize: 0x30 }
  - { offset: 0x1FB84, size: 0x8, addend: 0x0, symName: __RNvXsn_NtCslJiobkLta79_5alloc3vecINtB5_3VecNtNtCscVIntrQSCr8_17build_script_main10cc_builder15CompilerFeatureENtNtNtCsieiGu2EXtoJ_4core3ops4drop4Drop4dropBJ_, symObjAddr: 0x2C00, symBinAddr: 0x100020400, symSize: 0x20 }
  - { offset: 0x1FC34, size: 0x8, addend: 0x0, symName: __RNvXsn_NtCslJiobkLta79_5alloc3vecINtB5_3VecRNtNtNtCsHUR1vrdMJt_3std3ffi6os_str5OsStrENtNtNtCsieiGu2EXtoJ_4core3ops4drop4Drop4dropCscVIntrQSCr8_17build_script_main, symObjAddr: 0x2C20, symBinAddr: 0x100020420, symSize: 0x20 }
  - { offset: 0x1FCE4, size: 0x8, addend: 0x0, symName: __RNvXsn_NtCslJiobkLta79_5alloc3vecINtB5_3VecTNtNtB7_6string6StringINtNtCsieiGu2EXtoJ_4core6option6OptionBG_EEENtNtNtB16_3ops4drop4Drop4dropCscVIntrQSCr8_17build_script_main, symObjAddr: 0x2C40, symBinAddr: 0x100020440, symSize: 0x30 }
  - { offset: 0x1FD9A, size: 0x8, addend: 0x0, symName: __RNvXso_NtCslJiobkLta79_5alloc3vecINtB5_3VecNtNtCscVIntrQSCr8_17build_script_main10cc_builder15CompilerFeatureENtNtCsieiGu2EXtoJ_4core7default7Default7defaultBJ_, symObjAddr: 0x2C70, symBinAddr: 0x100020470, symSize: 0x30 }
  - { offset: 0x1FDDD, size: 0x8, addend: 0x0, symName: __RNvXsp_NtCslJiobkLta79_5alloc3vecINtB5_3VecNtNtCsHUR1vrdMJt_3std4path7PathBufENtNtCsieiGu2EXtoJ_4core3fmt5Debug3fmtCscVIntrQSCr8_17build_script_main, symObjAddr: 0x2CA0, symBinAddr: 0x1000204A0, symSize: 0x70 }
  - { offset: 0x1FEF3, size: 0x8, addend: 0x0, symName: __RNvXss_NtCslJiobkLta79_5alloc3vecINtB5_3VecRNtNtNtCsHUR1vrdMJt_3std3ffi6os_str5OsStrEINtNtCsieiGu2EXtoJ_4core7convert5AsRefSBF_E6as_refCscVIntrQSCr8_17build_script_main, symObjAddr: 0x2D10, symBinAddr: 0x100020510, symSize: 0x50 }
  - { offset: 0x1FFFA, size: 0x8, addend: 0x0, symName: __RNvXsu_NtCslJiobkLta79_5alloc3vecINtB5_3VecNtNtNtCsHUR1vrdMJt_3std3ffi6os_str8OsStringEINtNtCsieiGu2EXtoJ_4core7convert4FromRSBF_E4fromCscVIntrQSCr8_17build_script_main, symObjAddr: 0x2D60, symBinAddr: 0x100020560, symSize: 0x30 }
  - { offset: 0x20075, size: 0x8, addend: 0x0, symName: __RNvXsu_NtCslJiobkLta79_5alloc3vecINtB5_3VecReEINtNtCsieiGu2EXtoJ_4core7convert4FromRSBF_E4fromCscVIntrQSCr8_17build_script_main, symObjAddr: 0x2D90, symBinAddr: 0x100020590, symSize: 0x30 }
  - { offset: 0x204DF, size: 0x8, addend: 0x0, symName: __RINvMsi_NtCslJiobkLta79_5alloc3vecINtB6_3VecNtNtNtCsHUR1vrdMJt_3std3ffi6os_str8OsStringE14extend_trustedINtNtNtNtCsieiGu2EXtoJ_4core4iter8adapters3map3MapINtNtNtB1N_5slice4iter4IterNtNtB8_6string6StringENvYRB2T_INtNtB1N_7convert4IntoBG_E4intoEECscVIntrQSCr8_17build_script_main, symObjAddr: 0x0, symBinAddr: 0x10001D800, symSize: 0x1A0 }
  - { offset: 0x207C8, size: 0x8, addend: 0x0, symName: __RINvMsi_NtCslJiobkLta79_5alloc3vecINtB6_3VecNtNtNtCsHUR1vrdMJt_3std3ffi6os_str8OsStringE14extend_trustedINtNtNtNtCsieiGu2EXtoJ_4core4iter8adapters3map3MapINtNtNtB1N_5slice4iter4IterReENvYBG_INtNtB1N_7convert4FromRB2T_E4fromEECscVIntrQSCr8_17build_script_main, symObjAddr: 0x1A0, symBinAddr: 0x10001D9A0, symSize: 0x1A0 }
  - { offset: 0x20AFF, size: 0x8, addend: 0x0, symName: __RINvMsi_NtCslJiobkLta79_5alloc3vecINtB6_3VecRNtNtNtCsHUR1vrdMJt_3std3ffi6os_str5OsStrE14extend_trustedINtNtNtNtCsieiGu2EXtoJ_4core4iter8adapters3map3MapINtNtNtB1L_5slice4iter4IterNtBJ_8OsStringENvMs0_BJ_B2R_9as_os_strEECscVIntrQSCr8_17build_script_main, symObjAddr: 0x340, symBinAddr: 0x10001DB40, symSize: 0x1A0 }
  - { offset: 0x20DEA, size: 0x8, addend: 0x0, symName: __RINvMsi_NtCslJiobkLta79_5alloc3vecINtB6_3VecReE14extend_trustedINtNtNtCsieiGu2EXtoJ_4core5array4iter8IntoIterBG_Kj2_EECscVIntrQSCr8_17build_script_main, symObjAddr: 0x4E0, symBinAddr: 0x10001DCE0, symSize: 0x1E0 }
  - { offset: 0x210AE, size: 0x8, addend: 0x0, symName: __RINvMsi_NtCslJiobkLta79_5alloc3vecINtB6_3VecReE14extend_trustedINtNtNtCsieiGu2EXtoJ_4core5array4iter8IntoIterBG_Kj3_EECscVIntrQSCr8_17build_script_main, symObjAddr: 0x6C0, symBinAddr: 0x10001DEC0, symSize: 0x200 }
  - { offset: 0x21372, size: 0x8, addend: 0x0, symName: __RINvMsi_NtCslJiobkLta79_5alloc3vecINtB6_3VecReE14extend_trustedINtNtNtCsieiGu2EXtoJ_4core5array4iter8IntoIterBG_Kj6_EECscVIntrQSCr8_17build_script_main, symObjAddr: 0x8C0, symBinAddr: 0x10001E0C0, symSize: 0x1D0 }
  - { offset: 0x216AA, size: 0x8, addend: 0x0, symName: __RNvMNtCslJiobkLta79_5alloc3vecINtB2_3VecNtNtCscVIntrQSCr8_17build_script_main10cc_builder11BuildOptionE3newBG_, symObjAddr: 0xEA0, symBinAddr: 0x10001E6A0, symSize: 0x30 }
  - { offset: 0x216C7, size: 0x8, addend: 0x0, symName: __RNvMNtCslJiobkLta79_5alloc3vecINtB2_3VecNtNtCscVIntrQSCr8_17build_script_main10cc_builder15CompilerFeatureE3newBG_, symObjAddr: 0xED0, symBinAddr: 0x10001E6D0, symSize: 0x30 }
  - { offset: 0x216E4, size: 0x8, addend: 0x0, symName: __RNvMNtCslJiobkLta79_5alloc3vecINtB2_3VecReE3newCscVIntrQSCr8_17build_script_main, symObjAddr: 0xF00, symBinAddr: 0x10001E700, symSize: 0x30 }
  - { offset: 0x2171F, size: 0x8, addend: 0x0, symName: __RNvMNtCslJiobkLta79_5alloc3vecINtB2_3VecTNtNtB4_6string6StringINtNtCsieiGu2EXtoJ_4core6option6OptionBD_EEE3newCscVIntrQSCr8_17build_script_main, symObjAddr: 0xF30, symBinAddr: 0x10001E730, symSize: 0x30 }
  - { offset: 0x21770, size: 0x8, addend: 0x0, symName: __RNvMs_NtCslJiobkLta79_5alloc3vecINtB4_3VecINtNtB6_4sync3ArcNtNtCsHUR1vrdMJt_3std4path4PathEE4pushCscVIntrQSCr8_17build_script_main, symObjAddr: 0xF60, symBinAddr: 0x10001E760, symSize: 0x20 }
  - { offset: 0x218C7, size: 0x8, addend: 0x0, symName: __RNvMs_NtCslJiobkLta79_5alloc3vecINtB4_3VecINtNtB6_4sync3ArcNtNtCsHUR1vrdMJt_3std4path4PathEE8push_mutCscVIntrQSCr8_17build_script_main, symObjAddr: 0xF80, symBinAddr: 0x10001E780, symSize: 0xF0 }
  - { offset: 0x21B7D, size: 0x8, addend: 0x0, symName: __RNvMs_NtCslJiobkLta79_5alloc3vecINtB4_3VecNtNtB6_6string6StringE15append_elementsCscVIntrQSCr8_17build_script_main, symObjAddr: 0x1070, symBinAddr: 0x10001E870, symSize: 0xC0 }
  - { offset: 0x21E88, size: 0x8, addend: 0x0, symName: __RNvMs_NtCslJiobkLta79_5alloc3vecINtB4_3VecNtNtB6_6string6StringE6appendCscVIntrQSCr8_17build_script_main, symObjAddr: 0x1130, symBinAddr: 0x10001E930, symSize: 0xC0 }
  - { offset: 0x22130, size: 0x8, addend: 0x0, symName: __RNvMs_NtCslJiobkLta79_5alloc3vecINtB4_3VecNtNtCsHUR1vrdMJt_3std4path7PathBufE15append_elementsCscVIntrQSCr8_17build_script_main, symObjAddr: 0x11F0, symBinAddr: 0x10001E9F0, symSize: 0xC0 }
  - { offset: 0x223B3, size: 0x8, addend: 0x0, symName: __RNvMs_NtCslJiobkLta79_5alloc3vecINtB4_3VecNtNtCsHUR1vrdMJt_3std4path7PathBufE17from_raw_parts_inCscVIntrQSCr8_17build_script_main, symObjAddr: 0x12B0, symBinAddr: 0x10001EAB0, symSize: 0xA0 }
  - { offset: 0x22566, size: 0x8, addend: 0x0, symName: __RNvMs_NtCslJiobkLta79_5alloc3vecINtB4_3VecNtNtCsHUR1vrdMJt_3std4path7PathBufE8is_emptyCscVIntrQSCr8_17build_script_main, symObjAddr: 0x1350, symBinAddr: 0x10001EB50, symSize: 0x20 }
  - { offset: 0x225C6, size: 0x8, addend: 0x0, symName: __RNvMs_NtCslJiobkLta79_5alloc3vecINtB4_3VecNtNtCscVIntrQSCr8_17build_script_main10cc_builder11BuildOptionE4pushBI_, symObjAddr: 0x1370, symBinAddr: 0x10001EB70, symSize: 0x20 }
  - { offset: 0x2271E, size: 0x8, addend: 0x0, symName: __RNvMs_NtCslJiobkLta79_5alloc3vecINtB4_3VecNtNtCscVIntrQSCr8_17build_script_main10cc_builder11BuildOptionE8push_mutBI_, symObjAddr: 0x1390, symBinAddr: 0x10001EB90, symSize: 0x130 }
  - { offset: 0x228E0, size: 0x8, addend: 0x0, symName: __RNvMs_NtCslJiobkLta79_5alloc3vecINtB4_3VecNtNtCscVIntrQSCr8_17build_script_main10cc_builder15CompilerFeatureE4pushBI_, symObjAddr: 0x14C0, symBinAddr: 0x10001ECC0, symSize: 0x20 }
  - { offset: 0x229EF, size: 0x8, addend: 0x0, symName: __RNvMs_NtCslJiobkLta79_5alloc3vecINtB4_3VecNtNtCscVIntrQSCr8_17build_script_main10cc_builder15CompilerFeatureE8as_sliceBI_, symObjAddr: 0x14E0, symBinAddr: 0x10001ECE0, symSize: 0x50 }
  - { offset: 0x22B83, size: 0x8, addend: 0x0, symName: __RNvMs_NtCslJiobkLta79_5alloc3vecINtB4_3VecNtNtCscVIntrQSCr8_17build_script_main10cc_builder15CompilerFeatureE8push_mutBI_, symObjAddr: 0x1530, symBinAddr: 0x10001ED30, symSize: 0xA0 }
  - { offset: 0x22DC7, size: 0x8, addend: 0x0, symName: __RNvMs_NtCslJiobkLta79_5alloc3vecINtB4_3VecNtNtNtCsHUR1vrdMJt_3std3ffi6os_str8OsStringE17from_raw_parts_inCscVIntrQSCr8_17build_script_main, symObjAddr: 0x15D0, symBinAddr: 0x10001EDD0, symSize: 0xA0 }
  - { offset: 0x2307E, size: 0x8, addend: 0x0, symName: __RNvMs_NtCslJiobkLta79_5alloc3vecINtB4_3VecRNtNtNtCsHUR1vrdMJt_3std3ffi6os_str5OsStrE7reserveCscVIntrQSCr8_17build_script_main, symObjAddr: 0x1670, symBinAddr: 0x10001EE70, symSize: 0xB0 }
  - { offset: 0x2328F, size: 0x8, addend: 0x0, symName: __RNvMs_NtCslJiobkLta79_5alloc3vecINtB4_3VecRNtNtNtCsHUR1vrdMJt_3std3ffi6os_str5OsStrE8as_sliceCscVIntrQSCr8_17build_script_main, symObjAddr: 0x1720, symBinAddr: 0x10001EF20, symSize: 0x50 }
  - { offset: 0x23419, size: 0x8, addend: 0x0, symName: __RNvMs_NtCslJiobkLta79_5alloc3vecINtB4_3VecReE15append_elementsCscVIntrQSCr8_17build_script_main, symObjAddr: 0x1770, symBinAddr: 0x10001EF70, symSize: 0xC0 }
  - { offset: 0x235BB, size: 0x8, addend: 0x0, symName: __RNvMs_NtCslJiobkLta79_5alloc3vecINtB4_3VecReE3lenCscVIntrQSCr8_17build_script_main, symObjAddr: 0x1830, symBinAddr: 0x10001F030, symSize: 0x10 }
  - { offset: 0x2373B, size: 0x8, addend: 0x0, symName: __RNvMs_NtCslJiobkLta79_5alloc3vecINtB4_3VecReE6appendCscVIntrQSCr8_17build_script_main, symObjAddr: 0x1840, symBinAddr: 0x10001F040, symSize: 0xC0 }
  - { offset: 0x23928, size: 0x8, addend: 0x0, symName: __RNvMs_NtCslJiobkLta79_5alloc3vecINtB4_3VecTINtNtB6_4sync3ArceEINtNtCsieiGu2EXtoJ_4core6option6OptionBF_EEE4pushCscVIntrQSCr8_17build_script_main, symObjAddr: 0x1900, symBinAddr: 0x10001F100, symSize: 0x20 }
  - { offset: 0x23A80, size: 0x8, addend: 0x0, symName: __RNvMs_NtCslJiobkLta79_5alloc3vecINtB4_3VecTINtNtB6_4sync3ArceEINtNtCsieiGu2EXtoJ_4core6option6OptionBF_EEE8push_mutCscVIntrQSCr8_17build_script_main, symObjAddr: 0x1920, symBinAddr: 0x10001F120, symSize: 0x120 }
  - { offset: 0x23C42, size: 0x8, addend: 0x0, symName: __RNvMs_NtCslJiobkLta79_5alloc3vecINtB4_3VecTNtNtB6_6string6StringINtNtCsieiGu2EXtoJ_4core6option6OptionBF_EEE4pushCscVIntrQSCr8_17build_script_main, symObjAddr: 0x1A40, symBinAddr: 0x10001F240, symSize: 0x20 }
  - { offset: 0x23D9A, size: 0x8, addend: 0x0, symName: __RNvMs_NtCslJiobkLta79_5alloc3vecINtB4_3VecTNtNtB6_6string6StringINtNtCsieiGu2EXtoJ_4core6option6OptionBF_EEE8push_mutCscVIntrQSCr8_17build_script_main, symObjAddr: 0x1A60, symBinAddr: 0x10001F260, symSize: 0x130 }
  - { offset: 0x24007, size: 0x8, addend: 0x0, symName: __RNvMs_NtCslJiobkLta79_5alloc3vecINtB4_3VechE8truncateCscVIntrQSCr8_17build_script_main, symObjAddr: 0x1B90, symBinAddr: 0x10001F390, symSize: 0x50 }
  - { offset: 0x25034, size: 0x8, addend: 0x0, symName: __RINvMNtCsieiGu2EXtoJ_4core3stre11starts_withNCNvCscVIntrQSCr8_17build_script_main13parse_to_bool0EBK_, symObjAddr: 0x0, symBinAddr: 0x1000205C0, symSize: 0x20 }
  - { offset: 0x25090, size: 0x8, addend: 0x0, symName: __RNvXsw_NtCslJiobkLta79_5alloc6stringNtNtCsPjO8QFnvM3_8fs_extra5error5ErrorNtB5_8ToString9to_stringCscVIntrQSCr8_17build_script_main, symObjAddr: 0x4E90, symBinAddr: 0x100025450, symSize: 0x30 }
  - { offset: 0x250CD, size: 0x8, addend: 0x0, symName: __RNvXsx_NtCslJiobkLta79_5alloc6stringNtNtCsPjO8QFnvM3_8fs_extra5error5ErrorNtB5_12SpecToString14spec_to_stringCscVIntrQSCr8_17build_script_main, symObjAddr: 0x4EC0, symBinAddr: 0x100025480, symSize: 0x120 }
  - { offset: 0x2552E, size: 0x8, addend: 0x0, symName: __RNvXsA_NtCslJiobkLta79_5alloc4syncINtB5_3ArcNtNtNtNtCsHUR1vrdMJt_3std3sys2fs4unix12InnerReadDirENtNtNtCsieiGu2EXtoJ_4core3ops4drop4Drop4dropCscVIntrQSCr8_17build_script_main, symObjAddr: 0x4D10, symBinAddr: 0x1000252D0, symSize: 0x80 }
  - { offset: 0x25815, size: 0x8, addend: 0x0, symName: __RNvNvMNtNtCsieiGu2EXtoJ_4core3ptr9const_ptrPp20offset_from_unsigned18precondition_checkCscVIntrQSCr8_17build_script_main, symObjAddr: 0x48E0, symBinAddr: 0x100024EA0, symSize: 0xA0 }
  - { offset: 0x25B94, size: 0x8, addend: 0x0, symName: __RINvMNtCsieiGu2EXtoJ_4core3stre11starts_withNCNvCscVIntrQSCr8_17build_script_main13parse_to_bool0EBK_, symObjAddr: 0x0, symBinAddr: 0x1000205C0, symSize: 0x20 }
  - { offset: 0x25BDA, size: 0x8, addend: 0x0, symName: __RINvMNtCsieiGu2EXtoJ_4core3stre12strip_prefixcECscVIntrQSCr8_17build_script_main, symObjAddr: 0x20, symBinAddr: 0x1000205E0, symSize: 0x30 }
  - { offset: 0x25C54, size: 0x8, addend: 0x0, symName: __RNvMNtCsieiGu2EXtoJ_4core3stre16split_whitespaceCscVIntrQSCr8_17build_script_main, symObjAddr: 0x4420, symBinAddr: 0x1000249E0, symSize: 0xE0 }
  - { offset: 0x25D28, size: 0x8, addend: 0x0, symName: __RNvMNtCsieiGu2EXtoJ_4core3stre20make_ascii_lowercaseCscVIntrQSCr8_17build_script_main, symObjAddr: 0x4500, symBinAddr: 0x100024AC0, symSize: 0xC0 }
  - { offset: 0x25E01, size: 0x8, addend: 0x0, symName: __RNvMNtCsieiGu2EXtoJ_4core3stre4trimCscVIntrQSCr8_17build_script_main, symObjAddr: 0x45C0, symBinAddr: 0x100024B80, symSize: 0x20 }
  - { offset: 0x25E2F, size: 0x8, addend: 0x0, symName: __RNvMNtCsieiGu2EXtoJ_4core3stre5charsCscVIntrQSCr8_17build_script_main, symObjAddr: 0x45E0, symBinAddr: 0x100024BA0, symSize: 0x20 }
  - { offset: 0x25F88, size: 0x8, addend: 0x0, symName: __RNvXs2_NtNtCsieiGu2EXtoJ_4core3str7patterncNtB5_7Pattern15strip_prefix_ofCscVIntrQSCr8_17build_script_main, symObjAddr: 0x4A30, symBinAddr: 0x100024FF0, symSize: 0x60 }
  - { offset: 0x25FF1, size: 0x8, addend: 0x0, symName: __RNvXs7_NtNtCsieiGu2EXtoJ_4core3str7patternINtB5_18MultiCharEqPatternNCNvCscVIntrQSCr8_17build_script_main13parse_to_bool0ENtB5_7Pattern13into_searcherB18_, symObjAddr: 0x4B00, symBinAddr: 0x1000250C0, symSize: 0xB0 }
  - { offset: 0x26053, size: 0x8, addend: 0x0, symName: __RNvXs8_NtNtCsieiGu2EXtoJ_4core3str7patternINtB5_19MultiCharEqSearcherNCNvCscVIntrQSCr8_17build_script_main13parse_to_bool0ENtB5_8Searcher4nextB19_, symObjAddr: 0x4BB0, symBinAddr: 0x100025170, symSize: 0x160 }
  - { offset: 0x261AB, size: 0x8, addend: 0x0, symName: __RNvXst_NtNtCsieiGu2EXtoJ_4core3str7patternReNtB5_7Pattern15strip_prefix_ofCscVIntrQSCr8_17build_script_main, symObjAddr: 0x4DB0, symBinAddr: 0x100025370, symSize: 0xE0 }
  - { offset: 0x26337, size: 0x8, addend: 0x0, symName: __RNvYINtNtNtCsieiGu2EXtoJ_4core3str7pattern18MultiCharEqPatternNCNvCscVIntrQSCr8_17build_script_main13parse_to_bool0ENtB5_7Pattern12is_prefix_ofB12_, symObjAddr: 0x4FE0, symBinAddr: 0x1000255A0, symSize: 0x80 }
  - { offset: 0x265E9, size: 0x8, addend: 0x0, symName: __RNvXs_NtCsieiGu2EXtoJ_4core3streINtNtB6_7convert5AsRefShE6as_refCscVIntrQSCr8_17build_script_main, symObjAddr: 0x4D90, symBinAddr: 0x100025350, symSize: 0x20 }
  - { offset: 0x269E6, size: 0x8, addend: 0x0, symName: __RINvNvNtNtNtNtCsieiGu2EXtoJ_4core4iter6traits8iterator8Iterator4last4someNtNtCsHUR1vrdMJt_3std4path9ComponentECscVIntrQSCr8_17build_script_main, symObjAddr: 0x3AD0, symBinAddr: 0x100024090, symSize: 0x30 }
  - { offset: 0x26A24, size: 0x8, addend: 0x0, symName: __RINvYNtNtCsHUR1vrdMJt_3std3env10SplitPathsNtNtNtNtCsieiGu2EXtoJ_4core4iter6traits8iterator8Iterator7collectINtNtCslJiobkLta79_5alloc3vec3VecNtNtB7_4path7PathBufEECscVIntrQSCr8_17build_script_main, symObjAddr: 0x3B00, symBinAddr: 0x1000240C0, symSize: 0x70 }
  - { offset: 0x26AC4, size: 0x8, addend: 0x0, symName: __RNCINvNvNtNtNtNtCsieiGu2EXtoJ_4core4iter6traits8iterator8Iterator8for_each4callNtNtNtCsHUR1vrdMJt_3std3ffi6os_str8OsStringNCINvMsi_NtCslJiobkLta79_5alloc3vecINtB25_3VecB1f_E14extend_trustedINtNtNtBc_8adapters3map3MapINtNtNtBe_5slice4iter4IterNtNtB27_6string6StringENvYRB3S_INtNtBe_7convert4IntoB1f_E4intoEE0E0CscVIntrQSCr8_17build_script_main, symObjAddr: 0x42F0, symBinAddr: 0x1000248B0, symSize: 0x40 }
  - { offset: 0x26B1D, size: 0x8, addend: 0x0, symName: __RNCINvNvNtNtNtNtCsieiGu2EXtoJ_4core4iter6traits8iterator8Iterator8for_each4callNtNtNtCsHUR1vrdMJt_3std3ffi6os_str8OsStringNCINvMsi_NtCslJiobkLta79_5alloc3vecINtB25_3VecB1f_E14extend_trustedINtNtNtBc_8adapters3map3MapINtNtNtBe_5slice4iter4IterReENvYB1f_INtNtBe_7convert4FromRB3S_E4fromEE0E0CscVIntrQSCr8_17build_script_main, symObjAddr: 0x4330, symBinAddr: 0x1000248F0, symSize: 0x40 }
  - { offset: 0x26B76, size: 0x8, addend: 0x0, symName: __RNCINvNvNtNtNtNtCsieiGu2EXtoJ_4core4iter6traits8iterator8Iterator8for_each4callRNtNtNtCsHUR1vrdMJt_3std3ffi6os_str5OsStrNCINvMsi_NtCslJiobkLta79_5alloc3vecINtB23_3VecB1f_E14extend_trustedINtNtNtBc_8adapters3map3MapINtNtNtBe_5slice4iter4IterNtB1i_8OsStringENvMs0_B1i_B3Q_9as_os_strEE0E0CscVIntrQSCr8_17build_script_main, symObjAddr: 0x4370, symBinAddr: 0x100024930, symSize: 0x20 }
  - { offset: 0x26BCE, size: 0x8, addend: 0x0, symName: __RNCINvNvNtNtNtNtCsieiGu2EXtoJ_4core4iter6traits8iterator8Iterator8for_each4callReNCINvMsi_NtCslJiobkLta79_5alloc3vecINtB1q_3VecB1f_E14extend_trustedINtNtNtBe_5array4iter8IntoIterB1f_Kj2_EE0E0CscVIntrQSCr8_17build_script_main, symObjAddr: 0x4390, symBinAddr: 0x100024950, symSize: 0x20 }
  - { offset: 0x26C26, size: 0x8, addend: 0x0, symName: __RNCINvNvNtNtNtNtCsieiGu2EXtoJ_4core4iter6traits8iterator8Iterator8for_each4callReNCINvMsi_NtCslJiobkLta79_5alloc3vecINtB1q_3VecB1f_E14extend_trustedINtNtNtBe_5array4iter8IntoIterB1f_Kj3_EE0E0CscVIntrQSCr8_17build_script_main, symObjAddr: 0x43B0, symBinAddr: 0x100024970, symSize: 0x20 }
  - { offset: 0x26C7E, size: 0x8, addend: 0x0, symName: __RNCINvNvNtNtNtNtCsieiGu2EXtoJ_4core4iter6traits8iterator8Iterator8for_each4callReNCINvMsi_NtCslJiobkLta79_5alloc3vecINtB1q_3VecB1f_E14extend_trustedINtNtNtBe_5array4iter8IntoIterB1f_Kj6_EE0E0CscVIntrQSCr8_17build_script_main, symObjAddr: 0x43D0, symBinAddr: 0x100024990, symSize: 0x20 }
  - { offset: 0x26CE7, size: 0x8, addend: 0x0, symName: __RNCNvXs_NvNtNtNtNtCsieiGu2EXtoJ_4core4iter6traits8iterator8Iterator10advance_byINtNtNtBg_3str4iter5SplitcENtB6_13SpecAdvanceBy15spec_advance_by0CscVIntrQSCr8_17build_script_main, symObjAddr: 0x43F0, symBinAddr: 0x1000249B0, symSize: 0x30 }
  - { offset: 0x27807, size: 0x8, addend: 0x0, symName: __RNvNtNtNtCsieiGu2EXtoJ_4core9core_arch3x864sse212__mm_or_si128CscVIntrQSCr8_17build_script_main, symObjAddr: 0x4600, symBinAddr: 0x100024BC0, symSize: 0x20 }
  - { offset: 0x27916, size: 0x8, addend: 0x0, symName: __RNvNtNtNtCsieiGu2EXtoJ_4core9core_arch3x864sse213__mm_set1_epi8CscVIntrQSCr8_17build_script_main, symObjAddr: 0x4620, symBinAddr: 0x100024BE0, symSize: 0x90 }
  - { offset: 0x27A70, size: 0x8, addend: 0x0, symName: __RNvNtNtNtCsieiGu2EXtoJ_4core9core_arch3x864sse214__mm_cmpeq_epi8CscVIntrQSCr8_17build_script_main, symObjAddr: 0x46B0, symBinAddr: 0x100024C70, symSize: 0x80 }
  - { offset: 0x27AB0, size: 0x8, addend: 0x0, symName: __RNvNtNtNtCsieiGu2EXtoJ_4core9core_arch3x864sse214__mm_cmpgt_epi8CscVIntrQSCr8_17build_script_main, symObjAddr: 0x4730, symBinAddr: 0x100024CF0, symSize: 0x80 }
  - { offset: 0x27AF0, size: 0x8, addend: 0x0, symName: __RNvNtNtNtCsieiGu2EXtoJ_4core9core_arch3x864sse214__mm_load_si128CscVIntrQSCr8_17build_script_main, symObjAddr: 0x47B0, symBinAddr: 0x100024D70, symSize: 0x20 }
  - { offset: 0x27B2F, size: 0x8, addend: 0x0, symName: __RNvNtNtNtCsieiGu2EXtoJ_4core9core_arch3x864sse215__mm_loadu_si128CscVIntrQSCr8_17build_script_main, symObjAddr: 0x47D0, symBinAddr: 0x100024D90, symSize: 0x90 }
  - { offset: 0x27BBE, size: 0x8, addend: 0x0, symName: __RNvNtNtNtCsieiGu2EXtoJ_4core9core_arch3x864sse215__mm_store_si128CscVIntrQSCr8_17build_script_main, symObjAddr: 0x4860, symBinAddr: 0x100024E20, symSize: 0x20 }
  - { offset: 0x27BF7, size: 0x8, addend: 0x0, symName: __RNvNtNtNtCsieiGu2EXtoJ_4core9core_arch3x864sse217__mm_movemask_epi8CscVIntrQSCr8_17build_script_main, symObjAddr: 0x4880, symBinAddr: 0x100024E40, symSize: 0x50 }
  - { offset: 0x27C63, size: 0x8, addend: 0x0, symName: __RNvNtNtNtCsieiGu2EXtoJ_4core9core_arch3x864sse217__mm_setzero_si128CscVIntrQSCr8_17build_script_main, symObjAddr: 0x48D0, symBinAddr: 0x100024E90, symSize: 0x10 }
  - { offset: 0x27D28, size: 0x8, addend: 0x0, symName: __RNvNvMNtNtCsieiGu2EXtoJ_4core5alloc6layoutNtB4_6Layout25from_size_align_unchecked18precondition_checkCscVIntrQSCr8_17build_script_main, symObjAddr: 0x4980, symBinAddr: 0x100024F40, symSize: 0xB0 }
  - { offset: 0x2844E, size: 0x8, addend: 0x0, symName: __RINvNtCsHUR1vrdMJt_3std3env11split_pathsNtNtCslJiobkLta79_5alloc6string6StringECscVIntrQSCr8_17build_script_main, symObjAddr: 0x50, symBinAddr: 0x100020610, symSize: 0x80 }
  - { offset: 0x28592, size: 0x8, addend: 0x0, symName: __RNCINvNtCsHUR1vrdMJt_3std3env7set_varRNtNtCslJiobkLta79_5alloc6string6StringBz_E0CscVIntrQSCr8_17build_script_main, symObjAddr: 0x3B70, symBinAddr: 0x100024130, symSize: 0x180 }
  - { offset: 0x286A7, size: 0x8, addend: 0x0, symName: __RNCINvNtCsHUR1vrdMJt_3std3env7set_varRNtNtCslJiobkLta79_5alloc6string6StringRBz_E0CscVIntrQSCr8_17build_script_main, symObjAddr: 0x3CF0, symBinAddr: 0x1000242B0, symSize: 0x180 }
  - { offset: 0x287BC, size: 0x8, addend: 0x0, symName: __RNCINvNtCsHUR1vrdMJt_3std3env7set_varRNtNtCslJiobkLta79_5alloc6string6StringRReE0CscVIntrQSCr8_17build_script_main, symObjAddr: 0x3E70, symBinAddr: 0x100024430, symSize: 0x180 }
  - { offset: 0x288D1, size: 0x8, addend: 0x0, symName: __RNCINvNtCsHUR1vrdMJt_3std3env7set_varRReRNtNtCslJiobkLta79_5alloc6string6StringE0CscVIntrQSCr8_17build_script_main, symObjAddr: 0x3FF0, symBinAddr: 0x1000245B0, symSize: 0x180 }
  - { offset: 0x289E6, size: 0x8, addend: 0x0, symName: __RNCINvNtCsHUR1vrdMJt_3std3env7set_varReNtNtNtB6_3ffi6os_str8OsStringE0CscVIntrQSCr8_17build_script_main, symObjAddr: 0x4170, symBinAddr: 0x100024730, symSize: 0x180 }
  - { offset: 0x28AFC, size: 0x8, addend: 0x0, symName: __RINvNtCsHUR1vrdMJt_3std3env7set_varRNtNtCslJiobkLta79_5alloc6string6StringBx_ECscVIntrQSCr8_17build_script_main, symObjAddr: 0xD0, symBinAddr: 0x100020690, symSize: 0x100 }
  - { offset: 0x28BA9, size: 0x8, addend: 0x0, symName: __RINvNtCsHUR1vrdMJt_3std3env7set_varRNtNtCslJiobkLta79_5alloc6string6StringRBx_ECscVIntrQSCr8_17build_script_main, symObjAddr: 0x1D0, symBinAddr: 0x100020790, symSize: 0x100 }
  - { offset: 0x28C56, size: 0x8, addend: 0x0, symName: __RINvNtCsHUR1vrdMJt_3std3env7set_varRNtNtCslJiobkLta79_5alloc6string6StringRReECscVIntrQSCr8_17build_script_main, symObjAddr: 0x2D0, symBinAddr: 0x100020890, symSize: 0x100 }
  - { offset: 0x28D03, size: 0x8, addend: 0x0, symName: __RINvNtCsHUR1vrdMJt_3std3env7set_varRReRNtNtCslJiobkLta79_5alloc6string6StringECscVIntrQSCr8_17build_script_main, symObjAddr: 0x3D0, symBinAddr: 0x100020990, symSize: 0x100 }
  - { offset: 0x28DB0, size: 0x8, addend: 0x0, symName: __RINvNtCsHUR1vrdMJt_3std3env7set_varReNtNtNtB4_3ffi6os_str8OsStringECscVIntrQSCr8_17build_script_main, symObjAddr: 0x4D0, symBinAddr: 0x100020A90, symSize: 0x130 }
  - { offset: 0x28E62, size: 0x8, addend: 0x0, symName: __RNvXs4_NtCsHUR1vrdMJt_3std3envNtB5_10SplitPathsNtNtNtNtCsieiGu2EXtoJ_4core4iter6traits8iterator8Iterator9size_hintCscVIntrQSCr8_17build_script_main, symObjAddr: 0x4A90, symBinAddr: 0x100025050, symSize: 0x70 }
  - { offset: 0x29283, size: 0x8, addend: 0x0, symName: __RINvNtCsPjO8QFnvM3_8fs_extra3dir10create_allNtNtCsHUR1vrdMJt_3std4path7PathBufECscVIntrQSCr8_17build_script_main, symObjAddr: 0x600, symBinAddr: 0x100020BC0, symSize: 0x230 }
  - { offset: 0x292F7, size: 0x8, addend: 0x0, symName: __RINvNtCsPjO8QFnvM3_8fs_extra3dir16__get_dir_contentNtNtCsHUR1vrdMJt_3std4path7PathBufECscVIntrQSCr8_17build_script_main, symObjAddr: 0x830, symBinAddr: 0x100020DF0, symSize: 0xB50 }
  - { offset: 0x29547, size: 0x8, addend: 0x0, symName: __RINvNtCsPjO8QFnvM3_8fs_extra3dir16__get_dir_contentRNtNtCsHUR1vrdMJt_3std4path4PathECscVIntrQSCr8_17build_script_main, symObjAddr: 0x1380, symBinAddr: 0x100021940, symSize: 0xB30 }
  - { offset: 0x29797, size: 0x8, addend: 0x0, symName: __RINvNtCsPjO8QFnvM3_8fs_extra3dir16get_dir_content2RNtNtCsHUR1vrdMJt_3std4path4PathECscVIntrQSCr8_17build_script_main, symObjAddr: 0x1EB0, symBinAddr: 0x100022470, symSize: 0xD0 }
  - { offset: 0x297F3, size: 0x8, addend: 0x0, symName: __RINvNtCsPjO8QFnvM3_8fs_extra3dir4copyNtNtCsHUR1vrdMJt_3std4path7PathBufRBz_ECscVIntrQSCr8_17build_script_main, symObjAddr: 0x1F80, symBinAddr: 0x100022540, symSize: 0x17F0 }
  - { offset: 0x29BF3, size: 0x8, addend: 0x0, symName: __RINvNtCsPjO8QFnvM3_8fs_extra3dir6createNtNtCsHUR1vrdMJt_3std4path7PathBufECscVIntrQSCr8_17build_script_main, symObjAddr: 0x3770, symBinAddr: 0x100023D30, symSize: 0x230 }
  - { offset: 0x29C67, size: 0x8, addend: 0x0, symName: __RINvNtCsPjO8QFnvM3_8fs_extra3dir6removeRNtNtCsHUR1vrdMJt_3std4path7PathBufECscVIntrQSCr8_17build_script_main, symObjAddr: 0x39A0, symBinAddr: 0x100023F60, symSize: 0x130 }
  - { offset: 0x2A8C9, size: 0x8, addend: 0x0, symName: __RINvMNtCsieiGu2EXtoJ_4core6resultINtB3_6ResultNtNtCsHUR1vrdMJt_3std2fs8FileTypeNtNtNtBM_2io5error5ErrorE6map_orbNCNvCscVIntrQSCr8_17build_script_main19setup_include_paths0EB1Q_, symObjAddr: 0x0, symBinAddr: 0x100025620, symSize: 0xD0 }
  - { offset: 0x2B0FD, size: 0x8, addend: 0x0, symName: __RNvNvMs1_NtNtCsieiGu2EXtoJ_4core3ptr8non_nullINtB7_7NonNullpE13new_unchecked18precondition_checkCscVIntrQSCr8_17build_script_main, symObjAddr: 0xE50, symBinAddr: 0x100026470, symSize: 0x90 }
  - { offset: 0x2BFA4, size: 0x8, addend: 0x0, symName: __RNvMs9_NtCsieiGu2EXtoJ_4core3numj11checked_addCscVIntrQSCr8_17build_script_main, symObjAddr: 0xC20, symBinAddr: 0x100026240, symSize: 0x70 }
  - { offset: 0x2C02E, size: 0x8, addend: 0x0, symName: __RNvNvMs9_NtCsieiGu2EXtoJ_4core3numj13unchecked_add18precondition_checkCscVIntrQSCr8_17build_script_main, symObjAddr: 0xEE0, symBinAddr: 0x100026500, symSize: 0xA0 }
  - { offset: 0x2C0EC, size: 0x8, addend: 0x0, symName: __RNvNvMs9_NtCsieiGu2EXtoJ_4core3numj13unchecked_sub18precondition_checkCscVIntrQSCr8_17build_script_main, symObjAddr: 0xF80, symBinAddr: 0x1000265A0, symSize: 0xA0 }
  - { offset: 0x2C996, size: 0x8, addend: 0x0, symName: __RNvXs5_NtCsieiGu2EXtoJ_4core6resultINtB5_6ResultNtNtCsHUR1vrdMJt_3std2fs7ReadDirNtNtNtBO_2io5error5ErrorENtNtNtNtB7_4iter6traits7collect12IntoIterator9into_iterCscVIntrQSCr8_17build_script_main, symObjAddr: 0x16E0, symBinAddr: 0x100026D00, symSize: 0x80 }
  - { offset: 0x2CA0F, size: 0x8, addend: 0x0, symName: __RNvXs5_NtCsieiGu2EXtoJ_4core6resultINtB5_6ResultNtNtCsHUR1vrdMJt_3std2fs8DirEntryNtNtNtBO_2io5error5ErrorENtNtNtNtB7_4iter6traits7collect12IntoIterator9into_iterCscVIntrQSCr8_17build_script_main, symObjAddr: 0x1760, symBinAddr: 0x100026D80, symSize: 0xE0 }
  - { offset: 0x2CAAE, size: 0x8, addend: 0x0, symName: __RNvXsj_NtCsieiGu2EXtoJ_4core6resultINtB5_8IntoIterNtNtCsHUR1vrdMJt_3std2fs7ReadDirENtNtNtNtB7_4iter6traits8iterator8Iterator4nextCscVIntrQSCr8_17build_script_main, symObjAddr: 0x2230, symBinAddr: 0x100027850, symSize: 0x20 }
  - { offset: 0x2CB10, size: 0x8, addend: 0x0, symName: __RNvXsj_NtCsieiGu2EXtoJ_4core6resultINtB5_8IntoIterNtNtCsHUR1vrdMJt_3std2fs8DirEntryENtNtNtNtB7_4iter6traits8iterator8Iterator4nextCscVIntrQSCr8_17build_script_main, symObjAddr: 0x2250, symBinAddr: 0x100027870, symSize: 0x60 }
  - { offset: 0x2CB78, size: 0x8, addend: 0x0, symName: __RNvXsp_NtCsieiGu2EXtoJ_4core6resultINtB5_6ResultNtNtCsHUR1vrdMJt_3std2fs7ReadDirNtNtNtBO_2io5error5ErrorENtNtNtB7_3ops9try_trait3Try6branchCscVIntrQSCr8_17build_script_main, symObjAddr: 0x22E0, symBinAddr: 0x100027900, symSize: 0x70 }
  - { offset: 0x2CBF5, size: 0x8, addend: 0x0, symName: __RNvXsp_NtCsieiGu2EXtoJ_4core6resultINtB5_6ResultNtNtCsHUR1vrdMJt_3std2fs8DirEntryNtNtNtBO_2io5error5ErrorENtNtNtB7_3ops9try_trait3Try6branchCscVIntrQSCr8_17build_script_main, symObjAddr: 0x2350, symBinAddr: 0x100027970, symSize: 0xA0 }
  - { offset: 0x2CC73, size: 0x8, addend: 0x0, symName: __RNvXsp_NtCsieiGu2EXtoJ_4core6resultINtB5_6ResultNtNtCsHUR1vrdMJt_3std2fs8MetadataNtNtNtBO_2io5error5ErrorENtNtNtB7_3ops9try_trait3Try6branchCscVIntrQSCr8_17build_script_main, symObjAddr: 0x23F0, symBinAddr: 0x100027A10, symSize: 0xB0 }
  - { offset: 0x2CCF1, size: 0x8, addend: 0x0, symName: __RNvXsp_NtCsieiGu2EXtoJ_4core6resultINtB5_6ResultNtNtCsPjO8QFnvM3_8fs_extra3dir10DirContentNtNtBO_5error5ErrorENtNtNtB7_3ops9try_trait3Try6branchCscVIntrQSCr8_17build_script_main, symObjAddr: 0x24A0, symBinAddr: 0x100027AC0, symSize: 0xE0 }
  - { offset: 0x2CD70, size: 0x8, addend: 0x0, symName: __RNvXsp_NtCsieiGu2EXtoJ_4core6resultINtB5_6ResultRNtNtCsHUR1vrdMJt_3std4path4PathNtBN_16StripPrefixErrorENtNtNtB7_3ops9try_trait3Try6branchCscVIntrQSCr8_17build_script_main, symObjAddr: 0x2580, symBinAddr: 0x100027BA0, symSize: 0x60 }
  - { offset: 0x2CDEC, size: 0x8, addend: 0x0, symName: __RNvXsp_NtCsieiGu2EXtoJ_4core6resultINtB5_6ResultuNtNtCsPjO8QFnvM3_8fs_extra5error5ErrorENtNtNtB7_3ops9try_trait3Try6branchCscVIntrQSCr8_17build_script_main, symObjAddr: 0x25E0, symBinAddr: 0x100027C00, symSize: 0x90 }
  - { offset: 0x2CE6A, size: 0x8, addend: 0x0, symName: __RNvXsp_NtCsieiGu2EXtoJ_4core6resultINtB5_6ResultuNtNtCslJiobkLta79_5alloc6string6StringENtNtNtB7_3ops9try_trait3Try6branchCscVIntrQSCr8_17build_script_main, symObjAddr: 0x2670, symBinAddr: 0x100027C90, symSize: 0xA0 }
  - { offset: 0x2CEE7, size: 0x8, addend: 0x0, symName: __RNvXsp_NtCsieiGu2EXtoJ_4core6resultINtB5_6ResultyNtNtNtCsHUR1vrdMJt_3std2io5error5ErrorENtNtNtB7_3ops9try_trait3Try6branchCscVIntrQSCr8_17build_script_main, symObjAddr: 0x2710, symBinAddr: 0x100027D30, symSize: 0x50 }
  - { offset: 0x2CF69, size: 0x8, addend: 0x0, symName: __RNvXsq_NtCsieiGu2EXtoJ_4core6resultINtB5_6ResultNtNtCsPjO8QFnvM3_8fs_extra3dir10DirContentNtNtBO_5error5ErrorEINtNtNtB7_3ops9try_trait12FromResidualIBy_NtNtB7_7convert10InfallibleNtNtNtCsHUR1vrdMJt_3std2io5error5ErrorEE13from_residualCscVIntrQSCr8_17build_script_main, symObjAddr: 0x2760, symBinAddr: 0x100027D80, symSize: 0x60 }
  - { offset: 0x2CFD0, size: 0x8, addend: 0x0, symName: __RNvXsq_NtCsieiGu2EXtoJ_4core6resultINtB5_6ResultuNtNtCsPjO8QFnvM3_8fs_extra5error5ErrorEINtNtNtB7_3ops9try_trait12FromResidualIBy_NtNtB7_7convert10InfallibleBL_EE13from_residualCscVIntrQSCr8_17build_script_main, symObjAddr: 0x27C0, symBinAddr: 0x100027DE0, symSize: 0x50 }
  - { offset: 0x2D058, size: 0x8, addend: 0x0, symName: __RNvXsq_NtCsieiGu2EXtoJ_4core6resultINtB5_6ResultuNtNtCsPjO8QFnvM3_8fs_extra5error5ErrorEINtNtNtB7_3ops9try_trait12FromResidualIBy_NtNtB7_7convert10InfallibleNtNtNtCsHUR1vrdMJt_3std2io5error5ErrorEE13from_residualCscVIntrQSCr8_17build_script_main, symObjAddr: 0x2810, symBinAddr: 0x100027E30, symSize: 0x40 }
  - { offset: 0x2D0BF, size: 0x8, addend: 0x0, symName: __RNvXsq_NtCsieiGu2EXtoJ_4core6resultINtB5_6ResultuNtNtCslJiobkLta79_5alloc6string6StringEINtNtNtB7_3ops9try_trait12FromResidualIBy_NtNtB7_7convert10InfallibleBL_EE13from_residualCscVIntrQSCr8_17build_script_main, symObjAddr: 0x2850, symBinAddr: 0x100027E70, symSize: 0x50 }
  - { offset: 0x2D144, size: 0x8, addend: 0x0, symName: __RNvXsq_NtCsieiGu2EXtoJ_4core6resultINtB5_6ResultyNtNtCsPjO8QFnvM3_8fs_extra5error5ErrorEINtNtNtB7_3ops9try_trait12FromResidualIBy_NtNtB7_7convert10InfallibleBL_EE13from_residualCscVIntrQSCr8_17build_script_main, symObjAddr: 0x28A0, symBinAddr: 0x100027EC0, symSize: 0x50 }
  - { offset: 0x2D1CC, size: 0x8, addend: 0x0, symName: __RNvXsq_NtCsieiGu2EXtoJ_4core6resultINtB5_6ResultyNtNtCsPjO8QFnvM3_8fs_extra5error5ErrorEINtNtNtB7_3ops9try_trait12FromResidualIBy_NtNtB7_7convert10InfallibleNtNtCsHUR1vrdMJt_3std4path16StripPrefixErrorEE13from_residualCscVIntrQSCr8_17build_script_main, symObjAddr: 0x28F0, symBinAddr: 0x100027F10, symSize: 0x40 }
  - { offset: 0x2D233, size: 0x8, addend: 0x0, symName: __RNvXsq_NtCsieiGu2EXtoJ_4core6resultINtB5_6ResultyNtNtCsPjO8QFnvM3_8fs_extra5error5ErrorEINtNtNtB7_3ops9try_trait12FromResidualIBy_NtNtB7_7convert10InfallibleNtNtNtCsHUR1vrdMJt_3std2io5error5ErrorEE13from_residualCscVIntrQSCr8_17build_script_main, symObjAddr: 0x2930, symBinAddr: 0x100027F50, symSize: 0x40 }
  - { offset: 0x2D2A0, size: 0x8, addend: 0x0, symName: __RNvXst_NtCsieiGu2EXtoJ_4core6resultINtB5_6ResultINtNtCslJiobkLta79_5alloc3vec3VecNtNtCsHUR1vrdMJt_3std4path7PathBufENtCseYC8vFNOjrM_2cc5ErrorENtNtB7_3fmt5Debug3fmtCscVIntrQSCr8_17build_script_main, symObjAddr: 0x2970, symBinAddr: 0x100027F90, symSize: 0xB0 }
  - { offset: 0x2E5D2, size: 0x8, addend: 0x0, symName: __RNCINvMNtNtCsieiGu2EXtoJ_4core3ops9try_traitINtB5_17NeverShortCircuituE10wrap_mut_2uReNCINvNvNtNtNtNtB9_4iter6traits8iterator8Iterator8for_each4callB1k_NCINvMsi_NtCslJiobkLta79_5alloc3vecINtB2z_3VecB1k_E14extend_trustedINtNtNtB9_5array4iter8IntoIterB1k_Kj2_EE0E0E0CscVIntrQSCr8_17build_script_main, symObjAddr: 0x440, symBinAddr: 0x100025A60, symSize: 0x20 }
  - { offset: 0x2E640, size: 0x8, addend: 0x0, symName: __RNCINvMNtNtCsieiGu2EXtoJ_4core3ops9try_traitINtB5_17NeverShortCircuituE10wrap_mut_2uReNCINvNvNtNtNtNtB9_4iter6traits8iterator8Iterator8for_each4callB1k_NCINvMsi_NtCslJiobkLta79_5alloc3vecINtB2z_3VecB1k_E14extend_trustedINtNtNtB9_5array4iter8IntoIterB1k_Kj3_EE0E0E0CscVIntrQSCr8_17build_script_main, symObjAddr: 0x460, symBinAddr: 0x100025A80, symSize: 0x20 }
  - { offset: 0x2E6AE, size: 0x8, addend: 0x0, symName: __RNCINvMNtNtCsieiGu2EXtoJ_4core3ops9try_traitINtB5_17NeverShortCircuituE10wrap_mut_2uReNCINvNvNtNtNtNtB9_4iter6traits8iterator8Iterator8for_each4callB1k_NCINvMsi_NtCslJiobkLta79_5alloc3vecINtB2z_3VecB1k_E14extend_trustedINtNtNtB9_5array4iter8IntoIterB1k_Kj6_EE0E0E0CscVIntrQSCr8_17build_script_main, symObjAddr: 0x480, symBinAddr: 0x100025AA0, symSize: 0x20 }
  - { offset: 0x2E793, size: 0x8, addend: 0x0, symName: __RINvNtNtNtCsieiGu2EXtoJ_4core4iter8adapters7flatten17and_then_or_clearNtNtCsHUR1vrdMJt_3std2fs7ReadDirINtNtB8_6result6ResultNtB18_8DirEntryNtNtNtB1a_2io5error5ErrorENvYB16_NtNtNtB6_6traits8iterator8Iterator4nextECscVIntrQSCr8_17build_script_main, symObjAddr: 0x1B0, symBinAddr: 0x1000257D0, symSize: 0x120 }
  - { offset: 0x2E8E0, size: 0x8, addend: 0x0, symName: __RNvXs9_NtNtNtCsieiGu2EXtoJ_4core4iter8adapters7flattenINtB5_7FlattenIBR_INtNtBb_6result8IntoIterNtNtCsHUR1vrdMJt_3std2fs7ReadDirEEENtNtNtB9_6traits8iterator8Iterator4nextCscVIntrQSCr8_17build_script_main, symObjAddr: 0x1D20, symBinAddr: 0x100027340, symSize: 0x30 }
  - { offset: 0x2E91E, size: 0x8, addend: 0x0, symName: __RNvXs9_NtNtNtCsieiGu2EXtoJ_4core4iter8adapters7flattenINtB5_7FlattenINtNtBb_6result8IntoIterNtNtCsHUR1vrdMJt_3std2fs7ReadDirEENtNtNtB9_6traits8iterator8Iterator4nextCscVIntrQSCr8_17build_script_main, symObjAddr: 0x1D50, symBinAddr: 0x100027370, symSize: 0x30 }
  - { offset: 0x2EA05, size: 0x8, addend: 0x0, symName: __RNvXsI_NtNtNtCsieiGu2EXtoJ_4core4iter8adapters7flattenINtB5_13FlattenCompatINtB5_7FlattenINtNtBb_6result8IntoIterNtNtCsHUR1vrdMJt_3std2fs7ReadDirEEIB1q_NtB1P_8DirEntryEENtNtNtB9_6traits8iterator8Iterator4nextCscVIntrQSCr8_17build_script_main, symObjAddr: 0x1DA0, symBinAddr: 0x1000273C0, symSize: 0x180 }
  - { offset: 0x2EA97, size: 0x8, addend: 0x0, symName: __RNvXsi_NtNtNtCsieiGu2EXtoJ_4core4iter8adapters7flattenINtB5_13FlattenCompatINtNtBb_6result8IntoIterNtNtCsHUR1vrdMJt_3std2fs7ReadDirEB1z_ENtNtNtB9_6traits8iterator8Iterator4nextCscVIntrQSCr8_17build_script_main, symObjAddr: 0x20C0, symBinAddr: 0x1000276E0, symSize: 0x170 }
  - { offset: 0x2EC93, size: 0x8, addend: 0x0, symName: __RNvXNtNtNtCsieiGu2EXtoJ_4core4iter6traits7collectINtNtNtB6_8adapters7flatten7FlattenIBM_INtNtB8_6result8IntoIterNtNtCsHUR1vrdMJt_3std2fs7ReadDirEEENtB2_12IntoIterator9into_iterCscVIntrQSCr8_17build_script_main, symObjAddr: 0x10C0, symBinAddr: 0x1000266E0, symSize: 0x30 }
  - { offset: 0x2ED4C, size: 0x8, addend: 0x0, symName: __RNvYINtNtNtCslJiobkLta79_5alloc3vec9into_iter8IntoIterNtNtCsHUR1vrdMJt_3std4path7PathBufENtNtNtNtCsieiGu2EXtoJ_4core4iter6traits10exact_size17ExactSizeIterator3lenCscVIntrQSCr8_17build_script_main, symObjAddr: 0x2AA0, symBinAddr: 0x1000280C0, symSize: 0xE0 }
  - { offset: 0x2EE4C, size: 0x8, addend: 0x0, symName: __RNvYINtNtNtCslJiobkLta79_5alloc3vec9into_iter8IntoIterNtNtCscVIntrQSCr8_17build_script_main10cc_builder11BuildOptionENtNtNtNtCsieiGu2EXtoJ_4core4iter6traits10exact_size17ExactSizeIterator3lenBU_, symObjAddr: 0x2B80, symBinAddr: 0x1000281A0, symSize: 0xE0 }
  - { offset: 0x2EF4C, size: 0x8, addend: 0x0, symName: __RNvYINtNtNtCslJiobkLta79_5alloc3vec9into_iter8IntoIterReENtNtNtNtCsieiGu2EXtoJ_4core4iter6traits10exact_size17ExactSizeIterator3lenCscVIntrQSCr8_17build_script_main, symObjAddr: 0x2C60, symBinAddr: 0x100028280, symSize: 0xE0 }
  - { offset: 0x2F058, size: 0x8, addend: 0x0, symName: __RNvYINtNtCsieiGu2EXtoJ_4core6result8IntoIterNtNtCsHUR1vrdMJt_3std2fs7ReadDirENtNtNtNtB7_4iter6traits8iterator8Iterator4fuseCscVIntrQSCr8_17build_script_main, symObjAddr: 0x2A20, symBinAddr: 0x100028040, symSize: 0x20 }
  - { offset: 0x2F08F, size: 0x8, addend: 0x0, symName: __RNvYINtNtCsieiGu2EXtoJ_4core6result8IntoIterNtNtCsHUR1vrdMJt_3std2fs7ReadDirENtNtNtNtB7_4iter6traits8iterator8Iterator7flattenCscVIntrQSCr8_17build_script_main, symObjAddr: 0x2A40, symBinAddr: 0x100028060, symSize: 0x60 }
  - { offset: 0x2F101, size: 0x8, addend: 0x0, symName: __RNvYINtNtNtNtCsieiGu2EXtoJ_4core4iter8adapters7flatten7FlattenINtNtBb_6result8IntoIterNtNtCsHUR1vrdMJt_3std2fs7ReadDirEENtNtNtB9_6traits8iterator8Iterator4fuseCscVIntrQSCr8_17build_script_main, symObjAddr: 0x2D40, symBinAddr: 0x100028360, symSize: 0x40 }
  - { offset: 0x2F14E, size: 0x8, addend: 0x0, symName: __RNvYINtNtNtNtCsieiGu2EXtoJ_4core4iter8adapters7flatten7FlattenINtNtBb_6result8IntoIterNtNtCsHUR1vrdMJt_3std2fs7ReadDirEENtNtNtB9_6traits8iterator8Iterator7flattenCscVIntrQSCr8_17build_script_main, symObjAddr: 0x2D80, symBinAddr: 0x1000283A0, symSize: 0xB0 }
  - { offset: 0x2F242, size: 0x8, addend: 0x0, symName: __RNvNvMNtCsieiGu2EXtoJ_4core5sliceSp22split_at_mut_unchecked18precondition_checkCscVIntrQSCr8_17build_script_main, symObjAddr: 0xDB0, symBinAddr: 0x1000263D0, symSize: 0xA0 }
  - { offset: 0x2F99C, size: 0x8, addend: 0x0, symName: __RNvXs19_NtCsieiGu2EXtoJ_4core3fmtRINtNtB8_6result6ResultINtNtCslJiobkLta79_5alloc3vec3VecNtNtCsHUR1vrdMJt_3std4path7PathBufENtCseYC8vFNOjrM_2cc5ErrorENtB6_5Debug3fmtCscVIntrQSCr8_17build_script_main, symObjAddr: 0x1240, symBinAddr: 0x100026860, symSize: 0x20 }
  - { offset: 0x2F9EE, size: 0x8, addend: 0x0, symName: __RNvNvNtCsieiGu2EXtoJ_4core4hint16assert_unchecked18precondition_checkCscVIntrQSCr8_17build_script_main, symObjAddr: 0x1020, symBinAddr: 0x100026640, symSize: 0xA0 }
  - { offset: 0x2FE7D, size: 0x8, addend: 0x0, symName: __RNvXNvXsd_NtNtCslJiobkLta79_5alloc3vec9into_iterINtB8_8IntoIterppENtNtNtCsieiGu2EXtoJ_4core3ops4drop4Drop4dropINtB2_9DropGuardNtNtCsHUR1vrdMJt_3std4path7PathBufNtNtBc_5alloc6GlobalEB12_4dropCscVIntrQSCr8_17build_script_main, symObjAddr: 0x10F0, symBinAddr: 0x100026710, symSize: 0x70 }
  - { offset: 0x2FF92, size: 0x8, addend: 0x0, symName: __RNvXNvXsd_NtNtCslJiobkLta79_5alloc3vec9into_iterINtB8_8IntoIterppENtNtNtCsieiGu2EXtoJ_4core3ops4drop4Drop4dropINtB2_9DropGuardNtNtCscVIntrQSCr8_17build_script_main10cc_builder11BuildOptionNtNtBc_5alloc6GlobalEB12_4dropB24_, symObjAddr: 0x1160, symBinAddr: 0x100026780, symSize: 0x70 }
  - { offset: 0x300A7, size: 0x8, addend: 0x0, symName: __RNvXNvXsd_NtNtCslJiobkLta79_5alloc3vec9into_iterINtB8_8IntoIterppENtNtNtCsieiGu2EXtoJ_4core3ops4drop4Drop4dropINtB2_9DropGuardReNtNtBc_5alloc6GlobalEB12_4dropCscVIntrQSCr8_17build_script_main, symObjAddr: 0x11D0, symBinAddr: 0x1000267F0, symSize: 0x70 }
  - { offset: 0x30233, size: 0x8, addend: 0x0, symName: __RNvXsd_NtNtCslJiobkLta79_5alloc3vec9into_iterINtB5_8IntoIterNtNtCsHUR1vrdMJt_3std4path7PathBufENtNtNtCsieiGu2EXtoJ_4core3ops4drop4Drop4dropCscVIntrQSCr8_17build_script_main, symObjAddr: 0x1F20, symBinAddr: 0x100027540, symSize: 0x90 }
  - { offset: 0x302CE, size: 0x8, addend: 0x0, symName: __RNvXsd_NtNtCslJiobkLta79_5alloc3vec9into_iterINtB5_8IntoIterNtNtCscVIntrQSCr8_17build_script_main10cc_builder11BuildOptionENtNtNtCsieiGu2EXtoJ_4core3ops4drop4Drop4dropB10_, symObjAddr: 0x1FB0, symBinAddr: 0x1000275D0, symSize: 0x90 }
  - { offset: 0x30369, size: 0x8, addend: 0x0, symName: __RNvXsd_NtNtCslJiobkLta79_5alloc3vec9into_iterINtB5_8IntoIterReENtNtNtCsieiGu2EXtoJ_4core3ops4drop4Drop4dropCscVIntrQSCr8_17build_script_main, symObjAddr: 0x2040, symBinAddr: 0x100027660, symSize: 0x80 }
  - { offset: 0x3040A, size: 0x8, addend: 0x0, symName: __RNvXs3_NtNtCslJiobkLta79_5alloc3vec9into_iterINtB5_8IntoIterNtNtCsHUR1vrdMJt_3std4path7PathBufENtNtNtNtCsieiGu2EXtoJ_4core4iter6traits8iterator8Iterator4nextCscVIntrQSCr8_17build_script_main, symObjAddr: 0x1310, symBinAddr: 0x100026930, symSize: 0x100 }
  - { offset: 0x30568, size: 0x8, addend: 0x0, symName: __RNvXs3_NtNtCslJiobkLta79_5alloc3vec9into_iterINtB5_8IntoIterNtNtCsHUR1vrdMJt_3std4path7PathBufENtNtNtNtCsieiGu2EXtoJ_4core4iter6traits8iterator8Iterator9size_hintCscVIntrQSCr8_17build_script_main, symObjAddr: 0x1410, symBinAddr: 0x100026A30, symSize: 0x60 }
  - { offset: 0x305C3, size: 0x8, addend: 0x0, symName: __RNvXs3_NtNtCslJiobkLta79_5alloc3vec9into_iterINtB5_8IntoIterNtNtCscVIntrQSCr8_17build_script_main10cc_builder11BuildOptionENtNtNtNtCsieiGu2EXtoJ_4core4iter6traits8iterator8Iterator4nextB10_, symObjAddr: 0x1470, symBinAddr: 0x100026A90, symSize: 0x100 }
  - { offset: 0x30721, size: 0x8, addend: 0x0, symName: __RNvXs3_NtNtCslJiobkLta79_5alloc3vec9into_iterINtB5_8IntoIterNtNtCscVIntrQSCr8_17build_script_main10cc_builder11BuildOptionENtNtNtNtCsieiGu2EXtoJ_4core4iter6traits8iterator8Iterator9size_hintB10_, symObjAddr: 0x1570, symBinAddr: 0x100026B90, symSize: 0x60 }
  - { offset: 0x3077C, size: 0x8, addend: 0x0, symName: __RNvXs3_NtNtCslJiobkLta79_5alloc3vec9into_iterINtB5_8IntoIterReENtNtNtNtCsieiGu2EXtoJ_4core4iter6traits8iterator8Iterator4nextCscVIntrQSCr8_17build_script_main, symObjAddr: 0x15D0, symBinAddr: 0x100026BF0, symSize: 0xB0 }
  - { offset: 0x308DA, size: 0x8, addend: 0x0, symName: __RNvXs3_NtNtCslJiobkLta79_5alloc3vec9into_iterINtB5_8IntoIterReENtNtNtNtCsieiGu2EXtoJ_4core4iter6traits8iterator8Iterator9size_hintCscVIntrQSCr8_17build_script_main, symObjAddr: 0x1680, symBinAddr: 0x100026CA0, symSize: 0x60 }
  - { offset: 0x30F54, size: 0x8, addend: 0x0, symName: __RNvXs1_NtCslJiobkLta79_5alloc7raw_vecINtB5_6RawVecNtNtCscVIntrQSCr8_17build_script_main10cc_builder11BuildOptionENtNtNtCsieiGu2EXtoJ_4core3ops4drop4Drop4dropBQ_, symObjAddr: 0x1260, symBinAddr: 0x100026880, symSize: 0x30 }
  - { offset: 0x30F90, size: 0x8, addend: 0x0, symName: __RNvXs1_NtCslJiobkLta79_5alloc7raw_vecINtB5_6RawVecNtNtCscVIntrQSCr8_17build_script_main10cc_builder15CompilerFeatureENtNtNtCsieiGu2EXtoJ_4core3ops4drop4Drop4dropBQ_, symObjAddr: 0x1290, symBinAddr: 0x1000268B0, symSize: 0x20 }
  - { offset: 0x30FCC, size: 0x8, addend: 0x0, symName: __RNvXs1_NtCslJiobkLta79_5alloc7raw_vecINtB5_6RawVecRNtNtNtCsHUR1vrdMJt_3std3ffi6os_str5OsStrENtNtNtCsieiGu2EXtoJ_4core3ops4drop4Drop4dropCscVIntrQSCr8_17build_script_main, symObjAddr: 0x12B0, symBinAddr: 0x1000268D0, symSize: 0x30 }
  - { offset: 0x31008, size: 0x8, addend: 0x0, symName: __RNvXs1_NtCslJiobkLta79_5alloc7raw_vecINtB5_6RawVecTNtNtB7_6string6StringINtNtCsieiGu2EXtoJ_4core6option6OptionBN_EEENtNtNtB1d_3ops4drop4Drop4dropCscVIntrQSCr8_17build_script_main, symObjAddr: 0x12E0, symBinAddr: 0x100026900, symSize: 0x30 }
  - { offset: 0x3116C, size: 0x8, addend: 0x0, symName: __RINvMNtCslJiobkLta79_5alloc5sliceSRe4joinBw_ECscVIntrQSCr8_17build_script_main, symObjAddr: 0x180, symBinAddr: 0x1000257A0, symSize: 0x30 }
  - { offset: 0x311C5, size: 0x8, addend: 0x0, symName: __RINvXs_NvMNtCslJiobkLta79_5alloc5sliceSp9to_vec_inReNtB5_10ConvertVec6to_vecNtNtBa_5alloc6GlobalECscVIntrQSCr8_17build_script_main, symObjAddr: 0x2D0, symBinAddr: 0x1000258F0, symSize: 0x170 }
  - { offset: 0x3161B, size: 0x8, addend: 0x0, symName: __RNvXs6_NtCslJiobkLta79_5alloc5boxedINtB5_3BoxANtNtCsHUR1vrdMJt_3std4path7PathBufj3_ENtNtNtCsieiGu2EXtoJ_4core3ops4drop4Drop4dropCscVIntrQSCr8_17build_script_main, symObjAddr: 0x1840, symBinAddr: 0x100026E60, symSize: 0xB0 }
  - { offset: 0x31756, size: 0x8, addend: 0x0, symName: __RNvXs6_NtCslJiobkLta79_5alloc5boxedINtB5_3BoxANtNtNtCsHUR1vrdMJt_3std3ffi6os_str8OsStringj4_ENtNtNtCsieiGu2EXtoJ_4core3ops4drop4Drop4dropCscVIntrQSCr8_17build_script_main, symObjAddr: 0x18F0, symBinAddr: 0x100026F10, symSize: 0xB0 }
  - { offset: 0x31891, size: 0x8, addend: 0x0, symName: __RNvXs6_NtCslJiobkLta79_5alloc5boxedINtB5_3BoxARej16_ENtNtNtCsieiGu2EXtoJ_4core3ops4drop4Drop4dropCscVIntrQSCr8_17build_script_main, symObjAddr: 0x19A0, symBinAddr: 0x100026FC0, symSize: 0xB0 }
  - { offset: 0x319CC, size: 0x8, addend: 0x0, symName: __RNvXs6_NtCslJiobkLta79_5alloc5boxedINtB5_3BoxARej2_ENtNtNtCsieiGu2EXtoJ_4core3ops4drop4Drop4dropCscVIntrQSCr8_17build_script_main, symObjAddr: 0x1A50, symBinAddr: 0x100027070, symSize: 0xB0 }
  - { offset: 0x31B07, size: 0x8, addend: 0x0, symName: __RNvXs6_NtCslJiobkLta79_5alloc5boxedINtB5_3BoxDNtCscVIntrQSCr8_17build_script_main7BuilderEL_ENtNtNtCsieiGu2EXtoJ_4core3ops4drop4Drop4dropBK_, symObjAddr: 0x1B00, symBinAddr: 0x100027120, symSize: 0xC0 }
  - { offset: 0x31C44, size: 0x8, addend: 0x0, symName: __RNvXs6_NtCslJiobkLta79_5alloc5boxedINtB5_3BoxNtNtCscVIntrQSCr8_17build_script_main10cc_builder9CcBuilderENtNtNtCsieiGu2EXtoJ_4core3ops4drop4Drop4dropBL_, symObjAddr: 0x1BC0, symBinAddr: 0x1000271E0, symSize: 0xB0 }
  - { offset: 0x31D7F, size: 0x8, addend: 0x0, symName: __RNvXs6_NtCslJiobkLta79_5alloc5boxedINtB5_3BoxNtNtCscVIntrQSCr8_17build_script_main13cmake_builder12CmakeBuilderENtNtNtCsieiGu2EXtoJ_4core3ops4drop4Drop4dropBL_, symObjAddr: 0x1C70, symBinAddr: 0x100027290, symSize: 0xB0 }
  - { offset: 0x31EC0, size: 0x8, addend: 0x0, symName: __RNvXsC_NtCslJiobkLta79_5alloc5boxedINtB5_3BoxeEINtNtCsieiGu2EXtoJ_4core7convert5AsRefeE6as_refCscVIntrQSCr8_17build_script_main, symObjAddr: 0x1D80, symBinAddr: 0x1000273A0, symSize: 0x20 }
  - { offset: 0x31F06, size: 0x8, addend: 0x0, symName: __RNvXsk_NtCslJiobkLta79_5alloc5boxedINtB5_3BoxeENtNtCsieiGu2EXtoJ_4core3fmt7Display3fmtCscVIntrQSCr8_17build_script_main, symObjAddr: 0x22B0, symBinAddr: 0x1000278D0, symSize: 0x30 }
  - { offset: 0x321AC, size: 0x8, addend: 0x0, symName: __RINvMNtCsieiGu2EXtoJ_4core6resultINtB3_6ResultNtNtCsHUR1vrdMJt_3std2fs8FileTypeNtNtNtBM_2io5error5ErrorE6map_orbNCNvCscVIntrQSCr8_17build_script_main19setup_include_paths0EB1Q_, symObjAddr: 0x0, symBinAddr: 0x100025620, symSize: 0xD0 }
  - { offset: 0x32267, size: 0x8, addend: 0x0, symName: __RINvMNtCsieiGu2EXtoJ_4core6resultINtB3_6ResultNtNtCslJiobkLta79_5alloc6string6StringNtNtCsHUR1vrdMJt_3std3env8VarErrorE14unwrap_or_elseNCINvCscVIntrQSCr8_17build_script_main9cargo_envReE0EB2e_, symObjAddr: 0xD0, symBinAddr: 0x1000256F0, symSize: 0xB0 }
  - { offset: 0x32747, size: 0x8, addend: 0x0, symName: __RNvMNtCsieiGu2EXtoJ_4core6resultINtB2_6ResultINtNtCslJiobkLta79_5alloc3vec3VecNtNtCsHUR1vrdMJt_3std4path7PathBufENtCseYC8vFNOjrM_2cc5ErrorE5is_okCscVIntrQSCr8_17build_script_main, symObjAddr: 0x4A0, symBinAddr: 0x100025AC0, symSize: 0x30 }
  - { offset: 0x3277C, size: 0x8, addend: 0x0, symName: __RNvMNtCsieiGu2EXtoJ_4core6resultINtB2_6ResultNtNtCslJiobkLta79_5alloc6string6StringNtBJ_13FromUtf8ErrorE17unwrap_or_defaultCscVIntrQSCr8_17build_script_main, symObjAddr: 0x4D0, symBinAddr: 0x100025AF0, symSize: 0x100 }
  - { offset: 0x327D0, size: 0x8, addend: 0x0, symName: __RNvMNtCsieiGu2EXtoJ_4core6resultINtB2_6ResultmNtNtNtB4_3num5error13ParseIntErrorE9unwrap_orCscVIntrQSCr8_17build_script_main, symObjAddr: 0x5D0, symBinAddr: 0x100025BF0, symSize: 0x50 }
  - { offset: 0x3283F, size: 0x8, addend: 0x0, symName: __RNvMNtCsieiGu2EXtoJ_4core6resultINtB2_6ResultuNtNtCslJiobkLta79_5alloc6string6StringE5is_okCscVIntrQSCr8_17build_script_main, symObjAddr: 0x620, symBinAddr: 0x100025C40, symSize: 0x30 }
  - { offset: 0x328A6, size: 0x8, addend: 0x0, symName: __RNvMNtCsieiGu2EXtoJ_4core6resultINtB2_6ResultuNtNtNtCsHUR1vrdMJt_3std2io5error5ErrorE6is_errCscVIntrQSCr8_17build_script_main, symObjAddr: 0x650, symBinAddr: 0x100025C70, symSize: 0x30 }
  - { offset: 0x328F9, size: 0x8, addend: 0x0, symName: __RNvMNtCsieiGu2EXtoJ_4core6resultINtB2_6ResultyNtNtNtCsHUR1vrdMJt_3std2io5error5ErrorE6expectCscVIntrQSCr8_17build_script_main, symObjAddr: 0x680, symBinAddr: 0x100025CA0, symSize: 0x90 }
  - { offset: 0x329D4, size: 0x8, addend: 0x0, symName: __RNvMs0_NtCslJiobkLta79_5alloc7raw_vecINtB5_6RawVecINtNtB7_4sync3ArcNtNtCsHUR1vrdMJt_3std4path4PathEE8grow_oneCscVIntrQSCr8_17build_script_main, symObjAddr: 0x710, symBinAddr: 0x100025D30, symSize: 0x90 }
  - { offset: 0x32A86, size: 0x8, addend: 0x0, symName: __RNvMs0_NtCslJiobkLta79_5alloc7raw_vecINtB5_6RawVecNtNtCscVIntrQSCr8_17build_script_main10cc_builder11BuildOptionE8grow_oneBQ_, symObjAddr: 0x7A0, symBinAddr: 0x100025DC0, symSize: 0x90 }
  - { offset: 0x32B38, size: 0x8, addend: 0x0, symName: __RNvMs0_NtCslJiobkLta79_5alloc7raw_vecINtB5_6RawVecNtNtCscVIntrQSCr8_17build_script_main10cc_builder15CompilerFeatureE8grow_oneBQ_, symObjAddr: 0x830, symBinAddr: 0x100025E50, symSize: 0x90 }
  - { offset: 0x32C2F, size: 0x8, addend: 0x0, symName: __RNvMs0_NtCslJiobkLta79_5alloc7raw_vecINtB5_6RawVecTINtNtB7_4sync3ArceEINtNtCsieiGu2EXtoJ_4core6option6OptionBN_EEE8grow_oneCscVIntrQSCr8_17build_script_main, symObjAddr: 0x8C0, symBinAddr: 0x100025EE0, symSize: 0x90 }
  - { offset: 0x32CFF, size: 0x8, addend: 0x0, symName: __RNvMs0_NtCslJiobkLta79_5alloc7raw_vecINtB5_6RawVecTNtNtB7_6string6StringINtNtCsieiGu2EXtoJ_4core6option6OptionBN_EEE8grow_oneCscVIntrQSCr8_17build_script_main, symObjAddr: 0x950, symBinAddr: 0x100025F70, symSize: 0x90 }
  - { offset: 0x32DA2, size: 0x8, addend: 0x0, symName: __RNvMs1_NtNtCsieiGu2EXtoJ_4core3ptr8non_nullINtB5_7NonNullNtNtCsHUR1vrdMJt_3std4path7PathBufE20offset_from_unsignedCscVIntrQSCr8_17build_script_main, symObjAddr: 0x9E0, symBinAddr: 0x100026000, symSize: 0x70 }
  - { offset: 0x32EAC, size: 0x8, addend: 0x0, symName: __RNvMs1_NtNtCsieiGu2EXtoJ_4core3ptr8non_nullINtB5_7NonNullNtNtCscVIntrQSCr8_17build_script_main10cc_builder11BuildOptionE20offset_from_unsignedBX_, symObjAddr: 0xA50, symBinAddr: 0x100026070, symSize: 0x70 }
  - { offset: 0x32FB6, size: 0x8, addend: 0x0, symName: __RNvMs1_NtNtCsieiGu2EXtoJ_4core3ptr8non_nullINtB5_7NonNullNtNtNtCsHUR1vrdMJt_3std3ffi6os_str8OsStringE20offset_from_unsignedCscVIntrQSCr8_17build_script_main, symObjAddr: 0xAC0, symBinAddr: 0x1000260E0, symSize: 0x70 }
  - { offset: 0x330A6, size: 0x8, addend: 0x0, symName: __RNvMs1_NtNtCsieiGu2EXtoJ_4core3ptr8non_nullINtB5_7NonNullReE20offset_from_unsignedCscVIntrQSCr8_17build_script_main, symObjAddr: 0xB30, symBinAddr: 0x100026150, symSize: 0x60 }
  - { offset: 0x3318A, size: 0x8, addend: 0x0, symName: __RNvMs7_NtCsieiGu2EXtoJ_4core4cellINtB5_4CellINtNtCslJiobkLta79_5alloc3vec3VecNtNtCscVIntrQSCr8_17build_script_main10cc_builder15CompilerFeatureEE3newB1h_, symObjAddr: 0xB90, symBinAddr: 0x1000261B0, symSize: 0x40 }
  - { offset: 0x33200, size: 0x8, addend: 0x0, symName: __RNvMs7_NtCsieiGu2EXtoJ_4core4cellINtB5_4CellINtNtCslJiobkLta79_5alloc3vec3VecNtNtCscVIntrQSCr8_17build_script_main10cc_builder15CompilerFeatureEE3setB1h_, symObjAddr: 0xBD0, symBinAddr: 0x1000261F0, symSize: 0x50 }
  - { offset: 0x332AB, size: 0x8, addend: 0x0, symName: __RNvMs_NtNtCslJiobkLta79_5alloc3vec9into_iterINtB4_8IntoIterNtNtCsHUR1vrdMJt_3std4path7PathBufE8as_sliceCscVIntrQSCr8_17build_script_main, symObjAddr: 0xC90, symBinAddr: 0x1000262B0, symSize: 0x60 }
  - { offset: 0x33311, size: 0x8, addend: 0x0, symName: __RNvMs_NtNtCslJiobkLta79_5alloc3vec9into_iterINtB4_8IntoIterReE8as_sliceCscVIntrQSCr8_17build_script_main, symObjAddr: 0xCF0, symBinAddr: 0x100026310, symSize: 0x60 }
  - { offset: 0x33392, size: 0x8, addend: 0x0, symName: __RNvMsa_NtCsieiGu2EXtoJ_4core4cellINtB5_4CellINtNtCslJiobkLta79_5alloc3vec3VecNtNtCscVIntrQSCr8_17build_script_main10cc_builder15CompilerFeatureEE4takeB1h_, symObjAddr: 0xD50, symBinAddr: 0x100026370, symSize: 0x60 }
  - { offset: 0x343C4, size: 0x8, addend: 0x0, symName: __RINvMCsSzEZQkfVAX_5cmakeNtB3_6Config13configure_argReECscVIntrQSCr8_17build_script_main, symObjAddr: 0x0, symBinAddr: 0x100028450, symSize: 0x90 }
  - { offset: 0x34F83, size: 0x8, addend: 0x0, symName: __RNvXsZ_NtCsHUR1vrdMJt_3std7processuNtB5_11Termination6reportCscVIntrQSCr8_17build_script_main, symObjAddr: 0x4300, symBinAddr: 0x10002C710, symSize: 0x10 }
  - { offset: 0x363C3, size: 0x8, addend: 0x0, symName: __RINvNtCsieiGu2EXtoJ_4core3ptr13drop_in_placeINtNtB4_4cell10UnsafeCellINtNtCslJiobkLta79_5alloc3vec3VecNtNtCscVIntrQSCr8_17build_script_main10cc_builder15CompilerFeatureEEEB1G_, symObjAddr: 0x1060, symBinAddr: 0x100029470, symSize: 0x20 }
  - { offset: 0x363F2, size: 0x8, addend: 0x0, symName: __RINvNtCsieiGu2EXtoJ_4core3ptr13drop_in_placeINtNtB4_4cell4CellINtNtCslJiobkLta79_5alloc3vec3VecNtNtCscVIntrQSCr8_17build_script_main10cc_builder15CompilerFeatureEEEB1z_, symObjAddr: 0x1080, symBinAddr: 0x100029490, symSize: 0x20 }
  - { offset: 0x36421, size: 0x8, addend: 0x0, symName: __RINvNtCsieiGu2EXtoJ_4core3ptr13drop_in_placeINtNtB4_6option6OptionINtNtB4_6result6ResultNtNtCsHUR1vrdMJt_3std2fs8DirEntryNtNtNtB1s_2io5error5ErrorEEECscVIntrQSCr8_17build_script_main, symObjAddr: 0x10A0, symBinAddr: 0x1000294B0, symSize: 0x30 }
  - { offset: 0x36450, size: 0x8, addend: 0x0, symName: __RINvNtCsieiGu2EXtoJ_4core3ptr13drop_in_placeINtNtB4_6option6OptionINtNtB4_6result8IntoIterNtNtCsHUR1vrdMJt_3std2fs7ReadDirEEECscVIntrQSCr8_17build_script_main, symObjAddr: 0x10D0, symBinAddr: 0x1000294E0, symSize: 0x40 }
  - { offset: 0x3647F, size: 0x8, addend: 0x0, symName: __RINvNtCsieiGu2EXtoJ_4core3ptr13drop_in_placeINtNtB4_6option6OptionINtNtB4_6result8IntoIterNtNtCsHUR1vrdMJt_3std2fs8DirEntryEEECscVIntrQSCr8_17build_script_main, symObjAddr: 0x1110, symBinAddr: 0x100029520, symSize: 0x30 }
  - { offset: 0x364AE, size: 0x8, addend: 0x0, symName: __RINvNtCsieiGu2EXtoJ_4core3ptr13drop_in_placeINtNtB4_6option6OptionINtNtNtNtB4_4iter8adapters7flatten7FlattenINtNtB4_6result8IntoIterNtNtCsHUR1vrdMJt_3std2fs7ReadDirEEEECscVIntrQSCr8_17build_script_main, symObjAddr: 0x1140, symBinAddr: 0x100029550, symSize: 0x40 }
  - { offset: 0x364DD, size: 0x8, addend: 0x0, symName: __RINvNtCsieiGu2EXtoJ_4core3ptr13drop_in_placeINtNtB4_6option6OptionNtNtCsHUR1vrdMJt_3std2fs7ReadDirEECscVIntrQSCr8_17build_script_main, symObjAddr: 0x1180, symBinAddr: 0x100029590, symSize: 0x40 }
  - { offset: 0x3650C, size: 0x8, addend: 0x0, symName: __RINvNtCsieiGu2EXtoJ_4core3ptr13drop_in_placeINtNtB4_6option6OptionNtNtCsHUR1vrdMJt_3std2fs8DirEntryEECscVIntrQSCr8_17build_script_main, symObjAddr: 0x11C0, symBinAddr: 0x1000295D0, symSize: 0x40 }
  - { offset: 0x3653B, size: 0x8, addend: 0x0, symName: __RINvNtCsieiGu2EXtoJ_4core3ptr13drop_in_placeINtNtB4_6result6ResultINtNtCslJiobkLta79_5alloc3vec3VecNtNtCsHUR1vrdMJt_3std4path7PathBufENtCseYC8vFNOjrM_2cc5ErrorEECscVIntrQSCr8_17build_script_main, symObjAddr: 0x1200, symBinAddr: 0x100029610, symSize: 0x50 }
  - { offset: 0x3656A, size: 0x8, addend: 0x0, symName: __RINvNtCsieiGu2EXtoJ_4core3ptr13drop_in_placeINtNtB4_6result6ResultNtNtCsHUR1vrdMJt_3std2fs7ReadDirNtNtNtB16_2io5error5ErrorEECscVIntrQSCr8_17build_script_main, symObjAddr: 0x1250, symBinAddr: 0x100029660, symSize: 0x40 }
  - { offset: 0x36599, size: 0x8, addend: 0x0, symName: __RINvNtCsieiGu2EXtoJ_4core3ptr13drop_in_placeINtNtB4_6result6ResultNtNtCsHUR1vrdMJt_3std2fs8DirEntryNtNtNtB16_2io5error5ErrorEECscVIntrQSCr8_17build_script_main, symObjAddr: 0x1290, symBinAddr: 0x1000296A0, symSize: 0x50 }
  - { offset: 0x365C8, size: 0x8, addend: 0x0, symName: __RINvNtCsieiGu2EXtoJ_4core3ptr13drop_in_placeINtNtB4_6result6ResultNtNtCsHUR1vrdMJt_3std2fs8FileTypeNtNtNtB16_2io5error5ErrorEECscVIntrQSCr8_17build_script_main, symObjAddr: 0x12E0, symBinAddr: 0x1000296F0, symSize: 0x30 }
  - { offset: 0x365F7, size: 0x8, addend: 0x0, symName: __RINvNtCsieiGu2EXtoJ_4core3ptr13drop_in_placeINtNtB4_6result6ResultuNtNtCslJiobkLta79_5alloc6string6StringEECscVIntrQSCr8_17build_script_main, symObjAddr: 0x1310, symBinAddr: 0x100029720, symSize: 0x40 }
  - { offset: 0x36626, size: 0x8, addend: 0x0, symName: __RINvNtCsieiGu2EXtoJ_4core3ptr13drop_in_placeINtNtB4_6result6ResultyNtNtCsPjO8QFnvM3_8fs_extra5error5ErrorEECscVIntrQSCr8_17build_script_main, symObjAddr: 0x1350, symBinAddr: 0x100029760, symSize: 0x40 }
  - { offset: 0x36655, size: 0x8, addend: 0x0, symName: __RINvNtCsieiGu2EXtoJ_4core3ptr13drop_in_placeINtNtB4_6result6ResultyNtNtNtCsHUR1vrdMJt_3std2io5error5ErrorEECscVIntrQSCr8_17build_script_main, symObjAddr: 0x1390, symBinAddr: 0x1000297A0, symSize: 0x30 }
  - { offset: 0x36684, size: 0x8, addend: 0x0, symName: __RINvNtCsieiGu2EXtoJ_4core3ptr13drop_in_placeINtNtB4_6result8IntoIterNtNtCsHUR1vrdMJt_3std2fs7ReadDirEECscVIntrQSCr8_17build_script_main, symObjAddr: 0x13C0, symBinAddr: 0x1000297D0, symSize: 0x20 }
  - { offset: 0x366B3, size: 0x8, addend: 0x0, symName: __RINvNtCsieiGu2EXtoJ_4core3ptr13drop_in_placeINtNtB4_6result8IntoIterNtNtCsHUR1vrdMJt_3std2fs8DirEntryEECscVIntrQSCr8_17build_script_main, symObjAddr: 0x13E0, symBinAddr: 0x1000297F0, symSize: 0x20 }
  - { offset: 0x366E2, size: 0x8, addend: 0x0, symName: __RINvNtCsieiGu2EXtoJ_4core3ptr13drop_in_placeINtNtCsjK30CmJ87bX_9hashbrown3map7HashMapNtNtCslJiobkLta79_5alloc6string6StringINtNtB4_6option6OptionNtNtNtCsHUR1vrdMJt_3std3ffi6os_str8OsStringENtNtNtB2p_4hash6random11RandomStateEECscVIntrQSCr8_17build_script_main, symObjAddr: 0x1400, symBinAddr: 0x100029810, symSize: 0x20 }
  - { offset: 0x36711, size: 0x8, addend: 0x0, symName: __RINvNtCsieiGu2EXtoJ_4core3ptr13drop_in_placeINtNtCsjK30CmJ87bX_9hashbrown3map7HashMapNtNtCslJiobkLta79_5alloc6string6StringNtNtCscVIntrQSCr8_17build_script_main10cc_builder15CompilerFeatureNtNtNtCsHUR1vrdMJt_3std4hash6random11RandomStateEEB21_, symObjAddr: 0x1420, symBinAddr: 0x100029830, symSize: 0x20 }
  - { offset: 0x36740, size: 0x8, addend: 0x0, symName: __RINvNtCsieiGu2EXtoJ_4core3ptr13drop_in_placeINtNtCsjK30CmJ87bX_9hashbrown3raw8RawTableTNtNtCslJiobkLta79_5alloc6string6StringINtNtB4_6option6OptionNtNtNtCsHUR1vrdMJt_3std3ffi6os_str8OsStringEEEECscVIntrQSCr8_17build_script_main, symObjAddr: 0x1440, symBinAddr: 0x100029850, symSize: 0x20 }
  - { offset: 0x3676F, size: 0x8, addend: 0x0, symName: __RINvNtCsieiGu2EXtoJ_4core3ptr13drop_in_placeINtNtCsjK30CmJ87bX_9hashbrown3raw8RawTableTNtNtCslJiobkLta79_5alloc6string6StringNtNtCscVIntrQSCr8_17build_script_main10cc_builder15CompilerFeatureEEEB23_, symObjAddr: 0x1460, symBinAddr: 0x100029870, symSize: 0x20 }
  - { offset: 0x3679E, size: 0x8, addend: 0x0, symName: __RINvNtCsieiGu2EXtoJ_4core3ptr13drop_in_placeINtNtCslJiobkLta79_5alloc3vec3VecNtNtCscVIntrQSCr8_17build_script_main10cc_builder11BuildOptionEEB1h_, symObjAddr: 0x1480, symBinAddr: 0x100029890, symSize: 0x50 }
  - { offset: 0x367CD, size: 0x8, addend: 0x0, symName: __RINvNtCsieiGu2EXtoJ_4core3ptr13drop_in_placeINtNtCslJiobkLta79_5alloc3vec3VecNtNtCscVIntrQSCr8_17build_script_main10cc_builder15CompilerFeatureEEB1h_, symObjAddr: 0x14D0, symBinAddr: 0x1000298E0, symSize: 0x50 }
  - { offset: 0x367FC, size: 0x8, addend: 0x0, symName: __RINvNtCsieiGu2EXtoJ_4core3ptr13drop_in_placeINtNtCslJiobkLta79_5alloc3vec3VecRNtNtNtCsHUR1vrdMJt_3std3ffi6os_str5OsStrEECscVIntrQSCr8_17build_script_main, symObjAddr: 0x1520, symBinAddr: 0x100029930, symSize: 0x50 }
  - { offset: 0x3682B, size: 0x8, addend: 0x0, symName: __RINvNtCsieiGu2EXtoJ_4core3ptr13drop_in_placeINtNtCslJiobkLta79_5alloc3vec3VecTNtNtBL_6string6StringINtNtB4_6option6OptionB1e_EEEECscVIntrQSCr8_17build_script_main, symObjAddr: 0x1570, symBinAddr: 0x100029980, symSize: 0x50 }
  - { offset: 0x3685A, size: 0x8, addend: 0x0, symName: __RINvNtCsieiGu2EXtoJ_4core3ptr13drop_in_placeINtNtCslJiobkLta79_5alloc4sync3ArcNtNtNtNtCsHUR1vrdMJt_3std3sys2fs4unix12InnerReadDirEECscVIntrQSCr8_17build_script_main, symObjAddr: 0x15C0, symBinAddr: 0x1000299D0, symSize: 0x20 }
  - { offset: 0x36889, size: 0x8, addend: 0x0, symName: __RINvNtCsieiGu2EXtoJ_4core3ptr13drop_in_placeINtNtCslJiobkLta79_5alloc5boxed3BoxARej16_EECscVIntrQSCr8_17build_script_main, symObjAddr: 0x15E0, symBinAddr: 0x1000299F0, symSize: 0x20 }
  - { offset: 0x368B8, size: 0x8, addend: 0x0, symName: __RINvNtCsieiGu2EXtoJ_4core3ptr13drop_in_placeINtNtCslJiobkLta79_5alloc5boxed3BoxARej2_EECscVIntrQSCr8_17build_script_main, symObjAddr: 0x1600, symBinAddr: 0x100029A10, symSize: 0x20 }
  - { offset: 0x368E7, size: 0x8, addend: 0x0, symName: __RINvNtCsieiGu2EXtoJ_4core3ptr13drop_in_placeINtNtCslJiobkLta79_5alloc5boxed3BoxDNtCscVIntrQSCr8_17build_script_main7BuilderEL_EEB1i_, symObjAddr: 0x1620, symBinAddr: 0x100029A30, symSize: 0x70 }
  - { offset: 0x36916, size: 0x8, addend: 0x0, symName: __RINvNtCsieiGu2EXtoJ_4core3ptr13drop_in_placeINtNtCslJiobkLta79_5alloc5boxed3BoxNtNtCscVIntrQSCr8_17build_script_main10cc_builder9CcBuilderEEB1j_, symObjAddr: 0x1690, symBinAddr: 0x100029AA0, symSize: 0x50 }
  - { offset: 0x36945, size: 0x8, addend: 0x0, symName: __RINvNtCsieiGu2EXtoJ_4core3ptr13drop_in_placeINtNtCslJiobkLta79_5alloc5boxed3BoxNtNtCscVIntrQSCr8_17build_script_main13cmake_builder12CmakeBuilderEEB1j_, symObjAddr: 0x16E0, symBinAddr: 0x100029AF0, symSize: 0x50 }
  - { offset: 0x36974, size: 0x8, addend: 0x0, symName: __RINvNtCsieiGu2EXtoJ_4core3ptr13drop_in_placeINtNtCslJiobkLta79_5alloc7raw_vec6RawVecNtNtCscVIntrQSCr8_17build_script_main10cc_builder11BuildOptionEEB1o_, symObjAddr: 0x1730, symBinAddr: 0x100029B40, symSize: 0x20 }
  - { offset: 0x369A3, size: 0x8, addend: 0x0, symName: __RINvNtCsieiGu2EXtoJ_4core3ptr13drop_in_placeINtNtCslJiobkLta79_5alloc7raw_vec6RawVecNtNtCscVIntrQSCr8_17build_script_main10cc_builder15CompilerFeatureEEB1o_, symObjAddr: 0x1750, symBinAddr: 0x100029B60, symSize: 0x20 }
  - { offset: 0x369D2, size: 0x8, addend: 0x0, symName: __RINvNtCsieiGu2EXtoJ_4core3ptr13drop_in_placeINtNtCslJiobkLta79_5alloc7raw_vec6RawVecRNtNtNtCsHUR1vrdMJt_3std3ffi6os_str5OsStrEECscVIntrQSCr8_17build_script_main, symObjAddr: 0x1770, symBinAddr: 0x100029B80, symSize: 0x20 }
  - { offset: 0x36A01, size: 0x8, addend: 0x0, symName: __RINvNtCsieiGu2EXtoJ_4core3ptr13drop_in_placeINtNtCslJiobkLta79_5alloc7raw_vec6RawVecTNtNtBL_6string6StringINtNtB4_6option6OptionB1l_EEEECscVIntrQSCr8_17build_script_main, symObjAddr: 0x1790, symBinAddr: 0x100029BA0, symSize: 0x20 }
  - { offset: 0x36A30, size: 0x8, addend: 0x0, symName: __RINvNtCsieiGu2EXtoJ_4core3ptr13drop_in_placeINtNtNtB4_5array4iter8IntoIterReKj3_EECscVIntrQSCr8_17build_script_main, symObjAddr: 0x17B0, symBinAddr: 0x100029BC0, symSize: 0x50 }
  - { offset: 0x36A5F, size: 0x8, addend: 0x0, symName: __RINvNtCsieiGu2EXtoJ_4core3ptr13drop_in_placeINtNtNtB4_5array4iter8IntoIterReKj6_EECscVIntrQSCr8_17build_script_main, symObjAddr: 0x1800, symBinAddr: 0x100029C10, symSize: 0x50 }
  - { offset: 0x36A8E, size: 0x8, addend: 0x0, symName: __RINvNtCsieiGu2EXtoJ_4core3ptr13drop_in_placeINtNtNtCslJiobkLta79_5alloc3vec9into_iter8IntoIterNtNtCsHUR1vrdMJt_3std4path7PathBufEECscVIntrQSCr8_17build_script_main, symObjAddr: 0x1850, symBinAddr: 0x100029C60, symSize: 0x20 }
  - { offset: 0x36ABD, size: 0x8, addend: 0x0, symName: __RINvNtCsieiGu2EXtoJ_4core3ptr13drop_in_placeINtNtNtCslJiobkLta79_5alloc3vec9into_iter8IntoIterNtNtCscVIntrQSCr8_17build_script_main10cc_builder11BuildOptionEEB1y_, symObjAddr: 0x1870, symBinAddr: 0x100029C80, symSize: 0x20 }
  - { offset: 0x36AEC, size: 0x8, addend: 0x0, symName: __RINvNtCsieiGu2EXtoJ_4core3ptr13drop_in_placeINtNtNtCslJiobkLta79_5alloc3vec9into_iter8IntoIterReEECscVIntrQSCr8_17build_script_main, symObjAddr: 0x1890, symBinAddr: 0x100029CA0, symSize: 0x20 }
  - { offset: 0x36B1B, size: 0x8, addend: 0x0, symName: __RINvNtCsieiGu2EXtoJ_4core3ptr13drop_in_placeINtNtNtNtB4_4iter8adapters4fuse4FuseINtNtB4_6result8IntoIterNtNtCsHUR1vrdMJt_3std2fs7ReadDirEEECscVIntrQSCr8_17build_script_main, symObjAddr: 0x18B0, symBinAddr: 0x100029CC0, symSize: 0x20 }
  - { offset: 0x36B4A, size: 0x8, addend: 0x0, symName: __RINvNtCsieiGu2EXtoJ_4core3ptr13drop_in_placeINtNtNtNtB4_4iter8adapters4fuse4FuseINtNtBL_7flatten7FlattenINtNtB4_6result8IntoIterNtNtCsHUR1vrdMJt_3std2fs7ReadDirEEEECscVIntrQSCr8_17build_script_main, symObjAddr: 0x18D0, symBinAddr: 0x100029CE0, symSize: 0x20 }
  - { offset: 0x36B79, size: 0x8, addend: 0x0, symName: __RINvNtCsieiGu2EXtoJ_4core3ptr13drop_in_placeINtNtNtNtB4_4iter8adapters7flatten13FlattenCompatINtBJ_7FlattenINtNtB4_6result8IntoIterNtNtCsHUR1vrdMJt_3std2fs7ReadDirEEIB1I_NtB27_8DirEntryEEECscVIntrQSCr8_17build_script_main, symObjAddr: 0x18F0, symBinAddr: 0x100029D00, symSize: 0x90 }
  - { offset: 0x36BA8, size: 0x8, addend: 0x0, symName: __RINvNtCsieiGu2EXtoJ_4core3ptr13drop_in_placeINtNtNtNtB4_4iter8adapters7flatten13FlattenCompatINtNtB4_6result8IntoIterNtNtCsHUR1vrdMJt_3std2fs7ReadDirEB1R_EECscVIntrQSCr8_17build_script_main, symObjAddr: 0x1980, symBinAddr: 0x100029D90, symSize: 0x90 }
  - { offset: 0x36BD7, size: 0x8, addend: 0x0, symName: __RINvNtCsieiGu2EXtoJ_4core3ptr13drop_in_placeINtNtNtNtB4_4iter8adapters7flatten7FlattenIBH_INtNtB4_6result8IntoIterNtNtCsHUR1vrdMJt_3std2fs7ReadDirEEEECscVIntrQSCr8_17build_script_main, symObjAddr: 0x1A10, symBinAddr: 0x100029E20, symSize: 0x20 }
  - { offset: 0x36C06, size: 0x8, addend: 0x0, symName: __RINvNtCsieiGu2EXtoJ_4core3ptr13drop_in_placeINtNtNtNtB4_4iter8adapters7flatten7FlattenINtNtB4_6result8IntoIterNtNtCsHUR1vrdMJt_3std2fs7ReadDirEEECscVIntrQSCr8_17build_script_main, symObjAddr: 0x1A30, symBinAddr: 0x100029E40, symSize: 0x20 }
  - { offset: 0x36C35, size: 0x8, addend: 0x0, symName: __RINvNtCsieiGu2EXtoJ_4core3ptr13drop_in_placeINtNtNtNtB4_5array4iter10iter_inner15PolymorphicIterAINtNtNtB4_3mem12maybe_uninit11MaybeUninitReEj3_EECscVIntrQSCr8_17build_script_main, symObjAddr: 0x1A50, symBinAddr: 0x100029E60, symSize: 0x20 }
  - { offset: 0x36C64, size: 0x8, addend: 0x0, symName: __RINvNtCsieiGu2EXtoJ_4core3ptr13drop_in_placeINtNtNtNtB4_5array4iter10iter_inner15PolymorphicIterAINtNtNtB4_3mem12maybe_uninit11MaybeUninitReEj6_EECscVIntrQSCr8_17build_script_main, symObjAddr: 0x1A70, symBinAddr: 0x100029E80, symSize: 0x20 }
  - { offset: 0x36C93, size: 0x8, addend: 0x0, symName: __RINvNtCsieiGu2EXtoJ_4core3ptr13drop_in_placeINtNtNtNtCsHUR1vrdMJt_3std11collections4hash3map7HashMapNtNtCslJiobkLta79_5alloc6string6StringINtNtB4_6option6OptionNtNtNtBP_3ffi6os_str8OsStringEEECscVIntrQSCr8_17build_script_main, symObjAddr: 0x1A90, symBinAddr: 0x100029EA0, symSize: 0x20 }
  - { offset: 0x36CC2, size: 0x8, addend: 0x0, symName: __RINvNtCsieiGu2EXtoJ_4core3ptr13drop_in_placeINtNtNtNtCsHUR1vrdMJt_3std11collections4hash3map7HashMapNtNtCslJiobkLta79_5alloc6string6StringNtNtCscVIntrQSCr8_17build_script_main10cc_builder15CompilerFeatureEEB2g_, symObjAddr: 0x1AB0, symBinAddr: 0x100029EC0, symSize: 0x20 }
  - { offset: 0x36CF1, size: 0x8, addend: 0x0, symName: __RINvNtCsieiGu2EXtoJ_4core3ptr13drop_in_placeINtNvXsd_NtNtCslJiobkLta79_5alloc3vec9into_iterINtBP_8IntoIterppENtNtNtB4_3ops4drop4Drop4drop9DropGuardNtNtCsHUR1vrdMJt_3std4path7PathBufNtNtBT_5alloc6GlobalEECscVIntrQSCr8_17build_script_main, symObjAddr: 0x1AD0, symBinAddr: 0x100029EE0, symSize: 0x20 }
  - { offset: 0x36D20, size: 0x8, addend: 0x0, symName: __RINvNtCsieiGu2EXtoJ_4core3ptr13drop_in_placeINtNvXsd_NtNtCslJiobkLta79_5alloc3vec9into_iterINtBP_8IntoIterppENtNtNtB4_3ops4drop4Drop4drop9DropGuardNtNtCscVIntrQSCr8_17build_script_main10cc_builder11BuildOptionNtNtBT_5alloc6GlobalEEB2p_, symObjAddr: 0x1AF0, symBinAddr: 0x100029F00, symSize: 0x20 }
  - { offset: 0x36D4F, size: 0x8, addend: 0x0, symName: __RINvNtCsieiGu2EXtoJ_4core3ptr13drop_in_placeINtNvXsd_NtNtCslJiobkLta79_5alloc3vec9into_iterINtBP_8IntoIterppENtNtNtB4_3ops4drop4Drop4drop9DropGuardReNtNtBT_5alloc6GlobalEECscVIntrQSCr8_17build_script_main, symObjAddr: 0x1B10, symBinAddr: 0x100029F20, symSize: 0x20 }
  - { offset: 0x36D7E, size: 0x8, addend: 0x0, symName: __RINvNtCsieiGu2EXtoJ_4core3ptr13drop_in_placeNCINvMNtNtB4_3ops9try_traitINtBM_17NeverShortCircuituE10wrap_mut_2uReNCINvNvNtNtNtNtB4_4iter6traits8iterator8Iterator8for_each4callB1L_NCINvMsi_NtCslJiobkLta79_5alloc3vecINtB30_3VecB1L_E14extend_trustedINtNtNtB4_5array4iter8IntoIterB1L_Kj2_EE0E0E0ECscVIntrQSCr8_17build_script_main, symObjAddr: 0x1B30, symBinAddr: 0x100029F40, symSize: 0x20 }
  - { offset: 0x36DAD, size: 0x8, addend: 0x0, symName: __RINvNtCsieiGu2EXtoJ_4core3ptr13drop_in_placeNCINvMNtNtB4_3ops9try_traitINtBM_17NeverShortCircuituE10wrap_mut_2uReNCINvNvNtNtNtNtB4_4iter6traits8iterator8Iterator8for_each4callB1L_NCINvMsi_NtCslJiobkLta79_5alloc3vecINtB30_3VecB1L_E14extend_trustedINtNtNtB4_5array4iter8IntoIterB1L_Kj3_EE0E0E0ECscVIntrQSCr8_17build_script_main, symObjAddr: 0x1B50, symBinAddr: 0x100029F60, symSize: 0x20 }
  - { offset: 0x36DDC, size: 0x8, addend: 0x0, symName: __RINvNtCsieiGu2EXtoJ_4core3ptr13drop_in_placeNCINvMNtNtB4_3ops9try_traitINtBM_17NeverShortCircuituE10wrap_mut_2uReNCINvNvNtNtNtNtB4_4iter6traits8iterator8Iterator8for_each4callB1L_NCINvMsi_NtCslJiobkLta79_5alloc3vecINtB30_3VecB1L_E14extend_trustedINtNtNtB4_5array4iter8IntoIterB1L_Kj6_EE0E0E0ECscVIntrQSCr8_17build_script_main, symObjAddr: 0x1B70, symBinAddr: 0x100029F80, symSize: 0x20 }
  - { offset: 0x36E0B, size: 0x8, addend: 0x0, symName: __RINvNtCsieiGu2EXtoJ_4core3ptr13drop_in_placeNCINvMs6_NtNtNtB4_5array4iter10iter_innerINtBP_15PolymorphicIterSINtNtNtB4_3mem12maybe_uninit11MaybeUninitReEE8try_folduNCINvMNtNtB4_3ops9try_traitINtB2I_17NeverShortCircuituE10wrap_mut_2uB2o_NCINvNvNtNtNtNtB4_4iter6traits8iterator8Iterator8for_each4callB2o_NCINvMsi_NtCslJiobkLta79_5alloc3vecINtB4Z_3VecB2o_E14extend_trustedINtBR_8IntoIterB2o_Kj2_EE0E0E0B33_E0ECscVIntrQSCr8_17build_script_main, symObjAddr: 0x1B90, symBinAddr: 0x100029FA0, symSize: 0x20 }
  - { offset: 0x36E3A, size: 0x8, addend: 0x0, symName: __RINvNtCsieiGu2EXtoJ_4core3ptr13drop_in_placeNCINvMs6_NtNtNtB4_5array4iter10iter_innerINtBP_15PolymorphicIterSINtNtNtB4_3mem12maybe_uninit11MaybeUninitReEE8try_folduNCINvMNtNtB4_3ops9try_traitINtB2I_17NeverShortCircuituE10wrap_mut_2uB2o_NCINvNvNtNtNtNtB4_4iter6traits8iterator8Iterator8for_each4callB2o_NCINvMsi_NtCslJiobkLta79_5alloc3vecINtB4Z_3VecB2o_E14extend_trustedINtBR_8IntoIterB2o_Kj3_EE0E0E0B33_E0ECscVIntrQSCr8_17build_script_main, symObjAddr: 0x1BB0, symBinAddr: 0x100029FC0, symSize: 0x20 }
  - { offset: 0x36E69, size: 0x8, addend: 0x0, symName: __RINvNtCsieiGu2EXtoJ_4core3ptr13drop_in_placeNCINvMs6_NtNtNtB4_5array4iter10iter_innerINtBP_15PolymorphicIterSINtNtNtB4_3mem12maybe_uninit11MaybeUninitReEE8try_folduNCINvMNtNtB4_3ops9try_traitINtB2I_17NeverShortCircuituE10wrap_mut_2uB2o_NCINvNvNtNtNtNtB4_4iter6traits8iterator8Iterator8for_each4callB2o_NCINvMsi_NtCslJiobkLta79_5alloc3vecINtB4Z_3VecB2o_E14extend_trustedINtBR_8IntoIterB2o_Kj6_EE0E0E0B33_E0ECscVIntrQSCr8_17build_script_main, symObjAddr: 0x1BD0, symBinAddr: 0x100029FE0, symSize: 0x20 }
  - { offset: 0x36E98, size: 0x8, addend: 0x0, symName: __RINvNtCsieiGu2EXtoJ_4core3ptr13drop_in_placeNCINvMsi_NtCslJiobkLta79_5alloc3vecINtBP_3VecNtNtNtCsHUR1vrdMJt_3std3ffi6os_str8OsStringE14extend_trustedINtNtNtNtB4_4iter8adapters3map3MapINtNtNtB4_5slice4iter4IterNtNtBR_6string6StringENvYRB3l_INtNtB4_7convert4IntoB1p_E4intoEE0ECscVIntrQSCr8_17build_script_main, symObjAddr: 0x1BF0, symBinAddr: 0x10002A000, symSize: 0x20 }
  - { offset: 0x36EC7, size: 0x8, addend: 0x0, symName: __RINvNtCsieiGu2EXtoJ_4core3ptr13drop_in_placeNCINvMsi_NtCslJiobkLta79_5alloc3vecINtBP_3VecNtNtNtCsHUR1vrdMJt_3std3ffi6os_str8OsStringE14extend_trustedINtNtNtNtB4_4iter8adapters3map3MapINtNtNtB4_5slice4iter4IterReENvYB1p_INtNtB4_7convert4FromRB3l_E4fromEE0ECscVIntrQSCr8_17build_script_main, symObjAddr: 0x1C10, symBinAddr: 0x10002A020, symSize: 0x20 }
  - { offset: 0x36EF6, size: 0x8, addend: 0x0, symName: __RINvNtCsieiGu2EXtoJ_4core3ptr13drop_in_placeNCINvMsi_NtCslJiobkLta79_5alloc3vecINtBP_3VecRNtNtNtCsHUR1vrdMJt_3std3ffi6os_str5OsStrE14extend_trustedINtNtNtNtB4_4iter8adapters3map3MapINtNtNtB4_5slice4iter4IterNtB1s_8OsStringENvMs0_B1s_B3j_9as_os_strEE0ECscVIntrQSCr8_17build_script_main, symObjAddr: 0x1C30, symBinAddr: 0x10002A040, symSize: 0x20 }
  - { offset: 0x36F25, size: 0x8, addend: 0x0, symName: __RINvNtCsieiGu2EXtoJ_4core3ptr13drop_in_placeNCINvMsi_NtCslJiobkLta79_5alloc3vecINtBP_3VecReE14extend_trustedINtNtNtB4_5array4iter8IntoIterB1p_Kj2_EE0ECscVIntrQSCr8_17build_script_main, symObjAddr: 0x1C50, symBinAddr: 0x10002A060, symSize: 0x20 }
  - { offset: 0x36F54, size: 0x8, addend: 0x0, symName: __RINvNtCsieiGu2EXtoJ_4core3ptr13drop_in_placeNCINvMsi_NtCslJiobkLta79_5alloc3vecINtBP_3VecReE14extend_trustedINtNtNtB4_5array4iter8IntoIterB1p_Kj3_EE0ECscVIntrQSCr8_17build_script_main, symObjAddr: 0x1C70, symBinAddr: 0x10002A080, symSize: 0x20 }
  - { offset: 0x36F83, size: 0x8, addend: 0x0, symName: __RINvNtCsieiGu2EXtoJ_4core3ptr13drop_in_placeNCINvMsi_NtCslJiobkLta79_5alloc3vecINtBP_3VecReE14extend_trustedINtNtNtB4_5array4iter8IntoIterB1p_Kj6_EE0ECscVIntrQSCr8_17build_script_main, symObjAddr: 0x1C90, symBinAddr: 0x10002A0A0, symSize: 0x20 }
  - { offset: 0x36FB2, size: 0x8, addend: 0x0, symName: __RINvNtCsieiGu2EXtoJ_4core3ptr13drop_in_placeNCINvNtNtNtB4_4iter8adapters3map8map_foldRNtNtCslJiobkLta79_5alloc6string6StringNtNtNtCsHUR1vrdMJt_3std3ffi6os_str8OsStringuNvYB1l_INtNtB4_7convert4IntoB1Y_E4intoNCINvNvNtNtNtBP_6traits8iterator8Iterator8for_each4callB1Y_NCINvMsi_NtB1q_3vecINtB4o_3VecB1Y_E14extend_trustedINtBL_3MapINtNtNtB4_5slice4iter4IterB1m_EB2G_EE0E0E0ECscVIntrQSCr8_17build_script_main, symObjAddr: 0x1CB0, symBinAddr: 0x10002A0C0, symSize: 0x20 }
  - { offset: 0x36FE1, size: 0x8, addend: 0x0, symName: __RINvNtCsieiGu2EXtoJ_4core3ptr13drop_in_placeNCINvNtNtNtB4_4iter8adapters3map8map_foldRNtNtNtCsHUR1vrdMJt_3std3ffi6os_str8OsStringRNtB1o_5OsStruNvMs0_B1o_B1m_9as_os_strNCINvNvNtNtNtBP_6traits8iterator8Iterator8for_each4callB23_NCINvMsi_NtCslJiobkLta79_5alloc3vecINtB3L_3VecB23_E14extend_trustedINtBL_3MapINtNtNtB4_5slice4iter4IterB1m_EB2h_EE0E0E0ECscVIntrQSCr8_17build_script_main, symObjAddr: 0x1CD0, symBinAddr: 0x10002A0E0, symSize: 0x20 }
  - { offset: 0x37010, size: 0x8, addend: 0x0, symName: __RINvNtCsieiGu2EXtoJ_4core3ptr13drop_in_placeNCINvNtNtNtB4_4iter8adapters3map8map_foldRReNtNtNtCsHUR1vrdMJt_3std3ffi6os_str8OsStringuNvYB1o_INtNtB4_7convert4FromB1l_E4fromNCINvNvNtNtNtBP_6traits8iterator8Iterator8for_each4callB1o_NCINvMsi_NtCslJiobkLta79_5alloc3vecINtB3O_3VecB1o_E14extend_trustedINtBL_3MapINtNtNtB4_5slice4iter4IterB1m_EB26_EE0E0E0ECscVIntrQSCr8_17build_script_main, symObjAddr: 0x1CF0, symBinAddr: 0x10002A100, symSize: 0x20 }
  - { offset: 0x3703F, size: 0x8, addend: 0x0, symName: __RINvNtCsieiGu2EXtoJ_4core3ptr13drop_in_placeNCINvNvNtNtNtNtB4_4iter6traits8iterator8Iterator8for_each4callNtNtNtCsHUR1vrdMJt_3std3ffi6os_str8OsStringNCINvMsi_NtCslJiobkLta79_5alloc3vecINtB2w_3VecB1G_E14extend_trustedINtNtNtBT_8adapters3map3MapINtNtNtB4_5slice4iter4IterNtNtB2y_6string6StringENvYRB4j_INtNtB4_7convert4IntoB1G_E4intoEE0E0ECscVIntrQSCr8_17build_script_main, symObjAddr: 0x1D10, symBinAddr: 0x10002A120, symSize: 0x20 }
  - { offset: 0x3706E, size: 0x8, addend: 0x0, symName: __RINvNtCsieiGu2EXtoJ_4core3ptr13drop_in_placeNCINvNvNtNtNtNtB4_4iter6traits8iterator8Iterator8for_each4callNtNtNtCsHUR1vrdMJt_3std3ffi6os_str8OsStringNCINvMsi_NtCslJiobkLta79_5alloc3vecINtB2w_3VecB1G_E14extend_trustedINtNtNtBT_8adapters3map3MapINtNtNtB4_5slice4iter4IterReENvYB1G_INtNtB4_7convert4FromRB4j_E4fromEE0E0ECscVIntrQSCr8_17build_script_main, symObjAddr: 0x1D30, symBinAddr: 0x10002A140, symSize: 0x20 }
  - { offset: 0x3709D, size: 0x8, addend: 0x0, symName: __RINvNtCsieiGu2EXtoJ_4core3ptr13drop_in_placeNCINvNvNtNtNtNtB4_4iter6traits8iterator8Iterator8for_each4callRNtNtNtCsHUR1vrdMJt_3std3ffi6os_str5OsStrNCINvMsi_NtCslJiobkLta79_5alloc3vecINtB2u_3VecB1G_E14extend_trustedINtNtNtBT_8adapters3map3MapINtNtNtB4_5slice4iter4IterNtB1J_8OsStringENvMs0_B1J_B4h_9as_os_strEE0E0ECscVIntrQSCr8_17build_script_main, symObjAddr: 0x1D50, symBinAddr: 0x10002A160, symSize: 0x20 }
  - { offset: 0x370CC, size: 0x8, addend: 0x0, symName: __RINvNtCsieiGu2EXtoJ_4core3ptr13drop_in_placeNCINvNvNtNtNtNtB4_4iter6traits8iterator8Iterator8for_each4callReNCINvMsi_NtCslJiobkLta79_5alloc3vecINtB1R_3VecB1G_E14extend_trustedINtNtNtB4_5array4iter8IntoIterB1G_Kj2_EE0E0ECscVIntrQSCr8_17build_script_main, symObjAddr: 0x1D70, symBinAddr: 0x10002A180, symSize: 0x20 }
  - { offset: 0x370FB, size: 0x8, addend: 0x0, symName: __RINvNtCsieiGu2EXtoJ_4core3ptr13drop_in_placeNCINvNvNtNtNtNtB4_4iter6traits8iterator8Iterator8for_each4callReNCINvMsi_NtCslJiobkLta79_5alloc3vecINtB1R_3VecB1G_E14extend_trustedINtNtNtB4_5array4iter8IntoIterB1G_Kj3_EE0E0ECscVIntrQSCr8_17build_script_main, symObjAddr: 0x1D90, symBinAddr: 0x10002A1A0, symSize: 0x20 }
  - { offset: 0x3712A, size: 0x8, addend: 0x0, symName: __RINvNtCsieiGu2EXtoJ_4core3ptr13drop_in_placeNCINvNvNtNtNtNtB4_4iter6traits8iterator8Iterator8for_each4callReNCINvMsi_NtCslJiobkLta79_5alloc3vecINtB1R_3VecB1G_E14extend_trustedINtNtNtB4_5array4iter8IntoIterB1G_Kj6_EE0E0ECscVIntrQSCr8_17build_script_main, symObjAddr: 0x1DB0, symBinAddr: 0x10002A1C0, symSize: 0x20 }
  - { offset: 0x37159, size: 0x8, addend: 0x0, symName: __RINvNtCsieiGu2EXtoJ_4core3ptr13drop_in_placeNtCsSzEZQkfVAX_5cmake6ConfigECscVIntrQSCr8_17build_script_main, symObjAddr: 0x1DD0, symBinAddr: 0x10002A1E0, symSize: 0x3B0 }
  - { offset: 0x37188, size: 0x8, addend: 0x0, symName: __RINvNtCsieiGu2EXtoJ_4core3ptr13drop_in_placeNtCscVIntrQSCr8_17build_script_main14BindingOptionsEBI_, symObjAddr: 0x2180, symBinAddr: 0x10002A590, symSize: 0x20 }
  - { offset: 0x371B7, size: 0x8, addend: 0x0, symName: __RINvNtCsieiGu2EXtoJ_4core3ptr13drop_in_placeNtCscVIntrQSCr8_17build_script_main17TestCommandResultEBI_, symObjAddr: 0x21A0, symBinAddr: 0x10002A5B0, symSize: 0x60 }
  - { offset: 0x371E6, size: 0x8, addend: 0x0, symName: __RINvNtCsieiGu2EXtoJ_4core3ptr13drop_in_placeNtNtCsHUR1vrdMJt_3std2fs7ReadDirECscVIntrQSCr8_17build_script_main, symObjAddr: 0x2200, symBinAddr: 0x10002A610, symSize: 0x20 }
  - { offset: 0x37215, size: 0x8, addend: 0x0, symName: __RINvNtCsieiGu2EXtoJ_4core3ptr13drop_in_placeNtNtCsHUR1vrdMJt_3std2fs8DirEntryECscVIntrQSCr8_17build_script_main, symObjAddr: 0x2220, symBinAddr: 0x10002A630, symSize: 0x20 }
  - { offset: 0x37244, size: 0x8, addend: 0x0, symName: __RINvNtCsieiGu2EXtoJ_4core3ptr13drop_in_placeNtNtCsPjO8QFnvM3_8fs_extra5error5ErrorECscVIntrQSCr8_17build_script_main, symObjAddr: 0x2240, symBinAddr: 0x10002A650, symSize: 0x60 }
  - { offset: 0x37273, size: 0x8, addend: 0x0, symName: __RINvNtCsieiGu2EXtoJ_4core3ptr13drop_in_placeNtNtCscVIntrQSCr8_17build_script_main10cc_builder11BuildOptionEBK_, symObjAddr: 0x22A0, symBinAddr: 0x10002A6B0, symSize: 0xD0 }
  - { offset: 0x372A2, size: 0x8, addend: 0x0, symName: __RINvNtCsieiGu2EXtoJ_4core3ptr13drop_in_placeNtNtCscVIntrQSCr8_17build_script_main10cc_builder9CcBuilderEBK_, symObjAddr: 0x2370, symBinAddr: 0x10002A780, symSize: 0xB0 }
  - { offset: 0x372D1, size: 0x8, addend: 0x0, symName: __RINvNtCsieiGu2EXtoJ_4core3ptr13drop_in_placeNtNtCscVIntrQSCr8_17build_script_main12nasm_builder11NasmBuilderEBK_, symObjAddr: 0x2420, symBinAddr: 0x10002A830, symSize: 0x110 }
  - { offset: 0x37300, size: 0x8, addend: 0x0, symName: __RINvNtCsieiGu2EXtoJ_4core3ptr13drop_in_placeNtNtCscVIntrQSCr8_17build_script_main13cmake_builder12CmakeBuilderEBK_, symObjAddr: 0x2530, symBinAddr: 0x10002A940, symSize: 0x90 }
  - { offset: 0x3732F, size: 0x8, addend: 0x0, symName: __RINvNtCsieiGu2EXtoJ_4core3ptr13drop_in_placeNtNtNtNtCsHUR1vrdMJt_3std3sys2fs4unix7ReadDirECscVIntrQSCr8_17build_script_main, symObjAddr: 0x25C0, symBinAddr: 0x10002A9D0, symSize: 0x20 }
  - { offset: 0x3735E, size: 0x8, addend: 0x0, symName: __RINvNtCsieiGu2EXtoJ_4core3ptr13drop_in_placeNtNtNtNtCsHUR1vrdMJt_3std3sys2fs4unix8DirEntryECscVIntrQSCr8_17build_script_main, symObjAddr: 0x25E0, symBinAddr: 0x10002A9F0, symSize: 0x20 }
  - { offset: 0x3738D, size: 0x8, addend: 0x0, symName: __RINvNtCsieiGu2EXtoJ_4core3ptr13drop_in_placeSNtNtCscVIntrQSCr8_17build_script_main10cc_builder11BuildOptionEBL_, symObjAddr: 0x2600, symBinAddr: 0x10002AA10, symSize: 0xA0 }
  - { offset: 0x373BC, size: 0x8, addend: 0x0, symName: __RINvNtCsieiGu2EXtoJ_4core3ptr13drop_in_placeSTNtNtCslJiobkLta79_5alloc6string6StringINtNtB4_6option6OptionBI_EEECscVIntrQSCr8_17build_script_main, symObjAddr: 0x26A0, symBinAddr: 0x10002AAB0, symSize: 0xA0 }
  - { offset: 0x373EB, size: 0x8, addend: 0x0, symName: __RINvNtCsieiGu2EXtoJ_4core3ptr13drop_in_placeTNtNtCslJiobkLta79_5alloc6string6StringINtNtB4_6option6OptionBH_EEECscVIntrQSCr8_17build_script_main, symObjAddr: 0x2740, symBinAddr: 0x10002AB50, symSize: 0x60 }
  - { offset: 0x3741A, size: 0x8, addend: 0x0, symName: __RINvNtCsieiGu2EXtoJ_4core3ptr13drop_in_placeTNtNtCslJiobkLta79_5alloc6string6StringNtNtCscVIntrQSCr8_17build_script_main10cc_builder15CompilerFeatureEEB1n_, symObjAddr: 0x27A0, symBinAddr: 0x10002ABB0, symSize: 0x20 }
  - { offset: 0x375E5, size: 0x8, addend: 0x0, symName: __RNvNvNtCsieiGu2EXtoJ_4core3ptr19copy_nonoverlapping18precondition_checkCscVIntrQSCr8_17build_script_main, symObjAddr: 0x3330, symBinAddr: 0x10002B740, symSize: 0x4B0 }
  - { offset: 0x39B04, size: 0x8, addend: 0x0, symName: __RINvXs2E_NtNtCsieiGu2EXtoJ_4core5slice4iterINtB7_4IterNtNtCscVIntrQSCr8_17build_script_main10cc_builder15CompilerFeatureENtNtNtNtBb_4iter6traits8iterator8Iterator3anyNCNvXsf_NtB9_3cmpBQ_NtB2M_13SliceContains14slice_contains0EBU_, symObjAddr: 0x27C0, symBinAddr: 0x10002ABD0, symSize: 0xA0 }
  - { offset: 0x39B69, size: 0x8, addend: 0x0, symName: __RINvXs2E_NtNtCsieiGu2EXtoJ_4core5slice4iterINtB7_4IterNtNtCslJiobkLta79_5alloc6string6StringENtNtNtNtBb_4iter6traits8iterator8Iterator4folduNCINvNtNtB1z_8adapters3map8map_foldRBQ_NtNtNtCsHUR1vrdMJt_3std3ffi6os_str8OsStringuNvYB2N_INtNtBb_7convert4IntoB2R_E4intoNCINvNvB1t_8for_each4callB2R_NCINvMsi_NtBU_3vecINtB4N_3VecB2R_E14extend_trustedINtB2j_3MapBF_B3z_EE0E0E0ECscVIntrQSCr8_17build_script_main, symObjAddr: 0x2860, symBinAddr: 0x10002AC70, symSize: 0x190 }
  - { offset: 0x39CAA, size: 0x8, addend: 0x0, symName: __RINvXs2E_NtNtCsieiGu2EXtoJ_4core5slice4iterINtB7_4IterNtNtNtCsHUR1vrdMJt_3std3ffi6os_str8OsStringENtNtNtNtBb_4iter6traits8iterator8Iterator4folduNCINvNtNtB1E_8adapters3map8map_foldRBQ_RNtBS_5OsStruNvMs0_BS_BQ_9as_os_strNCINvNvB1y_8for_each4callB2W_NCINvMsi_NtCslJiobkLta79_5alloc3vecINtB47_3VecB2W_E14extend_trustedINtB2o_3MapBF_B39_EE0E0E0ECscVIntrQSCr8_17build_script_main, symObjAddr: 0x29F0, symBinAddr: 0x10002AE00, symSize: 0x190 }
  - { offset: 0x39DEB, size: 0x8, addend: 0x0, symName: __RINvXs2E_NtNtCsieiGu2EXtoJ_4core5slice4iterINtB7_4IterReENtNtNtNtBb_4iter6traits8iterator8Iterator4folduNCINvNtNtBZ_8adapters3map8map_foldRBQ_NtNtNtCsHUR1vrdMJt_3std3ffi6os_str8OsStringuNvYB2g_INtNtBb_7convert4FromB2c_E4fromNCINvNvBT_8for_each4callB2g_NCINvMsi_NtCslJiobkLta79_5alloc3vecINtB4b_3VecB2g_E14extend_trustedINtB1J_3MapBF_B2Y_EE0E0E0ECscVIntrQSCr8_17build_script_main, symObjAddr: 0x2B80, symBinAddr: 0x10002AF90, symSize: 0x190 }
  - { offset: 0x39F2C, size: 0x8, addend: 0x0, symName: __RNvXs2E_NtNtCsieiGu2EXtoJ_4core5slice4iterINtB6_4IterNtNtCscVIntrQSCr8_17build_script_main10cc_builder11BuildOptionENtNtNtNtBa_4iter6traits8iterator8Iterator4nextBT_, symObjAddr: 0x3FF0, symBinAddr: 0x10002C400, symSize: 0x90 }
  - { offset: 0x3A04D, size: 0x8, addend: 0x0, symName: __RNvXs2E_NtNtCsieiGu2EXtoJ_4core5slice4iterINtB6_4IterNtNtCscVIntrQSCr8_17build_script_main10cc_builder15CompilerFeatureENtNtNtNtBa_4iter6traits8iterator8Iterator4nextBT_, symObjAddr: 0x4080, symBinAddr: 0x10002C490, symSize: 0xA0 }
  - { offset: 0x3A120, size: 0x8, addend: 0x0, symName: __RNvXs2E_NtNtCsieiGu2EXtoJ_4core5slice4iterINtB6_4IterNtNtNtCsHUR1vrdMJt_3std3ffi6os_str8OsStringENtNtNtNtBa_4iter6traits8iterator8Iterator9size_hintCscVIntrQSCr8_17build_script_main, symObjAddr: 0x4120, symBinAddr: 0x10002C530, symSize: 0x60 }
  - { offset: 0x3A18F, size: 0x8, addend: 0x0, symName: __RNvXs2E_NtNtCsieiGu2EXtoJ_4core5slice4iterINtB6_4IterRNtNtNtCsHUR1vrdMJt_3std3ffi6os_str5OsStrENtNtNtNtBa_4iter6traits8iterator8Iterator4nextCscVIntrQSCr8_17build_script_main, symObjAddr: 0x4180, symBinAddr: 0x10002C590, symSize: 0x90 }
  - { offset: 0x3A2B0, size: 0x8, addend: 0x0, symName: __RNvXs2E_NtNtCsieiGu2EXtoJ_4core5slice4iterINtB6_4IterReENtNtNtNtBa_4iter6traits8iterator8Iterator9size_hintCscVIntrQSCr8_17build_script_main, symObjAddr: 0x4210, symBinAddr: 0x10002C620, symSize: 0x60 }
  - { offset: 0x3A31F, size: 0x8, addend: 0x0, symName: __RNvXs2E_NtNtCsieiGu2EXtoJ_4core5slice4iterINtB6_4IterTNtNtCslJiobkLta79_5alloc6string6StringINtNtBa_6option6OptionBQ_EEENtNtNtNtBa_4iter6traits8iterator8Iterator4nextCscVIntrQSCr8_17build_script_main, symObjAddr: 0x4270, symBinAddr: 0x10002C680, symSize: 0x90 }
  - { offset: 0x3A590, size: 0x8, addend: 0x0, symName: __RNvNvNtNtCsieiGu2EXtoJ_4core5slice3raw14from_raw_parts18precondition_checkCscVIntrQSCr8_17build_script_main, symObjAddr: 0x38D0, symBinAddr: 0x10002BCE0, symSize: 0x260 }
  - { offset: 0x3A75E, size: 0x8, addend: 0x0, symName: __RNvNvNtNtCsieiGu2EXtoJ_4core5slice3raw18from_raw_parts_mut18precondition_checkCscVIntrQSCr8_17build_script_main, symObjAddr: 0x3B30, symBinAddr: 0x10002BF40, symSize: 0x260 }
  - { offset: 0x3A937, size: 0x8, addend: 0x0, symName: __RNvNvXs0_NtNtCsieiGu2EXtoJ_4core5slice5indexjINtB7_10SliceIndexSpE13get_unchecked18precondition_checkCscVIntrQSCr8_17build_script_main, symObjAddr: 0x3D90, symBinAddr: 0x10002C1A0, symSize: 0xA0 }
  - { offset: 0x3A9A0, size: 0x8, addend: 0x0, symName: __RNvXs0_NtNtCsieiGu2EXtoJ_4core5slice5indexjINtB5_10SliceIndexSReE5indexCscVIntrQSCr8_17build_script_main, symObjAddr: 0x3F50, symBinAddr: 0x10002C360, symSize: 0x50 }
  - { offset: 0x3A9F1, size: 0x8, addend: 0x0, symName: __RNvNvXs2_NtNtCsieiGu2EXtoJ_4core5slice5indexINtNtNtBb_3ops5range5RangejEINtB7_10SliceIndexSpE17get_unchecked_mut18precondition_checkCscVIntrQSCr8_17build_script_main, symObjAddr: 0x3E30, symBinAddr: 0x10002C240, symSize: 0xC0 }
  - { offset: 0x3AAE6, size: 0x8, addend: 0x0, symName: __RINvXs_NtNtCsieiGu2EXtoJ_4core3ops11index_rangeNtB5_10IndexRangeNtNtNtNtB9_4iter6traits8iterator8Iterator8try_folduNCINvMs6_NtNtNtB9_5array4iter10iter_innerINtB1Y_15PolymorphicIterSINtNtNtB9_3mem12maybe_uninit11MaybeUninitReEE8try_folduNCINvMNtB7_9try_traitINtB3S_17NeverShortCircuituE10wrap_mut_2uB3y_NCINvNvB10_8for_each4callB3y_NCINvMsi_NtCslJiobkLta79_5alloc3vecINtB5s_3VecB3y_E14extend_trustedINtB20_8IntoIterB3y_Kj2_EE0E0E0B47_E0B47_ECscVIntrQSCr8_17build_script_main, symObjAddr: 0x2D10, symBinAddr: 0x10002B120, symSize: 0x110 }
  - { offset: 0x3ABE1, size: 0x8, addend: 0x0, symName: __RINvXs_NtNtCsieiGu2EXtoJ_4core3ops11index_rangeNtB5_10IndexRangeNtNtNtNtB9_4iter6traits8iterator8Iterator8try_folduNCINvMs6_NtNtNtB9_5array4iter10iter_innerINtB1Y_15PolymorphicIterSINtNtNtB9_3mem12maybe_uninit11MaybeUninitReEE8try_folduNCINvMNtB7_9try_traitINtB3S_17NeverShortCircuituE10wrap_mut_2uB3y_NCINvNvB10_8for_each4callB3y_NCINvMsi_NtCslJiobkLta79_5alloc3vecINtB5s_3VecB3y_E14extend_trustedINtB20_8IntoIterB3y_Kj3_EE0E0E0B47_E0B47_ECscVIntrQSCr8_17build_script_main, symObjAddr: 0x2E20, symBinAddr: 0x10002B230, symSize: 0x110 }
  - { offset: 0x3ACDC, size: 0x8, addend: 0x0, symName: __RINvXs_NtNtCsieiGu2EXtoJ_4core3ops11index_rangeNtB5_10IndexRangeNtNtNtNtB9_4iter6traits8iterator8Iterator8try_folduNCINvMs6_NtNtNtB9_5array4iter10iter_innerINtB1Y_15PolymorphicIterSINtNtNtB9_3mem12maybe_uninit11MaybeUninitReEE8try_folduNCINvMNtB7_9try_traitINtB3S_17NeverShortCircuituE10wrap_mut_2uB3y_NCINvNvB10_8for_each4callB3y_NCINvMsi_NtCslJiobkLta79_5alloc3vecINtB5s_3VecB3y_E14extend_trustedINtB20_8IntoIterB3y_Kj6_EE0E0E0B47_E0B47_ECscVIntrQSCr8_17build_script_main, symObjAddr: 0x2F30, symBinAddr: 0x10002B340, symSize: 0x110 }
  - { offset: 0x3ADE3, size: 0x8, addend: 0x0, symName: __RNSNvYNCINvMs6_NtCsjK30CmJ87bX_9hashbrown3rawINtBd_8RawTableTNtNtCslJiobkLta79_5alloc6string6StringNtNtCscVIntrQSCr8_17build_script_main10cc_builder15CompilerFeatureEE14reserve_rehashNCINvNtBf_3map11make_hasherBX_B1z_NtNtNtCsHUR1vrdMJt_3std4hash6random11RandomStateE0E0INtNtNtCsieiGu2EXtoJ_4core3ops8function6FnOnceTQNtBd_13RawTableInnerjEE9call_once6vtableB1D_, symObjAddr: 0x3220, symBinAddr: 0x10002B630, symSize: 0x30 }
  - { offset: 0x3AE27, size: 0x8, addend: 0x0, symName: __RNSNvYNCINvMs6_NtCsjK30CmJ87bX_9hashbrown3rawINtBd_8RawTableTNtNtCslJiobkLta79_5alloc6string6StringNtNtCscVIntrQSCr8_17build_script_main10cc_builder15CompilerFeatureEE24find_or_find_insert_slotNCINvNtBf_3map14equivalent_keyBX_BX_B1z_E0NCINvB3a_11make_hasherBX_B1z_NtNtNtCsHUR1vrdMJt_3std4hash6random11RandomStateE0E0INtNtNtCsieiGu2EXtoJ_4core3ops8function6FnOnceTjEE9call_once6vtableB1D_, symObjAddr: 0x3250, symBinAddr: 0x10002B660, symSize: 0x30 }
  - { offset: 0x3AE6B, size: 0x8, addend: 0x0, symName: __RNSNvYNCINvMs6_NtCsjK30CmJ87bX_9hashbrown3rawINtBd_8RawTableTNtNtCslJiobkLta79_5alloc6string6StringNtNtCscVIntrQSCr8_17build_script_main10cc_builder15CompilerFeatureEE4findNCINvNtBf_3map14equivalent_keyBX_BX_B1z_E0E0INtNtNtCsieiGu2EXtoJ_4core3ops8function6FnOnceTjEE9call_once6vtableB1D_, symObjAddr: 0x3280, symBinAddr: 0x10002B690, symSize: 0x30 }
  - { offset: 0x3AEAF, size: 0x8, addend: 0x0, symName: __RNSNvYNCINvNtCsHUR1vrdMJt_3std2rt10lang_startuE0INtNtNtCsieiGu2EXtoJ_4core3ops8function6FnOnceuE9call_once6vtableCscVIntrQSCr8_17build_script_main, symObjAddr: 0x32B0, symBinAddr: 0x10002B6C0, symSize: 0x20 }
  - { offset: 0x3AEF3, size: 0x8, addend: 0x0, symName: __RNvYFEuINtNtNtCsieiGu2EXtoJ_4core3ops8function6FnOnceuE9call_onceCscVIntrQSCr8_17build_script_main, symObjAddr: 0x4340, symBinAddr: 0x10002C740, symSize: 0x20 }
  - { offset: 0x3AF33, size: 0x8, addend: 0x0, symName: __RNvYNCINvMs6_NtCsjK30CmJ87bX_9hashbrown3rawINtBb_8RawTableTNtNtCslJiobkLta79_5alloc6string6StringNtNtCscVIntrQSCr8_17build_script_main10cc_builder15CompilerFeatureEE14reserve_rehashNCINvNtBd_3map11make_hasherBV_B1x_NtNtNtCsHUR1vrdMJt_3std4hash6random11RandomStateE0E0INtNtNtCsieiGu2EXtoJ_4core3ops8function6FnOnceTQNtBb_13RawTableInnerjEE9call_onceB1B_, symObjAddr: 0x43F0, symBinAddr: 0x10002C7F0, symSize: 0x50 }
  - { offset: 0x3AF77, size: 0x8, addend: 0x0, symName: __RNvYNCINvMs6_NtCsjK30CmJ87bX_9hashbrown3rawINtBb_8RawTableTNtNtCslJiobkLta79_5alloc6string6StringNtNtCscVIntrQSCr8_17build_script_main10cc_builder15CompilerFeatureEE14reserve_rehashNCINvNtBd_3map11make_hasherBV_B1x_NtNtNtCsHUR1vrdMJt_3std4hash6random11RandomStateE0Es_0INtNtNtCsieiGu2EXtoJ_4core3ops8function6FnOnceTOhEE9call_onceB1B_, symObjAddr: 0x4440, symBinAddr: 0x10002C840, symSize: 0x40 }
  - { offset: 0x3AFB7, size: 0x8, addend: 0x0, symName: __RNvYNCINvMs6_NtCsjK30CmJ87bX_9hashbrown3rawINtBb_8RawTableTNtNtCslJiobkLta79_5alloc6string6StringNtNtCscVIntrQSCr8_17build_script_main10cc_builder15CompilerFeatureEE24find_or_find_insert_slotNCINvNtBd_3map14equivalent_keyBV_BV_B1x_E0NCINvB38_11make_hasherBV_B1x_NtNtNtCsHUR1vrdMJt_3std4hash6random11RandomStateE0E0INtNtNtCsieiGu2EXtoJ_4core3ops8function6FnOnceTjEE9call_onceB1B_, symObjAddr: 0x4480, symBinAddr: 0x10002C880, symSize: 0x50 }
  - { offset: 0x3AFFB, size: 0x8, addend: 0x0, symName: __RNvYNCINvMs6_NtCsjK30CmJ87bX_9hashbrown3rawINtBb_8RawTableTNtNtCslJiobkLta79_5alloc6string6StringNtNtCscVIntrQSCr8_17build_script_main10cc_builder15CompilerFeatureEE4findNCINvNtBd_3map14equivalent_keyBV_BV_B1x_E0E0INtNtNtCsieiGu2EXtoJ_4core3ops8function6FnOnceTjEE9call_onceB1B_, symObjAddr: 0x44D0, symBinAddr: 0x10002C8D0, symSize: 0x50 }
  - { offset: 0x3B03F, size: 0x8, addend: 0x0, symName: __RNvYNCINvNtCsHUR1vrdMJt_3std2rt10lang_startuE0INtNtNtCsieiGu2EXtoJ_4core3ops8function6FnOnceuE9call_onceCscVIntrQSCr8_17build_script_main, symObjAddr: 0x4520, symBinAddr: 0x10002C920, symSize: 0x40 }
  - { offset: 0x3B083, size: 0x8, addend: 0x0, symName: __RNvYNCNkNvNvMNtNtCsHUR1vrdMJt_3std4hash6randomNtBb_11RandomState3new4KEYS0s_0INtNtNtCsieiGu2EXtoJ_4core3ops8function6FnOnceTINtNtB1k_6option6OptionQIB1Z_INtNtB1k_4cell4CellTyyEEEEEE9call_onceCscVIntrQSCr8_17build_script_main, symObjAddr: 0x4560, symBinAddr: 0x10002C960, symSize: 0x40 }
  - { offset: 0x3B0C7, size: 0x8, addend: 0x0, symName: __RNvYNvYNtNtCsHUR1vrdMJt_3std2fs7ReadDirNtNtNtNtCsieiGu2EXtoJ_4core4iter6traits8iterator8Iterator4nextINtNtNtBJ_3ops8function6FnOnceTQB5_EE9call_onceCscVIntrQSCr8_17build_script_main, symObjAddr: 0x45F0, symBinAddr: 0x10002C9F0, symSize: 0x30 }
  - { offset: 0x3B10B, size: 0x8, addend: 0x0, symName: __RNvYNvYReINtNtCsieiGu2EXtoJ_4core7convert4IntoINtNtCslJiobkLta79_5alloc4sync3ArceEE4intoINtNtNtBc_3ops8function6FnOnceTB5_EE9call_onceCscVIntrQSCr8_17build_script_main, symObjAddr: 0x4690, symBinAddr: 0x10002CA90, symSize: 0x30 }
  - { offset: 0x3B155, size: 0x8, addend: 0x0, symName: __RNvYINvNvNtNtNtNtCsieiGu2EXtoJ_4core4iter6traits8iterator8Iterator4last4someNtNtCsHUR1vrdMJt_3std4path9ComponentEINtNtNtBf_3ops8function5FnMutTINtNtBf_6option6OptionB1c_EB1c_EE8call_mutCscVIntrQSCr8_17build_script_main, symObjAddr: 0x4360, symBinAddr: 0x10002C760, symSize: 0x90 }
  - { offset: 0x3B19A, size: 0x8, addend: 0x0, symName: __RNvYNvMs0_NtNtCsHUR1vrdMJt_3std3ffi6os_strNtB8_8OsString9as_os_strINtNtNtCsieiGu2EXtoJ_4core3ops8function5FnMutTRBE_EE8call_mutCscVIntrQSCr8_17build_script_main, symObjAddr: 0x45A0, symBinAddr: 0x10002C9A0, symSize: 0x20 }
  - { offset: 0x3B1DE, size: 0x8, addend: 0x0, symName: __RNvYNvMs9_NtCsieiGu2EXtoJ_4core3numj11checked_addINtNtNtBa_3ops8function5FnMutTjjEE8call_mutCscVIntrQSCr8_17build_script_main, symObjAddr: 0x45C0, symBinAddr: 0x10002C9C0, symSize: 0x30 }
  - { offset: 0x3B222, size: 0x8, addend: 0x0, symName: __RNvYNvYNtNtNtCsHUR1vrdMJt_3std3ffi6os_str8OsStringINtNtCsieiGu2EXtoJ_4core7convert4FromRReE4fromINtNtNtBR_3ops8function5FnMutTB1n_EE8call_mutCscVIntrQSCr8_17build_script_main, symObjAddr: 0x4620, symBinAddr: 0x10002CA20, symSize: 0x30 }
  - { offset: 0x3B266, size: 0x8, addend: 0x0, symName: __RNvYNvYRNtNtCslJiobkLta79_5alloc6string6StringINtNtCsieiGu2EXtoJ_4core7convert4IntoNtNtNtCsHUR1vrdMJt_3std3ffi6os_str8OsStringE4intoINtNtNtBN_3ops8function5FnMutTB5_EE8call_mutCscVIntrQSCr8_17build_script_main, symObjAddr: 0x4650, symBinAddr: 0x10002CA50, symSize: 0x40 }
  - { offset: 0x3B378, size: 0x8, addend: 0x0, symName: __RINvYINtNtNtCsieiGu2EXtoJ_4core5slice4iter4IterNtNtCslJiobkLta79_5alloc6string6StringENtNtNtNtBa_4iter6traits8iterator8Iterator3mapNtNtNtCsHUR1vrdMJt_3std3ffi6os_str8OsStringNvYRBJ_INtNtBa_7convert4IntoB25_E4intoECscVIntrQSCr8_17build_script_main, symObjAddr: 0x3040, symBinAddr: 0x10002B450, symSize: 0x20 }
  - { offset: 0x3B3D0, size: 0x8, addend: 0x0, symName: __RINvYINtNtNtCsieiGu2EXtoJ_4core5slice4iter4IterNtNtNtCsHUR1vrdMJt_3std3ffi6os_str8OsStringENtNtNtNtBa_4iter6traits8iterator8Iterator3mapRNtBL_5OsStrNvMs0_BL_BJ_9as_os_strECscVIntrQSCr8_17build_script_main, symObjAddr: 0x3060, symBinAddr: 0x10002B470, symSize: 0x20 }
  - { offset: 0x3B428, size: 0x8, addend: 0x0, symName: __RINvYINtNtNtCsieiGu2EXtoJ_4core5slice4iter4IterReENtNtNtNtBa_4iter6traits8iterator8Iterator3mapNtNtNtCsHUR1vrdMJt_3std3ffi6os_str8OsStringNvYB1v_INtNtBa_7convert4FromRBJ_E4fromECscVIntrQSCr8_17build_script_main, symObjAddr: 0x3080, symBinAddr: 0x10002B490, symSize: 0x20 }
  - { offset: 0x3B480, size: 0x8, addend: 0x0, symName: __RINvYINtNtNtCsieiGu2EXtoJ_4core5slice4iter4IterReENtNtNtNtBa_4iter6traits8iterator8Iterator8try_foldjNCINvNtNtBS_8adapters3map12map_try_foldRBJ_jjINtNtBa_6option6OptionjENCNCINvNtCslJiobkLta79_5alloc3str17join_generic_copyehBJ_E00NvMs9_NtBa_3numj11checked_addE0B2k_ECscVIntrQSCr8_17build_script_main, symObjAddr: 0x30A0, symBinAddr: 0x10002B4B0, symSize: 0x180 }
  - { offset: 0x3B5BE, size: 0x8, addend: 0x0, symName: __RNvXNtNtNtCsieiGu2EXtoJ_4core4iter6traits7collectINtNtNtB8_5slice4iter4IterNtNtCsHUR1vrdMJt_3std4path7PathBufENtB2_12IntoIterator9into_iterCscVIntrQSCr8_17build_script_main, symObjAddr: 0x3F10, symBinAddr: 0x10002C320, symSize: 0x20 }
  - { offset: 0x3B5F5, size: 0x8, addend: 0x0, symName: __RNvXNtNtNtCsieiGu2EXtoJ_4core4iter6traits7collectINtNtNtB8_5slice4iter4IterRNtNtNtCsHUR1vrdMJt_3std3ffi6os_str5OsStrENtB2_12IntoIterator9into_iterCscVIntrQSCr8_17build_script_main, symObjAddr: 0x3F30, symBinAddr: 0x10002C340, symSize: 0x20 }
  - { offset: 0x3B893, size: 0x8, addend: 0x0, symName: __RNvXNtCsieiGu2EXtoJ_4core7convertRReINtB2_5AsRefNtNtCsHUR1vrdMJt_3std4path4PathE6as_refCscVIntrQSCr8_17build_script_main, symObjAddr: 0x3EF0, symBinAddr: 0x10002C300, symSize: 0x20 }
  - { offset: 0x3B8D9, size: 0x8, addend: 0x0, symName: __RNvXs1_NtCsieiGu2EXtoJ_4core7convertReINtB5_4IntoINtNtB7_6option6OptionBy_EE4intoCscVIntrQSCr8_17build_script_main, symObjAddr: 0x3FA0, symBinAddr: 0x10002C3B0, symSize: 0x20 }
  - { offset: 0x3B919, size: 0x8, addend: 0x0, symName: __RNvXs1_NtCsieiGu2EXtoJ_4core7convertReINtB5_4IntoNtNtCslJiobkLta79_5alloc6string6StringE4intoCscVIntrQSCr8_17build_script_main, symObjAddr: 0x3FC0, symBinAddr: 0x10002C3D0, symSize: 0x30 }
  - { offset: 0x3BBE3, size: 0x8, addend: 0x0, symName: __RNvNvNtNtCsieiGu2EXtoJ_4core4char7convert18from_u32_unchecked18precondition_checkCscVIntrQSCr8_17build_script_main, symObjAddr: 0x37E0, symBinAddr: 0x10002BBF0, symSize: 0xF0 }
  - { offset: 0x3BCA6, size: 0x8, addend: 0x0, symName: __RNvXsh_NtNtCsieiGu2EXtoJ_4core3cmp5implsbNtB7_9PartialEq2eqCscVIntrQSCr8_17build_script_main, symObjAddr: 0x4320, symBinAddr: 0x10002C720, symSize: 0x20 }
  - { offset: 0x3CF33, size: 0x8, addend: 0x0, symName: __RINvMCsSzEZQkfVAX_5cmakeNtB3_6Config13configure_argReECscVIntrQSCr8_17build_script_main, symObjAddr: 0x0, symBinAddr: 0x100028450, symSize: 0x90 }
  - { offset: 0x3CF6E, size: 0x8, addend: 0x0, symName: __RINvMCsSzEZQkfVAX_5cmakeNtB3_6Config17generator_toolsetNtNtCslJiobkLta79_5alloc6string6StringECscVIntrQSCr8_17build_script_main, symObjAddr: 0x90, symBinAddr: 0x1000284E0, symSize: 0x110 }
  - { offset: 0x3D01D, size: 0x8, addend: 0x0, symName: __RINvMCsSzEZQkfVAX_5cmakeNtB3_6Config3newRNtNtCsHUR1vrdMJt_3std4path7PathBufECscVIntrQSCr8_17build_script_main, symObjAddr: 0x1A0, symBinAddr: 0x1000285F0, symSize: 0x7A0 }
  - { offset: 0x3D080, size: 0x8, addend: 0x0, symName: __RINvMCsSzEZQkfVAX_5cmakeNtB3_6Config5cflagNtNtCslJiobkLta79_5alloc6string6StringECscVIntrQSCr8_17build_script_main, symObjAddr: 0x940, symBinAddr: 0x100028D90, symSize: 0xB0 }
  - { offset: 0x3D0C7, size: 0x8, addend: 0x0, symName: __RINvMCsSzEZQkfVAX_5cmakeNtB3_6Config5cflagRNtNtCslJiobkLta79_5alloc6string6StringECscVIntrQSCr8_17build_script_main, symObjAddr: 0x9F0, symBinAddr: 0x100028E40, symSize: 0x90 }
  - { offset: 0x3D100, size: 0x8, addend: 0x0, symName: __RINvMCsSzEZQkfVAX_5cmakeNtB3_6Config5cflagReECscVIntrQSCr8_17build_script_main, symObjAddr: 0xA80, symBinAddr: 0x100028ED0, symSize: 0x90 }
  - { offset: 0x3D139, size: 0x8, addend: 0x0, symName: __RINvMCsSzEZQkfVAX_5cmakeNtB3_6Config6defineReNtNtCslJiobkLta79_5alloc6string6StringECscVIntrQSCr8_17build_script_main, symObjAddr: 0xB10, symBinAddr: 0x100028F60, symSize: 0x170 }
  - { offset: 0x3D18E, size: 0x8, addend: 0x0, symName: __RINvMCsSzEZQkfVAX_5cmakeNtB3_6Config7asmflagReECscVIntrQSCr8_17build_script_main, symObjAddr: 0xC80, symBinAddr: 0x1000290D0, symSize: 0x90 }
  - { offset: 0x3D1C9, size: 0x8, addend: 0x0, symName: __RINvMCsSzEZQkfVAX_5cmakeNtB3_6Config7cxxflagReECscVIntrQSCr8_17build_script_main, symObjAddr: 0xD10, symBinAddr: 0x100029160, symSize: 0x90 }
  - { offset: 0x3D278, size: 0x8, addend: 0x0, symName: __RINvMs5_NtNtCsieiGu2EXtoJ_4core3fmt8buildersNtB6_9DebugList7entriesRNtNtCsHUR1vrdMJt_3std4path7PathBufINtNtNtBa_5slice4iter4IterB14_EECscVIntrQSCr8_17build_script_main, symObjAddr: 0xDA0, symBinAddr: 0x1000291F0, symSize: 0xD0 }
  - { offset: 0x3D2FE, size: 0x8, addend: 0x0, symName: __RINvMs5_NtNtCsieiGu2EXtoJ_4core3fmt8buildersNtB6_9DebugList7entriesRRNtNtNtCsHUR1vrdMJt_3std3ffi6os_str5OsStrINtNtNtBa_5slice4iter4IterB14_EECscVIntrQSCr8_17build_script_main, symObjAddr: 0xE70, symBinAddr: 0x1000292C0, symSize: 0xD0 }
  - { offset: 0x3D4E3, size: 0x8, addend: 0x0, symName: __RINvMsk_NtCsHUR1vrdMJt_3std7processNtB6_7Command4argsRSRNtNtNtB8_3ffi6os_str5OsStrRBR_ECscVIntrQSCr8_17build_script_main, symObjAddr: 0xF40, symBinAddr: 0x100029390, symSize: 0xE0 }
  - { offset: 0x3D795, size: 0x8, addend: 0x0, symName: __RNvMsI_NtCsHUR1vrdMJt_3std7processNtB5_10ExitStatus7successCscVIntrQSCr8_17build_script_main, symObjAddr: 0x32D0, symBinAddr: 0x10002B6E0, symSize: 0x60 }
  - { offset: 0x3E7B3, size: 0x8, addend: 0x0, symName: __RINvMNtCslJiobkLta79_5alloc5sliceSNtNtCsHUR1vrdMJt_3std4path7PathBuf8into_vecNtNtB5_5alloc6GlobalECscVIntrQSCr8_17build_script_main, symObjAddr: 0x0, symBinAddr: 0x10002CAC0, symSize: 0x40 }
  - { offset: 0x3E7EA, size: 0x8, addend: 0x0, symName: __RNCINvNtCsHUR1vrdMJt_3std2rt10lang_startuE0CscVIntrQSCr8_17build_script_main, symObjAddr: 0x1270, symBinAddr: 0x10002DD30, symSize: 0x30 }
  - { offset: 0x3E854, size: 0x8, addend: 0x0, symName: __RINvNtCsHUR1vrdMJt_3std2rt10lang_startuECscVIntrQSCr8_17build_script_main, symObjAddr: 0x930, symBinAddr: 0x10002D3F0, symSize: 0x40 }
  - { offset: 0x3EFC2, size: 0x8, addend: 0x0, symName: __RNvXsH_NtCsHUR1vrdMJt_3std4pathNtB5_7PathBufNtNtNtCsieiGu2EXtoJ_4core3ops5deref5Deref5derefCscVIntrQSCr8_17build_script_main, symObjAddr: 0x2B60, symBinAddr: 0x10002F610, symSize: 0x30 }
  - { offset: 0x3F050, size: 0x8, addend: 0x0, symName: __RNvXs15_NtCsHUR1vrdMJt_3std4pathNtB6_7PathBufINtNtCsieiGu2EXtoJ_4core7convert5AsRefNtNtNtB8_3ffi6os_str5OsStrE6as_refCscVIntrQSCr8_17build_script_main, symObjAddr: 0x2590, symBinAddr: 0x10002F040, symSize: 0x20 }
  - { offset: 0x3F084, size: 0x8, addend: 0x0, symName: __RNvXs1r_NtCsHUR1vrdMJt_3std4pathNtB6_7PathBufINtNtCsieiGu2EXtoJ_4core7convert5AsRefNtB6_4PathE6as_refCscVIntrQSCr8_17build_script_main, symObjAddr: 0x29A0, symBinAddr: 0x10002F450, symSize: 0x30 }
  - { offset: 0x3F147, size: 0x8, addend: 0x0, symName: __RNvXsC_NtCsHUR1vrdMJt_3std4pathNtB5_7PathBufINtNtCsieiGu2EXtoJ_4core7convert4FromNtNtCslJiobkLta79_5alloc6string6StringE4fromCscVIntrQSCr8_17build_script_main, symObjAddr: 0x2A80, symBinAddr: 0x10002F530, symSize: 0x70 }
  - { offset: 0x3F1BB, size: 0x8, addend: 0x0, symName: __RNvXss_NtCsHUR1vrdMJt_3std4pathNtB5_7PathBufNtNtCsieiGu2EXtoJ_4core5clone5Clone5cloneCscVIntrQSCr8_17build_script_main, symObjAddr: 0x3000, symBinAddr: 0x10002FAB0, symSize: 0x90 }
  - { offset: 0x3F3EB, size: 0x8, addend: 0x0, symName: __RNvXsX_NtNtCsHUR1vrdMJt_3std3ffi6os_strNtNtCslJiobkLta79_5alloc6string6StringINtNtCsieiGu2EXtoJ_4core7convert5AsRefNtB5_5OsStrE6as_refCscVIntrQSCr8_17build_script_main, symObjAddr: 0x2BF0, symBinAddr: 0x10002F6A0, symSize: 0x70 }
  - { offset: 0x3F9E7, size: 0x8, addend: 0x0, symName: __RINvNtCsHUR1vrdMJt_3std2fs10create_dirRNtNtB4_4path7PathBufECscVIntrQSCr8_17build_script_main, symObjAddr: 0x450, symBinAddr: 0x10002CF10, symSize: 0x70 }
  - { offset: 0x3FA33, size: 0x8, addend: 0x0, symName: __RINvNtCsHUR1vrdMJt_3std2fs11remove_fileNtNtB4_4path7PathBufECscVIntrQSCr8_17build_script_main, symObjAddr: 0x4C0, symBinAddr: 0x10002CF80, symSize: 0x70 }
  - { offset: 0x3FA6B, size: 0x8, addend: 0x0, symName: __RINvNtCsHUR1vrdMJt_3std2fs14remove_dir_allRNtNtB4_4path7PathBufECscVIntrQSCr8_17build_script_main, symObjAddr: 0x530, symBinAddr: 0x10002CFF0, symSize: 0x60 }
  - { offset: 0x3FAA2, size: 0x8, addend: 0x0, symName: __RINvNtCsHUR1vrdMJt_3std2fs4copyNtNtB4_4path7PathBufBt_ECscVIntrQSCr8_17build_script_main, symObjAddr: 0x590, symBinAddr: 0x10002D050, symSize: 0xE0 }
  - { offset: 0x3FAF3, size: 0x8, addend: 0x0, symName: __RINvNtCsHUR1vrdMJt_3std2fs4copyRNtNtB4_4path7PathBufBt_ECscVIntrQSCr8_17build_script_main, symObjAddr: 0x670, symBinAddr: 0x10002D130, symSize: 0x90 }
  - { offset: 0x3FB57, size: 0x8, addend: 0x0, symName: __RINvNtCsHUR1vrdMJt_3std2fs8read_dirNtNtB4_4path7PathBufECscVIntrQSCr8_17build_script_main, symObjAddr: 0x700, symBinAddr: 0x10002D1C0, symSize: 0xD0 }
  - { offset: 0x3FBEA, size: 0x8, addend: 0x0, symName: __RINvNtCsHUR1vrdMJt_3std2fs8read_dirRNtNtB4_4path7PathBufECscVIntrQSCr8_17build_script_main, symObjAddr: 0x7D0, symBinAddr: 0x10002D290, symSize: 0xB0 }
  - { offset: 0x3FC7C, size: 0x8, addend: 0x0, symName: __RINvNtCsHUR1vrdMJt_3std2fs8read_dirRRNtNtB4_4path4PathECscVIntrQSCr8_17build_script_main, symObjAddr: 0x880, symBinAddr: 0x10002D340, symSize: 0xB0 }
  - { offset: 0x3FF4F, size: 0x8, addend: 0x0, symName: __RNvXss_NtCslJiobkLta79_5alloc6stringNtB5_6StringNtNtNtCsieiGu2EXtoJ_4core3ops5deref5Deref5derefCscVIntrQSCr8_17build_script_main, symObjAddr: 0x3090, symBinAddr: 0x10002FB40, symSize: 0x20 }
  - { offset: 0x3FFA1, size: 0x8, addend: 0x0, symName: __RNvXsF_NtCslJiobkLta79_5alloc6stringNtB5_6StringINtNtCsieiGu2EXtoJ_4core7convert4FromReE4fromCscVIntrQSCr8_17build_script_main, symObjAddr: 0x2B10, symBinAddr: 0x10002F5C0, symSize: 0x50 }
  - { offset: 0x400AC, size: 0x8, addend: 0x0, symName: __RNvXs1I_NtCslJiobkLta79_5alloc6stringNtB6_6StringNtB6_12SpecToString14spec_to_stringCscVIntrQSCr8_17build_script_main, symObjAddr: 0x25F0, symBinAddr: 0x10002F0A0, symSize: 0xB0 }
  - { offset: 0x4038A, size: 0x8, addend: 0x0, symName: __RNvXs1n_NtCslJiobkLta79_5alloc6stringNtB6_6StringINtNtCsieiGu2EXtoJ_4core3cmp9PartialEqReE2eqCscVIntrQSCr8_17build_script_main, symObjAddr: 0x2740, symBinAddr: 0x10002F1F0, symSize: 0x130 }
  - { offset: 0x40666, size: 0x8, addend: 0x0, symName: __RNvXs1n_NtCslJiobkLta79_5alloc6stringNtB6_6StringINtNtCsieiGu2EXtoJ_4core3cmp9PartialEqReE2neCscVIntrQSCr8_17build_script_main, symObjAddr: 0x2870, symBinAddr: 0x10002F320, symSize: 0x130 }
  - { offset: 0x4096F, size: 0x8, addend: 0x0, symName: __RNvXsC_NtCslJiobkLta79_5alloc6stringNtB5_6StringINtNtCsieiGu2EXtoJ_4core7convert5AsRefeE6as_refCscVIntrQSCr8_17build_script_main, symObjAddr: 0x2AF0, symBinAddr: 0x10002F5A0, symSize: 0x20 }
  - { offset: 0x409C1, size: 0x8, addend: 0x0, symName: __RNvXsT_NtCslJiobkLta79_5alloc6stringNtB5_6StringNtNtCsieiGu2EXtoJ_4core3fmt5Write10write_charCscVIntrQSCr8_17build_script_main, symObjAddr: 0x2B90, symBinAddr: 0x10002F640, symSize: 0x30 }
  - { offset: 0x409FE, size: 0x8, addend: 0x0, symName: __RNvXsT_NtCslJiobkLta79_5alloc6stringNtB5_6StringNtNtCsieiGu2EXtoJ_4core3fmt5Write9write_strCscVIntrQSCr8_17build_script_main, symObjAddr: 0x2BC0, symBinAddr: 0x10002F670, symSize: 0x30 }
  - { offset: 0x40A41, size: 0x8, addend: 0x0, symName: __RNvXsk_NtCslJiobkLta79_5alloc6stringNtB5_6StringNtNtCsieiGu2EXtoJ_4core7default7Default7defaultCscVIntrQSCr8_17build_script_main, symObjAddr: 0x2ED0, symBinAddr: 0x10002F980, symSize: 0x40 }
  - { offset: 0x40A91, size: 0x8, addend: 0x0, symName: __RNvXsm_NtCslJiobkLta79_5alloc6stringNtB5_6StringNtNtCsieiGu2EXtoJ_4core3fmt5Debug3fmtCscVIntrQSCr8_17build_script_main, symObjAddr: 0x2F10, symBinAddr: 0x10002F9C0, symSize: 0x70 }
  - { offset: 0x40BF6, size: 0x8, addend: 0x0, symName: __RNvXsv_NtCslJiobkLta79_5alloc6stringNtB5_6StringNtNtNtCsieiGu2EXtoJ_4core3str6traits7FromStr8from_strCscVIntrQSCr8_17build_script_main, symObjAddr: 0x30B0, symBinAddr: 0x10002FB60, symSize: 0x70 }
  - { offset: 0x40D01, size: 0x8, addend: 0x0, symName: __RNvXsw_NtCslJiobkLta79_5alloc6stringNtB5_6StringNtB5_8ToString9to_stringCscVIntrQSCr8_17build_script_main, symObjAddr: 0x3120, symBinAddr: 0x10002FBD0, symSize: 0x30 }
  - { offset: 0x40D38, size: 0x8, addend: 0x0, symName: __RNvXsw_NtCslJiobkLta79_5alloc6stringNtNtCsHUR1vrdMJt_3std4path7DisplayNtB5_8ToString9to_stringCscVIntrQSCr8_17build_script_main, symObjAddr: 0x3150, symBinAddr: 0x10002FC00, symSize: 0x30 }
  - { offset: 0x40D75, size: 0x8, addend: 0x0, symName: __RNvXsx_NtCslJiobkLta79_5alloc6stringNtNtCsHUR1vrdMJt_3std4path7DisplayNtB5_12SpecToString14spec_to_stringCscVIntrQSCr8_17build_script_main, symObjAddr: 0x3180, symBinAddr: 0x10002FC30, symSize: 0x120 }
  - { offset: 0x411FD, size: 0x8, addend: 0x0, symName: __RNvXs_NtCslJiobkLta79_5alloc5allocNtB4_6GlobalNtNtCsieiGu2EXtoJ_4core5alloc9Allocator10deallocateCscVIntrQSCr8_17build_script_main, symObjAddr: 0x2C60, symBinAddr: 0x10002F710, symSize: 0x70 }
  - { offset: 0x412C6, size: 0x8, addend: 0x0, symName: __RNvNtCslJiobkLta79_5alloc5alloc15exchange_mallocCscVIntrQSCr8_17build_script_main, symObjAddr: 0x22E0, symBinAddr: 0x10002ED90, symSize: 0xA0 }
  - { offset: 0x415FE, size: 0x8, addend: 0x0, symName: __RINvMNtCslJiobkLta79_5alloc5sliceSNtNtCsHUR1vrdMJt_3std4path7PathBuf8into_vecNtNtB5_5alloc6GlobalECscVIntrQSCr8_17build_script_main, symObjAddr: 0x0, symBinAddr: 0x10002CAC0, symSize: 0x40 }
  - { offset: 0x43278, size: 0x8, addend: 0x0, symName: __RNCINvNtNtNtCsieiGu2EXtoJ_4core4iter8adapters3map8map_foldRNtNtCslJiobkLta79_5alloc6string6StringNtNtNtCsHUR1vrdMJt_3std3ffi6os_str8OsStringuNvYBU_INtNtBa_7convert4IntoB1x_E4intoNCINvNvNtNtNtB8_6traits8iterator8Iterator8for_each4callB1x_NCINvMsi_NtBZ_3vecINtB3W_3VecB1x_E14extend_trustedINtB4_3MapINtNtNtBa_5slice4iter4IterBV_EB2f_EE0E0E0CscVIntrQSCr8_17build_script_main, symObjAddr: 0x1330, symBinAddr: 0x10002DDF0, symSize: 0x80 }
  - { offset: 0x432FD, size: 0x8, addend: 0x0, symName: __RNCINvNtNtNtCsieiGu2EXtoJ_4core4iter8adapters3map8map_foldRNtNtNtCsHUR1vrdMJt_3std3ffi6os_str8OsStringRNtBX_5OsStruNvMs0_BX_BV_9as_os_strNCINvNvNtNtNtB8_6traits8iterator8Iterator8for_each4callB1C_NCINvMsi_NtCslJiobkLta79_5alloc3vecINtB3h_3VecB1C_E14extend_trustedINtB4_3MapINtNtNtBa_5slice4iter4IterBV_EB1P_EE0E0E0CscVIntrQSCr8_17build_script_main, symObjAddr: 0x13B0, symBinAddr: 0x10002DE70, symSize: 0x70 }
  - { offset: 0x43382, size: 0x8, addend: 0x0, symName: __RNCINvNtNtNtCsieiGu2EXtoJ_4core4iter8adapters3map8map_foldRReNtNtNtCsHUR1vrdMJt_3std3ffi6os_str8OsStringuNvYBX_INtNtBa_7convert4FromBU_E4fromNCINvNvNtNtNtB8_6traits8iterator8Iterator8for_each4callBX_NCINvMsi_NtCslJiobkLta79_5alloc3vecINtB3k_3VecBX_E14extend_trustedINtB4_3MapINtNtNtBa_5slice4iter4IterBV_EB1F_EE0E0E0CscVIntrQSCr8_17build_script_main, symObjAddr: 0x1420, symBinAddr: 0x10002DEE0, symSize: 0x80 }
  - { offset: 0x4340D, size: 0x8, addend: 0x0, symName: __RINvXs0_NtNtNtCsieiGu2EXtoJ_4core4iter8adapters3mapINtB6_3MapINtNtNtBc_5slice4iter4IterNtNtCslJiobkLta79_5alloc6string6StringENvYRB1n_INtNtBc_7convert4IntoNtNtNtCsHUR1vrdMJt_3std3ffi6os_str8OsStringE4intoENtNtNtBa_6traits8iterator8Iterator4folduNCINvNvB3h_8for_each4callB2t_NCINvMsi_NtB1r_3vecINtB4x_3VecB2t_E14extend_trustedBN_E0E0ECscVIntrQSCr8_17build_script_main, symObjAddr: 0x970, symBinAddr: 0x10002D430, symSize: 0x40 }
  - { offset: 0x434A4, size: 0x8, addend: 0x0, symName: __RINvXs0_NtNtNtCsieiGu2EXtoJ_4core4iter8adapters3mapINtB6_3MapINtNtNtBc_5slice4iter4IterNtNtNtCsHUR1vrdMJt_3std3ffi6os_str8OsStringENvMs0_B1p_B1n_9as_os_strENtNtNtBa_6traits8iterator8Iterator4folduNCINvNvB2u_8for_each4callRNtB1p_5OsStrNCINvMsi_NtCslJiobkLta79_5alloc3vecINtB3T_3VecB3x_E14extend_trustedBN_E0E0ECscVIntrQSCr8_17build_script_main, symObjAddr: 0x9B0, symBinAddr: 0x10002D470, symSize: 0x40 }
  - { offset: 0x4353B, size: 0x8, addend: 0x0, symName: __RINvXs0_NtNtNtCsieiGu2EXtoJ_4core4iter8adapters3mapINtB6_3MapINtNtNtBc_5slice4iter4IterReENvYNtNtNtCsHUR1vrdMJt_3std3ffi6os_str8OsStringINtNtBc_7convert4FromRB1n_E4fromENtNtNtBa_6traits8iterator8Iterator4folduNCINvNvB2H_8for_each4callB1t_NCINvMsi_NtCslJiobkLta79_5alloc3vecINtB3X_3VecB1t_E14extend_trustedBN_E0E0ECscVIntrQSCr8_17build_script_main, symObjAddr: 0x9F0, symBinAddr: 0x10002D4B0, symSize: 0x40 }
  - { offset: 0x435D2, size: 0x8, addend: 0x0, symName: __RNvXs0_NtNtNtCsieiGu2EXtoJ_4core4iter8adapters3mapINtB5_3MapINtNtNtBb_5slice4iter4IterNtNtCslJiobkLta79_5alloc6string6StringENvYRB1m_INtNtBb_7convert4IntoNtNtNtCsHUR1vrdMJt_3std3ffi6os_str8OsStringE4intoENtNtNtB9_6traits8iterator8Iterator9size_hintCscVIntrQSCr8_17build_script_main, symObjAddr: 0x2500, symBinAddr: 0x10002EFB0, symSize: 0x30 }
  - { offset: 0x43619, size: 0x8, addend: 0x0, symName: __RNvXs0_NtNtNtCsieiGu2EXtoJ_4core4iter8adapters3mapINtB5_3MapINtNtNtBb_5slice4iter4IterNtNtNtCsHUR1vrdMJt_3std3ffi6os_str8OsStringENvMs0_B1o_B1m_9as_os_strENtNtNtB9_6traits8iterator8Iterator9size_hintCscVIntrQSCr8_17build_script_main, symObjAddr: 0x2530, symBinAddr: 0x10002EFE0, symSize: 0x30 }
  - { offset: 0x43660, size: 0x8, addend: 0x0, symName: __RNvXs0_NtNtNtCsieiGu2EXtoJ_4core4iter8adapters3mapINtB5_3MapINtNtNtBb_5slice4iter4IterReENvYNtNtNtCsHUR1vrdMJt_3std3ffi6os_str8OsStringINtNtBb_7convert4FromRB1m_E4fromENtNtNtB9_6traits8iterator8Iterator9size_hintCscVIntrQSCr8_17build_script_main, symObjAddr: 0x2560, symBinAddr: 0x10002F010, symSize: 0x30 }
  - { offset: 0x43755, size: 0x8, addend: 0x0, symName: __RNCINvNtNtNtCsieiGu2EXtoJ_4core4iter8adapters3map12map_try_foldRRejjINtNtBa_6option6OptionjENCNCINvNtCslJiobkLta79_5alloc3str17join_generic_copyehB10_E00NvMs9_NtBa_3numj11checked_addE0CscVIntrQSCr8_17build_script_main, symObjAddr: 0x12A0, symBinAddr: 0x10002DD60, symSize: 0x90 }
  - { offset: 0x43A30, size: 0x8, addend: 0x0, symName: __RINvYINtNtNtCsieiGu2EXtoJ_4core5array4iter8IntoIterReKj2_ENtNtNtNtBa_4iter6traits8iterator8Iterator8for_eachNCINvMsi_NtCslJiobkLta79_5alloc3vecINtB1R_3VecBN_E14extend_trustedB3_E0ECscVIntrQSCr8_17build_script_main, symObjAddr: 0xC70, symBinAddr: 0x10002D730, symSize: 0x30 }
  - { offset: 0x43A9B, size: 0x8, addend: 0x0, symName: __RINvYINtNtNtCsieiGu2EXtoJ_4core5array4iter8IntoIterReKj3_ENtNtNtNtBa_4iter6traits8iterator8Iterator8for_eachNCINvMsi_NtCslJiobkLta79_5alloc3vecINtB1R_3VecBN_E14extend_trustedB3_E0ECscVIntrQSCr8_17build_script_main, symObjAddr: 0xCA0, symBinAddr: 0x10002D760, symSize: 0x30 }
  - { offset: 0x43B06, size: 0x8, addend: 0x0, symName: __RINvYINtNtNtCsieiGu2EXtoJ_4core5array4iter8IntoIterReKj6_ENtNtNtNtBa_4iter6traits8iterator8Iterator8for_eachNCINvMsi_NtCslJiobkLta79_5alloc3vecINtB1R_3VecBN_E14extend_trustedB3_E0ECscVIntrQSCr8_17build_script_main, symObjAddr: 0xCD0, symBinAddr: 0x10002D790, symSize: 0x30 }
  - { offset: 0x43B71, size: 0x8, addend: 0x0, symName: __RINvYINtNtNtNtCsieiGu2EXtoJ_4core4iter8adapters3map3MapINtNtNtBc_5slice4iter4IterNtNtCslJiobkLta79_5alloc6string6StringENvYRB1h_INtNtBc_7convert4IntoNtNtNtCsHUR1vrdMJt_3std3ffi6os_str8OsStringE4intoENtNtNtBa_6traits8iterator8Iterator8for_eachNCINvMsi_NtB1l_3vecINtB41_3VecB2n_E14extend_trustedB3_E0ECscVIntrQSCr8_17build_script_main, symObjAddr: 0xD00, symBinAddr: 0x10002D7C0, symSize: 0x40 }
  - { offset: 0x43BDB, size: 0x8, addend: 0x0, symName: __RINvYINtNtNtNtCsieiGu2EXtoJ_4core4iter8adapters3map3MapINtNtNtBc_5slice4iter4IterNtNtNtCsHUR1vrdMJt_3std3ffi6os_str8OsStringENvMs0_B1j_B1h_9as_os_strENtNtNtBa_6traits8iterator8Iterator7collectINtNtCslJiobkLta79_5alloc3vec3VecRNtB1j_5OsStrEECscVIntrQSCr8_17build_script_main, symObjAddr: 0xD40, symBinAddr: 0x10002D800, symSize: 0x60 }
  - { offset: 0x43C70, size: 0x8, addend: 0x0, symName: __RINvYINtNtNtNtCsieiGu2EXtoJ_4core4iter8adapters3map3MapINtNtNtBc_5slice4iter4IterNtNtNtCsHUR1vrdMJt_3std3ffi6os_str8OsStringENvMs0_B1j_B1h_9as_os_strENtNtNtBa_6traits8iterator8Iterator8for_eachNCINvMsi_NtCslJiobkLta79_5alloc3vecINtB3e_3VecRNtB1j_5OsStrE14extend_trustedB3_E0ECscVIntrQSCr8_17build_script_main, symObjAddr: 0xDA0, symBinAddr: 0x10002D860, symSize: 0x40 }
  - { offset: 0x43CDA, size: 0x8, addend: 0x0, symName: __RINvYINtNtNtNtCsieiGu2EXtoJ_4core4iter8adapters3map3MapINtNtNtBc_5slice4iter4IterReENvYNtNtNtCsHUR1vrdMJt_3std3ffi6os_str8OsStringINtNtBc_7convert4FromRB1h_E4fromENtNtNtBa_6traits8iterator8Iterator7collectINtNtCslJiobkLta79_5alloc3vec3VecB1n_EECscVIntrQSCr8_17build_script_main, symObjAddr: 0xDE0, symBinAddr: 0x10002D8A0, symSize: 0x60 }
  - { offset: 0x43D6F, size: 0x8, addend: 0x0, symName: __RINvYINtNtNtNtCsieiGu2EXtoJ_4core4iter8adapters3map3MapINtNtNtBc_5slice4iter4IterReENvYNtNtNtCsHUR1vrdMJt_3std3ffi6os_str8OsStringINtNtBc_7convert4FromRB1h_E4fromENtNtNtBa_6traits8iterator8Iterator8for_eachNCINvMsi_NtCslJiobkLta79_5alloc3vecINtB3r_3VecB1n_E14extend_trustedB3_E0ECscVIntrQSCr8_17build_script_main, symObjAddr: 0xE40, symBinAddr: 0x10002D900, symSize: 0x40 }
  - { offset: 0x43DD9, size: 0x8, addend: 0x0, symName: __RINvYNtNtCsHUR1vrdMJt_3std4path10ComponentsNtNtNtNtCsieiGu2EXtoJ_4core4iter6traits8iterator8Iterator4foldINtNtBN_6option6OptionNtB5_9ComponentEINvNvBF_4last4someB21_EECscVIntrQSCr8_17build_script_main, symObjAddr: 0xE80, symBinAddr: 0x10002D940, symSize: 0x270 }
  - { offset: 0x43E71, size: 0x8, addend: 0x0, symName: __RNvYNtNtCsHUR1vrdMJt_3std4path10ComponentsNtNtNtNtCsieiGu2EXtoJ_4core4iter6traits8iterator8Iterator4lastCscVIntrQSCr8_17build_script_main, symObjAddr: 0x32A0, symBinAddr: 0x10002FD50, symSize: 0x30 }
  - { offset: 0x43EB3, size: 0x8, addend: 0x0, symName: __RNvXNtNtNtCsieiGu2EXtoJ_4core4iter6traits7collectINtNtNtB6_8adapters3map3MapINtNtNtB8_5slice4iter4IterNtNtCslJiobkLta79_5alloc6string6StringENvYRB1C_INtNtB8_7convert4IntoNtNtNtCsHUR1vrdMJt_3std3ffi6os_str8OsStringE4intoENtB2_12IntoIterator9into_iterCscVIntrQSCr8_17build_script_main, symObjAddr: 0x2480, symBinAddr: 0x10002EF30, symSize: 0x20 }
  - { offset: 0x43EEA, size: 0x8, addend: 0x0, symName: __RNvXNtNtNtCsieiGu2EXtoJ_4core4iter6traits7collectINtNtNtB6_8adapters3map3MapINtNtNtB8_5slice4iter4IterNtNtNtCsHUR1vrdMJt_3std3ffi6os_str8OsStringENvMs0_B1E_B1C_9as_os_strENtB2_12IntoIterator9into_iterCscVIntrQSCr8_17build_script_main, symObjAddr: 0x24A0, symBinAddr: 0x10002EF50, symSize: 0x20 }
  - { offset: 0x43F21, size: 0x8, addend: 0x0, symName: __RNvXNtNtNtCsieiGu2EXtoJ_4core4iter6traits7collectINtNtNtB6_8adapters3map3MapINtNtNtB8_5slice4iter4IterReENvYNtNtNtCsHUR1vrdMJt_3std3ffi6os_str8OsStringINtNtB8_7convert4FromRB1C_E4fromENtB2_12IntoIterator9into_iterCscVIntrQSCr8_17build_script_main, symObjAddr: 0x24C0, symBinAddr: 0x10002EF70, symSize: 0x20 }
  - { offset: 0x43F58, size: 0x8, addend: 0x0, symName: __RNvXNtNtNtCsieiGu2EXtoJ_4core4iter6traits7collectNtNtCsHUR1vrdMJt_3std2fs7ReadDirNtB2_12IntoIterator9into_iterCscVIntrQSCr8_17build_script_main, symObjAddr: 0x24E0, symBinAddr: 0x10002EF90, symSize: 0x20 }
  - { offset: 0x44271, size: 0x8, addend: 0x0, symName: __RNCINvMs6_NtNtNtCsieiGu2EXtoJ_4core5array4iter10iter_innerINtB8_15PolymorphicIterSINtNtNtBe_3mem12maybe_uninit11MaybeUninitReEE8try_folduNCINvMNtNtBe_3ops9try_traitINtB2h_17NeverShortCircuituE10wrap_mut_2uB1X_NCINvNvNtNtNtNtBe_4iter6traits8iterator8Iterator8for_each4callB1X_NCINvMsi_NtCslJiobkLta79_5alloc3vecINtB4y_3VecB1X_E14extend_trustedINtBa_8IntoIterB1X_Kj2_EE0E0E0B2C_E0CscVIntrQSCr8_17build_script_main, symObjAddr: 0x10F0, symBinAddr: 0x10002DBB0, symSize: 0x80 }
  - { offset: 0x443CE, size: 0x8, addend: 0x0, symName: __RNCINvMs6_NtNtNtCsieiGu2EXtoJ_4core5array4iter10iter_innerINtB8_15PolymorphicIterSINtNtNtBe_3mem12maybe_uninit11MaybeUninitReEE8try_folduNCINvMNtNtBe_3ops9try_traitINtB2h_17NeverShortCircuituE10wrap_mut_2uB1X_NCINvNvNtNtNtNtBe_4iter6traits8iterator8Iterator8for_each4callB1X_NCINvMsi_NtCslJiobkLta79_5alloc3vecINtB4y_3VecB1X_E14extend_trustedINtBa_8IntoIterB1X_Kj3_EE0E0E0B2C_E0CscVIntrQSCr8_17build_script_main, symObjAddr: 0x1170, symBinAddr: 0x10002DC30, symSize: 0x80 }
  - { offset: 0x4452B, size: 0x8, addend: 0x0, symName: __RNCINvMs6_NtNtNtCsieiGu2EXtoJ_4core5array4iter10iter_innerINtB8_15PolymorphicIterSINtNtNtBe_3mem12maybe_uninit11MaybeUninitReEE8try_folduNCINvMNtNtBe_3ops9try_traitINtB2h_17NeverShortCircuituE10wrap_mut_2uB1X_NCINvNvNtNtNtNtBe_4iter6traits8iterator8Iterator8for_each4callB1X_NCINvMsi_NtCslJiobkLta79_5alloc3vecINtB4y_3VecB1X_E14extend_trustedINtBa_8IntoIterB1X_Kj6_EE0E0E0B2C_E0CscVIntrQSCr8_17build_script_main, symObjAddr: 0x11F0, symBinAddr: 0x10002DCB0, symSize: 0x80 }
  - { offset: 0x4468F, size: 0x8, addend: 0x0, symName: __RNvXs1_NtNtNtCsieiGu2EXtoJ_4core5array4iter10iter_innerINtB5_15PolymorphicIterAINtNtNtBb_3mem12maybe_uninit11MaybeUninitReEj3_ENtNtNtBb_3ops4drop4Drop4dropCscVIntrQSCr8_17build_script_main, symObjAddr: 0x26C0, symBinAddr: 0x10002F170, symSize: 0x30 }
  - { offset: 0x446DD, size: 0x8, addend: 0x0, symName: __RNvXs1_NtNtNtCsieiGu2EXtoJ_4core5array4iter10iter_innerINtB5_15PolymorphicIterAINtNtNtBb_3mem12maybe_uninit11MaybeUninitReEj6_ENtNtNtBb_3ops4drop4Drop4dropCscVIntrQSCr8_17build_script_main, symObjAddr: 0x26F0, symBinAddr: 0x10002F1A0, symSize: 0x30 }
  - { offset: 0x44731, size: 0x8, addend: 0x0, symName: __RNvXs_NtNtNtCsieiGu2EXtoJ_4core5array4iter10iter_innerAINtNtNtBa_3mem12maybe_uninit11MaybeUninitReEj3_NtB4_11PartialDrop12partial_dropCscVIntrQSCr8_17build_script_main, symObjAddr: 0x2E50, symBinAddr: 0x10002F900, symSize: 0x40 }
  - { offset: 0x4478D, size: 0x8, addend: 0x0, symName: __RNvXs_NtNtNtCsieiGu2EXtoJ_4core5array4iter10iter_innerAINtNtNtBa_3mem12maybe_uninit11MaybeUninitReEj6_NtB4_11PartialDrop12partial_dropCscVIntrQSCr8_17build_script_main, symObjAddr: 0x2E90, symBinAddr: 0x10002F940, symSize: 0x40 }
  - { offset: 0x447F0, size: 0x8, addend: 0x0, symName: __RINvXs2_NtNtCsieiGu2EXtoJ_4core5array4iterINtB6_8IntoIterReKj2_ENtNtNtNtBa_4iter6traits8iterator8Iterator4folduNCINvNvB10_8for_each4callBT_NCINvMsi_NtCslJiobkLta79_5alloc3vecINtB2m_3VecBT_E14extend_trustedBE_E0E0ECscVIntrQSCr8_17build_script_main, symObjAddr: 0xA30, symBinAddr: 0x10002D4F0, symSize: 0xC0 }
  - { offset: 0x44901, size: 0x8, addend: 0x0, symName: __RINvXs2_NtNtCsieiGu2EXtoJ_4core5array4iterINtB6_8IntoIterReKj3_ENtNtNtNtBa_4iter6traits8iterator8Iterator4folduNCINvNvB10_8for_each4callBT_NCINvMsi_NtCslJiobkLta79_5alloc3vecINtB2m_3VecBT_E14extend_trustedBE_E0E0ECscVIntrQSCr8_17build_script_main, symObjAddr: 0xAF0, symBinAddr: 0x10002D5B0, symSize: 0xC0 }
  - { offset: 0x44A12, size: 0x8, addend: 0x0, symName: __RINvXs2_NtNtCsieiGu2EXtoJ_4core5array4iterINtB6_8IntoIterReKj6_ENtNtNtNtBa_4iter6traits8iterator8Iterator4folduNCINvNvB10_8for_each4callBT_NCINvMsi_NtCslJiobkLta79_5alloc3vecINtB2m_3VecBT_E14extend_trustedBE_E0E0ECscVIntrQSCr8_17build_script_main, symObjAddr: 0xBB0, symBinAddr: 0x10002D670, symSize: 0xC0 }
  - { offset: 0x44B23, size: 0x8, addend: 0x0, symName: __RNvXs2_NtNtCsieiGu2EXtoJ_4core5array4iterINtB5_8IntoIterReKj2_ENtNtNtNtB9_4iter6traits8iterator8Iterator9size_hintCscVIntrQSCr8_17build_script_main, symObjAddr: 0x29D0, symBinAddr: 0x10002F480, symSize: 0x30 }
  - { offset: 0x44B96, size: 0x8, addend: 0x0, symName: __RNvXs2_NtNtCsieiGu2EXtoJ_4core5array4iterINtB5_8IntoIterReKj3_ENtNtNtNtB9_4iter6traits8iterator8Iterator9size_hintCscVIntrQSCr8_17build_script_main, symObjAddr: 0x2A00, symBinAddr: 0x10002F4B0, symSize: 0x30 }
  - { offset: 0x44C09, size: 0x8, addend: 0x0, symName: __RNvXs2_NtNtCsieiGu2EXtoJ_4core5array4iterINtB5_8IntoIterReKj6_ENtNtNtNtB9_4iter6traits8iterator8Iterator9size_hintCscVIntrQSCr8_17build_script_main, symObjAddr: 0x2A30, symBinAddr: 0x10002F4E0, symSize: 0x30 }
  - { offset: 0x44CFA, size: 0x8, addend: 0x0, symName: __RNvXs4_NtNtCsieiGu2EXtoJ_4core5array4iterINtB5_8IntoIterReKj3_ENtNtNtB9_3ops4drop4Drop4dropCscVIntrQSCr8_17build_script_main, symObjAddr: 0x2A60, symBinAddr: 0x10002F510, symSize: 0x10 }
  - { offset: 0x44D2D, size: 0x8, addend: 0x0, symName: __RNvXs4_NtNtCsieiGu2EXtoJ_4core5array4iterINtB5_8IntoIterReKj6_ENtNtNtB9_3ops4drop4Drop4dropCscVIntrQSCr8_17build_script_main, symObjAddr: 0x2A70, symBinAddr: 0x10002F520, symSize: 0x10 }
  - { offset: 0x44D66, size: 0x8, addend: 0x0, symName: __RNvXs_NtNtCsieiGu2EXtoJ_4core5array4iterARej3_NtNtNtNtB8_4iter6traits7collect12IntoIterator9into_iterCscVIntrQSCr8_17build_script_main, symObjAddr: 0x2D60, symBinAddr: 0x10002F810, symSize: 0x70 }
  - { offset: 0x44DB0, size: 0x8, addend: 0x0, symName: __RNvXs_NtNtCsieiGu2EXtoJ_4core5array4iterARej6_NtNtNtNtB8_4iter6traits7collect12IntoIterator9into_iterCscVIntrQSCr8_17build_script_main, symObjAddr: 0x2DD0, symBinAddr: 0x10002F880, symSize: 0x80 }
  - { offset: 0x4539B, size: 0x8, addend: 0x0, symName: __RNvXs19_NtCsieiGu2EXtoJ_4core3fmtRNtNtCsHUR1vrdMJt_3std4path7PathBufNtB6_5Debug3fmtCscVIntrQSCr8_17build_script_main, symObjAddr: 0x25B0, symBinAddr: 0x10002F060, symSize: 0x20 }
  - { offset: 0x453E1, size: 0x8, addend: 0x0, symName: __RNvXs19_NtCsieiGu2EXtoJ_4core3fmtRNtNtCslJiobkLta79_5alloc6string6StringNtB6_5Debug3fmtCscVIntrQSCr8_17build_script_main, symObjAddr: 0x25D0, symBinAddr: 0x10002F080, symSize: 0x20 }
  - { offset: 0x4542D, size: 0x8, addend: 0x0, symName: __RNvXs1b_NtCsieiGu2EXtoJ_4core3fmtRNtNtCsHUR1vrdMJt_3std4path7DisplayNtB6_7Display3fmtCscVIntrQSCr8_17build_script_main, symObjAddr: 0x2720, symBinAddr: 0x10002F1D0, symSize: 0x20 }
  - { offset: 0x45479, size: 0x8, addend: 0x0, symName: __RNvXsq_NtCsieiGu2EXtoJ_4core3fmtSNtNtCsHUR1vrdMJt_3std4path7PathBufNtB5_5Debug3fmtCscVIntrQSCr8_17build_script_main, symObjAddr: 0x2F80, symBinAddr: 0x10002FA30, symSize: 0x80 }
  - { offset: 0x45770, size: 0x8, addend: 0x0, symName: __RNvMNtCsieiGu2EXtoJ_4core5sliceSINtNtNtB4_3mem12maybe_uninit11MaybeUninithE15copy_from_sliceCscVIntrQSCr8_17build_script_main, symObjAddr: 0x14D0, symBinAddr: 0x10002DF90, symSize: 0xA0 }
  - { offset: 0x4583B, size: 0x8, addend: 0x0, symName: __RNvMNtCsieiGu2EXtoJ_4core5sliceSINtNtNtB4_3mem12maybe_uninit11MaybeUninithE22split_at_mut_uncheckedCscVIntrQSCr8_17build_script_main, symObjAddr: 0x1570, symBinAddr: 0x10002E030, symSize: 0x110 }
  - { offset: 0x45A62, size: 0x8, addend: 0x0, symName: __RNCNvXsf_NtNtCsieiGu2EXtoJ_4core5slice3cmpNtNtCscVIntrQSCr8_17build_script_main10cc_builder15CompilerFeatureNtB7_13SliceContains14slice_contains0BI_, symObjAddr: 0x14A0, symBinAddr: 0x10002DF60, symSize: 0x30 }
  - { offset: 0x45FFD, size: 0x8, addend: 0x0, symName: __RNvXNtCsieiGu2EXtoJ_4core7convertRRNtNtCsHUR1vrdMJt_3std4path4PathINtB2_5AsRefBx_E6as_refCscVIntrQSCr8_17build_script_main, symObjAddr: 0x2440, symBinAddr: 0x10002EEF0, symSize: 0x20 }
  - { offset: 0x4603D, size: 0x8, addend: 0x0, symName: __RNvXNtCsieiGu2EXtoJ_4core7convertRRNtNtCslJiobkLta79_5alloc6string6StringINtB2_5AsRefNtNtNtCsHUR1vrdMJt_3std3ffi6os_str5OsStrE6as_refCscVIntrQSCr8_17build_script_main, symObjAddr: 0x2460, symBinAddr: 0x10002EF10, symSize: 0x20 }
  - { offset: 0x460B0, size: 0x8, addend: 0x0, symName: __RNvXs1_NtCsieiGu2EXtoJ_4core7convertNtNtCsHUR1vrdMJt_3std4path7PathBufINtB5_4IntoBy_E4intoCscVIntrQSCr8_17build_script_main, symObjAddr: 0x26A0, symBinAddr: 0x10002F150, symSize: 0x20 }
  - { offset: 0x46290, size: 0x8, addend: 0x0, symName: __RNvNvXs5_NtNtCsieiGu2EXtoJ_4core3str6traitsINtNtNtBb_3ops5range5RangejEINtNtNtBb_5slice5index10SliceIndexeE13get_unchecked18precondition_checkCscVIntrQSCr8_17build_script_main, symObjAddr: 0x2380, symBinAddr: 0x10002EE30, symSize: 0xC0 }
  - { offset: 0x4635B, size: 0x8, addend: 0x0, symName: __RNvXs_NtNtCsieiGu2EXtoJ_4core3str6traitseNtNtB8_3cmp9PartialEq2eqCscVIntrQSCr8_17build_script_main, symObjAddr: 0x2CD0, symBinAddr: 0x10002F780, symSize: 0x90 }
  - { offset: 0x46A0E, size: 0x8, addend: 0x0, symName: __RINvMs0_NtNtNtCsHUR1vrdMJt_3std11collections4hash3mapINtB6_7HashMapNtNtCslJiobkLta79_5alloc6string6StringNtNtCscVIntrQSCr8_17build_script_main10cc_builder15CompilerFeatureE3getB13_EB1J_, symObjAddr: 0x40, symBinAddr: 0x10002CB00, symSize: 0x60 }
  - { offset: 0x46AF9, size: 0x8, addend: 0x0, symName: __RINvMs16_NtCsHUR1vrdMJt_3std4pathNtB7_4Path11starts_withReECscVIntrQSCr8_17build_script_main, symObjAddr: 0xA0, symBinAddr: 0x10002CB60, symSize: 0x70 }
  - { offset: 0x46B34, size: 0x8, addend: 0x0, symName: __RINvMs16_NtCsHUR1vrdMJt_3std4pathNtB7_4Path12strip_prefixRBv_ECscVIntrQSCr8_17build_script_main, symObjAddr: 0x110, symBinAddr: 0x10002CBD0, symSize: 0x80 }
  - { offset: 0x46B7C, size: 0x8, addend: 0x0, symName: __RINvMs16_NtCsHUR1vrdMJt_3std4pathNtB7_4Path3newNtB7_7PathBufECscVIntrQSCr8_17build_script_main, symObjAddr: 0x190, symBinAddr: 0x10002CC50, symSize: 0x20 }
  - { offset: 0x46BA8, size: 0x8, addend: 0x0, symName: __RINvMs16_NtCsHUR1vrdMJt_3std4pathNtB7_4Path3newNtNtCslJiobkLta79_5alloc6string6StringECscVIntrQSCr8_17build_script_main, symObjAddr: 0x1B0, symBinAddr: 0x10002CC70, symSize: 0x20 }
  - { offset: 0x46BE1, size: 0x8, addend: 0x0, symName: __RINvMs16_NtCsHUR1vrdMJt_3std4pathNtB7_4Path3newReECscVIntrQSCr8_17build_script_main, symObjAddr: 0x1D0, symBinAddr: 0x10002CC90, symSize: 0x20 }
  - { offset: 0x46C0D, size: 0x8, addend: 0x0, symName: __RINvMs16_NtCsHUR1vrdMJt_3std4pathNtB7_4Path4joinRNtB7_7PathBufECscVIntrQSCr8_17build_script_main, symObjAddr: 0x1F0, symBinAddr: 0x10002CCB0, symSize: 0x80 }
  - { offset: 0x46C6F, size: 0x8, addend: 0x0, symName: __RINvMs16_NtCsHUR1vrdMJt_3std4pathNtB7_4Path4joinRNtNtNtB9_3ffi6os_str5OsStrECscVIntrQSCr8_17build_script_main, symObjAddr: 0x270, symBinAddr: 0x10002CD30, symSize: 0x80 }
  - { offset: 0x46CB7, size: 0x8, addend: 0x0, symName: __RINvMs16_NtCsHUR1vrdMJt_3std4pathNtB7_4Path4joinRRBv_ECscVIntrQSCr8_17build_script_main, symObjAddr: 0x2F0, symBinAddr: 0x10002CDB0, symSize: 0x80 }
  - { offset: 0x46CF2, size: 0x8, addend: 0x0, symName: __RINvMs16_NtCsHUR1vrdMJt_3std4pathNtB7_4Path4joinRReECscVIntrQSCr8_17build_script_main, symObjAddr: 0x370, symBinAddr: 0x10002CE30, symSize: 0x80 }
  - { offset: 0x46D3A, size: 0x8, addend: 0x0, symName: __RINvMsr_NtCsHUR1vrdMJt_3std4pathNtB6_7PathBuf4pushRNtNtNtB8_3ffi6os_str5OsStrECscVIntrQSCr8_17build_script_main, symObjAddr: 0x3F0, symBinAddr: 0x10002CEB0, symSize: 0x60 }
  - { offset: 0x47904, size: 0x8, addend: 0x0, symName: __RNvMNtCslJiobkLta79_5alloc5allocNtB2_6Global10alloc_implCscVIntrQSCr8_17build_script_main, symObjAddr: 0x1680, symBinAddr: 0x10002E140, symSize: 0x290 }
  - { offset: 0x47D0E, size: 0x8, addend: 0x0, symName: __RNvMNtCslJiobkLta79_5alloc6stringNtB2_6String14into_boxed_strCscVIntrQSCr8_17build_script_main, symObjAddr: 0x1910, symBinAddr: 0x10002E3D0, symSize: 0x70 }
  - { offset: 0x47DFD, size: 0x8, addend: 0x0, symName: __RNvMNtCslJiobkLta79_5alloc6stringNtB2_6String3newCscVIntrQSCr8_17build_script_main, symObjAddr: 0x1980, symBinAddr: 0x10002E440, symSize: 0x40 }
  - { offset: 0x47FDD, size: 0x8, addend: 0x0, symName: __RNvMNtCslJiobkLta79_5alloc6stringNtB2_6String4pushCscVIntrQSCr8_17build_script_main, symObjAddr: 0x19C0, symBinAddr: 0x10002E480, symSize: 0x130 }
  - { offset: 0x482C4, size: 0x8, addend: 0x0, symName: __RNvMNtCslJiobkLta79_5alloc6stringNtB2_6String6as_strCscVIntrQSCr8_17build_script_main, symObjAddr: 0x1AF0, symBinAddr: 0x10002E5B0, symSize: 0x60 }
  - { offset: 0x483F9, size: 0x8, addend: 0x0, symName: __RNvMNtCslJiobkLta79_5alloc6stringNtB2_6String8is_emptyCscVIntrQSCr8_17build_script_main, symObjAddr: 0x1B50, symBinAddr: 0x10002E610, symSize: 0x20 }
  - { offset: 0x48514, size: 0x8, addend: 0x0, symName: __RNvMNtCslJiobkLta79_5alloc6stringNtB2_6String8push_strCscVIntrQSCr8_17build_script_main, symObjAddr: 0x1B70, symBinAddr: 0x10002E630, symSize: 0x50 }
  - { offset: 0x486F1, size: 0x8, addend: 0x0, symName: __RNvMNtCslJiobkLta79_5alloc6stringNtB2_6String9from_utf8CscVIntrQSCr8_17build_script_main, symObjAddr: 0x1BC0, symBinAddr: 0x10002E680, symSize: 0x1C0 }
  - { offset: 0x48879, size: 0x8, addend: 0x0, symName: __RNvMNtNtNtCsHUR1vrdMJt_3std11collections4hash3mapINtB2_7HashMapNtNtCslJiobkLta79_5alloc6string6StringINtNtCsieiGu2EXtoJ_4core6option6OptionNtNtNtB8_3ffi6os_str8OsStringEE3newCscVIntrQSCr8_17build_script_main, symObjAddr: 0x1D80, symBinAddr: 0x10002E840, symSize: 0xA0 }
  - { offset: 0x4898E, size: 0x8, addend: 0x0, symName: __RNvMNtNtNtCsHUR1vrdMJt_3std11collections4hash3mapINtB2_7HashMapNtNtCslJiobkLta79_5alloc6string6StringNtNtCscVIntrQSCr8_17build_script_main10cc_builder15CompilerFeatureE3newB1F_, symObjAddr: 0x1E20, symBinAddr: 0x10002E8E0, symSize: 0xA0 }
  - { offset: 0x48A4A, size: 0x8, addend: 0x0, symName: __RNvMs0_NtNtNtCsHUR1vrdMJt_3std11collections4hash3mapINtB5_7HashMapNtNtCslJiobkLta79_5alloc6string6StringNtNtCscVIntrQSCr8_17build_script_main10cc_builder15CompilerFeatureE6insertB1I_, symObjAddr: 0x1EC0, symBinAddr: 0x10002E980, symSize: 0x20 }
  - { offset: 0x48ACF, size: 0x8, addend: 0x0, symName: __RNvMs10_NtNtCsieiGu2EXtoJ_4core9core_arch3x86NtB6_7___m128i8as_i8x16CscVIntrQSCr8_17build_script_main, symObjAddr: 0x1EE0, symBinAddr: 0x10002E9A0, symSize: 0x20 }
  - { offset: 0x48B24, size: 0x8, addend: 0x0, symName: __RNvMs16_NtCsHUR1vrdMJt_3std4pathNtB6_4Path6existsCscVIntrQSCr8_17build_script_main, symObjAddr: 0x1F00, symBinAddr: 0x10002E9C0, symSize: 0x60 }
  - { offset: 0x48BE6, size: 0x8, addend: 0x0, symName: __RNvMs16_NtCsHUR1vrdMJt_3std4pathNtB6_4Path6to_strCscVIntrQSCr8_17build_script_main, symObjAddr: 0x1F60, symBinAddr: 0x10002EA20, symSize: 0x80 }
  - { offset: 0x48C7E, size: 0x8, addend: 0x0, symName: __RNvMs16_NtCsHUR1vrdMJt_3std4pathNtB6_4Path7displayCscVIntrQSCr8_17build_script_main, symObjAddr: 0x1FE0, symBinAddr: 0x10002EAA0, symSize: 0x20 }
  - { offset: 0x48CA1, size: 0x8, addend: 0x0, symName: __RNvMs16_NtCsHUR1vrdMJt_3std4pathNtB6_4Path8metadataCscVIntrQSCr8_17build_script_main, symObjAddr: 0x2000, symBinAddr: 0x10002EAC0, symSize: 0x30 }
  - { offset: 0x48CC4, size: 0x8, addend: 0x0, symName: __RNvMs16_NtCsHUR1vrdMJt_3std4pathNtB6_4Path9as_os_strCscVIntrQSCr8_17build_script_main, symObjAddr: 0x2030, symBinAddr: 0x10002EAF0, symSize: 0x20 }
  - { offset: 0x48D38, size: 0x8, addend: 0x0, symName: __RNvMs4_NtCsHUR1vrdMJt_3std4pathNtB5_9Component9as_os_strCscVIntrQSCr8_17build_script_main, symObjAddr: 0x2050, symBinAddr: 0x10002EB10, symSize: 0x200 }
  - { offset: 0x48F4F, size: 0x8, addend: 0x0, symName: __RNvMsj_NtCsHUR1vrdMJt_3std2fsNtB5_8Metadata3lenCscVIntrQSCr8_17build_script_main, symObjAddr: 0x2250, symBinAddr: 0x10002ED10, symSize: 0x10 }
  - { offset: 0x48FB3, size: 0x8, addend: 0x0, symName: __RNvMsr_NtCsHUR1vrdMJt_3std2fsNtB5_8FileType7is_fileCscVIntrQSCr8_17build_script_main, symObjAddr: 0x2260, symBinAddr: 0x10002ED20, symSize: 0x20 }
  - { offset: 0x49017, size: 0x8, addend: 0x0, symName: __RNvMsr_NtCsHUR1vrdMJt_3std4pathNtB5_7PathBuf14into_os_stringCscVIntrQSCr8_17build_script_main, symObjAddr: 0x2280, symBinAddr: 0x10002ED40, symSize: 0x20 }
  - { offset: 0x49056, size: 0x8, addend: 0x0, symName: __RNvMsr_NtCsHUR1vrdMJt_3std4pathNtB5_7PathBuf7as_pathCscVIntrQSCr8_17build_script_main, symObjAddr: 0x22A0, symBinAddr: 0x10002ED60, symSize: 0x30 }
  - { offset: 0x498F9, size: 0x8, addend: 0x0, symName: __RINvMNtCsieiGu2EXtoJ_4core6optionINtB3_6OptionNtNtCslJiobkLta79_5alloc6string6StringE3mapINtNtBM_3vec3VecNtNtCsHUR1vrdMJt_3std4path7PathBufENCNvCscVIntrQSCr8_17build_script_main28get_aws_lc_sys_includes_path0EB2i_, symObjAddr: 0x0, symBinAddr: 0x10002FD80, symSize: 0xB0 }
  - { offset: 0x4A388, size: 0x8, addend: 0x0, symName: __RINvMNtCslJiobkLta79_5alloc5sliceSNtNtNtCsHUR1vrdMJt_3std3ffi6os_str8OsString8into_vecNtNtB5_5alloc6GlobalECscVIntrQSCr8_17build_script_main, symObjAddr: 0x110, symBinAddr: 0x10002FE90, symSize: 0x40 }
  - { offset: 0x4A684, size: 0x8, addend: 0x0, symName: __RNCNCINvNtCslJiobkLta79_5alloc3str17join_generic_copyehReE00CscVIntrQSCr8_17build_script_main, symObjAddr: 0x2F00, symBinAddr: 0x100032C80, symSize: 0x40 }
  - { offset: 0x4A6DD, size: 0x8, addend: 0x0, symName: __RNCINvNtCslJiobkLta79_5alloc3str17join_generic_copyehReEs_0CscVIntrQSCr8_17build_script_main, symObjAddr: 0x2E80, symBinAddr: 0x100032C00, symSize: 0x80 }
  - { offset: 0x4A7AB, size: 0x8, addend: 0x0, symName: __RINvNtCslJiobkLta79_5alloc3str17join_generic_copyehReECscVIntrQSCr8_17build_script_main, symObjAddr: 0xFD0, symBinAddr: 0x100030D50, symSize: 0x1E90 }
  - { offset: 0x4BDD3, size: 0x8, addend: 0x0, symName: __RNvXs2_NtCslJiobkLta79_5alloc3streNtNtB7_6borrow7ToOwned8to_ownedCscVIntrQSCr8_17build_script_main, symObjAddr: 0x3A40, symBinAddr: 0x1000337C0, symSize: 0x50 }
  - { offset: 0x4BEA0, size: 0x8, addend: 0x0, symName: __RNvMs3_NtCslJiobkLta79_5alloc3stre18to_ascii_lowercaseCscVIntrQSCr8_17build_script_main, symObjAddr: 0x31D0, symBinAddr: 0x100032F50, symSize: 0x130 }
  - { offset: 0x4C0DA, size: 0x8, addend: 0x0, symName: __RNvXs_NtCslJiobkLta79_5alloc3strSReINtNtB6_5slice4JoinBv_E4joinCscVIntrQSCr8_17build_script_main, symObjAddr: 0x3E00, symBinAddr: 0x100033B80, symSize: 0x50 }
  - { offset: 0x4C141, size: 0x8, addend: 0x0, symName: __RNvNtCslJiobkLta79_5alloc3fmt6formatCscVIntrQSCr8_17build_script_main, symObjAddr: 0x3370, symBinAddr: 0x1000330F0, symSize: 0xC0 }
  - { offset: 0x4D1AA, size: 0x8, addend: 0x0, symName: __RNvXs9_NtCsieiGu2EXtoJ_4core6optionINtB5_6OptionReEINtNtB7_7convert4FromBK_E4fromCscVIntrQSCr8_17build_script_main, symObjAddr: 0x3B20, symBinAddr: 0x1000338A0, symSize: 0x20 }
  - { offset: 0x4D415, size: 0x8, addend: 0x0, symName: __RNvXsC_NtCsieiGu2EXtoJ_4core6optionINtB5_6OptionjENtNtNtB7_3ops9try_trait3Try11from_outputCscVIntrQSCr8_17build_script_main, symObjAddr: 0x3C40, symBinAddr: 0x1000339C0, symSize: 0x20 }
  - { offset: 0x4D44C, size: 0x8, addend: 0x0, symName: __RNvXsC_NtCsieiGu2EXtoJ_4core6optionINtB5_6OptionjENtNtNtB7_3ops9try_trait3Try6branchCscVIntrQSCr8_17build_script_main, symObjAddr: 0x3C60, symBinAddr: 0x1000339E0, symSize: 0x40 }
  - { offset: 0x4D532, size: 0x8, addend: 0x0, symName: __RNvXsD_NtCsieiGu2EXtoJ_4core6optionINtB5_6OptionjEINtNtNtB7_3ops9try_trait12FromResidualIBy_NtNtB7_7convert10InfallibleEE13from_residualCscVIntrQSCr8_17build_script_main, symObjAddr: 0x3CA0, symBinAddr: 0x100033A20, symSize: 0x10 }
  - { offset: 0x4D631, size: 0x8, addend: 0x0, symName: __RNvXsI_NtCsieiGu2EXtoJ_4core6optionINtB5_6OptionNtNtCslJiobkLta79_5alloc6string6StringENtNtB7_3fmt5Debug3fmtCscVIntrQSCr8_17build_script_main, symObjAddr: 0x3CB0, symBinAddr: 0x100033A30, symSize: 0x90 }
  - { offset: 0x4D69B, size: 0x8, addend: 0x0, symName: __RNvXsd_NtCsieiGu2EXtoJ_4core6optionINtB5_6OptionbENtNtB7_3cmp9PartialEq2eqCscVIntrQSCr8_17build_script_main, symObjAddr: 0x3EA0, symBinAddr: 0x100033C20, symSize: 0xA0 }
  - { offset: 0x4E1CF, size: 0x8, addend: 0x0, symName: __RNvXs_NtNtCsieiGu2EXtoJ_4core5slice4iterRSRNtNtNtCsHUR1vrdMJt_3std3ffi6os_str5OsStrNtNtNtNtB8_4iter6traits7collect12IntoIterator9into_iterCscVIntrQSCr8_17build_script_main, symObjAddr: 0x3E50, symBinAddr: 0x100033BD0, symSize: 0x50 }
  - { offset: 0x4E851, size: 0x8, addend: 0x0, symName: __RNvXs19_NtCsieiGu2EXtoJ_4core3fmtRINtNtB8_6option6OptionNtNtCslJiobkLta79_5alloc6string6StringENtB6_5Debug3fmtCscVIntrQSCr8_17build_script_main, symObjAddr: 0x3930, symBinAddr: 0x1000336B0, symSize: 0x20 }
  - { offset: 0x4E897, size: 0x8, addend: 0x0, symName: __RNvXs19_NtCsieiGu2EXtoJ_4core3fmtRNtCseYC8vFNOjrM_2cc5ErrorNtB6_5Debug3fmtCscVIntrQSCr8_17build_script_main, symObjAddr: 0x3950, symBinAddr: 0x1000336D0, symSize: 0x20 }
  - { offset: 0x4E8DD, size: 0x8, addend: 0x0, symName: __RNvXs19_NtCsieiGu2EXtoJ_4core3fmtRRNtNtNtCsHUR1vrdMJt_3std3ffi6os_str5OsStrNtB6_5Debug3fmtCscVIntrQSCr8_17build_script_main, symObjAddr: 0x3970, symBinAddr: 0x1000336F0, symSize: 0x20 }
  - { offset: 0x4E923, size: 0x8, addend: 0x0, symName: __RNvXs19_NtCsieiGu2EXtoJ_4core3fmtRSRNtNtNtCsHUR1vrdMJt_3std3ffi6os_str5OsStrNtB6_5Debug3fmtCscVIntrQSCr8_17build_script_main, symObjAddr: 0x3990, symBinAddr: 0x100033710, symSize: 0x30 }
  - { offset: 0x4E96F, size: 0x8, addend: 0x0, symName: __RNvXsq_NtCsieiGu2EXtoJ_4core3fmtSRNtNtNtCsHUR1vrdMJt_3std3ffi6os_str5OsStrNtB5_5Debug3fmtCscVIntrQSCr8_17build_script_main, symObjAddr: 0x4D90, symBinAddr: 0x100034B10, symSize: 0x80 }
  - { offset: 0x4ECFF, size: 0x8, addend: 0x0, symName: __RNvXs9_NtNtNtCsieiGu2EXtoJ_4core4iter8adapters4fuseINtB5_4FuseINtNtB7_7flatten7FlattenINtNtBb_6result8IntoIterNtNtCsHUR1vrdMJt_3std2fs7ReadDirEEEINtB5_8FuseImplBY_E4nextCscVIntrQSCr8_17build_script_main, symObjAddr: 0x3B40, symBinAddr: 0x1000338C0, symSize: 0x80 }
  - { offset: 0x4EDD2, size: 0x8, addend: 0x0, symName: __RNvXs9_NtNtNtCsieiGu2EXtoJ_4core4iter8adapters4fuseINtB5_4FuseINtNtBb_6result8IntoIterNtNtCsHUR1vrdMJt_3std2fs7ReadDirEEINtB5_8FuseImplBY_E4nextCscVIntrQSCr8_17build_script_main, symObjAddr: 0x3BC0, symBinAddr: 0x100033940, symSize: 0x80 }
  - { offset: 0x4EF9E, size: 0x8, addend: 0x0, symName: __RNvMNtNtCsieiGu2EXtoJ_4core4char7methodsc14is_ascii_digitCscVIntrQSCr8_17build_script_main, symObjAddr: 0x3110, symBinAddr: 0x100032E90, symSize: 0x40 }
  - { offset: 0x4F01F, size: 0x8, addend: 0x0, symName: __RNvNtNtCsieiGu2EXtoJ_4core4char7methods15encode_utf8_rawCscVIntrQSCr8_17build_script_main, symObjAddr: 0x3430, symBinAddr: 0x1000331B0, symSize: 0xE0 }
  - { offset: 0x4F11F, size: 0x8, addend: 0x0, symName: __RNvNtNtCsieiGu2EXtoJ_4core4char7methods25encode_utf8_raw_uncheckedCscVIntrQSCr8_17build_script_main, symObjAddr: 0x3510, symBinAddr: 0x100033290, symSize: 0x140 }
  - { offset: 0x4F33E, size: 0x8, addend: 0x0, symName: __RNvNvNtCsieiGu2EXtoJ_4core9ub_checks23maybe_is_nonoverlapping7runtimeCscVIntrQSCr8_17build_script_main, symObjAddr: 0x3650, symBinAddr: 0x1000333D0, symSize: 0xC0 }
  - { offset: 0x4F4F6, size: 0x8, addend: 0x0, symName: __RNvXNtCsieiGu2EXtoJ_4core7convertRNtNtNtCsHUR1vrdMJt_3std3ffi6os_str5OsStrINtB2_5AsRefNtNtBC_4path4PathE6as_refCscVIntrQSCr8_17build_script_main, symObjAddr: 0x3710, symBinAddr: 0x100033490, symSize: 0x30 }
  - { offset: 0x4F536, size: 0x8, addend: 0x0, symName: __RNvXNtCsieiGu2EXtoJ_4core7convertRRNtNtNtCsHUR1vrdMJt_3std3ffi6os_str5OsStrINtB2_5AsRefBx_E6as_refCscVIntrQSCr8_17build_script_main, symObjAddr: 0x3740, symBinAddr: 0x1000334C0, symSize: 0x20 }
  - { offset: 0x4F57C, size: 0x8, addend: 0x0, symName: __RNvXs1_NtCsieiGu2EXtoJ_4core7convertINtNtB7_6option6OptionReEINtB5_4IntoBy_E4intoCscVIntrQSCr8_17build_script_main, symObjAddr: 0x39C0, symBinAddr: 0x100033740, symSize: 0x20 }
  - { offset: 0x4F5D2, size: 0x8, addend: 0x0, symName: __RNvXs0_NtCsieiGu2EXtoJ_4core6borrowReINtB5_6BorroweE6borrowCscVIntrQSCr8_17build_script_main, symObjAddr: 0x3910, symBinAddr: 0x100033690, symSize: 0x20 }
  - { offset: 0x4F613, size: 0x8, addend: 0x0, symName: __RNvYINtNtCsieiGu2EXtoJ_4core6option6OptionbENtNtB7_3cmp9PartialEq2neCscVIntrQSCr8_17build_script_main, symObjAddr: 0x4E10, symBinAddr: 0x100034B90, symSize: 0x20 }
  - { offset: 0x4F732, size: 0x8, addend: 0x0, symName: __RNvXs0_NtCseYC8vFNOjrM_2cc15command_helpersNtB5_11CargoOutputNtNtCsieiGu2EXtoJ_4core5clone5Clone5cloneCscVIntrQSCr8_17build_script_main, symObjAddr: 0x3880, symBinAddr: 0x100033600, symSize: 0x90 }
  - { offset: 0x4F764, size: 0x8, addend: 0x0, symName: __RNvXs2_NtCseYC8vFNOjrM_2cc15command_helpersNtB5_10OutputKindNtNtCsieiGu2EXtoJ_4core5clone5Clone5cloneCscVIntrQSCr8_17build_script_main, symObjAddr: 0x3A00, symBinAddr: 0x100033780, symSize: 0x40 }
  - { offset: 0x4FDF4, size: 0x8, addend: 0x0, symName: __RNvXse_CseYC8vFNOjrM_2ccNtB5_5BuildNtNtCsieiGu2EXtoJ_4core5clone5Clone5cloneCscVIntrQSCr8_17build_script_main, symObjAddr: 0x3F40, symBinAddr: 0x100033CC0, symSize: 0xC50 }
  - { offset: 0x4FE28, size: 0x8, addend: 0x0, symName: __RNvXsh_CseYC8vFNOjrM_2ccNtB5_9ErrorKindNtNtCsieiGu2EXtoJ_4core3fmt5Debug3fmtCscVIntrQSCr8_17build_script_main, symObjAddr: 0x4B90, symBinAddr: 0x100034910, symSize: 0x170 }
  - { offset: 0x4FE6B, size: 0x8, addend: 0x0, symName: __RNvXsj_CseYC8vFNOjrM_2ccNtB5_5ErrorNtNtCsieiGu2EXtoJ_4core3fmt5Debug3fmtCscVIntrQSCr8_17build_script_main, symObjAddr: 0x4D00, symBinAddr: 0x100034A80, symSize: 0x90 }
  - { offset: 0x50169, size: 0x8, addend: 0x0, symName: __RNvXs1m_NtCsHUR1vrdMJt_3std4pathNtNtNtB8_3ffi6os_str5OsStrINtNtCsieiGu2EXtoJ_4core7convert5AsRefNtB6_4PathE6as_refCscVIntrQSCr8_17build_script_main, symObjAddr: 0x39E0, symBinAddr: 0x100033760, symSize: 0x20 }
  - { offset: 0x5028E, size: 0x8, addend: 0x0, symName: __RNvXNvMs0_NtNtCsHUR1vrdMJt_3std3ffi6os_strNtB8_8OsString4pushRNtB8_5OsStrNtB2_10SpecPushTo12spec_push_toCscVIntrQSCr8_17build_script_main, symObjAddr: 0x3760, symBinAddr: 0x1000334E0, symSize: 0x80 }
  - { offset: 0x5041E, size: 0x8, addend: 0x0, symName: __RNvXNvXs2_NtNtCsHUR1vrdMJt_3std3ffi6os_strNtB8_8OsStringINtNtCsieiGu2EXtoJ_4core7convert4FromRpE4fromRReNtB2_14SpecToOsString17spec_to_os_stringCscVIntrQSCr8_17build_script_main, symObjAddr: 0x37E0, symBinAddr: 0x100033560, symSize: 0xA0 }
  - { offset: 0x504D7, size: 0x8, addend: 0x0, symName: __RNvXs2_NtNtCsHUR1vrdMJt_3std3ffi6os_strNtB5_8OsStringINtNtCsieiGu2EXtoJ_4core7convert4FromRReE4fromCscVIntrQSCr8_17build_script_main, symObjAddr: 0x3A90, symBinAddr: 0x100033810, symSize: 0x30 }
  - { offset: 0x50514, size: 0x8, addend: 0x0, symName: __RNvXs3_NtNtCsHUR1vrdMJt_3std3ffi6os_strNtB5_8OsStringINtNtNtCsieiGu2EXtoJ_4core3ops5index5IndexNtNtBU_5range9RangeFullE5indexCscVIntrQSCr8_17build_script_main, symObjAddr: 0x3AC0, symBinAddr: 0x100033840, symSize: 0x60 }
  - { offset: 0x50623, size: 0x8, addend: 0x0, symName: __RNvXsT_NtNtCsHUR1vrdMJt_3std3ffi6os_strNtB5_5OsStrNtNtCslJiobkLta79_5alloc6borrow7ToOwned8to_ownedCscVIntrQSCr8_17build_script_main, symObjAddr: 0x3D40, symBinAddr: 0x100033AC0, symSize: 0x80 }
  - { offset: 0x506D7, size: 0x8, addend: 0x0, symName: __RNvXsV_NtNtCsHUR1vrdMJt_3std3ffi6os_strNtB5_8OsStringINtNtCsieiGu2EXtoJ_4core7convert5AsRefNtB5_5OsStrE6as_refCscVIntrQSCr8_17build_script_main, symObjAddr: 0x3DC0, symBinAddr: 0x100033B40, symSize: 0x20 }
  - { offset: 0x50729, size: 0x8, addend: 0x0, symName: __RNvXsW_NtNtCsHUR1vrdMJt_3std3ffi6os_streINtNtCsieiGu2EXtoJ_4core7convert5AsRefNtB5_5OsStrE6as_refCscVIntrQSCr8_17build_script_main, symObjAddr: 0x3DE0, symBinAddr: 0x100033B60, symSize: 0x20 }
  - { offset: 0x5084E, size: 0x8, addend: 0x0, symName: __RINvNtNtCsHUR1vrdMJt_3std3sys9backtrace28___rust_begin_short_backtraceFEuuECscVIntrQSCr8_17build_script_main, symObjAddr: 0x2E60, symBinAddr: 0x100032BE0, symSize: 0x20 }
  - { offset: 0x50C0D, size: 0x8, addend: 0x0, symName: __RINvMNtCsieiGu2EXtoJ_4core6optionINtB3_6OptionNtNtCslJiobkLta79_5alloc6string6StringE3mapINtNtBM_3vec3VecNtNtCsHUR1vrdMJt_3std4path7PathBufENCNvCscVIntrQSCr8_17build_script_main28get_aws_lc_sys_includes_path0EB2i_, symObjAddr: 0x0, symBinAddr: 0x10002FD80, symSize: 0xB0 }
  - { offset: 0x50CB9, size: 0x8, addend: 0x0, symName: __RINvMNtCsieiGu2EXtoJ_4core6optionINtB3_6OptionReE3mapINtNtCslJiobkLta79_5alloc4sync3ArceENvYBI_INtNtB5_7convert4IntoBP_E4intoECscVIntrQSCr8_17build_script_main, symObjAddr: 0xB0, symBinAddr: 0x10002FE30, symSize: 0x60 }
  - { offset: 0x50DBB, size: 0x8, addend: 0x0, symName: __RINvMs0_NtNtCsHUR1vrdMJt_3std3ffi6os_strNtB6_8OsString4pushRNtB6_5OsStrECscVIntrQSCr8_17build_script_main, symObjAddr: 0x150, symBinAddr: 0x10002FED0, symSize: 0x50 }
  - { offset: 0x512BA, size: 0x8, addend: 0x0, symName: __RINvMs3_CseYC8vFNOjrM_2ccNtB6_5Build4fileNtNtCsHUR1vrdMJt_3std4path7PathBufECscVIntrQSCr8_17build_script_main, symObjAddr: 0x1A0, symBinAddr: 0x10002FF20, symSize: 0xC0 }
  - { offset: 0x512F6, size: 0x8, addend: 0x0, symName: __RINvMs3_CseYC8vFNOjrM_2ccNtB6_5Build4flagNtNtCslJiobkLta79_5alloc6string6StringECscVIntrQSCr8_17build_script_main, symObjAddr: 0x260, symBinAddr: 0x10002FFE0, symSize: 0xB0 }
  - { offset: 0x51332, size: 0x8, addend: 0x0, symName: __RINvMs3_CseYC8vFNOjrM_2ccNtB6_5Build4flagRNtNtCslJiobkLta79_5alloc6string6StringECscVIntrQSCr8_17build_script_main, symObjAddr: 0x310, symBinAddr: 0x100030090, symSize: 0x90 }
  - { offset: 0x5136D, size: 0x8, addend: 0x0, symName: __RINvMs3_CseYC8vFNOjrM_2ccNtB6_5Build4flagReECscVIntrQSCr8_17build_script_main, symObjAddr: 0x3A0, symBinAddr: 0x100030120, symSize: 0xA0 }
  - { offset: 0x513A8, size: 0x8, addend: 0x0, symName: __RINvMs3_CseYC8vFNOjrM_2ccNtB6_5Build6defineINtNtCsieiGu2EXtoJ_4core6option6OptionReEECscVIntrQSCr8_17build_script_main, symObjAddr: 0x440, symBinAddr: 0x1000301C0, symSize: 0x180 }
  - { offset: 0x513F2, size: 0x8, addend: 0x0, symName: __RINvMs3_CseYC8vFNOjrM_2ccNtB6_5Build6defineReECscVIntrQSCr8_17build_script_main, symObjAddr: 0x5C0, symBinAddr: 0x100030340, symSize: 0x180 }
  - { offset: 0x5143C, size: 0x8, addend: 0x0, symName: __RINvMs3_CseYC8vFNOjrM_2ccNtB6_5Build6objectNtNtCsHUR1vrdMJt_3std4path7PathBufECscVIntrQSCr8_17build_script_main, symObjAddr: 0x740, symBinAddr: 0x1000304C0, symSize: 0xB0 }
  - { offset: 0x51496, size: 0x8, addend: 0x0, symName: __RINvMs3_CseYC8vFNOjrM_2ccNtB6_5Build7includeRNtNtCsHUR1vrdMJt_3std4path4PathECscVIntrQSCr8_17build_script_main, symObjAddr: 0x7F0, symBinAddr: 0x100030570, symSize: 0xA0 }
  - { offset: 0x514DE, size: 0x8, addend: 0x0, symName: __RINvMs3_CseYC8vFNOjrM_2ccNtB6_5Build7out_dirRNtNtCsHUR1vrdMJt_3std4path7PathBufECscVIntrQSCr8_17build_script_main, symObjAddr: 0x890, symBinAddr: 0x100030610, symSize: 0xD0 }
  - { offset: 0x51519, size: 0x8, addend: 0x0, symName: __RINvMs3_CseYC8vFNOjrM_2ccNtB6_5Build8asm_flagReECscVIntrQSCr8_17build_script_main, symObjAddr: 0x960, symBinAddr: 0x1000306E0, symSize: 0xA0 }
  - { offset: 0x51561, size: 0x8, addend: 0x0, symName: __RINvMs4_CseYC8vFNOjrM_2ccNtB6_5Build17is_flag_supportedNtNtCslJiobkLta79_5alloc6string6StringECscVIntrQSCr8_17build_script_main, symObjAddr: 0xA00, symBinAddr: 0x100030780, symSize: 0x300 }
  - { offset: 0x51612, size: 0x8, addend: 0x0, symName: __RINvMs4_CseYC8vFNOjrM_2ccNtB6_5Build17is_flag_supportedRNtNtCslJiobkLta79_5alloc6string6StringECscVIntrQSCr8_17build_script_main, symObjAddr: 0xD00, symBinAddr: 0x100030A80, symSize: 0x2D0 }
  - { offset: 0x51EF7, size: 0x8, addend: 0x0, symName: __RNvMNtCsieiGu2EXtoJ_4core6optionINtB2_6OptionNtNtCslJiobkLta79_5alloc6string6StringE17unwrap_or_defaultCscVIntrQSCr8_17build_script_main, symObjAddr: 0x2F40, symBinAddr: 0x100032CC0, symSize: 0x80 }
  - { offset: 0x51F42, size: 0x8, addend: 0x0, symName: __RNvMNtCsieiGu2EXtoJ_4core6optionINtB2_6OptionNtNtCslJiobkLta79_5alloc6string6StringE2orCscVIntrQSCr8_17build_script_main, symObjAddr: 0x2FC0, symBinAddr: 0x100032D40, symSize: 0xF0 }
  - { offset: 0x51FC6, size: 0x8, addend: 0x0, symName: __RNvMNtCsieiGu2EXtoJ_4core6optionINtB2_6OptionNtNtCslJiobkLta79_5alloc6string6StringE7is_noneCscVIntrQSCr8_17build_script_main, symObjAddr: 0x30B0, symBinAddr: 0x100032E30, symSize: 0x30 }
  - { offset: 0x52010, size: 0x8, addend: 0x0, symName: __RNvMNtCsieiGu2EXtoJ_4core6optionINtB2_6OptionNtNtCslJiobkLta79_5alloc6string6StringE7is_someCscVIntrQSCr8_17build_script_main, symObjAddr: 0x30E0, symBinAddr: 0x100032E60, symSize: 0x30 }
  - { offset: 0x52058, size: 0x8, addend: 0x0, symName: __RNvMs0_NtNtCsHUR1vrdMJt_3std3ffi6os_strNtB5_8OsString3newCscVIntrQSCr8_17build_script_main, symObjAddr: 0x3150, symBinAddr: 0x100032ED0, symSize: 0x60 }
  - { offset: 0x520B7, size: 0x8, addend: 0x0, symName: __RNvMs0_NtNtCsHUR1vrdMJt_3std3ffi6os_strNtB5_8OsString9as_os_strCscVIntrQSCr8_17build_script_main, symObjAddr: 0x31B0, symBinAddr: 0x100032F30, symSize: 0x20 }
  - { offset: 0x52296, size: 0x8, addend: 0x0, symName: __RNvMsl_NtNtCsHUR1vrdMJt_3std3ffi6os_strNtB5_5OsStr6to_strCscVIntrQSCr8_17build_script_main, symObjAddr: 0x3300, symBinAddr: 0x100033080, symSize: 0x70 }
  - { offset: 0x529BF, size: 0x8, addend: 0x0, symName: __RINvMNtNtCsieiGu2EXtoJ_4core3fmt2rtNtB3_8Argument11new_displayNtNtCslJiobkLta79_5alloc6string6StringECsPjO8QFnvM3_8fs_extra, symObjAddr: 0x0, symBinAddr: 0x100034C20, symSize: 0x30 }
  - { offset: 0x52C71, size: 0x8, addend: 0x0, symName: __RNvXsH_NtCsieiGu2EXtoJ_4core3fmtNtB5_5ErrorNtB5_5Debug3fmtCsPjO8QFnvM3_8fs_extra, symObjAddr: 0x3280, symBinAddr: 0x1000377E0, symSize: 0x40 }
  - { offset: 0x52CBB, size: 0x8, addend: 0x0, symName: __RNvXs_NvNtNtCsieiGu2EXtoJ_4core3fmt5Write9write_fmtQNtNtCslJiobkLta79_5alloc6string6StringNtB4_12SpecWriteFmt14spec_write_fmtCsPjO8QFnvM3_8fs_extra, symObjAddr: 0x33F0, symBinAddr: 0x1000378F0, symSize: 0x170 }
  - { offset: 0x52D72, size: 0x8, addend: 0x0, symName: __RNvYNtNtCslJiobkLta79_5alloc6string6StringNtNtCsieiGu2EXtoJ_4core3fmt5Write9write_fmtCsPjO8QFnvM3_8fs_extra, symObjAddr: 0x3770, symBinAddr: 0x100037C70, symSize: 0x20 }
  - { offset: 0x53049, size: 0x8, addend: 0x0, symName: __RNvNvMs1_NtNtCsieiGu2EXtoJ_4core3ptr8non_nullINtB7_7NonNullpE13new_unchecked18precondition_checkCsPjO8QFnvM3_8fs_extra, symObjAddr: 0x1EB0, symBinAddr: 0x1000366E0, symSize: 0x90 }
  - { offset: 0x53398, size: 0x8, addend: 0x0, symName: __RINvNtCsieiGu2EXtoJ_4core3ptr13drop_in_placeINtNtCslJiobkLta79_5alloc3vec3VechEECsPjO8QFnvM3_8fs_extra, symObjAddr: 0xD0, symBinAddr: 0x100034C90, symSize: 0x50 }
  - { offset: 0x533C7, size: 0x8, addend: 0x0, symName: __RINvNtCsieiGu2EXtoJ_4core3ptr13drop_in_placeINtNtCslJiobkLta79_5alloc5boxed3BoxDNtNtB4_5error5ErrorNtNtB4_6marker4SyncNtB1B_4SendEL_EECsPjO8QFnvM3_8fs_extra, symObjAddr: 0x120, symBinAddr: 0x100034CE0, symSize: 0x70 }
  - { offset: 0x533F6, size: 0x8, addend: 0x0, symName: __RINvNtCsieiGu2EXtoJ_4core3ptr13drop_in_placeINtNtCslJiobkLta79_5alloc5boxed3BoxNtNtNtCsHUR1vrdMJt_3std2io5error6CustomEECsPjO8QFnvM3_8fs_extra, symObjAddr: 0x190, symBinAddr: 0x100034D50, symSize: 0x50 }
  - { offset: 0x53425, size: 0x8, addend: 0x0, symName: __RINvNtCsieiGu2EXtoJ_4core3ptr13drop_in_placeINtNtCslJiobkLta79_5alloc7raw_vec6RawVechEECsPjO8QFnvM3_8fs_extra, symObjAddr: 0x1E0, symBinAddr: 0x100034DA0, symSize: 0x20 }
  - { offset: 0x53454, size: 0x8, addend: 0x0, symName: __RINvNtCsieiGu2EXtoJ_4core3ptr13drop_in_placeINtNtNtCsHUR1vrdMJt_3std2io5error9ErrorDataINtNtCslJiobkLta79_5alloc5boxed3BoxNtBJ_6CustomEEECsPjO8QFnvM3_8fs_extra, symObjAddr: 0x200, symBinAddr: 0x100034DC0, symSize: 0x30 }
  - { offset: 0x53483, size: 0x8, addend: 0x0, symName: __RINvNtCsieiGu2EXtoJ_4core3ptr13drop_in_placeNtNtCsPjO8QFnvM3_8fs_extra5error9ErrorKindEBK_, symObjAddr: 0x230, symBinAddr: 0x100034DF0, symSize: 0x70 }
  - { offset: 0x534B2, size: 0x8, addend: 0x0, symName: __RINvNtCsieiGu2EXtoJ_4core3ptr13drop_in_placeNtNtCslJiobkLta79_5alloc6string6StringECsPjO8QFnvM3_8fs_extra, symObjAddr: 0x2A0, symBinAddr: 0x100034E60, symSize: 0x20 }
  - { offset: 0x534E1, size: 0x8, addend: 0x0, symName: __RINvNtCsieiGu2EXtoJ_4core3ptr13drop_in_placeNtNtNtCsHUR1vrdMJt_3std2io5error5ErrorECsPjO8QFnvM3_8fs_extra, symObjAddr: 0x2C0, symBinAddr: 0x100034E80, symSize: 0x20 }
  - { offset: 0x53510, size: 0x8, addend: 0x0, symName: __RINvNtCsieiGu2EXtoJ_4core3ptr13drop_in_placeNtNtNtCsHUR1vrdMJt_3std2io5error6CustomECsPjO8QFnvM3_8fs_extra, symObjAddr: 0x2E0, symBinAddr: 0x100034EA0, symSize: 0x20 }
  - { offset: 0x5353F, size: 0x8, addend: 0x0, symName: __RINvNtCsieiGu2EXtoJ_4core3ptr13drop_in_placeNtNtNtCsHUR1vrdMJt_3std3ffi6os_str8OsStringECsPjO8QFnvM3_8fs_extra, symObjAddr: 0x300, symBinAddr: 0x100034EC0, symSize: 0x20 }
  - { offset: 0x5356E, size: 0x8, addend: 0x0, symName: __RINvNtCsieiGu2EXtoJ_4core3ptr13drop_in_placeNtNtNtNtCsHUR1vrdMJt_3std2io5error14repr_bitpacked4ReprECsPjO8QFnvM3_8fs_extra, symObjAddr: 0x320, symBinAddr: 0x100034EE0, symSize: 0x20 }
  - { offset: 0x5359D, size: 0x8, addend: 0x0, symName: __RINvNtCsieiGu2EXtoJ_4core3ptr13drop_in_placeNtNtNtNtCsHUR1vrdMJt_3std3sys6os_str5bytes3BufECsPjO8QFnvM3_8fs_extra, symObjAddr: 0x340, symBinAddr: 0x100034F00, symSize: 0x20 }
  - { offset: 0x53B5C, size: 0x8, addend: 0x0, symName: __RNvNvNtCsieiGu2EXtoJ_4core3ptr19copy_nonoverlapping18precondition_checkCsPjO8QFnvM3_8fs_extra, symObjAddr: 0x1FE0, symBinAddr: 0x100036810, symSize: 0x4B0 }
  - { offset: 0x5441F, size: 0x8, addend: 0x0, symName: __RNvNvNtCsieiGu2EXtoJ_4core4hint16assert_unchecked18precondition_checkCsPjO8QFnvM3_8fs_extra, symObjAddr: 0x2490, symBinAddr: 0x100036CC0, symSize: 0xA0 }
  - { offset: 0x5447F, size: 0x8, addend: 0x0, symName: __RNvNvNtCsieiGu2EXtoJ_4core4hint21unreachable_unchecked18precondition_checkCsPjO8QFnvM3_8fs_extra, symObjAddr: 0x2530, symBinAddr: 0x100036D60, symSize: 0x80 }
  - { offset: 0x54568, size: 0x8, addend: 0x0, symName: __RNvNvNtNtCsieiGu2EXtoJ_4core5slice3raw14from_raw_parts18precondition_checkCsPjO8QFnvM3_8fs_extra, symObjAddr: 0x2670, symBinAddr: 0x100036EA0, symSize: 0x260 }
  - { offset: 0x548E4, size: 0x8, addend: 0x0, symName: __RNvNtNtCsieiGu2EXtoJ_4core4char7methods25encode_utf8_raw_uncheckedCsPjO8QFnvM3_8fs_extra, symObjAddr: 0x1400, symBinAddr: 0x100035C30, symSize: 0x140 }
  - { offset: 0x54B8C, size: 0x8, addend: 0x0, symName: __RNvNvMNtNtCsieiGu2EXtoJ_4core5alloc6layoutNtB4_6Layout25from_size_align_unchecked18precondition_checkCsPjO8QFnvM3_8fs_extra, symObjAddr: 0x1E00, symBinAddr: 0x100036630, symSize: 0xB0 }
  - { offset: 0x54CF2, size: 0x8, addend: 0x0, symName: __RNvNvNtCsieiGu2EXtoJ_4core9ub_checks23maybe_is_nonoverlapping7runtimeCsPjO8QFnvM3_8fs_extra, symObjAddr: 0x25B0, symBinAddr: 0x100036DE0, symSize: 0xC0 }
  - { offset: 0x5501E, size: 0x8, addend: 0x0, symName: __RNvXs1V_NtCslJiobkLta79_5alloc6stringeNtB6_12SpecToString14spec_to_stringCsPjO8QFnvM3_8fs_extra, symObjAddr: 0x2A70, symBinAddr: 0x100037170, symSize: 0x50 }
  - { offset: 0x55147, size: 0x8, addend: 0x0, symName: __RNvXsT_NtCslJiobkLta79_5alloc6stringNtB5_6StringNtNtCsieiGu2EXtoJ_4core3fmt5Write10write_charCsPjO8QFnvM3_8fs_extra, symObjAddr: 0x32C0, symBinAddr: 0x100037820, symSize: 0x30 }
  - { offset: 0x55184, size: 0x8, addend: 0x0, symName: __RNvXsT_NtCslJiobkLta79_5alloc6stringNtB5_6StringNtNtCsieiGu2EXtoJ_4core3fmt5Write9write_strCsPjO8QFnvM3_8fs_extra, symObjAddr: 0x32F0, symBinAddr: 0x100037850, symSize: 0x30 }
  - { offset: 0x551E5, size: 0x8, addend: 0x0, symName: __RNvXss_NtCslJiobkLta79_5alloc6stringNtB5_6StringNtNtNtCsieiGu2EXtoJ_4core3ops5deref5Deref5derefCsPjO8QFnvM3_8fs_extra, symObjAddr: 0x35D0, symBinAddr: 0x100037AD0, symSize: 0x20 }
  - { offset: 0x55219, size: 0x8, addend: 0x0, symName: __RNvXsl_NtCslJiobkLta79_5alloc6stringNtB5_6StringNtNtCsieiGu2EXtoJ_4core3fmt7Display3fmtCsPjO8QFnvM3_8fs_extra, symObjAddr: 0x3560, symBinAddr: 0x100037A60, symSize: 0x70 }
  - { offset: 0x5537E, size: 0x8, addend: 0x0, symName: __RNvXsw_NtCslJiobkLta79_5alloc6stringNtNtNtCsHUR1vrdMJt_3std2io5error5ErrorNtB5_8ToString9to_stringCsPjO8QFnvM3_8fs_extra, symObjAddr: 0x35F0, symBinAddr: 0x100037AF0, symSize: 0x30 }
  - { offset: 0x553B5, size: 0x8, addend: 0x0, symName: __RNvXsw_NtCslJiobkLta79_5alloc6stringeNtB5_8ToString9to_stringCsPjO8QFnvM3_8fs_extra, symObjAddr: 0x3620, symBinAddr: 0x100037B20, symSize: 0x30 }
  - { offset: 0x553F2, size: 0x8, addend: 0x0, symName: __RNvXsx_NtCslJiobkLta79_5alloc6stringNtNtNtCsHUR1vrdMJt_3std2io5error5ErrorNtB5_12SpecToString14spec_to_stringCsPjO8QFnvM3_8fs_extra, symObjAddr: 0x3650, symBinAddr: 0x100037B50, symSize: 0x120 }
  - { offset: 0x5566D, size: 0x8, addend: 0x0, symName: __RNvNvMs_NtCslJiobkLta79_5alloc3vecINtB6_3VecppE7set_len18precondition_checkCsPjO8QFnvM3_8fs_extra, symObjAddr: 0x1F40, symBinAddr: 0x100036770, symSize: 0xA0 }
  - { offset: 0x5570D, size: 0x8, addend: 0x0, symName: __RNvXs_NtCslJiobkLta79_5alloc5allocNtB4_6GlobalNtNtCsieiGu2EXtoJ_4core5alloc9Allocator10deallocateCsPjO8QFnvM3_8fs_extra, symObjAddr: 0x3380, symBinAddr: 0x100037880, symSize: 0x70 }
  - { offset: 0x559AB, size: 0x8, addend: 0x0, symName: __RINvXs_NvMNtCslJiobkLta79_5alloc5sliceSp9to_vec_inhNtB5_10ConvertVec6to_vecNtNtBa_5alloc6GlobalECsPjO8QFnvM3_8fs_extra, symObjAddr: 0x760, symBinAddr: 0x100035320, symSize: 0x170 }
  - { offset: 0x55D28, size: 0x8, addend: 0x0, symName: __RNvXs6_NtCslJiobkLta79_5alloc5boxedINtB5_3BoxDNtNtCsieiGu2EXtoJ_4core5error5ErrorNtNtBM_6marker4SyncNtB1j_4SendEL_ENtNtNtBM_3ops4drop4Drop4dropCsPjO8QFnvM3_8fs_extra, symObjAddr: 0x30D0, symBinAddr: 0x100037670, symSize: 0xC0 }
  - { offset: 0x55E65, size: 0x8, addend: 0x0, symName: __RNvXs6_NtCslJiobkLta79_5alloc5boxedINtB5_3BoxNtNtNtCsHUR1vrdMJt_3std2io5error6CustomENtNtNtCsieiGu2EXtoJ_4core3ops4drop4Drop4dropCsPjO8QFnvM3_8fs_extra, symObjAddr: 0x3190, symBinAddr: 0x100037730, symSize: 0xB0 }
  - { offset: 0x5626F, size: 0x8, addend: 0x0, symName: __RNCNvXs1_NtNtNtCsHUR1vrdMJt_3std2io5error14repr_bitpackedNtB7_4ReprNtNtNtCsieiGu2EXtoJ_4core3ops4drop4Drop4drop0CsPjO8QFnvM3_8fs_extra, symObjAddr: 0x8E0, symBinAddr: 0x1000354A0, symSize: 0x30 }
  - { offset: 0x56324, size: 0x8, addend: 0x0, symName: __RNvXs1_NtNtNtCsHUR1vrdMJt_3std2io5error14repr_bitpackedNtB5_4ReprNtNtNtCsieiGu2EXtoJ_4core3ops4drop4Drop4dropCsPjO8QFnvM3_8fs_extra, symObjAddr: 0x2BD0, symBinAddr: 0x1000371C0, symSize: 0x30 }
  - { offset: 0x5634D, size: 0x8, addend: 0x0, symName: __RINvNtNtNtCsHUR1vrdMJt_3std2io5error14repr_bitpacked11decode_reprINtNtCslJiobkLta79_5alloc5boxed3BoxNtB4_6CustomENCNvXs1_B2_NtB2_4ReprNtNtNtCsieiGu2EXtoJ_4core3ops4drop4Drop4drop0ECsPjO8QFnvM3_8fs_extra, symObjAddr: 0x360, symBinAddr: 0x100034F20, symSize: 0x200 }
  - { offset: 0x565BF, size: 0x8, addend: 0x0, symName: __RNCNvMs0_NtNtNtCsHUR1vrdMJt_3std2io5error14repr_bitpackedNtB7_4Repr4data0CsPjO8QFnvM3_8fs_extra, symObjAddr: 0x8D0, symBinAddr: 0x100035490, symSize: 0x10 }
  - { offset: 0x565F7, size: 0x8, addend: 0x0, symName: __RINvNtNtNtCsHUR1vrdMJt_3std2io5error14repr_bitpacked11decode_reprRNtB4_6CustomNCNvMs0_B2_NtB2_4Repr4data0ECsPjO8QFnvM3_8fs_extra, symObjAddr: 0x560, symBinAddr: 0x100035120, symSize: 0x200 }
  - { offset: 0x5688E, size: 0x8, addend: 0x0, symName: __RNvNtNtNtCsHUR1vrdMJt_3std2io5error14repr_bitpacked14kind_from_primCsPjO8QFnvM3_8fs_extra, symObjAddr: 0x1540, symBinAddr: 0x100035D70, symSize: 0x5B0 }
  - { offset: 0x572BB, size: 0x8, addend: 0x0, symName: __RNvNtNtNtCsHUR1vrdMJt_3std3sys3pal4unix17decode_error_kindCsPjO8QFnvM3_8fs_extra, symObjAddr: 0x1AF0, symBinAddr: 0x100036320, symSize: 0x310 }
  - { offset: 0x5744F, size: 0x8, addend: 0x0, symName: __RNvXs4_NtCsPjO8QFnvM3_8fs_extra3dirNtB5_10DirOptionsNtNtCsieiGu2EXtoJ_4core7default7Default7defaultB7_, symObjAddr: 0x2CA0, symBinAddr: 0x100037240, symSize: 0x10 }
  - { offset: 0x57659, size: 0x8, addend: 0x0, symName: __RNvXs0_NtCsPjO8QFnvM3_8fs_extra5errorNtB5_5ErrorNtNtCsieiGu2EXtoJ_4core3fmt7Display3fmt, symObjAddr: 0x2A00, symBinAddr: 0x100037100, symSize: 0x70 }
  - { offset: 0x576B6, size: 0x8, addend: 0x0, symName: __RNvXs2_NtCsPjO8QFnvM3_8fs_extra5errorNtB5_5ErrorINtNtCsieiGu2EXtoJ_4core7convert4FromNtNtCsHUR1vrdMJt_3std4path16StripPrefixErrorE4from, symObjAddr: 0x2C00, symBinAddr: 0x1000371F0, symSize: 0x50 }
  - { offset: 0x576F3, size: 0x8, addend: 0x0, symName: __RNvXs4_NtCsPjO8QFnvM3_8fs_extra5errorNtB5_5ErrorINtNtCsieiGu2EXtoJ_4core7convert4FromNtNtNtCsHUR1vrdMJt_3std2io5error5ErrorE4from, symObjAddr: 0x2CB0, symBinAddr: 0x100037250, symSize: 0x420 }
  - { offset: 0x577DA, size: 0x8, addend: 0x0, symName: __RINvMNtNtCsieiGu2EXtoJ_4core3fmt2rtNtB3_8Argument11new_displayNtNtCslJiobkLta79_5alloc6string6StringECsPjO8QFnvM3_8fs_extra, symObjAddr: 0x0, symBinAddr: 0x100034C20, symSize: 0x30 }
  - { offset: 0x578D5, size: 0x8, addend: 0x0, symName: __RINvMs_NtNtCsieiGu2EXtoJ_4core3fmt2rtNtB7_9Arguments6new_v1Kj1_KBW_ECsPjO8QFnvM3_8fs_extra, symObjAddr: 0x30, symBinAddr: 0x100034C50, symSize: 0x40 }
  - { offset: 0x57D0F, size: 0x8, addend: 0x0, symName: __RNvMNtCsPjO8QFnvM3_8fs_extra3dirNtB2_11CopyOptions10skip_exist, symObjAddr: 0x910, symBinAddr: 0x1000354D0, symSize: 0x40 }
  - { offset: 0x57D3F, size: 0x8, addend: 0x0, symName: __RNvMNtCsPjO8QFnvM3_8fs_extra3dirNtB2_11CopyOptions11copy_inside, symObjAddr: 0x980, symBinAddr: 0x100035510, symSize: 0x40 }
  - { offset: 0x57D6F, size: 0x8, addend: 0x0, symName: __RNvMNtCsPjO8QFnvM3_8fs_extra3dirNtB2_11CopyOptions3new, symObjAddr: 0xA00, symBinAddr: 0x100035550, symSize: 0x30 }
  - { offset: 0x57DA3, size: 0x8, addend: 0x0, symName: __RNvMNtCsieiGu2EXtoJ_4core6resultINtB2_6ResultuNtNtB4_3fmt5ErrorE6expectCsPjO8QFnvM3_8fs_extra, symObjAddr: 0xD40, symBinAddr: 0x100035580, symSize: 0x80 }
  - { offset: 0x57F88, size: 0x8, addend: 0x0, symName: __RNvMNtCslJiobkLta79_5alloc6stringNtB2_6String4pushCsPjO8QFnvM3_8fs_extra, symObjAddr: 0xDC0, symBinAddr: 0x100035600, symSize: 0x130 }
  - { offset: 0x5826F, size: 0x8, addend: 0x0, symName: __RNvMNtCslJiobkLta79_5alloc6stringNtB2_6String6as_strCsPjO8QFnvM3_8fs_extra, symObjAddr: 0xEF0, symBinAddr: 0x100035730, symSize: 0x60 }
  - { offset: 0x5843D, size: 0x8, addend: 0x0, symName: __RNvMNtCslJiobkLta79_5alloc6stringNtB2_6String8push_strCsPjO8QFnvM3_8fs_extra, symObjAddr: 0xF50, symBinAddr: 0x100035790, symSize: 0x50 }
  - { offset: 0x58585, size: 0x8, addend: 0x0, symName: __RNvMs0_NtCsPjO8QFnvM3_8fs_extra3dirNtB5_10DirOptions3new, symObjAddr: 0xFA0, symBinAddr: 0x1000357E0, symSize: 0x20 }
  - { offset: 0x58632, size: 0x8, addend: 0x0, symName: __RNvMs2_NtCslJiobkLta79_5alloc7raw_vecNtB5_11RawVecInner16with_capacity_inCsPjO8QFnvM3_8fs_extra, symObjAddr: 0xFC0, symBinAddr: 0x100035800, symSize: 0x150 }
  - { offset: 0x587B0, size: 0x8, addend: 0x0, symName: __RNvMs5_NtNtCsHUR1vrdMJt_3std2io5errorNtB5_5Error4kindCsPjO8QFnvM3_8fs_extra, symObjAddr: 0x1110, symBinAddr: 0x100035950, symSize: 0x90 }
  - { offset: 0x588C7, size: 0x8, addend: 0x0, symName: __RNvMs9_NtCsieiGu2EXtoJ_4core3fmtNtB5_9Formatter9write_fmtCsPjO8QFnvM3_8fs_extra, symObjAddr: 0x11A0, symBinAddr: 0x1000359E0, symSize: 0x190 }
  - { offset: 0x5896D, size: 0x8, addend: 0x0, symName: __RNvMs_NtCsPjO8QFnvM3_8fs_extra5errorNtB4_5Error3new, symObjAddr: 0x1330, symBinAddr: 0x100035B70, symSize: 0xC0 }
  - { offset: 0x58E1F, size: 0x8, addend: 0x0, symName: __RINvMNtCsieiGu2EXtoJ_4core6resultINtB3_6ResultNtNtCsHUR1vrdMJt_3std4path7PathBufNtNtNtBM_2io5error5ErrorE14unwrap_or_elseNCNvMCsSzEZQkfVAX_5cmakeNtB20_6Config11maybe_clear0EB20_, symObjAddr: 0x0, symBinAddr: 0x100037C90, symSize: 0xA0 }
  - { offset: 0x59175, size: 0x8, addend: 0x0, symName: __RNvXsH_NtCsHUR1vrdMJt_3std4pathNtB5_7PathBufNtNtNtCsieiGu2EXtoJ_4core3ops5deref5Deref5derefCsSzEZQkfVAX_5cmake, symObjAddr: 0x46C0, symBinAddr: 0x10003C340, symSize: 0x30 }
  - { offset: 0x59221, size: 0x8, addend: 0x0, symName: __RNvXs1r_NtCsHUR1vrdMJt_3std4pathNtB6_7PathBufINtNtCsieiGu2EXtoJ_4core7convert5AsRefNtB6_4PathE6as_refCsSzEZQkfVAX_5cmake, symObjAddr: 0x4320, symBinAddr: 0x10003BFA0, symSize: 0x30 }
  - { offset: 0x592CD, size: 0x8, addend: 0x0, symName: __RNvXsA_NtCsHUR1vrdMJt_3std4pathNtB5_7PathBufINtNtCsieiGu2EXtoJ_4core7convert4FromNtNtNtB7_3ffi6os_str8OsStringE4fromCsSzEZQkfVAX_5cmake, symObjAddr: 0x4630, symBinAddr: 0x10003C2B0, symSize: 0x20 }
  - { offset: 0x59312, size: 0x8, addend: 0x0, symName: __RNvXsC_NtCsHUR1vrdMJt_3std4pathNtB5_7PathBufINtNtCsieiGu2EXtoJ_4core7convert4FromNtNtCslJiobkLta79_5alloc6string6StringE4fromCsSzEZQkfVAX_5cmake, symObjAddr: 0x4650, symBinAddr: 0x10003C2D0, symSize: 0x70 }
  - { offset: 0x59386, size: 0x8, addend: 0x0, symName: __RNvXsV_NtCsHUR1vrdMJt_3std4pathNtB5_4PathNtNtCslJiobkLta79_5alloc6borrow7ToOwned8to_ownedCsSzEZQkfVAX_5cmake, symObjAddr: 0x4710, symBinAddr: 0x10003C390, symSize: 0x30 }
  - { offset: 0x593BA, size: 0x8, addend: 0x0, symName: __RNvXsW_NtCsHUR1vrdMJt_3std4pathNtB5_7PathBufNtNtCsieiGu2EXtoJ_4core3cmp9PartialEq2eqCsSzEZQkfVAX_5cmake, symObjAddr: 0x4740, symBinAddr: 0x10003C3C0, symSize: 0x130 }
  - { offset: 0x59911, size: 0x8, addend: 0x0, symName: __RNvXsl_NtCsHUR1vrdMJt_3std4pathNtB5_10ComponentsNtNtCsieiGu2EXtoJ_4core3cmp9PartialEq2eqCsSzEZQkfVAX_5cmake, symObjAddr: 0x49B0, symBinAddr: 0x10003C630, symSize: 0x580 }
  - { offset: 0x59DD5, size: 0x8, addend: 0x0, symName: __RNvXss_NtCsHUR1vrdMJt_3std4pathNtB5_7PathBufNtNtCsieiGu2EXtoJ_4core5clone5Clone5cloneCsSzEZQkfVAX_5cmake, symObjAddr: 0x5080, symBinAddr: 0x10003CD00, symSize: 0x90 }
  - { offset: 0x59EB0, size: 0x8, addend: 0x0, symName: __RNvXNvMs0_NtNtCsHUR1vrdMJt_3std3ffi6os_strNtB8_8OsString4pushRNtNtBc_4path7PathBufNtB2_10SpecPushTo12spec_push_toCsSzEZQkfVAX_5cmake, symObjAddr: 0x4130, symBinAddr: 0x10003BDB0, symSize: 0x80 }
  - { offset: 0x5A253, size: 0x8, addend: 0x0, symName: __RINvNtNtNtNtCsHUR1vrdMJt_3std3sys3pal4unix2os10join_pathsINtNtNtCsieiGu2EXtoJ_4core5slice4iter4IterNtNtBa_4path7PathBufERB1z_ECsSzEZQkfVAX_5cmake, symObjAddr: 0xC70, symBinAddr: 0x100038900, symSize: 0x360 }
  - { offset: 0x5A4D6, size: 0x8, addend: 0x0, symName: __RNvXs0_NtNtNtNtCsHUR1vrdMJt_3std3sys3pal4unix2osNtB5_14JoinPathsErrorNtNtCsieiGu2EXtoJ_4core3fmt5Debug3fmtCsSzEZQkfVAX_5cmake, symObjAddr: 0x4270, symBinAddr: 0x10003BEF0, symSize: 0x40 }
  - { offset: 0x5A51A, size: 0x8, addend: 0x0, symName: __RNvNtNtNtCsHUR1vrdMJt_3std3sys3pal4unix17decode_error_kindCsSzEZQkfVAX_5cmake, symObjAddr: 0x3770, symBinAddr: 0x10003B3F0, symSize: 0x310 }
  - { offset: 0x5C47A, size: 0x8, addend: 0x0, symName: __RNvXs10_NtNtCsieiGu2EXtoJ_4core3cmp5implsmNtB8_10PartialOrd11partial_cmpCsSzEZQkfVAX_5cmake, symObjAddr: 0x42B0, symBinAddr: 0x10003BF30, symSize: 0x20 }
  - { offset: 0x5C53B, size: 0x8, addend: 0x0, symName: __RNvXss_NtNtCsieiGu2EXtoJ_4core3cmp5implslNtB7_9PartialEq2eqCsSzEZQkfVAX_5cmake, symObjAddr: 0x5110, symBinAddr: 0x10003CD90, symSize: 0x20 }
  - { offset: 0x5C57F, size: 0x8, addend: 0x0, symName: __RNvYNtNtCsHUR1vrdMJt_3std4path7PathBufNtNtCsieiGu2EXtoJ_4core3cmp9PartialEq2neCsSzEZQkfVAX_5cmake, symObjAddr: 0x5170, symBinAddr: 0x10003CDF0, symSize: 0x20 }
  - { offset: 0x5CDF8, size: 0x8, addend: 0x0, symName: __RNvNvMs9_NtCsieiGu2EXtoJ_4core3numj13unchecked_add18precondition_checkCsSzEZQkfVAX_5cmake, symObjAddr: 0x3A80, symBinAddr: 0x10003B700, symSize: 0xA0 }
  - { offset: 0x5CEB6, size: 0x8, addend: 0x0, symName: __RNvNvMs9_NtCsieiGu2EXtoJ_4core3numj13unchecked_sub18precondition_checkCsSzEZQkfVAX_5cmake, symObjAddr: 0x3B20, symBinAddr: 0x10003B7A0, symSize: 0xA0 }
  - { offset: 0x5E5FF, size: 0x8, addend: 0x0, symName: __RNvXs19_NtCsieiGu2EXtoJ_4core3fmtRNtNtNtNtNtCsHUR1vrdMJt_3std3sys3pal4unix2os14JoinPathsErrorNtB6_5Debug3fmtCsSzEZQkfVAX_5cmake, symObjAddr: 0x42F0, symBinAddr: 0x10003BF70, symSize: 0x20 }
  - { offset: 0x5E949, size: 0x8, addend: 0x0, symName: __RNCNvMsp_NtNtCsieiGu2EXtoJ_4core3str4iterINtB7_20MatchIndicesInternalcE4next0CsSzEZQkfVAX_5cmake, symObjAddr: 0x2A60, symBinAddr: 0x10003A6F0, symSize: 0xD0 }
  - { offset: 0x5EB60, size: 0x8, addend: 0x0, symName: __RNvXNtNtCsieiGu2EXtoJ_4core3str4iterNtB2_5CharsNtNtNtNtB6_4iter6traits8iterator8Iterator4nextCsSzEZQkfVAX_5cmake, symObjAddr: 0x3F20, symBinAddr: 0x10003BBA0, symSize: 0x60 }
  - { offset: 0x5EBFB, size: 0x8, addend: 0x0, symName: __RNvXNtNtCsieiGu2EXtoJ_4core3str4iterNtB2_5CharsNtNtNtNtB6_4iter6traits8iterator8Iterator9size_hintCsSzEZQkfVAX_5cmake, symObjAddr: 0x3F80, symBinAddr: 0x10003BC00, symSize: 0x90 }
  - { offset: 0x5ECCA, size: 0x8, addend: 0x0, symName: __RNvXs14_NtNtCsieiGu2EXtoJ_4core3str4iterINtB6_5SplitcENtNtNtNtBa_4iter6traits12double_ended19DoubleEndedIterator9next_backCsSzEZQkfVAX_5cmake, symObjAddr: 0x42D0, symBinAddr: 0x10003BF50, symSize: 0x20 }
  - { offset: 0x5ED07, size: 0x8, addend: 0x0, symName: __RNvXsH_NtNtCsieiGu2EXtoJ_4core3str4iterINtB5_14SplitInclusivecENtNtNtNtB9_4iter6traits8iterator8Iterator4nextCsSzEZQkfVAX_5cmake, symObjAddr: 0x46F0, symBinAddr: 0x10003C370, symSize: 0x20 }
  - { offset: 0x5ED44, size: 0x8, addend: 0x0, symName: __RNvXss_NtNtCsieiGu2EXtoJ_4core3str4iterNtB5_5LinesNtNtNtNtB9_4iter6traits8iterator8Iterator4nextCsSzEZQkfVAX_5cmake, symObjAddr: 0x5130, symBinAddr: 0x10003CDB0, symSize: 0x20 }
  - { offset: 0x5EF73, size: 0x8, addend: 0x0, symName: __RNvNvXs5_NtNtCsieiGu2EXtoJ_4core3str6traitsINtNtNtBb_3ops5range5RangejEINtNtNtBb_5slice5index10SliceIndexeE13get_unchecked18precondition_checkCsSzEZQkfVAX_5cmake, symObjAddr: 0x3E60, symBinAddr: 0x10003BAE0, symSize: 0xC0 }
  - { offset: 0x5EFF0, size: 0x8, addend: 0x0, symName: __RNvXs_NtNtCsieiGu2EXtoJ_4core3str6traitseNtNtB8_3cmp9PartialEq2eqCsSzEZQkfVAX_5cmake, symObjAddr: 0x48A0, symBinAddr: 0x10003C520, symSize: 0x90 }
  - { offset: 0x5F34B, size: 0x8, addend: 0x0, symName: __RINvXs2E_NtNtCsieiGu2EXtoJ_4core5slice4iterINtB7_4IterReENtNtNtNtBb_4iter6traits8iterator8Iterator3anyNCNvMCsSzEZQkfVAX_5cmakeNtB1H_6Config23visual_studio_generator0EB1H_, symObjAddr: 0x22E0, symBinAddr: 0x100039F70, symSize: 0xA0 }
  - { offset: 0x5F3B0, size: 0x8, addend: 0x0, symName: __RINvXs2E_NtNtCsieiGu2EXtoJ_4core5slice4iterINtB7_4IterTNtNtNtCsHUR1vrdMJt_3std3ffi6os_str8OsStringBR_EENtNtNtNtBb_4iter6traits8iterator8Iterator3anyNCNvMCsSzEZQkfVAX_5cmakeNtB2r_6Config16uses_android_ndk0EB2r_, symObjAddr: 0x2380, symBinAddr: 0x10003A010, symSize: 0x90 }
  - { offset: 0x5F415, size: 0x8, addend: 0x0, symName: __RINvXs2E_NtNtCsieiGu2EXtoJ_4core5slice4iterINtB7_4IterTNtNtNtCsHUR1vrdMJt_3std3ffi6os_str8OsStringBR_EENtNtNtNtBb_4iter6traits8iterator8Iterator3anyNCNvMCsSzEZQkfVAX_5cmakeNtB2r_6Config7defined0EB2r_, symObjAddr: 0x2410, symBinAddr: 0x10003A0A0, symSize: 0xA0 }
  - { offset: 0x5F47A, size: 0x8, addend: 0x0, symName: __RINvXs2E_NtNtCsieiGu2EXtoJ_4core5slice4iterINtB7_4IterTNtNtNtCsHUR1vrdMJt_3std3ffi6os_str8OsStringBR_EENtNtNtNtBb_4iter6traits8iterator8Iterator4findNCNvMCsSzEZQkfVAX_5cmakeNtB2s_6Config5builds3_0EB2s_, symObjAddr: 0x24B0, symBinAddr: 0x10003A140, symSize: 0xA0 }
  - { offset: 0x5F4DF, size: 0x8, addend: 0x0, symName: __RNvXs2E_NtNtCsieiGu2EXtoJ_4core5slice4iterINtB6_4IterNtNtCsHUR1vrdMJt_3std4path7PathBufENtNtNtNtBa_4iter6traits8iterator8Iterator4nextCsSzEZQkfVAX_5cmake, symObjAddr: 0x4350, symBinAddr: 0x10003BFD0, symSize: 0x90 }
  - { offset: 0x5FC43, size: 0x8, addend: 0x0, symName: __RNvNvXs0_NtNtCsieiGu2EXtoJ_4core5slice5indexjINtB7_10SliceIndexSpE13get_unchecked18precondition_checkCsSzEZQkfVAX_5cmake, symObjAddr: 0x3D20, symBinAddr: 0x10003B9A0, symSize: 0xA0 }
  - { offset: 0x5FCB7, size: 0x8, addend: 0x0, symName: __RNvNvXs1_NtNtCsieiGu2EXtoJ_4core5slice5indexNtNtNtBb_3ops11index_range10IndexRangeINtB7_10SliceIndexSpE17get_unchecked_mut18precondition_checkCsSzEZQkfVAX_5cmake, symObjAddr: 0x3DC0, symBinAddr: 0x10003BA40, symSize: 0xA0 }
  - { offset: 0x5FDC9, size: 0x8, addend: 0x0, symName: __RINvXs0_NtNtNtCsieiGu2EXtoJ_4core4iter8adapters3mapINtB6_3MapNtNtCsHUR1vrdMJt_3std3env10SplitPathsNCNvCsSzEZQkfVAX_5cmake8find_exe0ENtNtNtBa_6traits8iterator8Iterator8try_folduNCINvNvB26_4find5checkNtNtB11_4path7PathBufNCB1A_s_0E0INtNtNtBc_3ops12control_flow11ControlFlowB3a_EEB1C_, symObjAddr: 0x2290, symBinAddr: 0x100039F20, symSize: 0x30 }
  - { offset: 0x5FE47, size: 0x8, addend: 0x0, symName: __RINvXs0_NtNtNtCsieiGu2EXtoJ_4core4iter8adapters3mapINtB6_3MapNtNtNtBc_3str4iter5CharsNCNvMCsSzEZQkfVAX_5cmakeNtB1q_6Config5builds5_0ENtNtNtBa_6traits8iterator8Iterator4folduNCINvNvMsg_NtB8_7flattenINtB2W_13FlattenCompatppE9iter_fold7flattenNtNtBc_4char11ToUppercaseuNCINvNvXsi_B2W_B39_B27_4fold7flattenB3Q_uNCINvNvB27_8for_each4callcNCINvXsb_NtCslJiobkLta79_5alloc6stringNtB5u_6StringINtNtB2b_7collect6ExtendcE6extendINtB2W_7FlatMapBX_B3Q_B1l_EE0E0E0E0EB1q_, symObjAddr: 0x22C0, symBinAddr: 0x100039F50, symSize: 0x20 }
  - { offset: 0x5FEB8, size: 0x8, addend: 0x0, symName: __RNvXs0_NtNtNtCsieiGu2EXtoJ_4core4iter8adapters3mapINtB5_3MapINtNtNtBb_3str4iter14SplitInclusivecENtB11_8LinesMapENtNtNtB9_6traits8iterator8Iterator4nextCsSzEZQkfVAX_5cmake, symObjAddr: 0x41B0, symBinAddr: 0x10003BE30, symSize: 0x90 }
  - { offset: 0x5FF64, size: 0x8, addend: 0x0, symName: __RNvXs0_NtNtNtCsieiGu2EXtoJ_4core4iter8adapters3mapINtB5_3MapNtNtNtBb_3str4iter5CharsNCNvMCsSzEZQkfVAX_5cmakeNtB1p_6Config5builds5_0ENtNtNtB9_6traits8iterator8Iterator9size_hintB1p_, symObjAddr: 0x4240, symBinAddr: 0x10003BEC0, symSize: 0x30 }
  - { offset: 0x5FFE4, size: 0x8, addend: 0x0, symName: __RNCINvNtNtNtCsieiGu2EXtoJ_4core4iter8adapters3map12map_try_foldNtNtCsHUR1vrdMJt_3std4path7PathBufBZ_uINtNtNtBa_3ops12control_flow11ControlFlowBZ_ENCNvCsSzEZQkfVAX_5cmake8find_exe0NCINvNvNtNtNtB8_6traits8iterator8Iterator4find5checkBZ_NCB2m_s_0E0E0B2o_, symObjAddr: 0x2910, symBinAddr: 0x10003A5A0, symSize: 0xC0 }
  - { offset: 0x6007D, size: 0x8, addend: 0x0, symName: __RNCINvNtNtNtCsieiGu2EXtoJ_4core4iter8adapters3map8map_foldcNtNtBa_4char11ToUppercaseuNCNvMCsSzEZQkfVAX_5cmakeNtB1q_6Config5builds5_0NCINvNvMsg_NtB6_7flattenINtB2h_13FlattenCompatppE9iter_fold7flattenBV_uNCINvNvXsi_B2h_B2u_NtNtNtB8_6traits8iterator8Iterator4fold7flattenBV_uNCINvNvB3y_8for_each4callcNCINvXsb_NtCslJiobkLta79_5alloc6stringNtB4W_6StringINtNtB3C_7collect6ExtendcE6extendINtB2h_7FlatMapNtNtNtBa_3str4iter5CharsBV_B1l_EE0E0E0E0E0B1q_, symObjAddr: 0x29D0, symBinAddr: 0x10003A660, symSize: 0x90 }
  - { offset: 0x6088D, size: 0x8, addend: 0x0, symName: __RINvYINtNtNtCsieiGu2EXtoJ_4core5slice4iter4IterTNtNtNtCsHUR1vrdMJt_3std3ffi6os_str8OsStringBK_EENtNtNtNtBa_4iter6traits8iterator8Iterator5chainRINtNtCslJiobkLta79_5alloc3vec3VecBJ_EECsSzEZQkfVAX_5cmake, symObjAddr: 0x2620, symBinAddr: 0x10003A2B0, symSize: 0xA0 }
  - { offset: 0x60903, size: 0x8, addend: 0x0, symName: __RINvYINtNtNtNtCsieiGu2EXtoJ_4core4iter8adapters3map3MapNtNtCsHUR1vrdMJt_3std3env10SplitPathsNCNvCsSzEZQkfVAX_5cmake8find_exe0ENtNtNtBa_6traits8iterator8Iterator4findNCB1u_s_0EB1w_, symObjAddr: 0x26C0, symBinAddr: 0x10003A350, symSize: 0xC0 }
  - { offset: 0x60982, size: 0x8, addend: 0x0, symName: __RINvYNtNtNtCsieiGu2EXtoJ_4core3str4iter5CharsNtNtNtNtB9_4iter6traits8iterator8Iterator3mapNtNtB9_4char11ToUppercaseNCNvMCsSzEZQkfVAX_5cmakeNtB1U_6Config5builds5_0EB1U_, symObjAddr: 0x2780, symBinAddr: 0x10003A410, symSize: 0x20 }
  - { offset: 0x609DA, size: 0x8, addend: 0x0, symName: __RINvYNtNtNtCsieiGu2EXtoJ_4core3str4iter5CharsNtNtNtNtB9_4iter6traits8iterator8Iterator4folduNCINvNtNtBN_8adapters3map8map_foldcNtNtB9_4char11ToUppercaseuNCNvMCsSzEZQkfVAX_5cmakeNtB2w_6Config5builds5_0NCINvNvMsg_NtB1z_7flattenINtB3n_13FlattenCompatppE9iter_fold7flattenB21_uNCINvNvXsi_B3n_B3B_BH_4fold7flattenB21_uNCINvNvBH_8for_each4callcNCINvXsb_NtCslJiobkLta79_5alloc6stringNtB5z_6StringINtNtBL_7collect6ExtendcE6extendINtB3n_7FlatMapB3_B21_B2r_EE0E0E0E0E0EB2w_, symObjAddr: 0x27A0, symBinAddr: 0x10003A430, symSize: 0x90 }
  - { offset: 0x60A69, size: 0x8, addend: 0x0, symName: __RINvYNtNtNtCsieiGu2EXtoJ_4core3str4iter5CharsNtNtNtNtB9_4iter6traits8iterator8Iterator8flat_mapNtNtB9_4char11ToUppercaseNCNvMCsSzEZQkfVAX_5cmakeNtB1Z_6Config5builds5_0EB1Z_, symObjAddr: 0x2830, symBinAddr: 0x10003A4C0, symSize: 0xC0 }
  - { offset: 0x60B67, size: 0x8, addend: 0x0, symName: __RNvYINtNtNtCsieiGu2EXtoJ_4core5slice4iter4IterNtNtCsHUR1vrdMJt_3std4path7PathBufENtNtNtNtB9_4iter6traits8iterator8Iterator9enumerateCsSzEZQkfVAX_5cmake, symObjAddr: 0x5150, symBinAddr: 0x10003CDD0, symSize: 0x20 }
  - { offset: 0x60BDE, size: 0x8, addend: 0x0, symName: __RNvXNtNtNtCsieiGu2EXtoJ_4core4iter6traits7collectNtNtNtB8_3str4iter5LinesNtB2_12IntoIterator9into_iterCsSzEZQkfVAX_5cmake, symObjAddr: 0x4100, symBinAddr: 0x10003BD80, symSize: 0x30 }
  - { offset: 0x60CF8, size: 0x8, addend: 0x0, symName: __RNCINvMNtNtCsieiGu2EXtoJ_4core3ops9try_traitINtB5_17NeverShortCircuituE10wrap_mut_2ucQNCINvNvNtNtNtNtB9_4iter6traits8iterator8Iterator8for_each4callcNCINvXsb_NtCslJiobkLta79_5alloc6stringNtB2w_6StringINtNtB1x_7collect6ExtendcE6extendINtNtNtB1z_8adapters7flatten7FlatMapNtNtNtB9_3str4iter5CharsNtNtB9_4char11ToUppercaseNCNvMCsSzEZQkfVAX_5cmakeNtB5b_6Config5builds5_0EE0E0E0B5b_, symObjAddr: 0x28F0, symBinAddr: 0x10003A580, symSize: 0x20 }
  - { offset: 0x60FAE, size: 0x8, addend: 0x0, symName: __RINvXs2_NtNtCsieiGu2EXtoJ_4core5array4iterINtB6_8IntoItercKj3_ENtNtNtNtBa_4iter6traits8iterator8Iterator4folduQNCINvNvBZ_8for_each4callcNCINvXsb_NtCslJiobkLta79_5alloc6stringNtB2j_6StringINtNtB13_7collect6ExtendcE6extendINtNtNtB15_8adapters7flatten7FlatMapNtNtNtBa_3str4iter5CharsNtNtBa_4char11ToUppercaseNCNvMCsSzEZQkfVAX_5cmakeNtB4Y_6Config5builds5_0EE0E0EB4Y_, symObjAddr: 0x2550, symBinAddr: 0x10003A1E0, symSize: 0x90 }
  - { offset: 0x610C8, size: 0x8, addend: 0x0, symName: __RNvXs4_NtNtCsieiGu2EXtoJ_4core5array4iterINtB5_8IntoItercKj3_ENtNtNtB9_3ops4drop4Drop4dropCsSzEZQkfVAX_5cmake, symObjAddr: 0x43E0, symBinAddr: 0x10003C060, symSize: 0x10 }
  - { offset: 0x611C0, size: 0x8, addend: 0x0, symName: __RNvNvNtCsieiGu2EXtoJ_4core9ub_checks23maybe_is_nonoverlapping7runtimeCsSzEZQkfVAX_5cmake, symObjAddr: 0x3C60, symBinAddr: 0x10003B8E0, symSize: 0xC0 }
  - { offset: 0x61DF7, size: 0x8, addend: 0x0, symName: __RINvXsh_NtCslJiobkLta79_5alloc3vecINtB6_3VecNtNtCsHUR1vrdMJt_3std4path7PathBufEINtNtNtNtCsieiGu2EXtoJ_4core4iter6traits7collect6ExtendBG_E6extendNtNtBK_3env10SplitPathsECsSzEZQkfVAX_5cmake, symObjAddr: 0x25E0, symBinAddr: 0x10003A270, symSize: 0x40 }
  - { offset: 0x61E57, size: 0x8, addend: 0x0, symName: __RNvNvMs_NtCslJiobkLta79_5alloc3vecINtB6_3VecppE7set_len18precondition_checkCsSzEZQkfVAX_5cmake, symObjAddr: 0x3BC0, symBinAddr: 0x10003B840, symSize: 0xA0 }
  - { offset: 0x6203D, size: 0x8, addend: 0x0, symName: __RNvXNtNtCslJiobkLta79_5alloc3vec10partial_eqINtB4_3VechENtNtCsieiGu2EXtoJ_4core3cmp9PartialEq2eqCsSzEZQkfVAX_5cmake, symObjAddr: 0x4010, symBinAddr: 0x10003BC90, symSize: 0xD0 }
  - { offset: 0x62331, size: 0x8, addend: 0x0, symName: __RNvXNtNtCslJiobkLta79_5alloc3vec11spec_extendINtB4_3VecNtNtCsHUR1vrdMJt_3std4path7PathBufEINtB2_10SpecExtendBR_NtNtBV_3env10SplitPathsE11spec_extendCsSzEZQkfVAX_5cmake, symObjAddr: 0x40E0, symBinAddr: 0x10003BD60, symSize: 0x20 }
  - { offset: 0x6238A, size: 0x8, addend: 0x0, symName: __RNvXs9_NtCslJiobkLta79_5alloc3vecINtB5_3VecINtNtB7_4sync3ArcNtNtCsHUR1vrdMJt_3std4path4PathEENtNtCsieiGu2EXtoJ_4core5clone5Clone5cloneCsSzEZQkfVAX_5cmake, symObjAddr: 0x43F0, symBinAddr: 0x10003C070, symSize: 0x90 }
  - { offset: 0x6255B, size: 0x8, addend: 0x0, symName: __RNvXs9_NtCslJiobkLta79_5alloc3vecINtB5_3VecINtNtB7_4sync3ArcNtNtNtCsHUR1vrdMJt_3std3ffi6os_str5OsStrEENtNtCsieiGu2EXtoJ_4core5clone5Clone5cloneCsSzEZQkfVAX_5cmake, symObjAddr: 0x4480, symBinAddr: 0x10003C100, symSize: 0x90 }
  - { offset: 0x6272C, size: 0x8, addend: 0x0, symName: __RNvXs9_NtCslJiobkLta79_5alloc3vecINtB5_3VecTINtNtB7_4sync3ArcNtNtNtCsHUR1vrdMJt_3std3ffi6os_str5OsStrEBG_EENtNtCsieiGu2EXtoJ_4core5clone5Clone5cloneCsSzEZQkfVAX_5cmake, symObjAddr: 0x4510, symBinAddr: 0x10003C190, symSize: 0x90 }
  - { offset: 0x628FD, size: 0x8, addend: 0x0, symName: __RNvXs9_NtCslJiobkLta79_5alloc3vecINtB5_3VecTINtNtB7_4sync3ArceEINtNtCsieiGu2EXtoJ_4core6option6OptionBG_EEENtNtB14_5clone5Clone5cloneCsSzEZQkfVAX_5cmake, symObjAddr: 0x45A0, symBinAddr: 0x10003C220, symSize: 0x90 }
  - { offset: 0x62AD4, size: 0x8, addend: 0x0, symName: __RNvXsf_NtCslJiobkLta79_5alloc3vecRINtB5_3VecNtNtCsHUR1vrdMJt_3std4path7PathBufENtNtNtNtCsieiGu2EXtoJ_4core4iter6traits7collect12IntoIterator9into_iterCsSzEZQkfVAX_5cmake, symObjAddr: 0x4930, symBinAddr: 0x10003C5B0, symSize: 0x80 }
  - { offset: 0x62D07, size: 0x8, addend: 0x0, symName: __RNvXsn_NtCslJiobkLta79_5alloc3vecINtB5_3VecNtNtCsHUR1vrdMJt_3std4path7PathBufENtNtNtCsieiGu2EXtoJ_4core3ops4drop4Drop4dropCsSzEZQkfVAX_5cmake, symObjAddr: 0x4F30, symBinAddr: 0x10003CBB0, symSize: 0x30 }
  - { offset: 0x62DCB, size: 0x8, addend: 0x0, symName: __RNvXs1_NtCslJiobkLta79_5alloc5allocNtB5_6GlobalNtNtCsieiGu2EXtoJ_4core5clone5Clone5cloneCsSzEZQkfVAX_5cmake, symObjAddr: 0x4310, symBinAddr: 0x10003BF90, symSize: 0x10 }
  - { offset: 0x639C2, size: 0x8, addend: 0x0, symName: __RNvXsq_NtCslJiobkLta79_5alloc4syncINtB5_3ArcNtCseYC8vFNOjrM_2cc10BuildCacheENtNtCsieiGu2EXtoJ_4core5clone5Clone5cloneCsSzEZQkfVAX_5cmake, symObjAddr: 0x4F60, symBinAddr: 0x10003CBE0, symSize: 0x80 }
  - { offset: 0x63AB9, size: 0x8, addend: 0x0, symName: __RNvXsq_NtCslJiobkLta79_5alloc4syncINtB5_3ArcNtNtCsHUR1vrdMJt_3std4path4PathENtNtCsieiGu2EXtoJ_4core5clone5Clone5cloneCsSzEZQkfVAX_5cmake, symObjAddr: 0x4FE0, symBinAddr: 0x10003CC60, symSize: 0xA0 }
  - { offset: 0x63C31, size: 0x8, addend: 0x0, symName: __RNvXs_NtCslJiobkLta79_5alloc6borrowNtNtCsHUR1vrdMJt_3std4path7PathBufNtB4_7ToOwned8to_ownedCsSzEZQkfVAX_5cmake, symObjAddr: 0x4870, symBinAddr: 0x10003C4F0, symSize: 0x30 }
  - { offset: 0x63C7F, size: 0x8, addend: 0x0, symName: __RINvMs3_NtCslJiobkLta79_5alloc3stre7replacecECsSzEZQkfVAX_5cmake, symObjAddr: 0x120, symBinAddr: 0x100037DB0, symSize: 0x900 }
  - { offset: 0x647C1, size: 0x8, addend: 0x0, symName: __RINvXNvMNtCslJiobkLta79_5alloc5sliceSp9to_vec_inINtNtB8_4sync3ArcNtNtCsHUR1vrdMJt_3std4path4PathENtB3_10ConvertVec6to_vecNtNtB8_5alloc6GlobalECsSzEZQkfVAX_5cmake, symObjAddr: 0xFD0, symBinAddr: 0x100038C60, symSize: 0x470 }
  - { offset: 0x64CE2, size: 0x8, addend: 0x0, symName: __RINvXNvMNtCslJiobkLta79_5alloc5sliceSp9to_vec_inINtNtB8_4sync3ArcNtNtNtCsHUR1vrdMJt_3std3ffi6os_str5OsStrENtB3_10ConvertVec6to_vecNtNtB8_5alloc6GlobalECsSzEZQkfVAX_5cmake, symObjAddr: 0x1440, symBinAddr: 0x1000390D0, symSize: 0x470 }
  - { offset: 0x65203, size: 0x8, addend: 0x0, symName: __RINvXNvMNtCslJiobkLta79_5alloc5sliceSp9to_vec_inTINtNtB8_4sync3ArcNtNtNtCsHUR1vrdMJt_3std3ffi6os_str5OsStrEBL_ENtB3_10ConvertVec6to_vecNtNtB8_5alloc6GlobalECsSzEZQkfVAX_5cmake, symObjAddr: 0x18B0, symBinAddr: 0x100039540, symSize: 0x4F0 }
  - { offset: 0x65757, size: 0x8, addend: 0x0, symName: __RINvXNvMNtCslJiobkLta79_5alloc5sliceSp9to_vec_inTINtNtB8_4sync3ArceEINtNtCsieiGu2EXtoJ_4core6option6OptionBL_EENtB3_10ConvertVec6to_vecNtNtB8_5alloc6GlobalECsSzEZQkfVAX_5cmake, symObjAddr: 0x1DA0, symBinAddr: 0x100039A30, symSize: 0x4F0 }
  - { offset: 0x66517, size: 0x8, addend: 0x0, symName: __RINvMNtCsieiGu2EXtoJ_4core6resultINtB3_6ResultNtNtCsHUR1vrdMJt_3std4path7PathBufNtNtNtBM_2io5error5ErrorE14unwrap_or_elseNCNvMCsSzEZQkfVAX_5cmakeNtB20_6Config11maybe_clear0EB20_, symObjAddr: 0x0, symBinAddr: 0x100037C90, symSize: 0xA0 }
  - { offset: 0x66634, size: 0x8, addend: 0x0, symName: __RINvMNtNtCsieiGu2EXtoJ_4core3fmt2rtNtB3_8Argument9new_debugINtNtB7_6option6OptionNtNtNtCsHUR1vrdMJt_3std3ffi6os_str8OsStringEECsSzEZQkfVAX_5cmake, symObjAddr: 0xA0, symBinAddr: 0x100037D30, symSize: 0x30 }
  - { offset: 0x6666C, size: 0x8, addend: 0x0, symName: __RINvMNtNtCsieiGu2EXtoJ_4core3fmt2rtNtB3_8Argument9new_debugNtNvMCsSzEZQkfVAX_5cmakeNtB10_6Config11get_profile8OptLevelEB10_, symObjAddr: 0xD0, symBinAddr: 0x100037D60, symSize: 0x30 }
  - { offset: 0x666C2, size: 0x8, addend: 0x0, symName: __RINvMs16_NtCsHUR1vrdMJt_3std4pathNtB7_4Path3newNtNtNtB9_3ffi6os_str8OsStringECsSzEZQkfVAX_5cmake, symObjAddr: 0x100, symBinAddr: 0x100037D90, symSize: 0x20 }
  - { offset: 0x66C7B, size: 0x8, addend: 0x0, symName: __RINvMsi_NtCslJiobkLta79_5alloc3vecINtB6_3VecNtNtCsHUR1vrdMJt_3std4path7PathBufE16extend_desugaredNtNtBK_3env10SplitPathsECsSzEZQkfVAX_5cmake, symObjAddr: 0xA20, symBinAddr: 0x1000386B0, symSize: 0x250 }
  - { offset: 0x68343, size: 0x8, addend: 0x0, symName: __RNvMNtCsieiGu2EXtoJ_4core6resultINtB2_6ResultNtNtCsHUR1vrdMJt_3std2fs8MetadataNtNtNtBL_2io5error5ErrorE5is_okCsSzEZQkfVAX_5cmake, symObjAddr: 0x2B30, symBinAddr: 0x10003A7C0, symSize: 0x20 }
  - { offset: 0x68378, size: 0x8, addend: 0x0, symName: __RNvMNtCsieiGu2EXtoJ_4core6resultINtB2_6ResultNtNtCsHUR1vrdMJt_3std4path7PathBufNtNtNtBL_2io5error5ErrorE2okCsSzEZQkfVAX_5cmake, symObjAddr: 0x2B50, symBinAddr: 0x10003A7E0, symSize: 0xC0 }
  - { offset: 0x683CC, size: 0x8, addend: 0x0, symName: __RNvMNtCsieiGu2EXtoJ_4core6resultINtB2_6ResultNtNtCsHUR1vrdMJt_3std7process6OutputNtNtNtBL_2io5error5ErrorE2okCsSzEZQkfVAX_5cmake, symObjAddr: 0x2C10, symBinAddr: 0x10003A8A0, symSize: 0xB0 }
  - { offset: 0x68420, size: 0x8, addend: 0x0, symName: __RNvMNtCsieiGu2EXtoJ_4core6resultINtB2_6ResultNtNtCsHUR1vrdMJt_3std7process6OutputNtNtNtBL_2io5error5ErrorE3errCsSzEZQkfVAX_5cmake, symObjAddr: 0x2CC0, symBinAddr: 0x10003A950, symSize: 0x80 }
  - { offset: 0x68474, size: 0x8, addend: 0x0, symName: __RNvMNtCslJiobkLta79_5alloc3vecINtB2_3VecNtNtCsHUR1vrdMJt_3std4path7PathBufE3newCsSzEZQkfVAX_5cmake, symObjAddr: 0x2D40, symBinAddr: 0x10003A9D0, symSize: 0x30 }
  - { offset: 0x6849E, size: 0x8, addend: 0x0, symName: __RNvMs10_NtNtCsieiGu2EXtoJ_4core9core_arch3x86NtB6_7___m128i8as_i8x16CsSzEZQkfVAX_5cmake, symObjAddr: 0x2D70, symBinAddr: 0x10003AA00, symSize: 0x20 }
  - { offset: 0x684C1, size: 0x8, addend: 0x0, symName: __RNvMs16_NtCsHUR1vrdMJt_3std4pathNtB6_4Path12canonicalizeCsSzEZQkfVAX_5cmake, symObjAddr: 0x2D90, symBinAddr: 0x10003AA20, symSize: 0x30 }
  - { offset: 0x68509, size: 0x8, addend: 0x0, symName: __RNvMs16_NtCsHUR1vrdMJt_3std4pathNtB6_4Path6existsCsSzEZQkfVAX_5cmake, symObjAddr: 0x2DC0, symBinAddr: 0x10003AA50, symSize: 0x60 }
  - { offset: 0x6854A, size: 0x8, addend: 0x0, symName: __RNvMs16_NtCsHUR1vrdMJt_3std4pathNtB6_4Path7displayCsSzEZQkfVAX_5cmake, symObjAddr: 0x2E20, symBinAddr: 0x10003AAB0, symSize: 0x20 }
  - { offset: 0x685F1, size: 0x8, addend: 0x0, symName: __RNvMs_NtCslJiobkLta79_5alloc3vecINtB4_3VecINtNtB6_4sync3ArcNtNtCsHUR1vrdMJt_3std4path4PathEE7set_lenCsSzEZQkfVAX_5cmake, symObjAddr: 0x2E40, symBinAddr: 0x10003AAD0, symSize: 0x70 }
  - { offset: 0x6874E, size: 0x8, addend: 0x0, symName: __RNvMs_NtCslJiobkLta79_5alloc3vecINtB4_3VecINtNtB6_4sync3ArcNtNtNtCsHUR1vrdMJt_3std3ffi6os_str5OsStrEE7set_lenCsSzEZQkfVAX_5cmake, symObjAddr: 0x2EB0, symBinAddr: 0x10003AB40, symSize: 0x70 }
  - { offset: 0x68834, size: 0x8, addend: 0x0, symName: __RNvMs_NtCslJiobkLta79_5alloc3vecINtB4_3VecNtNtB6_6string6StringE4pushCsSzEZQkfVAX_5cmake, symObjAddr: 0x2F20, symBinAddr: 0x10003ABB0, symSize: 0x20 }
  - { offset: 0x6897F, size: 0x8, addend: 0x0, symName: __RNvMs_NtCslJiobkLta79_5alloc3vecINtB4_3VecNtNtB6_6string6StringE8push_mutCsSzEZQkfVAX_5cmake, symObjAddr: 0x2F40, symBinAddr: 0x10003ABD0, symSize: 0x110 }
  - { offset: 0x68B34, size: 0x8, addend: 0x0, symName: __RNvMs_NtCslJiobkLta79_5alloc3vecINtB4_3VecNtNtCsHUR1vrdMJt_3std4path7PathBufE4pushCsSzEZQkfVAX_5cmake, symObjAddr: 0x3050, symBinAddr: 0x10003ACE0, symSize: 0x20 }
  - { offset: 0x68CA9, size: 0x8, addend: 0x0, symName: __RNvMs_NtCslJiobkLta79_5alloc3vecINtB4_3VecNtNtCsHUR1vrdMJt_3std4path7PathBufE7reserveCsSzEZQkfVAX_5cmake, symObjAddr: 0x3070, symBinAddr: 0x10003AD00, symSize: 0xB0 }
  - { offset: 0x68F02, size: 0x8, addend: 0x0, symName: __RNvMs_NtCslJiobkLta79_5alloc3vecINtB4_3VecNtNtCsHUR1vrdMJt_3std4path7PathBufE8push_mutCsSzEZQkfVAX_5cmake, symObjAddr: 0x3120, symBinAddr: 0x10003ADB0, symSize: 0x110 }
  - { offset: 0x6913B, size: 0x8, addend: 0x0, symName: __RNvMs_NtCslJiobkLta79_5alloc3vecINtB4_3VecTINtNtB6_4sync3ArcNtNtNtCsHUR1vrdMJt_3std3ffi6os_str5OsStrEBF_EE7set_lenCsSzEZQkfVAX_5cmake, symObjAddr: 0x3230, symBinAddr: 0x10003AEC0, symSize: 0x70 }
  - { offset: 0x69298, size: 0x8, addend: 0x0, symName: __RNvMs_NtCslJiobkLta79_5alloc3vecINtB4_3VecTINtNtB6_4sync3ArceEINtNtCsieiGu2EXtoJ_4core6option6OptionBF_EEE7set_lenCsSzEZQkfVAX_5cmake, symObjAddr: 0x32A0, symBinAddr: 0x10003AF30, symSize: 0x70 }
  - { offset: 0x6937E, size: 0x8, addend: 0x0, symName: __RNvMsf_NtNtCsieiGu2EXtoJ_4core3str4iterINtB5_13SplitInternalcE14next_inclusiveCsSzEZQkfVAX_5cmake, symObjAddr: 0x3310, symBinAddr: 0x10003AFA0, symSize: 0x160 }
  - { offset: 0x694B1, size: 0x8, addend: 0x0, symName: __RNvMsf_NtNtCsieiGu2EXtoJ_4core3str4iterINtB5_13SplitInternalcE9next_backCsSzEZQkfVAX_5cmake, symObjAddr: 0x3470, symBinAddr: 0x10003B100, symSize: 0x2F0 }
  - { offset: 0x6A60D, size: 0x8, addend: 0x0, symName: __RINvMCsSzEZQkfVAX_5cmakeNtB3_6Config6defineReBF_EB3_, symObjAddr: 0x0, symBinAddr: 0x10003CE10, symSize: 0x150 }
  - { offset: 0x6B3AE, size: 0x8, addend: 0x0, symName: __RNvYNtCsSzEZQkfVAX_5cmake7VersionNtNtCsieiGu2EXtoJ_4core3cmp10PartialOrd2geB4_, symObjAddr: 0x9190, symBinAddr: 0x1000459D0, symSize: 0x50 }
  - { offset: 0x6CDC9, size: 0x8, addend: 0x0, symName: __RNvXs2_NvMCsSzEZQkfVAX_5cmakeNtB8_6Config11get_profileNtB5_8OptLevelNtNtCsieiGu2EXtoJ_4core3fmt5Debug3fmtB8_, symObjAddr: 0x9090, symBinAddr: 0x1000458D0, symSize: 0x90 }
  - { offset: 0x6CE0A, size: 0x8, addend: 0x0, symName: __RNCNvMCsSzEZQkfVAX_5cmakeNtB4_6Config11maybe_clear0B4_, symObjAddr: 0x420, symBinAddr: 0x10003D230, symSize: 0x70 }
  - { offset: 0x6CE45, size: 0x8, addend: 0x0, symName: __RNCNvMCsSzEZQkfVAX_5cmakeNtB4_6Config11maybe_clears_0B4_, symObjAddr: 0x490, symBinAddr: 0x10003D2A0, symSize: 0x70 }
  - { offset: 0x6CE8B, size: 0x8, addend: 0x0, symName: __RNCNvMCsSzEZQkfVAX_5cmakeNtB4_6Config16cmake_executable0B4_, symObjAddr: 0x500, symBinAddr: 0x10003D310, symSize: 0x30 }
  - { offset: 0x6CEBB, size: 0x8, addend: 0x0, symName: __RNCNvMCsSzEZQkfVAX_5cmakeNtB4_6Config16cmake_executables_0B4_, symObjAddr: 0x530, symBinAddr: 0x10003D340, symSize: 0x40 }
  - { offset: 0x6CEF2, size: 0x8, addend: 0x0, symName: __RNCNvMCsSzEZQkfVAX_5cmakeNtB4_6Config16getenv_target_os0B4_, symObjAddr: 0x570, symBinAddr: 0x10003D380, symSize: 0x40 }
  - { offset: 0x6CF1C, size: 0x8, addend: 0x0, symName: __RNCNvMCsSzEZQkfVAX_5cmakeNtB4_6Config16getenv_target_oss0_0B4_, symObjAddr: 0x5B0, symBinAddr: 0x10003D3C0, symSize: 0x160 }
  - { offset: 0x6CFC2, size: 0x8, addend: 0x0, symName: __RNCNvMCsSzEZQkfVAX_5cmakeNtB4_6Config16getenv_target_oss1_0B4_, symObjAddr: 0x710, symBinAddr: 0x10003D520, symSize: 0x160 }
  - { offset: 0x6D068, size: 0x8, addend: 0x0, symName: __RNCNvMCsSzEZQkfVAX_5cmakeNtB4_6Config16getenv_target_oss2_0B4_, symObjAddr: 0x870, symBinAddr: 0x10003D680, symSize: 0x40 }
  - { offset: 0x6D0A9, size: 0x8, addend: 0x0, symName: __RNCNvMCsSzEZQkfVAX_5cmakeNtB4_6Config16getenv_target_oss_0B4_, symObjAddr: 0x8B0, symBinAddr: 0x10003D6C0, symSize: 0x40 }
  - { offset: 0x6D0E7, size: 0x8, addend: 0x0, symName: __RNCNvMCsSzEZQkfVAX_5cmakeNtB4_6Config16uses_android_ndk0B4_, symObjAddr: 0x8F0, symBinAddr: 0x10003D700, symSize: 0xA0 }
  - { offset: 0x6D14F, size: 0x8, addend: 0x0, symName: __RNCNvMCsSzEZQkfVAX_5cmakeNtB4_6Config19cmake_build_command0B4_, symObjAddr: 0x990, symBinAddr: 0x10003D7A0, symSize: 0x40 }
  - { offset: 0x6D186, size: 0x8, addend: 0x0, symName: __RNCNvMCsSzEZQkfVAX_5cmakeNtB4_6Config23cmake_configure_command0B4_, symObjAddr: 0x9D0, symBinAddr: 0x10003D7E0, symSize: 0x40 }
  - { offset: 0x6D1BD, size: 0x8, addend: 0x0, symName: __RNCNvMCsSzEZQkfVAX_5cmakeNtB4_6Config23visual_studio_generator0B4_, symObjAddr: 0xA10, symBinAddr: 0x10003D820, symSize: 0x40 }
  - { offset: 0x6D203, size: 0x8, addend: 0x0, symName: __RNCNvMCsSzEZQkfVAX_5cmakeNtB4_6Config5build0B4_, symObjAddr: 0xA50, symBinAddr: 0x10003D860, symSize: 0x40 }
  - { offset: 0x6D22D, size: 0x8, addend: 0x0, symName: __RNCNvMCsSzEZQkfVAX_5cmakeNtB4_6Config5builds0_0B4_, symObjAddr: 0xA90, symBinAddr: 0x10003D8A0, symSize: 0x50 }
  - { offset: 0x6D257, size: 0x8, addend: 0x0, symName: __RNCNvMCsSzEZQkfVAX_5cmakeNtB4_6Config5builds1_0B4_, symObjAddr: 0xAE0, symBinAddr: 0x10003D8F0, symSize: 0x80 }
  - { offset: 0x6D290, size: 0x8, addend: 0x0, symName: __RNCNvMCsSzEZQkfVAX_5cmakeNtB4_6Config5builds2_0B4_, symObjAddr: 0xB60, symBinAddr: 0x10003D970, symSize: 0x80 }
  - { offset: 0x6D2C9, size: 0x8, addend: 0x0, symName: __RNCNvMCsSzEZQkfVAX_5cmakeNtB4_6Config5builds3_0B4_, symObjAddr: 0xBE0, symBinAddr: 0x10003D9F0, symSize: 0x40 }
  - { offset: 0x6D314, size: 0x8, addend: 0x0, symName: __RNCNvMCsSzEZQkfVAX_5cmakeNtB4_6Config5builds4_0B4_, symObjAddr: 0xC20, symBinAddr: 0x10003DA30, symSize: 0x70 }
  - { offset: 0x6D36B, size: 0x8, addend: 0x0, symName: __RNCNvMCsSzEZQkfVAX_5cmakeNtB4_6Config5builds5_0B4_, symObjAddr: 0xC90, symBinAddr: 0x10003DAA0, symSize: 0x40 }
  - { offset: 0x6D3A4, size: 0x8, addend: 0x0, symName: __RNCNvMCsSzEZQkfVAX_5cmakeNtB4_6Config5builds6_0B4_, symObjAddr: 0xCD0, symBinAddr: 0x10003DAE0, symSize: 0x100 }
  - { offset: 0x6D3F3, size: 0x8, addend: 0x0, symName: __RNCNvMCsSzEZQkfVAX_5cmakeNtB4_6Config5builds7_0B4_, symObjAddr: 0xDD0, symBinAddr: 0x10003DBE0, symSize: 0xA60 }
  - { offset: 0x6D67D, size: 0x8, addend: 0x0, symName: __RNCNvMCsSzEZQkfVAX_5cmakeNtB4_6Config5builds8_0B4_, symObjAddr: 0x1830, symBinAddr: 0x10003E640, symSize: 0x40 }
  - { offset: 0x6D6A7, size: 0x8, addend: 0x0, symName: __RNCNvMCsSzEZQkfVAX_5cmakeNtB4_6Config5builds_0B4_, symObjAddr: 0x1870, symBinAddr: 0x10003E680, symSize: 0x40 }
  - { offset: 0x6D771, size: 0x8, addend: 0x0, symName: __RNCNvMCsSzEZQkfVAX_5cmakeNtB4_6Config7defined0B4_, symObjAddr: 0x18B0, symBinAddr: 0x10003E6C0, symSize: 0x30 }
  - { offset: 0x6DC1F, size: 0x8, addend: 0x0, symName: __RNCNvCsSzEZQkfVAX_5cmake8find_exe0B3_, symObjAddr: 0x2C0, symBinAddr: 0x10003D0D0, symSize: 0xA0 }
  - { offset: 0x6DC60, size: 0x8, addend: 0x0, symName: __RNCNvCsSzEZQkfVAX_5cmake8find_exes0_0B3_, symObjAddr: 0x360, symBinAddr: 0x10003D170, symSize: 0x30 }
  - { offset: 0x6DC90, size: 0x8, addend: 0x0, symName: __RNCNvCsSzEZQkfVAX_5cmake8find_exes_0B3_, symObjAddr: 0x390, symBinAddr: 0x10003D1A0, symSize: 0x90 }
  - { offset: 0x6DCD1, size: 0x8, addend: 0x0, symName: __RNvCsSzEZQkfVAX_5cmake13fix_build_dir, symObjAddr: 0x18E0, symBinAddr: 0x10003E6F0, symSize: 0x40 }
  - { offset: 0x6DCFF, size: 0x8, addend: 0x0, symName: __RNvCsSzEZQkfVAX_5cmake13getenv_unwrap, symObjAddr: 0x1920, symBinAddr: 0x10003E730, symSize: 0x1B0 }
  - { offset: 0x6DD6B, size: 0x8, addend: 0x0, symName: __RNvCsSzEZQkfVAX_5cmake21find_cmake_executable, symObjAddr: 0x1AD0, symBinAddr: 0x10003E8E0, symSize: 0x30 }
  - { offset: 0x6DD99, size: 0x8, addend: 0x0, symName: __RNvCsSzEZQkfVAX_5cmake25uses_named_pipe_jobserver, symObjAddr: 0x1B00, symBinAddr: 0x10003E910, symSize: 0xA0 }
  - { offset: 0x6DDC7, size: 0x8, addend: 0x0, symName: __RNvCsSzEZQkfVAX_5cmake3run, symObjAddr: 0x1BA0, symBinAddr: 0x10003E9B0, symSize: 0x600 }
  - { offset: 0x6DFB8, size: 0x8, addend: 0x0, symName: __RNvCsSzEZQkfVAX_5cmake4fail, symObjAddr: 0x21A0, symBinAddr: 0x10003EFB0, symSize: 0x60 }
  - { offset: 0x6E001, size: 0x8, addend: 0x0, symName: __RNvCsSzEZQkfVAX_5cmake8find_exe, symObjAddr: 0x2200, symBinAddr: 0x10003F010, symSize: 0x110 }
  - { offset: 0x6E09D, size: 0x8, addend: 0x0, symName: __RNvXs0_CsSzEZQkfVAX_5cmakeNtB5_7VersionNtNtCsieiGu2EXtoJ_4core7default7Default7default, symObjAddr: 0x9070, symBinAddr: 0x1000458B0, symSize: 0x20 }
  - { offset: 0x6E0C1, size: 0x8, addend: 0x0, symName: __RNvXs5_CsSzEZQkfVAX_5cmakeNtB5_7VersionNtNtCsieiGu2EXtoJ_4core3cmp10PartialOrd11partial_cmpB5_, symObjAddr: 0x9120, symBinAddr: 0x100045960, symSize: 0x70 }
  - { offset: 0x6F012, size: 0x8, addend: 0x0, symName: __RINvMCsSzEZQkfVAX_5cmakeNtB3_6Config6defineReBF_EB3_, symObjAddr: 0x0, symBinAddr: 0x10003CE10, symSize: 0x150 }
  - { offset: 0x6F067, size: 0x8, addend: 0x0, symName: __RINvMCsSzEZQkfVAX_5cmakeNtB3_6Config6defineReNtNtNtCsHUR1vrdMJt_3std3ffi6os_str8OsStringEB3_, symObjAddr: 0x150, symBinAddr: 0x10003CF60, symSize: 0x170 }
  - { offset: 0x6F119, size: 0x8, addend: 0x0, symName: __RNvMCsSzEZQkfVAX_5cmakeNtB2_6Config10static_crt, symObjAddr: 0x23B0, symBinAddr: 0x10003F120, symSize: 0x30 }
  - { offset: 0x6F158, size: 0x8, addend: 0x0, symName: __RNvMCsSzEZQkfVAX_5cmakeNtB2_6Config11get_profile, symObjAddr: 0x2400, symBinAddr: 0x10003F150, symSize: 0x790 }
  - { offset: 0x6F321, size: 0x8, addend: 0x0, symName: __RNvMCsSzEZQkfVAX_5cmakeNtB2_6Config11maybe_clear, symObjAddr: 0x2B90, symBinAddr: 0x10003F8E0, symSize: 0x620 }
  - { offset: 0x6F462, size: 0x8, addend: 0x0, symName: __RNvMCsSzEZQkfVAX_5cmakeNtB2_6Config16cmake_executable, symObjAddr: 0x3420, symBinAddr: 0x10003FF00, symSize: 0x80 }
  - { offset: 0x6F494, size: 0x8, addend: 0x0, symName: __RNvMCsSzEZQkfVAX_5cmakeNtB2_6Config16getenv_target_os, symObjAddr: 0x34A0, symBinAddr: 0x10003FF80, symSize: 0x430 }
  - { offset: 0x6F57F, size: 0x8, addend: 0x0, symName: __RNvMCsSzEZQkfVAX_5cmakeNtB2_6Config16uses_android_ndk, symObjAddr: 0x3900, symBinAddr: 0x1000403B0, symSize: 0x80 }
  - { offset: 0x6F6DA, size: 0x8, addend: 0x0, symName: __RNvMCsSzEZQkfVAX_5cmakeNtB2_6Config19cmake_build_command, symObjAddr: 0x3980, symBinAddr: 0x100040430, symSize: 0x190 }
  - { offset: 0x6F73A, size: 0x8, addend: 0x0, symName: __RNvMCsSzEZQkfVAX_5cmakeNtB2_6Config23cmake_configure_command, symObjAddr: 0x3B10, symBinAddr: 0x1000405C0, symSize: 0x190 }
  - { offset: 0x6F79A, size: 0x8, addend: 0x0, symName: __RNvMCsSzEZQkfVAX_5cmakeNtB2_6Config23visual_studio_generator, symObjAddr: 0x3CA0, symBinAddr: 0x100040750, symSize: 0x290 }
  - { offset: 0x6F8B5, size: 0x8, addend: 0x0, symName: __RNvMCsSzEZQkfVAX_5cmakeNtB2_6Config5build, symObjAddr: 0x4020, symBinAddr: 0x1000409E0, symSize: 0x4580 }
  - { offset: 0x70201, size: 0x8, addend: 0x0, symName: __RNvMCsSzEZQkfVAX_5cmakeNtB2_6Config7defined, symObjAddr: 0x8660, symBinAddr: 0x100044F60, symSize: 0x50 }
  - { offset: 0x70233, size: 0x8, addend: 0x0, symName: __RNvMCsSzEZQkfVAX_5cmakeNtB2_6Config9getenv_os, symObjAddr: 0x8770, symBinAddr: 0x100044FB0, symSize: 0x270 }
  - { offset: 0x702D0, size: 0x8, addend: 0x0, symName: __RNvMs_CsSzEZQkfVAX_5cmakeNtB4_7Version12from_command, symObjAddr: 0x89E0, symBinAddr: 0x100045220, symSize: 0x330 }
  - { offset: 0x7037B, size: 0x8, addend: 0x0, symName: __RNvMs_CsSzEZQkfVAX_5cmakeNtB4_7Version3new, symObjAddr: 0x8D10, symBinAddr: 0x100045550, symSize: 0x20 }
  - { offset: 0x703AD, size: 0x8, addend: 0x0, symName: __RNvMs_CsSzEZQkfVAX_5cmakeNtB4_7Version5parse, symObjAddr: 0x8D30, symBinAddr: 0x100045570, symSize: 0x340 }
  - { offset: 0x70830, size: 0x8, addend: 0x0, symName: __RINvMs0_NtNtCsHUR1vrdMJt_3std3ffi6os_strNtB6_8OsString4pushRNtNtBa_4path7PathBufECsSzEZQkfVAX_5cmake, symObjAddr: 0x0, symBinAddr: 0x100045A20, symSize: 0x40 }
  - { offset: 0x7103D, size: 0x8, addend: 0x0, symName: __RNvXNvMs0_NtNtCsHUR1vrdMJt_3std3ffi6os_strNtB8_8OsString4pushRNtNtCslJiobkLta79_5alloc6string6StringNtB2_10SpecPushTo12spec_push_toCsSzEZQkfVAX_5cmake, symObjAddr: 0x20F0, symBinAddr: 0x100047B10, symSize: 0x80 }
  - { offset: 0x711C3, size: 0x8, addend: 0x0, symName: __RNvXs3_NtNtCsHUR1vrdMJt_3std3ffi6os_strNtB5_8OsStringINtNtNtCsieiGu2EXtoJ_4core3ops5index5IndexNtNtBU_5range9RangeFullE5indexCsSzEZQkfVAX_5cmake, symObjAddr: 0x2920, symBinAddr: 0x100048340, symSize: 0x60 }
  - { offset: 0x712D2, size: 0x8, addend: 0x0, symName: __RNvXs5_NtNtCsHUR1vrdMJt_3std3ffi6os_strNtB5_8OsStringNtNtNtCsieiGu2EXtoJ_4core3ops5deref5Deref5derefCsSzEZQkfVAX_5cmake, symObjAddr: 0x2980, symBinAddr: 0x1000483A0, symSize: 0x20 }
  - { offset: 0x71324, size: 0x8, addend: 0x0, symName: __RNvXs7_NtNtCsHUR1vrdMJt_3std3ffi6os_strNtB5_8OsStringNtNtCsieiGu2EXtoJ_4core7default7Default7defaultCsSzEZQkfVAX_5cmake, symObjAddr: 0x29A0, symBinAddr: 0x1000483C0, symSize: 0x60 }
  - { offset: 0x7139D, size: 0x8, addend: 0x0, symName: __RNvXs8_NtNtCsHUR1vrdMJt_3std3ffi6os_strNtB5_8OsStringNtNtCsieiGu2EXtoJ_4core5clone5Clone5cloneCsSzEZQkfVAX_5cmake, symObjAddr: 0x2A00, symBinAddr: 0x100048420, symSize: 0x70 }
  - { offset: 0x713EF, size: 0x8, addend: 0x0, symName: __RNvXsT_NtNtCsHUR1vrdMJt_3std3ffi6os_strNtB5_5OsStrNtNtCslJiobkLta79_5alloc6borrow7ToOwned8to_ownedCsSzEZQkfVAX_5cmake, symObjAddr: 0x2A70, symBinAddr: 0x100048490, symSize: 0x80 }
  - { offset: 0x714A3, size: 0x8, addend: 0x0, symName: __RNvXsV_NtNtCsHUR1vrdMJt_3std3ffi6os_strNtB5_8OsStringINtNtCsieiGu2EXtoJ_4core7convert5AsRefNtB5_5OsStrE6as_refCsSzEZQkfVAX_5cmake, symObjAddr: 0x2AF0, symBinAddr: 0x100048510, symSize: 0x20 }
  - { offset: 0x714F5, size: 0x8, addend: 0x0, symName: __RNvXsW_NtNtCsHUR1vrdMJt_3std3ffi6os_streINtNtCsieiGu2EXtoJ_4core7convert5AsRefNtB5_5OsStrE6as_refCsSzEZQkfVAX_5cmake, symObjAddr: 0x2B10, symBinAddr: 0x100048530, symSize: 0x20 }
  - { offset: 0x71529, size: 0x8, addend: 0x0, symName: __RNvXsX_NtNtCsHUR1vrdMJt_3std3ffi6os_strNtNtCslJiobkLta79_5alloc6string6StringINtNtCsieiGu2EXtoJ_4core7convert5AsRefNtB5_5OsStrE6as_refCsSzEZQkfVAX_5cmake, symObjAddr: 0x2B30, symBinAddr: 0x100048550, symSize: 0x70 }
  - { offset: 0x7170F, size: 0x8, addend: 0x0, symName: __RNvXs2_NtNtCsHUR1vrdMJt_3std4hash6randomNtB5_13DefaultHasherNtNtCsieiGu2EXtoJ_4core4hash6Hasher6finishCsSzEZQkfVAX_5cmake, symObjAddr: 0x2770, symBinAddr: 0x100048190, symSize: 0x20 }
  - { offset: 0x71758, size: 0x8, addend: 0x0, symName: __RNvXs2_NtNtCsHUR1vrdMJt_3std4hash6randomNtB5_13DefaultHasherNtNtCsieiGu2EXtoJ_4core4hash6Hasher9write_strCsSzEZQkfVAX_5cmake, symObjAddr: 0x2790, symBinAddr: 0x1000481B0, symSize: 0x30 }
  - { offset: 0x717B9, size: 0x8, addend: 0x0, symName: __RNvXs_NtNtCsHUR1vrdMJt_3std4hash6randomNtB4_11RandomStateNtNtCsieiGu2EXtoJ_4core4hash11BuildHasher12build_hasherCsSzEZQkfVAX_5cmake, symObjAddr: 0x2BA0, symBinAddr: 0x1000485C0, symSize: 0xF0 }
  - { offset: 0x71A72, size: 0x8, addend: 0x0, symName: __RINvNtCsHUR1vrdMJt_3std2fs12canonicalizeRNtNtB4_4path4PathECsSzEZQkfVAX_5cmake, symObjAddr: 0x620, symBinAddr: 0x100046040, symSize: 0x60 }
  - { offset: 0x71AA9, size: 0x8, addend: 0x0, symName: __RINvNtCsHUR1vrdMJt_3std2fs12canonicalizeReECsSzEZQkfVAX_5cmake, symObjAddr: 0x680, symBinAddr: 0x1000460A0, symSize: 0x60 }
  - { offset: 0x71B2C, size: 0x8, addend: 0x0, symName: __RINvNtCsHUR1vrdMJt_3std2fs14create_dir_allRNtNtB4_4path7PathBufECsSzEZQkfVAX_5cmake, symObjAddr: 0x6E0, symBinAddr: 0x100046100, symSize: 0x80 }
  - { offset: 0x71B96, size: 0x8, addend: 0x0, symName: __RINvNtCsHUR1vrdMJt_3std2fs14remove_dir_allRNtNtB4_4path4PathECsSzEZQkfVAX_5cmake, symObjAddr: 0x760, symBinAddr: 0x100046180, symSize: 0x60 }
  - { offset: 0x71C08, size: 0x8, addend: 0x0, symName: __RINvNtCsHUR1vrdMJt_3std2fs8metadataNtNtB4_4path7PathBufECsSzEZQkfVAX_5cmake, symObjAddr: 0x7C0, symBinAddr: 0x1000461E0, symSize: 0x130 }
  - { offset: 0x71CC7, size: 0x8, addend: 0x0, symName: __RINvNtCsHUR1vrdMJt_3std2fs8metadataRNtNtB4_4path7PathBufECsSzEZQkfVAX_5cmake, symObjAddr: 0x8F0, symBinAddr: 0x100046310, symSize: 0x110 }
  - { offset: 0x7447B, size: 0x8, addend: 0x0, symName: __RNvXs1_NtNtNtCsieiGu2EXtoJ_4core3ops8function5implsQNCINvNvNtNtNtNtBb_4iter6traits8iterator8Iterator8for_each4callcNCINvXsb_NtCslJiobkLta79_5alloc6stringNtB1Y_6StringINtNtBZ_7collect6ExtendcE6extendINtNtNtB11_8adapters7flatten7FlatMapNtNtNtBb_3str4iter5CharsNtNtBb_4char11ToUppercaseNCNvMCsSzEZQkfVAX_5cmakeNtB4C_6Config5builds5_0EE0E0INtB7_5FnMutTucEE8call_mutB4C_, symObjAddr: 0x2730, symBinAddr: 0x100048150, symSize: 0x20 }
  - { offset: 0x746A4, size: 0x8, addend: 0x0, symName: __RINvXs_NtNtCsieiGu2EXtoJ_4core3ops11index_rangeNtB5_10IndexRangeNtNtNtNtB9_4iter6traits8iterator8Iterator8try_folduNCINvMs6_NtNtNtB9_5array4iter10iter_innerINtB1Y_15PolymorphicIterSINtNtNtB9_3mem12maybe_uninit11MaybeUninitcEE8try_folduNCINvMNtB7_9try_traitINtB3R_17NeverShortCircuituE10wrap_mut_2ucQNCINvNvB10_8for_each4callcNCINvXsb_NtCslJiobkLta79_5alloc6stringNtB5m_6StringINtNtB14_7collect6ExtendcE6extendINtNtNtB16_8adapters7flatten7FlatMapNtNtNtB9_3str4iter5CharsNtNtB9_4char11ToUppercaseNCNvMCsSzEZQkfVAX_5cmakeNtB81_6Config5builds5_0EE0E0E0B46_E0B46_EB81_, symObjAddr: 0xB80, symBinAddr: 0x1000465A0, symSize: 0xE0 }
  - { offset: 0x74928, size: 0x8, addend: 0x0, symName: __RNvXs_NtNtCsieiGu2EXtoJ_4core5slice4iterRSNtNtNtCsHUR1vrdMJt_3std3ffi6os_str8OsStringNtNtNtNtB8_4iter6traits7collect12IntoIterator9into_iterCsSzEZQkfVAX_5cmake, symObjAddr: 0x3150, symBinAddr: 0x100048B70, symSize: 0x50 }
  - { offset: 0x74ACE, size: 0x8, addend: 0x0, symName: __RNvNvNtNtCsieiGu2EXtoJ_4core5slice3raw14from_raw_parts18precondition_checkCsSzEZQkfVAX_5cmake, symObjAddr: 0x1BA0, symBinAddr: 0x1000475C0, symSize: 0x260 }
  - { offset: 0x74C9C, size: 0x8, addend: 0x0, symName: __RNvNvNtNtCsieiGu2EXtoJ_4core5slice3raw18from_raw_parts_mut18precondition_checkCsSzEZQkfVAX_5cmake, symObjAddr: 0x1E00, symBinAddr: 0x100047820, symSize: 0x260 }
  - { offset: 0x74F30, size: 0x8, addend: 0x0, symName: __RNvNtNtCsieiGu2EXtoJ_4core5slice6memchr6memchrCsSzEZQkfVAX_5cmake, symObjAddr: 0x17E0, symBinAddr: 0x100047200, symSize: 0xE0 }
  - { offset: 0x755DC, size: 0x8, addend: 0x0, symName: __RINvNtNtNtCsieiGu2EXtoJ_4core4iter8adapters5chain17and_then_or_clearINtNtNtB8_5slice4iter4IterTNtNtNtCsHUR1vrdMJt_3std3ffi6os_str8OsStringB1v_EERB1u_NvYB14_NtNtNtB6_6traits8iterator8Iterator4nextECsSzEZQkfVAX_5cmake, symObjAddr: 0xA00, symBinAddr: 0x100046420, symSize: 0xC0 }
  - { offset: 0x7572E, size: 0x8, addend: 0x0, symName: __RNCNvXs_NtNtNtCsieiGu2EXtoJ_4core4iter8adapters5chainINtB6_5ChainINtNtNtBc_5slice4iter4IterTNtNtNtCsHUR1vrdMJt_3std3ffi6os_str8OsStringB1s_EEB11_ENtNtNtBa_6traits8iterator8Iterator4next0CsSzEZQkfVAX_5cmake, symObjAddr: 0xFD0, symBinAddr: 0x1000469F0, symSize: 0x80 }
  - { offset: 0x75807, size: 0x8, addend: 0x0, symName: __RNvXs_NtNtNtCsieiGu2EXtoJ_4core4iter8adapters5chainINtB4_5ChainINtNtNtBa_5slice4iter4IterTNtNtNtCsHUR1vrdMJt_3std3ffi6os_str8OsStringB1q_EEBZ_ENtNtNtB8_6traits8iterator8Iterator4nextCsSzEZQkfVAX_5cmake, symObjAddr: 0x31A0, symBinAddr: 0x100048BC0, symSize: 0x30 }
  - { offset: 0x75966, size: 0x8, addend: 0x0, symName: __RNCINvNvNtNtNtNtCsieiGu2EXtoJ_4core4iter6traits8iterator8Iterator4find5checkNtNtCsHUR1vrdMJt_3std4path7PathBufNCNvCsSzEZQkfVAX_5cmake8find_exes_0E0B1O_, symObjAddr: 0xEC0, symBinAddr: 0x1000468E0, symSize: 0xC0 }
  - { offset: 0x759D0, size: 0x8, addend: 0x0, symName: __RNCINvNvNtNtNtNtCsieiGu2EXtoJ_4core4iter6traits8iterator8Iterator8for_each4callcNCINvXsb_NtCslJiobkLta79_5alloc6stringNtB1p_6StringINtNtBa_7collect6ExtendcE6extendINtNtNtBc_8adapters7flatten7FlatMapNtNtNtBe_3str4iter5CharsNtNtBe_4char11ToUppercaseNCNvMCsSzEZQkfVAX_5cmakeNtB42_6Config5builds5_0EE0E0B42_, symObjAddr: 0xF80, symBinAddr: 0x1000469A0, symSize: 0x20 }
  - { offset: 0x75A49, size: 0x8, addend: 0x0, symName: __RNvXNtNtNtCsieiGu2EXtoJ_4core4iter6traits7collectINtNtNtB6_8adapters5chain5ChainINtNtNtB8_5slice4iter4IterTNtNtNtCsHUR1vrdMJt_3std3ffi6os_str8OsStringB1H_EEB1g_ENtB2_12IntoIterator9into_iterCsSzEZQkfVAX_5cmake, symObjAddr: 0x20C0, symBinAddr: 0x100047AE0, symSize: 0x30 }
  - { offset: 0x75A93, size: 0x8, addend: 0x0, symName: __RINvXs3_NtNtCsieiGu2EXtoJ_4core4hash5implsRNtNtCslJiobkLta79_5alloc6string6StringNtB8_4Hash4hashNtNtNtCsHUR1vrdMJt_3std4hash6random13DefaultHasherECsSzEZQkfVAX_5cmake, symObjAddr: 0xAC0, symBinAddr: 0x1000464E0, symSize: 0x20 }
  - { offset: 0x75C5E, size: 0x8, addend: 0x0, symName: __RINvYNtNtNtCsHUR1vrdMJt_3std4hash6random11RandomStateNtNtCsieiGu2EXtoJ_4core4hash11BuildHasher8hash_oneRNtNtCslJiobkLta79_5alloc6string6StringECsSzEZQkfVAX_5cmake, symObjAddr: 0xDC0, symBinAddr: 0x1000467E0, symSize: 0x80 }
  - { offset: 0x75EB3, size: 0x8, addend: 0x0, symName: __RNvXs0_NtNtCsieiGu2EXtoJ_4core3str7patternNtB5_12CharSearcherNtB5_15ReverseSearcher15next_match_backCsSzEZQkfVAX_5cmake, symObjAddr: 0x2250, symBinAddr: 0x100047C70, symSize: 0x4B0 }
  - { offset: 0x764E8, size: 0x8, addend: 0x0, symName: __RNvXs2_NtNtCsieiGu2EXtoJ_4core3str7patterncNtB5_7Pattern13into_searcherCsSzEZQkfVAX_5cmake, symObjAddr: 0x27C0, symBinAddr: 0x1000481E0, symSize: 0x120 }
  - { offset: 0x76603, size: 0x8, addend: 0x0, symName: __RNvXs2_NtNtCsieiGu2EXtoJ_4core3str7patterncNtB5_7Pattern15as_utf8_patternCsSzEZQkfVAX_5cmake, symObjAddr: 0x28E0, symBinAddr: 0x100048300, symSize: 0x40 }
  - { offset: 0x76637, size: 0x8, addend: 0x0, symName: __RNvXs_NtNtCsieiGu2EXtoJ_4core3str7patternNtB4_12CharSearcherNtB4_8Searcher10next_matchCsSzEZQkfVAX_5cmake, symObjAddr: 0x2C90, symBinAddr: 0x1000486B0, symSize: 0x4A0 }
  - { offset: 0x76BDC, size: 0x8, addend: 0x0, symName: __RNvXs_NtNtCsieiGu2EXtoJ_4core3str7patternNtB4_12CharSearcherNtB4_8Searcher8haystackCsSzEZQkfVAX_5cmake, symObjAddr: 0x3130, symBinAddr: 0x100048B50, symSize: 0x20 }
  - { offset: 0x76C3A, size: 0x8, addend: 0x0, symName: __RNvXst_NtNtCsieiGu2EXtoJ_4core3str7patternReNtB5_7Pattern15strip_suffix_ofCsSzEZQkfVAX_5cmake, symObjAddr: 0x3EB0, symBinAddr: 0x1000498D0, symSize: 0xE0 }
  - { offset: 0x77186, size: 0x8, addend: 0x0, symName: __RNvNtNtNtCsieiGu2EXtoJ_4core9core_arch3x864sse212__mm_or_si128CsSzEZQkfVAX_5cmake, symObjAddr: 0x18C0, symBinAddr: 0x1000472E0, symSize: 0x20 }
  - { offset: 0x77295, size: 0x8, addend: 0x0, symName: __RNvNtNtNtCsieiGu2EXtoJ_4core9core_arch3x864sse213__mm_set1_epi8CsSzEZQkfVAX_5cmake, symObjAddr: 0x18E0, symBinAddr: 0x100047300, symSize: 0x90 }
  - { offset: 0x773EF, size: 0x8, addend: 0x0, symName: __RNvNtNtNtCsieiGu2EXtoJ_4core9core_arch3x864sse214__mm_cmpeq_epi8CsSzEZQkfVAX_5cmake, symObjAddr: 0x1970, symBinAddr: 0x100047390, symSize: 0x80 }
  - { offset: 0x7742F, size: 0x8, addend: 0x0, symName: __RNvNtNtNtCsieiGu2EXtoJ_4core9core_arch3x864sse214__mm_cmpgt_epi8CsSzEZQkfVAX_5cmake, symObjAddr: 0x19F0, symBinAddr: 0x100047410, symSize: 0x80 }
  - { offset: 0x7746F, size: 0x8, addend: 0x0, symName: __RNvNtNtNtCsieiGu2EXtoJ_4core9core_arch3x864sse214__mm_load_si128CsSzEZQkfVAX_5cmake, symObjAddr: 0x1A70, symBinAddr: 0x100047490, symSize: 0x20 }
  - { offset: 0x774AE, size: 0x8, addend: 0x0, symName: __RNvNtNtNtCsieiGu2EXtoJ_4core9core_arch3x864sse215__mm_loadu_si128CsSzEZQkfVAX_5cmake, symObjAddr: 0x1A90, symBinAddr: 0x1000474B0, symSize: 0x90 }
  - { offset: 0x7753D, size: 0x8, addend: 0x0, symName: __RNvNtNtNtCsieiGu2EXtoJ_4core9core_arch3x864sse215__mm_store_si128CsSzEZQkfVAX_5cmake, symObjAddr: 0x1B20, symBinAddr: 0x100047540, symSize: 0x20 }
  - { offset: 0x77576, size: 0x8, addend: 0x0, symName: __RNvNtNtNtCsieiGu2EXtoJ_4core9core_arch3x864sse217__mm_movemask_epi8CsSzEZQkfVAX_5cmake, symObjAddr: 0x1B40, symBinAddr: 0x100047560, symSize: 0x50 }
  - { offset: 0x775E2, size: 0x8, addend: 0x0, symName: __RNvNtNtNtCsieiGu2EXtoJ_4core9core_arch3x864sse217__mm_setzero_si128CsSzEZQkfVAX_5cmake, symObjAddr: 0x1B90, symBinAddr: 0x1000475B0, symSize: 0x10 }
  - { offset: 0x778DB, size: 0x8, addend: 0x0, symName: __RNvYNtNtCslJiobkLta79_5alloc6string6StringNtNtCsieiGu2EXtoJ_4core3cmp9PartialEq2neCsSzEZQkfVAX_5cmake, symObjAddr: 0x3F90, symBinAddr: 0x1000499B0, symSize: 0x20 }
  - { offset: 0x77936, size: 0x8, addend: 0x0, symName: __RNvXNtCsieiGu2EXtoJ_4core6borrowNtNtCslJiobkLta79_5alloc6string6StringINtB2_6BorrowBu_E6borrowCsSzEZQkfVAX_5cmake, symObjAddr: 0x20B0, symBinAddr: 0x100047AD0, symSize: 0x10 }
  - { offset: 0x77CA2, size: 0x8, addend: 0x0, symName: __RNvXse_CseYC8vFNOjrM_2ccNtB5_5BuildNtNtCsieiGu2EXtoJ_4core5clone5Clone5cloneCsSzEZQkfVAX_5cmake, symObjAddr: 0x31D0, symBinAddr: 0x100048BF0, symSize: 0xC50 }
  - { offset: 0x78584, size: 0x8, addend: 0x0, symName: __RNvXs1_NtCslJiobkLta79_5alloc7raw_vecINtB5_6RawVecNtNtCsHUR1vrdMJt_3std4path7PathBufENtNtNtCsieiGu2EXtoJ_4core3ops4drop4Drop4dropCsSzEZQkfVAX_5cmake, symObjAddr: 0x2700, symBinAddr: 0x100048120, symSize: 0x30 }
  - { offset: 0x78721, size: 0x8, addend: 0x0, symName: __RINvXs5_NtCslJiobkLta79_5alloc6stringNtB6_6StringINtNtNtNtCsieiGu2EXtoJ_4core4iter6traits7collect12FromIteratorcE9from_iterINtNtNtBS_8adapters7flatten7FlatMapNtNtNtBU_3str4iter5CharsNtNtBU_4char11ToUppercaseNCNvMCsSzEZQkfVAX_5cmakeNtB3o_6Config5builds5_0EEB3o_, symObjAddr: 0xAE0, symBinAddr: 0x100046500, symSize: 0xA0 }
  - { offset: 0x787A0, size: 0x8, addend: 0x0, symName: __RINvXsb_NtCslJiobkLta79_5alloc6stringNtB6_6StringINtNtNtNtCsieiGu2EXtoJ_4core4iter6traits7collect6ExtendcE6extendINtNtNtBS_8adapters7flatten7FlatMapNtNtNtBU_3str4iter5CharsNtNtBU_4char11ToUppercaseNCNvMCsSzEZQkfVAX_5cmakeNtB3e_6Config5builds5_0EEB3e_, symObjAddr: 0xC60, symBinAddr: 0x100046680, symSize: 0xE0 }
  - { offset: 0x78843, size: 0x8, addend: 0x0, symName: __RNCINvXsb_NtCslJiobkLta79_5alloc6stringNtB8_6StringINtNtNtNtCsieiGu2EXtoJ_4core4iter6traits7collect6ExtendcE6extendINtNtNtBU_8adapters7flatten7FlatMapNtNtNtBW_3str4iter5CharsNtNtBW_4char11ToUppercaseNCNvMCsSzEZQkfVAX_5cmakeNtB3g_6Config5builds5_0EE0B3g_, symObjAddr: 0xFA0, symBinAddr: 0x1000469C0, symSize: 0x30 }
  - { offset: 0x788FB, size: 0x8, addend: 0x0, symName: __RNvXss_NtCslJiobkLta79_5alloc6stringNtB5_6StringNtNtNtCsieiGu2EXtoJ_4core3ops5deref5Deref5derefCsSzEZQkfVAX_5cmake, symObjAddr: 0x3E90, symBinAddr: 0x1000498B0, symSize: 0x20 }
  - { offset: 0x7892F, size: 0x8, addend: 0x0, symName: __RINvXsn_NtCslJiobkLta79_5alloc6stringNtB6_6StringNtNtCsieiGu2EXtoJ_4core4hash4Hash4hashNtNtNtCsHUR1vrdMJt_3std4hash6random13DefaultHasherECsSzEZQkfVAX_5cmake, symObjAddr: 0xD40, symBinAddr: 0x100046760, symSize: 0x80 }
  - { offset: 0x78AE0, size: 0x8, addend: 0x0, symName: __RNvXs1b_NtCslJiobkLta79_5alloc6stringNtB6_6StringNtNtCsieiGu2EXtoJ_4core3cmp9PartialEq2eqCsSzEZQkfVAX_5cmake, symObjAddr: 0x2750, symBinAddr: 0x100048170, symSize: 0x20 }
  - { offset: 0x78B23, size: 0x8, addend: 0x0, symName: __RNvXsl_NtCslJiobkLta79_5alloc6stringNtB5_6StringNtNtCsieiGu2EXtoJ_4core3fmt7Display3fmtCsSzEZQkfVAX_5cmake, symObjAddr: 0x3E20, symBinAddr: 0x100049840, symSize: 0x70 }
  - { offset: 0x78EFA, size: 0x8, addend: 0x0, symName: __RNvNtCslJiobkLta79_5alloc3fmt6formatCsSzEZQkfVAX_5cmake, symObjAddr: 0x1720, symBinAddr: 0x100047140, symSize: 0xC0 }
  - { offset: 0x78F78, size: 0x8, addend: 0x0, symName: __RNvXNvXNvMNtCslJiobkLta79_5alloc5sliceSp9to_vec_inpNtB5_10ConvertVec6to_vecINtB2_9DropGuardINtNtBa_4sync3ArcNtNtCsHUR1vrdMJt_3std4path4PathENtNtBa_5alloc6GlobalENtNtNtCsieiGu2EXtoJ_4core3ops4drop4Drop4dropCsSzEZQkfVAX_5cmake, symObjAddr: 0x2170, symBinAddr: 0x100047B90, symSize: 0x30 }
  - { offset: 0x78FB4, size: 0x8, addend: 0x0, symName: __RNvXNvXNvMNtCslJiobkLta79_5alloc5sliceSp9to_vec_inpNtB5_10ConvertVec6to_vecINtB2_9DropGuardINtNtBa_4sync3ArcNtNtNtCsHUR1vrdMJt_3std3ffi6os_str5OsStrENtNtBa_5alloc6GlobalENtNtNtCsieiGu2EXtoJ_4core3ops4drop4Drop4dropCsSzEZQkfVAX_5cmake, symObjAddr: 0x21A0, symBinAddr: 0x100047BC0, symSize: 0x30 }
  - { offset: 0x78FF0, size: 0x8, addend: 0x0, symName: __RNvXNvXNvMNtCslJiobkLta79_5alloc5sliceSp9to_vec_inpNtB5_10ConvertVec6to_vecINtB2_9DropGuardTINtNtBa_4sync3ArcNtNtNtCsHUR1vrdMJt_3std3ffi6os_str5OsStrEB1s_ENtNtBa_5alloc6GlobalENtNtNtCsieiGu2EXtoJ_4core3ops4drop4Drop4dropCsSzEZQkfVAX_5cmake, symObjAddr: 0x21D0, symBinAddr: 0x100047BF0, symSize: 0x30 }
  - { offset: 0x7902C, size: 0x8, addend: 0x0, symName: __RNvXNvXNvMNtCslJiobkLta79_5alloc5sliceSp9to_vec_inpNtB5_10ConvertVec6to_vecINtB2_9DropGuardTINtNtBa_4sync3ArceEINtNtCsieiGu2EXtoJ_4core6option6OptionB1s_EENtNtBa_5alloc6GlobalENtNtNtB1Q_3ops4drop4Drop4dropCsSzEZQkfVAX_5cmake, symObjAddr: 0x2200, symBinAddr: 0x100047C20, symSize: 0x30 }
  - { offset: 0x791A8, size: 0x8, addend: 0x0, symName: __RNvXs0_NtCslJiobkLta79_5alloc3strNtNtB7_6string6StringINtNtCsieiGu2EXtoJ_4core6borrow6BorroweE6borrowCsSzEZQkfVAX_5cmake, symObjAddr: 0x2230, symBinAddr: 0x100047C50, symSize: 0x20 }
  - { offset: 0x79455, size: 0x8, addend: 0x0, symName: __RINvMs0_NtNtCsHUR1vrdMJt_3std3ffi6os_strNtB6_8OsString4pushRNtNtBa_4path7PathBufECsSzEZQkfVAX_5cmake, symObjAddr: 0x0, symBinAddr: 0x100045A20, symSize: 0x40 }
  - { offset: 0x7949D, size: 0x8, addend: 0x0, symName: __RINvMs0_NtNtCsHUR1vrdMJt_3std3ffi6os_strNtB6_8OsString4pushRNtNtCslJiobkLta79_5alloc6string6StringECsSzEZQkfVAX_5cmake, symObjAddr: 0x40, symBinAddr: 0x100045A60, symSize: 0x40 }
  - { offset: 0x79660, size: 0x8, addend: 0x0, symName: __RNCINvNtCsjK30CmJ87bX_9hashbrown3map14equivalent_keyNtNtCslJiobkLta79_5alloc6string6StringBO_INtNtCsieiGu2EXtoJ_4core6option6OptionNtNtNtCsHUR1vrdMJt_3std3ffi6os_str8OsStringEE0CsSzEZQkfVAX_5cmake, symObjAddr: 0xE70, symBinAddr: 0x100046890, symSize: 0x20 }
  - { offset: 0x796B7, size: 0x8, addend: 0x0, symName: __RNCINvNtCsjK30CmJ87bX_9hashbrown3map14equivalent_keyeNtNtCslJiobkLta79_5alloc6string6StringINtNtCsieiGu2EXtoJ_4core6option6OptionNtNtNtCsHUR1vrdMJt_3std3ffi6os_str8OsStringEE0CsSzEZQkfVAX_5cmake, symObjAddr: 0xE90, symBinAddr: 0x1000468B0, symSize: 0x30 }
  - { offset: 0x797BD, size: 0x8, addend: 0x0, symName: __RNCINvNtCsjK30CmJ87bX_9hashbrown3map11make_hasherNtNtCslJiobkLta79_5alloc6string6StringINtNtCsieiGu2EXtoJ_4core6option6OptionNtNtNtCsHUR1vrdMJt_3std3ffi6os_str8OsStringENtNtNtB25_4hash6random11RandomStateE0CsSzEZQkfVAX_5cmake, symObjAddr: 0xE40, symBinAddr: 0x100046860, symSize: 0x30 }
  - { offset: 0x79C56, size: 0x8, addend: 0x0, symName: __RNvXCsjK30CmJ87bX_9hashbrownNtNtCslJiobkLta79_5alloc6string6StringINtB2_10EquivalentBq_E10equivalentCsSzEZQkfVAX_5cmake, symObjAddr: 0x2060, symBinAddr: 0x100047A80, symSize: 0x50 }
  - { offset: 0x79D90, size: 0x8, addend: 0x0, symName: __RINvMs0_NtNtNtCsHUR1vrdMJt_3std11collections4hash3mapINtB6_7HashMapNtNtCslJiobkLta79_5alloc6string6StringINtNtCsieiGu2EXtoJ_4core6option6OptionNtNtNtBc_3ffi6os_str8OsStringEE3geteECsSzEZQkfVAX_5cmake, symObjAddr: 0x80, symBinAddr: 0x100045AA0, symSize: 0x60 }
  - { offset: 0x79F1D, size: 0x8, addend: 0x0, symName: __RINvMs1_NtCsjK30CmJ87bX_9hashbrown3mapINtB6_7HashMapNtNtCslJiobkLta79_5alloc6string6StringINtNtCsieiGu2EXtoJ_4core6option6OptionNtNtNtCsHUR1vrdMJt_3std3ffi6os_str8OsStringENtNtNtB28_4hash6random11RandomStateE9get_innereECsSzEZQkfVAX_5cmake, symObjAddr: 0xE0, symBinAddr: 0x100045B00, symSize: 0x120 }
  - { offset: 0x7A161, size: 0x8, addend: 0x0, symName: __RINvMs2_NtCsHUR1vrdMJt_3std2fsNtB6_4File4openNtNtB8_4path7PathBufECsSzEZQkfVAX_5cmake, symObjAddr: 0x200, symBinAddr: 0x100045C20, symSize: 0xC0 }
  - { offset: 0x7A332, size: 0x8, addend: 0x0, symName: __RINvMsk_NtCsHUR1vrdMJt_3std7processNtB6_7Command11current_dirRNtNtB8_4path7PathBufECsSzEZQkfVAX_5cmake, symObjAddr: 0x2C0, symBinAddr: 0x100045CE0, symSize: 0x70 }
  - { offset: 0x7A36D, size: 0x8, addend: 0x0, symName: __RINvMsk_NtCsHUR1vrdMJt_3std7processNtB6_7Command3argRNtNtCslJiobkLta79_5alloc6string6StringECsSzEZQkfVAX_5cmake, symObjAddr: 0x330, symBinAddr: 0x100045D50, symSize: 0x60 }
  - { offset: 0x7A3B5, size: 0x8, addend: 0x0, symName: __RINvMsk_NtCsHUR1vrdMJt_3std7processNtB6_7Command3argRNtNtNtB8_3ffi6os_str8OsStringECsSzEZQkfVAX_5cmake, symObjAddr: 0x390, symBinAddr: 0x100045DB0, symSize: 0x60 }
  - { offset: 0x7A41D, size: 0x8, addend: 0x0, symName: __RINvMsk_NtCsHUR1vrdMJt_3std7processNtB6_7Command3envReNtNtNtB8_3ffi6os_str8OsStringECsSzEZQkfVAX_5cmake, symObjAddr: 0x3F0, symBinAddr: 0x100045E10, symSize: 0xD0 }
  - { offset: 0x7A48F, size: 0x8, addend: 0x0, symName: __RINvMsk_NtCsHUR1vrdMJt_3std7processNtB6_7Command3newNtNtNtB8_3ffi6os_str8OsStringECsSzEZQkfVAX_5cmake, symObjAddr: 0x4C0, symBinAddr: 0x100045EE0, symSize: 0xC0 }
  - { offset: 0x7A4E4, size: 0x8, addend: 0x0, symName: __RINvMsk_NtCsHUR1vrdMJt_3std7processNtB6_7Command3newRNtNtNtB8_3ffi6os_str5OsStrECsSzEZQkfVAX_5cmake, symObjAddr: 0x580, symBinAddr: 0x100045FA0, symSize: 0xA0 }
  - { offset: 0x7ABE0, size: 0x8, addend: 0x0, symName: __RNvMNtCslJiobkLta79_5alloc6stringNtB2_6String4pushCsSzEZQkfVAX_5cmake, symObjAddr: 0x1050, symBinAddr: 0x100046A70, symSize: 0x130 }
  - { offset: 0x7AEA9, size: 0x8, addend: 0x0, symName: __RNvMNtCslJiobkLta79_5alloc6stringNtB2_6String6as_strCsSzEZQkfVAX_5cmake, symObjAddr: 0x1180, symBinAddr: 0x100046BA0, symSize: 0x60 }
  - { offset: 0x7B004, size: 0x8, addend: 0x0, symName: __RNvMs0_NtCslJiobkLta79_5alloc7raw_vecINtB5_6RawVecNtNtCsHUR1vrdMJt_3std4path7PathBufE8grow_oneCsSzEZQkfVAX_5cmake, symObjAddr: 0x11E0, symBinAddr: 0x100046C00, symSize: 0x90 }
  - { offset: 0x7B07E, size: 0x8, addend: 0x0, symName: __RNvMs0_NtNtNtCsHUR1vrdMJt_3std11collections4hash3mapINtB5_7HashMapNtNtCslJiobkLta79_5alloc6string6StringINtNtCsieiGu2EXtoJ_4core6option6OptionNtNtNtBb_3ffi6os_str8OsStringEE6insertCsSzEZQkfVAX_5cmake, symObjAddr: 0x1270, symBinAddr: 0x100046C90, symSize: 0x30 }
  - { offset: 0x7B1AF, size: 0x8, addend: 0x0, symName: __RNvMs1_NtCsjK30CmJ87bX_9hashbrown3mapINtB5_7HashMapNtNtCslJiobkLta79_5alloc6string6StringINtNtCsieiGu2EXtoJ_4core6option6OptionNtNtNtCsHUR1vrdMJt_3std3ffi6os_str8OsStringENtNtNtB27_4hash6random11RandomStateE6insertCsSzEZQkfVAX_5cmake, symObjAddr: 0x12A0, symBinAddr: 0x100046CC0, symSize: 0x320 }
  - { offset: 0x7B37A, size: 0x8, addend: 0x0, symName: __RNvMsI_NtCsHUR1vrdMJt_3std7processNtB5_10ExitStatus4codeCsSzEZQkfVAX_5cmake, symObjAddr: 0x15C0, symBinAddr: 0x100046FE0, symSize: 0x60 }
  - { offset: 0x7B4F8, size: 0x8, addend: 0x0, symName: __RNvMsI_NtCsHUR1vrdMJt_3std7processNtB5_10ExitStatus7successCsSzEZQkfVAX_5cmake, symObjAddr: 0x1620, symBinAddr: 0x100047040, symSize: 0x60 }
  - { offset: 0x7B60D, size: 0x8, addend: 0x0, symName: __RNvMsl_NtNtCsHUR1vrdMJt_3std3ffi6os_strNtB5_5OsStr15to_string_lossyCsSzEZQkfVAX_5cmake, symObjAddr: 0x1680, symBinAddr: 0x1000470A0, symSize: 0x30 }
  - { offset: 0x7B695, size: 0x8, addend: 0x0, symName: __RNvMsl_NtNtCsHUR1vrdMJt_3std3ffi6os_strNtB5_5OsStr6to_strCsSzEZQkfVAX_5cmake, symObjAddr: 0x16B0, symBinAddr: 0x1000470D0, symSize: 0x70 }
  - { offset: 0x7C29D, size: 0x8, addend: 0x0, symName: __RINvMs6_NtCsjK30CmJ87bX_9hashbrown3rawINtB6_8RawTableTNtNtCslJiobkLta79_5alloc6string6StringINtNtCsieiGu2EXtoJ_4core6option6OptionNtNtNtCsHUR1vrdMJt_3std3ffi6os_str8OsStringEEE14reserve_rehashNCINvNtB8_3map11make_hasherBQ_B1s_NtNtNtB2a_4hash6random11RandomStateE0ECsSzEZQkfVAX_5cmake, symObjAddr: 0x0, symBinAddr: 0x10014E3C0, symSize: 0xD50 }
  - { offset: 0x7C2D9, size: 0x8, addend: 0x0, symName: __RNCINvMs6_NtCsjK30CmJ87bX_9hashbrown3rawINtB8_8RawTableTNtNtCslJiobkLta79_5alloc6string6StringINtNtCsieiGu2EXtoJ_4core6option6OptionNtNtNtCsHUR1vrdMJt_3std3ffi6os_str8OsStringEEE14reserve_rehashNCINvNtBa_3map11make_hasherBS_B1u_NtNtNtB2c_4hash6random11RandomStateE0E0CsSzEZQkfVAX_5cmake, symObjAddr: 0x1400, symBinAddr: 0x10004A080, symSize: 0xB0 }
  - { offset: 0x7C49F, size: 0x8, addend: 0x0, symName: __RNCINvMs6_NtCsjK30CmJ87bX_9hashbrown3rawINtB8_8RawTableTNtNtCslJiobkLta79_5alloc6string6StringINtNtCsieiGu2EXtoJ_4core6option6OptionNtNtNtCsHUR1vrdMJt_3std3ffi6os_str8OsStringEEE14reserve_rehashNCINvNtBa_3map11make_hasherBS_B1u_NtNtNtB2c_4hash6random11RandomStateE0Es_0CsSzEZQkfVAX_5cmake, symObjAddr: 0x14B0, symBinAddr: 0x10004A130, symSize: 0x30 }
  - { offset: 0x7C4FC, size: 0x8, addend: 0x0, symName: __RNCINvMs6_NtCsjK30CmJ87bX_9hashbrown3rawINtB8_8RawTableTNtNtCslJiobkLta79_5alloc6string6StringINtNtCsieiGu2EXtoJ_4core6option6OptionNtNtNtCsHUR1vrdMJt_3std3ffi6os_str8OsStringEEE24find_or_find_insert_slotNCINvNtBa_3map14equivalent_keyBS_BS_B1u_E0NCINvB3l_11make_hasherBS_B1u_NtNtNtB2c_4hash6random11RandomStateE0E0CsSzEZQkfVAX_5cmake, symObjAddr: 0x14E0, symBinAddr: 0x10004A160, symSize: 0xB0 }
  - { offset: 0x7C6D8, size: 0x8, addend: 0x0, symName: __RNCINvMs6_NtCsjK30CmJ87bX_9hashbrown3rawINtB8_8RawTableTNtNtCslJiobkLta79_5alloc6string6StringINtNtCsieiGu2EXtoJ_4core6option6OptionNtNtNtCsHUR1vrdMJt_3std3ffi6os_str8OsStringEEE4findNCINvNtBa_3map14equivalent_keyeBS_B1u_E0E0CsSzEZQkfVAX_5cmake, symObjAddr: 0x1590, symBinAddr: 0x10004A210, symSize: 0xB0 }
  - { offset: 0x7FC23, size: 0x8, addend: 0x0, symName: __RINvMs6_NtCsjK30CmJ87bX_9hashbrown3rawINtB6_8RawTableTNtNtCslJiobkLta79_5alloc6string6StringINtNtCsieiGu2EXtoJ_4core6option6OptionNtNtNtCsHUR1vrdMJt_3std3ffi6os_str8OsStringEEE14reserve_rehashNCINvNtB8_3map11make_hasherBQ_B1s_NtNtNtB2a_4hash6random11RandomStateE0ECsSzEZQkfVAX_5cmake, symObjAddr: 0x0, symBinAddr: 0x10014E3C0, symSize: 0xD50 }
  - { offset: 0x806F6, size: 0x8, addend: 0x0, symName: __RINvMs6_NtCsjK30CmJ87bX_9hashbrown3rawINtB6_8RawTableTNtNtCslJiobkLta79_5alloc6string6StringINtNtCsieiGu2EXtoJ_4core6option6OptionNtNtNtCsHUR1vrdMJt_3std3ffi6os_str8OsStringEEE24find_or_find_insert_slotNCINvNtB8_3map14equivalent_keyBQ_BQ_B1s_E0NCINvB3j_11make_hasherBQ_B1s_NtNtNtB2a_4hash6random11RandomStateE0ECsSzEZQkfVAX_5cmake, symObjAddr: 0xD50, symBinAddr: 0x1000499D0, symSize: 0x160 }
  - { offset: 0x80BC0, size: 0x8, addend: 0x0, symName: __RINvMs6_NtCsjK30CmJ87bX_9hashbrown3rawINtB6_8RawTableTNtNtCslJiobkLta79_5alloc6string6StringINtNtCsieiGu2EXtoJ_4core6option6OptionNtNtNtCsHUR1vrdMJt_3std3ffi6os_str8OsStringEEE4findNCINvNtB8_3map14equivalent_keyeBQ_B1s_E0ECsSzEZQkfVAX_5cmake, symObjAddr: 0xEB0, symBinAddr: 0x100049B30, symSize: 0x490 }
  - { offset: 0x810D9, size: 0x8, addend: 0x0, symName: __RINvMs6_NtCsjK30CmJ87bX_9hashbrown3rawINtB6_8RawTableTNtNtCslJiobkLta79_5alloc6string6StringINtNtCsieiGu2EXtoJ_4core6option6OptionNtNtNtCsHUR1vrdMJt_3std3ffi6os_str8OsStringEEE7reserveNCINvNtB8_3map11make_hasherBQ_B1s_NtNtNtB2a_4hash6random11RandomStateE0ECsSzEZQkfVAX_5cmake, symObjAddr: 0x1340, symBinAddr: 0x100049FC0, symSize: 0xC0 }
  - { offset: 0x81779, size: 0x8, addend: 0x0, symName: __RNvMs6_NtCsjK30CmJ87bX_9hashbrown3rawINtB5_8RawTableTNtNtCslJiobkLta79_5alloc6string6StringINtNtCsieiGu2EXtoJ_4core6option6OptionNtNtNtCsHUR1vrdMJt_3std3ffi6os_str8OsStringEEE14insert_in_slotCsSzEZQkfVAX_5cmake, symObjAddr: 0x1640, symBinAddr: 0x10004A2C0, symSize: 0x140 }
  - { offset: 0x81C19, size: 0x8, addend: 0x0, symName: __RNvMsa_NtCsjK30CmJ87bX_9hashbrown3rawNtB5_13RawTableInner15fix_insert_slotCsSzEZQkfVAX_5cmake, symObjAddr: 0x1780, symBinAddr: 0x10004A400, symSize: 0x140 }
  - { offset: 0x81FCC, size: 0x8, addend: 0x0, symName: __RNvMsa_NtCsjK30CmJ87bX_9hashbrown3rawNtB5_13RawTableInner15rehash_in_placeCsSzEZQkfVAX_5cmake, symObjAddr: 0x18C0, symBinAddr: 0x10004A540, symSize: 0x5B0 }
  - { offset: 0x82798, size: 0x8, addend: 0x0, symName: __RNvMsa_NtCsjK30CmJ87bX_9hashbrown3rawNtB5_13RawTableInner16find_insert_slotCsSzEZQkfVAX_5cmake, symObjAddr: 0x1E70, symBinAddr: 0x10004AAF0, symSize: 0x130 }
  - { offset: 0x82997, size: 0x8, addend: 0x0, symName: __RNvMsa_NtCsjK30CmJ87bX_9hashbrown3rawNtB5_13RawTableInner19prepare_insert_slotCsSzEZQkfVAX_5cmake, symObjAddr: 0x1FA0, symBinAddr: 0x10004AC20, symSize: 0x60 }
  - { offset: 0x82C88, size: 0x8, addend: 0x0, symName: __RNvMsa_NtCsjK30CmJ87bX_9hashbrown3rawNtB5_13RawTableInner23prepare_rehash_in_placeCsSzEZQkfVAX_5cmake, symObjAddr: 0x2000, symBinAddr: 0x10004AC80, symSize: 0x340 }
  - { offset: 0x833AF, size: 0x8, addend: 0x0, symName: __RNvMsa_NtCsjK30CmJ87bX_9hashbrown3rawNtB5_13RawTableInner25find_insert_slot_in_groupCsSzEZQkfVAX_5cmake, symObjAddr: 0x2340, symBinAddr: 0x10004AFC0, symSize: 0x160 }
  - { offset: 0x836AD, size: 0x8, addend: 0x0, symName: __RNvMsa_NtCsjK30CmJ87bX_9hashbrown3rawNtB5_13RawTableInner30find_or_find_insert_slot_innerCsSzEZQkfVAX_5cmake, symObjAddr: 0x24A0, symBinAddr: 0x10004B120, symSize: 0x410 }
  - { offset: 0x83AE2, size: 0x8, addend: 0x0, symName: __RINvMNtCsieiGu2EXtoJ_4core6optionINtB3_6OptionNtNtCsHUR1vrdMJt_3std4path7PathBufE14unwrap_or_elseNCNvCsSzEZQkfVAX_5cmake8find_exes0_0EB1B_, symObjAddr: 0x0, symBinAddr: 0x10004B530, symSize: 0xA0 }
  - { offset: 0x83FA5, size: 0x8, addend: 0x0, symName: __RNvXsi_NtNtCsHUR1vrdMJt_3std2io5errorNtB5_9ErrorKindNtNtCsieiGu2EXtoJ_4core3cmp9PartialEq2eqCsSzEZQkfVAX_5cmake, symObjAddr: 0x3790, symBinAddr: 0x10004ECC0, symSize: 0x20 }
  - { offset: 0x842E8, size: 0x8, addend: 0x0, symName: __RINvNtCsHUR1vrdMJt_3std3env10join_pathsRINtNtCslJiobkLta79_5alloc3vec3VecNtNtB4_4path7PathBufERB19_ECsSzEZQkfVAX_5cmake, symObjAddr: 0xE00, symBinAddr: 0x10004C330, symSize: 0xB0 }
  - { offset: 0x84382, size: 0x8, addend: 0x0, symName: __RINvNtCsHUR1vrdMJt_3std3env6var_osNtNtCslJiobkLta79_5alloc6string6StringECsSzEZQkfVAX_5cmake, symObjAddr: 0xEB0, symBinAddr: 0x10004C3E0, symSize: 0x80 }
  - { offset: 0x843D4, size: 0x8, addend: 0x0, symName: __RNvXs4_NtCsHUR1vrdMJt_3std3envNtB5_10SplitPathsNtNtNtNtCsieiGu2EXtoJ_4core4iter6traits8iterator8Iterator9size_hintCsSzEZQkfVAX_5cmake, symObjAddr: 0x3100, symBinAddr: 0x10004E630, symSize: 0x70 }
  - { offset: 0x84443, size: 0x8, addend: 0x0, symName: __RNvXsp_NtCsHUR1vrdMJt_3std3envNtB5_14JoinPathsErrorNtNtCsieiGu2EXtoJ_4core3fmt5Debug3fmtCsSzEZQkfVAX_5cmake, symObjAddr: 0x40E0, symBinAddr: 0x10004F610, symSize: 0x60 }
  - { offset: 0x84EB4, size: 0x8, addend: 0x0, symName: __RINvNtCsieiGu2EXtoJ_4core3ptr13drop_in_placeINtNtB4_6option6OptionIBH_NtNtNtCsHUR1vrdMJt_3std3ffi6os_str8OsStringEEECsSzEZQkfVAX_5cmake, symObjAddr: 0xF30, symBinAddr: 0x10004C460, symSize: 0x40 }
  - { offset: 0x84EE3, size: 0x8, addend: 0x0, symName: __RINvNtCsieiGu2EXtoJ_4core3ptr13drop_in_placeINtNtB4_6option6OptionNtCseYC8vFNOjrM_2cc5BuildEECsSzEZQkfVAX_5cmake, symObjAddr: 0xF70, symBinAddr: 0x10004C4A0, symSize: 0x40 }
  - { offset: 0x84F12, size: 0x8, addend: 0x0, symName: __RINvNtCsieiGu2EXtoJ_4core3ptr13drop_in_placeINtNtB4_6option6OptionNtNtB4_4char11ToUppercaseEECsSzEZQkfVAX_5cmake, symObjAddr: 0xFB0, symBinAddr: 0x10004C4E0, symSize: 0x30 }
  - { offset: 0x84F41, size: 0x8, addend: 0x0, symName: __RINvNtCsieiGu2EXtoJ_4core3ptr13drop_in_placeINtNtB4_6result6ResultNtNtCsHUR1vrdMJt_3std2fs4FileNtNtNtB16_2io5error5ErrorEECsSzEZQkfVAX_5cmake, symObjAddr: 0xFE0, symBinAddr: 0x10004C510, symSize: 0x40 }
  - { offset: 0x84F70, size: 0x8, addend: 0x0, symName: __RINvNtCsieiGu2EXtoJ_4core3ptr13drop_in_placeINtNtB4_6result6ResultNtNtCsHUR1vrdMJt_3std4path7PathBufNtNtNtB16_2io5error5ErrorEECsSzEZQkfVAX_5cmake, symObjAddr: 0x1020, symBinAddr: 0x10004C550, symSize: 0x50 }
  - { offset: 0x84F9F, size: 0x8, addend: 0x0, symName: __RINvNtCsieiGu2EXtoJ_4core3ptr13drop_in_placeINtNtB4_6result6ResultjNtNtNtCsHUR1vrdMJt_3std2io5error5ErrorEECsSzEZQkfVAX_5cmake, symObjAddr: 0x1070, symBinAddr: 0x10004C5A0, symSize: 0x30 }
  - { offset: 0x84FCE, size: 0x8, addend: 0x0, symName: __RINvNtCsieiGu2EXtoJ_4core3ptr13drop_in_placeINtNtCslJiobkLta79_5alloc3vec3VecNtNtCsHUR1vrdMJt_3std4path7PathBufEECsSzEZQkfVAX_5cmake, symObjAddr: 0x10A0, symBinAddr: 0x10004C5D0, symSize: 0x50 }
  - { offset: 0x84FFD, size: 0x8, addend: 0x0, symName: __RINvNtCsieiGu2EXtoJ_4core3ptr13drop_in_placeINtNtCslJiobkLta79_5alloc7raw_vec6RawVecNtNtCsHUR1vrdMJt_3std4path7PathBufEECsSzEZQkfVAX_5cmake, symObjAddr: 0x10F0, symBinAddr: 0x10004C620, symSize: 0x20 }
  - { offset: 0x8502C, size: 0x8, addend: 0x0, symName: __RINvNtCsieiGu2EXtoJ_4core3ptr13drop_in_placeINtNtNtB4_5array4iter8IntoItercKj3_EECsSzEZQkfVAX_5cmake, symObjAddr: 0x1110, symBinAddr: 0x10004C640, symSize: 0x50 }
  - { offset: 0x8505B, size: 0x8, addend: 0x0, symName: __RINvNtCsieiGu2EXtoJ_4core3ptr13drop_in_placeINtNtNtNtB4_4iter8adapters7flatten13FlattenCompatINtNtBL_3map3MapNtNtNtB4_3str4iter5CharsNCNvMCsSzEZQkfVAX_5cmakeNtB2c_6Config5builds5_0ENtNtB4_4char11ToUppercaseEEB2c_, symObjAddr: 0x1160, symBinAddr: 0x10004C690, symSize: 0x60 }
  - { offset: 0x8508A, size: 0x8, addend: 0x0, symName: __RINvNtCsieiGu2EXtoJ_4core3ptr13drop_in_placeINtNtNtNtB4_4iter8adapters7flatten7FlatMapNtNtNtB4_3str4iter5CharsNtNtB4_4char11ToUppercaseNCNvMCsSzEZQkfVAX_5cmakeNtB2e_6Config5builds5_0EEB2e_, symObjAddr: 0x11C0, symBinAddr: 0x10004C6F0, symSize: 0x20 }
  - { offset: 0x850B9, size: 0x8, addend: 0x0, symName: __RINvNtCsieiGu2EXtoJ_4core3ptr13drop_in_placeINtNtNtNtB4_5array4iter10iter_inner15PolymorphicIterAINtNtNtB4_3mem12maybe_uninit11MaybeUninitcEj3_EECsSzEZQkfVAX_5cmake, symObjAddr: 0x11E0, symBinAddr: 0x10004C710, symSize: 0x20 }
  - { offset: 0x850E8, size: 0x8, addend: 0x0, symName: __RINvNtCsieiGu2EXtoJ_4core3ptr13drop_in_placeINtNvXNvMNtCslJiobkLta79_5alloc5sliceSp9to_vec_inpNtBM_10ConvertVec6to_vec9DropGuardINtNtBR_4sync3ArcNtNtCsHUR1vrdMJt_3std4path4PathENtNtBR_5alloc6GlobalEECsSzEZQkfVAX_5cmake, symObjAddr: 0x1200, symBinAddr: 0x10004C730, symSize: 0x20 }
  - { offset: 0x85117, size: 0x8, addend: 0x0, symName: __RINvNtCsieiGu2EXtoJ_4core3ptr13drop_in_placeINtNvXNvMNtCslJiobkLta79_5alloc5sliceSp9to_vec_inpNtBM_10ConvertVec6to_vec9DropGuardINtNtBR_4sync3ArcNtNtNtCsHUR1vrdMJt_3std3ffi6os_str5OsStrENtNtBR_5alloc6GlobalEECsSzEZQkfVAX_5cmake, symObjAddr: 0x1220, symBinAddr: 0x10004C750, symSize: 0x20 }
  - { offset: 0x85146, size: 0x8, addend: 0x0, symName: __RINvNtCsieiGu2EXtoJ_4core3ptr13drop_in_placeINtNvXNvMNtCslJiobkLta79_5alloc5sliceSp9to_vec_inpNtBM_10ConvertVec6to_vec9DropGuardTINtNtBR_4sync3ArcNtNtNtCsHUR1vrdMJt_3std3ffi6os_str5OsStrEB23_ENtNtBR_5alloc6GlobalEECsSzEZQkfVAX_5cmake, symObjAddr: 0x1240, symBinAddr: 0x10004C770, symSize: 0x20 }
  - { offset: 0x85175, size: 0x8, addend: 0x0, symName: __RINvNtCsieiGu2EXtoJ_4core3ptr13drop_in_placeINtNvXNvMNtCslJiobkLta79_5alloc5sliceSp9to_vec_inpNtBM_10ConvertVec6to_vec9DropGuardTINtNtBR_4sync3ArceEINtNtB4_6option6OptionB23_EENtNtBR_5alloc6GlobalEECsSzEZQkfVAX_5cmake, symObjAddr: 0x1260, symBinAddr: 0x10004C790, symSize: 0x20 }
  - { offset: 0x851A4, size: 0x8, addend: 0x0, symName: __RINvNtCsieiGu2EXtoJ_4core3ptr13drop_in_placeNtNtB4_4char11ToUppercaseECsSzEZQkfVAX_5cmake, symObjAddr: 0x1280, symBinAddr: 0x10004C7B0, symSize: 0x20 }
  - { offset: 0x851D3, size: 0x8, addend: 0x0, symName: __RINvNtCsieiGu2EXtoJ_4core3ptr13drop_in_placeNtNtB4_4char15CaseMappingIterECsSzEZQkfVAX_5cmake, symObjAddr: 0x12A0, symBinAddr: 0x10004C7D0, symSize: 0x20 }
  - { offset: 0x85202, size: 0x8, addend: 0x0, symName: __RINvNtCsieiGu2EXtoJ_4core3ptr13drop_in_placeTNtNtCslJiobkLta79_5alloc6string6StringINtNtB4_6option6OptionNtNtNtCsHUR1vrdMJt_3std3ffi6os_str8OsStringEEECsSzEZQkfVAX_5cmake, symObjAddr: 0x12C0, symBinAddr: 0x10004C7F0, symSize: 0x60 }
  - { offset: 0x85425, size: 0x8, addend: 0x0, symName: __RNvNvNtCsieiGu2EXtoJ_4core3ptr19copy_nonoverlapping18precondition_checkCsSzEZQkfVAX_5cmake, symObjAddr: 0x2250, symBinAddr: 0x10004D780, symSize: 0x4B0 }
  - { offset: 0x8684F, size: 0x8, addend: 0x0, symName: __RNvXs3_NtCsieiGu2EXtoJ_4core6optionINtB5_6OptionIBy_INtNtCslJiobkLta79_5alloc4sync3ArceEEENtNtB7_5clone5Clone5cloneCsSzEZQkfVAX_5cmake, symObjAddr: 0x2D80, symBinAddr: 0x10004E2B0, symSize: 0x60 }
  - { offset: 0x868A4, size: 0x8, addend: 0x0, symName: __RNvXs3_NtCsieiGu2EXtoJ_4core6optionINtB5_6OptionINtNtCslJiobkLta79_5alloc4sync3ArcNtNtCsHUR1vrdMJt_3std4path4PathEENtNtB7_5clone5Clone5cloneCsSzEZQkfVAX_5cmake, symObjAddr: 0x2DE0, symBinAddr: 0x10004E310, symSize: 0x60 }
  - { offset: 0x868F9, size: 0x8, addend: 0x0, symName: __RNvXs3_NtCsieiGu2EXtoJ_4core6optionINtB5_6OptionINtNtCslJiobkLta79_5alloc4sync3ArceEENtNtB7_5clone5Clone5cloneCsSzEZQkfVAX_5cmake, symObjAddr: 0x2E40, symBinAddr: 0x10004E370, symSize: 0x60 }
  - { offset: 0x8694E, size: 0x8, addend: 0x0, symName: __RNvXs3_NtCsieiGu2EXtoJ_4core6optionINtB5_6OptionNtCseYC8vFNOjrM_2cc5BuildENtNtB7_5clone5Clone5cloneCsSzEZQkfVAX_5cmake, symObjAddr: 0x2EA0, symBinAddr: 0x10004E3D0, symSize: 0x90 }
  - { offset: 0x869A3, size: 0x8, addend: 0x0, symName: __RNvXs3_NtCsieiGu2EXtoJ_4core6optionINtB5_6OptionNtNtCslJiobkLta79_5alloc6string6StringENtNtB7_5clone5Clone5cloneCsSzEZQkfVAX_5cmake, symObjAddr: 0x2F30, symBinAddr: 0x10004E460, symSize: 0x90 }
  - { offset: 0x869F8, size: 0x8, addend: 0x0, symName: __RNvXs3_NtCsieiGu2EXtoJ_4core6optionINtB5_6OptionNtNtNtCsHUR1vrdMJt_3std3ffi6os_str8OsStringENtNtB7_5clone5Clone5cloneCsSzEZQkfVAX_5cmake, symObjAddr: 0x2FC0, symBinAddr: 0x10004E4F0, symSize: 0x90 }
  - { offset: 0x86A4D, size: 0x8, addend: 0x0, symName: __RNvXs3_NtCsieiGu2EXtoJ_4core6optionINtB5_6OptionbENtNtB7_5clone5Clone5cloneCsSzEZQkfVAX_5cmake, symObjAddr: 0x3050, symBinAddr: 0x10004E580, symSize: 0x40 }
  - { offset: 0x86AC6, size: 0x8, addend: 0x0, symName: __RNvXsC_NtCsieiGu2EXtoJ_4core6optionINtB5_6OptionNtNtCsHUR1vrdMJt_3std7process6OutputENtNtNtB7_3ops9try_trait3Try6branchCsSzEZQkfVAX_5cmake, symObjAddr: 0x31B0, symBinAddr: 0x10004E6E0, symSize: 0x80 }
  - { offset: 0x86B1C, size: 0x8, addend: 0x0, symName: __RNvXsC_NtCsieiGu2EXtoJ_4core6optionINtB5_6OptionmENtNtNtB7_3ops9try_trait3Try6branchCsSzEZQkfVAX_5cmake, symObjAddr: 0x3230, symBinAddr: 0x10004E760, symSize: 0x40 }
  - { offset: 0x86CF7, size: 0x8, addend: 0x0, symName: __RNvXsD_NtCsieiGu2EXtoJ_4core6optionINtB5_6OptionNtCsSzEZQkfVAX_5cmake7VersionEINtNtNtB7_3ops9try_trait12FromResidualIBy_NtNtB7_7convert10InfallibleEE13from_residualBM_, symObjAddr: 0x3270, symBinAddr: 0x10004E7A0, symSize: 0x10 }
  - { offset: 0x86DB7, size: 0x8, addend: 0x0, symName: __RNvXsI_NtCsieiGu2EXtoJ_4core6optionINtB5_6OptionNtNtNtCsHUR1vrdMJt_3std3ffi6os_str8OsStringENtNtB7_3fmt5Debug3fmtCsSzEZQkfVAX_5cmake, symObjAddr: 0x32B0, symBinAddr: 0x10004E7E0, symSize: 0x90 }
  - { offset: 0x8717E, size: 0x8, addend: 0x0, symName: __RNvXsd_NtCsieiGu2EXtoJ_4core6optionINtB5_6OptionlENtNtB7_3cmp9PartialEq2eqCsSzEZQkfVAX_5cmake, symObjAddr: 0x3710, symBinAddr: 0x10004EC40, symSize: 0x80 }
  - { offset: 0x87B8A, size: 0x8, addend: 0x0, symName: __RINvXsE_NtCsieiGu2EXtoJ_4core4charNtB6_11ToUppercaseNtNtNtNtB8_4iter6traits8iterator8Iterator4folduQNCINvNvBO_8for_each4callcNCINvXsb_NtCslJiobkLta79_5alloc6stringNtB28_6StringINtNtBS_7collect6ExtendcE6extendINtNtNtBU_8adapters7flatten7FlatMapNtNtNtB8_3str4iter5CharsBw_NCNvMCsSzEZQkfVAX_5cmakeNtB4p_6Config5builds5_0EE0E0EB4p_, symObjAddr: 0x1400, symBinAddr: 0x10004C930, symSize: 0x40 }
  - { offset: 0x87C13, size: 0x8, addend: 0x0, symName: __RNvXsE_NtCsieiGu2EXtoJ_4core4charNtB5_11ToUppercaseNtNtNtNtB7_4iter6traits8iterator8Iterator9size_hintCsSzEZQkfVAX_5cmake, symObjAddr: 0x3280, symBinAddr: 0x10004E7B0, symSize: 0x30 }
  - { offset: 0x87CB6, size: 0x8, addend: 0x0, symName: __RNvMNtNtCsieiGu2EXtoJ_4core4char7methodsc12to_uppercaseCsSzEZQkfVAX_5cmake, symObjAddr: 0x1B50, symBinAddr: 0x10004D080, symSize: 0x60 }
  - { offset: 0x87D62, size: 0x8, addend: 0x0, symName: __RNvNtNtCsieiGu2EXtoJ_4core4char7methods15encode_utf8_rawCsSzEZQkfVAX_5cmake, symObjAddr: 0x2030, symBinAddr: 0x10004D560, symSize: 0xE0 }
  - { offset: 0x87E62, size: 0x8, addend: 0x0, symName: __RNvNtNtCsieiGu2EXtoJ_4core4char7methods25encode_utf8_raw_uncheckedCsSzEZQkfVAX_5cmake, symObjAddr: 0x2110, symBinAddr: 0x10004D640, symSize: 0x140 }
  - { offset: 0x88042, size: 0x8, addend: 0x0, symName: __RNvNvNtNtCsieiGu2EXtoJ_4core4char7convert18from_u32_unchecked18precondition_checkCsSzEZQkfVAX_5cmake, symObjAddr: 0x27A0, symBinAddr: 0x10004DCD0, symSize: 0xF0 }
  - { offset: 0x8817A, size: 0x8, addend: 0x0, symName: __RNCINvMs6_NtNtNtCsieiGu2EXtoJ_4core5array4iter10iter_innerINtB8_15PolymorphicIterSINtNtNtBe_3mem12maybe_uninit11MaybeUninitcEE8try_folduNCINvMNtNtBe_3ops9try_traitINtB2g_17NeverShortCircuituE10wrap_mut_2ucQNCINvNvNtNtNtNtBe_4iter6traits8iterator8Iterator8for_each4callcNCINvXsb_NtCslJiobkLta79_5alloc6stringNtB4s_6StringINtNtB3t_7collect6ExtendcE6extendINtNtNtB3v_8adapters7flatten7FlatMapNtNtNtBe_3str4iter5CharsNtNtBe_4char11ToUppercaseNCNvMCsSzEZQkfVAX_5cmakeNtB77_6Config5builds5_0EE0E0E0B2B_E0B77_, symObjAddr: 0x16B0, symBinAddr: 0x10004CBE0, symSize: 0x80 }
  - { offset: 0x883AA, size: 0x8, addend: 0x0, symName: __RNvXNtNtNtCsieiGu2EXtoJ_4core5array4iter10iter_innerSINtNtNtB8_3mem12maybe_uninit11MaybeUninitcENtB2_11PartialDrop12partial_dropCsSzEZQkfVAX_5cmake, symObjAddr: 0x2970, symBinAddr: 0x10004DEA0, symSize: 0xB0 }
  - { offset: 0x884C0, size: 0x8, addend: 0x0, symName: __RNvXs1_NtNtNtCsieiGu2EXtoJ_4core5array4iter10iter_innerINtB5_15PolymorphicIterAINtNtNtBb_3mem12maybe_uninit11MaybeUninitcEj3_ENtNtNtBb_3ops4drop4Drop4dropCsSzEZQkfVAX_5cmake, symObjAddr: 0x2AE0, symBinAddr: 0x10004E010, symSize: 0x30 }
  - { offset: 0x88514, size: 0x8, addend: 0x0, symName: __RNvXs_NtNtNtCsieiGu2EXtoJ_4core5array4iter10iter_innerAINtNtNtBa_3mem12maybe_uninit11MaybeUninitcEj3_NtB4_11PartialDrop12partial_dropCsSzEZQkfVAX_5cmake, symObjAddr: 0x36C0, symBinAddr: 0x10004EBF0, symSize: 0x40 }
  - { offset: 0x886C7, size: 0x8, addend: 0x0, symName: __RNSNvYNCINvMs6_NtCsjK30CmJ87bX_9hashbrown3rawINtBd_8RawTableTNtNtCslJiobkLta79_5alloc6string6StringINtNtCsieiGu2EXtoJ_4core6option6OptionNtNtNtCsHUR1vrdMJt_3std3ffi6os_str8OsStringEEE14reserve_rehashNCINvNtBf_3map11make_hasherBX_B1z_NtNtNtB2h_4hash6random11RandomStateE0E0INtNtNtB1E_3ops8function6FnOnceTQNtBd_13RawTableInnerjEE9call_once6vtableCsSzEZQkfVAX_5cmake, symObjAddr: 0x17E0, symBinAddr: 0x10004CD10, symSize: 0x30 }
  - { offset: 0x8870B, size: 0x8, addend: 0x0, symName: __RNSNvYNCINvMs6_NtCsjK30CmJ87bX_9hashbrown3rawINtBd_8RawTableTNtNtCslJiobkLta79_5alloc6string6StringINtNtCsieiGu2EXtoJ_4core6option6OptionNtNtNtCsHUR1vrdMJt_3std3ffi6os_str8OsStringEEE24find_or_find_insert_slotNCINvNtBf_3map14equivalent_keyBX_BX_B1z_E0NCINvB3q_11make_hasherBX_B1z_NtNtNtB2h_4hash6random11RandomStateE0E0INtNtNtB1E_3ops8function6FnOnceTjEE9call_once6vtableCsSzEZQkfVAX_5cmake, symObjAddr: 0x1810, symBinAddr: 0x10004CD40, symSize: 0x30 }
  - { offset: 0x8874F, size: 0x8, addend: 0x0, symName: __RNSNvYNCINvMs6_NtCsjK30CmJ87bX_9hashbrown3rawINtBd_8RawTableTNtNtCslJiobkLta79_5alloc6string6StringINtNtCsieiGu2EXtoJ_4core6option6OptionNtNtNtCsHUR1vrdMJt_3std3ffi6os_str8OsStringEEE4findNCINvNtBf_3map14equivalent_keyeBX_B1z_E0E0INtNtNtB1E_3ops8function6FnOnceTjEE9call_once6vtableCsSzEZQkfVAX_5cmake, symObjAddr: 0x1840, symBinAddr: 0x10004CD70, symSize: 0x30 }
  - { offset: 0x88793, size: 0x8, addend: 0x0, symName: __RNvYNCINvMs6_NtCsjK30CmJ87bX_9hashbrown3rawINtBb_8RawTableTNtNtCslJiobkLta79_5alloc6string6StringINtNtCsieiGu2EXtoJ_4core6option6OptionNtNtNtCsHUR1vrdMJt_3std3ffi6os_str8OsStringEEE14reserve_rehashNCINvNtBd_3map11make_hasherBV_B1x_NtNtNtB2f_4hash6random11RandomStateE0E0INtNtNtB1C_3ops8function6FnOnceTQNtBb_13RawTableInnerjEE9call_onceCsSzEZQkfVAX_5cmake, symObjAddr: 0x4140, symBinAddr: 0x10004F670, symSize: 0x50 }
  - { offset: 0x887D7, size: 0x8, addend: 0x0, symName: __RNvYNCINvMs6_NtCsjK30CmJ87bX_9hashbrown3rawINtBb_8RawTableTNtNtCslJiobkLta79_5alloc6string6StringINtNtCsieiGu2EXtoJ_4core6option6OptionNtNtNtCsHUR1vrdMJt_3std3ffi6os_str8OsStringEEE14reserve_rehashNCINvNtBd_3map11make_hasherBV_B1x_NtNtNtB2f_4hash6random11RandomStateE0Es_0INtNtNtB1C_3ops8function6FnOnceTOhEE9call_onceCsSzEZQkfVAX_5cmake, symObjAddr: 0x4190, symBinAddr: 0x10004F6C0, symSize: 0x40 }
  - { offset: 0x88817, size: 0x8, addend: 0x0, symName: __RNvYNCINvMs6_NtCsjK30CmJ87bX_9hashbrown3rawINtBb_8RawTableTNtNtCslJiobkLta79_5alloc6string6StringINtNtCsieiGu2EXtoJ_4core6option6OptionNtNtNtCsHUR1vrdMJt_3std3ffi6os_str8OsStringEEE24find_or_find_insert_slotNCINvNtBd_3map14equivalent_keyBV_BV_B1x_E0NCINvB3o_11make_hasherBV_B1x_NtNtNtB2f_4hash6random11RandomStateE0E0INtNtNtB1C_3ops8function6FnOnceTjEE9call_onceCsSzEZQkfVAX_5cmake, symObjAddr: 0x41D0, symBinAddr: 0x10004F700, symSize: 0x50 }
  - { offset: 0x8885B, size: 0x8, addend: 0x0, symName: __RNvYNCINvMs6_NtCsjK30CmJ87bX_9hashbrown3rawINtBb_8RawTableTNtNtCslJiobkLta79_5alloc6string6StringINtNtCsieiGu2EXtoJ_4core6option6OptionNtNtNtCsHUR1vrdMJt_3std3ffi6os_str8OsStringEEE4findNCINvNtBd_3map14equivalent_keyeBV_B1x_E0E0INtNtNtB1C_3ops8function6FnOnceTjEE9call_onceCsSzEZQkfVAX_5cmake, symObjAddr: 0x4220, symBinAddr: 0x10004F750, symSize: 0x50 }
  - { offset: 0x8889F, size: 0x8, addend: 0x0, symName: __RNvYNvYINtNtNtCsieiGu2EXtoJ_4core5slice4iter4IterTNtNtNtCsHUR1vrdMJt_3std3ffi6os_str8OsStringBM_EENtNtNtNtBc_4iter6traits8iterator8Iterator4nextINtNtNtBc_3ops8function6FnOnceTQB5_EE9call_onceCsSzEZQkfVAX_5cmake, symObjAddr: 0x4290, symBinAddr: 0x10004F7C0, symSize: 0x20 }
  - { offset: 0x888E3, size: 0x8, addend: 0x0, symName: __RNvYNvYNtNtCsieiGu2EXtoJ_4core4char11ToUppercaseNtNtNtNtB9_4iter6traits8iterator8Iterator9size_hintINtNtNtB9_3ops8function6FnOnceTRB5_EE9call_onceCsSzEZQkfVAX_5cmake, symObjAddr: 0x42B0, symBinAddr: 0x10004F7E0, symSize: 0x30 }
  - { offset: 0x88DCA, size: 0x8, addend: 0x0, symName: __RNvXsc_NtNtCsieiGu2EXtoJ_4core3ops3bitRbNtB5_3Not3notCsSzEZQkfVAX_5cmake, symObjAddr: 0x3700, symBinAddr: 0x10004EC30, symSize: 0x10 }
  - { offset: 0x88EDF, size: 0x8, addend: 0x0, symName: __RNCINvNvMsg_NtNtNtCsieiGu2EXtoJ_4core4iter8adapters7flattenINtBa_13FlattenCompatppE9iter_fold7flattenNtNtBg_4char11ToUppercaseuNCINvNvXsi_Ba_BV_NtNtNtBe_6traits8iterator8Iterator4fold7flattenB1B_uNCINvNvB2i_8for_each4callcNCINvXsb_NtCslJiobkLta79_5alloc6stringNtB3H_6StringINtNtB2m_7collect6ExtendcE6extendINtBa_7FlatMapNtNtNtBg_3str4iter5CharsB1B_NCNvMCsSzEZQkfVAX_5cmakeNtB5F_6Config5builds5_0EE0E0E0E0B5F_, symObjAddr: 0x1730, symBinAddr: 0x10004CC60, symSize: 0x80 }
  - { offset: 0x88F6A, size: 0x8, addend: 0x0, symName: __RNCINvNvXsi_NtNtNtCsieiGu2EXtoJ_4core4iter8adapters7flattenINtBa_13FlattenCompatppENtNtNtBe_6traits8iterator8Iterator4fold7flattenNtNtBg_4char11ToUppercaseuNCINvNvB1j_8for_each4callcNCINvXsb_NtCslJiobkLta79_5alloc6stringNtB33_6StringINtNtB1n_7collect6ExtendcE6extendINtBa_7FlatMapNtNtNtBg_3str4iter5CharsB24_NCNvMCsSzEZQkfVAX_5cmakeNtB51_6Config5builds5_0EE0E0E0B51_, symObjAddr: 0x17B0, symBinAddr: 0x10004CCE0, symSize: 0x30 }
  - { offset: 0x88FD2, size: 0x8, addend: 0x0, symName: __RINvXsi_NtNtNtCsieiGu2EXtoJ_4core4iter8adapters7flattenINtB6_13FlattenCompatINtNtB8_3map3MapNtNtNtBc_3str4iter5CharsNCNvMCsSzEZQkfVAX_5cmakeNtB1V_6Config5builds5_0ENtNtBc_4char11ToUppercaseENtNtNtBa_6traits8iterator8Iterator4folduNCINvNvB32_8for_each4callcNCINvXsb_NtCslJiobkLta79_5alloc6stringNtB4f_6StringINtNtB36_7collect6ExtendcE6extendINtB6_7FlatMapB1s_B2C_B1Q_EE0E0EB1V_, symObjAddr: 0x1440, symBinAddr: 0x10004C970, symSize: 0x20 }
  - { offset: 0x8903F, size: 0x8, addend: 0x0, symName: __RNvXsi_NtNtNtCsieiGu2EXtoJ_4core4iter8adapters7flattenINtB5_13FlattenCompatINtNtB7_3map3MapNtNtNtBb_3str4iter5CharsNCNvMCsSzEZQkfVAX_5cmakeNtB1U_6Config5builds5_0ENtNtBb_4char11ToUppercaseENtNtNtB9_6traits8iterator8Iterator9size_hintB1U_, symObjAddr: 0x37B0, symBinAddr: 0x10004ECE0, symSize: 0x910 }
  - { offset: 0x8981D, size: 0x8, addend: 0x0, symName: __RINvXs1_NtNtNtCsieiGu2EXtoJ_4core4iter8adapters7flattenINtB6_7FlatMapNtNtNtBc_3str4iter5CharsNtNtBc_4char11ToUppercaseNCNvMCsSzEZQkfVAX_5cmakeNtB1X_6Config5builds5_0ENtNtNtBa_6traits8iterator8Iterator4folduNCINvNvB2E_8for_each4callcNCINvXsb_NtCslJiobkLta79_5alloc6stringNtB3R_6StringINtNtB2I_7collect6ExtendcE6extendBR_E0E0EB1X_, symObjAddr: 0x13C0, symBinAddr: 0x10004C8F0, symSize: 0x40 }
  - { offset: 0x8988F, size: 0x8, addend: 0x0, symName: __RNvXs1_NtNtNtCsieiGu2EXtoJ_4core4iter8adapters7flattenINtB5_7FlatMapNtNtNtBb_3str4iter5CharsNtNtBb_4char11ToUppercaseNCNvMCsSzEZQkfVAX_5cmakeNtB1W_6Config5builds5_0ENtNtNtB9_6traits8iterator8Iterator9size_hintB1W_, symObjAddr: 0x2AB0, symBinAddr: 0x10004DFE0, symSize: 0x30 }
  - { offset: 0x898DC, size: 0x8, addend: 0x0, symName: __RNvXsn_NtNtNtCsieiGu2EXtoJ_4core4iter8adapters7flattenNtNtBb_4char11ToUppercaseNtB5_21ConstSizeIntoIterator4sizeCsSzEZQkfVAX_5cmake, symObjAddr: 0x40C0, symBinAddr: 0x10004F5F0, symSize: 0x20 }
  - { offset: 0x89B8D, size: 0x8, addend: 0x0, symName: __RNvXs_NtNtNtCsieiGu2EXtoJ_4core4iter8adapters9enumerateINtB4_9EnumerateINtNtNtBa_5slice4iter4IterINtNtCslJiobkLta79_5alloc4sync3ArcNtNtCsHUR1vrdMJt_3std4path4PathEEENtNtNtB8_6traits8iterator8Iterator4nextCsSzEZQkfVAX_5cmake, symObjAddr: 0x3340, symBinAddr: 0x10004E870, symSize: 0xE0 }
  - { offset: 0x89C73, size: 0x8, addend: 0x0, symName: __RNvXs_NtNtNtCsieiGu2EXtoJ_4core4iter8adapters9enumerateINtB4_9EnumerateINtNtNtBa_5slice4iter4IterNtNtCsHUR1vrdMJt_3std4path7PathBufEENtNtNtB8_6traits8iterator8Iterator4nextCsSzEZQkfVAX_5cmake, symObjAddr: 0x3420, symBinAddr: 0x10004E950, symSize: 0xE0 }
  - { offset: 0x89D59, size: 0x8, addend: 0x0, symName: __RNvXs_NtNtNtCsieiGu2EXtoJ_4core4iter8adapters9enumerateINtB4_9EnumerateINtNtNtBa_5slice4iter4IterTINtNtCslJiobkLta79_5alloc4sync3ArcNtNtNtCsHUR1vrdMJt_3std3ffi6os_str5OsStrEB1y_EEENtNtNtB8_6traits8iterator8Iterator4nextCsSzEZQkfVAX_5cmake, symObjAddr: 0x3500, symBinAddr: 0x10004EA30, symSize: 0xE0 }
  - { offset: 0x89E3F, size: 0x8, addend: 0x0, symName: __RNvXs_NtNtNtCsieiGu2EXtoJ_4core4iter8adapters9enumerateINtB4_9EnumerateINtNtNtBa_5slice4iter4IterTINtNtCslJiobkLta79_5alloc4sync3ArceEINtNtBa_6option6OptionB1y_EEEENtNtNtB8_6traits8iterator8Iterator4nextCsSzEZQkfVAX_5cmake, symObjAddr: 0x35E0, symBinAddr: 0x10004EB10, symSize: 0xE0 }
  - { offset: 0x89FFE, size: 0x8, addend: 0x0, symName: __RINvYINtNtNtNtCsieiGu2EXtoJ_4core4iter8adapters7flatten7FlatMapNtNtNtBc_3str4iter5CharsNtNtBc_4char11ToUppercaseNCNvMCsSzEZQkfVAX_5cmakeNtB1R_6Config5builds5_0ENtNtNtBa_6traits8iterator8Iterator7collectNtNtCslJiobkLta79_5alloc6string6StringEB1R_, symObjAddr: 0x1460, symBinAddr: 0x10004C990, symSize: 0x70 }
  - { offset: 0x8A094, size: 0x8, addend: 0x0, symName: __RINvYINtNtNtNtCsieiGu2EXtoJ_4core4iter8adapters7flatten7FlatMapNtNtNtBc_3str4iter5CharsNtNtBc_4char11ToUppercaseNCNvMCsSzEZQkfVAX_5cmakeNtB1R_6Config5builds5_0ENtNtNtBa_6traits8iterator8Iterator8for_eachNCINvXsb_NtCslJiobkLta79_5alloc6stringNtB3o_6StringINtNtB2C_7collect6ExtendcE6extendB3_E0EB1R_, symObjAddr: 0x14D0, symBinAddr: 0x10004CA00, symSize: 0x20 }
  - { offset: 0x8A0E0, size: 0x8, addend: 0x0, symName: __RINvYNtNtCsHUR1vrdMJt_3std3env10SplitPathsNtNtNtNtCsieiGu2EXtoJ_4core4iter6traits8iterator8Iterator3mapNtNtB7_4path7PathBufNCNvCsSzEZQkfVAX_5cmake8find_exe0EB21_, symObjAddr: 0x14F0, symBinAddr: 0x10004CA20, symSize: 0x30 }
  - { offset: 0x8A14D, size: 0x8, addend: 0x0, symName: __RINvYNtNtCsHUR1vrdMJt_3std3env10SplitPathsNtNtNtNtCsieiGu2EXtoJ_4core4iter6traits8iterator8Iterator8try_folduNCINvNtNtBK_8adapters3map12map_try_foldNtNtB7_4path7PathBufB2m_uINtNtNtBM_3ops12control_flow11ControlFlowB2m_ENCNvCsSzEZQkfVAX_5cmake8find_exe0NCINvNvBE_4find5checkB2m_NCB3x_s_0E0E0B2L_EB3z_, symObjAddr: 0x1520, symBinAddr: 0x10004CA50, symSize: 0x190 }
  - { offset: 0x8A2AB, size: 0x8, addend: 0x0, symName: __RNvXNtNtNtCsieiGu2EXtoJ_4core4iter6traits7collectINtNtNtB6_8adapters7flatten7FlatMapNtNtNtB8_3str4iter5CharsNtNtB8_4char11ToUppercaseNCNvMCsSzEZQkfVAX_5cmakeNtB2c_6Config5builds5_0ENtB2_12IntoIterator9into_iterB2c_, symObjAddr: 0x28F0, symBinAddr: 0x10004DE20, symSize: 0x30 }
  - { offset: 0x8A2E3, size: 0x8, addend: 0x0, symName: __RNvXNtNtNtCsieiGu2EXtoJ_4core4iter6traits7collectNtNtB8_4char11ToUppercaseNtB2_12IntoIterator9into_iterCsSzEZQkfVAX_5cmake, symObjAddr: 0x2920, symBinAddr: 0x10004DE50, symSize: 0x30 }
  - { offset: 0x8A31A, size: 0x8, addend: 0x0, symName: __RNvXNtNtNtCsieiGu2EXtoJ_4core4iter6traits7collectNtNtCsHUR1vrdMJt_3std3env10SplitPathsNtB2_12IntoIterator9into_iterCsSzEZQkfVAX_5cmake, symObjAddr: 0x2950, symBinAddr: 0x10004DE80, symSize: 0x20 }
  - { offset: 0x8A753, size: 0x8, addend: 0x0, symName: __RNvXs3_NtNtCsieiGu2EXtoJ_4core5slice3cmpShINtB5_14SlicePartialEqhE5equalCsSzEZQkfVAX_5cmake, symObjAddr: 0x3090, symBinAddr: 0x10004E5C0, symSize: 0x70 }
  - { offset: 0x8A882, size: 0x8, addend: 0x0, symName: __RNvMNtCsieiGu2EXtoJ_4core3stre5charsCsSzEZQkfVAX_5cmake, symObjAddr: 0x1870, symBinAddr: 0x10004CDA0, symSize: 0x20 }
  - { offset: 0x8A924, size: 0x8, addend: 0x0, symName: __RNvMNtCsieiGu2EXtoJ_4core3stre5linesCsSzEZQkfVAX_5cmake, symObjAddr: 0x1890, symBinAddr: 0x10004CDC0, symSize: 0xE0 }
  - { offset: 0x8AA7E, size: 0x8, addend: 0x0, symName: __RNvXs3_NtCsieiGu2EXtoJ_4core3strNtB5_8LinesMapINtNtNtB7_3ops8function2FnTReEE4callCsSzEZQkfVAX_5cmake, symObjAddr: 0x2B50, symBinAddr: 0x10004E080, symSize: 0x230 }
  - { offset: 0x8ABA7, size: 0x8, addend: 0x0, symName: __RNvXs4_NtCsieiGu2EXtoJ_4core3strNtB5_8LinesMapINtNtNtB7_3ops8function5FnMutTReEE8call_mutCsSzEZQkfVAX_5cmake, symObjAddr: 0x3170, symBinAddr: 0x10004E6A0, symSize: 0x40 }
  - { offset: 0x8AE10, size: 0x8, addend: 0x0, symName: __RINvNtCsieiGu2EXtoJ_4core9panicking13panic_displayNtNtCslJiobkLta79_5alloc6string6StringECsSzEZQkfVAX_5cmake, symObjAddr: 0x1320, symBinAddr: 0x10004C850, symSize: 0xA0 }
  - { offset: 0x8AF8F, size: 0x8, addend: 0x0, symName: __RNvNvNtCsieiGu2EXtoJ_4core4hint16assert_unchecked18precondition_checkCsSzEZQkfVAX_5cmake, symObjAddr: 0x2700, symBinAddr: 0x10004DC30, symSize: 0xA0 }
  - { offset: 0x8B03D, size: 0x8, addend: 0x0, symName: __RNvYNtNtNtCsHUR1vrdMJt_3std2io5error9ErrorKindNtNtCsieiGu2EXtoJ_4core3cmp9PartialEq2neCsSzEZQkfVAX_5cmake, symObjAddr: 0x4270, symBinAddr: 0x10004F7A0, symSize: 0x20 }
  - { offset: 0x8B0C2, size: 0x8, addend: 0x0, symName: __RNvYTINtNtCslJiobkLta79_5alloc4sync3ArcNtNtNtCsHUR1vrdMJt_3std3ffi6os_str5OsStrEB3_ENtNtCsieiGu2EXtoJ_4core5clone5Clone5cloneCsSzEZQkfVAX_5cmake, symObjAddr: 0x42E0, symBinAddr: 0x10004F810, symSize: 0xA0 }
  - { offset: 0x8B0F3, size: 0x8, addend: 0x0, symName: __RNvYTINtNtCslJiobkLta79_5alloc4sync3ArceEINtNtCsieiGu2EXtoJ_4core6option6OptionB3_EENtNtBI_5clone5Clone5cloneCsSzEZQkfVAX_5cmake, symObjAddr: 0x4380, symBinAddr: 0x10004F8B0, symSize: 0xA0 }
  - { offset: 0x8B1DA, size: 0x8, addend: 0x0, symName: __RNvXs0_NtCseYC8vFNOjrM_2cc15command_helpersNtB5_11CargoOutputNtNtCsieiGu2EXtoJ_4core5clone5Clone5cloneCsSzEZQkfVAX_5cmake, symObjAddr: 0x2A20, symBinAddr: 0x10004DF50, symSize: 0x90 }
  - { offset: 0x8B20C, size: 0x8, addend: 0x0, symName: __RNvXs2_NtCseYC8vFNOjrM_2cc15command_helpersNtB5_10OutputKindNtNtCsieiGu2EXtoJ_4core5clone5Clone5cloneCsSzEZQkfVAX_5cmake, symObjAddr: 0x2B10, symBinAddr: 0x10004E040, symSize: 0x40 }
  - { offset: 0x8B9D6, size: 0x8, addend: 0x0, symName: __RINvMNtCsieiGu2EXtoJ_4core6optionINtB3_6OptionNtNtCsHUR1vrdMJt_3std4path7PathBufE14unwrap_or_elseNCNvCsSzEZQkfVAX_5cmake8find_exes0_0EB1B_, symObjAddr: 0x0, symBinAddr: 0x10004B530, symSize: 0xA0 }
  - { offset: 0x8BA39, size: 0x8, addend: 0x0, symName: __RINvMNtCsieiGu2EXtoJ_4core6optionINtB3_6OptionNtNtCsHUR1vrdMJt_3std4path7PathBufE14unwrap_or_elseNCNvMCsSzEZQkfVAX_5cmakeNtB1C_6Config5builds0_0EB1C_, symObjAddr: 0xA0, symBinAddr: 0x10004B5D0, symSize: 0x80 }
  - { offset: 0x8BAB0, size: 0x8, addend: 0x0, symName: __RINvMNtCsieiGu2EXtoJ_4core6optionINtB3_6OptionNtNtCsHUR1vrdMJt_3std4path7PathBufE3mapbNCNvMCsSzEZQkfVAX_5cmakeNtB1r_6Config11maybe_clears_0EB1r_, symObjAddr: 0x120, symBinAddr: 0x10004B650, symSize: 0x90 }
  - { offset: 0x8BB1C, size: 0x8, addend: 0x0, symName: __RINvMNtCsieiGu2EXtoJ_4core6optionINtB3_6OptionNtNtCslJiobkLta79_5alloc6string6StringE14unwrap_or_elseNCNvMCsSzEZQkfVAX_5cmakeNtB1G_6Config16getenv_target_os0EB1G_, symObjAddr: 0x1B0, symBinAddr: 0x10004B6E0, symSize: 0x80 }
  - { offset: 0x8BB7F, size: 0x8, addend: 0x0, symName: __RINvMNtCsieiGu2EXtoJ_4core6optionINtB3_6OptionNtNtCslJiobkLta79_5alloc6string6StringE14unwrap_or_elseNCNvMCsSzEZQkfVAX_5cmakeNtB1G_6Config16getenv_target_oss_0EB1G_, symObjAddr: 0x230, symBinAddr: 0x10004B760, symSize: 0x80 }
  - { offset: 0x8BBE2, size: 0x8, addend: 0x0, symName: __RINvMNtCsieiGu2EXtoJ_4core6optionINtB3_6OptionNtNtCslJiobkLta79_5alloc6string6StringE14unwrap_or_elseNCNvMCsSzEZQkfVAX_5cmakeNtB1G_6Config5build0EB1G_, symObjAddr: 0x2B0, symBinAddr: 0x10004B7E0, symSize: 0x80 }
  - { offset: 0x8BC45, size: 0x8, addend: 0x0, symName: __RINvMNtCsieiGu2EXtoJ_4core6optionINtB3_6OptionNtNtCslJiobkLta79_5alloc6string6StringE14unwrap_or_elseNCNvMCsSzEZQkfVAX_5cmakeNtB1G_6Config5builds8_0EB1G_, symObjAddr: 0x330, symBinAddr: 0x10004B860, symSize: 0x80 }
  - { offset: 0x8BD18, size: 0x8, addend: 0x0, symName: __RINvMNtCsieiGu2EXtoJ_4core6optionINtB3_6OptionNtNtNtCsHUR1vrdMJt_3std2io5error5ErrorE3mapbNCNvMCsSzEZQkfVAX_5cmakeNtB1v_6Config5builds1_0EB1v_, symObjAddr: 0x3B0, symBinAddr: 0x10004B8E0, symSize: 0x50 }
  - { offset: 0x8BD83, size: 0x8, addend: 0x0, symName: __RINvMNtCsieiGu2EXtoJ_4core6optionINtB3_6OptionNtNtNtCsHUR1vrdMJt_3std2io5error5ErrorE3mapbNCNvMCsSzEZQkfVAX_5cmakeNtB1v_6Config5builds2_0EB1v_, symObjAddr: 0x400, symBinAddr: 0x10004B930, symSize: 0x50 }
  - { offset: 0x8BDEE, size: 0x8, addend: 0x0, symName: __RINvMNtCsieiGu2EXtoJ_4core6optionINtB3_6OptionNtNtNtCsHUR1vrdMJt_3std3ffi6os_str8OsStringE14unwrap_or_elseNCNvMCsSzEZQkfVAX_5cmakeNtB1L_6Config16cmake_executables_0EB1L_, symObjAddr: 0x450, symBinAddr: 0x10004B980, symSize: 0x80 }
  - { offset: 0x8BE51, size: 0x8, addend: 0x0, symName: __RINvMNtCsieiGu2EXtoJ_4core6optionINtB3_6OptionNtNtNtCsHUR1vrdMJt_3std3ffi6os_str8OsStringE14unwrap_or_elseNCNvMCsSzEZQkfVAX_5cmakeNtB1L_6Config19cmake_build_command0EB1L_, symObjAddr: 0x4D0, symBinAddr: 0x10004BA00, symSize: 0x80 }
  - { offset: 0x8BEB4, size: 0x8, addend: 0x0, symName: __RINvMNtCsieiGu2EXtoJ_4core6optionINtB3_6OptionNtNtNtCsHUR1vrdMJt_3std3ffi6os_str8OsStringE14unwrap_or_elseNCNvMCsSzEZQkfVAX_5cmakeNtB1L_6Config23cmake_configure_command0EB1L_, symObjAddr: 0x550, symBinAddr: 0x10004BA80, symSize: 0x80 }
  - { offset: 0x8BF17, size: 0x8, addend: 0x0, symName: __RINvMNtCsieiGu2EXtoJ_4core6optionINtB3_6OptionNtNtNtCsHUR1vrdMJt_3std3ffi6os_str8OsStringE7or_elseNCNvMCsSzEZQkfVAX_5cmakeNtB1D_6Config16cmake_executable0EB1D_, symObjAddr: 0x5D0, symBinAddr: 0x10004BB00, symSize: 0xF0 }
  - { offset: 0x8C4D7, size: 0x8, addend: 0x0, symName: __RNvXCsjK30CmJ87bX_9hashbrowneINtB2_10EquivalentNtNtCslJiobkLta79_5alloc6string6StringE10equivalentCsSzEZQkfVAX_5cmake, symObjAddr: 0x2890, symBinAddr: 0x10004DDC0, symSize: 0x60 }
  - { offset: 0x8C69E, size: 0x8, addend: 0x0, symName: __RINvMNtCsieiGu2EXtoJ_4core6optionINtB3_6OptionNtNtNtCsHUR1vrdMJt_3std3ffi6os_str8OsStringE7or_elseNCNvMCsSzEZQkfVAX_5cmakeNtB1D_6Config16getenv_target_oss0_0EB1D_, symObjAddr: 0x6C0, symBinAddr: 0x10004BBF0, symSize: 0xF0 }
  - { offset: 0x8C703, size: 0x8, addend: 0x0, symName: __RINvMNtCsieiGu2EXtoJ_4core6optionINtB3_6OptionNtNtNtCsHUR1vrdMJt_3std3ffi6os_str8OsStringE7or_elseNCNvMCsSzEZQkfVAX_5cmakeNtB1D_6Config16getenv_target_oss1_0EB1D_, symObjAddr: 0x7B0, symBinAddr: 0x10004BCE0, symSize: 0xF0 }
  - { offset: 0x8C768, size: 0x8, addend: 0x0, symName: __RINvMNtCsieiGu2EXtoJ_4core6optionINtB3_6OptionNtNtNtCsHUR1vrdMJt_3std3ffi6os_str8OsStringE7or_elseNCNvMCsSzEZQkfVAX_5cmakeNtB1D_6Config16getenv_target_oss2_0EB1D_, symObjAddr: 0x8A0, symBinAddr: 0x10004BDD0, symSize: 0xF0 }
  - { offset: 0x8C7CD, size: 0x8, addend: 0x0, symName: __RINvMNtCsieiGu2EXtoJ_4core6optionINtB3_6OptionNtNtNtCsHUR1vrdMJt_3std3ffi6os_str8OsStringE7or_elseNCNvMCsSzEZQkfVAX_5cmakeNtB1D_6Config5builds_0EB1D_, symObjAddr: 0x990, symBinAddr: 0x10004BEC0, symSize: 0xE0 }
  - { offset: 0x8C887, size: 0x8, addend: 0x0, symName: __RINvMNtCsieiGu2EXtoJ_4core6optionINtB3_6OptionRNtNtB5_4char11ToUppercaseE6map_orTjIBw_jEENvYBJ_NtNtNtNtB5_4iter6traits8iterator8Iterator9size_hintECsSzEZQkfVAX_5cmake, symObjAddr: 0xA70, symBinAddr: 0x10004BFA0, symSize: 0xA0 }
  - { offset: 0x8C90F, size: 0x8, addend: 0x0, symName: __RINvMNtCsieiGu2EXtoJ_4core6optionINtB3_6OptionRTNtNtNtCsHUR1vrdMJt_3std3ffi6os_str8OsStringBK_EE3mapReNCNvMCsSzEZQkfVAX_5cmakeNtB1H_6Config5builds4_0EB1H_, symObjAddr: 0xB10, symBinAddr: 0x10004C040, symSize: 0x60 }
  - { offset: 0x8C994, size: 0x8, addend: 0x0, symName: __RINvMNtCsieiGu2EXtoJ_4core6optionINtB3_6OptionRTNtNtNtCsHUR1vrdMJt_3std3ffi6os_str8OsStringBK_EE7or_elseNCNvXs_NtNtNtB5_4iter8adapters5chainINtB1L_5ChainINtNtNtB5_5slice4iter4IterBJ_EB2r_ENtNtNtB1P_6traits8iterator8Iterator4next0ECsSzEZQkfVAX_5cmake, symObjAddr: 0xB70, symBinAddr: 0x10004C0A0, symSize: 0x90 }
  - { offset: 0x8CA1D, size: 0x8, addend: 0x0, symName: __RINvMsg_NtNtNtCsieiGu2EXtoJ_4core4iter8adapters7flattenINtB6_13FlattenCompatINtNtB8_3map3MapNtNtNtBc_3str4iter5CharsNCNvMCsSzEZQkfVAX_5cmakeNtB1V_6Config5builds5_0ENtNtBc_4char11ToUppercaseE9iter_folduNCINvNvXsi_B6_IBS_ppENtNtNtBa_6traits8iterator8Iterator4fold7flattenB2C_uNCINvNvB3y_8for_each4callcNCINvXsb_NtCslJiobkLta79_5alloc6stringNtB4X_6StringINtNtB3C_7collect6ExtendcE6extendINtB6_7FlatMapB1s_B2C_B1Q_EE0E0E0EB1V_, symObjAddr: 0xC00, symBinAddr: 0x10004C130, symSize: 0x200 }
  - { offset: 0x8CE4B, size: 0x8, addend: 0x0, symName: __RNvMNtCsieiGu2EXtoJ_4core6optionINtB2_6OptionNtCsSzEZQkfVAX_5cmake7VersionE17unwrap_or_defaultBJ_, symObjAddr: 0x1970, symBinAddr: 0x10004CEA0, symSize: 0x50 }
  - { offset: 0x8CE96, size: 0x8, addend: 0x0, symName: __RNvMNtCsieiGu2EXtoJ_4core6optionINtB2_6OptionNtCseYC8vFNOjrM_2cc5BuildE17unwrap_or_defaultCsSzEZQkfVAX_5cmake, symObjAddr: 0x19C0, symBinAddr: 0x10004CEF0, symSize: 0x90 }
  - { offset: 0x8CEEF, size: 0x8, addend: 0x0, symName: __RNvMNtCsieiGu2EXtoJ_4core6optionINtB2_6OptionNtNtCslJiobkLta79_5alloc6string6StringE6as_refCsSzEZQkfVAX_5cmake, symObjAddr: 0x1A50, symBinAddr: 0x10004CF80, symSize: 0x50 }
  - { offset: 0x8CF39, size: 0x8, addend: 0x0, symName: __RNvMNtCsieiGu2EXtoJ_4core6optionINtB2_6OptionNtNtNtCsHUR1vrdMJt_3std3ffi6os_str8OsStringE17unwrap_or_defaultCsSzEZQkfVAX_5cmake, symObjAddr: 0x1AA0, symBinAddr: 0x10004CFD0, symSize: 0x80 }
  - { offset: 0x8CFAD, size: 0x8, addend: 0x0, symName: __RNvMNtCsieiGu2EXtoJ_4core6optionINtB2_6OptionNtNtNtCsHUR1vrdMJt_3std3ffi6os_str8OsStringE7is_noneCsSzEZQkfVAX_5cmake, symObjAddr: 0x1B20, symBinAddr: 0x10004D050, symSize: 0x30 }
  - { offset: 0x8D00B, size: 0x8, addend: 0x0, symName: __RNvMNtNtNtCsjK30CmJ87bX_9hashbrown7control5group4sse2NtB2_5Group44convert_special_to_empty_and_full_to_deletedCsSzEZQkfVAX_5cmake, symObjAddr: 0x1BB0, symBinAddr: 0x10004D0E0, symSize: 0xD0 }
  - { offset: 0x8D0A4, size: 0x8, addend: 0x0, symName: __RNvMs5_NtNtCsHUR1vrdMJt_3std2io5errorNtB5_5Error4kindCsSzEZQkfVAX_5cmake, symObjAddr: 0x1C80, symBinAddr: 0x10004D1B0, symSize: 0x90 }
  - { offset: 0x8D27D, size: 0x8, addend: 0x0, symName: __RNvMs6_NtNtNtCsieiGu2EXtoJ_4core5array4iter10iter_innerINtB5_15PolymorphicIterSINtNtNtBb_3mem12maybe_uninit11MaybeUninitcEE9next_backCsSzEZQkfVAX_5cmake, symObjAddr: 0x1D10, symBinAddr: 0x10004D240, symSize: 0x1D0 }
  - { offset: 0x8D4EF, size: 0x8, addend: 0x0, symName: __RNvMsd_NtCsieiGu2EXtoJ_4core4charNtB5_15CaseMappingIter3newCsSzEZQkfVAX_5cmake, symObjAddr: 0x1EE0, symBinAddr: 0x10004D410, symSize: 0x150 }
  - { offset: 0x8DC07, size: 0x8, addend: 0x0, symName: __RINvMCseYC8vFNOjrM_2ccNtB3_5Error3newNtNtCslJiobkLta79_5alloc6string6StringEB3_, symObjAddr: 0x0, symBinAddr: 0x10004F950, symSize: 0x70 }
  - { offset: 0x900A4, size: 0x8, addend: 0x0, symName: __RNvXs_NtNtCsieiGu2EXtoJ_4core5slice4iterRSNtCseYC8vFNOjrM_2cc6ObjectNtNtNtNtB8_4iter6traits7collect12IntoIterator9into_iterBG_, symObjAddr: 0x220D0, symBinAddr: 0x100070400, symSize: 0x50 }
  - { offset: 0x90389, size: 0x8, addend: 0x0, symName: __RNvMNtCsieiGu2EXtoJ_4core5sliceSNtCseYC8vFNOjrM_2cc6Object4iterBw_, symObjAddr: 0x68E0, symBinAddr: 0x1000560A0, symSize: 0x20 }
  - { offset: 0x90581, size: 0x8, addend: 0x0, symName: __RINvXs3_NtNtCsieiGu2EXtoJ_4core4hash5implsRNtCseYC8vFNOjrM_2cc12CompilerFlagNtB8_4Hash4hashNtNtNtCsHUR1vrdMJt_3std4hash6random13DefaultHasherEBH_, symObjAddr: 0x8D0, symBinAddr: 0x100050220, symSize: 0x20 }
  - { offset: 0x9075B, size: 0x8, addend: 0x0, symName: __RNvXNtCsieiGu2EXtoJ_4core6borrowNtCseYC8vFNOjrM_2cc12CompilerFlagINtB2_6BorrowBu_E6borrowBw_, symObjAddr: 0x21E30, symBinAddr: 0x100070160, symSize: 0x10 }
  - { offset: 0x907A6, size: 0x8, addend: 0x0, symName: __RNvXs1_NtNtNtCsieiGu2EXtoJ_4core3ops8function5implsQNCNvMs4_CseYC8vFNOjrM_2ccNtBW_5Build25get_base_archiver_variants1_0INtB7_5FnMutTRReEE8call_mutBW_, symObjAddr: 0x21F50, symBinAddr: 0x100070280, symSize: 0x30 }
  - { offset: 0x907F5, size: 0x8, addend: 0x0, symName: __RNvXs1_NtNtNtCsieiGu2EXtoJ_4core3ops8function5implsQNCNvMs4_CseYC8vFNOjrM_2ccNtBW_5Build27getenv_with_target_prefixes0INtB7_5FnMutTRNtNtCslJiobkLta79_5alloc6string6StringEE8call_mutBW_, symObjAddr: 0x21F80, symBinAddr: 0x1000702B0, symSize: 0x30 }
  - { offset: 0x90BFD, size: 0x8, addend: 0x0, symName: __RNvCseYC8vFNOjrM_2cc32NEW_STANDALONE_ANDROID_COMPILERS, symObjAddr: 0x247C0, symBinAddr: 0x1001A9FE8, symSize: 0x0 }
  - { offset: 0x90D28, size: 0x8, addend: 0x0, symName: __RNCNvMs4_CseYC8vFNOjrM_2ccNtB7_5Build15compile_objects0B7_, symObjAddr: 0x13E0, symBinAddr: 0x100050BA0, symSize: 0x40 }
  - { offset: 0x90D88, size: 0x8, addend: 0x0, symName: __RNvXNvMs4_CseYC8vFNOjrM_2ccNtB8_5Build25find_msvc_tools_find_toolNtB2_14BuildEnvGetterNtNtCsj2uhnLB4L8S_15find_msvc_tools10find_tools9EnvGetter7get_env, symObjAddr: 0x21E40, symBinAddr: 0x100070170, symSize: 0x60 }
  - { offset: 0x90DD6, size: 0x8, addend: 0x0, symName: __RNCNCNCNvMs4_CseYC8vFNOjrM_2ccNtBb_5Build11try_compiles_000Bb_, symObjAddr: 0x930, symBinAddr: 0x100050280, symSize: 0x50 }
  - { offset: 0x90E16, size: 0x8, addend: 0x0, symName: __RNCNCNvMs4_CseYC8vFNOjrM_2ccNtB9_5Build11try_compiles_00B9_, symObjAddr: 0x9C0, symBinAddr: 0x100050310, symSize: 0xA0 }
  - { offset: 0x90E75, size: 0x8, addend: 0x0, symName: __RNCNvMs4_CseYC8vFNOjrM_2ccNtB7_5Build11try_compile0B7_, symObjAddr: 0x1330, symBinAddr: 0x100050AF0, symSize: 0x60 }
  - { offset: 0x90EC0, size: 0x8, addend: 0x0, symName: __RNCNvMs4_CseYC8vFNOjrM_2ccNtB7_5Build11try_compiles_0B7_, symObjAddr: 0x1390, symBinAddr: 0x100050B50, symSize: 0x50 }
  - { offset: 0x90F24, size: 0x8, addend: 0x0, symName: __RNCNCNvMs4_CseYC8vFNOjrM_2ccNtB9_5Build17prefix_for_targets_00B9_, symObjAddr: 0xA60, symBinAddr: 0x1000503B0, symSize: 0x120 }
  - { offset: 0x90F66, size: 0x8, addend: 0x0, symName: __RNCNvMs4_CseYC8vFNOjrM_2ccNtB7_5Build17prefix_for_target0B7_, symObjAddr: 0x1C10, symBinAddr: 0x1000513D0, symSize: 0xB0 }
  - { offset: 0x90F9F, size: 0x8, addend: 0x0, symName: __RNCNvMs4_CseYC8vFNOjrM_2ccNtB7_5Build17prefix_for_targets0_0B7_, symObjAddr: 0x1CC0, symBinAddr: 0x100051480, symSize: 0x1AF0 }
  - { offset: 0x90FE2, size: 0x8, addend: 0x0, symName: __RNCNvMs4_CseYC8vFNOjrM_2ccNtB7_5Build17prefix_for_targets_0B7_, symObjAddr: 0x37B0, symBinAddr: 0x100052F70, symSize: 0x50 }
  - { offset: 0x91024, size: 0x8, addend: 0x0, symName: __RNCNCNvMs4_CseYC8vFNOjrM_2ccNtB9_5Build20apple_sdk_root_inner00B9_, symObjAddr: 0xB80, symBinAddr: 0x1000504D0, symSize: 0x40 }
  - { offset: 0x91065, size: 0x8, addend: 0x0, symName: __RNCNvMs4_CseYC8vFNOjrM_2ccNtB7_5Build20apple_sdk_root_inner0B7_, symObjAddr: 0x3800, symBinAddr: 0x100052FC0, symSize: 0xC0 }
  - { offset: 0x910DA, size: 0x8, addend: 0x0, symName: __RNCNCNvMs4_CseYC8vFNOjrM_2ccNtB9_5Build23apple_deployment_targets0_00B9_, symObjAddr: 0xBC0, symBinAddr: 0x100050510, symSize: 0x70 }
  - { offset: 0x91120, size: 0x8, addend: 0x0, symName: __RNCNCNvMs4_CseYC8vFNOjrM_2ccNtB9_5Build23apple_deployment_targets_00B9_, symObjAddr: 0xC30, symBinAddr: 0x100050580, symSize: 0x60 }
  - { offset: 0x91172, size: 0x8, addend: 0x0, symName: __RNCNCNvMs4_CseYC8vFNOjrM_2ccNtB9_5Build23apple_deployment_targets_0s0_0B9_, symObjAddr: 0xC90, symBinAddr: 0x1000505E0, symSize: 0x30 }
  - { offset: 0x911B5, size: 0x8, addend: 0x0, symName: __RNCNCNvMs4_CseYC8vFNOjrM_2ccNtB9_5Build23apple_deployment_targets_0s_0B9_, symObjAddr: 0xCC0, symBinAddr: 0x100050610, symSize: 0x20 }
  - { offset: 0x911F2, size: 0x8, addend: 0x0, symName: __RNCNvMs4_CseYC8vFNOjrM_2ccNtB7_5Build23apple_deployment_target0B7_, symObjAddr: 0x3960, symBinAddr: 0x100053120, symSize: 0x380 }
  - { offset: 0x91299, size: 0x8, addend: 0x0, symName: __RNCNvMs4_CseYC8vFNOjrM_2ccNtB7_5Build23apple_deployment_targets0_0B7_, symObjAddr: 0x3CE0, symBinAddr: 0x1000534A0, symSize: 0x3E0 }
  - { offset: 0x91385, size: 0x8, addend: 0x0, symName: __RNCNvMs4_CseYC8vFNOjrM_2ccNtB7_5Build23apple_deployment_targets1_0B7_, symObjAddr: 0x40C0, symBinAddr: 0x100053880, symSize: 0x130 }
  - { offset: 0x913DE, size: 0x8, addend: 0x0, symName: __RNCNvMs4_CseYC8vFNOjrM_2ccNtB7_5Build23apple_deployment_targets2_0B7_, symObjAddr: 0x41F0, symBinAddr: 0x1000539B0, symSize: 0x30 }
  - { offset: 0x91408, size: 0x8, addend: 0x0, symName: __RNCNvMs4_CseYC8vFNOjrM_2ccNtB7_5Build23apple_deployment_targets3_0B7_, symObjAddr: 0x4220, symBinAddr: 0x1000539E0, symSize: 0x30 }
  - { offset: 0x91432, size: 0x8, addend: 0x0, symName: __RNCNvMs4_CseYC8vFNOjrM_2ccNtB7_5Build23apple_deployment_targets4_0B7_, symObjAddr: 0x4250, symBinAddr: 0x100053A10, symSize: 0x30 }
  - { offset: 0x9145C, size: 0x8, addend: 0x0, symName: __RNCNvMs4_CseYC8vFNOjrM_2ccNtB7_5Build23apple_deployment_targets5_0B7_, symObjAddr: 0x4280, symBinAddr: 0x100053A40, symSize: 0x30 }
  - { offset: 0x91486, size: 0x8, addend: 0x0, symName: __RNCNvMs4_CseYC8vFNOjrM_2ccNtB7_5Build23apple_deployment_targets_0B7_, symObjAddr: 0x42B0, symBinAddr: 0x100053A70, symSize: 0x1A0 }
  - { offset: 0x91579, size: 0x8, addend: 0x0, symName: __RNCNCNvMs4_CseYC8vFNOjrM_2ccNtB9_5Build23find_working_gnu_prefix00B9_, symObjAddr: 0xCE0, symBinAddr: 0x100050630, symSize: 0x310 }
  - { offset: 0x9167D, size: 0x8, addend: 0x0, symName: __RNCNvMs4_CseYC8vFNOjrM_2ccNtB7_5Build23find_working_gnu_prefix0B7_, symObjAddr: 0x4450, symBinAddr: 0x100053C10, symSize: 0x50 }
  - { offset: 0x916E5, size: 0x8, addend: 0x0, symName: __RNCNvMs4_CseYC8vFNOjrM_2ccNtB7_5Build23find_working_gnu_prefixs_0B7_, symObjAddr: 0x44A0, symBinAddr: 0x100053C60, symSize: 0x40 }
  - { offset: 0x91720, size: 0x8, addend: 0x0, symName: __RNCNCNvMs4_CseYC8vFNOjrM_2ccNtB9_5Build25get_base_archiver_variants_00B9_, symObjAddr: 0xFF0, symBinAddr: 0x100050940, symSize: 0x30 }
  - { offset: 0x91761, size: 0x8, addend: 0x0, symName: __RNCNvMs4_CseYC8vFNOjrM_2ccNtB7_5Build25get_base_archiver_variant0B7_, symObjAddr: 0x4540, symBinAddr: 0x100053D00, symSize: 0x200 }
  - { offset: 0x91800, size: 0x8, addend: 0x0, symName: __RNCNvMs4_CseYC8vFNOjrM_2ccNtB7_5Build25get_base_archiver_variants0_0B7_, symObjAddr: 0x4740, symBinAddr: 0x100053F00, symSize: 0x160 }
  - { offset: 0x91859, size: 0x8, addend: 0x0, symName: __RNCNvMs4_CseYC8vFNOjrM_2ccNtB7_5Build25get_base_archiver_variants1_0B7_, symObjAddr: 0x48A0, symBinAddr: 0x100054060, symSize: 0x3A0 }
  - { offset: 0x91975, size: 0x8, addend: 0x0, symName: __RNCNvMs4_CseYC8vFNOjrM_2ccNtB7_5Build25get_base_archiver_variants2_0B7_, symObjAddr: 0x4C40, symBinAddr: 0x100054400, symSize: 0x40 }
  - { offset: 0x919A5, size: 0x8, addend: 0x0, symName: __RNCNvMs4_CseYC8vFNOjrM_2ccNtB7_5Build25get_base_archiver_variants_0B7_, symObjAddr: 0x4C80, symBinAddr: 0x100054440, symSize: 0x550 }
  - { offset: 0x91B01, size: 0x8, addend: 0x0, symName: __RNCNCNvMs4_CseYC8vFNOjrM_2ccNtB9_5Build5which00B9_, symObjAddr: 0x1020, symBinAddr: 0x100050970, symSize: 0xB0 }
  - { offset: 0x91B44, size: 0x8, addend: 0x0, symName: __RNCNvMs4_CseYC8vFNOjrM_2ccNtB7_5Build5which0B7_, symObjAddr: 0x5270, symBinAddr: 0x100054A30, symSize: 0x70 }
  - { offset: 0x91B84, size: 0x8, addend: 0x0, symName: __RNCNvMs4_CseYC8vFNOjrM_2ccNtB7_5Build5whichs_0B7_, symObjAddr: 0x52E0, symBinAddr: 0x100054AA0, symSize: 0x100 }
  - { offset: 0x91C21, size: 0x8, addend: 0x0, symName: __RNCNCNvMs4_CseYC8vFNOjrM_2ccNtB9_5Build8assembles_00B9_, symObjAddr: 0x10D0, symBinAddr: 0x100050A20, symSize: 0x10 }
  - { offset: 0x91C5A, size: 0x8, addend: 0x0, symName: __RNCNvMs4_CseYC8vFNOjrM_2ccNtB7_5Build8assemble0B7_, symObjAddr: 0x54A0, symBinAddr: 0x100054C60, symSize: 0x40 }
  - { offset: 0x91C93, size: 0x8, addend: 0x0, symName: __RNCNvMs4_CseYC8vFNOjrM_2ccNtB7_5Build8assembles_0B7_, symObjAddr: 0x54E0, symBinAddr: 0x100054CA0, symSize: 0x90 }
  - { offset: 0x91CEE, size: 0x8, addend: 0x0, symName: __RNCNvMs4_CseYC8vFNOjrM_2ccNtB7_5Build11get_out_dir0B7_, symObjAddr: 0x12F0, symBinAddr: 0x100050AB0, symSize: 0x40 }
  - { offset: 0x91D25, size: 0x8, addend: 0x0, symName: __RNCNvMs4_CseYC8vFNOjrM_2ccNtB7_5Build15cuda_file_count0B7_, symObjAddr: 0x1420, symBinAddr: 0x100050BE0, symSize: 0x70 }
  - { offset: 0x91D6B, size: 0x8, addend: 0x0, symName: __RNCNvMs4_CseYC8vFNOjrM_2ccNtB7_5Build17get_base_compiler0B7_, symObjAddr: 0x1490, symBinAddr: 0x100050C50, symSize: 0x500 }
  - { offset: 0x91E4F, size: 0x8, addend: 0x0, symName: __RNCNvMs4_CseYC8vFNOjrM_2ccNtB7_5Build17get_base_compilers0_0B7_, symObjAddr: 0x1990, symBinAddr: 0x100051150, symSize: 0x30 }
  - { offset: 0x91E7F, size: 0x8, addend: 0x0, symName: __RNCNvMs4_CseYC8vFNOjrM_2ccNtB7_5Build17get_base_compilers_0B7_, symObjAddr: 0x19C0, symBinAddr: 0x100051180, symSize: 0x1A0 }
  - { offset: 0x91EEE, size: 0x8, addend: 0x0, symName: __RNCNvMs4_CseYC8vFNOjrM_2ccNtB7_5Build17getenv_unwrap_str0B7_, symObjAddr: 0x1B60, symBinAddr: 0x100051320, symSize: 0xB0 }
  - { offset: 0x91F61, size: 0x8, addend: 0x0, symName: __RNCNvMs4_CseYC8vFNOjrM_2ccNtB7_5Build20find_msvc_tools_find0B7_, symObjAddr: 0x38C0, symBinAddr: 0x100053080, symSize: 0x60 }
  - { offset: 0x91FA8, size: 0x8, addend: 0x0, symName: __RNCNvMs4_CseYC8vFNOjrM_2ccNtB7_5Build20msvc_macro_assembler0B7_, symObjAddr: 0x3920, symBinAddr: 0x1000530E0, symSize: 0x40 }
  - { offset: 0x91FF1, size: 0x8, addend: 0x0, symName: __RNCNvMs4_CseYC8vFNOjrM_2ccNtB7_5Build23get_force_frame_pointer0B7_, symObjAddr: 0x44E0, symBinAddr: 0x100053CA0, symSize: 0x30 }
  - { offset: 0x92027, size: 0x8, addend: 0x0, symName: __RNCNvMs4_CseYC8vFNOjrM_2ccNtB7_5Build23get_shell_escaped_flags0B7_, symObjAddr: 0x4510, symBinAddr: 0x100053CD0, symSize: 0x30 }
  - { offset: 0x9205D, size: 0x8, addend: 0x0, symName: __RNCNvMs4_CseYC8vFNOjrM_2ccNtB7_5Build25try_compile_intermediates0B7_, symObjAddr: 0x51D0, symBinAddr: 0x100054990, symSize: 0x50 }
  - { offset: 0x920A4, size: 0x8, addend: 0x0, symName: __RNCNvMs4_CseYC8vFNOjrM_2ccNtB7_5Build27getenv_with_target_prefixes0B7_, symObjAddr: 0x5220, symBinAddr: 0x1000549E0, symSize: 0x50 }
  - { offset: 0x920FD, size: 0x8, addend: 0x0, symName: __RNCNvMs4_CseYC8vFNOjrM_2ccNtB7_5Build6getenv0B7_, symObjAddr: 0x53E0, symBinAddr: 0x100054BA0, symSize: 0x50 }
  - { offset: 0x9214F, size: 0x8, addend: 0x0, symName: __RNCNvMs4_CseYC8vFNOjrM_2ccNtB7_5Build6getenvs0_0B7_, symObjAddr: 0x5430, symBinAddr: 0x100054BF0, symSize: 0x40 }
  - { offset: 0x9217F, size: 0x8, addend: 0x0, symName: __RNCNvMs4_CseYC8vFNOjrM_2ccNtB7_5Build6getenvs_0B7_, symObjAddr: 0x5470, symBinAddr: 0x100054C30, symSize: 0x30 }
  - { offset: 0x921CA, size: 0x8, addend: 0x0, symName: __RNvNvMs4_CseYC8vFNOjrM_2ccNtB7_5Build6getenv17provided_by_cargo, symObjAddr: 0x21BE0, symBinAddr: 0x10006FF10, symSize: 0x200 }
  - { offset: 0x92233, size: 0x8, addend: 0x0, symName: __RNCNvMs4_CseYC8vFNOjrM_2ccNtB7_5Build8env_tool0B7_, symObjAddr: 0x5570, symBinAddr: 0x100054D30, symSize: 0x50 }
  - { offset: 0x9226C, size: 0x8, addend: 0x0, symName: __RNCNvMs4_CseYC8vFNOjrM_2ccNtB7_5Build8env_tools_0B7_, symObjAddr: 0x55C0, symBinAddr: 0x100054D80, symSize: 0x50 }
  - { offset: 0x93269, size: 0x8, addend: 0x0, symName: __RNvNvCseYC8vFNOjrM_2cc11is_disabled5CACHE, symObjAddr: 0x7312D, symBinAddr: 0x1001C8975, symSize: 0x0 }
  - { offset: 0x93276, size: 0x8, addend: 0x0, symName: __RNvNvCseYC8vFNOjrM_2cc11is_disabled19compute_is_disabled, symObjAddr: 0x21A10, symBinAddr: 0x10006FD40, symSize: 0x1D0 }
  - { offset: 0x932E0, size: 0x8, addend: 0x0, symName: __RINvXsb_CseYC8vFNOjrM_2ccNtB6_12CompilerFlagNtNtCsieiGu2EXtoJ_4core4hash4Hash4hashNtNtNtCsHUR1vrdMJt_3std4hash6random13DefaultHasherEB6_, symObjAddr: 0x8F0, symBinAddr: 0x100050240, symSize: 0x40 }
  - { offset: 0x9332D, size: 0x8, addend: 0x0, symName: __RNCNCNvCseYC8vFNOjrM_2cc27autodetect_android_compiler00B5_, symObjAddr: 0x980, symBinAddr: 0x1000502D0, symSize: 0x40 }
  - { offset: 0x9336E, size: 0x8, addend: 0x0, symName: __RNCNvCseYC8vFNOjrM_2cc27autodetect_android_compiler0B3_, symObjAddr: 0x1110, symBinAddr: 0x100050A60, symSize: 0x50 }
  - { offset: 0x933B4, size: 0x8, addend: 0x0, symName: __RNCNvCseYC8vFNOjrM_2cc21is_llvm_mingw_wrapper0B3_, symObjAddr: 0x10E0, symBinAddr: 0x100050A30, symSize: 0x30 }
  - { offset: 0x933F5, size: 0x8, addend: 0x0, symName: __RNvCseYC8vFNOjrM_2cc11is_disabled, symObjAddr: 0x5610, symBinAddr: 0x100054DD0, symSize: 0xD0 }
  - { offset: 0x9345E, size: 0x8, addend: 0x0, symName: __RNvCseYC8vFNOjrM_2cc14check_disabled, symObjAddr: 0x56E0, symBinAddr: 0x100054EA0, symSize: 0x90 }
  - { offset: 0x9347C, size: 0x8, addend: 0x0, symName: __RNvCseYC8vFNOjrM_2cc21is_llvm_mingw_wrapper, symObjAddr: 0x5770, symBinAddr: 0x100054F30, symSize: 0xD0 }
  - { offset: 0x934C0, size: 0x8, addend: 0x0, symName: __RNvCseYC8vFNOjrM_2cc27autodetect_android_compiler, symObjAddr: 0x5840, symBinAddr: 0x100055000, symSize: 0x9B0 }
  - { offset: 0x936B4, size: 0x8, addend: 0x0, symName: __RNvCseYC8vFNOjrM_2cc49android_clang_compiler_uses_target_arg_internally, symObjAddr: 0x61F0, symBinAddr: 0x1000559B0, symSize: 0x150 }
  - { offset: 0x93724, size: 0x8, addend: 0x0, symName: __RNvCseYC8vFNOjrM_2cc4fail, symObjAddr: 0x6340, symBinAddr: 0x100055B00, symSize: 0x60 }
  - { offset: 0x9376D, size: 0x8, addend: 0x0, symName: __RNvCseYC8vFNOjrM_2cc52map_darwin_target_from_rust_to_compiler_architecture, symObjAddr: 0x63A0, symBinAddr: 0x100055B60, symSize: 0x310 }
  - { offset: 0x937B9, size: 0x8, addend: 0x0, symName: __RNvCseYC8vFNOjrM_2cc6is_arm, symObjAddr: 0x66B0, symBinAddr: 0x100055E70, symSize: 0xB0 }
  - { offset: 0x937E7, size: 0x8, addend: 0x0, symName: __RNvCseYC8vFNOjrM_2cc9check_exe, symObjAddr: 0x6760, symBinAddr: 0x100055F20, symSize: 0x180 }
  - { offset: 0x93851, size: 0x8, addend: 0x0, symName: __RNvXs0_CseYC8vFNOjrM_2ccNtB5_5ErrorNtNtCsieiGu2EXtoJ_4core3fmt7Display3fmt, symObjAddr: 0x21EA0, symBinAddr: 0x1000701D0, symSize: 0xB0 }
  - { offset: 0x938C9, size: 0x8, addend: 0x0, symName: __RNvXs5_CseYC8vFNOjrM_2ccNtB5_5BuildNtNtCsieiGu2EXtoJ_4core7default7Default7default, symObjAddr: 0x21FB0, symBinAddr: 0x1000702E0, symSize: 0x30 }
  - { offset: 0x938ED, size: 0x8, addend: 0x0, symName: __RNvXs_CseYC8vFNOjrM_2ccNtB4_5ErrorINtNtCsieiGu2EXtoJ_4core7convert4FromNtNtNtCsHUR1vrdMJt_3std2io5error5ErrorE4from, symObjAddr: 0x21FE0, symBinAddr: 0x100070310, symSize: 0xF0 }
  - { offset: 0x9395F, size: 0x8, addend: 0x0, symName: __RNvXsa_CseYC8vFNOjrM_2ccNtB5_12CompilerFlagNtNtCsieiGu2EXtoJ_4core3cmp9PartialEq2eqB5_, symObjAddr: 0x22120, symBinAddr: 0x100070450, symSize: 0x50 }
  - { offset: 0x939A2, size: 0x8, addend: 0x0, symName: __RNvXsd_CseYC8vFNOjrM_2ccNtB5_10BuildCacheNtNtCsieiGu2EXtoJ_4core7default7Default7defaultB5_, symObjAddr: 0x22170, symBinAddr: 0x1000704A0, symSize: 0x1D0 }
  - { offset: 0x939C6, size: 0x8, addend: 0x0, symName: __RNvXsg_CseYC8vFNOjrM_2ccNtB5_9ErrorKindNtNtCsieiGu2EXtoJ_4core5clone5Clone5cloneB5_, symObjAddr: 0x22340, symBinAddr: 0x100070670, symSize: 0xA0 }
  - { offset: 0x939FA, size: 0x8, addend: 0x0, symName: __RNvXsh_CseYC8vFNOjrM_2ccNtB5_9ErrorKindNtNtCsieiGu2EXtoJ_4core3fmt5Debug3fmtB5_, symObjAddr: 0x223E0, symBinAddr: 0x100070710, symSize: 0x170 }
  - { offset: 0x93A3D, size: 0x8, addend: 0x0, symName: __RNvXsi_CseYC8vFNOjrM_2ccNtB5_5ErrorNtNtCsieiGu2EXtoJ_4core5clone5Clone5cloneB5_, symObjAddr: 0x22550, symBinAddr: 0x100070880, symSize: 0x70 }
  - { offset: 0x93A71, size: 0x8, addend: 0x0, symName: __RNvXsj_CseYC8vFNOjrM_2ccNtB5_5ErrorNtNtCsieiGu2EXtoJ_4core3fmt5Debug3fmtB5_, symObjAddr: 0x225C0, symBinAddr: 0x1000708F0, symSize: 0x90 }
  - { offset: 0x93AB4, size: 0x8, addend: 0x0, symName: __RNvXsp_CseYC8vFNOjrM_2ccNtB5_10AsmFileExtNtNtCsieiGu2EXtoJ_4core3cmp9PartialEq2eqB5_, symObjAddr: 0x22650, symBinAddr: 0x100070980, symSize: 0x30 }
  - { offset: 0x9561A, size: 0x8, addend: 0x0, symName: __RNvXCsjK30CmJ87bX_9hashbrownNtCseYC8vFNOjrM_2cc12CompilerFlagINtB2_10EquivalentBq_E10equivalentBs_, symObjAddr: 0x21DE0, symBinAddr: 0x100070110, symSize: 0x50 }
  - { offset: 0x958D2, size: 0x8, addend: 0x0, symName: __RINvMCseYC8vFNOjrM_2ccNtB3_5Error3newNtNtCslJiobkLta79_5alloc6string6StringEB3_, symObjAddr: 0x0, symBinAddr: 0x10004F950, symSize: 0x70 }
  - { offset: 0x9590E, size: 0x8, addend: 0x0, symName: __RINvMCseYC8vFNOjrM_2ccNtB3_5Error3newReEB3_, symObjAddr: 0x70, symBinAddr: 0x10004F9C0, symSize: 0x80 }
  - { offset: 0x95974, size: 0x8, addend: 0x0, symName: __RINvMs3_CseYC8vFNOjrM_2ccNtB6_5Build4flagRNtNtNtCsHUR1vrdMJt_3std3ffi6os_str5OsStrEB6_, symObjAddr: 0xF0, symBinAddr: 0x10004FA40, symSize: 0xA0 }
  - { offset: 0x959CD, size: 0x8, addend: 0x0, symName: __RINvMs3_CseYC8vFNOjrM_2ccNtB6_5Build8compilerRNtNtCsHUR1vrdMJt_3std4path4PathEB6_, symObjAddr: 0x190, symBinAddr: 0x10004FAE0, symSize: 0xE0 }
  - { offset: 0x95B47, size: 0x8, addend: 0x0, symName: __RINvMs4_CseYC8vFNOjrM_2ccNtB6_5Build3cmdNtNtCsHUR1vrdMJt_3std4path7PathBufEB6_, symObjAddr: 0x270, symBinAddr: 0x10004FBC0, symSize: 0x190 }
  - { offset: 0x95BD7, size: 0x8, addend: 0x0, symName: __RINvMs4_CseYC8vFNOjrM_2ccNtB6_5Build3cmdRNtNtCsHUR1vrdMJt_3std4path4PathEB6_, symObjAddr: 0x400, symBinAddr: 0x10004FD50, symSize: 0x1A0 }
  - { offset: 0x95C73, size: 0x8, addend: 0x0, symName: __RINvMs4_CseYC8vFNOjrM_2ccNtB6_5Build3cmdRNtNtCsHUR1vrdMJt_3std4path7PathBufEB6_, symObjAddr: 0x5A0, symBinAddr: 0x10004FEF0, symSize: 0x190 }
  - { offset: 0x95D02, size: 0x8, addend: 0x0, symName: __RINvMs4_CseYC8vFNOjrM_2ccNtB6_5Build3cmdReEB6_, symObjAddr: 0x730, symBinAddr: 0x100050080, symSize: 0x1A0 }
  - { offset: 0x95D91, size: 0x8, addend: 0x0, symName: __RNvMs2_CseYC8vFNOjrM_2ccNtB5_6Object3new, symObjAddr: 0x6900, symBinAddr: 0x1000560C0, symSize: 0x40 }
  - { offset: 0x95DC3, size: 0x8, addend: 0x0, symName: __RNvMs3_CseYC8vFNOjrM_2ccNtB5_5Build10static_crt, symObjAddr: 0x6940, symBinAddr: 0x100056100, symSize: 0x30 }
  - { offset: 0x95DF5, size: 0x8, addend: 0x0, symName: __RNvMs3_CseYC8vFNOjrM_2ccNtB5_5Build14cargo_metadata, symObjAddr: 0x6B40, symBinAddr: 0x100056130, symSize: 0x30 }
  - { offset: 0x95E27, size: 0x8, addend: 0x0, symName: __RNvMs3_CseYC8vFNOjrM_2ccNtB5_5Build16no_default_flags, symObjAddr: 0x6BD0, symBinAddr: 0x100056160, symSize: 0x30 }
  - { offset: 0x95E59, size: 0x8, addend: 0x0, symName: __RNvMs3_CseYC8vFNOjrM_2ccNtB5_5Build17inherit_rustflags, symObjAddr: 0x6C00, symBinAddr: 0x100056190, symSize: 0x30 }
  - { offset: 0x95E8B, size: 0x8, addend: 0x0, symName: __RNvMs3_CseYC8vFNOjrM_2ccNtB5_5Build20warnings_into_errors, symObjAddr: 0x6C90, symBinAddr: 0x1000561C0, symSize: 0x30 }
  - { offset: 0x95EBD, size: 0x8, addend: 0x0, symName: __RNvMs3_CseYC8vFNOjrM_2ccNtB5_5Build25emit_rerun_if_env_changed, symObjAddr: 0x6CF0, symBinAddr: 0x1000561F0, symSize: 0x30 }
  - { offset: 0x95EEF, size: 0x8, addend: 0x0, symName: __RNvMs3_CseYC8vFNOjrM_2ccNtB5_5Build3cpp, symObjAddr: 0x7050, symBinAddr: 0x100056220, symSize: 0x30 }
  - { offset: 0x95F21, size: 0x8, addend: 0x0, symName: __RNvMs3_CseYC8vFNOjrM_2ccNtB5_5Build3new, symObjAddr: 0x7080, symBinAddr: 0x100056250, symSize: 0x690 }
  - { offset: 0x95F34, size: 0x8, addend: 0x0, symName: __RNvMs3_CseYC8vFNOjrM_2ccNtB5_5Build3pic, symObjAddr: 0x7710, symBinAddr: 0x1000568E0, symSize: 0x30 }
  - { offset: 0x95F66, size: 0x8, addend: 0x0, symName: __RNvMs3_CseYC8vFNOjrM_2ccNtB5_5Build3std, symObjAddr: 0x7740, symBinAddr: 0x100056910, symSize: 0xB0 }
  - { offset: 0x95F98, size: 0x8, addend: 0x0, symName: __RNvMs3_CseYC8vFNOjrM_2ccNtB5_5Build4cuda, symObjAddr: 0x77F0, symBinAddr: 0x1000569C0, symSize: 0xD0 }
  - { offset: 0x95FCA, size: 0x8, addend: 0x0, symName: __RNvMs3_CseYC8vFNOjrM_2ccNtB5_5Build4host, symObjAddr: 0x78C0, symBinAddr: 0x100056A90, symSize: 0xB0 }
  - { offset: 0x95FFC, size: 0x8, addend: 0x0, symName: __RNvMs3_CseYC8vFNOjrM_2ccNtB5_5Build5debug, symObjAddr: 0x79A0, symBinAddr: 0x100056B40, symSize: 0xB0 }
  - { offset: 0x9602E, size: 0x8, addend: 0x0, symName: __RNvMs3_CseYC8vFNOjrM_2ccNtB5_5Build6target, symObjAddr: 0x7B10, symBinAddr: 0x100056BF0, symSize: 0xB0 }
  - { offset: 0x96060, size: 0x8, addend: 0x0, symName: __RNvMs3_CseYC8vFNOjrM_2ccNtB5_5Build8warnings, symObjAddr: 0x7BF0, symBinAddr: 0x100056CA0, symSize: 0x40 }
  - { offset: 0x960C4, size: 0x8, addend: 0x0, symName: __RNvMs3_CseYC8vFNOjrM_2ccNtB5_5Build9opt_level, symObjAddr: 0x7D20, symBinAddr: 0x100056CE0, symSize: 0xB0 }
  - { offset: 0x960F6, size: 0x8, addend: 0x0, symName: __RNvMs4_CseYC8vFNOjrM_2ccNtB5_5Build10get_target, symObjAddr: 0x7EE0, symBinAddr: 0x100056D90, symSize: 0x1C0 }
  - { offset: 0x96173, size: 0x8, addend: 0x0, symName: __RNvMs4_CseYC8vFNOjrM_2ccNtB5_5Build11apple_flags, symObjAddr: 0x8550, symBinAddr: 0x100056F50, symSize: 0xC00 }
  - { offset: 0x96307, size: 0x8, addend: 0x0, symName: __RNvMs4_CseYC8vFNOjrM_2ccNtB5_5Build11get_out_dir, symObjAddr: 0x9150, symBinAddr: 0x100057B50, symSize: 0x170 }
  - { offset: 0x96355, size: 0x8, addend: 0x0, symName: __RNvMs4_CseYC8vFNOjrM_2ccNtB5_5Build11target_envs, symObjAddr: 0x92C0, symBinAddr: 0x100057CC0, symSize: 0x6A0 }
  - { offset: 0x9659D, size: 0x8, addend: 0x0, symName: __RNvMs4_CseYC8vFNOjrM_2ccNtB5_5Build11try_compile, symObjAddr: 0x9960, symBinAddr: 0x100058360, symSize: 0x1F50 }
  - { offset: 0x96AAF, size: 0x8, addend: 0x0, symName: __RNvMs4_CseYC8vFNOjrM_2ccNtB5_5Build12get_compiler, symObjAddr: 0xB9C0, symBinAddr: 0x10005A2B0, symSize: 0x110 }
  - { offset: 0x96AE8, size: 0x8, addend: 0x0, symName: __RNvMs4_CseYC8vFNOjrM_2ccNtB5_5Build12prefer_clang, symObjAddr: 0xBAD0, symBinAddr: 0x10005A3C0, symSize: 0x130 }
  - { offset: 0x96B21, size: 0x8, addend: 0x0, symName: __RNvMs4_CseYC8vFNOjrM_2ccNtB5_5Build12wasi_sysroot, symObjAddr: 0xBC00, symBinAddr: 0x10005A4F0, symSize: 0xE0 }
  - { offset: 0x96B62, size: 0x8, addend: 0x0, symName: __RNvMs4_CseYC8vFNOjrM_2ccNtB5_5Build13get_debug_str, symObjAddr: 0xBCE0, symBinAddr: 0x10005A5D0, symSize: 0xE0 }
  - { offset: 0x96BA3, size: 0x8, addend: 0x0, symName: __RNvMs4_CseYC8vFNOjrM_2ccNtB5_5Build13get_opt_level, symObjAddr: 0xBDC0, symBinAddr: 0x10005A6B0, symSize: 0xE0 }
  - { offset: 0x96BE4, size: 0x8, addend: 0x0, symName: __RNvMs4_CseYC8vFNOjrM_2ccNtB5_5Build13getenv_unwrap, symObjAddr: 0xBEA0, symBinAddr: 0x10005A790, symSize: 0x180 }
  - { offset: 0x96C7F, size: 0x8, addend: 0x0, symName: __RNvMs4_CseYC8vFNOjrM_2ccNtB5_5Build14apple_sdk_root, symObjAddr: 0xC020, symBinAddr: 0x10005A910, symSize: 0x4C0 }
  - { offset: 0x96D33, size: 0x8, addend: 0x0, symName: __RNvMs4_CseYC8vFNOjrM_2ccNtB5_5Build14get_raw_target, symObjAddr: 0xC4E0, symBinAddr: 0x10005ADD0, symSize: 0xE0 }
  - { offset: 0x96D74, size: 0x8, addend: 0x0, symName: __RNvMs4_CseYC8vFNOjrM_2ccNtB5_5Build14getenv_boolean, symObjAddr: 0xC5C0, symBinAddr: 0x10005AEB0, symSize: 0x1A0 }
  - { offset: 0x96DE4, size: 0x8, addend: 0x0, symName: __RNvMs4_CseYC8vFNOjrM_2ccNtB5_5Build15compile_objects, symObjAddr: 0xCA40, symBinAddr: 0x10005B050, symSize: 0x3D0 }
  - { offset: 0x96ED7, size: 0x8, addend: 0x0, symName: __RNvMs4_CseYC8vFNOjrM_2ccNtB5_5Build15cuda_file_count, symObjAddr: 0xCE10, symBinAddr: 0x10005B420, symSize: 0x50 }
  - { offset: 0x96F07, size: 0x8, addend: 0x0, symName: __RNvMs4_CseYC8vFNOjrM_2ccNtB5_5Build15search_programs, symObjAddr: 0xD050, symBinAddr: 0x10005B470, symSize: 0x480 }
  - { offset: 0x9701F, size: 0x8, addend: 0x0, symName: __RNvMs4_CseYC8vFNOjrM_2ccNtB5_5Build16try_get_archiver, symObjAddr: 0xD4D0, symBinAddr: 0x10005B8F0, symSize: 0x150 }
  - { offset: 0x97080, size: 0x8, addend: 0x0, symName: __RNvMs4_CseYC8vFNOjrM_2ccNtB5_5Build16try_get_compiler, symObjAddr: 0xD620, symBinAddr: 0x10005BA40, symSize: 0x1700 }
  - { offset: 0x97504, size: 0x8, addend: 0x0, symName: __RNvMs4_CseYC8vFNOjrM_2ccNtB5_5Build17add_default_flags, symObjAddr: 0xED20, symBinAddr: 0x10005D140, symSize: 0x4910 }
  - { offset: 0x97A8B, size: 0x8, addend: 0x0, symName: __RNvMs4_CseYC8vFNOjrM_2ccNtB5_5Build17ensure_check_file, symObjAddr: 0x13630, symBinAddr: 0x100061A50, symSize: 0x4E0 }
  - { offset: 0x97BA1, size: 0x8, addend: 0x0, symName: __RNvMs4_CseYC8vFNOjrM_2ccNtB5_5Build17get_base_archiver, symObjAddr: 0x13B10, symBinAddr: 0x100061F30, symSize: 0x180 }
  - { offset: 0x97BF0, size: 0x8, addend: 0x0, symName: __RNvMs4_CseYC8vFNOjrM_2ccNtB5_5Build17get_base_compiler, symObjAddr: 0x13C90, symBinAddr: 0x1000620B0, symSize: 0x22B0 }
  - { offset: 0x980C8, size: 0x8, addend: 0x0, symName: __RNvMs4_CseYC8vFNOjrM_2ccNtB5_5Build17get_dwarf_version, symObjAddr: 0x15F40, symBinAddr: 0x100064360, symSize: 0x2A0 }
  - { offset: 0x98147, size: 0x8, addend: 0x0, symName: __RNvMs4_CseYC8vFNOjrM_2ccNtB5_5Build17getenv_unwrap_str, symObjAddr: 0x161E0, symBinAddr: 0x100064600, symSize: 0x1B0 }
  - { offset: 0x981CE, size: 0x8, addend: 0x0, symName: __RNvMs4_CseYC8vFNOjrM_2ccNtB5_5Build17prefix_for_target, symObjAddr: 0x16390, symBinAddr: 0x1000647B0, symSize: 0x100 }
  - { offset: 0x98202, size: 0x8, addend: 0x0, symName: __RNvMs4_CseYC8vFNOjrM_2ccNtB5_5Build17wasm_musl_sysroot, symObjAddr: 0x16490, symBinAddr: 0x1000648B0, symSize: 0xE0 }
  - { offset: 0x98243, size: 0x8, addend: 0x0, symName: __RNvMs4_CseYC8vFNOjrM_2ccNtB5_5Build19get_cpp_link_stdlib, symObjAddr: 0x16570, symBinAddr: 0x100064990, symSize: 0x830 }
  - { offset: 0x982F8, size: 0x8, addend: 0x0, symName: __RNvMs4_CseYC8vFNOjrM_2ccNtB5_5Build20apple_sdk_root_inner, symObjAddr: 0x16DA0, symBinAddr: 0x1000651C0, symSize: 0xB10 }
  - { offset: 0x98421, size: 0x8, addend: 0x0, symName: __RNvMs4_CseYC8vFNOjrM_2ccNtB5_5Build20assemble_progressive, symObjAddr: 0x178B0, symBinAddr: 0x100065CD0, symSize: 0x740 }
  - { offset: 0x9855B, size: 0x8, addend: 0x0, symName: __RNvMs4_CseYC8vFNOjrM_2ccNtB5_5Build20find_msvc_tools_find, symObjAddr: 0x17FF0, symBinAddr: 0x100066410, symSize: 0x60 }
  - { offset: 0x985A9, size: 0x8, addend: 0x0, symName: __RNvMs4_CseYC8vFNOjrM_2ccNtB5_5Build20fix_env_for_apple_os, symObjAddr: 0x18050, symBinAddr: 0x100066470, symSize: 0x170 }
  - { offset: 0x98638, size: 0x8, addend: 0x0, symName: __RNvMs4_CseYC8vFNOjrM_2ccNtB5_5Build20get_is_cross_compile, symObjAddr: 0x181C0, symBinAddr: 0x1000665E0, symSize: 0x360 }
  - { offset: 0x986FC, size: 0x8, addend: 0x0, symName: __RNvMs4_CseYC8vFNOjrM_2ccNtB5_5Build20msvc_macro_assembler, symObjAddr: 0x18520, symBinAddr: 0x100066940, symSize: 0xE40 }
  - { offset: 0x98A68, size: 0x8, addend: 0x0, symName: __RNvMs4_CseYC8vFNOjrM_2ccNtB5_5Build21compile_intermediates, symObjAddr: 0x19360, symBinAddr: 0x100067780, symSize: 0xF0 }
  - { offset: 0x98AA1, size: 0x8, addend: 0x0, symName: __RNvMs4_CseYC8vFNOjrM_2ccNtB5_5Build22rustc_wrapper_fallback, symObjAddr: 0x19450, symBinAddr: 0x100067870, symSize: 0x340 }
  - { offset: 0x98B92, size: 0x8, addend: 0x0, symName: __RNvMs4_CseYC8vFNOjrM_2ccNtB5_5Build23add_inherited_rustflags, symObjAddr: 0x19790, symBinAddr: 0x100067BB0, symSize: 0x2E0 }
  - { offset: 0x98C7C, size: 0x8, addend: 0x0, symName: __RNvMs4_CseYC8vFNOjrM_2ccNtB5_5Build23apple_deployment_target, symObjAddr: 0x19A70, symBinAddr: 0x100067E90, symSize: 0x720 }
  - { offset: 0x98D76, size: 0x8, addend: 0x0, symName: __RNvMs4_CseYC8vFNOjrM_2ccNtB5_5Build23find_working_gnu_prefix, symObjAddr: 0x1A190, symBinAddr: 0x1000685B0, symSize: 0x160 }
  - { offset: 0x98DD7, size: 0x8, addend: 0x0, symName: __RNvMs4_CseYC8vFNOjrM_2ccNtB5_5Build23get_force_frame_pointer, symObjAddr: 0x1A2F0, symBinAddr: 0x100068710, symSize: 0x40 }
  - { offset: 0x98DFA, size: 0x8, addend: 0x0, symName: __RNvMs4_CseYC8vFNOjrM_2ccNtB5_5Build23get_shell_escaped_flags, symObjAddr: 0x1A330, symBinAddr: 0x100068750, symSize: 0x40 }
  - { offset: 0x98EB0, size: 0x8, addend: 0x0, symName: __RNvMs4_CseYC8vFNOjrM_2ccNtB5_5Build23is_flag_supported_inner, symObjAddr: 0x1A370, symBinAddr: 0x100068790, symSize: 0x1280 }
  - { offset: 0x991B2, size: 0x8, addend: 0x0, symName: __RNvMs4_CseYC8vFNOjrM_2ccNtB5_5Build24autodetect_wasi_compiler, symObjAddr: 0x1B5F0, symBinAddr: 0x100069A10, symSize: 0x360 }
  - { offset: 0x99286, size: 0x8, addend: 0x0, symName: __RNvMs4_CseYC8vFNOjrM_2ccNtB5_5Build25create_compile_object_cmd, symObjAddr: 0x1B950, symBinAddr: 0x100069D70, symSize: 0x960 }
  - { offset: 0x9949B, size: 0x8, addend: 0x0, symName: __RNvMs4_CseYC8vFNOjrM_2ccNtB5_5Build25find_msvc_tools_find_tool, symObjAddr: 0x1C2B0, symBinAddr: 0x10006A6D0, symSize: 0xD0 }
  - { offset: 0x994DC, size: 0x8, addend: 0x0, symName: __RNvMs4_CseYC8vFNOjrM_2ccNtB5_5Build25get_base_archiver_variant, symObjAddr: 0x1C380, symBinAddr: 0x10006A7A0, symSize: 0x1AE0 }
  - { offset: 0x99948, size: 0x8, addend: 0x0, symName: __RNvMs4_CseYC8vFNOjrM_2ccNtB5_5Build25try_compile_intermediates, symObjAddr: 0x1DE60, symBinAddr: 0x10006C280, symSize: 0x4A0 }
  - { offset: 0x99A55, size: 0x8, addend: 0x0, symName: __RNvMs4_CseYC8vFNOjrM_2ccNtB5_5Build26try_get_archiver_and_flags, symObjAddr: 0x1E300, symBinAddr: 0x10006C720, symSize: 0x480 }
  - { offset: 0x99B39, size: 0x8, addend: 0x0, symName: __RNvMs4_CseYC8vFNOjrM_2ccNtB5_5Build27getenv_with_target_prefixes, symObjAddr: 0x1E780, symBinAddr: 0x10006CBA0, symSize: 0x370 }
  - { offset: 0x99C26, size: 0x8, addend: 0x0, symName: __RNvMs4_CseYC8vFNOjrM_2ccNtB5_5Build5which, symObjAddr: 0x1EAF0, symBinAddr: 0x10006CF10, symSize: 0x100 }
  - { offset: 0x99D06, size: 0x8, addend: 0x0, symName: __RNvMs4_CseYC8vFNOjrM_2ccNtB5_5Build6getenv, symObjAddr: 0x1ECE0, symBinAddr: 0x10006D010, symSize: 0x6B0 }
  - { offset: 0x99E38, size: 0x8, addend: 0x0, symName: __RNvMs4_CseYC8vFNOjrM_2ccNtB5_5Build7compile, symObjAddr: 0x1F390, symBinAddr: 0x10006D6C0, symSize: 0xD0 }
  - { offset: 0x99E81, size: 0x8, addend: 0x0, symName: __RNvMs4_CseYC8vFNOjrM_2ccNtB5_5Build8assemble, symObjAddr: 0x1F460, symBinAddr: 0x10006D790, symSize: 0xDF0 }
  - { offset: 0x9A164, size: 0x8, addend: 0x0, symName: __RNvMs4_CseYC8vFNOjrM_2ccNtB5_5Build8env_tool, symObjAddr: 0x20250, symBinAddr: 0x10006E580, symSize: 0xE70 }
  - { offset: 0x9A37B, size: 0x8, addend: 0x0, symName: __RNvMs4_CseYC8vFNOjrM_2ccNtB5_5Build8envflags, symObjAddr: 0x210C0, symBinAddr: 0x10006F3F0, symSize: 0x580 }
  - { offset: 0x9A474, size: 0x8, addend: 0x0, symName: __RNvMs4_CseYC8vFNOjrM_2ccNtB5_5Build9get_debug, symObjAddr: 0x21640, symBinAddr: 0x10006F970, symSize: 0x210 }
  - { offset: 0x9A4AD, size: 0x8, addend: 0x0, symName: __RNvMs6_CseYC8vFNOjrM_2ccNtB5_10AsmFileExt9from_path, symObjAddr: 0x21850, symBinAddr: 0x10006FB80, symSize: 0x1C0 }
  - { offset: 0x9ABF4, size: 0x8, addend: 0x0, symName: __RINvMs6_NtCsjK30CmJ87bX_9hashbrown3rawINtB6_8RawTableTINtNtCslJiobkLta79_5alloc5boxed3BoxSIBR_NtNtNtCsHUR1vrdMJt_3std3ffi6os_str5OsStrEENtNtCseYC8vFNOjrM_2cc4tool10ToolFamilyEE14reserve_rehashNCINvNtB8_3map11make_hasherBQ_B2a_NtNtNtB1A_4hash6random11RandomStateE0EB2e_, symObjAddr: 0x0, symBinAddr: 0x10014F110, symSize: 0xD70 }
  - { offset: 0x9AC30, size: 0x8, addend: 0x0, symName: __RNCINvMs6_NtCsjK30CmJ87bX_9hashbrown3rawINtB8_8RawTableTINtNtCslJiobkLta79_5alloc5boxed3BoxSIBT_NtNtNtCsHUR1vrdMJt_3std3ffi6os_str5OsStrEENtNtCseYC8vFNOjrM_2cc4tool10ToolFamilyEE14reserve_rehashNCINvNtBa_3map11make_hasherBS_B2c_NtNtNtB1C_4hash6random11RandomStateE0E0B2g_, symObjAddr: 0x8510, symBinAddr: 0x100074BB0, symSize: 0xB0 }
  - { offset: 0x9ADF6, size: 0x8, addend: 0x0, symName: __RNCINvMs6_NtCsjK30CmJ87bX_9hashbrown3rawINtB8_8RawTableTINtNtCslJiobkLta79_5alloc5boxed3BoxSIBT_NtNtNtCsHUR1vrdMJt_3std3ffi6os_str5OsStrEENtNtCseYC8vFNOjrM_2cc4tool10ToolFamilyEE14reserve_rehashNCINvNtBa_3map11make_hasherBS_B2c_NtNtNtB1C_4hash6random11RandomStateE0Es_0B2g_, symObjAddr: 0x85C0, symBinAddr: 0x100074C60, symSize: 0x30 }
  - { offset: 0x9AE46, size: 0x8, addend: 0x0, symName: __RNCINvMs6_NtCsjK30CmJ87bX_9hashbrown3rawINtB8_8RawTableTINtNtCslJiobkLta79_5alloc5boxed3BoxeEINtNtBX_4sync3ArcNtNtNtCsHUR1vrdMJt_3std3ffi6os_str5OsStrEEE14reserve_rehashNCINvNtBa_3map11make_hasherBS_B1t_NtNtNtB1Q_4hash6random11RandomStateE0E0CseYC8vFNOjrM_2cc, symObjAddr: 0x8750, symBinAddr: 0x100074DF0, symSize: 0xB0 }
  - { offset: 0x9B00C, size: 0x8, addend: 0x0, symName: __RNCINvMs6_NtCsjK30CmJ87bX_9hashbrown3rawINtB8_8RawTableTINtNtCslJiobkLta79_5alloc5boxed3BoxeEINtNtBX_4sync3ArcNtNtNtCsHUR1vrdMJt_3std3ffi6os_str5OsStrEEE14reserve_rehashNCINvNtBa_3map11make_hasherBS_B1t_NtNtNtB1Q_4hash6random11RandomStateE0Es_0CseYC8vFNOjrM_2cc, symObjAddr: 0x8800, symBinAddr: 0x100074EA0, symSize: 0x30 }
  - { offset: 0x9B05C, size: 0x8, addend: 0x0, symName: __RNCINvMs6_NtCsjK30CmJ87bX_9hashbrown3rawINtB8_8RawTableTINtNtCslJiobkLta79_5alloc5boxed3BoxeEINtNtBX_4sync3ArceEEE14reserve_rehashNCINvNtBa_3map11make_hasherBS_B1t_NtNtNtCsHUR1vrdMJt_3std4hash6random11RandomStateE0E0CseYC8vFNOjrM_2cc, symObjAddr: 0x8990, symBinAddr: 0x100075030, symSize: 0xB0 }
  - { offset: 0x9B222, size: 0x8, addend: 0x0, symName: __RNCINvMs6_NtCsjK30CmJ87bX_9hashbrown3rawINtB8_8RawTableTINtNtCslJiobkLta79_5alloc5boxed3BoxeEINtNtBX_4sync3ArceEEE14reserve_rehashNCINvNtBa_3map11make_hasherBS_B1t_NtNtNtCsHUR1vrdMJt_3std4hash6random11RandomStateE0Es_0CseYC8vFNOjrM_2cc, symObjAddr: 0x8A40, symBinAddr: 0x1000750E0, symSize: 0x30 }
  - { offset: 0x9B272, size: 0x8, addend: 0x0, symName: __RNCINvMs6_NtCsjK30CmJ87bX_9hashbrown3rawINtB8_8RawTableTINtNtCslJiobkLta79_5alloc5boxed3BoxeEINtNtCsieiGu2EXtoJ_4core6option6OptionINtNtBX_4sync3ArcNtNtNtCsHUR1vrdMJt_3std3ffi6os_str5OsStrEEEE14reserve_rehashNCINvNtBa_3map11make_hasherBS_B1t_NtNtNtB2s_4hash6random11RandomStateE0E0CseYC8vFNOjrM_2cc, symObjAddr: 0x8BD0, symBinAddr: 0x100075270, symSize: 0xB0 }
  - { offset: 0x9B438, size: 0x8, addend: 0x0, symName: __RNCINvMs6_NtCsjK30CmJ87bX_9hashbrown3rawINtB8_8RawTableTINtNtCslJiobkLta79_5alloc5boxed3BoxeEINtNtCsieiGu2EXtoJ_4core6option6OptionINtNtBX_4sync3ArcNtNtNtCsHUR1vrdMJt_3std3ffi6os_str5OsStrEEEE14reserve_rehashNCINvNtBa_3map11make_hasherBS_B1t_NtNtNtB2s_4hash6random11RandomStateE0Es_0CseYC8vFNOjrM_2cc, symObjAddr: 0x8C80, symBinAddr: 0x100075320, symSize: 0x30 }
  - { offset: 0x9B488, size: 0x8, addend: 0x0, symName: __RNCINvMs6_NtCsjK30CmJ87bX_9hashbrown3rawINtB8_8RawTableTNtCseYC8vFNOjrM_2cc12CompilerFlagbEE14reserve_rehashNCINvNtBa_3map11make_hasherBS_bNtNtNtCsHUR1vrdMJt_3std4hash6random11RandomStateE0E0BU_, symObjAddr: 0x8E10, symBinAddr: 0x1000754B0, symSize: 0xB0 }
  - { offset: 0x9B64E, size: 0x8, addend: 0x0, symName: __RNCINvMs6_NtCsjK30CmJ87bX_9hashbrown3rawINtB8_8RawTableTNtCseYC8vFNOjrM_2cc12CompilerFlagbEE14reserve_rehashNCINvNtBa_3map11make_hasherBS_bNtNtNtCsHUR1vrdMJt_3std4hash6random11RandomStateE0Es_0BU_, symObjAddr: 0x8EC0, symBinAddr: 0x100075560, symSize: 0x30 }
  - { offset: 0x9B6C7, size: 0x8, addend: 0x0, symName: __RNCINvMs6_NtCsjK30CmJ87bX_9hashbrown3rawINtB8_8RawTableTINtNtCslJiobkLta79_5alloc5boxed3BoxSIBT_NtNtNtCsHUR1vrdMJt_3std3ffi6os_str5OsStrEENtNtCseYC8vFNOjrM_2cc4tool10ToolFamilyEE24find_or_find_insert_slotNCINvNtBa_3map14equivalent_keyBS_BS_B2c_E0NCINvB3l_11make_hasherBS_B2c_NtNtNtB1C_4hash6random11RandomStateE0E0B2g_, symObjAddr: 0x85F0, symBinAddr: 0x100074C90, symSize: 0xB0 }
  - { offset: 0x9B89D, size: 0x8, addend: 0x0, symName: __RNCINvMs6_NtCsjK30CmJ87bX_9hashbrown3rawINtB8_8RawTableTINtNtCslJiobkLta79_5alloc5boxed3BoxeEINtNtBX_4sync3ArcNtNtNtCsHUR1vrdMJt_3std3ffi6os_str5OsStrEEE24find_or_find_insert_slotNCINvNtBa_3map14equivalent_keyBS_BS_B1t_E0NCINvB2W_11make_hasherBS_B1t_NtNtNtB1Q_4hash6random11RandomStateE0E0CseYC8vFNOjrM_2cc, symObjAddr: 0x8830, symBinAddr: 0x100074ED0, symSize: 0xB0 }
  - { offset: 0x9BA73, size: 0x8, addend: 0x0, symName: __RNCINvMs6_NtCsjK30CmJ87bX_9hashbrown3rawINtB8_8RawTableTINtNtCslJiobkLta79_5alloc5boxed3BoxeEINtNtBX_4sync3ArceEEE24find_or_find_insert_slotNCINvNtBa_3map14equivalent_keyBS_BS_B1t_E0NCINvB2j_11make_hasherBS_B1t_NtNtNtCsHUR1vrdMJt_3std4hash6random11RandomStateE0E0CseYC8vFNOjrM_2cc, symObjAddr: 0x8A70, symBinAddr: 0x100075110, symSize: 0xB0 }
  - { offset: 0x9BC49, size: 0x8, addend: 0x0, symName: __RNCINvMs6_NtCsjK30CmJ87bX_9hashbrown3rawINtB8_8RawTableTINtNtCslJiobkLta79_5alloc5boxed3BoxeEINtNtCsieiGu2EXtoJ_4core6option6OptionINtNtBX_4sync3ArcNtNtNtCsHUR1vrdMJt_3std3ffi6os_str5OsStrEEEE24find_or_find_insert_slotNCINvNtBa_3map14equivalent_keyBS_BS_B1t_E0NCINvB3z_11make_hasherBS_B1t_NtNtNtB2s_4hash6random11RandomStateE0E0CseYC8vFNOjrM_2cc, symObjAddr: 0x8CB0, symBinAddr: 0x100075350, symSize: 0xB0 }
  - { offset: 0x9BE1F, size: 0x8, addend: 0x0, symName: __RNCINvMs6_NtCsjK30CmJ87bX_9hashbrown3rawINtB8_8RawTableTNtCseYC8vFNOjrM_2cc12CompilerFlagbEE24find_or_find_insert_slotNCINvNtBa_3map14equivalent_keyBS_BS_bE0NCINvB1X_11make_hasherBS_bNtNtNtCsHUR1vrdMJt_3std4hash6random11RandomStateE0E0BU_, symObjAddr: 0x8EF0, symBinAddr: 0x100075590, symSize: 0xB0 }
  - { offset: 0x9BFFB, size: 0x8, addend: 0x0, symName: __RNCINvMs6_NtCsjK30CmJ87bX_9hashbrown3rawINtB8_8RawTableTINtNtCslJiobkLta79_5alloc5boxed3BoxSIBT_NtNtNtCsHUR1vrdMJt_3std3ffi6os_str5OsStrEENtNtCseYC8vFNOjrM_2cc4tool10ToolFamilyEE4findNCINvNtBa_3map14equivalent_keyBS_BS_B2c_E0E0B2g_, symObjAddr: 0x86A0, symBinAddr: 0x100074D40, symSize: 0xB0 }
  - { offset: 0x9C1C8, size: 0x8, addend: 0x0, symName: __RNCINvMs6_NtCsjK30CmJ87bX_9hashbrown3rawINtB8_8RawTableTINtNtCslJiobkLta79_5alloc5boxed3BoxeEINtNtBX_4sync3ArcNtNtNtCsHUR1vrdMJt_3std3ffi6os_str5OsStrEEE4findNCINvNtBa_3map14equivalent_keyeBS_B1t_E0E0CseYC8vFNOjrM_2cc, symObjAddr: 0x88E0, symBinAddr: 0x100074F80, symSize: 0xB0 }
  - { offset: 0x9C395, size: 0x8, addend: 0x0, symName: __RNCINvMs6_NtCsjK30CmJ87bX_9hashbrown3rawINtB8_8RawTableTINtNtCslJiobkLta79_5alloc5boxed3BoxeEINtNtBX_4sync3ArceEEE4findNCINvNtBa_3map14equivalent_keyeBS_B1t_E0E0CseYC8vFNOjrM_2cc, symObjAddr: 0x8B20, symBinAddr: 0x1000751C0, symSize: 0xB0 }
  - { offset: 0x9C562, size: 0x8, addend: 0x0, symName: __RNCINvMs6_NtCsjK30CmJ87bX_9hashbrown3rawINtB8_8RawTableTINtNtCslJiobkLta79_5alloc5boxed3BoxeEINtNtCsieiGu2EXtoJ_4core6option6OptionINtNtBX_4sync3ArcNtNtNtCsHUR1vrdMJt_3std3ffi6os_str5OsStrEEEE4findNCINvNtBa_3map14equivalent_keyeBS_B1t_E0E0CseYC8vFNOjrM_2cc, symObjAddr: 0x8D60, symBinAddr: 0x100075400, symSize: 0xB0 }
  - { offset: 0x9C72F, size: 0x8, addend: 0x0, symName: __RNCINvMs6_NtCsjK30CmJ87bX_9hashbrown3rawINtB8_8RawTableTNtCseYC8vFNOjrM_2cc12CompilerFlagbEE4findNCINvNtBa_3map14equivalent_keyBS_BS_bE0E0BU_, symObjAddr: 0x8FA0, symBinAddr: 0x100075640, symSize: 0xB0 }
  - { offset: 0x9DA00, size: 0x8, addend: 0x0, symName: __RNCINvMsa_NtCsjK30CmJ87bX_9hashbrown3rawNtB8_13RawTableInner14prepare_resizeNtNtCslJiobkLta79_5alloc5alloc6GlobalE0CseYC8vFNOjrM_2cc, symObjAddr: 0x9050, symBinAddr: 0x1000756F0, symSize: 0xD0 }
  - { offset: 0x9DBCE, size: 0x8, addend: 0x0, symName: __RNCNvMsa_NtCsjK30CmJ87bX_9hashbrown3rawNtB7_13RawTableInner15rehash_in_place0CseYC8vFNOjrM_2cc, symObjAddr: 0x9120, symBinAddr: 0x1000757C0, symSize: 0x250 }
  - { offset: 0x9E8D5, size: 0x8, addend: 0x0, symName: __RNvNtCsjK30CmJ87bX_9hashbrown3raw19capacity_to_bucketsCseYC8vFNOjrM_2cc, symObjAddr: 0xB3B0, symBinAddr: 0x100077A50, symSize: 0x280 }
  - { offset: 0x9EAEB, size: 0x8, addend: 0x0, symName: __RNvXsg_NtCsjK30CmJ87bX_9hashbrown3rawINtB5_8RawTableTINtNtCslJiobkLta79_5alloc5boxed3BoxSIBQ_NtNtNtCsHUR1vrdMJt_3std3ffi6os_str5OsStrEENtNtCseYC8vFNOjrM_2cc4tool10ToolFamilyEENtNtNtCsieiGu2EXtoJ_4core3ops4drop4Drop4dropB2d_, symObjAddr: 0xB630, symBinAddr: 0x100077CD0, symSize: 0x30 }
  - { offset: 0x9EB27, size: 0x8, addend: 0x0, symName: __RNvXsg_NtCsjK30CmJ87bX_9hashbrown3rawINtB5_8RawTableTINtNtCslJiobkLta79_5alloc5boxed3BoxeEINtNtBU_4sync3ArcNtNtNtCsHUR1vrdMJt_3std3ffi6os_str5OsStrEEENtNtNtCsieiGu2EXtoJ_4core3ops4drop4Drop4dropCseYC8vFNOjrM_2cc, symObjAddr: 0xB660, symBinAddr: 0x100077D00, symSize: 0x30 }
  - { offset: 0x9EB63, size: 0x8, addend: 0x0, symName: __RNvXsg_NtCsjK30CmJ87bX_9hashbrown3rawINtB5_8RawTableTINtNtCslJiobkLta79_5alloc5boxed3BoxeEINtNtBU_4sync3ArceEEENtNtNtCsieiGu2EXtoJ_4core3ops4drop4Drop4dropCseYC8vFNOjrM_2cc, symObjAddr: 0xB690, symBinAddr: 0x100077D30, symSize: 0x30 }
  - { offset: 0x9EB9F, size: 0x8, addend: 0x0, symName: __RNvXsg_NtCsjK30CmJ87bX_9hashbrown3rawINtB5_8RawTableTINtNtCslJiobkLta79_5alloc5boxed3BoxeEINtNtCsieiGu2EXtoJ_4core6option6OptionINtNtBU_4sync3ArcNtNtNtCsHUR1vrdMJt_3std3ffi6os_str5OsStrEEEENtNtNtB1v_3ops4drop4Drop4dropCseYC8vFNOjrM_2cc, symObjAddr: 0xB6C0, symBinAddr: 0x100077D60, symSize: 0x30 }
  - { offset: 0x9EBDB, size: 0x8, addend: 0x0, symName: __RNvXsg_NtCsjK30CmJ87bX_9hashbrown3rawINtB5_8RawTableTNtCseYC8vFNOjrM_2cc12CompilerFlagbEENtNtNtCsieiGu2EXtoJ_4core3ops4drop4Drop4dropBR_, symObjAddr: 0xB6F0, symBinAddr: 0x100077D90, symSize: 0x30 }
  - { offset: 0xA42C3, size: 0x8, addend: 0x0, symName: __RINvMs6_NtCsjK30CmJ87bX_9hashbrown3rawINtB6_8RawTableTINtNtCslJiobkLta79_5alloc5boxed3BoxSIBR_NtNtNtCsHUR1vrdMJt_3std3ffi6os_str5OsStrEENtNtCseYC8vFNOjrM_2cc4tool10ToolFamilyEE14reserve_rehashNCINvNtB8_3map11make_hasherBQ_B2a_NtNtNtB1A_4hash6random11RandomStateE0EB2e_, symObjAddr: 0x0, symBinAddr: 0x10014F110, symSize: 0xD70 }
  - { offset: 0xA4D96, size: 0x8, addend: 0x0, symName: __RINvMs6_NtCsjK30CmJ87bX_9hashbrown3rawINtB6_8RawTableTINtNtCslJiobkLta79_5alloc5boxed3BoxSIBR_NtNtNtCsHUR1vrdMJt_3std3ffi6os_str5OsStrEENtNtCseYC8vFNOjrM_2cc4tool10ToolFamilyEE24find_or_find_insert_slotNCINvNtB8_3map14equivalent_keyBQ_BQ_B2a_E0NCINvB3j_11make_hasherBQ_B2a_NtNtNtB1A_4hash6random11RandomStateE0EB2e_, symObjAddr: 0xD70, symBinAddr: 0x1000709B0, symSize: 0x160 }
  - { offset: 0xA5260, size: 0x8, addend: 0x0, symName: __RINvMs6_NtCsjK30CmJ87bX_9hashbrown3rawINtB6_8RawTableTINtNtCslJiobkLta79_5alloc5boxed3BoxSIBR_NtNtNtCsHUR1vrdMJt_3std3ffi6os_str5OsStrEENtNtCseYC8vFNOjrM_2cc4tool10ToolFamilyEE4findNCINvNtB8_3map14equivalent_keyBQ_BQ_B2a_E0EB2e_, symObjAddr: 0xED0, symBinAddr: 0x100070B10, symSize: 0x480 }
  - { offset: 0xA5779, size: 0x8, addend: 0x0, symName: __RINvMs6_NtCsjK30CmJ87bX_9hashbrown3rawINtB6_8RawTableTINtNtCslJiobkLta79_5alloc5boxed3BoxSIBR_NtNtNtCsHUR1vrdMJt_3std3ffi6os_str5OsStrEENtNtCseYC8vFNOjrM_2cc4tool10ToolFamilyEE7reserveNCINvNtB8_3map11make_hasherBQ_B2a_NtNtNtB1A_4hash6random11RandomStateE0EB2e_, symObjAddr: 0x1350, symBinAddr: 0x100070F90, symSize: 0xC0 }
  - { offset: 0xA5851, size: 0x8, addend: 0x0, symName: __RINvMs6_NtCsjK30CmJ87bX_9hashbrown3rawINtB6_8RawTableTINtNtCslJiobkLta79_5alloc5boxed3BoxeEINtNtBV_4sync3ArcNtNtNtCsHUR1vrdMJt_3std3ffi6os_str5OsStrEEE14reserve_rehashNCINvNtB8_3map11make_hasherBQ_B1r_NtNtNtB1O_4hash6random11RandomStateE0ECseYC8vFNOjrM_2cc, symObjAddr: 0x1410, symBinAddr: 0x10014FE80, symSize: 0xD70 }
  - { offset: 0xA6324, size: 0x8, addend: 0x0, symName: __RINvMs6_NtCsjK30CmJ87bX_9hashbrown3rawINtB6_8RawTableTINtNtCslJiobkLta79_5alloc5boxed3BoxeEINtNtBV_4sync3ArcNtNtNtCsHUR1vrdMJt_3std3ffi6os_str5OsStrEEE24find_or_find_insert_slotNCINvNtB8_3map14equivalent_keyBQ_BQ_B1r_E0NCINvB2U_11make_hasherBQ_B1r_NtNtNtB1O_4hash6random11RandomStateE0ECseYC8vFNOjrM_2cc, symObjAddr: 0x2180, symBinAddr: 0x100071050, symSize: 0x160 }
  - { offset: 0xA65B1, size: 0x8, addend: 0x0, symName: __RINvMs6_NtCsjK30CmJ87bX_9hashbrown3rawINtB6_8RawTableTINtNtCslJiobkLta79_5alloc5boxed3BoxeEINtNtBV_4sync3ArcNtNtNtCsHUR1vrdMJt_3std3ffi6os_str5OsStrEEE4findNCINvNtB8_3map14equivalent_keyeBQ_B1r_E0ECseYC8vFNOjrM_2cc, symObjAddr: 0x22E0, symBinAddr: 0x1000711B0, symSize: 0x490 }
  - { offset: 0xA6ABD, size: 0x8, addend: 0x0, symName: __RINvMs6_NtCsjK30CmJ87bX_9hashbrown3rawINtB6_8RawTableTINtNtCslJiobkLta79_5alloc5boxed3BoxeEINtNtBV_4sync3ArcNtNtNtCsHUR1vrdMJt_3std3ffi6os_str5OsStrEEE7reserveNCINvNtB8_3map11make_hasherBQ_B1r_NtNtNtB1O_4hash6random11RandomStateE0ECseYC8vFNOjrM_2cc, symObjAddr: 0x2770, symBinAddr: 0x100071640, symSize: 0xC0 }
  - { offset: 0xA6B95, size: 0x8, addend: 0x0, symName: __RINvMs6_NtCsjK30CmJ87bX_9hashbrown3rawINtB6_8RawTableTINtNtCslJiobkLta79_5alloc5boxed3BoxeEINtNtBV_4sync3ArceEEE14reserve_rehashNCINvNtB8_3map11make_hasherBQ_B1r_NtNtNtCsHUR1vrdMJt_3std4hash6random11RandomStateE0ECseYC8vFNOjrM_2cc, symObjAddr: 0x2830, symBinAddr: 0x100150BF0, symSize: 0xD70 }
  - { offset: 0xA7668, size: 0x8, addend: 0x0, symName: __RINvMs6_NtCsjK30CmJ87bX_9hashbrown3rawINtB6_8RawTableTINtNtCslJiobkLta79_5alloc5boxed3BoxeEINtNtBV_4sync3ArceEEE24find_or_find_insert_slotNCINvNtB8_3map14equivalent_keyBQ_BQ_B1r_E0NCINvB2h_11make_hasherBQ_B1r_NtNtNtCsHUR1vrdMJt_3std4hash6random11RandomStateE0ECseYC8vFNOjrM_2cc, symObjAddr: 0x35A0, symBinAddr: 0x100071700, symSize: 0x160 }
  - { offset: 0xA78F5, size: 0x8, addend: 0x0, symName: __RINvMs6_NtCsjK30CmJ87bX_9hashbrown3rawINtB6_8RawTableTINtNtCslJiobkLta79_5alloc5boxed3BoxeEINtNtBV_4sync3ArceEEE4findNCINvNtB8_3map14equivalent_keyeBQ_B1r_E0ECseYC8vFNOjrM_2cc, symObjAddr: 0x3700, symBinAddr: 0x100071860, symSize: 0x490 }
  - { offset: 0xA7E01, size: 0x8, addend: 0x0, symName: __RINvMs6_NtCsjK30CmJ87bX_9hashbrown3rawINtB6_8RawTableTINtNtCslJiobkLta79_5alloc5boxed3BoxeEINtNtBV_4sync3ArceEEE7reserveNCINvNtB8_3map11make_hasherBQ_B1r_NtNtNtCsHUR1vrdMJt_3std4hash6random11RandomStateE0ECseYC8vFNOjrM_2cc, symObjAddr: 0x3B90, symBinAddr: 0x100071CF0, symSize: 0xC0 }
  - { offset: 0xA7ED9, size: 0x8, addend: 0x0, symName: __RINvMs6_NtCsjK30CmJ87bX_9hashbrown3rawINtB6_8RawTableTINtNtCslJiobkLta79_5alloc5boxed3BoxeEINtNtCsieiGu2EXtoJ_4core6option6OptionINtNtBV_4sync3ArcNtNtNtCsHUR1vrdMJt_3std3ffi6os_str5OsStrEEEE14reserve_rehashNCINvNtB8_3map11make_hasherBQ_B1r_NtNtNtB2q_4hash6random11RandomStateE0ECseYC8vFNOjrM_2cc, symObjAddr: 0x3C50, symBinAddr: 0x100151960, symSize: 0xD70 }
  - { offset: 0xA89AC, size: 0x8, addend: 0x0, symName: __RINvMs6_NtCsjK30CmJ87bX_9hashbrown3rawINtB6_8RawTableTINtNtCslJiobkLta79_5alloc5boxed3BoxeEINtNtCsieiGu2EXtoJ_4core6option6OptionINtNtBV_4sync3ArcNtNtNtCsHUR1vrdMJt_3std3ffi6os_str5OsStrEEEE24find_or_find_insert_slotNCINvNtB8_3map14equivalent_keyBQ_BQ_B1r_E0NCINvB3x_11make_hasherBQ_B1r_NtNtNtB2q_4hash6random11RandomStateE0ECseYC8vFNOjrM_2cc, symObjAddr: 0x49C0, symBinAddr: 0x100071DB0, symSize: 0x160 }
  - { offset: 0xA8C39, size: 0x8, addend: 0x0, symName: __RINvMs6_NtCsjK30CmJ87bX_9hashbrown3rawINtB6_8RawTableTINtNtCslJiobkLta79_5alloc5boxed3BoxeEINtNtCsieiGu2EXtoJ_4core6option6OptionINtNtBV_4sync3ArcNtNtNtCsHUR1vrdMJt_3std3ffi6os_str5OsStrEEEE4findNCINvNtB8_3map14equivalent_keyeBQ_B1r_E0ECseYC8vFNOjrM_2cc, symObjAddr: 0x4B20, symBinAddr: 0x100071F10, symSize: 0x490 }
  - { offset: 0xA9145, size: 0x8, addend: 0x0, symName: __RINvMs6_NtCsjK30CmJ87bX_9hashbrown3rawINtB6_8RawTableTINtNtCslJiobkLta79_5alloc5boxed3BoxeEINtNtCsieiGu2EXtoJ_4core6option6OptionINtNtBV_4sync3ArcNtNtNtCsHUR1vrdMJt_3std3ffi6os_str5OsStrEEEE7reserveNCINvNtB8_3map11make_hasherBQ_B1r_NtNtNtB2q_4hash6random11RandomStateE0ECseYC8vFNOjrM_2cc, symObjAddr: 0x4FB0, symBinAddr: 0x1000723A0, symSize: 0xC0 }
  - { offset: 0xA921D, size: 0x8, addend: 0x0, symName: __RINvMs6_NtCsjK30CmJ87bX_9hashbrown3rawINtB6_8RawTableTNtCseYC8vFNOjrM_2cc12CompilerFlagbEE14reserve_rehashNCINvNtB8_3map11make_hasherBQ_bNtNtNtCsHUR1vrdMJt_3std4hash6random11RandomStateE0EBS_, symObjAddr: 0x5070, symBinAddr: 0x1001526D0, symSize: 0xD50 }
  - { offset: 0xA9CF0, size: 0x8, addend: 0x0, symName: __RINvMs6_NtCsjK30CmJ87bX_9hashbrown3rawINtB6_8RawTableTNtCseYC8vFNOjrM_2cc12CompilerFlagbEE24find_or_find_insert_slotNCINvNtB8_3map14equivalent_keyBQ_BQ_bE0NCINvB1V_11make_hasherBQ_bNtNtNtCsHUR1vrdMJt_3std4hash6random11RandomStateE0EBS_, symObjAddr: 0x5DC0, symBinAddr: 0x100072460, symSize: 0x160 }
  - { offset: 0xA9F7D, size: 0x8, addend: 0x0, symName: __RINvMs6_NtCsjK30CmJ87bX_9hashbrown3rawINtB6_8RawTableTNtCseYC8vFNOjrM_2cc12CompilerFlagbEE4findNCINvNtB8_3map14equivalent_keyBQ_BQ_bE0EBS_, symObjAddr: 0x5F20, symBinAddr: 0x1000725C0, symSize: 0x480 }
  - { offset: 0xAA489, size: 0x8, addend: 0x0, symName: __RINvMs6_NtCsjK30CmJ87bX_9hashbrown3rawINtB6_8RawTableTNtCseYC8vFNOjrM_2cc12CompilerFlagbEE7reserveNCINvNtB8_3map11make_hasherBQ_bNtNtNtCsHUR1vrdMJt_3std4hash6random11RandomStateE0EBS_, symObjAddr: 0x63A0, symBinAddr: 0x100072A40, symSize: 0xC0 }
  - { offset: 0xAA67B, size: 0x8, addend: 0x0, symName: __RINvMsa_NtCsjK30CmJ87bX_9hashbrown3rawNtB6_13RawTableInner13drop_elementsTINtNtCslJiobkLta79_5alloc5boxed3BoxSIB1b_NtNtNtCsHUR1vrdMJt_3std3ffi6os_str5OsStrEENtNtCseYC8vFNOjrM_2cc4tool10ToolFamilyEEB2z_, symObjAddr: 0x6460, symBinAddr: 0x100072B00, symSize: 0x1D0 }
  - { offset: 0xAA9D2, size: 0x8, addend: 0x0, symName: __RINvMsa_NtCsjK30CmJ87bX_9hashbrown3rawNtB6_13RawTableInner13drop_elementsTINtNtCslJiobkLta79_5alloc5boxed3BoxeEINtNtB1f_4sync3ArcNtNtNtCsHUR1vrdMJt_3std3ffi6os_str5OsStrEEECseYC8vFNOjrM_2cc, symObjAddr: 0x6630, symBinAddr: 0x100072CD0, symSize: 0x1D0 }
  - { offset: 0xAAD29, size: 0x8, addend: 0x0, symName: __RINvMsa_NtCsjK30CmJ87bX_9hashbrown3rawNtB6_13RawTableInner13drop_elementsTINtNtCslJiobkLta79_5alloc5boxed3BoxeEINtNtB1f_4sync3ArceEEECseYC8vFNOjrM_2cc, symObjAddr: 0x6800, symBinAddr: 0x100072EA0, symSize: 0x1D0 }
  - { offset: 0xAB080, size: 0x8, addend: 0x0, symName: __RINvMsa_NtCsjK30CmJ87bX_9hashbrown3rawNtB6_13RawTableInner13drop_elementsTINtNtCslJiobkLta79_5alloc5boxed3BoxeEINtNtCsieiGu2EXtoJ_4core6option6OptionINtNtB1f_4sync3ArcNtNtNtCsHUR1vrdMJt_3std3ffi6os_str5OsStrEEEECseYC8vFNOjrM_2cc, symObjAddr: 0x69D0, symBinAddr: 0x100073070, symSize: 0x1D0 }
  - { offset: 0xAB3D7, size: 0x8, addend: 0x0, symName: __RINvMsa_NtCsjK30CmJ87bX_9hashbrown3rawNtB6_13RawTableInner13drop_elementsTNtCseYC8vFNOjrM_2cc12CompilerFlagbEEB1c_, symObjAddr: 0x6BA0, symBinAddr: 0x100073240, symSize: 0x1D0 }
  - { offset: 0xAB73A, size: 0x8, addend: 0x0, symName: __RINvMsa_NtCsjK30CmJ87bX_9hashbrown3rawNtB6_13RawTableInner16drop_inner_tableTINtNtCslJiobkLta79_5alloc5boxed3BoxSIB1e_NtNtNtCsHUR1vrdMJt_3std3ffi6os_str5OsStrEENtNtCseYC8vFNOjrM_2cc4tool10ToolFamilyENtNtB1i_5alloc6GlobalEB2C_, symObjAddr: 0x6D70, symBinAddr: 0x100073410, symSize: 0xD0 }
  - { offset: 0xAB9B3, size: 0x8, addend: 0x0, symName: __RINvMsa_NtCsjK30CmJ87bX_9hashbrown3rawNtB6_13RawTableInner16drop_inner_tableTINtNtCslJiobkLta79_5alloc5boxed3BoxeEINtNtB1i_4sync3ArcNtNtNtCsHUR1vrdMJt_3std3ffi6os_str5OsStrEENtNtB1i_5alloc6GlobalECseYC8vFNOjrM_2cc, symObjAddr: 0x6E40, symBinAddr: 0x1000734E0, symSize: 0xD0 }
  - { offset: 0xABC2C, size: 0x8, addend: 0x0, symName: __RINvMsa_NtCsjK30CmJ87bX_9hashbrown3rawNtB6_13RawTableInner16drop_inner_tableTINtNtCslJiobkLta79_5alloc5boxed3BoxeEINtNtB1i_4sync3ArceEENtNtB1i_5alloc6GlobalECseYC8vFNOjrM_2cc, symObjAddr: 0x6F10, symBinAddr: 0x1000735B0, symSize: 0xD0 }
  - { offset: 0xABEA5, size: 0x8, addend: 0x0, symName: __RINvMsa_NtCsjK30CmJ87bX_9hashbrown3rawNtB6_13RawTableInner16drop_inner_tableTINtNtCslJiobkLta79_5alloc5boxed3BoxeEINtNtCsieiGu2EXtoJ_4core6option6OptionINtNtB1i_4sync3ArcNtNtNtCsHUR1vrdMJt_3std3ffi6os_str5OsStrEEENtNtB1i_5alloc6GlobalECseYC8vFNOjrM_2cc, symObjAddr: 0x6FE0, symBinAddr: 0x100073680, symSize: 0xD0 }
  - { offset: 0xAC11E, size: 0x8, addend: 0x0, symName: __RINvMsa_NtCsjK30CmJ87bX_9hashbrown3rawNtB6_13RawTableInner16drop_inner_tableTNtCseYC8vFNOjrM_2cc12CompilerFlagbENtNtCslJiobkLta79_5alloc5alloc6GlobalEB1f_, symObjAddr: 0x70B0, symBinAddr: 0x100073750, symSize: 0xD0 }
  - { offset: 0xAC31A, size: 0x8, addend: 0x0, symName: __RINvMsa_NtCsjK30CmJ87bX_9hashbrown3rawNtB6_13RawTableInner17new_uninitializedNtNtCslJiobkLta79_5alloc5alloc6GlobalECseYC8vFNOjrM_2cc, symObjAddr: 0x7180, symBinAddr: 0x100073820, symSize: 0x290 }
  - { offset: 0xAC56E, size: 0x8, addend: 0x0, symName: __RINvMsa_NtCsjK30CmJ87bX_9hashbrown3rawNtB6_13RawTableInner22fallible_with_capacityNtNtCslJiobkLta79_5alloc5alloc6GlobalECseYC8vFNOjrM_2cc, symObjAddr: 0x7410, symBinAddr: 0x100073AB0, symSize: 0x430 }
  - { offset: 0xACA37, size: 0x8, addend: 0x0, symName: __RINvMsi_NtCsjK30CmJ87bX_9hashbrown3rawINtB6_12RawIterRangeTINtNtCslJiobkLta79_5alloc5boxed3BoxSIBW_NtNtNtCsHUR1vrdMJt_3std3ffi6os_str5OsStrEENtNtCseYC8vFNOjrM_2cc4tool10ToolFamilyEE9next_implKb0_EB2j_, symObjAddr: 0x7840, symBinAddr: 0x100073EE0, symSize: 0x290 }
  - { offset: 0xACF41, size: 0x8, addend: 0x0, symName: __RINvMsi_NtCsjK30CmJ87bX_9hashbrown3rawINtB6_12RawIterRangeTINtNtCslJiobkLta79_5alloc5boxed3BoxeEINtNtB10_4sync3ArcNtNtNtCsHUR1vrdMJt_3std3ffi6os_str5OsStrEEE9next_implKb0_ECseYC8vFNOjrM_2cc, symObjAddr: 0x7AD0, symBinAddr: 0x100074170, symSize: 0x290 }
  - { offset: 0xAD44B, size: 0x8, addend: 0x0, symName: __RINvMsi_NtCsjK30CmJ87bX_9hashbrown3rawINtB6_12RawIterRangeTINtNtCslJiobkLta79_5alloc5boxed3BoxeEINtNtB10_4sync3ArceEEE9next_implKb0_ECseYC8vFNOjrM_2cc, symObjAddr: 0x7D60, symBinAddr: 0x100074400, symSize: 0x290 }
  - { offset: 0xAD955, size: 0x8, addend: 0x0, symName: __RINvMsi_NtCsjK30CmJ87bX_9hashbrown3rawINtB6_12RawIterRangeTINtNtCslJiobkLta79_5alloc5boxed3BoxeEINtNtCsieiGu2EXtoJ_4core6option6OptionINtNtB10_4sync3ArcNtNtNtCsHUR1vrdMJt_3std3ffi6os_str5OsStrEEEE9next_implKb0_ECseYC8vFNOjrM_2cc, symObjAddr: 0x7FF0, symBinAddr: 0x100074690, symSize: 0x290 }
  - { offset: 0xADE5F, size: 0x8, addend: 0x0, symName: __RINvMsi_NtCsjK30CmJ87bX_9hashbrown3rawINtB6_12RawIterRangeTNtCseYC8vFNOjrM_2cc12CompilerFlagbEE9next_implKb0_EBX_, symObjAddr: 0x8280, symBinAddr: 0x100074920, symSize: 0x290 }
  - { offset: 0xAF732, size: 0x8, addend: 0x0, symName: __RNvMs1_NtCsjK30CmJ87bX_9hashbrown3rawNtB5_11TableLayout20calculate_layout_forCseYC8vFNOjrM_2cc, symObjAddr: 0x9370, symBinAddr: 0x100075A10, symSize: 0x2F0 }
  - { offset: 0xAFBD5, size: 0x8, addend: 0x0, symName: __RNvMs6_NtCsjK30CmJ87bX_9hashbrown3rawINtB5_8RawTableTINtNtCslJiobkLta79_5alloc5boxed3BoxSIBQ_NtNtNtCsHUR1vrdMJt_3std3ffi6os_str5OsStrEENtNtCseYC8vFNOjrM_2cc4tool10ToolFamilyEE14insert_in_slotB2d_, symObjAddr: 0x9660, symBinAddr: 0x100075D00, symSize: 0x150 }
  - { offset: 0xB0118, size: 0x8, addend: 0x0, symName: __RNvMs6_NtCsjK30CmJ87bX_9hashbrown3rawINtB5_8RawTableTINtNtCslJiobkLta79_5alloc5boxed3BoxeEINtNtBU_4sync3ArcNtNtNtCsHUR1vrdMJt_3std3ffi6os_str5OsStrEEE14insert_in_slotCseYC8vFNOjrM_2cc, symObjAddr: 0x97B0, symBinAddr: 0x100075E50, symSize: 0x150 }
  - { offset: 0xB065B, size: 0x8, addend: 0x0, symName: __RNvMs6_NtCsjK30CmJ87bX_9hashbrown3rawINtB5_8RawTableTINtNtCslJiobkLta79_5alloc5boxed3BoxeEINtNtBU_4sync3ArceEEE14insert_in_slotCseYC8vFNOjrM_2cc, symObjAddr: 0x9900, symBinAddr: 0x100075FA0, symSize: 0x150 }
  - { offset: 0xB0B9E, size: 0x8, addend: 0x0, symName: __RNvMs6_NtCsjK30CmJ87bX_9hashbrown3rawINtB5_8RawTableTINtNtCslJiobkLta79_5alloc5boxed3BoxeEINtNtCsieiGu2EXtoJ_4core6option6OptionINtNtBU_4sync3ArcNtNtNtCsHUR1vrdMJt_3std3ffi6os_str5OsStrEEEE14insert_in_slotCseYC8vFNOjrM_2cc, symObjAddr: 0x9A50, symBinAddr: 0x1000760F0, symSize: 0x150 }
  - { offset: 0xB10E1, size: 0x8, addend: 0x0, symName: __RNvMs6_NtCsjK30CmJ87bX_9hashbrown3rawINtB5_8RawTableTNtCseYC8vFNOjrM_2cc12CompilerFlagbEE14insert_in_slotBR_, symObjAddr: 0x9BA0, symBinAddr: 0x100076240, symSize: 0x140 }
  - { offset: 0xB1581, size: 0x8, addend: 0x0, symName: __RNvMsa_NtCsjK30CmJ87bX_9hashbrown3rawNtB5_13RawTableInner15fix_insert_slotCseYC8vFNOjrM_2cc, symObjAddr: 0x9CE0, symBinAddr: 0x100076380, symSize: 0x140 }
  - { offset: 0xB191A, size: 0x8, addend: 0x0, symName: __RNvMsa_NtCsjK30CmJ87bX_9hashbrown3rawNtB5_13RawTableInner15rehash_in_placeCseYC8vFNOjrM_2cc, symObjAddr: 0x9E20, symBinAddr: 0x1000764C0, symSize: 0x5B0 }
  - { offset: 0xB20E6, size: 0x8, addend: 0x0, symName: __RNvMsa_NtCsjK30CmJ87bX_9hashbrown3rawNtB5_13RawTableInner16find_insert_slotCseYC8vFNOjrM_2cc, symObjAddr: 0xA3D0, symBinAddr: 0x100076A70, symSize: 0x130 }
  - { offset: 0xB22E5, size: 0x8, addend: 0x0, symName: __RNvMsa_NtCsjK30CmJ87bX_9hashbrown3rawNtB5_13RawTableInner19prepare_insert_slotCseYC8vFNOjrM_2cc, symObjAddr: 0xA500, symBinAddr: 0x100076BA0, symSize: 0x60 }
  - { offset: 0xB25D6, size: 0x8, addend: 0x0, symName: __RNvMsa_NtCsjK30CmJ87bX_9hashbrown3rawNtB5_13RawTableInner23prepare_rehash_in_placeCseYC8vFNOjrM_2cc, symObjAddr: 0xA560, symBinAddr: 0x100076C00, symSize: 0x340 }
  - { offset: 0xB2CFD, size: 0x8, addend: 0x0, symName: __RNvMsa_NtCsjK30CmJ87bX_9hashbrown3rawNtB5_13RawTableInner25find_insert_slot_in_groupCseYC8vFNOjrM_2cc, symObjAddr: 0xA8A0, symBinAddr: 0x100076F40, symSize: 0x160 }
  - { offset: 0xB2FFB, size: 0x8, addend: 0x0, symName: __RNvMsa_NtCsjK30CmJ87bX_9hashbrown3rawNtB5_13RawTableInner30find_or_find_insert_slot_innerCseYC8vFNOjrM_2cc, symObjAddr: 0xAA00, symBinAddr: 0x1000770A0, symSize: 0x410 }
  - { offset: 0xB348A, size: 0x8, addend: 0x0, symName: __RNvMsi_NtCsjK30CmJ87bX_9hashbrown3rawINtB5_12RawIterRangeTINtNtCslJiobkLta79_5alloc5boxed3BoxSIBV_NtNtNtCsHUR1vrdMJt_3std3ffi6os_str5OsStrEENtNtCseYC8vFNOjrM_2cc4tool10ToolFamilyEE3newB2i_, symObjAddr: 0xAE10, symBinAddr: 0x1000774B0, symSize: 0x120 }
  - { offset: 0xB37AA, size: 0x8, addend: 0x0, symName: __RNvMsi_NtCsjK30CmJ87bX_9hashbrown3rawINtB5_12RawIterRangeTINtNtCslJiobkLta79_5alloc5boxed3BoxeEINtNtBZ_4sync3ArcNtNtNtCsHUR1vrdMJt_3std3ffi6os_str5OsStrEEE3newCseYC8vFNOjrM_2cc, symObjAddr: 0xAF30, symBinAddr: 0x1000775D0, symSize: 0x120 }
  - { offset: 0xB3ACA, size: 0x8, addend: 0x0, symName: __RNvMsi_NtCsjK30CmJ87bX_9hashbrown3rawINtB5_12RawIterRangeTINtNtCslJiobkLta79_5alloc5boxed3BoxeEINtNtBZ_4sync3ArceEEE3newCseYC8vFNOjrM_2cc, symObjAddr: 0xB050, symBinAddr: 0x1000776F0, symSize: 0x120 }
  - { offset: 0xB3DEA, size: 0x8, addend: 0x0, symName: __RNvMsi_NtCsjK30CmJ87bX_9hashbrown3rawINtB5_12RawIterRangeTINtNtCslJiobkLta79_5alloc5boxed3BoxeEINtNtCsieiGu2EXtoJ_4core6option6OptionINtNtBZ_4sync3ArcNtNtNtCsHUR1vrdMJt_3std3ffi6os_str5OsStrEEEE3newCseYC8vFNOjrM_2cc, symObjAddr: 0xB170, symBinAddr: 0x100077810, symSize: 0x120 }
  - { offset: 0xB410A, size: 0x8, addend: 0x0, symName: __RNvMsi_NtCsjK30CmJ87bX_9hashbrown3rawINtB5_12RawIterRangeTNtCseYC8vFNOjrM_2cc12CompilerFlagbEE3newBW_, symObjAddr: 0xB290, symBinAddr: 0x100077930, symSize: 0x120 }
  - { offset: 0xB7D8C, size: 0x8, addend: 0x0, symName: __RNvMNtCsieiGu2EXtoJ_4core5sliceSRINtNtCslJiobkLta79_5alloc3vec3VechE4iterCseYC8vFNOjrM_2cc, symObjAddr: 0x2370, symBinAddr: 0x100079B30, symSize: 0x20 }
  - { offset: 0xB96B5, size: 0x8, addend: 0x0, symName: __RINvNvMs_NtCslJiobkLta79_5alloc3vecINtB7_3VecppE10retain_mut12process_loopNCNCNCNvNtNtCseYC8vFNOjrM_2cc8parallel14command_runner24run_commands_in_parallel000TNtNtCsHUR1vrdMJt_3std7process7CommandNtB1i_10KillOnDropNtNtB1k_9job_token8JobTokenENtNtB9_5alloc6GlobalKb0_EB1m_, symObjAddr: 0x1CC0, symBinAddr: 0x100079520, symSize: 0xC0 }
  - { offset: 0xB9809, size: 0x8, addend: 0x0, symName: __RINvNvMs_NtCslJiobkLta79_5alloc3vecINtB7_3VecppE10retain_mut12process_loopNCNCNCNvNtNtCseYC8vFNOjrM_2cc8parallel14command_runner24run_commands_in_parallel000TNtNtCsHUR1vrdMJt_3std7process7CommandNtB1i_10KillOnDropNtNtB1k_9job_token8JobTokenENtNtB9_5alloc6GlobalKb1_EB1m_, symObjAddr: 0x1D80, symBinAddr: 0x1000795E0, symSize: 0x130 }
  - { offset: 0xB99FF, size: 0x8, addend: 0x0, symName: __RNvXNvMs_NtCslJiobkLta79_5alloc3vecINtB7_3VecppE10retain_mutINtB2_15BackshiftOnDropTNtNtCsHUR1vrdMJt_3std7process7CommandNtNtNtCseYC8vFNOjrM_2cc8parallel14command_runner10KillOnDropNtNtB1Z_9job_token8JobTokenENtNtB9_5alloc6GlobalENtNtNtCsieiGu2EXtoJ_4core3ops4drop4Drop4dropB21_, symObjAddr: 0x50F0, symBinAddr: 0x10007C660, symSize: 0x190 }
  - { offset: 0xB9C5E, size: 0x8, addend: 0x0, symName: __RNvNvMs_NtCslJiobkLta79_5alloc3vecINtB6_3VecppE13from_parts_in18precondition_checkCseYC8vFNOjrM_2cc, symObjAddr: 0x41B0, symBinAddr: 0x10007B8B0, symSize: 0xA0 }
  - { offset: 0xB9CCC, size: 0x8, addend: 0x0, symName: __RNvNvMs_NtCslJiobkLta79_5alloc3vecINtB6_3VecppE17from_raw_parts_in18precondition_checkCseYC8vFNOjrM_2cc, symObjAddr: 0x4250, symBinAddr: 0x10007B950, symSize: 0xA0 }
  - { offset: 0xB9D3A, size: 0x8, addend: 0x0, symName: __RNvNvMs_NtCslJiobkLta79_5alloc3vecINtB6_3VecppE7set_len18precondition_checkCseYC8vFNOjrM_2cc, symObjAddr: 0x42F0, symBinAddr: 0x10007B9F0, symSize: 0xA0 }
  - { offset: 0xBB2E2, size: 0x8, addend: 0x0, symName: __RINvXsd_NtCslJiobkLta79_5alloc3vecINtB6_3VecINtNtB8_5boxed3BoxNtNtNtCsHUR1vrdMJt_3std3ffi6os_str5OsStrEEINtNtNtNtCsieiGu2EXtoJ_4core4iter6traits7collect12FromIteratorBG_E9from_iterINtNtNtB1L_8adapters3map3MapINtNtB2X_5chain5ChainINtNtB2X_6cloned6ClonedINtNtNtB1N_5slice4iter4IterRBY_EEIB2T_IB43_NtNtB8_6string6StringEINvMsl_B10_BY_3newB4J_EEENvYB4t_INtNtB1N_7convert4IntoBG_E4intoEECseYC8vFNOjrM_2cc, symObjAddr: 0x1EB0, symBinAddr: 0x100079710, symSize: 0x40 }
  - { offset: 0xBB323, size: 0x8, addend: 0x0, symName: __RINvXsd_NtCslJiobkLta79_5alloc3vecINtB6_3VecNtNtB8_6string6StringEINtNtNtNtCsieiGu2EXtoJ_4core4iter6traits7collect12FromIteratorBG_E9from_iterINtNtNtB19_8adapters3map3MapNtNtNtB1b_3str4iter15SplitWhitespaceNCNvMs4_CseYC8vFNOjrM_2ccNtB3q_5Build8env_tool0EEB3q_, symObjAddr: 0x1EF0, symBinAddr: 0x100079750, symSize: 0x40 }
  - { offset: 0xBB364, size: 0x8, addend: 0x0, symName: __RINvXsd_NtCslJiobkLta79_5alloc3vecINtB6_3VecNtNtB8_6string6StringEINtNtNtNtCsieiGu2EXtoJ_4core4iter6traits7collect12FromIteratorBG_E9from_iterINtNtNtB19_8adapters3map3MapNtNtNtB1b_3str4iter15SplitWhitespaceNCNvMs4_CseYC8vFNOjrM_2ccNtB3q_5Build8env_tools_0EEB3q_, symObjAddr: 0x1F30, symBinAddr: 0x100079790, symSize: 0x40 }
  - { offset: 0xBB3A5, size: 0x8, addend: 0x0, symName: __RINvXsd_NtCslJiobkLta79_5alloc3vecINtB6_3VecNtNtCsHUR1vrdMJt_3std4path7PathBufEINtNtNtNtCsieiGu2EXtoJ_4core4iter6traits7collect12FromIteratorBG_E9from_iterINtNtNtB1m_8adapters3map3MapINtNtB6_9into_iter8IntoIterNtCseYC8vFNOjrM_2cc6ObjectENCNvMs4_B3o_NtB3o_5Build25try_compile_intermediates0EEB3o_, symObjAddr: 0x1F70, symBinAddr: 0x1000797D0, symSize: 0x40 }
  - { offset: 0xBB3E6, size: 0x8, addend: 0x0, symName: __RINvXsd_NtCslJiobkLta79_5alloc3vecINtB6_3VecRNtNtCsHUR1vrdMJt_3std4path4PathEINtNtNtNtCsieiGu2EXtoJ_4core4iter6traits7collect12FromIteratorBG_E9from_iterINtNtNtB1k_8adapters5chain5ChainINtNtB2w_3map3MapINtNtNtB1m_5slice4iter4IterNtCseYC8vFNOjrM_2cc6ObjectENCNvMs4_B3H_NtB3H_5Build8assemble0EIB2Y_IB3f_INtNtB8_4sync3ArcBH_EENvYB4P_NtNtNtB1m_3ops5deref5Deref5derefEEEB3H_, symObjAddr: 0x1FB0, symBinAddr: 0x100079810, symSize: 0x40 }
  - { offset: 0xBB427, size: 0x8, addend: 0x0, symName: __RINvXsd_NtCslJiobkLta79_5alloc3vecINtB6_3VecReEINtNtNtNtCsieiGu2EXtoJ_4core4iter6traits7collect12FromIteratorBG_E9from_iterINtNtNtBS_3str4iter5SplitcEECseYC8vFNOjrM_2cc, symObjAddr: 0x1FF0, symBinAddr: 0x100079850, symSize: 0x40 }
  - { offset: 0xBB468, size: 0x8, addend: 0x0, symName: __RINvXsd_NtCslJiobkLta79_5alloc3vecINtB6_3VecTNtNtNtCsHUR1vrdMJt_3std3ffi6os_str8OsStringBH_EEINtNtNtNtCsieiGu2EXtoJ_4core4iter6traits7collect12FromIteratorBG_E9from_iterINtNtNtB1A_8adapters3map3MapINtNtNtB1C_5slice4iter4IterBG_ENCNvMNtCseYC8vFNOjrM_2cc4toolNtB3J_4Tool20from_find_msvc_tools0EEB3L_, symObjAddr: 0x2030, symBinAddr: 0x100079890, symSize: 0x60 }
  - { offset: 0xBB4A8, size: 0x8, addend: 0x0, symName: __RINvXsd_NtCslJiobkLta79_5alloc3vecINtB6_3VechEINtNtNtNtCsieiGu2EXtoJ_4core4iter6traits7collect12FromIteratorhE9from_iterINtNtNtBP_8adapters3map3MapINtNtNtBR_5slice4iter4IterhENCNvNtB8_3str13replace_ascii0EECseYC8vFNOjrM_2cc, symObjAddr: 0x2090, symBinAddr: 0x1000798F0, symSize: 0x40 }
  - { offset: 0xBB4EF, size: 0x8, addend: 0x0, symName: __RINvXsh_NtCslJiobkLta79_5alloc3vecINtB6_3VecNtNtB8_6string6StringEINtNtNtNtCsieiGu2EXtoJ_4core4iter6traits7collect6ExtendBG_E6extendINtNtNtB19_8adapters3map3MapNtNtNtB1b_3str4iter20SplitAsciiWhitespaceNvYeNtBI_8ToString9to_stringEECseYC8vFNOjrM_2cc, symObjAddr: 0x2110, symBinAddr: 0x100079930, symSize: 0x40 }
  - { offset: 0xBB544, size: 0x8, addend: 0x0, symName: __RINvXsh_NtCslJiobkLta79_5alloc3vecINtB6_3VecNtNtB8_6string6StringEINtNtNtNtCsieiGu2EXtoJ_4core4iter6traits7collect6ExtendBG_E6extendNtCs6EOBT9HYl7a_5shlex5ShlexECseYC8vFNOjrM_2cc, symObjAddr: 0x2150, symBinAddr: 0x100079970, symSize: 0x40 }
  - { offset: 0xBB599, size: 0x8, addend: 0x0, symName: __RINvXsh_NtCslJiobkLta79_5alloc3vecINtB6_3VecNtNtNtCsHUR1vrdMJt_3std3ffi6os_str8OsStringEINtNtNtNtCsieiGu2EXtoJ_4core4iter6traits7collect6ExtendBG_E6extendABG_j6_ECseYC8vFNOjrM_2cc, symObjAddr: 0x2190, symBinAddr: 0x1000799B0, symSize: 0x50 }
  - { offset: 0xBB5F9, size: 0x8, addend: 0x0, symName: __RNCINvMsi_NtCslJiobkLta79_5alloc3vecINtB8_3VecINtNtBa_5boxed3BoxNtNtNtCsHUR1vrdMJt_3std3ffi6os_str5OsStrEE14extend_trustedINtNtNtNtCsieiGu2EXtoJ_4core4iter8adapters3map3MapINtNtB21_5chain5ChainINtNtB21_6cloned6ClonedINtNtNtB25_5slice4iter4IterRB10_EEIB1X_IB3t_NtNtBa_6string6StringEINvMsl_B12_B10_3newB4a_EEENvYB3T_INtNtB25_7convert4IntoBI_E4intoEE0CseYC8vFNOjrM_2cc, symObjAddr: 0x2240, symBinAddr: 0x100079A00, symSize: 0x40 }
  - { offset: 0xBB6B6, size: 0x8, addend: 0x0, symName: __RNCINvMsi_NtCslJiobkLta79_5alloc3vecINtB8_3VecNtNtNtCsHUR1vrdMJt_3std3ffi6os_str8OsStringE14extend_trustedINtNtNtCsieiGu2EXtoJ_4core5array4iter8IntoIterBI_Kj6_EE0CseYC8vFNOjrM_2cc, symObjAddr: 0x2280, symBinAddr: 0x100079A40, symSize: 0x40 }
  - { offset: 0xBB75E, size: 0x8, addend: 0x0, symName: __RNCINvMsi_NtCslJiobkLta79_5alloc3vecINtB8_3VecRNtNtCsHUR1vrdMJt_3std4path4PathE14extend_trustedINtNtNtNtCsieiGu2EXtoJ_4core4iter8adapters5chain5ChainINtNtB1A_3map3MapINtNtNtB1E_5slice4iter4IterNtCseYC8vFNOjrM_2cc6ObjectENCNvMs4_B37_NtB37_5Build8assemble0EIB2o_IB2F_INtNtBa_4sync3ArcBJ_EENvYB4f_NtNtNtB1E_3ops5deref5Deref5derefEEE0B37_, symObjAddr: 0x22C0, symBinAddr: 0x100079A80, symSize: 0x40 }
  - { offset: 0xBB81B, size: 0x8, addend: 0x0, symName: __RNCINvMsi_NtCslJiobkLta79_5alloc3vecINtB8_3VecTNtNtNtCsHUR1vrdMJt_3std3ffi6os_str8OsStringBJ_EE14extend_trustedINtNtNtNtCsieiGu2EXtoJ_4core4iter8adapters3map3MapINtNtNtB1U_5slice4iter4IterBI_ENCNvMNtCseYC8vFNOjrM_2cc4toolNtB39_4Tool20from_find_msvc_tools0EE0B3b_, symObjAddr: 0x2300, symBinAddr: 0x100079AC0, symSize: 0x40 }
  - { offset: 0xBB8C4, size: 0x8, addend: 0x0, symName: __RNCINvMsi_NtCslJiobkLta79_5alloc3vecINtB8_3VechE14extend_trustedINtNtNtNtCsieiGu2EXtoJ_4core4iter8adapters3map3MapINtNtNtB19_5slice4iter4IterhENCNvNtBa_3str13replace_ascii0EE0CseYC8vFNOjrM_2cc, symObjAddr: 0x2340, symBinAddr: 0x100079B00, symSize: 0x30 }
  - { offset: 0xBBD78, size: 0x8, addend: 0x0, symName: __RNvXNtNtCslJiobkLta79_5alloc3vec11spec_extendINtB4_3VecNtNtB6_6string6StringEINtB2_10SpecExtendBR_INtNtNtNtCsieiGu2EXtoJ_4core4iter8adapters3map3MapNtNtNtB1H_3str4iter15SplitWhitespaceNCNvMs4_CseYC8vFNOjrM_2ccNtB34_5Build8env_tool0EE11spec_extendB34_, symObjAddr: 0x4390, symBinAddr: 0x10007BA90, symSize: 0x20 }
  - { offset: 0xBBDCA, size: 0x8, addend: 0x0, symName: __RNvXNtNtCslJiobkLta79_5alloc3vec11spec_extendINtB4_3VecNtNtB6_6string6StringEINtB2_10SpecExtendBR_INtNtNtNtCsieiGu2EXtoJ_4core4iter8adapters3map3MapNtNtNtB1H_3str4iter15SplitWhitespaceNCNvMs4_CseYC8vFNOjrM_2ccNtB34_5Build8env_tools_0EE11spec_extendB34_, symObjAddr: 0x43B0, symBinAddr: 0x10007BAB0, symSize: 0x20 }
  - { offset: 0xBBE1C, size: 0x8, addend: 0x0, symName: __RNvXNtNtCslJiobkLta79_5alloc3vec11spec_extendINtB4_3VecNtNtB6_6string6StringEINtB2_10SpecExtendBR_INtNtNtNtCsieiGu2EXtoJ_4core4iter8adapters3map3MapNtNtNtB1H_3str4iter20SplitAsciiWhitespaceNvYeNtBT_8ToString9to_stringEE11spec_extendCseYC8vFNOjrM_2cc, symObjAddr: 0x43D0, symBinAddr: 0x10007BAD0, symSize: 0x20 }
  - { offset: 0xBBE6E, size: 0x8, addend: 0x0, symName: __RNvXNtNtCslJiobkLta79_5alloc3vec11spec_extendINtB4_3VecNtNtB6_6string6StringEINtB2_10SpecExtendBR_NtCs6EOBT9HYl7a_5shlex5ShlexE11spec_extendCseYC8vFNOjrM_2cc, symObjAddr: 0x43F0, symBinAddr: 0x10007BAF0, symSize: 0x20 }
  - { offset: 0xBBEC0, size: 0x8, addend: 0x0, symName: __RNvXNtNtCslJiobkLta79_5alloc3vec11spec_extendINtB4_3VecReEINtB2_10SpecExtendBR_INtNtNtCsieiGu2EXtoJ_4core3str4iter5SplitcEE11spec_extendCseYC8vFNOjrM_2cc, symObjAddr: 0x4410, symBinAddr: 0x10007BB10, symSize: 0x20 }
  - { offset: 0xBBF18, size: 0x8, addend: 0x0, symName: __RNvXs_NtNtCslJiobkLta79_5alloc3vec11spec_extendINtB6_3VecINtNtB8_5boxed3BoxNtNtNtCsHUR1vrdMJt_3std3ffi6os_str5OsStrEEINtB4_10SpecExtendBT_INtNtNtNtCsieiGu2EXtoJ_4core4iter8adapters3map3MapINtNtB2h_5chain5ChainINtNtB2h_6cloned6ClonedINtNtNtB2l_5slice4iter4IterRB1b_EEIB2d_IB3J_NtNtB8_6string6StringEINvMsl_B1d_B1b_3newB4q_EEENvYB49_INtNtB2l_7convert4IntoBT_E4intoEE11spec_extendCseYC8vFNOjrM_2cc, symObjAddr: 0x56A0, symBinAddr: 0x10007CBF0, symSize: 0x20 }
  - { offset: 0xBBF6A, size: 0x8, addend: 0x0, symName: __RNvXs_NtNtCslJiobkLta79_5alloc3vec11spec_extendINtB6_3VecNtNtNtCsHUR1vrdMJt_3std3ffi6os_str8OsStringEINtB4_10SpecExtendBT_INtNtNtCsieiGu2EXtoJ_4core5array4iter8IntoIterBT_Kj6_EE11spec_extendCseYC8vFNOjrM_2cc, symObjAddr: 0x56C0, symBinAddr: 0x10007CC10, symSize: 0x20 }
  - { offset: 0xBBFBC, size: 0x8, addend: 0x0, symName: __RNvXs_NtNtCslJiobkLta79_5alloc3vec11spec_extendINtB6_3VecRNtNtCsHUR1vrdMJt_3std4path4PathEINtB4_10SpecExtendBT_INtNtNtNtCsieiGu2EXtoJ_4core4iter8adapters5chain5ChainINtNtB1Q_3map3MapINtNtNtB1U_5slice4iter4IterNtCseYC8vFNOjrM_2cc6ObjectENCNvMs4_B3n_NtB3n_5Build8assemble0EIB2E_IB2V_INtNtB8_4sync3ArcBU_EENvYB4v_NtNtNtB1U_3ops5deref5Deref5derefEEE11spec_extendB3n_, symObjAddr: 0x56E0, symBinAddr: 0x10007CC30, symSize: 0x20 }
  - { offset: 0xBC00E, size: 0x8, addend: 0x0, symName: __RNvXs_NtNtCslJiobkLta79_5alloc3vec11spec_extendINtB6_3VecTNtNtNtCsHUR1vrdMJt_3std3ffi6os_str8OsStringBU_EEINtB4_10SpecExtendBT_INtNtNtNtCsieiGu2EXtoJ_4core4iter8adapters3map3MapINtNtNtB2a_5slice4iter4IterBT_ENCNvMNtCseYC8vFNOjrM_2cc4toolNtB3p_4Tool20from_find_msvc_tools0EE11spec_extendB3r_, symObjAddr: 0x5700, symBinAddr: 0x10007CC50, symSize: 0x20 }
  - { offset: 0xBC05F, size: 0x8, addend: 0x0, symName: __RNvXs_NtNtCslJiobkLta79_5alloc3vec11spec_extendINtB6_3VechEINtB4_10SpecExtendhINtNtNtNtCsieiGu2EXtoJ_4core4iter8adapters3map3MapINtNtNtB1n_5slice4iter4IterhENCNvNtB8_3str13replace_ascii0EE11spec_extendCseYC8vFNOjrM_2cc, symObjAddr: 0x5720, symBinAddr: 0x10007CC70, symSize: 0x20 }
  - { offset: 0xBC0BD, size: 0x8, addend: 0x0, symName: __RNvXNtNtCslJiobkLta79_5alloc3vec14spec_from_iterINtB4_3VecINtNtB6_5boxed3BoxNtNtNtCsHUR1vrdMJt_3std3ffi6os_str5OsStrEEINtB2_12SpecFromIterBU_INtNtNtNtCsieiGu2EXtoJ_4core4iter8adapters3map3MapINtNtB2k_5chain5ChainINtNtB2k_6cloned6ClonedINtNtNtB2o_5slice4iter4IterRB1c_EEIB2g_IB3M_NtNtB6_6string6StringEINvMsl_B1e_B1c_3newB4t_EEENvYB4c_INtNtB2o_7convert4IntoBU_E4intoEE9from_iterCseYC8vFNOjrM_2cc, symObjAddr: 0x4430, symBinAddr: 0x10007BB30, symSize: 0x20 }
  - { offset: 0xBC0FC, size: 0x8, addend: 0x0, symName: __RNvXNtNtCslJiobkLta79_5alloc3vec14spec_from_iterINtB4_3VecNtNtB6_6string6StringEINtB2_12SpecFromIterBU_INtNtNtNtCsieiGu2EXtoJ_4core4iter8adapters3map3MapNtNtNtB1M_3str4iter15SplitWhitespaceNCNvMs4_CseYC8vFNOjrM_2ccNtB39_5Build8env_tool0EE9from_iterB39_, symObjAddr: 0x4450, symBinAddr: 0x10007BB50, symSize: 0x20 }
  - { offset: 0xBC13B, size: 0x8, addend: 0x0, symName: __RNvXNtNtCslJiobkLta79_5alloc3vec14spec_from_iterINtB4_3VecNtNtB6_6string6StringEINtB2_12SpecFromIterBU_INtNtNtNtCsieiGu2EXtoJ_4core4iter8adapters3map3MapNtNtNtB1M_3str4iter15SplitWhitespaceNCNvMs4_CseYC8vFNOjrM_2ccNtB39_5Build8env_tools_0EE9from_iterB39_, symObjAddr: 0x4470, symBinAddr: 0x10007BB70, symSize: 0x20 }
  - { offset: 0xBC17A, size: 0x8, addend: 0x0, symName: __RNvXNtNtCslJiobkLta79_5alloc3vec14spec_from_iterINtB4_3VecRNtNtCsHUR1vrdMJt_3std4path4PathEINtB2_12SpecFromIterBU_INtNtNtNtCsieiGu2EXtoJ_4core4iter8adapters5chain5ChainINtNtB1T_3map3MapINtNtNtB1X_5slice4iter4IterNtCseYC8vFNOjrM_2cc6ObjectENCNvMs4_B3q_NtB3q_5Build8assemble0EIB2H_IB2Y_INtNtB6_4sync3ArcBV_EENvYB4y_NtNtNtB1X_3ops5deref5Deref5derefEEE9from_iterB3q_, symObjAddr: 0x4490, symBinAddr: 0x10007BB90, symSize: 0x20 }
  - { offset: 0xBC1B9, size: 0x8, addend: 0x0, symName: __RNvXNtNtCslJiobkLta79_5alloc3vec14spec_from_iterINtB4_3VecReEINtB2_12SpecFromIterBU_INtNtNtCsieiGu2EXtoJ_4core3str4iter5SplitcEE9from_iterCseYC8vFNOjrM_2cc, symObjAddr: 0x44B0, symBinAddr: 0x10007BBB0, symSize: 0x20 }
  - { offset: 0xBC1F8, size: 0x8, addend: 0x0, symName: __RNvXNtNtCslJiobkLta79_5alloc3vec14spec_from_iterINtB4_3VecTNtNtNtCsHUR1vrdMJt_3std3ffi6os_str8OsStringBV_EEINtB2_12SpecFromIterBU_INtNtNtNtCsieiGu2EXtoJ_4core4iter8adapters3map3MapINtNtNtB2d_5slice4iter4IterBU_ENCNvMNtCseYC8vFNOjrM_2cc4toolNtB3s_4Tool20from_find_msvc_tools0EE9from_iterB3u_, symObjAddr: 0x44D0, symBinAddr: 0x10007BBD0, symSize: 0x30 }
  - { offset: 0xBC236, size: 0x8, addend: 0x0, symName: __RNvXNtNtCslJiobkLta79_5alloc3vec14spec_from_iterINtB4_3VechEINtB2_12SpecFromIterhINtNtNtNtCsieiGu2EXtoJ_4core4iter8adapters3map3MapINtNtNtB1q_5slice4iter4IterhENCNvNtB6_3str13replace_ascii0EE9from_iterCseYC8vFNOjrM_2cc, symObjAddr: 0x4500, symBinAddr: 0x10007BC00, symSize: 0x20 }
  - { offset: 0xBC281, size: 0x8, addend: 0x0, symName: __RNvXNtNtCslJiobkLta79_5alloc3vec21spec_from_iter_nestedINtB4_3VecNtNtB6_6string6StringEINtB2_18SpecFromIterNestedB11_INtNtNtNtCsieiGu2EXtoJ_4core4iter8adapters3map3MapNtNtNtB20_3str4iter15SplitWhitespaceNCNvMs4_CseYC8vFNOjrM_2ccNtB3n_5Build8env_tool0EE9from_iterB3n_, symObjAddr: 0x4520, symBinAddr: 0x10007BC20, symSize: 0x380 }
  - { offset: 0xBC536, size: 0x8, addend: 0x0, symName: __RNvXNtNtCslJiobkLta79_5alloc3vec21spec_from_iter_nestedINtB4_3VecNtNtB6_6string6StringEINtB2_18SpecFromIterNestedB11_INtNtNtNtCsieiGu2EXtoJ_4core4iter8adapters3map3MapNtNtNtB20_3str4iter15SplitWhitespaceNCNvMs4_CseYC8vFNOjrM_2ccNtB3n_5Build8env_tools_0EE9from_iterB3n_, symObjAddr: 0x48A0, symBinAddr: 0x10007BFA0, symSize: 0x380 }
  - { offset: 0xBC7EB, size: 0x8, addend: 0x0, symName: __RNvXNtNtCslJiobkLta79_5alloc3vec21spec_from_iter_nestedINtB4_3VecReEINtB2_18SpecFromIterNestedB11_INtNtNtCsieiGu2EXtoJ_4core3str4iter5SplitcEE9from_iterCseYC8vFNOjrM_2cc, symObjAddr: 0x4C20, symBinAddr: 0x10007C320, symSize: 0x340 }
  - { offset: 0xBCAAB, size: 0x8, addend: 0x0, symName: __RNvXs_NtNtCslJiobkLta79_5alloc3vec21spec_from_iter_nestedINtB6_3VecINtNtB8_5boxed3BoxNtNtNtCsHUR1vrdMJt_3std3ffi6os_str5OsStrEEINtB4_18SpecFromIterNestedB13_INtNtNtNtCsieiGu2EXtoJ_4core4iter8adapters3map3MapINtNtB2A_5chain5ChainINtNtB2A_6cloned6ClonedINtNtNtB2E_5slice4iter4IterRB1l_EEIB2w_IB42_NtNtB8_6string6StringEINvMsl_B1n_B1l_3newB4J_EEENvYB4s_INtNtB2E_7convert4IntoB13_E4intoEE9from_iterCseYC8vFNOjrM_2cc, symObjAddr: 0x5770, symBinAddr: 0x10007CCC0, symSize: 0x1C0 }
  - { offset: 0xBCB83, size: 0x8, addend: 0x0, symName: __RNvXs_NtNtCslJiobkLta79_5alloc3vec21spec_from_iter_nestedINtB6_3VecRNtNtCsHUR1vrdMJt_3std4path4PathEINtB4_18SpecFromIterNestedB13_INtNtNtNtCsieiGu2EXtoJ_4core4iter8adapters5chain5ChainINtNtB29_3map3MapINtNtNtB2d_5slice4iter4IterNtCseYC8vFNOjrM_2cc6ObjectENCNvMs4_B3G_NtB3G_5Build8assemble0EIB2X_IB3e_INtNtB8_4sync3ArcB14_EENvYB4O_NtNtNtB2d_3ops5deref5Deref5derefEEE9from_iterB3G_, symObjAddr: 0x5930, symBinAddr: 0x10007CE80, symSize: 0x1C0 }
  - { offset: 0xBCC5B, size: 0x8, addend: 0x0, symName: __RNvXs_NtNtCslJiobkLta79_5alloc3vec21spec_from_iter_nestedINtB6_3VecTNtNtNtCsHUR1vrdMJt_3std3ffi6os_str8OsStringB14_EEINtB4_18SpecFromIterNestedB13_INtNtNtNtCsieiGu2EXtoJ_4core4iter8adapters3map3MapINtNtNtB2u_5slice4iter4IterB13_ENCNvMNtCseYC8vFNOjrM_2cc4toolNtB3K_4Tool20from_find_msvc_tools0EE9from_iterB3M_, symObjAddr: 0x5AF0, symBinAddr: 0x10007D040, symSize: 0x1B0 }
  - { offset: 0xBCD33, size: 0x8, addend: 0x0, symName: __RNvXs_NtNtCslJiobkLta79_5alloc3vec21spec_from_iter_nestedINtB6_3VechEINtB4_18SpecFromIterNestedhINtNtNtNtCsieiGu2EXtoJ_4core4iter8adapters3map3MapINtNtNtB1F_5slice4iter4IterhENCNvNtB8_3str13replace_ascii0EE9from_iterCseYC8vFNOjrM_2cc, symObjAddr: 0x5CA0, symBinAddr: 0x10007D1F0, symSize: 0x1C0 }
  - { offset: 0xBCE12, size: 0x8, addend: 0x0, symName: __RNvXs6_NtCslJiobkLta79_5alloc3vecINtB5_3VecINtNtB7_4sync3ArcNtNtCsHUR1vrdMJt_3std4path4PathEENtNtNtCsieiGu2EXtoJ_4core3ops5deref5Deref5derefCseYC8vFNOjrM_2cc, symObjAddr: 0x5280, symBinAddr: 0x10007C7F0, symSize: 0x20 }
  - { offset: 0xBCE52, size: 0x8, addend: 0x0, symName: __RNvXs6_NtCslJiobkLta79_5alloc3vecINtB5_3VecINtNtB7_4sync3ArcNtNtNtCsHUR1vrdMJt_3std3ffi6os_str5OsStrEENtNtNtCsieiGu2EXtoJ_4core3ops5deref5Deref5derefCseYC8vFNOjrM_2cc, symObjAddr: 0x52A0, symBinAddr: 0x10007C810, symSize: 0x20 }
  - { offset: 0xBCE92, size: 0x8, addend: 0x0, symName: __RNvXs6_NtCslJiobkLta79_5alloc3vecINtB5_3VecNtCseYC8vFNOjrM_2cc6ObjectENtNtNtCsieiGu2EXtoJ_4core3ops5deref5Deref5derefBH_, symObjAddr: 0x52C0, symBinAddr: 0x10007C830, symSize: 0x20 }
  - { offset: 0xBCED2, size: 0x8, addend: 0x0, symName: __RNvXs6_NtCslJiobkLta79_5alloc3vecINtB5_3VecNtNtB7_6string6StringENtNtNtCsieiGu2EXtoJ_4core3ops5deref5Deref5derefCseYC8vFNOjrM_2cc, symObjAddr: 0x52E0, symBinAddr: 0x10007C850, symSize: 0x20 }
  - { offset: 0xBCF12, size: 0x8, addend: 0x0, symName: __RNvXs6_NtCslJiobkLta79_5alloc3vecINtB5_3VecNtNtNtCsHUR1vrdMJt_3std3ffi6os_str8OsStringENtNtNtCsieiGu2EXtoJ_4core3ops5deref5Deref5derefCseYC8vFNOjrM_2cc, symObjAddr: 0x5300, symBinAddr: 0x10007C870, symSize: 0x20 }
  - { offset: 0xBCF52, size: 0x8, addend: 0x0, symName: __RNvXs6_NtCslJiobkLta79_5alloc3vecINtB5_3VecRNtNtCsHUR1vrdMJt_3std4path4PathENtNtNtCsieiGu2EXtoJ_4core3ops5deref5Deref5derefCseYC8vFNOjrM_2cc, symObjAddr: 0x5320, symBinAddr: 0x10007C890, symSize: 0x20 }
  - { offset: 0xBCF92, size: 0x8, addend: 0x0, symName: __RNvXs6_NtCslJiobkLta79_5alloc3vecINtB5_3VecReENtNtNtCsieiGu2EXtoJ_4core3ops5deref5Deref5derefCseYC8vFNOjrM_2cc, symObjAddr: 0x5340, symBinAddr: 0x10007C8B0, symSize: 0x20 }
  - { offset: 0xBCFD2, size: 0x8, addend: 0x0, symName: __RNvXs6_NtCslJiobkLta79_5alloc3vecINtB5_3VecTINtNtB7_4sync3ArcNtNtNtCsHUR1vrdMJt_3std3ffi6os_str5OsStrEBG_EENtNtNtCsieiGu2EXtoJ_4core3ops5deref5Deref5derefCseYC8vFNOjrM_2cc, symObjAddr: 0x5360, symBinAddr: 0x10007C8D0, symSize: 0x20 }
  - { offset: 0xBD012, size: 0x8, addend: 0x0, symName: __RNvXs6_NtCslJiobkLta79_5alloc3vecINtB5_3VecTINtNtB7_4sync3ArceEINtNtCsieiGu2EXtoJ_4core6option6OptionBG_EEENtNtNtB14_3ops5deref5Deref5derefCseYC8vFNOjrM_2cc, symObjAddr: 0x5380, symBinAddr: 0x10007C8F0, symSize: 0x20 }
  - { offset: 0xBD052, size: 0x8, addend: 0x0, symName: __RNvXs6_NtCslJiobkLta79_5alloc3vecINtB5_3VechENtNtNtCsieiGu2EXtoJ_4core3ops5deref5Deref5derefCseYC8vFNOjrM_2cc, symObjAddr: 0x53A0, symBinAddr: 0x10007C910, symSize: 0x20 }
  - { offset: 0xBD248, size: 0x8, addend: 0x0, symName: __RNvXs7_NtCslJiobkLta79_5alloc3vecINtB5_3VechENtNtNtCsieiGu2EXtoJ_4core3ops5deref8DerefMut9deref_mutCseYC8vFNOjrM_2cc, symObjAddr: 0x53C0, symBinAddr: 0x10007C930, symSize: 0x20 }
  - { offset: 0xBD2BE, size: 0x8, addend: 0x0, symName: __RNvXs9_NtCslJiobkLta79_5alloc3vecINtB5_3VecNtNtB7_6string6StringENtNtCsieiGu2EXtoJ_4core5clone5Clone5cloneCseYC8vFNOjrM_2cc, symObjAddr: 0x53E0, symBinAddr: 0x10007C950, symSize: 0x90 }
  - { offset: 0xBD48F, size: 0x8, addend: 0x0, symName: __RNvXs9_NtCslJiobkLta79_5alloc3vecINtB5_3VecNtNtNtCsHUR1vrdMJt_3std3ffi6os_str8OsStringENtNtCsieiGu2EXtoJ_4core5clone5Clone5cloneCseYC8vFNOjrM_2cc, symObjAddr: 0x5470, symBinAddr: 0x10007C9E0, symSize: 0x90 }
  - { offset: 0xBD660, size: 0x8, addend: 0x0, symName: __RNvXs9_NtCslJiobkLta79_5alloc3vecINtB5_3VecTNtNtNtCsHUR1vrdMJt_3std3ffi6os_str8OsStringBG_EENtNtCsieiGu2EXtoJ_4core5clone5Clone5cloneCseYC8vFNOjrM_2cc, symObjAddr: 0x5500, symBinAddr: 0x10007CA70, symSize: 0x90 }
  - { offset: 0xBD831, size: 0x8, addend: 0x0, symName: __RNvXs9_NtCslJiobkLta79_5alloc3vecINtB5_3VechENtNtCsieiGu2EXtoJ_4core5clone5Clone10clone_fromCseYC8vFNOjrM_2cc, symObjAddr: 0x5590, symBinAddr: 0x10007CB00, symSize: 0x60 }
  - { offset: 0xBD91F, size: 0x8, addend: 0x0, symName: __RNvXs9_NtCslJiobkLta79_5alloc3vecINtB5_3VechENtNtCsieiGu2EXtoJ_4core5clone5Clone5cloneCseYC8vFNOjrM_2cc, symObjAddr: 0x55F0, symBinAddr: 0x10007CB60, symSize: 0x90 }
  - { offset: 0xBDAFB, size: 0x8, addend: 0x0, symName: __RNvXs_NtNtCslJiobkLta79_5alloc3vec16in_place_collectINtB6_3VecNtNtCsHUR1vrdMJt_3std4path7PathBufEINtNtB6_14spec_from_iter12SpecFromIterBY_INtNtNtNtCsieiGu2EXtoJ_4core4iter8adapters3map3MapINtNtB6_9into_iter8IntoIterNtCseYC8vFNOjrM_2cc6ObjectENCNvMs4_B3t_NtB3t_5Build25try_compile_intermediates0EE9from_iterB3t_, symObjAddr: 0x5740, symBinAddr: 0x10007CC90, symSize: 0x30 }
  - { offset: 0xBDB5E, size: 0x8, addend: 0x0, symName: __RNvXsb_NtCslJiobkLta79_5alloc3vecINtB5_3VechEINtNtNtCsieiGu2EXtoJ_4core3ops5index5IndexINtNtBM_5range7RangeTojEE5indexCseYC8vFNOjrM_2cc, symObjAddr: 0x5E60, symBinAddr: 0x10007D3B0, symSize: 0x110 }
  - { offset: 0xBDD6D, size: 0x8, addend: 0x0, symName: __RNvXsc_NtCslJiobkLta79_5alloc3vecINtB5_3VechEINtNtNtCsieiGu2EXtoJ_4core3ops5index8IndexMutINtNtBM_5range9RangeFromjEE9index_mutCseYC8vFNOjrM_2cc, symObjAddr: 0x5F70, symBinAddr: 0x10007D4C0, symSize: 0x70 }
  - { offset: 0xBDEC7, size: 0x8, addend: 0x0, symName: __RNvXse_NtCslJiobkLta79_5alloc3vecINtB5_3VecNtCseYC8vFNOjrM_2cc6ObjectENtNtNtNtCsieiGu2EXtoJ_4core4iter6traits7collect12IntoIterator9into_iterBH_, symObjAddr: 0x5FE0, symBinAddr: 0x10007D530, symSize: 0x140 }
  - { offset: 0xBE157, size: 0x8, addend: 0x0, symName: __RNvXse_NtCslJiobkLta79_5alloc3vecINtB5_3VecNtNtB7_6string6StringENtNtNtNtCsieiGu2EXtoJ_4core4iter6traits7collect12IntoIterator9into_iterCseYC8vFNOjrM_2cc, symObjAddr: 0x6120, symBinAddr: 0x10007D670, symSize: 0x140 }
  - { offset: 0xBE3ED, size: 0x8, addend: 0x0, symName: __RNvXsf_NtCslJiobkLta79_5alloc3vecRINtB5_3VecINtNtB7_4sync3ArcNtNtNtCsHUR1vrdMJt_3std3ffi6os_str5OsStrEENtNtNtNtCsieiGu2EXtoJ_4core4iter6traits7collect12IntoIterator9into_iterCseYC8vFNOjrM_2cc, symObjAddr: 0x6260, symBinAddr: 0x10007D7B0, symSize: 0x80 }
  - { offset: 0xBE61A, size: 0x8, addend: 0x0, symName: __RNvXsf_NtCslJiobkLta79_5alloc3vecRINtB5_3VecNtNtB7_6string6StringENtNtNtNtCsieiGu2EXtoJ_4core4iter6traits7collect12IntoIterator9into_iterCseYC8vFNOjrM_2cc, symObjAddr: 0x62E0, symBinAddr: 0x10007D830, symSize: 0x80 }
  - { offset: 0xBE847, size: 0x8, addend: 0x0, symName: __RNvXsf_NtCslJiobkLta79_5alloc3vecRINtB5_3VecNtNtNtCsHUR1vrdMJt_3std3ffi6os_str8OsStringENtNtNtNtCsieiGu2EXtoJ_4core4iter6traits7collect12IntoIterator9into_iterCseYC8vFNOjrM_2cc, symObjAddr: 0x6360, symBinAddr: 0x10007D8B0, symSize: 0x80 }
  - { offset: 0xBEA74, size: 0x8, addend: 0x0, symName: __RNvXsf_NtCslJiobkLta79_5alloc3vecRINtB5_3VecTNtNtNtCsHUR1vrdMJt_3std3ffi6os_str8OsStringBH_EENtNtNtNtCsieiGu2EXtoJ_4core4iter6traits7collect12IntoIterator9into_iterCseYC8vFNOjrM_2cc, symObjAddr: 0x63E0, symBinAddr: 0x10007D930, symSize: 0x80 }
  - { offset: 0xBECA7, size: 0x8, addend: 0x0, symName: __RNvXsn_NtCslJiobkLta79_5alloc3vecINtB5_3VecINtNtB7_4sync3ArcNtNtCsHUR1vrdMJt_3std4path4PathEENtNtNtCsieiGu2EXtoJ_4core3ops4drop4Drop4dropCseYC8vFNOjrM_2cc, symObjAddr: 0x6460, symBinAddr: 0x10007D9B0, symSize: 0x30 }
  - { offset: 0xBED57, size: 0x8, addend: 0x0, symName: __RNvXsn_NtCslJiobkLta79_5alloc3vecINtB5_3VecINtNtB7_4sync3ArcNtNtNtCsHUR1vrdMJt_3std3ffi6os_str5OsStrEENtNtNtCsieiGu2EXtoJ_4core3ops4drop4Drop4dropCseYC8vFNOjrM_2cc, symObjAddr: 0x6490, symBinAddr: 0x10007D9E0, symSize: 0x30 }
  - { offset: 0xBEE07, size: 0x8, addend: 0x0, symName: __RNvXsn_NtCslJiobkLta79_5alloc3vecINtB5_3VecINtNtB7_5boxed3BoxNtNtNtCsHUR1vrdMJt_3std3ffi6os_str5OsStrEENtNtNtCsieiGu2EXtoJ_4core3ops4drop4Drop4dropCseYC8vFNOjrM_2cc, symObjAddr: 0x64C0, symBinAddr: 0x10007DA10, symSize: 0x30 }
  - { offset: 0xBEEB7, size: 0x8, addend: 0x0, symName: __RNvXsn_NtCslJiobkLta79_5alloc3vecINtB5_3VecNtCseYC8vFNOjrM_2cc6ObjectENtNtNtCsieiGu2EXtoJ_4core3ops4drop4Drop4dropBH_, symObjAddr: 0x64F0, symBinAddr: 0x10007DA40, symSize: 0x30 }
  - { offset: 0xBEF67, size: 0x8, addend: 0x0, symName: __RNvXsn_NtCslJiobkLta79_5alloc3vecINtB5_3VecNtNtNtCsHUR1vrdMJt_3std3ffi6os_str8OsStringENtNtNtCsieiGu2EXtoJ_4core3ops4drop4Drop4dropCseYC8vFNOjrM_2cc, symObjAddr: 0x6520, symBinAddr: 0x10007DA70, symSize: 0x30 }
  - { offset: 0xBF017, size: 0x8, addend: 0x0, symName: __RNvXsn_NtCslJiobkLta79_5alloc3vecINtB5_3VecNtNtNtNtCsHUR1vrdMJt_3std4sync4mpmc5waker5EntryENtNtNtCsieiGu2EXtoJ_4core3ops4drop4Drop4dropCseYC8vFNOjrM_2cc, symObjAddr: 0x6550, symBinAddr: 0x10007DAA0, symSize: 0x30 }
  - { offset: 0xBF0C7, size: 0x8, addend: 0x0, symName: __RNvXsn_NtCslJiobkLta79_5alloc3vecINtB5_3VecRNtNtCsHUR1vrdMJt_3std4path4PathENtNtNtCsieiGu2EXtoJ_4core3ops4drop4Drop4dropCseYC8vFNOjrM_2cc, symObjAddr: 0x6580, symBinAddr: 0x10007DAD0, symSize: 0x20 }
  - { offset: 0xBF177, size: 0x8, addend: 0x0, symName: __RNvXsn_NtCslJiobkLta79_5alloc3vecINtB5_3VecReENtNtNtCsieiGu2EXtoJ_4core3ops4drop4Drop4dropCseYC8vFNOjrM_2cc, symObjAddr: 0x65A0, symBinAddr: 0x10007DAF0, symSize: 0x20 }
  - { offset: 0xBF227, size: 0x8, addend: 0x0, symName: __RNvXsn_NtCslJiobkLta79_5alloc3vecINtB5_3VecTINtNtB7_4sync3ArcNtNtNtCsHUR1vrdMJt_3std3ffi6os_str5OsStrEBG_EENtNtNtCsieiGu2EXtoJ_4core3ops4drop4Drop4dropCseYC8vFNOjrM_2cc, symObjAddr: 0x65C0, symBinAddr: 0x10007DB10, symSize: 0x30 }
  - { offset: 0xBF2D7, size: 0x8, addend: 0x0, symName: __RNvXsn_NtCslJiobkLta79_5alloc3vecINtB5_3VecTINtNtB7_4sync3ArceEINtNtCsieiGu2EXtoJ_4core6option6OptionBG_EEENtNtNtB14_3ops4drop4Drop4dropCseYC8vFNOjrM_2cc, symObjAddr: 0x65F0, symBinAddr: 0x10007DB40, symSize: 0x30 }
  - { offset: 0xBF387, size: 0x8, addend: 0x0, symName: __RNvXsn_NtCslJiobkLta79_5alloc3vecINtB5_3VecTNtNtCsHUR1vrdMJt_3std7process7CommandNtNtNtCseYC8vFNOjrM_2cc8parallel14command_runner10KillOnDropNtNtB1l_9job_token8JobTokenEENtNtNtCsieiGu2EXtoJ_4core3ops4drop4Drop4dropB1n_, symObjAddr: 0x6620, symBinAddr: 0x10007DB70, symSize: 0x30 }
  - { offset: 0xBF43D, size: 0x8, addend: 0x0, symName: __RNvXso_NtCslJiobkLta79_5alloc3vecINtB5_3VecTNtNtCsHUR1vrdMJt_3std7process7CommandNtNtNtCseYC8vFNOjrM_2cc8parallel14command_runner10KillOnDropNtNtB1l_9job_token8JobTokenEENtNtCsieiGu2EXtoJ_4core7default7Default7defaultB1n_, symObjAddr: 0x6650, symBinAddr: 0x10007DBA0, symSize: 0x30 }
  - { offset: 0xC1116, size: 0x8, addend: 0x0, symName: __RINvMs_NtCslJiobkLta79_5alloc3vecINtB5_3VecNtNtNtNtCsHUR1vrdMJt_3std4sync4mpmc5waker5EntryE5drainNtNtNtCsieiGu2EXtoJ_4core3ops5range9RangeFullECseYC8vFNOjrM_2cc, symObjAddr: 0x1A0, symBinAddr: 0x100077DC0, symSize: 0x1C0 }
  - { offset: 0xC17CD, size: 0x8, addend: 0x0, symName: __RINvMs_NtCslJiobkLta79_5alloc3vecINtB5_3VecTNtNtCsHUR1vrdMJt_3std7process7CommandNtNtNtCseYC8vFNOjrM_2cc8parallel14command_runner10KillOnDropNtNtB1l_9job_token8JobTokenEE10retain_mutNCNCNCNvB1j_24run_commands_in_parallel000EB1n_, symObjAddr: 0x360, symBinAddr: 0x100077F80, symSize: 0x160 }
  - { offset: 0xC1C63, size: 0x8, addend: 0x0, symName: __RINvMsi_NtCslJiobkLta79_5alloc3vecINtB6_3VecINtNtB8_5boxed3BoxNtNtNtCsHUR1vrdMJt_3std3ffi6os_str5OsStrEE14extend_trustedINtNtNtNtCsieiGu2EXtoJ_4core4iter8adapters3map3MapINtNtB1Z_5chain5ChainINtNtB1Z_6cloned6ClonedINtNtNtB23_5slice4iter4IterRBY_EEIB1V_IB3r_NtNtB8_6string6StringEINvMsl_B10_BY_3newB47_EEENvYB3R_INtNtB23_7convert4IntoBG_E4intoEECseYC8vFNOjrM_2cc, symObjAddr: 0x690, symBinAddr: 0x1000780E0, symSize: 0x1C0 }
  - { offset: 0xC1FF2, size: 0x8, addend: 0x0, symName: __RINvMsi_NtCslJiobkLta79_5alloc3vecINtB6_3VecNtNtB8_6string6StringE16extend_desugaredINtNtNtNtCsieiGu2EXtoJ_4core4iter8adapters3map3MapNtNtNtB1t_3str4iter15SplitWhitespaceNCNvMs4_CseYC8vFNOjrM_2ccNtB2Q_5Build8env_tool0EEB2Q_, symObjAddr: 0x850, symBinAddr: 0x1000782A0, symSize: 0x250 }
  - { offset: 0xC2406, size: 0x8, addend: 0x0, symName: __RINvMsi_NtCslJiobkLta79_5alloc3vecINtB6_3VecNtNtB8_6string6StringE16extend_desugaredINtNtNtNtCsieiGu2EXtoJ_4core4iter8adapters3map3MapNtNtNtB1t_3str4iter15SplitWhitespaceNCNvMs4_CseYC8vFNOjrM_2ccNtB2Q_5Build8env_tools_0EEB2Q_, symObjAddr: 0xAA0, symBinAddr: 0x1000784F0, symSize: 0x250 }
  - { offset: 0xC2850, size: 0x8, addend: 0x0, symName: __RINvMsi_NtCslJiobkLta79_5alloc3vecINtB6_3VecNtNtB8_6string6StringE16extend_desugaredINtNtNtNtCsieiGu2EXtoJ_4core4iter8adapters3map3MapNtNtNtB1t_3str4iter20SplitAsciiWhitespaceNvYeNtBI_8ToString9to_stringEECseYC8vFNOjrM_2cc, symObjAddr: 0xCF0, symBinAddr: 0x100078740, symSize: 0x250 }
  - { offset: 0xC2CB2, size: 0x8, addend: 0x0, symName: __RINvMsi_NtCslJiobkLta79_5alloc3vecINtB6_3VecNtNtB8_6string6StringE16extend_desugaredNtCs6EOBT9HYl7a_5shlex5ShlexECseYC8vFNOjrM_2cc, symObjAddr: 0xF40, symBinAddr: 0x100078990, symSize: 0x250 }
  - { offset: 0xC3070, size: 0x8, addend: 0x0, symName: __RINvMsi_NtCslJiobkLta79_5alloc3vecINtB6_3VecNtNtNtCsHUR1vrdMJt_3std3ffi6os_str8OsStringE14extend_trustedINtNtNtCsieiGu2EXtoJ_4core5array4iter8IntoIterBG_Kj6_EECseYC8vFNOjrM_2cc, symObjAddr: 0x1190, symBinAddr: 0x100078BE0, symSize: 0x1E0 }
  - { offset: 0xC33F5, size: 0x8, addend: 0x0, symName: __RINvMsi_NtCslJiobkLta79_5alloc3vecINtB6_3VecRNtNtCsHUR1vrdMJt_3std4path4PathE14extend_trustedINtNtNtNtCsieiGu2EXtoJ_4core4iter8adapters5chain5ChainINtNtB1y_3map3MapINtNtNtB1C_5slice4iter4IterNtCseYC8vFNOjrM_2cc6ObjectENCNvMs4_B35_NtB35_5Build8assemble0EIB2m_IB2D_INtNtB8_4sync3ArcBH_EENvYB4d_NtNtNtB1C_3ops5deref5Deref5derefEEEB35_, symObjAddr: 0x1370, symBinAddr: 0x100078DC0, symSize: 0x1C0 }
  - { offset: 0xC3798, size: 0x8, addend: 0x0, symName: __RINvMsi_NtCslJiobkLta79_5alloc3vecINtB6_3VecReE16extend_desugaredINtNtNtCsieiGu2EXtoJ_4core3str4iter5SplitcEECseYC8vFNOjrM_2cc, symObjAddr: 0x1530, symBinAddr: 0x100078F80, symSize: 0x240 }
  - { offset: 0xC3B75, size: 0x8, addend: 0x0, symName: __RINvMsi_NtCslJiobkLta79_5alloc3vecINtB6_3VecTNtNtNtCsHUR1vrdMJt_3std3ffi6os_str8OsStringBH_EE14extend_trustedINtNtNtNtCsieiGu2EXtoJ_4core4iter8adapters3map3MapINtNtNtB1S_5slice4iter4IterBG_ENCNvMNtCseYC8vFNOjrM_2cc4toolNtB37_4Tool20from_find_msvc_tools0EEB39_, symObjAddr: 0x1770, symBinAddr: 0x1000791C0, symSize: 0x1A0 }
  - { offset: 0xC3E53, size: 0x8, addend: 0x0, symName: __RINvMsi_NtCslJiobkLta79_5alloc3vecINtB6_3VechE14extend_trustedINtNtNtNtCsieiGu2EXtoJ_4core4iter8adapters3map3MapINtNtNtB17_5slice4iter4IterhENCNvNtB8_3str13replace_ascii0EECseYC8vFNOjrM_2cc, symObjAddr: 0x1910, symBinAddr: 0x100079360, symSize: 0x1C0 }
  - { offset: 0xC41C5, size: 0x8, addend: 0x0, symName: __RNvMNtCslJiobkLta79_5alloc3vecINtB2_3VecINtNtB4_4sync3ArcNtNtCsHUR1vrdMJt_3std4path4PathEE3newCseYC8vFNOjrM_2cc, symObjAddr: 0x2390, symBinAddr: 0x100079B50, symSize: 0x30 }
  - { offset: 0xC41E2, size: 0x8, addend: 0x0, symName: __RNvMNtCslJiobkLta79_5alloc3vecINtB2_3VecINtNtB4_4sync3ArcNtNtNtCsHUR1vrdMJt_3std3ffi6os_str5OsStrEE3newCseYC8vFNOjrM_2cc, symObjAddr: 0x23C0, symBinAddr: 0x100079B80, symSize: 0x30 }
  - { offset: 0xC4261, size: 0x8, addend: 0x0, symName: __RNvMNtCslJiobkLta79_5alloc3vecINtB2_3VecNtCseYC8vFNOjrM_2cc6ObjectE13with_capacityBE_, symObjAddr: 0x23F0, symBinAddr: 0x100079BB0, symSize: 0x60 }
  - { offset: 0xC42D9, size: 0x8, addend: 0x0, symName: __RNvMNtCslJiobkLta79_5alloc3vecINtB2_3VecNtNtB4_6string6StringE3newCseYC8vFNOjrM_2cc, symObjAddr: 0x2450, symBinAddr: 0x100079C10, symSize: 0x30 }
  - { offset: 0xC42F6, size: 0x8, addend: 0x0, symName: __RNvMNtCslJiobkLta79_5alloc3vecINtB2_3VecNtNtNtCsHUR1vrdMJt_3std3ffi6os_str8OsStringE3newCseYC8vFNOjrM_2cc, symObjAddr: 0x2480, symBinAddr: 0x100079C40, symSize: 0x30 }
  - { offset: 0xC4331, size: 0x8, addend: 0x0, symName: __RNvMNtCslJiobkLta79_5alloc3vecINtB2_3VecTINtNtB4_4sync3ArcNtNtNtCsHUR1vrdMJt_3std3ffi6os_str5OsStrEBD_EE3newCseYC8vFNOjrM_2cc, symObjAddr: 0x24B0, symBinAddr: 0x100079C70, symSize: 0x30 }
  - { offset: 0xC4393, size: 0x8, addend: 0x0, symName: __RNvMNtCslJiobkLta79_5alloc3vecINtB2_3VecTINtNtB4_4sync3ArceEINtNtCsieiGu2EXtoJ_4core6option6OptionBD_EEE3newCseYC8vFNOjrM_2cc, symObjAddr: 0x24E0, symBinAddr: 0x100079CA0, symSize: 0x30 }
  - { offset: 0xC43B0, size: 0x8, addend: 0x0, symName: __RNvMNtCslJiobkLta79_5alloc3vecINtB2_3VecTNtNtCsHUR1vrdMJt_3std7process7CommandNtNtNtCseYC8vFNOjrM_2cc8parallel14command_runner10KillOnDropNtNtB1i_9job_token8JobTokenEE3newB1k_, symObjAddr: 0x2510, symBinAddr: 0x100079CD0, symSize: 0x30 }
  - { offset: 0xC442F, size: 0x8, addend: 0x0, symName: __RNvMNtCslJiobkLta79_5alloc3vecINtB2_3VechE13with_capacityCseYC8vFNOjrM_2cc, symObjAddr: 0x2540, symBinAddr: 0x100079D00, symSize: 0x50 }
  - { offset: 0xC45C6, size: 0x8, addend: 0x0, symName: __RNvMs0_NtCslJiobkLta79_5alloc3vecINtB5_3VechE6resizeCseYC8vFNOjrM_2cc, symObjAddr: 0x2590, symBinAddr: 0x100079D50, symSize: 0xE0 }
  - { offset: 0xC4873, size: 0x8, addend: 0x0, symName: __RNvMs2_NtCslJiobkLta79_5alloc3vecINtB5_3VechE11extend_withCseYC8vFNOjrM_2cc, symObjAddr: 0x2670, symBinAddr: 0x100079E30, symSize: 0x280 }
  - { offset: 0xC4C15, size: 0x8, addend: 0x0, symName: __RNvMs_NtCslJiobkLta79_5alloc3vecINtB4_3VecINtNtB6_4sync3ArcNtNtCsHUR1vrdMJt_3std4path4PathEE8as_sliceCseYC8vFNOjrM_2cc, symObjAddr: 0x2900, symBinAddr: 0x10007A0B0, symSize: 0x50 }
  - { offset: 0xC4CCF, size: 0x8, addend: 0x0, symName: __RNvMs_NtCslJiobkLta79_5alloc3vecINtB4_3VecINtNtB6_4sync3ArcNtNtNtCsHUR1vrdMJt_3std3ffi6os_str5OsStrEE4pushCseYC8vFNOjrM_2cc, symObjAddr: 0x2950, symBinAddr: 0x10007A100, symSize: 0x20 }
  - { offset: 0xC4DD1, size: 0x8, addend: 0x0, symName: __RNvMs_NtCslJiobkLta79_5alloc3vecINtB4_3VecINtNtB6_4sync3ArcNtNtNtCsHUR1vrdMJt_3std3ffi6os_str5OsStrEE8as_sliceCseYC8vFNOjrM_2cc, symObjAddr: 0x2A20, symBinAddr: 0x10007A120, symSize: 0x50 }
  - { offset: 0xC4EB0, size: 0x8, addend: 0x0, symName: __RNvMs_NtCslJiobkLta79_5alloc3vecINtB4_3VecINtNtB6_4sync3ArcNtNtNtCsHUR1vrdMJt_3std3ffi6os_str5OsStrEE8is_emptyCseYC8vFNOjrM_2cc, symObjAddr: 0x2A70, symBinAddr: 0x10007A170, symSize: 0x20 }
  - { offset: 0xC4FE2, size: 0x8, addend: 0x0, symName: __RNvMs_NtCslJiobkLta79_5alloc3vecINtB4_3VecINtNtB6_4sync3ArcNtNtNtCsHUR1vrdMJt_3std3ffi6os_str5OsStrEE8push_mutCseYC8vFNOjrM_2cc, symObjAddr: 0x2A90, symBinAddr: 0x10007A190, symSize: 0xF0 }
  - { offset: 0xC52AB, size: 0x8, addend: 0x0, symName: __RNvMs_NtCslJiobkLta79_5alloc3vecINtB4_3VecINtNtB6_5boxed3BoxNtNtNtCsHUR1vrdMJt_3std3ffi6os_str5OsStrEE13shrink_to_fitCseYC8vFNOjrM_2cc, symObjAddr: 0x2B80, symBinAddr: 0x10007A280, symSize: 0xE0 }
  - { offset: 0xC5525, size: 0x8, addend: 0x0, symName: __RNvMs_NtCslJiobkLta79_5alloc3vecINtB4_3VecINtNtB6_5boxed3BoxNtNtNtCsHUR1vrdMJt_3std3ffi6os_str5OsStrEE16into_boxed_sliceCseYC8vFNOjrM_2cc, symObjAddr: 0x2C60, symBinAddr: 0x10007A360, symSize: 0x160 }
  - { offset: 0xC57FE, size: 0x8, addend: 0x0, symName: __RNvMs_NtCslJiobkLta79_5alloc3vecINtB4_3VecINtNtB6_5boxed3BoxNtNtNtCsHUR1vrdMJt_3std3ffi6os_str5OsStrEE7reserveCseYC8vFNOjrM_2cc, symObjAddr: 0x2DC0, symBinAddr: 0x10007A4C0, symSize: 0xB0 }
  - { offset: 0xC5978, size: 0x8, addend: 0x0, symName: __RNvMs_NtCslJiobkLta79_5alloc3vecINtB4_3VecNtCseYC8vFNOjrM_2cc6ObjectE4pushBG_, symObjAddr: 0x2E70, symBinAddr: 0x10007A570, symSize: 0x20 }
  - { offset: 0xC5A7B, size: 0x8, addend: 0x0, symName: __RNvMs_NtCslJiobkLta79_5alloc3vecINtB4_3VecNtCseYC8vFNOjrM_2cc6ObjectE8as_sliceBG_, symObjAddr: 0x2E90, symBinAddr: 0x10007A590, symSize: 0x50 }
  - { offset: 0xC5C21, size: 0x8, addend: 0x0, symName: __RNvMs_NtCslJiobkLta79_5alloc3vecINtB4_3VecNtCseYC8vFNOjrM_2cc6ObjectE8push_mutBG_, symObjAddr: 0x2EE0, symBinAddr: 0x10007A5E0, symSize: 0x130 }
  - { offset: 0xC5E5A, size: 0x8, addend: 0x0, symName: __RNvMs_NtCslJiobkLta79_5alloc3vecINtB4_3VecNtNtB6_6string6StringE7set_lenCseYC8vFNOjrM_2cc, symObjAddr: 0x3010, symBinAddr: 0x10007A710, symSize: 0x70 }
  - { offset: 0xC5FCA, size: 0x8, addend: 0x0, symName: __RNvMs_NtCslJiobkLta79_5alloc3vecINtB4_3VecNtNtB6_6string6StringE8as_sliceCseYC8vFNOjrM_2cc, symObjAddr: 0x3080, symBinAddr: 0x10007A780, symSize: 0x50 }
  - { offset: 0xC6084, size: 0x8, addend: 0x0, symName: __RNvMs_NtCslJiobkLta79_5alloc3vecINtB4_3VecNtNtNtCsHUR1vrdMJt_3std3ffi6os_str8OsStringE4pushCseYC8vFNOjrM_2cc, symObjAddr: 0x30D0, symBinAddr: 0x10007A7D0, symSize: 0x20 }
  - { offset: 0xC61DF, size: 0x8, addend: 0x0, symName: __RNvMs_NtCslJiobkLta79_5alloc3vecINtB4_3VecNtNtNtCsHUR1vrdMJt_3std3ffi6os_str8OsStringE7reserveCseYC8vFNOjrM_2cc, symObjAddr: 0x30F0, symBinAddr: 0x10007A7F0, symSize: 0xB0 }
  - { offset: 0xC63DD, size: 0x8, addend: 0x0, symName: __RNvMs_NtCslJiobkLta79_5alloc3vecINtB4_3VecNtNtNtCsHUR1vrdMJt_3std3ffi6os_str8OsStringE7set_lenCseYC8vFNOjrM_2cc, symObjAddr: 0x31A0, symBinAddr: 0x10007A8A0, symSize: 0x70 }
  - { offset: 0xC654D, size: 0x8, addend: 0x0, symName: __RNvMs_NtCslJiobkLta79_5alloc3vecINtB4_3VecNtNtNtCsHUR1vrdMJt_3std3ffi6os_str8OsStringE8as_sliceCseYC8vFNOjrM_2cc, symObjAddr: 0x3210, symBinAddr: 0x10007A910, symSize: 0x50 }
  - { offset: 0xC662C, size: 0x8, addend: 0x0, symName: __RNvMs_NtCslJiobkLta79_5alloc3vecINtB4_3VecNtNtNtCsHUR1vrdMJt_3std3ffi6os_str8OsStringE8is_emptyCseYC8vFNOjrM_2cc, symObjAddr: 0x3260, symBinAddr: 0x10007A960, symSize: 0x20 }
  - { offset: 0xC676B, size: 0x8, addend: 0x0, symName: __RNvMs_NtCslJiobkLta79_5alloc3vecINtB4_3VecNtNtNtCsHUR1vrdMJt_3std3ffi6os_str8OsStringE8push_mutCseYC8vFNOjrM_2cc, symObjAddr: 0x3280, symBinAddr: 0x10007A980, symSize: 0x110 }
  - { offset: 0xC6A7A, size: 0x8, addend: 0x0, symName: __RNvMs_NtCslJiobkLta79_5alloc3vecINtB4_3VecNtNtNtNtCsHUR1vrdMJt_3std4sync4mpmc5waker5EntryE6removeCseYC8vFNOjrM_2cc, symObjAddr: 0x3390, symBinAddr: 0x10007AA90, symSize: 0x1C0 }
  - { offset: 0xC6DCF, size: 0x8, addend: 0x0, symName: __RNvMs_NtCslJiobkLta79_5alloc3vecINtB4_3VecNtNtNtNtCsHUR1vrdMJt_3std4sync4mpmc5waker5EntryE8push_mutCseYC8vFNOjrM_2cc, symObjAddr: 0x3550, symBinAddr: 0x10007AC50, symSize: 0x110 }
  - { offset: 0xC709A, size: 0x8, addend: 0x0, symName: __RNvMs_NtCslJiobkLta79_5alloc3vecINtB4_3VecRNtNtCsHUR1vrdMJt_3std4path4PathE7reserveCseYC8vFNOjrM_2cc, symObjAddr: 0x3660, symBinAddr: 0x10007AD60, symSize: 0xB0 }
  - { offset: 0xC72AB, size: 0x8, addend: 0x0, symName: __RNvMs_NtCslJiobkLta79_5alloc3vecINtB4_3VecRNtNtCsHUR1vrdMJt_3std4path4PathE8as_sliceCseYC8vFNOjrM_2cc, symObjAddr: 0x3710, symBinAddr: 0x10007AE10, symSize: 0x50 }
  - { offset: 0xC7439, size: 0x8, addend: 0x0, symName: __RNvMs_NtCslJiobkLta79_5alloc3vecINtB4_3VecReE17from_raw_parts_inCseYC8vFNOjrM_2cc, symObjAddr: 0x3760, symBinAddr: 0x10007AE60, symSize: 0xA0 }
  - { offset: 0xC75C0, size: 0x8, addend: 0x0, symName: __RNvMs_NtCslJiobkLta79_5alloc3vecINtB4_3VecReE4pushCseYC8vFNOjrM_2cc, symObjAddr: 0x3800, symBinAddr: 0x10007AF00, symSize: 0x20 }
  - { offset: 0xC771A, size: 0x8, addend: 0x0, symName: __RNvMs_NtCslJiobkLta79_5alloc3vecINtB4_3VecReE7reserveCseYC8vFNOjrM_2cc, symObjAddr: 0x3820, symBinAddr: 0x10007AF20, symSize: 0xB0 }
  - { offset: 0xC78F7, size: 0x8, addend: 0x0, symName: __RNvMs_NtCslJiobkLta79_5alloc3vecINtB4_3VecReE8as_sliceCseYC8vFNOjrM_2cc, symObjAddr: 0x38D0, symBinAddr: 0x10007AFD0, symSize: 0x50 }
  - { offset: 0xC7A9D, size: 0x8, addend: 0x0, symName: __RNvMs_NtCslJiobkLta79_5alloc3vecINtB4_3VecReE8push_mutCseYC8vFNOjrM_2cc, symObjAddr: 0x3920, symBinAddr: 0x10007B020, symSize: 0xF0 }
  - { offset: 0xC7D1E, size: 0x8, addend: 0x0, symName: __RNvMs_NtCslJiobkLta79_5alloc3vecINtB4_3VecTINtNtB6_4sync3ArcNtNtNtCsHUR1vrdMJt_3std3ffi6os_str5OsStrEBF_EE8as_sliceCseYC8vFNOjrM_2cc, symObjAddr: 0x3A10, symBinAddr: 0x10007B110, symSize: 0x50 }
  - { offset: 0xC7EA3, size: 0x8, addend: 0x0, symName: __RNvMs_NtCslJiobkLta79_5alloc3vecINtB4_3VecTINtNtB6_4sync3ArceEINtNtCsieiGu2EXtoJ_4core6option6OptionBF_EEE8as_sliceCseYC8vFNOjrM_2cc, symObjAddr: 0x3A60, symBinAddr: 0x10007B160, symSize: 0x50 }
  - { offset: 0xC7F5D, size: 0x8, addend: 0x0, symName: __RNvMs_NtCslJiobkLta79_5alloc3vecINtB4_3VecTNtNtCsHUR1vrdMJt_3std7process7CommandNtNtNtCseYC8vFNOjrM_2cc8parallel14command_runner10KillOnDropNtNtB1k_9job_token8JobTokenEE4pushB1m_, symObjAddr: 0x3AB0, symBinAddr: 0x10007B1B0, symSize: 0x20 }
  - { offset: 0xC7FC7, size: 0x8, addend: 0x0, symName: __RNvMs_NtCslJiobkLta79_5alloc3vecINtB4_3VecTNtNtCsHUR1vrdMJt_3std7process7CommandNtNtNtCseYC8vFNOjrM_2cc8parallel14command_runner10KillOnDropNtNtB1k_9job_token8JobTokenEE8is_emptyB1m_, symObjAddr: 0x3AD0, symBinAddr: 0x10007B1D0, symSize: 0x20 }
  - { offset: 0xC80F9, size: 0x8, addend: 0x0, symName: __RNvMs_NtCslJiobkLta79_5alloc3vecINtB4_3VecTNtNtCsHUR1vrdMJt_3std7process7CommandNtNtNtCseYC8vFNOjrM_2cc8parallel14command_runner10KillOnDropNtNtB1k_9job_token8JobTokenEE8push_mutB1m_, symObjAddr: 0x3AF0, symBinAddr: 0x10007B1F0, symSize: 0x140 }
  - { offset: 0xC82AE, size: 0x8, addend: 0x0, symName: __RNvMs_NtCslJiobkLta79_5alloc3vecINtB4_3VecTNtNtNtCsHUR1vrdMJt_3std3ffi6os_str8OsStringBF_EE4pushCseYC8vFNOjrM_2cc, symObjAddr: 0x3C30, symBinAddr: 0x10007B330, symSize: 0x20 }
  - { offset: 0xC8409, size: 0x8, addend: 0x0, symName: __RNvMs_NtCslJiobkLta79_5alloc3vecINtB4_3VecTNtNtNtCsHUR1vrdMJt_3std3ffi6os_str8OsStringBF_EE7reserveCseYC8vFNOjrM_2cc, symObjAddr: 0x3C50, symBinAddr: 0x10007B350, symSize: 0xB0 }
  - { offset: 0xC8607, size: 0x8, addend: 0x0, symName: __RNvMs_NtCslJiobkLta79_5alloc3vecINtB4_3VecTNtNtNtCsHUR1vrdMJt_3std3ffi6os_str8OsStringBF_EE7set_lenCseYC8vFNOjrM_2cc, symObjAddr: 0x3D00, symBinAddr: 0x10007B400, symSize: 0x70 }
  - { offset: 0xC8705, size: 0x8, addend: 0x0, symName: __RNvMs_NtCslJiobkLta79_5alloc3vecINtB4_3VecTNtNtNtCsHUR1vrdMJt_3std3ffi6os_str8OsStringBF_EE8is_emptyCseYC8vFNOjrM_2cc, symObjAddr: 0x3D70, symBinAddr: 0x10007B470, symSize: 0x20 }
  - { offset: 0xC8844, size: 0x8, addend: 0x0, symName: __RNvMs_NtCslJiobkLta79_5alloc3vecINtB4_3VecTNtNtNtCsHUR1vrdMJt_3std3ffi6os_str8OsStringBF_EE8push_mutCseYC8vFNOjrM_2cc, symObjAddr: 0x3D90, symBinAddr: 0x10007B490, symSize: 0x130 }
  - { offset: 0xC8A97, size: 0x8, addend: 0x0, symName: __RNvMs_NtCslJiobkLta79_5alloc3vecINtB4_3VechE12as_mut_sliceCseYC8vFNOjrM_2cc, symObjAddr: 0x3EC0, symBinAddr: 0x10007B5C0, symSize: 0x50 }
  - { offset: 0xC8C6C, size: 0x8, addend: 0x0, symName: __RNvMs_NtCslJiobkLta79_5alloc3vecINtB4_3VechE13shrink_to_fitCseYC8vFNOjrM_2cc, symObjAddr: 0x3F10, symBinAddr: 0x10007B610, symSize: 0xE0 }
  - { offset: 0xC8EA1, size: 0x8, addend: 0x0, symName: __RNvMs_NtCslJiobkLta79_5alloc3vecINtB4_3VechE16into_boxed_sliceCseYC8vFNOjrM_2cc, symObjAddr: 0x3FF0, symBinAddr: 0x10007B6F0, symSize: 0x160 }
  - { offset: 0xC9071, size: 0x8, addend: 0x0, symName: __RNvMs_NtCslJiobkLta79_5alloc3vecINtB4_3VechE3lenCseYC8vFNOjrM_2cc, symObjAddr: 0x4150, symBinAddr: 0x10007B850, symSize: 0x10 }
  - { offset: 0xC9116, size: 0x8, addend: 0x0, symName: __RNvMs_NtCslJiobkLta79_5alloc3vecINtB4_3VechE8as_sliceCseYC8vFNOjrM_2cc, symObjAddr: 0x4160, symBinAddr: 0x10007B860, symSize: 0x50 }
  - { offset: 0xCAE46, size: 0x8, addend: 0x0, symName: __RINvXs2E_NtNtCsieiGu2EXtoJ_4core5slice4iterINtB7_4IterINtNtCslJiobkLta79_5alloc4sync3ArcNtNtCsHUR1vrdMJt_3std4path4PathEENtNtNtNtBb_4iter6traits8iterator8Iterator4foldjNCINvNtNtB21_8adapters3map8map_foldRBQ_jjNCINvNvXs1_NtB2N_6filterINtB3w_6FilterppEB1V_5count8to_usizeB3f_NCNvMs4_CseYC8vFNOjrM_2ccNtB4v_5Build15cuda_file_count0E0NCINvXsK_NtB1Z_5accumjNtB5r_3Sum3sumINtB2L_3MapBF_B3l_EE0E0EB4v_, symObjAddr: 0x0, symBinAddr: 0x10007DBD0, symSize: 0x1B0 }
  - { offset: 0xCD586, size: 0x8, addend: 0x0, symName: __RINvXs2E_NtNtCsieiGu2EXtoJ_4core5slice4iterINtB7_4IterINtNtCslJiobkLta79_5alloc4sync3ArcNtNtCsHUR1vrdMJt_3std4path4PathEENtNtNtNtBb_4iter6traits8iterator8Iterator4foldjNCINvNtNtB21_8adapters3map8map_foldRBQ_jjNCINvNvXs1_NtB2N_6filterINtB3w_6FilterppEB1V_5count8to_usizeB3f_NCNvMs4_CseYC8vFNOjrM_2ccNtB4v_5Build15cuda_file_count0E0NCINvXsK_NtB1Z_5accumjNtB5r_3Sum3sumINtB2L_3MapBF_B3l_EE0E0EB4v_, symObjAddr: 0x0, symBinAddr: 0x10007DBD0, symSize: 0x1B0 }
  - { offset: 0xCD6CB, size: 0x8, addend: 0x0, symName: __RINvXs2E_NtNtCsieiGu2EXtoJ_4core5slice4iterINtB7_4IterINtNtCslJiobkLta79_5alloc4sync3ArcNtNtCsHUR1vrdMJt_3std4path4PathEENtNtNtNtBb_4iter6traits8iterator8Iterator4folduNCINvNtNtB21_8adapters3map8map_foldRBQ_RB1o_uNvYBQ_NtNtNtBb_3ops5deref5Deref5derefNCINvNvB1V_8for_each4callB3j_NCINvMsi_NtBV_3vecINtB4C_3VecB3j_E14extend_trustedINtNtB2N_5chain5ChainINtB2L_3MapIBG_NtCseYC8vFNOjrM_2cc6ObjectENCNvMs4_B5T_NtB5T_5Build8assemble0EIB5D_BF_B3p_EEE0E0E0EB5T_, symObjAddr: 0x1B0, symBinAddr: 0x10007DD80, symSize: 0x190 }
  - { offset: 0xCD80C, size: 0x8, addend: 0x0, symName: __RINvXs2E_NtNtCsieiGu2EXtoJ_4core5slice4iterINtB7_4IterNtCseYC8vFNOjrM_2cc6ObjectENtNtNtNtBb_4iter6traits8iterator8Iterator4folduNCINvNtNtB1n_8adapters3map8map_foldRBQ_RNtNtCsHUR1vrdMJt_3std4path4PathuNCNvMs4_BS_NtBS_5Build8assemble0QNCINvNvB1h_8for_each4callB2F_NCINvMsi_NtCslJiobkLta79_5alloc3vecINtB4l_3VecB2F_E14extend_trustedINtNtB29_5chain5ChainINtB27_3MapBF_B3c_EIB5D_IBG_INtNtB4n_4sync3ArcB2G_EENvYB64_NtNtNtBb_3ops5deref5Deref5derefEEE0E0E0EBS_, symObjAddr: 0x340, symBinAddr: 0x10007DF10, symSize: 0x160 }
  - { offset: 0xCD94D, size: 0x8, addend: 0x0, symName: __RINvXs2E_NtNtCsieiGu2EXtoJ_4core5slice4iterINtB7_4IterNtNtCslJiobkLta79_5alloc6string6StringENtNtNtNtBb_4iter6traits8iterator8Iterator3anyNCNCNvMNtCseYC8vFNOjrM_2cc4toolNtB2j_4Tool13with_featuress_00EB2l_, symObjAddr: 0x4A0, symBinAddr: 0x10007E070, symSize: 0x90 }
  - { offset: 0xCD9B2, size: 0x8, addend: 0x0, symName: __RINvXs2E_NtNtCsieiGu2EXtoJ_4core5slice4iterINtB7_4IterNtNtCslJiobkLta79_5alloc6string6StringENtNtNtNtBb_4iter6traits8iterator8Iterator4folduNCINvNtNtB1z_8adapters3map8map_foldRBQ_RNtNtNtCsHUR1vrdMJt_3std3ffi6os_str5OsStruINvMsl_B2U_B2S_3newBQ_ENCIB2h_B2R_INtNtBU_5boxed3BoxB2S_EuNvYB2R_INtNtBb_7convert4IntoB45_E4intoNCINvNvB1t_8for_each4callB45_NCINvMsi_NtBU_3vecINtB5H_3VecB45_E14extend_trustedINtB2j_3MapINtNtB2l_5chain5ChainINtNtB2l_6cloned6ClonedIBG_B2R_EEIB6n_BF_B3x_EEB4t_EE0E0E0E0ECseYC8vFNOjrM_2cc, symObjAddr: 0x530, symBinAddr: 0x10007E100, symSize: 0x190 }
  - { offset: 0xCDAF3, size: 0x8, addend: 0x0, symName: __RINvXs2E_NtNtCsieiGu2EXtoJ_4core5slice4iterINtB7_4IterNtNtCslJiobkLta79_5alloc6string6StringENtNtNtNtBb_4iter6traits8iterator8Iterator8find_mapINtNtBU_4sync3ArcNtNtNtCsHUR1vrdMJt_3std3ffi6os_str5OsStrEQNCNvMs4_CseYC8vFNOjrM_2ccNtB3m_5Build27getenv_with_target_prefixes0EB3m_, symObjAddr: 0x6C0, symBinAddr: 0x10007E290, symSize: 0xF0 }
  - { offset: 0xCDB78, size: 0x8, addend: 0x0, symName: __RINvXs2E_NtNtCsieiGu2EXtoJ_4core5slice4iterINtB7_4IterNtNtNtCsHUR1vrdMJt_3std3ffi6os_str8OsStringENtNtNtNtBb_4iter6traits8iterator8Iterator3anyNCNvMNtCseYC8vFNOjrM_2cc4toolNtB2m_4Tool20is_duplicate_opt_arg0EB2o_, symObjAddr: 0x7B0, symBinAddr: 0x10007E380, symSize: 0x90 }
  - { offset: 0xCDBDD, size: 0x8, addend: 0x0, symName: __RINvXs2E_NtNtCsieiGu2EXtoJ_4core5slice4iterINtB7_4IterNtNtNtCsHUR1vrdMJt_3std3ffi6os_str8OsStringENtNtNtNtBb_4iter6traits8iterator8Iterator3anyNCNvXsf_NtB9_3cmpBQ_NtB2p_13SliceContains14slice_contains0ECseYC8vFNOjrM_2cc, symObjAddr: 0x840, symBinAddr: 0x10007E410, symSize: 0xA0 }
  - { offset: 0xCDC42, size: 0x8, addend: 0x0, symName: __RINvXs2E_NtNtCsieiGu2EXtoJ_4core5slice4iterINtB7_4IterNtNtNtCsHUR1vrdMJt_3std3ffi6os_str8OsStringENtNtNtNtBb_4iter6traits8iterator8Iterator4findQNCNvMNtCseYC8vFNOjrM_2cc4toolNtB2o_4Tool10to_command0EB2q_, symObjAddr: 0x8E0, symBinAddr: 0x10007E4B0, symSize: 0xA0 }
  - { offset: 0xCDCA7, size: 0x8, addend: 0x0, symName: __RINvXs2E_NtNtCsieiGu2EXtoJ_4core5slice4iterINtB7_4IterNtNtNtNtCsHUR1vrdMJt_3std4sync4mpmc5waker5EntryENtNtNtNtBb_4iter6traits8iterator8Iterator8positionNCNvMBS_NtBS_5Waker10try_select0ECseYC8vFNOjrM_2cc, symObjAddr: 0x980, symBinAddr: 0x10007E550, symSize: 0x150 }
  - { offset: 0xCDD65, size: 0x8, addend: 0x0, symName: __RINvXs2E_NtNtCsieiGu2EXtoJ_4core5slice4iterINtB7_4IterRINtNtCslJiobkLta79_5alloc3vec3VechEENtNtNtNtBb_4iter6traits8iterator8Iterator3anyNCNvNvMNtCseYC8vFNOjrM_2cc4toolNtB2h_4Tool13with_features19detect_family_inners1_0EB2j_, symObjAddr: 0xAD0, symBinAddr: 0x10007E6A0, symSize: 0x90 }
  - { offset: 0xCDDCA, size: 0x8, addend: 0x0, symName: __RINvXs2E_NtNtCsieiGu2EXtoJ_4core5slice4iterINtB7_4IterRNtNtNtCsHUR1vrdMJt_3std3ffi6os_str5OsStrENtNtNtNtBb_4iter6traits8iterator8Iterator4folduNCINvNtNtB1C_8adapters3map8map_foldRBQ_BQ_uNvYBQ_NtNtBb_5clone5Clone5cloneQNCIB2k_BQ_INtNtCslJiobkLta79_5alloc5boxed3BoxBR_EuNvYBQ_INtNtBb_7convert4IntoB3E_E4intoNCINvNvB1w_8for_each4callB3E_NCINvMsi_NtB3J_3vecINtB5v_3VecB3E_E14extend_trustedINtB2m_3MapINtNtB2o_5chain5ChainINtNtB2o_6cloned6ClonedBF_EIB6c_IBG_NtNtB3J_6string6StringEINvMsl_BT_BR_3newB7h_EEEB4i_EE0E0E0E0ECseYC8vFNOjrM_2cc, symObjAddr: 0xB60, symBinAddr: 0x10007E730, symSize: 0x150 }
  - { offset: 0xCDF0B, size: 0x8, addend: 0x0, symName: __RINvXs2E_NtNtCsieiGu2EXtoJ_4core5slice4iterINtB7_4IterReENtNtNtNtBb_4iter6traits8iterator8Iterator3anyNCNCNvMs4_CseYC8vFNOjrM_2ccNtB1M_5Build20apple_sdk_root_inner00EB1M_, symObjAddr: 0xCB0, symBinAddr: 0x10007E880, symSize: 0xA0 }
  - { offset: 0xCDF70, size: 0x8, addend: 0x0, symName: __RINvXs2E_NtNtCsieiGu2EXtoJ_4core5slice4iterINtB7_4IterReENtNtNtNtBb_4iter6traits8iterator8Iterator3anyNCNvXsf_NtB9_3cmpBQ_NtB1K_13SliceContains14slice_contains0ECseYC8vFNOjrM_2cc, symObjAddr: 0xD50, symBinAddr: 0x10007E920, symSize: 0xA0 }
  - { offset: 0xCDFD5, size: 0x8, addend: 0x0, symName: __RINvXs2E_NtNtCsieiGu2EXtoJ_4core5slice4iterINtB7_4IterReENtNtNtNtBb_4iter6traits8iterator8Iterator4findNCNCNvCseYC8vFNOjrM_2cc27autodetect_android_compiler00EB1J_, symObjAddr: 0xDF0, symBinAddr: 0x10007E9C0, symSize: 0xA0 }
  - { offset: 0xCE03A, size: 0x8, addend: 0x0, symName: __RINvXs2E_NtNtCsieiGu2EXtoJ_4core5slice4iterINtB7_4IterReENtNtNtNtBb_4iter6traits8iterator8Iterator8find_mapNtNtCslJiobkLta79_5alloc6string6StringQNCNvMs4_CseYC8vFNOjrM_2ccNtB2s_5Build25get_base_archiver_variants1_0EB2s_, symObjAddr: 0xE90, symBinAddr: 0x10007EA60, symSize: 0x100 }
  - { offset: 0xCE0BF, size: 0x8, addend: 0x0, symName: __RINvXs2E_NtNtCsieiGu2EXtoJ_4core5slice4iterINtB7_4IterTINtNtCslJiobkLta79_5alloc4sync3ArcNtNtNtCsHUR1vrdMJt_3std3ffi6os_str5OsStrEBR_EENtNtNtNtBb_4iter6traits8iterator8Iterator4findNCNCNvMs4_CseYC8vFNOjrM_2ccNtB33_5Build23apple_deployment_targets_00EB33_, symObjAddr: 0xF90, symBinAddr: 0x10007EB60, symSize: 0xA0 }
  - { offset: 0xCE124, size: 0x8, addend: 0x0, symName: __RINvXs2E_NtNtCsieiGu2EXtoJ_4core5slice4iterINtB7_4IterTINtNtCslJiobkLta79_5alloc4sync3ArcNtNtNtCsHUR1vrdMJt_3std3ffi6os_str5OsStrEBR_EENtNtNtNtBb_4iter6traits8iterator8Iterator4findNCNvMs4_CseYC8vFNOjrM_2ccNtB31_5Build6getenv0EB31_, symObjAddr: 0x1030, symBinAddr: 0x10007EC00, symSize: 0xA0 }
  - { offset: 0xCE189, size: 0x8, addend: 0x0, symName: __RINvXs2E_NtNtCsieiGu2EXtoJ_4core5slice4iterINtB7_4IterTNtNtNtCsHUR1vrdMJt_3std3ffi6os_str8OsStringBR_EENtNtNtNtBb_4iter6traits8iterator8Iterator4findNCNvMs4_CseYC8vFNOjrM_2ccNtB2v_5Build11try_compile0EB2v_, symObjAddr: 0x10D0, symBinAddr: 0x10007ECA0, symSize: 0xA0 }
  - { offset: 0xCE1EE, size: 0x8, addend: 0x0, symName: __RINvXs2E_NtNtCsieiGu2EXtoJ_4core5slice4iterINtB7_4IterTNtNtNtCsHUR1vrdMJt_3std3ffi6os_str8OsStringBR_EENtNtNtNtBb_4iter6traits8iterator8Iterator4folduNCINvNtNtB1J_8adapters3map8map_foldRBQ_BQ_uNCNvMNtCseYC8vFNOjrM_2cc4toolNtB3a_4Tool20from_find_msvc_tools0NCINvNvB1D_8for_each4callBQ_NCINvMsi_NtCslJiobkLta79_5alloc3vecINtB4H_3VecBQ_E14extend_trustedINtB2t_3MapBF_B35_EE0E0E0EB3c_, symObjAddr: 0x1170, symBinAddr: 0x10007ED40, symSize: 0x190 }
  - { offset: 0xCE32F, size: 0x8, addend: 0x0, symName: __RINvXs2E_NtNtCsieiGu2EXtoJ_4core5slice4iterINtB7_4ItercENtNtNtNtBb_4iter6traits8iterator8Iterator3anyNCNvXsL_NtB9_3cmpcNtB1J_13SliceContains14slice_containss_0ECseYC8vFNOjrM_2cc, symObjAddr: 0x1300, symBinAddr: 0x10007EED0, symSize: 0xA0 }
  - { offset: 0xCE394, size: 0x8, addend: 0x0, symName: __RINvXs2E_NtNtCsieiGu2EXtoJ_4core5slice4iterINtB7_4ItercENtNtNtNtBb_4iter6traits8iterator8Iterator4foldbNCNvXsL_NtB9_3cmpcNtB1L_13SliceContains14slice_contains0ECseYC8vFNOjrM_2cc, symObjAddr: 0x13A0, symBinAddr: 0x10007EF70, symSize: 0x1A0 }
  - { offset: 0xCE4D9, size: 0x8, addend: 0x0, symName: __RINvXs2E_NtNtCsieiGu2EXtoJ_4core5slice4iterINtB7_4IterhENtNtNtNtBb_4iter6traits8iterator8Iterator4folduNCINvNtNtBY_8adapters3map8map_foldRhhuNCNvNtCslJiobkLta79_5alloc3str13replace_ascii0NCINvNvBS_8for_each4callhNCINvMsi_NtB2l_3vecINtB3x_3VechE14extend_trustedINtB1I_3MapBF_B2f_EE0E0E0ECseYC8vFNOjrM_2cc, symObjAddr: 0x1540, symBinAddr: 0x10007F110, symSize: 0x190 }
  - { offset: 0xCE61A, size: 0x8, addend: 0x0, symName: __RINvXs2E_NtNtCsieiGu2EXtoJ_4core5slice4iterINtB7_4IterhENtNtNtNtBb_4iter6traits8iterator8Iterator8positionNCNvXsf_B7_INtB7_5SplithNCNvNtCseYC8vFNOjrM_2cc15command_helpers10run_output0EBS_4next0EB2a_, symObjAddr: 0x16D0, symBinAddr: 0x10007F2A0, symSize: 0x150 }
  - { offset: 0xCE6D8, size: 0x8, addend: 0x0, symName: __RINvXs2E_NtNtCsieiGu2EXtoJ_4core5slice4iterINtB7_4IterhENtNtNtNtBb_4iter6traits8iterator8Iterator8positionNCNvXsf_B7_INtB7_5SplithNtNtBb_3str17IsAsciiWhitespaceEBS_4next0ECseYC8vFNOjrM_2cc, symObjAddr: 0x1820, symBinAddr: 0x10007F3F0, symSize: 0x150 }
  - { offset: 0xCE796, size: 0x8, addend: 0x0, symName: __RINvXs2E_NtNtCsieiGu2EXtoJ_4core5slice4iterINtB7_4IterhENtNtNtNtBb_4iter6traits8iterator8Iterator8positionNCNvXsm_B7_INtB7_14SplitInclusivehNCNvMs_NtCseYC8vFNOjrM_2cc15command_helpersNtB2l_15StderrForwarder17forward_available0EBS_4next0EB2n_, symObjAddr: 0x1970, symBinAddr: 0x10007F540, symSize: 0x150 }
  - { offset: 0xCE854, size: 0x8, addend: 0x0, symName: __RNvXs2E_NtNtCsieiGu2EXtoJ_4core5slice4iterINtB6_4IterAhj20_ENtNtNtNtBa_4iter6traits8iterator8Iterator4nextCseYC8vFNOjrM_2cc, symObjAddr: 0x2A40, symBinAddr: 0x1000804D0, symSize: 0x90 }
  - { offset: 0xCE975, size: 0x8, addend: 0x0, symName: __RNvXs2E_NtNtCsieiGu2EXtoJ_4core5slice4iterINtB6_4IterINtNtCslJiobkLta79_5alloc4sync3ArcNtNtCsHUR1vrdMJt_3std4path4PathEENtNtNtNtBa_4iter6traits8iterator8Iterator4nextCseYC8vFNOjrM_2cc, symObjAddr: 0x2AD0, symBinAddr: 0x100080560, symSize: 0x90 }
  - { offset: 0xCEA96, size: 0x8, addend: 0x0, symName: __RNvXs2E_NtNtCsieiGu2EXtoJ_4core5slice4iterINtB6_4IterINtNtCslJiobkLta79_5alloc4sync3ArcNtNtCsHUR1vrdMJt_3std4path4PathEENtNtNtNtBa_4iter6traits8iterator8Iterator9size_hintCseYC8vFNOjrM_2cc, symObjAddr: 0x2B60, symBinAddr: 0x1000805F0, symSize: 0x60 }
  - { offset: 0xCEB05, size: 0x8, addend: 0x0, symName: __RNvXs2E_NtNtCsieiGu2EXtoJ_4core5slice4iterINtB6_4IterINtNtCslJiobkLta79_5alloc4sync3ArcNtNtNtCsHUR1vrdMJt_3std3ffi6os_str5OsStrEENtNtNtNtBa_4iter6traits8iterator8Iterator4nextCseYC8vFNOjrM_2cc, symObjAddr: 0x2BC0, symBinAddr: 0x100080650, symSize: 0x90 }
  - { offset: 0xCEC26, size: 0x8, addend: 0x0, symName: __RNvXs2E_NtNtCsieiGu2EXtoJ_4core5slice4iterINtB6_4IterINtNtCslJiobkLta79_5alloc5boxed3BoxNtNtNtCsHUR1vrdMJt_3std3ffi6os_str5OsStrEENtNtNtNtBa_4iter6traits8iterator8Iterator4nextCseYC8vFNOjrM_2cc, symObjAddr: 0x2C50, symBinAddr: 0x1000806E0, symSize: 0x90 }
  - { offset: 0xCED47, size: 0x8, addend: 0x0, symName: __RNvXs2E_NtNtCsieiGu2EXtoJ_4core5slice4iterINtB6_4IterNtCseYC8vFNOjrM_2cc6ObjectENtNtNtNtBa_4iter6traits8iterator8Iterator4nextBR_, symObjAddr: 0x2CE0, symBinAddr: 0x100080770, symSize: 0x90 }
  - { offset: 0xCEE68, size: 0x8, addend: 0x0, symName: __RNvXs2E_NtNtCsieiGu2EXtoJ_4core5slice4iterINtB6_4IterNtCseYC8vFNOjrM_2cc6ObjectENtNtNtNtBa_4iter6traits8iterator8Iterator9size_hintBR_, symObjAddr: 0x2D70, symBinAddr: 0x100080800, symSize: 0x60 }
  - { offset: 0xCEED7, size: 0x8, addend: 0x0, symName: __RNvXs2E_NtNtCsieiGu2EXtoJ_4core5slice4iterINtB6_4IterNtNtCslJiobkLta79_5alloc6string6StringENtNtNtNtBa_4iter6traits8iterator8Iterator4nextCseYC8vFNOjrM_2cc, symObjAddr: 0x2DD0, symBinAddr: 0x100080860, symSize: 0x90 }
  - { offset: 0xCEFF8, size: 0x8, addend: 0x0, symName: __RNvXs2E_NtNtCsieiGu2EXtoJ_4core5slice4iterINtB6_4IterNtNtCslJiobkLta79_5alloc6string6StringENtNtNtNtBa_4iter6traits8iterator8Iterator9size_hintCseYC8vFNOjrM_2cc, symObjAddr: 0x2E60, symBinAddr: 0x1000808F0, symSize: 0x60 }
  - { offset: 0xCF067, size: 0x8, addend: 0x0, symName: __RNvXs2E_NtNtCsieiGu2EXtoJ_4core5slice4iterINtB6_4IterNtNtNtCsHUR1vrdMJt_3std3ffi6os_str8OsStringENtNtNtNtBa_4iter6traits8iterator8Iterator4nextCseYC8vFNOjrM_2cc, symObjAddr: 0x2EC0, symBinAddr: 0x100080950, symSize: 0x90 }
  - { offset: 0xCF188, size: 0x8, addend: 0x0, symName: __RNvXs2E_NtNtCsieiGu2EXtoJ_4core5slice4iterINtB6_4IterNtNtNtNtCsHUR1vrdMJt_3std4sync4mpmc5waker5EntryENtNtNtNtBa_4iter6traits8iterator8Iterator4nextCseYC8vFNOjrM_2cc, symObjAddr: 0x2F50, symBinAddr: 0x1000809E0, symSize: 0x90 }
  - { offset: 0xCF2A9, size: 0x8, addend: 0x0, symName: __RNvXs2E_NtNtCsieiGu2EXtoJ_4core5slice4iterINtB6_4IterRINtNtCslJiobkLta79_5alloc3vec3VechEENtNtNtNtBa_4iter6traits8iterator8Iterator4nextCseYC8vFNOjrM_2cc, symObjAddr: 0x2FE0, symBinAddr: 0x100080A70, symSize: 0x90 }
  - { offset: 0xCF3CA, size: 0x8, addend: 0x0, symName: __RNvXs2E_NtNtCsieiGu2EXtoJ_4core5slice4iterINtB6_4IterRNtNtCsHUR1vrdMJt_3std4path4PathENtNtNtNtBa_4iter6traits8iterator8Iterator4nextCseYC8vFNOjrM_2cc, symObjAddr: 0x3070, symBinAddr: 0x100080B00, symSize: 0x90 }
  - { offset: 0xCF4EB, size: 0x8, addend: 0x0, symName: __RNvXs2E_NtNtCsieiGu2EXtoJ_4core5slice4iterINtB6_4IterRNtNtNtCsHUR1vrdMJt_3std3ffi6os_str5OsStrENtNtNtNtBa_4iter6traits8iterator8Iterator9size_hintCseYC8vFNOjrM_2cc, symObjAddr: 0x3100, symBinAddr: 0x100080B90, symSize: 0x60 }
  - { offset: 0xCF55A, size: 0x8, addend: 0x0, symName: __RNvXs2E_NtNtCsieiGu2EXtoJ_4core5slice4iterINtB6_4IterTINtNtCslJiobkLta79_5alloc4sync3ArcNtNtNtCsHUR1vrdMJt_3std3ffi6os_str5OsStrEBQ_EENtNtNtNtBa_4iter6traits8iterator8Iterator4nextCseYC8vFNOjrM_2cc, symObjAddr: 0x3160, symBinAddr: 0x100080BF0, symSize: 0x90 }
  - { offset: 0xCF67B, size: 0x8, addend: 0x0, symName: __RNvXs2E_NtNtCsieiGu2EXtoJ_4core5slice4iterINtB6_4IterTINtNtCslJiobkLta79_5alloc4sync3ArceEINtNtBa_6option6OptionBQ_EEENtNtNtNtBa_4iter6traits8iterator8Iterator4nextCseYC8vFNOjrM_2cc, symObjAddr: 0x31F0, symBinAddr: 0x100080C80, symSize: 0x90 }
  - { offset: 0xCF79C, size: 0x8, addend: 0x0, symName: __RNvXs2E_NtNtCsieiGu2EXtoJ_4core5slice4iterINtB6_4IterTNtNtNtCsHUR1vrdMJt_3std3ffi6os_str8OsStringBQ_EENtNtNtNtBa_4iter6traits8iterator8Iterator9size_hintCseYC8vFNOjrM_2cc, symObjAddr: 0x3280, symBinAddr: 0x100080D10, symSize: 0x60 }
  - { offset: 0xCF80B, size: 0x8, addend: 0x0, symName: __RNvXs2E_NtNtCsieiGu2EXtoJ_4core5slice4iterINtB6_4ItercENtNtNtNtBa_4iter6traits8iterator8Iterator4nextCseYC8vFNOjrM_2cc, symObjAddr: 0x32E0, symBinAddr: 0x100080D70, symSize: 0x90 }
  - { offset: 0xCF92C, size: 0x8, addend: 0x0, symName: __RNvXs2E_NtNtCsieiGu2EXtoJ_4core5slice4iterINtB6_4IterhENtNtNtNtBa_4iter6traits8iterator8Iterator10advance_byCseYC8vFNOjrM_2cc, symObjAddr: 0x3370, symBinAddr: 0x100080E00, symSize: 0xA0 }
  - { offset: 0xCFC47, size: 0x8, addend: 0x0, symName: __RNCNvXsf_NtNtCsieiGu2EXtoJ_4core5slice4iterINtB7_5SplithNCNvNtCseYC8vFNOjrM_2cc15command_helpers10run_output0ENtNtNtNtBb_4iter6traits8iterator8Iterator4next0BY_, symObjAddr: 0x2340, symBinAddr: 0x10007FDF0, symSize: 0x20 }
  - { offset: 0xCFC99, size: 0x8, addend: 0x0, symName: __RNCNvXsf_NtNtCsieiGu2EXtoJ_4core5slice4iterINtB7_5SplithNtNtBb_3str17IsAsciiWhitespaceENtNtNtNtBb_4iter6traits8iterator8Iterator4next0CseYC8vFNOjrM_2cc, symObjAddr: 0x2360, symBinAddr: 0x10007FE10, symSize: 0x20 }
  - { offset: 0xCFD12, size: 0x8, addend: 0x0, symName: __RNvXsf_NtNtCsieiGu2EXtoJ_4core5slice4iterINtB5_5SplithNCNvNtCseYC8vFNOjrM_2cc15command_helpers10run_output0ENtNtNtNtB9_4iter6traits8iterator8Iterator4nextBW_, symObjAddr: 0x3560, symBinAddr: 0x100080FF0, symSize: 0x2D0 }
  - { offset: 0xD0080, size: 0x8, addend: 0x0, symName: __RNvXsf_NtNtCsieiGu2EXtoJ_4core5slice4iterINtB5_5SplithNtNtB9_3str17IsAsciiWhitespaceENtNtNtNtB9_4iter6traits8iterator8Iterator4nextCseYC8vFNOjrM_2cc, symObjAddr: 0x3830, symBinAddr: 0x1000812C0, symSize: 0x2D0 }
  - { offset: 0xD03EE, size: 0x8, addend: 0x0, symName: __RNvXsf_NtNtCsieiGu2EXtoJ_4core5slice4iterINtB5_5SplithNtNtB9_3str17IsAsciiWhitespaceENtNtNtNtB9_4iter6traits8iterator8Iterator9size_hintCseYC8vFNOjrM_2cc, symObjAddr: 0x3B00, symBinAddr: 0x100081590, symSize: 0x70 }
  - { offset: 0xD0439, size: 0x8, addend: 0x0, symName: __RNCNvXsm_NtNtCsieiGu2EXtoJ_4core5slice4iterINtB7_14SplitInclusivehNCNvMs_NtCseYC8vFNOjrM_2cc15command_helpersNtB19_15StderrForwarder17forward_available0ENtNtNtNtBb_4iter6traits8iterator8Iterator4next0B1b_, symObjAddr: 0x2380, symBinAddr: 0x10007FE30, symSize: 0x20 }
  - { offset: 0xD04D6, size: 0x8, addend: 0x0, symName: __RNvXsm_NtNtCsieiGu2EXtoJ_4core5slice4iterINtB5_14SplitInclusivehNCNvMs_NtCseYC8vFNOjrM_2cc15command_helpersNtB17_15StderrForwarder17forward_available0ENtNtNtNtB9_4iter6traits8iterator8Iterator4nextB19_, symObjAddr: 0x3B70, symBinAddr: 0x100081600, symSize: 0x2E0 }
  - { offset: 0xD09AB, size: 0x8, addend: 0x0, symName: __RNvXs17_NtNtCsieiGu2EXtoJ_4core5slice4iterINtB6_6ChunksRNtNtCsHUR1vrdMJt_3std4path4PathENtNtNtNtBa_4iter6traits8iterator8Iterator4nextCseYC8vFNOjrM_2cc, symObjAddr: 0x2750, symBinAddr: 0x1000801E0, symSize: 0x190 }
  - { offset: 0xD0AA7, size: 0x8, addend: 0x0, symName: __RNvXs1q_NtNtCsieiGu2EXtoJ_4core5slice4iterINtB6_11ChunksExactcENtNtNtNtBa_4iter6traits8iterator8Iterator4nextCseYC8vFNOjrM_2cc, symObjAddr: 0x28E0, symBinAddr: 0x100080370, symSize: 0x160 }
  - { offset: 0xD0BDC, size: 0x8, addend: 0x0, symName: __RNvXs2F_NtNtCsieiGu2EXtoJ_4core5slice4iterINtB6_4IterNtNtCslJiobkLta79_5alloc6string6StringENtNtNtNtBa_4iter6traits12double_ended19DoubleEndedIterator9next_backCseYC8vFNOjrM_2cc, symObjAddr: 0x3410, symBinAddr: 0x100080EA0, symSize: 0x100 }
  - { offset: 0xD0D31, size: 0x8, addend: 0x0, symName: __RNvXs_NtNtCsieiGu2EXtoJ_4core5slice4iterRSReNtNtNtNtB8_4iter6traits7collect12IntoIterator9into_iterCseYC8vFNOjrM_2cc, symObjAddr: 0x3510, symBinAddr: 0x100080FA0, symSize: 0x50 }
  - { offset: 0xD179E, size: 0x8, addend: 0x0, symName: __RINvYINtNtNtCsieiGu2EXtoJ_4core5slice4iter4IterINtNtCslJiobkLta79_5alloc4sync3ArcNtNtCsHUR1vrdMJt_3std4path4PathEENtNtNtNtBa_4iter6traits8iterator8Iterator3mapRB1h_NvYBJ_NtNtNtBa_3ops5deref5Deref5derefECseYC8vFNOjrM_2cc, symObjAddr: 0x1AE0, symBinAddr: 0x10007F690, symSize: 0x20 }
  - { offset: 0xD17F6, size: 0x8, addend: 0x0, symName: __RINvYINtNtNtCsieiGu2EXtoJ_4core5slice4iter4IterINtNtCslJiobkLta79_5alloc4sync3ArcNtNtCsHUR1vrdMJt_3std4path4PathEENtNtNtNtBa_4iter6traits8iterator8Iterator3mapjNCINvNvXs1_NtNtB1U_8adapters6filterINtB2J_6FilterppEB1O_5count8to_usizeRBJ_NCNvMs4_CseYC8vFNOjrM_2ccNtB3T_5Build15cuda_file_count0E0EB3T_, symObjAddr: 0x1B00, symBinAddr: 0x10007F6B0, symSize: 0x20 }
  - { offset: 0xD184E, size: 0x8, addend: 0x0, symName: __RINvYINtNtNtCsieiGu2EXtoJ_4core5slice4iter4IterINtNtCslJiobkLta79_5alloc4sync3ArcNtNtCsHUR1vrdMJt_3std4path4PathEENtNtNtNtBa_4iter6traits8iterator8Iterator6filterNCNvMs4_CseYC8vFNOjrM_2ccNtB2I_5Build15cuda_file_count0EB2I_, symObjAddr: 0x1B20, symBinAddr: 0x10007F6D0, symSize: 0x20 }
  - { offset: 0xD189D, size: 0x8, addend: 0x0, symName: __RINvYINtNtNtCsieiGu2EXtoJ_4core5slice4iter4IterINtNtCslJiobkLta79_5alloc4sync3ArcNtNtNtCsHUR1vrdMJt_3std3ffi6os_str5OsStrEENtNtNtNtBa_4iter6traits8iterator8Iterator3mapRB1h_NvYBJ_NtNtNtBa_3ops5deref5Deref5derefECseYC8vFNOjrM_2cc, symObjAddr: 0x1C40, symBinAddr: 0x10007F6F0, symSize: 0x20 }
  - { offset: 0xD18F5, size: 0x8, addend: 0x0, symName: __RINvYINtNtNtCsieiGu2EXtoJ_4core5slice4iter4IterNtCseYC8vFNOjrM_2cc6ObjectENtNtNtNtBa_4iter6traits8iterator8Iterator3mapINtNtBa_6result6ResultNtNtCsHUR1vrdMJt_3std7process7CommandNtBL_5ErrorENCNvMs4_BL_NtBL_5Build15compile_objects0EBL_, symObjAddr: 0x1C60, symBinAddr: 0x10007F710, symSize: 0x20 }
  - { offset: 0xD1962, size: 0x8, addend: 0x0, symName: __RINvYINtNtNtCsieiGu2EXtoJ_4core5slice4iter4IterNtCseYC8vFNOjrM_2cc6ObjectENtNtNtNtBa_4iter6traits8iterator8Iterator3mapRNtNtCsHUR1vrdMJt_3std4path4PathNCNvMs4_BL_NtBL_5Build8assemble0EBL_, symObjAddr: 0x1C80, symBinAddr: 0x10007F730, symSize: 0x20 }
  - { offset: 0xD19BA, size: 0x8, addend: 0x0, symName: __RINvYINtNtNtCsieiGu2EXtoJ_4core5slice4iter4IterNtCseYC8vFNOjrM_2cc6ObjectENtNtNtNtBa_4iter6traits8iterator8Iterator8try_foldINtNtNtBa_3num7nonzero7NonZerojENCINvNtNtB1g_8adapters3map12map_try_foldRBJ_INtNtBa_6result6ResultNtNtCsHUR1vrdMJt_3std7process7CommandNtBL_5ErrorEB1Y_INtNtBa_6option6OptionB1Y_ENCNvMs4_BL_NtBL_5Build15compile_objects0NCNvXs_NvB1a_10advance_byINtB2z_3MapB3_B4Q_ENtB5B_13SpecAdvanceBy15spec_advance_by0E0B4p_EBL_, symObjAddr: 0x1CA0, symBinAddr: 0x10007F750, symSize: 0x130 }
  - { offset: 0xD1A6E, size: 0x8, addend: 0x0, symName: __RINvYINtNtNtCsieiGu2EXtoJ_4core5slice4iter4IterNtNtCslJiobkLta79_5alloc6string6StringENtNtNtNtBa_4iter6traits8iterator8Iterator10filter_mapINtNtBN_4sync3ArcNtNtNtCsHUR1vrdMJt_3std3ffi6os_str5OsStrENCNvMs4_CseYC8vFNOjrM_2ccNtB3h_5Build27getenv_with_target_prefixes0EB3h_, symObjAddr: 0x1DD0, symBinAddr: 0x10007F880, symSize: 0x20 }
  - { offset: 0xD1ADB, size: 0x8, addend: 0x0, symName: __RINvYINtNtNtCsieiGu2EXtoJ_4core5slice4iter4IterNtNtCslJiobkLta79_5alloc6string6StringENtNtNtNtBa_4iter6traits8iterator8Iterator3mapRNtNtNtCsHUR1vrdMJt_3std3ffi6os_str5OsStrINvMsl_B28_B26_3newBJ_EECseYC8vFNOjrM_2cc, symObjAddr: 0x1DF0, symBinAddr: 0x10007F8A0, symSize: 0x20 }
  - { offset: 0xD1B33, size: 0x8, addend: 0x0, symName: __RINvYINtNtNtCsieiGu2EXtoJ_4core5slice4iter4IterNtNtNtCsHUR1vrdMJt_3std3ffi6os_str8OsStringENtNtNtNtBa_4iter6traits8iterator8Iterator6filterNCNvMNtCseYC8vFNOjrM_2cc4toolNtB2i_4Tool10to_command0EB2k_, symObjAddr: 0x1E10, symBinAddr: 0x10007F8C0, symSize: 0x20 }
  - { offset: 0xD1B97, size: 0x8, addend: 0x0, symName: __RINvYINtNtNtCsieiGu2EXtoJ_4core5slice4iter4IterNtNtNtNtCsHUR1vrdMJt_3std4sync4mpmc5waker5EntryENtNtNtNtBa_4iter6traits8iterator8Iterator8try_folduNCINvNvXs_NtNtB1B_8adapters9enumerateINtB2u_9EnumeratepEB1v_8try_fold9enumerateRBJ_uINtNtNtBa_3ops12control_flow11ControlFlowTjB3B_EENCINvNvB1v_4find5checkB4l_NCNvMBL_NtBL_5Waker10unregister0E0E0B3G_ECseYC8vFNOjrM_2cc, symObjAddr: 0x1E30, symBinAddr: 0x10007F8E0, symSize: 0x190 }
  - { offset: 0xD1C4A, size: 0x8, addend: 0x0, symName: __RINvYINtNtNtCsieiGu2EXtoJ_4core5slice4iter4IterRNtNtNtCsHUR1vrdMJt_3std3ffi6os_str5OsStrENtNtNtNtBa_4iter6traits8iterator8Iterator3mapBJ_NvYBJ_NtNtBa_5clone5Clone5cloneECseYC8vFNOjrM_2cc, symObjAddr: 0x1FC0, symBinAddr: 0x10007FA70, symSize: 0x20 }
  - { offset: 0xD1CA2, size: 0x8, addend: 0x0, symName: __RINvYINtNtNtCsieiGu2EXtoJ_4core5slice4iter4IterRNtNtNtCsHUR1vrdMJt_3std3ffi6os_str5OsStrENtNtNtNtBa_4iter6traits8iterator8Iterator6clonedBJ_ECseYC8vFNOjrM_2cc, symObjAddr: 0x1FE0, symBinAddr: 0x10007FA90, symSize: 0x20 }
  - { offset: 0xD1CE2, size: 0x8, addend: 0x0, symName: __RINvYINtNtNtCsieiGu2EXtoJ_4core5slice4iter4IterReENtNtNtNtBa_4iter6traits8iterator8Iterator10filter_mapNtNtCslJiobkLta79_5alloc6string6StringNCNvMs4_CseYC8vFNOjrM_2ccNtB2n_5Build25get_base_archiver_variants1_0EB2n_, symObjAddr: 0x2000, symBinAddr: 0x10007FAB0, symSize: 0x30 }
  - { offset: 0xD1D4F, size: 0x8, addend: 0x0, symName: __RINvYINtNtNtCsieiGu2EXtoJ_4core5slice4iter4IterTNtNtNtCsHUR1vrdMJt_3std3ffi6os_str8OsStringBK_EENtNtNtNtBa_4iter6traits8iterator8Iterator3mapBJ_NCNvMNtCseYC8vFNOjrM_2cc4toolNtB2n_4Tool20from_find_msvc_tools0EB2p_, symObjAddr: 0x2030, symBinAddr: 0x10007FAE0, symSize: 0x20 }
  - { offset: 0xD1DA7, size: 0x8, addend: 0x0, symName: __RINvYINtNtNtCsieiGu2EXtoJ_4core5slice4iter5SplithNCNvNtCseYC8vFNOjrM_2cc15command_helpers10run_output0ENtNtNtNtBa_4iter6traits8iterator8Iterator4folduNCINvNtNtB1J_8adapters6filter11filter_foldRShuNCBN_s_0NCINvNvB1D_8for_each4callB34_NvBP_13write_warningE0E0EBR_, symObjAddr: 0x2050, symBinAddr: 0x10007FB00, symSize: 0xA0 }
  - { offset: 0xD1E37, size: 0x8, addend: 0x0, symName: __RINvYINtNtNtCsieiGu2EXtoJ_4core5slice4iter5SplithNCNvNtCseYC8vFNOjrM_2cc15command_helpers10run_output0ENtNtNtNtBa_4iter6traits8iterator8Iterator6filterNCBN_s_0EBR_, symObjAddr: 0x20F0, symBinAddr: 0x10007FBA0, symSize: 0x20 }
  - { offset: 0xD1E9B, size: 0x8, addend: 0x0, symName: __RINvYINtNtNtCsieiGu2EXtoJ_4core5slice4iter5SplithNtNtBa_3str17IsAsciiWhitespaceENtNtNtNtBa_4iter6traits8iterator8Iterator4findQNtBN_15BytesIsNotEmptyECseYC8vFNOjrM_2cc, symObjAddr: 0x2110, symBinAddr: 0x10007FBC0, symSize: 0x90 }
  - { offset: 0xD1F1A, size: 0x8, addend: 0x0, symName: __RINvYINtNtNtCsieiGu2EXtoJ_4core5slice4iter5SplithNtNtBa_3str17IsAsciiWhitespaceENtNtNtNtBa_4iter6traits8iterator8Iterator8try_folduNCINvNvB1g_4find5checkRShQNtBN_15BytesIsNotEmptyE0INtNtNtBa_3ops12control_flow11ControlFlowB2r_EECseYC8vFNOjrM_2cc, symObjAddr: 0x21A0, symBinAddr: 0x10007FC50, symSize: 0x1A0 }
  - { offset: 0xD1FCD, size: 0x8, addend: 0x0, symName: __RNvYINtNtNtCsieiGu2EXtoJ_4core5slice4iter4IterINtNtCslJiobkLta79_5alloc4sync3ArcNtNtNtCsHUR1vrdMJt_3std3ffi6os_str5OsStrEENtNtNtNtB9_4iter6traits8iterator8Iterator9enumerateCseYC8vFNOjrM_2cc, symObjAddr: 0x3E50, symBinAddr: 0x1000818E0, symSize: 0x20 }
  - { offset: 0xD2019, size: 0x8, addend: 0x0, symName: __RNvYINtNtNtCsieiGu2EXtoJ_4core5slice4iter4IterNtNtCslJiobkLta79_5alloc6string6StringENtNtNtNtB9_4iter6traits8iterator8Iterator3revCseYC8vFNOjrM_2cc, symObjAddr: 0x3E70, symBinAddr: 0x100081900, symSize: 0x20 }
  - { offset: 0xD2112, size: 0x8, addend: 0x0, symName: __RNvXNtNtNtCsieiGu2EXtoJ_4core4iter6traits7collectINtNtNtB8_5slice4iter14SplitInclusivehNCNvMs_NtCseYC8vFNOjrM_2cc15command_helpersNtB1u_15StderrForwarder17forward_available0ENtB2_12IntoIterator9into_iterB1w_, symObjAddr: 0x2670, symBinAddr: 0x100080120, symSize: 0x20 }
  - { offset: 0xD2149, size: 0x8, addend: 0x0, symName: __RNvXNtNtNtCsieiGu2EXtoJ_4core4iter6traits7collectINtNtNtB8_5slice4iter4IterINtNtCslJiobkLta79_5alloc4sync3ArcNtNtCsHUR1vrdMJt_3std4path4PathEENtB2_12IntoIterator9into_iterCseYC8vFNOjrM_2cc, symObjAddr: 0x2690, symBinAddr: 0x100080140, symSize: 0x20 }
  - { offset: 0xD2180, size: 0x8, addend: 0x0, symName: __RNvXNtNtNtCsieiGu2EXtoJ_4core4iter6traits7collectINtNtNtB8_5slice4iter4IterINtNtCslJiobkLta79_5alloc4sync3ArcNtNtNtCsHUR1vrdMJt_3std3ffi6os_str5OsStrEENtB2_12IntoIterator9into_iterCseYC8vFNOjrM_2cc, symObjAddr: 0x26B0, symBinAddr: 0x100080160, symSize: 0x20 }
  - { offset: 0xD21B7, size: 0x8, addend: 0x0, symName: __RNvXNtNtNtCsieiGu2EXtoJ_4core4iter6traits7collectINtNtNtB8_5slice4iter4IterTINtNtCslJiobkLta79_5alloc4sync3ArcNtNtNtCsHUR1vrdMJt_3std3ffi6os_str5OsStrEB1c_EENtB2_12IntoIterator9into_iterCseYC8vFNOjrM_2cc, symObjAddr: 0x26F0, symBinAddr: 0x100080180, symSize: 0x20 }
  - { offset: 0xD21EE, size: 0x8, addend: 0x0, symName: __RNvXNtNtNtCsieiGu2EXtoJ_4core4iter6traits7collectINtNtNtB8_5slice4iter4IterTINtNtCslJiobkLta79_5alloc4sync3ArceEINtNtB8_6option6OptionB1c_EEENtB2_12IntoIterator9into_iterCseYC8vFNOjrM_2cc, symObjAddr: 0x2710, symBinAddr: 0x1000801A0, symSize: 0x20 }
  - { offset: 0xD2225, size: 0x8, addend: 0x0, symName: __RNvXNtNtNtCsieiGu2EXtoJ_4core4iter6traits7collectINtNtNtB8_5slice4iter6ChunksRNtNtCsHUR1vrdMJt_3std4path4PathENtB2_12IntoIterator9into_iterCseYC8vFNOjrM_2cc, symObjAddr: 0x2730, symBinAddr: 0x1000801C0, symSize: 0x20 }
  - { offset: 0xD5B4F, size: 0x8, addend: 0x0, symName: __RNvMs4_NtNtCsieiGu2EXtoJ_4core5slice4iterINtB5_4IterINtNtCslJiobkLta79_5alloc4sync3ArcNtNtCsHUR1vrdMJt_3std4path4PathEE3newCseYC8vFNOjrM_2cc, symObjAddr: 0x23A0, symBinAddr: 0x10007FE50, symSize: 0x50 }
  - { offset: 0xD5D16, size: 0x8, addend: 0x0, symName: __RNvMs4_NtNtCsieiGu2EXtoJ_4core5slice4iterINtB5_4IterINtNtCslJiobkLta79_5alloc4sync3ArcNtNtNtCsHUR1vrdMJt_3std3ffi6os_str5OsStrEE3newCseYC8vFNOjrM_2cc, symObjAddr: 0x23F0, symBinAddr: 0x10007FEA0, symSize: 0x50 }
  - { offset: 0xD5EC3, size: 0x8, addend: 0x0, symName: __RNvMs4_NtNtCsieiGu2EXtoJ_4core5slice4iterINtB5_4IterNtCseYC8vFNOjrM_2cc6ObjectE3newBQ_, symObjAddr: 0x2440, symBinAddr: 0x10007FEF0, symSize: 0x50 }
  - { offset: 0xD6070, size: 0x8, addend: 0x0, symName: __RNvMs4_NtNtCsieiGu2EXtoJ_4core5slice4iterINtB5_4IterNtNtCslJiobkLta79_5alloc6string6StringE3newCseYC8vFNOjrM_2cc, symObjAddr: 0x2490, symBinAddr: 0x10007FF40, symSize: 0x50 }
  - { offset: 0xD621D, size: 0x8, addend: 0x0, symName: __RNvMs4_NtNtCsieiGu2EXtoJ_4core5slice4iterINtB5_4IterNtNtNtCsHUR1vrdMJt_3std3ffi6os_str8OsStringE3newCseYC8vFNOjrM_2cc, symObjAddr: 0x24E0, symBinAddr: 0x10007FF90, symSize: 0x50 }
  - { offset: 0xD63F1, size: 0x8, addend: 0x0, symName: __RNvMs4_NtNtCsieiGu2EXtoJ_4core5slice4iterINtB5_4IterRINtNtCslJiobkLta79_5alloc3vec3VechEE3newCseYC8vFNOjrM_2cc, symObjAddr: 0x2530, symBinAddr: 0x10007FFE0, symSize: 0x50 }
  - { offset: 0xD65AB, size: 0x8, addend: 0x0, symName: __RNvMs4_NtNtCsieiGu2EXtoJ_4core5slice4iterINtB5_4IterRNtNtNtCsHUR1vrdMJt_3std3ffi6os_str5OsStrE3newCseYC8vFNOjrM_2cc, symObjAddr: 0x2580, symBinAddr: 0x100080030, symSize: 0x50 }
  - { offset: 0xD6772, size: 0x8, addend: 0x0, symName: __RNvMs4_NtNtCsieiGu2EXtoJ_4core5slice4iterINtB5_4IterTINtNtCslJiobkLta79_5alloc4sync3ArcNtNtNtCsHUR1vrdMJt_3std3ffi6os_str5OsStrEBP_EE3newCseYC8vFNOjrM_2cc, symObjAddr: 0x25D0, symBinAddr: 0x100080080, symSize: 0x50 }
  - { offset: 0xD6939, size: 0x8, addend: 0x0, symName: __RNvMs4_NtNtCsieiGu2EXtoJ_4core5slice4iterINtB5_4IterTINtNtCslJiobkLta79_5alloc4sync3ArceEINtNtB9_6option6OptionBP_EEE3newCseYC8vFNOjrM_2cc, symObjAddr: 0x2620, symBinAddr: 0x1000800D0, symSize: 0x50 }
  - { offset: 0xD7B38, size: 0x8, addend: 0x0, symName: __RINvMNtCsieiGu2EXtoJ_4core4boolb9then_someNtNtCsHUR1vrdMJt_3std4path7PathBufECseYC8vFNOjrM_2cc, symObjAddr: 0x0, symBinAddr: 0x100081920, symSize: 0x80 }
  - { offset: 0xD7BC8, size: 0x8, addend: 0x0, symName: __RNvXNvNtCsHUR1vrdMJt_3std2io17default_write_fmtINtB2_7AdapterINtNtNtB4_8buffered9bufwriter9BufWriterNtNtB4_5stdio6StdoutEENtNtCsieiGu2EXtoJ_4core3fmt5Write9write_strCseYC8vFNOjrM_2cc, symObjAddr: 0x64D0, symBinAddr: 0x100087D30, symSize: 0xA0 }
  - { offset: 0xD7C24, size: 0x8, addend: 0x0, symName: __RNvXNvNtCsHUR1vrdMJt_3std2io17default_write_fmtINtB2_7AdapterNtNtB6_2fs4FileENtNtCsieiGu2EXtoJ_4core3fmt5Write9write_strCseYC8vFNOjrM_2cc, symObjAddr: 0x6570, symBinAddr: 0x100087DD0, symSize: 0xA0 }
  - { offset: 0xD7FA0, size: 0x8, addend: 0x0, symName: __RINvNtCsHUR1vrdMJt_3std2io17default_write_fmtINtNtNtB2_8buffered9bufwriter9BufWriterNtNtB2_5stdio6StdoutEECseYC8vFNOjrM_2cc, symObjAddr: 0x2D60, symBinAddr: 0x1000845C0, symSize: 0x120 }
  - { offset: 0xD8050, size: 0x8, addend: 0x0, symName: __RINvNtCsHUR1vrdMJt_3std2io17default_write_fmtNtNtB4_2fs4FileECseYC8vFNOjrM_2cc, symObjAddr: 0x2E80, symBinAddr: 0x1000846E0, symSize: 0x120 }
  - { offset: 0xD85F7, size: 0x8, addend: 0x0, symName: __RNCNvMs1_NtNtNtCsHUR1vrdMJt_3std4sync4mpmc4zeroINtB7_7ChannelINtNtCsieiGu2EXtoJ_4core6result6ResultNtCslzRnRZxZnvp_9jobserver8AcquiredNtNtNtBd_2io5error5ErrorEE4send0CseYC8vFNOjrM_2cc, symObjAddr: 0x31F0, symBinAddr: 0x100084A50, symSize: 0x880 }
  - { offset: 0xD9985, size: 0x8, addend: 0x0, symName: __RNCNkNvNvMNtNtCsHUR1vrdMJt_3std4hash6randomNtB8_11RandomState3new4KEYS0s_0CseYC8vFNOjrM_2cc, symObjAddr: 0x31A0, symBinAddr: 0x100084A00, symSize: 0x30 }
  - { offset: 0xD99C3, size: 0x8, addend: 0x0, symName: __RNvNvNvMNtNtCsHUR1vrdMJt_3std4hash6randomNtB6_11RandomState3new4KEYS6___initCseYC8vFNOjrM_2cc, symObjAddr: 0x64B0, symBinAddr: 0x100087D10, symSize: 0x20 }
  - { offset: 0xD99E1, size: 0x8, addend: 0x0, symName: __RNCNvMNtNtCsHUR1vrdMJt_3std4hash6randomNtB4_11RandomState3new0CseYC8vFNOjrM_2cc, symObjAddr: 0x31D0, symBinAddr: 0x100084A30, symSize: 0x20 }
  - { offset: 0xD9ACA, size: 0x8, addend: 0x0, symName: __RNvXs2_NtNtCsHUR1vrdMJt_3std4hash6randomNtB5_13DefaultHasherNtNtCsieiGu2EXtoJ_4core4hash6Hasher5writeCseYC8vFNOjrM_2cc, symObjAddr: 0x68E0, symBinAddr: 0x100088140, symSize: 0x30 }
  - { offset: 0xD9B25, size: 0x8, addend: 0x0, symName: __RNvXs2_NtNtCsHUR1vrdMJt_3std4hash6randomNtB5_13DefaultHasherNtNtCsieiGu2EXtoJ_4core4hash6Hasher6finishCseYC8vFNOjrM_2cc, symObjAddr: 0x6910, symBinAddr: 0x100088170, symSize: 0x20 }
  - { offset: 0xD9B6E, size: 0x8, addend: 0x0, symName: __RNvXs2_NtNtCsHUR1vrdMJt_3std4hash6randomNtB5_13DefaultHasherNtNtCsieiGu2EXtoJ_4core4hash6Hasher9write_strCseYC8vFNOjrM_2cc, symObjAddr: 0x6930, symBinAddr: 0x100088190, symSize: 0x30 }
  - { offset: 0xD9BCF, size: 0x8, addend: 0x0, symName: __RNvXs3_NtNtCsHUR1vrdMJt_3std4hash6randomNtB5_11RandomStateNtNtCsieiGu2EXtoJ_4core7default7Default7defaultCseYC8vFNOjrM_2cc, symObjAddr: 0x6AF0, symBinAddr: 0x100088350, symSize: 0x20 }
  - { offset: 0xD9C07, size: 0x8, addend: 0x0, symName: __RNvXs_NtNtCsHUR1vrdMJt_3std4hash6randomNtB4_11RandomStateNtNtCsieiGu2EXtoJ_4core4hash11BuildHasher12build_hasherCseYC8vFNOjrM_2cc, symObjAddr: 0x6F40, symBinAddr: 0x1000887A0, symSize: 0xF0 }
  - { offset: 0xDF63D, size: 0x8, addend: 0x0, symName: __RNvXs3_NtCsieiGu2EXtoJ_4core6optionINtB5_6OptionINtNtCslJiobkLta79_5alloc4sync3ArcNtNtNtCsHUR1vrdMJt_3std3ffi6os_str5OsStrEENtNtB7_5clone5Clone5cloneCseYC8vFNOjrM_2cc, symObjAddr: 0x6960, symBinAddr: 0x1000881C0, symSize: 0x60 }
  - { offset: 0xDF692, size: 0x8, addend: 0x0, symName: __RNvXs3_NtCsieiGu2EXtoJ_4core6optionINtB5_6OptionNtNtCsHUR1vrdMJt_3std4path7PathBufENtNtB7_5clone5Clone5cloneCseYC8vFNOjrM_2cc, symObjAddr: 0x69C0, symBinAddr: 0x100088220, symSize: 0x90 }
  - { offset: 0xDF6E7, size: 0x8, addend: 0x0, symName: __RNvXs3_NtCsieiGu2EXtoJ_4core6optionINtB5_6OptionNtNtCseYC8vFNOjrM_2cc4tool4ToolENtNtB7_5clone5Clone5cloneBO_, symObjAddr: 0x6A50, symBinAddr: 0x1000882B0, symSize: 0xA0 }
  - { offset: 0xDF742, size: 0x8, addend: 0x0, symName: __RNvXs5_NtCsieiGu2EXtoJ_4core6optionINtB5_6OptionReENtNtB7_7default7Default7defaultCseYC8vFNOjrM_2cc, symObjAddr: 0x6B10, symBinAddr: 0x100088370, symSize: 0x10 }
  - { offset: 0xDF76A, size: 0x8, addend: 0x0, symName: __RNvXs5_NtCsieiGu2EXtoJ_4core6optionINtB5_6OptionbENtNtB7_7default7Default7defaultCseYC8vFNOjrM_2cc, symObjAddr: 0x6B20, symBinAddr: 0x100088380, symSize: 0x10 }
  - { offset: 0xDF792, size: 0x8, addend: 0x0, symName: __RNvXs5_NtCsieiGu2EXtoJ_4core6optionINtB5_6OptionmENtNtB7_7default7Default7defaultCseYC8vFNOjrM_2cc, symObjAddr: 0x6B30, symBinAddr: 0x100088390, symSize: 0x10 }
  - { offset: 0xDF7C0, size: 0x8, addend: 0x0, symName: __RNvXsC_NtCsieiGu2EXtoJ_4core6optionINtB5_6OptionINtNtCslJiobkLta79_5alloc3vec3VechEENtNtNtB7_3ops9try_trait3Try6branchCseYC8vFNOjrM_2cc, symObjAddr: 0x6B40, symBinAddr: 0x1000883A0, symSize: 0x80 }
  - { offset: 0xDF816, size: 0x8, addend: 0x0, symName: __RNvXsC_NtCsieiGu2EXtoJ_4core6optionINtB5_6OptionINtNtCslJiobkLta79_5alloc4sync3ArcNtNtNtCsHUR1vrdMJt_3std3ffi6os_str5OsStrEENtNtNtB7_3ops9try_trait3Try6branchCseYC8vFNOjrM_2cc, symObjAddr: 0x6BC0, symBinAddr: 0x100088420, symSize: 0x60 }
  - { offset: 0xDF86B, size: 0x8, addend: 0x0, symName: __RNvXsC_NtCsieiGu2EXtoJ_4core6optionINtB5_6OptionINtNtNtB7_3num7nonzero7NonZerojEENtNtNtB7_3ops9try_trait3Try11from_outputCseYC8vFNOjrM_2cc, symObjAddr: 0x6C20, symBinAddr: 0x100088480, symSize: 0x10 }
  - { offset: 0xDF8A2, size: 0x8, addend: 0x0, symName: __RNvXsC_NtCsieiGu2EXtoJ_4core6optionINtB5_6OptionINtNtNtB7_3num7nonzero7NonZerojEENtNtNtB7_3ops9try_trait3Try6branchCseYC8vFNOjrM_2cc, symObjAddr: 0x6C30, symBinAddr: 0x100088490, symSize: 0x40 }
  - { offset: 0xDF8F7, size: 0x8, addend: 0x0, symName: __RNvXsC_NtCsieiGu2EXtoJ_4core6optionINtB5_6OptionNtNtCsHUR1vrdMJt_3std7process10ExitStatusENtNtNtB7_3ops9try_trait3Try6branchCseYC8vFNOjrM_2cc, symObjAddr: 0x6C70, symBinAddr: 0x1000884D0, symSize: 0x40 }
  - { offset: 0xDF94C, size: 0x8, addend: 0x0, symName: __RNvXsC_NtCsieiGu2EXtoJ_4core6optionINtB5_6OptionNtNtCseYC8vFNOjrM_2cc4tool4ToolENtNtNtB7_3ops9try_trait3Try6branchBO_, symObjAddr: 0x6CB0, symBinAddr: 0x100088510, symSize: 0xA0 }
  - { offset: 0xDF9A3, size: 0x8, addend: 0x0, symName: __RNvXsC_NtCsieiGu2EXtoJ_4core6optionINtB5_6OptionNtNtCseYC8vFNOjrM_2cc6target10TargetInfoENtNtNtB7_3ops9try_trait3Try6branchBO_, symObjAddr: 0x6D50, symBinAddr: 0x1000885B0, symSize: 0x70 }
  - { offset: 0xDF9FA, size: 0x8, addend: 0x0, symName: __RNvXsC_NtCsieiGu2EXtoJ_4core6optionINtB5_6OptionRNtNtNtCsHUR1vrdMJt_3std3ffi6os_str5OsStrENtNtNtB7_3ops9try_trait3Try6branchCseYC8vFNOjrM_2cc, symObjAddr: 0x6DC0, symBinAddr: 0x100088620, symSize: 0x60 }
  - { offset: 0xDFA4F, size: 0x8, addend: 0x0, symName: __RNvXsC_NtCsieiGu2EXtoJ_4core6optionINtB5_6OptionReENtNtNtB7_3ops9try_trait3Try6branchCseYC8vFNOjrM_2cc, symObjAddr: 0x6E20, symBinAddr: 0x100088680, symSize: 0x60 }
  - { offset: 0xDFAAA, size: 0x8, addend: 0x0, symName: __RNvXsD_NtCsieiGu2EXtoJ_4core6optionINtB5_6OptionINtNtCslJiobkLta79_5alloc4sync3ArcNtNtNtCsHUR1vrdMJt_3std3ffi6os_str5OsStrEEINtNtNtB7_3ops9try_trait12FromResidualIBy_NtNtB7_7convert10InfallibleEE13from_residualCseYC8vFNOjrM_2cc, symObjAddr: 0x6E80, symBinAddr: 0x1000886E0, symSize: 0x10 }
  - { offset: 0xDFADD, size: 0x8, addend: 0x0, symName: __RNvXsD_NtCsieiGu2EXtoJ_4core6optionINtB5_6OptionINtNtCslJiobkLta79_5alloc4sync3ArceEEINtNtNtB7_3ops9try_trait12FromResidualIBy_NtNtB7_7convert10InfallibleEE13from_residualCseYC8vFNOjrM_2cc, symObjAddr: 0x6E90, symBinAddr: 0x1000886F0, symSize: 0x10 }
  - { offset: 0xDFB10, size: 0x8, addend: 0x0, symName: __RNvXsD_NtCsieiGu2EXtoJ_4core6optionINtB5_6OptionINtNtNtB7_3num7nonzero7NonZerojEEINtNtNtB7_3ops9try_trait12FromResidualIBy_NtNtB7_7convert10InfallibleEE13from_residualCseYC8vFNOjrM_2cc, symObjAddr: 0x6EA0, symBinAddr: 0x100088700, symSize: 0x10 }
  - { offset: 0xDFB43, size: 0x8, addend: 0x0, symName: __RNvXsD_NtCsieiGu2EXtoJ_4core6optionINtB5_6OptionNtNtCsHUR1vrdMJt_3std4path7PathBufEINtNtNtB7_3ops9try_trait12FromResidualIBy_NtNtB7_7convert10InfallibleEE13from_residualCseYC8vFNOjrM_2cc, symObjAddr: 0x6EB0, symBinAddr: 0x100088710, symSize: 0x20 }
  - { offset: 0xDFB76, size: 0x8, addend: 0x0, symName: __RNvXsD_NtCsieiGu2EXtoJ_4core6optionINtB5_6OptionNtNtCsHUR1vrdMJt_3std7process7CommandEINtNtNtB7_3ops9try_trait12FromResidualIBy_NtNtB7_7convert10InfallibleEE13from_residualCseYC8vFNOjrM_2cc, symObjAddr: 0x6ED0, symBinAddr: 0x100088730, symSize: 0x20 }
  - { offset: 0xDFBA9, size: 0x8, addend: 0x0, symName: __RNvXsD_NtCsieiGu2EXtoJ_4core6optionINtB5_6OptionNtNtCslJiobkLta79_5alloc6string6StringEINtNtNtB7_3ops9try_trait12FromResidualIBy_NtNtB7_7convert10InfallibleEE13from_residualCseYC8vFNOjrM_2cc, symObjAddr: 0x6EF0, symBinAddr: 0x100088750, symSize: 0x20 }
  - { offset: 0xDFBDC, size: 0x8, addend: 0x0, symName: __RNvXsD_NtCsieiGu2EXtoJ_4core6optionINtB5_6OptionTNtNtCsHUR1vrdMJt_3std4path7PathBufIBy_INtNtCslJiobkLta79_5alloc4sync3ArcNtNtNtBP_3ffi6os_str5OsStrEEINtNtB1s_3vec3VecNtNtB1s_6string6StringEEEINtNtNtB7_3ops9try_trait12FromResidualIBy_NtNtB7_7convert10InfallibleEE13from_residualCseYC8vFNOjrM_2cc, symObjAddr: 0x6F10, symBinAddr: 0x100088770, symSize: 0x20 }
  - { offset: 0xDFC0F, size: 0x8, addend: 0x0, symName: __RNvXsD_NtCsieiGu2EXtoJ_4core6optionINtB5_6OptionmEINtNtNtB7_3ops9try_trait12FromResidualIBy_NtNtB7_7convert10InfallibleEE13from_residualCseYC8vFNOjrM_2cc, symObjAddr: 0x6F30, symBinAddr: 0x100088790, symSize: 0x10 }
  - { offset: 0xDFC48, size: 0x8, addend: 0x0, symName: __RNvXsd_NtCsieiGu2EXtoJ_4core6optionINtB5_6OptionNtCseYC8vFNOjrM_2cc10AsmFileExtENtNtB7_3cmp9PartialEq2eqBM_, symObjAddr: 0x7370, symBinAddr: 0x100088BD0, symSize: 0xA0 }
  - { offset: 0xDFCBC, size: 0x8, addend: 0x0, symName: __RNvXsd_NtCsieiGu2EXtoJ_4core6optionINtB5_6OptionRNtNtNtCsHUR1vrdMJt_3std3ffi6os_str5OsStrENtNtB7_3cmp9PartialEq2eqCseYC8vFNOjrM_2cc, symObjAddr: 0x7410, symBinAddr: 0x100088C70, symSize: 0xB0 }
  - { offset: 0xDFD30, size: 0x8, addend: 0x0, symName: __RNvXsd_NtCsieiGu2EXtoJ_4core6optionINtB5_6OptionReENtNtB7_3cmp9PartialEq2eqCseYC8vFNOjrM_2cc, symObjAddr: 0x74C0, symBinAddr: 0x100088D20, symSize: 0xB0 }
  - { offset: 0xDFDA4, size: 0x8, addend: 0x0, symName: __RNvXsd_NtCsieiGu2EXtoJ_4core6optionINtB5_6OptioncENtNtB7_3cmp9PartialEq2eqCseYC8vFNOjrM_2cc, symObjAddr: 0x7570, symBinAddr: 0x100088DD0, symSize: 0xA0 }
  - { offset: 0xE0088, size: 0x8, addend: 0x0, symName: __RINvMNtCsieiGu2EXtoJ_4core4boolb9then_someNtNtCsHUR1vrdMJt_3std4path7PathBufECseYC8vFNOjrM_2cc, symObjAddr: 0x0, symBinAddr: 0x100081920, symSize: 0x80 }
  - { offset: 0xE00CC, size: 0x8, addend: 0x0, symName: __RINvMNtCsieiGu2EXtoJ_4core4boolb9then_someNtNtCslJiobkLta79_5alloc6string6StringECseYC8vFNOjrM_2cc, symObjAddr: 0x80, symBinAddr: 0x1000819A0, symSize: 0x80 }
  - { offset: 0xE0850, size: 0x8, addend: 0x0, symName: __RNvXs_NvNtNtCsieiGu2EXtoJ_4core3fmt5Write9write_fmtQINtNvNtCsHUR1vrdMJt_3std2io17default_write_fmt7AdapterINtNtNtBT_8buffered9bufwriter9BufWriterNtNtBT_5stdio6StdoutEENtB4_12SpecWriteFmt14spec_write_fmtCseYC8vFNOjrM_2cc, symObjAddr: 0x7090, symBinAddr: 0x1000888F0, symSize: 0x170 }
  - { offset: 0xE0905, size: 0x8, addend: 0x0, symName: __RNvXs_NvNtNtCsieiGu2EXtoJ_4core3fmt5Write9write_fmtQINtNvNtCsHUR1vrdMJt_3std2io17default_write_fmt7AdapterNtNtBV_2fs4FileENtB4_12SpecWriteFmt14spec_write_fmtCseYC8vFNOjrM_2cc, symObjAddr: 0x7200, symBinAddr: 0x100088A60, symSize: 0x170 }
  - { offset: 0xE09BC, size: 0x8, addend: 0x0, symName: __RNvYINtNvNtCsHUR1vrdMJt_3std2io17default_write_fmt7AdapterINtNtNtB7_8buffered9bufwriter9BufWriterNtNtB7_5stdio6StdoutEENtNtCsieiGu2EXtoJ_4core3fmt5Write10write_charCseYC8vFNOjrM_2cc, symObjAddr: 0x7650, symBinAddr: 0x100088EB0, symSize: 0x70 }
  - { offset: 0xE0A24, size: 0x8, addend: 0x0, symName: __RNvYINtNvNtCsHUR1vrdMJt_3std2io17default_write_fmt7AdapterINtNtNtB7_8buffered9bufwriter9BufWriterNtNtB7_5stdio6StdoutEENtNtCsieiGu2EXtoJ_4core3fmt5Write9write_fmtCseYC8vFNOjrM_2cc, symObjAddr: 0x76C0, symBinAddr: 0x100088F20, symSize: 0x20 }
  - { offset: 0xE0A68, size: 0x8, addend: 0x0, symName: __RNvYINtNvNtCsHUR1vrdMJt_3std2io17default_write_fmt7AdapterNtNtB9_2fs4FileENtNtCsieiGu2EXtoJ_4core3fmt5Write10write_charCseYC8vFNOjrM_2cc, symObjAddr: 0x76E0, symBinAddr: 0x100088F40, symSize: 0x70 }
  - { offset: 0xE0AD0, size: 0x8, addend: 0x0, symName: __RNvYINtNvNtCsHUR1vrdMJt_3std2io17default_write_fmt7AdapterNtNtB9_2fs4FileENtNtCsieiGu2EXtoJ_4core3fmt5Write9write_fmtCseYC8vFNOjrM_2cc, symObjAddr: 0x7750, symBinAddr: 0x100088FB0, symSize: 0x20 }
  - { offset: 0xE0B20, size: 0x8, addend: 0x0, symName: __RINvYNtNtNtCsHUR1vrdMJt_3std4hash6random11RandomStateNtNtCsieiGu2EXtoJ_4core4hash11BuildHasher8hash_oneRINtNtCslJiobkLta79_5alloc5boxed3BoxSIB1F_NtNtNtB9_3ffi6os_str5OsStrEEECseYC8vFNOjrM_2cc, symObjAddr: 0x2FA0, symBinAddr: 0x100084800, symSize: 0x80 }
  - { offset: 0xE0B87, size: 0x8, addend: 0x0, symName: __RINvYNtNtNtCsHUR1vrdMJt_3std4hash6random11RandomStateNtNtCsieiGu2EXtoJ_4core4hash11BuildHasher8hash_oneRINtNtCslJiobkLta79_5alloc5boxed3BoxeEECseYC8vFNOjrM_2cc, symObjAddr: 0x3020, symBinAddr: 0x100084880, symSize: 0x80 }
  - { offset: 0xE0BEE, size: 0x8, addend: 0x0, symName: __RINvYNtNtNtCsHUR1vrdMJt_3std4hash6random11RandomStateNtNtCsieiGu2EXtoJ_4core4hash11BuildHasher8hash_oneRNtCseYC8vFNOjrM_2cc12CompilerFlagEB1G_, symObjAddr: 0x30A0, symBinAddr: 0x100084900, symSize: 0x80 }
  - { offset: 0xE0C55, size: 0x8, addend: 0x0, symName: __RINvYNtNtNtCsHUR1vrdMJt_3std4hash6random11RandomStateNtNtCsieiGu2EXtoJ_4core4hash11BuildHasher8hash_oneReECseYC8vFNOjrM_2cc, symObjAddr: 0x3120, symBinAddr: 0x100084980, symSize: 0x80 }
  - { offset: 0xE0E29, size: 0x8, addend: 0x0, symName: __RNvYNtNtNtCsHUR1vrdMJt_3std4hash6random13DefaultHasherNtNtCsieiGu2EXtoJ_4core4hash6Hasher11write_usizeCseYC8vFNOjrM_2cc, symObjAddr: 0x7770, symBinAddr: 0x100088FD0, symSize: 0x30 }
  - { offset: 0xE0E89, size: 0x8, addend: 0x0, symName: __RNvYNtNtNtCsHUR1vrdMJt_3std4hash6random13DefaultHasherNtNtCsieiGu2EXtoJ_4core4hash6Hasher19write_length_prefixCseYC8vFNOjrM_2cc, symObjAddr: 0x77A0, symBinAddr: 0x100089000, symSize: 0x20 }
  - { offset: 0xE1513, size: 0x8, addend: 0x0, symName: __RNvNtNtNtCsieiGu2EXtoJ_4core9core_arch3x864sse212__mm_or_si128CseYC8vFNOjrM_2cc, symObjAddr: 0x60E0, symBinAddr: 0x100087940, symSize: 0x20 }
  - { offset: 0xE1622, size: 0x8, addend: 0x0, symName: __RNvNtNtNtCsieiGu2EXtoJ_4core9core_arch3x864sse213__mm_set1_epi8CseYC8vFNOjrM_2cc, symObjAddr: 0x6100, symBinAddr: 0x100087960, symSize: 0x90 }
  - { offset: 0xE177C, size: 0x8, addend: 0x0, symName: __RNvNtNtNtCsieiGu2EXtoJ_4core9core_arch3x864sse214__mm_cmpeq_epi8CseYC8vFNOjrM_2cc, symObjAddr: 0x6190, symBinAddr: 0x1000879F0, symSize: 0x80 }
  - { offset: 0xE17BC, size: 0x8, addend: 0x0, symName: __RNvNtNtNtCsieiGu2EXtoJ_4core9core_arch3x864sse214__mm_cmpgt_epi8CseYC8vFNOjrM_2cc, symObjAddr: 0x6210, symBinAddr: 0x100087A70, symSize: 0x80 }
  - { offset: 0xE17FC, size: 0x8, addend: 0x0, symName: __RNvNtNtNtCsieiGu2EXtoJ_4core9core_arch3x864sse214__mm_load_si128CseYC8vFNOjrM_2cc, symObjAddr: 0x6290, symBinAddr: 0x100087AF0, symSize: 0x20 }
  - { offset: 0xE183B, size: 0x8, addend: 0x0, symName: __RNvNtNtNtCsieiGu2EXtoJ_4core9core_arch3x864sse215__mm_loadu_si128CseYC8vFNOjrM_2cc, symObjAddr: 0x62B0, symBinAddr: 0x100087B10, symSize: 0x90 }
  - { offset: 0xE18CA, size: 0x8, addend: 0x0, symName: __RNvNtNtNtCsieiGu2EXtoJ_4core9core_arch3x864sse215__mm_store_si128CseYC8vFNOjrM_2cc, symObjAddr: 0x6340, symBinAddr: 0x100087BA0, symSize: 0x20 }
  - { offset: 0xE1903, size: 0x8, addend: 0x0, symName: __RNvNtNtNtCsieiGu2EXtoJ_4core9core_arch3x864sse217__mm_movemask_epi8CseYC8vFNOjrM_2cc, symObjAddr: 0x6360, symBinAddr: 0x100087BC0, symSize: 0x50 }
  - { offset: 0xE196F, size: 0x8, addend: 0x0, symName: __RNvNtNtNtCsieiGu2EXtoJ_4core9core_arch3x864sse217__mm_setzero_si128CseYC8vFNOjrM_2cc, symObjAddr: 0x63B0, symBinAddr: 0x100087C10, symSize: 0x10 }
  - { offset: 0xE1A60, size: 0x8, addend: 0x0, symName: __RNvNvNtNtCsieiGu2EXtoJ_4core4char7convert18from_u32_unchecked18precondition_checkCseYC8vFNOjrM_2cc, symObjAddr: 0x63C0, symBinAddr: 0x100087C20, symSize: 0xF0 }
  - { offset: 0xE1BBA, size: 0x8, addend: 0x0, symName: __RNvYINtNtCsieiGu2EXtoJ_4core6option6OptionReENtNtB7_3cmp9PartialEq2neCseYC8vFNOjrM_2cc, symObjAddr: 0x7610, symBinAddr: 0x100088E70, symSize: 0x20 }
  - { offset: 0xE1C09, size: 0x8, addend: 0x0, symName: __RNvYINtNtCsieiGu2EXtoJ_4core6option6OptioncENtNtB7_3cmp9PartialEq2neCseYC8vFNOjrM_2cc, symObjAddr: 0x7630, symBinAddr: 0x100088E90, symSize: 0x20 }
  - { offset: 0xE1F1B, size: 0x8, addend: 0x0, symName: __RNvXs0_NtNtCslJiobkLta79_5alloc3vec13in_place_dropINtB5_24InPlaceDstDataSrcBufDropNtCseYC8vFNOjrM_2cc6ObjectNtNtCsHUR1vrdMJt_3std4path7PathBufENtNtNtCsieiGu2EXtoJ_4core3ops4drop4Drop4dropB1k_, symObjAddr: 0x6610, symBinAddr: 0x100087E70, symSize: 0xC0 }
  - { offset: 0xE2073, size: 0x8, addend: 0x0, symName: __RNvXs_NtNtCslJiobkLta79_5alloc3vec13in_place_dropINtB4_11InPlaceDropNtNtCsHUR1vrdMJt_3std4path7PathBufENtNtNtCsieiGu2EXtoJ_4core3ops4drop4Drop4dropCseYC8vFNOjrM_2cc, symObjAddr: 0x7030, symBinAddr: 0x100088890, symSize: 0x60 }
  - { offset: 0xE27F9, size: 0x8, addend: 0x0, symName: __RNvXs1_NtCslJiobkLta79_5alloc7raw_vecINtB5_6RawVecINtNtB7_4sync3ArcNtNtCsHUR1vrdMJt_3std4path4PathEENtNtNtCsieiGu2EXtoJ_4core3ops4drop4Drop4dropCseYC8vFNOjrM_2cc, symObjAddr: 0x66D0, symBinAddr: 0x100087F30, symSize: 0x30 }
  - { offset: 0xE2835, size: 0x8, addend: 0x0, symName: __RNvXs1_NtCslJiobkLta79_5alloc7raw_vecINtB5_6RawVecINtNtB7_4sync3ArcNtNtNtCsHUR1vrdMJt_3std3ffi6os_str5OsStrEENtNtNtCsieiGu2EXtoJ_4core3ops4drop4Drop4dropCseYC8vFNOjrM_2cc, symObjAddr: 0x6700, symBinAddr: 0x100087F60, symSize: 0x30 }
  - { offset: 0xE2871, size: 0x8, addend: 0x0, symName: __RNvXs1_NtCslJiobkLta79_5alloc7raw_vecINtB5_6RawVecINtNtB7_5boxed3BoxNtNtNtCsHUR1vrdMJt_3std3ffi6os_str5OsStrEENtNtNtCsieiGu2EXtoJ_4core3ops4drop4Drop4dropCseYC8vFNOjrM_2cc, symObjAddr: 0x6730, symBinAddr: 0x100087F90, symSize: 0x30 }
  - { offset: 0xE28AD, size: 0x8, addend: 0x0, symName: __RNvXs1_NtCslJiobkLta79_5alloc7raw_vecINtB5_6RawVecNtCseYC8vFNOjrM_2cc6ObjectENtNtNtCsieiGu2EXtoJ_4core3ops4drop4Drop4dropBO_, symObjAddr: 0x6760, symBinAddr: 0x100087FC0, symSize: 0x30 }
  - { offset: 0xE28E9, size: 0x8, addend: 0x0, symName: __RNvXs1_NtCslJiobkLta79_5alloc7raw_vecINtB5_6RawVecNtNtNtCsHUR1vrdMJt_3std3ffi6os_str8OsStringENtNtNtCsieiGu2EXtoJ_4core3ops4drop4Drop4dropCseYC8vFNOjrM_2cc, symObjAddr: 0x6790, symBinAddr: 0x100087FF0, symSize: 0x30 }
  - { offset: 0xE2925, size: 0x8, addend: 0x0, symName: __RNvXs1_NtCslJiobkLta79_5alloc7raw_vecINtB5_6RawVecNtNtNtNtCsHUR1vrdMJt_3std4sync4mpmc5waker5EntryENtNtNtCsieiGu2EXtoJ_4core3ops4drop4Drop4dropCseYC8vFNOjrM_2cc, symObjAddr: 0x67C0, symBinAddr: 0x100088020, symSize: 0x30 }
  - { offset: 0xE2961, size: 0x8, addend: 0x0, symName: __RNvXs1_NtCslJiobkLta79_5alloc7raw_vecINtB5_6RawVecRNtNtCsHUR1vrdMJt_3std4path4PathENtNtNtCsieiGu2EXtoJ_4core3ops4drop4Drop4dropCseYC8vFNOjrM_2cc, symObjAddr: 0x67F0, symBinAddr: 0x100088050, symSize: 0x30 }
  - { offset: 0xE299D, size: 0x8, addend: 0x0, symName: __RNvXs1_NtCslJiobkLta79_5alloc7raw_vecINtB5_6RawVecReENtNtNtCsieiGu2EXtoJ_4core3ops4drop4Drop4dropCseYC8vFNOjrM_2cc, symObjAddr: 0x6820, symBinAddr: 0x100088080, symSize: 0x30 }
  - { offset: 0xE29D9, size: 0x8, addend: 0x0, symName: __RNvXs1_NtCslJiobkLta79_5alloc7raw_vecINtB5_6RawVecTINtNtB7_4sync3ArcNtNtNtCsHUR1vrdMJt_3std3ffi6os_str5OsStrEBN_EENtNtNtCsieiGu2EXtoJ_4core3ops4drop4Drop4dropCseYC8vFNOjrM_2cc, symObjAddr: 0x6850, symBinAddr: 0x1000880B0, symSize: 0x30 }
  - { offset: 0xE2A15, size: 0x8, addend: 0x0, symName: __RNvXs1_NtCslJiobkLta79_5alloc7raw_vecINtB5_6RawVecTINtNtB7_4sync3ArceEINtNtCsieiGu2EXtoJ_4core6option6OptionBN_EEENtNtNtB1b_3ops4drop4Drop4dropCseYC8vFNOjrM_2cc, symObjAddr: 0x6880, symBinAddr: 0x1000880E0, symSize: 0x30 }
  - { offset: 0xE2A51, size: 0x8, addend: 0x0, symName: __RNvXs1_NtCslJiobkLta79_5alloc7raw_vecINtB5_6RawVecTNtNtCsHUR1vrdMJt_3std7process7CommandNtNtNtCseYC8vFNOjrM_2cc8parallel14command_runner10KillOnDropNtNtB1s_9job_token8JobTokenEENtNtNtCsieiGu2EXtoJ_4core3ops4drop4Drop4dropB1u_, symObjAddr: 0x68B0, symBinAddr: 0x100088110, symSize: 0x30 }
  - { offset: 0xE48B1, size: 0x8, addend: 0x0, symName: __RINvMNtCsieiGu2EXtoJ_4core6optionINtB3_6OptionINtNtCslJiobkLta79_5alloc4sync3ArcNtNtNtCsHUR1vrdMJt_3std3ffi6os_str5OsStrEE3mapNtNtCsj2uhnLB4L8S_15find_msvc_tools10find_tools3EnvNcNtB20_5Arced0ECseYC8vFNOjrM_2cc, symObjAddr: 0x1C0, symBinAddr: 0x100081A20, symSize: 0x90 }
  - { offset: 0xE4DE2, size: 0x8, addend: 0x0, symName: __RINvMNtCsieiGu2EXtoJ_4core6optionINtB3_6OptionINtNtCslJiobkLta79_5alloc4sync3ArcNtNtNtCsHUR1vrdMJt_3std3ffi6os_str5OsStrEE7or_elseNCNCNvMs4_CseYC8vFNOjrM_2ccNtB2e_5Build23apple_deployment_targets_0s0_0EB2e_, symObjAddr: 0x250, symBinAddr: 0x100081AB0, symSize: 0xE0 }
  - { offset: 0xE4E45, size: 0x8, addend: 0x0, symName: __RINvMNtCsieiGu2EXtoJ_4core6optionINtB3_6OptionINtNtCslJiobkLta79_5alloc4sync3ArcNtNtNtCsHUR1vrdMJt_3std3ffi6os_str5OsStrEE7or_elseNCNvMs4_CseYC8vFNOjrM_2ccNtB2c_5Build6getenvs0_0EB2c_, symObjAddr: 0x330, symBinAddr: 0x100081B90, symSize: 0xD0 }
  - { offset: 0xE4EA8, size: 0x8, addend: 0x0, symName: __RINvMNtCsieiGu2EXtoJ_4core6optionINtB3_6OptionINtNtCslJiobkLta79_5alloc4sync3ArcNtNtNtCsHUR1vrdMJt_3std3ffi6os_str5OsStrEE8and_thenINtNtBN_6borrow3CoweENCNCNvMs4_CseYC8vFNOjrM_2ccNtB2A_5Build17prefix_for_targets_00EB2A_, symObjAddr: 0x400, symBinAddr: 0x100081C60, symSize: 0x70 }
  - { offset: 0xE4F65, size: 0x8, addend: 0x0, symName: __RINvMNtCsieiGu2EXtoJ_4core6optionINtB3_6OptionINtNtCslJiobkLta79_5alloc4sync3ArceEE14unwrap_or_elseNCNvMs4_CseYC8vFNOjrM_2ccNtB1H_5Build23apple_deployment_targets1_0EB1H_, symObjAddr: 0x470, symBinAddr: 0x100081CD0, symSize: 0x80 }
  - { offset: 0xE4FC7, size: 0x8, addend: 0x0, symName: __RINvMNtCsieiGu2EXtoJ_4core6optionINtB3_6OptionINtNtCslJiobkLta79_5alloc4sync3ArceEE14unwrap_or_elseNCNvMs4_CseYC8vFNOjrM_2ccNtB1H_5Build23apple_deployment_targets2_0EB1H_, symObjAddr: 0x4F0, symBinAddr: 0x100081D50, symSize: 0x60 }
  - { offset: 0xE5029, size: 0x8, addend: 0x0, symName: __RINvMNtCsieiGu2EXtoJ_4core6optionINtB3_6OptionINtNtCslJiobkLta79_5alloc4sync3ArceEE14unwrap_or_elseNCNvMs4_CseYC8vFNOjrM_2ccNtB1H_5Build23apple_deployment_targets3_0EB1H_, symObjAddr: 0x550, symBinAddr: 0x100081DB0, symSize: 0x60 }
  - { offset: 0xE508B, size: 0x8, addend: 0x0, symName: __RINvMNtCsieiGu2EXtoJ_4core6optionINtB3_6OptionINtNtCslJiobkLta79_5alloc4sync3ArceEE14unwrap_or_elseNCNvMs4_CseYC8vFNOjrM_2ccNtB1H_5Build23apple_deployment_targets4_0EB1H_, symObjAddr: 0x5B0, symBinAddr: 0x100081E10, symSize: 0x60 }
  - { offset: 0xE50ED, size: 0x8, addend: 0x0, symName: __RINvMNtCsieiGu2EXtoJ_4core6optionINtB3_6OptionINtNtCslJiobkLta79_5alloc4sync3ArceEE14unwrap_or_elseNCNvMs4_CseYC8vFNOjrM_2ccNtB1H_5Build23apple_deployment_targets5_0EB1H_, symObjAddr: 0x610, symBinAddr: 0x100081E70, symSize: 0x60 }
  - { offset: 0xE514F, size: 0x8, addend: 0x0, symName: __RINvMNtCsieiGu2EXtoJ_4core6optionINtB3_6OptionINtNtCslJiobkLta79_5alloc4sync3ArceEE7or_elseNCNvMs4_CseYC8vFNOjrM_2ccNtB1z_5Build23apple_deployment_target0EB1z_, symObjAddr: 0x670, symBinAddr: 0x100081ED0, symSize: 0xE0 }
  - { offset: 0xE51B2, size: 0x8, addend: 0x0, symName: __RINvMNtCsieiGu2EXtoJ_4core6optionINtB3_6OptionINtNtCslJiobkLta79_5alloc4sync3ArceEE8and_thenBI_NCNvMs4_CseYC8vFNOjrM_2ccNtB1D_5Build23apple_deployment_targets0_0EB1D_, symObjAddr: 0x750, symBinAddr: 0x100081FB0, symSize: 0x80 }
  - { offset: 0xE523B, size: 0x8, addend: 0x0, symName: __RINvMNtCsieiGu2EXtoJ_4core6optionINtB3_6OptionINtNtCslJiobkLta79_5alloc6borrow3CowNtNtCsHUR1vrdMJt_3std4path4PathEE10ok_or_elseNtCseYC8vFNOjrM_2cc5ErrorNCNvMs4_B23_NtB23_5Build11get_out_dir0EB23_, symObjAddr: 0x7D0, symBinAddr: 0x100082030, symSize: 0xB0 }
  - { offset: 0xE52A7, size: 0x8, addend: 0x0, symName: __RINvMNtCsieiGu2EXtoJ_4core6optionINtB3_6OptionINtNtCslJiobkLta79_5alloc6borrow3CowNtNtCsHUR1vrdMJt_3std4path4PathEE14unwrap_or_elseNCNvNvMNtCseYC8vFNOjrM_2cc4toolNtB2c_4Tool13with_features19detect_family_inner0EB2e_, symObjAddr: 0x880, symBinAddr: 0x1000820E0, symSize: 0x80 }
  - { offset: 0xE530A, size: 0x8, addend: 0x0, symName: __RINvMNtCsieiGu2EXtoJ_4core6optionINtB3_6OptionINtNtCslJiobkLta79_5alloc6borrow3CoweEE7or_elseNCNvMs4_CseYC8vFNOjrM_2ccNtB1B_5Build17prefix_for_targets0_0EB1B_, symObjAddr: 0x900, symBinAddr: 0x100082160, symSize: 0xF0 }
  - { offset: 0xE536D, size: 0x8, addend: 0x0, symName: __RINvMNtCsieiGu2EXtoJ_4core6optionINtB3_6OptionINtNtCslJiobkLta79_5alloc6borrow3CoweEE7or_elseNCNvMs4_CseYC8vFNOjrM_2ccNtB1B_5Build17prefix_for_targets_0EB1B_, symObjAddr: 0x9F0, symBinAddr: 0x100082250, symSize: 0xE0 }
  - { offset: 0xE53E8, size: 0x8, addend: 0x0, symName: __RINvMNtCsieiGu2EXtoJ_4core6optionINtB3_6OptionINtNtNtB5_3num7nonzero7NonZerojEE6map_orINtNtB5_6result6ResultuBI_ENcNtB1m_3Err0ECseYC8vFNOjrM_2cc, symObjAddr: 0xAD0, symBinAddr: 0x100082330, symSize: 0x90 }
  - { offset: 0xE55FA, size: 0x8, addend: 0x0, symName: __RINvMNtCsieiGu2EXtoJ_4core6optionINtB3_6OptionNtCslzRnRZxZnvp_9jobserver6ClientE3mapNtNtNtNtCseYC8vFNOjrM_2cc8parallel9job_token19inherited_jobserver9JobServerNCNvMB1m_B1k_8from_env0EB1s_, symObjAddr: 0xB60, symBinAddr: 0x1000823C0, symSize: 0x80 }
  - { offset: 0xE567D, size: 0x8, addend: 0x0, symName: __RINvMNtCsieiGu2EXtoJ_4core6optionINtB3_6OptionNtNtCsHUR1vrdMJt_3std4path7PathBufE3mapINtNtCslJiobkLta79_5alloc6borrow3CowNtBK_4PathENcNtB1l_5Owned0ECseYC8vFNOjrM_2cc, symObjAddr: 0xBE0, symBinAddr: 0x100082440, symSize: 0xB0 }
  - { offset: 0xE5804, size: 0x8, addend: 0x0, symName: __RINvMNtCsieiGu2EXtoJ_4core6optionINtB3_6OptionNtNtCsHUR1vrdMJt_3std4path7PathBufE3mapNtNtBM_7process7CommandNCNCNvMs4_CseYC8vFNOjrM_2ccNtB1S_5Build25get_base_archiver_variants_00EB1S_, symObjAddr: 0xC90, symBinAddr: 0x1000824F0, symSize: 0xF0 }
  - { offset: 0xE589C, size: 0x8, addend: 0x0, symName: __RINvMNtCsieiGu2EXtoJ_4core6optionINtB3_6OptionNtNtCsHUR1vrdMJt_3std4path7PathBufE7or_elseNCNvMs4_CseYC8vFNOjrM_2ccNtB1x_5Build25get_base_archiver_variants0_0EB1x_, symObjAddr: 0xD80, symBinAddr: 0x1000825E0, symSize: 0xF0 }
  - { offset: 0xE5919, size: 0x8, addend: 0x0, symName: __RINvMNtCsieiGu2EXtoJ_4core6optionINtB3_6OptionNtNtCsHUR1vrdMJt_3std4path7PathBufE7or_elseNCNvMs4_CseYC8vFNOjrM_2ccNtB1x_5Build5whichs_0EB1x_, symObjAddr: 0xE70, symBinAddr: 0x1000826D0, symSize: 0xF0 }
  - { offset: 0xE597C, size: 0x8, addend: 0x0, symName: __RINvMNtCsieiGu2EXtoJ_4core6optionINtB3_6OptionNtNtCsHUR1vrdMJt_3std6thread8ThreadIdE6map_oryNCNvMsd_NtNtBM_4sync14reentrant_lockNtB1A_3Tid3set0ECseYC8vFNOjrM_2cc, symObjAddr: 0xF60, symBinAddr: 0x1000827C0, symSize: 0x90 }
  - { offset: 0xE5A0C, size: 0x8, addend: 0x0, symName: __RINvMNtCsieiGu2EXtoJ_4core6optionINtB3_6OptionNtNtCsHUR1vrdMJt_3std7process11ChildStderrE3mapTBI_INtNtCslJiobkLta79_5alloc3vec3VechEENCNvMs_NtCseYC8vFNOjrM_2cc15command_helpersNtB2e_15StderrForwarder3new0EB2g_, symObjAddr: 0xFF0, symBinAddr: 0x100082850, symSize: 0x80 }
  - { offset: 0xE5A77, size: 0x8, addend: 0x0, symName: __RINvMNtCsieiGu2EXtoJ_4core6optionINtB3_6OptionNtNtCsHUR1vrdMJt_3std7process7CommandE14unwrap_or_elseNCNvMs4_CseYC8vFNOjrM_2ccNtB1I_5Build20msvc_macro_assembler0EB1I_, symObjAddr: 0x1070, symBinAddr: 0x1000828D0, symSize: 0xC0 }
  - { offset: 0xE5AE8, size: 0x8, addend: 0x0, symName: __RINvMNtCsieiGu2EXtoJ_4core6optionINtB3_6OptionNtNtCsHUR1vrdMJt_3std7process7CommandE7or_elseNCNvMs4_CseYC8vFNOjrM_2ccNtB1A_5Build25get_base_archiver_variants_0EB1A_, symObjAddr: 0x1130, symBinAddr: 0x100082990, symSize: 0x110 }
  - { offset: 0xE5B4D, size: 0x8, addend: 0x0, symName: __RINvMNtCsieiGu2EXtoJ_4core6optionINtB3_6OptionNtNtCseYC8vFNOjrM_2cc4tool4ToolE3mapNtNtCsHUR1vrdMJt_3std7process7CommandNCNvMs4_BM_NtBM_5Build20find_msvc_tools_find0EBM_, symObjAddr: 0x1240, symBinAddr: 0x100082AA0, symSize: 0xD0 }
  - { offset: 0xE5BC7, size: 0x8, addend: 0x0, symName: __RINvMNtCsieiGu2EXtoJ_4core6optionINtB3_6OptionNtNtCseYC8vFNOjrM_2cc4tool4ToolE7or_elseNCNvMs4_BM_NtBM_5Build17get_base_compilers0_0EBM_, symObjAddr: 0x1310, symBinAddr: 0x100082B70, symSize: 0xF0 }
  - { offset: 0xE5C38, size: 0x8, addend: 0x0, symName: __RINvMNtCsieiGu2EXtoJ_4core6optionINtB3_6OptionNtNtCseYC8vFNOjrM_2cc4tool4ToolE7or_elseNCNvMs4_BM_NtBM_5Build17get_base_compilers_0EBM_, symObjAddr: 0x1400, symBinAddr: 0x100082C60, symSize: 0x110 }
  - { offset: 0xE5CB5, size: 0x8, addend: 0x0, symName: __RINvMNtCsieiGu2EXtoJ_4core6optionINtB3_6OptionNtNtCsj2uhnLB4L8S_15find_msvc_tools4tool4ToolE3mapNtNtCseYC8vFNOjrM_2cc4tool4ToolNvMB1y_B1w_20from_find_msvc_toolsEB1A_, symObjAddr: 0x1510, symBinAddr: 0x100082D70, symSize: 0xC0 }
  - { offset: 0xE5D22, size: 0x8, addend: 0x0, symName: __RINvMNtCsieiGu2EXtoJ_4core6optionINtB3_6OptionNtNtCslJiobkLta79_5alloc6string6StringE10ok_or_elseNtCseYC8vFNOjrM_2cc5ErrorNCNvMs4_B1z_NtB1z_5Build17getenv_unwrap_str0EB1z_, symObjAddr: 0x15D0, symBinAddr: 0x100082E30, symSize: 0xC0 }
  - { offset: 0xE5D8E, size: 0x8, addend: 0x0, symName: __RINvMNtCsieiGu2EXtoJ_4core6optionINtB3_6OptionNtNtCslJiobkLta79_5alloc6string6StringE14unwrap_or_elseNCNvMs4_CseYC8vFNOjrM_2ccNtB1J_5Build25get_base_archiver_variants2_0EB1J_, symObjAddr: 0x1690, symBinAddr: 0x100082EF0, symSize: 0x90 }
  - { offset: 0xE5E09, size: 0x8, addend: 0x0, symName: __RINvMNtCsieiGu2EXtoJ_4core6optionINtB3_6OptionNtNtCslJiobkLta79_5alloc6string6StringE3mapINtNtBM_6borrow3CoweENcNtB1p_5Owned0ECseYC8vFNOjrM_2cc, symObjAddr: 0x1720, symBinAddr: 0x100082F80, symSize: 0xB0 }
  - { offset: 0xE5E76, size: 0x8, addend: 0x0, symName: __RINvMNtCsieiGu2EXtoJ_4core6optionINtB3_6OptionNtNtCslJiobkLta79_5alloc6string6StringE8and_thenmNCNvMNtNtNtCseYC8vFNOjrM_2cc8parallel9job_token19inprocess_jobserverNtB1A_9JobServer3new0EB1G_, symObjAddr: 0x17D0, symBinAddr: 0x100083030, symSize: 0x90 }
  - { offset: 0xE5EFA, size: 0x8, addend: 0x0, symName: __RINvMNtCsieiGu2EXtoJ_4core6optionINtB3_6OptionNtNtNtCsHUR1vrdMJt_3std3ffi6os_str8OsStringE3mapINtNtCslJiobkLta79_5alloc4sync3ArcNtBK_5OsStrENvYB1u_INtNtB5_7convert4FromBI_E4fromECseYC8vFNOjrM_2cc, symObjAddr: 0x1860, symBinAddr: 0x1000830C0, symSize: 0x90 }
  - { offset: 0xE5F66, size: 0x8, addend: 0x0, symName: __RINvMNtCsieiGu2EXtoJ_4core6optionINtB3_6OptionNtNtNtCseYC8vFNOjrM_2cc8parallel9job_token14JobTokenServerE14unwrap_or_elseNCNCNvMs0_BK_BI_3new00EBO_, symObjAddr: 0x18F0, symBinAddr: 0x100083150, symSize: 0x70 }
  - { offset: 0xE5FE1, size: 0x8, addend: 0x0, symName: __RINvMNtCsieiGu2EXtoJ_4core6optionINtB3_6OptionNtNtNtNtCseYC8vFNOjrM_2cc8parallel9job_token19inherited_jobserver9JobServerE3mapNtBM_14JobTokenServerNcNtB20_9Inherited0EBQ_, symObjAddr: 0x1960, symBinAddr: 0x1000831C0, symSize: 0xB0 }
  - { offset: 0xE608F, size: 0x8, addend: 0x0, symName: __RINvMNtCsieiGu2EXtoJ_4core6optionINtB3_6OptionRINtNtCslJiobkLta79_5alloc4sync3ArcNtNtNtCsHUR1vrdMJt_3std3ffi6os_str5OsStrEE8and_thenRReNCNvMs4_CseYC8vFNOjrM_2ccNtB2h_5Build23find_working_gnu_prefix0EB2h_, symObjAddr: 0x1A10, symBinAddr: 0x100083270, symSize: 0x70 }
  - { offset: 0xE60FB, size: 0x8, addend: 0x0, symName: __RINvMNtCsieiGu2EXtoJ_4core6optionINtB3_6OptionRNtNtCsHUR1vrdMJt_3std4path4PathE10ok_or_elseNtCseYC8vFNOjrM_2cc5ErrorNCNvNtB1t_15command_helpers18objects_from_filess_0EB1t_, symObjAddr: 0x1A80, symBinAddr: 0x1000832E0, symSize: 0xA0 }
  - { offset: 0xE617F, size: 0x8, addend: 0x0, symName: __RINvMNtCsieiGu2EXtoJ_4core6optionINtB3_6OptionRNtNtCsHUR1vrdMJt_3std4path4PathE3mapINtNtCslJiobkLta79_5alloc6borrow3CowBJ_ENcNtB1j_8Borrowed0ECseYC8vFNOjrM_2cc, symObjAddr: 0x1B20, symBinAddr: 0x100083380, symSize: 0x90 }
  - { offset: 0xE61EA, size: 0x8, addend: 0x0, symName: __RINvMNtCsieiGu2EXtoJ_4core6optionINtB3_6OptionRNtNtCsHUR1vrdMJt_3std4path4PathE6map_orbNCNCNCNvMs4_CseYC8vFNOjrM_2ccNtB1z_5Build11try_compiles_000EB1z_, symObjAddr: 0x1BB0, symBinAddr: 0x100083410, symSize: 0xB0 }
  - { offset: 0xE625C, size: 0x8, addend: 0x0, symName: __RINvMNtCsieiGu2EXtoJ_4core6optionINtB3_6OptionRNtNtCseYC8vFNOjrM_2cc6target10TargetInfoE3mapReNCNvMNtBL_6parserNtB1z_21TargetInfoParserInner32from_cargo_environment_variabless0_0EBN_, symObjAddr: 0x1C60, symBinAddr: 0x1000834C0, symSize: 0x60 }
  - { offset: 0xE62C7, size: 0x8, addend: 0x0, symName: __RINvMNtCsieiGu2EXtoJ_4core6optionINtB3_6OptionRNtNtCseYC8vFNOjrM_2cc6target10TargetInfoE3mapReNCNvMNtBL_6parserNtB1z_21TargetInfoParserInner32from_cargo_environment_variabless1_0EBN_, symObjAddr: 0x1CC0, symBinAddr: 0x100083520, symSize: 0x60 }
  - { offset: 0xE6332, size: 0x8, addend: 0x0, symName: __RINvMNtCsieiGu2EXtoJ_4core6optionINtB3_6OptionRNtNtCseYC8vFNOjrM_2cc6target10TargetInfoE3mapReNCNvMNtBL_6parserNtB1z_21TargetInfoParserInner32from_cargo_environment_variabless2_0EBN_, symObjAddr: 0x1D20, symBinAddr: 0x100083580, symSize: 0x60 }
  - { offset: 0xE639D, size: 0x8, addend: 0x0, symName: __RINvMNtCsieiGu2EXtoJ_4core6optionINtB3_6OptionRNtNtCseYC8vFNOjrM_2cc6target10TargetInfoE3mapReNCNvMNtBL_6parserNtB1z_21TargetInfoParserInner32from_cargo_environment_variabless3_0EBN_, symObjAddr: 0x1D80, symBinAddr: 0x1000835E0, symSize: 0x60 }
  - { offset: 0xE6408, size: 0x8, addend: 0x0, symName: __RINvMNtCsieiGu2EXtoJ_4core6optionINtB3_6OptionRNtNtCseYC8vFNOjrM_2cc6target10TargetInfoE3mapReNCNvMNtBL_6parserNtB1z_21TargetInfoParserInner32from_cargo_environment_variabless4_0EBN_, symObjAddr: 0x1DE0, symBinAddr: 0x100083640, symSize: 0x60 }
  - { offset: 0xE6491, size: 0x8, addend: 0x0, symName: __RINvMNtCsieiGu2EXtoJ_4core6optionINtB3_6OptionRNtNtNtCsHUR1vrdMJt_3std3ffi6os_str5OsStrE10ok_or_elseNtCseYC8vFNOjrM_2cc5ErrorNCNvNtB1C_15command_helpers18objects_from_files0EB1C_, symObjAddr: 0x1E40, symBinAddr: 0x1000836A0, symSize: 0xA0 }
  - { offset: 0xE6515, size: 0x8, addend: 0x0, symName: __RINvMNtCsieiGu2EXtoJ_4core6optionINtB3_6OptionRNtNtNtCsHUR1vrdMJt_3std3ffi6os_str5OsStrE3mapINtNtCslJiobkLta79_5alloc6borrow3CoweENvMsl_BL_BJ_15to_string_lossyECseYC8vFNOjrM_2cc, symObjAddr: 0x1EE0, symBinAddr: 0x100083740, symSize: 0x90 }
  - { offset: 0xE6598, size: 0x8, addend: 0x0, symName: __RINvMNtCsieiGu2EXtoJ_4core6optionINtB3_6OptionRNtNtNtCsHUR1vrdMJt_3std3ffi6os_str5OsStrE3mapNtNtBP_4path7PathBufNvYB1s_INtNtB5_7convert4FromBI_E4fromECseYC8vFNOjrM_2cc, symObjAddr: 0x1F70, symBinAddr: 0x1000837D0, symSize: 0x90 }
  - { offset: 0xE6603, size: 0x8, addend: 0x0, symName: __RINvMNtCsieiGu2EXtoJ_4core6optionINtB3_6OptionRNtNtNtCsHUR1vrdMJt_3std3ffi6os_str5OsStrE3mapNtNtCslJiobkLta79_5alloc6string6StringNCNvMs4_CseYC8vFNOjrM_2ccNtB2c_5Build17prefix_for_target0EB2c_, symObjAddr: 0x2000, symBinAddr: 0x100083860, symSize: 0x90 }
  - { offset: 0xE666E, size: 0x8, addend: 0x0, symName: __RINvMNtCsieiGu2EXtoJ_4core6optionINtB3_6OptionRNtNtNtCsHUR1vrdMJt_3std3ffi6os_str5OsStrE8and_thenNtNtBP_4path7PathBufNCNvMs4_CseYC8vFNOjrM_2ccNtB1Z_5Build5which0EB1Z_, symObjAddr: 0x2090, symBinAddr: 0x1000838F0, symSize: 0x80 }
  - { offset: 0xE66D9, size: 0x8, addend: 0x0, symName: __RINvMNtCsieiGu2EXtoJ_4core6optionINtB3_6OptionRNtNtNtCsHUR1vrdMJt_3std3ffi6os_str5OsStrE8and_thenReNCNvCseYC8vFNOjrM_2cc21is_llvm_mingw_wrapper0EB1D_, symObjAddr: 0x2110, symBinAddr: 0x100083970, symSize: 0x60 }
  - { offset: 0xE6751, size: 0x8, addend: 0x0, symName: __RINvMNtCsieiGu2EXtoJ_4core6optionINtB3_6OptionRTINtNtCslJiobkLta79_5alloc4sync3ArcNtNtNtCsHUR1vrdMJt_3std3ffi6os_str5OsStrEBK_EE3mapBK_NCNvMs4_CseYC8vFNOjrM_2ccNtB2h_5Build6getenvs_0EB2h_, symObjAddr: 0x2170, symBinAddr: 0x1000839D0, symSize: 0x60 }
  - { offset: 0xE67BC, size: 0x8, addend: 0x0, symName: __RINvMNtCsieiGu2EXtoJ_4core6optionINtB3_6OptionRTINtNtCslJiobkLta79_5alloc4sync3ArcNtNtNtCsHUR1vrdMJt_3std3ffi6os_str5OsStrEBK_EE3mapRBK_NCNCNvMs4_CseYC8vFNOjrM_2ccNtB2k_5Build23apple_deployment_targets_0s_0EB2k_, symObjAddr: 0x21D0, symBinAddr: 0x100083A30, symSize: 0x50 }
  - { offset: 0xE6834, size: 0x8, addend: 0x0, symName: __RINvMNtCsieiGu2EXtoJ_4core6optionINtB3_6OptionRTNtNtNtCsHUR1vrdMJt_3std3ffi6os_str8OsStringBK_EE8and_thenNtNtBQ_4path7PathBufNCNvMs4_CseYC8vFNOjrM_2ccNtB27_5Build11try_compiles_0EB27_, symObjAddr: 0x2220, symBinAddr: 0x100083A80, symSize: 0x60 }
  - { offset: 0xE689F, size: 0x8, addend: 0x0, symName: __RINvMNtCsieiGu2EXtoJ_4core6optionINtB3_6OptionReE10ok_or_elseNtCseYC8vFNOjrM_2cc5ErrorNCNvMs0_NtNtBZ_6target6parserNtB1w_10TargetInfo17from_rustc_target0EBZ_, symObjAddr: 0x2280, symBinAddr: 0x100083AE0, symSize: 0xA0 }
  - { offset: 0xE690B, size: 0x8, addend: 0x0, symName: __RINvMNtCsieiGu2EXtoJ_4core6optionINtB3_6OptionReE3mapIBw_RBI_ENCNvCseYC8vFNOjrM_2cc27autodetect_android_compiler0EB12_, symObjAddr: 0x2320, symBinAddr: 0x100083B80, symSize: 0x70 }
  - { offset: 0xE698E, size: 0x8, addend: 0x0, symName: __RINvMNtCsieiGu2EXtoJ_4core6optionINtB3_6OptionReE3mapINtNtCslJiobkLta79_5alloc4sync3ArceENvYBP_INtNtB5_7convert4FromBI_E4fromECseYC8vFNOjrM_2cc, symObjAddr: 0x2390, symBinAddr: 0x100083BF0, symSize: 0x60 }
  - { offset: 0xE6A11, size: 0x8, addend: 0x0, symName: __RINvMNtCsieiGu2EXtoJ_4core6optionINtB3_6OptionReE3mapINtNtCslJiobkLta79_5alloc6borrow3CoweENcNtBP_8Borrowed0ECseYC8vFNOjrM_2cc, symObjAddr: 0x23F0, symBinAddr: 0x100083C50, symSize: 0x90 }
  - { offset: 0xE6A94, size: 0x8, addend: 0x0, symName: __RINvMNtCsieiGu2EXtoJ_4core6optionINtB3_6OptionReE3mapNtNtCslJiobkLta79_5alloc6string6StringNvYBP_INtNtB5_7convert4FromBI_E4fromECseYC8vFNOjrM_2cc, symObjAddr: 0x2480, symBinAddr: 0x100083CE0, symSize: 0x90 }
  - { offset: 0xE6AFF, size: 0x8, addend: 0x0, symName: __RINvMNtCsieiGu2EXtoJ_4core6optionINtB3_6OptionReE3mapNtNtCslJiobkLta79_5alloc6string6StringNvYeNtBR_8ToString9to_stringECseYC8vFNOjrM_2cc, symObjAddr: 0x2510, symBinAddr: 0x100083D70, symSize: 0x90 }
  - { offset: 0xE6B82, size: 0x8, addend: 0x0, symName: __RINvMNtCsieiGu2EXtoJ_4core6optionINtB3_6OptionReE3mapRNtNtCsHUR1vrdMJt_3std4path4PathINvMs16_BS_BQ_3neweEECseYC8vFNOjrM_2cc, symObjAddr: 0x25A0, symBinAddr: 0x100083E00, symSize: 0x60 }
  - { offset: 0xE6BED, size: 0x8, addend: 0x0, symName: __RINvMNtCsieiGu2EXtoJ_4core6optionINtB3_6OptionReE5ok_orNtCseYC8vFNOjrM_2cc5ErrorEBT_, symObjAddr: 0x2600, symBinAddr: 0x100083E60, symSize: 0xC0 }
  - { offset: 0xE6C68, size: 0x8, addend: 0x0, symName: __RINvMNtCsieiGu2EXtoJ_4core6optionINtB3_6OptionReE6map_orIBw_bEINvNvMNtCseYC8vFNOjrM_2cc5flagsNtB14_17RustcCodegenFlags14set_rustc_flag11arg_to_boolBI_EEB16_, symObjAddr: 0x26C0, symBinAddr: 0x100083F20, symSize: 0xA0 }
  - { offset: 0xE6CDA, size: 0x8, addend: 0x0, symName: __RINvMNtCsieiGu2EXtoJ_4core6optionINtB3_6OptionReE7or_elseNCNvMs4_CseYC8vFNOjrM_2ccNtB11_5Build23find_working_gnu_prefixs_0EB11_, symObjAddr: 0x2760, symBinAddr: 0x100083FC0, symSize: 0xC0 }
  - { offset: 0xE6D54, size: 0x8, addend: 0x0, symName: __RINvMNtCsieiGu2EXtoJ_4core6optionINtB3_6OptionReE8and_thenmINvNvMNtCseYC8vFNOjrM_2cc5flagsNtB11_17RustcCodegenFlags14set_rustc_flag10arg_to_u32BI_EEB13_, symObjAddr: 0x2820, symBinAddr: 0x100084080, symSize: 0x60 }
  - { offset: 0xE6DE8, size: 0x8, addend: 0x0, symName: __RINvMNtCsieiGu2EXtoJ_4core6optionINtB3_6OptionTNtNtCsHUR1vrdMJt_3std4path7PathBufIBw_INtNtCslJiobkLta79_5alloc4sync3ArcNtNtNtBN_3ffi6os_str5OsStrEEINtNtB1q_3vec3VecNtNtB1q_6string6StringEEE3mapNtNtBN_7process7CommandNCNvMs4_CseYC8vFNOjrM_2ccNtB3A_5Build25get_base_archiver_variant0EB3A_, symObjAddr: 0x2880, symBinAddr: 0x1000840E0, symSize: 0xE0 }
  - { offset: 0xE6E55, size: 0x8, addend: 0x0, symName: __RINvMNtCsieiGu2EXtoJ_4core6optionINtB3_6OptionTNtNtCsHUR1vrdMJt_3std4path7PathBufIBw_INtNtCslJiobkLta79_5alloc4sync3ArcNtNtNtBN_3ffi6os_str5OsStrEEINtNtB1q_3vec3VecNtNtB1q_6string6StringEEE3mapNtNtCseYC8vFNOjrM_2cc4tool4ToolNCNvMs4_B39_NtB39_5Build17get_base_compiler0EB39_, symObjAddr: 0x2960, symBinAddr: 0x1000841C0, symSize: 0xE0 }
  - { offset: 0xE6EED, size: 0x8, addend: 0x0, symName: __RINvMNtCsieiGu2EXtoJ_4core6optionINtB3_6OptionTReBJ_EE10ok_or_elseNtCseYC8vFNOjrM_2cc5ErrorNCNvMs0_NtNtB14_6target6parserNtB1B_10TargetInfo17from_rustc_targets_0EB14_, symObjAddr: 0x2A40, symBinAddr: 0x1000842A0, symSize: 0xE0 }
  - { offset: 0xE6F5A, size: 0x8, addend: 0x0, symName: __RINvMNtCsieiGu2EXtoJ_4core6optionINtB3_6OptionTReBJ_EE5ok_orNtCseYC8vFNOjrM_2cc5ErrorEBY_, symObjAddr: 0x2B20, symBinAddr: 0x100084380, symSize: 0xF0 }
  - { offset: 0xE6FBE, size: 0x8, addend: 0x0, symName: __RINvMNtCsieiGu2EXtoJ_4core6optionINtB3_6OptionbE14unwrap_or_elseNCNvMs4_CseYC8vFNOjrM_2ccNtB18_5Build23get_force_frame_pointer0EB18_, symObjAddr: 0x2C10, symBinAddr: 0x100084470, symSize: 0x60 }
  - { offset: 0xE7020, size: 0x8, addend: 0x0, symName: __RINvMNtCsieiGu2EXtoJ_4core6optionINtB3_6OptionbE14unwrap_or_elseNCNvMs4_CseYC8vFNOjrM_2ccNtB18_5Build23get_shell_escaped_flags0EB18_, symObjAddr: 0x2C70, symBinAddr: 0x1000844D0, symSize: 0x60 }
  - { offset: 0xE7082, size: 0x8, addend: 0x0, symName: __RINvMNtCsieiGu2EXtoJ_4core6optionINtB3_6OptionmE7or_elseNCNvMNtNtNtCseYC8vFNOjrM_2cc8parallel9job_token19inprocess_jobserverNtBX_9JobServer3news_0EB13_, symObjAddr: 0x2CD0, symBinAddr: 0x100084530, symSize: 0x90 }
  - { offset: 0xE74A9, size: 0x8, addend: 0x0, symName: __RNvMNtCsieiGu2EXtoJ_4core4timeNtB2_8Duration11from_millisCseYC8vFNOjrM_2cc, symObjAddr: 0x3A70, symBinAddr: 0x1000852D0, symSize: 0x40 }
  - { offset: 0xE74CB, size: 0x8, addend: 0x0, symName: __RNvMNtCsieiGu2EXtoJ_4core6optionINtB2_6OptionIBv_RReEE9unwrap_orCseYC8vFNOjrM_2cc, symObjAddr: 0x3AB0, symBinAddr: 0x100085310, symSize: 0x40 }
  - { offset: 0xE75AA, size: 0x8, addend: 0x0, symName: __RNvMNtCsieiGu2EXtoJ_4core6optionINtB2_6OptionINtNtB4_3pin3PinQNCNvNtNtCseYC8vFNOjrM_2cc8parallel14command_runner24run_commands_in_parallel0EE6as_mutB16_, symObjAddr: 0x3AF0, symBinAddr: 0x100085350, symSize: 0x50 }
  - { offset: 0xE761D, size: 0x8, addend: 0x0, symName: __RNvMNtCsieiGu2EXtoJ_4core6optionINtB2_6OptionINtNtB4_3pin3PinQNCNvNtNtCseYC8vFNOjrM_2cc8parallel14command_runner24run_commands_in_parallel0EE7is_noneB16_, symObjAddr: 0x3B40, symBinAddr: 0x1000853A0, symSize: 0x30 }
  - { offset: 0xE7808, size: 0x8, addend: 0x0, symName: __RNvMNtCsieiGu2EXtoJ_4core6optionINtB2_6OptionINtNtB4_3pin3PinQNCNvNtNtCseYC8vFNOjrM_2cc8parallel14command_runner24run_commands_in_parallels_0EE6as_mutB16_, symObjAddr: 0x3B70, symBinAddr: 0x1000853D0, symSize: 0x50 }
  - { offset: 0xE787B, size: 0x8, addend: 0x0, symName: __RNvMNtCsieiGu2EXtoJ_4core6optionINtB2_6OptionINtNtB4_3pin3PinQNCNvNtNtCseYC8vFNOjrM_2cc8parallel14command_runner24run_commands_in_parallels_0EE7is_noneB16_, symObjAddr: 0x3BC0, symBinAddr: 0x100085420, symSize: 0x30 }
  - { offset: 0xE78EE, size: 0x8, addend: 0x0, symName: __RNvMNtCsieiGu2EXtoJ_4core6optionINtB2_6OptionINtNtCslJiobkLta79_5alloc3vec3VecNtNtBM_6string6StringEE7is_noneCseYC8vFNOjrM_2cc, symObjAddr: 0x3BF0, symBinAddr: 0x100085450, symSize: 0x30 }
  - { offset: 0xE7945, size: 0x8, addend: 0x0, symName: __RNvMNtCsieiGu2EXtoJ_4core6optionINtB2_6OptionINtNtCslJiobkLta79_5alloc4sync3ArcNtNtNtCsHUR1vrdMJt_3std3ffi6os_str5OsStrEE6as_refCseYC8vFNOjrM_2cc, symObjAddr: 0x3C20, symBinAddr: 0x100085480, symSize: 0x50 }
  - { offset: 0xE798F, size: 0x8, addend: 0x0, symName: __RNvMNtCsieiGu2EXtoJ_4core6optionINtB2_6OptionINtNtCslJiobkLta79_5alloc4sync3ArcNtNtNtCsHUR1vrdMJt_3std3ffi6os_str5OsStrEE7is_someCseYC8vFNOjrM_2cc, symObjAddr: 0x3C70, symBinAddr: 0x1000854D0, symSize: 0x30 }
  - { offset: 0xE7A5B, size: 0x8, addend: 0x0, symName: __RNvMNtCsieiGu2EXtoJ_4core6optionINtB2_6OptionINtNtCslJiobkLta79_5alloc4sync3ArcNtNtNtCsHUR1vrdMJt_3std3ffi6os_str5OsStrEE8as_derefCseYC8vFNOjrM_2cc, symObjAddr: 0x3CA0, symBinAddr: 0x100085500, symSize: 0x70 }
  - { offset: 0xE7B1E, size: 0x8, addend: 0x0, symName: __RNvMNtCsieiGu2EXtoJ_4core6optionINtB2_6OptionINtNtCslJiobkLta79_5alloc4sync3ArceEE6as_refCseYC8vFNOjrM_2cc, symObjAddr: 0x3D10, symBinAddr: 0x100085570, symSize: 0x50 }
  - { offset: 0xE7B84, size: 0x8, addend: 0x0, symName: __RNvMNtCsieiGu2EXtoJ_4core6optionINtB2_6OptionINtNtCslJiobkLta79_5alloc4sync3ArceEE7is_noneCseYC8vFNOjrM_2cc, symObjAddr: 0x3D60, symBinAddr: 0x1000855C0, symSize: 0x30 }
  - { offset: 0xE7C6E, size: 0x8, addend: 0x0, symName: __RNvMNtCsieiGu2EXtoJ_4core6optionINtB2_6OptionINtNtCslJiobkLta79_5alloc4sync3ArceEE8as_derefCseYC8vFNOjrM_2cc, symObjAddr: 0x3D90, symBinAddr: 0x1000855F0, symSize: 0x70 }
  - { offset: 0xE7D17, size: 0x8, addend: 0x0, symName: __RNvMNtCsieiGu2EXtoJ_4core6optionINtB2_6OptionINtNtCslJiobkLta79_5alloc4sync3ArceEE9unwrap_orCseYC8vFNOjrM_2cc, symObjAddr: 0x3E00, symBinAddr: 0x100085660, symSize: 0x80 }
  - { offset: 0xE7E2A, size: 0x8, addend: 0x0, symName: __RNvMNtCsieiGu2EXtoJ_4core6optionINtB2_6OptionINtNtCslJiobkLta79_5alloc6borrow3CowNtNtCsHUR1vrdMJt_3std4path4PathEE8as_derefCseYC8vFNOjrM_2cc, symObjAddr: 0x3E80, symBinAddr: 0x1000856E0, symSize: 0x80 }
  - { offset: 0xE7ED3, size: 0x8, addend: 0x0, symName: __RNvMNtCsieiGu2EXtoJ_4core6optionINtB2_6OptionINtNtCslJiobkLta79_5alloc6borrow3CowNtNtCsHUR1vrdMJt_3std4path4PathEE9unwrap_orCseYC8vFNOjrM_2cc, symObjAddr: 0x3F00, symBinAddr: 0x100085760, symSize: 0xB0 }
  - { offset: 0xE7F3B, size: 0x8, addend: 0x0, symName: __RNvMNtCsieiGu2EXtoJ_4core6optionINtB2_6OptionNtCseYC8vFNOjrM_2cc10AsmFileExtE7is_someBJ_, symObjAddr: 0x3FB0, symBinAddr: 0x100085810, symSize: 0x30 }
  - { offset: 0xE7F74, size: 0x8, addend: 0x0, symName: __RNvMNtCsieiGu2EXtoJ_4core6optionINtB2_6OptionNtNtCsHUR1vrdMJt_3std2fs4FileE4takeCseYC8vFNOjrM_2cc, symObjAddr: 0x3FE0, symBinAddr: 0x100085840, symSize: 0x20 }
  - { offset: 0xE7FCB, size: 0x8, addend: 0x0, symName: __RNvMNtCsieiGu2EXtoJ_4core6optionINtB2_6OptionNtNtCsHUR1vrdMJt_3std7process11ChildStderrE4takeCseYC8vFNOjrM_2cc, symObjAddr: 0x4000, symBinAddr: 0x100085860, symSize: 0x20 }
