---
triple:          'x86_64-apple-darwin'
binary-path:     '/Users/kema/git/rust-serv/target/debug/build/oid-registry-8c53527211fbe8b8/build_script_build-8c53527211fbe8b8'
relocations:
  - { offset: 0x1E, size: 0x8, addend: 0x0, symName: __RINvMNtNtNtCslJiobkLta79_5alloc11collections5btree4nodeINtB3_8LeafNodeNtNtB9_6string6StringINtNtB9_3vec3VecNtCs3MTn1ylDH3J_18build_script_build11LoadedEntryEE3newNtNtB9_5alloc6GlobalEB1J_, symObjAddr: 0x0, symBinAddr: 0x100000B90, symSize: 0x60 }
  - { offset: 0x596D, size: 0x8, addend: 0x0, symName: __RINvNtNtNtCslJiobkLta79_5alloc11collections5btree4node12slice_insertINtNtB8_3vec3VecNtCs3MTn1ylDH3J_18build_script_build11LoadedEntryEEB1m_, symObjAddr: 0x2920, symBinAddr: 0x1000034B0, symSize: 0x180 }
  - { offset: 0x5AF4, size: 0x8, addend: 0x0, symName: __RINvNtNtNtCslJiobkLta79_5alloc11collections5btree4node12slice_insertINtNtNtCsieiGu2EXtoJ_4core3ptr8non_null7NonNullINtB2_8LeafNodeNtNtB8_6string6StringINtNtB8_3vec3VecNtCs3MTn1ylDH3J_18build_script_build11LoadedEntryEEEEB2H_, symObjAddr: 0x2AA0, symBinAddr: 0x100003630, symSize: 0x130 }
  - { offset: 0x5C5A, size: 0x8, addend: 0x0, symName: __RINvNtNtNtCslJiobkLta79_5alloc11collections5btree4node12slice_insertNtNtB8_6string6StringECs3MTn1ylDH3J_18build_script_build, symObjAddr: 0x2BD0, symBinAddr: 0x100003760, symSize: 0x180 }
  - { offset: 0x5DE1, size: 0x8, addend: 0x0, symName: __RINvNtNtNtCslJiobkLta79_5alloc11collections5btree4node13move_to_sliceINtNtB8_3vec3VecNtCs3MTn1ylDH3J_18build_script_build11LoadedEntryEEB1n_, symObjAddr: 0x2D50, symBinAddr: 0x1000038E0, symSize: 0xA0 }
  - { offset: 0x5E8D, size: 0x8, addend: 0x0, symName: __RINvNtNtNtCslJiobkLta79_5alloc11collections5btree4node13move_to_sliceINtNtNtCsieiGu2EXtoJ_4core3ptr8non_null7NonNullINtB2_8LeafNodeNtNtB8_6string6StringINtNtB8_3vec3VecNtCs3MTn1ylDH3J_18build_script_build11LoadedEntryEEEEB2I_, symObjAddr: 0x2DF0, symBinAddr: 0x100003980, symSize: 0x90 }
  - { offset: 0x5F39, size: 0x8, addend: 0x0, symName: __RINvNtNtNtCslJiobkLta79_5alloc11collections5btree4node13move_to_sliceNtNtB8_6string6StringECs3MTn1ylDH3J_18build_script_build, symObjAddr: 0x2E80, symBinAddr: 0x100003A10, symSize: 0xA0 }
  - { offset: 0x5FEF, size: 0x8, addend: 0x0, symName: __RNCINvMss_NtNtNtCslJiobkLta79_5alloc11collections5btree4nodeINtB8_7NodeRefNtNtB8_6marker5OwnedNtNtBe_6string6StringINtNtBe_3vec3VecNtCs3MTn1ylDH3J_18build_script_build11LoadedEntryENtB1c_14LeafOrInternalE19push_internal_levelNtNtBe_5alloc6GlobalE0B27_, symObjAddr: 0x2F20, symBinAddr: 0x100003AB0, symSize: 0x30 }
  - { offset: 0x6A90, size: 0x8, addend: 0x0, symName: __RNvXNvMsT_NtNtNtCslJiobkLta79_5alloc11collections5btree4nodeINtB8_6HandleINtB8_7NodeRefNtNtB8_6marker5DyingpppENtB1p_2KVE12drop_key_valINtB2_7DropperINtNtBe_3vec3VecNtCs3MTn1ylDH3J_18build_script_build11LoadedEntryEENtNtNtCsieiGu2EXtoJ_4core3ops4drop4Drop4dropB2F_, symObjAddr: 0x5CC0, symBinAddr: 0x100006850, symSize: 0x20 }
  - { offset: 0x728B, size: 0x8, addend: 0x0, symName: __RINvMNtNtNtCslJiobkLta79_5alloc11collections5btree4nodeINtB3_8LeafNodeNtNtB9_6string6StringINtNtB9_3vec3VecNtCs3MTn1ylDH3J_18build_script_build11LoadedEntryEE3newNtNtB9_5alloc6GlobalEB1J_, symObjAddr: 0x0, symBinAddr: 0x100000B90, symSize: 0x60 }
  - { offset: 0x75CF, size: 0x8, addend: 0x0, symName: __RINvMs0_NtNtNtCslJiobkLta79_5alloc11collections5btree6searchINtNtB8_4node7NodeRefNtNtBZ_6marker3MutNtNtBc_6string6StringINtNtBc_3vec3VecNtCs3MTn1ylDH3J_18build_script_build11LoadedEntryENtB1j_14LeafOrInternalE14find_key_indexB1z_EB2c_, symObjAddr: 0x60, symBinAddr: 0x100000BF0, symSize: 0x240 }
  - { offset: 0x7964, size: 0x8, addend: 0x0, symName: __RINvMs9_NtNtNtCslJiobkLta79_5alloc11collections5btree4nodeINtB6_7NodeRefNtNtB6_6marker5OwnedNtNtBc_6string6StringINtNtBc_3vec3VecNtCs3MTn1ylDH3J_18build_script_build11LoadedEntryENtB1a_8InternalE12new_internalNtNtBc_5alloc6GlobalEB25_, symObjAddr: 0x2A0, symBinAddr: 0x100000E30, symSize: 0x90 }
  - { offset: 0x7BBC, size: 0x8, addend: 0x0, symName: __RINvMs9_NtNtNtCslJiobkLta79_5alloc11collections5btree4nodeINtB6_7NodeRefNtNtB6_6marker5OwnedNtNtBc_6string6StringINtNtBc_3vec3VecNtCs3MTn1ylDH3J_18build_script_build11LoadedEntryENtB1a_8InternalE17from_new_internalNtNtBc_5alloc6GlobalEB25_, symObjAddr: 0x330, symBinAddr: 0x100000EC0, symSize: 0xD0 }
  - { offset: 0x8004, size: 0x8, addend: 0x0, symName: __RINvMsK_NtNtNtCslJiobkLta79_5alloc11collections5btree4nodeINtB6_6HandleINtB6_7NodeRefNtNtB6_6marker3MutNtNtBc_6string6StringINtNtBc_3vec3VecNtCs3MTn1ylDH3J_18build_script_build11LoadedEntryENtB1n_4LeafENtB1n_4EdgeE6insertNtNtBc_5alloc6GlobalEB2g_, symObjAddr: 0x400, symBinAddr: 0x100000F90, symSize: 0x770 }
  - { offset: 0x8429, size: 0x8, addend: 0x0, symName: __RINvMsM_NtNtNtCslJiobkLta79_5alloc11collections5btree4nodeINtB6_6HandleINtB6_7NodeRefNtNtB6_6marker3MutNtNtBc_6string6StringINtNtBc_3vec3VecNtCs3MTn1ylDH3J_18build_script_build11LoadedEntryENtB1n_8InternalENtB1n_4EdgeE6insertNtNtBc_5alloc6GlobalEB2g_, symObjAddr: 0xB70, symBinAddr: 0x100001700, symSize: 0x740 }
  - { offset: 0x8728, size: 0x8, addend: 0x0, symName: __RINvMsN_NtNtNtCslJiobkLta79_5alloc11collections5btree4nodeINtB6_6HandleINtB6_7NodeRefNtNtB6_6marker3MutNtNtBc_6string6StringINtNtBc_3vec3VecNtCs3MTn1ylDH3J_18build_script_build11LoadedEntryENtB1n_4LeafENtB1n_4EdgeE16insert_recursingNtNtBc_5alloc6GlobalNCNvMs6_NtNtB8_3map5entryINtB4a_11VacantEntryB1D_B1Y_E12insert_entry0EB2g_, symObjAddr: 0x12B0, symBinAddr: 0x100001E40, symSize: 0x6E0 }
  - { offset: 0x89CC, size: 0x8, addend: 0x0, symName: __RINvMsV_NtNtNtCslJiobkLta79_5alloc11collections5btree4nodeINtB6_6HandleINtB6_7NodeRefNtNtB6_6marker3MutNtNtBc_6string6StringINtNtBc_3vec3VecNtCs3MTn1ylDH3J_18build_script_build11LoadedEntryENtB1n_4LeafENtB1n_2KVE5splitNtNtBc_5alloc6GlobalEB2g_, symObjAddr: 0x1990, symBinAddr: 0x100002520, symSize: 0xC0 }
  - { offset: 0x8BE4, size: 0x8, addend: 0x0, symName: __RINvMsW_NtNtNtCslJiobkLta79_5alloc11collections5btree4nodeINtB6_6HandleINtB6_7NodeRefNtNtB6_6marker3MutNtNtBc_6string6StringINtNtBc_3vec3VecNtCs3MTn1ylDH3J_18build_script_build11LoadedEntryENtB1n_8InternalENtB1n_2KVE5splitNtNtBc_5alloc6GlobalEB2g_, symObjAddr: 0x1A50, symBinAddr: 0x1000025E0, symSize: 0x350 }
  - { offset: 0x8FDB, size: 0x8, addend: 0x0, symName: __RINvMs_NtNtNtCslJiobkLta79_5alloc11collections5btree4nodeINtB5_12InternalNodeNtNtBb_6string6StringINtNtBb_3vec3VecNtCs3MTn1ylDH3J_18build_script_build11LoadedEntryEE3newNtNtBb_5alloc6GlobalEB1Q_, symObjAddr: 0x1DA0, symBinAddr: 0x100002930, symSize: 0x60 }
  - { offset: 0x92D6, size: 0x8, addend: 0x0, symName: __RINvMs_NtNtNtCslJiobkLta79_5alloc11collections5btree6searchINtNtB7_4node7NodeRefNtNtBY_6marker3MutNtNtBb_6string6StringINtNtBb_3vec3VecNtCs3MTn1ylDH3J_18build_script_build11LoadedEntryENtB1i_14LeafOrInternalE11search_treeB1y_EB2b_, symObjAddr: 0x1E00, symBinAddr: 0x100002990, symSize: 0x3A0 }
  - { offset: 0x95B4, size: 0x8, addend: 0x0, symName: __RINvMsh_NtNtNtCslJiobkLta79_5alloc11collections5btree4nodeINtB6_7NodeRefNtNtB6_6marker5DyingNtNtBc_6string6StringINtNtBc_3vec3VecNtCs3MTn1ylDH3J_18build_script_build11LoadedEntryENtB1a_14LeafOrInternalE21deallocate_and_ascendNtNtBc_5alloc6GlobalEB25_, symObjAddr: 0x21A0, symBinAddr: 0x100002D30, symSize: 0x1A0 }
  - { offset: 0x9808, size: 0x8, addend: 0x0, symName: __RINvMsj_NtNtNtCslJiobkLta79_5alloc11collections5btree8navigateINtNtB8_4node6HandleINtB11_7NodeRefNtNtB11_6marker5DyingNtNtBc_6string6StringINtNtBc_3vec3VecNtCs3MTn1ylDH3J_18build_script_build11LoadedEntryENtB1z_4LeafENtB1z_4EdgeE16deallocating_endNtNtBc_5alloc6GlobalEB2v_, symObjAddr: 0x2340, symBinAddr: 0x100002ED0, symSize: 0xF0 }
  - { offset: 0x9A7E, size: 0x8, addend: 0x0, symName: __RINvMsj_NtNtNtCslJiobkLta79_5alloc11collections5btree8navigateINtNtB8_4node6HandleINtB11_7NodeRefNtNtB11_6marker5DyingNtNtBc_6string6StringINtNtBc_3vec3VecNtCs3MTn1ylDH3J_18build_script_build11LoadedEntryENtB1z_4LeafENtB1z_4EdgeE17deallocating_nextNtNtBc_5alloc6GlobalEB2v_, symObjAddr: 0x2430, symBinAddr: 0x100002FC0, symSize: 0x370 }
  - { offset: 0x9CE0, size: 0x8, addend: 0x0, symName: __RINvMsp_NtNtNtCslJiobkLta79_5alloc11collections5btree4nodeINtB6_7NodeRefNtNtB6_6marker3MutNtNtBc_6string6StringINtNtBc_3vec3VecNtCs3MTn1ylDH3J_18build_script_build11LoadedEntryENtB1a_8InternalE30correct_childrens_parent_linksINtNtNtCsieiGu2EXtoJ_4core3ops5range14RangeInclusivejEEB23_, symObjAddr: 0x27A0, symBinAddr: 0x100003330, symSize: 0xC0 }
  - { offset: 0x9E18, size: 0x8, addend: 0x0, symName: __RINvMsp_NtNtNtCslJiobkLta79_5alloc11collections5btree4nodeINtB6_7NodeRefNtNtB6_6marker3MutNtNtBc_6string6StringINtNtBc_3vec3VecNtCs3MTn1ylDH3J_18build_script_build11LoadedEntryENtB1a_8InternalE30correct_childrens_parent_linksINtNtNtCsieiGu2EXtoJ_4core3ops5range5RangejEEB23_, symObjAddr: 0x2860, symBinAddr: 0x1000033F0, symSize: 0xC0 }
  - { offset: 0xA295, size: 0x8, addend: 0x0, symName: __RNvMsJ_NtNtNtCslJiobkLta79_5alloc11collections5btree4nodeINtB5_6HandleINtB5_7NodeRefNtNtB5_6marker3MutNtNtBb_6string6StringINtNtBb_3vec3VecNtCs3MTn1ylDH3J_18build_script_build11LoadedEntryENtB1m_4LeafENtB1m_4EdgeE10insert_fitB2f_, symObjAddr: 0x2F50, symBinAddr: 0x100003AE0, symSize: 0x2A0 }
  - { offset: 0xA710, size: 0x8, addend: 0x0, symName: __RNvMsL_NtNtNtCslJiobkLta79_5alloc11collections5btree4nodeINtB5_6HandleINtB5_7NodeRefNtNtB5_6marker3MutNtNtBb_6string6StringINtNtBb_3vec3VecNtCs3MTn1ylDH3J_18build_script_build11LoadedEntryENtB1m_8InternalENtB1m_4EdgeE19correct_parent_linkB2f_, symObjAddr: 0x31F0, symBinAddr: 0x100003D80, symSize: 0xA0 }
  - { offset: 0xAA46, size: 0x8, addend: 0x0, symName: __RNvMsM_NtNtNtCslJiobkLta79_5alloc11collections5btree4nodeINtB5_6HandleINtB5_7NodeRefNtNtB5_6marker3MutNtNtBb_6string6StringINtNtBb_3vec3VecNtCs3MTn1ylDH3J_18build_script_build11LoadedEntryENtB1m_8InternalENtB1m_4EdgeE10insert_fitB2f_, symObjAddr: 0x3290, symBinAddr: 0x100003E20, symSize: 0x360 }
  - { offset: 0xAF7D, size: 0x8, addend: 0x0, symName: __RNvMsO_NtNtNtCslJiobkLta79_5alloc11collections5btree4nodeINtB5_6HandleINtB5_7NodeRefNtNtB5_6marker3MutNtNtBb_6string6StringINtNtBb_3vec3VecNtCs3MTn1ylDH3J_18build_script_build11LoadedEntryENtB1m_8InternalENtB1m_4EdgeE7descendB2f_, symObjAddr: 0x35F0, symBinAddr: 0x100004180, symSize: 0x80 }
  - { offset: 0xB14D, size: 0x8, addend: 0x0, symName: __RNvMsO_NtNtNtCslJiobkLta79_5alloc11collections5btree4nodeINtB5_6HandleINtB5_7NodeRefNtNtB5_6marker5DyingNtNtBb_6string6StringINtNtBb_3vec3VecNtCs3MTn1ylDH3J_18build_script_build11LoadedEntryENtB1m_8InternalENtB1m_4EdgeE7descendB2h_, symObjAddr: 0x3670, symBinAddr: 0x100004200, symSize: 0x80 }
  - { offset: 0xB33B, size: 0x8, addend: 0x0, symName: __RNvMsO_NtNtNtCslJiobkLta79_5alloc11collections5btree4nodeINtB5_6HandleINtB5_7NodeRefNtNtB5_6marker5ImmutNtNtBb_6string6StringINtNtBb_3vec3VecNtCs3MTn1ylDH3J_18build_script_build11LoadedEntryENtB1m_8InternalENtB1m_4EdgeE7descendB2h_, symObjAddr: 0x36F0, symBinAddr: 0x100004280, symSize: 0x80 }
  - { offset: 0xB626, size: 0x8, addend: 0x0, symName: __RNvMsP_NtNtNtCslJiobkLta79_5alloc11collections5btree4nodeINtB5_6HandleINtB5_7NodeRefNtNtB5_6marker5ImmutNtNtBb_6string6StringINtNtBb_3vec3VecNtCs3MTn1ylDH3J_18build_script_build11LoadedEntryENtB1m_14LeafOrInternalENtB1m_2KVE7into_kvB2h_, symObjAddr: 0x3770, symBinAddr: 0x100004300, symSize: 0xF0 }
  - { offset: 0xB89C, size: 0x8, addend: 0x0, symName: __RNvMsQ_NtNtNtCslJiobkLta79_5alloc11collections5btree4nodeINtB5_6HandleINtB5_7NodeRefNtNtB5_6marker3MutNtNtBb_6string6StringINtNtBb_3vec3VecNtCs3MTn1ylDH3J_18build_script_build11LoadedEntryENtB1m_14LeafOrInternalENtB1m_2KVE12into_val_mutB2f_, symObjAddr: 0x3860, symBinAddr: 0x1000043F0, symSize: 0x80 }
  - { offset: 0xBA50, size: 0x8, addend: 0x0, symName: __RNvMsT_NtNtNtCslJiobkLta79_5alloc11collections5btree4nodeINtB5_6HandleINtB5_7NodeRefNtNtB5_6marker5DyingNtNtBb_6string6StringINtNtBb_3vec3VecNtCs3MTn1ylDH3J_18build_script_build11LoadedEntryENtB1m_14LeafOrInternalENtB1m_2KVE12drop_key_valB2h_, symObjAddr: 0x38E0, symBinAddr: 0x100004470, symSize: 0x140 }
  - { offset: 0xBEB2, size: 0x8, addend: 0x0, symName: __RNvMsU_NtNtNtCslJiobkLta79_5alloc11collections5btree4nodeINtB5_6HandleINtB5_7NodeRefNtNtB5_6marker3MutNtNtBb_6string6StringINtNtBb_3vec3VecNtCs3MTn1ylDH3J_18build_script_build11LoadedEntryENtB1m_4LeafENtB1m_2KVE15split_leaf_dataB2f_, symObjAddr: 0x3A20, symBinAddr: 0x1000045B0, symSize: 0x5B0 }
  - { offset: 0xC962, size: 0x8, addend: 0x0, symName: __RNvMsU_NtNtNtCslJiobkLta79_5alloc11collections5btree4nodeINtB5_6HandleINtB5_7NodeRefNtNtB5_6marker3MutNtNtBb_6string6StringINtNtBb_3vec3VecNtCs3MTn1ylDH3J_18build_script_build11LoadedEntryENtB1m_8InternalENtB1m_2KVE15split_leaf_dataB2f_, symObjAddr: 0x3FD0, symBinAddr: 0x100004B60, symSize: 0x5B0 }
  - { offset: 0xD2B9, size: 0x8, addend: 0x0, symName: __RNvMse_NtNtNtCslJiobkLta79_5alloc11collections5btree4nodeINtB5_7NodeRefNtNtB5_6marker3MutNtNtBb_6string6StringINtNtBb_3vec3VecNtCs3MTn1ylDH3J_18build_script_build11LoadedEntryENtB19_14LeafOrInternalE6ascendB22_, symObjAddr: 0x4580, symBinAddr: 0x100005110, symSize: 0x230 }
  - { offset: 0xD519, size: 0x8, addend: 0x0, symName: __RNvMse_NtNtNtCslJiobkLta79_5alloc11collections5btree4nodeINtB5_7NodeRefNtNtB5_6marker5DyingNtNtBb_6string6StringINtNtBb_3vec3VecNtCs3MTn1ylDH3J_18build_script_build11LoadedEntryENtB19_14LeafOrInternalE6ascendB24_, symObjAddr: 0x47B0, symBinAddr: 0x100005340, symSize: 0x230 }
  - { offset: 0xD779, size: 0x8, addend: 0x0, symName: __RNvMse_NtNtNtCslJiobkLta79_5alloc11collections5btree4nodeINtB5_7NodeRefNtNtB5_6marker5ImmutNtNtBb_6string6StringINtNtBb_3vec3VecNtCs3MTn1ylDH3J_18build_script_build11LoadedEntryENtB19_14LeafOrInternalE6ascendB24_, symObjAddr: 0x49E0, symBinAddr: 0x100005570, symSize: 0x230 }
  - { offset: 0xD975, size: 0x8, addend: 0x0, symName: __RNvMsg_NtNtNtCslJiobkLta79_5alloc11collections5btree4nodeINtB5_7NodeRefNtNtB5_6marker5ImmutNtNtBb_6string6StringINtNtBb_3vec3VecNtCs3MTn1ylDH3J_18build_script_build11LoadedEntryENtB19_14LeafOrInternalE4keysB24_, symObjAddr: 0x4C10, symBinAddr: 0x1000057A0, symSize: 0x90 }
  - { offset: 0xDC61, size: 0x8, addend: 0x0, symName: __RNvMsh_NtNtNtCslJiobkLta79_5alloc11collections5btree8navigateINtNtB7_4node6HandleINtB10_7NodeRefNtNtB10_6marker5ImmutNtNtBb_6string6StringINtNtBb_3vec3VecNtCs3MTn1ylDH3J_18build_script_build11LoadedEntryENtB1y_4LeafENtB1y_4EdgeE7next_kvB2u_, symObjAddr: 0x4CA0, symBinAddr: 0x100005830, symSize: 0x290 }
  - { offset: 0xE065, size: 0x8, addend: 0x0, symName: __RNvMsp_NtNtNtCslJiobkLta79_5alloc11collections5btree8navigateINtNtB7_4node6HandleINtB10_7NodeRefNtNtB10_6marker5DyingNtNtBb_6string6StringINtNtBb_3vec3VecNtCs3MTn1ylDH3J_18build_script_build11LoadedEntryENtB1y_14LeafOrInternalENtB1y_2KVE14next_leaf_edgeB2u_, symObjAddr: 0x4F30, symBinAddr: 0x100005AC0, symSize: 0x320 }
  - { offset: 0xE4E8, size: 0x8, addend: 0x0, symName: __RNvMsp_NtNtNtCslJiobkLta79_5alloc11collections5btree8navigateINtNtB7_4node6HandleINtB10_7NodeRefNtNtB10_6marker5ImmutNtNtBb_6string6StringINtNtBb_3vec3VecNtCs3MTn1ylDH3J_18build_script_build11LoadedEntryENtB1y_14LeafOrInternalENtB1y_2KVE14next_leaf_edgeB2u_, symObjAddr: 0x5250, symBinAddr: 0x100005DE0, symSize: 0x320 }
  - { offset: 0xE96D, size: 0x8, addend: 0x0, symName: __RNvMsu_NtNtNtCslJiobkLta79_5alloc11collections5btree4nodeINtB5_7NodeRefNtNtB5_6marker3MutNtNtBb_6string6StringINtNtBb_3vec3VecNtCs3MTn1ylDH3J_18build_script_build11LoadedEntryENtB19_4LeafE16push_with_handleB22_, symObjAddr: 0x5570, symBinAddr: 0x100006100, symSize: 0x320 }
  - { offset: 0xEFDE, size: 0x8, addend: 0x0, symName: __RNvMsv_NtNtNtCslJiobkLta79_5alloc11collections5btree4nodeINtB5_7NodeRefNtNtB5_6marker3MutNtNtBb_6string6StringINtNtBb_3vec3VecNtCs3MTn1ylDH3J_18build_script_build11LoadedEntryENtB19_8InternalE4pushB22_, symObjAddr: 0x5890, symBinAddr: 0x100006420, symSize: 0x430 }
  - { offset: 0xF4DB, size: 0x8, addend: 0x0, symName: __RINvCs3MTn1ylDH3J_18build_script_build13generate_fileNtNtCsHUR1vrdMJt_3std4path7PathBufEB2_, symObjAddr: 0x0, symBinAddr: 0x100006870, symSize: 0x10B0 }
  - { offset: 0xF5B7, size: 0x8, addend: 0x0, symName: __RNvNvMs9_NtCsieiGu2EXtoJ_4core3numj13unchecked_add18precondition_checkCs3MTn1ylDH3J_18build_script_build, symObjAddr: 0x3800, symBinAddr: 0x10000A070, symSize: 0xA0 }
  - { offset: 0xF6C5, size: 0x8, addend: 0x0, symName: __RNvNvMs3_NtCsieiGu2EXtoJ_4core3numi13unchecked_neg18precondition_checkCs3MTn1ylDH3J_18build_script_build, symObjAddr: 0x3750, symBinAddr: 0x100009FC0, symSize: 0xB0 }
  - { offset: 0xFE88, size: 0x8, addend: 0x0, symName: __RNvNvMNtNtCsieiGu2EXtoJ_4core3ptr9const_ptrPp20offset_from_unsigned18precondition_checkCs3MTn1ylDH3J_18build_script_build, symObjAddr: 0x36B0, symBinAddr: 0x100009F20, symSize: 0xA0 }
  - { offset: 0x1002E, size: 0x8, addend: 0x0, symName: __RNvXsp_NtCsieiGu2EXtoJ_4core6resultINtB5_6ResultINtNtNtNtCslJiobkLta79_5alloc11collections5btree3map8BTreeMapNtNtBT_6string6StringINtNtBT_3vec3VecNtCs3MTn1ylDH3J_18build_script_build11LoadedEntryEENtNtNtCsHUR1vrdMJt_3std2io5error5ErrorENtNtNtB7_3ops9try_trait3Try6branchB2m_, symObjAddr: 0x4180, symBinAddr: 0x10000A9F0, symSize: 0x80 }
  - { offset: 0x100AB, size: 0x8, addend: 0x0, symName: __RNvXsp_NtCsieiGu2EXtoJ_4core6resultINtB5_6ResultNtNtCsHUR1vrdMJt_3std2fs4FileNtNtNtBO_2io5error5ErrorENtNtNtB7_3ops9try_trait3Try6branchCs3MTn1ylDH3J_18build_script_build, symObjAddr: 0x4200, symBinAddr: 0x10000AA70, symSize: 0x60 }
  - { offset: 0x10128, size: 0x8, addend: 0x0, symName: __RNvXsp_NtCsieiGu2EXtoJ_4core6resultINtB5_6ResultNtNtCslJiobkLta79_5alloc6string6StringNtNtNtCsHUR1vrdMJt_3std2io5error5ErrorENtNtNtB7_3ops9try_trait3Try6branchCs3MTn1ylDH3J_18build_script_build, symObjAddr: 0x4260, symBinAddr: 0x10000AAD0, symSize: 0x90 }
  - { offset: 0x101A5, size: 0x8, addend: 0x0, symName: __RNvXsp_NtCsieiGu2EXtoJ_4core6resultINtB5_6ResultuNtNtNtCsHUR1vrdMJt_3std2io5error5ErrorENtNtNtB7_3ops9try_trait3Try6branchCs3MTn1ylDH3J_18build_script_build, symObjAddr: 0x42F0, symBinAddr: 0x10000AB60, symSize: 0x40 }
  - { offset: 0x10361, size: 0x8, addend: 0x0, symName: __RNvXsq_NtCsieiGu2EXtoJ_4core6resultINtB5_6ResultINtNtNtNtCslJiobkLta79_5alloc11collections5btree3map8BTreeMapNtNtBT_6string6StringINtNtBT_3vec3VecNtCs3MTn1ylDH3J_18build_script_build11LoadedEntryEENtNtNtCsHUR1vrdMJt_3std2io5error5ErrorEINtNtNtB7_3ops9try_trait12FromResidualIBy_NtNtB7_7convert10InfallibleB39_EE13from_residualB2m_, symObjAddr: 0x4330, symBinAddr: 0x10000ABA0, symSize: 0x20 }
  - { offset: 0x103C8, size: 0x8, addend: 0x0, symName: __RNvXsq_NtCsieiGu2EXtoJ_4core6resultINtB5_6ResultuNtNtNtCsHUR1vrdMJt_3std2io5error5ErrorEINtNtNtB7_3ops9try_trait12FromResidualIBy_NtNtB7_7convert10InfallibleBL_EE13from_residualCs3MTn1ylDH3J_18build_script_build, symObjAddr: 0x4350, symBinAddr: 0x10000ABC0, symSize: 0x20 }
  - { offset: 0x10D26, size: 0x8, addend: 0x0, symName: __RINvXs2E_NtNtCsieiGu2EXtoJ_4core5slice4iterINtB7_4IterhENtNtNtNtBb_4iter6traits8iterator8Iterator4folduNCINvNtNtBY_8adapters3map8map_foldRhhuNCNvNtCslJiobkLta79_5alloc3str13replace_ascii0NCINvNvBS_8for_each4callhNCINvMsi_NtB2l_3vecINtB3x_3VechE14extend_trustedINtB1I_3MapBF_B2f_EE0E0E0ECs3MTn1ylDH3J_18build_script_build, symObjAddr: 0x1F20, symBinAddr: 0x100008790, symSize: 0x190 }
  - { offset: 0x10E67, size: 0x8, addend: 0x0, symName: __RNvXs2E_NtNtCsieiGu2EXtoJ_4core5slice4iterINtB6_4IterNtCs3MTn1ylDH3J_18build_script_build11LoadedEntryENtNtNtNtBa_4iter6traits8iterator8Iterator4nextBR_, symObjAddr: 0x3B80, symBinAddr: 0x10000A3F0, symSize: 0x90 }
  - { offset: 0x10F88, size: 0x8, addend: 0x0, symName: __RNvXs2E_NtNtCsieiGu2EXtoJ_4core5slice4iterINtB6_4IterNtNtCslJiobkLta79_5alloc6string6StringENtNtNtNtBa_4iter6traits8iterator8Iterator4nextCs3MTn1ylDH3J_18build_script_build, symObjAddr: 0x3C10, symBinAddr: 0x10000A480, symSize: 0x90 }
  - { offset: 0x110A9, size: 0x8, addend: 0x0, symName: __RNvXs2E_NtNtCsieiGu2EXtoJ_4core5slice4iterINtB6_4IterhENtNtNtNtBa_4iter6traits8iterator8Iterator9size_hintCs3MTn1ylDH3J_18build_script_build, symObjAddr: 0x3CA0, symBinAddr: 0x10000A510, symSize: 0x60 }
  - { offset: 0x11195, size: 0x8, addend: 0x0, symName: __RNvXs2F_NtNtCsieiGu2EXtoJ_4core5slice4iterINtB6_4IterhENtNtNtNtBa_4iter6traits12double_ended19DoubleEndedIterator9next_backCs3MTn1ylDH3J_18build_script_build, symObjAddr: 0x3D00, symBinAddr: 0x10000A570, symSize: 0x100 }
  - { offset: 0x120F8, size: 0x8, addend: 0x0, symName: __RNvNtNtCsieiGu2EXtoJ_4core4char7methods15encode_utf8_rawCs3MTn1ylDH3J_18build_script_build, symObjAddr: 0x3490, symBinAddr: 0x100009D00, symSize: 0xE0 }
  - { offset: 0x121F8, size: 0x8, addend: 0x0, symName: __RNvNtNtCsieiGu2EXtoJ_4core4char7methods25encode_utf8_raw_uncheckedCs3MTn1ylDH3J_18build_script_build, symObjAddr: 0x3570, symBinAddr: 0x100009DE0, symSize: 0x140 }
  - { offset: 0x123D6, size: 0x8, addend: 0x0, symName: __RNvNvXs5_NtNtCsieiGu2EXtoJ_4core3str6traitsINtNtNtBb_3ops5range5RangejEINtNtNtBb_5slice5index10SliceIndexeE13get_unchecked18precondition_checkCs3MTn1ylDH3J_18build_script_build, symObjAddr: 0x38A0, symBinAddr: 0x10000A110, symSize: 0xC0 }
  - { offset: 0x12557, size: 0x8, addend: 0x0, symName: __RNvXNtNtNtCsieiGu2EXtoJ_4core4iter6traits7collectINtNtNtNtCslJiobkLta79_5alloc11collections5btree3map6ValuesNtNtBU_6string6StringINtNtBU_3vec3VecNtCs3MTn1ylDH3J_18build_script_build11LoadedEntryEENtB2_12IntoIterator9into_iterB2l_, symObjAddr: 0x3960, symBinAddr: 0x10000A1D0, symSize: 0x30 }
  - { offset: 0x12A37, size: 0x8, addend: 0x0, symName: __RNvXs3_NtNtCsHUR1vrdMJt_3std3ffi6os_strNtB5_8OsStringINtNtNtCsieiGu2EXtoJ_4core3ops5index5IndexNtNtBU_5range9RangeFullE5indexCs3MTn1ylDH3J_18build_script_build, symObjAddr: 0x3E00, symBinAddr: 0x10000A670, symSize: 0x60 }
  - { offset: 0x12B7F, size: 0x8, addend: 0x0, symName: __RNvXsV_NtNtCsHUR1vrdMJt_3std3ffi6os_strNtB5_8OsStringINtNtCsieiGu2EXtoJ_4core7convert5AsRefNtB5_5OsStrE6as_refCs3MTn1ylDH3J_18build_script_build, symObjAddr: 0x3EC0, symBinAddr: 0x10000A730, symSize: 0x20 }
  - { offset: 0x12BD1, size: 0x8, addend: 0x0, symName: __RNvXsW_NtNtCsHUR1vrdMJt_3std3ffi6os_streINtNtCsieiGu2EXtoJ_4core7convert5AsRefNtB5_5OsStrE6as_refCs3MTn1ylDH3J_18build_script_build, symObjAddr: 0x3EE0, symBinAddr: 0x10000A750, symSize: 0x20 }
  - { offset: 0x12C0C, size: 0x8, addend: 0x0, symName: __RNvXs13_NtCsHUR1vrdMJt_3std7processINtNtCsieiGu2EXtoJ_4core6result6ResultuNtNtNtB8_2io5error5ErrorENtB6_11Termination6reportCs3MTn1ylDH3J_18build_script_build, symObjAddr: 0x3A40, symBinAddr: 0x10000A2B0, symSize: 0x140 }
  - { offset: 0x12D15, size: 0x8, addend: 0x0, symName: __RINvCs3MTn1ylDH3J_18build_script_build13generate_fileNtNtCsHUR1vrdMJt_3std4path7PathBufEB2_, symObjAddr: 0x0, symBinAddr: 0x100006870, symSize: 0x10B0 }
  - { offset: 0x130AD, size: 0x8, addend: 0x0, symName: __RINvCs3MTn1ylDH3J_18build_script_build9load_fileReEB2_, symObjAddr: 0x10B0, symBinAddr: 0x100007920, symSize: 0x990 }
  - { offset: 0x132AD, size: 0x8, addend: 0x0, symName: __RNvCs3MTn1ylDH3J_18build_script_build4main, symObjAddr: 0x2250, symBinAddr: 0x100008AC0, symSize: 0x340 }
  - { offset: 0x134F4, size: 0x8, addend: 0x0, symName: __RNvXs_NtNtCslJiobkLta79_5alloc3vec15set_len_on_dropNtB4_12SetLenOnDropNtNtNtCsieiGu2EXtoJ_4core3ops4drop4Drop4dropCs3MTn1ylDH3J_18build_script_build, symObjAddr: 0x3F00, symBinAddr: 0x10000A770, symSize: 0x20 }
  - { offset: 0x13860, size: 0x8, addend: 0x0, symName: __RNCINvMsm_NtNtNtCslJiobkLta79_5alloc11collections5btree8navigateINtNtBa_4node6HandleINtB13_7NodeRefNtNtB13_6marker5DyingNtNtBe_6string6StringINtNtBe_3vec3VecNtCs3MTn1ylDH3J_18build_script_build11LoadedEntryENtB1B_4LeafENtB1B_4EdgeE27deallocating_next_uncheckedNtNtBe_5alloc6GlobalE0B2x_, symObjAddr: 0x20B0, symBinAddr: 0x100008920, symSize: 0x60 }
  - { offset: 0x138DC, size: 0x8, addend: 0x0, symName: __RNCNvMsk_NtNtNtCslJiobkLta79_5alloc11collections5btree8navigateINtNtB9_4node6HandleINtB12_7NodeRefNtNtB12_6marker5ImmutNtNtBd_6string6StringINtNtBd_3vec3VecNtCs3MTn1ylDH3J_18build_script_build11LoadedEntryENtB1A_4LeafENtB1A_4EdgeE14next_unchecked0B2w_, symObjAddr: 0x2110, symBinAddr: 0x100008980, symSize: 0x140 }
  - { offset: 0x14984, size: 0x8, addend: 0x0, symName: __RNvXNtNtNtCslJiobkLta79_5alloc11collections5btree3mapINtB2_8BTreeMapNtNtB8_6string6StringINtNtB8_3vec3VecNtCs3MTn1ylDH3J_18build_script_build11LoadedEntryEENtNtNtCsieiGu2EXtoJ_4core3ops4drop4Drop4dropB1H_, symObjAddr: 0x3990, symBinAddr: 0x10000A200, symSize: 0x40 }
  - { offset: 0x14A12, size: 0x8, addend: 0x0, symName: __RNvXNvXsw_NtNtNtCslJiobkLta79_5alloc11collections5btree3mapINtB8_8IntoIterpppENtNtNtCsieiGu2EXtoJ_4core3ops4drop4Drop4dropINtB2_9DropGuardNtNtBe_6string6StringINtNtBe_3vec3VecNtCs3MTn1ylDH3J_18build_script_build11LoadedEntryENtNtBe_5alloc6GlobalEB1e_4dropB2P_, symObjAddr: 0x39D0, symBinAddr: 0x10000A240, symSize: 0x70 }
  - { offset: 0x14AA7, size: 0x8, addend: 0x0, symName: __RNvXsw_NtNtNtCslJiobkLta79_5alloc11collections5btree3mapINtB5_8IntoIterNtNtBb_6string6StringINtNtBb_3vec3VecNtCs3MTn1ylDH3J_18build_script_build11LoadedEntryEENtNtNtCsieiGu2EXtoJ_4core3ops4drop4Drop4dropB1K_, symObjAddr: 0x4610, symBinAddr: 0x10000AE80, symSize: 0xA0 }
  - { offset: 0x14B2B, size: 0x8, addend: 0x0, symName: __RNvXsI_NtNtNtCslJiobkLta79_5alloc11collections5btree3mapINtB5_6ValuesNtNtBb_6string6StringINtNtBb_3vec3VecNtCs3MTn1ylDH3J_18build_script_build11LoadedEntryEENtNtNtNtCsieiGu2EXtoJ_4core4iter6traits8iterator8Iterator4nextB1I_, symObjAddr: 0x3E60, symBinAddr: 0x10000A6D0, symSize: 0x60 }
  - { offset: 0x14BB7, size: 0x8, addend: 0x0, symName: __RNvXsj_NtNtNtCslJiobkLta79_5alloc11collections5btree3mapRINtB5_8BTreeMapNtNtBb_6string6StringINtNtBb_3vec3VecNtCs3MTn1ylDH3J_18build_script_build11LoadedEntryEENtNtNtNtCsieiGu2EXtoJ_4core4iter6traits7collect12IntoIterator9into_iterB1L_, symObjAddr: 0x3F20, symBinAddr: 0x10000A790, symSize: 0x1C0 }
  - { offset: 0x14CBF, size: 0x8, addend: 0x0, symName: __RNvXsk_NtNtNtCslJiobkLta79_5alloc11collections5btree3mapINtB5_4IterNtNtBb_6string6StringINtNtBb_3vec3VecNtCs3MTn1ylDH3J_18build_script_build11LoadedEntryEENtNtNtNtCsieiGu2EXtoJ_4core4iter6traits8iterator8Iterator4nextB1G_, symObjAddr: 0x40E0, symBinAddr: 0x10000A950, symSize: 0xA0 }
  - { offset: 0x14D4D, size: 0x8, addend: 0x0, symName: __RNvXsv_NtNtNtCslJiobkLta79_5alloc11collections5btree3mapINtB5_8BTreeMapNtNtBb_6string6StringINtNtBb_3vec3VecNtCs3MTn1ylDH3J_18build_script_build11LoadedEntryEENtNtNtNtCsieiGu2EXtoJ_4core4iter6traits7collect12IntoIterator9into_iterB1K_, symObjAddr: 0x4370, symBinAddr: 0x10000ABE0, symSize: 0x2A0 }
  - { offset: 0x14F5A, size: 0x8, addend: 0x0, symName: __RINvMNtNtCsieiGu2EXtoJ_4core3fmt2rtNtB3_8Argument11new_displayNtNtCslJiobkLta79_5alloc6string6StringECs3MTn1ylDH3J_18build_script_build, symObjAddr: 0x1A40, symBinAddr: 0x1000082B0, symSize: 0x30 }
  - { offset: 0x14F92, size: 0x8, addend: 0x0, symName: __RINvMNtNtCsieiGu2EXtoJ_4core3fmt2rtNtB3_8Argument11new_displayRNtNtCslJiobkLta79_5alloc6string6StringECs3MTn1ylDH3J_18build_script_build, symObjAddr: 0x1A70, symBinAddr: 0x1000082E0, symSize: 0x30 }
  - { offset: 0x15180, size: 0x8, addend: 0x0, symName: __RINvMNtNtNtNtCsHUR1vrdMJt_3std2io8buffered9bufreader6bufferNtB3_6Buffer8fill_bufQNtNtBb_2fs4FileECs3MTn1ylDH3J_18build_script_build, symObjAddr: 0x1AA0, symBinAddr: 0x100008310, symSize: 0x240 }
  - { offset: 0x1546D, size: 0x8, addend: 0x0, symName: __RINvMs_NtNtCsieiGu2EXtoJ_4core3fmt2rtNtB7_9Arguments6new_v1Kj2_Kj1_ECs3MTn1ylDH3J_18build_script_build, symObjAddr: 0x1CE0, symBinAddr: 0x100008550, symSize: 0x40 }
  - { offset: 0x154D1, size: 0x8, addend: 0x0, symName: __RINvMs_NtNtCsieiGu2EXtoJ_4core3fmt2rtNtB7_9Arguments6new_v1Kj3_Kj2_ECs3MTn1ylDH3J_18build_script_build, symObjAddr: 0x1D20, symBinAddr: 0x100008590, symSize: 0x40 }
  - { offset: 0x15535, size: 0x8, addend: 0x0, symName: __RINvMs_NtNtCsieiGu2EXtoJ_4core3fmt2rtNtB7_9Arguments6new_v1Kj4_Kj3_ECs3MTn1ylDH3J_18build_script_build, symObjAddr: 0x1D60, symBinAddr: 0x1000085D0, symSize: 0x40 }
  - { offset: 0x1557F, size: 0x8, addend: 0x0, symName: __RINvMs_NtNtCsieiGu2EXtoJ_4core3fmt2rtNtB7_9Arguments9new_constKj1_ECs3MTn1ylDH3J_18build_script_build, symObjAddr: 0x1DA0, symBinAddr: 0x100008610, symSize: 0x40 }
  - { offset: 0x1562B, size: 0x8, addend: 0x0, symName: __RINvMsb_NtNtNtCslJiobkLta79_5alloc11collections5btree8navigateINtB6_13LazyLeafRangeNtNtNtB8_4node6marker5DyingNtNtBc_6string6StringINtNtBc_3vec3VecNtCs3MTn1ylDH3J_18build_script_build11LoadedEntryEE16deallocating_endNtNtBc_5alloc6GlobalEB2n_, symObjAddr: 0x1DE0, symBinAddr: 0x100008650, symSize: 0x90 }
  - { offset: 0x15728, size: 0x8, addend: 0x0, symName: __RINvMsb_NtNtNtCslJiobkLta79_5alloc11collections5btree8navigateINtB6_13LazyLeafRangeNtNtNtB8_4node6marker5DyingNtNtBc_6string6StringINtNtBc_3vec3VecNtCs3MTn1ylDH3J_18build_script_build11LoadedEntryEE27deallocating_next_uncheckedNtNtBc_5alloc6GlobalEB2n_, symObjAddr: 0x1E70, symBinAddr: 0x1000086E0, symSize: 0xB0 }
  - { offset: 0x158F7, size: 0x8, addend: 0x0, symName: __RNvMNtCsieiGu2EXtoJ_4core6optionINtB2_6OptionReE6expectCs3MTn1ylDH3J_18build_script_build, symObjAddr: 0x2590, symBinAddr: 0x100008E00, symSize: 0x70 }
  - { offset: 0x15932, size: 0x8, addend: 0x0, symName: __RNvMNtCsieiGu2EXtoJ_4core6resultINtB2_6ResulthNtNtNtB4_3num5error15TryFromIntErrorE6expectCs3MTn1ylDH3J_18build_script_build, symObjAddr: 0x2600, symBinAddr: 0x100008E70, symSize: 0x80 }
  - { offset: 0x15ADF, size: 0x8, addend: 0x0, symName: __RNvMs1s_NtNtNtCslJiobkLta79_5alloc11collections5btree3mapINtB6_8BTreeMapNtNtBc_6string6StringINtNtBc_3vec3VecNtCs3MTn1ylDH3J_18build_script_build11LoadedEntryEE6valuesB1L_, symObjAddr: 0x2680, symBinAddr: 0x100008EF0, symSize: 0x1D0 }
  - { offset: 0x15D6C, size: 0x8, addend: 0x0, symName: __RNvMsb_NtNtNtCslJiobkLta79_5alloc11collections5btree8navigateINtB5_13LazyLeafRangeNtNtNtB7_4node6marker5DyingNtNtBb_6string6StringINtNtBb_3vec3VecNtCs3MTn1ylDH3J_18build_script_build11LoadedEntryEE10take_frontB2m_, symObjAddr: 0x2850, symBinAddr: 0x1000090C0, symSize: 0x2E0 }
  - { offset: 0x160CB, size: 0x8, addend: 0x0, symName: __RNvMsc_NtNtNtCslJiobkLta79_5alloc11collections5btree8navigateINtB5_13LazyLeafRangeNtNtNtB7_4node6marker5DyingNtNtBb_6string6StringINtNtBb_3vec3VecNtCs3MTn1ylDH3J_18build_script_build11LoadedEntryEE10init_frontB2m_, symObjAddr: 0x2B30, symBinAddr: 0x1000093A0, symSize: 0x280 }
  - { offset: 0x163EF, size: 0x8, addend: 0x0, symName: __RNvMsc_NtNtNtCslJiobkLta79_5alloc11collections5btree8navigateINtB5_13LazyLeafRangeNtNtNtB7_4node6marker5ImmutNtNtBb_6string6StringINtNtBb_3vec3VecNtCs3MTn1ylDH3J_18build_script_build11LoadedEntryEE10init_frontB2m_, symObjAddr: 0x2DB0, symBinAddr: 0x100009620, symSize: 0x280 }
  - { offset: 0x1657F, size: 0x8, addend: 0x0, symName: __RNvMsg_NtNtNtCslJiobkLta79_5alloc11collections5btree3mapINtB5_8BTreeMapNtNtBb_6string6StringINtNtBb_3vec3VecNtCs3MTn1ylDH3J_18build_script_build11LoadedEntryEE3newB1K_, symObjAddr: 0x3030, symBinAddr: 0x1000098A0, symSize: 0x30 }
  - { offset: 0x16689, size: 0x8, addend: 0x0, symName: __RNvMsi_NtNtNtCslJiobkLta79_5alloc11collections5btree3mapINtB5_8BTreeMapNtNtBb_6string6StringINtNtBb_3vec3VecNtCs3MTn1ylDH3J_18build_script_build11LoadedEntryEE5entryB1K_, symObjAddr: 0x3060, symBinAddr: 0x1000098D0, symSize: 0x3A0 }
  - { offset: 0x16794, size: 0x8, addend: 0x0, symName: __RNvMsx_NtNtNtCslJiobkLta79_5alloc11collections5btree3mapINtB5_8IntoIterNtNtBb_6string6StringINtNtBb_3vec3VecNtCs3MTn1ylDH3J_18build_script_build11LoadedEntryEE10dying_nextB1K_, symObjAddr: 0x3400, symBinAddr: 0x100009C70, symSize: 0x90 }
  - { offset: 0x16FC7, size: 0x8, addend: 0x0, symName: __RINvMNtCsieiGu2EXtoJ_4core3stre11starts_withcECs3MTn1ylDH3J_18build_script_build, symObjAddr: 0x0, symBinAddr: 0x10000AF40, symSize: 0x30 }
  - { offset: 0x16FFE, size: 0x8, addend: 0x0, symName: __RNCINvNtCsHUR1vrdMJt_3std2rt10lang_startINtNtCsieiGu2EXtoJ_4core6result6ResultuNtNtNtB6_2io5error5ErrorEE0Cs3MTn1ylDH3J_18build_script_build, symObjAddr: 0x6C0, symBinAddr: 0x10000B5E0, symSize: 0x30 }
  - { offset: 0x17068, size: 0x8, addend: 0x0, symName: __RINvNtCsHUR1vrdMJt_3std2rt10lang_startINtNtCsieiGu2EXtoJ_4core6result6ResultuNtNtNtB4_2io5error5ErrorEECs3MTn1ylDH3J_18build_script_build, symObjAddr: 0x3E0, symBinAddr: 0x10000B320, symSize: 0x40 }
  - { offset: 0x17443, size: 0x8, addend: 0x0, symName: __RNvYNtNtNtNtCsHUR1vrdMJt_3std3sys5stdio4unix6StderrNtNtBa_2io5Write9write_allCs3MTn1ylDH3J_18build_script_build, symObjAddr: 0x3310, symBinAddr: 0x10000E220, symSize: 0x2E0 }
  - { offset: 0x175E9, size: 0x8, addend: 0x0, symName: __RNvYNtNtNtNtCsHUR1vrdMJt_3std3sys5stdio4unix6StderrNtNtBa_2io5Write9write_fmtCs3MTn1ylDH3J_18build_script_build, symObjAddr: 0x35F0, symBinAddr: 0x10000E500, symSize: 0x170 }
  - { offset: 0x1771C, size: 0x8, addend: 0x0, symName: __RNvXs1l_NtCsHUR1vrdMJt_3std4pathNtB6_4PathINtNtCsieiGu2EXtoJ_4core7convert5AsRefBu_E6as_refCs3MTn1ylDH3J_18build_script_build, symObjAddr: 0x27A0, symBinAddr: 0x10000D6B0, symSize: 0x20 }
  - { offset: 0x17750, size: 0x8, addend: 0x0, symName: __RNvXs1p_NtCsHUR1vrdMJt_3std4patheINtNtCsieiGu2EXtoJ_4core7convert5AsRefNtB6_4PathE6as_refCs3MTn1ylDH3J_18build_script_build, symObjAddr: 0x27C0, symBinAddr: 0x10000D6D0, symSize: 0x20 }
  - { offset: 0x177A8, size: 0x8, addend: 0x0, symName: __RNvXs1r_NtCsHUR1vrdMJt_3std4pathNtB6_7PathBufINtNtCsieiGu2EXtoJ_4core7convert5AsRefNtB6_4PathE6as_refCs3MTn1ylDH3J_18build_script_build, symObjAddr: 0x27E0, symBinAddr: 0x10000D6F0, symSize: 0x30 }
  - { offset: 0x18BD0, size: 0x8, addend: 0x0, symName: __RNvNvNtCsieiGu2EXtoJ_4core3ptr19copy_nonoverlapping18precondition_checkCs3MTn1ylDH3J_18build_script_build, symObjAddr: 0x1810, symBinAddr: 0x10000C720, symSize: 0x4B0 }
  - { offset: 0x18EE1, size: 0x8, addend: 0x0, symName: __RNvNvNtCsieiGu2EXtoJ_4core3ptr4copy18precondition_checkCs3MTn1ylDH3J_18build_script_build, symObjAddr: 0x1CC0, symBinAddr: 0x10000CBD0, symSize: 0x330 }
  - { offset: 0x1940C, size: 0x8, addend: 0x0, symName: __RINvMNtCsieiGu2EXtoJ_4core3stre11starts_withcECs3MTn1ylDH3J_18build_script_build, symObjAddr: 0x0, symBinAddr: 0x10000AF40, symSize: 0x30 }
  - { offset: 0x19485, size: 0x8, addend: 0x0, symName: __RINvMNtCsieiGu2EXtoJ_4core3stre6splitncECs3MTn1ylDH3J_18build_script_build, symObjAddr: 0x30, symBinAddr: 0x10000AF70, symSize: 0xF0 }
  - { offset: 0x19690, size: 0x8, addend: 0x0, symName: __RNCNvMsp_NtNtCsieiGu2EXtoJ_4core3str4iterINtB7_20MatchIndicesInternalcE4next0Cs3MTn1ylDH3J_18build_script_build, symObjAddr: 0x8C0, symBinAddr: 0x10000B7E0, symSize: 0xD0 }
  - { offset: 0x19826, size: 0x8, addend: 0x0, symName: __RNvXs1i_NtNtCsieiGu2EXtoJ_4core3str4iterINtB6_6SplitNcENtNtNtNtBa_4iter6traits8iterator8Iterator4nextCs3MTn1ylDH3J_18build_script_build, symObjAddr: 0x2780, symBinAddr: 0x10000D690, symSize: 0x20 }
  - { offset: 0x1991E, size: 0x8, addend: 0x0, symName: __RNvXs2_NtNtCsieiGu2EXtoJ_4core3str7patterncNtB5_7Pattern12is_prefix_ofCs3MTn1ylDH3J_18build_script_build, symObjAddr: 0x2810, symBinAddr: 0x10000D720, symSize: 0x80 }
  - { offset: 0x199C7, size: 0x8, addend: 0x0, symName: __RNvXs2_NtNtCsieiGu2EXtoJ_4core3str7patterncNtB5_7Pattern13into_searcherCs3MTn1ylDH3J_18build_script_build, symObjAddr: 0x2890, symBinAddr: 0x10000D7A0, symSize: 0x120 }
  - { offset: 0x19AE2, size: 0x8, addend: 0x0, symName: __RNvXs2_NtNtCsieiGu2EXtoJ_4core3str7patterncNtB5_7Pattern15as_utf8_patternCs3MTn1ylDH3J_18build_script_build, symObjAddr: 0x29B0, symBinAddr: 0x10000D8C0, symSize: 0x40 }
  - { offset: 0x19B16, size: 0x8, addend: 0x0, symName: __RNvXs_NtNtCsieiGu2EXtoJ_4core3str7patternNtB4_12CharSearcherNtB4_8Searcher10next_matchCs3MTn1ylDH3J_18build_script_build, symObjAddr: 0x2D80, symBinAddr: 0x10000DC90, symSize: 0x4A0 }
  - { offset: 0x1A0BB, size: 0x8, addend: 0x0, symName: __RNvXs_NtNtCsieiGu2EXtoJ_4core3str7patternNtB4_12CharSearcherNtB4_8Searcher8haystackCs3MTn1ylDH3J_18build_script_build, symObjAddr: 0x3220, symBinAddr: 0x10000E130, symSize: 0x20 }
  - { offset: 0x1B207, size: 0x8, addend: 0x0, symName: __RNvNvMNtNtCsieiGu2EXtoJ_4core5alloc6layoutNtB4_6Layout25from_size_align_unchecked18precondition_checkCs3MTn1ylDH3J_18build_script_build, symObjAddr: 0x1760, symBinAddr: 0x10000C670, symSize: 0xB0 }
  - { offset: 0x1B4AC, size: 0x8, addend: 0x0, symName: __RNvNvNtCsieiGu2EXtoJ_4core4hint16assert_unchecked18precondition_checkCs3MTn1ylDH3J_18build_script_build, symObjAddr: 0x1FF0, symBinAddr: 0x10000CF00, symSize: 0xA0 }
  - { offset: 0x1B50C, size: 0x8, addend: 0x0, symName: __RNvNvNtCsieiGu2EXtoJ_4core4hint21unreachable_unchecked18precondition_checkCs3MTn1ylDH3J_18build_script_build, symObjAddr: 0x2090, symBinAddr: 0x10000CFA0, symSize: 0x80 }
  - { offset: 0x1B576, size: 0x8, addend: 0x0, symName: __RNvXNtCsieiGu2EXtoJ_4core7convertRNtNtCsHUR1vrdMJt_3std4path4PathINtB2_5AsRefBw_E6as_refCs3MTn1ylDH3J_18build_script_build, symObjAddr: 0x2690, symBinAddr: 0x10000D5A0, symSize: 0x30 }
  - { offset: 0x1B5B6, size: 0x8, addend: 0x0, symName: __RNvXNtCsieiGu2EXtoJ_4core7convertRNtNtCsHUR1vrdMJt_3std4path7PathBufINtB2_5AsRefNtBy_4PathE6as_refCs3MTn1ylDH3J_18build_script_build, symObjAddr: 0x26C0, symBinAddr: 0x10000D5D0, symSize: 0x20 }
  - { offset: 0x1B5F6, size: 0x8, addend: 0x0, symName: __RNvXNtCsieiGu2EXtoJ_4core7convertReINtB2_5AsRefNtNtCsHUR1vrdMJt_3std4path4PathE6as_refCs3MTn1ylDH3J_18build_script_build, symObjAddr: 0x26E0, symBinAddr: 0x10000D5F0, symSize: 0x30 }
  - { offset: 0x1B636, size: 0x8, addend: 0x0, symName: __RNvXNtCsieiGu2EXtoJ_4core7convertReINtB2_5AsRefNtNtNtCsHUR1vrdMJt_3std3ffi6os_str5OsStrE6as_refCs3MTn1ylDH3J_18build_script_build, symObjAddr: 0x2710, symBinAddr: 0x10000D620, symSize: 0x30 }
  - { offset: 0x1B8C5, size: 0x8, addend: 0x0, symName: __RNvNvNtCsieiGu2EXtoJ_4core9ub_checks23maybe_is_nonoverlapping7runtimeCs3MTn1ylDH3J_18build_script_build, symObjAddr: 0x2110, symBinAddr: 0x10000D020, symSize: 0xC0 }
  - { offset: 0x1BBA0, size: 0x8, addend: 0x0, symName: __RNvNvNtNtCsieiGu2EXtoJ_4core5slice3raw14from_raw_parts18precondition_checkCs3MTn1ylDH3J_18build_script_build, symObjAddr: 0x21D0, symBinAddr: 0x10000D0E0, symSize: 0x260 }
  - { offset: 0x1BD6E, size: 0x8, addend: 0x0, symName: __RNvNvNtNtCsieiGu2EXtoJ_4core5slice3raw18from_raw_parts_mut18precondition_checkCs3MTn1ylDH3J_18build_script_build, symObjAddr: 0x2430, symBinAddr: 0x10000D340, symSize: 0x260 }
  - { offset: 0x1C21F, size: 0x8, addend: 0x0, symName: __RNvXsd_NtNtCsieiGu2EXtoJ_4core5slice3cmphNtB5_8SliceOrd7compareCs3MTn1ylDH3J_18build_script_build, symObjAddr: 0x3240, symBinAddr: 0x10000E150, symSize: 0xD0 }
  - { offset: 0x1C7C2, size: 0x8, addend: 0x0, symName: __RNvXs1_NtCslJiobkLta79_5alloc7raw_vecINtB5_6RawVecNtCs3MTn1ylDH3J_18build_script_build11LoadedEntryENtNtNtCsieiGu2EXtoJ_4core3ops4drop4Drop4dropBO_, symObjAddr: 0x2750, symBinAddr: 0x10000D660, symSize: 0x30 }
  - { offset: 0x1CA45, size: 0x8, addend: 0x0, symName: __RNCNvMs6_NtNtNtNtCslJiobkLta79_5alloc11collections5btree3map5entryINtB7_11VacantEntryNtNtBf_6string6StringINtNtBf_3vec3VecNtCs3MTn1ylDH3J_18build_script_build11LoadedEntryEE12insert_entry0B1Y_, symObjAddr: 0x710, symBinAddr: 0x10000B630, symSize: 0x1B0 }
  - { offset: 0x1D354, size: 0x8, addend: 0x0, symName: __RINvNtNtNtCslJiobkLta79_5alloc11collections5btree3mem7replaceINtNtB4_4node6HandleINtB10_7NodeRefNtNtB10_6marker5DyingNtNtB8_6string6StringINtNtB8_3vec3VecNtCs3MTn1ylDH3J_18build_script_build11LoadedEntryENtB1y_4LeafENtB1y_4EdgeEIBY_IB1i_B1w_B1R_B2c_NtB1y_14LeafOrInternalENtB1y_2KVENCINvMsm_NtB4_8navigateBX_27deallocating_next_uncheckedNtNtB8_5alloc6GlobalE0EB2u_, symObjAddr: 0x440, symBinAddr: 0x10000B360, symSize: 0x110 }
  - { offset: 0x1D446, size: 0x8, addend: 0x0, symName: __RINvNtNtNtCslJiobkLta79_5alloc11collections5btree3mem7replaceINtNtB4_4node6HandleINtB10_7NodeRefNtNtB10_6marker5ImmutNtNtB8_6string6StringINtNtB8_3vec3VecNtCs3MTn1ylDH3J_18build_script_build11LoadedEntryENtB1y_4LeafENtB1y_4EdgeETRB1R_RB2c_ENCNvMsk_NtB4_8navigateBX_14next_unchecked0EB2u_, symObjAddr: 0x550, symBinAddr: 0x10000B470, symSize: 0xF0 }
  - { offset: 0x1D536, size: 0x8, addend: 0x0, symName: __RINvNtNtNtCslJiobkLta79_5alloc11collections5btree3mem7replaceINtNtB4_4node7NodeRefNtNtB10_6marker5OwnedNtNtB8_6string6StringINtNtB8_3vec3VecNtCs3MTn1ylDH3J_18build_script_build11LoadedEntryENtB1k_14LeafOrInternalEuNCINvB2_8take_mutBX_NCINvMss_B10_BX_19push_internal_levelNtNtB8_5alloc6GlobalE0E0EB2g_, symObjAddr: 0x640, symBinAddr: 0x10000B560, symSize: 0x80 }
  - { offset: 0x1D625, size: 0x8, addend: 0x0, symName: __RNCINvNtNtNtCslJiobkLta79_5alloc11collections5btree3mem8take_mutINtNtB6_4node7NodeRefNtNtB13_6marker5OwnedNtNtBa_6string6StringINtNtBa_3vec3VecNtCs3MTn1ylDH3J_18build_script_build11LoadedEntryENtB1n_14LeafOrInternalENCINvMss_B13_B10_19push_internal_levelNtNtBa_5alloc6GlobalE0E0B2j_, symObjAddr: 0x6F0, symBinAddr: 0x10000B610, symSize: 0x20 }
  - { offset: 0x1D6C5, size: 0x8, addend: 0x0, symName: __RNvXNvNtNtNtCslJiobkLta79_5alloc11collections5btree3mem7replaceNtB2_10PanicGuardNtNtNtCsieiGu2EXtoJ_4core3ops4drop4Drop4dropCs3MTn1ylDH3J_18build_script_build, symObjAddr: 0x2740, symBinAddr: 0x10000D650, symSize: 0x10 }
  - { offset: 0x1D7C6, size: 0x8, addend: 0x0, symName: __RNvMs0_NtCslJiobkLta79_5alloc5boxedINtB5_3BoxShE16new_uninit_sliceCs3MTn1ylDH3J_18build_script_build, symObjAddr: 0x990, symBinAddr: 0x10000B8B0, symSize: 0x80 }
  - { offset: 0x1D91A, size: 0x8, addend: 0x0, symName: __RNvMs_NtCslJiobkLta79_5alloc5boxedINtB4_3BoxINtNtNtNtB6_11collections5btree4node12InternalNodeNtNtB6_6string6StringINtNtB6_3vec3VecNtCs3MTn1ylDH3J_18build_script_build11LoadedEntryEEE13new_uninit_inB27_, symObjAddr: 0x10B0, symBinAddr: 0x10000BFD0, symSize: 0x80 }
  - { offset: 0x1DA12, size: 0x8, addend: 0x0, symName: __RNvMs_NtCslJiobkLta79_5alloc5boxedINtB4_3BoxINtNtNtNtB6_11collections5btree4node12InternalNodeNtNtB6_6string6StringINtNtB6_3vec3VecNtCs3MTn1ylDH3J_18build_script_build11LoadedEntryEEE17try_new_uninit_inB27_, symObjAddr: 0x1130, symBinAddr: 0x10000C050, symSize: 0x140 }
  - { offset: 0x1DC50, size: 0x8, addend: 0x0, symName: __RNvMs_NtCslJiobkLta79_5alloc5boxedINtB4_3BoxINtNtNtNtB6_11collections5btree4node8LeafNodeNtNtB6_6string6StringINtNtB6_3vec3VecNtCs3MTn1ylDH3J_18build_script_build11LoadedEntryEEE13new_uninit_inB22_, symObjAddr: 0x1270, symBinAddr: 0x10000C190, symSize: 0x80 }
  - { offset: 0x1DD48, size: 0x8, addend: 0x0, symName: __RNvMs_NtCslJiobkLta79_5alloc5boxedINtB4_3BoxINtNtNtNtB6_11collections5btree4node8LeafNodeNtNtB6_6string6StringINtNtB6_3vec3VecNtCs3MTn1ylDH3J_18build_script_build11LoadedEntryEEE17try_new_uninit_inB22_, symObjAddr: 0x12F0, symBinAddr: 0x10000C210, symSize: 0x140 }
  - { offset: 0x1DF8C, size: 0x8, addend: 0x0, symName: __RNvXs6_NtCslJiobkLta79_5alloc5boxedINtB5_3BoxDNtNtCsieiGu2EXtoJ_4core5error5ErrorNtNtBM_6marker4SyncNtB1j_4SendEL_ENtNtNtBM_3ops4drop4Drop4dropCs3MTn1ylDH3J_18build_script_build, symObjAddr: 0x29F0, symBinAddr: 0x10000D900, symSize: 0xC0 }
  - { offset: 0x1E0C9, size: 0x8, addend: 0x0, symName: __RNvXs6_NtCslJiobkLta79_5alloc5boxedINtB5_3BoxINtNtNtNtB7_11collections5btree4node12InternalNodeNtNtB7_6string6StringINtNtB7_3vec3VecNtCs3MTn1ylDH3J_18build_script_build11LoadedEntryEEENtNtNtCsieiGu2EXtoJ_4core3ops4drop4Drop4dropB28_, symObjAddr: 0x2AB0, symBinAddr: 0x10000D9C0, symSize: 0xB0 }
  - { offset: 0x1E204, size: 0x8, addend: 0x0, symName: __RNvXs6_NtCslJiobkLta79_5alloc5boxedINtB5_3BoxINtNtNtNtB7_11collections5btree4node8LeafNodeNtNtB7_6string6StringINtNtB7_3vec3VecNtCs3MTn1ylDH3J_18build_script_build11LoadedEntryEEENtNtNtCsieiGu2EXtoJ_4core3ops4drop4Drop4dropB23_, symObjAddr: 0x2B60, symBinAddr: 0x10000DA70, symSize: 0xB0 }
  - { offset: 0x1E33F, size: 0x8, addend: 0x0, symName: __RNvXs6_NtCslJiobkLta79_5alloc5boxedINtB5_3BoxNtNtNtCsHUR1vrdMJt_3std2io5error6CustomENtNtNtCsieiGu2EXtoJ_4core3ops4drop4Drop4dropCs3MTn1ylDH3J_18build_script_build, symObjAddr: 0x2C10, symBinAddr: 0x10000DB20, symSize: 0xB0 }
  - { offset: 0x1E47A, size: 0x8, addend: 0x0, symName: __RNvXs6_NtCslJiobkLta79_5alloc5boxedINtB5_3BoxSINtNtNtCsieiGu2EXtoJ_4core3mem12maybe_uninit11MaybeUninithEENtNtNtBP_3ops4drop4Drop4dropCs3MTn1ylDH3J_18build_script_build, symObjAddr: 0x2CC0, symBinAddr: 0x10000DBD0, symSize: 0xC0 }
  - { offset: 0x1E5FB, size: 0x8, addend: 0x0, symName: __RINvMs16_NtCsHUR1vrdMJt_3std4pathNtB7_4Path3newNtNtNtB9_3ffi6os_str8OsStringECs3MTn1ylDH3J_18build_script_build, symObjAddr: 0x120, symBinAddr: 0x10000B060, symSize: 0x20 }
  - { offset: 0x1E627, size: 0x8, addend: 0x0, symName: __RINvMs16_NtCsHUR1vrdMJt_3std4pathNtB7_4Path4joinReECs3MTn1ylDH3J_18build_script_build, symObjAddr: 0x140, symBinAddr: 0x10000B080, symSize: 0x80 }
  - { offset: 0x1E7FB, size: 0x8, addend: 0x0, symName: __RINvMs4_NtNtNtNtCslJiobkLta79_5alloc11collections5btree3map5entryINtB6_5EntryNtNtBe_6string6StringINtNtBe_3vec3VecNtCs3MTn1ylDH3J_18build_script_build11LoadedEntryEE14or_insert_withNvMB1B_B1y_3newEB1Q_, symObjAddr: 0x1C0, symBinAddr: 0x10000B100, symSize: 0x220 }
  - { offset: 0x1EB30, size: 0x8, addend: 0x0, symName: __RNvMs0_NtCslJiobkLta79_5alloc7raw_vecINtB5_6RawVecNtCs3MTn1ylDH3J_18build_script_build11LoadedEntryE8grow_oneBO_, symObjAddr: 0xA10, symBinAddr: 0x10000B930, symSize: 0x90 }
  - { offset: 0x1EDFD, size: 0x8, addend: 0x0, symName: __RNvMs0_NtCslJiobkLta79_5alloc7raw_vecINtB5_6RawVechE8into_boxCs3MTn1ylDH3J_18build_script_build, symObjAddr: 0xAA0, symBinAddr: 0x10000B9C0, symSize: 0x90 }
  - { offset: 0x1F052, size: 0x8, addend: 0x0, symName: __RNvMs2_NtCslJiobkLta79_5alloc7raw_vecNtB5_11RawVecInner16with_capacity_inCs3MTn1ylDH3J_18build_script_build, symObjAddr: 0xB30, symBinAddr: 0x10000BA50, symSize: 0x150 }
  - { offset: 0x1F3CC, size: 0x8, addend: 0x0, symName: __RNvMs6_NtNtNtNtCslJiobkLta79_5alloc11collections5btree3map5entryINtB5_11VacantEntryNtNtBd_6string6StringINtNtBd_3vec3VecNtCs3MTn1ylDH3J_18build_script_build11LoadedEntryEE12insert_entryB1W_, symObjAddr: 0xC80, symBinAddr: 0x10000BBA0, symSize: 0x3E0 }
  - { offset: 0x1F677, size: 0x8, addend: 0x0, symName: __RNvMs7_NtNtNtNtCslJiobkLta79_5alloc11collections5btree3map5entryINtB5_13OccupiedEntryNtNtBd_6string6StringINtNtBd_3vec3VecNtCs3MTn1ylDH3J_18build_script_build11LoadedEntryEE8into_mutB1Y_, symObjAddr: 0x1060, symBinAddr: 0x10000BF80, symSize: 0x50 }
  - { offset: 0x1F939, size: 0x8, addend: 0x0, symName: __RNvMsf_NtNtCsieiGu2EXtoJ_4core3str4iterINtB5_13SplitInternalcE4nextCs3MTn1ylDH3J_18build_script_build, symObjAddr: 0x1430, symBinAddr: 0x10000C350, symSize: 0x180 }
  - { offset: 0x1FA7D, size: 0x8, addend: 0x0, symName: __RNvMsf_NtNtCsieiGu2EXtoJ_4core3str4iterINtB5_13SplitInternalcE7get_endCs3MTn1ylDH3J_18build_script_build, symObjAddr: 0x15B0, symBinAddr: 0x10000C4D0, symSize: 0x110 }
  - { offset: 0x1FB90, size: 0x8, addend: 0x0, symName: __RNvMsl_NtNtCsieiGu2EXtoJ_4core3str4iterINtB5_14SplitNInternalcE4nextCs3MTn1ylDH3J_18build_script_build, symObjAddr: 0x16C0, symBinAddr: 0x10000C5E0, symSize: 0x90 }
  - { offset: 0x2030C, size: 0x8, addend: 0x0, symName: __RINvMsi_NtCslJiobkLta79_5alloc3vecINtB6_3VechE14extend_trustedINtNtNtNtCsieiGu2EXtoJ_4core4iter8adapters3map3MapINtNtNtB17_5slice4iter4IterhENCNvNtB8_3str13replace_ascii0EECs3MTn1ylDH3J_18build_script_build, symObjAddr: 0x0, symBinAddr: 0x10000E670, symSize: 0x1C0 }
  - { offset: 0x204FE, size: 0x8, addend: 0x0, symName: __RNvNvMs1_NtNtCsieiGu2EXtoJ_4core3ptr8non_nullINtB7_7NonNullpE13new_unchecked18precondition_checkCs3MTn1ylDH3J_18build_script_build, symObjAddr: 0x2110, symBinAddr: 0x100010740, symSize: 0x90 }
  - { offset: 0x20673, size: 0x8, addend: 0x0, symName: __RINvNtCsieiGu2EXtoJ_4core3ptr13drop_in_placeINtNtB4_6result6ResultRShNtNtNtCsHUR1vrdMJt_3std2io5error5ErrorEECs3MTn1ylDH3J_18build_script_build, symObjAddr: 0x260, symBinAddr: 0x10000E890, symSize: 0x40 }
  - { offset: 0x206A2, size: 0x8, addend: 0x0, symName: __RINvNtCsieiGu2EXtoJ_4core3ptr13drop_in_placeINtNtB4_6result6ResultjNtNtNtCsHUR1vrdMJt_3std2io5error5ErrorEECs3MTn1ylDH3J_18build_script_build, symObjAddr: 0x2A0, symBinAddr: 0x10000E8D0, symSize: 0x30 }
  - { offset: 0x206D1, size: 0x8, addend: 0x0, symName: __RINvNtCsieiGu2EXtoJ_4core3ptr13drop_in_placeINtNtB4_6result6ResultuNtNtNtCsHUR1vrdMJt_3std2io5error5ErrorEECs3MTn1ylDH3J_18build_script_build, symObjAddr: 0x2D0, symBinAddr: 0x10000E900, symSize: 0x40 }
  - { offset: 0x20700, size: 0x8, addend: 0x0, symName: __RINvNtCsieiGu2EXtoJ_4core3ptr13drop_in_placeINtNtCsHUR1vrdMJt_3std2io5LinesINtNtNtBJ_8buffered9bufreader9BufReaderNtNtBL_2fs4FileEEECs3MTn1ylDH3J_18build_script_build, symObjAddr: 0x310, symBinAddr: 0x10000E940, symSize: 0x20 }
  - { offset: 0x2072F, size: 0x8, addend: 0x0, symName: __RINvNtCsieiGu2EXtoJ_4core3ptr13drop_in_placeINtNtCslJiobkLta79_5alloc3vec3VecNtCs3MTn1ylDH3J_18build_script_build11LoadedEntryEEB1f_, symObjAddr: 0x330, symBinAddr: 0x10000E960, symSize: 0x50 }
  - { offset: 0x2075E, size: 0x8, addend: 0x0, symName: __RINvNtCsieiGu2EXtoJ_4core3ptr13drop_in_placeINtNtCslJiobkLta79_5alloc3vec3VechEECs3MTn1ylDH3J_18build_script_build, symObjAddr: 0x380, symBinAddr: 0x10000E9B0, symSize: 0x50 }
  - { offset: 0x2078D, size: 0x8, addend: 0x0, symName: __RINvNtCsieiGu2EXtoJ_4core3ptr13drop_in_placeINtNtCslJiobkLta79_5alloc5boxed3BoxDNtNtB4_5error5ErrorNtNtB4_6marker4SyncNtB1B_4SendEL_EECs3MTn1ylDH3J_18build_script_build, symObjAddr: 0x3D0, symBinAddr: 0x10000EA00, symSize: 0x70 }
  - { offset: 0x207BC, size: 0x8, addend: 0x0, symName: __RINvNtCsieiGu2EXtoJ_4core3ptr13drop_in_placeINtNtCslJiobkLta79_5alloc5boxed3BoxINtNtNtNtBL_11collections5btree4node12InternalNodeNtNtBL_6string6StringINtNtBL_3vec3VecNtCs3MTn1ylDH3J_18build_script_build11LoadedEntryEEEEB2G_, symObjAddr: 0x440, symBinAddr: 0x10000EA70, symSize: 0x20 }
  - { offset: 0x207EB, size: 0x8, addend: 0x0, symName: __RINvNtCsieiGu2EXtoJ_4core3ptr13drop_in_placeINtNtCslJiobkLta79_5alloc5boxed3BoxINtNtNtNtBL_11collections5btree4node8LeafNodeNtNtBL_6string6StringINtNtBL_3vec3VecNtCs3MTn1ylDH3J_18build_script_build11LoadedEntryEEEEB2B_, symObjAddr: 0x460, symBinAddr: 0x10000EA90, symSize: 0x20 }
  - { offset: 0x2081A, size: 0x8, addend: 0x0, symName: __RINvNtCsieiGu2EXtoJ_4core3ptr13drop_in_placeINtNtCslJiobkLta79_5alloc5boxed3BoxNtNtNtCsHUR1vrdMJt_3std2io5error6CustomEECs3MTn1ylDH3J_18build_script_build, symObjAddr: 0x480, symBinAddr: 0x10000EAB0, symSize: 0x50 }
  - { offset: 0x20849, size: 0x8, addend: 0x0, symName: __RINvNtCsieiGu2EXtoJ_4core3ptr13drop_in_placeINtNtCslJiobkLta79_5alloc5boxed3BoxSINtNtNtB4_3mem12maybe_uninit11MaybeUninithEEECs3MTn1ylDH3J_18build_script_build, symObjAddr: 0x4D0, symBinAddr: 0x10000EB00, symSize: 0x20 }
  - { offset: 0x20878, size: 0x8, addend: 0x0, symName: __RINvNtCsieiGu2EXtoJ_4core3ptr13drop_in_placeINtNtCslJiobkLta79_5alloc7raw_vec6RawVecNtCs3MTn1ylDH3J_18build_script_build11LoadedEntryEEB1m_, symObjAddr: 0x4F0, symBinAddr: 0x10000EB20, symSize: 0x20 }
  - { offset: 0x208A7, size: 0x8, addend: 0x0, symName: __RINvNtCsieiGu2EXtoJ_4core3ptr13drop_in_placeINtNtCslJiobkLta79_5alloc7raw_vec6RawVechEECs3MTn1ylDH3J_18build_script_build, symObjAddr: 0x510, symBinAddr: 0x10000EB40, symSize: 0x20 }
  - { offset: 0x208D6, size: 0x8, addend: 0x0, symName: __RINvNtCsieiGu2EXtoJ_4core3ptr13drop_in_placeINtNtNtCsHUR1vrdMJt_3std2io5error9ErrorDataINtNtCslJiobkLta79_5alloc5boxed3BoxNtBJ_6CustomEEECs3MTn1ylDH3J_18build_script_build, symObjAddr: 0x530, symBinAddr: 0x10000EB60, symSize: 0x30 }
  - { offset: 0x20905, size: 0x8, addend: 0x0, symName: __RINvNtCsieiGu2EXtoJ_4core3ptr13drop_in_placeINtNtNtNtCsHUR1vrdMJt_3std2io8buffered9bufreader9BufReaderNtNtBP_2fs4FileEECs3MTn1ylDH3J_18build_script_build, symObjAddr: 0x560, symBinAddr: 0x10000EB90, symSize: 0x60 }
  - { offset: 0x20934, size: 0x8, addend: 0x0, symName: __RINvNtCsieiGu2EXtoJ_4core3ptr13drop_in_placeINtNtNtNtCslJiobkLta79_5alloc11collections5btree3map8BTreeMapNtNtBP_6string6StringINtNtBP_3vec3VecNtCs3MTn1ylDH3J_18build_script_build11LoadedEntryEEEB2i_, symObjAddr: 0x5C0, symBinAddr: 0x10000EBF0, symSize: 0x20 }
  - { offset: 0x20963, size: 0x8, addend: 0x0, symName: __RINvNtCsieiGu2EXtoJ_4core3ptr13drop_in_placeINtNtNtNtCslJiobkLta79_5alloc11collections5btree3map8IntoIterNtNtBP_6string6StringINtNtBP_3vec3VecNtCs3MTn1ylDH3J_18build_script_build11LoadedEntryEEEB2i_, symObjAddr: 0x5E0, symBinAddr: 0x10000EC10, symSize: 0x20 }
  - { offset: 0x20992, size: 0x8, addend: 0x0, symName: __RINvNtCsieiGu2EXtoJ_4core3ptr13drop_in_placeINtNtNtNtCslJiobkLta79_5alloc11collections5btree4node11SplitResultNtNtBP_6string6StringINtNtBP_3vec3VecNtCs3MTn1ylDH3J_18build_script_build11LoadedEntryENtNtBJ_6marker4LeafEEB2n_, symObjAddr: 0x600, symBinAddr: 0x10000EC30, symSize: 0x20 }
  - { offset: 0x209C1, size: 0x8, addend: 0x0, symName: __RINvNtCsieiGu2EXtoJ_4core3ptr13drop_in_placeINtNtNtNtCslJiobkLta79_5alloc11collections5btree4node11SplitResultNtNtBP_6string6StringINtNtBP_3vec3VecNtCs3MTn1ylDH3J_18build_script_build11LoadedEntryENtNtBJ_6marker8InternalEEB2n_, symObjAddr: 0x620, symBinAddr: 0x10000EC50, symSize: 0x20 }
  - { offset: 0x209F0, size: 0x8, addend: 0x0, symName: __RINvNtCsieiGu2EXtoJ_4core3ptr13drop_in_placeINtNtNtNtNtCslJiobkLta79_5alloc11collections5btree3map5entry11VacantEntryNtNtBR_6string6StringINtNtBR_3vec3VecNtCs3MTn1ylDH3J_18build_script_build11LoadedEntryEEEB2u_, symObjAddr: 0x640, symBinAddr: 0x10000EC70, symSize: 0x20 }
  - { offset: 0x20A1F, size: 0x8, addend: 0x0, symName: __RINvNtCsieiGu2EXtoJ_4core3ptr13drop_in_placeINtNvMsT_NtNtNtCslJiobkLta79_5alloc11collections5btree4nodeINtBP_6HandleINtBP_7NodeRefNtNtBP_6marker5DyingpppENtB26_2KVE12drop_key_val7DropperINtNtBV_3vec3VecNtCs3MTn1ylDH3J_18build_script_build11LoadedEntryEEEB3g_, symObjAddr: 0x660, symBinAddr: 0x10000EC90, symSize: 0x20 }
  - { offset: 0x20A4E, size: 0x8, addend: 0x0, symName: __RINvNtCsieiGu2EXtoJ_4core3ptr13drop_in_placeINtNvNtCsHUR1vrdMJt_3std2io17default_write_fmt7AdapterNtNtBN_2fs4FileEECs3MTn1ylDH3J_18build_script_build, symObjAddr: 0x680, symBinAddr: 0x10000ECB0, symSize: 0x20 }
  - { offset: 0x20A7D, size: 0x8, addend: 0x0, symName: __RINvNtCsieiGu2EXtoJ_4core3ptr13drop_in_placeINtNvNtCsHUR1vrdMJt_3std2io17default_write_fmt7AdapterNtNtNtNtBN_3sys5stdio4unix6StderrEECs3MTn1ylDH3J_18build_script_build, symObjAddr: 0x6A0, symBinAddr: 0x10000ECD0, symSize: 0x20 }
  - { offset: 0x20AAC, size: 0x8, addend: 0x0, symName: __RINvNtCsieiGu2EXtoJ_4core3ptr13drop_in_placeINtNvXsw_NtNtNtCslJiobkLta79_5alloc11collections5btree3mapINtBP_8IntoIterpppENtNtNtB4_3ops4drop4Drop4drop9DropGuardNtNtBV_6string6StringINtNtBV_3vec3VecNtCs3MTn1ylDH3J_18build_script_build11LoadedEntryENtNtBV_5alloc6GlobalEEB3a_, symObjAddr: 0x6C0, symBinAddr: 0x10000ECF0, symSize: 0x20 }
  - { offset: 0x20ADB, size: 0x8, addend: 0x0, symName: __RINvNtCsieiGu2EXtoJ_4core3ptr13drop_in_placeNCINvMsi_NtCslJiobkLta79_5alloc3vecINtBP_3VechE14extend_trustedINtNtNtNtB4_4iter8adapters3map3MapINtNtNtB4_5slice4iter4IterhENCNvNtBR_3str13replace_ascii0EE0ECs3MTn1ylDH3J_18build_script_build, symObjAddr: 0x6E0, symBinAddr: 0x10000ED10, symSize: 0x20 }
  - { offset: 0x20B0A, size: 0x8, addend: 0x0, symName: __RINvNtCsieiGu2EXtoJ_4core3ptr13drop_in_placeNCINvNtNtNtB4_4iter8adapters3map8map_foldRhhuNCNvNtCslJiobkLta79_5alloc3str13replace_ascii0NCINvNvNtNtNtBP_6traits8iterator8Iterator8for_each4callhNCINvMsi_NtB1v_3vecINtB3c_3VechE14extend_trustedINtBL_3MapINtNtNtB4_5slice4iter4IterhEB1p_EE0E0E0ECs3MTn1ylDH3J_18build_script_build, symObjAddr: 0x700, symBinAddr: 0x10000ED30, symSize: 0x20 }
  - { offset: 0x20B39, size: 0x8, addend: 0x0, symName: __RINvNtCsieiGu2EXtoJ_4core3ptr13drop_in_placeNCINvNvNtNtNtNtB4_4iter6traits8iterator8Iterator8for_each4callhNCINvMsi_NtCslJiobkLta79_5alloc3vecINtB1Q_3VechE14extend_trustedINtNtNtBT_8adapters3map3MapINtNtNtB4_5slice4iter4IterhENCNvNtB1S_3str13replace_ascii0EE0E0ECs3MTn1ylDH3J_18build_script_build, symObjAddr: 0x720, symBinAddr: 0x10000ED50, symSize: 0x20 }
  - { offset: 0x20B68, size: 0x8, addend: 0x0, symName: __RINvNtCsieiGu2EXtoJ_4core3ptr13drop_in_placeNtCs3MTn1ylDH3J_18build_script_build11LoadedEntryEBI_, symObjAddr: 0x740, symBinAddr: 0x10000ED70, symSize: 0xB0 }
  - { offset: 0x20B97, size: 0x8, addend: 0x0, symName: __RINvNtCsieiGu2EXtoJ_4core3ptr13drop_in_placeNtNtCsHUR1vrdMJt_3std2fs4FileECs3MTn1ylDH3J_18build_script_build, symObjAddr: 0x7F0, symBinAddr: 0x10000EE20, symSize: 0x20 }
  - { offset: 0x20BC6, size: 0x8, addend: 0x0, symName: __RINvNtCsieiGu2EXtoJ_4core3ptr13drop_in_placeNtNtCsHUR1vrdMJt_3std2io5GuardECs3MTn1ylDH3J_18build_script_build, symObjAddr: 0x810, symBinAddr: 0x10000EE40, symSize: 0x20 }
  - { offset: 0x20BF5, size: 0x8, addend: 0x0, symName: __RINvNtCsieiGu2EXtoJ_4core3ptr13drop_in_placeNtNtCsHUR1vrdMJt_3std4path7PathBufECs3MTn1ylDH3J_18build_script_build, symObjAddr: 0x830, symBinAddr: 0x10000EE60, symSize: 0x20 }
  - { offset: 0x20C24, size: 0x8, addend: 0x0, symName: __RINvNtCsieiGu2EXtoJ_4core3ptr13drop_in_placeNtNtCslJiobkLta79_5alloc6string6StringECs3MTn1ylDH3J_18build_script_build, symObjAddr: 0x850, symBinAddr: 0x10000EE80, symSize: 0x20 }
  - { offset: 0x20C53, size: 0x8, addend: 0x0, symName: __RINvNtCsieiGu2EXtoJ_4core3ptr13drop_in_placeNtNtNtCsHUR1vrdMJt_3std2io5error5ErrorECs3MTn1ylDH3J_18build_script_build, symObjAddr: 0x870, symBinAddr: 0x10000EEA0, symSize: 0x20 }
  - { offset: 0x20C82, size: 0x8, addend: 0x0, symName: __RINvNtCsieiGu2EXtoJ_4core3ptr13drop_in_placeNtNtNtCsHUR1vrdMJt_3std2io5error6CustomECs3MTn1ylDH3J_18build_script_build, symObjAddr: 0x890, symBinAddr: 0x10000EEC0, symSize: 0x20 }
  - { offset: 0x20CB1, size: 0x8, addend: 0x0, symName: __RINvNtCsieiGu2EXtoJ_4core3ptr13drop_in_placeNtNtNtCsHUR1vrdMJt_3std3ffi6os_str8OsStringECs3MTn1ylDH3J_18build_script_build, symObjAddr: 0x8B0, symBinAddr: 0x10000EEE0, symSize: 0x20 }
  - { offset: 0x20CE0, size: 0x8, addend: 0x0, symName: __RINvNtCsieiGu2EXtoJ_4core3ptr13drop_in_placeNtNtNtCslJiobkLta79_5alloc3vec15set_len_on_drop12SetLenOnDropECs3MTn1ylDH3J_18build_script_build, symObjAddr: 0x8D0, symBinAddr: 0x10000EF00, symSize: 0x20 }
  - { offset: 0x20D0F, size: 0x8, addend: 0x0, symName: __RINvNtCsieiGu2EXtoJ_4core3ptr13drop_in_placeNtNtNtNtCsHUR1vrdMJt_3std2io5error14repr_bitpacked4ReprECs3MTn1ylDH3J_18build_script_build, symObjAddr: 0x8F0, symBinAddr: 0x10000EF20, symSize: 0x20 }
  - { offset: 0x20D3E, size: 0x8, addend: 0x0, symName: __RINvNtCsieiGu2EXtoJ_4core3ptr13drop_in_placeNtNtNtNtCsHUR1vrdMJt_3std2os2fd5owned7OwnedFdECs3MTn1ylDH3J_18build_script_build, symObjAddr: 0x910, symBinAddr: 0x10000EF40, symSize: 0x20 }
  - { offset: 0x20D6D, size: 0x8, addend: 0x0, symName: __RINvNtCsieiGu2EXtoJ_4core3ptr13drop_in_placeNtNtNtNtCsHUR1vrdMJt_3std3sys2fd4unix8FileDescECs3MTn1ylDH3J_18build_script_build, symObjAddr: 0x930, symBinAddr: 0x10000EF60, symSize: 0x20 }
  - { offset: 0x20D9C, size: 0x8, addend: 0x0, symName: __RINvNtCsieiGu2EXtoJ_4core3ptr13drop_in_placeNtNtNtNtCsHUR1vrdMJt_3std3sys2fs4unix4FileECs3MTn1ylDH3J_18build_script_build, symObjAddr: 0x950, symBinAddr: 0x10000EF80, symSize: 0x20 }
  - { offset: 0x20DCB, size: 0x8, addend: 0x0, symName: __RINvNtCsieiGu2EXtoJ_4core3ptr13drop_in_placeNtNtNtNtCsHUR1vrdMJt_3std3sys6os_str5bytes3BufECs3MTn1ylDH3J_18build_script_build, symObjAddr: 0x970, symBinAddr: 0x10000EFA0, symSize: 0x20 }
  - { offset: 0x20DFA, size: 0x8, addend: 0x0, symName: __RINvNtCsieiGu2EXtoJ_4core3ptr13drop_in_placeNtNtNtNtNtCsHUR1vrdMJt_3std2io8buffered9bufreader6buffer6BufferECs3MTn1ylDH3J_18build_script_build, symObjAddr: 0x990, symBinAddr: 0x10000EFC0, symSize: 0x20 }
  - { offset: 0x20E29, size: 0x8, addend: 0x0, symName: __RINvNtCsieiGu2EXtoJ_4core3ptr13drop_in_placeNtNvNtNtNtCslJiobkLta79_5alloc11collections5btree3mem7replace10PanicGuardECs3MTn1ylDH3J_18build_script_build, symObjAddr: 0x9B0, symBinAddr: 0x10000EFE0, symSize: 0x20 }
  - { offset: 0x20E58, size: 0x8, addend: 0x0, symName: __RINvNtCsieiGu2EXtoJ_4core3ptr13drop_in_placeSNtCs3MTn1ylDH3J_18build_script_build11LoadedEntryEBJ_, symObjAddr: 0x9D0, symBinAddr: 0x10000F000, symSize: 0xA0 }
  - { offset: 0x20E87, size: 0x8, addend: 0x0, symName: __RINvNtCsieiGu2EXtoJ_4core3ptr13drop_in_placeTNtNtCslJiobkLta79_5alloc6string6StringINtNtBL_3vec3VecNtCs3MTn1ylDH3J_18build_script_build11LoadedEntryEEEB1B_, symObjAddr: 0xA70, symBinAddr: 0x10000F0A0, symSize: 0x60 }
  - { offset: 0x21719, size: 0x8, addend: 0x0, symName: __RNvYjNtNtCsieiGu2EXtoJ_4core3cmp3Ord3maxCs3MTn1ylDH3J_18build_script_build, symObjAddr: 0x2FB0, symBinAddr: 0x1000115E0, symSize: 0x60 }
  - { offset: 0x21785, size: 0x8, addend: 0x0, symName: __RNvYjNtNtCsieiGu2EXtoJ_4core3cmp3Ord3minCs3MTn1ylDH3J_18build_script_build, symObjAddr: 0x3010, symBinAddr: 0x100011640, symSize: 0x60 }
  - { offset: 0x21A02, size: 0x8, addend: 0x0, symName: __RNvXs1b_NtCsieiGu2EXtoJ_4core3fmtRNtNtCslJiobkLta79_5alloc6string6StringNtB6_7Display3fmtCs3MTn1ylDH3J_18build_script_build, symObjAddr: 0x24F0, symBinAddr: 0x100010B20, symSize: 0x20 }
  - { offset: 0x2252E, size: 0x8, addend: 0x0, symName: __RNvXs5_NtNtCsieiGu2EXtoJ_4core3num5errorNtB5_15TryFromIntErrorNtNtB9_3fmt5Debug3fmtCs3MTn1ylDH3J_18build_script_build, symObjAddr: 0x2780, symBinAddr: 0x100010DB0, symSize: 0x50 }
  - { offset: 0x22669, size: 0x8, addend: 0x0, symName: __RNCINvNtNtNtCsieiGu2EXtoJ_4core4iter8adapters3map8map_foldRhhuNCNvNtCslJiobkLta79_5alloc3str13replace_ascii0NCINvNvNtNtNtB8_6traits8iterator8Iterator8for_each4callhNCINvMsi_NtB14_3vecINtB2L_3VechE14extend_trustedINtB4_3MapINtNtNtBa_5slice4iter4IterhEBY_EE0E0E0Cs3MTn1ylDH3J_18build_script_build, symObjAddr: 0x1460, symBinAddr: 0x10000FA90, symSize: 0x70 }
  - { offset: 0x226F4, size: 0x8, addend: 0x0, symName: __RINvXs0_NtNtNtCsieiGu2EXtoJ_4core4iter8adapters3mapINtB6_3MapINtNtNtBc_5slice4iter4IterhENCNvNtCslJiobkLta79_5alloc3str13replace_ascii0ENtNtNtBa_6traits8iterator8Iterator4folduNCINvNvB2a_8for_each4callhNCINvMsi_NtB1v_3vecINtB3n_3VechE14extend_trustedBN_E0E0ECs3MTn1ylDH3J_18build_script_build, symObjAddr: 0x1180, symBinAddr: 0x10000F7B0, symSize: 0x60 }
  - { offset: 0x2278D, size: 0x8, addend: 0x0, symName: __RNvXs0_NtNtNtCsieiGu2EXtoJ_4core4iter8adapters3mapINtB5_3MapINtNtNtBb_5slice4iter4IterhENCNvNtCslJiobkLta79_5alloc3str13replace_ascii0ENtNtNtB9_6traits8iterator8Iterator9size_hintCs3MTn1ylDH3J_18build_script_build, symObjAddr: 0x2390, symBinAddr: 0x1000109C0, symSize: 0x30 }
  - { offset: 0x228A2, size: 0x8, addend: 0x0, symName: __RINvYINtNtNtNtCsieiGu2EXtoJ_4core4iter8adapters3map3MapINtNtNtBc_5slice4iter4IterhENCNvNtCslJiobkLta79_5alloc3str13replace_ascii0ENtNtNtBa_6traits8iterator8Iterator7collectINtNtB1p_3vec3VechEECs3MTn1ylDH3J_18build_script_build, symObjAddr: 0x1390, symBinAddr: 0x10000F9C0, symSize: 0x70 }
  - { offset: 0x22938, size: 0x8, addend: 0x0, symName: __RINvYINtNtNtNtCsieiGu2EXtoJ_4core4iter8adapters3map3MapINtNtNtBc_5slice4iter4IterhENCNvNtCslJiobkLta79_5alloc3str13replace_ascii0ENtNtNtBa_6traits8iterator8Iterator8for_eachNCINvMsi_NtB1p_3vecINtB2U_3VechE14extend_trustedB3_E0ECs3MTn1ylDH3J_18build_script_build, symObjAddr: 0x1400, symBinAddr: 0x10000FA30, symSize: 0x30 }
  - { offset: 0x229D6, size: 0x8, addend: 0x0, symName: __RNvXNtNtNtCsieiGu2EXtoJ_4core4iter6traits7collectINtNtNtB6_8adapters3map3MapINtNtNtB8_5slice4iter4IterhENCNvNtCslJiobkLta79_5alloc3str13replace_ascii0ENtB2_12IntoIterator9into_iterCs3MTn1ylDH3J_18build_script_build, symObjAddr: 0x2360, symBinAddr: 0x100010990, symSize: 0x30 }
  - { offset: 0x22A1A, size: 0x8, addend: 0x0, symName: __RNvXs3_NtNtCsieiGu2EXtoJ_4core4iter5rangeINtNtNtB9_3ops5range5RangejENtB5_17RangeIteratorImpl9spec_nextCs3MTn1ylDH3J_18build_script_build, symObjAddr: 0x2660, symBinAddr: 0x100010C90, symSize: 0x80 }
  - { offset: 0x22A9B, size: 0x8, addend: 0x0, symName: __RNvXs4_NtNtCsieiGu2EXtoJ_4core4iter5rangeINtNtNtB9_3ops5range5RangejENtNtNtB7_6traits8iterator8Iterator4nextCs3MTn1ylDH3J_18build_script_build, symObjAddr: 0x26E0, symBinAddr: 0x100010D10, symSize: 0x20 }
  - { offset: 0x22AD8, size: 0x8, addend: 0x0, symName: __RNvXsc_NtNtCsieiGu2EXtoJ_4core4iter5rangeINtNtNtB9_3ops5range14RangeInclusivejENtB5_26RangeInclusiveIteratorImpl9spec_nextCs3MTn1ylDH3J_18build_script_build, symObjAddr: 0x2B70, symBinAddr: 0x1000111A0, symSize: 0xD0 }
  - { offset: 0x22BD9, size: 0x8, addend: 0x0, symName: __RNvXsd_NtNtCsieiGu2EXtoJ_4core4iter5rangeINtNtNtB9_3ops5range14RangeInclusivejENtNtNtB7_6traits8iterator8Iterator4nextCs3MTn1ylDH3J_18build_script_build, symObjAddr: 0x2C40, symBinAddr: 0x100011270, symSize: 0x20 }
  - { offset: 0x23001, size: 0x8, addend: 0x0, symName: __RNvXs5_NtNtCsieiGu2EXtoJ_4core5slice5indexINtNtNtB9_3ops5range9RangeFromjEINtB5_10SliceIndexShE5indexCs3MTn1ylDH3J_18build_script_build, symObjAddr: 0x27D0, symBinAddr: 0x100010E00, symSize: 0x80 }
  - { offset: 0x2314D, size: 0x8, addend: 0x0, symName: __RNvXs8_NtNtCsieiGu2EXtoJ_4core5slice5indexINtNtNtB9_3ops5range14RangeInclusivejEINtB5_10SliceIndexShE5indexCs3MTn1ylDH3J_18build_script_build, symObjAddr: 0x2880, symBinAddr: 0x100010EB0, symSize: 0x100 }
  - { offset: 0x2335F, size: 0x8, addend: 0x0, symName: __RINvNtNtCsieiGu2EXtoJ_4core3str11validations23next_code_point_reverseINtNtNtB6_5slice4iter4IterhEECs3MTn1ylDH3J_18build_script_build, symObjAddr: 0xAF0, symBinAddr: 0x10000F120, symSize: 0x290 }
  - { offset: 0x238A9, size: 0x8, addend: 0x0, symName: __RNSNvYNCINvNtCsHUR1vrdMJt_3std2rt10lang_startINtNtCsieiGu2EXtoJ_4core6result6ResultuNtNtNtBb_2io5error5ErrorEE0INtNtNtBM_3ops8function6FnOnceuE9call_once6vtableCs3MTn1ylDH3J_18build_script_build, symObjAddr: 0x1510, symBinAddr: 0x10000FB40, symSize: 0x20 }
  - { offset: 0x238ED, size: 0x8, addend: 0x0, symName: __RNvYFEINtNtCsieiGu2EXtoJ_4core6result6ResultuNtNtNtCsHUR1vrdMJt_3std2io5error5ErrorEINtNtNtB9_3ops8function6FnOnceuE9call_onceCs3MTn1ylDH3J_18build_script_build, symObjAddr: 0x2ED0, symBinAddr: 0x100011500, symSize: 0x20 }
  - { offset: 0x23931, size: 0x8, addend: 0x0, symName: __RNvYNCINvNtCsHUR1vrdMJt_3std2rt10lang_startINtNtCsieiGu2EXtoJ_4core6result6ResultuNtNtNtB9_2io5error5ErrorEE0INtNtNtBK_3ops8function6FnOnceuE9call_onceCs3MTn1ylDH3J_18build_script_build, symObjAddr: 0x2F50, symBinAddr: 0x100011580, symSize: 0x40 }
  - { offset: 0x23975, size: 0x8, addend: 0x0, symName: __RNvYNvMNtCslJiobkLta79_5alloc3vecINtB5_3VecNtCs3MTn1ylDH3J_18build_script_build11LoadedEntryE3newINtNtNtCsieiGu2EXtoJ_4core3ops8function6FnOnceuE9call_onceBH_, symObjAddr: 0x2F90, symBinAddr: 0x1000115C0, symSize: 0x20 }
  - { offset: 0x23D07, size: 0x8, addend: 0x0, symName: __RNvNvNtNtCsieiGu2EXtoJ_4core4char7convert18from_u32_unchecked18precondition_checkCs3MTn1ylDH3J_18build_script_build, symObjAddr: 0x2240, symBinAddr: 0x100010870, symSize: 0xF0 }
  - { offset: 0x23E29, size: 0x8, addend: 0x0, symName: __RNvXNtCsieiGu2EXtoJ_4core6borrowNtNtCslJiobkLta79_5alloc6string6StringINtB2_6BorrowBu_E6borrowCs3MTn1ylDH3J_18build_script_build, symObjAddr: 0x2330, symBinAddr: 0x100010960, symSize: 0x10 }
  - { offset: 0x24083, size: 0x8, addend: 0x0, symName: __RNCNvXs1_NtNtNtCsHUR1vrdMJt_3std2io5error14repr_bitpackedNtB7_4ReprNtNtNtCsieiGu2EXtoJ_4core3ops4drop4Drop4drop0Cs3MTn1ylDH3J_18build_script_build, symObjAddr: 0x14E0, symBinAddr: 0x10000FB10, symSize: 0x30 }
  - { offset: 0x24138, size: 0x8, addend: 0x0, symName: __RNvXs1_NtNtNtCsHUR1vrdMJt_3std2io5error14repr_bitpackedNtB5_4ReprNtNtNtCsieiGu2EXtoJ_4core3ops4drop4Drop4dropCs3MTn1ylDH3J_18build_script_build, symObjAddr: 0x24C0, symBinAddr: 0x100010AF0, symSize: 0x30 }
  - { offset: 0x24161, size: 0x8, addend: 0x0, symName: __RINvNtNtNtCsHUR1vrdMJt_3std2io5error14repr_bitpacked11decode_reprINtNtCslJiobkLta79_5alloc5boxed3BoxNtB4_6CustomENCNvXs1_B2_NtB2_4ReprNtNtNtCsieiGu2EXtoJ_4core3ops4drop4Drop4drop0ECs3MTn1ylDH3J_18build_script_build, symObjAddr: 0xD80, symBinAddr: 0x10000F3B0, symSize: 0x200 }
  - { offset: 0x243D3, size: 0x8, addend: 0x0, symName: __RNCNvMs0_NtNtNtCsHUR1vrdMJt_3std2io5error14repr_bitpackedNtB7_4Repr4data0Cs3MTn1ylDH3J_18build_script_build, symObjAddr: 0x14D0, symBinAddr: 0x10000FB00, symSize: 0x10 }
  - { offset: 0x2440B, size: 0x8, addend: 0x0, symName: __RINvNtNtNtCsHUR1vrdMJt_3std2io5error14repr_bitpacked11decode_reprRNtB4_6CustomNCNvMs0_B2_NtB2_4Repr4data0ECs3MTn1ylDH3J_18build_script_build, symObjAddr: 0xF80, symBinAddr: 0x10000F5B0, symSize: 0x200 }
  - { offset: 0x2466C, size: 0x8, addend: 0x0, symName: __RNvNtNtNtCsHUR1vrdMJt_3std2io5error14repr_bitpacked14kind_from_primCs3MTn1ylDH3J_18build_script_build, symObjAddr: 0x1AB0, symBinAddr: 0x1000100E0, symSize: 0x5B0 }
  - { offset: 0x2511B, size: 0x8, addend: 0x0, symName: __RNvXs4_NtNtNtCsHUR1vrdMJt_3std2io8buffered9bufreaderINtB5_9BufReaderNtNtBb_2fs4FileENtB9_7BufRead7consumeCs3MTn1ylDH3J_18build_script_build, symObjAddr: 0x2700, symBinAddr: 0x100010D30, symSize: 0x50 }
  - { offset: 0x251A8, size: 0x8, addend: 0x0, symName: __RNvXs4_NtNtNtCsHUR1vrdMJt_3std2io8buffered9bufreaderINtB5_9BufReaderNtNtBb_2fs4FileENtB9_7BufRead8fill_bufCs3MTn1ylDH3J_18build_script_build, symObjAddr: 0x2750, symBinAddr: 0x100010D80, symSize: 0x30 }
  - { offset: 0x251E7, size: 0x8, addend: 0x0, symName: __RNvYINtNtNtNtCsHUR1vrdMJt_3std2io8buffered9bufreader9BufReaderNtNtBb_2fs4FileENtB9_7BufRead5linesCs3MTn1ylDH3J_18build_script_build, symObjAddr: 0x2EF0, symBinAddr: 0x100011520, symSize: 0x30 }
  - { offset: 0x2521F, size: 0x8, addend: 0x0, symName: __RNvYINtNtNtNtCsHUR1vrdMJt_3std2io8buffered9bufreader9BufReaderNtNtBb_2fs4FileENtB9_7BufRead9read_lineCs3MTn1ylDH3J_18build_script_build, symObjAddr: 0x2F20, symBinAddr: 0x100011550, symSize: 0x30 }
  - { offset: 0x25305, size: 0x8, addend: 0x0, symName: __RINvNtCsHUR1vrdMJt_3std3env6var_osReECs3MTn1ylDH3J_18build_script_build, symObjAddr: 0x1C0, symBinAddr: 0x10000E830, symSize: 0x60 }
  - { offset: 0x25347, size: 0x8, addend: 0x0, symName: __RINvNtNtCsHUR1vrdMJt_3std3sys9backtrace28___rust_begin_short_backtraceFEINtNtCsieiGu2EXtoJ_4core6result6ResultuNtNtNtB6_2io5error5ErrorEB18_ECs3MTn1ylDH3J_18build_script_build, symObjAddr: 0xAD0, symBinAddr: 0x10000F100, symSize: 0x20 }
  - { offset: 0x253DF, size: 0x8, addend: 0x0, symName: __RNvNtNtNtCsHUR1vrdMJt_3std3sys2fs4unix23debug_assert_fd_is_openCs3MTn1ylDH3J_18build_script_build, symObjAddr: 0x2060, symBinAddr: 0x100010690, symSize: 0xB0 }
  - { offset: 0x25536, size: 0x8, addend: 0x0, symName: __RNvXs5_NtNtNtCsHUR1vrdMJt_3std2os2fd5ownedNtB5_7OwnedFdNtNtNtCsieiGu2EXtoJ_4core3ops4drop4Drop4dropCs3MTn1ylDH3J_18build_script_build, symObjAddr: 0x2850, symBinAddr: 0x100010E80, symSize: 0x30 }
  - { offset: 0x2556C, size: 0x8, addend: 0x0, symName: __RNvXsZ_NtCsHUR1vrdMJt_3std7processuNtB5_11Termination6reportCs3MTn1ylDH3J_18build_script_build, symObjAddr: 0x2980, symBinAddr: 0x100010FB0, symSize: 0x10 }
  - { offset: 0x25C2E, size: 0x8, addend: 0x0, symName: __RNCINvMsi_NtCslJiobkLta79_5alloc3vecINtB8_3VechE14extend_trustedINtNtNtNtCsieiGu2EXtoJ_4core4iter8adapters3map3MapINtNtNtB19_5slice4iter4IterhENCNvNtBa_3str13replace_ascii0EE0Cs3MTn1ylDH3J_18build_script_build, symObjAddr: 0x1430, symBinAddr: 0x10000FA60, symSize: 0x30 }
  - { offset: 0x25CDD, size: 0x8, addend: 0x0, symName: __RINvXsd_NtCslJiobkLta79_5alloc3vecINtB6_3VechEINtNtNtNtCsieiGu2EXtoJ_4core4iter6traits7collect12FromIteratorhE9from_iterINtNtNtBP_8adapters3map3MapINtNtNtBR_5slice4iter4IterhENCNvNtB8_3str13replace_ascii0EECs3MTn1ylDH3J_18build_script_build, symObjAddr: 0x1350, symBinAddr: 0x10000F980, symSize: 0x40 }
  - { offset: 0x25E4E, size: 0x8, addend: 0x0, symName: __RNvNvMs_NtCslJiobkLta79_5alloc3vecINtB6_3VecppE7set_len18precondition_checkCs3MTn1ylDH3J_18build_script_build, symObjAddr: 0x21A0, symBinAddr: 0x1000107D0, symSize: 0xA0 }
  - { offset: 0x25EC2, size: 0x8, addend: 0x0, symName: __RNvXNtNtCslJiobkLta79_5alloc3vec14spec_from_iterINtB4_3VechEINtB2_12SpecFromIterhINtNtNtNtCsieiGu2EXtoJ_4core4iter8adapters3map3MapINtNtNtB1q_5slice4iter4IterhENCNvNtB6_3str13replace_ascii0EE9from_iterCs3MTn1ylDH3J_18build_script_build, symObjAddr: 0x2340, symBinAddr: 0x100010970, symSize: 0x20 }
  - { offset: 0x25F0D, size: 0x8, addend: 0x0, symName: __RNvXs_NtNtCslJiobkLta79_5alloc3vec11spec_extendINtB6_3VechEINtB4_10SpecExtendhINtNtNtNtCsieiGu2EXtoJ_4core4iter8adapters3map3MapINtNtNtB1n_5slice4iter4IterhENCNvNtB8_3str13replace_ascii0EE11spec_extendCs3MTn1ylDH3J_18build_script_build, symObjAddr: 0x2990, symBinAddr: 0x100010FC0, symSize: 0x20 }
  - { offset: 0x25F6B, size: 0x8, addend: 0x0, symName: __RNvXs_NtNtCslJiobkLta79_5alloc3vec21spec_from_iter_nestedINtB6_3VechEINtB4_18SpecFromIterNestedhINtNtNtNtCsieiGu2EXtoJ_4core4iter8adapters3map3MapINtNtNtB1F_5slice4iter4IterhENCNvNtB8_3str13replace_ascii0EE9from_iterCs3MTn1ylDH3J_18build_script_build, symObjAddr: 0x29B0, symBinAddr: 0x100010FE0, symSize: 0x1C0 }
  - { offset: 0x260B0, size: 0x8, addend: 0x0, symName: __RNvXsf_NtCslJiobkLta79_5alloc3vecRINtB5_3VecNtCs3MTn1ylDH3J_18build_script_build11LoadedEntryENtNtNtNtCsieiGu2EXtoJ_4core4iter6traits7collect12IntoIterator9into_iterBI_, symObjAddr: 0x2C60, symBinAddr: 0x100011290, symSize: 0x80 }
  - { offset: 0x262E3, size: 0x8, addend: 0x0, symName: __RNvXsm_NtCslJiobkLta79_5alloc3vecINtB5_3VechENtNtCsieiGu2EXtoJ_4core3cmp3Ord3cmpCs3MTn1ylDH3J_18build_script_build, symObjAddr: 0x2D50, symBinAddr: 0x100011380, symSize: 0xD0 }
  - { offset: 0x26573, size: 0x8, addend: 0x0, symName: __RNvXsn_NtCslJiobkLta79_5alloc3vecINtB5_3VecNtCs3MTn1ylDH3J_18build_script_build11LoadedEntryENtNtNtCsieiGu2EXtoJ_4core3ops4drop4Drop4dropBH_, symObjAddr: 0x2E20, symBinAddr: 0x100011450, symSize: 0x30 }
  - { offset: 0x266A1, size: 0x8, addend: 0x0, symName: __RINvXs_NvMNtCslJiobkLta79_5alloc5sliceSp9to_vec_inhNtB5_10ConvertVec6to_vecNtNtBa_5alloc6GlobalECs3MTn1ylDH3J_18build_script_build, symObjAddr: 0x11E0, symBinAddr: 0x10000F810, symSize: 0x170 }
  - { offset: 0x26B8C, size: 0x8, addend: 0x0, symName: __RNvXss_NtCslJiobkLta79_5alloc6stringNtB5_6StringNtNtNtCsieiGu2EXtoJ_4core3ops5deref5Deref5derefCs3MTn1ylDH3J_18build_script_build, symObjAddr: 0x2E50, symBinAddr: 0x100011480, symSize: 0x20 }
  - { offset: 0x26C02, size: 0x8, addend: 0x0, symName: __RNvXs1I_NtCslJiobkLta79_5alloc6stringNtB6_6StringNtB6_12SpecToString14spec_to_stringCs3MTn1ylDH3J_18build_script_build, symObjAddr: 0x23C0, symBinAddr: 0x1000109F0, symSize: 0xB0 }
  - { offset: 0x26E72, size: 0x8, addend: 0x0, symName: __RNvXs1V_NtCslJiobkLta79_5alloc6stringeNtB6_12SpecToString14spec_to_stringCs3MTn1ylDH3J_18build_script_build, symObjAddr: 0x2470, symBinAddr: 0x100010AA0, symSize: 0x50 }
  - { offset: 0x26F9B, size: 0x8, addend: 0x0, symName: __RNvXs1e_NtCslJiobkLta79_5alloc6stringNtB6_6StringNtNtCsieiGu2EXtoJ_4core3cmp3Ord3cmpCs3MTn1ylDH3J_18build_script_build, symObjAddr: 0x2510, symBinAddr: 0x100010B40, symSize: 0x20 }
  - { offset: 0x27018, size: 0x8, addend: 0x0, symName: __RNvXs1n_NtCslJiobkLta79_5alloc6stringNtB6_6StringINtNtCsieiGu2EXtoJ_4core3cmp9PartialEqReE2neCs3MTn1ylDH3J_18build_script_build, symObjAddr: 0x2530, symBinAddr: 0x100010B60, symSize: 0x130 }
  - { offset: 0x27321, size: 0x8, addend: 0x0, symName: __RNvXsl_NtCslJiobkLta79_5alloc6stringNtB5_6StringNtNtCsieiGu2EXtoJ_4core3fmt7Display3fmtCs3MTn1ylDH3J_18build_script_build, symObjAddr: 0x2CE0, symBinAddr: 0x100011310, symSize: 0x70 }
  - { offset: 0x27486, size: 0x8, addend: 0x0, symName: __RNvXsw_NtCslJiobkLta79_5alloc6stringNtB5_6StringNtB5_8ToString9to_stringCs3MTn1ylDH3J_18build_script_build, symObjAddr: 0x2E70, symBinAddr: 0x1000114A0, symSize: 0x30 }
  - { offset: 0x274BD, size: 0x8, addend: 0x0, symName: __RNvXsw_NtCslJiobkLta79_5alloc6stringeNtB5_8ToString9to_stringCs3MTn1ylDH3J_18build_script_build, symObjAddr: 0x2EA0, symBinAddr: 0x1000114D0, symSize: 0x30 }
  - { offset: 0x27CD2, size: 0x8, addend: 0x0, symName: __RINvMsi_NtCslJiobkLta79_5alloc3vecINtB6_3VechE14extend_trustedINtNtNtNtCsieiGu2EXtoJ_4core4iter8adapters3map3MapINtNtNtB17_5slice4iter4IterhENCNvNtB8_3str13replace_ascii0EECs3MTn1ylDH3J_18build_script_build, symObjAddr: 0x0, symBinAddr: 0x10000E670, symSize: 0x1C0 }
  - { offset: 0x2833D, size: 0x8, addend: 0x0, symName: __RNvMNtCslJiobkLta79_5alloc3vecINtB2_3VecNtCs3MTn1ylDH3J_18build_script_build11LoadedEntryE3newBE_, symObjAddr: 0x1530, symBinAddr: 0x10000FB60, symSize: 0x30 }
  - { offset: 0x28595, size: 0x8, addend: 0x0, symName: __RNvMNtCslJiobkLta79_5alloc6stringNtB2_6String3popCs3MTn1ylDH3J_18build_script_build, symObjAddr: 0x1560, symBinAddr: 0x10000FB90, symSize: 0x230 }
  - { offset: 0x28A40, size: 0x8, addend: 0x0, symName: __RNvMNtCslJiobkLta79_5alloc6stringNtB2_6String6as_strCs3MTn1ylDH3J_18build_script_build, symObjAddr: 0x1790, symBinAddr: 0x10000FDC0, symSize: 0x60 }
  - { offset: 0x28B75, size: 0x8, addend: 0x0, symName: __RNvMNtCslJiobkLta79_5alloc6stringNtB2_6String8is_emptyCs3MTn1ylDH3J_18build_script_build, symObjAddr: 0x17F0, symBinAddr: 0x10000FE20, symSize: 0x20 }
  - { offset: 0x28C19, size: 0x8, addend: 0x0, symName: __RNvMNtNtNtCsHUR1vrdMJt_3std2io8buffered9bufreaderINtB2_9BufReaderNtNtB8_2fs4FileE13with_capacityCs3MTn1ylDH3J_18build_script_build, symObjAddr: 0x1810, symBinAddr: 0x10000FE40, symSize: 0xC0 }
  - { offset: 0x28C81, size: 0x8, addend: 0x0, symName: __RNvMNtNtNtCsHUR1vrdMJt_3std2io8buffered9bufreaderINtB2_9BufReaderNtNtB8_2fs4FileE3newCs3MTn1ylDH3J_18build_script_build, symObjAddr: 0x18D0, symBinAddr: 0x10000FF00, symSize: 0x30 }
  - { offset: 0x28CC8, size: 0x8, addend: 0x0, symName: __RNvMs1_NtNtCsieiGu2EXtoJ_4core3ptr8non_nullINtB5_7NonNullhE20offset_from_unsignedCs3MTn1ylDH3J_18build_script_build, symObjAddr: 0x1900, symBinAddr: 0x10000FF30, symSize: 0x60 }
  - { offset: 0x28DA9, size: 0x8, addend: 0x0, symName: __RNvMs_NtCslJiobkLta79_5alloc3vecINtB4_3VecNtCs3MTn1ylDH3J_18build_script_build11LoadedEntryE4pushBG_, symObjAddr: 0x1960, symBinAddr: 0x10000FF90, symSize: 0x20 }
  - { offset: 0x28F01, size: 0x8, addend: 0x0, symName: __RNvMs_NtCslJiobkLta79_5alloc3vecINtB4_3VecNtCs3MTn1ylDH3J_18build_script_build11LoadedEntryE8push_mutBG_, symObjAddr: 0x1980, symBinAddr: 0x10000FFB0, symSize: 0x130 }
  - { offset: 0x29BFF, size: 0x8, addend: 0x0, symName: __RINvMs2_NtCsHUR1vrdMJt_3std2fsNtB6_4File4openReECs3MTn1ylDH3J_18build_script_build, symObjAddr: 0x0, symBinAddr: 0x1000116A0, symSize: 0xB0 }
  - { offset: 0x29C8F, size: 0x8, addend: 0x0, symName: __RNvXNvNtCsHUR1vrdMJt_3std2io17default_write_fmtINtB2_7AdapterNtNtB6_2fs4FileENtNtCsieiGu2EXtoJ_4core3fmt5Write9write_strCs3MTn1ylDH3J_18build_script_build, symObjAddr: 0x1B10, symBinAddr: 0x1000131B0, symSize: 0xA0 }
  - { offset: 0x29CEB, size: 0x8, addend: 0x0, symName: __RNvXNvNtCsHUR1vrdMJt_3std2io17default_write_fmtINtB2_7AdapterNtNtNtNtB6_3sys5stdio4unix6StderrENtNtCsieiGu2EXtoJ_4core3fmt5Write9write_strCs3MTn1ylDH3J_18build_script_build, symObjAddr: 0x1BB0, symBinAddr: 0x100013250, symSize: 0xA0 }
  - { offset: 0x2A0E2, size: 0x8, addend: 0x0, symName: __RINvNtCsHUR1vrdMJt_3std2io10read_untilINtNtNtB2_8buffered9bufreader9BufReaderNtNtB4_2fs4FileEECs3MTn1ylDH3J_18build_script_build, symObjAddr: 0xAE0, symBinAddr: 0x100012180, symSize: 0x440 }
  - { offset: 0x2A56E, size: 0x8, addend: 0x0, symName: __RNCNvYINtNtNtNtCsHUR1vrdMJt_3std2io8buffered9bufreader9BufReaderNtNtBd_2fs4FileENtBb_7BufRead9read_line0Cs3MTn1ylDH3J_18build_script_build, symObjAddr: 0x1460, symBinAddr: 0x100012B00, symSize: 0x30 }
  - { offset: 0x2A62D, size: 0x8, addend: 0x0, symName: __RINvNtCsHUR1vrdMJt_3std2io16append_to_stringNCNvYINtNtNtB2_8buffered9bufreader9BufReaderNtNtB4_2fs4FileENtB2_7BufRead9read_line0ECs3MTn1ylDH3J_18build_script_build, symObjAddr: 0xF20, symBinAddr: 0x1000125C0, symSize: 0x2A0 }
  - { offset: 0x2A9C2, size: 0x8, addend: 0x0, symName: __RINvNtCsHUR1vrdMJt_3std2io17default_write_fmtNtNtB4_2fs4FileECs3MTn1ylDH3J_18build_script_build, symObjAddr: 0x11C0, symBinAddr: 0x100012860, symSize: 0x120 }
  - { offset: 0x2AA72, size: 0x8, addend: 0x0, symName: __RINvNtCsHUR1vrdMJt_3std2io17default_write_fmtNtNtNtNtB4_3sys5stdio4unix6StderrECs3MTn1ylDH3J_18build_script_build, symObjAddr: 0x12E0, symBinAddr: 0x100012980, symSize: 0x120 }
  - { offset: 0x2AB2C, size: 0x8, addend: 0x0, symName: __RNvXNtNtCsHUR1vrdMJt_3std2io5implsQNtNtB6_2fs4FileNtB4_4Read8read_bufCs3MTn1ylDH3J_18build_script_build, symObjAddr: 0x1AC0, symBinAddr: 0x100013160, symSize: 0x20 }
  - { offset: 0x2AB76, size: 0x8, addend: 0x0, symName: __RNvXsq_NtCsHUR1vrdMJt_3std2ioINtB5_5LinesINtNtNtB5_8buffered9bufreader9BufReaderNtNtB7_2fs4FileEENtNtNtNtCsieiGu2EXtoJ_4core4iter6traits8iterator8Iterator4nextCs3MTn1ylDH3J_18build_script_build, symObjAddr: 0x2100, symBinAddr: 0x1000137A0, symSize: 0x4A0 }
  - { offset: 0x2AFF8, size: 0x8, addend: 0x0, symName: __RNvYNtNtCsHUR1vrdMJt_3std2fs4FileNtNtB6_2io5Write9write_allCs3MTn1ylDH3J_18build_script_build, symObjAddr: 0x26C0, symBinAddr: 0x100013D60, symSize: 0x2E0 }
  - { offset: 0x2B19E, size: 0x8, addend: 0x0, symName: __RNvYNtNtCsHUR1vrdMJt_3std2fs4FileNtNtB6_2io5Write9write_fmtCs3MTn1ylDH3J_18build_script_build, symObjAddr: 0x29A0, symBinAddr: 0x100014040, symSize: 0x170 }
  - { offset: 0x2D2D8, size: 0x8, addend: 0x0, symName: __RNvNvXs2_NtNtCsieiGu2EXtoJ_4core5slice5indexINtNtNtBb_3ops5range5RangejEINtB7_10SliceIndexSpE13get_unchecked18precondition_checkCs3MTn1ylDH3J_18build_script_build, symObjAddr: 0x1940, symBinAddr: 0x100012FE0, symSize: 0xC0 }
  - { offset: 0x2D354, size: 0x8, addend: 0x0, symName: __RNvNvXs2_NtNtCsieiGu2EXtoJ_4core5slice5indexINtNtNtBb_3ops5range5RangejEINtB7_10SliceIndexSpE17get_unchecked_mut18precondition_checkCs3MTn1ylDH3J_18build_script_build, symObjAddr: 0x1A00, symBinAddr: 0x1000130A0, symSize: 0xC0 }
  - { offset: 0x2D411, size: 0x8, addend: 0x0, symName: __RNvNvXs0_NtNtCsieiGu2EXtoJ_4core5slice5indexjINtB7_10SliceIndexSpE13get_unchecked18precondition_checkCs3MTn1ylDH3J_18build_script_build, symObjAddr: 0x1800, symBinAddr: 0x100012EA0, symSize: 0xA0 }
  - { offset: 0x2D47F, size: 0x8, addend: 0x0, symName: __RNvNvXs0_NtNtCsieiGu2EXtoJ_4core5slice5indexjINtB7_10SliceIndexSpE17get_unchecked_mut18precondition_checkCs3MTn1ylDH3J_18build_script_build, symObjAddr: 0x18A0, symBinAddr: 0x100012F40, symSize: 0xA0 }
  - { offset: 0x2D58A, size: 0x8, addend: 0x0, symName: __RNvNtNtCsieiGu2EXtoJ_4core5slice6memchr6memchrCs3MTn1ylDH3J_18build_script_build, symObjAddr: 0x1720, symBinAddr: 0x100012DC0, symSize: 0xE0 }
  - { offset: 0x2D66E, size: 0x8, addend: 0x0, symName: __RNvXs_NtNtNtCsieiGu2EXtoJ_4core4iter8adapters9enumerateINtB4_9EnumerateINtNtNtBa_5slice4iter4IterNtNtCslJiobkLta79_5alloc6string6StringEENtNtNtB8_6traits8iterator8Iterator4nextCs3MTn1ylDH3J_18build_script_build, symObjAddr: 0x1D40, symBinAddr: 0x1000133E0, symSize: 0xE0 }
  - { offset: 0x2D7DF, size: 0x8, addend: 0x0, symName: __RNCINvNvNtNtNtNtCsieiGu2EXtoJ_4core4iter6traits8iterator8Iterator8for_each4callhNCINvMsi_NtCslJiobkLta79_5alloc3vecINtB1p_3VechE14extend_trustedINtNtNtBc_8adapters3map3MapINtNtNtBe_5slice4iter4IterhENCNvNtB1r_3str13replace_ascii0EE0E0Cs3MTn1ylDH3J_18build_script_build, symObjAddr: 0x1400, symBinAddr: 0x100012AA0, symSize: 0x20 }
  - { offset: 0x2D845, size: 0x8, addend: 0x0, symName: __RNvXNtNtNtCsieiGu2EXtoJ_4core4iter6traits7collectINtNtCsHUR1vrdMJt_3std2io5LinesINtNtNtBO_8buffered9bufreader9BufReaderNtNtBQ_2fs4FileEENtB2_12IntoIterator9into_iterCs3MTn1ylDH3J_18build_script_build, symObjAddr: 0x1AE0, symBinAddr: 0x100013180, symSize: 0x30 }
  - { offset: 0x2D88A, size: 0x8, addend: 0x0, symName: __RNvXsF_NtNtCsieiGu2EXtoJ_4core4iter5rangejNtB5_4Step17forward_uncheckedCs3MTn1ylDH3J_18build_script_build, symObjAddr: 0x1C60, symBinAddr: 0x100013300, symSize: 0x40 }
  - { offset: 0x2DD69, size: 0x8, addend: 0x0, symName: __RNvXs_NvNtNtCsieiGu2EXtoJ_4core3fmt5Write9write_fmtQINtNvNtCsHUR1vrdMJt_3std2io17default_write_fmt7AdapterNtNtBV_2fs4FileENtB4_12SpecWriteFmt14spec_write_fmtCs3MTn1ylDH3J_18build_script_build, symObjAddr: 0x1E20, symBinAddr: 0x1000134C0, symSize: 0x170 }
  - { offset: 0x2DE1E, size: 0x8, addend: 0x0, symName: __RNvXs_NvNtNtCsieiGu2EXtoJ_4core3fmt5Write9write_fmtQINtNvNtCsHUR1vrdMJt_3std2io17default_write_fmt7AdapterNtNtNtNtBV_3sys5stdio4unix6StderrENtB4_12SpecWriteFmt14spec_write_fmtCs3MTn1ylDH3J_18build_script_build, symObjAddr: 0x1F90, symBinAddr: 0x100013630, symSize: 0x170 }
  - { offset: 0x2DED5, size: 0x8, addend: 0x0, symName: __RNvYINtNvNtCsHUR1vrdMJt_3std2io17default_write_fmt7AdapterNtNtB9_2fs4FileENtNtCsieiGu2EXtoJ_4core3fmt5Write10write_charCs3MTn1ylDH3J_18build_script_build, symObjAddr: 0x25A0, symBinAddr: 0x100013C40, symSize: 0x70 }
  - { offset: 0x2DF3D, size: 0x8, addend: 0x0, symName: __RNvYINtNvNtCsHUR1vrdMJt_3std2io17default_write_fmt7AdapterNtNtB9_2fs4FileENtNtCsieiGu2EXtoJ_4core3fmt5Write9write_fmtCs3MTn1ylDH3J_18build_script_build, symObjAddr: 0x2610, symBinAddr: 0x100013CB0, symSize: 0x20 }
  - { offset: 0x2DF81, size: 0x8, addend: 0x0, symName: __RNvYINtNvNtCsHUR1vrdMJt_3std2io17default_write_fmt7AdapterNtNtNtNtB9_3sys5stdio4unix6StderrENtNtCsieiGu2EXtoJ_4core3fmt5Write10write_charCs3MTn1ylDH3J_18build_script_build, symObjAddr: 0x2630, symBinAddr: 0x100013CD0, symSize: 0x70 }
  - { offset: 0x2DFE9, size: 0x8, addend: 0x0, symName: __RNvYINtNvNtCsHUR1vrdMJt_3std2io17default_write_fmt7AdapterNtNtNtNtB9_3sys5stdio4unix6StderrENtNtCsieiGu2EXtoJ_4core3fmt5Write9write_fmtCs3MTn1ylDH3J_18build_script_build, symObjAddr: 0x26A0, symBinAddr: 0x100013D40, symSize: 0x20 }
  - { offset: 0x2E222, size: 0x8, addend: 0x0, symName: __RINvMs2_NtCsHUR1vrdMJt_3std2fsNtB6_4File4openReECs3MTn1ylDH3J_18build_script_build, symObjAddr: 0x0, symBinAddr: 0x1000116A0, symSize: 0xB0 }
  - { offset: 0x2E57D, size: 0x8, addend: 0x0, symName: __RNvXs1_NtCslJiobkLta79_5alloc5allocNtB5_6GlobalNtNtCsieiGu2EXtoJ_4core5clone5Clone5cloneCs3MTn1ylDH3J_18build_script_build, symObjAddr: 0x1C50, symBinAddr: 0x1000132F0, symSize: 0x10 }
  - { offset: 0x2E5CE, size: 0x8, addend: 0x0, symName: __RNvXs_NtCslJiobkLta79_5alloc5allocNtB4_6GlobalNtNtCsieiGu2EXtoJ_4core5alloc9Allocator10deallocateCs3MTn1ylDH3J_18build_script_build, symObjAddr: 0x1CA0, symBinAddr: 0x100013340, symSize: 0x70 }
  - { offset: 0x2E696, size: 0x8, addend: 0x0, symName: __RNvXs_NtCslJiobkLta79_5alloc5allocNtB4_6GlobalNtNtCsieiGu2EXtoJ_4core5alloc9Allocator8allocateCs3MTn1ylDH3J_18build_script_build, symObjAddr: 0x1D10, symBinAddr: 0x1000133B0, symSize: 0x30 }
  - { offset: 0x2E801, size: 0x8, addend: 0x0, symName: __RINvMs3_NtCslJiobkLta79_5alloc3stre7replacecECs3MTn1ylDH3J_18build_script_build, symObjAddr: 0x170, symBinAddr: 0x100011810, symSize: 0x900 }
  - { offset: 0x2F32D, size: 0x8, addend: 0x0, symName: __RNCNvNtCslJiobkLta79_5alloc3str13replace_ascii0Cs3MTn1ylDH3J_18build_script_build, symObjAddr: 0x1420, symBinAddr: 0x100012AC0, symSize: 0x40 }
  - { offset: 0x2F454, size: 0x8, addend: 0x0, symName: __RINvMs2_NtCsHUR1vrdMJt_3std2fsNtB6_4File6createRNtNtB8_4path7PathBufECs3MTn1ylDH3J_18build_script_build, symObjAddr: 0xB0, symBinAddr: 0x100011750, symSize: 0xC0 }
  - { offset: 0x2F958, size: 0x8, addend: 0x0, symName: __RINvMsg_NtCsHUR1vrdMJt_3std2fsNtB6_11OpenOptions4openRNtNtB8_4path4PathECs3MTn1ylDH3J_18build_script_build, symObjAddr: 0xA70, symBinAddr: 0x100012110, symSize: 0x70 }
  - { offset: 0x30058, size: 0x8, addend: 0x0, symName: __RNvMNtCslJiobkLta79_5alloc5allocNtB2_6Global10alloc_implCs3MTn1ylDH3J_18build_script_build, symObjAddr: 0x1490, symBinAddr: 0x100012B30, symSize: 0x290 }
  - { offset: 0x307BB, size: 0x8, addend: 0x0, symName: ___llvm_profile_get_magic, symObjAddr: 0x20, symBinAddr: 0x100014220, symSize: 0x10 }
  - { offset: 0x307DC, size: 0x8, addend: 0x0, symName: ___llvm_profile_get_num_padding_bytes, symObjAddr: 0x40, symBinAddr: 0x100014230, symSize: 0x10 }
  - { offset: 0x3080D, size: 0x8, addend: 0x0, symName: ___llvm_profile_get_version, symObjAddr: 0x50, symBinAddr: 0x100014240, symSize: 0x10 }
  - { offset: 0x30882, size: 0x8, addend: 0x0, symName: ___llvm_profile_is_continuous_mode_enabled, symObjAddr: 0x0, symBinAddr: 0x100014250, symSize: 0x20 }
  - { offset: 0x3089F, size: 0x8, addend: 0x0, symName: _ContinuouslySyncProfile, symObjAddr: 0x40E0, symBinAddr: 0x10006C4C0, symSize: 0x0 }
  - { offset: 0x308C1, size: 0x8, addend: 0x0, symName: _PageSize, symObjAddr: 0x40E4, symBinAddr: 0x10006C4C4, symSize: 0x0 }
  - { offset: 0x308EF, size: 0x8, addend: 0x0, symName: ___llvm_profile_is_continuous_mode_enabled, symObjAddr: 0x0, symBinAddr: 0x100014250, symSize: 0x20 }
  - { offset: 0x30910, size: 0x8, addend: 0x0, symName: ___llvm_profile_enable_continuous_mode, symObjAddr: 0x20, symBinAddr: 0x100014270, symSize: 0x10 }
  - { offset: 0x3092D, size: 0x8, addend: 0x0, symName: ___llvm_profile_disable_continuous_mode, symObjAddr: 0x30, symBinAddr: 0x100014280, symSize: 0x10 }
  - { offset: 0x3094A, size: 0x8, addend: 0x0, symName: ___llvm_profile_set_page_size, symObjAddr: 0x40, symBinAddr: 0x100014290, symSize: 0x10 }
  - { offset: 0x30975, size: 0x8, addend: 0x0, symName: ___llvm_profile_get_size_for_buffer, symObjAddr: 0x50, symBinAddr: 0x1000142A0, symSize: 0xD0 }
  - { offset: 0x30DC3, size: 0x8, addend: 0x0, symName: ___llvm_profile_get_size_for_buffer_internal, symObjAddr: 0x120, symBinAddr: 0x100014370, symSize: 0x210 }
  - { offset: 0x31167, size: 0x8, addend: 0x0, symName: ___llvm_profile_get_num_data, symObjAddr: 0x330, symBinAddr: 0x100014580, symSize: 0x10 }
  - { offset: 0x311A0, size: 0x8, addend: 0x0, symName: ___llvm_profile_get_data_size, symObjAddr: 0x340, symBinAddr: 0x100014590, symSize: 0x10 }
  - { offset: 0x311CC, size: 0x8, addend: 0x0, symName: ___llvm_profile_get_data_size, symObjAddr: 0x340, symBinAddr: 0x100014590, symSize: 0x10 }
  - { offset: 0x31202, size: 0x8, addend: 0x0, symName: ___llvm_profile_get_num_vtable, symObjAddr: 0x350, symBinAddr: 0x1000145A0, symSize: 0x20 }
  - { offset: 0x31258, size: 0x8, addend: 0x0, symName: ___llvm_profile_get_vtable_section_size, symObjAddr: 0x370, symBinAddr: 0x1000145C0, symSize: 0x10 }
  - { offset: 0x3127F, size: 0x8, addend: 0x0, symName: ___llvm_profile_counter_entry_size, symObjAddr: 0x380, symBinAddr: 0x1000145D0, symSize: 0x20 }
  - { offset: 0x31297, size: 0x8, addend: 0x0, symName: ___llvm_profile_get_num_counters, symObjAddr: 0x3A0, symBinAddr: 0x1000145F0, symSize: 0x50 }
  - { offset: 0x312EC, size: 0x8, addend: 0x0, symName: ___llvm_profile_get_counters_size, symObjAddr: 0x3F0, symBinAddr: 0x100014640, symSize: 0x60 }
  - { offset: 0x31380, size: 0x8, addend: 0x0, symName: ___llvm_profile_get_num_bitmap_bytes, symObjAddr: 0x450, symBinAddr: 0x1000146A0, symSize: 0x10 }
  - { offset: 0x313A7, size: 0x8, addend: 0x0, symName: ___llvm_profile_get_name_size, symObjAddr: 0x460, symBinAddr: 0x1000146B0, symSize: 0x10 }
  - { offset: 0x313CE, size: 0x8, addend: 0x0, symName: ___llvm_profile_get_padding_sizes_for_counters, symObjAddr: 0x470, symBinAddr: 0x1000146C0, symSize: 0x1B0 }
  - { offset: 0x314ED, size: 0x8, addend: 0x0, symName: _initBufferWriter, symObjAddr: 0x620, symBinAddr: 0x100014870, symSize: 0x10 }
  - { offset: 0x31657, size: 0x8, addend: 0x0, symName: _lprofCurFilename, symObjAddr: 0xA6F8, symBinAddr: 0x10006C4C8, symSize: 0x0 }
  - { offset: 0x31780, size: 0x8, addend: 0x0, symName: _ProfileFile, symObjAddr: 0xA7C8, symBinAddr: 0x10006C598, symSize: 0x0 }
  - { offset: 0x319AE, size: 0x8, addend: 0x0, symName: _ProfileMergeRequested, symObjAddr: 0xA7D0, symBinAddr: 0x10006C5A0, symSize: 0x0 }
  - { offset: 0x31B51, size: 0x8, addend: 0x0, symName: _getCurFilenameLength, symObjAddr: 0x180, symBinAddr: 0x100014880, symSize: 0xE0 }
  - { offset: 0x31BDC, size: 0x8, addend: 0x0, symName: _getCurFilename, symObjAddr: 0x260, symBinAddr: 0x100014960, symSize: 0x380 }
  - { offset: 0x31E6C, size: 0x8, addend: 0x0, symName: _parseAndSetFilename, symObjAddr: 0x6B0, symBinAddr: 0x100014CE0, symSize: 0x590 }
  - { offset: 0x3208A, size: 0x8, addend: 0x0, symName: ___llvm_profile_initialize, symObjAddr: 0xC40, symBinAddr: 0x100015270, symSize: 0x90 }
  - { offset: 0x32106, size: 0x8, addend: 0x0, symName: ___llvm_profile_write_file, symObjAddr: 0xD30, symBinAddr: 0x100015300, symSize: 0x160 }
  - { offset: 0x322D9, size: 0x8, addend: 0x0, symName: _writeFile, symObjAddr: 0xE90, symBinAddr: 0x100015460, symSize: 0x2B0 }
  - { offset: 0x32482, size: 0x8, addend: 0x0, symName: _writeFileWithoutReturn, symObjAddr: 0x1190, symBinAddr: 0x100015710, symSize: 0x10 }
  - { offset: 0x324B9, size: 0x8, addend: 0x0, symName: _getProfileFileSizeForMerging, symObjAddr: 0x13C0, symBinAddr: 0x100015720, symSize: 0xC0 }
  - { offset: 0x324FE, size: 0x8, addend: 0x0, symName: _mmapForContinuousMode, symObjAddr: 0x1480, symBinAddr: 0x1000157E0, symSize: 0x2D0 }
  - { offset: 0x326BD, size: 0x8, addend: 0x0, symName: _fileWriter, symObjAddr: 0x1750, symBinAddr: 0x100015AB0, symSize: 0x150 }
  - { offset: 0x3278D, size: 0x8, addend: 0x0, symName: _binaryIdsStringWriter, symObjAddr: 0x18A0, symBinAddr: 0x100015C00, symSize: 0xA0 }
  - { offset: 0x3282E, size: 0x8, addend: 0x0, symName: _truncateCurrentFile, symObjAddr: 0x1940, symBinAddr: 0x100015CA0, symSize: 0xB0 }
  - { offset: 0x328D4, size: 0x8, addend: 0x0, symName: _initializeProfileForContinuousMode, symObjAddr: 0x19F0, symBinAddr: 0x100015D50, symSize: 0x2C0 }
  - { offset: 0x32AC3, size: 0x8, addend: 0x0, symName: _createProfileDir, symObjAddr: 0x1CB0, symBinAddr: 0x100016010, symSize: 0x7F }
  - { offset: 0x32C34, size: 0x8, addend: 0x0, symName: _lprofProfileDumped, symObjAddr: 0x0, symBinAddr: 0x100016090, symSize: 0x10 }
  - { offset: 0x32C51, size: 0x8, addend: 0x0, symName: _ProfileDumped, symObjAddr: 0x4E0, symBinAddr: 0x10006C5A4, symSize: 0x0 }
  - { offset: 0x32C61, size: 0x8, addend: 0x0, symName: _lprofProfileDumped, symObjAddr: 0x0, symBinAddr: 0x100016090, symSize: 0x10 }
  - { offset: 0x32CA9, size: 0x8, addend: 0x0, symName: _lprofGetLoadModuleSignature, symObjAddr: 0x0, symBinAddr: 0x1000160A0, symSize: 0xE0 }
  - { offset: 0x32CD6, size: 0x8, addend: 0x0, symName: _VPMergeHook, symObjAddr: 0x2AA0, symBinAddr: 0x10006E790, symSize: 0x0 }
  - { offset: 0x32F3C, size: 0x8, addend: 0x0, symName: _lprofGetLoadModuleSignature, symObjAddr: 0x0, symBinAddr: 0x1000160A0, symSize: 0xE0 }
  - { offset: 0x32FB0, size: 0x8, addend: 0x0, symName: ___llvm_profile_check_compatibility, symObjAddr: 0xE0, symBinAddr: 0x100016180, symSize: 0x190 }
  - { offset: 0x33090, size: 0x8, addend: 0x0, symName: ___llvm_profile_merge_from_buffer, symObjAddr: 0x270, symBinAddr: 0x100016310, symSize: 0x4D8 }
  - { offset: 0x332F0, size: 0x8, addend: 0x0, symName: _lprofMergeValueProfData, symObjAddr: 0x0, symBinAddr: 0x1000167F0, symSize: 0xF1 }
  - { offset: 0x33301, size: 0x8, addend: 0x0, symName: _lprofMergeValueProfData, symObjAddr: 0x0, symBinAddr: 0x1000167F0, symSize: 0xF1 }
  - { offset: 0x335C6, size: 0x8, addend: 0x0, symName: ___llvm_profile_begin_data, symObjAddr: 0x0, symBinAddr: 0x1000168F0, symSize: 0x10 }
  - { offset: 0x335E5, size: 0x8, addend: 0x0, symName: _CurrentVNode, symObjAddr: 0xE8, symBinAddr: 0x10006B9B0, symSize: 0x0 }
  - { offset: 0x33661, size: 0x8, addend: 0x0, symName: _EndVNode, symObjAddr: 0xF0, symBinAddr: 0x10006B9B8, symSize: 0x0 }
  - { offset: 0x3366A, size: 0x8, addend: 0x0, symName: ___llvm_profile_begin_data, symObjAddr: 0x0, symBinAddr: 0x1000168F0, symSize: 0x10 }
  - { offset: 0x3368B, size: 0x8, addend: 0x0, symName: ___llvm_profile_end_data, symObjAddr: 0x10, symBinAddr: 0x100016900, symSize: 0x10 }
  - { offset: 0x336AC, size: 0x8, addend: 0x0, symName: ___llvm_profile_begin_names, symObjAddr: 0x20, symBinAddr: 0x100016910, symSize: 0x10 }
  - { offset: 0x336CD, size: 0x8, addend: 0x0, symName: ___llvm_profile_end_names, symObjAddr: 0x30, symBinAddr: 0x100016920, symSize: 0x10 }
  - { offset: 0x336EE, size: 0x8, addend: 0x0, symName: ___llvm_profile_begin_counters, symObjAddr: 0x40, symBinAddr: 0x100016930, symSize: 0x10 }
  - { offset: 0x3370F, size: 0x8, addend: 0x0, symName: ___llvm_profile_end_counters, symObjAddr: 0x50, symBinAddr: 0x100016940, symSize: 0x10 }
  - { offset: 0x33730, size: 0x8, addend: 0x0, symName: ___llvm_profile_begin_bitmap, symObjAddr: 0x60, symBinAddr: 0x100016950, symSize: 0x10 }
  - { offset: 0x33751, size: 0x8, addend: 0x0, symName: ___llvm_profile_end_bitmap, symObjAddr: 0x70, symBinAddr: 0x100016960, symSize: 0x10 }
  - { offset: 0x33772, size: 0x8, addend: 0x0, symName: ___llvm_profile_begin_vtables, symObjAddr: 0x80, symBinAddr: 0x100016970, symSize: 0x10 }
  - { offset: 0x33793, size: 0x8, addend: 0x0, symName: ___llvm_profile_end_vtables, symObjAddr: 0x90, symBinAddr: 0x100016980, symSize: 0x10 }
  - { offset: 0x337B4, size: 0x8, addend: 0x0, symName: ___llvm_profile_begin_vtabnames, symObjAddr: 0xA0, symBinAddr: 0x100016990, symSize: 0x10 }
  - { offset: 0x337D5, size: 0x8, addend: 0x0, symName: ___llvm_profile_end_vtabnames, symObjAddr: 0xB0, symBinAddr: 0x1000169A0, symSize: 0x10 }
  - { offset: 0x337F6, size: 0x8, addend: 0x0, symName: ___llvm_profile_begin_vnodes, symObjAddr: 0xC0, symBinAddr: 0x1000169B0, symSize: 0x10 }
  - { offset: 0x33817, size: 0x8, addend: 0x0, symName: ___llvm_profile_end_vnodes, symObjAddr: 0xD0, symBinAddr: 0x1000169C0, symSize: 0x10 }
  - { offset: 0x33838, size: 0x8, addend: 0x0, symName: ___llvm_write_binary_ids, symObjAddr: 0xE0, symBinAddr: 0x1000169D0, symSize: 0x3 }
  - { offset: 0x33ABC, size: 0x8, addend: 0x0, symName: __GLOBAL__sub_I_InstrProfilingRuntime.cpp, symObjAddr: 0x0, symBinAddr: 0x1000169E0, symSize: 0x12 }
  - { offset: 0x33ADF, size: 0x8, addend: 0x0, symName: ___llvm_profile_runtime, symObjAddr: 0x580, symBinAddr: 0x10006E798, symSize: 0x0 }
  - { offset: 0x33B10, size: 0x8, addend: 0x0, symName: __GLOBAL__sub_I_InstrProfilingRuntime.cpp, symObjAddr: 0x0, symBinAddr: 0x1000169E0, symSize: 0x12 }
  - { offset: 0x33B8C, size: 0x8, addend: 0x0, symName: ___llvm_profile_recursive_mkdir, symObjAddr: 0x0, symBinAddr: 0x100016A00, symSize: 0x40 }
  - { offset: 0x33BAB, size: 0x8, addend: 0x0, symName: _lprofDirMode, symObjAddr: 0x6F8, symBinAddr: 0x10006B9C0, symSize: 0x0 }
  - { offset: 0x33C16, size: 0x8, addend: 0x0, symName: ___llvm_profile_recursive_mkdir, symObjAddr: 0x0, symBinAddr: 0x100016A00, symSize: 0x40 }
  - { offset: 0x33C95, size: 0x8, addend: 0x0, symName: _lprofGetHostName, symObjAddr: 0x60, symBinAddr: 0x100016A40, symSize: 0x70 }
  - { offset: 0x33DC9, size: 0x8, addend: 0x0, symName: _lprofLockFileHandle, symObjAddr: 0x1B0, symBinAddr: 0x100016AB0, symSize: 0x70 }
  - { offset: 0x33E57, size: 0x8, addend: 0x0, symName: _lprofUnlockFileHandle, symObjAddr: 0x220, symBinAddr: 0x100016B20, symSize: 0x70 }
  - { offset: 0x33EBF, size: 0x8, addend: 0x0, symName: _lprofOpenFileEx, symObjAddr: 0x290, symBinAddr: 0x100016B90, symSize: 0xB0 }
  - { offset: 0x33F51, size: 0x8, addend: 0x0, symName: _lprofGetFileContentBuffer, symObjAddr: 0x340, symBinAddr: 0x100016C40, symSize: 0x1B0 }
  - { offset: 0x33FE0, size: 0x8, addend: 0x0, symName: _lprofReleaseBuffer, symObjAddr: 0x4F0, symBinAddr: 0x100016DF0, symSize: 0x70 }
  - { offset: 0x34022, size: 0x8, addend: 0x0, symName: _lprofFindFirstDirSeparator, symObjAddr: 0x660, symBinAddr: 0x100016E60, symSize: 0x10 }
  - { offset: 0x34062, size: 0x8, addend: 0x0, symName: _lprofSuspendSigKill, symObjAddr: 0x680, symBinAddr: 0x100016E70, symSize: 0x10 }
  - { offset: 0x34085, size: 0x8, addend: 0x0, symName: _lprofRestoreSigKill, symObjAddr: 0x690, symBinAddr: 0x100016E80, symSize: 0x10 }
  - { offset: 0x340A4, size: 0x8, addend: 0x0, symName: _lprofAtExit, symObjAddr: 0x6F0, symBinAddr: 0x100016E90, symSize: 0x5 }
  - { offset: 0x343B5, size: 0x8, addend: 0x0, symName: _getValueProfRecordHeaderSize, symObjAddr: 0x0, symBinAddr: 0x100016EA0, symSize: 0x10 }
  - { offset: 0x343D4, size: 0x8, addend: 0x0, symName: _VPMaxNumValsPerSite, symObjAddr: 0x1468, symBinAddr: 0x10006B9C8, symSize: 0x0 }
  - { offset: 0x34469, size: 0x8, addend: 0x0, symName: _hasNonDefaultValsPerSite, symObjAddr: 0xEE78, symBinAddr: 0x10006C5A8, symSize: 0x0 }
  - { offset: 0x34490, size: 0x8, addend: 0x0, symName: _OutOfNodesWarnings, symObjAddr: 0xEE80, symBinAddr: 0x10006C5B0, symSize: 0x0 }
  - { offset: 0x344A5, size: 0x8, addend: 0x0, symName: _hasStaticCounters, symObjAddr: 0xEE7C, symBinAddr: 0x10006C5AC, symSize: 0x0 }
  - { offset: 0x344C2, size: 0x8, addend: 0x0, symName: _TheVPDataReader, symObjAddr: 0x1470, symBinAddr: 0x10006B9D0, symSize: 0x0 }
  - { offset: 0x3475F, size: 0x8, addend: 0x0, symName: _RTRecord, symObjAddr: 0xEE88, symBinAddr: 0x10006C5B8, symSize: 0x0 }
  - { offset: 0x3494C, size: 0x8, addend: 0x0, symName: _getValueProfRecordHeaderSize, symObjAddr: 0x0, symBinAddr: 0x100016EA0, symSize: 0x10 }
  - { offset: 0x349A0, size: 0x8, addend: 0x0, symName: _getValueProfRecordValueData, symObjAddr: 0x20, symBinAddr: 0x100016EB0, symSize: 0x10 }
  - { offset: 0x34A4C, size: 0x8, addend: 0x0, symName: _getValueProfRecordNext, symObjAddr: 0x130, symBinAddr: 0x100016EC0, symSize: 0x100 }
  - { offset: 0x34A54, size: 0x8, addend: 0x0, symName: _getFirstValueProfRecord, symObjAddr: 0x230, symBinAddr: 0x100016FC0, symSize: 0x10 }
  - { offset: 0x34ADA, size: 0x8, addend: 0x0, symName: _getFirstValueProfRecord, symObjAddr: 0x230, symBinAddr: 0x100016FC0, symSize: 0x10 }
  - { offset: 0x34BBA, size: 0x8, addend: 0x0, symName: _lprofSetupValueProfiler, symObjAddr: 0x8C0, symBinAddr: 0x100016FD0, symSize: 0x50 }
  - { offset: 0x34CCC, size: 0x8, addend: 0x0, symName: ___llvm_profile_instrument_target_value, symObjAddr: 0xB90, symBinAddr: 0x100017020, symSize: 0x240 }
  - { offset: 0x34DE7, size: 0x8, addend: 0x0, symName: _lprofGetVPDataReader, symObjAddr: 0xE20, symBinAddr: 0x100017260, symSize: 0x10 }
  - { offset: 0x34E0A, size: 0x8, addend: 0x0, symName: _initializeValueProfRuntimeRecord, symObjAddr: 0xE30, symBinAddr: 0x100017270, symSize: 0x390 }
  - { offset: 0x34F2F, size: 0x8, addend: 0x0, symName: _getNumValueDataForSiteWrapper, symObjAddr: 0x11C0, symBinAddr: 0x100017600, symSize: 0x20 }
  - { offset: 0x34F73, size: 0x8, addend: 0x0, symName: _getNumValueDataForSiteWrapper, symObjAddr: 0x11C0, symBinAddr: 0x100017600, symSize: 0x20 }
  - { offset: 0x34F99, size: 0x8, addend: 0x0, symName: _getValueProfDataSizeWrapper, symObjAddr: 0x11E0, symBinAddr: 0x100017620, symSize: 0xB0 }
  - { offset: 0x34FBF, size: 0x8, addend: 0x0, symName: _getValueProfDataSizeWrapper, symObjAddr: 0x11E0, symBinAddr: 0x100017620, symSize: 0xB0 }
  - { offset: 0x34FF0, size: 0x8, addend: 0x0, symName: _getValueProfDataSizeWrapper, symObjAddr: 0x11E0, symBinAddr: 0x100017620, symSize: 0xB0 }
  - { offset: 0x3504D, size: 0x8, addend: 0x0, symName: _getNextNValueData, symObjAddr: 0x1290, symBinAddr: 0x1000176D0, symSize: 0xC0 }
  - { offset: 0x350E7, size: 0x8, addend: 0x0, symName: _getNumValueSitesRT, symObjAddr: 0x1350, symBinAddr: 0x100017790, symSize: 0x10 }
  - { offset: 0x35128, size: 0x8, addend: 0x0, symName: _getNumValueDataRT, symObjAddr: 0x1360, symBinAddr: 0x1000177A0, symSize: 0x101 }
  - { offset: 0x351E0, size: 0x8, addend: 0x0, symName: ___llvm_profile_raw_version, symObjAddr: 0x0, symBinAddr: 0x10006BA00, symSize: 0x0 }
  - { offset: 0x35222, size: 0x8, addend: 0x0, symName: _lprofBufferWriter, symObjAddr: 0x0, symBinAddr: 0x1000178B0, symSize: 0x60 }
  - { offset: 0x35241, size: 0x8, addend: 0x0, symName: _FreeHook, symObjAddr: 0x55B0, symBinAddr: 0x10006E7A0, symSize: 0x0 }
  - { offset: 0x35267, size: 0x8, addend: 0x0, symName: _DynamicBufferIOBuffer, symObjAddr: 0x55B8, symBinAddr: 0x10006E7A8, symSize: 0x0 }
  - { offset: 0x35295, size: 0x8, addend: 0x0, symName: _VPBufferSize, symObjAddr: 0x55C0, symBinAddr: 0x10006E7B0, symSize: 0x0 }
  - { offset: 0x352BC, size: 0x8, addend: 0x0, symName: _TheBufferIO, symObjAddr: 0x75D0, symBinAddr: 0x10006E5E0, symSize: 0x0 }
  - { offset: 0x35406, size: 0x8, addend: 0x0, symName: _BufferIOBuffer, symObjAddr: 0x55D0, symBinAddr: 0x10006C5E0, symSize: 0x0 }
  - { offset: 0x35430, size: 0x8, addend: 0x0, symName: _VPDataArray, symObjAddr: 0x75F0, symBinAddr: 0x10006E600, symSize: 0x0 }
  - { offset: 0x354A8, size: 0x8, addend: 0x0, symName: _lprofBufferWriter, symObjAddr: 0x0, symBinAddr: 0x1000178B0, symSize: 0x60 }
  - { offset: 0x355C1, size: 0x8, addend: 0x0, symName: _lprofBufferIOWrite, symObjAddr: 0x100, symBinAddr: 0x100017910, symSize: 0x110 }
  - { offset: 0x356DA, size: 0x8, addend: 0x0, symName: _lprofWriteData, symObjAddr: 0x2A0, symBinAddr: 0x100017A20, symSize: 0x120 }
  - { offset: 0x35B17, size: 0x8, addend: 0x0, symName: _lprofWriteDataImpl, symObjAddr: 0x3C0, symBinAddr: 0x100017B40, symSize: 0x6E0 }
  - { offset: 0x35E72, size: 0x8, addend: 0x0, symName: _writeOneValueProfData, symObjAddr: 0xB40, symBinAddr: 0x100018220, symSize: 0x438 }
  - { offset: 0x3612C, size: 0x8, addend: 0x0, symName: __RNvCskdKJRKLKjqM_7___rustc10rust_panic, symObjAddr: 0x0, symBinAddr: 0x100054050, symSize: 0x70 }
  - { offset: 0x36474, size: 0x8, addend: 0x0, symName: '__ZN42_$LT$$RF$T$u20$as$u20$core..fmt..Debug$GT$3fmt17h611062ea6589b381E', symObjAddr: 0x27920, symBinAddr: 0x100028220, symSize: 0x30 }
  - { offset: 0x364BA, size: 0x8, addend: 0x0, symName: '__ZN42_$LT$$RF$T$u20$as$u20$core..fmt..Debug$GT$3fmt17h67462dcd352e9f70E', symObjAddr: 0x27A20, symBinAddr: 0x100028250, symSize: 0x30 }
  - { offset: 0x36500, size: 0x8, addend: 0x0, symName: '__ZN42_$LT$$RF$T$u20$as$u20$core..fmt..Debug$GT$3fmt17ha3f9e4fd80ade547E', symObjAddr: 0x27D30, symBinAddr: 0x100028280, symSize: 0x20 }
  - { offset: 0x36514, size: 0x8, addend: 0x0, symName: '__ZN42_$LT$$RF$T$u20$as$u20$core..fmt..Debug$GT$3fmt17hd6b383e11abcf534E', symObjAddr: 0x27FB0, symBinAddr: 0x1000282A0, symSize: 0x20 }
  - { offset: 0x36545, size: 0x8, addend: 0x0, symName: '__ZN42_$LT$$RF$T$u20$as$u20$core..fmt..Debug$GT$3fmt17hedcae28885211270E', symObjAddr: 0x28060, symBinAddr: 0x1000282C0, symSize: 0x80 }
  - { offset: 0x36669, size: 0x8, addend: 0x0, symName: '__ZN44_$LT$$RF$T$u20$as$u20$core..fmt..Display$GT$3fmt17h2befab159451fc05E', symObjAddr: 0x28130, symBinAddr: 0x100028340, symSize: 0x20 }
  - { offset: 0x36684, size: 0x8, addend: 0x0, symName: '__ZN44_$LT$$RF$T$u20$as$u20$core..fmt..Display$GT$3fmt17had011a6e3beb8b51E', symObjAddr: 0x28150, symBinAddr: 0x100028360, symSize: 0x90 }
  - { offset: 0x3672E, size: 0x8, addend: 0x0, symName: '__ZN4core3fmt3num50_$LT$impl$u20$core..fmt..Debug$u20$for$u20$i32$GT$3fmt17h0317b62489790191E', symObjAddr: 0x284D0, symBinAddr: 0x1000284B0, symSize: 0x30 }
  - { offset: 0x3675D, size: 0x8, addend: 0x0, symName: '__ZN4core3fmt3num52_$LT$impl$u20$core..fmt..Debug$u20$for$u20$usize$GT$3fmt17h4806199c82f902ceE', symObjAddr: 0x28590, symBinAddr: 0x1000284E0, symSize: 0x30 }
  - { offset: 0x367AE, size: 0x8, addend: 0x0, symName: __ZN4core3fmt5Write10write_char17h2203fddc9d642afeE, symObjAddr: 0x285C0, symBinAddr: 0x100028510, symSize: 0xF0 }
  - { offset: 0x368F5, size: 0x8, addend: 0x0, symName: __ZN4core3fmt5Write10write_char17h80d2a9496aca00b0E, symObjAddr: 0x28810, symBinAddr: 0x100028600, symSize: 0xE0 }
  - { offset: 0x36979, size: 0x8, addend: 0x0, symName: __ZN4core3fmt5Write10write_char17hc46b6f7c3c3194cbE, symObjAddr: 0x288F0, symBinAddr: 0x1000286E0, symSize: 0x130 }
  - { offset: 0x36B1B, size: 0x8, addend: 0x0, symName: __ZN4core3fmt5Write10write_char17hcc4819a43ad01bd6E, symObjAddr: 0x28A20, symBinAddr: 0x100028810, symSize: 0xE0 }
  - { offset: 0x36B9F, size: 0x8, addend: 0x0, symName: __ZN4core3fmt5Write10write_char17hdac7d1ed87bd809bE, symObjAddr: 0x28B00, symBinAddr: 0x1000288F0, symSize: 0x160 }
  - { offset: 0x36D5F, size: 0x8, addend: 0x0, symName: __ZN4core3fmt5Write9write_fmt17hc429ab0415a42d62E, symObjAddr: 0x28CB0, symBinAddr: 0x100028A50, symSize: 0x50 }
  - { offset: 0x36D8E, size: 0x8, addend: 0x0, symName: __ZN4core3fmt5Write9write_fmt17hd3928726ab1abb27E, symObjAddr: 0x28D00, symBinAddr: 0x100028AA0, symSize: 0x50 }
  - { offset: 0x36DBD, size: 0x8, addend: 0x0, symName: __ZN4core3fmt5Write9write_fmt17he343009274951ef4E, symObjAddr: 0x28D50, symBinAddr: 0x100028AF0, symSize: 0x50 }
  - { offset: 0x36DEC, size: 0x8, addend: 0x0, symName: __ZN4core3fmt5Write9write_fmt17he408d8c37cd4c2c5E, symObjAddr: 0x28DA0, symBinAddr: 0x100028B40, symSize: 0x50 }
  - { offset: 0x36E1B, size: 0x8, addend: 0x0, symName: __ZN4core3fmt5Write9write_fmt17hec70cb0fc9ef19e4E, symObjAddr: 0x28DF0, symBinAddr: 0x100028B90, symSize: 0x50 }
  - { offset: 0x36E4A, size: 0x8, addend: 0x0, symName: __ZN4core3fmt5Write9write_fmt17hfbfca6c33e82dca5E, symObjAddr: 0x28E40, symBinAddr: 0x100028BE0, symSize: 0x50 }
  - { offset: 0x36EA7, size: 0x8, addend: 0x0, symName: '__ZN50_$LT$$BP$mut$u20$T$u20$as$u20$core..fmt..Debug$GT$3fmt17h461ef72b23c2334dE', symObjAddr: 0x3AB30, symBinAddr: 0x100035370, symSize: 0x10 }
  - { offset: 0x36EF4, size: 0x8, addend: 0x0, symName: '__ZN52_$LT$$RF$mut$u20$T$u20$as$u20$core..fmt..Display$GT$3fmt17he99623082ea1fa3dE', symObjAddr: 0x3B1B0, symBinAddr: 0x100035380, symSize: 0x20 }
  - { offset: 0x3914E, size: 0x8, addend: 0x0, symName: '__ZN4core3ptr107drop_in_place$LT$core..pin..Pin$LT$alloc..boxed..Box$LT$std..sys..pal..unix..sync..mutex..Mutex$GT$$GT$$GT$17he4bee0bcfb03f75fE', symObjAddr: 0x294F0, symBinAddr: 0x100028E40, symSize: 0x30 }
  - { offset: 0x391E5, size: 0x8, addend: 0x0, symName: '__ZN4core3ptr109drop_in_place$LT$alloc..sync..Arc$LT$std..sync..poison..mutex..Mutex$LT$alloc..vec..Vec$LT$u8$GT$$GT$$GT$$GT$17he5b3c9d5553080edE', symObjAddr: 0x29520, symBinAddr: 0x100028E70, symSize: 0x20 }
  - { offset: 0x39266, size: 0x8, addend: 0x0, symName: '__ZN4core3ptr119drop_in_place$LT$std..io..default_write_fmt..Adapter$LT$std..io..cursor..Cursor$LT$$RF$mut$u20$$u5b$u8$u5d$$GT$$GT$$GT$17h8ef58680b6ede286E', symObjAddr: 0x295C0, symBinAddr: 0x100028E90, symSize: 0x20 }
  - { offset: 0x39289, size: 0x8, addend: 0x0, symName: '__ZN4core3ptr123drop_in_place$LT$addr2line..Context$LT$gimli..read..endian_slice..EndianSlice$LT$gimli..endianity..LittleEndian$GT$$GT$$GT$17h4096ebf47a84add1E', symObjAddr: 0x295E0, symBinAddr: 0x100028EB0, symSize: 0x60 }
  - { offset: 0x3932E, size: 0x8, addend: 0x0, symName: '__ZN4core3ptr128drop_in_place$LT$core..result..Result$LT$$RF$std..thread..Thread$C$$LP$$RF$std..thread..Thread$C$std..thread..Thread$RP$$GT$$GT$17h5b35dce14f68d27eE', symObjAddr: 0x29640, symBinAddr: 0x100028F10, symSize: 0x20 }
  - { offset: 0x39450, size: 0x8, addend: 0x0, symName: '__ZN4core3ptr129drop_in_place$LT$addr2line..unit..ResUnit$LT$gimli..read..endian_slice..EndianSlice$LT$gimli..endianity..LittleEndian$GT$$GT$$GT$17h5b41b59ec8c6acd1E', symObjAddr: 0x29660, symBinAddr: 0x100028F30, symSize: 0x100 }
  - { offset: 0x3965E, size: 0x8, addend: 0x0, symName: '__ZN4core3ptr129drop_in_place$LT$addr2line..unit..SupUnit$LT$gimli..read..endian_slice..EndianSlice$LT$gimli..endianity..LittleEndian$GT$$GT$$GT$17h7745e598093ea497E', symObjAddr: 0x29760, symBinAddr: 0x100029030, symSize: 0x50 }
  - { offset: 0x39709, size: 0x8, addend: 0x0, symName: '__ZN4core3ptr130drop_in_place$LT$addr2line..unit..ResUnits$LT$gimli..read..endian_slice..EndianSlice$LT$gimli..endianity..LittleEndian$GT$$GT$$GT$17h8ac001c378159224E', symObjAddr: 0x297B0, symBinAddr: 0x100029080, symSize: 0xE0 }
  - { offset: 0x398B2, size: 0x8, addend: 0x0, symName: '__ZN4core3ptr130drop_in_place$LT$addr2line..unit..SupUnits$LT$gimli..read..endian_slice..EndianSlice$LT$gimli..endianity..LittleEndian$GT$$GT$$GT$17hf4d4e85b8cf1677eE', symObjAddr: 0x29890, symBinAddr: 0x100029160, symSize: 0xE0 }
  - { offset: 0x39A4E, size: 0x8, addend: 0x0, symName: '__ZN4core3ptr130drop_in_place$LT$gimli..read..dwarf..Dwarf$LT$gimli..read..endian_slice..EndianSlice$LT$gimli..endianity..LittleEndian$GT$$GT$$GT$17h00351692336cc8a5E', symObjAddr: 0x29970, symBinAddr: 0x100029240, symSize: 0x60 }
  - { offset: 0x39AB8, size: 0x8, addend: 0x0, symName: '__ZN4core3ptr131drop_in_place$LT$$u5b$core..option..Option$LT$core..option..Option$LT$std..backtrace_rs..symbolize..gimli..Mapping$GT$$GT$$u5d$$GT$17h5e49fcba991e0fefE', symObjAddr: 0x299D0, symBinAddr: 0x1000292A0, symSize: 0xE0 }
  - { offset: 0x39B62, size: 0x8, addend: 0x0, symName: '__ZN4core3ptr131drop_in_place$LT$alloc..boxed..Box$LT$dyn$u20$core..ops..function..FnOnce$LT$$LP$$RP$$GT$$u2b$Output$u20$$u3d$$u20$$LP$$RP$$GT$$GT$17h34dfa6de81a90f60E', symObjAddr: 0x29AB0, symBinAddr: 0x100029380, symSize: 0x70 }
  - { offset: 0x39C4D, size: 0x8, addend: 0x0, symName: '__ZN4core3ptr137drop_in_place$LT$gimli..read..dwarf..Unit$LT$gimli..read..endian_slice..EndianSlice$LT$gimli..endianity..LittleEndian$GT$$C$usize$GT$$GT$17h8a3dedf63945c7ffE', symObjAddr: 0x29B20, symBinAddr: 0x1000293F0, symSize: 0x50 }
  - { offset: 0x39D36, size: 0x8, addend: 0x0, symName: '__ZN4core3ptr138drop_in_place$LT$addr2line..function..LazyFunction$LT$gimli..read..endian_slice..EndianSlice$LT$gimli..endianity..LittleEndian$GT$$GT$$GT$17h0f8e66548b648d63E', symObjAddr: 0x29B70, symBinAddr: 0x100029440, symSize: 0x60 }
  - { offset: 0x39D4D, size: 0x8, addend: 0x0, symName: '__ZN4core3ptr138drop_in_place$LT$addr2line..function..LazyFunction$LT$gimli..read..endian_slice..EndianSlice$LT$gimli..endianity..LittleEndian$GT$$GT$$GT$17h0f8e66548b648d63E', symObjAddr: 0x29B70, symBinAddr: 0x100029440, symSize: 0x60 }
  - { offset: 0x39D62, size: 0x8, addend: 0x0, symName: '__ZN4core3ptr138drop_in_place$LT$addr2line..function..LazyFunction$LT$gimli..read..endian_slice..EndianSlice$LT$gimli..endianity..LittleEndian$GT$$GT$$GT$17h0f8e66548b648d63E', symObjAddr: 0x29B70, symBinAddr: 0x100029440, symSize: 0x60 }
  - { offset: 0x39D77, size: 0x8, addend: 0x0, symName: '__ZN4core3ptr138drop_in_place$LT$addr2line..function..LazyFunction$LT$gimli..read..endian_slice..EndianSlice$LT$gimli..endianity..LittleEndian$GT$$GT$$GT$17h0f8e66548b648d63E', symObjAddr: 0x29B70, symBinAddr: 0x100029440, symSize: 0x60 }
  - { offset: 0x39EAB, size: 0x8, addend: 0x0, symName: '__ZN4core3ptr144drop_in_place$LT$alloc..vec..Vec$LT$core..option..Option$LT$core..option..Option$LT$std..backtrace_rs..symbolize..gimli..Mapping$GT$$GT$$GT$$GT$17hd133ee3f082661a3E', symObjAddr: 0x29BD0, symBinAddr: 0x1000294A0, symSize: 0x80 }
  - { offset: 0x3A005, size: 0x8, addend: 0x0, symName: '__ZN4core3ptr152drop_in_place$LT$alloc..vec..Vec$LT$addr2line..unit..ResUnit$LT$gimli..read..endian_slice..EndianSlice$LT$gimli..endianity..LittleEndian$GT$$GT$$GT$$GT$17h687eea1ef8e4dccbE', symObjAddr: 0x29D40, symBinAddr: 0x100029520, symSize: 0xD0 }
  - { offset: 0x3A174, size: 0x8, addend: 0x0, symName: '__ZN4core3ptr152drop_in_place$LT$alloc..vec..Vec$LT$addr2line..unit..SupUnit$LT$gimli..read..endian_slice..EndianSlice$LT$gimli..endianity..LittleEndian$GT$$GT$$GT$$GT$17h43b55f1c1ec40770E', symObjAddr: 0x29E10, symBinAddr: 0x1000295F0, symSize: 0x100 }
  - { offset: 0x3A378, size: 0x8, addend: 0x0, symName: '__ZN4core3ptr156drop_in_place$LT$alloc..boxed..Box$LT$$u5b$core..option..Option$LT$core..option..Option$LT$std..backtrace_rs..symbolize..gimli..Mapping$GT$$GT$$u5d$$GT$$GT$17h64285ccbe01a68bbE', symObjAddr: 0x29F10, symBinAddr: 0x1000296F0, symSize: 0xF0 }
  - { offset: 0x3A4A2, size: 0x8, addend: 0x0, symName: '__ZN4core3ptr159drop_in_place$LT$alloc..sync..ArcInner$LT$gimli..read..dwarf..Dwarf$LT$gimli..read..endian_slice..EndianSlice$LT$gimli..endianity..LittleEndian$GT$$GT$$GT$$GT$17ha7d070261ff0f422E', symObjAddr: 0x2A0A0, symBinAddr: 0x1000297E0, symSize: 0x60 }
  - { offset: 0x3A553, size: 0x8, addend: 0x0, symName: '__ZN4core3ptr161drop_in_place$LT$alloc..vec..Vec$LT$addr2line..function..LazyFunction$LT$gimli..read..endian_slice..EndianSlice$LT$gimli..endianity..LittleEndian$GT$$GT$$GT$$GT$17h224d020c77f1c5c5E', symObjAddr: 0x2A100, symBinAddr: 0x100029840, symSize: 0xC0 }
  - { offset: 0x3A790, size: 0x8, addend: 0x0, symName: '__ZN4core3ptr172drop_in_place$LT$core..result..Result$LT$addr2line..Context$LT$gimli..read..endian_slice..EndianSlice$LT$gimli..endianity..LittleEndian$GT$$GT$$C$gimli..read..Error$GT$$GT$17h9689e9d3357a2b29E', symObjAddr: 0x2A270, symBinAddr: 0x100029900, symSize: 0x70 }
  - { offset: 0x3A811, size: 0x8, addend: 0x0, symName: '__ZN4core3ptr173drop_in_place$LT$alloc..boxed..Box$LT$$u5b$addr2line..function..LazyFunction$LT$gimli..read..endian_slice..EndianSlice$LT$gimli..endianity..LittleEndian$GT$$GT$$u5d$$GT$$GT$17h854691247aa87af0E', symObjAddr: 0x2A2E0, symBinAddr: 0x100029970, symSize: 0xA0 }
  - { offset: 0x3A828, size: 0x8, addend: 0x0, symName: '__ZN4core3ptr173drop_in_place$LT$alloc..boxed..Box$LT$$u5b$addr2line..function..LazyFunction$LT$gimli..read..endian_slice..EndianSlice$LT$gimli..endianity..LittleEndian$GT$$GT$$u5d$$GT$$GT$17h854691247aa87af0E', symObjAddr: 0x2A2E0, symBinAddr: 0x100029970, symSize: 0xA0 }
  - { offset: 0x3A9FD, size: 0x8, addend: 0x0, symName: '__ZN4core3ptr181drop_in_place$LT$core..option..Option$LT$gimli..read..line..IncompleteLineProgram$LT$gimli..read..endian_slice..EndianSlice$LT$gimli..endianity..LittleEndian$GT$$C$usize$GT$$GT$$GT$17ha2da1af52ac50966E', symObjAddr: 0x2A3F0, symBinAddr: 0x100029A10, symSize: 0xA0 }
  - { offset: 0x3AC56, size: 0x8, addend: 0x0, symName: '__ZN4core3ptr181drop_in_place$LT$core..result..Result$LT$addr2line..frame..FrameIter$LT$gimli..read..endian_slice..EndianSlice$LT$gimli..endianity..LittleEndian$GT$$GT$$C$gimli..read..Error$GT$$GT$17hb41a886cf8fb4359E', symObjAddr: 0x2A490, symBinAddr: 0x100029AB0, symSize: 0x40 }
  - { offset: 0x3AD94, size: 0x8, addend: 0x0, symName: '__ZN4core3ptr184drop_in_place$LT$core..result..Result$LT$addr2line..function..Functions$LT$gimli..read..endian_slice..EndianSlice$LT$gimli..endianity..LittleEndian$GT$$GT$$C$gimli..read..Error$GT$$GT$17h16817f6f8b785913E', symObjAddr: 0x2A4D0, symBinAddr: 0x100029AF0, symSize: 0xE0 }
  - { offset: 0x3B024, size: 0x8, addend: 0x0, symName: '__ZN4core3ptr194drop_in_place$LT$core..result..Result$LT$std..sync..poison..mutex..MutexGuard$LT$$LP$$RP$$GT$$C$std..sync..poison..PoisonError$LT$std..sync..poison..mutex..MutexGuard$LT$$LP$$RP$$GT$$GT$$GT$$GT$17h05108be9b923664fE', symObjAddr: 0x2A620, symBinAddr: 0x100029BD0, symSize: 0x50 }
  - { offset: 0x3B062, size: 0x8, addend: 0x0, symName: '__ZN4core3ptr231drop_in_place$LT$core..result..Result$LT$core..option..Option$LT$alloc..boxed..Box$LT$addr2line..unit..DwoUnit$LT$gimli..read..endian_slice..EndianSlice$LT$gimli..endianity..LittleEndian$GT$$GT$$GT$$GT$$C$gimli..read..Error$GT$$GT$17h77faee68108766d7E', symObjAddr: 0x2A670, symBinAddr: 0x100029C20, symSize: 0xB0 }
  - { offset: 0x3B22C, size: 0x8, addend: 0x0, symName: '__ZN4core3ptr238drop_in_place$LT$alloc..boxed..convert..$LT$impl$u20$core..convert..From$LT$alloc..string..String$GT$$u20$for$u20$alloc..boxed..Box$LT$dyn$u20$core..error..Error$u2b$core..marker..Sync$u2b$core..marker..Send$GT$$GT$..from..StringError$GT$17h77c71369405e109cE', symObjAddr: 0x2A720, symBinAddr: 0x100029CD0, symSize: 0x20 }
  - { offset: 0x3B2D7, size: 0x8, addend: 0x0, symName: '__ZN4core3ptr275drop_in_place$LT$gimli..read..line..LineRows$LT$gimli..read..endian_slice..EndianSlice$LT$gimli..endianity..LittleEndian$GT$$C$gimli..read..line..IncompleteLineProgram$LT$gimli..read..endian_slice..EndianSlice$LT$gimli..endianity..LittleEndian$GT$$C$usize$GT$$C$usize$GT$$GT$17hadd9cd2441f7544fE', symObjAddr: 0x2A740, symBinAddr: 0x100029CF0, symSize: 0xA0 }
  - { offset: 0x3B54C, size: 0x8, addend: 0x0, symName: '__ZN4core3ptr280drop_in_place$LT$$LT$alloc..collections..btree..map..IntoIter$LT$K$C$V$C$A$GT$$u20$as$u20$core..ops..drop..Drop$GT$..drop..DropGuard$LT$u64$C$core..result..Result$LT$alloc..sync..Arc$LT$gimli..read..abbrev..Abbreviations$GT$$C$gimli..read..Error$GT$$C$alloc..alloc..Global$GT$$GT$17h12b50f4912f8d053E', symObjAddr: 0x2A7E0, symBinAddr: 0x100029D90, symSize: 0x80 }
  - { offset: 0x3B678, size: 0x8, addend: 0x0, symName: '__ZN4core3ptr284drop_in_place$LT$core..result..Result$LT$$RF$core..result..Result$LT$addr2line..line..Lines$C$gimli..read..Error$GT$$C$$LP$$RF$core..result..Result$LT$addr2line..line..Lines$C$gimli..read..Error$GT$$C$core..result..Result$LT$addr2line..line..Lines$C$gimli..read..Error$GT$$RP$$GT$$GT$17h10f406cda706aac9E', symObjAddr: 0x2A860, symBinAddr: 0x100029E10, symSize: 0x20 }
  - { offset: 0x3B6A9, size: 0x8, addend: 0x0, symName: '__ZN4core3ptr42drop_in_place$LT$alloc..string..String$GT$17h13a2c872d6de9b78E', symObjAddr: 0x2AA20, symBinAddr: 0x100029E30, symSize: 0x20 }
  - { offset: 0x3B73E, size: 0x8, addend: 0x0, symName: '__ZN4core3ptr42drop_in_place$LT$std..io..error..Error$GT$17hf3cc5d9531ccf1c0E', symObjAddr: 0x2AA40, symBinAddr: 0x100029E50, symSize: 0xA0 }
  - { offset: 0x3B95C, size: 0x8, addend: 0x0, symName: '__ZN4core3ptr44drop_in_place$LT$object..read..ObjectMap$GT$17h9dfc9bd6f6ee5a53E', symObjAddr: 0x2AAE0, symBinAddr: 0x100029EF0, symSize: 0x50 }
  - { offset: 0x3BA8B, size: 0x8, addend: 0x0, symName: '__ZN4core3ptr46drop_in_place$LT$alloc..vec..Vec$LT$u8$GT$$GT$17h50cadf63df0efd66E', symObjAddr: 0x2AB90, symBinAddr: 0x100029F40, symSize: 0x20 }
  - { offset: 0x3BB0A, size: 0x8, addend: 0x0, symName: '__ZN4core3ptr46drop_in_place$LT$std..io..stdio..StdinLock$GT$17h859807256c432efeE', symObjAddr: 0x2ABB0, symBinAddr: 0x100029F60, symSize: 0x50 }
  - { offset: 0x3BB21, size: 0x8, addend: 0x0, symName: '__ZN4core3ptr46drop_in_place$LT$std..io..stdio..StdinLock$GT$17h859807256c432efeE', symObjAddr: 0x2ABB0, symBinAddr: 0x100029F60, symSize: 0x50 }
  - { offset: 0x3BB36, size: 0x8, addend: 0x0, symName: '__ZN4core3ptr46drop_in_place$LT$std..io..stdio..StdinLock$GT$17h859807256c432efeE', symObjAddr: 0x2ABB0, symBinAddr: 0x100029F60, symSize: 0x50 }
  - { offset: 0x3BC1A, size: 0x8, addend: 0x0, symName: '__ZN4core3ptr48drop_in_place$LT$alloc..ffi..c_str..NulError$GT$17h05fdddfd5dec9957E', symObjAddr: 0x2AD00, symBinAddr: 0x100029FB0, symSize: 0x20 }
  - { offset: 0x3BCBD, size: 0x8, addend: 0x0, symName: '__ZN4core3ptr557drop_in_place$LT$core..result..Result$LT$$RF$core..result..Result$LT$addr2line..function..Function$LT$gimli..read..endian_slice..EndianSlice$LT$gimli..endianity..LittleEndian$GT$$GT$$C$gimli..read..Error$GT$$C$$LP$$RF$core..result..Result$LT$addr2line..function..Function$LT$gimli..read..endian_slice..EndianSlice$LT$gimli..endianity..LittleEndian$GT$$GT$$C$gimli..read..Error$GT$$C$core..result..Result$LT$addr2line..function..Function$LT$gimli..read..endian_slice..EndianSlice$LT$gimli..endianity..LittleEndian$GT$$GT$$C$gimli..read..Error$GT$$RP$$GT$$GT$17hc44de9d152e84349E', symObjAddr: 0x2AFE0, symBinAddr: 0x100029FD0, symSize: 0x60 }
  - { offset: 0x3BEA7, size: 0x8, addend: 0x0, symName: '__ZN4core3ptr55drop_in_place$LT$gimli..read..abbrev..Abbreviations$GT$17h650fa2a70ecf9e05E', symObjAddr: 0x2B040, symBinAddr: 0x10002A030, symSize: 0x130 }
  - { offset: 0x3C1F0, size: 0x8, addend: 0x0, symName: '__ZN4core3ptr560drop_in_place$LT$core..result..Result$LT$$RF$core..result..Result$LT$addr2line..function..Functions$LT$gimli..read..endian_slice..EndianSlice$LT$gimli..endianity..LittleEndian$GT$$GT$$C$gimli..read..Error$GT$$C$$LP$$RF$core..result..Result$LT$addr2line..function..Functions$LT$gimli..read..endian_slice..EndianSlice$LT$gimli..endianity..LittleEndian$GT$$GT$$C$gimli..read..Error$GT$$C$core..result..Result$LT$addr2line..function..Functions$LT$gimli..read..endian_slice..EndianSlice$LT$gimli..endianity..LittleEndian$GT$$GT$$C$gimli..read..Error$GT$$RP$$GT$$GT$17h6cf82f479787438aE', symObjAddr: 0x2B270, symBinAddr: 0x10002A160, symSize: 0x20 }
  - { offset: 0x3C24B, size: 0x8, addend: 0x0, symName: '__ZN4core3ptr60drop_in_place$LT$gimli..read..abbrev..AbbreviationsCache$GT$17h8ea9413fce52b0aeE', symObjAddr: 0x2B290, symBinAddr: 0x10002A180, symSize: 0xE0 }
  - { offset: 0x3C3B2, size: 0x8, addend: 0x0, symName: '__ZN4core3ptr64drop_in_place$LT$std..sys..pal..unix..sync..mutex..AttrGuard$GT$17h07975ffc5879c9b3E', symObjAddr: 0x2B3E0, symBinAddr: 0x10002A260, symSize: 0x40 }
  - { offset: 0x3C3F1, size: 0x8, addend: 0x0, symName: '__ZN4core3ptr65drop_in_place$LT$alloc..vec..Vec$LT$alloc..string..String$GT$$GT$17h7048242ed88ea37eE', symObjAddr: 0x2B4B0, symBinAddr: 0x10002A2A0, symSize: 0x90 }
  - { offset: 0x3C557, size: 0x8, addend: 0x0, symName: '__ZN4core3ptr65drop_in_place$LT$std..backtrace_rs..symbolize..gimli..Context$GT$17hc7e1db2a9c32a85bE', symObjAddr: 0x2B540, symBinAddr: 0x10002A330, symSize: 0x100 }
  - { offset: 0x3C7D5, size: 0x8, addend: 0x0, symName: '__ZN4core3ptr66drop_in_place$LT$std..backtrace_rs..backtrace..libunwind..Bomb$GT$17hd5948bcabaf539edE', symObjAddr: 0x2B640, symBinAddr: 0x10002A430, symSize: 0x50 }
  - { offset: 0x3C821, size: 0x8, addend: 0x0, symName: '__ZN4core3ptr701drop_in_place$LT$core..result..Result$LT$$RF$core..result..Result$LT$core..option..Option$LT$alloc..boxed..Box$LT$addr2line..unit..DwoUnit$LT$gimli..read..endian_slice..EndianSlice$LT$gimli..endianity..LittleEndian$GT$$GT$$GT$$GT$$C$gimli..read..Error$GT$$C$$LP$$RF$core..result..Result$LT$core..option..Option$LT$alloc..boxed..Box$LT$addr2line..unit..DwoUnit$LT$gimli..read..endian_slice..EndianSlice$LT$gimli..endianity..LittleEndian$GT$$GT$$GT$$GT$$C$gimli..read..Error$GT$$C$core..result..Result$LT$core..option..Option$LT$alloc..boxed..Box$LT$addr2line..unit..DwoUnit$LT$gimli..read..endian_slice..EndianSlice$LT$gimli..endianity..LittleEndian$GT$$GT$$GT$$GT$$C$gimli..read..Error$GT$$RP$$GT$$GT$17h4c871d662e9baba8E', symObjAddr: 0x2B690, symBinAddr: 0x10002A480, symSize: 0x20 }
  - { offset: 0x3C8C2, size: 0x8, addend: 0x0, symName: '__ZN4core3ptr70drop_in_place$LT$std..backtrace_rs..symbolize..gimli..stash..Stash$GT$17h9192affd8a73d22bE', symObjAddr: 0x2B6B0, symBinAddr: 0x10002A4A0, symSize: 0xE0 }
  - { offset: 0x3CB68, size: 0x8, addend: 0x0, symName: '__ZN4core3ptr71drop_in_place$LT$std..backtrace_rs..symbolize..gimli..macho..Object$GT$17he8bfbbbc576ba26bE', symObjAddr: 0x2B790, symBinAddr: 0x10002A580, symSize: 0xD0 }
  - { offset: 0x3CE2D, size: 0x8, addend: 0x0, symName: '__ZN4core3ptr71drop_in_place$LT$std..panicking..panic_handler..FormatStringPayload$GT$17he2832ae2b85e7af7E', symObjAddr: 0x2B860, symBinAddr: 0x10002A650, symSize: 0x30 }
  - { offset: 0x3CEE9, size: 0x8, addend: 0x0, symName: '__ZN4core3ptr72drop_in_place$LT$core..option..Option$LT$object..read..ObjectMap$GT$$GT$17hfcefd03af094224dE', symObjAddr: 0x2B890, symBinAddr: 0x10002A680, symSize: 0x60 }
  - { offset: 0x3D066, size: 0x8, addend: 0x0, symName: '__ZN4core3ptr73drop_in_place$LT$alloc..vec..Vec$LT$addr2line..line..LineSequence$GT$$GT$17ha6ada6d850d6bfd7E', symObjAddr: 0x2B8F0, symBinAddr: 0x10002A6E0, symSize: 0x90 }
  - { offset: 0x3D1BE, size: 0x8, addend: 0x0, symName: '__ZN4core3ptr77drop_in_place$LT$alloc..boxed..Box$LT$$u5b$alloc..string..String$u5d$$GT$$GT$17hb3442e265eb8e1dcE', symObjAddr: 0x2B9D0, symBinAddr: 0x10002A770, symSize: 0x60 }
  - { offset: 0x3D1D5, size: 0x8, addend: 0x0, symName: '__ZN4core3ptr77drop_in_place$LT$alloc..boxed..Box$LT$$u5b$alloc..string..String$u5d$$GT$$GT$17hb3442e265eb8e1dcE', symObjAddr: 0x2B9D0, symBinAddr: 0x10002A770, symSize: 0x60 }
  - { offset: 0x3D2D3, size: 0x8, addend: 0x0, symName: '__ZN4core3ptr79drop_in_place$LT$std..sync..poison..rwlock..RwLockReadGuard$LT$$LP$$RP$$GT$$GT$17h4fa0e4fa5e15bd74E', symObjAddr: 0x2BA50, symBinAddr: 0x10002A7D0, symSize: 0x50 }
  - { offset: 0x3D36F, size: 0x8, addend: 0x0, symName: '__ZN4core3ptr81drop_in_place$LT$core..result..Result$LT$$LP$$RP$$C$std..io..error..Error$GT$$GT$17h1c1edd567460b3feE', symObjAddr: 0x2BB50, symBinAddr: 0x10002A820, symSize: 0x20 }
  - { offset: 0x3D39F, size: 0x8, addend: 0x0, symName: '__ZN4core3ptr82drop_in_place$LT$alloc..sync..ArcInner$LT$std..sys..fs..unix..InnerReadDir$GT$$GT$17ha8fbff3aaada4fb8E', symObjAddr: 0x2BC40, symBinAddr: 0x10002A840, symSize: 0x60 }
  - { offset: 0x3D542, size: 0x8, addend: 0x0, symName: '__ZN4core3ptr90drop_in_place$LT$std..io..buffered..bufwriter..BufWriter$LT$W$GT$..flush_buf..BufGuard$GT$17he4170abc552595a7E', symObjAddr: 0x2BD40, symBinAddr: 0x10002A8A0, symSize: 0x50 }
  - { offset: 0x3D6C9, size: 0x8, addend: 0x0, symName: '__ZN4core3ptr92drop_in_place$LT$core..result..Result$LT$addr2line..line..Lines$C$gimli..read..Error$GT$$GT$17h2e8e0626d3a84d8eE', symObjAddr: 0x2BDF0, symBinAddr: 0x10002A8F0, symSize: 0xE0 }
  - { offset: 0x3D90F, size: 0x8, addend: 0x0, symName: '__ZN4core3ptr93drop_in_place$LT$core..option..Option$LT$std..backtrace_rs..symbolize..gimli..Mapping$GT$$GT$17h136f8c1ae5619cc2E', symObjAddr: 0x2BED0, symBinAddr: 0x10002A9D0, symSize: 0x70 }
  - { offset: 0x3D99E, size: 0x8, addend: 0x0, symName: '__ZN4core3ptr95drop_in_place$LT$std..io..buffered..linewriter..LineWriter$LT$std..io..stdio..StdoutRaw$GT$$GT$17h9eac947b14297a02E', symObjAddr: 0x2BF40, symBinAddr: 0x10002AA40, symSize: 0x100 }
  - { offset: 0x3F954, size: 0x8, addend: 0x0, symName: __ZN4core5panic12PanicPayload6as_str17h0a0af93859b241b1E, symObjAddr: 0x302B0, symBinAddr: 0x10002ABB0, symSize: 0x10 }
  - { offset: 0x41936, size: 0x8, addend: 0x0, symName: __ZN4core5slice4sort8unstable7ipnsort17h2b4a537af7352546E, symObjAddr: 0x39850, symBinAddr: 0x100034150, symSize: 0x1A0 }
  - { offset: 0x41BDE, size: 0x8, addend: 0x0, symName: __ZN4core5slice4sort8unstable7ipnsort17h52ef4485ec8e6977E, symObjAddr: 0x399F0, symBinAddr: 0x1000342F0, symSize: 0xE0 }
  - { offset: 0x41DA0, size: 0x8, addend: 0x0, symName: __ZN4core5slice4sort8unstable8heapsort8heapsort17h4b4721c6bb82e1c1E, symObjAddr: 0x39AD0, symBinAddr: 0x1000343D0, symSize: 0x120 }
  - { offset: 0x41FE6, size: 0x8, addend: 0x0, symName: __ZN4core5slice4sort8unstable8heapsort8heapsort17hab9566a01254ecddE, symObjAddr: 0x39BF0, symBinAddr: 0x1000344F0, symSize: 0x1D0 }
  - { offset: 0x42398, size: 0x8, addend: 0x0, symName: __ZN4core5slice4sort8unstable9quicksort9quicksort17h0b8d9e0f156a468cE, symObjAddr: 0x39DC0, symBinAddr: 0x1000346C0, symSize: 0x540 }
  - { offset: 0x42C38, size: 0x8, addend: 0x0, symName: __ZN4core5slice4sort8unstable9quicksort9quicksort17h5a50d5c9a636cab4E, symObjAddr: 0x3A300, symBinAddr: 0x100034C00, symSize: 0x761 }
  - { offset: 0x4389B, size: 0x8, addend: 0x0, symName: __ZN4core5slice4sort6stable14driftsort_main17h3220260173ca707fE, symObjAddr: 0x31FD0, symBinAddr: 0x10002C8D0, symSize: 0x150 }
  - { offset: 0x43B73, size: 0x8, addend: 0x0, symName: __ZN4core5slice4sort6stable14driftsort_main17h4699f0e78e45ec48E, symObjAddr: 0x32120, symBinAddr: 0x10002CA20, symSize: 0x150 }
  - { offset: 0x43E4B, size: 0x8, addend: 0x0, symName: __ZN4core5slice4sort6stable14driftsort_main17h9e6c77f5f42fb271E, symObjAddr: 0x32270, symBinAddr: 0x10002CB70, symSize: 0x160 }
  - { offset: 0x44179, size: 0x8, addend: 0x0, symName: __ZN4core5slice4sort6stable14driftsort_main17ha76b3f8bfe5161d7E, symObjAddr: 0x323D0, symBinAddr: 0x10002CCD0, symSize: 0x160 }
  - { offset: 0x444A7, size: 0x8, addend: 0x0, symName: __ZN4core5slice4sort6stable14driftsort_main17hdb3cc37e344db5cdE, symObjAddr: 0x32530, symBinAddr: 0x10002CE30, symSize: 0x150 }
  - { offset: 0x4477F, size: 0x8, addend: 0x0, symName: __ZN4core5slice4sort6stable14driftsort_main17hf9b576397ab84e46E, symObjAddr: 0x32680, symBinAddr: 0x10002CF80, symSize: 0x160 }
  - { offset: 0x44BE9, size: 0x8, addend: 0x0, symName: __ZN4core5slice4sort6stable5drift4sort17h0344cd1179273fdfE, symObjAddr: 0x327E0, symBinAddr: 0x10002D0E0, symSize: 0x6E0 }
  - { offset: 0x45391, size: 0x8, addend: 0x0, symName: __ZN4core5slice4sort6stable5drift4sort17h5d73a28370e736e7E, symObjAddr: 0x32EC0, symBinAddr: 0x10002D7C0, symSize: 0x690 }
  - { offset: 0x45B48, size: 0x8, addend: 0x0, symName: __ZN4core5slice4sort6stable5drift4sort17h7d35ffbcc89f38d4E, symObjAddr: 0x33550, symBinAddr: 0x10002DE50, symSize: 0x6D0 }
  - { offset: 0x46305, size: 0x8, addend: 0x0, symName: __ZN4core5slice4sort6stable5drift4sort17h8e4dd7b37e0e34b5E, symObjAddr: 0x33C20, symBinAddr: 0x10002E520, symSize: 0x6E0 }
  - { offset: 0x46A97, size: 0x8, addend: 0x0, symName: __ZN4core5slice4sort6stable5drift4sort17hd3daeb0e07815f37E, symObjAddr: 0x34300, symBinAddr: 0x10002EC00, symSize: 0x690 }
  - { offset: 0x4724E, size: 0x8, addend: 0x0, symName: __ZN4core5slice4sort6stable5drift4sort17hdee5488c31b7bf79E, symObjAddr: 0x34990, symBinAddr: 0x10002F290, symSize: 0x6B0 }
  - { offset: 0x47C8F, size: 0x8, addend: 0x0, symName: __ZN4core5slice4sort6stable9quicksort9quicksort17h49e735213ea776e8E, symObjAddr: 0x35040, symBinAddr: 0x10002F940, symSize: 0xC20 }
  - { offset: 0x48A08, size: 0x8, addend: 0x0, symName: __ZN4core5slice4sort6stable9quicksort9quicksort17h4e0f96bb5e50204eE, symObjAddr: 0x35C60, symBinAddr: 0x100030560, symSize: 0xD60 }
  - { offset: 0x497B7, size: 0x8, addend: 0x0, symName: __ZN4core5slice4sort6stable9quicksort9quicksort17h5039615b86acfb17E, symObjAddr: 0x369C0, symBinAddr: 0x1000312C0, symSize: 0xB50 }
  - { offset: 0x4A5B1, size: 0x8, addend: 0x0, symName: __ZN4core5slice4sort6stable9quicksort9quicksort17h54d5655b54e85608E, symObjAddr: 0x37510, symBinAddr: 0x100031E10, symSize: 0xC40 }
  - { offset: 0x4B33A, size: 0x8, addend: 0x0, symName: __ZN4core5slice4sort6stable9quicksort9quicksort17h563ccb161c809bb9E, symObjAddr: 0x38150, symBinAddr: 0x100032A50, symSize: 0xB50 }
  - { offset: 0x4BC12, size: 0x8, addend: 0x0, symName: __ZN4core5slice4sort6stable9quicksort9quicksort17ha4eccc1b33417963E, symObjAddr: 0x38CA0, symBinAddr: 0x1000335A0, symSize: 0xBB0 }
  - { offset: 0x4D13D, size: 0x8, addend: 0x0, symName: __ZN4core5slice4sort6shared9smallsort12sort4_stable17h429c53b39c3949acE, symObjAddr: 0x30980, symBinAddr: 0x10002B280, symSize: 0x1B0 }
  - { offset: 0x4D314, size: 0x8, addend: 0x0, symName: __ZN4core5slice4sort6shared9smallsort12sort4_stable17h8e40b2e7e5f636d6E, symObjAddr: 0x30B30, symBinAddr: 0x10002B430, symSize: 0x1F0 }
  - { offset: 0x4D71F, size: 0x8, addend: 0x0, symName: __ZN4core5slice4sort6shared9smallsort12sort8_stable17hd86b794b574b633cE, symObjAddr: 0x30D20, symBinAddr: 0x10002B620, symSize: 0x3E0 }
  - { offset: 0x4DDD7, size: 0x8, addend: 0x0, symName: __ZN4core5slice4sort6shared9smallsort18small_sort_general17h0ffd90b03ee23f71E, symObjAddr: 0x31100, symBinAddr: 0x10002BA00, symSize: 0x510 }
  - { offset: 0x4E2F4, size: 0x8, addend: 0x0, symName: __ZN4core5slice4sort6shared9smallsort18small_sort_general17h7a2a4ab0b4034136E, symObjAddr: 0x31610, symBinAddr: 0x10002BF10, symSize: 0x600 }
  - { offset: 0x4EAF7, size: 0x8, addend: 0x0, symName: __ZN4core5slice4sort6shared9smallsort25insertion_sort_shift_left17h0b99a1dace0461e0E, symObjAddr: 0x31C10, symBinAddr: 0x10002C510, symSize: 0x120 }
  - { offset: 0x4ECBC, size: 0x8, addend: 0x0, symName: __ZN4core5slice4sort6shared9smallsort25insertion_sort_shift_left17h1aa889efeb4092c1E, symObjAddr: 0x31D30, symBinAddr: 0x10002C630, symSize: 0xF0 }
  - { offset: 0x4EDEA, size: 0x8, addend: 0x0, symName: __ZN4core5slice4sort6shared9smallsort25insertion_sort_shift_left17h39fda689822c34e3E, symObjAddr: 0x31E20, symBinAddr: 0x10002C720, symSize: 0xF0 }
  - { offset: 0x4EF19, size: 0x8, addend: 0x0, symName: __ZN4core5slice4sort6shared9smallsort25insertion_sort_shift_left17h519a67896e46d7b4E, symObjAddr: 0x31F10, symBinAddr: 0x10002C810, symSize: 0xC0 }
  - { offset: 0x4F239, size: 0x8, addend: 0x0, symName: __ZN4core5slice4sort6shared5pivot11median3_rec17h0bad552e41eb9dc6E, symObjAddr: 0x302C0, symBinAddr: 0x10002ABC0, symSize: 0xC0 }
  - { offset: 0x4F340, size: 0x8, addend: 0x0, symName: __ZN4core5slice4sort6shared5pivot11median3_rec17h69042159816e04f4E, symObjAddr: 0x30380, symBinAddr: 0x10002AC80, symSize: 0xC0 }
  - { offset: 0x4F449, size: 0x8, addend: 0x0, symName: __ZN4core5slice4sort6shared5pivot11median3_rec17h6b39c5ff16384b97E, symObjAddr: 0x30440, symBinAddr: 0x10002AD40, symSize: 0xB0 }
  - { offset: 0x4F57C, size: 0x8, addend: 0x0, symName: __ZN4core5slice4sort6shared5pivot11median3_rec17h78bc361aba28d375E, symObjAddr: 0x304F0, symBinAddr: 0x10002ADF0, symSize: 0x140 }
  - { offset: 0x4F7B1, size: 0x8, addend: 0x0, symName: __ZN4core5slice4sort6shared5pivot11median3_rec17h864e4c2ed0405f91E, symObjAddr: 0x30630, symBinAddr: 0x10002AF30, symSize: 0xC0 }
  - { offset: 0x4F8B8, size: 0x8, addend: 0x0, symName: __ZN4core5slice4sort6shared5pivot11median3_rec17h9ee77f2cab2d4c5dE, symObjAddr: 0x306F0, symBinAddr: 0x10002AFF0, symSize: 0xC0 }
  - { offset: 0x4F9BF, size: 0x8, addend: 0x0, symName: __ZN4core5slice4sort6shared5pivot11median3_rec17ha14fc07cd9e49161E, symObjAddr: 0x307B0, symBinAddr: 0x10002B0B0, symSize: 0xC0 }
  - { offset: 0x4FAC6, size: 0x8, addend: 0x0, symName: __ZN4core5slice4sort6shared5pivot11median3_rec17hfa048ff775602914E, symObjAddr: 0x30870, symBinAddr: 0x10002B170, symSize: 0x110 }
  - { offset: 0x4FCD2, size: 0x8, addend: 0x0, symName: '__ZN55_$LT$$RF$str$u20$as$u20$core..str..pattern..Pattern$GT$15is_contained_in17hc8794a96b582b38aE', symObjAddr: 0x3B790, symBinAddr: 0x1000353A0, symSize: 0x860 }
  - { offset: 0x5046D, size: 0x8, addend: 0x0, symName: '__ZN4core3str7pattern13simd_contains28_$u7b$$u7b$closure$u7d$$u7d$17ha6d539c15f4ab7c0E', symObjAddr: 0x2C040, symBinAddr: 0x100054BE0, symSize: 0x100 }
  - { offset: 0x51C14, size: 0x8, addend: 0x0, symName: '__ZN4core3ops8function6FnOnce40call_once$u7b$$u7b$vtable.shim$u7d$$u7d$17h0d3238feb6ae2c7dE', symObjAddr: 0x29150, symBinAddr: 0x100028C30, symSize: 0x10 }
  - { offset: 0x51C50, size: 0x8, addend: 0x0, symName: '__ZN4core3ops8function6FnOnce40call_once$u7b$$u7b$vtable.shim$u7d$$u7d$17h3292d6654d591370E', symObjAddr: 0x29160, symBinAddr: 0x100028C40, symSize: 0x90 }
  - { offset: 0x51D34, size: 0x8, addend: 0x0, symName: '__ZN4core3ops8function6FnOnce40call_once$u7b$$u7b$vtable.shim$u7d$$u7d$17h59b44727da8ea4adE', symObjAddr: 0x29280, symBinAddr: 0x100028CD0, symSize: 0x90 }
  - { offset: 0x51E9E, size: 0x8, addend: 0x0, symName: '__ZN4core3ops8function6FnOnce40call_once$u7b$$u7b$vtable.shim$u7d$$u7d$17h8ff5d8d366cb3dcdE', symObjAddr: 0x29350, symBinAddr: 0x100028D60, symSize: 0x90 }
  - { offset: 0x51FE4, size: 0x8, addend: 0x0, symName: '__ZN4core3ops8function6FnOnce40call_once$u7b$$u7b$vtable.shim$u7d$$u7d$17h994b7e277a3827ddE', symObjAddr: 0x293E0, symBinAddr: 0x100028DF0, symSize: 0x10 }
  - { offset: 0x52035, size: 0x8, addend: 0x0, symName: '__ZN4core3ops8function6FnOnce40call_once$u7b$$u7b$vtable.shim$u7d$$u7d$17h9e6dbb12aa376ac1E', symObjAddr: 0x29400, symBinAddr: 0x100028E00, symSize: 0x10 }
  - { offset: 0x52071, size: 0x8, addend: 0x0, symName: '__ZN4core3ops8function6FnOnce40call_once$u7b$$u7b$vtable.shim$u7d$$u7d$17hdb0d13364863d228E', symObjAddr: 0x29420, symBinAddr: 0x100028E10, symSize: 0x20 }
  - { offset: 0x520AD, size: 0x8, addend: 0x0, symName: '__ZN4core3ops8function6FnOnce40call_once$u7b$$u7b$vtable.shim$u7d$$u7d$17hf1524fee5c53f54cE', symObjAddr: 0x294E0, symBinAddr: 0x100028E30, symSize: 0x10 }
  - { offset: 0x52DD4, size: 0x8, addend: 0x0, symName: '__ZN36_$LT$T$u20$as$u20$core..any..Any$GT$7type_id17hf38d30a50d909875E', symObjAddr: 0x1250, symBinAddr: 0x100018B10, symSize: 0x30 }
  - { offset: 0x52E03, size: 0x8, addend: 0x0, symName: '__ZN36_$LT$T$u20$as$u20$core..any..Any$GT$7type_id17hfe9fbb449010764eE', symObjAddr: 0x1280, symBinAddr: 0x100018B40, symSize: 0x30 }
  - { offset: 0x53E17, size: 0x8, addend: 0x0, symName: '__ZN4core4cell4once17OnceCell$LT$T$GT$8try_init17h164ad122d3fdde11E', symObjAddr: 0x2C140, symBinAddr: 0x100054CE0, symSize: 0x70 }
  - { offset: 0x53E35, size: 0x8, addend: 0x0, symName: '__ZN4core4cell4once17OnceCell$LT$T$GT$8try_init17h164ad122d3fdde11E', symObjAddr: 0x2C140, symBinAddr: 0x100054CE0, symSize: 0x70 }
  - { offset: 0x53E4A, size: 0x8, addend: 0x0, symName: '__ZN4core4cell4once17OnceCell$LT$T$GT$8try_init17h164ad122d3fdde11E', symObjAddr: 0x2C140, symBinAddr: 0x100054CE0, symSize: 0x70 }
  - { offset: 0x53E5E, size: 0x8, addend: 0x0, symName: '__ZN4core4cell4once17OnceCell$LT$T$GT$8try_init17h164ad122d3fdde11E', symObjAddr: 0x2C140, symBinAddr: 0x100054CE0, symSize: 0x70 }
  - { offset: 0x53EB5, size: 0x8, addend: 0x0, symName: '__ZN4core4cell4once17OnceCell$LT$T$GT$8try_init17h5eaa6e42f622c98bE', symObjAddr: 0x2C1B0, symBinAddr: 0x100054D50, symSize: 0x80 }
  - { offset: 0x53F68, size: 0x8, addend: 0x0, symName: '__ZN4core4cell4once17OnceCell$LT$T$GT$8try_init17h8d9b52977b5ff1b0E', symObjAddr: 0x2C230, symBinAddr: 0x100054DD0, symSize: 0x8B0 }
  - { offset: 0x54B25, size: 0x8, addend: 0x0, symName: '__ZN4core4cell4once17OnceCell$LT$T$GT$8try_init17h963735826f59da1dE', symObjAddr: 0x2CAE0, symBinAddr: 0x100055680, symSize: 0x110 }
  - { offset: 0x54D85, size: 0x8, addend: 0x0, symName: '__ZN4core4cell4once17OnceCell$LT$T$GT$8try_init17hbb32d690264a29aeE', symObjAddr: 0x2CBF0, symBinAddr: 0x100055790, symSize: 0x25C0 }
  - { offset: 0x57F31, size: 0x8, addend: 0x0, symName: '__ZN4core4cell4once17OnceCell$LT$T$GT$8try_init17he85fbe2a3a1ae7fbE', symObjAddr: 0x2F1B0, symBinAddr: 0x100057D50, symSize: 0xF30 }
  - { offset: 0x59B40, size: 0x8, addend: 0x0, symName: __ZN4core5error5Error11description17ha6a6a08fd0b06ebcE, symObjAddr: 0x301F0, symBinAddr: 0x10002AB40, symSize: 0x20 }
  - { offset: 0x59B5A, size: 0x8, addend: 0x0, symName: __ZN4core5error5Error5cause17h5b5fd61b0af24bd8E, symObjAddr: 0x30210, symBinAddr: 0x10002AB60, symSize: 0x10 }
  - { offset: 0x59B74, size: 0x8, addend: 0x0, symName: __ZN4core5error5Error7provide17hcf50e4f5391fe1b4E, symObjAddr: 0x30240, symBinAddr: 0x10002AB70, symSize: 0x10 }
  - { offset: 0x59B8E, size: 0x8, addend: 0x0, symName: __ZN4core5error5Error7type_id17h1548aa106e60bc02E, symObjAddr: 0x30250, symBinAddr: 0x10002AB80, symSize: 0x30 }
  - { offset: 0x59BC4, size: 0x8, addend: 0x0, symName: __ZN4core9panicking13assert_failed17hd751ab4adab24333E, symObjAddr: 0x3AAF2, symBinAddr: 0x100058C82, symSize: 0x3E }
  - { offset: 0x59CA9, size: 0x8, addend: 0x0, symName: __RNvCskdKJRKLKjqM_7___rustc10rust_panic, symObjAddr: 0x0, symBinAddr: 0x100054050, symSize: 0x70 }
  - { offset: 0x59CDA, size: 0x8, addend: 0x0, symName: __RNvCskdKJRKLKjqM_7___rustc17___rust_drop_panic, symObjAddr: 0x1D0, symBinAddr: 0x1000187B0, symSize: 0xD0 }
  - { offset: 0x59F25, size: 0x8, addend: 0x0, symName: __RNvCskdKJRKLKjqM_7___rustc17rust_begin_unwind, symObjAddr: 0x2A0, symBinAddr: 0x100018880, symSize: 0x30 }
  - { offset: 0x59F6B, size: 0x8, addend: 0x0, symName: __RNvCskdKJRKLKjqM_7___rustc24___rust_foreign_exception, symObjAddr: 0x360, symBinAddr: 0x100018940, symSize: 0xD0 }
  - { offset: 0x5A226, size: 0x8, addend: 0x0, symName: __ZN3std9panicking11panic_count17is_zero_slow_path17hc9cf2ba853cb1a44E, symObjAddr: 0x26310, symBinAddr: 0x100054BC0, symSize: 0x20 }
  - { offset: 0x5A2D5, size: 0x8, addend: 0x0, symName: __ZN3std9panicking11panic_count8increase17hf57f6317579ad19bE, symObjAddr: 0x26370, symBinAddr: 0x100027550, symSize: 0x40 }
  - { offset: 0x5A2EC, size: 0x8, addend: 0x0, symName: __ZN3std9panicking11panic_count8increase17hf57f6317579ad19bE, symObjAddr: 0x26370, symBinAddr: 0x100027550, symSize: 0x40 }
  - { offset: 0x5A301, size: 0x8, addend: 0x0, symName: __ZN3std9panicking11panic_count8increase17hf57f6317579ad19bE, symObjAddr: 0x26370, symBinAddr: 0x100027550, symSize: 0x40 }
  - { offset: 0x5A4B7, size: 0x8, addend: 0x0, symName: __ZN3std9panicking12default_hook17hfd692237a6812b4aE, symObjAddr: 0x263EB, symBinAddr: 0x10002759B, symSize: 0x12B }
  - { offset: 0x5A64E, size: 0x8, addend: 0x0, symName: '__ZN3std9panicking12default_hook28_$u7b$$u7b$closure$u7d$$u7d$17h4c39689ecd8341bfE', symObjAddr: 0x26516, symBinAddr: 0x1000276C6, symSize: 0x18A }
  - { offset: 0x5A815, size: 0x8, addend: 0x0, symName: '__ZN3std9panicking12default_hook28_$u7b$$u7b$closure$u7d$$u7d$28_$u7b$$u7b$closure$u7d$$u7d$17h141942b3ab6b1748E', symObjAddr: 0x266A0, symBinAddr: 0x100027850, symSize: 0x380 }
  - { offset: 0x5AF45, size: 0x8, addend: 0x0, symName: __ZN3std9panicking13panic_handler19FormatStringPayload4fill17hd583736f0adc2b9eE, symObjAddr: 0x26A20, symBinAddr: 0x100027BD0, symSize: 0xC0 }
  - { offset: 0x5B062, size: 0x8, addend: 0x0, symName: '__ZN3std9panicking13panic_handler28_$u7b$$u7b$closure$u7d$$u7d$17h0449b52d62cc4acdE', symObjAddr: 0x26AE0, symBinAddr: 0x100027C90, symSize: 0xD0 }
  - { offset: 0x5B1BE, size: 0x8, addend: 0x0, symName: '__ZN86_$LT$std..panicking..panic_handler..StaticStrPayload$u20$as$u20$core..fmt..Display$GT$3fmt17h611d737e25d39e04E', symObjAddr: 0x58C20, symBinAddr: 0x100043160, symSize: 0x20 }
  - { offset: 0x5B1DF, size: 0x8, addend: 0x0, symName: '__ZN89_$LT$std..panicking..panic_handler..FormatStringPayload$u20$as$u20$core..fmt..Display$GT$3fmt17h2c418704e9a80b67E', symObjAddr: 0x59030, symBinAddr: 0x100043180, symSize: 0x70 }
  - { offset: 0x5B2D3, size: 0x8, addend: 0x0, symName: '__ZN93_$LT$std..panicking..panic_handler..StaticStrPayload$u20$as$u20$core..panic..PanicPayload$GT$3get17h54b2dcb3b150a54cE', symObjAddr: 0x59900, symBinAddr: 0x100043310, symSize: 0x10 }
  - { offset: 0x5B2EE, size: 0x8, addend: 0x0, symName: '__ZN93_$LT$std..panicking..panic_handler..StaticStrPayload$u20$as$u20$core..panic..PanicPayload$GT$6as_str17h5a1a7c38fda21c29E', symObjAddr: 0x59910, symBinAddr: 0x100043320, symSize: 0x10 }
  - { offset: 0x5B309, size: 0x8, addend: 0x0, symName: '__ZN93_$LT$std..panicking..panic_handler..StaticStrPayload$u20$as$u20$core..panic..PanicPayload$GT$8take_box17hdf5e7dcb860e8869E', symObjAddr: 0x59920, symBinAddr: 0x100043330, symSize: 0x50 }
  - { offset: 0x5B386, size: 0x8, addend: 0x0, symName: '__ZN96_$LT$std..panicking..panic_handler..FormatStringPayload$u20$as$u20$core..panic..PanicPayload$GT$3get17he619996a915dba5aE', symObjAddr: 0x5A150, symBinAddr: 0x1000437A0, symSize: 0x20 }
  - { offset: 0x5B3A1, size: 0x8, addend: 0x0, symName: '__ZN96_$LT$std..panicking..panic_handler..FormatStringPayload$u20$as$u20$core..panic..PanicPayload$GT$8take_box17h1d68480d8bee4f17E', symObjAddr: 0x5A170, symBinAddr: 0x1000437C0, symSize: 0xA0 }
  - { offset: 0x5B4F3, size: 0x8, addend: 0x0, symName: __ZN3std9panicking14payload_as_str17h7b83b1c48b989ea0E, symObjAddr: 0x26C50, symBinAddr: 0x100027D60, symSize: 0x7D }
  - { offset: 0x5B638, size: 0x8, addend: 0x0, symName: __ZN3std9panicking15panic_with_hook17he1033abc98626357E, symObjAddr: 0x26CCD, symBinAddr: 0x100027DDD, symSize: 0x43D }
  - { offset: 0x5BF94, size: 0x8, addend: 0x0, symName: __ZN3std3sys3pal6common14small_c_string24run_with_cstr_allocating17h5cc89072fa4ee439E, symObjAddr: 0x19EE0, symBinAddr: 0x100054370, symSize: 0x90 }
  - { offset: 0x5C103, size: 0x8, addend: 0x0, symName: __ZN3std3sys3pal6common14small_c_string24run_with_cstr_allocating17hc579900339e23d19E, symObjAddr: 0x1A190, symBinAddr: 0x100054400, symSize: 0xB0 }
  - { offset: 0x5C2DF, size: 0x8, addend: 0x0, symName: __ZN3std3sys3pal6common14small_c_string24run_with_cstr_allocating17he4af3d6cbd61cc52E, symObjAddr: 0x1A2F0, symBinAddr: 0x1000544B0, symSize: 0xB0 }
  - { offset: 0x5C500, size: 0x8, addend: 0x0, symName: __ZN3std3sys3pal4unix14stack_overflow11thread_info16set_current_info17h9c07c7c3f5a792f2E, symObjAddr: 0x17860, symBinAddr: 0x100023B70, symSize: 0xEA0 }
  - { offset: 0x5D7F2, size: 0x8, addend: 0x0, symName: __ZN3std3sys3pal4unix14stack_overflow3imp12drop_handler17h10e97a4f0d9b05d8E, symObjAddr: 0x18700, symBinAddr: 0x100024A10, symSize: 0x520 }
  - { offset: 0x5E073, size: 0x8, addend: 0x0, symName: __ZN3std3sys3pal4unix14stack_overflow3imp12make_handler17h7ea0af42963bc428E, symObjAddr: 0x18C20, symBinAddr: 0x100024F30, symSize: 0x290 }
  - { offset: 0x5E446, size: 0x8, addend: 0x0, symName: __ZN3std3sys3pal4unix14stack_overflow3imp14signal_handler17ha77e123931615aa3E, symObjAddr: 0x18EB0, symBinAddr: 0x1000251C0, symSize: 0x380 }
  - { offset: 0x5EB44, size: 0x8, addend: 0x0, symName: __ZN3std3sys3pal4unix4sync5mutex5Mutex4init17hc0cd42f50e15ec42E, symObjAddr: 0x199B0, symBinAddr: 0x100025790, symSize: 0x160 }
  - { offset: 0x5EC00, size: 0x8, addend: 0x0, symName: __ZN3std3sys3pal4unix4sync5mutex5Mutex4lock4fail17ha33bd018f471c78aE, symObjAddr: 0x19B30, symBinAddr: 0x100054270, symSize: 0x100 }
  - { offset: 0x5EF02, size: 0x8, addend: 0x0, symName: __ZN3std3sys3pal4unix14abort_internal17h2d7ebcba1920d509E, symObjAddr: 0x17850, symBinAddr: 0x100054260, symSize: 0x10 }
  - { offset: 0x5EF1D, size: 0x8, addend: 0x0, symName: __ZN3std3sys3pal4unix17decode_error_kind17h447b85d7b88dc1dcE, symObjAddr: 0x19230, symBinAddr: 0x100025540, symSize: 0x250 }
  - { offset: 0x5EFA3, size: 0x8, addend: 0x0, symName: __ZN3std3sys12thread_local6native5eager7destroy17h52ab99797ee9e6c0E, symObjAddr: 0x122C0, symBinAddr: 0x100023430, symSize: 0x20 }
  - { offset: 0x5F125, size: 0x8, addend: 0x0, symName: __ZN3std3sys12thread_local5guard5apple6enable9run_dtors17h38edc9b0697859adE, symObjAddr: 0x121D0, symBinAddr: 0x100023340, symSize: 0xF0 }
  - { offset: 0x5F5C3, size: 0x8, addend: 0x0, symName: __ZN3std3sys12thread_local11destructors4list8register17h1d9ec60dd9886de7E, symObjAddr: 0x120E0, symBinAddr: 0x100023250, symSize: 0xF0 }
  - { offset: 0x5F852, size: 0x8, addend: 0x0, symName: __ZN3std3sys3env4unix13env_read_lock17h6b780f3777072ce3E, symObjAddr: 0x165B0, symBinAddr: 0x1000237D0, symSize: 0x280 }
  - { offset: 0x5FF19, size: 0x8, addend: 0x0, symName: '__ZN3std3sys3env4unix6getenv28_$u7b$$u7b$closure$u7d$$u7d$17hbced0c0771611cafE', symObjAddr: 0x16830, symBinAddr: 0x100023A50, symSize: 0x120 }
  - { offset: 0x601BA, size: 0x8, addend: 0x0, symName: __ZN3std3sys2fs4unix4File6open_c17he05b2f9a6cd0c0a5E, symObjAddr: 0x14FB0, symBinAddr: 0x100023450, symSize: 0x180 }
  - { offset: 0x60375, size: 0x8, addend: 0x0, symName: '__ZN65_$LT$std..sys..fs..unix..Dir$u20$as$u20$core..ops..drop..Drop$GT$4drop17h00566fb81437571eE', symObjAddr: 0x531C0, symBinAddr: 0x100042450, symSize: 0xD0 }
  - { offset: 0x6046B, size: 0x8, addend: 0x0, symName: __ZN3std3sys2fs8read_dir17he96197a45d71fcd1E, symObjAddr: 0x160D0, symBinAddr: 0x1000235D0, symSize: 0x200 }
  - { offset: 0x60875, size: 0x8, addend: 0x0, symName: '__ZN64_$LT$std..sys..stdio..unix..Stderr$u20$as$u20$std..io..Write$GT$14write_vectored17h2dbb79a2e8dce948E', symObjAddr: 0x52F00, symBinAddr: 0x100042390, symSize: 0x50 }
  - { offset: 0x60944, size: 0x8, addend: 0x0, symName: '__ZN64_$LT$std..sys..stdio..unix..Stderr$u20$as$u20$std..io..Write$GT$17is_write_vectored17h9d9019aa34dca71eE', symObjAddr: 0x52F50, symBinAddr: 0x1000423E0, symSize: 0x10 }
  - { offset: 0x6095E, size: 0x8, addend: 0x0, symName: '__ZN64_$LT$std..sys..stdio..unix..Stderr$u20$as$u20$std..io..Write$GT$5flush17haca374bc2fb40ebcE', symObjAddr: 0x52F60, symBinAddr: 0x1000423F0, symSize: 0x10 }
  - { offset: 0x60978, size: 0x8, addend: 0x0, symName: '__ZN64_$LT$std..sys..stdio..unix..Stderr$u20$as$u20$std..io..Write$GT$5write17h4b5035fe5e5f2032E', symObjAddr: 0x52F70, symBinAddr: 0x100042400, symSize: 0x50 }
  - { offset: 0x60AC5, size: 0x8, addend: 0x0, symName: '__ZN3std3sys4sync8once_box16OnceBox$LT$T$GT$10initialize17h6aa2ce4cfc78c157E', symObjAddr: 0x1B490, symBinAddr: 0x100054800, symSize: 0x120 }
  - { offset: 0x60DA1, size: 0x8, addend: 0x0, symName: __ZN3std3sys4sync4once5queue4Once4call17h8e466067d86cbcb3E, symObjAddr: 0x1A7E0, symBinAddr: 0x100054560, symSize: 0x210 }
  - { offset: 0x6105B, size: 0x8, addend: 0x0, symName: '__ZN82_$LT$std..sys..sync..once..queue..WaiterQueue$u20$as$u20$core..ops..drop..Drop$GT$4drop17h17a27c240e6095eaE', symObjAddr: 0x586D0, symBinAddr: 0x100043090, symSize: 0xD0 }
  - { offset: 0x61210, size: 0x8, addend: 0x0, symName: __ZN3std3sys4sync4once5queue4wait17hcf137e24f8369e0fE, symObjAddr: 0x1ABE0, symBinAddr: 0x1000258F0, symSize: 0x160 }
  - { offset: 0x616F3, size: 0x8, addend: 0x0, symName: __ZN3std3sys4sync6rwlock5queue6RwLock12unlock_queue17h2b38c5d2f4e14db6E, symObjAddr: 0x1AD60, symBinAddr: 0x100025A50, symSize: 0x180 }
  - { offset: 0x61D12, size: 0x8, addend: 0x0, symName: __ZN3std3sys4sync6rwlock5queue6RwLock16unlock_contended17h434533e27b51e3a9E, symObjAddr: 0x1B1F0, symBinAddr: 0x100054770, symSize: 0x40 }
  - { offset: 0x61DEE, size: 0x8, addend: 0x0, symName: __ZN3std3sys4sync6rwlock5queue6RwLock21read_unlock_contended17ha0f88a0fd7df0d66E, symObjAddr: 0x1B230, symBinAddr: 0x1000547B0, symSize: 0x50 }
  - { offset: 0x62046, size: 0x8, addend: 0x0, symName: __ZN3std3sys4sync6rwlock5queue9read_lock17h5e2659437ef5e87cE, symObjAddr: 0x1B280, symBinAddr: 0x100025BD0, symSize: 0x30 }
  - { offset: 0x6205F, size: 0x8, addend: 0x0, symName: '__ZN83_$LT$std..sys..sync..rwlock..queue..PanicGuard$u20$as$u20$core..ops..drop..Drop$GT$4drop17h9abf048048014633E', symObjAddr: 0x58950, symBinAddr: 0x100058E10, symSize: 0x60 }
  - { offset: 0x62124, size: 0x8, addend: 0x0, symName: '__ZN3std3sys11personality3gcc14find_eh_action28_$u7b$$u7b$closure$u7d$$u7d$17h71a716f7697f7c23E', symObjAddr: 0x120C0, symBinAddr: 0x100023230, symSize: 0x10 }
  - { offset: 0x62138, size: 0x8, addend: 0x0, symName: '__ZN3std3sys11personality3gcc14find_eh_action28_$u7b$$u7b$closure$u7d$$u7d$17hf3d297c424dd88bbE', symObjAddr: 0x120D0, symBinAddr: 0x100023240, symSize: 0x10 }
  - { offset: 0x62184, size: 0x8, addend: 0x0, symName: _rust_eh_personality, symObjAddr: 0x5D880, symBinAddr: 0x100046C30, symSize: 0x640 }
  - { offset: 0x62C73, size: 0x8, addend: 0x0, symName: '__ZN3std3sys9backtrace10_print_fmt28_$u7b$$u7b$closure$u7d$$u7d$17h240c89470c2fecd8E', symObjAddr: 0x1F310, symBinAddr: 0x100025C00, symSize: 0x130 }
  - { offset: 0x62D5B, size: 0x8, addend: 0x0, symName: '__ZN3std3sys9backtrace10_print_fmt28_$u7b$$u7b$closure$u7d$$u7d$17h32646e4212c9eef0E', symObjAddr: 0x1F440, symBinAddr: 0x100025D30, symSize: 0x20 }
  - { offset: 0x62D9C, size: 0x8, addend: 0x0, symName: '__ZN3std3sys9backtrace10_print_fmt28_$u7b$$u7b$closure$u7d$$u7d$28_$u7b$$u7b$closure$u7d$$u7d$17h9218d583d276298aE', symObjAddr: 0x1F460, symBinAddr: 0x100025D50, symSize: 0x2A0 }
  - { offset: 0x62F8F, size: 0x8, addend: 0x0, symName: __ZN3std3sys9backtrace13BacktraceLock5print17h5e73de0c808691a4E, symObjAddr: 0x1F700, symBinAddr: 0x100025FF0, symSize: 0x60 }
  - { offset: 0x62FC0, size: 0x8, addend: 0x0, symName: __ZN3std3sys9backtrace15output_filename17ha87664c578f770efE, symObjAddr: 0x1F760, symBinAddr: 0x100026050, symSize: 0x120 }
  - { offset: 0x6312C, size: 0x8, addend: 0x0, symName: __ZN3std3sys9backtrace26__rust_end_short_backtrace17h3fc1fab9d4b6800aE, symObjAddr: 0x1F880, symBinAddr: 0x100026170, symSize: 0x10 }
  - { offset: 0x63146, size: 0x8, addend: 0x0, symName: __ZN3std3sys9backtrace4lock17h2bb35fe2884a3a88E, symObjAddr: 0x1F8A0, symBinAddr: 0x100026180, symSize: 0x80 }
  - { offset: 0x6329C, size: 0x8, addend: 0x0, symName: '__ZN98_$LT$std..sys..backtrace..BacktraceLock..print..DisplayBacktrace$u20$as$u20$core..fmt..Display$GT$3fmt17hbb4f642dcc320b1dE', symObjAddr: 0x5A3B0, symBinAddr: 0x100043860, symSize: 0x280 }
  - { offset: 0x637FB, size: 0x8, addend: 0x0, symName: __RNvCskdKJRKLKjqM_7___rustc11___rdl_alloc, symObjAddr: 0x70, symBinAddr: 0x100018660, symSize: 0x70 }
  - { offset: 0x63879, size: 0x8, addend: 0x0, symName: __RNvCskdKJRKLKjqM_7___rustc13___rdl_dealloc, symObjAddr: 0xF0, symBinAddr: 0x1000186D0, symSize: 0x10 }
  - { offset: 0x638AA, size: 0x8, addend: 0x0, symName: __RNvCskdKJRKLKjqM_7___rustc13___rdl_realloc, symObjAddr: 0x100, symBinAddr: 0x1000186E0, symSize: 0xD0 }
  - { offset: 0x6398E, size: 0x8, addend: 0x0, symName: __RNvCskdKJRKLKjqM_7___rustc18___rdl_alloc_zeroed, symObjAddr: 0x2D0, symBinAddr: 0x1000188B0, symSize: 0x90 }
  - { offset: 0x63A33, size: 0x8, addend: 0x0, symName: __RNvCskdKJRKLKjqM_7___rustc8___rg_oom, symObjAddr: 0x430, symBinAddr: 0x1000540C0, symSize: 0x20 }
  - { offset: 0x63A4F, size: 0x8, addend: 0x0, symName: __ZN3std5alloc24default_alloc_error_hook17h037631a9e9542696E, symObjAddr: 0x23AD0, symBinAddr: 0x100027160, symSize: 0x160 }
  - { offset: 0x63CDC, size: 0x8, addend: 0x0, symName: __ZN3std5alloc8rust_oom17he6554ab5e3e4bfbfE, symObjAddr: 0x23C30, symBinAddr: 0x1000549E0, symSize: 0x20 }
  - { offset: 0x63D29, size: 0x8, addend: 0x0, symName: __ZN3std2rt15handle_rt_panic17hc19cb4ec1bf553a3E, symObjAddr: 0xF090, symBinAddr: 0x100054200, symSize: 0x60 }
  - { offset: 0x63DB9, size: 0x8, addend: 0x0, symName: __ZN3std2rt19lang_start_internal17he54b1e510ff92df3E, symObjAddr: 0xF0F0, symBinAddr: 0x100022840, symSize: 0x6C0 }
  - { offset: 0x649DC, size: 0x8, addend: 0x0, symName: __ZN3std2io5error5Error3new17hca09cf106a8bb92bE, symObjAddr: 0xC960, symBinAddr: 0x1000218A0, symSize: 0x120 }
  - { offset: 0x64DA1, size: 0x8, addend: 0x0, symName: '__ZN3std2io5error83_$LT$impl$u20$core..fmt..Debug$u20$for$u20$std..io..error..repr_bitpacked..Repr$GT$3fmt17h0c2c47996b5c8151E', symObjAddr: 0xCB00, symBinAddr: 0x1000219C0, symSize: 0x300 }
  - { offset: 0x64FF9, size: 0x8, addend: 0x0, symName: '__ZN58_$LT$std..io..error..Error$u20$as$u20$core..fmt..Debug$GT$3fmt17h4e87839884dfef9aE', symObjAddr: 0x3D080, symBinAddr: 0x100035DD0, symSize: 0x10 }
  - { offset: 0x65013, size: 0x8, addend: 0x0, symName: '__ZN60_$LT$std..io..error..Error$u20$as$u20$core..fmt..Display$GT$3fmt17hb9b71bb9d61087ecE', symObjAddr: 0x4F030, symBinAddr: 0x100041800, symSize: 0x280 }
  - { offset: 0x65246, size: 0x8, addend: 0x0, symName: '__ZN62_$LT$std..io..error..ErrorKind$u20$as$u20$core..fmt..Debug$GT$3fmt17hd88fc964aff56ab8E', symObjAddr: 0x51C40, symBinAddr: 0x100042240, symSize: 0x30 }
  - { offset: 0x652D9, size: 0x8, addend: 0x0, symName: '__ZN3std2io8buffered9bufwriter18BufWriter$LT$W$GT$14write_all_cold17h4cf021826987ea15E', symObjAddr: 0xDCD0, symBinAddr: 0x1000540E0, symSize: 0x120 }
  - { offset: 0x65518, size: 0x8, addend: 0x0, symName: '__ZN3std2io8buffered9bufwriter18BufWriter$LT$W$GT$9flush_buf17h223037aba0b50117E', symObjAddr: 0xDDF0, symBinAddr: 0x100022600, symSize: 0x240 }
  - { offset: 0x65B3E, size: 0x8, addend: 0x0, symName: '__ZN56_$LT$std..io..Guard$u20$as$u20$core..ops..drop..Drop$GT$4drop17h87a3c6b4739eee36E', symObjAddr: 0x3C6E0, symBinAddr: 0x100035C00, symSize: 0x20 }
  - { offset: 0x65B6E, size: 0x8, addend: 0x0, symName: __ZN3std2io5Write18write_all_vectored17hc2fed901070b4d06E, symObjAddr: 0xC160, symBinAddr: 0x1000211E0, symSize: 0x1D0 }
  - { offset: 0x65DB3, size: 0x8, addend: 0x0, symName: __ZN3std2io5Write9write_all17ha0278d11ab8e55b7E, symObjAddr: 0xC330, symBinAddr: 0x1000213B0, symSize: 0xA0 }
  - { offset: 0x65EA3, size: 0x8, addend: 0x0, symName: __ZN3std2io5Write9write_fmt17h0157f34dfbceefe5E, symObjAddr: 0xC3D0, symBinAddr: 0x100021450, symSize: 0x170 }
  - { offset: 0x6617D, size: 0x8, addend: 0x0, symName: __ZN3std2io5Write9write_fmt17h24b62528f4d1168aE, symObjAddr: 0xC540, symBinAddr: 0x1000215C0, symSize: 0x170 }
  - { offset: 0x66457, size: 0x8, addend: 0x0, symName: __ZN3std2io5Write9write_fmt17h5e34a6300392fe22E, symObjAddr: 0xC6B0, symBinAddr: 0x100021730, symSize: 0x170 }
  - { offset: 0x667AA, size: 0x8, addend: 0x0, symName: __ZN3std2io5stdio22try_set_output_capture17hb613035c20b6d0f1E, symObjAddr: 0xD2C0, symBinAddr: 0x1000220B0, symSize: 0xB0 }
  - { offset: 0x66A39, size: 0x8, addend: 0x0, symName: __ZN3std2io5stdio23attempt_print_to_stderr17h3a383b292d8d0a59E, symObjAddr: 0xD370, symBinAddr: 0x100022160, symSize: 0xD0 }
  - { offset: 0x66CEC, size: 0x8, addend: 0x0, symName: __ZN3std2io5stdio31print_to_buffer_if_capture_used17hde0c84d24b5006f1E, symObjAddr: 0xD440, symBinAddr: 0x100022230, symSize: 0x220 }
  - { offset: 0x673FE, size: 0x8, addend: 0x0, symName: __ZN3std2io5stdio6Stderr4lock17h9794f8e40f87e1fdE, symObjAddr: 0xD8C0, symBinAddr: 0x100022450, symSize: 0xC0 }
  - { offset: 0x676CD, size: 0x8, addend: 0x0, symName: __ZN3std2io5stdio6_print17he5f702afc7c35b8cE, symObjAddr: 0xD980, symBinAddr: 0x100022510, symSize: 0xF0 }
  - { offset: 0x67842, size: 0x8, addend: 0x0, symName: '__ZN61_$LT$$RF$std..io..stdio..Stderr$u20$as$u20$std..io..Write$GT$9write_fmt17h4e3fdff94d0882edE', symObjAddr: 0x50110, symBinAddr: 0x100041A80, symSize: 0x1C0 }
  - { offset: 0x67CC6, size: 0x8, addend: 0x0, symName: '__ZN61_$LT$std..io..stdio..StderrLock$u20$as$u20$std..io..Write$GT$9write_all17h468845e2c0726439E', symObjAddr: 0x509B0, symBinAddr: 0x100041E00, symSize: 0x100 }
  - { offset: 0x67F46, size: 0x8, addend: 0x0, symName: '__ZN61_$LT$$RF$std..io..stdio..Stdout$u20$as$u20$std..io..Write$GT$9write_fmt17h0eee9ce97af14d23E', symObjAddr: 0x50590, symBinAddr: 0x100041C40, symSize: 0x1C0 }
  - { offset: 0x683EA, size: 0x8, addend: 0x0, symName: '__ZN61_$LT$std..io..stdio..StdoutLock$u20$as$u20$std..io..Write$GT$9write_all17h054337cb99b92b16E', symObjAddr: 0x51070, symBinAddr: 0x100041F00, symSize: 0x260 }
  - { offset: 0x68A6C, size: 0x8, addend: 0x0, symName: '__ZN3std2io5impls74_$LT$impl$u20$std..io..Write$u20$for$u20$alloc..vec..Vec$LT$u8$C$A$GT$$GT$14write_vectored17h396066abfc006fcaE', symObjAddr: 0xCE00, symBinAddr: 0x100021CC0, symSize: 0x180 }
  - { offset: 0x68C6E, size: 0x8, addend: 0x0, symName: '__ZN3std2io5impls74_$LT$impl$u20$std..io..Write$u20$for$u20$alloc..vec..Vec$LT$u8$C$A$GT$$GT$17is_write_vectored17h473fffb9382bf9c6E', symObjAddr: 0xCF80, symBinAddr: 0x100021E40, symSize: 0x10 }
  - { offset: 0x68C97, size: 0x8, addend: 0x0, symName: '__ZN3std2io5impls74_$LT$impl$u20$std..io..Write$u20$for$u20$alloc..vec..Vec$LT$u8$C$A$GT$$GT$18write_all_vectored17hcfe81a52ebadbc0bE', symObjAddr: 0xCF90, symBinAddr: 0x100021E50, symSize: 0x170 }
  - { offset: 0x68CC2, size: 0x8, addend: 0x0, symName: '__ZN3std2io5impls74_$LT$impl$u20$std..io..Write$u20$for$u20$alloc..vec..Vec$LT$u8$C$A$GT$$GT$18write_all_vectored17hcfe81a52ebadbc0bE', symObjAddr: 0xCF90, symBinAddr: 0x100021E50, symSize: 0x170 }
  - { offset: 0x68CD7, size: 0x8, addend: 0x0, symName: '__ZN3std2io5impls74_$LT$impl$u20$std..io..Write$u20$for$u20$alloc..vec..Vec$LT$u8$C$A$GT$$GT$18write_all_vectored17hcfe81a52ebadbc0bE', symObjAddr: 0xCF90, symBinAddr: 0x100021E50, symSize: 0x170 }
  - { offset: 0x68CEC, size: 0x8, addend: 0x0, symName: '__ZN3std2io5impls74_$LT$impl$u20$std..io..Write$u20$for$u20$alloc..vec..Vec$LT$u8$C$A$GT$$GT$18write_all_vectored17hcfe81a52ebadbc0bE', symObjAddr: 0xCF90, symBinAddr: 0x100021E50, symSize: 0x170 }
  - { offset: 0x68D00, size: 0x8, addend: 0x0, symName: '__ZN3std2io5impls74_$LT$impl$u20$std..io..Write$u20$for$u20$alloc..vec..Vec$LT$u8$C$A$GT$$GT$18write_all_vectored17hcfe81a52ebadbc0bE', symObjAddr: 0xCF90, symBinAddr: 0x100021E50, symSize: 0x170 }
  - { offset: 0x68D14, size: 0x8, addend: 0x0, symName: '__ZN3std2io5impls74_$LT$impl$u20$std..io..Write$u20$for$u20$alloc..vec..Vec$LT$u8$C$A$GT$$GT$18write_all_vectored17hcfe81a52ebadbc0bE', symObjAddr: 0xCF90, symBinAddr: 0x100021E50, symSize: 0x170 }
  - { offset: 0x68ECE, size: 0x8, addend: 0x0, symName: '__ZN3std2io5impls74_$LT$impl$u20$std..io..Write$u20$for$u20$alloc..vec..Vec$LT$u8$C$A$GT$$GT$5flush17hc83d241489517b1fE', symObjAddr: 0xD100, symBinAddr: 0x100021FC0, symSize: 0x10 }
  - { offset: 0x68EE9, size: 0x8, addend: 0x0, symName: '__ZN3std2io5impls74_$LT$impl$u20$std..io..Write$u20$for$u20$alloc..vec..Vec$LT$u8$C$A$GT$$GT$5write17h0e0da068fc5acedeE', symObjAddr: 0xD110, symBinAddr: 0x100021FD0, symSize: 0x70 }
  - { offset: 0x68FCF, size: 0x8, addend: 0x0, symName: '__ZN3std2io5impls74_$LT$impl$u20$std..io..Write$u20$for$u20$alloc..vec..Vec$LT$u8$C$A$GT$$GT$9write_all17h7bccd6e9d3e19e7fE', symObjAddr: 0xD180, symBinAddr: 0x100022040, symSize: 0x70 }
  - { offset: 0x691D8, size: 0x8, addend: 0x0, symName: '__ZN81_$LT$std..io..default_write_fmt..Adapter$LT$T$GT$$u20$as$u20$core..fmt..Write$GT$9write_str17h1649a3991f2ea191E', symObjAddr: 0x57A70, symBinAddr: 0x100042E10, symSize: 0xD0 }
  - { offset: 0x692E4, size: 0x8, addend: 0x0, symName: '__ZN81_$LT$std..io..default_write_fmt..Adapter$LT$T$GT$$u20$as$u20$core..fmt..Write$GT$9write_str17h284670e048cc9fa3E', symObjAddr: 0x57B40, symBinAddr: 0x100042EE0, symSize: 0x50 }
  - { offset: 0x6930E, size: 0x8, addend: 0x0, symName: '__ZN81_$LT$std..io..default_write_fmt..Adapter$LT$T$GT$$u20$as$u20$core..fmt..Write$GT$9write_str17h65288afb60bc4b22E', symObjAddr: 0x57C60, symBinAddr: 0x100042F30, symSize: 0x70 }
  - { offset: 0x693FB, size: 0x8, addend: 0x0, symName: '__ZN81_$LT$std..io..default_write_fmt..Adapter$LT$T$GT$$u20$as$u20$core..fmt..Write$GT$9write_str17h9ddd3fd8700ebc6eE', symObjAddr: 0x57CD0, symBinAddr: 0x100042FA0, symSize: 0x50 }
  - { offset: 0x69425, size: 0x8, addend: 0x0, symName: '__ZN81_$LT$std..io..default_write_fmt..Adapter$LT$T$GT$$u20$as$u20$core..fmt..Write$GT$9write_str17hf60e64c5a7fc0711E', symObjAddr: 0x57D20, symBinAddr: 0x100042FF0, symSize: 0xA0 }
  - { offset: 0x69676, size: 0x8, addend: 0x0, symName: __ZN3std4path4Path13_strip_prefix17h57206cfe16291a76E, symObjAddr: 0x20BD0, symBinAddr: 0x100026840, symSize: 0x3C0 }
  - { offset: 0x69786, size: 0x8, addend: 0x0, symName: __ZN3std4path4Path5_join17hf8c84868fde1d922E, symObjAddr: 0x21720, symBinAddr: 0x100026C00, symSize: 0x190 }
  - { offset: 0x69E4D, size: 0x8, addend: 0x0, symName: __ZN3std4path10Components15len_before_body17hc0c9c8c5c44312a5E, symObjAddr: 0x1F920, symBinAddr: 0x100026200, symSize: 0x170 }
  - { offset: 0x69E64, size: 0x8, addend: 0x0, symName: __ZN3std4path10Components15len_before_body17hc0c9c8c5c44312a5E, symObjAddr: 0x1F920, symBinAddr: 0x100026200, symSize: 0x170 }
  - { offset: 0x69E79, size: 0x8, addend: 0x0, symName: __ZN3std4path10Components15len_before_body17hc0c9c8c5c44312a5E, symObjAddr: 0x1F920, symBinAddr: 0x100026200, symSize: 0x170 }
  - { offset: 0x6A051, size: 0x8, addend: 0x0, symName: __ZN3std4path10Components25parse_next_component_back17h39a0247b7cda8e0bE, symObjAddr: 0x1FA90, symBinAddr: 0x100026370, symSize: 0xF0 }
  - { offset: 0x6A1F0, size: 0x8, addend: 0x0, symName: __ZN3std4path10Components7as_path17h069c6a5a65b7ff44E, symObjAddr: 0x1FB80, symBinAddr: 0x100026460, symSize: 0x3E0 }
  - { offset: 0x6A621, size: 0x8, addend: 0x0, symName: '__ZN61_$LT$std..path..Component$u20$as$u20$core..cmp..PartialEq$GT$2eq17h491fa3e2db060d13E', symObjAddr: 0x512F0, symBinAddr: 0x100042160, symSize: 0xE0 }
  - { offset: 0x6A6DB, size: 0x8, addend: 0x0, symName: '__ZN80_$LT$std..path..Components$u20$as$u20$core..iter..traits..iterator..Iterator$GT$4next17hee0b9dd08b602416E', symObjAddr: 0x57330, symBinAddr: 0x100042A00, symSize: 0x410 }
  - { offset: 0x6AA7C, size: 0x8, addend: 0x0, symName: '__ZN95_$LT$std..path..Components$u20$as$u20$core..iter..traits..double_ended..DoubleEndedIterator$GT$9next_back17h714e7cb7d2d85f84E', symObjAddr: 0x59CE0, symBinAddr: 0x100043380, symSize: 0x420 }
  - { offset: 0x6AC88, size: 0x8, addend: 0x0, symName: __ZN3std7process5abort17h0d4477327f66e8fbE, symObjAddr: 0x25400, symBinAddr: 0x100054BB0, symSize: 0x10 }
  - { offset: 0x6ACB3, size: 0x8, addend: 0x0, symName: '__ZN118_$LT$std..thread..thread_name_string..ThreadNameString$u20$as$u20$core..convert..From$LT$alloc..string..String$GT$$GT$4from17h61e83cd51d9b6e6aE', symObjAddr: 0x10C0, symBinAddr: 0x100018A10, symSize: 0x100 }
  - { offset: 0x6B06B, size: 0x8, addend: 0x0, symName: __ZN3std6thread7current12init_current17h90dce586534f49cdE, symObjAddr: 0x245B0, symBinAddr: 0x100054A00, symSize: 0x160 }
  - { offset: 0x6B383, size: 0x8, addend: 0x0, symName: __ZN3std6thread7current13current_os_id17h7dd262076b74b984E, symObjAddr: 0x24710, symBinAddr: 0x1000274D0, symSize: 0x80 }
  - { offset: 0x6B596, size: 0x8, addend: 0x0, symName: __ZN3std6thread6Thread3new17haba3f9a731f34843E, symObjAddr: 0x241F0, symBinAddr: 0x100027390, symSize: 0x140 }
  - { offset: 0x6B8DD, size: 0x8, addend: 0x0, symName: __ZN3std6thread8ThreadId3new9exhausted17h406b0b054c541c40E, symObjAddr: 0x248A0, symBinAddr: 0x100054B60, symSize: 0x50 }
  - { offset: 0x6B95D, size: 0x8, addend: 0x0, symName: __ZN3std12backtrace_rs5print17BacktraceFrameFmt21print_raw_with_column17h124737e9f41c54b0E, symObjAddr: 0x12B0, symBinAddr: 0x100018B70, symSize: 0x560 }
  - { offset: 0x6BB53, size: 0x8, addend: 0x0, symName: __ZN3std12backtrace_rs9backtrace9libunwind5trace8trace_fn17hc5d3caa7e26e2d87E, symObjAddr: 0x1810, symBinAddr: 0x1000190D0, symSize: 0x50 }
  - { offset: 0x6BC0E, size: 0x8, addend: 0x0, symName: __ZN3std12backtrace_rs9symbolize5gimli4mmap17h12ebabe808a68383E, symObjAddr: 0x1860, symBinAddr: 0x100019120, symSize: 0x210 }
  - { offset: 0x6C0FB, size: 0x8, addend: 0x0, symName: __ZN3std12backtrace_rs9symbolize5gimli5macho11find_header17hde9f2a87e444cec9E, symObjAddr: 0x1A70, symBinAddr: 0x100019330, symSize: 0x190 }
  - { offset: 0x6C7D9, size: 0x8, addend: 0x0, symName: __ZN3std12backtrace_rs9symbolize5gimli5macho6Object5parse17h400ac0874d941337E, symObjAddr: 0x1C00, symBinAddr: 0x1000194C0, symSize: 0x1040 }
  - { offset: 0x6E700, size: 0x8, addend: 0x0, symName: __ZN3std12backtrace_rs9symbolize5gimli5macho6Object7section17hf53b9a42818e2c3dE, symObjAddr: 0x2C40, symBinAddr: 0x10001A500, symSize: 0x180 }
  - { offset: 0x6EB3A, size: 0x8, addend: 0x0, symName: __ZN3std12backtrace_rs9symbolize5gimli7Context11find_frames17h15418eb91b7e6263E, symObjAddr: 0x2DC0, symBinAddr: 0x10001A680, symSize: 0x3D0 }
  - { offset: 0x6EF1A, size: 0x8, addend: 0x0, symName: __ZN3std12backtrace_rs9symbolize5gimli7Context3new17hb329d27e4d696e6aE, symObjAddr: 0x3190, symBinAddr: 0x10001AA50, symSize: 0x3050 }
  - { offset: 0x73078, size: 0x8, addend: 0x0, symName: __ZN3std12backtrace_rs9symbolize5gimli7resolve17h34165e1bf34eef53E, symObjAddr: 0x61E0, symBinAddr: 0x10001DAA0, symSize: 0x3560 }
  - { offset: 0x79104, size: 0x8, addend: 0x0, symName: __ZN3std12backtrace_rs9symbolize6Symbol4name17hd612854ad8f0ffd0E, symObjAddr: 0x9780, symBinAddr: 0x100021000, symSize: 0x110 }
  - { offset: 0x7923D, size: 0x8, addend: 0x0, symName: '__ZN79_$LT$std..backtrace_rs..symbolize..SymbolName$u20$as$u20$core..fmt..Display$GT$3fmt17hdc33297e1ed74ca2E', symObjAddr: 0x56AE0, symBinAddr: 0x100042920, symSize: 0xE0 }
  - { offset: 0x79347, size: 0x8, addend: 0x0, symName: __ZN3std2fs11OpenOptions5_open17hf30a08b257e0657bE, symObjAddr: 0x9EE0, symBinAddr: 0x100021110, symSize: 0xD0 }
  - { offset: 0x79494, size: 0x8, addend: 0x0, symName: '__ZN48_$LT$std..fs..File$u20$as$u20$std..io..Write$GT$5write17h6aa997d699243505E', symObjAddr: 0x28450, symBinAddr: 0x100028460, symSize: 0x50 }
  - { offset: 0x795B8, size: 0x8, addend: 0x0, symName: '__ZN47_$LT$std..fs..File$u20$as$u20$std..io..Read$GT$8read_buf17h775342cd8cd62617E', symObjAddr: 0x282E0, symBinAddr: 0x1000283F0, symSize: 0x70 }
  - { offset: 0x7991D, size: 0x8, addend: 0x0, symName: '__ZN64_$LT$std..ffi..os_str..Display$u20$as$u20$core..fmt..Display$GT$3fmt17hc3b4edbdc1de5d2aE', symObjAddr: 0x52BC0, symBinAddr: 0x1000422C0, symSize: 0xD0 }
  - { offset: 0x799A2, size: 0x8, addend: 0x0, symName: '__ZN3std4sync6poison5mutex14Mutex$LT$T$GT$4lock17hc2ce4f843db9b8deE', symObjAddr: 0x23070, symBinAddr: 0x1000270F0, symSize: 0x70 }
  - { offset: 0x79C01, size: 0x8, addend: 0x0, symName: '__ZN3std4sync6poison4once4Once15call_once_force28_$u7b$$u7b$closure$u7d$$u7d$17h3fd27ef06f442f06E', symObjAddr: 0x22AF0, symBinAddr: 0x100026D90, symSize: 0x90 }
  - { offset: 0x79CB8, size: 0x8, addend: 0x0, symName: '__ZN3std4sync6poison4once4Once15call_once_force28_$u7b$$u7b$closure$u7d$$u7d$17hcef2943343630694E', symObjAddr: 0x22D80, symBinAddr: 0x100026E20, symSize: 0x90 }
  - { offset: 0x79E15, size: 0x8, addend: 0x0, symName: '__ZN3std4sync6poison4once4Once9call_once28_$u7b$$u7b$closure$u7d$$u7d$17h5c617ced4614c08fE', symObjAddr: 0x22E30, symBinAddr: 0x100026EB0, symSize: 0x240 }
  - { offset: 0x7A5B8, size: 0x8, addend: 0x0, symName: '__ZN3std4sync9once_lock17OnceLock$LT$T$GT$10initialize17h9ad90c5bfd166a66E', symObjAddr: 0x23793, symBinAddr: 0x100054923, symSize: 0x59 }
  - { offset: 0x7A5E3, size: 0x8, addend: 0x0, symName: '__ZN3std4sync9once_lock17OnceLock$LT$T$GT$10initialize17h9ad90c5bfd166a66E', symObjAddr: 0x23793, symBinAddr: 0x100054923, symSize: 0x59 }
  - { offset: 0x7A5F7, size: 0x8, addend: 0x0, symName: '__ZN3std4sync9once_lock17OnceLock$LT$T$GT$10initialize17h9ad90c5bfd166a66E', symObjAddr: 0x23793, symBinAddr: 0x100054923, symSize: 0x59 }
  - { offset: 0x7A60B, size: 0x8, addend: 0x0, symName: '__ZN3std4sync9once_lock17OnceLock$LT$T$GT$10initialize17h9ad90c5bfd166a66E', symObjAddr: 0x23793, symBinAddr: 0x100054923, symSize: 0x59 }
  - { offset: 0x7A621, size: 0x8, addend: 0x0, symName: '__ZN3std4sync9once_lock17OnceLock$LT$T$GT$10initialize17hdc61a2003d8acd11E', symObjAddr: 0x23841, symBinAddr: 0x100054981, symSize: 0x5F }
  - { offset: 0x7A64C, size: 0x8, addend: 0x0, symName: '__ZN3std4sync9once_lock17OnceLock$LT$T$GT$10initialize17hdc61a2003d8acd11E', symObjAddr: 0x23841, symBinAddr: 0x100054981, symSize: 0x5F }
  - { offset: 0x7A660, size: 0x8, addend: 0x0, symName: '__ZN3std4sync9once_lock17OnceLock$LT$T$GT$10initialize17hdc61a2003d8acd11E', symObjAddr: 0x23841, symBinAddr: 0x100054981, symSize: 0x5F }
  - { offset: 0x7A674, size: 0x8, addend: 0x0, symName: '__ZN3std4sync9once_lock17OnceLock$LT$T$GT$10initialize17hdc61a2003d8acd11E', symObjAddr: 0x23841, symBinAddr: 0x100054981, symSize: 0x5F }
  - { offset: 0x7A811, size: 0x8, addend: 0x0, symName: __ZN3std5panic19get_backtrace_style17h4c7362303865842eE, symObjAddr: 0x23C60, symBinAddr: 0x1000272C0, symSize: 0xD0 }
  - { offset: 0x7A82F, size: 0x8, addend: 0x0, symName: __ZN3std5panic19get_backtrace_style17h4c7362303865842eE, symObjAddr: 0x23C60, symBinAddr: 0x1000272C0, symSize: 0xD0 }
  - { offset: 0x7A844, size: 0x8, addend: 0x0, symName: __ZN3std5panic19get_backtrace_style17h4c7362303865842eE, symObjAddr: 0x23C60, symBinAddr: 0x1000272C0, symSize: 0xD0 }
  - { offset: 0x7AAB1, size: 0x8, addend: 0x0, symName: __ZN3std3env11current_dir17h09876c9b4b89060dE, symObjAddr: 0xF800, symBinAddr: 0x100022F00, symSize: 0x1C0 }
  - { offset: 0x7AEE0, size: 0x8, addend: 0x0, symName: __ZN3std3env7_var_os17ha90d6152c34619e1E, symObjAddr: 0xFB80, symBinAddr: 0x1000230C0, symSize: 0x170 }
  - { offset: 0x7B511, size: 0x8, addend: 0x0, symName: __ZN5alloc5alloc15exchange_malloc17hdc54b6ad35f557b1E, symObjAddr: 0x452D0, symBinAddr: 0x100038030, symSize: 0x40 }
  - { offset: 0x7C4AF, size: 0x8, addend: 0x0, symName: '__ZN64_$LT$alloc..ffi..c_str..NulError$u20$as$u20$core..fmt..Debug$GT$3fmt17h42a8844572b8105bE', symObjAddr: 0x524F0, symBinAddr: 0x100042270, symSize: 0x50 }
  - { offset: 0x7CE31, size: 0x8, addend: 0x0, symName: '__ZN5alloc11collections5btree4node208Handle$LT$alloc..collections..btree..node..NodeRef$LT$alloc..collections..btree..node..marker..Mut$C$K$C$V$C$alloc..collections..btree..node..marker..Leaf$GT$$C$alloc..collections..btree..node..marker..KV$GT$5split17h2e0ddf5cd10d99d6E', symObjAddr: 0x40F70, symBinAddr: 0x100036560, symSize: 0x1C0 }
  - { offset: 0x7D20D, size: 0x8, addend: 0x0, symName: '__ZN5alloc11collections5btree4node212Handle$LT$alloc..collections..btree..node..NodeRef$LT$alloc..collections..btree..node..marker..Mut$C$K$C$V$C$alloc..collections..btree..node..marker..Internal$GT$$C$alloc..collections..btree..node..marker..KV$GT$5split17h17c643d4c82620a0E', symObjAddr: 0x41820, symBinAddr: 0x100036720, symSize: 0x280 }
  - { offset: 0x7D78F, size: 0x8, addend: 0x0, symName: '__ZN5alloc11collections5btree6remove259_$LT$impl$u20$alloc..collections..btree..node..Handle$LT$alloc..collections..btree..node..NodeRef$LT$alloc..collections..btree..node..marker..Mut$C$K$C$V$C$alloc..collections..btree..node..marker..Leaf$GT$$C$alloc..collections..btree..node..marker..KV$GT$$GT$14remove_leaf_kv17h2a34ebe0da4333d8E', symObjAddr: 0x434D0, symBinAddr: 0x1000374A0, symSize: 0x8C0 }
  - { offset: 0x7E504, size: 0x8, addend: 0x0, symName: '__ZN5alloc11collections5btree4node29BalancingContext$LT$K$C$V$GT$15bulk_steal_left17h66a91518f6da12fdE', symObjAddr: 0x42190, symBinAddr: 0x1000369A0, symSize: 0x370 }
  - { offset: 0x7E9E8, size: 0x8, addend: 0x0, symName: '__ZN5alloc11collections5btree4node29BalancingContext$LT$K$C$V$GT$16bulk_steal_right17h4e21d715a5e05da5E', symObjAddr: 0x42500, symBinAddr: 0x100036D10, symSize: 0x3C0 }
  - { offset: 0x7F002, size: 0x8, addend: 0x0, symName: '__ZN5alloc11collections5btree4node29BalancingContext$LT$K$C$V$GT$8do_merge17h59e33ac8b4f1aedbE', symObjAddr: 0x43100, symBinAddr: 0x1000370D0, symSize: 0x3D0 }
  - { offset: 0x7F816, size: 0x8, addend: 0x0, symName: '__ZN5alloc11collections5btree3map25IntoIter$LT$K$C$V$C$A$GT$10dying_next17h0137cfdaf279346fE', symObjAddr: 0x40430, symBinAddr: 0x100035DE0, symSize: 0x3C0 }
  - { offset: 0x7FB82, size: 0x8, addend: 0x0, symName: '__ZN5alloc11collections5btree3map25IntoIter$LT$K$C$V$C$A$GT$10dying_next17h74ba4dc90cd3bd84E', symObjAddr: 0x407F0, symBinAddr: 0x1000361A0, symSize: 0x3C0 }
  - { offset: 0x80957, size: 0x8, addend: 0x0, symName: '__ZN5alloc7raw_vec19RawVec$LT$T$C$A$GT$8grow_one17h1578391f1dd2c7daE', symObjAddr: 0x45380, symBinAddr: 0x100038070, symSize: 0xC0 }
  - { offset: 0x80A6D, size: 0x8, addend: 0x0, symName: '__ZN5alloc7raw_vec19RawVec$LT$T$C$A$GT$8grow_one17h1a8e605a6c9c7a9cE', symObjAddr: 0x45440, symBinAddr: 0x100038130, symSize: 0xC0 }
  - { offset: 0x80B98, size: 0x8, addend: 0x0, symName: '__ZN5alloc7raw_vec19RawVec$LT$T$C$A$GT$8grow_one17h496d6c99f941dcd8E', symObjAddr: 0x45500, symBinAddr: 0x1000381F0, symSize: 0xB0 }
  - { offset: 0x80CAE, size: 0x8, addend: 0x0, symName: '__ZN5alloc7raw_vec19RawVec$LT$T$C$A$GT$8grow_one17h62d92001f5fd4088E', symObjAddr: 0x455B0, symBinAddr: 0x1000382A0, symSize: 0xC0 }
  - { offset: 0x80DC4, size: 0x8, addend: 0x0, symName: '__ZN5alloc7raw_vec19RawVec$LT$T$C$A$GT$8grow_one17h882f0afd17fb4cf1E', symObjAddr: 0x45670, symBinAddr: 0x100038360, symSize: 0xC0 }
  - { offset: 0x80EEF, size: 0x8, addend: 0x0, symName: '__ZN5alloc7raw_vec19RawVec$LT$T$C$A$GT$8grow_one17h9215a3a3eddacbe8E', symObjAddr: 0x45730, symBinAddr: 0x100038420, symSize: 0xC0 }
  - { offset: 0x81005, size: 0x8, addend: 0x0, symName: '__ZN5alloc7raw_vec19RawVec$LT$T$C$A$GT$8grow_one17h944deff35e2917e9E', symObjAddr: 0x457F0, symBinAddr: 0x1000384E0, symSize: 0xC0 }
  - { offset: 0x81130, size: 0x8, addend: 0x0, symName: '__ZN5alloc7raw_vec19RawVec$LT$T$C$A$GT$8grow_one17h9e141b6ec2b6b304E', symObjAddr: 0x458B0, symBinAddr: 0x1000385A0, symSize: 0xB0 }
  - { offset: 0x81246, size: 0x8, addend: 0x0, symName: '__ZN5alloc7raw_vec19RawVec$LT$T$C$A$GT$8grow_one17haba969b9d90e429dE', symObjAddr: 0x45960, symBinAddr: 0x100038650, symSize: 0xC0 }
  - { offset: 0x81371, size: 0x8, addend: 0x0, symName: '__ZN5alloc7raw_vec19RawVec$LT$T$C$A$GT$8grow_one17hea102eabff85231dE', symObjAddr: 0x45AD0, symBinAddr: 0x100038710, symSize: 0xB0 }
  - { offset: 0x81487, size: 0x8, addend: 0x0, symName: '__ZN5alloc7raw_vec19RawVec$LT$T$C$A$GT$8grow_one17hf1b3041c36e8ca25E', symObjAddr: 0x45B80, symBinAddr: 0x1000387C0, symSize: 0xB0 }
  - { offset: 0x817E1, size: 0x8, addend: 0x0, symName: __ZN5alloc7raw_vec11finish_grow17h446b951c64c58a29E, symObjAddr: 0x45310, symBinAddr: 0x100058CC0, symSize: 0x70 }
  - { offset: 0x8186D, size: 0x8, addend: 0x0, symName: '__ZN5alloc7raw_vec20RawVecInner$LT$A$GT$7reserve21do_reserve_and_handle17ha31d691a92aa6984E', symObjAddr: 0x45C30, symBinAddr: 0x100058D30, symSize: 0xE0 }
  - { offset: 0x81B25, size: 0x8, addend: 0x0, symName: '__ZN58_$LT$alloc..string..String$u20$as$u20$core..fmt..Debug$GT$3fmt17hc75db25d6de527ebE', symObjAddr: 0x3CEA0, symBinAddr: 0x100035C20, symSize: 0x20 }
  - { offset: 0x81BE0, size: 0x8, addend: 0x0, symName: '__ZN58_$LT$alloc..string..String$u20$as$u20$core..fmt..Write$GT$10write_char17hba3be11e36d4a54fE', symObjAddr: 0x3CEC0, symBinAddr: 0x100035C40, symSize: 0x120 }
  - { offset: 0x81D66, size: 0x8, addend: 0x0, symName: '__ZN58_$LT$alloc..string..String$u20$as$u20$core..fmt..Write$GT$9write_str17h0e3a6c0844845614E', symObjAddr: 0x3CFE0, symBinAddr: 0x100035D60, symSize: 0x70 }
  - { offset: 0x81E60, size: 0x8, addend: 0x0, symName: '__ZN60_$LT$alloc..string..String$u20$as$u20$core..fmt..Display$GT$3fmt17h3ce6768c6f20d89dE', symObjAddr: 0x4EC80, symBinAddr: 0x1000417E0, symSize: 0x20 }
  - { offset: 0x822D3, size: 0x8, addend: 0x0, symName: '__ZN5alloc4sync16Arc$LT$T$C$A$GT$9drop_slow17h165e22aa5ecb5c14E', symObjAddr: 0x44F90, symBinAddr: 0x100037D60, symSize: 0x90 }
  - { offset: 0x825CF, size: 0x8, addend: 0x0, symName: '__ZN5alloc4sync16Arc$LT$T$C$A$GT$9drop_slow17h1b88c69b37654d90E', symObjAddr: 0x45020, symBinAddr: 0x100037DF0, symSize: 0xA0 }
  - { offset: 0x827D8, size: 0x8, addend: 0x0, symName: '__ZN5alloc4sync16Arc$LT$T$C$A$GT$9drop_slow17h38a2709360a70488E', symObjAddr: 0x450C0, symBinAddr: 0x100037E90, symSize: 0x60 }
  - { offset: 0x829A0, size: 0x8, addend: 0x0, symName: '__ZN5alloc4sync16Arc$LT$T$C$A$GT$9drop_slow17h4fe547a59c8e5f5cE', symObjAddr: 0x45120, symBinAddr: 0x100037EF0, symSize: 0x30 }
  - { offset: 0x82A81, size: 0x8, addend: 0x0, symName: '__ZN5alloc4sync16Arc$LT$T$C$A$GT$9drop_slow17h5dbc3385cf3806bdE', symObjAddr: 0x45150, symBinAddr: 0x100037F20, symSize: 0x70 }
  - { offset: 0x82C27, size: 0x8, addend: 0x0, symName: '__ZN5alloc4sync16Arc$LT$T$C$A$GT$9drop_slow17h6f3c55e925f13c23E', symObjAddr: 0x451C0, symBinAddr: 0x100037F90, symSize: 0xA0 }
  - { offset: 0x837F9, size: 0x8, addend: 0x0, symName: __ZN6object4read7archive13ArchiveMember5parse17hd3e51da29e5488c1E, symObjAddr: 0x53F80, symBinAddr: 0x100042520, symSize: 0x350 }
  - { offset: 0x83F50, size: 0x8, addend: 0x0, symName: __ZN6object4read7archive23parse_bsd_extended_name17h1aeb333c92faa5e9E, symObjAddr: 0x542D0, symBinAddr: 0x100042870, symSize: 0xB0 }
  - { offset: 0x84364, size: 0x8, addend: 0x0, symName: '__ZN9addr2line4unit16ResUnit$LT$R$GT$25find_function_or_location28_$u7b$$u7b$closure$u7d$$u7d$17h74f8b46b09233272E', symObjAddr: 0x5B2C0, symBinAddr: 0x100044770, symSize: 0x2F0 }
  - { offset: 0x8470A, size: 0x8, addend: 0x0, symName: '__ZN9addr2line4unit16ResUnit$LT$R$GT$25find_function_or_location17h779b8cc8975ca827E', symObjAddr: 0x5AE20, symBinAddr: 0x1000442D0, symSize: 0x4A0 }
  - { offset: 0x84C35, size: 0x8, addend: 0x0, symName: '__ZN9addr2line16Context$LT$R$GT$9find_unit17hafe5c4000e4dcc90E', symObjAddr: 0x5A630, symBinAddr: 0x100043AE0, symSize: 0x150 }
  - { offset: 0x84E1A, size: 0x8, addend: 0x0, symName: '__ZN9addr2line6lookup30LoopingLookup$LT$T$C$L$C$F$GT$10new_lookup17hcb3afea57a5db3abE', symObjAddr: 0x5B900, symBinAddr: 0x100044DB0, symSize: 0x530 }
  - { offset: 0x85342, size: 0x8, addend: 0x0, symName: __ZN9addr2line4line11render_file17h1c7a4084725a11a9E, symObjAddr: 0x5A780, symBinAddr: 0x100043C30, symSize: 0x6A0 }
  - { offset: 0x85CD8, size: 0x8, addend: 0x0, symName: '__ZN9addr2line8function17Function$LT$R$GT$14parse_children17h1b46ddfba7fb182cE', symObjAddr: 0x5C240, symBinAddr: 0x1000456F0, symSize: 0x1390 }
  - { offset: 0x872F4, size: 0x8, addend: 0x0, symName: __ZN9addr2line8function10name_entry17h5deb9017d935ead1E, symObjAddr: 0x5BE30, symBinAddr: 0x1000452E0, symSize: 0x410 }
  - { offset: 0x87750, size: 0x8, addend: 0x0, symName: __ZN9addr2line8function9name_attr17hc5ba8693362fa215E, symObjAddr: 0x5D5D0, symBinAddr: 0x100046A80, symSize: 0x1B0 }
  - { offset: 0x87975, size: 0x8, addend: 0x0, symName: '__ZN9addr2line5frame18FrameIter$LT$R$GT$4next17h7dae5ed4e94f9885E', symObjAddr: 0x5B5B0, symBinAddr: 0x100044A60, symSize: 0x350 }
  - { offset: 0x88228, size: 0x8, addend: 0x0, symName: '__ZN5gimli4read5dwarf14Dwarf$LT$R$GT$11attr_string17hc5d4d70dcc99f435E', symObjAddr: 0x4CCF0, symBinAddr: 0x10003F850, symSize: 0x210 }
  - { offset: 0x88A45, size: 0x8, addend: 0x0, symName: '__ZN5gimli4read5dwarf13Unit$LT$R$GT$3new17h575ffe3f9752d03fE', symObjAddr: 0x4A4A0, symBinAddr: 0x10003D000, symSize: 0x2850 }
  - { offset: 0x8BFC0, size: 0x8, addend: 0x0, symName: '__ZN5gimli4read7aranges30ArangeHeader$LT$R$C$Offset$GT$5parse17h9e159263f6fe8401E', symObjAddr: 0x4DA20, symBinAddr: 0x100040580, symSize: 0x2A0 }
  - { offset: 0x8CAC3, size: 0x8, addend: 0x0, symName: '__ZN5gimli4read4unit18Attribute$LT$R$GT$5value17h523c462abedaae9bE', symObjAddr: 0x492D0, symBinAddr: 0x10003BE30, symSize: 0x7C0 }
  - { offset: 0x8CECE, size: 0x8, addend: 0x0, symName: '__ZN90_$LT$gimli..read..unit..AttributeValue$LT$R$C$Offset$GT$$u20$as$u20$core..clone..Clone$GT$5clone17h098c211905b07158E', symObjAddr: 0x590A0, symBinAddr: 0x1000431F0, symSize: 0x120 }
  - { offset: 0x8CF2E, size: 0x8, addend: 0x0, symName: '__ZN5gimli4read4unit32AttributeValue$LT$R$C$Offset$GT$11udata_value17h684c5d824dd1bde2E', symObjAddr: 0x49DC0, symBinAddr: 0x10003C920, symSize: 0x80 }
  - { offset: 0x8CF89, size: 0x8, addend: 0x0, symName: __ZN5gimli4read4unit15parse_attribute17h3d2d3a95c0efe23eE, symObjAddr: 0x47250, symBinAddr: 0x100039DB0, symSize: 0x1960 }
  - { offset: 0x90324, size: 0x8, addend: 0x0, symName: __ZN5gimli4read4unit15skip_attributes17h92846bd14a53eed5E, symObjAddr: 0x48BB0, symBinAddr: 0x10003B710, symSize: 0x720 }
  - { offset: 0x90CF2, size: 0x8, addend: 0x0, symName: '__ZN5gimli4read4unit22EntriesCursor$LT$R$GT$10next_entry17hd847dc3188d94e5bE', symObjAddr: 0x49A90, symBinAddr: 0x10003C5F0, symSize: 0x330 }
  - { offset: 0x91239, size: 0x8, addend: 0x0, symName: '__ZN5gimli4read4unit33DebugInfoUnitHeadersIter$LT$R$GT$4next17hed0a8460df0391bfE', symObjAddr: 0x49E40, symBinAddr: 0x10003C9A0, symSize: 0x660 }
  - { offset: 0x92416, size: 0x8, addend: 0x0, symName: __ZN5gimli4read6reader6Reader11read_offset17h5a1a189216526f37E, symObjAddr: 0x4D790, symBinAddr: 0x1000402F0, symSize: 0xB0 }
  - { offset: 0x92653, size: 0x8, addend: 0x0, symName: __ZN5gimli4read6reader6Reader12read_uleb12817hf97552d5eed3df2dE, symObjAddr: 0x4D840, symBinAddr: 0x1000403A0, symSize: 0xB0 }
  - { offset: 0x92701, size: 0x8, addend: 0x0, symName: __ZN5gimli4read6reader6Reader17read_sized_offset17h97b79870f9951699E, symObjAddr: 0x4D8F0, symBinAddr: 0x100040450, symSize: 0x130 }
  - { offset: 0x92DD1, size: 0x8, addend: 0x0, symName: '__ZN5gimli4read8rnglists20RngListIter$LT$R$GT$4next17h8b60fae141bf2d6cE', symObjAddr: 0x4DCC0, symBinAddr: 0x100040820, symSize: 0xFC0 }
  - { offset: 0x95499, size: 0x8, addend: 0x0, symName: '__ZN5gimli4read5index18UnitIndex$LT$R$GT$5parse17h95a74f9af645c1edE', symObjAddr: 0x4CF00, symBinAddr: 0x10003FA60, symSize: 0x890 }
  - { offset: 0x954B6, size: 0x8, addend: 0x0, symName: '__ZN5gimli4read5index18UnitIndex$LT$R$GT$5parse17h95a74f9af645c1edE', symObjAddr: 0x4CF00, symBinAddr: 0x10003FA60, symSize: 0x890 }
  - { offset: 0x954CA, size: 0x8, addend: 0x0, symName: '__ZN5gimli4read5index18UnitIndex$LT$R$GT$5parse17h95a74f9af645c1edE', symObjAddr: 0x4CF00, symBinAddr: 0x10003FA60, symSize: 0x890 }
  - { offset: 0x95B8F, size: 0x8, addend: 0x0, symName: '__ZN5gimli4read4line27FileEntry$LT$R$C$Offset$GT$5parse17hd9bc2270faf33decE', symObjAddr: 0x46FF0, symBinAddr: 0x100039B50, symSize: 0x260 }
  - { offset: 0x95DDB, size: 0x8, addend: 0x0, symName: __ZN5gimli4read4line13parse_file_v517hd02b9988ac8f9c5bE, symObjAddr: 0x45D10, symBinAddr: 0x100038870, symSize: 0x350 }
  - { offset: 0x95F54, size: 0x8, addend: 0x0, symName: __ZN5gimli4read4line15FileEntryFormat5parse17h2a60ff0d29a79605E, symObjAddr: 0x46060, symBinAddr: 0x100038BC0, symSize: 0x3B0 }
  - { offset: 0x966EE, size: 0x8, addend: 0x0, symName: __ZN5gimli4read4line15parse_attribute17h7d59469e6c7378d7E, symObjAddr: 0x46410, symBinAddr: 0x100038F70, symSize: 0xAD0 }
  - { offset: 0x980F3, size: 0x8, addend: 0x0, symName: __ZN5gimli4read4line18parse_directory_v517hb56c57b85d13b5daE, symObjAddr: 0x46EE0, symBinAddr: 0x100039A40, symSize: 0x110 }
  - { offset: 0x983A7, size: 0x8, addend: 0x0, symName: __RNvCskdKJRKLKjqM_7___rustc18___rust_start_panic, symObjAddr: 0x0, symBinAddr: 0x100047270, symSize: 0xB0 }
  - { offset: 0x98482, size: 0x8, addend: 0x0, symName: __ZN12panic_unwind3imp5panic17exception_cleanup17hb98a4cfa7a07ae95E, symObjAddr: 0x100, symBinAddr: 0x100047370, symSize: 0x20 }
  - { offset: 0x9849E, size: 0x8, addend: 0x0, symName: __RNvCskdKJRKLKjqM_7___rustc18___rust_start_panic, symObjAddr: 0x0, symBinAddr: 0x100047270, symSize: 0xB0 }
  - { offset: 0x98528, size: 0x8, addend: 0x0, symName: __RNvCskdKJRKLKjqM_7___rustc20___rust_panic_cleanup, symObjAddr: 0xB0, symBinAddr: 0x100047320, symSize: 0x50 }
  - { offset: 0x985CB, size: 0x8, addend: 0x0, symName: '__ZN4core3ptr49drop_in_place$LT$panic_unwind..imp..Exception$GT$17h0f7b2fc4f2fea7f1E', symObjAddr: 0x120, symBinAddr: 0x100047390, symSize: 0x70 }
  - { offset: 0x986D2, size: 0x8, addend: 0x0, symName: '__ZN4core3ptr74drop_in_place$LT$alloc..boxed..Box$LT$panic_unwind..imp..Exception$GT$$GT$17hcd43110ac76b9736E', symObjAddr: 0x190, symBinAddr: 0x100047400, symSize: 0x89 }
  - { offset: 0x98B1C, size: 0x8, addend: 0x0, symName: __ZN6memchr4arch6x86_646memchr10memchr_raw6detect17h2099730146b20b08E, symObjAddr: 0xF90, symBinAddr: 0x1000477B0, symSize: 0x1C0 }
  - { offset: 0x990D1, size: 0x8, addend: 0x0, symName: __ZN6memchr4arch6x86_646memchr10memchr_raw9find_sse217ha1fdf339af5e94d5E, symObjAddr: 0x1150, symBinAddr: 0x100047970, symSize: 0x1B0 }
  - { offset: 0x9965C, size: 0x8, addend: 0x0, symName: __ZN6memchr4arch6x86_646memchr11memchr2_raw6detect17h84a70ada683e86a1E, symObjAddr: 0x1300, symBinAddr: 0x100047B20, symSize: 0x1A0 }
  - { offset: 0x99CEF, size: 0x8, addend: 0x0, symName: __ZN6memchr4arch6x86_646memchr11memchr2_raw9find_sse217hc70ae4e2a27bbbefE, symObjAddr: 0x14A0, symBinAddr: 0x100047CC0, symSize: 0x1A0 }
  - { offset: 0x9A553, size: 0x8, addend: 0x0, symName: '__ZN69_$LT$core..alloc..layout..LayoutError$u20$as$u20$core..fmt..Debug$GT$3fmt17hb904d59a11340822E', symObjAddr: 0x57F0, symBinAddr: 0x10004F750, symSize: 0x20 }
  - { offset: 0x9A7B4, size: 0x8, addend: 0x0, symName: __ZN5alloc5alloc18handle_alloc_error17h3762db9dd870b9a9E, symObjAddr: 0x35BA, symBinAddr: 0x100058F1A, symSize: 0x16 }
  - { offset: 0x9AA37, size: 0x8, addend: 0x0, symName: __ZN5alloc7raw_vec11finish_grow17h3ef34721aec5e3b7E, symObjAddr: 0x52C0, symBinAddr: 0x100058F30, symSize: 0x6E }
  - { offset: 0x9AAAC, size: 0x8, addend: 0x0, symName: __ZN5alloc7raw_vec12handle_error17h937a4fa340d4a4b8E, symObjAddr: 0x532E, symBinAddr: 0x100058F9E, symSize: 0x22 }
  - { offset: 0x9AAEB, size: 0x8, addend: 0x0, symName: __ZN5alloc7raw_vec17capacity_overflow17hfafd9746150329d6E, symObjAddr: 0x5350, symBinAddr: 0x100058FC0, symSize: 0x40 }
  - { offset: 0x9AB24, size: 0x8, addend: 0x0, symName: '__ZN5alloc7raw_vec20RawVecInner$LT$A$GT$7reserve21do_reserve_and_handle17h05c0f4d79cdd84bfE', symObjAddr: 0x5430, symBinAddr: 0x100059000, symSize: 0xB0 }
  - { offset: 0x9AC8A, size: 0x8, addend: 0x0, symName: '__ZN254_$LT$alloc..boxed..convert..$LT$impl$u20$core..convert..From$LT$alloc..string..String$GT$$u20$for$u20$alloc..boxed..Box$LT$dyn$u20$core..error..Error$u2b$core..marker..Sync$u2b$core..marker..Send$GT$$GT$..from..StringError$u20$as$u20$core..fmt..Debug$GT$3fmt17hcf569323b84bf267E', symObjAddr: 0x140, symBinAddr: 0x10004F310, symSize: 0x20 }
  - { offset: 0x9AD5B, size: 0x8, addend: 0x0, symName: '__ZN256_$LT$alloc..boxed..convert..$LT$impl$u20$core..convert..From$LT$alloc..string..String$GT$$u20$for$u20$alloc..boxed..Box$LT$dyn$u20$core..error..Error$u2b$core..marker..Sync$u2b$core..marker..Send$GT$$GT$..from..StringError$u20$as$u20$core..fmt..Display$GT$3fmt17h1b1a69dfec465030E', symObjAddr: 0x160, symBinAddr: 0x10004F330, symSize: 0x20 }
  - { offset: 0x9AE3A, size: 0x8, addend: 0x0, symName: __ZN5alloc3ffi5c_str7CString19_from_vec_unchecked17ha526334e500b1abdE, symObjAddr: 0xC50, symBinAddr: 0x10004F350, symSize: 0x120 }
  - { offset: 0x9B1A8, size: 0x8, addend: 0x0, symName: '__ZN72_$LT$$RF$str$u20$as$u20$alloc..ffi..c_str..CString..new..SpecNewImpl$GT$13spec_new_impl17h86c6e2e3ca147532E', symObjAddr: 0x5810, symBinAddr: 0x10004F770, symSize: 0x120 }
  - { offset: 0x9B5BE, size: 0x8, addend: 0x0, symName: __ZN5alloc6string6String15from_utf8_lossy17h0471d885b3e9b3ebE, symObjAddr: 0x4790, symBinAddr: 0x10004F4E0, symSize: 0x270 }
  - { offset: 0x9BC6A, size: 0x8, addend: 0x0, symName: '__ZN98_$LT$alloc..string..String$u20$as$u20$core..convert..From$LT$alloc..borrow..Cow$LT$str$GT$$GT$$GT$4from17h1463175ae5508b78E', symObjAddr: 0x61F0, symBinAddr: 0x10004F890, symSize: 0xAB }
  - { offset: 0x9BE6A, size: 0x8, addend: 0x0, symName: __ZN5alloc4sync32arcinner_layout_for_value_layout17h6aceeaaa01c07cfaE, symObjAddr: 0x2690, symBinAddr: 0x10004F470, symSize: 0x70 }
  - { offset: 0x9BE81, size: 0x8, addend: 0x0, symName: __ZN5alloc4sync32arcinner_layout_for_value_layout17h6aceeaaa01c07cfaE, symObjAddr: 0x2690, symBinAddr: 0x10004F470, symSize: 0x70 }
  - { offset: 0x9BE96, size: 0x8, addend: 0x0, symName: __ZN5alloc4sync32arcinner_layout_for_value_layout17h6aceeaaa01c07cfaE, symObjAddr: 0x2690, symBinAddr: 0x10004F470, symSize: 0x70 }
  - { offset: 0x9BFBF, size: 0x8, addend: 0x0, symName: '__ZN71_$LT$core..ops..range..Range$LT$Idx$GT$$u20$as$u20$core..fmt..Debug$GT$3fmt17hc330239f60cc9eb3E', symObjAddr: 0x1F4B0, symBinAddr: 0x100053E60, symSize: 0x50 }
  - { offset: 0x9C236, size: 0x8, addend: 0x0, symName: '__ZN4core4char7methods22_$LT$impl$u20$char$GT$16escape_debug_ext17hb449749641e3affeE', symObjAddr: 0x176B0, symBinAddr: 0x100053270, symSize: 0x2D0 }
  - { offset: 0x9C42E, size: 0x8, addend: 0x0, symName: __ZN4core4char7methods15encode_utf8_raw8do_panic7runtime17hb720cf973e12fcdfE, symObjAddr: 0x17590, symBinAddr: 0x100059130, symSize: 0x90 }
  - { offset: 0x9C846, size: 0x8, addend: 0x0, symName: __ZN4core6option13expect_failed17h1ec281f12b35982eE, symObjAddr: 0x18040, symBinAddr: 0x1000593A0, symSize: 0x60 }
  - { offset: 0x9C88E, size: 0x8, addend: 0x0, symName: __ZN4core6option13unwrap_failed17hd0abc7d118070f58E, symObjAddr: 0x180A0, symBinAddr: 0x100059400, symSize: 0x20 }
  - { offset: 0x9CD96, size: 0x8, addend: 0x0, symName: __ZN4core5slice5index16slice_index_fail8do_panic7runtime17h41282b038f05ddfaE, symObjAddr: 0x17D00, symBinAddr: 0x100059250, symSize: 0x70 }
  - { offset: 0x9CDC7, size: 0x8, addend: 0x0, symName: __ZN4core5slice5index16slice_index_fail8do_panic7runtime17haaf49c781c78a5c0E, symObjAddr: 0x17D70, symBinAddr: 0x1000592C0, symSize: 0x70 }
  - { offset: 0x9CDF8, size: 0x8, addend: 0x0, symName: __ZN4core5slice5index16slice_index_fail8do_panic7runtime17hae4da62edc07a39fE, symObjAddr: 0x17DE0, symBinAddr: 0x100059330, symSize: 0x70 }
  - { offset: 0x9CE2B, size: 0x8, addend: 0x0, symName: __ZN4core5slice5index16slice_index_fail17h1a065c4e1a1e0b41E, symObjAddr: 0x17CC0, symBinAddr: 0x100059210, symSize: 0x40 }
  - { offset: 0x9CED7, size: 0x8, addend: 0x0, symName: __ZN4core5slice6memchr14memchr_aligned17hbe324882bd8e8f20E, symObjAddr: 0x17E50, symBinAddr: 0x1000535A0, symSize: 0xE0 }
  - { offset: 0x9CFD1, size: 0x8, addend: 0x0, symName: __ZN4core5slice6memchr7memrchr17h3060eb51c807ecd7E, symObjAddr: 0x17F30, symBinAddr: 0x100053680, symSize: 0x110 }
  - { offset: 0x9D1C1, size: 0x8, addend: 0x0, symName: __ZN4core5slice4sort6shared9smallsort22panic_on_ord_violation17hd9a4c3c4a8ebe09aE, symObjAddr: 0x17BA0, symBinAddr: 0x1000591C0, symSize: 0x50 }
  - { offset: 0x9D1FE, size: 0x8, addend: 0x0, symName: __ZN4core5slice4sort6stable5drift11sqrt_approx17h5b54c8126d8482dbE, symObjAddr: 0x17BF0, symBinAddr: 0x100053570, symSize: 0x30 }
  - { offset: 0x9D2F3, size: 0x8, addend: 0x0, symName: __ZN4core3fmt9Formatter10debug_list17h9d2456a350d67ad8E, symObjAddr: 0xA1C0, symBinAddr: 0x100051210, symSize: 0x40 }
  - { offset: 0x9D333, size: 0x8, addend: 0x0, symName: __ZN4core3fmt9Formatter11debug_tuple17hdcc53271f394ac41E, symObjAddr: 0xA200, symBinAddr: 0x100051250, symSize: 0x50 }
  - { offset: 0x9D388, size: 0x8, addend: 0x0, symName: __ZN4core3fmt9Formatter12debug_struct17h8c9b9889fabaa42eE, symObjAddr: 0xA250, symBinAddr: 0x1000512A0, symSize: 0x40 }
  - { offset: 0x9D3F1, size: 0x8, addend: 0x0, symName: __ZN4core3fmt9Formatter12pad_integral17h5b6fb6906b7fe010E, symObjAddr: 0xA2F0, symBinAddr: 0x100051340, symSize: 0x4A0 }
  - { offset: 0x9D680, size: 0x8, addend: 0x0, symName: __ZN4core3fmt9Formatter25debug_tuple_field1_finish17hc108d765633dc1f9E, symObjAddr: 0xACB0, symBinAddr: 0x1000517E0, symSize: 0x140 }
  - { offset: 0x9D888, size: 0x8, addend: 0x0, symName: __ZN4core3fmt9Formatter25debug_tuple_field2_finish17h3020954311064adeE, symObjAddr: 0xADF0, symBinAddr: 0x100051920, symSize: 0x1A0 }
  - { offset: 0x9DB80, size: 0x8, addend: 0x0, symName: __ZN4core3fmt9Formatter26debug_struct_field1_finish17h161bc6caec1550cdE, symObjAddr: 0xBA70, symBinAddr: 0x100051AC0, symSize: 0xB0 }
  - { offset: 0x9DC57, size: 0x8, addend: 0x0, symName: __ZN4core3fmt9Formatter26debug_struct_field2_finish17h9392189e9ab00f59E, symObjAddr: 0xBB20, symBinAddr: 0x100051B70, symSize: 0xD0 }
  - { offset: 0x9DD2E, size: 0x8, addend: 0x0, symName: __ZN4core3fmt9Formatter3pad17h37b5dfd85e2b0428E, symObjAddr: 0xC000, symBinAddr: 0x100051C40, symSize: 0x3D0 }
  - { offset: 0x9DFA0, size: 0x8, addend: 0x0, symName: __ZN4core3fmt9Formatter9write_str17h532155584af4b419E, symObjAddr: 0xC460, symBinAddr: 0x100052010, symSize: 0x20 }
  - { offset: 0x9E010, size: 0x8, addend: 0x0, symName: __ZN4core3fmt8builders11DebugStruct5field17h99bfe0cd343e038aE, symObjAddr: 0x97F0, symBinAddr: 0x100050EC0, symSize: 0x190 }
  - { offset: 0x9E224, size: 0x8, addend: 0x0, symName: __ZN4core3fmt8builders11DebugStruct6finish17h759eca09f088587cE, symObjAddr: 0x9980, symBinAddr: 0x100051050, symSize: 0x60 }
  - { offset: 0x9E34C, size: 0x8, addend: 0x0, symName: __ZN4core3fmt8builders10DebugTuple5field17hcff3261d35d211e6E, symObjAddr: 0x9550, symBinAddr: 0x100050D00, symSize: 0x130 }
  - { offset: 0x9E4BA, size: 0x8, addend: 0x0, symName: __ZN4core3fmt8builders10DebugTuple6finish17hee865a46ed84494bE, symObjAddr: 0x9680, symBinAddr: 0x100050E30, symSize: 0x90 }
  - { offset: 0x9E5F5, size: 0x8, addend: 0x0, symName: __ZN4core3fmt8builders8DebugSet5entry17h9ad4bd41e6760f90E, symObjAddr: 0x9F60, symBinAddr: 0x1000510B0, symSize: 0x120 }
  - { offset: 0x9E7D6, size: 0x8, addend: 0x0, symName: __ZN4core3fmt8builders9DebugList6finish17he5544af857123449E, symObjAddr: 0xA180, symBinAddr: 0x1000511D0, symSize: 0x40 }
  - { offset: 0x9E853, size: 0x8, addend: 0x0, symName: '__ZN68_$LT$core..fmt..builders..PadAdapter$u20$as$u20$core..fmt..Write$GT$10write_char17h8781eb8fef702588E', symObjAddr: 0x1E270, symBinAddr: 0x100053B80, symSize: 0x60 }
  - { offset: 0x9E87C, size: 0x8, addend: 0x0, symName: '__ZN68_$LT$core..fmt..builders..PadAdapter$u20$as$u20$core..fmt..Write$GT$9write_str17h3ac9bf90fc6b2989E', symObjAddr: 0x1E2D0, symBinAddr: 0x100053BE0, symSize: 0x280 }
  - { offset: 0x9EADE, size: 0x8, addend: 0x0, symName: '__ZN57_$LT$core..fmt..Formatter$u20$as$u20$core..fmt..Write$GT$10write_char17h4978b0c667a9d8b0E', symObjAddr: 0x1A5E0, symBinAddr: 0x100053B20, symSize: 0x20 }
  - { offset: 0x9EB1A, size: 0x8, addend: 0x0, symName: '__ZN40_$LT$str$u20$as$u20$core..fmt..Debug$GT$3fmt17h3cbb4b7bcf7be3d7E', symObjAddr: 0x240, symBinAddr: 0x10004F940, symSize: 0x3A0 }
  - { offset: 0x9EF7D, size: 0x8, addend: 0x0, symName: '__ZN41_$LT$char$u20$as$u20$core..fmt..Debug$GT$3fmt17h4e11ed1b5452e387E', symObjAddr: 0x5E0, symBinAddr: 0x10004FCE0, symSize: 0xA0 }
  - { offset: 0x9F0A6, size: 0x8, addend: 0x0, symName: '__ZN42_$LT$$RF$T$u20$as$u20$core..fmt..Debug$GT$3fmt17h0f40b67a922b1ec5E', symObjAddr: 0x680, symBinAddr: 0x10004FD80, symSize: 0x10 }
  - { offset: 0x9F0C1, size: 0x8, addend: 0x0, symName: '__ZN42_$LT$$RF$T$u20$as$u20$core..fmt..Debug$GT$3fmt17h7680cd2a2d1e04fdE', symObjAddr: 0x6B0, symBinAddr: 0x10004FD90, symSize: 0x20 }
  - { offset: 0x9F0E3, size: 0x8, addend: 0x0, symName: '__ZN42_$LT$$RF$T$u20$as$u20$core..fmt..Debug$GT$3fmt17he2aa20ce460ddad7E', symObjAddr: 0x860, symBinAddr: 0x10004FDB0, symSize: 0x10 }
  - { offset: 0x9F10B, size: 0x8, addend: 0x0, symName: '__ZN42_$LT$str$u20$as$u20$core..fmt..Display$GT$3fmt17h83ec9ba80990d67aE', symObjAddr: 0x870, symBinAddr: 0x10004FDC0, symSize: 0x20 }
  - { offset: 0x9F133, size: 0x8, addend: 0x0, symName: '__ZN43_$LT$char$u20$as$u20$core..fmt..Display$GT$3fmt17ha887c9494bff9603E', symObjAddr: 0x8D0, symBinAddr: 0x10004FDE0, symSize: 0xC0 }
  - { offset: 0x9F1A2, size: 0x8, addend: 0x0, symName: '__ZN44_$LT$$RF$T$u20$as$u20$core..fmt..Display$GT$3fmt17h1fb02a4f1d7d14b9E', symObjAddr: 0x990, symBinAddr: 0x10004FEA0, symSize: 0x20 }
  - { offset: 0x9F276, size: 0x8, addend: 0x0, symName: '__ZN4core3fmt3num3imp51_$LT$impl$u20$core..fmt..Display$u20$for$u20$u8$GT$3fmt17h1a13e7c6295dbb75E', symObjAddr: 0x2630, symBinAddr: 0x100050080, symSize: 0xA0 }
  - { offset: 0x9F35B, size: 0x8, addend: 0x0, symName: '__ZN4core3fmt3num3imp52_$LT$impl$u20$core..fmt..Display$u20$for$u20$i32$GT$3fmt17h4add2573f547cd42E', symObjAddr: 0x27D0, symBinAddr: 0x100050120, symSize: 0x120 }
  - { offset: 0x9F47B, size: 0x8, addend: 0x0, symName: '__ZN4core3fmt3num3imp52_$LT$impl$u20$core..fmt..Display$u20$for$u20$u32$GT$3fmt17haa57ce01fac3917eE', symObjAddr: 0x2B00, symBinAddr: 0x100050240, symSize: 0x110 }
  - { offset: 0x9F588, size: 0x8, addend: 0x0, symName: '__ZN4core3fmt3num3imp52_$LT$impl$u20$core..fmt..Display$u20$for$u20$u64$GT$3fmt17h8b8600c70b3a3ac8E', symObjAddr: 0x2C10, symBinAddr: 0x100050350, symSize: 0x110 }
  - { offset: 0x9F6C3, size: 0x8, addend: 0x0, symName: '__ZN4core3fmt3num52_$LT$impl$u20$core..fmt..LowerHex$u20$for$u20$u8$GT$3fmt17h39a52b6e10cf70aeE', symObjAddr: 0x4AE0, symBinAddr: 0x1000507B0, symSize: 0x70 }
  - { offset: 0x9F754, size: 0x8, addend: 0x0, symName: '__ZN4core3fmt3num52_$LT$impl$u20$core..fmt..UpperHex$u20$for$u20$u8$GT$3fmt17h865b83e01c77f87fE', symObjAddr: 0x4BC0, symBinAddr: 0x100050820, symSize: 0x70 }
  - { offset: 0x9F7F8, size: 0x8, addend: 0x0, symName: '__ZN4core3fmt3num53_$LT$impl$u20$core..fmt..UpperHex$u20$for$u20$u32$GT$3fmt17he24323287b2084c2E', symObjAddr: 0x5170, symBinAddr: 0x1000509E0, symSize: 0x70 }
  - { offset: 0x9F889, size: 0x8, addend: 0x0, symName: '__ZN4core3fmt3num53_$LT$impl$u20$core..fmt..LowerHex$u20$for$u20$u64$GT$3fmt17h3112ef8c0abad7d1E', symObjAddr: 0x4F40, symBinAddr: 0x100050900, symSize: 0x70 }
  - { offset: 0x9F91A, size: 0x8, addend: 0x0, symName: '__ZN4core3fmt3num53_$LT$impl$u20$core..fmt..UpperHex$u20$for$u20$u64$GT$3fmt17hf363a6f2e4cad34eE', symObjAddr: 0x51E0, symBinAddr: 0x100050A50, symSize: 0x70 }
  - { offset: 0x9F99E, size: 0x8, addend: 0x0, symName: '__ZN4core3fmt3num50_$LT$impl$u20$core..fmt..Debug$u20$for$u20$u64$GT$3fmt17h376bce9b57b8a762E', symObjAddr: 0x3E60, symBinAddr: 0x100050460, symSize: 0x1A0 }
  - { offset: 0x9FB32, size: 0x8, addend: 0x0, symName: '__ZN4core3fmt3num52_$LT$impl$u20$core..fmt..Debug$u20$for$u20$usize$GT$3fmt17h4806199c82f902ceE', symObjAddr: 0x48C0, symBinAddr: 0x100050600, symSize: 0x1B0 }
  - { offset: 0x9FCB3, size: 0x8, addend: 0x0, symName: '__ZN4core3fmt3num53_$LT$impl$u20$core..fmt..LowerHex$u20$for$u20$i32$GT$3fmt17hfee837de970427b1E', symObjAddr: 0x4D80, symBinAddr: 0x100050890, symSize: 0x70 }
  - { offset: 0x9FD59, size: 0x8, addend: 0x0, symName: '__ZN4core3fmt3num53_$LT$impl$u20$core..fmt..UpperHex$u20$for$u20$i32$GT$3fmt17h26acf60f65152f77E', symObjAddr: 0x5020, symBinAddr: 0x100050970, symSize: 0x70 }
  - { offset: 0x9FF6D, size: 0x8, addend: 0x0, symName: __ZN4core3fmt17pointer_fmt_inner17h97023b135e02a0e7E, symObjAddr: 0x1240, symBinAddr: 0x10004FFE0, symSize: 0xA0 }
  - { offset: 0xA005E, size: 0x8, addend: 0x0, symName: __ZN4core3fmt5Write9write_fmt17h852655db2bea3a71E, symObjAddr: 0x6270, symBinAddr: 0x100050AC0, symSize: 0x20 }
  - { offset: 0xA00DD, size: 0x8, addend: 0x0, symName: __ZN4core3fmt5write17h32d512c5550f2c71E, symObjAddr: 0x9280, symBinAddr: 0x100050AE0, symSize: 0x220 }
  - { offset: 0xA028B, size: 0x8, addend: 0x0, symName: __ZN4core3fmt9Formatter12pad_integral12write_prefix17he3bb54c358307d3fE, symObjAddr: 0xA290, symBinAddr: 0x1000512E0, symSize: 0x60 }
  - { offset: 0xA02F3, size: 0x8, addend: 0x0, symName: '__ZN59_$LT$core..fmt..Arguments$u20$as$u20$core..fmt..Display$GT$3fmt17hfd1b80e04662b19aE', symObjAddr: 0x1B480, symBinAddr: 0x100053B40, symSize: 0x20 }
  - { offset: 0xA0416, size: 0x8, addend: 0x0, symName: __ZN4core6result13unwrap_failed17h5b5681f5bd639151E, symObjAddr: 0x180C0, symBinAddr: 0x100059420, symSize: 0x80 }
  - { offset: 0xA0638, size: 0x8, addend: 0x0, symName: __ZN4core3str5count14do_count_chars17hc493e781e0338f55E, symObjAddr: 0x16370, symBinAddr: 0x1000523D0, symSize: 0x5A0 }
  - { offset: 0xA0A80, size: 0x8, addend: 0x0, symName: __ZN4core3str5count23char_count_general_case17h45b75eff409d0732E, symObjAddr: 0x16910, symBinAddr: 0x100052970, symSize: 0xB0 }
  - { offset: 0xA0AD4, size: 0x8, addend: 0x0, symName: __ZN4core3str5count23char_count_general_case17h45b75eff409d0732E, symObjAddr: 0x16910, symBinAddr: 0x100052970, symSize: 0xB0 }
  - { offset: 0xA0B51, size: 0x8, addend: 0x0, symName: __ZN4core3str16slice_error_fail17h7ebf3d4aa8bf503fE, symObjAddr: 0x15DF0, symBinAddr: 0x1000590B0, symSize: 0x10 }
  - { offset: 0xA0B6B, size: 0x8, addend: 0x0, symName: __ZN4core3str19slice_error_fail_rt17hfa55243860877ddbE, symObjAddr: 0x15E40, symBinAddr: 0x100052030, symSize: 0x3A0 }
  - { offset: 0xA0D52, size: 0x8, addend: 0x0, symName: __ZN4core3str7pattern11StrSearcher3new17hfab9aab88f91478aE, symObjAddr: 0x16A00, symBinAddr: 0x100052A20, symSize: 0x640 }
  - { offset: 0xA1012, size: 0x8, addend: 0x0, symName: __ZN4core3str8converts9from_utf817hab685de2f5c40023E, symObjAddr: 0x17250, symBinAddr: 0x100053060, symSize: 0x210 }
  - { offset: 0xA1080, size: 0x8, addend: 0x0, symName: '__ZN87_$LT$core..str..lossy..Utf8Chunks$u20$as$u20$core..iter..traits..iterator..Iterator$GT$4next17hc6bf0146e235ca7cE', symObjAddr: 0x217F0, symBinAddr: 0x100053EB0, symSize: 0x1A0 }
  - { offset: 0xA1294, size: 0x8, addend: 0x0, symName: __ZN4core3ffi5c_str4CStr19from_bytes_with_nul17h663354f457718412E, symObjAddr: 0xFF0, symBinAddr: 0x10004FEC0, symSize: 0x120 }
  - { offset: 0xA13AA, size: 0x8, addend: 0x0, symName: __ZN4core4cell22panic_already_borrowed8do_panic7runtime17hb02334c284ba6668E, symObjAddr: 0x17470, symBinAddr: 0x1000590D0, symSize: 0x60 }
  - { offset: 0xA13DD, size: 0x8, addend: 0x0, symName: __ZN4core4cell22panic_already_borrowed17h380a7ae12b05c21bE, symObjAddr: 0x17460, symBinAddr: 0x1000590C0, symSize: 0x10 }
  - { offset: 0xA1412, size: 0x8, addend: 0x0, symName: '__ZN65_$LT$core..cell..BorrowMutError$u20$as$u20$core..fmt..Display$GT$3fmt17hbdc0278247eb0cacE', symObjAddr: 0x1C610, symBinAddr: 0x100053B60, symSize: 0x20 }
  - { offset: 0xA1462, size: 0x8, addend: 0x0, symName: __ZN4core7unicode12unicode_data15grapheme_extend11lookup_slow17hdcf8fe3bcaa288d6E, symObjAddr: 0x185E0, symBinAddr: 0x100053790, symSize: 0x100 }
  - { offset: 0xA167D, size: 0x8, addend: 0x0, symName: __ZN4core7unicode9printable12is_printable17hc67588a861ee36a9E, symObjAddr: 0x18AB0, symBinAddr: 0x100053890, symSize: 0x290 }
  - { offset: 0xA19AE, size: 0x8, addend: 0x0, symName: __ZN4core5alloc6layout6Layout19is_size_align_valid17h9b309ba4c67ddf6eE, symObjAddr: 0x17A30, symBinAddr: 0x100053540, symSize: 0x30 }
  - { offset: 0xA19F8, size: 0x8, addend: 0x0, symName: __ZN4core9panicking11panic_const23panic_const_div_by_zero17h1817bf4a5c63dcf1E, symObjAddr: 0x18D40, symBinAddr: 0x1000594A0, symSize: 0x40 }
  - { offset: 0xA1A27, size: 0x8, addend: 0x0, symName: __ZN4core9panicking11panic_const23panic_const_rem_by_zero17h66d921d73263a198E, symObjAddr: 0x18DC0, symBinAddr: 0x1000594E0, symSize: 0x40 }
  - { offset: 0xA1A56, size: 0x8, addend: 0x0, symName: __ZN4core9panicking11panic_const24panic_const_add_overflow17hbc5e9fcbe302c148E, symObjAddr: 0x18E00, symBinAddr: 0x100059520, symSize: 0x40 }
  - { offset: 0xA1A86, size: 0x8, addend: 0x0, symName: __ZN4core9panicking13assert_failed17haff998095acd4f8eE, symObjAddr: 0x192EE, symBinAddr: 0x10005956E, symSize: 0x2F }
  - { offset: 0xA1AA1, size: 0x8, addend: 0x0, symName: __ZN4core9panicking13assert_failed17hf790c8989ead8b5cE, symObjAddr: 0x1931D, symBinAddr: 0x10005959D, symSize: 0x33 }
  - { offset: 0xA1ABC, size: 0x8, addend: 0x0, symName: __ZN4core9panicking14panic_nounwind17h4e71c9dba73fe19eE, symObjAddr: 0x19350, symBinAddr: 0x1000595D0, symSize: 0x50 }
  - { offset: 0xA1AEB, size: 0x8, addend: 0x0, symName: __ZN4core9panicking16panic_in_cleanup17h278dcedb7b834eecE, symObjAddr: 0x19418, symBinAddr: 0x100059628, symSize: 0x13 }
  - { offset: 0xA1B06, size: 0x8, addend: 0x0, symName: __ZN4core9panicking18panic_bounds_check17hd6c879668b498650E, symObjAddr: 0x1942B, symBinAddr: 0x10005963B, symSize: 0x65 }
  - { offset: 0xA1B45, size: 0x8, addend: 0x0, symName: __ZN4core9panicking18panic_nounwind_fmt17h13cf4419fe26bc7eE, symObjAddr: 0x19490, symBinAddr: 0x1000596A0, symSize: 0x5B }
  - { offset: 0xA1B8A, size: 0x8, addend: 0x0, symName: __ZN4core9panicking19assert_failed_inner17h4305f0dee9388e3cE, symObjAddr: 0x194EB, symBinAddr: 0x1000596FB, symSize: 0x127 }
  - { offset: 0xA1BC4, size: 0x8, addend: 0x0, symName: __ZN4core9panicking19panic_cannot_unwind17ha66eab6f79487262E, symObjAddr: 0x19612, symBinAddr: 0x100059822, symSize: 0x1E }
  - { offset: 0xA1BDF, size: 0x8, addend: 0x0, symName: __ZN4core9panicking26panic_nounwind_nobacktrace17hb4fbf937932f35e4E, symObjAddr: 0x19630, symBinAddr: 0x100059840, symSize: 0x4D }
  - { offset: 0xA1C0E, size: 0x8, addend: 0x0, symName: __ZN4core9panicking5panic17hea69a7d4c28c810cE, symObjAddr: 0x19780, symBinAddr: 0x100059890, symSize: 0x50 }
  - { offset: 0xA1C3D, size: 0x8, addend: 0x0, symName: __ZN4core9panicking9panic_fmt17h46fb0d6076d2bd77E, symObjAddr: 0x197D0, symBinAddr: 0x1000598E0, symSize: 0x20 }
...
