---
triple:          'x86_64-apple-darwin'
binary-path:     '/Users/kema/git/rust-serv/target/debug/build/mime_guess-01e16a518ea6eb0c/build_script_build-01e16a518ea6eb0c'
relocations:
  - { offset: 0x1E, size: 0x8, addend: 0x0, symName: __RINvMNtNtNtCslJiobkLta79_5alloc11collections5btree4nodeINtB3_8LeafNodeINtCsi3vXDrMaOlU_7unicase7UniCaseReEINtNtB5_3map8BTreeMapB16_INtNtB9_3vec3VecB1D_EEE3newNtNtB9_5alloc6GlobalECs3WSINBFhsqg_18build_script_build, symObjAddr: 0x0, symBinAddr: 0x100000B90, symSize: 0x60 }
  - { offset: 0x9F17, size: 0x8, addend: 0x0, symName: __RINvNtNtNtCslJiobkLta79_5alloc11collections5btree4node12slice_insertINtCsi3vXDrMaOlU_7unicase7UniCaseReEECs3WSINBFhsqg_18build_script_build, symObjAddr: 0x5180, symBinAddr: 0x100005D10, symSize: 0x180 }
  - { offset: 0xA09E, size: 0x8, addend: 0x0, symName: __RINvNtNtNtCslJiobkLta79_5alloc11collections5btree4node12slice_insertINtNtB4_3map8BTreeMapINtCsi3vXDrMaOlU_7unicase7UniCaseReEINtNtB8_3vec3VecB1W_EEECs3WSINBFhsqg_18build_script_build, symObjAddr: 0x5300, symBinAddr: 0x100005E90, symSize: 0x180 }
  - { offset: 0xA225, size: 0x8, addend: 0x0, symName: __RINvNtNtNtCslJiobkLta79_5alloc11collections5btree4node12slice_insertINtNtB8_3vec3VecReEECs3WSINBFhsqg_18build_script_build, symObjAddr: 0x5480, symBinAddr: 0x100006010, symSize: 0x180 }
  - { offset: 0xA3AC, size: 0x8, addend: 0x0, symName: __RINvNtNtNtCslJiobkLta79_5alloc11collections5btree4node12slice_insertINtNtNtCsieiGu2EXtoJ_4core3ptr8non_null7NonNullINtB2_8LeafNodeINtCsi3vXDrMaOlU_7unicase7UniCaseReEINtNtB4_3map8BTreeMapB24_INtNtB8_3vec3VecB2B_EEEEECs3WSINBFhsqg_18build_script_build, symObjAddr: 0x5600, symBinAddr: 0x100006190, symSize: 0x130 }
  - { offset: 0xA512, size: 0x8, addend: 0x0, symName: __RINvNtNtNtCslJiobkLta79_5alloc11collections5btree4node12slice_insertINtNtNtCsieiGu2EXtoJ_4core3ptr8non_null7NonNullINtB2_8LeafNodeINtCsi3vXDrMaOlU_7unicase7UniCaseReEINtNtB8_3vec3VecB2B_EEEECs3WSINBFhsqg_18build_script_build, symObjAddr: 0x5730, symBinAddr: 0x1000062C0, symSize: 0x130 }
  - { offset: 0xA678, size: 0x8, addend: 0x0, symName: __RINvNtNtNtCslJiobkLta79_5alloc11collections5btree4node13move_to_sliceINtCsi3vXDrMaOlU_7unicase7UniCaseReEECs3WSINBFhsqg_18build_script_build, symObjAddr: 0x5860, symBinAddr: 0x1000063F0, symSize: 0xA0 }
  - { offset: 0xA724, size: 0x8, addend: 0x0, symName: __RINvNtNtNtCslJiobkLta79_5alloc11collections5btree4node13move_to_sliceINtNtB4_3map8BTreeMapINtCsi3vXDrMaOlU_7unicase7UniCaseReEINtNtB8_3vec3VecB1X_EEECs3WSINBFhsqg_18build_script_build, symObjAddr: 0x5900, symBinAddr: 0x100006490, symSize: 0xA0 }
  - { offset: 0xA7D0, size: 0x8, addend: 0x0, symName: __RINvNtNtNtCslJiobkLta79_5alloc11collections5btree4node13move_to_sliceINtNtB8_3vec3VecReEECs3WSINBFhsqg_18build_script_build, symObjAddr: 0x59A0, symBinAddr: 0x100006530, symSize: 0xA0 }
  - { offset: 0xA87C, size: 0x8, addend: 0x0, symName: __RINvNtNtNtCslJiobkLta79_5alloc11collections5btree4node13move_to_sliceINtNtNtCsieiGu2EXtoJ_4core3ptr8non_null7NonNullINtB2_8LeafNodeINtCsi3vXDrMaOlU_7unicase7UniCaseReEINtNtB4_3map8BTreeMapB25_INtNtB8_3vec3VecB2C_EEEEECs3WSINBFhsqg_18build_script_build, symObjAddr: 0x5A40, symBinAddr: 0x1000065D0, symSize: 0x90 }
  - { offset: 0xA928, size: 0x8, addend: 0x0, symName: __RINvNtNtNtCslJiobkLta79_5alloc11collections5btree4node13move_to_sliceINtNtNtCsieiGu2EXtoJ_4core3ptr8non_null7NonNullINtB2_8LeafNodeINtCsi3vXDrMaOlU_7unicase7UniCaseReEINtNtB8_3vec3VecB2C_EEEECs3WSINBFhsqg_18build_script_build, symObjAddr: 0x5AD0, symBinAddr: 0x100006660, symSize: 0x90 }
  - { offset: 0xA9DE, size: 0x8, addend: 0x0, symName: __RNCINvMss_NtNtNtCslJiobkLta79_5alloc11collections5btree4nodeINtB8_7NodeRefNtNtB8_6marker5OwnedINtCsi3vXDrMaOlU_7unicase7UniCaseReEINtNtBa_3map8BTreeMapB1u_INtNtBe_3vec3VecB21_EENtB1c_14LeafOrInternalE19push_internal_levelNtNtBe_5alloc6GlobalE0Cs3WSINBFhsqg_18build_script_build, symObjAddr: 0x5B60, symBinAddr: 0x1000066F0, symSize: 0x30 }
  - { offset: 0xAA37, size: 0x8, addend: 0x0, symName: __RNCINvMss_NtNtNtCslJiobkLta79_5alloc11collections5btree4nodeINtB8_7NodeRefNtNtB8_6marker5OwnedINtCsi3vXDrMaOlU_7unicase7UniCaseReEINtNtBe_3vec3VecB21_ENtB1c_14LeafOrInternalE19push_internal_levelNtNtBe_5alloc6GlobalE0Cs3WSINBFhsqg_18build_script_build, symObjAddr: 0x5B90, symBinAddr: 0x100006720, symSize: 0x30 }
  - { offset: 0xB079, size: 0x8, addend: 0x0, symName: __RNvXNvMsT_NtNtNtCslJiobkLta79_5alloc11collections5btree4nodeINtB8_6HandleINtB8_7NodeRefNtNtB8_6marker5DyingpppENtB1p_2KVE12drop_key_valINtB2_7DropperINtNtBa_3map8BTreeMapINtCsi3vXDrMaOlU_7unicase7UniCaseReEINtNtBe_3vec3VecB3f_EEENtNtNtCsieiGu2EXtoJ_4core3ops4drop4Drop4dropCs3WSINBFhsqg_18build_script_build, symObjAddr: 0xA620, symBinAddr: 0x10000B1B0, symSize: 0x20 }
  - { offset: 0xB0CA, size: 0x8, addend: 0x0, symName: __RNvXNvMsT_NtNtNtCslJiobkLta79_5alloc11collections5btree4nodeINtB8_6HandleINtB8_7NodeRefNtNtB8_6marker5DyingpppENtB1p_2KVE12drop_key_valINtB2_7DropperINtNtBe_3vec3VecReEENtNtNtCsieiGu2EXtoJ_4core3ops4drop4Drop4dropCs3WSINBFhsqg_18build_script_build, symObjAddr: 0xA640, symBinAddr: 0x10000B1D0, symSize: 0x20 }
  - { offset: 0xBD45, size: 0x8, addend: 0x0, symName: __RINvMNtNtNtCslJiobkLta79_5alloc11collections5btree4nodeINtB3_8LeafNodeINtCsi3vXDrMaOlU_7unicase7UniCaseReEINtNtB5_3map8BTreeMapB16_INtNtB9_3vec3VecB1D_EEE3newNtNtB9_5alloc6GlobalECs3WSINBFhsqg_18build_script_build, symObjAddr: 0x0, symBinAddr: 0x100000B90, symSize: 0x60 }
  - { offset: 0xBFCE, size: 0x8, addend: 0x0, symName: __RINvMNtNtNtCslJiobkLta79_5alloc11collections5btree4nodeINtB3_8LeafNodeINtCsi3vXDrMaOlU_7unicase7UniCaseReEINtNtB9_3vec3VecB1D_EE3newNtNtB9_5alloc6GlobalECs3WSINBFhsqg_18build_script_build, symObjAddr: 0x60, symBinAddr: 0x100000BF0, symSize: 0x60 }
  - { offset: 0xC312, size: 0x8, addend: 0x0, symName: __RINvMs0_NtNtNtCslJiobkLta79_5alloc11collections5btree6searchINtNtB8_4node7NodeRefNtNtBZ_6marker3MutINtCsi3vXDrMaOlU_7unicase7UniCaseReEINtNtB8_3map8BTreeMapB1z_INtNtBc_3vec3VecB26_EENtB1j_14LeafOrInternalE14find_key_indexB1z_ECs3WSINBFhsqg_18build_script_build, symObjAddr: 0xC0, symBinAddr: 0x100000C50, symSize: 0x240 }
  - { offset: 0xC704, size: 0x8, addend: 0x0, symName: __RINvMs0_NtNtNtCslJiobkLta79_5alloc11collections5btree6searchINtNtB8_4node7NodeRefNtNtBZ_6marker3MutINtCsi3vXDrMaOlU_7unicase7UniCaseReEINtNtBc_3vec3VecB26_ENtB1j_14LeafOrInternalE14find_key_indexB1z_ECs3WSINBFhsqg_18build_script_build, symObjAddr: 0x300, symBinAddr: 0x100000E90, symSize: 0x240 }
  - { offset: 0xCA7B, size: 0x8, addend: 0x0, symName: __RINvMs9_NtNtNtCslJiobkLta79_5alloc11collections5btree4nodeINtB6_7NodeRefNtNtB6_6marker5OwnedINtCsi3vXDrMaOlU_7unicase7UniCaseReEINtNtB8_3map8BTreeMapB1s_INtNtBc_3vec3VecB1Z_EENtB1a_8InternalE12new_internalNtNtBc_5alloc6GlobalECs3WSINBFhsqg_18build_script_build, symObjAddr: 0x540, symBinAddr: 0x1000010D0, symSize: 0x90 }
  - { offset: 0xCCD3, size: 0x8, addend: 0x0, symName: __RINvMs9_NtNtNtCslJiobkLta79_5alloc11collections5btree4nodeINtB6_7NodeRefNtNtB6_6marker5OwnedINtCsi3vXDrMaOlU_7unicase7UniCaseReEINtNtB8_3map8BTreeMapB1s_INtNtBc_3vec3VecB1Z_EENtB1a_8InternalE17from_new_internalNtNtBc_5alloc6GlobalECs3WSINBFhsqg_18build_script_build, symObjAddr: 0x5D0, symBinAddr: 0x100001160, symSize: 0xD0 }
  - { offset: 0xCECC, size: 0x8, addend: 0x0, symName: __RINvMs9_NtNtNtCslJiobkLta79_5alloc11collections5btree4nodeINtB6_7NodeRefNtNtB6_6marker5OwnedINtCsi3vXDrMaOlU_7unicase7UniCaseReEINtNtBc_3vec3VecB1Z_ENtB1a_8InternalE12new_internalNtNtBc_5alloc6GlobalECs3WSINBFhsqg_18build_script_build, symObjAddr: 0x6A0, symBinAddr: 0x100001230, symSize: 0x90 }
  - { offset: 0xD0FF, size: 0x8, addend: 0x0, symName: __RINvMs9_NtNtNtCslJiobkLta79_5alloc11collections5btree4nodeINtB6_7NodeRefNtNtB6_6marker5OwnedINtCsi3vXDrMaOlU_7unicase7UniCaseReEINtNtBc_3vec3VecB1Z_ENtB1a_8InternalE17from_new_internalNtNtBc_5alloc6GlobalECs3WSINBFhsqg_18build_script_build, symObjAddr: 0x730, symBinAddr: 0x1000012C0, symSize: 0xD0 }
  - { offset: 0xD547, size: 0x8, addend: 0x0, symName: __RINvMsK_NtNtNtCslJiobkLta79_5alloc11collections5btree4nodeINtB6_6HandleINtB6_7NodeRefNtNtB6_6marker3MutINtCsi3vXDrMaOlU_7unicase7UniCaseReEINtNtB8_3map8BTreeMapB1D_INtNtBc_3vec3VecB2a_EENtB1n_4LeafENtB1n_4EdgeE6insertNtNtBc_5alloc6GlobalECs3WSINBFhsqg_18build_script_build, symObjAddr: 0x800, symBinAddr: 0x100001390, symSize: 0x760 }
  - { offset: 0xDA17, size: 0x8, addend: 0x0, symName: __RINvMsK_NtNtNtCslJiobkLta79_5alloc11collections5btree4nodeINtB6_6HandleINtB6_7NodeRefNtNtB6_6marker3MutINtCsi3vXDrMaOlU_7unicase7UniCaseReEINtNtBc_3vec3VecB2a_ENtB1n_4LeafENtB1n_4EdgeE6insertNtNtBc_5alloc6GlobalECs3WSINBFhsqg_18build_script_build, symObjAddr: 0xF60, symBinAddr: 0x100001AF0, symSize: 0x760 }
  - { offset: 0xDE3C, size: 0x8, addend: 0x0, symName: __RINvMsM_NtNtNtCslJiobkLta79_5alloc11collections5btree4nodeINtB6_6HandleINtB6_7NodeRefNtNtB6_6marker3MutINtCsi3vXDrMaOlU_7unicase7UniCaseReEINtNtB8_3map8BTreeMapB1D_INtNtBc_3vec3VecB2a_EENtB1n_8InternalENtB1n_4EdgeE6insertNtNtBc_5alloc6GlobalECs3WSINBFhsqg_18build_script_build, symObjAddr: 0x16C0, symBinAddr: 0x100002250, symSize: 0x730 }
  - { offset: 0xE1C6, size: 0x8, addend: 0x0, symName: __RINvMsM_NtNtNtCslJiobkLta79_5alloc11collections5btree4nodeINtB6_6HandleINtB6_7NodeRefNtNtB6_6marker3MutINtCsi3vXDrMaOlU_7unicase7UniCaseReEINtNtBc_3vec3VecB2a_ENtB1n_8InternalENtB1n_4EdgeE6insertNtNtBc_5alloc6GlobalECs3WSINBFhsqg_18build_script_build, symObjAddr: 0x1DF0, symBinAddr: 0x100002980, symSize: 0x730 }
  - { offset: 0xE4C5, size: 0x8, addend: 0x0, symName: __RINvMsN_NtNtNtCslJiobkLta79_5alloc11collections5btree4nodeINtB6_6HandleINtB6_7NodeRefNtNtB6_6marker3MutINtCsi3vXDrMaOlU_7unicase7UniCaseReEINtNtB8_3map8BTreeMapB1D_INtNtBc_3vec3VecB2a_EENtB1n_4LeafENtB1n_4EdgeE16insert_recursingNtNtBc_5alloc6GlobalNCNvMs6_NtB2g_5entryINtB46_11VacantEntryB1D_B2d_E12insert_entry0ECs3WSINBFhsqg_18build_script_build, symObjAddr: 0x2520, symBinAddr: 0x1000030B0, symSize: 0x6A0 }
  - { offset: 0xE7E6, size: 0x8, addend: 0x0, symName: __RINvMsN_NtNtNtCslJiobkLta79_5alloc11collections5btree4nodeINtB6_6HandleINtB6_7NodeRefNtNtB6_6marker3MutINtCsi3vXDrMaOlU_7unicase7UniCaseReEINtNtBc_3vec3VecB2a_ENtB1n_4LeafENtB1n_4EdgeE16insert_recursingNtNtBc_5alloc6GlobalNCNvMs6_NtNtB8_3map5entryINtB3G_11VacantEntryB1D_B2d_E12insert_entry0ECs3WSINBFhsqg_18build_script_build, symObjAddr: 0x2BC0, symBinAddr: 0x100003750, symSize: 0x6A0 }
  - { offset: 0xEA8A, size: 0x8, addend: 0x0, symName: __RINvMsV_NtNtNtCslJiobkLta79_5alloc11collections5btree4nodeINtB6_6HandleINtB6_7NodeRefNtNtB6_6marker3MutINtCsi3vXDrMaOlU_7unicase7UniCaseReEINtNtB8_3map8BTreeMapB1D_INtNtBc_3vec3VecB2a_EENtB1n_4LeafENtB1n_2KVE5splitNtNtBc_5alloc6GlobalECs3WSINBFhsqg_18build_script_build, symObjAddr: 0x3260, symBinAddr: 0x100003DF0, symSize: 0xC0 }
  - { offset: 0xEB79, size: 0x8, addend: 0x0, symName: __RINvMsV_NtNtNtCslJiobkLta79_5alloc11collections5btree4nodeINtB6_6HandleINtB6_7NodeRefNtNtB6_6marker3MutINtCsi3vXDrMaOlU_7unicase7UniCaseReEINtNtBc_3vec3VecB2a_ENtB1n_4LeafENtB1n_2KVE5splitNtNtBc_5alloc6GlobalECs3WSINBFhsqg_18build_script_build, symObjAddr: 0x3320, symBinAddr: 0x100003EB0, symSize: 0xC0 }
  - { offset: 0xED91, size: 0x8, addend: 0x0, symName: __RINvMsW_NtNtNtCslJiobkLta79_5alloc11collections5btree4nodeINtB6_6HandleINtB6_7NodeRefNtNtB6_6marker3MutINtCsi3vXDrMaOlU_7unicase7UniCaseReEINtNtB8_3map8BTreeMapB1D_INtNtBc_3vec3VecB2a_EENtB1n_8InternalENtB1n_2KVE5splitNtNtBc_5alloc6GlobalECs3WSINBFhsqg_18build_script_build, symObjAddr: 0x33E0, symBinAddr: 0x100003F70, symSize: 0x350 }
  - { offset: 0xF24D, size: 0x8, addend: 0x0, symName: __RINvMsW_NtNtNtCslJiobkLta79_5alloc11collections5btree4nodeINtB6_6HandleINtB6_7NodeRefNtNtB6_6marker3MutINtCsi3vXDrMaOlU_7unicase7UniCaseReEINtNtBc_3vec3VecB2a_ENtB1n_8InternalENtB1n_2KVE5splitNtNtBc_5alloc6GlobalECs3WSINBFhsqg_18build_script_build, symObjAddr: 0x3730, symBinAddr: 0x1000042C0, symSize: 0x350 }
  - { offset: 0xF644, size: 0x8, addend: 0x0, symName: __RINvMs_NtNtNtCslJiobkLta79_5alloc11collections5btree4nodeINtB5_12InternalNodeINtCsi3vXDrMaOlU_7unicase7UniCaseReEINtNtB7_3map8BTreeMapB1d_INtNtBb_3vec3VecB1K_EEE3newNtNtBb_5alloc6GlobalECs3WSINBFhsqg_18build_script_build, symObjAddr: 0x3A80, symBinAddr: 0x100004610, symSize: 0x60 }
  - { offset: 0xF860, size: 0x8, addend: 0x0, symName: __RINvMs_NtNtNtCslJiobkLta79_5alloc11collections5btree4nodeINtB5_12InternalNodeINtCsi3vXDrMaOlU_7unicase7UniCaseReEINtNtBb_3vec3VecB1K_EE3newNtNtBb_5alloc6GlobalECs3WSINBFhsqg_18build_script_build, symObjAddr: 0x3AE0, symBinAddr: 0x100004670, symSize: 0x60 }
  - { offset: 0xFB5B, size: 0x8, addend: 0x0, symName: __RINvMs_NtNtNtCslJiobkLta79_5alloc11collections5btree6searchINtNtB7_4node7NodeRefNtNtBY_6marker3MutINtCsi3vXDrMaOlU_7unicase7UniCaseReEINtNtB7_3map8BTreeMapB1y_INtNtBb_3vec3VecB25_EENtB1i_14LeafOrInternalE11search_treeB1y_ECs3WSINBFhsqg_18build_script_build, symObjAddr: 0x3B40, symBinAddr: 0x1000046D0, symSize: 0x3A0 }
  - { offset: 0xFEAB, size: 0x8, addend: 0x0, symName: __RINvMs_NtNtNtCslJiobkLta79_5alloc11collections5btree6searchINtNtB7_4node7NodeRefNtNtBY_6marker3MutINtCsi3vXDrMaOlU_7unicase7UniCaseReEINtNtBb_3vec3VecB25_ENtB1i_14LeafOrInternalE11search_treeB1y_ECs3WSINBFhsqg_18build_script_build, symObjAddr: 0x3EE0, symBinAddr: 0x100004A70, symSize: 0x3A0 }
  - { offset: 0x10189, size: 0x8, addend: 0x0, symName: __RINvMsh_NtNtNtCslJiobkLta79_5alloc11collections5btree4nodeINtB6_7NodeRefNtNtB6_6marker5DyingINtCsi3vXDrMaOlU_7unicase7UniCaseReEINtNtB8_3map8BTreeMapB1s_INtNtBc_3vec3VecB1Z_EENtB1a_14LeafOrInternalE21deallocate_and_ascendNtNtBc_5alloc6GlobalECs3WSINBFhsqg_18build_script_build, symObjAddr: 0x4280, symBinAddr: 0x100004E10, symSize: 0x1A0 }
  - { offset: 0x1040A, size: 0x8, addend: 0x0, symName: __RINvMsh_NtNtNtCslJiobkLta79_5alloc11collections5btree4nodeINtB6_7NodeRefNtNtB6_6marker5DyingINtCsi3vXDrMaOlU_7unicase7UniCaseReEINtNtBc_3vec3VecB1Z_ENtB1a_14LeafOrInternalE21deallocate_and_ascendNtNtBc_5alloc6GlobalECs3WSINBFhsqg_18build_script_build, symObjAddr: 0x4420, symBinAddr: 0x100004FB0, symSize: 0x1A0 }
  - { offset: 0x1065E, size: 0x8, addend: 0x0, symName: __RINvMsj_NtNtNtCslJiobkLta79_5alloc11collections5btree8navigateINtNtB8_4node6HandleINtB11_7NodeRefNtNtB11_6marker5DyingINtCsi3vXDrMaOlU_7unicase7UniCaseReEINtNtB8_3map8BTreeMapB1S_INtNtBc_3vec3VecB2p_EENtB1z_4LeafENtB1z_4EdgeE16deallocating_endNtNtBc_5alloc6GlobalECs3WSINBFhsqg_18build_script_build, symObjAddr: 0x45C0, symBinAddr: 0x100005150, symSize: 0xF0 }
  - { offset: 0x108D4, size: 0x8, addend: 0x0, symName: __RINvMsj_NtNtNtCslJiobkLta79_5alloc11collections5btree8navigateINtNtB8_4node6HandleINtB11_7NodeRefNtNtB11_6marker5DyingINtCsi3vXDrMaOlU_7unicase7UniCaseReEINtNtB8_3map8BTreeMapB1S_INtNtBc_3vec3VecB2p_EENtB1z_4LeafENtB1z_4EdgeE17deallocating_nextNtNtBc_5alloc6GlobalECs3WSINBFhsqg_18build_script_build, symObjAddr: 0x46B0, symBinAddr: 0x100005240, symSize: 0x370 }
  - { offset: 0x10B1F, size: 0x8, addend: 0x0, symName: __RINvMsj_NtNtNtCslJiobkLta79_5alloc11collections5btree8navigateINtNtB8_4node6HandleINtB11_7NodeRefNtNtB11_6marker5DyingINtCsi3vXDrMaOlU_7unicase7UniCaseReEINtNtBc_3vec3VecB2p_ENtB1z_4LeafENtB1z_4EdgeE16deallocating_endNtNtBc_5alloc6GlobalECs3WSINBFhsqg_18build_script_build, symObjAddr: 0x4A20, symBinAddr: 0x1000055B0, symSize: 0xF0 }
  - { offset: 0x10D95, size: 0x8, addend: 0x0, symName: __RINvMsj_NtNtNtCslJiobkLta79_5alloc11collections5btree8navigateINtNtB8_4node6HandleINtB11_7NodeRefNtNtB11_6marker5DyingINtCsi3vXDrMaOlU_7unicase7UniCaseReEINtNtBc_3vec3VecB2p_ENtB1z_4LeafENtB1z_4EdgeE17deallocating_nextNtNtBc_5alloc6GlobalECs3WSINBFhsqg_18build_script_build, symObjAddr: 0x4B10, symBinAddr: 0x1000056A0, symSize: 0x370 }
  - { offset: 0x10FF7, size: 0x8, addend: 0x0, symName: __RINvMsp_NtNtNtCslJiobkLta79_5alloc11collections5btree4nodeINtB6_7NodeRefNtNtB6_6marker3MutINtCsi3vXDrMaOlU_7unicase7UniCaseReEINtNtB8_3map8BTreeMapB1q_INtNtBc_3vec3VecB1X_EENtB1a_8InternalE30correct_childrens_parent_linksINtNtNtCsieiGu2EXtoJ_4core3ops5range14RangeInclusivejEECs3WSINBFhsqg_18build_script_build, symObjAddr: 0x4E80, symBinAddr: 0x100005A10, symSize: 0xC0 }
  - { offset: 0x1112F, size: 0x8, addend: 0x0, symName: __RINvMsp_NtNtNtCslJiobkLta79_5alloc11collections5btree4nodeINtB6_7NodeRefNtNtB6_6marker3MutINtCsi3vXDrMaOlU_7unicase7UniCaseReEINtNtB8_3map8BTreeMapB1q_INtNtBc_3vec3VecB1X_EENtB1a_8InternalE30correct_childrens_parent_linksINtNtNtCsieiGu2EXtoJ_4core3ops5range5RangejEECs3WSINBFhsqg_18build_script_build, symObjAddr: 0x4F40, symBinAddr: 0x100005AD0, symSize: 0xC0 }
  - { offset: 0x11266, size: 0x8, addend: 0x0, symName: __RINvMsp_NtNtNtCslJiobkLta79_5alloc11collections5btree4nodeINtB6_7NodeRefNtNtB6_6marker3MutINtCsi3vXDrMaOlU_7unicase7UniCaseReEINtNtBc_3vec3VecB1X_ENtB1a_8InternalE30correct_childrens_parent_linksINtNtNtCsieiGu2EXtoJ_4core3ops5range14RangeInclusivejEECs3WSINBFhsqg_18build_script_build, symObjAddr: 0x5000, symBinAddr: 0x100005B90, symSize: 0xC0 }
  - { offset: 0x1139E, size: 0x8, addend: 0x0, symName: __RINvMsp_NtNtNtCslJiobkLta79_5alloc11collections5btree4nodeINtB6_7NodeRefNtNtB6_6marker3MutINtCsi3vXDrMaOlU_7unicase7UniCaseReEINtNtBc_3vec3VecB1X_ENtB1a_8InternalE30correct_childrens_parent_linksINtNtNtCsieiGu2EXtoJ_4core3ops5range5RangejEECs3WSINBFhsqg_18build_script_build, symObjAddr: 0x50C0, symBinAddr: 0x100005C50, symSize: 0xC0 }
  - { offset: 0x118FF, size: 0x8, addend: 0x0, symName: __RNvMsJ_NtNtNtCslJiobkLta79_5alloc11collections5btree4nodeINtB5_6HandleINtB5_7NodeRefNtNtB5_6marker3MutINtCsi3vXDrMaOlU_7unicase7UniCaseReEINtNtB7_3map8BTreeMapB1C_INtNtBb_3vec3VecB29_EENtB1m_4LeafENtB1m_4EdgeE10insert_fitCs3WSINBFhsqg_18build_script_build, symObjAddr: 0x5BC0, symBinAddr: 0x100006750, symSize: 0x290 }
  - { offset: 0x11E72, size: 0x8, addend: 0x0, symName: __RNvMsJ_NtNtNtCslJiobkLta79_5alloc11collections5btree4nodeINtB5_6HandleINtB5_7NodeRefNtNtB5_6marker3MutINtCsi3vXDrMaOlU_7unicase7UniCaseReEINtNtBb_3vec3VecB29_ENtB1m_4LeafENtB1m_4EdgeE10insert_fitCs3WSINBFhsqg_18build_script_build, symObjAddr: 0x5E50, symBinAddr: 0x1000069E0, symSize: 0x290 }
  - { offset: 0x122ED, size: 0x8, addend: 0x0, symName: __RNvMsL_NtNtNtCslJiobkLta79_5alloc11collections5btree4nodeINtB5_6HandleINtB5_7NodeRefNtNtB5_6marker3MutINtCsi3vXDrMaOlU_7unicase7UniCaseReEINtNtB7_3map8BTreeMapB1C_INtNtBb_3vec3VecB29_EENtB1m_8InternalENtB1m_4EdgeE19correct_parent_linkCs3WSINBFhsqg_18build_script_build, symObjAddr: 0x60E0, symBinAddr: 0x100006C70, symSize: 0xA0 }
  - { offset: 0x124F5, size: 0x8, addend: 0x0, symName: __RNvMsL_NtNtNtCslJiobkLta79_5alloc11collections5btree4nodeINtB5_6HandleINtB5_7NodeRefNtNtB5_6marker3MutINtCsi3vXDrMaOlU_7unicase7UniCaseReEINtNtBb_3vec3VecB29_ENtB1m_8InternalENtB1m_4EdgeE19correct_parent_linkCs3WSINBFhsqg_18build_script_build, symObjAddr: 0x6180, symBinAddr: 0x100006D10, symSize: 0xA0 }
  - { offset: 0x1282B, size: 0x8, addend: 0x0, symName: __RNvMsM_NtNtNtCslJiobkLta79_5alloc11collections5btree4nodeINtB5_6HandleINtB5_7NodeRefNtNtB5_6marker3MutINtCsi3vXDrMaOlU_7unicase7UniCaseReEINtNtB7_3map8BTreeMapB1C_INtNtBb_3vec3VecB29_EENtB1m_8InternalENtB1m_4EdgeE10insert_fitCs3WSINBFhsqg_18build_script_build, symObjAddr: 0x6220, symBinAddr: 0x100006DB0, symSize: 0x360 }
  - { offset: 0x12ECC, size: 0x8, addend: 0x0, symName: __RNvMsM_NtNtNtCslJiobkLta79_5alloc11collections5btree4nodeINtB5_6HandleINtB5_7NodeRefNtNtB5_6marker3MutINtCsi3vXDrMaOlU_7unicase7UniCaseReEINtNtBb_3vec3VecB29_ENtB1m_8InternalENtB1m_4EdgeE10insert_fitCs3WSINBFhsqg_18build_script_build, symObjAddr: 0x6580, symBinAddr: 0x100007110, symSize: 0x360 }
  - { offset: 0x13403, size: 0x8, addend: 0x0, symName: __RNvMsO_NtNtNtCslJiobkLta79_5alloc11collections5btree4nodeINtB5_6HandleINtB5_7NodeRefNtNtB5_6marker3MutINtCsi3vXDrMaOlU_7unicase7UniCaseReEINtNtB7_3map8BTreeMapB1C_INtNtBb_3vec3VecB29_EENtB1m_8InternalENtB1m_4EdgeE7descendCs3WSINBFhsqg_18build_script_build, symObjAddr: 0x68E0, symBinAddr: 0x100007470, symSize: 0x80 }
  - { offset: 0x135FE, size: 0x8, addend: 0x0, symName: __RNvMsO_NtNtNtCslJiobkLta79_5alloc11collections5btree4nodeINtB5_6HandleINtB5_7NodeRefNtNtB5_6marker3MutINtCsi3vXDrMaOlU_7unicase7UniCaseReEINtNtBb_3vec3VecB29_ENtB1m_8InternalENtB1m_4EdgeE7descendCs3WSINBFhsqg_18build_script_build, symObjAddr: 0x6960, symBinAddr: 0x1000074F0, symSize: 0x80 }
  - { offset: 0x137CE, size: 0x8, addend: 0x0, symName: __RNvMsO_NtNtNtCslJiobkLta79_5alloc11collections5btree4nodeINtB5_6HandleINtB5_7NodeRefNtNtB5_6marker5DyingINtCsi3vXDrMaOlU_7unicase7UniCaseReEINtNtB7_3map8BTreeMapB1E_INtNtBb_3vec3VecB2b_EENtB1m_8InternalENtB1m_4EdgeE7descendCs3WSINBFhsqg_18build_script_build, symObjAddr: 0x69E0, symBinAddr: 0x100007570, symSize: 0x80 }
  - { offset: 0x1399E, size: 0x8, addend: 0x0, symName: __RNvMsO_NtNtNtCslJiobkLta79_5alloc11collections5btree4nodeINtB5_6HandleINtB5_7NodeRefNtNtB5_6marker5DyingINtCsi3vXDrMaOlU_7unicase7UniCaseReEINtNtBb_3vec3VecB2b_ENtB1m_8InternalENtB1m_4EdgeE7descendCs3WSINBFhsqg_18build_script_build, symObjAddr: 0x6A60, symBinAddr: 0x1000075F0, symSize: 0x80 }
  - { offset: 0x13B71, size: 0x8, addend: 0x0, symName: __RNvMsQ_NtNtNtCslJiobkLta79_5alloc11collections5btree4nodeINtB5_6HandleINtB5_7NodeRefNtNtB5_6marker3MutINtCsi3vXDrMaOlU_7unicase7UniCaseReEINtNtB7_3map8BTreeMapB1C_INtNtBb_3vec3VecB29_EENtB1m_14LeafOrInternalENtB1m_2KVE12into_val_mutCs3WSINBFhsqg_18build_script_build, symObjAddr: 0x6AE0, symBinAddr: 0x100007670, symSize: 0x80 }
  - { offset: 0x13CE1, size: 0x8, addend: 0x0, symName: __RNvMsQ_NtNtNtCslJiobkLta79_5alloc11collections5btree4nodeINtB5_6HandleINtB5_7NodeRefNtNtB5_6marker3MutINtCsi3vXDrMaOlU_7unicase7UniCaseReEINtNtBb_3vec3VecB29_ENtB1m_14LeafOrInternalENtB1m_2KVE12into_val_mutCs3WSINBFhsqg_18build_script_build, symObjAddr: 0x6B60, symBinAddr: 0x1000076F0, symSize: 0x80 }
  - { offset: 0x13E5D, size: 0x8, addend: 0x0, symName: __RNvMsT_NtNtNtCslJiobkLta79_5alloc11collections5btree4nodeINtB5_6HandleINtB5_7NodeRefNtNtB5_6marker5DyingINtCsi3vXDrMaOlU_7unicase7UniCaseReEINtNtB7_3map8BTreeMapB1E_INtNtBb_3vec3VecB2b_EENtB1m_14LeafOrInternalENtB1m_2KVE12drop_key_valCs3WSINBFhsqg_18build_script_build, symObjAddr: 0x6BE0, symBinAddr: 0x100007770, symSize: 0x100 }
  - { offset: 0x140E8, size: 0x8, addend: 0x0, symName: __RNvMsT_NtNtNtCslJiobkLta79_5alloc11collections5btree4nodeINtB5_6HandleINtB5_7NodeRefNtNtB5_6marker5DyingINtCsi3vXDrMaOlU_7unicase7UniCaseReEINtNtB7_3map8BTreeMapB1E_INtNtBb_3vec3VecB2b_EENtB1m_14LeafOrInternalENtB1m_2KVE12into_key_valCs3WSINBFhsqg_18build_script_build, symObjAddr: 0x6CE0, symBinAddr: 0x100007870, symSize: 0x190 }
  - { offset: 0x143EC, size: 0x8, addend: 0x0, symName: __RNvMsT_NtNtNtCslJiobkLta79_5alloc11collections5btree4nodeINtB5_6HandleINtB5_7NodeRefNtNtB5_6marker5DyingINtCsi3vXDrMaOlU_7unicase7UniCaseReEINtNtBb_3vec3VecB2b_ENtB1m_14LeafOrInternalENtB1m_2KVE12drop_key_valCs3WSINBFhsqg_18build_script_build, symObjAddr: 0x6E70, symBinAddr: 0x100007A00, symSize: 0x100 }
  - { offset: 0x14677, size: 0x8, addend: 0x0, symName: __RNvMsT_NtNtNtCslJiobkLta79_5alloc11collections5btree4nodeINtB5_6HandleINtB5_7NodeRefNtNtB5_6marker5DyingINtCsi3vXDrMaOlU_7unicase7UniCaseReEINtNtBb_3vec3VecB2b_ENtB1m_14LeafOrInternalENtB1m_2KVE12into_key_valCs3WSINBFhsqg_18build_script_build, symObjAddr: 0x6F70, symBinAddr: 0x100007B00, symSize: 0x190 }
  - { offset: 0x14B72, size: 0x8, addend: 0x0, symName: __RNvMsU_NtNtNtCslJiobkLta79_5alloc11collections5btree4nodeINtB5_6HandleINtB5_7NodeRefNtNtB5_6marker3MutINtCsi3vXDrMaOlU_7unicase7UniCaseReEINtNtB7_3map8BTreeMapB1C_INtNtBb_3vec3VecB29_EENtB1m_4LeafENtB1m_2KVE15split_leaf_dataCs3WSINBFhsqg_18build_script_build, symObjAddr: 0x7100, symBinAddr: 0x100007C90, symSize: 0x5A0 }
  - { offset: 0x15622, size: 0x8, addend: 0x0, symName: __RNvMsU_NtNtNtCslJiobkLta79_5alloc11collections5btree4nodeINtB5_6HandleINtB5_7NodeRefNtNtB5_6marker3MutINtCsi3vXDrMaOlU_7unicase7UniCaseReEINtNtB7_3map8BTreeMapB1C_INtNtBb_3vec3VecB29_EENtB1m_8InternalENtB1m_2KVE15split_leaf_dataCs3WSINBFhsqg_18build_script_build, symObjAddr: 0x76A0, symBinAddr: 0x100008230, symSize: 0x5A0 }
  - { offset: 0x160D2, size: 0x8, addend: 0x0, symName: __RNvMsU_NtNtNtCslJiobkLta79_5alloc11collections5btree4nodeINtB5_6HandleINtB5_7NodeRefNtNtB5_6marker3MutINtCsi3vXDrMaOlU_7unicase7UniCaseReEINtNtBb_3vec3VecB29_ENtB1m_4LeafENtB1m_2KVE15split_leaf_dataCs3WSINBFhsqg_18build_script_build, symObjAddr: 0x7C40, symBinAddr: 0x1000087D0, symSize: 0x5A0 }
  - { offset: 0x16B82, size: 0x8, addend: 0x0, symName: __RNvMsU_NtNtNtCslJiobkLta79_5alloc11collections5btree4nodeINtB5_6HandleINtB5_7NodeRefNtNtB5_6marker3MutINtCsi3vXDrMaOlU_7unicase7UniCaseReEINtNtBb_3vec3VecB29_ENtB1m_8InternalENtB1m_2KVE15split_leaf_dataCs3WSINBFhsqg_18build_script_build, symObjAddr: 0x81E0, symBinAddr: 0x100008D70, symSize: 0x5A0 }
  - { offset: 0x174D9, size: 0x8, addend: 0x0, symName: __RNvMse_NtNtNtCslJiobkLta79_5alloc11collections5btree4nodeINtB5_7NodeRefNtNtB5_6marker3MutINtCsi3vXDrMaOlU_7unicase7UniCaseReEINtNtB7_3map8BTreeMapB1p_INtNtBb_3vec3VecB1W_EENtB19_14LeafOrInternalE6ascendCs3WSINBFhsqg_18build_script_build, symObjAddr: 0x8780, symBinAddr: 0x100009310, symSize: 0x230 }
  - { offset: 0x17760, size: 0x8, addend: 0x0, symName: __RNvMse_NtNtNtCslJiobkLta79_5alloc11collections5btree4nodeINtB5_7NodeRefNtNtB5_6marker3MutINtCsi3vXDrMaOlU_7unicase7UniCaseReEINtNtBb_3vec3VecB1W_ENtB19_14LeafOrInternalE6ascendCs3WSINBFhsqg_18build_script_build, symObjAddr: 0x89B0, symBinAddr: 0x100009540, symSize: 0x230 }
  - { offset: 0x179C0, size: 0x8, addend: 0x0, symName: __RNvMse_NtNtNtCslJiobkLta79_5alloc11collections5btree4nodeINtB5_7NodeRefNtNtB5_6marker5DyingINtCsi3vXDrMaOlU_7unicase7UniCaseReEINtNtB7_3map8BTreeMapB1r_INtNtBb_3vec3VecB1Y_EENtB19_14LeafOrInternalE6ascendCs3WSINBFhsqg_18build_script_build, symObjAddr: 0x8BE0, symBinAddr: 0x100009770, symSize: 0x230 }
  - { offset: 0x17C20, size: 0x8, addend: 0x0, symName: __RNvMse_NtNtNtCslJiobkLta79_5alloc11collections5btree4nodeINtB5_7NodeRefNtNtB5_6marker5DyingINtCsi3vXDrMaOlU_7unicase7UniCaseReEINtNtBb_3vec3VecB1Y_ENtB19_14LeafOrInternalE6ascendCs3WSINBFhsqg_18build_script_build, symObjAddr: 0x8E10, symBinAddr: 0x1000099A0, symSize: 0x230 }
  - { offset: 0x17E54, size: 0x8, addend: 0x0, symName: __RNvMsg_NtNtNtCslJiobkLta79_5alloc11collections5btree4nodeINtB5_7NodeRefNtNtB5_6marker5ImmutINtCsi3vXDrMaOlU_7unicase7UniCaseReEINtNtB7_3map8BTreeMapB1r_INtNtBb_3vec3VecB1Y_EENtB19_14LeafOrInternalE4keysCs3WSINBFhsqg_18build_script_build, symObjAddr: 0x9040, symBinAddr: 0x100009BD0, symSize: 0x90 }
  - { offset: 0x18035, size: 0x8, addend: 0x0, symName: __RNvMsg_NtNtNtCslJiobkLta79_5alloc11collections5btree4nodeINtB5_7NodeRefNtNtB5_6marker5ImmutINtCsi3vXDrMaOlU_7unicase7UniCaseReEINtNtBb_3vec3VecB1Y_ENtB19_14LeafOrInternalE4keysCs3WSINBFhsqg_18build_script_build, symObjAddr: 0x90D0, symBinAddr: 0x100009C60, symSize: 0x90 }
  - { offset: 0x183A6, size: 0x8, addend: 0x0, symName: __RNvMsp_NtNtNtCslJiobkLta79_5alloc11collections5btree8navigateINtNtB7_4node6HandleINtB10_7NodeRefNtNtB10_6marker5DyingINtCsi3vXDrMaOlU_7unicase7UniCaseReEINtNtB7_3map8BTreeMapB1R_INtNtBb_3vec3VecB2o_EENtB1y_14LeafOrInternalENtB1y_2KVE14next_leaf_edgeCs3WSINBFhsqg_18build_script_build, symObjAddr: 0x9160, symBinAddr: 0x100009CF0, symSize: 0x320 }
  - { offset: 0x18829, size: 0x8, addend: 0x0, symName: __RNvMsp_NtNtNtCslJiobkLta79_5alloc11collections5btree8navigateINtNtB7_4node6HandleINtB10_7NodeRefNtNtB10_6marker5DyingINtCsi3vXDrMaOlU_7unicase7UniCaseReEINtNtBb_3vec3VecB2o_ENtB1y_14LeafOrInternalENtB1y_2KVE14next_leaf_edgeCs3WSINBFhsqg_18build_script_build, symObjAddr: 0x9480, symBinAddr: 0x10000A010, symSize: 0x320 }
  - { offset: 0x18CAE, size: 0x8, addend: 0x0, symName: __RNvMsu_NtNtNtCslJiobkLta79_5alloc11collections5btree4nodeINtB5_7NodeRefNtNtB5_6marker3MutINtCsi3vXDrMaOlU_7unicase7UniCaseReEINtNtB7_3map8BTreeMapB1p_INtNtBb_3vec3VecB1W_EENtB19_4LeafE16push_with_handleCs3WSINBFhsqg_18build_script_build, symObjAddr: 0x97A0, symBinAddr: 0x10000A330, symSize: 0x310 }
  - { offset: 0x19233, size: 0x8, addend: 0x0, symName: __RNvMsu_NtNtNtCslJiobkLta79_5alloc11collections5btree4nodeINtB5_7NodeRefNtNtB5_6marker3MutINtCsi3vXDrMaOlU_7unicase7UniCaseReEINtNtBb_3vec3VecB1W_ENtB19_4LeafE16push_with_handleCs3WSINBFhsqg_18build_script_build, symObjAddr: 0x9AB0, symBinAddr: 0x10000A640, symSize: 0x310 }
  - { offset: 0x198A4, size: 0x8, addend: 0x0, symName: __RNvMsv_NtNtNtCslJiobkLta79_5alloc11collections5btree4nodeINtB5_7NodeRefNtNtB5_6marker3MutINtCsi3vXDrMaOlU_7unicase7UniCaseReEINtNtB7_3map8BTreeMapB1p_INtNtBb_3vec3VecB1W_EENtB19_8InternalE4pushCs3WSINBFhsqg_18build_script_build, symObjAddr: 0x9DC0, symBinAddr: 0x10000A950, symSize: 0x430 }
  - { offset: 0x1A05C, size: 0x8, addend: 0x0, symName: __RNvMsv_NtNtNtCslJiobkLta79_5alloc11collections5btree4nodeINtB5_7NodeRefNtNtB5_6marker3MutINtCsi3vXDrMaOlU_7unicase7UniCaseReEINtNtBb_3vec3VecB1W_ENtB19_8InternalE4pushCs3WSINBFhsqg_18build_script_build, symObjAddr: 0xA1F0, symBinAddr: 0x10000AD80, symSize: 0x430 }
  - { offset: 0x1A582, size: 0x8, addend: 0x0, symName: __RINvCs3WSINBFhsqg_18build_script_build13build_rev_mapINtNtNtNtCsHUR1vrdMJt_3std2io8buffered9bufwriter9BufWriterNtNtBY_2fs4FileEEB2_, symObjAddr: 0x0, symBinAddr: 0x10000B1F0, symSize: 0xCD0 }
  - { offset: 0x1A92A, size: 0x8, addend: 0x0, symName: __RINvNtCsHUR1vrdMJt_3std3env3varReECs3WSINBFhsqg_18build_script_build, symObjAddr: 0x1020, symBinAddr: 0x10000C210, symSize: 0x60 }
  - { offset: 0x1A964, size: 0x8, addend: 0x0, symName: __RNvXsk_NtCsHUR1vrdMJt_3std3envNtB5_8VarErrorNtNtCsieiGu2EXtoJ_4core3fmt5Debug3fmtCs3WSINBFhsqg_18build_script_build, symObjAddr: 0x4260, symBinAddr: 0x10000F410, symSize: 0x90 }
  - { offset: 0x1AA51, size: 0x8, addend: 0x0, symName: __RNvNtNtNtCsHUR1vrdMJt_3std3sys2fs4unix23debug_assert_fd_is_openCs3WSINBFhsqg_18build_script_build, symObjAddr: 0x2FC0, symBinAddr: 0x10000E170, symSize: 0xB0 }
  - { offset: 0x1AB60, size: 0x8, addend: 0x0, symName: __RNvXs5_NtNtNtCsHUR1vrdMJt_3std2os2fd5ownedNtB5_7OwnedFdNtNtNtCsieiGu2EXtoJ_4core3ops4drop4Drop4dropCs3WSINBFhsqg_18build_script_build, symObjAddr: 0x3940, symBinAddr: 0x10000EAF0, symSize: 0x30 }
  - { offset: 0x1B405, size: 0x8, addend: 0x0, symName: __RINvNtCsieiGu2EXtoJ_4core3ptr13drop_in_placeINtNtB4_6result6ResultuNtNtNtCsHUR1vrdMJt_3std2io5error5ErrorEECs3WSINBFhsqg_18build_script_build, symObjAddr: 0x10C0, symBinAddr: 0x10000C270, symSize: 0x40 }
  - { offset: 0x1B434, size: 0x8, addend: 0x0, symName: __RINvNtCsieiGu2EXtoJ_4core3ptr13drop_in_placeINtNtCslJiobkLta79_5alloc3vec3VecReEECs3WSINBFhsqg_18build_script_build, symObjAddr: 0x1100, symBinAddr: 0x10000C2B0, symSize: 0x50 }
  - { offset: 0x1B463, size: 0x8, addend: 0x0, symName: __RINvNtCsieiGu2EXtoJ_4core3ptr13drop_in_placeINtNtCslJiobkLta79_5alloc3vec3VechEECs3WSINBFhsqg_18build_script_build, symObjAddr: 0x1150, symBinAddr: 0x10000C300, symSize: 0x50 }
  - { offset: 0x1B492, size: 0x8, addend: 0x0, symName: __RINvNtCsieiGu2EXtoJ_4core3ptr13drop_in_placeINtNtCslJiobkLta79_5alloc5boxed3BoxDNtNtB4_5error5ErrorNtNtB4_6marker4SyncNtB1B_4SendEL_EECs3WSINBFhsqg_18build_script_build, symObjAddr: 0x11A0, symBinAddr: 0x10000C350, symSize: 0x70 }
  - { offset: 0x1B4C1, size: 0x8, addend: 0x0, symName: __RINvNtCsieiGu2EXtoJ_4core3ptr13drop_in_placeINtNtCslJiobkLta79_5alloc5boxed3BoxINtNtNtNtBL_11collections5btree4node12InternalNodeINtCsi3vXDrMaOlU_7unicase7UniCaseReEINtNtB1k_3map8BTreeMapB23_INtNtBL_3vec3VecB2A_EEEEECs3WSINBFhsqg_18build_script_build, symObjAddr: 0x1210, symBinAddr: 0x10000C3C0, symSize: 0x20 }
  - { offset: 0x1B4F0, size: 0x8, addend: 0x0, symName: __RINvNtCsieiGu2EXtoJ_4core3ptr13drop_in_placeINtNtCslJiobkLta79_5alloc5boxed3BoxINtNtNtNtBL_11collections5btree4node12InternalNodeINtCsi3vXDrMaOlU_7unicase7UniCaseReEINtNtBL_3vec3VecB2A_EEEECs3WSINBFhsqg_18build_script_build, symObjAddr: 0x1230, symBinAddr: 0x10000C3E0, symSize: 0x20 }
  - { offset: 0x1B51F, size: 0x8, addend: 0x0, symName: __RINvNtCsieiGu2EXtoJ_4core3ptr13drop_in_placeINtNtCslJiobkLta79_5alloc5boxed3BoxINtNtNtNtBL_11collections5btree4node8LeafNodeINtCsi3vXDrMaOlU_7unicase7UniCaseReEINtNtB1k_3map8BTreeMapB1Y_INtNtBL_3vec3VecB2v_EEEEECs3WSINBFhsqg_18build_script_build, symObjAddr: 0x1250, symBinAddr: 0x10000C400, symSize: 0x20 }
  - { offset: 0x1B54E, size: 0x8, addend: 0x0, symName: __RINvNtCsieiGu2EXtoJ_4core3ptr13drop_in_placeINtNtCslJiobkLta79_5alloc5boxed3BoxINtNtNtNtBL_11collections5btree4node8LeafNodeINtCsi3vXDrMaOlU_7unicase7UniCaseReEINtNtBL_3vec3VecB2v_EEEECs3WSINBFhsqg_18build_script_build, symObjAddr: 0x1270, symBinAddr: 0x10000C420, symSize: 0x20 }
  - { offset: 0x1B57D, size: 0x8, addend: 0x0, symName: __RINvNtCsieiGu2EXtoJ_4core3ptr13drop_in_placeINtNtCslJiobkLta79_5alloc5boxed3BoxNtNtNtCsHUR1vrdMJt_3std2io5error6CustomEECs3WSINBFhsqg_18build_script_build, symObjAddr: 0x1290, symBinAddr: 0x10000C440, symSize: 0x50 }
  - { offset: 0x1B5AC, size: 0x8, addend: 0x0, symName: __RINvNtCsieiGu2EXtoJ_4core3ptr13drop_in_placeINtNtCslJiobkLta79_5alloc7raw_vec6RawVecReEECs3WSINBFhsqg_18build_script_build, symObjAddr: 0x12E0, symBinAddr: 0x10000C490, symSize: 0x20 }
  - { offset: 0x1B5DB, size: 0x8, addend: 0x0, symName: __RINvNtCsieiGu2EXtoJ_4core3ptr13drop_in_placeINtNtCslJiobkLta79_5alloc7raw_vec6RawVechEECs3WSINBFhsqg_18build_script_build, symObjAddr: 0x1300, symBinAddr: 0x10000C4B0, symSize: 0x20 }
  - { offset: 0x1B60A, size: 0x8, addend: 0x0, symName: __RINvNtCsieiGu2EXtoJ_4core3ptr13drop_in_placeINtNtNtCsHUR1vrdMJt_3std2io5error9ErrorDataINtNtCslJiobkLta79_5alloc5boxed3BoxNtBJ_6CustomEEECs3WSINBFhsqg_18build_script_build, symObjAddr: 0x1320, symBinAddr: 0x10000C4D0, symSize: 0x30 }
  - { offset: 0x1B639, size: 0x8, addend: 0x0, symName: __RINvNtCsieiGu2EXtoJ_4core3ptr13drop_in_placeINtNtNtCslJiobkLta79_5alloc3vec9into_iter8IntoIterReEECs3WSINBFhsqg_18build_script_build, symObjAddr: 0x1350, symBinAddr: 0x10000C500, symSize: 0x20 }
  - { offset: 0x1B668, size: 0x8, addend: 0x0, symName: __RINvNtCsieiGu2EXtoJ_4core3ptr13drop_in_placeINtNtNtNtCsHUR1vrdMJt_3std2io8buffered9bufwriter9BufWriterNtNtBP_2fs4FileEECs3WSINBFhsqg_18build_script_build, symObjAddr: 0x1370, symBinAddr: 0x10000C520, symSize: 0x80 }
  - { offset: 0x1B697, size: 0x8, addend: 0x0, symName: __RINvNtCsieiGu2EXtoJ_4core3ptr13drop_in_placeINtNtNtNtCslJiobkLta79_5alloc11collections5btree3map8BTreeMapINtCsi3vXDrMaOlU_7unicase7UniCaseReEIBH_B1F_INtNtBP_3vec3VecB2c_EEEECs3WSINBFhsqg_18build_script_build, symObjAddr: 0x13F0, symBinAddr: 0x10000C5A0, symSize: 0x20 }
  - { offset: 0x1B6C6, size: 0x8, addend: 0x0, symName: __RINvNtCsieiGu2EXtoJ_4core3ptr13drop_in_placeINtNtNtNtCslJiobkLta79_5alloc11collections5btree3map8BTreeMapINtCsi3vXDrMaOlU_7unicase7UniCaseReEINtNtBP_3vec3VecB2c_EEECs3WSINBFhsqg_18build_script_build, symObjAddr: 0x1410, symBinAddr: 0x10000C5C0, symSize: 0x20 }
  - { offset: 0x1B6F5, size: 0x8, addend: 0x0, symName: __RINvNtCsieiGu2EXtoJ_4core3ptr13drop_in_placeINtNtNtNtCslJiobkLta79_5alloc11collections5btree3map8IntoIterINtCsi3vXDrMaOlU_7unicase7UniCaseReEINtBJ_8BTreeMapB1F_INtNtBP_3vec3VecB2c_EEEECs3WSINBFhsqg_18build_script_build, symObjAddr: 0x1430, symBinAddr: 0x10000C5E0, symSize: 0x20 }
  - { offset: 0x1B724, size: 0x8, addend: 0x0, symName: __RINvNtCsieiGu2EXtoJ_4core3ptr13drop_in_placeINtNtNtNtCslJiobkLta79_5alloc11collections5btree3map8IntoIterINtCsi3vXDrMaOlU_7unicase7UniCaseReEINtNtBP_3vec3VecB2c_EEECs3WSINBFhsqg_18build_script_build, symObjAddr: 0x1450, symBinAddr: 0x10000C600, symSize: 0x20 }
  - { offset: 0x1B753, size: 0x8, addend: 0x0, symName: __RINvNtCsieiGu2EXtoJ_4core3ptr13drop_in_placeINtNtNtNtCslJiobkLta79_5alloc11collections5btree4node11SplitResultINtCsi3vXDrMaOlU_7unicase7UniCaseReEINtNtBL_3map8BTreeMapB1K_INtNtBP_3vec3VecB2h_EENtNtBJ_6marker4LeafEECs3WSINBFhsqg_18build_script_build, symObjAddr: 0x1470, symBinAddr: 0x10000C620, symSize: 0x20 }
  - { offset: 0x1B782, size: 0x8, addend: 0x0, symName: __RINvNtCsieiGu2EXtoJ_4core3ptr13drop_in_placeINtNtNtNtCslJiobkLta79_5alloc11collections5btree4node11SplitResultINtCsi3vXDrMaOlU_7unicase7UniCaseReEINtNtBL_3map8BTreeMapB1K_INtNtBP_3vec3VecB2h_EENtNtBJ_6marker8InternalEECs3WSINBFhsqg_18build_script_build, symObjAddr: 0x1490, symBinAddr: 0x10000C640, symSize: 0x20 }
  - { offset: 0x1B7B1, size: 0x8, addend: 0x0, symName: __RINvNtCsieiGu2EXtoJ_4core3ptr13drop_in_placeINtNtNtNtCslJiobkLta79_5alloc11collections5btree4node11SplitResultINtCsi3vXDrMaOlU_7unicase7UniCaseReEINtNtBP_3vec3VecB2h_ENtNtBJ_6marker4LeafEECs3WSINBFhsqg_18build_script_build, symObjAddr: 0x14B0, symBinAddr: 0x10000C660, symSize: 0x20 }
  - { offset: 0x1B7E0, size: 0x8, addend: 0x0, symName: __RINvNtCsieiGu2EXtoJ_4core3ptr13drop_in_placeINtNtNtNtCslJiobkLta79_5alloc11collections5btree4node11SplitResultINtCsi3vXDrMaOlU_7unicase7UniCaseReEINtNtBP_3vec3VecB2h_ENtNtBJ_6marker8InternalEECs3WSINBFhsqg_18build_script_build, symObjAddr: 0x14D0, symBinAddr: 0x10000C680, symSize: 0x20 }
  - { offset: 0x1B80F, size: 0x8, addend: 0x0, symName: __RINvNtCsieiGu2EXtoJ_4core3ptr13drop_in_placeINtNvMsT_NtNtNtCslJiobkLta79_5alloc11collections5btree4nodeINtBP_6HandleINtBP_7NodeRefNtNtBP_6marker5DyingpppENtB26_2KVE12drop_key_val7DropperINtNtBR_3map8BTreeMapINtCsi3vXDrMaOlU_7unicase7UniCaseReEINtNtBV_3vec3VecB3Q_EEEECs3WSINBFhsqg_18build_script_build, symObjAddr: 0x14F0, symBinAddr: 0x10000C6A0, symSize: 0x20 }
  - { offset: 0x1B83E, size: 0x8, addend: 0x0, symName: __RINvNtCsieiGu2EXtoJ_4core3ptr13drop_in_placeINtNvMsT_NtNtNtCslJiobkLta79_5alloc11collections5btree4nodeINtBP_6HandleINtBP_7NodeRefNtNtBP_6marker5DyingpppENtB26_2KVE12drop_key_val7DropperINtNtBV_3vec3VecReEEECs3WSINBFhsqg_18build_script_build, symObjAddr: 0x1510, symBinAddr: 0x10000C6C0, symSize: 0x20 }
  - { offset: 0x1B86D, size: 0x8, addend: 0x0, symName: __RINvNtCsieiGu2EXtoJ_4core3ptr13drop_in_placeINtNvNtCsHUR1vrdMJt_3std2io17default_write_fmt7AdapterINtNtNtBL_8buffered9bufwriter9BufWriterNtNtBN_2fs4FileEEECs3WSINBFhsqg_18build_script_build, symObjAddr: 0x1530, symBinAddr: 0x10000C6E0, symSize: 0x20 }
  - { offset: 0x1B89C, size: 0x8, addend: 0x0, symName: __RINvNtCsieiGu2EXtoJ_4core3ptr13drop_in_placeINtNvNtCsHUR1vrdMJt_3std2io17default_write_fmt7AdapterNtNtNtNtBN_3sys5stdio4unix6StderrEECs3WSINBFhsqg_18build_script_build, symObjAddr: 0x1550, symBinAddr: 0x10000C700, symSize: 0x20 }
  - { offset: 0x1B8CB, size: 0x8, addend: 0x0, symName: __RINvNtCsieiGu2EXtoJ_4core3ptr13drop_in_placeINtNvXsd_NtNtCslJiobkLta79_5alloc3vec9into_iterINtBP_8IntoIterppENtNtNtB4_3ops4drop4Drop4drop9DropGuardReNtNtBT_5alloc6GlobalEECs3WSINBFhsqg_18build_script_build, symObjAddr: 0x1570, symBinAddr: 0x10000C720, symSize: 0x20 }
  - { offset: 0x1B8FA, size: 0x8, addend: 0x0, symName: __RINvNtCsieiGu2EXtoJ_4core3ptr13drop_in_placeINtNvXsw_NtNtNtCslJiobkLta79_5alloc11collections5btree3mapINtBP_8IntoIterpppENtNtNtB4_3ops4drop4Drop4drop9DropGuardINtCsi3vXDrMaOlU_7unicase7UniCaseReEINtBP_8BTreeMapB2x_INtNtBV_3vec3VecB34_EENtNtBV_5alloc6GlobalEECs3WSINBFhsqg_18build_script_build, symObjAddr: 0x1590, symBinAddr: 0x10000C740, symSize: 0x20 }
  - { offset: 0x1B929, size: 0x8, addend: 0x0, symName: __RINvNtCsieiGu2EXtoJ_4core3ptr13drop_in_placeINtNvXsw_NtNtNtCslJiobkLta79_5alloc11collections5btree3mapINtBP_8IntoIterpppENtNtNtB4_3ops4drop4Drop4drop9DropGuardINtCsi3vXDrMaOlU_7unicase7UniCaseReEINtNtBV_3vec3VecB34_ENtNtBV_5alloc6GlobalEECs3WSINBFhsqg_18build_script_build, symObjAddr: 0x15B0, symBinAddr: 0x10000C760, symSize: 0x20 }
  - { offset: 0x1B958, size: 0x8, addend: 0x0, symName: __RINvNtCsieiGu2EXtoJ_4core3ptr13drop_in_placeNtNtCsHUR1vrdMJt_3std2fs4FileECs3WSINBFhsqg_18build_script_build, symObjAddr: 0x15D0, symBinAddr: 0x10000C780, symSize: 0x20 }
  - { offset: 0x1B987, size: 0x8, addend: 0x0, symName: __RINvNtCsieiGu2EXtoJ_4core3ptr13drop_in_placeNtNtCsHUR1vrdMJt_3std3env8VarErrorECs3WSINBFhsqg_18build_script_build, symObjAddr: 0x15F0, symBinAddr: 0x10000C7A0, symSize: 0x40 }
  - { offset: 0x1B9B6, size: 0x8, addend: 0x0, symName: __RINvNtCsieiGu2EXtoJ_4core3ptr13drop_in_placeNtNtCsHUR1vrdMJt_3std4path7PathBufECs3WSINBFhsqg_18build_script_build, symObjAddr: 0x1630, symBinAddr: 0x10000C7E0, symSize: 0x20 }
  - { offset: 0x1B9E5, size: 0x8, addend: 0x0, symName: __RINvNtCsieiGu2EXtoJ_4core3ptr13drop_in_placeNtNtCslJiobkLta79_5alloc6string6StringECs3WSINBFhsqg_18build_script_build, symObjAddr: 0x1650, symBinAddr: 0x10000C800, symSize: 0x20 }
  - { offset: 0x1BA14, size: 0x8, addend: 0x0, symName: __RINvNtCsieiGu2EXtoJ_4core3ptr13drop_in_placeNtNtNtCsHUR1vrdMJt_3std2io5error5ErrorECs3WSINBFhsqg_18build_script_build, symObjAddr: 0x1670, symBinAddr: 0x10000C820, symSize: 0x20 }
  - { offset: 0x1BA43, size: 0x8, addend: 0x0, symName: __RINvNtCsieiGu2EXtoJ_4core3ptr13drop_in_placeNtNtNtCsHUR1vrdMJt_3std2io5error6CustomECs3WSINBFhsqg_18build_script_build, symObjAddr: 0x1690, symBinAddr: 0x10000C840, symSize: 0x20 }
  - { offset: 0x1BA72, size: 0x8, addend: 0x0, symName: __RINvNtCsieiGu2EXtoJ_4core3ptr13drop_in_placeNtNtNtCsHUR1vrdMJt_3std3ffi6os_str8OsStringECs3WSINBFhsqg_18build_script_build, symObjAddr: 0x16B0, symBinAddr: 0x10000C860, symSize: 0x20 }
  - { offset: 0x1BAA1, size: 0x8, addend: 0x0, symName: __RINvNtCsieiGu2EXtoJ_4core3ptr13drop_in_placeNtNtNtNtCsHUR1vrdMJt_3std2io5error14repr_bitpacked4ReprECs3WSINBFhsqg_18build_script_build, symObjAddr: 0x16D0, symBinAddr: 0x10000C880, symSize: 0x20 }
  - { offset: 0x1BAD0, size: 0x8, addend: 0x0, symName: __RINvNtCsieiGu2EXtoJ_4core3ptr13drop_in_placeNtNtNtNtCsHUR1vrdMJt_3std2os2fd5owned7OwnedFdECs3WSINBFhsqg_18build_script_build, symObjAddr: 0x16F0, symBinAddr: 0x10000C8A0, symSize: 0x20 }
  - { offset: 0x1BAFF, size: 0x8, addend: 0x0, symName: __RINvNtCsieiGu2EXtoJ_4core3ptr13drop_in_placeNtNtNtNtCsHUR1vrdMJt_3std3sys2fd4unix8FileDescECs3WSINBFhsqg_18build_script_build, symObjAddr: 0x1710, symBinAddr: 0x10000C8C0, symSize: 0x20 }
  - { offset: 0x1BB2E, size: 0x8, addend: 0x0, symName: __RINvNtCsieiGu2EXtoJ_4core3ptr13drop_in_placeNtNtNtNtCsHUR1vrdMJt_3std3sys2fs4unix4FileECs3WSINBFhsqg_18build_script_build, symObjAddr: 0x1730, symBinAddr: 0x10000C8E0, symSize: 0x20 }
  - { offset: 0x1BB5D, size: 0x8, addend: 0x0, symName: __RINvNtCsieiGu2EXtoJ_4core3ptr13drop_in_placeNtNtNtNtCsHUR1vrdMJt_3std3sys6os_str5bytes3BufECs3WSINBFhsqg_18build_script_build, symObjAddr: 0x1750, symBinAddr: 0x10000C900, symSize: 0x20 }
  - { offset: 0x1BB8C, size: 0x8, addend: 0x0, symName: __RINvNtCsieiGu2EXtoJ_4core3ptr13drop_in_placeNtNvMs_NtNtNtCsHUR1vrdMJt_3std2io8buffered9bufwriterINtBN_9BufWriterpE9flush_buf8BufGuardECs3WSINBFhsqg_18build_script_build, symObjAddr: 0x1770, symBinAddr: 0x10000C920, symSize: 0x20 }
  - { offset: 0x1BBBB, size: 0x8, addend: 0x0, symName: __RINvNtCsieiGu2EXtoJ_4core3ptr13drop_in_placeNtNvNtNtNtCslJiobkLta79_5alloc11collections5btree3mem7replace10PanicGuardECs3WSINBFhsqg_18build_script_build, symObjAddr: 0x1790, symBinAddr: 0x10000C940, symSize: 0x20 }
  - { offset: 0x1BBEA, size: 0x8, addend: 0x0, symName: __RINvNtCsieiGu2EXtoJ_4core3ptr13drop_in_placeTINtCsi3vXDrMaOlU_7unicase7UniCaseReEINtNtCslJiobkLta79_5alloc3vec3VecB1e_EEECs3WSINBFhsqg_18build_script_build, symObjAddr: 0x17B0, symBinAddr: 0x10000C960, symSize: 0x20 }
  - { offset: 0x1BC19, size: 0x8, addend: 0x0, symName: __RINvNtCsieiGu2EXtoJ_4core3ptr13drop_in_placeTINtCsi3vXDrMaOlU_7unicase7UniCaseReEINtNtNtNtCslJiobkLta79_5alloc11collections5btree3map8BTreeMapBH_INtNtB1q_3vec3VecB1e_EEEECs3WSINBFhsqg_18build_script_build, symObjAddr: 0x17D0, symBinAddr: 0x10000C980, symSize: 0x20 }
  - { offset: 0x1CC33, size: 0x8, addend: 0x0, symName: __RNCINvNvMsg_NtNtNtCsieiGu2EXtoJ_4core4iter8adapters7flattenINtBa_13FlattenCompatppE13iter_try_fold7flattenNtNtNtCsi3vXDrMaOlU_7unicase7unicode4fold4FolduINtNtNtBg_3ops12control_flow11ControlFlowIB2s_NtNtBg_3cmp8OrderingB3b_EENCINvNvXsi_Ba_BV_NtNtNtBe_6traits8iterator8Iterator8try_fold7flattenB1G_uB2r_NCINvNvB3S_12try_for_each4callcB2r_NCINvNvB3U_12iter_compare7compareINtBa_7FlatMapNtNtNtBg_3str4iter5CharsB1G_NvNtB1K_3map6lookupEcB3b_NCINvNvB3S_6cmp_by7compareccNCINvYB5W_B3S_3cmpB5W_E0E0E0E0E0E0Cs3WSINBFhsqg_18build_script_build, symObjAddr: 0x21F0, symBinAddr: 0x10000D3A0, symSize: 0x90 }
  - { offset: 0x1CCDE, size: 0x8, addend: 0x0, symName: __RNCINvNvXsi_NtNtNtCsieiGu2EXtoJ_4core4iter8adapters7flattenINtBa_13FlattenCompatppENtNtNtBe_6traits8iterator8Iterator8try_fold7flattenNtNtNtCsi3vXDrMaOlU_7unicase7unicode4fold4FolduINtNtNtBg_3ops12control_flow11ControlFlowIB2U_NtNtBg_3cmp8OrderingB3D_EENCINvNvB1j_12try_for_each4callcB2T_NCINvNvB1l_12iter_compare7compareINtBa_7FlatMapNtNtNtBg_3str4iter5CharsB28_NvNtB2c_3map6lookupEcB3D_NCINvNvB1j_6cmp_by7compareccNCINvYB59_B1j_3cmpB59_E0E0E0E0E0Cs3WSINBFhsqg_18build_script_build, symObjAddr: 0x2280, symBinAddr: 0x10000D430, symSize: 0x30 }
  - { offset: 0x1CD52, size: 0x8, addend: 0x0, symName: __RINvXsi_NtNtNtCsieiGu2EXtoJ_4core4iter8adapters7flattenINtB6_13FlattenCompatINtNtB8_3map3MapNtNtNtBc_3str4iter5CharsNvNtNtCsi3vXDrMaOlU_7unicase7unicode3map6lookupENtNtB1U_4fold4FoldENtNtNtBa_6traits8iterator8Iterator8try_folduNCINvNvB2V_12try_for_each4callcINtNtNtBc_3ops12control_flow11ControlFlowIB49_NtNtBc_3cmp8OrderingB4S_EENCINvNvB2X_12iter_compare7compareINtB6_7FlatMapB1s_B2C_B1Q_EcB4S_NCINvNvB2V_6cmp_by7compareccNCINvYB5P_B2V_3cmpB5P_E0E0E0E0B48_ECs3WSINBFhsqg_18build_script_build, symObjAddr: 0x1D40, symBinAddr: 0x10000CEF0, symSize: 0x20 }
  - { offset: 0x1CDCB, size: 0x8, addend: 0x0, symName: __RNvXsi_NtNtNtCsieiGu2EXtoJ_4core4iter8adapters7flattenINtB5_13FlattenCompatINtNtB7_3map3MapNtNtNtBb_3str4iter5CharsNvNtNtCsi3vXDrMaOlU_7unicase7unicode3map6lookupENtNtB1T_4fold4FoldENtNtNtB9_6traits8iterator8Iterator4nextCs3WSINBFhsqg_18build_script_build, symObjAddr: 0x4190, symBinAddr: 0x10000F340, symSize: 0xD0 }
  - { offset: 0x1CF78, size: 0x8, addend: 0x0, symName: __RINvNtNtNtCsieiGu2EXtoJ_4core4iter8adapters7flatten17and_then_or_clearNtNtNtCsi3vXDrMaOlU_7unicase7unicode4fold4FoldcNvYB16_NtNtNtB6_6traits8iterator8Iterator4nextECs3WSINBFhsqg_18build_script_build, symObjAddr: 0x17F0, symBinAddr: 0x10000C9A0, symSize: 0xC0 }
  - { offset: 0x1D0C5, size: 0x8, addend: 0x0, symName: __RINvXs1_NtNtNtCsieiGu2EXtoJ_4core4iter8adapters7flattenINtB6_7FlatMapNtNtNtBc_3str4iter5CharsNtNtNtCsi3vXDrMaOlU_7unicase7unicode4fold4FoldNvNtB1x_3map6lookupENtNtNtBa_6traits8iterator8Iterator8try_folduNCINvNvB2x_12try_for_each4callcINtNtNtBc_3ops12control_flow11ControlFlowIB3L_NtNtBc_3cmp8OrderingB4u_EENCINvNvB2z_12iter_compare7compareBR_cB4u_NCINvNvB2x_6cmp_by7compareccNCINvYBR_B2x_3cmpBR_E0E0E0E0B3K_ECs3WSINBFhsqg_18build_script_build, symObjAddr: 0x1BD0, symBinAddr: 0x10000CD80, symSize: 0x20 }
  - { offset: 0x1D143, size: 0x8, addend: 0x0, symName: __RNvXs1_NtNtNtCsieiGu2EXtoJ_4core4iter8adapters7flattenINtB5_7FlatMapNtNtNtBb_3str4iter5CharsNtNtNtCsi3vXDrMaOlU_7unicase7unicode4fold4FoldNvNtB1w_3map6lookupENtNtNtB9_6traits8iterator8Iterator4nextCs3WSINBFhsqg_18build_script_build, symObjAddr: 0x33E0, symBinAddr: 0x10000E590, symSize: 0x20 }
  - { offset: 0x1D316, size: 0x8, addend: 0x0, symName: __RINvXs9_NtNtNtCsieiGu2EXtoJ_4core4iter8adapters4fuseINtB6_4FuseINtNtB8_3map3MapNtNtNtBc_3str4iter5CharsNvNtNtCsi3vXDrMaOlU_7unicase7unicode3map6lookupEEINtB6_8FuseImplBZ_E8try_folduNCINvNvMsg_NtB8_7flattenINtB34_13FlattenCompatppE13iter_try_fold7flattenNtNtB1H_4fold4FolduINtNtNtBc_3ops12control_flow11ControlFlowIB4n_NtNtBc_3cmp8OrderingB56_EENCINvNvXsi_B34_B3h_NtNtNtBa_6traits8iterator8Iterator8try_fold7flattenB43_uB4m_NCINvNvB5P_12try_for_each4callcB4m_NCINvNvB5R_12iter_compare7compareINtB34_7FlatMapB1f_B43_B1D_EcB56_NCINvNvB5P_6cmp_by7compareccNCINvYB7T_B5P_3cmpB7T_E0E0E0E0E0E0B4m_ECs3WSINBFhsqg_18build_script_build, symObjAddr: 0x1BF0, symBinAddr: 0x10000CDA0, symSize: 0x150 }
  - { offset: 0x1D3B3, size: 0x8, addend: 0x0, symName: __RNvXs9_NtNtNtCsieiGu2EXtoJ_4core4iter8adapters4fuseINtB5_4FuseINtNtB7_3map3MapNtNtNtBb_3str4iter5CharsNvNtNtCsi3vXDrMaOlU_7unicase7unicode3map6lookupEEINtB5_8FuseImplBY_E4nextCs3WSINBFhsqg_18build_script_build, symObjAddr: 0x3CC0, symBinAddr: 0x10000EE70, symSize: 0x80 }
  - { offset: 0x1D510, size: 0x8, addend: 0x0, symName: __RINvYINtNtNtNtCsieiGu2EXtoJ_4core4iter8adapters7flatten7FlatMapNtNtNtBc_3str4iter5CharsNtNtNtCsi3vXDrMaOlU_7unicase7unicode4fold4FoldNvNtB1r_3map6lookupENtNtNtBa_6traits8iterator8Iterator12try_for_eachNCINvNvB2t_12iter_compare7compareB3_cNtNtBc_3cmp8OrderingNCINvNvB2r_6cmp_by7compareccNCINvYB3_B2r_3cmpB3_E0E0E0INtNtNtBc_3ops12control_flow11ControlFlowIB51_B3O_B3O_EEECs3WSINBFhsqg_18build_script_build, symObjAddr: 0x1D60, symBinAddr: 0x10000CF10, symSize: 0x20 }
  - { offset: 0x1D568, size: 0x8, addend: 0x0, symName: __RINvYINtNtNtNtCsieiGu2EXtoJ_4core4iter8adapters7flatten7FlatMapNtNtNtBc_3str4iter5CharsNtNtNtCsi3vXDrMaOlU_7unicase7unicode4fold4FoldNvNtB1r_3map6lookupENtNtNtBa_6traits8iterator8Iterator3cmpB3_ECs3WSINBFhsqg_18build_script_build, symObjAddr: 0x1D80, symBinAddr: 0x10000CF30, symSize: 0x10 }
  - { offset: 0x1D5B9, size: 0x8, addend: 0x0, symName: __RINvYINtNtNtNtCsieiGu2EXtoJ_4core4iter8adapters7flatten7FlatMapNtNtNtBc_3str4iter5CharsNtNtNtCsi3vXDrMaOlU_7unicase7unicode4fold4FoldNvNtB1r_3map6lookupENtNtNtBa_6traits8iterator8Iterator6cmp_byB3_NCINvYB3_B2r_3cmpB3_E0ECs3WSINBFhsqg_18build_script_build, symObjAddr: 0x1D90, symBinAddr: 0x10000CF40, symSize: 0xD0 }
  - { offset: 0x1D65E, size: 0x8, addend: 0x0, symName: __RINvYNtNtNtCsieiGu2EXtoJ_4core3str4iter5CharsNtNtNtNtB9_4iter6traits8iterator8Iterator3mapNtNtNtCsi3vXDrMaOlU_7unicase7unicode4fold4FoldNvNtB1u_3map6lookupECs3WSINBFhsqg_18build_script_build, symObjAddr: 0x1E60, symBinAddr: 0x10000D010, symSize: 0x20 }
  - { offset: 0x1D6B6, size: 0x8, addend: 0x0, symName: __RINvYNtNtNtCsieiGu2EXtoJ_4core3str4iter5CharsNtNtNtNtB9_4iter6traits8iterator8Iterator3mapcNCNvXs2_NtCsi3vXDrMaOlU_7unicase5asciiINtB1B_5AsciiReENtNtB9_3cmp3Ord3cmp0ECs3WSINBFhsqg_18build_script_build, symObjAddr: 0x1E80, symBinAddr: 0x10000D030, symSize: 0x20 }
  - { offset: 0x1D70E, size: 0x8, addend: 0x0, symName: __RINvYNtNtNtCsieiGu2EXtoJ_4core3str4iter5CharsNtNtNtNtB9_4iter6traits8iterator8Iterator3mapcNCNvXs2_NtCsi3vXDrMaOlU_7unicase5asciiINtB1B_5AsciiReENtNtB9_3cmp3Ord3cmps_0ECs3WSINBFhsqg_18build_script_build, symObjAddr: 0x1EA0, symBinAddr: 0x10000D050, symSize: 0x20 }
  - { offset: 0x1D766, size: 0x8, addend: 0x0, symName: __RINvYNtNtNtCsieiGu2EXtoJ_4core3str4iter5CharsNtNtNtNtB9_4iter6traits8iterator8Iterator8flat_mapNtNtNtCsi3vXDrMaOlU_7unicase7unicode4fold4FoldNvNtB1z_3map6lookupECs3WSINBFhsqg_18build_script_build, symObjAddr: 0x1EC0, symBinAddr: 0x10000D070, symSize: 0x90 }
  - { offset: 0x1D801, size: 0x8, addend: 0x0, symName: __RINvYNtNtNtCsieiGu2EXtoJ_4core3str4iter5CharsNtNtNtNtB9_4iter6traits8iterator8Iterator8try_folduNCINvNtNtBN_8adapters3map12map_try_foldcNtNtNtCsi3vXDrMaOlU_7unicase7unicode4fold4FolduINtNtNtB9_3ops12control_flow11ControlFlowIB2W_NtNtB9_3cmp8OrderingB3F_EENvNtB2e_3map6lookupNCINvNvMsg_NtB1D_7flattenINtB4z_13FlattenCompatppE13iter_try_fold7flattenB2a_uB2V_NCINvNvXsi_B4z_B4N_BH_8try_fold7flattenB2a_uB2V_NCINvNvBH_12try_for_each4callcB2V_NCINvNvBJ_12iter_compare7compareINtB4z_7FlatMapB3_B2a_B45_EcB3F_NCINvNvBH_6cmp_by7compareccNCINvYB7y_BH_3cmpB7y_E0E0E0E0E0E0E0B2V_ECs3WSINBFhsqg_18build_script_build, symObjAddr: 0x1F50, symBinAddr: 0x10000D100, symSize: 0x130 }
  - { offset: 0x1D8B4, size: 0x8, addend: 0x0, symName: __RINvYNtNtNtCsieiGu2EXtoJ_4core3str4iter5CharsNtNtNtNtB9_4iter6traits8iterator8Iterator8try_folduNCINvNtNtBN_8adapters3map12map_try_foldccuINtNtNtB9_3ops12control_flow11ControlFlowIB2d_NtNtB9_3cmp8OrderingB2W_EENCNvXs2_NtCsi3vXDrMaOlU_7unicase5asciiINtB3w_5AsciiReENtB2Y_3Ord3cmp0NCINvNvBH_12try_for_each4callcB2c_NCINvNvBJ_12iter_compare7compareINtB1B_3MapB3_NCB3o_s_0EcB2W_NCINvNvBH_6cmp_by7compareccNCINvYIB5y_B3_B3m_EBH_3cmpB5x_E0E0E0E0E0B2c_ECs3WSINBFhsqg_18build_script_build, symObjAddr: 0x2080, symBinAddr: 0x10000D230, symSize: 0x130 }
  - { offset: 0x1D9BB, size: 0x8, addend: 0x0, symName: __RNvXNtNtNtCsieiGu2EXtoJ_4core4iter6traits7collectINtNtNtB6_8adapters7flatten7FlatMapNtNtNtB8_3str4iter5CharsNtNtNtCsi3vXDrMaOlU_7unicase7unicode4fold4FoldNvNtB1M_3map6lookupENtB2_12IntoIterator9into_iterCs3WSINBFhsqg_18build_script_build, symObjAddr: 0x3300, symBinAddr: 0x10000E4B0, symSize: 0x30 }
  - { offset: 0x1D9F3, size: 0x8, addend: 0x0, symName: __RNvXNtNtNtCsieiGu2EXtoJ_4core4iter6traits7collectINtNtNtB8_5slice4iter4IterReENtB2_12IntoIterator9into_iterCs3WSINBFhsqg_18build_script_build, symObjAddr: 0x3330, symBinAddr: 0x10000E4E0, symSize: 0x20 }
  - { offset: 0x1DA61, size: 0x8, addend: 0x0, symName: __RNvYINtNtNtCslJiobkLta79_5alloc3vec9into_iter8IntoIterReENtNtNtNtCsieiGu2EXtoJ_4core4iter6traits10exact_size17ExactSizeIterator3lenCs3WSINBFhsqg_18build_script_build, symObjAddr: 0x4310, symBinAddr: 0x10000F4C0, symSize: 0xE0 }
  - { offset: 0x1DB6E, size: 0x8, addend: 0x0, symName: __RNvXs3_NtNtCsieiGu2EXtoJ_4core4iter5rangeINtNtNtB9_3ops5range5RangejENtB5_17RangeIteratorImpl9spec_nextCs3WSINBFhsqg_18build_script_build, symObjAddr: 0x3760, symBinAddr: 0x10000E910, symSize: 0x80 }
  - { offset: 0x1DBEF, size: 0x8, addend: 0x0, symName: __RNvXs4_NtNtCsieiGu2EXtoJ_4core4iter5rangeINtNtNtB9_3ops5range5RangejENtNtNtB7_6traits8iterator8Iterator4nextCs3WSINBFhsqg_18build_script_build, symObjAddr: 0x38A0, symBinAddr: 0x10000EA50, symSize: 0x20 }
  - { offset: 0x1DC2C, size: 0x8, addend: 0x0, symName: __RNvXsc_NtNtCsieiGu2EXtoJ_4core4iter5rangeINtNtNtB9_3ops5range14RangeInclusivejENtB5_26RangeInclusiveIteratorImpl9spec_nextCs3WSINBFhsqg_18build_script_build, symObjAddr: 0x4020, symBinAddr: 0x10000F1D0, symSize: 0xD0 }
  - { offset: 0x1DD2D, size: 0x8, addend: 0x0, symName: __RNvXsd_NtNtCsieiGu2EXtoJ_4core4iter5rangeINtNtNtB9_3ops5range14RangeInclusivejENtNtNtB7_6traits8iterator8Iterator4nextCs3WSINBFhsqg_18build_script_build, symObjAddr: 0x40F0, symBinAddr: 0x10000F2A0, symSize: 0x20 }
  - { offset: 0x1E06B, size: 0x8, addend: 0x0, symName: __RNSNvYNCINvNtCsHUR1vrdMJt_3std2rt10lang_startuE0INtNtNtCsieiGu2EXtoJ_4core3ops8function6FnOnceuE9call_once6vtableCs3WSINBFhsqg_18build_script_build, symObjAddr: 0x22B0, symBinAddr: 0x10000D460, symSize: 0x20 }
  - { offset: 0x1E0AF, size: 0x8, addend: 0x0, symName: __RNvYFEuINtNtNtCsieiGu2EXtoJ_4core3ops8function6FnOnceuE9call_onceCs3WSINBFhsqg_18build_script_build, symObjAddr: 0x42F0, symBinAddr: 0x10000F4A0, symSize: 0x20 }
  - { offset: 0x1E0EF, size: 0x8, addend: 0x0, symName: __RNvYNCINvNtCsHUR1vrdMJt_3std2rt10lang_startuE0INtNtNtCsieiGu2EXtoJ_4core3ops8function6FnOnceuE9call_onceCs3WSINBFhsqg_18build_script_build, symObjAddr: 0x43F0, symBinAddr: 0x10000F5A0, symSize: 0x40 }
  - { offset: 0x1E133, size: 0x8, addend: 0x0, symName: __RNvYNvMNtCslJiobkLta79_5alloc3vecINtB5_3VecReE3newINtNtNtCsieiGu2EXtoJ_4core3ops8function6FnOnceuE9call_onceCs3WSINBFhsqg_18build_script_build, symObjAddr: 0x4430, symBinAddr: 0x10000F5E0, symSize: 0x20 }
  - { offset: 0x1E177, size: 0x8, addend: 0x0, symName: __RNvYNvMsg_NtNtNtCslJiobkLta79_5alloc11collections5btree3mapINtB8_8BTreeMapINtCsi3vXDrMaOlU_7unicase7UniCaseReEINtNtBe_3vec3VecB1H_EE3newINtNtNtCsieiGu2EXtoJ_4core3ops8function6FnOnceuE9call_onceCs3WSINBFhsqg_18build_script_build, symObjAddr: 0x4450, symBinAddr: 0x10000F600, symSize: 0x20 }
  - { offset: 0x1E1BB, size: 0x8, addend: 0x0, symName: __RNvYNvYNtNtNtCsi3vXDrMaOlU_7unicase7unicode4fold4FoldNtNtNtNtCsieiGu2EXtoJ_4core4iter6traits8iterator8Iterator4nextINtNtNtBX_3ops8function6FnOnceTQB5_EE9call_onceCs3WSINBFhsqg_18build_script_build, symObjAddr: 0x44A0, symBinAddr: 0x10000F650, symSize: 0x20 }
  - { offset: 0x1E205, size: 0x8, addend: 0x0, symName: __RNvYNvNtNtCsi3vXDrMaOlU_7unicase7unicode3map6lookupINtNtNtCsieiGu2EXtoJ_4core3ops8function5FnMutTcEE8call_mutCs3WSINBFhsqg_18build_script_build, symObjAddr: 0x4470, symBinAddr: 0x10000F620, symSize: 0x30 }
  - { offset: 0x1E35A, size: 0x8, addend: 0x0, symName: __RNvXNtNtCsieiGu2EXtoJ_4core3str4iterNtB2_5CharsNtNtNtNtB6_4iter6traits8iterator8Iterator4nextCs3WSINBFhsqg_18build_script_build, symObjAddr: 0x32A0, symBinAddr: 0x10000E450, symSize: 0x60 }
  - { offset: 0x1E4BA, size: 0x8, addend: 0x0, symName: __RNvXs8_NtNtCsieiGu2EXtoJ_4core3str6traitsINtNtNtB9_3ops5range7RangeTojEINtNtNtB9_5slice5index10SliceIndexeE3getCs3WSINBFhsqg_18build_script_build, symObjAddr: 0x3970, symBinAddr: 0x10000EB20, symSize: 0x110 }
  - { offset: 0x1E5E0, size: 0x8, addend: 0x0, symName: __RNvXs8_NtNtCsieiGu2EXtoJ_4core3str6traitsINtNtNtB9_3ops5range7RangeTojEINtNtNtB9_5slice5index10SliceIndexeE5indexCs3WSINBFhsqg_18build_script_build, symObjAddr: 0x3A80, symBinAddr: 0x10000EC30, symSize: 0x80 }
  - { offset: 0x1E673, size: 0x8, addend: 0x0, symName: __RNvXs9_NtNtCsieiGu2EXtoJ_4core3str6traitsINtNtNtB9_3ops5range9RangeFromjEINtNtNtB9_5slice5index10SliceIndexeE3getCs3WSINBFhsqg_18build_script_build, symObjAddr: 0x3B00, symBinAddr: 0x10000ECB0, symSize: 0x130 }
  - { offset: 0x1E7EF, size: 0x8, addend: 0x0, symName: __RNvXs9_NtNtCsieiGu2EXtoJ_4core3str6traitsINtNtNtB9_3ops5range9RangeFromjEINtNtNtB9_5slice5index10SliceIndexeE5indexCs3WSINBFhsqg_18build_script_build, symObjAddr: 0x3C30, symBinAddr: 0x10000EDE0, symSize: 0x90 }
  - { offset: 0x1E92E, size: 0x8, addend: 0x0, symName: __RNvXs2E_NtNtCsieiGu2EXtoJ_4core5slice4iterINtB6_4IterINtCsi3vXDrMaOlU_7unicase7UniCaseReEENtNtNtNtBa_4iter6traits8iterator8Iterator4nextCs3WSINBFhsqg_18build_script_build, symObjAddr: 0x3400, symBinAddr: 0x10000E5B0, symSize: 0x90 }
  - { offset: 0x1EA4F, size: 0x8, addend: 0x0, symName: __RNvXs2E_NtNtCsieiGu2EXtoJ_4core5slice4iterINtB6_4IterReENtNtNtNtBa_4iter6traits8iterator8Iterator4nextCs3WSINBFhsqg_18build_script_build, symObjAddr: 0x3490, symBinAddr: 0x10000E640, symSize: 0x90 }
  - { offset: 0x1EB70, size: 0x8, addend: 0x0, symName: __RNvXs2E_NtNtCsieiGu2EXtoJ_4core5slice4iterINtB6_4IterTReRSBQ_EENtNtNtNtBa_4iter6traits8iterator8Iterator4nextCs3WSINBFhsqg_18build_script_build, symObjAddr: 0x3520, symBinAddr: 0x10000E6D0, symSize: 0x90 }
  - { offset: 0x1EC91, size: 0x8, addend: 0x0, symName: __RNvXs2E_NtNtCsieiGu2EXtoJ_4core5slice4iterINtB6_4IterhENtNtNtNtBa_4iter6traits8iterator8Iterator4nextCs3WSINBFhsqg_18build_script_build, symObjAddr: 0x35B0, symBinAddr: 0x10000E760, symSize: 0x90 }
  - { offset: 0x1EE0C, size: 0x8, addend: 0x0, symName: __RNvXs_NtNtCsieiGu2EXtoJ_4core5slice4iterRSReNtNtNtNtB8_4iter6traits7collect12IntoIterator9into_iterCs3WSINBFhsqg_18build_script_build, symObjAddr: 0x3DE0, symBinAddr: 0x10000EF90, symSize: 0x50 }
  - { offset: 0x1EF46, size: 0x8, addend: 0x0, symName: __RNvXs_NtNtCsieiGu2EXtoJ_4core5slice4iterRSTReRSBF_ENtNtNtNtB8_4iter6traits7collect12IntoIterator9into_iterCs3WSINBFhsqg_18build_script_build, symObjAddr: 0x3E30, symBinAddr: 0x10000EFE0, symSize: 0x50 }
  - { offset: 0x1F147, size: 0x8, addend: 0x0, symName: __RNvNtNtCsieiGu2EXtoJ_4core5slice5ascii8is_asciiCs3WSINBFhsqg_18build_script_build, symObjAddr: 0x2E80, symBinAddr: 0x10000E030, symSize: 0x140 }
  - { offset: 0x1F291, size: 0x8, addend: 0x0, symName: __RNvXs5_NtNtCsieiGu2EXtoJ_4core5slice5indexINtNtNtB9_3ops5range9RangeFromjEINtB5_10SliceIndexShE5indexCs3WSINBFhsqg_18build_script_build, symObjAddr: 0x38C0, symBinAddr: 0x10000EA70, symSize: 0x80 }
  - { offset: 0x1FE4E, size: 0x8, addend: 0x0, symName: __RNvXNtCsieiGu2EXtoJ_4core7convertReINtB2_5AsRefNtNtCsHUR1vrdMJt_3std4path4PathE6as_refCs3WSINBFhsqg_18build_script_build, symObjAddr: 0x3220, symBinAddr: 0x10000E3D0, symSize: 0x30 }
  - { offset: 0x1FE8E, size: 0x8, addend: 0x0, symName: __RNvXNtCsieiGu2EXtoJ_4core7convertReINtB2_5AsRefNtNtNtCsHUR1vrdMJt_3std3ffi6os_str5OsStrE6as_refCs3WSINBFhsqg_18build_script_build, symObjAddr: 0x3250, symBinAddr: 0x10000E400, symSize: 0x30 }
  - { offset: 0x1FECE, size: 0x8, addend: 0x0, symName: __RNvXNtCsieiGu2EXtoJ_4core7convertReINtB2_5AsRefeE6as_refCs3WSINBFhsqg_18build_script_build, symObjAddr: 0x3280, symBinAddr: 0x10000E430, symSize: 0x20 }
  - { offset: 0x20197, size: 0x8, addend: 0x0, symName: __RNvNvMNtNtCsieiGu2EXtoJ_4core5alloc6layoutNtB4_6Layout25from_size_align_unchecked18precondition_checkCs3WSINBFhsqg_18build_script_build, symObjAddr: 0x3070, symBinAddr: 0x10000E220, symSize: 0xB0 }
  - { offset: 0x2024B, size: 0x8, addend: 0x0, symName: __RNvNvNtNtCsieiGu2EXtoJ_4core4char7convert18from_u32_unchecked18precondition_checkCs3WSINBFhsqg_18build_script_build, symObjAddr: 0x3120, symBinAddr: 0x10000E2D0, symSize: 0xF0 }
  - { offset: 0x2034D, size: 0x8, addend: 0x0, symName: __RNvXNtCsieiGu2EXtoJ_4core6borrowINtCsi3vXDrMaOlU_7unicase7UniCaseReEINtB2_6BorrowBu_E6borrowCs3WSINBFhsqg_18build_script_build, symObjAddr: 0x3210, symBinAddr: 0x10000E3C0, symSize: 0x10 }
  - { offset: 0x2055F, size: 0x8, addend: 0x0, symName: __RNvXNvXsd_NtNtCslJiobkLta79_5alloc3vec9into_iterINtB8_8IntoIterppENtNtNtCsieiGu2EXtoJ_4core3ops4drop4Drop4dropINtB2_9DropGuardReNtNtBc_5alloc6GlobalEB12_4dropCs3WSINBFhsqg_18build_script_build, symObjAddr: 0x3360, symBinAddr: 0x10000E510, symSize: 0x70 }
  - { offset: 0x2069D, size: 0x8, addend: 0x0, symName: __RNvXsd_NtNtCslJiobkLta79_5alloc3vec9into_iterINtB5_8IntoIterReENtNtNtCsieiGu2EXtoJ_4core3ops4drop4Drop4dropCs3WSINBFhsqg_18build_script_build, symObjAddr: 0x4110, symBinAddr: 0x10000F2C0, symSize: 0x80 }
  - { offset: 0x2073E, size: 0x8, addend: 0x0, symName: __RNvXs3_NtNtCslJiobkLta79_5alloc3vec9into_iterINtB5_8IntoIterReENtNtNtNtCsieiGu2EXtoJ_4core4iter6traits8iterator8Iterator9size_hintCs3WSINBFhsqg_18build_script_build, symObjAddr: 0x37E0, symBinAddr: 0x10000E990, symSize: 0x60 }
  - { offset: 0x20806, size: 0x8, addend: 0x0, symName: __RNvXs1_NtCslJiobkLta79_5alloc5allocNtB5_6GlobalNtNtCsieiGu2EXtoJ_4core5clone5Clone5cloneCs3WSINBFhsqg_18build_script_build, symObjAddr: 0x33D0, symBinAddr: 0x10000E580, symSize: 0x10 }
  - { offset: 0x20857, size: 0x8, addend: 0x0, symName: __RNvXs_NtCslJiobkLta79_5alloc5allocNtB4_6GlobalNtNtCsieiGu2EXtoJ_4core5alloc9Allocator10deallocateCs3WSINBFhsqg_18build_script_build, symObjAddr: 0x3D40, symBinAddr: 0x10000EEF0, symSize: 0x70 }
  - { offset: 0x2091F, size: 0x8, addend: 0x0, symName: __RNvXs_NtCslJiobkLta79_5alloc5allocNtB4_6GlobalNtNtCsieiGu2EXtoJ_4core5alloc9Allocator8allocateCs3WSINBFhsqg_18build_script_build, symObjAddr: 0x3DB0, symBinAddr: 0x10000EF60, symSize: 0x30 }
  - { offset: 0x21498, size: 0x8, addend: 0x0, symName: __RINvNtNtNtCslJiobkLta79_5alloc11collections5btree3mem7replaceINtNtB4_4node6HandleINtB10_7NodeRefNtNtB10_6marker5DyingINtCsi3vXDrMaOlU_7unicase7UniCaseReEINtNtB4_3map8BTreeMapB1R_INtNtB8_3vec3VecB2o_EENtB1y_4LeafENtB1y_4EdgeEIBY_IB1i_B1w_B1R_B2r_NtB1y_14LeafOrInternalENtB1y_2KVENCINvMsm_NtB4_8navigateBX_27deallocating_next_uncheckedNtNtB8_5alloc6GlobalE0ECs3WSINBFhsqg_18build_script_build, symObjAddr: 0x18B0, symBinAddr: 0x10000CA60, symSize: 0x110 }
  - { offset: 0x2158A, size: 0x8, addend: 0x0, symName: __RINvNtNtNtCslJiobkLta79_5alloc11collections5btree3mem7replaceINtNtB4_4node6HandleINtB10_7NodeRefNtNtB10_6marker5DyingINtCsi3vXDrMaOlU_7unicase7UniCaseReEINtNtB8_3vec3VecB2o_ENtB1y_4LeafENtB1y_4EdgeEIBY_IB1i_B1w_B1R_B2r_NtB1y_14LeafOrInternalENtB1y_2KVENCINvMsm_NtB4_8navigateBX_27deallocating_next_uncheckedNtNtB8_5alloc6GlobalE0ECs3WSINBFhsqg_18build_script_build, symObjAddr: 0x19C0, symBinAddr: 0x10000CB70, symSize: 0x110 }
  - { offset: 0x2167C, size: 0x8, addend: 0x0, symName: __RINvNtNtNtCslJiobkLta79_5alloc11collections5btree3mem7replaceINtNtB4_4node7NodeRefNtNtB10_6marker5OwnedINtCsi3vXDrMaOlU_7unicase7UniCaseReEINtNtB4_3map8BTreeMapB1D_INtNtB8_3vec3VecB2a_EENtB1k_14LeafOrInternalEuNCINvB2_8take_mutBX_NCINvMss_B10_BX_19push_internal_levelNtNtB8_5alloc6GlobalE0E0ECs3WSINBFhsqg_18build_script_build, symObjAddr: 0x1AD0, symBinAddr: 0x10000CC80, symSize: 0x80 }
  - { offset: 0x21766, size: 0x8, addend: 0x0, symName: __RINvNtNtNtCslJiobkLta79_5alloc11collections5btree3mem7replaceINtNtB4_4node7NodeRefNtNtB10_6marker5OwnedINtCsi3vXDrMaOlU_7unicase7UniCaseReEINtNtB8_3vec3VecB2a_ENtB1k_14LeafOrInternalEuNCINvB2_8take_mutBX_NCINvMss_B10_BX_19push_internal_levelNtNtB8_5alloc6GlobalE0E0ECs3WSINBFhsqg_18build_script_build, symObjAddr: 0x1B50, symBinAddr: 0x10000CD00, symSize: 0x80 }
  - { offset: 0x21855, size: 0x8, addend: 0x0, symName: __RNCINvNtNtNtCslJiobkLta79_5alloc11collections5btree3mem8take_mutINtNtB6_4node7NodeRefNtNtB13_6marker5OwnedINtCsi3vXDrMaOlU_7unicase7UniCaseReEINtNtB6_3map8BTreeMapB1G_INtNtBa_3vec3VecB2d_EENtB1n_14LeafOrInternalENCINvMss_B13_B10_19push_internal_levelNtNtBa_5alloc6GlobalE0E0Cs3WSINBFhsqg_18build_script_build, symObjAddr: 0x21B0, symBinAddr: 0x10000D360, symSize: 0x20 }
  - { offset: 0x218A2, size: 0x8, addend: 0x0, symName: __RNCINvNtNtNtCslJiobkLta79_5alloc11collections5btree3mem8take_mutINtNtB6_4node7NodeRefNtNtB13_6marker5OwnedINtCsi3vXDrMaOlU_7unicase7UniCaseReEINtNtBa_3vec3VecB2d_ENtB1n_14LeafOrInternalENCINvMss_B13_B10_19push_internal_levelNtNtBa_5alloc6GlobalE0E0Cs3WSINBFhsqg_18build_script_build, symObjAddr: 0x21D0, symBinAddr: 0x10000D380, symSize: 0x20 }
  - { offset: 0x21920, size: 0x8, addend: 0x0, symName: __RNvXNvNtNtNtCslJiobkLta79_5alloc11collections5btree3mem7replaceNtB2_10PanicGuardNtNtNtCsieiGu2EXtoJ_4core3ops4drop4Drop4dropCs3WSINBFhsqg_18build_script_build, symObjAddr: 0x3350, symBinAddr: 0x10000E500, symSize: 0x10 }
  - { offset: 0x21C21, size: 0x8, addend: 0x0, symName: __RINvCs3WSINBFhsqg_18build_script_build13build_rev_mapINtNtNtNtCsHUR1vrdMJt_3std2io8buffered9bufwriter9BufWriterNtNtBY_2fs4FileEEB2_, symObjAddr: 0x0, symBinAddr: 0x10000B1F0, symSize: 0xCD0 }
  - { offset: 0x21FA4, size: 0x8, addend: 0x0, symName: __RNvCs3WSINBFhsqg_18build_script_build10split_mime, symObjAddr: 0x22D0, symBinAddr: 0x10000D480, symSize: 0xF0 }
  - { offset: 0x22002, size: 0x8, addend: 0x0, symName: __RNvCs3WSINBFhsqg_18build_script_build16get_rev_mappings, symObjAddr: 0x23C0, symBinAddr: 0x10000D570, symSize: 0x2E0 }
  - { offset: 0x220C8, size: 0x8, addend: 0x0, symName: __RNvCs3WSINBFhsqg_18build_script_build4main, symObjAddr: 0x26A0, symBinAddr: 0x10000D850, symSize: 0x340 }
  - { offset: 0x222A8, size: 0x8, addend: 0x0, symName: __RNvXs2_NtCsi3vXDrMaOlU_7unicase7unicodeINtB5_7UnicodeReENtNtCsieiGu2EXtoJ_4core3cmp3Ord3cmpCs3WSINBFhsqg_18build_script_build, symObjAddr: 0x36D0, symBinAddr: 0x10000E880, symSize: 0x70 }
  - { offset: 0x22418, size: 0x8, addend: 0x0, symName: __RNvXs2_NtCsi3vXDrMaOlU_7unicase5asciiINtB7_5AsciiReENtNtCsieiGu2EXtoJ_4core3cmp3Ord3cmpCs3WSINBFhsqg_18build_script_build, symObjAddr: 0x3640, symBinAddr: 0x10000E7F0, symSize: 0x90 }
  - { offset: 0x224AF, size: 0x8, addend: 0x0, symName: __RNvXs3_NtCsi3vXDrMaOlU_7unicase5asciiINtB7_5AsciiReEINtNtCsieiGu2EXtoJ_4core7convert5AsRefeE6as_refCs3WSINBFhsqg_18build_script_build, symObjAddr: 0x3740, symBinAddr: 0x10000E8F0, symSize: 0x20 }
  - { offset: 0x224EB, size: 0x8, addend: 0x0, symName: __RNvXs4_Csi3vXDrMaOlU_7unicaseINtB5_7UniCaseReENtNtCsieiGu2EXtoJ_4core3fmt5Debug3fmtCs3WSINBFhsqg_18build_script_build, symObjAddr: 0x3840, symBinAddr: 0x10000E9F0, symSize: 0x60 }
  - { offset: 0x2256E, size: 0x8, addend: 0x0, symName: __RNvXsc_Csi3vXDrMaOlU_7unicaseINtB5_7UniCaseReENtNtCsieiGu2EXtoJ_4core3cmp3Ord3cmpCs3WSINBFhsqg_18build_script_build, symObjAddr: 0x3E80, symBinAddr: 0x10000F030, symSize: 0x1A0 }
  - { offset: 0x226DD, size: 0x8, addend: 0x0, symName: __RINvMsg_NtNtNtCsieiGu2EXtoJ_4core4iter8adapters7flattenINtB6_13FlattenCompatINtNtB8_3map3MapNtNtNtBc_3str4iter5CharsNvNtNtCsi3vXDrMaOlU_7unicase7unicode3map6lookupENtNtB1U_4fold4FoldE13iter_try_folduNCINvNvXsi_B6_IBS_ppENtNtNtBa_6traits8iterator8Iterator8try_fold7flattenB2C_uINtNtNtBc_3ops12control_flow11ControlFlowIB4r_NtNtBc_3cmp8OrderingB5a_EENCINvNvB3w_12try_for_each4callcB4q_NCINvNvB3y_12iter_compare7compareINtB6_7FlatMapB1s_B2C_B1Q_EcB5a_NCINvNvB3w_6cmp_by7compareccNCINvYB6G_B3w_3cmpB6G_E0E0E0E0E0B4q_ECs3WSINBFhsqg_18build_script_build, symObjAddr: 0xCD0, symBinAddr: 0x10000BEC0, symSize: 0x350 }
  - { offset: 0x22B11, size: 0x8, addend: 0x0, symName: __RNvMNtCsieiGu2EXtoJ_4core6optionINtB2_6OptionNtNtNtCsi3vXDrMaOlU_7unicase7unicode4fold4FoldE6insertCs3WSINBFhsqg_18build_script_build, symObjAddr: 0x29E0, symBinAddr: 0x10000DB90, symSize: 0x80 }
  - { offset: 0x22D35, size: 0x8, addend: 0x0, symName: __RNvMNtCslJiobkLta79_5alloc5allocNtB2_6Global10alloc_implCs3WSINBFhsqg_18build_script_build, symObjAddr: 0x2A60, symBinAddr: 0x10000DC10, symSize: 0x290 }
  - { offset: 0x230BC, size: 0x8, addend: 0x0, symName: __RNvMs0_Csi3vXDrMaOlU_7unicaseINtB5_7UniCaseReE8is_asciiCs3WSINBFhsqg_18build_script_build, symObjAddr: 0x2CF0, symBinAddr: 0x10000DEA0, symSize: 0x40 }
  - { offset: 0x230E7, size: 0x8, addend: 0x0, symName: __RNvMs_Csi3vXDrMaOlU_7unicaseINtB4_7UniCaseReE3newCs3WSINBFhsqg_18build_script_build, symObjAddr: 0x2D30, symBinAddr: 0x10000DEE0, symSize: 0xF0 }
  - { offset: 0x23154, size: 0x8, addend: 0x0, symName: __RNvMs_NtNtCslJiobkLta79_5alloc3vec9into_iterINtB4_8IntoIterReE8as_sliceCs3WSINBFhsqg_18build_script_build, symObjAddr: 0x2E20, symBinAddr: 0x10000DFD0, symSize: 0x60 }
  - { offset: 0x23FB4, size: 0x8, addend: 0x0, symName: __RINvMNtNtCsieiGu2EXtoJ_4core3fmt2rtNtB3_8Argument11new_displayNtB5_9ArgumentsECs3WSINBFhsqg_18build_script_build, symObjAddr: 0x0, symBinAddr: 0x10000F690, symSize: 0x30 }
  - { offset: 0x23FEB, size: 0x8, addend: 0x0, symName: __RNCINvNtCsHUR1vrdMJt_3std2rt10lang_startuE0Cs3WSINBFhsqg_18build_script_build, symObjAddr: 0x9A0, symBinAddr: 0x100010030, symSize: 0x30 }
  - { offset: 0x24055, size: 0x8, addend: 0x0, symName: __RINvNtCsHUR1vrdMJt_3std2rt10lang_startuECs3WSINBFhsqg_18build_script_build, symObjAddr: 0x680, symBinAddr: 0x10000FD10, symSize: 0x40 }
  - { offset: 0x24611, size: 0x8, addend: 0x0, symName: __RNvXs4_NtNtNtCsHUR1vrdMJt_3std2io8buffered9bufwriterINtB5_9BufWriterNtNtBb_2fs4FileENtB9_5Write9write_allCs3WSINBFhsqg_18build_script_build, symObjAddr: 0x3560, symBinAddr: 0x100012AC0, symSize: 0x70 }
  - { offset: 0x246D1, size: 0x8, addend: 0x0, symName: __RNvXs7_NtNtNtCsHUR1vrdMJt_3std2io8buffered9bufwriterINtB5_9BufWriterNtNtBb_2fs4FileENtNtNtCsieiGu2EXtoJ_4core3ops4drop4Drop4dropCs3WSINBFhsqg_18build_script_build, symObjAddr: 0x3620, symBinAddr: 0x100012B80, symSize: 0x40 }
  - { offset: 0x2470C, size: 0x8, addend: 0x0, symName: __RNvYINtNtNtNtCsHUR1vrdMJt_3std2io8buffered9bufwriter9BufWriterNtNtBb_2fs4FileENtB9_5Write9write_fmtCs3WSINBFhsqg_18build_script_build, symObjAddr: 0x3E40, symBinAddr: 0x1000133A0, symSize: 0x170 }
  - { offset: 0x247C6, size: 0x8, addend: 0x0, symName: __RNvYNtNtCsHUR1vrdMJt_3std2fs4FileNtNtB6_2io5Write9write_allCs3WSINBFhsqg_18build_script_build, symObjAddr: 0x3FB0, symBinAddr: 0x100013510, symSize: 0x2E0 }
  - { offset: 0x253D3, size: 0x8, addend: 0x0, symName: __RNvNvNtCsieiGu2EXtoJ_4core3ptr19copy_nonoverlapping18precondition_checkCs3WSINBFhsqg_18build_script_build, symObjAddr: 0x2940, symBinAddr: 0x100011EA0, symSize: 0x4B0 }
  - { offset: 0x256E4, size: 0x8, addend: 0x0, symName: __RNvNvNtCsieiGu2EXtoJ_4core3ptr4copy18precondition_checkCs3WSINBFhsqg_18build_script_build, symObjAddr: 0x2DF0, symBinAddr: 0x100012350, symSize: 0x330 }
  - { offset: 0x26842, size: 0x8, addend: 0x0, symName: __RNvNvMs9_NtCsieiGu2EXtoJ_4core3numj13unchecked_add18precondition_checkCs3WSINBFhsqg_18build_script_build, symObjAddr: 0x28A0, symBinAddr: 0x100011E00, symSize: 0xA0 }
  - { offset: 0x2697A, size: 0x8, addend: 0x0, symName: __RNvXs5_NtNtCsieiGu2EXtoJ_4core3num5errorNtB5_15TryFromIntErrorNtNtB9_3fmt5Debug3fmtCs3WSINBFhsqg_18build_script_build, symObjAddr: 0x35D0, symBinAddr: 0x100012B30, symSize: 0x50 }
  - { offset: 0x26C97, size: 0x8, addend: 0x0, symName: __RINvNtNtNtCsieiGu2EXtoJ_4core4iter6traits8iterator12iter_compareINtNtNtB6_8adapters3map3MapNtNtNtB8_3str4iter5CharsNCNvXs2_NtCsi3vXDrMaOlU_7unicase5asciiINtB1Z_5AsciiReENtNtB8_3cmp3Ord3cmp0EIB11_B1r_NCB1R_s_0ENCINvNvNtB2_8Iterator6cmp_by7compareccNCINvYB10_B3s_3cmpB32_E0E0NtB2J_8OrderingECs3WSINBFhsqg_18build_script_build, symObjAddr: 0x6C0, symBinAddr: 0x10000FD50, symSize: 0xE0 }
  - { offset: 0x26D26, size: 0x8, addend: 0x0, symName: __RINvNtNtNtCsieiGu2EXtoJ_4core4iter6traits8iterator12iter_compareINtNtNtB6_8adapters7flatten7FlatMapNtNtNtB8_3str4iter5CharsNtNtNtCsi3vXDrMaOlU_7unicase7unicode4fold4FoldNvNtB21_3map6lookupEB10_NCINvNvNtB2_8Iterator6cmp_by7compareccNCINvYB10_B3c_3cmpB10_E0E0NtNtB8_3cmp8OrderingECs3WSINBFhsqg_18build_script_build, symObjAddr: 0x7A0, symBinAddr: 0x10000FE30, symSize: 0xD0 }
  - { offset: 0x26DBB, size: 0x8, addend: 0x0, symName: __RINvYNtNtNtCsi3vXDrMaOlU_7unicase7unicode4fold4FoldNtNtNtNtCsieiGu2EXtoJ_4core4iter6traits8iterator8Iterator8try_folduQNCINvNvBN_12try_for_each4callcINtNtNtBV_3ops12control_flow11ControlFlowIB2o_NtNtBV_3cmp8OrderingB37_EENCINvNvBP_12iter_compare7compareINtNtNtBT_8adapters7flatten7FlatMapNtNtNtBV_3str4iter5CharsB3_NvNtB7_3map6lookupEcB37_NCINvNvBN_6cmp_by7compareccNCINvYB43_BN_3cmpB43_E0E0E0E0B2n_ECs3WSINBFhsqg_18build_script_build, symObjAddr: 0x870, symBinAddr: 0x10000FF00, symSize: 0x130 }
  - { offset: 0x26E77, size: 0x8, addend: 0x0, symName: __RNCINvNvNtNtNtNtCsieiGu2EXtoJ_4core4iter6traits8iterator8Iterator12try_for_each4callcINtNtNtBe_3ops12control_flow11ControlFlowIB1m_NtNtBe_3cmp8OrderingB25_EENCINvNvB8_12iter_compare7compareINtNtNtBc_8adapters3map3MapNtNtNtBe_3str4iter5CharsNCNvXs2_NtCsi3vXDrMaOlU_7unicase5asciiINtB40_5AsciiReENtB27_3Ord3cmps_0EcB25_NCINvNvB6_6cmp_by7compareccNCINvYIB32_B3s_NCB3S_0EB6_3cmpB31_E0E0E0E0Cs3WSINBFhsqg_18build_script_build, symObjAddr: 0xB90, symBinAddr: 0x100010220, symSize: 0x20 }
  - { offset: 0x26EDC, size: 0x8, addend: 0x0, symName: __RNCINvNvNtNtNtNtCsieiGu2EXtoJ_4core4iter6traits8iterator8Iterator12try_for_each4callcINtNtNtBe_3ops12control_flow11ControlFlowIB1m_NtNtBe_3cmp8OrderingB25_EENCINvNvB8_12iter_compare7compareINtNtNtBc_8adapters7flatten7FlatMapNtNtNtBe_3str4iter5CharsNtNtNtCsi3vXDrMaOlU_7unicase7unicode4fold4FoldNvNtB42_3map6lookupEcB25_NCINvNvB6_6cmp_by7compareccNCINvYB31_B6_3cmpB31_E0E0E0E0Cs3WSINBFhsqg_18build_script_build, symObjAddr: 0xBB0, symBinAddr: 0x100010240, symSize: 0x20 }
  - { offset: 0x26F60, size: 0x8, addend: 0x0, symName: __RNCINvNvNtNtNtNtCsieiGu2EXtoJ_4core4iter6traits8iterator8Iterator6cmp_by7compareccNCINvYINtNtNtBc_8adapters3map3MapNtNtNtBe_3str4iter5CharsNCNvXs2_NtCsi3vXDrMaOlU_7unicase5asciiINtB2n_5AsciiReENtNtBe_3cmp3Ord3cmp0EB6_3cmpIB1p_B1P_NCB2f_s_0EE0E0Cs3WSINBFhsqg_18build_script_build, symObjAddr: 0xBD0, symBinAddr: 0x100010260, symSize: 0x40 }
  - { offset: 0x26FE7, size: 0x8, addend: 0x0, symName: __RNCINvNvNtNtNtNtCsieiGu2EXtoJ_4core4iter6traits8iterator8Iterator6cmp_by7compareccNCINvYINtNtNtBc_8adapters7flatten7FlatMapNtNtNtBe_3str4iter5CharsNtNtNtCsi3vXDrMaOlU_7unicase7unicode4fold4FoldNvNtB2p_3map6lookupEB6_3cmpB1o_E0E0Cs3WSINBFhsqg_18build_script_build, symObjAddr: 0xC10, symBinAddr: 0x1000102A0, symSize: 0x40 }
  - { offset: 0x2709B, size: 0x8, addend: 0x0, symName: __RNCINvYINtNtNtNtCsieiGu2EXtoJ_4core4iter8adapters3map3MapNtNtNtBe_3str4iter5CharsNCNvXs2_NtCsi3vXDrMaOlU_7unicase5asciiINtB1r_5AsciiReENtNtBe_3cmp3Ord3cmp0ENtNtNtBc_6traits8iterator8Iterator3cmpIB6_BT_NCB1j_s_0EE0Cs3WSINBFhsqg_18build_script_build, symObjAddr: 0xC50, symBinAddr: 0x1000102E0, symSize: 0x50 }
  - { offset: 0x270F5, size: 0x8, addend: 0x0, symName: __RNCINvYINtNtNtNtCsieiGu2EXtoJ_4core4iter8adapters7flatten7FlatMapNtNtNtBe_3str4iter5CharsNtNtNtCsi3vXDrMaOlU_7unicase7unicode4fold4FoldNvNtB1t_3map6lookupENtNtNtBc_6traits8iterator8Iterator3cmpB5_E0Cs3WSINBFhsqg_18build_script_build, symObjAddr: 0xCA0, symBinAddr: 0x100010330, symSize: 0x50 }
  - { offset: 0x27169, size: 0x8, addend: 0x0, symName: __RNCINvNvNtNtNtCsieiGu2EXtoJ_4core4iter6traits8iterator12iter_compare7compareINtNtNtBa_8adapters3map3MapNtNtNtBc_3str4iter5CharsNCNvXs2_NtCsi3vXDrMaOlU_7unicase5asciiINtB2b_5AsciiReENtNtBc_3cmp3Ord3cmps_0EcNtB2V_8OrderingNCINvNvNtB6_8Iterator6cmp_by7compareccNCINvYIB1d_B1D_NCB23_0EB3D_3cmpB1c_E0E0E0Cs3WSINBFhsqg_18build_script_build, symObjAddr: 0x9D0, symBinAddr: 0x100010060, symSize: 0xE0 }
  - { offset: 0x27247, size: 0x8, addend: 0x0, symName: __RNCINvNvNtNtNtCsieiGu2EXtoJ_4core4iter6traits8iterator12iter_compare7compareINtNtNtBa_8adapters7flatten7FlatMapNtNtNtBc_3str4iter5CharsNtNtNtCsi3vXDrMaOlU_7unicase7unicode4fold4FoldNvNtB2d_3map6lookupEcNtNtBc_3cmp8OrderingNCINvNvNtB6_8Iterator6cmp_by7compareccNCINvYB1c_B3F_3cmpB1c_E0E0E0Cs3WSINBFhsqg_18build_script_build, symObjAddr: 0xAB0, symBinAddr: 0x100010140, symSize: 0xE0 }
  - { offset: 0x2736E, size: 0x8, addend: 0x0, symName: __RNvXNtNtNtCsieiGu2EXtoJ_4core4iter6traits7collectNtNtNtCsi3vXDrMaOlU_7unicase7unicode4fold4FoldNtB2_12IntoIterator9into_iterCs3WSINBFhsqg_18build_script_build, symObjAddr: 0x3360, symBinAddr: 0x1000128C0, symSize: 0x20 }
  - { offset: 0x273B2, size: 0x8, addend: 0x0, symName: __RNvXsF_NtNtCsieiGu2EXtoJ_4core4iter5rangejNtB5_4Step17forward_uncheckedCs3WSINBFhsqg_18build_script_build, symObjAddr: 0x3660, symBinAddr: 0x100012BC0, symSize: 0x40 }
  - { offset: 0x2781B, size: 0x8, addend: 0x0, symName: __RNvXs1_NtNtNtCsieiGu2EXtoJ_4core3ops8function5implsQNCINvNvNtNtNtNtBb_4iter6traits8iterator8Iterator12try_for_each4callcINtNtB9_12control_flow11ControlFlowIB1V_NtNtBb_3cmp8OrderingB2y_EENCINvNvBX_12iter_compare7compareINtNtNtB11_8adapters7flatten7FlatMapNtNtNtBb_3str4iter5CharsNtNtNtCsi3vXDrMaOlU_7unicase7unicode4fold4FoldNvNtB4w_3map6lookupEcB2y_NCINvNvBV_6cmp_by7compareccNCINvYB3u_BV_3cmpB3u_E0E0E0E0INtB7_5FnMutTucEE8call_mutCs3WSINBFhsqg_18build_script_build, symObjAddr: 0x34E0, symBinAddr: 0x100012A40, symSize: 0x20 }
  - { offset: 0x27917, size: 0x8, addend: 0x0, symName: __RNvNvNtCsieiGu2EXtoJ_4core4hint21unreachable_unchecked18precondition_checkCs3WSINBFhsqg_18build_script_build, symObjAddr: 0x3120, symBinAddr: 0x100012680, symSize: 0x80 }
  - { offset: 0x279E9, size: 0x8, addend: 0x0, symName: __RNvNtNtCsieiGu2EXtoJ_4core5slice6memchr6memchrCs3WSINBFhsqg_18build_script_build, symObjAddr: 0x27C0, symBinAddr: 0x100011D20, symSize: 0xE0 }
  - { offset: 0x27C38, size: 0x8, addend: 0x0, symName: __RNvNvXs5_NtNtCsieiGu2EXtoJ_4core3str6traitsINtNtNtBb_3ops5range5RangejEINtNtNtBb_5slice5index10SliceIndexeE13get_unchecked18precondition_checkCs3WSINBFhsqg_18build_script_build, symObjAddr: 0x31A0, symBinAddr: 0x100012700, symSize: 0xC0 }
  - { offset: 0x27CB5, size: 0x8, addend: 0x0, symName: __RNvXs2_NtNtCsieiGu2EXtoJ_4core3str6traitseINtNtNtB9_3ops5index5IndexINtNtBJ_5range7RangeTojEE5indexCs3WSINBFhsqg_18build_script_build, symObjAddr: 0x3500, symBinAddr: 0x100012A60, symSize: 0x30 }
  - { offset: 0x27CF8, size: 0x8, addend: 0x0, symName: __RNvXs2_NtNtCsieiGu2EXtoJ_4core3str6traitseINtNtNtB9_3ops5index5IndexINtNtBJ_5range9RangeFromjEE5indexCs3WSINBFhsqg_18build_script_build, symObjAddr: 0x3530, symBinAddr: 0x100012A90, symSize: 0x30 }
  - { offset: 0x27E98, size: 0x8, addend: 0x0, symName: __RINvMNtNtCsieiGu2EXtoJ_4core3fmt2rtNtB3_8Argument11new_displayNtB5_9ArgumentsECs3WSINBFhsqg_18build_script_build, symObjAddr: 0x0, symBinAddr: 0x10000F690, symSize: 0x30 }
  - { offset: 0x27EF7, size: 0x8, addend: 0x0, symName: __RINvMNtNtCsieiGu2EXtoJ_4core3fmt2rtNtB3_8Argument11new_displayNtNtCsHUR1vrdMJt_3std4path7DisplayECs3WSINBFhsqg_18build_script_build, symObjAddr: 0x30, symBinAddr: 0x10000F6C0, symSize: 0x30 }
  - { offset: 0x286A8, size: 0x8, addend: 0x0, symName: __RNCNvMs6_NtNtNtNtCslJiobkLta79_5alloc11collections5btree3map5entryINtB7_11VacantEntryINtCsi3vXDrMaOlU_7unicase7UniCaseReEINtB9_8BTreeMapB1l_INtNtBf_3vec3VecB1S_EEE12insert_entry0Cs3WSINBFhsqg_18build_script_build, symObjAddr: 0xCF0, symBinAddr: 0x100010380, symSize: 0x1A0 }
  - { offset: 0x28807, size: 0x8, addend: 0x0, symName: __RNCNvMs6_NtNtNtNtCslJiobkLta79_5alloc11collections5btree3map5entryINtB7_11VacantEntryINtCsi3vXDrMaOlU_7unicase7UniCaseReEINtNtBf_3vec3VecB1S_EE12insert_entry0Cs3WSINBFhsqg_18build_script_build, symObjAddr: 0xE90, symBinAddr: 0x100010520, symSize: 0x1A0 }
  - { offset: 0x28BBA, size: 0x8, addend: 0x0, symName: __RNvXNtNtNtCslJiobkLta79_5alloc11collections5btree3mapINtB2_8BTreeMapINtCsi3vXDrMaOlU_7unicase7UniCaseReEIBQ_B14_INtNtB8_3vec3VecB1B_EEENtNtNtCsieiGu2EXtoJ_4core3ops4drop4Drop4dropCs3WSINBFhsqg_18build_script_build, symObjAddr: 0x3380, symBinAddr: 0x1000128E0, symSize: 0x40 }
  - { offset: 0x28C38, size: 0x8, addend: 0x0, symName: __RNvXNtNtNtCslJiobkLta79_5alloc11collections5btree3mapINtB2_8BTreeMapINtCsi3vXDrMaOlU_7unicase7UniCaseReEINtNtB8_3vec3VecB1B_EENtNtNtCsieiGu2EXtoJ_4core3ops4drop4Drop4dropCs3WSINBFhsqg_18build_script_build, symObjAddr: 0x33C0, symBinAddr: 0x100012920, symSize: 0x40 }
  - { offset: 0x28CC6, size: 0x8, addend: 0x0, symName: __RNvXNvXsw_NtNtNtCslJiobkLta79_5alloc11collections5btree3mapINtB8_8IntoIterpppENtNtNtCsieiGu2EXtoJ_4core3ops4drop4Drop4dropINtB2_9DropGuardINtCsi3vXDrMaOlU_7unicase7UniCaseReEINtB8_8BTreeMapB2c_INtNtBe_3vec3VecB2J_EENtNtBe_5alloc6GlobalEB1e_4dropCs3WSINBFhsqg_18build_script_build, symObjAddr: 0x3400, symBinAddr: 0x100012960, symSize: 0x70 }
  - { offset: 0x28D29, size: 0x8, addend: 0x0, symName: __RNvXNvXsw_NtNtNtCslJiobkLta79_5alloc11collections5btree3mapINtB8_8IntoIterpppENtNtNtCsieiGu2EXtoJ_4core3ops4drop4Drop4dropINtB2_9DropGuardINtCsi3vXDrMaOlU_7unicase7UniCaseReEINtNtBe_3vec3VecB2J_ENtNtBe_5alloc6GlobalEB1e_4dropCs3WSINBFhsqg_18build_script_build, symObjAddr: 0x3470, symBinAddr: 0x1000129D0, symSize: 0x70 }
  - { offset: 0x28DEE, size: 0x8, addend: 0x0, symName: __RNvXsw_NtNtNtCslJiobkLta79_5alloc11collections5btree3mapINtB5_8IntoIterINtCsi3vXDrMaOlU_7unicase7UniCaseReEINtB5_8BTreeMapB17_INtNtBb_3vec3VecB1E_EEENtNtNtCsieiGu2EXtoJ_4core3ops4drop4Drop4dropCs3WSINBFhsqg_18build_script_build, symObjAddr: 0x3BE0, symBinAddr: 0x100013140, symSize: 0xA0 }
  - { offset: 0x28E5F, size: 0x8, addend: 0x0, symName: __RNvXsw_NtNtNtCslJiobkLta79_5alloc11collections5btree3mapINtB5_8IntoIterINtCsi3vXDrMaOlU_7unicase7UniCaseReEINtNtBb_3vec3VecB1E_EENtNtNtCsieiGu2EXtoJ_4core3ops4drop4Drop4dropCs3WSINBFhsqg_18build_script_build, symObjAddr: 0x3C80, symBinAddr: 0x1000131E0, symSize: 0xA0 }
  - { offset: 0x28ED6, size: 0x8, addend: 0x0, symName: __RNvXsv_NtNtNtCslJiobkLta79_5alloc11collections5btree3mapINtB5_8BTreeMapINtCsi3vXDrMaOlU_7unicase7UniCaseReEIBT_B17_INtNtBb_3vec3VecB1E_EEENtNtNtNtCsieiGu2EXtoJ_4core4iter6traits7collect12IntoIterator9into_iterCs3WSINBFhsqg_18build_script_build, symObjAddr: 0x36A0, symBinAddr: 0x100012C00, symSize: 0x2A0 }
  - { offset: 0x2904C, size: 0x8, addend: 0x0, symName: __RNvXsv_NtNtNtCslJiobkLta79_5alloc11collections5btree3mapINtB5_8BTreeMapINtCsi3vXDrMaOlU_7unicase7UniCaseReEINtNtBb_3vec3VecB1E_EENtNtNtNtCsieiGu2EXtoJ_4core4iter6traits7collect12IntoIterator9into_iterCs3WSINBFhsqg_18build_script_build, symObjAddr: 0x3940, symBinAddr: 0x100012EA0, symSize: 0x2A0 }
  - { offset: 0x2924E, size: 0x8, addend: 0x0, symName: __RNvXsy_NtNtNtCslJiobkLta79_5alloc11collections5btree3mapINtB5_8IntoIterINtCsi3vXDrMaOlU_7unicase7UniCaseReEINtB5_8BTreeMapB17_INtNtBb_3vec3VecB1E_EEENtNtNtNtCsieiGu2EXtoJ_4core4iter6traits8iterator8Iterator4nextCs3WSINBFhsqg_18build_script_build, symObjAddr: 0x3D20, symBinAddr: 0x100013280, symSize: 0x90 }
  - { offset: 0x292F8, size: 0x8, addend: 0x0, symName: __RNvXsy_NtNtNtCslJiobkLta79_5alloc11collections5btree3mapINtB5_8IntoIterINtCsi3vXDrMaOlU_7unicase7UniCaseReEINtNtBb_3vec3VecB1E_EENtNtNtNtCsieiGu2EXtoJ_4core4iter6traits8iterator8Iterator4nextCs3WSINBFhsqg_18build_script_build, symObjAddr: 0x3DB0, symBinAddr: 0x100013310, symSize: 0x90 }
  - { offset: 0x2A452, size: 0x8, addend: 0x0, symName: __RINvMNtNtCsieiGu2EXtoJ_4core3fmt2rtNtB3_8Argument11new_displayNtNtCslJiobkLta79_5alloc6string6StringECs3WSINBFhsqg_18build_script_build, symObjAddr: 0x60, symBinAddr: 0x10000F6F0, symSize: 0x30 }
  - { offset: 0x2A48A, size: 0x8, addend: 0x0, symName: __RINvMNtNtCsieiGu2EXtoJ_4core3fmt2rtNtB3_8Argument11new_displayReECs3WSINBFhsqg_18build_script_build, symObjAddr: 0x90, symBinAddr: 0x10000F720, symSize: 0x30 }
  - { offset: 0x2A4C2, size: 0x8, addend: 0x0, symName: __RINvMNtNtCsieiGu2EXtoJ_4core3fmt2rtNtB3_8Argument11new_displayjECs3WSINBFhsqg_18build_script_build, symObjAddr: 0xC0, symBinAddr: 0x10000F750, symSize: 0x30 }
  - { offset: 0x2A5C9, size: 0x8, addend: 0x0, symName: __RNvXNtNtCsi3vXDrMaOlU_7unicase7unicode4foldNtB2_4FoldNtNtNtNtCsieiGu2EXtoJ_4core4iter6traits8iterator8Iterator4nextCs3WSINBFhsqg_18build_script_build, symObjAddr: 0x3260, symBinAddr: 0x1000127C0, symSize: 0x100 }
  - { offset: 0x2A74C, size: 0x8, addend: 0x0, symName: __RNCNvXs2_NtCsi3vXDrMaOlU_7unicase5asciiINtB9_5AsciiReENtNtCsieiGu2EXtoJ_4core3cmp3Ord3cmp0Cs3WSINBFhsqg_18build_script_build, symObjAddr: 0x1030, symBinAddr: 0x1000106C0, symSize: 0x30 }
  - { offset: 0x2A78B, size: 0x8, addend: 0x0, symName: __RNCNvXs2_NtCsi3vXDrMaOlU_7unicase5asciiINtB9_5AsciiReENtNtCsieiGu2EXtoJ_4core3cmp3Ord3cmps_0Cs3WSINBFhsqg_18build_script_build, symObjAddr: 0x1060, symBinAddr: 0x1000106F0, symSize: 0x30 }
  - { offset: 0x2A7E9, size: 0x8, addend: 0x0, symName: __RINvMNtNtCsieiGu2EXtoJ_4core3fmt2rtNtB3_8Argument9new_debugINtCsi3vXDrMaOlU_7unicase7UniCaseReEECs3WSINBFhsqg_18build_script_build, symObjAddr: 0xF0, symBinAddr: 0x10000F780, symSize: 0x30 }
  - { offset: 0x2A821, size: 0x8, addend: 0x0, symName: __RINvMNtNtCsieiGu2EXtoJ_4core3fmt2rtNtB3_8Argument9new_debugINtNtCslJiobkLta79_5alloc3vec3VecReEECs3WSINBFhsqg_18build_script_build, symObjAddr: 0x120, symBinAddr: 0x10000F7B0, symSize: 0x30 }
  - { offset: 0x2A961, size: 0x8, addend: 0x0, symName: __RINvMs2_NtCsHUR1vrdMJt_3std2fsNtB6_4File6createRNtNtB8_4path7PathBufECs3WSINBFhsqg_18build_script_build, symObjAddr: 0x150, symBinAddr: 0x10000F7E0, symSize: 0xC0 }
  - { offset: 0x2AC03, size: 0x8, addend: 0x0, symName: __RINvMs4_NtNtNtNtCslJiobkLta79_5alloc11collections5btree3map5entryINtB6_5EntryINtCsi3vXDrMaOlU_7unicase7UniCaseReEINtB8_8BTreeMapB1d_INtNtBe_3vec3VecB1K_EEE14or_insert_withNvMsg_B8_B1N_3newECs3WSINBFhsqg_18build_script_build, symObjAddr: 0x210, symBinAddr: 0x10000F8A0, symSize: 0x200 }
  - { offset: 0x2AD1E, size: 0x8, addend: 0x0, symName: __RINvMs4_NtNtNtNtCslJiobkLta79_5alloc11collections5btree3map5entryINtB6_5EntryINtCsi3vXDrMaOlU_7unicase7UniCaseReEINtNtBe_3vec3VecB1K_EE14or_insert_withNvMB1Q_B1N_3newECs3WSINBFhsqg_18build_script_build, symObjAddr: 0x410, symBinAddr: 0x10000FAA0, symSize: 0x200 }
  - { offset: 0x2ADFA, size: 0x8, addend: 0x0, symName: __RINvMsg_NtCsHUR1vrdMJt_3std2fsNtB6_11OpenOptions4openRNtNtB8_4path4PathECs3WSINBFhsqg_18build_script_build, symObjAddr: 0x610, symBinAddr: 0x10000FCA0, symSize: 0x70 }
  - { offset: 0x2B1DC, size: 0x8, addend: 0x0, symName: __RNvMNtNtNtCsHUR1vrdMJt_3std2io8buffered9bufwriterINtB2_9BufWriterNtNtB8_2fs4FileE13with_capacityCs3WSINBFhsqg_18build_script_build, symObjAddr: 0x1090, symBinAddr: 0x100010720, symSize: 0xC0 }
  - { offset: 0x2B26E, size: 0x8, addend: 0x0, symName: __RNvMNtNtNtCsHUR1vrdMJt_3std2io8buffered9bufwriterINtB2_9BufWriterNtNtB8_2fs4FileE3newCs3WSINBFhsqg_18build_script_build, symObjAddr: 0x1150, symBinAddr: 0x1000107E0, symSize: 0x30 }
  - { offset: 0x2B4C1, size: 0x8, addend: 0x0, symName: __RNvMs6_NtNtNtNtCslJiobkLta79_5alloc11collections5btree3map5entryINtB5_11VacantEntryINtCsi3vXDrMaOlU_7unicase7UniCaseReEINtB7_8BTreeMapB1j_INtNtBd_3vec3VecB1Q_EEE12insert_entryCs3WSINBFhsqg_18build_script_build, symObjAddr: 0x1180, symBinAddr: 0x100010810, symSize: 0x3C0 }
  - { offset: 0x2B976, size: 0x8, addend: 0x0, symName: __RNvMs6_NtNtNtNtCslJiobkLta79_5alloc11collections5btree3map5entryINtB5_11VacantEntryINtCsi3vXDrMaOlU_7unicase7UniCaseReEINtNtBd_3vec3VecB1Q_EE12insert_entryCs3WSINBFhsqg_18build_script_build, symObjAddr: 0x1540, symBinAddr: 0x100010BD0, symSize: 0x3C0 }
  - { offset: 0x2BC21, size: 0x8, addend: 0x0, symName: __RNvMs7_NtNtNtNtCslJiobkLta79_5alloc11collections5btree3map5entryINtB5_13OccupiedEntryINtCsi3vXDrMaOlU_7unicase7UniCaseReEINtB7_8BTreeMapB1l_INtNtBd_3vec3VecB1S_EEE8into_mutCs3WSINBFhsqg_18build_script_build, symObjAddr: 0x1900, symBinAddr: 0x100010F90, symSize: 0x50 }
  - { offset: 0x2BC60, size: 0x8, addend: 0x0, symName: __RNvMs7_NtNtNtNtCslJiobkLta79_5alloc11collections5btree3map5entryINtB5_13OccupiedEntryINtCsi3vXDrMaOlU_7unicase7UniCaseReEINtNtBd_3vec3VecB1S_EE8into_mutCs3WSINBFhsqg_18build_script_build, symObjAddr: 0x1950, symBinAddr: 0x100010FE0, symSize: 0x50 }
  - { offset: 0x2BDCF, size: 0x8, addend: 0x0, symName: __RNvMs_NtNtNtCsHUR1vrdMJt_3std2io8buffered9bufwriterINtB4_9BufWriterNtNtBa_2fs4FileE14write_all_coldCs3WSINBFhsqg_18build_script_build, symObjAddr: 0x19A0, symBinAddr: 0x10005E9E0, symSize: 0x130 }
  - { offset: 0x2C0F6, size: 0x8, addend: 0x0, symName: __RNvMs_NtNtNtCsHUR1vrdMJt_3std2io8buffered9bufwriterINtB4_9BufWriterNtNtBa_2fs4FileE25write_to_buffer_uncheckedCs3WSINBFhsqg_18build_script_build, symObjAddr: 0x1AD0, symBinAddr: 0x100011030, symSize: 0x110 }
  - { offset: 0x2C457, size: 0x8, addend: 0x0, symName: __RNvMs_NtNtNtCsHUR1vrdMJt_3std2io8buffered9bufwriterINtB4_9BufWriterNtNtBa_2fs4FileE9flush_bufCs3WSINBFhsqg_18build_script_build, symObjAddr: 0x1BE0, symBinAddr: 0x100011140, symSize: 0x380 }
  - { offset: 0x2C6A4, size: 0x8, addend: 0x0, symName: __RNvMsg_NtNtNtCslJiobkLta79_5alloc11collections5btree3mapINtB5_8BTreeMapINtCsi3vXDrMaOlU_7unicase7UniCaseReEIBT_B17_INtNtBb_3vec3VecB1E_EEE3newCs3WSINBFhsqg_18build_script_build, symObjAddr: 0x1F60, symBinAddr: 0x1000114C0, symSize: 0x30 }
  - { offset: 0x2C6CA, size: 0x8, addend: 0x0, symName: __RNvMsg_NtNtNtCslJiobkLta79_5alloc11collections5btree3mapINtB5_8BTreeMapINtCsi3vXDrMaOlU_7unicase7UniCaseReEINtNtBb_3vec3VecB1E_EE3newCs3WSINBFhsqg_18build_script_build, symObjAddr: 0x1F90, symBinAddr: 0x1000114F0, symSize: 0x30 }
  - { offset: 0x2C757, size: 0x8, addend: 0x0, symName: __RNvMsi_NtNtNtCslJiobkLta79_5alloc11collections5btree3mapINtB5_8BTreeMapINtCsi3vXDrMaOlU_7unicase7UniCaseReEIBT_B17_INtNtBb_3vec3VecB1E_EEE5entryCs3WSINBFhsqg_18build_script_build, symObjAddr: 0x1FC0, symBinAddr: 0x100011520, symSize: 0x370 }
  - { offset: 0x2C8BC, size: 0x8, addend: 0x0, symName: __RNvMsi_NtNtNtCslJiobkLta79_5alloc11collections5btree3mapINtB5_8BTreeMapINtCsi3vXDrMaOlU_7unicase7UniCaseReEINtNtBb_3vec3VecB1E_EE5entryCs3WSINBFhsqg_18build_script_build, symObjAddr: 0x2330, symBinAddr: 0x100011890, symSize: 0x370 }
  - { offset: 0x2CA03, size: 0x8, addend: 0x0, symName: __RNvMsx_NtNtNtCslJiobkLta79_5alloc11collections5btree3mapINtB5_8IntoIterINtCsi3vXDrMaOlU_7unicase7UniCaseReEINtB5_8BTreeMapB17_INtNtBb_3vec3VecB1E_EEE10dying_nextCs3WSINBFhsqg_18build_script_build, symObjAddr: 0x26A0, symBinAddr: 0x100011C00, symSize: 0x90 }
  - { offset: 0x2CA4E, size: 0x8, addend: 0x0, symName: __RNvMsx_NtNtNtCslJiobkLta79_5alloc11collections5btree3mapINtB5_8IntoIterINtCsi3vXDrMaOlU_7unicase7UniCaseReEINtNtBb_3vec3VecB1E_EE10dying_nextCs3WSINBFhsqg_18build_script_build, symObjAddr: 0x2730, symBinAddr: 0x100011C90, symSize: 0x90 }
  - { offset: 0x2CF58, size: 0x8, addend: 0x0, symName: __RINvMNtCsieiGu2EXtoJ_4core3stre4findcECs3WSINBFhsqg_18build_script_build, symObjAddr: 0x0, symBinAddr: 0x1000137F0, symSize: 0xD0 }
  - { offset: 0x2CFE8, size: 0x8, addend: 0x0, symName: __RNvXNvNtCsHUR1vrdMJt_3std2io17default_write_fmtINtB2_7AdapterINtNtNtB4_8buffered9bufwriter9BufWriterNtNtB6_2fs4FileEENtNtCsieiGu2EXtoJ_4core3fmt5Write9write_strCs3WSINBFhsqg_18build_script_build, symObjAddr: 0x2430, symBinAddr: 0x100015BF0, symSize: 0xA0 }
  - { offset: 0x2D044, size: 0x8, addend: 0x0, symName: __RNvXNvNtCsHUR1vrdMJt_3std2io17default_write_fmtINtB2_7AdapterNtNtNtNtB6_3sys5stdio4unix6StderrENtNtCsieiGu2EXtoJ_4core3fmt5Write9write_strCs3WSINBFhsqg_18build_script_build, symObjAddr: 0x24D0, symBinAddr: 0x100015C90, symSize: 0xA0 }
  - { offset: 0x2D455, size: 0x8, addend: 0x0, symName: __RINvNtCsHUR1vrdMJt_3std2io17default_write_fmtINtNtNtB2_8buffered9bufwriter9BufWriterNtNtB4_2fs4FileEECs3WSINBFhsqg_18build_script_build, symObjAddr: 0x3F0, symBinAddr: 0x100013BE0, symSize: 0x120 }
  - { offset: 0x2D505, size: 0x8, addend: 0x0, symName: __RINvNtCsHUR1vrdMJt_3std2io17default_write_fmtNtNtNtNtB4_3sys5stdio4unix6StderrECs3WSINBFhsqg_18build_script_build, symObjAddr: 0x510, symBinAddr: 0x100013D00, symSize: 0x120 }
  - { offset: 0x2D5BA, size: 0x8, addend: 0x0, symName: __RNvYNtNtNtNtCsHUR1vrdMJt_3std3sys5stdio4unix6StderrNtNtBa_2io5Write9write_allCs3WSINBFhsqg_18build_script_build, symObjAddr: 0x34E0, symBinAddr: 0x100016CA0, symSize: 0x2E0 }
  - { offset: 0x2D760, size: 0x8, addend: 0x0, symName: __RNvYNtNtNtNtCsHUR1vrdMJt_3std3sys5stdio4unix6StderrNtNtBa_2io5Write9write_fmtCs3WSINBFhsqg_18build_script_build, symObjAddr: 0x37C0, symBinAddr: 0x100016F80, symSize: 0x170 }
  - { offset: 0x2D8E2, size: 0x8, addend: 0x0, symName: __RINvNtNtCsHUR1vrdMJt_3std3sys9backtrace28___rust_begin_short_backtraceFEuuECs3WSINBFhsqg_18build_script_build, symObjAddr: 0x650, symBinAddr: 0x100013E20, symSize: 0x20 }
  - { offset: 0x2DA8F, size: 0x8, addend: 0x0, symName: __RNvXs1l_NtCsHUR1vrdMJt_3std4pathNtB6_4PathINtNtCsieiGu2EXtoJ_4core7convert5AsRefBu_E6as_refCs3WSINBFhsqg_18build_script_build, symObjAddr: 0x2720, symBinAddr: 0x100015EE0, symSize: 0x20 }
  - { offset: 0x2DAC3, size: 0x8, addend: 0x0, symName: __RNvXs1p_NtCsHUR1vrdMJt_3std4patheINtNtCsieiGu2EXtoJ_4core7convert5AsRefNtB6_4PathE6as_refCs3WSINBFhsqg_18build_script_build, symObjAddr: 0x2740, symBinAddr: 0x100015F00, symSize: 0x20 }
  - { offset: 0x2DB15, size: 0x8, addend: 0x0, symName: __RNvXsH_NtCsHUR1vrdMJt_3std4pathNtB5_7PathBufNtNtNtCsieiGu2EXtoJ_4core3ops5deref5Deref5derefCs3WSINBFhsqg_18build_script_build, symObjAddr: 0x2910, symBinAddr: 0x1000160D0, symSize: 0x30 }
  - { offset: 0x2DBA3, size: 0x8, addend: 0x0, symName: __RNvXs1r_NtCsHUR1vrdMJt_3std4pathNtB6_7PathBufINtNtCsieiGu2EXtoJ_4core7convert5AsRefNtB6_4PathE6as_refCs3WSINBFhsqg_18build_script_build, symObjAddr: 0x2760, symBinAddr: 0x100015F20, symSize: 0x30 }
  - { offset: 0x2DD1D, size: 0x8, addend: 0x0, symName: __RNvXs3_NtNtCsHUR1vrdMJt_3std3ffi6os_strNtB5_8OsStringINtNtNtCsieiGu2EXtoJ_4core3ops5index5IndexNtNtBU_5range9RangeFullE5indexCs3WSINBFhsqg_18build_script_build, symObjAddr: 0x28B0, symBinAddr: 0x100016070, symSize: 0x60 }
  - { offset: 0x2DE2C, size: 0x8, addend: 0x0, symName: __RNvXsW_NtNtCsHUR1vrdMJt_3std3ffi6os_streINtNtCsieiGu2EXtoJ_4core7convert5AsRefNtB5_5OsStrE6as_refCs3WSINBFhsqg_18build_script_build, symObjAddr: 0x2960, symBinAddr: 0x100016120, symSize: 0x20 }
  - { offset: 0x2DE67, size: 0x8, addend: 0x0, symName: __RNvXsZ_NtCsHUR1vrdMJt_3std7processuNtB5_11Termination6reportCs3WSINBFhsqg_18build_script_build, symObjAddr: 0x2980, symBinAddr: 0x100016140, symSize: 0x10 }
  - { offset: 0x2EB14, size: 0x8, addend: 0x0, symName: __RNvXsT_NtNtCsieiGu2EXtoJ_4core3cmp5implscNtB7_3Ord3cmpCs3WSINBFhsqg_18build_script_build, symObjAddr: 0x2940, symBinAddr: 0x100016100, symSize: 0x20 }
  - { offset: 0x2F7FF, size: 0x8, addend: 0x0, symName: __RINvMNtCsieiGu2EXtoJ_4core3stre4findcECs3WSINBFhsqg_18build_script_build, symObjAddr: 0x0, symBinAddr: 0x1000137F0, symSize: 0xD0 }
  - { offset: 0x2F88C, size: 0x8, addend: 0x0, symName: __RNvMNtCsieiGu2EXtoJ_4core3stre5charsCs3WSINBFhsqg_18build_script_build, symObjAddr: 0xC60, symBinAddr: 0x100014430, symSize: 0x20 }
  - { offset: 0x2F918, size: 0x8, addend: 0x0, symName: __RNvMNtCsieiGu2EXtoJ_4core3stre8is_asciiCs3WSINBFhsqg_18build_script_build, symObjAddr: 0xC80, symBinAddr: 0x100014450, symSize: 0x30 }
  - { offset: 0x2FA11, size: 0x8, addend: 0x0, symName: __RINvNtNtCsieiGu2EXtoJ_4core3str11validations15next_code_pointINtNtNtB6_5slice4iter4IterhEECs3WSINBFhsqg_18build_script_build, symObjAddr: 0x670, symBinAddr: 0x100013E40, symSize: 0x260 }
  - { offset: 0x2FCA7, size: 0x8, addend: 0x0, symName: __RNvXs2_NtNtCsieiGu2EXtoJ_4core3str7patterncNtB5_7Pattern13into_searcherCs3WSINBFhsqg_18build_script_build, symObjAddr: 0x2790, symBinAddr: 0x100015F50, symSize: 0x120 }
  - { offset: 0x2FE2F, size: 0x8, addend: 0x0, symName: __RNvXs_NtNtCsieiGu2EXtoJ_4core3str7patternNtB4_12CharSearcherNtB4_8Searcher10next_matchCs3WSINBFhsqg_18build_script_build, symObjAddr: 0x2990, symBinAddr: 0x100016150, symSize: 0x4A0 }
  - { offset: 0x308E7, size: 0x8, addend: 0x0, symName: __RNvXs19_NtCsieiGu2EXtoJ_4core3fmtRNtNtNtCsHUR1vrdMJt_3std3ffi6os_str8OsStringNtB6_5Debug3fmtCs3WSINBFhsqg_18build_script_build, symObjAddr: 0x2700, symBinAddr: 0x100015EC0, symSize: 0x20 }
  - { offset: 0x3093D, size: 0x8, addend: 0x0, symName: __RNvXs_NvNtNtCsieiGu2EXtoJ_4core3fmt5Write9write_fmtQINtNvNtCsHUR1vrdMJt_3std2io17default_write_fmt7AdapterINtNtNtBT_8buffered9bufwriter9BufWriterNtNtBV_2fs4FileEENtB4_12SpecWriteFmt14spec_write_fmtCs3WSINBFhsqg_18build_script_build, symObjAddr: 0x2F10, symBinAddr: 0x1000166D0, symSize: 0x170 }
  - { offset: 0x309F2, size: 0x8, addend: 0x0, symName: __RNvXs_NvNtNtCsieiGu2EXtoJ_4core3fmt5Write9write_fmtQINtNvNtCsHUR1vrdMJt_3std2io17default_write_fmt7AdapterNtNtNtNtBV_3sys5stdio4unix6StderrENtB4_12SpecWriteFmt14spec_write_fmtCs3WSINBFhsqg_18build_script_build, symObjAddr: 0x3080, symBinAddr: 0x100016840, symSize: 0x170 }
  - { offset: 0x30AA9, size: 0x8, addend: 0x0, symName: __RNvYINtNvNtCsHUR1vrdMJt_3std2io17default_write_fmt7AdapterINtNtNtB7_8buffered9bufwriter9BufWriterNtNtB9_2fs4FileEENtNtCsieiGu2EXtoJ_4core3fmt5Write10write_charCs3WSINBFhsqg_18build_script_build, symObjAddr: 0x33C0, symBinAddr: 0x100016B80, symSize: 0x70 }
  - { offset: 0x30B11, size: 0x8, addend: 0x0, symName: __RNvYINtNvNtCsHUR1vrdMJt_3std2io17default_write_fmt7AdapterINtNtNtB7_8buffered9bufwriter9BufWriterNtNtB9_2fs4FileEENtNtCsieiGu2EXtoJ_4core3fmt5Write9write_fmtCs3WSINBFhsqg_18build_script_build, symObjAddr: 0x3430, symBinAddr: 0x100016BF0, symSize: 0x20 }
  - { offset: 0x30B55, size: 0x8, addend: 0x0, symName: __RNvYINtNvNtCsHUR1vrdMJt_3std2io17default_write_fmt7AdapterNtNtNtNtB9_3sys5stdio4unix6StderrENtNtCsieiGu2EXtoJ_4core3fmt5Write10write_charCs3WSINBFhsqg_18build_script_build, symObjAddr: 0x3450, symBinAddr: 0x100016C10, symSize: 0x70 }
  - { offset: 0x30BBD, size: 0x8, addend: 0x0, symName: __RNvYINtNvNtCsHUR1vrdMJt_3std2io17default_write_fmt7AdapterNtNtNtNtB9_3sys5stdio4unix6StderrENtNtCsieiGu2EXtoJ_4core3fmt5Write9write_fmtCs3WSINBFhsqg_18build_script_build, symObjAddr: 0x34C0, symBinAddr: 0x100016C80, symSize: 0x20 }
  - { offset: 0x310F1, size: 0x8, addend: 0x0, symName: __RNvXNtCsieiGu2EXtoJ_4core7convertRNtNtCsHUR1vrdMJt_3std4path4PathINtB2_5AsRefBw_E6as_refCs3WSINBFhsqg_18build_script_build, symObjAddr: 0x23C0, symBinAddr: 0x100015B80, symSize: 0x30 }
  - { offset: 0x31131, size: 0x8, addend: 0x0, symName: __RNvXNtCsieiGu2EXtoJ_4core7convertRNtNtCsHUR1vrdMJt_3std4path7PathBufINtB2_5AsRefNtBy_4PathE6as_refCs3WSINBFhsqg_18build_script_build, symObjAddr: 0x23F0, symBinAddr: 0x100015BB0, symSize: 0x20 }
  - { offset: 0x3122D, size: 0x8, addend: 0x0, symName: __RINvXs0_NtNtNtCsieiGu2EXtoJ_4core4iter8adapters3mapINtB6_3MapNtNtNtBc_3str4iter5CharsNCNvXs2_NtCsi3vXDrMaOlU_7unicase5asciiINtB1v_5AsciiReENtNtBc_3cmp3Ord3cmp0ENtNtNtBa_6traits8iterator8Iterator8try_folduNCINvNvB2y_12try_for_each4callcINtNtNtBc_3ops12control_flow11ControlFlowIB3M_NtB2f_8OrderingB4v_EENCINvNvB2A_12iter_compare7compareIBO_BX_NCB1n_s_0EcB4v_NCINvNvB2y_6cmp_by7compareccNCINvYBN_B2y_3cmpB5n_E0E0E0E0B3L_ECs3WSINBFhsqg_18build_script_build, symObjAddr: 0x8D0, symBinAddr: 0x1000140A0, symSize: 0x30 }
  - { offset: 0x312AB, size: 0x8, addend: 0x0, symName: __RINvXs0_NtNtNtCsieiGu2EXtoJ_4core4iter8adapters3mapINtB6_3MapNtNtNtBc_3str4iter5CharsNvNtNtCsi3vXDrMaOlU_7unicase7unicode3map6lookupENtNtNtBa_6traits8iterator8Iterator8try_folduNCINvNvMsg_NtB8_7flattenINtB30_13FlattenCompatppE13iter_try_fold7flattenNtNtB1p_4fold4FolduINtNtNtBc_3ops12control_flow11ControlFlowIB4j_NtNtBc_3cmp8OrderingB52_EENCINvNvXsi_B30_B3d_B27_8try_fold7flattenB3Z_uB4i_NCINvNvB27_12try_for_each4callcB4i_NCINvNvB29_12iter_compare7compareINtB30_7FlatMapBX_B3Z_B1l_EcB52_NCINvNvB27_6cmp_by7compareccNCINvYB7l_B27_3cmpB7l_E0E0E0E0E0E0B4i_ECs3WSINBFhsqg_18build_script_build, symObjAddr: 0x900, symBinAddr: 0x1000140D0, symSize: 0x40 }
  - { offset: 0x3134E, size: 0x8, addend: 0x0, symName: __RNvXs0_NtNtNtCsieiGu2EXtoJ_4core4iter8adapters3mapINtB5_3MapNtNtNtBb_3str4iter5CharsNCNvXs2_NtCsi3vXDrMaOlU_7unicase5asciiINtB1u_5AsciiReENtNtBb_3cmp3Ord3cmps_0ENtNtNtB9_6traits8iterator8Iterator4nextCs3WSINBFhsqg_18build_script_build, symObjAddr: 0x2600, symBinAddr: 0x100015DC0, symSize: 0x70 }
  - { offset: 0x313FA, size: 0x8, addend: 0x0, symName: __RNvXs0_NtNtNtCsieiGu2EXtoJ_4core4iter8adapters3mapINtB5_3MapNtNtNtBb_3str4iter5CharsNvNtNtCsi3vXDrMaOlU_7unicase7unicode3map6lookupENtNtNtB9_6traits8iterator8Iterator4nextCs3WSINBFhsqg_18build_script_build, symObjAddr: 0x2670, symBinAddr: 0x100015E30, symSize: 0x90 }
  - { offset: 0x3155A, size: 0x8, addend: 0x0, symName: __RNCINvNtNtNtCsieiGu2EXtoJ_4core4iter8adapters3map12map_try_foldcNtNtNtCsi3vXDrMaOlU_7unicase7unicode4fold4FolduINtNtNtBa_3ops12control_flow11ControlFlowIB1M_NtNtBa_3cmp8OrderingB2v_EENvNtB14_3map6lookupNCINvNvMsg_NtB6_7flattenINtB3p_13FlattenCompatppE13iter_try_fold7flattenB10_uB1L_NCINvNvXsi_B3p_B3C_NtNtNtB8_6traits8iterator8Iterator8try_fold7flattenB10_uB1L_NCINvNvB4Q_12try_for_each4callcB1L_NCINvNvB4S_12iter_compare7compareINtB3p_7FlatMapNtNtNtBa_3str4iter5CharsB10_B2V_EcB2v_NCINvNvB4Q_6cmp_by7compareccNCINvYB6U_B4Q_3cmpB6U_E0E0E0E0E0E0E0Cs3WSINBFhsqg_18build_script_build, symObjAddr: 0xB70, symBinAddr: 0x100014340, symSize: 0x80 }
  - { offset: 0x315EC, size: 0x8, addend: 0x0, symName: __RNCINvNtNtNtCsieiGu2EXtoJ_4core4iter8adapters3map12map_try_foldccuINtNtNtBa_3ops12control_flow11ControlFlowIB13_NtNtBa_3cmp8OrderingB1M_EENCNvXs2_NtCsi3vXDrMaOlU_7unicase5asciiINtB2m_5AsciiReENtB1O_3Ord3cmp0NCINvNvNtNtNtB8_6traits8iterator8Iterator12try_for_each4callcB12_NCINvNvB3s_12iter_compare7compareINtB4_3MapNtNtNtBa_3str4iter5CharsNCB2e_s_0EcB1M_NCINvNvB3q_6cmp_by7compareccNCINvYIB4U_B53_B2c_EB3q_3cmpB4T_E0E0E0E0E0Cs3WSINBFhsqg_18build_script_build, symObjAddr: 0xBF0, symBinAddr: 0x1000143C0, symSize: 0x70 }
  - { offset: 0x317DE, size: 0x8, addend: 0x0, symName: __RNvXs_NtNtNtCsieiGu2EXtoJ_4core4iter8adapters9enumerateINtB4_9EnumerateINtNtNtBa_5slice4iter4IterINtCsi3vXDrMaOlU_7unicase7UniCaseReEEENtNtNtB8_6traits8iterator8Iterator4nextCs3WSINBFhsqg_18build_script_build, symObjAddr: 0x2E30, symBinAddr: 0x1000165F0, symSize: 0xE0 }
  - { offset: 0x31978, size: 0x8, addend: 0x0, symName: __RINvYINtNtNtNtCsieiGu2EXtoJ_4core4iter8adapters3map3MapNtNtNtBc_3str4iter5CharsNCNvXs2_NtCsi3vXDrMaOlU_7unicase5asciiINtB1p_5AsciiReENtNtBc_3cmp3Ord3cmp0ENtNtNtBa_6traits8iterator8Iterator12try_for_eachNCINvNvB2u_12iter_compare7compareIB4_BR_NCB1h_s_0EcNtB29_8OrderingNCINvNvB2s_6cmp_by7compareccNCINvYB3_B2s_3cmpB3L_E0E0E0INtNtNtBc_3ops12control_flow11ControlFlowIB5c_B43_B43_EEECs3WSINBFhsqg_18build_script_build, symObjAddr: 0x980, symBinAddr: 0x100014150, symSize: 0x20 }
  - { offset: 0x319D0, size: 0x8, addend: 0x0, symName: __RINvYINtNtNtNtCsieiGu2EXtoJ_4core4iter8adapters3map3MapNtNtNtBc_3str4iter5CharsNCNvXs2_NtCsi3vXDrMaOlU_7unicase5asciiINtB1p_5AsciiReENtNtBc_3cmp3Ord3cmp0ENtNtNtBa_6traits8iterator8Iterator3cmpIB4_BR_NCB1h_s_0EECs3WSINBFhsqg_18build_script_build, symObjAddr: 0x9A0, symBinAddr: 0x100014170, symSize: 0x30 }
  - { offset: 0x31A1F, size: 0x8, addend: 0x0, symName: __RINvYINtNtNtNtCsieiGu2EXtoJ_4core4iter8adapters3map3MapNtNtNtBc_3str4iter5CharsNCNvXs2_NtCsi3vXDrMaOlU_7unicase5asciiINtB1p_5AsciiReENtNtBc_3cmp3Ord3cmp0ENtNtNtBa_6traits8iterator8Iterator6cmp_byIB4_BR_NCB1h_s_0ENCINvYB3_B2s_3cmpB37_E0ECs3WSINBFhsqg_18build_script_build, symObjAddr: 0x9D0, symBinAddr: 0x1000141A0, symSize: 0xE0 }
  - { offset: 0x31B16, size: 0x8, addend: 0x0, symName: __RNvXNtNtNtCsieiGu2EXtoJ_4core4iter6traits7collectINtNtNtB6_8adapters3map3MapNtNtNtB8_3str4iter5CharsNCNvXs2_NtCsi3vXDrMaOlU_7unicase5asciiINtB1K_5AsciiReENtNtB8_3cmp3Ord3cmps_0ENtB2_12IntoIterator9into_iterCs3WSINBFhsqg_18build_script_build, symObjAddr: 0x2410, symBinAddr: 0x100015BD0, symSize: 0x20 }
  - { offset: 0x31CD9, size: 0x8, addend: 0x0, symName: __RNvNvNtNtCsieiGu2EXtoJ_4core5slice3raw14from_raw_parts18precondition_checkCs3WSINBFhsqg_18build_script_build, symObjAddr: 0x1C40, symBinAddr: 0x100015400, symSize: 0x260 }
  - { offset: 0x31EA7, size: 0x8, addend: 0x0, symName: __RNvNvNtNtCsieiGu2EXtoJ_4core5slice3raw18from_raw_parts_mut18precondition_checkCs3WSINBFhsqg_18build_script_build, symObjAddr: 0x1EA0, symBinAddr: 0x100015660, symSize: 0x260 }
  - { offset: 0x320E0, size: 0x8, addend: 0x0, symName: __RNvNvXs0_NtNtCsieiGu2EXtoJ_4core5slice5indexjINtB7_10SliceIndexSpE13get_unchecked18precondition_checkCs3WSINBFhsqg_18build_script_build, symObjAddr: 0x2100, symBinAddr: 0x1000158C0, symSize: 0xA0 }
  - { offset: 0x3214E, size: 0x8, addend: 0x0, symName: __RNvNvXs0_NtNtCsieiGu2EXtoJ_4core5slice5indexjINtB7_10SliceIndexSpE17get_unchecked_mut18precondition_checkCs3WSINBFhsqg_18build_script_build, symObjAddr: 0x21A0, symBinAddr: 0x100015960, symSize: 0xA0 }
  - { offset: 0x321F2, size: 0x8, addend: 0x0, symName: __RNvNvXs2_NtNtCsieiGu2EXtoJ_4core5slice5indexINtNtNtBb_3ops5range5RangejEINtB7_10SliceIndexSpE13get_unchecked18precondition_checkCs3WSINBFhsqg_18build_script_build, symObjAddr: 0x2240, symBinAddr: 0x100015A00, symSize: 0xC0 }
  - { offset: 0x3226E, size: 0x8, addend: 0x0, symName: __RNvNvXs2_NtNtCsieiGu2EXtoJ_4core5slice5indexINtNtNtBb_3ops5range5RangejEINtB7_10SliceIndexSpE17get_unchecked_mut18precondition_checkCs3WSINBFhsqg_18build_script_build, symObjAddr: 0x2300, symBinAddr: 0x100015AC0, symSize: 0xC0 }
  - { offset: 0x32508, size: 0x8, addend: 0x0, symName: __RNvNvNtCsieiGu2EXtoJ_4core9ub_checks23maybe_is_nonoverlapping7runtimeCs3WSINBFhsqg_18build_script_build, symObjAddr: 0x1B80, symBinAddr: 0x100015340, symSize: 0xC0 }
  - { offset: 0x32B4A, size: 0x8, addend: 0x0, symName: __RINvXsh_NtCslJiobkLta79_5alloc3vecINtB6_3VecReEINtNtNtNtCsieiGu2EXtoJ_4core4iter6traits7collect6ExtendBG_E6extendBw_ECs3WSINBFhsqg_18build_script_build, symObjAddr: 0x940, symBinAddr: 0x100014110, symSize: 0x40 }
  - { offset: 0x32BAA, size: 0x8, addend: 0x0, symName: __RNvNvMs_NtCslJiobkLta79_5alloc3vecINtB6_3VecppE7set_len18precondition_checkCs3WSINBFhsqg_18build_script_build, symObjAddr: 0x1AE0, symBinAddr: 0x1000152A0, symSize: 0xA0 }
  - { offset: 0x32CAA, size: 0x8, addend: 0x0, symName: __RNvXs0_NtNtCslJiobkLta79_5alloc3vec11spec_extendINtB7_3VecReEINtB5_10SpecExtendBU_INtNtB7_9into_iter8IntoIterBU_EE11spec_extendCs3WSINBFhsqg_18build_script_build, symObjAddr: 0x2570, symBinAddr: 0x100015D30, symSize: 0x90 }
  - { offset: 0x32D17, size: 0x8, addend: 0x0, symName: __RNvXse_NtCslJiobkLta79_5alloc3vecINtB5_3VecReENtNtNtNtCsieiGu2EXtoJ_4core4iter6traits7collect12IntoIterator9into_iterCs3WSINBFhsqg_18build_script_build, symObjAddr: 0x31F0, symBinAddr: 0x1000169B0, symSize: 0x140 }
  - { offset: 0x32FAD, size: 0x8, addend: 0x0, symName: __RNvXsn_NtCslJiobkLta79_5alloc3vecINtB5_3VecReENtNtNtCsieiGu2EXtoJ_4core3ops4drop4Drop4dropCs3WSINBFhsqg_18build_script_build, symObjAddr: 0x3330, symBinAddr: 0x100016AF0, symSize: 0x20 }
  - { offset: 0x33099, size: 0x8, addend: 0x0, symName: __RNvXsp_NtCslJiobkLta79_5alloc3vecINtB5_3VecReENtNtCsieiGu2EXtoJ_4core3fmt5Debug3fmtCs3WSINBFhsqg_18build_script_build, symObjAddr: 0x3350, symBinAddr: 0x100016B10, symSize: 0x70 }
  - { offset: 0x33797, size: 0x8, addend: 0x0, symName: __RNCINvMsm_NtNtNtCslJiobkLta79_5alloc11collections5btree8navigateINtNtBa_4node6HandleINtB13_7NodeRefNtNtB13_6marker5DyingINtCsi3vXDrMaOlU_7unicase7UniCaseReEINtNtBa_3map8BTreeMapB1U_INtNtBe_3vec3VecB2r_EENtB1B_4LeafENtB1B_4EdgeE27deallocating_next_uncheckedNtNtBe_5alloc6GlobalE0Cs3WSINBFhsqg_18build_script_build, symObjAddr: 0xAB0, symBinAddr: 0x100014280, symSize: 0x60 }
  - { offset: 0x33807, size: 0x8, addend: 0x0, symName: __RNCINvMsm_NtNtNtCslJiobkLta79_5alloc11collections5btree8navigateINtNtBa_4node6HandleINtB13_7NodeRefNtNtB13_6marker5DyingINtCsi3vXDrMaOlU_7unicase7UniCaseReEINtNtBe_3vec3VecB2r_ENtB1B_4LeafENtB1B_4EdgeE27deallocating_next_uncheckedNtNtBe_5alloc6GlobalE0Cs3WSINBFhsqg_18build_script_build, symObjAddr: 0xB10, symBinAddr: 0x1000142E0, symSize: 0x60 }
  - { offset: 0x342F1, size: 0x8, addend: 0x0, symName: __RNvNtCs3WSINBFhsqg_18build_script_build10mime_types10MIME_TYPES, symObjAddr: 0x12E78, symBinAddr: 0x100089870, symSize: 0x0 }
  - { offset: 0x3440F, size: 0x8, addend: 0x0, symName: __RINvMs16_NtCsHUR1vrdMJt_3std4pathNtB7_4Path3newNtNtCslJiobkLta79_5alloc6string6StringECs3WSINBFhsqg_18build_script_build, symObjAddr: 0xD0, symBinAddr: 0x1000138C0, symSize: 0x20 }
  - { offset: 0x3443B, size: 0x8, addend: 0x0, symName: __RINvMs16_NtCsHUR1vrdMJt_3std4pathNtB7_4Path4joinReECs3WSINBFhsqg_18build_script_build, symObjAddr: 0xF0, symBinAddr: 0x1000138E0, symSize: 0x80 }
  - { offset: 0x3473F, size: 0x8, addend: 0x0, symName: __RINvMsb_NtNtNtCslJiobkLta79_5alloc11collections5btree8navigateINtB6_13LazyLeafRangeNtNtNtB8_4node6marker5DyingINtCsi3vXDrMaOlU_7unicase7UniCaseReEINtNtB8_3map8BTreeMapB1K_INtNtBc_3vec3VecB2h_EEE16deallocating_endNtNtBc_5alloc6GlobalECs3WSINBFhsqg_18build_script_build, symObjAddr: 0x170, symBinAddr: 0x100013960, symSize: 0x90 }
  - { offset: 0x34843, size: 0x8, addend: 0x0, symName: __RINvMsb_NtNtNtCslJiobkLta79_5alloc11collections5btree8navigateINtB6_13LazyLeafRangeNtNtNtB8_4node6marker5DyingINtCsi3vXDrMaOlU_7unicase7UniCaseReEINtNtB8_3map8BTreeMapB1K_INtNtBc_3vec3VecB2h_EEE27deallocating_next_uncheckedNtNtBc_5alloc6GlobalECs3WSINBFhsqg_18build_script_build, symObjAddr: 0x200, symBinAddr: 0x1000139F0, symSize: 0xB0 }
  - { offset: 0x348F2, size: 0x8, addend: 0x0, symName: __RINvMsb_NtNtNtCslJiobkLta79_5alloc11collections5btree8navigateINtB6_13LazyLeafRangeNtNtNtB8_4node6marker5DyingINtCsi3vXDrMaOlU_7unicase7UniCaseReEINtNtBc_3vec3VecB2h_EE16deallocating_endNtNtBc_5alloc6GlobalECs3WSINBFhsqg_18build_script_build, symObjAddr: 0x2B0, symBinAddr: 0x100013AA0, symSize: 0x90 }
  - { offset: 0x349C4, size: 0x8, addend: 0x0, symName: __RINvMsb_NtNtNtCslJiobkLta79_5alloc11collections5btree8navigateINtB6_13LazyLeafRangeNtNtNtB8_4node6marker5DyingINtCsi3vXDrMaOlU_7unicase7UniCaseReEINtNtBc_3vec3VecB2h_EE27deallocating_next_uncheckedNtNtBc_5alloc6GlobalECs3WSINBFhsqg_18build_script_build, symObjAddr: 0x340, symBinAddr: 0x100013B30, symSize: 0xB0 }
  - { offset: 0x34D8A, size: 0x8, addend: 0x0, symName: __RNvMNtCsieiGu2EXtoJ_4core6resultINtB2_6ResulthNtNtNtB4_3num5error15TryFromIntErrorE6expectCs3WSINBFhsqg_18build_script_build, symObjAddr: 0xCB0, symBinAddr: 0x100014480, symSize: 0x80 }
  - { offset: 0x34DEC, size: 0x8, addend: 0x0, symName: __RNvMNtCslJiobkLta79_5alloc3vecINtB2_3VecReE3newCs3WSINBFhsqg_18build_script_build, symObjAddr: 0xD30, symBinAddr: 0x100014500, symSize: 0x30 }
  - { offset: 0x34E30, size: 0x8, addend: 0x0, symName: __RNvMs16_NtCsHUR1vrdMJt_3std4pathNtB6_4Path7displayCs3WSINBFhsqg_18build_script_build, symObjAddr: 0xD60, symBinAddr: 0x100014530, symSize: 0x20 }
  - { offset: 0x34F64, size: 0x8, addend: 0x0, symName: __RNvMs_NtCslJiobkLta79_5alloc3vecINtB4_3VecReE15append_elementsCs3WSINBFhsqg_18build_script_build, symObjAddr: 0xD80, symBinAddr: 0x100014550, symSize: 0xC0 }
  - { offset: 0x35106, size: 0x8, addend: 0x0, symName: __RNvMs_NtCslJiobkLta79_5alloc3vecINtB4_3VecReE3lenCs3WSINBFhsqg_18build_script_build, symObjAddr: 0xE40, symBinAddr: 0x100014610, symSize: 0x10 }
  - { offset: 0x3513B, size: 0x8, addend: 0x0, symName: __RNvMs_NtCslJiobkLta79_5alloc3vecINtB4_3VecReE4pushCs3WSINBFhsqg_18build_script_build, symObjAddr: 0xE50, symBinAddr: 0x100014620, symSize: 0x20 }
  - { offset: 0x352AF, size: 0x8, addend: 0x0, symName: __RNvMs_NtCslJiobkLta79_5alloc3vecINtB4_3VecReE7reserveCs3WSINBFhsqg_18build_script_build, symObjAddr: 0xE70, symBinAddr: 0x100014640, symSize: 0xB0 }
  - { offset: 0x35508, size: 0x8, addend: 0x0, symName: __RNvMs_NtCslJiobkLta79_5alloc3vecINtB4_3VecReE8push_mutCs3WSINBFhsqg_18build_script_build, symObjAddr: 0xF20, symBinAddr: 0x1000146F0, symSize: 0xF0 }
  - { offset: 0x35854, size: 0x8, addend: 0x0, symName: __RNvMsb_NtNtNtCslJiobkLta79_5alloc11collections5btree8navigateINtB5_13LazyLeafRangeNtNtNtB7_4node6marker5DyingINtCsi3vXDrMaOlU_7unicase7UniCaseReEINtNtB7_3map8BTreeMapB1J_INtNtBb_3vec3VecB2g_EEE10take_frontCs3WSINBFhsqg_18build_script_build, symObjAddr: 0x1010, symBinAddr: 0x1000147E0, symSize: 0x2E0 }
  - { offset: 0x35BCF, size: 0x8, addend: 0x0, symName: __RNvMsb_NtNtNtCslJiobkLta79_5alloc11collections5btree8navigateINtB5_13LazyLeafRangeNtNtNtB7_4node6marker5DyingINtCsi3vXDrMaOlU_7unicase7UniCaseReEINtNtBb_3vec3VecB2g_EE10take_frontCs3WSINBFhsqg_18build_script_build, symObjAddr: 0x12F0, symBinAddr: 0x100014AC0, symSize: 0x2E0 }
  - { offset: 0x35F2E, size: 0x8, addend: 0x0, symName: __RNvMsc_NtNtNtCslJiobkLta79_5alloc11collections5btree8navigateINtB5_13LazyLeafRangeNtNtNtB7_4node6marker5DyingINtCsi3vXDrMaOlU_7unicase7UniCaseReEINtNtB7_3map8BTreeMapB1J_INtNtBb_3vec3VecB2g_EEE10init_frontCs3WSINBFhsqg_18build_script_build, symObjAddr: 0x15D0, symBinAddr: 0x100014DA0, symSize: 0x280 }
  - { offset: 0x3621A, size: 0x8, addend: 0x0, symName: __RNvMsc_NtNtNtCslJiobkLta79_5alloc11collections5btree8navigateINtB5_13LazyLeafRangeNtNtNtB7_4node6marker5DyingINtCsi3vXDrMaOlU_7unicase7UniCaseReEINtNtBb_3vec3VecB2g_EE10init_frontCs3WSINBFhsqg_18build_script_build, symObjAddr: 0x1850, symBinAddr: 0x100015020, symSize: 0x280 }
  - { offset: 0x36C43, size: 0x8, addend: 0x0, symName: __RINvMs5_NtNtCsieiGu2EXtoJ_4core3fmt8buildersNtB6_9DebugList7entriesRReINtNtNtBa_5slice4iter4IterB14_EECs3WSINBFhsqg_18build_script_build, symObjAddr: 0x0, symBinAddr: 0x1000170F0, symSize: 0xD0 }
  - { offset: 0x36D5A, size: 0x8, addend: 0x0, symName: __RNvXsT_NtCslJiobkLta79_5alloc6stringNtB5_6StringNtNtCsieiGu2EXtoJ_4core3fmt5Write10write_charCs3WSINBFhsqg_18build_script_build, symObjAddr: 0x1EA0, symBinAddr: 0x100018F90, symSize: 0x30 }
  - { offset: 0x36D97, size: 0x8, addend: 0x0, symName: __RNvXsT_NtCslJiobkLta79_5alloc6stringNtB5_6StringNtNtCsieiGu2EXtoJ_4core3fmt5Write9write_strCs3WSINBFhsqg_18build_script_build, symObjAddr: 0x1ED0, symBinAddr: 0x100018FC0, symSize: 0x30 }
  - { offset: 0x36E1C, size: 0x8, addend: 0x0, symName: __RNvXsl_NtCslJiobkLta79_5alloc6stringNtB5_6StringNtNtCsieiGu2EXtoJ_4core3fmt7Display3fmtCs3WSINBFhsqg_18build_script_build, symObjAddr: 0x2100, symBinAddr: 0x1000191F0, symSize: 0x70 }
  - { offset: 0x372E8, size: 0x8, addend: 0x0, symName: __RNvXs1_NtCslJiobkLta79_5alloc7raw_vecINtB5_6RawVecReENtNtNtCsieiGu2EXtoJ_4core3ops4drop4Drop4dropCs3WSINBFhsqg_18build_script_build, symObjAddr: 0x19D0, symBinAddr: 0x100018AC0, symSize: 0x30 }
  - { offset: 0x37490, size: 0x8, addend: 0x0, symName: __RNvMs_NtCslJiobkLta79_5alloc5boxedINtB4_3BoxINtNtNtNtB6_11collections5btree4node12InternalNodeINtCsi3vXDrMaOlU_7unicase7UniCaseReEINtNtB6_3vec3VecB21_EEE13new_uninit_inCs3WSINBFhsqg_18build_script_build, symObjAddr: 0x950, symBinAddr: 0x100017A40, symSize: 0x80 }
  - { offset: 0x37588, size: 0x8, addend: 0x0, symName: __RNvMs_NtCslJiobkLta79_5alloc5boxedINtB4_3BoxINtNtNtNtB6_11collections5btree4node12InternalNodeINtCsi3vXDrMaOlU_7unicase7UniCaseReEINtNtB6_3vec3VecB21_EEE17try_new_uninit_inCs3WSINBFhsqg_18build_script_build, symObjAddr: 0x9D0, symBinAddr: 0x100017AC0, symSize: 0x140 }
  - { offset: 0x377C6, size: 0x8, addend: 0x0, symName: __RNvMs_NtCslJiobkLta79_5alloc5boxedINtB4_3BoxINtNtNtNtB6_11collections5btree4node12InternalNodeINtCsi3vXDrMaOlU_7unicase7UniCaseReEINtNtBL_3map8BTreeMapB1u_INtNtB6_3vec3VecB21_EEEE13new_uninit_inCs3WSINBFhsqg_18build_script_build, symObjAddr: 0xB10, symBinAddr: 0x100017C00, symSize: 0x80 }
  - { offset: 0x378BE, size: 0x8, addend: 0x0, symName: __RNvMs_NtCslJiobkLta79_5alloc5boxedINtB4_3BoxINtNtNtNtB6_11collections5btree4node12InternalNodeINtCsi3vXDrMaOlU_7unicase7UniCaseReEINtNtBL_3map8BTreeMapB1u_INtNtB6_3vec3VecB21_EEEE17try_new_uninit_inCs3WSINBFhsqg_18build_script_build, symObjAddr: 0xB90, symBinAddr: 0x100017C80, symSize: 0x140 }
  - { offset: 0x37AFC, size: 0x8, addend: 0x0, symName: __RNvMs_NtCslJiobkLta79_5alloc5boxedINtB4_3BoxINtNtNtNtB6_11collections5btree4node8LeafNodeINtCsi3vXDrMaOlU_7unicase7UniCaseReEINtNtB6_3vec3VecB1W_EEE13new_uninit_inCs3WSINBFhsqg_18build_script_build, symObjAddr: 0xCD0, symBinAddr: 0x100017DC0, symSize: 0x80 }
  - { offset: 0x37BF4, size: 0x8, addend: 0x0, symName: __RNvMs_NtCslJiobkLta79_5alloc5boxedINtB4_3BoxINtNtNtNtB6_11collections5btree4node8LeafNodeINtCsi3vXDrMaOlU_7unicase7UniCaseReEINtNtB6_3vec3VecB1W_EEE17try_new_uninit_inCs3WSINBFhsqg_18build_script_build, symObjAddr: 0xD50, symBinAddr: 0x100017E40, symSize: 0x140 }
  - { offset: 0x37E32, size: 0x8, addend: 0x0, symName: __RNvMs_NtCslJiobkLta79_5alloc5boxedINtB4_3BoxINtNtNtNtB6_11collections5btree4node8LeafNodeINtCsi3vXDrMaOlU_7unicase7UniCaseReEINtNtBL_3map8BTreeMapB1p_INtNtB6_3vec3VecB1W_EEEE13new_uninit_inCs3WSINBFhsqg_18build_script_build, symObjAddr: 0xE90, symBinAddr: 0x100017F80, symSize: 0x80 }
  - { offset: 0x37F2A, size: 0x8, addend: 0x0, symName: __RNvMs_NtCslJiobkLta79_5alloc5boxedINtB4_3BoxINtNtNtNtB6_11collections5btree4node8LeafNodeINtCsi3vXDrMaOlU_7unicase7UniCaseReEINtNtBL_3map8BTreeMapB1p_INtNtB6_3vec3VecB1W_EEEE17try_new_uninit_inCs3WSINBFhsqg_18build_script_build, symObjAddr: 0xF10, symBinAddr: 0x100018000, symSize: 0x140 }
  - { offset: 0x3816E, size: 0x8, addend: 0x0, symName: __RNvXs6_NtCslJiobkLta79_5alloc5boxedINtB5_3BoxDNtNtCsieiGu2EXtoJ_4core5error5ErrorNtNtBM_6marker4SyncNtB1j_4SendEL_ENtNtNtBM_3ops4drop4Drop4dropCs3WSINBFhsqg_18build_script_build, symObjAddr: 0x1A30, symBinAddr: 0x100018B20, symSize: 0xC0 }
  - { offset: 0x382AB, size: 0x8, addend: 0x0, symName: __RNvXs6_NtCslJiobkLta79_5alloc5boxedINtB5_3BoxINtNtNtNtB7_11collections5btree4node12InternalNodeINtCsi3vXDrMaOlU_7unicase7UniCaseReEINtNtB7_3vec3VecB22_EEENtNtNtCsieiGu2EXtoJ_4core3ops4drop4Drop4dropCs3WSINBFhsqg_18build_script_build, symObjAddr: 0x1AF0, symBinAddr: 0x100018BE0, symSize: 0xB0 }
  - { offset: 0x383E6, size: 0x8, addend: 0x0, symName: __RNvXs6_NtCslJiobkLta79_5alloc5boxedINtB5_3BoxINtNtNtNtB7_11collections5btree4node12InternalNodeINtCsi3vXDrMaOlU_7unicase7UniCaseReEINtNtBM_3map8BTreeMapB1v_INtNtB7_3vec3VecB22_EEEENtNtNtCsieiGu2EXtoJ_4core3ops4drop4Drop4dropCs3WSINBFhsqg_18build_script_build, symObjAddr: 0x1BA0, symBinAddr: 0x100018C90, symSize: 0xB0 }
  - { offset: 0x38521, size: 0x8, addend: 0x0, symName: __RNvXs6_NtCslJiobkLta79_5alloc5boxedINtB5_3BoxINtNtNtNtB7_11collections5btree4node8LeafNodeINtCsi3vXDrMaOlU_7unicase7UniCaseReEINtNtB7_3vec3VecB1X_EEENtNtNtCsieiGu2EXtoJ_4core3ops4drop4Drop4dropCs3WSINBFhsqg_18build_script_build, symObjAddr: 0x1C50, symBinAddr: 0x100018D40, symSize: 0xB0 }
  - { offset: 0x3865C, size: 0x8, addend: 0x0, symName: __RNvXs6_NtCslJiobkLta79_5alloc5boxedINtB5_3BoxINtNtNtNtB7_11collections5btree4node8LeafNodeINtCsi3vXDrMaOlU_7unicase7UniCaseReEINtNtBM_3map8BTreeMapB1q_INtNtB7_3vec3VecB1X_EEEENtNtNtCsieiGu2EXtoJ_4core3ops4drop4Drop4dropCs3WSINBFhsqg_18build_script_build, symObjAddr: 0x1D00, symBinAddr: 0x100018DF0, symSize: 0xB0 }
  - { offset: 0x38797, size: 0x8, addend: 0x0, symName: __RNvXs6_NtCslJiobkLta79_5alloc5boxedINtB5_3BoxNtNtNtCsHUR1vrdMJt_3std2io5error6CustomENtNtNtCsieiGu2EXtoJ_4core3ops4drop4Drop4dropCs3WSINBFhsqg_18build_script_build, symObjAddr: 0x1DB0, symBinAddr: 0x100018EA0, symSize: 0xB0 }
  - { offset: 0x393CE, size: 0x8, addend: 0x0, symName: __RNvNvMs1_NtNtCsieiGu2EXtoJ_4core3ptr8non_nullINtB7_7NonNullpE13new_unchecked18precondition_checkCs3WSINBFhsqg_18build_script_build, symObjAddr: 0x18C0, symBinAddr: 0x1000189B0, symSize: 0x90 }
  - { offset: 0x39BCC, size: 0x8, addend: 0x0, symName: __RNvNvMNtNtCsieiGu2EXtoJ_4core3ptr9const_ptrPp20offset_from_unsigned18precondition_checkCs3WSINBFhsqg_18build_script_build, symObjAddr: 0x1820, symBinAddr: 0x100018910, symSize: 0xA0 }
  - { offset: 0x3A216, size: 0x8, addend: 0x0, symName: __RNvXs19_NtCsieiGu2EXtoJ_4core3fmtRReNtB6_5Debug3fmtCs3WSINBFhsqg_18build_script_build, symObjAddr: 0x19B0, symBinAddr: 0x100018AA0, symSize: 0x20 }
  - { offset: 0x3A262, size: 0x8, addend: 0x0, symName: __RNvXsH_NtCsieiGu2EXtoJ_4core3fmtNtB5_5ErrorNtB5_5Debug3fmtCs3WSINBFhsqg_18build_script_build, symObjAddr: 0x1E60, symBinAddr: 0x100018F50, symSize: 0x40 }
  - { offset: 0x3A2AC, size: 0x8, addend: 0x0, symName: __RNvXs_NvNtNtCsieiGu2EXtoJ_4core3fmt5Write9write_fmtQNtNtCslJiobkLta79_5alloc6string6StringNtB4_12SpecWriteFmt14spec_write_fmtCs3WSINBFhsqg_18build_script_build, symObjAddr: 0x1F90, symBinAddr: 0x100019080, symSize: 0x170 }
  - { offset: 0x3A363, size: 0x8, addend: 0x0, symName: __RNvYNtNtCslJiobkLta79_5alloc6string6StringNtNtCsieiGu2EXtoJ_4core3fmt5Write9write_fmtCs3WSINBFhsqg_18build_script_build, symObjAddr: 0x21F0, symBinAddr: 0x1000192E0, symSize: 0x20 }
  - { offset: 0x3A3AD, size: 0x8, addend: 0x0, symName: __RNvXsq_NtCsieiGu2EXtoJ_4core3fmtSReNtB5_5Debug3fmtCs3WSINBFhsqg_18build_script_build, symObjAddr: 0x2170, symBinAddr: 0x100019260, symSize: 0x80 }
  - { offset: 0x3AFFB, size: 0x8, addend: 0x0, symName: __RNvMNtNtCsieiGu2EXtoJ_4core4char7methodsc18to_ascii_lowercaseCs3WSINBFhsqg_18build_script_build, symObjAddr: 0x810, symBinAddr: 0x100017900, symSize: 0x50 }
  - { offset: 0x3B0CE, size: 0x8, addend: 0x0, symName: __RNvNtNtCsieiGu2EXtoJ_4core4char7methods15encode_utf8_rawCs3WSINBFhsqg_18build_script_build, symObjAddr: 0x1050, symBinAddr: 0x100018140, symSize: 0xE0 }
  - { offset: 0x3B1CE, size: 0x8, addend: 0x0, symName: __RNvNtNtCsieiGu2EXtoJ_4core4char7methods25encode_utf8_raw_uncheckedCs3WSINBFhsqg_18build_script_build, symObjAddr: 0x1130, symBinAddr: 0x100018220, symSize: 0x140 }
  - { offset: 0x3BD13, size: 0x8, addend: 0x0, symName: __RNvXNtNtCsieiGu2EXtoJ_4core3ops12control_flowINtB2_11ControlFlowIBI_NtNtB6_3cmp8OrderingB14_EENtNtB4_9try_trait3Try11from_outputCs3WSINBFhsqg_18build_script_build, symObjAddr: 0x1950, symBinAddr: 0x100018A40, symSize: 0x10 }
  - { offset: 0x3BD51, size: 0x8, addend: 0x0, symName: __RNvXNtNtCsieiGu2EXtoJ_4core3ops12control_flowINtB2_11ControlFlowIBI_NtNtB6_3cmp8OrderingB14_EENtNtB4_9try_trait3Try6branchCs3WSINBFhsqg_18build_script_build, symObjAddr: 0x1960, symBinAddr: 0x100018A50, symSize: 0x50 }
  - { offset: 0x3BDCF, size: 0x8, addend: 0x0, symName: __RNvXs_NtNtCsieiGu2EXtoJ_4core3ops12control_flowINtB4_11ControlFlowIBK_NtNtB8_3cmp8OrderingB16_EEINtNtB6_9try_trait12FromResidualIBK_B12_NtNtB8_7convert10InfallibleEE13from_residualCs3WSINBFhsqg_18build_script_build, symObjAddr: 0x1F70, symBinAddr: 0x100019060, symSize: 0x20 }
  - { offset: 0x3C23A, size: 0x8, addend: 0x0, symName: __RNCNvXs1_NtNtNtCsHUR1vrdMJt_3std2io5error14repr_bitpackedNtB7_4ReprNtNtNtCsieiGu2EXtoJ_4core3ops4drop4Drop4drop0Cs3WSINBFhsqg_18build_script_build, symObjAddr: 0x620, symBinAddr: 0x100017710, symSize: 0x30 }
  - { offset: 0x3C2EF, size: 0x8, addend: 0x0, symName: __RNvXs1_NtNtNtCsHUR1vrdMJt_3std2io5error14repr_bitpackedNtB5_4ReprNtNtNtCsieiGu2EXtoJ_4core3ops4drop4Drop4dropCs3WSINBFhsqg_18build_script_build, symObjAddr: 0x1A00, symBinAddr: 0x100018AF0, symSize: 0x30 }
  - { offset: 0x3C318, size: 0x8, addend: 0x0, symName: __RINvNtNtNtCsHUR1vrdMJt_3std2io5error14repr_bitpacked11decode_reprINtNtCslJiobkLta79_5alloc5boxed3BoxNtB4_6CustomENCNvXs1_B2_NtB2_4ReprNtNtNtCsieiGu2EXtoJ_4core3ops4drop4Drop4drop0ECs3WSINBFhsqg_18build_script_build, symObjAddr: 0x210, symBinAddr: 0x100017300, symSize: 0x200 }
  - { offset: 0x3C58A, size: 0x8, addend: 0x0, symName: __RNCNvMs0_NtNtNtCsHUR1vrdMJt_3std2io5error14repr_bitpackedNtB7_4Repr4data0Cs3WSINBFhsqg_18build_script_build, symObjAddr: 0x610, symBinAddr: 0x100017700, symSize: 0x10 }
  - { offset: 0x3C5C2, size: 0x8, addend: 0x0, symName: __RINvNtNtNtCsHUR1vrdMJt_3std2io5error14repr_bitpacked11decode_reprRNtB4_6CustomNCNvMs0_B2_NtB2_4Repr4data0ECs3WSINBFhsqg_18build_script_build, symObjAddr: 0x410, symBinAddr: 0x100017500, symSize: 0x200 }
  - { offset: 0x3C823, size: 0x8, addend: 0x0, symName: __RNvNtNtNtCsHUR1vrdMJt_3std2io5error14repr_bitpacked14kind_from_primCs3WSINBFhsqg_18build_script_build, symObjAddr: 0x1270, symBinAddr: 0x100018360, symSize: 0x5B0 }
  - { offset: 0x3D1E9, size: 0x8, addend: 0x0, symName: __RNvXsX_NtNtCsHUR1vrdMJt_3std3ffi6os_strNtNtCslJiobkLta79_5alloc6string6StringINtNtCsieiGu2EXtoJ_4core7convert5AsRefNtB5_5OsStrE6as_refCs3WSINBFhsqg_18build_script_build, symObjAddr: 0x1F00, symBinAddr: 0x100018FF0, symSize: 0x70 }
  - { offset: 0x3D430, size: 0x8, addend: 0x0, symName: __RINvMs5_NtNtCsieiGu2EXtoJ_4core3fmt8buildersNtB6_9DebugList7entriesRReINtNtNtBa_5slice4iter4IterB14_EECs3WSINBFhsqg_18build_script_build, symObjAddr: 0x0, symBinAddr: 0x1000170F0, symSize: 0xD0 }
  - { offset: 0x3D57C, size: 0x8, addend: 0x0, symName: __RINvMs_NtNtCsieiGu2EXtoJ_4core3fmt2rtNtB7_9Arguments6new_v1Kj2_Kj1_ECs3WSINBFhsqg_18build_script_build, symObjAddr: 0xD0, symBinAddr: 0x1000171C0, symSize: 0x40 }
  - { offset: 0x3D5E0, size: 0x8, addend: 0x0, symName: __RINvMs_NtNtCsieiGu2EXtoJ_4core3fmt2rtNtB7_9Arguments6new_v1Kj3_Kj2_ECs3WSINBFhsqg_18build_script_build, symObjAddr: 0x110, symBinAddr: 0x100017200, symSize: 0x40 }
  - { offset: 0x3D644, size: 0x8, addend: 0x0, symName: __RINvMs_NtNtCsieiGu2EXtoJ_4core3fmt2rtNtB7_9Arguments6new_v1Kj4_Kj3_ECs3WSINBFhsqg_18build_script_build, symObjAddr: 0x150, symBinAddr: 0x100017240, symSize: 0x40 }
  - { offset: 0x3D6A8, size: 0x8, addend: 0x0, symName: __RINvMs_NtNtCsieiGu2EXtoJ_4core3fmt2rtNtB7_9Arguments6new_v1Kj5_Kj4_ECs3WSINBFhsqg_18build_script_build, symObjAddr: 0x190, symBinAddr: 0x100017280, symSize: 0x40 }
  - { offset: 0x3D6F2, size: 0x8, addend: 0x0, symName: __RINvMs_NtNtCsieiGu2EXtoJ_4core3fmt2rtNtB7_9Arguments9new_constKj1_ECs3WSINBFhsqg_18build_script_build, symObjAddr: 0x1D0, symBinAddr: 0x1000172C0, symSize: 0x40 }
  - { offset: 0x3D940, size: 0x8, addend: 0x0, symName: __RNvMNtCslJiobkLta79_5alloc6stringNtB2_6String3newCs3WSINBFhsqg_18build_script_build, symObjAddr: 0x650, symBinAddr: 0x100017740, symSize: 0x40 }
  - { offset: 0x3DB2D, size: 0x8, addend: 0x0, symName: __RNvMNtCslJiobkLta79_5alloc6stringNtB2_6String4pushCs3WSINBFhsqg_18build_script_build, symObjAddr: 0x690, symBinAddr: 0x100017780, symSize: 0x130 }
  - { offset: 0x3DE62, size: 0x8, addend: 0x0, symName: __RNvMNtCslJiobkLta79_5alloc6stringNtB2_6String8push_strCs3WSINBFhsqg_18build_script_build, symObjAddr: 0x7C0, symBinAddr: 0x1000178B0, symSize: 0x50 }
  - { offset: 0x3E009, size: 0x8, addend: 0x0, symName: __RNvMs0_NtCslJiobkLta79_5alloc7raw_vecINtB5_6RawVecReE8grow_oneCs3WSINBFhsqg_18build_script_build, symObjAddr: 0x860, symBinAddr: 0x100017950, symSize: 0x90 }
  - { offset: 0x3E09F, size: 0x8, addend: 0x0, symName: __RNvMs1_NtNtCsieiGu2EXtoJ_4core3ptr8non_nullINtB5_7NonNullReE20offset_from_unsignedCs3WSINBFhsqg_18build_script_build, symObjAddr: 0x8F0, symBinAddr: 0x1000179E0, symSize: 0x60 }
  - { offset: 0x3F381, size: 0x8, addend: 0x0, symName: __RNvNvMs1_NtNtCsieiGu2EXtoJ_4core3ptr8non_nullINtB7_7NonNullpE13new_unchecked18precondition_checkCsi3vXDrMaOlU_7unicase, symObjAddr: 0x5AE0, symBinAddr: 0x10001E900, symSize: 0x90 }
  - { offset: 0x3F9DE, size: 0x8, addend: 0x0, symName: __RNvNvMNtNtCsieiGu2EXtoJ_4core5alloc6layoutNtB4_6Layout25from_size_align_unchecked18precondition_checkCsi3vXDrMaOlU_7unicase, symObjAddr: 0x5A30, symBinAddr: 0x10001E850, symSize: 0xB0 }
  - { offset: 0x4010E, size: 0x8, addend: 0x0, symName: __RNvNvNtCsieiGu2EXtoJ_4core4hint16assert_unchecked18precondition_checkCsi3vXDrMaOlU_7unicase, symObjAddr: 0x60C0, symBinAddr: 0x10001E990, symSize: 0xA0 }
  - { offset: 0x4016F, size: 0x8, addend: 0x0, symName: __RNvNtCsieiGu2EXtoJ_4core4char8from_u32Csi3vXDrMaOlU_7unicase, symObjAddr: 0xE50, symBinAddr: 0x100019C70, symSize: 0x20 }
  - { offset: 0x401D1, size: 0x8, addend: 0x0, symName: __RNvNtNtCsieiGu2EXtoJ_4core4char7convert8from_u32Csi3vXDrMaOlU_7unicase, symObjAddr: 0x59E0, symBinAddr: 0x10001E800, symSize: 0x50 }
  - { offset: 0x40634, size: 0x8, addend: 0x0, symName: __RNvXs_NtCslJiobkLta79_5alloc5allocNtB4_6GlobalNtNtCsieiGu2EXtoJ_4core5alloc9Allocator15allocate_zeroedCsi3vXDrMaOlU_7unicase, symObjAddr: 0x6610, symBinAddr: 0x10001EA30, symSize: 0x30 }
  - { offset: 0x4066E, size: 0x8, addend: 0x0, symName: __RNvXs_NtCslJiobkLta79_5alloc5allocNtB4_6GlobalNtNtCsieiGu2EXtoJ_4core5alloc9Allocator8allocateCsi3vXDrMaOlU_7unicase, symObjAddr: 0x6640, symBinAddr: 0x10001EA60, symSize: 0x30 }
  - { offset: 0x407E3, size: 0x8, addend: 0x0, symName: __RNvMNtCsieiGu2EXtoJ_4core6optionINtB2_6OptioncE9unwrap_orCsi3vXDrMaOlU_7unicase, symObjAddr: 0x170, symBinAddr: 0x100019370, symSize: 0x40 }
  - { offset: 0x409C3, size: 0x8, addend: 0x0, symName: __RNvMNtCslJiobkLta79_5alloc5allocNtB2_6Global10alloc_implCsi3vXDrMaOlU_7unicase, symObjAddr: 0x1B0, symBinAddr: 0x1000193B0, symSize: 0x290 }
  - { offset: 0x40E3C, size: 0x8, addend: 0x0, symName: __RNvMNtNtCsieiGu2EXtoJ_4core5alloc6layoutNtB2_6Layout6repeatCsi3vXDrMaOlU_7unicase, symObjAddr: 0x4A0, symBinAddr: 0x100019640, symSize: 0x180 }
  - { offset: 0x41047, size: 0x8, addend: 0x0, symName: __RNvNtNtCsi3vXDrMaOlU_7unicase7unicode3map6lookup, symObjAddr: 0xE70, symBinAddr: 0x100019C90, symSize: 0x4B70 }
  - { offset: 0x42AFB, size: 0x8, addend: 0x0, symName: __RNvMs2_NtCslJiobkLta79_5alloc7raw_vecNtB5_11RawVecInner15try_allocate_inCsi3vXDrMaOlU_7unicase, symObjAddr: 0x990, symBinAddr: 0x1000197C0, symSize: 0x360 }
  - { offset: 0x42D8B, size: 0x8, addend: 0x0, symName: __RNvMs2_NtCslJiobkLta79_5alloc7raw_vecNtB5_11RawVecInner16with_capacity_inCsi3vXDrMaOlU_7unicase, symObjAddr: 0xCF0, symBinAddr: 0x100019B20, symSize: 0x150 }
  - { offset: 0x430B4, size: 0x8, addend: 0x0, symName: ___llvm_profile_get_magic, symObjAddr: 0x20, symBinAddr: 0x10001EA90, symSize: 0x10 }
  - { offset: 0x430D5, size: 0x8, addend: 0x0, symName: ___llvm_profile_get_num_padding_bytes, symObjAddr: 0x40, symBinAddr: 0x10001EAA0, symSize: 0x10 }
  - { offset: 0x43106, size: 0x8, addend: 0x0, symName: ___llvm_profile_get_version, symObjAddr: 0x50, symBinAddr: 0x10001EAB0, symSize: 0x10 }
  - { offset: 0x4317B, size: 0x8, addend: 0x0, symName: ___llvm_profile_is_continuous_mode_enabled, symObjAddr: 0x0, symBinAddr: 0x10001EAC0, symSize: 0x20 }
  - { offset: 0x43198, size: 0x8, addend: 0x0, symName: _ContinuouslySyncProfile, symObjAddr: 0x40E0, symBinAddr: 0x10008E590, symSize: 0x0 }
  - { offset: 0x431BA, size: 0x8, addend: 0x0, symName: _PageSize, symObjAddr: 0x40E4, symBinAddr: 0x10008E594, symSize: 0x0 }
  - { offset: 0x431E8, size: 0x8, addend: 0x0, symName: ___llvm_profile_is_continuous_mode_enabled, symObjAddr: 0x0, symBinAddr: 0x10001EAC0, symSize: 0x20 }
  - { offset: 0x43209, size: 0x8, addend: 0x0, symName: ___llvm_profile_enable_continuous_mode, symObjAddr: 0x20, symBinAddr: 0x10001EAE0, symSize: 0x10 }
  - { offset: 0x43226, size: 0x8, addend: 0x0, symName: ___llvm_profile_disable_continuous_mode, symObjAddr: 0x30, symBinAddr: 0x10001EAF0, symSize: 0x10 }
  - { offset: 0x43243, size: 0x8, addend: 0x0, symName: ___llvm_profile_set_page_size, symObjAddr: 0x40, symBinAddr: 0x10001EB00, symSize: 0x10 }
  - { offset: 0x4326E, size: 0x8, addend: 0x0, symName: ___llvm_profile_get_size_for_buffer, symObjAddr: 0x50, symBinAddr: 0x10001EB10, symSize: 0xD0 }
  - { offset: 0x436BC, size: 0x8, addend: 0x0, symName: ___llvm_profile_get_size_for_buffer_internal, symObjAddr: 0x120, symBinAddr: 0x10001EBE0, symSize: 0x210 }
  - { offset: 0x43A60, size: 0x8, addend: 0x0, symName: ___llvm_profile_get_num_data, symObjAddr: 0x330, symBinAddr: 0x10001EDF0, symSize: 0x10 }
  - { offset: 0x43A99, size: 0x8, addend: 0x0, symName: ___llvm_profile_get_data_size, symObjAddr: 0x340, symBinAddr: 0x10001EE00, symSize: 0x10 }
  - { offset: 0x43AC5, size: 0x8, addend: 0x0, symName: ___llvm_profile_get_data_size, symObjAddr: 0x340, symBinAddr: 0x10001EE00, symSize: 0x10 }
  - { offset: 0x43AFB, size: 0x8, addend: 0x0, symName: ___llvm_profile_get_num_vtable, symObjAddr: 0x350, symBinAddr: 0x10001EE10, symSize: 0x20 }
  - { offset: 0x43B51, size: 0x8, addend: 0x0, symName: ___llvm_profile_get_vtable_section_size, symObjAddr: 0x370, symBinAddr: 0x10001EE30, symSize: 0x10 }
  - { offset: 0x43B78, size: 0x8, addend: 0x0, symName: ___llvm_profile_counter_entry_size, symObjAddr: 0x380, symBinAddr: 0x10001EE40, symSize: 0x20 }
  - { offset: 0x43B90, size: 0x8, addend: 0x0, symName: ___llvm_profile_get_num_counters, symObjAddr: 0x3A0, symBinAddr: 0x10001EE60, symSize: 0x50 }
  - { offset: 0x43BE5, size: 0x8, addend: 0x0, symName: ___llvm_profile_get_counters_size, symObjAddr: 0x3F0, symBinAddr: 0x10001EEB0, symSize: 0x60 }
  - { offset: 0x43C79, size: 0x8, addend: 0x0, symName: ___llvm_profile_get_num_bitmap_bytes, symObjAddr: 0x450, symBinAddr: 0x10001EF10, symSize: 0x10 }
  - { offset: 0x43CA0, size: 0x8, addend: 0x0, symName: ___llvm_profile_get_name_size, symObjAddr: 0x460, symBinAddr: 0x10001EF20, symSize: 0x10 }
  - { offset: 0x43CC7, size: 0x8, addend: 0x0, symName: ___llvm_profile_get_padding_sizes_for_counters, symObjAddr: 0x470, symBinAddr: 0x10001EF30, symSize: 0x1B0 }
  - { offset: 0x43DE6, size: 0x8, addend: 0x0, symName: _initBufferWriter, symObjAddr: 0x620, symBinAddr: 0x10001F0E0, symSize: 0x10 }
  - { offset: 0x43F50, size: 0x8, addend: 0x0, symName: _lprofCurFilename, symObjAddr: 0xA6F8, symBinAddr: 0x10008E598, symSize: 0x0 }
  - { offset: 0x44079, size: 0x8, addend: 0x0, symName: _ProfileFile, symObjAddr: 0xA7C8, symBinAddr: 0x10008E668, symSize: 0x0 }
  - { offset: 0x442A7, size: 0x8, addend: 0x0, symName: _ProfileMergeRequested, symObjAddr: 0xA7D0, symBinAddr: 0x10008E670, symSize: 0x0 }
  - { offset: 0x4444C, size: 0x8, addend: 0x0, symName: _getCurFilenameLength, symObjAddr: 0x180, symBinAddr: 0x10001F0F0, symSize: 0xE0 }
  - { offset: 0x444D7, size: 0x8, addend: 0x0, symName: _getCurFilename, symObjAddr: 0x260, symBinAddr: 0x10001F1D0, symSize: 0x380 }
  - { offset: 0x44767, size: 0x8, addend: 0x0, symName: _parseAndSetFilename, symObjAddr: 0x6B0, symBinAddr: 0x10001F550, symSize: 0x590 }
  - { offset: 0x44985, size: 0x8, addend: 0x0, symName: ___llvm_profile_initialize, symObjAddr: 0xC40, symBinAddr: 0x10001FAE0, symSize: 0x90 }
  - { offset: 0x44A01, size: 0x8, addend: 0x0, symName: ___llvm_profile_write_file, symObjAddr: 0xD30, symBinAddr: 0x10001FB70, symSize: 0x160 }
  - { offset: 0x44BD4, size: 0x8, addend: 0x0, symName: _writeFile, symObjAddr: 0xE90, symBinAddr: 0x10001FCD0, symSize: 0x2B0 }
  - { offset: 0x44D7D, size: 0x8, addend: 0x0, symName: _writeFileWithoutReturn, symObjAddr: 0x1190, symBinAddr: 0x10001FF80, symSize: 0x10 }
  - { offset: 0x44DB4, size: 0x8, addend: 0x0, symName: _getProfileFileSizeForMerging, symObjAddr: 0x13C0, symBinAddr: 0x10001FF90, symSize: 0xC0 }
  - { offset: 0x44DF9, size: 0x8, addend: 0x0, symName: _mmapForContinuousMode, symObjAddr: 0x1480, symBinAddr: 0x100020050, symSize: 0x2D0 }
  - { offset: 0x44FB8, size: 0x8, addend: 0x0, symName: _fileWriter, symObjAddr: 0x1750, symBinAddr: 0x100020320, symSize: 0x150 }
  - { offset: 0x45088, size: 0x8, addend: 0x0, symName: _binaryIdsStringWriter, symObjAddr: 0x18A0, symBinAddr: 0x100020470, symSize: 0xA0 }
  - { offset: 0x45129, size: 0x8, addend: 0x0, symName: _truncateCurrentFile, symObjAddr: 0x1940, symBinAddr: 0x100020510, symSize: 0xB0 }
  - { offset: 0x451CF, size: 0x8, addend: 0x0, symName: _initializeProfileForContinuousMode, symObjAddr: 0x19F0, symBinAddr: 0x1000205C0, symSize: 0x2C0 }
  - { offset: 0x453BE, size: 0x8, addend: 0x0, symName: _createProfileDir, symObjAddr: 0x1CB0, symBinAddr: 0x100020880, symSize: 0x7F }
  - { offset: 0x4552F, size: 0x8, addend: 0x0, symName: _lprofProfileDumped, symObjAddr: 0x0, symBinAddr: 0x100020900, symSize: 0x10 }
  - { offset: 0x4554C, size: 0x8, addend: 0x0, symName: _ProfileDumped, symObjAddr: 0x4E0, symBinAddr: 0x10008E674, symSize: 0x0 }
  - { offset: 0x4555C, size: 0x8, addend: 0x0, symName: _lprofProfileDumped, symObjAddr: 0x0, symBinAddr: 0x100020900, symSize: 0x10 }
  - { offset: 0x455A4, size: 0x8, addend: 0x0, symName: _lprofGetLoadModuleSignature, symObjAddr: 0x0, symBinAddr: 0x100020910, symSize: 0xE0 }
  - { offset: 0x455D1, size: 0x8, addend: 0x0, symName: _VPMergeHook, symObjAddr: 0x2AA0, symBinAddr: 0x100090860, symSize: 0x0 }
  - { offset: 0x45839, size: 0x8, addend: 0x0, symName: _lprofGetLoadModuleSignature, symObjAddr: 0x0, symBinAddr: 0x100020910, symSize: 0xE0 }
  - { offset: 0x458AD, size: 0x8, addend: 0x0, symName: ___llvm_profile_check_compatibility, symObjAddr: 0xE0, symBinAddr: 0x1000209F0, symSize: 0x190 }
  - { offset: 0x4598D, size: 0x8, addend: 0x0, symName: ___llvm_profile_merge_from_buffer, symObjAddr: 0x270, symBinAddr: 0x100020B80, symSize: 0x4D8 }
  - { offset: 0x45BED, size: 0x8, addend: 0x0, symName: _lprofMergeValueProfData, symObjAddr: 0x0, symBinAddr: 0x100021060, symSize: 0xF1 }
  - { offset: 0x45BFE, size: 0x8, addend: 0x0, symName: _lprofMergeValueProfData, symObjAddr: 0x0, symBinAddr: 0x100021060, symSize: 0xF1 }
  - { offset: 0x45EC9, size: 0x8, addend: 0x0, symName: ___llvm_profile_begin_data, symObjAddr: 0x0, symBinAddr: 0x100021160, symSize: 0x10 }
  - { offset: 0x45EE8, size: 0x8, addend: 0x0, symName: _CurrentVNode, symObjAddr: 0xE8, symBinAddr: 0x10008DA80, symSize: 0x0 }
  - { offset: 0x45F64, size: 0x8, addend: 0x0, symName: _EndVNode, symObjAddr: 0xF0, symBinAddr: 0x10008DA88, symSize: 0x0 }
  - { offset: 0x45F6D, size: 0x8, addend: 0x0, symName: ___llvm_profile_begin_data, symObjAddr: 0x0, symBinAddr: 0x100021160, symSize: 0x10 }
  - { offset: 0x45F8E, size: 0x8, addend: 0x0, symName: ___llvm_profile_end_data, symObjAddr: 0x10, symBinAddr: 0x100021170, symSize: 0x10 }
  - { offset: 0x45FAF, size: 0x8, addend: 0x0, symName: ___llvm_profile_begin_names, symObjAddr: 0x20, symBinAddr: 0x100021180, symSize: 0x10 }
  - { offset: 0x45FD0, size: 0x8, addend: 0x0, symName: ___llvm_profile_end_names, symObjAddr: 0x30, symBinAddr: 0x100021190, symSize: 0x10 }
  - { offset: 0x45FF1, size: 0x8, addend: 0x0, symName: ___llvm_profile_begin_counters, symObjAddr: 0x40, symBinAddr: 0x1000211A0, symSize: 0x10 }
  - { offset: 0x46012, size: 0x8, addend: 0x0, symName: ___llvm_profile_end_counters, symObjAddr: 0x50, symBinAddr: 0x1000211B0, symSize: 0x10 }
  - { offset: 0x46033, size: 0x8, addend: 0x0, symName: ___llvm_profile_begin_bitmap, symObjAddr: 0x60, symBinAddr: 0x1000211C0, symSize: 0x10 }
  - { offset: 0x46054, size: 0x8, addend: 0x0, symName: ___llvm_profile_end_bitmap, symObjAddr: 0x70, symBinAddr: 0x1000211D0, symSize: 0x10 }
  - { offset: 0x46075, size: 0x8, addend: 0x0, symName: ___llvm_profile_begin_vtables, symObjAddr: 0x80, symBinAddr: 0x1000211E0, symSize: 0x10 }
  - { offset: 0x46096, size: 0x8, addend: 0x0, symName: ___llvm_profile_end_vtables, symObjAddr: 0x90, symBinAddr: 0x1000211F0, symSize: 0x10 }
  - { offset: 0x460B7, size: 0x8, addend: 0x0, symName: ___llvm_profile_begin_vtabnames, symObjAddr: 0xA0, symBinAddr: 0x100021200, symSize: 0x10 }
  - { offset: 0x460D8, size: 0x8, addend: 0x0, symName: ___llvm_profile_end_vtabnames, symObjAddr: 0xB0, symBinAddr: 0x100021210, symSize: 0x10 }
  - { offset: 0x460F9, size: 0x8, addend: 0x0, symName: ___llvm_profile_begin_vnodes, symObjAddr: 0xC0, symBinAddr: 0x100021220, symSize: 0x10 }
  - { offset: 0x4611A, size: 0x8, addend: 0x0, symName: ___llvm_profile_end_vnodes, symObjAddr: 0xD0, symBinAddr: 0x100021230, symSize: 0x10 }
  - { offset: 0x4613B, size: 0x8, addend: 0x0, symName: ___llvm_write_binary_ids, symObjAddr: 0xE0, symBinAddr: 0x100021240, symSize: 0x3 }
  - { offset: 0x463BF, size: 0x8, addend: 0x0, symName: __GLOBAL__sub_I_InstrProfilingRuntime.cpp, symObjAddr: 0x0, symBinAddr: 0x100021250, symSize: 0x12 }
  - { offset: 0x463E2, size: 0x8, addend: 0x0, symName: ___llvm_profile_runtime, symObjAddr: 0x580, symBinAddr: 0x100090868, symSize: 0x0 }
  - { offset: 0x46413, size: 0x8, addend: 0x0, symName: __GLOBAL__sub_I_InstrProfilingRuntime.cpp, symObjAddr: 0x0, symBinAddr: 0x100021250, symSize: 0x12 }
  - { offset: 0x4648F, size: 0x8, addend: 0x0, symName: ___llvm_profile_recursive_mkdir, symObjAddr: 0x0, symBinAddr: 0x100021270, symSize: 0x40 }
  - { offset: 0x464AE, size: 0x8, addend: 0x0, symName: _lprofDirMode, symObjAddr: 0x6F8, symBinAddr: 0x10008DA90, symSize: 0x0 }
  - { offset: 0x46519, size: 0x8, addend: 0x0, symName: ___llvm_profile_recursive_mkdir, symObjAddr: 0x0, symBinAddr: 0x100021270, symSize: 0x40 }
  - { offset: 0x46598, size: 0x8, addend: 0x0, symName: _lprofGetHostName, symObjAddr: 0x60, symBinAddr: 0x1000212B0, symSize: 0x70 }
  - { offset: 0x466CD, size: 0x8, addend: 0x0, symName: _lprofLockFileHandle, symObjAddr: 0x1B0, symBinAddr: 0x100021320, symSize: 0x70 }
  - { offset: 0x4675B, size: 0x8, addend: 0x0, symName: _lprofUnlockFileHandle, symObjAddr: 0x220, symBinAddr: 0x100021390, symSize: 0x70 }
  - { offset: 0x467C3, size: 0x8, addend: 0x0, symName: _lprofOpenFileEx, symObjAddr: 0x290, symBinAddr: 0x100021400, symSize: 0xB0 }
  - { offset: 0x46855, size: 0x8, addend: 0x0, symName: _lprofGetFileContentBuffer, symObjAddr: 0x340, symBinAddr: 0x1000214B0, symSize: 0x1B0 }
  - { offset: 0x468E4, size: 0x8, addend: 0x0, symName: _lprofReleaseBuffer, symObjAddr: 0x4F0, symBinAddr: 0x100021660, symSize: 0x70 }
  - { offset: 0x46926, size: 0x8, addend: 0x0, symName: _lprofFindFirstDirSeparator, symObjAddr: 0x660, symBinAddr: 0x1000216D0, symSize: 0x10 }
  - { offset: 0x46966, size: 0x8, addend: 0x0, symName: _lprofSuspendSigKill, symObjAddr: 0x680, symBinAddr: 0x1000216E0, symSize: 0x10 }
  - { offset: 0x46989, size: 0x8, addend: 0x0, symName: _lprofRestoreSigKill, symObjAddr: 0x690, symBinAddr: 0x1000216F0, symSize: 0x10 }
  - { offset: 0x469A8, size: 0x8, addend: 0x0, symName: _lprofAtExit, symObjAddr: 0x6F0, symBinAddr: 0x100021700, symSize: 0x5 }
  - { offset: 0x46CB9, size: 0x8, addend: 0x0, symName: _getValueProfRecordHeaderSize, symObjAddr: 0x0, symBinAddr: 0x100021710, symSize: 0x10 }
  - { offset: 0x46CD8, size: 0x8, addend: 0x0, symName: _VPMaxNumValsPerSite, symObjAddr: 0x1468, symBinAddr: 0x10008DA98, symSize: 0x0 }
  - { offset: 0x46D6D, size: 0x8, addend: 0x0, symName: _hasNonDefaultValsPerSite, symObjAddr: 0xEE78, symBinAddr: 0x10008E678, symSize: 0x0 }
  - { offset: 0x46D94, size: 0x8, addend: 0x0, symName: _OutOfNodesWarnings, symObjAddr: 0xEE80, symBinAddr: 0x10008E680, symSize: 0x0 }
  - { offset: 0x46DA9, size: 0x8, addend: 0x0, symName: _hasStaticCounters, symObjAddr: 0xEE7C, symBinAddr: 0x10008E67C, symSize: 0x0 }
  - { offset: 0x46DC6, size: 0x8, addend: 0x0, symName: _TheVPDataReader, symObjAddr: 0x1470, symBinAddr: 0x10008DAA0, symSize: 0x0 }
  - { offset: 0x47066, size: 0x8, addend: 0x0, symName: _RTRecord, symObjAddr: 0xEE88, symBinAddr: 0x10008E688, symSize: 0x0 }
  - { offset: 0x4725A, size: 0x8, addend: 0x0, symName: _getValueProfRecordHeaderSize, symObjAddr: 0x0, symBinAddr: 0x100021710, symSize: 0x10 }
  - { offset: 0x472AE, size: 0x8, addend: 0x0, symName: _getValueProfRecordValueData, symObjAddr: 0x20, symBinAddr: 0x100021720, symSize: 0x10 }
  - { offset: 0x4735A, size: 0x8, addend: 0x0, symName: _getValueProfRecordNext, symObjAddr: 0x130, symBinAddr: 0x100021730, symSize: 0x100 }
  - { offset: 0x47362, size: 0x8, addend: 0x0, symName: _getFirstValueProfRecord, symObjAddr: 0x230, symBinAddr: 0x100021830, symSize: 0x10 }
  - { offset: 0x473E8, size: 0x8, addend: 0x0, symName: _getFirstValueProfRecord, symObjAddr: 0x230, symBinAddr: 0x100021830, symSize: 0x10 }
  - { offset: 0x474C8, size: 0x8, addend: 0x0, symName: _lprofSetupValueProfiler, symObjAddr: 0x8C0, symBinAddr: 0x100021840, symSize: 0x50 }
  - { offset: 0x475DA, size: 0x8, addend: 0x0, symName: ___llvm_profile_instrument_target_value, symObjAddr: 0xB90, symBinAddr: 0x100021890, symSize: 0x240 }
  - { offset: 0x476F5, size: 0x8, addend: 0x0, symName: _lprofGetVPDataReader, symObjAddr: 0xE20, symBinAddr: 0x100021AD0, symSize: 0x10 }
  - { offset: 0x47718, size: 0x8, addend: 0x0, symName: _initializeValueProfRuntimeRecord, symObjAddr: 0xE30, symBinAddr: 0x100021AE0, symSize: 0x390 }
  - { offset: 0x4783D, size: 0x8, addend: 0x0, symName: _getNumValueDataForSiteWrapper, symObjAddr: 0x11C0, symBinAddr: 0x100021E70, symSize: 0x20 }
  - { offset: 0x47881, size: 0x8, addend: 0x0, symName: _getNumValueDataForSiteWrapper, symObjAddr: 0x11C0, symBinAddr: 0x100021E70, symSize: 0x20 }
  - { offset: 0x478A7, size: 0x8, addend: 0x0, symName: _getValueProfDataSizeWrapper, symObjAddr: 0x11E0, symBinAddr: 0x100021E90, symSize: 0xB0 }
  - { offset: 0x478CD, size: 0x8, addend: 0x0, symName: _getValueProfDataSizeWrapper, symObjAddr: 0x11E0, symBinAddr: 0x100021E90, symSize: 0xB0 }
  - { offset: 0x478FE, size: 0x8, addend: 0x0, symName: _getValueProfDataSizeWrapper, symObjAddr: 0x11E0, symBinAddr: 0x100021E90, symSize: 0xB0 }
  - { offset: 0x4795B, size: 0x8, addend: 0x0, symName: _getNextNValueData, symObjAddr: 0x1290, symBinAddr: 0x100021F40, symSize: 0xC0 }
  - { offset: 0x479F5, size: 0x8, addend: 0x0, symName: _getNumValueSitesRT, symObjAddr: 0x1350, symBinAddr: 0x100022000, symSize: 0x10 }
  - { offset: 0x47A36, size: 0x8, addend: 0x0, symName: _getNumValueDataRT, symObjAddr: 0x1360, symBinAddr: 0x100022010, symSize: 0x101 }
  - { offset: 0x47AEE, size: 0x8, addend: 0x0, symName: ___llvm_profile_raw_version, symObjAddr: 0x0, symBinAddr: 0x10008DAD0, symSize: 0x0 }
  - { offset: 0x47B30, size: 0x8, addend: 0x0, symName: _lprofBufferWriter, symObjAddr: 0x0, symBinAddr: 0x100022120, symSize: 0x60 }
  - { offset: 0x47B4F, size: 0x8, addend: 0x0, symName: _FreeHook, symObjAddr: 0x55B0, symBinAddr: 0x100090870, symSize: 0x0 }
  - { offset: 0x47B75, size: 0x8, addend: 0x0, symName: _DynamicBufferIOBuffer, symObjAddr: 0x55B8, symBinAddr: 0x100090878, symSize: 0x0 }
  - { offset: 0x47BA3, size: 0x8, addend: 0x0, symName: _VPBufferSize, symObjAddr: 0x55C0, symBinAddr: 0x100090880, symSize: 0x0 }
  - { offset: 0x47BCA, size: 0x8, addend: 0x0, symName: _TheBufferIO, symObjAddr: 0x75D0, symBinAddr: 0x1000906B0, symSize: 0x0 }
  - { offset: 0x47D14, size: 0x8, addend: 0x0, symName: _BufferIOBuffer, symObjAddr: 0x55D0, symBinAddr: 0x10008E6B0, symSize: 0x0 }
  - { offset: 0x47D3E, size: 0x8, addend: 0x0, symName: _VPDataArray, symObjAddr: 0x75F0, symBinAddr: 0x1000906D0, symSize: 0x0 }
  - { offset: 0x47DB8, size: 0x8, addend: 0x0, symName: _lprofBufferWriter, symObjAddr: 0x0, symBinAddr: 0x100022120, symSize: 0x60 }
  - { offset: 0x47ED1, size: 0x8, addend: 0x0, symName: _lprofBufferIOWrite, symObjAddr: 0x100, symBinAddr: 0x100022180, symSize: 0x110 }
  - { offset: 0x47FEA, size: 0x8, addend: 0x0, symName: _lprofWriteData, symObjAddr: 0x2A0, symBinAddr: 0x100022290, symSize: 0x120 }
  - { offset: 0x48429, size: 0x8, addend: 0x0, symName: _lprofWriteDataImpl, symObjAddr: 0x3C0, symBinAddr: 0x1000223B0, symSize: 0x6E0 }
  - { offset: 0x48784, size: 0x8, addend: 0x0, symName: _writeOneValueProfData, symObjAddr: 0xB40, symBinAddr: 0x100022A90, symSize: 0x438 }
  - { offset: 0x48A40, size: 0x8, addend: 0x0, symName: __RNvCskdKJRKLKjqM_7___rustc10rust_panic, symObjAddr: 0x0, symBinAddr: 0x10005EB10, symSize: 0x70 }
  - { offset: 0x48D7B, size: 0x8, addend: 0x0, symName: '__ZN42_$LT$$RF$T$u20$as$u20$core..fmt..Debug$GT$3fmt17h611062ea6589b381E', symObjAddr: 0x27920, symBinAddr: 0x100032AF0, symSize: 0x30 }
  - { offset: 0x48DC1, size: 0x8, addend: 0x0, symName: '__ZN42_$LT$$RF$T$u20$as$u20$core..fmt..Debug$GT$3fmt17h67462dcd352e9f70E', symObjAddr: 0x27A20, symBinAddr: 0x100032B20, symSize: 0x30 }
  - { offset: 0x48E07, size: 0x8, addend: 0x0, symName: '__ZN42_$LT$$RF$T$u20$as$u20$core..fmt..Debug$GT$3fmt17ha3f9e4fd80ade547E', symObjAddr: 0x27D30, symBinAddr: 0x100032B50, symSize: 0x20 }
  - { offset: 0x48E1B, size: 0x8, addend: 0x0, symName: '__ZN42_$LT$$RF$T$u20$as$u20$core..fmt..Debug$GT$3fmt17hd6b383e11abcf534E', symObjAddr: 0x27FB0, symBinAddr: 0x100032B70, symSize: 0x20 }
  - { offset: 0x48E4C, size: 0x8, addend: 0x0, symName: '__ZN42_$LT$$RF$T$u20$as$u20$core..fmt..Debug$GT$3fmt17hedcae28885211270E', symObjAddr: 0x28060, symBinAddr: 0x100032B90, symSize: 0x80 }
  - { offset: 0x48F70, size: 0x8, addend: 0x0, symName: '__ZN44_$LT$$RF$T$u20$as$u20$core..fmt..Display$GT$3fmt17h2befab159451fc05E', symObjAddr: 0x28130, symBinAddr: 0x100032C10, symSize: 0x20 }
  - { offset: 0x48F8B, size: 0x8, addend: 0x0, symName: '__ZN44_$LT$$RF$T$u20$as$u20$core..fmt..Display$GT$3fmt17had011a6e3beb8b51E', symObjAddr: 0x28150, symBinAddr: 0x100032C30, symSize: 0x90 }
  - { offset: 0x49035, size: 0x8, addend: 0x0, symName: '__ZN4core3fmt3num50_$LT$impl$u20$core..fmt..Debug$u20$for$u20$i32$GT$3fmt17h0317b62489790191E', symObjAddr: 0x284D0, symBinAddr: 0x100032D10, symSize: 0x30 }
  - { offset: 0x49064, size: 0x8, addend: 0x0, symName: '__ZN4core3fmt3num52_$LT$impl$u20$core..fmt..Debug$u20$for$u20$usize$GT$3fmt17h4806199c82f902ceE', symObjAddr: 0x28590, symBinAddr: 0x100032D40, symSize: 0x30 }
  - { offset: 0x490B5, size: 0x8, addend: 0x0, symName: __ZN4core3fmt5Write10write_char17h2203fddc9d642afeE, symObjAddr: 0x285C0, symBinAddr: 0x100032D70, symSize: 0xF0 }
  - { offset: 0x491FC, size: 0x8, addend: 0x0, symName: __ZN4core3fmt5Write10write_char17h80d2a9496aca00b0E, symObjAddr: 0x28810, symBinAddr: 0x100032E60, symSize: 0xE0 }
  - { offset: 0x49280, size: 0x8, addend: 0x0, symName: __ZN4core3fmt5Write10write_char17hc46b6f7c3c3194cbE, symObjAddr: 0x288F0, symBinAddr: 0x100032F40, symSize: 0x130 }
  - { offset: 0x49422, size: 0x8, addend: 0x0, symName: __ZN4core3fmt5Write10write_char17hdac7d1ed87bd809bE, symObjAddr: 0x28B00, symBinAddr: 0x100033070, symSize: 0x160 }
  - { offset: 0x495D5, size: 0x8, addend: 0x0, symName: __ZN4core3fmt5Write9write_fmt17hd3928726ab1abb27E, symObjAddr: 0x28D00, symBinAddr: 0x1000331D0, symSize: 0x50 }
  - { offset: 0x49604, size: 0x8, addend: 0x0, symName: __ZN4core3fmt5Write9write_fmt17he343009274951ef4E, symObjAddr: 0x28D50, symBinAddr: 0x100033220, symSize: 0x50 }
  - { offset: 0x49633, size: 0x8, addend: 0x0, symName: __ZN4core3fmt5Write9write_fmt17he408d8c37cd4c2c5E, symObjAddr: 0x28DA0, symBinAddr: 0x100033270, symSize: 0x50 }
  - { offset: 0x49662, size: 0x8, addend: 0x0, symName: __ZN4core3fmt5Write9write_fmt17hec70cb0fc9ef19e4E, symObjAddr: 0x28DF0, symBinAddr: 0x1000332C0, symSize: 0x50 }
  - { offset: 0x49691, size: 0x8, addend: 0x0, symName: __ZN4core3fmt5Write9write_fmt17hfbfca6c33e82dca5E, symObjAddr: 0x28E40, symBinAddr: 0x100033310, symSize: 0x50 }
  - { offset: 0x496EE, size: 0x8, addend: 0x0, symName: '__ZN50_$LT$$BP$mut$u20$T$u20$as$u20$core..fmt..Debug$GT$3fmt17h461ef72b23c2334dE', symObjAddr: 0x3AB30, symBinAddr: 0x10003FAA0, symSize: 0x10 }
  - { offset: 0x4973B, size: 0x8, addend: 0x0, symName: '__ZN52_$LT$$RF$mut$u20$T$u20$as$u20$core..fmt..Display$GT$3fmt17he99623082ea1fa3dE', symObjAddr: 0x3B1B0, symBinAddr: 0x10003FAB0, symSize: 0x20 }
  - { offset: 0x4B995, size: 0x8, addend: 0x0, symName: '__ZN4core3ptr107drop_in_place$LT$core..pin..Pin$LT$alloc..boxed..Box$LT$std..sys..pal..unix..sync..mutex..Mutex$GT$$GT$$GT$17he4bee0bcfb03f75fE', symObjAddr: 0x294F0, symBinAddr: 0x100033570, symSize: 0x30 }
  - { offset: 0x4BA2C, size: 0x8, addend: 0x0, symName: '__ZN4core3ptr109drop_in_place$LT$alloc..sync..Arc$LT$std..sync..poison..mutex..Mutex$LT$alloc..vec..Vec$LT$u8$GT$$GT$$GT$$GT$17he5b3c9d5553080edE', symObjAddr: 0x29520, symBinAddr: 0x1000335A0, symSize: 0x20 }
  - { offset: 0x4BAAD, size: 0x8, addend: 0x0, symName: '__ZN4core3ptr119drop_in_place$LT$std..io..default_write_fmt..Adapter$LT$std..io..cursor..Cursor$LT$$RF$mut$u20$$u5b$u8$u5d$$GT$$GT$$GT$17h8ef58680b6ede286E', symObjAddr: 0x295C0, symBinAddr: 0x1000335C0, symSize: 0x20 }
  - { offset: 0x4BAD0, size: 0x8, addend: 0x0, symName: '__ZN4core3ptr123drop_in_place$LT$addr2line..Context$LT$gimli..read..endian_slice..EndianSlice$LT$gimli..endianity..LittleEndian$GT$$GT$$GT$17h4096ebf47a84add1E', symObjAddr: 0x295E0, symBinAddr: 0x1000335E0, symSize: 0x60 }
  - { offset: 0x4BB75, size: 0x8, addend: 0x0, symName: '__ZN4core3ptr128drop_in_place$LT$core..result..Result$LT$$RF$std..thread..Thread$C$$LP$$RF$std..thread..Thread$C$std..thread..Thread$RP$$GT$$GT$17h5b35dce14f68d27eE', symObjAddr: 0x29640, symBinAddr: 0x100033640, symSize: 0x20 }
  - { offset: 0x4BC97, size: 0x8, addend: 0x0, symName: '__ZN4core3ptr129drop_in_place$LT$addr2line..unit..ResUnit$LT$gimli..read..endian_slice..EndianSlice$LT$gimli..endianity..LittleEndian$GT$$GT$$GT$17h5b41b59ec8c6acd1E', symObjAddr: 0x29660, symBinAddr: 0x100033660, symSize: 0x100 }
  - { offset: 0x4BEA5, size: 0x8, addend: 0x0, symName: '__ZN4core3ptr129drop_in_place$LT$addr2line..unit..SupUnit$LT$gimli..read..endian_slice..EndianSlice$LT$gimli..endianity..LittleEndian$GT$$GT$$GT$17h7745e598093ea497E', symObjAddr: 0x29760, symBinAddr: 0x100033760, symSize: 0x50 }
  - { offset: 0x4BF50, size: 0x8, addend: 0x0, symName: '__ZN4core3ptr130drop_in_place$LT$addr2line..unit..ResUnits$LT$gimli..read..endian_slice..EndianSlice$LT$gimli..endianity..LittleEndian$GT$$GT$$GT$17h8ac001c378159224E', symObjAddr: 0x297B0, symBinAddr: 0x1000337B0, symSize: 0xE0 }
  - { offset: 0x4C0F9, size: 0x8, addend: 0x0, symName: '__ZN4core3ptr130drop_in_place$LT$addr2line..unit..SupUnits$LT$gimli..read..endian_slice..EndianSlice$LT$gimli..endianity..LittleEndian$GT$$GT$$GT$17hf4d4e85b8cf1677eE', symObjAddr: 0x29890, symBinAddr: 0x100033890, symSize: 0xE0 }
  - { offset: 0x4C295, size: 0x8, addend: 0x0, symName: '__ZN4core3ptr130drop_in_place$LT$gimli..read..dwarf..Dwarf$LT$gimli..read..endian_slice..EndianSlice$LT$gimli..endianity..LittleEndian$GT$$GT$$GT$17h00351692336cc8a5E', symObjAddr: 0x29970, symBinAddr: 0x100033970, symSize: 0x60 }
  - { offset: 0x4C2FF, size: 0x8, addend: 0x0, symName: '__ZN4core3ptr131drop_in_place$LT$$u5b$core..option..Option$LT$core..option..Option$LT$std..backtrace_rs..symbolize..gimli..Mapping$GT$$GT$$u5d$$GT$17h5e49fcba991e0fefE', symObjAddr: 0x299D0, symBinAddr: 0x1000339D0, symSize: 0xE0 }
  - { offset: 0x4C3A9, size: 0x8, addend: 0x0, symName: '__ZN4core3ptr131drop_in_place$LT$alloc..boxed..Box$LT$dyn$u20$core..ops..function..FnOnce$LT$$LP$$RP$$GT$$u2b$Output$u20$$u3d$$u20$$LP$$RP$$GT$$GT$17h34dfa6de81a90f60E', symObjAddr: 0x29AB0, symBinAddr: 0x100033AB0, symSize: 0x70 }
  - { offset: 0x4C494, size: 0x8, addend: 0x0, symName: '__ZN4core3ptr137drop_in_place$LT$gimli..read..dwarf..Unit$LT$gimli..read..endian_slice..EndianSlice$LT$gimli..endianity..LittleEndian$GT$$C$usize$GT$$GT$17h8a3dedf63945c7ffE', symObjAddr: 0x29B20, symBinAddr: 0x100033B20, symSize: 0x50 }
  - { offset: 0x4C57D, size: 0x8, addend: 0x0, symName: '__ZN4core3ptr138drop_in_place$LT$addr2line..function..LazyFunction$LT$gimli..read..endian_slice..EndianSlice$LT$gimli..endianity..LittleEndian$GT$$GT$$GT$17h0f8e66548b648d63E', symObjAddr: 0x29B70, symBinAddr: 0x100033B70, symSize: 0x60 }
  - { offset: 0x4C594, size: 0x8, addend: 0x0, symName: '__ZN4core3ptr138drop_in_place$LT$addr2line..function..LazyFunction$LT$gimli..read..endian_slice..EndianSlice$LT$gimli..endianity..LittleEndian$GT$$GT$$GT$17h0f8e66548b648d63E', symObjAddr: 0x29B70, symBinAddr: 0x100033B70, symSize: 0x60 }
  - { offset: 0x4C5A9, size: 0x8, addend: 0x0, symName: '__ZN4core3ptr138drop_in_place$LT$addr2line..function..LazyFunction$LT$gimli..read..endian_slice..EndianSlice$LT$gimli..endianity..LittleEndian$GT$$GT$$GT$17h0f8e66548b648d63E', symObjAddr: 0x29B70, symBinAddr: 0x100033B70, symSize: 0x60 }
  - { offset: 0x4C5BE, size: 0x8, addend: 0x0, symName: '__ZN4core3ptr138drop_in_place$LT$addr2line..function..LazyFunction$LT$gimli..read..endian_slice..EndianSlice$LT$gimli..endianity..LittleEndian$GT$$GT$$GT$17h0f8e66548b648d63E', symObjAddr: 0x29B70, symBinAddr: 0x100033B70, symSize: 0x60 }
  - { offset: 0x4C6F2, size: 0x8, addend: 0x0, symName: '__ZN4core3ptr144drop_in_place$LT$alloc..vec..Vec$LT$core..option..Option$LT$core..option..Option$LT$std..backtrace_rs..symbolize..gimli..Mapping$GT$$GT$$GT$$GT$17hd133ee3f082661a3E', symObjAddr: 0x29BD0, symBinAddr: 0x100033BD0, symSize: 0x80 }
  - { offset: 0x4C84C, size: 0x8, addend: 0x0, symName: '__ZN4core3ptr152drop_in_place$LT$alloc..vec..Vec$LT$addr2line..unit..ResUnit$LT$gimli..read..endian_slice..EndianSlice$LT$gimli..endianity..LittleEndian$GT$$GT$$GT$$GT$17h687eea1ef8e4dccbE', symObjAddr: 0x29D40, symBinAddr: 0x100033C50, symSize: 0xD0 }
  - { offset: 0x4C9BB, size: 0x8, addend: 0x0, symName: '__ZN4core3ptr152drop_in_place$LT$alloc..vec..Vec$LT$addr2line..unit..SupUnit$LT$gimli..read..endian_slice..EndianSlice$LT$gimli..endianity..LittleEndian$GT$$GT$$GT$$GT$17h43b55f1c1ec40770E', symObjAddr: 0x29E10, symBinAddr: 0x100033D20, symSize: 0x100 }
  - { offset: 0x4CBBF, size: 0x8, addend: 0x0, symName: '__ZN4core3ptr156drop_in_place$LT$alloc..boxed..Box$LT$$u5b$core..option..Option$LT$core..option..Option$LT$std..backtrace_rs..symbolize..gimli..Mapping$GT$$GT$$u5d$$GT$$GT$17h64285ccbe01a68bbE', symObjAddr: 0x29F10, symBinAddr: 0x100033E20, symSize: 0xF0 }
  - { offset: 0x4CCE9, size: 0x8, addend: 0x0, symName: '__ZN4core3ptr159drop_in_place$LT$alloc..sync..ArcInner$LT$gimli..read..dwarf..Dwarf$LT$gimli..read..endian_slice..EndianSlice$LT$gimli..endianity..LittleEndian$GT$$GT$$GT$$GT$17ha7d070261ff0f422E', symObjAddr: 0x2A0A0, symBinAddr: 0x100033F10, symSize: 0x60 }
  - { offset: 0x4CD9A, size: 0x8, addend: 0x0, symName: '__ZN4core3ptr161drop_in_place$LT$alloc..vec..Vec$LT$addr2line..function..LazyFunction$LT$gimli..read..endian_slice..EndianSlice$LT$gimli..endianity..LittleEndian$GT$$GT$$GT$$GT$17h224d020c77f1c5c5E', symObjAddr: 0x2A100, symBinAddr: 0x100033F70, symSize: 0xC0 }
  - { offset: 0x4CFD7, size: 0x8, addend: 0x0, symName: '__ZN4core3ptr172drop_in_place$LT$core..result..Result$LT$addr2line..Context$LT$gimli..read..endian_slice..EndianSlice$LT$gimli..endianity..LittleEndian$GT$$GT$$C$gimli..read..Error$GT$$GT$17h9689e9d3357a2b29E', symObjAddr: 0x2A270, symBinAddr: 0x100034030, symSize: 0x70 }
  - { offset: 0x4D058, size: 0x8, addend: 0x0, symName: '__ZN4core3ptr173drop_in_place$LT$alloc..boxed..Box$LT$$u5b$addr2line..function..LazyFunction$LT$gimli..read..endian_slice..EndianSlice$LT$gimli..endianity..LittleEndian$GT$$GT$$u5d$$GT$$GT$17h854691247aa87af0E', symObjAddr: 0x2A2E0, symBinAddr: 0x1000340A0, symSize: 0xA0 }
  - { offset: 0x4D06F, size: 0x8, addend: 0x0, symName: '__ZN4core3ptr173drop_in_place$LT$alloc..boxed..Box$LT$$u5b$addr2line..function..LazyFunction$LT$gimli..read..endian_slice..EndianSlice$LT$gimli..endianity..LittleEndian$GT$$GT$$u5d$$GT$$GT$17h854691247aa87af0E', symObjAddr: 0x2A2E0, symBinAddr: 0x1000340A0, symSize: 0xA0 }
  - { offset: 0x4D244, size: 0x8, addend: 0x0, symName: '__ZN4core3ptr181drop_in_place$LT$core..option..Option$LT$gimli..read..line..IncompleteLineProgram$LT$gimli..read..endian_slice..EndianSlice$LT$gimli..endianity..LittleEndian$GT$$C$usize$GT$$GT$$GT$17ha2da1af52ac50966E', symObjAddr: 0x2A3F0, symBinAddr: 0x100034140, symSize: 0xA0 }
  - { offset: 0x4D49D, size: 0x8, addend: 0x0, symName: '__ZN4core3ptr181drop_in_place$LT$core..result..Result$LT$addr2line..frame..FrameIter$LT$gimli..read..endian_slice..EndianSlice$LT$gimli..endianity..LittleEndian$GT$$GT$$C$gimli..read..Error$GT$$GT$17hb41a886cf8fb4359E', symObjAddr: 0x2A490, symBinAddr: 0x1000341E0, symSize: 0x40 }
  - { offset: 0x4D5DB, size: 0x8, addend: 0x0, symName: '__ZN4core3ptr184drop_in_place$LT$core..result..Result$LT$addr2line..function..Functions$LT$gimli..read..endian_slice..EndianSlice$LT$gimli..endianity..LittleEndian$GT$$GT$$C$gimli..read..Error$GT$$GT$17h16817f6f8b785913E', symObjAddr: 0x2A4D0, symBinAddr: 0x100034220, symSize: 0xE0 }
  - { offset: 0x4D86B, size: 0x8, addend: 0x0, symName: '__ZN4core3ptr194drop_in_place$LT$core..result..Result$LT$std..sync..poison..mutex..MutexGuard$LT$$LP$$RP$$GT$$C$std..sync..poison..PoisonError$LT$std..sync..poison..mutex..MutexGuard$LT$$LP$$RP$$GT$$GT$$GT$$GT$17h05108be9b923664fE', symObjAddr: 0x2A620, symBinAddr: 0x100034300, symSize: 0x50 }
  - { offset: 0x4D8A9, size: 0x8, addend: 0x0, symName: '__ZN4core3ptr231drop_in_place$LT$core..result..Result$LT$core..option..Option$LT$alloc..boxed..Box$LT$addr2line..unit..DwoUnit$LT$gimli..read..endian_slice..EndianSlice$LT$gimli..endianity..LittleEndian$GT$$GT$$GT$$GT$$C$gimli..read..Error$GT$$GT$17h77faee68108766d7E', symObjAddr: 0x2A670, symBinAddr: 0x100034350, symSize: 0xB0 }
  - { offset: 0x4DA73, size: 0x8, addend: 0x0, symName: '__ZN4core3ptr238drop_in_place$LT$alloc..boxed..convert..$LT$impl$u20$core..convert..From$LT$alloc..string..String$GT$$u20$for$u20$alloc..boxed..Box$LT$dyn$u20$core..error..Error$u2b$core..marker..Sync$u2b$core..marker..Send$GT$$GT$..from..StringError$GT$17h77c71369405e109cE', symObjAddr: 0x2A720, symBinAddr: 0x100034400, symSize: 0x20 }
  - { offset: 0x4DB1E, size: 0x8, addend: 0x0, symName: '__ZN4core3ptr275drop_in_place$LT$gimli..read..line..LineRows$LT$gimli..read..endian_slice..EndianSlice$LT$gimli..endianity..LittleEndian$GT$$C$gimli..read..line..IncompleteLineProgram$LT$gimli..read..endian_slice..EndianSlice$LT$gimli..endianity..LittleEndian$GT$$C$usize$GT$$C$usize$GT$$GT$17hadd9cd2441f7544fE', symObjAddr: 0x2A740, symBinAddr: 0x100034420, symSize: 0xA0 }
  - { offset: 0x4DD93, size: 0x8, addend: 0x0, symName: '__ZN4core3ptr280drop_in_place$LT$$LT$alloc..collections..btree..map..IntoIter$LT$K$C$V$C$A$GT$$u20$as$u20$core..ops..drop..Drop$GT$..drop..DropGuard$LT$u64$C$core..result..Result$LT$alloc..sync..Arc$LT$gimli..read..abbrev..Abbreviations$GT$$C$gimli..read..Error$GT$$C$alloc..alloc..Global$GT$$GT$17h12b50f4912f8d053E', symObjAddr: 0x2A7E0, symBinAddr: 0x1000344C0, symSize: 0x80 }
  - { offset: 0x4DEBF, size: 0x8, addend: 0x0, symName: '__ZN4core3ptr284drop_in_place$LT$core..result..Result$LT$$RF$core..result..Result$LT$addr2line..line..Lines$C$gimli..read..Error$GT$$C$$LP$$RF$core..result..Result$LT$addr2line..line..Lines$C$gimli..read..Error$GT$$C$core..result..Result$LT$addr2line..line..Lines$C$gimli..read..Error$GT$$RP$$GT$$GT$17h10f406cda706aac9E', symObjAddr: 0x2A860, symBinAddr: 0x100034540, symSize: 0x20 }
  - { offset: 0x4DEF0, size: 0x8, addend: 0x0, symName: '__ZN4core3ptr42drop_in_place$LT$alloc..string..String$GT$17h13a2c872d6de9b78E', symObjAddr: 0x2AA20, symBinAddr: 0x100034560, symSize: 0x20 }
  - { offset: 0x4DF85, size: 0x8, addend: 0x0, symName: '__ZN4core3ptr42drop_in_place$LT$std..io..error..Error$GT$17hf3cc5d9531ccf1c0E', symObjAddr: 0x2AA40, symBinAddr: 0x100034580, symSize: 0xA0 }
  - { offset: 0x4E1A3, size: 0x8, addend: 0x0, symName: '__ZN4core3ptr44drop_in_place$LT$object..read..ObjectMap$GT$17h9dfc9bd6f6ee5a53E', symObjAddr: 0x2AAE0, symBinAddr: 0x100034620, symSize: 0x50 }
  - { offset: 0x4E2D2, size: 0x8, addend: 0x0, symName: '__ZN4core3ptr46drop_in_place$LT$alloc..vec..Vec$LT$u8$GT$$GT$17h50cadf63df0efd66E', symObjAddr: 0x2AB90, symBinAddr: 0x100034670, symSize: 0x20 }
  - { offset: 0x4E351, size: 0x8, addend: 0x0, symName: '__ZN4core3ptr46drop_in_place$LT$std..io..stdio..StdinLock$GT$17h859807256c432efeE', symObjAddr: 0x2ABB0, symBinAddr: 0x100034690, symSize: 0x50 }
  - { offset: 0x4E368, size: 0x8, addend: 0x0, symName: '__ZN4core3ptr46drop_in_place$LT$std..io..stdio..StdinLock$GT$17h859807256c432efeE', symObjAddr: 0x2ABB0, symBinAddr: 0x100034690, symSize: 0x50 }
  - { offset: 0x4E37D, size: 0x8, addend: 0x0, symName: '__ZN4core3ptr46drop_in_place$LT$std..io..stdio..StdinLock$GT$17h859807256c432efeE', symObjAddr: 0x2ABB0, symBinAddr: 0x100034690, symSize: 0x50 }
  - { offset: 0x4E461, size: 0x8, addend: 0x0, symName: '__ZN4core3ptr48drop_in_place$LT$alloc..ffi..c_str..NulError$GT$17h05fdddfd5dec9957E', symObjAddr: 0x2AD00, symBinAddr: 0x1000346E0, symSize: 0x20 }
  - { offset: 0x4E504, size: 0x8, addend: 0x0, symName: '__ZN4core3ptr557drop_in_place$LT$core..result..Result$LT$$RF$core..result..Result$LT$addr2line..function..Function$LT$gimli..read..endian_slice..EndianSlice$LT$gimli..endianity..LittleEndian$GT$$GT$$C$gimli..read..Error$GT$$C$$LP$$RF$core..result..Result$LT$addr2line..function..Function$LT$gimli..read..endian_slice..EndianSlice$LT$gimli..endianity..LittleEndian$GT$$GT$$C$gimli..read..Error$GT$$C$core..result..Result$LT$addr2line..function..Function$LT$gimli..read..endian_slice..EndianSlice$LT$gimli..endianity..LittleEndian$GT$$GT$$C$gimli..read..Error$GT$$RP$$GT$$GT$17hc44de9d152e84349E', symObjAddr: 0x2AFE0, symBinAddr: 0x100034700, symSize: 0x60 }
  - { offset: 0x4E6EE, size: 0x8, addend: 0x0, symName: '__ZN4core3ptr55drop_in_place$LT$gimli..read..abbrev..Abbreviations$GT$17h650fa2a70ecf9e05E', symObjAddr: 0x2B040, symBinAddr: 0x100034760, symSize: 0x130 }
  - { offset: 0x4EA37, size: 0x8, addend: 0x0, symName: '__ZN4core3ptr560drop_in_place$LT$core..result..Result$LT$$RF$core..result..Result$LT$addr2line..function..Functions$LT$gimli..read..endian_slice..EndianSlice$LT$gimli..endianity..LittleEndian$GT$$GT$$C$gimli..read..Error$GT$$C$$LP$$RF$core..result..Result$LT$addr2line..function..Functions$LT$gimli..read..endian_slice..EndianSlice$LT$gimli..endianity..LittleEndian$GT$$GT$$C$gimli..read..Error$GT$$C$core..result..Result$LT$addr2line..function..Functions$LT$gimli..read..endian_slice..EndianSlice$LT$gimli..endianity..LittleEndian$GT$$GT$$C$gimli..read..Error$GT$$RP$$GT$$GT$17h6cf82f479787438aE', symObjAddr: 0x2B270, symBinAddr: 0x100034890, symSize: 0x20 }
  - { offset: 0x4EA92, size: 0x8, addend: 0x0, symName: '__ZN4core3ptr60drop_in_place$LT$gimli..read..abbrev..AbbreviationsCache$GT$17h8ea9413fce52b0aeE', symObjAddr: 0x2B290, symBinAddr: 0x1000348B0, symSize: 0xE0 }
  - { offset: 0x4EBF9, size: 0x8, addend: 0x0, symName: '__ZN4core3ptr64drop_in_place$LT$std..sys..pal..unix..sync..mutex..AttrGuard$GT$17h07975ffc5879c9b3E', symObjAddr: 0x2B3E0, symBinAddr: 0x100034990, symSize: 0x40 }
  - { offset: 0x4EC38, size: 0x8, addend: 0x0, symName: '__ZN4core3ptr65drop_in_place$LT$alloc..vec..Vec$LT$alloc..string..String$GT$$GT$17h7048242ed88ea37eE', symObjAddr: 0x2B4B0, symBinAddr: 0x1000349D0, symSize: 0x90 }
  - { offset: 0x4ED9E, size: 0x8, addend: 0x0, symName: '__ZN4core3ptr65drop_in_place$LT$std..backtrace_rs..symbolize..gimli..Context$GT$17hc7e1db2a9c32a85bE', symObjAddr: 0x2B540, symBinAddr: 0x100034A60, symSize: 0x100 }
  - { offset: 0x4F01C, size: 0x8, addend: 0x0, symName: '__ZN4core3ptr66drop_in_place$LT$std..backtrace_rs..backtrace..libunwind..Bomb$GT$17hd5948bcabaf539edE', symObjAddr: 0x2B640, symBinAddr: 0x100034B60, symSize: 0x50 }
  - { offset: 0x4F068, size: 0x8, addend: 0x0, symName: '__ZN4core3ptr701drop_in_place$LT$core..result..Result$LT$$RF$core..result..Result$LT$core..option..Option$LT$alloc..boxed..Box$LT$addr2line..unit..DwoUnit$LT$gimli..read..endian_slice..EndianSlice$LT$gimli..endianity..LittleEndian$GT$$GT$$GT$$GT$$C$gimli..read..Error$GT$$C$$LP$$RF$core..result..Result$LT$core..option..Option$LT$alloc..boxed..Box$LT$addr2line..unit..DwoUnit$LT$gimli..read..endian_slice..EndianSlice$LT$gimli..endianity..LittleEndian$GT$$GT$$GT$$GT$$C$gimli..read..Error$GT$$C$core..result..Result$LT$core..option..Option$LT$alloc..boxed..Box$LT$addr2line..unit..DwoUnit$LT$gimli..read..endian_slice..EndianSlice$LT$gimli..endianity..LittleEndian$GT$$GT$$GT$$GT$$C$gimli..read..Error$GT$$RP$$GT$$GT$17h4c871d662e9baba8E', symObjAddr: 0x2B690, symBinAddr: 0x100034BB0, symSize: 0x20 }
  - { offset: 0x4F109, size: 0x8, addend: 0x0, symName: '__ZN4core3ptr70drop_in_place$LT$std..backtrace_rs..symbolize..gimli..stash..Stash$GT$17h9192affd8a73d22bE', symObjAddr: 0x2B6B0, symBinAddr: 0x100034BD0, symSize: 0xE0 }
  - { offset: 0x4F3AF, size: 0x8, addend: 0x0, symName: '__ZN4core3ptr71drop_in_place$LT$std..backtrace_rs..symbolize..gimli..macho..Object$GT$17he8bfbbbc576ba26bE', symObjAddr: 0x2B790, symBinAddr: 0x100034CB0, symSize: 0xD0 }
  - { offset: 0x4F674, size: 0x8, addend: 0x0, symName: '__ZN4core3ptr71drop_in_place$LT$std..panicking..panic_handler..FormatStringPayload$GT$17he2832ae2b85e7af7E', symObjAddr: 0x2B860, symBinAddr: 0x100034D80, symSize: 0x30 }
  - { offset: 0x4F730, size: 0x8, addend: 0x0, symName: '__ZN4core3ptr72drop_in_place$LT$core..option..Option$LT$object..read..ObjectMap$GT$$GT$17hfcefd03af094224dE', symObjAddr: 0x2B890, symBinAddr: 0x100034DB0, symSize: 0x60 }
  - { offset: 0x4F8AD, size: 0x8, addend: 0x0, symName: '__ZN4core3ptr73drop_in_place$LT$alloc..vec..Vec$LT$addr2line..line..LineSequence$GT$$GT$17ha6ada6d850d6bfd7E', symObjAddr: 0x2B8F0, symBinAddr: 0x100034E10, symSize: 0x90 }
  - { offset: 0x4FA05, size: 0x8, addend: 0x0, symName: '__ZN4core3ptr77drop_in_place$LT$alloc..boxed..Box$LT$$u5b$alloc..string..String$u5d$$GT$$GT$17hb3442e265eb8e1dcE', symObjAddr: 0x2B9D0, symBinAddr: 0x100034EA0, symSize: 0x60 }
  - { offset: 0x4FA1C, size: 0x8, addend: 0x0, symName: '__ZN4core3ptr77drop_in_place$LT$alloc..boxed..Box$LT$$u5b$alloc..string..String$u5d$$GT$$GT$17hb3442e265eb8e1dcE', symObjAddr: 0x2B9D0, symBinAddr: 0x100034EA0, symSize: 0x60 }
  - { offset: 0x4FB1A, size: 0x8, addend: 0x0, symName: '__ZN4core3ptr79drop_in_place$LT$std..sync..poison..rwlock..RwLockReadGuard$LT$$LP$$RP$$GT$$GT$17h4fa0e4fa5e15bd74E', symObjAddr: 0x2BA50, symBinAddr: 0x100034F00, symSize: 0x50 }
  - { offset: 0x4FBB6, size: 0x8, addend: 0x0, symName: '__ZN4core3ptr81drop_in_place$LT$core..result..Result$LT$$LP$$RP$$C$std..io..error..Error$GT$$GT$17h1c1edd567460b3feE', symObjAddr: 0x2BB50, symBinAddr: 0x100034F50, symSize: 0x20 }
  - { offset: 0x4FBE6, size: 0x8, addend: 0x0, symName: '__ZN4core3ptr82drop_in_place$LT$alloc..sync..ArcInner$LT$std..sys..fs..unix..InnerReadDir$GT$$GT$17ha8fbff3aaada4fb8E', symObjAddr: 0x2BC40, symBinAddr: 0x100034F70, symSize: 0x60 }
  - { offset: 0x4FD89, size: 0x8, addend: 0x0, symName: '__ZN4core3ptr90drop_in_place$LT$std..io..buffered..bufwriter..BufWriter$LT$W$GT$..flush_buf..BufGuard$GT$17he4170abc552595a7E', symObjAddr: 0x2BD40, symBinAddr: 0x100034FD0, symSize: 0x50 }
  - { offset: 0x4FF10, size: 0x8, addend: 0x0, symName: '__ZN4core3ptr92drop_in_place$LT$core..result..Result$LT$addr2line..line..Lines$C$gimli..read..Error$GT$$GT$17h2e8e0626d3a84d8eE', symObjAddr: 0x2BDF0, symBinAddr: 0x100035020, symSize: 0xE0 }
  - { offset: 0x50156, size: 0x8, addend: 0x0, symName: '__ZN4core3ptr93drop_in_place$LT$core..option..Option$LT$std..backtrace_rs..symbolize..gimli..Mapping$GT$$GT$17h136f8c1ae5619cc2E', symObjAddr: 0x2BED0, symBinAddr: 0x100035100, symSize: 0x70 }
  - { offset: 0x501E5, size: 0x8, addend: 0x0, symName: '__ZN4core3ptr95drop_in_place$LT$std..io..buffered..linewriter..LineWriter$LT$std..io..stdio..StdoutRaw$GT$$GT$17h9eac947b14297a02E', symObjAddr: 0x2BF40, symBinAddr: 0x100035170, symSize: 0x100 }
  - { offset: 0x52139, size: 0x8, addend: 0x0, symName: __ZN4core5panic12PanicPayload6as_str17h0a0af93859b241b1E, symObjAddr: 0x302B0, symBinAddr: 0x1000352E0, symSize: 0x10 }
  - { offset: 0x540E4, size: 0x8, addend: 0x0, symName: __ZN4core5slice4sort8unstable7ipnsort17h2b4a537af7352546E, symObjAddr: 0x39850, symBinAddr: 0x10003E880, symSize: 0x1A0 }
  - { offset: 0x5438C, size: 0x8, addend: 0x0, symName: __ZN4core5slice4sort8unstable7ipnsort17h52ef4485ec8e6977E, symObjAddr: 0x399F0, symBinAddr: 0x10003EA20, symSize: 0xE0 }
  - { offset: 0x5454E, size: 0x8, addend: 0x0, symName: __ZN4core5slice4sort8unstable8heapsort8heapsort17h4b4721c6bb82e1c1E, symObjAddr: 0x39AD0, symBinAddr: 0x10003EB00, symSize: 0x120 }
  - { offset: 0x54794, size: 0x8, addend: 0x0, symName: __ZN4core5slice4sort8unstable8heapsort8heapsort17hab9566a01254ecddE, symObjAddr: 0x39BF0, symBinAddr: 0x10003EC20, symSize: 0x1D0 }
  - { offset: 0x54B46, size: 0x8, addend: 0x0, symName: __ZN4core5slice4sort8unstable9quicksort9quicksort17h0b8d9e0f156a468cE, symObjAddr: 0x39DC0, symBinAddr: 0x10003EDF0, symSize: 0x540 }
  - { offset: 0x553E6, size: 0x8, addend: 0x0, symName: __ZN4core5slice4sort8unstable9quicksort9quicksort17h5a50d5c9a636cab4E, symObjAddr: 0x3A300, symBinAddr: 0x10003F330, symSize: 0x761 }
  - { offset: 0x56049, size: 0x8, addend: 0x0, symName: __ZN4core5slice4sort6stable14driftsort_main17h3220260173ca707fE, symObjAddr: 0x31FD0, symBinAddr: 0x100037000, symSize: 0x150 }
  - { offset: 0x56321, size: 0x8, addend: 0x0, symName: __ZN4core5slice4sort6stable14driftsort_main17h4699f0e78e45ec48E, symObjAddr: 0x32120, symBinAddr: 0x100037150, symSize: 0x150 }
  - { offset: 0x565F9, size: 0x8, addend: 0x0, symName: __ZN4core5slice4sort6stable14driftsort_main17h9e6c77f5f42fb271E, symObjAddr: 0x32270, symBinAddr: 0x1000372A0, symSize: 0x160 }
  - { offset: 0x56927, size: 0x8, addend: 0x0, symName: __ZN4core5slice4sort6stable14driftsort_main17ha76b3f8bfe5161d7E, symObjAddr: 0x323D0, symBinAddr: 0x100037400, symSize: 0x160 }
  - { offset: 0x56C55, size: 0x8, addend: 0x0, symName: __ZN4core5slice4sort6stable14driftsort_main17hdb3cc37e344db5cdE, symObjAddr: 0x32530, symBinAddr: 0x100037560, symSize: 0x150 }
  - { offset: 0x56F2D, size: 0x8, addend: 0x0, symName: __ZN4core5slice4sort6stable14driftsort_main17hf9b576397ab84e46E, symObjAddr: 0x32680, symBinAddr: 0x1000376B0, symSize: 0x160 }
  - { offset: 0x57397, size: 0x8, addend: 0x0, symName: __ZN4core5slice4sort6stable5drift4sort17h0344cd1179273fdfE, symObjAddr: 0x327E0, symBinAddr: 0x100037810, symSize: 0x6E0 }
  - { offset: 0x57B3F, size: 0x8, addend: 0x0, symName: __ZN4core5slice4sort6stable5drift4sort17h5d73a28370e736e7E, symObjAddr: 0x32EC0, symBinAddr: 0x100037EF0, symSize: 0x690 }
  - { offset: 0x582F6, size: 0x8, addend: 0x0, symName: __ZN4core5slice4sort6stable5drift4sort17h7d35ffbcc89f38d4E, symObjAddr: 0x33550, symBinAddr: 0x100038580, symSize: 0x6D0 }
  - { offset: 0x58AB3, size: 0x8, addend: 0x0, symName: __ZN4core5slice4sort6stable5drift4sort17h8e4dd7b37e0e34b5E, symObjAddr: 0x33C20, symBinAddr: 0x100038C50, symSize: 0x6E0 }
  - { offset: 0x59245, size: 0x8, addend: 0x0, symName: __ZN4core5slice4sort6stable5drift4sort17hd3daeb0e07815f37E, symObjAddr: 0x34300, symBinAddr: 0x100039330, symSize: 0x690 }
  - { offset: 0x599FC, size: 0x8, addend: 0x0, symName: __ZN4core5slice4sort6stable5drift4sort17hdee5488c31b7bf79E, symObjAddr: 0x34990, symBinAddr: 0x1000399C0, symSize: 0x6B0 }
  - { offset: 0x5A43D, size: 0x8, addend: 0x0, symName: __ZN4core5slice4sort6stable9quicksort9quicksort17h49e735213ea776e8E, symObjAddr: 0x35040, symBinAddr: 0x10003A070, symSize: 0xC20 }
  - { offset: 0x5B1B6, size: 0x8, addend: 0x0, symName: __ZN4core5slice4sort6stable9quicksort9quicksort17h4e0f96bb5e50204eE, symObjAddr: 0x35C60, symBinAddr: 0x10003AC90, symSize: 0xD60 }
  - { offset: 0x5BF65, size: 0x8, addend: 0x0, symName: __ZN4core5slice4sort6stable9quicksort9quicksort17h5039615b86acfb17E, symObjAddr: 0x369C0, symBinAddr: 0x10003B9F0, symSize: 0xB50 }
  - { offset: 0x5CD5F, size: 0x8, addend: 0x0, symName: __ZN4core5slice4sort6stable9quicksort9quicksort17h54d5655b54e85608E, symObjAddr: 0x37510, symBinAddr: 0x10003C540, symSize: 0xC40 }
  - { offset: 0x5DAE8, size: 0x8, addend: 0x0, symName: __ZN4core5slice4sort6stable9quicksort9quicksort17h563ccb161c809bb9E, symObjAddr: 0x38150, symBinAddr: 0x10003D180, symSize: 0xB50 }
  - { offset: 0x5E3C0, size: 0x8, addend: 0x0, symName: __ZN4core5slice4sort6stable9quicksort9quicksort17ha4eccc1b33417963E, symObjAddr: 0x38CA0, symBinAddr: 0x10003DCD0, symSize: 0xBB0 }
  - { offset: 0x5F8EB, size: 0x8, addend: 0x0, symName: __ZN4core5slice4sort6shared9smallsort12sort4_stable17h429c53b39c3949acE, symObjAddr: 0x30980, symBinAddr: 0x1000359B0, symSize: 0x1B0 }
  - { offset: 0x5FAC2, size: 0x8, addend: 0x0, symName: __ZN4core5slice4sort6shared9smallsort12sort4_stable17h8e40b2e7e5f636d6E, symObjAddr: 0x30B30, symBinAddr: 0x100035B60, symSize: 0x1F0 }
  - { offset: 0x5FECD, size: 0x8, addend: 0x0, symName: __ZN4core5slice4sort6shared9smallsort12sort8_stable17hd86b794b574b633cE, symObjAddr: 0x30D20, symBinAddr: 0x100035D50, symSize: 0x3E0 }
  - { offset: 0x60585, size: 0x8, addend: 0x0, symName: __ZN4core5slice4sort6shared9smallsort18small_sort_general17h0ffd90b03ee23f71E, symObjAddr: 0x31100, symBinAddr: 0x100036130, symSize: 0x510 }
  - { offset: 0x60AA2, size: 0x8, addend: 0x0, symName: __ZN4core5slice4sort6shared9smallsort18small_sort_general17h7a2a4ab0b4034136E, symObjAddr: 0x31610, symBinAddr: 0x100036640, symSize: 0x600 }
  - { offset: 0x612A5, size: 0x8, addend: 0x0, symName: __ZN4core5slice4sort6shared9smallsort25insertion_sort_shift_left17h0b99a1dace0461e0E, symObjAddr: 0x31C10, symBinAddr: 0x100036C40, symSize: 0x120 }
  - { offset: 0x6146A, size: 0x8, addend: 0x0, symName: __ZN4core5slice4sort6shared9smallsort25insertion_sort_shift_left17h1aa889efeb4092c1E, symObjAddr: 0x31D30, symBinAddr: 0x100036D60, symSize: 0xF0 }
  - { offset: 0x61598, size: 0x8, addend: 0x0, symName: __ZN4core5slice4sort6shared9smallsort25insertion_sort_shift_left17h39fda689822c34e3E, symObjAddr: 0x31E20, symBinAddr: 0x100036E50, symSize: 0xF0 }
  - { offset: 0x616C7, size: 0x8, addend: 0x0, symName: __ZN4core5slice4sort6shared9smallsort25insertion_sort_shift_left17h519a67896e46d7b4E, symObjAddr: 0x31F10, symBinAddr: 0x100036F40, symSize: 0xC0 }
  - { offset: 0x619E7, size: 0x8, addend: 0x0, symName: __ZN4core5slice4sort6shared5pivot11median3_rec17h0bad552e41eb9dc6E, symObjAddr: 0x302C0, symBinAddr: 0x1000352F0, symSize: 0xC0 }
  - { offset: 0x61AEE, size: 0x8, addend: 0x0, symName: __ZN4core5slice4sort6shared5pivot11median3_rec17h69042159816e04f4E, symObjAddr: 0x30380, symBinAddr: 0x1000353B0, symSize: 0xC0 }
  - { offset: 0x61BF7, size: 0x8, addend: 0x0, symName: __ZN4core5slice4sort6shared5pivot11median3_rec17h6b39c5ff16384b97E, symObjAddr: 0x30440, symBinAddr: 0x100035470, symSize: 0xB0 }
  - { offset: 0x61D2A, size: 0x8, addend: 0x0, symName: __ZN4core5slice4sort6shared5pivot11median3_rec17h78bc361aba28d375E, symObjAddr: 0x304F0, symBinAddr: 0x100035520, symSize: 0x140 }
  - { offset: 0x61F5F, size: 0x8, addend: 0x0, symName: __ZN4core5slice4sort6shared5pivot11median3_rec17h864e4c2ed0405f91E, symObjAddr: 0x30630, symBinAddr: 0x100035660, symSize: 0xC0 }
  - { offset: 0x62066, size: 0x8, addend: 0x0, symName: __ZN4core5slice4sort6shared5pivot11median3_rec17h9ee77f2cab2d4c5dE, symObjAddr: 0x306F0, symBinAddr: 0x100035720, symSize: 0xC0 }
  - { offset: 0x6216D, size: 0x8, addend: 0x0, symName: __ZN4core5slice4sort6shared5pivot11median3_rec17ha14fc07cd9e49161E, symObjAddr: 0x307B0, symBinAddr: 0x1000357E0, symSize: 0xC0 }
  - { offset: 0x62274, size: 0x8, addend: 0x0, symName: __ZN4core5slice4sort6shared5pivot11median3_rec17hfa048ff775602914E, symObjAddr: 0x30870, symBinAddr: 0x1000358A0, symSize: 0x110 }
  - { offset: 0x62480, size: 0x8, addend: 0x0, symName: '__ZN55_$LT$$RF$str$u20$as$u20$core..str..pattern..Pattern$GT$15is_contained_in17hc8794a96b582b38aE', symObjAddr: 0x3B790, symBinAddr: 0x10003FAD0, symSize: 0x860 }
  - { offset: 0x62C1B, size: 0x8, addend: 0x0, symName: '__ZN4core3str7pattern13simd_contains28_$u7b$$u7b$closure$u7d$$u7d$17ha6d539c15f4ab7c0E', symObjAddr: 0x2C040, symBinAddr: 0x10005F6A0, symSize: 0x100 }
  - { offset: 0x643B1, size: 0x8, addend: 0x0, symName: '__ZN4core3ops8function6FnOnce40call_once$u7b$$u7b$vtable.shim$u7d$$u7d$17h0d3238feb6ae2c7dE', symObjAddr: 0x29150, symBinAddr: 0x100033360, symSize: 0x10 }
  - { offset: 0x643ED, size: 0x8, addend: 0x0, symName: '__ZN4core3ops8function6FnOnce40call_once$u7b$$u7b$vtable.shim$u7d$$u7d$17h3292d6654d591370E', symObjAddr: 0x29160, symBinAddr: 0x100033370, symSize: 0x90 }
  - { offset: 0x644D1, size: 0x8, addend: 0x0, symName: '__ZN4core3ops8function6FnOnce40call_once$u7b$$u7b$vtable.shim$u7d$$u7d$17h59b44727da8ea4adE', symObjAddr: 0x29280, symBinAddr: 0x100033400, symSize: 0x90 }
  - { offset: 0x6463B, size: 0x8, addend: 0x0, symName: '__ZN4core3ops8function6FnOnce40call_once$u7b$$u7b$vtable.shim$u7d$$u7d$17h8ff5d8d366cb3dcdE', symObjAddr: 0x29350, symBinAddr: 0x100033490, symSize: 0x90 }
  - { offset: 0x64781, size: 0x8, addend: 0x0, symName: '__ZN4core3ops8function6FnOnce40call_once$u7b$$u7b$vtable.shim$u7d$$u7d$17h994b7e277a3827ddE', symObjAddr: 0x293E0, symBinAddr: 0x100033520, symSize: 0x10 }
  - { offset: 0x647D2, size: 0x8, addend: 0x0, symName: '__ZN4core3ops8function6FnOnce40call_once$u7b$$u7b$vtable.shim$u7d$$u7d$17h9e6dbb12aa376ac1E', symObjAddr: 0x29400, symBinAddr: 0x100033530, symSize: 0x10 }
  - { offset: 0x6480E, size: 0x8, addend: 0x0, symName: '__ZN4core3ops8function6FnOnce40call_once$u7b$$u7b$vtable.shim$u7d$$u7d$17hdb0d13364863d228E', symObjAddr: 0x29420, symBinAddr: 0x100033540, symSize: 0x20 }
  - { offset: 0x6484A, size: 0x8, addend: 0x0, symName: '__ZN4core3ops8function6FnOnce40call_once$u7b$$u7b$vtable.shim$u7d$$u7d$17hf1524fee5c53f54cE', symObjAddr: 0x294E0, symBinAddr: 0x100033560, symSize: 0x10 }
  - { offset: 0x65563, size: 0x8, addend: 0x0, symName: '__ZN36_$LT$T$u20$as$u20$core..any..Any$GT$7type_id17hf38d30a50d909875E', symObjAddr: 0x1250, symBinAddr: 0x1000233D0, symSize: 0x30 }
  - { offset: 0x65592, size: 0x8, addend: 0x0, symName: '__ZN36_$LT$T$u20$as$u20$core..any..Any$GT$7type_id17hfe9fbb449010764eE', symObjAddr: 0x1280, symBinAddr: 0x100023400, symSize: 0x30 }
  - { offset: 0x665A6, size: 0x8, addend: 0x0, symName: '__ZN4core4cell4once17OnceCell$LT$T$GT$8try_init17h164ad122d3fdde11E', symObjAddr: 0x2C140, symBinAddr: 0x10005F7A0, symSize: 0x70 }
  - { offset: 0x665C4, size: 0x8, addend: 0x0, symName: '__ZN4core4cell4once17OnceCell$LT$T$GT$8try_init17h164ad122d3fdde11E', symObjAddr: 0x2C140, symBinAddr: 0x10005F7A0, symSize: 0x70 }
  - { offset: 0x665D9, size: 0x8, addend: 0x0, symName: '__ZN4core4cell4once17OnceCell$LT$T$GT$8try_init17h164ad122d3fdde11E', symObjAddr: 0x2C140, symBinAddr: 0x10005F7A0, symSize: 0x70 }
  - { offset: 0x665ED, size: 0x8, addend: 0x0, symName: '__ZN4core4cell4once17OnceCell$LT$T$GT$8try_init17h164ad122d3fdde11E', symObjAddr: 0x2C140, symBinAddr: 0x10005F7A0, symSize: 0x70 }
  - { offset: 0x66644, size: 0x8, addend: 0x0, symName: '__ZN4core4cell4once17OnceCell$LT$T$GT$8try_init17h5eaa6e42f622c98bE', symObjAddr: 0x2C1B0, symBinAddr: 0x10005F810, symSize: 0x80 }
  - { offset: 0x666F7, size: 0x8, addend: 0x0, symName: '__ZN4core4cell4once17OnceCell$LT$T$GT$8try_init17h8d9b52977b5ff1b0E', symObjAddr: 0x2C230, symBinAddr: 0x10005F890, symSize: 0x8B0 }
  - { offset: 0x672B4, size: 0x8, addend: 0x0, symName: '__ZN4core4cell4once17OnceCell$LT$T$GT$8try_init17h963735826f59da1dE', symObjAddr: 0x2CAE0, symBinAddr: 0x100060140, symSize: 0x110 }
  - { offset: 0x67514, size: 0x8, addend: 0x0, symName: '__ZN4core4cell4once17OnceCell$LT$T$GT$8try_init17hbb32d690264a29aeE', symObjAddr: 0x2CBF0, symBinAddr: 0x100060250, symSize: 0x25C0 }
  - { offset: 0x6A6C0, size: 0x8, addend: 0x0, symName: '__ZN4core4cell4once17OnceCell$LT$T$GT$8try_init17he85fbe2a3a1ae7fbE', symObjAddr: 0x2F1B0, symBinAddr: 0x100062810, symSize: 0xF30 }
  - { offset: 0x6C25C, size: 0x8, addend: 0x0, symName: __ZN4core5error5Error11description17ha6a6a08fd0b06ebcE, symObjAddr: 0x301F0, symBinAddr: 0x100035270, symSize: 0x20 }
  - { offset: 0x6C276, size: 0x8, addend: 0x0, symName: __ZN4core5error5Error5cause17h5b5fd61b0af24bd8E, symObjAddr: 0x30210, symBinAddr: 0x100035290, symSize: 0x10 }
  - { offset: 0x6C290, size: 0x8, addend: 0x0, symName: __ZN4core5error5Error7provide17hcf50e4f5391fe1b4E, symObjAddr: 0x30240, symBinAddr: 0x1000352A0, symSize: 0x10 }
  - { offset: 0x6C2AA, size: 0x8, addend: 0x0, symName: __ZN4core5error5Error7type_id17h1548aa106e60bc02E, symObjAddr: 0x30250, symBinAddr: 0x1000352B0, symSize: 0x30 }
  - { offset: 0x6C2E0, size: 0x8, addend: 0x0, symName: __ZN4core9panicking13assert_failed17hd751ab4adab24333E, symObjAddr: 0x3AAF2, symBinAddr: 0x100063742, symSize: 0x3E }
  - { offset: 0x6C3C5, size: 0x8, addend: 0x0, symName: __RNvCskdKJRKLKjqM_7___rustc10rust_panic, symObjAddr: 0x0, symBinAddr: 0x10005EB10, symSize: 0x70 }
  - { offset: 0x6C3F6, size: 0x8, addend: 0x0, symName: __RNvCskdKJRKLKjqM_7___rustc17___rust_drop_panic, symObjAddr: 0x1D0, symBinAddr: 0x100023020, symSize: 0xD0 }
  - { offset: 0x6C641, size: 0x8, addend: 0x0, symName: __RNvCskdKJRKLKjqM_7___rustc17rust_begin_unwind, symObjAddr: 0x2A0, symBinAddr: 0x1000230F0, symSize: 0x30 }
  - { offset: 0x6C687, size: 0x8, addend: 0x0, symName: __RNvCskdKJRKLKjqM_7___rustc24___rust_foreign_exception, symObjAddr: 0x360, symBinAddr: 0x1000231B0, symSize: 0xD0 }
  - { offset: 0x6C942, size: 0x8, addend: 0x0, symName: __ZN3std9panicking11panic_count17is_zero_slow_path17hc9cf2ba853cb1a44E, symObjAddr: 0x26310, symBinAddr: 0x10005F680, symSize: 0x20 }
  - { offset: 0x6C9F1, size: 0x8, addend: 0x0, symName: __ZN3std9panicking11panic_count8increase17hf57f6317579ad19bE, symObjAddr: 0x26370, symBinAddr: 0x100031E20, symSize: 0x40 }
  - { offset: 0x6CA08, size: 0x8, addend: 0x0, symName: __ZN3std9panicking11panic_count8increase17hf57f6317579ad19bE, symObjAddr: 0x26370, symBinAddr: 0x100031E20, symSize: 0x40 }
  - { offset: 0x6CA1D, size: 0x8, addend: 0x0, symName: __ZN3std9panicking11panic_count8increase17hf57f6317579ad19bE, symObjAddr: 0x26370, symBinAddr: 0x100031E20, symSize: 0x40 }
  - { offset: 0x6CBD3, size: 0x8, addend: 0x0, symName: __ZN3std9panicking12default_hook17hfd692237a6812b4aE, symObjAddr: 0x263EB, symBinAddr: 0x100031E6B, symSize: 0x12B }
  - { offset: 0x6CD6A, size: 0x8, addend: 0x0, symName: '__ZN3std9panicking12default_hook28_$u7b$$u7b$closure$u7d$$u7d$17h4c39689ecd8341bfE', symObjAddr: 0x26516, symBinAddr: 0x100031F96, symSize: 0x18A }
  - { offset: 0x6CF31, size: 0x8, addend: 0x0, symName: '__ZN3std9panicking12default_hook28_$u7b$$u7b$closure$u7d$$u7d$28_$u7b$$u7b$closure$u7d$$u7d$17h141942b3ab6b1748E', symObjAddr: 0x266A0, symBinAddr: 0x100032120, symSize: 0x380 }
  - { offset: 0x6D661, size: 0x8, addend: 0x0, symName: __ZN3std9panicking13panic_handler19FormatStringPayload4fill17hd583736f0adc2b9eE, symObjAddr: 0x26A20, symBinAddr: 0x1000324A0, symSize: 0xC0 }
  - { offset: 0x6D77E, size: 0x8, addend: 0x0, symName: '__ZN3std9panicking13panic_handler28_$u7b$$u7b$closure$u7d$$u7d$17h0449b52d62cc4acdE', symObjAddr: 0x26AE0, symBinAddr: 0x100032560, symSize: 0xD0 }
  - { offset: 0x6D8DA, size: 0x8, addend: 0x0, symName: '__ZN86_$LT$std..panicking..panic_handler..StaticStrPayload$u20$as$u20$core..fmt..Display$GT$3fmt17h611d737e25d39e04E', symObjAddr: 0x58C20, symBinAddr: 0x10004D5A0, symSize: 0x20 }
  - { offset: 0x6D8FB, size: 0x8, addend: 0x0, symName: '__ZN89_$LT$std..panicking..panic_handler..FormatStringPayload$u20$as$u20$core..fmt..Display$GT$3fmt17h2c418704e9a80b67E', symObjAddr: 0x59030, symBinAddr: 0x10004D5C0, symSize: 0x70 }
  - { offset: 0x6D9EF, size: 0x8, addend: 0x0, symName: '__ZN93_$LT$std..panicking..panic_handler..StaticStrPayload$u20$as$u20$core..panic..PanicPayload$GT$3get17h54b2dcb3b150a54cE', symObjAddr: 0x59900, symBinAddr: 0x10004D750, symSize: 0x10 }
  - { offset: 0x6DA0A, size: 0x8, addend: 0x0, symName: '__ZN93_$LT$std..panicking..panic_handler..StaticStrPayload$u20$as$u20$core..panic..PanicPayload$GT$6as_str17h5a1a7c38fda21c29E', symObjAddr: 0x59910, symBinAddr: 0x10004D760, symSize: 0x10 }
  - { offset: 0x6DA25, size: 0x8, addend: 0x0, symName: '__ZN93_$LT$std..panicking..panic_handler..StaticStrPayload$u20$as$u20$core..panic..PanicPayload$GT$8take_box17hdf5e7dcb860e8869E', symObjAddr: 0x59920, symBinAddr: 0x10004D770, symSize: 0x50 }
  - { offset: 0x6DAA2, size: 0x8, addend: 0x0, symName: '__ZN96_$LT$std..panicking..panic_handler..FormatStringPayload$u20$as$u20$core..panic..PanicPayload$GT$3get17he619996a915dba5aE', symObjAddr: 0x5A150, symBinAddr: 0x10004DBE0, symSize: 0x20 }
  - { offset: 0x6DABD, size: 0x8, addend: 0x0, symName: '__ZN96_$LT$std..panicking..panic_handler..FormatStringPayload$u20$as$u20$core..panic..PanicPayload$GT$8take_box17h1d68480d8bee4f17E', symObjAddr: 0x5A170, symBinAddr: 0x10004DC00, symSize: 0xA0 }
  - { offset: 0x6DC0F, size: 0x8, addend: 0x0, symName: __ZN3std9panicking14payload_as_str17h7b83b1c48b989ea0E, symObjAddr: 0x26C50, symBinAddr: 0x100032630, symSize: 0x7D }
  - { offset: 0x6DD54, size: 0x8, addend: 0x0, symName: __ZN3std9panicking15panic_with_hook17he1033abc98626357E, symObjAddr: 0x26CCD, symBinAddr: 0x1000326AD, symSize: 0x43D }
  - { offset: 0x6E6B0, size: 0x8, addend: 0x0, symName: __ZN3std3sys3pal6common14small_c_string24run_with_cstr_allocating17h5cc89072fa4ee439E, symObjAddr: 0x19EE0, symBinAddr: 0x10005EE30, symSize: 0x90 }
  - { offset: 0x6E81F, size: 0x8, addend: 0x0, symName: __ZN3std3sys3pal6common14small_c_string24run_with_cstr_allocating17hc579900339e23d19E, symObjAddr: 0x1A190, symBinAddr: 0x10005EEC0, symSize: 0xB0 }
  - { offset: 0x6E9FB, size: 0x8, addend: 0x0, symName: __ZN3std3sys3pal6common14small_c_string24run_with_cstr_allocating17he4af3d6cbd61cc52E, symObjAddr: 0x1A2F0, symBinAddr: 0x10005EF70, symSize: 0xB0 }
  - { offset: 0x6EC1C, size: 0x8, addend: 0x0, symName: __ZN3std3sys3pal4unix14stack_overflow11thread_info16set_current_info17h9c07c7c3f5a792f2E, symObjAddr: 0x17860, symBinAddr: 0x10002E440, symSize: 0xEA0 }
  - { offset: 0x6FF0E, size: 0x8, addend: 0x0, symName: __ZN3std3sys3pal4unix14stack_overflow3imp12drop_handler17h10e97a4f0d9b05d8E, symObjAddr: 0x18700, symBinAddr: 0x10002F2E0, symSize: 0x520 }
  - { offset: 0x7078F, size: 0x8, addend: 0x0, symName: __ZN3std3sys3pal4unix14stack_overflow3imp12make_handler17h7ea0af42963bc428E, symObjAddr: 0x18C20, symBinAddr: 0x10002F800, symSize: 0x290 }
  - { offset: 0x70B62, size: 0x8, addend: 0x0, symName: __ZN3std3sys3pal4unix14stack_overflow3imp14signal_handler17ha77e123931615aa3E, symObjAddr: 0x18EB0, symBinAddr: 0x10002FA90, symSize: 0x380 }
  - { offset: 0x71260, size: 0x8, addend: 0x0, symName: __ZN3std3sys3pal4unix4sync5mutex5Mutex4init17hc0cd42f50e15ec42E, symObjAddr: 0x199B0, symBinAddr: 0x100030060, symSize: 0x160 }
  - { offset: 0x7131C, size: 0x8, addend: 0x0, symName: __ZN3std3sys3pal4unix4sync5mutex5Mutex4lock4fail17ha33bd018f471c78aE, symObjAddr: 0x19B30, symBinAddr: 0x10005ED30, symSize: 0x100 }
  - { offset: 0x7161E, size: 0x8, addend: 0x0, symName: __ZN3std3sys3pal4unix14abort_internal17h2d7ebcba1920d509E, symObjAddr: 0x17850, symBinAddr: 0x10005ED20, symSize: 0x10 }
  - { offset: 0x71639, size: 0x8, addend: 0x0, symName: __ZN3std3sys3pal4unix17decode_error_kind17h447b85d7b88dc1dcE, symObjAddr: 0x19230, symBinAddr: 0x10002FE10, symSize: 0x250 }
  - { offset: 0x716BF, size: 0x8, addend: 0x0, symName: __ZN3std3sys12thread_local6native5eager7destroy17h52ab99797ee9e6c0E, symObjAddr: 0x122C0, symBinAddr: 0x10002DD00, symSize: 0x20 }
  - { offset: 0x71841, size: 0x8, addend: 0x0, symName: __ZN3std3sys12thread_local5guard5apple6enable9run_dtors17h38edc9b0697859adE, symObjAddr: 0x121D0, symBinAddr: 0x10002DC10, symSize: 0xF0 }
  - { offset: 0x71CDF, size: 0x8, addend: 0x0, symName: __ZN3std3sys12thread_local11destructors4list8register17h1d9ec60dd9886de7E, symObjAddr: 0x120E0, symBinAddr: 0x10002DB20, symSize: 0xF0 }
  - { offset: 0x71F6E, size: 0x8, addend: 0x0, symName: __ZN3std3sys3env4unix13env_read_lock17h6b780f3777072ce3E, symObjAddr: 0x165B0, symBinAddr: 0x10002E0A0, symSize: 0x280 }
  - { offset: 0x72635, size: 0x8, addend: 0x0, symName: '__ZN3std3sys3env4unix6getenv28_$u7b$$u7b$closure$u7d$$u7d$17hbced0c0771611cafE', symObjAddr: 0x16830, symBinAddr: 0x10002E320, symSize: 0x120 }
  - { offset: 0x728C8, size: 0x8, addend: 0x0, symName: __ZN3std3sys2fs4unix4File6open_c17he05b2f9a6cd0c0a5E, symObjAddr: 0x14FB0, symBinAddr: 0x10002DD20, symSize: 0x180 }
  - { offset: 0x72A83, size: 0x8, addend: 0x0, symName: '__ZN65_$LT$std..sys..fs..unix..Dir$u20$as$u20$core..ops..drop..Drop$GT$4drop17h00566fb81437571eE', symObjAddr: 0x531C0, symBinAddr: 0x10004C8E0, symSize: 0xD0 }
  - { offset: 0x72B79, size: 0x8, addend: 0x0, symName: __ZN3std3sys2fs8read_dir17he96197a45d71fcd1E, symObjAddr: 0x160D0, symBinAddr: 0x10002DEA0, symSize: 0x200 }
  - { offset: 0x72F8F, size: 0x8, addend: 0x0, symName: '__ZN64_$LT$std..sys..stdio..unix..Stderr$u20$as$u20$std..io..Write$GT$14write_vectored17h2dbb79a2e8dce948E', symObjAddr: 0x52F00, symBinAddr: 0x10004C820, symSize: 0x50 }
  - { offset: 0x7305E, size: 0x8, addend: 0x0, symName: '__ZN64_$LT$std..sys..stdio..unix..Stderr$u20$as$u20$std..io..Write$GT$17is_write_vectored17h9d9019aa34dca71eE', symObjAddr: 0x52F50, symBinAddr: 0x10004C870, symSize: 0x10 }
  - { offset: 0x73078, size: 0x8, addend: 0x0, symName: '__ZN64_$LT$std..sys..stdio..unix..Stderr$u20$as$u20$std..io..Write$GT$5flush17haca374bc2fb40ebcE', symObjAddr: 0x52F60, symBinAddr: 0x10004C880, symSize: 0x10 }
  - { offset: 0x73092, size: 0x8, addend: 0x0, symName: '__ZN64_$LT$std..sys..stdio..unix..Stderr$u20$as$u20$std..io..Write$GT$5write17h4b5035fe5e5f2032E', symObjAddr: 0x52F70, symBinAddr: 0x10004C890, symSize: 0x50 }
  - { offset: 0x731DF, size: 0x8, addend: 0x0, symName: '__ZN3std3sys4sync8once_box16OnceBox$LT$T$GT$10initialize17h6aa2ce4cfc78c157E', symObjAddr: 0x1B490, symBinAddr: 0x10005F2C0, symSize: 0x120 }
  - { offset: 0x734A1, size: 0x8, addend: 0x0, symName: __ZN3std3sys4sync4once5queue4Once4call17h8e466067d86cbcb3E, symObjAddr: 0x1A7E0, symBinAddr: 0x10005F020, symSize: 0x210 }
  - { offset: 0x7375B, size: 0x8, addend: 0x0, symName: '__ZN82_$LT$std..sys..sync..once..queue..WaiterQueue$u20$as$u20$core..ops..drop..Drop$GT$4drop17h17a27c240e6095eaE', symObjAddr: 0x586D0, symBinAddr: 0x10004D4D0, symSize: 0xD0 }
  - { offset: 0x73910, size: 0x8, addend: 0x0, symName: __ZN3std3sys4sync4once5queue4wait17hcf137e24f8369e0fE, symObjAddr: 0x1ABE0, symBinAddr: 0x1000301C0, symSize: 0x160 }
  - { offset: 0x73DF3, size: 0x8, addend: 0x0, symName: __ZN3std3sys4sync6rwlock5queue6RwLock12unlock_queue17h2b38c5d2f4e14db6E, symObjAddr: 0x1AD60, symBinAddr: 0x100030320, symSize: 0x180 }
  - { offset: 0x74412, size: 0x8, addend: 0x0, symName: __ZN3std3sys4sync6rwlock5queue6RwLock16unlock_contended17h434533e27b51e3a9E, symObjAddr: 0x1B1F0, symBinAddr: 0x10005F230, symSize: 0x40 }
  - { offset: 0x744EE, size: 0x8, addend: 0x0, symName: __ZN3std3sys4sync6rwlock5queue6RwLock21read_unlock_contended17ha0f88a0fd7df0d66E, symObjAddr: 0x1B230, symBinAddr: 0x10005F270, symSize: 0x50 }
  - { offset: 0x74746, size: 0x8, addend: 0x0, symName: __ZN3std3sys4sync6rwlock5queue9read_lock17h5e2659437ef5e87cE, symObjAddr: 0x1B280, symBinAddr: 0x1000304A0, symSize: 0x30 }
  - { offset: 0x7475F, size: 0x8, addend: 0x0, symName: '__ZN83_$LT$std..sys..sync..rwlock..queue..PanicGuard$u20$as$u20$core..ops..drop..Drop$GT$4drop17h9abf048048014633E', symObjAddr: 0x58950, symBinAddr: 0x1000638D0, symSize: 0x60 }
  - { offset: 0x74824, size: 0x8, addend: 0x0, symName: '__ZN3std3sys11personality3gcc14find_eh_action28_$u7b$$u7b$closure$u7d$$u7d$17h71a716f7697f7c23E', symObjAddr: 0x120C0, symBinAddr: 0x10002DB00, symSize: 0x10 }
  - { offset: 0x74838, size: 0x8, addend: 0x0, symName: '__ZN3std3sys11personality3gcc14find_eh_action28_$u7b$$u7b$closure$u7d$$u7d$17hf3d297c424dd88bbE', symObjAddr: 0x120D0, symBinAddr: 0x10002DB10, symSize: 0x10 }
  - { offset: 0x74884, size: 0x8, addend: 0x0, symName: _rust_eh_personality, symObjAddr: 0x5D880, symBinAddr: 0x100051070, symSize: 0x640 }
  - { offset: 0x75373, size: 0x8, addend: 0x0, symName: '__ZN3std3sys9backtrace10_print_fmt28_$u7b$$u7b$closure$u7d$$u7d$17h240c89470c2fecd8E', symObjAddr: 0x1F310, symBinAddr: 0x1000304D0, symSize: 0x130 }
  - { offset: 0x7545B, size: 0x8, addend: 0x0, symName: '__ZN3std3sys9backtrace10_print_fmt28_$u7b$$u7b$closure$u7d$$u7d$17h32646e4212c9eef0E', symObjAddr: 0x1F440, symBinAddr: 0x100030600, symSize: 0x20 }
  - { offset: 0x7549C, size: 0x8, addend: 0x0, symName: '__ZN3std3sys9backtrace10_print_fmt28_$u7b$$u7b$closure$u7d$$u7d$28_$u7b$$u7b$closure$u7d$$u7d$17h9218d583d276298aE', symObjAddr: 0x1F460, symBinAddr: 0x100030620, symSize: 0x2A0 }
  - { offset: 0x7568F, size: 0x8, addend: 0x0, symName: __ZN3std3sys9backtrace13BacktraceLock5print17h5e73de0c808691a4E, symObjAddr: 0x1F700, symBinAddr: 0x1000308C0, symSize: 0x60 }
  - { offset: 0x756C0, size: 0x8, addend: 0x0, symName: __ZN3std3sys9backtrace15output_filename17ha87664c578f770efE, symObjAddr: 0x1F760, symBinAddr: 0x100030920, symSize: 0x120 }
  - { offset: 0x7582C, size: 0x8, addend: 0x0, symName: __ZN3std3sys9backtrace26__rust_end_short_backtrace17h3fc1fab9d4b6800aE, symObjAddr: 0x1F880, symBinAddr: 0x100030A40, symSize: 0x10 }
  - { offset: 0x75846, size: 0x8, addend: 0x0, symName: __ZN3std3sys9backtrace4lock17h2bb35fe2884a3a88E, symObjAddr: 0x1F8A0, symBinAddr: 0x100030A50, symSize: 0x80 }
  - { offset: 0x7599C, size: 0x8, addend: 0x0, symName: '__ZN98_$LT$std..sys..backtrace..BacktraceLock..print..DisplayBacktrace$u20$as$u20$core..fmt..Display$GT$3fmt17hbb4f642dcc320b1dE', symObjAddr: 0x5A3B0, symBinAddr: 0x10004DCA0, symSize: 0x280 }
  - { offset: 0x75EFB, size: 0x8, addend: 0x0, symName: __RNvCskdKJRKLKjqM_7___rustc11___rdl_alloc, symObjAddr: 0x70, symBinAddr: 0x100022ED0, symSize: 0x70 }
  - { offset: 0x75F79, size: 0x8, addend: 0x0, symName: __RNvCskdKJRKLKjqM_7___rustc13___rdl_dealloc, symObjAddr: 0xF0, symBinAddr: 0x100022F40, symSize: 0x10 }
  - { offset: 0x75FAA, size: 0x8, addend: 0x0, symName: __RNvCskdKJRKLKjqM_7___rustc13___rdl_realloc, symObjAddr: 0x100, symBinAddr: 0x100022F50, symSize: 0xD0 }
  - { offset: 0x7608E, size: 0x8, addend: 0x0, symName: __RNvCskdKJRKLKjqM_7___rustc18___rdl_alloc_zeroed, symObjAddr: 0x2D0, symBinAddr: 0x100023120, symSize: 0x90 }
  - { offset: 0x76133, size: 0x8, addend: 0x0, symName: __RNvCskdKJRKLKjqM_7___rustc8___rg_oom, symObjAddr: 0x430, symBinAddr: 0x10005EB80, symSize: 0x20 }
  - { offset: 0x7614F, size: 0x8, addend: 0x0, symName: __ZN3std5alloc24default_alloc_error_hook17h037631a9e9542696E, symObjAddr: 0x23AD0, symBinAddr: 0x100031A30, symSize: 0x160 }
  - { offset: 0x763DC, size: 0x8, addend: 0x0, symName: __ZN3std5alloc8rust_oom17he6554ab5e3e4bfbfE, symObjAddr: 0x23C30, symBinAddr: 0x10005F4A0, symSize: 0x20 }
  - { offset: 0x76429, size: 0x8, addend: 0x0, symName: __ZN3std2rt15handle_rt_panic17hc19cb4ec1bf553a3E, symObjAddr: 0xF090, symBinAddr: 0x10005ECC0, symSize: 0x60 }
  - { offset: 0x764B9, size: 0x8, addend: 0x0, symName: __ZN3std2rt19lang_start_internal17he54b1e510ff92df3E, symObjAddr: 0xF0F0, symBinAddr: 0x10002D070, symSize: 0x6C0 }
  - { offset: 0x770DC, size: 0x8, addend: 0x0, symName: __ZN3std2io5error5Error3new17hca09cf106a8bb92bE, symObjAddr: 0xC960, symBinAddr: 0x10002C160, symSize: 0x120 }
  - { offset: 0x774A1, size: 0x8, addend: 0x0, symName: '__ZN3std2io5error83_$LT$impl$u20$core..fmt..Debug$u20$for$u20$std..io..error..repr_bitpacked..Repr$GT$3fmt17h0c2c47996b5c8151E', symObjAddr: 0xCB00, symBinAddr: 0x10002C280, symSize: 0x300 }
  - { offset: 0x776F9, size: 0x8, addend: 0x0, symName: '__ZN58_$LT$std..io..error..Error$u20$as$u20$core..fmt..Debug$GT$3fmt17h4e87839884dfef9aE', symObjAddr: 0x3D080, symBinAddr: 0x100040520, symSize: 0x10 }
  - { offset: 0x77713, size: 0x8, addend: 0x0, symName: '__ZN60_$LT$std..io..error..Error$u20$as$u20$core..fmt..Display$GT$3fmt17hb9b71bb9d61087ecE', symObjAddr: 0x4F030, symBinAddr: 0x10004BF50, symSize: 0x280 }
  - { offset: 0x77946, size: 0x8, addend: 0x0, symName: '__ZN62_$LT$std..io..error..ErrorKind$u20$as$u20$core..fmt..Debug$GT$3fmt17hd88fc964aff56ab8E', symObjAddr: 0x51C40, symBinAddr: 0x10004C6D0, symSize: 0x30 }
  - { offset: 0x7797B, size: 0x8, addend: 0x0, symName: '__ZN111_$LT$std..io..buffered..bufwriter..BufWriter$LT$W$GT$..flush_buf..BufGuard$u20$as$u20$core..ops..drop..Drop$GT$4drop17h54adaef0fed16954E', symObjAddr: 0xBA0, symBinAddr: 0x100023280, symSize: 0x50 }
  - { offset: 0x77B04, size: 0x8, addend: 0x0, symName: '__ZN3std2io8buffered9bufwriter18BufWriter$LT$W$GT$9flush_buf8BufGuard9remaining17h4e21f8d02bbf69acE', symObjAddr: 0xE030, symBinAddr: 0x10002D030, symSize: 0x40 }
  - { offset: 0x77BD1, size: 0x8, addend: 0x0, symName: '__ZN3std2io8buffered9bufwriter18BufWriter$LT$W$GT$14write_all_cold17h4cf021826987ea15E', symObjAddr: 0xDCD0, symBinAddr: 0x10005EBA0, symSize: 0x120 }
  - { offset: 0x77E10, size: 0x8, addend: 0x0, symName: '__ZN3std2io8buffered9bufwriter18BufWriter$LT$W$GT$9flush_buf17h223037aba0b50117E', symObjAddr: 0xDDF0, symBinAddr: 0x10002CDF0, symSize: 0x240 }
  - { offset: 0x78428, size: 0x8, addend: 0x0, symName: __ZN3std2io5Write18write_all_vectored17hc2fed901070b4d06E, symObjAddr: 0xC160, symBinAddr: 0x10002BAA0, symSize: 0x1D0 }
  - { offset: 0x7866D, size: 0x8, addend: 0x0, symName: __ZN3std2io5Write9write_all17ha0278d11ab8e55b7E, symObjAddr: 0xC330, symBinAddr: 0x10002BC70, symSize: 0xA0 }
  - { offset: 0x7875D, size: 0x8, addend: 0x0, symName: __ZN3std2io5Write9write_fmt17h0157f34dfbceefe5E, symObjAddr: 0xC3D0, symBinAddr: 0x10002BD10, symSize: 0x170 }
  - { offset: 0x78A37, size: 0x8, addend: 0x0, symName: __ZN3std2io5Write9write_fmt17h24b62528f4d1168aE, symObjAddr: 0xC540, symBinAddr: 0x10002BE80, symSize: 0x170 }
  - { offset: 0x78D11, size: 0x8, addend: 0x0, symName: __ZN3std2io5Write9write_fmt17h5e34a6300392fe22E, symObjAddr: 0xC6B0, symBinAddr: 0x10002BFF0, symSize: 0x170 }
  - { offset: 0x79056, size: 0x8, addend: 0x0, symName: __ZN3std2io5stdio22try_set_output_capture17hb613035c20b6d0f1E, symObjAddr: 0xD2C0, symBinAddr: 0x10002C970, symSize: 0xB0 }
  - { offset: 0x792EB, size: 0x8, addend: 0x0, symName: __ZN3std2io5stdio31print_to_buffer_if_capture_used17hde0c84d24b5006f1E, symObjAddr: 0xD440, symBinAddr: 0x10002CA20, symSize: 0x220 }
  - { offset: 0x799FD, size: 0x8, addend: 0x0, symName: __ZN3std2io5stdio6Stderr4lock17h9794f8e40f87e1fdE, symObjAddr: 0xD8C0, symBinAddr: 0x10002CC40, symSize: 0xC0 }
  - { offset: 0x79CCC, size: 0x8, addend: 0x0, symName: __ZN3std2io5stdio6_print17he5f702afc7c35b8cE, symObjAddr: 0xD980, symBinAddr: 0x10002CD00, symSize: 0xF0 }
  - { offset: 0x79E41, size: 0x8, addend: 0x0, symName: '__ZN61_$LT$$RF$std..io..stdio..Stdout$u20$as$u20$std..io..Write$GT$9write_fmt17h0eee9ce97af14d23E', symObjAddr: 0x50590, symBinAddr: 0x10004C1D0, symSize: 0x1C0 }
  - { offset: 0x7A2C5, size: 0x8, addend: 0x0, symName: '__ZN61_$LT$std..io..stdio..StdoutLock$u20$as$u20$std..io..Write$GT$9write_all17h054337cb99b92b16E', symObjAddr: 0x51070, symBinAddr: 0x10004C390, symSize: 0x260 }
  - { offset: 0x7A947, size: 0x8, addend: 0x0, symName: '__ZN3std2io5impls74_$LT$impl$u20$std..io..Write$u20$for$u20$alloc..vec..Vec$LT$u8$C$A$GT$$GT$14write_vectored17h396066abfc006fcaE', symObjAddr: 0xCE00, symBinAddr: 0x10002C580, symSize: 0x180 }
  - { offset: 0x7AB49, size: 0x8, addend: 0x0, symName: '__ZN3std2io5impls74_$LT$impl$u20$std..io..Write$u20$for$u20$alloc..vec..Vec$LT$u8$C$A$GT$$GT$17is_write_vectored17h473fffb9382bf9c6E', symObjAddr: 0xCF80, symBinAddr: 0x10002C700, symSize: 0x10 }
  - { offset: 0x7AB72, size: 0x8, addend: 0x0, symName: '__ZN3std2io5impls74_$LT$impl$u20$std..io..Write$u20$for$u20$alloc..vec..Vec$LT$u8$C$A$GT$$GT$18write_all_vectored17hcfe81a52ebadbc0bE', symObjAddr: 0xCF90, symBinAddr: 0x10002C710, symSize: 0x170 }
  - { offset: 0x7AB9D, size: 0x8, addend: 0x0, symName: '__ZN3std2io5impls74_$LT$impl$u20$std..io..Write$u20$for$u20$alloc..vec..Vec$LT$u8$C$A$GT$$GT$18write_all_vectored17hcfe81a52ebadbc0bE', symObjAddr: 0xCF90, symBinAddr: 0x10002C710, symSize: 0x170 }
  - { offset: 0x7ABB2, size: 0x8, addend: 0x0, symName: '__ZN3std2io5impls74_$LT$impl$u20$std..io..Write$u20$for$u20$alloc..vec..Vec$LT$u8$C$A$GT$$GT$18write_all_vectored17hcfe81a52ebadbc0bE', symObjAddr: 0xCF90, symBinAddr: 0x10002C710, symSize: 0x170 }
  - { offset: 0x7ABC7, size: 0x8, addend: 0x0, symName: '__ZN3std2io5impls74_$LT$impl$u20$std..io..Write$u20$for$u20$alloc..vec..Vec$LT$u8$C$A$GT$$GT$18write_all_vectored17hcfe81a52ebadbc0bE', symObjAddr: 0xCF90, symBinAddr: 0x10002C710, symSize: 0x170 }
  - { offset: 0x7ABDB, size: 0x8, addend: 0x0, symName: '__ZN3std2io5impls74_$LT$impl$u20$std..io..Write$u20$for$u20$alloc..vec..Vec$LT$u8$C$A$GT$$GT$18write_all_vectored17hcfe81a52ebadbc0bE', symObjAddr: 0xCF90, symBinAddr: 0x10002C710, symSize: 0x170 }
  - { offset: 0x7ABEF, size: 0x8, addend: 0x0, symName: '__ZN3std2io5impls74_$LT$impl$u20$std..io..Write$u20$for$u20$alloc..vec..Vec$LT$u8$C$A$GT$$GT$18write_all_vectored17hcfe81a52ebadbc0bE', symObjAddr: 0xCF90, symBinAddr: 0x10002C710, symSize: 0x170 }
  - { offset: 0x7ADA9, size: 0x8, addend: 0x0, symName: '__ZN3std2io5impls74_$LT$impl$u20$std..io..Write$u20$for$u20$alloc..vec..Vec$LT$u8$C$A$GT$$GT$5flush17hc83d241489517b1fE', symObjAddr: 0xD100, symBinAddr: 0x10002C880, symSize: 0x10 }
  - { offset: 0x7ADC4, size: 0x8, addend: 0x0, symName: '__ZN3std2io5impls74_$LT$impl$u20$std..io..Write$u20$for$u20$alloc..vec..Vec$LT$u8$C$A$GT$$GT$5write17h0e0da068fc5acedeE', symObjAddr: 0xD110, symBinAddr: 0x10002C890, symSize: 0x70 }
  - { offset: 0x7AEAA, size: 0x8, addend: 0x0, symName: '__ZN3std2io5impls74_$LT$impl$u20$std..io..Write$u20$for$u20$alloc..vec..Vec$LT$u8$C$A$GT$$GT$9write_all17h7bccd6e9d3e19e7fE', symObjAddr: 0xD180, symBinAddr: 0x10002C900, symSize: 0x70 }
  - { offset: 0x7B0A5, size: 0x8, addend: 0x0, symName: '__ZN81_$LT$std..io..default_write_fmt..Adapter$LT$T$GT$$u20$as$u20$core..fmt..Write$GT$9write_str17h1649a3991f2ea191E', symObjAddr: 0x57A70, symBinAddr: 0x10004D2A0, symSize: 0xD0 }
  - { offset: 0x7B1B1, size: 0x8, addend: 0x0, symName: '__ZN81_$LT$std..io..default_write_fmt..Adapter$LT$T$GT$$u20$as$u20$core..fmt..Write$GT$9write_str17h65288afb60bc4b22E', symObjAddr: 0x57C60, symBinAddr: 0x10004D370, symSize: 0x70 }
  - { offset: 0x7B29E, size: 0x8, addend: 0x0, symName: '__ZN81_$LT$std..io..default_write_fmt..Adapter$LT$T$GT$$u20$as$u20$core..fmt..Write$GT$9write_str17h9ddd3fd8700ebc6eE', symObjAddr: 0x57CD0, symBinAddr: 0x10004D3E0, symSize: 0x50 }
  - { offset: 0x7B2C8, size: 0x8, addend: 0x0, symName: '__ZN81_$LT$std..io..default_write_fmt..Adapter$LT$T$GT$$u20$as$u20$core..fmt..Write$GT$9write_str17hf60e64c5a7fc0711E', symObjAddr: 0x57D20, symBinAddr: 0x10004D430, symSize: 0xA0 }
  - { offset: 0x7B50B, size: 0x8, addend: 0x0, symName: __ZN3std4path4Path13_strip_prefix17h57206cfe16291a76E, symObjAddr: 0x20BD0, symBinAddr: 0x100031110, symSize: 0x3C0 }
  - { offset: 0x7B61B, size: 0x8, addend: 0x0, symName: __ZN3std4path4Path5_join17hf8c84868fde1d922E, symObjAddr: 0x21720, symBinAddr: 0x1000314D0, symSize: 0x190 }
  - { offset: 0x7BCFE, size: 0x8, addend: 0x0, symName: __ZN3std4path10Components15len_before_body17hc0c9c8c5c44312a5E, symObjAddr: 0x1F920, symBinAddr: 0x100030AD0, symSize: 0x170 }
  - { offset: 0x7BD15, size: 0x8, addend: 0x0, symName: __ZN3std4path10Components15len_before_body17hc0c9c8c5c44312a5E, symObjAddr: 0x1F920, symBinAddr: 0x100030AD0, symSize: 0x170 }
  - { offset: 0x7BD2A, size: 0x8, addend: 0x0, symName: __ZN3std4path10Components15len_before_body17hc0c9c8c5c44312a5E, symObjAddr: 0x1F920, symBinAddr: 0x100030AD0, symSize: 0x170 }
  - { offset: 0x7BF02, size: 0x8, addend: 0x0, symName: __ZN3std4path10Components25parse_next_component_back17h39a0247b7cda8e0bE, symObjAddr: 0x1FA90, symBinAddr: 0x100030C40, symSize: 0xF0 }
  - { offset: 0x7C0A1, size: 0x8, addend: 0x0, symName: __ZN3std4path10Components7as_path17h069c6a5a65b7ff44E, symObjAddr: 0x1FB80, symBinAddr: 0x100030D30, symSize: 0x3E0 }
  - { offset: 0x7C40C, size: 0x8, addend: 0x0, symName: '__ZN57_$LT$std..path..Display$u20$as$u20$core..fmt..Display$GT$3fmt17h4b31f13031a7fa47E', symObjAddr: 0x3CD90, symBinAddr: 0x100040360, symSize: 0x10 }
  - { offset: 0x7C4D3, size: 0x8, addend: 0x0, symName: '__ZN55_$LT$std..path..PathBuf$u20$as$u20$core..fmt..Debug$GT$3fmt17h473ded3c475bb424E', symObjAddr: 0x3C630, symBinAddr: 0x100040330, symSize: 0x30 }
  - { offset: 0x7C662, size: 0x8, addend: 0x0, symName: '__ZN61_$LT$std..path..Component$u20$as$u20$core..cmp..PartialEq$GT$2eq17h491fa3e2db060d13E', symObjAddr: 0x512F0, symBinAddr: 0x10004C5F0, symSize: 0xE0 }
  - { offset: 0x7C71C, size: 0x8, addend: 0x0, symName: '__ZN80_$LT$std..path..Components$u20$as$u20$core..iter..traits..iterator..Iterator$GT$4next17hee0b9dd08b602416E', symObjAddr: 0x57330, symBinAddr: 0x10004CE90, symSize: 0x410 }
  - { offset: 0x7CABD, size: 0x8, addend: 0x0, symName: '__ZN95_$LT$std..path..Components$u20$as$u20$core..iter..traits..double_ended..DoubleEndedIterator$GT$9next_back17h714e7cb7d2d85f84E', symObjAddr: 0x59CE0, symBinAddr: 0x10004D7C0, symSize: 0x420 }
  - { offset: 0x7CCB6, size: 0x8, addend: 0x0, symName: __ZN3std7process5abort17h0d4477327f66e8fbE, symObjAddr: 0x25400, symBinAddr: 0x10005F670, symSize: 0x10 }
  - { offset: 0x7CCE1, size: 0x8, addend: 0x0, symName: '__ZN118_$LT$std..thread..thread_name_string..ThreadNameString$u20$as$u20$core..convert..From$LT$alloc..string..String$GT$$GT$4from17h61e83cd51d9b6e6aE', symObjAddr: 0x10C0, symBinAddr: 0x1000232D0, symSize: 0x100 }
  - { offset: 0x7D099, size: 0x8, addend: 0x0, symName: __ZN3std6thread7current12init_current17h90dce586534f49cdE, symObjAddr: 0x245B0, symBinAddr: 0x10005F4C0, symSize: 0x160 }
  - { offset: 0x7D3B1, size: 0x8, addend: 0x0, symName: __ZN3std6thread7current13current_os_id17h7dd262076b74b984E, symObjAddr: 0x24710, symBinAddr: 0x100031DA0, symSize: 0x80 }
  - { offset: 0x7D5C4, size: 0x8, addend: 0x0, symName: __ZN3std6thread6Thread3new17haba3f9a731f34843E, symObjAddr: 0x241F0, symBinAddr: 0x100031C60, symSize: 0x140 }
  - { offset: 0x7D90B, size: 0x8, addend: 0x0, symName: __ZN3std6thread8ThreadId3new9exhausted17h406b0b054c541c40E, symObjAddr: 0x248A0, symBinAddr: 0x10005F620, symSize: 0x50 }
  - { offset: 0x7D98B, size: 0x8, addend: 0x0, symName: __ZN3std12backtrace_rs5print17BacktraceFrameFmt21print_raw_with_column17h124737e9f41c54b0E, symObjAddr: 0x12B0, symBinAddr: 0x100023430, symSize: 0x560 }
  - { offset: 0x7DB81, size: 0x8, addend: 0x0, symName: __ZN3std12backtrace_rs9backtrace9libunwind5trace8trace_fn17hc5d3caa7e26e2d87E, symObjAddr: 0x1810, symBinAddr: 0x100023990, symSize: 0x50 }
  - { offset: 0x7DC3C, size: 0x8, addend: 0x0, symName: __ZN3std12backtrace_rs9symbolize5gimli4mmap17h12ebabe808a68383E, symObjAddr: 0x1860, symBinAddr: 0x1000239E0, symSize: 0x210 }
  - { offset: 0x7E129, size: 0x8, addend: 0x0, symName: __ZN3std12backtrace_rs9symbolize5gimli5macho11find_header17hde9f2a87e444cec9E, symObjAddr: 0x1A70, symBinAddr: 0x100023BF0, symSize: 0x190 }
  - { offset: 0x7E807, size: 0x8, addend: 0x0, symName: __ZN3std12backtrace_rs9symbolize5gimli5macho6Object5parse17h400ac0874d941337E, symObjAddr: 0x1C00, symBinAddr: 0x100023D80, symSize: 0x1040 }
  - { offset: 0x8072E, size: 0x8, addend: 0x0, symName: __ZN3std12backtrace_rs9symbolize5gimli5macho6Object7section17hf53b9a42818e2c3dE, symObjAddr: 0x2C40, symBinAddr: 0x100024DC0, symSize: 0x180 }
  - { offset: 0x80B68, size: 0x8, addend: 0x0, symName: __ZN3std12backtrace_rs9symbolize5gimli7Context11find_frames17h15418eb91b7e6263E, symObjAddr: 0x2DC0, symBinAddr: 0x100024F40, symSize: 0x3D0 }
  - { offset: 0x80F48, size: 0x8, addend: 0x0, symName: __ZN3std12backtrace_rs9symbolize5gimli7Context3new17hb329d27e4d696e6aE, symObjAddr: 0x3190, symBinAddr: 0x100025310, symSize: 0x3050 }
  - { offset: 0x850A6, size: 0x8, addend: 0x0, symName: __ZN3std12backtrace_rs9symbolize5gimli7resolve17h34165e1bf34eef53E, symObjAddr: 0x61E0, symBinAddr: 0x100028360, symSize: 0x3560 }
  - { offset: 0x8B132, size: 0x8, addend: 0x0, symName: __ZN3std12backtrace_rs9symbolize6Symbol4name17hd612854ad8f0ffd0E, symObjAddr: 0x9780, symBinAddr: 0x10002B8C0, symSize: 0x110 }
  - { offset: 0x8B26B, size: 0x8, addend: 0x0, symName: '__ZN79_$LT$std..backtrace_rs..symbolize..SymbolName$u20$as$u20$core..fmt..Display$GT$3fmt17hdc33297e1ed74ca2E', symObjAddr: 0x56AE0, symBinAddr: 0x10004CDB0, symSize: 0xE0 }
  - { offset: 0x8B375, size: 0x8, addend: 0x0, symName: __ZN3std2fs11OpenOptions5_open17hf30a08b257e0657bE, symObjAddr: 0x9EE0, symBinAddr: 0x10002B9D0, symSize: 0xD0 }
  - { offset: 0x8B4C2, size: 0x8, addend: 0x0, symName: '__ZN48_$LT$std..fs..File$u20$as$u20$std..io..Write$GT$5write17h6aa997d699243505E', symObjAddr: 0x28450, symBinAddr: 0x100032CC0, symSize: 0x50 }
  - { offset: 0x8B7A3, size: 0x8, addend: 0x0, symName: '__ZN64_$LT$std..ffi..os_str..Display$u20$as$u20$core..fmt..Display$GT$3fmt17hc3b4edbdc1de5d2aE', symObjAddr: 0x52BC0, symBinAddr: 0x10004C750, symSize: 0xD0 }
  - { offset: 0x8B828, size: 0x8, addend: 0x0, symName: '__ZN3std4sync6poison5mutex14Mutex$LT$T$GT$4lock17hc2ce4f843db9b8deE', symObjAddr: 0x23070, symBinAddr: 0x1000319C0, symSize: 0x70 }
  - { offset: 0x8BA87, size: 0x8, addend: 0x0, symName: '__ZN3std4sync6poison4once4Once15call_once_force28_$u7b$$u7b$closure$u7d$$u7d$17h3fd27ef06f442f06E', symObjAddr: 0x22AF0, symBinAddr: 0x100031660, symSize: 0x90 }
  - { offset: 0x8BB3E, size: 0x8, addend: 0x0, symName: '__ZN3std4sync6poison4once4Once15call_once_force28_$u7b$$u7b$closure$u7d$$u7d$17hcef2943343630694E', symObjAddr: 0x22D80, symBinAddr: 0x1000316F0, symSize: 0x90 }
  - { offset: 0x8BC9B, size: 0x8, addend: 0x0, symName: '__ZN3std4sync6poison4once4Once9call_once28_$u7b$$u7b$closure$u7d$$u7d$17h5c617ced4614c08fE', symObjAddr: 0x22E30, symBinAddr: 0x100031780, symSize: 0x240 }
  - { offset: 0x8C43E, size: 0x8, addend: 0x0, symName: '__ZN3std4sync9once_lock17OnceLock$LT$T$GT$10initialize17h9ad90c5bfd166a66E', symObjAddr: 0x23793, symBinAddr: 0x10005F3E3, symSize: 0x59 }
  - { offset: 0x8C469, size: 0x8, addend: 0x0, symName: '__ZN3std4sync9once_lock17OnceLock$LT$T$GT$10initialize17h9ad90c5bfd166a66E', symObjAddr: 0x23793, symBinAddr: 0x10005F3E3, symSize: 0x59 }
  - { offset: 0x8C47D, size: 0x8, addend: 0x0, symName: '__ZN3std4sync9once_lock17OnceLock$LT$T$GT$10initialize17h9ad90c5bfd166a66E', symObjAddr: 0x23793, symBinAddr: 0x10005F3E3, symSize: 0x59 }
  - { offset: 0x8C491, size: 0x8, addend: 0x0, symName: '__ZN3std4sync9once_lock17OnceLock$LT$T$GT$10initialize17h9ad90c5bfd166a66E', symObjAddr: 0x23793, symBinAddr: 0x10005F3E3, symSize: 0x59 }
  - { offset: 0x8C4A7, size: 0x8, addend: 0x0, symName: '__ZN3std4sync9once_lock17OnceLock$LT$T$GT$10initialize17hdc61a2003d8acd11E', symObjAddr: 0x23841, symBinAddr: 0x10005F441, symSize: 0x5F }
  - { offset: 0x8C4D2, size: 0x8, addend: 0x0, symName: '__ZN3std4sync9once_lock17OnceLock$LT$T$GT$10initialize17hdc61a2003d8acd11E', symObjAddr: 0x23841, symBinAddr: 0x10005F441, symSize: 0x5F }
  - { offset: 0x8C4E6, size: 0x8, addend: 0x0, symName: '__ZN3std4sync9once_lock17OnceLock$LT$T$GT$10initialize17hdc61a2003d8acd11E', symObjAddr: 0x23841, symBinAddr: 0x10005F441, symSize: 0x5F }
  - { offset: 0x8C4FA, size: 0x8, addend: 0x0, symName: '__ZN3std4sync9once_lock17OnceLock$LT$T$GT$10initialize17hdc61a2003d8acd11E', symObjAddr: 0x23841, symBinAddr: 0x10005F441, symSize: 0x5F }
  - { offset: 0x8C66E, size: 0x8, addend: 0x0, symName: __ZN3std5panic19get_backtrace_style17h4c7362303865842eE, symObjAddr: 0x23C60, symBinAddr: 0x100031B90, symSize: 0xD0 }
  - { offset: 0x8C68C, size: 0x8, addend: 0x0, symName: __ZN3std5panic19get_backtrace_style17h4c7362303865842eE, symObjAddr: 0x23C60, symBinAddr: 0x100031B90, symSize: 0xD0 }
  - { offset: 0x8C6A1, size: 0x8, addend: 0x0, symName: __ZN3std5panic19get_backtrace_style17h4c7362303865842eE, symObjAddr: 0x23C60, symBinAddr: 0x100031B90, symSize: 0xD0 }
  - { offset: 0x8C90E, size: 0x8, addend: 0x0, symName: __ZN3std3env11current_dir17h09876c9b4b89060dE, symObjAddr: 0xF800, symBinAddr: 0x10002D730, symSize: 0x1C0 }
  - { offset: 0x8CD4B, size: 0x8, addend: 0x0, symName: __ZN3std3env4_var17h75d65b34efbdced7E, symObjAddr: 0xFAA0, symBinAddr: 0x10002D8F0, symSize: 0xA0 }
  - { offset: 0x8CE47, size: 0x8, addend: 0x0, symName: __ZN3std3env7_var_os17ha90d6152c34619e1E, symObjAddr: 0xFB80, symBinAddr: 0x10002D990, symSize: 0x170 }
  - { offset: 0x8D485, size: 0x8, addend: 0x0, symName: __ZN5alloc5alloc15exchange_malloc17hdc54b6ad35f557b1E, symObjAddr: 0x452D0, symBinAddr: 0x100042780, symSize: 0x40 }
  - { offset: 0x8E44D, size: 0x8, addend: 0x0, symName: '__ZN64_$LT$alloc..ffi..c_str..NulError$u20$as$u20$core..fmt..Debug$GT$3fmt17h42a8844572b8105bE', symObjAddr: 0x524F0, symBinAddr: 0x10004C700, symSize: 0x50 }
  - { offset: 0x8EDCF, size: 0x8, addend: 0x0, symName: '__ZN5alloc11collections5btree4node208Handle$LT$alloc..collections..btree..node..NodeRef$LT$alloc..collections..btree..node..marker..Mut$C$K$C$V$C$alloc..collections..btree..node..marker..Leaf$GT$$C$alloc..collections..btree..node..marker..KV$GT$5split17h2e0ddf5cd10d99d6E', symObjAddr: 0x40F70, symBinAddr: 0x100040CB0, symSize: 0x1C0 }
  - { offset: 0x8F1AB, size: 0x8, addend: 0x0, symName: '__ZN5alloc11collections5btree4node212Handle$LT$alloc..collections..btree..node..NodeRef$LT$alloc..collections..btree..node..marker..Mut$C$K$C$V$C$alloc..collections..btree..node..marker..Internal$GT$$C$alloc..collections..btree..node..marker..KV$GT$5split17h17c643d4c82620a0E', symObjAddr: 0x41820, symBinAddr: 0x100040E70, symSize: 0x280 }
  - { offset: 0x8F72D, size: 0x8, addend: 0x0, symName: '__ZN5alloc11collections5btree6remove259_$LT$impl$u20$alloc..collections..btree..node..Handle$LT$alloc..collections..btree..node..NodeRef$LT$alloc..collections..btree..node..marker..Mut$C$K$C$V$C$alloc..collections..btree..node..marker..Leaf$GT$$C$alloc..collections..btree..node..marker..KV$GT$$GT$14remove_leaf_kv17h2a34ebe0da4333d8E', symObjAddr: 0x434D0, symBinAddr: 0x100041BF0, symSize: 0x8C0 }
  - { offset: 0x904A2, size: 0x8, addend: 0x0, symName: '__ZN5alloc11collections5btree4node29BalancingContext$LT$K$C$V$GT$15bulk_steal_left17h66a91518f6da12fdE', symObjAddr: 0x42190, symBinAddr: 0x1000410F0, symSize: 0x370 }
  - { offset: 0x90986, size: 0x8, addend: 0x0, symName: '__ZN5alloc11collections5btree4node29BalancingContext$LT$K$C$V$GT$16bulk_steal_right17h4e21d715a5e05da5E', symObjAddr: 0x42500, symBinAddr: 0x100041460, symSize: 0x3C0 }
  - { offset: 0x90FA0, size: 0x8, addend: 0x0, symName: '__ZN5alloc11collections5btree4node29BalancingContext$LT$K$C$V$GT$8do_merge17h59e33ac8b4f1aedbE', symObjAddr: 0x43100, symBinAddr: 0x100041820, symSize: 0x3D0 }
  - { offset: 0x917B4, size: 0x8, addend: 0x0, symName: '__ZN5alloc11collections5btree3map25IntoIter$LT$K$C$V$C$A$GT$10dying_next17h0137cfdaf279346fE', symObjAddr: 0x40430, symBinAddr: 0x100040530, symSize: 0x3C0 }
  - { offset: 0x91B20, size: 0x8, addend: 0x0, symName: '__ZN5alloc11collections5btree3map25IntoIter$LT$K$C$V$C$A$GT$10dying_next17h74ba4dc90cd3bd84E', symObjAddr: 0x407F0, symBinAddr: 0x1000408F0, symSize: 0x3C0 }
  - { offset: 0x9291F, size: 0x8, addend: 0x0, symName: '__ZN5alloc7raw_vec19RawVec$LT$T$C$A$GT$8grow_one17h1578391f1dd2c7daE', symObjAddr: 0x45380, symBinAddr: 0x1000427C0, symSize: 0xC0 }
  - { offset: 0x92A35, size: 0x8, addend: 0x0, symName: '__ZN5alloc7raw_vec19RawVec$LT$T$C$A$GT$8grow_one17h1a8e605a6c9c7a9cE', symObjAddr: 0x45440, symBinAddr: 0x100042880, symSize: 0xC0 }
  - { offset: 0x92B60, size: 0x8, addend: 0x0, symName: '__ZN5alloc7raw_vec19RawVec$LT$T$C$A$GT$8grow_one17h496d6c99f941dcd8E', symObjAddr: 0x45500, symBinAddr: 0x100042940, symSize: 0xB0 }
  - { offset: 0x92C76, size: 0x8, addend: 0x0, symName: '__ZN5alloc7raw_vec19RawVec$LT$T$C$A$GT$8grow_one17h62d92001f5fd4088E', symObjAddr: 0x455B0, symBinAddr: 0x1000429F0, symSize: 0xC0 }
  - { offset: 0x92D8C, size: 0x8, addend: 0x0, symName: '__ZN5alloc7raw_vec19RawVec$LT$T$C$A$GT$8grow_one17h882f0afd17fb4cf1E', symObjAddr: 0x45670, symBinAddr: 0x100042AB0, symSize: 0xC0 }
  - { offset: 0x92EB7, size: 0x8, addend: 0x0, symName: '__ZN5alloc7raw_vec19RawVec$LT$T$C$A$GT$8grow_one17h9215a3a3eddacbe8E', symObjAddr: 0x45730, symBinAddr: 0x100042B70, symSize: 0xC0 }
  - { offset: 0x92FCD, size: 0x8, addend: 0x0, symName: '__ZN5alloc7raw_vec19RawVec$LT$T$C$A$GT$8grow_one17h944deff35e2917e9E', symObjAddr: 0x457F0, symBinAddr: 0x100042C30, symSize: 0xC0 }
  - { offset: 0x930F8, size: 0x8, addend: 0x0, symName: '__ZN5alloc7raw_vec19RawVec$LT$T$C$A$GT$8grow_one17h9e141b6ec2b6b304E', symObjAddr: 0x458B0, symBinAddr: 0x100042CF0, symSize: 0xB0 }
  - { offset: 0x9320E, size: 0x8, addend: 0x0, symName: '__ZN5alloc7raw_vec19RawVec$LT$T$C$A$GT$8grow_one17haba969b9d90e429dE', symObjAddr: 0x45960, symBinAddr: 0x100042DA0, symSize: 0xC0 }
  - { offset: 0x93339, size: 0x8, addend: 0x0, symName: '__ZN5alloc7raw_vec19RawVec$LT$T$C$A$GT$8grow_one17hea102eabff85231dE', symObjAddr: 0x45AD0, symBinAddr: 0x100042E60, symSize: 0xB0 }
  - { offset: 0x9344F, size: 0x8, addend: 0x0, symName: '__ZN5alloc7raw_vec19RawVec$LT$T$C$A$GT$8grow_one17hf1b3041c36e8ca25E', symObjAddr: 0x45B80, symBinAddr: 0x100042F10, symSize: 0xB0 }
  - { offset: 0x937A9, size: 0x8, addend: 0x0, symName: __ZN5alloc7raw_vec11finish_grow17h446b951c64c58a29E, symObjAddr: 0x45310, symBinAddr: 0x100063780, symSize: 0x70 }
  - { offset: 0x93835, size: 0x8, addend: 0x0, symName: '__ZN5alloc7raw_vec20RawVecInner$LT$A$GT$7reserve21do_reserve_and_handle17ha31d691a92aa6984E', symObjAddr: 0x45C30, symBinAddr: 0x1000637F0, symSize: 0xE0 }
  - { offset: 0x93AED, size: 0x8, addend: 0x0, symName: '__ZN58_$LT$alloc..string..String$u20$as$u20$core..fmt..Debug$GT$3fmt17hc75db25d6de527ebE', symObjAddr: 0x3CEA0, symBinAddr: 0x100040370, symSize: 0x20 }
  - { offset: 0x93BA8, size: 0x8, addend: 0x0, symName: '__ZN58_$LT$alloc..string..String$u20$as$u20$core..fmt..Write$GT$10write_char17hba3be11e36d4a54fE', symObjAddr: 0x3CEC0, symBinAddr: 0x100040390, symSize: 0x120 }
  - { offset: 0x93D2E, size: 0x8, addend: 0x0, symName: '__ZN58_$LT$alloc..string..String$u20$as$u20$core..fmt..Write$GT$9write_str17h0e3a6c0844845614E', symObjAddr: 0x3CFE0, symBinAddr: 0x1000404B0, symSize: 0x70 }
  - { offset: 0x93E28, size: 0x8, addend: 0x0, symName: '__ZN60_$LT$alloc..string..String$u20$as$u20$core..fmt..Display$GT$3fmt17h3ce6768c6f20d89dE', symObjAddr: 0x4EC80, symBinAddr: 0x10004BF30, symSize: 0x20 }
  - { offset: 0x9429B, size: 0x8, addend: 0x0, symName: '__ZN5alloc4sync16Arc$LT$T$C$A$GT$9drop_slow17h165e22aa5ecb5c14E', symObjAddr: 0x44F90, symBinAddr: 0x1000424B0, symSize: 0x90 }
  - { offset: 0x94597, size: 0x8, addend: 0x0, symName: '__ZN5alloc4sync16Arc$LT$T$C$A$GT$9drop_slow17h1b88c69b37654d90E', symObjAddr: 0x45020, symBinAddr: 0x100042540, symSize: 0xA0 }
  - { offset: 0x947A0, size: 0x8, addend: 0x0, symName: '__ZN5alloc4sync16Arc$LT$T$C$A$GT$9drop_slow17h38a2709360a70488E', symObjAddr: 0x450C0, symBinAddr: 0x1000425E0, symSize: 0x60 }
  - { offset: 0x94968, size: 0x8, addend: 0x0, symName: '__ZN5alloc4sync16Arc$LT$T$C$A$GT$9drop_slow17h4fe547a59c8e5f5cE', symObjAddr: 0x45120, symBinAddr: 0x100042640, symSize: 0x30 }
  - { offset: 0x94A49, size: 0x8, addend: 0x0, symName: '__ZN5alloc4sync16Arc$LT$T$C$A$GT$9drop_slow17h5dbc3385cf3806bdE', symObjAddr: 0x45150, symBinAddr: 0x100042670, symSize: 0x70 }
  - { offset: 0x94BEF, size: 0x8, addend: 0x0, symName: '__ZN5alloc4sync16Arc$LT$T$C$A$GT$9drop_slow17h6f3c55e925f13c23E', symObjAddr: 0x451C0, symBinAddr: 0x1000426E0, symSize: 0xA0 }
  - { offset: 0x957C1, size: 0x8, addend: 0x0, symName: __ZN6object4read7archive13ArchiveMember5parse17hd3e51da29e5488c1E, symObjAddr: 0x53F80, symBinAddr: 0x10004C9B0, symSize: 0x350 }
  - { offset: 0x95F18, size: 0x8, addend: 0x0, symName: __ZN6object4read7archive23parse_bsd_extended_name17h1aeb333c92faa5e9E, symObjAddr: 0x542D0, symBinAddr: 0x10004CD00, symSize: 0xB0 }
  - { offset: 0x9632C, size: 0x8, addend: 0x0, symName: '__ZN9addr2line4unit16ResUnit$LT$R$GT$25find_function_or_location28_$u7b$$u7b$closure$u7d$$u7d$17h74f8b46b09233272E', symObjAddr: 0x5B2C0, symBinAddr: 0x10004EBB0, symSize: 0x2F0 }
  - { offset: 0x966D2, size: 0x8, addend: 0x0, symName: '__ZN9addr2line4unit16ResUnit$LT$R$GT$25find_function_or_location17h779b8cc8975ca827E', symObjAddr: 0x5AE20, symBinAddr: 0x10004E710, symSize: 0x4A0 }
  - { offset: 0x96BFD, size: 0x8, addend: 0x0, symName: '__ZN9addr2line16Context$LT$R$GT$9find_unit17hafe5c4000e4dcc90E', symObjAddr: 0x5A630, symBinAddr: 0x10004DF20, symSize: 0x150 }
  - { offset: 0x96DE2, size: 0x8, addend: 0x0, symName: '__ZN9addr2line6lookup30LoopingLookup$LT$T$C$L$C$F$GT$10new_lookup17hcb3afea57a5db3abE', symObjAddr: 0x5B900, symBinAddr: 0x10004F1F0, symSize: 0x530 }
  - { offset: 0x9730A, size: 0x8, addend: 0x0, symName: __ZN9addr2line4line11render_file17h1c7a4084725a11a9E, symObjAddr: 0x5A780, symBinAddr: 0x10004E070, symSize: 0x6A0 }
  - { offset: 0x97CA0, size: 0x8, addend: 0x0, symName: '__ZN9addr2line8function17Function$LT$R$GT$14parse_children17h1b46ddfba7fb182cE', symObjAddr: 0x5C240, symBinAddr: 0x10004FB30, symSize: 0x1390 }
  - { offset: 0x992BC, size: 0x8, addend: 0x0, symName: __ZN9addr2line8function10name_entry17h5deb9017d935ead1E, symObjAddr: 0x5BE30, symBinAddr: 0x10004F720, symSize: 0x410 }
  - { offset: 0x99718, size: 0x8, addend: 0x0, symName: __ZN9addr2line8function9name_attr17hc5ba8693362fa215E, symObjAddr: 0x5D5D0, symBinAddr: 0x100050EC0, symSize: 0x1B0 }
  - { offset: 0x9993D, size: 0x8, addend: 0x0, symName: '__ZN9addr2line5frame18FrameIter$LT$R$GT$4next17h7dae5ed4e94f9885E', symObjAddr: 0x5B5B0, symBinAddr: 0x10004EEA0, symSize: 0x350 }
  - { offset: 0x9A1F0, size: 0x8, addend: 0x0, symName: '__ZN5gimli4read5dwarf14Dwarf$LT$R$GT$11attr_string17hc5d4d70dcc99f435E', symObjAddr: 0x4CCF0, symBinAddr: 0x100049FA0, symSize: 0x210 }
  - { offset: 0x9AA0D, size: 0x8, addend: 0x0, symName: '__ZN5gimli4read5dwarf13Unit$LT$R$GT$3new17h575ffe3f9752d03fE', symObjAddr: 0x4A4A0, symBinAddr: 0x100047750, symSize: 0x2850 }
  - { offset: 0x9DF88, size: 0x8, addend: 0x0, symName: '__ZN5gimli4read7aranges30ArangeHeader$LT$R$C$Offset$GT$5parse17h9e159263f6fe8401E', symObjAddr: 0x4DA20, symBinAddr: 0x10004ACD0, symSize: 0x2A0 }
  - { offset: 0x9EA8B, size: 0x8, addend: 0x0, symName: '__ZN5gimli4read4unit18Attribute$LT$R$GT$5value17h523c462abedaae9bE', symObjAddr: 0x492D0, symBinAddr: 0x100046580, symSize: 0x7C0 }
  - { offset: 0x9EE96, size: 0x8, addend: 0x0, symName: '__ZN90_$LT$gimli..read..unit..AttributeValue$LT$R$C$Offset$GT$$u20$as$u20$core..clone..Clone$GT$5clone17h098c211905b07158E', symObjAddr: 0x590A0, symBinAddr: 0x10004D630, symSize: 0x120 }
  - { offset: 0x9EEF6, size: 0x8, addend: 0x0, symName: '__ZN5gimli4read4unit32AttributeValue$LT$R$C$Offset$GT$11udata_value17h684c5d824dd1bde2E', symObjAddr: 0x49DC0, symBinAddr: 0x100047070, symSize: 0x80 }
  - { offset: 0x9EF51, size: 0x8, addend: 0x0, symName: __ZN5gimli4read4unit15parse_attribute17h3d2d3a95c0efe23eE, symObjAddr: 0x47250, symBinAddr: 0x100044500, symSize: 0x1960 }
  - { offset: 0xA22EC, size: 0x8, addend: 0x0, symName: __ZN5gimli4read4unit15skip_attributes17h92846bd14a53eed5E, symObjAddr: 0x48BB0, symBinAddr: 0x100045E60, symSize: 0x720 }
  - { offset: 0xA2CBA, size: 0x8, addend: 0x0, symName: '__ZN5gimli4read4unit22EntriesCursor$LT$R$GT$10next_entry17hd847dc3188d94e5bE', symObjAddr: 0x49A90, symBinAddr: 0x100046D40, symSize: 0x330 }
  - { offset: 0xA3201, size: 0x8, addend: 0x0, symName: '__ZN5gimli4read4unit33DebugInfoUnitHeadersIter$LT$R$GT$4next17hed0a8460df0391bfE', symObjAddr: 0x49E40, symBinAddr: 0x1000470F0, symSize: 0x660 }
  - { offset: 0xA43DE, size: 0x8, addend: 0x0, symName: __ZN5gimli4read6reader6Reader11read_offset17h5a1a189216526f37E, symObjAddr: 0x4D790, symBinAddr: 0x10004AA40, symSize: 0xB0 }
  - { offset: 0xA461B, size: 0x8, addend: 0x0, symName: __ZN5gimli4read6reader6Reader12read_uleb12817hf97552d5eed3df2dE, symObjAddr: 0x4D840, symBinAddr: 0x10004AAF0, symSize: 0xB0 }
  - { offset: 0xA46C9, size: 0x8, addend: 0x0, symName: __ZN5gimli4read6reader6Reader17read_sized_offset17h97b79870f9951699E, symObjAddr: 0x4D8F0, symBinAddr: 0x10004ABA0, symSize: 0x130 }
  - { offset: 0xA4D99, size: 0x8, addend: 0x0, symName: '__ZN5gimli4read8rnglists20RngListIter$LT$R$GT$4next17h8b60fae141bf2d6cE', symObjAddr: 0x4DCC0, symBinAddr: 0x10004AF70, symSize: 0xFC0 }
  - { offset: 0xA7461, size: 0x8, addend: 0x0, symName: '__ZN5gimli4read5index18UnitIndex$LT$R$GT$5parse17h95a74f9af645c1edE', symObjAddr: 0x4CF00, symBinAddr: 0x10004A1B0, symSize: 0x890 }
  - { offset: 0xA747E, size: 0x8, addend: 0x0, symName: '__ZN5gimli4read5index18UnitIndex$LT$R$GT$5parse17h95a74f9af645c1edE', symObjAddr: 0x4CF00, symBinAddr: 0x10004A1B0, symSize: 0x890 }
  - { offset: 0xA7492, size: 0x8, addend: 0x0, symName: '__ZN5gimli4read5index18UnitIndex$LT$R$GT$5parse17h95a74f9af645c1edE', symObjAddr: 0x4CF00, symBinAddr: 0x10004A1B0, symSize: 0x890 }
  - { offset: 0xA7B57, size: 0x8, addend: 0x0, symName: '__ZN5gimli4read4line27FileEntry$LT$R$C$Offset$GT$5parse17hd9bc2270faf33decE', symObjAddr: 0x46FF0, symBinAddr: 0x1000442A0, symSize: 0x260 }
  - { offset: 0xA7DA3, size: 0x8, addend: 0x0, symName: __ZN5gimli4read4line13parse_file_v517hd02b9988ac8f9c5bE, symObjAddr: 0x45D10, symBinAddr: 0x100042FC0, symSize: 0x350 }
  - { offset: 0xA7F1C, size: 0x8, addend: 0x0, symName: __ZN5gimli4read4line15FileEntryFormat5parse17h2a60ff0d29a79605E, symObjAddr: 0x46060, symBinAddr: 0x100043310, symSize: 0x3B0 }
  - { offset: 0xA86B6, size: 0x8, addend: 0x0, symName: __ZN5gimli4read4line15parse_attribute17h7d59469e6c7378d7E, symObjAddr: 0x46410, symBinAddr: 0x1000436C0, symSize: 0xAD0 }
  - { offset: 0xAA0BB, size: 0x8, addend: 0x0, symName: __ZN5gimli4read4line18parse_directory_v517hb56c57b85d13b5daE, symObjAddr: 0x46EE0, symBinAddr: 0x100044190, symSize: 0x110 }
  - { offset: 0xAA36F, size: 0x8, addend: 0x0, symName: __RNvCskdKJRKLKjqM_7___rustc18___rust_start_panic, symObjAddr: 0x0, symBinAddr: 0x1000516B0, symSize: 0xB0 }
  - { offset: 0xAA44A, size: 0x8, addend: 0x0, symName: __ZN12panic_unwind3imp5panic17exception_cleanup17hb98a4cfa7a07ae95E, symObjAddr: 0x100, symBinAddr: 0x1000517B0, symSize: 0x20 }
  - { offset: 0xAA466, size: 0x8, addend: 0x0, symName: __RNvCskdKJRKLKjqM_7___rustc18___rust_start_panic, symObjAddr: 0x0, symBinAddr: 0x1000516B0, symSize: 0xB0 }
  - { offset: 0xAA4F0, size: 0x8, addend: 0x0, symName: __RNvCskdKJRKLKjqM_7___rustc20___rust_panic_cleanup, symObjAddr: 0xB0, symBinAddr: 0x100051760, symSize: 0x50 }
  - { offset: 0xAA593, size: 0x8, addend: 0x0, symName: '__ZN4core3ptr49drop_in_place$LT$panic_unwind..imp..Exception$GT$17h0f7b2fc4f2fea7f1E', symObjAddr: 0x120, symBinAddr: 0x1000517D0, symSize: 0x70 }
  - { offset: 0xAA69A, size: 0x8, addend: 0x0, symName: '__ZN4core3ptr74drop_in_place$LT$alloc..boxed..Box$LT$panic_unwind..imp..Exception$GT$$GT$17hcd43110ac76b9736E', symObjAddr: 0x190, symBinAddr: 0x100051840, symSize: 0x89 }
  - { offset: 0xAAAE4, size: 0x8, addend: 0x0, symName: __ZN6memchr4arch6x86_646memchr10memchr_raw6detect17h2099730146b20b08E, symObjAddr: 0xF90, symBinAddr: 0x100051BF0, symSize: 0x1C0 }
  - { offset: 0xAB099, size: 0x8, addend: 0x0, symName: __ZN6memchr4arch6x86_646memchr10memchr_raw9find_sse217ha1fdf339af5e94d5E, symObjAddr: 0x1150, symBinAddr: 0x100051DB0, symSize: 0x1B0 }
  - { offset: 0xAB624, size: 0x8, addend: 0x0, symName: __ZN6memchr4arch6x86_646memchr11memchr2_raw6detect17h84a70ada683e86a1E, symObjAddr: 0x1300, symBinAddr: 0x100051F60, symSize: 0x1A0 }
  - { offset: 0xABCB7, size: 0x8, addend: 0x0, symName: __ZN6memchr4arch6x86_646memchr11memchr2_raw9find_sse217hc70ae4e2a27bbbefE, symObjAddr: 0x14A0, symBinAddr: 0x100052100, symSize: 0x1A0 }
  - { offset: 0xAC51B, size: 0x8, addend: 0x0, symName: '__ZN69_$LT$core..alloc..layout..LayoutError$u20$as$u20$core..fmt..Debug$GT$3fmt17hb904d59a11340822E', symObjAddr: 0x57F0, symBinAddr: 0x100059B50, symSize: 0x20 }
  - { offset: 0xAC77C, size: 0x8, addend: 0x0, symName: __ZN5alloc5alloc18handle_alloc_error17h3762db9dd870b9a9E, symObjAddr: 0x35BA, symBinAddr: 0x1000639DA, symSize: 0x16 }
  - { offset: 0xAC9FF, size: 0x8, addend: 0x0, symName: __ZN5alloc7raw_vec11finish_grow17h3ef34721aec5e3b7E, symObjAddr: 0x52C0, symBinAddr: 0x1000639F0, symSize: 0x6E }
  - { offset: 0xACA74, size: 0x8, addend: 0x0, symName: __ZN5alloc7raw_vec12handle_error17h937a4fa340d4a4b8E, symObjAddr: 0x532E, symBinAddr: 0x100063A5E, symSize: 0x22 }
  - { offset: 0xACAB3, size: 0x8, addend: 0x0, symName: __ZN5alloc7raw_vec17capacity_overflow17hfafd9746150329d6E, symObjAddr: 0x5350, symBinAddr: 0x100063A80, symSize: 0x40 }
  - { offset: 0xACAEC, size: 0x8, addend: 0x0, symName: '__ZN5alloc7raw_vec20RawVecInner$LT$A$GT$7reserve21do_reserve_and_handle17h05c0f4d79cdd84bfE', symObjAddr: 0x5430, symBinAddr: 0x100063AC0, symSize: 0xB0 }
  - { offset: 0xACC52, size: 0x8, addend: 0x0, symName: '__ZN254_$LT$alloc..boxed..convert..$LT$impl$u20$core..convert..From$LT$alloc..string..String$GT$$u20$for$u20$alloc..boxed..Box$LT$dyn$u20$core..error..Error$u2b$core..marker..Sync$u2b$core..marker..Send$GT$$GT$..from..StringError$u20$as$u20$core..fmt..Debug$GT$3fmt17hcf569323b84bf267E', symObjAddr: 0x140, symBinAddr: 0x100059710, symSize: 0x20 }
  - { offset: 0xACD23, size: 0x8, addend: 0x0, symName: '__ZN256_$LT$alloc..boxed..convert..$LT$impl$u20$core..convert..From$LT$alloc..string..String$GT$$u20$for$u20$alloc..boxed..Box$LT$dyn$u20$core..error..Error$u2b$core..marker..Sync$u2b$core..marker..Send$GT$$GT$..from..StringError$u20$as$u20$core..fmt..Display$GT$3fmt17h1b1a69dfec465030E', symObjAddr: 0x160, symBinAddr: 0x100059730, symSize: 0x20 }
  - { offset: 0xACE02, size: 0x8, addend: 0x0, symName: __ZN5alloc3ffi5c_str7CString19_from_vec_unchecked17ha526334e500b1abdE, symObjAddr: 0xC50, symBinAddr: 0x100059750, symSize: 0x120 }
  - { offset: 0xAD170, size: 0x8, addend: 0x0, symName: '__ZN72_$LT$$RF$str$u20$as$u20$alloc..ffi..c_str..CString..new..SpecNewImpl$GT$13spec_new_impl17h86c6e2e3ca147532E', symObjAddr: 0x5810, symBinAddr: 0x100059B70, symSize: 0x120 }
  - { offset: 0xAD586, size: 0x8, addend: 0x0, symName: __ZN5alloc6string6String15from_utf8_lossy17h0471d885b3e9b3ebE, symObjAddr: 0x4790, symBinAddr: 0x1000598E0, symSize: 0x270 }
  - { offset: 0xADC32, size: 0x8, addend: 0x0, symName: '__ZN98_$LT$alloc..string..String$u20$as$u20$core..convert..From$LT$alloc..borrow..Cow$LT$str$GT$$GT$$GT$4from17h1463175ae5508b78E', symObjAddr: 0x61F0, symBinAddr: 0x100059C90, symSize: 0xAB }
  - { offset: 0xADE32, size: 0x8, addend: 0x0, symName: __ZN5alloc4sync32arcinner_layout_for_value_layout17h6aceeaaa01c07cfaE, symObjAddr: 0x2690, symBinAddr: 0x100059870, symSize: 0x70 }
  - { offset: 0xADE49, size: 0x8, addend: 0x0, symName: __ZN5alloc4sync32arcinner_layout_for_value_layout17h6aceeaaa01c07cfaE, symObjAddr: 0x2690, symBinAddr: 0x100059870, symSize: 0x70 }
  - { offset: 0xADE5E, size: 0x8, addend: 0x0, symName: __ZN5alloc4sync32arcinner_layout_for_value_layout17h6aceeaaa01c07cfaE, symObjAddr: 0x2690, symBinAddr: 0x100059870, symSize: 0x70 }
  - { offset: 0xADF87, size: 0x8, addend: 0x0, symName: '__ZN71_$LT$core..ops..range..Range$LT$Idx$GT$$u20$as$u20$core..fmt..Debug$GT$3fmt17hc330239f60cc9eb3E', symObjAddr: 0x1F4B0, symBinAddr: 0x10005E7F0, symSize: 0x50 }
  - { offset: 0xAE23B, size: 0x8, addend: 0x0, symName: '__ZN4core4char7methods22_$LT$impl$u20$char$GT$16escape_debug_ext17hb449749641e3affeE', symObjAddr: 0x176B0, symBinAddr: 0x10005D7D0, symSize: 0x2D0 }
  - { offset: 0xAE44F, size: 0x8, addend: 0x0, symName: __ZN4core4char7methods15encode_utf8_raw8do_panic7runtime17hb720cf973e12fcdfE, symObjAddr: 0x17590, symBinAddr: 0x100063BF0, symSize: 0x90 }
  - { offset: 0xAE8C7, size: 0x8, addend: 0x0, symName: __ZN4core6option13expect_failed17h1ec281f12b35982eE, symObjAddr: 0x18040, symBinAddr: 0x100063E60, symSize: 0x60 }
  - { offset: 0xAE90F, size: 0x8, addend: 0x0, symName: __ZN4core6option13unwrap_failed17hd0abc7d118070f58E, symObjAddr: 0x180A0, symBinAddr: 0x100063EC0, symSize: 0x20 }
  - { offset: 0xAEE46, size: 0x8, addend: 0x0, symName: __ZN4core5slice5index16slice_index_fail8do_panic7runtime17h41282b038f05ddfaE, symObjAddr: 0x17D00, symBinAddr: 0x100063D10, symSize: 0x70 }
  - { offset: 0xAEE77, size: 0x8, addend: 0x0, symName: __ZN4core5slice5index16slice_index_fail8do_panic7runtime17haaf49c781c78a5c0E, symObjAddr: 0x17D70, symBinAddr: 0x100063D80, symSize: 0x70 }
  - { offset: 0xAEEA8, size: 0x8, addend: 0x0, symName: __ZN4core5slice5index16slice_index_fail8do_panic7runtime17hae4da62edc07a39fE, symObjAddr: 0x17DE0, symBinAddr: 0x100063DF0, symSize: 0x70 }
  - { offset: 0xAEEDB, size: 0x8, addend: 0x0, symName: __ZN4core5slice5index16slice_index_fail17h1a065c4e1a1e0b41E, symObjAddr: 0x17CC0, symBinAddr: 0x100063CD0, symSize: 0x40 }
  - { offset: 0xAEF87, size: 0x8, addend: 0x0, symName: __ZN4core5slice6memchr14memchr_aligned17hbe324882bd8e8f20E, symObjAddr: 0x17E50, symBinAddr: 0x10005DB00, symSize: 0xE0 }
  - { offset: 0xAF081, size: 0x8, addend: 0x0, symName: __ZN4core5slice6memchr7memrchr17h3060eb51c807ecd7E, symObjAddr: 0x17F30, symBinAddr: 0x10005DBE0, symSize: 0x110 }
  - { offset: 0xAF271, size: 0x8, addend: 0x0, symName: __ZN4core5slice4sort6shared9smallsort22panic_on_ord_violation17hd9a4c3c4a8ebe09aE, symObjAddr: 0x17BA0, symBinAddr: 0x100063C80, symSize: 0x50 }
  - { offset: 0xAF2AE, size: 0x8, addend: 0x0, symName: __ZN4core5slice4sort6stable5drift11sqrt_approx17h5b54c8126d8482dbE, symObjAddr: 0x17BF0, symBinAddr: 0x10005DAD0, symSize: 0x30 }
  - { offset: 0xAF3A3, size: 0x8, addend: 0x0, symName: __ZN4core3fmt9Formatter10debug_list17h9d2456a350d67ad8E, symObjAddr: 0xA1C0, symBinAddr: 0x10005B770, symSize: 0x40 }
  - { offset: 0xAF3E3, size: 0x8, addend: 0x0, symName: __ZN4core3fmt9Formatter11debug_tuple17hdcc53271f394ac41E, symObjAddr: 0xA200, symBinAddr: 0x10005B7B0, symSize: 0x50 }
  - { offset: 0xAF438, size: 0x8, addend: 0x0, symName: __ZN4core3fmt9Formatter12debug_struct17h8c9b9889fabaa42eE, symObjAddr: 0xA250, symBinAddr: 0x10005B800, symSize: 0x40 }
  - { offset: 0xAF4A1, size: 0x8, addend: 0x0, symName: __ZN4core3fmt9Formatter12pad_integral17h5b6fb6906b7fe010E, symObjAddr: 0xA2F0, symBinAddr: 0x10005B8A0, symSize: 0x4A0 }
  - { offset: 0xAF730, size: 0x8, addend: 0x0, symName: __ZN4core3fmt9Formatter25debug_tuple_field1_finish17hc108d765633dc1f9E, symObjAddr: 0xACB0, symBinAddr: 0x10005BD40, symSize: 0x140 }
  - { offset: 0xAF938, size: 0x8, addend: 0x0, symName: __ZN4core3fmt9Formatter25debug_tuple_field2_finish17h3020954311064adeE, symObjAddr: 0xADF0, symBinAddr: 0x10005BE80, symSize: 0x1A0 }
  - { offset: 0xAFC30, size: 0x8, addend: 0x0, symName: __ZN4core3fmt9Formatter26debug_struct_field1_finish17h161bc6caec1550cdE, symObjAddr: 0xBA70, symBinAddr: 0x10005C020, symSize: 0xB0 }
  - { offset: 0xAFD07, size: 0x8, addend: 0x0, symName: __ZN4core3fmt9Formatter26debug_struct_field2_finish17h9392189e9ab00f59E, symObjAddr: 0xBB20, symBinAddr: 0x10005C0D0, symSize: 0xD0 }
  - { offset: 0xAFDDE, size: 0x8, addend: 0x0, symName: __ZN4core3fmt9Formatter3pad17h37b5dfd85e2b0428E, symObjAddr: 0xC000, symBinAddr: 0x10005C1A0, symSize: 0x3D0 }
  - { offset: 0xB0050, size: 0x8, addend: 0x0, symName: __ZN4core3fmt9Formatter9write_str17h532155584af4b419E, symObjAddr: 0xC460, symBinAddr: 0x10005C570, symSize: 0x20 }
  - { offset: 0xB00C0, size: 0x8, addend: 0x0, symName: __ZN4core3fmt8builders11DebugStruct5field17h99bfe0cd343e038aE, symObjAddr: 0x97F0, symBinAddr: 0x10005B420, symSize: 0x190 }
  - { offset: 0xB02D4, size: 0x8, addend: 0x0, symName: __ZN4core3fmt8builders11DebugStruct6finish17h759eca09f088587cE, symObjAddr: 0x9980, symBinAddr: 0x10005B5B0, symSize: 0x60 }
  - { offset: 0xB03FC, size: 0x8, addend: 0x0, symName: __ZN4core3fmt8builders10DebugTuple5field17hcff3261d35d211e6E, symObjAddr: 0x9550, symBinAddr: 0x10005B260, symSize: 0x130 }
  - { offset: 0xB056A, size: 0x8, addend: 0x0, symName: __ZN4core3fmt8builders10DebugTuple6finish17hee865a46ed84494bE, symObjAddr: 0x9680, symBinAddr: 0x10005B390, symSize: 0x90 }
  - { offset: 0xB06A5, size: 0x8, addend: 0x0, symName: __ZN4core3fmt8builders8DebugSet5entry17h9ad4bd41e6760f90E, symObjAddr: 0x9F60, symBinAddr: 0x10005B610, symSize: 0x120 }
  - { offset: 0xB0886, size: 0x8, addend: 0x0, symName: __ZN4core3fmt8builders9DebugList6finish17he5544af857123449E, symObjAddr: 0xA180, symBinAddr: 0x10005B730, symSize: 0x40 }
  - { offset: 0xB0903, size: 0x8, addend: 0x0, symName: '__ZN68_$LT$core..fmt..builders..PadAdapter$u20$as$u20$core..fmt..Write$GT$10write_char17h8781eb8fef702588E', symObjAddr: 0x1E270, symBinAddr: 0x10005E510, symSize: 0x60 }
  - { offset: 0xB092C, size: 0x8, addend: 0x0, symName: '__ZN68_$LT$core..fmt..builders..PadAdapter$u20$as$u20$core..fmt..Write$GT$9write_str17h3ac9bf90fc6b2989E', symObjAddr: 0x1E2D0, symBinAddr: 0x10005E570, symSize: 0x280 }
  - { offset: 0xB0B8E, size: 0x8, addend: 0x0, symName: '__ZN57_$LT$core..fmt..Formatter$u20$as$u20$core..fmt..Write$GT$10write_char17h4978b0c667a9d8b0E', symObjAddr: 0x1A5E0, symBinAddr: 0x10005E080, symSize: 0x20 }
  - { offset: 0xB0BCA, size: 0x8, addend: 0x0, symName: '__ZN40_$LT$str$u20$as$u20$core..fmt..Debug$GT$3fmt17h3cbb4b7bcf7be3d7E', symObjAddr: 0x240, symBinAddr: 0x100059D40, symSize: 0x3A0 }
  - { offset: 0xB102D, size: 0x8, addend: 0x0, symName: '__ZN41_$LT$char$u20$as$u20$core..fmt..Debug$GT$3fmt17h4e11ed1b5452e387E', symObjAddr: 0x5E0, symBinAddr: 0x10005A0E0, symSize: 0xA0 }
  - { offset: 0xB1156, size: 0x8, addend: 0x0, symName: '__ZN42_$LT$$RF$T$u20$as$u20$core..fmt..Debug$GT$3fmt17h0f40b67a922b1ec5E', symObjAddr: 0x680, symBinAddr: 0x10005A180, symSize: 0x10 }
  - { offset: 0xB1171, size: 0x8, addend: 0x0, symName: '__ZN42_$LT$$RF$T$u20$as$u20$core..fmt..Debug$GT$3fmt17h7680cd2a2d1e04fdE', symObjAddr: 0x6B0, symBinAddr: 0x10005A190, symSize: 0x20 }
  - { offset: 0xB1193, size: 0x8, addend: 0x0, symName: '__ZN42_$LT$$RF$T$u20$as$u20$core..fmt..Debug$GT$3fmt17h868720066d227907E', symObjAddr: 0x6D0, symBinAddr: 0x10005A1B0, symSize: 0x160 }
  - { offset: 0xB13BA, size: 0x8, addend: 0x0, symName: '__ZN42_$LT$$RF$T$u20$as$u20$core..fmt..Debug$GT$3fmt17he2aa20ce460ddad7E', symObjAddr: 0x860, symBinAddr: 0x10005A310, symSize: 0x10 }
  - { offset: 0xB13E2, size: 0x8, addend: 0x0, symName: '__ZN42_$LT$str$u20$as$u20$core..fmt..Display$GT$3fmt17h83ec9ba80990d67aE', symObjAddr: 0x870, symBinAddr: 0x10005A320, symSize: 0x20 }
  - { offset: 0xB140A, size: 0x8, addend: 0x0, symName: '__ZN43_$LT$char$u20$as$u20$core..fmt..Display$GT$3fmt17ha887c9494bff9603E', symObjAddr: 0x8D0, symBinAddr: 0x10005A340, symSize: 0xC0 }
  - { offset: 0xB1479, size: 0x8, addend: 0x0, symName: '__ZN44_$LT$$RF$T$u20$as$u20$core..fmt..Display$GT$3fmt17h1fb02a4f1d7d14b9E', symObjAddr: 0x990, symBinAddr: 0x10005A400, symSize: 0x20 }
  - { offset: 0xB154D, size: 0x8, addend: 0x0, symName: '__ZN4core3fmt3num3imp51_$LT$impl$u20$core..fmt..Display$u20$for$u20$u8$GT$3fmt17h1a13e7c6295dbb75E', symObjAddr: 0x2630, symBinAddr: 0x10005A5E0, symSize: 0xA0 }
  - { offset: 0xB1632, size: 0x8, addend: 0x0, symName: '__ZN4core3fmt3num3imp52_$LT$impl$u20$core..fmt..Display$u20$for$u20$i32$GT$3fmt17h4add2573f547cd42E', symObjAddr: 0x27D0, symBinAddr: 0x10005A680, symSize: 0x120 }
  - { offset: 0xB1752, size: 0x8, addend: 0x0, symName: '__ZN4core3fmt3num3imp52_$LT$impl$u20$core..fmt..Display$u20$for$u20$u32$GT$3fmt17haa57ce01fac3917eE', symObjAddr: 0x2B00, symBinAddr: 0x10005A7A0, symSize: 0x110 }
  - { offset: 0xB185F, size: 0x8, addend: 0x0, symName: '__ZN4core3fmt3num3imp52_$LT$impl$u20$core..fmt..Display$u20$for$u20$u64$GT$3fmt17h8b8600c70b3a3ac8E', symObjAddr: 0x2C10, symBinAddr: 0x10005A8B0, symSize: 0x110 }
  - { offset: 0xB199A, size: 0x8, addend: 0x0, symName: '__ZN4core3fmt3num52_$LT$impl$u20$core..fmt..LowerHex$u20$for$u20$u8$GT$3fmt17h39a52b6e10cf70aeE', symObjAddr: 0x4AE0, symBinAddr: 0x10005AD10, symSize: 0x70 }
  - { offset: 0xB1A2B, size: 0x8, addend: 0x0, symName: '__ZN4core3fmt3num52_$LT$impl$u20$core..fmt..UpperHex$u20$for$u20$u8$GT$3fmt17h865b83e01c77f87fE', symObjAddr: 0x4BC0, symBinAddr: 0x10005AD80, symSize: 0x70 }
  - { offset: 0xB1ACF, size: 0x8, addend: 0x0, symName: '__ZN4core3fmt3num53_$LT$impl$u20$core..fmt..UpperHex$u20$for$u20$u32$GT$3fmt17he24323287b2084c2E', symObjAddr: 0x5170, symBinAddr: 0x10005AF40, symSize: 0x70 }
  - { offset: 0xB1B60, size: 0x8, addend: 0x0, symName: '__ZN4core3fmt3num53_$LT$impl$u20$core..fmt..LowerHex$u20$for$u20$u64$GT$3fmt17h3112ef8c0abad7d1E', symObjAddr: 0x4F40, symBinAddr: 0x10005AE60, symSize: 0x70 }
  - { offset: 0xB1BF1, size: 0x8, addend: 0x0, symName: '__ZN4core3fmt3num53_$LT$impl$u20$core..fmt..UpperHex$u20$for$u20$u64$GT$3fmt17hf363a6f2e4cad34eE', symObjAddr: 0x51E0, symBinAddr: 0x10005AFB0, symSize: 0x70 }
  - { offset: 0xB1C75, size: 0x8, addend: 0x0, symName: '__ZN4core3fmt3num50_$LT$impl$u20$core..fmt..Debug$u20$for$u20$u64$GT$3fmt17h376bce9b57b8a762E', symObjAddr: 0x3E60, symBinAddr: 0x10005A9C0, symSize: 0x1A0 }
  - { offset: 0xB1E09, size: 0x8, addend: 0x0, symName: '__ZN4core3fmt3num52_$LT$impl$u20$core..fmt..Debug$u20$for$u20$usize$GT$3fmt17h4806199c82f902ceE', symObjAddr: 0x48C0, symBinAddr: 0x10005AB60, symSize: 0x1B0 }
  - { offset: 0xB1F8A, size: 0x8, addend: 0x0, symName: '__ZN4core3fmt3num53_$LT$impl$u20$core..fmt..LowerHex$u20$for$u20$i32$GT$3fmt17hfee837de970427b1E', symObjAddr: 0x4D80, symBinAddr: 0x10005ADF0, symSize: 0x70 }
  - { offset: 0xB2030, size: 0x8, addend: 0x0, symName: '__ZN4core3fmt3num53_$LT$impl$u20$core..fmt..UpperHex$u20$for$u20$i32$GT$3fmt17h26acf60f65152f77E', symObjAddr: 0x5020, symBinAddr: 0x10005AED0, symSize: 0x70 }
  - { offset: 0xB2251, size: 0x8, addend: 0x0, symName: __ZN4core3fmt17pointer_fmt_inner17h97023b135e02a0e7E, symObjAddr: 0x1240, symBinAddr: 0x10005A540, symSize: 0xA0 }
  - { offset: 0xB2342, size: 0x8, addend: 0x0, symName: __ZN4core3fmt5Write9write_fmt17h852655db2bea3a71E, symObjAddr: 0x6270, symBinAddr: 0x10005B020, symSize: 0x20 }
  - { offset: 0xB23C1, size: 0x8, addend: 0x0, symName: __ZN4core3fmt5write17h32d512c5550f2c71E, symObjAddr: 0x9280, symBinAddr: 0x10005B040, symSize: 0x220 }
  - { offset: 0xB256F, size: 0x8, addend: 0x0, symName: __ZN4core3fmt9Formatter12pad_integral12write_prefix17he3bb54c358307d3fE, symObjAddr: 0xA290, symBinAddr: 0x10005B840, symSize: 0x60 }
  - { offset: 0xB25D7, size: 0x8, addend: 0x0, symName: '__ZN59_$LT$core..fmt..Arguments$u20$as$u20$core..fmt..Display$GT$3fmt17hfd1b80e04662b19aE', symObjAddr: 0x1B480, symBinAddr: 0x10005E0A0, symSize: 0x20 }
  - { offset: 0xB26FA, size: 0x8, addend: 0x0, symName: __ZN4core6result13unwrap_failed17h5b5681f5bd639151E, symObjAddr: 0x180C0, symBinAddr: 0x100063EE0, symSize: 0x80 }
  - { offset: 0xB2988, size: 0x8, addend: 0x0, symName: __ZN4core3str5count14do_count_chars17hc493e781e0338f55E, symObjAddr: 0x16370, symBinAddr: 0x10005C930, symSize: 0x5A0 }
  - { offset: 0xB2DD0, size: 0x8, addend: 0x0, symName: __ZN4core3str5count23char_count_general_case17h45b75eff409d0732E, symObjAddr: 0x16910, symBinAddr: 0x10005CED0, symSize: 0xB0 }
  - { offset: 0xB2E24, size: 0x8, addend: 0x0, symName: __ZN4core3str5count23char_count_general_case17h45b75eff409d0732E, symObjAddr: 0x16910, symBinAddr: 0x10005CED0, symSize: 0xB0 }
  - { offset: 0xB2EA1, size: 0x8, addend: 0x0, symName: __ZN4core3str16slice_error_fail17h7ebf3d4aa8bf503fE, symObjAddr: 0x15DF0, symBinAddr: 0x100063B70, symSize: 0x10 }
  - { offset: 0xB2EBB, size: 0x8, addend: 0x0, symName: __ZN4core3str19slice_error_fail_rt17hfa55243860877ddbE, symObjAddr: 0x15E40, symBinAddr: 0x10005C590, symSize: 0x3A0 }
  - { offset: 0xB30A2, size: 0x8, addend: 0x0, symName: __ZN4core3str7pattern11StrSearcher3new17hfab9aab88f91478aE, symObjAddr: 0x16A00, symBinAddr: 0x10005CF80, symSize: 0x640 }
  - { offset: 0xB3362, size: 0x8, addend: 0x0, symName: __ZN4core3str8converts9from_utf817hab685de2f5c40023E, symObjAddr: 0x17250, symBinAddr: 0x10005D5C0, symSize: 0x210 }
  - { offset: 0xB33BD, size: 0x8, addend: 0x0, symName: '__ZN60_$LT$core..str..lossy..Debug$u20$as$u20$core..fmt..Debug$GT$3fmt17h0efb8d0ae8c168dfE', symObjAddr: 0x1BBD0, symBinAddr: 0x10005E0C0, symSize: 0x430 }
  - { offset: 0xB375E, size: 0x8, addend: 0x0, symName: '__ZN87_$LT$core..str..lossy..Utf8Chunks$u20$as$u20$core..iter..traits..iterator..Iterator$GT$4next17hc6bf0146e235ca7cE', symObjAddr: 0x217F0, symBinAddr: 0x10005E840, symSize: 0x1A0 }
  - { offset: 0xB3972, size: 0x8, addend: 0x0, symName: __ZN4core3ffi5c_str4CStr19from_bytes_with_nul17h663354f457718412E, symObjAddr: 0xFF0, symBinAddr: 0x10005A420, symSize: 0x120 }
  - { offset: 0xB3A88, size: 0x8, addend: 0x0, symName: __ZN4core4cell22panic_already_borrowed8do_panic7runtime17hb02334c284ba6668E, symObjAddr: 0x17470, symBinAddr: 0x100063B90, symSize: 0x60 }
  - { offset: 0xB3ABB, size: 0x8, addend: 0x0, symName: __ZN4core4cell22panic_already_borrowed17h380a7ae12b05c21bE, symObjAddr: 0x17460, symBinAddr: 0x100063B80, symSize: 0x10 }
  - { offset: 0xB3AF0, size: 0x8, addend: 0x0, symName: '__ZN65_$LT$core..cell..BorrowMutError$u20$as$u20$core..fmt..Display$GT$3fmt17hbdc0278247eb0cacE', symObjAddr: 0x1C610, symBinAddr: 0x10005E4F0, symSize: 0x20 }
  - { offset: 0xB3B40, size: 0x8, addend: 0x0, symName: __ZN4core7unicode12unicode_data15grapheme_extend11lookup_slow17hdcf8fe3bcaa288d6E, symObjAddr: 0x185E0, symBinAddr: 0x10005DCF0, symSize: 0x100 }
  - { offset: 0xB3D5B, size: 0x8, addend: 0x0, symName: __ZN4core7unicode9printable12is_printable17hc67588a861ee36a9E, symObjAddr: 0x18AB0, symBinAddr: 0x10005DDF0, symSize: 0x290 }
  - { offset: 0xB408C, size: 0x8, addend: 0x0, symName: __ZN4core5alloc6layout6Layout19is_size_align_valid17h9b309ba4c67ddf6eE, symObjAddr: 0x17A30, symBinAddr: 0x10005DAA0, symSize: 0x30 }
  - { offset: 0xB40D6, size: 0x8, addend: 0x0, symName: __ZN4core9panicking11panic_const23panic_const_div_by_zero17h1817bf4a5c63dcf1E, symObjAddr: 0x18D40, symBinAddr: 0x100063F60, symSize: 0x40 }
  - { offset: 0xB4105, size: 0x8, addend: 0x0, symName: __ZN4core9panicking11panic_const23panic_const_rem_by_zero17h66d921d73263a198E, symObjAddr: 0x18DC0, symBinAddr: 0x100063FA0, symSize: 0x40 }
  - { offset: 0xB4134, size: 0x8, addend: 0x0, symName: __ZN4core9panicking11panic_const24panic_const_add_overflow17hbc5e9fcbe302c148E, symObjAddr: 0x18E00, symBinAddr: 0x100063FE0, symSize: 0x40 }
  - { offset: 0xB4164, size: 0x8, addend: 0x0, symName: __ZN4core9panicking13assert_failed17h512a2273a08e4ba1E, symObjAddr: 0x192BF, symBinAddr: 0x10006402F, symSize: 0x2F }
  - { offset: 0xB417F, size: 0x8, addend: 0x0, symName: __ZN4core9panicking13assert_failed17haff998095acd4f8eE, symObjAddr: 0x192EE, symBinAddr: 0x10006405E, symSize: 0x2F }
  - { offset: 0xB419A, size: 0x8, addend: 0x0, symName: __ZN4core9panicking13assert_failed17hf790c8989ead8b5cE, symObjAddr: 0x1931D, symBinAddr: 0x10006408D, symSize: 0x33 }
  - { offset: 0xB41B5, size: 0x8, addend: 0x0, symName: __ZN4core9panicking14panic_nounwind17h4e71c9dba73fe19eE, symObjAddr: 0x19350, symBinAddr: 0x1000640C0, symSize: 0x50 }
  - { offset: 0xB41E4, size: 0x8, addend: 0x0, symName: __ZN4core9panicking16panic_in_cleanup17h278dcedb7b834eecE, symObjAddr: 0x19418, symBinAddr: 0x100064118, symSize: 0x13 }
  - { offset: 0xB41FF, size: 0x8, addend: 0x0, symName: __ZN4core9panicking18panic_bounds_check17hd6c879668b498650E, symObjAddr: 0x1942B, symBinAddr: 0x10006412B, symSize: 0x65 }
  - { offset: 0xB423E, size: 0x8, addend: 0x0, symName: __ZN4core9panicking18panic_nounwind_fmt17h13cf4419fe26bc7eE, symObjAddr: 0x19490, symBinAddr: 0x100064190, symSize: 0x5B }
  - { offset: 0xB4283, size: 0x8, addend: 0x0, symName: __ZN4core9panicking19assert_failed_inner17h4305f0dee9388e3cE, symObjAddr: 0x194EB, symBinAddr: 0x1000641EB, symSize: 0x127 }
  - { offset: 0xB42BD, size: 0x8, addend: 0x0, symName: __ZN4core9panicking19panic_cannot_unwind17ha66eab6f79487262E, symObjAddr: 0x19612, symBinAddr: 0x100064312, symSize: 0x1E }
  - { offset: 0xB42D8, size: 0x8, addend: 0x0, symName: __ZN4core9panicking26panic_nounwind_nobacktrace17hb4fbf937932f35e4E, symObjAddr: 0x19630, symBinAddr: 0x100064330, symSize: 0x4D }
  - { offset: 0xB4307, size: 0x8, addend: 0x0, symName: __ZN4core9panicking5panic17hea69a7d4c28c810cE, symObjAddr: 0x19780, symBinAddr: 0x100064380, symSize: 0x50 }
  - { offset: 0xB4336, size: 0x8, addend: 0x0, symName: __ZN4core9panicking9panic_fmt17h46fb0d6076d2bd77E, symObjAddr: 0x197D0, symBinAddr: 0x1000643D0, symSize: 0x20 }
...
