---
triple:          'x86_64-apple-darwin'
binary-path:     '/Users/kema/git/rust-serv/target/debug/deps/libzerocopy_derive-25049b42d1813eca.dylib'
relocations:
  - { offset: 0x1E, size: 0x8, addend: 0x0, symName: __RNCNCNvNtNtCs9E08dBcDM90_15zerocopy_derive6derive14try_from_bytes19derive_is_bit_valid00B9_, symObjAddr: 0x0, symBinAddr: 0xBD0, symSize: 0x2980 }
  - { offset: 0x7D82, size: 0x8, addend: 0x0, symName: __RNvXs1_NtNtNtCsieiGu2EXtoJ_4core3ops8function5implsQNCNvNtNtCs9E08dBcDM90_15zerocopy_derive6derive14try_from_bytes23generate_variants_union0INtB7_5FnMutTRNtNtCsdGrGZaRBwMb_3syn4data7VariantEE8call_mutBW_, symObjAddr: 0xEFD0, symBinAddr: 0xFBA0, symSize: 0x30 }
  - { offset: 0x7DD1, size: 0x8, addend: 0x0, symName: __RNvXs1_NtNtNtCsieiGu2EXtoJ_4core3ops8function5implsQNCNvNtNtCs9E08dBcDM90_15zerocopy_derive6derive14try_from_bytes24generate_variant_structs0INtB7_5FnMutTRNtNtCsdGrGZaRBwMb_3syn4data7VariantEE8call_mutBW_, symObjAddr: 0xF000, symBinAddr: 0xFBD0, symSize: 0x30 }
  - { offset: 0x9B32, size: 0x8, addend: 0x0, symName: __RNCNCNvNtNtCs9E08dBcDM90_15zerocopy_derive6derive14try_from_bytes19derive_is_bit_valid00B9_, symObjAddr: 0x0, symBinAddr: 0xBD0, symSize: 0x2980 }
  - { offset: 0xA014, size: 0x8, addend: 0x0, symName: __RNCNvNtNtCs9E08dBcDM90_15zerocopy_derive6derive14try_from_bytes19derive_is_bit_valid0B7_, symObjAddr: 0x2A90, symBinAddr: 0x3660, symSize: 0x310 }
  - { offset: 0xA10D, size: 0x8, addend: 0x0, symName: __RNCNvNtNtCs9E08dBcDM90_15zerocopy_derive6derive14try_from_bytes19derive_is_bit_valids_0B7_, symObjAddr: 0x2DA0, symBinAddr: 0x3970, symSize: 0xB40 }
  - { offset: 0xA2CB, size: 0x8, addend: 0x0, symName: __RNCNCNvNtNtCs9E08dBcDM90_15zerocopy_derive6derive14try_from_bytes24generate_variant_structs00B9_, symObjAddr: 0x2980, symBinAddr: 0x3550, symSize: 0x20 }
  - { offset: 0xA309, size: 0x8, addend: 0x0, symName: __RNCNvNtNtCs9E08dBcDM90_15zerocopy_derive6derive14try_from_bytes24generate_variant_structs0B7_, symObjAddr: 0x3CF0, symBinAddr: 0x48C0, symSize: 0x770 }
  - { offset: 0xA52C, size: 0x8, addend: 0x0, symName: __RNCNCNvNtNtCs9E08dBcDM90_15zerocopy_derive6derive14try_from_bytes27derive_try_from_bytes_unions_00B9_, symObjAddr: 0x29A0, symBinAddr: 0x3570, symSize: 0x30 }
  - { offset: 0xA561, size: 0x8, addend: 0x0, symName: __RNCNCNvNtNtCs9E08dBcDM90_15zerocopy_derive6derive14try_from_bytes27derive_try_from_bytes_unions_0s_0B9_, symObjAddr: 0x29D0, symBinAddr: 0x35A0, symSize: 0x30 }
  - { offset: 0xA5A5, size: 0x8, addend: 0x0, symName: __RNCNvNtNtCs9E08dBcDM90_15zerocopy_derive6derive14try_from_bytes27derive_try_from_bytes_union0B7_, symObjAddr: 0x4550, symBinAddr: 0x5120, symSize: 0x20 }
  - { offset: 0xA5DF, size: 0x8, addend: 0x0, symName: __RNCNvNtNtCs9E08dBcDM90_15zerocopy_derive6derive14try_from_bytes27derive_try_from_bytes_unions_0B7_, symObjAddr: 0x4570, symBinAddr: 0x5140, symSize: 0x1060 }
  - { offset: 0xAA4C, size: 0x8, addend: 0x0, symName: __RNCNCNvNtNtCs9E08dBcDM90_15zerocopy_derive6derive14try_from_bytes28derive_try_from_bytes_struct00B9_, symObjAddr: 0x2A00, symBinAddr: 0x35D0, symSize: 0x30 }
  - { offset: 0xAA81, size: 0x8, addend: 0x0, symName: __RNCNCNvNtNtCs9E08dBcDM90_15zerocopy_derive6derive14try_from_bytes28derive_try_from_bytes_struct0s_0B9_, symObjAddr: 0x2A30, symBinAddr: 0x3600, symSize: 0x30 }
  - { offset: 0xAAC5, size: 0x8, addend: 0x0, symName: __RNCNvNtNtCs9E08dBcDM90_15zerocopy_derive6derive14try_from_bytes28derive_try_from_bytes_struct0B7_, symObjAddr: 0x55D0, symBinAddr: 0x61A0, symSize: 0x1050 }
  - { offset: 0xAF3B, size: 0x8, addend: 0x0, symName: __RNCNCNvNtNtCs9E08dBcDM90_15zerocopy_derive6derive14try_from_bytes29derive_has_field_struct_unions0_00B9_, symObjAddr: 0x2A60, symBinAddr: 0x3630, symSize: 0x30 }
  - { offset: 0xAF7D, size: 0x8, addend: 0x0, symName: __RNCNvNtNtCs9E08dBcDM90_15zerocopy_derive6derive14try_from_bytes29derive_has_field_struct_union0B7_, symObjAddr: 0x6620, symBinAddr: 0x71F0, symSize: 0x2A0 }
  - { offset: 0xB04B, size: 0x8, addend: 0x0, symName: __RNCNvNtNtCs9E08dBcDM90_15zerocopy_derive6derive14try_from_bytes29derive_has_field_struct_unions0_0B7_, symObjAddr: 0x68C0, symBinAddr: 0x7490, symSize: 0x1CA0 }
  - { offset: 0xB3E1, size: 0x8, addend: 0x0, symName: __RNCNvNtNtCs9E08dBcDM90_15zerocopy_derive6derive14try_from_bytes29derive_has_field_struct_unions_0B7_, symObjAddr: 0x8560, symBinAddr: 0x9130, symSize: 0x20 }
  - { offset: 0xB46E, size: 0x8, addend: 0x0, symName: __RNCNvNtNtCs9E08dBcDM90_15zerocopy_derive6derive14try_from_bytes19generate_tag_consts0B7_, symObjAddr: 0x38E0, symBinAddr: 0x44B0, symSize: 0x180 }
  - { offset: 0xB4F2, size: 0x8, addend: 0x0, symName: __RNCNvNtNtCs9E08dBcDM90_15zerocopy_derive6derive14try_from_bytes23generate_variants_union0B7_, symObjAddr: 0x3A60, symBinAddr: 0x4630, symSize: 0x290 }
  - { offset: 0xB5BD, size: 0x8, addend: 0x0, symName: __RNCNvNtNtCs9E08dBcDM90_15zerocopy_derive6derive14try_from_bytes26derive_try_from_bytes_enum0B7_, symObjAddr: 0x4460, symBinAddr: 0x5030, symSize: 0xF0 }
  - { offset: 0xB5FD, size: 0x8, addend: 0x0, symName: __RNvNtNtCs9E08dBcDM90_15zerocopy_derive6derive14try_from_bytes19derive_is_bit_valid, symObjAddr: 0x8580, symBinAddr: 0x9150, symSize: 0x2C10 }
  - { offset: 0xBB76, size: 0x8, addend: 0x0, symName: __RNvNtNtCs9E08dBcDM90_15zerocopy_derive6derive14try_from_bytes19generate_tag_consts, symObjAddr: 0xB190, symBinAddr: 0xBD60, symSize: 0x240 }
  - { offset: 0xBC59, size: 0x8, addend: 0x0, symName: __RNvNtNtCs9E08dBcDM90_15zerocopy_derive6derive14try_from_bytes20variant_struct_ident, symObjAddr: 0xB3D0, symBinAddr: 0xBFA0, symSize: 0x1A0 }
  - { offset: 0xBCC1, size: 0x8, addend: 0x0, symName: __RNvNtNtCs9E08dBcDM90_15zerocopy_derive6derive14try_from_bytes21derive_try_from_bytes, symObjAddr: 0xB570, symBinAddr: 0xC140, symSize: 0xF0 }
  - { offset: 0xBD51, size: 0x8, addend: 0x0, symName: __RNvNtNtCs9E08dBcDM90_15zerocopy_derive6derive14try_from_bytes23generate_variants_union, symObjAddr: 0xB660, symBinAddr: 0xC230, symSize: 0x6A0 }
  - { offset: 0xBEFA, size: 0x8, addend: 0x0, symName: __RNvNtNtCs9E08dBcDM90_15zerocopy_derive6derive14try_from_bytes24generate_variant_structs, symObjAddr: 0xBD00, symBinAddr: 0xC8D0, symSize: 0x510 }
  - { offset: 0xC079, size: 0x8, addend: 0x0, symName: __RNvNtNtCs9E08dBcDM90_15zerocopy_derive6derive14try_from_bytes26derive_try_from_bytes_enum, symObjAddr: 0xC210, symBinAddr: 0xCDE0, symSize: 0x6D0 }
  - { offset: 0xC1B4, size: 0x8, addend: 0x0, symName: __RNvNtNtCs9E08dBcDM90_15zerocopy_derive6derive14try_from_bytes26variants_union_field_ident, symObjAddr: 0xC8E0, symBinAddr: 0xD4B0, symSize: 0x1A0 }
  - { offset: 0xC21C, size: 0x8, addend: 0x0, symName: __RNvNtNtCs9E08dBcDM90_15zerocopy_derive6derive14try_from_bytes27derive_try_from_bytes_union, symObjAddr: 0xCA80, symBinAddr: 0xD650, symSize: 0x660 }
  - { offset: 0xC337, size: 0x8, addend: 0x0, symName: __RNvNtNtCs9E08dBcDM90_15zerocopy_derive6derive14try_from_bytes28derive_try_from_bytes_struct, symObjAddr: 0xD0E0, symBinAddr: 0xDCB0, symSize: 0x240 }
  - { offset: 0xC39C, size: 0x8, addend: 0x0, symName: __RNvNtNtCs9E08dBcDM90_15zerocopy_derive6derive14try_from_bytes28try_gen_trivial_is_bit_valid, symObjAddr: 0xD320, symBinAddr: 0xDEF0, symSize: 0x9E0 }
  - { offset: 0xC492, size: 0x8, addend: 0x0, symName: __RNvNtNtCs9E08dBcDM90_15zerocopy_derive6derive14try_from_bytes29derive_has_field_struct_union, symObjAddr: 0xDD00, symBinAddr: 0xE8D0, symSize: 0xBD0 }
  - { offset: 0xC626, size: 0x8, addend: 0x0, symName: __RNvNtNtCs9E08dBcDM90_15zerocopy_derive6derive14try_from_bytes34gen_trivial_is_bit_valid_unchecked, symObjAddr: 0xE8D0, symBinAddr: 0xF4A0, symSize: 0x560 }
  - { offset: 0xC6F4, size: 0x8, addend: 0x0, symName: __RNvNtNtCs9E08dBcDM90_15zerocopy_derive6derive14try_from_bytes9tag_ident, symObjAddr: 0xEE30, symBinAddr: 0xFA00, symSize: 0x1A0 }
  - { offset: 0xCF94, size: 0x8, addend: 0x0, symName: __RINvMsi_NtCslJiobkLta79_5alloc3vecINtB6_3VecNtCsaKzlTDPUHDb_11proc_macro25IdentE14extend_trustedINtNtNtNtCsieiGu2EXtoJ_4core4iter8adapters3map3MapINtNtNtB1F_5slice4iter4IterTRNtNtCsdGrGZaRBwMb_3syn11restriction10VisibilityNtBI_11TokenStreamRNtNtB2R_2ty4TypeEENCNvNtNtCs9E08dBcDM90_15zerocopy_derive6derive12known_layout37derive_known_layout_for_repr_c_structs5_0EEB4h_, symObjAddr: 0x0, symBinAddr: 0xFC00, symSize: 0x1B0 }
  - { offset: 0x1515D, size: 0x8, addend: 0x0, symName: __RINvXsd_NtCslJiobkLta79_5alloc3vecINtB6_3VecNtCsaKzlTDPUHDb_11proc_macro25IdentEINtNtNtNtCsieiGu2EXtoJ_4core4iter6traits7collect12FromIteratorBG_E9from_iterINtNtNtB1n_8adapters3map3MapINtNtNtB1p_5slice4iter4IterTRNtNtCsdGrGZaRBwMb_3syn11restriction10VisibilityNtBI_11TokenStreamRNtNtB3t_2ty4TypeEENCNvNtNtCs9E08dBcDM90_15zerocopy_derive6derive12known_layout37derive_known_layout_for_repr_c_structs5_0EEB4T_, symObjAddr: 0x17A0, symBinAddr: 0x113A0, symSize: 0x40 }
  - { offset: 0x1519E, size: 0x8, addend: 0x0, symName: __RINvXsd_NtCslJiobkLta79_5alloc3vecINtB6_3VecNtNtCsdGrGZaRBwMb_3syn8generics12GenericParamEINtNtNtNtCsieiGu2EXtoJ_4core4iter6traits7collect12FromIteratorBG_E9from_iterINtNtNtB1x_8adapters5chain5ChainINtNtB2J_3map3MapINtNtBK_10punctuated8IntoIterBG_ENCNvMs8_NtCs9E08dBcDM90_15zerocopy_derive4utilNtB46_16ImplBlockBuilder5builds1_0EINtNtB6_9into_iter8IntoIterBG_EEEB48_, symObjAddr: 0x17E0, symBinAddr: 0x113E0, symSize: 0x40 }
  - { offset: 0x151DF, size: 0x8, addend: 0x0, symName: __RINvXsd_NtCslJiobkLta79_5alloc3vecINtB6_3VecNtNtCsdGrGZaRBwMb_3syn8generics14WherePredicateEINtNtNtNtCsieiGu2EXtoJ_4core4iter6traits7collect12FromIteratorBG_E9from_iterINtNtNtB1z_8adapters3map3MapINtNtBK_10punctuated4IterNtNtBK_4data5FieldENCNvNtNtCs9E08dBcDM90_15zerocopy_derive6derive10from_bytes22derive_from_zeros_enum0EEB3Y_, symObjAddr: 0x1820, symBinAddr: 0x11420, symSize: 0x40 }
  - { offset: 0x15220, size: 0x8, addend: 0x0, symName: __RINvXsd_NtCslJiobkLta79_5alloc3vecINtB6_3VecNtNtCsdGrGZaRBwMb_3syn8generics14WherePredicateEINtNtNtNtCsieiGu2EXtoJ_4core4iter6traits7collect12FromIteratorBG_E9from_iterINtNtNtB1z_8adapters3map3MapINtNtNtB1B_5slice4iter4IterTRNtNtBK_11restriction10VisibilityNtCsaKzlTDPUHDb_11proc_macro211TokenStreamRNtNtBK_2ty4TypeEENCNvMs8_NtCs9E08dBcDM90_15zerocopy_derive4utilNtB5d_16ImplBlockBuilder5build0EEB5f_, symObjAddr: 0x1860, symBinAddr: 0x11460, symSize: 0x40 }
  - { offset: 0x15261, size: 0x8, addend: 0x0, symName: __RINvXsd_NtCslJiobkLta79_5alloc3vecINtB6_3VecTINtNtCsieiGu2EXtoJ_4core6option6OptionRNtNtCsdGrGZaRBwMb_3syn4data7VariantEIBx_TRNtNtB1o_11restriction10VisibilityNtCsaKzlTDPUHDb_11proc_macro211TokenStreamRNtNtB1o_2ty4TypeEEEEINtNtNtNtBM_4iter6traits7collect12FromIteratorBG_E9from_iterINtNtNtB3F_8adapters3map3MapINtNtB1o_10punctuated4IterB1k_ENCNvXs1_NtCs9E08dBcDM90_15zerocopy_derive4utilNtNtB1o_6derive8DataEnumNtB5B_7DataExt8variants0EEB5D_, symObjAddr: 0x18A0, symBinAddr: 0x114A0, symSize: 0x60 }
  - { offset: 0x152A1, size: 0x8, addend: 0x0, symName: __RINvXsd_NtCslJiobkLta79_5alloc3vecINtB6_3VecTRNtNtCsdGrGZaRBwMb_3syn11restriction10VisibilityNtCsaKzlTDPUHDb_11proc_macro211TokenStreamRNtNtBM_2ty4TypeEEINtNtNtNtCsieiGu2EXtoJ_4core4iter6traits7collect12FromIteratorBG_E9from_iterINtNtNtB2y_8adapters3map3MapINtNtB3K_9enumerate9EnumerateINtNtB3K_7flatten7FlatMapINtNtBM_10punctuated4IterNtNtBM_4data7VariantERNtB5q_6FieldsNCNvXs1_NtCs9E08dBcDM90_15zerocopy_derive4utilNtNtBM_6derive8DataEnumNtB65_7DataExt6fields0EENCINvB65_10map_fieldsB4A_E0EEB67_, symObjAddr: 0x1900, symBinAddr: 0x11500, symSize: 0x40 }
  - { offset: 0x152E2, size: 0x8, addend: 0x0, symName: __RINvXsd_NtCslJiobkLta79_5alloc3vecINtB6_3VecTRNtNtCsdGrGZaRBwMb_3syn11restriction10VisibilityNtCsaKzlTDPUHDb_11proc_macro211TokenStreamRNtNtBM_2ty4TypeEEINtNtNtNtCsieiGu2EXtoJ_4core4iter6traits7collect12FromIteratorBG_E9from_iterINtNtNtB2y_8adapters3map3MapINtNtB3K_9enumerate9EnumerateINtNtBM_10punctuated4IterNtNtBM_4data5FieldEENCINvNtCs9E08dBcDM90_15zerocopy_derive4util10map_fieldsRINtB4D_10PunctuatedB4Z_NtNtBM_5token5CommaEE0EEB5q_, symObjAddr: 0x1940, symBinAddr: 0x11540, symSize: 0x40 }
  - { offset: 0x15323, size: 0x8, addend: 0x0, symName: __RINvXsd_NtCslJiobkLta79_5alloc3vecINtB6_3VecTRNtNtCsdGrGZaRBwMb_3syn11restriction10VisibilityNtCsaKzlTDPUHDb_11proc_macro211TokenStreamRNtNtBM_2ty4TypeEEINtNtNtNtCsieiGu2EXtoJ_4core4iter6traits7collect12FromIteratorBG_E9from_iterINtNtNtB2y_8adapters3map3MapINtNtB3K_9enumerate9EnumerateINtNtBM_10punctuated4IterNtNtBM_4data5FieldEENCINvNtCs9E08dBcDM90_15zerocopy_derive4util10map_fieldsRNtB51_6FieldsE0EEB5q_, symObjAddr: 0x1980, symBinAddr: 0x11580, symSize: 0x40 }
  - { offset: 0x15364, size: 0x8, addend: 0x0, symName: __RINvXsd_NtCslJiobkLta79_5alloc3vecINtB6_3VecTljEEINtNtNtNtCsieiGu2EXtoJ_4core4iter6traits7collect12FromIteratorBG_E9from_iterINtNtNtBS_8adapters3map3MapINtNtB24_9enumerate9EnumerateIB20_INtNtNtBU_5slice4iter4IterNtNtCsdGrGZaRBwMb_3syn8generics12GenericParamENCNvMs8_NtCs9E08dBcDM90_15zerocopy_derive4utilNtB4g_16ImplBlockBuilder5builds2_0EENCINvMNtB8_5sliceSB3o_18sort_by_cached_keylB48_Es_0EEB4i_, symObjAddr: 0x19C0, symBinAddr: 0x115C0, symSize: 0x40 }
  - { offset: 0x153A5, size: 0x8, addend: 0x0, symName: __RINvXsd_NtCslJiobkLta79_5alloc3vecINtB6_3VecTlmEEINtNtNtNtCsieiGu2EXtoJ_4core4iter6traits7collect12FromIteratorBG_E9from_iterINtNtNtBS_8adapters3map3MapINtNtB24_9enumerate9EnumerateIB20_INtNtNtBU_5slice4iter4IterNtNtCsdGrGZaRBwMb_3syn8generics12GenericParamENCNvMs8_NtCs9E08dBcDM90_15zerocopy_derive4utilNtB4g_16ImplBlockBuilder5builds2_0EENCINvMNtB8_5sliceSB3o_18sort_by_cached_keylB48_E0EEB4i_, symObjAddr: 0x1A00, symBinAddr: 0x11600, symSize: 0x40 }
  - { offset: 0x153EC, size: 0x8, addend: 0x0, symName: __RINvXsh_NtCslJiobkLta79_5alloc3vecINtB6_3VecNtCsaKzlTDPUHDb_11proc_macro29TokenTreeEINtNtNtNtCsieiGu2EXtoJ_4core4iter6traits7collect6ExtendBG_E6extendINtNtNtB1r_8adapters7flatten7FlattenINtNtB2t_3map3MapIB2Z_INtNtNtB1t_5array4iter8IntoIterNtBI_11TokenStreamKj2_ENCINvXsb_BI_B3P_INtB1n_12FromIteratorB3P_E9from_iterB3k_E0ENCINvXs6_NtBI_3impNtB5i_11TokenStreamIB4t_B5r_E9from_iterB3f_Es_0EEECs9E08dBcDM90_15zerocopy_derive, symObjAddr: 0x1A40, symBinAddr: 0x11640, symSize: 0x50 }
  - { offset: 0x15441, size: 0x8, addend: 0x0, symName: __RINvXsh_NtCslJiobkLta79_5alloc3vecINtB6_3VecNtNtCsdGrGZaRBwMb_3syn8generics12GenericParamEINtNtNtNtCsieiGu2EXtoJ_4core4iter6traits7collect6ExtendBG_E6extendBw_ECs9E08dBcDM90_15zerocopy_derive, symObjAddr: 0x1A90, symBinAddr: 0x11690, symSize: 0x40 }
  - { offset: 0x154A1, size: 0x8, addend: 0x0, symName: __RNCINvMsi_NtCslJiobkLta79_5alloc3vecINtB8_3VecNtCsaKzlTDPUHDb_11proc_macro25IdentE14extend_trustedINtNtNtNtCsieiGu2EXtoJ_4core4iter8adapters3map3MapINtNtNtB1H_5slice4iter4IterTRNtNtCsdGrGZaRBwMb_3syn11restriction10VisibilityNtBK_11TokenStreamRNtNtB2T_2ty4TypeEENCNvNtNtCs9E08dBcDM90_15zerocopy_derive6derive12known_layout37derive_known_layout_for_repr_c_structs5_0EE0B4j_, symObjAddr: 0x1AD0, symBinAddr: 0x116D0, symSize: 0x40 }
  - { offset: 0x15549, size: 0x8, addend: 0x0, symName: __RNCINvMsi_NtCslJiobkLta79_5alloc3vecINtB8_3VecNtNtCsdGrGZaRBwMb_3syn8generics14WherePredicateE14extend_trustedINtNtNtNtCsieiGu2EXtoJ_4core4iter8adapters3map3MapINtNtNtB1T_5slice4iter4IterTRNtNtBM_11restriction10VisibilityNtCsaKzlTDPUHDb_11proc_macro211TokenStreamRNtNtBM_2ty4TypeEENCNvMs8_NtCs9E08dBcDM90_15zerocopy_derive4utilNtB4D_16ImplBlockBuilder5build0EE0B4F_, symObjAddr: 0x1B10, symBinAddr: 0x11710, symSize: 0x50 }
  - { offset: 0x155F2, size: 0x8, addend: 0x0, symName: __RNCINvMsi_NtCslJiobkLta79_5alloc3vecINtB8_3VecTljEE14extend_trustedINtNtNtNtCsieiGu2EXtoJ_4core4iter8adapters3map3MapINtNtB18_9enumerate9EnumerateIB14_INtNtNtB1c_5slice4iter4IterNtNtCsdGrGZaRBwMb_3syn8generics12GenericParamENCNvMs8_NtCs9E08dBcDM90_15zerocopy_derive4utilNtB3I_16ImplBlockBuilder5builds2_0EENCINvMNtBa_5sliceSB2Q_18sort_by_cached_keylB3A_Es_0EE0B3K_, symObjAddr: 0x1B60, symBinAddr: 0x11760, symSize: 0x40 }
  - { offset: 0x156AF, size: 0x8, addend: 0x0, symName: __RNCINvMsi_NtCslJiobkLta79_5alloc3vecINtB8_3VecTlmEE14extend_trustedINtNtNtNtCsieiGu2EXtoJ_4core4iter8adapters3map3MapINtNtB18_9enumerate9EnumerateIB14_INtNtNtB1c_5slice4iter4IterNtNtCsdGrGZaRBwMb_3syn8generics12GenericParamENCNvMs8_NtCs9E08dBcDM90_15zerocopy_derive4utilNtB3I_16ImplBlockBuilder5builds2_0EENCINvMNtBa_5sliceSB2Q_18sort_by_cached_keylB3A_E0EE0B3K_, symObjAddr: 0x1BA0, symBinAddr: 0x117A0, symSize: 0x30 }
  - { offset: 0x15ABE, size: 0x8, addend: 0x0, symName: __RNvNvMs_NtCslJiobkLta79_5alloc3vecINtB6_3VecppE17from_raw_parts_in18precondition_checkCs9E08dBcDM90_15zerocopy_derive, symObjAddr: 0x2C50, symBinAddr: 0x12850, symSize: 0xA0 }
  - { offset: 0x15B2C, size: 0x8, addend: 0x0, symName: __RNvNvMs_NtCslJiobkLta79_5alloc3vecINtB6_3VecppE7set_len18precondition_checkCs9E08dBcDM90_15zerocopy_derive, symObjAddr: 0x2CF0, symBinAddr: 0x128F0, symSize: 0xA0 }
  - { offset: 0x15BA0, size: 0x8, addend: 0x0, symName: __RNvXNtNtCslJiobkLta79_5alloc3vec11spec_extendINtB4_3VecNtCsaKzlTDPUHDb_11proc_macro29TokenTreeEINtB2_10SpecExtendBR_INtNtNtNtCsieiGu2EXtoJ_4core4iter8adapters7flatten7FlattenINtNtB1V_3map3MapIB2N_INtNtNtB1Z_5array4iter8IntoIterNtBT_11TokenStreamKj2_ENCINvXsb_BT_B3D_INtNtNtB1X_6traits7collect12FromIteratorB3D_E9from_iterB38_E0ENCINvXs6_NtBT_3impNtB5p_11TokenStreamIB4h_B5y_E9from_iterB33_Es_0EEE11spec_extendCs9E08dBcDM90_15zerocopy_derive, symObjAddr: 0x2D90, symBinAddr: 0x12990, symSize: 0x20 }
  - { offset: 0x15BF2, size: 0x8, addend: 0x0, symName: __RNvXNtNtCslJiobkLta79_5alloc3vec11spec_extendINtB4_3VecNtNtCsdGrGZaRBwMb_3syn8generics12GenericParamEINtB2_10SpecExtendBR_INtNtNtNtCsieiGu2EXtoJ_4core4iter8adapters5chain5ChainINtNtB21_3map3MapINtNtBV_10punctuated8IntoIterBR_ENCNvMs8_NtCs9E08dBcDM90_15zerocopy_derive4utilNtB3K_16ImplBlockBuilder5builds1_0EINtNtB4_9into_iter8IntoIterBR_EEE11spec_extendB3M_, symObjAddr: 0x2DB0, symBinAddr: 0x129B0, symSize: 0x20 }
  - { offset: 0x15C44, size: 0x8, addend: 0x0, symName: __RNvXNtNtCslJiobkLta79_5alloc3vec11spec_extendINtB4_3VecNtNtCsdGrGZaRBwMb_3syn8generics14WherePredicateEINtB2_10SpecExtendBR_INtNtNtNtCsieiGu2EXtoJ_4core4iter8adapters3map3MapINtNtBV_10punctuated4IterNtNtBV_4data5FieldENCNvNtNtCs9E08dBcDM90_15zerocopy_derive6derive10from_bytes22derive_from_zeros_enum0EE11spec_extendB3C_, symObjAddr: 0x2DD0, symBinAddr: 0x129D0, symSize: 0x20 }
  - { offset: 0x15C96, size: 0x8, addend: 0x0, symName: __RNvXNtNtCslJiobkLta79_5alloc3vec11spec_extendINtB4_3VecTINtNtCsieiGu2EXtoJ_4core6option6OptionRNtNtCsdGrGZaRBwMb_3syn4data7VariantEIBI_TRNtNtB1z_11restriction10VisibilityNtCsaKzlTDPUHDb_11proc_macro211TokenStreamRNtNtB1z_2ty4TypeEEEEINtB2_10SpecExtendBR_INtNtNtNtBX_4iter8adapters3map3MapINtNtB1z_10punctuated4IterB1v_ENCNvXs1_NtCs9E08dBcDM90_15zerocopy_derive4utilNtNtB1z_6derive8DataEnumNtB5f_7DataExt8variants0EE11spec_extendB5h_, symObjAddr: 0x2DF0, symBinAddr: 0x129F0, symSize: 0x20 }
  - { offset: 0x15CE7, size: 0x8, addend: 0x0, symName: __RNvXNtNtCslJiobkLta79_5alloc3vec11spec_extendINtB4_3VecTRNtNtCsdGrGZaRBwMb_3syn11restriction10VisibilityNtCsaKzlTDPUHDb_11proc_macro211TokenStreamRNtNtBX_2ty4TypeEEINtB2_10SpecExtendBR_INtNtNtNtCsieiGu2EXtoJ_4core4iter8adapters3map3MapINtNtB32_9enumerate9EnumerateINtNtB32_7flatten7FlatMapINtNtBX_10punctuated4IterNtNtBX_4data7VariantERNtB54_6FieldsNCNvXs1_NtCs9E08dBcDM90_15zerocopy_derive4utilNtNtBX_6derive8DataEnumNtB5J_7DataExt6fields0EENCINvB5J_10map_fieldsB4e_E0EE11spec_extendB5L_, symObjAddr: 0x2E10, symBinAddr: 0x12A10, symSize: 0x20 }
  - { offset: 0x15D39, size: 0x8, addend: 0x0, symName: __RNvXNtNtCslJiobkLta79_5alloc3vec11spec_extendINtB4_3VecTRNtNtCsdGrGZaRBwMb_3syn11restriction10VisibilityNtCsaKzlTDPUHDb_11proc_macro211TokenStreamRNtNtBX_2ty4TypeEEINtB2_10SpecExtendBR_INtNtNtNtCsieiGu2EXtoJ_4core4iter8adapters3map3MapINtNtB32_9enumerate9EnumerateINtNtBX_10punctuated4IterNtNtBX_4data5FieldEENCINvNtCs9E08dBcDM90_15zerocopy_derive4util10map_fieldsRINtB4h_10PunctuatedB4D_NtNtBX_5token5CommaEE0EE11spec_extendB54_, symObjAddr: 0x2E30, symBinAddr: 0x12A30, symSize: 0x20 }
  - { offset: 0x15D8B, size: 0x8, addend: 0x0, symName: __RNvXNtNtCslJiobkLta79_5alloc3vec11spec_extendINtB4_3VecTRNtNtCsdGrGZaRBwMb_3syn11restriction10VisibilityNtCsaKzlTDPUHDb_11proc_macro211TokenStreamRNtNtBX_2ty4TypeEEINtB2_10SpecExtendBR_INtNtNtNtCsieiGu2EXtoJ_4core4iter8adapters3map3MapINtNtB32_9enumerate9EnumerateINtNtBX_10punctuated4IterNtNtBX_4data5FieldEENCINvNtCs9E08dBcDM90_15zerocopy_derive4util10map_fieldsRNtB4F_6FieldsE0EE11spec_extendB54_, symObjAddr: 0x2E50, symBinAddr: 0x12A50, symSize: 0x20 }
  - { offset: 0x15DE3, size: 0x8, addend: 0x0, symName: __RNvXs0_NtNtCslJiobkLta79_5alloc3vec11spec_extendINtB7_3VecNtNtCsdGrGZaRBwMb_3syn8generics12GenericParamEINtB5_10SpecExtendBU_INtNtB7_9into_iter8IntoIterBU_EE11spec_extendCs9E08dBcDM90_15zerocopy_derive, symObjAddr: 0x4480, symBinAddr: 0x14080, symSize: 0x90 }
  - { offset: 0x15E4F, size: 0x8, addend: 0x0, symName: __RNvXs_NtNtCslJiobkLta79_5alloc3vec11spec_extendINtB6_3VecNtCsaKzlTDPUHDb_11proc_macro25IdentEINtB4_10SpecExtendBT_INtNtNtNtCsieiGu2EXtoJ_4core4iter8adapters3map3MapINtNtNtB1X_5slice4iter4IterTRNtNtCsdGrGZaRBwMb_3syn11restriction10VisibilityNtBV_11TokenStreamRNtNtB39_2ty4TypeEENCNvNtNtCs9E08dBcDM90_15zerocopy_derive6derive12known_layout37derive_known_layout_for_repr_c_structs5_0EE11spec_extendB4z_, symObjAddr: 0x4620, symBinAddr: 0x14220, symSize: 0x20 }
  - { offset: 0x15EA1, size: 0x8, addend: 0x0, symName: __RNvXs_NtNtCslJiobkLta79_5alloc3vec11spec_extendINtB6_3VecNtNtCsdGrGZaRBwMb_3syn8generics14WherePredicateEINtB4_10SpecExtendBT_INtNtNtNtCsieiGu2EXtoJ_4core4iter8adapters3map3MapINtNtNtB29_5slice4iter4IterTRNtNtBX_11restriction10VisibilityNtCsaKzlTDPUHDb_11proc_macro211TokenStreamRNtNtBX_2ty4TypeEENCNvMs8_NtCs9E08dBcDM90_15zerocopy_derive4utilNtB4T_16ImplBlockBuilder5build0EE11spec_extendB4V_, symObjAddr: 0x4640, symBinAddr: 0x14240, symSize: 0x20 }
  - { offset: 0x15EF3, size: 0x8, addend: 0x0, symName: __RNvXs_NtNtCslJiobkLta79_5alloc3vec11spec_extendINtB6_3VecTljEEINtB4_10SpecExtendBT_INtNtNtNtCsieiGu2EXtoJ_4core4iter8adapters3map3MapINtNtB1o_9enumerate9EnumerateIB1k_INtNtNtB1s_5slice4iter4IterNtNtCsdGrGZaRBwMb_3syn8generics12GenericParamENCNvMs8_NtCs9E08dBcDM90_15zerocopy_derive4utilNtB3Y_16ImplBlockBuilder5builds2_0EENCINvMNtB8_5sliceSB36_18sort_by_cached_keylB3Q_Es_0EE11spec_extendB40_, symObjAddr: 0x4660, symBinAddr: 0x14260, symSize: 0x20 }
  - { offset: 0x15F45, size: 0x8, addend: 0x0, symName: __RNvXs_NtNtCslJiobkLta79_5alloc3vec11spec_extendINtB6_3VecTlmEEINtB4_10SpecExtendBT_INtNtNtNtCsieiGu2EXtoJ_4core4iter8adapters3map3MapINtNtB1o_9enumerate9EnumerateIB1k_INtNtNtB1s_5slice4iter4IterNtNtCsdGrGZaRBwMb_3syn8generics12GenericParamENCNvMs8_NtCs9E08dBcDM90_15zerocopy_derive4utilNtB3Y_16ImplBlockBuilder5builds2_0EENCINvMNtB8_5sliceSB36_18sort_by_cached_keylB3Q_E0EE11spec_extendB40_, symObjAddr: 0x4680, symBinAddr: 0x14280, symSize: 0x20 }
  - { offset: 0x15FA3, size: 0x8, addend: 0x0, symName: __RNvXNtNtCslJiobkLta79_5alloc3vec14spec_from_iterINtB4_3VecNtCsaKzlTDPUHDb_11proc_macro25IdentEINtB2_12SpecFromIterBU_INtNtNtNtCsieiGu2EXtoJ_4core4iter8adapters3map3MapINtNtNtB20_5slice4iter4IterTRNtNtCsdGrGZaRBwMb_3syn11restriction10VisibilityNtBW_11TokenStreamRNtNtB3c_2ty4TypeEENCNvNtNtCs9E08dBcDM90_15zerocopy_derive6derive12known_layout37derive_known_layout_for_repr_c_structs5_0EE9from_iterB4C_, symObjAddr: 0x2E70, symBinAddr: 0x12A70, symSize: 0x20 }
  - { offset: 0x15FE2, size: 0x8, addend: 0x0, symName: __RNvXNtNtCslJiobkLta79_5alloc3vec14spec_from_iterINtB4_3VecNtNtCsdGrGZaRBwMb_3syn8generics12GenericParamEINtB2_12SpecFromIterBU_INtNtNtNtCsieiGu2EXtoJ_4core4iter8adapters5chain5ChainINtNtB26_3map3MapINtNtBY_10punctuated8IntoIterBU_ENCNvMs8_NtCs9E08dBcDM90_15zerocopy_derive4utilNtB3P_16ImplBlockBuilder5builds1_0EINtNtB4_9into_iter8IntoIterBU_EEE9from_iterB3R_, symObjAddr: 0x2E90, symBinAddr: 0x12A90, symSize: 0x20 }
  - { offset: 0x16021, size: 0x8, addend: 0x0, symName: __RNvXNtNtCslJiobkLta79_5alloc3vec14spec_from_iterINtB4_3VecNtNtCsdGrGZaRBwMb_3syn8generics14WherePredicateEINtB2_12SpecFromIterBU_INtNtNtNtCsieiGu2EXtoJ_4core4iter8adapters3map3MapINtNtBY_10punctuated4IterNtNtBY_4data5FieldENCNvNtNtCs9E08dBcDM90_15zerocopy_derive6derive10from_bytes22derive_from_zeros_enum0EE9from_iterB3H_, symObjAddr: 0x2EB0, symBinAddr: 0x12AB0, symSize: 0x20 }
  - { offset: 0x16060, size: 0x8, addend: 0x0, symName: __RNvXNtNtCslJiobkLta79_5alloc3vec14spec_from_iterINtB4_3VecNtNtCsdGrGZaRBwMb_3syn8generics14WherePredicateEINtB2_12SpecFromIterBU_INtNtNtNtCsieiGu2EXtoJ_4core4iter8adapters3map3MapINtNtNtB2c_5slice4iter4IterTRNtNtBY_11restriction10VisibilityNtCsaKzlTDPUHDb_11proc_macro211TokenStreamRNtNtBY_2ty4TypeEENCNvMs8_NtCs9E08dBcDM90_15zerocopy_derive4utilNtB4W_16ImplBlockBuilder5build0EE9from_iterB4Y_, symObjAddr: 0x2ED0, symBinAddr: 0x12AD0, symSize: 0x20 }
  - { offset: 0x1609F, size: 0x8, addend: 0x0, symName: __RNvXNtNtCslJiobkLta79_5alloc3vec14spec_from_iterINtB4_3VecTINtNtCsieiGu2EXtoJ_4core6option6OptionRNtNtCsdGrGZaRBwMb_3syn4data7VariantEIBL_TRNtNtB1C_11restriction10VisibilityNtCsaKzlTDPUHDb_11proc_macro211TokenStreamRNtNtB1C_2ty4TypeEEEEINtB2_12SpecFromIterBU_INtNtNtNtB10_4iter8adapters3map3MapINtNtB1C_10punctuated4IterB1y_ENCNvXs1_NtCs9E08dBcDM90_15zerocopy_derive4utilNtNtB1C_6derive8DataEnumNtB5l_7DataExt8variants0EE9from_iterB5n_, symObjAddr: 0x2EF0, symBinAddr: 0x12AF0, symSize: 0x30 }
  - { offset: 0x160DD, size: 0x8, addend: 0x0, symName: __RNvXNtNtCslJiobkLta79_5alloc3vec14spec_from_iterINtB4_3VecTRNtNtCsdGrGZaRBwMb_3syn11restriction10VisibilityNtCsaKzlTDPUHDb_11proc_macro211TokenStreamRNtNtB10_2ty4TypeEEINtB2_12SpecFromIterBU_INtNtNtNtCsieiGu2EXtoJ_4core4iter8adapters3map3MapINtNtB38_9enumerate9EnumerateINtNtB10_10punctuated4IterNtNtB10_4data5FieldEENCINvNtCs9E08dBcDM90_15zerocopy_derive4util10map_fieldsRINtB4n_10PunctuatedB4K_NtNtB10_5token5CommaEE0EE9from_iterB5c_, symObjAddr: 0x2F20, symBinAddr: 0x12B20, symSize: 0x20 }
  - { offset: 0x1611C, size: 0x8, addend: 0x0, symName: __RNvXNtNtCslJiobkLta79_5alloc3vec14spec_from_iterINtB4_3VecTRNtNtCsdGrGZaRBwMb_3syn11restriction10VisibilityNtCsaKzlTDPUHDb_11proc_macro211TokenStreamRNtNtB10_2ty4TypeEEINtB2_12SpecFromIterBU_INtNtNtNtCsieiGu2EXtoJ_4core4iter8adapters3map3MapINtNtB38_9enumerate9EnumerateINtNtB10_10punctuated4IterNtNtB10_4data5FieldEENCINvNtCs9E08dBcDM90_15zerocopy_derive4util10map_fieldsRNtB4M_6FieldsE0EE9from_iterB5c_, symObjAddr: 0x2F40, symBinAddr: 0x12B40, symSize: 0x20 }
  - { offset: 0x1615B, size: 0x8, addend: 0x0, symName: __RNvXNtNtCslJiobkLta79_5alloc3vec14spec_from_iterINtB4_3VecTRNtNtCsdGrGZaRBwMb_3syn11restriction10VisibilityNtCsaKzlTDPUHDb_11proc_macro211TokenStreamRNtNtB10_2ty4TypeEEINtB2_12SpecFromIterBU_INtNtNtNtCsieiGu2EXtoJ_4core4iter8adapters3map3MapINtNtB38_9enumerate9EnumerateINtNtB38_7flatten7FlatMapINtNtB10_10punctuated4IterNtNtB10_4data7VariantERNtB5b_6FieldsNCNvXs1_NtCs9E08dBcDM90_15zerocopy_derive4utilNtNtB10_6derive8DataEnumNtB5R_7DataExt6fields0EENCINvB5R_10map_fieldsB4k_E0EE9from_iterB5T_, symObjAddr: 0x2F60, symBinAddr: 0x12B60, symSize: 0x20 }
  - { offset: 0x1619A, size: 0x8, addend: 0x0, symName: __RNvXNtNtCslJiobkLta79_5alloc3vec14spec_from_iterINtB4_3VecTljEEINtB2_12SpecFromIterBU_INtNtNtNtCsieiGu2EXtoJ_4core4iter8adapters3map3MapINtNtB1r_9enumerate9EnumerateIB1n_INtNtNtB1v_5slice4iter4IterNtNtCsdGrGZaRBwMb_3syn8generics12GenericParamENCNvMs8_NtCs9E08dBcDM90_15zerocopy_derive4utilNtB41_16ImplBlockBuilder5builds2_0EENCINvMNtB6_5sliceSB39_18sort_by_cached_keylB3T_Es_0EE9from_iterB43_, symObjAddr: 0x2F80, symBinAddr: 0x12B80, symSize: 0x20 }
  - { offset: 0x161D9, size: 0x8, addend: 0x0, symName: __RNvXNtNtCslJiobkLta79_5alloc3vec14spec_from_iterINtB4_3VecTlmEEINtB2_12SpecFromIterBU_INtNtNtNtCsieiGu2EXtoJ_4core4iter8adapters3map3MapINtNtB1r_9enumerate9EnumerateIB1n_INtNtNtB1v_5slice4iter4IterNtNtCsdGrGZaRBwMb_3syn8generics12GenericParamENCNvMs8_NtCs9E08dBcDM90_15zerocopy_derive4utilNtB41_16ImplBlockBuilder5builds2_0EENCINvMNtB6_5sliceSB39_18sort_by_cached_keylB3T_E0EE9from_iterB43_, symObjAddr: 0x2FA0, symBinAddr: 0x12BA0, symSize: 0x20 }
  - { offset: 0x16224, size: 0x8, addend: 0x0, symName: __RNvXNtNtCslJiobkLta79_5alloc3vec21spec_from_iter_nestedINtB4_3VecNtNtCsdGrGZaRBwMb_3syn8generics12GenericParamEINtB2_18SpecFromIterNestedB11_INtNtNtNtCsieiGu2EXtoJ_4core4iter8adapters5chain5ChainINtNtB2k_3map3MapINtNtB15_10punctuated8IntoIterB11_ENCNvMs8_NtCs9E08dBcDM90_15zerocopy_derive4utilNtB45_16ImplBlockBuilder5builds1_0EINtNtB4_9into_iter8IntoIterB11_EEE9from_iterB47_, symObjAddr: 0x2FC0, symBinAddr: 0x12BC0, symSize: 0x370 }
  - { offset: 0x164D9, size: 0x8, addend: 0x0, symName: __RNvXNtNtCslJiobkLta79_5alloc3vec21spec_from_iter_nestedINtB4_3VecNtNtCsdGrGZaRBwMb_3syn8generics14WherePredicateEINtB2_18SpecFromIterNestedB11_INtNtNtNtCsieiGu2EXtoJ_4core4iter8adapters3map3MapINtNtB15_10punctuated4IterNtNtB15_4data5FieldENCNvNtNtCs9E08dBcDM90_15zerocopy_derive6derive10from_bytes22derive_from_zeros_enum0EE9from_iterB3X_, symObjAddr: 0x3330, symBinAddr: 0x12F30, symSize: 0x330 }
  - { offset: 0x1678E, size: 0x8, addend: 0x0, symName: __RNvXNtNtCslJiobkLta79_5alloc3vec21spec_from_iter_nestedINtB4_3VecTINtNtCsieiGu2EXtoJ_4core6option6OptionRNtNtCsdGrGZaRBwMb_3syn4data7VariantEIBS_TRNtNtB1J_11restriction10VisibilityNtCsaKzlTDPUHDb_11proc_macro211TokenStreamRNtNtB1J_2ty4TypeEEEEINtB2_18SpecFromIterNestedB11_INtNtNtNtB17_4iter8adapters3map3MapINtNtB1J_10punctuated4IterB1F_ENCNvXs1_NtCs9E08dBcDM90_15zerocopy_derive4utilNtNtB1J_6derive8DataEnumNtB5z_7DataExt8variants0EE9from_iterB5B_, symObjAddr: 0x3660, symBinAddr: 0x13260, symSize: 0x380 }
  - { offset: 0x16A43, size: 0x8, addend: 0x0, symName: __RNvXNtNtCslJiobkLta79_5alloc3vec21spec_from_iter_nestedINtB4_3VecTRNtNtCsdGrGZaRBwMb_3syn11restriction10VisibilityNtCsaKzlTDPUHDb_11proc_macro211TokenStreamRNtNtB17_2ty4TypeEEINtB2_18SpecFromIterNestedB11_INtNtNtNtCsieiGu2EXtoJ_4core4iter8adapters3map3MapINtNtB3m_9enumerate9EnumerateINtNtB17_10punctuated4IterNtNtB17_4data5FieldEENCINvNtCs9E08dBcDM90_15zerocopy_derive4util10map_fieldsRINtB4B_10PunctuatedB4Y_NtNtB17_5token5CommaEE0EE9from_iterB5q_, symObjAddr: 0x39E0, symBinAddr: 0x135E0, symSize: 0x380 }
  - { offset: 0x16CF8, size: 0x8, addend: 0x0, symName: __RNvXNtNtCslJiobkLta79_5alloc3vec21spec_from_iter_nestedINtB4_3VecTRNtNtCsdGrGZaRBwMb_3syn11restriction10VisibilityNtCsaKzlTDPUHDb_11proc_macro211TokenStreamRNtNtB17_2ty4TypeEEINtB2_18SpecFromIterNestedB11_INtNtNtNtCsieiGu2EXtoJ_4core4iter8adapters3map3MapINtNtB3m_9enumerate9EnumerateINtNtB17_10punctuated4IterNtNtB17_4data5FieldEENCINvNtCs9E08dBcDM90_15zerocopy_derive4util10map_fieldsRNtB50_6FieldsE0EE9from_iterB5q_, symObjAddr: 0x3D60, symBinAddr: 0x13960, symSize: 0x380 }
  - { offset: 0x16FAD, size: 0x8, addend: 0x0, symName: __RNvXNtNtCslJiobkLta79_5alloc3vec21spec_from_iter_nestedINtB4_3VecTRNtNtCsdGrGZaRBwMb_3syn11restriction10VisibilityNtCsaKzlTDPUHDb_11proc_macro211TokenStreamRNtNtB17_2ty4TypeEEINtB2_18SpecFromIterNestedB11_INtNtNtNtCsieiGu2EXtoJ_4core4iter8adapters3map3MapINtNtB3m_9enumerate9EnumerateINtNtB3m_7flatten7FlatMapINtNtB17_10punctuated4IterNtNtB17_4data7VariantERNtB5p_6FieldsNCNvXs1_NtCs9E08dBcDM90_15zerocopy_derive4utilNtNtB17_6derive8DataEnumNtB65_7DataExt6fields0EENCINvB65_10map_fieldsB4y_E0EE9from_iterB67_, symObjAddr: 0x40E0, symBinAddr: 0x13CE0, symSize: 0x3A0 }
  - { offset: 0x17268, size: 0x8, addend: 0x0, symName: __RNvXs_NtNtCslJiobkLta79_5alloc3vec21spec_from_iter_nestedINtB6_3VecNtCsaKzlTDPUHDb_11proc_macro25IdentEINtB4_18SpecFromIterNestedB13_INtNtNtNtCsieiGu2EXtoJ_4core4iter8adapters3map3MapINtNtNtB2g_5slice4iter4IterTRNtNtCsdGrGZaRBwMb_3syn11restriction10VisibilityNtB15_11TokenStreamRNtNtB3s_2ty4TypeEENCNvNtNtCs9E08dBcDM90_15zerocopy_derive6derive12known_layout37derive_known_layout_for_repr_c_structs5_0EE9from_iterB4T_, symObjAddr: 0x46A0, symBinAddr: 0x142A0, symSize: 0x1C0 }
  - { offset: 0x17340, size: 0x8, addend: 0x0, symName: __RNvXs_NtNtCslJiobkLta79_5alloc3vec21spec_from_iter_nestedINtB6_3VecNtNtCsdGrGZaRBwMb_3syn8generics14WherePredicateEINtB4_18SpecFromIterNestedB13_INtNtNtNtCsieiGu2EXtoJ_4core4iter8adapters3map3MapINtNtNtB2s_5slice4iter4IterTRNtNtB17_11restriction10VisibilityNtCsaKzlTDPUHDb_11proc_macro211TokenStreamRNtNtB17_2ty4TypeEENCNvMs8_NtCs9E08dBcDM90_15zerocopy_derive4utilNtB5e_16ImplBlockBuilder5build0EE9from_iterB5g_, symObjAddr: 0x4860, symBinAddr: 0x14460, symSize: 0x1E0 }
  - { offset: 0x17418, size: 0x8, addend: 0x0, symName: __RNvXs_NtNtCslJiobkLta79_5alloc3vec21spec_from_iter_nestedINtB6_3VecTljEEINtB4_18SpecFromIterNestedB13_INtNtNtNtCsieiGu2EXtoJ_4core4iter8adapters3map3MapINtNtB1H_9enumerate9EnumerateIB1D_INtNtNtB1L_5slice4iter4IterNtNtCsdGrGZaRBwMb_3syn8generics12GenericParamENCNvMs8_NtCs9E08dBcDM90_15zerocopy_derive4utilNtB4h_16ImplBlockBuilder5builds2_0EENCINvMNtB8_5sliceSB3p_18sort_by_cached_keylB49_Es_0EE9from_iterB4j_, symObjAddr: 0x4A40, symBinAddr: 0x14640, symSize: 0x1C0 }
  - { offset: 0x174F0, size: 0x8, addend: 0x0, symName: __RNvXs_NtNtCslJiobkLta79_5alloc3vec21spec_from_iter_nestedINtB6_3VecTlmEEINtB4_18SpecFromIterNestedB13_INtNtNtNtCsieiGu2EXtoJ_4core4iter8adapters3map3MapINtNtB1H_9enumerate9EnumerateIB1D_INtNtNtB1L_5slice4iter4IterNtNtCsdGrGZaRBwMb_3syn8generics12GenericParamENCNvMs8_NtCs9E08dBcDM90_15zerocopy_derive4utilNtB4h_16ImplBlockBuilder5builds2_0EENCINvMNtB8_5sliceSB3p_18sort_by_cached_keylB49_E0EE9from_iterB4j_, symObjAddr: 0x4C00, symBinAddr: 0x14800, symSize: 0x1C0 }
  - { offset: 0x175CF, size: 0x8, addend: 0x0, symName: __RNvXs6_NtCslJiobkLta79_5alloc3vecINtB5_3VecINtNtNtCs9E08dBcDM90_15zerocopy_derive4repr4util7SpannedNtBK_7RawReprEENtNtNtCsieiGu2EXtoJ_4core3ops5deref5Deref5derefBM_, symObjAddr: 0x4540, symBinAddr: 0x14140, symSize: 0x20 }
  - { offset: 0x1760F, size: 0x8, addend: 0x0, symName: __RNvXs6_NtCslJiobkLta79_5alloc3vecINtB5_3VecNtCsaKzlTDPUHDb_11proc_macro25IdentENtNtNtCsieiGu2EXtoJ_4core3ops5deref5Deref5derefCs9E08dBcDM90_15zerocopy_derive, symObjAddr: 0x4560, symBinAddr: 0x14160, symSize: 0x20 }
  - { offset: 0x1764F, size: 0x8, addend: 0x0, symName: __RNvXs6_NtCslJiobkLta79_5alloc3vecINtB5_3VecNtNtCsdGrGZaRBwMb_3syn8generics12GenericParamENtNtNtCsieiGu2EXtoJ_4core3ops5deref5Deref5derefCs9E08dBcDM90_15zerocopy_derive, symObjAddr: 0x4580, symBinAddr: 0x14180, symSize: 0x20 }
  - { offset: 0x1768F, size: 0x8, addend: 0x0, symName: __RNvXs6_NtCslJiobkLta79_5alloc3vecINtB5_3VecNtNtCsdGrGZaRBwMb_3syn8generics14WherePredicateENtNtNtCsieiGu2EXtoJ_4core3ops5deref5Deref5derefCs9E08dBcDM90_15zerocopy_derive, symObjAddr: 0x45A0, symBinAddr: 0x141A0, symSize: 0x20 }
  - { offset: 0x176CF, size: 0x8, addend: 0x0, symName: __RNvXs6_NtCslJiobkLta79_5alloc3vecINtB5_3VecTINtNtCsieiGu2EXtoJ_4core6option6OptionRNtNtCsdGrGZaRBwMb_3syn4data7VariantEIBw_TRNtNtB1n_11restriction10VisibilityNtCsaKzlTDPUHDb_11proc_macro211TokenStreamRNtNtB1n_2ty4TypeEEEENtNtNtBL_3ops5deref5Deref5derefCs9E08dBcDM90_15zerocopy_derive, symObjAddr: 0x45C0, symBinAddr: 0x141C0, symSize: 0x20 }
  - { offset: 0x1770F, size: 0x8, addend: 0x0, symName: __RNvXs6_NtCslJiobkLta79_5alloc3vecINtB5_3VecTRNtNtCsdGrGZaRBwMb_3syn11restriction10VisibilityNtCsaKzlTDPUHDb_11proc_macro211TokenStreamRNtNtBL_2ty4TypeEENtNtNtCsieiGu2EXtoJ_4core3ops5deref5Deref5derefCs9E08dBcDM90_15zerocopy_derive, symObjAddr: 0x45E0, symBinAddr: 0x141E0, symSize: 0x20 }
  - { offset: 0x17785, size: 0x8, addend: 0x0, symName: __RNvXs7_NtCslJiobkLta79_5alloc3vecINtB5_3VecNtNtCsdGrGZaRBwMb_3syn8generics12GenericParamENtNtNtCsieiGu2EXtoJ_4core3ops5deref8DerefMut9deref_mutCs9E08dBcDM90_15zerocopy_derive, symObjAddr: 0x4600, symBinAddr: 0x14200, symSize: 0x20 }
  - { offset: 0x177CB, size: 0x8, addend: 0x0, symName: __RNvXsb_NtCslJiobkLta79_5alloc3vecINtB5_3VecTRNtNtCsdGrGZaRBwMb_3syn11restriction10VisibilityNtCsaKzlTDPUHDb_11proc_macro211TokenStreamRNtNtBL_2ty4TypeEEINtNtNtCsieiGu2EXtoJ_4core3ops5index5IndexNtNtB2v_5range9RangeFullE5indexCs9E08dBcDM90_15zerocopy_derive, symObjAddr: 0x4DC0, symBinAddr: 0x149C0, symSize: 0x70 }
  - { offset: 0x17953, size: 0x8, addend: 0x0, symName: __RNvXse_NtCslJiobkLta79_5alloc3vecINtB5_3VecNtNtCsdGrGZaRBwMb_3syn4attr4MetaENtNtNtNtCsieiGu2EXtoJ_4core4iter6traits7collect12IntoIterator9into_iterCs9E08dBcDM90_15zerocopy_derive, symObjAddr: 0x4E30, symBinAddr: 0x14A30, symSize: 0x140 }
  - { offset: 0x17BE3, size: 0x8, addend: 0x0, symName: __RNvXse_NtCslJiobkLta79_5alloc3vecINtB5_3VecNtNtCsdGrGZaRBwMb_3syn8generics12GenericParamENtNtNtNtCsieiGu2EXtoJ_4core4iter6traits7collect12IntoIterator9into_iterCs9E08dBcDM90_15zerocopy_derive, symObjAddr: 0x4F70, symBinAddr: 0x14B70, symSize: 0x140 }
  - { offset: 0x17E73, size: 0x8, addend: 0x0, symName: __RNvXse_NtCslJiobkLta79_5alloc3vecINtB5_3VecTINtNtCsieiGu2EXtoJ_4core6option6OptionRNtNtCsdGrGZaRBwMb_3syn4data7VariantEIBw_TRNtNtB1n_11restriction10VisibilityNtCsaKzlTDPUHDb_11proc_macro211TokenStreamRNtNtB1n_2ty4TypeEEEENtNtNtNtBL_4iter6traits7collect12IntoIterator9into_iterCs9E08dBcDM90_15zerocopy_derive, symObjAddr: 0x50B0, symBinAddr: 0x14CB0, symSize: 0x140 }
  - { offset: 0x18103, size: 0x8, addend: 0x0, symName: __RNvXse_NtCslJiobkLta79_5alloc3vecINtB5_3VecTNtNtCsdGrGZaRBwMb_3syn4attr4MetaNtNtBK_5token5CommaEENtNtNtNtCsieiGu2EXtoJ_4core4iter6traits7collect12IntoIterator9into_iterCs9E08dBcDM90_15zerocopy_derive, symObjAddr: 0x51F0, symBinAddr: 0x14DF0, symSize: 0x140 }
  - { offset: 0x18393, size: 0x8, addend: 0x0, symName: __RNvXse_NtCslJiobkLta79_5alloc3vecINtB5_3VecTNtNtCsdGrGZaRBwMb_3syn8generics12GenericParamNtNtBK_5token5CommaEENtNtNtNtCsieiGu2EXtoJ_4core4iter6traits7collect12IntoIterator9into_iterCs9E08dBcDM90_15zerocopy_derive, symObjAddr: 0x5330, symBinAddr: 0x14F30, symSize: 0x140 }
  - { offset: 0x18623, size: 0x8, addend: 0x0, symName: __RNvXse_NtCslJiobkLta79_5alloc3vecINtB5_3VecTRNtNtCsdGrGZaRBwMb_3syn11restriction10VisibilityNtCsaKzlTDPUHDb_11proc_macro211TokenStreamRNtNtBL_2ty4TypeEENtNtNtNtCsieiGu2EXtoJ_4core4iter6traits7collect12IntoIterator9into_iterCs9E08dBcDM90_15zerocopy_derive, symObjAddr: 0x5470, symBinAddr: 0x15070, symSize: 0x140 }
  - { offset: 0x188B9, size: 0x8, addend: 0x0, symName: __RNvXsn_NtCslJiobkLta79_5alloc3vecINtB5_3VecINtNtNtCs9E08dBcDM90_15zerocopy_derive4repr4util7SpannedNtBK_7RawReprEENtNtNtCsieiGu2EXtoJ_4core3ops4drop4Drop4dropBM_, symObjAddr: 0x55B0, symBinAddr: 0x151B0, symSize: 0x20 }
  - { offset: 0x18969, size: 0x8, addend: 0x0, symName: __RNvXsn_NtCslJiobkLta79_5alloc3vecINtB5_3VecNtCsaKzlTDPUHDb_11proc_macro25IdentENtNtNtCsieiGu2EXtoJ_4core3ops4drop4Drop4dropCs9E08dBcDM90_15zerocopy_derive, symObjAddr: 0x55D0, symBinAddr: 0x151D0, symSize: 0x30 }
  - { offset: 0x18A19, size: 0x8, addend: 0x0, symName: __RNvXsn_NtCslJiobkLta79_5alloc3vecINtB5_3VecNtNtCsdGrGZaRBwMb_3syn4attr4MetaENtNtNtCsieiGu2EXtoJ_4core3ops4drop4Drop4dropCs9E08dBcDM90_15zerocopy_derive, symObjAddr: 0x5600, symBinAddr: 0x15200, symSize: 0x30 }
  - { offset: 0x18AC9, size: 0x8, addend: 0x0, symName: __RNvXsn_NtCslJiobkLta79_5alloc3vecINtB5_3VecNtNtCsdGrGZaRBwMb_3syn8generics12GenericParamENtNtNtCsieiGu2EXtoJ_4core3ops4drop4Drop4dropCs9E08dBcDM90_15zerocopy_derive, symObjAddr: 0x5630, symBinAddr: 0x15230, symSize: 0x30 }
  - { offset: 0x18B79, size: 0x8, addend: 0x0, symName: __RNvXsn_NtCslJiobkLta79_5alloc3vecINtB5_3VecNtNtCsdGrGZaRBwMb_3syn8generics14WherePredicateENtNtNtCsieiGu2EXtoJ_4core3ops4drop4Drop4dropCs9E08dBcDM90_15zerocopy_derive, symObjAddr: 0x5660, symBinAddr: 0x15260, symSize: 0x30 }
  - { offset: 0x18C29, size: 0x8, addend: 0x0, symName: __RNvXsn_NtCslJiobkLta79_5alloc3vecINtB5_3VecTINtNtCsieiGu2EXtoJ_4core6option6OptionRNtNtCsdGrGZaRBwMb_3syn4data7VariantEIBw_TRNtNtB1n_11restriction10VisibilityNtCsaKzlTDPUHDb_11proc_macro211TokenStreamRNtNtB1n_2ty4TypeEEEENtNtNtBL_3ops4drop4Drop4dropCs9E08dBcDM90_15zerocopy_derive, symObjAddr: 0x5690, symBinAddr: 0x15290, symSize: 0x30 }
  - { offset: 0x18CD9, size: 0x8, addend: 0x0, symName: __RNvXsn_NtCslJiobkLta79_5alloc3vecINtB5_3VecTNtNtCsdGrGZaRBwMb_3syn4attr4MetaNtNtBK_5token5CommaEENtNtNtCsieiGu2EXtoJ_4core3ops4drop4Drop4dropCs9E08dBcDM90_15zerocopy_derive, symObjAddr: 0x56C0, symBinAddr: 0x152C0, symSize: 0x30 }
  - { offset: 0x18D89, size: 0x8, addend: 0x0, symName: __RNvXsn_NtCslJiobkLta79_5alloc3vecINtB5_3VecTRNtNtCsdGrGZaRBwMb_3syn11restriction10VisibilityNtCsaKzlTDPUHDb_11proc_macro211TokenStreamRNtNtBL_2ty4TypeEENtNtNtCsieiGu2EXtoJ_4core3ops4drop4Drop4dropCs9E08dBcDM90_15zerocopy_derive, symObjAddr: 0x56F0, symBinAddr: 0x152F0, symSize: 0x30 }
  - { offset: 0x18E39, size: 0x8, addend: 0x0, symName: __RNvXsn_NtCslJiobkLta79_5alloc3vecINtB5_3VecTljEENtNtNtCsieiGu2EXtoJ_4core3ops4drop4Drop4dropCs9E08dBcDM90_15zerocopy_derive, symObjAddr: 0x5720, symBinAddr: 0x15320, symSize: 0x20 }
  - { offset: 0x18EE9, size: 0x8, addend: 0x0, symName: __RNvXsn_NtCslJiobkLta79_5alloc3vecINtB5_3VecTlmEENtNtNtCsieiGu2EXtoJ_4core3ops4drop4Drop4dropCs9E08dBcDM90_15zerocopy_derive, symObjAddr: 0x5740, symBinAddr: 0x15340, symSize: 0x20 }
  - { offset: 0x1E977, size: 0x8, addend: 0x0, symName: __RINvMsi_NtCslJiobkLta79_5alloc3vecINtB6_3VecNtCsaKzlTDPUHDb_11proc_macro25IdentE14extend_trustedINtNtNtNtCsieiGu2EXtoJ_4core4iter8adapters3map3MapINtNtNtB1F_5slice4iter4IterTRNtNtCsdGrGZaRBwMb_3syn11restriction10VisibilityNtBI_11TokenStreamRNtNtB2R_2ty4TypeEENCNvNtNtCs9E08dBcDM90_15zerocopy_derive6derive12known_layout37derive_known_layout_for_repr_c_structs5_0EEB4h_, symObjAddr: 0x0, symBinAddr: 0xFC00, symSize: 0x1B0 }
  - { offset: 0x1ED13, size: 0x8, addend: 0x0, symName: __RINvMsi_NtCslJiobkLta79_5alloc3vecINtB6_3VecNtCsaKzlTDPUHDb_11proc_macro29TokenTreeE16extend_desugaredINtNtNtNtCsieiGu2EXtoJ_4core4iter8adapters7flatten7FlattenINtNtB1H_3map3MapIB2z_INtNtNtB1L_5array4iter8IntoIterNtBI_11TokenStreamKj2_ENCINvXsb_BI_B3p_INtNtNtB1J_6traits7collect12FromIteratorB3p_E9from_iterB2U_E0ENCINvXs6_NtBI_3impNtB5b_11TokenStreamIB43_B5k_E9from_iterB2P_Es_0EEECs9E08dBcDM90_15zerocopy_derive, symObjAddr: 0x1B0, symBinAddr: 0xFDB0, symSize: 0x290 }
  - { offset: 0x1F168, size: 0x8, addend: 0x0, symName: __RINvMsi_NtCslJiobkLta79_5alloc3vecINtB6_3VecNtNtCsdGrGZaRBwMb_3syn8generics12GenericParamE16extend_desugaredINtNtNtNtCsieiGu2EXtoJ_4core4iter8adapters5chain5ChainINtNtB1N_3map3MapINtNtBK_10punctuated8IntoIterBG_ENCNvMs8_NtCs9E08dBcDM90_15zerocopy_derive4utilNtB3w_16ImplBlockBuilder5builds1_0EINtNtB6_9into_iter8IntoIterBG_EEEB3y_, symObjAddr: 0x440, symBinAddr: 0x10040, symSize: 0x250 }
  - { offset: 0x1F55A, size: 0x8, addend: 0x0, symName: __RINvMsi_NtCslJiobkLta79_5alloc3vecINtB6_3VecNtNtCsdGrGZaRBwMb_3syn8generics14WherePredicateE14extend_trustedINtNtNtNtCsieiGu2EXtoJ_4core4iter8adapters3map3MapINtNtNtB1R_5slice4iter4IterTRNtNtBK_11restriction10VisibilityNtCsaKzlTDPUHDb_11proc_macro211TokenStreamRNtNtBK_2ty4TypeEENCNvMs8_NtCs9E08dBcDM90_15zerocopy_derive4utilNtB4B_16ImplBlockBuilder5build0EEB4D_, symObjAddr: 0x690, symBinAddr: 0x10290, symSize: 0x1D0 }
  - { offset: 0x1F917, size: 0x8, addend: 0x0, symName: __RINvMsi_NtCslJiobkLta79_5alloc3vecINtB6_3VecNtNtCsdGrGZaRBwMb_3syn8generics14WherePredicateE16extend_desugaredINtNtNtNtCsieiGu2EXtoJ_4core4iter8adapters3map3MapINtNtBK_10punctuated4IterNtNtBK_4data5FieldENCNvNtNtCs9E08dBcDM90_15zerocopy_derive6derive10from_bytes22derive_from_zeros_enum0EEB3o_, symObjAddr: 0x860, symBinAddr: 0x10460, symSize: 0x250 }
  - { offset: 0x1FDC5, size: 0x8, addend: 0x0, symName: __RINvMsi_NtCslJiobkLta79_5alloc3vecINtB6_3VecTINtNtCsieiGu2EXtoJ_4core6option6OptionRNtNtCsdGrGZaRBwMb_3syn4data7VariantEIBx_TRNtNtB1o_11restriction10VisibilityNtCsaKzlTDPUHDb_11proc_macro211TokenStreamRNtNtB1o_2ty4TypeEEEE16extend_desugaredINtNtNtNtBM_4iter8adapters3map3MapINtNtB1o_10punctuated4IterB1k_ENCNvXs1_NtCs9E08dBcDM90_15zerocopy_derive4utilNtNtB1o_6derive8DataEnumNtB51_7DataExt8variants0EEB53_, symObjAddr: 0xAB0, symBinAddr: 0x106B0, symSize: 0x2A0 }
  - { offset: 0x2021A, size: 0x8, addend: 0x0, symName: __RINvMsi_NtCslJiobkLta79_5alloc3vecINtB6_3VecTRNtNtCsdGrGZaRBwMb_3syn11restriction10VisibilityNtCsaKzlTDPUHDb_11proc_macro211TokenStreamRNtNtBM_2ty4TypeEE16extend_desugaredINtNtNtNtCsieiGu2EXtoJ_4core4iter8adapters3map3MapINtNtB2O_9enumerate9EnumerateINtNtB2O_7flatten7FlatMapINtNtBM_10punctuated4IterNtNtBM_4data7VariantERNtB4Q_6FieldsNCNvXs1_NtCs9E08dBcDM90_15zerocopy_derive4utilNtNtBM_6derive8DataEnumNtB5v_7DataExt6fields0EENCINvB5v_10map_fieldsB40_E0EEB5x_, symObjAddr: 0xD50, symBinAddr: 0x10950, symSize: 0x250 }
  - { offset: 0x2062E, size: 0x8, addend: 0x0, symName: __RINvMsi_NtCslJiobkLta79_5alloc3vecINtB6_3VecTRNtNtCsdGrGZaRBwMb_3syn11restriction10VisibilityNtCsaKzlTDPUHDb_11proc_macro211TokenStreamRNtNtBM_2ty4TypeEE16extend_desugaredINtNtNtNtCsieiGu2EXtoJ_4core4iter8adapters3map3MapINtNtB2O_9enumerate9EnumerateINtNtBM_10punctuated4IterNtNtBM_4data5FieldEENCINvNtCs9E08dBcDM90_15zerocopy_derive4util10map_fieldsRINtB43_10PunctuatedB4p_NtNtBM_5token5CommaEE0EEB4Q_, symObjAddr: 0xFA0, symBinAddr: 0x10BA0, symSize: 0x250 }
  - { offset: 0x20A42, size: 0x8, addend: 0x0, symName: __RINvMsi_NtCslJiobkLta79_5alloc3vecINtB6_3VecTRNtNtCsdGrGZaRBwMb_3syn11restriction10VisibilityNtCsaKzlTDPUHDb_11proc_macro211TokenStreamRNtNtBM_2ty4TypeEE16extend_desugaredINtNtNtNtCsieiGu2EXtoJ_4core4iter8adapters3map3MapINtNtB2O_9enumerate9EnumerateINtNtBM_10punctuated4IterNtNtBM_4data5FieldEENCINvNtCs9E08dBcDM90_15zerocopy_derive4util10map_fieldsRNtB4r_6FieldsE0EEB4Q_, symObjAddr: 0x11F0, symBinAddr: 0x10DF0, symSize: 0x250 }
  - { offset: 0x20E25, size: 0x8, addend: 0x0, symName: __RINvMsi_NtCslJiobkLta79_5alloc3vecINtB6_3VecTljEE14extend_trustedINtNtNtNtCsieiGu2EXtoJ_4core4iter8adapters3map3MapINtNtB16_9enumerate9EnumerateIB12_INtNtNtB1a_5slice4iter4IterNtNtCsdGrGZaRBwMb_3syn8generics12GenericParamENCNvMs8_NtCs9E08dBcDM90_15zerocopy_derive4utilNtB3G_16ImplBlockBuilder5builds2_0EENCINvMNtB8_5sliceSB2O_18sort_by_cached_keylB3y_Es_0EEB3I_, symObjAddr: 0x1440, symBinAddr: 0x11040, symSize: 0x1B0 }
  - { offset: 0x2112E, size: 0x8, addend: 0x0, symName: __RINvMsi_NtCslJiobkLta79_5alloc3vecINtB6_3VecTlmEE14extend_trustedINtNtNtNtCsieiGu2EXtoJ_4core4iter8adapters3map3MapINtNtB16_9enumerate9EnumerateIB12_INtNtNtB1a_5slice4iter4IterNtNtCsdGrGZaRBwMb_3syn8generics12GenericParamENCNvMs8_NtCs9E08dBcDM90_15zerocopy_derive4utilNtB3G_16ImplBlockBuilder5builds2_0EENCINvMNtB8_5sliceSB2O_18sort_by_cached_keylB3y_E0EEB3I_, symObjAddr: 0x15F0, symBinAddr: 0x111F0, symSize: 0x1B0 }
  - { offset: 0x21360, size: 0x8, addend: 0x0, symName: __RNvMNtCslJiobkLta79_5alloc3vecINtB2_3VecINtNtNtCs9E08dBcDM90_15zerocopy_derive4repr4util7SpannedNtBH_7RawReprEE3newBJ_, symObjAddr: 0x1BD0, symBinAddr: 0x117D0, symSize: 0x30 }
  - { offset: 0x213DF, size: 0x8, addend: 0x0, symName: __RNvMNtCslJiobkLta79_5alloc3vecINtB2_3VecNtNtCsdGrGZaRBwMb_3syn4attr4MetaE13with_capacityCs9E08dBcDM90_15zerocopy_derive, symObjAddr: 0x1C00, symBinAddr: 0x11800, symSize: 0x60 }
  - { offset: 0x214B9, size: 0x8, addend: 0x0, symName: __RNvMNtCslJiobkLta79_5alloc3vecINtB2_3VecNtNtCsdGrGZaRBwMb_3syn8generics12GenericParamE13with_capacityCs9E08dBcDM90_15zerocopy_derive, symObjAddr: 0x1C60, symBinAddr: 0x11860, symSize: 0x60 }
  - { offset: 0x21531, size: 0x8, addend: 0x0, symName: __RNvMNtCslJiobkLta79_5alloc3vecINtB2_3VecNtNtCsdGrGZaRBwMb_3syn8generics12GenericParamE3newCs9E08dBcDM90_15zerocopy_derive, symObjAddr: 0x1CC0, symBinAddr: 0x118C0, symSize: 0x30 }
  - { offset: 0x2154E, size: 0x8, addend: 0x0, symName: __RNvMNtCslJiobkLta79_5alloc3vecINtB2_3VecNtNtCsdGrGZaRBwMb_3syn8generics14WherePredicateE3newCs9E08dBcDM90_15zerocopy_derive, symObjAddr: 0x1CF0, symBinAddr: 0x118F0, symSize: 0x30 }
  - { offset: 0x21589, size: 0x8, addend: 0x0, symName: __RNvMNtCslJiobkLta79_5alloc3vecINtB2_3VecTNtNtCsdGrGZaRBwMb_3syn4attr4MetaNtNtBH_5token5CommaEE3newCs9E08dBcDM90_15zerocopy_derive, symObjAddr: 0x1D20, symBinAddr: 0x11920, symSize: 0x30 }
  - { offset: 0x215B3, size: 0x8, addend: 0x0, symName: __RNvMs_NtCslJiobkLta79_5alloc3vecINtB4_3VecINtNtNtCs9E08dBcDM90_15zerocopy_derive4repr4util7SpannedNtBJ_7RawReprEE4pushBL_, symObjAddr: 0x1D50, symBinAddr: 0x11950, symSize: 0x20 }
  - { offset: 0x216C3, size: 0x8, addend: 0x0, symName: __RNvMs_NtCslJiobkLta79_5alloc3vecINtB4_3VecINtNtNtCs9E08dBcDM90_15zerocopy_derive4repr4util7SpannedNtBJ_7RawReprEE8as_sliceBL_, symObjAddr: 0x1D70, symBinAddr: 0x11970, symSize: 0x50 }
  - { offset: 0x21869, size: 0x8, addend: 0x0, symName: __RNvMs_NtCslJiobkLta79_5alloc3vecINtB4_3VecINtNtNtCs9E08dBcDM90_15zerocopy_derive4repr4util7SpannedNtBJ_7RawReprEE8push_mutBL_, symObjAddr: 0x1DC0, symBinAddr: 0x119C0, symSize: 0xD0 }
  - { offset: 0x21B4E, size: 0x8, addend: 0x0, symName: __RNvMs_NtCslJiobkLta79_5alloc3vecINtB4_3VecNtCsaKzlTDPUHDb_11proc_macro25IdentE7reserveCs9E08dBcDM90_15zerocopy_derive, symObjAddr: 0x1E90, symBinAddr: 0x11A90, symSize: 0xB0 }
  - { offset: 0x21D5F, size: 0x8, addend: 0x0, symName: __RNvMs_NtCslJiobkLta79_5alloc3vecINtB4_3VecNtCsaKzlTDPUHDb_11proc_macro25IdentE8as_sliceCs9E08dBcDM90_15zerocopy_derive, symObjAddr: 0x1F40, symBinAddr: 0x11B40, symSize: 0x50 }
  - { offset: 0x21E26, size: 0x8, addend: 0x0, symName: __RNvMs_NtCslJiobkLta79_5alloc3vecINtB4_3VecNtNtCsdGrGZaRBwMb_3syn4attr4MetaE4pushCs9E08dBcDM90_15zerocopy_derive, symObjAddr: 0x1F90, symBinAddr: 0x11B90, symSize: 0x20 }
  - { offset: 0x21F7E, size: 0x8, addend: 0x0, symName: __RNvMs_NtCslJiobkLta79_5alloc3vecINtB4_3VecNtNtCsdGrGZaRBwMb_3syn4attr4MetaE8push_mutCs9E08dBcDM90_15zerocopy_derive, symObjAddr: 0x1FB0, symBinAddr: 0x11BB0, symSize: 0x140 }
  - { offset: 0x221DA, size: 0x8, addend: 0x0, symName: __RNvMs_NtCslJiobkLta79_5alloc3vecINtB4_3VecNtNtCsdGrGZaRBwMb_3syn8generics12GenericParamE12as_mut_sliceCs9E08dBcDM90_15zerocopy_derive, symObjAddr: 0x20F0, symBinAddr: 0x11CF0, symSize: 0x50 }
  - { offset: 0x2236C, size: 0x8, addend: 0x0, symName: __RNvMs_NtCslJiobkLta79_5alloc3vecINtB4_3VecNtNtCsdGrGZaRBwMb_3syn8generics12GenericParamE15append_elementsCs9E08dBcDM90_15zerocopy_derive, symObjAddr: 0x2140, symBinAddr: 0x11D40, symSize: 0xC0 }
  - { offset: 0x225EF, size: 0x8, addend: 0x0, symName: __RNvMs_NtCslJiobkLta79_5alloc3vecINtB4_3VecNtNtCsdGrGZaRBwMb_3syn8generics12GenericParamE17from_raw_parts_inCs9E08dBcDM90_15zerocopy_derive, symObjAddr: 0x2200, symBinAddr: 0x11E00, symSize: 0xA0 }
  - { offset: 0x22776, size: 0x8, addend: 0x0, symName: __RNvMs_NtCslJiobkLta79_5alloc3vecINtB4_3VecNtNtCsdGrGZaRBwMb_3syn8generics12GenericParamE4pushCs9E08dBcDM90_15zerocopy_derive, symObjAddr: 0x22A0, symBinAddr: 0x11EA0, symSize: 0x20 }
  - { offset: 0x228D1, size: 0x8, addend: 0x0, symName: __RNvMs_NtCslJiobkLta79_5alloc3vecINtB4_3VecNtNtCsdGrGZaRBwMb_3syn8generics12GenericParamE7reserveCs9E08dBcDM90_15zerocopy_derive, symObjAddr: 0x22C0, symBinAddr: 0x11EC0, symSize: 0xB0 }
  - { offset: 0x22ACC, size: 0x8, addend: 0x0, symName: __RNvMs_NtCslJiobkLta79_5alloc3vecINtB4_3VecNtNtCsdGrGZaRBwMb_3syn8generics12GenericParamE8as_sliceCs9E08dBcDM90_15zerocopy_derive, symObjAddr: 0x2370, symBinAddr: 0x11F70, symSize: 0x50 }
  - { offset: 0x22C72, size: 0x8, addend: 0x0, symName: __RNvMs_NtCslJiobkLta79_5alloc3vecINtB4_3VecNtNtCsdGrGZaRBwMb_3syn8generics12GenericParamE8push_mutCs9E08dBcDM90_15zerocopy_derive, symObjAddr: 0x23C0, symBinAddr: 0x11FC0, symSize: 0x140 }
  - { offset: 0x22EFB, size: 0x8, addend: 0x0, symName: __RNvMs_NtCslJiobkLta79_5alloc3vecINtB4_3VecNtNtCsdGrGZaRBwMb_3syn8generics14WherePredicateE17from_raw_parts_inCs9E08dBcDM90_15zerocopy_derive, symObjAddr: 0x2500, symBinAddr: 0x12100, symSize: 0xA0 }
  - { offset: 0x23198, size: 0x8, addend: 0x0, symName: __RNvMs_NtCslJiobkLta79_5alloc3vecINtB4_3VecNtNtCsdGrGZaRBwMb_3syn8generics14WherePredicateE7reserveCs9E08dBcDM90_15zerocopy_derive, symObjAddr: 0x25A0, symBinAddr: 0x121A0, symSize: 0xB0 }
  - { offset: 0x2339C, size: 0x8, addend: 0x0, symName: __RNvMs_NtCslJiobkLta79_5alloc3vecINtB4_3VecNtNtCsdGrGZaRBwMb_3syn8generics14WherePredicateE8as_sliceCs9E08dBcDM90_15zerocopy_derive, symObjAddr: 0x2650, symBinAddr: 0x12250, symSize: 0x50 }
  - { offset: 0x2352A, size: 0x8, addend: 0x0, symName: __RNvMs_NtCslJiobkLta79_5alloc3vecINtB4_3VecTINtNtCsieiGu2EXtoJ_4core6option6OptionRNtNtCsdGrGZaRBwMb_3syn4data7VariantEIBv_TRNtNtB1m_11restriction10VisibilityNtCsaKzlTDPUHDb_11proc_macro211TokenStreamRNtNtB1m_2ty4TypeEEEE17from_raw_parts_inCs9E08dBcDM90_15zerocopy_derive, symObjAddr: 0x26A0, symBinAddr: 0x122A0, symSize: 0xA0 }
  - { offset: 0x237C7, size: 0x8, addend: 0x0, symName: __RNvMs_NtCslJiobkLta79_5alloc3vecINtB4_3VecTINtNtCsieiGu2EXtoJ_4core6option6OptionRNtNtCsdGrGZaRBwMb_3syn4data7VariantEIBv_TRNtNtB1m_11restriction10VisibilityNtCsaKzlTDPUHDb_11proc_macro211TokenStreamRNtNtB1m_2ty4TypeEEEE7reserveCs9E08dBcDM90_15zerocopy_derive, symObjAddr: 0x2740, symBinAddr: 0x12340, symSize: 0xB0 }
  - { offset: 0x239CB, size: 0x8, addend: 0x0, symName: __RNvMs_NtCslJiobkLta79_5alloc3vecINtB4_3VecTINtNtCsieiGu2EXtoJ_4core6option6OptionRNtNtCsdGrGZaRBwMb_3syn4data7VariantEIBv_TRNtNtB1m_11restriction10VisibilityNtCsaKzlTDPUHDb_11proc_macro211TokenStreamRNtNtB1m_2ty4TypeEEEE8as_sliceCs9E08dBcDM90_15zerocopy_derive, symObjAddr: 0x27F0, symBinAddr: 0x123F0, symSize: 0x50 }
  - { offset: 0x23A92, size: 0x8, addend: 0x0, symName: __RNvMs_NtCslJiobkLta79_5alloc3vecINtB4_3VecTNtNtCsdGrGZaRBwMb_3syn4attr4MetaNtNtBJ_5token5CommaEE3lenCs9E08dBcDM90_15zerocopy_derive, symObjAddr: 0x2840, symBinAddr: 0x12440, symSize: 0x10 }
  - { offset: 0x23AD4, size: 0x8, addend: 0x0, symName: __RNvMs_NtCslJiobkLta79_5alloc3vecINtB4_3VecTNtNtCsdGrGZaRBwMb_3syn4attr4MetaNtNtBJ_5token5CommaEE4pushCs9E08dBcDM90_15zerocopy_derive, symObjAddr: 0x2850, symBinAddr: 0x12450, symSize: 0x20 }
  - { offset: 0x23C2C, size: 0x8, addend: 0x0, symName: __RNvMs_NtCslJiobkLta79_5alloc3vecINtB4_3VecTNtNtCsdGrGZaRBwMb_3syn4attr4MetaNtNtBJ_5token5CommaEE8push_mutCs9E08dBcDM90_15zerocopy_derive, symObjAddr: 0x2870, symBinAddr: 0x12470, symSize: 0x140 }
  - { offset: 0x23DEE, size: 0x8, addend: 0x0, symName: __RNvMs_NtCslJiobkLta79_5alloc3vecINtB4_3VecTNtNtCsdGrGZaRBwMb_3syn4data7VariantNtNtBJ_5token5CommaEE3lenCs9E08dBcDM90_15zerocopy_derive, symObjAddr: 0x29B0, symBinAddr: 0x125B0, symSize: 0x10 }
  - { offset: 0x23E23, size: 0x8, addend: 0x0, symName: __RNvMs_NtCslJiobkLta79_5alloc3vecINtB4_3VecTRNtNtCsdGrGZaRBwMb_3syn11restriction10VisibilityNtCsaKzlTDPUHDb_11proc_macro211TokenStreamRNtNtBK_2ty4TypeEE3lenCs9E08dBcDM90_15zerocopy_derive, symObjAddr: 0x29C0, symBinAddr: 0x125C0, symSize: 0x10 }
  - { offset: 0x23F6E, size: 0x8, addend: 0x0, symName: __RNvMs_NtCslJiobkLta79_5alloc3vecINtB4_3VecTRNtNtCsdGrGZaRBwMb_3syn11restriction10VisibilityNtCsaKzlTDPUHDb_11proc_macro211TokenStreamRNtNtBK_2ty4TypeEE7reserveCs9E08dBcDM90_15zerocopy_derive, symObjAddr: 0x29D0, symBinAddr: 0x125D0, symSize: 0xB0 }
  - { offset: 0x24172, size: 0x8, addend: 0x0, symName: __RNvMs_NtCslJiobkLta79_5alloc3vecINtB4_3VecTRNtNtCsdGrGZaRBwMb_3syn11restriction10VisibilityNtCsaKzlTDPUHDb_11proc_macro211TokenStreamRNtNtBK_2ty4TypeEE8as_sliceCs9E08dBcDM90_15zerocopy_derive, symObjAddr: 0x2A80, symBinAddr: 0x12680, symSize: 0x50 }
  - { offset: 0x24251, size: 0x8, addend: 0x0, symName: __RNvMs_NtCslJiobkLta79_5alloc3vecINtB4_3VecTRNtNtCsdGrGZaRBwMb_3syn11restriction10VisibilityNtCsaKzlTDPUHDb_11proc_macro211TokenStreamRNtNtBK_2ty4TypeEE8is_emptyCs9E08dBcDM90_15zerocopy_derive, symObjAddr: 0x2AD0, symBinAddr: 0x126D0, symSize: 0x20 }
  - { offset: 0x243BA, size: 0x8, addend: 0x0, symName: __RNvMs_NtCslJiobkLta79_5alloc3vecINtB4_3VecTljEE7reserveCs9E08dBcDM90_15zerocopy_derive, symObjAddr: 0x2AF0, symBinAddr: 0x126F0, symSize: 0xB0 }
  - { offset: 0x2463D, size: 0x8, addend: 0x0, symName: __RNvMs_NtCslJiobkLta79_5alloc3vecINtB4_3VecTlmEE7reserveCs9E08dBcDM90_15zerocopy_derive, symObjAddr: 0x2BA0, symBinAddr: 0x127A0, symSize: 0xB0 }
  - { offset: 0x252AB, size: 0x8, addend: 0x0, symName: __RNvXs4_NtNtCs9OU1sGv5X54_5quote9___private3extINtNtCslJiobkLta79_5alloc3vec3VecNtNtCsdGrGZaRBwMb_3syn8generics12GenericParamENtB5_16RepAsIteratorExt15quote_into_iterCs9E08dBcDM90_15zerocopy_derive, symObjAddr: 0x4510, symBinAddr: 0x14110, symSize: 0x30 }
  - { offset: 0x262BD, size: 0x8, addend: 0x0, symName: __RINvNtNtCscKtU6MdFI5n_10proc_macro6bridge6client10run_clientNtB2_11TokenStreamINtNtCsieiGu2EXtoJ_4core6option6OptionBW_ENCNCINvMs6_B2_INtB2_6ClientNtB6_11TokenStreamB2l_E7expand1NvCs9E08dBcDM90_15zerocopy_derive11derive_hashE00EB2S_, symObjAddr: 0x0, symBinAddr: 0x15360, symSize: 0x2E0 }
  - { offset: 0x27E6F, size: 0x8, addend: 0x0, symName: __RNCINvNtNtCscKtU6MdFI5n_10proc_macro6bridge6client10run_clientNtB4_11TokenStreamINtNtCsieiGu2EXtoJ_4core6option6OptionBY_ENCNCINvMs6_B4_INtB4_6ClientNtB8_11TokenStreamB2n_E7expand1NvCs9E08dBcDM90_15zerocopy_derive11derive_hashE00E0B2U_, symObjAddr: 0x24C0, symBinAddr: 0x17820, symSize: 0x420 }
  - { offset: 0x28090, size: 0x8, addend: 0x0, symName: __RNCINvNtNtCscKtU6MdFI5n_10proc_macro6bridge6client10run_clientNtB4_11TokenStreamINtNtCsieiGu2EXtoJ_4core6option6OptionBY_ENCNCINvMs6_B4_INtB4_6ClientNtB8_11TokenStreamB2n_E7expand1NvCs9E08dBcDM90_15zerocopy_derive15derive_as_bytesE00E0B2U_, symObjAddr: 0x28E0, symBinAddr: 0x17C40, symSize: 0x420 }
  - { offset: 0x282B1, size: 0x8, addend: 0x0, symName: __RNCINvNtNtCscKtU6MdFI5n_10proc_macro6bridge6client10run_clientNtB4_11TokenStreamINtNtCsieiGu2EXtoJ_4core6option6OptionBY_ENCNCINvMs6_B4_INtB4_6ClientNtB8_11TokenStreamB2n_E7expand1NvCs9E08dBcDM90_15zerocopy_derive15derive_split_atE00E0B2U_, symObjAddr: 0x2D00, symBinAddr: 0x18060, symSize: 0x420 }
  - { offset: 0x284D2, size: 0x8, addend: 0x0, symName: __RNCINvNtNtCscKtU6MdFI5n_10proc_macro6bridge6client10run_clientNtB4_11TokenStreamINtNtCsieiGu2EXtoJ_4core6option6OptionBY_ENCNCINvMs6_B4_INtB4_6ClientNtB8_11TokenStreamB2n_E7expand1NvCs9E08dBcDM90_15zerocopy_derive16derive_immutableE00E0B2U_, symObjAddr: 0x3120, symBinAddr: 0x18480, symSize: 0x420 }
  - { offset: 0x286F3, size: 0x8, addend: 0x0, symName: __RNCINvNtNtCscKtU6MdFI5n_10proc_macro6bridge6client10run_clientNtB4_11TokenStreamINtNtCsieiGu2EXtoJ_4core6option6OptionBY_ENCNCINvMs6_B4_INtB4_6ClientNtB8_11TokenStreamB2n_E7expand1NvCs9E08dBcDM90_15zerocopy_derive16derive_unalignedE00E0B2U_, symObjAddr: 0x3540, symBinAddr: 0x188A0, symSize: 0x420 }
  - { offset: 0x28914, size: 0x8, addend: 0x0, symName: __RNCINvNtNtCscKtU6MdFI5n_10proc_macro6bridge6client10run_clientNtB4_11TokenStreamINtNtCsieiGu2EXtoJ_4core6option6OptionBY_ENCNCINvMs6_B4_INtB4_6ClientNtB8_11TokenStreamB2n_E7expand1NvCs9E08dBcDM90_15zerocopy_derive17derive_from_bytesE00E0B2U_, symObjAddr: 0x3960, symBinAddr: 0x18CC0, symSize: 0x420 }
  - { offset: 0x28B35, size: 0x8, addend: 0x0, symName: __RNCINvNtNtCscKtU6MdFI5n_10proc_macro6bridge6client10run_clientNtB4_11TokenStreamINtNtCsieiGu2EXtoJ_4core6option6OptionBY_ENCNCINvMs6_B4_INtB4_6ClientNtB8_11TokenStreamB2n_E7expand1NvCs9E08dBcDM90_15zerocopy_derive17derive_from_zerosE00E0B2U_, symObjAddr: 0x3D80, symBinAddr: 0x190E0, symSize: 0x420 }
  - { offset: 0x28D56, size: 0x8, addend: 0x0, symName: __RNCINvNtNtCscKtU6MdFI5n_10proc_macro6bridge6client10run_clientNtB4_11TokenStreamINtNtCsieiGu2EXtoJ_4core6option6OptionBY_ENCNCINvMs6_B4_INtB4_6ClientNtB8_11TokenStreamB2n_E7expand1NvCs9E08dBcDM90_15zerocopy_derive17derive_into_bytesE00E0B2U_, symObjAddr: 0x41A0, symBinAddr: 0x19500, symSize: 0x420 }
  - { offset: 0x28F77, size: 0x8, addend: 0x0, symName: __RNCINvNtNtCscKtU6MdFI5n_10proc_macro6bridge6client10run_clientNtB4_11TokenStreamINtNtCsieiGu2EXtoJ_4core6option6OptionBY_ENCNCINvMs6_B4_INtB4_6ClientNtB8_11TokenStreamB2n_E7expand1NvCs9E08dBcDM90_15zerocopy_derive18derive_from_zeroesE00E0B2U_, symObjAddr: 0x45C0, symBinAddr: 0x19920, symSize: 0x420 }
  - { offset: 0x29198, size: 0x8, addend: 0x0, symName: __RNCINvNtNtCscKtU6MdFI5n_10proc_macro6bridge6client10run_clientNtB4_11TokenStreamINtNtCsieiGu2EXtoJ_4core6option6OptionBY_ENCNCINvMs6_B4_INtB4_6ClientNtB8_11TokenStreamB2n_E7expand1NvCs9E08dBcDM90_15zerocopy_derive19derive_known_layoutE00E0B2U_, symObjAddr: 0x49E0, symBinAddr: 0x19D40, symSize: 0x420 }
  - { offset: 0x293B9, size: 0x8, addend: 0x0, symName: __RNCINvNtNtCscKtU6MdFI5n_10proc_macro6bridge6client10run_clientNtB4_11TokenStreamINtNtCsieiGu2EXtoJ_4core6option6OptionBY_ENCNCINvMs6_B4_INtB4_6ClientNtB8_11TokenStreamB2n_E7expand1NvCs9E08dBcDM90_15zerocopy_derive21derive_try_from_bytesE00E0B2U_, symObjAddr: 0x4E00, symBinAddr: 0x1A160, symSize: 0x420 }
  - { offset: 0x295DA, size: 0x8, addend: 0x0, symName: __RNCINvNtNtCscKtU6MdFI5n_10proc_macro6bridge6client10run_clientNtB4_11TokenStreamINtNtCsieiGu2EXtoJ_4core6option6OptionBY_ENCNCINvMs6_B4_INtB4_6ClientNtB8_11TokenStreamB2n_E7expand1NvCs9E08dBcDM90_15zerocopy_derive9derive_eqE00E0B2U_, symObjAddr: 0x5220, symBinAddr: 0x1A580, symSize: 0x420 }
  - { offset: 0x29800, size: 0x8, addend: 0x0, symName: __RNCNCINvNtNtCscKtU6MdFI5n_10proc_macro6bridge6client10run_clientNtB6_11TokenStreamINtNtCsieiGu2EXtoJ_4core6option6OptionB10_ENCNCINvMs6_B6_INtB6_6ClientNtBa_11TokenStreamB2q_E7expand1NvCs9E08dBcDM90_15zerocopy_derive11derive_hashE00E00B2X_, symObjAddr: 0x57C0, symBinAddr: 0x1AB20, symSize: 0x20 }
  - { offset: 0x2985C, size: 0x8, addend: 0x0, symName: __RNCNCINvNtNtCscKtU6MdFI5n_10proc_macro6bridge6client10run_clientNtB6_11TokenStreamINtNtCsieiGu2EXtoJ_4core6option6OptionB10_ENCNCINvMs6_B6_INtB6_6ClientNtBa_11TokenStreamB2q_E7expand1NvCs9E08dBcDM90_15zerocopy_derive15derive_as_bytesE00E00B2X_, symObjAddr: 0x57E0, symBinAddr: 0x1AB40, symSize: 0x20 }
  - { offset: 0x298B8, size: 0x8, addend: 0x0, symName: __RNCNCINvNtNtCscKtU6MdFI5n_10proc_macro6bridge6client10run_clientNtB6_11TokenStreamINtNtCsieiGu2EXtoJ_4core6option6OptionB10_ENCNCINvMs6_B6_INtB6_6ClientNtBa_11TokenStreamB2q_E7expand1NvCs9E08dBcDM90_15zerocopy_derive15derive_split_atE00E00B2X_, symObjAddr: 0x5800, symBinAddr: 0x1AB60, symSize: 0x20 }
  - { offset: 0x29914, size: 0x8, addend: 0x0, symName: __RNCNCINvNtNtCscKtU6MdFI5n_10proc_macro6bridge6client10run_clientNtB6_11TokenStreamINtNtCsieiGu2EXtoJ_4core6option6OptionB10_ENCNCINvMs6_B6_INtB6_6ClientNtBa_11TokenStreamB2q_E7expand1NvCs9E08dBcDM90_15zerocopy_derive16derive_immutableE00E00B2X_, symObjAddr: 0x5820, symBinAddr: 0x1AB80, symSize: 0x20 }
  - { offset: 0x29970, size: 0x8, addend: 0x0, symName: __RNCNCINvNtNtCscKtU6MdFI5n_10proc_macro6bridge6client10run_clientNtB6_11TokenStreamINtNtCsieiGu2EXtoJ_4core6option6OptionB10_ENCNCINvMs6_B6_INtB6_6ClientNtBa_11TokenStreamB2q_E7expand1NvCs9E08dBcDM90_15zerocopy_derive16derive_unalignedE00E00B2X_, symObjAddr: 0x5840, symBinAddr: 0x1ABA0, symSize: 0x20 }
  - { offset: 0x299CC, size: 0x8, addend: 0x0, symName: __RNCNCINvNtNtCscKtU6MdFI5n_10proc_macro6bridge6client10run_clientNtB6_11TokenStreamINtNtCsieiGu2EXtoJ_4core6option6OptionB10_ENCNCINvMs6_B6_INtB6_6ClientNtBa_11TokenStreamB2q_E7expand1NvCs9E08dBcDM90_15zerocopy_derive17derive_from_bytesE00E00B2X_, symObjAddr: 0x5860, symBinAddr: 0x1ABC0, symSize: 0x20 }
  - { offset: 0x29A28, size: 0x8, addend: 0x0, symName: __RNCNCINvNtNtCscKtU6MdFI5n_10proc_macro6bridge6client10run_clientNtB6_11TokenStreamINtNtCsieiGu2EXtoJ_4core6option6OptionB10_ENCNCINvMs6_B6_INtB6_6ClientNtBa_11TokenStreamB2q_E7expand1NvCs9E08dBcDM90_15zerocopy_derive17derive_from_zerosE00E00B2X_, symObjAddr: 0x5880, symBinAddr: 0x1ABE0, symSize: 0x20 }
  - { offset: 0x29A84, size: 0x8, addend: 0x0, symName: __RNCNCINvNtNtCscKtU6MdFI5n_10proc_macro6bridge6client10run_clientNtB6_11TokenStreamINtNtCsieiGu2EXtoJ_4core6option6OptionB10_ENCNCINvMs6_B6_INtB6_6ClientNtBa_11TokenStreamB2q_E7expand1NvCs9E08dBcDM90_15zerocopy_derive17derive_into_bytesE00E00B2X_, symObjAddr: 0x58A0, symBinAddr: 0x1AC00, symSize: 0x20 }
  - { offset: 0x29AE0, size: 0x8, addend: 0x0, symName: __RNCNCINvNtNtCscKtU6MdFI5n_10proc_macro6bridge6client10run_clientNtB6_11TokenStreamINtNtCsieiGu2EXtoJ_4core6option6OptionB10_ENCNCINvMs6_B6_INtB6_6ClientNtBa_11TokenStreamB2q_E7expand1NvCs9E08dBcDM90_15zerocopy_derive18derive_from_zeroesE00E00B2X_, symObjAddr: 0x58C0, symBinAddr: 0x1AC20, symSize: 0x20 }
  - { offset: 0x29B3C, size: 0x8, addend: 0x0, symName: __RNCNCINvNtNtCscKtU6MdFI5n_10proc_macro6bridge6client10run_clientNtB6_11TokenStreamINtNtCsieiGu2EXtoJ_4core6option6OptionB10_ENCNCINvMs6_B6_INtB6_6ClientNtBa_11TokenStreamB2q_E7expand1NvCs9E08dBcDM90_15zerocopy_derive19derive_known_layoutE00E00B2X_, symObjAddr: 0x58E0, symBinAddr: 0x1AC40, symSize: 0x20 }
  - { offset: 0x29B98, size: 0x8, addend: 0x0, symName: __RNCNCINvNtNtCscKtU6MdFI5n_10proc_macro6bridge6client10run_clientNtB6_11TokenStreamINtNtCsieiGu2EXtoJ_4core6option6OptionB10_ENCNCINvMs6_B6_INtB6_6ClientNtBa_11TokenStreamB2q_E7expand1NvCs9E08dBcDM90_15zerocopy_derive21derive_try_from_bytesE00E00B2X_, symObjAddr: 0x5900, symBinAddr: 0x1AC60, symSize: 0x20 }
  - { offset: 0x29BF4, size: 0x8, addend: 0x0, symName: __RNCNCINvNtNtCscKtU6MdFI5n_10proc_macro6bridge6client10run_clientNtB6_11TokenStreamINtNtCsieiGu2EXtoJ_4core6option6OptionB10_ENCNCINvMs6_B6_INtB6_6ClientNtBa_11TokenStreamB2q_E7expand1NvCs9E08dBcDM90_15zerocopy_derive9derive_eqE00E00B2X_, symObjAddr: 0x5920, symBinAddr: 0x1AC80, symSize: 0x20 }
  - { offset: 0x29D45, size: 0x8, addend: 0x0, symName: __RNCNCINvMs6_NtNtCscKtU6MdFI5n_10proc_macro6bridge6clientINtBa_6ClientNtBe_11TokenStreamB15_E7expand1NvCs9E08dBcDM90_15zerocopy_derive11derive_hashE00B1C_, symObjAddr: 0x5640, symBinAddr: 0x1A9A0, symSize: 0x20 }
  - { offset: 0x29D8D, size: 0x8, addend: 0x0, symName: __RNCNCINvMs6_NtNtCscKtU6MdFI5n_10proc_macro6bridge6clientINtBa_6ClientNtBe_11TokenStreamB15_E7expand1NvCs9E08dBcDM90_15zerocopy_derive15derive_as_bytesE00B1C_, symObjAddr: 0x5660, symBinAddr: 0x1A9C0, symSize: 0x20 }
  - { offset: 0x29DD5, size: 0x8, addend: 0x0, symName: __RNCNCINvMs6_NtNtCscKtU6MdFI5n_10proc_macro6bridge6clientINtBa_6ClientNtBe_11TokenStreamB15_E7expand1NvCs9E08dBcDM90_15zerocopy_derive15derive_split_atE00B1C_, symObjAddr: 0x5680, symBinAddr: 0x1A9E0, symSize: 0x20 }
  - { offset: 0x29E1D, size: 0x8, addend: 0x0, symName: __RNCNCINvMs6_NtNtCscKtU6MdFI5n_10proc_macro6bridge6clientINtBa_6ClientNtBe_11TokenStreamB15_E7expand1NvCs9E08dBcDM90_15zerocopy_derive16derive_immutableE00B1C_, symObjAddr: 0x56A0, symBinAddr: 0x1AA00, symSize: 0x20 }
  - { offset: 0x29E65, size: 0x8, addend: 0x0, symName: __RNCNCINvMs6_NtNtCscKtU6MdFI5n_10proc_macro6bridge6clientINtBa_6ClientNtBe_11TokenStreamB15_E7expand1NvCs9E08dBcDM90_15zerocopy_derive16derive_unalignedE00B1C_, symObjAddr: 0x56C0, symBinAddr: 0x1AA20, symSize: 0x20 }
  - { offset: 0x29EAD, size: 0x8, addend: 0x0, symName: __RNCNCINvMs6_NtNtCscKtU6MdFI5n_10proc_macro6bridge6clientINtBa_6ClientNtBe_11TokenStreamB15_E7expand1NvCs9E08dBcDM90_15zerocopy_derive17derive_from_bytesE00B1C_, symObjAddr: 0x56E0, symBinAddr: 0x1AA40, symSize: 0x20 }
  - { offset: 0x29EF5, size: 0x8, addend: 0x0, symName: __RNCNCINvMs6_NtNtCscKtU6MdFI5n_10proc_macro6bridge6clientINtBa_6ClientNtBe_11TokenStreamB15_E7expand1NvCs9E08dBcDM90_15zerocopy_derive17derive_from_zerosE00B1C_, symObjAddr: 0x5700, symBinAddr: 0x1AA60, symSize: 0x20 }
  - { offset: 0x29F3D, size: 0x8, addend: 0x0, symName: __RNCNCINvMs6_NtNtCscKtU6MdFI5n_10proc_macro6bridge6clientINtBa_6ClientNtBe_11TokenStreamB15_E7expand1NvCs9E08dBcDM90_15zerocopy_derive17derive_into_bytesE00B1C_, symObjAddr: 0x5720, symBinAddr: 0x1AA80, symSize: 0x20 }
  - { offset: 0x29F85, size: 0x8, addend: 0x0, symName: __RNCNCINvMs6_NtNtCscKtU6MdFI5n_10proc_macro6bridge6clientINtBa_6ClientNtBe_11TokenStreamB15_E7expand1NvCs9E08dBcDM90_15zerocopy_derive18derive_from_zeroesE00B1C_, symObjAddr: 0x5740, symBinAddr: 0x1AAA0, symSize: 0x20 }
  - { offset: 0x29FCD, size: 0x8, addend: 0x0, symName: __RNCNCINvMs6_NtNtCscKtU6MdFI5n_10proc_macro6bridge6clientINtBa_6ClientNtBe_11TokenStreamB15_E7expand1NvCs9E08dBcDM90_15zerocopy_derive19derive_known_layoutE00B1C_, symObjAddr: 0x5760, symBinAddr: 0x1AAC0, symSize: 0x20 }
  - { offset: 0x2A015, size: 0x8, addend: 0x0, symName: __RNCNCINvMs6_NtNtCscKtU6MdFI5n_10proc_macro6bridge6clientINtBa_6ClientNtBe_11TokenStreamB15_E7expand1NvCs9E08dBcDM90_15zerocopy_derive21derive_try_from_bytesE00B1C_, symObjAddr: 0x5780, symBinAddr: 0x1AAE0, symSize: 0x20 }
  - { offset: 0x2A05D, size: 0x8, addend: 0x0, symName: __RNCNCINvMs6_NtNtCscKtU6MdFI5n_10proc_macro6bridge6clientINtBa_6ClientNtBe_11TokenStreamB15_E7expand1NvCs9E08dBcDM90_15zerocopy_derive9derive_eqE00B1C_, symObjAddr: 0x57A0, symBinAddr: 0x1AB00, symSize: 0x20 }
  - { offset: 0x2A0A6, size: 0x8, addend: 0x0, symName: __RNCINvMs6_NtNtCscKtU6MdFI5n_10proc_macro6bridge6clientINtB8_6ClientNtBc_11TokenStreamB13_E7expand1NvCs9E08dBcDM90_15zerocopy_derive11derive_hashE0B1A_, symObjAddr: 0x2280, symBinAddr: 0x175E0, symSize: 0x30 }
  - { offset: 0x2A0EF, size: 0x8, addend: 0x0, symName: __RNCINvMs6_NtNtCscKtU6MdFI5n_10proc_macro6bridge6clientINtB8_6ClientNtBc_11TokenStreamB13_E7expand1NvCs9E08dBcDM90_15zerocopy_derive15derive_as_bytesE0B1A_, symObjAddr: 0x22B0, symBinAddr: 0x17610, symSize: 0x30 }
  - { offset: 0x2A138, size: 0x8, addend: 0x0, symName: __RNCINvMs6_NtNtCscKtU6MdFI5n_10proc_macro6bridge6clientINtB8_6ClientNtBc_11TokenStreamB13_E7expand1NvCs9E08dBcDM90_15zerocopy_derive15derive_split_atE0B1A_, symObjAddr: 0x22E0, symBinAddr: 0x17640, symSize: 0x30 }
  - { offset: 0x2A181, size: 0x8, addend: 0x0, symName: __RNCINvMs6_NtNtCscKtU6MdFI5n_10proc_macro6bridge6clientINtB8_6ClientNtBc_11TokenStreamB13_E7expand1NvCs9E08dBcDM90_15zerocopy_derive16derive_immutableE0B1A_, symObjAddr: 0x2310, symBinAddr: 0x17670, symSize: 0x30 }
  - { offset: 0x2A1CA, size: 0x8, addend: 0x0, symName: __RNCINvMs6_NtNtCscKtU6MdFI5n_10proc_macro6bridge6clientINtB8_6ClientNtBc_11TokenStreamB13_E7expand1NvCs9E08dBcDM90_15zerocopy_derive16derive_unalignedE0B1A_, symObjAddr: 0x2340, symBinAddr: 0x176A0, symSize: 0x30 }
  - { offset: 0x2A213, size: 0x8, addend: 0x0, symName: __RNCINvMs6_NtNtCscKtU6MdFI5n_10proc_macro6bridge6clientINtB8_6ClientNtBc_11TokenStreamB13_E7expand1NvCs9E08dBcDM90_15zerocopy_derive17derive_from_bytesE0B1A_, symObjAddr: 0x2370, symBinAddr: 0x176D0, symSize: 0x30 }
  - { offset: 0x2A25C, size: 0x8, addend: 0x0, symName: __RNCINvMs6_NtNtCscKtU6MdFI5n_10proc_macro6bridge6clientINtB8_6ClientNtBc_11TokenStreamB13_E7expand1NvCs9E08dBcDM90_15zerocopy_derive17derive_from_zerosE0B1A_, symObjAddr: 0x23A0, symBinAddr: 0x17700, symSize: 0x30 }
  - { offset: 0x2A2A5, size: 0x8, addend: 0x0, symName: __RNCINvMs6_NtNtCscKtU6MdFI5n_10proc_macro6bridge6clientINtB8_6ClientNtBc_11TokenStreamB13_E7expand1NvCs9E08dBcDM90_15zerocopy_derive17derive_into_bytesE0B1A_, symObjAddr: 0x23D0, symBinAddr: 0x17730, symSize: 0x30 }
  - { offset: 0x2A2EE, size: 0x8, addend: 0x0, symName: __RNCINvMs6_NtNtCscKtU6MdFI5n_10proc_macro6bridge6clientINtB8_6ClientNtBc_11TokenStreamB13_E7expand1NvCs9E08dBcDM90_15zerocopy_derive18derive_from_zeroesE0B1A_, symObjAddr: 0x2400, symBinAddr: 0x17760, symSize: 0x30 }
  - { offset: 0x2A337, size: 0x8, addend: 0x0, symName: __RNCINvMs6_NtNtCscKtU6MdFI5n_10proc_macro6bridge6clientINtB8_6ClientNtBc_11TokenStreamB13_E7expand1NvCs9E08dBcDM90_15zerocopy_derive19derive_known_layoutE0B1A_, symObjAddr: 0x2430, symBinAddr: 0x17790, symSize: 0x30 }
  - { offset: 0x2A380, size: 0x8, addend: 0x0, symName: __RNCINvMs6_NtNtCscKtU6MdFI5n_10proc_macro6bridge6clientINtB8_6ClientNtBc_11TokenStreamB13_E7expand1NvCs9E08dBcDM90_15zerocopy_derive21derive_try_from_bytesE0B1A_, symObjAddr: 0x2460, symBinAddr: 0x177C0, symSize: 0x30 }
  - { offset: 0x2A3C9, size: 0x8, addend: 0x0, symName: __RNCINvMs6_NtNtCscKtU6MdFI5n_10proc_macro6bridge6clientINtB8_6ClientNtBc_11TokenStreamB13_E7expand1NvCs9E08dBcDM90_15zerocopy_derive9derive_eqE0B1A_, symObjAddr: 0x2490, symBinAddr: 0x177F0, symSize: 0x30 }
  - { offset: 0x2A435, size: 0x8, addend: 0x0, symName: __RINvNtNtCscKtU6MdFI5n_10proc_macro6bridge6client10run_clientNtB2_11TokenStreamINtNtCsieiGu2EXtoJ_4core6option6OptionBW_ENCNCINvMs6_B2_INtB2_6ClientNtB6_11TokenStreamB2l_E7expand1NvCs9E08dBcDM90_15zerocopy_derive11derive_hashE00EB2S_, symObjAddr: 0x0, symBinAddr: 0x15360, symSize: 0x2E0 }
  - { offset: 0x2A61F, size: 0x8, addend: 0x0, symName: __RINvNtNtCscKtU6MdFI5n_10proc_macro6bridge6client10run_clientNtB2_11TokenStreamINtNtCsieiGu2EXtoJ_4core6option6OptionBW_ENCNCINvMs6_B2_INtB2_6ClientNtB6_11TokenStreamB2l_E7expand1NvCs9E08dBcDM90_15zerocopy_derive15derive_as_bytesE00EB2S_, symObjAddr: 0x2E0, symBinAddr: 0x15640, symSize: 0x2E0 }
  - { offset: 0x2A809, size: 0x8, addend: 0x0, symName: __RINvNtNtCscKtU6MdFI5n_10proc_macro6bridge6client10run_clientNtB2_11TokenStreamINtNtCsieiGu2EXtoJ_4core6option6OptionBW_ENCNCINvMs6_B2_INtB2_6ClientNtB6_11TokenStreamB2l_E7expand1NvCs9E08dBcDM90_15zerocopy_derive15derive_split_atE00EB2S_, symObjAddr: 0x5C0, symBinAddr: 0x15920, symSize: 0x2E0 }
  - { offset: 0x2A9F3, size: 0x8, addend: 0x0, symName: __RINvNtNtCscKtU6MdFI5n_10proc_macro6bridge6client10run_clientNtB2_11TokenStreamINtNtCsieiGu2EXtoJ_4core6option6OptionBW_ENCNCINvMs6_B2_INtB2_6ClientNtB6_11TokenStreamB2l_E7expand1NvCs9E08dBcDM90_15zerocopy_derive16derive_immutableE00EB2S_, symObjAddr: 0x8A0, symBinAddr: 0x15C00, symSize: 0x2E0 }
  - { offset: 0x2ABDD, size: 0x8, addend: 0x0, symName: __RINvNtNtCscKtU6MdFI5n_10proc_macro6bridge6client10run_clientNtB2_11TokenStreamINtNtCsieiGu2EXtoJ_4core6option6OptionBW_ENCNCINvMs6_B2_INtB2_6ClientNtB6_11TokenStreamB2l_E7expand1NvCs9E08dBcDM90_15zerocopy_derive16derive_unalignedE00EB2S_, symObjAddr: 0xB80, symBinAddr: 0x15EE0, symSize: 0x2E0 }
  - { offset: 0x2ADC7, size: 0x8, addend: 0x0, symName: __RINvNtNtCscKtU6MdFI5n_10proc_macro6bridge6client10run_clientNtB2_11TokenStreamINtNtCsieiGu2EXtoJ_4core6option6OptionBW_ENCNCINvMs6_B2_INtB2_6ClientNtB6_11TokenStreamB2l_E7expand1NvCs9E08dBcDM90_15zerocopy_derive17derive_from_bytesE00EB2S_, symObjAddr: 0xE60, symBinAddr: 0x161C0, symSize: 0x2E0 }
  - { offset: 0x2AFB1, size: 0x8, addend: 0x0, symName: __RINvNtNtCscKtU6MdFI5n_10proc_macro6bridge6client10run_clientNtB2_11TokenStreamINtNtCsieiGu2EXtoJ_4core6option6OptionBW_ENCNCINvMs6_B2_INtB2_6ClientNtB6_11TokenStreamB2l_E7expand1NvCs9E08dBcDM90_15zerocopy_derive17derive_from_zerosE00EB2S_, symObjAddr: 0x1140, symBinAddr: 0x164A0, symSize: 0x2E0 }
  - { offset: 0x2B19B, size: 0x8, addend: 0x0, symName: __RINvNtNtCscKtU6MdFI5n_10proc_macro6bridge6client10run_clientNtB2_11TokenStreamINtNtCsieiGu2EXtoJ_4core6option6OptionBW_ENCNCINvMs6_B2_INtB2_6ClientNtB6_11TokenStreamB2l_E7expand1NvCs9E08dBcDM90_15zerocopy_derive17derive_into_bytesE00EB2S_, symObjAddr: 0x1420, symBinAddr: 0x16780, symSize: 0x2E0 }
  - { offset: 0x2B385, size: 0x8, addend: 0x0, symName: __RINvNtNtCscKtU6MdFI5n_10proc_macro6bridge6client10run_clientNtB2_11TokenStreamINtNtCsieiGu2EXtoJ_4core6option6OptionBW_ENCNCINvMs6_B2_INtB2_6ClientNtB6_11TokenStreamB2l_E7expand1NvCs9E08dBcDM90_15zerocopy_derive18derive_from_zeroesE00EB2S_, symObjAddr: 0x1700, symBinAddr: 0x16A60, symSize: 0x2E0 }
  - { offset: 0x2B56F, size: 0x8, addend: 0x0, symName: __RINvNtNtCscKtU6MdFI5n_10proc_macro6bridge6client10run_clientNtB2_11TokenStreamINtNtCsieiGu2EXtoJ_4core6option6OptionBW_ENCNCINvMs6_B2_INtB2_6ClientNtB6_11TokenStreamB2l_E7expand1NvCs9E08dBcDM90_15zerocopy_derive19derive_known_layoutE00EB2S_, symObjAddr: 0x19E0, symBinAddr: 0x16D40, symSize: 0x2E0 }
  - { offset: 0x2B759, size: 0x8, addend: 0x0, symName: __RINvNtNtCscKtU6MdFI5n_10proc_macro6bridge6client10run_clientNtB2_11TokenStreamINtNtCsieiGu2EXtoJ_4core6option6OptionBW_ENCNCINvMs6_B2_INtB2_6ClientNtB6_11TokenStreamB2l_E7expand1NvCs9E08dBcDM90_15zerocopy_derive21derive_try_from_bytesE00EB2S_, symObjAddr: 0x1CC0, symBinAddr: 0x17020, symSize: 0x2E0 }
  - { offset: 0x2B943, size: 0x8, addend: 0x0, symName: __RINvNtNtCscKtU6MdFI5n_10proc_macro6bridge6client10run_clientNtB2_11TokenStreamINtNtCsieiGu2EXtoJ_4core6option6OptionBW_ENCNCINvMs6_B2_INtB2_6ClientNtB6_11TokenStreamB2l_E7expand1NvCs9E08dBcDM90_15zerocopy_derive9derive_eqE00EB2S_, symObjAddr: 0x1FA0, symBinAddr: 0x17300, symSize: 0x2E0 }
  - { offset: 0x2BB80, size: 0x8, addend: 0x0, symName: __RNvXsf_NtNtCscKtU6MdFI5n_10proc_macro6bridge6clientNtB5_11TokenStreamINtNtB7_3rpc6EncodeuE6encodeCs9E08dBcDM90_15zerocopy_derive, symObjAddr: 0x5940, symBinAddr: 0x1ACA0, symSize: 0x40 }
  - { offset: 0x2BC91, size: 0x8, addend: 0x0, symName: __RNvXsi_NtNtCscKtU6MdFI5n_10proc_macro6bridge6clientNtB5_11TokenStreamINtNtB7_3rpc9DecodeMutuE6decodeCs9E08dBcDM90_15zerocopy_derive, symObjAddr: 0x5980, symBinAddr: 0x1ACE0, symSize: 0x20 }
  - { offset: 0x2BCDA, size: 0x8, addend: 0x0, symName: __RNvXsk_NtNtCscKtU6MdFI5n_10proc_macro6bridge6clientNtB5_4SpanINtNtB7_3rpc9DecodeMutuE6decodeCs9E08dBcDM90_15zerocopy_derive, symObjAddr: 0x59A0, symBinAddr: 0x1AD00, symSize: 0x20 }
  - { offset: 0x2DCF0, size: 0x8, addend: 0x0, symName: __RINvNtNtNtNtCsieiGu2EXtoJ_4core5slice4sort6shared9smallsort11insert_tailTljENvYB18_NtNtBa_3cmp10PartialOrd2ltECs9E08dBcDM90_15zerocopy_derive, symObjAddr: 0x0, symBinAddr: 0x1AD60, symSize: 0x200 }
  - { offset: 0x2EB7D, size: 0x8, addend: 0x0, symName: __RINvNtNtNtNtCsieiGu2EXtoJ_4core5slice4sort6shared9smallsort11insert_tailTljENvYB18_NtNtBa_3cmp10PartialOrd2ltECs9E08dBcDM90_15zerocopy_derive, symObjAddr: 0x0, symBinAddr: 0x1AD60, symSize: 0x200 }
  - { offset: 0x2ECD8, size: 0x8, addend: 0x0, symName: __RINvNtNtNtNtCsieiGu2EXtoJ_4core5slice4sort6shared9smallsort11insert_tailTlmENvYB18_NtNtBa_3cmp10PartialOrd2ltECs9E08dBcDM90_15zerocopy_derive, symObjAddr: 0x200, symBinAddr: 0x1AF60, symSize: 0x1F0 }
  - { offset: 0x2EE32, size: 0x8, addend: 0x0, symName: __RINvNtNtNtNtCsieiGu2EXtoJ_4core5slice4sort6shared9smallsort12sort4_stableTljENvYB19_NtNtBa_3cmp10PartialOrd2ltECs9E08dBcDM90_15zerocopy_derive, symObjAddr: 0x3F0, symBinAddr: 0x1B150, symSize: 0xC10 }
  - { offset: 0x30117, size: 0x8, addend: 0x0, symName: __RINvNtNtNtNtCsieiGu2EXtoJ_4core5slice4sort6shared9smallsort12sort8_stableTljENvYB19_NtNtBa_3cmp10PartialOrd2ltECs9E08dBcDM90_15zerocopy_derive, symObjAddr: 0x1BF0, symBinAddr: 0x1BD60, symSize: 0xA0 }
  - { offset: 0x301E2, size: 0x8, addend: 0x0, symName: __RINvNtNtNtNtCsieiGu2EXtoJ_4core5slice4sort6shared9smallsort12swap_if_lessTlmENvYB19_NtNtBa_3cmp10PartialOrd2ltECs9E08dBcDM90_15zerocopy_derive, symObjAddr: 0x20A0, symBinAddr: 0x1BE00, symSize: 0x360 }
  - { offset: 0x3077F, size: 0x8, addend: 0x0, symName: __RINvNtNtNtNtCsieiGu2EXtoJ_4core5slice4sort6shared9smallsort13sort9_optimalTlmENvYB1a_NtNtBa_3cmp10PartialOrd2ltECs9E08dBcDM90_15zerocopy_derive, symObjAddr: 0x2670, symBinAddr: 0x1C160, symSize: 0x270 }
  - { offset: 0x30806, size: 0x8, addend: 0x0, symName: __RINvNtNtNtNtCsieiGu2EXtoJ_4core5slice4sort6shared9smallsort14sort13_optimalTlmENvYB1b_NtNtBa_3cmp10PartialOrd2ltECs9E08dBcDM90_15zerocopy_derive, symObjAddr: 0x2D20, symBinAddr: 0x1C3D0, symSize: 0x440 }
  - { offset: 0x3088D, size: 0x8, addend: 0x0, symName: __RINvNtNtNtNtCsieiGu2EXtoJ_4core5slice4sort6shared9smallsort18small_sort_generalTljENvYB1f_NtNtBa_3cmp10PartialOrd2ltECs9E08dBcDM90_15zerocopy_derive, symObjAddr: 0x3160, symBinAddr: 0x1C810, symSize: 0xC0 }
  - { offset: 0x30953, size: 0x8, addend: 0x0, symName: __RINvNtNtNtNtCsieiGu2EXtoJ_4core5slice4sort6shared9smallsort18small_sort_networkTlmENvYB1f_NtNtBa_3cmp10PartialOrd2ltECs9E08dBcDM90_15zerocopy_derive, symObjAddr: 0x3540, symBinAddr: 0x1C8D0, symSize: 0x260 }
  - { offset: 0x30BD9, size: 0x8, addend: 0x0, symName: __RINvNtNtNtNtCsieiGu2EXtoJ_4core5slice4sort6shared9smallsort19bidirectional_mergeTljENvYB1g_NtNtBa_3cmp10PartialOrd2ltECs9E08dBcDM90_15zerocopy_derive, symObjAddr: 0x37A0, symBinAddr: 0x1CB30, symSize: 0x720 }
  - { offset: 0x31383, size: 0x8, addend: 0x0, symName: __RINvNtNtNtNtCsieiGu2EXtoJ_4core5slice4sort6shared9smallsort19bidirectional_mergeTlmENvYB1g_NtNtBa_3cmp10PartialOrd2ltECs9E08dBcDM90_15zerocopy_derive, symObjAddr: 0x3EC0, symBinAddr: 0x1D250, symSize: 0x700 }
  - { offset: 0x31A49, size: 0x8, addend: 0x0, symName: __RINvNtNtNtNtCsieiGu2EXtoJ_4core5slice4sort6shared9smallsort25insertion_sort_shift_leftTljENvYB1m_NtNtBa_3cmp10PartialOrd2ltECs9E08dBcDM90_15zerocopy_derive, symObjAddr: 0x45C0, symBinAddr: 0x1D950, symSize: 0xB0 }
  - { offset: 0x31B86, size: 0x8, addend: 0x0, symName: __RINvNtNtNtNtCsieiGu2EXtoJ_4core5slice4sort6shared9smallsort25insertion_sort_shift_leftTlmENvYB1m_NtNtBa_3cmp10PartialOrd2ltECs9E08dBcDM90_15zerocopy_derive, symObjAddr: 0x4670, symBinAddr: 0x1DA00, symSize: 0xB0 }
  - { offset: 0x31CC3, size: 0x8, addend: 0x0, symName: __RINvNtNtNtNtCsieiGu2EXtoJ_4core5slice4sort6shared9smallsort31small_sort_general_with_scratchTljENvYB1s_NtNtBa_3cmp10PartialOrd2ltECs9E08dBcDM90_15zerocopy_derive, symObjAddr: 0x4720, symBinAddr: 0x1DAB0, symSize: 0x700 }
  - { offset: 0x321A2, size: 0x8, addend: 0x0, symName: __RNvXs5_NtNtNtNtCsieiGu2EXtoJ_4core5slice4sort6shared9smallsortINtB5_10CopyOnDropTljEENtNtNtBd_3ops4drop4Drop4dropCs9E08dBcDM90_15zerocopy_derive, symObjAddr: 0x5510, symBinAddr: 0x1E1B0, symSize: 0x70 }
  - { offset: 0x32203, size: 0x8, addend: 0x0, symName: __RNvXs5_NtNtNtNtCsieiGu2EXtoJ_4core5slice4sort6shared9smallsortINtB5_10CopyOnDropTlmEENtNtNtBd_3ops4drop4Drop4dropCs9E08dBcDM90_15zerocopy_derive, symObjAddr: 0x5580, symBinAddr: 0x1E220, symSize: 0x70 }
  - { offset: 0x3301B, size: 0x8, addend: 0x0, symName: __RINvCsdGrGZaRBwMb_3syn5parseNtNtB2_6derive11DeriveInputECs9E08dBcDM90_15zerocopy_derive, symObjAddr: 0x0, symBinAddr: 0x1E290, symSize: 0x30 }
  - { offset: 0x330F7, size: 0x8, addend: 0x0, symName: __RNCNvXs1_NtNtNtCsHUR1vrdMJt_3std2io5error14repr_bitpackedNtB7_4ReprNtNtNtCsieiGu2EXtoJ_4core3ops4drop4Drop4drop0Cs9E08dBcDM90_15zerocopy_derive, symObjAddr: 0x18A0, symBinAddr: 0x1FB30, symSize: 0x30 }
  - { offset: 0x331AC, size: 0x8, addend: 0x0, symName: __RNvXs1_NtNtNtCsHUR1vrdMJt_3std2io5error14repr_bitpackedNtB5_4ReprNtNtNtCsieiGu2EXtoJ_4core3ops4drop4Drop4dropCs9E08dBcDM90_15zerocopy_derive, symObjAddr: 0x5E10, symBinAddr: 0x24080, symSize: 0x30 }
  - { offset: 0x331D5, size: 0x8, addend: 0x0, symName: __RINvNtNtNtCsHUR1vrdMJt_3std2io5error14repr_bitpacked11decode_reprINtNtCslJiobkLta79_5alloc5boxed3BoxNtB4_6CustomENCNvXs1_B2_NtB2_4ReprNtNtNtCsieiGu2EXtoJ_4core3ops4drop4Drop4drop0ECs9E08dBcDM90_15zerocopy_derive, symObjAddr: 0x2F0, symBinAddr: 0x1E580, symSize: 0x200 }
  - { offset: 0x33436, size: 0x8, addend: 0x0, symName: __RNvNtNtNtCsHUR1vrdMJt_3std2io5error14repr_bitpacked14kind_from_primCs9E08dBcDM90_15zerocopy_derive, symObjAddr: 0x5260, symBinAddr: 0x234D0, symSize: 0x5B0 }
  - { offset: 0x37C0F, size: 0x8, addend: 0x0, symName: __RNvXs1_NtCsieiGu2EXtoJ_4core7convertINtNtCs9E08dBcDM90_15zerocopy_derive4repr17FromRawReprsErrorNtBB_20UnsupportedReprErrorEINtB5_4IntoNtBB_14FromAttrsErrorE4intoBD_, symObjAddr: 0x5DC0, symBinAddr: 0x24030, symSize: 0x30 }
  - { offset: 0x37C4F, size: 0x8, addend: 0x0, symName: __RNvXs1_NtCsieiGu2EXtoJ_4core7convertNtNtCs9E08dBcDM90_15zerocopy_derive4repr21UnrecognizedReprErrorINtB5_4IntoNtBA_14FromAttrsErrorE4intoBC_, symObjAddr: 0x5DF0, symBinAddr: 0x24060, symSize: 0x20 }
  - { offset: 0x37CA5, size: 0x8, addend: 0x0, symName: __RNvNvXs0_NtNtCsieiGu2EXtoJ_4core5slice5indexjINtB7_10SliceIndexSpE13get_unchecked18precondition_checkCs9E08dBcDM90_15zerocopy_derive, symObjAddr: 0x5810, symBinAddr: 0x23A80, symSize: 0xA0 }
  - { offset: 0x37D19, size: 0x8, addend: 0x0, symName: __RNvNvXs1_NtNtCsieiGu2EXtoJ_4core5slice5indexNtNtNtBb_3ops11index_range10IndexRangeINtB7_10SliceIndexSpE17get_unchecked_mut18precondition_checkCs9E08dBcDM90_15zerocopy_derive, symObjAddr: 0x58B0, symBinAddr: 0x23B20, symSize: 0xA0 }
  - { offset: 0x37D8D, size: 0x8, addend: 0x0, symName: __RNvNvXs2_NtNtCsieiGu2EXtoJ_4core5slice5indexINtNtNtBb_3ops5range5RangejEINtB7_10SliceIndexSpE17get_unchecked_mut18precondition_checkCs9E08dBcDM90_15zerocopy_derive, symObjAddr: 0x5950, symBinAddr: 0x23BC0, symSize: 0xC0 }
  - { offset: 0x37FF5, size: 0x8, addend: 0x0, symName: __RNvXs1_NtNtNtCsieiGu2EXtoJ_4core3ops8function5implsQNCNvMsa_NtCs9E08dBcDM90_15zerocopy_derive4reprINtBW_4ReprNtBW_13PrimitiveReprINtNtNtBb_3num7nonzero7NonZeromEE16from_attrs_inner0INtB7_5FnMutTRINtNtBW_4util7SpannedNtBW_7RawReprEEE8call_mutBY_, symObjAddr: 0x5E40, symBinAddr: 0x240B0, symSize: 0x30 }
  - { offset: 0x38044, size: 0x8, addend: 0x0, symName: __RNvXs1_NtNtNtCsieiGu2EXtoJ_4core3ops8function5implsQNCNvMsa_NtCs9E08dBcDM90_15zerocopy_derive4reprINtBW_4ReprNtBW_13PrimitiveReprNtNtBb_7convert10InfallibleE16from_attrs_inner0INtB7_5FnMutTRINtNtBW_4util7SpannedNtBW_7RawReprEEE8call_mutBY_, symObjAddr: 0x5E70, symBinAddr: 0x240E0, symSize: 0x30 }
  - { offset: 0x38093, size: 0x8, addend: 0x0, symName: __RNvXs1_NtNtNtCsieiGu2EXtoJ_4core3ops8function5implsQNCNvMsa_NtCs9E08dBcDM90_15zerocopy_derive4reprINtBW_4ReprNtNtBb_7convert10InfallibleINtNtNtBb_3num7nonzero7NonZeromEE16from_attrs_inner0INtB7_5FnMutTRINtNtBW_4util7SpannedNtBW_7RawReprEEE8call_mutBY_, symObjAddr: 0x5EA0, symBinAddr: 0x24110, symSize: 0x30 }
  - { offset: 0x38712, size: 0x8, addend: 0x0, symName: __RNvXNtNtCscKtU6MdFI5n_10proc_macro6bridge3rpcuINtB2_6EncodeuE6encodeCs9E08dBcDM90_15zerocopy_derive, symObjAddr: 0x5AA0, symBinAddr: 0x23D10, symSize: 0x10 }
  - { offset: 0x3878B, size: 0x8, addend: 0x0, symName: __RNvXsa_NtNtCscKtU6MdFI5n_10proc_macro6bridge3rpcRShINtB5_6EncodeuE6encodeCs9E08dBcDM90_15zerocopy_derive, symObjAddr: 0x6210, symBinAddr: 0x24480, symSize: 0xD0 }
  - { offset: 0x38893, size: 0x8, addend: 0x0, symName: __RNvXsc_NtNtCscKtU6MdFI5n_10proc_macro6bridge3rpcReINtB5_6EncodeuE6encodeCs9E08dBcDM90_15zerocopy_derive, symObjAddr: 0x62E0, symBinAddr: 0x24550, symSize: 0x30 }
  - { offset: 0x3897B, size: 0x8, addend: 0x0, symName: __RNvXsl_NtNtCscKtU6MdFI5n_10proc_macro6bridge3rpcNtB5_12PanicMessageINtB5_6EncodeuE6encodeCs9E08dBcDM90_15zerocopy_derive, symObjAddr: 0x6FE0, symBinAddr: 0x25250, symSize: 0x130 }
  - { offset: 0x38B4B, size: 0x8, addend: 0x0, symName: __RNvXso_NtNtCscKtU6MdFI5n_10proc_macro6bridge3rpcmINtB5_9DecodeMutuE6decodeCs9E08dBcDM90_15zerocopy_derive, symObjAddr: 0x7110, symBinAddr: 0x25380, symSize: 0x140 }
  - { offset: 0x38E83, size: 0x8, addend: 0x0, symName: __RINvXsa_NtCsaKzlTDPUHDb_11proc_macro28fallbackNtB6_11TokenStreamINtNtNtNtCsieiGu2EXtoJ_4core4iter6traits7collect6ExtendNtB8_9TokenTreeE6extendNtB8_11TokenStreamECs9E08dBcDM90_15zerocopy_derive, symObjAddr: 0x5A0, symBinAddr: 0x1E830, symSize: 0xC0 }
  - { offset: 0x38EEA, size: 0x8, addend: 0x0, symName: __RNCINvXsa_NtCsaKzlTDPUHDb_11proc_macro28fallbackNtB8_11TokenStreamINtNtNtNtCsieiGu2EXtoJ_4core4iter6traits7collect6ExtendNtBa_9TokenTreeE6extendNtBa_11TokenStreamE0Cs9E08dBcDM90_15zerocopy_derive, symObjAddr: 0x12B0, symBinAddr: 0x1F540, symSize: 0xA0 }
  - { offset: 0x38F37, size: 0x8, addend: 0x0, symName: __RINvXsb_NtCsaKzlTDPUHDb_11proc_macro28fallbackNtB6_11TokenStreamINtNtNtNtCsieiGu2EXtoJ_4core4iter6traits7collect6ExtendBI_E6extendINtNtNtB17_8adapters3map3MapIB25_INtNtNtB19_5array4iter8IntoIterNtB8_11TokenStreamKj2_ENCINvXsb_B8_B36_INtB13_12FromIteratorB36_E9from_iterB2B_E0ENCINvXs6_NtB8_3impNtB4z_11TokenStreamIB3K_B4I_E9from_iterB2w_Es_0EECs9E08dBcDM90_15zerocopy_derive, symObjAddr: 0x660, symBinAddr: 0x1E8F0, symSize: 0xF0 }
  - { offset: 0x39018, size: 0x8, addend: 0x0, symName: __RNvXss_NtCsaKzlTDPUHDb_11proc_macro28fallbackNtB5_11TokenStreamNtNtCsieiGu2EXtoJ_4core5clone5Clone5cloneCs9E08dBcDM90_15zerocopy_derive, symObjAddr: 0x7250, symBinAddr: 0x254C0, symSize: 0x20 }
  - { offset: 0x39527, size: 0x8, addend: 0x0, symName: __RINvNtCs9E08dBcDM90_15zerocopy_derive4repr18try_from_raw_reprsNtB2_20UnsupportedReprErrorINtB2_12CompoundReprNtB2_13PrimitiveReprEINtNtNtCsieiGu2EXtoJ_4core5slice4iter4IterINtNtB2_4util7SpannedNtB2_7RawReprEEEB4_, symObjAddr: 0x30, symBinAddr: 0x1E2C0, symSize: 0x80 }
  - { offset: 0x39570, size: 0x8, addend: 0x0, symName: __RINvNtCs9E08dBcDM90_15zerocopy_derive4repr18try_from_raw_reprsNtB2_20UnsupportedReprErrorINtB2_12CompoundReprNtNtCsieiGu2EXtoJ_4core7convert10InfallibleEINtNtNtB1N_5slice4iter4IterINtNtB2_4util7SpannedNtB2_7RawReprEEEB4_, symObjAddr: 0xB0, symBinAddr: 0x1E340, symSize: 0x80 }
  - { offset: 0x395B9, size: 0x8, addend: 0x0, symName: __RINvNtCs9E08dBcDM90_15zerocopy_derive4repr18try_from_raw_reprsNtB2_20UnsupportedReprErrorINtB2_9AlignReprINtNtNtCsieiGu2EXtoJ_4core3num7nonzero7NonZeromEEINtNtNtB1M_5slice4iter4IterINtNtB2_4util7SpannedNtB2_7RawReprEEEB4_, symObjAddr: 0x130, symBinAddr: 0x1E3C0, symSize: 0x80 }
  - { offset: 0x39602, size: 0x8, addend: 0x0, symName: __RINvNtCs9E08dBcDM90_15zerocopy_derive4repr18try_from_raw_reprsNtB2_20UnsupportedReprErrorINtB2_9AlignReprNtNtCsieiGu2EXtoJ_4core7convert10InfallibleEINtNtNtB1J_5slice4iter4IterINtNtB2_4util7SpannedNtB2_7RawReprEEEB4_, symObjAddr: 0x1B0, symBinAddr: 0x1E440, symSize: 0x80 }
  - { offset: 0x39655, size: 0x8, addend: 0x0, symName: __RINvXs1_NtNtCs9E08dBcDM90_15zerocopy_derive4repr4utilNtB8_13PrimitiveReprINtB6_4WithBP_E11try_with_orNtB8_20UnsupportedReprErrorNCNvXs5_B8_INtB8_12CompoundReprBP_EINtNtCsieiGu2EXtoJ_4core7convert7TryFromNtB8_7RawReprE8try_from0EBa_, symObjAddr: 0x4F0, symBinAddr: 0x1E780, symSize: 0x40 }
  - { offset: 0x396AD, size: 0x8, addend: 0x0, symName: __RINvXs1_NtNtCs9E08dBcDM90_15zerocopy_derive4repr4utilNtB8_13PrimitiveReprINtB6_4WithBP_E4withReNCNvMB8_INtB8_4ReprBP_NtNtCsieiGu2EXtoJ_4core7convert10InfallibleE14repr_type_name0EBa_, symObjAddr: 0x530, symBinAddr: 0x1E7C0, symSize: 0x30 }
  - { offset: 0x39705, size: 0x8, addend: 0x0, symName: __RINvXs1_NtNtCs9E08dBcDM90_15zerocopy_derive4repr4utilNtB8_13PrimitiveReprINtB6_4WithBP_E4withuNCNvXs2_B8_INtB6_7SpannedINtB8_12CompoundReprBP_EENtNtCs9OU1sGv5X54_5quote9to_tokens8ToTokens9to_tokens0EBa_, symObjAddr: 0x560, symBinAddr: 0x1E7F0, symSize: 0x40 }
  - { offset: 0x398DA, size: 0x8, addend: 0x0, symName: __RNCINvNtCs9E08dBcDM90_15zerocopy_derive4repr18try_from_raw_reprsNtB4_20UnsupportedReprErrorINtB4_12CompoundReprNtB4_13PrimitiveReprEINtNtNtCsieiGu2EXtoJ_4core5slice4iter4IterINtNtB4_4util7SpannedNtB4_7RawReprEEE0B6_, symObjAddr: 0x750, symBinAddr: 0x1E9E0, symSize: 0x2B0 }
  - { offset: 0x399D5, size: 0x8, addend: 0x0, symName: __RNCINvNtCs9E08dBcDM90_15zerocopy_derive4repr18try_from_raw_reprsNtB4_20UnsupportedReprErrorINtB4_12CompoundReprNtNtCsieiGu2EXtoJ_4core7convert10InfallibleEINtNtNtB1P_5slice4iter4IterINtNtB4_4util7SpannedNtB4_7RawReprEEE0B6_, symObjAddr: 0xA00, symBinAddr: 0x1EC90, symSize: 0x2C0 }
  - { offset: 0x39AD0, size: 0x8, addend: 0x0, symName: __RNCINvNtCs9E08dBcDM90_15zerocopy_derive4repr18try_from_raw_reprsNtB4_20UnsupportedReprErrorINtB4_9AlignReprINtNtNtCsieiGu2EXtoJ_4core3num7nonzero7NonZeromEEINtNtNtB1O_5slice4iter4IterINtNtB4_4util7SpannedNtB4_7RawReprEEE0B6_, symObjAddr: 0xCC0, symBinAddr: 0x1EF50, symSize: 0x340 }
  - { offset: 0x39BCD, size: 0x8, addend: 0x0, symName: __RNCINvNtCs9E08dBcDM90_15zerocopy_derive4repr18try_from_raw_reprsNtB4_20UnsupportedReprErrorINtB4_9AlignReprNtNtCsieiGu2EXtoJ_4core7convert10InfallibleEINtNtNtB1L_5slice4iter4IterINtNtB4_4util7SpannedNtB4_7RawReprEEE0B6_, symObjAddr: 0x1000, symBinAddr: 0x1F290, symSize: 0x2B0 }
  - { offset: 0x39CF4, size: 0x8, addend: 0x0, symName: __RNCNCNvMsc_NtCs9E08dBcDM90_15zerocopy_derive4reprNtB9_7RawRepr9from_meta00Bb_, symObjAddr: 0x1350, symBinAddr: 0x1F5E0, symSize: 0x60 }
  - { offset: 0x39D2D, size: 0x8, addend: 0x0, symName: __RNCNCNvMsc_NtCs9E08dBcDM90_15zerocopy_derive4reprNtB9_7RawRepr9from_meta0s0_0Bb_, symObjAddr: 0x13B0, symBinAddr: 0x1F640, symSize: 0x80 }
  - { offset: 0x39DA2, size: 0x8, addend: 0x0, symName: __RNCNCNvMsc_NtCs9E08dBcDM90_15zerocopy_derive4reprNtB9_7RawRepr9from_meta0s_0Bb_, symObjAddr: 0x1430, symBinAddr: 0x1F6C0, symSize: 0x20 }
  - { offset: 0x39DEA, size: 0x8, addend: 0x0, symName: __RNCNvMsc_NtCs9E08dBcDM90_15zerocopy_derive4reprNtB7_7RawRepr9from_meta0B9_, symObjAddr: 0x1850, symBinAddr: 0x1FAE0, symSize: 0x50 }
  - { offset: 0x39E30, size: 0x8, addend: 0x0, symName: __RNCNvMsc_NtCs9E08dBcDM90_15zerocopy_derive4reprNtB7_7RawRepr10from_attrs0B9_, symObjAddr: 0x17D0, symBinAddr: 0x1FA60, symSize: 0x50 }
  - { offset: 0x39E6F, size: 0x8, addend: 0x0, symName: __RNCNvMsc_NtCs9E08dBcDM90_15zerocopy_derive4reprNtB7_7RawRepr10from_attrss_0B9_, symObjAddr: 0x1820, symBinAddr: 0x1FAB0, symSize: 0x30 }
  - { offset: 0x39EC6, size: 0x8, addend: 0x0, symName: __RNCNvMNtCs9E08dBcDM90_15zerocopy_derive4reprINtB4_4ReprNtB4_13PrimitiveReprNtNtCsieiGu2EXtoJ_4core7convert10InfallibleE14repr_type_name0B6_, symObjAddr: 0x1450, symBinAddr: 0x1F6E0, symSize: 0x1D0 }
  - { offset: 0x39F1B, size: 0x8, addend: 0x0, symName: __RNCNvMNtCs9E08dBcDM90_15zerocopy_derive4reprINtB4_4ReprNtB4_13PrimitiveReprNtNtCsieiGu2EXtoJ_4core7convert10InfallibleE32unaligned_validate_no_align_gt_10B6_, symObjAddr: 0x1620, symBinAddr: 0x1F8B0, symSize: 0x30 }
  - { offset: 0x39F63, size: 0x8, addend: 0x0, symName: __RNCNvMNtCs9E08dBcDM90_15zerocopy_derive4reprINtB4_4ReprNtNtCsieiGu2EXtoJ_4core7convert10InfallibleINtNtNtBV_3num7nonzero7NonZeromEE32unaligned_validate_no_align_gt_10B6_, symObjAddr: 0x1680, symBinAddr: 0x1F910, symSize: 0x30 }
  - { offset: 0x39FBF, size: 0x8, addend: 0x0, symName: __RNCNvMNtCs9E08dBcDM90_15zerocopy_derive4reprINtB4_4ReprNtNtCsieiGu2EXtoJ_4core7convert10InfallibleINtNtNtBV_3num7nonzero7NonZeromEE13is_align_gt_10B6_, symObjAddr: 0x1650, symBinAddr: 0x1F8E0, symSize: 0x30 }
  - { offset: 0x3A01A, size: 0x8, addend: 0x0, symName: __RNCNvMs_NtCs9E08dBcDM90_15zerocopy_derive4reprINtB6_4ReprNtNtCsieiGu2EXtoJ_4core7convert10InfallibleINtNtNtBX_3num7nonzero7NonZeromEE11is_packed_10B8_, symObjAddr: 0x16B0, symBinAddr: 0x1F940, symSize: 0x30 }
  - { offset: 0x3A06C, size: 0x8, addend: 0x0, symName: __RNCNvMsa_NtCs9E08dBcDM90_15zerocopy_derive4reprINtB7_4ReprNtB7_13PrimitiveReprINtNtNtCsieiGu2EXtoJ_4core3num7nonzero7NonZeromEE16from_attrs_inner0B9_, symObjAddr: 0x16E0, symBinAddr: 0x1F970, symSize: 0x50 }
  - { offset: 0x3A0D9, size: 0x8, addend: 0x0, symName: __RNCNvMsa_NtCs9E08dBcDM90_15zerocopy_derive4reprINtB7_4ReprNtB7_13PrimitiveReprNtNtCsieiGu2EXtoJ_4core7convert10InfallibleE16from_attrs_inner0B9_, symObjAddr: 0x1730, symBinAddr: 0x1F9C0, symSize: 0x50 }
  - { offset: 0x3A146, size: 0x8, addend: 0x0, symName: __RNCNvMsa_NtCs9E08dBcDM90_15zerocopy_derive4reprINtB7_4ReprNtNtCsieiGu2EXtoJ_4core7convert10InfallibleINtNtNtBY_3num7nonzero7NonZeromEE16from_attrs_inner0B9_, symObjAddr: 0x1780, symBinAddr: 0x1FA10, symSize: 0x50 }
  - { offset: 0x3A1D4, size: 0x8, addend: 0x0, symName: __RNCNvXs2_NtCs9E08dBcDM90_15zerocopy_derive4reprINtNtB7_4util7SpannedINtB7_12CompoundReprNtB7_13PrimitiveReprEENtNtCs9OU1sGv5X54_5quote9to_tokens8ToTokens9to_tokens0B9_, symObjAddr: 0x18D0, symBinAddr: 0x1FB60, symSize: 0x50 }
  - { offset: 0x3A251, size: 0x8, addend: 0x0, symName: __RNCNvXs4_NtCs9E08dBcDM90_15zerocopy_derive4reprINtNtB7_4util7SpannedINtB7_9AlignReprINtNtNtCsieiGu2EXtoJ_4core3num7nonzero7NonZeromEEENtNtCs9OU1sGv5X54_5quote9to_tokens8ToTokens9to_tokens0B9_, symObjAddr: 0x1920, symBinAddr: 0x1FBB0, symSize: 0x40 }
  - { offset: 0x3A297, size: 0x8, addend: 0x0, symName: __RNCNvXs4_NtCs9E08dBcDM90_15zerocopy_derive4reprINtNtB7_4util7SpannedINtB7_9AlignReprINtNtNtCsieiGu2EXtoJ_4core3num7nonzero7NonZeromEEENtNtCs9OU1sGv5X54_5quote9to_tokens8ToTokens9to_tokenss_0B9_, symObjAddr: 0x1960, symBinAddr: 0x1FBF0, symSize: 0x340 }
  - { offset: 0x3A3EE, size: 0x8, addend: 0x0, symName: __RNCNvXs5_NtCs9E08dBcDM90_15zerocopy_derive4reprINtB7_12CompoundReprNtB7_13PrimitiveReprEINtNtCsieiGu2EXtoJ_4core7convert7TryFromNtB7_7RawReprE8try_from0B9_, symObjAddr: 0x1CA0, symBinAddr: 0x1FF30, symSize: 0x130 }
  - { offset: 0x3A43B, size: 0x8, addend: 0x0, symName: __RNvXs5_NtCs9E08dBcDM90_15zerocopy_derive4reprINtB5_12CompoundReprNtB5_13PrimitiveReprEINtNtCsieiGu2EXtoJ_4core7convert7TryFromNtB5_7RawReprE8try_fromB7_, symObjAddr: 0x5ED0, symBinAddr: 0x24140, symSize: 0xF0 }
  - { offset: 0x3A490, size: 0x8, addend: 0x0, symName: __RNvXs5_NtCs9E08dBcDM90_15zerocopy_derive4reprINtB5_12CompoundReprNtNtCsieiGu2EXtoJ_4core7convert10InfallibleEINtB13_7TryFromNtB5_7RawReprE8try_fromB7_, symObjAddr: 0x5FC0, symBinAddr: 0x24230, symSize: 0xF0 }
  - { offset: 0x3A4F0, size: 0x8, addend: 0x0, symName: __RNCNvXs6_NtCs9E08dBcDM90_15zerocopy_derive4reprINtB7_9AlignReprINtNtNtCsieiGu2EXtoJ_4core3num7nonzero7NonZeromEEINtNtB16_7convert7TryFromNtB7_7RawReprE8try_from0B9_, symObjAddr: 0x1DD0, symBinAddr: 0x20060, symSize: 0xA0 }
  - { offset: 0x3A566, size: 0x8, addend: 0x0, symName: __RNvXs6_NtCs9E08dBcDM90_15zerocopy_derive4reprINtB5_9AlignReprINtNtNtCsieiGu2EXtoJ_4core3num7nonzero7NonZeromEEINtNtB14_7convert7TryFromNtB5_7RawReprE8try_fromB7_, symObjAddr: 0x60B0, symBinAddr: 0x24320, symSize: 0xA0 }
  - { offset: 0x3A5BB, size: 0x8, addend: 0x0, symName: __RNvXs6_NtCs9E08dBcDM90_15zerocopy_derive4reprINtB5_9AlignReprNtNtCsieiGu2EXtoJ_4core7convert10InfallibleEINtBZ_7TryFromNtB5_7RawReprE8try_fromB7_, symObjAddr: 0x6150, symBinAddr: 0x243C0, symSize: 0x90 }
  - { offset: 0x3A61B, size: 0x8, addend: 0x0, symName: __RNcNtINtNtCs9E08dBcDM90_15zerocopy_derive4repr12CompoundReprNtB6_13PrimitiveReprE9Primitive0B8_, symObjAddr: 0x1E70, symBinAddr: 0x20100, symSize: 0x10 }
  - { offset: 0x3A658, size: 0x8, addend: 0x0, symName: __RNcNtINtNtCs9E08dBcDM90_15zerocopy_derive4repr16FromRawReprErrorNtB6_20UnsupportedReprErrorE3Err0B8_, symObjAddr: 0x1E90, symBinAddr: 0x20110, symSize: 0x10 }
  - { offset: 0x3A697, size: 0x8, addend: 0x0, symName: __RNcNtINtNtCs9E08dBcDM90_15zerocopy_derive4repr9AlignReprINtNtNtCsieiGu2EXtoJ_4core3num7nonzero7NonZeromEEs_6Packed0B8_, symObjAddr: 0x1EA0, symBinAddr: 0x20120, symSize: 0x10 }
  - { offset: 0x3B04D, size: 0x8, addend: 0x0, symName: __RNvXs1_NtCs9E08dBcDM90_15zerocopy_derive4reprINtB5_4ReprNtNtCsieiGu2EXtoJ_4core7convert10InfallibleINtNtNtBW_3num7nonzero7NonZeromEENtNtCs9OU1sGv5X54_5quote9to_tokens8ToTokens9to_tokensB7_, symObjAddr: 0x5AB0, symBinAddr: 0x23D20, symSize: 0x310 }
  - { offset: 0x3B18C, size: 0x8, addend: 0x0, symName: __RNvXs7_NtCs9E08dBcDM90_15zerocopy_derive4reprNtB5_14FromAttrsErrorINtNtCsieiGu2EXtoJ_4core7convert4FromINtB5_17FromRawReprsErrorNtB5_20UnsupportedReprErrorEE4from, symObjAddr: 0x61E0, symBinAddr: 0x24450, symSize: 0x20 }
  - { offset: 0x3B1C0, size: 0x8, addend: 0x0, symName: __RNvXs8_NtCs9E08dBcDM90_15zerocopy_derive4reprNtB5_14FromAttrsErrorINtNtCsieiGu2EXtoJ_4core7convert4FromNtB5_21UnrecognizedReprErrorE4from, symObjAddr: 0x6200, symBinAddr: 0x24470, symSize: 0x10 }
  - { offset: 0x3B29F, size: 0x8, addend: 0x0, symName: __RINvCsdGrGZaRBwMb_3syn5parseNtNtB2_6derive11DeriveInputECs9E08dBcDM90_15zerocopy_derive, symObjAddr: 0x0, symBinAddr: 0x1E290, symSize: 0x30 }
  - { offset: 0x3B2DB, size: 0x8, addend: 0x0, symName: __RINvNtCsdGrGZaRBwMb_3syn5parse12parse_scopedNCINvNtB4_4meta6parserNCNvMNtCs9E08dBcDM90_15zerocopy_derive4utilNtB17_3Ctx21try_from_derive_input0E0EB19_, symObjAddr: 0x230, symBinAddr: 0x1E4C0, symSize: 0x30 }
  - { offset: 0x3B332, size: 0x8, addend: 0x0, symName: __RINvNtCsdGrGZaRBwMb_3syn5parse12parse_scopedNvMNtB4_10punctuatedINtBJ_10PunctuatedNtNtB4_4attr4MetaNtNtB4_5token5CommaE16parse_terminatedECs9E08dBcDM90_15zerocopy_derive, symObjAddr: 0x260, symBinAddr: 0x1E4F0, symSize: 0x30 }
  - { offset: 0x3B388, size: 0x8, addend: 0x0, symName: __RINvNtCsdGrGZaRBwMb_3syn5parse12parse_scopedNvYNtCsaKzlTDPUHDb_11proc_macro25IdentNtB2_5Parse5parseECs9E08dBcDM90_15zerocopy_derive, symObjAddr: 0x290, symBinAddr: 0x1E520, symSize: 0x30 }
  - { offset: 0x3B3DE, size: 0x8, addend: 0x0, symName: __RINvNtCsdGrGZaRBwMb_3syn5parse12parse_scopedNvYNtNtB4_3lit6LitIntNtB2_5Parse5parseECs9E08dBcDM90_15zerocopy_derive, symObjAddr: 0x2C0, symBinAddr: 0x1E550, symSize: 0x30 }
  - { offset: 0x3B439, size: 0x8, addend: 0x0, symName: __RNvXsh_NtCsdGrGZaRBwMb_3syn5parseNvYNtCsaKzlTDPUHDb_11proc_macro25IdentNtB5_5Parse5parseNtB5_6Parser14___parse_scopedCs9E08dBcDM90_15zerocopy_derive, symObjAddr: 0x6310, symBinAddr: 0x24580, symSize: 0x4A0 }
  - { offset: 0x3B585, size: 0x8, addend: 0x0, symName: __RNvXsh_NtCsdGrGZaRBwMb_3syn5parseNvYNtNtB7_3lit6LitIntNtB5_5Parse5parseNtB5_6Parser14___parse_scopedCs9E08dBcDM90_15zerocopy_derive, symObjAddr: 0x67B0, symBinAddr: 0x24A20, symSize: 0x430 }
  - { offset: 0x3B6D1, size: 0x8, addend: 0x0, symName: __RNvXsh_NtCsdGrGZaRBwMb_3syn5parseNvYNtNtB7_6derive11DeriveInputNtB5_5Parse5parseNtB5_6Parser6parse2Cs9E08dBcDM90_15zerocopy_derive, symObjAddr: 0x6BE0, symBinAddr: 0x24E50, symSize: 0x400 }
  - { offset: 0x3B7E8, size: 0x8, addend: 0x0, symName: __RNvYNvYNtNtCsdGrGZaRBwMb_3syn6derive11DeriveInputNtNtB9_5parse5Parse5parseNtBN_6Parser5parseCs9E08dBcDM90_15zerocopy_derive, symObjAddr: 0x7270, symBinAddr: 0x254E0, symSize: 0x70 }
  - { offset: 0x405E8, size: 0x8, addend: 0x0, symName: __RNvXNtCsdGrGZaRBwMb_3syn11parse_quoteNtNtB4_2ty4TypeNtB2_10ParseQuote5parseCs9E08dBcDM90_15zerocopy_derive, symObjAddr: 0x5A70, symBinAddr: 0x23CE0, symSize: 0x30 }
  - { offset: 0x41AEA, size: 0x8, addend: 0x0, symName: __RNvMNtCs9E08dBcDM90_15zerocopy_derive4reprINtB2_4ReprNtB2_13PrimitiveReprINtNtNtCsieiGu2EXtoJ_4core3num7nonzero7NonZeromEE10get_packedB4_, symObjAddr: 0x1EC0, symBinAddr: 0x20130, symSize: 0x90 }
  - { offset: 0x41B33, size: 0x8, addend: 0x0, symName: __RNvMNtCs9E08dBcDM90_15zerocopy_derive4reprINtB2_4ReprNtB2_13PrimitiveReprINtNtNtCsieiGu2EXtoJ_4core3num7nonzero7NonZeromEE9get_alignB4_, symObjAddr: 0x1F50, symBinAddr: 0x201C0, symSize: 0xB0 }
  - { offset: 0x41B98, size: 0x8, addend: 0x0, symName: __RNvMNtCs9E08dBcDM90_15zerocopy_derive4reprINtB2_4ReprNtB2_13PrimitiveReprNtNtCsieiGu2EXtoJ_4core7convert10InfallibleE12is_primitiveB4_, symObjAddr: 0x2000, symBinAddr: 0x20270, symSize: 0x80 }
  - { offset: 0x41BE9, size: 0x8, addend: 0x0, symName: __RNvMNtCs9E08dBcDM90_15zerocopy_derive4reprINtB2_4ReprNtB2_13PrimitiveReprNtNtCsieiGu2EXtoJ_4core7convert10InfallibleE14repr_type_nameB4_, symObjAddr: 0x2080, symBinAddr: 0x202F0, symSize: 0x110 }
  - { offset: 0x41C80, size: 0x8, addend: 0x0, symName: __RNvMNtCs9E08dBcDM90_15zerocopy_derive4reprINtB2_4ReprNtB2_13PrimitiveReprNtNtCsieiGu2EXtoJ_4core7convert10InfallibleE32unaligned_validate_no_align_gt_1B4_, symObjAddr: 0x2190, symBinAddr: 0x20400, symSize: 0xC0 }
  - { offset: 0x41CD1, size: 0x8, addend: 0x0, symName: __RNvMNtCs9E08dBcDM90_15zerocopy_derive4reprINtB2_4ReprNtB2_13PrimitiveReprNtNtCsieiGu2EXtoJ_4core7convert10InfallibleE4is_cB4_, symObjAddr: 0x2250, symBinAddr: 0x204C0, symSize: 0x80 }
  - { offset: 0x41D22, size: 0x8, addend: 0x0, symName: __RNvMNtCs9E08dBcDM90_15zerocopy_derive4reprINtB2_4ReprNtB2_13PrimitiveReprNtNtCsieiGu2EXtoJ_4core7convert10InfallibleE9get_alignB4_, symObjAddr: 0x22D0, symBinAddr: 0x20540, symSize: 0xA0 }
  - { offset: 0x41D87, size: 0x8, addend: 0x0, symName: __RNvMNtCs9E08dBcDM90_15zerocopy_derive4reprINtB2_4ReprNtNtCsieiGu2EXtoJ_4core7convert10InfallibleINtNtNtBT_3num7nonzero7NonZeromEE10get_packedB4_, symObjAddr: 0x2370, symBinAddr: 0x205E0, symSize: 0x90 }
  - { offset: 0x41DD0, size: 0x8, addend: 0x0, symName: __RNvMNtCs9E08dBcDM90_15zerocopy_derive4reprINtB2_4ReprNtNtCsieiGu2EXtoJ_4core7convert10InfallibleINtNtNtBT_3num7nonzero7NonZeromEE13is_align_gt_1B4_, symObjAddr: 0x2400, symBinAddr: 0x20670, symSize: 0x40 }
  - { offset: 0x41E04, size: 0x8, addend: 0x0, symName: __RNvMNtCs9E08dBcDM90_15zerocopy_derive4reprINtB2_4ReprNtNtCsieiGu2EXtoJ_4core7convert10InfallibleINtNtNtBT_3num7nonzero7NonZeromEE14is_transparentB4_, symObjAddr: 0x2440, symBinAddr: 0x206B0, symSize: 0x40 }
  - { offset: 0x41E38, size: 0x8, addend: 0x0, symName: __RNvMNtCs9E08dBcDM90_15zerocopy_derive4reprINtB2_4ReprNtNtCsieiGu2EXtoJ_4core7convert10InfallibleINtNtNtBT_3num7nonzero7NonZeromEE32unaligned_validate_no_align_gt_1B4_, symObjAddr: 0x2480, symBinAddr: 0x206F0, symSize: 0xC0 }
  - { offset: 0x41E89, size: 0x8, addend: 0x0, symName: __RNvMNtCs9E08dBcDM90_15zerocopy_derive4reprINtB2_4ReprNtNtCsieiGu2EXtoJ_4core7convert10InfallibleINtNtNtBT_3num7nonzero7NonZeromEE4is_cB4_, symObjAddr: 0x2540, symBinAddr: 0x207B0, symSize: 0x70 }
  - { offset: 0x41EDA, size: 0x8, addend: 0x0, symName: __RNvMNtCs9E08dBcDM90_15zerocopy_derive4reprINtB2_4ReprNtNtCsieiGu2EXtoJ_4core7convert10InfallibleINtNtNtBT_3num7nonzero7NonZeromEE9get_alignB4_, symObjAddr: 0x25B0, symBinAddr: 0x20820, symSize: 0xB0 }
  - { offset: 0x41F3F, size: 0x8, addend: 0x0, symName: __RNvMs0_NtCs9E08dBcDM90_15zerocopy_derive4reprINtB5_4ReprNtB5_13PrimitiveReprNtNtCsieiGu2EXtoJ_4core7convert10InfallibleE13get_primitiveB7_, symObjAddr: 0x2660, symBinAddr: 0x208D0, symSize: 0x90 }
  - { offset: 0x41F8E, size: 0x8, addend: 0x0, symName: __RNvMs0_NtCs9E08dBcDM90_15zerocopy_derive4reprINtB5_4ReprNtB5_13PrimitiveReprNtNtCsieiGu2EXtoJ_4core7convert10InfallibleE5is_i8B7_, symObjAddr: 0x26F0, symBinAddr: 0x20960, symSize: 0x70 }
  - { offset: 0x41FB9, size: 0x8, addend: 0x0, symName: __RNvMs0_NtCs9E08dBcDM90_15zerocopy_derive4reprINtB5_4ReprNtB5_13PrimitiveReprNtNtCsieiGu2EXtoJ_4core7convert10InfallibleE5is_u8B7_, symObjAddr: 0x2760, symBinAddr: 0x209D0, symSize: 0x70 }
  - { offset: 0x41FE4, size: 0x8, addend: 0x0, symName: __RNvMs_NtCs9E08dBcDM90_15zerocopy_derive4reprINtB4_4ReprNtNtCsieiGu2EXtoJ_4core7convert10InfallibleINtNtNtBV_3num7nonzero7NonZeromEE11is_packed_1B6_, symObjAddr: 0x27D0, symBinAddr: 0x20A40, symSize: 0x40 }
  - { offset: 0x4252A, size: 0x8, addend: 0x0, symName: __RNvMsa_NtCs9E08dBcDM90_15zerocopy_derive4reprINtB5_4ReprNtB5_13PrimitiveReprINtNtNtCsieiGu2EXtoJ_4core3num7nonzero7NonZeromEE16from_attrs_innerB7_, symObjAddr: 0x2810, symBinAddr: 0x20A80, symSize: 0x800 }
  - { offset: 0x426F0, size: 0x8, addend: 0x0, symName: __RNvMsa_NtCs9E08dBcDM90_15zerocopy_derive4reprINtB5_4ReprNtB5_13PrimitiveReprNtNtCsieiGu2EXtoJ_4core7convert10InfallibleE16from_attrs_innerB7_, symObjAddr: 0x3010, symBinAddr: 0x21280, symSize: 0x7B0 }
  - { offset: 0x428B6, size: 0x8, addend: 0x0, symName: __RNvMsa_NtCs9E08dBcDM90_15zerocopy_derive4reprINtB5_4ReprNtNtCsieiGu2EXtoJ_4core7convert10InfallibleINtNtNtBW_3num7nonzero7NonZeromEE16from_attrs_innerB7_, symObjAddr: 0x37C0, symBinAddr: 0x21A30, symSize: 0x800 }
  - { offset: 0x42A7C, size: 0x8, addend: 0x0, symName: __RNvMsb_NtCs9E08dBcDM90_15zerocopy_derive4reprINtB5_4ReprNtB5_13PrimitiveReprINtNtNtCsieiGu2EXtoJ_4core3num7nonzero7NonZeromEE10from_attrsB7_, symObjAddr: 0x3FC0, symBinAddr: 0x22230, symSize: 0x40 }
  - { offset: 0x42AB1, size: 0x8, addend: 0x0, symName: __RNvMsb_NtCs9E08dBcDM90_15zerocopy_derive4reprINtB5_4ReprNtB5_13PrimitiveReprNtNtCsieiGu2EXtoJ_4core7convert10InfallibleE10from_attrsB7_, symObjAddr: 0x4000, symBinAddr: 0x22270, symSize: 0x40 }
  - { offset: 0x42AE6, size: 0x8, addend: 0x0, symName: __RNvMsb_NtCs9E08dBcDM90_15zerocopy_derive4reprINtB5_4ReprNtNtCsieiGu2EXtoJ_4core7convert10InfallibleINtNtNtBW_3num7nonzero7NonZeromEE10from_attrsB7_, symObjAddr: 0x4040, symBinAddr: 0x222B0, symSize: 0x40 }
  - { offset: 0x42B1B, size: 0x8, addend: 0x0, symName: __RNvMsc_NtCs9E08dBcDM90_15zerocopy_derive4reprNtB5_7RawRepr10from_attrs, symObjAddr: 0x4080, symBinAddr: 0x222F0, symSize: 0x680 }
  - { offset: 0x42C46, size: 0x8, addend: 0x0, symName: __RNvMsc_NtCs9E08dBcDM90_15zerocopy_derive4reprNtB5_7RawRepr9from_meta, symObjAddr: 0x4700, symBinAddr: 0x22970, symSize: 0xB60 }
  - { offset: 0x42E49, size: 0x8, addend: 0x0, symName: __RNvXNtCs9OU1sGv5X54_5quote9to_tokensRINtNtCs9E08dBcDM90_15zerocopy_derive4repr4ReprNtNtCsieiGu2EXtoJ_4core7convert10InfallibleINtNtNtB1n_3num7nonzero7NonZeromEENtB2_8ToTokens9to_tokensBE_, symObjAddr: 0x5A10, symBinAddr: 0x23C80, symSize: 0x30 }
  - { offset: 0x42E88, size: 0x8, addend: 0x0, symName: __RNvXNtCs9OU1sGv5X54_5quote9to_tokensRRNtNtCsdGrGZaRBwMb_3syn2ty4TypeNtB2_8ToTokens9to_tokensCs9E08dBcDM90_15zerocopy_derive, symObjAddr: 0x5A40, symBinAddr: 0x23CB0, symSize: 0x30 }
  - { offset: 0x4341B, size: 0x8, addend: 0x0, symName: __RINvMNtCsdGrGZaRBwMb_3syn3litNtB3_6LitStr10parse_withNvYNtCsaKzlTDPUHDb_11proc_macro25IdentNtNtB5_5parse5Parse5parseECs9E08dBcDM90_15zerocopy_derive, symObjAddr: 0x0, symBinAddr: 0x25550, symSize: 0x5B0 }
  - { offset: 0x46718, size: 0x8, addend: 0x0, symName: __RNCINvMs3_NtCsdGrGZaRBwMb_3syn3litNtB8_6LitInt12base10_parseINtNtNtCsieiGu2EXtoJ_4core3num7nonzero7NonZeromEE0Cs9E08dBcDM90_15zerocopy_derive, symObjAddr: 0x1B00, symBinAddr: 0x26D70, symSize: 0x90 }
  - { offset: 0x46760, size: 0x8, addend: 0x0, symName: __RNCINvMs3_NtCsdGrGZaRBwMb_3syn3litNtB8_6LitInt12base10_parseoE0Cs9E08dBcDM90_15zerocopy_derive, symObjAddr: 0x1B90, symBinAddr: 0x26E00, symSize: 0x90 }
  - { offset: 0x486A1, size: 0x8, addend: 0x0, symName: __RNvXNtCsdGrGZaRBwMb_3syn7spannedNtNtB4_4attr4MetaNtB2_7Spanned4spanCs9E08dBcDM90_15zerocopy_derive, symObjAddr: 0x70C0, symBinAddr: 0x2C320, symSize: 0x20 }
  - { offset: 0x48D3E, size: 0x8, addend: 0x0, symName: __RINvNtNtNtCscKtU6MdFI5n_10proc_macro6bridge6client5state3setINtNtCsieiGu2EXtoJ_4core6option6OptionNtB4_11TokenStreamENCNCINvB4_10run_clientB1y_BW_NCNCINvMs6_B4_INtB4_6ClientNtB8_11TokenStreamB2L_E7expand1NvCs9E08dBcDM90_15zerocopy_derive11derive_hashE00E00EB3i_, symObjAddr: 0x1200, symBinAddr: 0x26470, symSize: 0xC0 }
  - { offset: 0x48E14, size: 0x8, addend: 0x0, symName: __RINvNtNtNtCscKtU6MdFI5n_10proc_macro6bridge6client5state3setINtNtCsieiGu2EXtoJ_4core6option6OptionNtB4_11TokenStreamENCNCINvB4_10run_clientB1y_BW_NCNCINvMs6_B4_INtB4_6ClientNtB8_11TokenStreamB2L_E7expand1NvCs9E08dBcDM90_15zerocopy_derive15derive_as_bytesE00E00EB3i_, symObjAddr: 0x12C0, symBinAddr: 0x26530, symSize: 0xC0 }
  - { offset: 0x48EEA, size: 0x8, addend: 0x0, symName: __RINvNtNtNtCscKtU6MdFI5n_10proc_macro6bridge6client5state3setINtNtCsieiGu2EXtoJ_4core6option6OptionNtB4_11TokenStreamENCNCINvB4_10run_clientB1y_BW_NCNCINvMs6_B4_INtB4_6ClientNtB8_11TokenStreamB2L_E7expand1NvCs9E08dBcDM90_15zerocopy_derive15derive_split_atE00E00EB3i_, symObjAddr: 0x1380, symBinAddr: 0x265F0, symSize: 0xC0 }
  - { offset: 0x48FC0, size: 0x8, addend: 0x0, symName: __RINvNtNtNtCscKtU6MdFI5n_10proc_macro6bridge6client5state3setINtNtCsieiGu2EXtoJ_4core6option6OptionNtB4_11TokenStreamENCNCINvB4_10run_clientB1y_BW_NCNCINvMs6_B4_INtB4_6ClientNtB8_11TokenStreamB2L_E7expand1NvCs9E08dBcDM90_15zerocopy_derive16derive_immutableE00E00EB3i_, symObjAddr: 0x1440, symBinAddr: 0x266B0, symSize: 0xC0 }
  - { offset: 0x49096, size: 0x8, addend: 0x0, symName: __RINvNtNtNtCscKtU6MdFI5n_10proc_macro6bridge6client5state3setINtNtCsieiGu2EXtoJ_4core6option6OptionNtB4_11TokenStreamENCNCINvB4_10run_clientB1y_BW_NCNCINvMs6_B4_INtB4_6ClientNtB8_11TokenStreamB2L_E7expand1NvCs9E08dBcDM90_15zerocopy_derive16derive_unalignedE00E00EB3i_, symObjAddr: 0x1500, symBinAddr: 0x26770, symSize: 0xC0 }
  - { offset: 0x4916C, size: 0x8, addend: 0x0, symName: __RINvNtNtNtCscKtU6MdFI5n_10proc_macro6bridge6client5state3setINtNtCsieiGu2EXtoJ_4core6option6OptionNtB4_11TokenStreamENCNCINvB4_10run_clientB1y_BW_NCNCINvMs6_B4_INtB4_6ClientNtB8_11TokenStreamB2L_E7expand1NvCs9E08dBcDM90_15zerocopy_derive17derive_from_bytesE00E00EB3i_, symObjAddr: 0x15C0, symBinAddr: 0x26830, symSize: 0xC0 }
  - { offset: 0x49242, size: 0x8, addend: 0x0, symName: __RINvNtNtNtCscKtU6MdFI5n_10proc_macro6bridge6client5state3setINtNtCsieiGu2EXtoJ_4core6option6OptionNtB4_11TokenStreamENCNCINvB4_10run_clientB1y_BW_NCNCINvMs6_B4_INtB4_6ClientNtB8_11TokenStreamB2L_E7expand1NvCs9E08dBcDM90_15zerocopy_derive17derive_from_zerosE00E00EB3i_, symObjAddr: 0x1680, symBinAddr: 0x268F0, symSize: 0xC0 }
  - { offset: 0x49318, size: 0x8, addend: 0x0, symName: __RINvNtNtNtCscKtU6MdFI5n_10proc_macro6bridge6client5state3setINtNtCsieiGu2EXtoJ_4core6option6OptionNtB4_11TokenStreamENCNCINvB4_10run_clientB1y_BW_NCNCINvMs6_B4_INtB4_6ClientNtB8_11TokenStreamB2L_E7expand1NvCs9E08dBcDM90_15zerocopy_derive17derive_into_bytesE00E00EB3i_, symObjAddr: 0x1740, symBinAddr: 0x269B0, symSize: 0xC0 }
  - { offset: 0x493EE, size: 0x8, addend: 0x0, symName: __RINvNtNtNtCscKtU6MdFI5n_10proc_macro6bridge6client5state3setINtNtCsieiGu2EXtoJ_4core6option6OptionNtB4_11TokenStreamENCNCINvB4_10run_clientB1y_BW_NCNCINvMs6_B4_INtB4_6ClientNtB8_11TokenStreamB2L_E7expand1NvCs9E08dBcDM90_15zerocopy_derive18derive_from_zeroesE00E00EB3i_, symObjAddr: 0x1800, symBinAddr: 0x26A70, symSize: 0xC0 }
  - { offset: 0x494C4, size: 0x8, addend: 0x0, symName: __RINvNtNtNtCscKtU6MdFI5n_10proc_macro6bridge6client5state3setINtNtCsieiGu2EXtoJ_4core6option6OptionNtB4_11TokenStreamENCNCINvB4_10run_clientB1y_BW_NCNCINvMs6_B4_INtB4_6ClientNtB8_11TokenStreamB2L_E7expand1NvCs9E08dBcDM90_15zerocopy_derive19derive_known_layoutE00E00EB3i_, symObjAddr: 0x18C0, symBinAddr: 0x26B30, symSize: 0xC0 }
  - { offset: 0x4959A, size: 0x8, addend: 0x0, symName: __RINvNtNtNtCscKtU6MdFI5n_10proc_macro6bridge6client5state3setINtNtCsieiGu2EXtoJ_4core6option6OptionNtB4_11TokenStreamENCNCINvB4_10run_clientB1y_BW_NCNCINvMs6_B4_INtB4_6ClientNtB8_11TokenStreamB2L_E7expand1NvCs9E08dBcDM90_15zerocopy_derive21derive_try_from_bytesE00E00EB3i_, symObjAddr: 0x1980, symBinAddr: 0x26BF0, symSize: 0xC0 }
  - { offset: 0x49670, size: 0x8, addend: 0x0, symName: __RINvNtNtNtCscKtU6MdFI5n_10proc_macro6bridge6client5state3setINtNtCsieiGu2EXtoJ_4core6option6OptionNtB4_11TokenStreamENCNCINvB4_10run_clientB1y_BW_NCNCINvMs6_B4_INtB4_6ClientNtB8_11TokenStreamB2L_E7expand1NvCs9E08dBcDM90_15zerocopy_derive9derive_eqE00E00EB3i_, symObjAddr: 0x1A40, symBinAddr: 0x26CB0, symSize: 0xC0 }
  - { offset: 0x49750, size: 0x8, addend: 0x0, symName: __RNCNkNvNtNtNtCscKtU6MdFI5n_10proc_macro6bridge6client5state12BRIDGE_STATE0s_0Cs9E08dBcDM90_15zerocopy_derive, symObjAddr: 0x1C20, symBinAddr: 0x26E90, symSize: 0x20 }
  - { offset: 0x4CF95, size: 0x8, addend: 0x0, symName: __RNvXsn_NtNtCsieiGu2EXtoJ_4core5panic11unwind_safeINtB5_16AssertUnwindSafeNCINvNtNtCscKtU6MdFI5n_10proc_macro6bridge6client10run_clientNtB1e_11TokenStreamINtNtB9_6option6OptionB28_ENCNCINvMs6_B1e_INtB1e_6ClientNtB1i_11TokenStreamB3l_E7expand1NvCs9E08dBcDM90_15zerocopy_derive11derive_hashE00E0EINtNtNtB9_3ops8function6FnOnceuE9call_onceB3T_, symObjAddr: 0x7480, symBinAddr: 0x2C6E0, symSize: 0x30 }
  - { offset: 0x4CFED, size: 0x8, addend: 0x0, symName: __RNvXsn_NtNtCsieiGu2EXtoJ_4core5panic11unwind_safeINtB5_16AssertUnwindSafeNCINvNtNtCscKtU6MdFI5n_10proc_macro6bridge6client10run_clientNtB1e_11TokenStreamINtNtB9_6option6OptionB28_ENCNCINvMs6_B1e_INtB1e_6ClientNtB1i_11TokenStreamB3l_E7expand1NvCs9E08dBcDM90_15zerocopy_derive15derive_as_bytesE00E0EINtNtNtB9_3ops8function6FnOnceuE9call_onceB3T_, symObjAddr: 0x74B0, symBinAddr: 0x2C710, symSize: 0x30 }
  - { offset: 0x4D045, size: 0x8, addend: 0x0, symName: __RNvXsn_NtNtCsieiGu2EXtoJ_4core5panic11unwind_safeINtB5_16AssertUnwindSafeNCINvNtNtCscKtU6MdFI5n_10proc_macro6bridge6client10run_clientNtB1e_11TokenStreamINtNtB9_6option6OptionB28_ENCNCINvMs6_B1e_INtB1e_6ClientNtB1i_11TokenStreamB3l_E7expand1NvCs9E08dBcDM90_15zerocopy_derive15derive_split_atE00E0EINtNtNtB9_3ops8function6FnOnceuE9call_onceB3T_, symObjAddr: 0x74E0, symBinAddr: 0x2C740, symSize: 0x30 }
  - { offset: 0x4D09D, size: 0x8, addend: 0x0, symName: __RNvXsn_NtNtCsieiGu2EXtoJ_4core5panic11unwind_safeINtB5_16AssertUnwindSafeNCINvNtNtCscKtU6MdFI5n_10proc_macro6bridge6client10run_clientNtB1e_11TokenStreamINtNtB9_6option6OptionB28_ENCNCINvMs6_B1e_INtB1e_6ClientNtB1i_11TokenStreamB3l_E7expand1NvCs9E08dBcDM90_15zerocopy_derive16derive_immutableE00E0EINtNtNtB9_3ops8function6FnOnceuE9call_onceB3T_, symObjAddr: 0x7510, symBinAddr: 0x2C770, symSize: 0x30 }
  - { offset: 0x4D0F5, size: 0x8, addend: 0x0, symName: __RNvXsn_NtNtCsieiGu2EXtoJ_4core5panic11unwind_safeINtB5_16AssertUnwindSafeNCINvNtNtCscKtU6MdFI5n_10proc_macro6bridge6client10run_clientNtB1e_11TokenStreamINtNtB9_6option6OptionB28_ENCNCINvMs6_B1e_INtB1e_6ClientNtB1i_11TokenStreamB3l_E7expand1NvCs9E08dBcDM90_15zerocopy_derive16derive_unalignedE00E0EINtNtNtB9_3ops8function6FnOnceuE9call_onceB3T_, symObjAddr: 0x7540, symBinAddr: 0x2C7A0, symSize: 0x30 }
  - { offset: 0x4D14D, size: 0x8, addend: 0x0, symName: __RNvXsn_NtNtCsieiGu2EXtoJ_4core5panic11unwind_safeINtB5_16AssertUnwindSafeNCINvNtNtCscKtU6MdFI5n_10proc_macro6bridge6client10run_clientNtB1e_11TokenStreamINtNtB9_6option6OptionB28_ENCNCINvMs6_B1e_INtB1e_6ClientNtB1i_11TokenStreamB3l_E7expand1NvCs9E08dBcDM90_15zerocopy_derive17derive_from_bytesE00E0EINtNtNtB9_3ops8function6FnOnceuE9call_onceB3T_, symObjAddr: 0x7570, symBinAddr: 0x2C7D0, symSize: 0x30 }
  - { offset: 0x4D1A5, size: 0x8, addend: 0x0, symName: __RNvXsn_NtNtCsieiGu2EXtoJ_4core5panic11unwind_safeINtB5_16AssertUnwindSafeNCINvNtNtCscKtU6MdFI5n_10proc_macro6bridge6client10run_clientNtB1e_11TokenStreamINtNtB9_6option6OptionB28_ENCNCINvMs6_B1e_INtB1e_6ClientNtB1i_11TokenStreamB3l_E7expand1NvCs9E08dBcDM90_15zerocopy_derive17derive_from_zerosE00E0EINtNtNtB9_3ops8function6FnOnceuE9call_onceB3T_, symObjAddr: 0x75A0, symBinAddr: 0x2C800, symSize: 0x30 }
  - { offset: 0x4D1FD, size: 0x8, addend: 0x0, symName: __RNvXsn_NtNtCsieiGu2EXtoJ_4core5panic11unwind_safeINtB5_16AssertUnwindSafeNCINvNtNtCscKtU6MdFI5n_10proc_macro6bridge6client10run_clientNtB1e_11TokenStreamINtNtB9_6option6OptionB28_ENCNCINvMs6_B1e_INtB1e_6ClientNtB1i_11TokenStreamB3l_E7expand1NvCs9E08dBcDM90_15zerocopy_derive17derive_into_bytesE00E0EINtNtNtB9_3ops8function6FnOnceuE9call_onceB3T_, symObjAddr: 0x75D0, symBinAddr: 0x2C830, symSize: 0x30 }
  - { offset: 0x4D255, size: 0x8, addend: 0x0, symName: __RNvXsn_NtNtCsieiGu2EXtoJ_4core5panic11unwind_safeINtB5_16AssertUnwindSafeNCINvNtNtCscKtU6MdFI5n_10proc_macro6bridge6client10run_clientNtB1e_11TokenStreamINtNtB9_6option6OptionB28_ENCNCINvMs6_B1e_INtB1e_6ClientNtB1i_11TokenStreamB3l_E7expand1NvCs9E08dBcDM90_15zerocopy_derive18derive_from_zeroesE00E0EINtNtNtB9_3ops8function6FnOnceuE9call_onceB3T_, symObjAddr: 0x7600, symBinAddr: 0x2C860, symSize: 0x30 }
  - { offset: 0x4D2AD, size: 0x8, addend: 0x0, symName: __RNvXsn_NtNtCsieiGu2EXtoJ_4core5panic11unwind_safeINtB5_16AssertUnwindSafeNCINvNtNtCscKtU6MdFI5n_10proc_macro6bridge6client10run_clientNtB1e_11TokenStreamINtNtB9_6option6OptionB28_ENCNCINvMs6_B1e_INtB1e_6ClientNtB1i_11TokenStreamB3l_E7expand1NvCs9E08dBcDM90_15zerocopy_derive19derive_known_layoutE00E0EINtNtNtB9_3ops8function6FnOnceuE9call_onceB3T_, symObjAddr: 0x7630, symBinAddr: 0x2C890, symSize: 0x30 }
  - { offset: 0x4D305, size: 0x8, addend: 0x0, symName: __RNvXsn_NtNtCsieiGu2EXtoJ_4core5panic11unwind_safeINtB5_16AssertUnwindSafeNCINvNtNtCscKtU6MdFI5n_10proc_macro6bridge6client10run_clientNtB1e_11TokenStreamINtNtB9_6option6OptionB28_ENCNCINvMs6_B1e_INtB1e_6ClientNtB1i_11TokenStreamB3l_E7expand1NvCs9E08dBcDM90_15zerocopy_derive21derive_try_from_bytesE00E0EINtNtNtB9_3ops8function6FnOnceuE9call_onceB3T_, symObjAddr: 0x7660, symBinAddr: 0x2C8C0, symSize: 0x30 }
  - { offset: 0x4D35D, size: 0x8, addend: 0x0, symName: __RNvXsn_NtNtCsieiGu2EXtoJ_4core5panic11unwind_safeINtB5_16AssertUnwindSafeNCINvNtNtCscKtU6MdFI5n_10proc_macro6bridge6client10run_clientNtB1e_11TokenStreamINtNtB9_6option6OptionB28_ENCNCINvMs6_B1e_INtB1e_6ClientNtB1i_11TokenStreamB3l_E7expand1NvCs9E08dBcDM90_15zerocopy_derive9derive_eqE00E0EINtNtNtB9_3ops8function6FnOnceuE9call_onceB3T_, symObjAddr: 0x7690, symBinAddr: 0x2C8F0, symSize: 0x30 }
  - { offset: 0x4D734, size: 0x8, addend: 0x0, symName: __RINvNtCsieiGu2EXtoJ_4core9panicking13panic_displayNtNtCsdGrGZaRBwMb_3syn5error5ErrorECs9E08dBcDM90_15zerocopy_derive, symObjAddr: 0x1160, symBinAddr: 0x263D0, symSize: 0xA0 }
  - { offset: 0x4D7D0, size: 0x8, addend: 0x0, symName: __RNvNvMNtNtCsieiGu2EXtoJ_4core5alloc6layoutNtB4_6Layout25from_size_align_unchecked18precondition_checkCs9E08dBcDM90_15zerocopy_derive, symObjAddr: 0x6FE0, symBinAddr: 0x2C240, symSize: 0xB0 }
  - { offset: 0x4DC7F, size: 0x8, addend: 0x0, symName: __RNvXNtNtNtCsieiGu2EXtoJ_4core5array4iter10iter_innerSINtNtNtB8_3mem12maybe_uninit11MaybeUninitINtNtB8_6option6OptionNtCsaKzlTDPUHDb_11proc_macro211TokenStreamEENtB2_11PartialDrop12partial_dropCs9E08dBcDM90_15zerocopy_derive, symObjAddr: 0x70E0, symBinAddr: 0x2C340, symSize: 0xE0 }
  - { offset: 0x4DD8F, size: 0x8, addend: 0x0, symName: __RNvXNtNtNtCsieiGu2EXtoJ_4core5array4iter10iter_innerSINtNtNtB8_3mem12maybe_uninit11MaybeUninitNtCsaKzlTDPUHDb_11proc_macro211TokenStreamENtB2_11PartialDrop12partial_dropCs9E08dBcDM90_15zerocopy_derive, symObjAddr: 0x71C0, symBinAddr: 0x2C420, symSize: 0xE0 }
  - { offset: 0x4DE9F, size: 0x8, addend: 0x0, symName: __RNvXNtNtNtCsieiGu2EXtoJ_4core5array4iter10iter_innerSINtNtNtB8_3mem12maybe_uninit11MaybeUninitjENtB2_11PartialDrop12partial_dropCs9E08dBcDM90_15zerocopy_derive, symObjAddr: 0x72A0, symBinAddr: 0x2C500, symSize: 0xB0 }
  - { offset: 0x4DFB5, size: 0x8, addend: 0x0, symName: __RNvXs_NtNtNtCsieiGu2EXtoJ_4core5array4iter10iter_innerAINtNtNtBa_3mem12maybe_uninit11MaybeUninitINtNtBa_6option6OptionNtCsaKzlTDPUHDb_11proc_macro211TokenStreamEEj1_NtB4_11PartialDrop12partial_dropCs9E08dBcDM90_15zerocopy_derive, symObjAddr: 0x7380, symBinAddr: 0x2C5E0, symSize: 0x40 }
  - { offset: 0x4E011, size: 0x8, addend: 0x0, symName: __RNvXs_NtNtNtCsieiGu2EXtoJ_4core5array4iter10iter_innerAINtNtNtBa_3mem12maybe_uninit11MaybeUninitINtNtBa_6option6OptionNtCsaKzlTDPUHDb_11proc_macro211TokenStreamEEj3_NtB4_11PartialDrop12partial_dropCs9E08dBcDM90_15zerocopy_derive, symObjAddr: 0x73C0, symBinAddr: 0x2C620, symSize: 0x40 }
  - { offset: 0x4E06D, size: 0x8, addend: 0x0, symName: __RNvXs_NtNtNtCsieiGu2EXtoJ_4core5array4iter10iter_innerAINtNtNtBa_3mem12maybe_uninit11MaybeUninitNtCsaKzlTDPUHDb_11proc_macro211TokenStreamEj2_NtB4_11PartialDrop12partial_dropCs9E08dBcDM90_15zerocopy_derive, symObjAddr: 0x7400, symBinAddr: 0x2C660, symSize: 0x40 }
  - { offset: 0x4E0C9, size: 0x8, addend: 0x0, symName: __RNvXs_NtNtNtCsieiGu2EXtoJ_4core5array4iter10iter_innerAINtNtNtBa_3mem12maybe_uninit11MaybeUninitjEj2_NtB4_11PartialDrop12partial_dropCs9E08dBcDM90_15zerocopy_derive, symObjAddr: 0x7440, symBinAddr: 0x2C6A0, symSize: 0x40 }
  - { offset: 0x4F76E, size: 0x8, addend: 0x0, symName: __RINvMNtCsdGrGZaRBwMb_3syn3litNtB3_6LitStr10parse_withNvYNtCsaKzlTDPUHDb_11proc_macro25IdentNtNtB5_5parse5Parse5parseECs9E08dBcDM90_15zerocopy_derive, symObjAddr: 0x0, symBinAddr: 0x25550, symSize: 0x5B0 }
  - { offset: 0x4F8A3, size: 0x8, addend: 0x0, symName: __RINvMNtCsdGrGZaRBwMb_3syn3litNtB3_6LitStr5parseNtCsaKzlTDPUHDb_11proc_macro25IdentECs9E08dBcDM90_15zerocopy_derive, symObjAddr: 0x5B0, symBinAddr: 0x25B00, symSize: 0x30 }
  - { offset: 0x4FCBF, size: 0x8, addend: 0x0, symName: __RNCNvNtNtCs9E08dBcDM90_15zerocopy_derive6derive12known_layout37derive_known_layout_for_repr_c_struct0B7_, symObjAddr: 0x1C40, symBinAddr: 0x26EB0, symSize: 0x30 }
  - { offset: 0x4FCF1, size: 0x8, addend: 0x0, symName: __RNCNvNtNtCs9E08dBcDM90_15zerocopy_derive6derive12known_layout37derive_known_layout_for_repr_c_structs0_0B7_, symObjAddr: 0x1C70, symBinAddr: 0x26EE0, symSize: 0x100 }
  - { offset: 0x4FD34, size: 0x8, addend: 0x0, symName: __RNCNvNtNtCs9E08dBcDM90_15zerocopy_derive6derive12known_layout37derive_known_layout_for_repr_c_structs1_0B7_, symObjAddr: 0x1D70, symBinAddr: 0x26FE0, symSize: 0x1C0 }
  - { offset: 0x4FDB9, size: 0x8, addend: 0x0, symName: __RNCNvNtNtCs9E08dBcDM90_15zerocopy_derive6derive12known_layout37derive_known_layout_for_repr_c_structs2_0B7_, symObjAddr: 0x1F30, symBinAddr: 0x271A0, symSize: 0x100 }
  - { offset: 0x4FDFC, size: 0x8, addend: 0x0, symName: __RNCNvNtNtCs9E08dBcDM90_15zerocopy_derive6derive12known_layout37derive_known_layout_for_repr_c_structs3_0B7_, symObjAddr: 0x2030, symBinAddr: 0x272A0, symSize: 0xEA0 }
  - { offset: 0x4FF6A, size: 0x8, addend: 0x0, symName: __RNCNvNtNtCs9E08dBcDM90_15zerocopy_derive6derive12known_layout37derive_known_layout_for_repr_c_structs4_0B7_, symObjAddr: 0x2ED0, symBinAddr: 0x28140, symSize: 0x1C0 }
  - { offset: 0x4FFE3, size: 0x8, addend: 0x0, symName: __RNCNvNtNtCs9E08dBcDM90_15zerocopy_derive6derive12known_layout37derive_known_layout_for_repr_c_structs5_0B7_, symObjAddr: 0x3090, symBinAddr: 0x28300, symSize: 0x50 }
  - { offset: 0x5004F, size: 0x8, addend: 0x0, symName: __RNCNvNtNtCs9E08dBcDM90_15zerocopy_derive6derive12known_layout37derive_known_layout_for_repr_c_structs6_0B7_, symObjAddr: 0x30E0, symBinAddr: 0x28350, symSize: 0xE0 }
  - { offset: 0x500BD, size: 0x8, addend: 0x0, symName: __RNCNvNtNtCs9E08dBcDM90_15zerocopy_derive6derive12known_layout37derive_known_layout_for_repr_c_structs7_0B7_, symObjAddr: 0x31C0, symBinAddr: 0x28430, symSize: 0x300 }
  - { offset: 0x50194, size: 0x8, addend: 0x0, symName: __RNCNvNtNtCs9E08dBcDM90_15zerocopy_derive6derive12known_layout37derive_known_layout_for_repr_c_structs8_0B7_, symObjAddr: 0x34C0, symBinAddr: 0x28730, symSize: 0x50 }
  - { offset: 0x50200, size: 0x8, addend: 0x0, symName: __RNCNvNtNtCs9E08dBcDM90_15zerocopy_derive6derive12known_layout37derive_known_layout_for_repr_c_structs_0B7_, symObjAddr: 0x3510, symBinAddr: 0x28780, symSize: 0x1D0 }
  - { offset: 0x5031C, size: 0x8, addend: 0x0, symName: __RNCNvNtNtCs9E08dBcDM90_15zerocopy_derive6derive12known_layout6derive0B7_, symObjAddr: 0x36E0, symBinAddr: 0x28950, symSize: 0x60 }
  - { offset: 0x5036D, size: 0x8, addend: 0x0, symName: __RNCNvNtNtCs9E08dBcDM90_15zerocopy_derive6derive12known_layout6derives_0B7_, symObjAddr: 0x3740, symBinAddr: 0x289B0, symSize: 0xBB0 }
  - { offset: 0x50483, size: 0x8, addend: 0x0, symName: __RNvNtNtCs9E08dBcDM90_15zerocopy_derive6derive12known_layout37derive_known_layout_for_repr_c_struct, symObjAddr: 0x4300, symBinAddr: 0x29560, symSize: 0x2440 }
  - { offset: 0x50CD8, size: 0x8, addend: 0x0, symName: __RNvNtNtCs9E08dBcDM90_15zerocopy_derive6derive12known_layout6derive, symObjAddr: 0x6740, symBinAddr: 0x2B9A0, symSize: 0x8A0 }
  - { offset: 0x51068, size: 0x8, addend: 0x0, symName: __RINvMNtCsdGrGZaRBwMb_3syn4attrNtB3_9Attribute15parse_args_withNCINvNtB5_4meta6parserNCNvMNtCs9E08dBcDM90_15zerocopy_derive4utilNtB1p_3Ctx21try_from_derive_input0E0EB1r_, symObjAddr: 0x5E0, symBinAddr: 0x25B30, symSize: 0x480 }
  - { offset: 0x511B6, size: 0x8, addend: 0x0, symName: __RINvMNtCsdGrGZaRBwMb_3syn4attrNtB3_9Attribute17parse_nested_metaNCNvMNtCs9E08dBcDM90_15zerocopy_derive4utilNtB15_3Ctx21try_from_derive_input0EB17_, symObjAddr: 0xA60, symBinAddr: 0x25FB0, symSize: 0x50 }
  - { offset: 0x511FF, size: 0x8, addend: 0x0, symName: __RINvMs0_NtCsdGrGZaRBwMb_3syn4attrNtB6_8MetaList10parse_argsNtNtB8_3lit6LitIntECs9E08dBcDM90_15zerocopy_derive, symObjAddr: 0xAB0, symBinAddr: 0x26000, symSize: 0x30 }
  - { offset: 0x5122B, size: 0x8, addend: 0x0, symName: __RINvMs0_NtCsdGrGZaRBwMb_3syn4attrNtB6_8MetaList15parse_args_withNCINvNtB8_4meta6parserNCNvMNtCs9E08dBcDM90_15zerocopy_derive4utilNtB1r_3Ctx21try_from_derive_input0E0EB1t_, symObjAddr: 0xAE0, symBinAddr: 0x26030, symSize: 0x110 }
  - { offset: 0x512C0, size: 0x8, addend: 0x0, symName: __RINvMs0_NtCsdGrGZaRBwMb_3syn4attrNtB6_8MetaList15parse_args_withNvMNtB8_10punctuatedINtB13_10PunctuatedNtB6_4MetaNtNtB8_5token5CommaE16parse_terminatedECs9E08dBcDM90_15zerocopy_derive, symObjAddr: 0xBF0, symBinAddr: 0x26140, symSize: 0xE0 }
  - { offset: 0x51329, size: 0x8, addend: 0x0, symName: __RINvMs0_NtCsdGrGZaRBwMb_3syn4attrNtB6_8MetaList15parse_args_withNvYNtNtB8_3lit6LitIntNtNtB8_5parse5Parse5parseECs9E08dBcDM90_15zerocopy_derive, symObjAddr: 0xCD0, symBinAddr: 0x26220, symSize: 0xE0 }
  - { offset: 0x51387, size: 0x8, addend: 0x0, symName: __RINvMs3_NtCsdGrGZaRBwMb_3syn3litNtB6_6LitInt12base10_parseINtNtNtCsieiGu2EXtoJ_4core3num7nonzero7NonZeromEECs9E08dBcDM90_15zerocopy_derive, symObjAddr: 0xDB0, symBinAddr: 0x26300, symSize: 0x70 }
  - { offset: 0x513BA, size: 0x8, addend: 0x0, symName: __RINvMs3_NtCsdGrGZaRBwMb_3syn3litNtB6_6LitInt12base10_parseoECs9E08dBcDM90_15zerocopy_derive, symObjAddr: 0xE20, symBinAddr: 0x26370, symSize: 0x60 }
  - { offset: 0x51836, size: 0x8, addend: 0x0, symName: __RNvXNtCs9OU1sGv5X54_5quote9to_tokensRNtNtCsdGrGZaRBwMb_3syn4attr4MetaNtB2_8ToTokens9to_tokensCs9E08dBcDM90_15zerocopy_derive, symObjAddr: 0x7090, symBinAddr: 0x2C2F0, symSize: 0x30 }
  - { offset: 0x5187B, size: 0x8, addend: 0x0, symName: __RNvYRNtNtCsdGrGZaRBwMb_3syn4attr4MetaNtNtCs9OU1sGv5X54_5quote9to_tokens8ToTokens15to_token_streamCs9E08dBcDM90_15zerocopy_derive, symObjAddr: 0x76C0, symBinAddr: 0x2C920, symSize: 0x90 }
  - { offset: 0x518C5, size: 0x8, addend: 0x0, symName: __RNvYRNtNtCsdGrGZaRBwMb_3syn4attr4MetaNtNtCs9OU1sGv5X54_5quote9to_tokens8ToTokens17into_token_streamCs9E08dBcDM90_15zerocopy_derive, symObjAddr: 0x7750, symBinAddr: 0x2C9B0, symSize: 0x50 }
  - { offset: 0x51906, size: 0x8, addend: 0x0, symName: __RNvXs0_NtCs9OU1sGv5X54_5quote7spannedNtNtCsdGrGZaRBwMb_3syn4attr4MetaNtB5_7Spanned6___spanCs9E08dBcDM90_15zerocopy_derive, symObjAddr: 0x7350, symBinAddr: 0x2C5B0, symSize: 0x30 }
  - { offset: 0x51F11, size: 0x8, addend: 0x0, symName: __RINvNtCsdGrGZaRBwMb_3syn4meta17parse_nested_metaNCNvMNtCs9E08dBcDM90_15zerocopy_derive4utilNtBP_3Ctx21try_from_derive_input0EBR_, symObjAddr: 0x0, symBinAddr: 0x2CA00, symSize: 0x4C0 }
  - { offset: 0x53148, size: 0x8, addend: 0x0, symName: __RINvNtCsieiGu2EXtoJ_4core3ptr10swap_chunkKj1_ECs9E08dBcDM90_15zerocopy_derive, symObjAddr: 0x4F0, symBinAddr: 0x2CEF0, symSize: 0x30 }
  - { offset: 0x53181, size: 0x8, addend: 0x0, symName: __RINvNtCsieiGu2EXtoJ_4core3ptr10swap_chunkKj2_ECs9E08dBcDM90_15zerocopy_derive, symObjAddr: 0x520, symBinAddr: 0x2CF20, symSize: 0x30 }
  - { offset: 0x531BA, size: 0x8, addend: 0x0, symName: __RINvNtCsieiGu2EXtoJ_4core3ptr10swap_chunkKj4_ECs9E08dBcDM90_15zerocopy_derive, symObjAddr: 0x550, symBinAddr: 0x2CF50, symSize: 0x30 }
  - { offset: 0x531F3, size: 0x8, addend: 0x0, symName: __RINvNtCsieiGu2EXtoJ_4core3ptr10swap_chunkKj8_ECs9E08dBcDM90_15zerocopy_derive, symObjAddr: 0x580, symBinAddr: 0x2CF80, symSize: 0x30 }
  - { offset: 0x5322C, size: 0x8, addend: 0x0, symName: __RINvNtCsieiGu2EXtoJ_4core3ptr13drop_in_placeINtNtB4_4cell10UnsafeCellNtNtNtCscKtU6MdFI5n_10proc_macro6bridge6client6BridgeEECs9E08dBcDM90_15zerocopy_derive, symObjAddr: 0x5F0, symBinAddr: 0x2CFB0, symSize: 0x20 }
  - { offset: 0x5325B, size: 0x8, addend: 0x0, symName: __RINvNtCsieiGu2EXtoJ_4core3ptr13drop_in_placeINtNtB4_4cell7RefCellNtNtNtCscKtU6MdFI5n_10proc_macro6bridge6client6BridgeEECs9E08dBcDM90_15zerocopy_derive, symObjAddr: 0x610, symBinAddr: 0x2CFD0, symSize: 0x20 }
  - { offset: 0x5328A, size: 0x8, addend: 0x0, symName: __RINvNtCsieiGu2EXtoJ_4core3ptr13drop_in_placeINtNtB4_6option4ItemINtNtCsdGrGZaRBwMb_3syn10punctuated4IterNtNtB15_8generics14WherePredicateEEECs9E08dBcDM90_15zerocopy_derive, symObjAddr: 0x630, symBinAddr: 0x2CFF0, symSize: 0x20 }
  - { offset: 0x532B9, size: 0x8, addend: 0x0, symName: __RINvNtCsieiGu2EXtoJ_4core3ptr13drop_in_placeINtNtB4_6option6OptionINtBJ_8IntoIterINtNtCsdGrGZaRBwMb_3syn10punctuated4IterNtNtB1m_8generics14WherePredicateEEEECs9E08dBcDM90_15zerocopy_derive, symObjAddr: 0x650, symBinAddr: 0x2D010, symSize: 0x30 }
  - { offset: 0x532E8, size: 0x8, addend: 0x0, symName: __RINvNtCsieiGu2EXtoJ_4core3ptr13drop_in_placeINtNtB4_6option6OptionINtBJ_8IntoIterNtCsaKzlTDPUHDb_11proc_macro211TokenStreamEEECs9E08dBcDM90_15zerocopy_derive, symObjAddr: 0x680, symBinAddr: 0x2D040, symSize: 0x40 }
  - { offset: 0x53317, size: 0x8, addend: 0x0, symName: __RINvNtCsieiGu2EXtoJ_4core3ptr13drop_in_placeINtNtB4_6option6OptionINtNtCsdGrGZaRBwMb_3syn10punctuated4IterNtNtB17_4data5FieldEEECs9E08dBcDM90_15zerocopy_derive, symObjAddr: 0x6C0, symBinAddr: 0x2D080, symSize: 0x40 }
  - { offset: 0x53346, size: 0x8, addend: 0x0, symName: __RINvNtCsieiGu2EXtoJ_4core3ptr13drop_in_placeINtNtB4_6option6OptionINtNtCsdGrGZaRBwMb_3syn10punctuated4IterNtNtB17_8generics14WherePredicateEEECs9E08dBcDM90_15zerocopy_derive, symObjAddr: 0x700, symBinAddr: 0x2D0C0, symSize: 0x40 }
  - { offset: 0x53375, size: 0x8, addend: 0x0, symName: __RINvNtCsieiGu2EXtoJ_4core3ptr13drop_in_placeINtNtB4_6option6OptionINtNtCslJiobkLta79_5alloc5boxed3BoxNtNtCsdGrGZaRBwMb_3syn4attr4MetaEEECs9E08dBcDM90_15zerocopy_derive, symObjAddr: 0x740, symBinAddr: 0x2D100, symSize: 0x40 }
  - { offset: 0x533A4, size: 0x8, addend: 0x0, symName: __RINvNtCsieiGu2EXtoJ_4core3ptr13drop_in_placeINtNtB4_6option6OptionINtNtNtB4_5array4iter8IntoIterIBH_NtCsaKzlTDPUHDb_11proc_macro211TokenStreamEKj1_EEECs9E08dBcDM90_15zerocopy_derive, symObjAddr: 0x780, symBinAddr: 0x2D140, symSize: 0x30 }
  - { offset: 0x533D3, size: 0x8, addend: 0x0, symName: __RINvNtCsieiGu2EXtoJ_4core3ptr13drop_in_placeINtNtB4_6option6OptionINtNtNtB4_5array4iter8IntoIterIBH_NtCsaKzlTDPUHDb_11proc_macro211TokenStreamEKj3_EEECs9E08dBcDM90_15zerocopy_derive, symObjAddr: 0x7B0, symBinAddr: 0x2D170, symSize: 0x30 }
  - { offset: 0x53402, size: 0x8, addend: 0x0, symName: __RINvNtCsieiGu2EXtoJ_4core3ptr13drop_in_placeINtNtB4_6option6OptionINtNtNtCslJiobkLta79_5alloc3vec9into_iter8IntoIterNtNtCsdGrGZaRBwMb_3syn8generics12GenericParamEEECs9E08dBcDM90_15zerocopy_derive, symObjAddr: 0x7E0, symBinAddr: 0x2D1A0, symSize: 0x40 }
  - { offset: 0x53431, size: 0x8, addend: 0x0, symName: __RINvNtCsieiGu2EXtoJ_4core3ptr13drop_in_placeINtNtB4_6option6OptionINtNtNtNtB4_4iter8adapters3map3MapIB13_INtNtNtB4_5array4iter8IntoIterNtCsaKzlTDPUHDb_11proc_macro211TokenStreamKj2_ENCINvXsb_B2b_B29_INtNtNtB19_6traits7collect12FromIteratorB29_E9from_iterB1F_E0ENCINvXs6_NtB2b_3impNtB4k_11TokenStreamIB3c_B4u_E9from_iterB1A_Es_0EEECs9E08dBcDM90_15zerocopy_derive, symObjAddr: 0x820, symBinAddr: 0x2D1E0, symSize: 0x30 }
  - { offset: 0x53460, size: 0x8, addend: 0x0, symName: __RINvNtCsieiGu2EXtoJ_4core3ptr13drop_in_placeINtNtB4_6option6OptionINtNtNtNtB4_4iter8adapters3map3MapINtNtB17_5chain5ChainIB1B_IB13_INtNtNtB4_5slice4iter4IterTRNtNtCsdGrGZaRBwMb_3syn11restriction10VisibilityNtCsaKzlTDPUHDb_11proc_macro211TokenStreamRNtNtB2B_2ty4TypeEENCNvNtNtCs9E08dBcDM90_15zerocopy_derive6derive14try_from_bytes29derive_has_field_struct_union0EINtBJ_8IntoIterB3i_EEIB13_B25_NCB4j_s0_0EENcNtIBH_B3i_E4Some0EEEB4p_, symObjAddr: 0x850, symBinAddr: 0x2D210, symSize: 0x40 }
  - { offset: 0x5348F, size: 0x8, addend: 0x0, symName: __RINvNtCsieiGu2EXtoJ_4core3ptr13drop_in_placeINtNtB4_6option6OptionINtNtNtNtB4_4iter8adapters3map3MapINtNtB17_9enumerate9EnumerateINtNtNtCslJiobkLta79_5alloc3vec9into_iter8IntoIterTRNtNtCsdGrGZaRBwMb_3syn11restriction10VisibilityNtCsaKzlTDPUHDb_11proc_macro211TokenStreamRNtNtB2X_2ty4TypeEEENCNCNvNtNtCs9E08dBcDM90_15zerocopy_derive6derive14try_from_bytes19derive_is_bit_valid00EEEB4O_, symObjAddr: 0x890, symBinAddr: 0x2D250, symSize: 0x40 }
  - { offset: 0x534BE, size: 0x8, addend: 0x0, symName: __RINvNtCsieiGu2EXtoJ_4core3ptr13drop_in_placeINtNtB4_6option6OptionINtNtNtNtB4_4iter8adapters3map3MapINtNtCsdGrGZaRBwMb_3syn10punctuated4IterNtNtB1F_4data7VariantENCNvXs1_NtCs9E08dBcDM90_15zerocopy_derive4utilNtNtB1F_6derive8DataEnumNtB2I_7DataExt6fields0EEEB2K_, symObjAddr: 0x8D0, symBinAddr: 0x2D290, symSize: 0x40 }
  - { offset: 0x534ED, size: 0x8, addend: 0x0, symName: __RINvNtCsieiGu2EXtoJ_4core3ptr13drop_in_placeINtNtB4_6option6OptionINtNtNtNtB4_4iter8adapters3map3MapINtNtCsdGrGZaRBwMb_3syn10punctuated8IntoIterNtNtB1F_8generics12GenericParamENCNvMs8_NtCs9E08dBcDM90_15zerocopy_derive4utilNtB2W_16ImplBlockBuilder5builds1_0EEEB2Y_, symObjAddr: 0x910, symBinAddr: 0x2D2D0, symSize: 0x40 }
  - { offset: 0x5351C, size: 0x8, addend: 0x0, symName: __RINvNtCsieiGu2EXtoJ_4core3ptr13drop_in_placeINtNtB4_6option6OptionINtNtNtNtB4_4iter8adapters3map3MapINtNtNtB4_5slice4iter4IterTRNtNtCsdGrGZaRBwMb_3syn11restriction10VisibilityNtCsaKzlTDPUHDb_11proc_macro211TokenStreamRNtNtB26_2ty4TypeEENCNvNtNtCs9E08dBcDM90_15zerocopy_derive6derive14try_from_bytes29derive_has_field_struct_unions0_0EEEB3U_, symObjAddr: 0x950, symBinAddr: 0x2D310, symSize: 0x40 }
  - { offset: 0x5354B, size: 0x8, addend: 0x0, symName: __RINvNtCsieiGu2EXtoJ_4core3ptr13drop_in_placeINtNtB4_6option6OptionINtNtNtNtB4_4iter8adapters3map3MapINtNtNtCslJiobkLta79_5alloc3vec9into_iter8IntoIterTIBH_RNtNtCsdGrGZaRBwMb_3syn4data7VariantEINtB1F_3VecTRNtNtB2y_11restriction10VisibilityNtCsaKzlTDPUHDb_11proc_macro211TokenStreamRNtNtB2y_2ty4TypeEEEENCNvNtNtCs9E08dBcDM90_15zerocopy_derive6derive14try_from_bytes19derive_is_bit_valid0EEEB4X_, symObjAddr: 0x990, symBinAddr: 0x2D350, symSize: 0x40 }
  - { offset: 0x5357A, size: 0x8, addend: 0x0, symName: __RINvNtCsieiGu2EXtoJ_4core3ptr13drop_in_placeINtNtB4_6option6OptionINtNtNtNtB4_4iter8adapters5chain5ChainIB13_INtNtB17_7flatten7FlattenINtBJ_8IntoIterINtNtCsdGrGZaRBwMb_3syn10punctuated4IterNtNtB2s_8generics14WherePredicateEEEINtNtNtB4_5slice4iter4IterB31_EEINtBJ_4IterB31_EEEECs9E08dBcDM90_15zerocopy_derive, symObjAddr: 0x9D0, symBinAddr: 0x2D390, symSize: 0x40 }
  - { offset: 0x535A9, size: 0x8, addend: 0x0, symName: __RINvNtCsieiGu2EXtoJ_4core3ptr13drop_in_placeINtNtB4_6option6OptionINtNtNtNtB4_4iter8adapters5chain5ChainINtNtB17_3map3MapINtNtNtB4_5slice4iter4IterTRNtNtCsdGrGZaRBwMb_3syn11restriction10VisibilityNtCsaKzlTDPUHDb_11proc_macro211TokenStreamRNtNtB2r_2ty4TypeEENCNvNtNtCs9E08dBcDM90_15zerocopy_derive6derive14try_from_bytes29derive_has_field_struct_union0EINtBJ_8IntoIterB38_EEEEB4f_, symObjAddr: 0xA10, symBinAddr: 0x2D3D0, symSize: 0x40 }
  - { offset: 0x535D8, size: 0x8, addend: 0x0, symName: __RINvNtCsieiGu2EXtoJ_4core3ptr13drop_in_placeINtNtB4_6option6OptionINtNtNtNtB4_4iter8adapters5chain5ChainINtNtB17_7flatten7FlattenINtBJ_8IntoIterINtNtCsdGrGZaRBwMb_3syn10punctuated4IterNtNtB2n_8generics14WherePredicateEEEINtNtNtB4_5slice4iter4IterB2W_EEEECs9E08dBcDM90_15zerocopy_derive, symObjAddr: 0xA50, symBinAddr: 0x2D410, symSize: 0x40 }
  - { offset: 0x53607, size: 0x8, addend: 0x0, symName: __RINvNtCsieiGu2EXtoJ_4core3ptr13drop_in_placeINtNtB4_6option6OptionINtNtNtNtB4_4iter8adapters7flatten7FlattenINtBJ_8IntoIterINtNtCsdGrGZaRBwMb_3syn10punctuated4IterNtNtB22_8generics14WherePredicateEEEEECs9E08dBcDM90_15zerocopy_derive, symObjAddr: 0xA90, symBinAddr: 0x2D450, symSize: 0x40 }
  - { offset: 0x53636, size: 0x8, addend: 0x0, symName: __RINvNtCsieiGu2EXtoJ_4core3ptr13drop_in_placeINtNtB4_6option6OptionNtNtCs9E08dBcDM90_15zerocopy_derive4util12PaddingCheckEEB16_, symObjAddr: 0xAD0, symBinAddr: 0x2D490, symSize: 0x40 }
  - { offset: 0x53665, size: 0x8, addend: 0x0, symName: __RINvNtCsieiGu2EXtoJ_4core3ptr13drop_in_placeINtNtB4_6option6OptionNtNtCsdGrGZaRBwMb_3syn8generics12GenericParamEECs9E08dBcDM90_15zerocopy_derive, symObjAddr: 0xB10, symBinAddr: 0x2D4D0, symSize: 0x40 }
  - { offset: 0x53694, size: 0x8, addend: 0x0, symName: __RINvNtCsieiGu2EXtoJ_4core3ptr13drop_in_placeINtNtB4_6option6OptionNtNtCsdGrGZaRBwMb_3syn8generics14WherePredicateEECs9E08dBcDM90_15zerocopy_derive, symObjAddr: 0xB50, symBinAddr: 0x2D510, symSize: 0x40 }
  - { offset: 0x536C3, size: 0x8, addend: 0x0, symName: __RINvNtCsieiGu2EXtoJ_4core3ptr13drop_in_placeINtNtB4_6option8IntoIterINtNtCsdGrGZaRBwMb_3syn10punctuated4IterNtNtB19_8generics14WherePredicateEEECs9E08dBcDM90_15zerocopy_derive, symObjAddr: 0xB90, symBinAddr: 0x2D550, symSize: 0x20 }
  - { offset: 0x536F2, size: 0x8, addend: 0x0, symName: __RINvNtCsieiGu2EXtoJ_4core3ptr13drop_in_placeINtNtB4_6result6ResultINtNtCsdGrGZaRBwMb_3syn10punctuated10PunctuatedNtNtB17_4attr4MetaNtNtB17_5token5CommaENtNtB17_5error5ErrorEECs9E08dBcDM90_15zerocopy_derive, symObjAddr: 0xBB0, symBinAddr: 0x2D570, symSize: 0x50 }
  - { offset: 0x53721, size: 0x8, addend: 0x0, symName: __RINvNtCsieiGu2EXtoJ_4core3ptr13drop_in_placeINtNtB4_6result6ResultNtCsaKzlTDPUHDb_11proc_macro25IdentNtNtCsdGrGZaRBwMb_3syn5error5ErrorEECs9E08dBcDM90_15zerocopy_derive, symObjAddr: 0xC00, symBinAddr: 0x2D5C0, symSize: 0x40 }
  - { offset: 0x53750, size: 0x8, addend: 0x0, symName: __RINvNtCsieiGu2EXtoJ_4core3ptr13drop_in_placeINtNtB4_6result6ResultNtNtCsdGrGZaRBwMb_3syn4expr4ExprNtNtB16_5error5ErrorEECs9E08dBcDM90_15zerocopy_derive, symObjAddr: 0xC40, symBinAddr: 0x2D600, symSize: 0x50 }
  - { offset: 0x5377F, size: 0x8, addend: 0x0, symName: __RINvNtCsieiGu2EXtoJ_4core3ptr13drop_in_placeINtNtB4_6result6ResultbNtNtCsdGrGZaRBwMb_3syn5error5ErrorEECs9E08dBcDM90_15zerocopy_derive, symObjAddr: 0xC90, symBinAddr: 0x2D650, symSize: 0x40 }
  - { offset: 0x537AE, size: 0x8, addend: 0x0, symName: __RINvNtCsieiGu2EXtoJ_4core3ptr13drop_in_placeINtNtB4_6result6ResultoNtNtCsdGrGZaRBwMb_3syn5error5ErrorEECs9E08dBcDM90_15zerocopy_derive, symObjAddr: 0xCD0, symBinAddr: 0x2D690, symSize: 0x30 }
  - { offset: 0x537DD, size: 0x8, addend: 0x0, symName: __RINvNtCsieiGu2EXtoJ_4core3ptr13drop_in_placeINtNtCs9OU1sGv5X54_5quote9___private9RepInterpNtCsaKzlTDPUHDb_11proc_macro211TokenStreamEECs9E08dBcDM90_15zerocopy_derive, symObjAddr: 0xD00, symBinAddr: 0x2D6C0, symSize: 0x20 }
  - { offset: 0x5380C, size: 0x8, addend: 0x0, symName: __RINvNtCsieiGu2EXtoJ_4core3ptr13drop_in_placeINtNtCs9OU1sGv5X54_5quote9___private9RepInterpNtCsaKzlTDPUHDb_11proc_macro25IdentEECs9E08dBcDM90_15zerocopy_derive, symObjAddr: 0xD20, symBinAddr: 0x2D6E0, symSize: 0x20 }
  - { offset: 0x5383B, size: 0x8, addend: 0x0, symName: __RINvNtCsieiGu2EXtoJ_4core3ptr13drop_in_placeINtNtCs9OU1sGv5X54_5quote9___private9RepInterpNtNtCsdGrGZaRBwMb_3syn4path4PathEECs9E08dBcDM90_15zerocopy_derive, symObjAddr: 0xD40, symBinAddr: 0x2D700, symSize: 0x20 }
  - { offset: 0x5386A, size: 0x8, addend: 0x0, symName: __RINvNtCsieiGu2EXtoJ_4core3ptr13drop_in_placeINtNtCsdGrGZaRBwMb_3syn10punctuated10PunctuatedNtNtBL_4attr4MetaNtNtBL_5token5CommaEECs9E08dBcDM90_15zerocopy_derive, symObjAddr: 0xD60, symBinAddr: 0x2D720, symSize: 0x60 }
  - { offset: 0x53899, size: 0x8, addend: 0x0, symName: __RINvNtCsieiGu2EXtoJ_4core3ptr13drop_in_placeINtNtCsdGrGZaRBwMb_3syn10punctuated4IterNtNtBL_4data5FieldEECs9E08dBcDM90_15zerocopy_derive, symObjAddr: 0xDC0, symBinAddr: 0x2D780, symSize: 0x20 }
  - { offset: 0x538C8, size: 0x8, addend: 0x0, symName: __RINvNtCsieiGu2EXtoJ_4core3ptr13drop_in_placeINtNtCsdGrGZaRBwMb_3syn10punctuated4IterNtNtBL_4data7VariantEECs9E08dBcDM90_15zerocopy_derive, symObjAddr: 0xDE0, symBinAddr: 0x2D7A0, symSize: 0x20 }
  - { offset: 0x538F7, size: 0x8, addend: 0x0, symName: __RINvNtCsieiGu2EXtoJ_4core3ptr13drop_in_placeINtNtCsdGrGZaRBwMb_3syn10punctuated4IterNtNtBL_8generics12GenericParamEECs9E08dBcDM90_15zerocopy_derive, symObjAddr: 0xE00, symBinAddr: 0x2D7C0, symSize: 0x20 }
  - { offset: 0x53926, size: 0x8, addend: 0x0, symName: __RINvNtCsieiGu2EXtoJ_4core3ptr13drop_in_placeINtNtCsdGrGZaRBwMb_3syn10punctuated4IterNtNtBL_8generics14WherePredicateEECs9E08dBcDM90_15zerocopy_derive, symObjAddr: 0xE20, symBinAddr: 0x2D7E0, symSize: 0x20 }
  - { offset: 0x53955, size: 0x8, addend: 0x0, symName: __RINvNtCsieiGu2EXtoJ_4core3ptr13drop_in_placeINtNtCsdGrGZaRBwMb_3syn10punctuated8IntoIterNtNtBL_4attr4MetaEECs9E08dBcDM90_15zerocopy_derive, symObjAddr: 0xE40, symBinAddr: 0x2D800, symSize: 0x20 }
  - { offset: 0x53984, size: 0x8, addend: 0x0, symName: __RINvNtCsieiGu2EXtoJ_4core3ptr13drop_in_placeINtNtCsdGrGZaRBwMb_3syn10punctuated8IntoIterNtNtBL_8generics12GenericParamEECs9E08dBcDM90_15zerocopy_derive, symObjAddr: 0xE60, symBinAddr: 0x2D820, symSize: 0x20 }
  - { offset: 0x539B3, size: 0x8, addend: 0x0, symName: __RINvNtCsieiGu2EXtoJ_4core3ptr13drop_in_placeINtNtCslJiobkLta79_5alloc3vec3VecINtNtNtCs9E08dBcDM90_15zerocopy_derive4repr4util7SpannedNtB1i_7RawReprEEEB1k_, symObjAddr: 0xE80, symBinAddr: 0x2D840, symSize: 0x50 }
  - { offset: 0x539E2, size: 0x8, addend: 0x0, symName: __RINvNtCsieiGu2EXtoJ_4core3ptr13drop_in_placeINtNtCslJiobkLta79_5alloc3vec3VecNtCsaKzlTDPUHDb_11proc_macro25IdentEECs9E08dBcDM90_15zerocopy_derive, symObjAddr: 0xED0, symBinAddr: 0x2D890, symSize: 0x50 }
  - { offset: 0x53A11, size: 0x8, addend: 0x0, symName: __RINvNtCsieiGu2EXtoJ_4core3ptr13drop_in_placeINtNtCslJiobkLta79_5alloc3vec3VecNtNtCsdGrGZaRBwMb_3syn4attr4MetaEECs9E08dBcDM90_15zerocopy_derive, symObjAddr: 0xF20, symBinAddr: 0x2D8E0, symSize: 0x50 }
  - { offset: 0x53A40, size: 0x8, addend: 0x0, symName: __RINvNtCsieiGu2EXtoJ_4core3ptr13drop_in_placeINtNtCslJiobkLta79_5alloc3vec3VecNtNtCsdGrGZaRBwMb_3syn8generics12GenericParamEECs9E08dBcDM90_15zerocopy_derive, symObjAddr: 0xF70, symBinAddr: 0x2D930, symSize: 0x50 }
  - { offset: 0x53A6F, size: 0x8, addend: 0x0, symName: __RINvNtCsieiGu2EXtoJ_4core3ptr13drop_in_placeINtNtCslJiobkLta79_5alloc3vec3VecNtNtCsdGrGZaRBwMb_3syn8generics14WherePredicateEECs9E08dBcDM90_15zerocopy_derive, symObjAddr: 0xFC0, symBinAddr: 0x2D980, symSize: 0x50 }
  - { offset: 0x53A9E, size: 0x8, addend: 0x0, symName: __RINvNtCsieiGu2EXtoJ_4core3ptr13drop_in_placeINtNtCslJiobkLta79_5alloc3vec3VecTINtNtB4_6option6OptionRNtNtCsdGrGZaRBwMb_3syn4data7VariantEIBH_TRNtNtB1F_11restriction10VisibilityNtCsaKzlTDPUHDb_11proc_macro211TokenStreamRNtNtB1F_2ty4TypeEEEEECs9E08dBcDM90_15zerocopy_derive, symObjAddr: 0x1010, symBinAddr: 0x2D9D0, symSize: 0x50 }
  - { offset: 0x53ACD, size: 0x8, addend: 0x0, symName: __RINvNtCsieiGu2EXtoJ_4core3ptr13drop_in_placeINtNtCslJiobkLta79_5alloc3vec3VecTNtNtCsdGrGZaRBwMb_3syn4attr4MetaNtNtB1i_5token5CommaEEECs9E08dBcDM90_15zerocopy_derive, symObjAddr: 0x1060, symBinAddr: 0x2DA20, symSize: 0x50 }
  - { offset: 0x53AFC, size: 0x8, addend: 0x0, symName: __RINvNtCsieiGu2EXtoJ_4core3ptr13drop_in_placeINtNtCslJiobkLta79_5alloc3vec3VecTRNtNtCsdGrGZaRBwMb_3syn11restriction10VisibilityNtCsaKzlTDPUHDb_11proc_macro211TokenStreamRNtNtB1j_2ty4TypeEEECs9E08dBcDM90_15zerocopy_derive, symObjAddr: 0x10B0, symBinAddr: 0x2DA70, symSize: 0x50 }
  - { offset: 0x53B2B, size: 0x8, addend: 0x0, symName: __RINvNtCsieiGu2EXtoJ_4core3ptr13drop_in_placeINtNtCslJiobkLta79_5alloc3vec3VecTljEEECs9E08dBcDM90_15zerocopy_derive, symObjAddr: 0x1100, symBinAddr: 0x2DAC0, symSize: 0x50 }
  - { offset: 0x53B5A, size: 0x8, addend: 0x0, symName: __RINvNtCsieiGu2EXtoJ_4core3ptr13drop_in_placeINtNtCslJiobkLta79_5alloc3vec3VecTlmEEECs9E08dBcDM90_15zerocopy_derive, symObjAddr: 0x1150, symBinAddr: 0x2DB10, symSize: 0x50 }
  - { offset: 0x53B89, size: 0x8, addend: 0x0, symName: __RINvNtCsieiGu2EXtoJ_4core3ptr13drop_in_placeINtNtCslJiobkLta79_5alloc5boxed3BoxDNtNtB4_5error5ErrorNtNtB4_6marker4SyncNtB1B_4SendEL_EECs9E08dBcDM90_15zerocopy_derive, symObjAddr: 0x11A0, symBinAddr: 0x2DB60, symSize: 0x70 }
  - { offset: 0x53BB8, size: 0x8, addend: 0x0, symName: __RINvNtCsieiGu2EXtoJ_4core3ptr13drop_in_placeINtNtCslJiobkLta79_5alloc5boxed3BoxINtNtCsdGrGZaRBwMb_3syn5drops6NoDropDINtNtB1k_10punctuated9IterTraitNtNtB1k_4data5FieldEp4ItemRB2l_EL_EEECs9E08dBcDM90_15zerocopy_derive, symObjAddr: 0x1210, symBinAddr: 0x2DBD0, symSize: 0x20 }
  - { offset: 0x53BE7, size: 0x8, addend: 0x0, symName: __RINvNtCsieiGu2EXtoJ_4core3ptr13drop_in_placeINtNtCslJiobkLta79_5alloc5boxed3BoxINtNtCsdGrGZaRBwMb_3syn5drops6NoDropDINtNtB1k_10punctuated9IterTraitNtNtB1k_4data7VariantEp4ItemRB2l_EL_EEECs9E08dBcDM90_15zerocopy_derive, symObjAddr: 0x1230, symBinAddr: 0x2DBF0, symSize: 0x20 }
  - { offset: 0x53C16, size: 0x8, addend: 0x0, symName: __RINvNtCsieiGu2EXtoJ_4core3ptr13drop_in_placeINtNtCslJiobkLta79_5alloc5boxed3BoxINtNtCsdGrGZaRBwMb_3syn5drops6NoDropDINtNtB1k_10punctuated9IterTraitNtNtB1k_8generics12GenericParamEp4ItemRB2l_EL_EEECs9E08dBcDM90_15zerocopy_derive, symObjAddr: 0x1250, symBinAddr: 0x2DC10, symSize: 0x20 }
  - { offset: 0x53C45, size: 0x8, addend: 0x0, symName: __RINvNtCsieiGu2EXtoJ_4core3ptr13drop_in_placeINtNtCslJiobkLta79_5alloc5boxed3BoxINtNtCsdGrGZaRBwMb_3syn5drops6NoDropDINtNtB1k_10punctuated9IterTraitNtNtB1k_8generics14WherePredicateEp4ItemRB2l_EL_EEECs9E08dBcDM90_15zerocopy_derive, symObjAddr: 0x1270, symBinAddr: 0x2DC30, symSize: 0x20 }
  - { offset: 0x53C74, size: 0x8, addend: 0x0, symName: __RINvNtCsieiGu2EXtoJ_4core3ptr13drop_in_placeINtNtCslJiobkLta79_5alloc5boxed3BoxNtNtCsdGrGZaRBwMb_3syn4attr4MetaEECs9E08dBcDM90_15zerocopy_derive, symObjAddr: 0x1290, symBinAddr: 0x2DC50, symSize: 0x50 }
  - { offset: 0x53CA3, size: 0x8, addend: 0x0, symName: __RINvNtCsieiGu2EXtoJ_4core3ptr13drop_in_placeINtNtCslJiobkLta79_5alloc5boxed3BoxNtNtNtCsHUR1vrdMJt_3std2io5error6CustomEECs9E08dBcDM90_15zerocopy_derive, symObjAddr: 0x12E0, symBinAddr: 0x2DCA0, symSize: 0x50 }
  - { offset: 0x53CD2, size: 0x8, addend: 0x0, symName: __RINvNtCsieiGu2EXtoJ_4core3ptr13drop_in_placeINtNtCslJiobkLta79_5alloc7raw_vec6RawVecINtNtNtCs9E08dBcDM90_15zerocopy_derive4repr4util7SpannedNtB1p_7RawReprEEEB1r_, symObjAddr: 0x1330, symBinAddr: 0x2DCF0, symSize: 0x20 }
  - { offset: 0x53D01, size: 0x8, addend: 0x0, symName: __RINvNtCsieiGu2EXtoJ_4core3ptr13drop_in_placeINtNtCslJiobkLta79_5alloc7raw_vec6RawVecNtCsaKzlTDPUHDb_11proc_macro25IdentEECs9E08dBcDM90_15zerocopy_derive, symObjAddr: 0x1350, symBinAddr: 0x2DD10, symSize: 0x20 }
  - { offset: 0x53D30, size: 0x8, addend: 0x0, symName: __RINvNtCsieiGu2EXtoJ_4core3ptr13drop_in_placeINtNtCslJiobkLta79_5alloc7raw_vec6RawVecNtNtCsdGrGZaRBwMb_3syn4attr4MetaEECs9E08dBcDM90_15zerocopy_derive, symObjAddr: 0x1370, symBinAddr: 0x2DD30, symSize: 0x20 }
  - { offset: 0x53D5F, size: 0x8, addend: 0x0, symName: __RINvNtCsieiGu2EXtoJ_4core3ptr13drop_in_placeINtNtCslJiobkLta79_5alloc7raw_vec6RawVecNtNtCsdGrGZaRBwMb_3syn8generics12GenericParamEECs9E08dBcDM90_15zerocopy_derive, symObjAddr: 0x1390, symBinAddr: 0x2DD50, symSize: 0x20 }
  - { offset: 0x53D8E, size: 0x8, addend: 0x0, symName: __RINvNtCsieiGu2EXtoJ_4core3ptr13drop_in_placeINtNtCslJiobkLta79_5alloc7raw_vec6RawVecNtNtCsdGrGZaRBwMb_3syn8generics14WherePredicateEECs9E08dBcDM90_15zerocopy_derive, symObjAddr: 0x13B0, symBinAddr: 0x2DD70, symSize: 0x20 }
  - { offset: 0x53DBD, size: 0x8, addend: 0x0, symName: __RINvNtCsieiGu2EXtoJ_4core3ptr13drop_in_placeINtNtCslJiobkLta79_5alloc7raw_vec6RawVecTINtNtB4_6option6OptionRNtNtCsdGrGZaRBwMb_3syn4data7VariantEINtNtBL_3vec3VecTRNtNtB1M_11restriction10VisibilityNtCsaKzlTDPUHDb_11proc_macro211TokenStreamRNtNtB1M_2ty4TypeEEEEECs9E08dBcDM90_15zerocopy_derive, symObjAddr: 0x13D0, symBinAddr: 0x2DD90, symSize: 0x20 }
  - { offset: 0x53DEC, size: 0x8, addend: 0x0, symName: __RINvNtCsieiGu2EXtoJ_4core3ptr13drop_in_placeINtNtCslJiobkLta79_5alloc7raw_vec6RawVecTNtNtCsdGrGZaRBwMb_3syn4attr4MetaNtNtB1p_5token5CommaEEECs9E08dBcDM90_15zerocopy_derive, symObjAddr: 0x13F0, symBinAddr: 0x2DDB0, symSize: 0x20 }
  - { offset: 0x53E1B, size: 0x8, addend: 0x0, symName: __RINvNtCsieiGu2EXtoJ_4core3ptr13drop_in_placeINtNtCslJiobkLta79_5alloc7raw_vec6RawVecTRNtNtCsdGrGZaRBwMb_3syn11restriction10VisibilityNtCsaKzlTDPUHDb_11proc_macro211TokenStreamRNtNtB1q_2ty4TypeEEECs9E08dBcDM90_15zerocopy_derive, symObjAddr: 0x1410, symBinAddr: 0x2DDD0, symSize: 0x20 }
  - { offset: 0x53E4A, size: 0x8, addend: 0x0, symName: __RINvNtCsieiGu2EXtoJ_4core3ptr13drop_in_placeINtNtCslJiobkLta79_5alloc7raw_vec6RawVecTljEEECs9E08dBcDM90_15zerocopy_derive, symObjAddr: 0x1430, symBinAddr: 0x2DDF0, symSize: 0x20 }
  - { offset: 0x53E79, size: 0x8, addend: 0x0, symName: __RINvNtCsieiGu2EXtoJ_4core3ptr13drop_in_placeINtNtCslJiobkLta79_5alloc7raw_vec6RawVecTlmEEECs9E08dBcDM90_15zerocopy_derive, symObjAddr: 0x1450, symBinAddr: 0x2DE10, symSize: 0x20 }
  - { offset: 0x53EA8, size: 0x8, addend: 0x0, symName: __RINvNtCsieiGu2EXtoJ_4core3ptr13drop_in_placeINtNtNtB4_3ops12control_flow11ControlFlowNtCsaKzlTDPUHDb_11proc_macro211TokenStreamEECs9E08dBcDM90_15zerocopy_derive, symObjAddr: 0x1470, symBinAddr: 0x2DE30, symSize: 0x40 }
  - { offset: 0x53ED7, size: 0x8, addend: 0x0, symName: __RINvNtCsieiGu2EXtoJ_4core3ptr13drop_in_placeINtNtNtB4_5array4iter8IntoIterINtNtB4_6option6OptionNtCsaKzlTDPUHDb_11proc_macro211TokenStreamEKj1_EECs9E08dBcDM90_15zerocopy_derive, symObjAddr: 0x14B0, symBinAddr: 0x2DE70, symSize: 0x50 }
  - { offset: 0x53F06, size: 0x8, addend: 0x0, symName: __RINvNtCsieiGu2EXtoJ_4core3ptr13drop_in_placeINtNtNtB4_5array4iter8IntoIterINtNtB4_6option6OptionNtCsaKzlTDPUHDb_11proc_macro211TokenStreamEKj3_EECs9E08dBcDM90_15zerocopy_derive, symObjAddr: 0x1500, symBinAddr: 0x2DEC0, symSize: 0x50 }
  - { offset: 0x53F35, size: 0x8, addend: 0x0, symName: __RINvNtCsieiGu2EXtoJ_4core3ptr13drop_in_placeINtNtNtB4_5array4iter8IntoIterNtCsaKzlTDPUHDb_11proc_macro211TokenStreamKj2_EECs9E08dBcDM90_15zerocopy_derive, symObjAddr: 0x1550, symBinAddr: 0x2DF10, symSize: 0x50 }
  - { offset: 0x53F64, size: 0x8, addend: 0x0, symName: __RINvNtCsieiGu2EXtoJ_4core3ptr13drop_in_placeINtNtNtB4_5array4iter8IntoIterjKj2_EECs9E08dBcDM90_15zerocopy_derive, symObjAddr: 0x15A0, symBinAddr: 0x2DF60, symSize: 0x50 }
  - { offset: 0x53F93, size: 0x8, addend: 0x0, symName: __RINvNtCsieiGu2EXtoJ_4core3ptr13drop_in_placeINtNtNtCsHUR1vrdMJt_3std2io5error9ErrorDataINtNtCslJiobkLta79_5alloc5boxed3BoxNtBJ_6CustomEEECs9E08dBcDM90_15zerocopy_derive, symObjAddr: 0x15F0, symBinAddr: 0x2DFB0, symSize: 0x30 }
  - { offset: 0x53FC2, size: 0x8, addend: 0x0, symName: __RINvNtCsieiGu2EXtoJ_4core3ptr13drop_in_placeINtNtNtCslJiobkLta79_5alloc3vec9into_iter8IntoIterNtNtCsdGrGZaRBwMb_3syn4attr4MetaEECs9E08dBcDM90_15zerocopy_derive, symObjAddr: 0x1620, symBinAddr: 0x2DFE0, symSize: 0x20 }
  - { offset: 0x53FF1, size: 0x8, addend: 0x0, symName: __RINvNtCsieiGu2EXtoJ_4core3ptr13drop_in_placeINtNtNtCslJiobkLta79_5alloc3vec9into_iter8IntoIterNtNtCsdGrGZaRBwMb_3syn8generics12GenericParamEECs9E08dBcDM90_15zerocopy_derive, symObjAddr: 0x1640, symBinAddr: 0x2E000, symSize: 0x20 }
  - { offset: 0x54020, size: 0x8, addend: 0x0, symName: __RINvNtCsieiGu2EXtoJ_4core3ptr13drop_in_placeINtNtNtCslJiobkLta79_5alloc3vec9into_iter8IntoIterTINtNtB4_6option6OptionRNtNtCsdGrGZaRBwMb_3syn4data7VariantEINtBL_3VecTRNtNtB1W_11restriction10VisibilityNtCsaKzlTDPUHDb_11proc_macro211TokenStreamRNtNtB1W_2ty4TypeEEEEECs9E08dBcDM90_15zerocopy_derive, symObjAddr: 0x1660, symBinAddr: 0x2E020, symSize: 0x20 }
  - { offset: 0x5404F, size: 0x8, addend: 0x0, symName: __RINvNtCsieiGu2EXtoJ_4core3ptr13drop_in_placeINtNtNtCslJiobkLta79_5alloc3vec9into_iter8IntoIterTNtNtCsdGrGZaRBwMb_3syn4attr4MetaNtNtB1z_5token5CommaEEECs9E08dBcDM90_15zerocopy_derive, symObjAddr: 0x1680, symBinAddr: 0x2E040, symSize: 0x20 }
  - { offset: 0x5407E, size: 0x8, addend: 0x0, symName: __RINvNtCsieiGu2EXtoJ_4core3ptr13drop_in_placeINtNtNtCslJiobkLta79_5alloc3vec9into_iter8IntoIterTNtNtCsdGrGZaRBwMb_3syn8generics12GenericParamNtNtB1z_5token5CommaEEECs9E08dBcDM90_15zerocopy_derive, symObjAddr: 0x16A0, symBinAddr: 0x2E060, symSize: 0x20 }
  - { offset: 0x540AD, size: 0x8, addend: 0x0, symName: __RINvNtCsieiGu2EXtoJ_4core3ptr13drop_in_placeINtNtNtCslJiobkLta79_5alloc3vec9into_iter8IntoIterTRNtNtCsdGrGZaRBwMb_3syn11restriction10VisibilityNtCsaKzlTDPUHDb_11proc_macro211TokenStreamRNtNtB1A_2ty4TypeEEECs9E08dBcDM90_15zerocopy_derive, symObjAddr: 0x16C0, symBinAddr: 0x2E080, symSize: 0x20 }
  - { offset: 0x540DC, size: 0x8, addend: 0x0, symName: __RINvNtCsieiGu2EXtoJ_4core3ptr13drop_in_placeINtNtNtNtB4_4iter8adapters10filter_map9FilterMapINtNtCsdGrGZaRBwMb_3syn10punctuated4IterNtNtB1x_4data7VariantENCNvNtNtCs9E08dBcDM90_15zerocopy_derive6derive14try_from_bytes23generate_variants_union0EEB2A_, symObjAddr: 0x16E0, symBinAddr: 0x2E0A0, symSize: 0x20 }
  - { offset: 0x5410B, size: 0x8, addend: 0x0, symName: __RINvNtCsieiGu2EXtoJ_4core3ptr13drop_in_placeINtNtNtNtB4_4iter8adapters10filter_map9FilterMapINtNtCsdGrGZaRBwMb_3syn10punctuated4IterNtNtB1x_4data7VariantENCNvNtNtCs9E08dBcDM90_15zerocopy_derive6derive14try_from_bytes24generate_variant_structs0EEB2A_, symObjAddr: 0x1700, symBinAddr: 0x2E0C0, symSize: 0x20 }
  - { offset: 0x5413A, size: 0x8, addend: 0x0, symName: __RINvNtCsieiGu2EXtoJ_4core3ptr13drop_in_placeINtNtNtNtB4_4iter8adapters3map3MapIBH_INtNtNtB4_5array4iter8IntoIterNtCsaKzlTDPUHDb_11proc_macro211TokenStreamKj2_ENCINvXsb_B1O_B1M_INtNtNtBN_6traits7collect12FromIteratorB1M_E9from_iterB1i_E0ENCINvXs6_NtB1O_3impNtB3W_11TokenStreamIB2P_B46_E9from_iterB1e_E0EECs9E08dBcDM90_15zerocopy_derive, symObjAddr: 0x1720, symBinAddr: 0x2E0E0, symSize: 0x20 }
  - { offset: 0x54169, size: 0x8, addend: 0x0, symName: __RINvNtCsieiGu2EXtoJ_4core3ptr13drop_in_placeINtNtNtNtB4_4iter8adapters3map3MapIBH_INtNtNtB4_5array4iter8IntoIterNtCsaKzlTDPUHDb_11proc_macro211TokenStreamKj2_ENCINvXsb_B1O_B1M_INtNtNtBN_6traits7collect12FromIteratorB1M_E9from_iterB1i_E0ENCINvXs6_NtB1O_3impNtB3W_11TokenStreamIB2P_B46_E9from_iterB1e_Es_0EECs9E08dBcDM90_15zerocopy_derive, symObjAddr: 0x1740, symBinAddr: 0x2E100, symSize: 0x20 }
  - { offset: 0x54198, size: 0x8, addend: 0x0, symName: __RINvNtCsieiGu2EXtoJ_4core3ptr13drop_in_placeINtNtNtNtB4_4iter8adapters3map3MapINtNtBL_5chain5ChainIB1f_IBH_INtNtNtB4_5slice4iter4IterTRNtNtCsdGrGZaRBwMb_3syn11restriction10VisibilityNtCsaKzlTDPUHDb_11proc_macro211TokenStreamRNtNtB2d_2ty4TypeEENCNvNtNtCs9E08dBcDM90_15zerocopy_derive6derive14try_from_bytes29derive_has_field_struct_union0EINtNtB4_6option8IntoIterB2U_EEIBH_B1H_NCB3V_s0_0EENcNtINtB5t_6OptionB2U_E4Some0EEB41_, symObjAddr: 0x1760, symBinAddr: 0x2E120, symSize: 0x20 }
  - { offset: 0x541C7, size: 0x8, addend: 0x0, symName: __RINvNtCsieiGu2EXtoJ_4core3ptr13drop_in_placeINtNtNtNtB4_4iter8adapters3map3MapINtNtBL_9enumerate9EnumerateINtNtBL_7flatten7FlatMapINtNtCsdGrGZaRBwMb_3syn10punctuated4IterNtNtB29_4data7VariantERNtB2K_6FieldsNCNvXs1_NtCs9E08dBcDM90_15zerocopy_derive4utilNtNtB29_6derive8DataEnumNtB3q_7DataExt6fields0EENCINvB3q_10map_fieldsB1G_E0EEB3s_, symObjAddr: 0x1780, symBinAddr: 0x2E140, symSize: 0x20 }
  - { offset: 0x541F6, size: 0x8, addend: 0x0, symName: __RINvNtCsieiGu2EXtoJ_4core3ptr13drop_in_placeINtNtNtNtB4_4iter8adapters3map3MapINtNtBL_9enumerate9EnumerateINtNtCsdGrGZaRBwMb_3syn10punctuated4IterNtNtB1L_4data5FieldEENCINvNtCs9E08dBcDM90_15zerocopy_derive4util10map_fieldsRINtB1J_10PunctuatedB2k_NtNtB1L_5token5CommaEE0EEB2M_, symObjAddr: 0x17A0, symBinAddr: 0x2E160, symSize: 0x20 }
  - { offset: 0x54225, size: 0x8, addend: 0x0, symName: __RINvNtCsieiGu2EXtoJ_4core3ptr13drop_in_placeINtNtNtNtB4_4iter8adapters3map3MapINtNtBL_9enumerate9EnumerateINtNtCsdGrGZaRBwMb_3syn10punctuated4IterNtNtB1L_4data5FieldEENCINvNtCs9E08dBcDM90_15zerocopy_derive4util10map_fieldsRNtB2m_6FieldsE0EEB2M_, symObjAddr: 0x17C0, symBinAddr: 0x2E180, symSize: 0x20 }
  - { offset: 0x54254, size: 0x8, addend: 0x0, symName: __RINvNtCsieiGu2EXtoJ_4core3ptr13drop_in_placeINtNtNtNtB4_4iter8adapters3map3MapINtNtBL_9enumerate9EnumerateINtNtNtCslJiobkLta79_5alloc3vec9into_iter8IntoIterTRNtNtCsdGrGZaRBwMb_3syn11restriction10VisibilityNtCsaKzlTDPUHDb_11proc_macro211TokenStreamRNtNtB2A_2ty4TypeEEENCNCNvNtNtCs9E08dBcDM90_15zerocopy_derive6derive14try_from_bytes19derive_is_bit_valid00EEB4r_, symObjAddr: 0x17E0, symBinAddr: 0x2E1A0, symSize: 0x60 }
  - { offset: 0x54283, size: 0x8, addend: 0x0, symName: __RINvNtCsieiGu2EXtoJ_4core3ptr13drop_in_placeINtNtNtNtB4_4iter8adapters3map3MapINtNtCsdGrGZaRBwMb_3syn10punctuated4IterNtNtB1j_4data5FieldENCNCNvNtNtCs9E08dBcDM90_15zerocopy_derive6derive14try_from_bytes24generate_variant_structs00EEB2m_, symObjAddr: 0x1840, symBinAddr: 0x2E200, symSize: 0x20 }
  - { offset: 0x542B2, size: 0x8, addend: 0x0, symName: __RINvNtCsieiGu2EXtoJ_4core3ptr13drop_in_placeINtNtNtNtB4_4iter8adapters3map3MapINtNtCsdGrGZaRBwMb_3syn10punctuated4IterNtNtB1j_4data5FieldENCNvNtNtCs9E08dBcDM90_15zerocopy_derive6derive10from_bytes22derive_from_zeros_enum0EEB2k_, symObjAddr: 0x1860, symBinAddr: 0x2E220, symSize: 0x20 }
  - { offset: 0x542E1, size: 0x8, addend: 0x0, symName: __RINvNtCsieiGu2EXtoJ_4core3ptr13drop_in_placeINtNtNtNtB4_4iter8adapters3map3MapINtNtCsdGrGZaRBwMb_3syn10punctuated4IterNtNtB1j_4data7VariantENCNvNtCs9E08dBcDM90_15zerocopy_derive4util17generate_tag_enum0EEB2k_, symObjAddr: 0x1880, symBinAddr: 0x2E240, symSize: 0x20 }
  - { offset: 0x54310, size: 0x8, addend: 0x0, symName: __RINvNtCsieiGu2EXtoJ_4core3ptr13drop_in_placeINtNtNtNtB4_4iter8adapters3map3MapINtNtCsdGrGZaRBwMb_3syn10punctuated4IterNtNtB1j_4data7VariantENCNvNtNtCs9E08dBcDM90_15zerocopy_derive6derive14try_from_bytes19derive_is_bit_valids_0EEB2m_, symObjAddr: 0x18A0, symBinAddr: 0x2E260, symSize: 0x20 }
  - { offset: 0x5433F, size: 0x8, addend: 0x0, symName: __RINvNtCsieiGu2EXtoJ_4core3ptr13drop_in_placeINtNtNtNtB4_4iter8adapters3map3MapINtNtCsdGrGZaRBwMb_3syn10punctuated4IterNtNtB1j_4data7VariantENCNvNtNtCs9E08dBcDM90_15zerocopy_derive6derive14try_from_bytes19generate_tag_consts0EEB2m_, symObjAddr: 0x18C0, symBinAddr: 0x2E280, symSize: 0x20 }
  - { offset: 0x5436E, size: 0x8, addend: 0x0, symName: __RINvNtCsieiGu2EXtoJ_4core3ptr13drop_in_placeINtNtNtNtB4_4iter8adapters3map3MapINtNtCsdGrGZaRBwMb_3syn10punctuated4IterNtNtB1j_4data7VariantENCNvXs1_NtCs9E08dBcDM90_15zerocopy_derive4utilNtNtB1j_6derive8DataEnumNtB2m_7DataExt6fields0EEB2o_, symObjAddr: 0x18E0, symBinAddr: 0x2E2A0, symSize: 0x20 }
  - { offset: 0x5439D, size: 0x8, addend: 0x0, symName: __RINvNtCsieiGu2EXtoJ_4core3ptr13drop_in_placeINtNtNtNtB4_4iter8adapters3map3MapINtNtCsdGrGZaRBwMb_3syn10punctuated4IterNtNtB1j_4data7VariantENCNvXs1_NtCs9E08dBcDM90_15zerocopy_derive4utilNtNtB1j_6derive8DataEnumNtB2m_7DataExt8variants0EEB2o_, symObjAddr: 0x1900, symBinAddr: 0x2E2C0, symSize: 0x20 }
  - { offset: 0x543CC, size: 0x8, addend: 0x0, symName: __RINvNtCsieiGu2EXtoJ_4core3ptr13drop_in_placeINtNtNtNtB4_4iter8adapters3map3MapINtNtCsdGrGZaRBwMb_3syn10punctuated4IterNtNtB1j_8generics12GenericParamENCNvMs8_NtCs9E08dBcDM90_15zerocopy_derive4utilNtB2w_16ImplBlockBuilder5builds3_0EEB2y_, symObjAddr: 0x1920, symBinAddr: 0x2E2E0, symSize: 0x20 }
  - { offset: 0x543FB, size: 0x8, addend: 0x0, symName: __RINvNtCsieiGu2EXtoJ_4core3ptr13drop_in_placeINtNtNtNtB4_4iter8adapters3map3MapINtNtCsdGrGZaRBwMb_3syn10punctuated8IntoIterNtNtB1j_8generics12GenericParamENCNvMs8_NtCs9E08dBcDM90_15zerocopy_derive4utilNtB2A_16ImplBlockBuilder5builds1_0EEB2C_, symObjAddr: 0x1940, symBinAddr: 0x2E300, symSize: 0x20 }
  - { offset: 0x5442A, size: 0x8, addend: 0x0, symName: __RINvNtCsieiGu2EXtoJ_4core3ptr13drop_in_placeINtNtNtNtB4_4iter8adapters3map3MapINtNtNtB4_5array4iter8IntoIterNtCsaKzlTDPUHDb_11proc_macro211TokenStreamKj2_ENCINvXsb_B1K_B1I_INtNtNtBN_6traits7collect12FromIteratorB1I_E9from_iterB1e_E0EECs9E08dBcDM90_15zerocopy_derive, symObjAddr: 0x1960, symBinAddr: 0x2E320, symSize: 0x20 }
  - { offset: 0x54459, size: 0x8, addend: 0x0, symName: __RINvNtCsieiGu2EXtoJ_4core3ptr13drop_in_placeINtNtNtNtB4_4iter8adapters3map3MapINtNtNtB4_5slice4iter4IterTRNtNtCsdGrGZaRBwMb_3syn11restriction10VisibilityNtCsaKzlTDPUHDb_11proc_macro211TokenStreamRNtNtB1K_2ty4TypeEENCNvNtNtCs9E08dBcDM90_15zerocopy_derive6derive14try_from_bytes29derive_has_field_struct_unions0_0EEB3y_, symObjAddr: 0x1980, symBinAddr: 0x2E340, symSize: 0x20 }
  - { offset: 0x54488, size: 0x8, addend: 0x0, symName: __RINvNtCsieiGu2EXtoJ_4core3ptr13drop_in_placeINtNtNtNtB4_4iter8adapters3map3MapINtNtNtCslJiobkLta79_5alloc3vec9into_iter8IntoIterTINtNtB4_6option6OptionRNtNtCsdGrGZaRBwMb_3syn4data7VariantEINtB1j_3VecTRNtNtB2u_11restriction10VisibilityNtCsaKzlTDPUHDb_11proc_macro211TokenStreamRNtNtB2u_2ty4TypeEEEENCNvNtNtCs9E08dBcDM90_15zerocopy_derive6derive14try_from_bytes19derive_is_bit_valid0EEB4T_, symObjAddr: 0x19A0, symBinAddr: 0x2E360, symSize: 0x20 }
  - { offset: 0x544B7, size: 0x8, addend: 0x0, symName: __RINvNtCsieiGu2EXtoJ_4core3ptr13drop_in_placeINtNtNtNtB4_4iter8adapters4fuse4FuseINtNtB4_6option8IntoIterINtNtCsdGrGZaRBwMb_3syn10punctuated4IterNtNtB1J_8generics14WherePredicateEEEECs9E08dBcDM90_15zerocopy_derive, symObjAddr: 0x19C0, symBinAddr: 0x2E380, symSize: 0x20 }
  - { offset: 0x544E6, size: 0x8, addend: 0x0, symName: __RINvNtCsieiGu2EXtoJ_4core3ptr13drop_in_placeINtNtNtNtB4_4iter8adapters4fuse4FuseINtNtBL_3map3MapIB1h_INtNtNtB4_5array4iter8IntoIterNtCsaKzlTDPUHDb_11proc_macro211TokenStreamKj2_ENCINvXsb_B27_B25_INtNtNtBN_6traits7collect12FromIteratorB25_E9from_iterB1B_E0ENCINvXs6_NtB27_3impNtB4f_11TokenStreamIB38_B4p_E9from_iterB1w_Es_0EEECs9E08dBcDM90_15zerocopy_derive, symObjAddr: 0x19E0, symBinAddr: 0x2E3A0, symSize: 0x20 }
  - { offset: 0x54515, size: 0x8, addend: 0x0, symName: __RINvNtCsieiGu2EXtoJ_4core3ptr13drop_in_placeINtNtNtNtB4_4iter8adapters4fuse4FuseINtNtBL_3map3MapINtNtBL_5chain5ChainIB1x_IB1h_INtNtNtB4_5slice4iter4IterTRNtNtCsdGrGZaRBwMb_3syn11restriction10VisibilityNtCsaKzlTDPUHDb_11proc_macro211TokenStreamRNtNtB2w_2ty4TypeEENCNvNtNtCs9E08dBcDM90_15zerocopy_derive6derive14try_from_bytes29derive_has_field_struct_union0EINtNtB4_6option8IntoIterB3d_EEIB1h_B20_NCB4e_s0_0EENcNtINtB5M_6OptionB3d_E4Some0EEEB4k_, symObjAddr: 0x1A00, symBinAddr: 0x2E3C0, symSize: 0x20 }
  - { offset: 0x54544, size: 0x8, addend: 0x0, symName: __RINvNtCsieiGu2EXtoJ_4core3ptr13drop_in_placeINtNtNtNtB4_4iter8adapters4fuse4FuseINtNtBL_3map3MapINtNtCsdGrGZaRBwMb_3syn10punctuated4IterNtNtB1B_4data7VariantENCNvXs1_NtCs9E08dBcDM90_15zerocopy_derive4utilNtNtB1B_6derive8DataEnumNtB2E_7DataExt6fields0EEEB2G_, symObjAddr: 0x1A20, symBinAddr: 0x2E3E0, symSize: 0x20 }
  - { offset: 0x54573, size: 0x8, addend: 0x0, symName: __RINvNtCsieiGu2EXtoJ_4core3ptr13drop_in_placeINtNtNtNtB4_4iter8adapters4fuse4FuseINtNtBL_3map3MapINtNtNtCslJiobkLta79_5alloc3vec9into_iter8IntoIterTINtNtB4_6option6OptionRNtNtCsdGrGZaRBwMb_3syn4data7VariantEINtB1B_3VecTRNtNtB2M_11restriction10VisibilityNtCsaKzlTDPUHDb_11proc_macro211TokenStreamRNtNtB2M_2ty4TypeEEEENCNvNtNtCs9E08dBcDM90_15zerocopy_derive6derive14try_from_bytes19derive_is_bit_valid0EEEB5b_, symObjAddr: 0x1A40, symBinAddr: 0x2E400, symSize: 0x20 }
  - { offset: 0x545A2, size: 0x8, addend: 0x0, symName: __RINvNtCsieiGu2EXtoJ_4core3ptr13drop_in_placeINtNtNtNtB4_4iter8adapters4fuse4FuseINtNtNtB4_5array4iter8IntoIterINtNtB4_6option6OptionNtCsaKzlTDPUHDb_11proc_macro211TokenStreamEKj1_EEECs9E08dBcDM90_15zerocopy_derive, symObjAddr: 0x1A60, symBinAddr: 0x2E420, symSize: 0x20 }
  - { offset: 0x545D1, size: 0x8, addend: 0x0, symName: __RINvNtCsieiGu2EXtoJ_4core3ptr13drop_in_placeINtNtNtNtB4_4iter8adapters4fuse4FuseINtNtNtB4_5array4iter8IntoIterINtNtB4_6option6OptionNtCsaKzlTDPUHDb_11proc_macro211TokenStreamEKj3_EEECs9E08dBcDM90_15zerocopy_derive, symObjAddr: 0x1A80, symBinAddr: 0x2E440, symSize: 0x20 }
  - { offset: 0x54600, size: 0x8, addend: 0x0, symName: __RINvNtCsieiGu2EXtoJ_4core3ptr13drop_in_placeINtNtNtNtB4_4iter8adapters5chain5ChainIBH_IBH_INtNtBL_7flatten7FlattenINtNtB4_6option8IntoIterINtNtCsdGrGZaRBwMb_3syn10punctuated4IterNtNtB2h_8generics14WherePredicateEEEINtNtNtB4_5slice4iter4IterB2Q_EEINtB1R_4IterB2Q_EEB3W_EECs9E08dBcDM90_15zerocopy_derive, symObjAddr: 0x1AA0, symBinAddr: 0x2E460, symSize: 0x20 }
  - { offset: 0x5462F, size: 0x8, addend: 0x0, symName: __RINvNtCsieiGu2EXtoJ_4core3ptr13drop_in_placeINtNtNtNtB4_4iter8adapters5chain5ChainIBH_INtNtBL_3map3MapINtNtNtB4_5slice4iter4IterTRNtNtCsdGrGZaRBwMb_3syn11restriction10VisibilityNtCsaKzlTDPUHDb_11proc_macro211TokenStreamRNtNtB28_2ty4TypeEENCNvNtNtCs9E08dBcDM90_15zerocopy_derive6derive14try_from_bytes29derive_has_field_struct_union0EINtNtB4_6option8IntoIterB2P_EEIB1n_B1C_NCB3Q_s0_0EEEB3W_, symObjAddr: 0x1AC0, symBinAddr: 0x2E480, symSize: 0x60 }
  - { offset: 0x5465E, size: 0x8, addend: 0x0, symName: __RINvNtCsieiGu2EXtoJ_4core3ptr13drop_in_placeINtNtNtNtB4_4iter8adapters5chain5ChainIBH_INtNtBL_7flatten7FlattenINtNtB4_6option8IntoIterINtNtCsdGrGZaRBwMb_3syn10punctuated4IterNtNtB2d_8generics14WherePredicateEEEINtNtNtB4_5slice4iter4IterB2M_EEINtB1N_4IterB2M_EEECs9E08dBcDM90_15zerocopy_derive, symObjAddr: 0x1B20, symBinAddr: 0x2E4E0, symSize: 0x20 }
  - { offset: 0x5468D, size: 0x8, addend: 0x0, symName: __RINvNtCsieiGu2EXtoJ_4core3ptr13drop_in_placeINtNtNtNtB4_4iter8adapters5chain5ChainINtNtBL_3map3MapINtNtCsdGrGZaRBwMb_3syn10punctuated8IntoIterNtNtB1D_8generics12GenericParamENCNvMs8_NtCs9E08dBcDM90_15zerocopy_derive4utilNtB2U_16ImplBlockBuilder5builds1_0EINtNtNtCslJiobkLta79_5alloc3vec9into_iter8IntoIterB2g_EEEB2W_, symObjAddr: 0x1B40, symBinAddr: 0x2E500, symSize: 0x60 }
  - { offset: 0x546BC, size: 0x8, addend: 0x0, symName: __RINvNtCsieiGu2EXtoJ_4core3ptr13drop_in_placeINtNtNtNtB4_4iter8adapters5chain5ChainINtNtBL_3map3MapINtNtNtB4_5slice4iter4IterTRNtNtCsdGrGZaRBwMb_3syn11restriction10VisibilityNtCsaKzlTDPUHDb_11proc_macro211TokenStreamRNtNtB24_2ty4TypeEENCNvNtNtCs9E08dBcDM90_15zerocopy_derive6derive14try_from_bytes29derive_has_field_struct_union0EINtNtB4_6option8IntoIterB2L_EEEB3S_, symObjAddr: 0x1BA0, symBinAddr: 0x2E560, symSize: 0x20 }
  - { offset: 0x546EB, size: 0x8, addend: 0x0, symName: __RINvNtCsieiGu2EXtoJ_4core3ptr13drop_in_placeINtNtNtNtB4_4iter8adapters5chain5ChainINtNtBL_7flatten7FlattenINtNtB4_6option8IntoIterINtNtCsdGrGZaRBwMb_3syn10punctuated4IterNtNtB29_8generics14WherePredicateEEEINtNtNtB4_5slice4iter4IterB2I_EEECs9E08dBcDM90_15zerocopy_derive, symObjAddr: 0x1BC0, symBinAddr: 0x2E580, symSize: 0x20 }
  - { offset: 0x5471A, size: 0x8, addend: 0x0, symName: __RINvNtCsieiGu2EXtoJ_4core3ptr13drop_in_placeINtNtNtNtB4_4iter8adapters7flatten13FlattenCompatINtNtB4_6option8IntoIterINtNtCsdGrGZaRBwMb_3syn10punctuated4IterNtNtB1W_8generics14WherePredicateEEB1R_EECs9E08dBcDM90_15zerocopy_derive, symObjAddr: 0x1BE0, symBinAddr: 0x2E5A0, symSize: 0x90 }
  - { offset: 0x54749, size: 0x8, addend: 0x0, symName: __RINvNtCsieiGu2EXtoJ_4core3ptr13drop_in_placeINtNtNtNtB4_4iter8adapters7flatten13FlattenCompatINtNtBL_3map3MapIB1u_INtNtNtB4_5array4iter8IntoIterNtCsaKzlTDPUHDb_11proc_macro211TokenStreamKj2_ENCINvXsb_B2k_B2i_INtNtNtBN_6traits7collect12FromIteratorB2i_E9from_iterB1O_E0ENCINvXs6_NtB2k_3impNtB4s_11TokenStreamIB3l_B4C_E9from_iterB1J_Es_0EINtNtB2k_5rcvec13RcVecIntoIterNtB2k_9TokenTreeEEECs9E08dBcDM90_15zerocopy_derive, symObjAddr: 0x1C70, symBinAddr: 0x2E630, symSize: 0x90 }
  - { offset: 0x54778, size: 0x8, addend: 0x0, symName: __RINvNtCsieiGu2EXtoJ_4core3ptr13drop_in_placeINtNtNtNtB4_4iter8adapters7flatten13FlattenCompatINtNtBL_3map3MapINtNtBL_5chain5ChainIB1K_IB1u_INtNtNtB4_5slice4iter4IterTRNtNtCsdGrGZaRBwMb_3syn11restriction10VisibilityNtCsaKzlTDPUHDb_11proc_macro211TokenStreamRNtNtB2J_2ty4TypeEENCNvNtNtCs9E08dBcDM90_15zerocopy_derive6derive14try_from_bytes29derive_has_field_struct_union0EINtNtB4_6option8IntoIterB3q_EEIB1u_B2d_NCB4r_s0_0EENcNtINtB5Z_6OptionB3q_E4Some0EB5W_EEB4x_, symObjAddr: 0x1D00, symBinAddr: 0x2E6C0, symSize: 0x90 }
  - { offset: 0x547A7, size: 0x8, addend: 0x0, symName: __RINvNtCsieiGu2EXtoJ_4core3ptr13drop_in_placeINtNtNtNtB4_4iter8adapters7flatten13FlattenCompatINtNtBL_3map3MapINtNtCsdGrGZaRBwMb_3syn10punctuated4IterNtNtB1O_4data7VariantENCNvXs1_NtCs9E08dBcDM90_15zerocopy_derive4utilNtNtB1O_6derive8DataEnumNtB2R_7DataExt6fields0EIB1K_NtB2p_5FieldEEEB2T_, symObjAddr: 0x1D90, symBinAddr: 0x2E750, symSize: 0x90 }
  - { offset: 0x547D6, size: 0x8, addend: 0x0, symName: __RINvNtCsieiGu2EXtoJ_4core3ptr13drop_in_placeINtNtNtNtB4_4iter8adapters7flatten13FlattenCompatINtNtBL_3map3MapINtNtNtCslJiobkLta79_5alloc3vec9into_iter8IntoIterTINtNtB4_6option6OptionRNtNtCsdGrGZaRBwMb_3syn4data7VariantEINtB1O_3VecTRNtNtB2Z_11restriction10VisibilityNtCsaKzlTDPUHDb_11proc_macro211TokenStreamRNtNtB2Z_2ty4TypeEEEENCNvNtNtCs9E08dBcDM90_15zerocopy_derive6derive14try_from_bytes19derive_is_bit_valid0EIB1u_INtNtBL_9enumerate9EnumerateIB1K_B3G_EENCNCB5i_00EEEB5o_, symObjAddr: 0x1E20, symBinAddr: 0x2E7E0, symSize: 0x90 }
  - { offset: 0x54805, size: 0x8, addend: 0x0, symName: __RINvNtCsieiGu2EXtoJ_4core3ptr13drop_in_placeINtNtNtNtB4_4iter8adapters7flatten13FlattenCompatINtNtNtB4_5array4iter8IntoIterINtNtB4_6option6OptionNtCsaKzlTDPUHDb_11proc_macro211TokenStreamEKj1_EINtB20_8IntoIterB2j_EEECs9E08dBcDM90_15zerocopy_derive, symObjAddr: 0x1EB0, symBinAddr: 0x2E870, symSize: 0x90 }
  - { offset: 0x54834, size: 0x8, addend: 0x0, symName: __RINvNtCsieiGu2EXtoJ_4core3ptr13drop_in_placeINtNtNtNtB4_4iter8adapters7flatten13FlattenCompatINtNtNtB4_5array4iter8IntoIterINtNtB4_6option6OptionNtCsaKzlTDPUHDb_11proc_macro211TokenStreamEKj3_EINtB20_8IntoIterB2j_EEECs9E08dBcDM90_15zerocopy_derive, symObjAddr: 0x1F40, symBinAddr: 0x2E900, symSize: 0x90 }
  - { offset: 0x54863, size: 0x8, addend: 0x0, symName: __RINvNtCsieiGu2EXtoJ_4core3ptr13drop_in_placeINtNtNtNtB4_4iter8adapters7flatten7FlatMapINtNtCsdGrGZaRBwMb_3syn10punctuated4IterNtNtB1r_4data7VariantERNtB22_6FieldsNCNvXs1_NtCs9E08dBcDM90_15zerocopy_derive4utilNtNtB1r_6derive8DataEnumNtB2I_7DataExt6fields0EEB2K_, symObjAddr: 0x1FD0, symBinAddr: 0x2E990, symSize: 0x20 }
  - { offset: 0x54892, size: 0x8, addend: 0x0, symName: __RINvNtCsieiGu2EXtoJ_4core3ptr13drop_in_placeINtNtNtNtB4_4iter8adapters7flatten7FlatMapINtNtNtCslJiobkLta79_5alloc3vec9into_iter8IntoIterTINtNtB4_6option6OptionRNtNtCsdGrGZaRBwMb_3syn4data7VariantEINtB1r_3VecTRNtNtB2C_11restriction10VisibilityNtCsaKzlTDPUHDb_11proc_macro211TokenStreamRNtNtB2C_2ty4TypeEEEEINtNtBL_3map3MapINtNtBL_9enumerate9EnumerateIB1n_B3j_EENCNCNvNtNtCs9E08dBcDM90_15zerocopy_derive6derive14try_from_bytes19derive_is_bit_valid00ENCB5Q_0EEB5W_, symObjAddr: 0x1FF0, symBinAddr: 0x2E9B0, symSize: 0x20 }
  - { offset: 0x548C1, size: 0x8, addend: 0x0, symName: __RINvNtCsieiGu2EXtoJ_4core3ptr13drop_in_placeINtNtNtNtB4_4iter8adapters7flatten7FlattenINtNtB4_6option8IntoIterINtNtCsdGrGZaRBwMb_3syn10punctuated4IterNtNtB1P_8generics14WherePredicateEEEECs9E08dBcDM90_15zerocopy_derive, symObjAddr: 0x2010, symBinAddr: 0x2E9D0, symSize: 0x20 }
  - { offset: 0x548F0, size: 0x8, addend: 0x0, symName: __RINvNtCsieiGu2EXtoJ_4core3ptr13drop_in_placeINtNtNtNtB4_4iter8adapters7flatten7FlattenINtNtBL_3map3MapIB1n_INtNtNtB4_5array4iter8IntoIterNtCsaKzlTDPUHDb_11proc_macro211TokenStreamKj2_ENCINvXsb_B2d_B2b_INtNtNtBN_6traits7collect12FromIteratorB2b_E9from_iterB1H_E0ENCINvXs6_NtB2d_3impNtB4l_11TokenStreamIB3e_B4v_E9from_iterB1C_Es_0EEECs9E08dBcDM90_15zerocopy_derive, symObjAddr: 0x2030, symBinAddr: 0x2E9F0, symSize: 0x20 }
  - { offset: 0x5491F, size: 0x8, addend: 0x0, symName: __RINvNtCsieiGu2EXtoJ_4core3ptr13drop_in_placeINtNtNtNtB4_4iter8adapters7flatten7FlattenINtNtBL_3map3MapINtNtBL_5chain5ChainIB1D_IB1n_INtNtNtB4_5slice4iter4IterTRNtNtCsdGrGZaRBwMb_3syn11restriction10VisibilityNtCsaKzlTDPUHDb_11proc_macro211TokenStreamRNtNtB2C_2ty4TypeEENCNvNtNtCs9E08dBcDM90_15zerocopy_derive6derive14try_from_bytes29derive_has_field_struct_union0EINtNtB4_6option8IntoIterB3j_EEIB1n_B26_NCB4k_s0_0EENcNtINtB5S_6OptionB3j_E4Some0EEEB4q_, symObjAddr: 0x2050, symBinAddr: 0x2EA10, symSize: 0x20 }
  - { offset: 0x5494E, size: 0x8, addend: 0x0, symName: __RINvNtCsieiGu2EXtoJ_4core3ptr13drop_in_placeINtNtNtNtB4_4iter8adapters7flatten7FlattenINtNtNtB4_5array4iter8IntoIterINtNtB4_6option6OptionNtCsaKzlTDPUHDb_11proc_macro211TokenStreamEKj1_EEECs9E08dBcDM90_15zerocopy_derive, symObjAddr: 0x2070, symBinAddr: 0x2EA30, symSize: 0x20 }
  - { offset: 0x5497D, size: 0x8, addend: 0x0, symName: __RINvNtCsieiGu2EXtoJ_4core3ptr13drop_in_placeINtNtNtNtB4_4iter8adapters7flatten7FlattenINtNtNtB4_5array4iter8IntoIterINtNtB4_6option6OptionNtCsaKzlTDPUHDb_11proc_macro211TokenStreamEKj3_EEECs9E08dBcDM90_15zerocopy_derive, symObjAddr: 0x2090, symBinAddr: 0x2EA50, symSize: 0x20 }
  - { offset: 0x549AC, size: 0x8, addend: 0x0, symName: __RINvNtCsieiGu2EXtoJ_4core3ptr13drop_in_placeINtNtNtNtB4_4iter8adapters9enumerate9EnumerateINtNtBL_7flatten7FlatMapINtNtCsdGrGZaRBwMb_3syn10punctuated4IterNtNtB1T_4data7VariantERNtB2u_6FieldsNCNvXs1_NtCs9E08dBcDM90_15zerocopy_derive4utilNtNtB1T_6derive8DataEnumNtB3a_7DataExt6fields0EEEB3c_, symObjAddr: 0x20B0, symBinAddr: 0x2EA70, symSize: 0x20 }
  - { offset: 0x549DB, size: 0x8, addend: 0x0, symName: __RINvNtCsieiGu2EXtoJ_4core3ptr13drop_in_placeINtNtNtNtB4_4iter8adapters9enumerate9EnumerateINtNtCsdGrGZaRBwMb_3syn10punctuated4IterNtNtB1v_4data5FieldEEECs9E08dBcDM90_15zerocopy_derive, symObjAddr: 0x20D0, symBinAddr: 0x2EA90, symSize: 0x20 }
  - { offset: 0x54A0A, size: 0x8, addend: 0x0, symName: __RINvNtCsieiGu2EXtoJ_4core3ptr13drop_in_placeINtNtNtNtB4_4iter8adapters9enumerate9EnumerateINtNtCsdGrGZaRBwMb_3syn10punctuated4IterNtNtB1v_4data7VariantEEECs9E08dBcDM90_15zerocopy_derive, symObjAddr: 0x20F0, symBinAddr: 0x2EAB0, symSize: 0x20 }
  - { offset: 0x54A39, size: 0x8, addend: 0x0, symName: __RINvNtCsieiGu2EXtoJ_4core3ptr13drop_in_placeINtNtNtNtB4_4iter8adapters9enumerate9EnumerateINtNtNtCslJiobkLta79_5alloc3vec9into_iter8IntoIterTRNtNtCsdGrGZaRBwMb_3syn11restriction10VisibilityNtCsaKzlTDPUHDb_11proc_macro211TokenStreamRNtNtB2k_2ty4TypeEEEECs9E08dBcDM90_15zerocopy_derive, symObjAddr: 0x2110, symBinAddr: 0x2EAD0, symSize: 0x20 }
  - { offset: 0x54A68, size: 0x8, addend: 0x0, symName: __RINvNtCsieiGu2EXtoJ_4core3ptr13drop_in_placeINtNtNtNtB4_5array4iter10iter_inner15PolymorphicIterAINtNtNtB4_3mem12maybe_uninit11MaybeUninitINtNtB4_6option6OptionNtCsaKzlTDPUHDb_11proc_macro211TokenStreamEEj1_EECs9E08dBcDM90_15zerocopy_derive, symObjAddr: 0x2130, symBinAddr: 0x2EAF0, symSize: 0x20 }
  - { offset: 0x54A97, size: 0x8, addend: 0x0, symName: __RINvNtCsieiGu2EXtoJ_4core3ptr13drop_in_placeINtNtNtNtB4_5array4iter10iter_inner15PolymorphicIterAINtNtNtB4_3mem12maybe_uninit11MaybeUninitINtNtB4_6option6OptionNtCsaKzlTDPUHDb_11proc_macro211TokenStreamEEj3_EECs9E08dBcDM90_15zerocopy_derive, symObjAddr: 0x2150, symBinAddr: 0x2EB10, symSize: 0x20 }
  - { offset: 0x54AC6, size: 0x8, addend: 0x0, symName: __RINvNtCsieiGu2EXtoJ_4core3ptr13drop_in_placeINtNtNtNtB4_5array4iter10iter_inner15PolymorphicIterAINtNtNtB4_3mem12maybe_uninit11MaybeUninitNtCsaKzlTDPUHDb_11proc_macro211TokenStreamEj2_EECs9E08dBcDM90_15zerocopy_derive, symObjAddr: 0x2170, symBinAddr: 0x2EB30, symSize: 0x20 }
  - { offset: 0x54AF5, size: 0x8, addend: 0x0, symName: __RINvNtCsieiGu2EXtoJ_4core3ptr13drop_in_placeINtNtNtNtB4_5array4iter10iter_inner15PolymorphicIterAINtNtNtB4_3mem12maybe_uninit11MaybeUninitjEj2_EECs9E08dBcDM90_15zerocopy_derive, symObjAddr: 0x2190, symBinAddr: 0x2EB50, symSize: 0x20 }
  - { offset: 0x54B24, size: 0x8, addend: 0x0, symName: __RINvNtCsieiGu2EXtoJ_4core3ptr13drop_in_placeINtNtNtNtNtB4_5slice4sort6shared9smallsort10CopyOnDropTljEEECs9E08dBcDM90_15zerocopy_derive, symObjAddr: 0x21B0, symBinAddr: 0x2EB70, symSize: 0x20 }
  - { offset: 0x54B53, size: 0x8, addend: 0x0, symName: __RINvNtCsieiGu2EXtoJ_4core3ptr13drop_in_placeINtNtNtNtNtB4_5slice4sort6shared9smallsort10CopyOnDropTlmEEECs9E08dBcDM90_15zerocopy_derive, symObjAddr: 0x21D0, symBinAddr: 0x2EB90, symSize: 0x20 }
  - { offset: 0x54B82, size: 0x8, addend: 0x0, symName: __RINvNtCsieiGu2EXtoJ_4core3ptr13drop_in_placeINtNtNtNtNtB4_5slice4sort8unstable9quicksort11GapGuardRawTljEEECs9E08dBcDM90_15zerocopy_derive, symObjAddr: 0x21F0, symBinAddr: 0x2EBB0, symSize: 0x20 }
  - { offset: 0x54BB1, size: 0x8, addend: 0x0, symName: __RINvNtCsieiGu2EXtoJ_4core3ptr13drop_in_placeINtNtNtNtNtB4_5slice4sort8unstable9quicksort11GapGuardRawTlmEEECs9E08dBcDM90_15zerocopy_derive, symObjAddr: 0x2210, symBinAddr: 0x2EBD0, symSize: 0x20 }
  - { offset: 0x54BE0, size: 0x8, addend: 0x0, symName: __RINvNtCsieiGu2EXtoJ_4core3ptr13drop_in_placeINtNvXsd_NtNtCslJiobkLta79_5alloc3vec9into_iterINtBP_8IntoIterppENtNtNtB4_3ops4drop4Drop4drop9DropGuardNtNtCsdGrGZaRBwMb_3syn4attr4MetaNtNtBT_5alloc6GlobalEECs9E08dBcDM90_15zerocopy_derive, symObjAddr: 0x22B0, symBinAddr: 0x2EBF0, symSize: 0x20 }
  - { offset: 0x54C0F, size: 0x8, addend: 0x0, symName: __RINvNtCsieiGu2EXtoJ_4core3ptr13drop_in_placeINtNvXsd_NtNtCslJiobkLta79_5alloc3vec9into_iterINtBP_8IntoIterppENtNtNtB4_3ops4drop4Drop4drop9DropGuardNtNtCsdGrGZaRBwMb_3syn8generics12GenericParamNtNtBT_5alloc6GlobalEECs9E08dBcDM90_15zerocopy_derive, symObjAddr: 0x22D0, symBinAddr: 0x2EC10, symSize: 0x20 }
  - { offset: 0x54C3E, size: 0x8, addend: 0x0, symName: __RINvNtCsieiGu2EXtoJ_4core3ptr13drop_in_placeINtNvXsd_NtNtCslJiobkLta79_5alloc3vec9into_iterINtBP_8IntoIterppENtNtNtB4_3ops4drop4Drop4drop9DropGuardTINtNtB4_6option6OptionRNtNtCsdGrGZaRBwMb_3syn4data7VariantEINtBR_3VecTRNtNtB2N_11restriction10VisibilityNtCsaKzlTDPUHDb_11proc_macro211TokenStreamRNtNtB2N_2ty4TypeEEENtNtBT_5alloc6GlobalEECs9E08dBcDM90_15zerocopy_derive, symObjAddr: 0x22F0, symBinAddr: 0x2EC30, symSize: 0x20 }
  - { offset: 0x54C6D, size: 0x8, addend: 0x0, symName: __RINvNtCsieiGu2EXtoJ_4core3ptr13drop_in_placeINtNvXsd_NtNtCslJiobkLta79_5alloc3vec9into_iterINtBP_8IntoIterppENtNtNtB4_3ops4drop4Drop4drop9DropGuardTNtNtCsdGrGZaRBwMb_3syn4attr4MetaNtNtB2q_5token5CommaENtNtBT_5alloc6GlobalEECs9E08dBcDM90_15zerocopy_derive, symObjAddr: 0x2310, symBinAddr: 0x2EC50, symSize: 0x20 }
  - { offset: 0x54C9C, size: 0x8, addend: 0x0, symName: __RINvNtCsieiGu2EXtoJ_4core3ptr13drop_in_placeINtNvXsd_NtNtCslJiobkLta79_5alloc3vec9into_iterINtBP_8IntoIterppENtNtNtB4_3ops4drop4Drop4drop9DropGuardTNtNtCsdGrGZaRBwMb_3syn8generics12GenericParamNtNtB2q_5token5CommaENtNtBT_5alloc6GlobalEECs9E08dBcDM90_15zerocopy_derive, symObjAddr: 0x2330, symBinAddr: 0x2EC70, symSize: 0x20 }
  - { offset: 0x54CCB, size: 0x8, addend: 0x0, symName: __RINvNtCsieiGu2EXtoJ_4core3ptr13drop_in_placeINtNvXsd_NtNtCslJiobkLta79_5alloc3vec9into_iterINtBP_8IntoIterppENtNtNtB4_3ops4drop4Drop4drop9DropGuardTRNtNtCsdGrGZaRBwMb_3syn11restriction10VisibilityNtCsaKzlTDPUHDb_11proc_macro211TokenStreamRNtNtB2r_2ty4TypeENtNtBT_5alloc6GlobalEECs9E08dBcDM90_15zerocopy_derive, symObjAddr: 0x2350, symBinAddr: 0x2EC90, symSize: 0x20 }
  - { offset: 0x54CFA, size: 0x8, addend: 0x0, symName: __RINvNtCsieiGu2EXtoJ_4core3ptr13drop_in_placeNCINvMsi_NtCslJiobkLta79_5alloc3vecINtBP_3VecNtCsaKzlTDPUHDb_11proc_macro25IdentE14extend_trustedINtNtNtNtB4_4iter8adapters3map3MapINtNtNtB4_5slice4iter4IterTRNtNtCsdGrGZaRBwMb_3syn11restriction10VisibilityNtB1r_11TokenStreamRNtNtB3j_2ty4TypeEENCNvNtNtCs9E08dBcDM90_15zerocopy_derive6derive12known_layout37derive_known_layout_for_repr_c_structs5_0EE0EB4K_, symObjAddr: 0x2370, symBinAddr: 0x2ECB0, symSize: 0x20 }
  - { offset: 0x54D29, size: 0x8, addend: 0x0, symName: __RINvNtCsieiGu2EXtoJ_4core3ptr13drop_in_placeNCINvMsi_NtCslJiobkLta79_5alloc3vecINtBP_3VecNtNtCsdGrGZaRBwMb_3syn8generics14WherePredicateE14extend_trustedINtNtNtNtB4_4iter8adapters3map3MapINtNtNtB4_5slice4iter4IterTRNtNtB1t_11restriction10VisibilityNtCsaKzlTDPUHDb_11proc_macro211TokenStreamRNtNtB1t_2ty4TypeEENCNvMs8_NtCs9E08dBcDM90_15zerocopy_derive4utilNtB55_16ImplBlockBuilder5build0EE0EB57_, symObjAddr: 0x2390, symBinAddr: 0x2ECD0, symSize: 0x20 }
  - { offset: 0x54D58, size: 0x8, addend: 0x0, symName: __RINvNtCsieiGu2EXtoJ_4core3ptr13drop_in_placeNCINvMsi_NtCslJiobkLta79_5alloc3vecINtBP_3VecTljEE14extend_trustedINtNtNtNtB4_4iter8adapters3map3MapINtNtB1P_9enumerate9EnumerateIB1L_INtNtNtB4_5slice4iter4IterNtNtCsdGrGZaRBwMb_3syn8generics12GenericParamENCNvMs8_NtCs9E08dBcDM90_15zerocopy_derive4utilNtB48_16ImplBlockBuilder5builds2_0EENCINvMNtBR_5sliceSB3g_18sort_by_cached_keylB40_Es_0EE0EB4a_, symObjAddr: 0x23B0, symBinAddr: 0x2ECF0, symSize: 0x20 }
  - { offset: 0x54D87, size: 0x8, addend: 0x0, symName: __RINvNtCsieiGu2EXtoJ_4core3ptr13drop_in_placeNCINvMsi_NtCslJiobkLta79_5alloc3vecINtBP_3VecTlmEE14extend_trustedINtNtNtNtB4_4iter8adapters3map3MapINtNtB1P_9enumerate9EnumerateIB1L_INtNtNtB4_5slice4iter4IterNtNtCsdGrGZaRBwMb_3syn8generics12GenericParamENCNvMs8_NtCs9E08dBcDM90_15zerocopy_derive4utilNtB48_16ImplBlockBuilder5builds2_0EENCINvMNtBR_5sliceSB3g_18sort_by_cached_keylB40_E0EE0EB4a_, symObjAddr: 0x23D0, symBinAddr: 0x2ED10, symSize: 0x20 }
  - { offset: 0x54DB6, size: 0x8, addend: 0x0, symName: __RINvNtCsieiGu2EXtoJ_4core3ptr13drop_in_placeNCINvNtNtNtB4_4iter8adapters3map8map_foldRNtNtCsdGrGZaRBwMb_3syn8generics12GenericParamluNCNvMs8_NtCs9E08dBcDM90_15zerocopy_derive4utilNtB2f_16ImplBlockBuilder5builds2_0NCINvNvXs_NtBN_9enumerateINtB3z_9EnumeratepENtNtNtBP_6traits8iterator8Iterator4fold9enumerateluNCIBJ_TjlETljEuNCINvMNtCslJiobkLta79_5alloc5sliceSB1m_18sort_by_cached_keylB27_Es_0NCINvNvB47_8for_each4callB56_NCINvMsi_NtB5j_3vecINtB6T_3VecB56_E14extend_trustedINtBL_3MapIB3P_IB7A_INtNtNtB4_5slice4iter4IterB1m_EB27_EEB5b_EE0E0E0E0E0EB2h_, symObjAddr: 0x23F0, symBinAddr: 0x2ED30, symSize: 0x20 }
  - { offset: 0x54DE5, size: 0x8, addend: 0x0, symName: __RINvNtCsieiGu2EXtoJ_4core3ptr13drop_in_placeNCINvNtNtNtB4_4iter8adapters3map8map_foldRNtNtCsdGrGZaRBwMb_3syn8generics12GenericParamluNCNvMs8_NtCs9E08dBcDM90_15zerocopy_derive4utilNtB2f_16ImplBlockBuilder5builds2_0NCINvNvXs_NtBN_9enumerateINtB3z_9EnumeratepENtNtNtBP_6traits8iterator8Iterator4fold9enumerateluNCIBJ_TjlETlmEuNCINvMNtCslJiobkLta79_5alloc5sliceSB1m_18sort_by_cached_keylB27_E0NCINvNvB47_8for_each4callB56_NCINvMsi_NtB5j_3vecINtB6R_3VecB56_E14extend_trustedINtBL_3MapIB3P_IB7y_INtNtNtB4_5slice4iter4IterB1m_EB27_EEB5b_EE0E0E0E0E0EB2h_, symObjAddr: 0x2410, symBinAddr: 0x2ED50, symSize: 0x20 }
  - { offset: 0x54E14, size: 0x8, addend: 0x0, symName: __RINvNtCsieiGu2EXtoJ_4core3ptr13drop_in_placeNCINvNtNtNtB4_4iter8adapters3map8map_foldRTRNtNtCsdGrGZaRBwMb_3syn11restriction10VisibilityNtCsaKzlTDPUHDb_11proc_macro211TokenStreamRNtNtB1s_2ty4TypeENtB2b_5IdentuNCNvNtNtCs9E08dBcDM90_15zerocopy_derive6derive12known_layout37derive_known_layout_for_repr_c_structs5_0NCINvNvNtNtNtBP_6traits8iterator8Iterator8for_each4callB37_NCINvMsi_NtCslJiobkLta79_5alloc3vecINtB65_3VecB37_E14extend_trustedINtBL_3MapINtNtNtB4_5slice4iter4IterB1m_EB3k_EE0E0E0EB3s_, symObjAddr: 0x2430, symBinAddr: 0x2ED70, symSize: 0x20 }
  - { offset: 0x54E43, size: 0x8, addend: 0x0, symName: __RINvNtCsieiGu2EXtoJ_4core3ptr13drop_in_placeNCINvNtNtNtB4_4iter8adapters3map8map_foldRTRNtNtCsdGrGZaRBwMb_3syn11restriction10VisibilityNtCsaKzlTDPUHDb_11proc_macro211TokenStreamRNtNtB1s_2ty4TypeENtNtB1s_8generics14WherePredicateuNCNvMs8_NtCs9E08dBcDM90_15zerocopy_derive4utilNtB3N_16ImplBlockBuilder5build0NCINvNvNtNtNtBP_6traits8iterator8Iterator8for_each4callB37_NCINvMsi_NtCslJiobkLta79_5alloc3vecINtB60_3VecB37_E14extend_trustedINtBL_3MapINtNtNtB4_5slice4iter4IterB1m_EB3F_EE0E0E0EB3P_, symObjAddr: 0x2450, symBinAddr: 0x2ED90, symSize: 0x20 }
  - { offset: 0x54E72, size: 0x8, addend: 0x0, symName: __RINvNtCsieiGu2EXtoJ_4core3ptr13drop_in_placeNCINvNtNtNtB4_4iter8adapters3map8map_foldTjlETljEuNCINvMNtCslJiobkLta79_5alloc5sliceSNtNtCsdGrGZaRBwMb_3syn8generics12GenericParam18sort_by_cached_keylNCNvMs8_NtCs9E08dBcDM90_15zerocopy_derive4utilNtB3f_16ImplBlockBuilder5builds2_0Es_0NCINvNvNtNtNtBP_6traits8iterator8Iterator8for_each4callB1p_NCINvMsi_NtB1C_3vecINtB5z_3VecB1p_E14extend_trustedINtBL_3MapINtNtBN_9enumerate9EnumerateIB6g_INtNtNtB4_5slice4iter4IterB23_EB37_EEB1u_EE0E0E0EB3h_, symObjAddr: 0x2470, symBinAddr: 0x2EDB0, symSize: 0x20 }
  - { offset: 0x54EA1, size: 0x8, addend: 0x0, symName: __RINvNtCsieiGu2EXtoJ_4core3ptr13drop_in_placeNCINvNtNtNtB4_4iter8adapters3map8map_foldTjlETlmEuNCINvMNtCslJiobkLta79_5alloc5sliceSNtNtCsdGrGZaRBwMb_3syn8generics12GenericParam18sort_by_cached_keylNCNvMs8_NtCs9E08dBcDM90_15zerocopy_derive4utilNtB3f_16ImplBlockBuilder5builds2_0E0NCINvNvNtNtNtBP_6traits8iterator8Iterator8for_each4callB1p_NCINvMsi_NtB1C_3vecINtB5x_3VecB1p_E14extend_trustedINtBL_3MapINtNtBN_9enumerate9EnumerateIB6e_INtNtNtB4_5slice4iter4IterB23_EB37_EEB1u_EE0E0E0EB3h_, symObjAddr: 0x2490, symBinAddr: 0x2EDD0, symSize: 0x20 }
  - { offset: 0x54ED0, size: 0x8, addend: 0x0, symName: __RINvNtCsieiGu2EXtoJ_4core3ptr13drop_in_placeNCINvNvNtNtNtNtB4_4iter6traits8iterator8Iterator8for_each4callNtCsaKzlTDPUHDb_11proc_macro25IdentNCINvMsi_NtCslJiobkLta79_5alloc3vecINtB2o_3VecB1G_E14extend_trustedINtNtNtBT_8adapters3map3MapINtNtNtB4_5slice4iter4IterTRNtNtCsdGrGZaRBwMb_3syn11restriction10VisibilityNtB1I_11TokenStreamRNtNtB4h_2ty4TypeEENCNvNtNtCs9E08dBcDM90_15zerocopy_derive6derive12known_layout37derive_known_layout_for_repr_c_structs5_0EE0E0EB5I_, symObjAddr: 0x24B0, symBinAddr: 0x2EDF0, symSize: 0x20 }
  - { offset: 0x54EFF, size: 0x8, addend: 0x0, symName: __RINvNtCsieiGu2EXtoJ_4core3ptr13drop_in_placeNCINvNvNtNtNtNtB4_4iter6traits8iterator8Iterator8for_each4callNtNtCsdGrGZaRBwMb_3syn8generics14WherePredicateNCINvMsi_NtCslJiobkLta79_5alloc3vecINtB2A_3VecB1G_E14extend_trustedINtNtNtBT_8adapters3map3MapINtNtNtB4_5slice4iter4IterTRNtNtB1K_11restriction10VisibilityNtCsaKzlTDPUHDb_11proc_macro211TokenStreamRNtNtB1K_2ty4TypeEENCNvMs8_NtCs9E08dBcDM90_15zerocopy_derive4utilNtB63_16ImplBlockBuilder5build0EE0E0EB65_, symObjAddr: 0x24D0, symBinAddr: 0x2EE10, symSize: 0x20 }
  - { offset: 0x54F2E, size: 0x8, addend: 0x0, symName: __RINvNtCsieiGu2EXtoJ_4core3ptr13drop_in_placeNCINvNvNtNtNtNtB4_4iter6traits8iterator8Iterator8for_each4callTljENCINvMsi_NtCslJiobkLta79_5alloc3vecINtB1T_3VecB1G_E14extend_trustedINtNtNtBT_8adapters3map3MapINtNtB2U_9enumerate9EnumerateIB2Q_INtNtNtB4_5slice4iter4IterNtNtCsdGrGZaRBwMb_3syn8generics12GenericParamENCNvMs8_NtCs9E08dBcDM90_15zerocopy_derive4utilNtB56_16ImplBlockBuilder5builds2_0EENCINvMNtB1V_5sliceSB4e_18sort_by_cached_keylB4Y_Es_0EE0E0EB58_, symObjAddr: 0x24F0, symBinAddr: 0x2EE30, symSize: 0x20 }
  - { offset: 0x54F5D, size: 0x8, addend: 0x0, symName: __RINvNtCsieiGu2EXtoJ_4core3ptr13drop_in_placeNCINvNvNtNtNtNtB4_4iter6traits8iterator8Iterator8for_each4callTlmENCINvMsi_NtCslJiobkLta79_5alloc3vecINtB1T_3VecB1G_E14extend_trustedINtNtNtBT_8adapters3map3MapINtNtB2U_9enumerate9EnumerateIB2Q_INtNtNtB4_5slice4iter4IterNtNtCsdGrGZaRBwMb_3syn8generics12GenericParamENCNvMs8_NtCs9E08dBcDM90_15zerocopy_derive4utilNtB56_16ImplBlockBuilder5builds2_0EENCINvMNtB1V_5sliceSB4e_18sort_by_cached_keylB4Y_E0EE0E0EB58_, symObjAddr: 0x2510, symBinAddr: 0x2EE50, symSize: 0x20 }
  - { offset: 0x54F8C, size: 0x8, addend: 0x0, symName: __RINvNtCsieiGu2EXtoJ_4core3ptr13drop_in_placeNCINvNvXs_NtNtNtB4_4iter8adapters9enumerateINtBQ_9EnumeratepENtNtNtBU_6traits8iterator8Iterator4fold9enumerateluNCINvNtBS_3map8map_foldTjlETljEuNCINvMNtCslJiobkLta79_5alloc5sliceSNtNtCsdGrGZaRBwMb_3syn8generics12GenericParam18sort_by_cached_keylNCNvMs8_NtCs9E08dBcDM90_15zerocopy_derive4utilNtB4L_16ImplBlockBuilder5builds2_0Es_0NCINvNvB1F_8for_each4callB2V_NCINvMsi_NtB38_3vecINtB6B_3VecB2V_E14extend_trustedINtB2z_3MapIB1o_IB7i_INtNtNtB4_5slice4iter4IterB3z_EB4D_EEB30_EE0E0E0E0EB4N_, symObjAddr: 0x2530, symBinAddr: 0x2EE70, symSize: 0x20 }
  - { offset: 0x54FBB, size: 0x8, addend: 0x0, symName: __RINvNtCsieiGu2EXtoJ_4core3ptr13drop_in_placeNCINvNvXs_NtNtNtB4_4iter8adapters9enumerateINtBQ_9EnumeratepENtNtNtBU_6traits8iterator8Iterator4fold9enumerateluNCINvNtBS_3map8map_foldTjlETlmEuNCINvMNtCslJiobkLta79_5alloc5sliceSNtNtCsdGrGZaRBwMb_3syn8generics12GenericParam18sort_by_cached_keylNCNvMs8_NtCs9E08dBcDM90_15zerocopy_derive4utilNtB4L_16ImplBlockBuilder5builds2_0E0NCINvNvB1F_8for_each4callB2V_NCINvMsi_NtB38_3vecINtB6z_3VecB2V_E14extend_trustedINtB2z_3MapIB1o_IB7g_INtNtNtB4_5slice4iter4IterB3z_EB4D_EEB30_EE0E0E0E0EB4N_, symObjAddr: 0x2550, symBinAddr: 0x2EE90, symSize: 0x20 }
  - { offset: 0x54FEA, size: 0x8, addend: 0x0, symName: __RINvNtCsieiGu2EXtoJ_4core3ptr13drop_in_placeNCNCINvNtNtCscKtU6MdFI5n_10proc_macro6bridge6client10run_clientNtBN_11TokenStreamINtNtB4_6option6OptionB1H_ENCNCINvMs6_BN_INtBN_6ClientNtBR_11TokenStreamB2R_E7expand1NvCs9E08dBcDM90_15zerocopy_derive11derive_hashE00E00EB3o_, symObjAddr: 0x2570, symBinAddr: 0x2EEB0, symSize: 0x20 }
  - { offset: 0x55019, size: 0x8, addend: 0x0, symName: __RINvNtCsieiGu2EXtoJ_4core3ptr13drop_in_placeNCNCINvNtNtCscKtU6MdFI5n_10proc_macro6bridge6client10run_clientNtBN_11TokenStreamINtNtB4_6option6OptionB1H_ENCNCINvMs6_BN_INtBN_6ClientNtBR_11TokenStreamB2R_E7expand1NvCs9E08dBcDM90_15zerocopy_derive15derive_as_bytesE00E00EB3o_, symObjAddr: 0x2590, symBinAddr: 0x2EED0, symSize: 0x20 }
  - { offset: 0x55048, size: 0x8, addend: 0x0, symName: __RINvNtCsieiGu2EXtoJ_4core3ptr13drop_in_placeNCNCINvNtNtCscKtU6MdFI5n_10proc_macro6bridge6client10run_clientNtBN_11TokenStreamINtNtB4_6option6OptionB1H_ENCNCINvMs6_BN_INtBN_6ClientNtBR_11TokenStreamB2R_E7expand1NvCs9E08dBcDM90_15zerocopy_derive15derive_split_atE00E00EB3o_, symObjAddr: 0x25B0, symBinAddr: 0x2EEF0, symSize: 0x20 }
  - { offset: 0x55077, size: 0x8, addend: 0x0, symName: __RINvNtCsieiGu2EXtoJ_4core3ptr13drop_in_placeNCNCINvNtNtCscKtU6MdFI5n_10proc_macro6bridge6client10run_clientNtBN_11TokenStreamINtNtB4_6option6OptionB1H_ENCNCINvMs6_BN_INtBN_6ClientNtBR_11TokenStreamB2R_E7expand1NvCs9E08dBcDM90_15zerocopy_derive16derive_immutableE00E00EB3o_, symObjAddr: 0x25D0, symBinAddr: 0x2EF10, symSize: 0x20 }
  - { offset: 0x550A6, size: 0x8, addend: 0x0, symName: __RINvNtCsieiGu2EXtoJ_4core3ptr13drop_in_placeNCNCINvNtNtCscKtU6MdFI5n_10proc_macro6bridge6client10run_clientNtBN_11TokenStreamINtNtB4_6option6OptionB1H_ENCNCINvMs6_BN_INtBN_6ClientNtBR_11TokenStreamB2R_E7expand1NvCs9E08dBcDM90_15zerocopy_derive16derive_unalignedE00E00EB3o_, symObjAddr: 0x25F0, symBinAddr: 0x2EF30, symSize: 0x20 }
  - { offset: 0x550D5, size: 0x8, addend: 0x0, symName: __RINvNtCsieiGu2EXtoJ_4core3ptr13drop_in_placeNCNCINvNtNtCscKtU6MdFI5n_10proc_macro6bridge6client10run_clientNtBN_11TokenStreamINtNtB4_6option6OptionB1H_ENCNCINvMs6_BN_INtBN_6ClientNtBR_11TokenStreamB2R_E7expand1NvCs9E08dBcDM90_15zerocopy_derive17derive_from_bytesE00E00EB3o_, symObjAddr: 0x2610, symBinAddr: 0x2EF50, symSize: 0x20 }
  - { offset: 0x55104, size: 0x8, addend: 0x0, symName: __RINvNtCsieiGu2EXtoJ_4core3ptr13drop_in_placeNCNCINvNtNtCscKtU6MdFI5n_10proc_macro6bridge6client10run_clientNtBN_11TokenStreamINtNtB4_6option6OptionB1H_ENCNCINvMs6_BN_INtBN_6ClientNtBR_11TokenStreamB2R_E7expand1NvCs9E08dBcDM90_15zerocopy_derive17derive_from_zerosE00E00EB3o_, symObjAddr: 0x2630, symBinAddr: 0x2EF70, symSize: 0x20 }
  - { offset: 0x55133, size: 0x8, addend: 0x0, symName: __RINvNtCsieiGu2EXtoJ_4core3ptr13drop_in_placeNCNCINvNtNtCscKtU6MdFI5n_10proc_macro6bridge6client10run_clientNtBN_11TokenStreamINtNtB4_6option6OptionB1H_ENCNCINvMs6_BN_INtBN_6ClientNtBR_11TokenStreamB2R_E7expand1NvCs9E08dBcDM90_15zerocopy_derive17derive_into_bytesE00E00EB3o_, symObjAddr: 0x2650, symBinAddr: 0x2EF90, symSize: 0x20 }
  - { offset: 0x55162, size: 0x8, addend: 0x0, symName: __RINvNtCsieiGu2EXtoJ_4core3ptr13drop_in_placeNCNCINvNtNtCscKtU6MdFI5n_10proc_macro6bridge6client10run_clientNtBN_11TokenStreamINtNtB4_6option6OptionB1H_ENCNCINvMs6_BN_INtBN_6ClientNtBR_11TokenStreamB2R_E7expand1NvCs9E08dBcDM90_15zerocopy_derive18derive_from_zeroesE00E00EB3o_, symObjAddr: 0x2670, symBinAddr: 0x2EFB0, symSize: 0x20 }
  - { offset: 0x55191, size: 0x8, addend: 0x0, symName: __RINvNtCsieiGu2EXtoJ_4core3ptr13drop_in_placeNCNCINvNtNtCscKtU6MdFI5n_10proc_macro6bridge6client10run_clientNtBN_11TokenStreamINtNtB4_6option6OptionB1H_ENCNCINvMs6_BN_INtBN_6ClientNtBR_11TokenStreamB2R_E7expand1NvCs9E08dBcDM90_15zerocopy_derive19derive_known_layoutE00E00EB3o_, symObjAddr: 0x2690, symBinAddr: 0x2EFD0, symSize: 0x20 }
  - { offset: 0x551C0, size: 0x8, addend: 0x0, symName: __RINvNtCsieiGu2EXtoJ_4core3ptr13drop_in_placeNCNCINvNtNtCscKtU6MdFI5n_10proc_macro6bridge6client10run_clientNtBN_11TokenStreamINtNtB4_6option6OptionB1H_ENCNCINvMs6_BN_INtBN_6ClientNtBR_11TokenStreamB2R_E7expand1NvCs9E08dBcDM90_15zerocopy_derive21derive_try_from_bytesE00E00EB3o_, symObjAddr: 0x26B0, symBinAddr: 0x2EFF0, symSize: 0x20 }
  - { offset: 0x551EF, size: 0x8, addend: 0x0, symName: __RINvNtCsieiGu2EXtoJ_4core3ptr13drop_in_placeNCNCINvNtNtCscKtU6MdFI5n_10proc_macro6bridge6client10run_clientNtBN_11TokenStreamINtNtB4_6option6OptionB1H_ENCNCINvMs6_BN_INtBN_6ClientNtBR_11TokenStreamB2R_E7expand1NvCs9E08dBcDM90_15zerocopy_derive9derive_eqE00E00EB3o_, symObjAddr: 0x26D0, symBinAddr: 0x2F010, symSize: 0x20 }
  - { offset: 0x5521E, size: 0x8, addend: 0x0, symName: __RINvNtCsieiGu2EXtoJ_4core3ptr13drop_in_placeNCNCNvNtNtCs9E08dBcDM90_15zerocopy_derive6derive14try_from_bytes19derive_is_bit_valid00EBQ_, symObjAddr: 0x26F0, symBinAddr: 0x2F030, symSize: 0x60 }
  - { offset: 0x5524D, size: 0x8, addend: 0x0, symName: __RINvNtCsieiGu2EXtoJ_4core3ptr13drop_in_placeNCNvNtNtCs9E08dBcDM90_15zerocopy_derive6derive14try_from_bytes29derive_has_field_struct_unions0_0EBO_, symObjAddr: 0x2750, symBinAddr: 0x2F090, symSize: 0x60 }
  - { offset: 0x5527C, size: 0x8, addend: 0x0, symName: __RINvNtCsieiGu2EXtoJ_4core3ptr13drop_in_placeNtNtCs9E08dBcDM90_15zerocopy_derive4util11FieldBoundsEBK_, symObjAddr: 0x27B0, symBinAddr: 0x2F0F0, symSize: 0x50 }
  - { offset: 0x552AB, size: 0x8, addend: 0x0, symName: __RINvNtCsieiGu2EXtoJ_4core3ptr13drop_in_placeNtNtCs9E08dBcDM90_15zerocopy_derive4util12PaddingCheckEBK_, symObjAddr: 0x2800, symBinAddr: 0x2F140, symSize: 0x50 }
  - { offset: 0x552DA, size: 0x8, addend: 0x0, symName: __RINvNtCsieiGu2EXtoJ_4core3ptr13drop_in_placeNtNtCs9E08dBcDM90_15zerocopy_derive4util16ImplBlockBuilderEBK_, symObjAddr: 0x2850, symBinAddr: 0x2F190, symSize: 0x110 }
  - { offset: 0x55309, size: 0x8, addend: 0x0, symName: __RINvNtCsieiGu2EXtoJ_4core3ptr13drop_in_placeNtNtCs9E08dBcDM90_15zerocopy_derive4util3CtxEBK_, symObjAddr: 0x2960, symBinAddr: 0x2F2A0, symSize: 0x60 }
  - { offset: 0x55338, size: 0x8, addend: 0x0, symName: __RINvNtCsieiGu2EXtoJ_4core3ptr13drop_in_placeNtNtCs9E08dBcDM90_15zerocopy_derive4util5TraitEBK_, symObjAddr: 0x29C0, symBinAddr: 0x2F300, symSize: 0x140 }
  - { offset: 0x55367, size: 0x8, addend: 0x0, symName: __RINvNtCsieiGu2EXtoJ_4core3ptr13drop_in_placeNtNtCsdGrGZaRBwMb_3syn4meta15ParseNestedMetaECs9E08dBcDM90_15zerocopy_derive, symObjAddr: 0x2B00, symBinAddr: 0x2F440, symSize: 0x20 }
  - { offset: 0x55396, size: 0x8, addend: 0x0, symName: __RINvNtCsieiGu2EXtoJ_4core3ptr13drop_in_placeNtNtCsdGrGZaRBwMb_3syn6derive11DeriveInputECs9E08dBcDM90_15zerocopy_derive, symObjAddr: 0x2B20, symBinAddr: 0x2F460, symSize: 0xF0 }
  - { offset: 0x553C5, size: 0x8, addend: 0x0, symName: __RINvNtCsieiGu2EXtoJ_4core3ptr13drop_in_placeNtNtNtCsHUR1vrdMJt_3std2io5error5ErrorECs9E08dBcDM90_15zerocopy_derive, symObjAddr: 0x2C10, symBinAddr: 0x2F550, symSize: 0x20 }
  - { offset: 0x553F4, size: 0x8, addend: 0x0, symName: __RINvNtCsieiGu2EXtoJ_4core3ptr13drop_in_placeNtNtNtCsHUR1vrdMJt_3std2io5error6CustomECs9E08dBcDM90_15zerocopy_derive, symObjAddr: 0x2C30, symBinAddr: 0x2F570, symSize: 0x20 }
  - { offset: 0x55423, size: 0x8, addend: 0x0, symName: __RINvNtCsieiGu2EXtoJ_4core3ptr13drop_in_placeNtNtNtCscKtU6MdFI5n_10proc_macro6bridge3rpc12PanicMessageECs9E08dBcDM90_15zerocopy_derive, symObjAddr: 0x2C50, symBinAddr: 0x2F590, symSize: 0x50 }
  - { offset: 0x55452, size: 0x8, addend: 0x0, symName: __RINvNtCsieiGu2EXtoJ_4core3ptr13drop_in_placeNtNtNtCscKtU6MdFI5n_10proc_macro6bridge6buffer6BufferECs9E08dBcDM90_15zerocopy_derive, symObjAddr: 0x2CA0, symBinAddr: 0x2F5E0, symSize: 0x20 }
  - { offset: 0x55481, size: 0x8, addend: 0x0, symName: __RINvNtCsieiGu2EXtoJ_4core3ptr13drop_in_placeNtNtNtCscKtU6MdFI5n_10proc_macro6bridge6client6BridgeECs9E08dBcDM90_15zerocopy_derive, symObjAddr: 0x2CC0, symBinAddr: 0x2F600, symSize: 0x20 }
  - { offset: 0x554B0, size: 0x8, addend: 0x0, symName: __RINvNtCsieiGu2EXtoJ_4core3ptr13drop_in_placeNtNtNtNtCsHUR1vrdMJt_3std2io5error14repr_bitpacked4ReprECs9E08dBcDM90_15zerocopy_derive, symObjAddr: 0x2CE0, symBinAddr: 0x2F620, symSize: 0x20 }
  - { offset: 0x554DF, size: 0x8, addend: 0x0, symName: __RINvNtCsieiGu2EXtoJ_4core3ptr13drop_in_placeNtNvNtNtNtCscKtU6MdFI5n_10proc_macro6bridge6client5state3set13RestoreOnDropECs9E08dBcDM90_15zerocopy_derive, symObjAddr: 0x2D00, symBinAddr: 0x2F640, symSize: 0x20 }
  - { offset: 0x5550E, size: 0x8, addend: 0x0, symName: __RINvNtCsieiGu2EXtoJ_4core3ptr13drop_in_placeSINtNtB4_6option6OptionNtCsaKzlTDPUHDb_11proc_macro211TokenStreamEECs9E08dBcDM90_15zerocopy_derive, symObjAddr: 0x2D20, symBinAddr: 0x2F660, symSize: 0xA0 }
  - { offset: 0x5553D, size: 0x8, addend: 0x0, symName: __RINvNtCsieiGu2EXtoJ_4core3ptr13drop_in_placeSNtCsaKzlTDPUHDb_11proc_macro211TokenStreamECs9E08dBcDM90_15zerocopy_derive, symObjAddr: 0x2DC0, symBinAddr: 0x2F700, symSize: 0xA0 }
  - { offset: 0x5556C, size: 0x8, addend: 0x0, symName: __RINvNtCsieiGu2EXtoJ_4core3ptr13drop_in_placeSNtCsaKzlTDPUHDb_11proc_macro25IdentECs9E08dBcDM90_15zerocopy_derive, symObjAddr: 0x2E60, symBinAddr: 0x2F7A0, symSize: 0xA0 }
  - { offset: 0x5559B, size: 0x8, addend: 0x0, symName: __RINvNtCsieiGu2EXtoJ_4core3ptr13drop_in_placeSNtNtCsdGrGZaRBwMb_3syn4attr4MetaECs9E08dBcDM90_15zerocopy_derive, symObjAddr: 0x2F00, symBinAddr: 0x2F840, symSize: 0xA0 }
  - { offset: 0x555CA, size: 0x8, addend: 0x0, symName: __RINvNtCsieiGu2EXtoJ_4core3ptr13drop_in_placeSNtNtCsdGrGZaRBwMb_3syn8generics12GenericParamECs9E08dBcDM90_15zerocopy_derive, symObjAddr: 0x2FA0, symBinAddr: 0x2F8E0, symSize: 0xA0 }
  - { offset: 0x555F9, size: 0x8, addend: 0x0, symName: __RINvNtCsieiGu2EXtoJ_4core3ptr13drop_in_placeSNtNtCsdGrGZaRBwMb_3syn8generics14WherePredicateECs9E08dBcDM90_15zerocopy_derive, symObjAddr: 0x3040, symBinAddr: 0x2F980, symSize: 0xA0 }
  - { offset: 0x55628, size: 0x8, addend: 0x0, symName: __RINvNtCsieiGu2EXtoJ_4core3ptr13drop_in_placeSTINtNtB4_6option6OptionRNtNtCsdGrGZaRBwMb_3syn4data7VariantEINtNtCslJiobkLta79_5alloc3vec3VecTRNtNtB19_11restriction10VisibilityNtCsaKzlTDPUHDb_11proc_macro211TokenStreamRNtNtB19_2ty4TypeEEEECs9E08dBcDM90_15zerocopy_derive, symObjAddr: 0x30E0, symBinAddr: 0x2FA20, symSize: 0xA0 }
  - { offset: 0x55657, size: 0x8, addend: 0x0, symName: __RINvNtCsieiGu2EXtoJ_4core3ptr13drop_in_placeSTNtNtCsdGrGZaRBwMb_3syn4attr4MetaNtNtBM_5token5CommaEECs9E08dBcDM90_15zerocopy_derive, symObjAddr: 0x3180, symBinAddr: 0x2FAC0, symSize: 0xA0 }
  - { offset: 0x55686, size: 0x8, addend: 0x0, symName: __RINvNtCsieiGu2EXtoJ_4core3ptr13drop_in_placeSTRNtNtCsdGrGZaRBwMb_3syn11restriction10VisibilityNtCsaKzlTDPUHDb_11proc_macro211TokenStreamRNtNtBN_2ty4TypeEECs9E08dBcDM90_15zerocopy_derive, symObjAddr: 0x3220, symBinAddr: 0x2FB60, symSize: 0xA0 }
  - { offset: 0x556B5, size: 0x8, addend: 0x0, symName: __RINvNtCsieiGu2EXtoJ_4core3ptr13drop_in_placeTINtNtB4_6option6OptionRNtNtCsdGrGZaRBwMb_3syn4data7VariantEINtNtCslJiobkLta79_5alloc3vec3VecTRNtNtB18_11restriction10VisibilityNtCsaKzlTDPUHDb_11proc_macro211TokenStreamRNtNtB18_2ty4TypeEEEECs9E08dBcDM90_15zerocopy_derive, symObjAddr: 0x32C0, symBinAddr: 0x2FC00, symSize: 0x20 }
  - { offset: 0x556E4, size: 0x8, addend: 0x0, symName: __RINvNtCsieiGu2EXtoJ_4core3ptr13drop_in_placeTNtNtCsdGrGZaRBwMb_3syn4attr4MetaNtNtBL_5token5CommaEECs9E08dBcDM90_15zerocopy_derive, symObjAddr: 0x32E0, symBinAddr: 0x2FC20, symSize: 0x20 }
  - { offset: 0x55713, size: 0x8, addend: 0x0, symName: __RINvNtCsieiGu2EXtoJ_4core3ptr13drop_in_placeTRNtNtCsdGrGZaRBwMb_3syn11restriction10VisibilityNtCsaKzlTDPUHDb_11proc_macro211TokenStreamRNtNtBM_2ty4TypeEECs9E08dBcDM90_15zerocopy_derive, symObjAddr: 0x3300, symBinAddr: 0x2FC40, symSize: 0x20 }
  - { offset: 0x55896, size: 0x8, addend: 0x0, symName: __RNvNvNtCsieiGu2EXtoJ_4core3ptr19swap_nonoverlapping18precondition_checkCs9E08dBcDM90_15zerocopy_derive, symObjAddr: 0x4A80, symBinAddr: 0x313C0, symSize: 0x4E0 }
  - { offset: 0x55BA3, size: 0x8, addend: 0x0, symName: __RINvNtCsieiGu2EXtoJ_4core3ptr19swap_nonoverlappingTljEECs9E08dBcDM90_15zerocopy_derive, symObjAddr: 0x3320, symBinAddr: 0x2FC60, symSize: 0xB0 }
  - { offset: 0x55D1F, size: 0x8, addend: 0x0, symName: __RINvNtCsieiGu2EXtoJ_4core3ptr19swap_nonoverlappingTlmEECs9E08dBcDM90_15zerocopy_derive, symObjAddr: 0x33D0, symBinAddr: 0x2FD10, symSize: 0xB0 }
  - { offset: 0x560BA, size: 0x8, addend: 0x0, symName: __RINvNtCsieiGu2EXtoJ_4core3ptr4swapNtNtCsdGrGZaRBwMb_3syn8generics12GenericParamECs9E08dBcDM90_15zerocopy_derive, symObjAddr: 0x3480, symBinAddr: 0x2FDC0, symSize: 0x150 }
  - { offset: 0x56246, size: 0x8, addend: 0x0, symName: __RINvNtCsieiGu2EXtoJ_4core3ptr4swapTljEECs9E08dBcDM90_15zerocopy_derive, symObjAddr: 0x35D0, symBinAddr: 0x2FF10, symSize: 0x130 }
  - { offset: 0x563D2, size: 0x8, addend: 0x0, symName: __RINvNtCsieiGu2EXtoJ_4core3ptr4swapTlmEECs9E08dBcDM90_15zerocopy_derive, symObjAddr: 0x3700, symBinAddr: 0x30040, symSize: 0x100 }
  - { offset: 0x56590, size: 0x8, addend: 0x0, symName: __RINvNvNtCsieiGu2EXtoJ_4core3ptr25swap_nonoverlapping_bytes26swap_nonoverlapping_chunksKj8_ECs9E08dBcDM90_15zerocopy_derive, symObjAddr: 0x40F0, symBinAddr: 0x30A30, symSize: 0x110 }
  - { offset: 0x56735, size: 0x8, addend: 0x0, symName: __RNvNvNtCsieiGu2EXtoJ_4core3ptr25swap_nonoverlapping_bytes25swap_nonoverlapping_shortCs9E08dBcDM90_15zerocopy_derive, symObjAddr: 0x4F60, symBinAddr: 0x318A0, symSize: 0x160 }
  - { offset: 0x56902, size: 0x8, addend: 0x0, symName: __RNvNtCsieiGu2EXtoJ_4core3ptr25swap_nonoverlapping_bytesCs9E08dBcDM90_15zerocopy_derive, symObjAddr: 0x4500, symBinAddr: 0x30E40, symSize: 0xD0 }
  - { offset: 0x56C42, size: 0x8, addend: 0x0, symName: __RNvNvNtCsieiGu2EXtoJ_4core3ptr19copy_nonoverlapping18precondition_checkCs9E08dBcDM90_15zerocopy_derive, symObjAddr: 0x45D0, symBinAddr: 0x30F10, symSize: 0x4B0 }
  - { offset: 0x56F53, size: 0x8, addend: 0x0, symName: __RNvNvNtCsieiGu2EXtoJ_4core3ptr4copy18precondition_checkCs9E08dBcDM90_15zerocopy_derive, symObjAddr: 0x50C0, symBinAddr: 0x31A00, symSize: 0x330 }
  - { offset: 0x5B5F8, size: 0x8, addend: 0x0, symName: __RINvNtNtNtCsieiGu2EXtoJ_4core4iter8adapters4fuse17and_then_or_clearINtNtB4_3map3MapINtNtCsdGrGZaRBwMb_3syn10punctuated4IterNtNtB1o_4data7VariantENCNvXs1_NtCs9E08dBcDM90_15zerocopy_derive4utilNtNtB1o_6derive8DataEnumNtB2r_7DataExt6fields0ERNtB1Z_6FieldsNvYB13_NtNtNtB6_6traits8iterator8Iterator4nextEB2t_, symObjAddr: 0x3800, symBinAddr: 0x30140, symSize: 0xF0 }
  - { offset: 0x5B745, size: 0x8, addend: 0x0, symName: __RNvXs8_NtNtNtCsieiGu2EXtoJ_4core4iter8adapters4fuseINtB5_4FuseINtNtB7_3map3MapINtNtCsdGrGZaRBwMb_3syn10punctuated4IterNtNtB1j_4data7VariantENCNvXs1_NtCs9E08dBcDM90_15zerocopy_derive4utilNtNtB1j_6derive8DataEnumNtB2m_7DataExt6fields0EEINtB5_8FuseImplBY_E4nextB2o_, symObjAddr: 0x53F0, symBinAddr: 0x31D30, symSize: 0x20 }
  - { offset: 0x5B782, size: 0x8, addend: 0x0, symName: __RNvXs9_NtNtNtCsieiGu2EXtoJ_4core4iter8adapters4fuseINtB5_4FuseINtNtB7_3map3MapIBZ_INtNtNtBb_5array4iter8IntoIterNtCsaKzlTDPUHDb_11proc_macro211TokenStreamKj2_ENCINvXsb_B1O_B1M_INtNtNtB9_6traits7collect12FromIteratorB1M_E9from_iterB1i_E0ENCINvXs6_NtB1O_3impNtB3W_11TokenStreamIB2P_B46_E9from_iterB1e_Es_0EEINtB5_8FuseImplBY_E4nextCs9E08dBcDM90_15zerocopy_derive, symObjAddr: 0x5410, symBinAddr: 0x31D50, symSize: 0x70 }
  - { offset: 0x5B855, size: 0x8, addend: 0x0, symName: __RNvXs9_NtNtNtCsieiGu2EXtoJ_4core4iter8adapters4fuseINtB5_4FuseINtNtB7_3map3MapINtNtB7_5chain5ChainIB1f_IBZ_INtNtNtBb_5slice4iter4IterTRNtNtCsdGrGZaRBwMb_3syn11restriction10VisibilityNtCsaKzlTDPUHDb_11proc_macro211TokenStreamRNtNtB2d_2ty4TypeEENCNvNtNtCs9E08dBcDM90_15zerocopy_derive6derive14try_from_bytes29derive_has_field_struct_union0EINtNtBb_6option8IntoIterB2U_EEIBZ_B1H_NCB3V_s0_0EENcNtINtB5t_6OptionB2U_E4Some0EEINtB5_8FuseImplBY_E4nextB41_, symObjAddr: 0x5480, symBinAddr: 0x31DC0, symSize: 0x90 }
  - { offset: 0x5B928, size: 0x8, addend: 0x0, symName: __RNvXs9_NtNtNtCsieiGu2EXtoJ_4core4iter8adapters4fuseINtB5_4FuseINtNtB7_3map3MapINtNtNtCslJiobkLta79_5alloc3vec9into_iter8IntoIterTINtNtBb_6option6OptionRNtNtCsdGrGZaRBwMb_3syn4data7VariantEINtB1j_3VecTRNtNtB2u_11restriction10VisibilityNtCsaKzlTDPUHDb_11proc_macro211TokenStreamRNtNtB2u_2ty4TypeEEEENCNvNtNtCs9E08dBcDM90_15zerocopy_derive6derive14try_from_bytes19derive_is_bit_valid0EEINtB5_8FuseImplBY_E4nextB4T_, symObjAddr: 0x5510, symBinAddr: 0x31E50, symSize: 0x80 }
  - { offset: 0x5B9FB, size: 0x8, addend: 0x0, symName: __RNvXs9_NtNtNtCsieiGu2EXtoJ_4core4iter8adapters4fuseINtB5_4FuseINtNtBb_6option8IntoIterINtNtCsdGrGZaRBwMb_3syn10punctuated4IterNtNtB1r_8generics14WherePredicateEEEINtB5_8FuseImplBY_E4nextCs9E08dBcDM90_15zerocopy_derive, symObjAddr: 0x5590, symBinAddr: 0x31ED0, symSize: 0x70 }
  - { offset: 0x5BACE, size: 0x8, addend: 0x0, symName: __RNvXs9_NtNtNtCsieiGu2EXtoJ_4core4iter8adapters4fuseINtB5_4FuseINtNtNtBb_5array4iter8IntoIterINtNtBb_6option6OptionNtCsaKzlTDPUHDb_11proc_macro211TokenStreamEKj1_EEINtB5_8FuseImplBY_E4nextCs9E08dBcDM90_15zerocopy_derive, symObjAddr: 0x5600, symBinAddr: 0x31F40, symSize: 0x80 }
  - { offset: 0x5BBA1, size: 0x8, addend: 0x0, symName: __RNvXs9_NtNtNtCsieiGu2EXtoJ_4core4iter8adapters4fuseINtB5_4FuseINtNtNtBb_5array4iter8IntoIterINtNtBb_6option6OptionNtCsaKzlTDPUHDb_11proc_macro211TokenStreamEKj3_EEINtB5_8FuseImplBY_E4nextCs9E08dBcDM90_15zerocopy_derive, symObjAddr: 0x5680, symBinAddr: 0x31FC0, symSize: 0x80 }
  - { offset: 0x5C846, size: 0x8, addend: 0x0, symName: __RINvXs_NtNtCsieiGu2EXtoJ_4core3ops11index_rangeNtB5_10IndexRangeNtNtNtNtB9_4iter6traits8iterator8Iterator8try_folduNCINvMs6_NtNtNtB9_5array4iter10iter_innerINtB1Y_15PolymorphicIterSINtNtNtB9_3mem12maybe_uninit11MaybeUninitNtCsaKzlTDPUHDb_11proc_macro211TokenStreamEE8try_folduNCINvMNtB7_9try_traitINtB4w_17NeverShortCircuituE10wrap_mut_2uB3y_NCINvNtNtB16_8adapters3map8map_foldB3y_NtNtB3A_3imp11TokenStreamuNCINvXsb_B3A_B3y_INtNtB14_7collect12FromIteratorB3y_E9from_iterINtB20_8IntoIterB3y_Kj2_EE0NCIB5x_B67_NtCscKtU6MdFI5n_10proc_macro11TokenStreamuNCINvXs6_B69_B67_IB6P_B67_E9from_iterINtB5z_3MapB7y_B6x_EE0NCINvNvB10_8for_each4callB8a_NCINvXsj_B8c_B8a_INtB6R_6ExtendB8a_E6extendIB9s_B9r_B8Q_EE0E0E0E0E0B4L_E0B4L_ECs9E08dBcDM90_15zerocopy_derive, symObjAddr: 0x4310, symBinAddr: 0x30C50, symSize: 0xE0 }
  - { offset: 0x5C94D, size: 0x8, addend: 0x0, symName: __RNvYINvMNtNtCs9E08dBcDM90_15zerocopy_derive4repr4utilINtB6_7SpannedNtB8_14FromAttrsErrorE4fromINtB8_17FromRawReprsErrorNtB8_20UnsupportedReprErrorEEINtNtNtCsieiGu2EXtoJ_4core3ops8function6FnOnceTIBQ_B1u_EEE9call_onceBa_, symObjAddr: 0x5BC0, symBinAddr: 0x32500, symSize: 0x30 }
  - { offset: 0x5C991, size: 0x8, addend: 0x0, symName: __RNvYINvMNtNtCs9E08dBcDM90_15zerocopy_derive4repr4utilINtB6_7SpannedNtB8_14FromAttrsErrorE4fromNtB8_21UnrecognizedReprErrorEINtNtNtCsieiGu2EXtoJ_4core3ops8function6FnOnceTIBQ_B1u_EEE9call_onceBa_, symObjAddr: 0x5BF0, symBinAddr: 0x32530, symSize: 0x20 }
  - { offset: 0x5C9D5, size: 0x8, addend: 0x0, symName: __RNvYNCNkNvNtNtNtCscKtU6MdFI5n_10proc_macro6bridge6client5state12BRIDGE_STATE0s_0INtNtNtCsieiGu2EXtoJ_4core3ops8function6FnOnceTINtNtB1n_6option6OptionQIB22_INtNtB1n_4cell4CellPuEEEEE9call_onceCs9E08dBcDM90_15zerocopy_derive, symObjAddr: 0x5C10, symBinAddr: 0x32550, symSize: 0x40 }
  - { offset: 0x5CA19, size: 0x8, addend: 0x0, symName: __RNvYNcNtINtNtCs9E08dBcDM90_15zerocopy_derive4repr12CompoundReprNtB9_13PrimitiveReprE9Primitive0INtNtNtCsieiGu2EXtoJ_4core3ops8function6FnOnceTBZ_EE9call_onceBb_, symObjAddr: 0x5C60, symBinAddr: 0x325A0, symSize: 0x20 }
  - { offset: 0x5CA5D, size: 0x8, addend: 0x0, symName: __RNvYNcNtINtNtCs9E08dBcDM90_15zerocopy_derive4repr16FromRawReprErrorNtB9_20UnsupportedReprErrorE3Err0INtNtNtCsieiGu2EXtoJ_4core3ops8function6FnOnceTB13_EE9call_onceBb_, symObjAddr: 0x5CA0, symBinAddr: 0x325C0, symSize: 0x20 }
  - { offset: 0x5CAA1, size: 0x8, addend: 0x0, symName: __RNvYNcNtINtNtCs9E08dBcDM90_15zerocopy_derive4repr9AlignReprINtNtNtCsieiGu2EXtoJ_4core3num7nonzero7NonZeromEEs_6Packed0INtNtNtB12_3ops8function6FnOnceTBV_EE9call_onceBb_, symObjAddr: 0x5CC0, symBinAddr: 0x325E0, symSize: 0x20 }
  - { offset: 0x5CAE5, size: 0x8, addend: 0x0, symName: __RNvYNvMNtCsdGrGZaRBwMb_3syn10punctuatedINtB5_10PunctuatedNtNtB7_4attr4MetaNtNtB7_5token5CommaE16parse_terminatedINtNtNtCsieiGu2EXtoJ_4core3ops8function6FnOnceTRNtNtB7_5parse11ParseBufferEE9call_onceCs9E08dBcDM90_15zerocopy_derive, symObjAddr: 0x5ED0, symBinAddr: 0x327D0, symSize: 0x30 }
  - { offset: 0x5CB29, size: 0x8, addend: 0x0, symName: __RNvYNvYINtNtCsdGrGZaRBwMb_3syn10punctuated4IterNtNtBa_4data5FieldENtNtNtNtCsieiGu2EXtoJ_4core4iter6traits8iterator8Iterator4nextINtNtNtB1a_3ops8function6FnOnceTQB5_EE9call_onceCs9E08dBcDM90_15zerocopy_derive, symObjAddr: 0x5F00, symBinAddr: 0x32800, symSize: 0x20 }
  - { offset: 0x5CB6D, size: 0x8, addend: 0x0, symName: __RNvYNvYINtNtCsdGrGZaRBwMb_3syn10punctuated4IterNtNtBa_4data5FieldENtNtNtNtCsieiGu2EXtoJ_4core4iter6traits8iterator8Iterator9size_hintINtNtNtB1a_3ops8function6FnOnceTRB5_EE9call_onceCs9E08dBcDM90_15zerocopy_derive, symObjAddr: 0x5F20, symBinAddr: 0x32820, symSize: 0x30 }
  - { offset: 0x5CBB1, size: 0x8, addend: 0x0, symName: __RNvYNvYINtNtCsdGrGZaRBwMb_3syn10punctuated4IterNtNtBa_8generics14WherePredicateENtNtNtNtCsieiGu2EXtoJ_4core4iter6traits8iterator8Iterator4nextINtNtNtB1o_3ops8function6FnOnceTQB5_EE9call_onceCs9E08dBcDM90_15zerocopy_derive, symObjAddr: 0x5F50, symBinAddr: 0x32850, symSize: 0x20 }
  - { offset: 0x5CBF5, size: 0x8, addend: 0x0, symName: __RNvYNvYINtNtCslJiobkLta79_5alloc5boxed3BoxNtNtCsdGrGZaRBwMb_3syn2ty4TypeENtNtBI_11parse_quote10ParseQuote5parseINtNtNtCsieiGu2EXtoJ_4core3ops8function6FnOnceTRNtNtBI_5parse11ParseBufferEE9call_onceCs9E08dBcDM90_15zerocopy_derive, symObjAddr: 0x5F70, symBinAddr: 0x32870, symSize: 0x30 }
  - { offset: 0x5CC39, size: 0x8, addend: 0x0, symName: __RNvYNvYINtNtCslJiobkLta79_5alloc5boxed3BoxNtNtCsdGrGZaRBwMb_3syn4expr4ExprENtNtBI_11parse_quote10ParseQuote5parseINtNtNtCsieiGu2EXtoJ_4core3ops8function6FnOnceTRNtNtBI_5parse11ParseBufferEE9call_onceCs9E08dBcDM90_15zerocopy_derive, symObjAddr: 0x5FA0, symBinAddr: 0x328A0, symSize: 0x30 }
  - { offset: 0x5CC7D, size: 0x8, addend: 0x0, symName: __RNvYNvYINtNtNtCs9E08dBcDM90_15zerocopy_derive4repr4util7SpannedNtBa_14FromAttrsErrorEINtNtCsieiGu2EXtoJ_4core7convert4IntoNtNtCsdGrGZaRBwMb_3syn5error5ErrorE4intoINtNtNtB1q_3ops8function6FnOnceTB5_EE9call_onceBc_, symObjAddr: 0x5FD0, symBinAddr: 0x328D0, symSize: 0x40 }
  - { offset: 0x5CCC1, size: 0x8, addend: 0x0, symName: __RNvYNvYINtNtNtNtCsieiGu2EXtoJ_4core4iter8adapters3map3MapINtNtBa_9enumerate9EnumerateINtNtNtCslJiobkLta79_5alloc3vec9into_iter8IntoIterTRNtNtCsdGrGZaRBwMb_3syn11restriction10VisibilityNtCsaKzlTDPUHDb_11proc_macro211TokenStreamRNtNtB2f_2ty4TypeEEENCNCNvNtNtCs9E08dBcDM90_15zerocopy_derive6derive14try_from_bytes19derive_is_bit_valid00ENtNtNtBc_6traits8iterator8Iterator4nextINtNtNtBe_3ops8function6FnOnceTQB5_EE9call_onceB46_, symObjAddr: 0x6010, symBinAddr: 0x32910, symSize: 0x30 }
  - { offset: 0x5CD05, size: 0x8, addend: 0x0, symName: __RNvYNvYINtNtNtNtCsieiGu2EXtoJ_4core4iter8adapters3map3MapINtNtCsdGrGZaRBwMb_3syn10punctuated4IterNtNtBY_4data7VariantENCNvXs1_NtCs9E08dBcDM90_15zerocopy_derive4utilNtNtBY_6derive8DataEnumNtB20_7DataExt6fields0ENtNtNtBc_6traits8iterator8Iterator4nextINtNtNtBe_3ops8function6FnOnceTQB5_EE9call_onceB22_, symObjAddr: 0x6040, symBinAddr: 0x32940, symSize: 0x20 }
  - { offset: 0x5CD49, size: 0x8, addend: 0x0, symName: __RNvYNvYINtNtNtNtCsieiGu2EXtoJ_4core4iter8adapters3map3MapINtNtCsdGrGZaRBwMb_3syn10punctuated8IntoIterNtNtBY_8generics12GenericParamENCNvMs8_NtCs9E08dBcDM90_15zerocopy_derive4utilNtB2e_16ImplBlockBuilder5builds1_0ENtNtNtBc_6traits8iterator8Iterator4nextINtNtNtBe_3ops8function6FnOnceTQB5_EE9call_onceB2g_, symObjAddr: 0x6060, symBinAddr: 0x32960, symSize: 0x30 }
  - { offset: 0x5CD8D, size: 0x8, addend: 0x0, symName: __RNvYNvYINtNtNtNtCsieiGu2EXtoJ_4core4iter8adapters3map3MapINtNtNtBe_5slice4iter4IterTRNtNtCsdGrGZaRBwMb_3syn11restriction10VisibilityNtCsaKzlTDPUHDb_11proc_macro211TokenStreamRNtNtB1p_2ty4TypeEENCNvNtNtCs9E08dBcDM90_15zerocopy_derive6derive14try_from_bytes29derive_has_field_struct_union0ENtNtNtBc_6traits8iterator8Iterator4nextINtNtNtBe_3ops8function6FnOnceTQB5_EE9call_onceB3d_, symObjAddr: 0x6090, symBinAddr: 0x32990, symSize: 0x30 }
  - { offset: 0x5CDD1, size: 0x8, addend: 0x0, symName: __RNvYNvYINtNtNtNtCsieiGu2EXtoJ_4core4iter8adapters5chain5ChainIB6_INtNtBa_7flatten7FlattenINtNtBe_6option8IntoIterINtNtCsdGrGZaRBwMb_3syn10punctuated4IterNtNtB1S_8generics14WherePredicateEEEINtNtNtBe_5slice4iter4IterB2r_EEINtB1s_4IterB2r_EENtNtNtBc_6traits8iterator8Iterator4nextINtNtNtBe_3ops8function6FnOnceTQB5_EE9call_onceCs9E08dBcDM90_15zerocopy_derive, symObjAddr: 0x60C0, symBinAddr: 0x329C0, symSize: 0x20 }
  - { offset: 0x5CE15, size: 0x8, addend: 0x0, symName: __RNvYNvYINtNtNtNtCsieiGu2EXtoJ_4core4iter8adapters5chain5ChainINtNtBa_3map3MapINtNtNtBe_5slice4iter4IterTRNtNtCsdGrGZaRBwMb_3syn11restriction10VisibilityNtCsaKzlTDPUHDb_11proc_macro211TokenStreamRNtNtB1J_2ty4TypeEENCNvNtNtCs9E08dBcDM90_15zerocopy_derive6derive14try_from_bytes29derive_has_field_struct_union0EINtNtBe_6option8IntoIterB2q_EENtNtNtBc_6traits8iterator8Iterator4nextINtNtNtBe_3ops8function6FnOnceTQB5_EE9call_onceB3x_, symObjAddr: 0x60E0, symBinAddr: 0x329E0, symSize: 0x30 }
  - { offset: 0x5CE59, size: 0x8, addend: 0x0, symName: __RNvYNvYINtNtNtNtCsieiGu2EXtoJ_4core4iter8adapters5chain5ChainINtNtBa_7flatten7FlattenINtNtBe_6option8IntoIterINtNtCsdGrGZaRBwMb_3syn10punctuated4IterNtNtB1O_8generics14WherePredicateEEEINtNtNtBe_5slice4iter4IterB2n_EENtNtNtBc_6traits8iterator8Iterator4nextINtNtNtBe_3ops8function6FnOnceTQB5_EE9call_onceCs9E08dBcDM90_15zerocopy_derive, symObjAddr: 0x6110, symBinAddr: 0x32A10, symSize: 0x20 }
  - { offset: 0x5CE9D, size: 0x8, addend: 0x0, symName: __RNvYNvYINtNtNtNtCsieiGu2EXtoJ_4core4iter8adapters7flatten7FlattenINtNtBe_6option8IntoIterINtNtCsdGrGZaRBwMb_3syn10punctuated4IterNtNtB1u_8generics14WherePredicateEEENtNtNtBc_6traits8iterator8Iterator4nextINtNtNtBe_3ops8function6FnOnceTQB5_EE9call_onceCs9E08dBcDM90_15zerocopy_derive, symObjAddr: 0x6130, symBinAddr: 0x32A30, symSize: 0x20 }
  - { offset: 0x5CEE1, size: 0x8, addend: 0x0, symName: __RNvYNvYNtCsaKzlTDPUHDb_11proc_macro25IdentNtNtCs9OU1sGv5X54_5quote9to_tokens8ToTokens15to_token_streamINtNtNtCsieiGu2EXtoJ_4core3ops8function6FnOnceTRB5_EE9call_onceCs9E08dBcDM90_15zerocopy_derive, symObjAddr: 0x6150, symBinAddr: 0x32A50, symSize: 0x30 }
  - { offset: 0x5CF25, size: 0x8, addend: 0x0, symName: __RNvYNvYNtCsaKzlTDPUHDb_11proc_macro25IdentNtNtCsdGrGZaRBwMb_3syn5parse5Parse5parseINtNtNtCsieiGu2EXtoJ_4core3ops8function6FnOnceTRNtBG_11ParseBufferEE9call_onceCs9E08dBcDM90_15zerocopy_derive, symObjAddr: 0x6180, symBinAddr: 0x32A80, symSize: 0x30 }
  - { offset: 0x5CF69, size: 0x8, addend: 0x0, symName: __RNvYNvYNtNtCsdGrGZaRBwMb_3syn2ty4TypeNtNtB9_11parse_quote10ParseQuote5parseINtNtNtCsieiGu2EXtoJ_4core3ops8function6FnOnceTRNtNtB9_5parse11ParseBufferEE9call_onceCs9E08dBcDM90_15zerocopy_derive, symObjAddr: 0x61B0, symBinAddr: 0x32AB0, symSize: 0x30 }
  - { offset: 0x5CFAD, size: 0x8, addend: 0x0, symName: __RNvYNvYNtNtCsdGrGZaRBwMb_3syn3lit6LitIntNtNtB9_5parse5Parse5parseINtNtNtCsieiGu2EXtoJ_4core3ops8function6FnOnceTRNtBE_11ParseBufferEE9call_onceCs9E08dBcDM90_15zerocopy_derive, symObjAddr: 0x61E0, symBinAddr: 0x32AE0, symSize: 0x30 }
  - { offset: 0x5CFF1, size: 0x8, addend: 0x0, symName: __RNvYNvYNtNtCsdGrGZaRBwMb_3syn4path30AngleBracketedGenericArgumentsNtNtB9_11parse_quote10ParseQuote5parseINtNtNtCsieiGu2EXtoJ_4core3ops8function6FnOnceTRNtNtB9_5parse11ParseBufferEE9call_onceCs9E08dBcDM90_15zerocopy_derive, symObjAddr: 0x6210, symBinAddr: 0x32B10, symSize: 0x30 }
  - { offset: 0x5D035, size: 0x8, addend: 0x0, symName: __RNvYNvYNtNtCsdGrGZaRBwMb_3syn4path4PathNtNtB9_11parse_quote10ParseQuote5parseINtNtNtCsieiGu2EXtoJ_4core3ops8function6FnOnceTRNtNtB9_5parse11ParseBufferEE9call_onceCs9E08dBcDM90_15zerocopy_derive, symObjAddr: 0x6240, symBinAddr: 0x32B40, symSize: 0x30 }
  - { offset: 0x5D079, size: 0x8, addend: 0x0, symName: __RNvYNvYNtNtCsdGrGZaRBwMb_3syn6derive11DeriveInputNtNtB9_11parse_quote10ParseQuote5parseINtNtNtCsieiGu2EXtoJ_4core3ops8function6FnOnceTRNtNtB9_5parse11ParseBufferEE9call_onceCs9E08dBcDM90_15zerocopy_derive, symObjAddr: 0x6270, symBinAddr: 0x32B70, symSize: 0x30 }
  - { offset: 0x5D0BD, size: 0x8, addend: 0x0, symName: __RNvYNvYNtNtCsdGrGZaRBwMb_3syn6derive11DeriveInputNtNtB9_5parse5Parse5parseINtNtNtCsieiGu2EXtoJ_4core3ops8function6FnOnceTRNtBN_11ParseBufferEE9call_onceCs9E08dBcDM90_15zerocopy_derive, symObjAddr: 0x62A0, symBinAddr: 0x32BA0, symSize: 0x30 }
  - { offset: 0x5D101, size: 0x8, addend: 0x0, symName: __RNvYNvYNtNtCsdGrGZaRBwMb_3syn8generics12GenericParamNtNtB9_11parse_quote10ParseQuote5parseINtNtNtCsieiGu2EXtoJ_4core3ops8function6FnOnceTRNtNtB9_5parse11ParseBufferEE9call_onceCs9E08dBcDM90_15zerocopy_derive, symObjAddr: 0x62D0, symBinAddr: 0x32BD0, symSize: 0x30 }
  - { offset: 0x5D145, size: 0x8, addend: 0x0, symName: __RNvYNvYNtNtCsdGrGZaRBwMb_3syn8generics14WherePredicateNtNtB9_11parse_quote10ParseQuote5parseINtNtNtCsieiGu2EXtoJ_4core3ops8function6FnOnceTRNtNtB9_5parse11ParseBufferEE9call_onceCs9E08dBcDM90_15zerocopy_derive, symObjAddr: 0x6300, symBinAddr: 0x32C00, symSize: 0x30 }
  - { offset: 0x5D18F, size: 0x8, addend: 0x0, symName: __RNvYNcNtINtNtCsieiGu2EXtoJ_4core6option6OptionNtCsaKzlTDPUHDb_11proc_macro211TokenStreamE4Some0INtNtNtBb_3ops8function5FnMutTBI_EE8call_mutCs9E08dBcDM90_15zerocopy_derive, symObjAddr: 0x5D00, symBinAddr: 0x32600, symSize: 0x50 }
  - { offset: 0x5D1D3, size: 0x8, addend: 0x0, symName: __RNvYNvYTljENtNtCsieiGu2EXtoJ_4core3cmp10PartialOrd2ltINtNtNtBd_3ops8function5FnMutTRB5_B1j_EE8call_mutCs9E08dBcDM90_15zerocopy_derive, symObjAddr: 0x6330, symBinAddr: 0x32C30, symSize: 0x30 }
  - { offset: 0x5D217, size: 0x8, addend: 0x0, symName: __RNvYNvYTlmENtNtCsieiGu2EXtoJ_4core3cmp10PartialOrd2ltINtNtNtBd_3ops8function5FnMutTRB5_B1j_EE8call_mutCs9E08dBcDM90_15zerocopy_derive, symObjAddr: 0x6360, symBinAddr: 0x32C60, symSize: 0x30 }
  - { offset: 0x5D261, size: 0x8, addend: 0x0, symName: __RNvYNvCs9E08dBcDM90_15zerocopy_derive11derive_hashINtNtNtCsieiGu2EXtoJ_4core3ops8function2FnTNtCscKtU6MdFI5n_10proc_macro11TokenStreamEE4callB4_, symObjAddr: 0x5D50, symBinAddr: 0x32650, symSize: 0x20 }
  - { offset: 0x5D2A5, size: 0x8, addend: 0x0, symName: __RNvYNvCs9E08dBcDM90_15zerocopy_derive15derive_as_bytesINtNtNtCsieiGu2EXtoJ_4core3ops8function2FnTNtCscKtU6MdFI5n_10proc_macro11TokenStreamEE4callB4_, symObjAddr: 0x5D70, symBinAddr: 0x32670, symSize: 0x20 }
  - { offset: 0x5D2E9, size: 0x8, addend: 0x0, symName: __RNvYNvCs9E08dBcDM90_15zerocopy_derive15derive_split_atINtNtNtCsieiGu2EXtoJ_4core3ops8function2FnTNtCscKtU6MdFI5n_10proc_macro11TokenStreamEE4callB4_, symObjAddr: 0x5D90, symBinAddr: 0x32690, symSize: 0x20 }
  - { offset: 0x5D32D, size: 0x8, addend: 0x0, symName: __RNvYNvCs9E08dBcDM90_15zerocopy_derive16derive_immutableINtNtNtCsieiGu2EXtoJ_4core3ops8function2FnTNtCscKtU6MdFI5n_10proc_macro11TokenStreamEE4callB4_, symObjAddr: 0x5DB0, symBinAddr: 0x326B0, symSize: 0x20 }
  - { offset: 0x5D371, size: 0x8, addend: 0x0, symName: __RNvYNvCs9E08dBcDM90_15zerocopy_derive16derive_unalignedINtNtNtCsieiGu2EXtoJ_4core3ops8function2FnTNtCscKtU6MdFI5n_10proc_macro11TokenStreamEE4callB4_, symObjAddr: 0x5DD0, symBinAddr: 0x326D0, symSize: 0x20 }
  - { offset: 0x5D3B5, size: 0x8, addend: 0x0, symName: __RNvYNvCs9E08dBcDM90_15zerocopy_derive17derive_from_bytesINtNtNtCsieiGu2EXtoJ_4core3ops8function2FnTNtCscKtU6MdFI5n_10proc_macro11TokenStreamEE4callB4_, symObjAddr: 0x5DF0, symBinAddr: 0x326F0, symSize: 0x20 }
  - { offset: 0x5D3F9, size: 0x8, addend: 0x0, symName: __RNvYNvCs9E08dBcDM90_15zerocopy_derive17derive_from_zerosINtNtNtCsieiGu2EXtoJ_4core3ops8function2FnTNtCscKtU6MdFI5n_10proc_macro11TokenStreamEE4callB4_, symObjAddr: 0x5E10, symBinAddr: 0x32710, symSize: 0x20 }
  - { offset: 0x5D43D, size: 0x8, addend: 0x0, symName: __RNvYNvCs9E08dBcDM90_15zerocopy_derive17derive_into_bytesINtNtNtCsieiGu2EXtoJ_4core3ops8function2FnTNtCscKtU6MdFI5n_10proc_macro11TokenStreamEE4callB4_, symObjAddr: 0x5E30, symBinAddr: 0x32730, symSize: 0x20 }
  - { offset: 0x5D481, size: 0x8, addend: 0x0, symName: __RNvYNvCs9E08dBcDM90_15zerocopy_derive18derive_from_zeroesINtNtNtCsieiGu2EXtoJ_4core3ops8function2FnTNtCscKtU6MdFI5n_10proc_macro11TokenStreamEE4callB4_, symObjAddr: 0x5E50, symBinAddr: 0x32750, symSize: 0x20 }
  - { offset: 0x5D4C5, size: 0x8, addend: 0x0, symName: __RNvYNvCs9E08dBcDM90_15zerocopy_derive19derive_known_layoutINtNtNtCsieiGu2EXtoJ_4core3ops8function2FnTNtCscKtU6MdFI5n_10proc_macro11TokenStreamEE4callB4_, symObjAddr: 0x5E70, symBinAddr: 0x32770, symSize: 0x20 }
  - { offset: 0x5D509, size: 0x8, addend: 0x0, symName: __RNvYNvCs9E08dBcDM90_15zerocopy_derive21derive_try_from_bytesINtNtNtCsieiGu2EXtoJ_4core3ops8function2FnTNtCscKtU6MdFI5n_10proc_macro11TokenStreamEE4callB4_, symObjAddr: 0x5E90, symBinAddr: 0x32790, symSize: 0x20 }
  - { offset: 0x5D54D, size: 0x8, addend: 0x0, symName: __RNvYNvCs9E08dBcDM90_15zerocopy_derive9derive_eqINtNtNtCsieiGu2EXtoJ_4core3ops8function2FnTNtCscKtU6MdFI5n_10proc_macro11TokenStreamEE4callB4_, symObjAddr: 0x5EB0, symBinAddr: 0x327B0, symSize: 0x20 }
  - { offset: 0x5D7F3, size: 0x8, addend: 0x0, symName: __RINvNtNtNtCsieiGu2EXtoJ_4core5slice4sort8unstable7ipnsortTljENvYBT_NtNtB8_3cmp10PartialOrd2ltECs9E08dBcDM90_15zerocopy_derive, symObjAddr: 0x38F0, symBinAddr: 0x30230, symSize: 0x400 }
  - { offset: 0x5DB64, size: 0x8, addend: 0x0, symName: __RINvNtNtNtCsieiGu2EXtoJ_4core5slice4sort8unstable7ipnsortTlmENvYBT_NtNtB8_3cmp10PartialOrd2ltECs9E08dBcDM90_15zerocopy_derive, symObjAddr: 0x3CF0, symBinAddr: 0x30630, symSize: 0x400 }
  - { offset: 0x5EF75, size: 0x8, addend: 0x0, symName: __RNvXs_NtNtCsieiGu2EXtoJ_4core3str6traitseNtNtB8_3cmp9PartialEq2eqCs9E08dBcDM90_15zerocopy_derive, symObjAddr: 0x5700, symBinAddr: 0x32040, symSize: 0x90 }
  - { offset: 0x5F0E0, size: 0x8, addend: 0x0, symName: __RNvYNCNvNtNtCs9E08dBcDM90_15zerocopy_derive6derive12known_layout37derive_known_layout_for_repr_c_struct0NtNtCsieiGu2EXtoJ_4core5clone5Clone5cloneBa_, symObjAddr: 0x5C50, symBinAddr: 0x32590, symSize: 0x10 }
  - { offset: 0x5FCC2, size: 0x8, addend: 0x0, symName: __RINvNtCsdGrGZaRBwMb_3syn4meta17parse_nested_metaNCNvMNtCs9E08dBcDM90_15zerocopy_derive4utilNtBP_3Ctx21try_from_derive_input0EBR_, symObjAddr: 0x0, symBinAddr: 0x2CA00, symSize: 0x4C0 }
  - { offset: 0x5FD83, size: 0x8, addend: 0x0, symName: __RINvNtCsdGrGZaRBwMb_3syn4meta6parserNCNvMNtCs9E08dBcDM90_15zerocopy_derive4utilNtBD_3Ctx21try_from_derive_input0EBF_, symObjAddr: 0x4C0, symBinAddr: 0x2CEC0, symSize: 0x30 }
  - { offset: 0x5FDBD, size: 0x8, addend: 0x0, symName: __RNCINvNtCsdGrGZaRBwMb_3syn4meta6parserNCNvMNtCs9E08dBcDM90_15zerocopy_derive4utilNtBF_3Ctx21try_from_derive_input0E0BH_, symObjAddr: 0x4430, symBinAddr: 0x30D70, symSize: 0xD0 }
  - { offset: 0x64D2E, size: 0x8, addend: 0x0, symName: __RNvXsh_NtCsdGrGZaRBwMb_3syn5parseNCINvNtB7_4meta6parserNCNvMNtCs9E08dBcDM90_15zerocopy_derive4utilNtBW_3Ctx21try_from_derive_input0E0NtB5_6Parser14___parse_scopedBY_, symObjAddr: 0x5790, symBinAddr: 0x320D0, symSize: 0x430 }
  - { offset: 0x668AB, size: 0x8, addend: 0x0, symName: __RNCINvMNtCslJiobkLta79_5alloc5sliceSNtNtCsdGrGZaRBwMb_3syn8generics12GenericParam18sort_by_cached_keylNCNvMs8_NtCs9E08dBcDM90_15zerocopy_derive4utilNtB1K_16ImplBlockBuilder5builds2_0E0B1M_, symObjAddr: 0x43F0, symBinAddr: 0x30D30, symSize: 0x20 }
  - { offset: 0x668FB, size: 0x8, addend: 0x0, symName: __RNCINvMNtCslJiobkLta79_5alloc5sliceSNtNtCsdGrGZaRBwMb_3syn8generics12GenericParam18sort_by_cached_keylNCNvMs8_NtCs9E08dBcDM90_15zerocopy_derive4utilNtB1K_16ImplBlockBuilder5builds2_0Es_0B1M_, symObjAddr: 0x4410, symBinAddr: 0x30D50, symSize: 0x20 }
  - { offset: 0x6724F, size: 0x8, addend: 0x0, symName: __RINvNvXNtCs9OU1sGv5X54_5quote3extNtCsaKzlTDPUHDb_11proc_macro211TokenStreamNtB5_14TokenStreamExt10append_all13do_append_allNtNtBx_12token_stream8IntoIterECs9E08dBcDM90_15zerocopy_derive, symObjAddr: 0x4200, symBinAddr: 0x30B40, symSize: 0x110 }
  - { offset: 0x68E93, size: 0x8, addend: 0x0, symName: __RINvMNtCs9E08dBcDM90_15zerocopy_derive4utilNtB3_3Ctx13error_or_skipNtNtCsdGrGZaRBwMb_3syn5error5ErrorEB5_, symObjAddr: 0x0, symBinAddr: 0x32C90, symSize: 0x110 }
  - { offset: 0x6F6F8, size: 0x8, addend: 0x0, symName: __RNvXs1J_NtCscKtU6MdFI5n_10proc_macro6bridgeINtB6_11ExpnGlobalsNtNtB6_6client4SpanEINtNtB6_3rpc9DecodeMutuE6decodeCs9E08dBcDM90_15zerocopy_derive, symObjAddr: 0x90C0, symBinAddr: 0x3BD50, symSize: 0xA0 }
  - { offset: 0x6F74F, size: 0x8, addend: 0x0, symName: __RNvXs9_NtNtCscKtU6MdFI5n_10proc_macro6bridge3rpcTINtB7_11ExpnGlobalsNtNtB7_6client4SpanENtB16_11TokenStreamEINtB5_9DecodeMutuE6decodeCs9E08dBcDM90_15zerocopy_derive, symObjAddr: 0x98E0, symBinAddr: 0x3C570, symSize: 0x80 }
  - { offset: 0x72AB7, size: 0x8, addend: 0x0, symName: __RNvMNtCsieiGu2EXtoJ_4core5sliceSNtNtCs9E08dBcDM90_15zerocopy_derive4util10TraitBound4iterBy_, symObjAddr: 0x6390, symBinAddr: 0x39020, symSize: 0x20 }
  - { offset: 0x72AEE, size: 0x8, addend: 0x0, symName: __RNvMNtCsieiGu2EXtoJ_4core5sliceSNtNtCs9E08dBcDM90_15zerocopy_derive4util5Trait4iterBy_, symObjAddr: 0x63B0, symBinAddr: 0x39040, symSize: 0x20 }
  - { offset: 0x72CB1, size: 0x8, addend: 0x0, symName: __RNvXs1_NtCsieiGu2EXtoJ_4core7convertNtNtCs9E08dBcDM90_15zerocopy_derive4util12PaddingCheckINtB5_4IntoINtNtB7_6option6OptionBy_EE4intoBC_, symObjAddr: 0x9160, symBinAddr: 0x3BDF0, symSize: 0x20 }
  - { offset: 0x73883, size: 0x8, addend: 0x0, symName: __RNvXs9_NtCs9E08dBcDM90_15zerocopy_derive4reprNtNtCsdGrGZaRBwMb_3syn5error5ErrorINtNtCsieiGu2EXtoJ_4core7convert4FromINtNtB5_4util7SpannedNtB5_14FromAttrsErrorEE4from, symObjAddr: 0x9820, symBinAddr: 0x3C4B0, symSize: 0xC0 }
  - { offset: 0x740A4, size: 0x8, addend: 0x0, symName: __RINvNtCs9E08dBcDM90_15zerocopy_derive4util10map_fieldsINtNtNtNtCsieiGu2EXtoJ_4core4iter8adapters7flatten7FlatMapINtNtCsdGrGZaRBwMb_3syn10punctuated4IterNtNtB1R_4data7VariantERNtB2s_6FieldsNCNvXs1_B2_NtNtB1R_6derive8DataEnumNtB2_7DataExt6fields0EEB4_, symObjAddr: 0x660, symBinAddr: 0x332F0, symSize: 0x70 }
  - { offset: 0x740DA, size: 0x8, addend: 0x0, symName: __RINvNtCs9E08dBcDM90_15zerocopy_derive4util10map_fieldsRINtNtCsdGrGZaRBwMb_3syn10punctuated10PunctuatedNtNtBW_4data5FieldNtNtBW_5token5CommaEEB4_, symObjAddr: 0x6D0, symBinAddr: 0x33360, symSize: 0x60 }
  - { offset: 0x7410F, size: 0x8, addend: 0x0, symName: __RINvNtCs9E08dBcDM90_15zerocopy_derive4util10map_fieldsRNtNtCsdGrGZaRBwMb_3syn4data6FieldsEB4_, symObjAddr: 0x730, symBinAddr: 0x333C0, symSize: 0x60 }
  - { offset: 0x74144, size: 0x8, addend: 0x0, symName: __RINvNtCs9E08dBcDM90_15zerocopy_derive4util11const_blockAINtNtCsieiGu2EXtoJ_4core6option6OptionNtCsaKzlTDPUHDb_11proc_macro211TokenStreamEj1_EB4_, symObjAddr: 0x790, symBinAddr: 0x33420, symSize: 0x790 }
  - { offset: 0x742C4, size: 0x8, addend: 0x0, symName: __RINvNtCs9E08dBcDM90_15zerocopy_derive4util11const_blockAINtNtCsieiGu2EXtoJ_4core6option6OptionNtCsaKzlTDPUHDb_11proc_macro211TokenStreamEj3_EB4_, symObjAddr: 0xF20, symBinAddr: 0x33BB0, symSize: 0x790 }
  - { offset: 0x74444, size: 0x8, addend: 0x0, symName: __RINvNtCs9E08dBcDM90_15zerocopy_derive4util11const_blockINtNtNtNtCsieiGu2EXtoJ_4core4iter8adapters3map3MapINtNtBW_5chain5ChainIB1G_IBS_INtNtNtB10_5slice4iter4IterTRNtNtCsdGrGZaRBwMb_3syn11restriction10VisibilityNtCsaKzlTDPUHDb_11proc_macro211TokenStreamRNtNtB2F_2ty4TypeEENCNvNtNtB4_6derive14try_from_bytes29derive_has_field_struct_union0EINtNtB10_6option8IntoIterB3m_EEIBS_B28_NCB4n_s0_0EENcNtINtB5t_6OptionB3m_E4Some0EEB4_, symObjAddr: 0x16B0, symBinAddr: 0x34340, symSize: 0x790 }
  - { offset: 0x745C4, size: 0x8, addend: 0x0, symName: __RINvNtCs9E08dBcDM90_15zerocopy_derive4util12to_ident_strNtCsaKzlTDPUHDb_11proc_macro211TokenStreamEB4_, symObjAddr: 0x1E40, symBinAddr: 0x34AD0, symSize: 0x140 }
  - { offset: 0x74624, size: 0x8, addend: 0x0, symName: __RINvNtCs9E08dBcDM90_15zerocopy_derive4util12to_ident_strNtCsaKzlTDPUHDb_11proc_macro25IdentEB4_, symObjAddr: 0x1F80, symBinAddr: 0x34C10, symSize: 0x140 }
  - { offset: 0x7468E, size: 0x8, addend: 0x0, symName: __RINvNvMs8_NtCs9E08dBcDM90_15zerocopy_derive4utilNtB8_16ImplBlockBuilder5build8bound_ttINtNtNtNtCsieiGu2EXtoJ_4core4iter8adapters3map3MapINtNtNtB1v_5slice4iter4IterNtB8_10TraitBoundENCNvB8_16normalize_bounds0EEBa_, symObjAddr: 0x20C0, symBinAddr: 0x34D50, symSize: 0x2D0 }
  - { offset: 0x747B4, size: 0x8, addend: 0x0, symName: __RINvNvMs8_NtCs9E08dBcDM90_15zerocopy_derive4utilNtB8_16ImplBlockBuilder5build8bound_ttINtNtNtNtCsieiGu2EXtoJ_4core4iter8adapters6cloned6ClonedINtNtNtB1v_5slice4iter4IterNtB8_5TraitEEEBa_, symObjAddr: 0x2390, symBinAddr: 0x35020, symSize: 0x2D0 }
  - { offset: 0x748DD, size: 0x8, addend: 0x0, symName: __RNCINvNvMs8_NtCs9E08dBcDM90_15zerocopy_derive4utilNtBa_16ImplBlockBuilder5build8bound_ttINtNtNtNtCsieiGu2EXtoJ_4core4iter8adapters3map3MapINtNtNtB1x_5slice4iter4IterNtBa_10TraitBoundENCNvBa_16normalize_bounds0EE0Bc_, symObjAddr: 0x28A0, symBinAddr: 0x35530, symSize: 0x70 }
  - { offset: 0x74927, size: 0x8, addend: 0x0, symName: __RNCINvNvMs8_NtCs9E08dBcDM90_15zerocopy_derive4utilNtBa_16ImplBlockBuilder5build8bound_ttINtNtNtNtCsieiGu2EXtoJ_4core4iter8adapters6cloned6ClonedINtNtNtB1x_5slice4iter4IterNtBa_5TraitEEE0Bc_, symObjAddr: 0x2910, symBinAddr: 0x355A0, symSize: 0x70 }
  - { offset: 0x749A2, size: 0x8, addend: 0x0, symName: __RNCNCNCNvMs8_NtCs9E08dBcDM90_15zerocopy_derive4utilNtBb_16ImplBlockBuilder5builds_0s0_00Bd_, symObjAddr: 0x2A70, symBinAddr: 0x35700, symSize: 0x30 }
  - { offset: 0x749DF, size: 0x8, addend: 0x0, symName: __RNCNCNvMs8_NtCs9E08dBcDM90_15zerocopy_derive4utilNtB9_16ImplBlockBuilder5builds_00Bb_, symObjAddr: 0x2AD0, symBinAddr: 0x35760, symSize: 0x2D0 }
  - { offset: 0x74ADC, size: 0x8, addend: 0x0, symName: __RNCNCNvMs8_NtCs9E08dBcDM90_15zerocopy_derive4utilNtB9_16ImplBlockBuilder5builds_0s0_0Bb_, symObjAddr: 0x2DA0, symBinAddr: 0x35A30, symSize: 0x2C0 }
  - { offset: 0x74C22, size: 0x8, addend: 0x0, symName: __RNCNCNvMs8_NtCs9E08dBcDM90_15zerocopy_derive4utilNtB9_16ImplBlockBuilder5builds_0s_0Bb_, symObjAddr: 0x3060, symBinAddr: 0x35CF0, symSize: 0x1F0 }
  - { offset: 0x74CCC, size: 0x8, addend: 0x0, symName: __RNCNvMs8_NtCs9E08dBcDM90_15zerocopy_derive4utilNtB7_16ImplBlockBuilder5build0B9_, symObjAddr: 0x3D70, symBinAddr: 0x36A00, symSize: 0x80 }
  - { offset: 0x74D66, size: 0x8, addend: 0x0, symName: __RNCNvMs8_NtCs9E08dBcDM90_15zerocopy_derive4utilNtB7_16ImplBlockBuilder5builds0_0B9_, symObjAddr: 0x3DF0, symBinAddr: 0x36A80, symSize: 0x20 }
  - { offset: 0x74D9F, size: 0x8, addend: 0x0, symName: __RNCNvMs8_NtCs9E08dBcDM90_15zerocopy_derive4utilNtB7_16ImplBlockBuilder5builds1_0B9_, symObjAddr: 0x3E10, symBinAddr: 0x36AA0, symSize: 0x220 }
  - { offset: 0x74E1C, size: 0x8, addend: 0x0, symName: __RNCNvMs8_NtCs9E08dBcDM90_15zerocopy_derive4utilNtB7_16ImplBlockBuilder5builds2_0B9_, symObjAddr: 0x4030, symBinAddr: 0x36CC0, symSize: 0x80 }
  - { offset: 0x74E55, size: 0x8, addend: 0x0, symName: __RNCNvMs8_NtCs9E08dBcDM90_15zerocopy_derive4utilNtB7_16ImplBlockBuilder5builds3_0B9_, symObjAddr: 0x40B0, symBinAddr: 0x36D40, symSize: 0x2B0 }
  - { offset: 0x74F71, size: 0x8, addend: 0x0, symName: __RNCNvMs8_NtCs9E08dBcDM90_15zerocopy_derive4utilNtB7_16ImplBlockBuilder5builds4_0B9_, symObjAddr: 0x4360, symBinAddr: 0x36FF0, symSize: 0x30 }
  - { offset: 0x74FAA, size: 0x8, addend: 0x0, symName: __RNCNvMs8_NtCs9E08dBcDM90_15zerocopy_derive4utilNtB7_16ImplBlockBuilder5builds_0B9_, symObjAddr: 0x4390, symBinAddr: 0x37020, symSize: 0xF00 }
  - { offset: 0x753A1, size: 0x8, addend: 0x0, symName: __RNCINvNtCs9E08dBcDM90_15zerocopy_derive4util10map_fieldsINtNtNtNtCsieiGu2EXtoJ_4core4iter8adapters7flatten7FlatMapINtNtCsdGrGZaRBwMb_3syn10punctuated4IterNtNtB1T_4data7VariantERNtB2u_6FieldsNCNvXs1_B4_NtNtB1T_6derive8DataEnumNtB4_7DataExt6fields0EE0B6_, symObjAddr: 0x2660, symBinAddr: 0x352F0, symSize: 0xC0 }
  - { offset: 0x75401, size: 0x8, addend: 0x0, symName: __RNCINvNtCs9E08dBcDM90_15zerocopy_derive4util10map_fieldsRINtNtCsdGrGZaRBwMb_3syn10punctuated10PunctuatedNtNtBY_4data5FieldNtNtBY_5token5CommaEE0B6_, symObjAddr: 0x2720, symBinAddr: 0x353B0, symSize: 0xC0 }
  - { offset: 0x75461, size: 0x8, addend: 0x0, symName: __RNCINvNtCs9E08dBcDM90_15zerocopy_derive4util10map_fieldsRNtNtCsdGrGZaRBwMb_3syn4data6FieldsE0B6_, symObjAddr: 0x27E0, symBinAddr: 0x35470, symSize: 0xC0 }
  - { offset: 0x754C6, size: 0x8, addend: 0x0, symName: __RNCNCINvNtCs9E08dBcDM90_15zerocopy_derive4util10map_fieldsINtNtNtNtCsieiGu2EXtoJ_4core4iter8adapters7flatten7FlatMapINtNtCsdGrGZaRBwMb_3syn10punctuated4IterNtNtB1V_4data7VariantERNtB2w_6FieldsNCNvXs1_B6_NtNtB1V_6derive8DataEnumNtB6_7DataExt6fields0EE00B8_, symObjAddr: 0x2980, symBinAddr: 0x35610, symSize: 0x50 }
  - { offset: 0x754FD, size: 0x8, addend: 0x0, symName: __RNCNCINvNtCs9E08dBcDM90_15zerocopy_derive4util10map_fieldsRINtNtCsdGrGZaRBwMb_3syn10punctuated10PunctuatedNtNtB10_4data5FieldNtNtB10_5token5CommaEE00B8_, symObjAddr: 0x29D0, symBinAddr: 0x35660, symSize: 0x50 }
  - { offset: 0x75534, size: 0x8, addend: 0x0, symName: __RNCNCINvNtCs9E08dBcDM90_15zerocopy_derive4util10map_fieldsRNtNtCsdGrGZaRBwMb_3syn4data6FieldsE00B8_, symObjAddr: 0x2A20, symBinAddr: 0x356B0, symSize: 0x50 }
  - { offset: 0x75591, size: 0x8, addend: 0x0, symName: __RNCNCNvMNtCs9E08dBcDM90_15zerocopy_derive4utilNtB6_3Ctx21try_from_derive_input00B8_, symObjAddr: 0x2AA0, symBinAddr: 0x35730, symSize: 0x30 }
  - { offset: 0x755CF, size: 0x8, addend: 0x0, symName: __RNCNvMNtCs9E08dBcDM90_15zerocopy_derive4utilNtB4_3Ctx21try_from_derive_input0B6_, symObjAddr: 0x3250, symBinAddr: 0x35EE0, symSize: 0xB20 }
  - { offset: 0x7574B, size: 0x8, addend: 0x0, symName: __RNCNvNtCs9E08dBcDM90_15zerocopy_derive4util16normalize_bounds0B5_, symObjAddr: 0x5290, symBinAddr: 0x37F20, symSize: 0x80 }
  - { offset: 0x757B9, size: 0x8, addend: 0x0, symName: __RNCNvNtCs9E08dBcDM90_15zerocopy_derive4util17generate_tag_enum0B5_, symObjAddr: 0x5310, symBinAddr: 0x37FA0, symSize: 0x180 }
  - { offset: 0x75870, size: 0x8, addend: 0x0, symName: __RNCNvXs1_NtCs9E08dBcDM90_15zerocopy_derive4utilNtNtCsdGrGZaRBwMb_3syn6derive8DataEnumNtB7_7DataExt6fields0B9_, symObjAddr: 0x5490, symBinAddr: 0x38120, symSize: 0x20 }
  - { offset: 0x758B3, size: 0x8, addend: 0x0, symName: __RNCNvXs1_NtCs9E08dBcDM90_15zerocopy_derive4utilNtNtCsdGrGZaRBwMb_3syn6derive8DataEnumNtB7_7DataExt8variants0B9_, symObjAddr: 0x54B0, symBinAddr: 0x38140, symSize: 0x70 }
  - { offset: 0x758F2, size: 0x8, addend: 0x0, symName: __RNvNtCs9E08dBcDM90_15zerocopy_derive4util16normalize_bounds, symObjAddr: 0x84D0, symBinAddr: 0x3B160, symSize: 0x60 }
  - { offset: 0x7592F, size: 0x8, addend: 0x0, symName: __RNvNtCs9E08dBcDM90_15zerocopy_derive4util17generate_tag_enum, symObjAddr: 0x8530, symBinAddr: 0x3B1C0, symSize: 0x990 }
  - { offset: 0x75BA0, size: 0x8, addend: 0x0, symName: __RNvNtCs9E08dBcDM90_15zerocopy_derive4util19enum_size_from_repr, symObjAddr: 0x8EC0, symBinAddr: 0x3BB50, symSize: 0x170 }
  - { offset: 0x75C2D, size: 0x8, addend: 0x0, symName: __RNvXs4_NtCs9E08dBcDM90_15zerocopy_derive4utilNtB5_5TraitNtNtCs9OU1sGv5X54_5quote9to_tokens8ToTokens9to_tokens, symObjAddr: 0x9180, symBinAddr: 0x3BE10, symSize: 0x6A0 }
  - { offset: 0x75D78, size: 0x8, addend: 0x0, symName: __RNvXsa_NtCs9E08dBcDM90_15zerocopy_derive4utilNtB5_5TraitNtNtCsieiGu2EXtoJ_4core5clone5Clone5cloneB7_, symObjAddr: 0x9960, symBinAddr: 0x3C5F0, symSize: 0x360 }
  - { offset: 0x76397, size: 0x8, addend: 0x0, symName: __RINvMNtCs9E08dBcDM90_15zerocopy_derive4utilNtB3_3Ctx13error_or_skipNtNtCsdGrGZaRBwMb_3syn5error5ErrorEB5_, symObjAddr: 0x0, symBinAddr: 0x32C90, symSize: 0x110 }
  - { offset: 0x763DE, size: 0x8, addend: 0x0, symName: __RINvMNtCsdGrGZaRBwMb_3syn5errorNtB3_5Error11new_spannedRNtNtB5_6derive11DeriveInputNtNtCslJiobkLta79_5alloc6string6StringECs9E08dBcDM90_15zerocopy_derive, symObjAddr: 0x110, symBinAddr: 0x32DA0, symSize: 0xC0 }
  - { offset: 0x7643F, size: 0x8, addend: 0x0, symName: __RINvMNtCsdGrGZaRBwMb_3syn5errorNtB3_5Error11new_spannedRNtNtB5_6derive11DeriveInputReECs9E08dBcDM90_15zerocopy_derive, symObjAddr: 0x1D0, symBinAddr: 0x32E60, symSize: 0xB0 }
  - { offset: 0x76518, size: 0x8, addend: 0x0, symName: __RINvMs8_NtCs9E08dBcDM90_15zerocopy_derive4utilNtB6_16ImplBlockBuilder12outer_extrasINtNtCsieiGu2EXtoJ_4core6option6OptionNtCsaKzlTDPUHDb_11proc_macro211TokenStreamEEB8_, symObjAddr: 0x280, symBinAddr: 0x32F10, symSize: 0xF0 }
  - { offset: 0x76556, size: 0x8, addend: 0x0, symName: __RINvMs8_NtCs9E08dBcDM90_15zerocopy_derive4utilNtB6_16ImplBlockBuilder12outer_extrasNtCsaKzlTDPUHDb_11proc_macro211TokenStreamEB8_, symObjAddr: 0x370, symBinAddr: 0x33000, symSize: 0xF0 }
  - { offset: 0x76594, size: 0x8, addend: 0x0, symName: __RINvMs8_NtCs9E08dBcDM90_15zerocopy_derive4utilNtB6_16ImplBlockBuilder13padding_checkINtNtCsieiGu2EXtoJ_4core6option6OptionNtB6_12PaddingCheckEEB8_, symObjAddr: 0x460, symBinAddr: 0x330F0, symSize: 0x100 }
  - { offset: 0x765D2, size: 0x8, addend: 0x0, symName: __RINvMs8_NtCs9E08dBcDM90_15zerocopy_derive4utilNtB6_16ImplBlockBuilder13padding_checkNtB6_12PaddingCheckEB8_, symObjAddr: 0x560, symBinAddr: 0x331F0, symSize: 0x100 }
  - { offset: 0x7667E, size: 0x8, addend: 0x0, symName: __RNvMNtCs9E08dBcDM90_15zerocopy_derive4utilNtB2_3Ctx10with_input, symObjAddr: 0x5520, symBinAddr: 0x381B0, symSize: 0x140 }
  - { offset: 0x766AE, size: 0x8, addend: 0x0, symName: __RNvMNtCs9E08dBcDM90_15zerocopy_derive4utilNtB2_3Ctx17cfg_compile_error, symObjAddr: 0x5660, symBinAddr: 0x382F0, symSize: 0x820 }
  - { offset: 0x7688C, size: 0x8, addend: 0x0, symName: __RNvMNtCs9E08dBcDM90_15zerocopy_derive4utilNtB2_3Ctx21try_from_derive_input, symObjAddr: 0x5E80, symBinAddr: 0x38B10, symSize: 0x410 }
  - { offset: 0x76965, size: 0x8, addend: 0x0, symName: __RNvMNtCs9E08dBcDM90_15zerocopy_derive4utilNtB2_3Ctx9core_path, symObjAddr: 0x6290, symBinAddr: 0x38F20, symSize: 0x100 }
  - { offset: 0x769CB, size: 0x8, addend: 0x0, symName: __RNvMs3_NtCs9E08dBcDM90_15zerocopy_derive4utilNtB5_12PaddingCheck23validator_macro_context, symObjAddr: 0x63D0, symBinAddr: 0x39060, symSize: 0x70 }
  - { offset: 0x76A2A, size: 0x8, addend: 0x0, symName: __RNvMs3_NtCs9E08dBcDM90_15zerocopy_derive4utilNtB5_12PaddingCheck32validator_trait_and_macro_idents, symObjAddr: 0x6440, symBinAddr: 0x390D0, symSize: 0x290 }
  - { offset: 0x76ABE, size: 0x8, addend: 0x0, symName: __RNvMs5_NtCs9E08dBcDM90_15zerocopy_derive4utilNtB5_5Trait10crate_path, symObjAddr: 0x66D0, symBinAddr: 0x39360, symSize: 0x210 }
  - { offset: 0x76B4C, size: 0x8, addend: 0x0, symName: __RNvMs8_NtCs9E08dBcDM90_15zerocopy_derive4utilNtB5_16ImplBlockBuilder12inner_extras, symObjAddr: 0x68E0, symBinAddr: 0x39570, symSize: 0xD0 }
  - { offset: 0x76B81, size: 0x8, addend: 0x0, symName: __RNvMs8_NtCs9E08dBcDM90_15zerocopy_derive4utilNtB5_16ImplBlockBuilder12param_extras, symObjAddr: 0x69B0, symBinAddr: 0x39640, symSize: 0x90 }
  - { offset: 0x76BB5, size: 0x8, addend: 0x0, symName: __RNvMs8_NtCs9E08dBcDM90_15zerocopy_derive4utilNtB5_16ImplBlockBuilder22self_type_trait_bounds, symObjAddr: 0x6A40, symBinAddr: 0x396D0, symSize: 0x50 }
  - { offset: 0x76BE8, size: 0x8, addend: 0x0, symName: __RNvMs8_NtCs9E08dBcDM90_15zerocopy_derive4utilNtB5_16ImplBlockBuilder3new, symObjAddr: 0x6A90, symBinAddr: 0x39720, symSize: 0x240 }
  - { offset: 0x76C3A, size: 0x8, addend: 0x0, symName: __RNvMs8_NtCs9E08dBcDM90_15zerocopy_derive4utilNtB5_16ImplBlockBuilder5build, symObjAddr: 0x6CD0, symBinAddr: 0x39960, symSize: 0x1800 }
  - { offset: 0x770C8, size: 0x8, addend: 0x0, symName: __RNvXNtCs9OU1sGv5X54_5quote9to_tokensRNtNtCs9E08dBcDM90_15zerocopy_derive4util5TraitNtB2_8ToTokens9to_tokensBD_, symObjAddr: 0x9030, symBinAddr: 0x3BCC0, symSize: 0x30 }
  - { offset: 0x77107, size: 0x8, addend: 0x0, symName: __RNvXNtCs9OU1sGv5X54_5quote9to_tokensRNtNtCsdGrGZaRBwMb_3syn5token2EqNtB2_8ToTokens9to_tokensCs9E08dBcDM90_15zerocopy_derive, symObjAddr: 0x9060, symBinAddr: 0x3BCF0, symSize: 0x30 }
  - { offset: 0x77146, size: 0x8, addend: 0x0, symName: __RNvXNtCs9OU1sGv5X54_5quote9to_tokensReNtB2_8ToTokens9to_tokensCs9E08dBcDM90_15zerocopy_derive, symObjAddr: 0x9090, symBinAddr: 0x3BD20, symSize: 0x30 }
  - { offset: 0x777E9, size: 0x8, addend: 0x0, symName: __RINvMNtCsieiGu2EXtoJ_4core6optionINtB3_6OptionINtNtNtCs9E08dBcDM90_15zerocopy_derive4repr4util7SpannedINtNtNtB5_3num7nonzero7NonZeromEEE3mapNtCsaKzlTDPUHDb_11proc_macro211TokenStreamNCNCNvMs8_NtBP_4utilNtB34_16ImplBlockBuilder5builds_00EBP_, symObjAddr: 0x0, symBinAddr: 0x3C950, symSize: 0x90 }
  - { offset: 0x7C6AB, size: 0x8, addend: 0x0, symName: __RNvXNtCsdGrGZaRBwMb_3syn7spannedNtCsaKzlTDPUHDb_11proc_macro211TokenStreamNtB2_7Spanned4spanCs9E08dBcDM90_15zerocopy_derive, symObjAddr: 0x5200, symBinAddr: 0x41B50, symSize: 0x20 }
  - { offset: 0x7CC99, size: 0x8, addend: 0x0, symName: __RINvXs4_CsaKzlTDPUHDb_11proc_macro2NtB6_11TokenStreamINtNtNtNtCsieiGu2EXtoJ_4core4iter6traits7collect6ExtendNtB6_9TokenTreeE6extendBx_ECs9E08dBcDM90_15zerocopy_derive, symObjAddr: 0x28E0, symBinAddr: 0x3F230, symSize: 0x20 }
  - { offset: 0x7CCE2, size: 0x8, addend: 0x0, symName: __RINvXsb_CsaKzlTDPUHDb_11proc_macro2NtB6_11TokenStreamINtNtNtNtCsieiGu2EXtoJ_4core4iter6traits7collect12FromIteratorBx_E9from_iterINtNtNtBY_5array4iter8IntoIterBx_Kj2_EECs9E08dBcDM90_15zerocopy_derive, symObjAddr: 0x2900, symBinAddr: 0x3F250, symSize: 0x70 }
  - { offset: 0x7CD1F, size: 0x8, addend: 0x0, symName: __RNCINvXsb_CsaKzlTDPUHDb_11proc_macro2NtB8_11TokenStreamINtNtNtNtCsieiGu2EXtoJ_4core4iter6traits7collect12FromIteratorBz_E9from_iterINtNtNtB10_5array4iter8IntoIterBz_Kj2_EE0Cs9E08dBcDM90_15zerocopy_derive, symObjAddr: 0x2970, symBinAddr: 0x3F2C0, symSize: 0x30 }
  - { offset: 0x7CD6F, size: 0x8, addend: 0x0, symName: __RNvXsK_CsaKzlTDPUHDb_11proc_macro2NtB5_11TokenStreamNtNtCsieiGu2EXtoJ_4core5clone5Clone5cloneCs9E08dBcDM90_15zerocopy_derive, symObjAddr: 0x5780, symBinAddr: 0x420D0, symSize: 0x90 }
  - { offset: 0x7D498, size: 0x8, addend: 0x0, symName: __RNvXs7_NtNtCscKtU6MdFI5n_10proc_macro6bridge3rpcINtNtNtCsieiGu2EXtoJ_4core3num7nonzero7NonZeromEINtB5_9DecodeMutuE6decodeCs9E08dBcDM90_15zerocopy_derive, symObjAddr: 0x5610, symBinAddr: 0x41F60, symSize: 0x50 }
  - { offset: 0x7D574, size: 0x8, addend: 0x0, symName: __RNvXsR_NtCscKtU6MdFI5n_10proc_macro6bridgeINtNtCsieiGu2EXtoJ_4core6option6OptionNtNtB5_6client11TokenStreamEINtNtB5_3rpc6EncodeuE6encodeCs9E08dBcDM90_15zerocopy_derive, symObjAddr: 0x58D0, symBinAddr: 0x42220, symSize: 0xB0 }
  - { offset: 0x7D61A, size: 0x8, addend: 0x0, symName: __RNvXsR_NtCscKtU6MdFI5n_10proc_macro6bridgeINtNtCsieiGu2EXtoJ_4core6option6OptionReEINtNtB5_3rpc6EncodeuE6encodeCs9E08dBcDM90_15zerocopy_derive, symObjAddr: 0x5980, symBinAddr: 0x422D0, symSize: 0xC0 }
  - { offset: 0x7D867, size: 0x8, addend: 0x0, symName: __RNvNvMsd_NtNtCsieiGu2EXtoJ_4core3num7nonzeroINtB7_7NonZeropE13new_unchecked18precondition_checkCs9E08dBcDM90_15zerocopy_derive, symObjAddr: 0x50F0, symBinAddr: 0x41A40, symSize: 0x80 }
  - { offset: 0x810E0, size: 0x8, addend: 0x0, symName: __RNcNtINtNtCsieiGu2EXtoJ_4core6option6OptionNtCsaKzlTDPUHDb_11proc_macro211TokenStreamE4Some0Cs9E08dBcDM90_15zerocopy_derive, symObjAddr: 0x29C0, symBinAddr: 0x3F310, symSize: 0x30 }
  - { offset: 0x816A5, size: 0x8, addend: 0x0, symName: __RNvXs6_NtCsieiGu2EXtoJ_4core6optionINtB5_6OptionINtNtCsdGrGZaRBwMb_3syn10punctuated4IterNtNtBP_8generics14WherePredicateEENtNtNtNtB7_4iter6traits7collect12IntoIterator9into_iterCs9E08dBcDM90_15zerocopy_derive, symObjAddr: 0x55A0, symBinAddr: 0x41EF0, symSize: 0x20 }
  - { offset: 0x816DC, size: 0x8, addend: 0x0, symName: __RNvXs6_NtCsieiGu2EXtoJ_4core6optionINtB5_6OptionNtCsaKzlTDPUHDb_11proc_macro211TokenStreamENtNtNtNtB7_4iter6traits7collect12IntoIterator9into_iterCs9E08dBcDM90_15zerocopy_derive, symObjAddr: 0x55C0, symBinAddr: 0x41F10, symSize: 0x50 }
  - { offset: 0x81719, size: 0x8, addend: 0x0, symName: __RNvXs9_NtCsieiGu2EXtoJ_4core6optionINtB5_6OptionNtCsaKzlTDPUHDb_11proc_macro211TokenStreamEINtNtB7_7convert4FromBK_E4fromCs9E08dBcDM90_15zerocopy_derive, symObjAddr: 0x5680, symBinAddr: 0x41FD0, symSize: 0x30 }
  - { offset: 0x81750, size: 0x8, addend: 0x0, symName: __RNvXs9_NtCsieiGu2EXtoJ_4core6optionINtB5_6OptionNtNtCs9E08dBcDM90_15zerocopy_derive4util12PaddingCheckEINtNtB7_7convert4FromBK_E4fromBO_, symObjAddr: 0x56B0, symBinAddr: 0x42000, symSize: 0x30 }
  - { offset: 0x8178D, size: 0x8, addend: 0x0, symName: __RNvXsC_NtCsieiGu2EXtoJ_4core6optionINtB5_6OptionTRTRNtNtCsdGrGZaRBwMb_3syn11restriction10VisibilityNtCsaKzlTDPUHDb_11proc_macro211TokenStreamRNtNtBS_2ty4TypeERSBM_EENtNtNtB7_3ops9try_trait3Try6branchCs9E08dBcDM90_15zerocopy_derive, symObjAddr: 0x56E0, symBinAddr: 0x42030, symSize: 0x80 }
  - { offset: 0x817E9, size: 0x8, addend: 0x0, symName: __RNvXsD_NtCsieiGu2EXtoJ_4core6optionINtB5_6OptionTNtNtCs9E08dBcDM90_15zerocopy_derive4util10SelfBoundsNtCsaKzlTDPUHDb_11proc_macro211TokenStreamIBy_B1B_EEEINtNtNtB7_3ops9try_trait12FromResidualIBy_NtNtB7_7convert10InfallibleEE13from_residualBP_, symObjAddr: 0x5760, symBinAddr: 0x420B0, symSize: 0x20 }
  - { offset: 0x818E8, size: 0x8, addend: 0x0, symName: __RNvXsP_NtCsieiGu2EXtoJ_4core6optionINtB5_8IntoIterRNtNtCsdGrGZaRBwMb_3syn4data7VariantENtNtB7_5clone5Clone5cloneCs9E08dBcDM90_15zerocopy_derive, symObjAddr: 0x5810, symBinAddr: 0x42160, symSize: 0x60 }
  - { offset: 0x81993, size: 0x8, addend: 0x0, symName: __RNvXsP_NtCsieiGu2EXtoJ_4core6optionINtB5_8IntoIterRNtNtCsdGrGZaRBwMb_3syn8generics14WherePredicateENtNtB7_5clone5Clone5cloneCs9E08dBcDM90_15zerocopy_derive, symObjAddr: 0x5870, symBinAddr: 0x421C0, symSize: 0x60 }
  - { offset: 0x81AEC, size: 0x8, addend: 0x0, symName: __RNvXsl_NtCsieiGu2EXtoJ_4core6optionINtB5_4IterNtCsaKzlTDPUHDb_11proc_macro25IdentENtNtNtNtB7_4iter6traits8iterator8Iterator4nextCs9E08dBcDM90_15zerocopy_derive, symObjAddr: 0x5BC0, symBinAddr: 0x42510, symSize: 0x20 }
  - { offset: 0x81B64, size: 0x8, addend: 0x0, symName: __RNvXsl_NtCsieiGu2EXtoJ_4core6optionINtB5_4IterNtNtCsdGrGZaRBwMb_3syn8generics14WherePredicateENtNtNtNtB7_4iter6traits8iterator8Iterator4nextCs9E08dBcDM90_15zerocopy_derive, symObjAddr: 0x5BE0, symBinAddr: 0x42530, symSize: 0x20 }
  - { offset: 0x81BE2, size: 0x8, addend: 0x0, symName: __RNvXsw_NtCsieiGu2EXtoJ_4core6optionINtB5_8IntoIterINtNtCsdGrGZaRBwMb_3syn10punctuated4IterNtNtBR_8generics14WherePredicateEENtNtNtNtB7_4iter6traits8iterator8Iterator4nextCs9E08dBcDM90_15zerocopy_derive, symObjAddr: 0x5C20, symBinAddr: 0x42570, symSize: 0x20 }
  - { offset: 0x81C5A, size: 0x8, addend: 0x0, symName: __RNvXsw_NtCsieiGu2EXtoJ_4core6optionINtB5_8IntoIterNtCsaKzlTDPUHDb_11proc_macro211TokenStreamENtNtNtNtB7_4iter6traits8iterator8Iterator4nextCs9E08dBcDM90_15zerocopy_derive, symObjAddr: 0x5C40, symBinAddr: 0x42590, symSize: 0x60 }
  - { offset: 0x81CD2, size: 0x8, addend: 0x0, symName: __RNvXsw_NtCsieiGu2EXtoJ_4core6optionINtB5_8IntoIterRNtNtCsdGrGZaRBwMb_3syn4data7VariantENtNtNtNtB7_4iter6traits8iterator8Iterator9size_hintCs9E08dBcDM90_15zerocopy_derive, symObjAddr: 0x5CA0, symBinAddr: 0x425F0, symSize: 0x30 }
  - { offset: 0x81D4A, size: 0x8, addend: 0x0, symName: __RNvXsw_NtCsieiGu2EXtoJ_4core6optionINtB5_8IntoIterRNtNtCsdGrGZaRBwMb_3syn8generics14WherePredicateENtNtNtNtB7_4iter6traits8iterator8Iterator9size_hintCs9E08dBcDM90_15zerocopy_derive, symObjAddr: 0x5CD0, symBinAddr: 0x42620, symSize: 0x30 }
  - { offset: 0x82362, size: 0x8, addend: 0x0, symName: __RNvXsn_NtNtNtCsieiGu2EXtoJ_4core4iter8adapters7flattenRNtNtCsdGrGZaRBwMb_3syn4data6FieldsNtB5_21ConstSizeIntoIterator4sizeCs9E08dBcDM90_15zerocopy_derive, symObjAddr: 0x5C00, symBinAddr: 0x42550, symSize: 0x20 }
  - { offset: 0x82481, size: 0x8, addend: 0x0, symName: __RNvXNtNtNtCsieiGu2EXtoJ_4core4iter6traits7collectINtNtB8_6option4IterNtNtCsdGrGZaRBwMb_3syn8generics14WherePredicateENtB2_12IntoIterator9into_iterCs9E08dBcDM90_15zerocopy_derive, symObjAddr: 0x5220, symBinAddr: 0x41B70, symSize: 0x10 }
  - { offset: 0x824C4, size: 0x8, addend: 0x0, symName: __RNvYINtNtCsieiGu2EXtoJ_4core6option8IntoIterINtNtCsdGrGZaRBwMb_3syn10punctuated4IterNtNtBL_8generics14WherePredicateEENtNtNtNtB7_4iter6traits8iterator8Iterator4fuseCs9E08dBcDM90_15zerocopy_derive, symObjAddr: 0x5E70, symBinAddr: 0x427C0, symSize: 0x40 }
  - { offset: 0x82510, size: 0x8, addend: 0x0, symName: __RNvYINtNtCsieiGu2EXtoJ_4core6option8IntoIterINtNtCsdGrGZaRBwMb_3syn10punctuated4IterNtNtBL_8generics14WherePredicateEENtNtNtNtB7_4iter6traits8iterator8Iterator7flattenCs9E08dBcDM90_15zerocopy_derive, symObjAddr: 0x5EB0, symBinAddr: 0x42800, symSize: 0x70 }
  - { offset: 0x8258E, size: 0x8, addend: 0x0, symName: __RNvYINtNtCsieiGu2EXtoJ_4core6option8IntoIterRNtNtCsdGrGZaRBwMb_3syn4data7VariantENtNtNtNtB7_4iter6traits10exact_size17ExactSizeIterator3lenCs9E08dBcDM90_15zerocopy_derive, symObjAddr: 0x5F20, symBinAddr: 0x42870, symSize: 0xE0 }
  - { offset: 0x8268E, size: 0x8, addend: 0x0, symName: __RNvYINtNtCsieiGu2EXtoJ_4core6option8IntoIterRNtNtCsdGrGZaRBwMb_3syn8generics14WherePredicateENtNtNtNtB7_4iter6traits10exact_size17ExactSizeIterator3lenCs9E08dBcDM90_15zerocopy_derive, symObjAddr: 0x6000, symBinAddr: 0x42950, symSize: 0xE0 }
  - { offset: 0x82969, size: 0x8, addend: 0x0, symName: __RINvNtNtNtNtCsieiGu2EXtoJ_4core5slice4sort6shared5pivot11median3_recTljENvYB14_NtNtBa_3cmp10PartialOrd2ltECs9E08dBcDM90_15zerocopy_derive, symObjAddr: 0x16C0, symBinAddr: 0x3E010, symSize: 0x250 }
  - { offset: 0x82BE6, size: 0x8, addend: 0x0, symName: __RINvNtNtNtNtCsieiGu2EXtoJ_4core5slice4sort6shared5pivot11median3_recTlmENvYB14_NtNtBa_3cmp10PartialOrd2ltECs9E08dBcDM90_15zerocopy_derive, symObjAddr: 0x1910, symBinAddr: 0x3E260, symSize: 0x250 }
  - { offset: 0x82DEA, size: 0x8, addend: 0x0, symName: __RINvNtNtNtNtCsieiGu2EXtoJ_4core5slice4sort6shared5pivot12choose_pivotTljENvYB15_NtNtBa_3cmp10PartialOrd2ltECs9E08dBcDM90_15zerocopy_derive, symObjAddr: 0x1B60, symBinAddr: 0x3E4B0, symSize: 0x280 }
  - { offset: 0x8307C, size: 0x8, addend: 0x0, symName: __RINvNtNtNtNtCsieiGu2EXtoJ_4core5slice4sort6shared5pivot12choose_pivotTlmENvYB15_NtNtBa_3cmp10PartialOrd2ltECs9E08dBcDM90_15zerocopy_derive, symObjAddr: 0x1DE0, symBinAddr: 0x3E730, symSize: 0x280 }
  - { offset: 0x83364, size: 0x8, addend: 0x0, symName: __RNvMNtCsieiGu2EXtoJ_4core5sliceSNtCsaKzlTDPUHDb_11proc_macro25Ident4iterCs9E08dBcDM90_15zerocopy_derive, symObjAddr: 0x29F0, symBinAddr: 0x3F340, symSize: 0x20 }
  - { offset: 0x8339B, size: 0x8, addend: 0x0, symName: __RNvMNtCsieiGu2EXtoJ_4core5sliceSTINtNtB4_6option6OptionRNtNtCsdGrGZaRBwMb_3syn4data7VariantEINtNtCslJiobkLta79_5alloc3vec3VecTRNtNtBW_11restriction10VisibilityNtCsaKzlTDPUHDb_11proc_macro211TokenStreamRNtNtBW_2ty4TypeEEE4iterCs9E08dBcDM90_15zerocopy_derive, symObjAddr: 0x2A10, symBinAddr: 0x3F360, symSize: 0x20 }
  - { offset: 0x8349D, size: 0x8, addend: 0x0, symName: __RNvXs5_NtNtCsieiGu2EXtoJ_4core5slice5indexINtNtNtB9_3ops5range9RangeFromjEINtB5_10SliceIndexSTljEE9index_mutCs9E08dBcDM90_15zerocopy_derive, symObjAddr: 0x5480, symBinAddr: 0x41DD0, symSize: 0x90 }
  - { offset: 0x835A1, size: 0x8, addend: 0x0, symName: __RNvXs5_NtNtCsieiGu2EXtoJ_4core5slice5indexINtNtNtB9_3ops5range9RangeFromjEINtB5_10SliceIndexSTlmEE9index_mutCs9E08dBcDM90_15zerocopy_derive, symObjAddr: 0x5510, symBinAddr: 0x41E60, symSize: 0x90 }
  - { offset: 0x836ED, size: 0x8, addend: 0x0, symName: __RNvXs7_NtNtCsieiGu2EXtoJ_4core5slice5indexNtNtNtB9_3ops5range9RangeFullINtB5_10SliceIndexSTRNtNtCsdGrGZaRBwMb_3syn11restriction10VisibilityNtCsaKzlTDPUHDb_11proc_macro211TokenStreamRNtNtB1w_2ty4TypeEE5indexCs9E08dBcDM90_15zerocopy_derive, symObjAddr: 0x5660, symBinAddr: 0x41FB0, symSize: 0x20 }
  - { offset: 0x83C65, size: 0x8, addend: 0x0, symName: __RNvXs1_NtCsieiGu2EXtoJ_4core7convertINtNtB7_6option6OptionNtCsaKzlTDPUHDb_11proc_macro211TokenStreamEINtB5_4IntoBy_E4intoCs9E08dBcDM90_15zerocopy_derive, symObjAddr: 0x5260, symBinAddr: 0x41BB0, symSize: 0x30 }
  - { offset: 0x83CC3, size: 0x8, addend: 0x0, symName: __RNvXs1_NtCsieiGu2EXtoJ_4core7convertINtNtB7_6option6OptionNtNtCs9E08dBcDM90_15zerocopy_derive4util12PaddingCheckEINtB5_4IntoBy_E4intoBY_, symObjAddr: 0x5290, symBinAddr: 0x41BE0, symSize: 0x30 }
  - { offset: 0x83D21, size: 0x8, addend: 0x0, symName: __RNvXs1_NtCsieiGu2EXtoJ_4core7convertNtCsaKzlTDPUHDb_11proc_macro211TokenStreamINtB5_4IntoINtNtB7_6option6OptionBy_EE4intoCs9E08dBcDM90_15zerocopy_derive, symObjAddr: 0x52C0, symBinAddr: 0x41C10, symSize: 0x20 }
  - { offset: 0x83D62, size: 0x8, addend: 0x0, symName: __RNvXs1_NtCsieiGu2EXtoJ_4core7convertNtCsaKzlTDPUHDb_11proc_macro211TokenStreamINtB5_4IntoNtCscKtU6MdFI5n_10proc_macro11TokenStreamE4intoCs9E08dBcDM90_15zerocopy_derive, symObjAddr: 0x52E0, symBinAddr: 0x41C30, symSize: 0x10 }
  - { offset: 0x844BE, size: 0x8, addend: 0x0, symName: __RNvXs_NtNtCsieiGu2EXtoJ_4core5array4iterAINtNtB8_6option6OptionNtCsaKzlTDPUHDb_11proc_macro211TokenStreamEj1_NtNtNtNtB8_4iter6traits7collect12IntoIterator9into_iterCs9E08dBcDM90_15zerocopy_derive, symObjAddr: 0x5A40, symBinAddr: 0x42390, symSize: 0x80 }
  - { offset: 0x84508, size: 0x8, addend: 0x0, symName: __RNvXs_NtNtCsieiGu2EXtoJ_4core5array4iterAINtNtB8_6option6OptionNtCsaKzlTDPUHDb_11proc_macro211TokenStreamEj3_NtNtNtNtB8_4iter6traits7collect12IntoIterator9into_iterCs9E08dBcDM90_15zerocopy_derive, symObjAddr: 0x5AC0, symBinAddr: 0x42410, symSize: 0x80 }
  - { offset: 0x84552, size: 0x8, addend: 0x0, symName: __RNvXs_NtNtCsieiGu2EXtoJ_4core5array4iterANtCsaKzlTDPUHDb_11proc_macro211TokenStreamj2_NtNtNtNtB8_4iter6traits7collect12IntoIterator9into_iterCs9E08dBcDM90_15zerocopy_derive, symObjAddr: 0x5B40, symBinAddr: 0x42490, symSize: 0x80 }
  - { offset: 0x854BE, size: 0x8, addend: 0x0, symName: __RNvXsw_NtCslJiobkLta79_5alloc6stringNtCsaKzlTDPUHDb_11proc_macro211TokenStreamNtB5_8ToString9to_stringCs9E08dBcDM90_15zerocopy_derive, symObjAddr: 0x5D00, symBinAddr: 0x42650, symSize: 0x30 }
  - { offset: 0x854FB, size: 0x8, addend: 0x0, symName: __RNvXsx_NtCslJiobkLta79_5alloc6stringNtCsaKzlTDPUHDb_11proc_macro211TokenStreamNtB5_12SpecToString14spec_to_stringCs9E08dBcDM90_15zerocopy_derive, symObjAddr: 0x5D30, symBinAddr: 0x42680, symSize: 0x120 }
  - { offset: 0x85610, size: 0x8, addend: 0x0, symName: __RINvMNtCslJiobkLta79_5alloc5sliceSTINtNtCsieiGu2EXtoJ_4core6option6OptionRNtNtCsdGrGZaRBwMb_3syn4data7VariantEINtNtB5_3vec3VecTRNtNtB1e_11restriction10VisibilityNtCsaKzlTDPUHDb_11proc_macro211TokenStreamRNtNtB1e_2ty4TypeEEE8into_vecNtNtB5_5alloc6GlobalECs9E08dBcDM90_15zerocopy_derive, symObjAddr: 0x1680, symBinAddr: 0x3DFD0, symSize: 0x40 }
  - { offset: 0x85CCF, size: 0x8, addend: 0x0, symName: __RINvXs1_NtNtCs9E08dBcDM90_15zerocopy_derive4repr4utilINtNtNtCsieiGu2EXtoJ_4core3num7nonzero7NonZeromEINtB6_4WithBP_E11try_with_orNtB8_20UnsupportedReprErrorNCNvXs6_B8_INtB8_9AlignReprBP_EINtNtBW_7convert7TryFromNtB8_7RawReprE8try_from0EBa_, symObjAddr: 0x2820, symBinAddr: 0x3F170, symSize: 0x40 }
  - { offset: 0x85D27, size: 0x8, addend: 0x0, symName: __RINvXs1_NtNtCs9E08dBcDM90_15zerocopy_derive4repr4utilINtNtNtCsieiGu2EXtoJ_4core3num7nonzero7NonZeromEINtB6_4WithBP_E4withuNCNvXs4_B8_INtB6_7SpannedINtB8_9AlignReprBP_EENtNtCs9OU1sGv5X54_5quote9to_tokens8ToTokens9to_tokenss_0EBa_, symObjAddr: 0x2860, symBinAddr: 0x3F1B0, symSize: 0x30 }
  - { offset: 0x85D82, size: 0x8, addend: 0x0, symName: __RINvXs2_NtNtCs9E08dBcDM90_15zerocopy_derive4repr4utilNtNtCsieiGu2EXtoJ_4core7convert10InfallibleINtB6_4WithINtNtNtBT_3num7nonzero7NonZeromEE11try_with_orNtB8_20UnsupportedReprErrorNCNvXs6_B8_INtB8_9AlignReprBP_EINtBR_7TryFromNtB8_7RawReprE8try_from0EBa_, symObjAddr: 0x2890, symBinAddr: 0x3F1E0, symSize: 0x20 }
  - { offset: 0x85DD6, size: 0x8, addend: 0x0, symName: __RINvXs2_NtNtCs9E08dBcDM90_15zerocopy_derive4repr4utilNtNtCsieiGu2EXtoJ_4core7convert10InfallibleINtB6_4WithNtB8_13PrimitiveReprE11try_with_orNtB8_20UnsupportedReprErrorNCNvXs5_B8_INtB8_12CompoundReprBP_EINtBR_7TryFromNtB8_7RawReprE8try_from0EBa_, symObjAddr: 0x28B0, symBinAddr: 0x3F200, symSize: 0x20 }
  - { offset: 0x85E2A, size: 0x8, addend: 0x0, symName: __RINvXs2_NtNtCs9E08dBcDM90_15zerocopy_derive4repr4utilNtNtCsieiGu2EXtoJ_4core7convert10InfallibleINtB6_4WithNtB8_13PrimitiveReprE4withuNCNvXs2_B8_INtB6_7SpannedINtB8_12CompoundReprBP_EENtNtCs9OU1sGv5X54_5quote9to_tokens8ToTokens9to_tokens0EBa_, symObjAddr: 0x28D0, symBinAddr: 0x3F220, symSize: 0x10 }
  - { offset: 0x868CE, size: 0x8, addend: 0x0, symName: __RNCNvNtCs9E08dBcDM90_15zerocopy_derive6derive11derive_hash0B5_, symObjAddr: 0x29A0, symBinAddr: 0x3F2F0, symSize: 0x10 }
  - { offset: 0x86911, size: 0x8, addend: 0x0, symName: __RNCNvNtCs9E08dBcDM90_15zerocopy_derive6derive9derive_eq0B5_, symObjAddr: 0x29B0, symBinAddr: 0x3F300, symSize: 0x10 }
  - { offset: 0x8695B, size: 0x8, addend: 0x0, symName: __RNvNtCs9E08dBcDM90_15zerocopy_derive6derive11derive_hash, symObjAddr: 0x2F50, symBinAddr: 0x3F8A0, symSize: 0xDB0 }
  - { offset: 0x86B2C, size: 0x8, addend: 0x0, symName: __RNvNtCs9E08dBcDM90_15zerocopy_derive6derive15derive_split_at, symObjAddr: 0x3D00, symBinAddr: 0x40650, symSize: 0x6F0 }
  - { offset: 0x86C1E, size: 0x8, addend: 0x0, symName: __RNvNtCs9E08dBcDM90_15zerocopy_derive6derive16derive_immutable, symObjAddr: 0x43F0, symBinAddr: 0x40D40, symSize: 0x230 }
  - { offset: 0x86C9A, size: 0x8, addend: 0x0, symName: __RNvNtCs9E08dBcDM90_15zerocopy_derive6derive9derive_eq, symObjAddr: 0x4620, symBinAddr: 0x40F70, symSize: 0xAD0 }
  - { offset: 0x86E1A, size: 0x8, addend: 0x0, symName: __RNvXCs9E08dBcDM90_15zerocopy_deriveNtCsaKzlTDPUHDb_11proc_macro211TokenStreamNtB2_15IntoTokenStream7into_ts, symObjAddr: 0x5170, symBinAddr: 0x41AC0, symSize: 0x30 }
  - { offset: 0x86E55, size: 0x8, addend: 0x0, symName: __RINvMNtCsieiGu2EXtoJ_4core6optionINtB3_6OptionINtNtNtCs9E08dBcDM90_15zerocopy_derive4repr4util7SpannedINtNtNtB5_3num7nonzero7NonZeromEEE3mapNtCsaKzlTDPUHDb_11proc_macro211TokenStreamNCNCNvMs8_NtBP_4utilNtB34_16ImplBlockBuilder5builds_00EBP_, symObjAddr: 0x0, symBinAddr: 0x3C950, symSize: 0x90 }
  - { offset: 0x86EC0, size: 0x8, addend: 0x0, symName: __RINvMNtCsieiGu2EXtoJ_4core6optionINtB3_6OptionINtNtNtCs9E08dBcDM90_15zerocopy_derive4repr4util7SpannedINtNtNtB5_3num7nonzero7NonZeromEEE3mapNtCsaKzlTDPUHDb_11proc_macro211TokenStreamNCNvNtNtBP_6derive12known_layout37derive_known_layout_for_repr_c_structs_0EBP_, symObjAddr: 0x90, symBinAddr: 0x3C9E0, symSize: 0x90 }
  - { offset: 0x86F2B, size: 0x8, addend: 0x0, symName: __RINvMNtCsieiGu2EXtoJ_4core6optionINtB3_6OptionINtNtNtCs9E08dBcDM90_15zerocopy_derive4repr4util7SpannedINtNtNtB5_3num7nonzero7NonZeromEEE3mapbNCNvMBN_INtBN_4ReprNtNtB5_7convert10InfallibleB1C_E13is_align_gt_10EBP_, symObjAddr: 0x120, symBinAddr: 0x3CA70, symSize: 0x50 }
  - { offset: 0x86F96, size: 0x8, addend: 0x0, symName: __RINvMNtCsieiGu2EXtoJ_4core6optionINtB3_6OptionINtNtNtCs9E08dBcDM90_15zerocopy_derive4repr4util7SpannedINtNtNtB5_3num7nonzero7NonZeromEEE6filterNCNvMBN_INtBN_4ReprNtBN_13PrimitiveReprNtNtB5_7convert10InfallibleE32unaligned_validate_no_align_gt_10EBP_, symObjAddr: 0x170, symBinAddr: 0x3CAC0, symSize: 0x90 }
  - { offset: 0x86FF0, size: 0x8, addend: 0x0, symName: __RINvMNtCsieiGu2EXtoJ_4core6optionINtB3_6OptionINtNtNtCs9E08dBcDM90_15zerocopy_derive4repr4util7SpannedINtNtNtB5_3num7nonzero7NonZeromEEE6filterNCNvMBN_INtBN_4ReprNtNtB5_7convert10InfallibleB1C_E32unaligned_validate_no_align_gt_10EBP_, symObjAddr: 0x200, symBinAddr: 0x3CB50, symSize: 0x90 }
  - { offset: 0x870A0, size: 0x8, addend: 0x0, symName: __RINvMNtCsieiGu2EXtoJ_4core6optionINtB3_6OptionNtCsaKzlTDPUHDb_11proc_macro211TokenStreamE14unwrap_or_elseNCNCINvNtCs9E08dBcDM90_15zerocopy_derive4util10map_fieldsINtNtNtNtB5_4iter8adapters7flatten7FlatMapINtNtCsdGrGZaRBwMb_3syn10punctuated4IterNtNtB3l_4data7VariantERNtB3W_6FieldsNCNvXs1_B1M_NtNtB3l_6derive8DataEnumNtB1M_7DataExt6fields0EE00EB1O_, symObjAddr: 0x290, symBinAddr: 0x3CBE0, symSize: 0xA0 }
  - { offset: 0x87103, size: 0x8, addend: 0x0, symName: __RINvMNtCsieiGu2EXtoJ_4core6optionINtB3_6OptionNtCsaKzlTDPUHDb_11proc_macro211TokenStreamE14unwrap_or_elseNCNCINvNtCs9E08dBcDM90_15zerocopy_derive4util10map_fieldsRINtNtCsdGrGZaRBwMb_3syn10punctuated10PunctuatedNtNtB2G_4data5FieldNtNtB2G_5token5CommaEE00EB1O_, symObjAddr: 0x330, symBinAddr: 0x3CC80, symSize: 0xA0 }
  - { offset: 0x87166, size: 0x8, addend: 0x0, symName: __RINvMNtCsieiGu2EXtoJ_4core6optionINtB3_6OptionNtCsaKzlTDPUHDb_11proc_macro211TokenStreamE14unwrap_or_elseNCNCINvNtCs9E08dBcDM90_15zerocopy_derive4util10map_fieldsRNtNtCsdGrGZaRBwMb_3syn4data6FieldsE00EB1O_, symObjAddr: 0x3D0, symBinAddr: 0x3CD20, symSize: 0xA0 }
  - { offset: 0x871C9, size: 0x8, addend: 0x0, symName: __RINvMNtCsieiGu2EXtoJ_4core6optionINtB3_6OptionNtCsaKzlTDPUHDb_11proc_macro211TokenStreamE14unwrap_or_elseNCNvNtNtCs9E08dBcDM90_15zerocopy_derive6derive12known_layout37derive_known_layout_for_repr_c_structs0_0EB1N_, symObjAddr: 0x470, symBinAddr: 0x3CDC0, symSize: 0xA0 }
  - { offset: 0x8722C, size: 0x8, addend: 0x0, symName: __RINvMNtCsieiGu2EXtoJ_4core6optionINtB3_6OptionNtCsaKzlTDPUHDb_11proc_macro211TokenStreamE14unwrap_or_elseNCNvNtNtCs9E08dBcDM90_15zerocopy_derive6derive12known_layout37derive_known_layout_for_repr_c_structs2_0EB1N_, symObjAddr: 0x510, symBinAddr: 0x3CE60, symSize: 0xA0 }
  - { offset: 0x872D0, size: 0x8, addend: 0x0, symName: __RINvMNtCsieiGu2EXtoJ_4core6optionINtB3_6OptionNtCsaKzlTDPUHDb_11proc_macro211TokenStreamE14unwrap_or_elseNCNvNtNtCs9E08dBcDM90_15zerocopy_derive6derive14try_from_bytes27derive_try_from_bytes_unions_0EB1N_, symObjAddr: 0x5B0, symBinAddr: 0x3CF00, symSize: 0xC0 }
  - { offset: 0x87341, size: 0x8, addend: 0x0, symName: __RINvMNtCsieiGu2EXtoJ_4core6optionINtB3_6OptionNtCsaKzlTDPUHDb_11proc_macro211TokenStreamE14unwrap_or_elseNCNvNtNtCs9E08dBcDM90_15zerocopy_derive6derive14try_from_bytes28derive_try_from_bytes_struct0EB1N_, symObjAddr: 0x670, symBinAddr: 0x3CFC0, symSize: 0xB0 }
  - { offset: 0x873A4, size: 0x8, addend: 0x0, symName: __RINvMNtCsieiGu2EXtoJ_4core6optionINtB3_6OptionNtCsaKzlTDPUHDb_11proc_macro211TokenStreamE6filterNCNvMs8_NtCs9E08dBcDM90_15zerocopy_derive4utilNtB1E_16ImplBlockBuilder5builds4_0EB1G_, symObjAddr: 0x720, symBinAddr: 0x3D070, symSize: 0x120 }
  - { offset: 0x874B2, size: 0x8, addend: 0x0, symName: __RINvMNtCsieiGu2EXtoJ_4core6optionINtB3_6OptionNtCsaKzlTDPUHDb_11proc_macro211TokenStreamE7or_elseNCNvXs_NtNtNtB5_4iter8adapters5chainINtB1E_5ChainIB28_INtNtB1G_3map3MapINtNtNtB5_5slice4iter4IterTRNtNtCsdGrGZaRBwMb_3syn11restriction10VisibilityBI_RNtNtB3c_2ty4TypeEENCNvNtNtCs9E08dBcDM90_15zerocopy_derive6derive14try_from_bytes29derive_has_field_struct_union0EINtB3_8IntoIterBI_EEIB2q_B2G_NCB4h_s0_0EENtNtNtB1I_6traits8iterator8Iterator4next0EB4n_, symObjAddr: 0x840, symBinAddr: 0x3D190, symSize: 0xF0 }
  - { offset: 0x87522, size: 0x8, addend: 0x0, symName: __RINvMNtCsieiGu2EXtoJ_4core6optionINtB3_6OptionNtCsaKzlTDPUHDb_11proc_macro211TokenStreamE7or_elseNCNvXs_NtNtNtB5_4iter8adapters5chainINtB1E_5ChainINtNtB1G_3map3MapINtNtNtB5_5slice4iter4IterTRNtNtCsdGrGZaRBwMb_3syn11restriction10VisibilityBI_RNtNtB37_2ty4TypeEENCNvNtNtCs9E08dBcDM90_15zerocopy_derive6derive14try_from_bytes29derive_has_field_struct_union0EINtB3_8IntoIterBI_EENtNtNtB1I_6traits8iterator8Iterator4next0EB4i_, symObjAddr: 0x930, symBinAddr: 0x3D280, symSize: 0xF0 }
  - { offset: 0x875CA, size: 0x8, addend: 0x0, symName: __RINvMNtCsieiGu2EXtoJ_4core6optionINtB3_6OptionNtNtCs9E08dBcDM90_15zerocopy_derive4util12PaddingCheckE3mapNtNtCsdGrGZaRBwMb_3syn8generics14WherePredicateNCNvMs8_BK_NtBK_16ImplBlockBuilder5builds_0EBM_, symObjAddr: 0xA20, symBinAddr: 0x3D370, symSize: 0x120 }
  - { offset: 0x87652, size: 0x8, addend: 0x0, symName: __RINvMNtCsieiGu2EXtoJ_4core6optionINtB3_6OptionNtNtCsdGrGZaRBwMb_3syn8generics12GenericParamE7or_elseNCNvXs_NtNtNtB5_4iter8adapters5chainINtB1H_5ChainINtNtB1J_3map3MapINtNtBM_10punctuated8IntoIterBI_ENCNvMs8_NtCs9E08dBcDM90_15zerocopy_derive4utilNtB3j_16ImplBlockBuilder5builds1_0EINtNtNtCslJiobkLta79_5alloc3vec9into_iter8IntoIterBI_EENtNtNtB1L_6traits8iterator8Iterator4next0EB3l_, symObjAddr: 0xB40, symBinAddr: 0x3D490, symSize: 0xF0 }
  - { offset: 0x87720, size: 0x8, addend: 0x0, symName: __RINvMNtCsieiGu2EXtoJ_4core6optionINtB3_6OptionRINtNtCs9E08dBcDM90_15zerocopy_derive4repr4ReprNtNtB5_7convert10InfallibleINtNtNtB5_3num7nonzero7NonZeromEEE8and_thenTNtNtBO_4util10SelfBoundsNtCsaKzlTDPUHDb_11proc_macro211TokenStreamIBw_B30_EENCNvNtNtBO_6derive12known_layout6derive0EBO_, symObjAddr: 0xC30, symBinAddr: 0x3D580, symSize: 0x80 }
  - { offset: 0x87816, size: 0x8, addend: 0x0, symName: __RINvMNtCsieiGu2EXtoJ_4core6optionINtB3_6OptionRINtNtCsdGrGZaRBwMb_3syn10punctuated4IterNtNtBO_4data5FieldEE6map_orTjIBw_jEENvYBJ_NtNtNtNtB5_4iter6traits8iterator8Iterator9size_hintECs9E08dBcDM90_15zerocopy_derive, symObjAddr: 0xCB0, symBinAddr: 0x3D600, symSize: 0xA0 }
  - { offset: 0x8789E, size: 0x8, addend: 0x0, symName: __RINvMNtCsieiGu2EXtoJ_4core6optionINtB3_6OptionRINtNtNtB5_3num7nonzero7NonZeromEE3mapNtCsaKzlTDPUHDb_11proc_macro211TokenStreamNCNCNvMs8_NtCs9E08dBcDM90_15zerocopy_derive4utilNtB2a_16ImplBlockBuilder5builds_0s_0EB2c_, symObjAddr: 0xD50, symBinAddr: 0x3D6A0, symSize: 0x90 }
  - { offset: 0x87909, size: 0x8, addend: 0x0, symName: __RINvMNtCsieiGu2EXtoJ_4core6optionINtB3_6OptionRINtNtNtB5_3num7nonzero7NonZeromEE3mapNtCsaKzlTDPUHDb_11proc_macro211TokenStreamNCNvNtNtCs9E08dBcDM90_15zerocopy_derive6derive12known_layout37derive_known_layout_for_repr_c_structs1_0EB28_, symObjAddr: 0xDE0, symBinAddr: 0x3D730, symSize: 0x90 }
  - { offset: 0x87974, size: 0x8, addend: 0x0, symName: __RINvMNtCsieiGu2EXtoJ_4core6optionINtB3_6OptionRINtNtNtB5_3num7nonzero7NonZeromEE3mapbNCNvMs_NtCs9E08dBcDM90_15zerocopy_derive4reprINtB1s_4ReprNtNtB5_7convert10InfallibleBJ_E11is_packed_10EB1u_, symObjAddr: 0xE70, symBinAddr: 0x3D7C0, symSize: 0x50 }
  - { offset: 0x87A04, size: 0x8, addend: 0x0, symName: __RINvMNtCsieiGu2EXtoJ_4core6optionINtB3_6OptionRNtCsaKzlTDPUHDb_11proc_macro25IdentE3mapNtBL_11TokenStreamNvYBJ_NtNtCs9OU1sGv5X54_5quote9to_tokens8ToTokens15to_token_streamECs9E08dBcDM90_15zerocopy_derive, symObjAddr: 0xEC0, symBinAddr: 0x3D810, symSize: 0x80 }
  - { offset: 0x87A6F, size: 0x8, addend: 0x0, symName: __RINvMNtCsieiGu2EXtoJ_4core6optionINtB3_6OptionRNtCsaKzlTDPUHDb_11proc_macro25IdentE5ok_orNtNtCs9E08dBcDM90_15zerocopy_derive4repr21UnrecognizedReprErrorEB1t_, symObjAddr: 0xF40, symBinAddr: 0x3D890, symSize: 0x40 }
  - { offset: 0x87ADE, size: 0x8, addend: 0x0, symName: __RINvMNtCsieiGu2EXtoJ_4core6optionINtB3_6OptionRNtNtCsdGrGZaRBwMb_3syn4data7VariantE7or_elseNCNvXsw_NtBN_10punctuatedINtB1z_11PrivateIterBJ_NtNtBN_5token5CommaENtNtNtNtB5_4iter6traits8iterator8Iterator4nexts_0ECs9E08dBcDM90_15zerocopy_derive, symObjAddr: 0xF80, symBinAddr: 0x3D8D0, symSize: 0x90 }
  - { offset: 0x87B67, size: 0x8, addend: 0x0, symName: __RINvMNtCsieiGu2EXtoJ_4core6optionINtB3_6OptionRNtNtCsdGrGZaRBwMb_3syn4data7VariantE7or_elseNCNvXsx_NtBN_10punctuatedINtB1z_11PrivateIterBJ_NtNtBN_5token5CommaENtNtNtNtB5_4iter6traits12double_ended19DoubleEndedIterator9next_back0ECs9E08dBcDM90_15zerocopy_derive, symObjAddr: 0x1010, symBinAddr: 0x3D960, symSize: 0x90 }
  - { offset: 0x87C04, size: 0x8, addend: 0x0, symName: __RINvMNtCsieiGu2EXtoJ_4core6optionINtB3_6OptionRNtNtCsdGrGZaRBwMb_3syn8generics11WhereClauseE3mapINtNtBN_10punctuated4IterNtBL_14WherePredicateENCNvMs8_NtCs9E08dBcDM90_15zerocopy_derive4utilNtB2p_16ImplBlockBuilder5builds0_0EB2r_, symObjAddr: 0x10A0, symBinAddr: 0x3D9F0, symSize: 0x60 }
  - { offset: 0x87C7C, size: 0x8, addend: 0x0, symName: __RINvMNtCsieiGu2EXtoJ_4core6optionINtB3_6OptionRNtNtCsdGrGZaRBwMb_3syn8generics11WhereClauseE3mapRINtNtBN_10punctuated10PunctuatedNtBL_14WherePredicateNtNtBN_5token5CommaENCNvNtCs9E08dBcDM90_15zerocopy_derive6derive11derive_hash0EB2O_, symObjAddr: 0x1100, symBinAddr: 0x3DA50, symSize: 0x50 }
  - { offset: 0x87CE7, size: 0x8, addend: 0x0, symName: __RINvMNtCsieiGu2EXtoJ_4core6optionINtB3_6OptionRNtNtCsdGrGZaRBwMb_3syn8generics11WhereClauseE3mapRINtNtBN_10punctuated10PunctuatedNtBL_14WherePredicateNtNtBN_5token5CommaENCNvNtCs9E08dBcDM90_15zerocopy_derive6derive9derive_eq0EB2O_, symObjAddr: 0x1150, symBinAddr: 0x3DAA0, symSize: 0x50 }
  - { offset: 0x87D6C, size: 0x8, addend: 0x0, symName: __RINvMNtCsieiGu2EXtoJ_4core6optionINtB3_6OptionRNtNtCsdGrGZaRBwMb_3syn8generics14WherePredicateE7or_elseNCNvXs_NtNtNtB5_4iter8adapters5chainINtB1K_5ChainIB2e_IB2e_INtNtB1M_7flatten7FlattenINtB3_8IntoIterINtNtBN_10punctuated4IterBJ_EEEINtNtNtB5_5slice4iter4IterBJ_EEINtB3_4IterBJ_EEB4e_ENtNtNtB1O_6traits8iterator8Iterator4next0ECs9E08dBcDM90_15zerocopy_derive, symObjAddr: 0x11A0, symBinAddr: 0x3DAF0, symSize: 0x90 }
  - { offset: 0x87DCE, size: 0x8, addend: 0x0, symName: __RINvMNtCsieiGu2EXtoJ_4core6optionINtB3_6OptionRNtNtCsdGrGZaRBwMb_3syn8generics14WherePredicateE7or_elseNCNvXs_NtNtNtB5_4iter8adapters5chainINtB1K_5ChainIB2e_INtNtB1M_7flatten7FlattenINtB3_8IntoIterINtNtBN_10punctuated4IterBJ_EEEINtNtNtB5_5slice4iter4IterBJ_EEINtB3_4IterBJ_EENtNtNtB1O_6traits8iterator8Iterator4next0ECs9E08dBcDM90_15zerocopy_derive, symObjAddr: 0x1230, symBinAddr: 0x3DB80, symSize: 0x90 }
  - { offset: 0x87E4A, size: 0x8, addend: 0x0, symName: __RINvMNtCsieiGu2EXtoJ_4core6optionINtB3_6OptionRNtNtCsdGrGZaRBwMb_3syn8generics14WherePredicateE7or_elseNCNvXs_NtNtNtB5_4iter8adapters5chainINtB1K_5ChainINtNtB1M_7flatten7FlattenINtB3_8IntoIterINtNtBN_10punctuated4IterBJ_EEEINtNtNtB5_5slice4iter4IterBJ_EENtNtNtB1O_6traits8iterator8Iterator4next0ECs9E08dBcDM90_15zerocopy_derive, symObjAddr: 0x12C0, symBinAddr: 0x3DC10, symSize: 0x90 }
  - { offset: 0x87EB9, size: 0x8, addend: 0x0, symName: __RINvMNtCsieiGu2EXtoJ_4core6optionINtB3_6OptionRNtNtCsdGrGZaRBwMb_3syn8generics14WherePredicateE7or_elseNCNvXsw_NtBN_10punctuatedINtB1L_11PrivateIterBJ_NtNtBN_5token5CommaENtNtNtNtB5_4iter6traits8iterator8Iterator4nexts_0ECs9E08dBcDM90_15zerocopy_derive, symObjAddr: 0x1350, symBinAddr: 0x3DCA0, symSize: 0x90 }
  - { offset: 0x87F42, size: 0x8, addend: 0x0, symName: __RINvMNtCsieiGu2EXtoJ_4core6optionINtB3_6OptionRNtNtCsdGrGZaRBwMb_3syn8generics14WherePredicateE7or_elseNCNvXsx_NtBN_10punctuatedINtB1L_11PrivateIterBJ_NtNtBN_5token5CommaENtNtNtNtB5_4iter6traits12double_ended19DoubleEndedIterator9next_back0ECs9E08dBcDM90_15zerocopy_derive, symObjAddr: 0x13E0, symBinAddr: 0x3DD30, symSize: 0x90 }
  - { offset: 0x87FA4, size: 0x8, addend: 0x0, symName: __RINvMNtCsieiGu2EXtoJ_4core6optionINtB3_6OptionRTNtNtCsdGrGZaRBwMb_3syn4data7VariantNtNtBO_5token5CommaEE3mapRBK_NCNCNvXsx_NtBO_10punctuatedINtB1W_11PrivateIterBK_B1j_ENtNtNtNtB5_4iter6traits12double_ended19DoubleEndedIterator9next_back00ECs9E08dBcDM90_15zerocopy_derive, symObjAddr: 0x1470, symBinAddr: 0x3DDC0, symSize: 0x50 }
  - { offset: 0x8800F, size: 0x8, addend: 0x0, symName: __RINvMNtCsieiGu2EXtoJ_4core6optionINtB3_6OptionRTNtNtCsdGrGZaRBwMb_3syn4data7VariantNtNtBO_5token5CommaEE3mapRBK_NCNvXsw_NtBO_10punctuatedINtB1U_11PrivateIterBK_B1j_ENtNtNtNtB5_4iter6traits8iterator8Iterator4next0ECs9E08dBcDM90_15zerocopy_derive, symObjAddr: 0x14C0, symBinAddr: 0x3DE10, symSize: 0x50 }
  - { offset: 0x8807A, size: 0x8, addend: 0x0, symName: __RINvMNtCsieiGu2EXtoJ_4core6optionINtB3_6OptionRTNtNtCsdGrGZaRBwMb_3syn8generics14WherePredicateNtNtBO_5token5CommaEE3mapRBK_NCNCNvXsx_NtBO_10punctuatedINtB28_11PrivateIterBK_B1v_ENtNtNtNtB5_4iter6traits12double_ended19DoubleEndedIterator9next_back00ECs9E08dBcDM90_15zerocopy_derive, symObjAddr: 0x1510, symBinAddr: 0x3DE60, symSize: 0x50 }
  - { offset: 0x880E5, size: 0x8, addend: 0x0, symName: __RINvMNtCsieiGu2EXtoJ_4core6optionINtB3_6OptionRTNtNtCsdGrGZaRBwMb_3syn8generics14WherePredicateNtNtBO_5token5CommaEE3mapRBK_NCNvXsw_NtBO_10punctuatedINtB26_11PrivateIterBK_B1v_ENtNtNtNtB5_4iter6traits8iterator8Iterator4next0ECs9E08dBcDM90_15zerocopy_derive, symObjAddr: 0x1560, symBinAddr: 0x3DEB0, symSize: 0x50 }
  - { offset: 0x88150, size: 0x8, addend: 0x0, symName: __RINvMNtCsieiGu2EXtoJ_4core6optionINtB3_6OptionRTRNtNtCsdGrGZaRBwMb_3syn11restriction10VisibilityNtCsaKzlTDPUHDb_11proc_macro211TokenStreamRNtNtBP_2ty4TypeEE3mapbNCNvNtNtCs9E08dBcDM90_15zerocopy_derive6derive10into_bytes24derive_into_bytes_struct0EB2H_, symObjAddr: 0x15B0, symBinAddr: 0x3DF00, symSize: 0x50 }
  - { offset: 0x881BB, size: 0x8, addend: 0x0, symName: __RINvMNtCsieiGu2EXtoJ_4core6optionINtB3_6OptionTNtNtCs9E08dBcDM90_15zerocopy_derive4util10SelfBoundsNtCsaKzlTDPUHDb_11proc_macro211TokenStreamIBw_B1z_EEE14unwrap_or_elseNCNvNtNtBN_6derive12known_layout6derives_0EBN_, symObjAddr: 0x1600, symBinAddr: 0x3DF50, symSize: 0x80 }
  - { offset: 0x88493, size: 0x8, addend: 0x0, symName: __RINvNvNtCsHUR1vrdMJt_3std9panicking12catch_unwind7do_callINtNtNtCsieiGu2EXtoJ_4core5panic11unwind_safe16AssertUnwindSafeNCINvNtNtCscKtU6MdFI5n_10proc_macro6bridge6client10run_clientNtB1Z_11TokenStreamINtNtB10_6option6OptionB2T_ENCNCINvMs6_B1Z_INtB1Z_6ClientNtB23_11TokenStreamB47_E7expand1NvCs9E08dBcDM90_15zerocopy_derive11derive_hashE00E0EuEB4F_, symObjAddr: 0x2060, symBinAddr: 0x3E9B0, symSize: 0x40 }
  - { offset: 0x8855C, size: 0x8, addend: 0x0, symName: __RINvNvNtCsHUR1vrdMJt_3std9panicking12catch_unwind7do_callINtNtNtCsieiGu2EXtoJ_4core5panic11unwind_safe16AssertUnwindSafeNCINvNtNtCscKtU6MdFI5n_10proc_macro6bridge6client10run_clientNtB1Z_11TokenStreamINtNtB10_6option6OptionB2T_ENCNCINvMs6_B1Z_INtB1Z_6ClientNtB23_11TokenStreamB47_E7expand1NvCs9E08dBcDM90_15zerocopy_derive15derive_as_bytesE00E0EuEB4F_, symObjAddr: 0x20A0, symBinAddr: 0x3E9F0, symSize: 0x40 }
  - { offset: 0x88625, size: 0x8, addend: 0x0, symName: __RINvNvNtCsHUR1vrdMJt_3std9panicking12catch_unwind7do_callINtNtNtCsieiGu2EXtoJ_4core5panic11unwind_safe16AssertUnwindSafeNCINvNtNtCscKtU6MdFI5n_10proc_macro6bridge6client10run_clientNtB1Z_11TokenStreamINtNtB10_6option6OptionB2T_ENCNCINvMs6_B1Z_INtB1Z_6ClientNtB23_11TokenStreamB47_E7expand1NvCs9E08dBcDM90_15zerocopy_derive15derive_split_atE00E0EuEB4F_, symObjAddr: 0x20E0, symBinAddr: 0x3EA30, symSize: 0x40 }
  - { offset: 0x886EE, size: 0x8, addend: 0x0, symName: __RINvNvNtCsHUR1vrdMJt_3std9panicking12catch_unwind7do_callINtNtNtCsieiGu2EXtoJ_4core5panic11unwind_safe16AssertUnwindSafeNCINvNtNtCscKtU6MdFI5n_10proc_macro6bridge6client10run_clientNtB1Z_11TokenStreamINtNtB10_6option6OptionB2T_ENCNCINvMs6_B1Z_INtB1Z_6ClientNtB23_11TokenStreamB47_E7expand1NvCs9E08dBcDM90_15zerocopy_derive16derive_immutableE00E0EuEB4F_, symObjAddr: 0x2120, symBinAddr: 0x3EA70, symSize: 0x40 }
  - { offset: 0x887B7, size: 0x8, addend: 0x0, symName: __RINvNvNtCsHUR1vrdMJt_3std9panicking12catch_unwind7do_callINtNtNtCsieiGu2EXtoJ_4core5panic11unwind_safe16AssertUnwindSafeNCINvNtNtCscKtU6MdFI5n_10proc_macro6bridge6client10run_clientNtB1Z_11TokenStreamINtNtB10_6option6OptionB2T_ENCNCINvMs6_B1Z_INtB1Z_6ClientNtB23_11TokenStreamB47_E7expand1NvCs9E08dBcDM90_15zerocopy_derive16derive_unalignedE00E0EuEB4F_, symObjAddr: 0x2160, symBinAddr: 0x3EAB0, symSize: 0x40 }
  - { offset: 0x88880, size: 0x8, addend: 0x0, symName: __RINvNvNtCsHUR1vrdMJt_3std9panicking12catch_unwind7do_callINtNtNtCsieiGu2EXtoJ_4core5panic11unwind_safe16AssertUnwindSafeNCINvNtNtCscKtU6MdFI5n_10proc_macro6bridge6client10run_clientNtB1Z_11TokenStreamINtNtB10_6option6OptionB2T_ENCNCINvMs6_B1Z_INtB1Z_6ClientNtB23_11TokenStreamB47_E7expand1NvCs9E08dBcDM90_15zerocopy_derive17derive_from_bytesE00E0EuEB4F_, symObjAddr: 0x21A0, symBinAddr: 0x3EAF0, symSize: 0x40 }
  - { offset: 0x88949, size: 0x8, addend: 0x0, symName: __RINvNvNtCsHUR1vrdMJt_3std9panicking12catch_unwind7do_callINtNtNtCsieiGu2EXtoJ_4core5panic11unwind_safe16AssertUnwindSafeNCINvNtNtCscKtU6MdFI5n_10proc_macro6bridge6client10run_clientNtB1Z_11TokenStreamINtNtB10_6option6OptionB2T_ENCNCINvMs6_B1Z_INtB1Z_6ClientNtB23_11TokenStreamB47_E7expand1NvCs9E08dBcDM90_15zerocopy_derive17derive_from_zerosE00E0EuEB4F_, symObjAddr: 0x21E0, symBinAddr: 0x3EB30, symSize: 0x40 }
  - { offset: 0x88A12, size: 0x8, addend: 0x0, symName: __RINvNvNtCsHUR1vrdMJt_3std9panicking12catch_unwind7do_callINtNtNtCsieiGu2EXtoJ_4core5panic11unwind_safe16AssertUnwindSafeNCINvNtNtCscKtU6MdFI5n_10proc_macro6bridge6client10run_clientNtB1Z_11TokenStreamINtNtB10_6option6OptionB2T_ENCNCINvMs6_B1Z_INtB1Z_6ClientNtB23_11TokenStreamB47_E7expand1NvCs9E08dBcDM90_15zerocopy_derive17derive_into_bytesE00E0EuEB4F_, symObjAddr: 0x2220, symBinAddr: 0x3EB70, symSize: 0x40 }
  - { offset: 0x88ADB, size: 0x8, addend: 0x0, symName: __RINvNvNtCsHUR1vrdMJt_3std9panicking12catch_unwind7do_callINtNtNtCsieiGu2EXtoJ_4core5panic11unwind_safe16AssertUnwindSafeNCINvNtNtCscKtU6MdFI5n_10proc_macro6bridge6client10run_clientNtB1Z_11TokenStreamINtNtB10_6option6OptionB2T_ENCNCINvMs6_B1Z_INtB1Z_6ClientNtB23_11TokenStreamB47_E7expand1NvCs9E08dBcDM90_15zerocopy_derive18derive_from_zeroesE00E0EuEB4F_, symObjAddr: 0x2260, symBinAddr: 0x3EBB0, symSize: 0x40 }
  - { offset: 0x88BA4, size: 0x8, addend: 0x0, symName: __RINvNvNtCsHUR1vrdMJt_3std9panicking12catch_unwind7do_callINtNtNtCsieiGu2EXtoJ_4core5panic11unwind_safe16AssertUnwindSafeNCINvNtNtCscKtU6MdFI5n_10proc_macro6bridge6client10run_clientNtB1Z_11TokenStreamINtNtB10_6option6OptionB2T_ENCNCINvMs6_B1Z_INtB1Z_6ClientNtB23_11TokenStreamB47_E7expand1NvCs9E08dBcDM90_15zerocopy_derive19derive_known_layoutE00E0EuEB4F_, symObjAddr: 0x22A0, symBinAddr: 0x3EBF0, symSize: 0x40 }
  - { offset: 0x88C6D, size: 0x8, addend: 0x0, symName: __RINvNvNtCsHUR1vrdMJt_3std9panicking12catch_unwind7do_callINtNtNtCsieiGu2EXtoJ_4core5panic11unwind_safe16AssertUnwindSafeNCINvNtNtCscKtU6MdFI5n_10proc_macro6bridge6client10run_clientNtB1Z_11TokenStreamINtNtB10_6option6OptionB2T_ENCNCINvMs6_B1Z_INtB1Z_6ClientNtB23_11TokenStreamB47_E7expand1NvCs9E08dBcDM90_15zerocopy_derive21derive_try_from_bytesE00E0EuEB4F_, symObjAddr: 0x22E0, symBinAddr: 0x3EC30, symSize: 0x40 }
  - { offset: 0x88D36, size: 0x8, addend: 0x0, symName: __RINvNvNtCsHUR1vrdMJt_3std9panicking12catch_unwind7do_callINtNtNtCsieiGu2EXtoJ_4core5panic11unwind_safe16AssertUnwindSafeNCINvNtNtCscKtU6MdFI5n_10proc_macro6bridge6client10run_clientNtB1Z_11TokenStreamINtNtB10_6option6OptionB2T_ENCNCINvMs6_B1Z_INtB1Z_6ClientNtB23_11TokenStreamB47_E7expand1NvCs9E08dBcDM90_15zerocopy_derive9derive_eqE00E0EuEB4F_, symObjAddr: 0x2320, symBinAddr: 0x3EC70, symSize: 0x40 }
  - { offset: 0x88DFF, size: 0x8, addend: 0x0, symName: __RINvNvNtCsHUR1vrdMJt_3std9panicking12catch_unwind8do_catchINtNtNtCsieiGu2EXtoJ_4core5panic11unwind_safe16AssertUnwindSafeNCINvNtNtCscKtU6MdFI5n_10proc_macro6bridge6client10run_clientNtB20_11TokenStreamINtNtB11_6option6OptionB2U_ENCNCINvMs6_B20_INtB20_6ClientNtB24_11TokenStreamB48_E7expand1NvCs9E08dBcDM90_15zerocopy_derive11derive_hashE00E0EuEB4G_, symObjAddr: 0x2360, symBinAddr: 0x3ECB0, symSize: 0x60 }
  - { offset: 0x88E94, size: 0x8, addend: 0x0, symName: __RINvNvNtCsHUR1vrdMJt_3std9panicking12catch_unwind8do_catchINtNtNtCsieiGu2EXtoJ_4core5panic11unwind_safe16AssertUnwindSafeNCINvNtNtCscKtU6MdFI5n_10proc_macro6bridge6client10run_clientNtB20_11TokenStreamINtNtB11_6option6OptionB2U_ENCNCINvMs6_B20_INtB20_6ClientNtB24_11TokenStreamB48_E7expand1NvCs9E08dBcDM90_15zerocopy_derive15derive_as_bytesE00E0EuEB4G_, symObjAddr: 0x23C0, symBinAddr: 0x3ED10, symSize: 0x60 }
  - { offset: 0x88F29, size: 0x8, addend: 0x0, symName: __RINvNvNtCsHUR1vrdMJt_3std9panicking12catch_unwind8do_catchINtNtNtCsieiGu2EXtoJ_4core5panic11unwind_safe16AssertUnwindSafeNCINvNtNtCscKtU6MdFI5n_10proc_macro6bridge6client10run_clientNtB20_11TokenStreamINtNtB11_6option6OptionB2U_ENCNCINvMs6_B20_INtB20_6ClientNtB24_11TokenStreamB48_E7expand1NvCs9E08dBcDM90_15zerocopy_derive15derive_split_atE00E0EuEB4G_, symObjAddr: 0x2420, symBinAddr: 0x3ED70, symSize: 0x60 }
  - { offset: 0x88FBE, size: 0x8, addend: 0x0, symName: __RINvNvNtCsHUR1vrdMJt_3std9panicking12catch_unwind8do_catchINtNtNtCsieiGu2EXtoJ_4core5panic11unwind_safe16AssertUnwindSafeNCINvNtNtCscKtU6MdFI5n_10proc_macro6bridge6client10run_clientNtB20_11TokenStreamINtNtB11_6option6OptionB2U_ENCNCINvMs6_B20_INtB20_6ClientNtB24_11TokenStreamB48_E7expand1NvCs9E08dBcDM90_15zerocopy_derive16derive_immutableE00E0EuEB4G_, symObjAddr: 0x2480, symBinAddr: 0x3EDD0, symSize: 0x60 }
  - { offset: 0x89053, size: 0x8, addend: 0x0, symName: __RINvNvNtCsHUR1vrdMJt_3std9panicking12catch_unwind8do_catchINtNtNtCsieiGu2EXtoJ_4core5panic11unwind_safe16AssertUnwindSafeNCINvNtNtCscKtU6MdFI5n_10proc_macro6bridge6client10run_clientNtB20_11TokenStreamINtNtB11_6option6OptionB2U_ENCNCINvMs6_B20_INtB20_6ClientNtB24_11TokenStreamB48_E7expand1NvCs9E08dBcDM90_15zerocopy_derive16derive_unalignedE00E0EuEB4G_, symObjAddr: 0x24E0, symBinAddr: 0x3EE30, symSize: 0x60 }
  - { offset: 0x890E8, size: 0x8, addend: 0x0, symName: __RINvNvNtCsHUR1vrdMJt_3std9panicking12catch_unwind8do_catchINtNtNtCsieiGu2EXtoJ_4core5panic11unwind_safe16AssertUnwindSafeNCINvNtNtCscKtU6MdFI5n_10proc_macro6bridge6client10run_clientNtB20_11TokenStreamINtNtB11_6option6OptionB2U_ENCNCINvMs6_B20_INtB20_6ClientNtB24_11TokenStreamB48_E7expand1NvCs9E08dBcDM90_15zerocopy_derive17derive_from_bytesE00E0EuEB4G_, symObjAddr: 0x2540, symBinAddr: 0x3EE90, symSize: 0x60 }
  - { offset: 0x8917D, size: 0x8, addend: 0x0, symName: __RINvNvNtCsHUR1vrdMJt_3std9panicking12catch_unwind8do_catchINtNtNtCsieiGu2EXtoJ_4core5panic11unwind_safe16AssertUnwindSafeNCINvNtNtCscKtU6MdFI5n_10proc_macro6bridge6client10run_clientNtB20_11TokenStreamINtNtB11_6option6OptionB2U_ENCNCINvMs6_B20_INtB20_6ClientNtB24_11TokenStreamB48_E7expand1NvCs9E08dBcDM90_15zerocopy_derive17derive_from_zerosE00E0EuEB4G_, symObjAddr: 0x25A0, symBinAddr: 0x3EEF0, symSize: 0x60 }
  - { offset: 0x89212, size: 0x8, addend: 0x0, symName: __RINvNvNtCsHUR1vrdMJt_3std9panicking12catch_unwind8do_catchINtNtNtCsieiGu2EXtoJ_4core5panic11unwind_safe16AssertUnwindSafeNCINvNtNtCscKtU6MdFI5n_10proc_macro6bridge6client10run_clientNtB20_11TokenStreamINtNtB11_6option6OptionB2U_ENCNCINvMs6_B20_INtB20_6ClientNtB24_11TokenStreamB48_E7expand1NvCs9E08dBcDM90_15zerocopy_derive17derive_into_bytesE00E0EuEB4G_, symObjAddr: 0x2600, symBinAddr: 0x3EF50, symSize: 0x60 }
  - { offset: 0x892A7, size: 0x8, addend: 0x0, symName: __RINvNvNtCsHUR1vrdMJt_3std9panicking12catch_unwind8do_catchINtNtNtCsieiGu2EXtoJ_4core5panic11unwind_safe16AssertUnwindSafeNCINvNtNtCscKtU6MdFI5n_10proc_macro6bridge6client10run_clientNtB20_11TokenStreamINtNtB11_6option6OptionB2U_ENCNCINvMs6_B20_INtB20_6ClientNtB24_11TokenStreamB48_E7expand1NvCs9E08dBcDM90_15zerocopy_derive18derive_from_zeroesE00E0EuEB4G_, symObjAddr: 0x2660, symBinAddr: 0x3EFB0, symSize: 0x60 }
  - { offset: 0x8933C, size: 0x8, addend: 0x0, symName: __RINvNvNtCsHUR1vrdMJt_3std9panicking12catch_unwind8do_catchINtNtNtCsieiGu2EXtoJ_4core5panic11unwind_safe16AssertUnwindSafeNCINvNtNtCscKtU6MdFI5n_10proc_macro6bridge6client10run_clientNtB20_11TokenStreamINtNtB11_6option6OptionB2U_ENCNCINvMs6_B20_INtB20_6ClientNtB24_11TokenStreamB48_E7expand1NvCs9E08dBcDM90_15zerocopy_derive19derive_known_layoutE00E0EuEB4G_, symObjAddr: 0x26C0, symBinAddr: 0x3F010, symSize: 0x60 }
  - { offset: 0x893D1, size: 0x8, addend: 0x0, symName: __RINvNvNtCsHUR1vrdMJt_3std9panicking12catch_unwind8do_catchINtNtNtCsieiGu2EXtoJ_4core5panic11unwind_safe16AssertUnwindSafeNCINvNtNtCscKtU6MdFI5n_10proc_macro6bridge6client10run_clientNtB20_11TokenStreamINtNtB11_6option6OptionB2U_ENCNCINvMs6_B20_INtB20_6ClientNtB24_11TokenStreamB48_E7expand1NvCs9E08dBcDM90_15zerocopy_derive21derive_try_from_bytesE00E0EuEB4G_, symObjAddr: 0x2720, symBinAddr: 0x3F070, symSize: 0x60 }
  - { offset: 0x89466, size: 0x8, addend: 0x0, symName: __RINvNvNtCsHUR1vrdMJt_3std9panicking12catch_unwind8do_catchINtNtNtCsieiGu2EXtoJ_4core5panic11unwind_safe16AssertUnwindSafeNCINvNtNtCscKtU6MdFI5n_10proc_macro6bridge6client10run_clientNtB20_11TokenStreamINtNtB11_6option6OptionB2U_ENCNCINvMs6_B20_INtB20_6ClientNtB24_11TokenStreamB48_E7expand1NvCs9E08dBcDM90_15zerocopy_derive9derive_eqE00E0EuEB4G_, symObjAddr: 0x2780, symBinAddr: 0x3F0D0, symSize: 0x60 }
  - { offset: 0x899A4, size: 0x8, addend: 0x0, symName: __RINvXNtCs9OU1sGv5X54_5quote3extNtCsaKzlTDPUHDb_11proc_macro211TokenStreamNtB3_14TokenStreamExt10append_allBt_ECs9E08dBcDM90_15zerocopy_derive, symObjAddr: 0x27E0, symBinAddr: 0x3F130, symSize: 0x40 }
  - { offset: 0x899F0, size: 0x8, addend: 0x0, symName: __RNvXNtCs9OU1sGv5X54_5quote9to_tokensRNtCsaKzlTDPUHDb_11proc_macro211TokenStreamNtB2_8ToTokens9to_tokensCs9E08dBcDM90_15zerocopy_derive, symObjAddr: 0x51A0, symBinAddr: 0x41AF0, symSize: 0x30 }
  - { offset: 0x89A2F, size: 0x8, addend: 0x0, symName: __RNvXNtCs9OU1sGv5X54_5quote9to_tokensRNtCsaKzlTDPUHDb_11proc_macro25IdentNtB2_8ToTokens9to_tokensCs9E08dBcDM90_15zerocopy_derive, symObjAddr: 0x51D0, symBinAddr: 0x41B20, symSize: 0x30 }
  - { offset: 0x89A74, size: 0x8, addend: 0x0, symName: __RNvXs3_NtCs9OU1sGv5X54_5quote9to_tokensINtNtCsieiGu2EXtoJ_4core6option6OptionNtCsaKzlTDPUHDb_11proc_macro211TokenStreamENtB5_8ToTokens9to_tokensCs9E08dBcDM90_15zerocopy_derive, symObjAddr: 0x52F0, symBinAddr: 0x41C40, symSize: 0x70 }
  - { offset: 0x89AD0, size: 0x8, addend: 0x0, symName: __RNvXs3_NtCs9OU1sGv5X54_5quote9to_tokensINtNtCsieiGu2EXtoJ_4core6option6OptionRINtNtCsdGrGZaRBwMb_3syn10punctuated10PunctuatedNtNtB1j_8generics14WherePredicateNtNtB1j_5token5CommaEENtB5_8ToTokens9to_tokensCs9E08dBcDM90_15zerocopy_derive, symObjAddr: 0x5360, symBinAddr: 0x41CB0, symSize: 0x60 }
  - { offset: 0x89B2C, size: 0x8, addend: 0x0, symName: __RNvXs3_NtCs9OU1sGv5X54_5quote9to_tokensINtNtCsieiGu2EXtoJ_4core6option6OptionRNtCsaKzlTDPUHDb_11proc_macro211TokenStreamENtB5_8ToTokens9to_tokensCs9E08dBcDM90_15zerocopy_derive, symObjAddr: 0x53C0, symBinAddr: 0x41D10, symSize: 0x60 }
  - { offset: 0x89B88, size: 0x8, addend: 0x0, symName: __RNvXs3_NtCs9OU1sGv5X54_5quote9to_tokensINtNtCsieiGu2EXtoJ_4core6option6OptionRNtNtCsdGrGZaRBwMb_3syn8generics11WhereClauseENtB5_8ToTokens9to_tokensCs9E08dBcDM90_15zerocopy_derive, symObjAddr: 0x5420, symBinAddr: 0x41D70, symSize: 0x60 }
  - { offset: 0x89BEA, size: 0x8, addend: 0x0, symName: __RNvYNtCsaKzlTDPUHDb_11proc_macro25IdentNtNtCs9OU1sGv5X54_5quote9to_tokens8ToTokens15to_token_streamCs9E08dBcDM90_15zerocopy_derive, symObjAddr: 0x6120, symBinAddr: 0x42A70, symSize: 0x90 }
  - { offset: 0x89C34, size: 0x8, addend: 0x0, symName: __RNvYRNtCsaKzlTDPUHDb_11proc_macro211TokenStreamNtNtCs9OU1sGv5X54_5quote9to_tokens8ToTokens15to_token_streamCs9E08dBcDM90_15zerocopy_derive, symObjAddr: 0x61F0, symBinAddr: 0x42B40, symSize: 0x90 }
  - { offset: 0x89C7E, size: 0x8, addend: 0x0, symName: __RNvYRNtCsaKzlTDPUHDb_11proc_macro211TokenStreamNtNtCs9OU1sGv5X54_5quote9to_tokens8ToTokens17into_token_streamCs9E08dBcDM90_15zerocopy_derive, symObjAddr: 0x6280, symBinAddr: 0x42BD0, symSize: 0x50 }
  - { offset: 0x89CBF, size: 0x8, addend: 0x0, symName: __RNvXs0_NtCs9OU1sGv5X54_5quote7spannedNtCsaKzlTDPUHDb_11proc_macro211TokenStreamNtB5_7Spanned6___spanCs9E08dBcDM90_15zerocopy_derive, symObjAddr: 0x5230, symBinAddr: 0x41B80, symSize: 0x30 }
  - { offset: 0x89D05, size: 0x8, addend: 0x0, symName: __RNvYINtNtCsieiGu2EXtoJ_4core6option4IterNtCsaKzlTDPUHDb_11proc_macro25IdentENtNtNtCs9OU1sGv5X54_5quote9___private3ext14RepIteratorExt15quote_into_iterCs9E08dBcDM90_15zerocopy_derive, symObjAddr: 0x5E50, symBinAddr: 0x427A0, symSize: 0x20 }
  - { offset: 0x89D40, size: 0x8, addend: 0x0, symName: __RNvYNtCsaKzlTDPUHDb_11proc_macro211TokenStreamNtNtNtCs9OU1sGv5X54_5quote9___private3ext14RepToTokensExt15quote_into_iterCs9E08dBcDM90_15zerocopy_derive, symObjAddr: 0x60E0, symBinAddr: 0x42A30, symSize: 0x20 }
  - { offset: 0x89D75, size: 0x8, addend: 0x0, symName: __RNvYNtCsaKzlTDPUHDb_11proc_macro211TokenStreamNtNtNtCs9OU1sGv5X54_5quote9___private3ext14RepToTokensExt4nextCs9E08dBcDM90_15zerocopy_derive, symObjAddr: 0x6100, symBinAddr: 0x42A50, symSize: 0x20 }
  - { offset: 0x89DAA, size: 0x8, addend: 0x0, symName: __RNvYNtCsaKzlTDPUHDb_11proc_macro25IdentNtNtNtCs9OU1sGv5X54_5quote9___private3ext14RepToTokensExt15quote_into_iterCs9E08dBcDM90_15zerocopy_derive, symObjAddr: 0x61B0, symBinAddr: 0x42B00, symSize: 0x20 }
  - { offset: 0x89DDF, size: 0x8, addend: 0x0, symName: __RNvYNtCsaKzlTDPUHDb_11proc_macro25IdentNtNtNtCs9OU1sGv5X54_5quote9___private3ext14RepToTokensExt4nextCs9E08dBcDM90_15zerocopy_derive, symObjAddr: 0x61D0, symBinAddr: 0x42B20, symSize: 0x20 }
  - { offset: 0x89E35, size: 0x8, addend: 0x0, symName: __RNvMNtCsieiGu2EXtoJ_4core6optionINtB2_6OptionINtNtCs9E08dBcDM90_15zerocopy_derive4repr4ReprNtNtB4_7convert10InfallibleINtNtNtB4_3num7nonzero7NonZeromEEE6as_refBM_, symObjAddr: 0x2A30, symBinAddr: 0x3F380, symSize: 0x40 }
  - { offset: 0x89E99, size: 0x8, addend: 0x0, symName: __RNvMNtCsieiGu2EXtoJ_4core6optionINtB2_6OptionINtNtCslJiobkLta79_5alloc5boxed3BoxNtNtCsdGrGZaRBwMb_3syn4attr4MetaEE4takeCs9E08dBcDM90_15zerocopy_derive, symObjAddr: 0x2A70, symBinAddr: 0x3F3C0, symSize: 0x20 }
  - { offset: 0x89F0C, size: 0x8, addend: 0x0, symName: __RNvMNtCsieiGu2EXtoJ_4core6optionINtB2_6OptionINtNtCslJiobkLta79_5alloc5boxed3BoxNtNtCsdGrGZaRBwMb_3syn4attr4MetaEE7is_noneCs9E08dBcDM90_15zerocopy_derive, symObjAddr: 0x2A90, symBinAddr: 0x3F3E0, symSize: 0x30 }
  - { offset: 0x89F56, size: 0x8, addend: 0x0, symName: __RNvMNtCsieiGu2EXtoJ_4core6optionINtB2_6OptionINtNtCslJiobkLta79_5alloc5boxed3BoxNtNtCsdGrGZaRBwMb_3syn4attr4MetaEE7is_someCs9E08dBcDM90_15zerocopy_derive, symObjAddr: 0x2AC0, symBinAddr: 0x3F410, symSize: 0x30 }
  - { offset: 0x89F8F, size: 0x8, addend: 0x0, symName: __RNvMNtCsieiGu2EXtoJ_4core6optionINtB2_6OptionINtNtNtCs9E08dBcDM90_15zerocopy_derive4repr4util7SpannedINtBM_12CompoundReprNtBM_13PrimitiveReprEEE7is_someBO_, symObjAddr: 0x2AF0, symBinAddr: 0x3F440, symSize: 0x30 }
  - { offset: 0x89FBB, size: 0x8, addend: 0x0, symName: __RNvMNtCsieiGu2EXtoJ_4core6optionINtB2_6OptionINtNtNtCs9E08dBcDM90_15zerocopy_derive4repr4util7SpannedINtBM_12CompoundReprNtBM_13PrimitiveReprEEE9unwrap_orBO_, symObjAddr: 0x2B20, symBinAddr: 0x3F470, symSize: 0x60 }
  - { offset: 0x8A021, size: 0x8, addend: 0x0, symName: __RNvMNtCsieiGu2EXtoJ_4core6optionINtB2_6OptionINtNtNtCs9E08dBcDM90_15zerocopy_derive4repr4util7SpannedINtBM_12CompoundReprNtNtB4_7convert10InfallibleEEE7is_someBO_, symObjAddr: 0x2B80, symBinAddr: 0x3F4D0, symSize: 0x30 }
  - { offset: 0x8A04D, size: 0x8, addend: 0x0, symName: __RNvMNtCsieiGu2EXtoJ_4core6optionINtB2_6OptionINtNtNtCs9E08dBcDM90_15zerocopy_derive4repr4util7SpannedINtBM_12CompoundReprNtNtB4_7convert10InfallibleEEE9unwrap_orBO_, symObjAddr: 0x2BB0, symBinAddr: 0x3F500, symSize: 0x70 }
  - { offset: 0x8A0B3, size: 0x8, addend: 0x0, symName: __RNvMNtCsieiGu2EXtoJ_4core6optionINtB2_6OptionINtNtNtCs9E08dBcDM90_15zerocopy_derive4repr4util7SpannedINtBM_9AlignReprINtNtNtB4_3num7nonzero7NonZeromEEEE7is_someBO_, symObjAddr: 0x2C20, symBinAddr: 0x3F570, symSize: 0x30 }
  - { offset: 0x8A0EC, size: 0x8, addend: 0x0, symName: __RNvMNtCsieiGu2EXtoJ_4core6optionINtB2_6OptionINtNtNtCs9E08dBcDM90_15zerocopy_derive4repr4util7SpannedINtBM_9AlignReprNtNtB4_7convert10InfallibleEEE7is_someBO_, symObjAddr: 0x2C50, symBinAddr: 0x3F5A0, symSize: 0x30 }
  - { offset: 0x8A118, size: 0x8, addend: 0x0, symName: __RNvMNtCsieiGu2EXtoJ_4core6optionINtB2_6OptionNtCsaKzlTDPUHDb_11proc_macro211TokenStreamE9unwrap_orCs9E08dBcDM90_15zerocopy_derive, symObjAddr: 0x2C80, symBinAddr: 0x3F5D0, symSize: 0xC0 }
  - { offset: 0x8A19E, size: 0x8, addend: 0x0, symName: __RNvMNtCsieiGu2EXtoJ_4core6optionINtB2_6OptionNtCsaKzlTDPUHDb_11proc_macro25IdentE4iterCs9E08dBcDM90_15zerocopy_derive, symObjAddr: 0x2D40, symBinAddr: 0x3F690, symSize: 0x40 }
  - { offset: 0x8A202, size: 0x8, addend: 0x0, symName: __RNvMNtCsieiGu2EXtoJ_4core6optionINtB2_6OptionNtCsaKzlTDPUHDb_11proc_macro25IdentE6as_refCs9E08dBcDM90_15zerocopy_derive, symObjAddr: 0x2D80, symBinAddr: 0x3F6D0, symSize: 0x40 }
  - { offset: 0x8A284, size: 0x8, addend: 0x0, symName: __RNvMNtCsieiGu2EXtoJ_4core6optionINtB2_6OptionNtNtCsdGrGZaRBwMb_3syn8generics14WherePredicateE4iterCs9E08dBcDM90_15zerocopy_derive, symObjAddr: 0x2DC0, symBinAddr: 0x3F710, symSize: 0x40 }
  - { offset: 0x8A311, size: 0x8, addend: 0x0, symName: __RNvMNtCsieiGu2EXtoJ_4core6optionINtB2_6OptionRINtNtNtB4_3num7nonzero7NonZeromEE7is_noneCs9E08dBcDM90_15zerocopy_derive, symObjAddr: 0x2E00, symBinAddr: 0x3F750, symSize: 0x30 }
  - { offset: 0x8A35B, size: 0x8, addend: 0x0, symName: __RNvMNtCsieiGu2EXtoJ_4core6optionINtB2_6OptionRINtNtNtB4_3num7nonzero7NonZeromEE7is_someCs9E08dBcDM90_15zerocopy_derive, symObjAddr: 0x2E30, symBinAddr: 0x3F780, symSize: 0x30 }
  - { offset: 0x8A3A1, size: 0x8, addend: 0x0, symName: __RNvMNtCsieiGu2EXtoJ_4core6optionINtB2_6OptionTNtNtCsdGrGZaRBwMb_3syn5token2EqNtNtBM_4expr4ExprEE6as_refCs9E08dBcDM90_15zerocopy_derive, symObjAddr: 0x2E60, symBinAddr: 0x3F7B0, symSize: 0x40 }
  - { offset: 0x8A3EB, size: 0x8, addend: 0x0, symName: __RNvMNtCsieiGu2EXtoJ_4core6optionINtB2_6OptionbE9unwrap_orCs9E08dBcDM90_15zerocopy_derive, symObjAddr: 0x2EA0, symBinAddr: 0x3F7F0, symSize: 0x50 }
  - { offset: 0x8A465, size: 0x8, addend: 0x0, symName: __RNvMNtCsieiGu2EXtoJ_4core6optionINtB2_6OptionoE6as_mutCs9E08dBcDM90_15zerocopy_derive, symObjAddr: 0x2EF0, symBinAddr: 0x3F840, symSize: 0x40 }
  - { offset: 0x8A4AF, size: 0x8, addend: 0x0, symName: __RNvMsd_NtNtCsieiGu2EXtoJ_4core3num7nonzeroINtB5_7NonZeromE3getCs9E08dBcDM90_15zerocopy_derive, symObjAddr: 0x2F30, symBinAddr: 0x3F880, symSize: 0x10 }
  - { offset: 0x8A4DB, size: 0x8, addend: 0x0, symName: __RNvMsd_NtNtCsieiGu2EXtoJ_4core3num7nonzeroINtB5_7NonZeromE3newCs9E08dBcDM90_15zerocopy_derive, symObjAddr: 0x2F40, symBinAddr: 0x3F890, symSize: 0x10 }
  - { offset: 0x8AC3B, size: 0x8, addend: 0x0, symName: __RINvMNtCslJiobkLta79_5alloc5sliceSNtNtCsdGrGZaRBwMb_3syn8generics12GenericParam18sort_by_cached_keylNCNvMs8_NtCs9E08dBcDM90_15zerocopy_derive4utilNtB1I_16ImplBlockBuilder5builds2_0EB1K_, symObjAddr: 0x0, symBinAddr: 0x42C20, symSize: 0xE30 }
  - { offset: 0x8B7E4, size: 0x8, addend: 0x0, symName: __RINvXs0_NtNtNtCsieiGu2EXtoJ_4core4iter8adapters3mapINtB6_3MapIBO_INtNtNtBc_5array4iter8IntoIterNtCsaKzlTDPUHDb_11proc_macro211TokenStreamKj2_ENCINvXsb_B1x_B1v_INtNtNtBa_6traits7collect12FromIteratorB1v_E9from_iterB11_E0ENCINvXs6_NtB1x_3impNtB3F_11TokenStreamIB2y_B3P_E9from_iterBX_E0ENtNtB2C_8iterator8Iterator4folduNCINvNvB4y_8for_each4callNtCscKtU6MdFI5n_10proc_macro11TokenStreamNCINvXsj_B5v_B5t_INtB2A_6ExtendB5t_E6extendBN_E0E0ECs9E08dBcDM90_15zerocopy_derive, symObjAddr: 0xEB0, symBinAddr: 0x43AD0, symSize: 0x40 }
  - { offset: 0x8B856, size: 0x8, addend: 0x0, symName: __RINvXs0_NtNtNtCsieiGu2EXtoJ_4core4iter8adapters3mapINtB6_3MapINtNtB8_9enumerate9EnumerateIBO_INtNtNtBc_5slice4iter4IterNtNtCsdGrGZaRBwMb_3syn8generics12GenericParamENCNvMs8_NtCs9E08dBcDM90_15zerocopy_derive4utilNtB2L_16ImplBlockBuilder5builds2_0EENCINvMNtCslJiobkLta79_5alloc5sliceSB1T_18sort_by_cached_keylB2D_E0ENtNtNtBa_6traits8iterator8Iterator4folduNCINvNvB52_8for_each4callTlmENCINvMsi_NtB45_3vecINtB6i_3VecB65_E14extend_trustedBN_E0E0EB2N_, symObjAddr: 0xEF0, symBinAddr: 0x43B10, symSize: 0x50 }
  - { offset: 0x8B8EE, size: 0x8, addend: 0x0, symName: __RINvXs0_NtNtNtCsieiGu2EXtoJ_4core4iter8adapters3mapINtB6_3MapINtNtB8_9enumerate9EnumerateIBO_INtNtNtBc_5slice4iter4IterNtNtCsdGrGZaRBwMb_3syn8generics12GenericParamENCNvMs8_NtCs9E08dBcDM90_15zerocopy_derive4utilNtB2L_16ImplBlockBuilder5builds2_0EENCINvMNtCslJiobkLta79_5alloc5sliceSB1T_18sort_by_cached_keylB2D_Es_0ENtNtNtBa_6traits8iterator8Iterator4folduNCINvNvB54_8for_each4callTljENCINvMsi_NtB45_3vecINtB6k_3VecB67_E14extend_trustedBN_E0E0EB2N_, symObjAddr: 0xF40, symBinAddr: 0x43B60, symSize: 0x50 }
  - { offset: 0x8B986, size: 0x8, addend: 0x0, symName: __RINvXs0_NtNtNtCsieiGu2EXtoJ_4core4iter8adapters3mapINtB6_3MapINtNtNtBc_5array4iter8IntoIterNtCsaKzlTDPUHDb_11proc_macro211TokenStreamKj2_ENCINvXsb_B1t_B1r_INtNtNtBa_6traits7collect12FromIteratorB1r_E9from_iterBX_E0ENtNtB2y_8iterator8Iterator4folduNCINvB6_8map_foldNtNtB1t_3imp11TokenStreamNtCscKtU6MdFI5n_10proc_macro11TokenStreamuNCINvXs6_B4g_B4e_IB2u_B4e_E9from_iterBN_E0NCINvNvB3r_8for_each4callB4D_NCINvXsj_B4F_B4D_INtB2w_6ExtendB4D_E6extendIBO_BN_B5j_EE0E0E0ECs9E08dBcDM90_15zerocopy_derive, symObjAddr: 0xF90, symBinAddr: 0x43BB0, symSize: 0x40 }
  - { offset: 0x8B9F8, size: 0x8, addend: 0x0, symName: __RINvXs0_NtNtNtCsieiGu2EXtoJ_4core4iter8adapters3mapINtB6_3MapINtNtNtBc_5slice4iter4IterNtNtCsdGrGZaRBwMb_3syn8generics12GenericParamENCNvMs8_NtCs9E08dBcDM90_15zerocopy_derive4utilNtB2f_16ImplBlockBuilder5builds2_0ENtNtNtBa_6traits8iterator8Iterator4folduNCINvNvXs_NtB8_9enumerateINtB4e_9EnumeratepEB3q_4fold9enumerateluNCINvB6_8map_foldTjlETljEuNCINvMNtCslJiobkLta79_5alloc5sliceSB1n_18sort_by_cached_keylB27_Es_0NCINvNvB3q_8for_each4callB5s_NCINvMsi_NtB5F_3vecINtB7f_3VecB5s_E14extend_trustedIBO_IB4u_BN_EB5x_EE0E0E0E0EB2h_, symObjAddr: 0xFD0, symBinAddr: 0x43BF0, symSize: 0x40 }
  - { offset: 0x8BA8F, size: 0x8, addend: 0x0, symName: __RINvXs0_NtNtNtCsieiGu2EXtoJ_4core4iter8adapters3mapINtB6_3MapINtNtNtBc_5slice4iter4IterNtNtCsdGrGZaRBwMb_3syn8generics12GenericParamENCNvMs8_NtCs9E08dBcDM90_15zerocopy_derive4utilNtB2f_16ImplBlockBuilder5builds2_0ENtNtNtBa_6traits8iterator8Iterator4folduNCINvNvXs_NtB8_9enumerateINtB4e_9EnumeratepEB3q_4fold9enumerateluNCINvB6_8map_foldTjlETlmEuNCINvMNtCslJiobkLta79_5alloc5sliceSB1n_18sort_by_cached_keylB27_E0NCINvNvB3q_8for_each4callB5s_NCINvMsi_NtB5F_3vecINtB7d_3VecB5s_E14extend_trustedIBO_IB4u_BN_EB5x_EE0E0E0E0EB2h_, symObjAddr: 0x1010, symBinAddr: 0x43C30, symSize: 0x40 }
  - { offset: 0x8BB26, size: 0x8, addend: 0x0, symName: __RINvXs0_NtNtNtCsieiGu2EXtoJ_4core4iter8adapters3mapINtB6_3MapINtNtNtBc_5slice4iter4IterTRNtNtCsdGrGZaRBwMb_3syn11restriction10VisibilityNtCsaKzlTDPUHDb_11proc_macro211TokenStreamRNtNtB1t_2ty4TypeEENCNvMs8_NtCs9E08dBcDM90_15zerocopy_derive4utilNtB3h_16ImplBlockBuilder5build0ENtNtNtBa_6traits8iterator8Iterator4folduNCINvNvB4p_8for_each4callNtNtB1t_8generics14WherePredicateNCINvMsi_NtCslJiobkLta79_5alloc3vecINtB68_3VecB5s_E14extend_trustedBN_E0E0EB3j_, symObjAddr: 0x1050, symBinAddr: 0x43C70, symSize: 0x80 }
  - { offset: 0x8BBBF, size: 0x8, addend: 0x0, symName: __RINvXs0_NtNtNtCsieiGu2EXtoJ_4core4iter8adapters3mapINtB6_3MapINtNtNtBc_5slice4iter4IterTRNtNtCsdGrGZaRBwMb_3syn11restriction10VisibilityNtCsaKzlTDPUHDb_11proc_macro211TokenStreamRNtNtB1t_2ty4TypeEENCNvNtNtCs9E08dBcDM90_15zerocopy_derive6derive12known_layout37derive_known_layout_for_repr_c_structs5_0ENtNtNtBa_6traits8iterator8Iterator4folduNCINvNvB4P_8for_each4callNtB2c_5IdentNCINvMsi_NtCslJiobkLta79_5alloc3vecINtB6d_3VecB5S_E14extend_trustedBN_E0E0EB3h_, symObjAddr: 0x10D0, symBinAddr: 0x43CF0, symSize: 0x50 }
  - { offset: 0x8BC58, size: 0x8, addend: 0x0, symName: __RNvXs0_NtNtNtCsieiGu2EXtoJ_4core4iter8adapters3mapINtB5_3MapIBN_INtNtNtBb_5array4iter8IntoIterNtCsaKzlTDPUHDb_11proc_macro211TokenStreamKj2_ENCINvXsb_B1w_B1u_INtNtNtB9_6traits7collect12FromIteratorB1u_E9from_iterB10_E0ENCINvXs6_NtB1w_3impNtB3E_11TokenStreamIB2x_B3O_E9from_iterBW_E0ENtNtB2B_8iterator8Iterator9size_hintCs9E08dBcDM90_15zerocopy_derive, symObjAddr: 0x2C90, symBinAddr: 0x458B0, symSize: 0x30 }
  - { offset: 0x8BC9F, size: 0x8, addend: 0x0, symName: __RNvXs0_NtNtNtCsieiGu2EXtoJ_4core4iter8adapters3mapINtB5_3MapIBN_INtNtNtBb_5array4iter8IntoIterNtCsaKzlTDPUHDb_11proc_macro211TokenStreamKj2_ENCINvXsb_B1w_B1u_INtNtNtB9_6traits7collect12FromIteratorB1u_E9from_iterB10_E0ENCINvXs6_NtB1w_3impNtB3E_11TokenStreamIB2x_B3O_E9from_iterBW_Es_0ENtNtB2B_8iterator8Iterator4nextCs9E08dBcDM90_15zerocopy_derive, symObjAddr: 0x2CC0, symBinAddr: 0x458E0, symSize: 0xC0 }
  - { offset: 0x8BD4D, size: 0x8, addend: 0x0, symName: __RNvXs0_NtNtNtCsieiGu2EXtoJ_4core4iter8adapters3mapINtB5_3MapIBN_INtNtNtBb_5array4iter8IntoIterNtCsaKzlTDPUHDb_11proc_macro211TokenStreamKj2_ENCINvXsb_B1w_B1u_INtNtNtB9_6traits7collect12FromIteratorB1u_E9from_iterB10_E0ENCINvXs6_NtB1w_3impNtB3E_11TokenStreamIB2x_B3O_E9from_iterBW_Es_0ENtNtB2B_8iterator8Iterator9size_hintCs9E08dBcDM90_15zerocopy_derive, symObjAddr: 0x2D80, symBinAddr: 0x459A0, symSize: 0x30 }
  - { offset: 0x8BD94, size: 0x8, addend: 0x0, symName: __RNvXs0_NtNtNtCsieiGu2EXtoJ_4core4iter8adapters3mapINtB5_3MapIBN_INtNtNtBb_5slice4iter4IterNtNtCs9E08dBcDM90_15zerocopy_derive4util10TraitBoundENCNvB1s_16normalize_bounds0ENCINvNvMs8_B1s_NtB1s_16ImplBlockBuilder5build8bound_ttBW_E0ENtNtNtB9_6traits8iterator8Iterator4nextB1u_, symObjAddr: 0x2DB0, symBinAddr: 0x459D0, symSize: 0xE0 }
  - { offset: 0x8BE42, size: 0x8, addend: 0x0, symName: __RNvXs0_NtNtNtCsieiGu2EXtoJ_4core4iter8adapters3mapINtB5_3MapINtNtB7_3zip3ZipINtNtNtBb_5slice4iter4IterNtCsaKzlTDPUHDb_11proc_macro25IdentEIB1d_TRNtNtCsdGrGZaRBwMb_3syn11restriction10VisibilityNtB1E_11TokenStreamRNtNtB2n_2ty4TypeEEENCNvNtNtCs9E08dBcDM90_15zerocopy_derive6derive12known_layout37derive_known_layout_for_repr_c_structs6_0ENtNtNtB9_6traits8iterator8Iterator4nextB3P_, symObjAddr: 0x2E90, symBinAddr: 0x45AB0, symSize: 0xD0 }
  - { offset: 0x8BEEF, size: 0x8, addend: 0x0, symName: __RNvXs0_NtNtNtCsieiGu2EXtoJ_4core4iter8adapters3mapINtB5_3MapINtNtB7_3zip3ZipINtNtNtBb_5slice4iter4IterNtCsaKzlTDPUHDb_11proc_macro25IdentEIB1d_TRNtNtCsdGrGZaRBwMb_3syn11restriction10VisibilityNtB1E_11TokenStreamRNtNtB2n_2ty4TypeEEENCNvNtNtCs9E08dBcDM90_15zerocopy_derive6derive12known_layout37derive_known_layout_for_repr_c_structs7_0ENtNtNtB9_6traits8iterator8Iterator4nextB3P_, symObjAddr: 0x2F60, symBinAddr: 0x45B80, symSize: 0xD0 }
  - { offset: 0x8BF9C, size: 0x8, addend: 0x0, symName: __RNvXs0_NtNtNtCsieiGu2EXtoJ_4core4iter8adapters3mapINtB5_3MapINtNtB7_5chain5ChainIBX_IBN_INtNtNtBb_5slice4iter4IterTRNtNtCsdGrGZaRBwMb_3syn11restriction10VisibilityNtCsaKzlTDPUHDb_11proc_macro211TokenStreamRNtNtB1U_2ty4TypeEENCNvNtNtCs9E08dBcDM90_15zerocopy_derive6derive14try_from_bytes29derive_has_field_struct_union0EINtNtBb_6option8IntoIterB2B_EEIBN_B1o_NCB3C_s0_0EENcNtINtB5a_6OptionB2B_E4Some0ENtNtNtB9_6traits8iterator8Iterator4nextB3I_, symObjAddr: 0x3030, symBinAddr: 0x45C50, symSize: 0x120 }
  - { offset: 0x8C04A, size: 0x8, addend: 0x0, symName: __RNvXs0_NtNtNtCsieiGu2EXtoJ_4core4iter8adapters3mapINtB5_3MapINtNtB7_6cloned6ClonedINtNtNtBb_5slice4iter4IterNtNtCs9E08dBcDM90_15zerocopy_derive4util5TraitEENCINvNvMs8_B1K_NtB1K_16ImplBlockBuilder5build8bound_ttBW_E0ENtNtNtB9_6traits8iterator8Iterator4nextB1M_, symObjAddr: 0x3150, symBinAddr: 0x45D70, symSize: 0xE0 }
  - { offset: 0x8C0F8, size: 0x8, addend: 0x0, symName: __RNvXs0_NtNtNtCsieiGu2EXtoJ_4core4iter8adapters3mapINtB5_3MapINtNtB7_9enumerate9EnumerateIBN_INtNtNtBb_5slice4iter4IterNtNtCsdGrGZaRBwMb_3syn8generics12GenericParamENCNvMs8_NtCs9E08dBcDM90_15zerocopy_derive4utilNtB2K_16ImplBlockBuilder5builds2_0EENCINvMNtCslJiobkLta79_5alloc5sliceSB1S_18sort_by_cached_keylB2C_E0ENtNtNtB9_6traits8iterator8Iterator9size_hintB2M_, symObjAddr: 0x3230, symBinAddr: 0x45E50, symSize: 0x30 }
  - { offset: 0x8C13F, size: 0x8, addend: 0x0, symName: __RNvXs0_NtNtNtCsieiGu2EXtoJ_4core4iter8adapters3mapINtB5_3MapINtNtB7_9enumerate9EnumerateIBN_INtNtNtBb_5slice4iter4IterNtNtCsdGrGZaRBwMb_3syn8generics12GenericParamENCNvMs8_NtCs9E08dBcDM90_15zerocopy_derive4utilNtB2K_16ImplBlockBuilder5builds2_0EENCINvMNtCslJiobkLta79_5alloc5sliceSB1S_18sort_by_cached_keylB2C_Es_0ENtNtNtB9_6traits8iterator8Iterator9size_hintB2M_, symObjAddr: 0x3260, symBinAddr: 0x45E80, symSize: 0x30 }
  - { offset: 0x8C186, size: 0x8, addend: 0x0, symName: __RNvXs0_NtNtNtCsieiGu2EXtoJ_4core4iter8adapters3mapINtB5_3MapINtNtB7_9enumerate9EnumerateINtNtB7_7flatten7FlatMapINtNtCsdGrGZaRBwMb_3syn10punctuated4IterNtNtB1R_4data7VariantERNtB2s_6FieldsNCNvXs1_NtCs9E08dBcDM90_15zerocopy_derive4utilNtNtB1R_6derive8DataEnumNtB38_7DataExt6fields0EENCINvB38_10map_fieldsB1o_E0ENtNtNtB9_6traits8iterator8Iterator4nextB3a_, symObjAddr: 0x3290, symBinAddr: 0x45EB0, symSize: 0xC0 }
  - { offset: 0x8C233, size: 0x8, addend: 0x0, symName: __RNvXs0_NtNtNtCsieiGu2EXtoJ_4core4iter8adapters3mapINtB5_3MapINtNtB7_9enumerate9EnumerateINtNtB7_7flatten7FlatMapINtNtCsdGrGZaRBwMb_3syn10punctuated4IterNtNtB1R_4data7VariantERNtB2s_6FieldsNCNvXs1_NtCs9E08dBcDM90_15zerocopy_derive4utilNtNtB1R_6derive8DataEnumNtB38_7DataExt6fields0EENCINvB38_10map_fieldsB1o_E0ENtNtNtB9_6traits8iterator8Iterator9size_hintB3a_, symObjAddr: 0x3350, symBinAddr: 0x45F70, symSize: 0x30 }
  - { offset: 0x8C27A, size: 0x8, addend: 0x0, symName: __RNvXs0_NtNtNtCsieiGu2EXtoJ_4core4iter8adapters3mapINtB5_3MapINtNtB7_9enumerate9EnumerateINtNtCsdGrGZaRBwMb_3syn10punctuated4IterNtNtB1t_4data5FieldEENCINvNtCs9E08dBcDM90_15zerocopy_derive4util10map_fieldsRINtB1r_10PunctuatedB22_NtNtB1t_5token5CommaEE0ENtNtNtB9_6traits8iterator8Iterator4nextB2u_, symObjAddr: 0x3380, symBinAddr: 0x45FA0, symSize: 0xC0 }
  - { offset: 0x8C327, size: 0x8, addend: 0x0, symName: __RNvXs0_NtNtNtCsieiGu2EXtoJ_4core4iter8adapters3mapINtB5_3MapINtNtB7_9enumerate9EnumerateINtNtCsdGrGZaRBwMb_3syn10punctuated4IterNtNtB1t_4data5FieldEENCINvNtCs9E08dBcDM90_15zerocopy_derive4util10map_fieldsRINtB1r_10PunctuatedB22_NtNtB1t_5token5CommaEE0ENtNtNtB9_6traits8iterator8Iterator9size_hintB2u_, symObjAddr: 0x3440, symBinAddr: 0x46060, symSize: 0x30 }
  - { offset: 0x8C36E, size: 0x8, addend: 0x0, symName: __RNvXs0_NtNtNtCsieiGu2EXtoJ_4core4iter8adapters3mapINtB5_3MapINtNtB7_9enumerate9EnumerateINtNtCsdGrGZaRBwMb_3syn10punctuated4IterNtNtB1t_4data5FieldEENCINvNtCs9E08dBcDM90_15zerocopy_derive4util10map_fieldsRNtB24_6FieldsE0ENtNtNtB9_6traits8iterator8Iterator4nextB2u_, symObjAddr: 0x3470, symBinAddr: 0x46090, symSize: 0xC0 }
  - { offset: 0x8C41B, size: 0x8, addend: 0x0, symName: __RNvXs0_NtNtNtCsieiGu2EXtoJ_4core4iter8adapters3mapINtB5_3MapINtNtB7_9enumerate9EnumerateINtNtCsdGrGZaRBwMb_3syn10punctuated4IterNtNtB1t_4data5FieldEENCINvNtCs9E08dBcDM90_15zerocopy_derive4util10map_fieldsRNtB24_6FieldsE0ENtNtNtB9_6traits8iterator8Iterator9size_hintB2u_, symObjAddr: 0x3530, symBinAddr: 0x46150, symSize: 0x30 }
  - { offset: 0x8C462, size: 0x8, addend: 0x0, symName: __RNvXs0_NtNtNtCsieiGu2EXtoJ_4core4iter8adapters3mapINtB5_3MapINtNtB7_9enumerate9EnumerateINtNtNtCslJiobkLta79_5alloc3vec9into_iter8IntoIterTRNtNtCsdGrGZaRBwMb_3syn11restriction10VisibilityNtCsaKzlTDPUHDb_11proc_macro211TokenStreamRNtNtB2i_2ty4TypeEEENCNCNvNtNtCs9E08dBcDM90_15zerocopy_derive6derive14try_from_bytes19derive_is_bit_valid00ENtNtNtB9_6traits8iterator8Iterator4nextB49_, symObjAddr: 0x3560, symBinAddr: 0x46180, symSize: 0x100 }
  - { offset: 0x8C511, size: 0x8, addend: 0x0, symName: __RNvXs0_NtNtNtCsieiGu2EXtoJ_4core4iter8adapters3mapINtB5_3MapINtNtCsdGrGZaRBwMb_3syn10punctuated4IterNtNtB11_4data5FieldENCNCNvNtNtCs9E08dBcDM90_15zerocopy_derive6derive14try_from_bytes24generate_variant_structs00ENtNtNtB9_6traits8iterator8Iterator4nextB24_, symObjAddr: 0x3660, symBinAddr: 0x46280, symSize: 0x80 }
  - { offset: 0x8C5BD, size: 0x8, addend: 0x0, symName: __RNvXs0_NtNtNtCsieiGu2EXtoJ_4core4iter8adapters3mapINtB5_3MapINtNtCsdGrGZaRBwMb_3syn10punctuated4IterNtNtB11_4data5FieldENCNvNtNtCs9E08dBcDM90_15zerocopy_derive6derive10from_bytes22derive_from_zeros_enum0ENtNtNtB9_6traits8iterator8Iterator4nextB22_, symObjAddr: 0x36E0, symBinAddr: 0x46300, symSize: 0xD0 }
  - { offset: 0x8C66A, size: 0x8, addend: 0x0, symName: __RNvXs0_NtNtNtCsieiGu2EXtoJ_4core4iter8adapters3mapINtB5_3MapINtNtCsdGrGZaRBwMb_3syn10punctuated4IterNtNtB11_4data5FieldENCNvNtNtCs9E08dBcDM90_15zerocopy_derive6derive10from_bytes22derive_from_zeros_enum0ENtNtNtB9_6traits8iterator8Iterator9size_hintB22_, symObjAddr: 0x37B0, symBinAddr: 0x463D0, symSize: 0x30 }
  - { offset: 0x8C6B1, size: 0x8, addend: 0x0, symName: __RNvXs0_NtNtNtCsieiGu2EXtoJ_4core4iter8adapters3mapINtB5_3MapINtNtCsdGrGZaRBwMb_3syn10punctuated4IterNtNtB11_4data7VariantENCNvNtCs9E08dBcDM90_15zerocopy_derive4util17generate_tag_enum0ENtNtNtB9_6traits8iterator8Iterator4nextB22_, symObjAddr: 0x37E0, symBinAddr: 0x46400, symSize: 0xB0 }
  - { offset: 0x8C75E, size: 0x8, addend: 0x0, symName: __RNvXs0_NtNtNtCsieiGu2EXtoJ_4core4iter8adapters3mapINtB5_3MapINtNtCsdGrGZaRBwMb_3syn10punctuated4IterNtNtB11_4data7VariantENCNvNtNtCs9E08dBcDM90_15zerocopy_derive6derive14try_from_bytes19derive_is_bit_valids_0ENtNtNtB9_6traits8iterator8Iterator4nextB24_, symObjAddr: 0x3890, symBinAddr: 0x464B0, symSize: 0xB0 }
  - { offset: 0x8C80B, size: 0x8, addend: 0x0, symName: __RNvXs0_NtNtNtCsieiGu2EXtoJ_4core4iter8adapters3mapINtB5_3MapINtNtCsdGrGZaRBwMb_3syn10punctuated4IterNtNtB11_4data7VariantENCNvNtNtCs9E08dBcDM90_15zerocopy_derive6derive14try_from_bytes19generate_tag_consts0ENtNtNtB9_6traits8iterator8Iterator4nextB24_, symObjAddr: 0x3940, symBinAddr: 0x46560, symSize: 0xB0 }
  - { offset: 0x8C8B8, size: 0x8, addend: 0x0, symName: __RNvXs0_NtNtNtCsieiGu2EXtoJ_4core4iter8adapters3mapINtB5_3MapINtNtCsdGrGZaRBwMb_3syn10punctuated4IterNtNtB11_4data7VariantENCNvXs1_NtCs9E08dBcDM90_15zerocopy_derive4utilNtNtB11_6derive8DataEnumNtB24_7DataExt6fields0ENtNtNtB9_6traits8iterator8Iterator4nextB26_, symObjAddr: 0x39F0, symBinAddr: 0x46610, symSize: 0x80 }
  - { offset: 0x8C964, size: 0x8, addend: 0x0, symName: __RNvXs0_NtNtNtCsieiGu2EXtoJ_4core4iter8adapters3mapINtB5_3MapINtNtCsdGrGZaRBwMb_3syn10punctuated4IterNtNtB11_4data7VariantENCNvXs1_NtCs9E08dBcDM90_15zerocopy_derive4utilNtNtB11_6derive8DataEnumNtB24_7DataExt6fields0ENtNtNtB9_6traits8iterator8Iterator9size_hintB26_, symObjAddr: 0x3A70, symBinAddr: 0x46690, symSize: 0x30 }
  - { offset: 0x8C9AB, size: 0x8, addend: 0x0, symName: __RNvXs0_NtNtNtCsieiGu2EXtoJ_4core4iter8adapters3mapINtB5_3MapINtNtCsdGrGZaRBwMb_3syn10punctuated4IterNtNtB11_4data7VariantENCNvXs1_NtCs9E08dBcDM90_15zerocopy_derive4utilNtNtB11_6derive8DataEnumNtB24_7DataExt8variants0ENtNtNtB9_6traits8iterator8Iterator4nextB26_, symObjAddr: 0x3AA0, symBinAddr: 0x466C0, symSize: 0xB0 }
  - { offset: 0x8CA58, size: 0x8, addend: 0x0, symName: __RNvXs0_NtNtNtCsieiGu2EXtoJ_4core4iter8adapters3mapINtB5_3MapINtNtCsdGrGZaRBwMb_3syn10punctuated4IterNtNtB11_4data7VariantENCNvXs1_NtCs9E08dBcDM90_15zerocopy_derive4utilNtNtB11_6derive8DataEnumNtB24_7DataExt8variants0ENtNtNtB9_6traits8iterator8Iterator9size_hintB26_, symObjAddr: 0x3B50, symBinAddr: 0x46770, symSize: 0x30 }
  - { offset: 0x8CA9F, size: 0x8, addend: 0x0, symName: __RNvXs0_NtNtNtCsieiGu2EXtoJ_4core4iter8adapters3mapINtB5_3MapINtNtCsdGrGZaRBwMb_3syn10punctuated4IterNtNtB11_8generics12GenericParamENCNvMs8_NtCs9E08dBcDM90_15zerocopy_derive4utilNtB2e_16ImplBlockBuilder5builds3_0ENtNtNtB9_6traits8iterator8Iterator4nextB2g_, symObjAddr: 0x3B80, symBinAddr: 0x467A0, symSize: 0xB0 }
  - { offset: 0x8CB4C, size: 0x8, addend: 0x0, symName: __RNvXs0_NtNtNtCsieiGu2EXtoJ_4core4iter8adapters3mapINtB5_3MapINtNtCsdGrGZaRBwMb_3syn10punctuated8IntoIterNtNtB11_8generics12GenericParamENCNvMs8_NtCs9E08dBcDM90_15zerocopy_derive4utilNtB2i_16ImplBlockBuilder5builds1_0ENtNtNtB9_6traits8iterator8Iterator4nextB2k_, symObjAddr: 0x3C30, symBinAddr: 0x46850, symSize: 0xF0 }
  - { offset: 0x8CBFB, size: 0x8, addend: 0x0, symName: __RNvXs0_NtNtNtCsieiGu2EXtoJ_4core4iter8adapters3mapINtB5_3MapINtNtCsdGrGZaRBwMb_3syn10punctuated8IntoIterNtNtB11_8generics12GenericParamENCNvMs8_NtCs9E08dBcDM90_15zerocopy_derive4utilNtB2i_16ImplBlockBuilder5builds1_0ENtNtNtB9_6traits8iterator8Iterator9size_hintB2k_, symObjAddr: 0x3D20, symBinAddr: 0x46940, symSize: 0x30 }
  - { offset: 0x8CC42, size: 0x8, addend: 0x0, symName: __RNvXs0_NtNtNtCsieiGu2EXtoJ_4core4iter8adapters3mapINtB5_3MapINtNtNtBb_5array4iter8IntoIterNtCsaKzlTDPUHDb_11proc_macro211TokenStreamKj2_ENCINvXsb_B1s_B1q_INtNtNtB9_6traits7collect12FromIteratorB1q_E9from_iterBW_E0ENtNtB2x_8iterator8Iterator4nextCs9E08dBcDM90_15zerocopy_derive, symObjAddr: 0x3D50, symBinAddr: 0x46970, symSize: 0x120 }
  - { offset: 0x8CCF0, size: 0x8, addend: 0x0, symName: __RNvXs0_NtNtNtCsieiGu2EXtoJ_4core4iter8adapters3mapINtB5_3MapINtNtNtBb_5array4iter8IntoIterNtCsaKzlTDPUHDb_11proc_macro211TokenStreamKj2_ENCINvXsb_B1s_B1q_INtNtNtB9_6traits7collect12FromIteratorB1q_E9from_iterBW_E0ENtNtB2x_8iterator8Iterator9size_hintCs9E08dBcDM90_15zerocopy_derive, symObjAddr: 0x3E70, symBinAddr: 0x46A90, symSize: 0x30 }
  - { offset: 0x8CD37, size: 0x8, addend: 0x0, symName: __RNvXs0_NtNtNtCsieiGu2EXtoJ_4core4iter8adapters3mapINtB5_3MapINtNtNtBb_5slice4iter4IterNtNtCs9E08dBcDM90_15zerocopy_derive4util10TraitBoundENCNvB1o_16normalize_bounds0ENtNtNtB9_6traits8iterator8Iterator4nextB1q_, symObjAddr: 0x3EA0, symBinAddr: 0x46AC0, symSize: 0xA0 }
  - { offset: 0x8CDE4, size: 0x8, addend: 0x0, symName: __RNvXs0_NtNtNtCsieiGu2EXtoJ_4core4iter8adapters3mapINtB5_3MapINtNtNtBb_5slice4iter4IterNtNtCsdGrGZaRBwMb_3syn8generics12GenericParamENCNvMs8_NtCs9E08dBcDM90_15zerocopy_derive4utilNtB2e_16ImplBlockBuilder5builds2_0ENtNtNtB9_6traits8iterator8Iterator9size_hintB2g_, symObjAddr: 0x3F40, symBinAddr: 0x46B60, symSize: 0x30 }
  - { offset: 0x8CE2B, size: 0x8, addend: 0x0, symName: __RNvXs0_NtNtNtCsieiGu2EXtoJ_4core4iter8adapters3mapINtB5_3MapINtNtNtBb_5slice4iter4IterTINtNtBb_6option6OptionRNtNtCsdGrGZaRBwMb_3syn4data7VariantEINtNtCslJiobkLta79_5alloc3vec3VecTRNtNtB1O_11restriction10VisibilityNtCsaKzlTDPUHDb_11proc_macro211TokenStreamRNtNtB1O_2ty4TypeEEEENCNCNvMs8_NtCs9E08dBcDM90_15zerocopy_derive4utilNtB4B_16ImplBlockBuilder5builds_0s0_0ENtNtNtB9_6traits8iterator8Iterator4nextB4D_, symObjAddr: 0x3F70, symBinAddr: 0x46B90, symSize: 0xB0 }
  - { offset: 0x8CED8, size: 0x8, addend: 0x0, symName: __RNvXs0_NtNtNtCsieiGu2EXtoJ_4core4iter8adapters3mapINtB5_3MapINtNtNtBb_5slice4iter4IterTRNtNtCsdGrGZaRBwMb_3syn11restriction10VisibilityNtCsaKzlTDPUHDb_11proc_macro211TokenStreamRNtNtB1s_2ty4TypeEENCNCNCNvMs8_NtCs9E08dBcDM90_15zerocopy_derive4utilNtB3k_16ImplBlockBuilder5builds_0s0_00ENtNtNtB9_6traits8iterator8Iterator4nextB3m_, symObjAddr: 0x4020, symBinAddr: 0x46C40, symSize: 0x80 }
  - { offset: 0x8CF84, size: 0x8, addend: 0x0, symName: __RNvXs0_NtNtNtCsieiGu2EXtoJ_4core4iter8adapters3mapINtB5_3MapINtNtNtBb_5slice4iter4IterTRNtNtCsdGrGZaRBwMb_3syn11restriction10VisibilityNtCsaKzlTDPUHDb_11proc_macro211TokenStreamRNtNtB1s_2ty4TypeEENCNCNvNtNtCs9E08dBcDM90_15zerocopy_derive6derive14try_from_bytes27derive_try_from_bytes_unions_00ENtNtNtB9_6traits8iterator8Iterator4nextB3i_, symObjAddr: 0x40A0, symBinAddr: 0x46CC0, symSize: 0x80 }
  - { offset: 0x8D030, size: 0x8, addend: 0x0, symName: __RNvXs0_NtNtNtCsieiGu2EXtoJ_4core4iter8adapters3mapINtB5_3MapINtNtNtBb_5slice4iter4IterTRNtNtCsdGrGZaRBwMb_3syn11restriction10VisibilityNtCsaKzlTDPUHDb_11proc_macro211TokenStreamRNtNtB1s_2ty4TypeEENCNCNvNtNtCs9E08dBcDM90_15zerocopy_derive6derive14try_from_bytes27derive_try_from_bytes_unions_0s_0ENtNtNtB9_6traits8iterator8Iterator4nextB3i_, symObjAddr: 0x4120, symBinAddr: 0x46D40, symSize: 0x80 }
  - { offset: 0x8D0DC, size: 0x8, addend: 0x0, symName: __RNvXs0_NtNtNtCsieiGu2EXtoJ_4core4iter8adapters3mapINtB5_3MapINtNtNtBb_5slice4iter4IterTRNtNtCsdGrGZaRBwMb_3syn11restriction10VisibilityNtCsaKzlTDPUHDb_11proc_macro211TokenStreamRNtNtB1s_2ty4TypeEENCNCNvNtNtCs9E08dBcDM90_15zerocopy_derive6derive14try_from_bytes28derive_try_from_bytes_struct00ENtNtNtB9_6traits8iterator8Iterator4nextB3i_, symObjAddr: 0x41A0, symBinAddr: 0x46DC0, symSize: 0x80 }
  - { offset: 0x8D188, size: 0x8, addend: 0x0, symName: __RNvXs0_NtNtNtCsieiGu2EXtoJ_4core4iter8adapters3mapINtB5_3MapINtNtNtBb_5slice4iter4IterTRNtNtCsdGrGZaRBwMb_3syn11restriction10VisibilityNtCsaKzlTDPUHDb_11proc_macro211TokenStreamRNtNtB1s_2ty4TypeEENCNCNvNtNtCs9E08dBcDM90_15zerocopy_derive6derive14try_from_bytes28derive_try_from_bytes_struct0s_0ENtNtNtB9_6traits8iterator8Iterator4nextB3i_, symObjAddr: 0x4220, symBinAddr: 0x46E40, symSize: 0x80 }
  - { offset: 0x8D234, size: 0x8, addend: 0x0, symName: __RNvXs0_NtNtNtCsieiGu2EXtoJ_4core4iter8adapters3mapINtB5_3MapINtNtNtBb_5slice4iter4IterTRNtNtCsdGrGZaRBwMb_3syn11restriction10VisibilityNtCsaKzlTDPUHDb_11proc_macro211TokenStreamRNtNtB1s_2ty4TypeEENCNvMs8_NtCs9E08dBcDM90_15zerocopy_derive4utilNtB3g_16ImplBlockBuilder5build0ENtNtNtB9_6traits8iterator8Iterator9size_hintB3i_, symObjAddr: 0x42A0, symBinAddr: 0x46EC0, symSize: 0x30 }
  - { offset: 0x8D27B, size: 0x8, addend: 0x0, symName: __RNvXs0_NtNtNtCsieiGu2EXtoJ_4core4iter8adapters3mapINtB5_3MapINtNtNtBb_5slice4iter4IterTRNtNtCsdGrGZaRBwMb_3syn11restriction10VisibilityNtCsaKzlTDPUHDb_11proc_macro211TokenStreamRNtNtB1s_2ty4TypeEENCNvNtNtCs9E08dBcDM90_15zerocopy_derive6derive12known_layout37derive_known_layout_for_repr_c_struct0ENtNtNtB9_6traits8iterator8Iterator4nextB3g_, symObjAddr: 0x42D0, symBinAddr: 0x46EF0, symSize: 0x80 }
  - { offset: 0x8D327, size: 0x8, addend: 0x0, symName: __RNvXs0_NtNtNtCsieiGu2EXtoJ_4core4iter8adapters3mapINtB5_3MapINtNtNtBb_5slice4iter4IterTRNtNtCsdGrGZaRBwMb_3syn11restriction10VisibilityNtCsaKzlTDPUHDb_11proc_macro211TokenStreamRNtNtB1s_2ty4TypeEENCNvNtNtCs9E08dBcDM90_15zerocopy_derive6derive12known_layout37derive_known_layout_for_repr_c_structs5_0ENtNtNtB9_6traits8iterator8Iterator9size_hintB3g_, symObjAddr: 0x4350, symBinAddr: 0x46F70, symSize: 0x30 }
  - { offset: 0x8D36E, size: 0x8, addend: 0x0, symName: __RNvXs0_NtNtNtCsieiGu2EXtoJ_4core4iter8adapters3mapINtB5_3MapINtNtNtBb_5slice4iter4IterTRNtNtCsdGrGZaRBwMb_3syn11restriction10VisibilityNtCsaKzlTDPUHDb_11proc_macro211TokenStreamRNtNtB1s_2ty4TypeEENCNvNtNtCs9E08dBcDM90_15zerocopy_derive6derive12known_layout37derive_known_layout_for_repr_c_structs8_0ENtNtNtB9_6traits8iterator8Iterator4nextB3g_, symObjAddr: 0x4380, symBinAddr: 0x46FA0, symSize: 0xA0 }
  - { offset: 0x8D41A, size: 0x8, addend: 0x0, symName: __RNvXs0_NtNtNtCsieiGu2EXtoJ_4core4iter8adapters3mapINtB5_3MapINtNtNtBb_5slice4iter4IterTRNtNtCsdGrGZaRBwMb_3syn11restriction10VisibilityNtCsaKzlTDPUHDb_11proc_macro211TokenStreamRNtNtB1s_2ty4TypeEENCNvNtNtCs9E08dBcDM90_15zerocopy_derive6derive14try_from_bytes29derive_has_field_struct_union0ENtNtNtB9_6traits8iterator8Iterator4nextB3g_, symObjAddr: 0x4420, symBinAddr: 0x47040, symSize: 0xB0 }
  - { offset: 0x8D4C7, size: 0x8, addend: 0x0, symName: __RNvXs0_NtNtNtCsieiGu2EXtoJ_4core4iter8adapters3mapINtB5_3MapINtNtNtBb_5slice4iter4IterTRNtNtCsdGrGZaRBwMb_3syn11restriction10VisibilityNtCsaKzlTDPUHDb_11proc_macro211TokenStreamRNtNtB1s_2ty4TypeEENCNvNtNtCs9E08dBcDM90_15zerocopy_derive6derive14try_from_bytes29derive_has_field_struct_unions0_0ENtNtNtB9_6traits8iterator8Iterator4nextB3g_, symObjAddr: 0x44D0, symBinAddr: 0x470F0, symSize: 0xB0 }
  - { offset: 0x8D574, size: 0x8, addend: 0x0, symName: __RNvXs0_NtNtNtCsieiGu2EXtoJ_4core4iter8adapters3mapINtB5_3MapINtNtNtCslJiobkLta79_5alloc3vec9into_iter8IntoIterTINtNtBb_6option6OptionRNtNtCsdGrGZaRBwMb_3syn4data7VariantEINtB11_3VecTRNtNtB2c_11restriction10VisibilityNtCsaKzlTDPUHDb_11proc_macro211TokenStreamRNtNtB2c_2ty4TypeEEEENCNvNtNtCs9E08dBcDM90_15zerocopy_derive6derive14try_from_bytes19derive_is_bit_valid0ENtNtNtB9_6traits8iterator8Iterator4nextB4B_, symObjAddr: 0x4580, symBinAddr: 0x471A0, symSize: 0x120 }
  - { offset: 0x8D730, size: 0x8, addend: 0x0, symName: __RNCINvNtNtNtCsieiGu2EXtoJ_4core4iter8adapters3map8map_foldNtCsaKzlTDPUHDb_11proc_macro211TokenStreamNtNtBW_3imp11TokenStreamuNCINvXsb_BW_BU_INtNtNtB8_6traits7collect12FromIteratorBU_E9from_iterINtNtNtBa_5array4iter8IntoIterBU_Kj2_EE0NCIB2_B1A_NtCscKtU6MdFI5n_10proc_macro11TokenStreamuNCINvXs6_B1C_B1A_IB2f_B1A_E9from_iterINtB4_3MapB35_B1Z_EE0NCINvNvNtNtB2j_8iterator8Iterator8for_each4callB3T_NCINvXsj_B3V_B3T_INtB2h_6ExtendB3T_E6extendIB5b_B5a_B4z_EE0E0E0E0Cs9E08dBcDM90_15zerocopy_derive, symObjAddr: 0x1910, symBinAddr: 0x44530, symSize: 0xC0 }
  - { offset: 0x8D7B6, size: 0x8, addend: 0x0, symName: __RNCINvNtNtNtCsieiGu2EXtoJ_4core4iter8adapters3map8map_foldNtNtCsaKzlTDPUHDb_11proc_macro23imp11TokenStreamNtCscKtU6MdFI5n_10proc_macro11TokenStreamuNCINvXs6_BW_BU_INtNtNtB8_6traits7collect12FromIteratorBU_E9from_iterINtB4_3MapINtNtNtBa_5array4iter8IntoIterNtBY_11TokenStreamKj2_ENCINvXsb_BY_B46_IB2C_B46_E9from_iterB3C_E0EE0NCINvNvNtNtB2G_8iterator8Iterator8for_each4callB1G_NCINvXsj_B1I_B1G_INtB2E_6ExtendB1G_E6extendIB3t_B3s_B2m_EE0E0E0Cs9E08dBcDM90_15zerocopy_derive, symObjAddr: 0x19D0, symBinAddr: 0x445F0, symSize: 0x80 }
  - { offset: 0x8D83C, size: 0x8, addend: 0x0, symName: __RNCINvNtNtNtCsieiGu2EXtoJ_4core4iter8adapters3map8map_foldRNtNtCsdGrGZaRBwMb_3syn8generics12GenericParamluNCNvMs8_NtCs9E08dBcDM90_15zerocopy_derive4utilNtB1O_16ImplBlockBuilder5builds2_0NCINvNvXs_NtB6_9enumerateINtB38_9EnumeratepENtNtNtB8_6traits8iterator8Iterator4fold9enumerateluNCIB2_TjlETljEuNCINvMNtCslJiobkLta79_5alloc5sliceSBV_18sort_by_cached_keylB1G_Es_0NCINvNvB3G_8for_each4callB4F_NCINvMsi_NtB4S_3vecINtB6r_3VecB4F_E14extend_trustedINtB4_3MapIB3o_IB78_INtNtNtBa_5slice4iter4IterBV_EB1G_EEB4K_EE0E0E0E0E0B1Q_, symObjAddr: 0x1A50, symBinAddr: 0x44670, symSize: 0x60 }
  - { offset: 0x8D8C1, size: 0x8, addend: 0x0, symName: __RNCINvNtNtNtCsieiGu2EXtoJ_4core4iter8adapters3map8map_foldRNtNtCsdGrGZaRBwMb_3syn8generics12GenericParamluNCNvMs8_NtCs9E08dBcDM90_15zerocopy_derive4utilNtB1O_16ImplBlockBuilder5builds2_0NCINvNvXs_NtB6_9enumerateINtB38_9EnumeratepENtNtNtB8_6traits8iterator8Iterator4fold9enumerateluNCIB2_TjlETlmEuNCINvMNtCslJiobkLta79_5alloc5sliceSBV_18sort_by_cached_keylB1G_E0NCINvNvB3G_8for_each4callB4F_NCINvMsi_NtB4S_3vecINtB6p_3VecB4F_E14extend_trustedINtB4_3MapIB3o_IB76_INtNtNtBa_5slice4iter4IterBV_EB1G_EEB4K_EE0E0E0E0E0B1Q_, symObjAddr: 0x1AB0, symBinAddr: 0x446D0, symSize: 0x60 }
  - { offset: 0x8D946, size: 0x8, addend: 0x0, symName: __RNCINvNtNtNtCsieiGu2EXtoJ_4core4iter8adapters3map8map_foldRTRNtNtCsdGrGZaRBwMb_3syn11restriction10VisibilityNtCsaKzlTDPUHDb_11proc_macro211TokenStreamRNtNtB11_2ty4TypeENtB1K_5IdentuNCNvNtNtCs9E08dBcDM90_15zerocopy_derive6derive12known_layout37derive_known_layout_for_repr_c_structs5_0NCINvNvNtNtNtB8_6traits8iterator8Iterator8for_each4callB2G_NCINvMsi_NtCslJiobkLta79_5alloc3vecINtB5E_3VecB2G_E14extend_trustedINtB4_3MapINtNtNtBa_5slice4iter4IterBV_EB2T_EE0E0E0B31_, symObjAddr: 0x1B10, symBinAddr: 0x44730, symSize: 0x80 }
  - { offset: 0x8D9CB, size: 0x8, addend: 0x0, symName: __RNCINvNtNtNtCsieiGu2EXtoJ_4core4iter8adapters3map8map_foldRTRNtNtCsdGrGZaRBwMb_3syn11restriction10VisibilityNtCsaKzlTDPUHDb_11proc_macro211TokenStreamRNtNtB11_2ty4TypeENtNtB11_8generics14WherePredicateuNCNvMs8_NtCs9E08dBcDM90_15zerocopy_derive4utilNtB3m_16ImplBlockBuilder5build0NCINvNvNtNtNtB8_6traits8iterator8Iterator8for_each4callB2G_NCINvMsi_NtCslJiobkLta79_5alloc3vecINtB5z_3VecB2G_E14extend_trustedINtB4_3MapINtNtNtBa_5slice4iter4IterBV_EB3e_EE0E0E0B3o_, symObjAddr: 0x1B90, symBinAddr: 0x447B0, symSize: 0xA0 }
  - { offset: 0x8DA50, size: 0x8, addend: 0x0, symName: __RNCINvNtNtNtCsieiGu2EXtoJ_4core4iter8adapters3map8map_foldTjlETljEuNCINvMNtCslJiobkLta79_5alloc5sliceSNtNtCsdGrGZaRBwMb_3syn8generics12GenericParam18sort_by_cached_keylNCNvMs8_NtCs9E08dBcDM90_15zerocopy_derive4utilNtB2O_16ImplBlockBuilder5builds2_0Es_0NCINvNvNtNtNtB8_6traits8iterator8Iterator8for_each4callBY_NCINvMsi_NtB1b_3vecINtB57_3VecBY_E14extend_trustedINtB4_3MapINtNtB6_9enumerate9EnumerateIB5N_INtNtNtBa_5slice4iter4IterB1C_EB2G_EEB13_EE0E0E0B2Q_, symObjAddr: 0x1C30, symBinAddr: 0x44850, symSize: 0x70 }
  - { offset: 0x8DAD5, size: 0x8, addend: 0x0, symName: __RNCINvNtNtNtCsieiGu2EXtoJ_4core4iter8adapters3map8map_foldTjlETlmEuNCINvMNtCslJiobkLta79_5alloc5sliceSNtNtCsdGrGZaRBwMb_3syn8generics12GenericParam18sort_by_cached_keylNCNvMs8_NtCs9E08dBcDM90_15zerocopy_derive4utilNtB2O_16ImplBlockBuilder5builds2_0E0NCINvNvNtNtNtB8_6traits8iterator8Iterator8for_each4callBY_NCINvMsi_NtB1b_3vecINtB55_3VecBY_E14extend_trustedINtB4_3MapINtNtB6_9enumerate9EnumerateIB5L_INtNtNtBa_5slice4iter4IterB1C_EB2G_EEB13_EE0E0E0B2Q_, symObjAddr: 0x1CA0, symBinAddr: 0x448C0, symSize: 0x70 }
  - { offset: 0x8DF3E, size: 0x8, addend: 0x0, symName: __RNvXsb_NtNtNtCsieiGu2EXtoJ_4core4iter8adapters3mapINtB5_3MapINtNtNtBb_5slice4iter4IterTRNtNtCsdGrGZaRBwMb_3syn11restriction10VisibilityNtCsaKzlTDPUHDb_11proc_macro211TokenStreamRNtNtB1s_2ty4TypeEENCNvNtNtCs9E08dBcDM90_15zerocopy_derive6derive12known_layout37derive_known_layout_for_repr_c_struct0ENtNtBb_5clone5Clone5cloneB3g_, symObjAddr: 0x4710, symBinAddr: 0x47330, symSize: 0x60 }
  - { offset: 0x8EBEF, size: 0x8, addend: 0x0, symName: __RINvYINtNtNtNtCsieiGu2EXtoJ_4core4iter8adapters3map3MapIB4_INtNtNtBc_5array4iter8IntoIterNtCsaKzlTDPUHDb_11proc_macro211TokenStreamKj2_ENCINvXsb_B1r_B1p_INtNtNtBa_6traits7collect12FromIteratorB1p_E9from_iterBV_E0ENCINvXs6_NtB1r_3impNtB3y_11TokenStreamIB2s_B3I_E9from_iterBR_E0ENtNtB2w_8iterator8Iterator8for_eachNCINvXsj_CscKtU6MdFI5n_10proc_macroNtB59_11TokenStreamINtB2u_6ExtendB5z_E6extendB3_E0ECs9E08dBcDM90_15zerocopy_derive, symObjAddr: 0x1120, symBinAddr: 0x43D40, symSize: 0x20 }
  - { offset: 0x8EC3B, size: 0x8, addend: 0x0, symName: __RINvYINtNtNtNtCsieiGu2EXtoJ_4core4iter8adapters3map3MapINtNtB8_9enumerate9EnumerateIB4_INtNtNtBc_5slice4iter4IterNtNtCsdGrGZaRBwMb_3syn8generics12GenericParamENCNvMs8_NtCs9E08dBcDM90_15zerocopy_derive4utilNtB2F_16ImplBlockBuilder5builds2_0EENCINvMNtCslJiobkLta79_5alloc5sliceSB1N_18sort_by_cached_keylB2x_E0ENtNtNtBa_6traits8iterator8Iterator7collectINtNtB3Z_3vec3VecTlmEEEB2H_, symObjAddr: 0x1140, symBinAddr: 0x43D60, symSize: 0x70 }
  - { offset: 0x8ECD1, size: 0x8, addend: 0x0, symName: __RINvYINtNtNtNtCsieiGu2EXtoJ_4core4iter8adapters3map3MapINtNtB8_9enumerate9EnumerateIB4_INtNtNtBc_5slice4iter4IterNtNtCsdGrGZaRBwMb_3syn8generics12GenericParamENCNvMs8_NtCs9E08dBcDM90_15zerocopy_derive4utilNtB2F_16ImplBlockBuilder5builds2_0EENCINvMNtCslJiobkLta79_5alloc5sliceSB1N_18sort_by_cached_keylB2x_E0ENtNtNtBa_6traits8iterator8Iterator8for_eachNCINvMsi_NtB3Z_3vecINtB5M_3VecTlmEE14extend_trustedB3_E0EB2H_, symObjAddr: 0x11B0, symBinAddr: 0x43DD0, symSize: 0x30 }
  - { offset: 0x8ED3C, size: 0x8, addend: 0x0, symName: __RINvYINtNtNtNtCsieiGu2EXtoJ_4core4iter8adapters3map3MapINtNtB8_9enumerate9EnumerateIB4_INtNtNtBc_5slice4iter4IterNtNtCsdGrGZaRBwMb_3syn8generics12GenericParamENCNvMs8_NtCs9E08dBcDM90_15zerocopy_derive4utilNtB2F_16ImplBlockBuilder5builds2_0EENCINvMNtCslJiobkLta79_5alloc5sliceSB1N_18sort_by_cached_keylB2x_Es_0ENtNtNtBa_6traits8iterator8Iterator7collectINtNtB3Z_3vec3VecTljEEEB2H_, symObjAddr: 0x11E0, symBinAddr: 0x43E00, symSize: 0x70 }
  - { offset: 0x8EDD2, size: 0x8, addend: 0x0, symName: __RINvYINtNtNtNtCsieiGu2EXtoJ_4core4iter8adapters3map3MapINtNtB8_9enumerate9EnumerateIB4_INtNtNtBc_5slice4iter4IterNtNtCsdGrGZaRBwMb_3syn8generics12GenericParamENCNvMs8_NtCs9E08dBcDM90_15zerocopy_derive4utilNtB2F_16ImplBlockBuilder5builds2_0EENCINvMNtCslJiobkLta79_5alloc5sliceSB1N_18sort_by_cached_keylB2x_Es_0ENtNtNtBa_6traits8iterator8Iterator8for_eachNCINvMsi_NtB3Z_3vecINtB5O_3VecTljEE14extend_trustedB3_E0EB2H_, symObjAddr: 0x1250, symBinAddr: 0x43E70, symSize: 0x30 }
  - { offset: 0x8EE3D, size: 0x8, addend: 0x0, symName: __RINvYINtNtNtNtCsieiGu2EXtoJ_4core4iter8adapters3map3MapINtNtB8_9enumerate9EnumerateINtNtB8_7flatten7FlatMapINtNtCsdGrGZaRBwMb_3syn10punctuated4IterNtNtB1M_4data7VariantERNtB2n_6FieldsNCNvXs1_NtCs9E08dBcDM90_15zerocopy_derive4utilNtNtB1M_6derive8DataEnumNtB33_7DataExt6fields0EENCINvB33_10map_fieldsB1j_E0ENtNtNtBa_6traits8iterator8Iterator7collectINtNtCslJiobkLta79_5alloc3vec3VecTRNtNtB1M_11restriction10VisibilityNtCsaKzlTDPUHDb_11proc_macro211TokenStreamRNtNtB1M_2ty4TypeEEEB35_, symObjAddr: 0x1280, symBinAddr: 0x43EA0, symSize: 0x90 }
  - { offset: 0x8EED3, size: 0x8, addend: 0x0, symName: __RINvYINtNtNtNtCsieiGu2EXtoJ_4core4iter8adapters3map3MapINtNtB8_9enumerate9EnumerateINtNtCsdGrGZaRBwMb_3syn10punctuated4IterNtNtB1o_4data5FieldEENCINvNtCs9E08dBcDM90_15zerocopy_derive4util10map_fieldsRINtB1m_10PunctuatedB1X_NtNtB1o_5token5CommaEE0ENtNtNtBa_6traits8iterator8Iterator7collectINtNtCslJiobkLta79_5alloc3vec3VecTRNtNtB1o_11restriction10VisibilityNtCsaKzlTDPUHDb_11proc_macro211TokenStreamRNtNtB1o_2ty4TypeEEEB2p_, symObjAddr: 0x1310, symBinAddr: 0x43F30, symSize: 0x70 }
  - { offset: 0x8EF69, size: 0x8, addend: 0x0, symName: __RINvYINtNtNtNtCsieiGu2EXtoJ_4core4iter8adapters3map3MapINtNtB8_9enumerate9EnumerateINtNtCsdGrGZaRBwMb_3syn10punctuated4IterNtNtB1o_4data5FieldEENCINvNtCs9E08dBcDM90_15zerocopy_derive4util10map_fieldsRNtB1Z_6FieldsE0ENtNtNtBa_6traits8iterator8Iterator7collectINtNtCslJiobkLta79_5alloc3vec3VecTRNtNtB1o_11restriction10VisibilityNtCsaKzlTDPUHDb_11proc_macro211TokenStreamRNtNtB1o_2ty4TypeEEEB2p_, symObjAddr: 0x1380, symBinAddr: 0x43FA0, symSize: 0x70 }
  - { offset: 0x8EFFF, size: 0x8, addend: 0x0, symName: __RINvYINtNtNtNtCsieiGu2EXtoJ_4core4iter8adapters3map3MapINtNtCsdGrGZaRBwMb_3syn10punctuated4IterNtNtBW_4data5FieldENCNvNtNtCs9E08dBcDM90_15zerocopy_derive6derive10from_bytes22derive_from_zeros_enum0ENtNtNtBa_6traits8iterator8Iterator7collectINtNtCslJiobkLta79_5alloc3vec3VecNtNtBW_8generics14WherePredicateEEB1W_, symObjAddr: 0x13F0, symBinAddr: 0x44010, symSize: 0x70 }
  - { offset: 0x8F095, size: 0x8, addend: 0x0, symName: __RINvYINtNtNtNtCsieiGu2EXtoJ_4core4iter8adapters3map3MapINtNtCsdGrGZaRBwMb_3syn10punctuated4IterNtNtBW_4data7VariantENCNvXs1_NtCs9E08dBcDM90_15zerocopy_derive4utilNtNtBW_6derive8DataEnumNtB1Y_7DataExt8variants0ENtNtNtBa_6traits8iterator8Iterator7collectINtNtCslJiobkLta79_5alloc3vec3VecTINtNtBc_6option6OptionRB1v_EIB43_TRNtNtBW_11restriction10VisibilityNtCsaKzlTDPUHDb_11proc_macro211TokenStreamRNtNtBW_2ty4TypeEEEEEB20_, symObjAddr: 0x1460, symBinAddr: 0x44080, symSize: 0x60 }
  - { offset: 0x8F12A, size: 0x8, addend: 0x0, symName: __RINvYINtNtNtNtCsieiGu2EXtoJ_4core4iter8adapters3map3MapINtNtCsdGrGZaRBwMb_3syn10punctuated8IntoIterNtNtBW_8generics12GenericParamENCNvMs8_NtCs9E08dBcDM90_15zerocopy_derive4utilNtB2c_16ImplBlockBuilder5builds1_0ENtNtNtBa_6traits8iterator8Iterator5chainINtNtCslJiobkLta79_5alloc3vec3VecB1z_EEB2e_, symObjAddr: 0x14C0, symBinAddr: 0x440E0, symSize: 0x130 }
  - { offset: 0x8F1A4, size: 0x8, addend: 0x0, symName: __RINvYINtNtNtNtCsieiGu2EXtoJ_4core4iter8adapters3map3MapINtNtNtBc_5array4iter8IntoIterNtCsaKzlTDPUHDb_11proc_macro211TokenStreamKj2_ENCINvXsb_B1n_B1l_INtNtNtBa_6traits7collect12FromIteratorB1l_E9from_iterBR_E0ENtNtB2s_8iterator8Iterator3mapNtCscKtU6MdFI5n_10proc_macro11TokenStreamNCINvXs6_NtB1n_3impNtB4D_11TokenStreamIB2o_B4N_E9from_iterB3_E0ECs9E08dBcDM90_15zerocopy_derive, symObjAddr: 0x15F0, symBinAddr: 0x44210, symSize: 0x30 }
  - { offset: 0x8F212, size: 0x8, addend: 0x0, symName: __RINvYINtNtNtNtCsieiGu2EXtoJ_4core4iter8adapters3map3MapINtNtNtBc_5array4iter8IntoIterNtCsaKzlTDPUHDb_11proc_macro211TokenStreamKj2_ENCINvXsb_B1n_B1l_INtNtNtBa_6traits7collect12FromIteratorB1l_E9from_iterBR_E0ENtNtB2s_8iterator8Iterator3mapNtNtB1n_8fallback11TokenStreamNCINvXs6_NtB1n_3impNtB4s_11TokenStreamIB2o_B4C_E9from_iterB3_Es_0ECs9E08dBcDM90_15zerocopy_derive, symObjAddr: 0x1620, symBinAddr: 0x44240, symSize: 0x30 }
  - { offset: 0x8F280, size: 0x8, addend: 0x0, symName: __RINvYINtNtNtNtCsieiGu2EXtoJ_4core4iter8adapters3map3MapINtNtNtBc_5array4iter8IntoIterNtCsaKzlTDPUHDb_11proc_macro211TokenStreamKj2_ENCINvXsb_B1n_B1l_INtNtNtBa_6traits7collect12FromIteratorB1l_E9from_iterBR_E0ENtNtB2s_8iterator8Iterator7collectNtNtB1n_3imp11TokenStreamECs9E08dBcDM90_15zerocopy_derive, symObjAddr: 0x1650, symBinAddr: 0x44270, symSize: 0x70 }
  - { offset: 0x8F316, size: 0x8, addend: 0x0, symName: __RINvYINtNtNtNtCsieiGu2EXtoJ_4core4iter8adapters3map3MapINtNtNtBc_5slice4iter4IterNtNtCs9E08dBcDM90_15zerocopy_derive4util10TraitBoundENCNvB1j_16normalize_bounds0ENtNtNtBa_6traits8iterator8Iterator3mapNtNtCsdGrGZaRBwMb_3syn4path4PathNCINvNvMs8_B1j_NtB1j_16ImplBlockBuilder5build8bound_ttB3_E0EB1l_, symObjAddr: 0x16C0, symBinAddr: 0x442E0, symSize: 0x30 }
  - { offset: 0x8F383, size: 0x8, addend: 0x0, symName: __RINvYINtNtNtNtCsieiGu2EXtoJ_4core4iter8adapters3map3MapINtNtNtBc_5slice4iter4IterTRNtNtCsdGrGZaRBwMb_3syn11restriction10VisibilityNtCsaKzlTDPUHDb_11proc_macro211TokenStreamRNtNtB1n_2ty4TypeEENCNvMs8_NtCs9E08dBcDM90_15zerocopy_derive4utilNtB3b_16ImplBlockBuilder5build0ENtNtNtBa_6traits8iterator8Iterator7collectINtNtCslJiobkLta79_5alloc3vec3VecNtNtB1n_8generics14WherePredicateEEB3d_, symObjAddr: 0x16F0, symBinAddr: 0x44310, symSize: 0x80 }
  - { offset: 0x8F419, size: 0x8, addend: 0x0, symName: __RINvYINtNtNtNtCsieiGu2EXtoJ_4core4iter8adapters3map3MapINtNtNtBc_5slice4iter4IterTRNtNtCsdGrGZaRBwMb_3syn11restriction10VisibilityNtCsaKzlTDPUHDb_11proc_macro211TokenStreamRNtNtB1n_2ty4TypeEENCNvMs8_NtCs9E08dBcDM90_15zerocopy_derive4utilNtB3b_16ImplBlockBuilder5build0ENtNtNtBa_6traits8iterator8Iterator8for_eachNCINvMsi_NtCslJiobkLta79_5alloc3vecINtB59_3VecNtNtB1n_8generics14WherePredicateE14extend_trustedB3_E0EB3d_, symObjAddr: 0x1770, symBinAddr: 0x44390, symSize: 0x30 }
  - { offset: 0x8F484, size: 0x8, addend: 0x0, symName: __RINvYINtNtNtNtCsieiGu2EXtoJ_4core4iter8adapters3map3MapINtNtNtBc_5slice4iter4IterTRNtNtCsdGrGZaRBwMb_3syn11restriction10VisibilityNtCsaKzlTDPUHDb_11proc_macro211TokenStreamRNtNtB1n_2ty4TypeEENCNvNtNtCs9E08dBcDM90_15zerocopy_derive6derive12known_layout37derive_known_layout_for_repr_c_structs5_0ENtNtNtBa_6traits8iterator8Iterator7collectINtNtCslJiobkLta79_5alloc3vec3VecNtB26_5IdentEEB3b_, symObjAddr: 0x17A0, symBinAddr: 0x443C0, symSize: 0x70 }
  - { offset: 0x8F51A, size: 0x8, addend: 0x0, symName: __RINvYINtNtNtNtCsieiGu2EXtoJ_4core4iter8adapters3map3MapINtNtNtBc_5slice4iter4IterTRNtNtCsdGrGZaRBwMb_3syn11restriction10VisibilityNtCsaKzlTDPUHDb_11proc_macro211TokenStreamRNtNtB1n_2ty4TypeEENCNvNtNtCs9E08dBcDM90_15zerocopy_derive6derive12known_layout37derive_known_layout_for_repr_c_structs5_0ENtNtNtBa_6traits8iterator8Iterator8for_eachNCINvMsi_NtCslJiobkLta79_5alloc3vecINtB5z_3VecNtB26_5IdentE14extend_trustedB3_E0EB3b_, symObjAddr: 0x1810, symBinAddr: 0x44430, symSize: 0x30 }
  - { offset: 0x8F585, size: 0x8, addend: 0x0, symName: __RINvYINtNtNtNtCsieiGu2EXtoJ_4core4iter8adapters3map3MapINtNtNtBc_5slice4iter4IterTRNtNtCsdGrGZaRBwMb_3syn11restriction10VisibilityNtCsaKzlTDPUHDb_11proc_macro211TokenStreamRNtNtB1n_2ty4TypeEENCNvNtNtCs9E08dBcDM90_15zerocopy_derive6derive14try_from_bytes29derive_has_field_struct_union0ENtNtNtBa_6traits8iterator8Iterator5chainINtNtBc_6option6OptionB24_EEB3b_, symObjAddr: 0x1840, symBinAddr: 0x44460, symSize: 0xD0 }
  - { offset: 0x8F5FD, size: 0x8, addend: 0x0, symName: __RNvYINtNtNtNtCsieiGu2EXtoJ_4core4iter8adapters3map3MapIB3_INtNtNtBb_5array4iter8IntoIterNtCsaKzlTDPUHDb_11proc_macro211TokenStreamKj2_ENCINvXsb_B1q_B1o_INtNtNtB9_6traits7collect12FromIteratorB1o_E9from_iterBU_E0ENCINvXs6_NtB1q_3impNtB3x_11TokenStreamIB2r_B3H_E9from_iterBQ_Es_0ENtNtB2v_8iterator8Iterator4fuseCs9E08dBcDM90_15zerocopy_derive, symObjAddr: 0x4880, symBinAddr: 0x474A0, symSize: 0x50 }
  - { offset: 0x8F64A, size: 0x8, addend: 0x0, symName: __RNvYINtNtNtNtCsieiGu2EXtoJ_4core4iter8adapters3map3MapIB3_INtNtNtBb_5array4iter8IntoIterNtCsaKzlTDPUHDb_11proc_macro211TokenStreamKj2_ENCINvXsb_B1q_B1o_INtNtNtB9_6traits7collect12FromIteratorB1o_E9from_iterBU_E0ENCINvXs6_NtB1q_3impNtB3x_11TokenStreamIB2r_B3H_E9from_iterBQ_Es_0ENtNtB2v_8iterator8Iterator7flattenCs9E08dBcDM90_15zerocopy_derive, symObjAddr: 0x48D0, symBinAddr: 0x474F0, symSize: 0xC0 }
  - { offset: 0x8F6BF, size: 0x8, addend: 0x0, symName: __RNvYINtNtNtNtCsieiGu2EXtoJ_4core4iter8adapters3map3MapINtNtB7_5chain5ChainIBR_IB3_INtNtNtBb_5slice4iter4IterTRNtNtCsdGrGZaRBwMb_3syn11restriction10VisibilityNtCsaKzlTDPUHDb_11proc_macro211TokenStreamRNtNtB1O_2ty4TypeEENCNvNtNtCs9E08dBcDM90_15zerocopy_derive6derive14try_from_bytes29derive_has_field_struct_union0EINtNtBb_6option8IntoIterB2v_EEIB3_B1i_NCB3w_s0_0EENcNtINtB54_6OptionB2v_E4Some0ENtNtNtB9_6traits8iterator8Iterator4fuseB3C_, symObjAddr: 0x4A20, symBinAddr: 0x47640, symSize: 0x60 }
  - { offset: 0x8F70C, size: 0x8, addend: 0x0, symName: __RNvYINtNtNtNtCsieiGu2EXtoJ_4core4iter8adapters3map3MapINtNtB7_5chain5ChainIBR_IB3_INtNtNtBb_5slice4iter4IterTRNtNtCsdGrGZaRBwMb_3syn11restriction10VisibilityNtCsaKzlTDPUHDb_11proc_macro211TokenStreamRNtNtB1O_2ty4TypeEENCNvNtNtCs9E08dBcDM90_15zerocopy_derive6derive14try_from_bytes29derive_has_field_struct_union0EINtNtBb_6option8IntoIterB2v_EEIB3_B1i_NCB3w_s0_0EENcNtINtB54_6OptionB2v_E4Some0ENtNtNtB9_6traits8iterator8Iterator7flattenB3C_, symObjAddr: 0x4A80, symBinAddr: 0x476A0, symSize: 0xD0 }
  - { offset: 0x8F78D, size: 0x8, addend: 0x0, symName: __RNvXNtNtNtCsieiGu2EXtoJ_4core4iter6traits7collectINtNtNtB6_8adapters3map3MapIBM_INtNtNtB8_5array4iter8IntoIterNtCsaKzlTDPUHDb_11proc_macro211TokenStreamKj2_ENCINvXsb_B1M_B1K_INtB2_12FromIteratorB1K_E9from_iterB1g_E0ENCINvXs6_NtB1M_3impNtB3B_11TokenStreamIB2N_B3L_E9from_iterB1c_E0ENtB2_12IntoIterator9into_iterCs9E08dBcDM90_15zerocopy_derive, symObjAddr: 0x29B0, symBinAddr: 0x455D0, symSize: 0x30 }
  - { offset: 0x8F7C5, size: 0x8, addend: 0x0, symName: __RNvXNtNtNtCsieiGu2EXtoJ_4core4iter6traits7collectINtNtNtB6_8adapters3map3MapIBM_INtNtNtB8_5array4iter8IntoIterNtCsaKzlTDPUHDb_11proc_macro211TokenStreamKj2_ENCINvXsb_B1M_B1K_INtB2_12FromIteratorB1K_E9from_iterB1g_E0ENCINvXs6_NtB1M_3impNtB3B_11TokenStreamIB2N_B3L_E9from_iterB1c_Es_0ENtB2_12IntoIterator9into_iterCs9E08dBcDM90_15zerocopy_derive, symObjAddr: 0x29E0, symBinAddr: 0x45600, symSize: 0x30 }
  - { offset: 0x8F7FD, size: 0x8, addend: 0x0, symName: __RNvXNtNtNtCsieiGu2EXtoJ_4core4iter6traits7collectINtNtNtB6_8adapters3map3MapINtNtBQ_5chain5ChainIB1d_IBM_INtNtNtB8_5slice4iter4IterTRNtNtCsdGrGZaRBwMb_3syn11restriction10VisibilityNtCsaKzlTDPUHDb_11proc_macro211TokenStreamRNtNtB2b_2ty4TypeEENCNvNtNtCs9E08dBcDM90_15zerocopy_derive6derive14try_from_bytes29derive_has_field_struct_union0EINtNtB8_6option8IntoIterB2S_EEIBM_B1F_NCB3T_s0_0EENcNtINtB5r_6OptionB2S_E4Some0ENtB2_12IntoIterator9into_iterB3Z_, symObjAddr: 0x2A10, symBinAddr: 0x45630, symSize: 0x30 }
  - { offset: 0x8F835, size: 0x8, addend: 0x0, symName: __RNvXNtNtNtCsieiGu2EXtoJ_4core4iter6traits7collectINtNtNtB6_8adapters3map3MapINtNtBQ_9enumerate9EnumerateIBM_INtNtNtB8_5slice4iter4IterNtNtCsdGrGZaRBwMb_3syn8generics12GenericParamENCNvMs8_NtCs9E08dBcDM90_15zerocopy_derive4utilNtB30_16ImplBlockBuilder5builds2_0EENCINvMNtCslJiobkLta79_5alloc5sliceSB28_18sort_by_cached_keylB2S_E0ENtB2_12IntoIterator9into_iterB32_, symObjAddr: 0x2A40, symBinAddr: 0x45660, symSize: 0x20 }
  - { offset: 0x8F86C, size: 0x8, addend: 0x0, symName: __RNvXNtNtNtCsieiGu2EXtoJ_4core4iter6traits7collectINtNtNtB6_8adapters3map3MapINtNtBQ_9enumerate9EnumerateIBM_INtNtNtB8_5slice4iter4IterNtNtCsdGrGZaRBwMb_3syn8generics12GenericParamENCNvMs8_NtCs9E08dBcDM90_15zerocopy_derive4utilNtB30_16ImplBlockBuilder5builds2_0EENCINvMNtCslJiobkLta79_5alloc5sliceSB28_18sort_by_cached_keylB2S_Es_0ENtB2_12IntoIterator9into_iterB32_, symObjAddr: 0x2A60, symBinAddr: 0x45680, symSize: 0x20 }
  - { offset: 0x8F8A3, size: 0x8, addend: 0x0, symName: __RNvXNtNtNtCsieiGu2EXtoJ_4core4iter6traits7collectINtNtNtB6_8adapters3map3MapINtNtBQ_9enumerate9EnumerateINtNtBQ_7flatten7FlatMapINtNtCsdGrGZaRBwMb_3syn10punctuated4IterNtNtB27_4data7VariantERNtB2I_6FieldsNCNvXs1_NtCs9E08dBcDM90_15zerocopy_derive4utilNtNtB27_6derive8DataEnumNtB3o_7DataExt6fields0EENCINvB3o_10map_fieldsB1E_E0ENtB2_12IntoIterator9into_iterB3q_, symObjAddr: 0x2A80, symBinAddr: 0x456A0, symSize: 0x30 }
  - { offset: 0x8F8DB, size: 0x8, addend: 0x0, symName: __RNvXNtNtNtCsieiGu2EXtoJ_4core4iter6traits7collectINtNtNtB6_8adapters3map3MapINtNtBQ_9enumerate9EnumerateINtNtCsdGrGZaRBwMb_3syn10punctuated4IterNtNtB1J_4data5FieldEENCINvNtCs9E08dBcDM90_15zerocopy_derive4util10map_fieldsRINtB1H_10PunctuatedB2i_NtNtB1J_5token5CommaEE0ENtB2_12IntoIterator9into_iterB2K_, symObjAddr: 0x2AB0, symBinAddr: 0x456D0, symSize: 0x20 }
  - { offset: 0x8F912, size: 0x8, addend: 0x0, symName: __RNvXNtNtNtCsieiGu2EXtoJ_4core4iter6traits7collectINtNtNtB6_8adapters3map3MapINtNtBQ_9enumerate9EnumerateINtNtCsdGrGZaRBwMb_3syn10punctuated4IterNtNtB1J_4data5FieldEENCINvNtCs9E08dBcDM90_15zerocopy_derive4util10map_fieldsRNtB2k_6FieldsE0ENtB2_12IntoIterator9into_iterB2K_, symObjAddr: 0x2AD0, symBinAddr: 0x456F0, symSize: 0x20 }
  - { offset: 0x8F949, size: 0x8, addend: 0x0, symName: __RNvXNtNtNtCsieiGu2EXtoJ_4core4iter6traits7collectINtNtNtB6_8adapters3map3MapINtNtBQ_9enumerate9EnumerateINtNtNtCslJiobkLta79_5alloc3vec9into_iter8IntoIterTRNtNtCsdGrGZaRBwMb_3syn11restriction10VisibilityNtCsaKzlTDPUHDb_11proc_macro211TokenStreamRNtNtB2y_2ty4TypeEEENCNCNvNtNtCs9E08dBcDM90_15zerocopy_derive6derive14try_from_bytes19derive_is_bit_valid00ENtB2_12IntoIterator9into_iterB4p_, symObjAddr: 0x2AF0, symBinAddr: 0x45710, symSize: 0x30 }
  - { offset: 0x8F981, size: 0x8, addend: 0x0, symName: __RNvXNtNtNtCsieiGu2EXtoJ_4core4iter6traits7collectINtNtNtB6_8adapters3map3MapINtNtCsdGrGZaRBwMb_3syn10punctuated4IterNtNtB1h_4data5FieldENCNvNtNtCs9E08dBcDM90_15zerocopy_derive6derive10from_bytes22derive_from_zeros_enum0ENtB2_12IntoIterator9into_iterB2i_, symObjAddr: 0x2B20, symBinAddr: 0x45740, symSize: 0x20 }
  - { offset: 0x8F9B8, size: 0x8, addend: 0x0, symName: __RNvXNtNtNtCsieiGu2EXtoJ_4core4iter6traits7collectINtNtNtB6_8adapters3map3MapINtNtCsdGrGZaRBwMb_3syn10punctuated4IterNtNtB1h_4data7VariantENCNvXs1_NtCs9E08dBcDM90_15zerocopy_derive4utilNtNtB1h_6derive8DataEnumNtB2k_7DataExt8variants0ENtB2_12IntoIterator9into_iterB2m_, symObjAddr: 0x2B40, symBinAddr: 0x45760, symSize: 0x20 }
  - { offset: 0x8F9EF, size: 0x8, addend: 0x0, symName: __RNvXNtNtNtCsieiGu2EXtoJ_4core4iter6traits7collectINtNtNtB6_8adapters3map3MapINtNtNtB8_5array4iter8IntoIterNtCsaKzlTDPUHDb_11proc_macro211TokenStreamKj2_ENCINvXsb_B1I_B1G_INtB2_12FromIteratorB1G_E9from_iterB1c_E0ENtB2_12IntoIterator9into_iterCs9E08dBcDM90_15zerocopy_derive, symObjAddr: 0x2B60, symBinAddr: 0x45780, symSize: 0x30 }
  - { offset: 0x8FA27, size: 0x8, addend: 0x0, symName: __RNvXNtNtNtCsieiGu2EXtoJ_4core4iter6traits7collectINtNtNtB6_8adapters3map3MapINtNtNtB8_5slice4iter4IterTRNtNtCsdGrGZaRBwMb_3syn11restriction10VisibilityNtCsaKzlTDPUHDb_11proc_macro211TokenStreamRNtNtB1I_2ty4TypeEENCNvMs8_NtCs9E08dBcDM90_15zerocopy_derive4utilNtB3w_16ImplBlockBuilder5build0ENtB2_12IntoIterator9into_iterB3y_, symObjAddr: 0x2B90, symBinAddr: 0x457B0, symSize: 0x30 }
  - { offset: 0x8FA5F, size: 0x8, addend: 0x0, symName: __RNvXNtNtNtCsieiGu2EXtoJ_4core4iter6traits7collectINtNtNtB6_8adapters3map3MapINtNtNtB8_5slice4iter4IterTRNtNtCsdGrGZaRBwMb_3syn11restriction10VisibilityNtCsaKzlTDPUHDb_11proc_macro211TokenStreamRNtNtB1I_2ty4TypeEENCNvNtNtCs9E08dBcDM90_15zerocopy_derive6derive12known_layout37derive_known_layout_for_repr_c_structs5_0ENtB2_12IntoIterator9into_iterB3w_, symObjAddr: 0x2BC0, symBinAddr: 0x457E0, symSize: 0x20 }
  - { offset: 0x8FA96, size: 0x8, addend: 0x0, symName: __RNvXNtNtNtCsieiGu2EXtoJ_4core4iter6traits7collectINtNtNtB6_8adapters3map3MapINtNtNtB8_5slice4iter4IterTRNtNtCsdGrGZaRBwMb_3syn11restriction10VisibilityNtCsaKzlTDPUHDb_11proc_macro211TokenStreamRNtNtB1I_2ty4TypeEENCNvNtNtCs9E08dBcDM90_15zerocopy_derive6derive14try_from_bytes29derive_has_field_struct_union0ENtB2_12IntoIterator9into_iterB3w_, symObjAddr: 0x2BE0, symBinAddr: 0x45800, symSize: 0x20 }
  - { offset: 0x8FACD, size: 0x8, addend: 0x0, symName: __RNvXNtNtNtCsieiGu2EXtoJ_4core4iter6traits7collectINtNtNtB6_8adapters3map3MapINtNtNtB8_5slice4iter4IterTRNtNtCsdGrGZaRBwMb_3syn11restriction10VisibilityNtCsaKzlTDPUHDb_11proc_macro211TokenStreamRNtNtB1I_2ty4TypeEENCNvNtNtCs9E08dBcDM90_15zerocopy_derive6derive14try_from_bytes29derive_has_field_struct_unions0_0ENtB2_12IntoIterator9into_iterB3w_, symObjAddr: 0x2C00, symBinAddr: 0x45820, symSize: 0x30 }
  - { offset: 0x93BFD, size: 0x8, addend: 0x0, symName: __RNvNvMs1_NtNtCsieiGu2EXtoJ_4core3ptr8non_nullINtB7_7NonNullpE13new_unchecked18precondition_checkCs9E08dBcDM90_15zerocopy_derive, symObjAddr: 0x2370, symBinAddr: 0x44F90, symSize: 0x90 }
  - { offset: 0x94A8A, size: 0x8, addend: 0x0, symName: __RNvMNtCsieiGu2EXtoJ_4core5sliceSNtNtCsdGrGZaRBwMb_3syn8generics12GenericParam4iterCs9E08dBcDM90_15zerocopy_derive, symObjAddr: 0x1D90, symBinAddr: 0x449B0, symSize: 0x20 }
  - { offset: 0x94AC1, size: 0x8, addend: 0x0, symName: __RNvMNtCsieiGu2EXtoJ_4core5sliceSNtNtCsdGrGZaRBwMb_3syn8generics14WherePredicate4iterCs9E08dBcDM90_15zerocopy_derive, symObjAddr: 0x1DB0, symBinAddr: 0x449D0, symSize: 0x20 }
  - { offset: 0x94BC3, size: 0x8, addend: 0x0, symName: __RNvNvNtNtCsieiGu2EXtoJ_4core5slice3raw14from_raw_parts18precondition_checkCs9E08dBcDM90_15zerocopy_derive, symObjAddr: 0x2400, symBinAddr: 0x45020, symSize: 0x260 }
  - { offset: 0x94D91, size: 0x8, addend: 0x0, symName: __RNvNvNtNtCsieiGu2EXtoJ_4core5slice3raw18from_raw_parts_mut18precondition_checkCs9E08dBcDM90_15zerocopy_derive, symObjAddr: 0x2660, symBinAddr: 0x45280, symSize: 0x260 }
  - { offset: 0x95243, size: 0x8, addend: 0x0, symName: __RNvXs1c_NtNtCsieiGu2EXtoJ_4core3cmp5implslNtB8_10PartialOrd13___chaining_ltCs9E08dBcDM90_15zerocopy_derive, symObjAddr: 0x46A0, symBinAddr: 0x472C0, symSize: 0x40 }
  - { offset: 0x95902, size: 0x8, addend: 0x0, symName: __RNvMNtNtCsieiGu2EXtoJ_4core4char7methodsc8to_digitCs9E08dBcDM90_15zerocopy_derive, symObjAddr: 0x1DD0, symBinAddr: 0x449F0, symSize: 0xF0 }
  - { offset: 0x959CE, size: 0x8, addend: 0x0, symName: __RNvNtNtCsieiGu2EXtoJ_4core4char7methods25encode_utf8_raw_uncheckedCs9E08dBcDM90_15zerocopy_derive, symObjAddr: 0x2230, symBinAddr: 0x44E50, symSize: 0x140 }
  - { offset: 0x95CFC, size: 0x8, addend: 0x0, symName: __RNvXsd_NtCsieiGu2EXtoJ_4core5tupleTljENtNtB7_3cmp10PartialOrd2ltCs9E08dBcDM90_15zerocopy_derive, symObjAddr: 0x4770, symBinAddr: 0x47390, symSize: 0x90 }
  - { offset: 0x95D8A, size: 0x8, addend: 0x0, symName: __RNvXsd_NtCsieiGu2EXtoJ_4core5tupleTlmENtNtB7_3cmp10PartialOrd2ltCs9E08dBcDM90_15zerocopy_derive, symObjAddr: 0x4800, symBinAddr: 0x47420, symSize: 0x80 }
  - { offset: 0x9AD22, size: 0x8, addend: 0x0, symName: __RNvXs0_NtCsdGrGZaRBwMb_3syn5dropsINtB5_6NoDropDINtNtB7_10punctuated9IterTraitNtNtB7_4data7VariantEp4ItemRB1d_EL_ENtNtNtCsieiGu2EXtoJ_4core3ops5deref8DerefMut9deref_mutCs9E08dBcDM90_15zerocopy_derive, symObjAddr: 0x2C30, symBinAddr: 0x45850, symSize: 0x30 }
  - { offset: 0x9AD57, size: 0x8, addend: 0x0, symName: __RNvXs0_NtCsdGrGZaRBwMb_3syn5dropsINtB5_6NoDropDINtNtB7_10punctuated9IterTraitNtNtB7_8generics14WherePredicateEp4ItemRB1d_EL_ENtNtNtCsieiGu2EXtoJ_4core3ops5deref8DerefMut9deref_mutCs9E08dBcDM90_15zerocopy_derive, symObjAddr: 0x2C60, symBinAddr: 0x45880, symSize: 0x30 }
  - { offset: 0x9AD92, size: 0x8, addend: 0x0, symName: __RNvXs_NtCsdGrGZaRBwMb_3syn5dropsINtB4_6NoDropDINtNtB6_10punctuated9IterTraitNtNtB6_4data7VariantEp4ItemRB1c_EL_ENtNtNtCsieiGu2EXtoJ_4core3ops5deref5Deref5derefCs9E08dBcDM90_15zerocopy_derive, symObjAddr: 0x46E0, symBinAddr: 0x47300, symSize: 0x30 }
  - { offset: 0x9AE4B, size: 0x8, addend: 0x0, symName: __RNvXNtCsdGrGZaRBwMb_3syn11parse_quoteNtNtB4_8generics12GenericParamNtB2_10ParseQuote5parseCs9E08dBcDM90_15zerocopy_derive, symObjAddr: 0x2950, symBinAddr: 0x45570, symSize: 0x30 }
  - { offset: 0x9AE80, size: 0x8, addend: 0x0, symName: __RNvXNtCsdGrGZaRBwMb_3syn11parse_quoteNtNtB4_8generics14WherePredicateNtB2_10ParseQuote5parseCs9E08dBcDM90_15zerocopy_derive, symObjAddr: 0x2980, symBinAddr: 0x455A0, symSize: 0x30 }
  - { offset: 0x9C81B, size: 0x8, addend: 0x0, symName: __RINvMNtCslJiobkLta79_5alloc5sliceSNtNtCsdGrGZaRBwMb_3syn8generics12GenericParam18sort_by_cached_keylNCNvMs8_NtCs9E08dBcDM90_15zerocopy_derive4utilNtB1I_16ImplBlockBuilder5builds2_0EB1K_, symObjAddr: 0x0, symBinAddr: 0x42C20, symSize: 0xE30 }
  - { offset: 0x9D90A, size: 0x8, addend: 0x0, symName: __RINvMNtCslJiobkLta79_5alloc5sliceSNtNtCsdGrGZaRBwMb_3syn8generics12GenericParam8into_vecNtNtB5_5alloc6GlobalECs9E08dBcDM90_15zerocopy_derive, symObjAddr: 0xE30, symBinAddr: 0x43A50, symSize: 0x40 }
  - { offset: 0x9D9B4, size: 0x8, addend: 0x0, symName: __RINvMNtCslJiobkLta79_5alloc5sliceSNtNtCsdGrGZaRBwMb_3syn8generics14WherePredicate8into_vecNtNtB5_5alloc6GlobalECs9E08dBcDM90_15zerocopy_derive, symObjAddr: 0xE70, symBinAddr: 0x43A90, symSize: 0x40 }
  - { offset: 0x9F04A, size: 0x8, addend: 0x0, symName: __RNvMNtCsdGrGZaRBwMb_3syn5dropsINtB2_6NoDropINtNtB4_10punctuated11PrivateIterNtNtB4_4data7VariantNtNtB4_5token5CommaEE3newCs9E08dBcDM90_15zerocopy_derive, symObjAddr: 0x1D10, symBinAddr: 0x44930, symSize: 0x40 }
  - { offset: 0x9F0D4, size: 0x8, addend: 0x0, symName: __RNvMNtCsdGrGZaRBwMb_3syn5dropsINtB2_6NoDropINtNtB4_10punctuated11PrivateIterNtNtB4_8generics14WherePredicateNtNtB4_5token5CommaEE3newCs9E08dBcDM90_15zerocopy_derive, symObjAddr: 0x1D50, symBinAddr: 0x44970, symSize: 0x40 }
  - { offset: 0x9F158, size: 0x8, addend: 0x0, symName: __RNvMs1_NtNtCsieiGu2EXtoJ_4core3ptr8non_nullINtB5_7NonNullNtCsaKzlTDPUHDb_11proc_macro25IdentE20offset_from_unsignedCs9E08dBcDM90_15zerocopy_derive, symObjAddr: 0x1EC0, symBinAddr: 0x44AE0, symSize: 0x70 }
  - { offset: 0x9F262, size: 0x8, addend: 0x0, symName: __RNvMs1_NtNtCsieiGu2EXtoJ_4core3ptr8non_nullINtB5_7NonNullNtNtCsdGrGZaRBwMb_3syn4attr4MetaE20offset_from_unsignedCs9E08dBcDM90_15zerocopy_derive, symObjAddr: 0x1F30, symBinAddr: 0x44B50, symSize: 0x70 }
  - { offset: 0x9F352, size: 0x8, addend: 0x0, symName: __RNvMs1_NtNtCsieiGu2EXtoJ_4core3ptr8non_nullINtB5_7NonNullNtNtCsdGrGZaRBwMb_3syn8generics12GenericParamE20offset_from_unsignedCs9E08dBcDM90_15zerocopy_derive, symObjAddr: 0x1FA0, symBinAddr: 0x44BC0, symSize: 0x70 }
  - { offset: 0x9F47A, size: 0x8, addend: 0x0, symName: __RNvMs1_NtNtCsieiGu2EXtoJ_4core3ptr8non_nullINtB5_7NonNullTINtNtB9_6option6OptionRNtNtCsdGrGZaRBwMb_3syn4data7VariantEINtNtCslJiobkLta79_5alloc3vec3VecTRNtNtB1l_11restriction10VisibilityNtCsaKzlTDPUHDb_11proc_macro211TokenStreamRNtNtB1l_2ty4TypeEEEE20offset_from_unsignedCs9E08dBcDM90_15zerocopy_derive, symObjAddr: 0x2010, symBinAddr: 0x44C30, symSize: 0x60 }
  - { offset: 0x9F5A2, size: 0x8, addend: 0x0, symName: __RNvMs1_NtNtCsieiGu2EXtoJ_4core3ptr8non_nullINtB5_7NonNullTNtNtCsdGrGZaRBwMb_3syn4attr4MetaNtNtBY_5token5CommaEE20offset_from_unsignedCs9E08dBcDM90_15zerocopy_derive, symObjAddr: 0x2070, symBinAddr: 0x44C90, symSize: 0x70 }
  - { offset: 0x9F69F, size: 0x8, addend: 0x0, symName: __RNvMs1_NtNtCsieiGu2EXtoJ_4core3ptr8non_nullINtB5_7NonNullTNtNtCsdGrGZaRBwMb_3syn4data7VariantNtNtBY_5token5CommaEE20offset_from_unsignedCs9E08dBcDM90_15zerocopy_derive, symObjAddr: 0x20E0, symBinAddr: 0x44D00, symSize: 0x70 }
  - { offset: 0x9F79C, size: 0x8, addend: 0x0, symName: __RNvMs1_NtNtCsieiGu2EXtoJ_4core3ptr8non_nullINtB5_7NonNullTNtNtCsdGrGZaRBwMb_3syn8generics14WherePredicateNtNtBY_5token5CommaEE20offset_from_unsignedCs9E08dBcDM90_15zerocopy_derive, symObjAddr: 0x2150, symBinAddr: 0x44D70, symSize: 0x70 }
  - { offset: 0x9F899, size: 0x8, addend: 0x0, symName: __RNvMs1_NtNtCsieiGu2EXtoJ_4core3ptr8non_nullINtB5_7NonNullTRNtNtCsdGrGZaRBwMb_3syn11restriction10VisibilityNtCsaKzlTDPUHDb_11proc_macro211TokenStreamRNtNtBZ_2ty4TypeEE20offset_from_unsignedCs9E08dBcDM90_15zerocopy_derive, symObjAddr: 0x21C0, symBinAddr: 0x44DE0, symSize: 0x70 }
  - { offset: 0x9F9D7, size: 0x8, addend: 0x0, symName: __RNvXNtCs9OU1sGv5X54_5quote9to_tokensRNtNtCsdGrGZaRBwMb_3syn8generics11WhereClauseNtB2_8ToTokens9to_tokensCs9E08dBcDM90_15zerocopy_derive, symObjAddr: 0x28C0, symBinAddr: 0x454E0, symSize: 0x30 }
  - { offset: 0x9FA16, size: 0x8, addend: 0x0, symName: __RNvXNtCs9OU1sGv5X54_5quote9to_tokensRNtNtCsdGrGZaRBwMb_3syn8generics12TypeGenericsNtB2_8ToTokens9to_tokensCs9E08dBcDM90_15zerocopy_derive, symObjAddr: 0x28F0, symBinAddr: 0x45510, symSize: 0x30 }
  - { offset: 0x9FA55, size: 0x8, addend: 0x0, symName: __RNvXNtCs9OU1sGv5X54_5quote9to_tokensRNtNtCsdGrGZaRBwMb_3syn8generics8GenericsNtB2_8ToTokens9to_tokensCs9E08dBcDM90_15zerocopy_derive, symObjAddr: 0x2920, symBinAddr: 0x45540, symSize: 0x30 }
  - { offset: 0x9FAA5, size: 0x8, addend: 0x0, symName: __RNvYINtNtNtNtCsieiGu2EXtoJ_4core4iter8adapters3map3MapIB3_INtNtNtBb_5slice4iter4IterNtNtCs9E08dBcDM90_15zerocopy_derive4util10TraitBoundENCNvB1m_16normalize_bounds0ENCINvNvMs8_B1m_NtB1m_16ImplBlockBuilder5build8bound_ttBQ_E0ENtNtNtCs9OU1sGv5X54_5quote9___private3ext14RepIteratorExt15quote_into_iterB1o_, symObjAddr: 0x4990, symBinAddr: 0x475B0, symSize: 0x30 }
  - { offset: 0x9FADA, size: 0x8, addend: 0x0, symName: __RNvYINtNtNtNtCsieiGu2EXtoJ_4core4iter8adapters3map3MapINtNtB7_3zip3ZipINtNtNtBb_5slice4iter4IterNtCsaKzlTDPUHDb_11proc_macro25IdentEIB17_TRNtNtCsdGrGZaRBwMb_3syn11restriction10VisibilityNtB1y_11TokenStreamRNtNtB2h_2ty4TypeEEENCNvNtNtCs9E08dBcDM90_15zerocopy_derive6derive12known_layout37derive_known_layout_for_repr_c_structs6_0ENtNtNtCs9OU1sGv5X54_5quote9___private3ext14RepIteratorExt15quote_into_iterB3J_, symObjAddr: 0x49C0, symBinAddr: 0x475E0, symSize: 0x30 }
  - { offset: 0x9FB10, size: 0x8, addend: 0x0, symName: __RNvYINtNtNtNtCsieiGu2EXtoJ_4core4iter8adapters3map3MapINtNtB7_3zip3ZipINtNtNtBb_5slice4iter4IterNtCsaKzlTDPUHDb_11proc_macro25IdentEIB17_TRNtNtCsdGrGZaRBwMb_3syn11restriction10VisibilityNtB1y_11TokenStreamRNtNtB2h_2ty4TypeEEENCNvNtNtCs9E08dBcDM90_15zerocopy_derive6derive12known_layout37derive_known_layout_for_repr_c_structs7_0ENtNtNtCs9OU1sGv5X54_5quote9___private3ext14RepIteratorExt15quote_into_iterB3J_, symObjAddr: 0x49F0, symBinAddr: 0x47610, symSize: 0x30 }
  - { offset: 0x9FB46, size: 0x8, addend: 0x0, symName: __RNvYINtNtNtNtCsieiGu2EXtoJ_4core4iter8adapters3map3MapINtNtB7_6cloned6ClonedINtNtNtBb_5slice4iter4IterNtNtCs9E08dBcDM90_15zerocopy_derive4util5TraitEENCINvNvMs8_B1E_NtB1E_16ImplBlockBuilder5build8bound_ttBQ_E0ENtNtNtCs9OU1sGv5X54_5quote9___private3ext14RepIteratorExt15quote_into_iterB1G_, symObjAddr: 0x4B50, symBinAddr: 0x47770, symSize: 0x30 }
  - { offset: 0x9FB7B, size: 0x8, addend: 0x0, symName: __RNvYINtNtNtNtCsieiGu2EXtoJ_4core4iter8adapters3map3MapINtNtCsdGrGZaRBwMb_3syn10punctuated4IterNtNtBV_4data5FieldENCNCNvNtNtCs9E08dBcDM90_15zerocopy_derive6derive14try_from_bytes24generate_variant_structs00ENtNtNtCs9OU1sGv5X54_5quote9___private3ext14RepIteratorExt15quote_into_iterB1X_, symObjAddr: 0x4B80, symBinAddr: 0x477A0, symSize: 0x20 }
  - { offset: 0x9FBB0, size: 0x8, addend: 0x0, symName: __RNvYINtNtNtNtCsieiGu2EXtoJ_4core4iter8adapters3map3MapINtNtCsdGrGZaRBwMb_3syn10punctuated4IterNtNtBV_4data7VariantENCNvNtCs9E08dBcDM90_15zerocopy_derive4util17generate_tag_enum0ENtNtNtCs9OU1sGv5X54_5quote9___private3ext14RepIteratorExt15quote_into_iterB1V_, symObjAddr: 0x4BA0, symBinAddr: 0x477C0, symSize: 0x20 }
  - { offset: 0x9FBE5, size: 0x8, addend: 0x0, symName: __RNvYINtNtNtNtCsieiGu2EXtoJ_4core4iter8adapters3map3MapINtNtCsdGrGZaRBwMb_3syn10punctuated4IterNtNtBV_4data7VariantENCNvNtNtCs9E08dBcDM90_15zerocopy_derive6derive14try_from_bytes19derive_is_bit_valids_0ENtNtNtCs9OU1sGv5X54_5quote9___private3ext14RepIteratorExt15quote_into_iterB1X_, symObjAddr: 0x4BC0, symBinAddr: 0x477E0, symSize: 0x30 }
  - { offset: 0x9FC1B, size: 0x8, addend: 0x0, symName: __RNvYINtNtNtNtCsieiGu2EXtoJ_4core4iter8adapters3map3MapINtNtCsdGrGZaRBwMb_3syn10punctuated4IterNtNtBV_4data7VariantENCNvNtNtCs9E08dBcDM90_15zerocopy_derive6derive14try_from_bytes19generate_tag_consts0ENtNtNtCs9OU1sGv5X54_5quote9___private3ext14RepIteratorExt15quote_into_iterB1X_, symObjAddr: 0x4BF0, symBinAddr: 0x47810, symSize: 0x20 }
  - { offset: 0x9FC50, size: 0x8, addend: 0x0, symName: __RNvYINtNtNtNtCsieiGu2EXtoJ_4core4iter8adapters3map3MapINtNtCsdGrGZaRBwMb_3syn10punctuated4IterNtNtBV_8generics12GenericParamENCNvMs8_NtCs9E08dBcDM90_15zerocopy_derive4utilNtB27_16ImplBlockBuilder5builds3_0ENtNtNtCs9OU1sGv5X54_5quote9___private3ext14RepIteratorExt15quote_into_iterB29_, symObjAddr: 0x4C10, symBinAddr: 0x47830, symSize: 0x20 }
  - { offset: 0x9FC85, size: 0x8, addend: 0x0, symName: __RNvYINtNtNtNtCsieiGu2EXtoJ_4core4iter8adapters3map3MapINtNtNtBb_5slice4iter4IterTINtNtBb_6option6OptionRNtNtCsdGrGZaRBwMb_3syn4data7VariantEINtNtCslJiobkLta79_5alloc3vec3VecTRNtNtB1I_11restriction10VisibilityNtCsaKzlTDPUHDb_11proc_macro211TokenStreamRNtNtB1I_2ty4TypeEEEENCNCNvMs8_NtCs9E08dBcDM90_15zerocopy_derive4utilNtB4v_16ImplBlockBuilder5builds_0s0_0ENtNtNtCs9OU1sGv5X54_5quote9___private3ext14RepIteratorExt15quote_into_iterB4x_, symObjAddr: 0x4C30, symBinAddr: 0x47850, symSize: 0x20 }
  - { offset: 0x9FCBA, size: 0x8, addend: 0x0, symName: __RNvYINtNtNtNtCsieiGu2EXtoJ_4core4iter8adapters3map3MapINtNtNtBb_5slice4iter4IterTRNtNtCsdGrGZaRBwMb_3syn11restriction10VisibilityNtCsaKzlTDPUHDb_11proc_macro211TokenStreamRNtNtB1m_2ty4TypeEENCNCNCNvMs8_NtCs9E08dBcDM90_15zerocopy_derive4utilNtB3e_16ImplBlockBuilder5builds_0s0_00ENtNtNtCs9OU1sGv5X54_5quote9___private3ext14RepIteratorExt15quote_into_iterB3g_, symObjAddr: 0x4C50, symBinAddr: 0x47870, symSize: 0x20 }
  - { offset: 0x9FCEF, size: 0x8, addend: 0x0, symName: __RNvYINtNtNtNtCsieiGu2EXtoJ_4core4iter8adapters3map3MapINtNtNtBb_5slice4iter4IterTRNtNtCsdGrGZaRBwMb_3syn11restriction10VisibilityNtCsaKzlTDPUHDb_11proc_macro211TokenStreamRNtNtB1m_2ty4TypeEENCNCNvNtNtCs9E08dBcDM90_15zerocopy_derive6derive14try_from_bytes27derive_try_from_bytes_unions_00ENtNtNtCs9OU1sGv5X54_5quote9___private3ext14RepIteratorExt15quote_into_iterB3c_, symObjAddr: 0x4C70, symBinAddr: 0x47890, symSize: 0x20 }
  - { offset: 0x9FD24, size: 0x8, addend: 0x0, symName: __RNvYINtNtNtNtCsieiGu2EXtoJ_4core4iter8adapters3map3MapINtNtNtBb_5slice4iter4IterTRNtNtCsdGrGZaRBwMb_3syn11restriction10VisibilityNtCsaKzlTDPUHDb_11proc_macro211TokenStreamRNtNtB1m_2ty4TypeEENCNCNvNtNtCs9E08dBcDM90_15zerocopy_derive6derive14try_from_bytes27derive_try_from_bytes_unions_0s_0ENtNtNtCs9OU1sGv5X54_5quote9___private3ext14RepIteratorExt15quote_into_iterB3c_, symObjAddr: 0x4C90, symBinAddr: 0x478B0, symSize: 0x20 }
  - { offset: 0x9FD59, size: 0x8, addend: 0x0, symName: __RNvYINtNtNtNtCsieiGu2EXtoJ_4core4iter8adapters3map3MapINtNtNtBb_5slice4iter4IterTRNtNtCsdGrGZaRBwMb_3syn11restriction10VisibilityNtCsaKzlTDPUHDb_11proc_macro211TokenStreamRNtNtB1m_2ty4TypeEENCNCNvNtNtCs9E08dBcDM90_15zerocopy_derive6derive14try_from_bytes28derive_try_from_bytes_struct00ENtNtNtCs9OU1sGv5X54_5quote9___private3ext14RepIteratorExt15quote_into_iterB3c_, symObjAddr: 0x4CB0, symBinAddr: 0x478D0, symSize: 0x20 }
  - { offset: 0x9FD8E, size: 0x8, addend: 0x0, symName: __RNvYINtNtNtNtCsieiGu2EXtoJ_4core4iter8adapters3map3MapINtNtNtBb_5slice4iter4IterTRNtNtCsdGrGZaRBwMb_3syn11restriction10VisibilityNtCsaKzlTDPUHDb_11proc_macro211TokenStreamRNtNtB1m_2ty4TypeEENCNCNvNtNtCs9E08dBcDM90_15zerocopy_derive6derive14try_from_bytes28derive_try_from_bytes_struct0s_0ENtNtNtCs9OU1sGv5X54_5quote9___private3ext14RepIteratorExt15quote_into_iterB3c_, symObjAddr: 0x4CD0, symBinAddr: 0x478F0, symSize: 0x20 }
  - { offset: 0x9FDC3, size: 0x8, addend: 0x0, symName: __RNvYINtNtNtNtCsieiGu2EXtoJ_4core4iter8adapters3map3MapINtNtNtBb_5slice4iter4IterTRNtNtCsdGrGZaRBwMb_3syn11restriction10VisibilityNtCsaKzlTDPUHDb_11proc_macro211TokenStreamRNtNtB1m_2ty4TypeEENCNvNtNtCs9E08dBcDM90_15zerocopy_derive6derive12known_layout37derive_known_layout_for_repr_c_struct0ENtNtNtCs9OU1sGv5X54_5quote9___private3ext14RepIteratorExt15quote_into_iterB3a_, symObjAddr: 0x4CF0, symBinAddr: 0x47910, symSize: 0x20 }
  - { offset: 0x9FDF8, size: 0x8, addend: 0x0, symName: __RNvYINtNtNtNtCsieiGu2EXtoJ_4core4iter8adapters3map3MapINtNtNtBb_5slice4iter4IterTRNtNtCsdGrGZaRBwMb_3syn11restriction10VisibilityNtCsaKzlTDPUHDb_11proc_macro211TokenStreamRNtNtB1m_2ty4TypeEENCNvNtNtCs9E08dBcDM90_15zerocopy_derive6derive12known_layout37derive_known_layout_for_repr_c_structs8_0ENtNtNtCs9OU1sGv5X54_5quote9___private3ext14RepIteratorExt15quote_into_iterB3a_, symObjAddr: 0x4D10, symBinAddr: 0x47930, symSize: 0x30 }
  - { offset: 0x9FE33, size: 0x8, addend: 0x0, symName: __RNvYNtNtCsdGrGZaRBwMb_3syn8generics12TypeGenericsNtNtNtCs9OU1sGv5X54_5quote9___private3ext14RepToTokensExt15quote_into_iterCs9E08dBcDM90_15zerocopy_derive, symObjAddr: 0x4D40, symBinAddr: 0x47960, symSize: 0x20 }
  - { offset: 0x9FE68, size: 0x8, addend: 0x0, symName: __RNvYNtNtCsdGrGZaRBwMb_3syn8generics12TypeGenericsNtNtNtCs9OU1sGv5X54_5quote9___private3ext14RepToTokensExt4nextCs9E08dBcDM90_15zerocopy_derive, symObjAddr: 0x4D60, symBinAddr: 0x47980, symSize: 0x20 }
  - { offset: 0xA13CA, size: 0x8, addend: 0x0, symName: __RINvMs3_NtNtCscKtU6MdFI5n_10proc_macro6bridge6bufferNtB6_6Buffer17extend_from_arrayKj4_ECs9E08dBcDM90_15zerocopy_derive, symObjAddr: 0x0, symBinAddr: 0x479A0, symSize: 0x1E0 }
  - { offset: 0xA13EC, size: 0x8, addend: 0x0, symName: ___rustc_proc_macro_decls_7057f39a7cfd0a18__, symObjAddr: 0x6830, symBinAddr: 0x233920, symSize: 0x0 }
  - { offset: 0xA13FA, size: 0x8, addend: 0x0, symName: __RNvCs9E08dBcDM90_15zerocopy_derive11derive_hash, symObjAddr: 0x2AB0, symBinAddr: 0x4A450, symSize: 0x370 }
  - { offset: 0xA14F6, size: 0x8, addend: 0x0, symName: __RNvCs9E08dBcDM90_15zerocopy_derive15derive_as_bytes, symObjAddr: 0x2E20, symBinAddr: 0x4A7C0, symSize: 0x20 }
  - { offset: 0xA1522, size: 0x8, addend: 0x0, symName: __RNvCs9E08dBcDM90_15zerocopy_derive15derive_split_at, symObjAddr: 0x2E40, symBinAddr: 0x4A7E0, symSize: 0x370 }
  - { offset: 0xA161E, size: 0x8, addend: 0x0, symName: __RNvCs9E08dBcDM90_15zerocopy_derive16derive_immutable, symObjAddr: 0x31B0, symBinAddr: 0x4AB50, symSize: 0x370 }
  - { offset: 0xA171A, size: 0x8, addend: 0x0, symName: __RNvCs9E08dBcDM90_15zerocopy_derive16derive_unaligned, symObjAddr: 0x3520, symBinAddr: 0x4AEC0, symSize: 0x370 }
  - { offset: 0xA1816, size: 0x8, addend: 0x0, symName: __RNvCs9E08dBcDM90_15zerocopy_derive17derive_from_bytes, symObjAddr: 0x3890, symBinAddr: 0x4B230, symSize: 0x370 }
  - { offset: 0xA1912, size: 0x8, addend: 0x0, symName: __RNvCs9E08dBcDM90_15zerocopy_derive17derive_from_zeros, symObjAddr: 0x3C00, symBinAddr: 0x4B5A0, symSize: 0x370 }
  - { offset: 0xA1A0E, size: 0x8, addend: 0x0, symName: __RNvCs9E08dBcDM90_15zerocopy_derive17derive_into_bytes, symObjAddr: 0x3F70, symBinAddr: 0x4B910, symSize: 0x370 }
  - { offset: 0xA1B0A, size: 0x8, addend: 0x0, symName: __RNvCs9E08dBcDM90_15zerocopy_derive18derive_from_zeroes, symObjAddr: 0x42E0, symBinAddr: 0x4BC80, symSize: 0x20 }
  - { offset: 0xA1B36, size: 0x8, addend: 0x0, symName: __RNvCs9E08dBcDM90_15zerocopy_derive19derive_known_layout, symObjAddr: 0x4300, symBinAddr: 0x4BCA0, symSize: 0x370 }
  - { offset: 0xA1C32, size: 0x8, addend: 0x0, symName: __RNvCs9E08dBcDM90_15zerocopy_derive21derive_try_from_bytes, symObjAddr: 0x4670, symBinAddr: 0x4C010, symSize: 0x370 }
  - { offset: 0xA1D2E, size: 0x8, addend: 0x0, symName: __RNvCs9E08dBcDM90_15zerocopy_derive9derive_eq, symObjAddr: 0x49E0, symBinAddr: 0x4C380, symSize: 0x370 }
  - { offset: 0xA221D, size: 0x8, addend: 0x0, symName: __RNvXs5_NtNtCscKtU6MdFI5n_10proc_macro6bridge6bufferNtB5_6BufferNtNtNtCsieiGu2EXtoJ_4core3ops4drop4Drop4dropCs9E08dBcDM90_15zerocopy_derive, symObjAddr: 0x53B0, symBinAddr: 0x4CD50, symSize: 0xA0 }
  - { offset: 0xA69EF, size: 0x8, addend: 0x0, symName: __RNvMNtCsieiGu2EXtoJ_4core5sliceSTRNtNtCsdGrGZaRBwMb_3syn11restriction10VisibilityNtCsaKzlTDPUHDb_11proc_macro211TokenStreamRNtNtBA_2ty4TypeE10split_lastCs9E08dBcDM90_15zerocopy_derive, symObjAddr: 0x4D50, symBinAddr: 0x4C6F0, symSize: 0x90 }
  - { offset: 0xA6A48, size: 0x8, addend: 0x0, symName: __RNvMNtCsieiGu2EXtoJ_4core5sliceSTRNtNtCsdGrGZaRBwMb_3syn11restriction10VisibilityNtCsaKzlTDPUHDb_11proc_macro211TokenStreamRNtNtBA_2ty4TypeE4iterCs9E08dBcDM90_15zerocopy_derive, symObjAddr: 0x4DE0, symBinAddr: 0x4C780, symSize: 0x20 }
  - { offset: 0xA6A7F, size: 0x8, addend: 0x0, symName: __RNvMNtCsieiGu2EXtoJ_4core5sliceSTRNtNtCsdGrGZaRBwMb_3syn11restriction10VisibilityNtCsaKzlTDPUHDb_11proc_macro211TokenStreamRNtNtBA_2ty4TypeE4lastCs9E08dBcDM90_15zerocopy_derive, symObjAddr: 0x4E00, symBinAddr: 0x4C7A0, symSize: 0x50 }
  - { offset: 0xA6B2A, size: 0x8, addend: 0x0, symName: __RINvNtNtNtNtCsieiGu2EXtoJ_4core5slice4sort8unstable9quicksort34partition_lomuto_branchless_cyclicTljENCINvB2_9quicksortB1x_NvYB1x_NtNtBa_3cmp10PartialOrd2ltE0ECs9E08dBcDM90_15zerocopy_derive, symObjAddr: 0x400, symBinAddr: 0x47DA0, symSize: 0x2D0 }
  - { offset: 0xA6D1F, size: 0x8, addend: 0x0, symName: __RINvNtNtNtNtCsieiGu2EXtoJ_4core5slice4sort8unstable9quicksort34partition_lomuto_branchless_cyclicTljENvYB1x_NtNtBa_3cmp10PartialOrd2ltECs9E08dBcDM90_15zerocopy_derive, symObjAddr: 0x6D0, symBinAddr: 0x48070, symSize: 0x2D0 }
  - { offset: 0xA6F14, size: 0x8, addend: 0x0, symName: __RINvNtNtNtNtCsieiGu2EXtoJ_4core5slice4sort8unstable9quicksort34partition_lomuto_branchless_cyclicTlmENCINvB2_9quicksortB1x_NvYB1x_NtNtBa_3cmp10PartialOrd2ltE0ECs9E08dBcDM90_15zerocopy_derive, symObjAddr: 0x9A0, symBinAddr: 0x48340, symSize: 0x2D0 }
  - { offset: 0xA7109, size: 0x8, addend: 0x0, symName: __RINvNtNtNtNtCsieiGu2EXtoJ_4core5slice4sort8unstable9quicksort34partition_lomuto_branchless_cyclicTlmENvYB1x_NtNtBa_3cmp10PartialOrd2ltECs9E08dBcDM90_15zerocopy_derive, symObjAddr: 0xC70, symBinAddr: 0x48610, symSize: 0x2D0 }
  - { offset: 0xA72FE, size: 0x8, addend: 0x0, symName: __RINvNtNtNtNtCsieiGu2EXtoJ_4core5slice4sort8unstable9quicksort9partitionTljENCINvB2_9quicksortB17_NvYB17_NtNtBa_3cmp10PartialOrd2ltE0ECs9E08dBcDM90_15zerocopy_derive, symObjAddr: 0xF40, symBinAddr: 0x488E0, symSize: 0x230 }
  - { offset: 0xA7413, size: 0x8, addend: 0x0, symName: __RINvNtNtNtNtCsieiGu2EXtoJ_4core5slice4sort8unstable9quicksort9partitionTljENvYB17_NtNtBa_3cmp10PartialOrd2ltECs9E08dBcDM90_15zerocopy_derive, symObjAddr: 0x1170, symBinAddr: 0x48B10, symSize: 0x230 }
  - { offset: 0xA7528, size: 0x8, addend: 0x0, symName: __RINvNtNtNtNtCsieiGu2EXtoJ_4core5slice4sort8unstable9quicksort9partitionTlmENCINvB2_9quicksortB17_NvYB17_NtNtBa_3cmp10PartialOrd2ltE0ECs9E08dBcDM90_15zerocopy_derive, symObjAddr: 0x13A0, symBinAddr: 0x48D40, symSize: 0x230 }
  - { offset: 0xA763D, size: 0x8, addend: 0x0, symName: __RINvNtNtNtNtCsieiGu2EXtoJ_4core5slice4sort8unstable9quicksort9partitionTlmENvYB17_NtNtBa_3cmp10PartialOrd2ltECs9E08dBcDM90_15zerocopy_derive, symObjAddr: 0x15D0, symBinAddr: 0x48F70, symSize: 0x230 }
  - { offset: 0xA7752, size: 0x8, addend: 0x0, symName: __RINvNtNtNtNtCsieiGu2EXtoJ_4core5slice4sort8unstable9quicksort9quicksortTljENvYB17_NtNtBa_3cmp10PartialOrd2ltECs9E08dBcDM90_15zerocopy_derive, symObjAddr: 0x1800, symBinAddr: 0x491A0, symSize: 0x4D0 }
  - { offset: 0xA79CB, size: 0x8, addend: 0x0, symName: __RINvNtNtNtNtCsieiGu2EXtoJ_4core5slice4sort8unstable9quicksort9quicksortTlmENvYB17_NtNtBa_3cmp10PartialOrd2ltECs9E08dBcDM90_15zerocopy_derive, symObjAddr: 0x1CD0, symBinAddr: 0x49670, symSize: 0x4D0 }
  - { offset: 0xA7C49, size: 0x8, addend: 0x0, symName: __RNCINvNtNtNtNtCsieiGu2EXtoJ_4core5slice4sort8unstable9quicksort34partition_lomuto_branchless_cyclicTljENCINvB4_9quicksortB1z_NvYB1z_NtNtBc_3cmp10PartialOrd2ltE0E0Cs9E08dBcDM90_15zerocopy_derive, symObjAddr: 0x21A0, symBinAddr: 0x49B40, symSize: 0x170 }
  - { offset: 0xA7D80, size: 0x8, addend: 0x0, symName: __RNCINvNtNtNtNtCsieiGu2EXtoJ_4core5slice4sort8unstable9quicksort34partition_lomuto_branchless_cyclicTljENvYB1z_NtNtBc_3cmp10PartialOrd2ltE0Cs9E08dBcDM90_15zerocopy_derive, symObjAddr: 0x2310, symBinAddr: 0x49CB0, symSize: 0x170 }
  - { offset: 0xA7EB7, size: 0x8, addend: 0x0, symName: __RNCINvNtNtNtNtCsieiGu2EXtoJ_4core5slice4sort8unstable9quicksort34partition_lomuto_branchless_cyclicTlmENCINvB4_9quicksortB1z_NvYB1z_NtNtBc_3cmp10PartialOrd2ltE0E0Cs9E08dBcDM90_15zerocopy_derive, symObjAddr: 0x2480, symBinAddr: 0x49E20, symSize: 0x160 }
  - { offset: 0xA7FEE, size: 0x8, addend: 0x0, symName: __RNCINvNtNtNtNtCsieiGu2EXtoJ_4core5slice4sort8unstable9quicksort34partition_lomuto_branchless_cyclicTlmENvYB1z_NtNtBc_3cmp10PartialOrd2ltE0Cs9E08dBcDM90_15zerocopy_derive, symObjAddr: 0x25E0, symBinAddr: 0x49F80, symSize: 0x160 }
  - { offset: 0xA81CF, size: 0x8, addend: 0x0, symName: __RNCINvNtNtNtNtCsieiGu2EXtoJ_4core5slice4sort8unstable9quicksort9quicksortTljENvYB19_NtNtBc_3cmp10PartialOrd2ltE0Cs9E08dBcDM90_15zerocopy_derive, symObjAddr: 0x2740, symBinAddr: 0x4A0E0, symSize: 0x40 }
  - { offset: 0xA822C, size: 0x8, addend: 0x0, symName: __RNCINvNtNtNtNtCsieiGu2EXtoJ_4core5slice4sort8unstable9quicksort9quicksortTlmENvYB19_NtNtBc_3cmp10PartialOrd2ltE0Cs9E08dBcDM90_15zerocopy_derive, symObjAddr: 0x2780, symBinAddr: 0x4A120, symSize: 0x40 }
  - { offset: 0xA82B5, size: 0x8, addend: 0x0, symName: __RNvXs_NtNtNtNtCsieiGu2EXtoJ_4core5slice4sort8unstable9quicksortINtB4_11GapGuardRawTljEENtNtNtBc_3ops4drop4Drop4dropCs9E08dBcDM90_15zerocopy_derive, symObjAddr: 0x5D50, symBinAddr: 0x4D6F0, symSize: 0x70 }
  - { offset: 0xA830E, size: 0x8, addend: 0x0, symName: __RNvXs_NtNtNtNtCsieiGu2EXtoJ_4core5slice4sort8unstable9quicksortINtB4_11GapGuardRawTlmEENtNtNtBc_3ops4drop4Drop4dropCs9E08dBcDM90_15zerocopy_derive, symObjAddr: 0x5DC0, symBinAddr: 0x4D760, symSize: 0x70 }
  - { offset: 0xA865B, size: 0x8, addend: 0x0, symName: __RNvXs_NtNtCsieiGu2EXtoJ_4core5slice4iterRSTRNtNtCsdGrGZaRBwMb_3syn11restriction10VisibilityNtCsaKzlTDPUHDb_11proc_macro211TokenStreamRNtNtBK_2ty4TypeENtNtNtNtB8_4iter6traits7collect12IntoIterator9into_iterCs9E08dBcDM90_15zerocopy_derive, symObjAddr: 0x5D00, symBinAddr: 0x4D6A0, symSize: 0x50 }
  - { offset: 0xA8C71, size: 0x8, addend: 0x0, symName: __RNCINvNvNtNtNtNtCsieiGu2EXtoJ_4core4iter6traits8iterator8Iterator8find_map5checkRNtNtCsdGrGZaRBwMb_3syn4data7VariantNtCsaKzlTDPUHDb_11proc_macro211TokenStreamQNCNvNtNtCs9E08dBcDM90_15zerocopy_derive6derive14try_from_bytes23generate_variants_union0E0B2F_, symObjAddr: 0x27C0, symBinAddr: 0x4A160, symSize: 0xB0 }
  - { offset: 0xA8CF4, size: 0x8, addend: 0x0, symName: __RNCINvNvNtNtNtNtCsieiGu2EXtoJ_4core4iter6traits8iterator8Iterator8find_map5checkRNtNtCsdGrGZaRBwMb_3syn4data7VariantNtCsaKzlTDPUHDb_11proc_macro211TokenStreamQNCNvNtNtCs9E08dBcDM90_15zerocopy_derive6derive14try_from_bytes24generate_variant_structs0E0B2F_, symObjAddr: 0x2870, symBinAddr: 0x4A210, symSize: 0xB0 }
  - { offset: 0xA8D83, size: 0x8, addend: 0x0, symName: __RNCINvNvNtNtNtNtCsieiGu2EXtoJ_4core4iter6traits8iterator8Iterator8for_each4callNtCsaKzlTDPUHDb_11proc_macro25IdentNCINvMsi_NtCslJiobkLta79_5alloc3vecINtB1X_3VecB1f_E14extend_trustedINtNtNtBc_8adapters3map3MapINtNtNtBe_5slice4iter4IterTRNtNtCsdGrGZaRBwMb_3syn11restriction10VisibilityNtB1h_11TokenStreamRNtNtB3Q_2ty4TypeEENCNvNtNtCs9E08dBcDM90_15zerocopy_derive6derive12known_layout37derive_known_layout_for_repr_c_structs5_0EE0E0B5h_, symObjAddr: 0x2920, symBinAddr: 0x4A2C0, symSize: 0x40 }
  - { offset: 0xA8DDC, size: 0x8, addend: 0x0, symName: __RNCINvNvNtNtNtNtCsieiGu2EXtoJ_4core4iter6traits8iterator8Iterator8for_each4callNtCsaKzlTDPUHDb_11proc_macro29TokenTreeNCINvXsa_NtB1h_8fallbackNtB21_11TokenStreamINtNtBa_7collect6ExtendB1f_E6extendNtB1h_11TokenStreamE0E0Cs9E08dBcDM90_15zerocopy_derive, symObjAddr: 0x2960, symBinAddr: 0x4A300, symSize: 0x40 }
  - { offset: 0xA8E35, size: 0x8, addend: 0x0, symName: __RNCINvNvNtNtNtNtCsieiGu2EXtoJ_4core4iter6traits8iterator8Iterator8for_each4callNtCscKtU6MdFI5n_10proc_macro11TokenStreamNCINvXsj_B1h_B1f_INtNtBa_7collect6ExtendB1f_E6extendINtNtNtBc_8adapters3map3MapIB2L_INtNtNtBe_5array4iter8IntoIterNtCsaKzlTDPUHDb_11proc_macro211TokenStreamKj2_ENCINvXsb_B3M_B3K_INtB2e_12FromIteratorB3K_E9from_iterB3g_E0ENCINvXs6_NtB3M_3impNtB5C_11TokenStreamIB4N_B5M_E9from_iterB3b_E0EE0E0Cs9E08dBcDM90_15zerocopy_derive, symObjAddr: 0x29A0, symBinAddr: 0x4A340, symSize: 0x20 }
  - { offset: 0xA8E8D, size: 0x8, addend: 0x0, symName: __RNCINvNvNtNtNtNtCsieiGu2EXtoJ_4core4iter6traits8iterator8Iterator8for_each4callNtNtCsdGrGZaRBwMb_3syn8generics14WherePredicateNCINvMsi_NtCslJiobkLta79_5alloc3vecINtB29_3VecB1f_E14extend_trustedINtNtNtBc_8adapters3map3MapINtNtNtBe_5slice4iter4IterTRNtNtB1j_11restriction10VisibilityNtCsaKzlTDPUHDb_11proc_macro211TokenStreamRNtNtB1j_2ty4TypeEENCNvMs8_NtCs9E08dBcDM90_15zerocopy_derive4utilNtB5C_16ImplBlockBuilder5build0EE0E0B5E_, symObjAddr: 0x29C0, symBinAddr: 0x4A360, symSize: 0x50 }
  - { offset: 0xA8EE6, size: 0x8, addend: 0x0, symName: __RNCINvNvNtNtNtNtCsieiGu2EXtoJ_4core4iter6traits8iterator8Iterator8for_each4callTljENCINvMsi_NtCslJiobkLta79_5alloc3vecINtB1s_3VecB1f_E14extend_trustedINtNtNtBc_8adapters3map3MapINtNtB2t_9enumerate9EnumerateIB2p_INtNtNtBe_5slice4iter4IterNtNtCsdGrGZaRBwMb_3syn8generics12GenericParamENCNvMs8_NtCs9E08dBcDM90_15zerocopy_derive4utilNtB4F_16ImplBlockBuilder5builds2_0EENCINvMNtB1u_5sliceSB3N_18sort_by_cached_keylB4x_Es_0EE0E0B4H_, symObjAddr: 0x2A10, symBinAddr: 0x4A3B0, symSize: 0x20 }
  - { offset: 0xA8F3E, size: 0x8, addend: 0x0, symName: __RNCINvNvNtNtNtNtCsieiGu2EXtoJ_4core4iter6traits8iterator8Iterator8for_each4callTlmENCINvMsi_NtCslJiobkLta79_5alloc3vecINtB1s_3VecB1f_E14extend_trustedINtNtNtBc_8adapters3map3MapINtNtB2t_9enumerate9EnumerateIB2p_INtNtNtBe_5slice4iter4IterNtNtCsdGrGZaRBwMb_3syn8generics12GenericParamENCNvMs8_NtCs9E08dBcDM90_15zerocopy_derive4utilNtB4F_16ImplBlockBuilder5builds2_0EENCINvMNtB1u_5sliceSB3N_18sort_by_cached_keylB4x_E0EE0E0B4H_, symObjAddr: 0x2A30, symBinAddr: 0x4A3D0, symSize: 0x20 }
  - { offset: 0xA8FA7, size: 0x8, addend: 0x0, symName: __RNCNvXs_NvNtNtNtNtCsieiGu2EXtoJ_4core4iter6traits8iterator8Iterator10advance_byINtNtCsdGrGZaRBwMb_3syn10punctuated11PrivateIterNtNtB1k_4data7VariantNtNtB1k_5token5CommaENtB6_13SpecAdvanceBy15spec_advance_by0Cs9E08dBcDM90_15zerocopy_derive, symObjAddr: 0x2A50, symBinAddr: 0x4A3F0, symSize: 0x20 }
  - { offset: 0xA8FF4, size: 0x8, addend: 0x0, symName: __RNCNvXs_NvNtNtNtNtCsieiGu2EXtoJ_4core4iter6traits8iterator8Iterator10advance_byINtNtCsdGrGZaRBwMb_3syn10punctuated11PrivateIterNtNtB1k_8generics14WherePredicateNtNtB1k_5token5CommaENtB6_13SpecAdvanceBy15spec_advance_by0Cs9E08dBcDM90_15zerocopy_derive, symObjAddr: 0x2A70, symBinAddr: 0x4A410, symSize: 0x20 }
  - { offset: 0xA9041, size: 0x8, addend: 0x0, symName: __RNCNvXs_NvNtNtNtNtCsieiGu2EXtoJ_4core4iter6traits8iterator8Iterator10advance_byINtNtCsdGrGZaRBwMb_3syn10punctuated4IterNtNtB1k_4data7VariantENtB6_13SpecAdvanceBy15spec_advance_by0Cs9E08dBcDM90_15zerocopy_derive, symObjAddr: 0x2A90, symBinAddr: 0x4A430, symSize: 0x20 }
  - { offset: 0xA9A9B, size: 0x8, addend: 0x0, symName: __RINvMs3_NtNtCscKtU6MdFI5n_10proc_macro6bridge6bufferNtB6_6Buffer17extend_from_arrayKj4_ECs9E08dBcDM90_15zerocopy_derive, symObjAddr: 0x0, symBinAddr: 0x479A0, symSize: 0x1E0 }
  - { offset: 0xA9C23, size: 0x8, addend: 0x0, symName: __RINvMs3_NtNtCscKtU6MdFI5n_10proc_macro6bridge6bufferNtB6_6Buffer17extend_from_arrayKj8_ECs9E08dBcDM90_15zerocopy_derive, symObjAddr: 0x1E0, symBinAddr: 0x47B80, symSize: 0x1E0 }
  - { offset: 0xA9E94, size: 0x8, addend: 0x0, symName: __RINvMs_NtNtCsieiGu2EXtoJ_4core3fmt2rtNtB7_9Arguments6new_v1Kj3_Kj2_ECs9E08dBcDM90_15zerocopy_derive, symObjAddr: 0x3C0, symBinAddr: 0x47D60, symSize: 0x40 }
  - { offset: 0xAA13D, size: 0x8, addend: 0x0, symName: __RNvMs3_NtNtCscKtU6MdFI5n_10proc_macro6bridge6bufferNtB5_6Buffer17extend_from_sliceCs9E08dBcDM90_15zerocopy_derive, symObjAddr: 0x4E50, symBinAddr: 0x4C7F0, symSize: 0x1E0 }
  - { offset: 0xAA2BA, size: 0x8, addend: 0x0, symName: __RNvMs3_NtNtCscKtU6MdFI5n_10proc_macro6bridge6bufferNtB5_6Buffer4pushCs9E08dBcDM90_15zerocopy_derive, symObjAddr: 0x5030, symBinAddr: 0x4C9D0, symSize: 0x1A0 }
  - { offset: 0xAA3C8, size: 0x8, addend: 0x0, symName: __RNvNtCslJiobkLta79_5alloc3fmt6formatCs9E08dBcDM90_15zerocopy_derive, symObjAddr: 0x51D0, symBinAddr: 0x4CB70, symSize: 0xC0 }
  - { offset: 0xAB307, size: 0x8, addend: 0x0, symName: __RNvXs6_NtCslJiobkLta79_5alloc5boxedINtB5_3BoxANtNtCsdGrGZaRBwMb_3syn8generics12GenericParamj2_ENtNtNtCsieiGu2EXtoJ_4core3ops4drop4Drop4dropCs9E08dBcDM90_15zerocopy_derive, symObjAddr: 0x5450, symBinAddr: 0x4CDF0, symSize: 0xB0 }
  - { offset: 0xAB442, size: 0x8, addend: 0x0, symName: __RNvXs6_NtCslJiobkLta79_5alloc5boxedINtB5_3BoxANtNtCsdGrGZaRBwMb_3syn8generics14WherePredicatej1_ENtNtNtCsieiGu2EXtoJ_4core3ops4drop4Drop4dropCs9E08dBcDM90_15zerocopy_derive, symObjAddr: 0x5500, symBinAddr: 0x4CEA0, symSize: 0xB0 }
  - { offset: 0xAB57D, size: 0x8, addend: 0x0, symName: __RNvXs6_NtCslJiobkLta79_5alloc5boxedINtB5_3BoxATINtNtCsieiGu2EXtoJ_4core6option6OptionRNtNtCsdGrGZaRBwMb_3syn4data7VariantEINtNtB7_3vec3VecTRNtNtB1q_11restriction10VisibilityNtCsaKzlTDPUHDb_11proc_macro211TokenStreamRNtNtB1q_2ty4TypeEEEj1_ENtNtNtBO_3ops4drop4Drop4dropCs9E08dBcDM90_15zerocopy_derive, symObjAddr: 0x55B0, symBinAddr: 0x4CF50, symSize: 0xB0 }
  - { offset: 0xAB6B8, size: 0x8, addend: 0x0, symName: __RNvXs6_NtCslJiobkLta79_5alloc5boxedINtB5_3BoxDNtNtCsieiGu2EXtoJ_4core5error5ErrorNtNtBM_6marker4SyncNtB1j_4SendEL_ENtNtNtBM_3ops4drop4Drop4dropCs9E08dBcDM90_15zerocopy_derive, symObjAddr: 0x5660, symBinAddr: 0x4D000, symSize: 0xC0 }
  - { offset: 0xAB7F5, size: 0x8, addend: 0x0, symName: __RNvXs6_NtCslJiobkLta79_5alloc5boxedINtB5_3BoxINtNtCsdGrGZaRBwMb_3syn5drops6NoDropDINtNtBM_10punctuated9IterTraitNtNtBM_4data5FieldEp4ItemRB1M_EL_EENtNtNtCsieiGu2EXtoJ_4core3ops4drop4Drop4dropCs9E08dBcDM90_15zerocopy_derive, symObjAddr: 0x5720, symBinAddr: 0x4D0C0, symSize: 0x120 }
  - { offset: 0xAB932, size: 0x8, addend: 0x0, symName: __RNvXs6_NtCslJiobkLta79_5alloc5boxedINtB5_3BoxINtNtCsdGrGZaRBwMb_3syn5drops6NoDropDINtNtBM_10punctuated9IterTraitNtNtBM_4data7VariantEp4ItemRB1M_EL_EENtNtNtCsieiGu2EXtoJ_4core3ops4drop4Drop4dropCs9E08dBcDM90_15zerocopy_derive, symObjAddr: 0x5840, symBinAddr: 0x4D1E0, symSize: 0x120 }
  - { offset: 0xABA6F, size: 0x8, addend: 0x0, symName: __RNvXs6_NtCslJiobkLta79_5alloc5boxedINtB5_3BoxINtNtCsdGrGZaRBwMb_3syn5drops6NoDropDINtNtBM_10punctuated9IterTraitNtNtBM_8generics12GenericParamEp4ItemRB1M_EL_EENtNtNtCsieiGu2EXtoJ_4core3ops4drop4Drop4dropCs9E08dBcDM90_15zerocopy_derive, symObjAddr: 0x5960, symBinAddr: 0x4D300, symSize: 0x120 }
  - { offset: 0xABBAC, size: 0x8, addend: 0x0, symName: __RNvXs6_NtCslJiobkLta79_5alloc5boxedINtB5_3BoxINtNtCsdGrGZaRBwMb_3syn5drops6NoDropDINtNtBM_10punctuated9IterTraitNtNtBM_8generics14WherePredicateEp4ItemRB1M_EL_EENtNtNtCsieiGu2EXtoJ_4core3ops4drop4Drop4dropCs9E08dBcDM90_15zerocopy_derive, symObjAddr: 0x5A80, symBinAddr: 0x4D420, symSize: 0x120 }
  - { offset: 0xABCE9, size: 0x8, addend: 0x0, symName: __RNvXs6_NtCslJiobkLta79_5alloc5boxedINtB5_3BoxNtNtCsdGrGZaRBwMb_3syn4attr4MetaENtNtNtCsieiGu2EXtoJ_4core3ops4drop4Drop4dropCs9E08dBcDM90_15zerocopy_derive, symObjAddr: 0x5BA0, symBinAddr: 0x4D540, symSize: 0xB0 }
  - { offset: 0xABE24, size: 0x8, addend: 0x0, symName: __RNvXs6_NtCslJiobkLta79_5alloc5boxedINtB5_3BoxNtNtNtCsHUR1vrdMJt_3std2io5error6CustomENtNtNtCsieiGu2EXtoJ_4core3ops4drop4Drop4dropCs9E08dBcDM90_15zerocopy_derive, symObjAddr: 0x5C50, symBinAddr: 0x4D5F0, symSize: 0xB0 }
  - { offset: 0xABF71, size: 0x8, addend: 0x0, symName: __RNvXNtCs9OU1sGv5X54_5quote9to_tokensRINtNtCslJiobkLta79_5alloc5boxed3BoxNtNtCsdGrGZaRBwMb_3syn2ty4TypeENtB2_8ToTokens9to_tokensCs9E08dBcDM90_15zerocopy_derive, symObjAddr: 0x5290, symBinAddr: 0x4CC30, symSize: 0x30 }
  - { offset: 0xABFB0, size: 0x8, addend: 0x0, symName: __RNvXNtCs9OU1sGv5X54_5quote9to_tokensRINtNtCslJiobkLta79_5alloc5boxed3BoxNtNtCsdGrGZaRBwMb_3syn4expr4ExprENtB2_8ToTokens9to_tokensCs9E08dBcDM90_15zerocopy_derive, symObjAddr: 0x52C0, symBinAddr: 0x4CC60, symSize: 0x30 }
  - { offset: 0xABFEF, size: 0x8, addend: 0x0, symName: __RNvXNtCs9OU1sGv5X54_5quote9to_tokensRNtNtCsdGrGZaRBwMb_3syn11restriction10VisibilityNtB2_8ToTokens9to_tokensCs9E08dBcDM90_15zerocopy_derive, symObjAddr: 0x52F0, symBinAddr: 0x4CC90, symSize: 0x30 }
  - { offset: 0xAC02E, size: 0x8, addend: 0x0, symName: __RNvXNtCs9OU1sGv5X54_5quote9to_tokensRRNtNtCsdGrGZaRBwMb_3syn11restriction10VisibilityNtB2_8ToTokens9to_tokensCs9E08dBcDM90_15zerocopy_derive, symObjAddr: 0x5320, symBinAddr: 0x4CCC0, symSize: 0x30 }
  - { offset: 0xAC07E, size: 0x8, addend: 0x0, symName: __RNvYINtNtCslJiobkLta79_5alloc5boxed3BoxNtNtCsdGrGZaRBwMb_3syn4expr4ExprENtNtNtCs9OU1sGv5X54_5quote9___private3ext14RepToTokensExt15quote_into_iterCs9E08dBcDM90_15zerocopy_derive, symObjAddr: 0x5E30, symBinAddr: 0x4D7D0, symSize: 0x20 }
  - { offset: 0xAC0B3, size: 0x8, addend: 0x0, symName: __RNvYINtNtCslJiobkLta79_5alloc5boxed3BoxNtNtCsdGrGZaRBwMb_3syn4expr4ExprENtNtNtCs9OU1sGv5X54_5quote9___private3ext14RepToTokensExt4nextCs9E08dBcDM90_15zerocopy_derive, symObjAddr: 0x5E50, symBinAddr: 0x4D7F0, symSize: 0x20 }
  - { offset: 0xAC103, size: 0x8, addend: 0x0, symName: __RNvXNtCsdGrGZaRBwMb_3syn11parse_quoteINtNtCslJiobkLta79_5alloc5boxed3BoxNtNtB4_2ty4TypeENtB2_10ParseQuote5parseCs9E08dBcDM90_15zerocopy_derive, symObjAddr: 0x5350, symBinAddr: 0x4CCF0, symSize: 0x30 }
  - { offset: 0xAC138, size: 0x8, addend: 0x0, symName: __RNvXNtCsdGrGZaRBwMb_3syn11parse_quoteINtNtCslJiobkLta79_5alloc5boxed3BoxNtNtB4_4expr4ExprENtB2_10ParseQuote5parseCs9E08dBcDM90_15zerocopy_derive, symObjAddr: 0x5380, symBinAddr: 0x4CD20, symSize: 0x30 }
  - { offset: 0xB2425, size: 0x8, addend: 0x0, symName: __RINvNtCs9OU1sGv5X54_5quote9___private8get_spanNtCsaKzlTDPUHDb_11proc_macro24SpanECs9E08dBcDM90_15zerocopy_derive, symObjAddr: 0x0, symBinAddr: 0x4D810, symSize: 0x20 }
  - { offset: 0xB2958, size: 0x8, addend: 0x0, symName: __RNCNCNvXsx_NtCsdGrGZaRBwMb_3syn10punctuatedINtB9_11PrivateIterNtNtBb_4data7VariantNtNtBb_5token5CommaENtNtNtNtCsieiGu2EXtoJ_4core4iter6traits12double_ended19DoubleEndedIterator9next_back00Cs9E08dBcDM90_15zerocopy_derive, symObjAddr: 0x13D0, symBinAddr: 0x4EBE0, symSize: 0x10 }
  - { offset: 0xB29A3, size: 0x8, addend: 0x0, symName: __RNCNCNvXsx_NtCsdGrGZaRBwMb_3syn10punctuatedINtB9_11PrivateIterNtNtBb_8generics14WherePredicateNtNtBb_5token5CommaENtNtNtNtCsieiGu2EXtoJ_4core4iter6traits12double_ended19DoubleEndedIterator9next_back00Cs9E08dBcDM90_15zerocopy_derive, symObjAddr: 0x13E0, symBinAddr: 0x4EBF0, symSize: 0x10 }
  - { offset: 0xB29FD, size: 0x8, addend: 0x0, symName: __RNCNvXsx_NtCsdGrGZaRBwMb_3syn10punctuatedINtB7_11PrivateIterNtNtB9_4data7VariantNtNtB9_5token5CommaENtNtNtNtCsieiGu2EXtoJ_4core4iter6traits12double_ended19DoubleEndedIterator9next_back0Cs9E08dBcDM90_15zerocopy_derive, symObjAddr: 0x1450, symBinAddr: 0x4EC60, symSize: 0x30 }
  - { offset: 0xB2A3F, size: 0x8, addend: 0x0, symName: __RNCNvXsx_NtCsdGrGZaRBwMb_3syn10punctuatedINtB7_11PrivateIterNtNtB9_8generics14WherePredicateNtNtB9_5token5CommaENtNtNtNtCsieiGu2EXtoJ_4core4iter6traits12double_ended19DoubleEndedIterator9next_back0Cs9E08dBcDM90_15zerocopy_derive, symObjAddr: 0x1480, symBinAddr: 0x4EC90, symSize: 0x30 }
  - { offset: 0xB2A82, size: 0x8, addend: 0x0, symName: __RNvXsx_NtCsdGrGZaRBwMb_3syn10punctuatedINtB5_11PrivateIterNtNtB7_4data7VariantNtNtB7_5token5CommaENtNtNtNtCsieiGu2EXtoJ_4core4iter6traits12double_ended19DoubleEndedIterator9next_backCs9E08dBcDM90_15zerocopy_derive, symObjAddr: 0x6180, symBinAddr: 0x53990, symSize: 0x40 }
  - { offset: 0xB2AC2, size: 0x8, addend: 0x0, symName: __RNvXsx_NtCsdGrGZaRBwMb_3syn10punctuatedINtB5_11PrivateIterNtNtB7_8generics14WherePredicateNtNtB7_5token5CommaENtNtNtNtCsieiGu2EXtoJ_4core4iter6traits12double_ended19DoubleEndedIterator9next_backCs9E08dBcDM90_15zerocopy_derive, symObjAddr: 0x61C0, symBinAddr: 0x539D0, symSize: 0x40 }
  - { offset: 0xB2B0D, size: 0x8, addend: 0x0, symName: __RNCNvXsw_NtCsdGrGZaRBwMb_3syn10punctuatedINtB7_11PrivateIterNtNtB9_4data7VariantNtNtB9_5token5CommaENtNtNtNtCsieiGu2EXtoJ_4core4iter6traits8iterator8Iterator4next0Cs9E08dBcDM90_15zerocopy_derive, symObjAddr: 0x13F0, symBinAddr: 0x4EC00, symSize: 0x10 }
  - { offset: 0xB2B58, size: 0x8, addend: 0x0, symName: __RNCNvXsw_NtCsdGrGZaRBwMb_3syn10punctuatedINtB7_11PrivateIterNtNtB9_4data7VariantNtNtB9_5token5CommaENtNtNtNtCsieiGu2EXtoJ_4core4iter6traits8iterator8Iterator4nexts_0Cs9E08dBcDM90_15zerocopy_derive, symObjAddr: 0x1400, symBinAddr: 0x4EC10, symSize: 0x20 }
  - { offset: 0xB2B9A, size: 0x8, addend: 0x0, symName: __RNCNvXsw_NtCsdGrGZaRBwMb_3syn10punctuatedINtB7_11PrivateIterNtNtB9_8generics14WherePredicateNtNtB9_5token5CommaENtNtNtNtCsieiGu2EXtoJ_4core4iter6traits8iterator8Iterator4next0Cs9E08dBcDM90_15zerocopy_derive, symObjAddr: 0x1420, symBinAddr: 0x4EC30, symSize: 0x10 }
  - { offset: 0xB2BE5, size: 0x8, addend: 0x0, symName: __RNCNvXsw_NtCsdGrGZaRBwMb_3syn10punctuatedINtB7_11PrivateIterNtNtB9_8generics14WherePredicateNtNtB9_5token5CommaENtNtNtNtCsieiGu2EXtoJ_4core4iter6traits8iterator8Iterator4nexts_0Cs9E08dBcDM90_15zerocopy_derive, symObjAddr: 0x1430, symBinAddr: 0x4EC40, symSize: 0x20 }
  - { offset: 0xB2C36, size: 0x8, addend: 0x0, symName: __RNvXsw_NtCsdGrGZaRBwMb_3syn10punctuatedINtB5_11PrivateIterNtNtB7_4data7VariantNtNtB7_5token5CommaENtNtNtNtCsieiGu2EXtoJ_4core4iter6traits8iterator8Iterator4nextCs9E08dBcDM90_15zerocopy_derive, symObjAddr: 0x6100, symBinAddr: 0x53910, symSize: 0x40 }
  - { offset: 0xB2C76, size: 0x8, addend: 0x0, symName: __RNvXsw_NtCsdGrGZaRBwMb_3syn10punctuatedINtB5_11PrivateIterNtNtB7_8generics14WherePredicateNtNtB7_5token5CommaENtNtNtNtCsieiGu2EXtoJ_4core4iter6traits8iterator8Iterator4nextCs9E08dBcDM90_15zerocopy_derive, symObjAddr: 0x6140, symBinAddr: 0x53950, symSize: 0x40 }
  - { offset: 0xB2E22, size: 0x8, addend: 0x0, symName: __RNvXs8_NtCsdGrGZaRBwMb_3syn10punctuatedINtB5_10PunctuatedNtNtB7_4attr4MetaNtNtB7_5token5CommaENtNtNtNtCsieiGu2EXtoJ_4core4iter6traits7collect12IntoIterator9into_iterCs9E08dBcDM90_15zerocopy_derive, symObjAddr: 0x2E50, symBinAddr: 0x50660, symSize: 0x400 }
  - { offset: 0xB2EC8, size: 0x8, addend: 0x0, symName: __RNvXs8_NtCsdGrGZaRBwMb_3syn10punctuatedINtB5_10PunctuatedNtNtB7_8generics12GenericParamNtNtB7_5token5CommaENtNtNtNtCsieiGu2EXtoJ_4core4iter6traits7collect12IntoIterator9into_iterCs9E08dBcDM90_15zerocopy_derive, symObjAddr: 0x3250, symBinAddr: 0x50A60, symSize: 0x400 }
  - { offset: 0xB2F74, size: 0x8, addend: 0x0, symName: __RNvXs9_NtCsdGrGZaRBwMb_3syn10punctuatedRINtB5_10PunctuatedNtNtB7_4data5FieldNtNtB7_5token5CommaENtNtNtNtCsieiGu2EXtoJ_4core4iter6traits7collect12IntoIterator9into_iterCs9E08dBcDM90_15zerocopy_derive, symObjAddr: 0x3650, symBinAddr: 0x50E60, symSize: 0x20 }
  - { offset: 0xB2FBA, size: 0x8, addend: 0x0, symName: __RNvXsA_NtCsdGrGZaRBwMb_3syn10punctuatedINtB5_11PrivateIterNtNtB7_4data7VariantNtNtB7_5token5CommaEINtB5_9IterTraitBU_E9clone_boxCs9E08dBcDM90_15zerocopy_derive, symObjAddr: 0x3670, symBinAddr: 0x50E80, symSize: 0x90 }
  - { offset: 0xB3019, size: 0x8, addend: 0x0, symName: __RNvXsA_NtCsdGrGZaRBwMb_3syn10punctuatedINtB5_11PrivateIterNtNtB7_8generics14WherePredicateNtNtB7_5token5CommaEINtB5_9IterTraitBU_E9clone_boxCs9E08dBcDM90_15zerocopy_derive, symObjAddr: 0x3700, symBinAddr: 0x50F10, symSize: 0x90 }
  - { offset: 0xB307E, size: 0x8, addend: 0x0, symName: __RNvXsb_NtCsdGrGZaRBwMb_3syn10punctuatedINtB5_10PunctuatedNtNtB7_8generics14WherePredicateNtNtB7_5token5CommaENtNtCsieiGu2EXtoJ_4core7default7Default7defaultCs9E08dBcDM90_15zerocopy_derive, symObjAddr: 0x39B0, symBinAddr: 0x511C0, symSize: 0x30 }
  - { offset: 0xB30B5, size: 0x8, addend: 0x0, symName: __RNvXsn_NtCsdGrGZaRBwMb_3syn10punctuatedINtB5_8IntoIterNtNtB7_4attr4MetaENtNtNtNtCsieiGu2EXtoJ_4core4iter6traits8iterator8Iterator4nextCs9E08dBcDM90_15zerocopy_derive, symObjAddr: 0x5EA0, symBinAddr: 0x536B0, symSize: 0x30 }
  - { offset: 0xB30EC, size: 0x8, addend: 0x0, symName: __RNvXsn_NtCsdGrGZaRBwMb_3syn10punctuatedINtB5_8IntoIterNtNtB7_8generics12GenericParamENtNtNtNtCsieiGu2EXtoJ_4core4iter6traits8iterator8Iterator4nextCs9E08dBcDM90_15zerocopy_derive, symObjAddr: 0x5ED0, symBinAddr: 0x536E0, symSize: 0x30 }
  - { offset: 0xB3123, size: 0x8, addend: 0x0, symName: __RNvXsn_NtCsdGrGZaRBwMb_3syn10punctuatedINtB5_8IntoIterNtNtB7_8generics12GenericParamENtNtNtNtCsieiGu2EXtoJ_4core4iter6traits8iterator8Iterator9size_hintCs9E08dBcDM90_15zerocopy_derive, symObjAddr: 0x5F00, symBinAddr: 0x53710, symSize: 0x60 }
  - { offset: 0xB3160, size: 0x8, addend: 0x0, symName: __RNvXsp_NtCsdGrGZaRBwMb_3syn10punctuatedINtB5_8IntoIterNtNtB7_8generics12GenericParamENtNtNtNtCsieiGu2EXtoJ_4core4iter6traits10exact_size17ExactSizeIterator3lenCs9E08dBcDM90_15zerocopy_derive, symObjAddr: 0x5F60, symBinAddr: 0x53770, symSize: 0x20 }
  - { offset: 0xB319D, size: 0x8, addend: 0x0, symName: __RNvXst_NtCsdGrGZaRBwMb_3syn10punctuatedINtB5_4IterNtNtB7_4data5FieldENtNtNtNtCsieiGu2EXtoJ_4core4iter6traits8iterator8Iterator9size_hintCs9E08dBcDM90_15zerocopy_derive, symObjAddr: 0x5F80, symBinAddr: 0x53790, symSize: 0x60 }
  - { offset: 0xB31D4, size: 0x8, addend: 0x0, symName: __RNvXst_NtCsdGrGZaRBwMb_3syn10punctuatedINtB5_4IterNtNtB7_4data7VariantENtNtNtNtCsieiGu2EXtoJ_4core4iter6traits8iterator8Iterator4nextCs9E08dBcDM90_15zerocopy_derive, symObjAddr: 0x5FE0, symBinAddr: 0x537F0, symSize: 0x30 }
  - { offset: 0xB320B, size: 0x8, addend: 0x0, symName: __RNvXst_NtCsdGrGZaRBwMb_3syn10punctuatedINtB5_4IterNtNtB7_4data7VariantENtNtNtNtCsieiGu2EXtoJ_4core4iter6traits8iterator8Iterator9size_hintCs9E08dBcDM90_15zerocopy_derive, symObjAddr: 0x6010, symBinAddr: 0x53820, symSize: 0x60 }
  - { offset: 0xB3242, size: 0x8, addend: 0x0, symName: __RNvXst_NtCsdGrGZaRBwMb_3syn10punctuatedINtB5_4IterNtNtB7_8generics14WherePredicateENtNtNtNtCsieiGu2EXtoJ_4core4iter6traits8iterator8Iterator4nextCs9E08dBcDM90_15zerocopy_derive, symObjAddr: 0x6070, symBinAddr: 0x53880, symSize: 0x30 }
  - { offset: 0xB327F, size: 0x8, addend: 0x0, symName: __RNvXsv_NtCsdGrGZaRBwMb_3syn10punctuatedINtB5_4IterNtNtB7_4data5FieldENtNtNtNtCsieiGu2EXtoJ_4core4iter6traits10exact_size17ExactSizeIterator3lenCs9E08dBcDM90_15zerocopy_derive, symObjAddr: 0x60A0, symBinAddr: 0x538B0, symSize: 0x30 }
  - { offset: 0xB32B6, size: 0x8, addend: 0x0, symName: __RNvXsv_NtCsdGrGZaRBwMb_3syn10punctuatedINtB5_4IterNtNtB7_4data7VariantENtNtNtNtCsieiGu2EXtoJ_4core4iter6traits10exact_size17ExactSizeIterator3lenCs9E08dBcDM90_15zerocopy_derive, symObjAddr: 0x60D0, symBinAddr: 0x538E0, symSize: 0x30 }
  - { offset: 0xB32F3, size: 0x8, addend: 0x0, symName: __RNvXsy_NtCsdGrGZaRBwMb_3syn10punctuatedINtB5_11PrivateIterNtNtB7_4data7VariantNtNtB7_5token5CommaENtNtNtNtCsieiGu2EXtoJ_4core4iter6traits10exact_size17ExactSizeIterator3lenCs9E08dBcDM90_15zerocopy_derive, symObjAddr: 0x6200, symBinAddr: 0x53A10, symSize: 0x80 }
  - { offset: 0xB336B, size: 0x8, addend: 0x0, symName: __RNvXsy_NtCsdGrGZaRBwMb_3syn10punctuatedINtB5_11PrivateIterNtNtB7_8generics14WherePredicateNtNtB7_5token5CommaENtNtNtNtCsieiGu2EXtoJ_4core4iter6traits10exact_size17ExactSizeIterator3lenCs9E08dBcDM90_15zerocopy_derive, symObjAddr: 0x6280, symBinAddr: 0x53A90, symSize: 0x80 }
  - { offset: 0xB33E9, size: 0x8, addend: 0x0, symName: __RNvXsz_NtCsdGrGZaRBwMb_3syn10punctuatedINtB5_11PrivateIterNtNtB7_4data7VariantNtNtB7_5token5CommaENtNtCsieiGu2EXtoJ_4core5clone5Clone5cloneCs9E08dBcDM90_15zerocopy_derive, symObjAddr: 0x6300, symBinAddr: 0x53B10, symSize: 0x70 }
  - { offset: 0xB3429, size: 0x8, addend: 0x0, symName: __RNvXsz_NtCsdGrGZaRBwMb_3syn10punctuatedINtB5_11PrivateIterNtNtB7_8generics14WherePredicateNtNtB7_5token5CommaENtNtCsieiGu2EXtoJ_4core5clone5Clone5cloneCs9E08dBcDM90_15zerocopy_derive, symObjAddr: 0x6370, symBinAddr: 0x53B80, symSize: 0x70 }
  - { offset: 0xB7D53, size: 0x8, addend: 0x0, symName: __RINvNtCsdGrGZaRBwMb_3syn11parse_quote5parseINtNtCslJiobkLta79_5alloc5boxed3BoxNtNtB4_2ty4TypeEECs9E08dBcDM90_15zerocopy_derive, symObjAddr: 0x20, symBinAddr: 0x4D830, symSize: 0xB0 }
  - { offset: 0xB7DB3, size: 0x8, addend: 0x0, symName: __RINvNtCsdGrGZaRBwMb_3syn11parse_quote5parseINtNtCslJiobkLta79_5alloc5boxed3BoxNtNtB4_4expr4ExprEECs9E08dBcDM90_15zerocopy_derive, symObjAddr: 0xD0, symBinAddr: 0x4D8E0, symSize: 0xB0 }
  - { offset: 0xB7E13, size: 0x8, addend: 0x0, symName: __RINvNtCsdGrGZaRBwMb_3syn11parse_quote5parseNtNtB4_2ty4TypeECs9E08dBcDM90_15zerocopy_derive, symObjAddr: 0x180, symBinAddr: 0x4D990, symSize: 0xE0 }
  - { offset: 0xB7E73, size: 0x8, addend: 0x0, symName: __RINvNtCsdGrGZaRBwMb_3syn11parse_quote5parseNtNtB4_4path30AngleBracketedGenericArgumentsECs9E08dBcDM90_15zerocopy_derive, symObjAddr: 0x260, symBinAddr: 0x4DA70, symSize: 0xC0 }
  - { offset: 0xB7ED3, size: 0x8, addend: 0x0, symName: __RINvNtCsdGrGZaRBwMb_3syn11parse_quote5parseNtNtB4_4path4PathECs9E08dBcDM90_15zerocopy_derive, symObjAddr: 0x320, symBinAddr: 0x4DB30, symSize: 0xC0 }
  - { offset: 0xB7F33, size: 0x8, addend: 0x0, symName: __RINvNtCsdGrGZaRBwMb_3syn11parse_quote5parseNtNtB4_6derive11DeriveInputECs9E08dBcDM90_15zerocopy_derive, symObjAddr: 0x3E0, symBinAddr: 0x4DBF0, symSize: 0xE0 }
  - { offset: 0xB7F93, size: 0x8, addend: 0x0, symName: __RINvNtCsdGrGZaRBwMb_3syn11parse_quote5parseNtNtB4_8generics12GenericParamECs9E08dBcDM90_15zerocopy_derive, symObjAddr: 0x4C0, symBinAddr: 0x4DCD0, symSize: 0xE0 }
  - { offset: 0xB7FF3, size: 0x8, addend: 0x0, symName: __RINvNtCsdGrGZaRBwMb_3syn11parse_quote5parseNtNtB4_8generics14WherePredicateECs9E08dBcDM90_15zerocopy_derive, symObjAddr: 0x5A0, symBinAddr: 0x4DDB0, symSize: 0xE0 }
  - { offset: 0xB83A0, size: 0x8, addend: 0x0, symName: __RNvXsh_NtCsdGrGZaRBwMb_3syn5parseNvMNtB7_10punctuatedINtBy_10PunctuatedNtNtB7_4attr4MetaNtNtB7_5token5CommaE16parse_terminatedNtB5_6Parser14___parse_scopedCs9E08dBcDM90_15zerocopy_derive, symObjAddr: 0x39E0, symBinAddr: 0x511F0, symSize: 0x4E0 }
  - { offset: 0xB84EC, size: 0x8, addend: 0x0, symName: __RNvXsh_NtCsdGrGZaRBwMb_3syn5parseNvYINtNtCslJiobkLta79_5alloc5boxed3BoxNtNtB7_2ty4TypeENtNtB7_11parse_quote10ParseQuote5parseNtB5_6Parser6parse2Cs9E08dBcDM90_15zerocopy_derive, symObjAddr: 0x3EC0, symBinAddr: 0x516D0, symSize: 0x390 }
  - { offset: 0xB85FC, size: 0x8, addend: 0x0, symName: __RNvXsh_NtCsdGrGZaRBwMb_3syn5parseNvYINtNtCslJiobkLta79_5alloc5boxed3BoxNtNtB7_4expr4ExprENtNtB7_11parse_quote10ParseQuote5parseNtB5_6Parser6parse2Cs9E08dBcDM90_15zerocopy_derive, symObjAddr: 0x4250, symBinAddr: 0x51A60, symSize: 0x390 }
  - { offset: 0xB870C, size: 0x8, addend: 0x0, symName: __RNvXsh_NtCsdGrGZaRBwMb_3syn5parseNvYNtNtB7_2ty4TypeNtNtB7_11parse_quote10ParseQuote5parseNtB5_6Parser6parse2Cs9E08dBcDM90_15zerocopy_derive, symObjAddr: 0x45E0, symBinAddr: 0x51DF0, symSize: 0x400 }
  - { offset: 0xB881D, size: 0x8, addend: 0x0, symName: __RNvXsh_NtCsdGrGZaRBwMb_3syn5parseNvYNtNtB7_4path30AngleBracketedGenericArgumentsNtNtB7_11parse_quote10ParseQuote5parseNtB5_6Parser6parse2Cs9E08dBcDM90_15zerocopy_derive, symObjAddr: 0x49E0, symBinAddr: 0x521F0, symSize: 0x470 }
  - { offset: 0xB892E, size: 0x8, addend: 0x0, symName: __RNvXsh_NtCsdGrGZaRBwMb_3syn5parseNvYNtNtB7_4path4PathNtNtB7_11parse_quote10ParseQuote5parseNtB5_6Parser6parse2Cs9E08dBcDM90_15zerocopy_derive, symObjAddr: 0x4E50, symBinAddr: 0x52660, symSize: 0x450 }
  - { offset: 0xB8A3F, size: 0x8, addend: 0x0, symName: __RNvXsh_NtCsdGrGZaRBwMb_3syn5parseNvYNtNtB7_6derive11DeriveInputNtNtB7_11parse_quote10ParseQuote5parseNtB5_6Parser6parse2Cs9E08dBcDM90_15zerocopy_derive, symObjAddr: 0x52A0, symBinAddr: 0x52AB0, symSize: 0x400 }
  - { offset: 0xB8B50, size: 0x8, addend: 0x0, symName: __RNvXsh_NtCsdGrGZaRBwMb_3syn5parseNvYNtNtB7_8generics12GenericParamNtNtB7_11parse_quote10ParseQuote5parseNtB5_6Parser6parse2Cs9E08dBcDM90_15zerocopy_derive, symObjAddr: 0x56A0, symBinAddr: 0x52EB0, symSize: 0x400 }
  - { offset: 0xB8C61, size: 0x8, addend: 0x0, symName: __RNvXsh_NtCsdGrGZaRBwMb_3syn5parseNvYNtNtB7_8generics14WherePredicateNtNtB7_11parse_quote10ParseQuote5parseNtB5_6Parser6parse2Cs9E08dBcDM90_15zerocopy_derive, symObjAddr: 0x5AA0, symBinAddr: 0x532B0, symSize: 0x400 }
  - { offset: 0xB99B9, size: 0x8, addend: 0x0, symName: __RNvXs_NtCslJiobkLta79_5alloc5allocNtB4_6GlobalNtNtCsieiGu2EXtoJ_4core5alloc9Allocator10deallocateCs9E08dBcDM90_15zerocopy_derive, symObjAddr: 0x3790, symBinAddr: 0x50FA0, symSize: 0x70 }
  - { offset: 0xB9A82, size: 0x8, addend: 0x0, symName: __RNvNtCslJiobkLta79_5alloc5alloc15exchange_mallocCs9E08dBcDM90_15zerocopy_derive, symObjAddr: 0x2900, symBinAddr: 0x50110, symSize: 0xA0 }
  - { offset: 0xBE742, size: 0x8, addend: 0x0, symName: __RNCINvMs6_NtNtNtCsieiGu2EXtoJ_4core5array4iter10iter_innerINtB8_15PolymorphicIterSINtNtNtBe_3mem12maybe_uninit11MaybeUninitNtCsaKzlTDPUHDb_11proc_macro211TokenStreamEE8try_folduNCINvMNtNtBe_3ops9try_traitINtB2V_17NeverShortCircuituE10wrap_mut_2uB1X_NCINvNtNtNtBe_4iter8adapters3map8map_foldB1X_NtNtB1Z_3imp11TokenStreamuNCINvXsb_B1Z_B1X_INtNtNtB48_6traits7collect12FromIteratorB1X_E9from_iterINtBa_8IntoIterB1X_Kj2_EE0NCIB42_B4I_NtCscKtU6MdFI5n_10proc_macro11TokenStreamuNCINvXs6_B4K_B4I_IB5q_B4I_E9from_iterINtB44_3MapB6i_B58_EE0NCINvNvNtNtB5u_8iterator8Iterator8for_each4callB6T_NCINvXsj_B6V_B6T_INtB5s_6ExtendB6T_E6extendIB8b_B8a_B7z_EE0E0E0E0E0B3g_E0Cs9E08dBcDM90_15zerocopy_derive, symObjAddr: 0x1300, symBinAddr: 0x4EB10, symSize: 0xD0 }
  - { offset: 0xBEA07, size: 0x8, addend: 0x0, symName: __RNvXs1_NtNtNtCsieiGu2EXtoJ_4core5array4iter10iter_innerINtB5_15PolymorphicIterAINtNtNtBb_3mem12maybe_uninit11MaybeUninitINtNtBb_6option6OptionNtCsaKzlTDPUHDb_11proc_macro211TokenStreamEEj1_ENtNtNtBb_3ops4drop4Drop4dropCs9E08dBcDM90_15zerocopy_derive, symObjAddr: 0x2A50, symBinAddr: 0x50260, symSize: 0x30 }
  - { offset: 0xBEA55, size: 0x8, addend: 0x0, symName: __RNvXs1_NtNtNtCsieiGu2EXtoJ_4core5array4iter10iter_innerINtB5_15PolymorphicIterAINtNtNtBb_3mem12maybe_uninit11MaybeUninitINtNtBb_6option6OptionNtCsaKzlTDPUHDb_11proc_macro211TokenStreamEEj3_ENtNtNtBb_3ops4drop4Drop4dropCs9E08dBcDM90_15zerocopy_derive, symObjAddr: 0x2A80, symBinAddr: 0x50290, symSize: 0x30 }
  - { offset: 0xBEAA3, size: 0x8, addend: 0x0, symName: __RNvXs1_NtNtNtCsieiGu2EXtoJ_4core5array4iter10iter_innerINtB5_15PolymorphicIterAINtNtNtBb_3mem12maybe_uninit11MaybeUninitNtCsaKzlTDPUHDb_11proc_macro211TokenStreamEj2_ENtNtNtBb_3ops4drop4Drop4dropCs9E08dBcDM90_15zerocopy_derive, symObjAddr: 0x2AB0, symBinAddr: 0x502C0, symSize: 0x30 }
  - { offset: 0xBEAF1, size: 0x8, addend: 0x0, symName: __RNvXs1_NtNtNtCsieiGu2EXtoJ_4core5array4iter10iter_innerINtB5_15PolymorphicIterAINtNtNtBb_3mem12maybe_uninit11MaybeUninitjEj2_ENtNtNtBb_3ops4drop4Drop4dropCs9E08dBcDM90_15zerocopy_derive, symObjAddr: 0x2AE0, symBinAddr: 0x502F0, symSize: 0x30 }
  - { offset: 0xBEBC4, size: 0x8, addend: 0x0, symName: __RINvXs2_NtNtCsieiGu2EXtoJ_4core5array4iterINtB6_8IntoIterNtCsaKzlTDPUHDb_11proc_macro211TokenStreamKj2_ENtNtNtNtBa_4iter6traits8iterator8Iterator4folduNCINvNtNtB1K_8adapters3map8map_foldBT_NtNtBV_3imp11TokenStreamuNCINvXsb_BV_BT_INtNtB1I_7collect12FromIteratorBT_E9from_iterBE_E0NCIB2s_B31_NtCscKtU6MdFI5n_10proc_macro11TokenStreamuNCINvXs6_B33_B31_IB3G_B31_E9from_iterINtB2u_3MapBE_B3q_EE0NCINvNvB1E_8for_each4callB4E_NCINvXsj_B4G_B4E_INtB3I_6ExtendB4E_E6extendIB5W_B5V_B5k_EE0E0E0E0ECs9E08dBcDM90_15zerocopy_derive, symObjAddr: 0x680, symBinAddr: 0x4DE90, symSize: 0x90 }
  - { offset: 0xBECD8, size: 0x8, addend: 0x0, symName: __RNvXs2_NtNtCsieiGu2EXtoJ_4core5array4iterINtB5_8IntoIterINtNtB9_6option6OptionNtCsaKzlTDPUHDb_11proc_macro211TokenStreamEKj1_ENtNtNtNtB9_4iter6traits8iterator8Iterator4nextCs9E08dBcDM90_15zerocopy_derive, symObjAddr: 0x2B10, symBinAddr: 0x50320, symSize: 0x30 }
  - { offset: 0xBED0D, size: 0x8, addend: 0x0, symName: __RNvXs2_NtNtCsieiGu2EXtoJ_4core5array4iterINtB5_8IntoIterINtNtB9_6option6OptionNtCsaKzlTDPUHDb_11proc_macro211TokenStreamEKj3_ENtNtNtNtB9_4iter6traits8iterator8Iterator4nextCs9E08dBcDM90_15zerocopy_derive, symObjAddr: 0x2B40, symBinAddr: 0x50350, symSize: 0x30 }
  - { offset: 0xBED42, size: 0x8, addend: 0x0, symName: __RNvXs2_NtNtCsieiGu2EXtoJ_4core5array4iterINtB5_8IntoIterNtCsaKzlTDPUHDb_11proc_macro211TokenStreamKj2_ENtNtNtNtB9_4iter6traits8iterator8Iterator4nextCs9E08dBcDM90_15zerocopy_derive, symObjAddr: 0x2B70, symBinAddr: 0x50380, symSize: 0x30 }
  - { offset: 0xBED77, size: 0x8, addend: 0x0, symName: __RNvXs2_NtNtCsieiGu2EXtoJ_4core5array4iterINtB5_8IntoIterNtCsaKzlTDPUHDb_11proc_macro211TokenStreamKj2_ENtNtNtNtB9_4iter6traits8iterator8Iterator9size_hintCs9E08dBcDM90_15zerocopy_derive, symObjAddr: 0x2BA0, symBinAddr: 0x503B0, symSize: 0x30 }
  - { offset: 0xBEDF0, size: 0x8, addend: 0x0, symName: __RNvXs4_NtNtCsieiGu2EXtoJ_4core5array4iterINtB5_8IntoIterINtNtB9_6option6OptionNtCsaKzlTDPUHDb_11proc_macro211TokenStreamEKj1_ENtNtNtB9_3ops4drop4Drop4dropCs9E08dBcDM90_15zerocopy_derive, symObjAddr: 0x2BD0, symBinAddr: 0x503E0, symSize: 0x10 }
  - { offset: 0xBEE23, size: 0x8, addend: 0x0, symName: __RNvXs4_NtNtCsieiGu2EXtoJ_4core5array4iterINtB5_8IntoIterINtNtB9_6option6OptionNtCsaKzlTDPUHDb_11proc_macro211TokenStreamEKj3_ENtNtNtB9_3ops4drop4Drop4dropCs9E08dBcDM90_15zerocopy_derive, symObjAddr: 0x2BE0, symBinAddr: 0x503F0, symSize: 0x10 }
  - { offset: 0xBEE56, size: 0x8, addend: 0x0, symName: __RNvXs4_NtNtCsieiGu2EXtoJ_4core5array4iterINtB5_8IntoIterNtCsaKzlTDPUHDb_11proc_macro211TokenStreamKj2_ENtNtNtB9_3ops4drop4Drop4dropCs9E08dBcDM90_15zerocopy_derive, symObjAddr: 0x2BF0, symBinAddr: 0x50400, symSize: 0x10 }
  - { offset: 0xBEE89, size: 0x8, addend: 0x0, symName: __RNvXs4_NtNtCsieiGu2EXtoJ_4core5array4iterINtB5_8IntoIterjKj2_ENtNtNtB9_3ops4drop4Drop4dropCs9E08dBcDM90_15zerocopy_derive, symObjAddr: 0x2C00, symBinAddr: 0x50410, symSize: 0x10 }
  - { offset: 0xBFD38, size: 0x8, addend: 0x0, symName: __RINvYINtNtCsdGrGZaRBwMb_3syn10punctuated11PrivateIterNtNtB8_4data7VariantNtNtB8_5token5CommaENtNtNtNtCsieiGu2EXtoJ_4core4iter6traits8iterator8Iterator8try_foldINtNtNtB1B_3num7nonzero7NonZerojENCNvXs_NvB1t_10advance_byB3_NtB3b_13SpecAdvanceBy15spec_advance_by0INtNtB1B_6option6OptionB2x_EECs9E08dBcDM90_15zerocopy_derive, symObjAddr: 0x710, symBinAddr: 0x4DF20, symSize: 0x130 }
  - { offset: 0xBFDEC, size: 0x8, addend: 0x0, symName: __RINvYINtNtCsdGrGZaRBwMb_3syn10punctuated11PrivateIterNtNtB8_8generics14WherePredicateNtNtB8_5token5CommaENtNtNtNtCsieiGu2EXtoJ_4core4iter6traits8iterator8Iterator8try_foldINtNtNtB1N_3num7nonzero7NonZerojENCNvXs_NvB1F_10advance_byB3_NtB3n_13SpecAdvanceBy15spec_advance_by0INtNtB1N_6option6OptionB2J_EECs9E08dBcDM90_15zerocopy_derive, symObjAddr: 0x840, symBinAddr: 0x4E050, symSize: 0x130 }
  - { offset: 0xBFEA0, size: 0x8, addend: 0x0, symName: __RINvYINtNtCsdGrGZaRBwMb_3syn10punctuated4IterNtNtB8_4data5FieldENtNtNtNtCsieiGu2EXtoJ_4core4iter6traits8iterator8Iterator3mapNtNtB8_8generics14WherePredicateNCNvNtNtCs9E08dBcDM90_15zerocopy_derive6derive10from_bytes22derive_from_zeros_enum0EB2D_, symObjAddr: 0x970, symBinAddr: 0x4E180, symSize: 0x20 }
  - { offset: 0xBFF0D, size: 0x8, addend: 0x0, symName: __RINvYINtNtCsdGrGZaRBwMb_3syn10punctuated4IterNtNtB8_4data5FieldENtNtNtNtCsieiGu2EXtoJ_4core4iter6traits8iterator8Iterator3mapRNtNtB8_2ty4TypeNCNCNvNtNtCs9E08dBcDM90_15zerocopy_derive6derive14try_from_bytes24generate_variant_structs00EB2p_, symObjAddr: 0x990, symBinAddr: 0x4E1A0, symSize: 0x20 }
  - { offset: 0xBFF65, size: 0x8, addend: 0x0, symName: __RINvYINtNtCsdGrGZaRBwMb_3syn10punctuated4IterNtNtB8_4data7VariantENtNtNtNtCsieiGu2EXtoJ_4core4iter6traits8iterator8Iterator10filter_mapNtCsaKzlTDPUHDb_11proc_macro211TokenStreamNCNvNtNtCs9E08dBcDM90_15zerocopy_derive6derive14try_from_bytes23generate_variants_union0EB2X_, symObjAddr: 0x9B0, symBinAddr: 0x4E1C0, symSize: 0x30 }
  - { offset: 0xBFFD2, size: 0x8, addend: 0x0, symName: __RINvYINtNtCsdGrGZaRBwMb_3syn10punctuated4IterNtNtB8_4data7VariantENtNtNtNtCsieiGu2EXtoJ_4core4iter6traits8iterator8Iterator10filter_mapNtCsaKzlTDPUHDb_11proc_macro211TokenStreamNCNvNtNtCs9E08dBcDM90_15zerocopy_derive6derive14try_from_bytes24generate_variant_structs0EB2X_, symObjAddr: 0x9E0, symBinAddr: 0x4E1F0, symSize: 0x50 }
  - { offset: 0xC0040, size: 0x8, addend: 0x0, symName: __RINvYINtNtCsdGrGZaRBwMb_3syn10punctuated4IterNtNtB8_4data7VariantENtNtNtNtCsieiGu2EXtoJ_4core4iter6traits8iterator8Iterator3mapNtCsaKzlTDPUHDb_11proc_macro211TokenStreamNCNvNtCs9E08dBcDM90_15zerocopy_derive4util17generate_tag_enum0EB2N_, symObjAddr: 0xA30, symBinAddr: 0x4E240, symSize: 0x20 }
  - { offset: 0xC0098, size: 0x8, addend: 0x0, symName: __RINvYINtNtCsdGrGZaRBwMb_3syn10punctuated4IterNtNtB8_4data7VariantENtNtNtNtCsieiGu2EXtoJ_4core4iter6traits8iterator8Iterator3mapNtCsaKzlTDPUHDb_11proc_macro211TokenStreamNCNvNtNtCs9E08dBcDM90_15zerocopy_derive6derive14try_from_bytes19derive_is_bit_valids_0EB2P_, symObjAddr: 0xA50, symBinAddr: 0x4E260, symSize: 0x30 }
  - { offset: 0xC0106, size: 0x8, addend: 0x0, symName: __RINvYINtNtCsdGrGZaRBwMb_3syn10punctuated4IterNtNtB8_4data7VariantENtNtNtNtCsieiGu2EXtoJ_4core4iter6traits8iterator8Iterator3mapNtCsaKzlTDPUHDb_11proc_macro211TokenStreamNCNvNtNtCs9E08dBcDM90_15zerocopy_derive6derive14try_from_bytes19generate_tag_consts0EB2P_, symObjAddr: 0xA80, symBinAddr: 0x4E290, symSize: 0x20 }
  - { offset: 0xC015E, size: 0x8, addend: 0x0, symName: __RINvYINtNtCsdGrGZaRBwMb_3syn10punctuated4IterNtNtB8_4data7VariantENtNtNtNtCsieiGu2EXtoJ_4core4iter6traits8iterator8Iterator3mapRNtBJ_6FieldsNCNvXs1_NtCs9E08dBcDM90_15zerocopy_derive4utilNtNtB8_6derive8DataEnumNtB2m_7DataExt6fields0EB2o_, symObjAddr: 0xAA0, symBinAddr: 0x4E2B0, symSize: 0x20 }
  - { offset: 0xC01B6, size: 0x8, addend: 0x0, symName: __RINvYINtNtCsdGrGZaRBwMb_3syn10punctuated4IterNtNtB8_4data7VariantENtNtNtNtCsieiGu2EXtoJ_4core4iter6traits8iterator8Iterator3mapTINtNtB1a_6option6OptionRBH_EINtNtCslJiobkLta79_5alloc3vec3VecTRNtNtB8_11restriction10VisibilityNtCsaKzlTDPUHDb_11proc_macro211TokenStreamRNtNtB8_2ty4TypeEEENCNvXs1_NtCs9E08dBcDM90_15zerocopy_derive4utilNtNtB8_6derive8DataEnumNtB4G_7DataExt8variants0EB4I_, symObjAddr: 0xAC0, symBinAddr: 0x4E2D0, symSize: 0x20 }
  - { offset: 0xC020E, size: 0x8, addend: 0x0, symName: __RINvYINtNtCsdGrGZaRBwMb_3syn10punctuated4IterNtNtB8_4data7VariantENtNtNtNtCsieiGu2EXtoJ_4core4iter6traits8iterator8Iterator8find_mapNtCsaKzlTDPUHDb_11proc_macro211TokenStreamQNCNvNtNtCs9E08dBcDM90_15zerocopy_derive6derive14try_from_bytes23generate_variants_union0EB2V_, symObjAddr: 0xAE0, symBinAddr: 0x4E2F0, symSize: 0xD0 }
  - { offset: 0xC0297, size: 0x8, addend: 0x0, symName: __RINvYINtNtCsdGrGZaRBwMb_3syn10punctuated4IterNtNtB8_4data7VariantENtNtNtNtCsieiGu2EXtoJ_4core4iter6traits8iterator8Iterator8find_mapNtCsaKzlTDPUHDb_11proc_macro211TokenStreamQNCNvNtNtCs9E08dBcDM90_15zerocopy_derive6derive14try_from_bytes24generate_variant_structs0EB2V_, symObjAddr: 0xBB0, symBinAddr: 0x4E3C0, symSize: 0xD0 }
  - { offset: 0xC0320, size: 0x8, addend: 0x0, symName: __RINvYINtNtCsdGrGZaRBwMb_3syn10punctuated4IterNtNtB8_4data7VariantENtNtNtNtCsieiGu2EXtoJ_4core4iter6traits8iterator8Iterator8flat_mapRNtBJ_6FieldsNCNvXs1_NtCs9E08dBcDM90_15zerocopy_derive4utilNtNtB8_6derive8DataEnumNtB2r_7DataExt6fields0EB2t_, symObjAddr: 0xC80, symBinAddr: 0x4E490, symSize: 0x80 }
  - { offset: 0xC03BB, size: 0x8, addend: 0x0, symName: __RINvYINtNtCsdGrGZaRBwMb_3syn10punctuated4IterNtNtB8_4data7VariantENtNtNtNtCsieiGu2EXtoJ_4core4iter6traits8iterator8Iterator8try_foldINtNtNtB1a_3num7nonzero7NonZerojENCNvXs_NvB12_10advance_byB3_NtB2K_13SpecAdvanceBy15spec_advance_by0INtNtB1a_6option6OptionB26_EECs9E08dBcDM90_15zerocopy_derive, symObjAddr: 0xD00, symBinAddr: 0x4E510, symSize: 0x130 }
  - { offset: 0xC046F, size: 0x8, addend: 0x0, symName: __RINvYINtNtCsdGrGZaRBwMb_3syn10punctuated4IterNtNtB8_4data7VariantENtNtNtNtCsieiGu2EXtoJ_4core4iter6traits8iterator8Iterator8try_folduNCINvNvB12_8find_map5checkRBH_NtCsaKzlTDPUHDb_11proc_macro211TokenStreamQNCNvNtNtCs9E08dBcDM90_15zerocopy_derive6derive14try_from_bytes23generate_variants_union0E0INtNtNtB1a_3ops12control_flow11ControlFlowB2B_EEB3q_, symObjAddr: 0xE30, symBinAddr: 0x4E640, symSize: 0x160 }
  - { offset: 0xC052B, size: 0x8, addend: 0x0, symName: __RINvYINtNtCsdGrGZaRBwMb_3syn10punctuated4IterNtNtB8_4data7VariantENtNtNtNtCsieiGu2EXtoJ_4core4iter6traits8iterator8Iterator8try_folduNCINvNvB12_8find_map5checkRBH_NtCsaKzlTDPUHDb_11proc_macro211TokenStreamQNCNvNtNtCs9E08dBcDM90_15zerocopy_derive6derive14try_from_bytes24generate_variant_structs0E0INtNtNtB1a_3ops12control_flow11ControlFlowB2B_EEB3q_, symObjAddr: 0xF90, symBinAddr: 0x4E7A0, symSize: 0x160 }
  - { offset: 0xC05E7, size: 0x8, addend: 0x0, symName: __RINvYINtNtCsdGrGZaRBwMb_3syn10punctuated4IterNtNtB8_8generics12GenericParamENtNtNtNtCsieiGu2EXtoJ_4core4iter6traits8iterator8Iterator3mapNtCsaKzlTDPUHDb_11proc_macro211TokenStreamNCNvMs8_NtCs9E08dBcDM90_15zerocopy_derive4utilNtB2Z_16ImplBlockBuilder5builds3_0EB31_, symObjAddr: 0x10F0, symBinAddr: 0x4E900, symSize: 0x20 }
  - { offset: 0xC063F, size: 0x8, addend: 0x0, symName: __RINvYINtNtCsdGrGZaRBwMb_3syn10punctuated8IntoIterNtNtB8_8generics12GenericParamENtNtNtNtCsieiGu2EXtoJ_4core4iter6traits8iterator8Iterator3mapBL_NCNvMs8_NtCs9E08dBcDM90_15zerocopy_derive4utilNtB2q_16ImplBlockBuilder5builds1_0EB2s_, symObjAddr: 0x1110, symBinAddr: 0x4E920, symSize: 0x30 }
  - { offset: 0xC06AC, size: 0x8, addend: 0x0, symName: __RINvYINtNtNtCsieiGu2EXtoJ_4core5array4iter8IntoIterNtCsaKzlTDPUHDb_11proc_macro211TokenStreamKj2_ENtNtNtNtBa_4iter6traits8iterator8Iterator3mapNtNtBP_3imp11TokenStreamNCINvXsb_BP_BN_INtNtB1C_7collect12FromIteratorBN_E9from_iterB3_E0ECs9E08dBcDM90_15zerocopy_derive, symObjAddr: 0x1140, symBinAddr: 0x4E950, symSize: 0x30 }
  - { offset: 0xC071A, size: 0x8, addend: 0x0, symName: __RINvYINtNtNtCsieiGu2EXtoJ_4core5array4iter8IntoIterNtCsaKzlTDPUHDb_11proc_macro211TokenStreamKj2_ENtNtNtNtBa_4iter6traits8iterator8Iterator7collectBN_ECs9E08dBcDM90_15zerocopy_derive, symObjAddr: 0x1170, symBinAddr: 0x4E980, symSize: 0x70 }
  - { offset: 0xC07B0, size: 0x8, addend: 0x0, symName: __RINvYNtNtCsaKzlTDPUHDb_11proc_macro212token_stream8IntoIterNtNtNtNtCsieiGu2EXtoJ_4core4iter6traits8iterator8Iterator4folduNCINvNvBV_8for_each4callNtB7_9TokenTreeNCINvXsa_NtB7_8fallbackNtB2I_11TokenStreamINtNtBZ_7collect6ExtendB2k_E6extendNtB7_11TokenStreamE0E0ECs9E08dBcDM90_15zerocopy_derive, symObjAddr: 0x11E0, symBinAddr: 0x4E9F0, symSize: 0x100 }
  - { offset: 0xC0842, size: 0x8, addend: 0x0, symName: __RINvYNtNtCsaKzlTDPUHDb_11proc_macro212token_stream8IntoIterNtNtNtNtCsieiGu2EXtoJ_4core4iter6traits8iterator8Iterator8for_eachNCINvXsa_NtB7_8fallbackNtB28_11TokenStreamINtNtBZ_7collect6ExtendNtB7_9TokenTreeE6extendNtB7_11TokenStreamE0ECs9E08dBcDM90_15zerocopy_derive, symObjAddr: 0x12E0, symBinAddr: 0x4EAF0, symSize: 0x20 }
  - { offset: 0xC0898, size: 0x8, addend: 0x0, symName: __RNvXs_NvNtNtNtNtCsieiGu2EXtoJ_4core4iter6traits8iterator8Iterator10advance_byINtNtCsdGrGZaRBwMb_3syn10punctuated11PrivateIterNtNtB1i_4data7VariantNtNtB1i_5token5CommaENtB4_13SpecAdvanceBy15spec_advance_byCs9E08dBcDM90_15zerocopy_derive, symObjAddr: 0x3800, symBinAddr: 0x51010, symSize: 0x90 }
  - { offset: 0xC0946, size: 0x8, addend: 0x0, symName: __RNvXs_NvNtNtNtNtCsieiGu2EXtoJ_4core4iter6traits8iterator8Iterator10advance_byINtNtCsdGrGZaRBwMb_3syn10punctuated11PrivateIterNtNtB1i_8generics14WherePredicateNtNtB1i_5token5CommaENtB4_13SpecAdvanceBy15spec_advance_byCs9E08dBcDM90_15zerocopy_derive, symObjAddr: 0x3890, symBinAddr: 0x510A0, symSize: 0x90 }
  - { offset: 0xC09F4, size: 0x8, addend: 0x0, symName: __RNvXs_NvNtNtNtNtCsieiGu2EXtoJ_4core4iter6traits8iterator8Iterator10advance_byINtNtCsdGrGZaRBwMb_3syn10punctuated4IterNtNtB1i_4data7VariantENtB4_13SpecAdvanceBy15spec_advance_byCs9E08dBcDM90_15zerocopy_derive, symObjAddr: 0x3920, symBinAddr: 0x51130, symSize: 0x90 }
  - { offset: 0xC0ABF, size: 0x8, addend: 0x0, symName: __RNvYINtNtCsdGrGZaRBwMb_3syn10punctuated11PrivateIterNtNtB7_4data7VariantNtNtB7_5token5CommaENtNtNtNtCsieiGu2EXtoJ_4core4iter6traits8iterator8Iterator10advance_byCs9E08dBcDM90_15zerocopy_derive, symObjAddr: 0x6620, symBinAddr: 0x53E30, symSize: 0x20 }
  - { offset: 0xC0B05, size: 0x8, addend: 0x0, symName: __RNvYINtNtCsdGrGZaRBwMb_3syn10punctuated11PrivateIterNtNtB7_4data7VariantNtNtB7_5token5CommaENtNtNtNtCsieiGu2EXtoJ_4core4iter6traits8iterator8Iterator3nthCs9E08dBcDM90_15zerocopy_derive, symObjAddr: 0x6640, symBinAddr: 0x53E50, symSize: 0x80 }
  - { offset: 0xC0BD5, size: 0x8, addend: 0x0, symName: __RNvYINtNtCsdGrGZaRBwMb_3syn10punctuated11PrivateIterNtNtB7_4data7VariantNtNtB7_5token5CommaENtNtNtNtCsieiGu2EXtoJ_4core4iter6traits8iterator8Iterator9size_hintCs9E08dBcDM90_15zerocopy_derive, symObjAddr: 0x66C0, symBinAddr: 0x53ED0, symSize: 0x30 }
  - { offset: 0xC0C0A, size: 0x8, addend: 0x0, symName: __RNvYINtNtCsdGrGZaRBwMb_3syn10punctuated11PrivateIterNtNtB7_8generics14WherePredicateNtNtB7_5token5CommaENtNtNtNtCsieiGu2EXtoJ_4core4iter6traits8iterator8Iterator10advance_byCs9E08dBcDM90_15zerocopy_derive, symObjAddr: 0x6920, symBinAddr: 0x54130, symSize: 0x20 }
  - { offset: 0xC0C50, size: 0x8, addend: 0x0, symName: __RNvYINtNtCsdGrGZaRBwMb_3syn10punctuated11PrivateIterNtNtB7_8generics14WherePredicateNtNtB7_5token5CommaENtNtNtNtCsieiGu2EXtoJ_4core4iter6traits8iterator8Iterator3nthCs9E08dBcDM90_15zerocopy_derive, symObjAddr: 0x6940, symBinAddr: 0x54150, symSize: 0x80 }
  - { offset: 0xC0D20, size: 0x8, addend: 0x0, symName: __RNvYINtNtCsdGrGZaRBwMb_3syn10punctuated11PrivateIterNtNtB7_8generics14WherePredicateNtNtB7_5token5CommaENtNtNtNtCsieiGu2EXtoJ_4core4iter6traits8iterator8Iterator9size_hintCs9E08dBcDM90_15zerocopy_derive, symObjAddr: 0x69C0, symBinAddr: 0x541D0, symSize: 0x30 }
  - { offset: 0xC0D55, size: 0x8, addend: 0x0, symName: __RNvYINtNtCsdGrGZaRBwMb_3syn10punctuated4IterNtNtB7_4data5FieldENtNtNtNtCsieiGu2EXtoJ_4core4iter6traits8iterator8Iterator9enumerateCs9E08dBcDM90_15zerocopy_derive, symObjAddr: 0x69F0, symBinAddr: 0x54200, symSize: 0x20 }
  - { offset: 0xC0DA1, size: 0x8, addend: 0x0, symName: __RNvYINtNtCsdGrGZaRBwMb_3syn10punctuated4IterNtNtB7_4data7VariantENtNtNtNtCsieiGu2EXtoJ_4core4iter6traits8iterator8Iterator10advance_byCs9E08dBcDM90_15zerocopy_derive, symObjAddr: 0x6A10, symBinAddr: 0x54220, symSize: 0x20 }
  - { offset: 0xC0DE7, size: 0x8, addend: 0x0, symName: __RNvYINtNtCsdGrGZaRBwMb_3syn10punctuated4IterNtNtB7_4data7VariantENtNtNtNtCsieiGu2EXtoJ_4core4iter6traits8iterator8Iterator3nthCs9E08dBcDM90_15zerocopy_derive, symObjAddr: 0x6A30, symBinAddr: 0x54240, symSize: 0x80 }
  - { offset: 0xC0EB7, size: 0x8, addend: 0x0, symName: __RNvYINtNtCsdGrGZaRBwMb_3syn10punctuated4IterNtNtB7_4data7VariantENtNtNtNtCsieiGu2EXtoJ_4core4iter6traits8iterator8Iterator9enumerateCs9E08dBcDM90_15zerocopy_derive, symObjAddr: 0x6AB0, symBinAddr: 0x542C0, symSize: 0x20 }
  - { offset: 0xC0F03, size: 0x8, addend: 0x0, symName: __RNvYINtNtNtCsieiGu2EXtoJ_4core5array4iter8IntoIterINtNtB9_6option6OptionNtCsaKzlTDPUHDb_11proc_macro211TokenStreamEKj1_ENtNtNtNtB9_4iter6traits8iterator8Iterator4fuseCs9E08dBcDM90_15zerocopy_derive, symObjAddr: 0x6AD0, symBinAddr: 0x542E0, symSize: 0x50 }
  - { offset: 0xC0F50, size: 0x8, addend: 0x0, symName: __RNvYINtNtNtCsieiGu2EXtoJ_4core5array4iter8IntoIterINtNtB9_6option6OptionNtCsaKzlTDPUHDb_11proc_macro211TokenStreamEKj1_ENtNtNtNtB9_4iter6traits8iterator8Iterator7flattenCs9E08dBcDM90_15zerocopy_derive, symObjAddr: 0x6B20, symBinAddr: 0x54330, symSize: 0xC0 }
  - { offset: 0xC0FC5, size: 0x8, addend: 0x0, symName: __RNvYINtNtNtCsieiGu2EXtoJ_4core5array4iter8IntoIterINtNtB9_6option6OptionNtCsaKzlTDPUHDb_11proc_macro211TokenStreamEKj3_ENtNtNtNtB9_4iter6traits8iterator8Iterator4fuseCs9E08dBcDM90_15zerocopy_derive, symObjAddr: 0x6BE0, symBinAddr: 0x543F0, symSize: 0x60 }
  - { offset: 0xC1012, size: 0x8, addend: 0x0, symName: __RNvYINtNtNtCsieiGu2EXtoJ_4core5array4iter8IntoIterINtNtB9_6option6OptionNtCsaKzlTDPUHDb_11proc_macro211TokenStreamEKj3_ENtNtNtNtB9_4iter6traits8iterator8Iterator7flattenCs9E08dBcDM90_15zerocopy_derive, symObjAddr: 0x6C40, symBinAddr: 0x54450, symSize: 0xD0 }
  - { offset: 0xC113A, size: 0x8, addend: 0x0, symName: __RNvYINtNtCsdGrGZaRBwMb_3syn10punctuated11PrivateIterNtNtB7_4data7VariantNtNtB7_5token5CommaENtNtNtNtCsieiGu2EXtoJ_4core4iter6traits10exact_size17ExactSizeIterator8is_emptyCs9E08dBcDM90_15zerocopy_derive, symObjAddr: 0x63F0, symBinAddr: 0x53C00, symSize: 0x20 }
  - { offset: 0xC116F, size: 0x8, addend: 0x0, symName: __RNvYINtNtCsdGrGZaRBwMb_3syn10punctuated11PrivateIterNtNtB7_8generics14WherePredicateNtNtB7_5token5CommaENtNtNtNtCsieiGu2EXtoJ_4core4iter6traits10exact_size17ExactSizeIterator8is_emptyCs9E08dBcDM90_15zerocopy_derive, symObjAddr: 0x66F0, symBinAddr: 0x53F00, symSize: 0x20 }
  - { offset: 0xC11B0, size: 0x8, addend: 0x0, symName: __RNvXNtNtNtCsieiGu2EXtoJ_4core4iter6traits7collectINtNtCsdGrGZaRBwMb_3syn10punctuated4IterNtNtBQ_8generics14WherePredicateENtB2_12IntoIterator9into_iterCs9E08dBcDM90_15zerocopy_derive, symObjAddr: 0x2A00, symBinAddr: 0x50210, symSize: 0x20 }
  - { offset: 0xC11E7, size: 0x8, addend: 0x0, symName: __RNvXNtNtNtCsieiGu2EXtoJ_4core4iter6traits7collectINtNtNtB8_5array4iter8IntoIterNtCsaKzlTDPUHDb_11proc_macro211TokenStreamKj2_ENtB2_12IntoIterator9into_iterCs9E08dBcDM90_15zerocopy_derive, symObjAddr: 0x2A20, symBinAddr: 0x50230, symSize: 0x30 }
  - { offset: 0xC122B, size: 0x8, addend: 0x0, symName: __RNvYINtNtCsdGrGZaRBwMb_3syn10punctuated11PrivateIterNtNtB7_4data7VariantNtNtB7_5token5CommaENtNtNtNtCsieiGu2EXtoJ_4core4iter6traits12double_ended19DoubleEndedIterator15advance_back_byCs9E08dBcDM90_15zerocopy_derive, symObjAddr: 0x6410, symBinAddr: 0x53C20, symSize: 0x1A0 }
  - { offset: 0xC13AA, size: 0x8, addend: 0x0, symName: __RNvYINtNtCsdGrGZaRBwMb_3syn10punctuated11PrivateIterNtNtB7_4data7VariantNtNtB7_5token5CommaENtNtNtNtCsieiGu2EXtoJ_4core4iter6traits12double_ended19DoubleEndedIterator8nth_backCs9E08dBcDM90_15zerocopy_derive, symObjAddr: 0x65B0, symBinAddr: 0x53DC0, symSize: 0x70 }
  - { offset: 0xC1428, size: 0x8, addend: 0x0, symName: __RNvYINtNtCsdGrGZaRBwMb_3syn10punctuated11PrivateIterNtNtB7_8generics14WherePredicateNtNtB7_5token5CommaENtNtNtNtCsieiGu2EXtoJ_4core4iter6traits12double_ended19DoubleEndedIterator15advance_back_byCs9E08dBcDM90_15zerocopy_derive, symObjAddr: 0x6710, symBinAddr: 0x53F20, symSize: 0x1A0 }
  - { offset: 0xC15A7, size: 0x8, addend: 0x0, symName: __RNvYINtNtCsdGrGZaRBwMb_3syn10punctuated11PrivateIterNtNtB7_8generics14WherePredicateNtNtB7_5token5CommaENtNtNtNtCsieiGu2EXtoJ_4core4iter6traits12double_ended19DoubleEndedIterator8nth_backCs9E08dBcDM90_15zerocopy_derive, symObjAddr: 0x68B0, symBinAddr: 0x540C0, symSize: 0x70 }
  - { offset: 0xC2924, size: 0x8, addend: 0x0, symName: __RINvNtCs9OU1sGv5X54_5quote9___private8get_spanNtCsaKzlTDPUHDb_11proc_macro24SpanECs9E08dBcDM90_15zerocopy_derive, symObjAddr: 0x0, symBinAddr: 0x4D810, symSize: 0x20 }
  - { offset: 0xC299A, size: 0x8, addend: 0x0, symName: __RNvXs5_NtCs9OU1sGv5X54_5quote9___privateINtB5_9RepInterpNtCsaKzlTDPUHDb_11proc_macro211TokenStreamENtNtB7_9to_tokens8ToTokens9to_tokensCs9E08dBcDM90_15zerocopy_derive, symObjAddr: 0x2C10, symBinAddr: 0x50420, symSize: 0x30 }
  - { offset: 0xC29D9, size: 0x8, addend: 0x0, symName: __RNvXs5_NtCs9OU1sGv5X54_5quote9___privateINtB5_9RepInterpNtCsaKzlTDPUHDb_11proc_macro25IdentENtNtB7_9to_tokens8ToTokens9to_tokensCs9E08dBcDM90_15zerocopy_derive, symObjAddr: 0x2C40, symBinAddr: 0x50450, symSize: 0x30 }
  - { offset: 0xC2A18, size: 0x8, addend: 0x0, symName: __RNvXs5_NtCs9OU1sGv5X54_5quote9___privateINtB5_9RepInterpNtNtCsdGrGZaRBwMb_3syn4path4PathENtNtB7_9to_tokens8ToTokens9to_tokensCs9E08dBcDM90_15zerocopy_derive, symObjAddr: 0x2C70, symBinAddr: 0x50480, symSize: 0x30 }
  - { offset: 0xC2A57, size: 0x8, addend: 0x0, symName: __RNvXs5_NtCs9OU1sGv5X54_5quote9___privateINtB5_9RepInterpRINtNtCslJiobkLta79_5alloc5boxed3BoxNtNtCsdGrGZaRBwMb_3syn4expr4ExprEENtNtB7_9to_tokens8ToTokens9to_tokensCs9E08dBcDM90_15zerocopy_derive, symObjAddr: 0x2CA0, symBinAddr: 0x504B0, symSize: 0x30 }
  - { offset: 0xC2A96, size: 0x8, addend: 0x0, symName: __RNvXs5_NtCs9OU1sGv5X54_5quote9___privateINtB5_9RepInterpRNtCsaKzlTDPUHDb_11proc_macro211TokenStreamENtNtB7_9to_tokens8ToTokens9to_tokensCs9E08dBcDM90_15zerocopy_derive, symObjAddr: 0x2CD0, symBinAddr: 0x504E0, symSize: 0x30 }
  - { offset: 0xC2AD5, size: 0x8, addend: 0x0, symName: __RNvXs5_NtCs9OU1sGv5X54_5quote9___privateINtB5_9RepInterpRNtCsaKzlTDPUHDb_11proc_macro25IdentENtNtB7_9to_tokens8ToTokens9to_tokensCs9E08dBcDM90_15zerocopy_derive, symObjAddr: 0x2D00, symBinAddr: 0x50510, symSize: 0x30 }
  - { offset: 0xC2B14, size: 0x8, addend: 0x0, symName: __RNvXs5_NtCs9OU1sGv5X54_5quote9___privateINtB5_9RepInterpRNtNtCsdGrGZaRBwMb_3syn2ty4TypeENtNtB7_9to_tokens8ToTokens9to_tokensCs9E08dBcDM90_15zerocopy_derive, symObjAddr: 0x2D30, symBinAddr: 0x50540, symSize: 0x30 }
  - { offset: 0xC2B53, size: 0x8, addend: 0x0, symName: __RNvXs5_NtCs9OU1sGv5X54_5quote9___privateINtB5_9RepInterpRNtNtCsdGrGZaRBwMb_3syn4path4PathENtNtB7_9to_tokens8ToTokens9to_tokensCs9E08dBcDM90_15zerocopy_derive, symObjAddr: 0x2D60, symBinAddr: 0x50570, symSize: 0x30 }
  - { offset: 0xC2B92, size: 0x8, addend: 0x0, symName: __RNvXs5_NtCs9OU1sGv5X54_5quote9___privateINtB5_9RepInterpRNtNtCsdGrGZaRBwMb_3syn8generics12GenericParamENtNtB7_9to_tokens8ToTokens9to_tokensCs9E08dBcDM90_15zerocopy_derive, symObjAddr: 0x2D90, symBinAddr: 0x505A0, symSize: 0x30 }
  - { offset: 0xC2BD1, size: 0x8, addend: 0x0, symName: __RNvXs5_NtCs9OU1sGv5X54_5quote9___privateINtB5_9RepInterpRNtNtCsdGrGZaRBwMb_3syn8generics12TypeGenericsENtNtB7_9to_tokens8ToTokens9to_tokensCs9E08dBcDM90_15zerocopy_derive, symObjAddr: 0x2DC0, symBinAddr: 0x505D0, symSize: 0x30 }
  - { offset: 0xC2C10, size: 0x8, addend: 0x0, symName: __RNvXs5_NtCs9OU1sGv5X54_5quote9___privateINtB5_9RepInterpRNtNtCsdGrGZaRBwMb_3syn8generics14WherePredicateENtNtB7_9to_tokens8ToTokens9to_tokensCs9E08dBcDM90_15zerocopy_derive, symObjAddr: 0x2DF0, symBinAddr: 0x50600, symSize: 0x30 }
  - { offset: 0xC2C4F, size: 0x8, addend: 0x0, symName: __RNvXs5_NtCs9OU1sGv5X54_5quote9___privateINtB5_9RepInterpRRNtNtCsdGrGZaRBwMb_3syn2ty4TypeENtNtB7_9to_tokens8ToTokens9to_tokensCs9E08dBcDM90_15zerocopy_derive, symObjAddr: 0x2E20, symBinAddr: 0x50630, symSize: 0x30 }
  - { offset: 0xC2C94, size: 0x8, addend: 0x0, symName: __RNvYINtNtCs9OU1sGv5X54_5quote9___private11HasIteratorKb1_EINtB5_16CheckHasIteratorKBQ_E5checkCs9E08dBcDM90_15zerocopy_derive, symObjAddr: 0x63E0, symBinAddr: 0x53BF0, symSize: 0x10 }
  - { offset: 0xC2E83, size: 0x8, addend: 0x0, symName: __RNvXNtCs9OU1sGv5X54_5quote9to_tokensRINtNtCsdGrGZaRBwMb_3syn10punctuated10PunctuatedNtNtBE_8generics12GenericParamNtNtBE_5token5CommaENtB2_8ToTokens9to_tokensCs9E08dBcDM90_15zerocopy_derive, symObjAddr: 0x29A0, symBinAddr: 0x501B0, symSize: 0x30 }
  - { offset: 0xC2EC2, size: 0x8, addend: 0x0, symName: __RNvXNtCs9OU1sGv5X54_5quote9to_tokensRINtNtCsdGrGZaRBwMb_3syn10punctuated10PunctuatedNtNtBE_8generics14WherePredicateNtNtBE_5token5CommaENtB2_8ToTokens9to_tokensCs9E08dBcDM90_15zerocopy_derive, symObjAddr: 0x29D0, symBinAddr: 0x501E0, symSize: 0x30 }
  - { offset: 0xC2F07, size: 0x8, addend: 0x0, symName: __RNvYNtNtCsdGrGZaRBwMb_3syn4expr5IndexNtNtCs9OU1sGv5X54_5quote9to_tokens8ToTokens15to_token_streamCs9E08dBcDM90_15zerocopy_derive, symObjAddr: 0x6D10, symBinAddr: 0x54520, symSize: 0x90 }
  - { offset: 0xC36D8, size: 0x8, addend: 0x0, symName: __RNvMNtCsdGrGZaRBwMb_3syn10punctuatedINtB2_10PunctuatedNtNtB4_4attr4MetaNtNtB4_5token5CommaE10push_punctCs9E08dBcDM90_15zerocopy_derive, symObjAddr: 0x14B0, symBinAddr: 0x4ECC0, symSize: 0x230 }
  - { offset: 0xC3756, size: 0x8, addend: 0x0, symName: __RNvMNtCsdGrGZaRBwMb_3syn10punctuatedINtB2_10PunctuatedNtNtB4_4attr4MetaNtNtB4_5token5CommaE10push_valueCs9E08dBcDM90_15zerocopy_derive, symObjAddr: 0x16E0, symBinAddr: 0x4EEF0, symSize: 0x1C0 }
  - { offset: 0xC3813, size: 0x8, addend: 0x0, symName: __RNvMNtCsdGrGZaRBwMb_3syn10punctuatedINtB2_10PunctuatedNtNtB4_4attr4MetaNtNtB4_5token5CommaE16parse_terminatedCs9E08dBcDM90_15zerocopy_derive, symObjAddr: 0x18A0, symBinAddr: 0x4F0B0, symSize: 0x40 }
  - { offset: 0xC3855, size: 0x8, addend: 0x0, symName: __RNvMNtCsdGrGZaRBwMb_3syn10punctuatedINtB2_10PunctuatedNtNtB4_4attr4MetaNtNtB4_5token5CommaE17empty_or_trailingCs9E08dBcDM90_15zerocopy_derive, symObjAddr: 0x18E0, symBinAddr: 0x4F0F0, symSize: 0x30 }
  - { offset: 0xC38A1, size: 0x8, addend: 0x0, symName: __RNvMNtCsdGrGZaRBwMb_3syn10punctuatedINtB2_10PunctuatedNtNtB4_4attr4MetaNtNtB4_5token5CommaE21parse_terminated_withCs9E08dBcDM90_15zerocopy_derive, symObjAddr: 0x1910, symBinAddr: 0x4F120, symSize: 0x3A0 }
  - { offset: 0xC39A6, size: 0x8, addend: 0x0, symName: __RNvMNtCsdGrGZaRBwMb_3syn10punctuatedINtB2_10PunctuatedNtNtB4_4attr4MetaNtNtB4_5token5CommaE3lenCs9E08dBcDM90_15zerocopy_derive, symObjAddr: 0x1CB0, symBinAddr: 0x4F4C0, symSize: 0x80 }
  - { offset: 0xC39DA, size: 0x8, addend: 0x0, symName: __RNvMNtCsdGrGZaRBwMb_3syn10punctuatedINtB2_10PunctuatedNtNtB4_4attr4MetaNtNtB4_5token5CommaE3newCs9E08dBcDM90_15zerocopy_derive, symObjAddr: 0x1D30, symBinAddr: 0x4F540, symSize: 0x50 }
  - { offset: 0xC3A0D, size: 0x8, addend: 0x0, symName: __RNvMNtCsdGrGZaRBwMb_3syn10punctuatedINtB2_10PunctuatedNtNtB4_4data7VariantNtNtB4_5token5CommaE3lenCs9E08dBcDM90_15zerocopy_derive, symObjAddr: 0x1D80, symBinAddr: 0x4F590, symSize: 0x80 }
  - { offset: 0xC3A4E, size: 0x8, addend: 0x0, symName: __RNvMNtCsdGrGZaRBwMb_3syn10punctuatedINtB2_10PunctuatedNtNtB4_4data7VariantNtNtB4_5token5CommaE4iterCs9E08dBcDM90_15zerocopy_derive, symObjAddr: 0x1E00, symBinAddr: 0x4F610, symSize: 0xC0 }
  - { offset: 0xC3AAD, size: 0x8, addend: 0x0, symName: __RNvMNtCsdGrGZaRBwMb_3syn10punctuatedINtB2_10PunctuatedNtNtB4_8generics12GenericParamNtNtB4_5token5CommaE3lenCs9E08dBcDM90_15zerocopy_derive, symObjAddr: 0x1EC0, symBinAddr: 0x4F6D0, symSize: 0x80 }
  - { offset: 0xC3B29, size: 0x8, addend: 0x0, symName: __RNvMNtCsdGrGZaRBwMb_3syn10punctuatedINtB2_10PunctuatedNtNtB4_8generics14WherePredicateNtNtB4_5token5CommaE4iterCs9E08dBcDM90_15zerocopy_derive, symObjAddr: 0x1F40, symBinAddr: 0x4F750, symSize: 0xC0 }
  - { offset: 0xC3D08, size: 0x8, addend: 0x0, symName: __RNvMNtCslJiobkLta79_5alloc5allocNtB2_6Global10alloc_implCs9E08dBcDM90_15zerocopy_derive, symObjAddr: 0x2000, symBinAddr: 0x4F810, symSize: 0x290 }
  - { offset: 0xC4082, size: 0x8, addend: 0x0, symName: __RNvMs3_NtCs9OU1sGv5X54_5quote9___privateINtB5_9RepInterpRNtNtCsdGrGZaRBwMb_3syn4path4PathE4nextCs9E08dBcDM90_15zerocopy_derive, symObjAddr: 0x2290, symBinAddr: 0x4FAA0, symSize: 0x20 }
  - { offset: 0xC41FD, size: 0x8, addend: 0x0, symName: __RNvMs6_NtNtNtCsieiGu2EXtoJ_4core5array4iter10iter_innerINtB5_15PolymorphicIterSINtNtNtBb_3mem12maybe_uninit11MaybeUninitINtNtBb_6option6OptionNtCsaKzlTDPUHDb_11proc_macro211TokenStreamEEE4nextCs9E08dBcDM90_15zerocopy_derive, symObjAddr: 0x22B0, symBinAddr: 0x4FAC0, symSize: 0x240 }
  - { offset: 0xC450E, size: 0x8, addend: 0x0, symName: __RNvMs6_NtNtNtCsieiGu2EXtoJ_4core5array4iter10iter_innerINtB5_15PolymorphicIterSINtNtNtBb_3mem12maybe_uninit11MaybeUninitNtCsaKzlTDPUHDb_11proc_macro211TokenStreamEE4nextCs9E08dBcDM90_15zerocopy_derive, symObjAddr: 0x24F0, symBinAddr: 0x4FD00, symSize: 0x240 }
  - { offset: 0xC4876, size: 0x8, addend: 0x0, symName: __RNvMs6_NtNtNtCsieiGu2EXtoJ_4core5array4iter10iter_innerINtB5_15PolymorphicIterSINtNtNtBb_3mem12maybe_uninit11MaybeUninitjEE4nextCs9E08dBcDM90_15zerocopy_derive, symObjAddr: 0x2730, symBinAddr: 0x4FF40, symSize: 0x1D0 }
  - { offset: 0xC5361, size: 0x8, addend: 0x0, symName: __RINvMs0_NtCsaKzlTDPUHDb_11proc_macro25rcvecINtB6_8RcVecMutNtB8_9TokenTreeE6extendINtNtNtNtCsieiGu2EXtoJ_4core4iter8adapters7flatten7FlattenINtNtB1m_3map3MapIB2e_INtNtNtB1q_5array4iter8IntoIterNtB8_11TokenStreamKj2_ENCINvXsb_B8_B34_INtNtNtB1o_6traits7collect12FromIteratorB34_E9from_iterB2z_E0ENCINvXs6_NtB8_3impNtB4Q_11TokenStreamIB3I_B4Z_E9from_iterB2u_Es_0EEECs9E08dBcDM90_15zerocopy_derive, symObjAddr: 0x0, symBinAddr: 0x545B0, symSize: 0x30 }
  - { offset: 0xCF31E, size: 0x8, addend: 0x0, symName: __RNCINvNvXs_NtNtNtCsieiGu2EXtoJ_4core4iter8adapters9enumerateINtB9_9EnumeratepENtNtNtBd_6traits8iterator8Iterator4fold9enumerateluNCINvNtBb_3map8map_foldTjlETljEuNCINvMNtCslJiobkLta79_5alloc5sliceSNtNtCsdGrGZaRBwMb_3syn8generics12GenericParam18sort_by_cached_keylNCNvMs8_NtCs9E08dBcDM90_15zerocopy_derive4utilNtB4k_16ImplBlockBuilder5builds2_0Es_0NCINvNvB1e_8for_each4callB2u_NCINvMsi_NtB2H_3vecINtB6a_3VecB2u_E14extend_trustedINtB28_3MapIBX_IB6R_INtNtNtBf_5slice4iter4IterB38_EB4c_EEB2z_EE0E0E0E0B4m_, symObjAddr: 0x1400, symBinAddr: 0x559B0, symSize: 0x70 }
  - { offset: 0xCF3A6, size: 0x8, addend: 0x0, symName: __RNCINvNvXs_NtNtNtCsieiGu2EXtoJ_4core4iter8adapters9enumerateINtB9_9EnumeratepENtNtNtBd_6traits8iterator8Iterator4fold9enumerateluNCINvNtBb_3map8map_foldTjlETlmEuNCINvMNtCslJiobkLta79_5alloc5sliceSNtNtCsdGrGZaRBwMb_3syn8generics12GenericParam18sort_by_cached_keylNCNvMs8_NtCs9E08dBcDM90_15zerocopy_derive4utilNtB4k_16ImplBlockBuilder5builds2_0E0NCINvNvB1e_8for_each4callB2u_NCINvMsi_NtB2H_3vecINtB68_3VecB2u_E14extend_trustedINtB28_3MapIBX_IB6P_INtNtNtBf_5slice4iter4IterB38_EB4c_EEB2z_EE0E0E0E0B4m_, symObjAddr: 0x1470, symBinAddr: 0x55A20, symSize: 0x70 }
  - { offset: 0xCF472, size: 0x8, addend: 0x0, symName: __RINvXs_NtNtNtCsieiGu2EXtoJ_4core4iter8adapters9enumerateINtB5_9EnumerateINtNtB7_3map3MapINtNtNtBb_5slice4iter4IterNtNtCsdGrGZaRBwMb_3syn8generics12GenericParamENCNvMs8_NtCs9E08dBcDM90_15zerocopy_derive4utilNtB2G_16ImplBlockBuilder5builds2_0EENtNtNtB9_6traits8iterator8Iterator4folduNCINvB1b_8map_foldTjlETljEuNCINvMNtCslJiobkLta79_5alloc5sliceSB1O_18sort_by_cached_keylB2y_Es_0NCINvNvB3S_8for_each4callB4S_NCINvMsi_NtB55_3vecINtB6F_3VecB4S_E14extend_trustedIB19_BS_B4X_EE0E0E0EB2I_, symObjAddr: 0x8E0, symBinAddr: 0x54E90, symSize: 0x50 }
  - { offset: 0xCF4F9, size: 0x8, addend: 0x0, symName: __RINvXs_NtNtNtCsieiGu2EXtoJ_4core4iter8adapters9enumerateINtB5_9EnumerateINtNtB7_3map3MapINtNtNtBb_5slice4iter4IterNtNtCsdGrGZaRBwMb_3syn8generics12GenericParamENCNvMs8_NtCs9E08dBcDM90_15zerocopy_derive4utilNtB2G_16ImplBlockBuilder5builds2_0EENtNtNtB9_6traits8iterator8Iterator4folduNCINvB1b_8map_foldTjlETlmEuNCINvMNtCslJiobkLta79_5alloc5sliceSB1O_18sort_by_cached_keylB2y_E0NCINvNvB3S_8for_each4callB4S_NCINvMsi_NtB55_3vecINtB6D_3VecB4S_E14extend_trustedIB19_BS_B4X_EE0E0E0EB2I_, symObjAddr: 0x930, symBinAddr: 0x54EE0, symSize: 0x50 }
  - { offset: 0xCF580, size: 0x8, addend: 0x0, symName: __RNvXs_NtNtNtCsieiGu2EXtoJ_4core4iter8adapters9enumerateINtB4_9EnumerateINtNtB6_3map3MapINtNtNtBa_5slice4iter4IterNtNtCsdGrGZaRBwMb_3syn8generics12GenericParamENCNvMs8_NtCs9E08dBcDM90_15zerocopy_derive4utilNtB2F_16ImplBlockBuilder5builds2_0EENtNtNtB8_6traits8iterator8Iterator9size_hintB2H_, symObjAddr: 0x3FB0, symBinAddr: 0x584D0, symSize: 0x30 }
  - { offset: 0xCF5B5, size: 0x8, addend: 0x0, symName: __RNvXs_NtNtNtCsieiGu2EXtoJ_4core4iter8adapters9enumerateINtB4_9EnumerateINtNtB6_7flatten7FlatMapINtNtCsdGrGZaRBwMb_3syn10punctuated4IterNtNtB1A_4data7VariantERNtB2b_6FieldsNCNvXs1_NtCs9E08dBcDM90_15zerocopy_derive4utilNtNtB1A_6derive8DataEnumNtB2R_7DataExt6fields0EENtNtNtB8_6traits8iterator8Iterator4nextB2T_, symObjAddr: 0x3FE0, symBinAddr: 0x58500, symSize: 0xE0 }
  - { offset: 0xCF69B, size: 0x8, addend: 0x0, symName: __RNvXs_NtNtNtCsieiGu2EXtoJ_4core4iter8adapters9enumerateINtB4_9EnumerateINtNtB6_7flatten7FlatMapINtNtCsdGrGZaRBwMb_3syn10punctuated4IterNtNtB1A_4data7VariantERNtB2b_6FieldsNCNvXs1_NtCs9E08dBcDM90_15zerocopy_derive4utilNtNtB1A_6derive8DataEnumNtB2R_7DataExt6fields0EENtNtNtB8_6traits8iterator8Iterator9size_hintB2T_, symObjAddr: 0x40C0, symBinAddr: 0x585E0, symSize: 0x30 }
  - { offset: 0xCF6D0, size: 0x8, addend: 0x0, symName: __RNvXs_NtNtNtCsieiGu2EXtoJ_4core4iter8adapters9enumerateINtB4_9EnumerateINtNtCsdGrGZaRBwMb_3syn10punctuated4IterNtNtB1c_4data5FieldEENtNtNtB8_6traits8iterator8Iterator4nextCs9E08dBcDM90_15zerocopy_derive, symObjAddr: 0x40F0, symBinAddr: 0x58610, symSize: 0xE0 }
  - { offset: 0xCF7B6, size: 0x8, addend: 0x0, symName: __RNvXs_NtNtNtCsieiGu2EXtoJ_4core4iter8adapters9enumerateINtB4_9EnumerateINtNtCsdGrGZaRBwMb_3syn10punctuated4IterNtNtB1c_4data5FieldEENtNtNtB8_6traits8iterator8Iterator9size_hintCs9E08dBcDM90_15zerocopy_derive, symObjAddr: 0x41D0, symBinAddr: 0x586F0, symSize: 0x30 }
  - { offset: 0xCF7EB, size: 0x8, addend: 0x0, symName: __RNvXs_NtNtNtCsieiGu2EXtoJ_4core4iter8adapters9enumerateINtB4_9EnumerateINtNtCsdGrGZaRBwMb_3syn10punctuated4IterNtNtB1c_4data7VariantEENtNtNtB8_6traits8iterator8Iterator4nextCs9E08dBcDM90_15zerocopy_derive, symObjAddr: 0x4200, symBinAddr: 0x58720, symSize: 0xE0 }
  - { offset: 0xCF8D1, size: 0x8, addend: 0x0, symName: __RNvXs_NtNtNtCsieiGu2EXtoJ_4core4iter8adapters9enumerateINtB4_9EnumerateINtNtNtCslJiobkLta79_5alloc3vec9into_iter8IntoIterTRNtNtCsdGrGZaRBwMb_3syn11restriction10VisibilityNtCsaKzlTDPUHDb_11proc_macro211TokenStreamRNtNtB21_2ty4TypeEEENtNtNtB8_6traits8iterator8Iterator4nextCs9E08dBcDM90_15zerocopy_derive, symObjAddr: 0x42E0, symBinAddr: 0x58800, symSize: 0x1C0 }
  - { offset: 0xCFB0F, size: 0x8, addend: 0x0, symName: __RNvXs3_NtNtNtCsieiGu2EXtoJ_4core4iter8adapters3zipINtB5_3ZipINtNtNtBb_5slice4iter4IterNtCsaKzlTDPUHDb_11proc_macro25IdentEIBX_TRNtNtCsdGrGZaRBwMb_3syn11restriction10VisibilityNtB1o_11TokenStreamRNtNtB26_2ty4TypeEEEINtB5_7ZipImplBW_B1W_E3newCs9E08dBcDM90_15zerocopy_derive, symObjAddr: 0x3D50, symBinAddr: 0x58270, symSize: 0xC0 }
  - { offset: 0xCFBA3, size: 0x8, addend: 0x0, symName: __RNvXs3_NtNtNtCsieiGu2EXtoJ_4core4iter8adapters3zipINtB5_3ZipINtNtNtBb_5slice4iter4IterNtCsaKzlTDPUHDb_11proc_macro25IdentEIBX_TRNtNtCsdGrGZaRBwMb_3syn11restriction10VisibilityNtB1o_11TokenStreamRNtNtB26_2ty4TypeEEEINtB5_7ZipImplBW_B1W_E4nextCs9E08dBcDM90_15zerocopy_derive, symObjAddr: 0x3E10, symBinAddr: 0x58330, symSize: 0xA0 }
  - { offset: 0xCFBFF, size: 0x8, addend: 0x0, symName: __RNvXs_NtNtNtCsieiGu2EXtoJ_4core4iter8adapters3zipINtB4_3ZipINtNtNtBa_5slice4iter4IterNtCsaKzlTDPUHDb_11proc_macro25IdentEIBW_TRNtNtCsdGrGZaRBwMb_3syn11restriction10VisibilityNtB1n_11TokenStreamRNtNtB25_2ty4TypeEEENtNtNtB8_6traits8iterator8Iterator4nextCs9E08dBcDM90_15zerocopy_derive, symObjAddr: 0x3F90, symBinAddr: 0x584B0, symSize: 0x20 }
  - { offset: 0xCFC43, size: 0x8, addend: 0x0, symName: __RNvYINtNtNtCsieiGu2EXtoJ_4core5slice4iter4IterNtCsaKzlTDPUHDb_11proc_macro25IdentENtNtNtNtB9_4iter8adapters3zip27TrustedRandomAccessNoCoerce4sizeCs9E08dBcDM90_15zerocopy_derive, symObjAddr: 0x44C0, symBinAddr: 0x589E0, symSize: 0x30 }
  - { offset: 0xCFC7A, size: 0x8, addend: 0x0, symName: __RNvYINtNtNtCsieiGu2EXtoJ_4core5slice4iter4IterTRNtNtCsdGrGZaRBwMb_3syn11restriction10VisibilityNtCsaKzlTDPUHDb_11proc_macro211TokenStreamRNtNtBO_2ty4TypeEENtNtNtNtB9_4iter8adapters3zip27TrustedRandomAccessNoCoerce4sizeCs9E08dBcDM90_15zerocopy_derive, symObjAddr: 0x44F0, symBinAddr: 0x58A10, symSize: 0x30 }
  - { offset: 0xCFDF1, size: 0x8, addend: 0x0, symName: __RINvYINtNtNtCsieiGu2EXtoJ_4core5slice4iter4IterINtNtNtCs9E08dBcDM90_15zerocopy_derive4repr4util7SpannedNtBO_7RawReprEENtNtNtNtBa_4iter6traits8iterator8Iterator10filter_mapRNtCsaKzlTDPUHDb_11proc_macro24SpanNCNvMsa_BO_INtBO_4ReprNtBO_13PrimitiveReprINtNtNtBa_3num7nonzero7NonZeromEE16from_attrs_inner0EBQ_, symObjAddr: 0x980, symBinAddr: 0x54F30, symSize: 0x20 }
  - { offset: 0xCFE49, size: 0x8, addend: 0x0, symName: __RINvYINtNtNtCsieiGu2EXtoJ_4core5slice4iter4IterINtNtNtCs9E08dBcDM90_15zerocopy_derive4repr4util7SpannedNtBO_7RawReprEENtNtNtNtBa_4iter6traits8iterator8Iterator10filter_mapRNtCsaKzlTDPUHDb_11proc_macro24SpanNCNvMsa_BO_INtBO_4ReprNtBO_13PrimitiveReprNtNtBa_7convert10InfallibleE16from_attrs_inner0EBQ_, symObjAddr: 0x9A0, symBinAddr: 0x54F50, symSize: 0x20 }
  - { offset: 0xCFEA1, size: 0x8, addend: 0x0, symName: __RINvYINtNtNtCsieiGu2EXtoJ_4core5slice4iter4IterINtNtNtCs9E08dBcDM90_15zerocopy_derive4repr4util7SpannedNtBO_7RawReprEENtNtNtNtBa_4iter6traits8iterator8Iterator10filter_mapRNtCsaKzlTDPUHDb_11proc_macro24SpanNCNvMsa_BO_INtBO_4ReprNtNtBa_7convert10InfallibleINtNtNtBa_3num7nonzero7NonZeromEE16from_attrs_inner0EBQ_, symObjAddr: 0x9C0, symBinAddr: 0x54F70, symSize: 0x20 }
  - { offset: 0xCFEF9, size: 0x8, addend: 0x0, symName: __RINvYINtNtNtCsieiGu2EXtoJ_4core5slice4iter4IterINtNtNtCs9E08dBcDM90_15zerocopy_derive4repr4util7SpannedNtBO_7RawReprEENtNtNtNtBa_4iter6traits8iterator8Iterator8try_foldINtNtBa_6option6OptionIBK_INtBO_12CompoundReprNtBO_13PrimitiveReprEEENCINvBO_18try_from_raw_reprsNtBO_20UnsupportedReprErrorB36_B3_E0INtNtBa_6result6ResultB2G_IBK_INtBO_17FromRawReprsErrorB4f_EEEEBQ_, symObjAddr: 0x9E0, symBinAddr: 0x54F90, symSize: 0x160 }
  - { offset: 0xCFFB5, size: 0x8, addend: 0x0, symName: __RINvYINtNtNtCsieiGu2EXtoJ_4core5slice4iter4IterINtNtNtCs9E08dBcDM90_15zerocopy_derive4repr4util7SpannedNtBO_7RawReprEENtNtNtNtBa_4iter6traits8iterator8Iterator8try_foldINtNtBa_6option6OptionIBK_INtBO_12CompoundReprNtNtBa_7convert10InfallibleEEENCINvBO_18try_from_raw_reprsNtBO_20UnsupportedReprErrorB36_B3_E0INtNtBa_6result6ResultB2G_IBK_INtBO_17FromRawReprsErrorB4m_EEEEBQ_, symObjAddr: 0xB40, symBinAddr: 0x550F0, symSize: 0x160 }
  - { offset: 0xD0071, size: 0x8, addend: 0x0, symName: __RINvYINtNtNtCsieiGu2EXtoJ_4core5slice4iter4IterINtNtNtCs9E08dBcDM90_15zerocopy_derive4repr4util7SpannedNtBO_7RawReprEENtNtNtNtBa_4iter6traits8iterator8Iterator8try_foldINtNtBa_6option6OptionIBK_INtBO_9AlignReprINtNtNtBa_3num7nonzero7NonZeromEEEENCINvBO_18try_from_raw_reprsNtBO_20UnsupportedReprErrorB36_B3_E0INtNtBa_6result6ResultB2G_IBK_INtBO_17FromRawReprsErrorB4n_EEEEBQ_, symObjAddr: 0xCA0, symBinAddr: 0x55250, symSize: 0x1B0 }
  - { offset: 0xD012E, size: 0x8, addend: 0x0, symName: __RINvYINtNtNtCsieiGu2EXtoJ_4core5slice4iter4IterINtNtNtCs9E08dBcDM90_15zerocopy_derive4repr4util7SpannedNtBO_7RawReprEENtNtNtNtBa_4iter6traits8iterator8Iterator8try_foldINtNtBa_6option6OptionIBK_INtBO_9AlignReprNtNtBa_7convert10InfallibleEEENCINvBO_18try_from_raw_reprsNtBO_20UnsupportedReprErrorB36_B3_E0INtNtBa_6result6ResultB2G_IBK_INtBO_17FromRawReprsErrorB4i_EEEEBQ_, symObjAddr: 0xE50, symBinAddr: 0x55400, symSize: 0x160 }
  - { offset: 0xD01EA, size: 0x8, addend: 0x0, symName: __RINvYINtNtNtCsieiGu2EXtoJ_4core5slice4iter4IterNtCsaKzlTDPUHDb_11proc_macro25IdentENtNtNtNtBa_4iter6traits8iterator8Iterator3zipRSTRNtNtCsdGrGZaRBwMb_3syn11restriction10VisibilityNtBL_11TokenStreamRNtNtB2a_2ty4TypeEECs9E08dBcDM90_15zerocopy_derive, symObjAddr: 0xFB0, symBinAddr: 0x55560, symSize: 0xD0 }
  - { offset: 0xD0260, size: 0x8, addend: 0x0, symName: __RINvYINtNtNtCsieiGu2EXtoJ_4core5slice4iter4IterNtNtCs9E08dBcDM90_15zerocopy_derive4util10TraitBoundENtNtNtNtBa_4iter6traits8iterator8Iterator3mapNtBL_5TraitNCNvBL_16normalize_bounds0EBN_, symObjAddr: 0x1080, symBinAddr: 0x55630, symSize: 0x20 }
  - { offset: 0xD02CD, size: 0x8, addend: 0x0, symName: __RINvYINtNtNtCsieiGu2EXtoJ_4core5slice4iter4IterNtNtCs9E08dBcDM90_15zerocopy_derive4util5TraitENtNtNtNtBa_4iter6traits8iterator8Iterator6clonedBJ_EBN_, symObjAddr: 0x10A0, symBinAddr: 0x55650, symSize: 0x20 }
  - { offset: 0xD030D, size: 0x8, addend: 0x0, symName: __RINvYINtNtNtCsieiGu2EXtoJ_4core5slice4iter4IterTINtNtBa_6option6OptionRNtNtCsdGrGZaRBwMb_3syn4data7VariantEINtNtCslJiobkLta79_5alloc3vec3VecTRNtNtB1b_11restriction10VisibilityNtCsaKzlTDPUHDb_11proc_macro211TokenStreamRNtNtB1b_2ty4TypeEEEENtNtNtNtBa_4iter6traits8iterator8Iterator3mapB2N_NCNCNvMs8_NtCs9E08dBcDM90_15zerocopy_derive4utilNtB4L_16ImplBlockBuilder5builds_0s0_0EB4N_, symObjAddr: 0x10C0, symBinAddr: 0x55670, symSize: 0x20 }
  - { offset: 0xD0365, size: 0x8, addend: 0x0, symName: __RINvYINtNtNtCsieiGu2EXtoJ_4core5slice4iter4IterTRNtNtCsdGrGZaRBwMb_3syn11restriction10VisibilityNtCsaKzlTDPUHDb_11proc_macro211TokenStreamRNtNtBP_2ty4TypeEENtNtNtNtBa_4iter6traits8iterator8Iterator3mapB1w_NCNvNtNtCs9E08dBcDM90_15zerocopy_derive6derive14try_from_bytes29derive_has_field_struct_union0EB3p_, symObjAddr: 0x10E0, symBinAddr: 0x55690, symSize: 0x20 }
  - { offset: 0xD03BD, size: 0x8, addend: 0x0, symName: __RINvYINtNtNtCsieiGu2EXtoJ_4core5slice4iter4IterTRNtNtCsdGrGZaRBwMb_3syn11restriction10VisibilityNtCsaKzlTDPUHDb_11proc_macro211TokenStreamRNtNtBP_2ty4TypeEENtNtNtNtBa_4iter6traits8iterator8Iterator3mapB1w_NCNvNtNtCs9E08dBcDM90_15zerocopy_derive6derive14try_from_bytes29derive_has_field_struct_unions0_0EB3p_, symObjAddr: 0x1100, symBinAddr: 0x556B0, symSize: 0x40 }
  - { offset: 0xD042B, size: 0x8, addend: 0x0, symName: __RINvYINtNtNtCsieiGu2EXtoJ_4core5slice4iter4IterTRNtNtCsdGrGZaRBwMb_3syn11restriction10VisibilityNtCsaKzlTDPUHDb_11proc_macro211TokenStreamRNtNtBP_2ty4TypeEENtNtNtNtBa_4iter6traits8iterator8Iterator3mapNtB1y_5IdentNCNvNtNtCs9E08dBcDM90_15zerocopy_derive6derive12known_layout37derive_known_layout_for_repr_c_structs5_0EB3x_, symObjAddr: 0x1140, symBinAddr: 0x556F0, symSize: 0x20 }
  - { offset: 0xD0498, size: 0x8, addend: 0x0, symName: __RINvYINtNtNtCsieiGu2EXtoJ_4core5slice4iter4IterTRNtNtCsdGrGZaRBwMb_3syn11restriction10VisibilityNtCsaKzlTDPUHDb_11proc_macro211TokenStreamRNtNtBP_2ty4TypeEENtNtNtNtBa_4iter6traits8iterator8Iterator3mapNtB1y_5IdentNCNvNtNtCs9E08dBcDM90_15zerocopy_derive6derive12known_layout37derive_known_layout_for_repr_c_structs8_0EB3x_, symObjAddr: 0x1160, symBinAddr: 0x55710, symSize: 0x20 }
  - { offset: 0xD0505, size: 0x8, addend: 0x0, symName: __RINvYINtNtNtCsieiGu2EXtoJ_4core5slice4iter4IterTRNtNtCsdGrGZaRBwMb_3syn11restriction10VisibilityNtCsaKzlTDPUHDb_11proc_macro211TokenStreamRNtNtBP_2ty4TypeEENtNtNtNtBa_4iter6traits8iterator8Iterator3mapNtNtBP_8generics14WherePredicateNCNvMs8_NtCs9E08dBcDM90_15zerocopy_derive4utilNtB3R_16ImplBlockBuilder5build0EB3T_, symObjAddr: 0x1180, symBinAddr: 0x55730, symSize: 0x40 }
  - { offset: 0xD0573, size: 0x8, addend: 0x0, symName: __RINvYINtNtNtCsieiGu2EXtoJ_4core5slice4iter4IterTRNtNtCsdGrGZaRBwMb_3syn11restriction10VisibilityNtCsaKzlTDPUHDb_11proc_macro211TokenStreamRNtNtBP_2ty4TypeEENtNtNtNtBa_4iter6traits8iterator8Iterator3mapRB1w_NCNCNvNtNtCs9E08dBcDM90_15zerocopy_derive6derive14try_from_bytes27derive_try_from_bytes_unions_00EB3s_, symObjAddr: 0x11C0, symBinAddr: 0x55770, symSize: 0x20 }
  - { offset: 0xD05CB, size: 0x8, addend: 0x0, symName: __RINvYINtNtNtCsieiGu2EXtoJ_4core5slice4iter4IterTRNtNtCsdGrGZaRBwMb_3syn11restriction10VisibilityNtCsaKzlTDPUHDb_11proc_macro211TokenStreamRNtNtBP_2ty4TypeEENtNtNtNtBa_4iter6traits8iterator8Iterator3mapRB1w_NCNCNvNtNtCs9E08dBcDM90_15zerocopy_derive6derive14try_from_bytes28derive_try_from_bytes_struct00EB3s_, symObjAddr: 0x11E0, symBinAddr: 0x55790, symSize: 0x20 }
  - { offset: 0xD0623, size: 0x8, addend: 0x0, symName: __RINvYINtNtNtCsieiGu2EXtoJ_4core5slice4iter4IterTRNtNtCsdGrGZaRBwMb_3syn11restriction10VisibilityNtCsaKzlTDPUHDb_11proc_macro211TokenStreamRNtNtBP_2ty4TypeEENtNtNtNtBa_4iter6traits8iterator8Iterator3mapRB2c_NCNCNCNvMs8_NtCs9E08dBcDM90_15zerocopy_derive4utilNtB3u_16ImplBlockBuilder5builds_0s0_00EB3w_, symObjAddr: 0x1200, symBinAddr: 0x557B0, symSize: 0x20 }
  - { offset: 0xD067B, size: 0x8, addend: 0x0, symName: __RINvYINtNtNtCsieiGu2EXtoJ_4core5slice4iter4IterTRNtNtCsdGrGZaRBwMb_3syn11restriction10VisibilityNtCsaKzlTDPUHDb_11proc_macro211TokenStreamRNtNtBP_2ty4TypeEENtNtNtNtBa_4iter6traits8iterator8Iterator3mapRB2c_NCNCNvNtNtCs9E08dBcDM90_15zerocopy_derive6derive14try_from_bytes27derive_try_from_bytes_unions_0s_0EB3s_, symObjAddr: 0x1220, symBinAddr: 0x557D0, symSize: 0x20 }
  - { offset: 0xD06D3, size: 0x8, addend: 0x0, symName: __RINvYINtNtNtCsieiGu2EXtoJ_4core5slice4iter4IterTRNtNtCsdGrGZaRBwMb_3syn11restriction10VisibilityNtCsaKzlTDPUHDb_11proc_macro211TokenStreamRNtNtBP_2ty4TypeEENtNtNtNtBa_4iter6traits8iterator8Iterator3mapRB2c_NCNCNvNtNtCs9E08dBcDM90_15zerocopy_derive6derive14try_from_bytes28derive_try_from_bytes_struct0s_0EB3s_, symObjAddr: 0x1240, symBinAddr: 0x557F0, symSize: 0x20 }
  - { offset: 0xD072B, size: 0x8, addend: 0x0, symName: __RINvYINtNtNtCsieiGu2EXtoJ_4core5slice4iter4IterTRNtNtCsdGrGZaRBwMb_3syn11restriction10VisibilityNtCsaKzlTDPUHDb_11proc_macro211TokenStreamRNtNtBP_2ty4TypeEENtNtNtNtBa_4iter6traits8iterator8Iterator3mapRB2c_NCNvNtNtCs9E08dBcDM90_15zerocopy_derive6derive12known_layout37derive_known_layout_for_repr_c_struct0EB3q_, symObjAddr: 0x1260, symBinAddr: 0x55810, symSize: 0x20 }
  - { offset: 0xD0783, size: 0x8, addend: 0x0, symName: __RINvYINtNtNtNtCsieiGu2EXtoJ_4core4iter8adapters3zip3ZipINtNtNtBc_5slice4iter4IterNtCsaKzlTDPUHDb_11proc_macro25IdentEIBS_TRNtNtCsdGrGZaRBwMb_3syn11restriction10VisibilityNtB1j_11TokenStreamRNtNtB21_2ty4TypeEEENtNtNtBa_6traits8iterator8Iterator3mapB2I_NCNvNtNtCs9E08dBcDM90_15zerocopy_derive6derive12known_layout37derive_known_layout_for_repr_c_structs6_0EB49_, symObjAddr: 0x1280, symBinAddr: 0x55830, symSize: 0x30 }
  - { offset: 0xD07F1, size: 0x8, addend: 0x0, symName: __RINvYINtNtNtNtCsieiGu2EXtoJ_4core4iter8adapters3zip3ZipINtNtNtBc_5slice4iter4IterNtCsaKzlTDPUHDb_11proc_macro25IdentEIBS_TRNtNtCsdGrGZaRBwMb_3syn11restriction10VisibilityNtB1j_11TokenStreamRNtNtB21_2ty4TypeEEENtNtNtBa_6traits8iterator8Iterator3mapB2I_NCNvNtNtCs9E08dBcDM90_15zerocopy_derive6derive12known_layout37derive_known_layout_for_repr_c_structs7_0EB49_, symObjAddr: 0x12B0, symBinAddr: 0x55860, symSize: 0x50 }
  - { offset: 0xD0860, size: 0x8, addend: 0x0, symName: __RINvYINtNtNtNtCsieiGu2EXtoJ_4core4iter8adapters9enumerate9EnumerateINtNtB8_7flatten7FlatMapINtNtCsdGrGZaRBwMb_3syn10punctuated4IterNtNtB1w_4data7VariantERNtB27_6FieldsNCNvXs1_NtCs9E08dBcDM90_15zerocopy_derive4utilNtNtB1w_6derive8DataEnumNtB2N_7DataExt6fields0EENtNtNtBa_6traits8iterator8Iterator3mapTRNtNtB1w_11restriction10VisibilityNtCsaKzlTDPUHDb_11proc_macro211TokenStreamRNtNtB1w_2ty4TypeENCINvB2N_10map_fieldsB13_E0EB2P_, symObjAddr: 0x1300, symBinAddr: 0x558B0, symSize: 0x30 }
  - { offset: 0xD08CE, size: 0x8, addend: 0x0, symName: __RINvYINtNtNtNtCsieiGu2EXtoJ_4core4iter8adapters9enumerate9EnumerateINtNtCsdGrGZaRBwMb_3syn10punctuated4IterNtNtB18_4data5FieldEENtNtNtBa_6traits8iterator8Iterator3mapTRNtNtB18_11restriction10VisibilityNtCsaKzlTDPUHDb_11proc_macro211TokenStreamRNtNtB18_2ty4TypeENCINvNtCs9E08dBcDM90_15zerocopy_derive4util10map_fieldsRINtB16_10PunctuatedB1H_NtNtB18_5token5CommaEE0EB4i_, symObjAddr: 0x1330, symBinAddr: 0x558E0, symSize: 0x20 }
  - { offset: 0xD093B, size: 0x8, addend: 0x0, symName: __RINvYINtNtNtNtCsieiGu2EXtoJ_4core4iter8adapters9enumerate9EnumerateINtNtCsdGrGZaRBwMb_3syn10punctuated4IterNtNtB18_4data5FieldEENtNtNtBa_6traits8iterator8Iterator3mapTRNtNtB18_11restriction10VisibilityNtCsaKzlTDPUHDb_11proc_macro211TokenStreamRNtNtB18_2ty4TypeENCINvNtCs9E08dBcDM90_15zerocopy_derive4util10map_fieldsRNtB1J_6FieldsE0EB4i_, symObjAddr: 0x1350, symBinAddr: 0x55900, symSize: 0x20 }
  - { offset: 0xD09A8, size: 0x8, addend: 0x0, symName: __RINvYINtNtNtNtCsieiGu2EXtoJ_4core4iter8adapters9enumerate9EnumerateINtNtNtCslJiobkLta79_5alloc3vec9into_iter8IntoIterTRNtNtCsdGrGZaRBwMb_3syn11restriction10VisibilityNtCsaKzlTDPUHDb_11proc_macro211TokenStreamRNtNtB1X_2ty4TypeEEENtNtNtBa_6traits8iterator8Iterator3mapB2E_NCNCNvNtNtCs9E08dBcDM90_15zerocopy_derive6derive14try_from_bytes19derive_is_bit_valid00EB4u_, symObjAddr: 0x1370, symBinAddr: 0x55920, symSize: 0x50 }
  - { offset: 0xD0A23, size: 0x8, addend: 0x0, symName: __RNvXNtNtNtCsieiGu2EXtoJ_4core4iter6traits7collectINtNtNtB6_8adapters9enumerate9EnumerateINtNtCsdGrGZaRBwMb_3syn10punctuated4IterNtNtB1t_4data7VariantEENtB2_12IntoIterator9into_iterCs9E08dBcDM90_15zerocopy_derive, symObjAddr: 0x3510, symBinAddr: 0x57AC0, symSize: 0x20 }
  - { offset: 0xD0A5A, size: 0x8, addend: 0x0, symName: __RNvXNtNtNtCsieiGu2EXtoJ_4core4iter6traits7collectINtNtNtB8_5slice4iter4IterINtNtNtCs9E08dBcDM90_15zerocopy_derive4repr4util7SpannedNtB1g_7RawReprEENtB2_12IntoIterator9into_iterB1i_, symObjAddr: 0x3530, symBinAddr: 0x57AE0, symSize: 0x20 }
  - { offset: 0xD0A91, size: 0x8, addend: 0x0, symName: __RNvXNtNtNtCsieiGu2EXtoJ_4core4iter6traits7collectINtNtNtB8_5slice4iter4IterNtNtCsdGrGZaRBwMb_3syn8generics14WherePredicateENtB2_12IntoIterator9into_iterCs9E08dBcDM90_15zerocopy_derive, symObjAddr: 0x3550, symBinAddr: 0x57B00, symSize: 0x20 }
  - { offset: 0xD0C12, size: 0x8, addend: 0x0, symName: __RNCINvMNtNtCsieiGu2EXtoJ_4core3ops9try_traitINtB5_17NeverShortCircuituE10wrap_mut_2uNtCsaKzlTDPUHDb_11proc_macro211TokenStreamNCINvNtNtNtB9_4iter8adapters3map8map_foldB1k_NtNtB1m_3imp11TokenStreamuNCINvXsb_B1m_B1k_INtNtNtB29_6traits7collect12FromIteratorB1k_E9from_iterINtNtNtB9_5array4iter8IntoIterB1k_Kj2_EE0NCIB23_B2J_NtCscKtU6MdFI5n_10proc_macro11TokenStreamuNCINvXs6_B2L_B2J_IB3r_B2J_E9from_iterINtB25_3MapB4j_B39_EE0NCINvNvNtNtB3v_8iterator8Iterator8for_each4callB59_NCINvXsj_B5b_B59_INtB3t_6ExtendB59_E6extendIB6r_B6q_B5P_EE0E0E0E0E0Cs9E08dBcDM90_15zerocopy_derive, symObjAddr: 0x13C0, symBinAddr: 0x55970, symSize: 0x40 }
  - { offset: 0xD0C88, size: 0x8, addend: 0x0, symName: __RNvXs_NtNtCsieiGu2EXtoJ_4core3ops9try_traitINtB4_17NeverShortCircuituENtB4_3Try11from_outputCs9E08dBcDM90_15zerocopy_derive, symObjAddr: 0x3F70, symBinAddr: 0x58490, symSize: 0x10 }
  - { offset: 0xD0CBB, size: 0x8, addend: 0x0, symName: __RNvXs_NtNtCsieiGu2EXtoJ_4core3ops9try_traitINtB4_17NeverShortCircuituENtB4_3Try6branchCs9E08dBcDM90_15zerocopy_derive, symObjAddr: 0x3F80, symBinAddr: 0x584A0, symSize: 0x10 }
  - { offset: 0xD0EA8, size: 0x8, addend: 0x0, symName: __RINvXs2E_NtNtCsieiGu2EXtoJ_4core5slice4iterINtB7_4IterINtNtNtCs9E08dBcDM90_15zerocopy_derive4repr4util7SpannedNtBV_7RawReprEENtNtNtNtBb_4iter6traits8iterator8Iterator8find_mapRNtCsaKzlTDPUHDb_11proc_macro24SpanQNCNvMsa_BV_INtBV_4ReprNtBV_13PrimitiveReprINtNtNtBb_3num7nonzero7NonZeromEE16from_attrs_inner0EBX_, symObjAddr: 0x30, symBinAddr: 0x545E0, symSize: 0xD0 }
  - { offset: 0xD0F2D, size: 0x8, addend: 0x0, symName: __RINvXs2E_NtNtCsieiGu2EXtoJ_4core5slice4iterINtB7_4IterINtNtNtCs9E08dBcDM90_15zerocopy_derive4repr4util7SpannedNtBV_7RawReprEENtNtNtNtBb_4iter6traits8iterator8Iterator8find_mapRNtCsaKzlTDPUHDb_11proc_macro24SpanQNCNvMsa_BV_INtBV_4ReprNtBV_13PrimitiveReprNtNtBb_7convert10InfallibleE16from_attrs_inner0EBX_, symObjAddr: 0x100, symBinAddr: 0x546B0, symSize: 0xD0 }
  - { offset: 0xD0FB2, size: 0x8, addend: 0x0, symName: __RINvXs2E_NtNtCsieiGu2EXtoJ_4core5slice4iterINtB7_4IterINtNtNtCs9E08dBcDM90_15zerocopy_derive4repr4util7SpannedNtBV_7RawReprEENtNtNtNtBb_4iter6traits8iterator8Iterator8find_mapRNtCsaKzlTDPUHDb_11proc_macro24SpanQNCNvMsa_BV_INtBV_4ReprNtNtBb_7convert10InfallibleINtNtNtBb_3num7nonzero7NonZeromEE16from_attrs_inner0EBX_, symObjAddr: 0x1D0, symBinAddr: 0x54780, symSize: 0xD0 }
  - { offset: 0xD1037, size: 0x8, addend: 0x0, symName: __RINvXs2E_NtNtCsieiGu2EXtoJ_4core5slice4iterINtB7_4IterNtNtCsdGrGZaRBwMb_3syn8generics12GenericParamENtNtNtNtBb_4iter6traits8iterator8Iterator4folduNCINvNtNtB1G_8adapters3map8map_foldRBQ_luNCNvMs8_NtCs9E08dBcDM90_15zerocopy_derive4utilNtB38_16ImplBlockBuilder5builds2_0NCINvNvXs_NtB2s_9enumerateINtB4s_9EnumeratepEB1A_4fold9enumerateluNCIB2o_TjlETljEuNCINvMNtCslJiobkLta79_5alloc5sliceSBQ_18sort_by_cached_keylB30_Es_0NCINvNvB1A_8for_each4callB5x_NCINvMsi_NtB5K_3vecINtB7j_3VecB5x_E14extend_trustedINtB2q_3MapIB4J_IB80_BF_B30_EEB5C_EE0E0E0E0E0EB3a_, symObjAddr: 0x2A0, symBinAddr: 0x54850, symSize: 0x190 }
  - { offset: 0xD1178, size: 0x8, addend: 0x0, symName: __RINvXs2E_NtNtCsieiGu2EXtoJ_4core5slice4iterINtB7_4IterNtNtCsdGrGZaRBwMb_3syn8generics12GenericParamENtNtNtNtBb_4iter6traits8iterator8Iterator4folduNCINvNtNtB1G_8adapters3map8map_foldRBQ_luNCNvMs8_NtCs9E08dBcDM90_15zerocopy_derive4utilNtB38_16ImplBlockBuilder5builds2_0NCINvNvXs_NtB2s_9enumerateINtB4s_9EnumeratepEB1A_4fold9enumerateluNCIB2o_TjlETlmEuNCINvMNtCslJiobkLta79_5alloc5sliceSBQ_18sort_by_cached_keylB30_E0NCINvNvB1A_8for_each4callB5x_NCINvMsi_NtB5K_3vecINtB7h_3VecB5x_E14extend_trustedINtB2q_3MapIB4J_IB7Y_BF_B30_EEB5C_EE0E0E0E0E0EB3a_, symObjAddr: 0x430, symBinAddr: 0x549E0, symSize: 0x190 }
  - { offset: 0xD12B9, size: 0x8, addend: 0x0, symName: __RINvXs2E_NtNtCsieiGu2EXtoJ_4core5slice4iterINtB7_4IterTRNtNtCsdGrGZaRBwMb_3syn11restriction10VisibilityNtCsaKzlTDPUHDb_11proc_macro211TokenStreamRNtNtBW_2ty4TypeEENtNtNtNtBb_4iter6traits8iterator8Iterator4folduNCINvNtNtB2H_8adapters3map8map_foldRBQ_NtB1F_5IdentuNCNvNtNtCs9E08dBcDM90_15zerocopy_derive6derive12known_layout37derive_known_layout_for_repr_c_structs5_0NCINvNvB2B_8for_each4callB3Z_NCINvMsi_NtCslJiobkLta79_5alloc3vecINtB6t_3VecB3Z_E14extend_trustedINtB3r_3MapBF_B4c_EE0E0E0EB4k_, symObjAddr: 0x5C0, symBinAddr: 0x54B70, symSize: 0x190 }
  - { offset: 0xD13FA, size: 0x8, addend: 0x0, symName: __RINvXs2E_NtNtCsieiGu2EXtoJ_4core5slice4iterINtB7_4IterTRNtNtCsdGrGZaRBwMb_3syn11restriction10VisibilityNtCsaKzlTDPUHDb_11proc_macro211TokenStreamRNtNtBW_2ty4TypeEENtNtNtNtBb_4iter6traits8iterator8Iterator4folduNCINvNtNtB2H_8adapters3map8map_foldRBQ_NtNtBW_8generics14WherePredicateuNCNvMs8_NtCs9E08dBcDM90_15zerocopy_derive4utilNtB4E_16ImplBlockBuilder5build0NCINvNvB2B_8for_each4callB3Z_NCINvMsi_NtCslJiobkLta79_5alloc3vecINtB6n_3VecB3Z_E14extend_trustedINtB3r_3MapBF_B4w_EE0E0E0EB4G_, symObjAddr: 0x750, symBinAddr: 0x54D00, symSize: 0x190 }
  - { offset: 0xD153B, size: 0x8, addend: 0x0, symName: __RNvXs2E_NtNtCsieiGu2EXtoJ_4core5slice4iterINtB6_4IterINtNtNtCs9E08dBcDM90_15zerocopy_derive4repr4util7SpannedNtBU_7RawReprEENtNtNtNtBa_4iter6traits8iterator8Iterator4nextBW_, symObjAddr: 0x3600, symBinAddr: 0x57B20, symSize: 0x90 }
  - { offset: 0xD165C, size: 0x8, addend: 0x0, symName: __RNvXs2E_NtNtCsieiGu2EXtoJ_4core5slice4iterINtB6_4IterNtCsaKzlTDPUHDb_11proc_macro25IdentENtNtNtNtBa_4iter6traits8iterator8Iterator24___iterator_get_uncheckedCs9E08dBcDM90_15zerocopy_derive, symObjAddr: 0x3690, symBinAddr: 0x57BB0, symSize: 0x20 }
  - { offset: 0xD16B7, size: 0x8, addend: 0x0, symName: __RNvXs2E_NtNtCsieiGu2EXtoJ_4core5slice4iterINtB6_4IterNtCsaKzlTDPUHDb_11proc_macro25IdentENtNtNtNtBa_4iter6traits8iterator8Iterator9size_hintCs9E08dBcDM90_15zerocopy_derive, symObjAddr: 0x36B0, symBinAddr: 0x57BD0, symSize: 0x60 }
  - { offset: 0xD1726, size: 0x8, addend: 0x0, symName: __RNvXs2E_NtNtCsieiGu2EXtoJ_4core5slice4iterINtB6_4IterNtNtCs9E08dBcDM90_15zerocopy_derive4util10TraitBoundENtNtNtNtBa_4iter6traits8iterator8Iterator4nextBT_, symObjAddr: 0x3710, symBinAddr: 0x57C30, symSize: 0x90 }
  - { offset: 0xD1847, size: 0x8, addend: 0x0, symName: __RNvXs2E_NtNtCsieiGu2EXtoJ_4core5slice4iterINtB6_4IterNtNtCs9E08dBcDM90_15zerocopy_derive4util5TraitENtNtNtNtBa_4iter6traits8iterator8Iterator4nextBT_, symObjAddr: 0x37A0, symBinAddr: 0x57CC0, symSize: 0x90 }
  - { offset: 0xD1968, size: 0x8, addend: 0x0, symName: __RNvXs2E_NtNtCsieiGu2EXtoJ_4core5slice4iterINtB6_4IterNtNtCsdGrGZaRBwMb_3syn8generics12GenericParamENtNtNtNtBa_4iter6traits8iterator8Iterator4nextCs9E08dBcDM90_15zerocopy_derive, symObjAddr: 0x3830, symBinAddr: 0x57D50, symSize: 0x90 }
  - { offset: 0xD1A89, size: 0x8, addend: 0x0, symName: __RNvXs2E_NtNtCsieiGu2EXtoJ_4core5slice4iterINtB6_4IterNtNtCsdGrGZaRBwMb_3syn8generics12GenericParamENtNtNtNtBa_4iter6traits8iterator8Iterator9size_hintCs9E08dBcDM90_15zerocopy_derive, symObjAddr: 0x38C0, symBinAddr: 0x57DE0, symSize: 0x60 }
  - { offset: 0xD1AF8, size: 0x8, addend: 0x0, symName: __RNvXs2E_NtNtCsieiGu2EXtoJ_4core5slice4iterINtB6_4IterNtNtCsdGrGZaRBwMb_3syn8generics14WherePredicateENtNtNtNtBa_4iter6traits8iterator8Iterator4nextCs9E08dBcDM90_15zerocopy_derive, symObjAddr: 0x3920, symBinAddr: 0x57E40, symSize: 0x90 }
  - { offset: 0xD1C19, size: 0x8, addend: 0x0, symName: __RNvXs2E_NtNtCsieiGu2EXtoJ_4core5slice4iterINtB6_4IterTINtNtBa_6option6OptionRNtNtCsdGrGZaRBwMb_3syn4data7VariantEINtNtCslJiobkLta79_5alloc3vec3VecTRNtNtB1h_11restriction10VisibilityNtCsaKzlTDPUHDb_11proc_macro211TokenStreamRNtNtB1h_2ty4TypeEEEENtNtNtNtBa_4iter6traits8iterator8Iterator4nextCs9E08dBcDM90_15zerocopy_derive, symObjAddr: 0x39B0, symBinAddr: 0x57ED0, symSize: 0x90 }
  - { offset: 0xD1D3A, size: 0x8, addend: 0x0, symName: __RNvXs2E_NtNtCsieiGu2EXtoJ_4core5slice4iterINtB6_4IterTRNtNtCsdGrGZaRBwMb_3syn11restriction10VisibilityNtCsaKzlTDPUHDb_11proc_macro211TokenStreamRNtNtBV_2ty4TypeEENtNtNtNtBa_4iter6traits8iterator8Iterator24___iterator_get_uncheckedCs9E08dBcDM90_15zerocopy_derive, symObjAddr: 0x3A40, symBinAddr: 0x57F60, symSize: 0x20 }
  - { offset: 0xD1D95, size: 0x8, addend: 0x0, symName: __RNvXs2E_NtNtCsieiGu2EXtoJ_4core5slice4iterINtB6_4IterTRNtNtCsdGrGZaRBwMb_3syn11restriction10VisibilityNtCsaKzlTDPUHDb_11proc_macro211TokenStreamRNtNtBV_2ty4TypeEENtNtNtNtBa_4iter6traits8iterator8Iterator4nextCs9E08dBcDM90_15zerocopy_derive, symObjAddr: 0x3A60, symBinAddr: 0x57F80, symSize: 0x90 }
  - { offset: 0xD1EB6, size: 0x8, addend: 0x0, symName: __RNvXs2E_NtNtCsieiGu2EXtoJ_4core5slice4iterINtB6_4IterTRNtNtCsdGrGZaRBwMb_3syn11restriction10VisibilityNtCsaKzlTDPUHDb_11proc_macro211TokenStreamRNtNtBV_2ty4TypeEENtNtNtNtBa_4iter6traits8iterator8Iterator9size_hintCs9E08dBcDM90_15zerocopy_derive, symObjAddr: 0x3AF0, symBinAddr: 0x58010, symSize: 0x60 }
  - { offset: 0xD2296, size: 0x8, addend: 0x0, symName: __RNvXs2F_NtNtCsieiGu2EXtoJ_4core5slice4iterINtB6_4IterTNtNtCsdGrGZaRBwMb_3syn4data7VariantNtNtBU_5token5CommaEENtNtNtNtBa_4iter6traits12double_ended19DoubleEndedIterator9next_backCs9E08dBcDM90_15zerocopy_derive, symObjAddr: 0x3B50, symBinAddr: 0x58070, symSize: 0x100 }
  - { offset: 0xD23E5, size: 0x8, addend: 0x0, symName: __RNvXs2F_NtNtCsieiGu2EXtoJ_4core5slice4iterINtB6_4IterTNtNtCsdGrGZaRBwMb_3syn8generics14WherePredicateNtNtBU_5token5CommaEENtNtNtNtBa_4iter6traits12double_ended19DoubleEndedIterator9next_backCs9E08dBcDM90_15zerocopy_derive, symObjAddr: 0x3C50, symBinAddr: 0x58170, symSize: 0x100 }
  - { offset: 0xD25B1, size: 0x8, addend: 0x0, symName: __RNvXs5_NtNtCsieiGu2EXtoJ_4core5slice4iterINtB5_4IterTNtNtCsdGrGZaRBwMb_3syn4data7VariantNtNtBT_5token5CommaEENtNtB9_5clone5Clone5cloneCs9E08dBcDM90_15zerocopy_derive, symObjAddr: 0x3EB0, symBinAddr: 0x583D0, symSize: 0x20 }
  - { offset: 0xD25E6, size: 0x8, addend: 0x0, symName: __RNvXs5_NtNtCsieiGu2EXtoJ_4core5slice4iterINtB5_4IterTNtNtCsdGrGZaRBwMb_3syn8generics14WherePredicateNtNtBT_5token5CommaEENtNtB9_5clone5Clone5cloneCs9E08dBcDM90_15zerocopy_derive, symObjAddr: 0x3ED0, symBinAddr: 0x583F0, symSize: 0x20 }
  - { offset: 0xD261B, size: 0x8, addend: 0x0, symName: __RNvXs5_NtNtCsieiGu2EXtoJ_4core5slice4iterINtB5_4IterTRNtNtCsdGrGZaRBwMb_3syn11restriction10VisibilityNtCsaKzlTDPUHDb_11proc_macro211TokenStreamRNtNtBU_2ty4TypeEENtNtB9_5clone5Clone5cloneCs9E08dBcDM90_15zerocopy_derive, symObjAddr: 0x3EF0, symBinAddr: 0x58410, symSize: 0x20 }
  - { offset: 0xD27A4, size: 0x8, addend: 0x0, symName: __RNvNvNtCsieiGu2EXtoJ_4core4hint16assert_unchecked18precondition_checkCs9E08dBcDM90_15zerocopy_derive, symObjAddr: 0x33F0, symBinAddr: 0x579A0, symSize: 0xA0 }
  - { offset: 0xD2804, size: 0x8, addend: 0x0, symName: __RNvNvNtCsieiGu2EXtoJ_4core4hint21unreachable_unchecked18precondition_checkCs9E08dBcDM90_15zerocopy_derive, symObjAddr: 0x3490, symBinAddr: 0x57A40, symSize: 0x80 }
  - { offset: 0xD40F7, size: 0x8, addend: 0x0, symName: __RNvXsT_NtCslJiobkLta79_5alloc6stringNtB5_6StringNtNtCsieiGu2EXtoJ_4core3fmt5Write10write_charCs9E08dBcDM90_15zerocopy_derive, symObjAddr: 0x3F10, symBinAddr: 0x58430, symSize: 0x30 }
  - { offset: 0xD4134, size: 0x8, addend: 0x0, symName: __RNvXsT_NtCslJiobkLta79_5alloc6stringNtB5_6StringNtNtCsieiGu2EXtoJ_4core3fmt5Write9write_strCs9E08dBcDM90_15zerocopy_derive, symObjAddr: 0x3F40, symBinAddr: 0x58460, symSize: 0x30 }
  - { offset: 0xD4177, size: 0x8, addend: 0x0, symName: __RNvXss_NtCslJiobkLta79_5alloc6stringNtB5_6StringNtNtNtCsieiGu2EXtoJ_4core3ops5deref5Deref5derefCs9E08dBcDM90_15zerocopy_derive, symObjAddr: 0x44A0, symBinAddr: 0x589C0, symSize: 0x20 }
  - { offset: 0xD5215, size: 0x8, addend: 0x0, symName: __RNCNvNtNtCs9E08dBcDM90_15zerocopy_derive6derive10from_bytes22derive_from_zeros_enum0B7_, symObjAddr: 0x14E0, symBinAddr: 0x55A90, symSize: 0x100 }
  - { offset: 0xD527E, size: 0x8, addend: 0x0, symName: __RNvNtNtCs9E08dBcDM90_15zerocopy_derive6derive10from_bytes17derive_from_bytes, symObjAddr: 0x1A60, symBinAddr: 0x56010, symSize: 0x460 }
  - { offset: 0xD539C, size: 0x8, addend: 0x0, symName: __RNvNtNtCs9E08dBcDM90_15zerocopy_derive6derive10from_bytes17derive_from_zeros, symObjAddr: 0x1EC0, symBinAddr: 0x56470, symSize: 0x460 }
  - { offset: 0xD54BA, size: 0x8, addend: 0x0, symName: __RNvNtNtCs9E08dBcDM90_15zerocopy_derive6derive10from_bytes17find_zero_variant, symObjAddr: 0x2320, symBinAddr: 0x568D0, symSize: 0x660 }
  - { offset: 0xD55B6, size: 0x8, addend: 0x0, symName: __RNvNtNtCs9E08dBcDM90_15zerocopy_derive6derive10from_bytes22derive_from_bytes_enum, symObjAddr: 0x2980, symBinAddr: 0x56F30, symSize: 0x3E0 }
  - { offset: 0xD56CF, size: 0x8, addend: 0x0, symName: __RNvNtNtCs9E08dBcDM90_15zerocopy_derive6derive10from_bytes22derive_from_zeros_enum, symObjAddr: 0x2D60, symBinAddr: 0x57310, symSize: 0x430 }
  - { offset: 0xD57C8, size: 0x8, addend: 0x0, symName: __RNvNtNtCs9E08dBcDM90_15zerocopy_derive6derive10from_bytes23derive_from_bytes_union, symObjAddr: 0x3190, symBinAddr: 0x57740, symSize: 0xA0 }
  - { offset: 0xD5818, size: 0x8, addend: 0x0, symName: __RNvNtNtCs9E08dBcDM90_15zerocopy_derive6derive10from_bytes23derive_from_zeros_union, symObjAddr: 0x3230, symBinAddr: 0x577E0, symSize: 0xA0 }
  - { offset: 0xD5868, size: 0x8, addend: 0x0, symName: __RNvNtNtCs9E08dBcDM90_15zerocopy_derive6derive10from_bytes24derive_from_bytes_struct, symObjAddr: 0x32D0, symBinAddr: 0x57880, symSize: 0x90 }
  - { offset: 0xD58A2, size: 0x8, addend: 0x0, symName: __RNvNtNtCs9E08dBcDM90_15zerocopy_derive6derive10from_bytes24derive_from_zeros_struct, symObjAddr: 0x3360, symBinAddr: 0x57910, symSize: 0x90 }
  - { offset: 0xD5913, size: 0x8, addend: 0x0, symName: __RINvMs0_NtCsaKzlTDPUHDb_11proc_macro25rcvecINtB6_8RcVecMutNtB8_9TokenTreeE6extendINtNtNtNtCsieiGu2EXtoJ_4core4iter8adapters7flatten7FlattenINtNtB1m_3map3MapIB2e_INtNtNtB1q_5array4iter8IntoIterNtB8_11TokenStreamKj2_ENCINvXsb_B8_B34_INtNtNtB1o_6traits7collect12FromIteratorB34_E9from_iterB2z_E0ENCINvXs6_NtB8_3impNtB4Q_11TokenStreamIB3I_B4Z_E9from_iterB2u_Es_0EEECs9E08dBcDM90_15zerocopy_derive, symObjAddr: 0x0, symBinAddr: 0x545B0, symSize: 0x30 }
  - { offset: 0xD5FEE, size: 0x8, addend: 0x0, symName: __RNvMNtCslJiobkLta79_5alloc6stringNtB2_6String4pushCs9E08dBcDM90_15zerocopy_derive, symObjAddr: 0x15E0, symBinAddr: 0x55B90, symSize: 0x130 }
  - { offset: 0xD62F3, size: 0x8, addend: 0x0, symName: __RNvMNtCslJiobkLta79_5alloc6stringNtB2_6String6as_strCs9E08dBcDM90_15zerocopy_derive, symObjAddr: 0x1710, symBinAddr: 0x55CC0, symSize: 0x60 }
  - { offset: 0xD64C1, size: 0x8, addend: 0x0, symName: __RNvMNtCslJiobkLta79_5alloc6stringNtB2_6String8push_strCs9E08dBcDM90_15zerocopy_derive, symObjAddr: 0x1770, symBinAddr: 0x55D20, symSize: 0x50 }
  - { offset: 0xD668A, size: 0x8, addend: 0x0, symName: __RNvMNtNtCs9OU1sGv5X54_5quote9___private8get_spanINtB2_7GetSpanNtCsaKzlTDPUHDb_11proc_macro24SpanE11___into_spanCs9E08dBcDM90_15zerocopy_derive, symObjAddr: 0x17C0, symBinAddr: 0x55D70, symSize: 0x20 }
  - { offset: 0xD6775, size: 0x8, addend: 0x0, symName: __RNvMs4_NtNtCsieiGu2EXtoJ_4core5slice4iterINtB5_4IterINtNtNtCs9E08dBcDM90_15zerocopy_derive4repr4util7SpannedNtBT_7RawReprEE3newBV_, symObjAddr: 0x17E0, symBinAddr: 0x55D90, symSize: 0x50 }
  - { offset: 0xD6922, size: 0x8, addend: 0x0, symName: __RNvMs4_NtNtCsieiGu2EXtoJ_4core5slice4iterINtB5_4IterNtCsaKzlTDPUHDb_11proc_macro25IdentE3newCs9E08dBcDM90_15zerocopy_derive, symObjAddr: 0x1830, symBinAddr: 0x55DE0, symSize: 0x50 }
  - { offset: 0xD6AA8, size: 0x8, addend: 0x0, symName: __RNvMs4_NtNtCsieiGu2EXtoJ_4core5slice4iterINtB5_4IterNtNtCs9E08dBcDM90_15zerocopy_derive4util10TraitBoundE3newBS_, symObjAddr: 0x1880, symBinAddr: 0x55E30, symSize: 0x50 }
  - { offset: 0xD6C62, size: 0x8, addend: 0x0, symName: __RNvMs4_NtNtCsieiGu2EXtoJ_4core5slice4iterINtB5_4IterNtNtCs9E08dBcDM90_15zerocopy_derive4util5TraitE3newBS_, symObjAddr: 0x18D0, symBinAddr: 0x55E80, symSize: 0x50 }
  - { offset: 0xD6E1C, size: 0x8, addend: 0x0, symName: __RNvMs4_NtNtCsieiGu2EXtoJ_4core5slice4iterINtB5_4IterNtNtCsdGrGZaRBwMb_3syn8generics12GenericParamE3newCs9E08dBcDM90_15zerocopy_derive, symObjAddr: 0x1920, symBinAddr: 0x55ED0, symSize: 0x50 }
  - { offset: 0xD6FE3, size: 0x8, addend: 0x0, symName: __RNvMs4_NtNtCsieiGu2EXtoJ_4core5slice4iterINtB5_4IterNtNtCsdGrGZaRBwMb_3syn8generics14WherePredicateE3newCs9E08dBcDM90_15zerocopy_derive, symObjAddr: 0x1970, symBinAddr: 0x55F20, symSize: 0x50 }
  - { offset: 0xD71D5, size: 0x8, addend: 0x0, symName: __RNvMs4_NtNtCsieiGu2EXtoJ_4core5slice4iterINtB5_4IterTINtNtB9_6option6OptionRNtNtCsdGrGZaRBwMb_3syn4data7VariantEINtNtCslJiobkLta79_5alloc3vec3VecTRNtNtB1g_11restriction10VisibilityNtCsaKzlTDPUHDb_11proc_macro211TokenStreamRNtNtB1g_2ty4TypeEEEE3newCs9E08dBcDM90_15zerocopy_derive, symObjAddr: 0x19C0, symBinAddr: 0x55F70, symSize: 0x50 }
  - { offset: 0xD7382, size: 0x8, addend: 0x0, symName: __RNvMs4_NtNtCsieiGu2EXtoJ_4core5slice4iterINtB5_4IterTRNtNtCsdGrGZaRBwMb_3syn11restriction10VisibilityNtCsaKzlTDPUHDb_11proc_macro211TokenStreamRNtNtBU_2ty4TypeEE3newCs9E08dBcDM90_15zerocopy_derive, symObjAddr: 0x1A10, symBinAddr: 0x55FC0, symSize: 0x50 }
  - { offset: 0xD7D81, size: 0x8, addend: 0x0, symName: __RINvMNtCsieiGu2EXtoJ_4core3stre5parseINtNtNtB5_3num7nonzero7NonZeromEECs9E08dBcDM90_15zerocopy_derive, symObjAddr: 0x0, symBinAddr: 0x58A40, symSize: 0x30 }
  - { offset: 0xD7F7A, size: 0x8, addend: 0x0, symName: __RNvMsE_NtCsieiGu2EXtoJ_4core3numo16from_ascii_radixCs9E08dBcDM90_15zerocopy_derive, symObjAddr: 0x1450, symBinAddr: 0x59E90, symSize: 0x780 }
  - { offset: 0xD8216, size: 0x8, addend: 0x0, symName: __RNvNvMs3_NtCsieiGu2EXtoJ_4core3numi13unchecked_neg18precondition_checkCs9E08dBcDM90_15zerocopy_derive, symObjAddr: 0x1D90, symBinAddr: 0x5A7D0, symSize: 0xB0 }
  - { offset: 0xD839C, size: 0x8, addend: 0x0, symName: __RNvNvMs9_NtCsieiGu2EXtoJ_4core3numj13unchecked_add18precondition_checkCs9E08dBcDM90_15zerocopy_derive, symObjAddr: 0x1E40, symBinAddr: 0x5A880, symSize: 0xA0 }
  - { offset: 0xD845A, size: 0x8, addend: 0x0, symName: __RNvNvMs9_NtCsieiGu2EXtoJ_4core3numj13unchecked_sub18precondition_checkCs9E08dBcDM90_15zerocopy_derive, symObjAddr: 0x1EE0, symBinAddr: 0x5A920, symSize: 0xA0 }
  - { offset: 0xD84EF, size: 0x8, addend: 0x0, symName: __RNvXsD_NtCsieiGu2EXtoJ_4core3numoNtNtNtB7_3str6traits7FromStr8from_strCs9E08dBcDM90_15zerocopy_derive, symObjAddr: 0x30A0, symBinAddr: 0x5BAE0, symSize: 0x40 }
  - { offset: 0xD8573, size: 0x8, addend: 0x0, symName: __RINvMNtCsieiGu2EXtoJ_4core3stre5parseINtNtNtB5_3num7nonzero7NonZeromEECs9E08dBcDM90_15zerocopy_derive, symObjAddr: 0x0, symBinAddr: 0x58A40, symSize: 0x30 }
  - { offset: 0xD85AA, size: 0x8, addend: 0x0, symName: __RINvMNtCsieiGu2EXtoJ_4core3stre5parseoECs9E08dBcDM90_15zerocopy_derive, symObjAddr: 0x30, symBinAddr: 0x58A70, symSize: 0x30 }
  - { offset: 0xD85E1, size: 0x8, addend: 0x0, symName: __RNvMNtCsieiGu2EXtoJ_4core3stre8is_emptyCs9E08dBcDM90_15zerocopy_derive, symObjAddr: 0xE70, symBinAddr: 0x598B0, symSize: 0x20 }
  - { offset: 0xDC0C0, size: 0x8, addend: 0x0, symName: __RINvNvMNtCsieiGu2EXtoJ_4core5sliceSp7reverse7revswapTljEECs9E08dBcDM90_15zerocopy_derive, symObjAddr: 0xC0, symBinAddr: 0x58B00, symSize: 0x300 }
  - { offset: 0xDC22E, size: 0x8, addend: 0x0, symName: __RINvNvMNtCsieiGu2EXtoJ_4core5sliceSp7reverse7revswapTlmEECs9E08dBcDM90_15zerocopy_derive, symObjAddr: 0x3C0, symBinAddr: 0x58E00, symSize: 0x300 }
  - { offset: 0xDC448, size: 0x8, addend: 0x0, symName: __RNvMNtCsieiGu2EXtoJ_4core5sliceSTljE14swap_uncheckedCs9E08dBcDM90_15zerocopy_derive, symObjAddr: 0xE90, symBinAddr: 0x598D0, symSize: 0x70 }
  - { offset: 0xDC548, size: 0x8, addend: 0x0, symName: __RNvMNtCsieiGu2EXtoJ_4core5sliceSTljE22split_at_mut_uncheckedCs9E08dBcDM90_15zerocopy_derive, symObjAddr: 0xF00, symBinAddr: 0x59940, symSize: 0x120 }
  - { offset: 0xDC6EA, size: 0x8, addend: 0x0, symName: __RNvMNtCsieiGu2EXtoJ_4core5sliceSTljE7reverseCs9E08dBcDM90_15zerocopy_derive, symObjAddr: 0x1020, symBinAddr: 0x59A60, symSize: 0x100 }
  - { offset: 0xDC8C6, size: 0x8, addend: 0x0, symName: __RNvMNtCsieiGu2EXtoJ_4core5sliceSTlmE14swap_uncheckedCs9E08dBcDM90_15zerocopy_derive, symObjAddr: 0x1120, symBinAddr: 0x59B60, symSize: 0x70 }
  - { offset: 0xDC9C6, size: 0x8, addend: 0x0, symName: __RNvMNtCsieiGu2EXtoJ_4core5sliceSTlmE22split_at_mut_uncheckedCs9E08dBcDM90_15zerocopy_derive, symObjAddr: 0x1190, symBinAddr: 0x59BD0, symSize: 0x120 }
  - { offset: 0xDCB68, size: 0x8, addend: 0x0, symName: __RNvMNtCsieiGu2EXtoJ_4core5sliceSTlmE7reverseCs9E08dBcDM90_15zerocopy_derive, symObjAddr: 0x12B0, symBinAddr: 0x59CF0, symSize: 0x100 }
  - { offset: 0xDCD6B, size: 0x8, addend: 0x0, symName: __RNvMNtCsieiGu2EXtoJ_4core5sliceSh15copy_from_sliceCs9E08dBcDM90_15zerocopy_derive, symObjAddr: 0x13B0, symBinAddr: 0x59DF0, symSize: 0xA0 }
  - { offset: 0xDCE14, size: 0x8, addend: 0x0, symName: __RNvNvMNtCsieiGu2EXtoJ_4core5sliceSp14swap_unchecked18precondition_checkCs9E08dBcDM90_15zerocopy_derive, symObjAddr: 0x1C30, symBinAddr: 0x5A670, symSize: 0xC0 }
  - { offset: 0xDCE90, size: 0x8, addend: 0x0, symName: __RNvNvMNtCsieiGu2EXtoJ_4core5sliceSp22split_at_mut_unchecked18precondition_checkCs9E08dBcDM90_15zerocopy_derive, symObjAddr: 0x1CF0, symBinAddr: 0x5A730, symSize: 0xA0 }
  - { offset: 0xDD30D, size: 0x8, addend: 0x0, symName: __RINvYINtNtNtCslJiobkLta79_5alloc3vec9into_iter8IntoIterTINtNtCsieiGu2EXtoJ_4core6option6OptionRNtNtCsdGrGZaRBwMb_3syn4data7VariantEINtB8_3VecTRNtNtB1z_11restriction10VisibilityNtCsaKzlTDPUHDb_11proc_macro211TokenStreamRNtNtB1z_2ty4TypeEEEENtNtNtNtBX_4iter6traits8iterator8Iterator3mapINtNtNtB3V_8adapters3map3MapINtNtB4D_9enumerate9EnumerateIB4_B2f_EENCNCNvNtNtCs9E08dBcDM90_15zerocopy_derive6derive14try_from_bytes19derive_is_bit_valid00ENCB5H_0EB5N_, symObjAddr: 0xB70, symBinAddr: 0x595B0, symSize: 0x40 }
  - { offset: 0xDD3A1, size: 0x8, addend: 0x0, symName: __RINvYINtNtNtCslJiobkLta79_5alloc3vec9into_iter8IntoIterTINtNtCsieiGu2EXtoJ_4core6option6OptionRNtNtCsdGrGZaRBwMb_3syn4data7VariantEINtB8_3VecTRNtNtB1z_11restriction10VisibilityNtCsaKzlTDPUHDb_11proc_macro211TokenStreamRNtNtB1z_2ty4TypeEEEENtNtNtNtBX_4iter6traits8iterator8Iterator8flat_mapINtNtNtB3V_8adapters3map3MapINtNtB4I_9enumerate9EnumerateIB4_B2f_EENCNCNvNtNtCs9E08dBcDM90_15zerocopy_derive6derive14try_from_bytes19derive_is_bit_valid00ENCB5M_0EB5S_, symObjAddr: 0xBB0, symBinAddr: 0x595F0, symSize: 0xD0 }
  - { offset: 0xDD475, size: 0x8, addend: 0x0, symName: __RNvYINtNtNtCslJiobkLta79_5alloc3vec9into_iter8IntoIterTRNtNtCsdGrGZaRBwMb_3syn11restriction10VisibilityNtCsaKzlTDPUHDb_11proc_macro211TokenStreamRNtNtBW_2ty4TypeEENtNtNtNtCsieiGu2EXtoJ_4core4iter6traits8iterator8Iterator9enumerateCs9E08dBcDM90_15zerocopy_derive, symObjAddr: 0x3C40, symBinAddr: 0x5C680, symSize: 0x30 }
  - { offset: 0xDD5B1, size: 0x8, addend: 0x0, symName: __RNvYINtNtNtCslJiobkLta79_5alloc3vec9into_iter8IntoIterNtNtCsdGrGZaRBwMb_3syn4attr4MetaENtNtNtNtCsieiGu2EXtoJ_4core4iter6traits10exact_size17ExactSizeIterator3lenCs9E08dBcDM90_15zerocopy_derive, symObjAddr: 0x3700, symBinAddr: 0x5C140, symSize: 0xE0 }
  - { offset: 0xDD6B1, size: 0x8, addend: 0x0, symName: __RNvYINtNtNtCslJiobkLta79_5alloc3vec9into_iter8IntoIterNtNtCsdGrGZaRBwMb_3syn8generics12GenericParamENtNtNtNtCsieiGu2EXtoJ_4core4iter6traits10exact_size17ExactSizeIterator3lenCs9E08dBcDM90_15zerocopy_derive, symObjAddr: 0x37E0, symBinAddr: 0x5C220, symSize: 0xE0 }
  - { offset: 0xDD7B1, size: 0x8, addend: 0x0, symName: __RNvYINtNtNtCslJiobkLta79_5alloc3vec9into_iter8IntoIterTINtNtCsieiGu2EXtoJ_4core6option6OptionRNtNtCsdGrGZaRBwMb_3syn4data7VariantEINtB7_3VecTRNtNtB1y_11restriction10VisibilityNtCsaKzlTDPUHDb_11proc_macro211TokenStreamRNtNtB1y_2ty4TypeEEEENtNtNtNtBW_4iter6traits10exact_size17ExactSizeIterator3lenCs9E08dBcDM90_15zerocopy_derive, symObjAddr: 0x38C0, symBinAddr: 0x5C300, symSize: 0xE0 }
  - { offset: 0xDD8B1, size: 0x8, addend: 0x0, symName: __RNvYINtNtNtCslJiobkLta79_5alloc3vec9into_iter8IntoIterTNtNtCsdGrGZaRBwMb_3syn4attr4MetaNtNtBV_5token5CommaEENtNtNtNtCsieiGu2EXtoJ_4core4iter6traits10exact_size17ExactSizeIterator3lenCs9E08dBcDM90_15zerocopy_derive, symObjAddr: 0x39A0, symBinAddr: 0x5C3E0, symSize: 0xE0 }
  - { offset: 0xDD9B1, size: 0x8, addend: 0x0, symName: __RNvYINtNtNtCslJiobkLta79_5alloc3vec9into_iter8IntoIterTNtNtCsdGrGZaRBwMb_3syn8generics12GenericParamNtNtBV_5token5CommaEENtNtNtNtCsieiGu2EXtoJ_4core4iter6traits10exact_size17ExactSizeIterator3lenCs9E08dBcDM90_15zerocopy_derive, symObjAddr: 0x3A80, symBinAddr: 0x5C4C0, symSize: 0xE0 }
  - { offset: 0xDDAB1, size: 0x8, addend: 0x0, symName: __RNvYINtNtNtCslJiobkLta79_5alloc3vec9into_iter8IntoIterTRNtNtCsdGrGZaRBwMb_3syn11restriction10VisibilityNtCsaKzlTDPUHDb_11proc_macro211TokenStreamRNtNtBW_2ty4TypeEENtNtNtNtCsieiGu2EXtoJ_4core4iter6traits10exact_size17ExactSizeIterator3lenCs9E08dBcDM90_15zerocopy_derive, symObjAddr: 0x3B60, symBinAddr: 0x5C5A0, symSize: 0xE0 }
  - { offset: 0xDE58F, size: 0x8, addend: 0x0, symName: __RINvXs6_NtCsaKzlTDPUHDb_11proc_macro23impNtB6_11TokenStreamINtNtNtNtCsieiGu2EXtoJ_4core4iter6traits7collect12FromIteratorBD_E9from_iterINtNtNtB12_8adapters3map3MapINtNtNtB14_5array4iter8IntoIterNtB8_11TokenStreamKj2_ENCINvXsb_B8_B36_IBW_B36_E9from_iterB2B_E0EECs9E08dBcDM90_15zerocopy_derive, symObjAddr: 0x6C0, symBinAddr: 0x59100, symSize: 0x340 }
  - { offset: 0xDE60C, size: 0x8, addend: 0x0, symName: __RNCINvXs6_NtCsaKzlTDPUHDb_11proc_macro23impNtB8_11TokenStreamINtNtNtNtCsieiGu2EXtoJ_4core4iter6traits7collect12FromIteratorBF_E9from_iterINtNtNtB14_8adapters3map3MapINtNtNtB16_5array4iter8IntoIterNtBa_11TokenStreamKj2_ENCINvXsb_Ba_B38_IBY_B38_E9from_iterB2D_E0EE0Cs9E08dBcDM90_15zerocopy_derive, symObjAddr: 0xC80, symBinAddr: 0x596C0, symSize: 0x110 }
  - { offset: 0xDE669, size: 0x8, addend: 0x0, symName: __RNCINvXs6_NtCsaKzlTDPUHDb_11proc_macro23impNtB8_11TokenStreamINtNtNtNtCsieiGu2EXtoJ_4core4iter6traits7collect12FromIteratorBF_E9from_iterINtNtNtB14_8adapters3map3MapINtNtNtB16_5array4iter8IntoIterNtBa_11TokenStreamKj2_ENCINvXsb_Ba_B38_IBY_B38_E9from_iterB2D_E0EEs_0Cs9E08dBcDM90_15zerocopy_derive, symObjAddr: 0xD90, symBinAddr: 0x597D0, symSize: 0xE0 }
  - { offset: 0xDE6BE, size: 0x8, addend: 0x0, symName: __RINvXs7_NtCsaKzlTDPUHDb_11proc_macro23impNtB6_11TokenStreamINtNtNtNtCsieiGu2EXtoJ_4core4iter6traits7collect6ExtendNtB8_9TokenTreeE6extendNtB8_11TokenStreamECs9E08dBcDM90_15zerocopy_derive, symObjAddr: 0xA00, symBinAddr: 0x59440, symSize: 0x170 }
  - { offset: 0xDE75A, size: 0x8, addend: 0x0, symName: __RNvXsA_NtCsaKzlTDPUHDb_11proc_macro23impNtB5_19DeferredTokenStreamNtNtCsieiGu2EXtoJ_4core5clone5Clone5cloneCs9E08dBcDM90_15zerocopy_derive, symObjAddr: 0x3000, symBinAddr: 0x5BA40, symSize: 0xA0 }
  - { offset: 0xDE78C, size: 0x8, addend: 0x0, symName: __RNvXsz_NtCsaKzlTDPUHDb_11proc_macro23impNtB5_11TokenStreamNtNtCsieiGu2EXtoJ_4core5clone5Clone5cloneCs9E08dBcDM90_15zerocopy_derive, symObjAddr: 0x3650, symBinAddr: 0x5C090, symSize: 0xB0 }
  - { offset: 0xDEA27, size: 0x8, addend: 0x0, symName: __RNvXs1_NtCsaKzlTDPUHDb_11proc_macro26markerNtB5_19ProcMacroAutoTraitsNtNtCsieiGu2EXtoJ_4core5clone5Clone5cloneCs9E08dBcDM90_15zerocopy_derive, symObjAddr: 0x2630, symBinAddr: 0x5B070, symSize: 0x10 }
  - { offset: 0xDEED4, size: 0x8, addend: 0x0, symName: __RNvXNvXsd_NtNtCslJiobkLta79_5alloc3vec9into_iterINtB8_8IntoIterppENtNtNtCsieiGu2EXtoJ_4core3ops4drop4Drop4dropINtB2_9DropGuardNtNtCsdGrGZaRBwMb_3syn4attr4MetaNtNtBc_5alloc6GlobalEB12_4dropCs9E08dBcDM90_15zerocopy_derive, symObjAddr: 0x20B0, symBinAddr: 0x5AAF0, symSize: 0x70 }
  - { offset: 0xDEFE9, size: 0x8, addend: 0x0, symName: __RNvXNvXsd_NtNtCslJiobkLta79_5alloc3vec9into_iterINtB8_8IntoIterppENtNtNtCsieiGu2EXtoJ_4core3ops4drop4Drop4dropINtB2_9DropGuardNtNtCsdGrGZaRBwMb_3syn8generics12GenericParamNtNtBc_5alloc6GlobalEB12_4dropCs9E08dBcDM90_15zerocopy_derive, symObjAddr: 0x2120, symBinAddr: 0x5AB60, symSize: 0x70 }
  - { offset: 0xDF0FE, size: 0x8, addend: 0x0, symName: __RNvXNvXsd_NtNtCslJiobkLta79_5alloc3vec9into_iterINtB8_8IntoIterppENtNtNtCsieiGu2EXtoJ_4core3ops4drop4Drop4dropINtB2_9DropGuardTINtNtB18_6option6OptionRNtNtCsdGrGZaRBwMb_3syn4data7VariantEINtBa_3VecTRNtNtB2t_11restriction10VisibilityNtCsaKzlTDPUHDb_11proc_macro211TokenStreamRNtNtB2t_2ty4TypeEEENtNtBc_5alloc6GlobalEB12_4dropCs9E08dBcDM90_15zerocopy_derive, symObjAddr: 0x2190, symBinAddr: 0x5ABD0, symSize: 0x70 }
  - { offset: 0xDF213, size: 0x8, addend: 0x0, symName: __RNvXNvXsd_NtNtCslJiobkLta79_5alloc3vec9into_iterINtB8_8IntoIterppENtNtNtCsieiGu2EXtoJ_4core3ops4drop4Drop4dropINtB2_9DropGuardTNtNtCsdGrGZaRBwMb_3syn4attr4MetaNtNtB25_5token5CommaENtNtBc_5alloc6GlobalEB12_4dropCs9E08dBcDM90_15zerocopy_derive, symObjAddr: 0x2200, symBinAddr: 0x5AC40, symSize: 0x70 }
  - { offset: 0xDF328, size: 0x8, addend: 0x0, symName: __RNvXNvXsd_NtNtCslJiobkLta79_5alloc3vec9into_iterINtB8_8IntoIterppENtNtNtCsieiGu2EXtoJ_4core3ops4drop4Drop4dropINtB2_9DropGuardTNtNtCsdGrGZaRBwMb_3syn8generics12GenericParamNtNtB25_5token5CommaENtNtBc_5alloc6GlobalEB12_4dropCs9E08dBcDM90_15zerocopy_derive, symObjAddr: 0x2270, symBinAddr: 0x5ACB0, symSize: 0x70 }
  - { offset: 0xDF43D, size: 0x8, addend: 0x0, symName: __RNvXNvXsd_NtNtCslJiobkLta79_5alloc3vec9into_iterINtB8_8IntoIterppENtNtNtCsieiGu2EXtoJ_4core3ops4drop4Drop4dropINtB2_9DropGuardTRNtNtCsdGrGZaRBwMb_3syn11restriction10VisibilityNtCsaKzlTDPUHDb_11proc_macro211TokenStreamRNtNtB26_2ty4TypeENtNtBc_5alloc6GlobalEB12_4dropCs9E08dBcDM90_15zerocopy_derive, symObjAddr: 0x22E0, symBinAddr: 0x5AD20, symSize: 0x70 }
  - { offset: 0xDF63E, size: 0x8, addend: 0x0, symName: __RNvXsd_NtNtCslJiobkLta79_5alloc3vec9into_iterINtB5_8IntoIterNtNtCsdGrGZaRBwMb_3syn4attr4MetaENtNtNtCsieiGu2EXtoJ_4core3ops4drop4Drop4dropCs9E08dBcDM90_15zerocopy_derive, symObjAddr: 0x32F0, symBinAddr: 0x5BD30, symSize: 0x90 }
  - { offset: 0xDF6D9, size: 0x8, addend: 0x0, symName: __RNvXsd_NtNtCslJiobkLta79_5alloc3vec9into_iterINtB5_8IntoIterNtNtCsdGrGZaRBwMb_3syn8generics12GenericParamENtNtNtCsieiGu2EXtoJ_4core3ops4drop4Drop4dropCs9E08dBcDM90_15zerocopy_derive, symObjAddr: 0x3380, symBinAddr: 0x5BDC0, symSize: 0x90 }
  - { offset: 0xDF774, size: 0x8, addend: 0x0, symName: __RNvXsd_NtNtCslJiobkLta79_5alloc3vec9into_iterINtB5_8IntoIterTINtNtCsieiGu2EXtoJ_4core6option6OptionRNtNtCsdGrGZaRBwMb_3syn4data7VariantEINtB7_3VecTRNtNtB1E_11restriction10VisibilityNtCsaKzlTDPUHDb_11proc_macro211TokenStreamRNtNtB1E_2ty4TypeEEEENtNtNtB12_3ops4drop4Drop4dropCs9E08dBcDM90_15zerocopy_derive, symObjAddr: 0x3410, symBinAddr: 0x5BE50, symSize: 0x90 }
  - { offset: 0xDF80F, size: 0x8, addend: 0x0, symName: __RNvXsd_NtNtCslJiobkLta79_5alloc3vec9into_iterINtB5_8IntoIterTNtNtCsdGrGZaRBwMb_3syn4attr4MetaNtNtB11_5token5CommaEENtNtNtCsieiGu2EXtoJ_4core3ops4drop4Drop4dropCs9E08dBcDM90_15zerocopy_derive, symObjAddr: 0x34A0, symBinAddr: 0x5BEE0, symSize: 0x90 }
  - { offset: 0xDF8AA, size: 0x8, addend: 0x0, symName: __RNvXsd_NtNtCslJiobkLta79_5alloc3vec9into_iterINtB5_8IntoIterTNtNtCsdGrGZaRBwMb_3syn8generics12GenericParamNtNtB11_5token5CommaEENtNtNtCsieiGu2EXtoJ_4core3ops4drop4Drop4dropCs9E08dBcDM90_15zerocopy_derive, symObjAddr: 0x3530, symBinAddr: 0x5BF70, symSize: 0x90 }
  - { offset: 0xDF945, size: 0x8, addend: 0x0, symName: __RNvXsd_NtNtCslJiobkLta79_5alloc3vec9into_iterINtB5_8IntoIterTRNtNtCsdGrGZaRBwMb_3syn11restriction10VisibilityNtCsaKzlTDPUHDb_11proc_macro211TokenStreamRNtNtB12_2ty4TypeEENtNtNtCsieiGu2EXtoJ_4core3ops4drop4Drop4dropCs9E08dBcDM90_15zerocopy_derive, symObjAddr: 0x35C0, symBinAddr: 0x5C000, symSize: 0x90 }
  - { offset: 0xDF9E6, size: 0x8, addend: 0x0, symName: __RNvXs3_NtNtCslJiobkLta79_5alloc3vec9into_iterINtB5_8IntoIterNtNtCsdGrGZaRBwMb_3syn4attr4MetaENtNtNtNtCsieiGu2EXtoJ_4core4iter6traits8iterator8Iterator4nextCs9E08dBcDM90_15zerocopy_derive, symObjAddr: 0x27B0, symBinAddr: 0x5B1F0, symSize: 0x100 }
  - { offset: 0xDFB44, size: 0x8, addend: 0x0, symName: __RNvXs3_NtNtCslJiobkLta79_5alloc3vec9into_iterINtB5_8IntoIterNtNtCsdGrGZaRBwMb_3syn4attr4MetaENtNtNtNtCsieiGu2EXtoJ_4core4iter6traits8iterator8Iterator9size_hintCs9E08dBcDM90_15zerocopy_derive, symObjAddr: 0x28B0, symBinAddr: 0x5B2F0, symSize: 0x60 }
  - { offset: 0xDFB9F, size: 0x8, addend: 0x0, symName: __RNvXs3_NtNtCslJiobkLta79_5alloc3vec9into_iterINtB5_8IntoIterNtNtCsdGrGZaRBwMb_3syn8generics12GenericParamENtNtNtNtCsieiGu2EXtoJ_4core4iter6traits8iterator8Iterator4nextCs9E08dBcDM90_15zerocopy_derive, symObjAddr: 0x2910, symBinAddr: 0x5B350, symSize: 0x100 }
  - { offset: 0xDFCFD, size: 0x8, addend: 0x0, symName: __RNvXs3_NtNtCslJiobkLta79_5alloc3vec9into_iterINtB5_8IntoIterNtNtCsdGrGZaRBwMb_3syn8generics12GenericParamENtNtNtNtCsieiGu2EXtoJ_4core4iter6traits8iterator8Iterator9size_hintCs9E08dBcDM90_15zerocopy_derive, symObjAddr: 0x2A10, symBinAddr: 0x5B450, symSize: 0x60 }
  - { offset: 0xDFD58, size: 0x8, addend: 0x0, symName: __RNvXs3_NtNtCslJiobkLta79_5alloc3vec9into_iterINtB5_8IntoIterTINtNtCsieiGu2EXtoJ_4core6option6OptionRNtNtCsdGrGZaRBwMb_3syn4data7VariantEINtB7_3VecTRNtNtB1E_11restriction10VisibilityNtCsaKzlTDPUHDb_11proc_macro211TokenStreamRNtNtB1E_2ty4TypeEEEENtNtNtNtB12_4iter6traits8iterator8Iterator4nextCs9E08dBcDM90_15zerocopy_derive, symObjAddr: 0x2A70, symBinAddr: 0x5B4B0, symSize: 0x110 }
  - { offset: 0xDFEB6, size: 0x8, addend: 0x0, symName: __RNvXs3_NtNtCslJiobkLta79_5alloc3vec9into_iterINtB5_8IntoIterTINtNtCsieiGu2EXtoJ_4core6option6OptionRNtNtCsdGrGZaRBwMb_3syn4data7VariantEINtB7_3VecTRNtNtB1E_11restriction10VisibilityNtCsaKzlTDPUHDb_11proc_macro211TokenStreamRNtNtB1E_2ty4TypeEEEENtNtNtNtB12_4iter6traits8iterator8Iterator9size_hintCs9E08dBcDM90_15zerocopy_derive, symObjAddr: 0x2B80, symBinAddr: 0x5B5C0, symSize: 0x60 }
  - { offset: 0xDFF11, size: 0x8, addend: 0x0, symName: __RNvXs3_NtNtCslJiobkLta79_5alloc3vec9into_iterINtB5_8IntoIterTNtNtCsdGrGZaRBwMb_3syn4attr4MetaNtNtB11_5token5CommaEENtNtNtNtCsieiGu2EXtoJ_4core4iter6traits8iterator8Iterator4nextCs9E08dBcDM90_15zerocopy_derive, symObjAddr: 0x2BE0, symBinAddr: 0x5B620, symSize: 0x100 }
  - { offset: 0xE006F, size: 0x8, addend: 0x0, symName: __RNvXs3_NtNtCslJiobkLta79_5alloc3vec9into_iterINtB5_8IntoIterTNtNtCsdGrGZaRBwMb_3syn4attr4MetaNtNtB11_5token5CommaEENtNtNtNtCsieiGu2EXtoJ_4core4iter6traits8iterator8Iterator9size_hintCs9E08dBcDM90_15zerocopy_derive, symObjAddr: 0x2CE0, symBinAddr: 0x5B720, symSize: 0x60 }
  - { offset: 0xE00CA, size: 0x8, addend: 0x0, symName: __RNvXs3_NtNtCslJiobkLta79_5alloc3vec9into_iterINtB5_8IntoIterTNtNtCsdGrGZaRBwMb_3syn8generics12GenericParamNtNtB11_5token5CommaEENtNtNtNtCsieiGu2EXtoJ_4core4iter6traits8iterator8Iterator4nextCs9E08dBcDM90_15zerocopy_derive, symObjAddr: 0x2D40, symBinAddr: 0x5B780, symSize: 0x100 }
  - { offset: 0xE0228, size: 0x8, addend: 0x0, symName: __RNvXs3_NtNtCslJiobkLta79_5alloc3vec9into_iterINtB5_8IntoIterTNtNtCsdGrGZaRBwMb_3syn8generics12GenericParamNtNtB11_5token5CommaEENtNtNtNtCsieiGu2EXtoJ_4core4iter6traits8iterator8Iterator9size_hintCs9E08dBcDM90_15zerocopy_derive, symObjAddr: 0x2E40, symBinAddr: 0x5B880, symSize: 0x60 }
  - { offset: 0xE0283, size: 0x8, addend: 0x0, symName: __RNvXs3_NtNtCslJiobkLta79_5alloc3vec9into_iterINtB5_8IntoIterTRNtNtCsdGrGZaRBwMb_3syn11restriction10VisibilityNtCsaKzlTDPUHDb_11proc_macro211TokenStreamRNtNtB12_2ty4TypeEENtNtNtNtCsieiGu2EXtoJ_4core4iter6traits8iterator8Iterator4nextCs9E08dBcDM90_15zerocopy_derive, symObjAddr: 0x2EA0, symBinAddr: 0x5B8E0, symSize: 0x100 }
  - { offset: 0xE03E1, size: 0x8, addend: 0x0, symName: __RNvXs3_NtNtCslJiobkLta79_5alloc3vec9into_iterINtB5_8IntoIterTRNtNtCsdGrGZaRBwMb_3syn11restriction10VisibilityNtCsaKzlTDPUHDb_11proc_macro211TokenStreamRNtNtB12_2ty4TypeEENtNtNtNtCsieiGu2EXtoJ_4core4iter6traits8iterator8Iterator9size_hintCs9E08dBcDM90_15zerocopy_derive, symObjAddr: 0x2FA0, symBinAddr: 0x5B9E0, symSize: 0x60 }
  - { offset: 0xE173B, size: 0x8, addend: 0x0, symName: __RINvMNtNtCsieiGu2EXtoJ_4core3fmt2rtNtB3_8Argument11new_displayNtCsaKzlTDPUHDb_11proc_macro211TokenStreamECs9E08dBcDM90_15zerocopy_derive, symObjAddr: 0x60, symBinAddr: 0x58AA0, symSize: 0x30 }
  - { offset: 0xE64ED, size: 0x8, addend: 0x0, symName: __RNvXNtCsdGrGZaRBwMb_3syn11parse_quoteNtNtB4_4path30AngleBracketedGenericArgumentsNtB2_10ParseQuote5parseCs9E08dBcDM90_15zerocopy_derive, symObjAddr: 0x1FE0, symBinAddr: 0x5AA20, symSize: 0x30 }
  - { offset: 0xE6522, size: 0x8, addend: 0x0, symName: __RNvXNtCsdGrGZaRBwMb_3syn11parse_quoteNtNtB4_4path4PathNtB2_10ParseQuote5parseCs9E08dBcDM90_15zerocopy_derive, symObjAddr: 0x2010, symBinAddr: 0x5AA50, symSize: 0x30 }
  - { offset: 0xE6557, size: 0x8, addend: 0x0, symName: __RNvXNtCsdGrGZaRBwMb_3syn11parse_quoteNtNtB4_6derive11DeriveInputNtB2_10ParseQuote5parseCs9E08dBcDM90_15zerocopy_derive, symObjAddr: 0x2040, symBinAddr: 0x5AA80, symSize: 0x30 }
  - { offset: 0xE6598, size: 0x8, addend: 0x0, symName: __RNvXNtCsdGrGZaRBwMb_3syn7spannedNtNtB4_4path4PathNtB2_7Spanned4spanCs9E08dBcDM90_15zerocopy_derive, symObjAddr: 0x2070, symBinAddr: 0x5AAB0, symSize: 0x20 }
  - { offset: 0xE65CD, size: 0x8, addend: 0x0, symName: __RNvXNtCsdGrGZaRBwMb_3syn7spannedNtNtB4_6derive11DeriveInputNtB2_7Spanned4spanCs9E08dBcDM90_15zerocopy_derive, symObjAddr: 0x2090, symBinAddr: 0x5AAD0, symSize: 0x20 }
  - { offset: 0xE6885, size: 0x8, addend: 0x0, symName: __RINvMNtNtCsieiGu2EXtoJ_4core3fmt2rtNtB3_8Argument11new_displayNtNtNtCsdGrGZaRBwMb_3syn4attr7parsing16DisplayAttrStyleECs9E08dBcDM90_15zerocopy_derive, symObjAddr: 0x90, symBinAddr: 0x58AD0, symSize: 0x30 }
  - { offset: 0xE7070, size: 0x8, addend: 0x0, symName: __RNvXs0_NtCs9E08dBcDM90_15zerocopy_derive4utilNtNtCsdGrGZaRBwMb_3syn6derive10DataStructNtB5_7DataExt3tag, symObjAddr: 0x2350, symBinAddr: 0x5AD90, symSize: 0x20 }
  - { offset: 0xE709C, size: 0x8, addend: 0x0, symName: __RNvXs0_NtCs9E08dBcDM90_15zerocopy_derive4utilNtNtCsdGrGZaRBwMb_3syn6derive10DataStructNtB5_7DataExt6fields, symObjAddr: 0x2370, symBinAddr: 0x5ADB0, symSize: 0x30 }
  - { offset: 0xE70C8, size: 0x8, addend: 0x0, symName: __RNvXs0_NtCs9E08dBcDM90_15zerocopy_derive4utilNtNtCsdGrGZaRBwMb_3syn6derive10DataStructNtB5_7DataExt8variants, symObjAddr: 0x23A0, symBinAddr: 0x5ADE0, symSize: 0x120 }
  - { offset: 0xE70FA, size: 0x8, addend: 0x0, symName: __RNvXs1_NtCs9E08dBcDM90_15zerocopy_derive4utilNtNtCsdGrGZaRBwMb_3syn6derive8DataEnumNtB5_7DataExt3tag, symObjAddr: 0x2520, symBinAddr: 0x5AF60, symSize: 0x70 }
  - { offset: 0xE7126, size: 0x8, addend: 0x0, symName: __RNvXs1_NtCs9E08dBcDM90_15zerocopy_derive4utilNtNtCsdGrGZaRBwMb_3syn6derive8DataEnumNtB5_7DataExt6fields, symObjAddr: 0x2590, symBinAddr: 0x5AFD0, symSize: 0x50 }
  - { offset: 0xE7152, size: 0x8, addend: 0x0, symName: __RNvXs1_NtCs9E08dBcDM90_15zerocopy_derive4utilNtNtCsdGrGZaRBwMb_3syn6derive8DataEnumNtB5_7DataExt8variants, symObjAddr: 0x25E0, symBinAddr: 0x5B020, symSize: 0x50 }
  - { offset: 0xE7184, size: 0x8, addend: 0x0, symName: __RNvXs2_NtCs9E08dBcDM90_15zerocopy_derive4utilNtNtCsdGrGZaRBwMb_3syn6derive9DataUnionNtB5_7DataExt3tag, symObjAddr: 0x2640, symBinAddr: 0x5B080, symSize: 0x20 }
  - { offset: 0xE71B0, size: 0x8, addend: 0x0, symName: __RNvXs2_NtCs9E08dBcDM90_15zerocopy_derive4utilNtNtCsdGrGZaRBwMb_3syn6derive9DataUnionNtB5_7DataExt6fields, symObjAddr: 0x2660, symBinAddr: 0x5B0A0, symSize: 0x30 }
  - { offset: 0xE71DC, size: 0x8, addend: 0x0, symName: __RNvXs2_NtCs9E08dBcDM90_15zerocopy_derive4utilNtNtCsdGrGZaRBwMb_3syn6derive9DataUnionNtB5_7DataExt8variants, symObjAddr: 0x2690, symBinAddr: 0x5B0D0, symSize: 0x120 }
  - { offset: 0xE720E, size: 0x8, addend: 0x0, symName: __RNvXs_NtCs9E08dBcDM90_15zerocopy_derive4utilNtNtCsdGrGZaRBwMb_3syn6derive4DataNtB4_7DataExt3tag, symObjAddr: 0x30E0, symBinAddr: 0x5BB20, symSize: 0xB0 }
  - { offset: 0xE7289, size: 0x8, addend: 0x0, symName: __RNvXs_NtCs9E08dBcDM90_15zerocopy_derive4utilNtNtCsdGrGZaRBwMb_3syn6derive4DataNtB4_7DataExt6fields, symObjAddr: 0x3190, symBinAddr: 0x5BBD0, symSize: 0xB0 }
  - { offset: 0xE7304, size: 0x8, addend: 0x0, symName: __RNvXs_NtCs9E08dBcDM90_15zerocopy_derive4utilNtNtCsdGrGZaRBwMb_3syn6derive4DataNtB4_7DataExt8variants, symObjAddr: 0x3240, symBinAddr: 0x5BC80, symSize: 0xB0 }
  - { offset: 0xE7575, size: 0x8, addend: 0x0, symName: __RNvMs_NtNtCslJiobkLta79_5alloc3vec9into_iterINtB4_8IntoIterNtNtCsdGrGZaRBwMb_3syn8generics12GenericParamE8as_sliceCs9E08dBcDM90_15zerocopy_derive, symObjAddr: 0x1BD0, symBinAddr: 0x5A610, symSize: 0x60 }
  - { offset: 0xE767A, size: 0x8, addend: 0x0, symName: __RNvXNtCs9OU1sGv5X54_5quote9to_tokensRNtNtCsdGrGZaRBwMb_3syn4path4PathNtB2_8ToTokens9to_tokensCs9E08dBcDM90_15zerocopy_derive, symObjAddr: 0x1F80, symBinAddr: 0x5A9C0, symSize: 0x30 }
  - { offset: 0xE76B9, size: 0x8, addend: 0x0, symName: __RNvXNtCs9OU1sGv5X54_5quote9to_tokensRNtNtCsdGrGZaRBwMb_3syn6derive11DeriveInputNtB2_8ToTokens9to_tokensCs9E08dBcDM90_15zerocopy_derive, symObjAddr: 0x1FB0, symBinAddr: 0x5A9F0, symSize: 0x30 }
  - { offset: 0xE76FE, size: 0x8, addend: 0x0, symName: __RNvYNtNtCsdGrGZaRBwMb_3syn4path4PathNtNtCs9OU1sGv5X54_5quote9to_tokens8ToTokens15to_token_streamCs9E08dBcDM90_15zerocopy_derive, symObjAddr: 0x3C70, symBinAddr: 0x5C6B0, symSize: 0x90 }
  - { offset: 0xE7748, size: 0x8, addend: 0x0, symName: __RNvYNtNtCsdGrGZaRBwMb_3syn4path4PathNtNtCs9OU1sGv5X54_5quote9to_tokens8ToTokens17into_token_streamCs9E08dBcDM90_15zerocopy_derive, symObjAddr: 0x3D00, symBinAddr: 0x5C740, symSize: 0x60 }
  - { offset: 0xE777E, size: 0x8, addend: 0x0, symName: __RNvYRNtNtCsdGrGZaRBwMb_3syn4path4PathNtNtCs9OU1sGv5X54_5quote9to_tokens8ToTokens15to_token_streamCs9E08dBcDM90_15zerocopy_derive, symObjAddr: 0x3DA0, symBinAddr: 0x5C7E0, symSize: 0x90 }
  - { offset: 0xE77C8, size: 0x8, addend: 0x0, symName: __RNvYRNtNtCsdGrGZaRBwMb_3syn4path4PathNtNtCs9OU1sGv5X54_5quote9to_tokens8ToTokens17into_token_streamCs9E08dBcDM90_15zerocopy_derive, symObjAddr: 0x3E30, symBinAddr: 0x5C870, symSize: 0x50 }
  - { offset: 0xE77FD, size: 0x8, addend: 0x0, symName: __RNvYRNtNtCsdGrGZaRBwMb_3syn6derive11DeriveInputNtNtCs9OU1sGv5X54_5quote9to_tokens8ToTokens15to_token_streamCs9E08dBcDM90_15zerocopy_derive, symObjAddr: 0x3E80, symBinAddr: 0x5C8C0, symSize: 0x90 }
  - { offset: 0xE7847, size: 0x8, addend: 0x0, symName: __RNvYRNtNtCsdGrGZaRBwMb_3syn6derive11DeriveInputNtNtCs9OU1sGv5X54_5quote9to_tokens8ToTokens17into_token_streamCs9E08dBcDM90_15zerocopy_derive, symObjAddr: 0x3F10, symBinAddr: 0x5C950, symSize: 0x50 }
  - { offset: 0xE7888, size: 0x8, addend: 0x0, symName: __RNvXs0_NtCs9OU1sGv5X54_5quote7spannedNtNtCsdGrGZaRBwMb_3syn4path4PathNtB5_7Spanned6___spanCs9E08dBcDM90_15zerocopy_derive, symObjAddr: 0x24C0, symBinAddr: 0x5AF00, symSize: 0x30 }
  - { offset: 0xE78BD, size: 0x8, addend: 0x0, symName: __RNvXs0_NtCs9OU1sGv5X54_5quote7spannedNtNtCsdGrGZaRBwMb_3syn6derive11DeriveInputNtB5_7Spanned6___spanCs9E08dBcDM90_15zerocopy_derive, symObjAddr: 0x24F0, symBinAddr: 0x5AF30, symSize: 0x30 }
  - { offset: 0xE7903, size: 0x8, addend: 0x0, symName: __RNvYNtNtCsdGrGZaRBwMb_3syn4path4PathNtNtNtCs9OU1sGv5X54_5quote9___private3ext14RepToTokensExt15quote_into_iterCs9E08dBcDM90_15zerocopy_derive, symObjAddr: 0x3D60, symBinAddr: 0x5C7A0, symSize: 0x20 }
  - { offset: 0xE7938, size: 0x8, addend: 0x0, symName: __RNvYNtNtCsdGrGZaRBwMb_3syn4path4PathNtNtNtCs9OU1sGv5X54_5quote9___private3ext14RepToTokensExt4nextCs9E08dBcDM90_15zerocopy_derive, symObjAddr: 0x3D80, symBinAddr: 0x5C7C0, symSize: 0x20 }
  - { offset: 0xE84C0, size: 0x8, addend: 0x0, symName: __RINvMNtNtCs9E08dBcDM90_15zerocopy_derive4repr4utilINtB3_7SpannedINtB5_12CompoundReprNtB5_13PrimitiveReprEE8try_fromNtB5_20UnsupportedReprErrorNtB5_7RawReprEB7_, symObjAddr: 0x0, symBinAddr: 0x5C9A0, symSize: 0x80 }
  - { offset: 0xF194D, size: 0x8, addend: 0x0, symName: __RNvXs1_NtCsieiGu2EXtoJ_4core7convertINtNtNtCs9E08dBcDM90_15zerocopy_derive4repr4util7SpannedNtBD_14FromAttrsErrorEINtB5_4IntoNtNtCsdGrGZaRBwMb_3syn5error5ErrorE4intoBF_, symObjAddr: 0x2F90, symBinAddr: 0x5F930, symSize: 0x30 }
  - { offset: 0xF1C13, size: 0x8, addend: 0x0, symName: __RINvNtNtNtCsieiGu2EXtoJ_4core4iter8adapters7flatten17and_then_or_clearINtNtB4_3map3MapINtNtB4_9enumerate9EnumerateINtNtNtCslJiobkLta79_5alloc3vec9into_iter8IntoIterTRNtNtCsdGrGZaRBwMb_3syn11restriction10VisibilityNtCsaKzlTDPUHDb_11proc_macro211TokenStreamRNtNtB2I_2ty4TypeEEENCNCNvNtNtCs9E08dBcDM90_15zerocopy_derive6derive14try_from_bytes19derive_is_bit_valid00EB3p_NvYB16_NtNtNtB6_6traits8iterator8Iterator4nextEB4z_, symObjAddr: 0x2A0, symBinAddr: 0x5CC40, symSize: 0x180 }
  - { offset: 0xF1D5B, size: 0x8, addend: 0x0, symName: __RINvNtNtNtCsieiGu2EXtoJ_4core4iter8adapters7flatten17and_then_or_clearINtNtCsdGrGZaRBwMb_3syn10punctuated4IterNtNtB1b_4data5FieldERB1K_NvYB16_NtNtNtB6_6traits8iterator8Iterator4nextECs9E08dBcDM90_15zerocopy_derive, symObjAddr: 0x420, symBinAddr: 0x5CDC0, symSize: 0xF0 }
  - { offset: 0xF1EA3, size: 0x8, addend: 0x0, symName: __RINvNtNtNtCsieiGu2EXtoJ_4core4iter8adapters7flatten17and_then_or_clearINtNtCsdGrGZaRBwMb_3syn10punctuated4IterNtNtB1b_8generics14WherePredicateERB1K_NvYB16_NtNtNtB6_6traits8iterator8Iterator4nextECs9E08dBcDM90_15zerocopy_derive, symObjAddr: 0x510, symBinAddr: 0x5CEB0, symSize: 0xF0 }
  - { offset: 0xF204D, size: 0x8, addend: 0x0, symName: __RNvXs1_NtNtNtCsieiGu2EXtoJ_4core4iter8adapters7flattenINtB5_7FlatMapINtNtCsdGrGZaRBwMb_3syn10punctuated4IterNtNtB19_4data7VariantERNtB1K_6FieldsNCNvXs1_NtCs9E08dBcDM90_15zerocopy_derive4utilNtNtB19_6derive8DataEnumNtB2q_7DataExt6fields0ENtNtNtB9_6traits8iterator8Iterator4nextB2s_, symObjAddr: 0x31A0, symBinAddr: 0x5FB40, symSize: 0x20 }
  - { offset: 0xF2094, size: 0x8, addend: 0x0, symName: __RNvXs1_NtNtNtCsieiGu2EXtoJ_4core4iter8adapters7flattenINtB5_7FlatMapINtNtCsdGrGZaRBwMb_3syn10punctuated4IterNtNtB19_4data7VariantERNtB1K_6FieldsNCNvXs1_NtCs9E08dBcDM90_15zerocopy_derive4utilNtNtB19_6derive8DataEnumNtB2q_7DataExt6fields0ENtNtNtB9_6traits8iterator8Iterator9size_hintB2s_, symObjAddr: 0x31C0, symBinAddr: 0x5FB60, symSize: 0x30 }
  - { offset: 0xF20DB, size: 0x8, addend: 0x0, symName: __RNvXs1_NtNtNtCsieiGu2EXtoJ_4core4iter8adapters7flattenINtB5_7FlatMapINtNtNtCslJiobkLta79_5alloc3vec9into_iter8IntoIterTINtNtBb_6option6OptionRNtNtCsdGrGZaRBwMb_3syn4data7VariantEINtB19_3VecTRNtNtB2k_11restriction10VisibilityNtCsaKzlTDPUHDb_11proc_macro211TokenStreamRNtNtB2k_2ty4TypeEEEEINtNtB7_3map3MapINtNtB7_9enumerate9EnumerateIB15_B31_EENCNCNvNtNtCs9E08dBcDM90_15zerocopy_derive6derive14try_from_bytes19derive_is_bit_valid00ENCB5y_0ENtNtNtB9_6traits8iterator8Iterator4nextB5E_, symObjAddr: 0x31F0, symBinAddr: 0x5FB90, symSize: 0x30 }
  - { offset: 0xF2128, size: 0x8, addend: 0x0, symName: __RNvXs9_NtNtNtCsieiGu2EXtoJ_4core4iter8adapters7flattenINtB5_7FlattenINtNtB7_3map3MapIB15_INtNtNtBb_5array4iter8IntoIterNtCsaKzlTDPUHDb_11proc_macro211TokenStreamKj2_ENCINvXsb_B1V_B1T_INtNtNtB9_6traits7collect12FromIteratorB1T_E9from_iterB1p_E0ENCINvXs6_NtB1V_3impNtB43_11TokenStreamIB2W_B4d_E9from_iterB1k_Es_0EENtNtB30_8iterator8Iterator4nextCs9E08dBcDM90_15zerocopy_derive, symObjAddr: 0x5DF0, symBinAddr: 0x62790, symSize: 0x30 }
  - { offset: 0xF2166, size: 0x8, addend: 0x0, symName: __RNvXs9_NtNtNtCsieiGu2EXtoJ_4core4iter8adapters7flattenINtB5_7FlattenINtNtB7_3map3MapIB15_INtNtNtBb_5array4iter8IntoIterNtCsaKzlTDPUHDb_11proc_macro211TokenStreamKj2_ENCINvXsb_B1V_B1T_INtNtNtB9_6traits7collect12FromIteratorB1T_E9from_iterB1p_E0ENCINvXs6_NtB1V_3impNtB43_11TokenStreamIB2W_B4d_E9from_iterB1k_Es_0EENtNtB30_8iterator8Iterator9size_hintCs9E08dBcDM90_15zerocopy_derive, symObjAddr: 0x5E20, symBinAddr: 0x627C0, symSize: 0x30 }
  - { offset: 0xF21A4, size: 0x8, addend: 0x0, symName: __RNvXs9_NtNtNtCsieiGu2EXtoJ_4core4iter8adapters7flattenINtB5_7FlattenINtNtB7_3map3MapINtNtB7_5chain5ChainIB1l_IB15_INtNtNtBb_5slice4iter4IterTRNtNtCsdGrGZaRBwMb_3syn11restriction10VisibilityNtCsaKzlTDPUHDb_11proc_macro211TokenStreamRNtNtB2k_2ty4TypeEENCNvNtNtCs9E08dBcDM90_15zerocopy_derive6derive14try_from_bytes29derive_has_field_struct_union0EINtNtBb_6option8IntoIterB31_EEIB15_B1O_NCB42_s0_0EENcNtINtB5A_6OptionB31_E4Some0EENtNtNtB9_6traits8iterator8Iterator4nextB48_, symObjAddr: 0x5E50, symBinAddr: 0x627F0, symSize: 0x30 }
  - { offset: 0xF21E2, size: 0x8, addend: 0x0, symName: __RNvXs9_NtNtNtCsieiGu2EXtoJ_4core4iter8adapters7flattenINtB5_7FlattenINtNtBb_6option8IntoIterINtNtCsdGrGZaRBwMb_3syn10punctuated4IterNtNtB1x_8generics14WherePredicateEEENtNtNtB9_6traits8iterator8Iterator4nextCs9E08dBcDM90_15zerocopy_derive, symObjAddr: 0x5E80, symBinAddr: 0x62820, symSize: 0x20 }
  - { offset: 0xF2220, size: 0x8, addend: 0x0, symName: __RNvXs9_NtNtNtCsieiGu2EXtoJ_4core4iter8adapters7flattenINtB5_7FlattenINtNtNtBb_5array4iter8IntoIterINtNtBb_6option6OptionNtCsaKzlTDPUHDb_11proc_macro211TokenStreamEKj1_EENtNtNtB9_6traits8iterator8Iterator4nextCs9E08dBcDM90_15zerocopy_derive, symObjAddr: 0x5EA0, symBinAddr: 0x62840, symSize: 0x30 }
  - { offset: 0xF225E, size: 0x8, addend: 0x0, symName: __RNvXs9_NtNtNtCsieiGu2EXtoJ_4core4iter8adapters7flattenINtB5_7FlattenINtNtNtBb_5array4iter8IntoIterINtNtBb_6option6OptionNtCsaKzlTDPUHDb_11proc_macro211TokenStreamEKj3_EENtNtNtB9_6traits8iterator8Iterator4nextCs9E08dBcDM90_15zerocopy_derive, symObjAddr: 0x5ED0, symBinAddr: 0x62870, symSize: 0x30 }
  - { offset: 0xF22A2, size: 0x8, addend: 0x0, symName: __RNvXsI_NtNtNtCsieiGu2EXtoJ_4core4iter8adapters7flattenINtB5_13FlattenCompatINtNtB7_3map3MapINtNtB7_5chain5ChainIB1s_IB1c_INtNtNtBb_5slice4iter4IterTRNtNtCsdGrGZaRBwMb_3syn11restriction10VisibilityNtCsaKzlTDPUHDb_11proc_macro211TokenStreamRNtNtB2r_2ty4TypeEENCNvNtNtCs9E08dBcDM90_15zerocopy_derive6derive14try_from_bytes29derive_has_field_struct_union0EINtNtBb_6option8IntoIterB38_EEIB1c_B1V_NCB49_s0_0EENcNtINtB5H_6OptionB38_E4Some0EB5E_ENtNtNtB9_6traits8iterator8Iterator4nextB4f_, symObjAddr: 0x5F00, symBinAddr: 0x628A0, symSize: 0x1A0 }
  - { offset: 0xF232D, size: 0x8, addend: 0x0, symName: __RNvXsI_NtNtNtCsieiGu2EXtoJ_4core4iter8adapters7flattenINtB5_13FlattenCompatINtNtNtBb_5array4iter8IntoIterINtNtBb_6option6OptionNtCsaKzlTDPUHDb_11proc_macro211TokenStreamEKj1_EINtB1I_8IntoIterB21_EENtNtNtB9_6traits8iterator8Iterator4nextCs9E08dBcDM90_15zerocopy_derive, symObjAddr: 0x60A0, symBinAddr: 0x62A40, symSize: 0x1A0 }
  - { offset: 0xF23B8, size: 0x8, addend: 0x0, symName: __RNvXsI_NtNtNtCsieiGu2EXtoJ_4core4iter8adapters7flattenINtB5_13FlattenCompatINtNtNtBb_5array4iter8IntoIterINtNtBb_6option6OptionNtCsaKzlTDPUHDb_11proc_macro211TokenStreamEKj3_EINtB1I_8IntoIterB21_EENtNtNtB9_6traits8iterator8Iterator4nextCs9E08dBcDM90_15zerocopy_derive, symObjAddr: 0x6240, symBinAddr: 0x62BE0, symSize: 0x1A0 }
  - { offset: 0xF2449, size: 0x8, addend: 0x0, symName: __RNvXsi_NtNtNtCsieiGu2EXtoJ_4core4iter8adapters7flattenINtB5_13FlattenCompatINtNtB7_3map3MapIB1c_INtNtNtBb_5array4iter8IntoIterNtCsaKzlTDPUHDb_11proc_macro211TokenStreamKj2_ENCINvXsb_B22_B20_INtNtNtB9_6traits7collect12FromIteratorB20_E9from_iterB1w_E0ENCINvXs6_NtB22_3impNtB4a_11TokenStreamIB33_B4k_E9from_iterB1r_Es_0EINtNtB22_5rcvec13RcVecIntoIterNtB22_9TokenTreeEENtNtB37_8iterator8Iterator4nextCs9E08dBcDM90_15zerocopy_derive, symObjAddr: 0x64B0, symBinAddr: 0x62E50, symSize: 0x1D0 }
  - { offset: 0xF24DC, size: 0x8, addend: 0x0, symName: __RNvXsi_NtNtNtCsieiGu2EXtoJ_4core4iter8adapters7flattenINtB5_13FlattenCompatINtNtB7_3map3MapIB1c_INtNtNtBb_5array4iter8IntoIterNtCsaKzlTDPUHDb_11proc_macro211TokenStreamKj2_ENCINvXsb_B22_B20_INtNtNtB9_6traits7collect12FromIteratorB20_E9from_iterB1w_E0ENCINvXs6_NtB22_3impNtB4a_11TokenStreamIB33_B4k_E9from_iterB1r_Es_0EINtNtB22_5rcvec13RcVecIntoIterNtB22_9TokenTreeEENtNtB37_8iterator8Iterator9size_hintCs9E08dBcDM90_15zerocopy_derive, symObjAddr: 0x6680, symBinAddr: 0x63020, symSize: 0x900 }
  - { offset: 0xF2C35, size: 0x8, addend: 0x0, symName: __RNvXsi_NtNtNtCsieiGu2EXtoJ_4core4iter8adapters7flattenINtB5_13FlattenCompatINtNtB7_3map3MapINtNtCsdGrGZaRBwMb_3syn10punctuated4IterNtNtB1w_4data7VariantENCNvXs1_NtCs9E08dBcDM90_15zerocopy_derive4utilNtNtB1w_6derive8DataEnumNtB2z_7DataExt6fields0EIB1s_NtB27_5FieldEENtNtNtB9_6traits8iterator8Iterator4nextB2B_, symObjAddr: 0x6F80, symBinAddr: 0x63920, symSize: 0x100 }
