---
triple:          'x86_64-apple-darwin'
binary-path:     '/Users/kema/git/rust-serv/target/debug/build/zerocopy-fedf9deff5962aae/build_script_build-fedf9deff5962aae'
relocations:
  - { offset: 0x1E, size: 0x8, addend: 0x0, symName: __RINvMsx_NtNtCsieiGu2EXtoJ_4core3str7patternNtB6_14TwoWaySearcher4nextNtB6_14RejectAndMatchECs1AvS6iYDQZt_18build_script_build, symObjAddr: 0x0, symBinAddr: 0x100000B90, symSize: 0x620 }
  - { offset: 0x1CEB, size: 0x8, addend: 0x0, symName: __RNCNvNtNtCsieiGu2EXtoJ_4core3str7pattern13simd_contains0Cs1AvS6iYDQZt_18build_script_build, symObjAddr: 0xC40, symBinAddr: 0x1000017D0, symSize: 0x60 }
  - { offset: 0x1D51, size: 0x8, addend: 0x0, symName: __RNCNvNtNtCsieiGu2EXtoJ_4core3str7pattern13simd_containss0_0Cs1AvS6iYDQZt_18build_script_build, symObjAddr: 0xCA0, symBinAddr: 0x10005A0F0, symSize: 0x220 }
  - { offset: 0x1FCE, size: 0x8, addend: 0x0, symName: __RNCNvNtNtCsieiGu2EXtoJ_4core3str7pattern13simd_containss1_0Cs1AvS6iYDQZt_18build_script_build, symObjAddr: 0xEC0, symBinAddr: 0x100001830, symSize: 0x1D0 }
  - { offset: 0x2316, size: 0x8, addend: 0x0, symName: __RNCNvNtNtCsieiGu2EXtoJ_4core3str7pattern13simd_containss_0Cs1AvS6iYDQZt_18build_script_build, symObjAddr: 0x1090, symBinAddr: 0x100001A00, symSize: 0x80 }
  - { offset: 0x24A4, size: 0x8, addend: 0x0, symName: __RNvNtNtCsieiGu2EXtoJ_4core3str7pattern13simd_containsCs1AvS6iYDQZt_18build_script_build, symObjAddr: 0x1110, symBinAddr: 0x100001A80, symSize: 0x9D0 }
  - { offset: 0x2B2D, size: 0x8, addend: 0x0, symName: __RNvNtNtCsieiGu2EXtoJ_4core3str7pattern14small_slice_eqCs1AvS6iYDQZt_18build_script_build, symObjAddr: 0x1AE0, symBinAddr: 0x100002450, symSize: 0x2C0 }
  - { offset: 0x2EC9, size: 0x8, addend: 0x0, symName: __RNvXs0_NtNtCsieiGu2EXtoJ_4core3str7patternNtB5_12CharSearcherNtB5_15ReverseSearcher9next_backCs1AvS6iYDQZt_18build_script_build, symObjAddr: 0x1DA0, symBinAddr: 0x100002710, symSize: 0x240 }
  - { offset: 0x319E, size: 0x8, addend: 0x0, symName: __RNvXs2_NtNtCsieiGu2EXtoJ_4core3str7patterncNtB5_7Pattern13into_searcherCs1AvS6iYDQZt_18build_script_build, symObjAddr: 0x1FE0, symBinAddr: 0x100002950, symSize: 0x120 }
  - { offset: 0x32B9, size: 0x8, addend: 0x0, symName: __RNvXs2_NtNtCsieiGu2EXtoJ_4core3str7patterncNtB5_7Pattern15as_utf8_patternCs1AvS6iYDQZt_18build_script_build, symObjAddr: 0x2100, symBinAddr: 0x100002A70, symSize: 0x40 }
  - { offset: 0x32ED, size: 0x8, addend: 0x0, symName: __RNvXs7_NtNtCsieiGu2EXtoJ_4core3str7patternINtB5_18MultiCharEqPatternNCNvCs1AvS6iYDQZt_18build_script_build13rustc_version0ENtB5_7Pattern13into_searcherB18_, symObjAddr: 0x2140, symBinAddr: 0x100002AB0, symSize: 0xB0 }
  - { offset: 0x3349, size: 0x8, addend: 0x0, symName: __RNvXs7_NtNtCsieiGu2EXtoJ_4core3str7patternINtB5_18MultiCharEqPatternNtB7_12IsWhitespaceENtB5_7Pattern13into_searcherCs1AvS6iYDQZt_18build_script_build, symObjAddr: 0x21F0, symBinAddr: 0x100002B60, symSize: 0xB0 }
  - { offset: 0x33A5, size: 0x8, addend: 0x0, symName: __RNvXs7_NtNtCsieiGu2EXtoJ_4core3str7patternINtB5_18MultiCharEqPatternNvMNtNtB9_4char7methodsc13is_whitespaceENtB5_7Pattern13into_searcherCs1AvS6iYDQZt_18build_script_build, symObjAddr: 0x22A0, symBinAddr: 0x100002C10, symSize: 0xB0 }
  - { offset: 0x3407, size: 0x8, addend: 0x0, symName: __RNvXs8_NtNtCsieiGu2EXtoJ_4core3str7patternINtB5_19MultiCharEqSearcherNCNvCs1AvS6iYDQZt_18build_script_build13rustc_version0ENtB5_8Searcher4nextB19_, symObjAddr: 0x2350, symBinAddr: 0x100002CC0, symSize: 0x160 }
  - { offset: 0x352F, size: 0x8, addend: 0x0, symName: __RNvXs8_NtNtCsieiGu2EXtoJ_4core3str7patternINtB5_19MultiCharEqSearcherNtB7_12IsWhitespaceENtB5_8Searcher4nextCs1AvS6iYDQZt_18build_script_build, symObjAddr: 0x24B0, symBinAddr: 0x100002E20, symSize: 0x160 }
  - { offset: 0x3657, size: 0x8, addend: 0x0, symName: __RNvXs8_NtNtCsieiGu2EXtoJ_4core3str7patternINtB5_19MultiCharEqSearcherNvMNtNtB9_4char7methodsc13is_whitespaceENtB5_8Searcher4nextCs1AvS6iYDQZt_18build_script_build, symObjAddr: 0x2610, symBinAddr: 0x100002F80, symSize: 0x160 }
  - { offset: 0x3822, size: 0x8, addend: 0x0, symName: __RNvXs_NtNtCsieiGu2EXtoJ_4core3str7patternNtB4_12CharSearcherNtB4_8Searcher10next_matchCs1AvS6iYDQZt_18build_script_build, symObjAddr: 0x2770, symBinAddr: 0x1000030E0, symSize: 0x4A0 }
  - { offset: 0x3DC7, size: 0x8, addend: 0x0, symName: __RNvXs_NtNtCsieiGu2EXtoJ_4core3str7patternNtB4_12CharSearcherNtB4_8Searcher4nextCs1AvS6iYDQZt_18build_script_build, symObjAddr: 0x2C10, symBinAddr: 0x100003580, symSize: 0x230 }
  - { offset: 0x4096, size: 0x8, addend: 0x0, symName: __RNvXs_NtNtCsieiGu2EXtoJ_4core3str7patternNtB4_12CharSearcherNtB4_8Searcher8haystackCs1AvS6iYDQZt_18build_script_build, symObjAddr: 0x2E40, symBinAddr: 0x1000037B0, symSize: 0x20 }
  - { offset: 0x40CA, size: 0x8, addend: 0x0, symName: __RNvXso_NtNtCsieiGu2EXtoJ_4core3str7patternINtB5_21CharPredicateSearcherNCNvCs1AvS6iYDQZt_18build_script_build13rustc_version0ENtB5_8Searcher10next_matchB1b_, symObjAddr: 0x2E60, symBinAddr: 0x1000037D0, symSize: 0x30 }
  - { offset: 0x4101, size: 0x8, addend: 0x0, symName: __RNvXso_NtNtCsieiGu2EXtoJ_4core3str7patternINtB5_21CharPredicateSearcherNCNvCs1AvS6iYDQZt_18build_script_build13rustc_version0ENtB5_8Searcher8haystackB1b_, symObjAddr: 0x2E90, symBinAddr: 0x100003800, symSize: 0x20 }
  - { offset: 0x414D, size: 0x8, addend: 0x0, symName: __RNvXso_NtNtCsieiGu2EXtoJ_4core3str7patternINtB5_21CharPredicateSearcherNtB7_12IsWhitespaceENtB5_8Searcher10next_matchCs1AvS6iYDQZt_18build_script_build, symObjAddr: 0x2EB0, symBinAddr: 0x100003820, symSize: 0x30 }
  - { offset: 0x4184, size: 0x8, addend: 0x0, symName: __RNvXso_NtNtCsieiGu2EXtoJ_4core3str7patternINtB5_21CharPredicateSearcherNtB7_12IsWhitespaceENtB5_8Searcher8haystackCs1AvS6iYDQZt_18build_script_build, symObjAddr: 0x2EE0, symBinAddr: 0x100003850, symSize: 0x20 }
  - { offset: 0x41D0, size: 0x8, addend: 0x0, symName: __RNvXso_NtNtCsieiGu2EXtoJ_4core3str7patternINtB5_21CharPredicateSearcherNvMNtNtB9_4char7methodsc13is_whitespaceENtB5_8Searcher11next_rejectCs1AvS6iYDQZt_18build_script_build, symObjAddr: 0x2F00, symBinAddr: 0x100003870, symSize: 0x30 }
  - { offset: 0x420D, size: 0x8, addend: 0x0, symName: __RNvXst_NtNtCsieiGu2EXtoJ_4core3str7patternReNtB5_7Pattern13into_searcherCs1AvS6iYDQZt_18build_script_build, symObjAddr: 0x2F30, symBinAddr: 0x1000038A0, symSize: 0x50 }
  - { offset: 0x4274, size: 0x8, addend: 0x0, symName: __RNvXst_NtNtCsieiGu2EXtoJ_4core3str7patternReNtB5_7Pattern15is_contained_inCs1AvS6iYDQZt_18build_script_build, symObjAddr: 0x2F80, symBinAddr: 0x1000038F0, symSize: 0x2F0 }
  - { offset: 0x4582, size: 0x8, addend: 0x0, symName: __RNvXst_NtNtCsieiGu2EXtoJ_4core3str7patternReNtB5_7Pattern15strip_suffix_ofCs1AvS6iYDQZt_18build_script_build, symObjAddr: 0x3270, symBinAddr: 0x100003BE0, symSize: 0xE0 }
  - { offset: 0x4797, size: 0x8, addend: 0x0, symName: __RNvXsv_NtNtCsieiGu2EXtoJ_4core3str7patternNtB5_11StrSearcherNtB5_8Searcher10next_matchCs1AvS6iYDQZt_18build_script_build, symObjAddr: 0x3350, symBinAddr: 0x100003CC0, symSize: 0x170 }
  - { offset: 0x4824, size: 0x8, addend: 0x0, symName: __RNvXsv_NtNtCsieiGu2EXtoJ_4core3str7patternNtB5_11StrSearcherNtB5_8Searcher4nextCs1AvS6iYDQZt_18build_script_build, symObjAddr: 0x34C0, symBinAddr: 0x100003E30, symSize: 0x500 }
  - { offset: 0x4B30, size: 0x8, addend: 0x0, symName: __RNvXsv_NtNtCsieiGu2EXtoJ_4core3str7patternNtB5_11StrSearcherNtB5_8Searcher8haystackCs1AvS6iYDQZt_18build_script_build, symObjAddr: 0x39C0, symBinAddr: 0x100004330, symSize: 0x20 }
  - { offset: 0x4B64, size: 0x8, addend: 0x0, symName: __RNvXsy_NtNtCsieiGu2EXtoJ_4core3str7patternNtB5_9MatchOnlyNtB5_14TwoWayStrategy16use_early_rejectCs1AvS6iYDQZt_18build_script_build, symObjAddr: 0x39E0, symBinAddr: 0x100004350, symSize: 0x10 }
  - { offset: 0x4B82, size: 0x8, addend: 0x0, symName: __RNvXsy_NtNtCsieiGu2EXtoJ_4core3str7patternNtB5_9MatchOnlyNtB5_14TwoWayStrategy8matchingCs1AvS6iYDQZt_18build_script_build, symObjAddr: 0x39F0, symBinAddr: 0x100004360, symSize: 0x20 }
  - { offset: 0x4BBF, size: 0x8, addend: 0x0, symName: __RNvXsy_NtNtCsieiGu2EXtoJ_4core3str7patternNtB5_9MatchOnlyNtB5_14TwoWayStrategy9rejectingCs1AvS6iYDQZt_18build_script_build, symObjAddr: 0x3A10, symBinAddr: 0x100004380, symSize: 0x20 }
  - { offset: 0x4C02, size: 0x8, addend: 0x0, symName: __RNvXsz_NtNtCsieiGu2EXtoJ_4core3str7patternNtB5_14RejectAndMatchNtB5_14TwoWayStrategy16use_early_rejectCs1AvS6iYDQZt_18build_script_build, symObjAddr: 0x3A30, symBinAddr: 0x1000043A0, symSize: 0x10 }
  - { offset: 0x4C20, size: 0x8, addend: 0x0, symName: __RNvXsz_NtNtCsieiGu2EXtoJ_4core3str7patternNtB5_14RejectAndMatchNtB5_14TwoWayStrategy8matchingCs1AvS6iYDQZt_18build_script_build, symObjAddr: 0x3A40, symBinAddr: 0x1000043B0, symSize: 0x20 }
  - { offset: 0x4C5D, size: 0x8, addend: 0x0, symName: __RNvXsz_NtNtCsieiGu2EXtoJ_4core3str7patternNtB5_14RejectAndMatchNtB5_14TwoWayStrategy9rejectingCs1AvS6iYDQZt_18build_script_build, symObjAddr: 0x3A60, symBinAddr: 0x1000043D0, symSize: 0x20 }
  - { offset: 0x4CA0, size: 0x8, addend: 0x0, symName: __RNvYINtNtNtCsieiGu2EXtoJ_4core3str7pattern19MultiCharEqSearcherNCNvCs1AvS6iYDQZt_18build_script_build13rustc_version0ENtB5_8Searcher10next_matchB13_, symObjAddr: 0x3A80, symBinAddr: 0x1000043F0, symSize: 0x90 }
  - { offset: 0x4D01, size: 0x8, addend: 0x0, symName: __RNvYINtNtNtCsieiGu2EXtoJ_4core3str7pattern19MultiCharEqSearcherNtB7_12IsWhitespaceENtB5_8Searcher10next_matchCs1AvS6iYDQZt_18build_script_build, symObjAddr: 0x3B10, symBinAddr: 0x100004480, symSize: 0x90 }
  - { offset: 0x4D62, size: 0x8, addend: 0x0, symName: __RNvYINtNtNtCsieiGu2EXtoJ_4core3str7pattern19MultiCharEqSearcherNvMNtNtB9_4char7methodsc13is_whitespaceENtB5_8Searcher11next_rejectCs1AvS6iYDQZt_18build_script_build, symObjAddr: 0x3BA0, symBinAddr: 0x100004510, symSize: 0x90 }
  - { offset: 0x4DC7, size: 0x8, addend: 0x0, symName: __RNvYNtNtNtCsieiGu2EXtoJ_4core3str7pattern12CharSearcherNtB4_8Searcher11next_rejectCs1AvS6iYDQZt_18build_script_build, symObjAddr: 0x3CC0, symBinAddr: 0x100004630, symSize: 0x90 }
  - { offset: 0x4E32, size: 0x8, addend: 0x0, symName: __RNvYNtNtNtCsieiGu2EXtoJ_4core3str7pattern12CharSearcherNtB4_15ReverseSearcher16next_reject_backCs1AvS6iYDQZt_18build_script_build, symObjAddr: 0x3C30, symBinAddr: 0x1000045A0, symSize: 0x90 }
  - { offset: 0x600E, size: 0x8, addend: 0x0, symName: __RINvMsx_NtNtCsieiGu2EXtoJ_4core3str7patternNtB6_14TwoWaySearcher4nextNtB6_14RejectAndMatchECs1AvS6iYDQZt_18build_script_build, symObjAddr: 0x0, symBinAddr: 0x100000B90, symSize: 0x620 }
  - { offset: 0x63AB, size: 0x8, addend: 0x0, symName: __RINvMsx_NtNtCsieiGu2EXtoJ_4core3str7patternNtB6_14TwoWaySearcher4nextNtB6_9MatchOnlyECs1AvS6iYDQZt_18build_script_build, symObjAddr: 0x620, symBinAddr: 0x1000011B0, symSize: 0x620 }
  - { offset: 0x6D18, size: 0x8, addend: 0x0, symName: __RINvMNtCsieiGu2EXtoJ_4core6optionINtB3_6OptionReE11map_or_elseNtNtCslJiobkLta79_5alloc6string6StringNCNvNtB12_3fmt6format0NvYeNtNtB12_6borrow7ToOwned8to_ownedECs1AvS6iYDQZt_18build_script_build, symObjAddr: 0x0, symBinAddr: 0x1000046C0, symSize: 0xC0 }
  - { offset: 0x7899, size: 0x8, addend: 0x0, symName: __RNvNvMNtNtCsieiGu2EXtoJ_4core3ptr9const_ptrPp20offset_from_unsigned18precondition_checkCs1AvS6iYDQZt_18build_script_build, symObjAddr: 0x1A70, symBinAddr: 0x100006130, symSize: 0xA0 }
  - { offset: 0x7B69, size: 0x8, addend: 0x0, symName: __RINvNtCsieiGu2EXtoJ_4core3ptr14read_unalignedINtNtNtB4_9core_simd6vector4SimdhKj10_EECs1AvS6iYDQZt_18build_script_build, symObjAddr: 0xE70, symBinAddr: 0x100005530, symSize: 0xA0 }
  - { offset: 0x7CDD, size: 0x8, addend: 0x0, symName: __RINvNtCsieiGu2EXtoJ_4core3ptr14read_unalignedmECs1AvS6iYDQZt_18build_script_build, symObjAddr: 0xF10, symBinAddr: 0x1000055D0, symSize: 0x80 }
  - { offset: 0x7E09, size: 0x8, addend: 0x0, symName: __RNvNvNtCsieiGu2EXtoJ_4core3ptr19copy_nonoverlapping18precondition_checkCs1AvS6iYDQZt_18build_script_build, symObjAddr: 0x1BB0, symBinAddr: 0x100006270, symSize: 0x4B0 }
  - { offset: 0x858D, size: 0x8, addend: 0x0, symName: __RNvXsI_NtCsieiGu2EXtoJ_4core6optionINtB5_6OptionReENtNtB7_3fmt5Debug3fmtCs1AvS6iYDQZt_18build_script_build, symObjAddr: 0x2FB0, symBinAddr: 0x100007670, symSize: 0x90 }
  - { offset: 0x85F1, size: 0x8, addend: 0x0, symName: __RNvXsI_NtCsieiGu2EXtoJ_4core6optionINtB5_6OptionhENtNtB7_3fmt5Debug3fmtCs1AvS6iYDQZt_18build_script_build, symObjAddr: 0x3040, symBinAddr: 0x100007700, symSize: 0x80 }
  - { offset: 0x865B, size: 0x8, addend: 0x0, symName: __RNvXsd_NtCsieiGu2EXtoJ_4core6optionINtB5_6OptionReENtNtB7_3cmp9PartialEq2eqCs1AvS6iYDQZt_18build_script_build, symObjAddr: 0x3370, symBinAddr: 0x100007A30, symSize: 0xB0 }
  - { offset: 0x8C6F, size: 0x8, addend: 0x0, symName: __RNvXs19_NtCsieiGu2EXtoJ_4core3fmtRINtNtB8_6option6OptionReENtB6_5Debug3fmtCs1AvS6iYDQZt_18build_script_build, symObjAddr: 0x2C50, symBinAddr: 0x100007310, symSize: 0x20 }
  - { offset: 0x8CB5, size: 0x8, addend: 0x0, symName: __RNvXs19_NtCsieiGu2EXtoJ_4core3fmtRINtNtB8_6option6OptionhENtB6_5Debug3fmtCs1AvS6iYDQZt_18build_script_build, symObjAddr: 0x2C70, symBinAddr: 0x100007330, symSize: 0x20 }
  - { offset: 0x8E72, size: 0x8, addend: 0x0, symName: __RNvMNtNtCsieiGu2EXtoJ_4core4char7methodsc13is_whitespaceCs1AvS6iYDQZt_18build_script_build, symObjAddr: 0x1500, symBinAddr: 0x100005BC0, symSize: 0x60 }
  - { offset: 0x8EB6, size: 0x8, addend: 0x0, symName: __RNvMNtNtCsieiGu2EXtoJ_4core4char7methodsc14is_ascii_digitCs1AvS6iYDQZt_18build_script_build, symObjAddr: 0x1560, symBinAddr: 0x100005C20, symSize: 0x40 }
  - { offset: 0x8EE4, size: 0x8, addend: 0x0, symName: __RNvMNtNtCsieiGu2EXtoJ_4core4char7methodsc8to_digitCs1AvS6iYDQZt_18build_script_build, symObjAddr: 0x15A0, symBinAddr: 0x100005C60, symSize: 0xF0 }
  - { offset: 0x9002, size: 0x8, addend: 0x0, symName: __RNvNtNtCsieiGu2EXtoJ_4core4char7methods15encode_utf8_rawCs1AvS6iYDQZt_18build_script_build, symObjAddr: 0x1850, symBinAddr: 0x100005F10, symSize: 0xE0 }
  - { offset: 0x9102, size: 0x8, addend: 0x0, symName: __RNvNtNtCsieiGu2EXtoJ_4core4char7methods25encode_utf8_raw_uncheckedCs1AvS6iYDQZt_18build_script_build, symObjAddr: 0x1930, symBinAddr: 0x100005FF0, symSize: 0x140 }
  - { offset: 0x955B, size: 0x8, addend: 0x0, symName: __RNvXs3_NtNtCsieiGu2EXtoJ_4core3str7patternNvMNtNtB9_4char7methodsc13is_whitespaceNtB5_11MultiCharEq7matchesCs1AvS6iYDQZt_18build_script_build, symObjAddr: 0x2D50, symBinAddr: 0x100007410, symSize: 0x20 }
  - { offset: 0x95A7, size: 0x8, addend: 0x0, symName: __RNvXsr_NtNtCsieiGu2EXtoJ_4core3str7patternNvMNtNtB9_4char7methodsc13is_whitespaceNtB5_7Pattern13into_searcherCs1AvS6iYDQZt_18build_script_build, symObjAddr: 0x3660, symBinAddr: 0x100007D20, symSize: 0x40 }
  - { offset: 0x9768, size: 0x8, addend: 0x0, symName: __RNvXs9_NtNtCsieiGu2EXtoJ_4core3str6traitsINtNtNtB9_3ops5range9RangeFromjEINtNtNtB9_5slice5index10SliceIndexeE3getCs1AvS6iYDQZt_18build_script_build, symObjAddr: 0x2E80, symBinAddr: 0x100007540, symSize: 0x130 }
  - { offset: 0x9ACC, size: 0x8, addend: 0x0, symName: __RNvNvNtNtCsieiGu2EXtoJ_4core5slice3raw14from_raw_parts18precondition_checkCs1AvS6iYDQZt_18build_script_build, symObjAddr: 0x2060, symBinAddr: 0x100006720, symSize: 0x260 }
  - { offset: 0x9C9A, size: 0x8, addend: 0x0, symName: __RNvNvNtNtCsieiGu2EXtoJ_4core5slice3raw18from_raw_parts_mut18precondition_checkCs1AvS6iYDQZt_18build_script_build, symObjAddr: 0x22C0, symBinAddr: 0x100006980, symSize: 0x260 }
  - { offset: 0x9ED3, size: 0x8, addend: 0x0, symName: __RNvNvXs0_NtNtCsieiGu2EXtoJ_4core5slice5indexjINtB7_10SliceIndexSpE13get_unchecked18precondition_checkCs1AvS6iYDQZt_18build_script_build, symObjAddr: 0x2520, symBinAddr: 0x100006BE0, symSize: 0xA0 }
  - { offset: 0x9F41, size: 0x8, addend: 0x0, symName: __RNvNvXs0_NtNtCsieiGu2EXtoJ_4core5slice5indexjINtB7_10SliceIndexSpE17get_unchecked_mut18precondition_checkCs1AvS6iYDQZt_18build_script_build, symObjAddr: 0x25C0, symBinAddr: 0x100006C80, symSize: 0xA0 }
  - { offset: 0x9FE6, size: 0x8, addend: 0x0, symName: __RNvNvXs2_NtNtCsieiGu2EXtoJ_4core5slice5indexINtNtNtBb_3ops5range5RangejEINtB7_10SliceIndexSpE13get_unchecked18precondition_checkCs1AvS6iYDQZt_18build_script_build, symObjAddr: 0x2660, symBinAddr: 0x100006D20, symSize: 0xC0 }
  - { offset: 0xA0DA, size: 0x8, addend: 0x0, symName: __RNvXs5_NtNtCsieiGu2EXtoJ_4core5slice5indexINtNtNtB9_3ops5range9RangeFromjEINtB5_10SliceIndexShE5indexCs1AvS6iYDQZt_18build_script_build, symObjAddr: 0x2E00, symBinAddr: 0x1000074C0, symSize: 0x80 }
  - { offset: 0xA2C7, size: 0x8, addend: 0x0, symName: __RNvXs0_NtNtNtCsieiGu2EXtoJ_4core4iter8adapters10filter_mapINtB5_9FilterMapNtNtNtBb_3str4iter5LinesNCNvCs1AvS6iYDQZt_18build_script_build34parse_version_cfgs_from_cargo_toml0ENtNtNtB9_6traits8iterator8Iterator4nextB1C_, symObjAddr: 0x2BD0, symBinAddr: 0x100007290, symSize: 0x30 }
  - { offset: 0xA30E, size: 0x8, addend: 0x0, symName: __RNvXs0_NtNtNtCsieiGu2EXtoJ_4core4iter8adapters10filter_mapINtB5_9FilterMapNtNtNtBb_3str4iter5LinesNCNvCs1AvS6iYDQZt_18build_script_build34parse_version_cfgs_from_cargo_toml0ENtNtNtB9_6traits8iterator8Iterator9size_hintB1C_, symObjAddr: 0x2C00, symBinAddr: 0x1000072C0, symSize: 0x50 }
  - { offset: 0xA3C9, size: 0x8, addend: 0x0, symName: __RINvYINtNtNtNtCsieiGu2EXtoJ_4core4iter8adapters10filter_map9FilterMapNtNtNtBc_3str4iter5LinesNCNvCs1AvS6iYDQZt_18build_script_build34parse_version_cfgs_from_cargo_toml0ENtNtNtBa_6traits8iterator8Iterator7collectINtNtCslJiobkLta79_5alloc3vec3VecNtB1x_10VersionCfgEEB1x_, symObjAddr: 0x1170, symBinAddr: 0x100005830, symSize: 0x70 }
  - { offset: 0xA469, size: 0x8, addend: 0x0, symName: __RNCINvNvNtNtNtNtCsieiGu2EXtoJ_4core4iter6traits8iterator8Iterator3any5checkRShNCNvNtNtBe_3str7pattern13simd_containss_0E0Cs1AvS6iYDQZt_18build_script_build, symObjAddr: 0x1210, symBinAddr: 0x1000058D0, symSize: 0x40 }
  - { offset: 0xA4D1, size: 0x8, addend: 0x0, symName: __RNCINvNvNtNtNtNtCsieiGu2EXtoJ_4core4iter6traits8iterator8Iterator4find5checkReQNtNtBe_3str10IsNotEmptyE0Cs1AvS6iYDQZt_18build_script_build, symObjAddr: 0x1250, symBinAddr: 0x100005910, symSize: 0x70 }
  - { offset: 0xA539, size: 0x8, addend: 0x0, symName: __RNCINvNvNtNtNtNtCsieiGu2EXtoJ_4core4iter6traits8iterator8Iterator8find_map5checkReNtCs1AvS6iYDQZt_18build_script_build10VersionCfgQNCNvB1k_34parse_version_cfgs_from_cargo_toml0E0B1k_, symObjAddr: 0x12C0, symBinAddr: 0x100005980, symSize: 0xA0 }
  - { offset: 0xA5C9, size: 0x8, addend: 0x0, symName: __RNCINvNvNtNtNtNtCsieiGu2EXtoJ_4core4iter6traits8iterator8Iterator8for_each4callhNCINvMsi_NtCslJiobkLta79_5alloc3vecINtB1p_3VechE14extend_trustedINtNtNtBc_8adapters3map3MapINtNtNtBe_5slice4iter4IterhENCNvNtB1r_3str13replace_ascii0EE0E0Cs1AvS6iYDQZt_18build_script_build, symObjAddr: 0x1360, symBinAddr: 0x100005A20, symSize: 0x20 }
  - { offset: 0xA62F, size: 0x8, addend: 0x0, symName: __RINvYINtNtNtCsieiGu2EXtoJ_4core3ops5range5RangejENtNtNtNtBa_4iter6traits12double_ended19DoubleEndedIterator9try_rfolduNCINvNvBL_5rfind5checkjNCNvNtNtBa_3str7pattern13simd_contains0E0INtNtB8_12control_flow11ControlFlowjEECs1AvS6iYDQZt_18build_script_build, symObjAddr: 0x1010, symBinAddr: 0x1000056D0, symSize: 0x160 }
  - { offset: 0xA706, size: 0x8, addend: 0x0, symName: __RNvXNtNtNtCsieiGu2EXtoJ_4core4iter6traits7collectINtNtNtB6_8adapters10filter_map9FilterMapNtNtNtB8_3str4iter5LinesNCNvCs1AvS6iYDQZt_18build_script_build34parse_version_cfgs_from_cargo_toml0ENtB2_12IntoIterator9into_iterB1S_, symObjAddr: 0x2B40, symBinAddr: 0x100007200, symSize: 0x30 }
  - { offset: 0xA74B, size: 0x8, addend: 0x0, symName: __RNvXs3_NtNtCsieiGu2EXtoJ_4core4iter5rangeINtNtNtB9_3ops5range5RangejENtB5_17RangeIteratorImpl14spec_next_backCs1AvS6iYDQZt_18build_script_build, symObjAddr: 0x2D70, symBinAddr: 0x100007430, symSize: 0x70 }
  - { offset: 0xA7AE, size: 0x8, addend: 0x0, symName: __RNvXs5_NtNtCsieiGu2EXtoJ_4core4iter5rangeINtNtNtB9_3ops5range5RangejENtNtNtB7_6traits12double_ended19DoubleEndedIterator9next_backCs1AvS6iYDQZt_18build_script_build, symObjAddr: 0x2DE0, symBinAddr: 0x1000074A0, symSize: 0x20 }
  - { offset: 0xAFC2, size: 0x8, addend: 0x0, symName: __RNvXNtCsieiGu2EXtoJ_4core7convertReINtB2_5AsRefNtNtCsHUR1vrdMJt_3std4path4PathE6as_refCs1AvS6iYDQZt_18build_script_build, symObjAddr: 0x2720, symBinAddr: 0x100006DE0, symSize: 0x30 }
  - { offset: 0xB002, size: 0x8, addend: 0x0, symName: __RNvXNtCsieiGu2EXtoJ_4core7convertReINtB2_5AsRefNtNtNtCsHUR1vrdMJt_3std3ffi6os_str5OsStrE6as_refCs1AvS6iYDQZt_18build_script_build, symObjAddr: 0x2750, symBinAddr: 0x100006E10, symSize: 0x30 }
  - { offset: 0xB0C2, size: 0x8, addend: 0x0, symName: __RNvYjNtNtCsieiGu2EXtoJ_4core3cmp3Ord3maxCs1AvS6iYDQZt_18build_script_build, symObjAddr: 0x36A0, symBinAddr: 0x100007D60, symSize: 0x60 }
  - { offset: 0xB12E, size: 0x8, addend: 0x0, symName: __RNvYjNtNtCsieiGu2EXtoJ_4core3cmp3Ord3minCs1AvS6iYDQZt_18build_script_build, symObjAddr: 0x3700, symBinAddr: 0x100007DC0, symSize: 0x60 }
  - { offset: 0xB3FF, size: 0x8, addend: 0x0, symName: __RINvNtCsHUR1vrdMJt_3std2fs14read_to_stringReECs1AvS6iYDQZt_18build_script_build, symObjAddr: 0xDB0, symBinAddr: 0x100005470, symSize: 0x60 }
  - { offset: 0xB43C, size: 0x8, addend: 0x0, symName: __RINvNtCsHUR1vrdMJt_3std3env6var_osReECs1AvS6iYDQZt_18build_script_build, symObjAddr: 0xE10, symBinAddr: 0x1000054D0, symSize: 0x60 }
  - { offset: 0xB498, size: 0x8, addend: 0x0, symName: __RNvXs3_NtNtCsHUR1vrdMJt_3std3ffi6os_strNtB5_8OsStringINtNtNtCsieiGu2EXtoJ_4core3ops5index5IndexNtNtBU_5range9RangeFullE5indexCs1AvS6iYDQZt_18build_script_build, symObjAddr: 0x2CF0, symBinAddr: 0x1000073B0, symSize: 0x60 }
  - { offset: 0xB5E0, size: 0x8, addend: 0x0, symName: __RNvXsV_NtNtCsHUR1vrdMJt_3std3ffi6os_strNtB5_8OsStringINtNtCsieiGu2EXtoJ_4core7convert5AsRefNtB5_5OsStrE6as_refCs1AvS6iYDQZt_18build_script_build, symObjAddr: 0x30C0, symBinAddr: 0x100007780, symSize: 0x20 }
  - { offset: 0xB632, size: 0x8, addend: 0x0, symName: __RNvXsW_NtNtCsHUR1vrdMJt_3std3ffi6os_streINtNtCsieiGu2EXtoJ_4core7convert5AsRefNtB5_5OsStrE6as_refCs1AvS6iYDQZt_18build_script_build, symObjAddr: 0x30E0, symBinAddr: 0x1000077A0, symSize: 0x20 }
  - { offset: 0xBB0E, size: 0x8, addend: 0x0, symName: __RNvXs_NtNtCslJiobkLta79_5alloc3vec15set_len_on_dropNtB4_12SetLenOnDropNtNtNtCsieiGu2EXtoJ_4core3ops4drop4Drop4dropCs1AvS6iYDQZt_18build_script_build, symObjAddr: 0x3190, symBinAddr: 0x100007850, symSize: 0x20 }
  - { offset: 0xBB3D, size: 0x8, addend: 0x0, symName: __RINvXsd_NtCslJiobkLta79_5alloc3vecINtB6_3VecNtCs1AvS6iYDQZt_18build_script_build10VersionCfgEINtNtNtNtCsieiGu2EXtoJ_4core4iter6traits7collect12FromIteratorBG_E9from_iterINtNtNtB1A_8adapters10filter_map9FilterMapNtNtNtB1C_3str4iter5LinesNCNvBI_34parse_version_cfgs_from_cargo_toml0EEBI_, symObjAddr: 0xF90, symBinAddr: 0x100005650, symSize: 0x40 }
  - { offset: 0xBB7E, size: 0x8, addend: 0x0, symName: __RINvXsd_NtCslJiobkLta79_5alloc3vecINtB6_3VechEINtNtNtNtCsieiGu2EXtoJ_4core4iter6traits7collect12FromIteratorhE9from_iterINtNtNtBP_8adapters3map3MapINtNtNtBR_5slice4iter4IterhENCNvNtB8_3str13replace_ascii0EECs1AvS6iYDQZt_18build_script_build, symObjAddr: 0xFD0, symBinAddr: 0x100005690, symSize: 0x40 }
  - { offset: 0xBBCA, size: 0x8, addend: 0x0, symName: __RNCINvMsi_NtCslJiobkLta79_5alloc3vecINtB8_3VechE14extend_trustedINtNtNtNtCsieiGu2EXtoJ_4core4iter8adapters3map3MapINtNtNtB19_5slice4iter4IterhENCNvNtBa_3str13replace_ascii0EE0Cs1AvS6iYDQZt_18build_script_build, symObjAddr: 0x11E0, symBinAddr: 0x1000058A0, symSize: 0x30 }
  - { offset: 0xBC9C, size: 0x8, addend: 0x0, symName: __RNvNvMs_NtCslJiobkLta79_5alloc3vecINtB6_3VecppE7set_len18precondition_checkCs1AvS6iYDQZt_18build_script_build, symObjAddr: 0x1B10, symBinAddr: 0x1000061D0, symSize: 0xA0 }
  - { offset: 0xBD10, size: 0x8, addend: 0x0, symName: __RNvXNtNtCslJiobkLta79_5alloc3vec11spec_extendINtB4_3VecNtCs1AvS6iYDQZt_18build_script_build10VersionCfgEINtB2_10SpecExtendBR_INtNtNtNtCsieiGu2EXtoJ_4core4iter8adapters10filter_map9FilterMapNtNtNtB28_3str4iter5LinesNCNvBT_34parse_version_cfgs_from_cargo_toml0EE11spec_extendBT_, symObjAddr: 0x2780, symBinAddr: 0x100006E40, symSize: 0x20 }
  - { offset: 0xBD68, size: 0x8, addend: 0x0, symName: __RNvXs_NtNtCslJiobkLta79_5alloc3vec11spec_extendINtB6_3VechEINtB4_10SpecExtendhINtNtNtNtCsieiGu2EXtoJ_4core4iter8adapters3map3MapINtNtNtB1n_5slice4iter4IterhENCNvNtB8_3str13replace_ascii0EE11spec_extendCs1AvS6iYDQZt_18build_script_build, symObjAddr: 0x3170, symBinAddr: 0x100007830, symSize: 0x20 }
  - { offset: 0xBDC6, size: 0x8, addend: 0x0, symName: __RNvXNtNtCslJiobkLta79_5alloc3vec14spec_from_iterINtB4_3VecNtCs1AvS6iYDQZt_18build_script_build10VersionCfgEINtB2_12SpecFromIterBU_INtNtNtNtCsieiGu2EXtoJ_4core4iter8adapters10filter_map9FilterMapNtNtNtB2d_3str4iter5LinesNCNvBW_34parse_version_cfgs_from_cargo_toml0EE9from_iterBW_, symObjAddr: 0x27A0, symBinAddr: 0x100006E60, symSize: 0x20 }
  - { offset: 0xBE05, size: 0x8, addend: 0x0, symName: __RNvXNtNtCslJiobkLta79_5alloc3vec14spec_from_iterINtB4_3VechEINtB2_12SpecFromIterhINtNtNtNtCsieiGu2EXtoJ_4core4iter8adapters3map3MapINtNtNtB1q_5slice4iter4IterhENCNvNtB6_3str13replace_ascii0EE9from_iterCs1AvS6iYDQZt_18build_script_build, symObjAddr: 0x27C0, symBinAddr: 0x100006E80, symSize: 0x20 }
  - { offset: 0xBE50, size: 0x8, addend: 0x0, symName: __RNvXNtNtCslJiobkLta79_5alloc3vec21spec_from_iter_nestedINtB4_3VecNtCs1AvS6iYDQZt_18build_script_build10VersionCfgEINtB2_18SpecFromIterNestedB11_INtNtNtNtCsieiGu2EXtoJ_4core4iter8adapters10filter_map9FilterMapNtNtNtB2r_3str4iter5LinesNCNvB13_34parse_version_cfgs_from_cargo_toml0EE9from_iterB13_, symObjAddr: 0x27E0, symBinAddr: 0x100006EA0, symSize: 0x360 }
  - { offset: 0xC10B, size: 0x8, addend: 0x0, symName: __RNvXs_NtNtCslJiobkLta79_5alloc3vec21spec_from_iter_nestedINtB6_3VechEINtB4_18SpecFromIterNestedhINtNtNtNtCsieiGu2EXtoJ_4core4iter8adapters3map3MapINtNtNtB1F_5slice4iter4IterhENCNvNtB8_3str13replace_ascii0EE9from_iterCs1AvS6iYDQZt_18build_script_build, symObjAddr: 0x31B0, symBinAddr: 0x100007870, symSize: 0x1C0 }
  - { offset: 0xC1EA, size: 0x8, addend: 0x0, symName: __RNvXse_NtCslJiobkLta79_5alloc3vecINtB5_3VecNtCs1AvS6iYDQZt_18build_script_build10VersionCfgENtNtNtNtCsieiGu2EXtoJ_4core4iter6traits7collect12IntoIterator9into_iterBH_, symObjAddr: 0x3420, symBinAddr: 0x100007AE0, symSize: 0x140 }
  - { offset: 0xC4B6, size: 0x8, addend: 0x0, symName: __RNvXsf_NtCslJiobkLta79_5alloc3vecRINtB5_3VecNtCs1AvS6iYDQZt_18build_script_build10VersionCfgENtNtNtNtCsieiGu2EXtoJ_4core4iter6traits7collect12IntoIterator9into_iterBI_, symObjAddr: 0x3560, symBinAddr: 0x100007C20, symSize: 0x80 }
  - { offset: 0xC744, size: 0x8, addend: 0x0, symName: __RNvXsn_NtCslJiobkLta79_5alloc3vecINtB5_3VecINtNtB7_5boxed3BoxDINtNtNtCsieiGu2EXtoJ_4core3ops8function5FnMutuEp6OutputINtNtB15_6result6ResultuNtNtNtCsHUR1vrdMJt_3std2io5error5ErrorENtNtB15_6marker4SyncNtB2U_4SendEL_EENtNtB13_4drop4Drop4dropCs1AvS6iYDQZt_18build_script_build, symObjAddr: 0x35E0, symBinAddr: 0x100007CA0, symSize: 0x30 }
  - { offset: 0xC7F4, size: 0x8, addend: 0x0, symName: __RNvXsn_NtCslJiobkLta79_5alloc3vecINtB5_3VecNtCs1AvS6iYDQZt_18build_script_build10VersionCfgENtNtNtCsieiGu2EXtoJ_4core3ops4drop4Drop4dropBH_, symObjAddr: 0x3610, symBinAddr: 0x100007CD0, symSize: 0x30 }
  - { offset: 0xC8A4, size: 0x8, addend: 0x0, symName: __RNvXsn_NtCslJiobkLta79_5alloc3vecINtB5_3VecPaENtNtNtCsieiGu2EXtoJ_4core3ops4drop4Drop4dropCs1AvS6iYDQZt_18build_script_build, symObjAddr: 0x3640, symBinAddr: 0x100007D00, symSize: 0x20 }
  - { offset: 0xCA2C, size: 0x8, addend: 0x0, symName: __RNvXs1_NtCslJiobkLta79_5alloc5allocNtB5_6GlobalNtNtCsieiGu2EXtoJ_4core5clone5Clone5cloneCs1AvS6iYDQZt_18build_script_build, symObjAddr: 0x2C90, symBinAddr: 0x100007350, symSize: 0x10 }
  - { offset: 0xCA7D, size: 0x8, addend: 0x0, symName: __RNvXs_NtCslJiobkLta79_5alloc5allocNtB4_6GlobalNtNtCsieiGu2EXtoJ_4core5alloc9Allocator10deallocateCs1AvS6iYDQZt_18build_script_build, symObjAddr: 0x3100, symBinAddr: 0x1000077C0, symSize: 0x70 }
  - { offset: 0xCFB2, size: 0x8, addend: 0x0, symName: __RNCNvNtCslJiobkLta79_5alloc3fmt6format0Cs1AvS6iYDQZt_18build_script_build, symObjAddr: 0x1380, symBinAddr: 0x100005A40, symSize: 0x40 }
  - { offset: 0xCFE3, size: 0x8, addend: 0x0, symName: __RNvNtCslJiobkLta79_5alloc3fmt6formatCs1AvS6iYDQZt_18build_script_build, symObjAddr: 0x1790, symBinAddr: 0x100005E50, symSize: 0xC0 }
  - { offset: 0xD05A, size: 0x8, addend: 0x0, symName: __RINvMs3_NtCslJiobkLta79_5alloc3stre7replacecECs1AvS6iYDQZt_18build_script_build, symObjAddr: 0xC0, symBinAddr: 0x100004780, symSize: 0x900 }
  - { offset: 0xDB86, size: 0x8, addend: 0x0, symName: __RNCNvNtCslJiobkLta79_5alloc3str13replace_ascii0Cs1AvS6iYDQZt_18build_script_build, symObjAddr: 0x13C0, symBinAddr: 0x100005A80, symSize: 0x40 }
  - { offset: 0xDBE0, size: 0x8, addend: 0x0, symName: __RNvXs2_NtCslJiobkLta79_5alloc3streNtNtB7_6borrow7ToOwned8to_ownedCs1AvS6iYDQZt_18build_script_build, symObjAddr: 0x2CA0, symBinAddr: 0x100007360, symSize: 0x50 }
  - { offset: 0xDCB8, size: 0x8, addend: 0x0, symName: __RNvXs0_NtNtCslJiobkLta79_5alloc3ffi5c_strNtB5_7CStringNtNtNtCsieiGu2EXtoJ_4core3ops4drop4Drop4dropCs1AvS6iYDQZt_18build_script_build, symObjAddr: 0x2B70, symBinAddr: 0x100007230, symSize: 0x60 }
  - { offset: 0xDF0F, size: 0x8, addend: 0x0, symName: __RINvMNtCsieiGu2EXtoJ_4core6optionINtB3_6OptionReE11map_or_elseNtNtCslJiobkLta79_5alloc6string6StringNCNvNtB12_3fmt6format0NvYeNtNtB12_6borrow7ToOwned8to_ownedECs1AvS6iYDQZt_18build_script_build, symObjAddr: 0x0, symBinAddr: 0x1000046C0, symSize: 0xC0 }
  - { offset: 0xE576, size: 0x8, addend: 0x0, symName: __RINvMsi_NtCslJiobkLta79_5alloc3vecINtB6_3VecNtCs1AvS6iYDQZt_18build_script_build10VersionCfgE16extend_desugaredINtNtNtNtCsieiGu2EXtoJ_4core4iter8adapters10filter_map9FilterMapNtNtNtB1U_3str4iter5LinesNCNvBI_34parse_version_cfgs_from_cargo_toml0EEBI_, symObjAddr: 0x9C0, symBinAddr: 0x100005080, symSize: 0x230 }
  - { offset: 0xE941, size: 0x8, addend: 0x0, symName: __RINvMsi_NtCslJiobkLta79_5alloc3vecINtB6_3VechE14extend_trustedINtNtNtNtCsieiGu2EXtoJ_4core4iter8adapters3map3MapINtNtNtB17_5slice4iter4IterhENCNvNtB8_3str13replace_ascii0EECs1AvS6iYDQZt_18build_script_build, symObjAddr: 0xBF0, symBinAddr: 0x1000052B0, symSize: 0x1C0 }
  - { offset: 0xEBF2, size: 0x8, addend: 0x0, symName: __RNvMNtCsieiGu2EXtoJ_4core6optionINtB2_6OptionNtNtNtCsHUR1vrdMJt_3std3ffi6os_str8OsStringE6expectCs1AvS6iYDQZt_18build_script_build, symObjAddr: 0x1400, symBinAddr: 0x100005AC0, symSize: 0x90 }
  - { offset: 0xEC2E, size: 0x8, addend: 0x0, symName: __RNvMNtCsieiGu2EXtoJ_4core6optionINtB2_6OptionReE6expectCs1AvS6iYDQZt_18build_script_build, symObjAddr: 0x1490, symBinAddr: 0x100005B50, symSize: 0x70 }
  - { offset: 0xEDAC, size: 0x8, addend: 0x0, symName: __RNvMs_NtCslJiobkLta79_5alloc3vecINtB4_3VecNtCs1AvS6iYDQZt_18build_script_build10VersionCfgE7reserveBG_, symObjAddr: 0x1690, symBinAddr: 0x100005D50, symSize: 0xB0 }
  - { offset: 0xEF96, size: 0x8, addend: 0x0, symName: __RNvMs_NtCslJiobkLta79_5alloc3vecINtB4_3VechE8as_sliceCs1AvS6iYDQZt_18build_script_build, symObjAddr: 0x1740, symBinAddr: 0x100005E00, symSize: 0x50 }
  - { offset: 0xFBD5, size: 0x8, addend: 0x0, symName: __RINvMsb_NtNtNtCslJiobkLta79_5alloc11collections5btree8navigateINtB6_13LazyLeafRangeNtNtNtB8_4node6marker5DyingNtNtNtCsHUR1vrdMJt_3std3ffi6os_str8OsStringINtNtCsieiGu2EXtoJ_4core6option6OptionB1K_EE16deallocating_endNtNtBc_5alloc6GlobalECs1AvS6iYDQZt_18build_script_build, symObjAddr: 0x0, symBinAddr: 0x100007E20, symSize: 0x90 }
  - { offset: 0x10549, size: 0x8, addend: 0x0, symName: __RNvXs5_NtNtCsieiGu2EXtoJ_4core3num5errorNtB5_15TryFromIntErrorNtNtB9_3fmt5Debug3fmtCs1AvS6iYDQZt_18build_script_build, symObjAddr: 0x2E40, symBinAddr: 0x10000ABF0, symSize: 0x50 }
  - { offset: 0x10589, size: 0x8, addend: 0x0, symName: __RNvXsb_NtNtCsieiGu2EXtoJ_4core3num5errorNtB5_13ParseIntErrorNtNtB9_3fmt5Debug3fmtCs1AvS6iYDQZt_18build_script_build, symObjAddr: 0x31E0, symBinAddr: 0x10000AF90, symSize: 0x60 }
  - { offset: 0x10749, size: 0x8, addend: 0x0, symName: __RNvNvMs9_NtCsieiGu2EXtoJ_4core3numj13unchecked_add18precondition_checkCs1AvS6iYDQZt_18build_script_build, symObjAddr: 0x2920, symBinAddr: 0x10000A6D0, symSize: 0xA0 }
  - { offset: 0x10807, size: 0x8, addend: 0x0, symName: __RNvNvMs9_NtCsieiGu2EXtoJ_4core3numj13unchecked_sub18precondition_checkCs1AvS6iYDQZt_18build_script_build, symObjAddr: 0x29C0, symBinAddr: 0x10000A770, symSize: 0xA0 }
  - { offset: 0x10906, size: 0x8, addend: 0x0, symName: __RNvMsu_NtCsieiGu2EXtoJ_4core3numj16from_ascii_radixCs1AvS6iYDQZt_18build_script_build, symObjAddr: 0x1F30, symBinAddr: 0x100009CE0, symSize: 0x610 }
  - { offset: 0x10BA1, size: 0x8, addend: 0x0, symName: __RNvNvMs3_NtCsieiGu2EXtoJ_4core3numi13unchecked_neg18precondition_checkCs1AvS6iYDQZt_18build_script_build, symObjAddr: 0x2870, symBinAddr: 0x10000A620, symSize: 0xB0 }
  - { offset: 0x10C3E, size: 0x8, addend: 0x0, symName: __RNvXst_NtCsieiGu2EXtoJ_4core3numjNtNtNtB7_3str6traits7FromStr8from_strCs1AvS6iYDQZt_18build_script_build, symObjAddr: 0x3240, symBinAddr: 0x10000AFF0, symSize: 0x40 }
  - { offset: 0x11390, size: 0x8, addend: 0x0, symName: __RINvNtCsieiGu2EXtoJ_4core9panicking13assert_failedINtNtB4_6option6OptionReEBM_ECs1AvS6iYDQZt_18build_script_build, symObjAddr: 0x731, symBinAddr: 0x10005A311, symSize: 0x3D }
  - { offset: 0x113F9, size: 0x8, addend: 0x0, symName: __RINvNtCsieiGu2EXtoJ_4core9panicking13assert_failedReBM_ECs1AvS6iYDQZt_18build_script_build, symObjAddr: 0x76E, symBinAddr: 0x10005A34E, symSize: 0x42 }
  - { offset: 0x11462, size: 0x8, addend: 0x0, symName: __RINvNtCsieiGu2EXtoJ_4core9panicking13panic_displayNtNtCslJiobkLta79_5alloc6string6StringECs1AvS6iYDQZt_18build_script_build, symObjAddr: 0x7B0, symBinAddr: 0x100008560, symSize: 0xA0 }
  - { offset: 0x11517, size: 0x8, addend: 0x0, symName: __RNvXNtNtCsieiGu2EXtoJ_4core3cmp5implsuNtB4_9PartialEq2eqCs1AvS6iYDQZt_18build_script_build, symObjAddr: 0x2B20, symBinAddr: 0x10000A8D0, symSize: 0x20 }
  - { offset: 0x1155A, size: 0x8, addend: 0x0, symName: __RNvXs7_NtNtCsieiGu2EXtoJ_4core3cmp5implsReNtB7_9PartialEq2eqCs1AvS6iYDQZt_18build_script_build, symObjAddr: 0x2EC0, symBinAddr: 0x10000AC70, symSize: 0x40 }
  - { offset: 0x11627, size: 0x8, addend: 0x0, symName: __RNvXsU_NtNtCsieiGu2EXtoJ_4core3cmp5implsjNtB7_10PartialOrd11partial_cmpCs1AvS6iYDQZt_18build_script_build, symObjAddr: 0x3020, symBinAddr: 0x10000ADD0, symSize: 0x20 }
  - { offset: 0x11F82, size: 0x8, addend: 0x0, symName: __RNvNvMNtNtCsieiGu2EXtoJ_4core5alloc6layoutNtB4_6Layout25from_size_align_unchecked18precondition_checkCs1AvS6iYDQZt_18build_script_build, symObjAddr: 0x27C0, symBinAddr: 0x10000A570, symSize: 0xB0 }
  - { offset: 0x1229A, size: 0x8, addend: 0x0, symName: __RNvXsZ_NtNtCsieiGu2EXtoJ_4core3fmt3numjNtB7_5Debug3fmtCs1AvS6iYDQZt_18build_script_build, symObjAddr: 0x3040, symBinAddr: 0x10000ADF0, symSize: 0x80 }
  - { offset: 0x1236A, size: 0x8, addend: 0x0, symName: __RINvNtNtCsieiGu2EXtoJ_4core3str11validations15next_code_pointINtNtNtB6_5slice4iter4IterhEECs1AvS6iYDQZt_18build_script_build, symObjAddr: 0x850, symBinAddr: 0x100008600, symSize: 0x260 }
  - { offset: 0x12623, size: 0x8, addend: 0x0, symName: __RINvNtNtCsieiGu2EXtoJ_4core3str11validations23next_code_point_reverseINtNtNtB6_5slice4iter4IterhEECs1AvS6iYDQZt_18build_script_build, symObjAddr: 0xAB0, symBinAddr: 0x100008860, symSize: 0x290 }
  - { offset: 0x128F4, size: 0x8, addend: 0x0, symName: __RNvNvXs5_NtNtCsieiGu2EXtoJ_4core3str6traitsINtNtNtBb_3ops5range5RangejEINtNtNtBb_5slice5index10SliceIndexeE13get_unchecked18precondition_checkCs1AvS6iYDQZt_18build_script_build, symObjAddr: 0x2A60, symBinAddr: 0x10000A810, symSize: 0xC0 }
  - { offset: 0x12971, size: 0x8, addend: 0x0, symName: __RNvXs_NtNtCsieiGu2EXtoJ_4core3str6traitseNtNtB8_3cmp9PartialEq2eqCs1AvS6iYDQZt_18build_script_build, symObjAddr: 0x3150, symBinAddr: 0x10000AF00, symSize: 0x90 }
  - { offset: 0x12C04, size: 0x8, addend: 0x0, symName: __RNvXNtNtCsieiGu2EXtoJ_4core3ops12control_flowINtB2_11ControlFlowNtCs1AvS6iYDQZt_18build_script_build10VersionCfgENtNtB4_9try_trait3Try11from_outputB12_, symObjAddr: 0x2B40, symBinAddr: 0x10000A8F0, symSize: 0x20 }
  - { offset: 0x12C42, size: 0x8, addend: 0x0, symName: __RNvXNtNtCsieiGu2EXtoJ_4core3ops12control_flowINtB2_11ControlFlowNtCs1AvS6iYDQZt_18build_script_build10VersionCfgENtNtB4_9try_trait3Try6branchB12_, symObjAddr: 0x2B60, symBinAddr: 0x10000A910, symSize: 0x90 }
  - { offset: 0x12CBC, size: 0x8, addend: 0x0, symName: __RNvXNtNtCsieiGu2EXtoJ_4core3ops12control_flowINtB2_11ControlFlowReENtNtB4_9try_trait3Try11from_outputCs1AvS6iYDQZt_18build_script_build, symObjAddr: 0x2BF0, symBinAddr: 0x10000A9A0, symSize: 0x10 }
  - { offset: 0x12CFA, size: 0x8, addend: 0x0, symName: __RNvXNtNtCsieiGu2EXtoJ_4core3ops12control_flowINtB2_11ControlFlowReENtNtB4_9try_trait3Try6branchCs1AvS6iYDQZt_18build_script_build, symObjAddr: 0x2C00, symBinAddr: 0x10000A9B0, symSize: 0x60 }
  - { offset: 0x12D72, size: 0x8, addend: 0x0, symName: __RNvXNtNtCsieiGu2EXtoJ_4core3ops12control_flowINtB2_11ControlFlowjENtNtB4_9try_trait3Try11from_outputCs1AvS6iYDQZt_18build_script_build, symObjAddr: 0x2C60, symBinAddr: 0x10000AA10, symSize: 0x10 }
  - { offset: 0x12DB0, size: 0x8, addend: 0x0, symName: __RNvXNtNtCsieiGu2EXtoJ_4core3ops12control_flowINtB2_11ControlFlowjENtNtB4_9try_trait3Try6branchCs1AvS6iYDQZt_18build_script_build, symObjAddr: 0x2C70, symBinAddr: 0x10000AA20, symSize: 0x40 }
  - { offset: 0x12E28, size: 0x8, addend: 0x0, symName: __RNvXNtNtCsieiGu2EXtoJ_4core3ops12control_flowINtB2_11ControlFlowuENtNtB4_9try_trait3Try11from_outputCs1AvS6iYDQZt_18build_script_build, symObjAddr: 0x2CB0, symBinAddr: 0x10000AA60, symSize: 0x10 }
  - { offset: 0x12E66, size: 0x8, addend: 0x0, symName: __RNvXNtNtCsieiGu2EXtoJ_4core3ops12control_flowINtB2_11ControlFlowuENtNtB4_9try_trait3Try6branchCs1AvS6iYDQZt_18build_script_build, symObjAddr: 0x2CC0, symBinAddr: 0x10000AA70, symSize: 0x30 }
  - { offset: 0x12EE4, size: 0x8, addend: 0x0, symName: __RNvXs9_NtNtCsieiGu2EXtoJ_4core3ops12control_flowINtB5_11ControlFlowuENtNtB9_3cmp9PartialEq2eqCs1AvS6iYDQZt_18build_script_build, symObjAddr: 0x2F00, symBinAddr: 0x10000ACB0, symSize: 0xE0 }
  - { offset: 0x13006, size: 0x8, addend: 0x0, symName: __RNvXs_NtNtCsieiGu2EXtoJ_4core3ops12control_flowINtB4_11ControlFlowNtCs1AvS6iYDQZt_18build_script_build10VersionCfgEINtNtB6_9try_trait12FromResidualIBK_B12_NtNtB8_7convert10InfallibleEE13from_residualB14_, symObjAddr: 0x30C0, symBinAddr: 0x10000AE70, symSize: 0x40 }
  - { offset: 0x13045, size: 0x8, addend: 0x0, symName: __RNvXs_NtNtCsieiGu2EXtoJ_4core3ops12control_flowINtB4_11ControlFlowReEINtNtB6_9try_trait12FromResidualIBK_B12_NtNtB8_7convert10InfallibleEE13from_residualCs1AvS6iYDQZt_18build_script_build, symObjAddr: 0x3100, symBinAddr: 0x10000AEB0, symSize: 0x20 }
  - { offset: 0x13083, size: 0x8, addend: 0x0, symName: __RNvXs_NtNtCsieiGu2EXtoJ_4core3ops12control_flowINtB4_11ControlFlowjEINtNtB6_9try_trait12FromResidualIBK_jNtNtB8_7convert10InfallibleEE13from_residualCs1AvS6iYDQZt_18build_script_build, symObjAddr: 0x3120, symBinAddr: 0x10000AED0, symSize: 0x20 }
  - { offset: 0x130C1, size: 0x8, addend: 0x0, symName: __RNvXs_NtNtCsieiGu2EXtoJ_4core3ops12control_flowINtB4_11ControlFlowuEINtNtB6_9try_trait12FromResidualIBK_uNtNtB8_7convert10InfallibleEE13from_residualCs1AvS6iYDQZt_18build_script_build, symObjAddr: 0x3140, symBinAddr: 0x10000AEF0, symSize: 0x10 }
  - { offset: 0x13960, size: 0x8, addend: 0x0, symName: __RNvNtNtCsieiGu2EXtoJ_4core5slice6memchr6memchrCs1AvS6iYDQZt_18build_script_build, symObjAddr: 0x25D0, symBinAddr: 0x10000A380, symSize: 0xE0 }
  - { offset: 0x13C27, size: 0x8, addend: 0x0, symName: __RINvXsn_NtNtCsieiGu2EXtoJ_4core9core_simd5masksaNtNtB6_6sealed6Sealed5validKj10_ECs1AvS6iYDQZt_18build_script_build, symObjAddr: 0xEB0, symBinAddr: 0x100008C60, symSize: 0x140 }
  - { offset: 0x13DDB, size: 0x8, addend: 0x0, symName: __RNvNtNtNtCsieiGu2EXtoJ_4core7unicode12unicode_data11white_space6lookupCs1AvS6iYDQZt_18build_script_build, symObjAddr: 0x26B0, symBinAddr: 0x10000A460, symSize: 0x110 }
  - { offset: 0x13E1B, size: 0x8, addend: 0x0, symName: __RNvXsF_NtNtCsieiGu2EXtoJ_4core4iter5rangejNtB5_4Step18backward_uncheckedCs1AvS6iYDQZt_18build_script_build, symObjAddr: 0x2FE0, symBinAddr: 0x10000AD90, symSize: 0x40 }
  - { offset: 0x14254, size: 0x8, addend: 0x0, symName: __RNvYNtNtNtNtCsHUR1vrdMJt_3std3sys5stdio4unix6StderrNtNtBa_2io5Write9write_allCs1AvS6iYDQZt_18build_script_build, symObjAddr: 0x35C0, symBinAddr: 0x10000B370, symSize: 0x2E0 }
  - { offset: 0x143FA, size: 0x8, addend: 0x0, symName: __RNvYNtNtNtNtCsHUR1vrdMJt_3std3sys5stdio4unix6StderrNtNtBa_2io5Write9write_fmtCs1AvS6iYDQZt_18build_script_build, symObjAddr: 0x38A0, symBinAddr: 0x10000B650, symSize: 0x170 }
  - { offset: 0x1454E, size: 0x8, addend: 0x0, symName: __RNvXs5_NtNtNtCsHUR1vrdMJt_3std2os2fd5ownedNtB5_7OwnedFdNtNtNtCsieiGu2EXtoJ_4core3ops4drop4Drop4dropCs1AvS6iYDQZt_18build_script_build, symObjAddr: 0x2E90, symBinAddr: 0x10000AC40, symSize: 0x30 }
  - { offset: 0x14763, size: 0x8, addend: 0x0, symName: __RNCINvMsm_NtNtNtCslJiobkLta79_5alloc11collections5btree8navigateINtNtBa_4node6HandleINtB13_7NodeRefNtNtB13_6marker5DyingNtNtNtCsHUR1vrdMJt_3std3ffi6os_str8OsStringINtNtCsieiGu2EXtoJ_4core6option6OptionB1U_ENtB1B_4LeafENtB1B_4EdgeE27deallocating_next_uncheckedNtNtBe_5alloc6GlobalE0Cs1AvS6iYDQZt_18build_script_build, symObjAddr: 0xFF0, symBinAddr: 0x100008DA0, symSize: 0x60 }
  - { offset: 0x1531F, size: 0x8, addend: 0x0, symName: __RNvXNvMsT_NtNtNtCslJiobkLta79_5alloc11collections5btree4nodeINtB8_6HandleINtB8_7NodeRefNtNtB8_6marker5DyingpppENtB1p_2KVE12drop_key_valINtB2_7DropperINtNtCsieiGu2EXtoJ_4core6option6OptionNtNtNtCsHUR1vrdMJt_3std3ffi6os_str8OsStringEENtNtNtB2s_3ops4drop4Drop4dropCs1AvS6iYDQZt_18build_script_build, symObjAddr: 0x2D30, symBinAddr: 0x10000AAE0, symSize: 0x20 }
  - { offset: 0x15469, size: 0x8, addend: 0x0, symName: __RNvXNtNtNtCslJiobkLta79_5alloc11collections5btree3mapINtB2_8BTreeMapNtNtNtCsHUR1vrdMJt_3std3ffi6os_str8OsStringINtNtCsieiGu2EXtoJ_4core6option6OptionB14_EENtNtNtB1Q_3ops4drop4Drop4dropCs1AvS6iYDQZt_18build_script_build, symObjAddr: 0x2CF0, symBinAddr: 0x10000AAA0, symSize: 0x40 }
  - { offset: 0x154F7, size: 0x8, addend: 0x0, symName: __RNvXNvXsw_NtNtNtCslJiobkLta79_5alloc11collections5btree3mapINtB8_8IntoIterpppENtNtNtCsieiGu2EXtoJ_4core3ops4drop4Drop4dropINtB2_9DropGuardNtNtNtCsHUR1vrdMJt_3std3ffi6os_str8OsStringINtNtB1k_6option6OptionB2c_ENtNtBe_5alloc6GlobalEB1e_4dropCs1AvS6iYDQZt_18build_script_build, symObjAddr: 0x2D50, symBinAddr: 0x10000AB00, symSize: 0x70 }
  - { offset: 0x1558C, size: 0x8, addend: 0x0, symName: __RNvXsw_NtNtNtCslJiobkLta79_5alloc11collections5btree3mapINtB5_8IntoIterNtNtNtCsHUR1vrdMJt_3std3ffi6os_str8OsStringINtNtCsieiGu2EXtoJ_4core6option6OptionB17_EENtNtNtB1T_3ops4drop4Drop4dropCs1AvS6iYDQZt_18build_script_build, symObjAddr: 0x3520, symBinAddr: 0x10000B2D0, symSize: 0xA0 }
  - { offset: 0x15603, size: 0x8, addend: 0x0, symName: __RNvXsv_NtNtNtCslJiobkLta79_5alloc11collections5btree3mapINtB5_8BTreeMapNtNtNtCsHUR1vrdMJt_3std3ffi6os_str8OsStringINtNtCsieiGu2EXtoJ_4core6option6OptionB17_EENtNtNtNtB1T_4iter6traits7collect12IntoIterator9into_iterCs1AvS6iYDQZt_18build_script_build, symObjAddr: 0x3280, symBinAddr: 0x10000B030, symSize: 0x2A0 }
  - { offset: 0x15AA2, size: 0x8, addend: 0x0, symName: __RNvXs1_NtCslJiobkLta79_5alloc7raw_vecINtB5_6RawVecINtNtB7_5boxed3BoxDINtNtNtCsieiGu2EXtoJ_4core3ops8function5FnMutuEp6OutputINtNtB1c_6result6ResultuNtNtNtCsHUR1vrdMJt_3std2io5error5ErrorENtNtB1c_6marker4SyncNtB31_4SendEL_EENtNtB1a_4drop4Drop4dropCs1AvS6iYDQZt_18build_script_build, symObjAddr: 0x2DC0, symBinAddr: 0x10000AB70, symSize: 0x30 }
  - { offset: 0x15ADE, size: 0x8, addend: 0x0, symName: __RNvXs1_NtCslJiobkLta79_5alloc7raw_vecINtB5_6RawVecNtCs1AvS6iYDQZt_18build_script_build10VersionCfgENtNtNtCsieiGu2EXtoJ_4core3ops4drop4Drop4dropBO_, symObjAddr: 0x2DF0, symBinAddr: 0x10000ABA0, symSize: 0x30 }
  - { offset: 0x15B1A, size: 0x8, addend: 0x0, symName: __RNvXs1_NtCslJiobkLta79_5alloc7raw_vecINtB5_6RawVecPaENtNtNtCsieiGu2EXtoJ_4core3ops4drop4Drop4dropCs1AvS6iYDQZt_18build_script_build, symObjAddr: 0x2E20, symBinAddr: 0x10000ABD0, symSize: 0x20 }
  - { offset: 0x15C20, size: 0x8, addend: 0x0, symName: __RINvXs_NvMNtCslJiobkLta79_5alloc5sliceSp9to_vec_inhNtB5_10ConvertVec6to_vecNtNtBa_5alloc6GlobalECs1AvS6iYDQZt_18build_script_build, symObjAddr: 0xD40, symBinAddr: 0x100008AF0, symSize: 0x170 }
  - { offset: 0x15F38, size: 0x8, addend: 0x0, symName: __RINvMsb_NtNtNtCslJiobkLta79_5alloc11collections5btree8navigateINtB6_13LazyLeafRangeNtNtNtB8_4node6marker5DyingNtNtNtCsHUR1vrdMJt_3std3ffi6os_str8OsStringINtNtCsieiGu2EXtoJ_4core6option6OptionB1K_EE16deallocating_endNtNtBc_5alloc6GlobalECs1AvS6iYDQZt_18build_script_build, symObjAddr: 0x0, symBinAddr: 0x100007E20, symSize: 0x90 }
  - { offset: 0x1603C, size: 0x8, addend: 0x0, symName: __RINvMsb_NtNtNtCslJiobkLta79_5alloc11collections5btree8navigateINtB6_13LazyLeafRangeNtNtNtB8_4node6marker5DyingNtNtNtCsHUR1vrdMJt_3std3ffi6os_str8OsStringINtNtCsieiGu2EXtoJ_4core6option6OptionB1K_EE27deallocating_next_uncheckedNtNtBc_5alloc6GlobalECs1AvS6iYDQZt_18build_script_build, symObjAddr: 0x90, symBinAddr: 0x100007EB0, symSize: 0xB0 }
  - { offset: 0x161BF, size: 0x8, addend: 0x0, symName: __RINvMsh_NtNtNtCslJiobkLta79_5alloc11collections5btree4nodeINtB6_7NodeRefNtNtB6_6marker5DyingNtNtNtCsHUR1vrdMJt_3std3ffi6os_str8OsStringINtNtCsieiGu2EXtoJ_4core6option6OptionB1s_ENtB1a_14LeafOrInternalE21deallocate_and_ascendNtNtBc_5alloc6GlobalECs1AvS6iYDQZt_18build_script_build, symObjAddr: 0x140, symBinAddr: 0x100007F60, symSize: 0x1A0 }
  - { offset: 0x163F5, size: 0x8, addend: 0x0, symName: __RINvMsj_NtNtNtCslJiobkLta79_5alloc11collections5btree8navigateINtNtB8_4node6HandleINtB11_7NodeRefNtNtB11_6marker5DyingNtNtNtCsHUR1vrdMJt_3std3ffi6os_str8OsStringINtNtCsieiGu2EXtoJ_4core6option6OptionB1S_ENtB1z_4LeafENtB1z_4EdgeE16deallocating_endNtNtBc_5alloc6GlobalECs1AvS6iYDQZt_18build_script_build, symObjAddr: 0x2E0, symBinAddr: 0x100008100, symSize: 0xF0 }
  - { offset: 0x16678, size: 0x8, addend: 0x0, symName: __RINvMsj_NtNtNtCslJiobkLta79_5alloc11collections5btree8navigateINtNtB8_4node6HandleINtB11_7NodeRefNtNtB11_6marker5DyingNtNtNtCsHUR1vrdMJt_3std3ffi6os_str8OsStringINtNtCsieiGu2EXtoJ_4core6option6OptionB1S_ENtB1z_4LeafENtB1z_4EdgeE17deallocating_nextNtNtBc_5alloc6GlobalECs1AvS6iYDQZt_18build_script_build, symObjAddr: 0x3D0, symBinAddr: 0x1000081F0, symSize: 0x361 }
  - { offset: 0x16D66, size: 0x8, addend: 0x0, symName: __RNvMNtNtCsieiGu2EXtoJ_4core9core_simd6vectorINtB2_4SimdaKj1_E4loadCs1AvS6iYDQZt_18build_script_build, symObjAddr: 0x1050, symBinAddr: 0x100008E00, symSize: 0x90 }
  - { offset: 0x16F17, size: 0x8, addend: 0x0, symName: __RNvMNtNtCsieiGu2EXtoJ_4core9core_simd6vectorINtB2_4SimdhKj1_E4loadCs1AvS6iYDQZt_18build_script_build, symObjAddr: 0x10E0, symBinAddr: 0x100008E90, symSize: 0x90 }
  - { offset: 0x170CF, size: 0x8, addend: 0x0, symName: __RNvMs2_NtCslJiobkLta79_5alloc7raw_vecNtB5_11RawVecInner16with_capacity_inCs1AvS6iYDQZt_18build_script_build, symObjAddr: 0x1170, symBinAddr: 0x100008F20, symSize: 0x150 }
  - { offset: 0x172EF, size: 0x8, addend: 0x0, symName: __RNvMsO_NtNtNtCslJiobkLta79_5alloc11collections5btree4nodeINtB5_6HandleINtB5_7NodeRefNtNtB5_6marker5DyingNtNtNtCsHUR1vrdMJt_3std3ffi6os_str8OsStringINtNtCsieiGu2EXtoJ_4core6option6OptionB1E_ENtB1m_8InternalENtB1m_4EdgeE7descendCs1AvS6iYDQZt_18build_script_build, symObjAddr: 0x12C0, symBinAddr: 0x100009070, symSize: 0x80 }
  - { offset: 0x175DE, size: 0x8, addend: 0x0, symName: __RNvMsT_NtNtNtCslJiobkLta79_5alloc11collections5btree4nodeINtB5_6HandleINtB5_7NodeRefNtNtB5_6marker5DyingNtNtNtCsHUR1vrdMJt_3std3ffi6os_str8OsStringINtNtCsieiGu2EXtoJ_4core6option6OptionB1E_ENtB1m_14LeafOrInternalENtB1m_2KVE12drop_key_valCs1AvS6iYDQZt_18build_script_build, symObjAddr: 0x1340, symBinAddr: 0x1000090F0, symSize: 0x140 }
  - { offset: 0x1793F, size: 0x8, addend: 0x0, symName: __RNvMsb_NtNtNtCslJiobkLta79_5alloc11collections5btree8navigateINtB5_13LazyLeafRangeNtNtNtB7_4node6marker5DyingNtNtNtCsHUR1vrdMJt_3std3ffi6os_str8OsStringINtNtCsieiGu2EXtoJ_4core6option6OptionB1J_EE10take_frontCs1AvS6iYDQZt_18build_script_build, symObjAddr: 0x1480, symBinAddr: 0x100009230, symSize: 0x2E0 }
  - { offset: 0x17C9E, size: 0x8, addend: 0x0, symName: __RNvMsc_NtNtNtCslJiobkLta79_5alloc11collections5btree8navigateINtB5_13LazyLeafRangeNtNtNtB7_4node6marker5DyingNtNtNtCsHUR1vrdMJt_3std3ffi6os_str8OsStringINtNtCsieiGu2EXtoJ_4core6option6OptionB1J_EE10init_frontCs1AvS6iYDQZt_18build_script_build, symObjAddr: 0x1760, symBinAddr: 0x100009510, symSize: 0x280 }
  - { offset: 0x17F4E, size: 0x8, addend: 0x0, symName: __RNvMse_NtNtNtCslJiobkLta79_5alloc11collections5btree4nodeINtB5_7NodeRefNtNtB5_6marker5DyingNtNtNtCsHUR1vrdMJt_3std3ffi6os_str8OsStringINtNtCsieiGu2EXtoJ_4core6option6OptionB1r_ENtB19_14LeafOrInternalE6ascendCs1AvS6iYDQZt_18build_script_build, symObjAddr: 0x19E0, symBinAddr: 0x100009790, symSize: 0x230 }
  - { offset: 0x182D6, size: 0x8, addend: 0x0, symName: __RNvMsp_NtNtNtCslJiobkLta79_5alloc11collections5btree8navigateINtNtB7_4node6HandleINtB10_7NodeRefNtNtB10_6marker5DyingNtNtNtCsHUR1vrdMJt_3std3ffi6os_str8OsStringINtNtCsieiGu2EXtoJ_4core6option6OptionB1R_ENtB1y_14LeafOrInternalENtB1y_2KVE14next_leaf_edgeCs1AvS6iYDQZt_18build_script_build, symObjAddr: 0x1C10, symBinAddr: 0x1000099C0, symSize: 0x320 }
  - { offset: 0x18570, size: 0x8, addend: 0x0, symName: __RNvMsx_NtNtNtCslJiobkLta79_5alloc11collections5btree3mapINtB5_8IntoIterNtNtNtCsHUR1vrdMJt_3std3ffi6os_str8OsStringINtNtCsieiGu2EXtoJ_4core6option6OptionB17_EE10dying_nextCs1AvS6iYDQZt_18build_script_build, symObjAddr: 0x2540, symBinAddr: 0x10000A2F0, symSize: 0x90 }
  - { offset: 0x18A52, size: 0x8, addend: 0x0, symName: __RINvMNtCsieiGu2EXtoJ_4core3stre16trim_end_matchescECs1AvS6iYDQZt_18build_script_build, symObjAddr: 0x0, symBinAddr: 0x10000B7C0, symSize: 0x120 }
  - { offset: 0x18AB8, size: 0x8, addend: 0x0, symName: __RNvXNvNtCsHUR1vrdMJt_3std2io17default_write_fmtINtB2_7AdapterNtNtNtNtB6_3sys5stdio4unix6StderrENtNtCsieiGu2EXtoJ_4core3fmt5Write9write_strCs1AvS6iYDQZt_18build_script_build, symObjAddr: 0x2C70, symBinAddr: 0x10000E380, symSize: 0xA0 }
  - { offset: 0x18C13, size: 0x8, addend: 0x0, symName: __RNCNvXs1_NtNtNtCsHUR1vrdMJt_3std2io5error14repr_bitpackedNtB7_4ReprNtNtNtCsieiGu2EXtoJ_4core3ops4drop4Drop4drop0Cs1AvS6iYDQZt_18build_script_build, symObjAddr: 0x1BE0, symBinAddr: 0x10000D300, symSize: 0x30 }
  - { offset: 0x18CC8, size: 0x8, addend: 0x0, symName: __RNvXs1_NtNtNtCsHUR1vrdMJt_3std2io5error14repr_bitpackedNtB5_4ReprNtNtNtCsieiGu2EXtoJ_4core3ops4drop4Drop4dropCs1AvS6iYDQZt_18build_script_build, symObjAddr: 0x2D90, symBinAddr: 0x10000E4A0, symSize: 0x30 }
  - { offset: 0x18CF1, size: 0x8, addend: 0x0, symName: __RINvNtNtNtCsHUR1vrdMJt_3std2io5error14repr_bitpacked11decode_reprINtNtCslJiobkLta79_5alloc5boxed3BoxNtB4_6CustomENCNvXs1_B2_NtB2_4ReprNtNtNtCsieiGu2EXtoJ_4core3ops4drop4Drop4drop0ECs1AvS6iYDQZt_18build_script_build, symObjAddr: 0x1620, symBinAddr: 0x10000CD40, symSize: 0x200 }
  - { offset: 0x18F63, size: 0x8, addend: 0x0, symName: __RNCNvMs0_NtNtNtCsHUR1vrdMJt_3std2io5error14repr_bitpackedNtB7_4Repr4data0Cs1AvS6iYDQZt_18build_script_build, symObjAddr: 0x1BD0, symBinAddr: 0x10000D2F0, symSize: 0x10 }
  - { offset: 0x18F9B, size: 0x8, addend: 0x0, symName: __RINvNtNtNtCsHUR1vrdMJt_3std2io5error14repr_bitpacked11decode_reprRNtB4_6CustomNCNvMs0_B2_NtB2_4Repr4data0ECs1AvS6iYDQZt_18build_script_build, symObjAddr: 0x1820, symBinAddr: 0x10000CF40, symSize: 0x200 }
  - { offset: 0x191FC, size: 0x8, addend: 0x0, symName: __RNvNtNtNtCsHUR1vrdMJt_3std2io5error14repr_bitpacked14kind_from_primCs1AvS6iYDQZt_18build_script_build, symObjAddr: 0x23D0, symBinAddr: 0x10000DAE0, symSize: 0x5B0 }
  - { offset: 0x19CDB, size: 0x8, addend: 0x0, symName: __RINvNtCsHUR1vrdMJt_3std2io17default_write_fmtNtNtNtNtB4_3sys5stdio4unix6StderrECs1AvS6iYDQZt_18build_script_build, symObjAddr: 0x7C0, symBinAddr: 0x10000BF80, symSize: 0x120 }
  - { offset: 0x1A042, size: 0x8, addend: 0x0, symName: __RINvNtNtCsHUR1vrdMJt_3std3sys9backtrace28___rust_begin_short_backtraceFEuuECs1AvS6iYDQZt_18build_script_build, symObjAddr: 0x1600, symBinAddr: 0x10000CD20, symSize: 0x20 }
  - { offset: 0x1A0E3, size: 0x8, addend: 0x0, symName: __RNvNtNtNtCsHUR1vrdMJt_3std3sys2fs4unix23debug_assert_fd_is_openCs1AvS6iYDQZt_18build_script_build, symObjAddr: 0x2980, symBinAddr: 0x10000E090, symSize: 0xB0 }
  - { offset: 0x1A174, size: 0x8, addend: 0x0, symName: __RNCINvNtCsHUR1vrdMJt_3std2rt10lang_startuE0Cs1AvS6iYDQZt_18build_script_build, symObjAddr: 0x1B30, symBinAddr: 0x10000D250, symSize: 0x30 }
  - { offset: 0x1A1DE, size: 0x8, addend: 0x0, symName: __RINvNtCsHUR1vrdMJt_3std2rt10lang_startuECs1AvS6iYDQZt_18build_script_build, symObjAddr: 0x8E0, symBinAddr: 0x10000C0A0, symSize: 0x40 }
  - { offset: 0x1A323, size: 0x8, addend: 0x0, symName: __RNvXsZ_NtCsHUR1vrdMJt_3std7processuNtB5_11Termination6reportCs1AvS6iYDQZt_18build_script_build, symObjAddr: 0x3780, symBinAddr: 0x10000EE90, symSize: 0x10 }
  - { offset: 0x1ACFD, size: 0x8, addend: 0x0, symName: __RNvNvMs1_NtNtCsieiGu2EXtoJ_4core3ptr8non_nullINtB7_7NonNullpE13new_unchecked18precondition_checkCs1AvS6iYDQZt_18build_script_build, symObjAddr: 0x2A30, symBinAddr: 0x10000E140, symSize: 0x90 }
  - { offset: 0x1B5A0, size: 0x8, addend: 0x0, symName: __RINvNtCsieiGu2EXtoJ_4core3ptr13drop_in_placeINtNtB4_6option6OptionINtNtCslJiobkLta79_5alloc5boxed3BoxSmEEECs1AvS6iYDQZt_18build_script_build, symObjAddr: 0x9C0, symBinAddr: 0x10000C0E0, symSize: 0x40 }
  - { offset: 0x1B5CF, size: 0x8, addend: 0x0, symName: __RINvNtCsieiGu2EXtoJ_4core3ptr13drop_in_placeINtNtB4_6option6OptionNtNtNtCsHUR1vrdMJt_3std3ffi6os_str8OsStringEECs1AvS6iYDQZt_18build_script_build, symObjAddr: 0xA00, symBinAddr: 0x10000C120, symSize: 0x40 }
  - { offset: 0x1B5FE, size: 0x8, addend: 0x0, symName: __RINvNtCsieiGu2EXtoJ_4core3ptr13drop_in_placeINtNtB4_6option6OptionNtNtNtCslJiobkLta79_5alloc3ffi5c_str7CStringEECs1AvS6iYDQZt_18build_script_build, symObjAddr: 0xA40, symBinAddr: 0x10000C160, symSize: 0x40 }
  - { offset: 0x1B62D, size: 0x8, addend: 0x0, symName: __RINvNtCsieiGu2EXtoJ_4core3ptr13drop_in_placeINtNtB4_6option6OptionNtNtNtNtNtCsHUR1vrdMJt_3std3sys7process4unix6common5StdioEECs1AvS6iYDQZt_18build_script_build, symObjAddr: 0xA80, symBinAddr: 0x10000C1A0, symSize: 0x40 }
  - { offset: 0x1B65C, size: 0x8, addend: 0x0, symName: __RINvNtCsieiGu2EXtoJ_4core3ptr13drop_in_placeINtNtB4_6result6ResultuNtNtNtCsHUR1vrdMJt_3std2io5error5ErrorEECs1AvS6iYDQZt_18build_script_build, symObjAddr: 0xAC0, symBinAddr: 0x10000C1E0, symSize: 0x40 }
  - { offset: 0x1B68B, size: 0x8, addend: 0x0, symName: __RINvNtCsieiGu2EXtoJ_4core3ptr13drop_in_placeINtNtCslJiobkLta79_5alloc3vec3VecINtNtBL_5boxed3BoxDINtNtNtB4_3ops8function5FnMutuEp6OutputINtNtB4_6result6ResultuNtNtNtCsHUR1vrdMJt_3std2io5error5ErrorENtNtB4_6marker4SyncNtB3b_4SendEL_EEECs1AvS6iYDQZt_18build_script_build, symObjAddr: 0xB00, symBinAddr: 0x10000C220, symSize: 0x50 }
  - { offset: 0x1B6BA, size: 0x8, addend: 0x0, symName: __RINvNtCsieiGu2EXtoJ_4core3ptr13drop_in_placeINtNtCslJiobkLta79_5alloc3vec3VecNtCs1AvS6iYDQZt_18build_script_build10VersionCfgEEB1f_, symObjAddr: 0xB50, symBinAddr: 0x10000C270, symSize: 0x50 }
  - { offset: 0x1B6E9, size: 0x8, addend: 0x0, symName: __RINvNtCsieiGu2EXtoJ_4core3ptr13drop_in_placeINtNtCslJiobkLta79_5alloc3vec3VecPaEECs1AvS6iYDQZt_18build_script_build, symObjAddr: 0xBA0, symBinAddr: 0x10000C2C0, symSize: 0x50 }
  - { offset: 0x1B718, size: 0x8, addend: 0x0, symName: __RINvNtCsieiGu2EXtoJ_4core3ptr13drop_in_placeINtNtCslJiobkLta79_5alloc3vec3VechEECs1AvS6iYDQZt_18build_script_build, symObjAddr: 0xBF0, symBinAddr: 0x10000C310, symSize: 0x50 }
  - { offset: 0x1B747, size: 0x8, addend: 0x0, symName: __RINvNtCsieiGu2EXtoJ_4core3ptr13drop_in_placeINtNtCslJiobkLta79_5alloc5boxed3BoxDINtNtNtB4_3ops8function5FnMutuEp6OutputINtNtB4_6result6ResultuNtNtNtCsHUR1vrdMJt_3std2io5error5ErrorENtNtB4_6marker4SyncNtB2V_4SendEL_EECs1AvS6iYDQZt_18build_script_build, symObjAddr: 0xC40, symBinAddr: 0x10000C360, symSize: 0x70 }
  - { offset: 0x1B776, size: 0x8, addend: 0x0, symName: __RINvNtCsieiGu2EXtoJ_4core3ptr13drop_in_placeINtNtCslJiobkLta79_5alloc5boxed3BoxDNtNtB4_5error5ErrorNtNtB4_6marker4SyncNtB1B_4SendEL_EECs1AvS6iYDQZt_18build_script_build, symObjAddr: 0xCB0, symBinAddr: 0x10000C3D0, symSize: 0x70 }
  - { offset: 0x1B7A5, size: 0x8, addend: 0x0, symName: __RINvNtCsieiGu2EXtoJ_4core3ptr13drop_in_placeINtNtCslJiobkLta79_5alloc5boxed3BoxNtNtNtCsHUR1vrdMJt_3std2io5error6CustomEECs1AvS6iYDQZt_18build_script_build, symObjAddr: 0xD20, symBinAddr: 0x10000C440, symSize: 0x50 }
  - { offset: 0x1B7D4, size: 0x8, addend: 0x0, symName: __RINvNtCsieiGu2EXtoJ_4core3ptr13drop_in_placeINtNtCslJiobkLta79_5alloc5boxed3BoxShEECs1AvS6iYDQZt_18build_script_build, symObjAddr: 0xD70, symBinAddr: 0x10000C490, symSize: 0x20 }
  - { offset: 0x1B803, size: 0x8, addend: 0x0, symName: __RINvNtCsieiGu2EXtoJ_4core3ptr13drop_in_placeINtNtCslJiobkLta79_5alloc5boxed3BoxSmEECs1AvS6iYDQZt_18build_script_build, symObjAddr: 0xD90, symBinAddr: 0x10000C4B0, symSize: 0x20 }
  - { offset: 0x1B832, size: 0x8, addend: 0x0, symName: __RINvNtCsieiGu2EXtoJ_4core3ptr13drop_in_placeINtNtCslJiobkLta79_5alloc6borrow3CoweEECs1AvS6iYDQZt_18build_script_build, symObjAddr: 0xDB0, symBinAddr: 0x10000C4D0, symSize: 0x40 }
  - { offset: 0x1B861, size: 0x8, addend: 0x0, symName: __RINvNtCsieiGu2EXtoJ_4core3ptr13drop_in_placeINtNtCslJiobkLta79_5alloc7raw_vec6RawVecINtNtBL_5boxed3BoxDINtNtNtB4_3ops8function5FnMutuEp6OutputINtNtB4_6result6ResultuNtNtNtCsHUR1vrdMJt_3std2io5error5ErrorENtNtB4_6marker4SyncNtB3i_4SendEL_EEECs1AvS6iYDQZt_18build_script_build, symObjAddr: 0xDF0, symBinAddr: 0x10000C510, symSize: 0x20 }
  - { offset: 0x1B890, size: 0x8, addend: 0x0, symName: __RINvNtCsieiGu2EXtoJ_4core3ptr13drop_in_placeINtNtCslJiobkLta79_5alloc7raw_vec6RawVecNtCs1AvS6iYDQZt_18build_script_build10VersionCfgEEB1m_, symObjAddr: 0xE10, symBinAddr: 0x10000C530, symSize: 0x20 }
  - { offset: 0x1B8BF, size: 0x8, addend: 0x0, symName: __RINvNtCsieiGu2EXtoJ_4core3ptr13drop_in_placeINtNtCslJiobkLta79_5alloc7raw_vec6RawVecPaEECs1AvS6iYDQZt_18build_script_build, symObjAddr: 0xE30, symBinAddr: 0x10000C550, symSize: 0x20 }
  - { offset: 0x1B8EE, size: 0x8, addend: 0x0, symName: __RINvNtCsieiGu2EXtoJ_4core3ptr13drop_in_placeINtNtCslJiobkLta79_5alloc7raw_vec6RawVechEECs1AvS6iYDQZt_18build_script_build, symObjAddr: 0xE50, symBinAddr: 0x10000C570, symSize: 0x20 }
  - { offset: 0x1B91D, size: 0x8, addend: 0x0, symName: __RINvNtCsieiGu2EXtoJ_4core3ptr13drop_in_placeINtNtNtB4_3ops12control_flow11ControlFlowNtCs1AvS6iYDQZt_18build_script_build10VersionCfgEEB1n_, symObjAddr: 0xE70, symBinAddr: 0x10000C590, symSize: 0x40 }
  - { offset: 0x1B94C, size: 0x8, addend: 0x0, symName: __RINvNtCsieiGu2EXtoJ_4core3ptr13drop_in_placeINtNtNtCsHUR1vrdMJt_3std2io5error9ErrorDataINtNtCslJiobkLta79_5alloc5boxed3BoxNtBJ_6CustomEEECs1AvS6iYDQZt_18build_script_build, symObjAddr: 0xEB0, symBinAddr: 0x10000C5D0, symSize: 0x30 }
  - { offset: 0x1B97B, size: 0x8, addend: 0x0, symName: __RINvNtCsieiGu2EXtoJ_4core3ptr13drop_in_placeINtNtNtCslJiobkLta79_5alloc3vec9into_iter8IntoIterNtCs1AvS6iYDQZt_18build_script_build10VersionCfgEEB1w_, symObjAddr: 0xEE0, symBinAddr: 0x10000C600, symSize: 0x20 }
  - { offset: 0x1B9AA, size: 0x8, addend: 0x0, symName: __RINvNtCsieiGu2EXtoJ_4core3ptr13drop_in_placeINtNtNtNtCslJiobkLta79_5alloc11collections5btree3map8BTreeMapNtNtNtCsHUR1vrdMJt_3std3ffi6os_str8OsStringINtNtB4_6option6OptionB1F_EEECs1AvS6iYDQZt_18build_script_build, symObjAddr: 0xF00, symBinAddr: 0x10000C620, symSize: 0x20 }
  - { offset: 0x1B9D9, size: 0x8, addend: 0x0, symName: __RINvNtCsieiGu2EXtoJ_4core3ptr13drop_in_placeINtNtNtNtCslJiobkLta79_5alloc11collections5btree3map8IntoIterNtNtNtCsHUR1vrdMJt_3std3ffi6os_str8OsStringINtNtB4_6option6OptionB1F_EEECs1AvS6iYDQZt_18build_script_build, symObjAddr: 0xF20, symBinAddr: 0x10000C640, symSize: 0x20 }
  - { offset: 0x1BA08, size: 0x8, addend: 0x0, symName: __RINvNtCsieiGu2EXtoJ_4core3ptr13drop_in_placeINtNvMsT_NtNtNtCslJiobkLta79_5alloc11collections5btree4nodeINtBP_6HandleINtBP_7NodeRefNtNtBP_6marker5DyingpppENtB26_2KVE12drop_key_val7DropperINtNtB4_6option6OptionNtNtNtCsHUR1vrdMJt_3std3ffi6os_str8OsStringEEECs1AvS6iYDQZt_18build_script_build, symObjAddr: 0xF40, symBinAddr: 0x10000C660, symSize: 0x20 }
  - { offset: 0x1BA37, size: 0x8, addend: 0x0, symName: __RINvNtCsieiGu2EXtoJ_4core3ptr13drop_in_placeINtNvNtCsHUR1vrdMJt_3std2io17default_write_fmt7AdapterNtNtNtNtBN_3sys5stdio4unix6StderrEECs1AvS6iYDQZt_18build_script_build, symObjAddr: 0xF60, symBinAddr: 0x10000C680, symSize: 0x20 }
  - { offset: 0x1BA66, size: 0x8, addend: 0x0, symName: __RINvNtCsieiGu2EXtoJ_4core3ptr13drop_in_placeINtNvXsd_NtNtCslJiobkLta79_5alloc3vec9into_iterINtBP_8IntoIterppENtNtNtB4_3ops4drop4Drop4drop9DropGuardNtCs1AvS6iYDQZt_18build_script_build10VersionCfgNtNtBT_5alloc6GlobalEEB2n_, symObjAddr: 0xF80, symBinAddr: 0x10000C6A0, symSize: 0x20 }
  - { offset: 0x1BA95, size: 0x8, addend: 0x0, symName: __RINvNtCsieiGu2EXtoJ_4core3ptr13drop_in_placeINtNvXsw_NtNtNtCslJiobkLta79_5alloc11collections5btree3mapINtBP_8IntoIterpppENtNtNtB4_3ops4drop4Drop4drop9DropGuardNtNtNtCsHUR1vrdMJt_3std3ffi6os_str8OsStringINtNtB4_6option6OptionB2x_ENtNtBV_5alloc6GlobalEECs1AvS6iYDQZt_18build_script_build, symObjAddr: 0xFA0, symBinAddr: 0x10000C6C0, symSize: 0x20 }
  - { offset: 0x1BAC4, size: 0x8, addend: 0x0, symName: __RINvNtCsieiGu2EXtoJ_4core3ptr13drop_in_placeNCINvMsi_NtCslJiobkLta79_5alloc3vecINtBP_3VechE14extend_trustedINtNtNtNtB4_4iter8adapters3map3MapINtNtNtB4_5slice4iter4IterhENCNvNtBR_3str13replace_ascii0EE0ECs1AvS6iYDQZt_18build_script_build, symObjAddr: 0xFC0, symBinAddr: 0x10000C6E0, symSize: 0x20 }
  - { offset: 0x1BAF3, size: 0x8, addend: 0x0, symName: __RINvNtCsieiGu2EXtoJ_4core3ptr13drop_in_placeNCINvNtNtNtB4_4iter8adapters3map8map_foldRhhuNCNvNtCslJiobkLta79_5alloc3str13replace_ascii0NCINvNvNtNtNtBP_6traits8iterator8Iterator8for_each4callhNCINvMsi_NtB1v_3vecINtB3c_3VechE14extend_trustedINtBL_3MapINtNtNtB4_5slice4iter4IterhEB1p_EE0E0E0ECs1AvS6iYDQZt_18build_script_build, symObjAddr: 0xFE0, symBinAddr: 0x10000C700, symSize: 0x20 }
  - { offset: 0x1BB22, size: 0x8, addend: 0x0, symName: __RINvNtCsieiGu2EXtoJ_4core3ptr13drop_in_placeNCINvNvNtNtNtNtB4_4iter6traits8iterator8Iterator8for_each4callhNCINvMsi_NtCslJiobkLta79_5alloc3vecINtB1Q_3VechE14extend_trustedINtNtNtBT_8adapters3map3MapINtNtNtB4_5slice4iter4IterhENCNvNtB1S_3str13replace_ascii0EE0E0ECs1AvS6iYDQZt_18build_script_build, symObjAddr: 0x1000, symBinAddr: 0x10000C720, symSize: 0x20 }
  - { offset: 0x1BB51, size: 0x8, addend: 0x0, symName: __RINvNtCsieiGu2EXtoJ_4core3ptr13drop_in_placeNtCs1AvS6iYDQZt_18build_script_build10VersionCfgEBI_, symObjAddr: 0x1020, symBinAddr: 0x10000C740, symSize: 0x20 }
  - { offset: 0x1BB80, size: 0x8, addend: 0x0, symName: __RINvNtCsieiGu2EXtoJ_4core3ptr13drop_in_placeNtNtCsHUR1vrdMJt_3std7process6OutputECs1AvS6iYDQZt_18build_script_build, symObjAddr: 0x1040, symBinAddr: 0x10000C760, symSize: 0x60 }
  - { offset: 0x1BBAF, size: 0x8, addend: 0x0, symName: __RINvNtCsieiGu2EXtoJ_4core3ptr13drop_in_placeNtNtCsHUR1vrdMJt_3std7process7CommandECs1AvS6iYDQZt_18build_script_build, symObjAddr: 0x10A0, symBinAddr: 0x10000C7C0, symSize: 0x20 }
  - { offset: 0x1BBDE, size: 0x8, addend: 0x0, symName: __RINvNtCsieiGu2EXtoJ_4core3ptr13drop_in_placeNtNtCslJiobkLta79_5alloc6string6StringECs1AvS6iYDQZt_18build_script_build, symObjAddr: 0x10C0, symBinAddr: 0x10000C7E0, symSize: 0x20 }
  - { offset: 0x1BC0D, size: 0x8, addend: 0x0, symName: __RINvNtCsieiGu2EXtoJ_4core3ptr13drop_in_placeNtNtNtCsHUR1vrdMJt_3std2io5error5ErrorECs1AvS6iYDQZt_18build_script_build, symObjAddr: 0x10E0, symBinAddr: 0x10000C800, symSize: 0x20 }
  - { offset: 0x1BC3C, size: 0x8, addend: 0x0, symName: __RINvNtCsieiGu2EXtoJ_4core3ptr13drop_in_placeNtNtNtCsHUR1vrdMJt_3std2io5error6CustomECs1AvS6iYDQZt_18build_script_build, symObjAddr: 0x1100, symBinAddr: 0x10000C820, symSize: 0x20 }
  - { offset: 0x1BC6B, size: 0x8, addend: 0x0, symName: __RINvNtCsieiGu2EXtoJ_4core3ptr13drop_in_placeNtNtNtCsHUR1vrdMJt_3std3ffi6os_str8OsStringECs1AvS6iYDQZt_18build_script_build, symObjAddr: 0x1120, symBinAddr: 0x10000C840, symSize: 0x20 }
  - { offset: 0x1BC9A, size: 0x8, addend: 0x0, symName: __RINvNtCsieiGu2EXtoJ_4core3ptr13drop_in_placeNtNtNtCslJiobkLta79_5alloc3ffi5c_str7CStringECs1AvS6iYDQZt_18build_script_build, symObjAddr: 0x1140, symBinAddr: 0x10000C860, symSize: 0x50 }
  - { offset: 0x1BCC9, size: 0x8, addend: 0x0, symName: __RINvNtCsieiGu2EXtoJ_4core3ptr13drop_in_placeNtNtNtCslJiobkLta79_5alloc3vec15set_len_on_drop12SetLenOnDropECs1AvS6iYDQZt_18build_script_build, symObjAddr: 0x1190, symBinAddr: 0x10000C8B0, symSize: 0x20 }
  - { offset: 0x1BCF8, size: 0x8, addend: 0x0, symName: __RINvNtCsieiGu2EXtoJ_4core3ptr13drop_in_placeNtNtNtNtCsHUR1vrdMJt_3std2io5error14repr_bitpacked4ReprECs1AvS6iYDQZt_18build_script_build, symObjAddr: 0x11B0, symBinAddr: 0x10000C8D0, symSize: 0x20 }
  - { offset: 0x1BD27, size: 0x8, addend: 0x0, symName: __RINvNtCsieiGu2EXtoJ_4core3ptr13drop_in_placeNtNtNtNtCsHUR1vrdMJt_3std2os2fd5owned7OwnedFdECs1AvS6iYDQZt_18build_script_build, symObjAddr: 0x11D0, symBinAddr: 0x10000C8F0, symSize: 0x20 }
  - { offset: 0x1BD56, size: 0x8, addend: 0x0, symName: __RINvNtCsieiGu2EXtoJ_4core3ptr13drop_in_placeNtNtNtNtCsHUR1vrdMJt_3std3sys2fd4unix8FileDescECs1AvS6iYDQZt_18build_script_build, symObjAddr: 0x11F0, symBinAddr: 0x10000C910, symSize: 0x20 }
  - { offset: 0x1BD85, size: 0x8, addend: 0x0, symName: __RINvNtCsieiGu2EXtoJ_4core3ptr13drop_in_placeNtNtNtNtCsHUR1vrdMJt_3std3sys6os_str5bytes3BufECs1AvS6iYDQZt_18build_script_build, symObjAddr: 0x1210, symBinAddr: 0x10000C930, symSize: 0x20 }
  - { offset: 0x1BDB4, size: 0x8, addend: 0x0, symName: __RINvNtCsieiGu2EXtoJ_4core3ptr13drop_in_placeNtNtNtNtCsHUR1vrdMJt_3std3sys7process3env10CommandEnvECs1AvS6iYDQZt_18build_script_build, symObjAddr: 0x1230, symBinAddr: 0x10000C950, symSize: 0x20 }
  - { offset: 0x1BDE3, size: 0x8, addend: 0x0, symName: __RINvNtCsieiGu2EXtoJ_4core3ptr13drop_in_placeNtNtNtNtNtCsHUR1vrdMJt_3std3sys7process4unix6common5StdioECs1AvS6iYDQZt_18build_script_build, symObjAddr: 0x1250, symBinAddr: 0x10000C970, symSize: 0x30 }
  - { offset: 0x1BE12, size: 0x8, addend: 0x0, symName: __RINvNtCsieiGu2EXtoJ_4core3ptr13drop_in_placeNtNtNtNtNtCsHUR1vrdMJt_3std3sys7process4unix6common7CommandECs1AvS6iYDQZt_18build_script_build, symObjAddr: 0x1280, symBinAddr: 0x10000C9A0, symSize: 0x1D0 }
  - { offset: 0x1BE41, size: 0x8, addend: 0x0, symName: __RINvNtCsieiGu2EXtoJ_4core3ptr13drop_in_placeNtNtNtNtNtNtCsHUR1vrdMJt_3std3sys7process4unix6common13cstring_array12CStringArrayECs1AvS6iYDQZt_18build_script_build, symObjAddr: 0x1450, symBinAddr: 0x10000CB70, symSize: 0x50 }
  - { offset: 0x1BE70, size: 0x8, addend: 0x0, symName: __RINvNtCsieiGu2EXtoJ_4core3ptr13drop_in_placeNtNvNtNtNtCslJiobkLta79_5alloc11collections5btree3mem7replace10PanicGuardECs1AvS6iYDQZt_18build_script_build, symObjAddr: 0x14A0, symBinAddr: 0x10000CBC0, symSize: 0x20 }
  - { offset: 0x1BE9F, size: 0x8, addend: 0x0, symName: __RINvNtCsieiGu2EXtoJ_4core3ptr13drop_in_placeSINtNtCslJiobkLta79_5alloc5boxed3BoxDINtNtNtB4_3ops8function5FnMutuEp6OutputINtNtB4_6result6ResultuNtNtNtCsHUR1vrdMJt_3std2io5error5ErrorENtNtB4_6marker4SyncNtB2W_4SendEL_EECs1AvS6iYDQZt_18build_script_build, symObjAddr: 0x14C0, symBinAddr: 0x10000CBE0, symSize: 0xA0 }
  - { offset: 0x1BECE, size: 0x8, addend: 0x0, symName: __RINvNtCsieiGu2EXtoJ_4core3ptr13drop_in_placeSNtCs1AvS6iYDQZt_18build_script_build10VersionCfgEBJ_, symObjAddr: 0x1560, symBinAddr: 0x10000CC80, symSize: 0xA0 }
  - { offset: 0x1C446, size: 0x8, addend: 0x0, symName: __RNvXs8_NtNtCsieiGu2EXtoJ_4core3str5errorNtB5_9Utf8ErrorNtNtB9_3fmt5Debug3fmtCs1AvS6iYDQZt_18build_script_build, symObjAddr: 0x36F0, symBinAddr: 0x10000EE00, symSize: 0x90 }
  - { offset: 0x1C4BB, size: 0x8, addend: 0x0, symName: __RINvMNtCsieiGu2EXtoJ_4core3stre16trim_end_matchescECs1AvS6iYDQZt_18build_script_build, symObjAddr: 0x0, symBinAddr: 0x10000B7C0, symSize: 0x120 }
  - { offset: 0x1C649, size: 0x8, addend: 0x0, symName: __RINvMNtCsieiGu2EXtoJ_4core3stre18trim_start_matchesNvMNtNtB5_4char7methodsc13is_whitespaceECs1AvS6iYDQZt_18build_script_build, symObjAddr: 0x120, symBinAddr: 0x10000B8E0, symSize: 0x100 }
  - { offset: 0x1C833, size: 0x8, addend: 0x0, symName: __RINvMNtCsieiGu2EXtoJ_4core3stre18trim_start_matchescECs1AvS6iYDQZt_18build_script_build, symObjAddr: 0x220, symBinAddr: 0x10000B9E0, symSize: 0x110 }
  - { offset: 0x1C9CD, size: 0x8, addend: 0x0, symName: __RINvMNtCsieiGu2EXtoJ_4core3stre5parsejECs1AvS6iYDQZt_18build_script_build, symObjAddr: 0x330, symBinAddr: 0x10000BAF0, symSize: 0x30 }
  - { offset: 0x1CA04, size: 0x8, addend: 0x0, symName: __RINvMNtCsieiGu2EXtoJ_4core3stre5splitNCNvCs1AvS6iYDQZt_18build_script_build13rustc_version0EBD_, symObjAddr: 0x360, symBinAddr: 0x10000BB20, symSize: 0x90 }
  - { offset: 0x1CA4A, size: 0x8, addend: 0x0, symName: __RINvMNtCsieiGu2EXtoJ_4core3stre5splitReECs1AvS6iYDQZt_18build_script_build, symObjAddr: 0x3F0, symBinAddr: 0x10000BBB0, symSize: 0xD0 }
  - { offset: 0x1CA90, size: 0x8, addend: 0x0, symName: __RINvMNtCsieiGu2EXtoJ_4core3stre5splitcECs1AvS6iYDQZt_18build_script_build, symObjAddr: 0x4C0, symBinAddr: 0x10000BC80, symSize: 0xB0 }
  - { offset: 0x1CAD6, size: 0x8, addend: 0x0, symName: __RINvMNtCsieiGu2EXtoJ_4core3stre8containsReECs1AvS6iYDQZt_18build_script_build, symObjAddr: 0x570, symBinAddr: 0x10000BD30, symSize: 0x40 }
  - { offset: 0x1CB1C, size: 0x8, addend: 0x0, symName: __RNvMNtCsieiGu2EXtoJ_4core3stre10trim_startCs1AvS6iYDQZt_18build_script_build, symObjAddr: 0x1C30, symBinAddr: 0x10000D350, symSize: 0x20 }
  - { offset: 0x1CB7E, size: 0x8, addend: 0x0, symName: __RNvMNtCsieiGu2EXtoJ_4core3stre16split_whitespaceCs1AvS6iYDQZt_18build_script_build, symObjAddr: 0x1C50, symBinAddr: 0x10000D370, symSize: 0xE0 }
  - { offset: 0x1CC34, size: 0x8, addend: 0x0, symName: __RNvMNtCsieiGu2EXtoJ_4core3stre5charsCs1AvS6iYDQZt_18build_script_build, symObjAddr: 0x1D30, symBinAddr: 0x10000D450, symSize: 0x20 }
  - { offset: 0x1CCD6, size: 0x8, addend: 0x0, symName: __RNvMNtCsieiGu2EXtoJ_4core3stre5linesCs1AvS6iYDQZt_18build_script_build, symObjAddr: 0x1D50, symBinAddr: 0x10000D470, symSize: 0xE0 }
  - { offset: 0x1CD66, size: 0x8, addend: 0x0, symName: __RNvMNtCsieiGu2EXtoJ_4core3stre8is_emptyCs1AvS6iYDQZt_18build_script_build, symObjAddr: 0x1E30, symBinAddr: 0x10000D550, symSize: 0x20 }
  - { offset: 0x1CFC9, size: 0x8, addend: 0x0, symName: __RNvXs3_NtNtCsieiGu2EXtoJ_4core3str7patternNtB7_12IsWhitespaceNtB5_11MultiCharEq7matchesCs1AvS6iYDQZt_18build_script_build, symObjAddr: 0x3020, symBinAddr: 0x10000E730, symSize: 0x20 }
  - { offset: 0x1D465, size: 0x8, addend: 0x0, symName: __RNvXs3_NtCsieiGu2EXtoJ_4core3strNtB5_8LinesMapINtNtNtB7_3ops8function2FnTReEE4callCs1AvS6iYDQZt_18build_script_build, symObjAddr: 0x2DF0, symBinAddr: 0x10000E500, symSize: 0x230 }
  - { offset: 0x1D58E, size: 0x8, addend: 0x0, symName: __RNvXs4_NtCsieiGu2EXtoJ_4core3strNtB5_8LinesMapINtNtNtB7_3ops8function5FnMutTReEE8call_mutCs1AvS6iYDQZt_18build_script_build, symObjAddr: 0x3300, symBinAddr: 0x10000EA10, symSize: 0x40 }
  - { offset: 0x1D617, size: 0x8, addend: 0x0, symName: __RNvXsg_NtCsieiGu2EXtoJ_4core3strNtB5_12IsWhitespaceINtNtNtB7_3ops8function5FnMutTcEE8call_mutCs1AvS6iYDQZt_18build_script_build, symObjAddr: 0x3990, symBinAddr: 0x10000F0A0, symSize: 0x30 }
  - { offset: 0x1D6C9, size: 0x8, addend: 0x0, symName: __RNvXsm_NtCsieiGu2EXtoJ_4core3strNtB5_10IsNotEmptyINtNtNtB7_3ops8function5FnMutTRReEE8call_mutCs1AvS6iYDQZt_18build_script_build, symObjAddr: 0x39C0, symBinAddr: 0x10000F0D0, symSize: 0x20 }
  - { offset: 0x1E137, size: 0x8, addend: 0x0, symName: __RNSNvYNCINvNtCsHUR1vrdMJt_3std2rt10lang_startuE0INtNtNtCsieiGu2EXtoJ_4core3ops8function6FnOnceuE9call_once6vtableCs1AvS6iYDQZt_18build_script_build, symObjAddr: 0x1C10, symBinAddr: 0x10000D330, symSize: 0x20 }
  - { offset: 0x1E17B, size: 0x8, addend: 0x0, symName: __RNvYFEuINtNtNtCsieiGu2EXtoJ_4core3ops8function6FnOnceuE9call_onceCs1AvS6iYDQZt_18build_script_build, symObjAddr: 0x39E0, symBinAddr: 0x10000F0F0, symSize: 0x20 }
  - { offset: 0x1E1BB, size: 0x8, addend: 0x0, symName: __RNvYNCINvNtCsHUR1vrdMJt_3std2rt10lang_startuE0INtNtNtCsieiGu2EXtoJ_4core3ops8function6FnOnceuE9call_onceCs1AvS6iYDQZt_18build_script_build, symObjAddr: 0x3B70, symBinAddr: 0x10000F280, symSize: 0x40 }
  - { offset: 0x1E1FF, size: 0x8, addend: 0x0, symName: __RNvYNvYeNtNtCslJiobkLta79_5alloc6borrow7ToOwned8to_ownedINtNtNtCsieiGu2EXtoJ_4core3ops8function6FnOnceTReEE9call_onceCs1AvS6iYDQZt_18build_script_build, symObjAddr: 0x3BD0, symBinAddr: 0x10000F2E0, symSize: 0x30 }
  - { offset: 0x1E24E, size: 0x8, addend: 0x0, symName: __RNvXs1_NtNtNtCsieiGu2EXtoJ_4core3ops8function5implsQNtNtBb_3str10IsNotEmptyINtB7_5FnMutTRReEE8call_mutCs1AvS6iYDQZt_18build_script_build, symObjAddr: 0x2DC0, symBinAddr: 0x10000E4D0, symSize: 0x30 }
  - { offset: 0x1E2A4, size: 0x8, addend: 0x0, symName: __RNvYNvMNtNtCsieiGu2EXtoJ_4core4char7methodsc13is_whitespaceINtNtNtB9_3ops8function5FnMutTcEE8call_mutCs1AvS6iYDQZt_18build_script_build, symObjAddr: 0x3BB0, symBinAddr: 0x10000F2C0, symSize: 0x20 }
  - { offset: 0x1E6B8, size: 0x8, addend: 0x0, symName: __RNvXs_NvNtNtCsieiGu2EXtoJ_4core3fmt5Write9write_fmtQINtNvNtCsHUR1vrdMJt_3std2io17default_write_fmt7AdapterNtNtNtNtBV_3sys5stdio4unix6StderrENtB4_12SpecWriteFmt14spec_write_fmtCs1AvS6iYDQZt_18build_script_build, symObjAddr: 0x3790, symBinAddr: 0x10000EEA0, symSize: 0x170 }
  - { offset: 0x1E76F, size: 0x8, addend: 0x0, symName: __RNvYINtNvNtCsHUR1vrdMJt_3std2io17default_write_fmt7AdapterNtNtNtNtB9_3sys5stdio4unix6StderrENtNtCsieiGu2EXtoJ_4core3fmt5Write10write_charCs1AvS6iYDQZt_18build_script_build, symObjAddr: 0x3AE0, symBinAddr: 0x10000F1F0, symSize: 0x70 }
  - { offset: 0x1E7D7, size: 0x8, addend: 0x0, symName: __RNvYINtNvNtCsHUR1vrdMJt_3std2io17default_write_fmt7AdapterNtNtNtNtB9_3sys5stdio4unix6StderrENtNtCsieiGu2EXtoJ_4core3fmt5Write9write_fmtCs1AvS6iYDQZt_18build_script_build, symObjAddr: 0x3B50, symBinAddr: 0x10000F260, symSize: 0x20 }
  - { offset: 0x1EBE6, size: 0x8, addend: 0x0, symName: __RNCINvNvNtNtNtNtCsieiGu2EXtoJ_4core4iter6traits12double_ended19DoubleEndedIterator5rfind5checkjNCNvNtNtBe_3str7pattern13simd_contains0E0Cs1AvS6iYDQZt_18build_script_build, symObjAddr: 0x1B60, symBinAddr: 0x10000D280, symSize: 0x70 }
  - { offset: 0x1ED29, size: 0x8, addend: 0x0, symName: __RNvYINtNtNtCslJiobkLta79_5alloc3vec9into_iter8IntoIterNtCs1AvS6iYDQZt_18build_script_build10VersionCfgENtNtNtNtCsieiGu2EXtoJ_4core4iter6traits10exact_size17ExactSizeIterator3lenBS_, symObjAddr: 0x3A00, symBinAddr: 0x10000F110, symSize: 0xE0 }
  - { offset: 0x1EF29, size: 0x8, addend: 0x0, symName: __RNvXs3_NtNtNtCsieiGu2EXtoJ_4core4iter8adapters3zipINtB5_3ZipINtNtNtBb_5slice4iter4IterhEBW_EINtB5_7ZipImplBW_BW_E3newCs1AvS6iYDQZt_18build_script_build, symObjAddr: 0x31A0, symBinAddr: 0x10000E8B0, symSize: 0xC0 }
  - { offset: 0x1EFBD, size: 0x8, addend: 0x0, symName: __RNvXs3_NtNtNtCsieiGu2EXtoJ_4core4iter8adapters3zipINtB5_3ZipINtNtNtBb_5slice4iter4IterhEBW_EINtB5_7ZipImplBW_BW_E4nextCs1AvS6iYDQZt_18build_script_build, symObjAddr: 0x3260, symBinAddr: 0x10000E970, symSize: 0xA0 }
  - { offset: 0x1F463, size: 0x8, addend: 0x0, symName: __RNvNvNtCsieiGu2EXtoJ_4core9ub_checks23maybe_is_nonoverlapping7runtimeCs1AvS6iYDQZt_18build_script_build, symObjAddr: 0x2AC0, symBinAddr: 0x10000E1D0, symSize: 0xC0 }
  - { offset: 0x1F651, size: 0x8, addend: 0x0, symName: __RNvNvNtNtCsieiGu2EXtoJ_4core4char7convert18from_u32_unchecked18precondition_checkCs1AvS6iYDQZt_18build_script_build, symObjAddr: 0x2B80, symBinAddr: 0x10000E290, symSize: 0xF0 }
  - { offset: 0x1FB8D, size: 0x8, addend: 0x0, symName: __RNvXNvXsd_NtNtCslJiobkLta79_5alloc3vec9into_iterINtB8_8IntoIterppENtNtNtCsieiGu2EXtoJ_4core3ops4drop4Drop4dropINtB2_9DropGuardNtCs1AvS6iYDQZt_18build_script_build10VersionCfgNtNtBc_5alloc6GlobalEB12_4dropB22_, symObjAddr: 0x2D20, symBinAddr: 0x10000E430, symSize: 0x70 }
  - { offset: 0x1FCCB, size: 0x8, addend: 0x0, symName: __RNvXsd_NtNtCslJiobkLta79_5alloc3vec9into_iterINtB5_8IntoIterNtCs1AvS6iYDQZt_18build_script_build10VersionCfgENtNtNtCsieiGu2EXtoJ_4core3ops4drop4Drop4dropBY_, symObjAddr: 0x3900, symBinAddr: 0x10000F010, symSize: 0x90 }
  - { offset: 0x1FD6C, size: 0x8, addend: 0x0, symName: __RNvXs3_NtNtCslJiobkLta79_5alloc3vec9into_iterINtB5_8IntoIterNtCs1AvS6iYDQZt_18build_script_build10VersionCfgENtNtNtNtCsieiGu2EXtoJ_4core4iter6traits8iterator8Iterator4nextBY_, symObjAddr: 0x3040, symBinAddr: 0x10000E750, symSize: 0x100 }
  - { offset: 0x1FECA, size: 0x8, addend: 0x0, symName: __RNvXs3_NtNtCslJiobkLta79_5alloc3vec9into_iterINtB5_8IntoIterNtCs1AvS6iYDQZt_18build_script_build10VersionCfgENtNtNtNtCsieiGu2EXtoJ_4core4iter6traits8iterator8Iterator9size_hintBY_, symObjAddr: 0x3140, symBinAddr: 0x10000E850, symSize: 0x60 }
  - { offset: 0x20524, size: 0x8, addend: 0x0, symName: __RINvNtNtNtCslJiobkLta79_5alloc11collections5btree3mem7replaceINtNtB4_4node6HandleINtB10_7NodeRefNtNtB10_6marker5DyingNtNtNtCsHUR1vrdMJt_3std3ffi6os_str8OsStringINtNtCsieiGu2EXtoJ_4core6option6OptionB1R_ENtB1y_4LeafENtB1y_4EdgeEIBY_IB1i_B1w_B1R_B2y_NtB1y_14LeafOrInternalENtB1y_2KVENCINvMsm_NtB4_8navigateBX_27deallocating_next_uncheckedNtNtB8_5alloc6GlobalE0ECs1AvS6iYDQZt_18build_script_build, symObjAddr: 0x1A20, symBinAddr: 0x10000D140, symSize: 0x110 }
  - { offset: 0x20620, size: 0x8, addend: 0x0, symName: __RNvXNvNtNtNtCslJiobkLta79_5alloc11collections5btree3mem7replaceNtB2_10PanicGuardNtNtNtCsieiGu2EXtoJ_4core3ops4drop4Drop4dropCs1AvS6iYDQZt_18build_script_build, symObjAddr: 0x2D10, symBinAddr: 0x10000E420, symSize: 0x10 }
  - { offset: 0x207C1, size: 0x8, addend: 0x0, symName: __RNvXs6_NtCslJiobkLta79_5alloc5boxedINtB5_3BoxDINtNtNtCsieiGu2EXtoJ_4core3ops8function5FnMutuEp6OutputINtNtBP_6result6ResultuNtNtNtCsHUR1vrdMJt_3std2io5error5ErrorENtNtBP_6marker4SyncNtB2D_4SendEL_ENtNtBN_4drop4Drop4dropCs1AvS6iYDQZt_18build_script_build, symObjAddr: 0x3340, symBinAddr: 0x10000EA50, symSize: 0xC0 }
  - { offset: 0x208FE, size: 0x8, addend: 0x0, symName: __RNvXs6_NtCslJiobkLta79_5alloc5boxedINtB5_3BoxDNtNtCsieiGu2EXtoJ_4core5error5ErrorNtNtBM_6marker4SyncNtB1j_4SendEL_ENtNtNtBM_3ops4drop4Drop4dropCs1AvS6iYDQZt_18build_script_build, symObjAddr: 0x3400, symBinAddr: 0x10000EB10, symSize: 0xC0 }
  - { offset: 0x20A3B, size: 0x8, addend: 0x0, symName: __RNvXs6_NtCslJiobkLta79_5alloc5boxedINtB5_3BoxNtNtNtCsHUR1vrdMJt_3std2io5error6CustomENtNtNtCsieiGu2EXtoJ_4core3ops4drop4Drop4dropCs1AvS6iYDQZt_18build_script_build, symObjAddr: 0x34C0, symBinAddr: 0x10000EBD0, symSize: 0xB0 }
  - { offset: 0x20B76, size: 0x8, addend: 0x0, symName: __RNvXs6_NtCslJiobkLta79_5alloc5boxedINtB5_3BoxShENtNtNtCsieiGu2EXtoJ_4core3ops4drop4Drop4dropCs1AvS6iYDQZt_18build_script_build, symObjAddr: 0x3570, symBinAddr: 0x10000EC80, symSize: 0xC0 }
  - { offset: 0x20CB3, size: 0x8, addend: 0x0, symName: __RNvXs6_NtCslJiobkLta79_5alloc5boxedINtB5_3BoxSmENtNtNtCsieiGu2EXtoJ_4core3ops4drop4Drop4dropCs1AvS6iYDQZt_18build_script_build, symObjAddr: 0x3630, symBinAddr: 0x10000ED40, symSize: 0xC0 }
  - { offset: 0x20E2A, size: 0x8, addend: 0x0, symName: __RINvMNtNtCsieiGu2EXtoJ_4core3fmt2rtNtB3_8Argument11new_displayINtNtCslJiobkLta79_5alloc6borrow3CoweEECs1AvS6iYDQZt_18build_script_build, symObjAddr: 0x5B0, symBinAddr: 0x10000BD70, symSize: 0x30 }
  - { offset: 0x20E62, size: 0x8, addend: 0x0, symName: __RINvMNtNtCsieiGu2EXtoJ_4core3fmt2rtNtB3_8Argument11new_displayNtNtCsHUR1vrdMJt_3std7process10ExitStatusECs1AvS6iYDQZt_18build_script_build, symObjAddr: 0x5E0, symBinAddr: 0x10000BDA0, symSize: 0x30 }
  - { offset: 0x20E9A, size: 0x8, addend: 0x0, symName: __RINvMNtNtCsieiGu2EXtoJ_4core3fmt2rtNtB3_8Argument11new_displayNtNtCslJiobkLta79_5alloc6string6StringECs1AvS6iYDQZt_18build_script_build, symObjAddr: 0x610, symBinAddr: 0x10000BDD0, symSize: 0x30 }
  - { offset: 0x20ED2, size: 0x8, addend: 0x0, symName: __RINvMNtNtCsieiGu2EXtoJ_4core3fmt2rtNtB3_8Argument11new_displayReECs1AvS6iYDQZt_18build_script_build, symObjAddr: 0x640, symBinAddr: 0x10000BE00, symSize: 0x30 }
  - { offset: 0x20F0A, size: 0x8, addend: 0x0, symName: __RINvMNtNtCsieiGu2EXtoJ_4core3fmt2rtNtB3_8Argument11new_displayjECs1AvS6iYDQZt_18build_script_build, symObjAddr: 0x670, symBinAddr: 0x10000BE30, symSize: 0x30 }
  - { offset: 0x21081, size: 0x8, addend: 0x0, symName: __RINvMsk_NtCsHUR1vrdMJt_3std7processNtB6_7Command3argReECs1AvS6iYDQZt_18build_script_build, symObjAddr: 0x6A0, symBinAddr: 0x10000BE60, symSize: 0x60 }
  - { offset: 0x210BC, size: 0x8, addend: 0x0, symName: __RINvMsk_NtCsHUR1vrdMJt_3std7processNtB6_7Command3newNtNtNtB8_3ffi6os_str8OsStringECs1AvS6iYDQZt_18build_script_build, symObjAddr: 0x700, symBinAddr: 0x10000BEC0, symSize: 0xC0 }
  - { offset: 0x2145E, size: 0x8, addend: 0x0, symName: __RNvMNtCsieiGu2EXtoJ_4core6resultINtB2_6ResultNtNtCsHUR1vrdMJt_3std7process6OutputNtNtNtBL_2io5error5ErrorE6expectCs1AvS6iYDQZt_18build_script_build, symObjAddr: 0x1E50, symBinAddr: 0x10000D570, symSize: 0xC0 }
  - { offset: 0x214C1, size: 0x8, addend: 0x0, symName: __RNvMNtCsieiGu2EXtoJ_4core6resultINtB2_6ResultNtNtCslJiobkLta79_5alloc6string6StringNtNtNtCsHUR1vrdMJt_3std2io5error5ErrorE6expectCs1AvS6iYDQZt_18build_script_build, symObjAddr: 0x1F10, symBinAddr: 0x10000D630, symSize: 0xD0 }
  - { offset: 0x21524, size: 0x8, addend: 0x0, symName: __RNvMNtCsieiGu2EXtoJ_4core6resultINtB2_6ResultReNtNtNtB4_3str5error9Utf8ErrorE6expectCs1AvS6iYDQZt_18build_script_build, symObjAddr: 0x1FE0, symBinAddr: 0x10000D700, symSize: 0x90 }
  - { offset: 0x21587, size: 0x8, addend: 0x0, symName: __RNvMNtCsieiGu2EXtoJ_4core6resultINtB2_6ResulthNtNtNtB4_3num5error15TryFromIntErrorE6expectCs1AvS6iYDQZt_18build_script_build, symObjAddr: 0x2070, symBinAddr: 0x10000D790, symSize: 0x80 }
  - { offset: 0x215E9, size: 0x8, addend: 0x0, symName: __RNvMNtCsieiGu2EXtoJ_4core6resultINtB2_6ResultjNtNtNtB4_3num5error13ParseIntErrorE6expectCs1AvS6iYDQZt_18build_script_build, symObjAddr: 0x20F0, symBinAddr: 0x10000D810, symSize: 0x90 }
  - { offset: 0x216E3, size: 0x8, addend: 0x0, symName: __RNvMs1_NtNtCsieiGu2EXtoJ_4core3ptr8non_nullINtB5_7NonNullNtCs1AvS6iYDQZt_18build_script_build10VersionCfgE20offset_from_unsignedBV_, symObjAddr: 0x2180, symBinAddr: 0x10000D8A0, symSize: 0x70 }
  - { offset: 0x217D3, size: 0x8, addend: 0x0, symName: __RNvMs1_NtNtCsieiGu2EXtoJ_4core3ptr8non_nullINtB5_7NonNullhE20offset_from_unsignedCs1AvS6iYDQZt_18build_script_build, symObjAddr: 0x21F0, symBinAddr: 0x10000D910, symSize: 0x60 }
  - { offset: 0x21AC7, size: 0x8, addend: 0x0, symName: __RNvMs4_NtNtNtCsieiGu2EXtoJ_4core9core_simd5masks9mask_implINtB5_4MaskaKj10_E18to_bitmask_integerCs1AvS6iYDQZt_18build_script_build, symObjAddr: 0x2250, symBinAddr: 0x10000D970, symSize: 0x110 }
  - { offset: 0x21DE8, size: 0x8, addend: 0x0, symName: __RNvMsI_NtCsHUR1vrdMJt_3std7processNtB5_10ExitStatus7successCs1AvS6iYDQZt_18build_script_build, symObjAddr: 0x2360, symBinAddr: 0x10000DA80, symSize: 0x60 }
  - { offset: 0x2293C, size: 0x8, addend: 0x0, symName: __RINvMs_NtNtCsieiGu2EXtoJ_4core3fmt2rtNtB7_9Arguments6new_v1Kj1_KBW_ECs1AvS6iYDQZt_18build_script_build, symObjAddr: 0x0, symBinAddr: 0x10000F310, symSize: 0x40 }
  - { offset: 0x229C6, size: 0x8, addend: 0x0, symName: __RNvYNtCs1AvS6iYDQZt_18build_script_build7VersionNtNtCsieiGu2EXtoJ_4core3cmp10PartialOrd2geB4_, symObjAddr: 0x3AD0, symBinAddr: 0x100012DE0, symSize: 0x50 }
  - { offset: 0x22A88, size: 0x8, addend: 0x0, symName: __RNvYNtCs1AvS6iYDQZt_18build_script_build7VersionNtNtCsieiGu2EXtoJ_4core3cmp10PartialOrd2ltB4_, symObjAddr: 0x3B20, symBinAddr: 0x100012E30, symSize: 0x50 }
  - { offset: 0x22D8F, size: 0x8, addend: 0x0, symName: __RNvXs19_NtCsieiGu2EXtoJ_4core3fmtRReNtB6_5Debug3fmtCs1AvS6iYDQZt_18build_script_build, symObjAddr: 0x3190, symBinAddr: 0x1000124A0, symSize: 0x20 }
  - { offset: 0x23C75, size: 0x8, addend: 0x0, symName: __RNCINvNtNtNtCsieiGu2EXtoJ_4core4iter8adapters3map8map_foldRhhuNCNvNtCslJiobkLta79_5alloc3str13replace_ascii0NCINvNvNtNtNtB8_6traits8iterator8Iterator8for_each4callhNCINvMsi_NtB14_3vecINtB2L_3VechE14extend_trustedINtB4_3MapINtNtNtBa_5slice4iter4IterhEBY_EE0E0E0Cs1AvS6iYDQZt_18build_script_build, symObjAddr: 0xA70, symBinAddr: 0x10000FD80, symSize: 0x70 }
  - { offset: 0x23D00, size: 0x8, addend: 0x0, symName: __RINvXs0_NtNtNtCsieiGu2EXtoJ_4core4iter8adapters3mapINtB6_3MapINtNtNtBc_5slice4iter4IterhENCNvNtCslJiobkLta79_5alloc3str13replace_ascii0ENtNtNtBa_6traits8iterator8Iterator4folduNCINvNvB2a_8for_each4callhNCINvMsi_NtB1v_3vecINtB3n_3VechE14extend_trustedBN_E0E0ECs1AvS6iYDQZt_18build_script_build, symObjAddr: 0x140, symBinAddr: 0x10000F450, symSize: 0x60 }
  - { offset: 0x23D99, size: 0x8, addend: 0x0, symName: __RNvXs0_NtNtNtCsieiGu2EXtoJ_4core4iter8adapters3mapINtB5_3MapINtNtNtBb_3str4iter14SplitInclusivecENtB11_8LinesMapENtNtNtB9_6traits8iterator8Iterator4nextCs1AvS6iYDQZt_18build_script_build, symObjAddr: 0x30D0, symBinAddr: 0x1000123E0, symSize: 0x90 }
  - { offset: 0x23E45, size: 0x8, addend: 0x0, symName: __RNvXs0_NtNtNtCsieiGu2EXtoJ_4core4iter8adapters3mapINtB5_3MapINtNtNtBb_5slice4iter4IterhENCNvNtCslJiobkLta79_5alloc3str13replace_ascii0ENtNtNtB9_6traits8iterator8Iterator9size_hintCs1AvS6iYDQZt_18build_script_build, symObjAddr: 0x3160, symBinAddr: 0x100012470, symSize: 0x30 }
  - { offset: 0x23FA1, size: 0x8, addend: 0x0, symName: __RNvYINtNtNtCsieiGu2EXtoJ_4core5slice4iter4IterhENtNtNtNtB9_4iter8adapters3zip27TrustedRandomAccessNoCoerce4sizeCs1AvS6iYDQZt_18build_script_build, symObjAddr: 0x3AA0, symBinAddr: 0x100012DB0, symSize: 0x30 }
  - { offset: 0x2410B, size: 0x8, addend: 0x0, symName: __RINvYINtNtNtCsieiGu2EXtoJ_4core3str4iter5SplitNtB8_12IsWhitespaceENtNtNtNtBa_4iter6traits8iterator8Iterator4findQNtB8_10IsNotEmptyECs1AvS6iYDQZt_18build_script_build, symObjAddr: 0x330, symBinAddr: 0x10000F640, symSize: 0x90 }
  - { offset: 0x2418A, size: 0x8, addend: 0x0, symName: __RINvYINtNtNtCsieiGu2EXtoJ_4core3str4iter5SplitNtB8_12IsWhitespaceENtNtNtNtBa_4iter6traits8iterator8Iterator8try_folduNCINvNvB12_4find5checkReQNtB8_10IsNotEmptyE0INtNtNtBa_3ops12control_flow11ControlFlowB2d_EECs1AvS6iYDQZt_18build_script_build, symObjAddr: 0x3C0, symBinAddr: 0x10000F6D0, symSize: 0x1A0 }
  - { offset: 0x2423D, size: 0x8, addend: 0x0, symName: __RINvYINtNtNtCsieiGu2EXtoJ_4core5slice4iter4IterhENtNtNtNtBa_4iter6traits8iterator8Iterator3zipRShECs1AvS6iYDQZt_18build_script_build, symObjAddr: 0x560, symBinAddr: 0x10000F870, symSize: 0xD0 }
  - { offset: 0x242B3, size: 0x8, addend: 0x0, symName: __RINvYINtNtNtCsieiGu2EXtoJ_4core5slice4iter7WindowshENtNtNtNtBa_4iter6traits8iterator8Iterator8try_folduNCINvNvBO_3any5checkRShNCNvNtNtBa_3str7pattern13simd_containss_0E0INtNtNtBa_3ops12control_flow11ControlFlowuEECs1AvS6iYDQZt_18build_script_build, symObjAddr: 0x630, symBinAddr: 0x10000F940, symSize: 0x110 }
  - { offset: 0x24366, size: 0x8, addend: 0x0, symName: __RINvYINtNtNtNtCsieiGu2EXtoJ_4core4iter8adapters3map3MapINtNtNtBc_5slice4iter4IterhENCNvNtCslJiobkLta79_5alloc3str13replace_ascii0ENtNtNtBa_6traits8iterator8Iterator7collectINtNtB1p_3vec3VechEECs1AvS6iYDQZt_18build_script_build, symObjAddr: 0x740, symBinAddr: 0x10000FA50, symSize: 0x70 }
  - { offset: 0x243FC, size: 0x8, addend: 0x0, symName: __RINvYINtNtNtNtCsieiGu2EXtoJ_4core4iter8adapters3map3MapINtNtNtBc_5slice4iter4IterhENCNvNtCslJiobkLta79_5alloc3str13replace_ascii0ENtNtNtBa_6traits8iterator8Iterator8for_eachNCINvMsi_NtB1p_3vecINtB2U_3VechE14extend_trustedB3_E0ECs1AvS6iYDQZt_18build_script_build, symObjAddr: 0x7B0, symBinAddr: 0x10000FAC0, symSize: 0x30 }
  - { offset: 0x24467, size: 0x8, addend: 0x0, symName: __RINvYNtNtNtCsieiGu2EXtoJ_4core3str4iter5LinesNtNtNtNtB9_4iter6traits8iterator8Iterator10filter_mapNtCs1AvS6iYDQZt_18build_script_build10VersionCfgNCNvB1A_34parse_version_cfgs_from_cargo_toml0EB1A_, symObjAddr: 0x7E0, symBinAddr: 0x10000FAF0, symSize: 0x30 }
  - { offset: 0x244D5, size: 0x8, addend: 0x0, symName: __RINvYNtNtNtCsieiGu2EXtoJ_4core3str4iter5LinesNtNtNtNtB9_4iter6traits8iterator8Iterator8find_mapNtCs1AvS6iYDQZt_18build_script_build10VersionCfgQNCNvB1x_34parse_version_cfgs_from_cargo_toml0EB1x_, symObjAddr: 0x810, symBinAddr: 0x10000FB20, symSize: 0xC0 }
  - { offset: 0x2455E, size: 0x8, addend: 0x0, symName: __RINvYNtNtNtCsieiGu2EXtoJ_4core3str4iter5LinesNtNtNtNtB9_4iter6traits8iterator8Iterator8try_folduNCINvNvBH_8find_map5checkReNtCs1AvS6iYDQZt_18build_script_build10VersionCfgQNCNvB1Z_34parse_version_cfgs_from_cargo_toml0E0INtNtNtB9_3ops12control_flow11ControlFlowB1X_EEB1Z_, symObjAddr: 0x8D0, symBinAddr: 0x10000FBE0, symSize: 0x1A0 }
  - { offset: 0x2469D, size: 0x8, addend: 0x0, symName: __RNvXNtNtNtCsieiGu2EXtoJ_4core4iter6traits7collectINtNtNtB6_8adapters3map3MapINtNtNtB8_5slice4iter4IterhENCNvNtCslJiobkLta79_5alloc3str13replace_ascii0ENtB2_12IntoIterator9into_iterCs1AvS6iYDQZt_18build_script_build, symObjAddr: 0x30A0, symBinAddr: 0x1000123B0, symSize: 0x30 }
  - { offset: 0x24837, size: 0x8, addend: 0x0, symName: __RINvXs2E_NtNtCsieiGu2EXtoJ_4core5slice4iterINtB7_4IterhENtNtNtNtBb_4iter6traits8iterator8Iterator4folduNCINvNtNtBY_8adapters3map8map_foldRhhuNCNvNtCslJiobkLta79_5alloc3str13replace_ascii0NCINvNvBS_8for_each4callhNCINvMsi_NtB2l_3vecINtB3x_3VechE14extend_trustedINtB1I_3MapBF_B2f_EE0E0E0ECs1AvS6iYDQZt_18build_script_build, symObjAddr: 0x1A0, symBinAddr: 0x10000F4B0, symSize: 0x190 }
  - { offset: 0x24978, size: 0x8, addend: 0x0, symName: __RNvXs2E_NtNtCsieiGu2EXtoJ_4core5slice4iterINtB6_4IterNtCs1AvS6iYDQZt_18build_script_build10VersionCfgENtNtNtNtBa_4iter6traits8iterator8Iterator4nextBR_, symObjAddr: 0x3210, symBinAddr: 0x100012520, symSize: 0x90 }
  - { offset: 0x24A99, size: 0x8, addend: 0x0, symName: __RNvXs2E_NtNtCsieiGu2EXtoJ_4core5slice4iterINtB6_4IterhENtNtNtNtBa_4iter6traits8iterator8Iterator24___iterator_get_uncheckedCs1AvS6iYDQZt_18build_script_build, symObjAddr: 0x32A0, symBinAddr: 0x1000125B0, symSize: 0x20 }
  - { offset: 0x24AF4, size: 0x8, addend: 0x0, symName: __RNvXs2E_NtNtCsieiGu2EXtoJ_4core5slice4iterINtB6_4IterhENtNtNtNtBa_4iter6traits8iterator8Iterator4nextCs1AvS6iYDQZt_18build_script_build, symObjAddr: 0x32C0, symBinAddr: 0x1000125D0, symSize: 0x90 }
  - { offset: 0x24C15, size: 0x8, addend: 0x0, symName: __RNvXs2E_NtNtCsieiGu2EXtoJ_4core5slice4iterINtB6_4IterhENtNtNtNtBa_4iter6traits8iterator8Iterator9size_hintCs1AvS6iYDQZt_18build_script_build, symObjAddr: 0x3350, symBinAddr: 0x100012660, symSize: 0x60 }
  - { offset: 0x24D1F, size: 0x8, addend: 0x0, symName: __RNvXs2F_NtNtCsieiGu2EXtoJ_4core5slice4iterINtB6_4IterhENtNtNtNtBa_4iter6traits12double_ended19DoubleEndedIterator9next_backCs1AvS6iYDQZt_18build_script_build, symObjAddr: 0x33B0, symBinAddr: 0x1000126C0, symSize: 0x100 }
  - { offset: 0x24ED7, size: 0x8, addend: 0x0, symName: __RNvXsY_NtNtCsieiGu2EXtoJ_4core5slice4iterINtB5_7WindowshENtNtNtNtB9_4iter6traits8iterator8Iterator4nextCs1AvS6iYDQZt_18build_script_build, symObjAddr: 0x3730, symBinAddr: 0x100012A40, symSize: 0x150 }
  - { offset: 0x2501E, size: 0x8, addend: 0x0, symName: __RNvXs_NtNtCsieiGu2EXtoJ_4core5slice4iterRShNtNtNtNtB8_4iter6traits7collect12IntoIterator9into_iterCs1AvS6iYDQZt_18build_script_build, symObjAddr: 0x3880, symBinAddr: 0x100012B90, symSize: 0x50 }
  - { offset: 0x2577F, size: 0x8, addend: 0x0, symName: __RNvXs1_NtNtNtCsieiGu2EXtoJ_4core3ops8function5implsQNCNvCs1AvS6iYDQZt_18build_script_build34parse_version_cfgs_from_cargo_toml0INtB7_5FnMutTReEE8call_mutBS_, symObjAddr: 0x31B0, symBinAddr: 0x1000124C0, symSize: 0x40 }
  - { offset: 0x25910, size: 0x8, addend: 0x0, symName: __RNCNvMsp_NtNtCsieiGu2EXtoJ_4core3str4iterINtB7_20MatchIndicesInternalcE4next0Cs1AvS6iYDQZt_18build_script_build, symObjAddr: 0x1310, symBinAddr: 0x100010620, symSize: 0xD0 }
  - { offset: 0x25C82, size: 0x8, addend: 0x0, symName: __RNvXs3_NtNtCsieiGu2EXtoJ_4core3str4iterNtB5_11CharIndicesNtNtNtNtB9_4iter6traits8iterator8Iterator4nextCs1AvS6iYDQZt_18build_script_build, symObjAddr: 0x3560, symBinAddr: 0x100012870, symSize: 0x110 }
  - { offset: 0x25E16, size: 0x8, addend: 0x0, symName: __RNvXsH_NtNtCsieiGu2EXtoJ_4core3str4iterINtB5_14SplitInclusivecENtNtNtNtB9_4iter6traits8iterator8Iterator4nextCs1AvS6iYDQZt_18build_script_build, symObjAddr: 0x3690, symBinAddr: 0x1000129A0, symSize: 0x20 }
  - { offset: 0x25E53, size: 0x8, addend: 0x0, symName: __RNvXsX_NtNtCsieiGu2EXtoJ_4core3str4iterINtB5_5SplitNCNvCs1AvS6iYDQZt_18build_script_build13rustc_version0ENtNtNtNtB9_4iter6traits8iterator8Iterator4nextBR_, symObjAddr: 0x36B0, symBinAddr: 0x1000129C0, symSize: 0x20 }
  - { offset: 0x25E8A, size: 0x8, addend: 0x0, symName: __RNvXsX_NtNtCsieiGu2EXtoJ_4core3str4iterINtB5_5SplitNtB7_12IsWhitespaceENtNtNtNtB9_4iter6traits8iterator8Iterator4nextCs1AvS6iYDQZt_18build_script_build, symObjAddr: 0x36D0, symBinAddr: 0x1000129E0, symSize: 0x20 }
  - { offset: 0x25EC1, size: 0x8, addend: 0x0, symName: __RNvXsX_NtNtCsieiGu2EXtoJ_4core3str4iterINtB5_5SplitReENtNtNtNtB9_4iter6traits8iterator8Iterator4nextCs1AvS6iYDQZt_18build_script_build, symObjAddr: 0x36F0, symBinAddr: 0x100012A00, symSize: 0x20 }
  - { offset: 0x25EF8, size: 0x8, addend: 0x0, symName: __RNvXsX_NtNtCsieiGu2EXtoJ_4core3str4iterINtB5_5SplitcENtNtNtNtB9_4iter6traits8iterator8Iterator4nextCs1AvS6iYDQZt_18build_script_build, symObjAddr: 0x3710, symBinAddr: 0x100012A20, symSize: 0x20 }
  - { offset: 0x25F35, size: 0x8, addend: 0x0, symName: __RNvXss_NtNtCsieiGu2EXtoJ_4core3str4iterNtB5_5LinesNtNtNtNtB9_4iter6traits8iterator8Iterator4nextCs1AvS6iYDQZt_18build_script_build, symObjAddr: 0x3A20, symBinAddr: 0x100012D30, symSize: 0x20 }
  - { offset: 0x25F63, size: 0x8, addend: 0x0, symName: __RNvXss_NtNtCsieiGu2EXtoJ_4core3str4iterNtB5_5LinesNtNtNtNtB9_4iter6traits8iterator8Iterator9size_hintCs1AvS6iYDQZt_18build_script_build, symObjAddr: 0x3A40, symBinAddr: 0x100012D50, symSize: 0x30 }
  - { offset: 0x25FDF, size: 0x8, addend: 0x0, symName: __RNvXsz_NtNtCsieiGu2EXtoJ_4core3str4iterNtB5_15SplitWhitespaceNtNtNtNtB9_4iter6traits8iterator8Iterator4nextCs1AvS6iYDQZt_18build_script_build, symObjAddr: 0x3A70, symBinAddr: 0x100012D80, symSize: 0x30 }
  - { offset: 0x262D6, size: 0x8, addend: 0x0, symName: __RNvXs3_NtNtCsieiGu2EXtoJ_4core3str7patternNCNvCs1AvS6iYDQZt_18build_script_build13rustc_version0NtB5_11MultiCharEq7matchesBI_, symObjAddr: 0x3670, symBinAddr: 0x100012980, symSize: 0x20 }
  - { offset: 0x26322, size: 0x8, addend: 0x0, symName: __RNvXsr_NtNtCsieiGu2EXtoJ_4core3str7patternNCNvCs1AvS6iYDQZt_18build_script_build13rustc_version0NtB5_7Pattern13into_searcherBI_, symObjAddr: 0x39C0, symBinAddr: 0x100012CD0, symSize: 0x40 }
  - { offset: 0x2688F, size: 0x8, addend: 0x0, symName: __RNvNvNtCsieiGu2EXtoJ_4core4hint16assert_unchecked18precondition_checkCs1AvS6iYDQZt_18build_script_build, symObjAddr: 0x2F80, symBinAddr: 0x100012290, symSize: 0xA0 }
  - { offset: 0x268EF, size: 0x8, addend: 0x0, symName: __RNvNvNtCsieiGu2EXtoJ_4core4hint21unreachable_unchecked18precondition_checkCs1AvS6iYDQZt_18build_script_build, symObjAddr: 0x3020, symBinAddr: 0x100012330, symSize: 0x80 }
  - { offset: 0x26B64, size: 0x8, addend: 0x0, symName: __RINvMs_NtNtCsieiGu2EXtoJ_4core3fmt2rtNtB7_9Arguments6new_v1Kj1_KBW_ECs1AvS6iYDQZt_18build_script_build, symObjAddr: 0x0, symBinAddr: 0x10000F310, symSize: 0x40 }
  - { offset: 0x26BC8, size: 0x8, addend: 0x0, symName: __RINvMs_NtNtCsieiGu2EXtoJ_4core3fmt2rtNtB7_9Arguments6new_v1Kj2_KBW_ECs1AvS6iYDQZt_18build_script_build, symObjAddr: 0x40, symBinAddr: 0x10000F350, symSize: 0x40 }
  - { offset: 0x26BF8, size: 0x8, addend: 0x0, symName: __RINvMs_NtNtCsieiGu2EXtoJ_4core3fmt2rtNtB7_9Arguments6new_v1Kj2_Kj1_ECs1AvS6iYDQZt_18build_script_build, symObjAddr: 0x80, symBinAddr: 0x10000F390, symSize: 0x40 }
  - { offset: 0x26C5C, size: 0x8, addend: 0x0, symName: __RINvMs_NtNtCsieiGu2EXtoJ_4core3fmt2rtNtB7_9Arguments6new_v1Kj4_Kj3_ECs1AvS6iYDQZt_18build_script_build, symObjAddr: 0xC0, symBinAddr: 0x10000F3D0, symSize: 0x40 }
  - { offset: 0x26C8C, size: 0x8, addend: 0x0, symName: __RINvMs_NtNtCsieiGu2EXtoJ_4core3fmt2rtNtB7_9Arguments9new_constKj1_ECs1AvS6iYDQZt_18build_script_build, symObjAddr: 0x100, symBinAddr: 0x10000F410, symSize: 0x40 }
  - { offset: 0x26EB3, size: 0x8, addend: 0x0, symName: __RNvXss_NtCslJiobkLta79_5alloc6stringNtB5_6StringNtNtNtCsieiGu2EXtoJ_4core3ops5deref5Deref5derefCs1AvS6iYDQZt_18build_script_build, symObjAddr: 0x3A00, symBinAddr: 0x100012D10, symSize: 0x20 }
  - { offset: 0x26EE7, size: 0x8, addend: 0x0, symName: __RNvXsl_NtCslJiobkLta79_5alloc6stringNtB5_6StringNtNtCsieiGu2EXtoJ_4core3fmt7Display3fmtCs1AvS6iYDQZt_18build_script_build, symObjAddr: 0x3950, symBinAddr: 0x100012C60, symSize: 0x70 }
  - { offset: 0x2717A, size: 0x8, addend: 0x0, symName: __RNvXsb_NtCslJiobkLta79_5alloc6borrowINtB5_3CoweENtNtCsieiGu2EXtoJ_4core3fmt7Display3fmtCs1AvS6iYDQZt_18build_script_build, symObjAddr: 0x38D0, symBinAddr: 0x100012BE0, symSize: 0x80 }
  - { offset: 0x273A0, size: 0x8, addend: 0x0, symName: __RNCNvCs1AvS6iYDQZt_18build_script_build34parse_version_cfgs_from_cargo_toml0B3_, symObjAddr: 0xB30, symBinAddr: 0x10000FE40, symSize: 0x7E0 }
  - { offset: 0x2766B, size: 0x8, addend: 0x0, symName: __RNCNvCs1AvS6iYDQZt_18build_script_build13rustc_version0B3_, symObjAddr: 0xAE0, symBinAddr: 0x10000FDF0, symSize: 0x50 }
  - { offset: 0x276A9, size: 0x8, addend: 0x0, symName: __RNvCs1AvS6iYDQZt_18build_script_build13rustc_version, symObjAddr: 0x13E0, symBinAddr: 0x1000106F0, symSize: 0x670 }
  - { offset: 0x2784E, size: 0x8, addend: 0x0, symName: __RNvCs1AvS6iYDQZt_18build_script_build34parse_version_cfgs_from_cargo_toml, symObjAddr: 0x1A50, symBinAddr: 0x100010D60, symSize: 0x3B0 }
  - { offset: 0x27951, size: 0x8, addend: 0x0, symName: __RNvCs1AvS6iYDQZt_18build_script_build4main, symObjAddr: 0x1E00, symBinAddr: 0x100011110, symSize: 0x590 }
  - { offset: 0x27AA8, size: 0x8, addend: 0x0, symName: __RNvXs2_Cs1AvS6iYDQZt_18build_script_buildNtB5_7VersionNtNtCsieiGu2EXtoJ_4core3cmp10PartialOrd11partial_cmpB5_, symObjAddr: 0x34B0, symBinAddr: 0x1000127C0, symSize: 0xB0 }
  - { offset: 0x27C8C, size: 0x8, addend: 0x0, symName: __RNvMNtCslJiobkLta79_5alloc6stringNtB2_6String6as_strCs1AvS6iYDQZt_18build_script_build, symObjAddr: 0x2390, symBinAddr: 0x1000116A0, symSize: 0x60 }
  - { offset: 0x27DA2, size: 0x8, addend: 0x0, symName: __RNvMsf_NtNtCsieiGu2EXtoJ_4core3str4iterINtB5_13SplitInternalNCNvCs1AvS6iYDQZt_18build_script_build13rustc_version0E4nextB10_, symObjAddr: 0x23F0, symBinAddr: 0x100011700, symSize: 0x180 }
  - { offset: 0x27EE6, size: 0x8, addend: 0x0, symName: __RNvMsf_NtNtCsieiGu2EXtoJ_4core3str4iterINtB5_13SplitInternalNCNvCs1AvS6iYDQZt_18build_script_build13rustc_version0E7get_endB10_, symObjAddr: 0x2570, symBinAddr: 0x100011880, symSize: 0x110 }
  - { offset: 0x27FF9, size: 0x8, addend: 0x0, symName: __RNvMsf_NtNtCsieiGu2EXtoJ_4core3str4iterINtB5_13SplitInternalNtB7_12IsWhitespaceE4nextCs1AvS6iYDQZt_18build_script_build, symObjAddr: 0x2680, symBinAddr: 0x100011990, symSize: 0x180 }
  - { offset: 0x2813D, size: 0x8, addend: 0x0, symName: __RNvMsf_NtNtCsieiGu2EXtoJ_4core3str4iterINtB5_13SplitInternalNtB7_12IsWhitespaceE7get_endCs1AvS6iYDQZt_18build_script_build, symObjAddr: 0x2800, symBinAddr: 0x100011B10, symSize: 0x110 }
  - { offset: 0x28250, size: 0x8, addend: 0x0, symName: __RNvMsf_NtNtCsieiGu2EXtoJ_4core3str4iterINtB5_13SplitInternalReE4nextCs1AvS6iYDQZt_18build_script_build, symObjAddr: 0x2910, symBinAddr: 0x100011C20, symSize: 0x170 }
  - { offset: 0x28394, size: 0x8, addend: 0x0, symName: __RNvMsf_NtNtCsieiGu2EXtoJ_4core3str4iterINtB5_13SplitInternalReE7get_endCs1AvS6iYDQZt_18build_script_build, symObjAddr: 0x2A80, symBinAddr: 0x100011D90, symSize: 0x110 }
  - { offset: 0x284A7, size: 0x8, addend: 0x0, symName: __RNvMsf_NtNtCsieiGu2EXtoJ_4core3str4iterINtB5_13SplitInternalcE14next_inclusiveCs1AvS6iYDQZt_18build_script_build, symObjAddr: 0x2B90, symBinAddr: 0x100011EA0, symSize: 0x160 }
  - { offset: 0x285DA, size: 0x8, addend: 0x0, symName: __RNvMsf_NtNtCsieiGu2EXtoJ_4core3str4iterINtB5_13SplitInternalcE4nextCs1AvS6iYDQZt_18build_script_build, symObjAddr: 0x2CF0, symBinAddr: 0x100012000, symSize: 0x180 }
  - { offset: 0x2871E, size: 0x8, addend: 0x0, symName: __RNvMsf_NtNtCsieiGu2EXtoJ_4core3str4iterINtB5_13SplitInternalcE7get_endCs1AvS6iYDQZt_18build_script_build, symObjAddr: 0x2E70, symBinAddr: 0x100012180, symSize: 0x110 }
  - { offset: 0x288C0, size: 0x8, addend: 0x0, symName: __RNvXs1p_NtCsHUR1vrdMJt_3std4patheINtNtCsieiGu2EXtoJ_4core7convert5AsRefNtB6_4PathE6as_refCs1AvS6iYDQZt_18build_script_build, symObjAddr: 0x31F0, symBinAddr: 0x100012500, symSize: 0x20 }
  - { offset: 0x29107, size: 0x8, addend: 0x0, symName: ___llvm_profile_get_magic, symObjAddr: 0x20, symBinAddr: 0x100012F10, symSize: 0x10 }
  - { offset: 0x29128, size: 0x8, addend: 0x0, symName: ___llvm_profile_get_num_padding_bytes, symObjAddr: 0x40, symBinAddr: 0x100012F20, symSize: 0x10 }
  - { offset: 0x29159, size: 0x8, addend: 0x0, symName: ___llvm_profile_get_version, symObjAddr: 0x50, symBinAddr: 0x100012F30, symSize: 0x10 }
  - { offset: 0x291CE, size: 0x8, addend: 0x0, symName: ___llvm_profile_is_continuous_mode_enabled, symObjAddr: 0x0, symBinAddr: 0x100012F40, symSize: 0x20 }
  - { offset: 0x291EB, size: 0x8, addend: 0x0, symName: _ContinuouslySyncProfile, symObjAddr: 0x40E0, symBinAddr: 0x100073BB0, symSize: 0x0 }
  - { offset: 0x2920D, size: 0x8, addend: 0x0, symName: _PageSize, symObjAddr: 0x40E4, symBinAddr: 0x100073BB4, symSize: 0x0 }
  - { offset: 0x2923B, size: 0x8, addend: 0x0, symName: ___llvm_profile_is_continuous_mode_enabled, symObjAddr: 0x0, symBinAddr: 0x100012F40, symSize: 0x20 }
  - { offset: 0x2925C, size: 0x8, addend: 0x0, symName: ___llvm_profile_enable_continuous_mode, symObjAddr: 0x20, symBinAddr: 0x100012F60, symSize: 0x10 }
  - { offset: 0x29279, size: 0x8, addend: 0x0, symName: ___llvm_profile_disable_continuous_mode, symObjAddr: 0x30, symBinAddr: 0x100012F70, symSize: 0x10 }
  - { offset: 0x29296, size: 0x8, addend: 0x0, symName: ___llvm_profile_set_page_size, symObjAddr: 0x40, symBinAddr: 0x100012F80, symSize: 0x10 }
  - { offset: 0x292C1, size: 0x8, addend: 0x0, symName: ___llvm_profile_get_size_for_buffer, symObjAddr: 0x50, symBinAddr: 0x100012F90, symSize: 0xD0 }
  - { offset: 0x2970F, size: 0x8, addend: 0x0, symName: ___llvm_profile_get_size_for_buffer_internal, symObjAddr: 0x120, symBinAddr: 0x100013060, symSize: 0x210 }
  - { offset: 0x29AB3, size: 0x8, addend: 0x0, symName: ___llvm_profile_get_num_data, symObjAddr: 0x330, symBinAddr: 0x100013270, symSize: 0x10 }
  - { offset: 0x29AEC, size: 0x8, addend: 0x0, symName: ___llvm_profile_get_data_size, symObjAddr: 0x340, symBinAddr: 0x100013280, symSize: 0x10 }
  - { offset: 0x29B18, size: 0x8, addend: 0x0, symName: ___llvm_profile_get_data_size, symObjAddr: 0x340, symBinAddr: 0x100013280, symSize: 0x10 }
  - { offset: 0x29B4E, size: 0x8, addend: 0x0, symName: ___llvm_profile_get_num_vtable, symObjAddr: 0x350, symBinAddr: 0x100013290, symSize: 0x20 }
  - { offset: 0x29BA4, size: 0x8, addend: 0x0, symName: ___llvm_profile_get_vtable_section_size, symObjAddr: 0x370, symBinAddr: 0x1000132B0, symSize: 0x10 }
  - { offset: 0x29BCB, size: 0x8, addend: 0x0, symName: ___llvm_profile_counter_entry_size, symObjAddr: 0x380, symBinAddr: 0x1000132C0, symSize: 0x20 }
  - { offset: 0x29BE3, size: 0x8, addend: 0x0, symName: ___llvm_profile_get_num_counters, symObjAddr: 0x3A0, symBinAddr: 0x1000132E0, symSize: 0x50 }
  - { offset: 0x29C38, size: 0x8, addend: 0x0, symName: ___llvm_profile_get_counters_size, symObjAddr: 0x3F0, symBinAddr: 0x100013330, symSize: 0x60 }
  - { offset: 0x29CCC, size: 0x8, addend: 0x0, symName: ___llvm_profile_get_num_bitmap_bytes, symObjAddr: 0x450, symBinAddr: 0x100013390, symSize: 0x10 }
  - { offset: 0x29CF3, size: 0x8, addend: 0x0, symName: ___llvm_profile_get_name_size, symObjAddr: 0x460, symBinAddr: 0x1000133A0, symSize: 0x10 }
  - { offset: 0x29D1A, size: 0x8, addend: 0x0, symName: ___llvm_profile_get_padding_sizes_for_counters, symObjAddr: 0x470, symBinAddr: 0x1000133B0, symSize: 0x1B0 }
  - { offset: 0x29E39, size: 0x8, addend: 0x0, symName: _initBufferWriter, symObjAddr: 0x620, symBinAddr: 0x100013560, symSize: 0x10 }
  - { offset: 0x29FA3, size: 0x8, addend: 0x0, symName: _lprofCurFilename, symObjAddr: 0xA6F8, symBinAddr: 0x100073BB8, symSize: 0x0 }
  - { offset: 0x2A0CC, size: 0x8, addend: 0x0, symName: _ProfileFile, symObjAddr: 0xA7C8, symBinAddr: 0x100073C88, symSize: 0x0 }
  - { offset: 0x2A2FA, size: 0x8, addend: 0x0, symName: _ProfileMergeRequested, symObjAddr: 0xA7D0, symBinAddr: 0x100073C90, symSize: 0x0 }
  - { offset: 0x2A49D, size: 0x8, addend: 0x0, symName: _getCurFilenameLength, symObjAddr: 0x180, symBinAddr: 0x100013570, symSize: 0xE0 }
  - { offset: 0x2A528, size: 0x8, addend: 0x0, symName: _getCurFilename, symObjAddr: 0x260, symBinAddr: 0x100013650, symSize: 0x380 }
  - { offset: 0x2A7B8, size: 0x8, addend: 0x0, symName: _parseAndSetFilename, symObjAddr: 0x6B0, symBinAddr: 0x1000139D0, symSize: 0x590 }
  - { offset: 0x2A9D6, size: 0x8, addend: 0x0, symName: ___llvm_profile_initialize, symObjAddr: 0xC40, symBinAddr: 0x100013F60, symSize: 0x90 }
  - { offset: 0x2AA52, size: 0x8, addend: 0x0, symName: ___llvm_profile_write_file, symObjAddr: 0xD30, symBinAddr: 0x100013FF0, symSize: 0x160 }
  - { offset: 0x2AC25, size: 0x8, addend: 0x0, symName: _writeFile, symObjAddr: 0xE90, symBinAddr: 0x100014150, symSize: 0x2B0 }
  - { offset: 0x2ADCE, size: 0x8, addend: 0x0, symName: _writeFileWithoutReturn, symObjAddr: 0x1190, symBinAddr: 0x100014400, symSize: 0x10 }
  - { offset: 0x2AE05, size: 0x8, addend: 0x0, symName: _getProfileFileSizeForMerging, symObjAddr: 0x13C0, symBinAddr: 0x100014410, symSize: 0xC0 }
  - { offset: 0x2AE4A, size: 0x8, addend: 0x0, symName: _mmapForContinuousMode, symObjAddr: 0x1480, symBinAddr: 0x1000144D0, symSize: 0x2D0 }
  - { offset: 0x2B009, size: 0x8, addend: 0x0, symName: _fileWriter, symObjAddr: 0x1750, symBinAddr: 0x1000147A0, symSize: 0x150 }
  - { offset: 0x2B0D9, size: 0x8, addend: 0x0, symName: _binaryIdsStringWriter, symObjAddr: 0x18A0, symBinAddr: 0x1000148F0, symSize: 0xA0 }
  - { offset: 0x2B17A, size: 0x8, addend: 0x0, symName: _truncateCurrentFile, symObjAddr: 0x1940, symBinAddr: 0x100014990, symSize: 0xB0 }
  - { offset: 0x2B220, size: 0x8, addend: 0x0, symName: _initializeProfileForContinuousMode, symObjAddr: 0x19F0, symBinAddr: 0x100014A40, symSize: 0x2C0 }
  - { offset: 0x2B40F, size: 0x8, addend: 0x0, symName: _createProfileDir, symObjAddr: 0x1CB0, symBinAddr: 0x100014D00, symSize: 0x7F }
  - { offset: 0x2B580, size: 0x8, addend: 0x0, symName: _lprofProfileDumped, symObjAddr: 0x0, symBinAddr: 0x100014D80, symSize: 0x10 }
  - { offset: 0x2B59D, size: 0x8, addend: 0x0, symName: _ProfileDumped, symObjAddr: 0x4E0, symBinAddr: 0x100073C94, symSize: 0x0 }
  - { offset: 0x2B5AD, size: 0x8, addend: 0x0, symName: _lprofProfileDumped, symObjAddr: 0x0, symBinAddr: 0x100014D80, symSize: 0x10 }
  - { offset: 0x2B5F5, size: 0x8, addend: 0x0, symName: _lprofGetLoadModuleSignature, symObjAddr: 0x0, symBinAddr: 0x100014D90, symSize: 0xE0 }
  - { offset: 0x2B622, size: 0x8, addend: 0x0, symName: _VPMergeHook, symObjAddr: 0x2AA0, symBinAddr: 0x100075E80, symSize: 0x0 }
  - { offset: 0x2B888, size: 0x8, addend: 0x0, symName: _lprofGetLoadModuleSignature, symObjAddr: 0x0, symBinAddr: 0x100014D90, symSize: 0xE0 }
  - { offset: 0x2B8FC, size: 0x8, addend: 0x0, symName: ___llvm_profile_check_compatibility, symObjAddr: 0xE0, symBinAddr: 0x100014E70, symSize: 0x190 }
  - { offset: 0x2B9DC, size: 0x8, addend: 0x0, symName: ___llvm_profile_merge_from_buffer, symObjAddr: 0x270, symBinAddr: 0x100015000, symSize: 0x4D8 }
  - { offset: 0x2BC3C, size: 0x8, addend: 0x0, symName: _lprofMergeValueProfData, symObjAddr: 0x0, symBinAddr: 0x1000154E0, symSize: 0xF1 }
  - { offset: 0x2BC4D, size: 0x8, addend: 0x0, symName: _lprofMergeValueProfData, symObjAddr: 0x0, symBinAddr: 0x1000154E0, symSize: 0xF1 }
  - { offset: 0x2BF12, size: 0x8, addend: 0x0, symName: ___llvm_profile_begin_data, symObjAddr: 0x0, symBinAddr: 0x1000155E0, symSize: 0x10 }
  - { offset: 0x2BF31, size: 0x8, addend: 0x0, symName: _CurrentVNode, symObjAddr: 0xE8, symBinAddr: 0x100073090, symSize: 0x0 }
  - { offset: 0x2BFAD, size: 0x8, addend: 0x0, symName: _EndVNode, symObjAddr: 0xF0, symBinAddr: 0x100073098, symSize: 0x0 }
  - { offset: 0x2BFB6, size: 0x8, addend: 0x0, symName: ___llvm_profile_begin_data, symObjAddr: 0x0, symBinAddr: 0x1000155E0, symSize: 0x10 }
  - { offset: 0x2BFD7, size: 0x8, addend: 0x0, symName: ___llvm_profile_end_data, symObjAddr: 0x10, symBinAddr: 0x1000155F0, symSize: 0x10 }
  - { offset: 0x2BFF8, size: 0x8, addend: 0x0, symName: ___llvm_profile_begin_names, symObjAddr: 0x20, symBinAddr: 0x100015600, symSize: 0x10 }
  - { offset: 0x2C019, size: 0x8, addend: 0x0, symName: ___llvm_profile_end_names, symObjAddr: 0x30, symBinAddr: 0x100015610, symSize: 0x10 }
  - { offset: 0x2C03A, size: 0x8, addend: 0x0, symName: ___llvm_profile_begin_counters, symObjAddr: 0x40, symBinAddr: 0x100015620, symSize: 0x10 }
  - { offset: 0x2C05B, size: 0x8, addend: 0x0, symName: ___llvm_profile_end_counters, symObjAddr: 0x50, symBinAddr: 0x100015630, symSize: 0x10 }
  - { offset: 0x2C07C, size: 0x8, addend: 0x0, symName: ___llvm_profile_begin_bitmap, symObjAddr: 0x60, symBinAddr: 0x100015640, symSize: 0x10 }
  - { offset: 0x2C09D, size: 0x8, addend: 0x0, symName: ___llvm_profile_end_bitmap, symObjAddr: 0x70, symBinAddr: 0x100015650, symSize: 0x10 }
  - { offset: 0x2C0BE, size: 0x8, addend: 0x0, symName: ___llvm_profile_begin_vtables, symObjAddr: 0x80, symBinAddr: 0x100015660, symSize: 0x10 }
  - { offset: 0x2C0DF, size: 0x8, addend: 0x0, symName: ___llvm_profile_end_vtables, symObjAddr: 0x90, symBinAddr: 0x100015670, symSize: 0x10 }
  - { offset: 0x2C100, size: 0x8, addend: 0x0, symName: ___llvm_profile_begin_vtabnames, symObjAddr: 0xA0, symBinAddr: 0x100015680, symSize: 0x10 }
  - { offset: 0x2C121, size: 0x8, addend: 0x0, symName: ___llvm_profile_end_vtabnames, symObjAddr: 0xB0, symBinAddr: 0x100015690, symSize: 0x10 }
  - { offset: 0x2C142, size: 0x8, addend: 0x0, symName: ___llvm_profile_begin_vnodes, symObjAddr: 0xC0, symBinAddr: 0x1000156A0, symSize: 0x10 }
  - { offset: 0x2C163, size: 0x8, addend: 0x0, symName: ___llvm_profile_end_vnodes, symObjAddr: 0xD0, symBinAddr: 0x1000156B0, symSize: 0x10 }
  - { offset: 0x2C184, size: 0x8, addend: 0x0, symName: ___llvm_write_binary_ids, symObjAddr: 0xE0, symBinAddr: 0x1000156C0, symSize: 0x3 }
  - { offset: 0x2C408, size: 0x8, addend: 0x0, symName: __GLOBAL__sub_I_InstrProfilingRuntime.cpp, symObjAddr: 0x0, symBinAddr: 0x1000156D0, symSize: 0x12 }
  - { offset: 0x2C42B, size: 0x8, addend: 0x0, symName: ___llvm_profile_runtime, symObjAddr: 0x580, symBinAddr: 0x100075E88, symSize: 0x0 }
  - { offset: 0x2C45C, size: 0x8, addend: 0x0, symName: __GLOBAL__sub_I_InstrProfilingRuntime.cpp, symObjAddr: 0x0, symBinAddr: 0x1000156D0, symSize: 0x12 }
  - { offset: 0x2C4D8, size: 0x8, addend: 0x0, symName: ___llvm_profile_recursive_mkdir, symObjAddr: 0x0, symBinAddr: 0x1000156F0, symSize: 0x40 }
  - { offset: 0x2C4F7, size: 0x8, addend: 0x0, symName: _lprofDirMode, symObjAddr: 0x6F8, symBinAddr: 0x1000730A0, symSize: 0x0 }
  - { offset: 0x2C562, size: 0x8, addend: 0x0, symName: ___llvm_profile_recursive_mkdir, symObjAddr: 0x0, symBinAddr: 0x1000156F0, symSize: 0x40 }
  - { offset: 0x2C5E1, size: 0x8, addend: 0x0, symName: _lprofGetHostName, symObjAddr: 0x60, symBinAddr: 0x100015730, symSize: 0x70 }
  - { offset: 0x2C715, size: 0x8, addend: 0x0, symName: _lprofLockFileHandle, symObjAddr: 0x1B0, symBinAddr: 0x1000157A0, symSize: 0x70 }
  - { offset: 0x2C7A3, size: 0x8, addend: 0x0, symName: _lprofUnlockFileHandle, symObjAddr: 0x220, symBinAddr: 0x100015810, symSize: 0x70 }
  - { offset: 0x2C80B, size: 0x8, addend: 0x0, symName: _lprofOpenFileEx, symObjAddr: 0x290, symBinAddr: 0x100015880, symSize: 0xB0 }
  - { offset: 0x2C89D, size: 0x8, addend: 0x0, symName: _lprofGetFileContentBuffer, symObjAddr: 0x340, symBinAddr: 0x100015930, symSize: 0x1B0 }
  - { offset: 0x2C92C, size: 0x8, addend: 0x0, symName: _lprofReleaseBuffer, symObjAddr: 0x4F0, symBinAddr: 0x100015AE0, symSize: 0x70 }
  - { offset: 0x2C96E, size: 0x8, addend: 0x0, symName: _lprofFindFirstDirSeparator, symObjAddr: 0x660, symBinAddr: 0x100015B50, symSize: 0x10 }
  - { offset: 0x2C9AE, size: 0x8, addend: 0x0, symName: _lprofSuspendSigKill, symObjAddr: 0x680, symBinAddr: 0x100015B60, symSize: 0x10 }
  - { offset: 0x2C9D1, size: 0x8, addend: 0x0, symName: _lprofRestoreSigKill, symObjAddr: 0x690, symBinAddr: 0x100015B70, symSize: 0x10 }
  - { offset: 0x2C9F0, size: 0x8, addend: 0x0, symName: _lprofAtExit, symObjAddr: 0x6F0, symBinAddr: 0x100015B80, symSize: 0x5 }
  - { offset: 0x2CD01, size: 0x8, addend: 0x0, symName: _getValueProfRecordHeaderSize, symObjAddr: 0x0, symBinAddr: 0x100015B90, symSize: 0x10 }
  - { offset: 0x2CD20, size: 0x8, addend: 0x0, symName: _VPMaxNumValsPerSite, symObjAddr: 0x1468, symBinAddr: 0x1000730A8, symSize: 0x0 }
  - { offset: 0x2CDB5, size: 0x8, addend: 0x0, symName: _hasNonDefaultValsPerSite, symObjAddr: 0xEE78, symBinAddr: 0x100073C98, symSize: 0x0 }
  - { offset: 0x2CDDC, size: 0x8, addend: 0x0, symName: _OutOfNodesWarnings, symObjAddr: 0xEE80, symBinAddr: 0x100073CA0, symSize: 0x0 }
  - { offset: 0x2CDF1, size: 0x8, addend: 0x0, symName: _hasStaticCounters, symObjAddr: 0xEE7C, symBinAddr: 0x100073C9C, symSize: 0x0 }
  - { offset: 0x2CE0E, size: 0x8, addend: 0x0, symName: _TheVPDataReader, symObjAddr: 0x1470, symBinAddr: 0x1000730B0, symSize: 0x0 }
  - { offset: 0x2D0AB, size: 0x8, addend: 0x0, symName: _RTRecord, symObjAddr: 0xEE88, symBinAddr: 0x100073CA8, symSize: 0x0 }
  - { offset: 0x2D298, size: 0x8, addend: 0x0, symName: _getValueProfRecordHeaderSize, symObjAddr: 0x0, symBinAddr: 0x100015B90, symSize: 0x10 }
  - { offset: 0x2D2EC, size: 0x8, addend: 0x0, symName: _getValueProfRecordValueData, symObjAddr: 0x20, symBinAddr: 0x100015BA0, symSize: 0x10 }
  - { offset: 0x2D398, size: 0x8, addend: 0x0, symName: _getValueProfRecordNext, symObjAddr: 0x130, symBinAddr: 0x100015BB0, symSize: 0x100 }
  - { offset: 0x2D3A0, size: 0x8, addend: 0x0, symName: _getFirstValueProfRecord, symObjAddr: 0x230, symBinAddr: 0x100015CB0, symSize: 0x10 }
  - { offset: 0x2D426, size: 0x8, addend: 0x0, symName: _getFirstValueProfRecord, symObjAddr: 0x230, symBinAddr: 0x100015CB0, symSize: 0x10 }
  - { offset: 0x2D506, size: 0x8, addend: 0x0, symName: _lprofSetupValueProfiler, symObjAddr: 0x8C0, symBinAddr: 0x100015CC0, symSize: 0x50 }
  - { offset: 0x2D618, size: 0x8, addend: 0x0, symName: ___llvm_profile_instrument_target_value, symObjAddr: 0xB90, symBinAddr: 0x100015D10, symSize: 0x240 }
  - { offset: 0x2D733, size: 0x8, addend: 0x0, symName: _lprofGetVPDataReader, symObjAddr: 0xE20, symBinAddr: 0x100015F50, symSize: 0x10 }
  - { offset: 0x2D756, size: 0x8, addend: 0x0, symName: _initializeValueProfRuntimeRecord, symObjAddr: 0xE30, symBinAddr: 0x100015F60, symSize: 0x390 }
  - { offset: 0x2D87B, size: 0x8, addend: 0x0, symName: _getNumValueDataForSiteWrapper, symObjAddr: 0x11C0, symBinAddr: 0x1000162F0, symSize: 0x20 }
  - { offset: 0x2D8BF, size: 0x8, addend: 0x0, symName: _getNumValueDataForSiteWrapper, symObjAddr: 0x11C0, symBinAddr: 0x1000162F0, symSize: 0x20 }
  - { offset: 0x2D8E5, size: 0x8, addend: 0x0, symName: _getValueProfDataSizeWrapper, symObjAddr: 0x11E0, symBinAddr: 0x100016310, symSize: 0xB0 }
  - { offset: 0x2D90B, size: 0x8, addend: 0x0, symName: _getValueProfDataSizeWrapper, symObjAddr: 0x11E0, symBinAddr: 0x100016310, symSize: 0xB0 }
  - { offset: 0x2D93C, size: 0x8, addend: 0x0, symName: _getValueProfDataSizeWrapper, symObjAddr: 0x11E0, symBinAddr: 0x100016310, symSize: 0xB0 }
  - { offset: 0x2D999, size: 0x8, addend: 0x0, symName: _getNextNValueData, symObjAddr: 0x1290, symBinAddr: 0x1000163C0, symSize: 0xC0 }
  - { offset: 0x2DA33, size: 0x8, addend: 0x0, symName: _getNumValueSitesRT, symObjAddr: 0x1350, symBinAddr: 0x100016480, symSize: 0x10 }
  - { offset: 0x2DA74, size: 0x8, addend: 0x0, symName: _getNumValueDataRT, symObjAddr: 0x1360, symBinAddr: 0x100016490, symSize: 0x101 }
  - { offset: 0x2DB2C, size: 0x8, addend: 0x0, symName: ___llvm_profile_raw_version, symObjAddr: 0x0, symBinAddr: 0x1000730E0, symSize: 0x0 }
  - { offset: 0x2DB6E, size: 0x8, addend: 0x0, symName: _lprofBufferWriter, symObjAddr: 0x0, symBinAddr: 0x1000165A0, symSize: 0x60 }
  - { offset: 0x2DB8D, size: 0x8, addend: 0x0, symName: _FreeHook, symObjAddr: 0x55B0, symBinAddr: 0x100075E90, symSize: 0x0 }
  - { offset: 0x2DBB3, size: 0x8, addend: 0x0, symName: _DynamicBufferIOBuffer, symObjAddr: 0x55B8, symBinAddr: 0x100075E98, symSize: 0x0 }
  - { offset: 0x2DBE1, size: 0x8, addend: 0x0, symName: _VPBufferSize, symObjAddr: 0x55C0, symBinAddr: 0x100075EA0, symSize: 0x0 }
  - { offset: 0x2DC08, size: 0x8, addend: 0x0, symName: _TheBufferIO, symObjAddr: 0x75D0, symBinAddr: 0x100075CD0, symSize: 0x0 }
  - { offset: 0x2DD52, size: 0x8, addend: 0x0, symName: _BufferIOBuffer, symObjAddr: 0x55D0, symBinAddr: 0x100073CD0, symSize: 0x0 }
  - { offset: 0x2DD7C, size: 0x8, addend: 0x0, symName: _VPDataArray, symObjAddr: 0x75F0, symBinAddr: 0x100075CF0, symSize: 0x0 }
  - { offset: 0x2DDF4, size: 0x8, addend: 0x0, symName: _lprofBufferWriter, symObjAddr: 0x0, symBinAddr: 0x1000165A0, symSize: 0x60 }
  - { offset: 0x2DF0D, size: 0x8, addend: 0x0, symName: _lprofBufferIOWrite, symObjAddr: 0x100, symBinAddr: 0x100016600, symSize: 0x110 }
  - { offset: 0x2E026, size: 0x8, addend: 0x0, symName: _lprofWriteData, symObjAddr: 0x2A0, symBinAddr: 0x100016710, symSize: 0x120 }
  - { offset: 0x2E463, size: 0x8, addend: 0x0, symName: _lprofWriteDataImpl, symObjAddr: 0x3C0, symBinAddr: 0x100016830, symSize: 0x6E0 }
  - { offset: 0x2E7BE, size: 0x8, addend: 0x0, symName: _writeOneValueProfData, symObjAddr: 0xB40, symBinAddr: 0x100016F10, symSize: 0x438 }
  - { offset: 0x2EA78, size: 0x8, addend: 0x0, symName: __RNvCskdKJRKLKjqM_7___rustc10rust_panic, symObjAddr: 0x0, symBinAddr: 0x10005A390, symSize: 0x70 }
  - { offset: 0x2EDDA, size: 0x8, addend: 0x0, symName: '__ZN42_$LT$$RF$T$u20$as$u20$core..fmt..Debug$GT$3fmt17h4fdfc8dc92b8280eE', symObjAddr: 0x27870, symBinAddr: 0x10002AD80, symSize: 0x20 }
  - { offset: 0x2EE0B, size: 0x8, addend: 0x0, symName: '__ZN42_$LT$$RF$T$u20$as$u20$core..fmt..Debug$GT$3fmt17h611062ea6589b381E', symObjAddr: 0x27920, symBinAddr: 0x10002ADA0, symSize: 0x30 }
  - { offset: 0x2EE51, size: 0x8, addend: 0x0, symName: '__ZN42_$LT$$RF$T$u20$as$u20$core..fmt..Debug$GT$3fmt17h67462dcd352e9f70E', symObjAddr: 0x27A20, symBinAddr: 0x10002ADD0, symSize: 0x30 }
  - { offset: 0x2EEA5, size: 0x8, addend: 0x0, symName: '__ZN42_$LT$$RF$T$u20$as$u20$core..fmt..Debug$GT$3fmt17h7225122a94cfb215E', symObjAddr: 0x27AB0, symBinAddr: 0x10002AE00, symSize: 0x80 }
  - { offset: 0x2EF40, size: 0x8, addend: 0x0, symName: '__ZN42_$LT$$RF$T$u20$as$u20$core..fmt..Debug$GT$3fmt17h94e75b9b1a04870cE', symObjAddr: 0x27C70, symBinAddr: 0x10002AE80, symSize: 0xA0 }
  - { offset: 0x2EFCF, size: 0x8, addend: 0x0, symName: '__ZN42_$LT$$RF$T$u20$as$u20$core..fmt..Debug$GT$3fmt17ha3f9e4fd80ade547E', symObjAddr: 0x27D30, symBinAddr: 0x10002AF20, symSize: 0x20 }
  - { offset: 0x2EFE3, size: 0x8, addend: 0x0, symName: '__ZN42_$LT$$RF$T$u20$as$u20$core..fmt..Debug$GT$3fmt17hd6b383e11abcf534E', symObjAddr: 0x27FB0, symBinAddr: 0x10002AF40, symSize: 0x20 }
  - { offset: 0x2F014, size: 0x8, addend: 0x0, symName: '__ZN42_$LT$$RF$T$u20$as$u20$core..fmt..Debug$GT$3fmt17hedcae28885211270E', symObjAddr: 0x28060, symBinAddr: 0x10002AF60, symSize: 0x80 }
  - { offset: 0x2F146, size: 0x8, addend: 0x0, symName: '__ZN44_$LT$$RF$T$u20$as$u20$core..fmt..Display$GT$3fmt17h2befab159451fc05E', symObjAddr: 0x28130, symBinAddr: 0x10002AFE0, symSize: 0x20 }
  - { offset: 0x2F161, size: 0x8, addend: 0x0, symName: '__ZN44_$LT$$RF$T$u20$as$u20$core..fmt..Display$GT$3fmt17had011a6e3beb8b51E', symObjAddr: 0x28150, symBinAddr: 0x10002B000, symSize: 0x90 }
  - { offset: 0x2F21F, size: 0x8, addend: 0x0, symName: '__ZN4core3fmt3num50_$LT$impl$u20$core..fmt..Debug$u20$for$u20$i32$GT$3fmt17h0317b62489790191E', symObjAddr: 0x284D0, symBinAddr: 0x10002B090, symSize: 0x30 }
  - { offset: 0x2F24E, size: 0x8, addend: 0x0, symName: '__ZN4core3fmt3num52_$LT$impl$u20$core..fmt..Debug$u20$for$u20$usize$GT$3fmt17h4806199c82f902ceE', symObjAddr: 0x28590, symBinAddr: 0x10002B0C0, symSize: 0x30 }
  - { offset: 0x2F29F, size: 0x8, addend: 0x0, symName: __ZN4core3fmt5Write10write_char17h2203fddc9d642afeE, symObjAddr: 0x285C0, symBinAddr: 0x10002B0F0, symSize: 0xF0 }
  - { offset: 0x2F3E6, size: 0x8, addend: 0x0, symName: __ZN4core3fmt5Write10write_char17h80d2a9496aca00b0E, symObjAddr: 0x28810, symBinAddr: 0x10002B1E0, symSize: 0xE0 }
  - { offset: 0x2F46A, size: 0x8, addend: 0x0, symName: __ZN4core3fmt5Write10write_char17hc46b6f7c3c3194cbE, symObjAddr: 0x288F0, symBinAddr: 0x10002B2C0, symSize: 0x130 }
  - { offset: 0x2F60C, size: 0x8, addend: 0x0, symName: __ZN4core3fmt5Write10write_char17hdac7d1ed87bd809bE, symObjAddr: 0x28B00, symBinAddr: 0x10002B3F0, symSize: 0x160 }
  - { offset: 0x2F7BF, size: 0x8, addend: 0x0, symName: __ZN4core3fmt5Write9write_fmt17hd3928726ab1abb27E, symObjAddr: 0x28D00, symBinAddr: 0x10002B550, symSize: 0x50 }
  - { offset: 0x2F7EE, size: 0x8, addend: 0x0, symName: __ZN4core3fmt5Write9write_fmt17he343009274951ef4E, symObjAddr: 0x28D50, symBinAddr: 0x10002B5A0, symSize: 0x50 }
  - { offset: 0x2F81D, size: 0x8, addend: 0x0, symName: __ZN4core3fmt5Write9write_fmt17he408d8c37cd4c2c5E, symObjAddr: 0x28DA0, symBinAddr: 0x10002B5F0, symSize: 0x50 }
  - { offset: 0x2F84C, size: 0x8, addend: 0x0, symName: __ZN4core3fmt5Write9write_fmt17hec70cb0fc9ef19e4E, symObjAddr: 0x28DF0, symBinAddr: 0x10002B640, symSize: 0x50 }
  - { offset: 0x2F87B, size: 0x8, addend: 0x0, symName: __ZN4core3fmt5Write9write_fmt17hfbfca6c33e82dca5E, symObjAddr: 0x28E40, symBinAddr: 0x10002B690, symSize: 0x50 }
  - { offset: 0x2F8D8, size: 0x8, addend: 0x0, symName: '__ZN50_$LT$$BP$mut$u20$T$u20$as$u20$core..fmt..Debug$GT$3fmt17h461ef72b23c2334dE', symObjAddr: 0x3AB30, symBinAddr: 0x100038190, symSize: 0x10 }
  - { offset: 0x2F925, size: 0x8, addend: 0x0, symName: '__ZN52_$LT$$RF$mut$u20$T$u20$as$u20$core..fmt..Display$GT$3fmt17he99623082ea1fa3dE', symObjAddr: 0x3B1B0, symBinAddr: 0x1000381A0, symSize: 0x20 }
  - { offset: 0x31FB5, size: 0x8, addend: 0x0, symName: '__ZN4core3ptr107drop_in_place$LT$core..pin..Pin$LT$alloc..boxed..Box$LT$std..sys..pal..unix..sync..mutex..Mutex$GT$$GT$$GT$17he4bee0bcfb03f75fE', symObjAddr: 0x294F0, symBinAddr: 0x10002B8F0, symSize: 0x30 }
  - { offset: 0x3204C, size: 0x8, addend: 0x0, symName: '__ZN4core3ptr109drop_in_place$LT$alloc..sync..Arc$LT$std..sync..poison..mutex..Mutex$LT$alloc..vec..Vec$LT$u8$GT$$GT$$GT$$GT$17he5b3c9d5553080edE', symObjAddr: 0x29520, symBinAddr: 0x10002B920, symSize: 0x20 }
  - { offset: 0x320CD, size: 0x8, addend: 0x0, symName: '__ZN4core3ptr119drop_in_place$LT$std..io..default_write_fmt..Adapter$LT$std..io..cursor..Cursor$LT$$RF$mut$u20$$u5b$u8$u5d$$GT$$GT$$GT$17h8ef58680b6ede286E', symObjAddr: 0x295C0, symBinAddr: 0x10002B940, symSize: 0x20 }
  - { offset: 0x320F0, size: 0x8, addend: 0x0, symName: '__ZN4core3ptr123drop_in_place$LT$addr2line..Context$LT$gimli..read..endian_slice..EndianSlice$LT$gimli..endianity..LittleEndian$GT$$GT$$GT$17h4096ebf47a84add1E', symObjAddr: 0x295E0, symBinAddr: 0x10002B960, symSize: 0x60 }
  - { offset: 0x32195, size: 0x8, addend: 0x0, symName: '__ZN4core3ptr128drop_in_place$LT$core..result..Result$LT$$RF$std..thread..Thread$C$$LP$$RF$std..thread..Thread$C$std..thread..Thread$RP$$GT$$GT$17h5b35dce14f68d27eE', symObjAddr: 0x29640, symBinAddr: 0x10002B9C0, symSize: 0x20 }
  - { offset: 0x322B7, size: 0x8, addend: 0x0, symName: '__ZN4core3ptr129drop_in_place$LT$addr2line..unit..ResUnit$LT$gimli..read..endian_slice..EndianSlice$LT$gimli..endianity..LittleEndian$GT$$GT$$GT$17h5b41b59ec8c6acd1E', symObjAddr: 0x29660, symBinAddr: 0x10002B9E0, symSize: 0x100 }
  - { offset: 0x324C5, size: 0x8, addend: 0x0, symName: '__ZN4core3ptr129drop_in_place$LT$addr2line..unit..SupUnit$LT$gimli..read..endian_slice..EndianSlice$LT$gimli..endianity..LittleEndian$GT$$GT$$GT$17h7745e598093ea497E', symObjAddr: 0x29760, symBinAddr: 0x10002BAE0, symSize: 0x50 }
  - { offset: 0x32570, size: 0x8, addend: 0x0, symName: '__ZN4core3ptr130drop_in_place$LT$addr2line..unit..ResUnits$LT$gimli..read..endian_slice..EndianSlice$LT$gimli..endianity..LittleEndian$GT$$GT$$GT$17h8ac001c378159224E', symObjAddr: 0x297B0, symBinAddr: 0x10002BB30, symSize: 0xE0 }
  - { offset: 0x32719, size: 0x8, addend: 0x0, symName: '__ZN4core3ptr130drop_in_place$LT$addr2line..unit..SupUnits$LT$gimli..read..endian_slice..EndianSlice$LT$gimli..endianity..LittleEndian$GT$$GT$$GT$17hf4d4e85b8cf1677eE', symObjAddr: 0x29890, symBinAddr: 0x10002BC10, symSize: 0xE0 }
  - { offset: 0x328B5, size: 0x8, addend: 0x0, symName: '__ZN4core3ptr130drop_in_place$LT$gimli..read..dwarf..Dwarf$LT$gimli..read..endian_slice..EndianSlice$LT$gimli..endianity..LittleEndian$GT$$GT$$GT$17h00351692336cc8a5E', symObjAddr: 0x29970, symBinAddr: 0x10002BCF0, symSize: 0x60 }
  - { offset: 0x3291F, size: 0x8, addend: 0x0, symName: '__ZN4core3ptr131drop_in_place$LT$$u5b$core..option..Option$LT$core..option..Option$LT$std..backtrace_rs..symbolize..gimli..Mapping$GT$$GT$$u5d$$GT$17h5e49fcba991e0fefE', symObjAddr: 0x299D0, symBinAddr: 0x10002BD50, symSize: 0xE0 }
  - { offset: 0x329C9, size: 0x8, addend: 0x0, symName: '__ZN4core3ptr131drop_in_place$LT$alloc..boxed..Box$LT$dyn$u20$core..ops..function..FnOnce$LT$$LP$$RP$$GT$$u2b$Output$u20$$u3d$$u20$$LP$$RP$$GT$$GT$17h34dfa6de81a90f60E', symObjAddr: 0x29AB0, symBinAddr: 0x10002BE30, symSize: 0x70 }
  - { offset: 0x32AB4, size: 0x8, addend: 0x0, symName: '__ZN4core3ptr137drop_in_place$LT$gimli..read..dwarf..Unit$LT$gimli..read..endian_slice..EndianSlice$LT$gimli..endianity..LittleEndian$GT$$C$usize$GT$$GT$17h8a3dedf63945c7ffE', symObjAddr: 0x29B20, symBinAddr: 0x10002BEA0, symSize: 0x50 }
  - { offset: 0x32B9D, size: 0x8, addend: 0x0, symName: '__ZN4core3ptr138drop_in_place$LT$addr2line..function..LazyFunction$LT$gimli..read..endian_slice..EndianSlice$LT$gimli..endianity..LittleEndian$GT$$GT$$GT$17h0f8e66548b648d63E', symObjAddr: 0x29B70, symBinAddr: 0x10002BEF0, symSize: 0x60 }
  - { offset: 0x32BB4, size: 0x8, addend: 0x0, symName: '__ZN4core3ptr138drop_in_place$LT$addr2line..function..LazyFunction$LT$gimli..read..endian_slice..EndianSlice$LT$gimli..endianity..LittleEndian$GT$$GT$$GT$17h0f8e66548b648d63E', symObjAddr: 0x29B70, symBinAddr: 0x10002BEF0, symSize: 0x60 }
  - { offset: 0x32BC9, size: 0x8, addend: 0x0, symName: '__ZN4core3ptr138drop_in_place$LT$addr2line..function..LazyFunction$LT$gimli..read..endian_slice..EndianSlice$LT$gimli..endianity..LittleEndian$GT$$GT$$GT$17h0f8e66548b648d63E', symObjAddr: 0x29B70, symBinAddr: 0x10002BEF0, symSize: 0x60 }
  - { offset: 0x32BDE, size: 0x8, addend: 0x0, symName: '__ZN4core3ptr138drop_in_place$LT$addr2line..function..LazyFunction$LT$gimli..read..endian_slice..EndianSlice$LT$gimli..endianity..LittleEndian$GT$$GT$$GT$17h0f8e66548b648d63E', symObjAddr: 0x29B70, symBinAddr: 0x10002BEF0, symSize: 0x60 }
  - { offset: 0x32D12, size: 0x8, addend: 0x0, symName: '__ZN4core3ptr144drop_in_place$LT$alloc..vec..Vec$LT$core..option..Option$LT$core..option..Option$LT$std..backtrace_rs..symbolize..gimli..Mapping$GT$$GT$$GT$$GT$17hd133ee3f082661a3E', symObjAddr: 0x29BD0, symBinAddr: 0x10002BF50, symSize: 0x80 }
  - { offset: 0x32E6C, size: 0x8, addend: 0x0, symName: '__ZN4core3ptr152drop_in_place$LT$alloc..vec..Vec$LT$addr2line..unit..ResUnit$LT$gimli..read..endian_slice..EndianSlice$LT$gimli..endianity..LittleEndian$GT$$GT$$GT$$GT$17h687eea1ef8e4dccbE', symObjAddr: 0x29D40, symBinAddr: 0x10002BFD0, symSize: 0xD0 }
  - { offset: 0x32FDB, size: 0x8, addend: 0x0, symName: '__ZN4core3ptr152drop_in_place$LT$alloc..vec..Vec$LT$addr2line..unit..SupUnit$LT$gimli..read..endian_slice..EndianSlice$LT$gimli..endianity..LittleEndian$GT$$GT$$GT$$GT$17h43b55f1c1ec40770E', symObjAddr: 0x29E10, symBinAddr: 0x10002C0A0, symSize: 0x100 }
  - { offset: 0x331DF, size: 0x8, addend: 0x0, symName: '__ZN4core3ptr156drop_in_place$LT$alloc..boxed..Box$LT$$u5b$core..option..Option$LT$core..option..Option$LT$std..backtrace_rs..symbolize..gimli..Mapping$GT$$GT$$u5d$$GT$$GT$17h64285ccbe01a68bbE', symObjAddr: 0x29F10, symBinAddr: 0x10002C1A0, symSize: 0xF0 }
  - { offset: 0x33309, size: 0x8, addend: 0x0, symName: '__ZN4core3ptr159drop_in_place$LT$alloc..sync..ArcInner$LT$gimli..read..dwarf..Dwarf$LT$gimli..read..endian_slice..EndianSlice$LT$gimli..endianity..LittleEndian$GT$$GT$$GT$$GT$17ha7d070261ff0f422E', symObjAddr: 0x2A0A0, symBinAddr: 0x10002C290, symSize: 0x60 }
  - { offset: 0x333BA, size: 0x8, addend: 0x0, symName: '__ZN4core3ptr161drop_in_place$LT$alloc..vec..Vec$LT$addr2line..function..LazyFunction$LT$gimli..read..endian_slice..EndianSlice$LT$gimli..endianity..LittleEndian$GT$$GT$$GT$$GT$17h224d020c77f1c5c5E', symObjAddr: 0x2A100, symBinAddr: 0x10002C2F0, symSize: 0xC0 }
  - { offset: 0x335F7, size: 0x8, addend: 0x0, symName: '__ZN4core3ptr172drop_in_place$LT$core..result..Result$LT$addr2line..Context$LT$gimli..read..endian_slice..EndianSlice$LT$gimli..endianity..LittleEndian$GT$$GT$$C$gimli..read..Error$GT$$GT$17h9689e9d3357a2b29E', symObjAddr: 0x2A270, symBinAddr: 0x10002C3B0, symSize: 0x70 }
  - { offset: 0x33678, size: 0x8, addend: 0x0, symName: '__ZN4core3ptr173drop_in_place$LT$alloc..boxed..Box$LT$$u5b$addr2line..function..LazyFunction$LT$gimli..read..endian_slice..EndianSlice$LT$gimli..endianity..LittleEndian$GT$$GT$$u5d$$GT$$GT$17h854691247aa87af0E', symObjAddr: 0x2A2E0, symBinAddr: 0x10002C420, symSize: 0xA0 }
  - { offset: 0x3368F, size: 0x8, addend: 0x0, symName: '__ZN4core3ptr173drop_in_place$LT$alloc..boxed..Box$LT$$u5b$addr2line..function..LazyFunction$LT$gimli..read..endian_slice..EndianSlice$LT$gimli..endianity..LittleEndian$GT$$GT$$u5d$$GT$$GT$17h854691247aa87af0E', symObjAddr: 0x2A2E0, symBinAddr: 0x10002C420, symSize: 0xA0 }
  - { offset: 0x33864, size: 0x8, addend: 0x0, symName: '__ZN4core3ptr181drop_in_place$LT$core..option..Option$LT$gimli..read..line..IncompleteLineProgram$LT$gimli..read..endian_slice..EndianSlice$LT$gimli..endianity..LittleEndian$GT$$C$usize$GT$$GT$$GT$17ha2da1af52ac50966E', symObjAddr: 0x2A3F0, symBinAddr: 0x10002C4C0, symSize: 0xA0 }
  - { offset: 0x33ABD, size: 0x8, addend: 0x0, symName: '__ZN4core3ptr181drop_in_place$LT$core..result..Result$LT$addr2line..frame..FrameIter$LT$gimli..read..endian_slice..EndianSlice$LT$gimli..endianity..LittleEndian$GT$$GT$$C$gimli..read..Error$GT$$GT$17hb41a886cf8fb4359E', symObjAddr: 0x2A490, symBinAddr: 0x10002C560, symSize: 0x40 }
  - { offset: 0x33BFB, size: 0x8, addend: 0x0, symName: '__ZN4core3ptr184drop_in_place$LT$core..result..Result$LT$addr2line..function..Functions$LT$gimli..read..endian_slice..EndianSlice$LT$gimli..endianity..LittleEndian$GT$$GT$$C$gimli..read..Error$GT$$GT$17h16817f6f8b785913E', symObjAddr: 0x2A4D0, symBinAddr: 0x10002C5A0, symSize: 0xE0 }
  - { offset: 0x33E8B, size: 0x8, addend: 0x0, symName: '__ZN4core3ptr194drop_in_place$LT$core..result..Result$LT$std..sync..poison..mutex..MutexGuard$LT$$LP$$RP$$GT$$C$std..sync..poison..PoisonError$LT$std..sync..poison..mutex..MutexGuard$LT$$LP$$RP$$GT$$GT$$GT$$GT$17h05108be9b923664fE', symObjAddr: 0x2A620, symBinAddr: 0x10002C680, symSize: 0x50 }
  - { offset: 0x33EC9, size: 0x8, addend: 0x0, symName: '__ZN4core3ptr231drop_in_place$LT$core..result..Result$LT$core..option..Option$LT$alloc..boxed..Box$LT$addr2line..unit..DwoUnit$LT$gimli..read..endian_slice..EndianSlice$LT$gimli..endianity..LittleEndian$GT$$GT$$GT$$GT$$C$gimli..read..Error$GT$$GT$17h77faee68108766d7E', symObjAddr: 0x2A670, symBinAddr: 0x10002C6D0, symSize: 0xB0 }
  - { offset: 0x34093, size: 0x8, addend: 0x0, symName: '__ZN4core3ptr238drop_in_place$LT$alloc..boxed..convert..$LT$impl$u20$core..convert..From$LT$alloc..string..String$GT$$u20$for$u20$alloc..boxed..Box$LT$dyn$u20$core..error..Error$u2b$core..marker..Sync$u2b$core..marker..Send$GT$$GT$..from..StringError$GT$17h77c71369405e109cE', symObjAddr: 0x2A720, symBinAddr: 0x10002C780, symSize: 0x20 }
  - { offset: 0x3413E, size: 0x8, addend: 0x0, symName: '__ZN4core3ptr275drop_in_place$LT$gimli..read..line..LineRows$LT$gimli..read..endian_slice..EndianSlice$LT$gimli..endianity..LittleEndian$GT$$C$gimli..read..line..IncompleteLineProgram$LT$gimli..read..endian_slice..EndianSlice$LT$gimli..endianity..LittleEndian$GT$$C$usize$GT$$C$usize$GT$$GT$17hadd9cd2441f7544fE', symObjAddr: 0x2A740, symBinAddr: 0x10002C7A0, symSize: 0xA0 }
  - { offset: 0x343B3, size: 0x8, addend: 0x0, symName: '__ZN4core3ptr280drop_in_place$LT$$LT$alloc..collections..btree..map..IntoIter$LT$K$C$V$C$A$GT$$u20$as$u20$core..ops..drop..Drop$GT$..drop..DropGuard$LT$u64$C$core..result..Result$LT$alloc..sync..Arc$LT$gimli..read..abbrev..Abbreviations$GT$$C$gimli..read..Error$GT$$C$alloc..alloc..Global$GT$$GT$17h12b50f4912f8d053E', symObjAddr: 0x2A7E0, symBinAddr: 0x10002C840, symSize: 0x80 }
  - { offset: 0x344DF, size: 0x8, addend: 0x0, symName: '__ZN4core3ptr284drop_in_place$LT$core..result..Result$LT$$RF$core..result..Result$LT$addr2line..line..Lines$C$gimli..read..Error$GT$$C$$LP$$RF$core..result..Result$LT$addr2line..line..Lines$C$gimli..read..Error$GT$$C$core..result..Result$LT$addr2line..line..Lines$C$gimli..read..Error$GT$$RP$$GT$$GT$17h10f406cda706aac9E', symObjAddr: 0x2A860, symBinAddr: 0x10002C8C0, symSize: 0x20 }
  - { offset: 0x34510, size: 0x8, addend: 0x0, symName: '__ZN4core3ptr37drop_in_place$LT$std..env..VarsOs$GT$17h46b78f62b627aed3E', symObjAddr: 0x2A880, symBinAddr: 0x10002C8E0, symSize: 0xB0 }
  - { offset: 0x347D5, size: 0x8, addend: 0x0, symName: '__ZN4core3ptr42drop_in_place$LT$alloc..string..String$GT$17h13a2c872d6de9b78E', symObjAddr: 0x2AA20, symBinAddr: 0x10002C990, symSize: 0x20 }
  - { offset: 0x3486A, size: 0x8, addend: 0x0, symName: '__ZN4core3ptr42drop_in_place$LT$std..io..error..Error$GT$17hf3cc5d9531ccf1c0E', symObjAddr: 0x2AA40, symBinAddr: 0x10002C9B0, symSize: 0xA0 }
  - { offset: 0x34A88, size: 0x8, addend: 0x0, symName: '__ZN4core3ptr44drop_in_place$LT$object..read..ObjectMap$GT$17h9dfc9bd6f6ee5a53E', symObjAddr: 0x2AAE0, symBinAddr: 0x10002CA50, symSize: 0x50 }
  - { offset: 0x34BB7, size: 0x8, addend: 0x0, symName: '__ZN4core3ptr46drop_in_place$LT$alloc..vec..Vec$LT$u8$GT$$GT$17h50cadf63df0efd66E', symObjAddr: 0x2AB90, symBinAddr: 0x10002CAA0, symSize: 0x20 }
  - { offset: 0x34C36, size: 0x8, addend: 0x0, symName: '__ZN4core3ptr46drop_in_place$LT$std..io..stdio..StdinLock$GT$17h859807256c432efeE', symObjAddr: 0x2ABB0, symBinAddr: 0x10002CAC0, symSize: 0x50 }
  - { offset: 0x34C4D, size: 0x8, addend: 0x0, symName: '__ZN4core3ptr46drop_in_place$LT$std..io..stdio..StdinLock$GT$17h859807256c432efeE', symObjAddr: 0x2ABB0, symBinAddr: 0x10002CAC0, symSize: 0x50 }
  - { offset: 0x34C62, size: 0x8, addend: 0x0, symName: '__ZN4core3ptr46drop_in_place$LT$std..io..stdio..StdinLock$GT$17h859807256c432efeE', symObjAddr: 0x2ABB0, symBinAddr: 0x10002CAC0, symSize: 0x50 }
  - { offset: 0x34D46, size: 0x8, addend: 0x0, symName: '__ZN4core3ptr48drop_in_place$LT$alloc..ffi..c_str..NulError$GT$17h05fdddfd5dec9957E', symObjAddr: 0x2AD00, symBinAddr: 0x10002CB10, symSize: 0x20 }
  - { offset: 0x34DE9, size: 0x8, addend: 0x0, symName: '__ZN4core3ptr557drop_in_place$LT$core..result..Result$LT$$RF$core..result..Result$LT$addr2line..function..Function$LT$gimli..read..endian_slice..EndianSlice$LT$gimli..endianity..LittleEndian$GT$$GT$$C$gimli..read..Error$GT$$C$$LP$$RF$core..result..Result$LT$addr2line..function..Function$LT$gimli..read..endian_slice..EndianSlice$LT$gimli..endianity..LittleEndian$GT$$GT$$C$gimli..read..Error$GT$$C$core..result..Result$LT$addr2line..function..Function$LT$gimli..read..endian_slice..EndianSlice$LT$gimli..endianity..LittleEndian$GT$$GT$$C$gimli..read..Error$GT$$RP$$GT$$GT$17hc44de9d152e84349E', symObjAddr: 0x2AFE0, symBinAddr: 0x10002CB30, symSize: 0x60 }
  - { offset: 0x34FD3, size: 0x8, addend: 0x0, symName: '__ZN4core3ptr55drop_in_place$LT$gimli..read..abbrev..Abbreviations$GT$17h650fa2a70ecf9e05E', symObjAddr: 0x2B040, symBinAddr: 0x10002CB90, symSize: 0x130 }
  - { offset: 0x3531C, size: 0x8, addend: 0x0, symName: '__ZN4core3ptr560drop_in_place$LT$core..result..Result$LT$$RF$core..result..Result$LT$addr2line..function..Functions$LT$gimli..read..endian_slice..EndianSlice$LT$gimli..endianity..LittleEndian$GT$$GT$$C$gimli..read..Error$GT$$C$$LP$$RF$core..result..Result$LT$addr2line..function..Functions$LT$gimli..read..endian_slice..EndianSlice$LT$gimli..endianity..LittleEndian$GT$$GT$$C$gimli..read..Error$GT$$C$core..result..Result$LT$addr2line..function..Functions$LT$gimli..read..endian_slice..EndianSlice$LT$gimli..endianity..LittleEndian$GT$$GT$$C$gimli..read..Error$GT$$RP$$GT$$GT$17h6cf82f479787438aE', symObjAddr: 0x2B270, symBinAddr: 0x10002CCC0, symSize: 0x20 }
  - { offset: 0x35377, size: 0x8, addend: 0x0, symName: '__ZN4core3ptr60drop_in_place$LT$gimli..read..abbrev..AbbreviationsCache$GT$17h8ea9413fce52b0aeE', symObjAddr: 0x2B290, symBinAddr: 0x10002CCE0, symSize: 0xE0 }
  - { offset: 0x354DE, size: 0x8, addend: 0x0, symName: '__ZN4core3ptr64drop_in_place$LT$std..sys..pal..unix..sync..mutex..AttrGuard$GT$17h07975ffc5879c9b3E', symObjAddr: 0x2B3E0, symBinAddr: 0x10002CDC0, symSize: 0x40 }
  - { offset: 0x35501, size: 0x8, addend: 0x0, symName: '__ZN4core3ptr64drop_in_place$LT$std..sys..process..unix..common..ChildPipes$GT$17h8a41ca136ef85558E', symObjAddr: 0x2B420, symBinAddr: 0x10002CE00, symSize: 0x50 }
  - { offset: 0x35603, size: 0x8, addend: 0x0, symName: '__ZN4core3ptr64drop_in_place$LT$std..sys..process..unix..common..StdioPipes$GT$17h923111f52d7e035aE', symObjAddr: 0x2B470, symBinAddr: 0x10002CE50, symSize: 0x40 }
  - { offset: 0x3577B, size: 0x8, addend: 0x0, symName: '__ZN4core3ptr65drop_in_place$LT$alloc..vec..Vec$LT$alloc..string..String$GT$$GT$17h7048242ed88ea37eE', symObjAddr: 0x2B4B0, symBinAddr: 0x10002CE90, symSize: 0x90 }
  - { offset: 0x358E1, size: 0x8, addend: 0x0, symName: '__ZN4core3ptr65drop_in_place$LT$std..backtrace_rs..symbolize..gimli..Context$GT$17hc7e1db2a9c32a85bE', symObjAddr: 0x2B540, symBinAddr: 0x10002CF20, symSize: 0x100 }
  - { offset: 0x35B5F, size: 0x8, addend: 0x0, symName: '__ZN4core3ptr66drop_in_place$LT$std..backtrace_rs..backtrace..libunwind..Bomb$GT$17hd5948bcabaf539edE', symObjAddr: 0x2B640, symBinAddr: 0x10002D020, symSize: 0x50 }
  - { offset: 0x35BAB, size: 0x8, addend: 0x0, symName: '__ZN4core3ptr701drop_in_place$LT$core..result..Result$LT$$RF$core..result..Result$LT$core..option..Option$LT$alloc..boxed..Box$LT$addr2line..unit..DwoUnit$LT$gimli..read..endian_slice..EndianSlice$LT$gimli..endianity..LittleEndian$GT$$GT$$GT$$GT$$C$gimli..read..Error$GT$$C$$LP$$RF$core..result..Result$LT$core..option..Option$LT$alloc..boxed..Box$LT$addr2line..unit..DwoUnit$LT$gimli..read..endian_slice..EndianSlice$LT$gimli..endianity..LittleEndian$GT$$GT$$GT$$GT$$C$gimli..read..Error$GT$$C$core..result..Result$LT$core..option..Option$LT$alloc..boxed..Box$LT$addr2line..unit..DwoUnit$LT$gimli..read..endian_slice..EndianSlice$LT$gimli..endianity..LittleEndian$GT$$GT$$GT$$GT$$C$gimli..read..Error$GT$$RP$$GT$$GT$17h4c871d662e9baba8E', symObjAddr: 0x2B690, symBinAddr: 0x10002D070, symSize: 0x20 }
  - { offset: 0x35C4C, size: 0x8, addend: 0x0, symName: '__ZN4core3ptr70drop_in_place$LT$std..backtrace_rs..symbolize..gimli..stash..Stash$GT$17h9192affd8a73d22bE', symObjAddr: 0x2B6B0, symBinAddr: 0x10002D090, symSize: 0xE0 }
  - { offset: 0x35EF2, size: 0x8, addend: 0x0, symName: '__ZN4core3ptr71drop_in_place$LT$std..backtrace_rs..symbolize..gimli..macho..Object$GT$17he8bfbbbc576ba26bE', symObjAddr: 0x2B790, symBinAddr: 0x10002D170, symSize: 0xD0 }
  - { offset: 0x361B7, size: 0x8, addend: 0x0, symName: '__ZN4core3ptr71drop_in_place$LT$std..panicking..panic_handler..FormatStringPayload$GT$17he2832ae2b85e7af7E', symObjAddr: 0x2B860, symBinAddr: 0x10002D240, symSize: 0x30 }
  - { offset: 0x36273, size: 0x8, addend: 0x0, symName: '__ZN4core3ptr72drop_in_place$LT$core..option..Option$LT$object..read..ObjectMap$GT$$GT$17hfcefd03af094224dE', symObjAddr: 0x2B890, symBinAddr: 0x10002D270, symSize: 0x60 }
  - { offset: 0x363F0, size: 0x8, addend: 0x0, symName: '__ZN4core3ptr73drop_in_place$LT$alloc..vec..Vec$LT$addr2line..line..LineSequence$GT$$GT$17ha6ada6d850d6bfd7E', symObjAddr: 0x2B8F0, symBinAddr: 0x10002D2D0, symSize: 0x90 }
  - { offset: 0x36548, size: 0x8, addend: 0x0, symName: '__ZN4core3ptr77drop_in_place$LT$alloc..boxed..Box$LT$$u5b$alloc..string..String$u5d$$GT$$GT$17hb3442e265eb8e1dcE', symObjAddr: 0x2B9D0, symBinAddr: 0x10002D360, symSize: 0x60 }
  - { offset: 0x3655F, size: 0x8, addend: 0x0, symName: '__ZN4core3ptr77drop_in_place$LT$alloc..boxed..Box$LT$$u5b$alloc..string..String$u5d$$GT$$GT$17hb3442e265eb8e1dcE', symObjAddr: 0x2B9D0, symBinAddr: 0x10002D360, symSize: 0x60 }
  - { offset: 0x3665D, size: 0x8, addend: 0x0, symName: '__ZN4core3ptr78drop_in_place$LT$core..result..Result$LT$usize$C$std..io..error..Error$GT$$GT$17h5cf9dfd69ab55d35E', symObjAddr: 0x2BA30, symBinAddr: 0x10002D3C0, symSize: 0x20 }
  - { offset: 0x36671, size: 0x8, addend: 0x0, symName: '__ZN4core3ptr79drop_in_place$LT$std..sync..poison..rwlock..RwLockReadGuard$LT$$LP$$RP$$GT$$GT$17h4fa0e4fa5e15bd74E', symObjAddr: 0x2BA50, symBinAddr: 0x10002D3E0, symSize: 0x50 }
  - { offset: 0x3670D, size: 0x8, addend: 0x0, symName: '__ZN4core3ptr81drop_in_place$LT$core..result..Result$LT$$LP$$RP$$C$std..io..error..Error$GT$$GT$17h1c1edd567460b3feE', symObjAddr: 0x2BB50, symBinAddr: 0x10002D430, symSize: 0x20 }
  - { offset: 0x3673D, size: 0x8, addend: 0x0, symName: '__ZN4core3ptr81drop_in_place$LT$std..sys..process..unix..common..cstring_array..CStringArray$GT$17h1ce3a250115cbe70E', symObjAddr: 0x2BB70, symBinAddr: 0x10002D450, symSize: 0xD0 }
  - { offset: 0x36A85, size: 0x8, addend: 0x0, symName: '__ZN4core3ptr82drop_in_place$LT$alloc..sync..ArcInner$LT$std..sys..fs..unix..InnerReadDir$GT$$GT$17ha8fbff3aaada4fb8E', symObjAddr: 0x2BC40, symBinAddr: 0x10002D520, symSize: 0x60 }
  - { offset: 0x36C28, size: 0x8, addend: 0x0, symName: '__ZN4core3ptr84drop_in_place$LT$$LP$std..ffi..os_str..OsString$C$std..ffi..os_str..OsString$RP$$GT$17hbc09269b3e4ede67E', symObjAddr: 0x2BCA0, symBinAddr: 0x10002D580, symSize: 0x50 }
  - { offset: 0x36D75, size: 0x8, addend: 0x0, symName: '__ZN4core3ptr90drop_in_place$LT$std..io..buffered..bufwriter..BufWriter$LT$W$GT$..flush_buf..BufGuard$GT$17he4170abc552595a7E', symObjAddr: 0x2BD40, symBinAddr: 0x10002D5D0, symSize: 0x50 }
  - { offset: 0x36EFC, size: 0x8, addend: 0x0, symName: '__ZN4core3ptr92drop_in_place$LT$core..result..Result$LT$addr2line..line..Lines$C$gimli..read..Error$GT$$GT$17h2e8e0626d3a84d8eE', symObjAddr: 0x2BDF0, symBinAddr: 0x10002D620, symSize: 0xE0 }
  - { offset: 0x37142, size: 0x8, addend: 0x0, symName: '__ZN4core3ptr93drop_in_place$LT$core..option..Option$LT$std..backtrace_rs..symbolize..gimli..Mapping$GT$$GT$17h136f8c1ae5619cc2E', symObjAddr: 0x2BED0, symBinAddr: 0x10002D700, symSize: 0x70 }
  - { offset: 0x371D1, size: 0x8, addend: 0x0, symName: '__ZN4core3ptr95drop_in_place$LT$std..io..buffered..linewriter..LineWriter$LT$std..io..stdio..StdoutRaw$GT$$GT$17h9eac947b14297a02E', symObjAddr: 0x2BF40, symBinAddr: 0x10002D770, symSize: 0x100 }
  - { offset: 0x3956F, size: 0x8, addend: 0x0, symName: __ZN4core5panic12PanicPayload6as_str17h0a0af93859b241b1E, symObjAddr: 0x302B0, symBinAddr: 0x10002D9D0, symSize: 0x10 }
  - { offset: 0x39E46, size: 0x8, addend: 0x0, symName: '__ZN70_$LT$core..num..error..TryFromIntError$u20$as$u20$core..fmt..Debug$GT$3fmt17hf51a2ad22619e644E', symObjAddr: 0x54380, symBinAddr: 0x1000480A0, symSize: 0x40 }
  - { offset: 0x3BC66, size: 0x8, addend: 0x0, symName: __ZN4core5slice4sort8unstable7ipnsort17h2b4a537af7352546E, symObjAddr: 0x39850, symBinAddr: 0x100036F70, symSize: 0x1A0 }
  - { offset: 0x3BF0E, size: 0x8, addend: 0x0, symName: __ZN4core5slice4sort8unstable7ipnsort17h52ef4485ec8e6977E, symObjAddr: 0x399F0, symBinAddr: 0x100037110, symSize: 0xE0 }
  - { offset: 0x3C0D0, size: 0x8, addend: 0x0, symName: __ZN4core5slice4sort8unstable8heapsort8heapsort17h4b4721c6bb82e1c1E, symObjAddr: 0x39AD0, symBinAddr: 0x1000371F0, symSize: 0x120 }
  - { offset: 0x3C316, size: 0x8, addend: 0x0, symName: __ZN4core5slice4sort8unstable8heapsort8heapsort17hab9566a01254ecddE, symObjAddr: 0x39BF0, symBinAddr: 0x100037310, symSize: 0x1D0 }
  - { offset: 0x3C6C8, size: 0x8, addend: 0x0, symName: __ZN4core5slice4sort8unstable9quicksort9quicksort17h0b8d9e0f156a468cE, symObjAddr: 0x39DC0, symBinAddr: 0x1000374E0, symSize: 0x540 }
  - { offset: 0x3CF68, size: 0x8, addend: 0x0, symName: __ZN4core5slice4sort8unstable9quicksort9quicksort17h5a50d5c9a636cab4E, symObjAddr: 0x3A300, symBinAddr: 0x100037A20, symSize: 0x761 }
  - { offset: 0x3DBCB, size: 0x8, addend: 0x0, symName: __ZN4core5slice4sort6stable14driftsort_main17h3220260173ca707fE, symObjAddr: 0x31FD0, symBinAddr: 0x10002F6F0, symSize: 0x150 }
  - { offset: 0x3DEA3, size: 0x8, addend: 0x0, symName: __ZN4core5slice4sort6stable14driftsort_main17h4699f0e78e45ec48E, symObjAddr: 0x32120, symBinAddr: 0x10002F840, symSize: 0x150 }
  - { offset: 0x3E17B, size: 0x8, addend: 0x0, symName: __ZN4core5slice4sort6stable14driftsort_main17h9e6c77f5f42fb271E, symObjAddr: 0x32270, symBinAddr: 0x10002F990, symSize: 0x160 }
  - { offset: 0x3E4A9, size: 0x8, addend: 0x0, symName: __ZN4core5slice4sort6stable14driftsort_main17ha76b3f8bfe5161d7E, symObjAddr: 0x323D0, symBinAddr: 0x10002FAF0, symSize: 0x160 }
  - { offset: 0x3E7D7, size: 0x8, addend: 0x0, symName: __ZN4core5slice4sort6stable14driftsort_main17hdb3cc37e344db5cdE, symObjAddr: 0x32530, symBinAddr: 0x10002FC50, symSize: 0x150 }
  - { offset: 0x3EAAF, size: 0x8, addend: 0x0, symName: __ZN4core5slice4sort6stable14driftsort_main17hf9b576397ab84e46E, symObjAddr: 0x32680, symBinAddr: 0x10002FDA0, symSize: 0x160 }
  - { offset: 0x3EF19, size: 0x8, addend: 0x0, symName: __ZN4core5slice4sort6stable5drift4sort17h0344cd1179273fdfE, symObjAddr: 0x327E0, symBinAddr: 0x10002FF00, symSize: 0x6E0 }
  - { offset: 0x3F6C1, size: 0x8, addend: 0x0, symName: __ZN4core5slice4sort6stable5drift4sort17h5d73a28370e736e7E, symObjAddr: 0x32EC0, symBinAddr: 0x1000305E0, symSize: 0x690 }
  - { offset: 0x3FE78, size: 0x8, addend: 0x0, symName: __ZN4core5slice4sort6stable5drift4sort17h7d35ffbcc89f38d4E, symObjAddr: 0x33550, symBinAddr: 0x100030C70, symSize: 0x6D0 }
  - { offset: 0x40635, size: 0x8, addend: 0x0, symName: __ZN4core5slice4sort6stable5drift4sort17h8e4dd7b37e0e34b5E, symObjAddr: 0x33C20, symBinAddr: 0x100031340, symSize: 0x6E0 }
  - { offset: 0x40DC7, size: 0x8, addend: 0x0, symName: __ZN4core5slice4sort6stable5drift4sort17hd3daeb0e07815f37E, symObjAddr: 0x34300, symBinAddr: 0x100031A20, symSize: 0x690 }
  - { offset: 0x4157E, size: 0x8, addend: 0x0, symName: __ZN4core5slice4sort6stable5drift4sort17hdee5488c31b7bf79E, symObjAddr: 0x34990, symBinAddr: 0x1000320B0, symSize: 0x6B0 }
  - { offset: 0x41FBF, size: 0x8, addend: 0x0, symName: __ZN4core5slice4sort6stable9quicksort9quicksort17h49e735213ea776e8E, symObjAddr: 0x35040, symBinAddr: 0x100032760, symSize: 0xC20 }
  - { offset: 0x42D38, size: 0x8, addend: 0x0, symName: __ZN4core5slice4sort6stable9quicksort9quicksort17h4e0f96bb5e50204eE, symObjAddr: 0x35C60, symBinAddr: 0x100033380, symSize: 0xD60 }
  - { offset: 0x43AE7, size: 0x8, addend: 0x0, symName: __ZN4core5slice4sort6stable9quicksort9quicksort17h5039615b86acfb17E, symObjAddr: 0x369C0, symBinAddr: 0x1000340E0, symSize: 0xB50 }
  - { offset: 0x448E1, size: 0x8, addend: 0x0, symName: __ZN4core5slice4sort6stable9quicksort9quicksort17h54d5655b54e85608E, symObjAddr: 0x37510, symBinAddr: 0x100034C30, symSize: 0xC40 }
  - { offset: 0x4566A, size: 0x8, addend: 0x0, symName: __ZN4core5slice4sort6stable9quicksort9quicksort17h563ccb161c809bb9E, symObjAddr: 0x38150, symBinAddr: 0x100035870, symSize: 0xB50 }
  - { offset: 0x45F42, size: 0x8, addend: 0x0, symName: __ZN4core5slice4sort6stable9quicksort9quicksort17ha4eccc1b33417963E, symObjAddr: 0x38CA0, symBinAddr: 0x1000363C0, symSize: 0xBB0 }
  - { offset: 0x4746D, size: 0x8, addend: 0x0, symName: __ZN4core5slice4sort6shared9smallsort12sort4_stable17h429c53b39c3949acE, symObjAddr: 0x30980, symBinAddr: 0x10002E0A0, symSize: 0x1B0 }
  - { offset: 0x47644, size: 0x8, addend: 0x0, symName: __ZN4core5slice4sort6shared9smallsort12sort4_stable17h8e40b2e7e5f636d6E, symObjAddr: 0x30B30, symBinAddr: 0x10002E250, symSize: 0x1F0 }
  - { offset: 0x47A4F, size: 0x8, addend: 0x0, symName: __ZN4core5slice4sort6shared9smallsort12sort8_stable17hd86b794b574b633cE, symObjAddr: 0x30D20, symBinAddr: 0x10002E440, symSize: 0x3E0 }
  - { offset: 0x48107, size: 0x8, addend: 0x0, symName: __ZN4core5slice4sort6shared9smallsort18small_sort_general17h0ffd90b03ee23f71E, symObjAddr: 0x31100, symBinAddr: 0x10002E820, symSize: 0x510 }
  - { offset: 0x48624, size: 0x8, addend: 0x0, symName: __ZN4core5slice4sort6shared9smallsort18small_sort_general17h7a2a4ab0b4034136E, symObjAddr: 0x31610, symBinAddr: 0x10002ED30, symSize: 0x600 }
  - { offset: 0x48E27, size: 0x8, addend: 0x0, symName: __ZN4core5slice4sort6shared9smallsort25insertion_sort_shift_left17h0b99a1dace0461e0E, symObjAddr: 0x31C10, symBinAddr: 0x10002F330, symSize: 0x120 }
  - { offset: 0x48FEC, size: 0x8, addend: 0x0, symName: __ZN4core5slice4sort6shared9smallsort25insertion_sort_shift_left17h1aa889efeb4092c1E, symObjAddr: 0x31D30, symBinAddr: 0x10002F450, symSize: 0xF0 }
  - { offset: 0x4911A, size: 0x8, addend: 0x0, symName: __ZN4core5slice4sort6shared9smallsort25insertion_sort_shift_left17h39fda689822c34e3E, symObjAddr: 0x31E20, symBinAddr: 0x10002F540, symSize: 0xF0 }
  - { offset: 0x49249, size: 0x8, addend: 0x0, symName: __ZN4core5slice4sort6shared9smallsort25insertion_sort_shift_left17h519a67896e46d7b4E, symObjAddr: 0x31F10, symBinAddr: 0x10002F630, symSize: 0xC0 }
  - { offset: 0x49569, size: 0x8, addend: 0x0, symName: __ZN4core5slice4sort6shared5pivot11median3_rec17h0bad552e41eb9dc6E, symObjAddr: 0x302C0, symBinAddr: 0x10002D9E0, symSize: 0xC0 }
  - { offset: 0x49670, size: 0x8, addend: 0x0, symName: __ZN4core5slice4sort6shared5pivot11median3_rec17h69042159816e04f4E, symObjAddr: 0x30380, symBinAddr: 0x10002DAA0, symSize: 0xC0 }
  - { offset: 0x49779, size: 0x8, addend: 0x0, symName: __ZN4core5slice4sort6shared5pivot11median3_rec17h6b39c5ff16384b97E, symObjAddr: 0x30440, symBinAddr: 0x10002DB60, symSize: 0xB0 }
  - { offset: 0x498AC, size: 0x8, addend: 0x0, symName: __ZN4core5slice4sort6shared5pivot11median3_rec17h78bc361aba28d375E, symObjAddr: 0x304F0, symBinAddr: 0x10002DC10, symSize: 0x140 }
  - { offset: 0x49AE1, size: 0x8, addend: 0x0, symName: __ZN4core5slice4sort6shared5pivot11median3_rec17h864e4c2ed0405f91E, symObjAddr: 0x30630, symBinAddr: 0x10002DD50, symSize: 0xC0 }
  - { offset: 0x49BE8, size: 0x8, addend: 0x0, symName: __ZN4core5slice4sort6shared5pivot11median3_rec17h9ee77f2cab2d4c5dE, symObjAddr: 0x306F0, symBinAddr: 0x10002DE10, symSize: 0xC0 }
  - { offset: 0x49CEF, size: 0x8, addend: 0x0, symName: __ZN4core5slice4sort6shared5pivot11median3_rec17ha14fc07cd9e49161E, symObjAddr: 0x307B0, symBinAddr: 0x10002DED0, symSize: 0xC0 }
  - { offset: 0x49DF6, size: 0x8, addend: 0x0, symName: __ZN4core5slice4sort6shared5pivot11median3_rec17hfa048ff775602914E, symObjAddr: 0x30870, symBinAddr: 0x10002DF90, symSize: 0x110 }
  - { offset: 0x4A002, size: 0x8, addend: 0x0, symName: '__ZN55_$LT$$RF$str$u20$as$u20$core..str..pattern..Pattern$GT$15is_contained_in17hc8794a96b582b38aE', symObjAddr: 0x3B790, symBinAddr: 0x1000381C0, symSize: 0x860 }
  - { offset: 0x4A79D, size: 0x8, addend: 0x0, symName: '__ZN4core3str7pattern13simd_contains28_$u7b$$u7b$closure$u7d$$u7d$17ha6d539c15f4ab7c0E', symObjAddr: 0x2C040, symBinAddr: 0x10005AF20, symSize: 0x100 }
  - { offset: 0x4C254, size: 0x8, addend: 0x0, symName: '__ZN4core3ops8function6FnOnce40call_once$u7b$$u7b$vtable.shim$u7d$$u7d$17h0d3238feb6ae2c7dE', symObjAddr: 0x29150, symBinAddr: 0x10002B6E0, symSize: 0x10 }
  - { offset: 0x4C290, size: 0x8, addend: 0x0, symName: '__ZN4core3ops8function6FnOnce40call_once$u7b$$u7b$vtable.shim$u7d$$u7d$17h3292d6654d591370E', symObjAddr: 0x29160, symBinAddr: 0x10002B6F0, symSize: 0x90 }
  - { offset: 0x4C374, size: 0x8, addend: 0x0, symName: '__ZN4core3ops8function6FnOnce40call_once$u7b$$u7b$vtable.shim$u7d$$u7d$17h59b44727da8ea4adE', symObjAddr: 0x29280, symBinAddr: 0x10002B780, symSize: 0x90 }
  - { offset: 0x4C4DE, size: 0x8, addend: 0x0, symName: '__ZN4core3ops8function6FnOnce40call_once$u7b$$u7b$vtable.shim$u7d$$u7d$17h8ff5d8d366cb3dcdE', symObjAddr: 0x29350, symBinAddr: 0x10002B810, symSize: 0x90 }
  - { offset: 0x4C624, size: 0x8, addend: 0x0, symName: '__ZN4core3ops8function6FnOnce40call_once$u7b$$u7b$vtable.shim$u7d$$u7d$17h994b7e277a3827ddE', symObjAddr: 0x293E0, symBinAddr: 0x10002B8A0, symSize: 0x10 }
  - { offset: 0x4C675, size: 0x8, addend: 0x0, symName: '__ZN4core3ops8function6FnOnce40call_once$u7b$$u7b$vtable.shim$u7d$$u7d$17h9e6dbb12aa376ac1E', symObjAddr: 0x29400, symBinAddr: 0x10002B8B0, symSize: 0x10 }
  - { offset: 0x4C6B1, size: 0x8, addend: 0x0, symName: '__ZN4core3ops8function6FnOnce40call_once$u7b$$u7b$vtable.shim$u7d$$u7d$17hdb0d13364863d228E', symObjAddr: 0x29420, symBinAddr: 0x10002B8C0, symSize: 0x20 }
  - { offset: 0x4C6ED, size: 0x8, addend: 0x0, symName: '__ZN4core3ops8function6FnOnce40call_once$u7b$$u7b$vtable.shim$u7d$$u7d$17hf1524fee5c53f54cE', symObjAddr: 0x294E0, symBinAddr: 0x10002B8E0, symSize: 0x10 }
  - { offset: 0x4D556, size: 0x8, addend: 0x0, symName: '__ZN36_$LT$T$u20$as$u20$core..any..Any$GT$7type_id17hf38d30a50d909875E', symObjAddr: 0x1250, symBinAddr: 0x100017880, symSize: 0x30 }
  - { offset: 0x4D585, size: 0x8, addend: 0x0, symName: '__ZN36_$LT$T$u20$as$u20$core..any..Any$GT$7type_id17hfe9fbb449010764eE', symObjAddr: 0x1280, symBinAddr: 0x1000178B0, symSize: 0x30 }
  - { offset: 0x4E47D, size: 0x8, addend: 0x0, symName: '__ZN4core5array69_$LT$impl$u20$core..fmt..Debug$u20$for$u20$$u5b$T$u3b$$u20$N$u5d$$GT$3fmt17h374d7be30a463273E', symObjAddr: 0x300E0, symBinAddr: 0x10002D870, symSize: 0xF0 }
  - { offset: 0x4E715, size: 0x8, addend: 0x0, symName: '__ZN4core4cell4once17OnceCell$LT$T$GT$8try_init17h164ad122d3fdde11E', symObjAddr: 0x2C140, symBinAddr: 0x10005B020, symSize: 0x70 }
  - { offset: 0x4E733, size: 0x8, addend: 0x0, symName: '__ZN4core4cell4once17OnceCell$LT$T$GT$8try_init17h164ad122d3fdde11E', symObjAddr: 0x2C140, symBinAddr: 0x10005B020, symSize: 0x70 }
  - { offset: 0x4E748, size: 0x8, addend: 0x0, symName: '__ZN4core4cell4once17OnceCell$LT$T$GT$8try_init17h164ad122d3fdde11E', symObjAddr: 0x2C140, symBinAddr: 0x10005B020, symSize: 0x70 }
  - { offset: 0x4E75C, size: 0x8, addend: 0x0, symName: '__ZN4core4cell4once17OnceCell$LT$T$GT$8try_init17h164ad122d3fdde11E', symObjAddr: 0x2C140, symBinAddr: 0x10005B020, symSize: 0x70 }
  - { offset: 0x4E7B3, size: 0x8, addend: 0x0, symName: '__ZN4core4cell4once17OnceCell$LT$T$GT$8try_init17h5eaa6e42f622c98bE', symObjAddr: 0x2C1B0, symBinAddr: 0x10005B090, symSize: 0x80 }
  - { offset: 0x4E866, size: 0x8, addend: 0x0, symName: '__ZN4core4cell4once17OnceCell$LT$T$GT$8try_init17h8d9b52977b5ff1b0E', symObjAddr: 0x2C230, symBinAddr: 0x10005B110, symSize: 0x8B0 }
  - { offset: 0x4F423, size: 0x8, addend: 0x0, symName: '__ZN4core4cell4once17OnceCell$LT$T$GT$8try_init17h963735826f59da1dE', symObjAddr: 0x2CAE0, symBinAddr: 0x10005B9C0, symSize: 0x110 }
  - { offset: 0x4F683, size: 0x8, addend: 0x0, symName: '__ZN4core4cell4once17OnceCell$LT$T$GT$8try_init17hbb32d690264a29aeE', symObjAddr: 0x2CBF0, symBinAddr: 0x10005BAD0, symSize: 0x25C0 }
  - { offset: 0x5282F, size: 0x8, addend: 0x0, symName: '__ZN4core4cell4once17OnceCell$LT$T$GT$8try_init17he85fbe2a3a1ae7fbE', symObjAddr: 0x2F1B0, symBinAddr: 0x10005E090, symSize: 0xF30 }
  - { offset: 0x5441E, size: 0x8, addend: 0x0, symName: __ZN4core5error5Error11description17ha6a6a08fd0b06ebcE, symObjAddr: 0x301F0, symBinAddr: 0x10002D960, symSize: 0x20 }
  - { offset: 0x54438, size: 0x8, addend: 0x0, symName: __ZN4core5error5Error5cause17h5b5fd61b0af24bd8E, symObjAddr: 0x30210, symBinAddr: 0x10002D980, symSize: 0x10 }
  - { offset: 0x54452, size: 0x8, addend: 0x0, symName: __ZN4core5error5Error7provide17hcf50e4f5391fe1b4E, symObjAddr: 0x30240, symBinAddr: 0x10002D990, symSize: 0x10 }
  - { offset: 0x5446C, size: 0x8, addend: 0x0, symName: __ZN4core5error5Error7type_id17h1548aa106e60bc02E, symObjAddr: 0x30250, symBinAddr: 0x10002D9A0, symSize: 0x30 }
  - { offset: 0x544A2, size: 0x8, addend: 0x0, symName: __ZN4core9panicking13assert_failed17h65a30f1e9a91e300E, symObjAddr: 0x3AA61, symBinAddr: 0x10005EFC1, symSize: 0x33 }
  - { offset: 0x544BE, size: 0x8, addend: 0x0, symName: __ZN4core9panicking13assert_failed17hd751ab4adab24333E, symObjAddr: 0x3AAF2, symBinAddr: 0x10005F002, symSize: 0x3E }
  - { offset: 0x545A3, size: 0x8, addend: 0x0, symName: __RNvCskdKJRKLKjqM_7___rustc10rust_panic, symObjAddr: 0x0, symBinAddr: 0x10005A390, symSize: 0x70 }
  - { offset: 0x545D4, size: 0x8, addend: 0x0, symName: __RNvCskdKJRKLKjqM_7___rustc17___rust_drop_panic, symObjAddr: 0x1D0, symBinAddr: 0x1000174A0, symSize: 0xD0 }
  - { offset: 0x5481F, size: 0x8, addend: 0x0, symName: __RNvCskdKJRKLKjqM_7___rustc17rust_begin_unwind, symObjAddr: 0x2A0, symBinAddr: 0x100017570, symSize: 0x30 }
  - { offset: 0x54865, size: 0x8, addend: 0x0, symName: __RNvCskdKJRKLKjqM_7___rustc24___rust_foreign_exception, symObjAddr: 0x360, symBinAddr: 0x100017630, symSize: 0xD0 }
  - { offset: 0x54B2E, size: 0x8, addend: 0x0, symName: __ZN3std9panicking11panic_count17is_zero_slow_path17hc9cf2ba853cb1a44E, symObjAddr: 0x26310, symBinAddr: 0x10005AF00, symSize: 0x20 }
  - { offset: 0x54BDD, size: 0x8, addend: 0x0, symName: __ZN3std9panicking11panic_count8increase17hf57f6317579ad19bE, symObjAddr: 0x26370, symBinAddr: 0x10002A0B0, symSize: 0x40 }
  - { offset: 0x54BF4, size: 0x8, addend: 0x0, symName: __ZN3std9panicking11panic_count8increase17hf57f6317579ad19bE, symObjAddr: 0x26370, symBinAddr: 0x10002A0B0, symSize: 0x40 }
  - { offset: 0x54C09, size: 0x8, addend: 0x0, symName: __ZN3std9panicking11panic_count8increase17hf57f6317579ad19bE, symObjAddr: 0x26370, symBinAddr: 0x10002A0B0, symSize: 0x40 }
  - { offset: 0x54DBF, size: 0x8, addend: 0x0, symName: __ZN3std9panicking12default_hook17hfd692237a6812b4aE, symObjAddr: 0x263EB, symBinAddr: 0x10002A0FB, symSize: 0x12B }
  - { offset: 0x54F56, size: 0x8, addend: 0x0, symName: '__ZN3std9panicking12default_hook28_$u7b$$u7b$closure$u7d$$u7d$17h4c39689ecd8341bfE', symObjAddr: 0x26516, symBinAddr: 0x10002A226, symSize: 0x18A }
  - { offset: 0x5511D, size: 0x8, addend: 0x0, symName: '__ZN3std9panicking12default_hook28_$u7b$$u7b$closure$u7d$$u7d$28_$u7b$$u7b$closure$u7d$$u7d$17h141942b3ab6b1748E', symObjAddr: 0x266A0, symBinAddr: 0x10002A3B0, symSize: 0x380 }
  - { offset: 0x5584D, size: 0x8, addend: 0x0, symName: __ZN3std9panicking13panic_handler19FormatStringPayload4fill17hd583736f0adc2b9eE, symObjAddr: 0x26A20, symBinAddr: 0x10002A730, symSize: 0xC0 }
  - { offset: 0x5596A, size: 0x8, addend: 0x0, symName: '__ZN3std9panicking13panic_handler28_$u7b$$u7b$closure$u7d$$u7d$17h0449b52d62cc4acdE', symObjAddr: 0x26AE0, symBinAddr: 0x10002A7F0, symSize: 0xD0 }
  - { offset: 0x55AC6, size: 0x8, addend: 0x0, symName: '__ZN86_$LT$std..panicking..panic_handler..StaticStrPayload$u20$as$u20$core..fmt..Display$GT$3fmt17h611d737e25d39e04E', symObjAddr: 0x58C20, symBinAddr: 0x100048B50, symSize: 0x20 }
  - { offset: 0x55AE7, size: 0x8, addend: 0x0, symName: '__ZN89_$LT$std..panicking..panic_handler..FormatStringPayload$u20$as$u20$core..fmt..Display$GT$3fmt17h2c418704e9a80b67E', symObjAddr: 0x59030, symBinAddr: 0x100048B70, symSize: 0x70 }
  - { offset: 0x55BDB, size: 0x8, addend: 0x0, symName: '__ZN93_$LT$std..panicking..panic_handler..StaticStrPayload$u20$as$u20$core..panic..PanicPayload$GT$3get17h54b2dcb3b150a54cE', symObjAddr: 0x59900, symBinAddr: 0x100048D00, symSize: 0x10 }
  - { offset: 0x55BF6, size: 0x8, addend: 0x0, symName: '__ZN93_$LT$std..panicking..panic_handler..StaticStrPayload$u20$as$u20$core..panic..PanicPayload$GT$6as_str17h5a1a7c38fda21c29E', symObjAddr: 0x59910, symBinAddr: 0x100048D10, symSize: 0x10 }
  - { offset: 0x55C11, size: 0x8, addend: 0x0, symName: '__ZN93_$LT$std..panicking..panic_handler..StaticStrPayload$u20$as$u20$core..panic..PanicPayload$GT$8take_box17hdf5e7dcb860e8869E', symObjAddr: 0x59920, symBinAddr: 0x100048D20, symSize: 0x50 }
  - { offset: 0x55C8E, size: 0x8, addend: 0x0, symName: '__ZN96_$LT$std..panicking..panic_handler..FormatStringPayload$u20$as$u20$core..panic..PanicPayload$GT$3get17he619996a915dba5aE', symObjAddr: 0x5A150, symBinAddr: 0x100049190, symSize: 0x20 }
  - { offset: 0x55CA9, size: 0x8, addend: 0x0, symName: '__ZN96_$LT$std..panicking..panic_handler..FormatStringPayload$u20$as$u20$core..panic..PanicPayload$GT$8take_box17h1d68480d8bee4f17E', symObjAddr: 0x5A170, symBinAddr: 0x1000491B0, symSize: 0xA0 }
  - { offset: 0x55DFB, size: 0x8, addend: 0x0, symName: __ZN3std9panicking14payload_as_str17h7b83b1c48b989ea0E, symObjAddr: 0x26C50, symBinAddr: 0x10002A8C0, symSize: 0x7D }
  - { offset: 0x55F40, size: 0x8, addend: 0x0, symName: __ZN3std9panicking15panic_with_hook17he1033abc98626357E, symObjAddr: 0x26CCD, symBinAddr: 0x10002A93D, symSize: 0x43D }
  - { offset: 0x56851, size: 0x8, addend: 0x0, symName: '__ZN102_$LT$std..sys..process..unix..common..cstring_array..CStringArray$u20$as$u20$core..ops..drop..Drop$GT$4drop17he5543c9769e7fd90E', symObjAddr: 0x450, symBinAddr: 0x100017700, symSize: 0x80 }
  - { offset: 0x56A40, size: 0x8, addend: 0x0, symName: '__ZN3std3sys7process4unix4unix58_$LT$impl$u20$std..sys..process..unix..common..Command$GT$5spawn17h46e68499be7c758aE', symObjAddr: 0x1C540, symBinAddr: 0x100025A50, symSize: 0xB40 }
  - { offset: 0x57B78, size: 0x8, addend: 0x0, symName: '__ZN3std3sys7process4unix4unix58_$LT$impl$u20$std..sys..process..unix..common..Command$GT$7do_exec17hc77e9106886026bdE', symObjAddr: 0x1D080, symBinAddr: 0x100026590, symSize: 0x300 }
  - { offset: 0x5848A, size: 0x8, addend: 0x0, symName: __ZN3std3sys7process4unix6common7Command11capture_env17hd300f48339f72723E, symObjAddr: 0x1D560, symBinAddr: 0x100026A70, symSize: 0x1340 }
  - { offset: 0x5A8C3, size: 0x8, addend: 0x0, symName: __ZN3std3sys7process4unix6common7Command3arg17h2290bede5cd0c511E, symObjAddr: 0x1E8A0, symBinAddr: 0x100027DB0, symSize: 0xE0 }
  - { offset: 0x5ABDB, size: 0x8, addend: 0x0, symName: __ZN3std3sys7process4unix6common7Command3new17h8c9a3e952b3e1597E, symObjAddr: 0x1EA50, symBinAddr: 0x100027E90, symSize: 0x2C0 }
  - { offset: 0x5B15A, size: 0x8, addend: 0x0, symName: __ZN3std3sys7process4unix6common7Command8setup_io17h44d01f140f181a7bE, symObjAddr: 0x1EF40, symBinAddr: 0x100028150, symSize: 0x2C0 }
  - { offset: 0x5B5A2, size: 0x8, addend: 0x0, symName: __ZN3std3sys7process4unix6common5Stdio14to_child_stdio17h71e11b2b2a755fcfE, symObjAddr: 0x1D410, symBinAddr: 0x100026920, symSize: 0x150 }
  - { offset: 0x5B770, size: 0x8, addend: 0x0, symName: __ZN3std3sys7process4unix4unix7Process4wait17h0b44ee4aeb74829cE, symObjAddr: 0x1D380, symBinAddr: 0x100026890, symSize: 0x90 }
  - { offset: 0x5B8B1, size: 0x8, addend: 0x0, symName: '__ZN80_$LT$std..sys..process..unix..unix..ExitStatus$u20$as$u20$core..fmt..Display$GT$3fmt17hc33c97fa68090ecbE', symObjAddr: 0x57740, symBinAddr: 0x1000485D0, symSize: 0x280 }
  - { offset: 0x5BAF5, size: 0x8, addend: 0x0, symName: __ZN3std3sys3pal6common14small_c_string24run_with_cstr_allocating17h5cc89072fa4ee439E, symObjAddr: 0x19EE0, symBinAddr: 0x10005A6B0, symSize: 0x90 }
  - { offset: 0x5BC64, size: 0x8, addend: 0x0, symName: __ZN3std3sys3pal6common14small_c_string24run_with_cstr_allocating17hc579900339e23d19E, symObjAddr: 0x1A190, symBinAddr: 0x10005A740, symSize: 0xB0 }
  - { offset: 0x5BE40, size: 0x8, addend: 0x0, symName: __ZN3std3sys3pal6common14small_c_string24run_with_cstr_allocating17he4af3d6cbd61cc52E, symObjAddr: 0x1A2F0, symBinAddr: 0x10005A7F0, symSize: 0xB0 }
  - { offset: 0x5C061, size: 0x8, addend: 0x0, symName: __ZN3std3sys3pal4unix14stack_overflow11thread_info16set_current_info17h9c07c7c3f5a792f2E, symObjAddr: 0x17860, symBinAddr: 0x100023620, symSize: 0xEA0 }
  - { offset: 0x5D353, size: 0x8, addend: 0x0, symName: __ZN3std3sys3pal4unix14stack_overflow3imp12drop_handler17h10e97a4f0d9b05d8E, symObjAddr: 0x18700, symBinAddr: 0x1000244C0, symSize: 0x520 }
  - { offset: 0x5DBD4, size: 0x8, addend: 0x0, symName: __ZN3std3sys3pal4unix14stack_overflow3imp12make_handler17h7ea0af42963bc428E, symObjAddr: 0x18C20, symBinAddr: 0x1000249E0, symSize: 0x290 }
  - { offset: 0x5DFA7, size: 0x8, addend: 0x0, symName: __ZN3std3sys3pal4unix14stack_overflow3imp14signal_handler17ha77e123931615aa3E, symObjAddr: 0x18EB0, symBinAddr: 0x100024C70, symSize: 0x380 }
  - { offset: 0x5E6A5, size: 0x8, addend: 0x0, symName: __ZN3std3sys3pal4unix4sync5mutex5Mutex4init17hc0cd42f50e15ec42E, symObjAddr: 0x199B0, symBinAddr: 0x1000255E0, symSize: 0x160 }
  - { offset: 0x5E761, size: 0x8, addend: 0x0, symName: __ZN3std3sys3pal4unix4sync5mutex5Mutex4lock4fail17ha33bd018f471c78aE, symObjAddr: 0x19B30, symBinAddr: 0x10005A5B0, symSize: 0x100 }
  - { offset: 0x5EA89, size: 0x8, addend: 0x0, symName: __ZN3std3sys3pal4unix14abort_internal17h2d7ebcba1920d509E, symObjAddr: 0x17850, symBinAddr: 0x10005A5A0, symSize: 0x10 }
  - { offset: 0x5EAA4, size: 0x8, addend: 0x0, symName: __ZN3std3sys3pal4unix17decode_error_kind17h447b85d7b88dc1dcE, symObjAddr: 0x19230, symBinAddr: 0x100024FF0, symSize: 0x250 }
  - { offset: 0x5EAF6, size: 0x8, addend: 0x0, symName: __ZN3std3sys3pal4unix4pipe5read217ha7a4612c351c75ceE, symObjAddr: 0x19610, symBinAddr: 0x100025240, symSize: 0x240 }
  - { offset: 0x5EFEC, size: 0x8, addend: 0x0, symName: __ZN3std3sys3pal4unix4pipe8AnonPipe5write17h03f32ade1d6c5c2bE, symObjAddr: 0x19850, symBinAddr: 0x100025480, symSize: 0x50 }
  - { offset: 0x5F0DC, size: 0x8, addend: 0x0, symName: __ZN3std3sys3pal4unix4pipe9anon_pipe17h32c3626b874411c6E, symObjAddr: 0x198A0, symBinAddr: 0x1000254D0, symSize: 0x110 }
  - { offset: 0x5F49F, size: 0x8, addend: 0x0, symName: __ZN3std3sys12thread_local6native5eager7destroy17h52ab99797ee9e6c0E, symObjAddr: 0x122C0, symBinAddr: 0x100022C40, symSize: 0x20 }
  - { offset: 0x5F621, size: 0x8, addend: 0x0, symName: __ZN3std3sys12thread_local5guard5apple6enable9run_dtors17h38edc9b0697859adE, symObjAddr: 0x121D0, symBinAddr: 0x100022B50, symSize: 0xF0 }
  - { offset: 0x5FABF, size: 0x8, addend: 0x0, symName: __ZN3std3sys12thread_local11destructors4list8register17h1d9ec60dd9886de7E, symObjAddr: 0x120E0, symBinAddr: 0x100022A60, symSize: 0xF0 }
  - { offset: 0x5FD9B, size: 0x8, addend: 0x0, symName: __ZN3std3sys3env4unix13env_read_lock17h6b780f3777072ce3E, symObjAddr: 0x165B0, symBinAddr: 0x100023280, symSize: 0x280 }
  - { offset: 0x60462, size: 0x8, addend: 0x0, symName: '__ZN3std3sys3env4unix6getenv28_$u7b$$u7b$closure$u7d$$u7d$17hbced0c0771611cafE', symObjAddr: 0x16830, symBinAddr: 0x100023500, symSize: 0x120 }
  - { offset: 0x60759, size: 0x8, addend: 0x0, symName: __ZN3std3sys2fs4unix4File6open_c17he05b2f9a6cd0c0a5E, symObjAddr: 0x14FB0, symBinAddr: 0x100022F00, symSize: 0x180 }
  - { offset: 0x60914, size: 0x8, addend: 0x0, symName: '__ZN65_$LT$std..sys..fs..unix..Dir$u20$as$u20$core..ops..drop..Drop$GT$4drop17h00566fb81437571eE', symObjAddr: 0x531C0, symBinAddr: 0x100047BD0, symSize: 0xD0 }
  - { offset: 0x60A0A, size: 0x8, addend: 0x0, symName: __ZN3std3sys2fs8read_dir17he96197a45d71fcd1E, symObjAddr: 0x160D0, symBinAddr: 0x100023080, symSize: 0x200 }
  - { offset: 0x60E1C, size: 0x8, addend: 0x0, symName: __ZN3std3sys2fd4unix8FileDesc11read_to_end17h9d33e58bea107262E, symObjAddr: 0x137D0, symBinAddr: 0x100022C60, symSize: 0x2A0 }
  - { offset: 0x612CA, size: 0x8, addend: 0x0, symName: '__ZN64_$LT$std..sys..stdio..unix..Stderr$u20$as$u20$std..io..Write$GT$14write_vectored17h2dbb79a2e8dce948E', symObjAddr: 0x52F00, symBinAddr: 0x100047B10, symSize: 0x50 }
  - { offset: 0x61399, size: 0x8, addend: 0x0, symName: '__ZN64_$LT$std..sys..stdio..unix..Stderr$u20$as$u20$std..io..Write$GT$17is_write_vectored17h9d9019aa34dca71eE', symObjAddr: 0x52F50, symBinAddr: 0x100047B60, symSize: 0x10 }
  - { offset: 0x613B3, size: 0x8, addend: 0x0, symName: '__ZN64_$LT$std..sys..stdio..unix..Stderr$u20$as$u20$std..io..Write$GT$5flush17haca374bc2fb40ebcE', symObjAddr: 0x52F60, symBinAddr: 0x100047B70, symSize: 0x10 }
  - { offset: 0x613CD, size: 0x8, addend: 0x0, symName: '__ZN64_$LT$std..sys..stdio..unix..Stderr$u20$as$u20$std..io..Write$GT$5write17h4b5035fe5e5f2032E', symObjAddr: 0x52F70, symBinAddr: 0x100047B80, symSize: 0x50 }
  - { offset: 0x6151A, size: 0x8, addend: 0x0, symName: '__ZN3std3sys4sync8once_box16OnceBox$LT$T$GT$10initialize17h6aa2ce4cfc78c157E', symObjAddr: 0x1B490, symBinAddr: 0x10005AB40, symSize: 0x120 }
  - { offset: 0x617DC, size: 0x8, addend: 0x0, symName: __ZN3std3sys4sync4once5queue4Once4call17h8e466067d86cbcb3E, symObjAddr: 0x1A7E0, symBinAddr: 0x10005A8A0, symSize: 0x210 }
  - { offset: 0x61A96, size: 0x8, addend: 0x0, symName: '__ZN82_$LT$std..sys..sync..once..queue..WaiterQueue$u20$as$u20$core..ops..drop..Drop$GT$4drop17h17a27c240e6095eaE', symObjAddr: 0x586D0, symBinAddr: 0x100048A80, symSize: 0xD0 }
  - { offset: 0x61C4B, size: 0x8, addend: 0x0, symName: __ZN3std3sys4sync4once5queue4wait17hcf137e24f8369e0fE, symObjAddr: 0x1ABE0, symBinAddr: 0x100025740, symSize: 0x160 }
  - { offset: 0x6212E, size: 0x8, addend: 0x0, symName: __ZN3std3sys4sync6rwlock5queue6RwLock12unlock_queue17h2b38c5d2f4e14db6E, symObjAddr: 0x1AD60, symBinAddr: 0x1000258A0, symSize: 0x180 }
  - { offset: 0x6274D, size: 0x8, addend: 0x0, symName: __ZN3std3sys4sync6rwlock5queue6RwLock16unlock_contended17h434533e27b51e3a9E, symObjAddr: 0x1B1F0, symBinAddr: 0x10005AAB0, symSize: 0x40 }
  - { offset: 0x62829, size: 0x8, addend: 0x0, symName: __ZN3std3sys4sync6rwlock5queue6RwLock21read_unlock_contended17ha0f88a0fd7df0d66E, symObjAddr: 0x1B230, symBinAddr: 0x10005AAF0, symSize: 0x50 }
  - { offset: 0x62A81, size: 0x8, addend: 0x0, symName: __ZN3std3sys4sync6rwlock5queue9read_lock17h5e2659437ef5e87cE, symObjAddr: 0x1B280, symBinAddr: 0x100025A20, symSize: 0x30 }
  - { offset: 0x62A9A, size: 0x8, addend: 0x0, symName: '__ZN83_$LT$std..sys..sync..rwlock..queue..PanicGuard$u20$as$u20$core..ops..drop..Drop$GT$4drop17h9abf048048014633E', symObjAddr: 0x58950, symBinAddr: 0x10005F190, symSize: 0x60 }
  - { offset: 0x62B5F, size: 0x8, addend: 0x0, symName: '__ZN3std3sys11personality3gcc14find_eh_action28_$u7b$$u7b$closure$u7d$$u7d$17h71a716f7697f7c23E', symObjAddr: 0x120C0, symBinAddr: 0x100022A40, symSize: 0x10 }
  - { offset: 0x62B73, size: 0x8, addend: 0x0, symName: '__ZN3std3sys11personality3gcc14find_eh_action28_$u7b$$u7b$closure$u7d$$u7d$17hf3d297c424dd88bbE', symObjAddr: 0x120D0, symBinAddr: 0x100022A50, symSize: 0x10 }
  - { offset: 0x62BBF, size: 0x8, addend: 0x0, symName: _rust_eh_personality, symObjAddr: 0x5D880, symBinAddr: 0x10004C620, symSize: 0x640 }
  - { offset: 0x636AE, size: 0x8, addend: 0x0, symName: '__ZN3std3sys9backtrace10_print_fmt28_$u7b$$u7b$closure$u7d$$u7d$17h240c89470c2fecd8E', symObjAddr: 0x1F310, symBinAddr: 0x100028410, symSize: 0x130 }
  - { offset: 0x63796, size: 0x8, addend: 0x0, symName: '__ZN3std3sys9backtrace10_print_fmt28_$u7b$$u7b$closure$u7d$$u7d$17h32646e4212c9eef0E', symObjAddr: 0x1F440, symBinAddr: 0x100028540, symSize: 0x20 }
  - { offset: 0x637D7, size: 0x8, addend: 0x0, symName: '__ZN3std3sys9backtrace10_print_fmt28_$u7b$$u7b$closure$u7d$$u7d$28_$u7b$$u7b$closure$u7d$$u7d$17h9218d583d276298aE', symObjAddr: 0x1F460, symBinAddr: 0x100028560, symSize: 0x2A0 }
  - { offset: 0x639CA, size: 0x8, addend: 0x0, symName: __ZN3std3sys9backtrace13BacktraceLock5print17h5e73de0c808691a4E, symObjAddr: 0x1F700, symBinAddr: 0x100028800, symSize: 0x60 }
  - { offset: 0x639FB, size: 0x8, addend: 0x0, symName: __ZN3std3sys9backtrace15output_filename17ha87664c578f770efE, symObjAddr: 0x1F760, symBinAddr: 0x100028860, symSize: 0x120 }
  - { offset: 0x63B67, size: 0x8, addend: 0x0, symName: __ZN3std3sys9backtrace26__rust_end_short_backtrace17h3fc1fab9d4b6800aE, symObjAddr: 0x1F880, symBinAddr: 0x100028980, symSize: 0x10 }
  - { offset: 0x63B81, size: 0x8, addend: 0x0, symName: __ZN3std3sys9backtrace4lock17h2bb35fe2884a3a88E, symObjAddr: 0x1F8A0, symBinAddr: 0x100028990, symSize: 0x80 }
  - { offset: 0x63CD7, size: 0x8, addend: 0x0, symName: '__ZN98_$LT$std..sys..backtrace..BacktraceLock..print..DisplayBacktrace$u20$as$u20$core..fmt..Display$GT$3fmt17hbb4f642dcc320b1dE', symObjAddr: 0x5A3B0, symBinAddr: 0x100049250, symSize: 0x280 }
  - { offset: 0x64236, size: 0x8, addend: 0x0, symName: __RNvCskdKJRKLKjqM_7___rustc11___rdl_alloc, symObjAddr: 0x70, symBinAddr: 0x100017350, symSize: 0x70 }
  - { offset: 0x642B4, size: 0x8, addend: 0x0, symName: __RNvCskdKJRKLKjqM_7___rustc13___rdl_dealloc, symObjAddr: 0xF0, symBinAddr: 0x1000173C0, symSize: 0x10 }
  - { offset: 0x642E5, size: 0x8, addend: 0x0, symName: __RNvCskdKJRKLKjqM_7___rustc13___rdl_realloc, symObjAddr: 0x100, symBinAddr: 0x1000173D0, symSize: 0xD0 }
  - { offset: 0x643C9, size: 0x8, addend: 0x0, symName: __RNvCskdKJRKLKjqM_7___rustc18___rdl_alloc_zeroed, symObjAddr: 0x2D0, symBinAddr: 0x1000175A0, symSize: 0x90 }
  - { offset: 0x6446E, size: 0x8, addend: 0x0, symName: __RNvCskdKJRKLKjqM_7___rustc8___rg_oom, symObjAddr: 0x430, symBinAddr: 0x10005A400, symSize: 0x20 }
  - { offset: 0x6448A, size: 0x8, addend: 0x0, symName: __ZN3std5alloc24default_alloc_error_hook17h037631a9e9542696E, symObjAddr: 0x23AD0, symBinAddr: 0x100029970, symSize: 0x160 }
  - { offset: 0x64717, size: 0x8, addend: 0x0, symName: __ZN3std5alloc8rust_oom17he6554ab5e3e4bfbfE, symObjAddr: 0x23C30, symBinAddr: 0x10005AD20, symSize: 0x20 }
  - { offset: 0x64764, size: 0x8, addend: 0x0, symName: __ZN3std2rt15handle_rt_panic17hc19cb4ec1bf553a3E, symObjAddr: 0xF090, symBinAddr: 0x10005A540, symSize: 0x60 }
  - { offset: 0x647F4, size: 0x8, addend: 0x0, symName: __ZN3std2rt19lang_start_internal17he54b1e510ff92df3E, symObjAddr: 0xF0F0, symBinAddr: 0x100021C10, symSize: 0x6C0 }
  - { offset: 0x65400, size: 0x8, addend: 0x0, symName: __ZN3std2io5error14repr_bitpacked11decode_repr17ha713e1d9a867e6ffE, symObjAddr: 0xC820, symBinAddr: 0x100020CE0, symSize: 0x60 }
  - { offset: 0x65494, size: 0x8, addend: 0x0, symName: __ZN3std2io5error5Error3new17hca09cf106a8bb92bE, symObjAddr: 0xC960, symBinAddr: 0x100020D40, symSize: 0x120 }
  - { offset: 0x65891, size: 0x8, addend: 0x0, symName: '__ZN3std2io5error83_$LT$impl$u20$core..fmt..Debug$u20$for$u20$std..io..error..repr_bitpacked..Repr$GT$3fmt17h0c2c47996b5c8151E', symObjAddr: 0xCB00, symBinAddr: 0x100020E60, symSize: 0x300 }
  - { offset: 0x65AE9, size: 0x8, addend: 0x0, symName: '__ZN58_$LT$std..io..error..Error$u20$as$u20$core..fmt..Debug$GT$3fmt17h4e87839884dfef9aE', symObjAddr: 0x3D080, symBinAddr: 0x100038BD0, symSize: 0x10 }
  - { offset: 0x65B03, size: 0x8, addend: 0x0, symName: '__ZN60_$LT$std..io..error..Error$u20$as$u20$core..fmt..Display$GT$3fmt17hb9b71bb9d61087ecE', symObjAddr: 0x4F030, symBinAddr: 0x100047230, symSize: 0x280 }
  - { offset: 0x65D36, size: 0x8, addend: 0x0, symName: '__ZN62_$LT$std..io..error..ErrorKind$u20$as$u20$core..fmt..Debug$GT$3fmt17hd88fc964aff56ab8E', symObjAddr: 0x51C40, symBinAddr: 0x1000479B0, symSize: 0x30 }
  - { offset: 0x65DC9, size: 0x8, addend: 0x0, symName: '__ZN3std2io8buffered9bufwriter18BufWriter$LT$W$GT$14write_all_cold17h4cf021826987ea15E', symObjAddr: 0xDCD0, symBinAddr: 0x10005A420, symSize: 0x120 }
  - { offset: 0x66008, size: 0x8, addend: 0x0, symName: '__ZN3std2io8buffered9bufwriter18BufWriter$LT$W$GT$9flush_buf17h223037aba0b50117E', symObjAddr: 0xDDF0, symBinAddr: 0x1000219D0, symSize: 0x240 }
  - { offset: 0x66664, size: 0x8, addend: 0x0, symName: __ZN3std2io5Write18write_all_vectored17hc2fed901070b4d06E, symObjAddr: 0xC160, symBinAddr: 0x100020620, symSize: 0x1D0 }
  - { offset: 0x668A9, size: 0x8, addend: 0x0, symName: __ZN3std2io5Write9write_all17ha0278d11ab8e55b7E, symObjAddr: 0xC330, symBinAddr: 0x1000207F0, symSize: 0xA0 }
  - { offset: 0x66999, size: 0x8, addend: 0x0, symName: __ZN3std2io5Write9write_fmt17h0157f34dfbceefe5E, symObjAddr: 0xC3D0, symBinAddr: 0x100020890, symSize: 0x170 }
  - { offset: 0x66C73, size: 0x8, addend: 0x0, symName: __ZN3std2io5Write9write_fmt17h24b62528f4d1168aE, symObjAddr: 0xC540, symBinAddr: 0x100020A00, symSize: 0x170 }
  - { offset: 0x66F4D, size: 0x8, addend: 0x0, symName: __ZN3std2io5Write9write_fmt17h5e34a6300392fe22E, symObjAddr: 0xC6B0, symBinAddr: 0x100020B70, symSize: 0x170 }
  - { offset: 0x67292, size: 0x8, addend: 0x0, symName: __ZN3std2io5stdio22try_set_output_capture17hb613035c20b6d0f1E, symObjAddr: 0xD2C0, symBinAddr: 0x100021550, symSize: 0xB0 }
  - { offset: 0x67527, size: 0x8, addend: 0x0, symName: __ZN3std2io5stdio31print_to_buffer_if_capture_used17hde0c84d24b5006f1E, symObjAddr: 0xD440, symBinAddr: 0x100021600, symSize: 0x220 }
  - { offset: 0x67C39, size: 0x8, addend: 0x0, symName: __ZN3std2io5stdio6Stderr4lock17h9794f8e40f87e1fdE, symObjAddr: 0xD8C0, symBinAddr: 0x100021820, symSize: 0xC0 }
  - { offset: 0x67F08, size: 0x8, addend: 0x0, symName: __ZN3std2io5stdio6_print17he5f702afc7c35b8cE, symObjAddr: 0xD980, symBinAddr: 0x1000218E0, symSize: 0xF0 }
  - { offset: 0x6807D, size: 0x8, addend: 0x0, symName: '__ZN61_$LT$$RF$std..io..stdio..Stdout$u20$as$u20$std..io..Write$GT$9write_fmt17h0eee9ce97af14d23E', symObjAddr: 0x50590, symBinAddr: 0x1000474B0, symSize: 0x1C0 }
  - { offset: 0x68501, size: 0x8, addend: 0x0, symName: '__ZN61_$LT$std..io..stdio..StdoutLock$u20$as$u20$std..io..Write$GT$9write_all17h054337cb99b92b16E', symObjAddr: 0x51070, symBinAddr: 0x100047670, symSize: 0x260 }
  - { offset: 0x68B83, size: 0x8, addend: 0x0, symName: '__ZN3std2io5impls74_$LT$impl$u20$std..io..Write$u20$for$u20$alloc..vec..Vec$LT$u8$C$A$GT$$GT$14write_vectored17h396066abfc006fcaE', symObjAddr: 0xCE00, symBinAddr: 0x100021160, symSize: 0x180 }
  - { offset: 0x68D85, size: 0x8, addend: 0x0, symName: '__ZN3std2io5impls74_$LT$impl$u20$std..io..Write$u20$for$u20$alloc..vec..Vec$LT$u8$C$A$GT$$GT$17is_write_vectored17h473fffb9382bf9c6E', symObjAddr: 0xCF80, symBinAddr: 0x1000212E0, symSize: 0x10 }
  - { offset: 0x68DAE, size: 0x8, addend: 0x0, symName: '__ZN3std2io5impls74_$LT$impl$u20$std..io..Write$u20$for$u20$alloc..vec..Vec$LT$u8$C$A$GT$$GT$18write_all_vectored17hcfe81a52ebadbc0bE', symObjAddr: 0xCF90, symBinAddr: 0x1000212F0, symSize: 0x170 }
  - { offset: 0x68DD9, size: 0x8, addend: 0x0, symName: '__ZN3std2io5impls74_$LT$impl$u20$std..io..Write$u20$for$u20$alloc..vec..Vec$LT$u8$C$A$GT$$GT$18write_all_vectored17hcfe81a52ebadbc0bE', symObjAddr: 0xCF90, symBinAddr: 0x1000212F0, symSize: 0x170 }
  - { offset: 0x68DEE, size: 0x8, addend: 0x0, symName: '__ZN3std2io5impls74_$LT$impl$u20$std..io..Write$u20$for$u20$alloc..vec..Vec$LT$u8$C$A$GT$$GT$18write_all_vectored17hcfe81a52ebadbc0bE', symObjAddr: 0xCF90, symBinAddr: 0x1000212F0, symSize: 0x170 }
  - { offset: 0x68E03, size: 0x8, addend: 0x0, symName: '__ZN3std2io5impls74_$LT$impl$u20$std..io..Write$u20$for$u20$alloc..vec..Vec$LT$u8$C$A$GT$$GT$18write_all_vectored17hcfe81a52ebadbc0bE', symObjAddr: 0xCF90, symBinAddr: 0x1000212F0, symSize: 0x170 }
  - { offset: 0x68E17, size: 0x8, addend: 0x0, symName: '__ZN3std2io5impls74_$LT$impl$u20$std..io..Write$u20$for$u20$alloc..vec..Vec$LT$u8$C$A$GT$$GT$18write_all_vectored17hcfe81a52ebadbc0bE', symObjAddr: 0xCF90, symBinAddr: 0x1000212F0, symSize: 0x170 }
  - { offset: 0x68E2B, size: 0x8, addend: 0x0, symName: '__ZN3std2io5impls74_$LT$impl$u20$std..io..Write$u20$for$u20$alloc..vec..Vec$LT$u8$C$A$GT$$GT$18write_all_vectored17hcfe81a52ebadbc0bE', symObjAddr: 0xCF90, symBinAddr: 0x1000212F0, symSize: 0x170 }
  - { offset: 0x68FE5, size: 0x8, addend: 0x0, symName: '__ZN3std2io5impls74_$LT$impl$u20$std..io..Write$u20$for$u20$alloc..vec..Vec$LT$u8$C$A$GT$$GT$5flush17hc83d241489517b1fE', symObjAddr: 0xD100, symBinAddr: 0x100021460, symSize: 0x10 }
  - { offset: 0x69000, size: 0x8, addend: 0x0, symName: '__ZN3std2io5impls74_$LT$impl$u20$std..io..Write$u20$for$u20$alloc..vec..Vec$LT$u8$C$A$GT$$GT$5write17h0e0da068fc5acedeE', symObjAddr: 0xD110, symBinAddr: 0x100021470, symSize: 0x70 }
  - { offset: 0x690E6, size: 0x8, addend: 0x0, symName: '__ZN3std2io5impls74_$LT$impl$u20$std..io..Write$u20$for$u20$alloc..vec..Vec$LT$u8$C$A$GT$$GT$9write_all17h7bccd6e9d3e19e7fE', symObjAddr: 0xD180, symBinAddr: 0x1000214E0, symSize: 0x70 }
  - { offset: 0x691EE, size: 0x8, addend: 0x0, symName: __ZN3std2io19default_read_to_end16small_probe_read17h3f25e3d74cf47709E, symObjAddr: 0xB450, symBinAddr: 0x100020140, symSize: 0xF0 }
  - { offset: 0x693C8, size: 0x8, addend: 0x0, symName: __ZN3std2io19default_read_to_end16small_probe_read17hed37023dae20d6feE, symObjAddr: 0xB720, symBinAddr: 0x100020230, symSize: 0xF0 }
  - { offset: 0x69595, size: 0x8, addend: 0x0, symName: __ZN3std2io19default_read_to_end17h069e7671658f8157E, symObjAddr: 0xB810, symBinAddr: 0x100020320, symSize: 0x300 }
  - { offset: 0x69BA8, size: 0x8, addend: 0x0, symName: '__ZN81_$LT$std..io..default_write_fmt..Adapter$LT$T$GT$$u20$as$u20$core..fmt..Write$GT$9write_str17h1649a3991f2ea191E', symObjAddr: 0x57A70, symBinAddr: 0x100048850, symSize: 0xD0 }
  - { offset: 0x69CB4, size: 0x8, addend: 0x0, symName: '__ZN81_$LT$std..io..default_write_fmt..Adapter$LT$T$GT$$u20$as$u20$core..fmt..Write$GT$9write_str17h65288afb60bc4b22E', symObjAddr: 0x57C60, symBinAddr: 0x100048920, symSize: 0x70 }
  - { offset: 0x69DA1, size: 0x8, addend: 0x0, symName: '__ZN81_$LT$std..io..default_write_fmt..Adapter$LT$T$GT$$u20$as$u20$core..fmt..Write$GT$9write_str17h9ddd3fd8700ebc6eE', symObjAddr: 0x57CD0, symBinAddr: 0x100048990, symSize: 0x50 }
  - { offset: 0x69DCB, size: 0x8, addend: 0x0, symName: '__ZN81_$LT$std..io..default_write_fmt..Adapter$LT$T$GT$$u20$as$u20$core..fmt..Write$GT$9write_str17hf60e64c5a7fc0711E', symObjAddr: 0x57D20, symBinAddr: 0x1000489E0, symSize: 0xA0 }
  - { offset: 0x6A00E, size: 0x8, addend: 0x0, symName: __ZN3std4path4Path13_strip_prefix17h57206cfe16291a76E, symObjAddr: 0x20BD0, symBinAddr: 0x100029050, symSize: 0x3C0 }
  - { offset: 0x6A11E, size: 0x8, addend: 0x0, symName: __ZN3std4path4Path5_join17hf8c84868fde1d922E, symObjAddr: 0x21720, symBinAddr: 0x100029410, symSize: 0x190 }
  - { offset: 0x6A7E5, size: 0x8, addend: 0x0, symName: __ZN3std4path10Components15len_before_body17hc0c9c8c5c44312a5E, symObjAddr: 0x1F920, symBinAddr: 0x100028A10, symSize: 0x170 }
  - { offset: 0x6A7FC, size: 0x8, addend: 0x0, symName: __ZN3std4path10Components15len_before_body17hc0c9c8c5c44312a5E, symObjAddr: 0x1F920, symBinAddr: 0x100028A10, symSize: 0x170 }
  - { offset: 0x6A811, size: 0x8, addend: 0x0, symName: __ZN3std4path10Components15len_before_body17hc0c9c8c5c44312a5E, symObjAddr: 0x1F920, symBinAddr: 0x100028A10, symSize: 0x170 }
  - { offset: 0x6A9E9, size: 0x8, addend: 0x0, symName: __ZN3std4path10Components25parse_next_component_back17h39a0247b7cda8e0bE, symObjAddr: 0x1FA90, symBinAddr: 0x100028B80, symSize: 0xF0 }
  - { offset: 0x6AB88, size: 0x8, addend: 0x0, symName: __ZN3std4path10Components7as_path17h069c6a5a65b7ff44E, symObjAddr: 0x1FB80, symBinAddr: 0x100028C70, symSize: 0x3E0 }
  - { offset: 0x6AFB9, size: 0x8, addend: 0x0, symName: '__ZN61_$LT$std..path..Component$u20$as$u20$core..cmp..PartialEq$GT$2eq17h491fa3e2db060d13E', symObjAddr: 0x512F0, symBinAddr: 0x1000478D0, symSize: 0xE0 }
  - { offset: 0x6B073, size: 0x8, addend: 0x0, symName: '__ZN80_$LT$std..path..Components$u20$as$u20$core..iter..traits..iterator..Iterator$GT$4next17hee0b9dd08b602416E', symObjAddr: 0x57330, symBinAddr: 0x1000481C0, symSize: 0x410 }
  - { offset: 0x6B414, size: 0x8, addend: 0x0, symName: '__ZN95_$LT$std..path..Components$u20$as$u20$core..iter..traits..double_ended..DoubleEndedIterator$GT$9next_back17h714e7cb7d2d85f84E', symObjAddr: 0x59CE0, symBinAddr: 0x100048D70, symSize: 0x420 }
  - { offset: 0x6B620, size: 0x8, addend: 0x0, symName: __ZN3std7process5abort17h0d4477327f66e8fbE, symObjAddr: 0x25400, symBinAddr: 0x10005AEF0, symSize: 0x10 }
  - { offset: 0x6B640, size: 0x8, addend: 0x0, symName: __ZN3std7process7Command6output17hff2e6d5f551a1910E, symObjAddr: 0x25550, symBinAddr: 0x100029D60, symSize: 0x350 }
  - { offset: 0x6BBE4, size: 0x8, addend: 0x0, symName: '__ZN63_$LT$std..process..ExitStatus$u20$as$u20$core..fmt..Display$GT$3fmt17h22a1c288cc75ef04E', symObjAddr: 0x522E0, symBinAddr: 0x1000479E0, symSize: 0x10 }
  - { offset: 0x6BC10, size: 0x8, addend: 0x0, symName: '__ZN118_$LT$std..thread..thread_name_string..ThreadNameString$u20$as$u20$core..convert..From$LT$alloc..string..String$GT$$GT$4from17h61e83cd51d9b6e6aE', symObjAddr: 0x10C0, symBinAddr: 0x100017780, symSize: 0x100 }
  - { offset: 0x6BFC8, size: 0x8, addend: 0x0, symName: __ZN3std6thread7current12init_current17h90dce586534f49cdE, symObjAddr: 0x245B0, symBinAddr: 0x10005AD40, symSize: 0x160 }
  - { offset: 0x6C2E0, size: 0x8, addend: 0x0, symName: __ZN3std6thread7current13current_os_id17h7dd262076b74b984E, symObjAddr: 0x24710, symBinAddr: 0x100029CE0, symSize: 0x80 }
  - { offset: 0x6C4F3, size: 0x8, addend: 0x0, symName: __ZN3std6thread6Thread3new17haba3f9a731f34843E, symObjAddr: 0x241F0, symBinAddr: 0x100029BA0, symSize: 0x140 }
  - { offset: 0x6C83A, size: 0x8, addend: 0x0, symName: __ZN3std6thread8ThreadId3new9exhausted17h406b0b054c541c40E, symObjAddr: 0x248A0, symBinAddr: 0x10005AEA0, symSize: 0x50 }
  - { offset: 0x6C8BA, size: 0x8, addend: 0x0, symName: __ZN3std12backtrace_rs5print17BacktraceFrameFmt21print_raw_with_column17h124737e9f41c54b0E, symObjAddr: 0x12B0, symBinAddr: 0x1000178E0, symSize: 0x560 }
  - { offset: 0x6CAB0, size: 0x8, addend: 0x0, symName: __ZN3std12backtrace_rs9backtrace9libunwind5trace8trace_fn17hc5d3caa7e26e2d87E, symObjAddr: 0x1810, symBinAddr: 0x100017E40, symSize: 0x50 }
  - { offset: 0x6CB6B, size: 0x8, addend: 0x0, symName: __ZN3std12backtrace_rs9symbolize5gimli4mmap17h12ebabe808a68383E, symObjAddr: 0x1860, symBinAddr: 0x100017E90, symSize: 0x210 }
  - { offset: 0x6D058, size: 0x8, addend: 0x0, symName: __ZN3std12backtrace_rs9symbolize5gimli5macho11find_header17hde9f2a87e444cec9E, symObjAddr: 0x1A70, symBinAddr: 0x1000180A0, symSize: 0x190 }
  - { offset: 0x6D736, size: 0x8, addend: 0x0, symName: __ZN3std12backtrace_rs9symbolize5gimli5macho6Object5parse17h400ac0874d941337E, symObjAddr: 0x1C00, symBinAddr: 0x100018230, symSize: 0x1040 }
  - { offset: 0x6F65D, size: 0x8, addend: 0x0, symName: __ZN3std12backtrace_rs9symbolize5gimli5macho6Object7section17hf53b9a42818e2c3dE, symObjAddr: 0x2C40, symBinAddr: 0x100019270, symSize: 0x180 }
  - { offset: 0x6FA97, size: 0x8, addend: 0x0, symName: __ZN3std12backtrace_rs9symbolize5gimli7Context11find_frames17h15418eb91b7e6263E, symObjAddr: 0x2DC0, symBinAddr: 0x1000193F0, symSize: 0x3D0 }
  - { offset: 0x6FE77, size: 0x8, addend: 0x0, symName: __ZN3std12backtrace_rs9symbolize5gimli7Context3new17hb329d27e4d696e6aE, symObjAddr: 0x3190, symBinAddr: 0x1000197C0, symSize: 0x3050 }
  - { offset: 0x73FD5, size: 0x8, addend: 0x0, symName: __ZN3std12backtrace_rs9symbolize5gimli7resolve17h34165e1bf34eef53E, symObjAddr: 0x61E0, symBinAddr: 0x10001C810, symSize: 0x3560 }
  - { offset: 0x7A061, size: 0x8, addend: 0x0, symName: __ZN3std12backtrace_rs9symbolize6Symbol4name17hd612854ad8f0ffd0E, symObjAddr: 0x9780, symBinAddr: 0x10001FD70, symSize: 0x110 }
  - { offset: 0x7A19A, size: 0x8, addend: 0x0, symName: '__ZN79_$LT$std..backtrace_rs..symbolize..SymbolName$u20$as$u20$core..fmt..Display$GT$3fmt17hdc33297e1ed74ca2E', symObjAddr: 0x56AE0, symBinAddr: 0x1000480E0, symSize: 0xE0 }
  - { offset: 0x7A324, size: 0x8, addend: 0x0, symName: __ZN3std2fs14read_to_string5inner17h111bd167190968d8E, symObjAddr: 0x9FB0, symBinAddr: 0x10001FE80, symSize: 0x2C0 }
  - { offset: 0x7AB53, size: 0x8, addend: 0x0, symName: '__ZN64_$LT$std..ffi..os_str..Display$u20$as$u20$core..fmt..Display$GT$3fmt17hc3b4edbdc1de5d2aE', symObjAddr: 0x52BC0, symBinAddr: 0x100047A40, symSize: 0xD0 }
  - { offset: 0x7ABD8, size: 0x8, addend: 0x0, symName: '__ZN3std4sync6poison5mutex14Mutex$LT$T$GT$4lock17hc2ce4f843db9b8deE', symObjAddr: 0x23070, symBinAddr: 0x100029900, symSize: 0x70 }
  - { offset: 0x7AE37, size: 0x8, addend: 0x0, symName: '__ZN3std4sync6poison4once4Once15call_once_force28_$u7b$$u7b$closure$u7d$$u7d$17h3fd27ef06f442f06E', symObjAddr: 0x22AF0, symBinAddr: 0x1000295A0, symSize: 0x90 }
  - { offset: 0x7AEEE, size: 0x8, addend: 0x0, symName: '__ZN3std4sync6poison4once4Once15call_once_force28_$u7b$$u7b$closure$u7d$$u7d$17hcef2943343630694E', symObjAddr: 0x22D80, symBinAddr: 0x100029630, symSize: 0x90 }
  - { offset: 0x7B04B, size: 0x8, addend: 0x0, symName: '__ZN3std4sync6poison4once4Once9call_once28_$u7b$$u7b$closure$u7d$$u7d$17h5c617ced4614c08fE', symObjAddr: 0x22E30, symBinAddr: 0x1000296C0, symSize: 0x240 }
  - { offset: 0x7B7EE, size: 0x8, addend: 0x0, symName: '__ZN3std4sync9once_lock17OnceLock$LT$T$GT$10initialize17h9ad90c5bfd166a66E', symObjAddr: 0x23793, symBinAddr: 0x10005AC63, symSize: 0x59 }
  - { offset: 0x7B819, size: 0x8, addend: 0x0, symName: '__ZN3std4sync9once_lock17OnceLock$LT$T$GT$10initialize17h9ad90c5bfd166a66E', symObjAddr: 0x23793, symBinAddr: 0x10005AC63, symSize: 0x59 }
  - { offset: 0x7B82D, size: 0x8, addend: 0x0, symName: '__ZN3std4sync9once_lock17OnceLock$LT$T$GT$10initialize17h9ad90c5bfd166a66E', symObjAddr: 0x23793, symBinAddr: 0x10005AC63, symSize: 0x59 }
  - { offset: 0x7B841, size: 0x8, addend: 0x0, symName: '__ZN3std4sync9once_lock17OnceLock$LT$T$GT$10initialize17h9ad90c5bfd166a66E', symObjAddr: 0x23793, symBinAddr: 0x10005AC63, symSize: 0x59 }
  - { offset: 0x7B857, size: 0x8, addend: 0x0, symName: '__ZN3std4sync9once_lock17OnceLock$LT$T$GT$10initialize17hdc61a2003d8acd11E', symObjAddr: 0x23841, symBinAddr: 0x10005ACC1, symSize: 0x5F }
  - { offset: 0x7B882, size: 0x8, addend: 0x0, symName: '__ZN3std4sync9once_lock17OnceLock$LT$T$GT$10initialize17hdc61a2003d8acd11E', symObjAddr: 0x23841, symBinAddr: 0x10005ACC1, symSize: 0x5F }
  - { offset: 0x7B896, size: 0x8, addend: 0x0, symName: '__ZN3std4sync9once_lock17OnceLock$LT$T$GT$10initialize17hdc61a2003d8acd11E', symObjAddr: 0x23841, symBinAddr: 0x10005ACC1, symSize: 0x5F }
  - { offset: 0x7B8AA, size: 0x8, addend: 0x0, symName: '__ZN3std4sync9once_lock17OnceLock$LT$T$GT$10initialize17hdc61a2003d8acd11E', symObjAddr: 0x23841, symBinAddr: 0x10005ACC1, symSize: 0x5F }
  - { offset: 0x7BA2C, size: 0x8, addend: 0x0, symName: __ZN3std5panic19get_backtrace_style17h4c7362303865842eE, symObjAddr: 0x23C60, symBinAddr: 0x100029AD0, symSize: 0xD0 }
  - { offset: 0x7BA4A, size: 0x8, addend: 0x0, symName: __ZN3std5panic19get_backtrace_style17h4c7362303865842eE, symObjAddr: 0x23C60, symBinAddr: 0x100029AD0, symSize: 0xD0 }
  - { offset: 0x7BA5F, size: 0x8, addend: 0x0, symName: __ZN3std5panic19get_backtrace_style17h4c7362303865842eE, symObjAddr: 0x23C60, symBinAddr: 0x100029AD0, symSize: 0xD0 }
  - { offset: 0x7BCCC, size: 0x8, addend: 0x0, symName: __ZN3std3env11current_dir17h09876c9b4b89060dE, symObjAddr: 0xF800, symBinAddr: 0x1000222D0, symSize: 0x1C0 }
  - { offset: 0x7C0FB, size: 0x8, addend: 0x0, symName: __ZN3std3env7_var_os17ha90d6152c34619e1E, symObjAddr: 0xFB80, symBinAddr: 0x100022490, symSize: 0x170 }
  - { offset: 0x7C3BB, size: 0x8, addend: 0x0, symName: __ZN3std3env7vars_os17hc4844c317b828c1aE, symObjAddr: 0xFF30, symBinAddr: 0x100022600, symSize: 0x440 }
  - { offset: 0x7D12B, size: 0x8, addend: 0x0, symName: __ZN5alloc5alloc15exchange_malloc17hdc54b6ad35f557b1E, symObjAddr: 0x452D0, symBinAddr: 0x10003DA60, symSize: 0x40 }
  - { offset: 0x7E447, size: 0x8, addend: 0x0, symName: '__ZN64_$LT$alloc..ffi..c_str..NulError$u20$as$u20$core..fmt..Debug$GT$3fmt17h42a8844572b8105bE', symObjAddr: 0x524F0, symBinAddr: 0x1000479F0, symSize: 0x50 }
  - { offset: 0x7F5FB, size: 0x8, addend: 0x0, symName: '__ZN5alloc11collections5btree4node208Handle$LT$alloc..collections..btree..node..NodeRef$LT$alloc..collections..btree..node..marker..Mut$C$K$C$V$C$alloc..collections..btree..node..marker..Leaf$GT$$C$alloc..collections..btree..node..marker..KV$GT$5split17h2e0ddf5cd10d99d6E', symObjAddr: 0x40F70, symBinAddr: 0x10003A570, symSize: 0x1C0 }
  - { offset: 0x7F9D7, size: 0x8, addend: 0x0, symName: '__ZN5alloc11collections5btree4node208Handle$LT$alloc..collections..btree..node..NodeRef$LT$alloc..collections..btree..node..marker..Mut$C$K$C$V$C$alloc..collections..btree..node..marker..Leaf$GT$$C$alloc..collections..btree..node..marker..KV$GT$5split17hb1ffacf0e82edab8E', symObjAddr: 0x41330, symBinAddr: 0x10003A730, symSize: 0x1F0 }
  - { offset: 0x7FE89, size: 0x8, addend: 0x0, symName: '__ZN5alloc11collections5btree4node212Handle$LT$alloc..collections..btree..node..NodeRef$LT$alloc..collections..btree..node..marker..Mut$C$K$C$V$C$alloc..collections..btree..node..marker..Internal$GT$$C$alloc..collections..btree..node..marker..KV$GT$5split17h17c643d4c82620a0E', symObjAddr: 0x41820, symBinAddr: 0x10003A920, symSize: 0x280 }
  - { offset: 0x803D3, size: 0x8, addend: 0x0, symName: '__ZN5alloc11collections5btree4node212Handle$LT$alloc..collections..btree..node..NodeRef$LT$alloc..collections..btree..node..marker..Mut$C$K$C$V$C$alloc..collections..btree..node..marker..Internal$GT$$C$alloc..collections..btree..node..marker..KV$GT$5split17hce29b28e134d751bE', symObjAddr: 0x41AA0, symBinAddr: 0x10003ABA0, symSize: 0x2F0 }
  - { offset: 0x80AE6, size: 0x8, addend: 0x0, symName: '__ZN5alloc11collections5btree6remove259_$LT$impl$u20$alloc..collections..btree..node..Handle$LT$alloc..collections..btree..node..NodeRef$LT$alloc..collections..btree..node..marker..Mut$C$K$C$V$C$alloc..collections..btree..node..marker..Leaf$GT$$C$alloc..collections..btree..node..marker..KV$GT$$GT$14remove_leaf_kv17h2a34ebe0da4333d8E', symObjAddr: 0x434D0, symBinAddr: 0x10003C5D0, symSize: 0x8C0 }
  - { offset: 0x81727, size: 0x8, addend: 0x0, symName: '__ZN5alloc11collections5btree6remove259_$LT$impl$u20$alloc..collections..btree..node..Handle$LT$alloc..collections..btree..node..NodeRef$LT$alloc..collections..btree..node..marker..Mut$C$K$C$V$C$alloc..collections..btree..node..marker..Leaf$GT$$C$alloc..collections..btree..node..marker..KV$GT$$GT$14remove_leaf_kv17hc8882eb65a8263c2E', symObjAddr: 0x43D90, symBinAddr: 0x10003CE90, symSize: 0x900 }
  - { offset: 0x82526, size: 0x8, addend: 0x0, symName: '__ZN5alloc11collections5btree4node29BalancingContext$LT$K$C$V$GT$15bulk_steal_left17h3b899cdacc6f7634E', symObjAddr: 0x41D90, symBinAddr: 0x10003AE90, symSize: 0x400 }
  - { offset: 0x829EC, size: 0x8, addend: 0x0, symName: '__ZN5alloc11collections5btree4node29BalancingContext$LT$K$C$V$GT$15bulk_steal_left17h66a91518f6da12fdE', symObjAddr: 0x42190, symBinAddr: 0x10003B290, symSize: 0x370 }
  - { offset: 0x82ED0, size: 0x8, addend: 0x0, symName: '__ZN5alloc11collections5btree4node29BalancingContext$LT$K$C$V$GT$16bulk_steal_right17h4e21d715a5e05da5E', symObjAddr: 0x42500, symBinAddr: 0x10003B600, symSize: 0x3C0 }
  - { offset: 0x834EA, size: 0x8, addend: 0x0, symName: '__ZN5alloc11collections5btree4node29BalancingContext$LT$K$C$V$GT$16bulk_steal_right17ha9d1e50b5a62421eE', symObjAddr: 0x428C0, symBinAddr: 0x10003B9C0, symSize: 0x440 }
  - { offset: 0x83A78, size: 0x8, addend: 0x0, symName: '__ZN5alloc11collections5btree4node29BalancingContext$LT$K$C$V$GT$8do_merge17h23068df04fc85f6cE', symObjAddr: 0x42D00, symBinAddr: 0x10003BE00, symSize: 0x400 }
  - { offset: 0x83FCF, size: 0x8, addend: 0x0, symName: '__ZN5alloc11collections5btree4node29BalancingContext$LT$K$C$V$GT$8do_merge17h59e33ac8b4f1aedbE', symObjAddr: 0x43100, symBinAddr: 0x10003C200, symSize: 0x3D0 }
  - { offset: 0x84832, size: 0x8, addend: 0x0, symName: '__ZN5alloc11collections5btree3map25BTreeMap$LT$K$C$V$C$A$GT$6insert17h573ce44374f5ebb6E', symObjAddr: 0x3E760, symBinAddr: 0x100038BE0, symSize: 0xE50 }
  - { offset: 0x85E14, size: 0x8, addend: 0x0, symName: '__ZN5alloc11collections5btree3map25IntoIter$LT$K$C$V$C$A$GT$10dying_next17h0137cfdaf279346fE', symObjAddr: 0x40430, symBinAddr: 0x100039A30, symSize: 0x3C0 }
  - { offset: 0x86180, size: 0x8, addend: 0x0, symName: '__ZN5alloc11collections5btree3map25IntoIter$LT$K$C$V$C$A$GT$10dying_next17h74ba4dc90cd3bd84E', symObjAddr: 0x407F0, symBinAddr: 0x100039DF0, symSize: 0x3C0 }
  - { offset: 0x864EC, size: 0x8, addend: 0x0, symName: '__ZN5alloc11collections5btree3map25IntoIter$LT$K$C$V$C$A$GT$10dying_next17h786570e0d2d29ee1E', symObjAddr: 0x40BB0, symBinAddr: 0x10003A1B0, symSize: 0x3C0 }
  - { offset: 0x8750C, size: 0x8, addend: 0x0, symName: '__ZN5alloc7raw_vec19RawVec$LT$T$C$A$GT$8grow_one17h1578391f1dd2c7daE', symObjAddr: 0x45380, symBinAddr: 0x10003DAA0, symSize: 0xC0 }
  - { offset: 0x87622, size: 0x8, addend: 0x0, symName: '__ZN5alloc7raw_vec19RawVec$LT$T$C$A$GT$8grow_one17h1a8e605a6c9c7a9cE', symObjAddr: 0x45440, symBinAddr: 0x10003DB60, symSize: 0xC0 }
  - { offset: 0x8774D, size: 0x8, addend: 0x0, symName: '__ZN5alloc7raw_vec19RawVec$LT$T$C$A$GT$8grow_one17h496d6c99f941dcd8E', symObjAddr: 0x45500, symBinAddr: 0x10003DC20, symSize: 0xB0 }
  - { offset: 0x87863, size: 0x8, addend: 0x0, symName: '__ZN5alloc7raw_vec19RawVec$LT$T$C$A$GT$8grow_one17h62d92001f5fd4088E', symObjAddr: 0x455B0, symBinAddr: 0x10003DCD0, symSize: 0xC0 }
  - { offset: 0x87979, size: 0x8, addend: 0x0, symName: '__ZN5alloc7raw_vec19RawVec$LT$T$C$A$GT$8grow_one17h882f0afd17fb4cf1E', symObjAddr: 0x45670, symBinAddr: 0x10003DD90, symSize: 0xC0 }
  - { offset: 0x87AA4, size: 0x8, addend: 0x0, symName: '__ZN5alloc7raw_vec19RawVec$LT$T$C$A$GT$8grow_one17h9215a3a3eddacbe8E', symObjAddr: 0x45730, symBinAddr: 0x10003DE50, symSize: 0xC0 }
  - { offset: 0x87BBA, size: 0x8, addend: 0x0, symName: '__ZN5alloc7raw_vec19RawVec$LT$T$C$A$GT$8grow_one17h944deff35e2917e9E', symObjAddr: 0x457F0, symBinAddr: 0x10003DF10, symSize: 0xC0 }
  - { offset: 0x87CE5, size: 0x8, addend: 0x0, symName: '__ZN5alloc7raw_vec19RawVec$LT$T$C$A$GT$8grow_one17h9e141b6ec2b6b304E', symObjAddr: 0x458B0, symBinAddr: 0x10003DFD0, symSize: 0xB0 }
  - { offset: 0x87DFB, size: 0x8, addend: 0x0, symName: '__ZN5alloc7raw_vec19RawVec$LT$T$C$A$GT$8grow_one17haba969b9d90e429dE', symObjAddr: 0x45960, symBinAddr: 0x10003E080, symSize: 0xC0 }
  - { offset: 0x87F26, size: 0x8, addend: 0x0, symName: '__ZN5alloc7raw_vec19RawVec$LT$T$C$A$GT$8grow_one17hea102eabff85231dE', symObjAddr: 0x45AD0, symBinAddr: 0x10003E140, symSize: 0xB0 }
  - { offset: 0x8803C, size: 0x8, addend: 0x0, symName: '__ZN5alloc7raw_vec19RawVec$LT$T$C$A$GT$8grow_one17hf1b3041c36e8ca25E', symObjAddr: 0x45B80, symBinAddr: 0x10003E1F0, symSize: 0xB0 }
  - { offset: 0x883B2, size: 0x8, addend: 0x0, symName: __ZN5alloc7raw_vec11finish_grow17h446b951c64c58a29E, symObjAddr: 0x45310, symBinAddr: 0x10005F040, symSize: 0x70 }
  - { offset: 0x8843E, size: 0x8, addend: 0x0, symName: '__ZN5alloc7raw_vec20RawVecInner$LT$A$GT$7reserve21do_reserve_and_handle17ha31d691a92aa6984E', symObjAddr: 0x45C30, symBinAddr: 0x10005F0B0, symSize: 0xE0 }
  - { offset: 0x88712, size: 0x8, addend: 0x0, symName: '__ZN58_$LT$alloc..string..String$u20$as$u20$core..fmt..Debug$GT$3fmt17hc75db25d6de527ebE', symObjAddr: 0x3CEA0, symBinAddr: 0x100038A20, symSize: 0x20 }
  - { offset: 0x887CD, size: 0x8, addend: 0x0, symName: '__ZN58_$LT$alloc..string..String$u20$as$u20$core..fmt..Write$GT$10write_char17hba3be11e36d4a54fE', symObjAddr: 0x3CEC0, symBinAddr: 0x100038A40, symSize: 0x120 }
  - { offset: 0x88953, size: 0x8, addend: 0x0, symName: '__ZN58_$LT$alloc..string..String$u20$as$u20$core..fmt..Write$GT$9write_str17h0e3a6c0844845614E', symObjAddr: 0x3CFE0, symBinAddr: 0x100038B60, symSize: 0x70 }
  - { offset: 0x88A4D, size: 0x8, addend: 0x0, symName: '__ZN60_$LT$alloc..string..String$u20$as$u20$core..fmt..Display$GT$3fmt17h3ce6768c6f20d89dE', symObjAddr: 0x4EC80, symBinAddr: 0x100047210, symSize: 0x20 }
  - { offset: 0x88EF8, size: 0x8, addend: 0x0, symName: '__ZN5alloc4sync16Arc$LT$T$C$A$GT$9drop_slow17h165e22aa5ecb5c14E', symObjAddr: 0x44F90, symBinAddr: 0x10003D790, symSize: 0x90 }
  - { offset: 0x891F4, size: 0x8, addend: 0x0, symName: '__ZN5alloc4sync16Arc$LT$T$C$A$GT$9drop_slow17h1b88c69b37654d90E', symObjAddr: 0x45020, symBinAddr: 0x10003D820, symSize: 0xA0 }
  - { offset: 0x893FD, size: 0x8, addend: 0x0, symName: '__ZN5alloc4sync16Arc$LT$T$C$A$GT$9drop_slow17h38a2709360a70488E', symObjAddr: 0x450C0, symBinAddr: 0x10003D8C0, symSize: 0x60 }
  - { offset: 0x895C5, size: 0x8, addend: 0x0, symName: '__ZN5alloc4sync16Arc$LT$T$C$A$GT$9drop_slow17h4fe547a59c8e5f5cE', symObjAddr: 0x45120, symBinAddr: 0x10003D920, symSize: 0x30 }
  - { offset: 0x896A6, size: 0x8, addend: 0x0, symName: '__ZN5alloc4sync16Arc$LT$T$C$A$GT$9drop_slow17h5dbc3385cf3806bdE', symObjAddr: 0x45150, symBinAddr: 0x10003D950, symSize: 0x70 }
  - { offset: 0x8984C, size: 0x8, addend: 0x0, symName: '__ZN5alloc4sync16Arc$LT$T$C$A$GT$9drop_slow17h6f3c55e925f13c23E', symObjAddr: 0x451C0, symBinAddr: 0x10003D9C0, symSize: 0xA0 }
  - { offset: 0x8A41E, size: 0x8, addend: 0x0, symName: __ZN6object4read7archive13ArchiveMember5parse17hd3e51da29e5488c1E, symObjAddr: 0x53F80, symBinAddr: 0x100047CA0, symSize: 0x350 }
  - { offset: 0x8AB75, size: 0x8, addend: 0x0, symName: __ZN6object4read7archive23parse_bsd_extended_name17h1aeb333c92faa5e9E, symObjAddr: 0x542D0, symBinAddr: 0x100047FF0, symSize: 0xB0 }
  - { offset: 0x8AF89, size: 0x8, addend: 0x0, symName: '__ZN9addr2line4unit16ResUnit$LT$R$GT$25find_function_or_location28_$u7b$$u7b$closure$u7d$$u7d$17h74f8b46b09233272E', symObjAddr: 0x5B2C0, symBinAddr: 0x10004A160, symSize: 0x2F0 }
  - { offset: 0x8B32F, size: 0x8, addend: 0x0, symName: '__ZN9addr2line4unit16ResUnit$LT$R$GT$25find_function_or_location17h779b8cc8975ca827E', symObjAddr: 0x5AE20, symBinAddr: 0x100049CC0, symSize: 0x4A0 }
  - { offset: 0x8B85A, size: 0x8, addend: 0x0, symName: '__ZN9addr2line16Context$LT$R$GT$9find_unit17hafe5c4000e4dcc90E', symObjAddr: 0x5A630, symBinAddr: 0x1000494D0, symSize: 0x150 }
  - { offset: 0x8BA3F, size: 0x8, addend: 0x0, symName: '__ZN9addr2line6lookup30LoopingLookup$LT$T$C$L$C$F$GT$10new_lookup17hcb3afea57a5db3abE', symObjAddr: 0x5B900, symBinAddr: 0x10004A7A0, symSize: 0x530 }
  - { offset: 0x8BF67, size: 0x8, addend: 0x0, symName: __ZN9addr2line4line11render_file17h1c7a4084725a11a9E, symObjAddr: 0x5A780, symBinAddr: 0x100049620, symSize: 0x6A0 }
  - { offset: 0x8C8FD, size: 0x8, addend: 0x0, symName: '__ZN9addr2line8function17Function$LT$R$GT$14parse_children17h1b46ddfba7fb182cE', symObjAddr: 0x5C240, symBinAddr: 0x10004B0E0, symSize: 0x1390 }
  - { offset: 0x8DF19, size: 0x8, addend: 0x0, symName: __ZN9addr2line8function10name_entry17h5deb9017d935ead1E, symObjAddr: 0x5BE30, symBinAddr: 0x10004ACD0, symSize: 0x410 }
  - { offset: 0x8E375, size: 0x8, addend: 0x0, symName: __ZN9addr2line8function9name_attr17hc5ba8693362fa215E, symObjAddr: 0x5D5D0, symBinAddr: 0x10004C470, symSize: 0x1B0 }
  - { offset: 0x8E59A, size: 0x8, addend: 0x0, symName: '__ZN9addr2line5frame18FrameIter$LT$R$GT$4next17h7dae5ed4e94f9885E', symObjAddr: 0x5B5B0, symBinAddr: 0x10004A450, symSize: 0x350 }
  - { offset: 0x8EE4D, size: 0x8, addend: 0x0, symName: '__ZN5gimli4read5dwarf14Dwarf$LT$R$GT$11attr_string17hc5d4d70dcc99f435E', symObjAddr: 0x4CCF0, symBinAddr: 0x100045280, symSize: 0x210 }
  - { offset: 0x8F66A, size: 0x8, addend: 0x0, symName: '__ZN5gimli4read5dwarf13Unit$LT$R$GT$3new17h575ffe3f9752d03fE', symObjAddr: 0x4A4A0, symBinAddr: 0x100042A30, symSize: 0x2850 }
  - { offset: 0x92BE5, size: 0x8, addend: 0x0, symName: '__ZN5gimli4read7aranges30ArangeHeader$LT$R$C$Offset$GT$5parse17h9e159263f6fe8401E', symObjAddr: 0x4DA20, symBinAddr: 0x100045FB0, symSize: 0x2A0 }
  - { offset: 0x936E8, size: 0x8, addend: 0x0, symName: '__ZN5gimli4read4unit18Attribute$LT$R$GT$5value17h523c462abedaae9bE', symObjAddr: 0x492D0, symBinAddr: 0x100041860, symSize: 0x7C0 }
  - { offset: 0x93AF3, size: 0x8, addend: 0x0, symName: '__ZN90_$LT$gimli..read..unit..AttributeValue$LT$R$C$Offset$GT$$u20$as$u20$core..clone..Clone$GT$5clone17h098c211905b07158E', symObjAddr: 0x590A0, symBinAddr: 0x100048BE0, symSize: 0x120 }
  - { offset: 0x93B53, size: 0x8, addend: 0x0, symName: '__ZN5gimli4read4unit32AttributeValue$LT$R$C$Offset$GT$11udata_value17h684c5d824dd1bde2E', symObjAddr: 0x49DC0, symBinAddr: 0x100042350, symSize: 0x80 }
  - { offset: 0x93BAE, size: 0x8, addend: 0x0, symName: __ZN5gimli4read4unit15parse_attribute17h3d2d3a95c0efe23eE, symObjAddr: 0x47250, symBinAddr: 0x10003F7E0, symSize: 0x1960 }
  - { offset: 0x96F49, size: 0x8, addend: 0x0, symName: __ZN5gimli4read4unit15skip_attributes17h92846bd14a53eed5E, symObjAddr: 0x48BB0, symBinAddr: 0x100041140, symSize: 0x720 }
  - { offset: 0x97917, size: 0x8, addend: 0x0, symName: '__ZN5gimli4read4unit22EntriesCursor$LT$R$GT$10next_entry17hd847dc3188d94e5bE', symObjAddr: 0x49A90, symBinAddr: 0x100042020, symSize: 0x330 }
  - { offset: 0x97E5E, size: 0x8, addend: 0x0, symName: '__ZN5gimli4read4unit33DebugInfoUnitHeadersIter$LT$R$GT$4next17hed0a8460df0391bfE', symObjAddr: 0x49E40, symBinAddr: 0x1000423D0, symSize: 0x660 }
  - { offset: 0x9903B, size: 0x8, addend: 0x0, symName: __ZN5gimli4read6reader6Reader11read_offset17h5a1a189216526f37E, symObjAddr: 0x4D790, symBinAddr: 0x100045D20, symSize: 0xB0 }
  - { offset: 0x99278, size: 0x8, addend: 0x0, symName: __ZN5gimli4read6reader6Reader12read_uleb12817hf97552d5eed3df2dE, symObjAddr: 0x4D840, symBinAddr: 0x100045DD0, symSize: 0xB0 }
  - { offset: 0x99326, size: 0x8, addend: 0x0, symName: __ZN5gimli4read6reader6Reader17read_sized_offset17h97b79870f9951699E, symObjAddr: 0x4D8F0, symBinAddr: 0x100045E80, symSize: 0x130 }
  - { offset: 0x999F6, size: 0x8, addend: 0x0, symName: '__ZN5gimli4read8rnglists20RngListIter$LT$R$GT$4next17h8b60fae141bf2d6cE', symObjAddr: 0x4DCC0, symBinAddr: 0x100046250, symSize: 0xFC0 }
  - { offset: 0x9C0BE, size: 0x8, addend: 0x0, symName: '__ZN5gimli4read5index18UnitIndex$LT$R$GT$5parse17h95a74f9af645c1edE', symObjAddr: 0x4CF00, symBinAddr: 0x100045490, symSize: 0x890 }
  - { offset: 0x9C0DB, size: 0x8, addend: 0x0, symName: '__ZN5gimli4read5index18UnitIndex$LT$R$GT$5parse17h95a74f9af645c1edE', symObjAddr: 0x4CF00, symBinAddr: 0x100045490, symSize: 0x890 }
  - { offset: 0x9C0EF, size: 0x8, addend: 0x0, symName: '__ZN5gimli4read5index18UnitIndex$LT$R$GT$5parse17h95a74f9af645c1edE', symObjAddr: 0x4CF00, symBinAddr: 0x100045490, symSize: 0x890 }
  - { offset: 0x9C7B4, size: 0x8, addend: 0x0, symName: '__ZN5gimli4read4line27FileEntry$LT$R$C$Offset$GT$5parse17hd9bc2270faf33decE', symObjAddr: 0x46FF0, symBinAddr: 0x10003F580, symSize: 0x260 }
  - { offset: 0x9CA00, size: 0x8, addend: 0x0, symName: __ZN5gimli4read4line13parse_file_v517hd02b9988ac8f9c5bE, symObjAddr: 0x45D10, symBinAddr: 0x10003E2A0, symSize: 0x350 }
  - { offset: 0x9CB79, size: 0x8, addend: 0x0, symName: __ZN5gimli4read4line15FileEntryFormat5parse17h2a60ff0d29a79605E, symObjAddr: 0x46060, symBinAddr: 0x10003E5F0, symSize: 0x3B0 }
  - { offset: 0x9D313, size: 0x8, addend: 0x0, symName: __ZN5gimli4read4line15parse_attribute17h7d59469e6c7378d7E, symObjAddr: 0x46410, symBinAddr: 0x10003E9A0, symSize: 0xAD0 }
  - { offset: 0x9ED18, size: 0x8, addend: 0x0, symName: __ZN5gimli4read4line18parse_directory_v517hb56c57b85d13b5daE, symObjAddr: 0x46EE0, symBinAddr: 0x10003F470, symSize: 0x110 }
  - { offset: 0x9EFF6, size: 0x8, addend: 0x0, symName: __RNvCskdKJRKLKjqM_7___rustc18___rust_start_panic, symObjAddr: 0x0, symBinAddr: 0x10004CC60, symSize: 0xB0 }
  - { offset: 0x9F0D1, size: 0x8, addend: 0x0, symName: __ZN12panic_unwind3imp5panic17exception_cleanup17hb98a4cfa7a07ae95E, symObjAddr: 0x100, symBinAddr: 0x10004CD60, symSize: 0x20 }
  - { offset: 0x9F0ED, size: 0x8, addend: 0x0, symName: __RNvCskdKJRKLKjqM_7___rustc18___rust_start_panic, symObjAddr: 0x0, symBinAddr: 0x10004CC60, symSize: 0xB0 }
  - { offset: 0x9F177, size: 0x8, addend: 0x0, symName: __RNvCskdKJRKLKjqM_7___rustc20___rust_panic_cleanup, symObjAddr: 0xB0, symBinAddr: 0x10004CD10, symSize: 0x50 }
  - { offset: 0x9F21A, size: 0x8, addend: 0x0, symName: '__ZN4core3ptr49drop_in_place$LT$panic_unwind..imp..Exception$GT$17h0f7b2fc4f2fea7f1E', symObjAddr: 0x120, symBinAddr: 0x10004CD80, symSize: 0x70 }
  - { offset: 0x9F321, size: 0x8, addend: 0x0, symName: '__ZN4core3ptr74drop_in_place$LT$alloc..boxed..Box$LT$panic_unwind..imp..Exception$GT$$GT$17hcd43110ac76b9736E', symObjAddr: 0x190, symBinAddr: 0x10004CDF0, symSize: 0x89 }
  - { offset: 0x9F76B, size: 0x8, addend: 0x0, symName: __ZN6memchr4arch6x86_646memchr10memchr_raw6detect17h2099730146b20b08E, symObjAddr: 0xF90, symBinAddr: 0x10004D1A0, symSize: 0x1C0 }
  - { offset: 0x9FD20, size: 0x8, addend: 0x0, symName: __ZN6memchr4arch6x86_646memchr10memchr_raw9find_sse217ha1fdf339af5e94d5E, symObjAddr: 0x1150, symBinAddr: 0x10004D360, symSize: 0x1B0 }
  - { offset: 0xA02AB, size: 0x8, addend: 0x0, symName: __ZN6memchr4arch6x86_646memchr11memchr2_raw6detect17h84a70ada683e86a1E, symObjAddr: 0x1300, symBinAddr: 0x10004D510, symSize: 0x1A0 }
  - { offset: 0xA093E, size: 0x8, addend: 0x0, symName: __ZN6memchr4arch6x86_646memchr11memchr2_raw9find_sse217hc70ae4e2a27bbbefE, symObjAddr: 0x14A0, symBinAddr: 0x10004D6B0, symSize: 0x1A0 }
  - { offset: 0xA10BA, size: 0x8, addend: 0x0, symName: __ZN4core3fmt5Write9write_fmt17hde1139b32b86906dE, symObjAddr: 0x1A0, symBinAddr: 0x100054DB0, symSize: 0x50 }
  - { offset: 0xA10FC, size: 0x8, addend: 0x0, symName: '__ZN53_$LT$core..fmt..Error$u20$as$u20$core..fmt..Debug$GT$3fmt17hc4ce8d9026949125E', symObjAddr: 0x5A0, symBinAddr: 0x100054E20, symSize: 0x20 }
  - { offset: 0xA1255, size: 0x8, addend: 0x0, symName: '__ZN69_$LT$core..alloc..layout..LayoutError$u20$as$u20$core..fmt..Debug$GT$3fmt17hb904d59a11340822E', symObjAddr: 0x57F0, symBinAddr: 0x100055690, symSize: 0x20 }
  - { offset: 0xA12CA, size: 0x8, addend: 0x0, symName: '__ZN4core3ptr42drop_in_place$LT$alloc..string..String$GT$17hb78d7b2b342e8423E', symObjAddr: 0x210, symBinAddr: 0x100054E00, symSize: 0x20 }
  - { offset: 0xA1674, size: 0x8, addend: 0x0, symName: __ZN5alloc5alloc18handle_alloc_error17h3762db9dd870b9a9E, symObjAddr: 0x35BA, symBinAddr: 0x10005F29A, symSize: 0x16 }
  - { offset: 0xA1956, size: 0x8, addend: 0x0, symName: __ZN5alloc7raw_vec11finish_grow17h3ef34721aec5e3b7E, symObjAddr: 0x52C0, symBinAddr: 0x10005F2B0, symSize: 0x6E }
  - { offset: 0xA19CB, size: 0x8, addend: 0x0, symName: __ZN5alloc7raw_vec12handle_error17h937a4fa340d4a4b8E, symObjAddr: 0x532E, symBinAddr: 0x10005F31E, symSize: 0x22 }
  - { offset: 0xA1A0A, size: 0x8, addend: 0x0, symName: __ZN5alloc7raw_vec17capacity_overflow17hfafd9746150329d6E, symObjAddr: 0x5350, symBinAddr: 0x10005F340, symSize: 0x40 }
  - { offset: 0xA1A43, size: 0x8, addend: 0x0, symName: '__ZN5alloc7raw_vec20RawVecInner$LT$A$GT$7reserve21do_reserve_and_handle17h05c0f4d79cdd84bfE', symObjAddr: 0x5430, symBinAddr: 0x10005F380, symSize: 0xB0 }
  - { offset: 0xA1BCF, size: 0x8, addend: 0x0, symName: '__ZN254_$LT$alloc..boxed..convert..$LT$impl$u20$core..convert..From$LT$alloc..string..String$GT$$u20$for$u20$alloc..boxed..Box$LT$dyn$u20$core..error..Error$u2b$core..marker..Sync$u2b$core..marker..Send$GT$$GT$..from..StringError$u20$as$u20$core..fmt..Debug$GT$3fmt17hcf569323b84bf267E', symObjAddr: 0x140, symBinAddr: 0x100054D70, symSize: 0x20 }
  - { offset: 0xA1CA0, size: 0x8, addend: 0x0, symName: '__ZN256_$LT$alloc..boxed..convert..$LT$impl$u20$core..convert..From$LT$alloc..string..String$GT$$u20$for$u20$alloc..boxed..Box$LT$dyn$u20$core..error..Error$u2b$core..marker..Sync$u2b$core..marker..Send$GT$$GT$..from..StringError$u20$as$u20$core..fmt..Display$GT$3fmt17h1b1a69dfec465030E', symObjAddr: 0x160, symBinAddr: 0x100054D90, symSize: 0x20 }
  - { offset: 0xA1D93, size: 0x8, addend: 0x0, symName: '__ZN100_$LT$alloc..ffi..c_str..CString$u20$as$u20$core..convert..From$LT$$RF$core..ffi..c_str..CStr$GT$$GT$4from17hc090e98bd546633bE', symObjAddr: 0xC0, symBinAddr: 0x100054CF0, symSize: 0x80 }
  - { offset: 0xA1F03, size: 0x8, addend: 0x0, symName: __ZN5alloc3ffi5c_str7CString19_from_vec_unchecked17ha526334e500b1abdE, symObjAddr: 0xC50, symBinAddr: 0x100054FB0, symSize: 0x120 }
  - { offset: 0xA2253, size: 0x8, addend: 0x0, symName: __ZN5alloc3ffi5c_str7CString8from_raw17h143e54ce9e8a4932E, symObjAddr: 0xE20, symBinAddr: 0x1000550D0, symSize: 0x20 }
  - { offset: 0xA228C, size: 0x8, addend: 0x0, symName: '__ZN72_$LT$$RF$str$u20$as$u20$alloc..ffi..c_str..CString..new..SpecNewImpl$GT$13spec_new_impl17h86c6e2e3ca147532E', symObjAddr: 0x5810, symBinAddr: 0x1000556B0, symSize: 0x120 }
  - { offset: 0xA274A, size: 0x8, addend: 0x0, symName: __ZN5alloc6string6String15from_utf8_lossy17h0471d885b3e9b3ebE, symObjAddr: 0x4790, symBinAddr: 0x100055370, symSize: 0x270 }
  - { offset: 0xA2D8A, size: 0x8, addend: 0x0, symName: __ZN5alloc6string6String17try_reserve_exact17he04b9826de519d37E, symObjAddr: 0x4A00, symBinAddr: 0x1000555E0, symSize: 0xB0 }
  - { offset: 0xA2ED0, size: 0x8, addend: 0x0, symName: '__ZN58_$LT$alloc..string..String$u20$as$u20$core..fmt..Write$GT$10write_char17hba3be11e36d4a54fE', symObjAddr: 0x620, symBinAddr: 0x100054E40, symSize: 0x110 }
  - { offset: 0xA3056, size: 0x8, addend: 0x0, symName: '__ZN58_$LT$alloc..string..String$u20$as$u20$core..fmt..Write$GT$9write_str17h0e3a6c0844845614E', symObjAddr: 0x730, symBinAddr: 0x100054F50, symSize: 0x60 }
  - { offset: 0xA315E, size: 0x8, addend: 0x0, symName: '__ZN98_$LT$alloc..string..String$u20$as$u20$core..convert..From$LT$alloc..borrow..Cow$LT$str$GT$$GT$$GT$4from17h1463175ae5508b78E', symObjAddr: 0x61F0, symBinAddr: 0x1000557D0, symSize: 0xAB }
  - { offset: 0xA334A, size: 0x8, addend: 0x0, symName: __ZN5alloc3fmt6format12format_inner17h3a5f8b83fd90200fE, symObjAddr: 0xE40, symBinAddr: 0x1000550F0, symSize: 0x210 }
  - { offset: 0xA35C1, size: 0x8, addend: 0x0, symName: __ZN5alloc4sync32arcinner_layout_for_value_layout17h6aceeaaa01c07cfaE, symObjAddr: 0x2690, symBinAddr: 0x100055300, symSize: 0x70 }
  - { offset: 0xA35D8, size: 0x8, addend: 0x0, symName: __ZN5alloc4sync32arcinner_layout_for_value_layout17h6aceeaaa01c07cfaE, symObjAddr: 0x2690, symBinAddr: 0x100055300, symSize: 0x70 }
  - { offset: 0xA35ED, size: 0x8, addend: 0x0, symName: __ZN5alloc4sync32arcinner_layout_for_value_layout17h6aceeaaa01c07cfaE, symObjAddr: 0x2690, symBinAddr: 0x100055300, symSize: 0x70 }
  - { offset: 0xA3716, size: 0x8, addend: 0x0, symName: '__ZN71_$LT$core..ops..range..Range$LT$Idx$GT$$u20$as$u20$core..fmt..Debug$GT$3fmt17hc330239f60cc9eb3E', symObjAddr: 0x1F4B0, symBinAddr: 0x100059F00, symSize: 0x50 }
  - { offset: 0xA398D, size: 0x8, addend: 0x0, symName: '__ZN4core4char7methods22_$LT$impl$u20$char$GT$16escape_debug_ext17hb449749641e3affeE', symObjAddr: 0x176B0, symBinAddr: 0x100059310, symSize: 0x2D0 }
  - { offset: 0xA3B85, size: 0x8, addend: 0x0, symName: __ZN4core4char7methods15encode_utf8_raw8do_panic7runtime17hb720cf973e12fcdfE, symObjAddr: 0x17590, symBinAddr: 0x10005F520, symSize: 0x90 }
  - { offset: 0xA3D33, size: 0x8, addend: 0x0, symName: __ZN4core3num22from_ascii_radix_panic8do_panic7runtime17hf55c31c541c87b43E, symObjAddr: 0xD980, symBinAddr: 0x10005F440, symSize: 0x60 }
  - { offset: 0xA3D66, size: 0x8, addend: 0x0, symName: __ZN4core3num22from_ascii_radix_panic17h56065ab58d046821E, symObjAddr: 0xD970, symBinAddr: 0x10005F430, symSize: 0x10 }
  - { offset: 0xA402B, size: 0x8, addend: 0x0, symName: __ZN4core6option13expect_failed17h1ec281f12b35982eE, symObjAddr: 0x18040, symBinAddr: 0x10005F790, symSize: 0x60 }
  - { offset: 0xA4073, size: 0x8, addend: 0x0, symName: __ZN4core6option13unwrap_failed17hd0abc7d118070f58E, symObjAddr: 0x180A0, symBinAddr: 0x10005F7F0, symSize: 0x20 }
  - { offset: 0xA457B, size: 0x8, addend: 0x0, symName: __ZN4core5slice5index16slice_index_fail8do_panic7runtime17h41282b038f05ddfaE, symObjAddr: 0x17D00, symBinAddr: 0x10005F640, symSize: 0x70 }
  - { offset: 0xA45AC, size: 0x8, addend: 0x0, symName: __ZN4core5slice5index16slice_index_fail8do_panic7runtime17haaf49c781c78a5c0E, symObjAddr: 0x17D70, symBinAddr: 0x10005F6B0, symSize: 0x70 }
  - { offset: 0xA45DD, size: 0x8, addend: 0x0, symName: __ZN4core5slice5index16slice_index_fail8do_panic7runtime17hae4da62edc07a39fE, symObjAddr: 0x17DE0, symBinAddr: 0x10005F720, symSize: 0x70 }
  - { offset: 0xA4610, size: 0x8, addend: 0x0, symName: __ZN4core5slice5index16slice_index_fail17h1a065c4e1a1e0b41E, symObjAddr: 0x17CC0, symBinAddr: 0x10005F600, symSize: 0x40 }
  - { offset: 0xA46BC, size: 0x8, addend: 0x0, symName: __ZN4core5slice6memchr14memchr_aligned17hbe324882bd8e8f20E, symObjAddr: 0x17E50, symBinAddr: 0x100059640, symSize: 0xE0 }
  - { offset: 0xA47B6, size: 0x8, addend: 0x0, symName: __ZN4core5slice6memchr7memrchr17h3060eb51c807ecd7E, symObjAddr: 0x17F30, symBinAddr: 0x100059720, symSize: 0x110 }
  - { offset: 0xA49A6, size: 0x8, addend: 0x0, symName: __ZN4core5slice4sort6shared9smallsort22panic_on_ord_violation17hd9a4c3c4a8ebe09aE, symObjAddr: 0x17BA0, symBinAddr: 0x10005F5B0, symSize: 0x50 }
  - { offset: 0xA49E3, size: 0x8, addend: 0x0, symName: __ZN4core5slice4sort6stable5drift11sqrt_approx17h5b54c8126d8482dbE, symObjAddr: 0x17BF0, symBinAddr: 0x100059610, symSize: 0x30 }
  - { offset: 0xA4AD8, size: 0x8, addend: 0x0, symName: __ZN4core3fmt9Formatter10debug_list17h9d2456a350d67ad8E, symObjAddr: 0xA1C0, symBinAddr: 0x1000572B0, symSize: 0x40 }
  - { offset: 0xA4B18, size: 0x8, addend: 0x0, symName: __ZN4core3fmt9Formatter11debug_tuple17hdcc53271f394ac41E, symObjAddr: 0xA200, symBinAddr: 0x1000572F0, symSize: 0x50 }
  - { offset: 0xA4B6D, size: 0x8, addend: 0x0, symName: __ZN4core3fmt9Formatter12debug_struct17h8c9b9889fabaa42eE, symObjAddr: 0xA250, symBinAddr: 0x100057340, symSize: 0x40 }
  - { offset: 0xA4BD6, size: 0x8, addend: 0x0, symName: __ZN4core3fmt9Formatter12pad_integral17h5b6fb6906b7fe010E, symObjAddr: 0xA2F0, symBinAddr: 0x1000573E0, symSize: 0x4A0 }
  - { offset: 0xA4E65, size: 0x8, addend: 0x0, symName: __ZN4core3fmt9Formatter25debug_tuple_field1_finish17hc108d765633dc1f9E, symObjAddr: 0xACB0, symBinAddr: 0x100057880, symSize: 0x140 }
  - { offset: 0xA506D, size: 0x8, addend: 0x0, symName: __ZN4core3fmt9Formatter25debug_tuple_field2_finish17h3020954311064adeE, symObjAddr: 0xADF0, symBinAddr: 0x1000579C0, symSize: 0x1A0 }
  - { offset: 0xA5365, size: 0x8, addend: 0x0, symName: __ZN4core3fmt9Formatter26debug_struct_field1_finish17h161bc6caec1550cdE, symObjAddr: 0xBA70, symBinAddr: 0x100057B60, symSize: 0xB0 }
  - { offset: 0xA543C, size: 0x8, addend: 0x0, symName: __ZN4core3fmt9Formatter26debug_struct_field2_finish17h9392189e9ab00f59E, symObjAddr: 0xBB20, symBinAddr: 0x100057C10, symSize: 0xD0 }
  - { offset: 0xA5513, size: 0x8, addend: 0x0, symName: __ZN4core3fmt9Formatter3pad17h37b5dfd85e2b0428E, symObjAddr: 0xC000, symBinAddr: 0x100057CE0, symSize: 0x3D0 }
  - { offset: 0xA5785, size: 0x8, addend: 0x0, symName: __ZN4core3fmt9Formatter9write_str17h532155584af4b419E, symObjAddr: 0xC460, symBinAddr: 0x1000580B0, symSize: 0x20 }
  - { offset: 0xA57F5, size: 0x8, addend: 0x0, symName: __ZN4core3fmt8builders11DebugStruct5field17h99bfe0cd343e038aE, symObjAddr: 0x97F0, symBinAddr: 0x100056F60, symSize: 0x190 }
  - { offset: 0xA5A09, size: 0x8, addend: 0x0, symName: __ZN4core3fmt8builders11DebugStruct6finish17h759eca09f088587cE, symObjAddr: 0x9980, symBinAddr: 0x1000570F0, symSize: 0x60 }
  - { offset: 0xA5B31, size: 0x8, addend: 0x0, symName: __ZN4core3fmt8builders10DebugTuple5field17hcff3261d35d211e6E, symObjAddr: 0x9550, symBinAddr: 0x100056DA0, symSize: 0x130 }
  - { offset: 0xA5C9F, size: 0x8, addend: 0x0, symName: __ZN4core3fmt8builders10DebugTuple6finish17hee865a46ed84494bE, symObjAddr: 0x9680, symBinAddr: 0x100056ED0, symSize: 0x90 }
  - { offset: 0xA5DDA, size: 0x8, addend: 0x0, symName: __ZN4core3fmt8builders8DebugSet5entry17h9ad4bd41e6760f90E, symObjAddr: 0x9F60, symBinAddr: 0x100057150, symSize: 0x120 }
  - { offset: 0xA5FBB, size: 0x8, addend: 0x0, symName: __ZN4core3fmt8builders9DebugList6finish17he5544af857123449E, symObjAddr: 0xA180, symBinAddr: 0x100057270, symSize: 0x40 }
  - { offset: 0xA6038, size: 0x8, addend: 0x0, symName: '__ZN68_$LT$core..fmt..builders..PadAdapter$u20$as$u20$core..fmt..Write$GT$10write_char17h8781eb8fef702588E', symObjAddr: 0x1E270, symBinAddr: 0x100059C20, symSize: 0x60 }
  - { offset: 0xA6061, size: 0x8, addend: 0x0, symName: '__ZN68_$LT$core..fmt..builders..PadAdapter$u20$as$u20$core..fmt..Write$GT$9write_str17h3ac9bf90fc6b2989E', symObjAddr: 0x1E2D0, symBinAddr: 0x100059C80, symSize: 0x280 }
  - { offset: 0xA62C3, size: 0x8, addend: 0x0, symName: '__ZN57_$LT$core..fmt..Formatter$u20$as$u20$core..fmt..Write$GT$10write_char17h4978b0c667a9d8b0E', symObjAddr: 0x1A5E0, symBinAddr: 0x100059BC0, symSize: 0x20 }
  - { offset: 0xA62FF, size: 0x8, addend: 0x0, symName: '__ZN40_$LT$str$u20$as$u20$core..fmt..Debug$GT$3fmt17h3cbb4b7bcf7be3d7E', symObjAddr: 0x240, symBinAddr: 0x100055880, symSize: 0x3A0 }
  - { offset: 0xA6762, size: 0x8, addend: 0x0, symName: '__ZN41_$LT$char$u20$as$u20$core..fmt..Debug$GT$3fmt17h4e11ed1b5452e387E', symObjAddr: 0x5E0, symBinAddr: 0x100055C20, symSize: 0xA0 }
  - { offset: 0xA688B, size: 0x8, addend: 0x0, symName: '__ZN42_$LT$$RF$T$u20$as$u20$core..fmt..Debug$GT$3fmt17h0f40b67a922b1ec5E', symObjAddr: 0x680, symBinAddr: 0x100055CC0, symSize: 0x10 }
  - { offset: 0xA68A6, size: 0x8, addend: 0x0, symName: '__ZN42_$LT$$RF$T$u20$as$u20$core..fmt..Debug$GT$3fmt17h7680cd2a2d1e04fdE', symObjAddr: 0x6B0, symBinAddr: 0x100055CD0, symSize: 0x20 }
  - { offset: 0xA68C8, size: 0x8, addend: 0x0, symName: '__ZN42_$LT$$RF$T$u20$as$u20$core..fmt..Debug$GT$3fmt17h868720066d227907E', symObjAddr: 0x6D0, symBinAddr: 0x100055CF0, symSize: 0x160 }
  - { offset: 0xA6AEF, size: 0x8, addend: 0x0, symName: '__ZN42_$LT$$RF$T$u20$as$u20$core..fmt..Debug$GT$3fmt17he2aa20ce460ddad7E', symObjAddr: 0x860, symBinAddr: 0x100055E50, symSize: 0x10 }
  - { offset: 0xA6B17, size: 0x8, addend: 0x0, symName: '__ZN42_$LT$str$u20$as$u20$core..fmt..Display$GT$3fmt17h83ec9ba80990d67aE', symObjAddr: 0x870, symBinAddr: 0x100055E60, symSize: 0x20 }
  - { offset: 0xA6B3F, size: 0x8, addend: 0x0, symName: '__ZN43_$LT$char$u20$as$u20$core..fmt..Display$GT$3fmt17ha887c9494bff9603E', symObjAddr: 0x8D0, symBinAddr: 0x100055E80, symSize: 0xC0 }
  - { offset: 0xA6BAE, size: 0x8, addend: 0x0, symName: '__ZN44_$LT$$RF$T$u20$as$u20$core..fmt..Display$GT$3fmt17h1fb02a4f1d7d14b9E', symObjAddr: 0x990, symBinAddr: 0x100055F40, symSize: 0x20 }
  - { offset: 0xA6C82, size: 0x8, addend: 0x0, symName: '__ZN4core3fmt3num3imp51_$LT$impl$u20$core..fmt..Display$u20$for$u20$u8$GT$3fmt17h1a13e7c6295dbb75E', symObjAddr: 0x2630, symBinAddr: 0x100056120, symSize: 0xA0 }
  - { offset: 0xA6D67, size: 0x8, addend: 0x0, symName: '__ZN4core3fmt3num3imp52_$LT$impl$u20$core..fmt..Display$u20$for$u20$i32$GT$3fmt17h4add2573f547cd42E', symObjAddr: 0x27D0, symBinAddr: 0x1000561C0, symSize: 0x120 }
  - { offset: 0xA6E87, size: 0x8, addend: 0x0, symName: '__ZN4core3fmt3num3imp52_$LT$impl$u20$core..fmt..Display$u20$for$u20$u32$GT$3fmt17haa57ce01fac3917eE', symObjAddr: 0x2B00, symBinAddr: 0x1000562E0, symSize: 0x110 }
  - { offset: 0xA6F94, size: 0x8, addend: 0x0, symName: '__ZN4core3fmt3num3imp52_$LT$impl$u20$core..fmt..Display$u20$for$u20$u64$GT$3fmt17h8b8600c70b3a3ac8E', symObjAddr: 0x2C10, symBinAddr: 0x1000563F0, symSize: 0x110 }
  - { offset: 0xA70CF, size: 0x8, addend: 0x0, symName: '__ZN4core3fmt3num52_$LT$impl$u20$core..fmt..LowerHex$u20$for$u20$u8$GT$3fmt17h39a52b6e10cf70aeE', symObjAddr: 0x4AE0, symBinAddr: 0x100056850, symSize: 0x70 }
  - { offset: 0xA7160, size: 0x8, addend: 0x0, symName: '__ZN4core3fmt3num52_$LT$impl$u20$core..fmt..UpperHex$u20$for$u20$u8$GT$3fmt17h865b83e01c77f87fE', symObjAddr: 0x4BC0, symBinAddr: 0x1000568C0, symSize: 0x70 }
  - { offset: 0xA7204, size: 0x8, addend: 0x0, symName: '__ZN4core3fmt3num53_$LT$impl$u20$core..fmt..UpperHex$u20$for$u20$u32$GT$3fmt17he24323287b2084c2E', symObjAddr: 0x5170, symBinAddr: 0x100056A80, symSize: 0x70 }
  - { offset: 0xA7295, size: 0x8, addend: 0x0, symName: '__ZN4core3fmt3num53_$LT$impl$u20$core..fmt..LowerHex$u20$for$u20$u64$GT$3fmt17h3112ef8c0abad7d1E', symObjAddr: 0x4F40, symBinAddr: 0x1000569A0, symSize: 0x70 }
  - { offset: 0xA7326, size: 0x8, addend: 0x0, symName: '__ZN4core3fmt3num53_$LT$impl$u20$core..fmt..UpperHex$u20$for$u20$u64$GT$3fmt17hf363a6f2e4cad34eE', symObjAddr: 0x51E0, symBinAddr: 0x100056AF0, symSize: 0x70 }
  - { offset: 0xA73AA, size: 0x8, addend: 0x0, symName: '__ZN4core3fmt3num50_$LT$impl$u20$core..fmt..Debug$u20$for$u20$u64$GT$3fmt17h376bce9b57b8a762E', symObjAddr: 0x3E60, symBinAddr: 0x100056500, symSize: 0x1A0 }
  - { offset: 0xA753E, size: 0x8, addend: 0x0, symName: '__ZN4core3fmt3num52_$LT$impl$u20$core..fmt..Debug$u20$for$u20$usize$GT$3fmt17h4806199c82f902ceE', symObjAddr: 0x48C0, symBinAddr: 0x1000566A0, symSize: 0x1B0 }
  - { offset: 0xA76BF, size: 0x8, addend: 0x0, symName: '__ZN4core3fmt3num53_$LT$impl$u20$core..fmt..LowerHex$u20$for$u20$i32$GT$3fmt17hfee837de970427b1E', symObjAddr: 0x4D80, symBinAddr: 0x100056930, symSize: 0x70 }
  - { offset: 0xA7765, size: 0x8, addend: 0x0, symName: '__ZN4core3fmt3num53_$LT$impl$u20$core..fmt..UpperHex$u20$for$u20$i32$GT$3fmt17h26acf60f65152f77E', symObjAddr: 0x5020, symBinAddr: 0x100056A10, symSize: 0x70 }
  - { offset: 0xA7979, size: 0x8, addend: 0x0, symName: __ZN4core3fmt17pointer_fmt_inner17h97023b135e02a0e7E, symObjAddr: 0x1240, symBinAddr: 0x100056080, symSize: 0xA0 }
  - { offset: 0xA7A6A, size: 0x8, addend: 0x0, symName: __ZN4core3fmt5Write9write_fmt17h852655db2bea3a71E, symObjAddr: 0x6270, symBinAddr: 0x100056B60, symSize: 0x20 }
  - { offset: 0xA7AE9, size: 0x8, addend: 0x0, symName: __ZN4core3fmt5write17h32d512c5550f2c71E, symObjAddr: 0x9280, symBinAddr: 0x100056B80, symSize: 0x220 }
  - { offset: 0xA7C97, size: 0x8, addend: 0x0, symName: __ZN4core3fmt9Formatter12pad_integral12write_prefix17he3bb54c358307d3fE, symObjAddr: 0xA290, symBinAddr: 0x100057380, symSize: 0x60 }
  - { offset: 0xA7CFF, size: 0x8, addend: 0x0, symName: '__ZN59_$LT$core..fmt..Arguments$u20$as$u20$core..fmt..Display$GT$3fmt17hfd1b80e04662b19aE', symObjAddr: 0x1B480, symBinAddr: 0x100059BE0, symSize: 0x20 }
  - { offset: 0xA7E22, size: 0x8, addend: 0x0, symName: __ZN4core6result13unwrap_failed17h5b5681f5bd639151E, symObjAddr: 0x180C0, symBinAddr: 0x10005F810, symSize: 0x80 }
  - { offset: 0xA8044, size: 0x8, addend: 0x0, symName: __ZN4core3str5count14do_count_chars17hc493e781e0338f55E, symObjAddr: 0x16370, symBinAddr: 0x100058470, symSize: 0x5A0 }
  - { offset: 0xA848C, size: 0x8, addend: 0x0, symName: __ZN4core3str5count23char_count_general_case17h45b75eff409d0732E, symObjAddr: 0x16910, symBinAddr: 0x100058A10, symSize: 0xB0 }
  - { offset: 0xA84E0, size: 0x8, addend: 0x0, symName: __ZN4core3str5count23char_count_general_case17h45b75eff409d0732E, symObjAddr: 0x16910, symBinAddr: 0x100058A10, symSize: 0xB0 }
  - { offset: 0xA855D, size: 0x8, addend: 0x0, symName: __ZN4core3str16slice_error_fail17h7ebf3d4aa8bf503fE, symObjAddr: 0x15DF0, symBinAddr: 0x10005F4A0, symSize: 0x10 }
  - { offset: 0xA8577, size: 0x8, addend: 0x0, symName: __ZN4core3str19slice_error_fail_rt17hfa55243860877ddbE, symObjAddr: 0x15E40, symBinAddr: 0x1000580D0, symSize: 0x3A0 }
  - { offset: 0xA875E, size: 0x8, addend: 0x0, symName: __ZN4core3str7pattern11StrSearcher3new17hfab9aab88f91478aE, symObjAddr: 0x16A00, symBinAddr: 0x100058AC0, symSize: 0x640 }
  - { offset: 0xA8A1E, size: 0x8, addend: 0x0, symName: __ZN4core3str8converts9from_utf817hab685de2f5c40023E, symObjAddr: 0x17250, symBinAddr: 0x100059100, symSize: 0x210 }
  - { offset: 0xA8A8C, size: 0x8, addend: 0x0, symName: '__ZN87_$LT$core..str..lossy..Utf8Chunks$u20$as$u20$core..iter..traits..iterator..Iterator$GT$4next17hc6bf0146e235ca7cE', symObjAddr: 0x217F0, symBinAddr: 0x100059F50, symSize: 0x1A0 }
  - { offset: 0xA8CA0, size: 0x8, addend: 0x0, symName: __ZN4core3ffi5c_str4CStr19from_bytes_with_nul17h663354f457718412E, symObjAddr: 0xFF0, symBinAddr: 0x100055F60, symSize: 0x120 }
  - { offset: 0xA8DB6, size: 0x8, addend: 0x0, symName: __ZN4core4cell22panic_already_borrowed8do_panic7runtime17hb02334c284ba6668E, symObjAddr: 0x17470, symBinAddr: 0x10005F4C0, symSize: 0x60 }
  - { offset: 0xA8DE9, size: 0x8, addend: 0x0, symName: __ZN4core4cell22panic_already_borrowed17h380a7ae12b05c21bE, symObjAddr: 0x17460, symBinAddr: 0x10005F4B0, symSize: 0x10 }
  - { offset: 0xA8E1E, size: 0x8, addend: 0x0, symName: '__ZN65_$LT$core..cell..BorrowMutError$u20$as$u20$core..fmt..Display$GT$3fmt17hbdc0278247eb0cacE', symObjAddr: 0x1C610, symBinAddr: 0x100059C00, symSize: 0x20 }
  - { offset: 0xA8E6E, size: 0x8, addend: 0x0, symName: __ZN4core7unicode12unicode_data15grapheme_extend11lookup_slow17hdcf8fe3bcaa288d6E, symObjAddr: 0x185E0, symBinAddr: 0x100059830, symSize: 0x100 }
  - { offset: 0xA9089, size: 0x8, addend: 0x0, symName: __ZN4core7unicode9printable12is_printable17hc67588a861ee36a9E, symObjAddr: 0x18AB0, symBinAddr: 0x100059930, symSize: 0x290 }
  - { offset: 0xA93BA, size: 0x8, addend: 0x0, symName: __ZN4core5alloc6layout6Layout19is_size_align_valid17h9b309ba4c67ddf6eE, symObjAddr: 0x17A30, symBinAddr: 0x1000595E0, symSize: 0x30 }
  - { offset: 0xA9404, size: 0x8, addend: 0x0, symName: __ZN4core9panicking11panic_const23panic_const_div_by_zero17h1817bf4a5c63dcf1E, symObjAddr: 0x18D40, symBinAddr: 0x10005F890, symSize: 0x40 }
  - { offset: 0xA9433, size: 0x8, addend: 0x0, symName: __ZN4core9panicking11panic_const23panic_const_rem_by_zero17h66d921d73263a198E, symObjAddr: 0x18DC0, symBinAddr: 0x10005F8D0, symSize: 0x40 }
  - { offset: 0xA9463, size: 0x8, addend: 0x0, symName: __ZN4core9panicking13assert_failed17h512a2273a08e4ba1E, symObjAddr: 0x192BF, symBinAddr: 0x10005F91F, symSize: 0x2F }
  - { offset: 0xA947E, size: 0x8, addend: 0x0, symName: __ZN4core9panicking13assert_failed17haff998095acd4f8eE, symObjAddr: 0x192EE, symBinAddr: 0x10005F94E, symSize: 0x2F }
  - { offset: 0xA9499, size: 0x8, addend: 0x0, symName: __ZN4core9panicking13assert_failed17hf790c8989ead8b5cE, symObjAddr: 0x1931D, symBinAddr: 0x10005F97D, symSize: 0x33 }
  - { offset: 0xA94B4, size: 0x8, addend: 0x0, symName: __ZN4core9panicking14panic_nounwind17h4e71c9dba73fe19eE, symObjAddr: 0x19350, symBinAddr: 0x10005F9B0, symSize: 0x50 }
  - { offset: 0xA94E3, size: 0x8, addend: 0x0, symName: __ZN4core9panicking16panic_in_cleanup17h278dcedb7b834eecE, symObjAddr: 0x19418, symBinAddr: 0x10005FA08, symSize: 0x13 }
  - { offset: 0xA94FE, size: 0x8, addend: 0x0, symName: __ZN4core9panicking18panic_bounds_check17hd6c879668b498650E, symObjAddr: 0x1942B, symBinAddr: 0x10005FA1B, symSize: 0x65 }
  - { offset: 0xA953D, size: 0x8, addend: 0x0, symName: __ZN4core9panicking18panic_nounwind_fmt17h13cf4419fe26bc7eE, symObjAddr: 0x19490, symBinAddr: 0x10005FA80, symSize: 0x5B }
  - { offset: 0xA9582, size: 0x8, addend: 0x0, symName: __ZN4core9panicking19assert_failed_inner17h4305f0dee9388e3cE, symObjAddr: 0x194EB, symBinAddr: 0x10005FADB, symSize: 0x127 }
  - { offset: 0xA95BC, size: 0x8, addend: 0x0, symName: __ZN4core9panicking19panic_cannot_unwind17ha66eab6f79487262E, symObjAddr: 0x19612, symBinAddr: 0x10005FC02, symSize: 0x1E }
  - { offset: 0xA95D7, size: 0x8, addend: 0x0, symName: __ZN4core9panicking26panic_nounwind_nobacktrace17hb4fbf937932f35e4E, symObjAddr: 0x19630, symBinAddr: 0x10005FC20, symSize: 0x4D }
  - { offset: 0xA9606, size: 0x8, addend: 0x0, symName: __ZN4core9panicking5panic17hea69a7d4c28c810cE, symObjAddr: 0x19780, symBinAddr: 0x10005FC70, symSize: 0x50 }
  - { offset: 0xA9635, size: 0x8, addend: 0x0, symName: __ZN4core9panicking9panic_fmt17h46fb0d6076d2bd77E, symObjAddr: 0x197D0, symBinAddr: 0x10005FCC0, symSize: 0x20 }
...
