---
triple:          'x86_64-apple-darwin'
binary-path:     '/Users/kema/git/rust-serv/target/debug/deps/libasync_trait-e620d4e464939a97.dylib'
relocations:
  - { offset: 0x1E, size: 0x8, addend: 0x0, symName: __RINvNtNtCsdGrGZaRBwMb_3syn3gen9visit_mut13visit_abi_mutNtNtCscj7Jssje0XT_11async_trait8lifetime16CollectLifetimesEBV_, symObjAddr: 0x0, symBinAddr: 0xBD0, symSize: 0x60 }
  - { offset: 0x975, size: 0x8, addend: 0x0, symName: __RINvNtNtCsdGrGZaRBwMb_3syn3gen9visit_mut13visit_abi_mutNtNtCscj7Jssje0XT_11async_trait8lifetime16CollectLifetimesEBV_, symObjAddr: 0x0, symBinAddr: 0xBD0, symSize: 0x60 }
  - { offset: 0x9D5, size: 0x8, addend: 0x0, symName: __RINvNtNtCsdGrGZaRBwMb_3syn3gen9visit_mut13visit_abi_mutNtNtCscj7Jssje0XT_11async_trait8lifetime22AddLifetimeToImplTraitEBV_, symObjAddr: 0x60, symBinAddr: 0xC30, symSize: 0x60 }
  - { offset: 0xA35, size: 0x8, addend: 0x0, symName: __RINvNtNtCsdGrGZaRBwMb_3syn3gen9visit_mut13visit_abi_mutNtNtCscj7Jssje0XT_11async_trait8receiver11ReplaceSelfEBV_, symObjAddr: 0xC0, symBinAddr: 0xC90, symSize: 0x60 }
  - { offset: 0xA95, size: 0x8, addend: 0x0, symName: __RINvNtNtCsdGrGZaRBwMb_3syn3gen9visit_mut13visit_abi_mutNtNtCscj7Jssje0XT_11async_trait8receiver7HasSelfEBV_, symObjAddr: 0x120, symBinAddr: 0xCF0, symSize: 0x60 }
  - { offset: 0xAF5, size: 0x8, addend: 0x0, symName: __RINvNtNtCsdGrGZaRBwMb_3syn3gen9visit_mut13visit_abi_mutNtNtCscj7Jssje0XT_11async_trait8receiver9HasMutPatEBV_, symObjAddr: 0x180, symBinAddr: 0xD50, symSize: 0x60 }
  - { offset: 0xB55, size: 0x8, addend: 0x0, symName: __RINvNtNtCsdGrGZaRBwMb_3syn3gen9visit_mut13visit_abi_mutNtNvNtCscj7Jssje0XT_11async_trait6expand29replace_impl_trait_with_infer25ReplaceImplTraitWithInferEBX_, symObjAddr: 0x1E0, symBinAddr: 0xDB0, symSize: 0x60 }
  - { offset: 0xBB5, size: 0x8, addend: 0x0, symName: __RINvNtNtCsdGrGZaRBwMb_3syn3gen9visit_mut13visit_abi_mutNtNvNtCscj7Jssje0XT_11async_trait6expand35contains_associated_type_impl_trait24AssociatedTypeImplTraitsEBX_, symObjAddr: 0x240, symBinAddr: 0xE10, symSize: 0x60 }
  - { offset: 0xC15, size: 0x8, addend: 0x0, symName: __RINvNtNtCsdGrGZaRBwMb_3syn3gen9visit_mut13visit_arm_mutNtNtCscj7Jssje0XT_11async_trait8lifetime16CollectLifetimesEBV_, symObjAddr: 0x2A0, symBinAddr: 0xE70, symSize: 0x140 }
  - { offset: 0xC6D, size: 0x8, addend: 0x0, symName: __RINvNtNtCsdGrGZaRBwMb_3syn3gen9visit_mut13visit_arm_mutNtNtCscj7Jssje0XT_11async_trait8receiver11ReplaceSelfEBV_, symObjAddr: 0x3E0, symBinAddr: 0xFB0, symSize: 0x140 }
  - { offset: 0xCC5, size: 0x8, addend: 0x0, symName: __RINvNtNtCsdGrGZaRBwMb_3syn3gen9visit_mut13visit_arm_mutNtNtCscj7Jssje0XT_11async_trait8receiver7HasSelfEBV_, symObjAddr: 0x520, symBinAddr: 0x10F0, symSize: 0x140 }
  - { offset: 0xD1D, size: 0x8, addend: 0x0, symName: __RINvNtNtCsdGrGZaRBwMb_3syn3gen9visit_mut13visit_arm_mutNtNtCscj7Jssje0XT_11async_trait8receiver9HasMutPatEBV_, symObjAddr: 0x660, symBinAddr: 0x1230, symSize: 0x140 }
  - { offset: 0xD75, size: 0x8, addend: 0x0, symName: __RINvNtNtCsdGrGZaRBwMb_3syn3gen9visit_mut13visit_arm_mutNtNvNtCscj7Jssje0XT_11async_trait6expand29replace_impl_trait_with_infer25ReplaceImplTraitWithInferEBX_, symObjAddr: 0x7A0, symBinAddr: 0x1370, symSize: 0x140 }
  - { offset: 0xDCD, size: 0x8, addend: 0x0, symName: __RINvNtNtCsdGrGZaRBwMb_3syn3gen9visit_mut13visit_arm_mutNtNvNtCscj7Jssje0XT_11async_trait6expand35contains_associated_type_impl_trait24AssociatedTypeImplTraitsEBX_, symObjAddr: 0x8E0, symBinAddr: 0x14B0, symSize: 0x140 }
  - { offset: 0xE25, size: 0x8, addend: 0x0, symName: __RINvNtNtCsdGrGZaRBwMb_3syn3gen9visit_mut13visit_lit_mutNtNtCscj7Jssje0XT_11async_trait8lifetime16CollectLifetimesEBV_, symObjAddr: 0xA20, symBinAddr: 0x15F0, symSize: 0x1A0 }
  - { offset: 0xF5A, size: 0x8, addend: 0x0, symName: __RINvNtNtCsdGrGZaRBwMb_3syn3gen9visit_mut13visit_lit_mutNtNtCscj7Jssje0XT_11async_trait8receiver11ReplaceSelfEBV_, symObjAddr: 0xBC0, symBinAddr: 0x1790, symSize: 0x1A0 }
  - { offset: 0x108F, size: 0x8, addend: 0x0, symName: __RINvNtNtCsdGrGZaRBwMb_3syn3gen9visit_mut13visit_lit_mutNtNtCscj7Jssje0XT_11async_trait8receiver7HasSelfEBV_, symObjAddr: 0xD60, symBinAddr: 0x1930, symSize: 0x1A0 }
  - { offset: 0x11C4, size: 0x8, addend: 0x0, symName: __RINvNtNtCsdGrGZaRBwMb_3syn3gen9visit_mut13visit_lit_mutNtNtCscj7Jssje0XT_11async_trait8receiver9HasMutPatEBV_, symObjAddr: 0xF00, symBinAddr: 0x1AD0, symSize: 0x1A0 }
  - { offset: 0x12F9, size: 0x8, addend: 0x0, symName: __RINvNtNtCsdGrGZaRBwMb_3syn3gen9visit_mut13visit_lit_mutNtNvNtCscj7Jssje0XT_11async_trait6expand29replace_impl_trait_with_infer25ReplaceImplTraitWithInferEBX_, symObjAddr: 0x10A0, symBinAddr: 0x1C70, symSize: 0x1A0 }
  - { offset: 0x142E, size: 0x8, addend: 0x0, symName: __RINvNtNtCsdGrGZaRBwMb_3syn3gen9visit_mut13visit_lit_mutNtNvNtCscj7Jssje0XT_11async_trait6expand35contains_associated_type_impl_trait24AssociatedTypeImplTraitsEBX_, symObjAddr: 0x1240, symBinAddr: 0x1E10, symSize: 0x1A0 }
  - { offset: 0x1563, size: 0x8, addend: 0x0, symName: __RINvNtNtCsdGrGZaRBwMb_3syn3gen9visit_mut13visit_pat_mutNtNtCscj7Jssje0XT_11async_trait8lifetime16CollectLifetimesEBV_, symObjAddr: 0x13E0, symBinAddr: 0x1FB0, symSize: 0x350 }
  - { offset: 0x17A6, size: 0x8, addend: 0x0, symName: __RINvNtNtCsdGrGZaRBwMb_3syn3gen9visit_mut13visit_pat_mutNtNtCscj7Jssje0XT_11async_trait8receiver11ReplaceSelfEBV_, symObjAddr: 0x1730, symBinAddr: 0x2300, symSize: 0x350 }
  - { offset: 0x19E9, size: 0x8, addend: 0x0, symName: __RINvNtNtCsdGrGZaRBwMb_3syn3gen9visit_mut13visit_pat_mutNtNtCscj7Jssje0XT_11async_trait8receiver7HasSelfEBV_, symObjAddr: 0x1A80, symBinAddr: 0x2650, symSize: 0x350 }
  - { offset: 0x1C2C, size: 0x8, addend: 0x0, symName: __RINvNtNtCsdGrGZaRBwMb_3syn3gen9visit_mut13visit_pat_mutNtNtCscj7Jssje0XT_11async_trait8receiver9HasMutPatEBV_, symObjAddr: 0x1DD0, symBinAddr: 0x29A0, symSize: 0x350 }
  - { offset: 0x1E6F, size: 0x8, addend: 0x0, symName: __RINvNtNtCsdGrGZaRBwMb_3syn3gen9visit_mut13visit_pat_mutNtNvNtCscj7Jssje0XT_11async_trait6expand29replace_impl_trait_with_infer25ReplaceImplTraitWithInferEBX_, symObjAddr: 0x2120, symBinAddr: 0x2CF0, symSize: 0x350 }
  - { offset: 0x20B2, size: 0x8, addend: 0x0, symName: __RINvNtNtCsdGrGZaRBwMb_3syn3gen9visit_mut13visit_pat_mutNtNvNtCscj7Jssje0XT_11async_trait6expand35contains_associated_type_impl_trait24AssociatedTypeImplTraitsEBX_, symObjAddr: 0x2470, symBinAddr: 0x3040, symSize: 0x350 }
  - { offset: 0x22F5, size: 0x8, addend: 0x0, symName: __RINvNtNtCsdGrGZaRBwMb_3syn3gen9visit_mut14visit_expr_mutNtNtCscj7Jssje0XT_11async_trait8lifetime16CollectLifetimesEBW_, symObjAddr: 0x27C0, symBinAddr: 0x3390, symSize: 0x770 }
  - { offset: 0x2801, size: 0x8, addend: 0x0, symName: __RINvNtNtCsdGrGZaRBwMb_3syn3gen9visit_mut14visit_expr_mutNtNtCscj7Jssje0XT_11async_trait8receiver11ReplaceSelfEBW_, symObjAddr: 0x2F30, symBinAddr: 0x3B00, symSize: 0x770 }
  - { offset: 0x2D0D, size: 0x8, addend: 0x0, symName: __RINvNtNtCsdGrGZaRBwMb_3syn3gen9visit_mut14visit_expr_mutNtNtCscj7Jssje0XT_11async_trait8receiver7HasSelfEBW_, symObjAddr: 0x36A0, symBinAddr: 0x4270, symSize: 0x770 }
  - { offset: 0x3219, size: 0x8, addend: 0x0, symName: __RINvNtNtCsdGrGZaRBwMb_3syn3gen9visit_mut14visit_expr_mutNtNtCscj7Jssje0XT_11async_trait8receiver9HasMutPatEBW_, symObjAddr: 0x3E10, symBinAddr: 0x49E0, symSize: 0x770 }
  - { offset: 0x3725, size: 0x8, addend: 0x0, symName: __RINvNtNtCsdGrGZaRBwMb_3syn3gen9visit_mut14visit_expr_mutNtNvNtCscj7Jssje0XT_11async_trait6expand29replace_impl_trait_with_infer25ReplaceImplTraitWithInferEBY_, symObjAddr: 0x4580, symBinAddr: 0x5150, symSize: 0x770 }
  - { offset: 0x3C31, size: 0x8, addend: 0x0, symName: __RINvNtNtCsdGrGZaRBwMb_3syn3gen9visit_mut14visit_expr_mutNtNvNtCscj7Jssje0XT_11async_trait6expand35contains_associated_type_impl_trait24AssociatedTypeImplTraitsEBY_, symObjAddr: 0x4CF0, symBinAddr: 0x58C0, symSize: 0x770 }
  - { offset: 0x413D, size: 0x8, addend: 0x0, symName: __RINvNtNtCsdGrGZaRBwMb_3syn3gen9visit_mut14visit_item_mutNtNtCscj7Jssje0XT_11async_trait8lifetime16CollectLifetimesEBW_, symObjAddr: 0x5460, symBinAddr: 0x6030, symSize: 0x320 }
  - { offset: 0x4361, size: 0x8, addend: 0x0, symName: __RINvNtNtCsdGrGZaRBwMb_3syn3gen9visit_mut14visit_item_mutNtNtCscj7Jssje0XT_11async_trait8receiver9HasMutPatEBW_, symObjAddr: 0x5780, symBinAddr: 0x6350, symSize: 0x320 }
  - { offset: 0x4585, size: 0x8, addend: 0x0, symName: __RINvNtNtCsdGrGZaRBwMb_3syn3gen9visit_mut14visit_item_mutNtNvNtCscj7Jssje0XT_11async_trait6expand29replace_impl_trait_with_infer25ReplaceImplTraitWithInferEBY_, symObjAddr: 0x5AA0, symBinAddr: 0x6670, symSize: 0x320 }
  - { offset: 0x47A9, size: 0x8, addend: 0x0, symName: __RINvNtNtCsdGrGZaRBwMb_3syn3gen9visit_mut14visit_item_mutNtNvNtCscj7Jssje0XT_11async_trait6expand35contains_associated_type_impl_trait24AssociatedTypeImplTraitsEBY_, symObjAddr: 0x5DC0, symBinAddr: 0x6990, symSize: 0x320 }
  - { offset: 0x49CD, size: 0x8, addend: 0x0, symName: __RINvNtNtCsdGrGZaRBwMb_3syn3gen9visit_mut14visit_meta_mutNtNtCscj7Jssje0XT_11async_trait8lifetime16CollectLifetimesEBW_, symObjAddr: 0x60E0, symBinAddr: 0x6CB0, symSize: 0xB0 }
  - { offset: 0x4A61, size: 0x8, addend: 0x0, symName: __RINvNtNtCsdGrGZaRBwMb_3syn3gen9visit_mut14visit_meta_mutNtNtCscj7Jssje0XT_11async_trait8lifetime22AddLifetimeToImplTraitEBW_, symObjAddr: 0x6190, symBinAddr: 0x6D60, symSize: 0xB0 }
  - { offset: 0x4AF5, size: 0x8, addend: 0x0, symName: __RINvNtNtCsdGrGZaRBwMb_3syn3gen9visit_mut14visit_meta_mutNtNtCscj7Jssje0XT_11async_trait8receiver11ReplaceSelfEBW_, symObjAddr: 0x6240, symBinAddr: 0x6E10, symSize: 0xB0 }
  - { offset: 0x4B89, size: 0x8, addend: 0x0, symName: __RINvNtNtCsdGrGZaRBwMb_3syn3gen9visit_mut14visit_meta_mutNtNtCscj7Jssje0XT_11async_trait8receiver7HasSelfEBW_, symObjAddr: 0x62F0, symBinAddr: 0x6EC0, symSize: 0xB0 }
  - { offset: 0x4C1D, size: 0x8, addend: 0x0, symName: __RINvNtNtCsdGrGZaRBwMb_3syn3gen9visit_mut14visit_meta_mutNtNtCscj7Jssje0XT_11async_trait8receiver9HasMutPatEBW_, symObjAddr: 0x63A0, symBinAddr: 0x6F70, symSize: 0xB0 }
  - { offset: 0x4CB1, size: 0x8, addend: 0x0, symName: __RINvNtNtCsdGrGZaRBwMb_3syn3gen9visit_mut14visit_meta_mutNtNvNtCscj7Jssje0XT_11async_trait6expand29replace_impl_trait_with_infer25ReplaceImplTraitWithInferEBY_, symObjAddr: 0x6450, symBinAddr: 0x7020, symSize: 0xB0 }
  - { offset: 0x4D45, size: 0x8, addend: 0x0, symName: __RINvNtNtCsdGrGZaRBwMb_3syn3gen9visit_mut14visit_meta_mutNtNvNtCscj7Jssje0XT_11async_trait6expand35contains_associated_type_impl_trait24AssociatedTypeImplTraitsEBY_, symObjAddr: 0x6500, symBinAddr: 0x70D0, symSize: 0xB0 }
  - { offset: 0x4DD9, size: 0x8, addend: 0x0, symName: __RINvNtNtCsdGrGZaRBwMb_3syn3gen9visit_mut14visit_path_mutNtNtCscj7Jssje0XT_11async_trait8lifetime16CollectLifetimesEBW_, symObjAddr: 0x65B0, symBinAddr: 0x7180, symSize: 0xB0 }
  - { offset: 0x4E76, size: 0x8, addend: 0x0, symName: __RINvNtNtCsdGrGZaRBwMb_3syn3gen9visit_mut14visit_path_mutNtNtCscj7Jssje0XT_11async_trait8lifetime22AddLifetimeToImplTraitEBW_, symObjAddr: 0x6660, symBinAddr: 0x7230, symSize: 0xB0 }
  - { offset: 0x4F13, size: 0x8, addend: 0x0, symName: __RINvNtNtCsdGrGZaRBwMb_3syn3gen9visit_mut14visit_path_mutNtNtCscj7Jssje0XT_11async_trait8receiver7HasSelfEBW_, symObjAddr: 0x6710, symBinAddr: 0x72E0, symSize: 0xB0 }
  - { offset: 0x4FB0, size: 0x8, addend: 0x0, symName: __RINvNtNtCsdGrGZaRBwMb_3syn3gen9visit_mut14visit_path_mutNtNtCscj7Jssje0XT_11async_trait8receiver9HasMutPatEBW_, symObjAddr: 0x67C0, symBinAddr: 0x7390, symSize: 0xB0 }
  - { offset: 0x504D, size: 0x8, addend: 0x0, symName: __RINvNtNtCsdGrGZaRBwMb_3syn3gen9visit_mut14visit_path_mutNtNvNtCscj7Jssje0XT_11async_trait6expand29replace_impl_trait_with_infer25ReplaceImplTraitWithInferEBY_, symObjAddr: 0x6870, symBinAddr: 0x7440, symSize: 0xB0 }
  - { offset: 0x50EA, size: 0x8, addend: 0x0, symName: __RINvNtNtCsdGrGZaRBwMb_3syn3gen9visit_mut14visit_path_mutNtNvNtCscj7Jssje0XT_11async_trait6expand35contains_associated_type_impl_trait24AssociatedTypeImplTraitsEBY_, symObjAddr: 0x6920, symBinAddr: 0x74F0, symSize: 0xB0 }
  - { offset: 0x5187, size: 0x8, addend: 0x0, symName: __RINvNtNtCsdGrGZaRBwMb_3syn3gen9visit_mut14visit_stmt_mutNtNtCscj7Jssje0XT_11async_trait8lifetime16CollectLifetimesEBW_, symObjAddr: 0x69D0, symBinAddr: 0x75A0, symSize: 0xF0 }
  - { offset: 0x5249, size: 0x8, addend: 0x0, symName: __RINvNtNtCsdGrGZaRBwMb_3syn3gen9visit_mut14visit_stmt_mutNtNtCscj7Jssje0XT_11async_trait8receiver11ReplaceSelfEBW_, symObjAddr: 0x6AC0, symBinAddr: 0x7690, symSize: 0xF0 }
  - { offset: 0x530B, size: 0x8, addend: 0x0, symName: __RINvNtNtCsdGrGZaRBwMb_3syn3gen9visit_mut14visit_stmt_mutNtNtCscj7Jssje0XT_11async_trait8receiver7HasSelfEBW_, symObjAddr: 0x6BB0, symBinAddr: 0x7780, symSize: 0xF0 }
  - { offset: 0x53CD, size: 0x8, addend: 0x0, symName: __RINvNtNtCsdGrGZaRBwMb_3syn3gen9visit_mut14visit_stmt_mutNtNtCscj7Jssje0XT_11async_trait8receiver9HasMutPatEBW_, symObjAddr: 0x6CA0, symBinAddr: 0x7870, symSize: 0xF0 }
  - { offset: 0x548F, size: 0x8, addend: 0x0, symName: __RINvNtNtCsdGrGZaRBwMb_3syn3gen9visit_mut14visit_stmt_mutNtNvNtCscj7Jssje0XT_11async_trait6expand29replace_impl_trait_with_infer25ReplaceImplTraitWithInferEBY_, symObjAddr: 0x6D90, symBinAddr: 0x7960, symSize: 0xF0 }
  - { offset: 0x5551, size: 0x8, addend: 0x0, symName: __RINvNtNtCsdGrGZaRBwMb_3syn3gen9visit_mut14visit_stmt_mutNtNvNtCscj7Jssje0XT_11async_trait6expand35contains_associated_type_impl_trait24AssociatedTypeImplTraitsEBY_, symObjAddr: 0x6E80, symBinAddr: 0x7A50, symSize: 0xF0 }
  - { offset: 0x5613, size: 0x8, addend: 0x0, symName: __RINvNtNtCsdGrGZaRBwMb_3syn3gen9visit_mut14visit_type_mutNtNtCscj7Jssje0XT_11async_trait8lifetime16CollectLifetimesEBW_, symObjAddr: 0x6F70, symBinAddr: 0x7B40, symSize: 0x2F0 }
  - { offset: 0x5818, size: 0x8, addend: 0x0, symName: __RINvNtNtCsdGrGZaRBwMb_3syn3gen9visit_mut14visit_type_mutNtNtCscj7Jssje0XT_11async_trait8lifetime22AddLifetimeToImplTraitEBW_, symObjAddr: 0x7260, symBinAddr: 0x7E30, symSize: 0x2F0 }
  - { offset: 0x5A1D, size: 0x8, addend: 0x0, symName: __RINvNtNtCsdGrGZaRBwMb_3syn3gen9visit_mut14visit_type_mutNtNtCscj7Jssje0XT_11async_trait8receiver11ReplaceSelfEBW_, symObjAddr: 0x7550, symBinAddr: 0x8120, symSize: 0x2F0 }
  - { offset: 0x5C22, size: 0x8, addend: 0x0, symName: __RINvNtNtCsdGrGZaRBwMb_3syn3gen9visit_mut14visit_type_mutNtNtCscj7Jssje0XT_11async_trait8receiver7HasSelfEBW_, symObjAddr: 0x7840, symBinAddr: 0x8410, symSize: 0x2F0 }
  - { offset: 0x5E27, size: 0x8, addend: 0x0, symName: __RINvNtNtCsdGrGZaRBwMb_3syn3gen9visit_mut14visit_type_mutNtNtCscj7Jssje0XT_11async_trait8receiver9HasMutPatEBW_, symObjAddr: 0x7B30, symBinAddr: 0x8700, symSize: 0x2F0 }
  - { offset: 0x602C, size: 0x8, addend: 0x0, symName: __RINvNtNtCsdGrGZaRBwMb_3syn3gen9visit_mut14visit_type_mutNtNvNtCscj7Jssje0XT_11async_trait6expand29replace_impl_trait_with_infer25ReplaceImplTraitWithInferEBY_, symObjAddr: 0x7E20, symBinAddr: 0x89F0, symSize: 0x2F0 }
  - { offset: 0x6231, size: 0x8, addend: 0x0, symName: __RINvNtNtCsdGrGZaRBwMb_3syn3gen9visit_mut14visit_type_mutNtNvNtCscj7Jssje0XT_11async_trait6expand35contains_associated_type_impl_trait24AssociatedTypeImplTraitsEBY_, symObjAddr: 0x8110, symBinAddr: 0x8CE0, symSize: 0x2F0 }
  - { offset: 0x6436, size: 0x8, addend: 0x0, symName: __RINvNtNtCsdGrGZaRBwMb_3syn3gen9visit_mut15visit_block_mutNtNtCscj7Jssje0XT_11async_trait8lifetime16CollectLifetimesEBX_, symObjAddr: 0x8400, symBinAddr: 0x8FD0, symSize: 0x80 }
  - { offset: 0x64B4, size: 0x8, addend: 0x0, symName: __RINvNtNtCsdGrGZaRBwMb_3syn3gen9visit_mut15visit_block_mutNtNtCscj7Jssje0XT_11async_trait8receiver11ReplaceSelfEBX_, symObjAddr: 0x8480, symBinAddr: 0x9050, symSize: 0x80 }
  - { offset: 0x6532, size: 0x8, addend: 0x0, symName: __RINvNtNtCsdGrGZaRBwMb_3syn3gen9visit_mut15visit_block_mutNtNtCscj7Jssje0XT_11async_trait8receiver7HasSelfEBX_, symObjAddr: 0x8500, symBinAddr: 0x90D0, symSize: 0x80 }
  - { offset: 0x65B0, size: 0x8, addend: 0x0, symName: __RINvNtNtCsdGrGZaRBwMb_3syn3gen9visit_mut15visit_block_mutNtNtCscj7Jssje0XT_11async_trait8receiver9HasMutPatEBX_, symObjAddr: 0x8580, symBinAddr: 0x9150, symSize: 0x80 }
  - { offset: 0x662E, size: 0x8, addend: 0x0, symName: __RINvNtNtCsdGrGZaRBwMb_3syn3gen9visit_mut15visit_block_mutNtNvNtCscj7Jssje0XT_11async_trait6expand29replace_impl_trait_with_infer25ReplaceImplTraitWithInferEBZ_, symObjAddr: 0x8600, symBinAddr: 0x91D0, symSize: 0x80 }
  - { offset: 0x66AC, size: 0x8, addend: 0x0, symName: __RINvNtNtCsdGrGZaRBwMb_3syn3gen9visit_mut15visit_block_mutNtNvNtCscj7Jssje0XT_11async_trait6expand35contains_associated_type_impl_trait24AssociatedTypeImplTraitsEBZ_, symObjAddr: 0x8680, symBinAddr: 0x9250, symSize: 0x80 }
  - { offset: 0x672A, size: 0x8, addend: 0x0, symName: __RINvNtNtCsdGrGZaRBwMb_3syn3gen9visit_mut15visit_field_mutNtNtCscj7Jssje0XT_11async_trait8lifetime16CollectLifetimesEBX_, symObjAddr: 0x8700, symBinAddr: 0x92D0, symSize: 0xB0 }
  - { offset: 0x678A, size: 0x8, addend: 0x0, symName: __RINvNtNtCsdGrGZaRBwMb_3syn3gen9visit_mut15visit_field_mutNtNtCscj7Jssje0XT_11async_trait8receiver9HasMutPatEBX_, symObjAddr: 0x87B0, symBinAddr: 0x9380, symSize: 0xB0 }
  - { offset: 0x67EA, size: 0x8, addend: 0x0, symName: __RINvNtNtCsdGrGZaRBwMb_3syn3gen9visit_mut15visit_field_mutNtNvNtCscj7Jssje0XT_11async_trait6expand29replace_impl_trait_with_infer25ReplaceImplTraitWithInferEBZ_, symObjAddr: 0x8860, symBinAddr: 0x9430, symSize: 0xB0 }
  - { offset: 0x684A, size: 0x8, addend: 0x0, symName: __RINvNtNtCsdGrGZaRBwMb_3syn3gen9visit_mut15visit_field_mutNtNvNtCscj7Jssje0XT_11async_trait6expand35contains_associated_type_impl_trait24AssociatedTypeImplTraitsEBZ_, symObjAddr: 0x8910, symBinAddr: 0x94E0, symSize: 0xB0 }
  - { offset: 0x68AA, size: 0x8, addend: 0x0, symName: __RINvNtNtCsdGrGZaRBwMb_3syn3gen9visit_mut15visit_ident_mutNtNtCscj7Jssje0XT_11async_trait8lifetime16CollectLifetimesEBX_, symObjAddr: 0x89C0, symBinAddr: 0x9590, symSize: 0x60 }
  - { offset: 0x690A, size: 0x8, addend: 0x0, symName: __RINvNtNtCsdGrGZaRBwMb_3syn3gen9visit_mut15visit_ident_mutNtNtCscj7Jssje0XT_11async_trait8lifetime22AddLifetimeToImplTraitEBX_, symObjAddr: 0x8A20, symBinAddr: 0x95F0, symSize: 0x60 }
  - { offset: 0x696A, size: 0x8, addend: 0x0, symName: __RINvNtNtCsdGrGZaRBwMb_3syn3gen9visit_mut15visit_ident_mutNtNtCscj7Jssje0XT_11async_trait8receiver7HasSelfEBX_, symObjAddr: 0x8A80, symBinAddr: 0x9650, symSize: 0x60 }
  - { offset: 0x69CA, size: 0x8, addend: 0x0, symName: __RINvNtNtCsdGrGZaRBwMb_3syn3gen9visit_mut15visit_ident_mutNtNtCscj7Jssje0XT_11async_trait8receiver9HasMutPatEBX_, symObjAddr: 0x8AE0, symBinAddr: 0x96B0, symSize: 0x60 }
  - { offset: 0x6A2A, size: 0x8, addend: 0x0, symName: __RINvNtNtCsdGrGZaRBwMb_3syn3gen9visit_mut15visit_ident_mutNtNvNtCscj7Jssje0XT_11async_trait6expand29replace_impl_trait_with_infer25ReplaceImplTraitWithInferEBZ_, symObjAddr: 0x8B40, symBinAddr: 0x9710, symSize: 0x60 }
  - { offset: 0x6A8A, size: 0x8, addend: 0x0, symName: __RINvNtNtCsdGrGZaRBwMb_3syn3gen9visit_mut15visit_ident_mutNtNvNtCscj7Jssje0XT_11async_trait6expand35contains_associated_type_impl_trait24AssociatedTypeImplTraitsEBZ_, symObjAddr: 0x8BA0, symBinAddr: 0x9770, symSize: 0x60 }
  - { offset: 0x6AEA, size: 0x8, addend: 0x0, symName: __RINvNtNtCsdGrGZaRBwMb_3syn3gen9visit_mut15visit_index_mutNtNtCscj7Jssje0XT_11async_trait8lifetime16CollectLifetimesEBX_, symObjAddr: 0x8C00, symBinAddr: 0x97D0, symSize: 0x30 }
  - { offset: 0x6B2C, size: 0x8, addend: 0x0, symName: __RINvNtNtCsdGrGZaRBwMb_3syn3gen9visit_mut15visit_index_mutNtNtCscj7Jssje0XT_11async_trait8receiver11ReplaceSelfEBX_, symObjAddr: 0x8C30, symBinAddr: 0x9800, symSize: 0x30 }
  - { offset: 0x6B6E, size: 0x8, addend: 0x0, symName: __RINvNtNtCsdGrGZaRBwMb_3syn3gen9visit_mut15visit_index_mutNtNtCscj7Jssje0XT_11async_trait8receiver7HasSelfEBX_, symObjAddr: 0x8C60, symBinAddr: 0x9830, symSize: 0x30 }
  - { offset: 0x6BB0, size: 0x8, addend: 0x0, symName: __RINvNtNtCsdGrGZaRBwMb_3syn3gen9visit_mut15visit_index_mutNtNtCscj7Jssje0XT_11async_trait8receiver9HasMutPatEBX_, symObjAddr: 0x8C90, symBinAddr: 0x9860, symSize: 0x30 }
  - { offset: 0x6BF2, size: 0x8, addend: 0x0, symName: __RINvNtNtCsdGrGZaRBwMb_3syn3gen9visit_mut15visit_index_mutNtNvNtCscj7Jssje0XT_11async_trait6expand29replace_impl_trait_with_infer25ReplaceImplTraitWithInferEBZ_, symObjAddr: 0x8CC0, symBinAddr: 0x9890, symSize: 0x30 }
  - { offset: 0x6C34, size: 0x8, addend: 0x0, symName: __RINvNtNtCsdGrGZaRBwMb_3syn3gen9visit_mut15visit_index_mutNtNvNtCscj7Jssje0XT_11async_trait6expand35contains_associated_type_impl_trait24AssociatedTypeImplTraitsEBZ_, symObjAddr: 0x8CF0, symBinAddr: 0x98C0, symSize: 0x30 }
  - { offset: 0x6C76, size: 0x8, addend: 0x0, symName: __RINvNtNtCsdGrGZaRBwMb_3syn3gen9visit_mut15visit_label_mutNtNtCscj7Jssje0XT_11async_trait8lifetime16CollectLifetimesEBX_, symObjAddr: 0x8D20, symBinAddr: 0x98F0, symSize: 0x30 }
  - { offset: 0x6CB8, size: 0x8, addend: 0x0, symName: __RINvNtNtCsdGrGZaRBwMb_3syn3gen9visit_mut15visit_label_mutNtNtCscj7Jssje0XT_11async_trait8receiver11ReplaceSelfEBX_, symObjAddr: 0x8D50, symBinAddr: 0x9920, symSize: 0x30 }
  - { offset: 0x6CFA, size: 0x8, addend: 0x0, symName: __RINvNtNtCsdGrGZaRBwMb_3syn3gen9visit_mut15visit_label_mutNtNtCscj7Jssje0XT_11async_trait8receiver7HasSelfEBX_, symObjAddr: 0x8D80, symBinAddr: 0x9950, symSize: 0x30 }
  - { offset: 0x6D3C, size: 0x8, addend: 0x0, symName: __RINvNtNtCsdGrGZaRBwMb_3syn3gen9visit_mut15visit_label_mutNtNtCscj7Jssje0XT_11async_trait8receiver9HasMutPatEBX_, symObjAddr: 0x8DB0, symBinAddr: 0x9980, symSize: 0x30 }
  - { offset: 0x6D7E, size: 0x8, addend: 0x0, symName: __RINvNtNtCsdGrGZaRBwMb_3syn3gen9visit_mut15visit_label_mutNtNvNtCscj7Jssje0XT_11async_trait6expand29replace_impl_trait_with_infer25ReplaceImplTraitWithInferEBZ_, symObjAddr: 0x8DE0, symBinAddr: 0x99B0, symSize: 0x30 }
  - { offset: 0x6DC0, size: 0x8, addend: 0x0, symName: __RINvNtNtCsdGrGZaRBwMb_3syn3gen9visit_mut15visit_label_mutNtNvNtCscj7Jssje0XT_11async_trait6expand35contains_associated_type_impl_trait24AssociatedTypeImplTraitsEBZ_, symObjAddr: 0x8E10, symBinAddr: 0x99E0, symSize: 0x30 }
  - { offset: 0x6E02, size: 0x8, addend: 0x0, symName: __RINvNtNtCsdGrGZaRBwMb_3syn3gen9visit_mut15visit_local_mutNtNtCscj7Jssje0XT_11async_trait8lifetime16CollectLifetimesEBX_, symObjAddr: 0x8E40, symBinAddr: 0x9A10, symSize: 0x90 }
  - { offset: 0x6E62, size: 0x8, addend: 0x0, symName: __RINvNtNtCsdGrGZaRBwMb_3syn3gen9visit_mut15visit_local_mutNtNtCscj7Jssje0XT_11async_trait8receiver11ReplaceSelfEBX_, symObjAddr: 0x8ED0, symBinAddr: 0x9AA0, symSize: 0x90 }
  - { offset: 0x6EC2, size: 0x8, addend: 0x0, symName: __RINvNtNtCsdGrGZaRBwMb_3syn3gen9visit_mut15visit_local_mutNtNtCscj7Jssje0XT_11async_trait8receiver7HasSelfEBX_, symObjAddr: 0x8F60, symBinAddr: 0x9B30, symSize: 0x90 }
  - { offset: 0x6F22, size: 0x8, addend: 0x0, symName: __RINvNtNtCsdGrGZaRBwMb_3syn3gen9visit_mut15visit_local_mutNtNtCscj7Jssje0XT_11async_trait8receiver9HasMutPatEBX_, symObjAddr: 0x8FF0, symBinAddr: 0x9BC0, symSize: 0x90 }
  - { offset: 0x6F82, size: 0x8, addend: 0x0, symName: __RINvNtNtCsdGrGZaRBwMb_3syn3gen9visit_mut15visit_local_mutNtNvNtCscj7Jssje0XT_11async_trait6expand29replace_impl_trait_with_infer25ReplaceImplTraitWithInferEBZ_, symObjAddr: 0x9080, symBinAddr: 0x9C50, symSize: 0x90 }
  - { offset: 0x6FE2, size: 0x8, addend: 0x0, symName: __RINvNtNtCsdGrGZaRBwMb_3syn3gen9visit_mut15visit_local_mutNtNvNtCscj7Jssje0XT_11async_trait6expand35contains_associated_type_impl_trait24AssociatedTypeImplTraitsEBZ_, symObjAddr: 0x9110, symBinAddr: 0x9CE0, symSize: 0x90 }
  - { offset: 0x7042, size: 0x8, addend: 0x0, symName: __RINvNtNtCsdGrGZaRBwMb_3syn3gen9visit_mut15visit_macro_mutNtNtCscj7Jssje0XT_11async_trait8lifetime16CollectLifetimesEBX_, symObjAddr: 0x91A0, symBinAddr: 0x9D70, symSize: 0x50 }
  - { offset: 0x7084, size: 0x8, addend: 0x0, symName: __RINvNtNtCsdGrGZaRBwMb_3syn3gen9visit_mut15visit_macro_mutNtNtCscj7Jssje0XT_11async_trait8lifetime22AddLifetimeToImplTraitEBX_, symObjAddr: 0x91F0, symBinAddr: 0x9DC0, symSize: 0x50 }
  - { offset: 0x70C6, size: 0x8, addend: 0x0, symName: __RINvNtNtCsdGrGZaRBwMb_3syn3gen9visit_mut15visit_macro_mutNtNtCscj7Jssje0XT_11async_trait8receiver9HasMutPatEBX_, symObjAddr: 0x9240, symBinAddr: 0x9E10, symSize: 0x50 }
  - { offset: 0x7108, size: 0x8, addend: 0x0, symName: __RINvNtNtCsdGrGZaRBwMb_3syn3gen9visit_mut15visit_macro_mutNtNvNtCscj7Jssje0XT_11async_trait6expand29replace_impl_trait_with_infer25ReplaceImplTraitWithInferEBZ_, symObjAddr: 0x9290, symBinAddr: 0x9E60, symSize: 0x50 }
  - { offset: 0x714A, size: 0x8, addend: 0x0, symName: __RINvNtNtCsdGrGZaRBwMb_3syn3gen9visit_mut15visit_macro_mutNtNvNtCscj7Jssje0XT_11async_trait6expand35contains_associated_type_impl_trait24AssociatedTypeImplTraitsEBZ_, symObjAddr: 0x92E0, symBinAddr: 0x9EB0, symSize: 0x50 }
  - { offset: 0x718C, size: 0x8, addend: 0x0, symName: __RINvNtNtCsdGrGZaRBwMb_3syn3gen9visit_mut15visit_qself_mutNtNtCscj7Jssje0XT_11async_trait8lifetime16CollectLifetimesEBX_, symObjAddr: 0x9330, symBinAddr: 0x9F00, symSize: 0x80 }
  - { offset: 0x71CE, size: 0x8, addend: 0x0, symName: __RINvNtNtCsdGrGZaRBwMb_3syn3gen9visit_mut15visit_qself_mutNtNtCscj7Jssje0XT_11async_trait8lifetime22AddLifetimeToImplTraitEBX_, symObjAddr: 0x93B0, symBinAddr: 0x9F80, symSize: 0x80 }
  - { offset: 0x7210, size: 0x8, addend: 0x0, symName: __RINvNtNtCsdGrGZaRBwMb_3syn3gen9visit_mut15visit_qself_mutNtNtCscj7Jssje0XT_11async_trait8receiver11ReplaceSelfEBX_, symObjAddr: 0x9430, symBinAddr: 0xA000, symSize: 0x80 }
  - { offset: 0x7252, size: 0x8, addend: 0x0, symName: __RINvNtNtCsdGrGZaRBwMb_3syn3gen9visit_mut15visit_qself_mutNtNtCscj7Jssje0XT_11async_trait8receiver7HasSelfEBX_, symObjAddr: 0x94B0, symBinAddr: 0xA080, symSize: 0x80 }
  - { offset: 0x7294, size: 0x8, addend: 0x0, symName: __RINvNtNtCsdGrGZaRBwMb_3syn3gen9visit_mut15visit_qself_mutNtNtCscj7Jssje0XT_11async_trait8receiver9HasMutPatEBX_, symObjAddr: 0x9530, symBinAddr: 0xA100, symSize: 0x80 }
  - { offset: 0x72D6, size: 0x8, addend: 0x0, symName: __RINvNtNtCsdGrGZaRBwMb_3syn3gen9visit_mut15visit_qself_mutNtNvNtCscj7Jssje0XT_11async_trait6expand29replace_impl_trait_with_infer25ReplaceImplTraitWithInferEBZ_, symObjAddr: 0x95B0, symBinAddr: 0xA180, symSize: 0x80 }
  - { offset: 0x7318, size: 0x8, addend: 0x0, symName: __RINvNtNtCsdGrGZaRBwMb_3syn3gen9visit_mut15visit_qself_mutNtNvNtCscj7Jssje0XT_11async_trait6expand35contains_associated_type_impl_trait24AssociatedTypeImplTraitsEBZ_, symObjAddr: 0x9630, symBinAddr: 0xA200, symSize: 0x80 }
  - { offset: 0x735A, size: 0x8, addend: 0x0, symName: __RINvNtNtCsdGrGZaRBwMb_3syn3gen9visit_mut15visit_un_op_mutNtNtCscj7Jssje0XT_11async_trait8lifetime16CollectLifetimesEBX_, symObjAddr: 0x96B0, symBinAddr: 0xA280, symSize: 0x70 }
  - { offset: 0x739C, size: 0x8, addend: 0x0, symName: __RINvNtNtCsdGrGZaRBwMb_3syn3gen9visit_mut15visit_un_op_mutNtNtCscj7Jssje0XT_11async_trait8receiver11ReplaceSelfEBX_, symObjAddr: 0x9720, symBinAddr: 0xA2F0, symSize: 0x70 }
  - { offset: 0x73DE, size: 0x8, addend: 0x0, symName: __RINvNtNtCsdGrGZaRBwMb_3syn3gen9visit_mut15visit_un_op_mutNtNtCscj7Jssje0XT_11async_trait8receiver7HasSelfEBX_, symObjAddr: 0x9790, symBinAddr: 0xA360, symSize: 0x70 }
  - { offset: 0x7420, size: 0x8, addend: 0x0, symName: __RINvNtNtCsdGrGZaRBwMb_3syn3gen9visit_mut15visit_un_op_mutNtNtCscj7Jssje0XT_11async_trait8receiver9HasMutPatEBX_, symObjAddr: 0x9800, symBinAddr: 0xA3D0, symSize: 0x70 }
  - { offset: 0x7462, size: 0x8, addend: 0x0, symName: __RINvNtNtCsdGrGZaRBwMb_3syn3gen9visit_mut15visit_un_op_mutNtNvNtCscj7Jssje0XT_11async_trait6expand29replace_impl_trait_with_infer25ReplaceImplTraitWithInferEBZ_, symObjAddr: 0x9870, symBinAddr: 0xA440, symSize: 0x70 }
  - { offset: 0x74A4, size: 0x8, addend: 0x0, symName: __RINvNtNtCsdGrGZaRBwMb_3syn3gen9visit_mut15visit_un_op_mutNtNvNtCscj7Jssje0XT_11async_trait6expand35contains_associated_type_impl_trait24AssociatedTypeImplTraitsEBZ_, symObjAddr: 0x98E0, symBinAddr: 0xA4B0, symSize: 0x70 }
  - { offset: 0x74E6, size: 0x8, addend: 0x0, symName: __RINvNtNtCsdGrGZaRBwMb_3syn3gen9visit_mut16visit_bin_op_mutNtNtCscj7Jssje0XT_11async_trait8lifetime16CollectLifetimesEBY_, symObjAddr: 0x9950, symBinAddr: 0xA520, symSize: 0x3E0 }
  - { offset: 0x752A, size: 0x8, addend: 0x0, symName: __RINvNtNtCsdGrGZaRBwMb_3syn3gen9visit_mut16visit_bin_op_mutNtNtCscj7Jssje0XT_11async_trait8receiver11ReplaceSelfEBY_, symObjAddr: 0x9D30, symBinAddr: 0xA900, symSize: 0x3E0 }
  - { offset: 0x756E, size: 0x8, addend: 0x0, symName: __RINvNtNtCsdGrGZaRBwMb_3syn3gen9visit_mut16visit_bin_op_mutNtNtCscj7Jssje0XT_11async_trait8receiver7HasSelfEBY_, symObjAddr: 0xA110, symBinAddr: 0xACE0, symSize: 0x3E0 }
  - { offset: 0x75B2, size: 0x8, addend: 0x0, symName: __RINvNtNtCsdGrGZaRBwMb_3syn3gen9visit_mut16visit_bin_op_mutNtNtCscj7Jssje0XT_11async_trait8receiver9HasMutPatEBY_, symObjAddr: 0xA4F0, symBinAddr: 0xB0C0, symSize: 0x3E0 }
  - { offset: 0x75F6, size: 0x8, addend: 0x0, symName: __RINvNtNtCsdGrGZaRBwMb_3syn3gen9visit_mut16visit_bin_op_mutNtNvNtCscj7Jssje0XT_11async_trait6expand29replace_impl_trait_with_infer25ReplaceImplTraitWithInferEB10_, symObjAddr: 0xA8D0, symBinAddr: 0xB4A0, symSize: 0x3E0 }
  - { offset: 0x763A, size: 0x8, addend: 0x0, symName: __RINvNtNtCsdGrGZaRBwMb_3syn3gen9visit_mut16visit_bin_op_mutNtNvNtCscj7Jssje0XT_11async_trait6expand35contains_associated_type_impl_trait24AssociatedTypeImplTraitsEB10_, symObjAddr: 0xACB0, symBinAddr: 0xB880, symSize: 0x3E0 }
  - { offset: 0x767E, size: 0x8, addend: 0x0, symName: __RINvNtNtCsdGrGZaRBwMb_3syn3gen9visit_mut16visit_fields_mutNtNtCscj7Jssje0XT_11async_trait8lifetime16CollectLifetimesEBY_, symObjAddr: 0xB090, symBinAddr: 0xBC60, symSize: 0x90 }
  - { offset: 0x76FC, size: 0x8, addend: 0x0, symName: __RINvNtNtCsdGrGZaRBwMb_3syn3gen9visit_mut16visit_fields_mutNtNtCscj7Jssje0XT_11async_trait8receiver9HasMutPatEBY_, symObjAddr: 0xB120, symBinAddr: 0xBCF0, symSize: 0x90 }
  - { offset: 0x777A, size: 0x8, addend: 0x0, symName: __RINvNtNtCsdGrGZaRBwMb_3syn3gen9visit_mut16visit_fields_mutNtNvNtCscj7Jssje0XT_11async_trait6expand29replace_impl_trait_with_infer25ReplaceImplTraitWithInferEB10_, symObjAddr: 0xB1B0, symBinAddr: 0xBD80, symSize: 0x90 }
  - { offset: 0x77F8, size: 0x8, addend: 0x0, symName: __RINvNtNtCsdGrGZaRBwMb_3syn3gen9visit_mut16visit_fields_mutNtNvNtCscj7Jssje0XT_11async_trait6expand35contains_associated_type_impl_trait24AssociatedTypeImplTraitsEB10_, symObjAddr: 0xB240, symBinAddr: 0xBE10, symSize: 0x90 }
  - { offset: 0x7876, size: 0x8, addend: 0x0, symName: __RINvNtNtCsdGrGZaRBwMb_3syn3gen9visit_mut16visit_fn_arg_mutNtNtCscj7Jssje0XT_11async_trait8lifetime16CollectLifetimesEBY_, symObjAddr: 0xB2D0, symBinAddr: 0xBEA0, symSize: 0x80 }
  - { offset: 0x78EC, size: 0x8, addend: 0x0, symName: __RINvNtNtCsdGrGZaRBwMb_3syn3gen9visit_mut16visit_fn_arg_mutNtNtCscj7Jssje0XT_11async_trait8receiver7HasSelfEBY_, symObjAddr: 0xB350, symBinAddr: 0xBF20, symSize: 0x80 }
  - { offset: 0x7962, size: 0x8, addend: 0x0, symName: __RINvNtNtCsdGrGZaRBwMb_3syn3gen9visit_mut16visit_fn_arg_mutNtNtCscj7Jssje0XT_11async_trait8receiver9HasMutPatEBY_, symObjAddr: 0xB3D0, symBinAddr: 0xBFA0, symSize: 0x80 }
  - { offset: 0x79D8, size: 0x8, addend: 0x0, symName: __RINvNtNtCsdGrGZaRBwMb_3syn3gen9visit_mut16visit_fn_arg_mutNtNvNtCscj7Jssje0XT_11async_trait6expand29replace_impl_trait_with_infer25ReplaceImplTraitWithInferEB10_, symObjAddr: 0xB450, symBinAddr: 0xC020, symSize: 0x80 }
  - { offset: 0x7A4E, size: 0x8, addend: 0x0, symName: __RINvNtNtCsdGrGZaRBwMb_3syn3gen9visit_mut16visit_fn_arg_mutNtNvNtCscj7Jssje0XT_11async_trait6expand35contains_associated_type_impl_trait24AssociatedTypeImplTraitsEB10_, symObjAddr: 0xB4D0, symBinAddr: 0xC0A0, symSize: 0x80 }
  - { offset: 0x7AC4, size: 0x8, addend: 0x0, symName: __RINvNtNtCsdGrGZaRBwMb_3syn3gen9visit_mut16visit_member_mutNtNtCscj7Jssje0XT_11async_trait8lifetime16CollectLifetimesEBY_, symObjAddr: 0xB550, symBinAddr: 0xC120, symSize: 0x70 }
  - { offset: 0x7B3A, size: 0x8, addend: 0x0, symName: __RINvNtNtCsdGrGZaRBwMb_3syn3gen9visit_mut16visit_member_mutNtNtCscj7Jssje0XT_11async_trait8receiver11ReplaceSelfEBY_, symObjAddr: 0xB5C0, symBinAddr: 0xC190, symSize: 0x70 }
  - { offset: 0x7BB0, size: 0x8, addend: 0x0, symName: __RINvNtNtCsdGrGZaRBwMb_3syn3gen9visit_mut16visit_member_mutNtNtCscj7Jssje0XT_11async_trait8receiver7HasSelfEBY_, symObjAddr: 0xB630, symBinAddr: 0xC200, symSize: 0x70 }
  - { offset: 0x7C26, size: 0x8, addend: 0x0, symName: __RINvNtNtCsdGrGZaRBwMb_3syn3gen9visit_mut16visit_member_mutNtNtCscj7Jssje0XT_11async_trait8receiver9HasMutPatEBY_, symObjAddr: 0xB6A0, symBinAddr: 0xC270, symSize: 0x70 }
  - { offset: 0x7C9C, size: 0x8, addend: 0x0, symName: __RINvNtNtCsdGrGZaRBwMb_3syn3gen9visit_mut16visit_member_mutNtNvNtCscj7Jssje0XT_11async_trait6expand29replace_impl_trait_with_infer25ReplaceImplTraitWithInferEB10_, symObjAddr: 0xB710, symBinAddr: 0xC2E0, symSize: 0x70 }
  - { offset: 0x7D12, size: 0x8, addend: 0x0, symName: __RINvNtNtCsdGrGZaRBwMb_3syn3gen9visit_mut16visit_member_mutNtNvNtCscj7Jssje0XT_11async_trait6expand35contains_associated_type_impl_trait24AssociatedTypeImplTraitsEB10_, symObjAddr: 0xB780, symBinAddr: 0xC350, symSize: 0x70 }
  - { offset: 0x7D88, size: 0x8, addend: 0x0, symName: __RINvNtNtCsdGrGZaRBwMb_3syn3gen9visit_mut16visit_pat_or_mutNtNtCscj7Jssje0XT_11async_trait8lifetime16CollectLifetimesEBY_, symObjAddr: 0xB7F0, symBinAddr: 0xC3C0, symSize: 0xD0 }
  - { offset: 0x7E25, size: 0x8, addend: 0x0, symName: __RINvNtNtCsdGrGZaRBwMb_3syn3gen9visit_mut16visit_pat_or_mutNtNtCscj7Jssje0XT_11async_trait8receiver11ReplaceSelfEBY_, symObjAddr: 0xB8C0, symBinAddr: 0xC490, symSize: 0xD0 }
  - { offset: 0x7EC2, size: 0x8, addend: 0x0, symName: __RINvNtNtCsdGrGZaRBwMb_3syn3gen9visit_mut16visit_pat_or_mutNtNtCscj7Jssje0XT_11async_trait8receiver7HasSelfEBY_, symObjAddr: 0xB990, symBinAddr: 0xC560, symSize: 0xD0 }
  - { offset: 0x7F5F, size: 0x8, addend: 0x0, symName: __RINvNtNtCsdGrGZaRBwMb_3syn3gen9visit_mut16visit_pat_or_mutNtNtCscj7Jssje0XT_11async_trait8receiver9HasMutPatEBY_, symObjAddr: 0xBA60, symBinAddr: 0xC630, symSize: 0xD0 }
  - { offset: 0x7FFC, size: 0x8, addend: 0x0, symName: __RINvNtNtCsdGrGZaRBwMb_3syn3gen9visit_mut16visit_pat_or_mutNtNvNtCscj7Jssje0XT_11async_trait6expand29replace_impl_trait_with_infer25ReplaceImplTraitWithInferEB10_, symObjAddr: 0xBB30, symBinAddr: 0xC700, symSize: 0xD0 }
  - { offset: 0x8099, size: 0x8, addend: 0x0, symName: __RINvNtNtCsdGrGZaRBwMb_3syn3gen9visit_mut16visit_pat_or_mutNtNvNtCscj7Jssje0XT_11async_trait6expand35contains_associated_type_impl_trait24AssociatedTypeImplTraitsEB10_, symObjAddr: 0xBC00, symBinAddr: 0xC7D0, symSize: 0xD0 }
  - { offset: 0x8136, size: 0x8, addend: 0x0, symName: __RINvNtNtCsdGrGZaRBwMb_3syn3gen9visit_mut17visit_expr_if_mutNtNtCscj7Jssje0XT_11async_trait8lifetime16CollectLifetimesEBZ_, symObjAddr: 0xBCD0, symBinAddr: 0xC8A0, symSize: 0x130 }
  - { offset: 0x818E, size: 0x8, addend: 0x0, symName: __RINvNtNtCsdGrGZaRBwMb_3syn3gen9visit_mut17visit_expr_if_mutNtNtCscj7Jssje0XT_11async_trait8receiver11ReplaceSelfEBZ_, symObjAddr: 0xBE00, symBinAddr: 0xC9D0, symSize: 0x130 }
  - { offset: 0x81E6, size: 0x8, addend: 0x0, symName: __RINvNtNtCsdGrGZaRBwMb_3syn3gen9visit_mut17visit_expr_if_mutNtNtCscj7Jssje0XT_11async_trait8receiver7HasSelfEBZ_, symObjAddr: 0xBF30, symBinAddr: 0xCB00, symSize: 0x130 }
  - { offset: 0x823E, size: 0x8, addend: 0x0, symName: __RINvNtNtCsdGrGZaRBwMb_3syn3gen9visit_mut17visit_expr_if_mutNtNtCscj7Jssje0XT_11async_trait8receiver9HasMutPatEBZ_, symObjAddr: 0xC060, symBinAddr: 0xCC30, symSize: 0x130 }
  - { offset: 0x8296, size: 0x8, addend: 0x0, symName: __RINvNtNtCsdGrGZaRBwMb_3syn3gen9visit_mut17visit_expr_if_mutNtNvNtCscj7Jssje0XT_11async_trait6expand29replace_impl_trait_with_infer25ReplaceImplTraitWithInferEB11_, symObjAddr: 0xC190, symBinAddr: 0xCD60, symSize: 0x130 }
  - { offset: 0x82EE, size: 0x8, addend: 0x0, symName: __RINvNtNtCsdGrGZaRBwMb_3syn3gen9visit_mut17visit_expr_if_mutNtNvNtCscj7Jssje0XT_11async_trait6expand35contains_associated_type_impl_trait24AssociatedTypeImplTraitsEB11_, symObjAddr: 0xC2C0, symBinAddr: 0xCE90, symSize: 0x130 }
  - { offset: 0x8346, size: 0x8, addend: 0x0, symName: __RINvNtNtCsdGrGZaRBwMb_3syn3gen9visit_mut17visit_item_fn_mutNtNtCscj7Jssje0XT_11async_trait8lifetime16CollectLifetimesEBZ_, symObjAddr: 0xC3F0, symBinAddr: 0xCFC0, symSize: 0xB0 }
  - { offset: 0x8388, size: 0x8, addend: 0x0, symName: __RINvNtNtCsdGrGZaRBwMb_3syn3gen9visit_mut17visit_item_fn_mutNtNtCscj7Jssje0XT_11async_trait8receiver9HasMutPatEBZ_, symObjAddr: 0xC4A0, symBinAddr: 0xD070, symSize: 0xB0 }
  - { offset: 0x83CA, size: 0x8, addend: 0x0, symName: __RINvNtNtCsdGrGZaRBwMb_3syn3gen9visit_mut17visit_item_fn_mutNtNvNtCscj7Jssje0XT_11async_trait6expand29replace_impl_trait_with_infer25ReplaceImplTraitWithInferEB11_, symObjAddr: 0xC550, symBinAddr: 0xD120, symSize: 0xB0 }
  - { offset: 0x840C, size: 0x8, addend: 0x0, symName: __RINvNtNtCsdGrGZaRBwMb_3syn3gen9visit_mut17visit_item_fn_mutNtNvNtCscj7Jssje0XT_11async_trait6expand35contains_associated_type_impl_trait24AssociatedTypeImplTraitsEB11_, symObjAddr: 0xC600, symBinAddr: 0xD1D0, symSize: 0xB0 }
  - { offset: 0x844E, size: 0x8, addend: 0x0, symName: __RINvNtNtCsdGrGZaRBwMb_3syn3gen9visit_mut17visit_lit_int_mutNtNtCscj7Jssje0XT_11async_trait8lifetime16CollectLifetimesEBZ_, symObjAddr: 0xC6B0, symBinAddr: 0xD280, symSize: 0x20 }
  - { offset: 0x8490, size: 0x8, addend: 0x0, symName: __RINvNtNtCsdGrGZaRBwMb_3syn3gen9visit_mut17visit_lit_int_mutNtNtCscj7Jssje0XT_11async_trait8receiver11ReplaceSelfEBZ_, symObjAddr: 0xC6D0, symBinAddr: 0xD2A0, symSize: 0x20 }
  - { offset: 0x84D2, size: 0x8, addend: 0x0, symName: __RINvNtNtCsdGrGZaRBwMb_3syn3gen9visit_mut17visit_lit_int_mutNtNtCscj7Jssje0XT_11async_trait8receiver7HasSelfEBZ_, symObjAddr: 0xC6F0, symBinAddr: 0xD2C0, symSize: 0x20 }
  - { offset: 0x8514, size: 0x8, addend: 0x0, symName: __RINvNtNtCsdGrGZaRBwMb_3syn3gen9visit_mut17visit_lit_int_mutNtNtCscj7Jssje0XT_11async_trait8receiver9HasMutPatEBZ_, symObjAddr: 0xC710, symBinAddr: 0xD2E0, symSize: 0x20 }
  - { offset: 0x8556, size: 0x8, addend: 0x0, symName: __RINvNtNtCsdGrGZaRBwMb_3syn3gen9visit_mut17visit_lit_int_mutNtNvNtCscj7Jssje0XT_11async_trait6expand29replace_impl_trait_with_infer25ReplaceImplTraitWithInferEB11_, symObjAddr: 0xC730, symBinAddr: 0xD300, symSize: 0x20 }
  - { offset: 0x8598, size: 0x8, addend: 0x0, symName: __RINvNtNtCsdGrGZaRBwMb_3syn3gen9visit_mut17visit_lit_int_mutNtNvNtCscj7Jssje0XT_11async_trait6expand35contains_associated_type_impl_trait24AssociatedTypeImplTraitsEB11_, symObjAddr: 0xC750, symBinAddr: 0xD320, symSize: 0x20 }
  - { offset: 0x85DA, size: 0x8, addend: 0x0, symName: __RINvNtNtCsdGrGZaRBwMb_3syn3gen9visit_mut17visit_lit_str_mutNtNtCscj7Jssje0XT_11async_trait8lifetime16CollectLifetimesEBZ_, symObjAddr: 0xC770, symBinAddr: 0xD340, symSize: 0x20 }
  - { offset: 0x861C, size: 0x8, addend: 0x0, symName: __RINvNtNtCsdGrGZaRBwMb_3syn3gen9visit_mut17visit_lit_str_mutNtNtCscj7Jssje0XT_11async_trait8lifetime22AddLifetimeToImplTraitEBZ_, symObjAddr: 0xC790, symBinAddr: 0xD360, symSize: 0x20 }
  - { offset: 0x865E, size: 0x8, addend: 0x0, symName: __RINvNtNtCsdGrGZaRBwMb_3syn3gen9visit_mut17visit_lit_str_mutNtNtCscj7Jssje0XT_11async_trait8receiver11ReplaceSelfEBZ_, symObjAddr: 0xC7B0, symBinAddr: 0xD380, symSize: 0x20 }
  - { offset: 0x86A0, size: 0x8, addend: 0x0, symName: __RINvNtNtCsdGrGZaRBwMb_3syn3gen9visit_mut17visit_lit_str_mutNtNtCscj7Jssje0XT_11async_trait8receiver7HasSelfEBZ_, symObjAddr: 0xC7D0, symBinAddr: 0xD3A0, symSize: 0x20 }
  - { offset: 0x86E2, size: 0x8, addend: 0x0, symName: __RINvNtNtCsdGrGZaRBwMb_3syn3gen9visit_mut17visit_lit_str_mutNtNtCscj7Jssje0XT_11async_trait8receiver9HasMutPatEBZ_, symObjAddr: 0xC7F0, symBinAddr: 0xD3C0, symSize: 0x20 }
  - { offset: 0x8724, size: 0x8, addend: 0x0, symName: __RINvNtNtCsdGrGZaRBwMb_3syn3gen9visit_mut17visit_lit_str_mutNtNvNtCscj7Jssje0XT_11async_trait6expand29replace_impl_trait_with_infer25ReplaceImplTraitWithInferEB11_, symObjAddr: 0xC810, symBinAddr: 0xD3E0, symSize: 0x20 }
  - { offset: 0x8766, size: 0x8, addend: 0x0, symName: __RINvNtNtCsdGrGZaRBwMb_3syn3gen9visit_mut17visit_lit_str_mutNtNvNtCscj7Jssje0XT_11async_trait6expand35contains_associated_type_impl_trait24AssociatedTypeImplTraitsEB11_, symObjAddr: 0xC830, symBinAddr: 0xD400, symSize: 0x20 }
  - { offset: 0x87A8, size: 0x8, addend: 0x0, symName: __RINvNtNtCsdGrGZaRBwMb_3syn3gen9visit_mut17visit_variant_mutNtNtCscj7Jssje0XT_11async_trait8lifetime16CollectLifetimesEBZ_, symObjAddr: 0xC850, symBinAddr: 0xD420, symSize: 0xA0 }
  - { offset: 0x8808, size: 0x8, addend: 0x0, symName: __RINvNtNtCsdGrGZaRBwMb_3syn3gen9visit_mut17visit_variant_mutNtNtCscj7Jssje0XT_11async_trait8receiver9HasMutPatEBZ_, symObjAddr: 0xC8F0, symBinAddr: 0xD4C0, symSize: 0xA0 }
  - { offset: 0x8868, size: 0x8, addend: 0x0, symName: __RINvNtNtCsdGrGZaRBwMb_3syn3gen9visit_mut17visit_variant_mutNtNvNtCscj7Jssje0XT_11async_trait6expand29replace_impl_trait_with_infer25ReplaceImplTraitWithInferEB11_, symObjAddr: 0xC990, symBinAddr: 0xD560, symSize: 0xA0 }
  - { offset: 0x88C8, size: 0x8, addend: 0x0, symName: __RINvNtNtCsdGrGZaRBwMb_3syn3gen9visit_mut17visit_variant_mutNtNvNtCscj7Jssje0XT_11async_trait6expand35contains_associated_type_impl_trait24AssociatedTypeImplTraitsEB11_, symObjAddr: 0xCA30, symBinAddr: 0xD600, symSize: 0xA0 }
  - { offset: 0x8928, size: 0x8, addend: 0x0, symName: __RINvNtNtCsdGrGZaRBwMb_3syn3gen9visit_mut18visit_expr_let_mutNtNtCscj7Jssje0XT_11async_trait8lifetime16CollectLifetimesEB10_, symObjAddr: 0xCAD0, symBinAddr: 0xD6A0, symSize: 0xE0 }
  - { offset: 0x896A, size: 0x8, addend: 0x0, symName: __RINvNtNtCsdGrGZaRBwMb_3syn3gen9visit_mut18visit_expr_let_mutNtNtCscj7Jssje0XT_11async_trait8receiver11ReplaceSelfEB10_, symObjAddr: 0xCBB0, symBinAddr: 0xD780, symSize: 0xE0 }
  - { offset: 0x89AC, size: 0x8, addend: 0x0, symName: __RINvNtNtCsdGrGZaRBwMb_3syn3gen9visit_mut18visit_expr_let_mutNtNtCscj7Jssje0XT_11async_trait8receiver7HasSelfEB10_, symObjAddr: 0xCC90, symBinAddr: 0xD860, symSize: 0xE0 }
  - { offset: 0x89EE, size: 0x8, addend: 0x0, symName: __RINvNtNtCsdGrGZaRBwMb_3syn3gen9visit_mut18visit_expr_let_mutNtNtCscj7Jssje0XT_11async_trait8receiver9HasMutPatEB10_, symObjAddr: 0xCD70, symBinAddr: 0xD940, symSize: 0xE0 }
  - { offset: 0x8A30, size: 0x8, addend: 0x0, symName: __RINvNtNtCsdGrGZaRBwMb_3syn3gen9visit_mut18visit_expr_let_mutNtNvNtCscj7Jssje0XT_11async_trait6expand29replace_impl_trait_with_infer25ReplaceImplTraitWithInferEB12_, symObjAddr: 0xCE50, symBinAddr: 0xDA20, symSize: 0xE0 }
  - { offset: 0x8A72, size: 0x8, addend: 0x0, symName: __RINvNtNtCsdGrGZaRBwMb_3syn3gen9visit_mut18visit_expr_let_mutNtNvNtCscj7Jssje0XT_11async_trait6expand35contains_associated_type_impl_trait24AssociatedTypeImplTraitsEB12_, symObjAddr: 0xCF30, symBinAddr: 0xDB00, symSize: 0xE0 }
  - { offset: 0x8AB4, size: 0x8, addend: 0x0, symName: __RINvNtNtCsdGrGZaRBwMb_3syn3gen9visit_mut18visit_expr_lit_mutNtNtCscj7Jssje0XT_11async_trait8lifetime16CollectLifetimesEB10_, symObjAddr: 0xD010, symBinAddr: 0xDBE0, symSize: 0x40 }
  - { offset: 0x8AF6, size: 0x8, addend: 0x0, symName: __RINvNtNtCsdGrGZaRBwMb_3syn3gen9visit_mut18visit_expr_lit_mutNtNtCscj7Jssje0XT_11async_trait8receiver11ReplaceSelfEB10_, symObjAddr: 0xD050, symBinAddr: 0xDC20, symSize: 0x40 }
  - { offset: 0x8B38, size: 0x8, addend: 0x0, symName: __RINvNtNtCsdGrGZaRBwMb_3syn3gen9visit_mut18visit_expr_lit_mutNtNtCscj7Jssje0XT_11async_trait8receiver7HasSelfEB10_, symObjAddr: 0xD090, symBinAddr: 0xDC60, symSize: 0x40 }
  - { offset: 0x8B7A, size: 0x8, addend: 0x0, symName: __RINvNtNtCsdGrGZaRBwMb_3syn3gen9visit_mut18visit_expr_lit_mutNtNtCscj7Jssje0XT_11async_trait8receiver9HasMutPatEB10_, symObjAddr: 0xD0D0, symBinAddr: 0xDCA0, symSize: 0x40 }
  - { offset: 0x8BBC, size: 0x8, addend: 0x0, symName: __RINvNtNtCsdGrGZaRBwMb_3syn3gen9visit_mut18visit_expr_lit_mutNtNvNtCscj7Jssje0XT_11async_trait6expand29replace_impl_trait_with_infer25ReplaceImplTraitWithInferEB12_, symObjAddr: 0xD110, symBinAddr: 0xDCE0, symSize: 0x40 }
  - { offset: 0x8BFE, size: 0x8, addend: 0x0, symName: __RINvNtNtCsdGrGZaRBwMb_3syn3gen9visit_mut18visit_expr_lit_mutNtNvNtCscj7Jssje0XT_11async_trait6expand35contains_associated_type_impl_trait24AssociatedTypeImplTraitsEB12_, symObjAddr: 0xD150, symBinAddr: 0xDD20, symSize: 0x40 }
  - { offset: 0x8C40, size: 0x8, addend: 0x0, symName: __RINvNtNtCsdGrGZaRBwMb_3syn3gen9visit_mut18visit_expr_try_mutNtNtCscj7Jssje0XT_11async_trait8lifetime16CollectLifetimesEB10_, symObjAddr: 0xD190, symBinAddr: 0xDD60, symSize: 0x90 }
  - { offset: 0x8C82, size: 0x8, addend: 0x0, symName: __RINvNtNtCsdGrGZaRBwMb_3syn3gen9visit_mut18visit_expr_try_mutNtNtCscj7Jssje0XT_11async_trait8receiver11ReplaceSelfEB10_, symObjAddr: 0xD220, symBinAddr: 0xDDF0, symSize: 0x90 }
  - { offset: 0x8CC4, size: 0x8, addend: 0x0, symName: __RINvNtNtCsdGrGZaRBwMb_3syn3gen9visit_mut18visit_expr_try_mutNtNtCscj7Jssje0XT_11async_trait8receiver7HasSelfEB10_, symObjAddr: 0xD2B0, symBinAddr: 0xDE80, symSize: 0x90 }
  - { offset: 0x8D06, size: 0x8, addend: 0x0, symName: __RINvNtNtCsdGrGZaRBwMb_3syn3gen9visit_mut18visit_expr_try_mutNtNtCscj7Jssje0XT_11async_trait8receiver9HasMutPatEB10_, symObjAddr: 0xD340, symBinAddr: 0xDF10, symSize: 0x90 }
  - { offset: 0x8D48, size: 0x8, addend: 0x0, symName: __RINvNtNtCsdGrGZaRBwMb_3syn3gen9visit_mut18visit_expr_try_mutNtNvNtCscj7Jssje0XT_11async_trait6expand29replace_impl_trait_with_infer25ReplaceImplTraitWithInferEB12_, symObjAddr: 0xD3D0, symBinAddr: 0xDFA0, symSize: 0x90 }
  - { offset: 0x8D8A, size: 0x8, addend: 0x0, symName: __RINvNtNtCsdGrGZaRBwMb_3syn3gen9visit_mut18visit_expr_try_mutNtNvNtCscj7Jssje0XT_11async_trait6expand35contains_associated_type_impl_trait24AssociatedTypeImplTraitsEB12_, symObjAddr: 0xD460, symBinAddr: 0xE030, symSize: 0x90 }
  - { offset: 0x8DCC, size: 0x8, addend: 0x0, symName: __RINvNtNtCsdGrGZaRBwMb_3syn3gen9visit_mut18visit_generics_mutNtNtCscj7Jssje0XT_11async_trait8lifetime16CollectLifetimesEB10_, symObjAddr: 0xD4F0, symBinAddr: 0xE0C0, symSize: 0x110 }
  - { offset: 0x8E87, size: 0x8, addend: 0x0, symName: __RINvNtNtCsdGrGZaRBwMb_3syn3gen9visit_mut18visit_generics_mutNtNtCscj7Jssje0XT_11async_trait8receiver7HasSelfEB10_, symObjAddr: 0xD600, symBinAddr: 0xE1D0, symSize: 0x110 }
  - { offset: 0x8F42, size: 0x8, addend: 0x0, symName: __RINvNtNtCsdGrGZaRBwMb_3syn3gen9visit_mut18visit_generics_mutNtNtCscj7Jssje0XT_11async_trait8receiver9HasMutPatEB10_, symObjAddr: 0xD710, symBinAddr: 0xE2E0, symSize: 0x110 }
  - { offset: 0x8FFD, size: 0x8, addend: 0x0, symName: __RINvNtNtCsdGrGZaRBwMb_3syn3gen9visit_mut18visit_generics_mutNtNvNtCscj7Jssje0XT_11async_trait6expand29replace_impl_trait_with_infer25ReplaceImplTraitWithInferEB12_, symObjAddr: 0xD820, symBinAddr: 0xE3F0, symSize: 0x110 }
  - { offset: 0x90B8, size: 0x8, addend: 0x0, symName: __RINvNtNtCsdGrGZaRBwMb_3syn3gen9visit_mut18visit_generics_mutNtNvNtCscj7Jssje0XT_11async_trait6expand35contains_associated_type_impl_trait24AssociatedTypeImplTraitsEB12_, symObjAddr: 0xD930, symBinAddr: 0xE500, symSize: 0x110 }
  - { offset: 0x9173, size: 0x8, addend: 0x0, symName: __RINvNtNtCsdGrGZaRBwMb_3syn3gen9visit_mut18visit_item_mod_mutNtNtCscj7Jssje0XT_11async_trait8lifetime16CollectLifetimesEB10_, symObjAddr: 0xDA40, symBinAddr: 0xE610, symSize: 0xF0 }
  - { offset: 0x91FF, size: 0x8, addend: 0x0, symName: __RINvNtNtCsdGrGZaRBwMb_3syn3gen9visit_mut18visit_item_mod_mutNtNtCscj7Jssje0XT_11async_trait8receiver9HasMutPatEB10_, symObjAddr: 0xDB30, symBinAddr: 0xE700, symSize: 0xF0 }
  - { offset: 0x928B, size: 0x8, addend: 0x0, symName: __RINvNtNtCsdGrGZaRBwMb_3syn3gen9visit_mut18visit_item_mod_mutNtNvNtCscj7Jssje0XT_11async_trait6expand29replace_impl_trait_with_infer25ReplaceImplTraitWithInferEB12_, symObjAddr: 0xDC20, symBinAddr: 0xE7F0, symSize: 0xF0 }
  - { offset: 0x9317, size: 0x8, addend: 0x0, symName: __RINvNtNtCsdGrGZaRBwMb_3syn3gen9visit_mut18visit_item_mod_mutNtNvNtCscj7Jssje0XT_11async_trait6expand35contains_associated_type_impl_trait24AssociatedTypeImplTraitsEB12_, symObjAddr: 0xDD10, symBinAddr: 0xE8E0, symSize: 0xF0 }
  - { offset: 0x93A3, size: 0x8, addend: 0x0, symName: __RINvNtNtCsdGrGZaRBwMb_3syn3gen9visit_mut18visit_item_use_mutNtNtCscj7Jssje0XT_11async_trait8lifetime16CollectLifetimesEB10_, symObjAddr: 0xDE00, symBinAddr: 0xE9D0, symSize: 0x50 }
  - { offset: 0x93E5, size: 0x8, addend: 0x0, symName: __RINvNtNtCsdGrGZaRBwMb_3syn3gen9visit_mut18visit_item_use_mutNtNtCscj7Jssje0XT_11async_trait8receiver9HasMutPatEB10_, symObjAddr: 0xDE50, symBinAddr: 0xEA20, symSize: 0x50 }
  - { offset: 0x9427, size: 0x8, addend: 0x0, symName: __RINvNtNtCsdGrGZaRBwMb_3syn3gen9visit_mut18visit_item_use_mutNtNvNtCscj7Jssje0XT_11async_trait6expand29replace_impl_trait_with_infer25ReplaceImplTraitWithInferEB12_, symObjAddr: 0xDEA0, symBinAddr: 0xEA70, symSize: 0x50 }
  - { offset: 0x9469, size: 0x8, addend: 0x0, symName: __RINvNtNtCsdGrGZaRBwMb_3syn3gen9visit_mut18visit_item_use_mutNtNvNtCscj7Jssje0XT_11async_trait6expand35contains_associated_type_impl_trait24AssociatedTypeImplTraitsEB12_, symObjAddr: 0xDEF0, symBinAddr: 0xEAC0, symSize: 0x50 }
  - { offset: 0x94AB, size: 0x8, addend: 0x0, symName: __RINvNtNtCsdGrGZaRBwMb_3syn3gen9visit_mut18visit_lifetime_mutNtNtCscj7Jssje0XT_11async_trait8lifetime16CollectLifetimesEB10_, symObjAddr: 0xDF40, symBinAddr: 0xEB10, symSize: 0x40 }
  - { offset: 0x94ED, size: 0x8, addend: 0x0, symName: __RINvNtNtCsdGrGZaRBwMb_3syn3gen9visit_mut18visit_lifetime_mutNtNtCscj7Jssje0XT_11async_trait8lifetime22AddLifetimeToImplTraitEB10_, symObjAddr: 0xDF80, symBinAddr: 0xEB50, symSize: 0x40 }
  - { offset: 0x952F, size: 0x8, addend: 0x0, symName: __RINvNtNtCsdGrGZaRBwMb_3syn3gen9visit_mut18visit_lifetime_mutNtNtCscj7Jssje0XT_11async_trait8receiver11ReplaceSelfEB10_, symObjAddr: 0xDFC0, symBinAddr: 0xEB90, symSize: 0x40 }
  - { offset: 0x9571, size: 0x8, addend: 0x0, symName: __RINvNtNtCsdGrGZaRBwMb_3syn3gen9visit_mut18visit_lifetime_mutNtNtCscj7Jssje0XT_11async_trait8receiver7HasSelfEB10_, symObjAddr: 0xE000, symBinAddr: 0xEBD0, symSize: 0x40 }
  - { offset: 0x95B3, size: 0x8, addend: 0x0, symName: __RINvNtNtCsdGrGZaRBwMb_3syn3gen9visit_mut18visit_lifetime_mutNtNtCscj7Jssje0XT_11async_trait8receiver9HasMutPatEB10_, symObjAddr: 0xE040, symBinAddr: 0xEC10, symSize: 0x40 }
  - { offset: 0x95F5, size: 0x8, addend: 0x0, symName: __RINvNtNtCsdGrGZaRBwMb_3syn3gen9visit_mut18visit_lifetime_mutNtNvNtCscj7Jssje0XT_11async_trait6expand29replace_impl_trait_with_infer25ReplaceImplTraitWithInferEB12_, symObjAddr: 0xE080, symBinAddr: 0xEC50, symSize: 0x40 }
  - { offset: 0x9637, size: 0x8, addend: 0x0, symName: __RINvNtNtCsdGrGZaRBwMb_3syn3gen9visit_mut18visit_lifetime_mutNtNvNtCscj7Jssje0XT_11async_trait6expand35contains_associated_type_impl_trait24AssociatedTypeImplTraitsEB12_, symObjAddr: 0xE0C0, symBinAddr: 0xEC90, symSize: 0x40 }
  - { offset: 0x9679, size: 0x8, addend: 0x0, symName: __RINvNtNtCsdGrGZaRBwMb_3syn3gen9visit_mut18visit_lit_bool_mutNtNtCscj7Jssje0XT_11async_trait8lifetime16CollectLifetimesEB10_, symObjAddr: 0xE100, symBinAddr: 0xECD0, symSize: 0x30 }
  - { offset: 0x96BB, size: 0x8, addend: 0x0, symName: __RINvNtNtCsdGrGZaRBwMb_3syn3gen9visit_mut18visit_lit_bool_mutNtNtCscj7Jssje0XT_11async_trait8receiver11ReplaceSelfEB10_, symObjAddr: 0xE130, symBinAddr: 0xED00, symSize: 0x30 }
  - { offset: 0x96FD, size: 0x8, addend: 0x0, symName: __RINvNtNtCsdGrGZaRBwMb_3syn3gen9visit_mut18visit_lit_bool_mutNtNtCscj7Jssje0XT_11async_trait8receiver7HasSelfEB10_, symObjAddr: 0xE160, symBinAddr: 0xED30, symSize: 0x30 }
  - { offset: 0x973F, size: 0x8, addend: 0x0, symName: __RINvNtNtCsdGrGZaRBwMb_3syn3gen9visit_mut18visit_lit_bool_mutNtNtCscj7Jssje0XT_11async_trait8receiver9HasMutPatEB10_, symObjAddr: 0xE190, symBinAddr: 0xED60, symSize: 0x30 }
  - { offset: 0x9781, size: 0x8, addend: 0x0, symName: __RINvNtNtCsdGrGZaRBwMb_3syn3gen9visit_mut18visit_lit_bool_mutNtNvNtCscj7Jssje0XT_11async_trait6expand29replace_impl_trait_with_infer25ReplaceImplTraitWithInferEB12_, symObjAddr: 0xE1C0, symBinAddr: 0xED90, symSize: 0x30 }
  - { offset: 0x97C3, size: 0x8, addend: 0x0, symName: __RINvNtNtCsdGrGZaRBwMb_3syn3gen9visit_mut18visit_lit_bool_mutNtNvNtCscj7Jssje0XT_11async_trait6expand35contains_associated_type_impl_trait24AssociatedTypeImplTraitsEB12_, symObjAddr: 0xE1F0, symBinAddr: 0xEDC0, symSize: 0x30 }
  - { offset: 0x9805, size: 0x8, addend: 0x0, symName: __RINvNtNtCsdGrGZaRBwMb_3syn3gen9visit_mut18visit_lit_byte_mutNtNtCscj7Jssje0XT_11async_trait8lifetime16CollectLifetimesEB10_, symObjAddr: 0xE220, symBinAddr: 0xEDF0, symSize: 0x20 }
  - { offset: 0x9847, size: 0x8, addend: 0x0, symName: __RINvNtNtCsdGrGZaRBwMb_3syn3gen9visit_mut18visit_lit_byte_mutNtNtCscj7Jssje0XT_11async_trait8receiver11ReplaceSelfEB10_, symObjAddr: 0xE240, symBinAddr: 0xEE10, symSize: 0x20 }
  - { offset: 0x9889, size: 0x8, addend: 0x0, symName: __RINvNtNtCsdGrGZaRBwMb_3syn3gen9visit_mut18visit_lit_byte_mutNtNtCscj7Jssje0XT_11async_trait8receiver7HasSelfEB10_, symObjAddr: 0xE260, symBinAddr: 0xEE30, symSize: 0x20 }
  - { offset: 0x98CB, size: 0x8, addend: 0x0, symName: __RINvNtNtCsdGrGZaRBwMb_3syn3gen9visit_mut18visit_lit_byte_mutNtNtCscj7Jssje0XT_11async_trait8receiver9HasMutPatEB10_, symObjAddr: 0xE280, symBinAddr: 0xEE50, symSize: 0x20 }
  - { offset: 0x990D, size: 0x8, addend: 0x0, symName: __RINvNtNtCsdGrGZaRBwMb_3syn3gen9visit_mut18visit_lit_byte_mutNtNvNtCscj7Jssje0XT_11async_trait6expand29replace_impl_trait_with_infer25ReplaceImplTraitWithInferEB12_, symObjAddr: 0xE2A0, symBinAddr: 0xEE70, symSize: 0x20 }
  - { offset: 0x994F, size: 0x8, addend: 0x0, symName: __RINvNtNtCsdGrGZaRBwMb_3syn3gen9visit_mut18visit_lit_byte_mutNtNvNtCscj7Jssje0XT_11async_trait6expand35contains_associated_type_impl_trait24AssociatedTypeImplTraitsEB12_, symObjAddr: 0xE2C0, symBinAddr: 0xEE90, symSize: 0x20 }
  - { offset: 0x9991, size: 0x8, addend: 0x0, symName: __RINvNtNtCsdGrGZaRBwMb_3syn3gen9visit_mut18visit_lit_char_mutNtNtCscj7Jssje0XT_11async_trait8lifetime16CollectLifetimesEB10_, symObjAddr: 0xE2E0, symBinAddr: 0xEEB0, symSize: 0x20 }
  - { offset: 0x99D3, size: 0x8, addend: 0x0, symName: __RINvNtNtCsdGrGZaRBwMb_3syn3gen9visit_mut18visit_lit_char_mutNtNtCscj7Jssje0XT_11async_trait8receiver11ReplaceSelfEB10_, symObjAddr: 0xE300, symBinAddr: 0xEED0, symSize: 0x20 }
  - { offset: 0x9A15, size: 0x8, addend: 0x0, symName: __RINvNtNtCsdGrGZaRBwMb_3syn3gen9visit_mut18visit_lit_char_mutNtNtCscj7Jssje0XT_11async_trait8receiver7HasSelfEB10_, symObjAddr: 0xE320, symBinAddr: 0xEEF0, symSize: 0x20 }
  - { offset: 0x9A57, size: 0x8, addend: 0x0, symName: __RINvNtNtCsdGrGZaRBwMb_3syn3gen9visit_mut18visit_lit_char_mutNtNtCscj7Jssje0XT_11async_trait8receiver9HasMutPatEB10_, symObjAddr: 0xE340, symBinAddr: 0xEF10, symSize: 0x20 }
  - { offset: 0x9A99, size: 0x8, addend: 0x0, symName: __RINvNtNtCsdGrGZaRBwMb_3syn3gen9visit_mut18visit_lit_char_mutNtNvNtCscj7Jssje0XT_11async_trait6expand29replace_impl_trait_with_infer25ReplaceImplTraitWithInferEB12_, symObjAddr: 0xE360, symBinAddr: 0xEF30, symSize: 0x20 }
  - { offset: 0x9ADB, size: 0x8, addend: 0x0, symName: __RINvNtNtCsdGrGZaRBwMb_3syn3gen9visit_mut18visit_lit_char_mutNtNvNtCscj7Jssje0XT_11async_trait6expand35contains_associated_type_impl_trait24AssociatedTypeImplTraitsEB12_, symObjAddr: 0xE380, symBinAddr: 0xEF50, symSize: 0x20 }
  - { offset: 0x9B1D, size: 0x8, addend: 0x0, symName: __RINvNtNtCsdGrGZaRBwMb_3syn3gen9visit_mut18visit_lit_cstr_mutNtNtCscj7Jssje0XT_11async_trait8lifetime16CollectLifetimesEB10_, symObjAddr: 0xE3A0, symBinAddr: 0xEF70, symSize: 0x20 }
  - { offset: 0x9B5F, size: 0x8, addend: 0x0, symName: __RINvNtNtCsdGrGZaRBwMb_3syn3gen9visit_mut18visit_lit_cstr_mutNtNtCscj7Jssje0XT_11async_trait8receiver11ReplaceSelfEB10_, symObjAddr: 0xE3C0, symBinAddr: 0xEF90, symSize: 0x20 }
  - { offset: 0x9BA1, size: 0x8, addend: 0x0, symName: __RINvNtNtCsdGrGZaRBwMb_3syn3gen9visit_mut18visit_lit_cstr_mutNtNtCscj7Jssje0XT_11async_trait8receiver7HasSelfEB10_, symObjAddr: 0xE3E0, symBinAddr: 0xEFB0, symSize: 0x20 }
  - { offset: 0x9BE3, size: 0x8, addend: 0x0, symName: __RINvNtNtCsdGrGZaRBwMb_3syn3gen9visit_mut18visit_lit_cstr_mutNtNtCscj7Jssje0XT_11async_trait8receiver9HasMutPatEB10_, symObjAddr: 0xE400, symBinAddr: 0xEFD0, symSize: 0x20 }
  - { offset: 0x9C25, size: 0x8, addend: 0x0, symName: __RINvNtNtCsdGrGZaRBwMb_3syn3gen9visit_mut18visit_lit_cstr_mutNtNvNtCscj7Jssje0XT_11async_trait6expand29replace_impl_trait_with_infer25ReplaceImplTraitWithInferEB12_, symObjAddr: 0xE420, symBinAddr: 0xEFF0, symSize: 0x20 }
  - { offset: 0x9C67, size: 0x8, addend: 0x0, symName: __RINvNtNtCsdGrGZaRBwMb_3syn3gen9visit_mut18visit_lit_cstr_mutNtNvNtCscj7Jssje0XT_11async_trait6expand35contains_associated_type_impl_trait24AssociatedTypeImplTraitsEB12_, symObjAddr: 0xE440, symBinAddr: 0xF010, symSize: 0x20 }
  - { offset: 0x9CA9, size: 0x8, addend: 0x0, symName: __RINvNtNtCsdGrGZaRBwMb_3syn3gen9visit_mut18visit_pat_rest_mutNtNtCscj7Jssje0XT_11async_trait8lifetime16CollectLifetimesEB10_, symObjAddr: 0xE460, symBinAddr: 0xF030, symSize: 0x30 }
  - { offset: 0x9CEB, size: 0x8, addend: 0x0, symName: __RINvNtNtCsdGrGZaRBwMb_3syn3gen9visit_mut18visit_pat_rest_mutNtNtCscj7Jssje0XT_11async_trait8receiver11ReplaceSelfEB10_, symObjAddr: 0xE490, symBinAddr: 0xF060, symSize: 0x30 }
  - { offset: 0x9D2D, size: 0x8, addend: 0x0, symName: __RINvNtNtCsdGrGZaRBwMb_3syn3gen9visit_mut18visit_pat_rest_mutNtNtCscj7Jssje0XT_11async_trait8receiver7HasSelfEB10_, symObjAddr: 0xE4C0, symBinAddr: 0xF090, symSize: 0x30 }
  - { offset: 0x9D6F, size: 0x8, addend: 0x0, symName: __RINvNtNtCsdGrGZaRBwMb_3syn3gen9visit_mut18visit_pat_rest_mutNtNtCscj7Jssje0XT_11async_trait8receiver9HasMutPatEB10_, symObjAddr: 0xE4F0, symBinAddr: 0xF0C0, symSize: 0x30 }
  - { offset: 0x9DB1, size: 0x8, addend: 0x0, symName: __RINvNtNtCsdGrGZaRBwMb_3syn3gen9visit_mut18visit_pat_rest_mutNtNvNtCscj7Jssje0XT_11async_trait6expand29replace_impl_trait_with_infer25ReplaceImplTraitWithInferEB12_, symObjAddr: 0xE520, symBinAddr: 0xF0F0, symSize: 0x30 }
  - { offset: 0x9DF3, size: 0x8, addend: 0x0, symName: __RINvNtNtCsdGrGZaRBwMb_3syn3gen9visit_mut18visit_pat_rest_mutNtNvNtCscj7Jssje0XT_11async_trait6expand35contains_associated_type_impl_trait24AssociatedTypeImplTraitsEB12_, symObjAddr: 0xE550, symBinAddr: 0xF120, symSize: 0x30 }
  - { offset: 0x9E35, size: 0x8, addend: 0x0, symName: __RINvNtNtCsdGrGZaRBwMb_3syn3gen9visit_mut18visit_pat_type_mutNtNtCscj7Jssje0XT_11async_trait8lifetime16CollectLifetimesEB10_, symObjAddr: 0xE580, symBinAddr: 0xF150, symSize: 0xE0 }
  - { offset: 0x9E77, size: 0x8, addend: 0x0, symName: __RINvNtNtCsdGrGZaRBwMb_3syn3gen9visit_mut18visit_pat_type_mutNtNtCscj7Jssje0XT_11async_trait8receiver11ReplaceSelfEB10_, symObjAddr: 0xE660, symBinAddr: 0xF230, symSize: 0xE0 }
  - { offset: 0x9EB9, size: 0x8, addend: 0x0, symName: __RINvNtNtCsdGrGZaRBwMb_3syn3gen9visit_mut18visit_pat_type_mutNtNtCscj7Jssje0XT_11async_trait8receiver7HasSelfEB10_, symObjAddr: 0xE740, symBinAddr: 0xF310, symSize: 0xE0 }
  - { offset: 0x9EFB, size: 0x8, addend: 0x0, symName: __RINvNtNtCsdGrGZaRBwMb_3syn3gen9visit_mut18visit_pat_type_mutNtNtCscj7Jssje0XT_11async_trait8receiver9HasMutPatEB10_, symObjAddr: 0xE820, symBinAddr: 0xF3F0, symSize: 0xE0 }
  - { offset: 0x9F3D, size: 0x8, addend: 0x0, symName: __RINvNtNtCsdGrGZaRBwMb_3syn3gen9visit_mut18visit_pat_type_mutNtNvNtCscj7Jssje0XT_11async_trait6expand29replace_impl_trait_with_infer25ReplaceImplTraitWithInferEB12_, symObjAddr: 0xE900, symBinAddr: 0xF4D0, symSize: 0xE0 }
  - { offset: 0x9F7F, size: 0x8, addend: 0x0, symName: __RINvNtNtCsdGrGZaRBwMb_3syn3gen9visit_mut18visit_pat_type_mutNtNvNtCscj7Jssje0XT_11async_trait6expand35contains_associated_type_impl_trait24AssociatedTypeImplTraitsEB12_, symObjAddr: 0xE9E0, symBinAddr: 0xF5B0, symSize: 0xE0 }
  - { offset: 0x9FC1, size: 0x8, addend: 0x0, symName: __RINvNtNtCsdGrGZaRBwMb_3syn3gen9visit_mut18visit_pat_wild_mutNtNtCscj7Jssje0XT_11async_trait8lifetime16CollectLifetimesEB10_, symObjAddr: 0xEAC0, symBinAddr: 0xF690, symSize: 0x30 }
  - { offset: 0xA003, size: 0x8, addend: 0x0, symName: __RINvNtNtCsdGrGZaRBwMb_3syn3gen9visit_mut18visit_pat_wild_mutNtNtCscj7Jssje0XT_11async_trait8receiver11ReplaceSelfEB10_, symObjAddr: 0xEAF0, symBinAddr: 0xF6C0, symSize: 0x30 }
  - { offset: 0xA045, size: 0x8, addend: 0x0, symName: __RINvNtNtCsdGrGZaRBwMb_3syn3gen9visit_mut18visit_pat_wild_mutNtNtCscj7Jssje0XT_11async_trait8receiver7HasSelfEB10_, symObjAddr: 0xEB20, symBinAddr: 0xF6F0, symSize: 0x30 }
  - { offset: 0xA087, size: 0x8, addend: 0x0, symName: __RINvNtNtCsdGrGZaRBwMb_3syn3gen9visit_mut18visit_pat_wild_mutNtNtCscj7Jssje0XT_11async_trait8receiver9HasMutPatEB10_, symObjAddr: 0xEB50, symBinAddr: 0xF720, symSize: 0x30 }
  - { offset: 0xA0C9, size: 0x8, addend: 0x0, symName: __RINvNtNtCsdGrGZaRBwMb_3syn3gen9visit_mut18visit_pat_wild_mutNtNvNtCscj7Jssje0XT_11async_trait6expand29replace_impl_trait_with_infer25ReplaceImplTraitWithInferEB12_, symObjAddr: 0xEB80, symBinAddr: 0xF750, symSize: 0x30 }
  - { offset: 0xA10B, size: 0x8, addend: 0x0, symName: __RINvNtNtCsdGrGZaRBwMb_3syn3gen9visit_mut18visit_pat_wild_mutNtNvNtCscj7Jssje0XT_11async_trait6expand35contains_associated_type_impl_trait24AssociatedTypeImplTraitsEB12_, symObjAddr: 0xEBB0, symBinAddr: 0xF780, symSize: 0x30 }
  - { offset: 0xA14D, size: 0x8, addend: 0x0, symName: __RINvNtNtCsdGrGZaRBwMb_3syn3gen9visit_mut18visit_receiver_mutNtNtCscj7Jssje0XT_11async_trait8receiver9HasMutPatEB10_, symObjAddr: 0xEBE0, symBinAddr: 0xF7B0, symSize: 0x100 }
  - { offset: 0xA1BB, size: 0x8, addend: 0x0, symName: __RINvNtNtCsdGrGZaRBwMb_3syn3gen9visit_mut18visit_receiver_mutNtNvNtCscj7Jssje0XT_11async_trait6expand29replace_impl_trait_with_infer25ReplaceImplTraitWithInferEB12_, symObjAddr: 0xECE0, symBinAddr: 0xF8B0, symSize: 0x100 }
  - { offset: 0xA229, size: 0x8, addend: 0x0, symName: __RINvNtNtCsdGrGZaRBwMb_3syn3gen9visit_mut18visit_receiver_mutNtNvNtCscj7Jssje0XT_11async_trait6expand35contains_associated_type_impl_trait24AssociatedTypeImplTraitsEB12_, symObjAddr: 0xEDE0, symBinAddr: 0xF9B0, symSize: 0x100 }
  - { offset: 0xA297, size: 0x8, addend: 0x0, symName: __RINvNtNtCsdGrGZaRBwMb_3syn3gen9visit_mut18visit_type_ptr_mutNtNtCscj7Jssje0XT_11async_trait8lifetime16CollectLifetimesEB10_, symObjAddr: 0xEEE0, symBinAddr: 0xFAB0, symSize: 0x80 }
  - { offset: 0xA2D9, size: 0x8, addend: 0x0, symName: __RINvNtNtCsdGrGZaRBwMb_3syn3gen9visit_mut18visit_type_ptr_mutNtNtCscj7Jssje0XT_11async_trait8lifetime22AddLifetimeToImplTraitEB10_, symObjAddr: 0xEF60, symBinAddr: 0xFB30, symSize: 0x80 }
  - { offset: 0xA31B, size: 0x8, addend: 0x0, symName: __RINvNtNtCsdGrGZaRBwMb_3syn3gen9visit_mut18visit_type_ptr_mutNtNtCscj7Jssje0XT_11async_trait8receiver11ReplaceSelfEB10_, symObjAddr: 0xEFE0, symBinAddr: 0xFBB0, symSize: 0x80 }
  - { offset: 0xA35D, size: 0x8, addend: 0x0, symName: __RINvNtNtCsdGrGZaRBwMb_3syn3gen9visit_mut18visit_type_ptr_mutNtNtCscj7Jssje0XT_11async_trait8receiver7HasSelfEB10_, symObjAddr: 0xF060, symBinAddr: 0xFC30, symSize: 0x80 }
  - { offset: 0xA39F, size: 0x8, addend: 0x0, symName: __RINvNtNtCsdGrGZaRBwMb_3syn3gen9visit_mut18visit_type_ptr_mutNtNtCscj7Jssje0XT_11async_trait8receiver9HasMutPatEB10_, symObjAddr: 0xF0E0, symBinAddr: 0xFCB0, symSize: 0x80 }
  - { offset: 0xA3E1, size: 0x8, addend: 0x0, symName: __RINvNtNtCsdGrGZaRBwMb_3syn3gen9visit_mut18visit_type_ptr_mutNtNvNtCscj7Jssje0XT_11async_trait6expand29replace_impl_trait_with_infer25ReplaceImplTraitWithInferEB12_, symObjAddr: 0xF160, symBinAddr: 0xFD30, symSize: 0x80 }
  - { offset: 0xA423, size: 0x8, addend: 0x0, symName: __RINvNtNtCsdGrGZaRBwMb_3syn3gen9visit_mut18visit_type_ptr_mutNtNvNtCscj7Jssje0XT_11async_trait6expand35contains_associated_type_impl_trait24AssociatedTypeImplTraitsEB12_, symObjAddr: 0xF1E0, symBinAddr: 0xFDB0, symSize: 0x80 }
  - { offset: 0xA465, size: 0x8, addend: 0x0, symName: __RINvNtNtCsdGrGZaRBwMb_3syn3gen9visit_mut18visit_use_glob_mutNtNtCscj7Jssje0XT_11async_trait8lifetime16CollectLifetimesEB10_, symObjAddr: 0xF260, symBinAddr: 0xFE30, symSize: 0x20 }
  - { offset: 0xA4A7, size: 0x8, addend: 0x0, symName: __RINvNtNtCsdGrGZaRBwMb_3syn3gen9visit_mut18visit_use_glob_mutNtNtCscj7Jssje0XT_11async_trait8receiver9HasMutPatEB10_, symObjAddr: 0xF280, symBinAddr: 0xFE50, symSize: 0x20 }
  - { offset: 0xA4E9, size: 0x8, addend: 0x0, symName: __RINvNtNtCsdGrGZaRBwMb_3syn3gen9visit_mut18visit_use_glob_mutNtNvNtCscj7Jssje0XT_11async_trait6expand29replace_impl_trait_with_infer25ReplaceImplTraitWithInferEB12_, symObjAddr: 0xF2A0, symBinAddr: 0xFE70, symSize: 0x20 }
  - { offset: 0xA52B, size: 0x8, addend: 0x0, symName: __RINvNtNtCsdGrGZaRBwMb_3syn3gen9visit_mut18visit_use_glob_mutNtNvNtCscj7Jssje0XT_11async_trait6expand35contains_associated_type_impl_trait24AssociatedTypeImplTraitsEB12_, symObjAddr: 0xF2C0, symBinAddr: 0xFE90, symSize: 0x20 }
  - { offset: 0xA56D, size: 0x8, addend: 0x0, symName: __RINvNtNtCsdGrGZaRBwMb_3syn3gen9visit_mut18visit_use_name_mutNtNtCscj7Jssje0XT_11async_trait8lifetime16CollectLifetimesEB10_, symObjAddr: 0xF2E0, symBinAddr: 0xFEB0, symSize: 0x30 }
  - { offset: 0xA5AF, size: 0x8, addend: 0x0, symName: __RINvNtNtCsdGrGZaRBwMb_3syn3gen9visit_mut18visit_use_name_mutNtNtCscj7Jssje0XT_11async_trait8receiver9HasMutPatEB10_, symObjAddr: 0xF310, symBinAddr: 0xFEE0, symSize: 0x30 }
  - { offset: 0xA5F1, size: 0x8, addend: 0x0, symName: __RINvNtNtCsdGrGZaRBwMb_3syn3gen9visit_mut18visit_use_name_mutNtNvNtCscj7Jssje0XT_11async_trait6expand29replace_impl_trait_with_infer25ReplaceImplTraitWithInferEB12_, symObjAddr: 0xF340, symBinAddr: 0xFF10, symSize: 0x30 }
  - { offset: 0xA633, size: 0x8, addend: 0x0, symName: __RINvNtNtCsdGrGZaRBwMb_3syn3gen9visit_mut18visit_use_name_mutNtNvNtCscj7Jssje0XT_11async_trait6expand35contains_associated_type_impl_trait24AssociatedTypeImplTraitsEB12_, symObjAddr: 0xF370, symBinAddr: 0xFF40, symSize: 0x30 }
  - { offset: 0xA675, size: 0x8, addend: 0x0, symName: __RINvNtNtCsdGrGZaRBwMb_3syn3gen9visit_mut18visit_use_path_mutNtNtCscj7Jssje0XT_11async_trait8lifetime16CollectLifetimesEB10_, symObjAddr: 0xF3A0, symBinAddr: 0xFF70, symSize: 0x90 }
  - { offset: 0xA6B7, size: 0x8, addend: 0x0, symName: __RINvNtNtCsdGrGZaRBwMb_3syn3gen9visit_mut18visit_use_path_mutNtNtCscj7Jssje0XT_11async_trait8receiver9HasMutPatEB10_, symObjAddr: 0xF430, symBinAddr: 0x10000, symSize: 0x90 }
  - { offset: 0xA6F9, size: 0x8, addend: 0x0, symName: __RINvNtNtCsdGrGZaRBwMb_3syn3gen9visit_mut18visit_use_path_mutNtNvNtCscj7Jssje0XT_11async_trait6expand29replace_impl_trait_with_infer25ReplaceImplTraitWithInferEB12_, symObjAddr: 0xF4C0, symBinAddr: 0x10090, symSize: 0x90 }
  - { offset: 0xA73B, size: 0x8, addend: 0x0, symName: __RINvNtNtCsdGrGZaRBwMb_3syn3gen9visit_mut18visit_use_path_mutNtNvNtCscj7Jssje0XT_11async_trait6expand35contains_associated_type_impl_trait24AssociatedTypeImplTraitsEB12_, symObjAddr: 0xF550, symBinAddr: 0x10120, symSize: 0x90 }
  - { offset: 0xA77D, size: 0x8, addend: 0x0, symName: __RINvNtNtCsdGrGZaRBwMb_3syn3gen9visit_mut18visit_use_tree_mutNtNtCscj7Jssje0XT_11async_trait8lifetime16CollectLifetimesEB10_, symObjAddr: 0xF5E0, symBinAddr: 0x101B0, symSize: 0xF0 }
  - { offset: 0xA84D, size: 0x8, addend: 0x0, symName: __RINvNtNtCsdGrGZaRBwMb_3syn3gen9visit_mut18visit_use_tree_mutNtNtCscj7Jssje0XT_11async_trait8receiver9HasMutPatEB10_, symObjAddr: 0xF6D0, symBinAddr: 0x102A0, symSize: 0xF0 }
  - { offset: 0xA91D, size: 0x8, addend: 0x0, symName: __RINvNtNtCsdGrGZaRBwMb_3syn3gen9visit_mut18visit_use_tree_mutNtNvNtCscj7Jssje0XT_11async_trait6expand29replace_impl_trait_with_infer25ReplaceImplTraitWithInferEB12_, symObjAddr: 0xF7C0, symBinAddr: 0x10390, symSize: 0xF0 }
  - { offset: 0xA9ED, size: 0x8, addend: 0x0, symName: __RINvNtNtCsdGrGZaRBwMb_3syn3gen9visit_mut18visit_use_tree_mutNtNvNtCscj7Jssje0XT_11async_trait6expand35contains_associated_type_impl_trait24AssociatedTypeImplTraitsEB12_, symObjAddr: 0xF8B0, symBinAddr: 0x10480, symSize: 0xF0 }
  - { offset: 0xAABD, size: 0x8, addend: 0x0, symName: __RINvNtNtCsdGrGZaRBwMb_3syn3gen9visit_mut18visit_variadic_mutNtNtCscj7Jssje0XT_11async_trait8lifetime16CollectLifetimesEB10_, symObjAddr: 0xF9A0, symBinAddr: 0x10570, symSize: 0xC0 }
  - { offset: 0xAB15, size: 0x8, addend: 0x0, symName: __RINvNtNtCsdGrGZaRBwMb_3syn3gen9visit_mut18visit_variadic_mutNtNtCscj7Jssje0XT_11async_trait8receiver7HasSelfEB10_, symObjAddr: 0xFA60, symBinAddr: 0x10630, symSize: 0xC0 }
  - { offset: 0xAB6D, size: 0x8, addend: 0x0, symName: __RINvNtNtCsdGrGZaRBwMb_3syn3gen9visit_mut18visit_variadic_mutNtNtCscj7Jssje0XT_11async_trait8receiver9HasMutPatEB10_, symObjAddr: 0xFB20, symBinAddr: 0x106F0, symSize: 0xC0 }
  - { offset: 0xABC5, size: 0x8, addend: 0x0, symName: __RINvNtNtCsdGrGZaRBwMb_3syn3gen9visit_mut18visit_variadic_mutNtNvNtCscj7Jssje0XT_11async_trait6expand29replace_impl_trait_with_infer25ReplaceImplTraitWithInferEB12_, symObjAddr: 0xFBE0, symBinAddr: 0x107B0, symSize: 0xC0 }
  - { offset: 0xAC1D, size: 0x8, addend: 0x0, symName: __RINvNtNtCsdGrGZaRBwMb_3syn3gen9visit_mut18visit_variadic_mutNtNvNtCscj7Jssje0XT_11async_trait6expand35contains_associated_type_impl_trait24AssociatedTypeImplTraitsEB12_, symObjAddr: 0xFCA0, symBinAddr: 0x10870, symSize: 0xC0 }
  - { offset: 0xAC75, size: 0x8, addend: 0x0, symName: __RINvNtNtCsdGrGZaRBwMb_3syn3gen9visit_mut19visit_attribute_mutNtNtCscj7Jssje0XT_11async_trait8lifetime16CollectLifetimesEB11_, symObjAddr: 0xFD60, symBinAddr: 0x10930, symSize: 0x40 }
  - { offset: 0xACB7, size: 0x8, addend: 0x0, symName: __RINvNtNtCsdGrGZaRBwMb_3syn3gen9visit_mut19visit_attribute_mutNtNtCscj7Jssje0XT_11async_trait8lifetime22AddLifetimeToImplTraitEB11_, symObjAddr: 0xFDA0, symBinAddr: 0x10970, symSize: 0x40 }
  - { offset: 0xACF9, size: 0x8, addend: 0x0, symName: __RINvNtNtCsdGrGZaRBwMb_3syn3gen9visit_mut19visit_attribute_mutNtNtCscj7Jssje0XT_11async_trait8receiver11ReplaceSelfEB11_, symObjAddr: 0xFDE0, symBinAddr: 0x109B0, symSize: 0x40 }
  - { offset: 0xAD3B, size: 0x8, addend: 0x0, symName: __RINvNtNtCsdGrGZaRBwMb_3syn3gen9visit_mut19visit_attribute_mutNtNtCscj7Jssje0XT_11async_trait8receiver7HasSelfEB11_, symObjAddr: 0xFE20, symBinAddr: 0x109F0, symSize: 0x40 }
  - { offset: 0xAD7D, size: 0x8, addend: 0x0, symName: __RINvNtNtCsdGrGZaRBwMb_3syn3gen9visit_mut19visit_attribute_mutNtNtCscj7Jssje0XT_11async_trait8receiver9HasMutPatEB11_, symObjAddr: 0xFE60, symBinAddr: 0x10A30, symSize: 0x40 }
  - { offset: 0xADBF, size: 0x8, addend: 0x0, symName: __RINvNtNtCsdGrGZaRBwMb_3syn3gen9visit_mut19visit_attribute_mutNtNvNtCscj7Jssje0XT_11async_trait6expand29replace_impl_trait_with_infer25ReplaceImplTraitWithInferEB13_, symObjAddr: 0xFEA0, symBinAddr: 0x10A70, symSize: 0x40 }
  - { offset: 0xAE01, size: 0x8, addend: 0x0, symName: __RINvNtNtCsdGrGZaRBwMb_3syn3gen9visit_mut19visit_attribute_mutNtNvNtCscj7Jssje0XT_11async_trait6expand35contains_associated_type_impl_trait24AssociatedTypeImplTraitsEB13_, symObjAddr: 0xFEE0, symBinAddr: 0x10AB0, symSize: 0x40 }
  - { offset: 0xAE43, size: 0x8, addend: 0x0, symName: __RINvNtNtCsdGrGZaRBwMb_3syn3gen9visit_mut19visit_expr_call_mutNtNtCscj7Jssje0XT_11async_trait8lifetime16CollectLifetimesEB11_, symObjAddr: 0xFF20, symBinAddr: 0x10AF0, symSize: 0x130 }
  - { offset: 0xAED8, size: 0x8, addend: 0x0, symName: __RINvNtNtCsdGrGZaRBwMb_3syn3gen9visit_mut19visit_expr_call_mutNtNtCscj7Jssje0XT_11async_trait8receiver11ReplaceSelfEB11_, symObjAddr: 0x10050, symBinAddr: 0x10C20, symSize: 0x130 }
  - { offset: 0xAF6D, size: 0x8, addend: 0x0, symName: __RINvNtNtCsdGrGZaRBwMb_3syn3gen9visit_mut19visit_expr_call_mutNtNtCscj7Jssje0XT_11async_trait8receiver7HasSelfEB11_, symObjAddr: 0x10180, symBinAddr: 0x10D50, symSize: 0x130 }
  - { offset: 0xB002, size: 0x8, addend: 0x0, symName: __RINvNtNtCsdGrGZaRBwMb_3syn3gen9visit_mut19visit_expr_call_mutNtNtCscj7Jssje0XT_11async_trait8receiver9HasMutPatEB11_, symObjAddr: 0x102B0, symBinAddr: 0x10E80, symSize: 0x130 }
  - { offset: 0xB097, size: 0x8, addend: 0x0, symName: __RINvNtNtCsdGrGZaRBwMb_3syn3gen9visit_mut19visit_expr_call_mutNtNvNtCscj7Jssje0XT_11async_trait6expand29replace_impl_trait_with_infer25ReplaceImplTraitWithInferEB13_, symObjAddr: 0x103E0, symBinAddr: 0x10FB0, symSize: 0x130 }
  - { offset: 0xB12C, size: 0x8, addend: 0x0, symName: __RINvNtNtCsdGrGZaRBwMb_3syn3gen9visit_mut19visit_expr_call_mutNtNvNtCscj7Jssje0XT_11async_trait6expand35contains_associated_type_impl_trait24AssociatedTypeImplTraitsEB13_, symObjAddr: 0x10510, symBinAddr: 0x110E0, symSize: 0x130 }
  - { offset: 0xB1C1, size: 0x8, addend: 0x0, symName: __RINvNtNtCsdGrGZaRBwMb_3syn3gen9visit_mut19visit_expr_cast_mutNtNtCscj7Jssje0XT_11async_trait8lifetime16CollectLifetimesEB11_, symObjAddr: 0x10640, symBinAddr: 0x11210, symSize: 0xE0 }
  - { offset: 0xB203, size: 0x8, addend: 0x0, symName: __RINvNtNtCsdGrGZaRBwMb_3syn3gen9visit_mut19visit_expr_cast_mutNtNtCscj7Jssje0XT_11async_trait8receiver11ReplaceSelfEB11_, symObjAddr: 0x10720, symBinAddr: 0x112F0, symSize: 0xE0 }
  - { offset: 0xB245, size: 0x8, addend: 0x0, symName: __RINvNtNtCsdGrGZaRBwMb_3syn3gen9visit_mut19visit_expr_cast_mutNtNtCscj7Jssje0XT_11async_trait8receiver7HasSelfEB11_, symObjAddr: 0x10800, symBinAddr: 0x113D0, symSize: 0xE0 }
  - { offset: 0xB287, size: 0x8, addend: 0x0, symName: __RINvNtNtCsdGrGZaRBwMb_3syn3gen9visit_mut19visit_expr_cast_mutNtNtCscj7Jssje0XT_11async_trait8receiver9HasMutPatEB11_, symObjAddr: 0x108E0, symBinAddr: 0x114B0, symSize: 0xE0 }
  - { offset: 0xB2C9, size: 0x8, addend: 0x0, symName: __RINvNtNtCsdGrGZaRBwMb_3syn3gen9visit_mut19visit_expr_cast_mutNtNvNtCscj7Jssje0XT_11async_trait6expand29replace_impl_trait_with_infer25ReplaceImplTraitWithInferEB13_, symObjAddr: 0x109C0, symBinAddr: 0x11590, symSize: 0xE0 }
  - { offset: 0xB30B, size: 0x8, addend: 0x0, symName: __RINvNtNtCsdGrGZaRBwMb_3syn3gen9visit_mut19visit_expr_cast_mutNtNvNtCscj7Jssje0XT_11async_trait6expand35contains_associated_type_impl_trait24AssociatedTypeImplTraitsEB13_, symObjAddr: 0x10AA0, symBinAddr: 0x11670, symSize: 0xE0 }
  - { offset: 0xB34D, size: 0x8, addend: 0x0, symName: __RINvNtNtCsdGrGZaRBwMb_3syn3gen9visit_mut19visit_expr_loop_mutNtNtCscj7Jssje0XT_11async_trait8lifetime16CollectLifetimesEB11_, symObjAddr: 0x10B80, symBinAddr: 0x11750, symSize: 0x80 }
  - { offset: 0xB3AD, size: 0x8, addend: 0x0, symName: __RINvNtNtCsdGrGZaRBwMb_3syn3gen9visit_mut19visit_expr_loop_mutNtNtCscj7Jssje0XT_11async_trait8receiver11ReplaceSelfEB11_, symObjAddr: 0x10C00, symBinAddr: 0x117D0, symSize: 0x80 }
  - { offset: 0xB40D, size: 0x8, addend: 0x0, symName: __RINvNtNtCsdGrGZaRBwMb_3syn3gen9visit_mut19visit_expr_loop_mutNtNtCscj7Jssje0XT_11async_trait8receiver7HasSelfEB11_, symObjAddr: 0x10C80, symBinAddr: 0x11850, symSize: 0x80 }
  - { offset: 0xB46D, size: 0x8, addend: 0x0, symName: __RINvNtNtCsdGrGZaRBwMb_3syn3gen9visit_mut19visit_expr_loop_mutNtNtCscj7Jssje0XT_11async_trait8receiver9HasMutPatEB11_, symObjAddr: 0x10D00, symBinAddr: 0x118D0, symSize: 0x80 }
  - { offset: 0xB4CD, size: 0x8, addend: 0x0, symName: __RINvNtNtCsdGrGZaRBwMb_3syn3gen9visit_mut19visit_expr_loop_mutNtNvNtCscj7Jssje0XT_11async_trait6expand29replace_impl_trait_with_infer25ReplaceImplTraitWithInferEB13_, symObjAddr: 0x10D80, symBinAddr: 0x11950, symSize: 0x80 }
  - { offset: 0xB52D, size: 0x8, addend: 0x0, symName: __RINvNtNtCsdGrGZaRBwMb_3syn3gen9visit_mut19visit_expr_loop_mutNtNvNtCscj7Jssje0XT_11async_trait6expand35contains_associated_type_impl_trait24AssociatedTypeImplTraitsEB13_, symObjAddr: 0x10E00, symBinAddr: 0x119D0, symSize: 0x80 }
  - { offset: 0xB58D, size: 0x8, addend: 0x0, symName: __RINvNtNtCsdGrGZaRBwMb_3syn3gen9visit_mut19visit_expr_path_mutNtNtCscj7Jssje0XT_11async_trait8lifetime16CollectLifetimesEB11_, symObjAddr: 0x10E80, symBinAddr: 0x11A50, symSize: 0x80 }
  - { offset: 0xB5ED, size: 0x8, addend: 0x0, symName: __RINvNtNtCsdGrGZaRBwMb_3syn3gen9visit_mut19visit_expr_path_mutNtNtCscj7Jssje0XT_11async_trait8receiver11ReplaceSelfEB11_, symObjAddr: 0x10F00, symBinAddr: 0x11AD0, symSize: 0x80 }
  - { offset: 0xB64D, size: 0x8, addend: 0x0, symName: __RINvNtNtCsdGrGZaRBwMb_3syn3gen9visit_mut19visit_expr_path_mutNtNtCscj7Jssje0XT_11async_trait8receiver7HasSelfEB11_, symObjAddr: 0x10F80, symBinAddr: 0x11B50, symSize: 0x80 }
  - { offset: 0xB6AD, size: 0x8, addend: 0x0, symName: __RINvNtNtCsdGrGZaRBwMb_3syn3gen9visit_mut19visit_expr_path_mutNtNtCscj7Jssje0XT_11async_trait8receiver9HasMutPatEB11_, symObjAddr: 0x11000, symBinAddr: 0x11BD0, symSize: 0x80 }
  - { offset: 0xB70D, size: 0x8, addend: 0x0, symName: __RINvNtNtCsdGrGZaRBwMb_3syn3gen9visit_mut19visit_expr_path_mutNtNvNtCscj7Jssje0XT_11async_trait6expand29replace_impl_trait_with_infer25ReplaceImplTraitWithInferEB13_, symObjAddr: 0x11080, symBinAddr: 0x11C50, symSize: 0x80 }
  - { offset: 0xB76D, size: 0x8, addend: 0x0, symName: __RINvNtNtCsdGrGZaRBwMb_3syn3gen9visit_mut19visit_expr_path_mutNtNvNtCscj7Jssje0XT_11async_trait6expand35contains_associated_type_impl_trait24AssociatedTypeImplTraitsEB13_, symObjAddr: 0x11100, symBinAddr: 0x11CD0, symSize: 0x80 }
  - { offset: 0xB7CD, size: 0x8, addend: 0x0, symName: __RINvNtNtCsdGrGZaRBwMb_3syn3gen9visit_mut19visit_field_pat_mutNtNtCscj7Jssje0XT_11async_trait8lifetime16CollectLifetimesEB11_, symObjAddr: 0x11180, symBinAddr: 0x11D50, symSize: 0xA0 }
  - { offset: 0xB80F, size: 0x8, addend: 0x0, symName: __RINvNtNtCsdGrGZaRBwMb_3syn3gen9visit_mut19visit_field_pat_mutNtNtCscj7Jssje0XT_11async_trait8receiver11ReplaceSelfEB11_, symObjAddr: 0x11220, symBinAddr: 0x11DF0, symSize: 0xA0 }
  - { offset: 0xB851, size: 0x8, addend: 0x0, symName: __RINvNtNtCsdGrGZaRBwMb_3syn3gen9visit_mut19visit_field_pat_mutNtNtCscj7Jssje0XT_11async_trait8receiver7HasSelfEB11_, symObjAddr: 0x112C0, symBinAddr: 0x11E90, symSize: 0xA0 }
  - { offset: 0xB893, size: 0x8, addend: 0x0, symName: __RINvNtNtCsdGrGZaRBwMb_3syn3gen9visit_mut19visit_field_pat_mutNtNtCscj7Jssje0XT_11async_trait8receiver9HasMutPatEB11_, symObjAddr: 0x11360, symBinAddr: 0x11F30, symSize: 0xA0 }
  - { offset: 0xB8D5, size: 0x8, addend: 0x0, symName: __RINvNtNtCsdGrGZaRBwMb_3syn3gen9visit_mut19visit_field_pat_mutNtNvNtCscj7Jssje0XT_11async_trait6expand29replace_impl_trait_with_infer25ReplaceImplTraitWithInferEB13_, symObjAddr: 0x11400, symBinAddr: 0x11FD0, symSize: 0xA0 }
  - { offset: 0xB917, size: 0x8, addend: 0x0, symName: __RINvNtNtCsdGrGZaRBwMb_3syn3gen9visit_mut19visit_field_pat_mutNtNvNtCscj7Jssje0XT_11async_trait6expand35contains_associated_type_impl_trait24AssociatedTypeImplTraitsEB13_, symObjAddr: 0x114A0, symBinAddr: 0x12070, symSize: 0xA0 }
  - { offset: 0xB959, size: 0x8, addend: 0x0, symName: __RINvNtNtCsdGrGZaRBwMb_3syn3gen9visit_mut19visit_impl_item_mutNtNtCscj7Jssje0XT_11async_trait8lifetime16CollectLifetimesEB11_, symObjAddr: 0x11540, symBinAddr: 0x12110, symSize: 0x100 }
  - { offset: 0xBA29, size: 0x8, addend: 0x0, symName: __RINvNtNtCsdGrGZaRBwMb_3syn3gen9visit_mut19visit_impl_item_mutNtNtCscj7Jssje0XT_11async_trait8receiver9HasMutPatEB11_, symObjAddr: 0x11640, symBinAddr: 0x12210, symSize: 0x100 }
  - { offset: 0xBAF9, size: 0x8, addend: 0x0, symName: __RINvNtNtCsdGrGZaRBwMb_3syn3gen9visit_mut19visit_impl_item_mutNtNvNtCscj7Jssje0XT_11async_trait6expand29replace_impl_trait_with_infer25ReplaceImplTraitWithInferEB13_, symObjAddr: 0x11740, symBinAddr: 0x12310, symSize: 0x100 }
  - { offset: 0xBBC9, size: 0x8, addend: 0x0, symName: __RINvNtNtCsdGrGZaRBwMb_3syn3gen9visit_mut19visit_impl_item_mutNtNvNtCscj7Jssje0XT_11async_trait6expand35contains_associated_type_impl_trait24AssociatedTypeImplTraitsEB13_, symObjAddr: 0x11840, symBinAddr: 0x12410, symSize: 0x100 }
  - { offset: 0xBC99, size: 0x8, addend: 0x0, symName: __RINvNtNtCsdGrGZaRBwMb_3syn3gen9visit_mut19visit_item_enum_mutNtNtCscj7Jssje0XT_11async_trait8lifetime16CollectLifetimesEB11_, symObjAddr: 0x11940, symBinAddr: 0x12510, symSize: 0x110 }
  - { offset: 0xBD36, size: 0x8, addend: 0x0, symName: __RINvNtNtCsdGrGZaRBwMb_3syn3gen9visit_mut19visit_item_enum_mutNtNtCscj7Jssje0XT_11async_trait8receiver9HasMutPatEB11_, symObjAddr: 0x11A50, symBinAddr: 0x12620, symSize: 0x110 }
  - { offset: 0xBDD3, size: 0x8, addend: 0x0, symName: __RINvNtNtCsdGrGZaRBwMb_3syn3gen9visit_mut19visit_item_enum_mutNtNvNtCscj7Jssje0XT_11async_trait6expand29replace_impl_trait_with_infer25ReplaceImplTraitWithInferEB13_, symObjAddr: 0x11B60, symBinAddr: 0x12730, symSize: 0x110 }
  - { offset: 0xBE70, size: 0x8, addend: 0x0, symName: __RINvNtNtCsdGrGZaRBwMb_3syn3gen9visit_mut19visit_item_enum_mutNtNvNtCscj7Jssje0XT_11async_trait6expand35contains_associated_type_impl_trait24AssociatedTypeImplTraitsEB13_, symObjAddr: 0x11C70, symBinAddr: 0x12840, symSize: 0x110 }
  - { offset: 0xBF0D, size: 0x8, addend: 0x0, symName: __RINvNtNtCsdGrGZaRBwMb_3syn3gen9visit_mut19visit_item_impl_mutNtNtCscj7Jssje0XT_11async_trait8lifetime16CollectLifetimesEB11_, symObjAddr: 0x11D80, symBinAddr: 0x12950, symSize: 0x150 }
  - { offset: 0xBFA1, size: 0x8, addend: 0x0, symName: __RINvNtNtCsdGrGZaRBwMb_3syn3gen9visit_mut19visit_item_impl_mutNtNtCscj7Jssje0XT_11async_trait8receiver9HasMutPatEB11_, symObjAddr: 0x11ED0, symBinAddr: 0x12AA0, symSize: 0x150 }
  - { offset: 0xC035, size: 0x8, addend: 0x0, symName: __RINvNtNtCsdGrGZaRBwMb_3syn3gen9visit_mut19visit_item_impl_mutNtNvNtCscj7Jssje0XT_11async_trait6expand29replace_impl_trait_with_infer25ReplaceImplTraitWithInferEB13_, symObjAddr: 0x12020, symBinAddr: 0x12BF0, symSize: 0x150 }
  - { offset: 0xC0C9, size: 0x8, addend: 0x0, symName: __RINvNtNtCsdGrGZaRBwMb_3syn3gen9visit_mut19visit_item_impl_mutNtNvNtCscj7Jssje0XT_11async_trait6expand35contains_associated_type_impl_trait24AssociatedTypeImplTraitsEB13_, symObjAddr: 0x12170, symBinAddr: 0x12D40, symSize: 0x150 }
  - { offset: 0xC15D, size: 0x8, addend: 0x0, symName: __RINvNtNtCsdGrGZaRBwMb_3syn3gen9visit_mut19visit_item_type_mutNtNtCscj7Jssje0XT_11async_trait8lifetime16CollectLifetimesEB11_, symObjAddr: 0x122C0, symBinAddr: 0x12E90, symSize: 0xC0 }
  - { offset: 0xC19F, size: 0x8, addend: 0x0, symName: __RINvNtNtCsdGrGZaRBwMb_3syn3gen9visit_mut19visit_item_type_mutNtNtCscj7Jssje0XT_11async_trait8receiver9HasMutPatEB11_, symObjAddr: 0x12380, symBinAddr: 0x12F50, symSize: 0xC0 }
  - { offset: 0xC1E1, size: 0x8, addend: 0x0, symName: __RINvNtNtCsdGrGZaRBwMb_3syn3gen9visit_mut19visit_item_type_mutNtNvNtCscj7Jssje0XT_11async_trait6expand29replace_impl_trait_with_infer25ReplaceImplTraitWithInferEB13_, symObjAddr: 0x12440, symBinAddr: 0x13010, symSize: 0xC0 }
  - { offset: 0xC223, size: 0x8, addend: 0x0, symName: __RINvNtNtCsdGrGZaRBwMb_3syn3gen9visit_mut19visit_item_type_mutNtNvNtCscj7Jssje0XT_11async_trait6expand35contains_associated_type_impl_trait24AssociatedTypeImplTraitsEB13_, symObjAddr: 0x12500, symBinAddr: 0x130D0, symSize: 0xC0 }
  - { offset: 0xC265, size: 0x8, addend: 0x0, symName: __RINvNtNtCsdGrGZaRBwMb_3syn3gen9visit_mut19visit_lit_float_mutNtNtCscj7Jssje0XT_11async_trait8lifetime16CollectLifetimesEB11_, symObjAddr: 0x125C0, symBinAddr: 0x13190, symSize: 0x20 }
  - { offset: 0xC2A7, size: 0x8, addend: 0x0, symName: __RINvNtNtCsdGrGZaRBwMb_3syn3gen9visit_mut19visit_lit_float_mutNtNtCscj7Jssje0XT_11async_trait8receiver11ReplaceSelfEB11_, symObjAddr: 0x125E0, symBinAddr: 0x131B0, symSize: 0x20 }
  - { offset: 0xC2E9, size: 0x8, addend: 0x0, symName: __RINvNtNtCsdGrGZaRBwMb_3syn3gen9visit_mut19visit_lit_float_mutNtNtCscj7Jssje0XT_11async_trait8receiver7HasSelfEB11_, symObjAddr: 0x12600, symBinAddr: 0x131D0, symSize: 0x20 }
  - { offset: 0xC32B, size: 0x8, addend: 0x0, symName: __RINvNtNtCsdGrGZaRBwMb_3syn3gen9visit_mut19visit_lit_float_mutNtNtCscj7Jssje0XT_11async_trait8receiver9HasMutPatEB11_, symObjAddr: 0x12620, symBinAddr: 0x131F0, symSize: 0x20 }
  - { offset: 0xC36D, size: 0x8, addend: 0x0, symName: __RINvNtNtCsdGrGZaRBwMb_3syn3gen9visit_mut19visit_lit_float_mutNtNvNtCscj7Jssje0XT_11async_trait6expand29replace_impl_trait_with_infer25ReplaceImplTraitWithInferEB13_, symObjAddr: 0x12640, symBinAddr: 0x13210, symSize: 0x20 }
  - { offset: 0xC3AF, size: 0x8, addend: 0x0, symName: __RINvNtNtCsdGrGZaRBwMb_3syn3gen9visit_mut19visit_lit_float_mutNtNvNtCscj7Jssje0XT_11async_trait6expand35contains_associated_type_impl_trait24AssociatedTypeImplTraitsEB13_, symObjAddr: 0x12660, symBinAddr: 0x13230, symSize: 0x20 }
  - { offset: 0xC3F1, size: 0x8, addend: 0x0, symName: __RINvNtNtCsdGrGZaRBwMb_3syn3gen9visit_mut19visit_meta_list_mutNtNtCscj7Jssje0XT_11async_trait8lifetime16CollectLifetimesEB11_, symObjAddr: 0x12680, symBinAddr: 0x13250, symSize: 0x50 }
  - { offset: 0xC433, size: 0x8, addend: 0x0, symName: __RINvNtNtCsdGrGZaRBwMb_3syn3gen9visit_mut19visit_meta_list_mutNtNtCscj7Jssje0XT_11async_trait8lifetime22AddLifetimeToImplTraitEB11_, symObjAddr: 0x126D0, symBinAddr: 0x132A0, symSize: 0x50 }
  - { offset: 0xC475, size: 0x8, addend: 0x0, symName: __RINvNtNtCsdGrGZaRBwMb_3syn3gen9visit_mut19visit_meta_list_mutNtNtCscj7Jssje0XT_11async_trait8receiver11ReplaceSelfEB11_, symObjAddr: 0x12720, symBinAddr: 0x132F0, symSize: 0x50 }
  - { offset: 0xC4B7, size: 0x8, addend: 0x0, symName: __RINvNtNtCsdGrGZaRBwMb_3syn3gen9visit_mut19visit_meta_list_mutNtNtCscj7Jssje0XT_11async_trait8receiver7HasSelfEB11_, symObjAddr: 0x12770, symBinAddr: 0x13340, symSize: 0x50 }
  - { offset: 0xC4F9, size: 0x8, addend: 0x0, symName: __RINvNtNtCsdGrGZaRBwMb_3syn3gen9visit_mut19visit_meta_list_mutNtNtCscj7Jssje0XT_11async_trait8receiver9HasMutPatEB11_, symObjAddr: 0x127C0, symBinAddr: 0x13390, symSize: 0x50 }
  - { offset: 0xC53B, size: 0x8, addend: 0x0, symName: __RINvNtNtCsdGrGZaRBwMb_3syn3gen9visit_mut19visit_meta_list_mutNtNvNtCscj7Jssje0XT_11async_trait6expand29replace_impl_trait_with_infer25ReplaceImplTraitWithInferEB13_, symObjAddr: 0x12810, symBinAddr: 0x133E0, symSize: 0x50 }
  - { offset: 0xC57D, size: 0x8, addend: 0x0, symName: __RINvNtNtCsdGrGZaRBwMb_3syn3gen9visit_mut19visit_meta_list_mutNtNvNtCscj7Jssje0XT_11async_trait6expand35contains_associated_type_impl_trait24AssociatedTypeImplTraitsEB13_, symObjAddr: 0x12860, symBinAddr: 0x13430, symSize: 0x50 }
  - { offset: 0xC5BF, size: 0x8, addend: 0x0, symName: __RINvNtNtCsdGrGZaRBwMb_3syn3gen9visit_mut19visit_pat_ident_mutNtNtCscj7Jssje0XT_11async_trait8lifetime16CollectLifetimesEB11_, symObjAddr: 0x128B0, symBinAddr: 0x13480, symSize: 0xE0 }
  - { offset: 0xC617, size: 0x8, addend: 0x0, symName: __RINvNtNtCsdGrGZaRBwMb_3syn3gen9visit_mut19visit_pat_ident_mutNtNtCscj7Jssje0XT_11async_trait8receiver11ReplaceSelfEB11_, symObjAddr: 0x12990, symBinAddr: 0x13560, symSize: 0xE0 }
  - { offset: 0xC66F, size: 0x8, addend: 0x0, symName: __RINvNtNtCsdGrGZaRBwMb_3syn3gen9visit_mut19visit_pat_ident_mutNtNtCscj7Jssje0XT_11async_trait8receiver7HasSelfEB11_, symObjAddr: 0x12A70, symBinAddr: 0x13640, symSize: 0xE0 }
  - { offset: 0xC6C7, size: 0x8, addend: 0x0, symName: __RINvNtNtCsdGrGZaRBwMb_3syn3gen9visit_mut19visit_pat_ident_mutNtNtCscj7Jssje0XT_11async_trait8receiver9HasMutPatEB11_, symObjAddr: 0x12B50, symBinAddr: 0x13720, symSize: 0xE0 }
  - { offset: 0xC71F, size: 0x8, addend: 0x0, symName: __RINvNtNtCsdGrGZaRBwMb_3syn3gen9visit_mut19visit_pat_ident_mutNtNvNtCscj7Jssje0XT_11async_trait6expand29replace_impl_trait_with_infer25ReplaceImplTraitWithInferEB13_, symObjAddr: 0x12C30, symBinAddr: 0x13800, symSize: 0xE0 }
  - { offset: 0xC777, size: 0x8, addend: 0x0, symName: __RINvNtNtCsdGrGZaRBwMb_3syn3gen9visit_mut19visit_pat_ident_mutNtNvNtCscj7Jssje0XT_11async_trait6expand35contains_associated_type_impl_trait24AssociatedTypeImplTraitsEB13_, symObjAddr: 0x12D10, symBinAddr: 0x138E0, symSize: 0xE0 }
  - { offset: 0xC7CF, size: 0x8, addend: 0x0, symName: __RINvNtNtCsdGrGZaRBwMb_3syn3gen9visit_mut19visit_pat_paren_mutNtNtCscj7Jssje0XT_11async_trait8lifetime16CollectLifetimesEB11_, symObjAddr: 0x12DF0, symBinAddr: 0x139C0, symSize: 0x90 }
  - { offset: 0xC811, size: 0x8, addend: 0x0, symName: __RINvNtNtCsdGrGZaRBwMb_3syn3gen9visit_mut19visit_pat_paren_mutNtNtCscj7Jssje0XT_11async_trait8receiver11ReplaceSelfEB11_, symObjAddr: 0x12E80, symBinAddr: 0x13A50, symSize: 0x90 }
  - { offset: 0xC853, size: 0x8, addend: 0x0, symName: __RINvNtNtCsdGrGZaRBwMb_3syn3gen9visit_mut19visit_pat_paren_mutNtNtCscj7Jssje0XT_11async_trait8receiver7HasSelfEB11_, symObjAddr: 0x12F10, symBinAddr: 0x13AE0, symSize: 0x90 }
  - { offset: 0xC895, size: 0x8, addend: 0x0, symName: __RINvNtNtCsdGrGZaRBwMb_3syn3gen9visit_mut19visit_pat_paren_mutNtNtCscj7Jssje0XT_11async_trait8receiver9HasMutPatEB11_, symObjAddr: 0x12FA0, symBinAddr: 0x13B70, symSize: 0x90 }
  - { offset: 0xC8D7, size: 0x8, addend: 0x0, symName: __RINvNtNtCsdGrGZaRBwMb_3syn3gen9visit_mut19visit_pat_paren_mutNtNvNtCscj7Jssje0XT_11async_trait6expand29replace_impl_trait_with_infer25ReplaceImplTraitWithInferEB13_, symObjAddr: 0x13030, symBinAddr: 0x13C00, symSize: 0x90 }
  - { offset: 0xC919, size: 0x8, addend: 0x0, symName: __RINvNtNtCsdGrGZaRBwMb_3syn3gen9visit_mut19visit_pat_paren_mutNtNvNtCscj7Jssje0XT_11async_trait6expand35contains_associated_type_impl_trait24AssociatedTypeImplTraitsEB13_, symObjAddr: 0x130C0, symBinAddr: 0x13C90, symSize: 0x90 }
  - { offset: 0xC95B, size: 0x8, addend: 0x0, symName: __RINvNtNtCsdGrGZaRBwMb_3syn3gen9visit_mut19visit_pat_slice_mutNtNtCscj7Jssje0XT_11async_trait8lifetime16CollectLifetimesEB11_, symObjAddr: 0x13150, symBinAddr: 0x13D20, symSize: 0xD0 }
  - { offset: 0xC9F8, size: 0x8, addend: 0x0, symName: __RINvNtNtCsdGrGZaRBwMb_3syn3gen9visit_mut19visit_pat_slice_mutNtNtCscj7Jssje0XT_11async_trait8receiver11ReplaceSelfEB11_, symObjAddr: 0x13220, symBinAddr: 0x13DF0, symSize: 0xD0 }
  - { offset: 0xCA95, size: 0x8, addend: 0x0, symName: __RINvNtNtCsdGrGZaRBwMb_3syn3gen9visit_mut19visit_pat_slice_mutNtNtCscj7Jssje0XT_11async_trait8receiver7HasSelfEB11_, symObjAddr: 0x132F0, symBinAddr: 0x13EC0, symSize: 0xD0 }
  - { offset: 0xCB32, size: 0x8, addend: 0x0, symName: __RINvNtNtCsdGrGZaRBwMb_3syn3gen9visit_mut19visit_pat_slice_mutNtNtCscj7Jssje0XT_11async_trait8receiver9HasMutPatEB11_, symObjAddr: 0x133C0, symBinAddr: 0x13F90, symSize: 0xD0 }
  - { offset: 0xCBCF, size: 0x8, addend: 0x0, symName: __RINvNtNtCsdGrGZaRBwMb_3syn3gen9visit_mut19visit_pat_slice_mutNtNvNtCscj7Jssje0XT_11async_trait6expand29replace_impl_trait_with_infer25ReplaceImplTraitWithInferEB13_, symObjAddr: 0x13490, symBinAddr: 0x14060, symSize: 0xD0 }
  - { offset: 0xCC6C, size: 0x8, addend: 0x0, symName: __RINvNtNtCsdGrGZaRBwMb_3syn3gen9visit_mut19visit_pat_slice_mutNtNvNtCscj7Jssje0XT_11async_trait6expand35contains_associated_type_impl_trait24AssociatedTypeImplTraitsEB13_, symObjAddr: 0x13560, symBinAddr: 0x14130, symSize: 0xD0 }
  - { offset: 0xCD09, size: 0x8, addend: 0x0, symName: __RINvNtNtCsdGrGZaRBwMb_3syn3gen9visit_mut19visit_pat_tuple_mutNtNtCscj7Jssje0XT_11async_trait8lifetime16CollectLifetimesEB11_, symObjAddr: 0x13630, symBinAddr: 0x14200, symSize: 0xD0 }
  - { offset: 0xCDA6, size: 0x8, addend: 0x0, symName: __RINvNtNtCsdGrGZaRBwMb_3syn3gen9visit_mut19visit_pat_tuple_mutNtNtCscj7Jssje0XT_11async_trait8receiver11ReplaceSelfEB11_, symObjAddr: 0x13700, symBinAddr: 0x142D0, symSize: 0xD0 }
  - { offset: 0xCE43, size: 0x8, addend: 0x0, symName: __RINvNtNtCsdGrGZaRBwMb_3syn3gen9visit_mut19visit_pat_tuple_mutNtNtCscj7Jssje0XT_11async_trait8receiver7HasSelfEB11_, symObjAddr: 0x137D0, symBinAddr: 0x143A0, symSize: 0xD0 }
  - { offset: 0xCEE0, size: 0x8, addend: 0x0, symName: __RINvNtNtCsdGrGZaRBwMb_3syn3gen9visit_mut19visit_pat_tuple_mutNtNtCscj7Jssje0XT_11async_trait8receiver9HasMutPatEB11_, symObjAddr: 0x138A0, symBinAddr: 0x14470, symSize: 0xD0 }
  - { offset: 0xCF7D, size: 0x8, addend: 0x0, symName: __RINvNtNtCsdGrGZaRBwMb_3syn3gen9visit_mut19visit_pat_tuple_mutNtNvNtCscj7Jssje0XT_11async_trait6expand29replace_impl_trait_with_infer25ReplaceImplTraitWithInferEB13_, symObjAddr: 0x13970, symBinAddr: 0x14540, symSize: 0xD0 }
  - { offset: 0xD01A, size: 0x8, addend: 0x0, symName: __RINvNtNtCsdGrGZaRBwMb_3syn3gen9visit_mut19visit_pat_tuple_mutNtNvNtCscj7Jssje0XT_11async_trait6expand35contains_associated_type_impl_trait24AssociatedTypeImplTraitsEB13_, symObjAddr: 0x13A40, symBinAddr: 0x14610, symSize: 0xD0 }
  - { offset: 0xD0B7, size: 0x8, addend: 0x0, symName: __RINvNtNtCsdGrGZaRBwMb_3syn3gen9visit_mut19visit_signature_mutNtNtCscj7Jssje0XT_11async_trait8lifetime16CollectLifetimesEB11_, symObjAddr: 0x13B10, symBinAddr: 0x146E0, symSize: 0x1A0 }
  - { offset: 0xD190, size: 0x8, addend: 0x0, symName: __RINvNtNtCsdGrGZaRBwMb_3syn3gen9visit_mut19visit_signature_mutNtNtCscj7Jssje0XT_11async_trait8receiver7HasSelfEB11_, symObjAddr: 0x13CB0, symBinAddr: 0x14880, symSize: 0x1A0 }
  - { offset: 0xD269, size: 0x8, addend: 0x0, symName: __RINvNtNtCsdGrGZaRBwMb_3syn3gen9visit_mut19visit_signature_mutNtNtCscj7Jssje0XT_11async_trait8receiver9HasMutPatEB11_, symObjAddr: 0x13E50, symBinAddr: 0x14A20, symSize: 0x1A0 }
  - { offset: 0xD342, size: 0x8, addend: 0x0, symName: __RINvNtNtCsdGrGZaRBwMb_3syn3gen9visit_mut19visit_signature_mutNtNvNtCscj7Jssje0XT_11async_trait6expand29replace_impl_trait_with_infer25ReplaceImplTraitWithInferEB13_, symObjAddr: 0x13FF0, symBinAddr: 0x14BC0, symSize: 0x1A0 }
  - { offset: 0xD41B, size: 0x8, addend: 0x0, symName: __RINvNtNtCsdGrGZaRBwMb_3syn3gen9visit_mut19visit_signature_mutNtNvNtCscj7Jssje0XT_11async_trait6expand35contains_associated_type_impl_trait24AssociatedTypeImplTraitsEB13_, symObjAddr: 0x14190, symBinAddr: 0x14D60, symSize: 0x1A0 }
  - { offset: 0xD4F4, size: 0x8, addend: 0x0, symName: __RINvNtNtCsdGrGZaRBwMb_3syn3gen9visit_mut19visit_type_path_mutNtNtCscj7Jssje0XT_11async_trait8lifetime16CollectLifetimesEB11_, symObjAddr: 0x14330, symBinAddr: 0x14F00, symSize: 0x70 }
  - { offset: 0xD554, size: 0x8, addend: 0x0, symName: __RINvNtNtCsdGrGZaRBwMb_3syn3gen9visit_mut19visit_type_path_mutNtNtCscj7Jssje0XT_11async_trait8lifetime22AddLifetimeToImplTraitEB11_, symObjAddr: 0x143A0, symBinAddr: 0x14F70, symSize: 0x70 }
  - { offset: 0xD5B4, size: 0x8, addend: 0x0, symName: __RINvNtNtCsdGrGZaRBwMb_3syn3gen9visit_mut19visit_type_path_mutNtNtCscj7Jssje0XT_11async_trait8receiver11ReplaceSelfEB11_, symObjAddr: 0x14410, symBinAddr: 0x14FE0, symSize: 0x70 }
  - { offset: 0xD614, size: 0x8, addend: 0x0, symName: __RINvNtNtCsdGrGZaRBwMb_3syn3gen9visit_mut19visit_type_path_mutNtNtCscj7Jssje0XT_11async_trait8receiver7HasSelfEB11_, symObjAddr: 0x14480, symBinAddr: 0x15050, symSize: 0x70 }
  - { offset: 0xD674, size: 0x8, addend: 0x0, symName: __RINvNtNtCsdGrGZaRBwMb_3syn3gen9visit_mut19visit_type_path_mutNtNtCscj7Jssje0XT_11async_trait8receiver9HasMutPatEB11_, symObjAddr: 0x144F0, symBinAddr: 0x150C0, symSize: 0x70 }
  - { offset: 0xD6D4, size: 0x8, addend: 0x0, symName: __RINvNtNtCsdGrGZaRBwMb_3syn3gen9visit_mut19visit_type_path_mutNtNvNtCscj7Jssje0XT_11async_trait6expand29replace_impl_trait_with_infer25ReplaceImplTraitWithInferEB13_, symObjAddr: 0x14560, symBinAddr: 0x15130, symSize: 0x70 }
  - { offset: 0xD734, size: 0x8, addend: 0x0, symName: __RINvNtNtCsdGrGZaRBwMb_3syn3gen9visit_mut19visit_type_path_mutNtNvNtCscj7Jssje0XT_11async_trait6expand35contains_associated_type_impl_trait24AssociatedTypeImplTraitsEB13_, symObjAddr: 0x145D0, symBinAddr: 0x151A0, symSize: 0x70 }
  - { offset: 0xD794, size: 0x8, addend: 0x0, symName: __RINvNtNtCsdGrGZaRBwMb_3syn3gen9visit_mut19visit_use_group_mutNtNtCscj7Jssje0XT_11async_trait8lifetime16CollectLifetimesEB11_, symObjAddr: 0x14640, symBinAddr: 0x15210, symSize: 0xB0 }
  - { offset: 0xD831, size: 0x8, addend: 0x0, symName: __RINvNtNtCsdGrGZaRBwMb_3syn3gen9visit_mut19visit_use_group_mutNtNtCscj7Jssje0XT_11async_trait8receiver9HasMutPatEB11_, symObjAddr: 0x146F0, symBinAddr: 0x152C0, symSize: 0xB0 }
  - { offset: 0xD8CE, size: 0x8, addend: 0x0, symName: __RINvNtNtCsdGrGZaRBwMb_3syn3gen9visit_mut19visit_use_group_mutNtNvNtCscj7Jssje0XT_11async_trait6expand29replace_impl_trait_with_infer25ReplaceImplTraitWithInferEB13_, symObjAddr: 0x147A0, symBinAddr: 0x15370, symSize: 0xB0 }
  - { offset: 0xD96B, size: 0x8, addend: 0x0, symName: __RINvNtNtCsdGrGZaRBwMb_3syn3gen9visit_mut19visit_use_group_mutNtNvNtCscj7Jssje0XT_11async_trait6expand35contains_associated_type_impl_trait24AssociatedTypeImplTraitsEB13_, symObjAddr: 0x14850, symBinAddr: 0x15420, symSize: 0xB0 }
  - { offset: 0xDA08, size: 0x8, addend: 0x0, symName: __RINvNtNtCsdGrGZaRBwMb_3syn3gen9visit_mut20visit_assoc_type_mutNtNtCscj7Jssje0XT_11async_trait8lifetime16CollectLifetimesEB12_, symObjAddr: 0x14900, symBinAddr: 0x154D0, symSize: 0x90 }
  - { offset: 0xDA68, size: 0x8, addend: 0x0, symName: __RINvNtNtCsdGrGZaRBwMb_3syn3gen9visit_mut20visit_assoc_type_mutNtNtCscj7Jssje0XT_11async_trait8lifetime22AddLifetimeToImplTraitEB12_, symObjAddr: 0x14990, symBinAddr: 0x15560, symSize: 0x90 }
  - { offset: 0xDAC8, size: 0x8, addend: 0x0, symName: __RINvNtNtCsdGrGZaRBwMb_3syn3gen9visit_mut20visit_assoc_type_mutNtNtCscj7Jssje0XT_11async_trait8receiver11ReplaceSelfEB12_, symObjAddr: 0x14A20, symBinAddr: 0x155F0, symSize: 0x90 }
  - { offset: 0xDB28, size: 0x8, addend: 0x0, symName: __RINvNtNtCsdGrGZaRBwMb_3syn3gen9visit_mut20visit_assoc_type_mutNtNtCscj7Jssje0XT_11async_trait8receiver7HasSelfEB12_, symObjAddr: 0x14AB0, symBinAddr: 0x15680, symSize: 0x90 }
  - { offset: 0xDB88, size: 0x8, addend: 0x0, symName: __RINvNtNtCsdGrGZaRBwMb_3syn3gen9visit_mut20visit_assoc_type_mutNtNtCscj7Jssje0XT_11async_trait8receiver9HasMutPatEB12_, symObjAddr: 0x14B40, symBinAddr: 0x15710, symSize: 0x90 }
  - { offset: 0xDBE8, size: 0x8, addend: 0x0, symName: __RINvNtNtCsdGrGZaRBwMb_3syn3gen9visit_mut20visit_assoc_type_mutNtNvNtCscj7Jssje0XT_11async_trait6expand29replace_impl_trait_with_infer25ReplaceImplTraitWithInferEB14_, symObjAddr: 0x14BD0, symBinAddr: 0x157A0, symSize: 0x90 }
  - { offset: 0xDC48, size: 0x8, addend: 0x0, symName: __RINvNtNtCsdGrGZaRBwMb_3syn3gen9visit_mut20visit_assoc_type_mutNtNvNtCscj7Jssje0XT_11async_trait6expand35contains_associated_type_impl_trait24AssociatedTypeImplTraitsEB14_, symObjAddr: 0x14C60, symBinAddr: 0x15830, symSize: 0x90 }
  - { offset: 0xDCA8, size: 0x8, addend: 0x0, symName: __RINvNtNtCsdGrGZaRBwMb_3syn3gen9visit_mut20visit_attr_style_mutNtNtCscj7Jssje0XT_11async_trait8lifetime16CollectLifetimesEB12_, symObjAddr: 0x14CF0, symBinAddr: 0x158C0, symSize: 0x40 }
  - { offset: 0xDCEA, size: 0x8, addend: 0x0, symName: __RINvNtNtCsdGrGZaRBwMb_3syn3gen9visit_mut20visit_attr_style_mutNtNtCscj7Jssje0XT_11async_trait8lifetime22AddLifetimeToImplTraitEB12_, symObjAddr: 0x14D30, symBinAddr: 0x15900, symSize: 0x40 }
  - { offset: 0xDD2C, size: 0x8, addend: 0x0, symName: __RINvNtNtCsdGrGZaRBwMb_3syn3gen9visit_mut20visit_attr_style_mutNtNtCscj7Jssje0XT_11async_trait8receiver11ReplaceSelfEB12_, symObjAddr: 0x14D70, symBinAddr: 0x15940, symSize: 0x40 }
  - { offset: 0xDD6E, size: 0x8, addend: 0x0, symName: __RINvNtNtCsdGrGZaRBwMb_3syn3gen9visit_mut20visit_attr_style_mutNtNtCscj7Jssje0XT_11async_trait8receiver7HasSelfEB12_, symObjAddr: 0x14DB0, symBinAddr: 0x15980, symSize: 0x40 }
  - { offset: 0xDDB0, size: 0x8, addend: 0x0, symName: __RINvNtNtCsdGrGZaRBwMb_3syn3gen9visit_mut20visit_attr_style_mutNtNtCscj7Jssje0XT_11async_trait8receiver9HasMutPatEB12_, symObjAddr: 0x14DF0, symBinAddr: 0x159C0, symSize: 0x40 }
  - { offset: 0xDDF2, size: 0x8, addend: 0x0, symName: __RINvNtNtCsdGrGZaRBwMb_3syn3gen9visit_mut20visit_attr_style_mutNtNvNtCscj7Jssje0XT_11async_trait6expand29replace_impl_trait_with_infer25ReplaceImplTraitWithInferEB14_, symObjAddr: 0x14E30, symBinAddr: 0x15A00, symSize: 0x40 }
  - { offset: 0xDE34, size: 0x8, addend: 0x0, symName: __RINvNtNtCsdGrGZaRBwMb_3syn3gen9visit_mut20visit_attr_style_mutNtNvNtCscj7Jssje0XT_11async_trait6expand35contains_associated_type_impl_trait24AssociatedTypeImplTraitsEB14_, symObjAddr: 0x14E70, symBinAddr: 0x15A40, symSize: 0x40 }
  - { offset: 0xDE76, size: 0x8, addend: 0x0, symName: __RINvNtNtCsdGrGZaRBwMb_3syn3gen9visit_mut20visit_constraint_mutNtNtCscj7Jssje0XT_11async_trait8lifetime16CollectLifetimesEB12_, symObjAddr: 0x14EB0, symBinAddr: 0x15A80, symSize: 0x120 }
  - { offset: 0xDF31, size: 0x8, addend: 0x0, symName: __RINvNtNtCsdGrGZaRBwMb_3syn3gen9visit_mut20visit_constraint_mutNtNtCscj7Jssje0XT_11async_trait8lifetime22AddLifetimeToImplTraitEB12_, symObjAddr: 0x14FD0, symBinAddr: 0x15BA0, symSize: 0x120 }
  - { offset: 0xDFEC, size: 0x8, addend: 0x0, symName: __RINvNtNtCsdGrGZaRBwMb_3syn3gen9visit_mut20visit_constraint_mutNtNtCscj7Jssje0XT_11async_trait8receiver11ReplaceSelfEB12_, symObjAddr: 0x150F0, symBinAddr: 0x15CC0, symSize: 0x120 }
  - { offset: 0xE0A7, size: 0x8, addend: 0x0, symName: __RINvNtNtCsdGrGZaRBwMb_3syn3gen9visit_mut20visit_constraint_mutNtNtCscj7Jssje0XT_11async_trait8receiver7HasSelfEB12_, symObjAddr: 0x15210, symBinAddr: 0x15DE0, symSize: 0x120 }
  - { offset: 0xE162, size: 0x8, addend: 0x0, symName: __RINvNtNtCsdGrGZaRBwMb_3syn3gen9visit_mut20visit_constraint_mutNtNtCscj7Jssje0XT_11async_trait8receiver9HasMutPatEB12_, symObjAddr: 0x15330, symBinAddr: 0x15F00, symSize: 0x120 }
  - { offset: 0xE21D, size: 0x8, addend: 0x0, symName: __RINvNtNtCsdGrGZaRBwMb_3syn3gen9visit_mut20visit_constraint_mutNtNvNtCscj7Jssje0XT_11async_trait6expand29replace_impl_trait_with_infer25ReplaceImplTraitWithInferEB14_, symObjAddr: 0x15450, symBinAddr: 0x16020, symSize: 0x120 }
  - { offset: 0xE2D8, size: 0x8, addend: 0x0, symName: __RINvNtNtCsdGrGZaRBwMb_3syn3gen9visit_mut20visit_constraint_mutNtNvNtCscj7Jssje0XT_11async_trait6expand35contains_associated_type_impl_trait24AssociatedTypeImplTraitsEB14_, symObjAddr: 0x15570, symBinAddr: 0x16140, symSize: 0x120 }
  - { offset: 0xE393, size: 0x8, addend: 0x0, symName: __RINvNtNtCsdGrGZaRBwMb_3syn3gen9visit_mut20visit_expr_array_mutNtNtCscj7Jssje0XT_11async_trait8lifetime16CollectLifetimesEB12_, symObjAddr: 0x15690, symBinAddr: 0x16260, symSize: 0xD0 }
  - { offset: 0xE430, size: 0x8, addend: 0x0, symName: __RINvNtNtCsdGrGZaRBwMb_3syn3gen9visit_mut20visit_expr_array_mutNtNtCscj7Jssje0XT_11async_trait8receiver11ReplaceSelfEB12_, symObjAddr: 0x15760, symBinAddr: 0x16330, symSize: 0xD0 }
  - { offset: 0xE4CD, size: 0x8, addend: 0x0, symName: __RINvNtNtCsdGrGZaRBwMb_3syn3gen9visit_mut20visit_expr_array_mutNtNtCscj7Jssje0XT_11async_trait8receiver7HasSelfEB12_, symObjAddr: 0x15830, symBinAddr: 0x16400, symSize: 0xD0 }
  - { offset: 0xE56A, size: 0x8, addend: 0x0, symName: __RINvNtNtCsdGrGZaRBwMb_3syn3gen9visit_mut20visit_expr_array_mutNtNtCscj7Jssje0XT_11async_trait8receiver9HasMutPatEB12_, symObjAddr: 0x15900, symBinAddr: 0x164D0, symSize: 0xD0 }
  - { offset: 0xE607, size: 0x8, addend: 0x0, symName: __RINvNtNtCsdGrGZaRBwMb_3syn3gen9visit_mut20visit_expr_array_mutNtNvNtCscj7Jssje0XT_11async_trait6expand29replace_impl_trait_with_infer25ReplaceImplTraitWithInferEB14_, symObjAddr: 0x159D0, symBinAddr: 0x165A0, symSize: 0xD0 }
  - { offset: 0xE6A4, size: 0x8, addend: 0x0, symName: __RINvNtNtCsdGrGZaRBwMb_3syn3gen9visit_mut20visit_expr_array_mutNtNvNtCscj7Jssje0XT_11async_trait6expand35contains_associated_type_impl_trait24AssociatedTypeImplTraitsEB14_, symObjAddr: 0x15AA0, symBinAddr: 0x16670, symSize: 0xD0 }
  - { offset: 0xE741, size: 0x8, addend: 0x0, symName: __RINvNtNtCsdGrGZaRBwMb_3syn3gen9visit_mut20visit_expr_async_mutNtNtCscj7Jssje0XT_11async_trait8lifetime16CollectLifetimesEB12_, symObjAddr: 0x15B70, symBinAddr: 0x16740, symSize: 0x40 }
  - { offset: 0xE783, size: 0x8, addend: 0x0, symName: __RINvNtNtCsdGrGZaRBwMb_3syn3gen9visit_mut20visit_expr_async_mutNtNtCscj7Jssje0XT_11async_trait8receiver11ReplaceSelfEB12_, symObjAddr: 0x15BB0, symBinAddr: 0x16780, symSize: 0x40 }
  - { offset: 0xE7C5, size: 0x8, addend: 0x0, symName: __RINvNtNtCsdGrGZaRBwMb_3syn3gen9visit_mut20visit_expr_async_mutNtNtCscj7Jssje0XT_11async_trait8receiver7HasSelfEB12_, symObjAddr: 0x15BF0, symBinAddr: 0x167C0, symSize: 0x40 }
  - { offset: 0xE807, size: 0x8, addend: 0x0, symName: __RINvNtNtCsdGrGZaRBwMb_3syn3gen9visit_mut20visit_expr_async_mutNtNtCscj7Jssje0XT_11async_trait8receiver9HasMutPatEB12_, symObjAddr: 0x15C30, symBinAddr: 0x16800, symSize: 0x40 }
  - { offset: 0xE849, size: 0x8, addend: 0x0, symName: __RINvNtNtCsdGrGZaRBwMb_3syn3gen9visit_mut20visit_expr_async_mutNtNvNtCscj7Jssje0XT_11async_trait6expand29replace_impl_trait_with_infer25ReplaceImplTraitWithInferEB14_, symObjAddr: 0x15C70, symBinAddr: 0x16840, symSize: 0x40 }
  - { offset: 0xE88B, size: 0x8, addend: 0x0, symName: __RINvNtNtCsdGrGZaRBwMb_3syn3gen9visit_mut20visit_expr_async_mutNtNvNtCscj7Jssje0XT_11async_trait6expand35contains_associated_type_impl_trait24AssociatedTypeImplTraitsEB14_, symObjAddr: 0x15CB0, symBinAddr: 0x16880, symSize: 0x40 }
  - { offset: 0xE8CD, size: 0x8, addend: 0x0, symName: __RINvNtNtCsdGrGZaRBwMb_3syn3gen9visit_mut20visit_expr_await_mutNtNtCscj7Jssje0XT_11async_trait8lifetime16CollectLifetimesEB12_, symObjAddr: 0x15CF0, symBinAddr: 0x168C0, symSize: 0x90 }
  - { offset: 0xE90F, size: 0x8, addend: 0x0, symName: __RINvNtNtCsdGrGZaRBwMb_3syn3gen9visit_mut20visit_expr_await_mutNtNtCscj7Jssje0XT_11async_trait8receiver11ReplaceSelfEB12_, symObjAddr: 0x15D80, symBinAddr: 0x16950, symSize: 0x90 }
  - { offset: 0xE951, size: 0x8, addend: 0x0, symName: __RINvNtNtCsdGrGZaRBwMb_3syn3gen9visit_mut20visit_expr_await_mutNtNtCscj7Jssje0XT_11async_trait8receiver7HasSelfEB12_, symObjAddr: 0x15E10, symBinAddr: 0x169E0, symSize: 0x90 }
  - { offset: 0xE993, size: 0x8, addend: 0x0, symName: __RINvNtNtCsdGrGZaRBwMb_3syn3gen9visit_mut20visit_expr_await_mutNtNtCscj7Jssje0XT_11async_trait8receiver9HasMutPatEB12_, symObjAddr: 0x15EA0, symBinAddr: 0x16A70, symSize: 0x90 }
  - { offset: 0xE9D5, size: 0x8, addend: 0x0, symName: __RINvNtNtCsdGrGZaRBwMb_3syn3gen9visit_mut20visit_expr_await_mutNtNvNtCscj7Jssje0XT_11async_trait6expand29replace_impl_trait_with_infer25ReplaceImplTraitWithInferEB14_, symObjAddr: 0x15F30, symBinAddr: 0x16B00, symSize: 0x90 }
  - { offset: 0xEA17, size: 0x8, addend: 0x0, symName: __RINvNtNtCsdGrGZaRBwMb_3syn3gen9visit_mut20visit_expr_await_mutNtNvNtCscj7Jssje0XT_11async_trait6expand35contains_associated_type_impl_trait24AssociatedTypeImplTraitsEB14_, symObjAddr: 0x15FC0, symBinAddr: 0x16B90, symSize: 0x90 }
  - { offset: 0xEA59, size: 0x8, addend: 0x0, symName: __RINvNtNtCsdGrGZaRBwMb_3syn3gen9visit_mut20visit_expr_block_mutNtNtCscj7Jssje0XT_11async_trait8lifetime16CollectLifetimesEB12_, symObjAddr: 0x16050, symBinAddr: 0x16C20, symSize: 0x80 }
  - { offset: 0xEAB9, size: 0x8, addend: 0x0, symName: __RINvNtNtCsdGrGZaRBwMb_3syn3gen9visit_mut20visit_expr_block_mutNtNtCscj7Jssje0XT_11async_trait8receiver11ReplaceSelfEB12_, symObjAddr: 0x160D0, symBinAddr: 0x16CA0, symSize: 0x80 }
  - { offset: 0xEB19, size: 0x8, addend: 0x0, symName: __RINvNtNtCsdGrGZaRBwMb_3syn3gen9visit_mut20visit_expr_block_mutNtNtCscj7Jssje0XT_11async_trait8receiver7HasSelfEB12_, symObjAddr: 0x16150, symBinAddr: 0x16D20, symSize: 0x80 }
  - { offset: 0xEB79, size: 0x8, addend: 0x0, symName: __RINvNtNtCsdGrGZaRBwMb_3syn3gen9visit_mut20visit_expr_block_mutNtNtCscj7Jssje0XT_11async_trait8receiver9HasMutPatEB12_, symObjAddr: 0x161D0, symBinAddr: 0x16DA0, symSize: 0x80 }
  - { offset: 0xEBD9, size: 0x8, addend: 0x0, symName: __RINvNtNtCsdGrGZaRBwMb_3syn3gen9visit_mut20visit_expr_block_mutNtNvNtCscj7Jssje0XT_11async_trait6expand29replace_impl_trait_with_infer25ReplaceImplTraitWithInferEB14_, symObjAddr: 0x16250, symBinAddr: 0x16E20, symSize: 0x80 }
  - { offset: 0xEC39, size: 0x8, addend: 0x0, symName: __RINvNtNtCsdGrGZaRBwMb_3syn3gen9visit_mut20visit_expr_block_mutNtNvNtCscj7Jssje0XT_11async_trait6expand35contains_associated_type_impl_trait24AssociatedTypeImplTraitsEB14_, symObjAddr: 0x162D0, symBinAddr: 0x16EA0, symSize: 0x80 }
  - { offset: 0xEC99, size: 0x8, addend: 0x0, symName: __RINvNtNtCsdGrGZaRBwMb_3syn3gen9visit_mut20visit_expr_break_mutNtNtCscj7Jssje0XT_11async_trait8lifetime16CollectLifetimesEB12_, symObjAddr: 0x16350, symBinAddr: 0x16F20, symSize: 0x100 }
  - { offset: 0xED0F, size: 0x8, addend: 0x0, symName: __RINvNtNtCsdGrGZaRBwMb_3syn3gen9visit_mut20visit_expr_break_mutNtNtCscj7Jssje0XT_11async_trait8receiver11ReplaceSelfEB12_, symObjAddr: 0x16450, symBinAddr: 0x17020, symSize: 0x100 }
  - { offset: 0xED85, size: 0x8, addend: 0x0, symName: __RINvNtNtCsdGrGZaRBwMb_3syn3gen9visit_mut20visit_expr_break_mutNtNtCscj7Jssje0XT_11async_trait8receiver7HasSelfEB12_, symObjAddr: 0x16550, symBinAddr: 0x17120, symSize: 0x100 }
  - { offset: 0xEDFB, size: 0x8, addend: 0x0, symName: __RINvNtNtCsdGrGZaRBwMb_3syn3gen9visit_mut20visit_expr_break_mutNtNtCscj7Jssje0XT_11async_trait8receiver9HasMutPatEB12_, symObjAddr: 0x16650, symBinAddr: 0x17220, symSize: 0x100 }
  - { offset: 0xEE71, size: 0x8, addend: 0x0, symName: __RINvNtNtCsdGrGZaRBwMb_3syn3gen9visit_mut20visit_expr_break_mutNtNvNtCscj7Jssje0XT_11async_trait6expand29replace_impl_trait_with_infer25ReplaceImplTraitWithInferEB14_, symObjAddr: 0x16750, symBinAddr: 0x17320, symSize: 0x100 }
  - { offset: 0xEEE7, size: 0x8, addend: 0x0, symName: __RINvNtNtCsdGrGZaRBwMb_3syn3gen9visit_mut20visit_expr_break_mutNtNvNtCscj7Jssje0XT_11async_trait6expand35contains_associated_type_impl_trait24AssociatedTypeImplTraitsEB14_, symObjAddr: 0x16850, symBinAddr: 0x17420, symSize: 0x100 }
  - { offset: 0xEF5D, size: 0x8, addend: 0x0, symName: __RINvNtNtCsdGrGZaRBwMb_3syn3gen9visit_mut20visit_expr_const_mutNtNtCscj7Jssje0XT_11async_trait8lifetime16CollectLifetimesEB12_, symObjAddr: 0x16950, symBinAddr: 0x17520, symSize: 0x40 }
  - { offset: 0xEF9F, size: 0x8, addend: 0x0, symName: __RINvNtNtCsdGrGZaRBwMb_3syn3gen9visit_mut20visit_expr_const_mutNtNtCscj7Jssje0XT_11async_trait8receiver11ReplaceSelfEB12_, symObjAddr: 0x16990, symBinAddr: 0x17560, symSize: 0x40 }
  - { offset: 0xEFE1, size: 0x8, addend: 0x0, symName: __RINvNtNtCsdGrGZaRBwMb_3syn3gen9visit_mut20visit_expr_const_mutNtNtCscj7Jssje0XT_11async_trait8receiver7HasSelfEB12_, symObjAddr: 0x169D0, symBinAddr: 0x175A0, symSize: 0x40 }
  - { offset: 0xF023, size: 0x8, addend: 0x0, symName: __RINvNtNtCsdGrGZaRBwMb_3syn3gen9visit_mut20visit_expr_const_mutNtNtCscj7Jssje0XT_11async_trait8receiver9HasMutPatEB12_, symObjAddr: 0x16A10, symBinAddr: 0x175E0, symSize: 0x40 }
  - { offset: 0xF065, size: 0x8, addend: 0x0, symName: __RINvNtNtCsdGrGZaRBwMb_3syn3gen9visit_mut20visit_expr_const_mutNtNvNtCscj7Jssje0XT_11async_trait6expand29replace_impl_trait_with_infer25ReplaceImplTraitWithInferEB14_, symObjAddr: 0x16A50, symBinAddr: 0x17620, symSize: 0x40 }
  - { offset: 0xF0A7, size: 0x8, addend: 0x0, symName: __RINvNtNtCsdGrGZaRBwMb_3syn3gen9visit_mut20visit_expr_const_mutNtNvNtCscj7Jssje0XT_11async_trait6expand35contains_associated_type_impl_trait24AssociatedTypeImplTraitsEB14_, symObjAddr: 0x16A90, symBinAddr: 0x17660, symSize: 0x40 }
  - { offset: 0xF0E9, size: 0x8, addend: 0x0, symName: __RINvNtNtCsdGrGZaRBwMb_3syn3gen9visit_mut20visit_expr_field_mutNtNtCscj7Jssje0XT_11async_trait8lifetime16CollectLifetimesEB12_, symObjAddr: 0x16AD0, symBinAddr: 0x176A0, symSize: 0xA0 }
  - { offset: 0xF12B, size: 0x8, addend: 0x0, symName: __RINvNtNtCsdGrGZaRBwMb_3syn3gen9visit_mut20visit_expr_field_mutNtNtCscj7Jssje0XT_11async_trait8receiver11ReplaceSelfEB12_, symObjAddr: 0x16B70, symBinAddr: 0x17740, symSize: 0xA0 }
  - { offset: 0xF16D, size: 0x8, addend: 0x0, symName: __RINvNtNtCsdGrGZaRBwMb_3syn3gen9visit_mut20visit_expr_field_mutNtNtCscj7Jssje0XT_11async_trait8receiver7HasSelfEB12_, symObjAddr: 0x16C10, symBinAddr: 0x177E0, symSize: 0xA0 }
  - { offset: 0xF1AF, size: 0x8, addend: 0x0, symName: __RINvNtNtCsdGrGZaRBwMb_3syn3gen9visit_mut20visit_expr_field_mutNtNtCscj7Jssje0XT_11async_trait8receiver9HasMutPatEB12_, symObjAddr: 0x16CB0, symBinAddr: 0x17880, symSize: 0xA0 }
  - { offset: 0xF1F1, size: 0x8, addend: 0x0, symName: __RINvNtNtCsdGrGZaRBwMb_3syn3gen9visit_mut20visit_expr_field_mutNtNvNtCscj7Jssje0XT_11async_trait6expand29replace_impl_trait_with_infer25ReplaceImplTraitWithInferEB14_, symObjAddr: 0x16D50, symBinAddr: 0x17920, symSize: 0xA0 }
  - { offset: 0xF233, size: 0x8, addend: 0x0, symName: __RINvNtNtCsdGrGZaRBwMb_3syn3gen9visit_mut20visit_expr_field_mutNtNvNtCscj7Jssje0XT_11async_trait6expand35contains_associated_type_impl_trait24AssociatedTypeImplTraitsEB14_, symObjAddr: 0x16DF0, symBinAddr: 0x179C0, symSize: 0xA0 }
  - { offset: 0xF275, size: 0x8, addend: 0x0, symName: __RINvNtNtCsdGrGZaRBwMb_3syn3gen9visit_mut20visit_expr_group_mutNtNtCscj7Jssje0XT_11async_trait8lifetime16CollectLifetimesEB12_, symObjAddr: 0x16E90, symBinAddr: 0x17A60, symSize: 0x90 }
  - { offset: 0xF2B7, size: 0x8, addend: 0x0, symName: __RINvNtNtCsdGrGZaRBwMb_3syn3gen9visit_mut20visit_expr_group_mutNtNtCscj7Jssje0XT_11async_trait8receiver11ReplaceSelfEB12_, symObjAddr: 0x16F20, symBinAddr: 0x17AF0, symSize: 0x90 }
  - { offset: 0xF2F9, size: 0x8, addend: 0x0, symName: __RINvNtNtCsdGrGZaRBwMb_3syn3gen9visit_mut20visit_expr_group_mutNtNtCscj7Jssje0XT_11async_trait8receiver7HasSelfEB12_, symObjAddr: 0x16FB0, symBinAddr: 0x17B80, symSize: 0x90 }
  - { offset: 0xF33B, size: 0x8, addend: 0x0, symName: __RINvNtNtCsdGrGZaRBwMb_3syn3gen9visit_mut20visit_expr_group_mutNtNtCscj7Jssje0XT_11async_trait8receiver9HasMutPatEB12_, symObjAddr: 0x17040, symBinAddr: 0x17C10, symSize: 0x90 }
  - { offset: 0xF37D, size: 0x8, addend: 0x0, symName: __RINvNtNtCsdGrGZaRBwMb_3syn3gen9visit_mut20visit_expr_group_mutNtNvNtCscj7Jssje0XT_11async_trait6expand29replace_impl_trait_with_infer25ReplaceImplTraitWithInferEB14_, symObjAddr: 0x170D0, symBinAddr: 0x17CA0, symSize: 0x90 }
  - { offset: 0xF3BF, size: 0x8, addend: 0x0, symName: __RINvNtNtCsdGrGZaRBwMb_3syn3gen9visit_mut20visit_expr_group_mutNtNvNtCscj7Jssje0XT_11async_trait6expand35contains_associated_type_impl_trait24AssociatedTypeImplTraitsEB14_, symObjAddr: 0x17160, symBinAddr: 0x17D30, symSize: 0x90 }
  - { offset: 0xF401, size: 0x8, addend: 0x0, symName: __RINvNtNtCsdGrGZaRBwMb_3syn3gen9visit_mut20visit_expr_index_mutNtNtCscj7Jssje0XT_11async_trait8lifetime16CollectLifetimesEB12_, symObjAddr: 0x171F0, symBinAddr: 0x17DC0, symSize: 0xE0 }
  - { offset: 0xF443, size: 0x8, addend: 0x0, symName: __RINvNtNtCsdGrGZaRBwMb_3syn3gen9visit_mut20visit_expr_index_mutNtNtCscj7Jssje0XT_11async_trait8receiver11ReplaceSelfEB12_, symObjAddr: 0x172D0, symBinAddr: 0x17EA0, symSize: 0xE0 }
  - { offset: 0xF485, size: 0x8, addend: 0x0, symName: __RINvNtNtCsdGrGZaRBwMb_3syn3gen9visit_mut20visit_expr_index_mutNtNtCscj7Jssje0XT_11async_trait8receiver7HasSelfEB12_, symObjAddr: 0x173B0, symBinAddr: 0x17F80, symSize: 0xE0 }
  - { offset: 0xF4C7, size: 0x8, addend: 0x0, symName: __RINvNtNtCsdGrGZaRBwMb_3syn3gen9visit_mut20visit_expr_index_mutNtNtCscj7Jssje0XT_11async_trait8receiver9HasMutPatEB12_, symObjAddr: 0x17490, symBinAddr: 0x18060, symSize: 0xE0 }
  - { offset: 0xF509, size: 0x8, addend: 0x0, symName: __RINvNtNtCsdGrGZaRBwMb_3syn3gen9visit_mut20visit_expr_index_mutNtNvNtCscj7Jssje0XT_11async_trait6expand29replace_impl_trait_with_infer25ReplaceImplTraitWithInferEB14_, symObjAddr: 0x17570, symBinAddr: 0x18140, symSize: 0xE0 }
  - { offset: 0xF54B, size: 0x8, addend: 0x0, symName: __RINvNtNtCsdGrGZaRBwMb_3syn3gen9visit_mut20visit_expr_index_mutNtNvNtCscj7Jssje0XT_11async_trait6expand35contains_associated_type_impl_trait24AssociatedTypeImplTraitsEB14_, symObjAddr: 0x17650, symBinAddr: 0x18220, symSize: 0xE0 }
  - { offset: 0xF58D, size: 0x8, addend: 0x0, symName: __RINvNtNtCsdGrGZaRBwMb_3syn3gen9visit_mut20visit_expr_infer_mutNtNtCscj7Jssje0XT_11async_trait8lifetime16CollectLifetimesEB12_, symObjAddr: 0x17730, symBinAddr: 0x18300, symSize: 0x30 }
  - { offset: 0xF5CF, size: 0x8, addend: 0x0, symName: __RINvNtNtCsdGrGZaRBwMb_3syn3gen9visit_mut20visit_expr_infer_mutNtNtCscj7Jssje0XT_11async_trait8receiver11ReplaceSelfEB12_, symObjAddr: 0x17760, symBinAddr: 0x18330, symSize: 0x30 }
  - { offset: 0xF611, size: 0x8, addend: 0x0, symName: __RINvNtNtCsdGrGZaRBwMb_3syn3gen9visit_mut20visit_expr_infer_mutNtNtCscj7Jssje0XT_11async_trait8receiver7HasSelfEB12_, symObjAddr: 0x17790, symBinAddr: 0x18360, symSize: 0x30 }
  - { offset: 0xF653, size: 0x8, addend: 0x0, symName: __RINvNtNtCsdGrGZaRBwMb_3syn3gen9visit_mut20visit_expr_infer_mutNtNtCscj7Jssje0XT_11async_trait8receiver9HasMutPatEB12_, symObjAddr: 0x177C0, symBinAddr: 0x18390, symSize: 0x30 }
  - { offset: 0xF695, size: 0x8, addend: 0x0, symName: __RINvNtNtCsdGrGZaRBwMb_3syn3gen9visit_mut20visit_expr_infer_mutNtNvNtCscj7Jssje0XT_11async_trait6expand29replace_impl_trait_with_infer25ReplaceImplTraitWithInferEB14_, symObjAddr: 0x177F0, symBinAddr: 0x183C0, symSize: 0x30 }
  - { offset: 0xF6D7, size: 0x8, addend: 0x0, symName: __RINvNtNtCsdGrGZaRBwMb_3syn3gen9visit_mut20visit_expr_infer_mutNtNvNtCscj7Jssje0XT_11async_trait6expand35contains_associated_type_impl_trait24AssociatedTypeImplTraitsEB14_, symObjAddr: 0x17820, symBinAddr: 0x183F0, symSize: 0x30 }
  - { offset: 0xF719, size: 0x8, addend: 0x0, symName: __RINvNtNtCsdGrGZaRBwMb_3syn3gen9visit_mut20visit_expr_macro_mutNtNtCscj7Jssje0XT_11async_trait8lifetime16CollectLifetimesEB12_, symObjAddr: 0x17850, symBinAddr: 0x18420, symSize: 0x40 }
  - { offset: 0xF75B, size: 0x8, addend: 0x0, symName: __RINvNtNtCsdGrGZaRBwMb_3syn3gen9visit_mut20visit_expr_macro_mutNtNtCscj7Jssje0XT_11async_trait8receiver11ReplaceSelfEB12_, symObjAddr: 0x17890, symBinAddr: 0x18460, symSize: 0x40 }
  - { offset: 0xF79D, size: 0x8, addend: 0x0, symName: __RINvNtNtCsdGrGZaRBwMb_3syn3gen9visit_mut20visit_expr_macro_mutNtNtCscj7Jssje0XT_11async_trait8receiver7HasSelfEB12_, symObjAddr: 0x178D0, symBinAddr: 0x184A0, symSize: 0x40 }
  - { offset: 0xF7DF, size: 0x8, addend: 0x0, symName: __RINvNtNtCsdGrGZaRBwMb_3syn3gen9visit_mut20visit_expr_macro_mutNtNtCscj7Jssje0XT_11async_trait8receiver9HasMutPatEB12_, symObjAddr: 0x17910, symBinAddr: 0x184E0, symSize: 0x40 }
  - { offset: 0xF821, size: 0x8, addend: 0x0, symName: __RINvNtNtCsdGrGZaRBwMb_3syn3gen9visit_mut20visit_expr_macro_mutNtNvNtCscj7Jssje0XT_11async_trait6expand29replace_impl_trait_with_infer25ReplaceImplTraitWithInferEB14_, symObjAddr: 0x17950, symBinAddr: 0x18520, symSize: 0x40 }
  - { offset: 0xF863, size: 0x8, addend: 0x0, symName: __RINvNtNtCsdGrGZaRBwMb_3syn3gen9visit_mut20visit_expr_macro_mutNtNvNtCscj7Jssje0XT_11async_trait6expand35contains_associated_type_impl_trait24AssociatedTypeImplTraitsEB14_, symObjAddr: 0x17990, symBinAddr: 0x18560, symSize: 0x40 }
  - { offset: 0xF8A5, size: 0x8, addend: 0x0, symName: __RINvNtNtCsdGrGZaRBwMb_3syn3gen9visit_mut20visit_expr_match_mutNtNtCscj7Jssje0XT_11async_trait8lifetime16CollectLifetimesEB12_, symObjAddr: 0x179D0, symBinAddr: 0x185A0, symSize: 0xE0 }
  - { offset: 0xF91B, size: 0x8, addend: 0x0, symName: __RINvNtNtCsdGrGZaRBwMb_3syn3gen9visit_mut20visit_expr_match_mutNtNtCscj7Jssje0XT_11async_trait8receiver11ReplaceSelfEB12_, symObjAddr: 0x17AB0, symBinAddr: 0x18680, symSize: 0xE0 }
  - { offset: 0xF991, size: 0x8, addend: 0x0, symName: __RINvNtNtCsdGrGZaRBwMb_3syn3gen9visit_mut20visit_expr_match_mutNtNtCscj7Jssje0XT_11async_trait8receiver7HasSelfEB12_, symObjAddr: 0x17B90, symBinAddr: 0x18760, symSize: 0xE0 }
  - { offset: 0xFA07, size: 0x8, addend: 0x0, symName: __RINvNtNtCsdGrGZaRBwMb_3syn3gen9visit_mut20visit_expr_match_mutNtNtCscj7Jssje0XT_11async_trait8receiver9HasMutPatEB12_, symObjAddr: 0x17C70, symBinAddr: 0x18840, symSize: 0xE0 }
  - { offset: 0xFA7D, size: 0x8, addend: 0x0, symName: __RINvNtNtCsdGrGZaRBwMb_3syn3gen9visit_mut20visit_expr_match_mutNtNvNtCscj7Jssje0XT_11async_trait6expand29replace_impl_trait_with_infer25ReplaceImplTraitWithInferEB14_, symObjAddr: 0x17D50, symBinAddr: 0x18920, symSize: 0xE0 }
  - { offset: 0xFAF3, size: 0x8, addend: 0x0, symName: __RINvNtNtCsdGrGZaRBwMb_3syn3gen9visit_mut20visit_expr_match_mutNtNvNtCscj7Jssje0XT_11async_trait6expand35contains_associated_type_impl_trait24AssociatedTypeImplTraitsEB14_, symObjAddr: 0x17E30, symBinAddr: 0x18A00, symSize: 0xE0 }
  - { offset: 0xFB69, size: 0x8, addend: 0x0, symName: __RINvNtNtCsdGrGZaRBwMb_3syn3gen9visit_mut20visit_expr_paren_mutNtNtCscj7Jssje0XT_11async_trait8lifetime16CollectLifetimesEB12_, symObjAddr: 0x17F10, symBinAddr: 0x18AE0, symSize: 0x90 }
  - { offset: 0xFBAB, size: 0x8, addend: 0x0, symName: __RINvNtNtCsdGrGZaRBwMb_3syn3gen9visit_mut20visit_expr_paren_mutNtNtCscj7Jssje0XT_11async_trait8receiver11ReplaceSelfEB12_, symObjAddr: 0x17FA0, symBinAddr: 0x18B70, symSize: 0x90 }
  - { offset: 0xFBED, size: 0x8, addend: 0x0, symName: __RINvNtNtCsdGrGZaRBwMb_3syn3gen9visit_mut20visit_expr_paren_mutNtNtCscj7Jssje0XT_11async_trait8receiver7HasSelfEB12_, symObjAddr: 0x18030, symBinAddr: 0x18C00, symSize: 0x90 }
  - { offset: 0xFC2F, size: 0x8, addend: 0x0, symName: __RINvNtNtCsdGrGZaRBwMb_3syn3gen9visit_mut20visit_expr_paren_mutNtNtCscj7Jssje0XT_11async_trait8receiver9HasMutPatEB12_, symObjAddr: 0x180C0, symBinAddr: 0x18C90, symSize: 0x90 }
  - { offset: 0xFC71, size: 0x8, addend: 0x0, symName: __RINvNtNtCsdGrGZaRBwMb_3syn3gen9visit_mut20visit_expr_paren_mutNtNvNtCscj7Jssje0XT_11async_trait6expand29replace_impl_trait_with_infer25ReplaceImplTraitWithInferEB14_, symObjAddr: 0x18150, symBinAddr: 0x18D20, symSize: 0x90 }
  - { offset: 0xFCB3, size: 0x8, addend: 0x0, symName: __RINvNtNtCsdGrGZaRBwMb_3syn3gen9visit_mut20visit_expr_paren_mutNtNvNtCscj7Jssje0XT_11async_trait6expand35contains_associated_type_impl_trait24AssociatedTypeImplTraitsEB14_, symObjAddr: 0x181E0, symBinAddr: 0x18DB0, symSize: 0x90 }
  - { offset: 0xFCF5, size: 0x8, addend: 0x0, symName: __RINvNtNtCsdGrGZaRBwMb_3syn3gen9visit_mut20visit_expr_range_mutNtNtCscj7Jssje0XT_11async_trait8lifetime16CollectLifetimesEB12_, symObjAddr: 0x18270, symBinAddr: 0x18E40, symSize: 0x170 }
  - { offset: 0xFD63, size: 0x8, addend: 0x0, symName: __RINvNtNtCsdGrGZaRBwMb_3syn3gen9visit_mut20visit_expr_range_mutNtNtCscj7Jssje0XT_11async_trait8receiver11ReplaceSelfEB12_, symObjAddr: 0x183E0, symBinAddr: 0x18FB0, symSize: 0x170 }
  - { offset: 0xFDD1, size: 0x8, addend: 0x0, symName: __RINvNtNtCsdGrGZaRBwMb_3syn3gen9visit_mut20visit_expr_range_mutNtNtCscj7Jssje0XT_11async_trait8receiver7HasSelfEB12_, symObjAddr: 0x18550, symBinAddr: 0x19120, symSize: 0x170 }
  - { offset: 0xFE3F, size: 0x8, addend: 0x0, symName: __RINvNtNtCsdGrGZaRBwMb_3syn3gen9visit_mut20visit_expr_range_mutNtNtCscj7Jssje0XT_11async_trait8receiver9HasMutPatEB12_, symObjAddr: 0x186C0, symBinAddr: 0x19290, symSize: 0x170 }
  - { offset: 0xFEAD, size: 0x8, addend: 0x0, symName: __RINvNtNtCsdGrGZaRBwMb_3syn3gen9visit_mut20visit_expr_range_mutNtNvNtCscj7Jssje0XT_11async_trait6expand29replace_impl_trait_with_infer25ReplaceImplTraitWithInferEB14_, symObjAddr: 0x18830, symBinAddr: 0x19400, symSize: 0x170 }
  - { offset: 0xFF1B, size: 0x8, addend: 0x0, symName: __RINvNtNtCsdGrGZaRBwMb_3syn3gen9visit_mut20visit_expr_range_mutNtNvNtCscj7Jssje0XT_11async_trait6expand35contains_associated_type_impl_trait24AssociatedTypeImplTraitsEB14_, symObjAddr: 0x189A0, symBinAddr: 0x19570, symSize: 0x170 }
  - { offset: 0xFF89, size: 0x8, addend: 0x0, symName: __RINvNtNtCsdGrGZaRBwMb_3syn3gen9visit_mut20visit_expr_tuple_mutNtNtCscj7Jssje0XT_11async_trait8lifetime16CollectLifetimesEB12_, symObjAddr: 0x18B10, symBinAddr: 0x196E0, symSize: 0xD0 }
  - { offset: 0x10026, size: 0x8, addend: 0x0, symName: __RINvNtNtCsdGrGZaRBwMb_3syn3gen9visit_mut20visit_expr_tuple_mutNtNtCscj7Jssje0XT_11async_trait8receiver11ReplaceSelfEB12_, symObjAddr: 0x18BE0, symBinAddr: 0x197B0, symSize: 0xD0 }
  - { offset: 0x100C3, size: 0x8, addend: 0x0, symName: __RINvNtNtCsdGrGZaRBwMb_3syn3gen9visit_mut20visit_expr_tuple_mutNtNtCscj7Jssje0XT_11async_trait8receiver7HasSelfEB12_, symObjAddr: 0x18CB0, symBinAddr: 0x19880, symSize: 0xD0 }
  - { offset: 0x10160, size: 0x8, addend: 0x0, symName: __RINvNtNtCsdGrGZaRBwMb_3syn3gen9visit_mut20visit_expr_tuple_mutNtNtCscj7Jssje0XT_11async_trait8receiver9HasMutPatEB12_, symObjAddr: 0x18D80, symBinAddr: 0x19950, symSize: 0xD0 }
  - { offset: 0x101FD, size: 0x8, addend: 0x0, symName: __RINvNtNtCsdGrGZaRBwMb_3syn3gen9visit_mut20visit_expr_tuple_mutNtNvNtCscj7Jssje0XT_11async_trait6expand29replace_impl_trait_with_infer25ReplaceImplTraitWithInferEB14_, symObjAddr: 0x18E50, symBinAddr: 0x19A20, symSize: 0xD0 }
  - { offset: 0x1029A, size: 0x8, addend: 0x0, symName: __RINvNtNtCsdGrGZaRBwMb_3syn3gen9visit_mut20visit_expr_tuple_mutNtNvNtCscj7Jssje0XT_11async_trait6expand35contains_associated_type_impl_trait24AssociatedTypeImplTraitsEB14_, symObjAddr: 0x18F20, symBinAddr: 0x19AF0, symSize: 0xD0 }
  - { offset: 0x10337, size: 0x8, addend: 0x0, symName: __RINvNtNtCsdGrGZaRBwMb_3syn3gen9visit_mut20visit_expr_unary_mutNtNtCscj7Jssje0XT_11async_trait8lifetime16CollectLifetimesEB12_, symObjAddr: 0x18FF0, symBinAddr: 0x19BC0, symSize: 0xA0 }
  - { offset: 0x10379, size: 0x8, addend: 0x0, symName: __RINvNtNtCsdGrGZaRBwMb_3syn3gen9visit_mut20visit_expr_unary_mutNtNtCscj7Jssje0XT_11async_trait8receiver11ReplaceSelfEB12_, symObjAddr: 0x19090, symBinAddr: 0x19C60, symSize: 0xA0 }
  - { offset: 0x103BB, size: 0x8, addend: 0x0, symName: __RINvNtNtCsdGrGZaRBwMb_3syn3gen9visit_mut20visit_expr_unary_mutNtNtCscj7Jssje0XT_11async_trait8receiver7HasSelfEB12_, symObjAddr: 0x19130, symBinAddr: 0x19D00, symSize: 0xA0 }
  - { offset: 0x103FD, size: 0x8, addend: 0x0, symName: __RINvNtNtCsdGrGZaRBwMb_3syn3gen9visit_mut20visit_expr_unary_mutNtNtCscj7Jssje0XT_11async_trait8receiver9HasMutPatEB12_, symObjAddr: 0x191D0, symBinAddr: 0x19DA0, symSize: 0xA0 }
  - { offset: 0x1043F, size: 0x8, addend: 0x0, symName: __RINvNtNtCsdGrGZaRBwMb_3syn3gen9visit_mut20visit_expr_unary_mutNtNvNtCscj7Jssje0XT_11async_trait6expand29replace_impl_trait_with_infer25ReplaceImplTraitWithInferEB14_, symObjAddr: 0x19270, symBinAddr: 0x19E40, symSize: 0xA0 }
  - { offset: 0x10481, size: 0x8, addend: 0x0, symName: __RINvNtNtCsdGrGZaRBwMb_3syn3gen9visit_mut20visit_expr_unary_mutNtNvNtCscj7Jssje0XT_11async_trait6expand35contains_associated_type_impl_trait24AssociatedTypeImplTraitsEB14_, symObjAddr: 0x19310, symBinAddr: 0x19EE0, symSize: 0xA0 }
  - { offset: 0x104C3, size: 0x8, addend: 0x0, symName: __RINvNtNtCsdGrGZaRBwMb_3syn3gen9visit_mut20visit_expr_while_mutNtNtCscj7Jssje0XT_11async_trait8lifetime16CollectLifetimesEB12_, symObjAddr: 0x193B0, symBinAddr: 0x19F80, symSize: 0xE0 }
  - { offset: 0x10523, size: 0x8, addend: 0x0, symName: __RINvNtNtCsdGrGZaRBwMb_3syn3gen9visit_mut20visit_expr_while_mutNtNtCscj7Jssje0XT_11async_trait8receiver11ReplaceSelfEB12_, symObjAddr: 0x19490, symBinAddr: 0x1A060, symSize: 0xE0 }
  - { offset: 0x10583, size: 0x8, addend: 0x0, symName: __RINvNtNtCsdGrGZaRBwMb_3syn3gen9visit_mut20visit_expr_while_mutNtNtCscj7Jssje0XT_11async_trait8receiver7HasSelfEB12_, symObjAddr: 0x19570, symBinAddr: 0x1A140, symSize: 0xE0 }
  - { offset: 0x105E3, size: 0x8, addend: 0x0, symName: __RINvNtNtCsdGrGZaRBwMb_3syn3gen9visit_mut20visit_expr_while_mutNtNtCscj7Jssje0XT_11async_trait8receiver9HasMutPatEB12_, symObjAddr: 0x19650, symBinAddr: 0x1A220, symSize: 0xE0 }
  - { offset: 0x10643, size: 0x8, addend: 0x0, symName: __RINvNtNtCsdGrGZaRBwMb_3syn3gen9visit_mut20visit_expr_while_mutNtNvNtCscj7Jssje0XT_11async_trait6expand29replace_impl_trait_with_infer25ReplaceImplTraitWithInferEB14_, symObjAddr: 0x19730, symBinAddr: 0x1A300, symSize: 0xE0 }
  - { offset: 0x106A3, size: 0x8, addend: 0x0, symName: __RINvNtNtCsdGrGZaRBwMb_3syn3gen9visit_mut20visit_expr_while_mutNtNvNtCscj7Jssje0XT_11async_trait6expand35contains_associated_type_impl_trait24AssociatedTypeImplTraitsEB14_, symObjAddr: 0x19810, symBinAddr: 0x1A3E0, symSize: 0xE0 }
  - { offset: 0x10703, size: 0x8, addend: 0x0, symName: __RINvNtNtCsdGrGZaRBwMb_3syn3gen9visit_mut20visit_expr_yield_mutNtNtCscj7Jssje0XT_11async_trait8lifetime16CollectLifetimesEB12_, symObjAddr: 0x198F0, symBinAddr: 0x1A4C0, symSize: 0xC0 }
  - { offset: 0x1075B, size: 0x8, addend: 0x0, symName: __RINvNtNtCsdGrGZaRBwMb_3syn3gen9visit_mut20visit_expr_yield_mutNtNtCscj7Jssje0XT_11async_trait8receiver11ReplaceSelfEB12_, symObjAddr: 0x199B0, symBinAddr: 0x1A580, symSize: 0xC0 }
  - { offset: 0x107B3, size: 0x8, addend: 0x0, symName: __RINvNtNtCsdGrGZaRBwMb_3syn3gen9visit_mut20visit_expr_yield_mutNtNtCscj7Jssje0XT_11async_trait8receiver7HasSelfEB12_, symObjAddr: 0x19A70, symBinAddr: 0x1A640, symSize: 0xC0 }
  - { offset: 0x1080B, size: 0x8, addend: 0x0, symName: __RINvNtNtCsdGrGZaRBwMb_3syn3gen9visit_mut20visit_expr_yield_mutNtNtCscj7Jssje0XT_11async_trait8receiver9HasMutPatEB12_, symObjAddr: 0x19B30, symBinAddr: 0x1A700, symSize: 0xC0 }
  - { offset: 0x10863, size: 0x8, addend: 0x0, symName: __RINvNtNtCsdGrGZaRBwMb_3syn3gen9visit_mut20visit_expr_yield_mutNtNvNtCscj7Jssje0XT_11async_trait6expand29replace_impl_trait_with_infer25ReplaceImplTraitWithInferEB14_, symObjAddr: 0x19BF0, symBinAddr: 0x1A7C0, symSize: 0xC0 }
  - { offset: 0x108BB, size: 0x8, addend: 0x0, symName: __RINvNtNtCsdGrGZaRBwMb_3syn3gen9visit_mut20visit_expr_yield_mutNtNvNtCscj7Jssje0XT_11async_trait6expand35contains_associated_type_impl_trait24AssociatedTypeImplTraitsEB14_, symObjAddr: 0x19CB0, symBinAddr: 0x1A880, symSize: 0xC0 }
  - { offset: 0x10913, size: 0x8, addend: 0x0, symName: __RINvNtNtCsdGrGZaRBwMb_3syn3gen9visit_mut20visit_item_const_mutNtNtCscj7Jssje0XT_11async_trait8lifetime16CollectLifetimesEB12_, symObjAddr: 0x19D70, symBinAddr: 0x1A940, symSize: 0x120 }
  - { offset: 0x10955, size: 0x8, addend: 0x0, symName: __RINvNtNtCsdGrGZaRBwMb_3syn3gen9visit_mut20visit_item_const_mutNtNtCscj7Jssje0XT_11async_trait8receiver9HasMutPatEB12_, symObjAddr: 0x19E90, symBinAddr: 0x1AA60, symSize: 0x120 }
  - { offset: 0x10997, size: 0x8, addend: 0x0, symName: __RINvNtNtCsdGrGZaRBwMb_3syn3gen9visit_mut20visit_item_const_mutNtNvNtCscj7Jssje0XT_11async_trait6expand29replace_impl_trait_with_infer25ReplaceImplTraitWithInferEB14_, symObjAddr: 0x19FB0, symBinAddr: 0x1AB80, symSize: 0x120 }
  - { offset: 0x109D9, size: 0x8, addend: 0x0, symName: __RINvNtNtCsdGrGZaRBwMb_3syn3gen9visit_mut20visit_item_const_mutNtNvNtCscj7Jssje0XT_11async_trait6expand35contains_associated_type_impl_trait24AssociatedTypeImplTraitsEB14_, symObjAddr: 0x1A0D0, symBinAddr: 0x1ACA0, symSize: 0x120 }
  - { offset: 0x10A1B, size: 0x8, addend: 0x0, symName: __RINvNtNtCsdGrGZaRBwMb_3syn3gen9visit_mut20visit_item_macro_mutNtNtCscj7Jssje0XT_11async_trait8lifetime16CollectLifetimesEB12_, symObjAddr: 0x1A1F0, symBinAddr: 0x1ADC0, symSize: 0x90 }
  - { offset: 0x10A7B, size: 0x8, addend: 0x0, symName: __RINvNtNtCsdGrGZaRBwMb_3syn3gen9visit_mut20visit_item_macro_mutNtNtCscj7Jssje0XT_11async_trait8receiver9HasMutPatEB12_, symObjAddr: 0x1A280, symBinAddr: 0x1AE50, symSize: 0x90 }
  - { offset: 0x10ADB, size: 0x8, addend: 0x0, symName: __RINvNtNtCsdGrGZaRBwMb_3syn3gen9visit_mut20visit_item_macro_mutNtNvNtCscj7Jssje0XT_11async_trait6expand29replace_impl_trait_with_infer25ReplaceImplTraitWithInferEB14_, symObjAddr: 0x1A310, symBinAddr: 0x1AEE0, symSize: 0x90 }
  - { offset: 0x10B3B, size: 0x8, addend: 0x0, symName: __RINvNtNtCsdGrGZaRBwMb_3syn3gen9visit_mut20visit_item_macro_mutNtNvNtCscj7Jssje0XT_11async_trait6expand35contains_associated_type_impl_trait24AssociatedTypeImplTraitsEB14_, symObjAddr: 0x1A3A0, symBinAddr: 0x1AF70, symSize: 0x90 }
  - { offset: 0x10B9B, size: 0x8, addend: 0x0, symName: __RINvNtNtCsdGrGZaRBwMb_3syn3gen9visit_mut20visit_item_trait_mutNtNtCscj7Jssje0XT_11async_trait8lifetime16CollectLifetimesEB12_, symObjAddr: 0x1A430, symBinAddr: 0x1B000, symSize: 0x180 }
  - { offset: 0x10C75, size: 0x8, addend: 0x0, symName: __RINvNtNtCsdGrGZaRBwMb_3syn3gen9visit_mut20visit_item_trait_mutNtNtCscj7Jssje0XT_11async_trait8receiver9HasMutPatEB12_, symObjAddr: 0x1A5B0, symBinAddr: 0x1B180, symSize: 0x180 }
  - { offset: 0x10D4F, size: 0x8, addend: 0x0, symName: __RINvNtNtCsdGrGZaRBwMb_3syn3gen9visit_mut20visit_item_trait_mutNtNvNtCscj7Jssje0XT_11async_trait6expand29replace_impl_trait_with_infer25ReplaceImplTraitWithInferEB14_, symObjAddr: 0x1A730, symBinAddr: 0x1B300, symSize: 0x180 }
  - { offset: 0x10E29, size: 0x8, addend: 0x0, symName: __RINvNtNtCsdGrGZaRBwMb_3syn3gen9visit_mut20visit_item_trait_mutNtNvNtCscj7Jssje0XT_11async_trait6expand35contains_associated_type_impl_trait24AssociatedTypeImplTraitsEB14_, symObjAddr: 0x1A8B0, symBinAddr: 0x1B480, symSize: 0x180 }
  - { offset: 0x10F03, size: 0x8, addend: 0x0, symName: __RINvNtNtCsdGrGZaRBwMb_3syn3gen9visit_mut20visit_item_union_mutNtNtCscj7Jssje0XT_11async_trait8lifetime16CollectLifetimesEB12_, symObjAddr: 0x1AA30, symBinAddr: 0x1B600, symSize: 0x80 }
  - { offset: 0x10F45, size: 0x8, addend: 0x0, symName: __RINvNtNtCsdGrGZaRBwMb_3syn3gen9visit_mut20visit_item_union_mutNtNtCscj7Jssje0XT_11async_trait8receiver9HasMutPatEB12_, symObjAddr: 0x1AAB0, symBinAddr: 0x1B680, symSize: 0x80 }
  - { offset: 0x10F87, size: 0x8, addend: 0x0, symName: __RINvNtNtCsdGrGZaRBwMb_3syn3gen9visit_mut20visit_item_union_mutNtNvNtCscj7Jssje0XT_11async_trait6expand29replace_impl_trait_with_infer25ReplaceImplTraitWithInferEB14_, symObjAddr: 0x1AB30, symBinAddr: 0x1B700, symSize: 0x80 }
  - { offset: 0x10FC9, size: 0x8, addend: 0x0, symName: __RINvNtNtCsdGrGZaRBwMb_3syn3gen9visit_mut20visit_item_union_mutNtNvNtCscj7Jssje0XT_11async_trait6expand35contains_associated_type_impl_trait24AssociatedTypeImplTraitsEB14_, symObjAddr: 0x1ABB0, symBinAddr: 0x1B780, symSize: 0x80 }
  - { offset: 0x1100B, size: 0x8, addend: 0x0, symName: __RINvNtNtCsdGrGZaRBwMb_3syn3gen9visit_mut20visit_local_init_mutNtNtCscj7Jssje0XT_11async_trait8lifetime16CollectLifetimesEB12_, symObjAddr: 0x1AC30, symBinAddr: 0x1B800, symSize: 0x120 }
  - { offset: 0x11063, size: 0x8, addend: 0x0, symName: __RINvNtNtCsdGrGZaRBwMb_3syn3gen9visit_mut20visit_local_init_mutNtNtCscj7Jssje0XT_11async_trait8receiver11ReplaceSelfEB12_, symObjAddr: 0x1AD50, symBinAddr: 0x1B920, symSize: 0x120 }
  - { offset: 0x110BB, size: 0x8, addend: 0x0, symName: __RINvNtNtCsdGrGZaRBwMb_3syn3gen9visit_mut20visit_local_init_mutNtNtCscj7Jssje0XT_11async_trait8receiver7HasSelfEB12_, symObjAddr: 0x1AE70, symBinAddr: 0x1BA40, symSize: 0x120 }
  - { offset: 0x11113, size: 0x8, addend: 0x0, symName: __RINvNtNtCsdGrGZaRBwMb_3syn3gen9visit_mut20visit_local_init_mutNtNtCscj7Jssje0XT_11async_trait8receiver9HasMutPatEB12_, symObjAddr: 0x1AF90, symBinAddr: 0x1BB60, symSize: 0x120 }
  - { offset: 0x1116B, size: 0x8, addend: 0x0, symName: __RINvNtNtCsdGrGZaRBwMb_3syn3gen9visit_mut20visit_local_init_mutNtNvNtCscj7Jssje0XT_11async_trait6expand29replace_impl_trait_with_infer25ReplaceImplTraitWithInferEB14_, symObjAddr: 0x1B0B0, symBinAddr: 0x1BC80, symSize: 0x120 }
  - { offset: 0x111C3, size: 0x8, addend: 0x0, symName: __RINvNtNtCsdGrGZaRBwMb_3syn3gen9visit_mut20visit_local_init_mutNtNvNtCscj7Jssje0XT_11async_trait6expand35contains_associated_type_impl_trait24AssociatedTypeImplTraitsEB14_, symObjAddr: 0x1B1D0, symBinAddr: 0x1BDA0, symSize: 0x120 }
  - { offset: 0x1121B, size: 0x8, addend: 0x0, symName: __RINvNtNtCsdGrGZaRBwMb_3syn3gen9visit_mut20visit_pat_struct_mutNtNtCscj7Jssje0XT_11async_trait8lifetime16CollectLifetimesEB12_, symObjAddr: 0x1B2F0, symBinAddr: 0x1BEC0, symSize: 0x190 }
  - { offset: 0x112F4, size: 0x8, addend: 0x0, symName: __RINvNtNtCsdGrGZaRBwMb_3syn3gen9visit_mut20visit_pat_struct_mutNtNtCscj7Jssje0XT_11async_trait8receiver11ReplaceSelfEB12_, symObjAddr: 0x1B480, symBinAddr: 0x1C050, symSize: 0x190 }
  - { offset: 0x113CD, size: 0x8, addend: 0x0, symName: __RINvNtNtCsdGrGZaRBwMb_3syn3gen9visit_mut20visit_pat_struct_mutNtNtCscj7Jssje0XT_11async_trait8receiver7HasSelfEB12_, symObjAddr: 0x1B610, symBinAddr: 0x1C1E0, symSize: 0x190 }
  - { offset: 0x114A6, size: 0x8, addend: 0x0, symName: __RINvNtNtCsdGrGZaRBwMb_3syn3gen9visit_mut20visit_pat_struct_mutNtNtCscj7Jssje0XT_11async_trait8receiver9HasMutPatEB12_, symObjAddr: 0x1B7A0, symBinAddr: 0x1C370, symSize: 0x190 }
  - { offset: 0x1157F, size: 0x8, addend: 0x0, symName: __RINvNtNtCsdGrGZaRBwMb_3syn3gen9visit_mut20visit_pat_struct_mutNtNvNtCscj7Jssje0XT_11async_trait6expand29replace_impl_trait_with_infer25ReplaceImplTraitWithInferEB14_, symObjAddr: 0x1B930, symBinAddr: 0x1C500, symSize: 0x190 }
  - { offset: 0x11658, size: 0x8, addend: 0x0, symName: __RINvNtNtCsdGrGZaRBwMb_3syn3gen9visit_mut20visit_pat_struct_mutNtNvNtCscj7Jssje0XT_11async_trait6expand35contains_associated_type_impl_trait24AssociatedTypeImplTraitsEB14_, symObjAddr: 0x1BAC0, symBinAddr: 0x1C690, symSize: 0x190 }
  - { offset: 0x11731, size: 0x8, addend: 0x0, symName: __RINvNtNtCsdGrGZaRBwMb_3syn3gen9visit_mut20visit_stmt_macro_mutNtNtCscj7Jssje0XT_11async_trait8lifetime16CollectLifetimesEB12_, symObjAddr: 0x1BC50, symBinAddr: 0x1C820, symSize: 0x40 }
  - { offset: 0x11773, size: 0x8, addend: 0x0, symName: __RINvNtNtCsdGrGZaRBwMb_3syn3gen9visit_mut20visit_stmt_macro_mutNtNtCscj7Jssje0XT_11async_trait8receiver11ReplaceSelfEB12_, symObjAddr: 0x1BC90, symBinAddr: 0x1C860, symSize: 0x40 }
  - { offset: 0x117B5, size: 0x8, addend: 0x0, symName: __RINvNtNtCsdGrGZaRBwMb_3syn3gen9visit_mut20visit_stmt_macro_mutNtNtCscj7Jssje0XT_11async_trait8receiver7HasSelfEB12_, symObjAddr: 0x1BCD0, symBinAddr: 0x1C8A0, symSize: 0x40 }
  - { offset: 0x117F7, size: 0x8, addend: 0x0, symName: __RINvNtNtCsdGrGZaRBwMb_3syn3gen9visit_mut20visit_stmt_macro_mutNtNtCscj7Jssje0XT_11async_trait8receiver9HasMutPatEB12_, symObjAddr: 0x1BD10, symBinAddr: 0x1C8E0, symSize: 0x40 }
  - { offset: 0x11839, size: 0x8, addend: 0x0, symName: __RINvNtNtCsdGrGZaRBwMb_3syn3gen9visit_mut20visit_stmt_macro_mutNtNvNtCscj7Jssje0XT_11async_trait6expand29replace_impl_trait_with_infer25ReplaceImplTraitWithInferEB14_, symObjAddr: 0x1BD50, symBinAddr: 0x1C920, symSize: 0x40 }
  - { offset: 0x1187B, size: 0x8, addend: 0x0, symName: __RINvNtNtCsdGrGZaRBwMb_3syn3gen9visit_mut20visit_stmt_macro_mutNtNvNtCscj7Jssje0XT_11async_trait6expand35contains_associated_type_impl_trait24AssociatedTypeImplTraitsEB14_, symObjAddr: 0x1BD90, symBinAddr: 0x1C960, symSize: 0x40 }
  - { offset: 0x118BD, size: 0x8, addend: 0x0, symName: __RINvNtNtCsdGrGZaRBwMb_3syn3gen9visit_mut20visit_trait_item_mutNtNtCscj7Jssje0XT_11async_trait8lifetime16CollectLifetimesEB12_, symObjAddr: 0x1BDD0, symBinAddr: 0x1C9A0, symSize: 0x100 }
  - { offset: 0x1198D, size: 0x8, addend: 0x0, symName: __RINvNtNtCsdGrGZaRBwMb_3syn3gen9visit_mut20visit_trait_item_mutNtNtCscj7Jssje0XT_11async_trait8receiver9HasMutPatEB12_, symObjAddr: 0x1BED0, symBinAddr: 0x1CAA0, symSize: 0x100 }
  - { offset: 0x11A5D, size: 0x8, addend: 0x0, symName: __RINvNtNtCsdGrGZaRBwMb_3syn3gen9visit_mut20visit_trait_item_mutNtNvNtCscj7Jssje0XT_11async_trait6expand29replace_impl_trait_with_infer25ReplaceImplTraitWithInferEB14_, symObjAddr: 0x1BFD0, symBinAddr: 0x1CBA0, symSize: 0x100 }
  - { offset: 0x11B2D, size: 0x8, addend: 0x0, symName: __RINvNtNtCsdGrGZaRBwMb_3syn3gen9visit_mut20visit_trait_item_mutNtNvNtCscj7Jssje0XT_11async_trait6expand35contains_associated_type_impl_trait24AssociatedTypeImplTraitsEB14_, symObjAddr: 0x1C0D0, symBinAddr: 0x1CCA0, symSize: 0x100 }
  - { offset: 0x11BFD, size: 0x8, addend: 0x0, symName: __RINvNtNtCsdGrGZaRBwMb_3syn3gen9visit_mut20visit_type_array_mutNtNtCscj7Jssje0XT_11async_trait8lifetime16CollectLifetimesEB12_, symObjAddr: 0x1C1D0, symBinAddr: 0x1CDA0, symSize: 0x90 }
  - { offset: 0x11C3F, size: 0x8, addend: 0x0, symName: __RINvNtNtCsdGrGZaRBwMb_3syn3gen9visit_mut20visit_type_array_mutNtNtCscj7Jssje0XT_11async_trait8lifetime22AddLifetimeToImplTraitEB12_, symObjAddr: 0x1C260, symBinAddr: 0x1CE30, symSize: 0x90 }
  - { offset: 0x11C81, size: 0x8, addend: 0x0, symName: __RINvNtNtCsdGrGZaRBwMb_3syn3gen9visit_mut20visit_type_array_mutNtNtCscj7Jssje0XT_11async_trait8receiver11ReplaceSelfEB12_, symObjAddr: 0x1C2F0, symBinAddr: 0x1CEC0, symSize: 0x90 }
  - { offset: 0x11CC3, size: 0x8, addend: 0x0, symName: __RINvNtNtCsdGrGZaRBwMb_3syn3gen9visit_mut20visit_type_array_mutNtNtCscj7Jssje0XT_11async_trait8receiver7HasSelfEB12_, symObjAddr: 0x1C380, symBinAddr: 0x1CF50, symSize: 0x90 }
  - { offset: 0x11D05, size: 0x8, addend: 0x0, symName: __RINvNtNtCsdGrGZaRBwMb_3syn3gen9visit_mut20visit_type_array_mutNtNtCscj7Jssje0XT_11async_trait8receiver9HasMutPatEB12_, symObjAddr: 0x1C410, symBinAddr: 0x1CFE0, symSize: 0x90 }
  - { offset: 0x11D47, size: 0x8, addend: 0x0, symName: __RINvNtNtCsdGrGZaRBwMb_3syn3gen9visit_mut20visit_type_array_mutNtNvNtCscj7Jssje0XT_11async_trait6expand29replace_impl_trait_with_infer25ReplaceImplTraitWithInferEB14_, symObjAddr: 0x1C4A0, symBinAddr: 0x1D070, symSize: 0x90 }
  - { offset: 0x11D89, size: 0x8, addend: 0x0, symName: __RINvNtNtCsdGrGZaRBwMb_3syn3gen9visit_mut20visit_type_array_mutNtNvNtCscj7Jssje0XT_11async_trait6expand35contains_associated_type_impl_trait24AssociatedTypeImplTraitsEB14_, symObjAddr: 0x1C530, symBinAddr: 0x1D100, symSize: 0x90 }
  - { offset: 0x11DCB, size: 0x8, addend: 0x0, symName: __RINvNtNtCsdGrGZaRBwMb_3syn3gen9visit_mut20visit_type_group_mutNtNtCscj7Jssje0XT_11async_trait8lifetime16CollectLifetimesEB12_, symObjAddr: 0x1C5C0, symBinAddr: 0x1D190, symSize: 0x80 }
  - { offset: 0x11E0D, size: 0x8, addend: 0x0, symName: __RINvNtNtCsdGrGZaRBwMb_3syn3gen9visit_mut20visit_type_group_mutNtNtCscj7Jssje0XT_11async_trait8lifetime22AddLifetimeToImplTraitEB12_, symObjAddr: 0x1C640, symBinAddr: 0x1D210, symSize: 0x80 }
  - { offset: 0x11E4F, size: 0x8, addend: 0x0, symName: __RINvNtNtCsdGrGZaRBwMb_3syn3gen9visit_mut20visit_type_group_mutNtNtCscj7Jssje0XT_11async_trait8receiver11ReplaceSelfEB12_, symObjAddr: 0x1C6C0, symBinAddr: 0x1D290, symSize: 0x80 }
  - { offset: 0x11E91, size: 0x8, addend: 0x0, symName: __RINvNtNtCsdGrGZaRBwMb_3syn3gen9visit_mut20visit_type_group_mutNtNtCscj7Jssje0XT_11async_trait8receiver7HasSelfEB12_, symObjAddr: 0x1C740, symBinAddr: 0x1D310, symSize: 0x80 }
  - { offset: 0x11ED3, size: 0x8, addend: 0x0, symName: __RINvNtNtCsdGrGZaRBwMb_3syn3gen9visit_mut20visit_type_group_mutNtNtCscj7Jssje0XT_11async_trait8receiver9HasMutPatEB12_, symObjAddr: 0x1C7C0, symBinAddr: 0x1D390, symSize: 0x80 }
  - { offset: 0x11F15, size: 0x8, addend: 0x0, symName: __RINvNtNtCsdGrGZaRBwMb_3syn3gen9visit_mut20visit_type_group_mutNtNvNtCscj7Jssje0XT_11async_trait6expand29replace_impl_trait_with_infer25ReplaceImplTraitWithInferEB14_, symObjAddr: 0x1C840, symBinAddr: 0x1D410, symSize: 0x80 }
  - { offset: 0x11F57, size: 0x8, addend: 0x0, symName: __RINvNtNtCsdGrGZaRBwMb_3syn3gen9visit_mut20visit_type_group_mutNtNvNtCscj7Jssje0XT_11async_trait6expand35contains_associated_type_impl_trait24AssociatedTypeImplTraitsEB14_, symObjAddr: 0x1C8C0, symBinAddr: 0x1D490, symSize: 0x80 }
  - { offset: 0x11F99, size: 0x8, addend: 0x0, symName: __RINvNtNtCsdGrGZaRBwMb_3syn3gen9visit_mut20visit_type_infer_mutNtNtCscj7Jssje0XT_11async_trait8lifetime16CollectLifetimesEB12_, symObjAddr: 0x1C940, symBinAddr: 0x1D510, symSize: 0x20 }
  - { offset: 0x11FDB, size: 0x8, addend: 0x0, symName: __RINvNtNtCsdGrGZaRBwMb_3syn3gen9visit_mut20visit_type_infer_mutNtNtCscj7Jssje0XT_11async_trait8lifetime22AddLifetimeToImplTraitEB12_, symObjAddr: 0x1C960, symBinAddr: 0x1D530, symSize: 0x20 }
  - { offset: 0x1201D, size: 0x8, addend: 0x0, symName: __RINvNtNtCsdGrGZaRBwMb_3syn3gen9visit_mut20visit_type_infer_mutNtNtCscj7Jssje0XT_11async_trait8receiver11ReplaceSelfEB12_, symObjAddr: 0x1C980, symBinAddr: 0x1D550, symSize: 0x20 }
  - { offset: 0x1205F, size: 0x8, addend: 0x0, symName: __RINvNtNtCsdGrGZaRBwMb_3syn3gen9visit_mut20visit_type_infer_mutNtNtCscj7Jssje0XT_11async_trait8receiver7HasSelfEB12_, symObjAddr: 0x1C9A0, symBinAddr: 0x1D570, symSize: 0x20 }
  - { offset: 0x120A1, size: 0x8, addend: 0x0, symName: __RINvNtNtCsdGrGZaRBwMb_3syn3gen9visit_mut20visit_type_infer_mutNtNtCscj7Jssje0XT_11async_trait8receiver9HasMutPatEB12_, symObjAddr: 0x1C9C0, symBinAddr: 0x1D590, symSize: 0x20 }
  - { offset: 0x120E3, size: 0x8, addend: 0x0, symName: __RINvNtNtCsdGrGZaRBwMb_3syn3gen9visit_mut20visit_type_infer_mutNtNvNtCscj7Jssje0XT_11async_trait6expand29replace_impl_trait_with_infer25ReplaceImplTraitWithInferEB14_, symObjAddr: 0x1C9E0, symBinAddr: 0x1D5B0, symSize: 0x20 }
  - { offset: 0x12125, size: 0x8, addend: 0x0, symName: __RINvNtNtCsdGrGZaRBwMb_3syn3gen9visit_mut20visit_type_infer_mutNtNvNtCscj7Jssje0XT_11async_trait6expand35contains_associated_type_impl_trait24AssociatedTypeImplTraitsEB14_, symObjAddr: 0x1CA00, symBinAddr: 0x1D5D0, symSize: 0x20 }
  - { offset: 0x12167, size: 0x8, addend: 0x0, symName: __RINvNtNtCsdGrGZaRBwMb_3syn3gen9visit_mut20visit_type_macro_mutNtNtCscj7Jssje0XT_11async_trait8lifetime16CollectLifetimesEB12_, symObjAddr: 0x1CA20, symBinAddr: 0x1D5F0, symSize: 0x30 }
  - { offset: 0x121A9, size: 0x8, addend: 0x0, symName: __RINvNtNtCsdGrGZaRBwMb_3syn3gen9visit_mut20visit_type_macro_mutNtNtCscj7Jssje0XT_11async_trait8lifetime22AddLifetimeToImplTraitEB12_, symObjAddr: 0x1CA50, symBinAddr: 0x1D620, symSize: 0x30 }
  - { offset: 0x121EB, size: 0x8, addend: 0x0, symName: __RINvNtNtCsdGrGZaRBwMb_3syn3gen9visit_mut20visit_type_macro_mutNtNtCscj7Jssje0XT_11async_trait8receiver11ReplaceSelfEB12_, symObjAddr: 0x1CA80, symBinAddr: 0x1D650, symSize: 0x30 }
  - { offset: 0x1222D, size: 0x8, addend: 0x0, symName: __RINvNtNtCsdGrGZaRBwMb_3syn3gen9visit_mut20visit_type_macro_mutNtNtCscj7Jssje0XT_11async_trait8receiver7HasSelfEB12_, symObjAddr: 0x1CAB0, symBinAddr: 0x1D680, symSize: 0x30 }
  - { offset: 0x1226F, size: 0x8, addend: 0x0, symName: __RINvNtNtCsdGrGZaRBwMb_3syn3gen9visit_mut20visit_type_macro_mutNtNtCscj7Jssje0XT_11async_trait8receiver9HasMutPatEB12_, symObjAddr: 0x1CAE0, symBinAddr: 0x1D6B0, symSize: 0x30 }
  - { offset: 0x122B1, size: 0x8, addend: 0x0, symName: __RINvNtNtCsdGrGZaRBwMb_3syn3gen9visit_mut20visit_type_macro_mutNtNvNtCscj7Jssje0XT_11async_trait6expand29replace_impl_trait_with_infer25ReplaceImplTraitWithInferEB14_, symObjAddr: 0x1CB10, symBinAddr: 0x1D6E0, symSize: 0x30 }
  - { offset: 0x122F3, size: 0x8, addend: 0x0, symName: __RINvNtNtCsdGrGZaRBwMb_3syn3gen9visit_mut20visit_type_macro_mutNtNvNtCscj7Jssje0XT_11async_trait6expand35contains_associated_type_impl_trait24AssociatedTypeImplTraitsEB14_, symObjAddr: 0x1CB40, symBinAddr: 0x1D710, symSize: 0x30 }
  - { offset: 0x12335, size: 0x8, addend: 0x0, symName: __RINvNtNtCsdGrGZaRBwMb_3syn3gen9visit_mut20visit_type_never_mutNtNtCscj7Jssje0XT_11async_trait8lifetime16CollectLifetimesEB12_, symObjAddr: 0x1CB70, symBinAddr: 0x1D740, symSize: 0x20 }
  - { offset: 0x12377, size: 0x8, addend: 0x0, symName: __RINvNtNtCsdGrGZaRBwMb_3syn3gen9visit_mut20visit_type_never_mutNtNtCscj7Jssje0XT_11async_trait8lifetime22AddLifetimeToImplTraitEB12_, symObjAddr: 0x1CB90, symBinAddr: 0x1D760, symSize: 0x20 }
  - { offset: 0x123B9, size: 0x8, addend: 0x0, symName: __RINvNtNtCsdGrGZaRBwMb_3syn3gen9visit_mut20visit_type_never_mutNtNtCscj7Jssje0XT_11async_trait8receiver11ReplaceSelfEB12_, symObjAddr: 0x1CBB0, symBinAddr: 0x1D780, symSize: 0x20 }
  - { offset: 0x123FB, size: 0x8, addend: 0x0, symName: __RINvNtNtCsdGrGZaRBwMb_3syn3gen9visit_mut20visit_type_never_mutNtNtCscj7Jssje0XT_11async_trait8receiver7HasSelfEB12_, symObjAddr: 0x1CBD0, symBinAddr: 0x1D7A0, symSize: 0x20 }
  - { offset: 0x1243D, size: 0x8, addend: 0x0, symName: __RINvNtNtCsdGrGZaRBwMb_3syn3gen9visit_mut20visit_type_never_mutNtNtCscj7Jssje0XT_11async_trait8receiver9HasMutPatEB12_, symObjAddr: 0x1CBF0, symBinAddr: 0x1D7C0, symSize: 0x20 }
  - { offset: 0x1247F, size: 0x8, addend: 0x0, symName: __RINvNtNtCsdGrGZaRBwMb_3syn3gen9visit_mut20visit_type_never_mutNtNvNtCscj7Jssje0XT_11async_trait6expand29replace_impl_trait_with_infer25ReplaceImplTraitWithInferEB14_, symObjAddr: 0x1CC10, symBinAddr: 0x1D7E0, symSize: 0x20 }
  - { offset: 0x124C1, size: 0x8, addend: 0x0, symName: __RINvNtNtCsdGrGZaRBwMb_3syn3gen9visit_mut20visit_type_never_mutNtNvNtCscj7Jssje0XT_11async_trait6expand35contains_associated_type_impl_trait24AssociatedTypeImplTraitsEB14_, symObjAddr: 0x1CC30, symBinAddr: 0x1D800, symSize: 0x20 }
  - { offset: 0x12503, size: 0x8, addend: 0x0, symName: __RINvNtNtCsdGrGZaRBwMb_3syn3gen9visit_mut20visit_type_param_mutNtNtCscj7Jssje0XT_11async_trait8lifetime16CollectLifetimesEB12_, symObjAddr: 0x1CC50, symBinAddr: 0x1D820, symSize: 0x130 }
  - { offset: 0x125BE, size: 0x8, addend: 0x0, symName: __RINvNtNtCsdGrGZaRBwMb_3syn3gen9visit_mut20visit_type_param_mutNtNtCscj7Jssje0XT_11async_trait8lifetime22AddLifetimeToImplTraitEB12_, symObjAddr: 0x1CD80, symBinAddr: 0x1D950, symSize: 0x130 }
  - { offset: 0x12679, size: 0x8, addend: 0x0, symName: __RINvNtNtCsdGrGZaRBwMb_3syn3gen9visit_mut20visit_type_param_mutNtNtCscj7Jssje0XT_11async_trait8receiver11ReplaceSelfEB12_, symObjAddr: 0x1CEB0, symBinAddr: 0x1DA80, symSize: 0x130 }
  - { offset: 0x12734, size: 0x8, addend: 0x0, symName: __RINvNtNtCsdGrGZaRBwMb_3syn3gen9visit_mut20visit_type_param_mutNtNtCscj7Jssje0XT_11async_trait8receiver7HasSelfEB12_, symObjAddr: 0x1CFE0, symBinAddr: 0x1DBB0, symSize: 0x130 }
  - { offset: 0x127EF, size: 0x8, addend: 0x0, symName: __RINvNtNtCsdGrGZaRBwMb_3syn3gen9visit_mut20visit_type_param_mutNtNtCscj7Jssje0XT_11async_trait8receiver9HasMutPatEB12_, symObjAddr: 0x1D110, symBinAddr: 0x1DCE0, symSize: 0x130 }
  - { offset: 0x128AA, size: 0x8, addend: 0x0, symName: __RINvNtNtCsdGrGZaRBwMb_3syn3gen9visit_mut20visit_type_param_mutNtNvNtCscj7Jssje0XT_11async_trait6expand29replace_impl_trait_with_infer25ReplaceImplTraitWithInferEB14_, symObjAddr: 0x1D240, symBinAddr: 0x1DE10, symSize: 0x130 }
  - { offset: 0x12965, size: 0x8, addend: 0x0, symName: __RINvNtNtCsdGrGZaRBwMb_3syn3gen9visit_mut20visit_type_param_mutNtNvNtCscj7Jssje0XT_11async_trait6expand35contains_associated_type_impl_trait24AssociatedTypeImplTraitsEB14_, symObjAddr: 0x1D370, symBinAddr: 0x1DF40, symSize: 0x130 }
  - { offset: 0x12A20, size: 0x8, addend: 0x0, symName: __RINvNtNtCsdGrGZaRBwMb_3syn3gen9visit_mut20visit_type_paren_mutNtNtCscj7Jssje0XT_11async_trait8lifetime16CollectLifetimesEB12_, symObjAddr: 0x1D4A0, symBinAddr: 0x1E070, symSize: 0x80 }
  - { offset: 0x12A62, size: 0x8, addend: 0x0, symName: __RINvNtNtCsdGrGZaRBwMb_3syn3gen9visit_mut20visit_type_paren_mutNtNtCscj7Jssje0XT_11async_trait8lifetime22AddLifetimeToImplTraitEB12_, symObjAddr: 0x1D520, symBinAddr: 0x1E0F0, symSize: 0x80 }
  - { offset: 0x12AA4, size: 0x8, addend: 0x0, symName: __RINvNtNtCsdGrGZaRBwMb_3syn3gen9visit_mut20visit_type_paren_mutNtNtCscj7Jssje0XT_11async_trait8receiver11ReplaceSelfEB12_, symObjAddr: 0x1D5A0, symBinAddr: 0x1E170, symSize: 0x80 }
  - { offset: 0x12AE6, size: 0x8, addend: 0x0, symName: __RINvNtNtCsdGrGZaRBwMb_3syn3gen9visit_mut20visit_type_paren_mutNtNtCscj7Jssje0XT_11async_trait8receiver7HasSelfEB12_, symObjAddr: 0x1D620, symBinAddr: 0x1E1F0, symSize: 0x80 }
  - { offset: 0x12B28, size: 0x8, addend: 0x0, symName: __RINvNtNtCsdGrGZaRBwMb_3syn3gen9visit_mut20visit_type_paren_mutNtNtCscj7Jssje0XT_11async_trait8receiver9HasMutPatEB12_, symObjAddr: 0x1D6A0, symBinAddr: 0x1E270, symSize: 0x80 }
  - { offset: 0x12B6A, size: 0x8, addend: 0x0, symName: __RINvNtNtCsdGrGZaRBwMb_3syn3gen9visit_mut20visit_type_paren_mutNtNvNtCscj7Jssje0XT_11async_trait6expand29replace_impl_trait_with_infer25ReplaceImplTraitWithInferEB14_, symObjAddr: 0x1D720, symBinAddr: 0x1E2F0, symSize: 0x80 }
  - { offset: 0x12BAC, size: 0x8, addend: 0x0, symName: __RINvNtNtCsdGrGZaRBwMb_3syn3gen9visit_mut20visit_type_paren_mutNtNvNtCscj7Jssje0XT_11async_trait6expand35contains_associated_type_impl_trait24AssociatedTypeImplTraitsEB14_, symObjAddr: 0x1D7A0, symBinAddr: 0x1E370, symSize: 0x80 }
  - { offset: 0x12BEE, size: 0x8, addend: 0x0, symName: __RINvNtNtCsdGrGZaRBwMb_3syn3gen9visit_mut20visit_type_slice_mutNtNtCscj7Jssje0XT_11async_trait8lifetime16CollectLifetimesEB12_, symObjAddr: 0x1D820, symBinAddr: 0x1E3F0, symSize: 0x80 }
  - { offset: 0x12C30, size: 0x8, addend: 0x0, symName: __RINvNtNtCsdGrGZaRBwMb_3syn3gen9visit_mut20visit_type_slice_mutNtNtCscj7Jssje0XT_11async_trait8lifetime22AddLifetimeToImplTraitEB12_, symObjAddr: 0x1D8A0, symBinAddr: 0x1E470, symSize: 0x80 }
  - { offset: 0x12C72, size: 0x8, addend: 0x0, symName: __RINvNtNtCsdGrGZaRBwMb_3syn3gen9visit_mut20visit_type_slice_mutNtNtCscj7Jssje0XT_11async_trait8receiver11ReplaceSelfEB12_, symObjAddr: 0x1D920, symBinAddr: 0x1E4F0, symSize: 0x80 }
  - { offset: 0x12CB4, size: 0x8, addend: 0x0, symName: __RINvNtNtCsdGrGZaRBwMb_3syn3gen9visit_mut20visit_type_slice_mutNtNtCscj7Jssje0XT_11async_trait8receiver7HasSelfEB12_, symObjAddr: 0x1D9A0, symBinAddr: 0x1E570, symSize: 0x80 }
  - { offset: 0x12CF6, size: 0x8, addend: 0x0, symName: __RINvNtNtCsdGrGZaRBwMb_3syn3gen9visit_mut20visit_type_slice_mutNtNtCscj7Jssje0XT_11async_trait8receiver9HasMutPatEB12_, symObjAddr: 0x1DA20, symBinAddr: 0x1E5F0, symSize: 0x80 }
  - { offset: 0x12D38, size: 0x8, addend: 0x0, symName: __RINvNtNtCsdGrGZaRBwMb_3syn3gen9visit_mut20visit_type_slice_mutNtNvNtCscj7Jssje0XT_11async_trait6expand29replace_impl_trait_with_infer25ReplaceImplTraitWithInferEB14_, symObjAddr: 0x1DAA0, symBinAddr: 0x1E670, symSize: 0x80 }
  - { offset: 0x12D7A, size: 0x8, addend: 0x0, symName: __RINvNtNtCsdGrGZaRBwMb_3syn3gen9visit_mut20visit_type_slice_mutNtNvNtCscj7Jssje0XT_11async_trait6expand35contains_associated_type_impl_trait24AssociatedTypeImplTraitsEB14_, symObjAddr: 0x1DB20, symBinAddr: 0x1E6F0, symSize: 0x80 }
  - { offset: 0x12DBC, size: 0x8, addend: 0x0, symName: __RINvNtNtCsdGrGZaRBwMb_3syn3gen9visit_mut20visit_type_tuple_mutNtNtCscj7Jssje0XT_11async_trait8lifetime16CollectLifetimesEB12_, symObjAddr: 0x1DBA0, symBinAddr: 0x1E770, symSize: 0xB0 }
  - { offset: 0x12E59, size: 0x8, addend: 0x0, symName: __RINvNtNtCsdGrGZaRBwMb_3syn3gen9visit_mut20visit_type_tuple_mutNtNtCscj7Jssje0XT_11async_trait8lifetime22AddLifetimeToImplTraitEB12_, symObjAddr: 0x1DC50, symBinAddr: 0x1E820, symSize: 0xB0 }
  - { offset: 0x12EF6, size: 0x8, addend: 0x0, symName: __RINvNtNtCsdGrGZaRBwMb_3syn3gen9visit_mut20visit_type_tuple_mutNtNtCscj7Jssje0XT_11async_trait8receiver11ReplaceSelfEB12_, symObjAddr: 0x1DD00, symBinAddr: 0x1E8D0, symSize: 0xB0 }
  - { offset: 0x12F93, size: 0x8, addend: 0x0, symName: __RINvNtNtCsdGrGZaRBwMb_3syn3gen9visit_mut20visit_type_tuple_mutNtNtCscj7Jssje0XT_11async_trait8receiver7HasSelfEB12_, symObjAddr: 0x1DDB0, symBinAddr: 0x1E980, symSize: 0xB0 }
  - { offset: 0x13030, size: 0x8, addend: 0x0, symName: __RINvNtNtCsdGrGZaRBwMb_3syn3gen9visit_mut20visit_type_tuple_mutNtNtCscj7Jssje0XT_11async_trait8receiver9HasMutPatEB12_, symObjAddr: 0x1DE60, symBinAddr: 0x1EA30, symSize: 0xB0 }
  - { offset: 0x130CD, size: 0x8, addend: 0x0, symName: __RINvNtNtCsdGrGZaRBwMb_3syn3gen9visit_mut20visit_type_tuple_mutNtNvNtCscj7Jssje0XT_11async_trait6expand29replace_impl_trait_with_infer25ReplaceImplTraitWithInferEB14_, symObjAddr: 0x1DF10, symBinAddr: 0x1EAE0, symSize: 0xB0 }
  - { offset: 0x1316A, size: 0x8, addend: 0x0, symName: __RINvNtNtCsdGrGZaRBwMb_3syn3gen9visit_mut20visit_type_tuple_mutNtNvNtCscj7Jssje0XT_11async_trait6expand35contains_associated_type_impl_trait24AssociatedTypeImplTraitsEB14_, symObjAddr: 0x1DFC0, symBinAddr: 0x1EB90, symSize: 0xB0 }
  - { offset: 0x13207, size: 0x8, addend: 0x0, symName: __RINvNtNtCsdGrGZaRBwMb_3syn3gen9visit_mut20visit_use_rename_mutNtNtCscj7Jssje0XT_11async_trait8lifetime16CollectLifetimesEB12_, symObjAddr: 0x1E070, symBinAddr: 0x1EC40, symSize: 0x40 }
  - { offset: 0x13249, size: 0x8, addend: 0x0, symName: __RINvNtNtCsdGrGZaRBwMb_3syn3gen9visit_mut20visit_use_rename_mutNtNtCscj7Jssje0XT_11async_trait8receiver9HasMutPatEB12_, symObjAddr: 0x1E0B0, symBinAddr: 0x1EC80, symSize: 0x40 }
  - { offset: 0x1328B, size: 0x8, addend: 0x0, symName: __RINvNtNtCsdGrGZaRBwMb_3syn3gen9visit_mut20visit_use_rename_mutNtNvNtCscj7Jssje0XT_11async_trait6expand29replace_impl_trait_with_infer25ReplaceImplTraitWithInferEB14_, symObjAddr: 0x1E0F0, symBinAddr: 0x1ECC0, symSize: 0x40 }
  - { offset: 0x132CD, size: 0x8, addend: 0x0, symName: __RINvNtNtCsdGrGZaRBwMb_3syn3gen9visit_mut20visit_use_rename_mutNtNvNtCscj7Jssje0XT_11async_trait6expand35contains_associated_type_impl_trait24AssociatedTypeImplTraitsEB14_, symObjAddr: 0x1E130, symBinAddr: 0x1ED00, symSize: 0x40 }
  - { offset: 0x1330F, size: 0x8, addend: 0x0, symName: __RINvNtNtCsdGrGZaRBwMb_3syn3gen9visit_mut20visit_visibility_mutNtNtCscj7Jssje0XT_11async_trait8lifetime16CollectLifetimesEB12_, symObjAddr: 0x1E170, symBinAddr: 0x1ED40, symSize: 0x90 }
  - { offset: 0x1336F, size: 0x8, addend: 0x0, symName: __RINvNtNtCsdGrGZaRBwMb_3syn3gen9visit_mut20visit_visibility_mutNtNtCscj7Jssje0XT_11async_trait8receiver9HasMutPatEB12_, symObjAddr: 0x1E200, symBinAddr: 0x1EDD0, symSize: 0x90 }
  - { offset: 0x133CF, size: 0x8, addend: 0x0, symName: __RINvNtNtCsdGrGZaRBwMb_3syn3gen9visit_mut20visit_visibility_mutNtNvNtCscj7Jssje0XT_11async_trait6expand29replace_impl_trait_with_infer25ReplaceImplTraitWithInferEB14_, symObjAddr: 0x1E290, symBinAddr: 0x1EE60, symSize: 0x90 }
  - { offset: 0x1342F, size: 0x8, addend: 0x0, symName: __RINvNtNtCsdGrGZaRBwMb_3syn3gen9visit_mut20visit_visibility_mutNtNvNtCscj7Jssje0XT_11async_trait6expand35contains_associated_type_impl_trait24AssociatedTypeImplTraitsEB14_, symObjAddr: 0x1E320, symBinAddr: 0x1EEF0, symSize: 0x90 }
  - { offset: 0x1348F, size: 0x8, addend: 0x0, symName: __RINvNtNtCsdGrGZaRBwMb_3syn3gen9visit_mut21visit_assoc_const_mutNtNtCscj7Jssje0XT_11async_trait8lifetime16CollectLifetimesEB13_, symObjAddr: 0x1E3B0, symBinAddr: 0x1EF80, symSize: 0x90 }
  - { offset: 0x134EF, size: 0x8, addend: 0x0, symName: __RINvNtNtCsdGrGZaRBwMb_3syn3gen9visit_mut21visit_assoc_const_mutNtNtCscj7Jssje0XT_11async_trait8lifetime22AddLifetimeToImplTraitEB13_, symObjAddr: 0x1E440, symBinAddr: 0x1F010, symSize: 0x90 }
  - { offset: 0x1354F, size: 0x8, addend: 0x0, symName: __RINvNtNtCsdGrGZaRBwMb_3syn3gen9visit_mut21visit_assoc_const_mutNtNtCscj7Jssje0XT_11async_trait8receiver11ReplaceSelfEB13_, symObjAddr: 0x1E4D0, symBinAddr: 0x1F0A0, symSize: 0x90 }
  - { offset: 0x135AF, size: 0x8, addend: 0x0, symName: __RINvNtNtCsdGrGZaRBwMb_3syn3gen9visit_mut21visit_assoc_const_mutNtNtCscj7Jssje0XT_11async_trait8receiver7HasSelfEB13_, symObjAddr: 0x1E560, symBinAddr: 0x1F130, symSize: 0x90 }
  - { offset: 0x1360F, size: 0x8, addend: 0x0, symName: __RINvNtNtCsdGrGZaRBwMb_3syn3gen9visit_mut21visit_assoc_const_mutNtNtCscj7Jssje0XT_11async_trait8receiver9HasMutPatEB13_, symObjAddr: 0x1E5F0, symBinAddr: 0x1F1C0, symSize: 0x90 }
  - { offset: 0x1366F, size: 0x8, addend: 0x0, symName: __RINvNtNtCsdGrGZaRBwMb_3syn3gen9visit_mut21visit_assoc_const_mutNtNvNtCscj7Jssje0XT_11async_trait6expand29replace_impl_trait_with_infer25ReplaceImplTraitWithInferEB15_, symObjAddr: 0x1E680, symBinAddr: 0x1F250, symSize: 0x90 }
  - { offset: 0x136CF, size: 0x8, addend: 0x0, symName: __RINvNtNtCsdGrGZaRBwMb_3syn3gen9visit_mut21visit_assoc_const_mutNtNvNtCscj7Jssje0XT_11async_trait6expand35contains_associated_type_impl_trait24AssociatedTypeImplTraitsEB15_, symObjAddr: 0x1E710, symBinAddr: 0x1F2E0, symSize: 0x90 }
  - { offset: 0x1372F, size: 0x8, addend: 0x0, symName: __RINvNtNtCsdGrGZaRBwMb_3syn3gen9visit_mut21visit_bare_fn_arg_mutNtNtCscj7Jssje0XT_11async_trait8lifetime16CollectLifetimesEB13_, symObjAddr: 0x1E7A0, symBinAddr: 0x1F370, symSize: 0x90 }
  - { offset: 0x1378F, size: 0x8, addend: 0x0, symName: __RINvNtNtCsdGrGZaRBwMb_3syn3gen9visit_mut21visit_bare_fn_arg_mutNtNtCscj7Jssje0XT_11async_trait8lifetime22AddLifetimeToImplTraitEB13_, symObjAddr: 0x1E830, symBinAddr: 0x1F400, symSize: 0x90 }
  - { offset: 0x137EF, size: 0x8, addend: 0x0, symName: __RINvNtNtCsdGrGZaRBwMb_3syn3gen9visit_mut21visit_bare_fn_arg_mutNtNtCscj7Jssje0XT_11async_trait8receiver11ReplaceSelfEB13_, symObjAddr: 0x1E8C0, symBinAddr: 0x1F490, symSize: 0x90 }
  - { offset: 0x1384F, size: 0x8, addend: 0x0, symName: __RINvNtNtCsdGrGZaRBwMb_3syn3gen9visit_mut21visit_bare_fn_arg_mutNtNtCscj7Jssje0XT_11async_trait8receiver7HasSelfEB13_, symObjAddr: 0x1E950, symBinAddr: 0x1F520, symSize: 0x90 }
  - { offset: 0x138AF, size: 0x8, addend: 0x0, symName: __RINvNtNtCsdGrGZaRBwMb_3syn3gen9visit_mut21visit_bare_fn_arg_mutNtNtCscj7Jssje0XT_11async_trait8receiver9HasMutPatEB13_, symObjAddr: 0x1E9E0, symBinAddr: 0x1F5B0, symSize: 0x90 }
  - { offset: 0x1390F, size: 0x8, addend: 0x0, symName: __RINvNtNtCsdGrGZaRBwMb_3syn3gen9visit_mut21visit_bare_fn_arg_mutNtNvNtCscj7Jssje0XT_11async_trait6expand29replace_impl_trait_with_infer25ReplaceImplTraitWithInferEB15_, symObjAddr: 0x1EA70, symBinAddr: 0x1F640, symSize: 0x90 }
  - { offset: 0x1396F, size: 0x8, addend: 0x0, symName: __RINvNtNtCsdGrGZaRBwMb_3syn3gen9visit_mut21visit_bare_fn_arg_mutNtNvNtCscj7Jssje0XT_11async_trait6expand35contains_associated_type_impl_trait24AssociatedTypeImplTraitsEB15_, symObjAddr: 0x1EB00, symBinAddr: 0x1F6D0, symSize: 0x90 }
  - { offset: 0x139CF, size: 0x8, addend: 0x0, symName: __RINvNtNtCsdGrGZaRBwMb_3syn3gen9visit_mut21visit_const_param_mutNtNtCscj7Jssje0XT_11async_trait8lifetime16CollectLifetimesEB13_, symObjAddr: 0x1EB90, symBinAddr: 0x1F760, symSize: 0xA0 }
  - { offset: 0x13A2F, size: 0x8, addend: 0x0, symName: __RINvNtNtCsdGrGZaRBwMb_3syn3gen9visit_mut21visit_const_param_mutNtNtCscj7Jssje0XT_11async_trait8lifetime22AddLifetimeToImplTraitEB13_, symObjAddr: 0x1EC30, symBinAddr: 0x1F800, symSize: 0xA0 }
  - { offset: 0x13A8F, size: 0x8, addend: 0x0, symName: __RINvNtNtCsdGrGZaRBwMb_3syn3gen9visit_mut21visit_const_param_mutNtNtCscj7Jssje0XT_11async_trait8receiver11ReplaceSelfEB13_, symObjAddr: 0x1ECD0, symBinAddr: 0x1F8A0, symSize: 0xA0 }
  - { offset: 0x13AEF, size: 0x8, addend: 0x0, symName: __RINvNtNtCsdGrGZaRBwMb_3syn3gen9visit_mut21visit_const_param_mutNtNtCscj7Jssje0XT_11async_trait8receiver7HasSelfEB13_, symObjAddr: 0x1ED70, symBinAddr: 0x1F940, symSize: 0xA0 }
  - { offset: 0x13B4F, size: 0x8, addend: 0x0, symName: __RINvNtNtCsdGrGZaRBwMb_3syn3gen9visit_mut21visit_const_param_mutNtNtCscj7Jssje0XT_11async_trait8receiver9HasMutPatEB13_, symObjAddr: 0x1EE10, symBinAddr: 0x1F9E0, symSize: 0xA0 }
  - { offset: 0x13BAF, size: 0x8, addend: 0x0, symName: __RINvNtNtCsdGrGZaRBwMb_3syn3gen9visit_mut21visit_const_param_mutNtNvNtCscj7Jssje0XT_11async_trait6expand29replace_impl_trait_with_infer25ReplaceImplTraitWithInferEB15_, symObjAddr: 0x1EEB0, symBinAddr: 0x1FA80, symSize: 0xA0 }
  - { offset: 0x13C0F, size: 0x8, addend: 0x0, symName: __RINvNtNtCsdGrGZaRBwMb_3syn3gen9visit_mut21visit_const_param_mutNtNvNtCscj7Jssje0XT_11async_trait6expand35contains_associated_type_impl_trait24AssociatedTypeImplTraitsEB15_, symObjAddr: 0x1EF50, symBinAddr: 0x1FB20, symSize: 0xA0 }
  - { offset: 0x13C6F, size: 0x8, addend: 0x0, symName: __RINvNtNtCsdGrGZaRBwMb_3syn3gen9visit_mut21visit_expr_assign_mutNtNtCscj7Jssje0XT_11async_trait8lifetime16CollectLifetimesEB13_, symObjAddr: 0x1EFF0, symBinAddr: 0x1FBC0, symSize: 0xE0 }
  - { offset: 0x13CB1, size: 0x8, addend: 0x0, symName: __RINvNtNtCsdGrGZaRBwMb_3syn3gen9visit_mut21visit_expr_assign_mutNtNtCscj7Jssje0XT_11async_trait8receiver11ReplaceSelfEB13_, symObjAddr: 0x1F0D0, symBinAddr: 0x1FCA0, symSize: 0xE0 }
  - { offset: 0x13CF3, size: 0x8, addend: 0x0, symName: __RINvNtNtCsdGrGZaRBwMb_3syn3gen9visit_mut21visit_expr_assign_mutNtNtCscj7Jssje0XT_11async_trait8receiver7HasSelfEB13_, symObjAddr: 0x1F1B0, symBinAddr: 0x1FD80, symSize: 0xE0 }
  - { offset: 0x13D35, size: 0x8, addend: 0x0, symName: __RINvNtNtCsdGrGZaRBwMb_3syn3gen9visit_mut21visit_expr_assign_mutNtNtCscj7Jssje0XT_11async_trait8receiver9HasMutPatEB13_, symObjAddr: 0x1F290, symBinAddr: 0x1FE60, symSize: 0xE0 }
  - { offset: 0x13D77, size: 0x8, addend: 0x0, symName: __RINvNtNtCsdGrGZaRBwMb_3syn3gen9visit_mut21visit_expr_assign_mutNtNvNtCscj7Jssje0XT_11async_trait6expand29replace_impl_trait_with_infer25ReplaceImplTraitWithInferEB15_, symObjAddr: 0x1F370, symBinAddr: 0x1FF40, symSize: 0xE0 }
  - { offset: 0x13DB9, size: 0x8, addend: 0x0, symName: __RINvNtNtCsdGrGZaRBwMb_3syn3gen9visit_mut21visit_expr_assign_mutNtNvNtCscj7Jssje0XT_11async_trait6expand35contains_associated_type_impl_trait24AssociatedTypeImplTraitsEB15_, symObjAddr: 0x1F450, symBinAddr: 0x20020, symSize: 0xE0 }
  - { offset: 0x13DFB, size: 0x8, addend: 0x0, symName: __RINvNtNtCsdGrGZaRBwMb_3syn3gen9visit_mut21visit_expr_binary_mutNtNtCscj7Jssje0XT_11async_trait8lifetime16CollectLifetimesEB13_, symObjAddr: 0x1F530, symBinAddr: 0x20100, symSize: 0xF0 }
  - { offset: 0x13E3D, size: 0x8, addend: 0x0, symName: __RINvNtNtCsdGrGZaRBwMb_3syn3gen9visit_mut21visit_expr_binary_mutNtNtCscj7Jssje0XT_11async_trait8receiver11ReplaceSelfEB13_, symObjAddr: 0x1F620, symBinAddr: 0x201F0, symSize: 0xF0 }
  - { offset: 0x13E7F, size: 0x8, addend: 0x0, symName: __RINvNtNtCsdGrGZaRBwMb_3syn3gen9visit_mut21visit_expr_binary_mutNtNtCscj7Jssje0XT_11async_trait8receiver7HasSelfEB13_, symObjAddr: 0x1F710, symBinAddr: 0x202E0, symSize: 0xF0 }
  - { offset: 0x13EC1, size: 0x8, addend: 0x0, symName: __RINvNtNtCsdGrGZaRBwMb_3syn3gen9visit_mut21visit_expr_binary_mutNtNtCscj7Jssje0XT_11async_trait8receiver9HasMutPatEB13_, symObjAddr: 0x1F800, symBinAddr: 0x203D0, symSize: 0xF0 }
  - { offset: 0x13F03, size: 0x8, addend: 0x0, symName: __RINvNtNtCsdGrGZaRBwMb_3syn3gen9visit_mut21visit_expr_binary_mutNtNvNtCscj7Jssje0XT_11async_trait6expand29replace_impl_trait_with_infer25ReplaceImplTraitWithInferEB15_, symObjAddr: 0x1F8F0, symBinAddr: 0x204C0, symSize: 0xF0 }
  - { offset: 0x13F45, size: 0x8, addend: 0x0, symName: __RINvNtNtCsdGrGZaRBwMb_3syn3gen9visit_mut21visit_expr_binary_mutNtNvNtCscj7Jssje0XT_11async_trait6expand35contains_associated_type_impl_trait24AssociatedTypeImplTraitsEB15_, symObjAddr: 0x1F9E0, symBinAddr: 0x205B0, symSize: 0xF0 }
  - { offset: 0x13F87, size: 0x8, addend: 0x0, symName: __RINvNtNtCsdGrGZaRBwMb_3syn3gen9visit_mut21visit_expr_repeat_mutNtNtCscj7Jssje0XT_11async_trait8lifetime16CollectLifetimesEB13_, symObjAddr: 0x1FAD0, symBinAddr: 0x206A0, symSize: 0xE0 }
  - { offset: 0x13FC9, size: 0x8, addend: 0x0, symName: __RINvNtNtCsdGrGZaRBwMb_3syn3gen9visit_mut21visit_expr_repeat_mutNtNtCscj7Jssje0XT_11async_trait8receiver11ReplaceSelfEB13_, symObjAddr: 0x1FBB0, symBinAddr: 0x20780, symSize: 0xE0 }
  - { offset: 0x1400B, size: 0x8, addend: 0x0, symName: __RINvNtNtCsdGrGZaRBwMb_3syn3gen9visit_mut21visit_expr_repeat_mutNtNtCscj7Jssje0XT_11async_trait8receiver7HasSelfEB13_, symObjAddr: 0x1FC90, symBinAddr: 0x20860, symSize: 0xE0 }
  - { offset: 0x1404D, size: 0x8, addend: 0x0, symName: __RINvNtNtCsdGrGZaRBwMb_3syn3gen9visit_mut21visit_expr_repeat_mutNtNtCscj7Jssje0XT_11async_trait8receiver9HasMutPatEB13_, symObjAddr: 0x1FD70, symBinAddr: 0x20940, symSize: 0xE0 }
  - { offset: 0x1408F, size: 0x8, addend: 0x0, symName: __RINvNtNtCsdGrGZaRBwMb_3syn3gen9visit_mut21visit_expr_repeat_mutNtNvNtCscj7Jssje0XT_11async_trait6expand29replace_impl_trait_with_infer25ReplaceImplTraitWithInferEB15_, symObjAddr: 0x1FE50, symBinAddr: 0x20A20, symSize: 0xE0 }
  - { offset: 0x140D1, size: 0x8, addend: 0x0, symName: __RINvNtNtCsdGrGZaRBwMb_3syn3gen9visit_mut21visit_expr_repeat_mutNtNvNtCscj7Jssje0XT_11async_trait6expand35contains_associated_type_impl_trait24AssociatedTypeImplTraitsEB15_, symObjAddr: 0x1FF30, symBinAddr: 0x20B00, symSize: 0xE0 }
  - { offset: 0x14113, size: 0x8, addend: 0x0, symName: __RINvNtNtCsdGrGZaRBwMb_3syn3gen9visit_mut21visit_expr_return_mutNtNtCscj7Jssje0XT_11async_trait8lifetime16CollectLifetimesEB13_, symObjAddr: 0x20010, symBinAddr: 0x20BE0, symSize: 0xC0 }
  - { offset: 0x1416B, size: 0x8, addend: 0x0, symName: __RINvNtNtCsdGrGZaRBwMb_3syn3gen9visit_mut21visit_expr_return_mutNtNtCscj7Jssje0XT_11async_trait8receiver11ReplaceSelfEB13_, symObjAddr: 0x200D0, symBinAddr: 0x20CA0, symSize: 0xC0 }
  - { offset: 0x141C3, size: 0x8, addend: 0x0, symName: __RINvNtNtCsdGrGZaRBwMb_3syn3gen9visit_mut21visit_expr_return_mutNtNtCscj7Jssje0XT_11async_trait8receiver7HasSelfEB13_, symObjAddr: 0x20190, symBinAddr: 0x20D60, symSize: 0xC0 }
  - { offset: 0x1421B, size: 0x8, addend: 0x0, symName: __RINvNtNtCsdGrGZaRBwMb_3syn3gen9visit_mut21visit_expr_return_mutNtNtCscj7Jssje0XT_11async_trait8receiver9HasMutPatEB13_, symObjAddr: 0x20250, symBinAddr: 0x20E20, symSize: 0xC0 }
  - { offset: 0x14273, size: 0x8, addend: 0x0, symName: __RINvNtNtCsdGrGZaRBwMb_3syn3gen9visit_mut21visit_expr_return_mutNtNvNtCscj7Jssje0XT_11async_trait6expand29replace_impl_trait_with_infer25ReplaceImplTraitWithInferEB15_, symObjAddr: 0x20310, symBinAddr: 0x20EE0, symSize: 0xC0 }
  - { offset: 0x142CB, size: 0x8, addend: 0x0, symName: __RINvNtNtCsdGrGZaRBwMb_3syn3gen9visit_mut21visit_expr_return_mutNtNvNtCscj7Jssje0XT_11async_trait6expand35contains_associated_type_impl_trait24AssociatedTypeImplTraitsEB15_, symObjAddr: 0x203D0, symBinAddr: 0x20FA0, symSize: 0xC0 }
  - { offset: 0x14323, size: 0x8, addend: 0x0, symName: __RINvNtNtCsdGrGZaRBwMb_3syn3gen9visit_mut21visit_expr_struct_mutNtNtCscj7Jssje0XT_11async_trait8lifetime16CollectLifetimesEB13_, symObjAddr: 0x20490, symBinAddr: 0x21060, symSize: 0x1E0 }
  - { offset: 0x143F4, size: 0x8, addend: 0x0, symName: __RINvNtNtCsdGrGZaRBwMb_3syn3gen9visit_mut21visit_expr_struct_mutNtNtCscj7Jssje0XT_11async_trait8receiver11ReplaceSelfEB13_, symObjAddr: 0x20670, symBinAddr: 0x21240, symSize: 0x1E0 }
  - { offset: 0x144C5, size: 0x8, addend: 0x0, symName: __RINvNtNtCsdGrGZaRBwMb_3syn3gen9visit_mut21visit_expr_struct_mutNtNtCscj7Jssje0XT_11async_trait8receiver7HasSelfEB13_, symObjAddr: 0x20850, symBinAddr: 0x21420, symSize: 0x1E0 }
  - { offset: 0x14596, size: 0x8, addend: 0x0, symName: __RINvNtNtCsdGrGZaRBwMb_3syn3gen9visit_mut21visit_expr_struct_mutNtNtCscj7Jssje0XT_11async_trait8receiver9HasMutPatEB13_, symObjAddr: 0x20A30, symBinAddr: 0x21600, symSize: 0x1E0 }
  - { offset: 0x14667, size: 0x8, addend: 0x0, symName: __RINvNtNtCsdGrGZaRBwMb_3syn3gen9visit_mut21visit_expr_struct_mutNtNvNtCscj7Jssje0XT_11async_trait6expand29replace_impl_trait_with_infer25ReplaceImplTraitWithInferEB15_, symObjAddr: 0x20C10, symBinAddr: 0x217E0, symSize: 0x1E0 }
  - { offset: 0x14738, size: 0x8, addend: 0x0, symName: __RINvNtNtCsdGrGZaRBwMb_3syn3gen9visit_mut21visit_expr_struct_mutNtNvNtCscj7Jssje0XT_11async_trait6expand35contains_associated_type_impl_trait24AssociatedTypeImplTraitsEB15_, symObjAddr: 0x20DF0, symBinAddr: 0x219C0, symSize: 0x1E0 }
  - { offset: 0x14809, size: 0x8, addend: 0x0, symName: __RINvNtNtCsdGrGZaRBwMb_3syn3gen9visit_mut21visit_expr_unsafe_mutNtNtCscj7Jssje0XT_11async_trait8lifetime16CollectLifetimesEB13_, symObjAddr: 0x20FD0, symBinAddr: 0x21BA0, symSize: 0x40 }
  - { offset: 0x1484B, size: 0x8, addend: 0x0, symName: __RINvNtNtCsdGrGZaRBwMb_3syn3gen9visit_mut21visit_expr_unsafe_mutNtNtCscj7Jssje0XT_11async_trait8receiver11ReplaceSelfEB13_, symObjAddr: 0x21010, symBinAddr: 0x21BE0, symSize: 0x40 }
  - { offset: 0x1488D, size: 0x8, addend: 0x0, symName: __RINvNtNtCsdGrGZaRBwMb_3syn3gen9visit_mut21visit_expr_unsafe_mutNtNtCscj7Jssje0XT_11async_trait8receiver7HasSelfEB13_, symObjAddr: 0x21050, symBinAddr: 0x21C20, symSize: 0x40 }
  - { offset: 0x148CF, size: 0x8, addend: 0x0, symName: __RINvNtNtCsdGrGZaRBwMb_3syn3gen9visit_mut21visit_expr_unsafe_mutNtNtCscj7Jssje0XT_11async_trait8receiver9HasMutPatEB13_, symObjAddr: 0x21090, symBinAddr: 0x21C60, symSize: 0x40 }
  - { offset: 0x14911, size: 0x8, addend: 0x0, symName: __RINvNtNtCsdGrGZaRBwMb_3syn3gen9visit_mut21visit_expr_unsafe_mutNtNvNtCscj7Jssje0XT_11async_trait6expand29replace_impl_trait_with_infer25ReplaceImplTraitWithInferEB15_, symObjAddr: 0x210D0, symBinAddr: 0x21CA0, symSize: 0x40 }
  - { offset: 0x14953, size: 0x8, addend: 0x0, symName: __RINvNtNtCsdGrGZaRBwMb_3syn3gen9visit_mut21visit_expr_unsafe_mutNtNvNtCscj7Jssje0XT_11async_trait6expand35contains_associated_type_impl_trait24AssociatedTypeImplTraitsEB15_, symObjAddr: 0x21110, symBinAddr: 0x21CE0, symSize: 0x40 }
  - { offset: 0x14995, size: 0x8, addend: 0x0, symName: __RINvNtNtCsdGrGZaRBwMb_3syn3gen9visit_mut21visit_field_value_mutNtNtCscj7Jssje0XT_11async_trait8lifetime16CollectLifetimesEB13_, symObjAddr: 0x21150, symBinAddr: 0x21D20, symSize: 0x60 }
  - { offset: 0x149D7, size: 0x8, addend: 0x0, symName: __RINvNtNtCsdGrGZaRBwMb_3syn3gen9visit_mut21visit_field_value_mutNtNtCscj7Jssje0XT_11async_trait8receiver11ReplaceSelfEB13_, symObjAddr: 0x211B0, symBinAddr: 0x21D80, symSize: 0x60 }
  - { offset: 0x14A19, size: 0x8, addend: 0x0, symName: __RINvNtNtCsdGrGZaRBwMb_3syn3gen9visit_mut21visit_field_value_mutNtNtCscj7Jssje0XT_11async_trait8receiver7HasSelfEB13_, symObjAddr: 0x21210, symBinAddr: 0x21DE0, symSize: 0x60 }
  - { offset: 0x14A5B, size: 0x8, addend: 0x0, symName: __RINvNtNtCsdGrGZaRBwMb_3syn3gen9visit_mut21visit_field_value_mutNtNtCscj7Jssje0XT_11async_trait8receiver9HasMutPatEB13_, symObjAddr: 0x21270, symBinAddr: 0x21E40, symSize: 0x60 }
  - { offset: 0x14A9D, size: 0x8, addend: 0x0, symName: __RINvNtNtCsdGrGZaRBwMb_3syn3gen9visit_mut21visit_field_value_mutNtNvNtCscj7Jssje0XT_11async_trait6expand29replace_impl_trait_with_infer25ReplaceImplTraitWithInferEB15_, symObjAddr: 0x212D0, symBinAddr: 0x21EA0, symSize: 0x60 }
  - { offset: 0x14ADF, size: 0x8, addend: 0x0, symName: __RINvNtNtCsdGrGZaRBwMb_3syn3gen9visit_mut21visit_field_value_mutNtNvNtCscj7Jssje0XT_11async_trait6expand35contains_associated_type_impl_trait24AssociatedTypeImplTraitsEB15_, symObjAddr: 0x21330, symBinAddr: 0x21F00, symSize: 0x60 }
  - { offset: 0x14B21, size: 0x8, addend: 0x0, symName: __RINvNtNtCsdGrGZaRBwMb_3syn3gen9visit_mut21visit_item_static_mutNtNtCscj7Jssje0XT_11async_trait8lifetime16CollectLifetimesEB13_, symObjAddr: 0x21390, symBinAddr: 0x21F60, symSize: 0x120 }
  - { offset: 0x14B63, size: 0x8, addend: 0x0, symName: __RINvNtNtCsdGrGZaRBwMb_3syn3gen9visit_mut21visit_item_static_mutNtNtCscj7Jssje0XT_11async_trait8receiver9HasMutPatEB13_, symObjAddr: 0x214B0, symBinAddr: 0x22080, symSize: 0x120 }
  - { offset: 0x14BA5, size: 0x8, addend: 0x0, symName: __RINvNtNtCsdGrGZaRBwMb_3syn3gen9visit_mut21visit_item_static_mutNtNvNtCscj7Jssje0XT_11async_trait6expand29replace_impl_trait_with_infer25ReplaceImplTraitWithInferEB15_, symObjAddr: 0x215D0, symBinAddr: 0x221A0, symSize: 0x120 }
  - { offset: 0x14BE7, size: 0x8, addend: 0x0, symName: __RINvNtNtCsdGrGZaRBwMb_3syn3gen9visit_mut21visit_item_static_mutNtNvNtCscj7Jssje0XT_11async_trait6expand35contains_associated_type_impl_trait24AssociatedTypeImplTraitsEB15_, symObjAddr: 0x216F0, symBinAddr: 0x222C0, symSize: 0x120 }
  - { offset: 0x14C29, size: 0x8, addend: 0x0, symName: __RINvNtNtCsdGrGZaRBwMb_3syn3gen9visit_mut21visit_item_struct_mutNtNtCscj7Jssje0XT_11async_trait8lifetime16CollectLifetimesEB13_, symObjAddr: 0x21810, symBinAddr: 0x223E0, symSize: 0x80 }
  - { offset: 0x14C6B, size: 0x8, addend: 0x0, symName: __RINvNtNtCsdGrGZaRBwMb_3syn3gen9visit_mut21visit_item_struct_mutNtNtCscj7Jssje0XT_11async_trait8receiver9HasMutPatEB13_, symObjAddr: 0x21890, symBinAddr: 0x22460, symSize: 0x80 }
  - { offset: 0x14CAD, size: 0x8, addend: 0x0, symName: __RINvNtNtCsdGrGZaRBwMb_3syn3gen9visit_mut21visit_item_struct_mutNtNvNtCscj7Jssje0XT_11async_trait6expand29replace_impl_trait_with_infer25ReplaceImplTraitWithInferEB15_, symObjAddr: 0x21910, symBinAddr: 0x224E0, symSize: 0x80 }
  - { offset: 0x14CEF, size: 0x8, addend: 0x0, symName: __RINvNtNtCsdGrGZaRBwMb_3syn3gen9visit_mut21visit_item_struct_mutNtNvNtCscj7Jssje0XT_11async_trait6expand35contains_associated_type_impl_trait24AssociatedTypeImplTraitsEB15_, symObjAddr: 0x21990, symBinAddr: 0x22560, symSize: 0x80 }
  - { offset: 0x14D31, size: 0x8, addend: 0x0, symName: __RINvNtNtCsdGrGZaRBwMb_3syn3gen9visit_mut21visit_return_type_mutNtNtCscj7Jssje0XT_11async_trait8lifetime16CollectLifetimesEB13_, symObjAddr: 0x21A10, symBinAddr: 0x225E0, symSize: 0xC0 }
  - { offset: 0x14D99, size: 0x8, addend: 0x0, symName: __RINvNtNtCsdGrGZaRBwMb_3syn3gen9visit_mut21visit_return_type_mutNtNtCscj7Jssje0XT_11async_trait8lifetime22AddLifetimeToImplTraitEB13_, symObjAddr: 0x21AD0, symBinAddr: 0x226A0, symSize: 0xC0 }
  - { offset: 0x14E01, size: 0x8, addend: 0x0, symName: __RINvNtNtCsdGrGZaRBwMb_3syn3gen9visit_mut21visit_return_type_mutNtNtCscj7Jssje0XT_11async_trait8receiver11ReplaceSelfEB13_, symObjAddr: 0x21B90, symBinAddr: 0x22760, symSize: 0xC0 }
  - { offset: 0x14E69, size: 0x8, addend: 0x0, symName: __RINvNtNtCsdGrGZaRBwMb_3syn3gen9visit_mut21visit_return_type_mutNtNtCscj7Jssje0XT_11async_trait8receiver7HasSelfEB13_, symObjAddr: 0x21C50, symBinAddr: 0x22820, symSize: 0xC0 }
  - { offset: 0x14ED1, size: 0x8, addend: 0x0, symName: __RINvNtNtCsdGrGZaRBwMb_3syn3gen9visit_mut21visit_return_type_mutNtNtCscj7Jssje0XT_11async_trait8receiver9HasMutPatEB13_, symObjAddr: 0x21D10, symBinAddr: 0x228E0, symSize: 0xC0 }
  - { offset: 0x14F39, size: 0x8, addend: 0x0, symName: __RINvNtNtCsdGrGZaRBwMb_3syn3gen9visit_mut21visit_return_type_mutNtNvNtCscj7Jssje0XT_11async_trait6expand29replace_impl_trait_with_infer25ReplaceImplTraitWithInferEB15_, symObjAddr: 0x21DD0, symBinAddr: 0x229A0, symSize: 0xC0 }
  - { offset: 0x14FA1, size: 0x8, addend: 0x0, symName: __RINvNtNtCsdGrGZaRBwMb_3syn3gen9visit_mut21visit_return_type_mutNtNvNtCscj7Jssje0XT_11async_trait6expand35contains_associated_type_impl_trait24AssociatedTypeImplTraitsEB15_, symObjAddr: 0x21E90, symBinAddr: 0x22A60, symSize: 0xC0 }
  - { offset: 0x15009, size: 0x8, addend: 0x0, symName: __RINvNtNtCsdGrGZaRBwMb_3syn3gen9visit_mut21visit_trait_bound_mutNtNtCscj7Jssje0XT_11async_trait8lifetime16CollectLifetimesEB13_, symObjAddr: 0x21F50, symBinAddr: 0x22B20, symSize: 0x90 }
  - { offset: 0x15069, size: 0x8, addend: 0x0, symName: __RINvNtNtCsdGrGZaRBwMb_3syn3gen9visit_mut21visit_trait_bound_mutNtNtCscj7Jssje0XT_11async_trait8lifetime22AddLifetimeToImplTraitEB13_, symObjAddr: 0x21FE0, symBinAddr: 0x22BB0, symSize: 0x90 }
  - { offset: 0x150C9, size: 0x8, addend: 0x0, symName: __RINvNtNtCsdGrGZaRBwMb_3syn3gen9visit_mut21visit_trait_bound_mutNtNtCscj7Jssje0XT_11async_trait8receiver11ReplaceSelfEB13_, symObjAddr: 0x22070, symBinAddr: 0x22C40, symSize: 0x90 }
  - { offset: 0x15129, size: 0x8, addend: 0x0, symName: __RINvNtNtCsdGrGZaRBwMb_3syn3gen9visit_mut21visit_trait_bound_mutNtNtCscj7Jssje0XT_11async_trait8receiver7HasSelfEB13_, symObjAddr: 0x22100, symBinAddr: 0x22CD0, symSize: 0x90 }
  - { offset: 0x15189, size: 0x8, addend: 0x0, symName: __RINvNtNtCsdGrGZaRBwMb_3syn3gen9visit_mut21visit_trait_bound_mutNtNtCscj7Jssje0XT_11async_trait8receiver9HasMutPatEB13_, symObjAddr: 0x22190, symBinAddr: 0x22D60, symSize: 0x90 }
  - { offset: 0x151E9, size: 0x8, addend: 0x0, symName: __RINvNtNtCsdGrGZaRBwMb_3syn3gen9visit_mut21visit_trait_bound_mutNtNvNtCscj7Jssje0XT_11async_trait6expand29replace_impl_trait_with_infer25ReplaceImplTraitWithInferEB15_, symObjAddr: 0x22220, symBinAddr: 0x22DF0, symSize: 0x90 }
  - { offset: 0x15249, size: 0x8, addend: 0x0, symName: __RINvNtNtCsdGrGZaRBwMb_3syn3gen9visit_mut21visit_trait_bound_mutNtNvNtCscj7Jssje0XT_11async_trait6expand35contains_associated_type_impl_trait24AssociatedTypeImplTraitsEB15_, symObjAddr: 0x222B0, symBinAddr: 0x22E80, symSize: 0x90 }
  - { offset: 0x152A9, size: 0x8, addend: 0x0, symName: __RINvNtNtCsdGrGZaRBwMb_3syn3gen9visit_mut22visit_expr_closure_mutNtNtCscj7Jssje0XT_11async_trait8lifetime16CollectLifetimesEB14_, symObjAddr: 0x22340, symBinAddr: 0x22F10, symSize: 0x1B0 }
  - { offset: 0x15364, size: 0x8, addend: 0x0, symName: __RINvNtNtCsdGrGZaRBwMb_3syn3gen9visit_mut22visit_expr_closure_mutNtNtCscj7Jssje0XT_11async_trait8receiver11ReplaceSelfEB14_, symObjAddr: 0x224F0, symBinAddr: 0x230C0, symSize: 0x1B0 }
  - { offset: 0x1541F, size: 0x8, addend: 0x0, symName: __RINvNtNtCsdGrGZaRBwMb_3syn3gen9visit_mut22visit_expr_closure_mutNtNtCscj7Jssje0XT_11async_trait8receiver7HasSelfEB14_, symObjAddr: 0x226A0, symBinAddr: 0x23270, symSize: 0x1B0 }
  - { offset: 0x154DA, size: 0x8, addend: 0x0, symName: __RINvNtNtCsdGrGZaRBwMb_3syn3gen9visit_mut22visit_expr_closure_mutNtNtCscj7Jssje0XT_11async_trait8receiver9HasMutPatEB14_, symObjAddr: 0x22850, symBinAddr: 0x23420, symSize: 0x1B0 }
  - { offset: 0x15595, size: 0x8, addend: 0x0, symName: __RINvNtNtCsdGrGZaRBwMb_3syn3gen9visit_mut22visit_expr_closure_mutNtNvNtCscj7Jssje0XT_11async_trait6expand29replace_impl_trait_with_infer25ReplaceImplTraitWithInferEB16_, symObjAddr: 0x22A00, symBinAddr: 0x235D0, symSize: 0x1B0 }
  - { offset: 0x15650, size: 0x8, addend: 0x0, symName: __RINvNtNtCsdGrGZaRBwMb_3syn3gen9visit_mut22visit_expr_closure_mutNtNvNtCscj7Jssje0XT_11async_trait6expand35contains_associated_type_impl_trait24AssociatedTypeImplTraitsEB16_, symObjAddr: 0x22BB0, symBinAddr: 0x23780, symSize: 0x1B0 }
  - { offset: 0x1570B, size: 0x8, addend: 0x0, symName: __RINvNtNtCsdGrGZaRBwMb_3syn3gen9visit_mut22visit_fields_named_mutNtNtCscj7Jssje0XT_11async_trait8lifetime16CollectLifetimesEB14_, symObjAddr: 0x22D60, symBinAddr: 0x23930, symSize: 0xB0 }
  - { offset: 0x157A8, size: 0x8, addend: 0x0, symName: __RINvNtNtCsdGrGZaRBwMb_3syn3gen9visit_mut22visit_fields_named_mutNtNtCscj7Jssje0XT_11async_trait8receiver9HasMutPatEB14_, symObjAddr: 0x22E10, symBinAddr: 0x239E0, symSize: 0xB0 }
  - { offset: 0x15845, size: 0x8, addend: 0x0, symName: __RINvNtNtCsdGrGZaRBwMb_3syn3gen9visit_mut22visit_fields_named_mutNtNvNtCscj7Jssje0XT_11async_trait6expand29replace_impl_trait_with_infer25ReplaceImplTraitWithInferEB16_, symObjAddr: 0x22EC0, symBinAddr: 0x23A90, symSize: 0xB0 }
  - { offset: 0x158E2, size: 0x8, addend: 0x0, symName: __RINvNtNtCsdGrGZaRBwMb_3syn3gen9visit_mut22visit_fields_named_mutNtNvNtCscj7Jssje0XT_11async_trait6expand35contains_associated_type_impl_trait24AssociatedTypeImplTraitsEB16_, symObjAddr: 0x22F70, symBinAddr: 0x23B40, symSize: 0xB0 }
  - { offset: 0x1597F, size: 0x8, addend: 0x0, symName: __RINvNtNtCsdGrGZaRBwMb_3syn3gen9visit_mut22visit_foreign_item_mutNtNtCscj7Jssje0XT_11async_trait8lifetime16CollectLifetimesEB14_, symObjAddr: 0x23020, symBinAddr: 0x23BF0, symSize: 0x100 }
  - { offset: 0x15A4F, size: 0x8, addend: 0x0, symName: __RINvNtNtCsdGrGZaRBwMb_3syn3gen9visit_mut22visit_foreign_item_mutNtNtCscj7Jssje0XT_11async_trait8receiver9HasMutPatEB14_, symObjAddr: 0x23120, symBinAddr: 0x23CF0, symSize: 0x100 }
  - { offset: 0x15B1F, size: 0x8, addend: 0x0, symName: __RINvNtNtCsdGrGZaRBwMb_3syn3gen9visit_mut22visit_foreign_item_mutNtNvNtCscj7Jssje0XT_11async_trait6expand29replace_impl_trait_with_infer25ReplaceImplTraitWithInferEB16_, symObjAddr: 0x23220, symBinAddr: 0x23DF0, symSize: 0x100 }
  - { offset: 0x15BEF, size: 0x8, addend: 0x0, symName: __RINvNtNtCsdGrGZaRBwMb_3syn3gen9visit_mut22visit_foreign_item_mutNtNvNtCscj7Jssje0XT_11async_trait6expand35contains_associated_type_impl_trait24AssociatedTypeImplTraitsEB16_, symObjAddr: 0x23320, symBinAddr: 0x23EF0, symSize: 0x100 }
  - { offset: 0x15CBF, size: 0x8, addend: 0x0, symName: __RINvNtNtCsdGrGZaRBwMb_3syn3gen9visit_mut22visit_impl_item_fn_mutNtNtCscj7Jssje0XT_11async_trait8lifetime16CollectLifetimesEB14_, symObjAddr: 0x23420, symBinAddr: 0x23FF0, symSize: 0x70 }
  - { offset: 0x15D01, size: 0x8, addend: 0x0, symName: __RINvNtNtCsdGrGZaRBwMb_3syn3gen9visit_mut22visit_impl_item_fn_mutNtNtCscj7Jssje0XT_11async_trait8receiver9HasMutPatEB14_, symObjAddr: 0x23490, symBinAddr: 0x24060, symSize: 0x70 }
  - { offset: 0x15D43, size: 0x8, addend: 0x0, symName: __RINvNtNtCsdGrGZaRBwMb_3syn3gen9visit_mut22visit_impl_item_fn_mutNtNvNtCscj7Jssje0XT_11async_trait6expand29replace_impl_trait_with_infer25ReplaceImplTraitWithInferEB16_, symObjAddr: 0x23500, symBinAddr: 0x240D0, symSize: 0x70 }
  - { offset: 0x15D85, size: 0x8, addend: 0x0, symName: __RINvNtNtCsdGrGZaRBwMb_3syn3gen9visit_mut22visit_impl_item_fn_mutNtNvNtCscj7Jssje0XT_11async_trait6expand35contains_associated_type_impl_trait24AssociatedTypeImplTraitsEB16_, symObjAddr: 0x23570, symBinAddr: 0x24140, symSize: 0x70 }
  - { offset: 0x15DC7, size: 0x8, addend: 0x0, symName: __RINvNtNtCsdGrGZaRBwMb_3syn3gen9visit_mut22visit_lit_byte_str_mutNtNtCscj7Jssje0XT_11async_trait8lifetime16CollectLifetimesEB14_, symObjAddr: 0x235E0, symBinAddr: 0x241B0, symSize: 0x20 }
  - { offset: 0x15E09, size: 0x8, addend: 0x0, symName: __RINvNtNtCsdGrGZaRBwMb_3syn3gen9visit_mut22visit_lit_byte_str_mutNtNtCscj7Jssje0XT_11async_trait8receiver11ReplaceSelfEB14_, symObjAddr: 0x23600, symBinAddr: 0x241D0, symSize: 0x20 }
  - { offset: 0x15E4B, size: 0x8, addend: 0x0, symName: __RINvNtNtCsdGrGZaRBwMb_3syn3gen9visit_mut22visit_lit_byte_str_mutNtNtCscj7Jssje0XT_11async_trait8receiver7HasSelfEB14_, symObjAddr: 0x23620, symBinAddr: 0x241F0, symSize: 0x20 }
  - { offset: 0x15E8D, size: 0x8, addend: 0x0, symName: __RINvNtNtCsdGrGZaRBwMb_3syn3gen9visit_mut22visit_lit_byte_str_mutNtNtCscj7Jssje0XT_11async_trait8receiver9HasMutPatEB14_, symObjAddr: 0x23640, symBinAddr: 0x24210, symSize: 0x20 }
  - { offset: 0x15ECF, size: 0x8, addend: 0x0, symName: __RINvNtNtCsdGrGZaRBwMb_3syn3gen9visit_mut22visit_lit_byte_str_mutNtNvNtCscj7Jssje0XT_11async_trait6expand29replace_impl_trait_with_infer25ReplaceImplTraitWithInferEB16_, symObjAddr: 0x23660, symBinAddr: 0x24230, symSize: 0x20 }
  - { offset: 0x15F11, size: 0x8, addend: 0x0, symName: __RINvNtNtCsdGrGZaRBwMb_3syn3gen9visit_mut22visit_lit_byte_str_mutNtNvNtCscj7Jssje0XT_11async_trait6expand35contains_associated_type_impl_trait24AssociatedTypeImplTraitsEB16_, symObjAddr: 0x23680, symBinAddr: 0x24250, symSize: 0x20 }
  - { offset: 0x15F53, size: 0x8, addend: 0x0, symName: __RINvNtNtCsdGrGZaRBwMb_3syn3gen9visit_mut22visit_path_segment_mutNtNtCscj7Jssje0XT_11async_trait8lifetime16CollectLifetimesEB14_, symObjAddr: 0x236A0, symBinAddr: 0x24270, symSize: 0x40 }
  - { offset: 0x15F95, size: 0x8, addend: 0x0, symName: __RINvNtNtCsdGrGZaRBwMb_3syn3gen9visit_mut22visit_path_segment_mutNtNtCscj7Jssje0XT_11async_trait8lifetime22AddLifetimeToImplTraitEB14_, symObjAddr: 0x236E0, symBinAddr: 0x242B0, symSize: 0x40 }
  - { offset: 0x15FD7, size: 0x8, addend: 0x0, symName: __RINvNtNtCsdGrGZaRBwMb_3syn3gen9visit_mut22visit_path_segment_mutNtNtCscj7Jssje0XT_11async_trait8receiver7HasSelfEB14_, symObjAddr: 0x23720, symBinAddr: 0x242F0, symSize: 0x40 }
  - { offset: 0x16019, size: 0x8, addend: 0x0, symName: __RINvNtNtCsdGrGZaRBwMb_3syn3gen9visit_mut22visit_path_segment_mutNtNtCscj7Jssje0XT_11async_trait8receiver9HasMutPatEB14_, symObjAddr: 0x23760, symBinAddr: 0x24330, symSize: 0x40 }
  - { offset: 0x1605B, size: 0x8, addend: 0x0, symName: __RINvNtNtCsdGrGZaRBwMb_3syn3gen9visit_mut22visit_path_segment_mutNtNvNtCscj7Jssje0XT_11async_trait6expand29replace_impl_trait_with_infer25ReplaceImplTraitWithInferEB16_, symObjAddr: 0x237A0, symBinAddr: 0x24370, symSize: 0x40 }
  - { offset: 0x1609D, size: 0x8, addend: 0x0, symName: __RINvNtNtCsdGrGZaRBwMb_3syn3gen9visit_mut22visit_path_segment_mutNtNvNtCscj7Jssje0XT_11async_trait6expand35contains_associated_type_impl_trait24AssociatedTypeImplTraitsEB16_, symObjAddr: 0x237E0, symBinAddr: 0x243B0, symSize: 0x40 }
  - { offset: 0x160DF, size: 0x8, addend: 0x0, symName: __RINvNtNtCsdGrGZaRBwMb_3syn3gen9visit_mut22visit_range_limits_mutNtNtCscj7Jssje0XT_11async_trait8lifetime16CollectLifetimesEB14_, symObjAddr: 0x23820, symBinAddr: 0x243F0, symSize: 0x50 }
  - { offset: 0x16121, size: 0x8, addend: 0x0, symName: __RINvNtNtCsdGrGZaRBwMb_3syn3gen9visit_mut22visit_range_limits_mutNtNtCscj7Jssje0XT_11async_trait8receiver11ReplaceSelfEB14_, symObjAddr: 0x23870, symBinAddr: 0x24440, symSize: 0x50 }
  - { offset: 0x16163, size: 0x8, addend: 0x0, symName: __RINvNtNtCsdGrGZaRBwMb_3syn3gen9visit_mut22visit_range_limits_mutNtNtCscj7Jssje0XT_11async_trait8receiver7HasSelfEB14_, symObjAddr: 0x238C0, symBinAddr: 0x24490, symSize: 0x50 }
  - { offset: 0x161A5, size: 0x8, addend: 0x0, symName: __RINvNtNtCsdGrGZaRBwMb_3syn3gen9visit_mut22visit_range_limits_mutNtNtCscj7Jssje0XT_11async_trait8receiver9HasMutPatEB14_, symObjAddr: 0x23910, symBinAddr: 0x244E0, symSize: 0x50 }
  - { offset: 0x161E7, size: 0x8, addend: 0x0, symName: __RINvNtNtCsdGrGZaRBwMb_3syn3gen9visit_mut22visit_range_limits_mutNtNvNtCscj7Jssje0XT_11async_trait6expand29replace_impl_trait_with_infer25ReplaceImplTraitWithInferEB16_, symObjAddr: 0x23960, symBinAddr: 0x24530, symSize: 0x50 }
  - { offset: 0x16229, size: 0x8, addend: 0x0, symName: __RINvNtNtCsdGrGZaRBwMb_3syn3gen9visit_mut22visit_range_limits_mutNtNvNtCscj7Jssje0XT_11async_trait6expand35contains_associated_type_impl_trait24AssociatedTypeImplTraitsEB16_, symObjAddr: 0x239B0, symBinAddr: 0x24580, symSize: 0x50 }
  - { offset: 0x1626B, size: 0x8, addend: 0x0, symName: __RINvNtNtCsdGrGZaRBwMb_3syn3gen9visit_mut22visit_type_bare_fn_mutNtNtCscj7Jssje0XT_11async_trait8lifetime16CollectLifetimesEB14_, symObjAddr: 0x23A00, symBinAddr: 0x245D0, symSize: 0x1C0 }
  - { offset: 0x16362, size: 0x8, addend: 0x0, symName: __RINvNtNtCsdGrGZaRBwMb_3syn3gen9visit_mut22visit_type_bare_fn_mutNtNtCscj7Jssje0XT_11async_trait8lifetime22AddLifetimeToImplTraitEB14_, symObjAddr: 0x23BC0, symBinAddr: 0x24790, symSize: 0x1C0 }
  - { offset: 0x16459, size: 0x8, addend: 0x0, symName: __RINvNtNtCsdGrGZaRBwMb_3syn3gen9visit_mut22visit_type_bare_fn_mutNtNtCscj7Jssje0XT_11async_trait8receiver11ReplaceSelfEB14_, symObjAddr: 0x23D80, symBinAddr: 0x24950, symSize: 0x1C0 }
  - { offset: 0x16550, size: 0x8, addend: 0x0, symName: __RINvNtNtCsdGrGZaRBwMb_3syn3gen9visit_mut22visit_type_bare_fn_mutNtNtCscj7Jssje0XT_11async_trait8receiver7HasSelfEB14_, symObjAddr: 0x23F40, symBinAddr: 0x24B10, symSize: 0x1C0 }
  - { offset: 0x16647, size: 0x8, addend: 0x0, symName: __RINvNtNtCsdGrGZaRBwMb_3syn3gen9visit_mut22visit_type_bare_fn_mutNtNtCscj7Jssje0XT_11async_trait8receiver9HasMutPatEB14_, symObjAddr: 0x24100, symBinAddr: 0x24CD0, symSize: 0x1C0 }
  - { offset: 0x1673E, size: 0x8, addend: 0x0, symName: __RINvNtNtCsdGrGZaRBwMb_3syn3gen9visit_mut22visit_type_bare_fn_mutNtNvNtCscj7Jssje0XT_11async_trait6expand29replace_impl_trait_with_infer25ReplaceImplTraitWithInferEB16_, symObjAddr: 0x242C0, symBinAddr: 0x24E90, symSize: 0x1C0 }
  - { offset: 0x16835, size: 0x8, addend: 0x0, symName: __RINvNtNtCsdGrGZaRBwMb_3syn3gen9visit_mut22visit_type_bare_fn_mutNtNvNtCscj7Jssje0XT_11async_trait6expand35contains_associated_type_impl_trait24AssociatedTypeImplTraitsEB16_, symObjAddr: 0x24480, symBinAddr: 0x25050, symSize: 0x1C0 }
  - { offset: 0x1692C, size: 0x8, addend: 0x0, symName: __RINvNtNtCsdGrGZaRBwMb_3syn3gen9visit_mut22visit_where_clause_mutNtNtCscj7Jssje0XT_11async_trait8lifetime16CollectLifetimesEB14_, symObjAddr: 0x24640, symBinAddr: 0x25210, symSize: 0xB0 }
  - { offset: 0x169C9, size: 0x8, addend: 0x0, symName: __RINvNtNtCsdGrGZaRBwMb_3syn3gen9visit_mut22visit_where_clause_mutNtNtCscj7Jssje0XT_11async_trait8receiver7HasSelfEB14_, symObjAddr: 0x246F0, symBinAddr: 0x252C0, symSize: 0xB0 }
  - { offset: 0x16A66, size: 0x8, addend: 0x0, symName: __RINvNtNtCsdGrGZaRBwMb_3syn3gen9visit_mut22visit_where_clause_mutNtNtCscj7Jssje0XT_11async_trait8receiver9HasMutPatEB14_, symObjAddr: 0x247A0, symBinAddr: 0x25370, symSize: 0xB0 }
  - { offset: 0x16B03, size: 0x8, addend: 0x0, symName: __RINvNtNtCsdGrGZaRBwMb_3syn3gen9visit_mut22visit_where_clause_mutNtNvNtCscj7Jssje0XT_11async_trait6expand29replace_impl_trait_with_infer25ReplaceImplTraitWithInferEB16_, symObjAddr: 0x24850, symBinAddr: 0x25420, symSize: 0xB0 }
  - { offset: 0x16BA0, size: 0x8, addend: 0x0, symName: __RINvNtNtCsdGrGZaRBwMb_3syn3gen9visit_mut22visit_where_clause_mutNtNvNtCscj7Jssje0XT_11async_trait6expand35contains_associated_type_impl_trait24AssociatedTypeImplTraitsEB16_, symObjAddr: 0x24900, symBinAddr: 0x254D0, symSize: 0xB0 }
  - { offset: 0x16C3D, size: 0x8, addend: 0x0, symName: __RINvNtNtCsdGrGZaRBwMb_3syn3gen9visit_mut23visit_bare_variadic_mutNtNtCscj7Jssje0XT_11async_trait8lifetime16CollectLifetimesEB15_, symObjAddr: 0x249B0, symBinAddr: 0x25580, symSize: 0x70 }
  - { offset: 0x16C9D, size: 0x8, addend: 0x0, symName: __RINvNtNtCsdGrGZaRBwMb_3syn3gen9visit_mut23visit_bare_variadic_mutNtNtCscj7Jssje0XT_11async_trait8lifetime22AddLifetimeToImplTraitEB15_, symObjAddr: 0x24A20, symBinAddr: 0x255F0, symSize: 0x70 }
  - { offset: 0x16CFD, size: 0x8, addend: 0x0, symName: __RINvNtNtCsdGrGZaRBwMb_3syn3gen9visit_mut23visit_bare_variadic_mutNtNtCscj7Jssje0XT_11async_trait8receiver11ReplaceSelfEB15_, symObjAddr: 0x24A90, symBinAddr: 0x25660, symSize: 0x70 }
  - { offset: 0x16D5D, size: 0x8, addend: 0x0, symName: __RINvNtNtCsdGrGZaRBwMb_3syn3gen9visit_mut23visit_bare_variadic_mutNtNtCscj7Jssje0XT_11async_trait8receiver7HasSelfEB15_, symObjAddr: 0x24B00, symBinAddr: 0x256D0, symSize: 0x70 }
  - { offset: 0x16DBD, size: 0x8, addend: 0x0, symName: __RINvNtNtCsdGrGZaRBwMb_3syn3gen9visit_mut23visit_bare_variadic_mutNtNtCscj7Jssje0XT_11async_trait8receiver9HasMutPatEB15_, symObjAddr: 0x24B70, symBinAddr: 0x25740, symSize: 0x70 }
  - { offset: 0x16E1D, size: 0x8, addend: 0x0, symName: __RINvNtNtCsdGrGZaRBwMb_3syn3gen9visit_mut23visit_bare_variadic_mutNtNvNtCscj7Jssje0XT_11async_trait6expand29replace_impl_trait_with_infer25ReplaceImplTraitWithInferEB17_, symObjAddr: 0x24BE0, symBinAddr: 0x257B0, symSize: 0x70 }
  - { offset: 0x16E7D, size: 0x8, addend: 0x0, symName: __RINvNtNtCsdGrGZaRBwMb_3syn3gen9visit_mut23visit_bare_variadic_mutNtNvNtCscj7Jssje0XT_11async_trait6expand35contains_associated_type_impl_trait24AssociatedTypeImplTraitsEB17_, symObjAddr: 0x24C50, symBinAddr: 0x25820, symSize: 0x70 }
  - { offset: 0x16EDD, size: 0x8, addend: 0x0, symName: __RINvNtNtCsdGrGZaRBwMb_3syn3gen9visit_mut23visit_expr_continue_mutNtNtCscj7Jssje0XT_11async_trait8lifetime16CollectLifetimesEB15_, symObjAddr: 0x24CC0, symBinAddr: 0x25890, symSize: 0x70 }
  - { offset: 0x16F3D, size: 0x8, addend: 0x0, symName: __RINvNtNtCsdGrGZaRBwMb_3syn3gen9visit_mut23visit_expr_continue_mutNtNtCscj7Jssje0XT_11async_trait8receiver11ReplaceSelfEB15_, symObjAddr: 0x24D30, symBinAddr: 0x25900, symSize: 0x70 }
  - { offset: 0x16F9D, size: 0x8, addend: 0x0, symName: __RINvNtNtCsdGrGZaRBwMb_3syn3gen9visit_mut23visit_expr_continue_mutNtNtCscj7Jssje0XT_11async_trait8receiver7HasSelfEB15_, symObjAddr: 0x24DA0, symBinAddr: 0x25970, symSize: 0x70 }
  - { offset: 0x16FFD, size: 0x8, addend: 0x0, symName: __RINvNtNtCsdGrGZaRBwMb_3syn3gen9visit_mut23visit_expr_continue_mutNtNtCscj7Jssje0XT_11async_trait8receiver9HasMutPatEB15_, symObjAddr: 0x24E10, symBinAddr: 0x259E0, symSize: 0x70 }
  - { offset: 0x1705D, size: 0x8, addend: 0x0, symName: __RINvNtNtCsdGrGZaRBwMb_3syn3gen9visit_mut23visit_expr_continue_mutNtNvNtCscj7Jssje0XT_11async_trait6expand29replace_impl_trait_with_infer25ReplaceImplTraitWithInferEB17_, symObjAddr: 0x24E80, symBinAddr: 0x25A50, symSize: 0x70 }
  - { offset: 0x170BD, size: 0x8, addend: 0x0, symName: __RINvNtNtCsdGrGZaRBwMb_3syn3gen9visit_mut23visit_expr_continue_mutNtNvNtCscj7Jssje0XT_11async_trait6expand35contains_associated_type_impl_trait24AssociatedTypeImplTraitsEB17_, symObjAddr: 0x24EF0, symBinAddr: 0x25AC0, symSize: 0x70 }
  - { offset: 0x1711D, size: 0x8, addend: 0x0, symName: __RINvNtNtCsdGrGZaRBwMb_3syn3gen9visit_mut23visit_expr_for_loop_mutNtNtCscj7Jssje0XT_11async_trait8lifetime16CollectLifetimesEB15_, symObjAddr: 0x24F60, symBinAddr: 0x25B30, symSize: 0x140 }
  - { offset: 0x1717D, size: 0x8, addend: 0x0, symName: __RINvNtNtCsdGrGZaRBwMb_3syn3gen9visit_mut23visit_expr_for_loop_mutNtNtCscj7Jssje0XT_11async_trait8receiver11ReplaceSelfEB15_, symObjAddr: 0x250A0, symBinAddr: 0x25C70, symSize: 0x140 }
  - { offset: 0x171DD, size: 0x8, addend: 0x0, symName: __RINvNtNtCsdGrGZaRBwMb_3syn3gen9visit_mut23visit_expr_for_loop_mutNtNtCscj7Jssje0XT_11async_trait8receiver7HasSelfEB15_, symObjAddr: 0x251E0, symBinAddr: 0x25DB0, symSize: 0x140 }
  - { offset: 0x1723D, size: 0x8, addend: 0x0, symName: __RINvNtNtCsdGrGZaRBwMb_3syn3gen9visit_mut23visit_expr_for_loop_mutNtNtCscj7Jssje0XT_11async_trait8receiver9HasMutPatEB15_, symObjAddr: 0x25320, symBinAddr: 0x25EF0, symSize: 0x140 }
  - { offset: 0x1729D, size: 0x8, addend: 0x0, symName: __RINvNtNtCsdGrGZaRBwMb_3syn3gen9visit_mut23visit_expr_for_loop_mutNtNvNtCscj7Jssje0XT_11async_trait6expand29replace_impl_trait_with_infer25ReplaceImplTraitWithInferEB17_, symObjAddr: 0x25460, symBinAddr: 0x26030, symSize: 0x140 }
  - { offset: 0x172FD, size: 0x8, addend: 0x0, symName: __RINvNtNtCsdGrGZaRBwMb_3syn3gen9visit_mut23visit_expr_for_loop_mutNtNvNtCscj7Jssje0XT_11async_trait6expand35contains_associated_type_impl_trait24AssociatedTypeImplTraitsEB17_, symObjAddr: 0x255A0, symBinAddr: 0x26170, symSize: 0x140 }
  - { offset: 0x1735D, size: 0x8, addend: 0x0, symName: __RINvNtNtCsdGrGZaRBwMb_3syn3gen9visit_mut23visit_expr_raw_addr_mutNtNtCscj7Jssje0XT_11async_trait8lifetime16CollectLifetimesEB15_, symObjAddr: 0x256E0, symBinAddr: 0x262B0, symSize: 0xA0 }
  - { offset: 0x1739F, size: 0x8, addend: 0x0, symName: __RINvNtNtCsdGrGZaRBwMb_3syn3gen9visit_mut23visit_expr_raw_addr_mutNtNtCscj7Jssje0XT_11async_trait8receiver11ReplaceSelfEB15_, symObjAddr: 0x25780, symBinAddr: 0x26350, symSize: 0xA0 }
  - { offset: 0x173E1, size: 0x8, addend: 0x0, symName: __RINvNtNtCsdGrGZaRBwMb_3syn3gen9visit_mut23visit_expr_raw_addr_mutNtNtCscj7Jssje0XT_11async_trait8receiver7HasSelfEB15_, symObjAddr: 0x25820, symBinAddr: 0x263F0, symSize: 0xA0 }
  - { offset: 0x17423, size: 0x8, addend: 0x0, symName: __RINvNtNtCsdGrGZaRBwMb_3syn3gen9visit_mut23visit_expr_raw_addr_mutNtNtCscj7Jssje0XT_11async_trait8receiver9HasMutPatEB15_, symObjAddr: 0x258C0, symBinAddr: 0x26490, symSize: 0xA0 }
  - { offset: 0x17465, size: 0x8, addend: 0x0, symName: __RINvNtNtCsdGrGZaRBwMb_3syn3gen9visit_mut23visit_expr_raw_addr_mutNtNvNtCscj7Jssje0XT_11async_trait6expand29replace_impl_trait_with_infer25ReplaceImplTraitWithInferEB17_, symObjAddr: 0x25960, symBinAddr: 0x26530, symSize: 0xA0 }
  - { offset: 0x174A7, size: 0x8, addend: 0x0, symName: __RINvNtNtCsdGrGZaRBwMb_3syn3gen9visit_mut23visit_expr_raw_addr_mutNtNvNtCscj7Jssje0XT_11async_trait6expand35contains_associated_type_impl_trait24AssociatedTypeImplTraitsEB17_, symObjAddr: 0x25A00, symBinAddr: 0x265D0, symSize: 0xA0 }
  - { offset: 0x174E9, size: 0x8, addend: 0x0, symName: __RINvNtNtCsdGrGZaRBwMb_3syn3gen9visit_mut23visit_generic_param_mutNtNtCscj7Jssje0XT_11async_trait8lifetime16CollectLifetimesEB15_, symObjAddr: 0x25AA0, symBinAddr: 0x26670, symSize: 0xB0 }
  - { offset: 0x1757D, size: 0x8, addend: 0x0, symName: __RINvNtNtCsdGrGZaRBwMb_3syn3gen9visit_mut23visit_generic_param_mutNtNtCscj7Jssje0XT_11async_trait8lifetime22AddLifetimeToImplTraitEB15_, symObjAddr: 0x25B50, symBinAddr: 0x26720, symSize: 0xB0 }
  - { offset: 0x17611, size: 0x8, addend: 0x0, symName: __RINvNtNtCsdGrGZaRBwMb_3syn3gen9visit_mut23visit_generic_param_mutNtNtCscj7Jssje0XT_11async_trait8receiver11ReplaceSelfEB15_, symObjAddr: 0x25C00, symBinAddr: 0x267D0, symSize: 0xB0 }
  - { offset: 0x176A5, size: 0x8, addend: 0x0, symName: __RINvNtNtCsdGrGZaRBwMb_3syn3gen9visit_mut23visit_generic_param_mutNtNtCscj7Jssje0XT_11async_trait8receiver7HasSelfEB15_, symObjAddr: 0x25CB0, symBinAddr: 0x26880, symSize: 0xB0 }
  - { offset: 0x17739, size: 0x8, addend: 0x0, symName: __RINvNtNtCsdGrGZaRBwMb_3syn3gen9visit_mut23visit_generic_param_mutNtNtCscj7Jssje0XT_11async_trait8receiver9HasMutPatEB15_, symObjAddr: 0x25D60, symBinAddr: 0x26930, symSize: 0xB0 }
  - { offset: 0x177CD, size: 0x8, addend: 0x0, symName: __RINvNtNtCsdGrGZaRBwMb_3syn3gen9visit_mut23visit_generic_param_mutNtNvNtCscj7Jssje0XT_11async_trait6expand29replace_impl_trait_with_infer25ReplaceImplTraitWithInferEB17_, symObjAddr: 0x25E10, symBinAddr: 0x269E0, symSize: 0xB0 }
  - { offset: 0x17861, size: 0x8, addend: 0x0, symName: __RINvNtNtCsdGrGZaRBwMb_3syn3gen9visit_mut23visit_generic_param_mutNtNvNtCscj7Jssje0XT_11async_trait6expand35contains_associated_type_impl_trait24AssociatedTypeImplTraitsEB17_, symObjAddr: 0x25EC0, symBinAddr: 0x26A90, symSize: 0xB0 }
  - { offset: 0x178F5, size: 0x8, addend: 0x0, symName: __RINvNtNtCsdGrGZaRBwMb_3syn3gen9visit_mut23visit_pat_reference_mutNtNtCscj7Jssje0XT_11async_trait8lifetime16CollectLifetimesEB15_, symObjAddr: 0x25F70, symBinAddr: 0x26B40, symSize: 0x90 }
  - { offset: 0x17937, size: 0x8, addend: 0x0, symName: __RINvNtNtCsdGrGZaRBwMb_3syn3gen9visit_mut23visit_pat_reference_mutNtNtCscj7Jssje0XT_11async_trait8receiver11ReplaceSelfEB15_, symObjAddr: 0x26000, symBinAddr: 0x26BD0, symSize: 0x90 }
  - { offset: 0x17979, size: 0x8, addend: 0x0, symName: __RINvNtNtCsdGrGZaRBwMb_3syn3gen9visit_mut23visit_pat_reference_mutNtNtCscj7Jssje0XT_11async_trait8receiver7HasSelfEB15_, symObjAddr: 0x26090, symBinAddr: 0x26C60, symSize: 0x90 }
  - { offset: 0x179BB, size: 0x8, addend: 0x0, symName: __RINvNtNtCsdGrGZaRBwMb_3syn3gen9visit_mut23visit_pat_reference_mutNtNtCscj7Jssje0XT_11async_trait8receiver9HasMutPatEB15_, symObjAddr: 0x26120, symBinAddr: 0x26CF0, symSize: 0x90 }
  - { offset: 0x179FD, size: 0x8, addend: 0x0, symName: __RINvNtNtCsdGrGZaRBwMb_3syn3gen9visit_mut23visit_pat_reference_mutNtNvNtCscj7Jssje0XT_11async_trait6expand29replace_impl_trait_with_infer25ReplaceImplTraitWithInferEB17_, symObjAddr: 0x261B0, symBinAddr: 0x26D80, symSize: 0x90 }
  - { offset: 0x17A3F, size: 0x8, addend: 0x0, symName: __RINvNtNtCsdGrGZaRBwMb_3syn3gen9visit_mut23visit_pat_reference_mutNtNvNtCscj7Jssje0XT_11async_trait6expand35contains_associated_type_impl_trait24AssociatedTypeImplTraitsEB17_, symObjAddr: 0x26240, symBinAddr: 0x26E10, symSize: 0x90 }
  - { offset: 0x17A81, size: 0x8, addend: 0x0, symName: __RINvNtNtCsdGrGZaRBwMb_3syn3gen9visit_mut23visit_trait_item_fn_mutNtNtCscj7Jssje0XT_11async_trait8lifetime16CollectLifetimesEB15_, symObjAddr: 0x262D0, symBinAddr: 0x26EA0, symSize: 0x90 }
  - { offset: 0x17AE1, size: 0x8, addend: 0x0, symName: __RINvNtNtCsdGrGZaRBwMb_3syn3gen9visit_mut23visit_trait_item_fn_mutNtNtCscj7Jssje0XT_11async_trait8receiver9HasMutPatEB15_, symObjAddr: 0x26360, symBinAddr: 0x26F30, symSize: 0x90 }
  - { offset: 0x17B41, size: 0x8, addend: 0x0, symName: __RINvNtNtCsdGrGZaRBwMb_3syn3gen9visit_mut23visit_trait_item_fn_mutNtNvNtCscj7Jssje0XT_11async_trait6expand29replace_impl_trait_with_infer25ReplaceImplTraitWithInferEB17_, symObjAddr: 0x263F0, symBinAddr: 0x26FC0, symSize: 0x90 }
  - { offset: 0x17BA1, size: 0x8, addend: 0x0, symName: __RINvNtNtCsdGrGZaRBwMb_3syn3gen9visit_mut23visit_trait_item_fn_mutNtNvNtCscj7Jssje0XT_11async_trait6expand35contains_associated_type_impl_trait24AssociatedTypeImplTraitsEB17_, symObjAddr: 0x26480, symBinAddr: 0x27050, symSize: 0x90 }
  - { offset: 0x17C01, size: 0x8, addend: 0x0, symName: __RINvNtNtCsdGrGZaRBwMb_3syn3gen9visit_mut24visit_captured_param_mutNtNtCscj7Jssje0XT_11async_trait8lifetime16CollectLifetimesEB16_, symObjAddr: 0x26510, symBinAddr: 0x270E0, symSize: 0x70 }
  - { offset: 0x17C77, size: 0x8, addend: 0x0, symName: __RINvNtNtCsdGrGZaRBwMb_3syn3gen9visit_mut24visit_captured_param_mutNtNtCscj7Jssje0XT_11async_trait8lifetime22AddLifetimeToImplTraitEB16_, symObjAddr: 0x26580, symBinAddr: 0x27150, symSize: 0x70 }
  - { offset: 0x17CED, size: 0x8, addend: 0x0, symName: __RINvNtNtCsdGrGZaRBwMb_3syn3gen9visit_mut24visit_captured_param_mutNtNtCscj7Jssje0XT_11async_trait8receiver11ReplaceSelfEB16_, symObjAddr: 0x265F0, symBinAddr: 0x271C0, symSize: 0x70 }
  - { offset: 0x17D63, size: 0x8, addend: 0x0, symName: __RINvNtNtCsdGrGZaRBwMb_3syn3gen9visit_mut24visit_captured_param_mutNtNtCscj7Jssje0XT_11async_trait8receiver7HasSelfEB16_, symObjAddr: 0x26660, symBinAddr: 0x27230, symSize: 0x70 }
  - { offset: 0x17DD9, size: 0x8, addend: 0x0, symName: __RINvNtNtCsdGrGZaRBwMb_3syn3gen9visit_mut24visit_captured_param_mutNtNtCscj7Jssje0XT_11async_trait8receiver9HasMutPatEB16_, symObjAddr: 0x266D0, symBinAddr: 0x272A0, symSize: 0x70 }
  - { offset: 0x17E4F, size: 0x8, addend: 0x0, symName: __RINvNtNtCsdGrGZaRBwMb_3syn3gen9visit_mut24visit_captured_param_mutNtNvNtCscj7Jssje0XT_11async_trait6expand29replace_impl_trait_with_infer25ReplaceImplTraitWithInferEB18_, symObjAddr: 0x26740, symBinAddr: 0x27310, symSize: 0x70 }
  - { offset: 0x17EC5, size: 0x8, addend: 0x0, symName: __RINvNtNtCsdGrGZaRBwMb_3syn3gen9visit_mut24visit_captured_param_mutNtNvNtCscj7Jssje0XT_11async_trait6expand35contains_associated_type_impl_trait24AssociatedTypeImplTraitsEB18_, symObjAddr: 0x267B0, symBinAddr: 0x27380, symSize: 0x70 }
  - { offset: 0x17F3B, size: 0x8, addend: 0x0, symName: __RINvNtNtCsdGrGZaRBwMb_3syn3gen9visit_mut24visit_expr_reference_mutNtNtCscj7Jssje0XT_11async_trait8lifetime16CollectLifetimesEB16_, symObjAddr: 0x26820, symBinAddr: 0x273F0, symSize: 0x90 }
  - { offset: 0x17F7D, size: 0x8, addend: 0x0, symName: __RINvNtNtCsdGrGZaRBwMb_3syn3gen9visit_mut24visit_expr_reference_mutNtNtCscj7Jssje0XT_11async_trait8receiver11ReplaceSelfEB16_, symObjAddr: 0x268B0, symBinAddr: 0x27480, symSize: 0x90 }
  - { offset: 0x17FBF, size: 0x8, addend: 0x0, symName: __RINvNtNtCsdGrGZaRBwMb_3syn3gen9visit_mut24visit_expr_reference_mutNtNtCscj7Jssje0XT_11async_trait8receiver7HasSelfEB16_, symObjAddr: 0x26940, symBinAddr: 0x27510, symSize: 0x90 }
  - { offset: 0x18001, size: 0x8, addend: 0x0, symName: __RINvNtNtCsdGrGZaRBwMb_3syn3gen9visit_mut24visit_expr_reference_mutNtNtCscj7Jssje0XT_11async_trait8receiver9HasMutPatEB16_, symObjAddr: 0x269D0, symBinAddr: 0x275A0, symSize: 0x90 }
  - { offset: 0x18043, size: 0x8, addend: 0x0, symName: __RINvNtNtCsdGrGZaRBwMb_3syn3gen9visit_mut24visit_expr_reference_mutNtNvNtCscj7Jssje0XT_11async_trait6expand29replace_impl_trait_with_infer25ReplaceImplTraitWithInferEB18_, symObjAddr: 0x26A60, symBinAddr: 0x27630, symSize: 0x90 }
  - { offset: 0x18085, size: 0x8, addend: 0x0, symName: __RINvNtNtCsdGrGZaRBwMb_3syn3gen9visit_mut24visit_expr_reference_mutNtNvNtCscj7Jssje0XT_11async_trait6expand35contains_associated_type_impl_trait24AssociatedTypeImplTraitsEB18_, symObjAddr: 0x26AF0, symBinAddr: 0x276C0, symSize: 0x90 }
  - { offset: 0x180C7, size: 0x8, addend: 0x0, symName: __RINvNtNtCsdGrGZaRBwMb_3syn3gen9visit_mut24visit_expr_try_block_mutNtNtCscj7Jssje0XT_11async_trait8lifetime16CollectLifetimesEB16_, symObjAddr: 0x26B80, symBinAddr: 0x27750, symSize: 0x40 }
  - { offset: 0x18109, size: 0x8, addend: 0x0, symName: __RINvNtNtCsdGrGZaRBwMb_3syn3gen9visit_mut24visit_expr_try_block_mutNtNtCscj7Jssje0XT_11async_trait8receiver11ReplaceSelfEB16_, symObjAddr: 0x26BC0, symBinAddr: 0x27790, symSize: 0x40 }
  - { offset: 0x1814B, size: 0x8, addend: 0x0, symName: __RINvNtNtCsdGrGZaRBwMb_3syn3gen9visit_mut24visit_expr_try_block_mutNtNtCscj7Jssje0XT_11async_trait8receiver7HasSelfEB16_, symObjAddr: 0x26C00, symBinAddr: 0x277D0, symSize: 0x40 }
  - { offset: 0x1818D, size: 0x8, addend: 0x0, symName: __RINvNtNtCsdGrGZaRBwMb_3syn3gen9visit_mut24visit_expr_try_block_mutNtNtCscj7Jssje0XT_11async_trait8receiver9HasMutPatEB16_, symObjAddr: 0x26C40, symBinAddr: 0x27810, symSize: 0x40 }
  - { offset: 0x181CF, size: 0x8, addend: 0x0, symName: __RINvNtNtCsdGrGZaRBwMb_3syn3gen9visit_mut24visit_expr_try_block_mutNtNvNtCscj7Jssje0XT_11async_trait6expand29replace_impl_trait_with_infer25ReplaceImplTraitWithInferEB18_, symObjAddr: 0x26C80, symBinAddr: 0x27850, symSize: 0x40 }
  - { offset: 0x18211, size: 0x8, addend: 0x0, symName: __RINvNtNtCsdGrGZaRBwMb_3syn3gen9visit_mut24visit_expr_try_block_mutNtNvNtCscj7Jssje0XT_11async_trait6expand35contains_associated_type_impl_trait24AssociatedTypeImplTraitsEB18_, symObjAddr: 0x26CC0, symBinAddr: 0x27890, symSize: 0x40 }
  - { offset: 0x18253, size: 0x8, addend: 0x0, symName: __RINvNtNtCsdGrGZaRBwMb_3syn3gen9visit_mut24visit_fields_unnamed_mutNtNtCscj7Jssje0XT_11async_trait8lifetime16CollectLifetimesEB16_, symObjAddr: 0x26D00, symBinAddr: 0x278D0, symSize: 0xB0 }
  - { offset: 0x182F0, size: 0x8, addend: 0x0, symName: __RINvNtNtCsdGrGZaRBwMb_3syn3gen9visit_mut24visit_fields_unnamed_mutNtNtCscj7Jssje0XT_11async_trait8receiver9HasMutPatEB16_, symObjAddr: 0x26DB0, symBinAddr: 0x27980, symSize: 0xB0 }
  - { offset: 0x1838D, size: 0x8, addend: 0x0, symName: __RINvNtNtCsdGrGZaRBwMb_3syn3gen9visit_mut24visit_fields_unnamed_mutNtNvNtCscj7Jssje0XT_11async_trait6expand29replace_impl_trait_with_infer25ReplaceImplTraitWithInferEB18_, symObjAddr: 0x26E60, symBinAddr: 0x27A30, symSize: 0xB0 }
  - { offset: 0x1842A, size: 0x8, addend: 0x0, symName: __RINvNtNtCsdGrGZaRBwMb_3syn3gen9visit_mut24visit_fields_unnamed_mutNtNvNtCscj7Jssje0XT_11async_trait6expand35contains_associated_type_impl_trait24AssociatedTypeImplTraitsEB18_, symObjAddr: 0x26F10, symBinAddr: 0x27AE0, symSize: 0xB0 }
  - { offset: 0x184C7, size: 0x8, addend: 0x0, symName: __RINvNtNtCsdGrGZaRBwMb_3syn3gen9visit_mut24visit_impl_item_type_mutNtNtCscj7Jssje0XT_11async_trait8lifetime16CollectLifetimesEB16_, symObjAddr: 0x26FC0, symBinAddr: 0x27B90, symSize: 0x80 }
  - { offset: 0x18509, size: 0x8, addend: 0x0, symName: __RINvNtNtCsdGrGZaRBwMb_3syn3gen9visit_mut24visit_impl_item_type_mutNtNtCscj7Jssje0XT_11async_trait8receiver9HasMutPatEB16_, symObjAddr: 0x27040, symBinAddr: 0x27C10, symSize: 0x80 }
  - { offset: 0x1854B, size: 0x8, addend: 0x0, symName: __RINvNtNtCsdGrGZaRBwMb_3syn3gen9visit_mut24visit_impl_item_type_mutNtNvNtCscj7Jssje0XT_11async_trait6expand29replace_impl_trait_with_infer25ReplaceImplTraitWithInferEB18_, symObjAddr: 0x270C0, symBinAddr: 0x27C90, symSize: 0x80 }
  - { offset: 0x1858D, size: 0x8, addend: 0x0, symName: __RINvNtNtCsdGrGZaRBwMb_3syn3gen9visit_mut24visit_impl_item_type_mutNtNvNtCscj7Jssje0XT_11async_trait6expand35contains_associated_type_impl_trait24AssociatedTypeImplTraitsEB18_, symObjAddr: 0x27140, symBinAddr: 0x27D10, symSize: 0x80 }
  - { offset: 0x185CF, size: 0x8, addend: 0x0, symName: __RINvNtNtCsdGrGZaRBwMb_3syn3gen9visit_mut24visit_lifetime_param_mutNtNtCscj7Jssje0XT_11async_trait8lifetime16CollectLifetimesEB16_, symObjAddr: 0x271C0, symBinAddr: 0x27D90, symSize: 0xE0 }
  - { offset: 0x1866C, size: 0x8, addend: 0x0, symName: __RINvNtNtCsdGrGZaRBwMb_3syn3gen9visit_mut24visit_lifetime_param_mutNtNtCscj7Jssje0XT_11async_trait8lifetime22AddLifetimeToImplTraitEB16_, symObjAddr: 0x272A0, symBinAddr: 0x27E70, symSize: 0xE0 }
  - { offset: 0x18709, size: 0x8, addend: 0x0, symName: __RINvNtNtCsdGrGZaRBwMb_3syn3gen9visit_mut24visit_lifetime_param_mutNtNtCscj7Jssje0XT_11async_trait8receiver11ReplaceSelfEB16_, symObjAddr: 0x27380, symBinAddr: 0x27F50, symSize: 0xE0 }
  - { offset: 0x187A6, size: 0x8, addend: 0x0, symName: __RINvNtNtCsdGrGZaRBwMb_3syn3gen9visit_mut24visit_lifetime_param_mutNtNtCscj7Jssje0XT_11async_trait8receiver7HasSelfEB16_, symObjAddr: 0x27460, symBinAddr: 0x28030, symSize: 0xE0 }
  - { offset: 0x18843, size: 0x8, addend: 0x0, symName: __RINvNtNtCsdGrGZaRBwMb_3syn3gen9visit_mut24visit_lifetime_param_mutNtNtCscj7Jssje0XT_11async_trait8receiver9HasMutPatEB16_, symObjAddr: 0x27540, symBinAddr: 0x28110, symSize: 0xE0 }
  - { offset: 0x188E0, size: 0x8, addend: 0x0, symName: __RINvNtNtCsdGrGZaRBwMb_3syn3gen9visit_mut24visit_lifetime_param_mutNtNvNtCscj7Jssje0XT_11async_trait6expand29replace_impl_trait_with_infer25ReplaceImplTraitWithInferEB18_, symObjAddr: 0x27620, symBinAddr: 0x281F0, symSize: 0xE0 }
  - { offset: 0x1897D, size: 0x8, addend: 0x0, symName: __RINvNtNtCsdGrGZaRBwMb_3syn3gen9visit_mut24visit_lifetime_param_mutNtNvNtCscj7Jssje0XT_11async_trait6expand35contains_associated_type_impl_trait24AssociatedTypeImplTraitsEB18_, symObjAddr: 0x27700, symBinAddr: 0x282D0, symSize: 0xE0 }
  - { offset: 0x18A1A, size: 0x8, addend: 0x0, symName: __RINvNtNtCsdGrGZaRBwMb_3syn3gen9visit_mut24visit_path_arguments_mutNtNtCscj7Jssje0XT_11async_trait8lifetime16CollectLifetimesEB16_, symObjAddr: 0x277E0, symBinAddr: 0x283B0, symSize: 0xA0 }
  - { offset: 0x18A90, size: 0x8, addend: 0x0, symName: __RINvNtNtCsdGrGZaRBwMb_3syn3gen9visit_mut24visit_path_arguments_mutNtNtCscj7Jssje0XT_11async_trait8lifetime22AddLifetimeToImplTraitEB16_, symObjAddr: 0x27880, symBinAddr: 0x28450, symSize: 0xA0 }
  - { offset: 0x18B06, size: 0x8, addend: 0x0, symName: __RINvNtNtCsdGrGZaRBwMb_3syn3gen9visit_mut24visit_path_arguments_mutNtNtCscj7Jssje0XT_11async_trait8receiver11ReplaceSelfEB16_, symObjAddr: 0x27920, symBinAddr: 0x284F0, symSize: 0xA0 }
  - { offset: 0x18B7C, size: 0x8, addend: 0x0, symName: __RINvNtNtCsdGrGZaRBwMb_3syn3gen9visit_mut24visit_path_arguments_mutNtNtCscj7Jssje0XT_11async_trait8receiver7HasSelfEB16_, symObjAddr: 0x279C0, symBinAddr: 0x28590, symSize: 0xA0 }
  - { offset: 0x18BF2, size: 0x8, addend: 0x0, symName: __RINvNtNtCsdGrGZaRBwMb_3syn3gen9visit_mut24visit_path_arguments_mutNtNtCscj7Jssje0XT_11async_trait8receiver9HasMutPatEB16_, symObjAddr: 0x27A60, symBinAddr: 0x28630, symSize: 0xA0 }
  - { offset: 0x18C68, size: 0x8, addend: 0x0, symName: __RINvNtNtCsdGrGZaRBwMb_3syn3gen9visit_mut24visit_path_arguments_mutNtNvNtCscj7Jssje0XT_11async_trait6expand29replace_impl_trait_with_infer25ReplaceImplTraitWithInferEB18_, symObjAddr: 0x27B00, symBinAddr: 0x286D0, symSize: 0xA0 }
  - { offset: 0x18CDE, size: 0x8, addend: 0x0, symName: __RINvNtNtCsdGrGZaRBwMb_3syn3gen9visit_mut24visit_path_arguments_mutNtNvNtCscj7Jssje0XT_11async_trait6expand35contains_associated_type_impl_trait24AssociatedTypeImplTraitsEB18_, symObjAddr: 0x27BA0, symBinAddr: 0x28770, symSize: 0xA0 }
  - { offset: 0x18D54, size: 0x8, addend: 0x0, symName: __RINvNtNtCsdGrGZaRBwMb_3syn3gen9visit_mut24visit_predicate_type_mutNtNtCscj7Jssje0XT_11async_trait8lifetime16CollectLifetimesEB16_, symObjAddr: 0x27C40, symBinAddr: 0x28810, symSize: 0x130 }
  - { offset: 0x18E0F, size: 0x8, addend: 0x0, symName: __RINvNtNtCsdGrGZaRBwMb_3syn3gen9visit_mut24visit_predicate_type_mutNtNtCscj7Jssje0XT_11async_trait8receiver7HasSelfEB16_, symObjAddr: 0x27D70, symBinAddr: 0x28940, symSize: 0x130 }
  - { offset: 0x18ECA, size: 0x8, addend: 0x0, symName: __RINvNtNtCsdGrGZaRBwMb_3syn3gen9visit_mut24visit_predicate_type_mutNtNtCscj7Jssje0XT_11async_trait8receiver9HasMutPatEB16_, symObjAddr: 0x27EA0, symBinAddr: 0x28A70, symSize: 0x130 }
  - { offset: 0x18F85, size: 0x8, addend: 0x0, symName: __RINvNtNtCsdGrGZaRBwMb_3syn3gen9visit_mut24visit_predicate_type_mutNtNvNtCscj7Jssje0XT_11async_trait6expand29replace_impl_trait_with_infer25ReplaceImplTraitWithInferEB18_, symObjAddr: 0x27FD0, symBinAddr: 0x28BA0, symSize: 0x130 }
  - { offset: 0x19040, size: 0x8, addend: 0x0, symName: __RINvNtNtCsdGrGZaRBwMb_3syn3gen9visit_mut24visit_predicate_type_mutNtNvNtCscj7Jssje0XT_11async_trait6expand35contains_associated_type_impl_trait24AssociatedTypeImplTraitsEB18_, symObjAddr: 0x28100, symBinAddr: 0x28CD0, symSize: 0x130 }
  - { offset: 0x190FB, size: 0x8, addend: 0x0, symName: __RINvNtNtCsdGrGZaRBwMb_3syn3gen9visit_mut24visit_type_reference_mutNtNtCscj7Jssje0XT_11async_trait8lifetime16CollectLifetimesEB16_, symObjAddr: 0x28230, symBinAddr: 0x28E00, symSize: 0xC0 }
  - { offset: 0x1915B, size: 0x8, addend: 0x0, symName: __RINvNtNtCsdGrGZaRBwMb_3syn3gen9visit_mut24visit_type_reference_mutNtNtCscj7Jssje0XT_11async_trait8lifetime22AddLifetimeToImplTraitEB16_, symObjAddr: 0x282F0, symBinAddr: 0x28EC0, symSize: 0xC0 }
  - { offset: 0x191BB, size: 0x8, addend: 0x0, symName: __RINvNtNtCsdGrGZaRBwMb_3syn3gen9visit_mut24visit_type_reference_mutNtNtCscj7Jssje0XT_11async_trait8receiver11ReplaceSelfEB16_, symObjAddr: 0x283B0, symBinAddr: 0x28F80, symSize: 0xC0 }
  - { offset: 0x1921B, size: 0x8, addend: 0x0, symName: __RINvNtNtCsdGrGZaRBwMb_3syn3gen9visit_mut24visit_type_reference_mutNtNtCscj7Jssje0XT_11async_trait8receiver7HasSelfEB16_, symObjAddr: 0x28470, symBinAddr: 0x29040, symSize: 0xC0 }
  - { offset: 0x1927B, size: 0x8, addend: 0x0, symName: __RINvNtNtCsdGrGZaRBwMb_3syn3gen9visit_mut24visit_type_reference_mutNtNtCscj7Jssje0XT_11async_trait8receiver9HasMutPatEB16_, symObjAddr: 0x28530, symBinAddr: 0x29100, symSize: 0xC0 }
  - { offset: 0x192DB, size: 0x8, addend: 0x0, symName: __RINvNtNtCsdGrGZaRBwMb_3syn3gen9visit_mut24visit_type_reference_mutNtNvNtCscj7Jssje0XT_11async_trait6expand29replace_impl_trait_with_infer25ReplaceImplTraitWithInferEB18_, symObjAddr: 0x285F0, symBinAddr: 0x291C0, symSize: 0xC0 }
  - { offset: 0x1933B, size: 0x8, addend: 0x0, symName: __RINvNtNtCsdGrGZaRBwMb_3syn3gen9visit_mut24visit_type_reference_mutNtNvNtCscj7Jssje0XT_11async_trait6expand35contains_associated_type_impl_trait24AssociatedTypeImplTraitsEB18_, symObjAddr: 0x286B0, symBinAddr: 0x29280, symSize: 0xC0 }
  - { offset: 0x1939B, size: 0x8, addend: 0x0, symName: __RINvNtNtCsdGrGZaRBwMb_3syn3gen9visit_mut24visit_vis_restricted_mutNtNtCscj7Jssje0XT_11async_trait8lifetime16CollectLifetimesEB16_, symObjAddr: 0x28770, symBinAddr: 0x29340, symSize: 0x80 }
  - { offset: 0x193DD, size: 0x8, addend: 0x0, symName: __RINvNtNtCsdGrGZaRBwMb_3syn3gen9visit_mut24visit_vis_restricted_mutNtNtCscj7Jssje0XT_11async_trait8receiver9HasMutPatEB16_, symObjAddr: 0x287F0, symBinAddr: 0x293C0, symSize: 0x80 }
  - { offset: 0x1941F, size: 0x8, addend: 0x0, symName: __RINvNtNtCsdGrGZaRBwMb_3syn3gen9visit_mut24visit_vis_restricted_mutNtNvNtCscj7Jssje0XT_11async_trait6expand29replace_impl_trait_with_infer25ReplaceImplTraitWithInferEB18_, symObjAddr: 0x28870, symBinAddr: 0x29440, symSize: 0x80 }
  - { offset: 0x19461, size: 0x8, addend: 0x0, symName: __RINvNtNtCsdGrGZaRBwMb_3syn3gen9visit_mut24visit_vis_restricted_mutNtNvNtCscj7Jssje0XT_11async_trait6expand35contains_associated_type_impl_trait24AssociatedTypeImplTraitsEB18_, symObjAddr: 0x288F0, symBinAddr: 0x294C0, symSize: 0x80 }
  - { offset: 0x194A3, size: 0x8, addend: 0x0, symName: __RINvNtNtCsdGrGZaRBwMb_3syn3gen9visit_mut25visit_bound_lifetimes_mutNtNtCscj7Jssje0XT_11async_trait8lifetime16CollectLifetimesEB17_, symObjAddr: 0x28970, symBinAddr: 0x29540, symSize: 0xB0 }
  - { offset: 0x19540, size: 0x8, addend: 0x0, symName: __RINvNtNtCsdGrGZaRBwMb_3syn3gen9visit_mut25visit_bound_lifetimes_mutNtNtCscj7Jssje0XT_11async_trait8lifetime22AddLifetimeToImplTraitEB17_, symObjAddr: 0x28A20, symBinAddr: 0x295F0, symSize: 0xB0 }
  - { offset: 0x195DD, size: 0x8, addend: 0x0, symName: __RINvNtNtCsdGrGZaRBwMb_3syn3gen9visit_mut25visit_bound_lifetimes_mutNtNtCscj7Jssje0XT_11async_trait8receiver11ReplaceSelfEB17_, symObjAddr: 0x28AD0, symBinAddr: 0x296A0, symSize: 0xB0 }
  - { offset: 0x1967A, size: 0x8, addend: 0x0, symName: __RINvNtNtCsdGrGZaRBwMb_3syn3gen9visit_mut25visit_bound_lifetimes_mutNtNtCscj7Jssje0XT_11async_trait8receiver7HasSelfEB17_, symObjAddr: 0x28B80, symBinAddr: 0x29750, symSize: 0xB0 }
  - { offset: 0x19717, size: 0x8, addend: 0x0, symName: __RINvNtNtCsdGrGZaRBwMb_3syn3gen9visit_mut25visit_bound_lifetimes_mutNtNtCscj7Jssje0XT_11async_trait8receiver9HasMutPatEB17_, symObjAddr: 0x28C30, symBinAddr: 0x29800, symSize: 0xB0 }
  - { offset: 0x197B4, size: 0x8, addend: 0x0, symName: __RINvNtNtCsdGrGZaRBwMb_3syn3gen9visit_mut25visit_bound_lifetimes_mutNtNvNtCscj7Jssje0XT_11async_trait6expand29replace_impl_trait_with_infer25ReplaceImplTraitWithInferEB19_, symObjAddr: 0x28CE0, symBinAddr: 0x298B0, symSize: 0xB0 }
  - { offset: 0x19851, size: 0x8, addend: 0x0, symName: __RINvNtNtCsdGrGZaRBwMb_3syn3gen9visit_mut25visit_bound_lifetimes_mutNtNvNtCscj7Jssje0XT_11async_trait6expand35contains_associated_type_impl_trait24AssociatedTypeImplTraitsEB19_, symObjAddr: 0x28D90, symBinAddr: 0x29960, symSize: 0xB0 }
  - { offset: 0x198EE, size: 0x8, addend: 0x0, symName: __RINvNtNtCsdGrGZaRBwMb_3syn3gen9visit_mut25visit_foreign_item_fn_mutNtNtCscj7Jssje0XT_11async_trait8lifetime16CollectLifetimesEB17_, symObjAddr: 0x28E40, symBinAddr: 0x29A10, symSize: 0x60 }
  - { offset: 0x19930, size: 0x8, addend: 0x0, symName: __RINvNtNtCsdGrGZaRBwMb_3syn3gen9visit_mut25visit_foreign_item_fn_mutNtNtCscj7Jssje0XT_11async_trait8receiver9HasMutPatEB17_, symObjAddr: 0x28EA0, symBinAddr: 0x29A70, symSize: 0x60 }
  - { offset: 0x19972, size: 0x8, addend: 0x0, symName: __RINvNtNtCsdGrGZaRBwMb_3syn3gen9visit_mut25visit_foreign_item_fn_mutNtNvNtCscj7Jssje0XT_11async_trait6expand29replace_impl_trait_with_infer25ReplaceImplTraitWithInferEB19_, symObjAddr: 0x28F00, symBinAddr: 0x29AD0, symSize: 0x60 }
  - { offset: 0x199B4, size: 0x8, addend: 0x0, symName: __RINvNtNtCsdGrGZaRBwMb_3syn3gen9visit_mut25visit_foreign_item_fn_mutNtNvNtCscj7Jssje0XT_11async_trait6expand35contains_associated_type_impl_trait24AssociatedTypeImplTraitsEB19_, symObjAddr: 0x28F60, symBinAddr: 0x29B30, symSize: 0x60 }
  - { offset: 0x199F6, size: 0x8, addend: 0x0, symName: __RINvNtNtCsdGrGZaRBwMb_3syn3gen9visit_mut25visit_impl_item_const_mutNtNtCscj7Jssje0XT_11async_trait8lifetime16CollectLifetimesEB17_, symObjAddr: 0x28FC0, symBinAddr: 0x29B90, symSize: 0x90 }
  - { offset: 0x19A38, size: 0x8, addend: 0x0, symName: __RINvNtNtCsdGrGZaRBwMb_3syn3gen9visit_mut25visit_impl_item_const_mutNtNtCscj7Jssje0XT_11async_trait8receiver9HasMutPatEB17_, symObjAddr: 0x29050, symBinAddr: 0x29C20, symSize: 0x90 }
  - { offset: 0x19A7A, size: 0x8, addend: 0x0, symName: __RINvNtNtCsdGrGZaRBwMb_3syn3gen9visit_mut25visit_impl_item_const_mutNtNvNtCscj7Jssje0XT_11async_trait6expand29replace_impl_trait_with_infer25ReplaceImplTraitWithInferEB19_, symObjAddr: 0x290E0, symBinAddr: 0x29CB0, symSize: 0x90 }
  - { offset: 0x19ABC, size: 0x8, addend: 0x0, symName: __RINvNtNtCsdGrGZaRBwMb_3syn3gen9visit_mut25visit_impl_item_const_mutNtNvNtCscj7Jssje0XT_11async_trait6expand35contains_associated_type_impl_trait24AssociatedTypeImplTraitsEB19_, symObjAddr: 0x29170, symBinAddr: 0x29D40, symSize: 0x90 }
  - { offset: 0x19AFE, size: 0x8, addend: 0x0, symName: __RINvNtNtCsdGrGZaRBwMb_3syn3gen9visit_mut25visit_impl_item_macro_mutNtNtCscj7Jssje0XT_11async_trait8lifetime16CollectLifetimesEB17_, symObjAddr: 0x29200, symBinAddr: 0x29DD0, symSize: 0x40 }
  - { offset: 0x19B40, size: 0x8, addend: 0x0, symName: __RINvNtNtCsdGrGZaRBwMb_3syn3gen9visit_mut25visit_impl_item_macro_mutNtNtCscj7Jssje0XT_11async_trait8receiver9HasMutPatEB17_, symObjAddr: 0x29240, symBinAddr: 0x29E10, symSize: 0x40 }
  - { offset: 0x19B82, size: 0x8, addend: 0x0, symName: __RINvNtNtCsdGrGZaRBwMb_3syn3gen9visit_mut25visit_impl_item_macro_mutNtNvNtCscj7Jssje0XT_11async_trait6expand29replace_impl_trait_with_infer25ReplaceImplTraitWithInferEB19_, symObjAddr: 0x29280, symBinAddr: 0x29E50, symSize: 0x40 }
  - { offset: 0x19BC4, size: 0x8, addend: 0x0, symName: __RINvNtNtCsdGrGZaRBwMb_3syn3gen9visit_mut25visit_impl_item_macro_mutNtNvNtCscj7Jssje0XT_11async_trait6expand35contains_associated_type_impl_trait24AssociatedTypeImplTraitsEB19_, symObjAddr: 0x292C0, symBinAddr: 0x29E90, symSize: 0x40 }
  - { offset: 0x19C06, size: 0x8, addend: 0x0, symName: __RINvNtNtCsdGrGZaRBwMb_3syn3gen9visit_mut25visit_macro_delimiter_mutNtNtCscj7Jssje0XT_11async_trait8lifetime16CollectLifetimesEB17_, symObjAddr: 0x29300, symBinAddr: 0x29ED0, symSize: 0x70 }
  - { offset: 0x19C48, size: 0x8, addend: 0x0, symName: __RINvNtNtCsdGrGZaRBwMb_3syn3gen9visit_mut25visit_macro_delimiter_mutNtNtCscj7Jssje0XT_11async_trait8lifetime22AddLifetimeToImplTraitEB17_, symObjAddr: 0x29370, symBinAddr: 0x29F40, symSize: 0x70 }
  - { offset: 0x19C8A, size: 0x8, addend: 0x0, symName: __RINvNtNtCsdGrGZaRBwMb_3syn3gen9visit_mut25visit_macro_delimiter_mutNtNtCscj7Jssje0XT_11async_trait8receiver11ReplaceSelfEB17_, symObjAddr: 0x293E0, symBinAddr: 0x29FB0, symSize: 0x70 }
  - { offset: 0x19CCC, size: 0x8, addend: 0x0, symName: __RINvNtNtCsdGrGZaRBwMb_3syn3gen9visit_mut25visit_macro_delimiter_mutNtNtCscj7Jssje0XT_11async_trait8receiver7HasSelfEB17_, symObjAddr: 0x29450, symBinAddr: 0x2A020, symSize: 0x70 }
  - { offset: 0x19D0E, size: 0x8, addend: 0x0, symName: __RINvNtNtCsdGrGZaRBwMb_3syn3gen9visit_mut25visit_macro_delimiter_mutNtNtCscj7Jssje0XT_11async_trait8receiver9HasMutPatEB17_, symObjAddr: 0x294C0, symBinAddr: 0x2A090, symSize: 0x70 }
  - { offset: 0x19D50, size: 0x8, addend: 0x0, symName: __RINvNtNtCsdGrGZaRBwMb_3syn3gen9visit_mut25visit_macro_delimiter_mutNtNvNtCscj7Jssje0XT_11async_trait6expand29replace_impl_trait_with_infer25ReplaceImplTraitWithInferEB19_, symObjAddr: 0x29530, symBinAddr: 0x2A100, symSize: 0x70 }
  - { offset: 0x19D92, size: 0x8, addend: 0x0, symName: __RINvNtNtCsdGrGZaRBwMb_3syn3gen9visit_mut25visit_macro_delimiter_mutNtNvNtCscj7Jssje0XT_11async_trait6expand35contains_associated_type_impl_trait24AssociatedTypeImplTraitsEB19_, symObjAddr: 0x295A0, symBinAddr: 0x2A170, symSize: 0x70 }
  - { offset: 0x19DD4, size: 0x8, addend: 0x0, symName: __RINvNtNtCsdGrGZaRBwMb_3syn3gen9visit_mut25visit_meta_name_value_mutNtNtCscj7Jssje0XT_11async_trait8lifetime16CollectLifetimesEB17_, symObjAddr: 0x29610, symBinAddr: 0x2A1E0, symSize: 0x40 }
  - { offset: 0x19E16, size: 0x8, addend: 0x0, symName: __RINvNtNtCsdGrGZaRBwMb_3syn3gen9visit_mut25visit_meta_name_value_mutNtNtCscj7Jssje0XT_11async_trait8lifetime22AddLifetimeToImplTraitEB17_, symObjAddr: 0x29650, symBinAddr: 0x2A220, symSize: 0x40 }
  - { offset: 0x19E58, size: 0x8, addend: 0x0, symName: __RINvNtNtCsdGrGZaRBwMb_3syn3gen9visit_mut25visit_meta_name_value_mutNtNtCscj7Jssje0XT_11async_trait8receiver11ReplaceSelfEB17_, symObjAddr: 0x29690, symBinAddr: 0x2A260, symSize: 0x40 }
  - { offset: 0x19E9A, size: 0x8, addend: 0x0, symName: __RINvNtNtCsdGrGZaRBwMb_3syn3gen9visit_mut25visit_meta_name_value_mutNtNtCscj7Jssje0XT_11async_trait8receiver7HasSelfEB17_, symObjAddr: 0x296D0, symBinAddr: 0x2A2A0, symSize: 0x40 }
  - { offset: 0x19EDC, size: 0x8, addend: 0x0, symName: __RINvNtNtCsdGrGZaRBwMb_3syn3gen9visit_mut25visit_meta_name_value_mutNtNtCscj7Jssje0XT_11async_trait8receiver9HasMutPatEB17_, symObjAddr: 0x29710, symBinAddr: 0x2A2E0, symSize: 0x40 }
  - { offset: 0x19F1E, size: 0x8, addend: 0x0, symName: __RINvNtNtCsdGrGZaRBwMb_3syn3gen9visit_mut25visit_meta_name_value_mutNtNvNtCscj7Jssje0XT_11async_trait6expand29replace_impl_trait_with_infer25ReplaceImplTraitWithInferEB19_, symObjAddr: 0x29750, symBinAddr: 0x2A320, symSize: 0x40 }
  - { offset: 0x19F60, size: 0x8, addend: 0x0, symName: __RINvNtNtCsdGrGZaRBwMb_3syn3gen9visit_mut25visit_meta_name_value_mutNtNvNtCscj7Jssje0XT_11async_trait6expand35contains_associated_type_impl_trait24AssociatedTypeImplTraitsEB19_, symObjAddr: 0x29790, symBinAddr: 0x2A360, symSize: 0x40 }
  - { offset: 0x19FA2, size: 0x8, addend: 0x0, symName: __RINvNtNtCsdGrGZaRBwMb_3syn3gen9visit_mut25visit_precise_capture_mutNtNtCscj7Jssje0XT_11async_trait8lifetime16CollectLifetimesEB17_, symObjAddr: 0x297D0, symBinAddr: 0x2A3A0, symSize: 0xB0 }
  - { offset: 0x1A03F, size: 0x8, addend: 0x0, symName: __RINvNtNtCsdGrGZaRBwMb_3syn3gen9visit_mut25visit_precise_capture_mutNtNtCscj7Jssje0XT_11async_trait8lifetime22AddLifetimeToImplTraitEB17_, symObjAddr: 0x29880, symBinAddr: 0x2A450, symSize: 0xB0 }
  - { offset: 0x1A0DC, size: 0x8, addend: 0x0, symName: __RINvNtNtCsdGrGZaRBwMb_3syn3gen9visit_mut25visit_precise_capture_mutNtNtCscj7Jssje0XT_11async_trait8receiver11ReplaceSelfEB17_, symObjAddr: 0x29930, symBinAddr: 0x2A500, symSize: 0xB0 }
  - { offset: 0x1A179, size: 0x8, addend: 0x0, symName: __RINvNtNtCsdGrGZaRBwMb_3syn3gen9visit_mut25visit_precise_capture_mutNtNtCscj7Jssje0XT_11async_trait8receiver7HasSelfEB17_, symObjAddr: 0x299E0, symBinAddr: 0x2A5B0, symSize: 0xB0 }
  - { offset: 0x1A216, size: 0x8, addend: 0x0, symName: __RINvNtNtCsdGrGZaRBwMb_3syn3gen9visit_mut25visit_precise_capture_mutNtNtCscj7Jssje0XT_11async_trait8receiver9HasMutPatEB17_, symObjAddr: 0x29A90, symBinAddr: 0x2A660, symSize: 0xB0 }
  - { offset: 0x1A2B3, size: 0x8, addend: 0x0, symName: __RINvNtNtCsdGrGZaRBwMb_3syn3gen9visit_mut25visit_precise_capture_mutNtNvNtCscj7Jssje0XT_11async_trait6expand29replace_impl_trait_with_infer25ReplaceImplTraitWithInferEB19_, symObjAddr: 0x29B40, symBinAddr: 0x2A710, symSize: 0xB0 }
  - { offset: 0x1A350, size: 0x8, addend: 0x0, symName: __RINvNtNtCsdGrGZaRBwMb_3syn3gen9visit_mut25visit_precise_capture_mutNtNvNtCscj7Jssje0XT_11async_trait6expand35contains_associated_type_impl_trait24AssociatedTypeImplTraitsEB19_, symObjAddr: 0x29BF0, symBinAddr: 0x2A7C0, symSize: 0xB0 }
  - { offset: 0x1A3ED, size: 0x8, addend: 0x0, symName: __RINvNtNtCsdGrGZaRBwMb_3syn3gen9visit_mut25visit_trait_item_type_mutNtNtCscj7Jssje0XT_11async_trait8lifetime16CollectLifetimesEB17_, symObjAddr: 0x29CA0, symBinAddr: 0x2A870, symSize: 0x150 }
  - { offset: 0x1A4A8, size: 0x8, addend: 0x0, symName: __RINvNtNtCsdGrGZaRBwMb_3syn3gen9visit_mut25visit_trait_item_type_mutNtNtCscj7Jssje0XT_11async_trait8receiver9HasMutPatEB17_, symObjAddr: 0x29DF0, symBinAddr: 0x2A9C0, symSize: 0x150 }
  - { offset: 0x1A563, size: 0x8, addend: 0x0, symName: __RINvNtNtCsdGrGZaRBwMb_3syn3gen9visit_mut25visit_trait_item_type_mutNtNvNtCscj7Jssje0XT_11async_trait6expand29replace_impl_trait_with_infer25ReplaceImplTraitWithInferEB19_, symObjAddr: 0x29F40, symBinAddr: 0x2AB10, symSize: 0x150 }
  - { offset: 0x1A61E, size: 0x8, addend: 0x0, symName: __RINvNtNtCsdGrGZaRBwMb_3syn3gen9visit_mut25visit_trait_item_type_mutNtNvNtCscj7Jssje0XT_11async_trait6expand35contains_associated_type_impl_trait24AssociatedTypeImplTraitsEB19_, symObjAddr: 0x2A090, symBinAddr: 0x2AC60, symSize: 0x150 }
  - { offset: 0x1A6D9, size: 0x8, addend: 0x0, symName: __RINvNtNtCsdGrGZaRBwMb_3syn3gen9visit_mut25visit_type_impl_trait_mutNtNtCscj7Jssje0XT_11async_trait8lifetime16CollectLifetimesEB17_, symObjAddr: 0x2A1E0, symBinAddr: 0x2ADB0, symSize: 0xB0 }
  - { offset: 0x1A776, size: 0x8, addend: 0x0, symName: __RINvNtNtCsdGrGZaRBwMb_3syn3gen9visit_mut25visit_type_impl_trait_mutNtNtCscj7Jssje0XT_11async_trait8lifetime22AddLifetimeToImplTraitEB17_, symObjAddr: 0x2A290, symBinAddr: 0x2AE60, symSize: 0xB0 }
  - { offset: 0x1A813, size: 0x8, addend: 0x0, symName: __RINvNtNtCsdGrGZaRBwMb_3syn3gen9visit_mut25visit_type_impl_trait_mutNtNtCscj7Jssje0XT_11async_trait8receiver11ReplaceSelfEB17_, symObjAddr: 0x2A340, symBinAddr: 0x2AF10, symSize: 0xB0 }
  - { offset: 0x1A8B0, size: 0x8, addend: 0x0, symName: __RINvNtNtCsdGrGZaRBwMb_3syn3gen9visit_mut25visit_type_impl_trait_mutNtNtCscj7Jssje0XT_11async_trait8receiver7HasSelfEB17_, symObjAddr: 0x2A3F0, symBinAddr: 0x2AFC0, symSize: 0xB0 }
  - { offset: 0x1A94D, size: 0x8, addend: 0x0, symName: __RINvNtNtCsdGrGZaRBwMb_3syn3gen9visit_mut25visit_type_impl_trait_mutNtNtCscj7Jssje0XT_11async_trait8receiver9HasMutPatEB17_, symObjAddr: 0x2A4A0, symBinAddr: 0x2B070, symSize: 0xB0 }
  - { offset: 0x1A9EA, size: 0x8, addend: 0x0, symName: __RINvNtNtCsdGrGZaRBwMb_3syn3gen9visit_mut25visit_type_impl_trait_mutNtNvNtCscj7Jssje0XT_11async_trait6expand29replace_impl_trait_with_infer25ReplaceImplTraitWithInferEB19_, symObjAddr: 0x2A550, symBinAddr: 0x2B120, symSize: 0xB0 }
  - { offset: 0x1AA87, size: 0x8, addend: 0x0, symName: __RINvNtNtCsdGrGZaRBwMb_3syn3gen9visit_mut25visit_type_impl_trait_mutNtNvNtCscj7Jssje0XT_11async_trait6expand35contains_associated_type_impl_trait24AssociatedTypeImplTraitsEB19_, symObjAddr: 0x2A600, symBinAddr: 0x2B1D0, symSize: 0xB0 }
  - { offset: 0x1AB24, size: 0x8, addend: 0x0, symName: __RINvNtNtCsdGrGZaRBwMb_3syn3gen9visit_mut25visit_where_predicate_mutNtNtCscj7Jssje0XT_11async_trait8lifetime16CollectLifetimesEB17_, symObjAddr: 0x2A6B0, symBinAddr: 0x2B280, symSize: 0x70 }
  - { offset: 0x1AB9A, size: 0x8, addend: 0x0, symName: __RINvNtNtCsdGrGZaRBwMb_3syn3gen9visit_mut25visit_where_predicate_mutNtNtCscj7Jssje0XT_11async_trait8receiver7HasSelfEB17_, symObjAddr: 0x2A720, symBinAddr: 0x2B2F0, symSize: 0x70 }
  - { offset: 0x1AC10, size: 0x8, addend: 0x0, symName: __RINvNtNtCsdGrGZaRBwMb_3syn3gen9visit_mut25visit_where_predicate_mutNtNtCscj7Jssje0XT_11async_trait8receiver9HasMutPatEB17_, symObjAddr: 0x2A790, symBinAddr: 0x2B360, symSize: 0x70 }
  - { offset: 0x1AC86, size: 0x8, addend: 0x0, symName: __RINvNtNtCsdGrGZaRBwMb_3syn3gen9visit_mut25visit_where_predicate_mutNtNvNtCscj7Jssje0XT_11async_trait6expand29replace_impl_trait_with_infer25ReplaceImplTraitWithInferEB19_, symObjAddr: 0x2A800, symBinAddr: 0x2B3D0, symSize: 0x70 }
  - { offset: 0x1ACFC, size: 0x8, addend: 0x0, symName: __RINvNtNtCsdGrGZaRBwMb_3syn3gen9visit_mut25visit_where_predicate_mutNtNvNtCscj7Jssje0XT_11async_trait6expand35contains_associated_type_impl_trait24AssociatedTypeImplTraitsEB19_, symObjAddr: 0x2A870, symBinAddr: 0x2B440, symSize: 0x70 }
  - { offset: 0x1AD72, size: 0x8, addend: 0x0, symName: __RINvNtNtCsdGrGZaRBwMb_3syn3gen9visit_mut26visit_expr_method_call_mutNtNtCscj7Jssje0XT_11async_trait8lifetime16CollectLifetimesEB18_, symObjAddr: 0x2A8E0, symBinAddr: 0x2B4B0, symSize: 0x1B0 }
  - { offset: 0x1AE25, size: 0x8, addend: 0x0, symName: __RINvNtNtCsdGrGZaRBwMb_3syn3gen9visit_mut26visit_expr_method_call_mutNtNtCscj7Jssje0XT_11async_trait8receiver11ReplaceSelfEB18_, symObjAddr: 0x2AA90, symBinAddr: 0x2B660, symSize: 0x1B0 }
  - { offset: 0x1AED8, size: 0x8, addend: 0x0, symName: __RINvNtNtCsdGrGZaRBwMb_3syn3gen9visit_mut26visit_expr_method_call_mutNtNtCscj7Jssje0XT_11async_trait8receiver7HasSelfEB18_, symObjAddr: 0x2AC40, symBinAddr: 0x2B810, symSize: 0x1B0 }
  - { offset: 0x1AF8B, size: 0x8, addend: 0x0, symName: __RINvNtNtCsdGrGZaRBwMb_3syn3gen9visit_mut26visit_expr_method_call_mutNtNtCscj7Jssje0XT_11async_trait8receiver9HasMutPatEB18_, symObjAddr: 0x2ADF0, symBinAddr: 0x2B9C0, symSize: 0x1B0 }
  - { offset: 0x1B03E, size: 0x8, addend: 0x0, symName: __RINvNtNtCsdGrGZaRBwMb_3syn3gen9visit_mut26visit_expr_method_call_mutNtNvNtCscj7Jssje0XT_11async_trait6expand29replace_impl_trait_with_infer25ReplaceImplTraitWithInferEB1a_, symObjAddr: 0x2AFA0, symBinAddr: 0x2BB70, symSize: 0x1B0 }
  - { offset: 0x1B0F1, size: 0x8, addend: 0x0, symName: __RINvNtNtCsdGrGZaRBwMb_3syn3gen9visit_mut26visit_expr_method_call_mutNtNvNtCscj7Jssje0XT_11async_trait6expand35contains_associated_type_impl_trait24AssociatedTypeImplTraitsEB1a_, symObjAddr: 0x2B150, symBinAddr: 0x2BD20, symSize: 0x1B0 }
  - { offset: 0x1B1A4, size: 0x8, addend: 0x0, symName: __RINvNtNtCsdGrGZaRBwMb_3syn3gen9visit_mut26visit_field_mutability_mutNtNtCscj7Jssje0XT_11async_trait8lifetime16CollectLifetimesEB18_, symObjAddr: 0x2B300, symBinAddr: 0x2BED0, symSize: 0x20 }
  - { offset: 0x1B1E6, size: 0x8, addend: 0x0, symName: __RINvNtNtCsdGrGZaRBwMb_3syn3gen9visit_mut26visit_field_mutability_mutNtNtCscj7Jssje0XT_11async_trait8receiver9HasMutPatEB18_, symObjAddr: 0x2B320, symBinAddr: 0x2BEF0, symSize: 0x20 }
  - { offset: 0x1B228, size: 0x8, addend: 0x0, symName: __RINvNtNtCsdGrGZaRBwMb_3syn3gen9visit_mut26visit_field_mutability_mutNtNvNtCscj7Jssje0XT_11async_trait6expand29replace_impl_trait_with_infer25ReplaceImplTraitWithInferEB1a_, symObjAddr: 0x2B340, symBinAddr: 0x2BF10, symSize: 0x20 }
  - { offset: 0x1B26A, size: 0x8, addend: 0x0, symName: __RINvNtNtCsdGrGZaRBwMb_3syn3gen9visit_mut26visit_field_mutability_mutNtNvNtCscj7Jssje0XT_11async_trait6expand35contains_associated_type_impl_trait24AssociatedTypeImplTraitsEB1a_, symObjAddr: 0x2B360, symBinAddr: 0x2BF30, symSize: 0x20 }
  - { offset: 0x1B2AC, size: 0x8, addend: 0x0, symName: __RINvNtNtCsdGrGZaRBwMb_3syn3gen9visit_mut26visit_generic_argument_mutNtNtCscj7Jssje0XT_11async_trait8lifetime16CollectLifetimesEB18_, symObjAddr: 0x2B380, symBinAddr: 0x2BF50, symSize: 0x120 }
  - { offset: 0x1B39A, size: 0x8, addend: 0x0, symName: __RINvNtNtCsdGrGZaRBwMb_3syn3gen9visit_mut26visit_generic_argument_mutNtNtCscj7Jssje0XT_11async_trait8lifetime22AddLifetimeToImplTraitEB18_, symObjAddr: 0x2B4A0, symBinAddr: 0x2C070, symSize: 0x120 }
  - { offset: 0x1B488, size: 0x8, addend: 0x0, symName: __RINvNtNtCsdGrGZaRBwMb_3syn3gen9visit_mut26visit_generic_argument_mutNtNtCscj7Jssje0XT_11async_trait8receiver11ReplaceSelfEB18_, symObjAddr: 0x2B5C0, symBinAddr: 0x2C190, symSize: 0x120 }
  - { offset: 0x1B576, size: 0x8, addend: 0x0, symName: __RINvNtNtCsdGrGZaRBwMb_3syn3gen9visit_mut26visit_generic_argument_mutNtNtCscj7Jssje0XT_11async_trait8receiver7HasSelfEB18_, symObjAddr: 0x2B6E0, symBinAddr: 0x2C2B0, symSize: 0x120 }
  - { offset: 0x1B664, size: 0x8, addend: 0x0, symName: __RINvNtNtCsdGrGZaRBwMb_3syn3gen9visit_mut26visit_generic_argument_mutNtNtCscj7Jssje0XT_11async_trait8receiver9HasMutPatEB18_, symObjAddr: 0x2B800, symBinAddr: 0x2C3D0, symSize: 0x120 }
  - { offset: 0x1B752, size: 0x8, addend: 0x0, symName: __RINvNtNtCsdGrGZaRBwMb_3syn3gen9visit_mut26visit_generic_argument_mutNtNvNtCscj7Jssje0XT_11async_trait6expand29replace_impl_trait_with_infer25ReplaceImplTraitWithInferEB1a_, symObjAddr: 0x2B920, symBinAddr: 0x2C4F0, symSize: 0x120 }
  - { offset: 0x1B840, size: 0x8, addend: 0x0, symName: __RINvNtNtCsdGrGZaRBwMb_3syn3gen9visit_mut26visit_generic_argument_mutNtNvNtCscj7Jssje0XT_11async_trait6expand35contains_associated_type_impl_trait24AssociatedTypeImplTraitsEB1a_, symObjAddr: 0x2BA40, symBinAddr: 0x2C610, symSize: 0x120 }
  - { offset: 0x1B92E, size: 0x8, addend: 0x0, symName: __RINvNtNtCsdGrGZaRBwMb_3syn3gen9visit_mut26visit_item_foreign_mod_mutNtNtCscj7Jssje0XT_11async_trait8lifetime16CollectLifetimesEB18_, symObjAddr: 0x2BB60, symBinAddr: 0x2C730, symSize: 0xA0 }
  - { offset: 0x1B9AC, size: 0x8, addend: 0x0, symName: __RINvNtNtCsdGrGZaRBwMb_3syn3gen9visit_mut26visit_item_foreign_mod_mutNtNtCscj7Jssje0XT_11async_trait8receiver9HasMutPatEB18_, symObjAddr: 0x2BC00, symBinAddr: 0x2C7D0, symSize: 0xA0 }
  - { offset: 0x1BA2A, size: 0x8, addend: 0x0, symName: __RINvNtNtCsdGrGZaRBwMb_3syn3gen9visit_mut26visit_item_foreign_mod_mutNtNvNtCscj7Jssje0XT_11async_trait6expand29replace_impl_trait_with_infer25ReplaceImplTraitWithInferEB1a_, symObjAddr: 0x2BCA0, symBinAddr: 0x2C870, symSize: 0xA0 }
  - { offset: 0x1BAA8, size: 0x8, addend: 0x0, symName: __RINvNtNtCsdGrGZaRBwMb_3syn3gen9visit_mut26visit_item_foreign_mod_mutNtNvNtCscj7Jssje0XT_11async_trait6expand35contains_associated_type_impl_trait24AssociatedTypeImplTraitsEB1a_, symObjAddr: 0x2BD40, symBinAddr: 0x2C910, symSize: 0xA0 }
  - { offset: 0x1BB26, size: 0x8, addend: 0x0, symName: __RINvNtNtCsdGrGZaRBwMb_3syn3gen9visit_mut26visit_item_trait_alias_mutNtNtCscj7Jssje0XT_11async_trait8lifetime16CollectLifetimesEB18_, symObjAddr: 0x2BDE0, symBinAddr: 0x2C9B0, symSize: 0x110 }
  - { offset: 0x1BBC3, size: 0x8, addend: 0x0, symName: __RINvNtNtCsdGrGZaRBwMb_3syn3gen9visit_mut26visit_item_trait_alias_mutNtNtCscj7Jssje0XT_11async_trait8receiver9HasMutPatEB18_, symObjAddr: 0x2BEF0, symBinAddr: 0x2CAC0, symSize: 0x110 }
  - { offset: 0x1BC60, size: 0x8, addend: 0x0, symName: __RINvNtNtCsdGrGZaRBwMb_3syn3gen9visit_mut26visit_item_trait_alias_mutNtNvNtCscj7Jssje0XT_11async_trait6expand29replace_impl_trait_with_infer25ReplaceImplTraitWithInferEB1a_, symObjAddr: 0x2C000, symBinAddr: 0x2CBD0, symSize: 0x110 }
  - { offset: 0x1BCFD, size: 0x8, addend: 0x0, symName: __RINvNtNtCsdGrGZaRBwMb_3syn3gen9visit_mut26visit_item_trait_alias_mutNtNvNtCscj7Jssje0XT_11async_trait6expand35contains_associated_type_impl_trait24AssociatedTypeImplTraitsEB1a_, symObjAddr: 0x2C110, symBinAddr: 0x2CCE0, symSize: 0x110 }
  - { offset: 0x1BD9A, size: 0x8, addend: 0x0, symName: __RINvNtNtCsdGrGZaRBwMb_3syn3gen9visit_mut26visit_pat_tuple_struct_mutNtNtCscj7Jssje0XT_11async_trait8lifetime16CollectLifetimesEB18_, symObjAddr: 0x2C220, symBinAddr: 0x2CDF0, symSize: 0x130 }
  - { offset: 0x1BE55, size: 0x8, addend: 0x0, symName: __RINvNtNtCsdGrGZaRBwMb_3syn3gen9visit_mut26visit_pat_tuple_struct_mutNtNtCscj7Jssje0XT_11async_trait8receiver11ReplaceSelfEB18_, symObjAddr: 0x2C350, symBinAddr: 0x2CF20, symSize: 0x130 }
  - { offset: 0x1BF10, size: 0x8, addend: 0x0, symName: __RINvNtNtCsdGrGZaRBwMb_3syn3gen9visit_mut26visit_pat_tuple_struct_mutNtNtCscj7Jssje0XT_11async_trait8receiver7HasSelfEB18_, symObjAddr: 0x2C480, symBinAddr: 0x2D050, symSize: 0x130 }
  - { offset: 0x1BFCB, size: 0x8, addend: 0x0, symName: __RINvNtNtCsdGrGZaRBwMb_3syn3gen9visit_mut26visit_pat_tuple_struct_mutNtNtCscj7Jssje0XT_11async_trait8receiver9HasMutPatEB18_, symObjAddr: 0x2C5B0, symBinAddr: 0x2D180, symSize: 0x130 }
  - { offset: 0x1C086, size: 0x8, addend: 0x0, symName: __RINvNtNtCsdGrGZaRBwMb_3syn3gen9visit_mut26visit_pat_tuple_struct_mutNtNvNtCscj7Jssje0XT_11async_trait6expand29replace_impl_trait_with_infer25ReplaceImplTraitWithInferEB1a_, symObjAddr: 0x2C6E0, symBinAddr: 0x2D2B0, symSize: 0x130 }
  - { offset: 0x1C141, size: 0x8, addend: 0x0, symName: __RINvNtNtCsdGrGZaRBwMb_3syn3gen9visit_mut26visit_pat_tuple_struct_mutNtNvNtCscj7Jssje0XT_11async_trait6expand35contains_associated_type_impl_trait24AssociatedTypeImplTraitsEB1a_, symObjAddr: 0x2C810, symBinAddr: 0x2D3E0, symSize: 0x130 }
  - { offset: 0x1C1FC, size: 0x8, addend: 0x0, symName: __RINvNtNtCsdGrGZaRBwMb_3syn3gen9visit_mut26visit_trait_item_const_mutNtNtCscj7Jssje0XT_11async_trait8lifetime16CollectLifetimesEB18_, symObjAddr: 0x2C940, symBinAddr: 0x2D510, symSize: 0xC0 }
  - { offset: 0x1C25C, size: 0x8, addend: 0x0, symName: __RINvNtNtCsdGrGZaRBwMb_3syn3gen9visit_mut26visit_trait_item_const_mutNtNtCscj7Jssje0XT_11async_trait8receiver9HasMutPatEB18_, symObjAddr: 0x2CA00, symBinAddr: 0x2D5D0, symSize: 0xC0 }
  - { offset: 0x1C2BC, size: 0x8, addend: 0x0, symName: __RINvNtNtCsdGrGZaRBwMb_3syn3gen9visit_mut26visit_trait_item_const_mutNtNvNtCscj7Jssje0XT_11async_trait6expand29replace_impl_trait_with_infer25ReplaceImplTraitWithInferEB1a_, symObjAddr: 0x2CAC0, symBinAddr: 0x2D690, symSize: 0xC0 }
  - { offset: 0x1C31C, size: 0x8, addend: 0x0, symName: __RINvNtNtCsdGrGZaRBwMb_3syn3gen9visit_mut26visit_trait_item_const_mutNtNvNtCscj7Jssje0XT_11async_trait6expand35contains_associated_type_impl_trait24AssociatedTypeImplTraitsEB1a_, symObjAddr: 0x2CB80, symBinAddr: 0x2D750, symSize: 0xC0 }
  - { offset: 0x1C37C, size: 0x8, addend: 0x0, symName: __RINvNtNtCsdGrGZaRBwMb_3syn3gen9visit_mut26visit_trait_item_macro_mutNtNtCscj7Jssje0XT_11async_trait8lifetime16CollectLifetimesEB18_, symObjAddr: 0x2CC40, symBinAddr: 0x2D810, symSize: 0x40 }
  - { offset: 0x1C3BE, size: 0x8, addend: 0x0, symName: __RINvNtNtCsdGrGZaRBwMb_3syn3gen9visit_mut26visit_trait_item_macro_mutNtNtCscj7Jssje0XT_11async_trait8receiver9HasMutPatEB18_, symObjAddr: 0x2CC80, symBinAddr: 0x2D850, symSize: 0x40 }
  - { offset: 0x1C400, size: 0x8, addend: 0x0, symName: __RINvNtNtCsdGrGZaRBwMb_3syn3gen9visit_mut26visit_trait_item_macro_mutNtNvNtCscj7Jssje0XT_11async_trait6expand29replace_impl_trait_with_infer25ReplaceImplTraitWithInferEB1a_, symObjAddr: 0x2CCC0, symBinAddr: 0x2D890, symSize: 0x40 }
  - { offset: 0x1C442, size: 0x8, addend: 0x0, symName: __RINvNtNtCsdGrGZaRBwMb_3syn3gen9visit_mut26visit_trait_item_macro_mutNtNvNtCscj7Jssje0XT_11async_trait6expand35contains_associated_type_impl_trait24AssociatedTypeImplTraitsEB1a_, symObjAddr: 0x2CD00, symBinAddr: 0x2D8D0, symSize: 0x40 }
  - { offset: 0x1C484, size: 0x8, addend: 0x0, symName: __RINvNtNtCsdGrGZaRBwMb_3syn3gen9visit_mut26visit_type_param_bound_mutNtNtCscj7Jssje0XT_11async_trait8lifetime16CollectLifetimesEB18_, symObjAddr: 0x2CD40, symBinAddr: 0x2D910, symSize: 0xE0 }
  - { offset: 0x1C536, size: 0x8, addend: 0x0, symName: __RINvNtNtCsdGrGZaRBwMb_3syn3gen9visit_mut26visit_type_param_bound_mutNtNtCscj7Jssje0XT_11async_trait8lifetime22AddLifetimeToImplTraitEB18_, symObjAddr: 0x2CE20, symBinAddr: 0x2D9F0, symSize: 0xE0 }
  - { offset: 0x1C5E8, size: 0x8, addend: 0x0, symName: __RINvNtNtCsdGrGZaRBwMb_3syn3gen9visit_mut26visit_type_param_bound_mutNtNtCscj7Jssje0XT_11async_trait8receiver11ReplaceSelfEB18_, symObjAddr: 0x2CF00, symBinAddr: 0x2DAD0, symSize: 0xE0 }
  - { offset: 0x1C69A, size: 0x8, addend: 0x0, symName: __RINvNtNtCsdGrGZaRBwMb_3syn3gen9visit_mut26visit_type_param_bound_mutNtNtCscj7Jssje0XT_11async_trait8receiver7HasSelfEB18_, symObjAddr: 0x2CFE0, symBinAddr: 0x2DBB0, symSize: 0xE0 }
  - { offset: 0x1C74C, size: 0x8, addend: 0x0, symName: __RINvNtNtCsdGrGZaRBwMb_3syn3gen9visit_mut26visit_type_param_bound_mutNtNtCscj7Jssje0XT_11async_trait8receiver9HasMutPatEB18_, symObjAddr: 0x2D0C0, symBinAddr: 0x2DC90, symSize: 0xE0 }
  - { offset: 0x1C7FE, size: 0x8, addend: 0x0, symName: __RINvNtNtCsdGrGZaRBwMb_3syn3gen9visit_mut26visit_type_param_bound_mutNtNvNtCscj7Jssje0XT_11async_trait6expand29replace_impl_trait_with_infer25ReplaceImplTraitWithInferEB1a_, symObjAddr: 0x2D1A0, symBinAddr: 0x2DD70, symSize: 0xE0 }
  - { offset: 0x1C8B0, size: 0x8, addend: 0x0, symName: __RINvNtNtCsdGrGZaRBwMb_3syn3gen9visit_mut26visit_type_param_bound_mutNtNvNtCscj7Jssje0XT_11async_trait6expand35contains_associated_type_impl_trait24AssociatedTypeImplTraitsEB1a_, symObjAddr: 0x2D280, symBinAddr: 0x2DE50, symSize: 0xE0 }
  - { offset: 0x1C962, size: 0x8, addend: 0x0, symName: __RINvNtNtCsdGrGZaRBwMb_3syn3gen9visit_mut27visit_foreign_item_type_mutNtNtCscj7Jssje0XT_11async_trait8lifetime16CollectLifetimesEB19_, symObjAddr: 0x2D360, symBinAddr: 0x2DF30, symSize: 0x70 }
  - { offset: 0x1C9A4, size: 0x8, addend: 0x0, symName: __RINvNtNtCsdGrGZaRBwMb_3syn3gen9visit_mut27visit_foreign_item_type_mutNtNtCscj7Jssje0XT_11async_trait8receiver9HasMutPatEB19_, symObjAddr: 0x2D3D0, symBinAddr: 0x2DFA0, symSize: 0x70 }
  - { offset: 0x1C9E6, size: 0x8, addend: 0x0, symName: __RINvNtNtCsdGrGZaRBwMb_3syn3gen9visit_mut27visit_foreign_item_type_mutNtNvNtCscj7Jssje0XT_11async_trait6expand29replace_impl_trait_with_infer25ReplaceImplTraitWithInferEB1b_, symObjAddr: 0x2D440, symBinAddr: 0x2E010, symSize: 0x70 }
  - { offset: 0x1CA28, size: 0x8, addend: 0x0, symName: __RINvNtNtCsdGrGZaRBwMb_3syn3gen9visit_mut27visit_foreign_item_type_mutNtNvNtCscj7Jssje0XT_11async_trait6expand35contains_associated_type_impl_trait24AssociatedTypeImplTraitsEB1b_, symObjAddr: 0x2D4B0, symBinAddr: 0x2E080, symSize: 0x70 }
  - { offset: 0x1CA6A, size: 0x8, addend: 0x0, symName: __RINvNtNtCsdGrGZaRBwMb_3syn3gen9visit_mut27visit_item_extern_crate_mutNtNtCscj7Jssje0XT_11async_trait8lifetime16CollectLifetimesEB19_, symObjAddr: 0x2D520, symBinAddr: 0x2E0F0, symSize: 0xA0 }
  - { offset: 0x1CACA, size: 0x8, addend: 0x0, symName: __RINvNtNtCsdGrGZaRBwMb_3syn3gen9visit_mut27visit_item_extern_crate_mutNtNtCscj7Jssje0XT_11async_trait8receiver9HasMutPatEB19_, symObjAddr: 0x2D5C0, symBinAddr: 0x2E190, symSize: 0xA0 }
  - { offset: 0x1CB2A, size: 0x8, addend: 0x0, symName: __RINvNtNtCsdGrGZaRBwMb_3syn3gen9visit_mut27visit_item_extern_crate_mutNtNvNtCscj7Jssje0XT_11async_trait6expand29replace_impl_trait_with_infer25ReplaceImplTraitWithInferEB1b_, symObjAddr: 0x2D660, symBinAddr: 0x2E230, symSize: 0xA0 }
  - { offset: 0x1CB8A, size: 0x8, addend: 0x0, symName: __RINvNtNtCsdGrGZaRBwMb_3syn3gen9visit_mut27visit_item_extern_crate_mutNtNvNtCscj7Jssje0XT_11async_trait6expand35contains_associated_type_impl_trait24AssociatedTypeImplTraitsEB1b_, symObjAddr: 0x2D700, symBinAddr: 0x2E2D0, symSize: 0xA0 }
  - { offset: 0x1CBEA, size: 0x8, addend: 0x0, symName: __RINvNtNtCsdGrGZaRBwMb_3syn3gen9visit_mut27visit_static_mutability_mutNtNtCscj7Jssje0XT_11async_trait8lifetime16CollectLifetimesEB19_, symObjAddr: 0x2D7A0, symBinAddr: 0x2E370, symSize: 0x40 }
  - { offset: 0x1CC2C, size: 0x8, addend: 0x0, symName: __RINvNtNtCsdGrGZaRBwMb_3syn3gen9visit_mut27visit_static_mutability_mutNtNtCscj7Jssje0XT_11async_trait8receiver9HasMutPatEB19_, symObjAddr: 0x2D7E0, symBinAddr: 0x2E3B0, symSize: 0x40 }
  - { offset: 0x1CC6E, size: 0x8, addend: 0x0, symName: __RINvNtNtCsdGrGZaRBwMb_3syn3gen9visit_mut27visit_static_mutability_mutNtNvNtCscj7Jssje0XT_11async_trait6expand29replace_impl_trait_with_infer25ReplaceImplTraitWithInferEB1b_, symObjAddr: 0x2D820, symBinAddr: 0x2E3F0, symSize: 0x40 }
  - { offset: 0x1CCB0, size: 0x8, addend: 0x0, symName: __RINvNtNtCsdGrGZaRBwMb_3syn3gen9visit_mut27visit_static_mutability_mutNtNvNtCscj7Jssje0XT_11async_trait6expand35contains_associated_type_impl_trait24AssociatedTypeImplTraitsEB1b_, symObjAddr: 0x2D860, symBinAddr: 0x2E430, symSize: 0x40 }
  - { offset: 0x1CCF2, size: 0x8, addend: 0x0, symName: __RINvNtNtCsdGrGZaRBwMb_3syn3gen9visit_mut27visit_type_trait_object_mutNtNtCscj7Jssje0XT_11async_trait8lifetime16CollectLifetimesEB19_, symObjAddr: 0x2D8A0, symBinAddr: 0x2E470, symSize: 0xB0 }
  - { offset: 0x1CD8F, size: 0x8, addend: 0x0, symName: __RINvNtNtCsdGrGZaRBwMb_3syn3gen9visit_mut27visit_type_trait_object_mutNtNtCscj7Jssje0XT_11async_trait8lifetime22AddLifetimeToImplTraitEB19_, symObjAddr: 0x2D950, symBinAddr: 0x2E520, symSize: 0xB0 }
  - { offset: 0x1CE2C, size: 0x8, addend: 0x0, symName: __RINvNtNtCsdGrGZaRBwMb_3syn3gen9visit_mut27visit_type_trait_object_mutNtNtCscj7Jssje0XT_11async_trait8receiver11ReplaceSelfEB19_, symObjAddr: 0x2DA00, symBinAddr: 0x2E5D0, symSize: 0xB0 }
  - { offset: 0x1CEC9, size: 0x8, addend: 0x0, symName: __RINvNtNtCsdGrGZaRBwMb_3syn3gen9visit_mut27visit_type_trait_object_mutNtNtCscj7Jssje0XT_11async_trait8receiver7HasSelfEB19_, symObjAddr: 0x2DAB0, symBinAddr: 0x2E680, symSize: 0xB0 }
  - { offset: 0x1CF66, size: 0x8, addend: 0x0, symName: __RINvNtNtCsdGrGZaRBwMb_3syn3gen9visit_mut27visit_type_trait_object_mutNtNtCscj7Jssje0XT_11async_trait8receiver9HasMutPatEB19_, symObjAddr: 0x2DB60, symBinAddr: 0x2E730, symSize: 0xB0 }
  - { offset: 0x1D003, size: 0x8, addend: 0x0, symName: __RINvNtNtCsdGrGZaRBwMb_3syn3gen9visit_mut27visit_type_trait_object_mutNtNvNtCscj7Jssje0XT_11async_trait6expand29replace_impl_trait_with_infer25ReplaceImplTraitWithInferEB1b_, symObjAddr: 0x2DC10, symBinAddr: 0x2E7E0, symSize: 0xB0 }
  - { offset: 0x1D0A0, size: 0x8, addend: 0x0, symName: __RINvNtNtCsdGrGZaRBwMb_3syn3gen9visit_mut27visit_type_trait_object_mutNtNvNtCscj7Jssje0XT_11async_trait6expand35contains_associated_type_impl_trait24AssociatedTypeImplTraitsEB1b_, symObjAddr: 0x2DCC0, symBinAddr: 0x2E890, symSize: 0xB0 }
  - { offset: 0x1D13D, size: 0x8, addend: 0x0, symName: __RINvNtNtCsdGrGZaRBwMb_3syn3gen9visit_mut28visit_foreign_item_macro_mutNtNtCscj7Jssje0XT_11async_trait8lifetime16CollectLifetimesEB1a_, symObjAddr: 0x2DD70, symBinAddr: 0x2E940, symSize: 0x40 }
  - { offset: 0x1D17F, size: 0x8, addend: 0x0, symName: __RINvNtNtCsdGrGZaRBwMb_3syn3gen9visit_mut28visit_foreign_item_macro_mutNtNtCscj7Jssje0XT_11async_trait8receiver9HasMutPatEB1a_, symObjAddr: 0x2DDB0, symBinAddr: 0x2E980, symSize: 0x40 }
  - { offset: 0x1D1C1, size: 0x8, addend: 0x0, symName: __RINvNtNtCsdGrGZaRBwMb_3syn3gen9visit_mut28visit_foreign_item_macro_mutNtNvNtCscj7Jssje0XT_11async_trait6expand29replace_impl_trait_with_infer25ReplaceImplTraitWithInferEB1c_, symObjAddr: 0x2DDF0, symBinAddr: 0x2E9C0, symSize: 0x40 }
  - { offset: 0x1D203, size: 0x8, addend: 0x0, symName: __RINvNtNtCsdGrGZaRBwMb_3syn3gen9visit_mut28visit_foreign_item_macro_mutNtNvNtCscj7Jssje0XT_11async_trait6expand35contains_associated_type_impl_trait24AssociatedTypeImplTraitsEB1c_, symObjAddr: 0x2DE30, symBinAddr: 0x2EA00, symSize: 0x40 }
  - { offset: 0x1D245, size: 0x8, addend: 0x0, symName: __RINvNtNtCsdGrGZaRBwMb_3syn3gen9visit_mut28visit_pointer_mutability_mutNtNtCscj7Jssje0XT_11async_trait8lifetime16CollectLifetimesEB1a_, symObjAddr: 0x2DE70, symBinAddr: 0x2EA40, symSize: 0x50 }
  - { offset: 0x1D287, size: 0x8, addend: 0x0, symName: __RINvNtNtCsdGrGZaRBwMb_3syn3gen9visit_mut28visit_pointer_mutability_mutNtNtCscj7Jssje0XT_11async_trait8receiver11ReplaceSelfEB1a_, symObjAddr: 0x2DEC0, symBinAddr: 0x2EA90, symSize: 0x50 }
  - { offset: 0x1D2C9, size: 0x8, addend: 0x0, symName: __RINvNtNtCsdGrGZaRBwMb_3syn3gen9visit_mut28visit_pointer_mutability_mutNtNtCscj7Jssje0XT_11async_trait8receiver7HasSelfEB1a_, symObjAddr: 0x2DF10, symBinAddr: 0x2EAE0, symSize: 0x50 }
  - { offset: 0x1D30B, size: 0x8, addend: 0x0, symName: __RINvNtNtCsdGrGZaRBwMb_3syn3gen9visit_mut28visit_pointer_mutability_mutNtNtCscj7Jssje0XT_11async_trait8receiver9HasMutPatEB1a_, symObjAddr: 0x2DF60, symBinAddr: 0x2EB30, symSize: 0x50 }
  - { offset: 0x1D34D, size: 0x8, addend: 0x0, symName: __RINvNtNtCsdGrGZaRBwMb_3syn3gen9visit_mut28visit_pointer_mutability_mutNtNvNtCscj7Jssje0XT_11async_trait6expand29replace_impl_trait_with_infer25ReplaceImplTraitWithInferEB1c_, symObjAddr: 0x2DFB0, symBinAddr: 0x2EB80, symSize: 0x50 }
  - { offset: 0x1D38F, size: 0x8, addend: 0x0, symName: __RINvNtNtCsdGrGZaRBwMb_3syn3gen9visit_mut28visit_pointer_mutability_mutNtNvNtCscj7Jssje0XT_11async_trait6expand35contains_associated_type_impl_trait24AssociatedTypeImplTraitsEB1c_, symObjAddr: 0x2E000, symBinAddr: 0x2EBD0, symSize: 0x50 }
  - { offset: 0x1D3D1, size: 0x8, addend: 0x0, symName: __RINvNtNtCsdGrGZaRBwMb_3syn3gen9visit_mut28visit_predicate_lifetime_mutNtNtCscj7Jssje0XT_11async_trait8lifetime16CollectLifetimesEB1a_, symObjAddr: 0x2E050, symBinAddr: 0x2EC20, symSize: 0xD0 }
  - { offset: 0x1D46E, size: 0x8, addend: 0x0, symName: __RINvNtNtCsdGrGZaRBwMb_3syn3gen9visit_mut28visit_predicate_lifetime_mutNtNtCscj7Jssje0XT_11async_trait8receiver7HasSelfEB1a_, symObjAddr: 0x2E120, symBinAddr: 0x2ECF0, symSize: 0xD0 }
  - { offset: 0x1D50B, size: 0x8, addend: 0x0, symName: __RINvNtNtCsdGrGZaRBwMb_3syn3gen9visit_mut28visit_predicate_lifetime_mutNtNtCscj7Jssje0XT_11async_trait8receiver9HasMutPatEB1a_, symObjAddr: 0x2E1F0, symBinAddr: 0x2EDC0, symSize: 0xD0 }
  - { offset: 0x1D5A8, size: 0x8, addend: 0x0, symName: __RINvNtNtCsdGrGZaRBwMb_3syn3gen9visit_mut28visit_predicate_lifetime_mutNtNvNtCscj7Jssje0XT_11async_trait6expand29replace_impl_trait_with_infer25ReplaceImplTraitWithInferEB1c_, symObjAddr: 0x2E2C0, symBinAddr: 0x2EE90, symSize: 0xD0 }
  - { offset: 0x1D645, size: 0x8, addend: 0x0, symName: __RINvNtNtCsdGrGZaRBwMb_3syn3gen9visit_mut28visit_predicate_lifetime_mutNtNvNtCscj7Jssje0XT_11async_trait6expand35contains_associated_type_impl_trait24AssociatedTypeImplTraitsEB1c_, symObjAddr: 0x2E390, symBinAddr: 0x2EF60, symSize: 0xD0 }
  - { offset: 0x1D6E2, size: 0x8, addend: 0x0, symName: __RINvNtNtCsdGrGZaRBwMb_3syn3gen9visit_mut29visit_foreign_item_static_mutNtNtCscj7Jssje0XT_11async_trait8lifetime16CollectLifetimesEB1b_, symObjAddr: 0x2E460, symBinAddr: 0x2F030, symSize: 0xC0 }
  - { offset: 0x1D724, size: 0x8, addend: 0x0, symName: __RINvNtNtCsdGrGZaRBwMb_3syn3gen9visit_mut29visit_foreign_item_static_mutNtNtCscj7Jssje0XT_11async_trait8receiver9HasMutPatEB1b_, symObjAddr: 0x2E520, symBinAddr: 0x2F0F0, symSize: 0xC0 }
  - { offset: 0x1D766, size: 0x8, addend: 0x0, symName: __RINvNtNtCsdGrGZaRBwMb_3syn3gen9visit_mut29visit_foreign_item_static_mutNtNvNtCscj7Jssje0XT_11async_trait6expand29replace_impl_trait_with_infer25ReplaceImplTraitWithInferEB1d_, symObjAddr: 0x2E5E0, symBinAddr: 0x2F1B0, symSize: 0xC0 }
  - { offset: 0x1D7A8, size: 0x8, addend: 0x0, symName: __RINvNtNtCsdGrGZaRBwMb_3syn3gen9visit_mut29visit_foreign_item_static_mutNtNvNtCscj7Jssje0XT_11async_trait6expand35contains_associated_type_impl_trait24AssociatedTypeImplTraitsEB1d_, symObjAddr: 0x2E6A0, symBinAddr: 0x2F270, symSize: 0xC0 }
  - { offset: 0x1D7EA, size: 0x8, addend: 0x0, symName: __RINvNtNtCsdGrGZaRBwMb_3syn3gen9visit_mut30visit_trait_bound_modifier_mutNtNtCscj7Jssje0XT_11async_trait8lifetime16CollectLifetimesEB1c_, symObjAddr: 0x2E760, symBinAddr: 0x2F330, symSize: 0x40 }
  - { offset: 0x1D82C, size: 0x8, addend: 0x0, symName: __RINvNtNtCsdGrGZaRBwMb_3syn3gen9visit_mut30visit_trait_bound_modifier_mutNtNtCscj7Jssje0XT_11async_trait8lifetime22AddLifetimeToImplTraitEB1c_, symObjAddr: 0x2E7A0, symBinAddr: 0x2F370, symSize: 0x40 }
  - { offset: 0x1D86E, size: 0x8, addend: 0x0, symName: __RINvNtNtCsdGrGZaRBwMb_3syn3gen9visit_mut30visit_trait_bound_modifier_mutNtNtCscj7Jssje0XT_11async_trait8receiver11ReplaceSelfEB1c_, symObjAddr: 0x2E7E0, symBinAddr: 0x2F3B0, symSize: 0x40 }
  - { offset: 0x1D8B0, size: 0x8, addend: 0x0, symName: __RINvNtNtCsdGrGZaRBwMb_3syn3gen9visit_mut30visit_trait_bound_modifier_mutNtNtCscj7Jssje0XT_11async_trait8receiver7HasSelfEB1c_, symObjAddr: 0x2E820, symBinAddr: 0x2F3F0, symSize: 0x40 }
  - { offset: 0x1D8F2, size: 0x8, addend: 0x0, symName: __RINvNtNtCsdGrGZaRBwMb_3syn3gen9visit_mut30visit_trait_bound_modifier_mutNtNtCscj7Jssje0XT_11async_trait8receiver9HasMutPatEB1c_, symObjAddr: 0x2E860, symBinAddr: 0x2F430, symSize: 0x40 }
  - { offset: 0x1D934, size: 0x8, addend: 0x0, symName: __RINvNtNtCsdGrGZaRBwMb_3syn3gen9visit_mut30visit_trait_bound_modifier_mutNtNvNtCscj7Jssje0XT_11async_trait6expand29replace_impl_trait_with_infer25ReplaceImplTraitWithInferEB1e_, symObjAddr: 0x2E8A0, symBinAddr: 0x2F470, symSize: 0x40 }
  - { offset: 0x1D976, size: 0x8, addend: 0x0, symName: __RINvNtNtCsdGrGZaRBwMb_3syn3gen9visit_mut30visit_trait_bound_modifier_mutNtNvNtCscj7Jssje0XT_11async_trait6expand35contains_associated_type_impl_trait24AssociatedTypeImplTraitsEB1e_, symObjAddr: 0x2E8E0, symBinAddr: 0x2F4B0, symSize: 0x40 }
  - { offset: 0x1D9B8, size: 0x8, addend: 0x0, symName: __RINvNtNtCsdGrGZaRBwMb_3syn3gen9visit_mut41visit_parenthesized_generic_arguments_mutNtNtCscj7Jssje0XT_11async_trait8lifetime16CollectLifetimesEB1n_, symObjAddr: 0x2E920, symBinAddr: 0x2F4F0, symSize: 0xD0 }
  - { offset: 0x1DA55, size: 0x8, addend: 0x0, symName: __RINvNtNtCsdGrGZaRBwMb_3syn3gen9visit_mut41visit_parenthesized_generic_arguments_mutNtNtCscj7Jssje0XT_11async_trait8lifetime22AddLifetimeToImplTraitEB1n_, symObjAddr: 0x2E9F0, symBinAddr: 0x2F5C0, symSize: 0xD0 }
  - { offset: 0x1DAF2, size: 0x8, addend: 0x0, symName: __RINvNtNtCsdGrGZaRBwMb_3syn3gen9visit_mut41visit_parenthesized_generic_arguments_mutNtNtCscj7Jssje0XT_11async_trait8receiver11ReplaceSelfEB1n_, symObjAddr: 0x2EAC0, symBinAddr: 0x2F690, symSize: 0xD0 }
  - { offset: 0x1DB8F, size: 0x8, addend: 0x0, symName: __RINvNtNtCsdGrGZaRBwMb_3syn3gen9visit_mut41visit_parenthesized_generic_arguments_mutNtNtCscj7Jssje0XT_11async_trait8receiver7HasSelfEB1n_, symObjAddr: 0x2EB90, symBinAddr: 0x2F760, symSize: 0xD0 }
  - { offset: 0x1DC2C, size: 0x8, addend: 0x0, symName: __RINvNtNtCsdGrGZaRBwMb_3syn3gen9visit_mut41visit_parenthesized_generic_arguments_mutNtNtCscj7Jssje0XT_11async_trait8receiver9HasMutPatEB1n_, symObjAddr: 0x2EC60, symBinAddr: 0x2F830, symSize: 0xD0 }
  - { offset: 0x1DCC9, size: 0x8, addend: 0x0, symName: __RINvNtNtCsdGrGZaRBwMb_3syn3gen9visit_mut41visit_parenthesized_generic_arguments_mutNtNvNtCscj7Jssje0XT_11async_trait6expand29replace_impl_trait_with_infer25ReplaceImplTraitWithInferEB1p_, symObjAddr: 0x2ED30, symBinAddr: 0x2F900, symSize: 0xD0 }
  - { offset: 0x1DD66, size: 0x8, addend: 0x0, symName: __RINvNtNtCsdGrGZaRBwMb_3syn3gen9visit_mut41visit_parenthesized_generic_arguments_mutNtNvNtCscj7Jssje0XT_11async_trait6expand35contains_associated_type_impl_trait24AssociatedTypeImplTraitsEB1p_, symObjAddr: 0x2EE00, symBinAddr: 0x2F9D0, symSize: 0xD0 }
  - { offset: 0x1DE03, size: 0x8, addend: 0x0, symName: __RINvNtNtCsdGrGZaRBwMb_3syn3gen9visit_mut43visit_angle_bracketed_generic_arguments_mutNtNtCscj7Jssje0XT_11async_trait8lifetime16CollectLifetimesEB1p_, symObjAddr: 0x2EED0, symBinAddr: 0x2FAA0, symSize: 0xB0 }
  - { offset: 0x1DEA0, size: 0x8, addend: 0x0, symName: __RINvNtNtCsdGrGZaRBwMb_3syn3gen9visit_mut43visit_angle_bracketed_generic_arguments_mutNtNtCscj7Jssje0XT_11async_trait8lifetime22AddLifetimeToImplTraitEB1p_, symObjAddr: 0x2EF80, symBinAddr: 0x2FB50, symSize: 0xB0 }
  - { offset: 0x1DF3D, size: 0x8, addend: 0x0, symName: __RINvNtNtCsdGrGZaRBwMb_3syn3gen9visit_mut43visit_angle_bracketed_generic_arguments_mutNtNtCscj7Jssje0XT_11async_trait8receiver11ReplaceSelfEB1p_, symObjAddr: 0x2F030, symBinAddr: 0x2FC00, symSize: 0xB0 }
  - { offset: 0x1DFDA, size: 0x8, addend: 0x0, symName: __RINvNtNtCsdGrGZaRBwMb_3syn3gen9visit_mut43visit_angle_bracketed_generic_arguments_mutNtNtCscj7Jssje0XT_11async_trait8receiver7HasSelfEB1p_, symObjAddr: 0x2F0E0, symBinAddr: 0x2FCB0, symSize: 0xB0 }
  - { offset: 0x1E077, size: 0x8, addend: 0x0, symName: __RINvNtNtCsdGrGZaRBwMb_3syn3gen9visit_mut43visit_angle_bracketed_generic_arguments_mutNtNtCscj7Jssje0XT_11async_trait8receiver9HasMutPatEB1p_, symObjAddr: 0x2F190, symBinAddr: 0x2FD60, symSize: 0xB0 }
  - { offset: 0x1E114, size: 0x8, addend: 0x0, symName: __RINvNtNtCsdGrGZaRBwMb_3syn3gen9visit_mut43visit_angle_bracketed_generic_arguments_mutNtNvNtCscj7Jssje0XT_11async_trait6expand29replace_impl_trait_with_infer25ReplaceImplTraitWithInferEB1r_, symObjAddr: 0x2F240, symBinAddr: 0x2FE10, symSize: 0xB0 }
  - { offset: 0x1E1B1, size: 0x8, addend: 0x0, symName: __RINvNtNtCsdGrGZaRBwMb_3syn3gen9visit_mut43visit_angle_bracketed_generic_arguments_mutNtNvNtCscj7Jssje0XT_11async_trait6expand35contains_associated_type_impl_trait24AssociatedTypeImplTraitsEB1r_, symObjAddr: 0x2F2F0, symBinAddr: 0x2FEC0, symSize: 0xB0 }
  - { offset: 0x2948C, size: 0x8, addend: 0x0, symName: __RINvMNtNtNtCslJiobkLta79_5alloc11collections5btree4nodeINtB3_8LeafNodeNtCsaKzlTDPUHDb_11proc_macro25IdentNtNtB5_7set_val9SetValZSTE3newNtNtB9_5alloc6GlobalECscj7Jssje0XT_11async_trait, symObjAddr: 0x0, symBinAddr: 0x2FF70, symSize: 0x60 }
  - { offset: 0x2F220, size: 0x8, addend: 0x0, symName: __RINvNtNtNtCslJiobkLta79_5alloc11collections5btree4node12slice_insertINtNtNtCsieiGu2EXtoJ_4core3ptr8non_null7NonNullINtB2_8LeafNodeNtCsaKzlTDPUHDb_11proc_macro25IdentNtNtB4_7set_val9SetValZSTEEECscj7Jssje0XT_11async_trait, symObjAddr: 0x2D40, symBinAddr: 0x32CB0, symSize: 0x130 }
  - { offset: 0x2F386, size: 0x8, addend: 0x0, symName: __RINvNtNtNtCslJiobkLta79_5alloc11collections5btree4node12slice_insertNtCsaKzlTDPUHDb_11proc_macro25IdentECscj7Jssje0XT_11async_trait, symObjAddr: 0x2E70, symBinAddr: 0x32DE0, symSize: 0x180 }
  - { offset: 0x2F50D, size: 0x8, addend: 0x0, symName: __RINvNtNtNtCslJiobkLta79_5alloc11collections5btree4node12slice_insertNtNtB4_7set_val9SetValZSTECscj7Jssje0XT_11async_trait, symObjAddr: 0x2FF0, symBinAddr: 0x32F60, symSize: 0xB0 }
  - { offset: 0x2F626, size: 0x8, addend: 0x0, symName: __RINvNtNtNtCslJiobkLta79_5alloc11collections5btree4node13move_to_sliceINtNtNtCsieiGu2EXtoJ_4core3ptr8non_null7NonNullINtB2_8LeafNodeNtCsaKzlTDPUHDb_11proc_macro25IdentNtNtB4_7set_val9SetValZSTEEECscj7Jssje0XT_11async_trait, symObjAddr: 0x30A0, symBinAddr: 0x33010, symSize: 0x90 }
  - { offset: 0x2F6D2, size: 0x8, addend: 0x0, symName: __RINvNtNtNtCslJiobkLta79_5alloc11collections5btree4node13move_to_sliceNtCsaKzlTDPUHDb_11proc_macro25IdentECscj7Jssje0XT_11async_trait, symObjAddr: 0x3130, symBinAddr: 0x330A0, symSize: 0xA0 }
  - { offset: 0x2F77E, size: 0x8, addend: 0x0, symName: __RINvNtNtNtCslJiobkLta79_5alloc11collections5btree4node13move_to_sliceNtNtB4_7set_val9SetValZSTECscj7Jssje0XT_11async_trait, symObjAddr: 0x31D0, symBinAddr: 0x33140, symSize: 0xA0 }
  - { offset: 0x2F834, size: 0x8, addend: 0x0, symName: __RNCINvMss_NtNtNtCslJiobkLta79_5alloc11collections5btree4nodeINtB8_7NodeRefNtNtB8_6marker5OwnedNtCsaKzlTDPUHDb_11proc_macro25IdentNtNtBa_7set_val9SetValZSTNtB1c_14LeafOrInternalE19push_internal_levelNtNtBe_5alloc6GlobalE0Cscj7Jssje0XT_11async_trait, symObjAddr: 0x3270, symBinAddr: 0x331E0, symSize: 0x30 }
  - { offset: 0x2FB90, size: 0x8, addend: 0x0, symName: __RNvXNvMsT_NtNtNtCslJiobkLta79_5alloc11collections5btree4nodeINtB8_6HandleINtB8_7NodeRefNtNtB8_6marker5DyingpppENtB1p_2KVE12drop_key_valINtB2_7DropperNtNtBa_7set_val9SetValZSTENtNtNtCsieiGu2EXtoJ_4core3ops4drop4Drop4dropCscj7Jssje0XT_11async_trait, symObjAddr: 0x5600, symBinAddr: 0x35570, symSize: 0x20 }
  - { offset: 0x305AC, size: 0x8, addend: 0x0, symName: __RINvMNtNtNtCslJiobkLta79_5alloc11collections5btree4nodeINtB3_8LeafNodeNtCsaKzlTDPUHDb_11proc_macro25IdentNtNtB5_7set_val9SetValZSTE3newNtNtB9_5alloc6GlobalECscj7Jssje0XT_11async_trait, symObjAddr: 0x0, symBinAddr: 0x2FF70, symSize: 0x60 }
  - { offset: 0x308F0, size: 0x8, addend: 0x0, symName: __RINvMs0_NtNtNtCslJiobkLta79_5alloc11collections5btree6searchINtNtB8_4node7NodeRefNtNtBZ_6marker3MutNtCsaKzlTDPUHDb_11proc_macro25IdentNtNtB8_7set_val9SetValZSTNtB1j_14LeafOrInternalE14find_key_indexB1z_ECscj7Jssje0XT_11async_trait, symObjAddr: 0x60, symBinAddr: 0x2FFD0, symSize: 0x240 }
  - { offset: 0x30CE2, size: 0x8, addend: 0x0, symName: __RINvMs0_NtNtNtCslJiobkLta79_5alloc11collections5btree6searchINtNtB8_4node7NodeRefNtNtBZ_6marker5ImmutNtCsaKzlTDPUHDb_11proc_macro25IdentNtNtB8_7set_val9SetValZSTNtB1j_14LeafOrInternalE14find_key_indexB1B_ECscj7Jssje0XT_11async_trait, symObjAddr: 0x2A0, symBinAddr: 0x30210, symSize: 0x240 }
  - { offset: 0x31077, size: 0x8, addend: 0x0, symName: __RINvMs9_NtNtNtCslJiobkLta79_5alloc11collections5btree4nodeINtB6_7NodeRefNtNtB6_6marker5OwnedNtCsaKzlTDPUHDb_11proc_macro25IdentNtNtB8_7set_val9SetValZSTNtB1a_8InternalE12new_internalNtNtBc_5alloc6GlobalECscj7Jssje0XT_11async_trait, symObjAddr: 0x4E0, symBinAddr: 0x30450, symSize: 0x90 }
  - { offset: 0x312C8, size: 0x8, addend: 0x0, symName: __RINvMs9_NtNtNtCslJiobkLta79_5alloc11collections5btree4nodeINtB6_7NodeRefNtNtB6_6marker5OwnedNtCsaKzlTDPUHDb_11proc_macro25IdentNtNtB8_7set_val9SetValZSTNtB1a_8InternalE17from_new_internalNtNtBc_5alloc6GlobalECscj7Jssje0XT_11async_trait, symObjAddr: 0x570, symBinAddr: 0x304E0, symSize: 0xD0 }
  - { offset: 0x31710, size: 0x8, addend: 0x0, symName: __RINvMsK_NtNtNtCslJiobkLta79_5alloc11collections5btree4nodeINtB6_6HandleINtB6_7NodeRefNtNtB6_6marker3MutNtCsaKzlTDPUHDb_11proc_macro25IdentNtNtB8_7set_val9SetValZSTNtB1n_4LeafENtB1n_4EdgeE6insertNtNtBc_5alloc6GlobalECscj7Jssje0XT_11async_trait, symObjAddr: 0x640, symBinAddr: 0x305B0, symSize: 0x6F0 }
  - { offset: 0x31B35, size: 0x8, addend: 0x0, symName: __RINvMsM_NtNtNtCslJiobkLta79_5alloc11collections5btree4nodeINtB6_6HandleINtB6_7NodeRefNtNtB6_6marker3MutNtCsaKzlTDPUHDb_11proc_macro25IdentNtNtB8_7set_val9SetValZSTNtB1n_8InternalENtB1n_4EdgeE6insertNtNtBc_5alloc6GlobalECscj7Jssje0XT_11async_trait, symObjAddr: 0xD30, symBinAddr: 0x30CA0, symSize: 0x6B0 }
  - { offset: 0x31E34, size: 0x8, addend: 0x0, symName: __RINvMsN_NtNtNtCslJiobkLta79_5alloc11collections5btree4nodeINtB6_6HandleINtB6_7NodeRefNtNtB6_6marker3MutNtCsaKzlTDPUHDb_11proc_macro25IdentNtNtB8_7set_val9SetValZSTNtB1n_4LeafENtB1n_4EdgeE16insert_recursingNtNtBc_5alloc6GlobalNCNvMs6_NtNtB8_3map5entryINtB3J_11VacantEntryB1D_B2c_E12insert_entry0ECscj7Jssje0XT_11async_trait, symObjAddr: 0x13E0, symBinAddr: 0x31350, symSize: 0x650 }
  - { offset: 0x320D8, size: 0x8, addend: 0x0, symName: __RINvMsV_NtNtNtCslJiobkLta79_5alloc11collections5btree4nodeINtB6_6HandleINtB6_7NodeRefNtNtB6_6marker3MutNtCsaKzlTDPUHDb_11proc_macro25IdentNtNtB8_7set_val9SetValZSTNtB1n_4LeafENtB1n_2KVE5splitNtNtBc_5alloc6GlobalECscj7Jssje0XT_11async_trait, symObjAddr: 0x1A30, symBinAddr: 0x319A0, symSize: 0xB0 }
  - { offset: 0x322F0, size: 0x8, addend: 0x0, symName: __RINvMsW_NtNtNtCslJiobkLta79_5alloc11collections5btree4nodeINtB6_6HandleINtB6_7NodeRefNtNtB6_6marker3MutNtCsaKzlTDPUHDb_11proc_macro25IdentNtNtB8_7set_val9SetValZSTNtB1n_8InternalENtB1n_2KVE5splitNtNtBc_5alloc6GlobalECscj7Jssje0XT_11async_trait, symObjAddr: 0x1AE0, symBinAddr: 0x31A50, symSize: 0x340 }
  - { offset: 0x326E7, size: 0x8, addend: 0x0, symName: __RINvMs_NtNtNtCslJiobkLta79_5alloc11collections5btree4nodeINtB5_12InternalNodeNtCsaKzlTDPUHDb_11proc_macro25IdentNtNtB7_7set_val9SetValZSTE3newNtNtBb_5alloc6GlobalECscj7Jssje0XT_11async_trait, symObjAddr: 0x1E20, symBinAddr: 0x31D90, symSize: 0x60 }
  - { offset: 0x329E2, size: 0x8, addend: 0x0, symName: __RINvMs_NtNtNtCslJiobkLta79_5alloc11collections5btree6searchINtNtB7_4node7NodeRefNtNtBY_6marker3MutNtCsaKzlTDPUHDb_11proc_macro25IdentNtNtB7_7set_val9SetValZSTNtB1i_14LeafOrInternalE11search_treeB1y_ECscj7Jssje0XT_11async_trait, symObjAddr: 0x1E80, symBinAddr: 0x31DF0, symSize: 0x3A0 }
  - { offset: 0x32D6E, size: 0x8, addend: 0x0, symName: __RINvMs_NtNtNtCslJiobkLta79_5alloc11collections5btree6searchINtNtB7_4node7NodeRefNtNtBY_6marker5ImmutNtCsaKzlTDPUHDb_11proc_macro25IdentNtNtB7_7set_val9SetValZSTNtB1i_14LeafOrInternalE11search_treeB1A_ECscj7Jssje0XT_11async_trait, symObjAddr: 0x2220, symBinAddr: 0x32190, symSize: 0x3A0 }
  - { offset: 0x3304C, size: 0x8, addend: 0x0, symName: __RINvMsh_NtNtNtCslJiobkLta79_5alloc11collections5btree4nodeINtB6_7NodeRefNtNtB6_6marker5DyingNtCsaKzlTDPUHDb_11proc_macro25IdentNtNtB8_7set_val9SetValZSTNtB1a_14LeafOrInternalE21deallocate_and_ascendNtNtBc_5alloc6GlobalECscj7Jssje0XT_11async_trait, symObjAddr: 0x25C0, symBinAddr: 0x32530, symSize: 0x1A0 }
  - { offset: 0x332A0, size: 0x8, addend: 0x0, symName: __RINvMsj_NtNtNtCslJiobkLta79_5alloc11collections5btree8navigateINtNtB8_4node6HandleINtB11_7NodeRefNtNtB11_6marker5DyingNtCsaKzlTDPUHDb_11proc_macro25IdentNtNtB8_7set_val9SetValZSTNtB1z_4LeafENtB1z_4EdgeE16deallocating_endNtNtBc_5alloc6GlobalECscj7Jssje0XT_11async_trait, symObjAddr: 0x2760, symBinAddr: 0x326D0, symSize: 0xF0 }
  - { offset: 0x33516, size: 0x8, addend: 0x0, symName: __RINvMsj_NtNtNtCslJiobkLta79_5alloc11collections5btree8navigateINtNtB8_4node6HandleINtB11_7NodeRefNtNtB11_6marker5DyingNtCsaKzlTDPUHDb_11proc_macro25IdentNtNtB8_7set_val9SetValZSTNtB1z_4LeafENtB1z_4EdgeE17deallocating_nextNtNtBc_5alloc6GlobalECscj7Jssje0XT_11async_trait, symObjAddr: 0x2850, symBinAddr: 0x327C0, symSize: 0x370 }
  - { offset: 0x33778, size: 0x8, addend: 0x0, symName: __RINvMsp_NtNtNtCslJiobkLta79_5alloc11collections5btree4nodeINtB6_7NodeRefNtNtB6_6marker3MutNtCsaKzlTDPUHDb_11proc_macro25IdentNtNtB8_7set_val9SetValZSTNtB1a_8InternalE30correct_childrens_parent_linksINtNtNtCsieiGu2EXtoJ_4core3ops5range14RangeInclusivejEECscj7Jssje0XT_11async_trait, symObjAddr: 0x2BC0, symBinAddr: 0x32B30, symSize: 0xC0 }
  - { offset: 0x338B0, size: 0x8, addend: 0x0, symName: __RINvMsp_NtNtNtCslJiobkLta79_5alloc11collections5btree4nodeINtB6_7NodeRefNtNtB6_6marker3MutNtCsaKzlTDPUHDb_11proc_macro25IdentNtNtB8_7set_val9SetValZSTNtB1a_8InternalE30correct_childrens_parent_linksINtNtNtCsieiGu2EXtoJ_4core3ops5range5RangejEECscj7Jssje0XT_11async_trait, symObjAddr: 0x2C80, symBinAddr: 0x32BF0, symSize: 0xC0 }
  - { offset: 0x33CBF, size: 0x8, addend: 0x0, symName: __RNvMsJ_NtNtNtCslJiobkLta79_5alloc11collections5btree4nodeINtB5_6HandleINtB5_7NodeRefNtNtB5_6marker3MutNtCsaKzlTDPUHDb_11proc_macro25IdentNtNtB7_7set_val9SetValZSTNtB1m_4LeafENtB1m_4EdgeE10insert_fitCscj7Jssje0XT_11async_trait, symObjAddr: 0x32A0, symBinAddr: 0x33210, symSize: 0x250 }
  - { offset: 0x3413A, size: 0x8, addend: 0x0, symName: __RNvMsL_NtNtNtCslJiobkLta79_5alloc11collections5btree4nodeINtB5_6HandleINtB5_7NodeRefNtNtB5_6marker3MutNtCsaKzlTDPUHDb_11proc_macro25IdentNtNtB7_7set_val9SetValZSTNtB1m_8InternalENtB1m_4EdgeE19correct_parent_linkCscj7Jssje0XT_11async_trait, symObjAddr: 0x34F0, symBinAddr: 0x33460, symSize: 0xA0 }
  - { offset: 0x34470, size: 0x8, addend: 0x0, symName: __RNvMsM_NtNtNtCslJiobkLta79_5alloc11collections5btree4nodeINtB5_6HandleINtB5_7NodeRefNtNtB5_6marker3MutNtCsaKzlTDPUHDb_11proc_macro25IdentNtNtB7_7set_val9SetValZSTNtB1m_8InternalENtB1m_4EdgeE10insert_fitCscj7Jssje0XT_11async_trait, symObjAddr: 0x3590, symBinAddr: 0x33500, symSize: 0x320 }
  - { offset: 0x349A7, size: 0x8, addend: 0x0, symName: __RNvMsO_NtNtNtCslJiobkLta79_5alloc11collections5btree4nodeINtB5_6HandleINtB5_7NodeRefNtNtB5_6marker3MutNtCsaKzlTDPUHDb_11proc_macro25IdentNtNtB7_7set_val9SetValZSTNtB1m_8InternalENtB1m_4EdgeE7descendCscj7Jssje0XT_11async_trait, symObjAddr: 0x38B0, symBinAddr: 0x33820, symSize: 0x80 }
  - { offset: 0x34B77, size: 0x8, addend: 0x0, symName: __RNvMsO_NtNtNtCslJiobkLta79_5alloc11collections5btree4nodeINtB5_6HandleINtB5_7NodeRefNtNtB5_6marker5DyingNtCsaKzlTDPUHDb_11proc_macro25IdentNtNtB7_7set_val9SetValZSTNtB1m_8InternalENtB1m_4EdgeE7descendCscj7Jssje0XT_11async_trait, symObjAddr: 0x3930, symBinAddr: 0x338A0, symSize: 0x80 }
  - { offset: 0x34D47, size: 0x8, addend: 0x0, symName: __RNvMsO_NtNtNtCslJiobkLta79_5alloc11collections5btree4nodeINtB5_6HandleINtB5_7NodeRefNtNtB5_6marker5ImmutNtCsaKzlTDPUHDb_11proc_macro25IdentNtNtB7_7set_val9SetValZSTNtB1m_8InternalENtB1m_4EdgeE7descendCscj7Jssje0XT_11async_trait, symObjAddr: 0x39B0, symBinAddr: 0x33920, symSize: 0x80 }
  - { offset: 0x35025, size: 0x8, addend: 0x0, symName: __RNvMsP_NtNtNtCslJiobkLta79_5alloc11collections5btree4nodeINtB5_6HandleINtB5_7NodeRefNtNtB5_6marker5ImmutNtCsaKzlTDPUHDb_11proc_macro25IdentNtNtB7_7set_val9SetValZSTNtB1m_14LeafOrInternalENtB1m_2KVE7into_kvCscj7Jssje0XT_11async_trait, symObjAddr: 0x3A30, symBinAddr: 0x339A0, symSize: 0xE0 }
  - { offset: 0x352B5, size: 0x8, addend: 0x0, symName: __RNvMsQ_NtNtNtCslJiobkLta79_5alloc11collections5btree4nodeINtB5_6HandleINtB5_7NodeRefNtNtB5_6marker3MutNtCsaKzlTDPUHDb_11proc_macro25IdentNtNtB7_7set_val9SetValZSTNtB1m_14LeafOrInternalENtB1m_2KVE12into_val_mutCscj7Jssje0XT_11async_trait, symObjAddr: 0x3B10, symBinAddr: 0x33A80, symSize: 0x80 }
  - { offset: 0x35487, size: 0x8, addend: 0x0, symName: __RNvMsS_NtNtNtCslJiobkLta79_5alloc11collections5btree4nodeINtB5_6HandleINtB5_7NodeRefNtNtB5_6marker3MutNtCsaKzlTDPUHDb_11proc_macro25IdentNtNtB7_7set_val9SetValZSTNtB1m_14LeafOrInternalENtB1m_2KVE6kv_mutCscj7Jssje0XT_11async_trait, symObjAddr: 0x3B90, symBinAddr: 0x33B00, symSize: 0x100 }
  - { offset: 0x35709, size: 0x8, addend: 0x0, symName: __RNvMsT_NtNtNtCslJiobkLta79_5alloc11collections5btree4nodeINtB5_6HandleINtB5_7NodeRefNtNtB5_6marker5DyingNtCsaKzlTDPUHDb_11proc_macro25IdentNtNtB7_7set_val9SetValZSTNtB1m_14LeafOrInternalENtB1m_2KVE12drop_key_valCscj7Jssje0XT_11async_trait, symObjAddr: 0x3C90, symBinAddr: 0x33C00, symSize: 0x130 }
  - { offset: 0x35B6B, size: 0x8, addend: 0x0, symName: __RNvMsU_NtNtNtCslJiobkLta79_5alloc11collections5btree4nodeINtB5_6HandleINtB5_7NodeRefNtNtB5_6marker3MutNtCsaKzlTDPUHDb_11proc_macro25IdentNtNtB7_7set_val9SetValZSTNtB1m_4LeafENtB1m_2KVE15split_leaf_dataCscj7Jssje0XT_11async_trait, symObjAddr: 0x3DC0, symBinAddr: 0x33D30, symSize: 0x520 }
  - { offset: 0x36590, size: 0x8, addend: 0x0, symName: __RNvMsU_NtNtNtCslJiobkLta79_5alloc11collections5btree4nodeINtB5_6HandleINtB5_7NodeRefNtNtB5_6marker3MutNtCsaKzlTDPUHDb_11proc_macro25IdentNtNtB7_7set_val9SetValZSTNtB1m_8InternalENtB1m_2KVE15split_leaf_dataCscj7Jssje0XT_11async_trait, symObjAddr: 0x42E0, symBinAddr: 0x34250, symSize: 0x520 }
  - { offset: 0x36E5C, size: 0x8, addend: 0x0, symName: __RNvMse_NtNtNtCslJiobkLta79_5alloc11collections5btree4nodeINtB5_7NodeRefNtNtB5_6marker3MutNtCsaKzlTDPUHDb_11proc_macro25IdentNtNtB7_7set_val9SetValZSTNtB19_14LeafOrInternalE6ascendCscj7Jssje0XT_11async_trait, symObjAddr: 0x4800, symBinAddr: 0x34770, symSize: 0x230 }
  - { offset: 0x370BC, size: 0x8, addend: 0x0, symName: __RNvMse_NtNtNtCslJiobkLta79_5alloc11collections5btree4nodeINtB5_7NodeRefNtNtB5_6marker5DyingNtCsaKzlTDPUHDb_11proc_macro25IdentNtNtB7_7set_val9SetValZSTNtB19_14LeafOrInternalE6ascendCscj7Jssje0XT_11async_trait, symObjAddr: 0x4A30, symBinAddr: 0x349A0, symSize: 0x230 }
  - { offset: 0x372B8, size: 0x8, addend: 0x0, symName: __RNvMsg_NtNtNtCslJiobkLta79_5alloc11collections5btree4nodeINtB5_7NodeRefNtNtB5_6marker5ImmutNtCsaKzlTDPUHDb_11proc_macro25IdentNtNtB7_7set_val9SetValZSTNtB19_14LeafOrInternalE4keysCscj7Jssje0XT_11async_trait, symObjAddr: 0x4C60, symBinAddr: 0x34BD0, symSize: 0x90 }
  - { offset: 0x37629, size: 0x8, addend: 0x0, symName: __RNvMsp_NtNtNtCslJiobkLta79_5alloc11collections5btree8navigateINtNtB7_4node6HandleINtB10_7NodeRefNtNtB10_6marker5DyingNtCsaKzlTDPUHDb_11proc_macro25IdentNtNtB7_7set_val9SetValZSTNtB1y_14LeafOrInternalENtB1y_2KVE14next_leaf_edgeCscj7Jssje0XT_11async_trait, symObjAddr: 0x4CF0, symBinAddr: 0x34C60, symSize: 0x320 }
  - { offset: 0x37A5A, size: 0x8, addend: 0x0, symName: __RNvMsu_NtNtNtCslJiobkLta79_5alloc11collections5btree4nodeINtB5_7NodeRefNtNtB5_6marker3MutNtCsaKzlTDPUHDb_11proc_macro25IdentNtNtB7_7set_val9SetValZSTNtB19_4LeafE16push_with_handleCscj7Jssje0XT_11async_trait, symObjAddr: 0x5010, symBinAddr: 0x34F80, symSize: 0x270 }
  - { offset: 0x3801A, size: 0x8, addend: 0x0, symName: __RNvMsv_NtNtNtCslJiobkLta79_5alloc11collections5btree4nodeINtB5_7NodeRefNtNtB5_6marker3MutNtCsaKzlTDPUHDb_11proc_macro25IdentNtNtB7_7set_val9SetValZSTNtB19_8InternalE4pushCscj7Jssje0XT_11async_trait, symObjAddr: 0x5280, symBinAddr: 0x351F0, symSize: 0x380 }
  - { offset: 0x3849D, size: 0x8, addend: 0x0, symName: __RINvMNtCsieiGu2EXtoJ_4core6optionINtB3_6OptionINtNtCsdGrGZaRBwMb_3syn10punctuated4PairQNtNtBN_2ty4TypeQNtNtBN_5token5CommaEE7or_elseNCNvXsg_BL_INtBL_8PairsMutB1n_B1D_ENtNtNtNtB5_4iter6traits8iterator8Iterator4nexts_0ECscj7Jssje0XT_11async_trait, symObjAddr: 0x0, symBinAddr: 0x35590, symSize: 0xB0 }
  - { offset: 0x3886A, size: 0x8, addend: 0x0, symName: __RNvXsR_NtCscKtU6MdFI5n_10proc_macro6bridgeINtNtCsieiGu2EXtoJ_4core6option6OptionNtNtB5_6client11TokenStreamEINtNtB5_3rpc6EncodeuE6encodeCscj7Jssje0XT_11async_trait, symObjAddr: 0x3B90, symBinAddr: 0x39120, symSize: 0xB0 }
  - { offset: 0x38910, size: 0x8, addend: 0x0, symName: __RNvXsR_NtCscKtU6MdFI5n_10proc_macro6bridgeINtNtCsieiGu2EXtoJ_4core6option6OptionReEINtNtB5_3rpc6EncodeuE6encodeCscj7Jssje0XT_11async_trait, symObjAddr: 0x3C40, symBinAddr: 0x391D0, symSize: 0xC0 }
  - { offset: 0x3DE74, size: 0x8, addend: 0x0, symName: __RNvXs6_NtCsieiGu2EXtoJ_4core6optionINtB5_6OptionQNtNtCsdGrGZaRBwMb_3syn2ty4TypeENtNtNtNtB7_4iter6traits7collect12IntoIterator9into_iterCscj7Jssje0XT_11async_trait, symObjAddr: 0x3AB0, symBinAddr: 0x39040, symSize: 0x10 }
  - { offset: 0x3DEAB, size: 0x8, addend: 0x0, symName: __RNvXs6_NtCsieiGu2EXtoJ_4core6optionINtB5_6OptionQNtNtCsdGrGZaRBwMb_3syn2ty9BareFnArgENtNtNtNtB7_4iter6traits7collect12IntoIterator9into_iterCscj7Jssje0XT_11async_trait, symObjAddr: 0x3AC0, symBinAddr: 0x39050, symSize: 0x10 }
  - { offset: 0x3DEE2, size: 0x8, addend: 0x0, symName: __RNvXs6_NtCsieiGu2EXtoJ_4core6optionINtB5_6OptionQNtNtCsdGrGZaRBwMb_3syn3pat3PatENtNtNtNtB7_4iter6traits7collect12IntoIterator9into_iterCscj7Jssje0XT_11async_trait, symObjAddr: 0x3AD0, symBinAddr: 0x39060, symSize: 0x10 }
  - { offset: 0x3DF19, size: 0x8, addend: 0x0, symName: __RNvXs6_NtCsieiGu2EXtoJ_4core6optionINtB5_6OptionQNtNtCsdGrGZaRBwMb_3syn3pat8FieldPatENtNtNtNtB7_4iter6traits7collect12IntoIterator9into_iterCscj7Jssje0XT_11async_trait, symObjAddr: 0x3AE0, symBinAddr: 0x39070, symSize: 0x10 }
  - { offset: 0x3DF50, size: 0x8, addend: 0x0, symName: __RNvXs6_NtCsieiGu2EXtoJ_4core6optionINtB5_6OptionQNtNtCsdGrGZaRBwMb_3syn4data7VariantENtNtNtNtB7_4iter6traits7collect12IntoIterator9into_iterCscj7Jssje0XT_11async_trait, symObjAddr: 0x3AF0, symBinAddr: 0x39080, symSize: 0x10 }
  - { offset: 0x3DF87, size: 0x8, addend: 0x0, symName: __RNvXs6_NtCsieiGu2EXtoJ_4core6optionINtB5_6OptionQNtNtCsdGrGZaRBwMb_3syn4expr10FieldValueENtNtNtNtB7_4iter6traits7collect12IntoIterator9into_iterCscj7Jssje0XT_11async_trait, symObjAddr: 0x3B00, symBinAddr: 0x39090, symSize: 0x10 }
  - { offset: 0x3DFBE, size: 0x8, addend: 0x0, symName: __RNvXs6_NtCsieiGu2EXtoJ_4core6optionINtB5_6OptionQNtNtCsdGrGZaRBwMb_3syn4expr4ExprENtNtNtNtB7_4iter6traits7collect12IntoIterator9into_iterCscj7Jssje0XT_11async_trait, symObjAddr: 0x3B10, symBinAddr: 0x390A0, symSize: 0x10 }
  - { offset: 0x3DFF5, size: 0x8, addend: 0x0, symName: __RNvXs6_NtCsieiGu2EXtoJ_4core6optionINtB5_6OptionQNtNtCsdGrGZaRBwMb_3syn4item5FnArgENtNtNtNtB7_4iter6traits7collect12IntoIterator9into_iterCscj7Jssje0XT_11async_trait, symObjAddr: 0x3B20, symBinAddr: 0x390B0, symSize: 0x10 }
  - { offset: 0x3E02C, size: 0x8, addend: 0x0, symName: __RNvXs6_NtCsieiGu2EXtoJ_4core6optionINtB5_6OptionQNtNtCsdGrGZaRBwMb_3syn4item7UseTreeENtNtNtNtB7_4iter6traits7collect12IntoIterator9into_iterCscj7Jssje0XT_11async_trait, symObjAddr: 0x3B30, symBinAddr: 0x390C0, symSize: 0x10 }
  - { offset: 0x3E063, size: 0x8, addend: 0x0, symName: __RNvXs6_NtCsieiGu2EXtoJ_4core6optionINtB5_6OptionQNtNtCsdGrGZaRBwMb_3syn4path15GenericArgumentENtNtNtNtB7_4iter6traits7collect12IntoIterator9into_iterCscj7Jssje0XT_11async_trait, symObjAddr: 0x3B40, symBinAddr: 0x390D0, symSize: 0x10 }
  - { offset: 0x3E09A, size: 0x8, addend: 0x0, symName: __RNvXs6_NtCsieiGu2EXtoJ_4core6optionINtB5_6OptionQNtNtCsdGrGZaRBwMb_3syn8generics13CapturedParamENtNtNtNtB7_4iter6traits7collect12IntoIterator9into_iterCscj7Jssje0XT_11async_trait, symObjAddr: 0x3B50, symBinAddr: 0x390E0, symSize: 0x10 }
  - { offset: 0x3E0D1, size: 0x8, addend: 0x0, symName: __RNvXs6_NtCsieiGu2EXtoJ_4core6optionINtB5_6OptionQNtNtCsdGrGZaRBwMb_3syn8generics14TypeParamBoundENtNtNtNtB7_4iter6traits7collect12IntoIterator9into_iterCscj7Jssje0XT_11async_trait, symObjAddr: 0x3B60, symBinAddr: 0x390F0, symSize: 0x10 }
  - { offset: 0x3E108, size: 0x8, addend: 0x0, symName: __RNvXs6_NtCsieiGu2EXtoJ_4core6optionINtB5_6OptionQNtNtCsdGrGZaRBwMb_3syn8generics14WherePredicateENtNtNtNtB7_4iter6traits7collect12IntoIterator9into_iterCscj7Jssje0XT_11async_trait, symObjAddr: 0x3B70, symBinAddr: 0x39100, symSize: 0x10 }
  - { offset: 0x3E13F, size: 0x8, addend: 0x0, symName: __RNvXs6_NtCsieiGu2EXtoJ_4core6optionINtB5_6OptionQNtNtCsdGrGZaRBwMb_3syn8lifetime8LifetimeENtNtNtNtB7_4iter6traits7collect12IntoIterator9into_iterCscj7Jssje0XT_11async_trait, symObjAddr: 0x3B80, symBinAddr: 0x39110, symSize: 0x10 }
  - { offset: 0x3E317, size: 0x8, addend: 0x0, symName: __RNvXsw_NtCsieiGu2EXtoJ_4core6optionINtB5_8IntoIterQNtNtCsdGrGZaRBwMb_3syn2ty4TypeENtNtNtNtB7_4iter6traits8iterator8Iterator4nextCscj7Jssje0XT_11async_trait, symObjAddr: 0x3EA0, symBinAddr: 0x39430, symSize: 0x20 }
  - { offset: 0x3E38F, size: 0x8, addend: 0x0, symName: __RNvXsw_NtCsieiGu2EXtoJ_4core6optionINtB5_8IntoIterQNtNtCsdGrGZaRBwMb_3syn2ty9BareFnArgENtNtNtNtB7_4iter6traits8iterator8Iterator4nextCscj7Jssje0XT_11async_trait, symObjAddr: 0x3EC0, symBinAddr: 0x39450, symSize: 0x20 }
  - { offset: 0x3E407, size: 0x8, addend: 0x0, symName: __RNvXsw_NtCsieiGu2EXtoJ_4core6optionINtB5_8IntoIterQNtNtCsdGrGZaRBwMb_3syn3pat3PatENtNtNtNtB7_4iter6traits8iterator8Iterator4nextCscj7Jssje0XT_11async_trait, symObjAddr: 0x3EE0, symBinAddr: 0x39470, symSize: 0x20 }
  - { offset: 0x3E47F, size: 0x8, addend: 0x0, symName: __RNvXsw_NtCsieiGu2EXtoJ_4core6optionINtB5_8IntoIterQNtNtCsdGrGZaRBwMb_3syn3pat8FieldPatENtNtNtNtB7_4iter6traits8iterator8Iterator4nextCscj7Jssje0XT_11async_trait, symObjAddr: 0x3F00, symBinAddr: 0x39490, symSize: 0x20 }
  - { offset: 0x3E4F7, size: 0x8, addend: 0x0, symName: __RNvXsw_NtCsieiGu2EXtoJ_4core6optionINtB5_8IntoIterQNtNtCsdGrGZaRBwMb_3syn4data7VariantENtNtNtNtB7_4iter6traits8iterator8Iterator4nextCscj7Jssje0XT_11async_trait, symObjAddr: 0x3F20, symBinAddr: 0x394B0, symSize: 0x20 }
  - { offset: 0x3E56F, size: 0x8, addend: 0x0, symName: __RNvXsw_NtCsieiGu2EXtoJ_4core6optionINtB5_8IntoIterQNtNtCsdGrGZaRBwMb_3syn4expr10FieldValueENtNtNtNtB7_4iter6traits8iterator8Iterator4nextCscj7Jssje0XT_11async_trait, symObjAddr: 0x3F40, symBinAddr: 0x394D0, symSize: 0x20 }
  - { offset: 0x3E5E7, size: 0x8, addend: 0x0, symName: __RNvXsw_NtCsieiGu2EXtoJ_4core6optionINtB5_8IntoIterQNtNtCsdGrGZaRBwMb_3syn4expr4ExprENtNtNtNtB7_4iter6traits8iterator8Iterator4nextCscj7Jssje0XT_11async_trait, symObjAddr: 0x3F60, symBinAddr: 0x394F0, symSize: 0x20 }
  - { offset: 0x3E65F, size: 0x8, addend: 0x0, symName: __RNvXsw_NtCsieiGu2EXtoJ_4core6optionINtB5_8IntoIterQNtNtCsdGrGZaRBwMb_3syn4item5FnArgENtNtNtNtB7_4iter6traits8iterator8Iterator4nextCscj7Jssje0XT_11async_trait, symObjAddr: 0x3F80, symBinAddr: 0x39510, symSize: 0x20 }
  - { offset: 0x3E6D7, size: 0x8, addend: 0x0, symName: __RNvXsw_NtCsieiGu2EXtoJ_4core6optionINtB5_8IntoIterQNtNtCsdGrGZaRBwMb_3syn4item5FnArgENtNtNtNtB7_4iter6traits8iterator8Iterator9size_hintCscj7Jssje0XT_11async_trait, symObjAddr: 0x3FA0, symBinAddr: 0x39530, symSize: 0x30 }
  - { offset: 0x3E74F, size: 0x8, addend: 0x0, symName: __RNvXsw_NtCsieiGu2EXtoJ_4core6optionINtB5_8IntoIterQNtNtCsdGrGZaRBwMb_3syn4item7UseTreeENtNtNtNtB7_4iter6traits8iterator8Iterator4nextCscj7Jssje0XT_11async_trait, symObjAddr: 0x3FD0, symBinAddr: 0x39560, symSize: 0x20 }
  - { offset: 0x3E7C7, size: 0x8, addend: 0x0, symName: __RNvXsw_NtCsieiGu2EXtoJ_4core6optionINtB5_8IntoIterQNtNtCsdGrGZaRBwMb_3syn4path15GenericArgumentENtNtNtNtB7_4iter6traits8iterator8Iterator4nextCscj7Jssje0XT_11async_trait, symObjAddr: 0x3FF0, symBinAddr: 0x39580, symSize: 0x20 }
  - { offset: 0x3E83F, size: 0x8, addend: 0x0, symName: __RNvXsw_NtCsieiGu2EXtoJ_4core6optionINtB5_8IntoIterQNtNtCsdGrGZaRBwMb_3syn8generics13CapturedParamENtNtNtNtB7_4iter6traits8iterator8Iterator4nextCscj7Jssje0XT_11async_trait, symObjAddr: 0x4010, symBinAddr: 0x395A0, symSize: 0x20 }
  - { offset: 0x3E8B7, size: 0x8, addend: 0x0, symName: __RNvXsw_NtCsieiGu2EXtoJ_4core6optionINtB5_8IntoIterQNtNtCsdGrGZaRBwMb_3syn8generics14TypeParamBoundENtNtNtNtB7_4iter6traits8iterator8Iterator4nextCscj7Jssje0XT_11async_trait, symObjAddr: 0x4030, symBinAddr: 0x395C0, symSize: 0x20 }
  - { offset: 0x3E92F, size: 0x8, addend: 0x0, symName: __RNvXsw_NtCsieiGu2EXtoJ_4core6optionINtB5_8IntoIterQNtNtCsdGrGZaRBwMb_3syn8generics14WherePredicateENtNtNtNtB7_4iter6traits8iterator8Iterator4nextCscj7Jssje0XT_11async_trait, symObjAddr: 0x4050, symBinAddr: 0x395E0, symSize: 0x20 }
  - { offset: 0x3E9A7, size: 0x8, addend: 0x0, symName: __RNvXsw_NtCsieiGu2EXtoJ_4core6optionINtB5_8IntoIterQNtNtCsdGrGZaRBwMb_3syn8lifetime8LifetimeENtNtNtNtB7_4iter6traits8iterator8Iterator4nextCscj7Jssje0XT_11async_trait, symObjAddr: 0x4070, symBinAddr: 0x39600, symSize: 0x20 }
  - { offset: 0x3F2DF, size: 0x8, addend: 0x0, symName: __RNvYINtNtCsieiGu2EXtoJ_4core6option8IntoIterQNtNtCsdGrGZaRBwMb_3syn4item5FnArgENtNtNtNtB7_4iter6traits10exact_size17ExactSizeIterator3lenCscj7Jssje0XT_11async_trait, symObjAddr: 0x4090, symBinAddr: 0x39620, symSize: 0xE0 }
  - { offset: 0x44C2E, size: 0x8, addend: 0x0, symName: __RNvYNtNtCscj7Jssje0XT_11async_trait8receiver11ReplaceSelfNtNtNtCsdGrGZaRBwMb_3syn3gen9visit_mut8VisitMut13visit_abi_mutB6_, symObjAddr: 0x4170, symBinAddr: 0x39700, symSize: 0x30 }
  - { offset: 0x44C6D, size: 0x8, addend: 0x0, symName: __RNvYNtNtCscj7Jssje0XT_11async_trait8receiver11ReplaceSelfNtNtNtCsdGrGZaRBwMb_3syn3gen9visit_mut8VisitMut13visit_arm_mutB6_, symObjAddr: 0x41A0, symBinAddr: 0x39730, symSize: 0x30 }
  - { offset: 0x44CAC, size: 0x8, addend: 0x0, symName: __RNvYNtNtCscj7Jssje0XT_11async_trait8receiver11ReplaceSelfNtNtNtCsdGrGZaRBwMb_3syn3gen9visit_mut8VisitMut13visit_lit_mutB6_, symObjAddr: 0x41D0, symBinAddr: 0x39760, symSize: 0x30 }
  - { offset: 0x44CEE, size: 0x8, addend: 0x0, symName: __RNvYNtNtCscj7Jssje0XT_11async_trait8receiver11ReplaceSelfNtNtNtCsdGrGZaRBwMb_3syn3gen9visit_mut8VisitMut13visit_pat_mutB6_, symObjAddr: 0x4200, symBinAddr: 0x39790, symSize: 0x30 }
  - { offset: 0x44D30, size: 0x8, addend: 0x0, symName: __RNvYNtNtCscj7Jssje0XT_11async_trait8receiver11ReplaceSelfNtNtNtCsdGrGZaRBwMb_3syn3gen9visit_mut8VisitMut14visit_expr_mutB6_, symObjAddr: 0x4230, symBinAddr: 0x397C0, symSize: 0x30 }
  - { offset: 0x44D6F, size: 0x8, addend: 0x0, symName: __RNvYNtNtCscj7Jssje0XT_11async_trait8receiver11ReplaceSelfNtNtNtCsdGrGZaRBwMb_3syn3gen9visit_mut8VisitMut14visit_meta_mutB6_, symObjAddr: 0x4260, symBinAddr: 0x397F0, symSize: 0x30 }
  - { offset: 0x44DB1, size: 0x8, addend: 0x0, symName: __RNvYNtNtCscj7Jssje0XT_11async_trait8receiver11ReplaceSelfNtNtNtCsdGrGZaRBwMb_3syn3gen9visit_mut8VisitMut14visit_span_mutB6_, symObjAddr: 0x4290, symBinAddr: 0x39820, symSize: 0x20 }
  - { offset: 0x44DF3, size: 0x8, addend: 0x0, symName: __RNvYNtNtCscj7Jssje0XT_11async_trait8receiver11ReplaceSelfNtNtNtCsdGrGZaRBwMb_3syn3gen9visit_mut8VisitMut14visit_stmt_mutB6_, symObjAddr: 0x42B0, symBinAddr: 0x39840, symSize: 0x30 }
  - { offset: 0x44E35, size: 0x8, addend: 0x0, symName: __RNvYNtNtCscj7Jssje0XT_11async_trait8receiver11ReplaceSelfNtNtNtCsdGrGZaRBwMb_3syn3gen9visit_mut8VisitMut14visit_type_mutB6_, symObjAddr: 0x42E0, symBinAddr: 0x39870, symSize: 0x30 }
  - { offset: 0x44E77, size: 0x8, addend: 0x0, symName: __RNvYNtNtCscj7Jssje0XT_11async_trait8receiver11ReplaceSelfNtNtNtCsdGrGZaRBwMb_3syn3gen9visit_mut8VisitMut15visit_block_mutB6_, symObjAddr: 0x4310, symBinAddr: 0x398A0, symSize: 0x30 }
  - { offset: 0x44EB6, size: 0x8, addend: 0x0, symName: __RNvYNtNtCscj7Jssje0XT_11async_trait8receiver11ReplaceSelfNtNtNtCsdGrGZaRBwMb_3syn3gen9visit_mut8VisitMut15visit_index_mutB6_, symObjAddr: 0x4340, symBinAddr: 0x398D0, symSize: 0x30 }
  - { offset: 0x44EF8, size: 0x8, addend: 0x0, symName: __RNvYNtNtCscj7Jssje0XT_11async_trait8receiver11ReplaceSelfNtNtNtCsdGrGZaRBwMb_3syn3gen9visit_mut8VisitMut15visit_label_mutB6_, symObjAddr: 0x4370, symBinAddr: 0x39900, symSize: 0x30 }
  - { offset: 0x44F3A, size: 0x8, addend: 0x0, symName: __RNvYNtNtCscj7Jssje0XT_11async_trait8receiver11ReplaceSelfNtNtNtCsdGrGZaRBwMb_3syn3gen9visit_mut8VisitMut15visit_local_mutB6_, symObjAddr: 0x43A0, symBinAddr: 0x39930, symSize: 0x30 }
  - { offset: 0x44F7C, size: 0x8, addend: 0x0, symName: __RNvYNtNtCscj7Jssje0XT_11async_trait8receiver11ReplaceSelfNtNtNtCsdGrGZaRBwMb_3syn3gen9visit_mut8VisitMut15visit_qself_mutB6_, symObjAddr: 0x43D0, symBinAddr: 0x39960, symSize: 0x30 }
  - { offset: 0x44FBE, size: 0x8, addend: 0x0, symName: __RNvYNtNtCscj7Jssje0XT_11async_trait8receiver11ReplaceSelfNtNtNtCsdGrGZaRBwMb_3syn3gen9visit_mut8VisitMut15visit_un_op_mutB6_, symObjAddr: 0x4400, symBinAddr: 0x39990, symSize: 0x30 }
  - { offset: 0x45000, size: 0x8, addend: 0x0, symName: __RNvYNtNtCscj7Jssje0XT_11async_trait8receiver11ReplaceSelfNtNtNtCsdGrGZaRBwMb_3syn3gen9visit_mut8VisitMut16visit_bin_op_mutB6_, symObjAddr: 0x4430, symBinAddr: 0x399C0, symSize: 0x30 }
  - { offset: 0x4503F, size: 0x8, addend: 0x0, symName: __RNvYNtNtCscj7Jssje0XT_11async_trait8receiver11ReplaceSelfNtNtNtCsdGrGZaRBwMb_3syn3gen9visit_mut8VisitMut16visit_member_mutB6_, symObjAddr: 0x4460, symBinAddr: 0x399F0, symSize: 0x30 }
  - { offset: 0x45081, size: 0x8, addend: 0x0, symName: __RNvYNtNtCscj7Jssje0XT_11async_trait8receiver11ReplaceSelfNtNtNtCsdGrGZaRBwMb_3syn3gen9visit_mut8VisitMut16visit_pat_or_mutB6_, symObjAddr: 0x4490, symBinAddr: 0x39A20, symSize: 0x30 }
  - { offset: 0x450C3, size: 0x8, addend: 0x0, symName: __RNvYNtNtCscj7Jssje0XT_11async_trait8receiver11ReplaceSelfNtNtNtCsdGrGZaRBwMb_3syn3gen9visit_mut8VisitMut17visit_expr_if_mutB6_, symObjAddr: 0x44C0, symBinAddr: 0x39A50, symSize: 0x30 }
  - { offset: 0x45102, size: 0x8, addend: 0x0, symName: __RNvYNtNtCscj7Jssje0XT_11async_trait8receiver11ReplaceSelfNtNtNtCsdGrGZaRBwMb_3syn3gen9visit_mut8VisitMut17visit_lit_int_mutB6_, symObjAddr: 0x44F0, symBinAddr: 0x39A80, symSize: 0x30 }
  - { offset: 0x45144, size: 0x8, addend: 0x0, symName: __RNvYNtNtCscj7Jssje0XT_11async_trait8receiver11ReplaceSelfNtNtNtCsdGrGZaRBwMb_3syn3gen9visit_mut8VisitMut17visit_lit_str_mutB6_, symObjAddr: 0x4520, symBinAddr: 0x39AB0, symSize: 0x30 }
  - { offset: 0x45186, size: 0x8, addend: 0x0, symName: __RNvYNtNtCscj7Jssje0XT_11async_trait8receiver11ReplaceSelfNtNtNtCsdGrGZaRBwMb_3syn3gen9visit_mut8VisitMut18visit_expr_let_mutB6_, symObjAddr: 0x4550, symBinAddr: 0x39AE0, symSize: 0x30 }
  - { offset: 0x451C5, size: 0x8, addend: 0x0, symName: __RNvYNtNtCscj7Jssje0XT_11async_trait8receiver11ReplaceSelfNtNtNtCsdGrGZaRBwMb_3syn3gen9visit_mut8VisitMut18visit_expr_lit_mutB6_, symObjAddr: 0x4580, symBinAddr: 0x39B10, symSize: 0x30 }
  - { offset: 0x45204, size: 0x8, addend: 0x0, symName: __RNvYNtNtCscj7Jssje0XT_11async_trait8receiver11ReplaceSelfNtNtNtCsdGrGZaRBwMb_3syn3gen9visit_mut8VisitMut18visit_expr_try_mutB6_, symObjAddr: 0x45B0, symBinAddr: 0x39B40, symSize: 0x30 }
  - { offset: 0x45246, size: 0x8, addend: 0x0, symName: __RNvYNtNtCscj7Jssje0XT_11async_trait8receiver11ReplaceSelfNtNtNtCsdGrGZaRBwMb_3syn3gen9visit_mut8VisitMut18visit_lifetime_mutB6_, symObjAddr: 0x45E0, symBinAddr: 0x39B70, symSize: 0x30 }
  - { offset: 0x45288, size: 0x8, addend: 0x0, symName: __RNvYNtNtCscj7Jssje0XT_11async_trait8receiver11ReplaceSelfNtNtNtCsdGrGZaRBwMb_3syn3gen9visit_mut8VisitMut18visit_lit_bool_mutB6_, symObjAddr: 0x4610, symBinAddr: 0x39BA0, symSize: 0x30 }
  - { offset: 0x452CA, size: 0x8, addend: 0x0, symName: __RNvYNtNtCscj7Jssje0XT_11async_trait8receiver11ReplaceSelfNtNtNtCsdGrGZaRBwMb_3syn3gen9visit_mut8VisitMut18visit_lit_byte_mutB6_, symObjAddr: 0x4640, symBinAddr: 0x39BD0, symSize: 0x30 }
  - { offset: 0x4530C, size: 0x8, addend: 0x0, symName: __RNvYNtNtCscj7Jssje0XT_11async_trait8receiver11ReplaceSelfNtNtNtCsdGrGZaRBwMb_3syn3gen9visit_mut8VisitMut18visit_lit_char_mutB6_, symObjAddr: 0x4670, symBinAddr: 0x39C00, symSize: 0x30 }
  - { offset: 0x4534E, size: 0x8, addend: 0x0, symName: __RNvYNtNtCscj7Jssje0XT_11async_trait8receiver11ReplaceSelfNtNtNtCsdGrGZaRBwMb_3syn3gen9visit_mut8VisitMut18visit_lit_cstr_mutB6_, symObjAddr: 0x46A0, symBinAddr: 0x39C30, symSize: 0x30 }
  - { offset: 0x45390, size: 0x8, addend: 0x0, symName: __RNvYNtNtCscj7Jssje0XT_11async_trait8receiver11ReplaceSelfNtNtNtCsdGrGZaRBwMb_3syn3gen9visit_mut8VisitMut18visit_pat_rest_mutB6_, symObjAddr: 0x46D0, symBinAddr: 0x39C60, symSize: 0x30 }
  - { offset: 0x453D2, size: 0x8, addend: 0x0, symName: __RNvYNtNtCscj7Jssje0XT_11async_trait8receiver11ReplaceSelfNtNtNtCsdGrGZaRBwMb_3syn3gen9visit_mut8VisitMut18visit_pat_type_mutB6_, symObjAddr: 0x4700, symBinAddr: 0x39C90, symSize: 0x30 }
  - { offset: 0x45414, size: 0x8, addend: 0x0, symName: __RNvYNtNtCscj7Jssje0XT_11async_trait8receiver11ReplaceSelfNtNtNtCsdGrGZaRBwMb_3syn3gen9visit_mut8VisitMut18visit_pat_wild_mutB6_, symObjAddr: 0x4730, symBinAddr: 0x39CC0, symSize: 0x30 }
  - { offset: 0x45456, size: 0x8, addend: 0x0, symName: __RNvYNtNtCscj7Jssje0XT_11async_trait8receiver11ReplaceSelfNtNtNtCsdGrGZaRBwMb_3syn3gen9visit_mut8VisitMut18visit_type_ptr_mutB6_, symObjAddr: 0x4760, symBinAddr: 0x39CF0, symSize: 0x30 }
  - { offset: 0x45498, size: 0x8, addend: 0x0, symName: __RNvYNtNtCscj7Jssje0XT_11async_trait8receiver11ReplaceSelfNtNtNtCsdGrGZaRBwMb_3syn3gen9visit_mut8VisitMut19visit_attribute_mutB6_, symObjAddr: 0x4790, symBinAddr: 0x39D20, symSize: 0x30 }
  - { offset: 0x454D7, size: 0x8, addend: 0x0, symName: __RNvYNtNtCscj7Jssje0XT_11async_trait8receiver11ReplaceSelfNtNtNtCsdGrGZaRBwMb_3syn3gen9visit_mut8VisitMut19visit_expr_call_mutB6_, symObjAddr: 0x47C0, symBinAddr: 0x39D50, symSize: 0x30 }
  - { offset: 0x45516, size: 0x8, addend: 0x0, symName: __RNvYNtNtCscj7Jssje0XT_11async_trait8receiver11ReplaceSelfNtNtNtCsdGrGZaRBwMb_3syn3gen9visit_mut8VisitMut19visit_expr_cast_mutB6_, symObjAddr: 0x47F0, symBinAddr: 0x39D80, symSize: 0x30 }
  - { offset: 0x45555, size: 0x8, addend: 0x0, symName: __RNvYNtNtCscj7Jssje0XT_11async_trait8receiver11ReplaceSelfNtNtNtCsdGrGZaRBwMb_3syn3gen9visit_mut8VisitMut19visit_expr_loop_mutB6_, symObjAddr: 0x4820, symBinAddr: 0x39DB0, symSize: 0x30 }
  - { offset: 0x45594, size: 0x8, addend: 0x0, symName: __RNvYNtNtCscj7Jssje0XT_11async_trait8receiver11ReplaceSelfNtNtNtCsdGrGZaRBwMb_3syn3gen9visit_mut8VisitMut19visit_expr_path_mutB6_, symObjAddr: 0x4850, symBinAddr: 0x39DE0, symSize: 0x30 }
  - { offset: 0x455D6, size: 0x8, addend: 0x0, symName: __RNvYNtNtCscj7Jssje0XT_11async_trait8receiver11ReplaceSelfNtNtNtCsdGrGZaRBwMb_3syn3gen9visit_mut8VisitMut19visit_field_pat_mutB6_, symObjAddr: 0x4880, symBinAddr: 0x39E10, symSize: 0x30 }
  - { offset: 0x45618, size: 0x8, addend: 0x0, symName: __RNvYNtNtCscj7Jssje0XT_11async_trait8receiver11ReplaceSelfNtNtNtCsdGrGZaRBwMb_3syn3gen9visit_mut8VisitMut19visit_lit_float_mutB6_, symObjAddr: 0x48B0, symBinAddr: 0x39E40, symSize: 0x30 }
  - { offset: 0x4565A, size: 0x8, addend: 0x0, symName: __RNvYNtNtCscj7Jssje0XT_11async_trait8receiver11ReplaceSelfNtNtNtCsdGrGZaRBwMb_3syn3gen9visit_mut8VisitMut19visit_meta_list_mutB6_, symObjAddr: 0x48E0, symBinAddr: 0x39E70, symSize: 0x30 }
  - { offset: 0x4569C, size: 0x8, addend: 0x0, symName: __RNvYNtNtCscj7Jssje0XT_11async_trait8receiver11ReplaceSelfNtNtNtCsdGrGZaRBwMb_3syn3gen9visit_mut8VisitMut19visit_pat_ident_mutB6_, symObjAddr: 0x4910, symBinAddr: 0x39EA0, symSize: 0x30 }
  - { offset: 0x456DE, size: 0x8, addend: 0x0, symName: __RNvYNtNtCscj7Jssje0XT_11async_trait8receiver11ReplaceSelfNtNtNtCsdGrGZaRBwMb_3syn3gen9visit_mut8VisitMut19visit_pat_paren_mutB6_, symObjAddr: 0x4940, symBinAddr: 0x39ED0, symSize: 0x30 }
  - { offset: 0x45720, size: 0x8, addend: 0x0, symName: __RNvYNtNtCscj7Jssje0XT_11async_trait8receiver11ReplaceSelfNtNtNtCsdGrGZaRBwMb_3syn3gen9visit_mut8VisitMut19visit_pat_slice_mutB6_, symObjAddr: 0x4970, symBinAddr: 0x39F00, symSize: 0x30 }
  - { offset: 0x45762, size: 0x8, addend: 0x0, symName: __RNvYNtNtCscj7Jssje0XT_11async_trait8receiver11ReplaceSelfNtNtNtCsdGrGZaRBwMb_3syn3gen9visit_mut8VisitMut19visit_pat_tuple_mutB6_, symObjAddr: 0x49A0, symBinAddr: 0x39F30, symSize: 0x30 }
  - { offset: 0x457A4, size: 0x8, addend: 0x0, symName: __RNvYNtNtCscj7Jssje0XT_11async_trait8receiver11ReplaceSelfNtNtNtCsdGrGZaRBwMb_3syn3gen9visit_mut8VisitMut19visit_type_path_mutB6_, symObjAddr: 0x49D0, symBinAddr: 0x39F60, symSize: 0x30 }
  - { offset: 0x457E6, size: 0x8, addend: 0x0, symName: __RNvYNtNtCscj7Jssje0XT_11async_trait8receiver11ReplaceSelfNtNtNtCsdGrGZaRBwMb_3syn3gen9visit_mut8VisitMut20visit_assoc_type_mutB6_, symObjAddr: 0x4A00, symBinAddr: 0x39F90, symSize: 0x30 }
  - { offset: 0x45825, size: 0x8, addend: 0x0, symName: __RNvYNtNtCscj7Jssje0XT_11async_trait8receiver11ReplaceSelfNtNtNtCsdGrGZaRBwMb_3syn3gen9visit_mut8VisitMut20visit_attr_style_mutB6_, symObjAddr: 0x4A30, symBinAddr: 0x39FC0, symSize: 0x30 }
  - { offset: 0x45864, size: 0x8, addend: 0x0, symName: __RNvYNtNtCscj7Jssje0XT_11async_trait8receiver11ReplaceSelfNtNtNtCsdGrGZaRBwMb_3syn3gen9visit_mut8VisitMut20visit_attributes_mutB6_, symObjAddr: 0x4A60, symBinAddr: 0x39FF0, symSize: 0x80 }
  - { offset: 0x458DD, size: 0x8, addend: 0x0, symName: __RNvYNtNtCscj7Jssje0XT_11async_trait8receiver11ReplaceSelfNtNtNtCsdGrGZaRBwMb_3syn3gen9visit_mut8VisitMut20visit_constraint_mutB6_, symObjAddr: 0x4AE0, symBinAddr: 0x3A070, symSize: 0x30 }
  - { offset: 0x4591C, size: 0x8, addend: 0x0, symName: __RNvYNtNtCscj7Jssje0XT_11async_trait8receiver11ReplaceSelfNtNtNtCsdGrGZaRBwMb_3syn3gen9visit_mut8VisitMut20visit_expr_array_mutB6_, symObjAddr: 0x4B10, symBinAddr: 0x3A0A0, symSize: 0x30 }
  - { offset: 0x4595B, size: 0x8, addend: 0x0, symName: __RNvYNtNtCscj7Jssje0XT_11async_trait8receiver11ReplaceSelfNtNtNtCsdGrGZaRBwMb_3syn3gen9visit_mut8VisitMut20visit_expr_async_mutB6_, symObjAddr: 0x4B40, symBinAddr: 0x3A0D0, symSize: 0x30 }
  - { offset: 0x4599A, size: 0x8, addend: 0x0, symName: __RNvYNtNtCscj7Jssje0XT_11async_trait8receiver11ReplaceSelfNtNtNtCsdGrGZaRBwMb_3syn3gen9visit_mut8VisitMut20visit_expr_await_mutB6_, symObjAddr: 0x4B70, symBinAddr: 0x3A100, symSize: 0x30 }
  - { offset: 0x459D9, size: 0x8, addend: 0x0, symName: __RNvYNtNtCscj7Jssje0XT_11async_trait8receiver11ReplaceSelfNtNtNtCsdGrGZaRBwMb_3syn3gen9visit_mut8VisitMut20visit_expr_block_mutB6_, symObjAddr: 0x4BA0, symBinAddr: 0x3A130, symSize: 0x30 }
  - { offset: 0x45A18, size: 0x8, addend: 0x0, symName: __RNvYNtNtCscj7Jssje0XT_11async_trait8receiver11ReplaceSelfNtNtNtCsdGrGZaRBwMb_3syn3gen9visit_mut8VisitMut20visit_expr_break_mutB6_, symObjAddr: 0x4BD0, symBinAddr: 0x3A160, symSize: 0x30 }
  - { offset: 0x45A57, size: 0x8, addend: 0x0, symName: __RNvYNtNtCscj7Jssje0XT_11async_trait8receiver11ReplaceSelfNtNtNtCsdGrGZaRBwMb_3syn3gen9visit_mut8VisitMut20visit_expr_const_mutB6_, symObjAddr: 0x4C00, symBinAddr: 0x3A190, symSize: 0x30 }
  - { offset: 0x45A96, size: 0x8, addend: 0x0, symName: __RNvYNtNtCscj7Jssje0XT_11async_trait8receiver11ReplaceSelfNtNtNtCsdGrGZaRBwMb_3syn3gen9visit_mut8VisitMut20visit_expr_field_mutB6_, symObjAddr: 0x4C30, symBinAddr: 0x3A1C0, symSize: 0x30 }
  - { offset: 0x45AD5, size: 0x8, addend: 0x0, symName: __RNvYNtNtCscj7Jssje0XT_11async_trait8receiver11ReplaceSelfNtNtNtCsdGrGZaRBwMb_3syn3gen9visit_mut8VisitMut20visit_expr_group_mutB6_, symObjAddr: 0x4C60, symBinAddr: 0x3A1F0, symSize: 0x30 }
  - { offset: 0x45B14, size: 0x8, addend: 0x0, symName: __RNvYNtNtCscj7Jssje0XT_11async_trait8receiver11ReplaceSelfNtNtNtCsdGrGZaRBwMb_3syn3gen9visit_mut8VisitMut20visit_expr_index_mutB6_, symObjAddr: 0x4C90, symBinAddr: 0x3A220, symSize: 0x30 }
  - { offset: 0x45B53, size: 0x8, addend: 0x0, symName: __RNvYNtNtCscj7Jssje0XT_11async_trait8receiver11ReplaceSelfNtNtNtCsdGrGZaRBwMb_3syn3gen9visit_mut8VisitMut20visit_expr_infer_mutB6_, symObjAddr: 0x4CC0, symBinAddr: 0x3A250, symSize: 0x30 }
  - { offset: 0x45B92, size: 0x8, addend: 0x0, symName: __RNvYNtNtCscj7Jssje0XT_11async_trait8receiver11ReplaceSelfNtNtNtCsdGrGZaRBwMb_3syn3gen9visit_mut8VisitMut20visit_expr_macro_mutB6_, symObjAddr: 0x4CF0, symBinAddr: 0x3A280, symSize: 0x30 }
  - { offset: 0x45BD1, size: 0x8, addend: 0x0, symName: __RNvYNtNtCscj7Jssje0XT_11async_trait8receiver11ReplaceSelfNtNtNtCsdGrGZaRBwMb_3syn3gen9visit_mut8VisitMut20visit_expr_match_mutB6_, symObjAddr: 0x4D20, symBinAddr: 0x3A2B0, symSize: 0x30 }
  - { offset: 0x45C13, size: 0x8, addend: 0x0, symName: __RNvYNtNtCscj7Jssje0XT_11async_trait8receiver11ReplaceSelfNtNtNtCsdGrGZaRBwMb_3syn3gen9visit_mut8VisitMut20visit_expr_paren_mutB6_, symObjAddr: 0x4D50, symBinAddr: 0x3A2E0, symSize: 0x30 }
  - { offset: 0x45C55, size: 0x8, addend: 0x0, symName: __RNvYNtNtCscj7Jssje0XT_11async_trait8receiver11ReplaceSelfNtNtNtCsdGrGZaRBwMb_3syn3gen9visit_mut8VisitMut20visit_expr_range_mutB6_, symObjAddr: 0x4D80, symBinAddr: 0x3A310, symSize: 0x30 }
  - { offset: 0x45C97, size: 0x8, addend: 0x0, symName: __RNvYNtNtCscj7Jssje0XT_11async_trait8receiver11ReplaceSelfNtNtNtCsdGrGZaRBwMb_3syn3gen9visit_mut8VisitMut20visit_expr_tuple_mutB6_, symObjAddr: 0x4DB0, symBinAddr: 0x3A340, symSize: 0x30 }
  - { offset: 0x45CD9, size: 0x8, addend: 0x0, symName: __RNvYNtNtCscj7Jssje0XT_11async_trait8receiver11ReplaceSelfNtNtNtCsdGrGZaRBwMb_3syn3gen9visit_mut8VisitMut20visit_expr_unary_mutB6_, symObjAddr: 0x4DE0, symBinAddr: 0x3A370, symSize: 0x30 }
  - { offset: 0x45D1B, size: 0x8, addend: 0x0, symName: __RNvYNtNtCscj7Jssje0XT_11async_trait8receiver11ReplaceSelfNtNtNtCsdGrGZaRBwMb_3syn3gen9visit_mut8VisitMut20visit_expr_while_mutB6_, symObjAddr: 0x4E10, symBinAddr: 0x3A3A0, symSize: 0x30 }
  - { offset: 0x45D5D, size: 0x8, addend: 0x0, symName: __RNvYNtNtCscj7Jssje0XT_11async_trait8receiver11ReplaceSelfNtNtNtCsdGrGZaRBwMb_3syn3gen9visit_mut8VisitMut20visit_expr_yield_mutB6_, symObjAddr: 0x4E40, symBinAddr: 0x3A3D0, symSize: 0x30 }
  - { offset: 0x45D9F, size: 0x8, addend: 0x0, symName: __RNvYNtNtCscj7Jssje0XT_11async_trait8receiver11ReplaceSelfNtNtNtCsdGrGZaRBwMb_3syn3gen9visit_mut8VisitMut20visit_local_init_mutB6_, symObjAddr: 0x4E70, symBinAddr: 0x3A400, symSize: 0x30 }
  - { offset: 0x45DE1, size: 0x8, addend: 0x0, symName: __RNvYNtNtCscj7Jssje0XT_11async_trait8receiver11ReplaceSelfNtNtNtCsdGrGZaRBwMb_3syn3gen9visit_mut8VisitMut20visit_pat_struct_mutB6_, symObjAddr: 0x4EA0, symBinAddr: 0x3A430, symSize: 0x30 }
  - { offset: 0x45E23, size: 0x8, addend: 0x0, symName: __RNvYNtNtCscj7Jssje0XT_11async_trait8receiver11ReplaceSelfNtNtNtCsdGrGZaRBwMb_3syn3gen9visit_mut8VisitMut20visit_stmt_macro_mutB6_, symObjAddr: 0x4ED0, symBinAddr: 0x3A460, symSize: 0x30 }
  - { offset: 0x45E65, size: 0x8, addend: 0x0, symName: __RNvYNtNtCscj7Jssje0XT_11async_trait8receiver11ReplaceSelfNtNtNtCsdGrGZaRBwMb_3syn3gen9visit_mut8VisitMut20visit_type_array_mutB6_, symObjAddr: 0x4F00, symBinAddr: 0x3A490, symSize: 0x30 }
  - { offset: 0x45EA7, size: 0x8, addend: 0x0, symName: __RNvYNtNtCscj7Jssje0XT_11async_trait8receiver11ReplaceSelfNtNtNtCsdGrGZaRBwMb_3syn3gen9visit_mut8VisitMut20visit_type_group_mutB6_, symObjAddr: 0x4F30, symBinAddr: 0x3A4C0, symSize: 0x30 }
  - { offset: 0x45EE9, size: 0x8, addend: 0x0, symName: __RNvYNtNtCscj7Jssje0XT_11async_trait8receiver11ReplaceSelfNtNtNtCsdGrGZaRBwMb_3syn3gen9visit_mut8VisitMut20visit_type_infer_mutB6_, symObjAddr: 0x4F60, symBinAddr: 0x3A4F0, symSize: 0x30 }
  - { offset: 0x45F2B, size: 0x8, addend: 0x0, symName: __RNvYNtNtCscj7Jssje0XT_11async_trait8receiver11ReplaceSelfNtNtNtCsdGrGZaRBwMb_3syn3gen9visit_mut8VisitMut20visit_type_macro_mutB6_, symObjAddr: 0x4F90, symBinAddr: 0x3A520, symSize: 0x30 }
  - { offset: 0x45F6D, size: 0x8, addend: 0x0, symName: __RNvYNtNtCscj7Jssje0XT_11async_trait8receiver11ReplaceSelfNtNtNtCsdGrGZaRBwMb_3syn3gen9visit_mut8VisitMut20visit_type_never_mutB6_, symObjAddr: 0x4FC0, symBinAddr: 0x3A550, symSize: 0x30 }
  - { offset: 0x45FAF, size: 0x8, addend: 0x0, symName: __RNvYNtNtCscj7Jssje0XT_11async_trait8receiver11ReplaceSelfNtNtNtCsdGrGZaRBwMb_3syn3gen9visit_mut8VisitMut20visit_type_param_mutB6_, symObjAddr: 0x4FF0, symBinAddr: 0x3A580, symSize: 0x30 }
  - { offset: 0x45FF1, size: 0x8, addend: 0x0, symName: __RNvYNtNtCscj7Jssje0XT_11async_trait8receiver11ReplaceSelfNtNtNtCsdGrGZaRBwMb_3syn3gen9visit_mut8VisitMut20visit_type_paren_mutB6_, symObjAddr: 0x5020, symBinAddr: 0x3A5B0, symSize: 0x30 }
  - { offset: 0x46033, size: 0x8, addend: 0x0, symName: __RNvYNtNtCscj7Jssje0XT_11async_trait8receiver11ReplaceSelfNtNtNtCsdGrGZaRBwMb_3syn3gen9visit_mut8VisitMut20visit_type_slice_mutB6_, symObjAddr: 0x5050, symBinAddr: 0x3A5E0, symSize: 0x30 }
  - { offset: 0x46075, size: 0x8, addend: 0x0, symName: __RNvYNtNtCscj7Jssje0XT_11async_trait8receiver11ReplaceSelfNtNtNtCsdGrGZaRBwMb_3syn3gen9visit_mut8VisitMut20visit_type_tuple_mutB6_, symObjAddr: 0x5080, symBinAddr: 0x3A610, symSize: 0x30 }
  - { offset: 0x460B7, size: 0x8, addend: 0x0, symName: __RNvYNtNtCscj7Jssje0XT_11async_trait8receiver11ReplaceSelfNtNtNtCsdGrGZaRBwMb_3syn3gen9visit_mut8VisitMut21visit_assoc_const_mutB6_, symObjAddr: 0x50B0, symBinAddr: 0x3A640, symSize: 0x30 }
  - { offset: 0x460F6, size: 0x8, addend: 0x0, symName: __RNvYNtNtCscj7Jssje0XT_11async_trait8receiver11ReplaceSelfNtNtNtCsdGrGZaRBwMb_3syn3gen9visit_mut8VisitMut21visit_bare_fn_arg_mutB6_, symObjAddr: 0x50E0, symBinAddr: 0x3A670, symSize: 0x30 }
  - { offset: 0x46135, size: 0x8, addend: 0x0, symName: __RNvYNtNtCscj7Jssje0XT_11async_trait8receiver11ReplaceSelfNtNtNtCsdGrGZaRBwMb_3syn3gen9visit_mut8VisitMut21visit_const_param_mutB6_, symObjAddr: 0x5110, symBinAddr: 0x3A6A0, symSize: 0x30 }
  - { offset: 0x46174, size: 0x8, addend: 0x0, symName: __RNvYNtNtCscj7Jssje0XT_11async_trait8receiver11ReplaceSelfNtNtNtCsdGrGZaRBwMb_3syn3gen9visit_mut8VisitMut21visit_expr_assign_mutB6_, symObjAddr: 0x5140, symBinAddr: 0x3A6D0, symSize: 0x30 }
  - { offset: 0x461B3, size: 0x8, addend: 0x0, symName: __RNvYNtNtCscj7Jssje0XT_11async_trait8receiver11ReplaceSelfNtNtNtCsdGrGZaRBwMb_3syn3gen9visit_mut8VisitMut21visit_expr_binary_mutB6_, symObjAddr: 0x5170, symBinAddr: 0x3A700, symSize: 0x30 }
  - { offset: 0x461F2, size: 0x8, addend: 0x0, symName: __RNvYNtNtCscj7Jssje0XT_11async_trait8receiver11ReplaceSelfNtNtNtCsdGrGZaRBwMb_3syn3gen9visit_mut8VisitMut21visit_expr_repeat_mutB6_, symObjAddr: 0x51A0, symBinAddr: 0x3A730, symSize: 0x30 }
  - { offset: 0x46234, size: 0x8, addend: 0x0, symName: __RNvYNtNtCscj7Jssje0XT_11async_trait8receiver11ReplaceSelfNtNtNtCsdGrGZaRBwMb_3syn3gen9visit_mut8VisitMut21visit_expr_return_mutB6_, symObjAddr: 0x51D0, symBinAddr: 0x3A760, symSize: 0x30 }
  - { offset: 0x46276, size: 0x8, addend: 0x0, symName: __RNvYNtNtCscj7Jssje0XT_11async_trait8receiver11ReplaceSelfNtNtNtCsdGrGZaRBwMb_3syn3gen9visit_mut8VisitMut21visit_expr_struct_mutB6_, symObjAddr: 0x5200, symBinAddr: 0x3A790, symSize: 0x30 }
  - { offset: 0x462B8, size: 0x8, addend: 0x0, symName: __RNvYNtNtCscj7Jssje0XT_11async_trait8receiver11ReplaceSelfNtNtNtCsdGrGZaRBwMb_3syn3gen9visit_mut8VisitMut21visit_expr_unsafe_mutB6_, symObjAddr: 0x5230, symBinAddr: 0x3A7C0, symSize: 0x30 }
  - { offset: 0x462FA, size: 0x8, addend: 0x0, symName: __RNvYNtNtCscj7Jssje0XT_11async_trait8receiver11ReplaceSelfNtNtNtCsdGrGZaRBwMb_3syn3gen9visit_mut8VisitMut21visit_field_value_mutB6_, symObjAddr: 0x5260, symBinAddr: 0x3A7F0, symSize: 0x30 }
  - { offset: 0x4633C, size: 0x8, addend: 0x0, symName: __RNvYNtNtCscj7Jssje0XT_11async_trait8receiver11ReplaceSelfNtNtNtCsdGrGZaRBwMb_3syn3gen9visit_mut8VisitMut21visit_return_type_mutB6_, symObjAddr: 0x5290, symBinAddr: 0x3A820, symSize: 0x30 }
  - { offset: 0x4637E, size: 0x8, addend: 0x0, symName: __RNvYNtNtCscj7Jssje0XT_11async_trait8receiver11ReplaceSelfNtNtNtCsdGrGZaRBwMb_3syn3gen9visit_mut8VisitMut21visit_trait_bound_mutB6_, symObjAddr: 0x52C0, symBinAddr: 0x3A850, symSize: 0x30 }
  - { offset: 0x463C0, size: 0x8, addend: 0x0, symName: __RNvYNtNtCscj7Jssje0XT_11async_trait8receiver11ReplaceSelfNtNtNtCsdGrGZaRBwMb_3syn3gen9visit_mut8VisitMut22visit_expr_closure_mutB6_, symObjAddr: 0x52F0, symBinAddr: 0x3A880, symSize: 0x30 }
  - { offset: 0x463FF, size: 0x8, addend: 0x0, symName: __RNvYNtNtCscj7Jssje0XT_11async_trait8receiver11ReplaceSelfNtNtNtCsdGrGZaRBwMb_3syn3gen9visit_mut8VisitMut22visit_lit_byte_str_mutB6_, symObjAddr: 0x5320, symBinAddr: 0x3A8B0, symSize: 0x30 }
  - { offset: 0x46441, size: 0x8, addend: 0x0, symName: __RNvYNtNtCscj7Jssje0XT_11async_trait8receiver11ReplaceSelfNtNtNtCsdGrGZaRBwMb_3syn3gen9visit_mut8VisitMut22visit_range_limits_mutB6_, symObjAddr: 0x5350, symBinAddr: 0x3A8E0, symSize: 0x30 }
  - { offset: 0x46483, size: 0x8, addend: 0x0, symName: __RNvYNtNtCscj7Jssje0XT_11async_trait8receiver11ReplaceSelfNtNtNtCsdGrGZaRBwMb_3syn3gen9visit_mut8VisitMut22visit_token_stream_mutB6_, symObjAddr: 0x5380, symBinAddr: 0x3A910, symSize: 0x20 }
  - { offset: 0x464C5, size: 0x8, addend: 0x0, symName: __RNvYNtNtCscj7Jssje0XT_11async_trait8receiver11ReplaceSelfNtNtNtCsdGrGZaRBwMb_3syn3gen9visit_mut8VisitMut22visit_type_bare_fn_mutB6_, symObjAddr: 0x53A0, symBinAddr: 0x3A930, symSize: 0x30 }
  - { offset: 0x46507, size: 0x8, addend: 0x0, symName: __RNvYNtNtCscj7Jssje0XT_11async_trait8receiver11ReplaceSelfNtNtNtCsdGrGZaRBwMb_3syn3gen9visit_mut8VisitMut23visit_bare_variadic_mutB6_, symObjAddr: 0x53D0, symBinAddr: 0x3A960, symSize: 0x30 }
  - { offset: 0x46546, size: 0x8, addend: 0x0, symName: __RNvYNtNtCscj7Jssje0XT_11async_trait8receiver11ReplaceSelfNtNtNtCsdGrGZaRBwMb_3syn3gen9visit_mut8VisitMut23visit_expr_continue_mutB6_, symObjAddr: 0x5400, symBinAddr: 0x3A990, symSize: 0x30 }
  - { offset: 0x46585, size: 0x8, addend: 0x0, symName: __RNvYNtNtCscj7Jssje0XT_11async_trait8receiver11ReplaceSelfNtNtNtCsdGrGZaRBwMb_3syn3gen9visit_mut8VisitMut23visit_expr_for_loop_mutB6_, symObjAddr: 0x5430, symBinAddr: 0x3A9C0, symSize: 0x30 }
  - { offset: 0x465C4, size: 0x8, addend: 0x0, symName: __RNvYNtNtCscj7Jssje0XT_11async_trait8receiver11ReplaceSelfNtNtNtCsdGrGZaRBwMb_3syn3gen9visit_mut8VisitMut23visit_expr_raw_addr_mutB6_, symObjAddr: 0x5460, symBinAddr: 0x3A9F0, symSize: 0x30 }
  - { offset: 0x46606, size: 0x8, addend: 0x0, symName: __RNvYNtNtCscj7Jssje0XT_11async_trait8receiver11ReplaceSelfNtNtNtCsdGrGZaRBwMb_3syn3gen9visit_mut8VisitMut23visit_generic_param_mutB6_, symObjAddr: 0x5490, symBinAddr: 0x3AA20, symSize: 0x30 }
  - { offset: 0x46648, size: 0x8, addend: 0x0, symName: __RNvYNtNtCscj7Jssje0XT_11async_trait8receiver11ReplaceSelfNtNtNtCsdGrGZaRBwMb_3syn3gen9visit_mut8VisitMut23visit_pat_reference_mutB6_, symObjAddr: 0x54C0, symBinAddr: 0x3AA50, symSize: 0x30 }
  - { offset: 0x4668A, size: 0x8, addend: 0x0, symName: __RNvYNtNtCscj7Jssje0XT_11async_trait8receiver11ReplaceSelfNtNtNtCsdGrGZaRBwMb_3syn3gen9visit_mut8VisitMut24visit_captured_param_mutB6_, symObjAddr: 0x54F0, symBinAddr: 0x3AA80, symSize: 0x30 }
  - { offset: 0x466C9, size: 0x8, addend: 0x0, symName: __RNvYNtNtCscj7Jssje0XT_11async_trait8receiver11ReplaceSelfNtNtNtCsdGrGZaRBwMb_3syn3gen9visit_mut8VisitMut24visit_expr_reference_mutB6_, symObjAddr: 0x5520, symBinAddr: 0x3AAB0, symSize: 0x30 }
  - { offset: 0x4670B, size: 0x8, addend: 0x0, symName: __RNvYNtNtCscj7Jssje0XT_11async_trait8receiver11ReplaceSelfNtNtNtCsdGrGZaRBwMb_3syn3gen9visit_mut8VisitMut24visit_expr_try_block_mutB6_, symObjAddr: 0x5550, symBinAddr: 0x3AAE0, symSize: 0x30 }
  - { offset: 0x4674D, size: 0x8, addend: 0x0, symName: __RNvYNtNtCscj7Jssje0XT_11async_trait8receiver11ReplaceSelfNtNtNtCsdGrGZaRBwMb_3syn3gen9visit_mut8VisitMut24visit_lifetime_param_mutB6_, symObjAddr: 0x5580, symBinAddr: 0x3AB10, symSize: 0x30 }
  - { offset: 0x4678F, size: 0x8, addend: 0x0, symName: __RNvYNtNtCscj7Jssje0XT_11async_trait8receiver11ReplaceSelfNtNtNtCsdGrGZaRBwMb_3syn3gen9visit_mut8VisitMut24visit_path_arguments_mutB6_, symObjAddr: 0x55B0, symBinAddr: 0x3AB40, symSize: 0x30 }
  - { offset: 0x467D1, size: 0x8, addend: 0x0, symName: __RNvYNtNtCscj7Jssje0XT_11async_trait8receiver11ReplaceSelfNtNtNtCsdGrGZaRBwMb_3syn3gen9visit_mut8VisitMut24visit_type_reference_mutB6_, symObjAddr: 0x55E0, symBinAddr: 0x3AB70, symSize: 0x30 }
  - { offset: 0x46813, size: 0x8, addend: 0x0, symName: __RNvYNtNtCscj7Jssje0XT_11async_trait8receiver11ReplaceSelfNtNtNtCsdGrGZaRBwMb_3syn3gen9visit_mut8VisitMut25visit_bound_lifetimes_mutB6_, symObjAddr: 0x5610, symBinAddr: 0x3ABA0, symSize: 0x30 }
  - { offset: 0x46852, size: 0x8, addend: 0x0, symName: __RNvYNtNtCscj7Jssje0XT_11async_trait8receiver11ReplaceSelfNtNtNtCsdGrGZaRBwMb_3syn3gen9visit_mut8VisitMut25visit_macro_delimiter_mutB6_, symObjAddr: 0x5640, symBinAddr: 0x3ABD0, symSize: 0x30 }
  - { offset: 0x46894, size: 0x8, addend: 0x0, symName: __RNvYNtNtCscj7Jssje0XT_11async_trait8receiver11ReplaceSelfNtNtNtCsdGrGZaRBwMb_3syn3gen9visit_mut8VisitMut25visit_meta_name_value_mutB6_, symObjAddr: 0x5670, symBinAddr: 0x3AC00, symSize: 0x30 }
  - { offset: 0x468D6, size: 0x8, addend: 0x0, symName: __RNvYNtNtCscj7Jssje0XT_11async_trait8receiver11ReplaceSelfNtNtNtCsdGrGZaRBwMb_3syn3gen9visit_mut8VisitMut25visit_precise_capture_mutB6_, symObjAddr: 0x56A0, symBinAddr: 0x3AC30, symSize: 0x30 }
  - { offset: 0x46918, size: 0x8, addend: 0x0, symName: __RNvYNtNtCscj7Jssje0XT_11async_trait8receiver11ReplaceSelfNtNtNtCsdGrGZaRBwMb_3syn3gen9visit_mut8VisitMut25visit_type_impl_trait_mutB6_, symObjAddr: 0x56D0, symBinAddr: 0x3AC60, symSize: 0x30 }
  - { offset: 0x4695A, size: 0x8, addend: 0x0, symName: __RNvYNtNtCscj7Jssje0XT_11async_trait8receiver11ReplaceSelfNtNtNtCsdGrGZaRBwMb_3syn3gen9visit_mut8VisitMut26visit_expr_method_call_mutB6_, symObjAddr: 0x5700, symBinAddr: 0x3AC90, symSize: 0x30 }
  - { offset: 0x4699C, size: 0x8, addend: 0x0, symName: __RNvYNtNtCscj7Jssje0XT_11async_trait8receiver11ReplaceSelfNtNtNtCsdGrGZaRBwMb_3syn3gen9visit_mut8VisitMut26visit_generic_argument_mutB6_, symObjAddr: 0x5730, symBinAddr: 0x3ACC0, symSize: 0x30 }
  - { offset: 0x469DE, size: 0x8, addend: 0x0, symName: __RNvYNtNtCscj7Jssje0XT_11async_trait8receiver11ReplaceSelfNtNtNtCsdGrGZaRBwMb_3syn3gen9visit_mut8VisitMut26visit_pat_tuple_struct_mutB6_, symObjAddr: 0x5760, symBinAddr: 0x3ACF0, symSize: 0x30 }
  - { offset: 0x46A20, size: 0x8, addend: 0x0, symName: __RNvYNtNtCscj7Jssje0XT_11async_trait8receiver11ReplaceSelfNtNtNtCsdGrGZaRBwMb_3syn3gen9visit_mut8VisitMut26visit_type_param_bound_mutB6_, symObjAddr: 0x5790, symBinAddr: 0x3AD20, symSize: 0x30 }
  - { offset: 0x46A62, size: 0x8, addend: 0x0, symName: __RNvYNtNtCscj7Jssje0XT_11async_trait8receiver11ReplaceSelfNtNtNtCsdGrGZaRBwMb_3syn3gen9visit_mut8VisitMut27visit_type_trait_object_mutB6_, symObjAddr: 0x57C0, symBinAddr: 0x3AD50, symSize: 0x30 }
  - { offset: 0x46AA4, size: 0x8, addend: 0x0, symName: __RNvYNtNtCscj7Jssje0XT_11async_trait8receiver11ReplaceSelfNtNtNtCsdGrGZaRBwMb_3syn3gen9visit_mut8VisitMut28visit_pointer_mutability_mutB6_, symObjAddr: 0x57F0, symBinAddr: 0x3AD80, symSize: 0x30 }
  - { offset: 0x46AE6, size: 0x8, addend: 0x0, symName: __RNvYNtNtCscj7Jssje0XT_11async_trait8receiver11ReplaceSelfNtNtNtCsdGrGZaRBwMb_3syn3gen9visit_mut8VisitMut30visit_trait_bound_modifier_mutB6_, symObjAddr: 0x5820, symBinAddr: 0x3ADB0, symSize: 0x30 }
  - { offset: 0x46B28, size: 0x8, addend: 0x0, symName: __RNvYNtNtCscj7Jssje0XT_11async_trait8receiver11ReplaceSelfNtNtNtCsdGrGZaRBwMb_3syn3gen9visit_mut8VisitMut41visit_parenthesized_generic_arguments_mutB6_, symObjAddr: 0x5850, symBinAddr: 0x3ADE0, symSize: 0x30 }
  - { offset: 0x46B6A, size: 0x8, addend: 0x0, symName: __RNvYNtNtCscj7Jssje0XT_11async_trait8receiver11ReplaceSelfNtNtNtCsdGrGZaRBwMb_3syn3gen9visit_mut8VisitMut43visit_angle_bracketed_generic_arguments_mutB6_, symObjAddr: 0x5880, symBinAddr: 0x3AE10, symSize: 0x30 }
  - { offset: 0x46BA9, size: 0x8, addend: 0x0, symName: __RNvYNtNtCscj7Jssje0XT_11async_trait8receiver7HasSelfNtNtNtCsdGrGZaRBwMb_3syn3gen9visit_mut8VisitMut13visit_abi_mutB6_, symObjAddr: 0x58B0, symBinAddr: 0x3AE40, symSize: 0x30 }
  - { offset: 0x46BE8, size: 0x8, addend: 0x0, symName: __RNvYNtNtCscj7Jssje0XT_11async_trait8receiver7HasSelfNtNtNtCsdGrGZaRBwMb_3syn3gen9visit_mut8VisitMut13visit_arm_mutB6_, symObjAddr: 0x58E0, symBinAddr: 0x3AE70, symSize: 0x30 }
  - { offset: 0x46C27, size: 0x8, addend: 0x0, symName: __RNvYNtNtCscj7Jssje0XT_11async_trait8receiver7HasSelfNtNtNtCsdGrGZaRBwMb_3syn3gen9visit_mut8VisitMut13visit_lit_mutB6_, symObjAddr: 0x5910, symBinAddr: 0x3AEA0, symSize: 0x30 }
  - { offset: 0x46C69, size: 0x8, addend: 0x0, symName: __RNvYNtNtCscj7Jssje0XT_11async_trait8receiver7HasSelfNtNtNtCsdGrGZaRBwMb_3syn3gen9visit_mut8VisitMut13visit_pat_mutB6_, symObjAddr: 0x5940, symBinAddr: 0x3AED0, symSize: 0x30 }
  - { offset: 0x46CAB, size: 0x8, addend: 0x0, symName: __RNvYNtNtCscj7Jssje0XT_11async_trait8receiver7HasSelfNtNtNtCsdGrGZaRBwMb_3syn3gen9visit_mut8VisitMut14visit_expr_mutB6_, symObjAddr: 0x5970, symBinAddr: 0x3AF00, symSize: 0x30 }
  - { offset: 0x46CEA, size: 0x8, addend: 0x0, symName: __RNvYNtNtCscj7Jssje0XT_11async_trait8receiver7HasSelfNtNtNtCsdGrGZaRBwMb_3syn3gen9visit_mut8VisitMut14visit_meta_mutB6_, symObjAddr: 0x59A0, symBinAddr: 0x3AF30, symSize: 0x30 }
  - { offset: 0x46D2C, size: 0x8, addend: 0x0, symName: __RNvYNtNtCscj7Jssje0XT_11async_trait8receiver7HasSelfNtNtNtCsdGrGZaRBwMb_3syn3gen9visit_mut8VisitMut14visit_path_mutB6_, symObjAddr: 0x59D0, symBinAddr: 0x3AF60, symSize: 0x30 }
  - { offset: 0x46D6E, size: 0x8, addend: 0x0, symName: __RNvYNtNtCscj7Jssje0XT_11async_trait8receiver7HasSelfNtNtNtCsdGrGZaRBwMb_3syn3gen9visit_mut8VisitMut14visit_span_mutB6_, symObjAddr: 0x5A00, symBinAddr: 0x3AF90, symSize: 0x20 }
  - { offset: 0x46DB0, size: 0x8, addend: 0x0, symName: __RNvYNtNtCscj7Jssje0XT_11async_trait8receiver7HasSelfNtNtNtCsdGrGZaRBwMb_3syn3gen9visit_mut8VisitMut14visit_stmt_mutB6_, symObjAddr: 0x5A20, symBinAddr: 0x3AFB0, symSize: 0x30 }
  - { offset: 0x46DF2, size: 0x8, addend: 0x0, symName: __RNvYNtNtCscj7Jssje0XT_11async_trait8receiver7HasSelfNtNtNtCsdGrGZaRBwMb_3syn3gen9visit_mut8VisitMut14visit_type_mutB6_, symObjAddr: 0x5A50, symBinAddr: 0x3AFE0, symSize: 0x30 }
  - { offset: 0x46E34, size: 0x8, addend: 0x0, symName: __RNvYNtNtCscj7Jssje0XT_11async_trait8receiver7HasSelfNtNtNtCsdGrGZaRBwMb_3syn3gen9visit_mut8VisitMut15visit_block_mutB6_, symObjAddr: 0x5A80, symBinAddr: 0x3B010, symSize: 0x30 }
  - { offset: 0x46E73, size: 0x8, addend: 0x0, symName: __RNvYNtNtCscj7Jssje0XT_11async_trait8receiver7HasSelfNtNtNtCsdGrGZaRBwMb_3syn3gen9visit_mut8VisitMut15visit_ident_mutB6_, symObjAddr: 0x5AB0, symBinAddr: 0x3B040, symSize: 0x30 }
  - { offset: 0x46EB5, size: 0x8, addend: 0x0, symName: __RNvYNtNtCscj7Jssje0XT_11async_trait8receiver7HasSelfNtNtNtCsdGrGZaRBwMb_3syn3gen9visit_mut8VisitMut15visit_index_mutB6_, symObjAddr: 0x5AE0, symBinAddr: 0x3B070, symSize: 0x30 }
  - { offset: 0x46EF7, size: 0x8, addend: 0x0, symName: __RNvYNtNtCscj7Jssje0XT_11async_trait8receiver7HasSelfNtNtNtCsdGrGZaRBwMb_3syn3gen9visit_mut8VisitMut15visit_label_mutB6_, symObjAddr: 0x5B10, symBinAddr: 0x3B0A0, symSize: 0x30 }
  - { offset: 0x46F39, size: 0x8, addend: 0x0, symName: __RNvYNtNtCscj7Jssje0XT_11async_trait8receiver7HasSelfNtNtNtCsdGrGZaRBwMb_3syn3gen9visit_mut8VisitMut15visit_local_mutB6_, symObjAddr: 0x5B40, symBinAddr: 0x3B0D0, symSize: 0x30 }
  - { offset: 0x46F7B, size: 0x8, addend: 0x0, symName: __RNvYNtNtCscj7Jssje0XT_11async_trait8receiver7HasSelfNtNtNtCsdGrGZaRBwMb_3syn3gen9visit_mut8VisitMut15visit_qself_mutB6_, symObjAddr: 0x5B70, symBinAddr: 0x3B100, symSize: 0x30 }
  - { offset: 0x46FBD, size: 0x8, addend: 0x0, symName: __RNvYNtNtCscj7Jssje0XT_11async_trait8receiver7HasSelfNtNtNtCsdGrGZaRBwMb_3syn3gen9visit_mut8VisitMut15visit_un_op_mutB6_, symObjAddr: 0x5BA0, symBinAddr: 0x3B130, symSize: 0x30 }
  - { offset: 0x46FFF, size: 0x8, addend: 0x0, symName: __RNvYNtNtCscj7Jssje0XT_11async_trait8receiver7HasSelfNtNtNtCsdGrGZaRBwMb_3syn3gen9visit_mut8VisitMut16visit_bin_op_mutB6_, symObjAddr: 0x5BD0, symBinAddr: 0x3B160, symSize: 0x30 }
  - { offset: 0x4703E, size: 0x8, addend: 0x0, symName: __RNvYNtNtCscj7Jssje0XT_11async_trait8receiver7HasSelfNtNtNtCsdGrGZaRBwMb_3syn3gen9visit_mut8VisitMut16visit_fn_arg_mutB6_, symObjAddr: 0x5C00, symBinAddr: 0x3B190, symSize: 0x30 }
  - { offset: 0x47080, size: 0x8, addend: 0x0, symName: __RNvYNtNtCscj7Jssje0XT_11async_trait8receiver7HasSelfNtNtNtCsdGrGZaRBwMb_3syn3gen9visit_mut8VisitMut16visit_member_mutB6_, symObjAddr: 0x5C30, symBinAddr: 0x3B1C0, symSize: 0x30 }
  - { offset: 0x470C2, size: 0x8, addend: 0x0, symName: __RNvYNtNtCscj7Jssje0XT_11async_trait8receiver7HasSelfNtNtNtCsdGrGZaRBwMb_3syn3gen9visit_mut8VisitMut16visit_pat_or_mutB6_, symObjAddr: 0x5C60, symBinAddr: 0x3B1F0, symSize: 0x30 }
  - { offset: 0x47104, size: 0x8, addend: 0x0, symName: __RNvYNtNtCscj7Jssje0XT_11async_trait8receiver7HasSelfNtNtNtCsdGrGZaRBwMb_3syn3gen9visit_mut8VisitMut17visit_expr_if_mutB6_, symObjAddr: 0x5C90, symBinAddr: 0x3B220, symSize: 0x30 }
  - { offset: 0x47143, size: 0x8, addend: 0x0, symName: __RNvYNtNtCscj7Jssje0XT_11async_trait8receiver7HasSelfNtNtNtCsdGrGZaRBwMb_3syn3gen9visit_mut8VisitMut17visit_lit_int_mutB6_, symObjAddr: 0x5CC0, symBinAddr: 0x3B250, symSize: 0x30 }
  - { offset: 0x47185, size: 0x8, addend: 0x0, symName: __RNvYNtNtCscj7Jssje0XT_11async_trait8receiver7HasSelfNtNtNtCsdGrGZaRBwMb_3syn3gen9visit_mut8VisitMut17visit_lit_str_mutB6_, symObjAddr: 0x5CF0, symBinAddr: 0x3B280, symSize: 0x30 }
  - { offset: 0x471C7, size: 0x8, addend: 0x0, symName: __RNvYNtNtCscj7Jssje0XT_11async_trait8receiver7HasSelfNtNtNtCsdGrGZaRBwMb_3syn3gen9visit_mut8VisitMut18visit_expr_let_mutB6_, symObjAddr: 0x5D20, symBinAddr: 0x3B2B0, symSize: 0x30 }
  - { offset: 0x47206, size: 0x8, addend: 0x0, symName: __RNvYNtNtCscj7Jssje0XT_11async_trait8receiver7HasSelfNtNtNtCsdGrGZaRBwMb_3syn3gen9visit_mut8VisitMut18visit_expr_lit_mutB6_, symObjAddr: 0x5D50, symBinAddr: 0x3B2E0, symSize: 0x30 }
  - { offset: 0x47245, size: 0x8, addend: 0x0, symName: __RNvYNtNtCscj7Jssje0XT_11async_trait8receiver7HasSelfNtNtNtCsdGrGZaRBwMb_3syn3gen9visit_mut8VisitMut18visit_expr_try_mutB6_, symObjAddr: 0x5D80, symBinAddr: 0x3B310, symSize: 0x30 }
  - { offset: 0x47287, size: 0x8, addend: 0x0, symName: __RNvYNtNtCscj7Jssje0XT_11async_trait8receiver7HasSelfNtNtNtCsdGrGZaRBwMb_3syn3gen9visit_mut8VisitMut18visit_generics_mutB6_, symObjAddr: 0x5DB0, symBinAddr: 0x3B340, symSize: 0x30 }
  - { offset: 0x472C9, size: 0x8, addend: 0x0, symName: __RNvYNtNtCscj7Jssje0XT_11async_trait8receiver7HasSelfNtNtNtCsdGrGZaRBwMb_3syn3gen9visit_mut8VisitMut18visit_lifetime_mutB6_, symObjAddr: 0x5DE0, symBinAddr: 0x3B370, symSize: 0x30 }
  - { offset: 0x4730B, size: 0x8, addend: 0x0, symName: __RNvYNtNtCscj7Jssje0XT_11async_trait8receiver7HasSelfNtNtNtCsdGrGZaRBwMb_3syn3gen9visit_mut8VisitMut18visit_lit_bool_mutB6_, symObjAddr: 0x5E10, symBinAddr: 0x3B3A0, symSize: 0x30 }
  - { offset: 0x4734D, size: 0x8, addend: 0x0, symName: __RNvYNtNtCscj7Jssje0XT_11async_trait8receiver7HasSelfNtNtNtCsdGrGZaRBwMb_3syn3gen9visit_mut8VisitMut18visit_lit_byte_mutB6_, symObjAddr: 0x5E40, symBinAddr: 0x3B3D0, symSize: 0x30 }
  - { offset: 0x4738F, size: 0x8, addend: 0x0, symName: __RNvYNtNtCscj7Jssje0XT_11async_trait8receiver7HasSelfNtNtNtCsdGrGZaRBwMb_3syn3gen9visit_mut8VisitMut18visit_lit_char_mutB6_, symObjAddr: 0x5E70, symBinAddr: 0x3B400, symSize: 0x30 }
  - { offset: 0x473D1, size: 0x8, addend: 0x0, symName: __RNvYNtNtCscj7Jssje0XT_11async_trait8receiver7HasSelfNtNtNtCsdGrGZaRBwMb_3syn3gen9visit_mut8VisitMut18visit_lit_cstr_mutB6_, symObjAddr: 0x5EA0, symBinAddr: 0x3B430, symSize: 0x30 }
  - { offset: 0x47413, size: 0x8, addend: 0x0, symName: __RNvYNtNtCscj7Jssje0XT_11async_trait8receiver7HasSelfNtNtNtCsdGrGZaRBwMb_3syn3gen9visit_mut8VisitMut18visit_pat_rest_mutB6_, symObjAddr: 0x5ED0, symBinAddr: 0x3B460, symSize: 0x30 }
  - { offset: 0x47455, size: 0x8, addend: 0x0, symName: __RNvYNtNtCscj7Jssje0XT_11async_trait8receiver7HasSelfNtNtNtCsdGrGZaRBwMb_3syn3gen9visit_mut8VisitMut18visit_pat_type_mutB6_, symObjAddr: 0x5F00, symBinAddr: 0x3B490, symSize: 0x30 }
  - { offset: 0x47497, size: 0x8, addend: 0x0, symName: __RNvYNtNtCscj7Jssje0XT_11async_trait8receiver7HasSelfNtNtNtCsdGrGZaRBwMb_3syn3gen9visit_mut8VisitMut18visit_pat_wild_mutB6_, symObjAddr: 0x5F30, symBinAddr: 0x3B4C0, symSize: 0x30 }
  - { offset: 0x474D9, size: 0x8, addend: 0x0, symName: __RNvYNtNtCscj7Jssje0XT_11async_trait8receiver7HasSelfNtNtNtCsdGrGZaRBwMb_3syn3gen9visit_mut8VisitMut18visit_type_ptr_mutB6_, symObjAddr: 0x5F60, symBinAddr: 0x3B4F0, symSize: 0x30 }
  - { offset: 0x4751B, size: 0x8, addend: 0x0, symName: __RNvYNtNtCscj7Jssje0XT_11async_trait8receiver7HasSelfNtNtNtCsdGrGZaRBwMb_3syn3gen9visit_mut8VisitMut18visit_variadic_mutB6_, symObjAddr: 0x5F90, symBinAddr: 0x3B520, symSize: 0x30 }
  - { offset: 0x4755D, size: 0x8, addend: 0x0, symName: __RNvYNtNtCscj7Jssje0XT_11async_trait8receiver7HasSelfNtNtNtCsdGrGZaRBwMb_3syn3gen9visit_mut8VisitMut19visit_attribute_mutB6_, symObjAddr: 0x5FC0, symBinAddr: 0x3B550, symSize: 0x30 }
  - { offset: 0x4759C, size: 0x8, addend: 0x0, symName: __RNvYNtNtCscj7Jssje0XT_11async_trait8receiver7HasSelfNtNtNtCsdGrGZaRBwMb_3syn3gen9visit_mut8VisitMut19visit_expr_call_mutB6_, symObjAddr: 0x5FF0, symBinAddr: 0x3B580, symSize: 0x30 }
  - { offset: 0x475DB, size: 0x8, addend: 0x0, symName: __RNvYNtNtCscj7Jssje0XT_11async_trait8receiver7HasSelfNtNtNtCsdGrGZaRBwMb_3syn3gen9visit_mut8VisitMut19visit_expr_cast_mutB6_, symObjAddr: 0x6020, symBinAddr: 0x3B5B0, symSize: 0x30 }
  - { offset: 0x4761A, size: 0x8, addend: 0x0, symName: __RNvYNtNtCscj7Jssje0XT_11async_trait8receiver7HasSelfNtNtNtCsdGrGZaRBwMb_3syn3gen9visit_mut8VisitMut19visit_expr_loop_mutB6_, symObjAddr: 0x6050, symBinAddr: 0x3B5E0, symSize: 0x30 }
  - { offset: 0x47659, size: 0x8, addend: 0x0, symName: __RNvYNtNtCscj7Jssje0XT_11async_trait8receiver7HasSelfNtNtNtCsdGrGZaRBwMb_3syn3gen9visit_mut8VisitMut19visit_field_pat_mutB6_, symObjAddr: 0x6080, symBinAddr: 0x3B610, symSize: 0x30 }
  - { offset: 0x4769B, size: 0x8, addend: 0x0, symName: __RNvYNtNtCscj7Jssje0XT_11async_trait8receiver7HasSelfNtNtNtCsdGrGZaRBwMb_3syn3gen9visit_mut8VisitMut19visit_lit_float_mutB6_, symObjAddr: 0x60B0, symBinAddr: 0x3B640, symSize: 0x30 }
  - { offset: 0x476DD, size: 0x8, addend: 0x0, symName: __RNvYNtNtCscj7Jssje0XT_11async_trait8receiver7HasSelfNtNtNtCsdGrGZaRBwMb_3syn3gen9visit_mut8VisitMut19visit_meta_list_mutB6_, symObjAddr: 0x60E0, symBinAddr: 0x3B670, symSize: 0x30 }
  - { offset: 0x4771F, size: 0x8, addend: 0x0, symName: __RNvYNtNtCscj7Jssje0XT_11async_trait8receiver7HasSelfNtNtNtCsdGrGZaRBwMb_3syn3gen9visit_mut8VisitMut19visit_pat_ident_mutB6_, symObjAddr: 0x6110, symBinAddr: 0x3B6A0, symSize: 0x30 }
  - { offset: 0x47761, size: 0x8, addend: 0x0, symName: __RNvYNtNtCscj7Jssje0XT_11async_trait8receiver7HasSelfNtNtNtCsdGrGZaRBwMb_3syn3gen9visit_mut8VisitMut19visit_pat_paren_mutB6_, symObjAddr: 0x6140, symBinAddr: 0x3B6D0, symSize: 0x30 }
  - { offset: 0x477A3, size: 0x8, addend: 0x0, symName: __RNvYNtNtCscj7Jssje0XT_11async_trait8receiver7HasSelfNtNtNtCsdGrGZaRBwMb_3syn3gen9visit_mut8VisitMut19visit_pat_slice_mutB6_, symObjAddr: 0x6170, symBinAddr: 0x3B700, symSize: 0x30 }
  - { offset: 0x477E5, size: 0x8, addend: 0x0, symName: __RNvYNtNtCscj7Jssje0XT_11async_trait8receiver7HasSelfNtNtNtCsdGrGZaRBwMb_3syn3gen9visit_mut8VisitMut19visit_pat_tuple_mutB6_, symObjAddr: 0x61A0, symBinAddr: 0x3B730, symSize: 0x30 }
  - { offset: 0x47827, size: 0x8, addend: 0x0, symName: __RNvYNtNtCscj7Jssje0XT_11async_trait8receiver7HasSelfNtNtNtCsdGrGZaRBwMb_3syn3gen9visit_mut8VisitMut19visit_signature_mutB6_, symObjAddr: 0x61D0, symBinAddr: 0x3B760, symSize: 0x30 }
  - { offset: 0x47869, size: 0x8, addend: 0x0, symName: __RNvYNtNtCscj7Jssje0XT_11async_trait8receiver7HasSelfNtNtNtCsdGrGZaRBwMb_3syn3gen9visit_mut8VisitMut20visit_assoc_type_mutB6_, symObjAddr: 0x6200, symBinAddr: 0x3B790, symSize: 0x30 }
  - { offset: 0x478A8, size: 0x8, addend: 0x0, symName: __RNvYNtNtCscj7Jssje0XT_11async_trait8receiver7HasSelfNtNtNtCsdGrGZaRBwMb_3syn3gen9visit_mut8VisitMut20visit_attr_style_mutB6_, symObjAddr: 0x6230, symBinAddr: 0x3B7C0, symSize: 0x30 }
  - { offset: 0x478E7, size: 0x8, addend: 0x0, symName: __RNvYNtNtCscj7Jssje0XT_11async_trait8receiver7HasSelfNtNtNtCsdGrGZaRBwMb_3syn3gen9visit_mut8VisitMut20visit_attributes_mutB6_, symObjAddr: 0x6260, symBinAddr: 0x3B7F0, symSize: 0x80 }
  - { offset: 0x47960, size: 0x8, addend: 0x0, symName: __RNvYNtNtCscj7Jssje0XT_11async_trait8receiver7HasSelfNtNtNtCsdGrGZaRBwMb_3syn3gen9visit_mut8VisitMut20visit_constraint_mutB6_, symObjAddr: 0x62E0, symBinAddr: 0x3B870, symSize: 0x30 }
  - { offset: 0x4799F, size: 0x8, addend: 0x0, symName: __RNvYNtNtCscj7Jssje0XT_11async_trait8receiver7HasSelfNtNtNtCsdGrGZaRBwMb_3syn3gen9visit_mut8VisitMut20visit_expr_array_mutB6_, symObjAddr: 0x6310, symBinAddr: 0x3B8A0, symSize: 0x30 }
  - { offset: 0x479DE, size: 0x8, addend: 0x0, symName: __RNvYNtNtCscj7Jssje0XT_11async_trait8receiver7HasSelfNtNtNtCsdGrGZaRBwMb_3syn3gen9visit_mut8VisitMut20visit_expr_async_mutB6_, symObjAddr: 0x6340, symBinAddr: 0x3B8D0, symSize: 0x30 }
  - { offset: 0x47A1D, size: 0x8, addend: 0x0, symName: __RNvYNtNtCscj7Jssje0XT_11async_trait8receiver7HasSelfNtNtNtCsdGrGZaRBwMb_3syn3gen9visit_mut8VisitMut20visit_expr_await_mutB6_, symObjAddr: 0x6370, symBinAddr: 0x3B900, symSize: 0x30 }
  - { offset: 0x47A5C, size: 0x8, addend: 0x0, symName: __RNvYNtNtCscj7Jssje0XT_11async_trait8receiver7HasSelfNtNtNtCsdGrGZaRBwMb_3syn3gen9visit_mut8VisitMut20visit_expr_block_mutB6_, symObjAddr: 0x63A0, symBinAddr: 0x3B930, symSize: 0x30 }
  - { offset: 0x47A9B, size: 0x8, addend: 0x0, symName: __RNvYNtNtCscj7Jssje0XT_11async_trait8receiver7HasSelfNtNtNtCsdGrGZaRBwMb_3syn3gen9visit_mut8VisitMut20visit_expr_break_mutB6_, symObjAddr: 0x63D0, symBinAddr: 0x3B960, symSize: 0x30 }
  - { offset: 0x47ADA, size: 0x8, addend: 0x0, symName: __RNvYNtNtCscj7Jssje0XT_11async_trait8receiver7HasSelfNtNtNtCsdGrGZaRBwMb_3syn3gen9visit_mut8VisitMut20visit_expr_const_mutB6_, symObjAddr: 0x6400, symBinAddr: 0x3B990, symSize: 0x30 }
  - { offset: 0x47B19, size: 0x8, addend: 0x0, symName: __RNvYNtNtCscj7Jssje0XT_11async_trait8receiver7HasSelfNtNtNtCsdGrGZaRBwMb_3syn3gen9visit_mut8VisitMut20visit_expr_field_mutB6_, symObjAddr: 0x6430, symBinAddr: 0x3B9C0, symSize: 0x30 }
  - { offset: 0x47B58, size: 0x8, addend: 0x0, symName: __RNvYNtNtCscj7Jssje0XT_11async_trait8receiver7HasSelfNtNtNtCsdGrGZaRBwMb_3syn3gen9visit_mut8VisitMut20visit_expr_group_mutB6_, symObjAddr: 0x6460, symBinAddr: 0x3B9F0, symSize: 0x30 }
  - { offset: 0x47B97, size: 0x8, addend: 0x0, symName: __RNvYNtNtCscj7Jssje0XT_11async_trait8receiver7HasSelfNtNtNtCsdGrGZaRBwMb_3syn3gen9visit_mut8VisitMut20visit_expr_index_mutB6_, symObjAddr: 0x6490, symBinAddr: 0x3BA20, symSize: 0x30 }
  - { offset: 0x47BD6, size: 0x8, addend: 0x0, symName: __RNvYNtNtCscj7Jssje0XT_11async_trait8receiver7HasSelfNtNtNtCsdGrGZaRBwMb_3syn3gen9visit_mut8VisitMut20visit_expr_infer_mutB6_, symObjAddr: 0x64C0, symBinAddr: 0x3BA50, symSize: 0x30 }
  - { offset: 0x47C15, size: 0x8, addend: 0x0, symName: __RNvYNtNtCscj7Jssje0XT_11async_trait8receiver7HasSelfNtNtNtCsdGrGZaRBwMb_3syn3gen9visit_mut8VisitMut20visit_expr_macro_mutB6_, symObjAddr: 0x64F0, symBinAddr: 0x3BA80, symSize: 0x30 }
  - { offset: 0x47C54, size: 0x8, addend: 0x0, symName: __RNvYNtNtCscj7Jssje0XT_11async_trait8receiver7HasSelfNtNtNtCsdGrGZaRBwMb_3syn3gen9visit_mut8VisitMut20visit_expr_match_mutB6_, symObjAddr: 0x6520, symBinAddr: 0x3BAB0, symSize: 0x30 }
  - { offset: 0x47C96, size: 0x8, addend: 0x0, symName: __RNvYNtNtCscj7Jssje0XT_11async_trait8receiver7HasSelfNtNtNtCsdGrGZaRBwMb_3syn3gen9visit_mut8VisitMut20visit_expr_paren_mutB6_, symObjAddr: 0x6550, symBinAddr: 0x3BAE0, symSize: 0x30 }
  - { offset: 0x47CD8, size: 0x8, addend: 0x0, symName: __RNvYNtNtCscj7Jssje0XT_11async_trait8receiver7HasSelfNtNtNtCsdGrGZaRBwMb_3syn3gen9visit_mut8VisitMut20visit_expr_range_mutB6_, symObjAddr: 0x6580, symBinAddr: 0x3BB10, symSize: 0x30 }
  - { offset: 0x47D1A, size: 0x8, addend: 0x0, symName: __RNvYNtNtCscj7Jssje0XT_11async_trait8receiver7HasSelfNtNtNtCsdGrGZaRBwMb_3syn3gen9visit_mut8VisitMut20visit_expr_tuple_mutB6_, symObjAddr: 0x65B0, symBinAddr: 0x3BB40, symSize: 0x30 }
  - { offset: 0x47D5C, size: 0x8, addend: 0x0, symName: __RNvYNtNtCscj7Jssje0XT_11async_trait8receiver7HasSelfNtNtNtCsdGrGZaRBwMb_3syn3gen9visit_mut8VisitMut20visit_expr_unary_mutB6_, symObjAddr: 0x65E0, symBinAddr: 0x3BB70, symSize: 0x30 }
  - { offset: 0x47D9E, size: 0x8, addend: 0x0, symName: __RNvYNtNtCscj7Jssje0XT_11async_trait8receiver7HasSelfNtNtNtCsdGrGZaRBwMb_3syn3gen9visit_mut8VisitMut20visit_expr_while_mutB6_, symObjAddr: 0x6610, symBinAddr: 0x3BBA0, symSize: 0x30 }
  - { offset: 0x47DE0, size: 0x8, addend: 0x0, symName: __RNvYNtNtCscj7Jssje0XT_11async_trait8receiver7HasSelfNtNtNtCsdGrGZaRBwMb_3syn3gen9visit_mut8VisitMut20visit_expr_yield_mutB6_, symObjAddr: 0x6640, symBinAddr: 0x3BBD0, symSize: 0x30 }
  - { offset: 0x47E22, size: 0x8, addend: 0x0, symName: __RNvYNtNtCscj7Jssje0XT_11async_trait8receiver7HasSelfNtNtNtCsdGrGZaRBwMb_3syn3gen9visit_mut8VisitMut20visit_local_init_mutB6_, symObjAddr: 0x6670, symBinAddr: 0x3BC00, symSize: 0x30 }
  - { offset: 0x47E64, size: 0x8, addend: 0x0, symName: __RNvYNtNtCscj7Jssje0XT_11async_trait8receiver7HasSelfNtNtNtCsdGrGZaRBwMb_3syn3gen9visit_mut8VisitMut20visit_pat_struct_mutB6_, symObjAddr: 0x66A0, symBinAddr: 0x3BC30, symSize: 0x30 }
  - { offset: 0x47EA6, size: 0x8, addend: 0x0, symName: __RNvYNtNtCscj7Jssje0XT_11async_trait8receiver7HasSelfNtNtNtCsdGrGZaRBwMb_3syn3gen9visit_mut8VisitMut20visit_stmt_macro_mutB6_, symObjAddr: 0x66D0, symBinAddr: 0x3BC60, symSize: 0x30 }
  - { offset: 0x47EE8, size: 0x8, addend: 0x0, symName: __RNvYNtNtCscj7Jssje0XT_11async_trait8receiver7HasSelfNtNtNtCsdGrGZaRBwMb_3syn3gen9visit_mut8VisitMut20visit_type_array_mutB6_, symObjAddr: 0x6700, symBinAddr: 0x3BC90, symSize: 0x30 }
  - { offset: 0x47F2A, size: 0x8, addend: 0x0, symName: __RNvYNtNtCscj7Jssje0XT_11async_trait8receiver7HasSelfNtNtNtCsdGrGZaRBwMb_3syn3gen9visit_mut8VisitMut20visit_type_group_mutB6_, symObjAddr: 0x6730, symBinAddr: 0x3BCC0, symSize: 0x30 }
  - { offset: 0x47F6C, size: 0x8, addend: 0x0, symName: __RNvYNtNtCscj7Jssje0XT_11async_trait8receiver7HasSelfNtNtNtCsdGrGZaRBwMb_3syn3gen9visit_mut8VisitMut20visit_type_infer_mutB6_, symObjAddr: 0x6760, symBinAddr: 0x3BCF0, symSize: 0x30 }
  - { offset: 0x47FAE, size: 0x8, addend: 0x0, symName: __RNvYNtNtCscj7Jssje0XT_11async_trait8receiver7HasSelfNtNtNtCsdGrGZaRBwMb_3syn3gen9visit_mut8VisitMut20visit_type_macro_mutB6_, symObjAddr: 0x6790, symBinAddr: 0x3BD20, symSize: 0x30 }
  - { offset: 0x47FF0, size: 0x8, addend: 0x0, symName: __RNvYNtNtCscj7Jssje0XT_11async_trait8receiver7HasSelfNtNtNtCsdGrGZaRBwMb_3syn3gen9visit_mut8VisitMut20visit_type_never_mutB6_, symObjAddr: 0x67C0, symBinAddr: 0x3BD50, symSize: 0x30 }
  - { offset: 0x48032, size: 0x8, addend: 0x0, symName: __RNvYNtNtCscj7Jssje0XT_11async_trait8receiver7HasSelfNtNtNtCsdGrGZaRBwMb_3syn3gen9visit_mut8VisitMut20visit_type_param_mutB6_, symObjAddr: 0x67F0, symBinAddr: 0x3BD80, symSize: 0x30 }
  - { offset: 0x48074, size: 0x8, addend: 0x0, symName: __RNvYNtNtCscj7Jssje0XT_11async_trait8receiver7HasSelfNtNtNtCsdGrGZaRBwMb_3syn3gen9visit_mut8VisitMut20visit_type_paren_mutB6_, symObjAddr: 0x6820, symBinAddr: 0x3BDB0, symSize: 0x30 }
  - { offset: 0x480B6, size: 0x8, addend: 0x0, symName: __RNvYNtNtCscj7Jssje0XT_11async_trait8receiver7HasSelfNtNtNtCsdGrGZaRBwMb_3syn3gen9visit_mut8VisitMut20visit_type_slice_mutB6_, symObjAddr: 0x6850, symBinAddr: 0x3BDE0, symSize: 0x30 }
  - { offset: 0x480F8, size: 0x8, addend: 0x0, symName: __RNvYNtNtCscj7Jssje0XT_11async_trait8receiver7HasSelfNtNtNtCsdGrGZaRBwMb_3syn3gen9visit_mut8VisitMut20visit_type_tuple_mutB6_, symObjAddr: 0x6880, symBinAddr: 0x3BE10, symSize: 0x30 }
  - { offset: 0x4813A, size: 0x8, addend: 0x0, symName: __RNvYNtNtCscj7Jssje0XT_11async_trait8receiver7HasSelfNtNtNtCsdGrGZaRBwMb_3syn3gen9visit_mut8VisitMut21visit_assoc_const_mutB6_, symObjAddr: 0x68B0, symBinAddr: 0x3BE40, symSize: 0x30 }
  - { offset: 0x48179, size: 0x8, addend: 0x0, symName: __RNvYNtNtCscj7Jssje0XT_11async_trait8receiver7HasSelfNtNtNtCsdGrGZaRBwMb_3syn3gen9visit_mut8VisitMut21visit_bare_fn_arg_mutB6_, symObjAddr: 0x68E0, symBinAddr: 0x3BE70, symSize: 0x30 }
  - { offset: 0x481B8, size: 0x8, addend: 0x0, symName: __RNvYNtNtCscj7Jssje0XT_11async_trait8receiver7HasSelfNtNtNtCsdGrGZaRBwMb_3syn3gen9visit_mut8VisitMut21visit_const_param_mutB6_, symObjAddr: 0x6910, symBinAddr: 0x3BEA0, symSize: 0x30 }
  - { offset: 0x481F7, size: 0x8, addend: 0x0, symName: __RNvYNtNtCscj7Jssje0XT_11async_trait8receiver7HasSelfNtNtNtCsdGrGZaRBwMb_3syn3gen9visit_mut8VisitMut21visit_expr_assign_mutB6_, symObjAddr: 0x6940, symBinAddr: 0x3BED0, symSize: 0x30 }
  - { offset: 0x48236, size: 0x8, addend: 0x0, symName: __RNvYNtNtCscj7Jssje0XT_11async_trait8receiver7HasSelfNtNtNtCsdGrGZaRBwMb_3syn3gen9visit_mut8VisitMut21visit_expr_binary_mutB6_, symObjAddr: 0x6970, symBinAddr: 0x3BF00, symSize: 0x30 }
  - { offset: 0x48275, size: 0x8, addend: 0x0, symName: __RNvYNtNtCscj7Jssje0XT_11async_trait8receiver7HasSelfNtNtNtCsdGrGZaRBwMb_3syn3gen9visit_mut8VisitMut21visit_expr_repeat_mutB6_, symObjAddr: 0x69A0, symBinAddr: 0x3BF30, symSize: 0x30 }
  - { offset: 0x482B7, size: 0x8, addend: 0x0, symName: __RNvYNtNtCscj7Jssje0XT_11async_trait8receiver7HasSelfNtNtNtCsdGrGZaRBwMb_3syn3gen9visit_mut8VisitMut21visit_expr_return_mutB6_, symObjAddr: 0x69D0, symBinAddr: 0x3BF60, symSize: 0x30 }
  - { offset: 0x482F9, size: 0x8, addend: 0x0, symName: __RNvYNtNtCscj7Jssje0XT_11async_trait8receiver7HasSelfNtNtNtCsdGrGZaRBwMb_3syn3gen9visit_mut8VisitMut21visit_expr_struct_mutB6_, symObjAddr: 0x6A00, symBinAddr: 0x3BF90, symSize: 0x30 }
  - { offset: 0x4833B, size: 0x8, addend: 0x0, symName: __RNvYNtNtCscj7Jssje0XT_11async_trait8receiver7HasSelfNtNtNtCsdGrGZaRBwMb_3syn3gen9visit_mut8VisitMut21visit_expr_unsafe_mutB6_, symObjAddr: 0x6A30, symBinAddr: 0x3BFC0, symSize: 0x30 }
  - { offset: 0x4837D, size: 0x8, addend: 0x0, symName: __RNvYNtNtCscj7Jssje0XT_11async_trait8receiver7HasSelfNtNtNtCsdGrGZaRBwMb_3syn3gen9visit_mut8VisitMut21visit_field_value_mutB6_, symObjAddr: 0x6A60, symBinAddr: 0x3BFF0, symSize: 0x30 }
  - { offset: 0x483BF, size: 0x8, addend: 0x0, symName: __RNvYNtNtCscj7Jssje0XT_11async_trait8receiver7HasSelfNtNtNtCsdGrGZaRBwMb_3syn3gen9visit_mut8VisitMut21visit_return_type_mutB6_, symObjAddr: 0x6A90, symBinAddr: 0x3C020, symSize: 0x30 }
  - { offset: 0x48401, size: 0x8, addend: 0x0, symName: __RNvYNtNtCscj7Jssje0XT_11async_trait8receiver7HasSelfNtNtNtCsdGrGZaRBwMb_3syn3gen9visit_mut8VisitMut21visit_trait_bound_mutB6_, symObjAddr: 0x6AC0, symBinAddr: 0x3C050, symSize: 0x30 }
  - { offset: 0x48443, size: 0x8, addend: 0x0, symName: __RNvYNtNtCscj7Jssje0XT_11async_trait8receiver7HasSelfNtNtNtCsdGrGZaRBwMb_3syn3gen9visit_mut8VisitMut22visit_expr_closure_mutB6_, symObjAddr: 0x6AF0, symBinAddr: 0x3C080, symSize: 0x30 }
  - { offset: 0x48482, size: 0x8, addend: 0x0, symName: __RNvYNtNtCscj7Jssje0XT_11async_trait8receiver7HasSelfNtNtNtCsdGrGZaRBwMb_3syn3gen9visit_mut8VisitMut22visit_lit_byte_str_mutB6_, symObjAddr: 0x6B20, symBinAddr: 0x3C0B0, symSize: 0x30 }
  - { offset: 0x484C4, size: 0x8, addend: 0x0, symName: __RNvYNtNtCscj7Jssje0XT_11async_trait8receiver7HasSelfNtNtNtCsdGrGZaRBwMb_3syn3gen9visit_mut8VisitMut22visit_path_segment_mutB6_, symObjAddr: 0x6B50, symBinAddr: 0x3C0E0, symSize: 0x30 }
  - { offset: 0x48506, size: 0x8, addend: 0x0, symName: __RNvYNtNtCscj7Jssje0XT_11async_trait8receiver7HasSelfNtNtNtCsdGrGZaRBwMb_3syn3gen9visit_mut8VisitMut22visit_range_limits_mutB6_, symObjAddr: 0x6B80, symBinAddr: 0x3C110, symSize: 0x30 }
  - { offset: 0x48548, size: 0x8, addend: 0x0, symName: __RNvYNtNtCscj7Jssje0XT_11async_trait8receiver7HasSelfNtNtNtCsdGrGZaRBwMb_3syn3gen9visit_mut8VisitMut22visit_token_stream_mutB6_, symObjAddr: 0x6BB0, symBinAddr: 0x3C140, symSize: 0x20 }
  - { offset: 0x4858A, size: 0x8, addend: 0x0, symName: __RNvYNtNtCscj7Jssje0XT_11async_trait8receiver7HasSelfNtNtNtCsdGrGZaRBwMb_3syn3gen9visit_mut8VisitMut22visit_type_bare_fn_mutB6_, symObjAddr: 0x6BD0, symBinAddr: 0x3C160, symSize: 0x30 }
  - { offset: 0x485CC, size: 0x8, addend: 0x0, symName: __RNvYNtNtCscj7Jssje0XT_11async_trait8receiver7HasSelfNtNtNtCsdGrGZaRBwMb_3syn3gen9visit_mut8VisitMut22visit_where_clause_mutB6_, symObjAddr: 0x6C00, symBinAddr: 0x3C190, symSize: 0x30 }
  - { offset: 0x4860E, size: 0x8, addend: 0x0, symName: __RNvYNtNtCscj7Jssje0XT_11async_trait8receiver7HasSelfNtNtNtCsdGrGZaRBwMb_3syn3gen9visit_mut8VisitMut23visit_bare_variadic_mutB6_, symObjAddr: 0x6C30, symBinAddr: 0x3C1C0, symSize: 0x30 }
  - { offset: 0x4864D, size: 0x8, addend: 0x0, symName: __RNvYNtNtCscj7Jssje0XT_11async_trait8receiver7HasSelfNtNtNtCsdGrGZaRBwMb_3syn3gen9visit_mut8VisitMut23visit_expr_continue_mutB6_, symObjAddr: 0x6C60, symBinAddr: 0x3C1F0, symSize: 0x30 }
  - { offset: 0x4868C, size: 0x8, addend: 0x0, symName: __RNvYNtNtCscj7Jssje0XT_11async_trait8receiver7HasSelfNtNtNtCsdGrGZaRBwMb_3syn3gen9visit_mut8VisitMut23visit_expr_for_loop_mutB6_, symObjAddr: 0x6C90, symBinAddr: 0x3C220, symSize: 0x30 }
  - { offset: 0x486CB, size: 0x8, addend: 0x0, symName: __RNvYNtNtCscj7Jssje0XT_11async_trait8receiver7HasSelfNtNtNtCsdGrGZaRBwMb_3syn3gen9visit_mut8VisitMut23visit_expr_raw_addr_mutB6_, symObjAddr: 0x6CC0, symBinAddr: 0x3C250, symSize: 0x30 }
  - { offset: 0x4870D, size: 0x8, addend: 0x0, symName: __RNvYNtNtCscj7Jssje0XT_11async_trait8receiver7HasSelfNtNtNtCsdGrGZaRBwMb_3syn3gen9visit_mut8VisitMut23visit_generic_param_mutB6_, symObjAddr: 0x6CF0, symBinAddr: 0x3C280, symSize: 0x30 }
  - { offset: 0x4874F, size: 0x8, addend: 0x0, symName: __RNvYNtNtCscj7Jssje0XT_11async_trait8receiver7HasSelfNtNtNtCsdGrGZaRBwMb_3syn3gen9visit_mut8VisitMut23visit_pat_reference_mutB6_, symObjAddr: 0x6D20, symBinAddr: 0x3C2B0, symSize: 0x30 }
  - { offset: 0x48791, size: 0x8, addend: 0x0, symName: __RNvYNtNtCscj7Jssje0XT_11async_trait8receiver7HasSelfNtNtNtCsdGrGZaRBwMb_3syn3gen9visit_mut8VisitMut24visit_captured_param_mutB6_, symObjAddr: 0x6D50, symBinAddr: 0x3C2E0, symSize: 0x30 }
  - { offset: 0x487D0, size: 0x8, addend: 0x0, symName: __RNvYNtNtCscj7Jssje0XT_11async_trait8receiver7HasSelfNtNtNtCsdGrGZaRBwMb_3syn3gen9visit_mut8VisitMut24visit_expr_reference_mutB6_, symObjAddr: 0x6D80, symBinAddr: 0x3C310, symSize: 0x30 }
  - { offset: 0x48812, size: 0x8, addend: 0x0, symName: __RNvYNtNtCscj7Jssje0XT_11async_trait8receiver7HasSelfNtNtNtCsdGrGZaRBwMb_3syn3gen9visit_mut8VisitMut24visit_expr_try_block_mutB6_, symObjAddr: 0x6DB0, symBinAddr: 0x3C340, symSize: 0x30 }
  - { offset: 0x48854, size: 0x8, addend: 0x0, symName: __RNvYNtNtCscj7Jssje0XT_11async_trait8receiver7HasSelfNtNtNtCsdGrGZaRBwMb_3syn3gen9visit_mut8VisitMut24visit_lifetime_param_mutB6_, symObjAddr: 0x6DE0, symBinAddr: 0x3C370, symSize: 0x30 }
  - { offset: 0x48896, size: 0x8, addend: 0x0, symName: __RNvYNtNtCscj7Jssje0XT_11async_trait8receiver7HasSelfNtNtNtCsdGrGZaRBwMb_3syn3gen9visit_mut8VisitMut24visit_path_arguments_mutB6_, symObjAddr: 0x6E10, symBinAddr: 0x3C3A0, symSize: 0x30 }
  - { offset: 0x488D8, size: 0x8, addend: 0x0, symName: __RNvYNtNtCscj7Jssje0XT_11async_trait8receiver7HasSelfNtNtNtCsdGrGZaRBwMb_3syn3gen9visit_mut8VisitMut24visit_predicate_type_mutB6_, symObjAddr: 0x6E40, symBinAddr: 0x3C3D0, symSize: 0x30 }
  - { offset: 0x4891A, size: 0x8, addend: 0x0, symName: __RNvYNtNtCscj7Jssje0XT_11async_trait8receiver7HasSelfNtNtNtCsdGrGZaRBwMb_3syn3gen9visit_mut8VisitMut24visit_type_reference_mutB6_, symObjAddr: 0x6E70, symBinAddr: 0x3C400, symSize: 0x30 }
  - { offset: 0x4895C, size: 0x8, addend: 0x0, symName: __RNvYNtNtCscj7Jssje0XT_11async_trait8receiver7HasSelfNtNtNtCsdGrGZaRBwMb_3syn3gen9visit_mut8VisitMut25visit_bound_lifetimes_mutB6_, symObjAddr: 0x6EA0, symBinAddr: 0x3C430, symSize: 0x30 }
  - { offset: 0x4899B, size: 0x8, addend: 0x0, symName: __RNvYNtNtCscj7Jssje0XT_11async_trait8receiver7HasSelfNtNtNtCsdGrGZaRBwMb_3syn3gen9visit_mut8VisitMut25visit_macro_delimiter_mutB6_, symObjAddr: 0x6ED0, symBinAddr: 0x3C460, symSize: 0x30 }
  - { offset: 0x489DD, size: 0x8, addend: 0x0, symName: __RNvYNtNtCscj7Jssje0XT_11async_trait8receiver7HasSelfNtNtNtCsdGrGZaRBwMb_3syn3gen9visit_mut8VisitMut25visit_meta_name_value_mutB6_, symObjAddr: 0x6F00, symBinAddr: 0x3C490, symSize: 0x30 }
  - { offset: 0x48A1F, size: 0x8, addend: 0x0, symName: __RNvYNtNtCscj7Jssje0XT_11async_trait8receiver7HasSelfNtNtNtCsdGrGZaRBwMb_3syn3gen9visit_mut8VisitMut25visit_precise_capture_mutB6_, symObjAddr: 0x6F30, symBinAddr: 0x3C4C0, symSize: 0x30 }
  - { offset: 0x48A61, size: 0x8, addend: 0x0, symName: __RNvYNtNtCscj7Jssje0XT_11async_trait8receiver7HasSelfNtNtNtCsdGrGZaRBwMb_3syn3gen9visit_mut8VisitMut25visit_type_impl_trait_mutB6_, symObjAddr: 0x6F60, symBinAddr: 0x3C4F0, symSize: 0x30 }
  - { offset: 0x48AA3, size: 0x8, addend: 0x0, symName: __RNvYNtNtCscj7Jssje0XT_11async_trait8receiver7HasSelfNtNtNtCsdGrGZaRBwMb_3syn3gen9visit_mut8VisitMut25visit_where_predicate_mutB6_, symObjAddr: 0x6F90, symBinAddr: 0x3C520, symSize: 0x30 }
  - { offset: 0x48AE5, size: 0x8, addend: 0x0, symName: __RNvYNtNtCscj7Jssje0XT_11async_trait8receiver7HasSelfNtNtNtCsdGrGZaRBwMb_3syn3gen9visit_mut8VisitMut26visit_expr_method_call_mutB6_, symObjAddr: 0x6FC0, symBinAddr: 0x3C550, symSize: 0x30 }
  - { offset: 0x48B27, size: 0x8, addend: 0x0, symName: __RNvYNtNtCscj7Jssje0XT_11async_trait8receiver7HasSelfNtNtNtCsdGrGZaRBwMb_3syn3gen9visit_mut8VisitMut26visit_generic_argument_mutB6_, symObjAddr: 0x6FF0, symBinAddr: 0x3C580, symSize: 0x30 }
  - { offset: 0x48B69, size: 0x8, addend: 0x0, symName: __RNvYNtNtCscj7Jssje0XT_11async_trait8receiver7HasSelfNtNtNtCsdGrGZaRBwMb_3syn3gen9visit_mut8VisitMut26visit_pat_tuple_struct_mutB6_, symObjAddr: 0x7020, symBinAddr: 0x3C5B0, symSize: 0x30 }
  - { offset: 0x48BAB, size: 0x8, addend: 0x0, symName: __RNvYNtNtCscj7Jssje0XT_11async_trait8receiver7HasSelfNtNtNtCsdGrGZaRBwMb_3syn3gen9visit_mut8VisitMut26visit_type_param_bound_mutB6_, symObjAddr: 0x7050, symBinAddr: 0x3C5E0, symSize: 0x30 }
  - { offset: 0x48BED, size: 0x8, addend: 0x0, symName: __RNvYNtNtCscj7Jssje0XT_11async_trait8receiver7HasSelfNtNtNtCsdGrGZaRBwMb_3syn3gen9visit_mut8VisitMut27visit_type_trait_object_mutB6_, symObjAddr: 0x7080, symBinAddr: 0x3C610, symSize: 0x30 }
  - { offset: 0x48C2F, size: 0x8, addend: 0x0, symName: __RNvYNtNtCscj7Jssje0XT_11async_trait8receiver7HasSelfNtNtNtCsdGrGZaRBwMb_3syn3gen9visit_mut8VisitMut28visit_pointer_mutability_mutB6_, symObjAddr: 0x70B0, symBinAddr: 0x3C640, symSize: 0x30 }
  - { offset: 0x48C71, size: 0x8, addend: 0x0, symName: __RNvYNtNtCscj7Jssje0XT_11async_trait8receiver7HasSelfNtNtNtCsdGrGZaRBwMb_3syn3gen9visit_mut8VisitMut28visit_predicate_lifetime_mutB6_, symObjAddr: 0x70E0, symBinAddr: 0x3C670, symSize: 0x30 }
  - { offset: 0x48CB3, size: 0x8, addend: 0x0, symName: __RNvYNtNtCscj7Jssje0XT_11async_trait8receiver7HasSelfNtNtNtCsdGrGZaRBwMb_3syn3gen9visit_mut8VisitMut30visit_trait_bound_modifier_mutB6_, symObjAddr: 0x7110, symBinAddr: 0x3C6A0, symSize: 0x30 }
  - { offset: 0x48CF5, size: 0x8, addend: 0x0, symName: __RNvYNtNtCscj7Jssje0XT_11async_trait8receiver7HasSelfNtNtNtCsdGrGZaRBwMb_3syn3gen9visit_mut8VisitMut41visit_parenthesized_generic_arguments_mutB6_, symObjAddr: 0x7140, symBinAddr: 0x3C6D0, symSize: 0x30 }
  - { offset: 0x48D37, size: 0x8, addend: 0x0, symName: __RNvYNtNtCscj7Jssje0XT_11async_trait8receiver7HasSelfNtNtNtCsdGrGZaRBwMb_3syn3gen9visit_mut8VisitMut43visit_angle_bracketed_generic_arguments_mutB6_, symObjAddr: 0x7170, symBinAddr: 0x3C700, symSize: 0x30 }
  - { offset: 0x48D76, size: 0x8, addend: 0x0, symName: __RNvYNtNtCscj7Jssje0XT_11async_trait8receiver9HasMutPatNtNtNtCsdGrGZaRBwMb_3syn3gen9visit_mut8VisitMut13visit_abi_mutB6_, symObjAddr: 0x71A0, symBinAddr: 0x3C730, symSize: 0x30 }
  - { offset: 0x48DB5, size: 0x8, addend: 0x0, symName: __RNvYNtNtCscj7Jssje0XT_11async_trait8receiver9HasMutPatNtNtNtCsdGrGZaRBwMb_3syn3gen9visit_mut8VisitMut13visit_arm_mutB6_, symObjAddr: 0x71D0, symBinAddr: 0x3C760, symSize: 0x30 }
  - { offset: 0x48DF4, size: 0x8, addend: 0x0, symName: __RNvYNtNtCscj7Jssje0XT_11async_trait8receiver9HasMutPatNtNtNtCsdGrGZaRBwMb_3syn3gen9visit_mut8VisitMut13visit_lit_mutB6_, symObjAddr: 0x7200, symBinAddr: 0x3C790, symSize: 0x30 }
  - { offset: 0x48E36, size: 0x8, addend: 0x0, symName: __RNvYNtNtCscj7Jssje0XT_11async_trait8receiver9HasMutPatNtNtNtCsdGrGZaRBwMb_3syn3gen9visit_mut8VisitMut13visit_pat_mutB6_, symObjAddr: 0x7230, symBinAddr: 0x3C7C0, symSize: 0x30 }
  - { offset: 0x48E78, size: 0x8, addend: 0x0, symName: __RNvYNtNtCscj7Jssje0XT_11async_trait8receiver9HasMutPatNtNtNtCsdGrGZaRBwMb_3syn3gen9visit_mut8VisitMut14visit_expr_mutB6_, symObjAddr: 0x7260, symBinAddr: 0x3C7F0, symSize: 0x30 }
  - { offset: 0x48EB7, size: 0x8, addend: 0x0, symName: __RNvYNtNtCscj7Jssje0XT_11async_trait8receiver9HasMutPatNtNtNtCsdGrGZaRBwMb_3syn3gen9visit_mut8VisitMut14visit_item_mutB6_, symObjAddr: 0x7290, symBinAddr: 0x3C820, symSize: 0x30 }
  - { offset: 0x48EF9, size: 0x8, addend: 0x0, symName: __RNvYNtNtCscj7Jssje0XT_11async_trait8receiver9HasMutPatNtNtNtCsdGrGZaRBwMb_3syn3gen9visit_mut8VisitMut14visit_meta_mutB6_, symObjAddr: 0x72C0, symBinAddr: 0x3C850, symSize: 0x30 }
  - { offset: 0x48F3B, size: 0x8, addend: 0x0, symName: __RNvYNtNtCscj7Jssje0XT_11async_trait8receiver9HasMutPatNtNtNtCsdGrGZaRBwMb_3syn3gen9visit_mut8VisitMut14visit_path_mutB6_, symObjAddr: 0x72F0, symBinAddr: 0x3C880, symSize: 0x30 }
  - { offset: 0x48F7D, size: 0x8, addend: 0x0, symName: __RNvYNtNtCscj7Jssje0XT_11async_trait8receiver9HasMutPatNtNtNtCsdGrGZaRBwMb_3syn3gen9visit_mut8VisitMut14visit_span_mutB6_, symObjAddr: 0x7320, symBinAddr: 0x3C8B0, symSize: 0x20 }
  - { offset: 0x48FBF, size: 0x8, addend: 0x0, symName: __RNvYNtNtCscj7Jssje0XT_11async_trait8receiver9HasMutPatNtNtNtCsdGrGZaRBwMb_3syn3gen9visit_mut8VisitMut14visit_stmt_mutB6_, symObjAddr: 0x7340, symBinAddr: 0x3C8D0, symSize: 0x30 }
  - { offset: 0x49001, size: 0x8, addend: 0x0, symName: __RNvYNtNtCscj7Jssje0XT_11async_trait8receiver9HasMutPatNtNtNtCsdGrGZaRBwMb_3syn3gen9visit_mut8VisitMut14visit_type_mutB6_, symObjAddr: 0x7370, symBinAddr: 0x3C900, symSize: 0x30 }
  - { offset: 0x49043, size: 0x8, addend: 0x0, symName: __RNvYNtNtCscj7Jssje0XT_11async_trait8receiver9HasMutPatNtNtNtCsdGrGZaRBwMb_3syn3gen9visit_mut8VisitMut15visit_block_mutB6_, symObjAddr: 0x73A0, symBinAddr: 0x3C930, symSize: 0x30 }
  - { offset: 0x49082, size: 0x8, addend: 0x0, symName: __RNvYNtNtCscj7Jssje0XT_11async_trait8receiver9HasMutPatNtNtNtCsdGrGZaRBwMb_3syn3gen9visit_mut8VisitMut15visit_field_mutB6_, symObjAddr: 0x73D0, symBinAddr: 0x3C960, symSize: 0x30 }
  - { offset: 0x490C4, size: 0x8, addend: 0x0, symName: __RNvYNtNtCscj7Jssje0XT_11async_trait8receiver9HasMutPatNtNtNtCsdGrGZaRBwMb_3syn3gen9visit_mut8VisitMut15visit_ident_mutB6_, symObjAddr: 0x7400, symBinAddr: 0x3C990, symSize: 0x30 }
  - { offset: 0x49106, size: 0x8, addend: 0x0, symName: __RNvYNtNtCscj7Jssje0XT_11async_trait8receiver9HasMutPatNtNtNtCsdGrGZaRBwMb_3syn3gen9visit_mut8VisitMut15visit_index_mutB6_, symObjAddr: 0x7430, symBinAddr: 0x3C9C0, symSize: 0x30 }
  - { offset: 0x49148, size: 0x8, addend: 0x0, symName: __RNvYNtNtCscj7Jssje0XT_11async_trait8receiver9HasMutPatNtNtNtCsdGrGZaRBwMb_3syn3gen9visit_mut8VisitMut15visit_label_mutB6_, symObjAddr: 0x7460, symBinAddr: 0x3C9F0, symSize: 0x30 }
  - { offset: 0x4918A, size: 0x8, addend: 0x0, symName: __RNvYNtNtCscj7Jssje0XT_11async_trait8receiver9HasMutPatNtNtNtCsdGrGZaRBwMb_3syn3gen9visit_mut8VisitMut15visit_local_mutB6_, symObjAddr: 0x7490, symBinAddr: 0x3CA20, symSize: 0x30 }
  - { offset: 0x491CC, size: 0x8, addend: 0x0, symName: __RNvYNtNtCscj7Jssje0XT_11async_trait8receiver9HasMutPatNtNtNtCsdGrGZaRBwMb_3syn3gen9visit_mut8VisitMut15visit_macro_mutB6_, symObjAddr: 0x74C0, symBinAddr: 0x3CA50, symSize: 0x30 }
  - { offset: 0x4920E, size: 0x8, addend: 0x0, symName: __RNvYNtNtCscj7Jssje0XT_11async_trait8receiver9HasMutPatNtNtNtCsdGrGZaRBwMb_3syn3gen9visit_mut8VisitMut15visit_qself_mutB6_, symObjAddr: 0x74F0, symBinAddr: 0x3CA80, symSize: 0x30 }
  - { offset: 0x49250, size: 0x8, addend: 0x0, symName: __RNvYNtNtCscj7Jssje0XT_11async_trait8receiver9HasMutPatNtNtNtCsdGrGZaRBwMb_3syn3gen9visit_mut8VisitMut15visit_un_op_mutB6_, symObjAddr: 0x7520, symBinAddr: 0x3CAB0, symSize: 0x30 }
  - { offset: 0x49292, size: 0x8, addend: 0x0, symName: __RNvYNtNtCscj7Jssje0XT_11async_trait8receiver9HasMutPatNtNtNtCsdGrGZaRBwMb_3syn3gen9visit_mut8VisitMut16visit_bin_op_mutB6_, symObjAddr: 0x7550, symBinAddr: 0x3CAE0, symSize: 0x30 }
  - { offset: 0x492D1, size: 0x8, addend: 0x0, symName: __RNvYNtNtCscj7Jssje0XT_11async_trait8receiver9HasMutPatNtNtNtCsdGrGZaRBwMb_3syn3gen9visit_mut8VisitMut16visit_fields_mutB6_, symObjAddr: 0x7580, symBinAddr: 0x3CB10, symSize: 0x30 }
  - { offset: 0x49313, size: 0x8, addend: 0x0, symName: __RNvYNtNtCscj7Jssje0XT_11async_trait8receiver9HasMutPatNtNtNtCsdGrGZaRBwMb_3syn3gen9visit_mut8VisitMut16visit_fn_arg_mutB6_, symObjAddr: 0x75B0, symBinAddr: 0x3CB40, symSize: 0x30 }
  - { offset: 0x49355, size: 0x8, addend: 0x0, symName: __RNvYNtNtCscj7Jssje0XT_11async_trait8receiver9HasMutPatNtNtNtCsdGrGZaRBwMb_3syn3gen9visit_mut8VisitMut16visit_member_mutB6_, symObjAddr: 0x75E0, symBinAddr: 0x3CB70, symSize: 0x30 }
  - { offset: 0x49397, size: 0x8, addend: 0x0, symName: __RNvYNtNtCscj7Jssje0XT_11async_trait8receiver9HasMutPatNtNtNtCsdGrGZaRBwMb_3syn3gen9visit_mut8VisitMut16visit_pat_or_mutB6_, symObjAddr: 0x7610, symBinAddr: 0x3CBA0, symSize: 0x30 }
  - { offset: 0x493D9, size: 0x8, addend: 0x0, symName: __RNvYNtNtCscj7Jssje0XT_11async_trait8receiver9HasMutPatNtNtNtCsdGrGZaRBwMb_3syn3gen9visit_mut8VisitMut17visit_expr_if_mutB6_, symObjAddr: 0x7640, symBinAddr: 0x3CBD0, symSize: 0x30 }
  - { offset: 0x49418, size: 0x8, addend: 0x0, symName: __RNvYNtNtCscj7Jssje0XT_11async_trait8receiver9HasMutPatNtNtNtCsdGrGZaRBwMb_3syn3gen9visit_mut8VisitMut17visit_item_fn_mutB6_, symObjAddr: 0x7670, symBinAddr: 0x3CC00, symSize: 0x30 }
  - { offset: 0x4945A, size: 0x8, addend: 0x0, symName: __RNvYNtNtCscj7Jssje0XT_11async_trait8receiver9HasMutPatNtNtNtCsdGrGZaRBwMb_3syn3gen9visit_mut8VisitMut17visit_lit_int_mutB6_, symObjAddr: 0x76A0, symBinAddr: 0x3CC30, symSize: 0x30 }
  - { offset: 0x4949C, size: 0x8, addend: 0x0, symName: __RNvYNtNtCscj7Jssje0XT_11async_trait8receiver9HasMutPatNtNtNtCsdGrGZaRBwMb_3syn3gen9visit_mut8VisitMut17visit_lit_str_mutB6_, symObjAddr: 0x76D0, symBinAddr: 0x3CC60, symSize: 0x30 }
  - { offset: 0x494DE, size: 0x8, addend: 0x0, symName: __RNvYNtNtCscj7Jssje0XT_11async_trait8receiver9HasMutPatNtNtNtCsdGrGZaRBwMb_3syn3gen9visit_mut8VisitMut17visit_variant_mutB6_, symObjAddr: 0x7700, symBinAddr: 0x3CC90, symSize: 0x30 }
  - { offset: 0x49520, size: 0x8, addend: 0x0, symName: __RNvYNtNtCscj7Jssje0XT_11async_trait8receiver9HasMutPatNtNtNtCsdGrGZaRBwMb_3syn3gen9visit_mut8VisitMut18visit_expr_let_mutB6_, symObjAddr: 0x7730, symBinAddr: 0x3CCC0, symSize: 0x30 }
  - { offset: 0x4955F, size: 0x8, addend: 0x0, symName: __RNvYNtNtCscj7Jssje0XT_11async_trait8receiver9HasMutPatNtNtNtCsdGrGZaRBwMb_3syn3gen9visit_mut8VisitMut18visit_expr_lit_mutB6_, symObjAddr: 0x7760, symBinAddr: 0x3CCF0, symSize: 0x30 }
  - { offset: 0x4959E, size: 0x8, addend: 0x0, symName: __RNvYNtNtCscj7Jssje0XT_11async_trait8receiver9HasMutPatNtNtNtCsdGrGZaRBwMb_3syn3gen9visit_mut8VisitMut18visit_expr_try_mutB6_, symObjAddr: 0x7790, symBinAddr: 0x3CD20, symSize: 0x30 }
  - { offset: 0x495E0, size: 0x8, addend: 0x0, symName: __RNvYNtNtCscj7Jssje0XT_11async_trait8receiver9HasMutPatNtNtNtCsdGrGZaRBwMb_3syn3gen9visit_mut8VisitMut18visit_generics_mutB6_, symObjAddr: 0x77C0, symBinAddr: 0x3CD50, symSize: 0x30 }
  - { offset: 0x49622, size: 0x8, addend: 0x0, symName: __RNvYNtNtCscj7Jssje0XT_11async_trait8receiver9HasMutPatNtNtNtCsdGrGZaRBwMb_3syn3gen9visit_mut8VisitMut18visit_item_mod_mutB6_, symObjAddr: 0x77F0, symBinAddr: 0x3CD80, symSize: 0x30 }
  - { offset: 0x49664, size: 0x8, addend: 0x0, symName: __RNvYNtNtCscj7Jssje0XT_11async_trait8receiver9HasMutPatNtNtNtCsdGrGZaRBwMb_3syn3gen9visit_mut8VisitMut18visit_item_use_mutB6_, symObjAddr: 0x7820, symBinAddr: 0x3CDB0, symSize: 0x30 }
  - { offset: 0x496A6, size: 0x8, addend: 0x0, symName: __RNvYNtNtCscj7Jssje0XT_11async_trait8receiver9HasMutPatNtNtNtCsdGrGZaRBwMb_3syn3gen9visit_mut8VisitMut18visit_lifetime_mutB6_, symObjAddr: 0x7850, symBinAddr: 0x3CDE0, symSize: 0x30 }
  - { offset: 0x496E8, size: 0x8, addend: 0x0, symName: __RNvYNtNtCscj7Jssje0XT_11async_trait8receiver9HasMutPatNtNtNtCsdGrGZaRBwMb_3syn3gen9visit_mut8VisitMut18visit_lit_bool_mutB6_, symObjAddr: 0x7880, symBinAddr: 0x3CE10, symSize: 0x30 }
  - { offset: 0x4972A, size: 0x8, addend: 0x0, symName: __RNvYNtNtCscj7Jssje0XT_11async_trait8receiver9HasMutPatNtNtNtCsdGrGZaRBwMb_3syn3gen9visit_mut8VisitMut18visit_lit_byte_mutB6_, symObjAddr: 0x78B0, symBinAddr: 0x3CE40, symSize: 0x30 }
  - { offset: 0x4976C, size: 0x8, addend: 0x0, symName: __RNvYNtNtCscj7Jssje0XT_11async_trait8receiver9HasMutPatNtNtNtCsdGrGZaRBwMb_3syn3gen9visit_mut8VisitMut18visit_lit_char_mutB6_, symObjAddr: 0x78E0, symBinAddr: 0x3CE70, symSize: 0x30 }
  - { offset: 0x497AE, size: 0x8, addend: 0x0, symName: __RNvYNtNtCscj7Jssje0XT_11async_trait8receiver9HasMutPatNtNtNtCsdGrGZaRBwMb_3syn3gen9visit_mut8VisitMut18visit_lit_cstr_mutB6_, symObjAddr: 0x7910, symBinAddr: 0x3CEA0, symSize: 0x30 }
  - { offset: 0x497F0, size: 0x8, addend: 0x0, symName: __RNvYNtNtCscj7Jssje0XT_11async_trait8receiver9HasMutPatNtNtNtCsdGrGZaRBwMb_3syn3gen9visit_mut8VisitMut18visit_pat_rest_mutB6_, symObjAddr: 0x7940, symBinAddr: 0x3CED0, symSize: 0x30 }
  - { offset: 0x49832, size: 0x8, addend: 0x0, symName: __RNvYNtNtCscj7Jssje0XT_11async_trait8receiver9HasMutPatNtNtNtCsdGrGZaRBwMb_3syn3gen9visit_mut8VisitMut18visit_pat_type_mutB6_, symObjAddr: 0x7970, symBinAddr: 0x3CF00, symSize: 0x30 }
  - { offset: 0x49874, size: 0x8, addend: 0x0, symName: __RNvYNtNtCscj7Jssje0XT_11async_trait8receiver9HasMutPatNtNtNtCsdGrGZaRBwMb_3syn3gen9visit_mut8VisitMut18visit_pat_wild_mutB6_, symObjAddr: 0x79A0, symBinAddr: 0x3CF30, symSize: 0x30 }
  - { offset: 0x498B6, size: 0x8, addend: 0x0, symName: __RNvYNtNtCscj7Jssje0XT_11async_trait8receiver9HasMutPatNtNtNtCsdGrGZaRBwMb_3syn3gen9visit_mut8VisitMut18visit_receiver_mutB6_, symObjAddr: 0x79D0, symBinAddr: 0x3CF60, symSize: 0x30 }
  - { offset: 0x498F8, size: 0x8, addend: 0x0, symName: __RNvYNtNtCscj7Jssje0XT_11async_trait8receiver9HasMutPatNtNtNtCsdGrGZaRBwMb_3syn3gen9visit_mut8VisitMut18visit_type_ptr_mutB6_, symObjAddr: 0x7A00, symBinAddr: 0x3CF90, symSize: 0x30 }
  - { offset: 0x4993A, size: 0x8, addend: 0x0, symName: __RNvYNtNtCscj7Jssje0XT_11async_trait8receiver9HasMutPatNtNtNtCsdGrGZaRBwMb_3syn3gen9visit_mut8VisitMut18visit_use_glob_mutB6_, symObjAddr: 0x7A30, symBinAddr: 0x3CFC0, symSize: 0x30 }
  - { offset: 0x4997C, size: 0x8, addend: 0x0, symName: __RNvYNtNtCscj7Jssje0XT_11async_trait8receiver9HasMutPatNtNtNtCsdGrGZaRBwMb_3syn3gen9visit_mut8VisitMut18visit_use_name_mutB6_, symObjAddr: 0x7A60, symBinAddr: 0x3CFF0, symSize: 0x30 }
  - { offset: 0x499BE, size: 0x8, addend: 0x0, symName: __RNvYNtNtCscj7Jssje0XT_11async_trait8receiver9HasMutPatNtNtNtCsdGrGZaRBwMb_3syn3gen9visit_mut8VisitMut18visit_use_path_mutB6_, symObjAddr: 0x7A90, symBinAddr: 0x3D020, symSize: 0x30 }
  - { offset: 0x49A00, size: 0x8, addend: 0x0, symName: __RNvYNtNtCscj7Jssje0XT_11async_trait8receiver9HasMutPatNtNtNtCsdGrGZaRBwMb_3syn3gen9visit_mut8VisitMut18visit_use_tree_mutB6_, symObjAddr: 0x7AC0, symBinAddr: 0x3D050, symSize: 0x30 }
  - { offset: 0x49A42, size: 0x8, addend: 0x0, symName: __RNvYNtNtCscj7Jssje0XT_11async_trait8receiver9HasMutPatNtNtNtCsdGrGZaRBwMb_3syn3gen9visit_mut8VisitMut18visit_variadic_mutB6_, symObjAddr: 0x7AF0, symBinAddr: 0x3D080, symSize: 0x30 }
  - { offset: 0x49A84, size: 0x8, addend: 0x0, symName: __RNvYNtNtCscj7Jssje0XT_11async_trait8receiver9HasMutPatNtNtNtCsdGrGZaRBwMb_3syn3gen9visit_mut8VisitMut19visit_attribute_mutB6_, symObjAddr: 0x7B20, symBinAddr: 0x3D0B0, symSize: 0x30 }
  - { offset: 0x49AC3, size: 0x8, addend: 0x0, symName: __RNvYNtNtCscj7Jssje0XT_11async_trait8receiver9HasMutPatNtNtNtCsdGrGZaRBwMb_3syn3gen9visit_mut8VisitMut19visit_expr_call_mutB6_, symObjAddr: 0x7B50, symBinAddr: 0x3D0E0, symSize: 0x30 }
  - { offset: 0x49B02, size: 0x8, addend: 0x0, symName: __RNvYNtNtCscj7Jssje0XT_11async_trait8receiver9HasMutPatNtNtNtCsdGrGZaRBwMb_3syn3gen9visit_mut8VisitMut19visit_expr_cast_mutB6_, symObjAddr: 0x7B80, symBinAddr: 0x3D110, symSize: 0x30 }
  - { offset: 0x49B41, size: 0x8, addend: 0x0, symName: __RNvYNtNtCscj7Jssje0XT_11async_trait8receiver9HasMutPatNtNtNtCsdGrGZaRBwMb_3syn3gen9visit_mut8VisitMut19visit_expr_loop_mutB6_, symObjAddr: 0x7BB0, symBinAddr: 0x3D140, symSize: 0x30 }
  - { offset: 0x49B80, size: 0x8, addend: 0x0, symName: __RNvYNtNtCscj7Jssje0XT_11async_trait8receiver9HasMutPatNtNtNtCsdGrGZaRBwMb_3syn3gen9visit_mut8VisitMut19visit_expr_path_mutB6_, symObjAddr: 0x7BE0, symBinAddr: 0x3D170, symSize: 0x30 }
  - { offset: 0x49BC2, size: 0x8, addend: 0x0, symName: __RNvYNtNtCscj7Jssje0XT_11async_trait8receiver9HasMutPatNtNtNtCsdGrGZaRBwMb_3syn3gen9visit_mut8VisitMut19visit_field_pat_mutB6_, symObjAddr: 0x7C10, symBinAddr: 0x3D1A0, symSize: 0x30 }
  - { offset: 0x49C04, size: 0x8, addend: 0x0, symName: __RNvYNtNtCscj7Jssje0XT_11async_trait8receiver9HasMutPatNtNtNtCsdGrGZaRBwMb_3syn3gen9visit_mut8VisitMut19visit_impl_item_mutB6_, symObjAddr: 0x7C40, symBinAddr: 0x3D1D0, symSize: 0x30 }
  - { offset: 0x49C46, size: 0x8, addend: 0x0, symName: __RNvYNtNtCscj7Jssje0XT_11async_trait8receiver9HasMutPatNtNtNtCsdGrGZaRBwMb_3syn3gen9visit_mut8VisitMut19visit_item_enum_mutB6_, symObjAddr: 0x7C70, symBinAddr: 0x3D200, symSize: 0x30 }
  - { offset: 0x49C88, size: 0x8, addend: 0x0, symName: __RNvYNtNtCscj7Jssje0XT_11async_trait8receiver9HasMutPatNtNtNtCsdGrGZaRBwMb_3syn3gen9visit_mut8VisitMut19visit_item_impl_mutB6_, symObjAddr: 0x7CA0, symBinAddr: 0x3D230, symSize: 0x30 }
  - { offset: 0x49CCA, size: 0x8, addend: 0x0, symName: __RNvYNtNtCscj7Jssje0XT_11async_trait8receiver9HasMutPatNtNtNtCsdGrGZaRBwMb_3syn3gen9visit_mut8VisitMut19visit_item_type_mutB6_, symObjAddr: 0x7CD0, symBinAddr: 0x3D260, symSize: 0x30 }
  - { offset: 0x49D0C, size: 0x8, addend: 0x0, symName: __RNvYNtNtCscj7Jssje0XT_11async_trait8receiver9HasMutPatNtNtNtCsdGrGZaRBwMb_3syn3gen9visit_mut8VisitMut19visit_lit_float_mutB6_, symObjAddr: 0x7D00, symBinAddr: 0x3D290, symSize: 0x30 }
  - { offset: 0x49D4E, size: 0x8, addend: 0x0, symName: __RNvYNtNtCscj7Jssje0XT_11async_trait8receiver9HasMutPatNtNtNtCsdGrGZaRBwMb_3syn3gen9visit_mut8VisitMut19visit_meta_list_mutB6_, symObjAddr: 0x7D30, symBinAddr: 0x3D2C0, symSize: 0x30 }
  - { offset: 0x49D90, size: 0x8, addend: 0x0, symName: __RNvYNtNtCscj7Jssje0XT_11async_trait8receiver9HasMutPatNtNtNtCsdGrGZaRBwMb_3syn3gen9visit_mut8VisitMut19visit_pat_paren_mutB6_, symObjAddr: 0x7D60, symBinAddr: 0x3D2F0, symSize: 0x30 }
  - { offset: 0x49DD2, size: 0x8, addend: 0x0, symName: __RNvYNtNtCscj7Jssje0XT_11async_trait8receiver9HasMutPatNtNtNtCsdGrGZaRBwMb_3syn3gen9visit_mut8VisitMut19visit_pat_slice_mutB6_, symObjAddr: 0x7D90, symBinAddr: 0x3D320, symSize: 0x30 }
  - { offset: 0x49E14, size: 0x8, addend: 0x0, symName: __RNvYNtNtCscj7Jssje0XT_11async_trait8receiver9HasMutPatNtNtNtCsdGrGZaRBwMb_3syn3gen9visit_mut8VisitMut19visit_pat_tuple_mutB6_, symObjAddr: 0x7DC0, symBinAddr: 0x3D350, symSize: 0x30 }
  - { offset: 0x49E56, size: 0x8, addend: 0x0, symName: __RNvYNtNtCscj7Jssje0XT_11async_trait8receiver9HasMutPatNtNtNtCsdGrGZaRBwMb_3syn3gen9visit_mut8VisitMut19visit_signature_mutB6_, symObjAddr: 0x7DF0, symBinAddr: 0x3D380, symSize: 0x30 }
  - { offset: 0x49E98, size: 0x8, addend: 0x0, symName: __RNvYNtNtCscj7Jssje0XT_11async_trait8receiver9HasMutPatNtNtNtCsdGrGZaRBwMb_3syn3gen9visit_mut8VisitMut19visit_type_path_mutB6_, symObjAddr: 0x7E20, symBinAddr: 0x3D3B0, symSize: 0x30 }
  - { offset: 0x49EDA, size: 0x8, addend: 0x0, symName: __RNvYNtNtCscj7Jssje0XT_11async_trait8receiver9HasMutPatNtNtNtCsdGrGZaRBwMb_3syn3gen9visit_mut8VisitMut19visit_use_group_mutB6_, symObjAddr: 0x7E50, symBinAddr: 0x3D3E0, symSize: 0x30 }
  - { offset: 0x49F1C, size: 0x8, addend: 0x0, symName: __RNvYNtNtCscj7Jssje0XT_11async_trait8receiver9HasMutPatNtNtNtCsdGrGZaRBwMb_3syn3gen9visit_mut8VisitMut20visit_assoc_type_mutB6_, symObjAddr: 0x7E80, symBinAddr: 0x3D410, symSize: 0x30 }
  - { offset: 0x49F5B, size: 0x8, addend: 0x0, symName: __RNvYNtNtCscj7Jssje0XT_11async_trait8receiver9HasMutPatNtNtNtCsdGrGZaRBwMb_3syn3gen9visit_mut8VisitMut20visit_attr_style_mutB6_, symObjAddr: 0x7EB0, symBinAddr: 0x3D440, symSize: 0x30 }
  - { offset: 0x49F9A, size: 0x8, addend: 0x0, symName: __RNvYNtNtCscj7Jssje0XT_11async_trait8receiver9HasMutPatNtNtNtCsdGrGZaRBwMb_3syn3gen9visit_mut8VisitMut20visit_attributes_mutB6_, symObjAddr: 0x7EE0, symBinAddr: 0x3D470, symSize: 0x80 }
  - { offset: 0x4A013, size: 0x8, addend: 0x0, symName: __RNvYNtNtCscj7Jssje0XT_11async_trait8receiver9HasMutPatNtNtNtCsdGrGZaRBwMb_3syn3gen9visit_mut8VisitMut20visit_constraint_mutB6_, symObjAddr: 0x7F60, symBinAddr: 0x3D4F0, symSize: 0x30 }
  - { offset: 0x4A052, size: 0x8, addend: 0x0, symName: __RNvYNtNtCscj7Jssje0XT_11async_trait8receiver9HasMutPatNtNtNtCsdGrGZaRBwMb_3syn3gen9visit_mut8VisitMut20visit_expr_array_mutB6_, symObjAddr: 0x7F90, symBinAddr: 0x3D520, symSize: 0x30 }
  - { offset: 0x4A091, size: 0x8, addend: 0x0, symName: __RNvYNtNtCscj7Jssje0XT_11async_trait8receiver9HasMutPatNtNtNtCsdGrGZaRBwMb_3syn3gen9visit_mut8VisitMut20visit_expr_async_mutB6_, symObjAddr: 0x7FC0, symBinAddr: 0x3D550, symSize: 0x30 }
  - { offset: 0x4A0D0, size: 0x8, addend: 0x0, symName: __RNvYNtNtCscj7Jssje0XT_11async_trait8receiver9HasMutPatNtNtNtCsdGrGZaRBwMb_3syn3gen9visit_mut8VisitMut20visit_expr_await_mutB6_, symObjAddr: 0x7FF0, symBinAddr: 0x3D580, symSize: 0x30 }
  - { offset: 0x4A10F, size: 0x8, addend: 0x0, symName: __RNvYNtNtCscj7Jssje0XT_11async_trait8receiver9HasMutPatNtNtNtCsdGrGZaRBwMb_3syn3gen9visit_mut8VisitMut20visit_expr_block_mutB6_, symObjAddr: 0x8020, symBinAddr: 0x3D5B0, symSize: 0x30 }
  - { offset: 0x4A14E, size: 0x8, addend: 0x0, symName: __RNvYNtNtCscj7Jssje0XT_11async_trait8receiver9HasMutPatNtNtNtCsdGrGZaRBwMb_3syn3gen9visit_mut8VisitMut20visit_expr_break_mutB6_, symObjAddr: 0x8050, symBinAddr: 0x3D5E0, symSize: 0x30 }
  - { offset: 0x4A18D, size: 0x8, addend: 0x0, symName: __RNvYNtNtCscj7Jssje0XT_11async_trait8receiver9HasMutPatNtNtNtCsdGrGZaRBwMb_3syn3gen9visit_mut8VisitMut20visit_expr_const_mutB6_, symObjAddr: 0x8080, symBinAddr: 0x3D610, symSize: 0x30 }
  - { offset: 0x4A1CC, size: 0x8, addend: 0x0, symName: __RNvYNtNtCscj7Jssje0XT_11async_trait8receiver9HasMutPatNtNtNtCsdGrGZaRBwMb_3syn3gen9visit_mut8VisitMut20visit_expr_field_mutB6_, symObjAddr: 0x80B0, symBinAddr: 0x3D640, symSize: 0x30 }
  - { offset: 0x4A20B, size: 0x8, addend: 0x0, symName: __RNvYNtNtCscj7Jssje0XT_11async_trait8receiver9HasMutPatNtNtNtCsdGrGZaRBwMb_3syn3gen9visit_mut8VisitMut20visit_expr_group_mutB6_, symObjAddr: 0x80E0, symBinAddr: 0x3D670, symSize: 0x30 }
  - { offset: 0x4A24A, size: 0x8, addend: 0x0, symName: __RNvYNtNtCscj7Jssje0XT_11async_trait8receiver9HasMutPatNtNtNtCsdGrGZaRBwMb_3syn3gen9visit_mut8VisitMut20visit_expr_index_mutB6_, symObjAddr: 0x8110, symBinAddr: 0x3D6A0, symSize: 0x30 }
  - { offset: 0x4A289, size: 0x8, addend: 0x0, symName: __RNvYNtNtCscj7Jssje0XT_11async_trait8receiver9HasMutPatNtNtNtCsdGrGZaRBwMb_3syn3gen9visit_mut8VisitMut20visit_expr_infer_mutB6_, symObjAddr: 0x8140, symBinAddr: 0x3D6D0, symSize: 0x30 }
  - { offset: 0x4A2C8, size: 0x8, addend: 0x0, symName: __RNvYNtNtCscj7Jssje0XT_11async_trait8receiver9HasMutPatNtNtNtCsdGrGZaRBwMb_3syn3gen9visit_mut8VisitMut20visit_expr_macro_mutB6_, symObjAddr: 0x8170, symBinAddr: 0x3D700, symSize: 0x30 }
  - { offset: 0x4A307, size: 0x8, addend: 0x0, symName: __RNvYNtNtCscj7Jssje0XT_11async_trait8receiver9HasMutPatNtNtNtCsdGrGZaRBwMb_3syn3gen9visit_mut8VisitMut20visit_expr_match_mutB6_, symObjAddr: 0x81A0, symBinAddr: 0x3D730, symSize: 0x30 }
  - { offset: 0x4A349, size: 0x8, addend: 0x0, symName: __RNvYNtNtCscj7Jssje0XT_11async_trait8receiver9HasMutPatNtNtNtCsdGrGZaRBwMb_3syn3gen9visit_mut8VisitMut20visit_expr_paren_mutB6_, symObjAddr: 0x81D0, symBinAddr: 0x3D760, symSize: 0x30 }
  - { offset: 0x4A38B, size: 0x8, addend: 0x0, symName: __RNvYNtNtCscj7Jssje0XT_11async_trait8receiver9HasMutPatNtNtNtCsdGrGZaRBwMb_3syn3gen9visit_mut8VisitMut20visit_expr_range_mutB6_, symObjAddr: 0x8200, symBinAddr: 0x3D790, symSize: 0x30 }
  - { offset: 0x4A3CD, size: 0x8, addend: 0x0, symName: __RNvYNtNtCscj7Jssje0XT_11async_trait8receiver9HasMutPatNtNtNtCsdGrGZaRBwMb_3syn3gen9visit_mut8VisitMut20visit_expr_tuple_mutB6_, symObjAddr: 0x8230, symBinAddr: 0x3D7C0, symSize: 0x30 }
  - { offset: 0x4A40F, size: 0x8, addend: 0x0, symName: __RNvYNtNtCscj7Jssje0XT_11async_trait8receiver9HasMutPatNtNtNtCsdGrGZaRBwMb_3syn3gen9visit_mut8VisitMut20visit_expr_unary_mutB6_, symObjAddr: 0x8260, symBinAddr: 0x3D7F0, symSize: 0x30 }
  - { offset: 0x4A451, size: 0x8, addend: 0x0, symName: __RNvYNtNtCscj7Jssje0XT_11async_trait8receiver9HasMutPatNtNtNtCsdGrGZaRBwMb_3syn3gen9visit_mut8VisitMut20visit_expr_while_mutB6_, symObjAddr: 0x8290, symBinAddr: 0x3D820, symSize: 0x30 }
  - { offset: 0x4A493, size: 0x8, addend: 0x0, symName: __RNvYNtNtCscj7Jssje0XT_11async_trait8receiver9HasMutPatNtNtNtCsdGrGZaRBwMb_3syn3gen9visit_mut8VisitMut20visit_expr_yield_mutB6_, symObjAddr: 0x82C0, symBinAddr: 0x3D850, symSize: 0x30 }
  - { offset: 0x4A4D5, size: 0x8, addend: 0x0, symName: __RNvYNtNtCscj7Jssje0XT_11async_trait8receiver9HasMutPatNtNtNtCsdGrGZaRBwMb_3syn3gen9visit_mut8VisitMut20visit_item_const_mutB6_, symObjAddr: 0x82F0, symBinAddr: 0x3D880, symSize: 0x30 }
  - { offset: 0x4A517, size: 0x8, addend: 0x0, symName: __RNvYNtNtCscj7Jssje0XT_11async_trait8receiver9HasMutPatNtNtNtCsdGrGZaRBwMb_3syn3gen9visit_mut8VisitMut20visit_item_macro_mutB6_, symObjAddr: 0x8320, symBinAddr: 0x3D8B0, symSize: 0x30 }
  - { offset: 0x4A559, size: 0x8, addend: 0x0, symName: __RNvYNtNtCscj7Jssje0XT_11async_trait8receiver9HasMutPatNtNtNtCsdGrGZaRBwMb_3syn3gen9visit_mut8VisitMut20visit_item_trait_mutB6_, symObjAddr: 0x8350, symBinAddr: 0x3D8E0, symSize: 0x30 }
  - { offset: 0x4A59B, size: 0x8, addend: 0x0, symName: __RNvYNtNtCscj7Jssje0XT_11async_trait8receiver9HasMutPatNtNtNtCsdGrGZaRBwMb_3syn3gen9visit_mut8VisitMut20visit_item_union_mutB6_, symObjAddr: 0x8380, symBinAddr: 0x3D910, symSize: 0x30 }
  - { offset: 0x4A5DD, size: 0x8, addend: 0x0, symName: __RNvYNtNtCscj7Jssje0XT_11async_trait8receiver9HasMutPatNtNtNtCsdGrGZaRBwMb_3syn3gen9visit_mut8VisitMut20visit_local_init_mutB6_, symObjAddr: 0x83B0, symBinAddr: 0x3D940, symSize: 0x30 }
  - { offset: 0x4A61F, size: 0x8, addend: 0x0, symName: __RNvYNtNtCscj7Jssje0XT_11async_trait8receiver9HasMutPatNtNtNtCsdGrGZaRBwMb_3syn3gen9visit_mut8VisitMut20visit_pat_struct_mutB6_, symObjAddr: 0x83E0, symBinAddr: 0x3D970, symSize: 0x30 }
  - { offset: 0x4A661, size: 0x8, addend: 0x0, symName: __RNvYNtNtCscj7Jssje0XT_11async_trait8receiver9HasMutPatNtNtNtCsdGrGZaRBwMb_3syn3gen9visit_mut8VisitMut20visit_stmt_macro_mutB6_, symObjAddr: 0x8410, symBinAddr: 0x3D9A0, symSize: 0x30 }
  - { offset: 0x4A6A3, size: 0x8, addend: 0x0, symName: __RNvYNtNtCscj7Jssje0XT_11async_trait8receiver9HasMutPatNtNtNtCsdGrGZaRBwMb_3syn3gen9visit_mut8VisitMut20visit_trait_item_mutB6_, symObjAddr: 0x8440, symBinAddr: 0x3D9D0, symSize: 0x30 }
  - { offset: 0x4A6E5, size: 0x8, addend: 0x0, symName: __RNvYNtNtCscj7Jssje0XT_11async_trait8receiver9HasMutPatNtNtNtCsdGrGZaRBwMb_3syn3gen9visit_mut8VisitMut20visit_type_array_mutB6_, symObjAddr: 0x8470, symBinAddr: 0x3DA00, symSize: 0x30 }
  - { offset: 0x4A727, size: 0x8, addend: 0x0, symName: __RNvYNtNtCscj7Jssje0XT_11async_trait8receiver9HasMutPatNtNtNtCsdGrGZaRBwMb_3syn3gen9visit_mut8VisitMut20visit_type_group_mutB6_, symObjAddr: 0x84A0, symBinAddr: 0x3DA30, symSize: 0x30 }
  - { offset: 0x4A769, size: 0x8, addend: 0x0, symName: __RNvYNtNtCscj7Jssje0XT_11async_trait8receiver9HasMutPatNtNtNtCsdGrGZaRBwMb_3syn3gen9visit_mut8VisitMut20visit_type_infer_mutB6_, symObjAddr: 0x84D0, symBinAddr: 0x3DA60, symSize: 0x30 }
  - { offset: 0x4A7AB, size: 0x8, addend: 0x0, symName: __RNvYNtNtCscj7Jssje0XT_11async_trait8receiver9HasMutPatNtNtNtCsdGrGZaRBwMb_3syn3gen9visit_mut8VisitMut20visit_type_macro_mutB6_, symObjAddr: 0x8500, symBinAddr: 0x3DA90, symSize: 0x30 }
  - { offset: 0x4A7ED, size: 0x8, addend: 0x0, symName: __RNvYNtNtCscj7Jssje0XT_11async_trait8receiver9HasMutPatNtNtNtCsdGrGZaRBwMb_3syn3gen9visit_mut8VisitMut20visit_type_never_mutB6_, symObjAddr: 0x8530, symBinAddr: 0x3DAC0, symSize: 0x30 }
  - { offset: 0x4A82F, size: 0x8, addend: 0x0, symName: __RNvYNtNtCscj7Jssje0XT_11async_trait8receiver9HasMutPatNtNtNtCsdGrGZaRBwMb_3syn3gen9visit_mut8VisitMut20visit_type_param_mutB6_, symObjAddr: 0x8560, symBinAddr: 0x3DAF0, symSize: 0x30 }
  - { offset: 0x4A871, size: 0x8, addend: 0x0, symName: __RNvYNtNtCscj7Jssje0XT_11async_trait8receiver9HasMutPatNtNtNtCsdGrGZaRBwMb_3syn3gen9visit_mut8VisitMut20visit_type_paren_mutB6_, symObjAddr: 0x8590, symBinAddr: 0x3DB20, symSize: 0x30 }
  - { offset: 0x4A8B3, size: 0x8, addend: 0x0, symName: __RNvYNtNtCscj7Jssje0XT_11async_trait8receiver9HasMutPatNtNtNtCsdGrGZaRBwMb_3syn3gen9visit_mut8VisitMut20visit_type_slice_mutB6_, symObjAddr: 0x85C0, symBinAddr: 0x3DB50, symSize: 0x30 }
  - { offset: 0x4A8F5, size: 0x8, addend: 0x0, symName: __RNvYNtNtCscj7Jssje0XT_11async_trait8receiver9HasMutPatNtNtNtCsdGrGZaRBwMb_3syn3gen9visit_mut8VisitMut20visit_type_tuple_mutB6_, symObjAddr: 0x85F0, symBinAddr: 0x3DB80, symSize: 0x30 }
  - { offset: 0x4A937, size: 0x8, addend: 0x0, symName: __RNvYNtNtCscj7Jssje0XT_11async_trait8receiver9HasMutPatNtNtNtCsdGrGZaRBwMb_3syn3gen9visit_mut8VisitMut20visit_use_rename_mutB6_, symObjAddr: 0x8620, symBinAddr: 0x3DBB0, symSize: 0x30 }
  - { offset: 0x4A979, size: 0x8, addend: 0x0, symName: __RNvYNtNtCscj7Jssje0XT_11async_trait8receiver9HasMutPatNtNtNtCsdGrGZaRBwMb_3syn3gen9visit_mut8VisitMut20visit_visibility_mutB6_, symObjAddr: 0x8650, symBinAddr: 0x3DBE0, symSize: 0x30 }
  - { offset: 0x4A9BB, size: 0x8, addend: 0x0, symName: __RNvYNtNtCscj7Jssje0XT_11async_trait8receiver9HasMutPatNtNtNtCsdGrGZaRBwMb_3syn3gen9visit_mut8VisitMut21visit_assoc_const_mutB6_, symObjAddr: 0x8680, symBinAddr: 0x3DC10, symSize: 0x30 }
  - { offset: 0x4A9FA, size: 0x8, addend: 0x0, symName: __RNvYNtNtCscj7Jssje0XT_11async_trait8receiver9HasMutPatNtNtNtCsdGrGZaRBwMb_3syn3gen9visit_mut8VisitMut21visit_bare_fn_arg_mutB6_, symObjAddr: 0x86B0, symBinAddr: 0x3DC40, symSize: 0x30 }
  - { offset: 0x4AA39, size: 0x8, addend: 0x0, symName: __RNvYNtNtCscj7Jssje0XT_11async_trait8receiver9HasMutPatNtNtNtCsdGrGZaRBwMb_3syn3gen9visit_mut8VisitMut21visit_const_param_mutB6_, symObjAddr: 0x86E0, symBinAddr: 0x3DC70, symSize: 0x30 }
  - { offset: 0x4AA78, size: 0x8, addend: 0x0, symName: __RNvYNtNtCscj7Jssje0XT_11async_trait8receiver9HasMutPatNtNtNtCsdGrGZaRBwMb_3syn3gen9visit_mut8VisitMut21visit_expr_assign_mutB6_, symObjAddr: 0x8710, symBinAddr: 0x3DCA0, symSize: 0x30 }
  - { offset: 0x4AAB7, size: 0x8, addend: 0x0, symName: __RNvYNtNtCscj7Jssje0XT_11async_trait8receiver9HasMutPatNtNtNtCsdGrGZaRBwMb_3syn3gen9visit_mut8VisitMut21visit_expr_binary_mutB6_, symObjAddr: 0x8740, symBinAddr: 0x3DCD0, symSize: 0x30 }
  - { offset: 0x4AAF6, size: 0x8, addend: 0x0, symName: __RNvYNtNtCscj7Jssje0XT_11async_trait8receiver9HasMutPatNtNtNtCsdGrGZaRBwMb_3syn3gen9visit_mut8VisitMut21visit_expr_repeat_mutB6_, symObjAddr: 0x8770, symBinAddr: 0x3DD00, symSize: 0x30 }
  - { offset: 0x4AB38, size: 0x8, addend: 0x0, symName: __RNvYNtNtCscj7Jssje0XT_11async_trait8receiver9HasMutPatNtNtNtCsdGrGZaRBwMb_3syn3gen9visit_mut8VisitMut21visit_expr_return_mutB6_, symObjAddr: 0x87A0, symBinAddr: 0x3DD30, symSize: 0x30 }
  - { offset: 0x4AB7A, size: 0x8, addend: 0x0, symName: __RNvYNtNtCscj7Jssje0XT_11async_trait8receiver9HasMutPatNtNtNtCsdGrGZaRBwMb_3syn3gen9visit_mut8VisitMut21visit_expr_struct_mutB6_, symObjAddr: 0x87D0, symBinAddr: 0x3DD60, symSize: 0x30 }
  - { offset: 0x4ABBC, size: 0x8, addend: 0x0, symName: __RNvYNtNtCscj7Jssje0XT_11async_trait8receiver9HasMutPatNtNtNtCsdGrGZaRBwMb_3syn3gen9visit_mut8VisitMut21visit_expr_unsafe_mutB6_, symObjAddr: 0x8800, symBinAddr: 0x3DD90, symSize: 0x30 }
  - { offset: 0x4ABFE, size: 0x8, addend: 0x0, symName: __RNvYNtNtCscj7Jssje0XT_11async_trait8receiver9HasMutPatNtNtNtCsdGrGZaRBwMb_3syn3gen9visit_mut8VisitMut21visit_field_value_mutB6_, symObjAddr: 0x8830, symBinAddr: 0x3DDC0, symSize: 0x30 }
  - { offset: 0x4AC40, size: 0x8, addend: 0x0, symName: __RNvYNtNtCscj7Jssje0XT_11async_trait8receiver9HasMutPatNtNtNtCsdGrGZaRBwMb_3syn3gen9visit_mut8VisitMut21visit_item_static_mutB6_, symObjAddr: 0x8860, symBinAddr: 0x3DDF0, symSize: 0x30 }
  - { offset: 0x4AC82, size: 0x8, addend: 0x0, symName: __RNvYNtNtCscj7Jssje0XT_11async_trait8receiver9HasMutPatNtNtNtCsdGrGZaRBwMb_3syn3gen9visit_mut8VisitMut21visit_item_struct_mutB6_, symObjAddr: 0x8890, symBinAddr: 0x3DE20, symSize: 0x30 }
  - { offset: 0x4ACC4, size: 0x8, addend: 0x0, symName: __RNvYNtNtCscj7Jssje0XT_11async_trait8receiver9HasMutPatNtNtNtCsdGrGZaRBwMb_3syn3gen9visit_mut8VisitMut21visit_return_type_mutB6_, symObjAddr: 0x88C0, symBinAddr: 0x3DE50, symSize: 0x30 }
  - { offset: 0x4AD06, size: 0x8, addend: 0x0, symName: __RNvYNtNtCscj7Jssje0XT_11async_trait8receiver9HasMutPatNtNtNtCsdGrGZaRBwMb_3syn3gen9visit_mut8VisitMut21visit_trait_bound_mutB6_, symObjAddr: 0x88F0, symBinAddr: 0x3DE80, symSize: 0x30 }
  - { offset: 0x4AD48, size: 0x8, addend: 0x0, symName: __RNvYNtNtCscj7Jssje0XT_11async_trait8receiver9HasMutPatNtNtNtCsdGrGZaRBwMb_3syn3gen9visit_mut8VisitMut22visit_expr_closure_mutB6_, symObjAddr: 0x8920, symBinAddr: 0x3DEB0, symSize: 0x30 }
  - { offset: 0x4AD87, size: 0x8, addend: 0x0, symName: __RNvYNtNtCscj7Jssje0XT_11async_trait8receiver9HasMutPatNtNtNtCsdGrGZaRBwMb_3syn3gen9visit_mut8VisitMut22visit_fields_named_mutB6_, symObjAddr: 0x8950, symBinAddr: 0x3DEE0, symSize: 0x30 }
  - { offset: 0x4ADC9, size: 0x8, addend: 0x0, symName: __RNvYNtNtCscj7Jssje0XT_11async_trait8receiver9HasMutPatNtNtNtCsdGrGZaRBwMb_3syn3gen9visit_mut8VisitMut22visit_foreign_item_mutB6_, symObjAddr: 0x8980, symBinAddr: 0x3DF10, symSize: 0x30 }
  - { offset: 0x4AE0B, size: 0x8, addend: 0x0, symName: __RNvYNtNtCscj7Jssje0XT_11async_trait8receiver9HasMutPatNtNtNtCsdGrGZaRBwMb_3syn3gen9visit_mut8VisitMut22visit_impl_item_fn_mutB6_, symObjAddr: 0x89B0, symBinAddr: 0x3DF40, symSize: 0x30 }
  - { offset: 0x4AE4D, size: 0x8, addend: 0x0, symName: __RNvYNtNtCscj7Jssje0XT_11async_trait8receiver9HasMutPatNtNtNtCsdGrGZaRBwMb_3syn3gen9visit_mut8VisitMut22visit_lit_byte_str_mutB6_, symObjAddr: 0x89E0, symBinAddr: 0x3DF70, symSize: 0x30 }
  - { offset: 0x4AE8F, size: 0x8, addend: 0x0, symName: __RNvYNtNtCscj7Jssje0XT_11async_trait8receiver9HasMutPatNtNtNtCsdGrGZaRBwMb_3syn3gen9visit_mut8VisitMut22visit_path_segment_mutB6_, symObjAddr: 0x8A10, symBinAddr: 0x3DFA0, symSize: 0x30 }
  - { offset: 0x4AED1, size: 0x8, addend: 0x0, symName: __RNvYNtNtCscj7Jssje0XT_11async_trait8receiver9HasMutPatNtNtNtCsdGrGZaRBwMb_3syn3gen9visit_mut8VisitMut22visit_range_limits_mutB6_, symObjAddr: 0x8A40, symBinAddr: 0x3DFD0, symSize: 0x30 }
  - { offset: 0x4AF13, size: 0x8, addend: 0x0, symName: __RNvYNtNtCscj7Jssje0XT_11async_trait8receiver9HasMutPatNtNtNtCsdGrGZaRBwMb_3syn3gen9visit_mut8VisitMut22visit_token_stream_mutB6_, symObjAddr: 0x8A70, symBinAddr: 0x3E000, symSize: 0x20 }
  - { offset: 0x4AF55, size: 0x8, addend: 0x0, symName: __RNvYNtNtCscj7Jssje0XT_11async_trait8receiver9HasMutPatNtNtNtCsdGrGZaRBwMb_3syn3gen9visit_mut8VisitMut22visit_type_bare_fn_mutB6_, symObjAddr: 0x8A90, symBinAddr: 0x3E020, symSize: 0x30 }
  - { offset: 0x4AF97, size: 0x8, addend: 0x0, symName: __RNvYNtNtCscj7Jssje0XT_11async_trait8receiver9HasMutPatNtNtNtCsdGrGZaRBwMb_3syn3gen9visit_mut8VisitMut22visit_where_clause_mutB6_, symObjAddr: 0x8AC0, symBinAddr: 0x3E050, symSize: 0x30 }
  - { offset: 0x4AFD9, size: 0x8, addend: 0x0, symName: __RNvYNtNtCscj7Jssje0XT_11async_trait8receiver9HasMutPatNtNtNtCsdGrGZaRBwMb_3syn3gen9visit_mut8VisitMut23visit_bare_variadic_mutB6_, symObjAddr: 0x8AF0, symBinAddr: 0x3E080, symSize: 0x30 }
  - { offset: 0x4B018, size: 0x8, addend: 0x0, symName: __RNvYNtNtCscj7Jssje0XT_11async_trait8receiver9HasMutPatNtNtNtCsdGrGZaRBwMb_3syn3gen9visit_mut8VisitMut23visit_expr_continue_mutB6_, symObjAddr: 0x8B20, symBinAddr: 0x3E0B0, symSize: 0x30 }
  - { offset: 0x4B057, size: 0x8, addend: 0x0, symName: __RNvYNtNtCscj7Jssje0XT_11async_trait8receiver9HasMutPatNtNtNtCsdGrGZaRBwMb_3syn3gen9visit_mut8VisitMut23visit_expr_for_loop_mutB6_, symObjAddr: 0x8B50, symBinAddr: 0x3E0E0, symSize: 0x30 }
  - { offset: 0x4B096, size: 0x8, addend: 0x0, symName: __RNvYNtNtCscj7Jssje0XT_11async_trait8receiver9HasMutPatNtNtNtCsdGrGZaRBwMb_3syn3gen9visit_mut8VisitMut23visit_expr_raw_addr_mutB6_, symObjAddr: 0x8B80, symBinAddr: 0x3E110, symSize: 0x30 }
  - { offset: 0x4B0D8, size: 0x8, addend: 0x0, symName: __RNvYNtNtCscj7Jssje0XT_11async_trait8receiver9HasMutPatNtNtNtCsdGrGZaRBwMb_3syn3gen9visit_mut8VisitMut23visit_generic_param_mutB6_, symObjAddr: 0x8BB0, symBinAddr: 0x3E140, symSize: 0x30 }
  - { offset: 0x4B11A, size: 0x8, addend: 0x0, symName: __RNvYNtNtCscj7Jssje0XT_11async_trait8receiver9HasMutPatNtNtNtCsdGrGZaRBwMb_3syn3gen9visit_mut8VisitMut23visit_pat_reference_mutB6_, symObjAddr: 0x8BE0, symBinAddr: 0x3E170, symSize: 0x30 }
  - { offset: 0x4B15C, size: 0x8, addend: 0x0, symName: __RNvYNtNtCscj7Jssje0XT_11async_trait8receiver9HasMutPatNtNtNtCsdGrGZaRBwMb_3syn3gen9visit_mut8VisitMut23visit_trait_item_fn_mutB6_, symObjAddr: 0x8C10, symBinAddr: 0x3E1A0, symSize: 0x30 }
  - { offset: 0x4B19E, size: 0x8, addend: 0x0, symName: __RNvYNtNtCscj7Jssje0XT_11async_trait8receiver9HasMutPatNtNtNtCsdGrGZaRBwMb_3syn3gen9visit_mut8VisitMut24visit_captured_param_mutB6_, symObjAddr: 0x8C40, symBinAddr: 0x3E1D0, symSize: 0x30 }
  - { offset: 0x4B1DD, size: 0x8, addend: 0x0, symName: __RNvYNtNtCscj7Jssje0XT_11async_trait8receiver9HasMutPatNtNtNtCsdGrGZaRBwMb_3syn3gen9visit_mut8VisitMut24visit_expr_reference_mutB6_, symObjAddr: 0x8C70, symBinAddr: 0x3E200, symSize: 0x30 }
  - { offset: 0x4B21F, size: 0x8, addend: 0x0, symName: __RNvYNtNtCscj7Jssje0XT_11async_trait8receiver9HasMutPatNtNtNtCsdGrGZaRBwMb_3syn3gen9visit_mut8VisitMut24visit_expr_try_block_mutB6_, symObjAddr: 0x8CA0, symBinAddr: 0x3E230, symSize: 0x30 }
  - { offset: 0x4B261, size: 0x8, addend: 0x0, symName: __RNvYNtNtCscj7Jssje0XT_11async_trait8receiver9HasMutPatNtNtNtCsdGrGZaRBwMb_3syn3gen9visit_mut8VisitMut24visit_fields_unnamed_mutB6_, symObjAddr: 0x8CD0, symBinAddr: 0x3E260, symSize: 0x30 }
  - { offset: 0x4B2A3, size: 0x8, addend: 0x0, symName: __RNvYNtNtCscj7Jssje0XT_11async_trait8receiver9HasMutPatNtNtNtCsdGrGZaRBwMb_3syn3gen9visit_mut8VisitMut24visit_impl_item_type_mutB6_, symObjAddr: 0x8D00, symBinAddr: 0x3E290, symSize: 0x30 }
  - { offset: 0x4B2E5, size: 0x8, addend: 0x0, symName: __RNvYNtNtCscj7Jssje0XT_11async_trait8receiver9HasMutPatNtNtNtCsdGrGZaRBwMb_3syn3gen9visit_mut8VisitMut24visit_lifetime_param_mutB6_, symObjAddr: 0x8D30, symBinAddr: 0x3E2C0, symSize: 0x30 }
  - { offset: 0x4B327, size: 0x8, addend: 0x0, symName: __RNvYNtNtCscj7Jssje0XT_11async_trait8receiver9HasMutPatNtNtNtCsdGrGZaRBwMb_3syn3gen9visit_mut8VisitMut24visit_path_arguments_mutB6_, symObjAddr: 0x8D60, symBinAddr: 0x3E2F0, symSize: 0x30 }
  - { offset: 0x4B369, size: 0x8, addend: 0x0, symName: __RNvYNtNtCscj7Jssje0XT_11async_trait8receiver9HasMutPatNtNtNtCsdGrGZaRBwMb_3syn3gen9visit_mut8VisitMut24visit_predicate_type_mutB6_, symObjAddr: 0x8D90, symBinAddr: 0x3E320, symSize: 0x30 }
  - { offset: 0x4B3AB, size: 0x8, addend: 0x0, symName: __RNvYNtNtCscj7Jssje0XT_11async_trait8receiver9HasMutPatNtNtNtCsdGrGZaRBwMb_3syn3gen9visit_mut8VisitMut24visit_type_reference_mutB6_, symObjAddr: 0x8DC0, symBinAddr: 0x3E350, symSize: 0x30 }
  - { offset: 0x4B3ED, size: 0x8, addend: 0x0, symName: __RNvYNtNtCscj7Jssje0XT_11async_trait8receiver9HasMutPatNtNtNtCsdGrGZaRBwMb_3syn3gen9visit_mut8VisitMut24visit_vis_restricted_mutB6_, symObjAddr: 0x8DF0, symBinAddr: 0x3E380, symSize: 0x30 }
  - { offset: 0x4B42F, size: 0x8, addend: 0x0, symName: __RNvYNtNtCscj7Jssje0XT_11async_trait8receiver9HasMutPatNtNtNtCsdGrGZaRBwMb_3syn3gen9visit_mut8VisitMut25visit_bound_lifetimes_mutB6_, symObjAddr: 0x8E20, symBinAddr: 0x3E3B0, symSize: 0x30 }
  - { offset: 0x4B46E, size: 0x8, addend: 0x0, symName: __RNvYNtNtCscj7Jssje0XT_11async_trait8receiver9HasMutPatNtNtNtCsdGrGZaRBwMb_3syn3gen9visit_mut8VisitMut25visit_foreign_item_fn_mutB6_, symObjAddr: 0x8E50, symBinAddr: 0x3E3E0, symSize: 0x30 }
  - { offset: 0x4B4B0, size: 0x8, addend: 0x0, symName: __RNvYNtNtCscj7Jssje0XT_11async_trait8receiver9HasMutPatNtNtNtCsdGrGZaRBwMb_3syn3gen9visit_mut8VisitMut25visit_impl_item_const_mutB6_, symObjAddr: 0x8E80, symBinAddr: 0x3E410, symSize: 0x30 }
  - { offset: 0x4B4F2, size: 0x8, addend: 0x0, symName: __RNvYNtNtCscj7Jssje0XT_11async_trait8receiver9HasMutPatNtNtNtCsdGrGZaRBwMb_3syn3gen9visit_mut8VisitMut25visit_impl_item_macro_mutB6_, symObjAddr: 0x8EB0, symBinAddr: 0x3E440, symSize: 0x30 }
  - { offset: 0x4B534, size: 0x8, addend: 0x0, symName: __RNvYNtNtCscj7Jssje0XT_11async_trait8receiver9HasMutPatNtNtNtCsdGrGZaRBwMb_3syn3gen9visit_mut8VisitMut25visit_macro_delimiter_mutB6_, symObjAddr: 0x8EE0, symBinAddr: 0x3E470, symSize: 0x30 }
  - { offset: 0x4B576, size: 0x8, addend: 0x0, symName: __RNvYNtNtCscj7Jssje0XT_11async_trait8receiver9HasMutPatNtNtNtCsdGrGZaRBwMb_3syn3gen9visit_mut8VisitMut25visit_meta_name_value_mutB6_, symObjAddr: 0x8F10, symBinAddr: 0x3E4A0, symSize: 0x30 }
  - { offset: 0x4B5B8, size: 0x8, addend: 0x0, symName: __RNvYNtNtCscj7Jssje0XT_11async_trait8receiver9HasMutPatNtNtNtCsdGrGZaRBwMb_3syn3gen9visit_mut8VisitMut25visit_precise_capture_mutB6_, symObjAddr: 0x8F40, symBinAddr: 0x3E4D0, symSize: 0x30 }
  - { offset: 0x4B5FA, size: 0x8, addend: 0x0, symName: __RNvYNtNtCscj7Jssje0XT_11async_trait8receiver9HasMutPatNtNtNtCsdGrGZaRBwMb_3syn3gen9visit_mut8VisitMut25visit_trait_item_type_mutB6_, symObjAddr: 0x8F70, symBinAddr: 0x3E500, symSize: 0x30 }
  - { offset: 0x4B63C, size: 0x8, addend: 0x0, symName: __RNvYNtNtCscj7Jssje0XT_11async_trait8receiver9HasMutPatNtNtNtCsdGrGZaRBwMb_3syn3gen9visit_mut8VisitMut25visit_type_impl_trait_mutB6_, symObjAddr: 0x8FA0, symBinAddr: 0x3E530, symSize: 0x30 }
  - { offset: 0x4B67E, size: 0x8, addend: 0x0, symName: __RNvYNtNtCscj7Jssje0XT_11async_trait8receiver9HasMutPatNtNtNtCsdGrGZaRBwMb_3syn3gen9visit_mut8VisitMut25visit_where_predicate_mutB6_, symObjAddr: 0x8FD0, symBinAddr: 0x3E560, symSize: 0x30 }
  - { offset: 0x4B6C0, size: 0x8, addend: 0x0, symName: __RNvYNtNtCscj7Jssje0XT_11async_trait8receiver9HasMutPatNtNtNtCsdGrGZaRBwMb_3syn3gen9visit_mut8VisitMut26visit_expr_method_call_mutB6_, symObjAddr: 0x9000, symBinAddr: 0x3E590, symSize: 0x30 }
  - { offset: 0x4B702, size: 0x8, addend: 0x0, symName: __RNvYNtNtCscj7Jssje0XT_11async_trait8receiver9HasMutPatNtNtNtCsdGrGZaRBwMb_3syn3gen9visit_mut8VisitMut26visit_field_mutability_mutB6_, symObjAddr: 0x9030, symBinAddr: 0x3E5C0, symSize: 0x30 }
  - { offset: 0x4B744, size: 0x8, addend: 0x0, symName: __RNvYNtNtCscj7Jssje0XT_11async_trait8receiver9HasMutPatNtNtNtCsdGrGZaRBwMb_3syn3gen9visit_mut8VisitMut26visit_generic_argument_mutB6_, symObjAddr: 0x9060, symBinAddr: 0x3E5F0, symSize: 0x30 }
  - { offset: 0x4B786, size: 0x8, addend: 0x0, symName: __RNvYNtNtCscj7Jssje0XT_11async_trait8receiver9HasMutPatNtNtNtCsdGrGZaRBwMb_3syn3gen9visit_mut8VisitMut26visit_item_foreign_mod_mutB6_, symObjAddr: 0x9090, symBinAddr: 0x3E620, symSize: 0x30 }
  - { offset: 0x4B7C8, size: 0x8, addend: 0x0, symName: __RNvYNtNtCscj7Jssje0XT_11async_trait8receiver9HasMutPatNtNtNtCsdGrGZaRBwMb_3syn3gen9visit_mut8VisitMut26visit_item_trait_alias_mutB6_, symObjAddr: 0x90C0, symBinAddr: 0x3E650, symSize: 0x30 }
  - { offset: 0x4B80A, size: 0x8, addend: 0x0, symName: __RNvYNtNtCscj7Jssje0XT_11async_trait8receiver9HasMutPatNtNtNtCsdGrGZaRBwMb_3syn3gen9visit_mut8VisitMut26visit_pat_tuple_struct_mutB6_, symObjAddr: 0x90F0, symBinAddr: 0x3E680, symSize: 0x30 }
  - { offset: 0x4B84C, size: 0x8, addend: 0x0, symName: __RNvYNtNtCscj7Jssje0XT_11async_trait8receiver9HasMutPatNtNtNtCsdGrGZaRBwMb_3syn3gen9visit_mut8VisitMut26visit_trait_item_const_mutB6_, symObjAddr: 0x9120, symBinAddr: 0x3E6B0, symSize: 0x30 }
  - { offset: 0x4B88E, size: 0x8, addend: 0x0, symName: __RNvYNtNtCscj7Jssje0XT_11async_trait8receiver9HasMutPatNtNtNtCsdGrGZaRBwMb_3syn3gen9visit_mut8VisitMut26visit_trait_item_macro_mutB6_, symObjAddr: 0x9150, symBinAddr: 0x3E6E0, symSize: 0x30 }
  - { offset: 0x4B8D0, size: 0x8, addend: 0x0, symName: __RNvYNtNtCscj7Jssje0XT_11async_trait8receiver9HasMutPatNtNtNtCsdGrGZaRBwMb_3syn3gen9visit_mut8VisitMut26visit_type_param_bound_mutB6_, symObjAddr: 0x9180, symBinAddr: 0x3E710, symSize: 0x30 }
  - { offset: 0x4B912, size: 0x8, addend: 0x0, symName: __RNvYNtNtCscj7Jssje0XT_11async_trait8receiver9HasMutPatNtNtNtCsdGrGZaRBwMb_3syn3gen9visit_mut8VisitMut27visit_foreign_item_type_mutB6_, symObjAddr: 0x91B0, symBinAddr: 0x3E740, symSize: 0x30 }
  - { offset: 0x4B954, size: 0x8, addend: 0x0, symName: __RNvYNtNtCscj7Jssje0XT_11async_trait8receiver9HasMutPatNtNtNtCsdGrGZaRBwMb_3syn3gen9visit_mut8VisitMut27visit_item_extern_crate_mutB6_, symObjAddr: 0x91E0, symBinAddr: 0x3E770, symSize: 0x30 }
  - { offset: 0x4B996, size: 0x8, addend: 0x0, symName: __RNvYNtNtCscj7Jssje0XT_11async_trait8receiver9HasMutPatNtNtNtCsdGrGZaRBwMb_3syn3gen9visit_mut8VisitMut27visit_static_mutability_mutB6_, symObjAddr: 0x9210, symBinAddr: 0x3E7A0, symSize: 0x30 }
  - { offset: 0x4B9D8, size: 0x8, addend: 0x0, symName: __RNvYNtNtCscj7Jssje0XT_11async_trait8receiver9HasMutPatNtNtNtCsdGrGZaRBwMb_3syn3gen9visit_mut8VisitMut27visit_type_trait_object_mutB6_, symObjAddr: 0x9240, symBinAddr: 0x3E7D0, symSize: 0x30 }
  - { offset: 0x4BA1A, size: 0x8, addend: 0x0, symName: __RNvYNtNtCscj7Jssje0XT_11async_trait8receiver9HasMutPatNtNtNtCsdGrGZaRBwMb_3syn3gen9visit_mut8VisitMut28visit_foreign_item_macro_mutB6_, symObjAddr: 0x9270, symBinAddr: 0x3E800, symSize: 0x30 }
  - { offset: 0x4BA5C, size: 0x8, addend: 0x0, symName: __RNvYNtNtCscj7Jssje0XT_11async_trait8receiver9HasMutPatNtNtNtCsdGrGZaRBwMb_3syn3gen9visit_mut8VisitMut28visit_pointer_mutability_mutB6_, symObjAddr: 0x92A0, symBinAddr: 0x3E830, symSize: 0x30 }
  - { offset: 0x4BA9E, size: 0x8, addend: 0x0, symName: __RNvYNtNtCscj7Jssje0XT_11async_trait8receiver9HasMutPatNtNtNtCsdGrGZaRBwMb_3syn3gen9visit_mut8VisitMut28visit_predicate_lifetime_mutB6_, symObjAddr: 0x92D0, symBinAddr: 0x3E860, symSize: 0x30 }
  - { offset: 0x4BAE0, size: 0x8, addend: 0x0, symName: __RNvYNtNtCscj7Jssje0XT_11async_trait8receiver9HasMutPatNtNtNtCsdGrGZaRBwMb_3syn3gen9visit_mut8VisitMut29visit_foreign_item_static_mutB6_, symObjAddr: 0x9300, symBinAddr: 0x3E890, symSize: 0x30 }
  - { offset: 0x4BB22, size: 0x8, addend: 0x0, symName: __RNvYNtNtCscj7Jssje0XT_11async_trait8receiver9HasMutPatNtNtNtCsdGrGZaRBwMb_3syn3gen9visit_mut8VisitMut30visit_trait_bound_modifier_mutB6_, symObjAddr: 0x9330, symBinAddr: 0x3E8C0, symSize: 0x30 }
  - { offset: 0x4BB64, size: 0x8, addend: 0x0, symName: __RNvYNtNtCscj7Jssje0XT_11async_trait8receiver9HasMutPatNtNtNtCsdGrGZaRBwMb_3syn3gen9visit_mut8VisitMut41visit_parenthesized_generic_arguments_mutB6_, symObjAddr: 0x9360, symBinAddr: 0x3E8F0, symSize: 0x30 }
  - { offset: 0x4BBA6, size: 0x8, addend: 0x0, symName: __RNvYNtNtCscj7Jssje0XT_11async_trait8receiver9HasMutPatNtNtNtCsdGrGZaRBwMb_3syn3gen9visit_mut8VisitMut43visit_angle_bracketed_generic_arguments_mutB6_, symObjAddr: 0x9390, symBinAddr: 0x3E920, symSize: 0x30 }
  - { offset: 0x4CED0, size: 0x8, addend: 0x0, symName: __RINvMNtCsieiGu2EXtoJ_4core6optionINtB3_6OptionINtNtCsdGrGZaRBwMb_3syn10punctuated4PairQNtNtBN_2ty4TypeQNtNtBN_5token5CommaEE7or_elseNCNvXsg_BL_INtBL_8PairsMutB1n_B1D_ENtNtNtNtB5_4iter6traits8iterator8Iterator4nexts_0ECscj7Jssje0XT_11async_trait, symObjAddr: 0x0, symBinAddr: 0x35590, symSize: 0xB0 }
  - { offset: 0x4CF4D, size: 0x8, addend: 0x0, symName: __RINvMNtCsieiGu2EXtoJ_4core6optionINtB3_6OptionINtNtCsdGrGZaRBwMb_3syn10punctuated4PairQNtNtBN_2ty9BareFnArgQNtNtBN_5token5CommaEE7or_elseNCNvXsg_BL_INtBL_8PairsMutB1n_B1I_ENtNtNtNtB5_4iter6traits8iterator8Iterator4nexts_0ECscj7Jssje0XT_11async_trait, symObjAddr: 0xB0, symBinAddr: 0x35640, symSize: 0xB0 }
  - { offset: 0x4CFD7, size: 0x8, addend: 0x0, symName: __RINvMNtCsieiGu2EXtoJ_4core6optionINtB3_6OptionINtNtCsdGrGZaRBwMb_3syn10punctuated4PairQNtNtBN_3pat3PatQNtNtBN_5token2OrEE7or_elseNCNvXsg_BL_INtBL_8PairsMutB1n_B1D_ENtNtNtNtB5_4iter6traits8iterator8Iterator4nexts_0ECscj7Jssje0XT_11async_trait, symObjAddr: 0x160, symBinAddr: 0x356F0, symSize: 0xB0 }
  - { offset: 0x4D03A, size: 0x8, addend: 0x0, symName: __RINvMNtCsieiGu2EXtoJ_4core6optionINtB3_6OptionINtNtCsdGrGZaRBwMb_3syn10punctuated4PairQNtNtBN_3pat3PatQNtNtBN_5token5CommaEE7or_elseNCNvXsg_BL_INtBL_8PairsMutB1n_B1D_ENtNtNtNtB5_4iter6traits8iterator8Iterator4nexts_0ECscj7Jssje0XT_11async_trait, symObjAddr: 0x210, symBinAddr: 0x357A0, symSize: 0xB0 }
  - { offset: 0x4D0B7, size: 0x8, addend: 0x0, symName: __RINvMNtCsieiGu2EXtoJ_4core6optionINtB3_6OptionINtNtCsdGrGZaRBwMb_3syn10punctuated4PairQNtNtBN_3pat8FieldPatQNtNtBN_5token5CommaEE7or_elseNCNvXsg_BL_INtBL_8PairsMutB1n_B1I_ENtNtNtNtB5_4iter6traits8iterator8Iterator4nexts_0ECscj7Jssje0XT_11async_trait, symObjAddr: 0x2C0, symBinAddr: 0x35850, symSize: 0xB0 }
  - { offset: 0x4D134, size: 0x8, addend: 0x0, symName: __RINvMNtCsieiGu2EXtoJ_4core6optionINtB3_6OptionINtNtCsdGrGZaRBwMb_3syn10punctuated4PairQNtNtBN_4data5FieldQNtNtBN_5token5CommaEE7or_elseNCNvXsg_BL_INtBL_8PairsMutB1n_B1G_ENtNtNtNtB5_4iter6traits8iterator8Iterator4nexts_0ECscj7Jssje0XT_11async_trait, symObjAddr: 0x370, symBinAddr: 0x35900, symSize: 0xB0 }
  - { offset: 0x4D1B1, size: 0x8, addend: 0x0, symName: __RINvMNtCsieiGu2EXtoJ_4core6optionINtB3_6OptionINtNtCsdGrGZaRBwMb_3syn10punctuated4PairQNtNtBN_4data7VariantQNtNtBN_5token5CommaEE7or_elseNCNvXsg_BL_INtBL_8PairsMutB1n_B1I_ENtNtNtNtB5_4iter6traits8iterator8Iterator4nexts_0ECscj7Jssje0XT_11async_trait, symObjAddr: 0x420, symBinAddr: 0x359B0, symSize: 0xB0 }
  - { offset: 0x4D22E, size: 0x8, addend: 0x0, symName: __RINvMNtCsieiGu2EXtoJ_4core6optionINtB3_6OptionINtNtCsdGrGZaRBwMb_3syn10punctuated4PairQNtNtBN_4expr10FieldValueQNtNtBN_5token5CommaEE7or_elseNCNvXsg_BL_INtBL_8PairsMutB1n_B1M_ENtNtNtNtB5_4iter6traits8iterator8Iterator4nexts_0ECscj7Jssje0XT_11async_trait, symObjAddr: 0x4D0, symBinAddr: 0x35A60, symSize: 0xB0 }
  - { offset: 0x4D2AB, size: 0x8, addend: 0x0, symName: __RINvMNtCsieiGu2EXtoJ_4core6optionINtB3_6OptionINtNtCsdGrGZaRBwMb_3syn10punctuated4PairQNtNtBN_4expr4ExprQNtNtBN_5token5CommaEE7or_elseNCNvXsg_BL_INtBL_8PairsMutB1n_B1F_ENtNtNtNtB5_4iter6traits8iterator8Iterator4nexts_0ECscj7Jssje0XT_11async_trait, symObjAddr: 0x580, symBinAddr: 0x35B10, symSize: 0xB0 }
  - { offset: 0x4D328, size: 0x8, addend: 0x0, symName: __RINvMNtCsieiGu2EXtoJ_4core6optionINtB3_6OptionINtNtCsdGrGZaRBwMb_3syn10punctuated4PairQNtNtBN_4item5FnArgQNtNtBN_5token5CommaEE7or_elseNCNvXsg_BL_INtBL_8PairsMutB1n_B1G_ENtNtNtNtB5_4iter6traits8iterator8Iterator4nexts_0ECscj7Jssje0XT_11async_trait, symObjAddr: 0x630, symBinAddr: 0x35BC0, symSize: 0xB0 }
  - { offset: 0x4D3A5, size: 0x8, addend: 0x0, symName: __RINvMNtCsieiGu2EXtoJ_4core6optionINtB3_6OptionINtNtCsdGrGZaRBwMb_3syn10punctuated4PairQNtNtBN_4item7UseTreeQNtNtBN_5token5CommaEE7or_elseNCNvXsg_BL_INtBL_8PairsMutB1n_B1I_ENtNtNtNtB5_4iter6traits8iterator8Iterator4nexts_0ECscj7Jssje0XT_11async_trait, symObjAddr: 0x6E0, symBinAddr: 0x35C70, symSize: 0xB0 }
  - { offset: 0x4D42F, size: 0x8, addend: 0x0, symName: __RINvMNtCsieiGu2EXtoJ_4core6optionINtB3_6OptionINtNtCsdGrGZaRBwMb_3syn10punctuated4PairQNtNtBN_4path11PathSegmentQNtNtBN_5token7PathSepEE7or_elseNCNvXsg_BL_INtBL_8PairsMutB1n_B1N_ENtNtNtNtB5_4iter6traits8iterator8Iterator4nexts_0ECscj7Jssje0XT_11async_trait, symObjAddr: 0x790, symBinAddr: 0x35D20, symSize: 0xB0 }
  - { offset: 0x4D4AC, size: 0x8, addend: 0x0, symName: __RINvMNtCsieiGu2EXtoJ_4core6optionINtB3_6OptionINtNtCsdGrGZaRBwMb_3syn10punctuated4PairQNtNtBN_4path15GenericArgumentQNtNtBN_5token5CommaEE7or_elseNCNvXsg_BL_INtBL_8PairsMutB1n_B1R_ENtNtNtNtB5_4iter6traits8iterator8Iterator4nexts_0ECscj7Jssje0XT_11async_trait, symObjAddr: 0x840, symBinAddr: 0x35DD0, symSize: 0xB0 }
  - { offset: 0x4D529, size: 0x8, addend: 0x0, symName: __RINvMNtCsieiGu2EXtoJ_4core6optionINtB3_6OptionINtNtCsdGrGZaRBwMb_3syn10punctuated4PairQNtNtBN_8generics12GenericParamQNtNtBN_5token5CommaEE7or_elseNCNvXsg_BL_INtBL_8PairsMutB1n_B1S_ENtNtNtNtB5_4iter6traits8iterator8Iterator4nexts_0ECscj7Jssje0XT_11async_trait, symObjAddr: 0x8F0, symBinAddr: 0x35E80, symSize: 0xB0 }
  - { offset: 0x4D5A6, size: 0x8, addend: 0x0, symName: __RINvMNtCsieiGu2EXtoJ_4core6optionINtB3_6OptionINtNtCsdGrGZaRBwMb_3syn10punctuated4PairQNtNtBN_8generics13CapturedParamQNtNtBN_5token5CommaEE7or_elseNCNvXsg_BL_INtBL_8PairsMutB1n_B1T_ENtNtNtNtB5_4iter6traits8iterator8Iterator4nexts_0ECscj7Jssje0XT_11async_trait, symObjAddr: 0x9A0, symBinAddr: 0x35F30, symSize: 0xB0 }
  - { offset: 0x4D630, size: 0x8, addend: 0x0, symName: __RINvMNtCsieiGu2EXtoJ_4core6optionINtB3_6OptionINtNtCsdGrGZaRBwMb_3syn10punctuated4PairQNtNtBN_8generics14TypeParamBoundQNtNtBN_5token4PlusEE7or_elseNCNvXsg_BL_INtBL_8PairsMutB1n_B1U_ENtNtNtNtB5_4iter6traits8iterator8Iterator4nexts_0ECscj7Jssje0XT_11async_trait, symObjAddr: 0xA50, symBinAddr: 0x35FE0, symSize: 0xB0 }
  - { offset: 0x4D6AD, size: 0x8, addend: 0x0, symName: __RINvMNtCsieiGu2EXtoJ_4core6optionINtB3_6OptionINtNtCsdGrGZaRBwMb_3syn10punctuated4PairQNtNtBN_8generics14WherePredicateQNtNtBN_5token5CommaEE7or_elseNCNvXsg_BL_INtBL_8PairsMutB1n_B1U_ENtNtNtNtB5_4iter6traits8iterator8Iterator4nexts_0ECscj7Jssje0XT_11async_trait, symObjAddr: 0xB00, symBinAddr: 0x36090, symSize: 0xB0 }
  - { offset: 0x4D72A, size: 0x8, addend: 0x0, symName: __RINvMNtCsieiGu2EXtoJ_4core6optionINtB3_6OptionINtNtCsdGrGZaRBwMb_3syn10punctuated4PairQNtNtBN_8lifetime8LifetimeQNtNtBN_5token4PlusEE7or_elseNCNvXsg_BL_INtBL_8PairsMutB1n_B1N_ENtNtNtNtB5_4iter6traits8iterator8Iterator4nexts_0ECscj7Jssje0XT_11async_trait, symObjAddr: 0xBB0, symBinAddr: 0x36140, symSize: 0xB0 }
  - { offset: 0x4D868, size: 0x8, addend: 0x0, symName: __RNCNvNtCscj7Jssje0XT_11async_trait8receiver11contains_fn0B5_, symObjAddr: 0x25F0, symBinAddr: 0x37B80, symSize: 0x180 }
  - { offset: 0x4D8D8, size: 0x8, addend: 0x0, symName: __RNCNvNtCscj7Jssje0XT_11async_trait8receiver24has_self_in_token_stream0B5_, symObjAddr: 0x2770, symBinAddr: 0x37D00, symSize: 0x180 }
  - { offset: 0x4D966, size: 0x8, addend: 0x0, symName: __RNvNtCscj7Jssje0XT_11async_trait8receiver11contains_fn, symObjAddr: 0x2FF0, symBinAddr: 0x38580, symSize: 0x70 }
  - { offset: 0x4D993, size: 0x8, addend: 0x0, symName: __RNvNtCscj7Jssje0XT_11async_trait8receiver15has_self_in_sig, symObjAddr: 0x3060, symBinAddr: 0x385F0, symSize: 0x30 }
  - { offset: 0x4D9D4, size: 0x8, addend: 0x0, symName: __RNvNtCscj7Jssje0XT_11async_trait8receiver17has_self_in_block, symObjAddr: 0x3090, symBinAddr: 0x38620, symSize: 0x30 }
  - { offset: 0x4DA15, size: 0x8, addend: 0x0, symName: __RNvNtCscj7Jssje0XT_11async_trait8receiver24has_self_in_token_stream, symObjAddr: 0x30C0, symBinAddr: 0x38650, symSize: 0x70 }
  - { offset: 0x4DA42, size: 0x8, addend: 0x0, symName: __RNvNtCscj7Jssje0XT_11async_trait8receiver26prepend_underscore_to_self, symObjAddr: 0x3130, symBinAddr: 0x386C0, symSize: 0xD0 }
  - { offset: 0x4DA83, size: 0x8, addend: 0x0, symName: __RNvNtCscj7Jssje0XT_11async_trait8receiver7mut_pat, symObjAddr: 0x3200, symBinAddr: 0x38790, symSize: 0x40 }
  - { offset: 0x4DACE, size: 0x8, addend: 0x0, symName: __RNvNvMs0_NtCscj7Jssje0XT_11async_trait8receiverNtB7_11ReplaceSelf18visit_token_stream23visit_token_stream_impl, symObjAddr: 0x3240, symBinAddr: 0x387D0, symSize: 0x530 }
  - { offset: 0x4DBC2, size: 0x8, addend: 0x0, symName: __RNvXNtCscj7Jssje0XT_11async_trait8receiverNtB2_9HasMutPatNtNtNtCsdGrGZaRBwMb_3syn3gen9visit_mut8VisitMut19visit_pat_ident_mut, symObjAddr: 0x37A0, symBinAddr: 0x38D30, symSize: 0x80 }
  - { offset: 0x4DC1B, size: 0x8, addend: 0x0, symName: __RNvXs1_NtCscj7Jssje0XT_11async_trait8receiverNtB5_11ReplaceSelfNtNtNtCsdGrGZaRBwMb_3syn3gen9visit_mut8VisitMut14visit_item_mut, symObjAddr: 0x3820, symBinAddr: 0x38DB0, symSize: 0x100 }
  - { offset: 0x4DC83, size: 0x8, addend: 0x0, symName: __RNvXs1_NtCscj7Jssje0XT_11async_trait8receiverNtB5_11ReplaceSelfNtNtNtCsdGrGZaRBwMb_3syn3gen9visit_mut8VisitMut14visit_path_mut, symObjAddr: 0x3920, symBinAddr: 0x38EB0, symSize: 0x100 }
  - { offset: 0x4DCE3, size: 0x8, addend: 0x0, symName: __RNvXs1_NtCscj7Jssje0XT_11async_trait8receiverNtB5_11ReplaceSelfNtNtNtCsdGrGZaRBwMb_3syn3gen9visit_mut8VisitMut15visit_ident_mut, symObjAddr: 0x3A20, symBinAddr: 0x38FB0, symSize: 0x30 }
  - { offset: 0x4DD19, size: 0x8, addend: 0x0, symName: __RNvXs1_NtCscj7Jssje0XT_11async_trait8receiverNtB5_11ReplaceSelfNtNtNtCsdGrGZaRBwMb_3syn3gen9visit_mut8VisitMut15visit_macro_mut, symObjAddr: 0x3A50, symBinAddr: 0x38FE0, symSize: 0x60 }
  - { offset: 0x4DD55, size: 0x8, addend: 0x0, symName: __RNvXs_NtCscj7Jssje0XT_11async_trait8receiverNtB4_7HasSelfNtNtNtCsdGrGZaRBwMb_3syn3gen9visit_mut8VisitMut14visit_item_mut, symObjAddr: 0x3D00, symBinAddr: 0x39290, symSize: 0x20 }
  - { offset: 0x4DD87, size: 0x8, addend: 0x0, symName: __RNvXs_NtCscj7Jssje0XT_11async_trait8receiverNtB4_7HasSelfNtNtNtCsdGrGZaRBwMb_3syn3gen9visit_mut8VisitMut15visit_macro_mut, symObjAddr: 0x3D20, symBinAddr: 0x392B0, symSize: 0x80 }
  - { offset: 0x4DDBD, size: 0x8, addend: 0x0, symName: __RNvXs_NtCscj7Jssje0XT_11async_trait8receiverNtB4_7HasSelfNtNtNtCsdGrGZaRBwMb_3syn3gen9visit_mut8VisitMut18visit_receiver_mut, symObjAddr: 0x3DA0, symBinAddr: 0x39330, symSize: 0x20 }
  - { offset: 0x4DDF3, size: 0x8, addend: 0x0, symName: __RNvXs_NtCscj7Jssje0XT_11async_trait8receiverNtB4_7HasSelfNtNtNtCsdGrGZaRBwMb_3syn3gen9visit_mut8VisitMut19visit_expr_path_mut, symObjAddr: 0x3DC0, symBinAddr: 0x39350, symSize: 0x70 }
  - { offset: 0x4DE29, size: 0x8, addend: 0x0, symName: __RNvXs_NtCscj7Jssje0XT_11async_trait8receiverNtB4_7HasSelfNtNtNtCsdGrGZaRBwMb_3syn3gen9visit_mut8VisitMut19visit_type_path_mut, symObjAddr: 0x3E30, symBinAddr: 0x393C0, symSize: 0x70 }
  - { offset: 0x4DE8C, size: 0x8, addend: 0x0, symName: __RINvMNtCsieiGu2EXtoJ_4core6optionINtB3_6OptionNtNtCsdGrGZaRBwMb_3syn8generics11WhereClauseE18get_or_insert_withNCNvNtCscj7Jssje0XT_11async_trait6expand23where_clause_or_default0EB1R_, symObjAddr: 0xC60, symBinAddr: 0x361F0, symSize: 0x170 }
  - { offset: 0x4DF50, size: 0x8, addend: 0x0, symName: __RINvMNtCsieiGu2EXtoJ_4core6optionINtB3_6OptionQINtNtCslJiobkLta79_5alloc5boxed3BoxNtNtCsdGrGZaRBwMb_3syn2ty4TypeEE3mapQB1i_NvYBJ_INtNtB5_7convert5AsMutB1i_E6as_mutECscj7Jssje0XT_11async_trait, symObjAddr: 0xDD0, symBinAddr: 0x36360, symSize: 0x50 }
  - { offset: 0x4DFE0, size: 0x8, addend: 0x0, symName: __RINvMNtCsieiGu2EXtoJ_4core6optionINtB3_6OptionQINtNtCslJiobkLta79_5alloc5boxed3BoxNtNtCsdGrGZaRBwMb_3syn2ty9BareFnArgEE3mapQB1i_NvYBJ_INtNtB5_7convert5AsMutB1i_E6as_mutECscj7Jssje0XT_11async_trait, symObjAddr: 0xE20, symBinAddr: 0x363B0, symSize: 0x50 }
  - { offset: 0x4E070, size: 0x8, addend: 0x0, symName: __RINvMNtCsieiGu2EXtoJ_4core6optionINtB3_6OptionQINtNtCslJiobkLta79_5alloc5boxed3BoxNtNtCsdGrGZaRBwMb_3syn3pat3PatEE3mapQB1i_NvYBJ_INtNtB5_7convert5AsMutB1i_E6as_mutECscj7Jssje0XT_11async_trait, symObjAddr: 0xE70, symBinAddr: 0x36400, symSize: 0x50 }
  - { offset: 0x4E100, size: 0x8, addend: 0x0, symName: __RINvMNtCsieiGu2EXtoJ_4core6optionINtB3_6OptionQINtNtCslJiobkLta79_5alloc5boxed3BoxNtNtCsdGrGZaRBwMb_3syn3pat8FieldPatEE3mapQB1i_NvYBJ_INtNtB5_7convert5AsMutB1i_E6as_mutECscj7Jssje0XT_11async_trait, symObjAddr: 0xEC0, symBinAddr: 0x36450, symSize: 0x50 }
  - { offset: 0x4E190, size: 0x8, addend: 0x0, symName: __RINvMNtCsieiGu2EXtoJ_4core6optionINtB3_6OptionQINtNtCslJiobkLta79_5alloc5boxed3BoxNtNtCsdGrGZaRBwMb_3syn4data7VariantEE3mapQB1i_NvYBJ_INtNtB5_7convert5AsMutB1i_E6as_mutECscj7Jssje0XT_11async_trait, symObjAddr: 0xF10, symBinAddr: 0x364A0, symSize: 0x50 }
  - { offset: 0x4E220, size: 0x8, addend: 0x0, symName: __RINvMNtCsieiGu2EXtoJ_4core6optionINtB3_6OptionQINtNtCslJiobkLta79_5alloc5boxed3BoxNtNtCsdGrGZaRBwMb_3syn4expr10FieldValueEE3mapQB1i_NvYBJ_INtNtB5_7convert5AsMutB1i_E6as_mutECscj7Jssje0XT_11async_trait, symObjAddr: 0xF60, symBinAddr: 0x364F0, symSize: 0x50 }
  - { offset: 0x4E2B0, size: 0x8, addend: 0x0, symName: __RINvMNtCsieiGu2EXtoJ_4core6optionINtB3_6OptionQINtNtCslJiobkLta79_5alloc5boxed3BoxNtNtCsdGrGZaRBwMb_3syn4expr4ExprEE3mapQB1i_NvYBJ_INtNtB5_7convert5AsMutB1i_E6as_mutECscj7Jssje0XT_11async_trait, symObjAddr: 0xFB0, symBinAddr: 0x36540, symSize: 0x50 }
  - { offset: 0x4E340, size: 0x8, addend: 0x0, symName: __RINvMNtCsieiGu2EXtoJ_4core6optionINtB3_6OptionQINtNtCslJiobkLta79_5alloc5boxed3BoxNtNtCsdGrGZaRBwMb_3syn4item5FnArgEE3mapQB1i_NvYBJ_INtNtB5_7convert5AsMutB1i_E6as_mutECscj7Jssje0XT_11async_trait, symObjAddr: 0x1000, symBinAddr: 0x36590, symSize: 0x50 }
  - { offset: 0x4E3D0, size: 0x8, addend: 0x0, symName: __RINvMNtCsieiGu2EXtoJ_4core6optionINtB3_6OptionQINtNtCslJiobkLta79_5alloc5boxed3BoxNtNtCsdGrGZaRBwMb_3syn4item7UseTreeEE3mapQB1i_NvYBJ_INtNtB5_7convert5AsMutB1i_E6as_mutECscj7Jssje0XT_11async_trait, symObjAddr: 0x1050, symBinAddr: 0x365E0, symSize: 0x50 }
  - { offset: 0x4E460, size: 0x8, addend: 0x0, symName: __RINvMNtCsieiGu2EXtoJ_4core6optionINtB3_6OptionQINtNtCslJiobkLta79_5alloc5boxed3BoxNtNtCsdGrGZaRBwMb_3syn4path15GenericArgumentEE3mapQB1i_NvYBJ_INtNtB5_7convert5AsMutB1i_E6as_mutECscj7Jssje0XT_11async_trait, symObjAddr: 0x10A0, symBinAddr: 0x36630, symSize: 0x50 }
  - { offset: 0x4E4F0, size: 0x8, addend: 0x0, symName: __RINvMNtCsieiGu2EXtoJ_4core6optionINtB3_6OptionQINtNtCslJiobkLta79_5alloc5boxed3BoxNtNtCsdGrGZaRBwMb_3syn8generics13CapturedParamEE3mapQB1i_NvYBJ_INtNtB5_7convert5AsMutB1i_E6as_mutECscj7Jssje0XT_11async_trait, symObjAddr: 0x10F0, symBinAddr: 0x36680, symSize: 0x50 }
  - { offset: 0x4E580, size: 0x8, addend: 0x0, symName: __RINvMNtCsieiGu2EXtoJ_4core6optionINtB3_6OptionQINtNtCslJiobkLta79_5alloc5boxed3BoxNtNtCsdGrGZaRBwMb_3syn8generics14TypeParamBoundEE3mapQB1i_NvYBJ_INtNtB5_7convert5AsMutB1i_E6as_mutECscj7Jssje0XT_11async_trait, symObjAddr: 0x1140, symBinAddr: 0x366D0, symSize: 0x50 }
  - { offset: 0x4E610, size: 0x8, addend: 0x0, symName: __RINvMNtCsieiGu2EXtoJ_4core6optionINtB3_6OptionQINtNtCslJiobkLta79_5alloc5boxed3BoxNtNtCsdGrGZaRBwMb_3syn8generics14WherePredicateEE3mapQB1i_NvYBJ_INtNtB5_7convert5AsMutB1i_E6as_mutECscj7Jssje0XT_11async_trait, symObjAddr: 0x1190, symBinAddr: 0x36720, symSize: 0x50 }
  - { offset: 0x4E6A0, size: 0x8, addend: 0x0, symName: __RINvMNtCsieiGu2EXtoJ_4core6optionINtB3_6OptionQINtNtCslJiobkLta79_5alloc5boxed3BoxNtNtCsdGrGZaRBwMb_3syn8lifetime8LifetimeEE3mapQB1i_NvYBJ_INtNtB5_7convert5AsMutB1i_E6as_mutECscj7Jssje0XT_11async_trait, symObjAddr: 0x11E0, symBinAddr: 0x36770, symSize: 0x50 }
  - { offset: 0x4E723, size: 0x8, addend: 0x0, symName: __RINvMNtCsieiGu2EXtoJ_4core6optionINtB3_6OptionQNtNtCsdGrGZaRBwMb_3syn2ty4TypeE3mapINtNtBN_10punctuated4PairBI_QNtNtBN_5token5CommaENcNtB1i_3End0ECscj7Jssje0XT_11async_trait, symObjAddr: 0x1230, symBinAddr: 0x367C0, symSize: 0x80 }
  - { offset: 0x4E7A6, size: 0x8, addend: 0x0, symName: __RINvMNtCsieiGu2EXtoJ_4core6optionINtB3_6OptionQNtNtCsdGrGZaRBwMb_3syn2ty9BareFnArgE3mapINtNtBN_10punctuated4PairBI_QNtNtBN_5token5CommaENcNtB1n_3End0ECscj7Jssje0XT_11async_trait, symObjAddr: 0x12B0, symBinAddr: 0x36840, symSize: 0x80 }
  - { offset: 0x4E829, size: 0x8, addend: 0x0, symName: __RINvMNtCsieiGu2EXtoJ_4core6optionINtB3_6OptionQNtNtCsdGrGZaRBwMb_3syn3pat3PatE3mapINtNtBN_10punctuated4PairBI_QNtNtBN_5token2OrENcNtB1i_3End0ECscj7Jssje0XT_11async_trait, symObjAddr: 0x1330, symBinAddr: 0x368C0, symSize: 0x80 }
  - { offset: 0x4E8AC, size: 0x8, addend: 0x0, symName: __RINvMNtCsieiGu2EXtoJ_4core6optionINtB3_6OptionQNtNtCsdGrGZaRBwMb_3syn3pat3PatE3mapINtNtBN_10punctuated4PairBI_QNtNtBN_5token5CommaENcNtB1i_3End0ECscj7Jssje0XT_11async_trait, symObjAddr: 0x13B0, symBinAddr: 0x36940, symSize: 0x80 }
  - { offset: 0x4E92F, size: 0x8, addend: 0x0, symName: __RINvMNtCsieiGu2EXtoJ_4core6optionINtB3_6OptionQNtNtCsdGrGZaRBwMb_3syn3pat8FieldPatE3mapINtNtBN_10punctuated4PairBI_QNtNtBN_5token5CommaENcNtB1n_3End0ECscj7Jssje0XT_11async_trait, symObjAddr: 0x1430, symBinAddr: 0x369C0, symSize: 0x80 }
  - { offset: 0x4E9B2, size: 0x8, addend: 0x0, symName: __RINvMNtCsieiGu2EXtoJ_4core6optionINtB3_6OptionQNtNtCsdGrGZaRBwMb_3syn4data5FieldE3mapINtNtBN_10punctuated4PairBI_QNtNtBN_5token5CommaENcNtB1l_3End0ECscj7Jssje0XT_11async_trait, symObjAddr: 0x14B0, symBinAddr: 0x36A40, symSize: 0x80 }
  - { offset: 0x4EA35, size: 0x8, addend: 0x0, symName: __RINvMNtCsieiGu2EXtoJ_4core6optionINtB3_6OptionQNtNtCsdGrGZaRBwMb_3syn4data7VariantE3mapINtNtBN_10punctuated4PairBI_QNtNtBN_5token5CommaENcNtB1n_3End0ECscj7Jssje0XT_11async_trait, symObjAddr: 0x1530, symBinAddr: 0x36AC0, symSize: 0x80 }
  - { offset: 0x4EAB8, size: 0x8, addend: 0x0, symName: __RINvMNtCsieiGu2EXtoJ_4core6optionINtB3_6OptionQNtNtCsdGrGZaRBwMb_3syn4expr10FieldValueE3mapINtNtBN_10punctuated4PairBI_QNtNtBN_5token5CommaENcNtB1r_3End0ECscj7Jssje0XT_11async_trait, symObjAddr: 0x15B0, symBinAddr: 0x36B40, symSize: 0x80 }
  - { offset: 0x4EB3B, size: 0x8, addend: 0x0, symName: __RINvMNtCsieiGu2EXtoJ_4core6optionINtB3_6OptionQNtNtCsdGrGZaRBwMb_3syn4expr4ExprE3mapINtNtBN_10punctuated4PairBI_QNtNtBN_5token5CommaENcNtB1k_3End0ECscj7Jssje0XT_11async_trait, symObjAddr: 0x1630, symBinAddr: 0x36BC0, symSize: 0x80 }
  - { offset: 0x4EBBE, size: 0x8, addend: 0x0, symName: __RINvMNtCsieiGu2EXtoJ_4core6optionINtB3_6OptionQNtNtCsdGrGZaRBwMb_3syn4item5FnArgE3mapINtNtBN_10punctuated4PairBI_QNtNtBN_5token5CommaENcNtB1l_3End0ECscj7Jssje0XT_11async_trait, symObjAddr: 0x16B0, symBinAddr: 0x36C40, symSize: 0x80 }
  - { offset: 0x4EC29, size: 0x8, addend: 0x0, symName: __RINvMNtCsieiGu2EXtoJ_4core6optionINtB3_6OptionQNtNtCsdGrGZaRBwMb_3syn4item5FnArgE7or_elseNCNvXsF_NtBN_10punctuatedINtB1x_14PrivateIterMutBJ_NtNtBN_5token5CommaENtNtNtNtB5_4iter6traits8iterator8Iterator4nexts_0ECscj7Jssje0XT_11async_trait, symObjAddr: 0x1730, symBinAddr: 0x36CC0, symSize: 0x90 }
  - { offset: 0x4ECBF, size: 0x8, addend: 0x0, symName: __RINvMNtCsieiGu2EXtoJ_4core6optionINtB3_6OptionQNtNtCsdGrGZaRBwMb_3syn4item5FnArgE7or_elseNCNvXsG_NtBN_10punctuatedINtB1x_14PrivateIterMutBJ_NtNtBN_5token5CommaENtNtNtNtB5_4iter6traits12double_ended19DoubleEndedIterator9next_back0ECscj7Jssje0XT_11async_trait, symObjAddr: 0x17C0, symBinAddr: 0x36D50, symSize: 0x90 }
  - { offset: 0x4ED39, size: 0x8, addend: 0x0, symName: __RINvMNtCsieiGu2EXtoJ_4core6optionINtB3_6OptionQNtNtCsdGrGZaRBwMb_3syn4item7UseTreeE3mapINtNtBN_10punctuated4PairBI_QNtNtBN_5token5CommaENcNtB1n_3End0ECscj7Jssje0XT_11async_trait, symObjAddr: 0x1850, symBinAddr: 0x36DE0, symSize: 0x80 }
  - { offset: 0x4EDBC, size: 0x8, addend: 0x0, symName: __RINvMNtCsieiGu2EXtoJ_4core6optionINtB3_6OptionQNtNtCsdGrGZaRBwMb_3syn4path11PathSegmentE3mapINtNtBN_10punctuated4PairBI_QNtNtBN_5token7PathSepENcNtB1s_3End0ECscj7Jssje0XT_11async_trait, symObjAddr: 0x18D0, symBinAddr: 0x36E60, symSize: 0x80 }
  - { offset: 0x4EE3F, size: 0x8, addend: 0x0, symName: __RINvMNtCsieiGu2EXtoJ_4core6optionINtB3_6OptionQNtNtCsdGrGZaRBwMb_3syn4path15GenericArgumentE3mapINtNtBN_10punctuated4PairBI_QNtNtBN_5token5CommaENcNtB1w_3End0ECscj7Jssje0XT_11async_trait, symObjAddr: 0x1950, symBinAddr: 0x36EE0, symSize: 0x80 }
  - { offset: 0x4EEC2, size: 0x8, addend: 0x0, symName: __RINvMNtCsieiGu2EXtoJ_4core6optionINtB3_6OptionQNtNtCsdGrGZaRBwMb_3syn8generics12GenericParamE3mapINtNtBN_10punctuated4PairBI_QNtNtBN_5token5CommaENcNtB1x_3End0ECscj7Jssje0XT_11async_trait, symObjAddr: 0x19D0, symBinAddr: 0x36F60, symSize: 0x80 }
  - { offset: 0x4EF45, size: 0x8, addend: 0x0, symName: __RINvMNtCsieiGu2EXtoJ_4core6optionINtB3_6OptionQNtNtCsdGrGZaRBwMb_3syn8generics13CapturedParamE3mapINtNtBN_10punctuated4PairBI_QNtNtBN_5token5CommaENcNtB1y_3End0ECscj7Jssje0XT_11async_trait, symObjAddr: 0x1A50, symBinAddr: 0x36FE0, symSize: 0x80 }
  - { offset: 0x4EFC8, size: 0x8, addend: 0x0, symName: __RINvMNtCsieiGu2EXtoJ_4core6optionINtB3_6OptionQNtNtCsdGrGZaRBwMb_3syn8generics14TypeParamBoundE3mapINtNtBN_10punctuated4PairBI_QNtNtBN_5token4PlusENcNtB1z_3End0ECscj7Jssje0XT_11async_trait, symObjAddr: 0x1AD0, symBinAddr: 0x37060, symSize: 0x80 }
  - { offset: 0x4F04B, size: 0x8, addend: 0x0, symName: __RINvMNtCsieiGu2EXtoJ_4core6optionINtB3_6OptionQNtNtCsdGrGZaRBwMb_3syn8generics14WherePredicateE3mapINtNtBN_10punctuated4PairBI_QNtNtBN_5token5CommaENcNtB1z_3End0ECscj7Jssje0XT_11async_trait, symObjAddr: 0x1B50, symBinAddr: 0x370E0, symSize: 0x80 }
  - { offset: 0x4F0CE, size: 0x8, addend: 0x0, symName: __RINvMNtCsieiGu2EXtoJ_4core6optionINtB3_6OptionQNtNtCsdGrGZaRBwMb_3syn8lifetime8LifetimeE3mapINtNtBN_10punctuated4PairBI_QNtNtBN_5token4PlusENcNtB1s_3End0ECscj7Jssje0XT_11async_trait, symObjAddr: 0x1BD0, symBinAddr: 0x37160, symSize: 0x80 }
  - { offset: 0x4F146, size: 0x8, addend: 0x0, symName: __RINvMNtCsieiGu2EXtoJ_4core6optionINtB3_6OptionQTNtNtCsdGrGZaRBwMb_3syn2ty4TypeNtNtBO_5token5CommaEE3mapINtNtBO_10punctuated4PairQBK_QB1e_ENCNvXsg_B1G_INtB1G_8PairsMutBK_B1e_ENtNtNtNtB5_4iter6traits8iterator8Iterator4next0ECscj7Jssje0XT_11async_trait, symObjAddr: 0x1C50, symBinAddr: 0x371E0, symSize: 0x80 }
  - { offset: 0x4F1BE, size: 0x8, addend: 0x0, symName: __RINvMNtCsieiGu2EXtoJ_4core6optionINtB3_6OptionQTNtNtCsdGrGZaRBwMb_3syn2ty9BareFnArgNtNtBO_5token5CommaEE3mapINtNtBO_10punctuated4PairQBK_QB1j_ENCNvXsg_B1L_INtB1L_8PairsMutBK_B1j_ENtNtNtNtB5_4iter6traits8iterator8Iterator4next0ECscj7Jssje0XT_11async_trait, symObjAddr: 0x1CD0, symBinAddr: 0x37260, symSize: 0x80 }
  - { offset: 0x4F236, size: 0x8, addend: 0x0, symName: __RINvMNtCsieiGu2EXtoJ_4core6optionINtB3_6OptionQTNtNtCsdGrGZaRBwMb_3syn3pat3PatNtNtBO_5token2OrEE3mapINtNtBO_10punctuated4PairQBK_QB1e_ENCNvXsg_B1D_INtB1D_8PairsMutBK_B1e_ENtNtNtNtB5_4iter6traits8iterator8Iterator4next0ECscj7Jssje0XT_11async_trait, symObjAddr: 0x1D50, symBinAddr: 0x372E0, symSize: 0x80 }
  - { offset: 0x4F2AE, size: 0x8, addend: 0x0, symName: __RINvMNtCsieiGu2EXtoJ_4core6optionINtB3_6OptionQTNtNtCsdGrGZaRBwMb_3syn3pat3PatNtNtBO_5token5CommaEE3mapINtNtBO_10punctuated4PairQBK_QB1e_ENCNvXsg_B1G_INtB1G_8PairsMutBK_B1e_ENtNtNtNtB5_4iter6traits8iterator8Iterator4next0ECscj7Jssje0XT_11async_trait, symObjAddr: 0x1DD0, symBinAddr: 0x37360, symSize: 0x80 }
  - { offset: 0x4F326, size: 0x8, addend: 0x0, symName: __RINvMNtCsieiGu2EXtoJ_4core6optionINtB3_6OptionQTNtNtCsdGrGZaRBwMb_3syn3pat8FieldPatNtNtBO_5token5CommaEE3mapINtNtBO_10punctuated4PairQBK_QB1j_ENCNvXsg_B1L_INtB1L_8PairsMutBK_B1j_ENtNtNtNtB5_4iter6traits8iterator8Iterator4next0ECscj7Jssje0XT_11async_trait, symObjAddr: 0x1E50, symBinAddr: 0x373E0, symSize: 0x80 }
  - { offset: 0x4F39E, size: 0x8, addend: 0x0, symName: __RINvMNtCsieiGu2EXtoJ_4core6optionINtB3_6OptionQTNtNtCsdGrGZaRBwMb_3syn4data5FieldNtNtBO_5token5CommaEE3mapINtNtBO_10punctuated4PairQBK_QB1h_ENCNvXsg_B1J_INtB1J_8PairsMutBK_B1h_ENtNtNtNtB5_4iter6traits8iterator8Iterator4next0ECscj7Jssje0XT_11async_trait, symObjAddr: 0x1ED0, symBinAddr: 0x37460, symSize: 0x80 }
  - { offset: 0x4F416, size: 0x8, addend: 0x0, symName: __RINvMNtCsieiGu2EXtoJ_4core6optionINtB3_6OptionQTNtNtCsdGrGZaRBwMb_3syn4data7VariantNtNtBO_5token5CommaEE3mapINtNtBO_10punctuated4PairQBK_QB1j_ENCNvXsg_B1L_INtB1L_8PairsMutBK_B1j_ENtNtNtNtB5_4iter6traits8iterator8Iterator4next0ECscj7Jssje0XT_11async_trait, symObjAddr: 0x1F50, symBinAddr: 0x374E0, symSize: 0x80 }
  - { offset: 0x4F48E, size: 0x8, addend: 0x0, symName: __RINvMNtCsieiGu2EXtoJ_4core6optionINtB3_6OptionQTNtNtCsdGrGZaRBwMb_3syn4expr10FieldValueNtNtBO_5token5CommaEE3mapINtNtBO_10punctuated4PairQBK_QB1n_ENCNvXsg_B1P_INtB1P_8PairsMutBK_B1n_ENtNtNtNtB5_4iter6traits8iterator8Iterator4next0ECscj7Jssje0XT_11async_trait, symObjAddr: 0x1FD0, symBinAddr: 0x37560, symSize: 0x80 }
  - { offset: 0x4F506, size: 0x8, addend: 0x0, symName: __RINvMNtCsieiGu2EXtoJ_4core6optionINtB3_6OptionQTNtNtCsdGrGZaRBwMb_3syn4expr4ExprNtNtBO_5token5CommaEE3mapINtNtBO_10punctuated4PairQBK_QB1g_ENCNvXsg_B1I_INtB1I_8PairsMutBK_B1g_ENtNtNtNtB5_4iter6traits8iterator8Iterator4next0ECscj7Jssje0XT_11async_trait, symObjAddr: 0x2050, symBinAddr: 0x375E0, symSize: 0x80 }
  - { offset: 0x4F571, size: 0x8, addend: 0x0, symName: __RINvMNtCsieiGu2EXtoJ_4core6optionINtB3_6OptionQTNtNtCsdGrGZaRBwMb_3syn4item5FnArgNtNtBO_5token5CommaEE3mapINtNtBO_10punctuated4PairQBK_QB1h_ENCNvXsg_B1J_INtB1J_8PairsMutBK_B1h_ENtNtNtNtB5_4iter6traits8iterator8Iterator4next0ECscj7Jssje0XT_11async_trait, symObjAddr: 0x20D0, symBinAddr: 0x37660, symSize: 0x80 }
  - { offset: 0x4F5DC, size: 0x8, addend: 0x0, symName: __RINvMNtCsieiGu2EXtoJ_4core6optionINtB3_6OptionQTNtNtCsdGrGZaRBwMb_3syn4item5FnArgNtNtBO_5token5CommaEE3mapQBK_NCNCNvXsG_NtBO_10punctuatedINtB1U_14PrivateIterMutBK_B1h_ENtNtNtNtB5_4iter6traits12double_ended19DoubleEndedIterator9next_back00ECscj7Jssje0XT_11async_trait, symObjAddr: 0x2150, symBinAddr: 0x376E0, symSize: 0x50 }
  - { offset: 0x4F647, size: 0x8, addend: 0x0, symName: __RINvMNtCsieiGu2EXtoJ_4core6optionINtB3_6OptionQTNtNtCsdGrGZaRBwMb_3syn4item5FnArgNtNtBO_5token5CommaEE3mapQBK_NCNvXsF_NtBO_10punctuatedINtB1S_14PrivateIterMutBK_B1h_ENtNtNtNtB5_4iter6traits8iterator8Iterator4next0ECscj7Jssje0XT_11async_trait, symObjAddr: 0x21A0, symBinAddr: 0x37730, symSize: 0x50 }
  - { offset: 0x4F6BF, size: 0x8, addend: 0x0, symName: __RINvMNtCsieiGu2EXtoJ_4core6optionINtB3_6OptionQTNtNtCsdGrGZaRBwMb_3syn4item7UseTreeNtNtBO_5token5CommaEE3mapINtNtBO_10punctuated4PairQBK_QB1j_ENCNvXsg_B1L_INtB1L_8PairsMutBK_B1j_ENtNtNtNtB5_4iter6traits8iterator8Iterator4next0ECscj7Jssje0XT_11async_trait, symObjAddr: 0x21F0, symBinAddr: 0x37780, symSize: 0x80 }
  - { offset: 0x4F737, size: 0x8, addend: 0x0, symName: __RINvMNtCsieiGu2EXtoJ_4core6optionINtB3_6OptionQTNtNtCsdGrGZaRBwMb_3syn4path11PathSegmentNtNtBO_5token7PathSepEE3mapINtNtBO_10punctuated4PairQBK_QB1o_ENCNvXsg_B1S_INtB1S_8PairsMutBK_B1o_ENtNtNtNtB5_4iter6traits8iterator8Iterator4next0ECscj7Jssje0XT_11async_trait, symObjAddr: 0x2270, symBinAddr: 0x37800, symSize: 0x80 }
  - { offset: 0x4F7AF, size: 0x8, addend: 0x0, symName: __RINvMNtCsieiGu2EXtoJ_4core6optionINtB3_6OptionQTNtNtCsdGrGZaRBwMb_3syn4path15GenericArgumentNtNtBO_5token5CommaEE3mapINtNtBO_10punctuated4PairQBK_QB1s_ENCNvXsg_B1U_INtB1U_8PairsMutBK_B1s_ENtNtNtNtB5_4iter6traits8iterator8Iterator4next0ECscj7Jssje0XT_11async_trait, symObjAddr: 0x22F0, symBinAddr: 0x37880, symSize: 0x80 }
  - { offset: 0x4F827, size: 0x8, addend: 0x0, symName: __RINvMNtCsieiGu2EXtoJ_4core6optionINtB3_6OptionQTNtNtCsdGrGZaRBwMb_3syn8generics12GenericParamNtNtBO_5token5CommaEE3mapINtNtBO_10punctuated4PairQBK_QB1t_ENCNvXsg_B1V_INtB1V_8PairsMutBK_B1t_ENtNtNtNtB5_4iter6traits8iterator8Iterator4next0ECscj7Jssje0XT_11async_trait, symObjAddr: 0x2370, symBinAddr: 0x37900, symSize: 0x80 }
  - { offset: 0x4F89F, size: 0x8, addend: 0x0, symName: __RINvMNtCsieiGu2EXtoJ_4core6optionINtB3_6OptionQTNtNtCsdGrGZaRBwMb_3syn8generics13CapturedParamNtNtBO_5token5CommaEE3mapINtNtBO_10punctuated4PairQBK_QB1u_ENCNvXsg_B1W_INtB1W_8PairsMutBK_B1u_ENtNtNtNtB5_4iter6traits8iterator8Iterator4next0ECscj7Jssje0XT_11async_trait, symObjAddr: 0x23F0, symBinAddr: 0x37980, symSize: 0x80 }
  - { offset: 0x4F917, size: 0x8, addend: 0x0, symName: __RINvMNtCsieiGu2EXtoJ_4core6optionINtB3_6OptionQTNtNtCsdGrGZaRBwMb_3syn8generics14TypeParamBoundNtNtBO_5token4PlusEE3mapINtNtBO_10punctuated4PairQBK_QB1v_ENCNvXsg_B1W_INtB1W_8PairsMutBK_B1v_ENtNtNtNtB5_4iter6traits8iterator8Iterator4next0ECscj7Jssje0XT_11async_trait, symObjAddr: 0x2470, symBinAddr: 0x37A00, symSize: 0x80 }
  - { offset: 0x4F98F, size: 0x8, addend: 0x0, symName: __RINvMNtCsieiGu2EXtoJ_4core6optionINtB3_6OptionQTNtNtCsdGrGZaRBwMb_3syn8generics14WherePredicateNtNtBO_5token5CommaEE3mapINtNtBO_10punctuated4PairQBK_QB1v_ENCNvXsg_B1X_INtB1X_8PairsMutBK_B1v_ENtNtNtNtB5_4iter6traits8iterator8Iterator4next0ECscj7Jssje0XT_11async_trait, symObjAddr: 0x24F0, symBinAddr: 0x37A80, symSize: 0x80 }
  - { offset: 0x4FA07, size: 0x8, addend: 0x0, symName: __RINvMNtCsieiGu2EXtoJ_4core6optionINtB3_6OptionQTNtNtCsdGrGZaRBwMb_3syn8lifetime8LifetimeNtNtBO_5token4PlusEE3mapINtNtBO_10punctuated4PairQBK_QB1o_ENCNvXsg_B1P_INtB1P_8PairsMutBK_B1o_ENtNtNtNtB5_4iter6traits8iterator8Iterator4next0ECscj7Jssje0XT_11async_trait, symObjAddr: 0x2570, symBinAddr: 0x37B00, symSize: 0x80 }
  - { offset: 0x4FA7F, size: 0x8, addend: 0x0, symName: __RNvMNtCsieiGu2EXtoJ_4core6optionINtB2_6OptionINtNtCslJiobkLta79_5alloc5boxed3BoxNtNtCsdGrGZaRBwMb_3syn2ty4TypeEE6as_mutCscj7Jssje0XT_11async_trait, symObjAddr: 0x28F0, symBinAddr: 0x37E80, symSize: 0x50 }
  - { offset: 0x4FAD6, size: 0x8, addend: 0x0, symName: __RNvMNtCsieiGu2EXtoJ_4core6optionINtB2_6OptionINtNtCslJiobkLta79_5alloc5boxed3BoxNtNtCsdGrGZaRBwMb_3syn2ty9BareFnArgEE6as_mutCscj7Jssje0XT_11async_trait, symObjAddr: 0x2940, symBinAddr: 0x37ED0, symSize: 0x50 }
  - { offset: 0x4FB2D, size: 0x8, addend: 0x0, symName: __RNvMNtCsieiGu2EXtoJ_4core6optionINtB2_6OptionINtNtCslJiobkLta79_5alloc5boxed3BoxNtNtCsdGrGZaRBwMb_3syn3pat3PatEE6as_mutCscj7Jssje0XT_11async_trait, symObjAddr: 0x2990, symBinAddr: 0x37F20, symSize: 0x50 }
  - { offset: 0x4FB84, size: 0x8, addend: 0x0, symName: __RNvMNtCsieiGu2EXtoJ_4core6optionINtB2_6OptionINtNtCslJiobkLta79_5alloc5boxed3BoxNtNtCsdGrGZaRBwMb_3syn3pat8FieldPatEE6as_mutCscj7Jssje0XT_11async_trait, symObjAddr: 0x29E0, symBinAddr: 0x37F70, symSize: 0x50 }
  - { offset: 0x4FBDB, size: 0x8, addend: 0x0, symName: __RNvMNtCsieiGu2EXtoJ_4core6optionINtB2_6OptionINtNtCslJiobkLta79_5alloc5boxed3BoxNtNtCsdGrGZaRBwMb_3syn4data7VariantEE6as_mutCscj7Jssje0XT_11async_trait, symObjAddr: 0x2A30, symBinAddr: 0x37FC0, symSize: 0x50 }
  - { offset: 0x4FC32, size: 0x8, addend: 0x0, symName: __RNvMNtCsieiGu2EXtoJ_4core6optionINtB2_6OptionINtNtCslJiobkLta79_5alloc5boxed3BoxNtNtCsdGrGZaRBwMb_3syn4expr10FieldValueEE6as_mutCscj7Jssje0XT_11async_trait, symObjAddr: 0x2A80, symBinAddr: 0x38010, symSize: 0x50 }
  - { offset: 0x4FC89, size: 0x8, addend: 0x0, symName: __RNvMNtCsieiGu2EXtoJ_4core6optionINtB2_6OptionINtNtCslJiobkLta79_5alloc5boxed3BoxNtNtCsdGrGZaRBwMb_3syn4expr4ExprEE6as_mutCscj7Jssje0XT_11async_trait, symObjAddr: 0x2AD0, symBinAddr: 0x38060, symSize: 0x50 }
  - { offset: 0x4FCE0, size: 0x8, addend: 0x0, symName: __RNvMNtCsieiGu2EXtoJ_4core6optionINtB2_6OptionINtNtCslJiobkLta79_5alloc5boxed3BoxNtNtCsdGrGZaRBwMb_3syn4item5FnArgEE6as_mutCscj7Jssje0XT_11async_trait, symObjAddr: 0x2B20, symBinAddr: 0x380B0, symSize: 0x50 }
  - { offset: 0x4FD37, size: 0x8, addend: 0x0, symName: __RNvMNtCsieiGu2EXtoJ_4core6optionINtB2_6OptionINtNtCslJiobkLta79_5alloc5boxed3BoxNtNtCsdGrGZaRBwMb_3syn4item7UseTreeEE6as_mutCscj7Jssje0XT_11async_trait, symObjAddr: 0x2B70, symBinAddr: 0x38100, symSize: 0x50 }
  - { offset: 0x4FD8E, size: 0x8, addend: 0x0, symName: __RNvMNtCsieiGu2EXtoJ_4core6optionINtB2_6OptionINtNtCslJiobkLta79_5alloc5boxed3BoxNtNtCsdGrGZaRBwMb_3syn4path15GenericArgumentEE6as_mutCscj7Jssje0XT_11async_trait, symObjAddr: 0x2BC0, symBinAddr: 0x38150, symSize: 0x50 }
  - { offset: 0x4FDE5, size: 0x8, addend: 0x0, symName: __RNvMNtCsieiGu2EXtoJ_4core6optionINtB2_6OptionINtNtCslJiobkLta79_5alloc5boxed3BoxNtNtCsdGrGZaRBwMb_3syn8generics13CapturedParamEE6as_mutCscj7Jssje0XT_11async_trait, symObjAddr: 0x2C10, symBinAddr: 0x381A0, symSize: 0x50 }
  - { offset: 0x4FE3C, size: 0x8, addend: 0x0, symName: __RNvMNtCsieiGu2EXtoJ_4core6optionINtB2_6OptionINtNtCslJiobkLta79_5alloc5boxed3BoxNtNtCsdGrGZaRBwMb_3syn8generics14TypeParamBoundEE6as_mutCscj7Jssje0XT_11async_trait, symObjAddr: 0x2C60, symBinAddr: 0x381F0, symSize: 0x50 }
  - { offset: 0x4FE93, size: 0x8, addend: 0x0, symName: __RNvMNtCsieiGu2EXtoJ_4core6optionINtB2_6OptionINtNtCslJiobkLta79_5alloc5boxed3BoxNtNtCsdGrGZaRBwMb_3syn8generics14WherePredicateEE6as_mutCscj7Jssje0XT_11async_trait, symObjAddr: 0x2CB0, symBinAddr: 0x38240, symSize: 0x50 }
  - { offset: 0x4FEEA, size: 0x8, addend: 0x0, symName: __RNvMNtCsieiGu2EXtoJ_4core6optionINtB2_6OptionINtNtCslJiobkLta79_5alloc5boxed3BoxNtNtCsdGrGZaRBwMb_3syn8lifetime8LifetimeEE6as_mutCscj7Jssje0XT_11async_trait, symObjAddr: 0x2D00, symBinAddr: 0x38290, symSize: 0x50 }
  - { offset: 0x4FF41, size: 0x8, addend: 0x0, symName: __RNvMNtCsieiGu2EXtoJ_4core6optionINtB2_6OptionNtNtCsdGrGZaRBwMb_3syn4stmt5BlockE7is_someCscj7Jssje0XT_11async_trait, symObjAddr: 0x2D50, symBinAddr: 0x382E0, symSize: 0x30 }
  - { offset: 0x4FF96, size: 0x8, addend: 0x0, symName: __RNvMNtCsieiGu2EXtoJ_4core6optionINtB2_6OptionNtNtCsdGrGZaRBwMb_3syn5token2GtE7is_noneCscj7Jssje0XT_11async_trait, symObjAddr: 0x2D80, symBinAddr: 0x38310, symSize: 0x20 }
  - { offset: 0x4FFED, size: 0x8, addend: 0x0, symName: __RNvMNtCsieiGu2EXtoJ_4core6optionINtB2_6OptionNtNtCsdGrGZaRBwMb_3syn5token5AsyncE4takeCscj7Jssje0XT_11async_trait, symObjAddr: 0x2DA0, symBinAddr: 0x38330, symSize: 0x20 }
  - { offset: 0x50044, size: 0x8, addend: 0x0, symName: __RNvMNtCsieiGu2EXtoJ_4core6optionINtB2_6OptionNtNtCsdGrGZaRBwMb_3syn5token5AsyncE7is_someCscj7Jssje0XT_11async_trait, symObjAddr: 0x2DC0, symBinAddr: 0x38350, symSize: 0x20 }
  - { offset: 0x5007D, size: 0x8, addend: 0x0, symName: __RNvMNtCsieiGu2EXtoJ_4core6optionINtB2_6OptionNtNtCsdGrGZaRBwMb_3syn5token5ColonE4takeCscj7Jssje0XT_11async_trait, symObjAddr: 0x2DE0, symBinAddr: 0x38370, symSize: 0x30 }
  - { offset: 0x500F0, size: 0x8, addend: 0x0, symName: __RNvMNtCsieiGu2EXtoJ_4core6optionINtB2_6OptionTNtNtCsdGrGZaRBwMb_3syn5token3AndIBv_NtNtBM_8lifetime8LifetimeEEE7is_noneCscj7Jssje0XT_11async_trait, symObjAddr: 0x2E10, symBinAddr: 0x383A0, symSize: 0x30 }
  - { offset: 0x50154, size: 0x8, addend: 0x0, symName: __RNvMs0_NtCscj7Jssje0XT_11async_trait8receiverNtB5_11ReplaceSelf18visit_token_stream, symObjAddr: 0x2E40, symBinAddr: 0x383D0, symSize: 0x1B0 }
  - { offset: 0x501BF, size: 0x8, addend: 0x0, symName: __RNvXNtCs9OU1sGv5X54_5quote9to_tokensRINtNtCsieiGu2EXtoJ_4core6option6OptionNtNtCsdGrGZaRBwMb_3syn5token3MutENtB2_8ToTokens9to_tokensCscj7Jssje0XT_11async_trait, symObjAddr: 0x3770, symBinAddr: 0x38D00, symSize: 0x30 }
  - { offset: 0x50DDF, size: 0x8, addend: 0x0, symName: __RNCNCNvNtCscj7Jssje0XT_11async_trait6expand15transform_block00B7_, symObjAddr: 0x0, symBinAddr: 0x3E950, symSize: 0x40 }
  - { offset: 0x51759, size: 0x8, addend: 0x0, symName: __RNCNCNvNtCscj7Jssje0XT_11async_trait6expand15transform_block00B7_, symObjAddr: 0x0, symBinAddr: 0x3E950, symSize: 0x40 }
  - { offset: 0x5179A, size: 0x8, addend: 0x0, symName: __RNCNvNtCscj7Jssje0XT_11async_trait6expand15transform_block0B5_, symObjAddr: 0x170, symBinAddr: 0x3EAC0, symSize: 0x9B0 }
  - { offset: 0x51AE8, size: 0x8, addend: 0x0, symName: __RNCNvMs_NtCscj7Jssje0XT_11async_trait6expandNtB6_7Context9lifetimes0B8_, symObjAddr: 0x40, symBinAddr: 0x3E990, symSize: 0xA0 }
  - { offset: 0x51B53, size: 0x8, addend: 0x0, symName: __RNCNvNtCscj7Jssje0XT_11async_trait6expand13transform_sig0B5_, symObjAddr: 0xE0, symBinAddr: 0x3EA30, symSize: 0x90 }
  - { offset: 0x51BE7, size: 0x8, addend: 0x0, symName: __RNCNvNtCscj7Jssje0XT_11async_trait6expand23where_clause_or_default0B5_, symObjAddr: 0xB20, symBinAddr: 0x3F470, symSize: 0x60 }
  - { offset: 0x51CA7, size: 0x8, addend: 0x0, symName: __RNvNtCscj7Jssje0XT_11async_trait6expand13transform_sig, symObjAddr: 0xC10, symBinAddr: 0x3F560, symSize: 0x2780 }
  - { offset: 0x523DD, size: 0x8, addend: 0x0, symName: __RNvNtCscj7Jssje0XT_11async_trait6expand14positional_arg, symObjAddr: 0x3390, symBinAddr: 0x41CE0, symSize: 0x170 }
  - { offset: 0x5248D, size: 0x8, addend: 0x0, symName: __RNvNtCscj7Jssje0XT_11async_trait6expand15transform_block, symObjAddr: 0x3500, symBinAddr: 0x41E50, symSize: 0x1250 }
  - { offset: 0x52941, size: 0x8, addend: 0x0, symName: __RNvNtCscj7Jssje0XT_11async_trait6expand23lint_suppress_with_body, symObjAddr: 0x4750, symBinAddr: 0x430A0, symSize: 0x420 }
  - { offset: 0x529A0, size: 0x8, addend: 0x0, symName: __RNvNtCscj7Jssje0XT_11async_trait6expand23where_clause_or_default, symObjAddr: 0x4B70, symBinAddr: 0x434C0, symSize: 0x20 }
  - { offset: 0x529CE, size: 0x8, addend: 0x0, symName: __RNvNtCscj7Jssje0XT_11async_trait6expand26lint_suppress_without_body, symObjAddr: 0x4B90, symBinAddr: 0x434E0, symSize: 0x240 }
  - { offset: 0x52A2D, size: 0x8, addend: 0x0, symName: __RNvNtCscj7Jssje0XT_11async_trait6expand29replace_impl_trait_with_infer, symObjAddr: 0x4DD0, symBinAddr: 0x43720, symSize: 0x30 }
  - { offset: 0x52A57, size: 0x8, addend: 0x0, symName: __RNvNtCscj7Jssje0XT_11async_trait6expand35contains_associated_type_impl_trait, symObjAddr: 0x4E00, symBinAddr: 0x43750, symSize: 0x70 }
  - { offset: 0x52AC1, size: 0x8, addend: 0x0, symName: __RNvNtCscj7Jssje0XT_11async_trait6expand6expand, symObjAddr: 0x4E70, symBinAddr: 0x437C0, symSize: 0xC30 }
  - { offset: 0x52DE2, size: 0x8, addend: 0x0, symName: __RNvXNvNtCscj7Jssje0XT_11async_trait6expand29replace_impl_trait_with_inferNtB2_25ReplaceImplTraitWithInferNtNtNtCsdGrGZaRBwMb_3syn3gen9visit_mut8VisitMut14visit_type_mut, symObjAddr: 0x5AA0, symBinAddr: 0x443F0, symSize: 0x100 }
  - { offset: 0x52E45, size: 0x8, addend: 0x0, symName: __RNvXNvNtCscj7Jssje0XT_11async_trait6expand35contains_associated_type_impl_traitNtB2_24AssociatedTypeImplTraitsNtNtNtCsdGrGZaRBwMb_3syn3gen9visit_mut8VisitMut19visit_type_path_mut, symObjAddr: 0x5BA0, symBinAddr: 0x444F0, symSize: 0x100 }
  - { offset: 0x57C80, size: 0x8, addend: 0x0, symName: __RNvYNtNvNtCscj7Jssje0XT_11async_trait6expand29replace_impl_trait_with_infer25ReplaceImplTraitWithInferNtNtNtCsdGrGZaRBwMb_3syn3gen9visit_mut8VisitMut13visit_abi_mutB8_, symObjAddr: 0x5D30, symBinAddr: 0x44680, symSize: 0x30 }
  - { offset: 0x57CBF, size: 0x8, addend: 0x0, symName: __RNvYNtNvNtCscj7Jssje0XT_11async_trait6expand29replace_impl_trait_with_infer25ReplaceImplTraitWithInferNtNtNtCsdGrGZaRBwMb_3syn3gen9visit_mut8VisitMut13visit_arm_mutB8_, symObjAddr: 0x5D60, symBinAddr: 0x446B0, symSize: 0x30 }
  - { offset: 0x57CFE, size: 0x8, addend: 0x0, symName: __RNvYNtNvNtCscj7Jssje0XT_11async_trait6expand29replace_impl_trait_with_infer25ReplaceImplTraitWithInferNtNtNtCsdGrGZaRBwMb_3syn3gen9visit_mut8VisitMut13visit_lit_mutB8_, symObjAddr: 0x5D90, symBinAddr: 0x446E0, symSize: 0x30 }
  - { offset: 0x57D40, size: 0x8, addend: 0x0, symName: __RNvYNtNvNtCscj7Jssje0XT_11async_trait6expand29replace_impl_trait_with_infer25ReplaceImplTraitWithInferNtNtNtCsdGrGZaRBwMb_3syn3gen9visit_mut8VisitMut13visit_pat_mutB8_, symObjAddr: 0x5DC0, symBinAddr: 0x44710, symSize: 0x30 }
  - { offset: 0x57D82, size: 0x8, addend: 0x0, symName: __RNvYNtNvNtCscj7Jssje0XT_11async_trait6expand29replace_impl_trait_with_infer25ReplaceImplTraitWithInferNtNtNtCsdGrGZaRBwMb_3syn3gen9visit_mut8VisitMut14visit_expr_mutB8_, symObjAddr: 0x5DF0, symBinAddr: 0x44740, symSize: 0x30 }
  - { offset: 0x57DC1, size: 0x8, addend: 0x0, symName: __RNvYNtNvNtCscj7Jssje0XT_11async_trait6expand29replace_impl_trait_with_infer25ReplaceImplTraitWithInferNtNtNtCsdGrGZaRBwMb_3syn3gen9visit_mut8VisitMut14visit_item_mutB8_, symObjAddr: 0x5E20, symBinAddr: 0x44770, symSize: 0x30 }
  - { offset: 0x57E03, size: 0x8, addend: 0x0, symName: __RNvYNtNvNtCscj7Jssje0XT_11async_trait6expand29replace_impl_trait_with_infer25ReplaceImplTraitWithInferNtNtNtCsdGrGZaRBwMb_3syn3gen9visit_mut8VisitMut14visit_meta_mutB8_, symObjAddr: 0x5E50, symBinAddr: 0x447A0, symSize: 0x30 }
  - { offset: 0x57E45, size: 0x8, addend: 0x0, symName: __RNvYNtNvNtCscj7Jssje0XT_11async_trait6expand29replace_impl_trait_with_infer25ReplaceImplTraitWithInferNtNtNtCsdGrGZaRBwMb_3syn3gen9visit_mut8VisitMut14visit_path_mutB8_, symObjAddr: 0x5E80, symBinAddr: 0x447D0, symSize: 0x30 }
  - { offset: 0x57E87, size: 0x8, addend: 0x0, symName: __RNvYNtNvNtCscj7Jssje0XT_11async_trait6expand29replace_impl_trait_with_infer25ReplaceImplTraitWithInferNtNtNtCsdGrGZaRBwMb_3syn3gen9visit_mut8VisitMut14visit_span_mutB8_, symObjAddr: 0x5EB0, symBinAddr: 0x44800, symSize: 0x20 }
  - { offset: 0x57EC9, size: 0x8, addend: 0x0, symName: __RNvYNtNvNtCscj7Jssje0XT_11async_trait6expand29replace_impl_trait_with_infer25ReplaceImplTraitWithInferNtNtNtCsdGrGZaRBwMb_3syn3gen9visit_mut8VisitMut14visit_stmt_mutB8_, symObjAddr: 0x5ED0, symBinAddr: 0x44820, symSize: 0x30 }
  - { offset: 0x57F0B, size: 0x8, addend: 0x0, symName: __RNvYNtNvNtCscj7Jssje0XT_11async_trait6expand29replace_impl_trait_with_infer25ReplaceImplTraitWithInferNtNtNtCsdGrGZaRBwMb_3syn3gen9visit_mut8VisitMut15visit_block_mutB8_, symObjAddr: 0x5F00, symBinAddr: 0x44850, symSize: 0x30 }
  - { offset: 0x57F4A, size: 0x8, addend: 0x0, symName: __RNvYNtNvNtCscj7Jssje0XT_11async_trait6expand29replace_impl_trait_with_infer25ReplaceImplTraitWithInferNtNtNtCsdGrGZaRBwMb_3syn3gen9visit_mut8VisitMut15visit_field_mutB8_, symObjAddr: 0x5F30, symBinAddr: 0x44880, symSize: 0x30 }
  - { offset: 0x57F8C, size: 0x8, addend: 0x0, symName: __RNvYNtNvNtCscj7Jssje0XT_11async_trait6expand29replace_impl_trait_with_infer25ReplaceImplTraitWithInferNtNtNtCsdGrGZaRBwMb_3syn3gen9visit_mut8VisitMut15visit_ident_mutB8_, symObjAddr: 0x5F60, symBinAddr: 0x448B0, symSize: 0x30 }
  - { offset: 0x57FCE, size: 0x8, addend: 0x0, symName: __RNvYNtNvNtCscj7Jssje0XT_11async_trait6expand29replace_impl_trait_with_infer25ReplaceImplTraitWithInferNtNtNtCsdGrGZaRBwMb_3syn3gen9visit_mut8VisitMut15visit_index_mutB8_, symObjAddr: 0x5F90, symBinAddr: 0x448E0, symSize: 0x30 }
  - { offset: 0x58010, size: 0x8, addend: 0x0, symName: __RNvYNtNvNtCscj7Jssje0XT_11async_trait6expand29replace_impl_trait_with_infer25ReplaceImplTraitWithInferNtNtNtCsdGrGZaRBwMb_3syn3gen9visit_mut8VisitMut15visit_label_mutB8_, symObjAddr: 0x5FC0, symBinAddr: 0x44910, symSize: 0x30 }
  - { offset: 0x58052, size: 0x8, addend: 0x0, symName: __RNvYNtNvNtCscj7Jssje0XT_11async_trait6expand29replace_impl_trait_with_infer25ReplaceImplTraitWithInferNtNtNtCsdGrGZaRBwMb_3syn3gen9visit_mut8VisitMut15visit_local_mutB8_, symObjAddr: 0x5FF0, symBinAddr: 0x44940, symSize: 0x30 }
  - { offset: 0x58094, size: 0x8, addend: 0x0, symName: __RNvYNtNvNtCscj7Jssje0XT_11async_trait6expand29replace_impl_trait_with_infer25ReplaceImplTraitWithInferNtNtNtCsdGrGZaRBwMb_3syn3gen9visit_mut8VisitMut15visit_macro_mutB8_, symObjAddr: 0x6020, symBinAddr: 0x44970, symSize: 0x30 }
  - { offset: 0x580D6, size: 0x8, addend: 0x0, symName: __RNvYNtNvNtCscj7Jssje0XT_11async_trait6expand29replace_impl_trait_with_infer25ReplaceImplTraitWithInferNtNtNtCsdGrGZaRBwMb_3syn3gen9visit_mut8VisitMut15visit_qself_mutB8_, symObjAddr: 0x6050, symBinAddr: 0x449A0, symSize: 0x30 }
  - { offset: 0x58118, size: 0x8, addend: 0x0, symName: __RNvYNtNvNtCscj7Jssje0XT_11async_trait6expand29replace_impl_trait_with_infer25ReplaceImplTraitWithInferNtNtNtCsdGrGZaRBwMb_3syn3gen9visit_mut8VisitMut15visit_un_op_mutB8_, symObjAddr: 0x6080, symBinAddr: 0x449D0, symSize: 0x30 }
  - { offset: 0x5815A, size: 0x8, addend: 0x0, symName: __RNvYNtNvNtCscj7Jssje0XT_11async_trait6expand29replace_impl_trait_with_infer25ReplaceImplTraitWithInferNtNtNtCsdGrGZaRBwMb_3syn3gen9visit_mut8VisitMut16visit_bin_op_mutB8_, symObjAddr: 0x60B0, symBinAddr: 0x44A00, symSize: 0x30 }
  - { offset: 0x58199, size: 0x8, addend: 0x0, symName: __RNvYNtNvNtCscj7Jssje0XT_11async_trait6expand29replace_impl_trait_with_infer25ReplaceImplTraitWithInferNtNtNtCsdGrGZaRBwMb_3syn3gen9visit_mut8VisitMut16visit_fields_mutB8_, symObjAddr: 0x60E0, symBinAddr: 0x44A30, symSize: 0x30 }
  - { offset: 0x581DB, size: 0x8, addend: 0x0, symName: __RNvYNtNvNtCscj7Jssje0XT_11async_trait6expand29replace_impl_trait_with_infer25ReplaceImplTraitWithInferNtNtNtCsdGrGZaRBwMb_3syn3gen9visit_mut8VisitMut16visit_fn_arg_mutB8_, symObjAddr: 0x6110, symBinAddr: 0x44A60, symSize: 0x30 }
  - { offset: 0x5821D, size: 0x8, addend: 0x0, symName: __RNvYNtNvNtCscj7Jssje0XT_11async_trait6expand29replace_impl_trait_with_infer25ReplaceImplTraitWithInferNtNtNtCsdGrGZaRBwMb_3syn3gen9visit_mut8VisitMut16visit_member_mutB8_, symObjAddr: 0x6140, symBinAddr: 0x44A90, symSize: 0x30 }
  - { offset: 0x5825F, size: 0x8, addend: 0x0, symName: __RNvYNtNvNtCscj7Jssje0XT_11async_trait6expand29replace_impl_trait_with_infer25ReplaceImplTraitWithInferNtNtNtCsdGrGZaRBwMb_3syn3gen9visit_mut8VisitMut16visit_pat_or_mutB8_, symObjAddr: 0x6170, symBinAddr: 0x44AC0, symSize: 0x30 }
  - { offset: 0x582A1, size: 0x8, addend: 0x0, symName: __RNvYNtNvNtCscj7Jssje0XT_11async_trait6expand29replace_impl_trait_with_infer25ReplaceImplTraitWithInferNtNtNtCsdGrGZaRBwMb_3syn3gen9visit_mut8VisitMut17visit_expr_if_mutB8_, symObjAddr: 0x61A0, symBinAddr: 0x44AF0, symSize: 0x30 }
  - { offset: 0x582E0, size: 0x8, addend: 0x0, symName: __RNvYNtNvNtCscj7Jssje0XT_11async_trait6expand29replace_impl_trait_with_infer25ReplaceImplTraitWithInferNtNtNtCsdGrGZaRBwMb_3syn3gen9visit_mut8VisitMut17visit_item_fn_mutB8_, symObjAddr: 0x61D0, symBinAddr: 0x44B20, symSize: 0x30 }
  - { offset: 0x58322, size: 0x8, addend: 0x0, symName: __RNvYNtNvNtCscj7Jssje0XT_11async_trait6expand29replace_impl_trait_with_infer25ReplaceImplTraitWithInferNtNtNtCsdGrGZaRBwMb_3syn3gen9visit_mut8VisitMut17visit_lit_int_mutB8_, symObjAddr: 0x6200, symBinAddr: 0x44B50, symSize: 0x30 }
  - { offset: 0x58364, size: 0x8, addend: 0x0, symName: __RNvYNtNvNtCscj7Jssje0XT_11async_trait6expand29replace_impl_trait_with_infer25ReplaceImplTraitWithInferNtNtNtCsdGrGZaRBwMb_3syn3gen9visit_mut8VisitMut17visit_lit_str_mutB8_, symObjAddr: 0x6230, symBinAddr: 0x44B80, symSize: 0x30 }
  - { offset: 0x583A6, size: 0x8, addend: 0x0, symName: __RNvYNtNvNtCscj7Jssje0XT_11async_trait6expand29replace_impl_trait_with_infer25ReplaceImplTraitWithInferNtNtNtCsdGrGZaRBwMb_3syn3gen9visit_mut8VisitMut17visit_variant_mutB8_, symObjAddr: 0x6260, symBinAddr: 0x44BB0, symSize: 0x30 }
  - { offset: 0x583E8, size: 0x8, addend: 0x0, symName: __RNvYNtNvNtCscj7Jssje0XT_11async_trait6expand29replace_impl_trait_with_infer25ReplaceImplTraitWithInferNtNtNtCsdGrGZaRBwMb_3syn3gen9visit_mut8VisitMut18visit_expr_let_mutB8_, symObjAddr: 0x6290, symBinAddr: 0x44BE0, symSize: 0x30 }
  - { offset: 0x58427, size: 0x8, addend: 0x0, symName: __RNvYNtNvNtCscj7Jssje0XT_11async_trait6expand29replace_impl_trait_with_infer25ReplaceImplTraitWithInferNtNtNtCsdGrGZaRBwMb_3syn3gen9visit_mut8VisitMut18visit_expr_lit_mutB8_, symObjAddr: 0x62C0, symBinAddr: 0x44C10, symSize: 0x30 }
  - { offset: 0x58466, size: 0x8, addend: 0x0, symName: __RNvYNtNvNtCscj7Jssje0XT_11async_trait6expand29replace_impl_trait_with_infer25ReplaceImplTraitWithInferNtNtNtCsdGrGZaRBwMb_3syn3gen9visit_mut8VisitMut18visit_expr_try_mutB8_, symObjAddr: 0x62F0, symBinAddr: 0x44C40, symSize: 0x30 }
  - { offset: 0x584A8, size: 0x8, addend: 0x0, symName: __RNvYNtNvNtCscj7Jssje0XT_11async_trait6expand29replace_impl_trait_with_infer25ReplaceImplTraitWithInferNtNtNtCsdGrGZaRBwMb_3syn3gen9visit_mut8VisitMut18visit_generics_mutB8_, symObjAddr: 0x6320, symBinAddr: 0x44C70, symSize: 0x30 }
  - { offset: 0x584EA, size: 0x8, addend: 0x0, symName: __RNvYNtNvNtCscj7Jssje0XT_11async_trait6expand29replace_impl_trait_with_infer25ReplaceImplTraitWithInferNtNtNtCsdGrGZaRBwMb_3syn3gen9visit_mut8VisitMut18visit_item_mod_mutB8_, symObjAddr: 0x6350, symBinAddr: 0x44CA0, symSize: 0x30 }
  - { offset: 0x5852C, size: 0x8, addend: 0x0, symName: __RNvYNtNvNtCscj7Jssje0XT_11async_trait6expand29replace_impl_trait_with_infer25ReplaceImplTraitWithInferNtNtNtCsdGrGZaRBwMb_3syn3gen9visit_mut8VisitMut18visit_item_use_mutB8_, symObjAddr: 0x6380, symBinAddr: 0x44CD0, symSize: 0x30 }
  - { offset: 0x5856E, size: 0x8, addend: 0x0, symName: __RNvYNtNvNtCscj7Jssje0XT_11async_trait6expand29replace_impl_trait_with_infer25ReplaceImplTraitWithInferNtNtNtCsdGrGZaRBwMb_3syn3gen9visit_mut8VisitMut18visit_lifetime_mutB8_, symObjAddr: 0x63B0, symBinAddr: 0x44D00, symSize: 0x30 }
  - { offset: 0x585B0, size: 0x8, addend: 0x0, symName: __RNvYNtNvNtCscj7Jssje0XT_11async_trait6expand29replace_impl_trait_with_infer25ReplaceImplTraitWithInferNtNtNtCsdGrGZaRBwMb_3syn3gen9visit_mut8VisitMut18visit_lit_bool_mutB8_, symObjAddr: 0x63E0, symBinAddr: 0x44D30, symSize: 0x30 }
  - { offset: 0x585F2, size: 0x8, addend: 0x0, symName: __RNvYNtNvNtCscj7Jssje0XT_11async_trait6expand29replace_impl_trait_with_infer25ReplaceImplTraitWithInferNtNtNtCsdGrGZaRBwMb_3syn3gen9visit_mut8VisitMut18visit_lit_byte_mutB8_, symObjAddr: 0x6410, symBinAddr: 0x44D60, symSize: 0x30 }
  - { offset: 0x58634, size: 0x8, addend: 0x0, symName: __RNvYNtNvNtCscj7Jssje0XT_11async_trait6expand29replace_impl_trait_with_infer25ReplaceImplTraitWithInferNtNtNtCsdGrGZaRBwMb_3syn3gen9visit_mut8VisitMut18visit_lit_char_mutB8_, symObjAddr: 0x6440, symBinAddr: 0x44D90, symSize: 0x30 }
  - { offset: 0x58676, size: 0x8, addend: 0x0, symName: __RNvYNtNvNtCscj7Jssje0XT_11async_trait6expand29replace_impl_trait_with_infer25ReplaceImplTraitWithInferNtNtNtCsdGrGZaRBwMb_3syn3gen9visit_mut8VisitMut18visit_lit_cstr_mutB8_, symObjAddr: 0x6470, symBinAddr: 0x44DC0, symSize: 0x30 }
  - { offset: 0x586B8, size: 0x8, addend: 0x0, symName: __RNvYNtNvNtCscj7Jssje0XT_11async_trait6expand29replace_impl_trait_with_infer25ReplaceImplTraitWithInferNtNtNtCsdGrGZaRBwMb_3syn3gen9visit_mut8VisitMut18visit_pat_rest_mutB8_, symObjAddr: 0x64A0, symBinAddr: 0x44DF0, symSize: 0x30 }
  - { offset: 0x586FA, size: 0x8, addend: 0x0, symName: __RNvYNtNvNtCscj7Jssje0XT_11async_trait6expand29replace_impl_trait_with_infer25ReplaceImplTraitWithInferNtNtNtCsdGrGZaRBwMb_3syn3gen9visit_mut8VisitMut18visit_pat_type_mutB8_, symObjAddr: 0x64D0, symBinAddr: 0x44E20, symSize: 0x30 }
  - { offset: 0x5873C, size: 0x8, addend: 0x0, symName: __RNvYNtNvNtCscj7Jssje0XT_11async_trait6expand29replace_impl_trait_with_infer25ReplaceImplTraitWithInferNtNtNtCsdGrGZaRBwMb_3syn3gen9visit_mut8VisitMut18visit_pat_wild_mutB8_, symObjAddr: 0x6500, symBinAddr: 0x44E50, symSize: 0x30 }
  - { offset: 0x5877E, size: 0x8, addend: 0x0, symName: __RNvYNtNvNtCscj7Jssje0XT_11async_trait6expand29replace_impl_trait_with_infer25ReplaceImplTraitWithInferNtNtNtCsdGrGZaRBwMb_3syn3gen9visit_mut8VisitMut18visit_receiver_mutB8_, symObjAddr: 0x6530, symBinAddr: 0x44E80, symSize: 0x30 }
  - { offset: 0x587C0, size: 0x8, addend: 0x0, symName: __RNvYNtNvNtCscj7Jssje0XT_11async_trait6expand29replace_impl_trait_with_infer25ReplaceImplTraitWithInferNtNtNtCsdGrGZaRBwMb_3syn3gen9visit_mut8VisitMut18visit_type_ptr_mutB8_, symObjAddr: 0x6560, symBinAddr: 0x44EB0, symSize: 0x30 }
  - { offset: 0x58802, size: 0x8, addend: 0x0, symName: __RNvYNtNvNtCscj7Jssje0XT_11async_trait6expand29replace_impl_trait_with_infer25ReplaceImplTraitWithInferNtNtNtCsdGrGZaRBwMb_3syn3gen9visit_mut8VisitMut18visit_use_glob_mutB8_, symObjAddr: 0x6590, symBinAddr: 0x44EE0, symSize: 0x30 }
  - { offset: 0x58844, size: 0x8, addend: 0x0, symName: __RNvYNtNvNtCscj7Jssje0XT_11async_trait6expand29replace_impl_trait_with_infer25ReplaceImplTraitWithInferNtNtNtCsdGrGZaRBwMb_3syn3gen9visit_mut8VisitMut18visit_use_name_mutB8_, symObjAddr: 0x65C0, symBinAddr: 0x44F10, symSize: 0x30 }
  - { offset: 0x58886, size: 0x8, addend: 0x0, symName: __RNvYNtNvNtCscj7Jssje0XT_11async_trait6expand29replace_impl_trait_with_infer25ReplaceImplTraitWithInferNtNtNtCsdGrGZaRBwMb_3syn3gen9visit_mut8VisitMut18visit_use_path_mutB8_, symObjAddr: 0x65F0, symBinAddr: 0x44F40, symSize: 0x30 }
  - { offset: 0x588C8, size: 0x8, addend: 0x0, symName: __RNvYNtNvNtCscj7Jssje0XT_11async_trait6expand29replace_impl_trait_with_infer25ReplaceImplTraitWithInferNtNtNtCsdGrGZaRBwMb_3syn3gen9visit_mut8VisitMut18visit_use_tree_mutB8_, symObjAddr: 0x6620, symBinAddr: 0x44F70, symSize: 0x30 }
  - { offset: 0x5890A, size: 0x8, addend: 0x0, symName: __RNvYNtNvNtCscj7Jssje0XT_11async_trait6expand29replace_impl_trait_with_infer25ReplaceImplTraitWithInferNtNtNtCsdGrGZaRBwMb_3syn3gen9visit_mut8VisitMut18visit_variadic_mutB8_, symObjAddr: 0x6650, symBinAddr: 0x44FA0, symSize: 0x30 }
  - { offset: 0x5894C, size: 0x8, addend: 0x0, symName: __RNvYNtNvNtCscj7Jssje0XT_11async_trait6expand29replace_impl_trait_with_infer25ReplaceImplTraitWithInferNtNtNtCsdGrGZaRBwMb_3syn3gen9visit_mut8VisitMut19visit_attribute_mutB8_, symObjAddr: 0x6680, symBinAddr: 0x44FD0, symSize: 0x30 }
  - { offset: 0x5898B, size: 0x8, addend: 0x0, symName: __RNvYNtNvNtCscj7Jssje0XT_11async_trait6expand29replace_impl_trait_with_infer25ReplaceImplTraitWithInferNtNtNtCsdGrGZaRBwMb_3syn3gen9visit_mut8VisitMut19visit_expr_call_mutB8_, symObjAddr: 0x66B0, symBinAddr: 0x45000, symSize: 0x30 }
  - { offset: 0x589CA, size: 0x8, addend: 0x0, symName: __RNvYNtNvNtCscj7Jssje0XT_11async_trait6expand29replace_impl_trait_with_infer25ReplaceImplTraitWithInferNtNtNtCsdGrGZaRBwMb_3syn3gen9visit_mut8VisitMut19visit_expr_cast_mutB8_, symObjAddr: 0x66E0, symBinAddr: 0x45030, symSize: 0x30 }
  - { offset: 0x58A09, size: 0x8, addend: 0x0, symName: __RNvYNtNvNtCscj7Jssje0XT_11async_trait6expand29replace_impl_trait_with_infer25ReplaceImplTraitWithInferNtNtNtCsdGrGZaRBwMb_3syn3gen9visit_mut8VisitMut19visit_expr_loop_mutB8_, symObjAddr: 0x6710, symBinAddr: 0x45060, symSize: 0x30 }
  - { offset: 0x58A48, size: 0x8, addend: 0x0, symName: __RNvYNtNvNtCscj7Jssje0XT_11async_trait6expand29replace_impl_trait_with_infer25ReplaceImplTraitWithInferNtNtNtCsdGrGZaRBwMb_3syn3gen9visit_mut8VisitMut19visit_expr_path_mutB8_, symObjAddr: 0x6740, symBinAddr: 0x45090, symSize: 0x30 }
  - { offset: 0x58A8A, size: 0x8, addend: 0x0, symName: __RNvYNtNvNtCscj7Jssje0XT_11async_trait6expand29replace_impl_trait_with_infer25ReplaceImplTraitWithInferNtNtNtCsdGrGZaRBwMb_3syn3gen9visit_mut8VisitMut19visit_field_pat_mutB8_, symObjAddr: 0x6770, symBinAddr: 0x450C0, symSize: 0x30 }
  - { offset: 0x58ACC, size: 0x8, addend: 0x0, symName: __RNvYNtNvNtCscj7Jssje0XT_11async_trait6expand29replace_impl_trait_with_infer25ReplaceImplTraitWithInferNtNtNtCsdGrGZaRBwMb_3syn3gen9visit_mut8VisitMut19visit_impl_item_mutB8_, symObjAddr: 0x67A0, symBinAddr: 0x450F0, symSize: 0x30 }
  - { offset: 0x58B0E, size: 0x8, addend: 0x0, symName: __RNvYNtNvNtCscj7Jssje0XT_11async_trait6expand29replace_impl_trait_with_infer25ReplaceImplTraitWithInferNtNtNtCsdGrGZaRBwMb_3syn3gen9visit_mut8VisitMut19visit_item_enum_mutB8_, symObjAddr: 0x67D0, symBinAddr: 0x45120, symSize: 0x30 }
  - { offset: 0x58B50, size: 0x8, addend: 0x0, symName: __RNvYNtNvNtCscj7Jssje0XT_11async_trait6expand29replace_impl_trait_with_infer25ReplaceImplTraitWithInferNtNtNtCsdGrGZaRBwMb_3syn3gen9visit_mut8VisitMut19visit_item_impl_mutB8_, symObjAddr: 0x6800, symBinAddr: 0x45150, symSize: 0x30 }
  - { offset: 0x58B92, size: 0x8, addend: 0x0, symName: __RNvYNtNvNtCscj7Jssje0XT_11async_trait6expand29replace_impl_trait_with_infer25ReplaceImplTraitWithInferNtNtNtCsdGrGZaRBwMb_3syn3gen9visit_mut8VisitMut19visit_item_type_mutB8_, symObjAddr: 0x6830, symBinAddr: 0x45180, symSize: 0x30 }
  - { offset: 0x58BD4, size: 0x8, addend: 0x0, symName: __RNvYNtNvNtCscj7Jssje0XT_11async_trait6expand29replace_impl_trait_with_infer25ReplaceImplTraitWithInferNtNtNtCsdGrGZaRBwMb_3syn3gen9visit_mut8VisitMut19visit_lit_float_mutB8_, symObjAddr: 0x6860, symBinAddr: 0x451B0, symSize: 0x30 }
  - { offset: 0x58C16, size: 0x8, addend: 0x0, symName: __RNvYNtNvNtCscj7Jssje0XT_11async_trait6expand29replace_impl_trait_with_infer25ReplaceImplTraitWithInferNtNtNtCsdGrGZaRBwMb_3syn3gen9visit_mut8VisitMut19visit_meta_list_mutB8_, symObjAddr: 0x6890, symBinAddr: 0x451E0, symSize: 0x30 }
  - { offset: 0x58C58, size: 0x8, addend: 0x0, symName: __RNvYNtNvNtCscj7Jssje0XT_11async_trait6expand29replace_impl_trait_with_infer25ReplaceImplTraitWithInferNtNtNtCsdGrGZaRBwMb_3syn3gen9visit_mut8VisitMut19visit_pat_ident_mutB8_, symObjAddr: 0x68C0, symBinAddr: 0x45210, symSize: 0x30 }
  - { offset: 0x58C9A, size: 0x8, addend: 0x0, symName: __RNvYNtNvNtCscj7Jssje0XT_11async_trait6expand29replace_impl_trait_with_infer25ReplaceImplTraitWithInferNtNtNtCsdGrGZaRBwMb_3syn3gen9visit_mut8VisitMut19visit_pat_paren_mutB8_, symObjAddr: 0x68F0, symBinAddr: 0x45240, symSize: 0x30 }
  - { offset: 0x58CDC, size: 0x8, addend: 0x0, symName: __RNvYNtNvNtCscj7Jssje0XT_11async_trait6expand29replace_impl_trait_with_infer25ReplaceImplTraitWithInferNtNtNtCsdGrGZaRBwMb_3syn3gen9visit_mut8VisitMut19visit_pat_slice_mutB8_, symObjAddr: 0x6920, symBinAddr: 0x45270, symSize: 0x30 }
  - { offset: 0x58D1E, size: 0x8, addend: 0x0, symName: __RNvYNtNvNtCscj7Jssje0XT_11async_trait6expand29replace_impl_trait_with_infer25ReplaceImplTraitWithInferNtNtNtCsdGrGZaRBwMb_3syn3gen9visit_mut8VisitMut19visit_pat_tuple_mutB8_, symObjAddr: 0x6950, symBinAddr: 0x452A0, symSize: 0x30 }
  - { offset: 0x58D60, size: 0x8, addend: 0x0, symName: __RNvYNtNvNtCscj7Jssje0XT_11async_trait6expand29replace_impl_trait_with_infer25ReplaceImplTraitWithInferNtNtNtCsdGrGZaRBwMb_3syn3gen9visit_mut8VisitMut19visit_signature_mutB8_, symObjAddr: 0x6980, symBinAddr: 0x452D0, symSize: 0x30 }
  - { offset: 0x58DA2, size: 0x8, addend: 0x0, symName: __RNvYNtNvNtCscj7Jssje0XT_11async_trait6expand29replace_impl_trait_with_infer25ReplaceImplTraitWithInferNtNtNtCsdGrGZaRBwMb_3syn3gen9visit_mut8VisitMut19visit_type_path_mutB8_, symObjAddr: 0x69B0, symBinAddr: 0x45300, symSize: 0x30 }
  - { offset: 0x58DE4, size: 0x8, addend: 0x0, symName: __RNvYNtNvNtCscj7Jssje0XT_11async_trait6expand29replace_impl_trait_with_infer25ReplaceImplTraitWithInferNtNtNtCsdGrGZaRBwMb_3syn3gen9visit_mut8VisitMut19visit_use_group_mutB8_, symObjAddr: 0x69E0, symBinAddr: 0x45330, symSize: 0x30 }
  - { offset: 0x58E26, size: 0x8, addend: 0x0, symName: __RNvYNtNvNtCscj7Jssje0XT_11async_trait6expand29replace_impl_trait_with_infer25ReplaceImplTraitWithInferNtNtNtCsdGrGZaRBwMb_3syn3gen9visit_mut8VisitMut20visit_assoc_type_mutB8_, symObjAddr: 0x6A10, symBinAddr: 0x45360, symSize: 0x30 }
  - { offset: 0x58E65, size: 0x8, addend: 0x0, symName: __RNvYNtNvNtCscj7Jssje0XT_11async_trait6expand29replace_impl_trait_with_infer25ReplaceImplTraitWithInferNtNtNtCsdGrGZaRBwMb_3syn3gen9visit_mut8VisitMut20visit_attr_style_mutB8_, symObjAddr: 0x6A40, symBinAddr: 0x45390, symSize: 0x30 }
  - { offset: 0x58EA4, size: 0x8, addend: 0x0, symName: __RNvYNtNvNtCscj7Jssje0XT_11async_trait6expand29replace_impl_trait_with_infer25ReplaceImplTraitWithInferNtNtNtCsdGrGZaRBwMb_3syn3gen9visit_mut8VisitMut20visit_attributes_mutB8_, symObjAddr: 0x6A70, symBinAddr: 0x453C0, symSize: 0x80 }
  - { offset: 0x58F1D, size: 0x8, addend: 0x0, symName: __RNvYNtNvNtCscj7Jssje0XT_11async_trait6expand29replace_impl_trait_with_infer25ReplaceImplTraitWithInferNtNtNtCsdGrGZaRBwMb_3syn3gen9visit_mut8VisitMut20visit_constraint_mutB8_, symObjAddr: 0x6AF0, symBinAddr: 0x45440, symSize: 0x30 }
  - { offset: 0x58F5C, size: 0x8, addend: 0x0, symName: __RNvYNtNvNtCscj7Jssje0XT_11async_trait6expand29replace_impl_trait_with_infer25ReplaceImplTraitWithInferNtNtNtCsdGrGZaRBwMb_3syn3gen9visit_mut8VisitMut20visit_expr_array_mutB8_, symObjAddr: 0x6B20, symBinAddr: 0x45470, symSize: 0x30 }
  - { offset: 0x58F9B, size: 0x8, addend: 0x0, symName: __RNvYNtNvNtCscj7Jssje0XT_11async_trait6expand29replace_impl_trait_with_infer25ReplaceImplTraitWithInferNtNtNtCsdGrGZaRBwMb_3syn3gen9visit_mut8VisitMut20visit_expr_async_mutB8_, symObjAddr: 0x6B50, symBinAddr: 0x454A0, symSize: 0x30 }
  - { offset: 0x58FDA, size: 0x8, addend: 0x0, symName: __RNvYNtNvNtCscj7Jssje0XT_11async_trait6expand29replace_impl_trait_with_infer25ReplaceImplTraitWithInferNtNtNtCsdGrGZaRBwMb_3syn3gen9visit_mut8VisitMut20visit_expr_await_mutB8_, symObjAddr: 0x6B80, symBinAddr: 0x454D0, symSize: 0x30 }
  - { offset: 0x59019, size: 0x8, addend: 0x0, symName: __RNvYNtNvNtCscj7Jssje0XT_11async_trait6expand29replace_impl_trait_with_infer25ReplaceImplTraitWithInferNtNtNtCsdGrGZaRBwMb_3syn3gen9visit_mut8VisitMut20visit_expr_block_mutB8_, symObjAddr: 0x6BB0, symBinAddr: 0x45500, symSize: 0x30 }
  - { offset: 0x59058, size: 0x8, addend: 0x0, symName: __RNvYNtNvNtCscj7Jssje0XT_11async_trait6expand29replace_impl_trait_with_infer25ReplaceImplTraitWithInferNtNtNtCsdGrGZaRBwMb_3syn3gen9visit_mut8VisitMut20visit_expr_break_mutB8_, symObjAddr: 0x6BE0, symBinAddr: 0x45530, symSize: 0x30 }
  - { offset: 0x59097, size: 0x8, addend: 0x0, symName: __RNvYNtNvNtCscj7Jssje0XT_11async_trait6expand29replace_impl_trait_with_infer25ReplaceImplTraitWithInferNtNtNtCsdGrGZaRBwMb_3syn3gen9visit_mut8VisitMut20visit_expr_const_mutB8_, symObjAddr: 0x6C10, symBinAddr: 0x45560, symSize: 0x30 }
  - { offset: 0x590D6, size: 0x8, addend: 0x0, symName: __RNvYNtNvNtCscj7Jssje0XT_11async_trait6expand29replace_impl_trait_with_infer25ReplaceImplTraitWithInferNtNtNtCsdGrGZaRBwMb_3syn3gen9visit_mut8VisitMut20visit_expr_field_mutB8_, symObjAddr: 0x6C40, symBinAddr: 0x45590, symSize: 0x30 }
  - { offset: 0x59115, size: 0x8, addend: 0x0, symName: __RNvYNtNvNtCscj7Jssje0XT_11async_trait6expand29replace_impl_trait_with_infer25ReplaceImplTraitWithInferNtNtNtCsdGrGZaRBwMb_3syn3gen9visit_mut8VisitMut20visit_expr_group_mutB8_, symObjAddr: 0x6C70, symBinAddr: 0x455C0, symSize: 0x30 }
  - { offset: 0x59154, size: 0x8, addend: 0x0, symName: __RNvYNtNvNtCscj7Jssje0XT_11async_trait6expand29replace_impl_trait_with_infer25ReplaceImplTraitWithInferNtNtNtCsdGrGZaRBwMb_3syn3gen9visit_mut8VisitMut20visit_expr_index_mutB8_, symObjAddr: 0x6CA0, symBinAddr: 0x455F0, symSize: 0x30 }
  - { offset: 0x59193, size: 0x8, addend: 0x0, symName: __RNvYNtNvNtCscj7Jssje0XT_11async_trait6expand29replace_impl_trait_with_infer25ReplaceImplTraitWithInferNtNtNtCsdGrGZaRBwMb_3syn3gen9visit_mut8VisitMut20visit_expr_infer_mutB8_, symObjAddr: 0x6CD0, symBinAddr: 0x45620, symSize: 0x30 }
  - { offset: 0x591D2, size: 0x8, addend: 0x0, symName: __RNvYNtNvNtCscj7Jssje0XT_11async_trait6expand29replace_impl_trait_with_infer25ReplaceImplTraitWithInferNtNtNtCsdGrGZaRBwMb_3syn3gen9visit_mut8VisitMut20visit_expr_macro_mutB8_, symObjAddr: 0x6D00, symBinAddr: 0x45650, symSize: 0x30 }
  - { offset: 0x59211, size: 0x8, addend: 0x0, symName: __RNvYNtNvNtCscj7Jssje0XT_11async_trait6expand29replace_impl_trait_with_infer25ReplaceImplTraitWithInferNtNtNtCsdGrGZaRBwMb_3syn3gen9visit_mut8VisitMut20visit_expr_match_mutB8_, symObjAddr: 0x6D30, symBinAddr: 0x45680, symSize: 0x30 }
  - { offset: 0x59253, size: 0x8, addend: 0x0, symName: __RNvYNtNvNtCscj7Jssje0XT_11async_trait6expand29replace_impl_trait_with_infer25ReplaceImplTraitWithInferNtNtNtCsdGrGZaRBwMb_3syn3gen9visit_mut8VisitMut20visit_expr_paren_mutB8_, symObjAddr: 0x6D60, symBinAddr: 0x456B0, symSize: 0x30 }
  - { offset: 0x59295, size: 0x8, addend: 0x0, symName: __RNvYNtNvNtCscj7Jssje0XT_11async_trait6expand29replace_impl_trait_with_infer25ReplaceImplTraitWithInferNtNtNtCsdGrGZaRBwMb_3syn3gen9visit_mut8VisitMut20visit_expr_range_mutB8_, symObjAddr: 0x6D90, symBinAddr: 0x456E0, symSize: 0x30 }
  - { offset: 0x592D7, size: 0x8, addend: 0x0, symName: __RNvYNtNvNtCscj7Jssje0XT_11async_trait6expand29replace_impl_trait_with_infer25ReplaceImplTraitWithInferNtNtNtCsdGrGZaRBwMb_3syn3gen9visit_mut8VisitMut20visit_expr_tuple_mutB8_, symObjAddr: 0x6DC0, symBinAddr: 0x45710, symSize: 0x30 }
  - { offset: 0x59319, size: 0x8, addend: 0x0, symName: __RNvYNtNvNtCscj7Jssje0XT_11async_trait6expand29replace_impl_trait_with_infer25ReplaceImplTraitWithInferNtNtNtCsdGrGZaRBwMb_3syn3gen9visit_mut8VisitMut20visit_expr_unary_mutB8_, symObjAddr: 0x6DF0, symBinAddr: 0x45740, symSize: 0x30 }
  - { offset: 0x5935B, size: 0x8, addend: 0x0, symName: __RNvYNtNvNtCscj7Jssje0XT_11async_trait6expand29replace_impl_trait_with_infer25ReplaceImplTraitWithInferNtNtNtCsdGrGZaRBwMb_3syn3gen9visit_mut8VisitMut20visit_expr_while_mutB8_, symObjAddr: 0x6E20, symBinAddr: 0x45770, symSize: 0x30 }
  - { offset: 0x5939D, size: 0x8, addend: 0x0, symName: __RNvYNtNvNtCscj7Jssje0XT_11async_trait6expand29replace_impl_trait_with_infer25ReplaceImplTraitWithInferNtNtNtCsdGrGZaRBwMb_3syn3gen9visit_mut8VisitMut20visit_expr_yield_mutB8_, symObjAddr: 0x6E50, symBinAddr: 0x457A0, symSize: 0x30 }
  - { offset: 0x593DF, size: 0x8, addend: 0x0, symName: __RNvYNtNvNtCscj7Jssje0XT_11async_trait6expand29replace_impl_trait_with_infer25ReplaceImplTraitWithInferNtNtNtCsdGrGZaRBwMb_3syn3gen9visit_mut8VisitMut20visit_item_const_mutB8_, symObjAddr: 0x6E80, symBinAddr: 0x457D0, symSize: 0x30 }
  - { offset: 0x59421, size: 0x8, addend: 0x0, symName: __RNvYNtNvNtCscj7Jssje0XT_11async_trait6expand29replace_impl_trait_with_infer25ReplaceImplTraitWithInferNtNtNtCsdGrGZaRBwMb_3syn3gen9visit_mut8VisitMut20visit_item_macro_mutB8_, symObjAddr: 0x6EB0, symBinAddr: 0x45800, symSize: 0x30 }
  - { offset: 0x59463, size: 0x8, addend: 0x0, symName: __RNvYNtNvNtCscj7Jssje0XT_11async_trait6expand29replace_impl_trait_with_infer25ReplaceImplTraitWithInferNtNtNtCsdGrGZaRBwMb_3syn3gen9visit_mut8VisitMut20visit_item_trait_mutB8_, symObjAddr: 0x6EE0, symBinAddr: 0x45830, symSize: 0x30 }
  - { offset: 0x594A5, size: 0x8, addend: 0x0, symName: __RNvYNtNvNtCscj7Jssje0XT_11async_trait6expand29replace_impl_trait_with_infer25ReplaceImplTraitWithInferNtNtNtCsdGrGZaRBwMb_3syn3gen9visit_mut8VisitMut20visit_item_union_mutB8_, symObjAddr: 0x6F10, symBinAddr: 0x45860, symSize: 0x30 }
  - { offset: 0x594E7, size: 0x8, addend: 0x0, symName: __RNvYNtNvNtCscj7Jssje0XT_11async_trait6expand29replace_impl_trait_with_infer25ReplaceImplTraitWithInferNtNtNtCsdGrGZaRBwMb_3syn3gen9visit_mut8VisitMut20visit_local_init_mutB8_, symObjAddr: 0x6F40, symBinAddr: 0x45890, symSize: 0x30 }
  - { offset: 0x59529, size: 0x8, addend: 0x0, symName: __RNvYNtNvNtCscj7Jssje0XT_11async_trait6expand29replace_impl_trait_with_infer25ReplaceImplTraitWithInferNtNtNtCsdGrGZaRBwMb_3syn3gen9visit_mut8VisitMut20visit_pat_struct_mutB8_, symObjAddr: 0x6F70, symBinAddr: 0x458C0, symSize: 0x30 }
  - { offset: 0x5956B, size: 0x8, addend: 0x0, symName: __RNvYNtNvNtCscj7Jssje0XT_11async_trait6expand29replace_impl_trait_with_infer25ReplaceImplTraitWithInferNtNtNtCsdGrGZaRBwMb_3syn3gen9visit_mut8VisitMut20visit_stmt_macro_mutB8_, symObjAddr: 0x6FA0, symBinAddr: 0x458F0, symSize: 0x30 }
  - { offset: 0x595AD, size: 0x8, addend: 0x0, symName: __RNvYNtNvNtCscj7Jssje0XT_11async_trait6expand29replace_impl_trait_with_infer25ReplaceImplTraitWithInferNtNtNtCsdGrGZaRBwMb_3syn3gen9visit_mut8VisitMut20visit_trait_item_mutB8_, symObjAddr: 0x6FD0, symBinAddr: 0x45920, symSize: 0x30 }
  - { offset: 0x595EF, size: 0x8, addend: 0x0, symName: __RNvYNtNvNtCscj7Jssje0XT_11async_trait6expand29replace_impl_trait_with_infer25ReplaceImplTraitWithInferNtNtNtCsdGrGZaRBwMb_3syn3gen9visit_mut8VisitMut20visit_type_array_mutB8_, symObjAddr: 0x7000, symBinAddr: 0x45950, symSize: 0x30 }
  - { offset: 0x59631, size: 0x8, addend: 0x0, symName: __RNvYNtNvNtCscj7Jssje0XT_11async_trait6expand29replace_impl_trait_with_infer25ReplaceImplTraitWithInferNtNtNtCsdGrGZaRBwMb_3syn3gen9visit_mut8VisitMut20visit_type_group_mutB8_, symObjAddr: 0x7030, symBinAddr: 0x45980, symSize: 0x30 }
  - { offset: 0x59673, size: 0x8, addend: 0x0, symName: __RNvYNtNvNtCscj7Jssje0XT_11async_trait6expand29replace_impl_trait_with_infer25ReplaceImplTraitWithInferNtNtNtCsdGrGZaRBwMb_3syn3gen9visit_mut8VisitMut20visit_type_infer_mutB8_, symObjAddr: 0x7060, symBinAddr: 0x459B0, symSize: 0x30 }
  - { offset: 0x596B5, size: 0x8, addend: 0x0, symName: __RNvYNtNvNtCscj7Jssje0XT_11async_trait6expand29replace_impl_trait_with_infer25ReplaceImplTraitWithInferNtNtNtCsdGrGZaRBwMb_3syn3gen9visit_mut8VisitMut20visit_type_macro_mutB8_, symObjAddr: 0x7090, symBinAddr: 0x459E0, symSize: 0x30 }
  - { offset: 0x596F7, size: 0x8, addend: 0x0, symName: __RNvYNtNvNtCscj7Jssje0XT_11async_trait6expand29replace_impl_trait_with_infer25ReplaceImplTraitWithInferNtNtNtCsdGrGZaRBwMb_3syn3gen9visit_mut8VisitMut20visit_type_never_mutB8_, symObjAddr: 0x70C0, symBinAddr: 0x45A10, symSize: 0x30 }
  - { offset: 0x59739, size: 0x8, addend: 0x0, symName: __RNvYNtNvNtCscj7Jssje0XT_11async_trait6expand29replace_impl_trait_with_infer25ReplaceImplTraitWithInferNtNtNtCsdGrGZaRBwMb_3syn3gen9visit_mut8VisitMut20visit_type_param_mutB8_, symObjAddr: 0x70F0, symBinAddr: 0x45A40, symSize: 0x30 }
  - { offset: 0x5977B, size: 0x8, addend: 0x0, symName: __RNvYNtNvNtCscj7Jssje0XT_11async_trait6expand29replace_impl_trait_with_infer25ReplaceImplTraitWithInferNtNtNtCsdGrGZaRBwMb_3syn3gen9visit_mut8VisitMut20visit_type_paren_mutB8_, symObjAddr: 0x7120, symBinAddr: 0x45A70, symSize: 0x30 }
  - { offset: 0x597BD, size: 0x8, addend: 0x0, symName: __RNvYNtNvNtCscj7Jssje0XT_11async_trait6expand29replace_impl_trait_with_infer25ReplaceImplTraitWithInferNtNtNtCsdGrGZaRBwMb_3syn3gen9visit_mut8VisitMut20visit_type_slice_mutB8_, symObjAddr: 0x7150, symBinAddr: 0x45AA0, symSize: 0x30 }
  - { offset: 0x597FF, size: 0x8, addend: 0x0, symName: __RNvYNtNvNtCscj7Jssje0XT_11async_trait6expand29replace_impl_trait_with_infer25ReplaceImplTraitWithInferNtNtNtCsdGrGZaRBwMb_3syn3gen9visit_mut8VisitMut20visit_type_tuple_mutB8_, symObjAddr: 0x7180, symBinAddr: 0x45AD0, symSize: 0x30 }
  - { offset: 0x59841, size: 0x8, addend: 0x0, symName: __RNvYNtNvNtCscj7Jssje0XT_11async_trait6expand29replace_impl_trait_with_infer25ReplaceImplTraitWithInferNtNtNtCsdGrGZaRBwMb_3syn3gen9visit_mut8VisitMut20visit_use_rename_mutB8_, symObjAddr: 0x71B0, symBinAddr: 0x45B00, symSize: 0x30 }
  - { offset: 0x59883, size: 0x8, addend: 0x0, symName: __RNvYNtNvNtCscj7Jssje0XT_11async_trait6expand29replace_impl_trait_with_infer25ReplaceImplTraitWithInferNtNtNtCsdGrGZaRBwMb_3syn3gen9visit_mut8VisitMut20visit_visibility_mutB8_, symObjAddr: 0x71E0, symBinAddr: 0x45B30, symSize: 0x30 }
  - { offset: 0x598C5, size: 0x8, addend: 0x0, symName: __RNvYNtNvNtCscj7Jssje0XT_11async_trait6expand29replace_impl_trait_with_infer25ReplaceImplTraitWithInferNtNtNtCsdGrGZaRBwMb_3syn3gen9visit_mut8VisitMut21visit_assoc_const_mutB8_, symObjAddr: 0x7210, symBinAddr: 0x45B60, symSize: 0x30 }
  - { offset: 0x59904, size: 0x8, addend: 0x0, symName: __RNvYNtNvNtCscj7Jssje0XT_11async_trait6expand29replace_impl_trait_with_infer25ReplaceImplTraitWithInferNtNtNtCsdGrGZaRBwMb_3syn3gen9visit_mut8VisitMut21visit_bare_fn_arg_mutB8_, symObjAddr: 0x7240, symBinAddr: 0x45B90, symSize: 0x30 }
  - { offset: 0x59943, size: 0x8, addend: 0x0, symName: __RNvYNtNvNtCscj7Jssje0XT_11async_trait6expand29replace_impl_trait_with_infer25ReplaceImplTraitWithInferNtNtNtCsdGrGZaRBwMb_3syn3gen9visit_mut8VisitMut21visit_const_param_mutB8_, symObjAddr: 0x7270, symBinAddr: 0x45BC0, symSize: 0x30 }
  - { offset: 0x59982, size: 0x8, addend: 0x0, symName: __RNvYNtNvNtCscj7Jssje0XT_11async_trait6expand29replace_impl_trait_with_infer25ReplaceImplTraitWithInferNtNtNtCsdGrGZaRBwMb_3syn3gen9visit_mut8VisitMut21visit_expr_assign_mutB8_, symObjAddr: 0x72A0, symBinAddr: 0x45BF0, symSize: 0x30 }
  - { offset: 0x599C1, size: 0x8, addend: 0x0, symName: __RNvYNtNvNtCscj7Jssje0XT_11async_trait6expand29replace_impl_trait_with_infer25ReplaceImplTraitWithInferNtNtNtCsdGrGZaRBwMb_3syn3gen9visit_mut8VisitMut21visit_expr_binary_mutB8_, symObjAddr: 0x72D0, symBinAddr: 0x45C20, symSize: 0x30 }
  - { offset: 0x59A00, size: 0x8, addend: 0x0, symName: __RNvYNtNvNtCscj7Jssje0XT_11async_trait6expand29replace_impl_trait_with_infer25ReplaceImplTraitWithInferNtNtNtCsdGrGZaRBwMb_3syn3gen9visit_mut8VisitMut21visit_expr_repeat_mutB8_, symObjAddr: 0x7300, symBinAddr: 0x45C50, symSize: 0x30 }
  - { offset: 0x59A42, size: 0x8, addend: 0x0, symName: __RNvYNtNvNtCscj7Jssje0XT_11async_trait6expand29replace_impl_trait_with_infer25ReplaceImplTraitWithInferNtNtNtCsdGrGZaRBwMb_3syn3gen9visit_mut8VisitMut21visit_expr_return_mutB8_, symObjAddr: 0x7330, symBinAddr: 0x45C80, symSize: 0x30 }
  - { offset: 0x59A84, size: 0x8, addend: 0x0, symName: __RNvYNtNvNtCscj7Jssje0XT_11async_trait6expand29replace_impl_trait_with_infer25ReplaceImplTraitWithInferNtNtNtCsdGrGZaRBwMb_3syn3gen9visit_mut8VisitMut21visit_expr_struct_mutB8_, symObjAddr: 0x7360, symBinAddr: 0x45CB0, symSize: 0x30 }
  - { offset: 0x59AC6, size: 0x8, addend: 0x0, symName: __RNvYNtNvNtCscj7Jssje0XT_11async_trait6expand29replace_impl_trait_with_infer25ReplaceImplTraitWithInferNtNtNtCsdGrGZaRBwMb_3syn3gen9visit_mut8VisitMut21visit_expr_unsafe_mutB8_, symObjAddr: 0x7390, symBinAddr: 0x45CE0, symSize: 0x30 }
  - { offset: 0x59B08, size: 0x8, addend: 0x0, symName: __RNvYNtNvNtCscj7Jssje0XT_11async_trait6expand29replace_impl_trait_with_infer25ReplaceImplTraitWithInferNtNtNtCsdGrGZaRBwMb_3syn3gen9visit_mut8VisitMut21visit_field_value_mutB8_, symObjAddr: 0x73C0, symBinAddr: 0x45D10, symSize: 0x30 }
  - { offset: 0x59B4A, size: 0x8, addend: 0x0, symName: __RNvYNtNvNtCscj7Jssje0XT_11async_trait6expand29replace_impl_trait_with_infer25ReplaceImplTraitWithInferNtNtNtCsdGrGZaRBwMb_3syn3gen9visit_mut8VisitMut21visit_item_static_mutB8_, symObjAddr: 0x73F0, symBinAddr: 0x45D40, symSize: 0x30 }
  - { offset: 0x59B8C, size: 0x8, addend: 0x0, symName: __RNvYNtNvNtCscj7Jssje0XT_11async_trait6expand29replace_impl_trait_with_infer25ReplaceImplTraitWithInferNtNtNtCsdGrGZaRBwMb_3syn3gen9visit_mut8VisitMut21visit_item_struct_mutB8_, symObjAddr: 0x7420, symBinAddr: 0x45D70, symSize: 0x30 }
  - { offset: 0x59BCE, size: 0x8, addend: 0x0, symName: __RNvYNtNvNtCscj7Jssje0XT_11async_trait6expand29replace_impl_trait_with_infer25ReplaceImplTraitWithInferNtNtNtCsdGrGZaRBwMb_3syn3gen9visit_mut8VisitMut21visit_return_type_mutB8_, symObjAddr: 0x7450, symBinAddr: 0x45DA0, symSize: 0x30 }
  - { offset: 0x59C10, size: 0x8, addend: 0x0, symName: __RNvYNtNvNtCscj7Jssje0XT_11async_trait6expand29replace_impl_trait_with_infer25ReplaceImplTraitWithInferNtNtNtCsdGrGZaRBwMb_3syn3gen9visit_mut8VisitMut21visit_trait_bound_mutB8_, symObjAddr: 0x7480, symBinAddr: 0x45DD0, symSize: 0x30 }
  - { offset: 0x59C52, size: 0x8, addend: 0x0, symName: __RNvYNtNvNtCscj7Jssje0XT_11async_trait6expand29replace_impl_trait_with_infer25ReplaceImplTraitWithInferNtNtNtCsdGrGZaRBwMb_3syn3gen9visit_mut8VisitMut22visit_expr_closure_mutB8_, symObjAddr: 0x74B0, symBinAddr: 0x45E00, symSize: 0x30 }
  - { offset: 0x59C91, size: 0x8, addend: 0x0, symName: __RNvYNtNvNtCscj7Jssje0XT_11async_trait6expand29replace_impl_trait_with_infer25ReplaceImplTraitWithInferNtNtNtCsdGrGZaRBwMb_3syn3gen9visit_mut8VisitMut22visit_fields_named_mutB8_, symObjAddr: 0x74E0, symBinAddr: 0x45E30, symSize: 0x30 }
  - { offset: 0x59CD3, size: 0x8, addend: 0x0, symName: __RNvYNtNvNtCscj7Jssje0XT_11async_trait6expand29replace_impl_trait_with_infer25ReplaceImplTraitWithInferNtNtNtCsdGrGZaRBwMb_3syn3gen9visit_mut8VisitMut22visit_foreign_item_mutB8_, symObjAddr: 0x7510, symBinAddr: 0x45E60, symSize: 0x30 }
  - { offset: 0x59D15, size: 0x8, addend: 0x0, symName: __RNvYNtNvNtCscj7Jssje0XT_11async_trait6expand29replace_impl_trait_with_infer25ReplaceImplTraitWithInferNtNtNtCsdGrGZaRBwMb_3syn3gen9visit_mut8VisitMut22visit_impl_item_fn_mutB8_, symObjAddr: 0x7540, symBinAddr: 0x45E90, symSize: 0x30 }
  - { offset: 0x59D57, size: 0x8, addend: 0x0, symName: __RNvYNtNvNtCscj7Jssje0XT_11async_trait6expand29replace_impl_trait_with_infer25ReplaceImplTraitWithInferNtNtNtCsdGrGZaRBwMb_3syn3gen9visit_mut8VisitMut22visit_lit_byte_str_mutB8_, symObjAddr: 0x7570, symBinAddr: 0x45EC0, symSize: 0x30 }
  - { offset: 0x59D99, size: 0x8, addend: 0x0, symName: __RNvYNtNvNtCscj7Jssje0XT_11async_trait6expand29replace_impl_trait_with_infer25ReplaceImplTraitWithInferNtNtNtCsdGrGZaRBwMb_3syn3gen9visit_mut8VisitMut22visit_path_segment_mutB8_, symObjAddr: 0x75A0, symBinAddr: 0x45EF0, symSize: 0x30 }
  - { offset: 0x59DDB, size: 0x8, addend: 0x0, symName: __RNvYNtNvNtCscj7Jssje0XT_11async_trait6expand29replace_impl_trait_with_infer25ReplaceImplTraitWithInferNtNtNtCsdGrGZaRBwMb_3syn3gen9visit_mut8VisitMut22visit_range_limits_mutB8_, symObjAddr: 0x75D0, symBinAddr: 0x45F20, symSize: 0x30 }
  - { offset: 0x59E1D, size: 0x8, addend: 0x0, symName: __RNvYNtNvNtCscj7Jssje0XT_11async_trait6expand29replace_impl_trait_with_infer25ReplaceImplTraitWithInferNtNtNtCsdGrGZaRBwMb_3syn3gen9visit_mut8VisitMut22visit_token_stream_mutB8_, symObjAddr: 0x7600, symBinAddr: 0x45F50, symSize: 0x20 }
  - { offset: 0x59E5F, size: 0x8, addend: 0x0, symName: __RNvYNtNvNtCscj7Jssje0XT_11async_trait6expand29replace_impl_trait_with_infer25ReplaceImplTraitWithInferNtNtNtCsdGrGZaRBwMb_3syn3gen9visit_mut8VisitMut22visit_type_bare_fn_mutB8_, symObjAddr: 0x7620, symBinAddr: 0x45F70, symSize: 0x30 }
  - { offset: 0x59EA1, size: 0x8, addend: 0x0, symName: __RNvYNtNvNtCscj7Jssje0XT_11async_trait6expand29replace_impl_trait_with_infer25ReplaceImplTraitWithInferNtNtNtCsdGrGZaRBwMb_3syn3gen9visit_mut8VisitMut22visit_where_clause_mutB8_, symObjAddr: 0x7650, symBinAddr: 0x45FA0, symSize: 0x30 }
  - { offset: 0x59EE3, size: 0x8, addend: 0x0, symName: __RNvYNtNvNtCscj7Jssje0XT_11async_trait6expand29replace_impl_trait_with_infer25ReplaceImplTraitWithInferNtNtNtCsdGrGZaRBwMb_3syn3gen9visit_mut8VisitMut23visit_bare_variadic_mutB8_, symObjAddr: 0x7680, symBinAddr: 0x45FD0, symSize: 0x30 }
  - { offset: 0x59F22, size: 0x8, addend: 0x0, symName: __RNvYNtNvNtCscj7Jssje0XT_11async_trait6expand29replace_impl_trait_with_infer25ReplaceImplTraitWithInferNtNtNtCsdGrGZaRBwMb_3syn3gen9visit_mut8VisitMut23visit_expr_continue_mutB8_, symObjAddr: 0x76B0, symBinAddr: 0x46000, symSize: 0x30 }
  - { offset: 0x59F61, size: 0x8, addend: 0x0, symName: __RNvYNtNvNtCscj7Jssje0XT_11async_trait6expand29replace_impl_trait_with_infer25ReplaceImplTraitWithInferNtNtNtCsdGrGZaRBwMb_3syn3gen9visit_mut8VisitMut23visit_expr_for_loop_mutB8_, symObjAddr: 0x76E0, symBinAddr: 0x46030, symSize: 0x30 }
  - { offset: 0x59FA0, size: 0x8, addend: 0x0, symName: __RNvYNtNvNtCscj7Jssje0XT_11async_trait6expand29replace_impl_trait_with_infer25ReplaceImplTraitWithInferNtNtNtCsdGrGZaRBwMb_3syn3gen9visit_mut8VisitMut23visit_expr_raw_addr_mutB8_, symObjAddr: 0x7710, symBinAddr: 0x46060, symSize: 0x30 }
  - { offset: 0x59FE2, size: 0x8, addend: 0x0, symName: __RNvYNtNvNtCscj7Jssje0XT_11async_trait6expand29replace_impl_trait_with_infer25ReplaceImplTraitWithInferNtNtNtCsdGrGZaRBwMb_3syn3gen9visit_mut8VisitMut23visit_generic_param_mutB8_, symObjAddr: 0x7740, symBinAddr: 0x46090, symSize: 0x30 }
  - { offset: 0x5A024, size: 0x8, addend: 0x0, symName: __RNvYNtNvNtCscj7Jssje0XT_11async_trait6expand29replace_impl_trait_with_infer25ReplaceImplTraitWithInferNtNtNtCsdGrGZaRBwMb_3syn3gen9visit_mut8VisitMut23visit_pat_reference_mutB8_, symObjAddr: 0x7770, symBinAddr: 0x460C0, symSize: 0x30 }
  - { offset: 0x5A066, size: 0x8, addend: 0x0, symName: __RNvYNtNvNtCscj7Jssje0XT_11async_trait6expand29replace_impl_trait_with_infer25ReplaceImplTraitWithInferNtNtNtCsdGrGZaRBwMb_3syn3gen9visit_mut8VisitMut23visit_trait_item_fn_mutB8_, symObjAddr: 0x77A0, symBinAddr: 0x460F0, symSize: 0x30 }
  - { offset: 0x5A0A8, size: 0x8, addend: 0x0, symName: __RNvYNtNvNtCscj7Jssje0XT_11async_trait6expand29replace_impl_trait_with_infer25ReplaceImplTraitWithInferNtNtNtCsdGrGZaRBwMb_3syn3gen9visit_mut8VisitMut24visit_captured_param_mutB8_, symObjAddr: 0x77D0, symBinAddr: 0x46120, symSize: 0x30 }
  - { offset: 0x5A0E7, size: 0x8, addend: 0x0, symName: __RNvYNtNvNtCscj7Jssje0XT_11async_trait6expand29replace_impl_trait_with_infer25ReplaceImplTraitWithInferNtNtNtCsdGrGZaRBwMb_3syn3gen9visit_mut8VisitMut24visit_expr_reference_mutB8_, symObjAddr: 0x7800, symBinAddr: 0x46150, symSize: 0x30 }
  - { offset: 0x5A129, size: 0x8, addend: 0x0, symName: __RNvYNtNvNtCscj7Jssje0XT_11async_trait6expand29replace_impl_trait_with_infer25ReplaceImplTraitWithInferNtNtNtCsdGrGZaRBwMb_3syn3gen9visit_mut8VisitMut24visit_expr_try_block_mutB8_, symObjAddr: 0x7830, symBinAddr: 0x46180, symSize: 0x30 }
  - { offset: 0x5A16B, size: 0x8, addend: 0x0, symName: __RNvYNtNvNtCscj7Jssje0XT_11async_trait6expand29replace_impl_trait_with_infer25ReplaceImplTraitWithInferNtNtNtCsdGrGZaRBwMb_3syn3gen9visit_mut8VisitMut24visit_fields_unnamed_mutB8_, symObjAddr: 0x7860, symBinAddr: 0x461B0, symSize: 0x30 }
  - { offset: 0x5A1AD, size: 0x8, addend: 0x0, symName: __RNvYNtNvNtCscj7Jssje0XT_11async_trait6expand29replace_impl_trait_with_infer25ReplaceImplTraitWithInferNtNtNtCsdGrGZaRBwMb_3syn3gen9visit_mut8VisitMut24visit_impl_item_type_mutB8_, symObjAddr: 0x7890, symBinAddr: 0x461E0, symSize: 0x30 }
  - { offset: 0x5A1EF, size: 0x8, addend: 0x0, symName: __RNvYNtNvNtCscj7Jssje0XT_11async_trait6expand29replace_impl_trait_with_infer25ReplaceImplTraitWithInferNtNtNtCsdGrGZaRBwMb_3syn3gen9visit_mut8VisitMut24visit_lifetime_param_mutB8_, symObjAddr: 0x78C0, symBinAddr: 0x46210, symSize: 0x30 }
  - { offset: 0x5A231, size: 0x8, addend: 0x0, symName: __RNvYNtNvNtCscj7Jssje0XT_11async_trait6expand29replace_impl_trait_with_infer25ReplaceImplTraitWithInferNtNtNtCsdGrGZaRBwMb_3syn3gen9visit_mut8VisitMut24visit_path_arguments_mutB8_, symObjAddr: 0x78F0, symBinAddr: 0x46240, symSize: 0x30 }
  - { offset: 0x5A273, size: 0x8, addend: 0x0, symName: __RNvYNtNvNtCscj7Jssje0XT_11async_trait6expand29replace_impl_trait_with_infer25ReplaceImplTraitWithInferNtNtNtCsdGrGZaRBwMb_3syn3gen9visit_mut8VisitMut24visit_predicate_type_mutB8_, symObjAddr: 0x7920, symBinAddr: 0x46270, symSize: 0x30 }
  - { offset: 0x5A2B5, size: 0x8, addend: 0x0, symName: __RNvYNtNvNtCscj7Jssje0XT_11async_trait6expand29replace_impl_trait_with_infer25ReplaceImplTraitWithInferNtNtNtCsdGrGZaRBwMb_3syn3gen9visit_mut8VisitMut24visit_type_reference_mutB8_, symObjAddr: 0x7950, symBinAddr: 0x462A0, symSize: 0x30 }
  - { offset: 0x5A2F7, size: 0x8, addend: 0x0, symName: __RNvYNtNvNtCscj7Jssje0XT_11async_trait6expand29replace_impl_trait_with_infer25ReplaceImplTraitWithInferNtNtNtCsdGrGZaRBwMb_3syn3gen9visit_mut8VisitMut24visit_vis_restricted_mutB8_, symObjAddr: 0x7980, symBinAddr: 0x462D0, symSize: 0x30 }
  - { offset: 0x5A339, size: 0x8, addend: 0x0, symName: __RNvYNtNvNtCscj7Jssje0XT_11async_trait6expand29replace_impl_trait_with_infer25ReplaceImplTraitWithInferNtNtNtCsdGrGZaRBwMb_3syn3gen9visit_mut8VisitMut25visit_bound_lifetimes_mutB8_, symObjAddr: 0x79B0, symBinAddr: 0x46300, symSize: 0x30 }
  - { offset: 0x5A378, size: 0x8, addend: 0x0, symName: __RNvYNtNvNtCscj7Jssje0XT_11async_trait6expand29replace_impl_trait_with_infer25ReplaceImplTraitWithInferNtNtNtCsdGrGZaRBwMb_3syn3gen9visit_mut8VisitMut25visit_foreign_item_fn_mutB8_, symObjAddr: 0x79E0, symBinAddr: 0x46330, symSize: 0x30 }
  - { offset: 0x5A3BA, size: 0x8, addend: 0x0, symName: __RNvYNtNvNtCscj7Jssje0XT_11async_trait6expand29replace_impl_trait_with_infer25ReplaceImplTraitWithInferNtNtNtCsdGrGZaRBwMb_3syn3gen9visit_mut8VisitMut25visit_impl_item_const_mutB8_, symObjAddr: 0x7A10, symBinAddr: 0x46360, symSize: 0x30 }
  - { offset: 0x5A3FC, size: 0x8, addend: 0x0, symName: __RNvYNtNvNtCscj7Jssje0XT_11async_trait6expand29replace_impl_trait_with_infer25ReplaceImplTraitWithInferNtNtNtCsdGrGZaRBwMb_3syn3gen9visit_mut8VisitMut25visit_impl_item_macro_mutB8_, symObjAddr: 0x7A40, symBinAddr: 0x46390, symSize: 0x30 }
  - { offset: 0x5A43E, size: 0x8, addend: 0x0, symName: __RNvYNtNvNtCscj7Jssje0XT_11async_trait6expand29replace_impl_trait_with_infer25ReplaceImplTraitWithInferNtNtNtCsdGrGZaRBwMb_3syn3gen9visit_mut8VisitMut25visit_macro_delimiter_mutB8_, symObjAddr: 0x7A70, symBinAddr: 0x463C0, symSize: 0x30 }
  - { offset: 0x5A480, size: 0x8, addend: 0x0, symName: __RNvYNtNvNtCscj7Jssje0XT_11async_trait6expand29replace_impl_trait_with_infer25ReplaceImplTraitWithInferNtNtNtCsdGrGZaRBwMb_3syn3gen9visit_mut8VisitMut25visit_meta_name_value_mutB8_, symObjAddr: 0x7AA0, symBinAddr: 0x463F0, symSize: 0x30 }
  - { offset: 0x5A4C2, size: 0x8, addend: 0x0, symName: __RNvYNtNvNtCscj7Jssje0XT_11async_trait6expand29replace_impl_trait_with_infer25ReplaceImplTraitWithInferNtNtNtCsdGrGZaRBwMb_3syn3gen9visit_mut8VisitMut25visit_precise_capture_mutB8_, symObjAddr: 0x7AD0, symBinAddr: 0x46420, symSize: 0x30 }
  - { offset: 0x5A504, size: 0x8, addend: 0x0, symName: __RNvYNtNvNtCscj7Jssje0XT_11async_trait6expand29replace_impl_trait_with_infer25ReplaceImplTraitWithInferNtNtNtCsdGrGZaRBwMb_3syn3gen9visit_mut8VisitMut25visit_trait_item_type_mutB8_, symObjAddr: 0x7B00, symBinAddr: 0x46450, symSize: 0x30 }
  - { offset: 0x5A546, size: 0x8, addend: 0x0, symName: __RNvYNtNvNtCscj7Jssje0XT_11async_trait6expand29replace_impl_trait_with_infer25ReplaceImplTraitWithInferNtNtNtCsdGrGZaRBwMb_3syn3gen9visit_mut8VisitMut25visit_type_impl_trait_mutB8_, symObjAddr: 0x7B30, symBinAddr: 0x46480, symSize: 0x30 }
  - { offset: 0x5A588, size: 0x8, addend: 0x0, symName: __RNvYNtNvNtCscj7Jssje0XT_11async_trait6expand29replace_impl_trait_with_infer25ReplaceImplTraitWithInferNtNtNtCsdGrGZaRBwMb_3syn3gen9visit_mut8VisitMut25visit_where_predicate_mutB8_, symObjAddr: 0x7B60, symBinAddr: 0x464B0, symSize: 0x30 }
  - { offset: 0x5A5CA, size: 0x8, addend: 0x0, symName: __RNvYNtNvNtCscj7Jssje0XT_11async_trait6expand29replace_impl_trait_with_infer25ReplaceImplTraitWithInferNtNtNtCsdGrGZaRBwMb_3syn3gen9visit_mut8VisitMut26visit_expr_method_call_mutB8_, symObjAddr: 0x7B90, symBinAddr: 0x464E0, symSize: 0x30 }
  - { offset: 0x5A60C, size: 0x8, addend: 0x0, symName: __RNvYNtNvNtCscj7Jssje0XT_11async_trait6expand29replace_impl_trait_with_infer25ReplaceImplTraitWithInferNtNtNtCsdGrGZaRBwMb_3syn3gen9visit_mut8VisitMut26visit_field_mutability_mutB8_, symObjAddr: 0x7BC0, symBinAddr: 0x46510, symSize: 0x30 }
  - { offset: 0x5A64E, size: 0x8, addend: 0x0, symName: __RNvYNtNvNtCscj7Jssje0XT_11async_trait6expand29replace_impl_trait_with_infer25ReplaceImplTraitWithInferNtNtNtCsdGrGZaRBwMb_3syn3gen9visit_mut8VisitMut26visit_generic_argument_mutB8_, symObjAddr: 0x7BF0, symBinAddr: 0x46540, symSize: 0x30 }
  - { offset: 0x5A690, size: 0x8, addend: 0x0, symName: __RNvYNtNvNtCscj7Jssje0XT_11async_trait6expand29replace_impl_trait_with_infer25ReplaceImplTraitWithInferNtNtNtCsdGrGZaRBwMb_3syn3gen9visit_mut8VisitMut26visit_item_foreign_mod_mutB8_, symObjAddr: 0x7C20, symBinAddr: 0x46570, symSize: 0x30 }
  - { offset: 0x5A6D2, size: 0x8, addend: 0x0, symName: __RNvYNtNvNtCscj7Jssje0XT_11async_trait6expand29replace_impl_trait_with_infer25ReplaceImplTraitWithInferNtNtNtCsdGrGZaRBwMb_3syn3gen9visit_mut8VisitMut26visit_item_trait_alias_mutB8_, symObjAddr: 0x7C50, symBinAddr: 0x465A0, symSize: 0x30 }
  - { offset: 0x5A714, size: 0x8, addend: 0x0, symName: __RNvYNtNvNtCscj7Jssje0XT_11async_trait6expand29replace_impl_trait_with_infer25ReplaceImplTraitWithInferNtNtNtCsdGrGZaRBwMb_3syn3gen9visit_mut8VisitMut26visit_pat_tuple_struct_mutB8_, symObjAddr: 0x7C80, symBinAddr: 0x465D0, symSize: 0x30 }
  - { offset: 0x5A756, size: 0x8, addend: 0x0, symName: __RNvYNtNvNtCscj7Jssje0XT_11async_trait6expand29replace_impl_trait_with_infer25ReplaceImplTraitWithInferNtNtNtCsdGrGZaRBwMb_3syn3gen9visit_mut8VisitMut26visit_trait_item_const_mutB8_, symObjAddr: 0x7CB0, symBinAddr: 0x46600, symSize: 0x30 }
  - { offset: 0x5A798, size: 0x8, addend: 0x0, symName: __RNvYNtNvNtCscj7Jssje0XT_11async_trait6expand29replace_impl_trait_with_infer25ReplaceImplTraitWithInferNtNtNtCsdGrGZaRBwMb_3syn3gen9visit_mut8VisitMut26visit_trait_item_macro_mutB8_, symObjAddr: 0x7CE0, symBinAddr: 0x46630, symSize: 0x30 }
  - { offset: 0x5A7DA, size: 0x8, addend: 0x0, symName: __RNvYNtNvNtCscj7Jssje0XT_11async_trait6expand29replace_impl_trait_with_infer25ReplaceImplTraitWithInferNtNtNtCsdGrGZaRBwMb_3syn3gen9visit_mut8VisitMut26visit_type_param_bound_mutB8_, symObjAddr: 0x7D10, symBinAddr: 0x46660, symSize: 0x30 }
  - { offset: 0x5A81C, size: 0x8, addend: 0x0, symName: __RNvYNtNvNtCscj7Jssje0XT_11async_trait6expand29replace_impl_trait_with_infer25ReplaceImplTraitWithInferNtNtNtCsdGrGZaRBwMb_3syn3gen9visit_mut8VisitMut27visit_foreign_item_type_mutB8_, symObjAddr: 0x7D40, symBinAddr: 0x46690, symSize: 0x30 }
  - { offset: 0x5A85E, size: 0x8, addend: 0x0, symName: __RNvYNtNvNtCscj7Jssje0XT_11async_trait6expand29replace_impl_trait_with_infer25ReplaceImplTraitWithInferNtNtNtCsdGrGZaRBwMb_3syn3gen9visit_mut8VisitMut27visit_item_extern_crate_mutB8_, symObjAddr: 0x7D70, symBinAddr: 0x466C0, symSize: 0x30 }
  - { offset: 0x5A8A0, size: 0x8, addend: 0x0, symName: __RNvYNtNvNtCscj7Jssje0XT_11async_trait6expand29replace_impl_trait_with_infer25ReplaceImplTraitWithInferNtNtNtCsdGrGZaRBwMb_3syn3gen9visit_mut8VisitMut27visit_static_mutability_mutB8_, symObjAddr: 0x7DA0, symBinAddr: 0x466F0, symSize: 0x30 }
  - { offset: 0x5A8E2, size: 0x8, addend: 0x0, symName: __RNvYNtNvNtCscj7Jssje0XT_11async_trait6expand29replace_impl_trait_with_infer25ReplaceImplTraitWithInferNtNtNtCsdGrGZaRBwMb_3syn3gen9visit_mut8VisitMut27visit_type_trait_object_mutB8_, symObjAddr: 0x7DD0, symBinAddr: 0x46720, symSize: 0x30 }
  - { offset: 0x5A924, size: 0x8, addend: 0x0, symName: __RNvYNtNvNtCscj7Jssje0XT_11async_trait6expand29replace_impl_trait_with_infer25ReplaceImplTraitWithInferNtNtNtCsdGrGZaRBwMb_3syn3gen9visit_mut8VisitMut28visit_foreign_item_macro_mutB8_, symObjAddr: 0x7E00, symBinAddr: 0x46750, symSize: 0x30 }
  - { offset: 0x5A966, size: 0x8, addend: 0x0, symName: __RNvYNtNvNtCscj7Jssje0XT_11async_trait6expand29replace_impl_trait_with_infer25ReplaceImplTraitWithInferNtNtNtCsdGrGZaRBwMb_3syn3gen9visit_mut8VisitMut28visit_pointer_mutability_mutB8_, symObjAddr: 0x7E30, symBinAddr: 0x46780, symSize: 0x30 }
  - { offset: 0x5A9A8, size: 0x8, addend: 0x0, symName: __RNvYNtNvNtCscj7Jssje0XT_11async_trait6expand29replace_impl_trait_with_infer25ReplaceImplTraitWithInferNtNtNtCsdGrGZaRBwMb_3syn3gen9visit_mut8VisitMut28visit_predicate_lifetime_mutB8_, symObjAddr: 0x7E60, symBinAddr: 0x467B0, symSize: 0x30 }
  - { offset: 0x5A9EA, size: 0x8, addend: 0x0, symName: __RNvYNtNvNtCscj7Jssje0XT_11async_trait6expand29replace_impl_trait_with_infer25ReplaceImplTraitWithInferNtNtNtCsdGrGZaRBwMb_3syn3gen9visit_mut8VisitMut29visit_foreign_item_static_mutB8_, symObjAddr: 0x7E90, symBinAddr: 0x467E0, symSize: 0x30 }
  - { offset: 0x5AA2C, size: 0x8, addend: 0x0, symName: __RNvYNtNvNtCscj7Jssje0XT_11async_trait6expand29replace_impl_trait_with_infer25ReplaceImplTraitWithInferNtNtNtCsdGrGZaRBwMb_3syn3gen9visit_mut8VisitMut30visit_trait_bound_modifier_mutB8_, symObjAddr: 0x7EC0, symBinAddr: 0x46810, symSize: 0x30 }
  - { offset: 0x5AA6E, size: 0x8, addend: 0x0, symName: __RNvYNtNvNtCscj7Jssje0XT_11async_trait6expand29replace_impl_trait_with_infer25ReplaceImplTraitWithInferNtNtNtCsdGrGZaRBwMb_3syn3gen9visit_mut8VisitMut41visit_parenthesized_generic_arguments_mutB8_, symObjAddr: 0x7EF0, symBinAddr: 0x46840, symSize: 0x30 }
  - { offset: 0x5AAB0, size: 0x8, addend: 0x0, symName: __RNvYNtNvNtCscj7Jssje0XT_11async_trait6expand29replace_impl_trait_with_infer25ReplaceImplTraitWithInferNtNtNtCsdGrGZaRBwMb_3syn3gen9visit_mut8VisitMut43visit_angle_bracketed_generic_arguments_mutB8_, symObjAddr: 0x7F20, symBinAddr: 0x46870, symSize: 0x30 }
  - { offset: 0x5AAEF, size: 0x8, addend: 0x0, symName: __RNvYNtNvNtCscj7Jssje0XT_11async_trait6expand35contains_associated_type_impl_trait24AssociatedTypeImplTraitsNtNtNtCsdGrGZaRBwMb_3syn3gen9visit_mut8VisitMut13visit_abi_mutB8_, symObjAddr: 0x7F50, symBinAddr: 0x468A0, symSize: 0x30 }
  - { offset: 0x5AB2E, size: 0x8, addend: 0x0, symName: __RNvYNtNvNtCscj7Jssje0XT_11async_trait6expand35contains_associated_type_impl_trait24AssociatedTypeImplTraitsNtNtNtCsdGrGZaRBwMb_3syn3gen9visit_mut8VisitMut13visit_arm_mutB8_, symObjAddr: 0x7F80, symBinAddr: 0x468D0, symSize: 0x30 }
  - { offset: 0x5AB6D, size: 0x8, addend: 0x0, symName: __RNvYNtNvNtCscj7Jssje0XT_11async_trait6expand35contains_associated_type_impl_trait24AssociatedTypeImplTraitsNtNtNtCsdGrGZaRBwMb_3syn3gen9visit_mut8VisitMut13visit_lit_mutB8_, symObjAddr: 0x7FB0, symBinAddr: 0x46900, symSize: 0x30 }
  - { offset: 0x5ABAF, size: 0x8, addend: 0x0, symName: __RNvYNtNvNtCscj7Jssje0XT_11async_trait6expand35contains_associated_type_impl_trait24AssociatedTypeImplTraitsNtNtNtCsdGrGZaRBwMb_3syn3gen9visit_mut8VisitMut13visit_pat_mutB8_, symObjAddr: 0x7FE0, symBinAddr: 0x46930, symSize: 0x30 }
  - { offset: 0x5ABF1, size: 0x8, addend: 0x0, symName: __RNvYNtNvNtCscj7Jssje0XT_11async_trait6expand35contains_associated_type_impl_trait24AssociatedTypeImplTraitsNtNtNtCsdGrGZaRBwMb_3syn3gen9visit_mut8VisitMut14visit_expr_mutB8_, symObjAddr: 0x8010, symBinAddr: 0x46960, symSize: 0x30 }
  - { offset: 0x5AC30, size: 0x8, addend: 0x0, symName: __RNvYNtNvNtCscj7Jssje0XT_11async_trait6expand35contains_associated_type_impl_trait24AssociatedTypeImplTraitsNtNtNtCsdGrGZaRBwMb_3syn3gen9visit_mut8VisitMut14visit_item_mutB8_, symObjAddr: 0x8040, symBinAddr: 0x46990, symSize: 0x30 }
  - { offset: 0x5AC72, size: 0x8, addend: 0x0, symName: __RNvYNtNvNtCscj7Jssje0XT_11async_trait6expand35contains_associated_type_impl_trait24AssociatedTypeImplTraitsNtNtNtCsdGrGZaRBwMb_3syn3gen9visit_mut8VisitMut14visit_meta_mutB8_, symObjAddr: 0x8070, symBinAddr: 0x469C0, symSize: 0x30 }
  - { offset: 0x5ACB4, size: 0x8, addend: 0x0, symName: __RNvYNtNvNtCscj7Jssje0XT_11async_trait6expand35contains_associated_type_impl_trait24AssociatedTypeImplTraitsNtNtNtCsdGrGZaRBwMb_3syn3gen9visit_mut8VisitMut14visit_path_mutB8_, symObjAddr: 0x80A0, symBinAddr: 0x469F0, symSize: 0x30 }
  - { offset: 0x5ACF6, size: 0x8, addend: 0x0, symName: __RNvYNtNvNtCscj7Jssje0XT_11async_trait6expand35contains_associated_type_impl_trait24AssociatedTypeImplTraitsNtNtNtCsdGrGZaRBwMb_3syn3gen9visit_mut8VisitMut14visit_span_mutB8_, symObjAddr: 0x80D0, symBinAddr: 0x46A20, symSize: 0x20 }
  - { offset: 0x5AD38, size: 0x8, addend: 0x0, symName: __RNvYNtNvNtCscj7Jssje0XT_11async_trait6expand35contains_associated_type_impl_trait24AssociatedTypeImplTraitsNtNtNtCsdGrGZaRBwMb_3syn3gen9visit_mut8VisitMut14visit_stmt_mutB8_, symObjAddr: 0x80F0, symBinAddr: 0x46A40, symSize: 0x30 }
  - { offset: 0x5AD7A, size: 0x8, addend: 0x0, symName: __RNvYNtNvNtCscj7Jssje0XT_11async_trait6expand35contains_associated_type_impl_trait24AssociatedTypeImplTraitsNtNtNtCsdGrGZaRBwMb_3syn3gen9visit_mut8VisitMut14visit_type_mutB8_, symObjAddr: 0x8120, symBinAddr: 0x46A70, symSize: 0x30 }
  - { offset: 0x5ADBC, size: 0x8, addend: 0x0, symName: __RNvYNtNvNtCscj7Jssje0XT_11async_trait6expand35contains_associated_type_impl_trait24AssociatedTypeImplTraitsNtNtNtCsdGrGZaRBwMb_3syn3gen9visit_mut8VisitMut15visit_block_mutB8_, symObjAddr: 0x8150, symBinAddr: 0x46AA0, symSize: 0x30 }
  - { offset: 0x5ADFB, size: 0x8, addend: 0x0, symName: __RNvYNtNvNtCscj7Jssje0XT_11async_trait6expand35contains_associated_type_impl_trait24AssociatedTypeImplTraitsNtNtNtCsdGrGZaRBwMb_3syn3gen9visit_mut8VisitMut15visit_field_mutB8_, symObjAddr: 0x8180, symBinAddr: 0x46AD0, symSize: 0x30 }
  - { offset: 0x5AE3D, size: 0x8, addend: 0x0, symName: __RNvYNtNvNtCscj7Jssje0XT_11async_trait6expand35contains_associated_type_impl_trait24AssociatedTypeImplTraitsNtNtNtCsdGrGZaRBwMb_3syn3gen9visit_mut8VisitMut15visit_ident_mutB8_, symObjAddr: 0x81B0, symBinAddr: 0x46B00, symSize: 0x30 }
  - { offset: 0x5AE7F, size: 0x8, addend: 0x0, symName: __RNvYNtNvNtCscj7Jssje0XT_11async_trait6expand35contains_associated_type_impl_trait24AssociatedTypeImplTraitsNtNtNtCsdGrGZaRBwMb_3syn3gen9visit_mut8VisitMut15visit_index_mutB8_, symObjAddr: 0x81E0, symBinAddr: 0x46B30, symSize: 0x30 }
  - { offset: 0x5AEC1, size: 0x8, addend: 0x0, symName: __RNvYNtNvNtCscj7Jssje0XT_11async_trait6expand35contains_associated_type_impl_trait24AssociatedTypeImplTraitsNtNtNtCsdGrGZaRBwMb_3syn3gen9visit_mut8VisitMut15visit_label_mutB8_, symObjAddr: 0x8210, symBinAddr: 0x46B60, symSize: 0x30 }
  - { offset: 0x5AF03, size: 0x8, addend: 0x0, symName: __RNvYNtNvNtCscj7Jssje0XT_11async_trait6expand35contains_associated_type_impl_trait24AssociatedTypeImplTraitsNtNtNtCsdGrGZaRBwMb_3syn3gen9visit_mut8VisitMut15visit_local_mutB8_, symObjAddr: 0x8240, symBinAddr: 0x46B90, symSize: 0x30 }
  - { offset: 0x5AF45, size: 0x8, addend: 0x0, symName: __RNvYNtNvNtCscj7Jssje0XT_11async_trait6expand35contains_associated_type_impl_trait24AssociatedTypeImplTraitsNtNtNtCsdGrGZaRBwMb_3syn3gen9visit_mut8VisitMut15visit_macro_mutB8_, symObjAddr: 0x8270, symBinAddr: 0x46BC0, symSize: 0x30 }
  - { offset: 0x5AF87, size: 0x8, addend: 0x0, symName: __RNvYNtNvNtCscj7Jssje0XT_11async_trait6expand35contains_associated_type_impl_trait24AssociatedTypeImplTraitsNtNtNtCsdGrGZaRBwMb_3syn3gen9visit_mut8VisitMut15visit_qself_mutB8_, symObjAddr: 0x82A0, symBinAddr: 0x46BF0, symSize: 0x30 }
  - { offset: 0x5AFC9, size: 0x8, addend: 0x0, symName: __RNvYNtNvNtCscj7Jssje0XT_11async_trait6expand35contains_associated_type_impl_trait24AssociatedTypeImplTraitsNtNtNtCsdGrGZaRBwMb_3syn3gen9visit_mut8VisitMut15visit_un_op_mutB8_, symObjAddr: 0x82D0, symBinAddr: 0x46C20, symSize: 0x30 }
  - { offset: 0x5B00B, size: 0x8, addend: 0x0, symName: __RNvYNtNvNtCscj7Jssje0XT_11async_trait6expand35contains_associated_type_impl_trait24AssociatedTypeImplTraitsNtNtNtCsdGrGZaRBwMb_3syn3gen9visit_mut8VisitMut16visit_bin_op_mutB8_, symObjAddr: 0x8300, symBinAddr: 0x46C50, symSize: 0x30 }
  - { offset: 0x5B04A, size: 0x8, addend: 0x0, symName: __RNvYNtNvNtCscj7Jssje0XT_11async_trait6expand35contains_associated_type_impl_trait24AssociatedTypeImplTraitsNtNtNtCsdGrGZaRBwMb_3syn3gen9visit_mut8VisitMut16visit_fields_mutB8_, symObjAddr: 0x8330, symBinAddr: 0x46C80, symSize: 0x30 }
  - { offset: 0x5B08C, size: 0x8, addend: 0x0, symName: __RNvYNtNvNtCscj7Jssje0XT_11async_trait6expand35contains_associated_type_impl_trait24AssociatedTypeImplTraitsNtNtNtCsdGrGZaRBwMb_3syn3gen9visit_mut8VisitMut16visit_fn_arg_mutB8_, symObjAddr: 0x8360, symBinAddr: 0x46CB0, symSize: 0x30 }
  - { offset: 0x5B0CE, size: 0x8, addend: 0x0, symName: __RNvYNtNvNtCscj7Jssje0XT_11async_trait6expand35contains_associated_type_impl_trait24AssociatedTypeImplTraitsNtNtNtCsdGrGZaRBwMb_3syn3gen9visit_mut8VisitMut16visit_member_mutB8_, symObjAddr: 0x8390, symBinAddr: 0x46CE0, symSize: 0x30 }
  - { offset: 0x5B110, size: 0x8, addend: 0x0, symName: __RNvYNtNvNtCscj7Jssje0XT_11async_trait6expand35contains_associated_type_impl_trait24AssociatedTypeImplTraitsNtNtNtCsdGrGZaRBwMb_3syn3gen9visit_mut8VisitMut16visit_pat_or_mutB8_, symObjAddr: 0x83C0, symBinAddr: 0x46D10, symSize: 0x30 }
  - { offset: 0x5B152, size: 0x8, addend: 0x0, symName: __RNvYNtNvNtCscj7Jssje0XT_11async_trait6expand35contains_associated_type_impl_trait24AssociatedTypeImplTraitsNtNtNtCsdGrGZaRBwMb_3syn3gen9visit_mut8VisitMut17visit_expr_if_mutB8_, symObjAddr: 0x83F0, symBinAddr: 0x46D40, symSize: 0x30 }
  - { offset: 0x5B191, size: 0x8, addend: 0x0, symName: __RNvYNtNvNtCscj7Jssje0XT_11async_trait6expand35contains_associated_type_impl_trait24AssociatedTypeImplTraitsNtNtNtCsdGrGZaRBwMb_3syn3gen9visit_mut8VisitMut17visit_item_fn_mutB8_, symObjAddr: 0x8420, symBinAddr: 0x46D70, symSize: 0x30 }
  - { offset: 0x5B1D3, size: 0x8, addend: 0x0, symName: __RNvYNtNvNtCscj7Jssje0XT_11async_trait6expand35contains_associated_type_impl_trait24AssociatedTypeImplTraitsNtNtNtCsdGrGZaRBwMb_3syn3gen9visit_mut8VisitMut17visit_lit_int_mutB8_, symObjAddr: 0x8450, symBinAddr: 0x46DA0, symSize: 0x30 }
  - { offset: 0x5B215, size: 0x8, addend: 0x0, symName: __RNvYNtNvNtCscj7Jssje0XT_11async_trait6expand35contains_associated_type_impl_trait24AssociatedTypeImplTraitsNtNtNtCsdGrGZaRBwMb_3syn3gen9visit_mut8VisitMut17visit_lit_str_mutB8_, symObjAddr: 0x8480, symBinAddr: 0x46DD0, symSize: 0x30 }
  - { offset: 0x5B257, size: 0x8, addend: 0x0, symName: __RNvYNtNvNtCscj7Jssje0XT_11async_trait6expand35contains_associated_type_impl_trait24AssociatedTypeImplTraitsNtNtNtCsdGrGZaRBwMb_3syn3gen9visit_mut8VisitMut17visit_variant_mutB8_, symObjAddr: 0x84B0, symBinAddr: 0x46E00, symSize: 0x30 }
  - { offset: 0x5B299, size: 0x8, addend: 0x0, symName: __RNvYNtNvNtCscj7Jssje0XT_11async_trait6expand35contains_associated_type_impl_trait24AssociatedTypeImplTraitsNtNtNtCsdGrGZaRBwMb_3syn3gen9visit_mut8VisitMut18visit_expr_let_mutB8_, symObjAddr: 0x84E0, symBinAddr: 0x46E30, symSize: 0x30 }
  - { offset: 0x5B2D8, size: 0x8, addend: 0x0, symName: __RNvYNtNvNtCscj7Jssje0XT_11async_trait6expand35contains_associated_type_impl_trait24AssociatedTypeImplTraitsNtNtNtCsdGrGZaRBwMb_3syn3gen9visit_mut8VisitMut18visit_expr_lit_mutB8_, symObjAddr: 0x8510, symBinAddr: 0x46E60, symSize: 0x30 }
  - { offset: 0x5B317, size: 0x8, addend: 0x0, symName: __RNvYNtNvNtCscj7Jssje0XT_11async_trait6expand35contains_associated_type_impl_trait24AssociatedTypeImplTraitsNtNtNtCsdGrGZaRBwMb_3syn3gen9visit_mut8VisitMut18visit_expr_try_mutB8_, symObjAddr: 0x8540, symBinAddr: 0x46E90, symSize: 0x30 }
  - { offset: 0x5B359, size: 0x8, addend: 0x0, symName: __RNvYNtNvNtCscj7Jssje0XT_11async_trait6expand35contains_associated_type_impl_trait24AssociatedTypeImplTraitsNtNtNtCsdGrGZaRBwMb_3syn3gen9visit_mut8VisitMut18visit_generics_mutB8_, symObjAddr: 0x8570, symBinAddr: 0x46EC0, symSize: 0x30 }
  - { offset: 0x5B39B, size: 0x8, addend: 0x0, symName: __RNvYNtNvNtCscj7Jssje0XT_11async_trait6expand35contains_associated_type_impl_trait24AssociatedTypeImplTraitsNtNtNtCsdGrGZaRBwMb_3syn3gen9visit_mut8VisitMut18visit_item_mod_mutB8_, symObjAddr: 0x85A0, symBinAddr: 0x46EF0, symSize: 0x30 }
  - { offset: 0x5B3DD, size: 0x8, addend: 0x0, symName: __RNvYNtNvNtCscj7Jssje0XT_11async_trait6expand35contains_associated_type_impl_trait24AssociatedTypeImplTraitsNtNtNtCsdGrGZaRBwMb_3syn3gen9visit_mut8VisitMut18visit_item_use_mutB8_, symObjAddr: 0x85D0, symBinAddr: 0x46F20, symSize: 0x30 }
  - { offset: 0x5B41F, size: 0x8, addend: 0x0, symName: __RNvYNtNvNtCscj7Jssje0XT_11async_trait6expand35contains_associated_type_impl_trait24AssociatedTypeImplTraitsNtNtNtCsdGrGZaRBwMb_3syn3gen9visit_mut8VisitMut18visit_lifetime_mutB8_, symObjAddr: 0x8600, symBinAddr: 0x46F50, symSize: 0x30 }
  - { offset: 0x5B461, size: 0x8, addend: 0x0, symName: __RNvYNtNvNtCscj7Jssje0XT_11async_trait6expand35contains_associated_type_impl_trait24AssociatedTypeImplTraitsNtNtNtCsdGrGZaRBwMb_3syn3gen9visit_mut8VisitMut18visit_lit_bool_mutB8_, symObjAddr: 0x8630, symBinAddr: 0x46F80, symSize: 0x30 }
  - { offset: 0x5B4A3, size: 0x8, addend: 0x0, symName: __RNvYNtNvNtCscj7Jssje0XT_11async_trait6expand35contains_associated_type_impl_trait24AssociatedTypeImplTraitsNtNtNtCsdGrGZaRBwMb_3syn3gen9visit_mut8VisitMut18visit_lit_byte_mutB8_, symObjAddr: 0x8660, symBinAddr: 0x46FB0, symSize: 0x30 }
  - { offset: 0x5B4E5, size: 0x8, addend: 0x0, symName: __RNvYNtNvNtCscj7Jssje0XT_11async_trait6expand35contains_associated_type_impl_trait24AssociatedTypeImplTraitsNtNtNtCsdGrGZaRBwMb_3syn3gen9visit_mut8VisitMut18visit_lit_char_mutB8_, symObjAddr: 0x8690, symBinAddr: 0x46FE0, symSize: 0x30 }
  - { offset: 0x5B527, size: 0x8, addend: 0x0, symName: __RNvYNtNvNtCscj7Jssje0XT_11async_trait6expand35contains_associated_type_impl_trait24AssociatedTypeImplTraitsNtNtNtCsdGrGZaRBwMb_3syn3gen9visit_mut8VisitMut18visit_lit_cstr_mutB8_, symObjAddr: 0x86C0, symBinAddr: 0x47010, symSize: 0x30 }
  - { offset: 0x5B569, size: 0x8, addend: 0x0, symName: __RNvYNtNvNtCscj7Jssje0XT_11async_trait6expand35contains_associated_type_impl_trait24AssociatedTypeImplTraitsNtNtNtCsdGrGZaRBwMb_3syn3gen9visit_mut8VisitMut18visit_pat_rest_mutB8_, symObjAddr: 0x86F0, symBinAddr: 0x47040, symSize: 0x30 }
  - { offset: 0x5B5AB, size: 0x8, addend: 0x0, symName: __RNvYNtNvNtCscj7Jssje0XT_11async_trait6expand35contains_associated_type_impl_trait24AssociatedTypeImplTraitsNtNtNtCsdGrGZaRBwMb_3syn3gen9visit_mut8VisitMut18visit_pat_type_mutB8_, symObjAddr: 0x8720, symBinAddr: 0x47070, symSize: 0x30 }
  - { offset: 0x5B5ED, size: 0x8, addend: 0x0, symName: __RNvYNtNvNtCscj7Jssje0XT_11async_trait6expand35contains_associated_type_impl_trait24AssociatedTypeImplTraitsNtNtNtCsdGrGZaRBwMb_3syn3gen9visit_mut8VisitMut18visit_pat_wild_mutB8_, symObjAddr: 0x8750, symBinAddr: 0x470A0, symSize: 0x30 }
  - { offset: 0x5B62F, size: 0x8, addend: 0x0, symName: __RNvYNtNvNtCscj7Jssje0XT_11async_trait6expand35contains_associated_type_impl_trait24AssociatedTypeImplTraitsNtNtNtCsdGrGZaRBwMb_3syn3gen9visit_mut8VisitMut18visit_receiver_mutB8_, symObjAddr: 0x8780, symBinAddr: 0x470D0, symSize: 0x30 }
  - { offset: 0x5B671, size: 0x8, addend: 0x0, symName: __RNvYNtNvNtCscj7Jssje0XT_11async_trait6expand35contains_associated_type_impl_trait24AssociatedTypeImplTraitsNtNtNtCsdGrGZaRBwMb_3syn3gen9visit_mut8VisitMut18visit_type_ptr_mutB8_, symObjAddr: 0x87B0, symBinAddr: 0x47100, symSize: 0x30 }
  - { offset: 0x5B6B3, size: 0x8, addend: 0x0, symName: __RNvYNtNvNtCscj7Jssje0XT_11async_trait6expand35contains_associated_type_impl_trait24AssociatedTypeImplTraitsNtNtNtCsdGrGZaRBwMb_3syn3gen9visit_mut8VisitMut18visit_use_glob_mutB8_, symObjAddr: 0x87E0, symBinAddr: 0x47130, symSize: 0x30 }
  - { offset: 0x5B6F5, size: 0x8, addend: 0x0, symName: __RNvYNtNvNtCscj7Jssje0XT_11async_trait6expand35contains_associated_type_impl_trait24AssociatedTypeImplTraitsNtNtNtCsdGrGZaRBwMb_3syn3gen9visit_mut8VisitMut18visit_use_name_mutB8_, symObjAddr: 0x8810, symBinAddr: 0x47160, symSize: 0x30 }
  - { offset: 0x5B737, size: 0x8, addend: 0x0, symName: __RNvYNtNvNtCscj7Jssje0XT_11async_trait6expand35contains_associated_type_impl_trait24AssociatedTypeImplTraitsNtNtNtCsdGrGZaRBwMb_3syn3gen9visit_mut8VisitMut18visit_use_path_mutB8_, symObjAddr: 0x8840, symBinAddr: 0x47190, symSize: 0x30 }
  - { offset: 0x5B779, size: 0x8, addend: 0x0, symName: __RNvYNtNvNtCscj7Jssje0XT_11async_trait6expand35contains_associated_type_impl_trait24AssociatedTypeImplTraitsNtNtNtCsdGrGZaRBwMb_3syn3gen9visit_mut8VisitMut18visit_use_tree_mutB8_, symObjAddr: 0x8870, symBinAddr: 0x471C0, symSize: 0x30 }
  - { offset: 0x5B7BB, size: 0x8, addend: 0x0, symName: __RNvYNtNvNtCscj7Jssje0XT_11async_trait6expand35contains_associated_type_impl_trait24AssociatedTypeImplTraitsNtNtNtCsdGrGZaRBwMb_3syn3gen9visit_mut8VisitMut18visit_variadic_mutB8_, symObjAddr: 0x88A0, symBinAddr: 0x471F0, symSize: 0x30 }
  - { offset: 0x5B7FD, size: 0x8, addend: 0x0, symName: __RNvYNtNvNtCscj7Jssje0XT_11async_trait6expand35contains_associated_type_impl_trait24AssociatedTypeImplTraitsNtNtNtCsdGrGZaRBwMb_3syn3gen9visit_mut8VisitMut19visit_attribute_mutB8_, symObjAddr: 0x88D0, symBinAddr: 0x47220, symSize: 0x30 }
  - { offset: 0x5B83C, size: 0x8, addend: 0x0, symName: __RNvYNtNvNtCscj7Jssje0XT_11async_trait6expand35contains_associated_type_impl_trait24AssociatedTypeImplTraitsNtNtNtCsdGrGZaRBwMb_3syn3gen9visit_mut8VisitMut19visit_expr_call_mutB8_, symObjAddr: 0x8900, symBinAddr: 0x47250, symSize: 0x30 }
  - { offset: 0x5B87B, size: 0x8, addend: 0x0, symName: __RNvYNtNvNtCscj7Jssje0XT_11async_trait6expand35contains_associated_type_impl_trait24AssociatedTypeImplTraitsNtNtNtCsdGrGZaRBwMb_3syn3gen9visit_mut8VisitMut19visit_expr_cast_mutB8_, symObjAddr: 0x8930, symBinAddr: 0x47280, symSize: 0x30 }
  - { offset: 0x5B8BA, size: 0x8, addend: 0x0, symName: __RNvYNtNvNtCscj7Jssje0XT_11async_trait6expand35contains_associated_type_impl_trait24AssociatedTypeImplTraitsNtNtNtCsdGrGZaRBwMb_3syn3gen9visit_mut8VisitMut19visit_expr_loop_mutB8_, symObjAddr: 0x8960, symBinAddr: 0x472B0, symSize: 0x30 }
  - { offset: 0x5B8F9, size: 0x8, addend: 0x0, symName: __RNvYNtNvNtCscj7Jssje0XT_11async_trait6expand35contains_associated_type_impl_trait24AssociatedTypeImplTraitsNtNtNtCsdGrGZaRBwMb_3syn3gen9visit_mut8VisitMut19visit_expr_path_mutB8_, symObjAddr: 0x8990, symBinAddr: 0x472E0, symSize: 0x30 }
  - { offset: 0x5B93B, size: 0x8, addend: 0x0, symName: __RNvYNtNvNtCscj7Jssje0XT_11async_trait6expand35contains_associated_type_impl_trait24AssociatedTypeImplTraitsNtNtNtCsdGrGZaRBwMb_3syn3gen9visit_mut8VisitMut19visit_field_pat_mutB8_, symObjAddr: 0x89C0, symBinAddr: 0x47310, symSize: 0x30 }
  - { offset: 0x5B97D, size: 0x8, addend: 0x0, symName: __RNvYNtNvNtCscj7Jssje0XT_11async_trait6expand35contains_associated_type_impl_trait24AssociatedTypeImplTraitsNtNtNtCsdGrGZaRBwMb_3syn3gen9visit_mut8VisitMut19visit_impl_item_mutB8_, symObjAddr: 0x89F0, symBinAddr: 0x47340, symSize: 0x30 }
  - { offset: 0x5B9BF, size: 0x8, addend: 0x0, symName: __RNvYNtNvNtCscj7Jssje0XT_11async_trait6expand35contains_associated_type_impl_trait24AssociatedTypeImplTraitsNtNtNtCsdGrGZaRBwMb_3syn3gen9visit_mut8VisitMut19visit_item_enum_mutB8_, symObjAddr: 0x8A20, symBinAddr: 0x47370, symSize: 0x30 }
  - { offset: 0x5BA01, size: 0x8, addend: 0x0, symName: __RNvYNtNvNtCscj7Jssje0XT_11async_trait6expand35contains_associated_type_impl_trait24AssociatedTypeImplTraitsNtNtNtCsdGrGZaRBwMb_3syn3gen9visit_mut8VisitMut19visit_item_impl_mutB8_, symObjAddr: 0x8A50, symBinAddr: 0x473A0, symSize: 0x30 }
  - { offset: 0x5BA43, size: 0x8, addend: 0x0, symName: __RNvYNtNvNtCscj7Jssje0XT_11async_trait6expand35contains_associated_type_impl_trait24AssociatedTypeImplTraitsNtNtNtCsdGrGZaRBwMb_3syn3gen9visit_mut8VisitMut19visit_item_type_mutB8_, symObjAddr: 0x8A80, symBinAddr: 0x473D0, symSize: 0x30 }
  - { offset: 0x5BA85, size: 0x8, addend: 0x0, symName: __RNvYNtNvNtCscj7Jssje0XT_11async_trait6expand35contains_associated_type_impl_trait24AssociatedTypeImplTraitsNtNtNtCsdGrGZaRBwMb_3syn3gen9visit_mut8VisitMut19visit_lit_float_mutB8_, symObjAddr: 0x8AB0, symBinAddr: 0x47400, symSize: 0x30 }
  - { offset: 0x5BAC7, size: 0x8, addend: 0x0, symName: __RNvYNtNvNtCscj7Jssje0XT_11async_trait6expand35contains_associated_type_impl_trait24AssociatedTypeImplTraitsNtNtNtCsdGrGZaRBwMb_3syn3gen9visit_mut8VisitMut19visit_meta_list_mutB8_, symObjAddr: 0x8AE0, symBinAddr: 0x47430, symSize: 0x30 }
  - { offset: 0x5BB09, size: 0x8, addend: 0x0, symName: __RNvYNtNvNtCscj7Jssje0XT_11async_trait6expand35contains_associated_type_impl_trait24AssociatedTypeImplTraitsNtNtNtCsdGrGZaRBwMb_3syn3gen9visit_mut8VisitMut19visit_pat_ident_mutB8_, symObjAddr: 0x8B10, symBinAddr: 0x47460, symSize: 0x30 }
  - { offset: 0x5BB4B, size: 0x8, addend: 0x0, symName: __RNvYNtNvNtCscj7Jssje0XT_11async_trait6expand35contains_associated_type_impl_trait24AssociatedTypeImplTraitsNtNtNtCsdGrGZaRBwMb_3syn3gen9visit_mut8VisitMut19visit_pat_paren_mutB8_, symObjAddr: 0x8B40, symBinAddr: 0x47490, symSize: 0x30 }
  - { offset: 0x5BB8D, size: 0x8, addend: 0x0, symName: __RNvYNtNvNtCscj7Jssje0XT_11async_trait6expand35contains_associated_type_impl_trait24AssociatedTypeImplTraitsNtNtNtCsdGrGZaRBwMb_3syn3gen9visit_mut8VisitMut19visit_pat_slice_mutB8_, symObjAddr: 0x8B70, symBinAddr: 0x474C0, symSize: 0x30 }
  - { offset: 0x5BBCF, size: 0x8, addend: 0x0, symName: __RNvYNtNvNtCscj7Jssje0XT_11async_trait6expand35contains_associated_type_impl_trait24AssociatedTypeImplTraitsNtNtNtCsdGrGZaRBwMb_3syn3gen9visit_mut8VisitMut19visit_pat_tuple_mutB8_, symObjAddr: 0x8BA0, symBinAddr: 0x474F0, symSize: 0x30 }
