---
triple:          'x86_64-apple-darwin'
binary-path:     '/Users/kema/git/rust-serv/target/debug/deps/libtokio_macros-12fc8557353f9b67.dylib'
relocations:
  - { offset: 0x1E, size: 0x8, addend: 0x0, symName: __RINvMNtCsdGrGZaRBwMb_3syn5errorNtB3_5Error11new_spannedNtNtB5_4attr13MetaNameValueNtNtCslJiobkLta79_5alloc6string6StringECsituP22XUc15_12tokio_macros, symObjAddr: 0x0, symBinAddr: 0xBD0, symSize: 0xC0 }
  - { offset: 0x5F0, size: 0x8, addend: 0x0, symName: __RINvNvNtNtCscKtU6MdFI5n_10proc_macro6bridge14selfless_reify31reify_to_extern_c_fn_hrt_bridge7wrapperNtNtB6_6buffer6BufferNCINvMs6_NtB6_6clientINtB24_6ClientNtB8_11TokenStreamB2u_E7expand1NvCsituP22XUc15_12tokio_macros25select_priv_clean_patternE0EB31_, symObjAddr: 0x2250, symBinAddr: 0x2DE0, symSize: 0xA0 }
  - { offset: 0x688, size: 0x8, addend: 0x0, symName: __RINvNvNtNtCscKtU6MdFI5n_10proc_macro6bridge14selfless_reify31reify_to_extern_c_fn_hrt_bridge7wrapperNtNtB6_6buffer6BufferNCINvMs6_NtB6_6clientINtB24_6ClientNtB8_11TokenStreamB2u_E7expand1NvCsituP22XUc15_12tokio_macros31select_priv_declare_output_enumE0EB31_, symObjAddr: 0x22F0, symBinAddr: 0x2E80, symSize: 0xA0 }
  - { offset: 0x720, size: 0x8, addend: 0x0, symName: __RINvNvNtNtCscKtU6MdFI5n_10proc_macro6bridge14selfless_reify31reify_to_extern_c_fn_hrt_bridge7wrapperNtNtB6_6buffer6BufferNCINvMs7_NtB6_6clientINtB24_6ClientTNtB8_11TokenStreamB2v_EB2v_E7expand2NvCsituP22XUc15_12tokio_macros4mainE0EB37_, symObjAddr: 0x2390, symBinAddr: 0x2F20, symSize: 0xA0 }
  - { offset: 0x7B8, size: 0x8, addend: 0x0, symName: __RINvNvNtNtCscKtU6MdFI5n_10proc_macro6bridge14selfless_reify31reify_to_extern_c_fn_hrt_bridge7wrapperNtNtB6_6buffer6BufferNCINvMs7_NtB6_6clientINtB24_6ClientTNtB8_11TokenStreamB2v_EB2v_E7expand2NvCsituP22XUc15_12tokio_macros4testE0EB37_, symObjAddr: 0x2430, symBinAddr: 0x2FC0, symSize: 0xA0 }
  - { offset: 0x850, size: 0x8, addend: 0x0, symName: __RINvNvNtNtCscKtU6MdFI5n_10proc_macro6bridge14selfless_reify31reify_to_extern_c_fn_hrt_bridge7wrapperNtNtB6_6buffer6BufferNCINvMs7_NtB6_6clientINtB24_6ClientTNtB8_11TokenStreamB2v_EB2v_E7expand2NvCsituP22XUc15_12tokio_macros7main_rtE0EB37_, symObjAddr: 0x24D0, symBinAddr: 0x3060, symSize: 0xA0 }
  - { offset: 0x8E8, size: 0x8, addend: 0x0, symName: __RINvNvNtNtCscKtU6MdFI5n_10proc_macro6bridge14selfless_reify31reify_to_extern_c_fn_hrt_bridge7wrapperNtNtB6_6buffer6BufferNCINvMs7_NtB6_6clientINtB24_6ClientTNtB8_11TokenStreamB2v_EB2v_E7expand2NvCsituP22XUc15_12tokio_macros7test_rtE0EB37_, symObjAddr: 0x2570, symBinAddr: 0x3100, symSize: 0xA0 }
  - { offset: 0x980, size: 0x8, addend: 0x0, symName: __RINvNvNtNtCscKtU6MdFI5n_10proc_macro6bridge14selfless_reify31reify_to_extern_c_fn_hrt_bridge7wrapperNtNtB6_6buffer6BufferNCINvMs7_NtB6_6clientINtB24_6ClientTNtB8_11TokenStreamB2v_EB2v_E7expand2NvCsituP22XUc15_12tokio_macros9main_failE0EB37_, symObjAddr: 0x2610, symBinAddr: 0x31A0, symSize: 0xA0 }
  - { offset: 0xA18, size: 0x8, addend: 0x0, symName: __RINvNvNtNtCscKtU6MdFI5n_10proc_macro6bridge14selfless_reify31reify_to_extern_c_fn_hrt_bridge7wrapperNtNtB6_6buffer6BufferNCINvMs7_NtB6_6clientINtB24_6ClientTNtB8_11TokenStreamB2v_EB2v_E7expand2NvCsituP22XUc15_12tokio_macros9test_failE0EB37_, symObjAddr: 0x26B0, symBinAddr: 0x3240, symSize: 0xA0 }
  - { offset: 0xBE7, size: 0x8, addend: 0x0, symName: __RNvXsR_NtCscKtU6MdFI5n_10proc_macro6bridgeINtNtCsieiGu2EXtoJ_4core6option6OptionNtNtB5_6client11TokenStreamEINtNtB5_3rpc6EncodeuE6encodeCsituP22XUc15_12tokio_macros, symObjAddr: 0x4A90, symBinAddr: 0x5610, symSize: 0xB0 }
  - { offset: 0xC8D, size: 0x8, addend: 0x0, symName: __RNvXsR_NtCscKtU6MdFI5n_10proc_macro6bridgeINtNtCsieiGu2EXtoJ_4core6option6OptionReEINtNtB5_3rpc6EncodeuE6encodeCsituP22XUc15_12tokio_macros, symObjAddr: 0x4B40, symBinAddr: 0x56C0, symSize: 0xC0 }
  - { offset: 0x124C, size: 0x8, addend: 0x0, symName: __RINvXsa_NtCsaKzlTDPUHDb_11proc_macro28fallbackNtB6_11TokenStreamINtNtNtNtCsieiGu2EXtoJ_4core4iter6traits7collect6ExtendNtB8_9TokenTreeE6extendAB1T_j1_ECsituP22XUc15_12tokio_macros, symObjAddr: 0x2900, symBinAddr: 0x3490, symSize: 0xC0 }
  - { offset: 0x12AE, size: 0x8, addend: 0x0, symName: __RINvXsa_NtCsaKzlTDPUHDb_11proc_macro28fallbackNtB6_11TokenStreamINtNtNtNtCsieiGu2EXtoJ_4core4iter6traits7collect6ExtendNtB8_9TokenTreeE6extendNtB8_11TokenStreamECsituP22XUc15_12tokio_macros, symObjAddr: 0x29C0, symBinAddr: 0x3550, symSize: 0xC0 }
  - { offset: 0x1315, size: 0x8, addend: 0x0, symName: __RNCINvXsa_NtCsaKzlTDPUHDb_11proc_macro28fallbackNtB8_11TokenStreamINtNtNtNtCsieiGu2EXtoJ_4core4iter6traits7collect6ExtendNtBa_9TokenTreeE6extendAB1V_j1_E0CsituP22XUc15_12tokio_macros, symObjAddr: 0x30F0, symBinAddr: 0x3C80, symSize: 0xA0 }
  - { offset: 0x135B, size: 0x8, addend: 0x0, symName: __RNCINvXsa_NtCsaKzlTDPUHDb_11proc_macro28fallbackNtB8_11TokenStreamINtNtNtNtCsieiGu2EXtoJ_4core4iter6traits7collect6ExtendNtBa_9TokenTreeE6extendNtBa_11TokenStreamE0CsituP22XUc15_12tokio_macros, symObjAddr: 0x3190, symBinAddr: 0x3D20, symSize: 0xA0 }
  - { offset: 0x13CE, size: 0x8, addend: 0x0, symName: __RINvXsb_NtCsaKzlTDPUHDb_11proc_macro28fallbackNtB6_11TokenStreamINtNtNtNtCsieiGu2EXtoJ_4core4iter6traits7collect6ExtendBI_E6extendINtNtNtB17_8adapters3map3MapIB25_IB25_INtNtB29_3zip3ZipINtNtNtB19_5slice4iter4IterNtB8_11TokenStreamEIB2Y_ReEENCNvNtCsituP22XUc15_12tokio_macros5entry11parse_knobss1_0ENCINvXsb_B8_B3o_INtB13_12FromIteratorB3o_E9from_iterB2B_E0ENCINvXs6_NtB8_3impNtB5S_11TokenStreamIB53_B61_E9from_iterB2w_Es_0EEB3W_, symObjAddr: 0x2A80, symBinAddr: 0x3610, symSize: 0xF0 }
  - { offset: 0x1417, size: 0x8, addend: 0x0, symName: __RNvXss_NtCsaKzlTDPUHDb_11proc_macro28fallbackNtB5_11TokenStreamNtNtCsieiGu2EXtoJ_4core5clone5Clone5cloneCsituP22XUc15_12tokio_macros, symObjAddr: 0x5030, symBinAddr: 0x5BB0, symSize: 0x20 }
  - { offset: 0x258D, size: 0x8, addend: 0x0, symName: __RNvNvMs1_NtNtCsieiGu2EXtoJ_4core3ptr8non_nullINtB7_7NonNullpE13new_unchecked18precondition_checkCsituP22XUc15_12tokio_macros, symObjAddr: 0x4040, symBinAddr: 0x4BD0, symSize: 0x90 }
  - { offset: 0x27F4, size: 0x8, addend: 0x0, symName: __RINvNtCsieiGu2EXtoJ_4core3ptr13drop_in_placeANtCsaKzlTDPUHDb_11proc_macro29TokenTreej1_ECsituP22XUc15_12tokio_macros, symObjAddr: 0x1250, symBinAddr: 0x1E20, symSize: 0x90 }
  - { offset: 0x2823, size: 0x8, addend: 0x0, symName: __RINvNtCsieiGu2EXtoJ_4core3ptr13drop_in_placeINtNtB4_4cell10UnsafeCellNtNtNtCscKtU6MdFI5n_10proc_macro6bridge6client6BridgeEECsituP22XUc15_12tokio_macros, symObjAddr: 0x1320, symBinAddr: 0x1EB0, symSize: 0x20 }
  - { offset: 0x2852, size: 0x8, addend: 0x0, symName: __RINvNtCsieiGu2EXtoJ_4core3ptr13drop_in_placeINtNtB4_4cell7RefCellNtNtNtCscKtU6MdFI5n_10proc_macro6bridge6client6BridgeEECsituP22XUc15_12tokio_macros, symObjAddr: 0x1340, symBinAddr: 0x1ED0, symSize: 0x20 }
  - { offset: 0x2881, size: 0x8, addend: 0x0, symName: __RINvNtCsieiGu2EXtoJ_4core3ptr13drop_in_placeINtNtB4_6option6OptionINtNtCslJiobkLta79_5alloc5boxed3BoxNtNtCsdGrGZaRBwMb_3syn4attr4MetaEEECsituP22XUc15_12tokio_macros, symObjAddr: 0x1360, symBinAddr: 0x1EF0, symSize: 0x40 }
  - { offset: 0x28B0, size: 0x8, addend: 0x0, symName: __RINvNtCsieiGu2EXtoJ_4core3ptr13drop_in_placeINtNtB4_6option6OptionNtNtCsdGrGZaRBwMb_3syn4path4PathEECsituP22XUc15_12tokio_macros, symObjAddr: 0x13A0, symBinAddr: 0x1F30, symSize: 0x40 }
  - { offset: 0x28DF, size: 0x8, addend: 0x0, symName: __RINvNtCsieiGu2EXtoJ_4core3ptr13drop_in_placeINtNtB4_6result6ResultNtNtCsdGrGZaRBwMb_3syn3pat3PatNtNtB16_5error5ErrorEECsituP22XUc15_12tokio_macros, symObjAddr: 0x13E0, symBinAddr: 0x1F70, symSize: 0x50 }
  - { offset: 0x290E, size: 0x8, addend: 0x0, symName: __RINvNtCsieiGu2EXtoJ_4core3ptr13drop_in_placeINtNtCsdGrGZaRBwMb_3syn10punctuated10PunctuatedNtNtBL_4attr4MetaNtNtBL_5token5CommaEECsituP22XUc15_12tokio_macros, symObjAddr: 0x1430, symBinAddr: 0x1FC0, symSize: 0x60 }
  - { offset: 0x293D, size: 0x8, addend: 0x0, symName: __RINvNtCsieiGu2EXtoJ_4core3ptr13drop_in_placeINtNtCsdGrGZaRBwMb_3syn10punctuated7IterMutNtNtBL_3pat3PatEECsituP22XUc15_12tokio_macros, symObjAddr: 0x1490, symBinAddr: 0x2020, symSize: 0x20 }
  - { offset: 0x296C, size: 0x8, addend: 0x0, symName: __RINvNtCsieiGu2EXtoJ_4core3ptr13drop_in_placeINtNtCsdGrGZaRBwMb_3syn10punctuated7IterMutNtNtBL_3pat8FieldPatEECsituP22XUc15_12tokio_macros, symObjAddr: 0x14B0, symBinAddr: 0x2040, symSize: 0x20 }
  - { offset: 0x299B, size: 0x8, addend: 0x0, symName: __RINvNtCsieiGu2EXtoJ_4core3ptr13drop_in_placeINtNtCsdGrGZaRBwMb_3syn10punctuated8IntoIterNtNtBL_4attr4MetaEECsituP22XUc15_12tokio_macros, symObjAddr: 0x14D0, symBinAddr: 0x2060, symSize: 0x20 }
  - { offset: 0x29CA, size: 0x8, addend: 0x0, symName: __RINvNtCsieiGu2EXtoJ_4core3ptr13drop_in_placeINtNtCslJiobkLta79_5alloc3vec3VecNtCsaKzlTDPUHDb_11proc_macro211TokenStreamEECsituP22XUc15_12tokio_macros, symObjAddr: 0x14F0, symBinAddr: 0x2080, symSize: 0x50 }
  - { offset: 0x29F9, size: 0x8, addend: 0x0, symName: __RINvNtCsieiGu2EXtoJ_4core3ptr13drop_in_placeINtNtCslJiobkLta79_5alloc3vec3VecNtCsaKzlTDPUHDb_11proc_macro25IdentEECsituP22XUc15_12tokio_macros, symObjAddr: 0x1540, symBinAddr: 0x20D0, symSize: 0x50 }
  - { offset: 0x2A28, size: 0x8, addend: 0x0, symName: __RINvNtCsieiGu2EXtoJ_4core3ptr13drop_in_placeINtNtCslJiobkLta79_5alloc3vec3VecNtNtCsdGrGZaRBwMb_3syn4attr4MetaEECsituP22XUc15_12tokio_macros, symObjAddr: 0x1590, symBinAddr: 0x2120, symSize: 0x50 }
  - { offset: 0x2A57, size: 0x8, addend: 0x0, symName: __RINvNtCsieiGu2EXtoJ_4core3ptr13drop_in_placeINtNtCslJiobkLta79_5alloc3vec3VecTNtNtCsdGrGZaRBwMb_3syn4attr4MetaNtNtB1i_5token5CommaEEECsituP22XUc15_12tokio_macros, symObjAddr: 0x15E0, symBinAddr: 0x2170, symSize: 0x50 }
  - { offset: 0x2A86, size: 0x8, addend: 0x0, symName: __RINvNtCsieiGu2EXtoJ_4core3ptr13drop_in_placeINtNtCslJiobkLta79_5alloc5boxed3BoxDNtNtB4_5error5ErrorNtNtB4_6marker4SyncNtB1B_4SendEL_EECsituP22XUc15_12tokio_macros, symObjAddr: 0x1630, symBinAddr: 0x21C0, symSize: 0x70 }
  - { offset: 0x2AB5, size: 0x8, addend: 0x0, symName: __RINvNtCsieiGu2EXtoJ_4core3ptr13drop_in_placeINtNtCslJiobkLta79_5alloc5boxed3BoxINtNtCsdGrGZaRBwMb_3syn5drops6NoDropDINtNtB1k_10punctuated12IterMutTraitNtNtB1k_3pat3PatEp4ItemQB2p_EL_EEECsituP22XUc15_12tokio_macros, symObjAddr: 0x16A0, symBinAddr: 0x2230, symSize: 0x20 }
  - { offset: 0x2AE4, size: 0x8, addend: 0x0, symName: __RINvNtCsieiGu2EXtoJ_4core3ptr13drop_in_placeINtNtCslJiobkLta79_5alloc5boxed3BoxINtNtCsdGrGZaRBwMb_3syn5drops6NoDropDINtNtB1k_10punctuated12IterMutTraitNtNtB1k_3pat8FieldPatEp4ItemQB2p_EL_EEECsituP22XUc15_12tokio_macros, symObjAddr: 0x16C0, symBinAddr: 0x2250, symSize: 0x20 }
  - { offset: 0x2B13, size: 0x8, addend: 0x0, symName: __RINvNtCsieiGu2EXtoJ_4core3ptr13drop_in_placeINtNtCslJiobkLta79_5alloc5boxed3BoxNtNtCsdGrGZaRBwMb_3syn4attr4MetaEECsituP22XUc15_12tokio_macros, symObjAddr: 0x16E0, symBinAddr: 0x2270, symSize: 0x50 }
  - { offset: 0x2B42, size: 0x8, addend: 0x0, symName: __RINvNtCsieiGu2EXtoJ_4core3ptr13drop_in_placeINtNtCslJiobkLta79_5alloc5boxed3BoxNtNtNtCsHUR1vrdMJt_3std2io5error6CustomEECsituP22XUc15_12tokio_macros, symObjAddr: 0x1730, symBinAddr: 0x22C0, symSize: 0x50 }
  - { offset: 0x2B71, size: 0x8, addend: 0x0, symName: __RINvNtCsieiGu2EXtoJ_4core3ptr13drop_in_placeINtNtCslJiobkLta79_5alloc7raw_vec6RawVecNtCsaKzlTDPUHDb_11proc_macro211TokenStreamEECsituP22XUc15_12tokio_macros, symObjAddr: 0x1780, symBinAddr: 0x2310, symSize: 0x20 }
  - { offset: 0x2BA0, size: 0x8, addend: 0x0, symName: __RINvNtCsieiGu2EXtoJ_4core3ptr13drop_in_placeINtNtCslJiobkLta79_5alloc7raw_vec6RawVecNtCsaKzlTDPUHDb_11proc_macro25IdentEECsituP22XUc15_12tokio_macros, symObjAddr: 0x17A0, symBinAddr: 0x2330, symSize: 0x20 }
  - { offset: 0x2BCF, size: 0x8, addend: 0x0, symName: __RINvNtCsieiGu2EXtoJ_4core3ptr13drop_in_placeINtNtCslJiobkLta79_5alloc7raw_vec6RawVecNtNtCsdGrGZaRBwMb_3syn4attr4MetaEECsituP22XUc15_12tokio_macros, symObjAddr: 0x17C0, symBinAddr: 0x2350, symSize: 0x20 }
  - { offset: 0x2BFE, size: 0x8, addend: 0x0, symName: __RINvNtCsieiGu2EXtoJ_4core3ptr13drop_in_placeINtNtCslJiobkLta79_5alloc7raw_vec6RawVecTNtNtCsdGrGZaRBwMb_3syn4attr4MetaNtNtB1p_5token5CommaEEECsituP22XUc15_12tokio_macros, symObjAddr: 0x17E0, symBinAddr: 0x2370, symSize: 0x20 }
  - { offset: 0x2C2D, size: 0x8, addend: 0x0, symName: __RINvNtCsieiGu2EXtoJ_4core3ptr13drop_in_placeINtNtNtB4_5array4iter8IntoIterARej4_Kj2_EECsituP22XUc15_12tokio_macros, symObjAddr: 0x1800, symBinAddr: 0x2390, symSize: 0x50 }
  - { offset: 0x2C5C, size: 0x8, addend: 0x0, symName: __RINvNtCsieiGu2EXtoJ_4core3ptr13drop_in_placeINtNtNtB4_5array4iter8IntoIterNtCsaKzlTDPUHDb_11proc_macro29TokenTreeKj1_EECsituP22XUc15_12tokio_macros, symObjAddr: 0x1850, symBinAddr: 0x23E0, symSize: 0x50 }
  - { offset: 0x2C8B, size: 0x8, addend: 0x0, symName: __RINvNtCsieiGu2EXtoJ_4core3ptr13drop_in_placeINtNtNtB4_5array4iter8IntoIterReKj4_EECsituP22XUc15_12tokio_macros, symObjAddr: 0x18A0, symBinAddr: 0x2430, symSize: 0x50 }
  - { offset: 0x2CBA, size: 0x8, addend: 0x0, symName: __RINvNtCsieiGu2EXtoJ_4core3ptr13drop_in_placeINtNtNtCsHUR1vrdMJt_3std2io5error9ErrorDataINtNtCslJiobkLta79_5alloc5boxed3BoxNtBJ_6CustomEEECsituP22XUc15_12tokio_macros, symObjAddr: 0x18F0, symBinAddr: 0x2480, symSize: 0x30 }
  - { offset: 0x2CE9, size: 0x8, addend: 0x0, symName: __RINvNtCsieiGu2EXtoJ_4core3ptr13drop_in_placeINtNtNtCslJiobkLta79_5alloc3vec9into_iter8IntoIterNtNtCsdGrGZaRBwMb_3syn4attr4MetaEECsituP22XUc15_12tokio_macros, symObjAddr: 0x1920, symBinAddr: 0x24B0, symSize: 0x20 }
  - { offset: 0x2D18, size: 0x8, addend: 0x0, symName: __RINvNtCsieiGu2EXtoJ_4core3ptr13drop_in_placeINtNtNtCslJiobkLta79_5alloc3vec9into_iter8IntoIterTNtNtCsdGrGZaRBwMb_3syn4attr4MetaNtNtB1z_5token5CommaEEECsituP22XUc15_12tokio_macros, symObjAddr: 0x1940, symBinAddr: 0x24D0, symSize: 0x20 }
  - { offset: 0x2D47, size: 0x8, addend: 0x0, symName: __RINvNtCsieiGu2EXtoJ_4core3ptr13drop_in_placeINtNtNtNtB4_4iter8adapters3zip3ZipINtNtCsdGrGZaRBwMb_3syn10punctuated4IterNtNtB1j_4path11PathSegmentEINtNtNtB4_5array4iter8IntoIterReKj4_EEECsituP22XUc15_12tokio_macros, symObjAddr: 0x1960, symBinAddr: 0x24F0, symSize: 0x60 }
  - { offset: 0x2D76, size: 0x8, addend: 0x0, symName: __RINvNtCsieiGu2EXtoJ_4core3ptr13drop_in_placeINtNtNtNtB4_4iter8adapters7flatten13FlattenCompatINtNtBL_3map3MapIB1u_IB1u_INtNtBL_3zip3ZipINtNtNtB4_5slice4iter4IterNtCsaKzlTDPUHDb_11proc_macro211TokenStreamEIB2a_ReEENCNvNtCsituP22XUc15_12tokio_macros5entry11parse_knobss1_0ENCINvXsb_B2B_B2z_INtNtNtBN_6traits7collect12FromIteratorB2z_E9from_iterB1O_E0ENCINvXs6_NtB2B_3impNtB5K_11TokenStreamIB4D_B5U_E9from_iterB1J_Es_0EINtNtB2B_5rcvec13RcVecIntoIterNtB2B_9TokenTreeEEEB3v_, symObjAddr: 0x19C0, symBinAddr: 0x2550, symSize: 0x60 }
  - { offset: 0x2DA5, size: 0x8, addend: 0x0, symName: __RINvNtCsieiGu2EXtoJ_4core3ptr13drop_in_placeINtNtNtNtB4_4iter8adapters7flatten7FlattenINtNtBL_3map3MapIB1n_IB1n_INtNtBL_3zip3ZipINtNtNtB4_5slice4iter4IterNtCsaKzlTDPUHDb_11proc_macro211TokenStreamEIB23_ReEENCNvNtCsituP22XUc15_12tokio_macros5entry11parse_knobss1_0ENCINvXsb_B2u_B2s_INtNtNtBN_6traits7collect12FromIteratorB2s_E9from_iterB1H_E0ENCINvXs6_NtB2u_3impNtB5D_11TokenStreamIB4w_B5N_E9from_iterB1C_Es_0EEEB3o_, symObjAddr: 0x1A20, symBinAddr: 0x25B0, symSize: 0x20 }
  - { offset: 0x2DD4, size: 0x8, addend: 0x0, symName: __RINvNtCsieiGu2EXtoJ_4core3ptr13drop_in_placeINtNtNtNtB4_5array4iter10iter_inner15PolymorphicIterAINtNtNtB4_3mem12maybe_uninit11MaybeUninitARej4_Ej2_EECsituP22XUc15_12tokio_macros, symObjAddr: 0x1A40, symBinAddr: 0x25D0, symSize: 0x20 }
  - { offset: 0x2E03, size: 0x8, addend: 0x0, symName: __RINvNtCsieiGu2EXtoJ_4core3ptr13drop_in_placeINtNtNtNtB4_5array4iter10iter_inner15PolymorphicIterAINtNtNtB4_3mem12maybe_uninit11MaybeUninitNtCsaKzlTDPUHDb_11proc_macro29TokenTreeEj1_EECsituP22XUc15_12tokio_macros, symObjAddr: 0x1A60, symBinAddr: 0x25F0, symSize: 0x20 }
  - { offset: 0x2E32, size: 0x8, addend: 0x0, symName: __RINvNtCsieiGu2EXtoJ_4core3ptr13drop_in_placeINtNtNtNtB4_5array4iter10iter_inner15PolymorphicIterAINtNtNtB4_3mem12maybe_uninit11MaybeUninitReEj4_EECsituP22XUc15_12tokio_macros, symObjAddr: 0x1A80, symBinAddr: 0x2610, symSize: 0x20 }
  - { offset: 0x2E61, size: 0x8, addend: 0x0, symName: __RINvNtCsieiGu2EXtoJ_4core3ptr13drop_in_placeINtNvXsd_NtNtCslJiobkLta79_5alloc3vec9into_iterINtBP_8IntoIterppENtNtNtB4_3ops4drop4Drop4drop9DropGuardNtNtCsdGrGZaRBwMb_3syn4attr4MetaNtNtBT_5alloc6GlobalEECsituP22XUc15_12tokio_macros, symObjAddr: 0x1AA0, symBinAddr: 0x2630, symSize: 0x20 }
  - { offset: 0x2E90, size: 0x8, addend: 0x0, symName: __RINvNtCsieiGu2EXtoJ_4core3ptr13drop_in_placeINtNvXsd_NtNtCslJiobkLta79_5alloc3vec9into_iterINtBP_8IntoIterppENtNtNtB4_3ops4drop4Drop4drop9DropGuardTNtNtCsdGrGZaRBwMb_3syn4attr4MetaNtNtB2q_5token5CommaENtNtBT_5alloc6GlobalEECsituP22XUc15_12tokio_macros, symObjAddr: 0x1AC0, symBinAddr: 0x2650, symSize: 0x20 }
  - { offset: 0x2EBF, size: 0x8, addend: 0x0, symName: __RINvNtCsieiGu2EXtoJ_4core3ptr13drop_in_placeNCINvMsi_NtCslJiobkLta79_5alloc3vecINtBP_3VecNtCsaKzlTDPUHDb_11proc_macro25IdentE14extend_trustedINtNtNtNtB4_4iter8adapters3map3MapINtNtNtB4_3ops5range5RangejENCNvNtCsituP22XUc15_12tokio_macros6select19declare_output_enum0EE0EB3l_, symObjAddr: 0x1AE0, symBinAddr: 0x2670, symSize: 0x20 }
  - { offset: 0x2EEE, size: 0x8, addend: 0x0, symName: __RINvNtCsieiGu2EXtoJ_4core3ptr13drop_in_placeNCINvNtNtNtB4_4iter8adapters3map8map_foldjNtCsaKzlTDPUHDb_11proc_macro25IdentuNCNvNtCsituP22XUc15_12tokio_macros6select19declare_output_enum0NCINvNvNtNtNtBP_6traits8iterator8Iterator8for_each4callB1m_NCINvMsi_NtCslJiobkLta79_5alloc3vecINtB43_3VecB1m_E14extend_trustedINtBL_3MapINtNtNtB4_3ops5range5RangejEB1W_EE0E0E0EB22_, symObjAddr: 0x1B00, symBinAddr: 0x2690, symSize: 0x20 }
  - { offset: 0x2F1D, size: 0x8, addend: 0x0, symName: __RINvNtCsieiGu2EXtoJ_4core3ptr13drop_in_placeNCINvNvNtNtNtNtB4_4iter6traits8iterator8Iterator8for_each4callNtCsaKzlTDPUHDb_11proc_macro25IdentNCINvMsi_NtCslJiobkLta79_5alloc3vecINtB2o_3VecB1G_E14extend_trustedINtNtNtBT_8adapters3map3MapINtNtNtB4_3ops5range5RangejENCNvNtCsituP22XUc15_12tokio_macros6select19declare_output_enum0EE0E0EB4j_, symObjAddr: 0x1B20, symBinAddr: 0x26B0, symSize: 0x20 }
  - { offset: 0x2F4C, size: 0x8, addend: 0x0, symName: __RINvNtCsieiGu2EXtoJ_4core3ptr13drop_in_placeNCNCINvNtNtCscKtU6MdFI5n_10proc_macro6bridge6client10run_clientNtBN_11TokenStreamINtNtB4_6option6OptionB1H_ENCNCINvMs6_BN_INtBN_6ClientNtBR_11TokenStreamB2R_E7expand1NvCsituP22XUc15_12tokio_macros25select_priv_clean_patternE00E00EB3o_, symObjAddr: 0x1B40, symBinAddr: 0x26D0, symSize: 0x20 }
  - { offset: 0x2F7B, size: 0x8, addend: 0x0, symName: __RINvNtCsieiGu2EXtoJ_4core3ptr13drop_in_placeNCNCINvNtNtCscKtU6MdFI5n_10proc_macro6bridge6client10run_clientNtBN_11TokenStreamINtNtB4_6option6OptionB1H_ENCNCINvMs6_BN_INtBN_6ClientNtBR_11TokenStreamB2R_E7expand1NvCsituP22XUc15_12tokio_macros31select_priv_declare_output_enumE00E00EB3o_, symObjAddr: 0x1B60, symBinAddr: 0x26F0, symSize: 0x20 }
  - { offset: 0x2FAA, size: 0x8, addend: 0x0, symName: __RINvNtCsieiGu2EXtoJ_4core3ptr13drop_in_placeNCNCINvNtNtCscKtU6MdFI5n_10proc_macro6bridge6client10run_clientTNtBN_11TokenStreamB1I_EINtNtB4_6option6OptionB1I_ENCNCINvMs7_BN_INtBN_6ClientTNtBR_11TokenStreamB2Y_EB2Y_E7expand2NvCsituP22XUc15_12tokio_macros4mainE00E00EB3A_, symObjAddr: 0x1B80, symBinAddr: 0x2710, symSize: 0x20 }
  - { offset: 0x2FD9, size: 0x8, addend: 0x0, symName: __RINvNtCsieiGu2EXtoJ_4core3ptr13drop_in_placeNCNCINvNtNtCscKtU6MdFI5n_10proc_macro6bridge6client10run_clientTNtBN_11TokenStreamB1I_EINtNtB4_6option6OptionB1I_ENCNCINvMs7_BN_INtBN_6ClientTNtBR_11TokenStreamB2Y_EB2Y_E7expand2NvCsituP22XUc15_12tokio_macros4testE00E00EB3A_, symObjAddr: 0x1BA0, symBinAddr: 0x2730, symSize: 0x20 }
  - { offset: 0x3008, size: 0x8, addend: 0x0, symName: __RINvNtCsieiGu2EXtoJ_4core3ptr13drop_in_placeNCNCINvNtNtCscKtU6MdFI5n_10proc_macro6bridge6client10run_clientTNtBN_11TokenStreamB1I_EINtNtB4_6option6OptionB1I_ENCNCINvMs7_BN_INtBN_6ClientTNtBR_11TokenStreamB2Y_EB2Y_E7expand2NvCsituP22XUc15_12tokio_macros7main_rtE00E00EB3A_, symObjAddr: 0x1BC0, symBinAddr: 0x2750, symSize: 0x20 }
  - { offset: 0x3037, size: 0x8, addend: 0x0, symName: __RINvNtCsieiGu2EXtoJ_4core3ptr13drop_in_placeNCNCINvNtNtCscKtU6MdFI5n_10proc_macro6bridge6client10run_clientTNtBN_11TokenStreamB1I_EINtNtB4_6option6OptionB1I_ENCNCINvMs7_BN_INtBN_6ClientTNtBR_11TokenStreamB2Y_EB2Y_E7expand2NvCsituP22XUc15_12tokio_macros7test_rtE00E00EB3A_, symObjAddr: 0x1BE0, symBinAddr: 0x2770, symSize: 0x20 }
  - { offset: 0x3066, size: 0x8, addend: 0x0, symName: __RINvNtCsieiGu2EXtoJ_4core3ptr13drop_in_placeNCNCINvNtNtCscKtU6MdFI5n_10proc_macro6bridge6client10run_clientTNtBN_11TokenStreamB1I_EINtNtB4_6option6OptionB1I_ENCNCINvMs7_BN_INtBN_6ClientTNtBR_11TokenStreamB2Y_EB2Y_E7expand2NvCsituP22XUc15_12tokio_macros9main_failE00E00EB3A_, symObjAddr: 0x1C00, symBinAddr: 0x2790, symSize: 0x20 }
  - { offset: 0x3095, size: 0x8, addend: 0x0, symName: __RINvNtCsieiGu2EXtoJ_4core3ptr13drop_in_placeNCNCINvNtNtCscKtU6MdFI5n_10proc_macro6bridge6client10run_clientTNtBN_11TokenStreamB1I_EINtNtB4_6option6OptionB1I_ENCNCINvMs7_BN_INtBN_6ClientTNtBR_11TokenStreamB2Y_EB2Y_E7expand2NvCsituP22XUc15_12tokio_macros9test_failE00E00EB3A_, symObjAddr: 0x1C20, symBinAddr: 0x27B0, symSize: 0x20 }
  - { offset: 0x30C4, size: 0x8, addend: 0x0, symName: __RINvNtCsieiGu2EXtoJ_4core3ptr13drop_in_placeNtNtCsituP22XUc15_12tokio_macros5entry11FinalConfigEBK_, symObjAddr: 0x1C40, symBinAddr: 0x27D0, symSize: 0x20 }
  - { offset: 0x30F3, size: 0x8, addend: 0x0, symName: __RINvNtCsieiGu2EXtoJ_4core3ptr13drop_in_placeNtNtCsituP22XUc15_12tokio_macros5entry13ConfigurationEBK_, symObjAddr: 0x1C60, symBinAddr: 0x27F0, symSize: 0x20 }
  - { offset: 0x3122, size: 0x8, addend: 0x0, symName: __RINvNtCsieiGu2EXtoJ_4core3ptr13drop_in_placeNtNtCsituP22XUc15_12tokio_macros5entry6ItemFnEBK_, symObjAddr: 0x1C80, symBinAddr: 0x2810, symSize: 0xF0 }
  - { offset: 0x3151, size: 0x8, addend: 0x0, symName: __RINvNtCsieiGu2EXtoJ_4core3ptr13drop_in_placeNtNtNtCsHUR1vrdMJt_3std2io5error5ErrorECsituP22XUc15_12tokio_macros, symObjAddr: 0x1D70, symBinAddr: 0x2900, symSize: 0x20 }
  - { offset: 0x3180, size: 0x8, addend: 0x0, symName: __RINvNtCsieiGu2EXtoJ_4core3ptr13drop_in_placeNtNtNtCsHUR1vrdMJt_3std2io5error6CustomECsituP22XUc15_12tokio_macros, symObjAddr: 0x1D90, symBinAddr: 0x2920, symSize: 0x20 }
  - { offset: 0x31AF, size: 0x8, addend: 0x0, symName: __RINvNtCsieiGu2EXtoJ_4core3ptr13drop_in_placeNtNtNtCscKtU6MdFI5n_10proc_macro6bridge3rpc12PanicMessageECsituP22XUc15_12tokio_macros, symObjAddr: 0x1DB0, symBinAddr: 0x2940, symSize: 0x50 }
  - { offset: 0x31DE, size: 0x8, addend: 0x0, symName: __RINvNtCsieiGu2EXtoJ_4core3ptr13drop_in_placeNtNtNtCscKtU6MdFI5n_10proc_macro6bridge6buffer6BufferECsituP22XUc15_12tokio_macros, symObjAddr: 0x1E00, symBinAddr: 0x2990, symSize: 0x20 }
  - { offset: 0x320D, size: 0x8, addend: 0x0, symName: __RINvNtCsieiGu2EXtoJ_4core3ptr13drop_in_placeNtNtNtCscKtU6MdFI5n_10proc_macro6bridge6client6BridgeECsituP22XUc15_12tokio_macros, symObjAddr: 0x1E20, symBinAddr: 0x29B0, symSize: 0x20 }
  - { offset: 0x323C, size: 0x8, addend: 0x0, symName: __RINvNtCsieiGu2EXtoJ_4core3ptr13drop_in_placeNtNtNtNtCsHUR1vrdMJt_3std2io5error14repr_bitpacked4ReprECsituP22XUc15_12tokio_macros, symObjAddr: 0x1E40, symBinAddr: 0x29D0, symSize: 0x20 }
  - { offset: 0x326B, size: 0x8, addend: 0x0, symName: __RINvNtCsieiGu2EXtoJ_4core3ptr13drop_in_placeNtNvNtNtNtCscKtU6MdFI5n_10proc_macro6bridge6client5state3set13RestoreOnDropECsituP22XUc15_12tokio_macros, symObjAddr: 0x1E60, symBinAddr: 0x29F0, symSize: 0x20 }
  - { offset: 0x329A, size: 0x8, addend: 0x0, symName: __RINvNtCsieiGu2EXtoJ_4core3ptr13drop_in_placeSNtCsaKzlTDPUHDb_11proc_macro211TokenStreamECsituP22XUc15_12tokio_macros, symObjAddr: 0x1E80, symBinAddr: 0x2A10, symSize: 0xA0 }
  - { offset: 0x32C9, size: 0x8, addend: 0x0, symName: __RINvNtCsieiGu2EXtoJ_4core3ptr13drop_in_placeSNtCsaKzlTDPUHDb_11proc_macro25IdentECsituP22XUc15_12tokio_macros, symObjAddr: 0x1F20, symBinAddr: 0x2AB0, symSize: 0xA0 }
  - { offset: 0x32F8, size: 0x8, addend: 0x0, symName: __RINvNtCsieiGu2EXtoJ_4core3ptr13drop_in_placeSNtNtCsdGrGZaRBwMb_3syn4attr4MetaECsituP22XUc15_12tokio_macros, symObjAddr: 0x1FC0, symBinAddr: 0x2B50, symSize: 0xA0 }
  - { offset: 0x3327, size: 0x8, addend: 0x0, symName: __RINvNtCsieiGu2EXtoJ_4core3ptr13drop_in_placeSTNtNtCsdGrGZaRBwMb_3syn4attr4MetaNtNtBM_5token5CommaEECsituP22XUc15_12tokio_macros, symObjAddr: 0x2060, symBinAddr: 0x2BF0, symSize: 0xA0 }
  - { offset: 0x3356, size: 0x8, addend: 0x0, symName: __RINvNtCsieiGu2EXtoJ_4core3ptr13drop_in_placeTNtNtCsdGrGZaRBwMb_3syn4attr4MetaNtNtBL_5token5CommaEECsituP22XUc15_12tokio_macros, symObjAddr: 0x2100, symBinAddr: 0x2C90, symSize: 0x20 }
  - { offset: 0x3385, size: 0x8, addend: 0x0, symName: __RINvNtCsieiGu2EXtoJ_4core3ptr13drop_in_placeTNtNtNtCscKtU6MdFI5n_10proc_macro6bridge6client11TokenStreamBH_EECsituP22XUc15_12tokio_macros, symObjAddr: 0x2120, symBinAddr: 0x2CB0, symSize: 0x60 }
  - { offset: 0x37DE, size: 0x8, addend: 0x0, symName: __RNvNvMNtNtCsieiGu2EXtoJ_4core3ptr9const_ptrPp20offset_from_unsigned18precondition_checkCsituP22XUc15_12tokio_macros, symObjAddr: 0x3FA0, symBinAddr: 0x4B30, symSize: 0xA0 }
  - { offset: 0x6BCF, size: 0x8, addend: 0x0, symName: __RNvXs3_NtCsieiGu2EXtoJ_4core6optionINtB5_6OptionNtNtCsdGrGZaRBwMb_3syn4path4PathENtNtB7_5clone5Clone5cloneCsituP22XUc15_12tokio_macros, symObjAddr: 0x4990, symBinAddr: 0x5510, symSize: 0x80 }
  - { offset: 0x6C2A, size: 0x8, addend: 0x0, symName: __RNvXs6_NtCsieiGu2EXtoJ_4core6optionINtB5_6OptionQNtNtCsdGrGZaRBwMb_3syn3pat3PatENtNtNtNtB7_4iter6traits7collect12IntoIterator9into_iterCsituP22XUc15_12tokio_macros, symObjAddr: 0x4A70, symBinAddr: 0x55F0, symSize: 0x10 }
  - { offset: 0x6C61, size: 0x8, addend: 0x0, symName: __RNvXs6_NtCsieiGu2EXtoJ_4core6optionINtB5_6OptionQNtNtCsdGrGZaRBwMb_3syn3pat8FieldPatENtNtNtNtB7_4iter6traits7collect12IntoIterator9into_iterCsituP22XUc15_12tokio_macros, symObjAddr: 0x4A80, symBinAddr: 0x5600, symSize: 0x10 }
  - { offset: 0x6D10, size: 0x8, addend: 0x0, symName: __RNvXsw_NtCsieiGu2EXtoJ_4core6optionINtB5_8IntoIterQNtNtCsdGrGZaRBwMb_3syn3pat3PatENtNtNtNtB7_4iter6traits8iterator8Iterator4nextCsituP22XUc15_12tokio_macros, symObjAddr: 0x5050, symBinAddr: 0x5BD0, symSize: 0x20 }
  - { offset: 0x6D88, size: 0x8, addend: 0x0, symName: __RNvXsw_NtCsieiGu2EXtoJ_4core6optionINtB5_8IntoIterQNtNtCsdGrGZaRBwMb_3syn3pat3PatENtNtNtNtB7_4iter6traits8iterator8Iterator9size_hintCsituP22XUc15_12tokio_macros, symObjAddr: 0x5070, symBinAddr: 0x5BF0, symSize: 0x30 }
  - { offset: 0x6E00, size: 0x8, addend: 0x0, symName: __RNvXsw_NtCsieiGu2EXtoJ_4core6optionINtB5_8IntoIterQNtNtCsdGrGZaRBwMb_3syn3pat8FieldPatENtNtNtNtB7_4iter6traits8iterator8Iterator4nextCsituP22XUc15_12tokio_macros, symObjAddr: 0x50A0, symBinAddr: 0x5C20, symSize: 0x20 }
  - { offset: 0x6E78, size: 0x8, addend: 0x0, symName: __RNvXsw_NtCsieiGu2EXtoJ_4core6optionINtB5_8IntoIterQNtNtCsdGrGZaRBwMb_3syn3pat8FieldPatENtNtNtNtB7_4iter6traits8iterator8Iterator9size_hintCsituP22XUc15_12tokio_macros, symObjAddr: 0x50C0, symBinAddr: 0x5C40, symSize: 0x30 }
  - { offset: 0x72E5, size: 0x8, addend: 0x0, symName: __RINvMNtCsieiGu2EXtoJ_4core3stre5parsejECsituP22XUc15_12tokio_macros, symObjAddr: 0x700, symBinAddr: 0x12D0, symSize: 0x30 }
  - { offset: 0x731C, size: 0x8, addend: 0x0, symName: __RNvMNtCsieiGu2EXtoJ_4core3stre8is_emptyCsituP22XUc15_12tokio_macros, symObjAddr: 0x3290, symBinAddr: 0x3E20, symSize: 0x20 }
  - { offset: 0x7593, size: 0x8, addend: 0x0, symName: __RINvXs2E_NtNtCsieiGu2EXtoJ_4core5slice4iterINtB7_4IterNtNtCsdGrGZaRBwMb_3syn4attr9AttributeENtNtNtNtBb_4iter6traits8iterator8Iterator4findNCNvNtCsituP22XUc15_12tokio_macros5entry4test0EB2i_, symObjAddr: 0x2750, symBinAddr: 0x32E0, symSize: 0xA0 }
  - { offset: 0x75F8, size: 0x8, addend: 0x0, symName: __RINvXs2E_NtNtCsieiGu2EXtoJ_4core5slice4iterINtB7_4IterNtNtCsdGrGZaRBwMb_3syn4attr9AttributeENtNtNtNtBb_4iter6traits8iterator8Iterator4findQNCNvNtCsituP22XUc15_12tokio_macros5entry4test0EB2j_, symObjAddr: 0x27F0, symBinAddr: 0x3380, symSize: 0xA0 }
  - { offset: 0x765D, size: 0x8, addend: 0x0, symName: __RNvXs2E_NtNtCsieiGu2EXtoJ_4core5slice4iterINtB6_4IterNtCsaKzlTDPUHDb_11proc_macro211TokenStreamENtNtNtNtBa_4iter6traits8iterator8Iterator24___iterator_get_uncheckedCsituP22XUc15_12tokio_macros, symObjAddr: 0x42C0, symBinAddr: 0x4E40, symSize: 0x20 }
  - { offset: 0x76B8, size: 0x8, addend: 0x0, symName: __RNvXs2E_NtNtCsieiGu2EXtoJ_4core5slice4iterINtB6_4IterNtCsaKzlTDPUHDb_11proc_macro211TokenStreamENtNtNtNtBa_4iter6traits8iterator8Iterator4nextCsituP22XUc15_12tokio_macros, symObjAddr: 0x42E0, symBinAddr: 0x4E60, symSize: 0x90 }
  - { offset: 0x77D9, size: 0x8, addend: 0x0, symName: __RNvXs2E_NtNtCsieiGu2EXtoJ_4core5slice4iterINtB6_4IterNtCsaKzlTDPUHDb_11proc_macro211TokenStreamENtNtNtNtBa_4iter6traits8iterator8Iterator9size_hintCsituP22XUc15_12tokio_macros, symObjAddr: 0x4370, symBinAddr: 0x4EF0, symSize: 0x60 }
  - { offset: 0x7848, size: 0x8, addend: 0x0, symName: __RNvXs2E_NtNtCsieiGu2EXtoJ_4core5slice4iterINtB6_4IterNtCsaKzlTDPUHDb_11proc_macro25IdentENtNtNtNtBa_4iter6traits8iterator8Iterator4nextCsituP22XUc15_12tokio_macros, symObjAddr: 0x43D0, symBinAddr: 0x4F50, symSize: 0x90 }
  - { offset: 0x7969, size: 0x8, addend: 0x0, symName: __RNvXs2E_NtNtCsieiGu2EXtoJ_4core5slice4iterINtB6_4IterReENtNtNtNtBa_4iter6traits8iterator8Iterator24___iterator_get_uncheckedCsituP22XUc15_12tokio_macros, symObjAddr: 0x4460, symBinAddr: 0x4FE0, symSize: 0x20 }
  - { offset: 0x79C4, size: 0x8, addend: 0x0, symName: __RNvXs2E_NtNtCsieiGu2EXtoJ_4core5slice4iterINtB6_4IterReENtNtNtNtBa_4iter6traits8iterator8Iterator9size_hintCsituP22XUc15_12tokio_macros, symObjAddr: 0x4480, symBinAddr: 0x5000, symSize: 0x60 }
  - { offset: 0x7B17, size: 0x8, addend: 0x0, symName: __RNvXs2M_NtNtCsieiGu2EXtoJ_4core5slice4iterINtB6_7IterMutTNtNtCsdGrGZaRBwMb_3syn3pat3PatNtNtBX_5token2OrEENtNtNtNtBa_4iter6traits8iterator8Iterator4nextCsituP22XUc15_12tokio_macros, symObjAddr: 0x44E0, symBinAddr: 0x5060, symSize: 0x90 }
  - { offset: 0x7C23, size: 0x8, addend: 0x0, symName: __RNvXs2M_NtNtCsieiGu2EXtoJ_4core5slice4iterINtB6_7IterMutTNtNtCsdGrGZaRBwMb_3syn3pat3PatNtNtBX_5token5CommaEENtNtNtNtBa_4iter6traits8iterator8Iterator4nextCsituP22XUc15_12tokio_macros, symObjAddr: 0x4570, symBinAddr: 0x50F0, symSize: 0x90 }
  - { offset: 0x7D2F, size: 0x8, addend: 0x0, symName: __RNvXs2M_NtNtCsieiGu2EXtoJ_4core5slice4iterINtB6_7IterMutTNtNtCsdGrGZaRBwMb_3syn3pat8FieldPatNtNtBX_5token5CommaEENtNtNtNtBa_4iter6traits8iterator8Iterator4nextCsituP22XUc15_12tokio_macros, symObjAddr: 0x4600, symBinAddr: 0x5180, symSize: 0x90 }
  - { offset: 0x7E41, size: 0x8, addend: 0x0, symName: __RNvXs2N_NtNtCsieiGu2EXtoJ_4core5slice4iterINtB6_7IterMutTNtNtCsdGrGZaRBwMb_3syn3pat3PatNtNtBX_5token2OrEENtNtNtNtBa_4iter6traits12double_ended19DoubleEndedIterator9next_backCsituP22XUc15_12tokio_macros, symObjAddr: 0x4690, symBinAddr: 0x5210, symSize: 0x100 }
  - { offset: 0x7F90, size: 0x8, addend: 0x0, symName: __RNvXs2N_NtNtCsieiGu2EXtoJ_4core5slice4iterINtB6_7IterMutTNtNtCsdGrGZaRBwMb_3syn3pat3PatNtNtBX_5token5CommaEENtNtNtNtBa_4iter6traits12double_ended19DoubleEndedIterator9next_backCsituP22XUc15_12tokio_macros, symObjAddr: 0x4790, symBinAddr: 0x5310, symSize: 0x100 }
  - { offset: 0x80DF, size: 0x8, addend: 0x0, symName: __RNvXs2N_NtNtCsieiGu2EXtoJ_4core5slice4iterINtB6_7IterMutTNtNtCsdGrGZaRBwMb_3syn3pat8FieldPatNtNtBX_5token5CommaEENtNtNtNtBa_4iter6traits12double_ended19DoubleEndedIterator9next_backCsituP22XUc15_12tokio_macros, symObjAddr: 0x4890, symBinAddr: 0x5410, symSize: 0x100 }
  - { offset: 0x883D, size: 0x8, addend: 0x0, symName: __RNCINvXs_NtNtNtCsieiGu2EXtoJ_4core4iter8adapters5chainINtB7_5ChainINtNtNtBd_5slice4iter4IterNtNtCsdGrGZaRBwMb_3syn4attr9AttributeEB12_ENtNtNtBb_6traits8iterator8Iterator4findNCNvNtCsituP22XUc15_12tokio_macros5entry4test0E0B2S_, symObjAddr: 0x3040, symBinAddr: 0x3BD0, symSize: 0x30 }
  - { offset: 0x8894, size: 0x8, addend: 0x0, symName: __RNCINvXs_NtNtNtCsieiGu2EXtoJ_4core4iter8adapters5chainINtB7_5ChainINtNtNtBd_5slice4iter4IterNtNtCsdGrGZaRBwMb_3syn4attr9AttributeEB12_ENtNtNtBb_6traits8iterator8Iterator4findNCNvNtCsituP22XUc15_12tokio_macros5entry4test0Es_0B2S_, symObjAddr: 0x3070, symBinAddr: 0x3C00, symSize: 0x80 }
  - { offset: 0x899A, size: 0x8, addend: 0x0, symName: __RINvXs_NtNtNtCsieiGu2EXtoJ_4core4iter8adapters5chainINtB5_5ChainINtNtNtBb_5slice4iter4IterNtNtCsdGrGZaRBwMb_3syn4attr9AttributeEB10_ENtNtNtB9_6traits8iterator8Iterator4findNCNvNtCsituP22XUc15_12tokio_macros5entry4test0EB2Q_, symObjAddr: 0x2890, symBinAddr: 0x3420, symSize: 0x70 }
  - { offset: 0x89F0, size: 0x8, addend: 0x0, symName: __RINvNtNtNtCsieiGu2EXtoJ_4core4iter8adapters5chain17and_then_or_clearINtNtNtB8_5slice4iter4IterNtNtCsdGrGZaRBwMb_3syn4attr9AttributeERB1u_NCINvXs_B2_INtB2_5ChainB14_B14_ENtNtNtB6_6traits8iterator8Iterator4findNCNvNtCsituP22XUc15_12tokio_macros5entry4test0E0EB3q_, symObjAddr: 0x2180, symBinAddr: 0x2D10, symSize: 0xD0 }
  - { offset: 0x8C1B, size: 0x8, addend: 0x0, symName: __RNvYINtNtNtCsieiGu2EXtoJ_4core5slice4iter4IterNtCsaKzlTDPUHDb_11proc_macro211TokenStreamENtNtNtNtB9_4iter8adapters3zip27TrustedRandomAccessNoCoerce4sizeCsituP22XUc15_12tokio_macros, symObjAddr: 0x52C0, symBinAddr: 0x5E40, symSize: 0x30 }
  - { offset: 0x8C52, size: 0x8, addend: 0x0, symName: __RNvYINtNtNtCsieiGu2EXtoJ_4core5slice4iter4IterReENtNtNtNtB9_4iter8adapters3zip27TrustedRandomAccessNoCoerce4sizeCsituP22XUc15_12tokio_macros, symObjAddr: 0x5310, symBinAddr: 0x5E90, symSize: 0x30 }
  - { offset: 0x8E30, size: 0x8, addend: 0x0, symName: __RINvYINtNtNtCsieiGu2EXtoJ_4core5slice4iter4IterNtCsaKzlTDPUHDb_11proc_macro211TokenStreamENtNtNtNtBa_4iter6traits8iterator8Iterator3zipRINtNtCslJiobkLta79_5alloc3vec3VecReEECsituP22XUc15_12tokio_macros, symObjAddr: 0x2B70, symBinAddr: 0x3700, symSize: 0xB0 }
  - { offset: 0x8EA6, size: 0x8, addend: 0x0, symName: __RINvYINtNtNtCsieiGu2EXtoJ_4core5slice4iter4IterNtNtCsdGrGZaRBwMb_3syn4attr9AttributeENtNtNtNtBa_4iter6traits8iterator8Iterator5chainB3_ECsituP22XUc15_12tokio_macros, symObjAddr: 0x2C20, symBinAddr: 0x37B0, symSize: 0xC0 }
  - { offset: 0x8F26, size: 0x8, addend: 0x0, symName: __RNCINvNvNtNtNtNtCsieiGu2EXtoJ_4core4iter6traits8iterator8Iterator3all5checkTRNtNtCsdGrGZaRBwMb_3syn4path11PathSegmentReENCNCNvNtCsituP22XUc15_12tokio_macros5entry17is_test_attribute00E0B22_, symObjAddr: 0x2EC0, symBinAddr: 0x3A50, symSize: 0x50 }
  - { offset: 0x8F8F, size: 0x8, addend: 0x0, symName: __RNCINvNvNtNtNtNtCsieiGu2EXtoJ_4core4iter6traits8iterator8Iterator3any5checkARej4_NCNvNtCsituP22XUc15_12tokio_macros5entry17is_test_attribute0E0B1n_, symObjAddr: 0x2F10, symBinAddr: 0x3AA0, symSize: 0x50 }
  - { offset: 0x900B, size: 0x8, addend: 0x0, symName: __RNCINvNvNtNtNtNtCsieiGu2EXtoJ_4core4iter6traits8iterator8Iterator8for_each4callNtCsaKzlTDPUHDb_11proc_macro25IdentNCINvMsi_NtCslJiobkLta79_5alloc3vecINtB1X_3VecB1f_E14extend_trustedINtNtNtBc_8adapters3map3MapINtNtNtBe_3ops5range5RangejENCNvNtCsituP22XUc15_12tokio_macros6select19declare_output_enum0EE0E0B3S_, symObjAddr: 0x2F60, symBinAddr: 0x3AF0, symSize: 0x40 }
  - { offset: 0x9064, size: 0x8, addend: 0x0, symName: __RNCINvNvNtNtNtNtCsieiGu2EXtoJ_4core4iter6traits8iterator8Iterator8for_each4callNtCsaKzlTDPUHDb_11proc_macro29TokenTreeNCINvXsa_NtB1h_8fallbackNtB21_11TokenStreamINtNtBa_7collect6ExtendB1f_E6extendAB1f_j1_E0E0CsituP22XUc15_12tokio_macros, symObjAddr: 0x2FA0, symBinAddr: 0x3B30, symSize: 0x40 }
  - { offset: 0x90BD, size: 0x8, addend: 0x0, symName: __RNCINvNvNtNtNtNtCsieiGu2EXtoJ_4core4iter6traits8iterator8Iterator8for_each4callNtCsaKzlTDPUHDb_11proc_macro29TokenTreeNCINvXsa_NtB1h_8fallbackNtB21_11TokenStreamINtNtBa_7collect6ExtendB1f_E6extendNtB1h_11TokenStreamE0E0CsituP22XUc15_12tokio_macros, symObjAddr: 0x2FE0, symBinAddr: 0x3B70, symSize: 0x40 }
  - { offset: 0x9116, size: 0x8, addend: 0x0, symName: __RNCINvNvNtNtNtNtCsieiGu2EXtoJ_4core4iter6traits8iterator8Iterator8for_each4callNtCscKtU6MdFI5n_10proc_macro11TokenStreamNCINvXsj_B1h_B1f_INtNtBa_7collect6ExtendB1f_E6extendINtNtNtBc_8adapters3map3MapIB2L_IB2L_INtNtB2P_3zip3ZipINtNtNtBe_5slice4iter4IterNtCsaKzlTDPUHDb_11proc_macro211TokenStreamEIB3D_ReEENCNvNtCsituP22XUc15_12tokio_macros5entry11parse_knobss1_0ENCINvXsb_B44_B42_INtB2e_12FromIteratorB42_E9from_iterB3g_E0ENCINvXs6_NtB44_3impNtB6V_11TokenStreamIB66_B75_E9from_iterB3b_E0EE0E0B4Y_, symObjAddr: 0x3020, symBinAddr: 0x3BB0, symSize: 0x20 }
  - { offset: 0x91A5, size: 0x8, addend: 0x0, symName: __RNCNvXs_NvNtNtNtNtCsieiGu2EXtoJ_4core4iter6traits8iterator8Iterator10advance_byINtNtCsdGrGZaRBwMb_3syn10punctuated14PrivateIterMutNtNtB1k_3pat3PatNtNtB1k_5token2OrENtB6_13SpecAdvanceBy15spec_advance_by0CsituP22XUc15_12tokio_macros, symObjAddr: 0x3230, symBinAddr: 0x3DC0, symSize: 0x20 }
  - { offset: 0x91F2, size: 0x8, addend: 0x0, symName: __RNCNvXs_NvNtNtNtNtCsieiGu2EXtoJ_4core4iter6traits8iterator8Iterator10advance_byINtNtCsdGrGZaRBwMb_3syn10punctuated14PrivateIterMutNtNtB1k_3pat3PatNtNtB1k_5token5CommaENtB6_13SpecAdvanceBy15spec_advance_by0CsituP22XUc15_12tokio_macros, symObjAddr: 0x3250, symBinAddr: 0x3DE0, symSize: 0x20 }
  - { offset: 0x923F, size: 0x8, addend: 0x0, symName: __RNCNvXs_NvNtNtNtNtCsieiGu2EXtoJ_4core4iter6traits8iterator8Iterator10advance_byINtNtCsdGrGZaRBwMb_3syn10punctuated14PrivateIterMutNtNtB1k_3pat8FieldPatNtNtB1k_5token5CommaENtB6_13SpecAdvanceBy15spec_advance_by0CsituP22XUc15_12tokio_macros, symObjAddr: 0x3270, symBinAddr: 0x3E00, symSize: 0x20 }
  - { offset: 0x9300, size: 0x8, addend: 0x0, symName: __RNvYINtNtCsieiGu2EXtoJ_4core6option8IntoIterQNtNtCsdGrGZaRBwMb_3syn3pat3PatENtNtNtNtB7_4iter6traits10exact_size17ExactSizeIterator3lenCsituP22XUc15_12tokio_macros, symObjAddr: 0x5100, symBinAddr: 0x5C80, symSize: 0xE0 }
  - { offset: 0x9400, size: 0x8, addend: 0x0, symName: __RNvYINtNtCsieiGu2EXtoJ_4core6option8IntoIterQNtNtCsdGrGZaRBwMb_3syn3pat8FieldPatENtNtNtNtB7_4iter6traits10exact_size17ExactSizeIterator3lenCsituP22XUc15_12tokio_macros, symObjAddr: 0x51E0, symBinAddr: 0x5D60, symSize: 0xE0 }
  - { offset: 0x961D, size: 0x8, addend: 0x0, symName: __RNCINvMNtNtCsieiGu2EXtoJ_4core3ops9try_traitINtB5_17NeverShortCircuituE10wrap_mut_2uNtCsaKzlTDPUHDb_11proc_macro29TokenTreeNCINvNvNtNtNtNtB9_4iter6traits8iterator8Iterator8for_each4callB1k_NCINvXsa_NtB1m_8fallbackNtB3a_11TokenStreamINtNtB28_7collect6ExtendB1k_E6extendAB1k_j1_E0E0E0CsituP22XUc15_12tokio_macros, symObjAddr: 0x2CE0, symBinAddr: 0x3870, symSize: 0x40 }
  - { offset: 0x96A6, size: 0x8, addend: 0x0, symName: __RNvXs_NtNtCsieiGu2EXtoJ_4core3ops9try_traitINtB4_17NeverShortCircuituENtB4_3Try11from_outputCsituP22XUc15_12tokio_macros, symObjAddr: 0x4C00, symBinAddr: 0x5780, symSize: 0x10 }
  - { offset: 0x96D9, size: 0x8, addend: 0x0, symName: __RNvXs_NtNtCsieiGu2EXtoJ_4core3ops9try_traitINtB4_17NeverShortCircuituENtB4_3Try6branchCsituP22XUc15_12tokio_macros, symObjAddr: 0x4C10, symBinAddr: 0x5790, symSize: 0x10 }
  - { offset: 0x985D, size: 0x8, addend: 0x0, symName: __RNvYNCNkNvNtNtNtCscKtU6MdFI5n_10proc_macro6bridge6client5state12BRIDGE_STATE0s_0INtNtNtCsieiGu2EXtoJ_4core3ops8function6FnOnceTINtNtB1n_6option6OptionQIB22_INtNtB1n_4cell4CellPuEEEEE9call_onceCsituP22XUc15_12tokio_macros, symObjAddr: 0x5340, symBinAddr: 0x5EC0, symSize: 0x40 }
  - { offset: 0x98A1, size: 0x8, addend: 0x0, symName: __RNvYNvMNtCsdGrGZaRBwMb_3syn10punctuatedINtB5_10PunctuatedNtNtB7_4attr4MetaNtNtB7_5token5CommaE16parse_terminatedINtNtNtCsieiGu2EXtoJ_4core3ops8function6FnOnceTRNtNtB7_5parse11ParseBufferEE9call_onceCsituP22XUc15_12tokio_macros, symObjAddr: 0x55D0, symBinAddr: 0x6150, symSize: 0x30 }
  - { offset: 0x98E5, size: 0x8, addend: 0x0, symName: __RNvYNvMNtNtCsdGrGZaRBwMb_3syn3pat7parsingNtB7_3Pat12parse_singleINtNtNtCsieiGu2EXtoJ_4core3ops8function6FnOnceTRNtNtB9_5parse11ParseBufferEE9call_onceCsituP22XUc15_12tokio_macros, symObjAddr: 0x5600, symBinAddr: 0x6180, symSize: 0x30 }
  - { offset: 0x9929, size: 0x8, addend: 0x0, symName: __RNvYNvMsi_CsaKzlTDPUHDb_11proc_macro2NtB8_4Span9call_siteINtNtNtCsieiGu2EXtoJ_4core3ops8function6FnOnceuE9call_onceCsituP22XUc15_12tokio_macros, symObjAddr: 0x56A0, symBinAddr: 0x6220, symSize: 0x20 }
  - { offset: 0x996D, size: 0x8, addend: 0x0, symName: __RNvYNvYINtNtCslJiobkLta79_5alloc5boxed3BoxNtNtCsdGrGZaRBwMb_3syn3pat3PatEINtNtCsieiGu2EXtoJ_4core7convert5AsMutBE_E6as_mutINtNtNtB1e_3ops8function6FnOnceTQB5_EE9call_onceCsituP22XUc15_12tokio_macros, symObjAddr: 0x56C0, symBinAddr: 0x6240, symSize: 0x20 }
  - { offset: 0x99B1, size: 0x8, addend: 0x0, symName: __RNvYNvYINtNtCslJiobkLta79_5alloc5boxed3BoxNtNtCsdGrGZaRBwMb_3syn3pat8FieldPatEINtNtCsieiGu2EXtoJ_4core7convert5AsMutBE_E6as_mutINtNtNtB1j_3ops8function6FnOnceTQB5_EE9call_onceCsituP22XUc15_12tokio_macros, symObjAddr: 0x56E0, symBinAddr: 0x6260, symSize: 0x20 }
  - { offset: 0x99F5, size: 0x8, addend: 0x0, symName: __RNvYNvYNtNtCsdGrGZaRBwMb_3syn4path4PathNtNtB9_5parse5Parse5parseINtNtNtCsieiGu2EXtoJ_4core3ops8function6FnOnceTRNtBD_11ParseBufferEE9call_onceCsituP22XUc15_12tokio_macros, symObjAddr: 0x5700, symBinAddr: 0x6280, symSize: 0x30 }
  - { offset: 0x9A39, size: 0x8, addend: 0x0, symName: __RNvYNvYNtNtCsdGrGZaRBwMb_3syn4path4PathNtNtCs9OU1sGv5X54_5quote9to_tokens8ToTokens17into_token_streamINtNtNtCsieiGu2EXtoJ_4core3ops8function6FnOnceTB5_EE9call_onceCsituP22XUc15_12tokio_macros, symObjAddr: 0x5730, symBinAddr: 0x62B0, symSize: 0x40 }
  - { offset: 0x9A7D, size: 0x8, addend: 0x0, symName: __RNvYNvYNtNtCsituP22XUc15_12tokio_macros5entry6ItemFnNtNtCsdGrGZaRBwMb_3syn5parse5Parse5parseINtNtNtCsieiGu2EXtoJ_4core3ops8function6FnOnceTRNtBQ_11ParseBufferEE9call_onceB9_, symObjAddr: 0x5770, symBinAddr: 0x62F0, symSize: 0x30 }
  - { offset: 0x9AC7, size: 0x8, addend: 0x0, symName: __RNvYNvCsituP22XUc15_12tokio_macros25select_priv_clean_patternINtNtNtCsieiGu2EXtoJ_4core3ops8function2FnTNtCscKtU6MdFI5n_10proc_macro11TokenStreamEE4callB4_, symObjAddr: 0x5470, symBinAddr: 0x5FF0, symSize: 0x20 }
  - { offset: 0x9B0B, size: 0x8, addend: 0x0, symName: __RNvYNvCsituP22XUc15_12tokio_macros31select_priv_declare_output_enumINtNtNtCsieiGu2EXtoJ_4core3ops8function2FnTNtCscKtU6MdFI5n_10proc_macro11TokenStreamEE4callB4_, symObjAddr: 0x5490, symBinAddr: 0x6010, symSize: 0x20 }
  - { offset: 0x9B4F, size: 0x8, addend: 0x0, symName: __RNvYNvCsituP22XUc15_12tokio_macros4mainINtNtNtCsieiGu2EXtoJ_4core3ops8function2FnTNtCscKtU6MdFI5n_10proc_macro11TokenStreamB1i_EE4callB4_, symObjAddr: 0x54B0, symBinAddr: 0x6030, symSize: 0x30 }
  - { offset: 0x9B93, size: 0x8, addend: 0x0, symName: __RNvYNvCsituP22XUc15_12tokio_macros4testINtNtNtCsieiGu2EXtoJ_4core3ops8function2FnTNtCscKtU6MdFI5n_10proc_macro11TokenStreamB1i_EE4callB4_, symObjAddr: 0x54E0, symBinAddr: 0x6060, symSize: 0x30 }
  - { offset: 0x9BD7, size: 0x8, addend: 0x0, symName: __RNvYNvCsituP22XUc15_12tokio_macros7main_rtINtNtNtCsieiGu2EXtoJ_4core3ops8function2FnTNtCscKtU6MdFI5n_10proc_macro11TokenStreamB1l_EE4callB4_, symObjAddr: 0x5510, symBinAddr: 0x6090, symSize: 0x30 }
  - { offset: 0x9C1B, size: 0x8, addend: 0x0, symName: __RNvYNvCsituP22XUc15_12tokio_macros7test_rtINtNtNtCsieiGu2EXtoJ_4core3ops8function2FnTNtCscKtU6MdFI5n_10proc_macro11TokenStreamB1l_EE4callB4_, symObjAddr: 0x5540, symBinAddr: 0x60C0, symSize: 0x30 }
  - { offset: 0x9C5F, size: 0x8, addend: 0x0, symName: __RNvYNvCsituP22XUc15_12tokio_macros9main_failINtNtNtCsieiGu2EXtoJ_4core3ops8function2FnTNtCscKtU6MdFI5n_10proc_macro11TokenStreamB1n_EE4callB4_, symObjAddr: 0x5570, symBinAddr: 0x60F0, symSize: 0x30 }
  - { offset: 0x9CA3, size: 0x8, addend: 0x0, symName: __RNvYNvCsituP22XUc15_12tokio_macros9test_failINtNtNtCsieiGu2EXtoJ_4core3ops8function2FnTNtCscKtU6MdFI5n_10proc_macro11TokenStreamB1n_EE4callB4_, symObjAddr: 0x55A0, symBinAddr: 0x6120, symSize: 0x30 }
  - { offset: 0xA377, size: 0x8, addend: 0x0, symName: __RNCINvMs6_NtNtNtCsieiGu2EXtoJ_4core5array4iter10iter_innerINtB8_15PolymorphicIterSINtNtNtBe_3mem12maybe_uninit11MaybeUninitARej4_EE8try_folduNCINvNvNtNtNtNtBe_4iter6traits8iterator8Iterator3any5checkB1X_NCNvNtCsituP22XUc15_12tokio_macros5entry17is_test_attribute0E0INtNtNtBe_3ops12control_flow11ControlFlowuEE0B3l_, symObjAddr: 0x2D20, symBinAddr: 0x38B0, symSize: 0xD0 }
  - { offset: 0xA4D7, size: 0x8, addend: 0x0, symName: __RNCINvMs6_NtNtNtCsieiGu2EXtoJ_4core5array4iter10iter_innerINtB8_15PolymorphicIterSINtNtNtBe_3mem12maybe_uninit11MaybeUninitNtCsaKzlTDPUHDb_11proc_macro29TokenTreeEE8try_folduNCINvMNtNtBe_3ops9try_traitINtB2S_17NeverShortCircuituE10wrap_mut_2uB1X_NCINvNvNtNtNtNtBe_4iter6traits8iterator8Iterator8for_each4callB1X_NCINvXsa_NtB1Z_8fallbackNtB59_11TokenStreamINtNtB47_7collect6ExtendB1X_E6extendAB1X_j1_E0E0E0B3d_E0CsituP22XUc15_12tokio_macros, symObjAddr: 0x2DF0, symBinAddr: 0x3980, symSize: 0xD0 }
  - { offset: 0xA758, size: 0x8, addend: 0x0, symName: __RNvXs1_NtNtNtCsieiGu2EXtoJ_4core5array4iter10iter_innerINtB5_15PolymorphicIterAINtNtNtBb_3mem12maybe_uninit11MaybeUninitARej4_Ej2_ENtNtNtBb_3ops4drop4Drop4dropCsituP22XUc15_12tokio_macros, symObjAddr: 0x4230, symBinAddr: 0x4DB0, symSize: 0x30 }
  - { offset: 0xA7A6, size: 0x8, addend: 0x0, symName: __RNvXs1_NtNtNtCsieiGu2EXtoJ_4core5array4iter10iter_innerINtB5_15PolymorphicIterAINtNtNtBb_3mem12maybe_uninit11MaybeUninitNtCsaKzlTDPUHDb_11proc_macro29TokenTreeEj1_ENtNtNtBb_3ops4drop4Drop4dropCsituP22XUc15_12tokio_macros, symObjAddr: 0x4260, symBinAddr: 0x4DE0, symSize: 0x30 }
  - { offset: 0xA7F4, size: 0x8, addend: 0x0, symName: __RNvXs1_NtNtNtCsieiGu2EXtoJ_4core5array4iter10iter_innerINtB5_15PolymorphicIterAINtNtNtBb_3mem12maybe_uninit11MaybeUninitReEj4_ENtNtNtBb_3ops4drop4Drop4dropCsituP22XUc15_12tokio_macros, symObjAddr: 0x4290, symBinAddr: 0x4E10, symSize: 0x30 }
  - { offset: 0xAB39, size: 0x8, addend: 0x0, symName: __RNvNvNtCsieiGu2EXtoJ_4core9ub_checks23maybe_is_nonoverlapping7runtimeCsituP22XUc15_12tokio_macros, symObjAddr: 0x40D0, symBinAddr: 0x4C60, symSize: 0xC0 }
  - { offset: 0x1022C, size: 0x8, addend: 0x0, symName: __RNvXsh_NtCsdGrGZaRBwMb_3syn5parseNvMNtNtB7_3pat7parsingNtBA_3Pat12parse_singleNtB5_6Parser6parse2CsituP22XUc15_12tokio_macros, symObjAddr: 0x4C20, symBinAddr: 0x57A0, symSize: 0x410 }
  - { offset: 0x10343, size: 0x8, addend: 0x0, symName: __RNvYNvMNtNtCsdGrGZaRBwMb_3syn3pat7parsingNtB7_3Pat12parse_singleNtNtB9_5parse6Parser5parseCsituP22XUc15_12tokio_macros, symObjAddr: 0x5630, symBinAddr: 0x61B0, symSize: 0x70 }
  - { offset: 0x1176D, size: 0x8, addend: 0x0, symName: __RNvNtCslJiobkLta79_5alloc3fmt6formatCsituP22XUc15_12tokio_macros, symObjAddr: 0x3EE0, symBinAddr: 0x4A70, symSize: 0xC0 }
  - { offset: 0x11D1C, size: 0x8, addend: 0x0, symName: __RINvMNtCsdGrGZaRBwMb_3syn5errorNtB3_5Error11new_spannedNtNtB5_4attr13MetaNameValueNtNtCslJiobkLta79_5alloc6string6StringECsituP22XUc15_12tokio_macros, symObjAddr: 0x0, symBinAddr: 0xBD0, symSize: 0xC0 }
  - { offset: 0x11D7E, size: 0x8, addend: 0x0, symName: __RINvMNtCsdGrGZaRBwMb_3syn5errorNtB3_5Error11new_spannedNtNtB5_4attr13MetaNameValueReECsituP22XUc15_12tokio_macros, symObjAddr: 0xC0, symBinAddr: 0xC90, symSize: 0xB0 }
  - { offset: 0x11DC2, size: 0x8, addend: 0x0, symName: __RINvMNtCsdGrGZaRBwMb_3syn5errorNtB3_5Error11new_spannedNtNtB5_4attr4MetaReECsituP22XUc15_12tokio_macros, symObjAddr: 0x170, symBinAddr: 0xD40, symSize: 0xB0 }
  - { offset: 0x11E06, size: 0x8, addend: 0x0, symName: __RINvMNtCsdGrGZaRBwMb_3syn5errorNtB3_5Error11new_spannedNtNtB5_4path4PathNtNtCslJiobkLta79_5alloc6string6StringECsituP22XUc15_12tokio_macros, symObjAddr: 0x220, symBinAddr: 0xDF0, symSize: 0xC0 }
  - { offset: 0x11E4A, size: 0x8, addend: 0x0, symName: __RINvMNtCsdGrGZaRBwMb_3syn5errorNtB3_5Error11new_spannedNtNtB5_5token2FnReECsituP22XUc15_12tokio_macros, symObjAddr: 0x2E0, symBinAddr: 0xEB0, symSize: 0xB0 }
  - { offset: 0x11E9A, size: 0x8, addend: 0x0, symName: __RINvMNtCsdGrGZaRBwMb_3syn5errorNtB3_5Error11new_spannedRNtCsaKzlTDPUHDb_11proc_macro25IdentReECsituP22XUc15_12tokio_macros, symObjAddr: 0x390, symBinAddr: 0xF60, symSize: 0xB0 }
  - { offset: 0x11EEA, size: 0x8, addend: 0x0, symName: __RINvMNtCsdGrGZaRBwMb_3syn5errorNtB3_5Error11new_spannedRNtNtB5_4attr13MetaNameValueReECsituP22XUc15_12tokio_macros, symObjAddr: 0x440, symBinAddr: 0x1010, symSize: 0xB0 }
  - { offset: 0x11F3A, size: 0x8, addend: 0x0, symName: __RINvMNtCsdGrGZaRBwMb_3syn5errorNtB3_5Error11new_spannedRNtNtB5_4attr9AttributeReECsituP22XUc15_12tokio_macros, symObjAddr: 0x4F0, symBinAddr: 0x10C0, symSize: 0xB0 }
  - { offset: 0x11F8A, size: 0x8, addend: 0x0, symName: __RINvMNtCsdGrGZaRBwMb_3syn5errorNtB3_5Error11new_spannedRNtNtB5_4expr4ExprReECsituP22XUc15_12tokio_macros, symObjAddr: 0x5A0, symBinAddr: 0x1170, symSize: 0xB0 }
  - { offset: 0x11FDA, size: 0x8, addend: 0x0, symName: __RINvMNtCsdGrGZaRBwMb_3syn5errorNtB3_5Error11new_spannedRNtNtB5_4path4PathReECsituP22XUc15_12tokio_macros, symObjAddr: 0x650, symBinAddr: 0x1220, symSize: 0xB0 }
  - { offset: 0x12055, size: 0x8, addend: 0x0, symName: __RINvMNtCsieiGu2EXtoJ_4core6optionINtB3_6OptionNtCsaKzlTDPUHDb_11proc_macro211TokenStreamE14unwrap_or_elseNCNvNtCsituP22XUc15_12tokio_macros5entry11parse_knobss0_0EB1L_, symObjAddr: 0x730, symBinAddr: 0x1300, symSize: 0xA0 }
  - { offset: 0x120CA, size: 0x8, addend: 0x0, symName: __RINvMNtCsieiGu2EXtoJ_4core6optionINtB3_6OptionNtCsaKzlTDPUHDb_11proc_macro29TokenTreeE11map_or_elseNtBK_4SpanNvMsi_BK_B1z_9call_siteNCNvNtCsituP22XUc15_12tokio_macros5entry11parse_knobs0EB2c_, symObjAddr: 0x7D0, symBinAddr: 0x13A0, symSize: 0xE0 }
  - { offset: 0x12147, size: 0x8, addend: 0x0, symName: __RINvMNtCsieiGu2EXtoJ_4core6optionINtB3_6OptionNtCsaKzlTDPUHDb_11proc_macro29TokenTreeE6map_orNtBK_4SpanNCNvNtCsituP22XUc15_12tokio_macros5entry11parse_knobss_0EB1J_, symObjAddr: 0x8B0, symBinAddr: 0x1480, symSize: 0xD0 }
  - { offset: 0x121D3, size: 0x8, addend: 0x0, symName: __RINvMNtCsieiGu2EXtoJ_4core6optionINtB3_6OptionNtNtCsdGrGZaRBwMb_3syn4path4PathE3mapNtCsaKzlTDPUHDb_11proc_macro211TokenStreamNvYBI_NtNtCs9OU1sGv5X54_5quote9to_tokens8ToTokens17into_token_streamECsituP22XUc15_12tokio_macros, symObjAddr: 0x980, symBinAddr: 0x1550, symSize: 0xD0 }
  - { offset: 0x12272, size: 0x8, addend: 0x0, symName: __RINvMNtCsieiGu2EXtoJ_4core6optionINtB3_6OptionQINtNtCslJiobkLta79_5alloc5boxed3BoxNtNtCsdGrGZaRBwMb_3syn3pat3PatEE3mapQB1i_NvYBJ_INtNtB5_7convert5AsMutB1i_E6as_mutECsituP22XUc15_12tokio_macros, symObjAddr: 0xA50, symBinAddr: 0x1620, symSize: 0x50 }
  - { offset: 0x1230F, size: 0x8, addend: 0x0, symName: __RINvMNtCsieiGu2EXtoJ_4core6optionINtB3_6OptionQINtNtCslJiobkLta79_5alloc5boxed3BoxNtNtCsdGrGZaRBwMb_3syn3pat8FieldPatEE3mapQB1i_NvYBJ_INtNtB5_7convert5AsMutB1i_E6as_mutECsituP22XUc15_12tokio_macros, symObjAddr: 0xAA0, symBinAddr: 0x1670, symSize: 0x50 }
  - { offset: 0x12387, size: 0x8, addend: 0x0, symName: __RINvMNtCsieiGu2EXtoJ_4core6optionINtB3_6OptionQNtNtCsdGrGZaRBwMb_3syn3pat3PatE7or_elseNCNvXsF_NtBN_10punctuatedINtB1u_14PrivateIterMutBJ_NtNtBN_5token2OrENtNtNtNtB5_4iter6traits8iterator8Iterator4nexts_0ECsituP22XUc15_12tokio_macros, symObjAddr: 0xAF0, symBinAddr: 0x16C0, symSize: 0x90 }
  - { offset: 0x123E9, size: 0x8, addend: 0x0, symName: __RINvMNtCsieiGu2EXtoJ_4core6optionINtB3_6OptionQNtNtCsdGrGZaRBwMb_3syn3pat3PatE7or_elseNCNvXsF_NtBN_10punctuatedINtB1u_14PrivateIterMutBJ_NtNtBN_5token5CommaENtNtNtNtB5_4iter6traits8iterator8Iterator4nexts_0ECsituP22XUc15_12tokio_macros, symObjAddr: 0xB80, symBinAddr: 0x1750, symSize: 0x90 }
  - { offset: 0x1247F, size: 0x8, addend: 0x0, symName: __RINvMNtCsieiGu2EXtoJ_4core6optionINtB3_6OptionQNtNtCsdGrGZaRBwMb_3syn3pat3PatE7or_elseNCNvXsG_NtBN_10punctuatedINtB1u_14PrivateIterMutBJ_NtNtBN_5token2OrENtNtNtNtB5_4iter6traits12double_ended19DoubleEndedIterator9next_back0ECsituP22XUc15_12tokio_macros, symObjAddr: 0xC10, symBinAddr: 0x17E0, symSize: 0x90 }
  - { offset: 0x12515, size: 0x8, addend: 0x0, symName: __RINvMNtCsieiGu2EXtoJ_4core6optionINtB3_6OptionQNtNtCsdGrGZaRBwMb_3syn3pat3PatE7or_elseNCNvXsG_NtBN_10punctuatedINtB1u_14PrivateIterMutBJ_NtNtBN_5token5CommaENtNtNtNtB5_4iter6traits12double_ended19DoubleEndedIterator9next_back0ECsituP22XUc15_12tokio_macros, symObjAddr: 0xCA0, symBinAddr: 0x1870, symSize: 0x90 }
  - { offset: 0x12584, size: 0x8, addend: 0x0, symName: __RINvMNtCsieiGu2EXtoJ_4core6optionINtB3_6OptionQNtNtCsdGrGZaRBwMb_3syn3pat8FieldPatE7or_elseNCNvXsF_NtBN_10punctuatedINtB1z_14PrivateIterMutBJ_NtNtBN_5token5CommaENtNtNtNtB5_4iter6traits8iterator8Iterator4nexts_0ECsituP22XUc15_12tokio_macros, symObjAddr: 0xD30, symBinAddr: 0x1900, symSize: 0x90 }
  - { offset: 0x1261A, size: 0x8, addend: 0x0, symName: __RINvMNtCsieiGu2EXtoJ_4core6optionINtB3_6OptionQNtNtCsdGrGZaRBwMb_3syn3pat8FieldPatE7or_elseNCNvXsG_NtBN_10punctuatedINtB1z_14PrivateIterMutBJ_NtNtBN_5token5CommaENtNtNtNtB5_4iter6traits12double_ended19DoubleEndedIterator9next_back0ECsituP22XUc15_12tokio_macros, symObjAddr: 0xDC0, symBinAddr: 0x1990, symSize: 0x90 }
  - { offset: 0x1267C, size: 0x8, addend: 0x0, symName: __RINvMNtCsieiGu2EXtoJ_4core6optionINtB3_6OptionQTNtNtCsdGrGZaRBwMb_3syn3pat3PatNtNtBO_5token2OrEE3mapQBK_NCNCNvXsG_NtBO_10punctuatedINtB1O_14PrivateIterMutBK_B1e_ENtNtNtNtB5_4iter6traits12double_ended19DoubleEndedIterator9next_back00ECsituP22XUc15_12tokio_macros, symObjAddr: 0xE50, symBinAddr: 0x1A20, symSize: 0x50 }
  - { offset: 0x126E7, size: 0x8, addend: 0x0, symName: __RINvMNtCsieiGu2EXtoJ_4core6optionINtB3_6OptionQTNtNtCsdGrGZaRBwMb_3syn3pat3PatNtNtBO_5token2OrEE3mapQBK_NCNvXsF_NtBO_10punctuatedINtB1M_14PrivateIterMutBK_B1e_ENtNtNtNtB5_4iter6traits8iterator8Iterator4next0ECsituP22XUc15_12tokio_macros, symObjAddr: 0xEA0, symBinAddr: 0x1A70, symSize: 0x50 }
  - { offset: 0x12752, size: 0x8, addend: 0x0, symName: __RINvMNtCsieiGu2EXtoJ_4core6optionINtB3_6OptionQTNtNtCsdGrGZaRBwMb_3syn3pat3PatNtNtBO_5token5CommaEE3mapQBK_NCNCNvXsG_NtBO_10punctuatedINtB1R_14PrivateIterMutBK_B1e_ENtNtNtNtB5_4iter6traits12double_ended19DoubleEndedIterator9next_back00ECsituP22XUc15_12tokio_macros, symObjAddr: 0xEF0, symBinAddr: 0x1AC0, symSize: 0x50 }
  - { offset: 0x127BD, size: 0x8, addend: 0x0, symName: __RINvMNtCsieiGu2EXtoJ_4core6optionINtB3_6OptionQTNtNtCsdGrGZaRBwMb_3syn3pat3PatNtNtBO_5token5CommaEE3mapQBK_NCNvXsF_NtBO_10punctuatedINtB1P_14PrivateIterMutBK_B1e_ENtNtNtNtB5_4iter6traits8iterator8Iterator4next0ECsituP22XUc15_12tokio_macros, symObjAddr: 0xF40, symBinAddr: 0x1B10, symSize: 0x50 }
  - { offset: 0x12828, size: 0x8, addend: 0x0, symName: __RINvMNtCsieiGu2EXtoJ_4core6optionINtB3_6OptionQTNtNtCsdGrGZaRBwMb_3syn3pat8FieldPatNtNtBO_5token5CommaEE3mapQBK_NCNCNvXsG_NtBO_10punctuatedINtB1W_14PrivateIterMutBK_B1j_ENtNtNtNtB5_4iter6traits12double_ended19DoubleEndedIterator9next_back00ECsituP22XUc15_12tokio_macros, symObjAddr: 0xF90, symBinAddr: 0x1B60, symSize: 0x50 }
  - { offset: 0x12893, size: 0x8, addend: 0x0, symName: __RINvMNtCsieiGu2EXtoJ_4core6optionINtB3_6OptionQTNtNtCsdGrGZaRBwMb_3syn3pat8FieldPatNtNtBO_5token5CommaEE3mapQBK_NCNvXsF_NtBO_10punctuatedINtB1U_14PrivateIterMutBK_B1j_ENtNtNtNtB5_4iter6traits8iterator8Iterator4next0ECsituP22XUc15_12tokio_macros, symObjAddr: 0xFE0, symBinAddr: 0x1BB0, symSize: 0x50 }
  - { offset: 0x128FE, size: 0x8, addend: 0x0, symName: __RINvMNtCsieiGu2EXtoJ_4core6optionINtB3_6OptionRNtCsaKzlTDPUHDb_11proc_macro25IdentE10ok_or_elseNtNtCsdGrGZaRBwMb_3syn5error5ErrorNCNvNtCsituP22XUc15_12tokio_macros5entry12build_config0EB29_, symObjAddr: 0x1030, symBinAddr: 0x1C00, symSize: 0x90 }
  - { offset: 0x12969, size: 0x8, addend: 0x0, symName: __RINvMNtCsieiGu2EXtoJ_4core6optionINtB3_6OptionRNtCsaKzlTDPUHDb_11proc_macro25IdentE10ok_or_elseNtNtCsdGrGZaRBwMb_3syn5error5ErrorNCNvNtCsituP22XUc15_12tokio_macros5entry12build_configs_0EB29_, symObjAddr: 0x10C0, symBinAddr: 0x1C90, symSize: 0x90 }
  - { offset: 0x129EE, size: 0x8, addend: 0x0, symName: __RINvMNtCsieiGu2EXtoJ_4core6optionINtB3_6OptionRNtNtCsdGrGZaRBwMb_3syn4attr9AttributeE7or_elseNCINvXs_NtNtNtB5_4iter8adapters5chainINtB1B_5ChainINtNtNtB5_5slice4iter4IterBJ_EB2h_ENtNtNtB1F_6traits8iterator8Iterator4findNCNvNtCsituP22XUc15_12tokio_macros5entry4test0Es_0EB3A_, symObjAddr: 0x1150, symBinAddr: 0x1D20, symSize: 0x90 }
  - { offset: 0x12A6E, size: 0x8, addend: 0x0, symName: __RINvMNtCsieiGu2EXtoJ_4core6optionINtB3_6OptionTjNtCsaKzlTDPUHDb_11proc_macro24SpanEE3mapjNCNvMs0_NtCsituP22XUc15_12tokio_macros5entryNtB1x_13Configuration5build0EB1z_, symObjAddr: 0x11E0, symBinAddr: 0x1DB0, symSize: 0x50 }
  - { offset: 0x12AE4, size: 0x8, addend: 0x0, symName: __RINvNtCs9OU1sGv5X54_5quote9___private8get_spanNtCsaKzlTDPUHDb_11proc_macro24SpanECsituP22XUc15_12tokio_macros, symObjAddr: 0x1230, symBinAddr: 0x1E00, symSize: 0x20 }
  - { offset: 0x12B5A, size: 0x8, addend: 0x0, symName: __RNvXs5_NtCs9OU1sGv5X54_5quote9___privateINtB5_9RepInterpRNtCsaKzlTDPUHDb_11proc_macro211TokenStreamENtNtB7_9to_tokens8ToTokens9to_tokensCsituP22XUc15_12tokio_macros, symObjAddr: 0x4A10, symBinAddr: 0x5590, symSize: 0x30 }
  - { offset: 0x12B99, size: 0x8, addend: 0x0, symName: __RNvXs5_NtCs9OU1sGv5X54_5quote9___privateINtB5_9RepInterpRNtCsaKzlTDPUHDb_11proc_macro25IdentENtNtB7_9to_tokens8ToTokens9to_tokensCsituP22XUc15_12tokio_macros, symObjAddr: 0x4A40, symBinAddr: 0x55C0, symSize: 0x30 }
  - { offset: 0x12BDE, size: 0x8, addend: 0x0, symName: __RNvYINtNtCs9OU1sGv5X54_5quote9___private11HasIteratorKb1_EINtB5_16CheckHasIteratorKBQ_E5checkCsituP22XUc15_12tokio_macros, symObjAddr: 0x50F0, symBinAddr: 0x5C70, symSize: 0x10 }
  - { offset: 0x12C1A, size: 0x8, addend: 0x0, symName: __RNvYINtNtNtCsieiGu2EXtoJ_4core5slice4iter4IterNtCsaKzlTDPUHDb_11proc_macro25IdentENtNtNtCs9OU1sGv5X54_5quote9___private3ext14RepIteratorExt15quote_into_iterCsituP22XUc15_12tokio_macros, symObjAddr: 0x52F0, symBinAddr: 0x5E70, symSize: 0x20 }
  - { offset: 0x12CE2, size: 0x8, addend: 0x0, symName: __RNvXNtCs9OU1sGv5X54_5quote9to_tokensRNtNtCsdGrGZaRBwMb_3syn4path4PathNtB2_8ToTokens9to_tokensCsituP22XUc15_12tokio_macros, symObjAddr: 0x4190, symBinAddr: 0x4D20, symSize: 0x30 }
  - { offset: 0x12D21, size: 0x8, addend: 0x0, symName: __RNvXNtCs9OU1sGv5X54_5quote9to_tokensRReNtB2_8ToTokens9to_tokensCsituP22XUc15_12tokio_macros, symObjAddr: 0x41C0, symBinAddr: 0x4D50, symSize: 0x30 }
  - { offset: 0x12D60, size: 0x8, addend: 0x0, symName: __RNvXNtCs9OU1sGv5X54_5quote9to_tokensReNtB2_8ToTokens9to_tokensCsituP22XUc15_12tokio_macros, symObjAddr: 0x41F0, symBinAddr: 0x4D80, symSize: 0x30 }
  - { offset: 0x12DA5, size: 0x8, addend: 0x0, symName: __RNvYNtNtCsdGrGZaRBwMb_3syn4path4PathNtNtCs9OU1sGv5X54_5quote9to_tokens8ToTokens15to_token_streamCsituP22XUc15_12tokio_macros, symObjAddr: 0x5380, symBinAddr: 0x5F00, symSize: 0x90 }
  - { offset: 0x12DEF, size: 0x8, addend: 0x0, symName: __RNvYNtNtCsdGrGZaRBwMb_3syn4path4PathNtNtCs9OU1sGv5X54_5quote9to_tokens8ToTokens17into_token_streamCsituP22XUc15_12tokio_macros, symObjAddr: 0x5410, symBinAddr: 0x5F90, symSize: 0x60 }
  - { offset: 0x12E25, size: 0x8, addend: 0x0, symName: __RNvYRNtNtCsdGrGZaRBwMb_3syn4expr4ExprNtNtCs9OU1sGv5X54_5quote9to_tokens8ToTokens15to_token_streamCsituP22XUc15_12tokio_macros, symObjAddr: 0x57A0, symBinAddr: 0x6320, symSize: 0x90 }
  - { offset: 0x12E6F, size: 0x8, addend: 0x0, symName: __RNvYRNtNtCsdGrGZaRBwMb_3syn4expr4ExprNtNtCs9OU1sGv5X54_5quote9to_tokens8ToTokens17into_token_streamCsituP22XUc15_12tokio_macros, symObjAddr: 0x5830, symBinAddr: 0x63B0, symSize: 0x50 }
  - { offset: 0x12EA4, size: 0x8, addend: 0x0, symName: __RNvYRNtNtCsdGrGZaRBwMb_3syn4path4PathNtNtCs9OU1sGv5X54_5quote9to_tokens8ToTokens15to_token_streamCsituP22XUc15_12tokio_macros, symObjAddr: 0x5880, symBinAddr: 0x6400, symSize: 0x90 }
  - { offset: 0x12EEE, size: 0x8, addend: 0x0, symName: __RNvYRNtNtCsdGrGZaRBwMb_3syn4path4PathNtNtCs9OU1sGv5X54_5quote9to_tokens8ToTokens17into_token_streamCsituP22XUc15_12tokio_macros, symObjAddr: 0x5910, symBinAddr: 0x6490, symSize: 0x50 }
  - { offset: 0x1336B, size: 0x8, addend: 0x0, symName: __RNvMNtCsieiGu2EXtoJ_4core6optionINtB2_6OptionINtNtCslJiobkLta79_5alloc5boxed3BoxNtNtCsdGrGZaRBwMb_3syn3pat3PatEE6as_mutCsituP22XUc15_12tokio_macros, symObjAddr: 0x32B0, symBinAddr: 0x3E40, symSize: 0x50 }
  - { offset: 0x133C2, size: 0x8, addend: 0x0, symName: __RNvMNtCsieiGu2EXtoJ_4core6optionINtB2_6OptionINtNtCslJiobkLta79_5alloc5boxed3BoxNtNtCsdGrGZaRBwMb_3syn3pat8FieldPatEE6as_mutCsituP22XUc15_12tokio_macros, symObjAddr: 0x3300, symBinAddr: 0x3E90, symSize: 0x50 }
  - { offset: 0x13426, size: 0x8, addend: 0x0, symName: __RNvMNtCsieiGu2EXtoJ_4core6optionINtB2_6OptionINtNtCslJiobkLta79_5alloc5boxed3BoxNtNtCsdGrGZaRBwMb_3syn4attr4MetaEE4takeCsituP22XUc15_12tokio_macros, symObjAddr: 0x3350, symBinAddr: 0x3EE0, symSize: 0x20 }
  - { offset: 0x13499, size: 0x8, addend: 0x0, symName: __RNvMNtCsieiGu2EXtoJ_4core6optionINtB2_6OptionINtNtCslJiobkLta79_5alloc5boxed3BoxNtNtCsdGrGZaRBwMb_3syn4attr4MetaEE7is_noneCsituP22XUc15_12tokio_macros, symObjAddr: 0x3370, symBinAddr: 0x3F00, symSize: 0x30 }
  - { offset: 0x134E3, size: 0x8, addend: 0x0, symName: __RNvMNtCsieiGu2EXtoJ_4core6optionINtB2_6OptionINtNtCslJiobkLta79_5alloc5boxed3BoxNtNtCsdGrGZaRBwMb_3syn4attr4MetaEE7is_someCsituP22XUc15_12tokio_macros, symObjAddr: 0x33A0, symBinAddr: 0x3F30, symSize: 0x30 }
  - { offset: 0x1350F, size: 0x8, addend: 0x0, symName: __RNvMNtCsieiGu2EXtoJ_4core6optionINtB2_6OptionNtCsaKzlTDPUHDb_11proc_macro211TokenStreamE17unwrap_or_defaultCsituP22XUc15_12tokio_macros, symObjAddr: 0x33D0, symBinAddr: 0x3F60, symSize: 0x90 }
  - { offset: 0x13567, size: 0x8, addend: 0x0, symName: __RNvMNtCsieiGu2EXtoJ_4core6optionINtB2_6OptionNtNtCsdGrGZaRBwMb_3syn4path4PathE7is_someCsituP22XUc15_12tokio_macros, symObjAddr: 0x3460, symBinAddr: 0x3FF0, symSize: 0x30 }
  - { offset: 0x135BC, size: 0x8, addend: 0x0, symName: __RNvMNtCsieiGu2EXtoJ_4core6optionINtB2_6OptionNtNtCsdGrGZaRBwMb_3syn5token5AsyncE7is_noneCsituP22XUc15_12tokio_macros, symObjAddr: 0x3490, symBinAddr: 0x4020, symSize: 0x20 }
  - { offset: 0x1362F, size: 0x8, addend: 0x0, symName: __RNvMNtCsieiGu2EXtoJ_4core6optionINtB2_6OptionNtNtCsituP22XUc15_12tokio_macros5entry13RuntimeFlavorE7is_noneBL_, symObjAddr: 0x34B0, symBinAddr: 0x4040, symSize: 0x30 }
  - { offset: 0x13679, size: 0x8, addend: 0x0, symName: __RNvMNtCsieiGu2EXtoJ_4core6optionINtB2_6OptionNtNtCsituP22XUc15_12tokio_macros5entry13RuntimeFlavorE7is_someBL_, symObjAddr: 0x34E0, symBinAddr: 0x4070, symSize: 0x30 }
  - { offset: 0x136A5, size: 0x8, addend: 0x0, symName: __RNvMNtCsieiGu2EXtoJ_4core6optionINtB2_6OptionNtNtCsituP22XUc15_12tokio_macros5entry13RuntimeFlavorE9unwrap_orBL_, symObjAddr: 0x3510, symBinAddr: 0x40A0, symSize: 0x40 }
  - { offset: 0x13729, size: 0x8, addend: 0x0, symName: __RNvMNtCsieiGu2EXtoJ_4core6optionINtB2_6OptionTNtNtCsituP22XUc15_12tokio_macros5entry14UnhandledPanicNtCsaKzlTDPUHDb_11proc_macro24SpanEE7is_someBM_, symObjAddr: 0x3550, symBinAddr: 0x40E0, symSize: 0x30 }
  - { offset: 0x13780, size: 0x8, addend: 0x0, symName: __RNvMNtCsieiGu2EXtoJ_4core6optionINtB2_6OptionTbNtCsaKzlTDPUHDb_11proc_macro24SpanEE7is_someCsituP22XUc15_12tokio_macros, symObjAddr: 0x3580, symBinAddr: 0x4110, symSize: 0x30 }
  - { offset: 0x137B9, size: 0x8, addend: 0x0, symName: __RNvMNtCsieiGu2EXtoJ_4core6optionINtB2_6OptionTjNtCsaKzlTDPUHDb_11proc_macro24SpanEE7is_someCsituP22XUc15_12tokio_macros, symObjAddr: 0x35B0, symBinAddr: 0x4140, symSize: 0x20 }
  - { offset: 0x137E5, size: 0x8, addend: 0x0, symName: __RNvMs0_NtCsieiGu2EXtoJ_4core6optionINtB5_6OptionRNtCsaKzlTDPUHDb_11proc_macro211TokenStreamE6clonedCsituP22XUc15_12tokio_macros, symObjAddr: 0x35D0, symBinAddr: 0x4160, symSize: 0x80 }
  - { offset: 0x13858, size: 0x8, addend: 0x0, symName: __RNvMs1_NtNtCsieiGu2EXtoJ_4core3ptr8non_nullINtB5_7NonNullNtCsaKzlTDPUHDb_11proc_macro211TokenStreamE20offset_from_unsignedCsituP22XUc15_12tokio_macros, symObjAddr: 0x3650, symBinAddr: 0x41E0, symSize: 0x60 }
  - { offset: 0x13962, size: 0x8, addend: 0x0, symName: __RNvMs1_NtNtCsieiGu2EXtoJ_4core3ptr8non_nullINtB5_7NonNullNtNtCsdGrGZaRBwMb_3syn4attr4MetaE20offset_from_unsignedCsituP22XUc15_12tokio_macros, symObjAddr: 0x36B0, symBinAddr: 0x4240, symSize: 0x70 }
  - { offset: 0x13A5F, size: 0x8, addend: 0x0, symName: __RNvMs1_NtNtCsieiGu2EXtoJ_4core3ptr8non_nullINtB5_7NonNullReE20offset_from_unsignedCsituP22XUc15_12tokio_macros, symObjAddr: 0x3720, symBinAddr: 0x42B0, symSize: 0x60 }
  - { offset: 0x13B4F, size: 0x8, addend: 0x0, symName: __RNvMs1_NtNtCsieiGu2EXtoJ_4core3ptr8non_nullINtB5_7NonNullTNtNtCsdGrGZaRBwMb_3syn3pat3PatNtNtBY_5token2OrEE20offset_from_unsignedCsituP22XUc15_12tokio_macros, symObjAddr: 0x3780, symBinAddr: 0x4310, symSize: 0x70 }
  - { offset: 0x13C3F, size: 0x8, addend: 0x0, symName: __RNvMs1_NtNtCsieiGu2EXtoJ_4core3ptr8non_nullINtB5_7NonNullTNtNtCsdGrGZaRBwMb_3syn3pat3PatNtNtBY_5token5CommaEE20offset_from_unsignedCsituP22XUc15_12tokio_macros, symObjAddr: 0x37F0, symBinAddr: 0x4380, symSize: 0x70 }
  - { offset: 0x13D2F, size: 0x8, addend: 0x0, symName: __RNvMs1_NtNtCsieiGu2EXtoJ_4core3ptr8non_nullINtB5_7NonNullTNtNtCsdGrGZaRBwMb_3syn3pat8FieldPatNtNtBY_5token5CommaEE20offset_from_unsignedCsituP22XUc15_12tokio_macros, symObjAddr: 0x3860, symBinAddr: 0x43F0, symSize: 0x70 }
  - { offset: 0x13E57, size: 0x8, addend: 0x0, symName: __RNvMs1_NtNtCsieiGu2EXtoJ_4core3ptr8non_nullINtB5_7NonNullTNtNtCsdGrGZaRBwMb_3syn4attr4MetaNtNtBY_5token5CommaEE20offset_from_unsignedCsituP22XUc15_12tokio_macros, symObjAddr: 0x38D0, symBinAddr: 0x4460, symSize: 0x70 }
  - { offset: 0x13F2B, size: 0x8, addend: 0x0, symName: __RNvMs3_NtCs9OU1sGv5X54_5quote9___privateINtB5_9RepInterpRNtCsaKzlTDPUHDb_11proc_macro25IdentE4nextCsituP22XUc15_12tokio_macros, symObjAddr: 0x3940, symBinAddr: 0x44D0, symSize: 0x20 }
  - { offset: 0x13FF8, size: 0x8, addend: 0x0, symName: __RNvMs4_NtNtCsieiGu2EXtoJ_4core5slice4iterINtB5_4IterNtCsaKzlTDPUHDb_11proc_macro211TokenStreamE3newCsituP22XUc15_12tokio_macros, symObjAddr: 0x3960, symBinAddr: 0x44F0, symSize: 0x50 }
  - { offset: 0x141B2, size: 0x8, addend: 0x0, symName: __RNvMs4_NtNtCsieiGu2EXtoJ_4core5slice4iterINtB5_4IterNtCsaKzlTDPUHDb_11proc_macro25IdentE3newCsituP22XUc15_12tokio_macros, symObjAddr: 0x39B0, symBinAddr: 0x4540, symSize: 0x50 }
  - { offset: 0x143D0, size: 0x8, addend: 0x0, symName: __RNvMs6_NtNtNtCsieiGu2EXtoJ_4core5array4iter10iter_innerINtB5_15PolymorphicIterSINtNtNtBb_3mem12maybe_uninit11MaybeUninitNtCsaKzlTDPUHDb_11proc_macro29TokenTreeEE4nextCsituP22XUc15_12tokio_macros, symObjAddr: 0x3A00, symBinAddr: 0x4590, symSize: 0x230 }
  - { offset: 0x1472B, size: 0x8, addend: 0x0, symName: __RNvMs6_NtNtNtCsieiGu2EXtoJ_4core5array4iter10iter_innerINtB5_15PolymorphicIterSINtNtNtBb_3mem12maybe_uninit11MaybeUninitReEE4nextCsituP22XUc15_12tokio_macros, symObjAddr: 0x3C30, symBinAddr: 0x47C0, symSize: 0x1C0 }
  - { offset: 0x14A0C, size: 0x8, addend: 0x0, symName: __RNvMsa_NtNtCsieiGu2EXtoJ_4core5slice4iterINtB5_7IterMutTNtNtCsdGrGZaRBwMb_3syn3pat3PatNtNtBW_5token2OrEE3newCsituP22XUc15_12tokio_macros, symObjAddr: 0x3DF0, symBinAddr: 0x4980, symSize: 0x50 }
  - { offset: 0x14BAC, size: 0x8, addend: 0x0, symName: __RNvMsa_NtNtCsieiGu2EXtoJ_4core5slice4iterINtB5_7IterMutTNtNtCsdGrGZaRBwMb_3syn3pat3PatNtNtBW_5token5CommaEE3newCsituP22XUc15_12tokio_macros, symObjAddr: 0x3E40, symBinAddr: 0x49D0, symSize: 0x50 }
  - { offset: 0x14D4C, size: 0x8, addend: 0x0, symName: __RNvMsa_NtNtCsieiGu2EXtoJ_4core5slice4iterINtB5_7IterMutTNtNtCsdGrGZaRBwMb_3syn3pat8FieldPatNtNtBW_5token5CommaEE3newCsituP22XUc15_12tokio_macros, symObjAddr: 0x3E90, symBinAddr: 0x4A20, symSize: 0x50 }
  - { offset: 0x15E5D, size: 0x8, addend: 0x0, symName: __RINvMNtCsieiGu2EXtoJ_4core6resultINtB3_6ResultINtNtCsdGrGZaRBwMb_3syn10punctuated10PunctuatedNtNtBN_4attr4MetaNtNtBN_5token5CommaENtNtBN_5error5ErrorE8and_thenNtNtCsituP22XUc15_12tokio_macros5entry11FinalConfigNCNvB2z_4main0EB2B_, symObjAddr: 0x0, symBinAddr: 0x64E0, symSize: 0x100 }
  - { offset: 0x15F39, size: 0x8, addend: 0x0, symName: __RNCNvXs1_NtNtNtCsHUR1vrdMJt_3std2io5error14repr_bitpackedNtB7_4ReprNtNtNtCsieiGu2EXtoJ_4core3ops4drop4Drop4drop0CsituP22XUc15_12tokio_macros, symObjAddr: 0x25F0, symBinAddr: 0x8AD0, symSize: 0x30 }
  - { offset: 0x15FEE, size: 0x8, addend: 0x0, symName: __RNvXs1_NtNtNtCsHUR1vrdMJt_3std2io5error14repr_bitpackedNtB5_4ReprNtNtNtCsieiGu2EXtoJ_4core3ops4drop4Drop4dropCsituP22XUc15_12tokio_macros, symObjAddr: 0x49A0, symBinAddr: 0xAE80, symSize: 0x30 }
  - { offset: 0x16017, size: 0x8, addend: 0x0, symName: __RINvNtNtNtCsHUR1vrdMJt_3std2io5error14repr_bitpacked11decode_reprINtNtCslJiobkLta79_5alloc5boxed3BoxNtB4_6CustomENCNvXs1_B2_NtB2_4ReprNtNtNtCsieiGu2EXtoJ_4core3ops4drop4Drop4drop0ECsituP22XUc15_12tokio_macros, symObjAddr: 0xB10, symBinAddr: 0x6FF0, symSize: 0x200 }
  - { offset: 0x16278, size: 0x8, addend: 0x0, symName: __RNvNtNtNtCsHUR1vrdMJt_3std2io5error14repr_bitpacked14kind_from_primCsituP22XUc15_12tokio_macros, symObjAddr: 0x3670, symBinAddr: 0x9B50, symSize: 0x5B0 }
  - { offset: 0x16D7C, size: 0x8, addend: 0x0, symName: __RNCNvMs3_NtNtCsHUR1vrdMJt_3std6thread5localINtB7_8LocalKeyINtNtCsieiGu2EXtoJ_4core4cell4CellPuEE7replace0CsituP22XUc15_12tokio_macros, symObjAddr: 0x25D0, symBinAddr: 0x8AB0, symSize: 0x20 }
  - { offset: 0x17FA9, size: 0x8, addend: 0x0, symName: __RNvNvMsd_NtNtCsieiGu2EXtoJ_4core3num7nonzeroINtB7_7NonZeropE13new_unchecked18precondition_checkCsituP22XUc15_12tokio_macros, symObjAddr: 0x3D70, symBinAddr: 0xA250, symSize: 0x80 }
  - { offset: 0x180A1, size: 0x8, addend: 0x0, symName: __RNvNvMs3_NtCsieiGu2EXtoJ_4core3numi13unchecked_neg18precondition_checkCsituP22XUc15_12tokio_macros, symObjAddr: 0x3C20, symBinAddr: 0xA100, symSize: 0xB0 }
  - { offset: 0x18279, size: 0x8, addend: 0x0, symName: __RNvNvMs9_NtCsieiGu2EXtoJ_4core3numj13unchecked_add18precondition_checkCsituP22XUc15_12tokio_macros, symObjAddr: 0x3CD0, symBinAddr: 0xA1B0, symSize: 0xA0 }
  - { offset: 0x1841D, size: 0x8, addend: 0x0, symName: __RNvMsu_NtCsieiGu2EXtoJ_4core3numj16from_ascii_radixCsituP22XUc15_12tokio_macros, symObjAddr: 0x2FC0, symBinAddr: 0x94A0, symSize: 0x610 }
  - { offset: 0x186CA, size: 0x8, addend: 0x0, symName: __RNvXst_NtCsieiGu2EXtoJ_4core3numjNtNtNtB7_3str6traits7FromStr8from_strCsituP22XUc15_12tokio_macros, symObjAddr: 0x6550, symBinAddr: 0xCA30, symSize: 0x40 }
  - { offset: 0x18EDE, size: 0x8, addend: 0x0, symName: __RNvXsq_NtCsieiGu2EXtoJ_4core6resultINtB5_6ResultINtNtCsdGrGZaRBwMb_3syn10punctuated10PunctuatedNtNtBP_4attr4MetaNtNtBP_5token5CommaENtNtBP_5error5ErrorEINtNtNtB7_3ops9try_trait12FromResidualIBy_NtNtB7_7convert10InfallibleB26_EE13from_residualCsituP22XUc15_12tokio_macros, symObjAddr: 0x63D0, symBinAddr: 0xC8B0, symSize: 0x60 }
  - { offset: 0x18F63, size: 0x8, addend: 0x0, symName: __RNvXsq_NtCsieiGu2EXtoJ_4core6resultINtB5_6ResultNtNtCsdGrGZaRBwMb_3syn4path4PathNtNtBO_5error5ErrorEINtNtNtB7_3ops9try_trait12FromResidualIBy_NtNtB7_7convert10InfallibleNtCsaKzlTDPUHDb_11proc_macro28LexErrorEE13from_residualCsituP22XUc15_12tokio_macros, symObjAddr: 0x6430, symBinAddr: 0xC910, symSize: 0x60 }
  - { offset: 0x18FCA, size: 0x8, addend: 0x0, symName: __RNvXsq_NtCsieiGu2EXtoJ_4core6resultINtB5_6ResultNtNtCsituP22XUc15_12tokio_macros5entry11FinalConfigNtNtCsdGrGZaRBwMb_3syn5error5ErrorEINtNtNtB7_3ops9try_trait12FromResidualIBy_NtNtB7_7convert10InfallibleB1z_EE13from_residualBO_, symObjAddr: 0x6490, symBinAddr: 0xC970, symSize: 0x60 }
  - { offset: 0x1904F, size: 0x8, addend: 0x0, symName: __RNvXsq_NtCsieiGu2EXtoJ_4core6resultINtB5_6ResultNtNtCsituP22XUc15_12tokio_macros5entry6ItemFnNtNtCsdGrGZaRBwMb_3syn5error5ErrorEINtNtNtB7_3ops9try_trait12FromResidualIBy_NtNtB7_7convert10InfallibleB1t_EE13from_residualBO_, symObjAddr: 0x64F0, symBinAddr: 0xC9D0, symSize: 0x60 }
  - { offset: 0x19269, size: 0x8, addend: 0x0, symName: __RNvXsp_NtCsieiGu2EXtoJ_4core6resultINtB5_6ResultINtNtCsdGrGZaRBwMb_3syn10punctuated10PunctuatedNtNtBP_4attr4MetaNtNtBP_5token5CommaENtNtBP_5error5ErrorENtNtNtB7_3ops9try_trait3Try6branchCsituP22XUc15_12tokio_macros, symObjAddr: 0x5DC0, symBinAddr: 0xC2A0, symSize: 0xE0 }
  - { offset: 0x192E7, size: 0x8, addend: 0x0, symName: __RNvXsp_NtCsieiGu2EXtoJ_4core6resultINtB5_6ResultNtCsaKzlTDPUHDb_11proc_macro29TokenTreeNtNtCsdGrGZaRBwMb_3syn5error5ErrorENtNtNtB7_3ops9try_trait3Try6branchCsituP22XUc15_12tokio_macros, symObjAddr: 0x5EA0, symBinAddr: 0xC380, symSize: 0xD0 }
  - { offset: 0x19365, size: 0x8, addend: 0x0, symName: __RNvXsp_NtCsieiGu2EXtoJ_4core6resultINtB5_6ResultNtNtCsituP22XUc15_12tokio_macros5entry13RuntimeFlavorNtNtCsdGrGZaRBwMb_3syn5error5ErrorENtNtNtB7_3ops9try_trait3Try6branchBO_, symObjAddr: 0x5F70, symBinAddr: 0xC450, symSize: 0xB0 }
  - { offset: 0x193E2, size: 0x8, addend: 0x0, symName: __RNvXsp_NtCsieiGu2EXtoJ_4core6resultINtB5_6ResultNtNtCsituP22XUc15_12tokio_macros5entry14UnhandledPanicNtNtCsdGrGZaRBwMb_3syn5error5ErrorENtNtNtB7_3ops9try_trait3Try6branchBO_, symObjAddr: 0x6020, symBinAddr: 0xC500, symSize: 0xB0 }
  - { offset: 0x1945F, size: 0x8, addend: 0x0, symName: __RNvXsp_NtCsieiGu2EXtoJ_4core6resultINtB5_6ResultNtNtCsituP22XUc15_12tokio_macros5entry6ItemFnNtNtCsdGrGZaRBwMb_3syn5error5ErrorENtNtNtB7_3ops9try_trait3Try6branchBO_, symObjAddr: 0x60D0, symBinAddr: 0xC5B0, symSize: 0xE0 }
  - { offset: 0x194DD, size: 0x8, addend: 0x0, symName: __RNvXsp_NtCsieiGu2EXtoJ_4core6resultINtB5_6ResultNtNtCslJiobkLta79_5alloc6string6StringNtNtCsdGrGZaRBwMb_3syn5error5ErrorENtNtNtB7_3ops9try_trait3Try6branchCsituP22XUc15_12tokio_macros, symObjAddr: 0x61B0, symBinAddr: 0xC690, symSize: 0xC0 }
  - { offset: 0x1955B, size: 0x8, addend: 0x0, symName: __RNvXsp_NtCsieiGu2EXtoJ_4core6resultINtB5_6ResultRNtCsaKzlTDPUHDb_11proc_macro25IdentNtNtCsdGrGZaRBwMb_3syn5error5ErrorENtNtNtB7_3ops9try_trait3Try6branchCsituP22XUc15_12tokio_macros, symObjAddr: 0x6270, symBinAddr: 0xC750, symSize: 0xB0 }
  - { offset: 0x195D8, size: 0x8, addend: 0x0, symName: __RNvXsp_NtCsieiGu2EXtoJ_4core6resultINtB5_6ResultjNtNtCsdGrGZaRBwMb_3syn5error5ErrorENtNtNtB7_3ops9try_trait3Try6branchCsituP22XUc15_12tokio_macros, symObjAddr: 0x6320, symBinAddr: 0xC800, symSize: 0xB0 }
  - { offset: 0x1CC59, size: 0x8, addend: 0x0, symName: __RINvXs_NtNtCsieiGu2EXtoJ_4core3ops11index_rangeNtB5_10IndexRangeNtNtNtNtB9_4iter6traits8iterator8Iterator8try_folduNCINvMs6_NtNtNtB9_5array4iter10iter_innerINtB1Y_15PolymorphicIterSINtNtNtB9_3mem12maybe_uninit11MaybeUninitARej4_EE8try_folduNCINvNvB10_3any5checkB3y_NCNvNtCsituP22XUc15_12tokio_macros5entry17is_test_attribute0E0INtNtB7_12control_flow11ControlFlowuEE0B5f_EB4l_, symObjAddr: 0x1AB0, symBinAddr: 0x7F90, symSize: 0x130 }
  - { offset: 0x1CD65, size: 0x8, addend: 0x0, symName: __RINvXs_NtNtCsieiGu2EXtoJ_4core3ops11index_rangeNtB5_10IndexRangeNtNtNtNtB9_4iter6traits8iterator8Iterator8try_folduNCINvMs6_NtNtNtB9_5array4iter10iter_innerINtB1Y_15PolymorphicIterSINtNtNtB9_3mem12maybe_uninit11MaybeUninitNtCsaKzlTDPUHDb_11proc_macro29TokenTreeEE8try_folduNCINvMNtB7_9try_traitINtB4t_17NeverShortCircuituE10wrap_mut_2uB3y_NCINvNvB10_8for_each4callB3y_NCINvXsa_NtB3A_8fallbackNtB63_11TokenStreamINtNtB14_7collect6ExtendB3y_E6extendAB3y_j1_E0E0E0B4I_E0B4I_ECsituP22XUc15_12tokio_macros, symObjAddr: 0x1BE0, symBinAddr: 0x80C0, symSize: 0xE0 }
  - { offset: 0x1D3A2, size: 0x8, addend: 0x0, symName: __RNvMNtCsieiGu2EXtoJ_4core5sliceSTNtNtCsdGrGZaRBwMb_3syn3pat3PatNtNtBz_5token2OrE8iter_mutCsituP22XUc15_12tokio_macros, symObjAddr: 0x26E0, symBinAddr: 0x8BC0, symSize: 0x20 }
  - { offset: 0x1D3D9, size: 0x8, addend: 0x0, symName: __RNvMNtCsieiGu2EXtoJ_4core5sliceSTNtNtCsdGrGZaRBwMb_3syn3pat3PatNtNtBz_5token5CommaE8iter_mutCsituP22XUc15_12tokio_macros, symObjAddr: 0x2700, symBinAddr: 0x8BE0, symSize: 0x20 }
  - { offset: 0x1D410, size: 0x8, addend: 0x0, symName: __RNvMNtCsieiGu2EXtoJ_4core5sliceSTNtNtCsdGrGZaRBwMb_3syn3pat8FieldPatNtNtBz_5token5CommaE8iter_mutCsituP22XUc15_12tokio_macros, symObjAddr: 0x2720, symBinAddr: 0x8C00, symSize: 0x20 }
  - { offset: 0x1D495, size: 0x8, addend: 0x0, symName: __RNvMNtCsieiGu2EXtoJ_4core5sliceSh15copy_from_sliceCsituP22XUc15_12tokio_macros, symObjAddr: 0x2740, symBinAddr: 0x8C20, symSize: 0xA0 }
  - { offset: 0x1D6A6, size: 0x8, addend: 0x0, symName: __RNvNvNtNtCsieiGu2EXtoJ_4core5slice3raw14from_raw_parts18precondition_checkCsituP22XUc15_12tokio_macros, symObjAddr: 0x3DF0, symBinAddr: 0xA2D0, symSize: 0x260 }
  - { offset: 0x1D874, size: 0x8, addend: 0x0, symName: __RNvNvNtNtCsieiGu2EXtoJ_4core5slice3raw18from_raw_parts_mut18precondition_checkCsituP22XUc15_12tokio_macros, symObjAddr: 0x4050, symBinAddr: 0xA530, symSize: 0x260 }
  - { offset: 0x1DA7D, size: 0x8, addend: 0x0, symName: __RNvNvXs0_NtNtCsieiGu2EXtoJ_4core5slice5indexjINtB7_10SliceIndexSpE13get_unchecked18precondition_checkCsituP22XUc15_12tokio_macros, symObjAddr: 0x42B0, symBinAddr: 0xA790, symSize: 0xA0 }
  - { offset: 0x1DAF1, size: 0x8, addend: 0x0, symName: __RNvNvXs1_NtNtCsieiGu2EXtoJ_4core5slice5indexNtNtNtBb_3ops11index_range10IndexRangeINtB7_10SliceIndexSpE17get_unchecked_mut18precondition_checkCsituP22XUc15_12tokio_macros, symObjAddr: 0x4350, symBinAddr: 0xA830, symSize: 0xA0 }
  - { offset: 0x1DD75, size: 0x8, addend: 0x0, symName: __RNvXsn_NtNtCsieiGu2EXtoJ_4core5panic11unwind_safeINtB5_16AssertUnwindSafeNCINvNtNtCscKtU6MdFI5n_10proc_macro6bridge6client10run_clientNtB1e_11TokenStreamINtNtB9_6option6OptionB28_ENCNCINvMs6_B1e_INtB1e_6ClientNtB1i_11TokenStreamB3l_E7expand1NvCsituP22XUc15_12tokio_macros25select_priv_clean_patternE00E0EINtNtNtB9_3ops8function6FnOnceuE9call_onceB3T_, symObjAddr: 0x5B00, symBinAddr: 0xBFE0, symSize: 0x30 }
  - { offset: 0x1DDCD, size: 0x8, addend: 0x0, symName: __RNvXsn_NtNtCsieiGu2EXtoJ_4core5panic11unwind_safeINtB5_16AssertUnwindSafeNCINvNtNtCscKtU6MdFI5n_10proc_macro6bridge6client10run_clientNtB1e_11TokenStreamINtNtB9_6option6OptionB28_ENCNCINvMs6_B1e_INtB1e_6ClientNtB1i_11TokenStreamB3l_E7expand1NvCsituP22XUc15_12tokio_macros31select_priv_declare_output_enumE00E0EINtNtNtB9_3ops8function6FnOnceuE9call_onceB3T_, symObjAddr: 0x5B30, symBinAddr: 0xC010, symSize: 0x30 }
  - { offset: 0x1DE25, size: 0x8, addend: 0x0, symName: __RNvXsn_NtNtCsieiGu2EXtoJ_4core5panic11unwind_safeINtB5_16AssertUnwindSafeNCINvNtNtCscKtU6MdFI5n_10proc_macro6bridge6client10run_clientTNtB1e_11TokenStreamB29_EINtNtB9_6option6OptionB29_ENCNCINvMs7_B1e_INtB1e_6ClientTNtB1i_11TokenStreamB3s_EB3s_E7expand2NvCsituP22XUc15_12tokio_macros4mainE00E0EINtNtNtB9_3ops8function6FnOnceuE9call_onceB45_, symObjAddr: 0x5B60, symBinAddr: 0xC040, symSize: 0x30 }
  - { offset: 0x1DE7D, size: 0x8, addend: 0x0, symName: __RNvXsn_NtNtCsieiGu2EXtoJ_4core5panic11unwind_safeINtB5_16AssertUnwindSafeNCINvNtNtCscKtU6MdFI5n_10proc_macro6bridge6client10run_clientTNtB1e_11TokenStreamB29_EINtNtB9_6option6OptionB29_ENCNCINvMs7_B1e_INtB1e_6ClientTNtB1i_11TokenStreamB3s_EB3s_E7expand2NvCsituP22XUc15_12tokio_macros4testE00E0EINtNtNtB9_3ops8function6FnOnceuE9call_onceB45_, symObjAddr: 0x5B90, symBinAddr: 0xC070, symSize: 0x30 }
  - { offset: 0x1DED5, size: 0x8, addend: 0x0, symName: __RNvXsn_NtNtCsieiGu2EXtoJ_4core5panic11unwind_safeINtB5_16AssertUnwindSafeNCINvNtNtCscKtU6MdFI5n_10proc_macro6bridge6client10run_clientTNtB1e_11TokenStreamB29_EINtNtB9_6option6OptionB29_ENCNCINvMs7_B1e_INtB1e_6ClientTNtB1i_11TokenStreamB3s_EB3s_E7expand2NvCsituP22XUc15_12tokio_macros7main_rtE00E0EINtNtNtB9_3ops8function6FnOnceuE9call_onceB45_, symObjAddr: 0x5BC0, symBinAddr: 0xC0A0, symSize: 0x30 }
  - { offset: 0x1DF2D, size: 0x8, addend: 0x0, symName: __RNvXsn_NtNtCsieiGu2EXtoJ_4core5panic11unwind_safeINtB5_16AssertUnwindSafeNCINvNtNtCscKtU6MdFI5n_10proc_macro6bridge6client10run_clientTNtB1e_11TokenStreamB29_EINtNtB9_6option6OptionB29_ENCNCINvMs7_B1e_INtB1e_6ClientTNtB1i_11TokenStreamB3s_EB3s_E7expand2NvCsituP22XUc15_12tokio_macros7test_rtE00E0EINtNtNtB9_3ops8function6FnOnceuE9call_onceB45_, symObjAddr: 0x5BF0, symBinAddr: 0xC0D0, symSize: 0x30 }
  - { offset: 0x1DF85, size: 0x8, addend: 0x0, symName: __RNvXsn_NtNtCsieiGu2EXtoJ_4core5panic11unwind_safeINtB5_16AssertUnwindSafeNCINvNtNtCscKtU6MdFI5n_10proc_macro6bridge6client10run_clientTNtB1e_11TokenStreamB29_EINtNtB9_6option6OptionB29_ENCNCINvMs7_B1e_INtB1e_6ClientTNtB1i_11TokenStreamB3s_EB3s_E7expand2NvCsituP22XUc15_12tokio_macros9main_failE00E0EINtNtNtB9_3ops8function6FnOnceuE9call_onceB45_, symObjAddr: 0x5C20, symBinAddr: 0xC100, symSize: 0x30 }
  - { offset: 0x1DFDD, size: 0x8, addend: 0x0, symName: __RNvXsn_NtNtCsieiGu2EXtoJ_4core5panic11unwind_safeINtB5_16AssertUnwindSafeNCINvNtNtCscKtU6MdFI5n_10proc_macro6bridge6client10run_clientTNtB1e_11TokenStreamB29_EINtNtB9_6option6OptionB29_ENCNCINvMs7_B1e_INtB1e_6ClientTNtB1i_11TokenStreamB3s_EB3s_E7expand2NvCsituP22XUc15_12tokio_macros9test_failE00E0EINtNtNtB9_3ops8function6FnOnceuE9call_onceB45_, symObjAddr: 0x5C50, symBinAddr: 0xC130, symSize: 0x30 }
  - { offset: 0x1E17E, size: 0x8, addend: 0x0, symName: __RINvXs0_NtNtNtCsieiGu2EXtoJ_4core4iter8adapters3mapINtB6_3MapIBO_IBO_INtNtB8_3zip3ZipINtNtNtBc_5slice4iter4IterNtCsaKzlTDPUHDb_11proc_macro211TokenStreamEIB1m_ReEENCNvNtCsituP22XUc15_12tokio_macros5entry11parse_knobss1_0ENCINvXsb_B1N_B1L_INtNtNtBa_6traits7collect12FromIteratorB1L_E9from_iterB11_E0ENCINvXs6_NtB1N_3impNtB4W_11TokenStreamIB3P_B56_E9from_iterBX_E0ENtNtB3T_8iterator8Iterator4folduNCINvNvB5P_8for_each4callNtCscKtU6MdFI5n_10proc_macro11TokenStreamNCINvXsj_B6M_B6K_INtB3R_6ExtendB6K_E6extendBN_E0E0EB2H_, symObjAddr: 0x1370, symBinAddr: 0x7850, symSize: 0x40 }
  - { offset: 0x1E1F0, size: 0x8, addend: 0x0, symName: __RINvXs0_NtNtNtCsieiGu2EXtoJ_4core4iter8adapters3mapINtB6_3MapIBO_INtNtB8_3zip3ZipINtNtNtBc_5slice4iter4IterNtCsaKzlTDPUHDb_11proc_macro211TokenStreamEIB1i_ReEENCNvNtCsituP22XUc15_12tokio_macros5entry11parse_knobss1_0ENCINvXsb_B1J_B1H_INtNtNtBa_6traits7collect12FromIteratorB1H_E9from_iterBX_E0ENtNtB3P_8iterator8Iterator4folduNCINvB6_8map_foldNtNtB1J_3imp11TokenStreamNtCscKtU6MdFI5n_10proc_macro11TokenStreamuNCINvXs6_B5x_B5v_IB3L_B5v_E9from_iterBN_E0NCINvNvB4I_8for_each4callB5U_NCINvXsj_B5W_B5U_INtB3N_6ExtendB5U_E6extendIBO_BN_B6A_EE0E0E0EB2D_, symObjAddr: 0x13B0, symBinAddr: 0x7890, symSize: 0x40 }
  - { offset: 0x1E262, size: 0x8, addend: 0x0, symName: __RINvXs0_NtNtNtCsieiGu2EXtoJ_4core4iter8adapters3mapINtB6_3MapINtNtB8_3zip3ZipINtNtNtBc_5slice4iter4IterNtCsaKzlTDPUHDb_11proc_macro211TokenStreamEIB1e_ReEENCNvNtCsituP22XUc15_12tokio_macros5entry11parse_knobss1_0ENtNtNtBa_6traits8iterator8Iterator4folduNCINvB6_8map_foldB1D_NtNtB1F_3imp11TokenStreamuNCINvXsb_B1F_B1D_INtNtB3t_7collect12FromIteratorB1D_E9from_iterBN_E0NCIB46_B4o_NtCscKtU6MdFI5n_10proc_macro11TokenStreamuNCINvXs6_B4q_B4o_IB56_B4o_E9from_iterIBO_BN_B4O_EE0NCINvNvB3p_8for_each4callB65_NCINvXsj_B67_B65_INtB58_6ExtendB65_E6extendIBO_B7m_B6L_EE0E0E0E0EB2z_, symObjAddr: 0x13F0, symBinAddr: 0x78D0, symSize: 0x40 }
  - { offset: 0x1E2D4, size: 0x8, addend: 0x0, symName: __RINvXs0_NtNtNtCsieiGu2EXtoJ_4core4iter8adapters3mapINtB6_3MapINtNtNtBc_3ops5range5RangejENCNvNtCsituP22XUc15_12tokio_macros6select19declare_output_enum0ENtNtNtBa_6traits8iterator8Iterator4folduNCINvNvB2r_8for_each4callNtCsaKzlTDPUHDb_11proc_macro25IdentNCINvMsi_NtCslJiobkLta79_5alloc3vecINtB4c_3VecB3u_E14extend_trustedBN_E0E0EB1v_, symObjAddr: 0x1430, symBinAddr: 0x7910, symSize: 0x40 }
  - { offset: 0x1E36B, size: 0x8, addend: 0x0, symName: __RNvXs0_NtNtNtCsieiGu2EXtoJ_4core4iter8adapters3mapINtB5_3MapIBN_IBN_INtNtB7_3zip3ZipINtNtNtBb_5slice4iter4IterNtCsaKzlTDPUHDb_11proc_macro211TokenStreamEIB1l_ReEENCNvNtCsituP22XUc15_12tokio_macros5entry11parse_knobss1_0ENCINvXsb_B1M_B1K_INtNtNtB9_6traits7collect12FromIteratorB1K_E9from_iterB10_E0ENCINvXs6_NtB1M_3impNtB4V_11TokenStreamIB3O_B55_E9from_iterBW_E0ENtNtB3S_8iterator8Iterator9size_hintB2G_, symObjAddr: 0x4540, symBinAddr: 0xAA20, symSize: 0x30 }
  - { offset: 0x1E3B2, size: 0x8, addend: 0x0, symName: __RNvXs0_NtNtNtCsieiGu2EXtoJ_4core4iter8adapters3mapINtB5_3MapIBN_IBN_INtNtB7_3zip3ZipINtNtNtBb_5slice4iter4IterNtCsaKzlTDPUHDb_11proc_macro211TokenStreamEIB1l_ReEENCNvNtCsituP22XUc15_12tokio_macros5entry11parse_knobss1_0ENCINvXsb_B1M_B1K_INtNtNtB9_6traits7collect12FromIteratorB1K_E9from_iterB10_E0ENCINvXs6_NtB1M_3impNtB4V_11TokenStreamIB3O_B55_E9from_iterBW_Es_0ENtNtB3S_8iterator8Iterator4nextB2G_, symObjAddr: 0x4570, symBinAddr: 0xAA50, symSize: 0xC0 }
  - { offset: 0x1E460, size: 0x8, addend: 0x0, symName: __RNvXs0_NtNtNtCsieiGu2EXtoJ_4core4iter8adapters3mapINtB5_3MapIBN_IBN_INtNtB7_3zip3ZipINtNtNtBb_5slice4iter4IterNtCsaKzlTDPUHDb_11proc_macro211TokenStreamEIB1l_ReEENCNvNtCsituP22XUc15_12tokio_macros5entry11parse_knobss1_0ENCINvXsb_B1M_B1K_INtNtNtB9_6traits7collect12FromIteratorB1K_E9from_iterB10_E0ENCINvXs6_NtB1M_3impNtB4V_11TokenStreamIB3O_B55_E9from_iterBW_Es_0ENtNtB3S_8iterator8Iterator9size_hintB2G_, symObjAddr: 0x4630, symBinAddr: 0xAB10, symSize: 0x30 }
  - { offset: 0x1E4A7, size: 0x8, addend: 0x0, symName: __RNvXs0_NtNtNtCsieiGu2EXtoJ_4core4iter8adapters3mapINtB5_3MapIBN_INtNtB7_3zip3ZipINtNtNtBb_5slice4iter4IterNtCsaKzlTDPUHDb_11proc_macro211TokenStreamEIB1h_ReEENCNvNtCsituP22XUc15_12tokio_macros5entry11parse_knobss1_0ENCINvXsb_B1I_B1G_INtNtNtB9_6traits7collect12FromIteratorB1G_E9from_iterBW_E0ENtNtB3O_8iterator8Iterator4nextB2C_, symObjAddr: 0x4660, symBinAddr: 0xAB40, symSize: 0x120 }
  - { offset: 0x1E555, size: 0x8, addend: 0x0, symName: __RNvXs0_NtNtNtCsieiGu2EXtoJ_4core4iter8adapters3mapINtB5_3MapIBN_INtNtB7_3zip3ZipINtNtNtBb_5slice4iter4IterNtCsaKzlTDPUHDb_11proc_macro211TokenStreamEIB1h_ReEENCNvNtCsituP22XUc15_12tokio_macros5entry11parse_knobss1_0ENCINvXsb_B1I_B1G_INtNtNtB9_6traits7collect12FromIteratorB1G_E9from_iterBW_E0ENtNtB3O_8iterator8Iterator9size_hintB2C_, symObjAddr: 0x4780, symBinAddr: 0xAC60, symSize: 0x30 }
  - { offset: 0x1E59C, size: 0x8, addend: 0x0, symName: __RNvXs0_NtNtNtCsieiGu2EXtoJ_4core4iter8adapters3mapINtB5_3MapINtNtB7_3zip3ZipINtNtNtBb_5slice4iter4IterNtCsaKzlTDPUHDb_11proc_macro211TokenStreamEIB1d_ReEENCNvNtCsituP22XUc15_12tokio_macros5entry11parse_knobss1_0ENtNtNtB9_6traits8iterator8Iterator4nextB2y_, symObjAddr: 0x47B0, symBinAddr: 0xAC90, symSize: 0xD0 }
  - { offset: 0x1E649, size: 0x8, addend: 0x0, symName: __RNvXs0_NtNtNtCsieiGu2EXtoJ_4core4iter8adapters3mapINtB5_3MapINtNtB7_3zip3ZipINtNtNtBb_5slice4iter4IterNtCsaKzlTDPUHDb_11proc_macro211TokenStreamEIB1d_ReEENCNvNtCsituP22XUc15_12tokio_macros5entry11parse_knobss1_0ENtNtNtB9_6traits8iterator8Iterator9size_hintB2y_, symObjAddr: 0x4880, symBinAddr: 0xAD60, symSize: 0x30 }
  - { offset: 0x1E690, size: 0x8, addend: 0x0, symName: __RNvXs0_NtNtNtCsieiGu2EXtoJ_4core4iter8adapters3mapINtB5_3MapINtNtNtBb_3ops5range5RangejENCNvNtCsituP22XUc15_12tokio_macros6select19declare_output_enum0ENtNtNtB9_6traits8iterator8Iterator9size_hintB1u_, symObjAddr: 0x48B0, symBinAddr: 0xAD90, symSize: 0x30 }
  - { offset: 0x1E74F, size: 0x8, addend: 0x0, symName: __RNCINvNtNtNtCsieiGu2EXtoJ_4core4iter8adapters3map8map_foldNtCsaKzlTDPUHDb_11proc_macro211TokenStreamNtNtBW_3imp11TokenStreamuNCINvXsb_BW_BU_INtNtNtB8_6traits7collect12FromIteratorBU_E9from_iterINtB4_3MapINtNtB6_3zip3ZipINtNtNtBa_5slice4iter4IterBU_EIB3w_ReEENCNvNtCsituP22XUc15_12tokio_macros5entry11parse_knobss1_0EE0NCIB2_B1A_NtCscKtU6MdFI5n_10proc_macro11TokenStreamuNCINvXs6_B1C_B1A_IB2f_B1A_E9from_iterIB36_B35_B1Z_EE0NCINvNvNtNtB2j_8iterator8Iterator8for_each4callB5g_NCINvXsj_B5i_B5g_INtB2h_6ExtendB5g_E6extendIB36_B6x_B5W_EE0E0E0E0B4e_, symObjAddr: 0x2140, symBinAddr: 0x8620, symSize: 0xC0 }
  - { offset: 0x1E7D5, size: 0x8, addend: 0x0, symName: __RNCINvNtNtNtCsieiGu2EXtoJ_4core4iter8adapters3map8map_foldNtNtCsaKzlTDPUHDb_11proc_macro23imp11TokenStreamNtCscKtU6MdFI5n_10proc_macro11TokenStreamuNCINvXs6_BW_BU_INtNtNtB8_6traits7collect12FromIteratorBU_E9from_iterINtB4_3MapIB3t_INtNtB6_3zip3ZipINtNtNtBa_5slice4iter4IterNtBY_11TokenStreamEIB3Y_ReEENCNvNtCsituP22XUc15_12tokio_macros5entry11parse_knobss1_0ENCINvXsb_BY_B4n_IB2C_B4n_E9from_iterB3C_E0EE0NCINvNvNtNtB2G_8iterator8Iterator8for_each4callB1G_NCINvXsj_B1I_B1G_INtB2E_6ExtendB1G_E6extendIB3t_B3s_B2m_EE0E0E0B4V_, symObjAddr: 0x2200, symBinAddr: 0x86E0, symSize: 0x80 }
  - { offset: 0x1E85B, size: 0x8, addend: 0x0, symName: __RNCINvNtNtNtCsieiGu2EXtoJ_4core4iter8adapters3map8map_foldTRNtCsaKzlTDPUHDb_11proc_macro211TokenStreamRReEBW_uNCNvNtCsituP22XUc15_12tokio_macros5entry11parse_knobss1_0NCIB2_BW_NtNtBY_3imp11TokenStreamuNCINvXsb_BY_BW_INtNtNtB8_6traits7collect12FromIteratorBW_E9from_iterINtB4_3MapINtNtB6_3zip3ZipINtNtNtBa_5slice4iter4IterBW_EIB4K_B1D_EEB1K_EE0NCIB2_B2O_NtCscKtU6MdFI5n_10proc_macro11TokenStreamuNCINvXs6_B2Q_B2O_IB3t_B2O_E9from_iterIB4k_B4j_B3d_EE0NCINvNvNtNtB3x_8iterator8Iterator8for_each4callB5F_NCINvXsj_B5H_B5F_INtB3v_6ExtendB5F_E6extendIB4k_B6W_B6l_EE0E0E0E0E0B1Q_, symObjAddr: 0x2280, symBinAddr: 0x8760, symSize: 0xA0 }
  - { offset: 0x1E8E0, size: 0x8, addend: 0x0, symName: __RNCINvNtNtNtCsieiGu2EXtoJ_4core4iter8adapters3map8map_foldjNtCsaKzlTDPUHDb_11proc_macro25IdentuNCNvNtCsituP22XUc15_12tokio_macros6select19declare_output_enum0NCINvNvNtNtNtB8_6traits8iterator8Iterator8for_each4callBV_NCINvMsi_NtCslJiobkLta79_5alloc3vecINtB3B_3VecBV_E14extend_trustedINtB4_3MapINtNtNtBa_3ops5range5RangejEB1v_EE0E0E0B1B_, symObjAddr: 0x2320, symBinAddr: 0x8800, symSize: 0x80 }
  - { offset: 0x1ECE7, size: 0x8, addend: 0x0, symName: __RINvYINtNtNtCsieiGu2EXtoJ_4core3ops5range5RangejENtNtNtNtBa_4iter6traits8iterator8Iterator3mapNtCsaKzlTDPUHDb_11proc_macro25IdentNCNvNtCsituP22XUc15_12tokio_macros6select19declare_output_enum0EB29_, symObjAddr: 0x1E10, symBinAddr: 0x82F0, symSize: 0x20 }
  - { offset: 0x1ED3F, size: 0x8, addend: 0x0, symName: __RINvYINtNtNtCsieiGu2EXtoJ_4core3ops5range5RangejENtNtNtNtBa_4iter6traits8iterator8Iterator4folduNCINvNtNtBR_8adapters3map8map_foldjNtCsaKzlTDPUHDb_11proc_macro25IdentuNCNvNtCsituP22XUc15_12tokio_macros6select19declare_output_enum0NCINvNvBL_8for_each4callB25_NCINvMsi_NtCslJiobkLta79_5alloc3vecINtB4h_3VecB25_E14extend_trustedINtB1B_3MapB3_B2F_EE0E0E0EB2L_, symObjAddr: 0x1E30, symBinAddr: 0x8310, symSize: 0xC0 }
  - { offset: 0x1EDCF, size: 0x8, addend: 0x0, symName: __RINvYINtNtNtNtCsieiGu2EXtoJ_4core4iter8adapters3map3MapIB4_IB4_INtNtB8_3zip3ZipINtNtNtBc_5slice4iter4IterNtCsaKzlTDPUHDb_11proc_macro211TokenStreamEIB1g_ReEENCNvNtCsituP22XUc15_12tokio_macros5entry11parse_knobss1_0ENCINvXsb_B1H_B1F_INtNtNtBa_6traits7collect12FromIteratorB1F_E9from_iterBV_E0ENCINvXs6_NtB1H_3impNtB4P_11TokenStreamIB3J_B4Z_E9from_iterBR_E0ENtNtB3N_8iterator8Iterator8for_eachNCINvXsj_CscKtU6MdFI5n_10proc_macroNtB6q_11TokenStreamINtB3L_6ExtendB6Q_E6extendB3_E0EB2B_, symObjAddr: 0x1EF0, symBinAddr: 0x83D0, symSize: 0x20 }
  - { offset: 0x1EE1B, size: 0x8, addend: 0x0, symName: __RINvYINtNtNtNtCsieiGu2EXtoJ_4core4iter8adapters3map3MapIB4_INtNtB8_3zip3ZipINtNtNtBc_5slice4iter4IterNtCsaKzlTDPUHDb_11proc_macro211TokenStreamEIB1c_ReEENCNvNtCsituP22XUc15_12tokio_macros5entry11parse_knobss1_0ENCINvXsb_B1D_B1B_INtNtNtBa_6traits7collect12FromIteratorB1B_E9from_iterBR_E0ENtNtB3J_8iterator8Iterator3mapNtCscKtU6MdFI5n_10proc_macro11TokenStreamNCINvXs6_NtB1D_3impNtB5U_11TokenStreamIB3F_B64_E9from_iterB3_E0EB2x_, symObjAddr: 0x1F10, symBinAddr: 0x83F0, symSize: 0x30 }
  - { offset: 0x1EE89, size: 0x8, addend: 0x0, symName: __RINvYINtNtNtNtCsieiGu2EXtoJ_4core4iter8adapters3map3MapIB4_INtNtB8_3zip3ZipINtNtNtBc_5slice4iter4IterNtCsaKzlTDPUHDb_11proc_macro211TokenStreamEIB1c_ReEENCNvNtCsituP22XUc15_12tokio_macros5entry11parse_knobss1_0ENCINvXsb_B1D_B1B_INtNtNtBa_6traits7collect12FromIteratorB1B_E9from_iterBR_E0ENtNtB3J_8iterator8Iterator3mapNtNtB1D_8fallback11TokenStreamNCINvXs6_NtB1D_3impNtB5J_11TokenStreamIB3F_B5T_E9from_iterB3_Es_0EB2x_, symObjAddr: 0x1F40, symBinAddr: 0x8420, symSize: 0x30 }
  - { offset: 0x1EEF7, size: 0x8, addend: 0x0, symName: __RINvYINtNtNtNtCsieiGu2EXtoJ_4core4iter8adapters3map3MapIB4_INtNtB8_3zip3ZipINtNtNtBc_5slice4iter4IterNtCsaKzlTDPUHDb_11proc_macro211TokenStreamEIB1c_ReEENCNvNtCsituP22XUc15_12tokio_macros5entry11parse_knobss1_0ENCINvXsb_B1D_B1B_INtNtNtBa_6traits7collect12FromIteratorB1B_E9from_iterBR_E0ENtNtB3J_8iterator8Iterator7collectNtNtB1D_3imp11TokenStreamEB2x_, symObjAddr: 0x1F70, symBinAddr: 0x8450, symSize: 0x80 }
  - { offset: 0x1EF8D, size: 0x8, addend: 0x0, symName: __RINvYINtNtNtNtCsieiGu2EXtoJ_4core4iter8adapters3map3MapINtNtB8_3zip3ZipINtNtNtBc_5slice4iter4IterNtCsaKzlTDPUHDb_11proc_macro211TokenStreamEIB18_ReEENCNvNtCsituP22XUc15_12tokio_macros5entry11parse_knobss1_0ENtNtNtBa_6traits8iterator8Iterator3mapNtNtB1z_3imp11TokenStreamNCINvXsb_B1z_B1x_INtNtB3n_7collect12FromIteratorB1x_E9from_iterB3_E0EB2t_, symObjAddr: 0x1FF0, symBinAddr: 0x84D0, symSize: 0x30 }
  - { offset: 0x1EFFB, size: 0x8, addend: 0x0, symName: __RINvYINtNtNtNtCsieiGu2EXtoJ_4core4iter8adapters3map3MapINtNtB8_3zip3ZipINtNtNtBc_5slice4iter4IterNtCsaKzlTDPUHDb_11proc_macro211TokenStreamEIB18_ReEENCNvNtCsituP22XUc15_12tokio_macros5entry11parse_knobss1_0ENtNtNtBa_6traits8iterator8Iterator7collectB1x_EB2t_, symObjAddr: 0x2020, symBinAddr: 0x8500, symSize: 0x80 }
  - { offset: 0x1F091, size: 0x8, addend: 0x0, symName: __RINvYINtNtNtNtCsieiGu2EXtoJ_4core4iter8adapters3map3MapINtNtNtBc_3ops5range5RangejENCNvNtCsituP22XUc15_12tokio_macros6select19declare_output_enum0ENtNtNtBa_6traits8iterator8Iterator7collectINtNtCslJiobkLta79_5alloc3vec3VecNtCsaKzlTDPUHDb_11proc_macro25IdentEEB1p_, symObjAddr: 0x20A0, symBinAddr: 0x8580, symSize: 0x60 }
  - { offset: 0x1F126, size: 0x8, addend: 0x0, symName: __RINvYINtNtNtNtCsieiGu2EXtoJ_4core4iter8adapters3map3MapINtNtNtBc_3ops5range5RangejENCNvNtCsituP22XUc15_12tokio_macros6select19declare_output_enum0ENtNtNtBa_6traits8iterator8Iterator8for_eachNCINvMsi_NtCslJiobkLta79_5alloc3vecINtB3b_3VecNtCsaKzlTDPUHDb_11proc_macro25IdentE14extend_trustedB3_E0EB1p_, symObjAddr: 0x2100, symBinAddr: 0x85E0, symSize: 0x40 }
  - { offset: 0x1F190, size: 0x8, addend: 0x0, symName: __RNvYINtNtNtNtCsieiGu2EXtoJ_4core4iter8adapters3map3MapIB3_IB3_INtNtB7_3zip3ZipINtNtNtBb_5slice4iter4IterNtCsaKzlTDPUHDb_11proc_macro211TokenStreamEIB1f_ReEENCNvNtCsituP22XUc15_12tokio_macros5entry11parse_knobss1_0ENCINvXsb_B1G_B1E_INtNtNtB9_6traits7collect12FromIteratorB1E_E9from_iterBU_E0ENCINvXs6_NtB1G_3impNtB4O_11TokenStreamIB3I_B4Y_E9from_iterBQ_Es_0ENtNtB3M_8iterator8Iterator4fuseB2A_, symObjAddr: 0x6640, symBinAddr: 0xCB20, symSize: 0x40 }
  - { offset: 0x1F1DD, size: 0x8, addend: 0x0, symName: __RNvYINtNtNtNtCsieiGu2EXtoJ_4core4iter8adapters3map3MapIB3_IB3_INtNtB7_3zip3ZipINtNtNtBb_5slice4iter4IterNtCsaKzlTDPUHDb_11proc_macro211TokenStreamEIB1f_ReEENCNvNtCsituP22XUc15_12tokio_macros5entry11parse_knobss1_0ENCINvXsb_B1G_B1E_INtNtNtB9_6traits7collect12FromIteratorB1E_E9from_iterBU_E0ENCINvXs6_NtB1G_3impNtB4O_11TokenStreamIB3I_B4Y_E9from_iterBQ_Es_0ENtNtB3M_8iterator8Iterator7flattenB2A_, symObjAddr: 0x6680, symBinAddr: 0xCB60, symSize: 0xD0 }
  - { offset: 0x1F27D, size: 0x8, addend: 0x0, symName: __RNvXNtNtNtCsieiGu2EXtoJ_4core4iter6traits7collectINtNtNtB6_8adapters3map3MapIBM_IBM_INtNtBQ_3zip3ZipINtNtNtB8_5slice4iter4IterNtCsaKzlTDPUHDb_11proc_macro211TokenStreamEIB1B_ReEENCNvNtCsituP22XUc15_12tokio_macros5entry11parse_knobss1_0ENCINvXsb_B22_B20_INtB2_12FromIteratorB20_E9from_iterB1g_E0ENCINvXs6_NtB22_3impNtB4S_11TokenStreamIB44_B52_E9from_iterB1c_E0ENtB2_12IntoIterator9into_iterB2W_, symObjAddr: 0x4400, symBinAddr: 0xA8E0, symSize: 0x30 }
  - { offset: 0x1F2B5, size: 0x8, addend: 0x0, symName: __RNvXNtNtNtCsieiGu2EXtoJ_4core4iter6traits7collectINtNtNtB6_8adapters3map3MapIBM_IBM_INtNtBQ_3zip3ZipINtNtNtB8_5slice4iter4IterNtCsaKzlTDPUHDb_11proc_macro211TokenStreamEIB1B_ReEENCNvNtCsituP22XUc15_12tokio_macros5entry11parse_knobss1_0ENCINvXsb_B22_B20_INtB2_12FromIteratorB20_E9from_iterB1g_E0ENCINvXs6_NtB22_3impNtB4S_11TokenStreamIB44_B52_E9from_iterB1c_Es_0ENtB2_12IntoIterator9into_iterB2W_, symObjAddr: 0x4430, symBinAddr: 0xA910, symSize: 0x30 }
  - { offset: 0x1F2ED, size: 0x8, addend: 0x0, symName: __RNvXNtNtNtCsieiGu2EXtoJ_4core4iter6traits7collectINtNtNtB6_8adapters3map3MapIBM_INtNtBQ_3zip3ZipINtNtNtB8_5slice4iter4IterNtCsaKzlTDPUHDb_11proc_macro211TokenStreamEIB1x_ReEENCNvNtCsituP22XUc15_12tokio_macros5entry11parse_knobss1_0ENCINvXsb_B1Y_B1W_INtB2_12FromIteratorB1W_E9from_iterB1c_E0ENtB2_12IntoIterator9into_iterB2S_, symObjAddr: 0x4460, symBinAddr: 0xA940, symSize: 0x30 }
  - { offset: 0x1F325, size: 0x8, addend: 0x0, symName: __RNvXNtNtNtCsieiGu2EXtoJ_4core4iter6traits7collectINtNtNtB6_8adapters3map3MapINtNtBQ_3zip3ZipINtNtNtB8_5slice4iter4IterNtCsaKzlTDPUHDb_11proc_macro211TokenStreamEIB1t_ReEENCNvNtCsituP22XUc15_12tokio_macros5entry11parse_knobss1_0ENtB2_12IntoIterator9into_iterB2O_, symObjAddr: 0x4490, symBinAddr: 0xA970, symSize: 0x30 }
  - { offset: 0x1F35D, size: 0x8, addend: 0x0, symName: __RNvXNtNtNtCsieiGu2EXtoJ_4core4iter6traits7collectINtNtNtB6_8adapters3map3MapINtNtNtB8_3ops5range5RangejENCNvNtCsituP22XUc15_12tokio_macros6select19declare_output_enum0ENtB2_12IntoIterator9into_iterB1K_, symObjAddr: 0x44C0, symBinAddr: 0xA9A0, symSize: 0x20 }
  - { offset: 0x1F3A1, size: 0x8, addend: 0x0, symName: __RNvXs3_NtNtCsieiGu2EXtoJ_4core4iter5rangeINtNtNtB9_3ops5range5RangejENtB5_17RangeIteratorImpl9spec_nextCsituP22XUc15_12tokio_macros, symObjAddr: 0x49D0, symBinAddr: 0xAEB0, symSize: 0x80 }
  - { offset: 0x1F422, size: 0x8, addend: 0x0, symName: __RNvXs4_NtNtCsieiGu2EXtoJ_4core4iter5rangeINtNtNtB9_3ops5range5RangejENtNtNtB7_6traits8iterator8Iterator4nextCsituP22XUc15_12tokio_macros, symObjAddr: 0x4A50, symBinAddr: 0xAF30, symSize: 0x20 }
  - { offset: 0x1F459, size: 0x8, addend: 0x0, symName: __RNvXs4_NtNtCsieiGu2EXtoJ_4core4iter5rangeINtNtNtB9_3ops5range5RangejENtNtNtB7_6traits8iterator8Iterator9size_hintCsituP22XUc15_12tokio_macros, symObjAddr: 0x4A70, symBinAddr: 0xAF50, symSize: 0x80 }
  - { offset: 0x1F7BD, size: 0x8, addend: 0x0, symName: __RNvXs_NtNtCsieiGu2EXtoJ_4core3str6traitseNtNtB8_3cmp9PartialEq2eqCsituP22XUc15_12tokio_macros, symObjAddr: 0x4F40, symBinAddr: 0xB420, symSize: 0x90 }
  - { offset: 0x1FB1B, size: 0x8, addend: 0x0, symName: __RINvNtNtNtCscKtU6MdFI5n_10proc_macro6bridge6client5state3setINtNtCsieiGu2EXtoJ_4core6option6OptionNtB4_11TokenStreamENCNCINvB4_10run_clientB1y_BW_NCNCINvMs6_B4_INtB4_6ClientNtB8_11TokenStreamB2L_E7expand1NvCsituP22XUc15_12tokio_macros25select_priv_clean_patternE00E00EB3i_, symObjAddr: 0xD10, symBinAddr: 0x71F0, symSize: 0xC0 }
  - { offset: 0x1FBF1, size: 0x8, addend: 0x0, symName: __RINvNtNtNtCscKtU6MdFI5n_10proc_macro6bridge6client5state3setINtNtCsieiGu2EXtoJ_4core6option6OptionNtB4_11TokenStreamENCNCINvB4_10run_clientB1y_BW_NCNCINvMs6_B4_INtB4_6ClientNtB8_11TokenStreamB2L_E7expand1NvCsituP22XUc15_12tokio_macros31select_priv_declare_output_enumE00E00EB3i_, symObjAddr: 0xDD0, symBinAddr: 0x72B0, symSize: 0xC0 }
  - { offset: 0x1FCC7, size: 0x8, addend: 0x0, symName: __RINvNtNtNtCscKtU6MdFI5n_10proc_macro6bridge6client5state3setINtNtCsieiGu2EXtoJ_4core6option6OptionNtB4_11TokenStreamENCNCINvB4_10run_clientTB1y_B1y_EBW_NCNCINvMs7_B4_INtB4_6ClientTNtB8_11TokenStreamB2S_EB2S_E7expand2NvCsituP22XUc15_12tokio_macros4mainE00E00EB3u_, symObjAddr: 0xE90, symBinAddr: 0x7370, symSize: 0xD0 }
  - { offset: 0x1FD9E, size: 0x8, addend: 0x0, symName: __RINvNtNtNtCscKtU6MdFI5n_10proc_macro6bridge6client5state3setINtNtCsieiGu2EXtoJ_4core6option6OptionNtB4_11TokenStreamENCNCINvB4_10run_clientTB1y_B1y_EBW_NCNCINvMs7_B4_INtB4_6ClientTNtB8_11TokenStreamB2S_EB2S_E7expand2NvCsituP22XUc15_12tokio_macros4testE00E00EB3u_, symObjAddr: 0xF60, symBinAddr: 0x7440, symSize: 0xD0 }
  - { offset: 0x1FE75, size: 0x8, addend: 0x0, symName: __RINvNtNtNtCscKtU6MdFI5n_10proc_macro6bridge6client5state3setINtNtCsieiGu2EXtoJ_4core6option6OptionNtB4_11TokenStreamENCNCINvB4_10run_clientTB1y_B1y_EBW_NCNCINvMs7_B4_INtB4_6ClientTNtB8_11TokenStreamB2S_EB2S_E7expand2NvCsituP22XUc15_12tokio_macros7main_rtE00E00EB3u_, symObjAddr: 0x1030, symBinAddr: 0x7510, symSize: 0xD0 }
  - { offset: 0x1FF4C, size: 0x8, addend: 0x0, symName: __RINvNtNtNtCscKtU6MdFI5n_10proc_macro6bridge6client5state3setINtNtCsieiGu2EXtoJ_4core6option6OptionNtB4_11TokenStreamENCNCINvB4_10run_clientTB1y_B1y_EBW_NCNCINvMs7_B4_INtB4_6ClientTNtB8_11TokenStreamB2S_EB2S_E7expand2NvCsituP22XUc15_12tokio_macros7test_rtE00E00EB3u_, symObjAddr: 0x1100, symBinAddr: 0x75E0, symSize: 0xD0 }
  - { offset: 0x20023, size: 0x8, addend: 0x0, symName: __RINvNtNtNtCscKtU6MdFI5n_10proc_macro6bridge6client5state3setINtNtCsieiGu2EXtoJ_4core6option6OptionNtB4_11TokenStreamENCNCINvB4_10run_clientTB1y_B1y_EBW_NCNCINvMs7_B4_INtB4_6ClientTNtB8_11TokenStreamB2S_EB2S_E7expand2NvCsituP22XUc15_12tokio_macros9main_failE00E00EB3u_, symObjAddr: 0x11D0, symBinAddr: 0x76B0, symSize: 0xD0 }
  - { offset: 0x200FA, size: 0x8, addend: 0x0, symName: __RINvNtNtNtCscKtU6MdFI5n_10proc_macro6bridge6client5state3setINtNtCsieiGu2EXtoJ_4core6option6OptionNtB4_11TokenStreamENCNCINvB4_10run_clientTB1y_B1y_EBW_NCNCINvMs7_B4_INtB4_6ClientTNtB8_11TokenStreamB2S_EB2S_E7expand2NvCsituP22XUc15_12tokio_macros9test_failE00E00EB3u_, symObjAddr: 0x12A0, symBinAddr: 0x7780, symSize: 0xD0 }
  - { offset: 0x201DB, size: 0x8, addend: 0x0, symName: __RNCNkNvNtNtNtCscKtU6MdFI5n_10proc_macro6bridge6client5state12BRIDGE_STATE0s_0CsituP22XUc15_12tokio_macros, symObjAddr: 0x25B0, symBinAddr: 0x8A90, symSize: 0x20 }
  - { offset: 0x20972, size: 0x8, addend: 0x0, symName: __RNvXs5_NtNtCscKtU6MdFI5n_10proc_macro6bridge6bufferNtB5_6BufferNtNtNtCsieiGu2EXtoJ_4core3ops4drop4Drop4dropCsituP22XUc15_12tokio_macros, symObjAddr: 0x4AF0, symBinAddr: 0xAFD0, symSize: 0xA0 }
  - { offset: 0x20AF6, size: 0x8, addend: 0x0, symName: __RNvXNtNtCscKtU6MdFI5n_10proc_macro6bridge3rpcuINtB2_6EncodeuE6encodeCsituP22XUc15_12tokio_macros, symObjAddr: 0x43F0, symBinAddr: 0xA8D0, symSize: 0x10 }
  - { offset: 0x20B3D, size: 0x8, addend: 0x0, symName: __RNvXs7_NtNtCscKtU6MdFI5n_10proc_macro6bridge3rpcINtNtNtCsieiGu2EXtoJ_4core3num7nonzero7NonZeromEINtB5_9DecodeMutuE6decodeCsituP22XUc15_12tokio_macros, symObjAddr: 0x4B90, symBinAddr: 0xB070, symSize: 0x50 }
  - { offset: 0x20C4A, size: 0x8, addend: 0x0, symName: __RNvXsa_NtNtCscKtU6MdFI5n_10proc_macro6bridge3rpcRShINtB5_6EncodeuE6encodeCsituP22XUc15_12tokio_macros, symObjAddr: 0x4FD0, symBinAddr: 0xB4B0, symSize: 0xD0 }
  - { offset: 0x20D52, size: 0x8, addend: 0x0, symName: __RNvXsc_NtNtCscKtU6MdFI5n_10proc_macro6bridge3rpcReINtB5_6EncodeuE6encodeCsituP22XUc15_12tokio_macros, symObjAddr: 0x50A0, symBinAddr: 0xB580, symSize: 0x30 }
  - { offset: 0x20E3A, size: 0x8, addend: 0x0, symName: __RNvXsl_NtNtCscKtU6MdFI5n_10proc_macro6bridge3rpcNtB5_12PanicMessageINtB5_6EncodeuE6encodeCsituP22XUc15_12tokio_macros, symObjAddr: 0x59D0, symBinAddr: 0xBEB0, symSize: 0x130 }
  - { offset: 0x2100A, size: 0x8, addend: 0x0, symName: __RNvXso_NtNtCscKtU6MdFI5n_10proc_macro6bridge3rpcmINtB5_9DecodeMutuE6decodeCsituP22XUc15_12tokio_macros, symObjAddr: 0x5C80, symBinAddr: 0xC160, symSize: 0x140 }
  - { offset: 0x21178, size: 0x8, addend: 0x0, symName: __RNvXsV_NtCscKtU6MdFI5n_10proc_macro6bridgeINtNtCsieiGu2EXtoJ_4core6result6ResultINtNtBJ_6option6OptionNtNtB5_6client11TokenStreamEuEINtNtB5_3rpc6EncodeuE6encodeCsituP22XUc15_12tokio_macros, symObjAddr: 0x4CD0, symBinAddr: 0xB1B0, symSize: 0xE0 }
  - { offset: 0x2123C, size: 0x8, addend: 0x0, symName: __RNvXsV_NtCscKtU6MdFI5n_10proc_macro6bridgeINtNtCsieiGu2EXtoJ_4core6result6ResultuNtNtB5_3rpc12PanicMessageEINtB1j_6EncodeuE6encodeCsituP22XUc15_12tokio_macros, symObjAddr: 0x4DB0, symBinAddr: 0xB290, symSize: 0x120 }
  - { offset: 0x21520, size: 0x8, addend: 0x0, symName: __RINvXsj_CscKtU6MdFI5n_10proc_macroNtB6_11TokenStreamINtNtNtNtCsieiGu2EXtoJ_4core4iter6traits7collect6ExtendBw_E6extendINtNtNtBV_8adapters3map3MapIB1T_IB1T_INtNtB1X_3zip3ZipINtNtNtBX_5slice4iter4IterNtCsaKzlTDPUHDb_11proc_macro211TokenStreamEIB2L_ReEENCNvNtCsituP22XUc15_12tokio_macros5entry11parse_knobss1_0ENCINvXsb_B3c_B3a_INtBR_12FromIteratorB3a_E9from_iterB2o_E0ENCINvXs6_NtB3c_3impNtB62_11TokenStreamIB5e_B6c_E9from_iterB2j_E0EEB46_, symObjAddr: 0x1CC0, symBinAddr: 0x81A0, symSize: 0x150 }
  - { offset: 0x21596, size: 0x8, addend: 0x0, symName: __RNCINvXsj_CscKtU6MdFI5n_10proc_macroNtB8_11TokenStreamINtNtNtNtCsieiGu2EXtoJ_4core4iter6traits7collect6ExtendBy_E6extendINtNtNtBX_8adapters3map3MapIB1V_IB1V_INtNtB1Z_3zip3ZipINtNtNtBZ_5slice4iter4IterNtCsaKzlTDPUHDb_11proc_macro211TokenStreamEIB2N_ReEENCNvNtCsituP22XUc15_12tokio_macros5entry11parse_knobss1_0ENCINvXsb_B3e_B3c_INtBT_12FromIteratorB3c_E9from_iterB2q_E0ENCINvXs6_NtB3e_3impNtB64_11TokenStreamIB5g_B6e_E9from_iterB2l_E0EE0B48_, symObjAddr: 0x2590, symBinAddr: 0x8A70, symSize: 0x20 }
  - { offset: 0x215F5, size: 0x8, addend: 0x0, symName: __RNvXsU_CscKtU6MdFI5n_10proc_macroNtB5_11TokenStreamNtNtCsieiGu2EXtoJ_4core5clone5Clone5cloneCsituP22XUc15_12tokio_macros, symObjAddr: 0x4C80, symBinAddr: 0xB160, symSize: 0x50 }
  - { offset: 0x218F5, size: 0x8, addend: 0x0, symName: __RINvXs6_NtCsaKzlTDPUHDb_11proc_macro23impNtB6_11TokenStreamINtNtNtNtCsieiGu2EXtoJ_4core4iter6traits7collect12FromIteratorBD_E9from_iterINtNtNtB12_8adapters3map3MapIB2a_INtNtB2e_3zip3ZipINtNtNtB14_5slice4iter4IterNtB8_11TokenStreamEIB2Y_ReEENCNvNtCsituP22XUc15_12tokio_macros5entry11parse_knobss1_0ENCINvXsb_B8_B3o_IBW_B3o_E9from_iterB2B_E0EEB3W_, symObjAddr: 0x1470, symBinAddr: 0x7950, symSize: 0x360 }
  - { offset: 0x21980, size: 0x8, addend: 0x0, symName: __RNCINvXs6_NtCsaKzlTDPUHDb_11proc_macro23impNtB8_11TokenStreamINtNtNtNtCsieiGu2EXtoJ_4core4iter6traits7collect12FromIteratorBF_E9from_iterINtNtNtB14_8adapters3map3MapIB2c_INtNtB2g_3zip3ZipINtNtNtB16_5slice4iter4IterNtBa_11TokenStreamEIB30_ReEENCNvNtCsituP22XUc15_12tokio_macros5entry11parse_knobss1_0ENCINvXsb_Ba_B3q_IBY_B3q_E9from_iterB2D_E0EE0B3Y_, symObjAddr: 0x23A0, symBinAddr: 0x8880, symSize: 0x110 }
  - { offset: 0x219DD, size: 0x8, addend: 0x0, symName: __RNCINvXs6_NtCsaKzlTDPUHDb_11proc_macro23impNtB8_11TokenStreamINtNtNtNtCsieiGu2EXtoJ_4core4iter6traits7collect12FromIteratorBF_E9from_iterINtNtNtB14_8adapters3map3MapIB2c_INtNtB2g_3zip3ZipINtNtNtB16_5slice4iter4IterNtBa_11TokenStreamEIB30_ReEENCNvNtCsituP22XUc15_12tokio_macros5entry11parse_knobss1_0ENCINvXsb_Ba_B3q_IBY_B3q_E9from_iterB2D_E0EEs_0B3Y_, symObjAddr: 0x24B0, symBinAddr: 0x8990, symSize: 0xE0 }
  - { offset: 0x21A24, size: 0x8, addend: 0x0, symName: __RINvXs7_NtCsaKzlTDPUHDb_11proc_macro23impNtB6_11TokenStreamINtNtNtNtCsieiGu2EXtoJ_4core4iter6traits7collect6ExtendNtB8_9TokenTreeE6extendAB1O_j1_ECsituP22XUc15_12tokio_macros, symObjAddr: 0x17D0, symBinAddr: 0x7CB0, symSize: 0x170 }
  - { offset: 0x21ABA, size: 0x8, addend: 0x0, symName: __RINvXs7_NtCsaKzlTDPUHDb_11proc_macro23impNtB6_11TokenStreamINtNtNtNtCsieiGu2EXtoJ_4core4iter6traits7collect6ExtendNtB8_9TokenTreeE6extendNtB8_11TokenStreamECsituP22XUc15_12tokio_macros, symObjAddr: 0x1940, symBinAddr: 0x7E20, symSize: 0x170 }
  - { offset: 0x21B56, size: 0x8, addend: 0x0, symName: __RNvXsA_NtCsaKzlTDPUHDb_11proc_macro23impNtB5_19DeferredTokenStreamNtNtCsieiGu2EXtoJ_4core5clone5Clone5cloneCsituP22XUc15_12tokio_macros, symObjAddr: 0x4BE0, symBinAddr: 0xB0C0, symSize: 0xA0 }
  - { offset: 0x21B88, size: 0x8, addend: 0x0, symName: __RNvXsz_NtCsaKzlTDPUHDb_11proc_macro23impNtB5_11TokenStreamNtNtCsieiGu2EXtoJ_4core5clone5Clone5cloneCsituP22XUc15_12tokio_macros, symObjAddr: 0x6590, symBinAddr: 0xCA70, symSize: 0xB0 }
  - { offset: 0x27070, size: 0x8, addend: 0x0, symName: __RINvNtCsdGrGZaRBwMb_3syn5parse12parse_scopedNvYNtNtB4_4path4PathNtB2_5Parse5parseECsituP22XUc15_12tokio_macros, symObjAddr: 0xAE0, symBinAddr: 0x6FC0, symSize: 0x30 }
  - { offset: 0x270CB, size: 0x8, addend: 0x0, symName: __RNvXsh_NtCsdGrGZaRBwMb_3syn5parseNvYNtNtB7_4path4PathNtB5_5Parse5parseNtB5_6Parser14___parse_scopedCsituP22XUc15_12tokio_macros, symObjAddr: 0x50D0, symBinAddr: 0xB5B0, symSize: 0x500 }
  - { offset: 0x27217, size: 0x8, addend: 0x0, symName: __RNvXsh_NtCsdGrGZaRBwMb_3syn5parseNvYNtNtCsituP22XUc15_12tokio_macros5entry6ItemFnNtB5_5Parse5parseNtB5_6Parser6parse2BC_, symObjAddr: 0x55D0, symBinAddr: 0xBAB0, symSize: 0x400 }
  - { offset: 0x2750C, size: 0x8, addend: 0x0, symName: __RNvXs0_NtCsdGrGZaRBwMb_3syn5dropsINtB5_6NoDropDINtNtB7_10punctuated12IterMutTraitNtNtB7_3pat3PatEp4ItemQB1h_EL_ENtNtNtCsieiGu2EXtoJ_4core3ops5deref8DerefMut9deref_mutCsituP22XUc15_12tokio_macros, symObjAddr: 0x44E0, symBinAddr: 0xA9C0, symSize: 0x30 }
  - { offset: 0x27541, size: 0x8, addend: 0x0, symName: __RNvXs0_NtCsdGrGZaRBwMb_3syn5dropsINtB5_6NoDropDINtNtB7_10punctuated12IterMutTraitNtNtB7_3pat8FieldPatEp4ItemQB1h_EL_ENtNtNtCsieiGu2EXtoJ_4core3ops5deref8DerefMut9deref_mutCsituP22XUc15_12tokio_macros, symObjAddr: 0x4510, symBinAddr: 0xA9F0, symSize: 0x30 }
  - { offset: 0x277D2, size: 0x8, addend: 0x0, symName: __RNvXs_NtCslJiobkLta79_5alloc5allocNtB4_6GlobalNtNtCsieiGu2EXtoJ_4core5alloc9Allocator10deallocateCsituP22XUc15_12tokio_macros, symObjAddr: 0x4ED0, symBinAddr: 0xB3B0, symSize: 0x70 }
  - { offset: 0x2789B, size: 0x8, addend: 0x0, symName: __RNvNtCslJiobkLta79_5alloc5alloc15exchange_mallocCsituP22XUc15_12tokio_macros, symObjAddr: 0x35D0, symBinAddr: 0x9AB0, symSize: 0xA0 }
  - { offset: 0x28914, size: 0x8, addend: 0x0, symName: __RNvXs1_NtCslJiobkLta79_5alloc7raw_vecINtB5_6RawVecNtCsaKzlTDPUHDb_11proc_macro211TokenStreamENtNtNtCsieiGu2EXtoJ_4core3ops4drop4Drop4dropCsituP22XUc15_12tokio_macros, symObjAddr: 0x48E0, symBinAddr: 0xADC0, symSize: 0x30 }
  - { offset: 0x28950, size: 0x8, addend: 0x0, symName: __RNvXs1_NtCslJiobkLta79_5alloc7raw_vecINtB5_6RawVecNtCsaKzlTDPUHDb_11proc_macro25IdentENtNtNtCsieiGu2EXtoJ_4core3ops4drop4Drop4dropCsituP22XUc15_12tokio_macros, symObjAddr: 0x4910, symBinAddr: 0xADF0, symSize: 0x30 }
  - { offset: 0x2898C, size: 0x8, addend: 0x0, symName: __RNvXs1_NtCslJiobkLta79_5alloc7raw_vecINtB5_6RawVecNtNtCsdGrGZaRBwMb_3syn4attr4MetaENtNtNtCsieiGu2EXtoJ_4core3ops4drop4Drop4dropCsituP22XUc15_12tokio_macros, symObjAddr: 0x4940, symBinAddr: 0xAE20, symSize: 0x30 }
  - { offset: 0x289C8, size: 0x8, addend: 0x0, symName: __RNvXs1_NtCslJiobkLta79_5alloc7raw_vecINtB5_6RawVecTNtNtCsdGrGZaRBwMb_3syn4attr4MetaNtNtBR_5token5CommaEENtNtNtCsieiGu2EXtoJ_4core3ops4drop4Drop4dropCsituP22XUc15_12tokio_macros, symObjAddr: 0x4970, symBinAddr: 0xAE50, symSize: 0x30 }
  - { offset: 0x290FA, size: 0x8, addend: 0x0, symName: __RINvMNtCsieiGu2EXtoJ_4core6resultINtB3_6ResultINtNtCsdGrGZaRBwMb_3syn10punctuated10PunctuatedNtNtBN_4attr4MetaNtNtBN_5token5CommaENtNtBN_5error5ErrorE8and_thenNtNtCsituP22XUc15_12tokio_macros5entry11FinalConfigNCNvB2z_4main0EB2B_, symObjAddr: 0x0, symBinAddr: 0x64E0, symSize: 0x100 }
  - { offset: 0x2918E, size: 0x8, addend: 0x0, symName: __RINvMNtCsieiGu2EXtoJ_4core6resultINtB3_6ResultINtNtCsdGrGZaRBwMb_3syn10punctuated10PunctuatedNtNtBN_4attr4MetaNtNtBN_5token5CommaENtNtBN_5error5ErrorE8and_thenNtNtCsituP22XUc15_12tokio_macros5entry11FinalConfigNCNvB2z_4tests_0EB2B_, symObjAddr: 0x100, symBinAddr: 0x65E0, symSize: 0x100 }
  - { offset: 0x2922F, size: 0x8, addend: 0x0, symName: __RINvMNtCsieiGu2EXtoJ_4core6resultINtB3_6ResultNtNtCsdGrGZaRBwMb_3syn4path4PathNtNtBM_5error5ErrorE7map_errB1e_NCNvNtCsituP22XUc15_12tokio_macros5entry10parse_path0EB1Q_, symObjAddr: 0x200, symBinAddr: 0x66E0, symSize: 0x100 }
  - { offset: 0x292D1, size: 0x8, addend: 0x0, symName: __RINvMNtCsieiGu2EXtoJ_4core6resultINtB3_6ResultNtNtCsituP22XUc15_12tokio_macros5entry13RuntimeFlavorNtNtCslJiobkLta79_5alloc6string6StringE7map_errNtNtCsdGrGZaRBwMb_3syn5error5ErrorNCNvMs0_BK_NtBK_13Configuration10set_flavor0EBM_, symObjAddr: 0x300, symBinAddr: 0x67E0, symSize: 0xD0 }
  - { offset: 0x29365, size: 0x8, addend: 0x0, symName: __RINvMNtCsieiGu2EXtoJ_4core6resultINtB3_6ResultNtNtCsituP22XUc15_12tokio_macros5entry14UnhandledPanicNtNtCslJiobkLta79_5alloc6string6StringE7map_errNtNtCsdGrGZaRBwMb_3syn5error5ErrorNCNvMs0_BK_NtBK_13Configuration19set_unhandled_panic0EBM_, symObjAddr: 0x3D0, symBinAddr: 0x68B0, symSize: 0xE0 }
  - { offset: 0x29406, size: 0x8, addend: 0x0, symName: __RINvMNtCsieiGu2EXtoJ_4core6resultINtB3_6ResultjNtNtNtB5_3num5error13ParseIntErrorE7map_errNtNtCsdGrGZaRBwMb_3syn5error5ErrorNCINvMs3_NtB1u_3litNtB27_6LitInt12base10_parsejE0ECsituP22XUc15_12tokio_macros, symObjAddr: 0x4B0, symBinAddr: 0x6990, symSize: 0x90 }
  - { offset: 0x2951F, size: 0x8, addend: 0x0, symName: __RINvMNtNtCsieiGu2EXtoJ_4core3fmt2rtNtB3_8Argument11new_displayNtNtCsdGrGZaRBwMb_3syn5error5ErrorECsituP22XUc15_12tokio_macros, symObjAddr: 0x540, symBinAddr: 0x6A20, symSize: 0x30 }
  - { offset: 0x29589, size: 0x8, addend: 0x0, symName: __RINvMs2_NtNtCsHUR1vrdMJt_3std6thread5localINtB6_8LocalKeyINtNtCsieiGu2EXtoJ_4core4cell4CellPuEE4withNCNvMs3_B6_BE_7replace0B1r_ECsituP22XUc15_12tokio_macros, symObjAddr: 0x570, symBinAddr: 0x6A50, symSize: 0x50 }
  - { offset: 0x29642, size: 0x8, addend: 0x0, symName: __RINvMs2_NtNtCsHUR1vrdMJt_3std6thread5localINtB6_8LocalKeyINtNtCsieiGu2EXtoJ_4core4cell4CellPuEE8try_withNCNvMs3_B6_BE_7replace0B1r_ECsituP22XUc15_12tokio_macros, symObjAddr: 0x5C0, symBinAddr: 0x6AA0, symSize: 0xF0 }
  - { offset: 0x2981A, size: 0x8, addend: 0x0, symName: __RINvMs3_NtNtCscKtU6MdFI5n_10proc_macro6bridge6bufferNtB6_6Buffer17extend_from_arrayKj4_ECsituP22XUc15_12tokio_macros, symObjAddr: 0x6B0, symBinAddr: 0x6B90, symSize: 0x1E0 }
  - { offset: 0x299A2, size: 0x8, addend: 0x0, symName: __RINvMs3_NtNtCscKtU6MdFI5n_10proc_macro6bridge6bufferNtB6_6Buffer17extend_from_arrayKj8_ECsituP22XUc15_12tokio_macros, symObjAddr: 0x890, symBinAddr: 0x6D70, symSize: 0x1E0 }
  - { offset: 0x29B39, size: 0x8, addend: 0x0, symName: __RINvMs9_NtCsdGrGZaRBwMb_3syn5parseNtB6_11ParseBuffer5parseNtCsaKzlTDPUHDb_11proc_macro29TokenTreeECsituP22XUc15_12tokio_macros, symObjAddr: 0xA70, symBinAddr: 0x6F50, symSize: 0x30 }
  - { offset: 0x29C0E, size: 0x8, addend: 0x0, symName: __RINvMs_NtNtCsieiGu2EXtoJ_4core3fmt2rtNtB7_9Arguments6new_v1Kj3_Kj2_ECsituP22XUc15_12tokio_macros, symObjAddr: 0xAA0, symBinAddr: 0x6F80, symSize: 0x40 }
  - { offset: 0x2A0FE, size: 0x8, addend: 0x0, symName: __RNvMNtCsdGrGZaRBwMb_3syn5dropsINtB2_6NoDropINtNtB4_10punctuated14PrivateIterMutNtNtB4_3pat3PatNtNtB4_5token2OrEE3newCsituP22XUc15_12tokio_macros, symObjAddr: 0x2620, symBinAddr: 0x8B00, symSize: 0x40 }
  - { offset: 0x2A188, size: 0x8, addend: 0x0, symName: __RNvMNtCsdGrGZaRBwMb_3syn5dropsINtB2_6NoDropINtNtB4_10punctuated14PrivateIterMutNtNtB4_3pat3PatNtNtB4_5token5CommaEE3newCsituP22XUc15_12tokio_macros, symObjAddr: 0x2660, symBinAddr: 0x8B40, symSize: 0x40 }
  - { offset: 0x2A21F, size: 0x8, addend: 0x0, symName: __RNvMNtCsdGrGZaRBwMb_3syn5dropsINtB2_6NoDropINtNtB4_10punctuated14PrivateIterMutNtNtB4_3pat8FieldPatNtNtB4_5token5CommaEE3newCsituP22XUc15_12tokio_macros, symObjAddr: 0x26A0, symBinAddr: 0x8B80, symSize: 0x40 }
  - { offset: 0x2A405, size: 0x8, addend: 0x0, symName: __RNvMNtCslJiobkLta79_5alloc5allocNtB2_6Global10alloc_implCsituP22XUc15_12tokio_macros, symObjAddr: 0x27E0, symBinAddr: 0x8CC0, symSize: 0x290 }
  - { offset: 0x2A809, size: 0x8, addend: 0x0, symName: __RNvYNtNtCsdGrGZaRBwMb_3syn3pat3PatNtNtCs9OU1sGv5X54_5quote9to_tokens8ToTokens15to_token_streamCsituP22XUc15_12tokio_macros, symObjAddr: 0x6750, symBinAddr: 0xCC30, symSize: 0x90 }
  - { offset: 0x2A853, size: 0x8, addend: 0x0, symName: __RNvYNtNtCsdGrGZaRBwMb_3syn3pat3PatNtNtCs9OU1sGv5X54_5quote9to_tokens8ToTokens17into_token_streamCsituP22XUc15_12tokio_macros, symObjAddr: 0x67E0, symBinAddr: 0xCCC0, symSize: 0x60 }
  - { offset: 0x2A88C, size: 0x8, addend: 0x0, symName: __RNvMNtNtCs9OU1sGv5X54_5quote9___private8get_spanINtB2_7GetSpanNtCsaKzlTDPUHDb_11proc_macro24SpanE11___into_spanCsituP22XUc15_12tokio_macros, symObjAddr: 0x2A70, symBinAddr: 0x8F50, symSize: 0x20 }
  - { offset: 0x2A900, size: 0x8, addend: 0x0, symName: __RNvMs0_NtCslJiobkLta79_5alloc7raw_vecINtB5_6RawVecNtCsaKzlTDPUHDb_11proc_macro211TokenStreamE8grow_oneCsituP22XUc15_12tokio_macros, symObjAddr: 0x2A90, symBinAddr: 0x8F70, symSize: 0x90 }
  - { offset: 0x2A9B2, size: 0x8, addend: 0x0, symName: __RNvMs0_NtCslJiobkLta79_5alloc7raw_vecINtB5_6RawVecNtNtCsdGrGZaRBwMb_3syn4attr4MetaE8grow_oneCsituP22XUc15_12tokio_macros, symObjAddr: 0x2B20, symBinAddr: 0x9000, symSize: 0x90 }
  - { offset: 0x2AA64, size: 0x8, addend: 0x0, symName: __RNvMs0_NtCslJiobkLta79_5alloc7raw_vecINtB5_6RawVecTNtNtCsdGrGZaRBwMb_3syn4attr4MetaNtNtBR_5token5CommaEE8grow_oneCsituP22XUc15_12tokio_macros, symObjAddr: 0x2BB0, symBinAddr: 0x9090, symSize: 0x90 }
  - { offset: 0x2AAE3, size: 0x8, addend: 0x0, symName: __RNvMs3_NtNtCscKtU6MdFI5n_10proc_macro6bridge6bufferNtB5_6Buffer17extend_from_sliceCsituP22XUc15_12tokio_macros, symObjAddr: 0x2C40, symBinAddr: 0x9120, symSize: 0x1E0 }
  - { offset: 0x2AC60, size: 0x8, addend: 0x0, symName: __RNvMs3_NtNtCscKtU6MdFI5n_10proc_macro6bridge6bufferNtB5_6Buffer4pushCsituP22XUc15_12tokio_macros, symObjAddr: 0x2E20, symBinAddr: 0x9300, symSize: 0x1A0 }
  - { offset: 0x2B638, size: 0x8, addend: 0x0, symName: __RINvCsdGrGZaRBwMb_3syn6parse2NtNtCsituP22XUc15_12tokio_macros5entry6ItemFnEBv_, symObjAddr: 0x0, symBinAddr: 0xCD20, symSize: 0x30 }
  - { offset: 0x2B65A, size: 0x8, addend: 0x0, symName: ___rustc_proc_macro_decls_d732d80cfdf87125__, symObjAddr: 0x77B0, symBinAddr: 0x1E3B50, symSize: 0x0 }
  - { offset: 0x2B76C, size: 0x8, addend: 0x0, symName: __RNCNvNtCsituP22XUc15_12tokio_macros6select19declare_output_enum0B5_, symObjAddr: 0x1550, symBinAddr: 0xE270, symSize: 0x150 }
  - { offset: 0x2B7E6, size: 0x8, addend: 0x0, symName: __RNvNtCsituP22XUc15_12tokio_macros6select13clean_pattern, symObjAddr: 0x1E70, symBinAddr: 0xEB80, symSize: 0x7D0 }
  - { offset: 0x2B9BB, size: 0x8, addend: 0x0, symName: __RNvNtCsituP22XUc15_12tokio_macros6select19clean_pattern_macro, symObjAddr: 0x2640, symBinAddr: 0xF350, symSize: 0x230 }
  - { offset: 0x2BA1C, size: 0x8, addend: 0x0, symName: __RNvNtCsituP22XUc15_12tokio_macros6select19declare_output_enum, symObjAddr: 0x2870, symBinAddr: 0xF580, symSize: 0x970 }
  - { offset: 0x2BC9C, size: 0x8, addend: 0x0, symName: __RNvCsituP22XUc15_12tokio_macros25select_priv_clean_pattern, symObjAddr: 0x16A0, symBinAddr: 0xE3C0, symSize: 0x20 }
  - { offset: 0x2BCCA, size: 0x8, addend: 0x0, symName: __RNvCsituP22XUc15_12tokio_macros31select_priv_declare_output_enum, symObjAddr: 0x16C0, symBinAddr: 0xE3E0, symSize: 0x20 }
  - { offset: 0x2BCF8, size: 0x8, addend: 0x0, symName: __RNvCsituP22XUc15_12tokio_macros4main, symObjAddr: 0x16E0, symBinAddr: 0xE400, symSize: 0x100 }
  - { offset: 0x2BD36, size: 0x8, addend: 0x0, symName: __RNvCsituP22XUc15_12tokio_macros4test, symObjAddr: 0x17E0, symBinAddr: 0xE500, symSize: 0x100 }
  - { offset: 0x2BD74, size: 0x8, addend: 0x0, symName: __RNvCsituP22XUc15_12tokio_macros7main_rt, symObjAddr: 0x18E0, symBinAddr: 0xE600, symSize: 0xF0 }
  - { offset: 0x2BDB2, size: 0x8, addend: 0x0, symName: __RNvCsituP22XUc15_12tokio_macros7test_rt, symObjAddr: 0x19D0, symBinAddr: 0xE6F0, symSize: 0xF0 }
  - { offset: 0x2BDF0, size: 0x8, addend: 0x0, symName: __RNvCsituP22XUc15_12tokio_macros9main_fail, symObjAddr: 0x1AC0, symBinAddr: 0xE7E0, symSize: 0xE0 }
  - { offset: 0x2BE2F, size: 0x8, addend: 0x0, symName: __RNvCsituP22XUc15_12tokio_macros9test_fail, symObjAddr: 0x1BA0, symBinAddr: 0xE8C0, symSize: 0xE0 }
  - { offset: 0x2C5F9, size: 0x8, addend: 0x0, symName: __RNvXs1J_NtCscKtU6MdFI5n_10proc_macro6bridgeINtB6_11ExpnGlobalsNtNtB6_6client4SpanEINtNtB6_3rpc9DecodeMutuE6decodeCsituP22XUc15_12tokio_macros, symObjAddr: 0x3CF0, symBinAddr: 0x10A00, symSize: 0xA0 }
  - { offset: 0x2C650, size: 0x8, addend: 0x0, symName: __RNvXs9_NtNtCscKtU6MdFI5n_10proc_macro6bridge3rpcTINtB7_11ExpnGlobalsNtNtB7_6client4SpanENtB16_11TokenStreamEINtB5_9DecodeMutuE6decodeCsituP22XUc15_12tokio_macros, symObjAddr: 0x4A40, symBinAddr: 0x11750, symSize: 0x80 }
  - { offset: 0x2C6A5, size: 0x8, addend: 0x0, symName: __RNvXs9_NtNtCscKtU6MdFI5n_10proc_macro6bridge3rpcTINtB7_11ExpnGlobalsNtNtB7_6client4SpanETNtB16_11TokenStreamB1p_EEINtB5_9DecodeMutuE6decodeCsituP22XUc15_12tokio_macros, symObjAddr: 0x4AC0, symBinAddr: 0x117D0, symSize: 0x80 }
  - { offset: 0x30469, size: 0x8, addend: 0x0, symName: __RNvNvNtCsieiGu2EXtoJ_4core3ptr19copy_nonoverlapping18precondition_checkCsituP22XUc15_12tokio_macros, symObjAddr: 0x3290, symBinAddr: 0xFFA0, symSize: 0x4B0 }
  - { offset: 0x3085B, size: 0x8, addend: 0x0, symName: __RNvNvNtCsieiGu2EXtoJ_4core4hint16assert_unchecked18precondition_checkCsituP22XUc15_12tokio_macros, symObjAddr: 0x3740, symBinAddr: 0x10450, symSize: 0xA0 }
  - { offset: 0x308BB, size: 0x8, addend: 0x0, symName: __RNvNvNtCsieiGu2EXtoJ_4core4hint21unreachable_unchecked18precondition_checkCsituP22XUc15_12tokio_macros, symObjAddr: 0x37E0, symBinAddr: 0x104F0, symSize: 0x80 }
  - { offset: 0x30C7C, size: 0x8, addend: 0x0, symName: __RNvXs9_NtNtNtCsieiGu2EXtoJ_4core4iter8adapters7flattenINtB5_7FlattenINtNtB7_3map3MapIB15_IB15_INtNtB7_3zip3ZipINtNtNtBb_5slice4iter4IterNtCsaKzlTDPUHDb_11proc_macro211TokenStreamEIB1L_ReEENCNvNtCsituP22XUc15_12tokio_macros5entry11parse_knobss1_0ENCINvXsb_B2c_B2a_INtNtNtB9_6traits7collect12FromIteratorB2a_E9from_iterB1p_E0ENCINvXs6_NtB2c_3impNtB5l_11TokenStreamIB4e_B5v_E9from_iterB1k_Es_0EENtNtB4i_8iterator8Iterator4nextB36_, symObjAddr: 0x4BC0, symBinAddr: 0x118D0, symSize: 0x30 }
  - { offset: 0x30CBA, size: 0x8, addend: 0x0, symName: __RNvXs9_NtNtNtCsieiGu2EXtoJ_4core4iter8adapters7flattenINtB5_7FlattenINtNtB7_3map3MapIB15_IB15_INtNtB7_3zip3ZipINtNtNtBb_5slice4iter4IterNtCsaKzlTDPUHDb_11proc_macro211TokenStreamEIB1L_ReEENCNvNtCsituP22XUc15_12tokio_macros5entry11parse_knobss1_0ENCINvXsb_B2c_B2a_INtNtNtB9_6traits7collect12FromIteratorB2a_E9from_iterB1p_E0ENCINvXs6_NtB2c_3impNtB5l_11TokenStreamIB4e_B5v_E9from_iterB1k_Es_0EENtNtB4i_8iterator8Iterator9size_hintB36_, symObjAddr: 0x4BF0, symBinAddr: 0x11900, symSize: 0x30 }
  - { offset: 0x30CFE, size: 0x8, addend: 0x0, symName: __RNvXsi_NtNtNtCsieiGu2EXtoJ_4core4iter8adapters7flattenINtB5_13FlattenCompatINtNtB7_3map3MapIB1c_IB1c_INtNtB7_3zip3ZipINtNtNtBb_5slice4iter4IterNtCsaKzlTDPUHDb_11proc_macro211TokenStreamEIB1S_ReEENCNvNtCsituP22XUc15_12tokio_macros5entry11parse_knobss1_0ENCINvXsb_B2j_B2h_INtNtNtB9_6traits7collect12FromIteratorB2h_E9from_iterB1w_E0ENCINvXs6_NtB2j_3impNtB5s_11TokenStreamIB4l_B5C_E9from_iterB1r_Es_0EINtNtB2j_5rcvec13RcVecIntoIterNtB2j_9TokenTreeEENtNtB4p_8iterator8Iterator4nextB3d_, symObjAddr: 0x51D0, symBinAddr: 0x11EE0, symSize: 0x1D0 }
  - { offset: 0x30D91, size: 0x8, addend: 0x0, symName: __RNvXsi_NtNtNtCsieiGu2EXtoJ_4core4iter8adapters7flattenINtB5_13FlattenCompatINtNtB7_3map3MapIB1c_IB1c_INtNtB7_3zip3ZipINtNtNtBb_5slice4iter4IterNtCsaKzlTDPUHDb_11proc_macro211TokenStreamEIB1S_ReEENCNvNtCsituP22XUc15_12tokio_macros5entry11parse_knobss1_0ENCINvXsb_B2j_B2h_INtNtNtB9_6traits7collect12FromIteratorB2h_E9from_iterB1w_E0ENCINvXs6_NtB2j_3impNtB5s_11TokenStreamIB4l_B5C_E9from_iterB1r_Es_0EINtNtB2j_5rcvec13RcVecIntoIterNtB2j_9TokenTreeEENtNtB4p_8iterator8Iterator9size_hintB3d_, symObjAddr: 0x53A0, symBinAddr: 0x120B0, symSize: 0x920 }
  - { offset: 0x3166C, size: 0x8, addend: 0x0, symName: __RINvXs2_NtNtNtCsieiGu2EXtoJ_4core4iter8adapters3zipINtB6_3ZipINtNtNtBc_5slice4iter4IterNtCsaKzlTDPUHDb_11proc_macro211TokenStreamEIBY_ReEEINtB6_7ZipImplBX_B24_E4folduNCINvNtB8_3map8map_foldTRB1n_RB28_EB1n_uNCNvNtCsituP22XUc15_12tokio_macros5entry11parse_knobss1_0NCIB2H_B1n_NtNtB1p_3imp11TokenStreamuNCINvXsb_B1p_B1n_INtNtNtBa_6traits7collect12FromIteratorB1n_E9from_iterINtB2J_3MapBN_B3i_EE0NCIB2H_B4o_NtCscKtU6MdFI5n_10proc_macro11TokenStreamuNCINvXs6_B4q_B4o_IB56_B4o_E9from_iterIB5Y_B5X_B4O_EE0NCINvNvNtNtB5a_8iterator8Iterator8for_each4callB6t_NCINvXsj_B6v_B6t_INtB58_6ExtendB6t_E6extendIB5Y_B7K_B79_EE0E0E0E0E0EB3o_, symObjAddr: 0xF10, symBinAddr: 0xDC30, symSize: 0x190 }
  - { offset: 0x317D7, size: 0x8, addend: 0x0, symName: __RNvXs2_NtNtNtCsieiGu2EXtoJ_4core4iter8adapters3zipINtB5_3ZipINtNtNtBb_5slice4iter4IterNtCsaKzlTDPUHDb_11proc_macro211TokenStreamEIBX_ReEEINtB5_7ZipImplBW_B23_E13get_uncheckedCsituP22XUc15_12tokio_macros, symObjAddr: 0x3FF0, symBinAddr: 0x10D00, symSize: 0x70 }
  - { offset: 0x3184A, size: 0x8, addend: 0x0, symName: __RINvXs_NtNtNtCsieiGu2EXtoJ_4core4iter8adapters3zipINtB5_3ZipINtNtNtBb_5slice4iter4IterNtCsaKzlTDPUHDb_11proc_macro211TokenStreamEIBX_ReEENtNtNtB9_6traits8iterator8Iterator4folduNCINvNtB7_3map8map_foldTRB1m_RB27_EB1m_uNCNvNtCsituP22XUc15_12tokio_macros5entry11parse_knobss1_0NCIB2S_B1m_NtNtB1o_3imp11TokenStreamuNCINvXsb_B1o_B1m_INtNtB2f_7collect12FromIteratorB1m_E9from_iterINtB2U_3MapBM_B3t_EE0NCIB2S_B4z_NtCscKtU6MdFI5n_10proc_macro11TokenStreamuNCINvXs6_B4B_B4z_IB5h_B4z_E9from_iterIB61_B60_B4Z_EE0NCINvNvB2b_8for_each4callB6w_NCINvXsj_B6y_B6w_INtB5j_6ExtendB6w_E6extendIB61_B7N_B7c_EE0E0E0E0E0EB3z_, symObjAddr: 0x10E0, symBinAddr: 0xDE00, symSize: 0x20 }
  - { offset: 0x318B3, size: 0x8, addend: 0x0, symName: __RNvXs_NtNtNtCsieiGu2EXtoJ_4core4iter8adapters3zipINtB4_3ZipINtNtCsdGrGZaRBwMb_3syn10punctuated4IterNtNtB10_4path11PathSegmentEINtNtNtBa_5array4iter8IntoIterReKj4_EENtNtNtB8_6traits8iterator8Iterator4nextCsituP22XUc15_12tokio_macros, symObjAddr: 0x4F70, symBinAddr: 0x11C80, symSize: 0x30 }
  - { offset: 0x318F1, size: 0x8, addend: 0x0, symName: __RNvXs_NtNtNtCsieiGu2EXtoJ_4core4iter8adapters3zipINtB4_3ZipINtNtNtBa_5slice4iter4IterNtCsaKzlTDPUHDb_11proc_macro211TokenStreamEIBW_ReEENtNtNtB8_6traits8iterator8Iterator4nextCsituP22XUc15_12tokio_macros, symObjAddr: 0x4FA0, symBinAddr: 0x11CB0, symSize: 0x20 }
  - { offset: 0x3192F, size: 0x8, addend: 0x0, symName: __RNvXs_NtNtNtCsieiGu2EXtoJ_4core4iter8adapters3zipINtB4_3ZipINtNtNtBa_5slice4iter4IterNtCsaKzlTDPUHDb_11proc_macro211TokenStreamEIBW_ReEENtNtNtB8_6traits8iterator8Iterator9size_hintCsituP22XUc15_12tokio_macros, symObjAddr: 0x4FC0, symBinAddr: 0x11CD0, symSize: 0x30 }
  - { offset: 0x31973, size: 0x8, addend: 0x0, symName: __RNvXs1_NtNtNtCsieiGu2EXtoJ_4core4iter8adapters3zipINtB5_3ZipINtNtCsdGrGZaRBwMb_3syn10punctuated4IterNtNtB11_4path11PathSegmentEINtNtNtBb_5array4iter8IntoIterReKj4_EEINtB5_7ZipImplBW_B21_E3newCsituP22XUc15_12tokio_macros, symObjAddr: 0x3DB0, symBinAddr: 0x10AC0, symSize: 0x60 }
  - { offset: 0x319C0, size: 0x8, addend: 0x0, symName: __RNvXs1_NtNtNtCsieiGu2EXtoJ_4core4iter8adapters3zipINtB5_3ZipINtNtCsdGrGZaRBwMb_3syn10punctuated4IterNtNtB11_4path11PathSegmentEINtNtNtBb_5array4iter8IntoIterReKj4_EEINtB5_7ZipImplBW_B21_E4nextCsituP22XUc15_12tokio_macros, symObjAddr: 0x3E10, symBinAddr: 0x10B20, symSize: 0x190 }
  - { offset: 0x31B2B, size: 0x8, addend: 0x0, symName: __RNvXs3_NtNtNtCsieiGu2EXtoJ_4core4iter8adapters3zipINtB5_3ZipINtNtNtBb_5slice4iter4IterNtCsaKzlTDPUHDb_11proc_macro211TokenStreamEIBX_ReEEINtB5_7ZipImplBW_B23_E3newCsituP22XUc15_12tokio_macros, symObjAddr: 0x4420, symBinAddr: 0x11130, symSize: 0xC0 }
  - { offset: 0x31BBF, size: 0x8, addend: 0x0, symName: __RNvXs3_NtNtNtCsieiGu2EXtoJ_4core4iter8adapters3zipINtB5_3ZipINtNtNtBb_5slice4iter4IterNtCsaKzlTDPUHDb_11proc_macro211TokenStreamEIBX_ReEEINtB5_7ZipImplBW_B23_E4nextCsituP22XUc15_12tokio_macros, symObjAddr: 0x44E0, symBinAddr: 0x111F0, symSize: 0xA0 }
  - { offset: 0x31C15, size: 0x8, addend: 0x0, symName: __RNvXs3_NtNtNtCsieiGu2EXtoJ_4core4iter8adapters3zipINtB5_3ZipINtNtNtBb_5slice4iter4IterNtCsaKzlTDPUHDb_11proc_macro211TokenStreamEIBX_ReEEINtB5_7ZipImplBW_B23_E9size_hintCsituP22XUc15_12tokio_macros, symObjAddr: 0x4580, symBinAddr: 0x11290, symSize: 0x30 }
  - { offset: 0x31CCA, size: 0x8, addend: 0x0, symName: __RNvXs9_NtNtNtCsieiGu2EXtoJ_4core4iter8adapters4fuseINtB5_4FuseINtNtB7_3map3MapIBZ_IBZ_INtNtB7_3zip3ZipINtNtNtBb_5slice4iter4IterNtCsaKzlTDPUHDb_11proc_macro211TokenStreamEIB1D_ReEENCNvNtCsituP22XUc15_12tokio_macros5entry11parse_knobss1_0ENCINvXsb_B24_B22_INtNtNtB9_6traits7collect12FromIteratorB22_E9from_iterB1i_E0ENCINvXs6_NtB24_3impNtB5d_11TokenStreamIB46_B5n_E9from_iterB1e_Es_0EEINtB5_8FuseImplBY_E4nextB2Y_, symObjAddr: 0x4B40, symBinAddr: 0x11850, symSize: 0x80 }
  - { offset: 0x31E7F, size: 0x8, addend: 0x0, symName: __RINvYINtNtNtCsieiGu2EXtoJ_4core5array4iter8IntoIterARej4_Kj2_ENtNtNtNtBa_4iter6traits8iterator8Iterator3anyNCNvNtCsituP22XUc15_12tokio_macros5entry17is_test_attribute0EB1N_, symObjAddr: 0x1170, symBinAddr: 0xDE90, symSize: 0x40 }
  - { offset: 0x31ECE, size: 0x8, addend: 0x0, symName: __RINvYINtNtNtCsieiGu2EXtoJ_4core5array4iter8IntoIterNtCsaKzlTDPUHDb_11proc_macro29TokenTreeKj1_ENtNtNtNtBa_4iter6traits8iterator8Iterator8for_eachNCINvXsa_NtBP_8fallbackNtB2s_11TokenStreamINtNtB1z_7collect6ExtendBN_E6extendABN_B1r_E0ECsituP22XUc15_12tokio_macros, symObjAddr: 0x11B0, symBinAddr: 0xDED0, symSize: 0x20 }
  - { offset: 0x31F1A, size: 0x8, addend: 0x0, symName: __RINvYINtNtNtNtCsieiGu2EXtoJ_4core4iter8adapters3zip3ZipINtNtCsdGrGZaRBwMb_3syn10punctuated4IterNtNtBW_4path11PathSegmentEINtNtNtBc_5array4iter8IntoIterReKj4_EENtNtNtBa_6traits8iterator8Iterator3allNCNCNvNtCsituP22XUc15_12tokio_macros5entry17is_test_attribute00EB3h_, symObjAddr: 0x11D0, symBinAddr: 0xDEF0, symSize: 0x30 }
  - { offset: 0x31F69, size: 0x8, addend: 0x0, symName: __RINvYINtNtNtNtCsieiGu2EXtoJ_4core4iter8adapters3zip3ZipINtNtCsdGrGZaRBwMb_3syn10punctuated4IterNtNtBW_4path11PathSegmentEINtNtNtBc_5array4iter8IntoIterReKj4_EENtNtNtBa_6traits8iterator8Iterator8try_folduNCINvNvB2x_3all5checkTRB1v_B2p_ENCNCNvNtCsituP22XUc15_12tokio_macros5entry17is_test_attribute00E0INtNtNtBc_3ops12control_flow11ControlFlowuEEB3T_, symObjAddr: 0x1200, symBinAddr: 0xDF20, symSize: 0x140 }
  - { offset: 0x3201D, size: 0x8, addend: 0x0, symName: __RINvYINtNtNtNtCsieiGu2EXtoJ_4core4iter8adapters3zip3ZipINtNtNtBc_5slice4iter4IterNtCsaKzlTDPUHDb_11proc_macro211TokenStreamEIBS_ReEENtNtNtBa_6traits8iterator8Iterator3mapB1h_NCNvNtCsituP22XUc15_12tokio_macros5entry11parse_knobss1_0EB2S_, symObjAddr: 0x1340, symBinAddr: 0xE060, symSize: 0x30 }
  - { offset: 0x3208B, size: 0x8, addend: 0x0, symName: __RINvYNtNtCsaKzlTDPUHDb_11proc_macro212token_stream8IntoIterNtNtNtNtCsieiGu2EXtoJ_4core4iter6traits8iterator8Iterator4folduNCINvNvBV_8for_each4callNtB7_9TokenTreeNCINvXsa_NtB7_8fallbackNtB2I_11TokenStreamINtNtBZ_7collect6ExtendB2k_E6extendNtB7_11TokenStreamE0E0ECsituP22XUc15_12tokio_macros, symObjAddr: 0x1370, symBinAddr: 0xE090, symSize: 0x100 }
  - { offset: 0x3211D, size: 0x8, addend: 0x0, symName: __RINvYNtNtCsaKzlTDPUHDb_11proc_macro212token_stream8IntoIterNtNtNtNtCsieiGu2EXtoJ_4core4iter6traits8iterator8Iterator8for_eachNCINvXsa_NtB7_8fallbackNtB28_11TokenStreamINtNtBZ_7collect6ExtendNtB7_9TokenTreeE6extendNtB7_11TokenStreamE0ECsituP22XUc15_12tokio_macros, symObjAddr: 0x1470, symBinAddr: 0xE190, symSize: 0x20 }
  - { offset: 0x32194, size: 0x8, addend: 0x0, symName: __RNvXNtNtNtCsieiGu2EXtoJ_4core4iter6traits7collectINtNtNtB6_8adapters7flatten7FlattenINtNtBQ_3map3MapIB1l_IB1l_INtNtBQ_3zip3ZipINtNtNtB8_5slice4iter4IterNtCsaKzlTDPUHDb_11proc_macro211TokenStreamEIB21_ReEENCNvNtCsituP22XUc15_12tokio_macros5entry11parse_knobss1_0ENCINvXsb_B2s_B2q_INtB2_12FromIteratorB2q_E9from_iterB1F_E0ENCINvXs6_NtB2s_3impNtB5i_11TokenStreamIB4u_B5s_E9from_iterB1A_Es_0EENtB2_12IntoIterator9into_iterB3m_, symObjAddr: 0x3970, symBinAddr: 0x10680, symSize: 0x30 }
  - { offset: 0x32228, size: 0x8, addend: 0x0, symName: __RNvYINtNtNtCslJiobkLta79_5alloc3vec9into_iter8IntoIterNtNtCsdGrGZaRBwMb_3syn4attr4MetaENtNtNtNtCsieiGu2EXtoJ_4core4iter6traits10exact_size17ExactSizeIterator3lenCsituP22XUc15_12tokio_macros, symObjAddr: 0x5CE0, symBinAddr: 0x129F0, symSize: 0xE0 }
  - { offset: 0x32328, size: 0x8, addend: 0x0, symName: __RNvYINtNtNtCslJiobkLta79_5alloc3vec9into_iter8IntoIterTNtNtCsdGrGZaRBwMb_3syn4attr4MetaNtNtBV_5token5CommaEENtNtNtNtCsieiGu2EXtoJ_4core4iter6traits10exact_size17ExactSizeIterator3lenCsituP22XUc15_12tokio_macros, symObjAddr: 0x5DC0, symBinAddr: 0x12AD0, symSize: 0xE0 }
  - { offset: 0x3245D, size: 0x8, addend: 0x0, symName: __RNvXsF_NtNtCsieiGu2EXtoJ_4core4iter5rangejNtB5_4Step13steps_betweenCsituP22XUc15_12tokio_macros, symObjAddr: 0x4C40, symBinAddr: 0x11950, symSize: 0x80 }
  - { offset: 0x324B8, size: 0x8, addend: 0x0, symName: __RNvXsF_NtNtCsieiGu2EXtoJ_4core4iter5rangejNtB5_4Step17forward_uncheckedCsituP22XUc15_12tokio_macros, symObjAddr: 0x4CC0, symBinAddr: 0x119D0, symSize: 0x40 }
  - { offset: 0x3261C, size: 0x8, addend: 0x0, symName: __RNvXs_NtNtCsieiGu2EXtoJ_4core5slice4iterRSNtCsaKzlTDPUHDb_11proc_macro211TokenStreamNtNtNtNtB8_4iter6traits7collect12IntoIterator9into_iterCsituP22XUc15_12tokio_macros, symObjAddr: 0x4F20, symBinAddr: 0x11C30, symSize: 0x50 }
  - { offset: 0x32793, size: 0x8, addend: 0x0, symName: __RNvMNtCsieiGu2EXtoJ_4core5sliceSNtCsaKzlTDPUHDb_11proc_macro211TokenStream4iterCsituP22XUc15_12tokio_macros, symObjAddr: 0x1C80, symBinAddr: 0xE9A0, symSize: 0x20 }
  - { offset: 0x327CA, size: 0x8, addend: 0x0, symName: __RNvMNtCsieiGu2EXtoJ_4core5sliceSNtCsaKzlTDPUHDb_11proc_macro211TokenStream4lastCsituP22XUc15_12tokio_macros, symObjAddr: 0x1CA0, symBinAddr: 0xE9C0, symSize: 0x50 }
  - { offset: 0x32817, size: 0x8, addend: 0x0, symName: __RNvMNtCsieiGu2EXtoJ_4core5sliceSNtCsaKzlTDPUHDb_11proc_macro25Ident4iterCsituP22XUc15_12tokio_macros, symObjAddr: 0x1CF0, symBinAddr: 0xEA10, symSize: 0x20 }
  - { offset: 0x33352, size: 0x8, addend: 0x0, symName: __RNvXNtNtNtCsieiGu2EXtoJ_4core5array4iter10iter_innerSINtNtNtB8_3mem12maybe_uninit11MaybeUninitARej4_ENtB2_11PartialDrop12partial_dropCsituP22XUc15_12tokio_macros, symObjAddr: 0x39A0, symBinAddr: 0x106B0, symSize: 0xB0 }
  - { offset: 0x33462, size: 0x8, addend: 0x0, symName: __RNvXNtNtNtCsieiGu2EXtoJ_4core5array4iter10iter_innerSINtNtNtB8_3mem12maybe_uninit11MaybeUninitNtCsaKzlTDPUHDb_11proc_macro29TokenTreeENtB2_11PartialDrop12partial_dropCsituP22XUc15_12tokio_macros, symObjAddr: 0x3A50, symBinAddr: 0x10760, symSize: 0xE0 }
  - { offset: 0x33572, size: 0x8, addend: 0x0, symName: __RNvXNtNtNtCsieiGu2EXtoJ_4core5array4iter10iter_innerSINtNtNtB8_3mem12maybe_uninit11MaybeUninitReENtB2_11PartialDrop12partial_dropCsituP22XUc15_12tokio_macros, symObjAddr: 0x3B30, symBinAddr: 0x10840, symSize: 0xB0 }
  - { offset: 0x336D5, size: 0x8, addend: 0x0, symName: __RNvXs_NtNtNtCsieiGu2EXtoJ_4core5array4iter10iter_innerAINtNtNtBa_3mem12maybe_uninit11MaybeUninitARej4_Ej2_NtB4_11PartialDrop12partial_dropCsituP22XUc15_12tokio_macros, symObjAddr: 0x4FF0, symBinAddr: 0x11D00, symSize: 0x40 }
  - { offset: 0x33731, size: 0x8, addend: 0x0, symName: __RNvXs_NtNtNtCsieiGu2EXtoJ_4core5array4iter10iter_innerAINtNtNtBa_3mem12maybe_uninit11MaybeUninitNtCsaKzlTDPUHDb_11proc_macro29TokenTreeEj1_NtB4_11PartialDrop12partial_dropCsituP22XUc15_12tokio_macros, symObjAddr: 0x5030, symBinAddr: 0x11D40, symSize: 0x40 }
  - { offset: 0x3378D, size: 0x8, addend: 0x0, symName: __RNvXs_NtNtNtCsieiGu2EXtoJ_4core5array4iter10iter_innerAINtNtNtBa_3mem12maybe_uninit11MaybeUninitReEj4_NtB4_11PartialDrop12partial_dropCsituP22XUc15_12tokio_macros, symObjAddr: 0x5070, symBinAddr: 0x11D80, symSize: 0x40 }
  - { offset: 0x337F0, size: 0x8, addend: 0x0, symName: __RINvXs2_NtNtCsieiGu2EXtoJ_4core5array4iterINtB6_8IntoIterARej4_Kj2_ENtNtNtNtBa_4iter6traits8iterator8Iterator8try_folduNCINvNvB14_3any5checkBT_NCNvNtCsituP22XUc15_12tokio_macros5entry17is_test_attribute0E0INtNtNtBa_3ops12control_flow11ControlFlowuEEB2n_, symObjAddr: 0xE30, symBinAddr: 0xDB50, symSize: 0x50 }
  - { offset: 0x338C6, size: 0x8, addend: 0x0, symName: __RINvXs2_NtNtCsieiGu2EXtoJ_4core5array4iterINtB6_8IntoIterNtCsaKzlTDPUHDb_11proc_macro29TokenTreeKj1_ENtNtNtNtBa_4iter6traits8iterator8Iterator4folduNCINvNvB1B_8for_each4callBT_NCINvXsa_NtBV_8fallbackNtB2X_11TokenStreamINtNtB1F_7collect6ExtendBT_E6extendABT_B1x_E0E0ECsituP22XUc15_12tokio_macros, symObjAddr: 0xE80, symBinAddr: 0xDBA0, symSize: 0x90 }
  - { offset: 0x339DA, size: 0x8, addend: 0x0, symName: __RNvXs2_NtNtCsieiGu2EXtoJ_4core5array4iterINtB5_8IntoIterNtCsaKzlTDPUHDb_11proc_macro29TokenTreeKj1_ENtNtNtNtB9_4iter6traits8iterator8Iterator4nextCsituP22XUc15_12tokio_macros, symObjAddr: 0x3FA0, symBinAddr: 0x10CB0, symSize: 0x30 }
  - { offset: 0x33A0F, size: 0x8, addend: 0x0, symName: __RNvXs2_NtNtCsieiGu2EXtoJ_4core5array4iterINtB5_8IntoIterReKj4_ENtNtNtNtB9_4iter6traits8iterator8Iterator4nextCsituP22XUc15_12tokio_macros, symObjAddr: 0x3FD0, symBinAddr: 0x10CE0, symSize: 0x20 }
  - { offset: 0x33A86, size: 0x8, addend: 0x0, symName: __RNvXs4_NtNtCsieiGu2EXtoJ_4core5array4iterINtB5_8IntoIterARej4_Kj2_ENtNtNtB9_3ops4drop4Drop4dropCsituP22XUc15_12tokio_macros, symObjAddr: 0x45B0, symBinAddr: 0x112C0, symSize: 0x10 }
  - { offset: 0x33AB9, size: 0x8, addend: 0x0, symName: __RNvXs4_NtNtCsieiGu2EXtoJ_4core5array4iterINtB5_8IntoIterNtCsaKzlTDPUHDb_11proc_macro29TokenTreeKj1_ENtNtNtB9_3ops4drop4Drop4dropCsituP22XUc15_12tokio_macros, symObjAddr: 0x45C0, symBinAddr: 0x112D0, symSize: 0x10 }
  - { offset: 0x33AEC, size: 0x8, addend: 0x0, symName: __RNvXs4_NtNtCsieiGu2EXtoJ_4core5array4iterINtB5_8IntoIterReKj4_ENtNtNtB9_3ops4drop4Drop4dropCsituP22XUc15_12tokio_macros, symObjAddr: 0x45D0, symBinAddr: 0x112E0, symSize: 0x10 }
  - { offset: 0x33B25, size: 0x8, addend: 0x0, symName: __RNvXs_NtNtCsieiGu2EXtoJ_4core5array4iterAARej4_j2_NtNtNtNtB8_4iter6traits7collect12IntoIterator9into_iterCsituP22XUc15_12tokio_macros, symObjAddr: 0x4D90, symBinAddr: 0x11AA0, symSize: 0x90 }
  - { offset: 0x33B6F, size: 0x8, addend: 0x0, symName: __RNvXs_NtNtCsieiGu2EXtoJ_4core5array4iterANtCsaKzlTDPUHDb_11proc_macro29TokenTreej1_NtNtNtNtB8_4iter6traits7collect12IntoIterator9into_iterCsituP22XUc15_12tokio_macros, symObjAddr: 0x4E20, symBinAddr: 0x11B30, symSize: 0x80 }
  - { offset: 0x33BB9, size: 0x8, addend: 0x0, symName: __RNvXs_NtNtCsieiGu2EXtoJ_4core5array4iterARej4_NtNtNtNtB8_4iter6traits7collect12IntoIterator9into_iterCsituP22XUc15_12tokio_macros, symObjAddr: 0x4EA0, symBinAddr: 0x11BB0, symSize: 0x80 }
  - { offset: 0x342CD, size: 0x8, addend: 0x0, symName: __RNvMNtNtCsieiGu2EXtoJ_4core4char7methodsc8to_digitCsituP22XUc15_12tokio_macros, symObjAddr: 0x1D70, symBinAddr: 0xEA90, symSize: 0xF0 }
  - { offset: 0x343B5, size: 0x8, addend: 0x0, symName: __RNvNvMNtNtCsieiGu2EXtoJ_4core5alloc6layoutNtB4_6Layout25from_size_align_unchecked18precondition_checkCsituP22XUc15_12tokio_macros, symObjAddr: 0x31E0, symBinAddr: 0xFEF0, symSize: 0xB0 }
  - { offset: 0x345CD, size: 0x8, addend: 0x0, symName: __RNvXs1_NtCsieiGu2EXtoJ_4core7convertNtCsaKzlTDPUHDb_11proc_macro211TokenStreamINtB5_4IntoNtCscKtU6MdFI5n_10proc_macro11TokenStreamE4intoCsituP22XUc15_12tokio_macros, symObjAddr: 0x3DA0, symBinAddr: 0x10AB0, symSize: 0x10 }
  - { offset: 0x34B76, size: 0x8, addend: 0x0, symName: __RNvXs1_NtCsaKzlTDPUHDb_11proc_macro26markerNtB5_19ProcMacroAutoTraitsNtNtCsieiGu2EXtoJ_4core5clone5Clone5cloneCsituP22XUc15_12tokio_macros, symObjAddr: 0x3D90, symBinAddr: 0x10AA0, symSize: 0x10 }
  - { offset: 0x34E1A, size: 0x8, addend: 0x0, symName: __RNCINvXsb_CsaKzlTDPUHDb_11proc_macro2NtB8_11TokenStreamINtNtNtNtCsieiGu2EXtoJ_4core4iter6traits7collect12FromIteratorBz_E9from_iterINtNtNtBY_8adapters3map3MapINtNtB2a_3zip3ZipINtNtNtB10_5slice4iter4IterBz_EIB2O_ReEENCNvNtCsituP22XUc15_12tokio_macros5entry11parse_knobss1_0EE0B3x_, symObjAddr: 0x1520, symBinAddr: 0xE240, symSize: 0x30 }
  - { offset: 0x34E5D, size: 0x8, addend: 0x0, symName: __RINvXsb_CsaKzlTDPUHDb_11proc_macro2NtB6_11TokenStreamINtNtNtNtCsieiGu2EXtoJ_4core4iter6traits7collect12FromIteratorBx_E9from_iterINtNtNtBW_8adapters3map3MapINtNtB28_3zip3ZipINtNtNtBY_5slice4iter4IterBx_EIB2M_ReEENCNvNtCsituP22XUc15_12tokio_macros5entry11parse_knobss1_0EEB3u_, symObjAddr: 0x1100, symBinAddr: 0xDE20, symSize: 0x70 }
  - { offset: 0x34E9B, size: 0x8, addend: 0x0, symName: __RINvXs4_CsaKzlTDPUHDb_11proc_macro2NtB6_11TokenStreamINtNtNtNtCsieiGu2EXtoJ_4core4iter6traits7collect6ExtendNtB6_9TokenTreeE6extendAB1I_j1_ECsituP22XUc15_12tokio_macros, symObjAddr: 0x10A0, symBinAddr: 0xDDC0, symSize: 0x20 }
  - { offset: 0x34EDE, size: 0x8, addend: 0x0, symName: __RINvXs4_CsaKzlTDPUHDb_11proc_macro2NtB6_11TokenStreamINtNtNtNtCsieiGu2EXtoJ_4core4iter6traits7collect6ExtendNtB6_9TokenTreeE6extendBx_ECsituP22XUc15_12tokio_macros, symObjAddr: 0x10C0, symBinAddr: 0xDDE0, symSize: 0x20 }
  - { offset: 0x34F27, size: 0x8, addend: 0x0, symName: __RNvXsK_CsaKzlTDPUHDb_11proc_macro2NtB5_11TokenStreamNtNtCsieiGu2EXtoJ_4core5clone5Clone5cloneCsituP22XUc15_12tokio_macros, symObjAddr: 0x4D00, symBinAddr: 0x11A10, symSize: 0x90 }
  - { offset: 0x35103, size: 0x8, addend: 0x0, symName: __RINvNvNtCsHUR1vrdMJt_3std9panicking12catch_unwind7do_callINtNtNtCsieiGu2EXtoJ_4core5panic11unwind_safe16AssertUnwindSafeNCINvNtNtCscKtU6MdFI5n_10proc_macro6bridge6client10run_clientNtB1Z_11TokenStreamINtNtB10_6option6OptionB2T_ENCNCINvMs6_B1Z_INtB1Z_6ClientNtB23_11TokenStreamB47_E7expand1NvCsituP22XUc15_12tokio_macros25select_priv_clean_patternE00E0EuEB4F_, symObjAddr: 0x930, symBinAddr: 0xD650, symSize: 0x40 }
  - { offset: 0x351CC, size: 0x8, addend: 0x0, symName: __RINvNvNtCsHUR1vrdMJt_3std9panicking12catch_unwind7do_callINtNtNtCsieiGu2EXtoJ_4core5panic11unwind_safe16AssertUnwindSafeNCINvNtNtCscKtU6MdFI5n_10proc_macro6bridge6client10run_clientNtB1Z_11TokenStreamINtNtB10_6option6OptionB2T_ENCNCINvMs6_B1Z_INtB1Z_6ClientNtB23_11TokenStreamB47_E7expand1NvCsituP22XUc15_12tokio_macros31select_priv_declare_output_enumE00E0EuEB4F_, symObjAddr: 0x970, symBinAddr: 0xD690, symSize: 0x40 }
  - { offset: 0x35295, size: 0x8, addend: 0x0, symName: __RINvNvNtCsHUR1vrdMJt_3std9panicking12catch_unwind7do_callINtNtNtCsieiGu2EXtoJ_4core5panic11unwind_safe16AssertUnwindSafeNCINvNtNtCscKtU6MdFI5n_10proc_macro6bridge6client10run_clientTNtB1Z_11TokenStreamB2U_EINtNtB10_6option6OptionB2U_ENCNCINvMs7_B1Z_INtB1Z_6ClientTNtB23_11TokenStreamB4e_EB4e_E7expand2NvCsituP22XUc15_12tokio_macros4mainE00E0EuEB4R_, symObjAddr: 0x9B0, symBinAddr: 0xD6D0, symSize: 0x40 }
  - { offset: 0x3535E, size: 0x8, addend: 0x0, symName: __RINvNvNtCsHUR1vrdMJt_3std9panicking12catch_unwind7do_callINtNtNtCsieiGu2EXtoJ_4core5panic11unwind_safe16AssertUnwindSafeNCINvNtNtCscKtU6MdFI5n_10proc_macro6bridge6client10run_clientTNtB1Z_11TokenStreamB2U_EINtNtB10_6option6OptionB2U_ENCNCINvMs7_B1Z_INtB1Z_6ClientTNtB23_11TokenStreamB4e_EB4e_E7expand2NvCsituP22XUc15_12tokio_macros4testE00E0EuEB4R_, symObjAddr: 0x9F0, symBinAddr: 0xD710, symSize: 0x40 }
  - { offset: 0x35427, size: 0x8, addend: 0x0, symName: __RINvNvNtCsHUR1vrdMJt_3std9panicking12catch_unwind7do_callINtNtNtCsieiGu2EXtoJ_4core5panic11unwind_safe16AssertUnwindSafeNCINvNtNtCscKtU6MdFI5n_10proc_macro6bridge6client10run_clientTNtB1Z_11TokenStreamB2U_EINtNtB10_6option6OptionB2U_ENCNCINvMs7_B1Z_INtB1Z_6ClientTNtB23_11TokenStreamB4e_EB4e_E7expand2NvCsituP22XUc15_12tokio_macros7main_rtE00E0EuEB4R_, symObjAddr: 0xA30, symBinAddr: 0xD750, symSize: 0x40 }
  - { offset: 0x354F0, size: 0x8, addend: 0x0, symName: __RINvNvNtCsHUR1vrdMJt_3std9panicking12catch_unwind7do_callINtNtNtCsieiGu2EXtoJ_4core5panic11unwind_safe16AssertUnwindSafeNCINvNtNtCscKtU6MdFI5n_10proc_macro6bridge6client10run_clientTNtB1Z_11TokenStreamB2U_EINtNtB10_6option6OptionB2U_ENCNCINvMs7_B1Z_INtB1Z_6ClientTNtB23_11TokenStreamB4e_EB4e_E7expand2NvCsituP22XUc15_12tokio_macros7test_rtE00E0EuEB4R_, symObjAddr: 0xA70, symBinAddr: 0xD790, symSize: 0x40 }
  - { offset: 0x355B9, size: 0x8, addend: 0x0, symName: __RINvNvNtCsHUR1vrdMJt_3std9panicking12catch_unwind7do_callINtNtNtCsieiGu2EXtoJ_4core5panic11unwind_safe16AssertUnwindSafeNCINvNtNtCscKtU6MdFI5n_10proc_macro6bridge6client10run_clientTNtB1Z_11TokenStreamB2U_EINtNtB10_6option6OptionB2U_ENCNCINvMs7_B1Z_INtB1Z_6ClientTNtB23_11TokenStreamB4e_EB4e_E7expand2NvCsituP22XUc15_12tokio_macros9main_failE00E0EuEB4R_, symObjAddr: 0xAB0, symBinAddr: 0xD7D0, symSize: 0x40 }
  - { offset: 0x35682, size: 0x8, addend: 0x0, symName: __RINvNvNtCsHUR1vrdMJt_3std9panicking12catch_unwind7do_callINtNtNtCsieiGu2EXtoJ_4core5panic11unwind_safe16AssertUnwindSafeNCINvNtNtCscKtU6MdFI5n_10proc_macro6bridge6client10run_clientTNtB1Z_11TokenStreamB2U_EINtNtB10_6option6OptionB2U_ENCNCINvMs7_B1Z_INtB1Z_6ClientTNtB23_11TokenStreamB4e_EB4e_E7expand2NvCsituP22XUc15_12tokio_macros9test_failE00E0EuEB4R_, symObjAddr: 0xAF0, symBinAddr: 0xD810, symSize: 0x40 }
  - { offset: 0x3574B, size: 0x8, addend: 0x0, symName: __RINvNvNtCsHUR1vrdMJt_3std9panicking12catch_unwind8do_catchINtNtNtCsieiGu2EXtoJ_4core5panic11unwind_safe16AssertUnwindSafeNCINvNtNtCscKtU6MdFI5n_10proc_macro6bridge6client10run_clientNtB20_11TokenStreamINtNtB11_6option6OptionB2U_ENCNCINvMs6_B20_INtB20_6ClientNtB24_11TokenStreamB48_E7expand1NvCsituP22XUc15_12tokio_macros25select_priv_clean_patternE00E0EuEB4G_, symObjAddr: 0xB30, symBinAddr: 0xD850, symSize: 0x60 }
  - { offset: 0x357E0, size: 0x8, addend: 0x0, symName: __RINvNvNtCsHUR1vrdMJt_3std9panicking12catch_unwind8do_catchINtNtNtCsieiGu2EXtoJ_4core5panic11unwind_safe16AssertUnwindSafeNCINvNtNtCscKtU6MdFI5n_10proc_macro6bridge6client10run_clientNtB20_11TokenStreamINtNtB11_6option6OptionB2U_ENCNCINvMs6_B20_INtB20_6ClientNtB24_11TokenStreamB48_E7expand1NvCsituP22XUc15_12tokio_macros31select_priv_declare_output_enumE00E0EuEB4G_, symObjAddr: 0xB90, symBinAddr: 0xD8B0, symSize: 0x60 }
  - { offset: 0x35875, size: 0x8, addend: 0x0, symName: __RINvNvNtCsHUR1vrdMJt_3std9panicking12catch_unwind8do_catchINtNtNtCsieiGu2EXtoJ_4core5panic11unwind_safe16AssertUnwindSafeNCINvNtNtCscKtU6MdFI5n_10proc_macro6bridge6client10run_clientTNtB20_11TokenStreamB2V_EINtNtB11_6option6OptionB2V_ENCNCINvMs7_B20_INtB20_6ClientTNtB24_11TokenStreamB4f_EB4f_E7expand2NvCsituP22XUc15_12tokio_macros4mainE00E0EuEB4S_, symObjAddr: 0xBF0, symBinAddr: 0xD910, symSize: 0x60 }
  - { offset: 0x3590A, size: 0x8, addend: 0x0, symName: __RINvNvNtCsHUR1vrdMJt_3std9panicking12catch_unwind8do_catchINtNtNtCsieiGu2EXtoJ_4core5panic11unwind_safe16AssertUnwindSafeNCINvNtNtCscKtU6MdFI5n_10proc_macro6bridge6client10run_clientTNtB20_11TokenStreamB2V_EINtNtB11_6option6OptionB2V_ENCNCINvMs7_B20_INtB20_6ClientTNtB24_11TokenStreamB4f_EB4f_E7expand2NvCsituP22XUc15_12tokio_macros4testE00E0EuEB4S_, symObjAddr: 0xC50, symBinAddr: 0xD970, symSize: 0x60 }
  - { offset: 0x3599F, size: 0x8, addend: 0x0, symName: __RINvNvNtCsHUR1vrdMJt_3std9panicking12catch_unwind8do_catchINtNtNtCsieiGu2EXtoJ_4core5panic11unwind_safe16AssertUnwindSafeNCINvNtNtCscKtU6MdFI5n_10proc_macro6bridge6client10run_clientTNtB20_11TokenStreamB2V_EINtNtB11_6option6OptionB2V_ENCNCINvMs7_B20_INtB20_6ClientTNtB24_11TokenStreamB4f_EB4f_E7expand2NvCsituP22XUc15_12tokio_macros7main_rtE00E0EuEB4S_, symObjAddr: 0xCB0, symBinAddr: 0xD9D0, symSize: 0x60 }
  - { offset: 0x35A34, size: 0x8, addend: 0x0, symName: __RINvNvNtCsHUR1vrdMJt_3std9panicking12catch_unwind8do_catchINtNtNtCsieiGu2EXtoJ_4core5panic11unwind_safe16AssertUnwindSafeNCINvNtNtCscKtU6MdFI5n_10proc_macro6bridge6client10run_clientTNtB20_11TokenStreamB2V_EINtNtB11_6option6OptionB2V_ENCNCINvMs7_B20_INtB20_6ClientTNtB24_11TokenStreamB4f_EB4f_E7expand2NvCsituP22XUc15_12tokio_macros7test_rtE00E0EuEB4S_, symObjAddr: 0xD10, symBinAddr: 0xDA30, symSize: 0x60 }
  - { offset: 0x35AC9, size: 0x8, addend: 0x0, symName: __RINvNvNtCsHUR1vrdMJt_3std9panicking12catch_unwind8do_catchINtNtNtCsieiGu2EXtoJ_4core5panic11unwind_safe16AssertUnwindSafeNCINvNtNtCscKtU6MdFI5n_10proc_macro6bridge6client10run_clientTNtB20_11TokenStreamB2V_EINtNtB11_6option6OptionB2V_ENCNCINvMs7_B20_INtB20_6ClientTNtB24_11TokenStreamB4f_EB4f_E7expand2NvCsituP22XUc15_12tokio_macros9main_failE00E0EuEB4S_, symObjAddr: 0xD70, symBinAddr: 0xDA90, symSize: 0x60 }
  - { offset: 0x35B5E, size: 0x8, addend: 0x0, symName: __RINvNvNtCsHUR1vrdMJt_3std9panicking12catch_unwind8do_catchINtNtNtCsieiGu2EXtoJ_4core5panic11unwind_safe16AssertUnwindSafeNCINvNtNtCscKtU6MdFI5n_10proc_macro6bridge6client10run_clientTNtB20_11TokenStreamB2V_EINtNtB11_6option6OptionB2V_ENCNCINvMs7_B20_INtB20_6ClientTNtB24_11TokenStreamB4f_EB4f_E7expand2NvCsituP22XUc15_12tokio_macros9test_failE00E0EuEB4S_, symObjAddr: 0xDD0, symBinAddr: 0xDAF0, symSize: 0x60 }
  - { offset: 0x35DD3, size: 0x8, addend: 0x0, symName: __RINvCsdGrGZaRBwMb_3syn6parse2NtNtCsituP22XUc15_12tokio_macros5entry6ItemFnEBv_, symObjAddr: 0x0, symBinAddr: 0xCD20, symSize: 0x30 }
  - { offset: 0x36131, size: 0x8, addend: 0x0, symName: __RNCINvMs3_NtCsdGrGZaRBwMb_3syn3litNtB8_6LitInt12base10_parsejE0CsituP22XUc15_12tokio_macros, symObjAddr: 0x1490, symBinAddr: 0xE1B0, symSize: 0x90 }
  - { offset: 0x3ADDF, size: 0x8, addend: 0x0, symName: __RNvXNtCsdGrGZaRBwMb_3syn7spannedNtNtB4_3lit3LitNtB2_7Spanned4spanCsituP22XUc15_12tokio_macros, symObjAddr: 0x3950, symBinAddr: 0x10660, symSize: 0x20 }
  - { offset: 0x3AEB1, size: 0x8, addend: 0x0, symName: __RNvXss_NtCslJiobkLta79_5alloc6stringNtB5_6StringNtNtNtCsieiGu2EXtoJ_4core3ops5deref5Deref5derefCsituP22XUc15_12tokio_macros, symObjAddr: 0x5CC0, symBinAddr: 0x129D0, symSize: 0x20 }
  - { offset: 0x3B574, size: 0x8, addend: 0x0, symName: __RNvXNvXsd_NtNtCslJiobkLta79_5alloc3vec9into_iterINtB8_8IntoIterppENtNtNtCsieiGu2EXtoJ_4core3ops4drop4Drop4dropINtB2_9DropGuardNtNtCsdGrGZaRBwMb_3syn4attr4MetaNtNtBc_5alloc6GlobalEB12_4dropCsituP22XUc15_12tokio_macros, symObjAddr: 0x3BE0, symBinAddr: 0x108F0, symSize: 0x70 }
  - { offset: 0x3B689, size: 0x8, addend: 0x0, symName: __RNvXNvXsd_NtNtCslJiobkLta79_5alloc3vec9into_iterINtB8_8IntoIterppENtNtNtCsieiGu2EXtoJ_4core3ops4drop4Drop4dropINtB2_9DropGuardTNtNtCsdGrGZaRBwMb_3syn4attr4MetaNtNtB25_5token5CommaENtNtBc_5alloc6GlobalEB12_4dropCsituP22XUc15_12tokio_macros, symObjAddr: 0x3C50, symBinAddr: 0x10960, symSize: 0x70 }
  - { offset: 0x3B7EE, size: 0x8, addend: 0x0, symName: __RNvXsd_NtNtCslJiobkLta79_5alloc3vec9into_iterINtB5_8IntoIterNtNtCsdGrGZaRBwMb_3syn4attr4MetaENtNtNtCsieiGu2EXtoJ_4core3ops4drop4Drop4dropCsituP22XUc15_12tokio_macros, symObjAddr: 0x50B0, symBinAddr: 0x11DC0, symSize: 0x90 }
  - { offset: 0x3B889, size: 0x8, addend: 0x0, symName: __RNvXsd_NtNtCslJiobkLta79_5alloc3vec9into_iterINtB5_8IntoIterTNtNtCsdGrGZaRBwMb_3syn4attr4MetaNtNtB11_5token5CommaEENtNtNtCsieiGu2EXtoJ_4core3ops4drop4Drop4dropCsituP22XUc15_12tokio_macros, symObjAddr: 0x5140, symBinAddr: 0x11E50, symSize: 0x90 }
  - { offset: 0x3B92A, size: 0x8, addend: 0x0, symName: __RNvXs3_NtNtCslJiobkLta79_5alloc3vec9into_iterINtB5_8IntoIterNtNtCsdGrGZaRBwMb_3syn4attr4MetaENtNtNtNtCsieiGu2EXtoJ_4core4iter6traits8iterator8Iterator4nextCsituP22XUc15_12tokio_macros, symObjAddr: 0x4060, symBinAddr: 0x10D70, symSize: 0x100 }
  - { offset: 0x3BA88, size: 0x8, addend: 0x0, symName: __RNvXs3_NtNtCslJiobkLta79_5alloc3vec9into_iterINtB5_8IntoIterNtNtCsdGrGZaRBwMb_3syn4attr4MetaENtNtNtNtCsieiGu2EXtoJ_4core4iter6traits8iterator8Iterator9size_hintCsituP22XUc15_12tokio_macros, symObjAddr: 0x4160, symBinAddr: 0x10E70, symSize: 0x60 }
  - { offset: 0x3BAE3, size: 0x8, addend: 0x0, symName: __RNvXs3_NtNtCslJiobkLta79_5alloc3vec9into_iterINtB5_8IntoIterNtNtCsdGrGZaRBwMb_3syn4attr9AttributeENtNtNtNtCsieiGu2EXtoJ_4core4iter6traits8iterator8Iterator4nextCsituP22XUc15_12tokio_macros, symObjAddr: 0x41C0, symBinAddr: 0x10ED0, symSize: 0x100 }
  - { offset: 0x3BC41, size: 0x8, addend: 0x0, symName: __RNvXs3_NtNtCslJiobkLta79_5alloc3vec9into_iterINtB5_8IntoIterTNtNtCsdGrGZaRBwMb_3syn4attr4MetaNtNtB11_5token5CommaEENtNtNtNtCsieiGu2EXtoJ_4core4iter6traits8iterator8Iterator4nextCsituP22XUc15_12tokio_macros, symObjAddr: 0x42C0, symBinAddr: 0x10FD0, symSize: 0x100 }
  - { offset: 0x3BD9F, size: 0x8, addend: 0x0, symName: __RNvXs3_NtNtCslJiobkLta79_5alloc3vec9into_iterINtB5_8IntoIterTNtNtCsdGrGZaRBwMb_3syn4attr4MetaNtNtB11_5token5CommaEENtNtNtNtCsieiGu2EXtoJ_4core4iter6traits8iterator8Iterator9size_hintCsituP22XUc15_12tokio_macros, symObjAddr: 0x43C0, symBinAddr: 0x110D0, symSize: 0x60 }
  - { offset: 0x3CA15, size: 0x8, addend: 0x0, symName: __RNvXs6_NtCslJiobkLta79_5alloc5boxedINtB5_3BoxDNtNtCsieiGu2EXtoJ_4core5error5ErrorNtNtBM_6marker4SyncNtB1j_4SendEL_ENtNtNtBM_3ops4drop4Drop4dropCsituP22XUc15_12tokio_macros, symObjAddr: 0x45E0, symBinAddr: 0x112F0, symSize: 0xC0 }
  - { offset: 0x3CB52, size: 0x8, addend: 0x0, symName: __RNvXs6_NtCslJiobkLta79_5alloc5boxedINtB5_3BoxINtNtCsdGrGZaRBwMb_3syn5drops6NoDropDINtNtBM_10punctuated12IterMutTraitNtNtBM_3pat3PatEp4ItemQB1Q_EL_EENtNtNtCsieiGu2EXtoJ_4core3ops4drop4Drop4dropCsituP22XUc15_12tokio_macros, symObjAddr: 0x46A0, symBinAddr: 0x113B0, symSize: 0x120 }
  - { offset: 0x3CC8F, size: 0x8, addend: 0x0, symName: __RNvXs6_NtCslJiobkLta79_5alloc5boxedINtB5_3BoxINtNtCsdGrGZaRBwMb_3syn5drops6NoDropDINtNtBM_10punctuated12IterMutTraitNtNtBM_3pat8FieldPatEp4ItemQB1Q_EL_EENtNtNtCsieiGu2EXtoJ_4core3ops4drop4Drop4dropCsituP22XUc15_12tokio_macros, symObjAddr: 0x47C0, symBinAddr: 0x114D0, symSize: 0x120 }
  - { offset: 0x3CDCC, size: 0x8, addend: 0x0, symName: __RNvXs6_NtCslJiobkLta79_5alloc5boxedINtB5_3BoxNtNtCsdGrGZaRBwMb_3syn4attr4MetaENtNtNtCsieiGu2EXtoJ_4core3ops4drop4Drop4dropCsituP22XUc15_12tokio_macros, symObjAddr: 0x48E0, symBinAddr: 0x115F0, symSize: 0xB0 }
  - { offset: 0x3CF07, size: 0x8, addend: 0x0, symName: __RNvXs6_NtCslJiobkLta79_5alloc5boxedINtB5_3BoxNtNtNtCsHUR1vrdMJt_3std2io5error6CustomENtNtNtCsieiGu2EXtoJ_4core3ops4drop4Drop4dropCsituP22XUc15_12tokio_macros, symObjAddr: 0x4990, symBinAddr: 0x116A0, symSize: 0xB0 }
  - { offset: 0x3D048, size: 0x8, addend: 0x0, symName: __RNvXsD_NtCslJiobkLta79_5alloc5boxedINtB5_3BoxNtNtCsdGrGZaRBwMb_3syn3pat3PatEINtNtCsieiGu2EXtoJ_4core7convert5AsMutBH_E6as_mutCsituP22XUc15_12tokio_macros, symObjAddr: 0x4C20, symBinAddr: 0x11930, symSize: 0x10 }
  - { offset: 0x3D088, size: 0x8, addend: 0x0, symName: __RNvXsD_NtCslJiobkLta79_5alloc5boxedINtB5_3BoxNtNtCsdGrGZaRBwMb_3syn3pat8FieldPatEINtNtCsieiGu2EXtoJ_4core7convert5AsMutBH_E6as_mutCsituP22XUc15_12tokio_macros, symObjAddr: 0x4C30, symBinAddr: 0x11940, symSize: 0x10 }
  - { offset: 0x3D640, size: 0x8, addend: 0x0, symName: __RINvMNtCsdGrGZaRBwMb_3syn3litNtB3_6LitStr10parse_withNvYNtNtB5_4path4PathNtNtB5_5parse5Parse5parseECsituP22XUc15_12tokio_macros, symObjAddr: 0x30, symBinAddr: 0xCD50, symSize: 0x600 }
  - { offset: 0x3D775, size: 0x8, addend: 0x0, symName: __RINvMNtCsdGrGZaRBwMb_3syn3litNtB3_6LitStr5parseNtNtB5_4path4PathECsituP22XUc15_12tokio_macros, symObjAddr: 0x630, symBinAddr: 0xD350, symSize: 0x30 }
  - { offset: 0x3D7FB, size: 0x8, addend: 0x0, symName: __RINvMs0_NtCsaKzlTDPUHDb_11proc_macro25rcvecINtB6_8RcVecMutNtB8_9TokenTreeE6extendINtNtNtNtCsieiGu2EXtoJ_4core4iter8adapters7flatten7FlattenINtNtB1m_3map3MapIB2e_IB2e_INtNtB1m_3zip3ZipINtNtNtB1q_5slice4iter4IterNtB8_11TokenStreamEIB2W_ReEENCNvNtCsituP22XUc15_12tokio_macros5entry11parse_knobss1_0ENCINvXsb_B8_B3m_INtNtNtB1o_6traits7collect12FromIteratorB3m_E9from_iterB2z_E0ENCINvXs6_NtB8_3impNtB69_11TokenStreamIB51_B6i_E9from_iterB2u_Es_0EEEB3U_, symObjAddr: 0x660, symBinAddr: 0xD380, symSize: 0x30 }
  - { offset: 0x3D84B, size: 0x8, addend: 0x0, symName: __RINvMs3_NtCsdGrGZaRBwMb_3syn3litNtB6_6LitInt12base10_parsejECsituP22XUc15_12tokio_macros, symObjAddr: 0x690, symBinAddr: 0xD3B0, symSize: 0x60 }
  - { offset: 0x3D891, size: 0x8, addend: 0x0, symName: __RINvMsiX_NtCsdGrGZaRBwMb_3syn5tokenNtB7_5Brace8surroundNCNvMs1_NtCsituP22XUc15_12tokio_macros5entryNtBZ_6ItemFn11into_tokens0EB11_, symObjAddr: 0x6F0, symBinAddr: 0xD410, symSize: 0x130 }
  - { offset: 0x3D926, size: 0x8, addend: 0x0, symName: __RINvMsiX_NtCsdGrGZaRBwMb_3syn5tokenNtB7_5Brace8surroundNCNvXs3_NtCsituP22XUc15_12tokio_macros5entryNtBZ_4BodyNtNtCs9OU1sGv5X54_5quote9to_tokens8ToTokens9to_tokens0EB11_, symObjAddr: 0x820, symBinAddr: 0xD540, symSize: 0x110 }
  - { offset: 0x3DEAB, size: 0x8, addend: 0x0, symName: __RNvMNtCslJiobkLta79_5alloc6stringNtB2_6String6as_strCsituP22XUc15_12tokio_macros, symObjAddr: 0x1D10, symBinAddr: 0xEA30, symSize: 0x60 }
  - { offset: 0x3E125, size: 0x8, addend: 0x0, symName: __RNvXNtCs9OU1sGv5X54_5quote9to_tokensRINtNtCslJiobkLta79_5alloc5boxed3BoxNtNtCsdGrGZaRBwMb_3syn2ty4TypeENtB2_8ToTokens9to_tokensCsituP22XUc15_12tokio_macros, symObjAddr: 0x3860, symBinAddr: 0x10570, symSize: 0x30 }
  - { offset: 0x3E164, size: 0x8, addend: 0x0, symName: __RNvXNtCs9OU1sGv5X54_5quote9to_tokensRNtCsaKzlTDPUHDb_11proc_macro211TokenStreamNtB2_8ToTokens9to_tokensCsituP22XUc15_12tokio_macros, symObjAddr: 0x3890, symBinAddr: 0x105A0, symSize: 0x30 }
  - { offset: 0x3E1A3, size: 0x8, addend: 0x0, symName: __RNvXNtCs9OU1sGv5X54_5quote9to_tokensRNtCsaKzlTDPUHDb_11proc_macro25IdentNtB2_8ToTokens9to_tokensCsituP22XUc15_12tokio_macros, symObjAddr: 0x38C0, symBinAddr: 0x105D0, symSize: 0x30 }
  - { offset: 0x3E1E2, size: 0x8, addend: 0x0, symName: __RNvXNtCs9OU1sGv5X54_5quote9to_tokensRNtNtCsdGrGZaRBwMb_3syn3lit3LitNtB2_8ToTokens9to_tokensCsituP22XUc15_12tokio_macros, symObjAddr: 0x38F0, symBinAddr: 0x10600, symSize: 0x30 }
  - { offset: 0x3E221, size: 0x8, addend: 0x0, symName: __RNvXNtCs9OU1sGv5X54_5quote9to_tokensRNtNtCsdGrGZaRBwMb_3syn4attr13MetaNameValueNtB2_8ToTokens9to_tokensCsituP22XUc15_12tokio_macros, symObjAddr: 0x3920, symBinAddr: 0x10630, symSize: 0x30 }
  - { offset: 0x3E266, size: 0x8, addend: 0x0, symName: __RNvYNtCsaKzlTDPUHDb_11proc_macro25IdentNtNtCs9OU1sGv5X54_5quote9to_tokens8ToTokens15to_token_streamCsituP22XUc15_12tokio_macros, symObjAddr: 0x5EA0, symBinAddr: 0x12BB0, symSize: 0x90 }
  - { offset: 0x3E2B0, size: 0x8, addend: 0x0, symName: __RNvYNtCsaKzlTDPUHDb_11proc_macro25IdentNtNtCs9OU1sGv5X54_5quote9to_tokens8ToTokens17into_token_streamCsituP22XUc15_12tokio_macros, symObjAddr: 0x5F30, symBinAddr: 0x12C40, symSize: 0x60 }
  - { offset: 0x3E2E6, size: 0x8, addend: 0x0, symName: __RNvYNtNtCsdGrGZaRBwMb_3syn4attr13MetaNameValueNtNtCs9OU1sGv5X54_5quote9to_tokens8ToTokens15to_token_streamCsituP22XUc15_12tokio_macros, symObjAddr: 0x5F90, symBinAddr: 0x12CA0, symSize: 0x90 }
  - { offset: 0x3E330, size: 0x8, addend: 0x0, symName: __RNvYNtNtCsdGrGZaRBwMb_3syn4attr13MetaNameValueNtNtCs9OU1sGv5X54_5quote9to_tokens8ToTokens17into_token_streamCsituP22XUc15_12tokio_macros, symObjAddr: 0x6020, symBinAddr: 0x12D30, symSize: 0x60 }
  - { offset: 0x3E366, size: 0x8, addend: 0x0, symName: __RNvYNtNtCsdGrGZaRBwMb_3syn4attr4MetaNtNtCs9OU1sGv5X54_5quote9to_tokens8ToTokens15to_token_streamCsituP22XUc15_12tokio_macros, symObjAddr: 0x6080, symBinAddr: 0x12D90, symSize: 0x90 }
  - { offset: 0x3E3B0, size: 0x8, addend: 0x0, symName: __RNvYNtNtCsdGrGZaRBwMb_3syn4attr4MetaNtNtCs9OU1sGv5X54_5quote9to_tokens8ToTokens17into_token_streamCsituP22XUc15_12tokio_macros, symObjAddr: 0x6110, symBinAddr: 0x12E20, symSize: 0x60 }
  - { offset: 0x3E3E6, size: 0x8, addend: 0x0, symName: __RNvYNtNtCsdGrGZaRBwMb_3syn5token2FnNtNtCs9OU1sGv5X54_5quote9to_tokens8ToTokens15to_token_streamCsituP22XUc15_12tokio_macros, symObjAddr: 0x6170, symBinAddr: 0x12E80, symSize: 0x90 }
  - { offset: 0x3E430, size: 0x8, addend: 0x0, symName: __RNvYNtNtCsdGrGZaRBwMb_3syn5token2FnNtNtCs9OU1sGv5X54_5quote9to_tokens8ToTokens17into_token_streamCsituP22XUc15_12tokio_macros, symObjAddr: 0x6200, symBinAddr: 0x12F10, symSize: 0x50 }
  - { offset: 0x3E465, size: 0x8, addend: 0x0, symName: __RNvYRNtCsaKzlTDPUHDb_11proc_macro25IdentNtNtCs9OU1sGv5X54_5quote9to_tokens8ToTokens15to_token_streamCsituP22XUc15_12tokio_macros, symObjAddr: 0x6250, symBinAddr: 0x12F60, symSize: 0x90 }
  - { offset: 0x3E4AF, size: 0x8, addend: 0x0, symName: __RNvYRNtCsaKzlTDPUHDb_11proc_macro25IdentNtNtCs9OU1sGv5X54_5quote9to_tokens8ToTokens17into_token_streamCsituP22XUc15_12tokio_macros, symObjAddr: 0x62E0, symBinAddr: 0x12FF0, symSize: 0x50 }
  - { offset: 0x3E4E4, size: 0x8, addend: 0x0, symName: __RNvYRNtNtCsdGrGZaRBwMb_3syn3lit3LitNtNtCs9OU1sGv5X54_5quote9to_tokens8ToTokens15to_token_streamCsituP22XUc15_12tokio_macros, symObjAddr: 0x6330, symBinAddr: 0x13040, symSize: 0x90 }
  - { offset: 0x3E52E, size: 0x8, addend: 0x0, symName: __RNvYRNtNtCsdGrGZaRBwMb_3syn3lit3LitNtNtCs9OU1sGv5X54_5quote9to_tokens8ToTokens17into_token_streamCsituP22XUc15_12tokio_macros, symObjAddr: 0x63C0, symBinAddr: 0x130D0, symSize: 0x50 }
  - { offset: 0x3E563, size: 0x8, addend: 0x0, symName: __RNvYRNtNtCsdGrGZaRBwMb_3syn4attr13MetaNameValueNtNtCs9OU1sGv5X54_5quote9to_tokens8ToTokens15to_token_streamCsituP22XUc15_12tokio_macros, symObjAddr: 0x6410, symBinAddr: 0x13120, symSize: 0x90 }
  - { offset: 0x3E5AD, size: 0x8, addend: 0x0, symName: __RNvYRNtNtCsdGrGZaRBwMb_3syn4attr13MetaNameValueNtNtCs9OU1sGv5X54_5quote9to_tokens8ToTokens17into_token_streamCsituP22XUc15_12tokio_macros, symObjAddr: 0x64A0, symBinAddr: 0x131B0, symSize: 0x50 }
  - { offset: 0x3E5E2, size: 0x8, addend: 0x0, symName: __RNvYRNtNtCsdGrGZaRBwMb_3syn4attr9AttributeNtNtCs9OU1sGv5X54_5quote9to_tokens8ToTokens15to_token_streamCsituP22XUc15_12tokio_macros, symObjAddr: 0x64F0, symBinAddr: 0x13200, symSize: 0x90 }
  - { offset: 0x3E62C, size: 0x8, addend: 0x0, symName: __RNvYRNtNtCsdGrGZaRBwMb_3syn4attr9AttributeNtNtCs9OU1sGv5X54_5quote9to_tokens8ToTokens17into_token_streamCsituP22XUc15_12tokio_macros, symObjAddr: 0x6580, symBinAddr: 0x13290, symSize: 0x50 }
  - { offset: 0x3E66D, size: 0x8, addend: 0x0, symName: __RNvXs0_NtCs9OU1sGv5X54_5quote7spannedNtNtCsdGrGZaRBwMb_3syn3lit3LitNtB5_7Spanned6___spanCsituP22XUc15_12tokio_macros, symObjAddr: 0x3CC0, symBinAddr: 0x109D0, symSize: 0x30 }
  - { offset: 0x3F661, size: 0x8, addend: 0x0, symName: __RNCNCNvNtCsituP22XUc15_12tokio_macros5entry17is_test_attribute00B7_, symObjAddr: 0x0, symBinAddr: 0x132E0, symSize: 0x90 }
  - { offset: 0x40200, size: 0x8, addend: 0x0, symName: __RNCNCNvNtCsituP22XUc15_12tokio_macros5entry17is_test_attribute00B7_, symObjAddr: 0x0, symBinAddr: 0x132E0, symSize: 0x90 }
  - { offset: 0x40264, size: 0x8, addend: 0x0, symName: __RNCNvNtCsituP22XUc15_12tokio_macros5entry17is_test_attribute0B5_, symObjAddr: 0x680, symBinAddr: 0x13960, symSize: 0xF0 }
  - { offset: 0x402B2, size: 0x8, addend: 0x0, symName: __RNCNvMs0_NtCsituP22XUc15_12tokio_macros5entryNtB7_13Configuration10set_flavor0B9_, symObjAddr: 0x90, symBinAddr: 0x13370, symSize: 0x30 }
  - { offset: 0x402F5, size: 0x8, addend: 0x0, symName: __RNCNvMs0_NtCsituP22XUc15_12tokio_macros5entryNtB7_13Configuration19set_unhandled_panic0B9_, symObjAddr: 0xC0, symBinAddr: 0x133A0, symSize: 0x30 }
  - { offset: 0x40338, size: 0x8, addend: 0x0, symName: __RNCNvMs0_NtCsituP22XUc15_12tokio_macros5entryNtB7_13Configuration5build0B9_, symObjAddr: 0xF0, symBinAddr: 0x133D0, symSize: 0x20 }
  - { offset: 0x4037D, size: 0x8, addend: 0x0, symName: __RNCNvMs1_NtCsituP22XUc15_12tokio_macros5entryNtB7_6ItemFn11into_tokens0B9_, symObjAddr: 0x110, symBinAddr: 0x133F0, symSize: 0x50 }
  - { offset: 0x403D2, size: 0x8, addend: 0x0, symName: __RNCNvNtCsituP22XUc15_12tokio_macros5entry10parse_path0B5_, symObjAddr: 0x160, symBinAddr: 0x13440, symSize: 0x60 }
  - { offset: 0x40414, size: 0x8, addend: 0x0, symName: __RNCNvNtCsituP22XUc15_12tokio_macros5entry11parse_knobs0B5_, symObjAddr: 0x1C0, symBinAddr: 0x134A0, symSize: 0x60 }
  - { offset: 0x4044E, size: 0x8, addend: 0x0, symName: __RNCNvNtCsituP22XUc15_12tokio_macros5entry11parse_knobss0_0B5_, symObjAddr: 0x220, symBinAddr: 0x13500, symSize: 0x60 }
  - { offset: 0x4047E, size: 0x8, addend: 0x0, symName: __RNCNvNtCsituP22XUc15_12tokio_macros5entry11parse_knobss1_0B5_, symObjAddr: 0x280, symBinAddr: 0x13560, symSize: 0x320 }
  - { offset: 0x4054E, size: 0x8, addend: 0x0, symName: __RNCNvNtCsituP22XUc15_12tokio_macros5entry11parse_knobss_0B5_, symObjAddr: 0x5A0, symBinAddr: 0x13880, symSize: 0x60 }
  - { offset: 0x405A3, size: 0x8, addend: 0x0, symName: __RNCNvNtCsituP22XUc15_12tokio_macros5entry12build_config0B5_, symObjAddr: 0x600, symBinAddr: 0x138E0, symSize: 0x40 }
  - { offset: 0x405D3, size: 0x8, addend: 0x0, symName: __RNCNvNtCsituP22XUc15_12tokio_macros5entry12build_configs_0B5_, symObjAddr: 0x640, symBinAddr: 0x13920, symSize: 0x40 }
  - { offset: 0x40609, size: 0x8, addend: 0x0, symName: __RNCNvNtCsituP22XUc15_12tokio_macros5entry4main0B5_, symObjAddr: 0x770, symBinAddr: 0x13A50, symSize: 0x50 }
  - { offset: 0x40662, size: 0x8, addend: 0x0, symName: __RNCNvNtCsituP22XUc15_12tokio_macros5entry4test0B5_, symObjAddr: 0x7C0, symBinAddr: 0x13AA0, symSize: 0x30 }
  - { offset: 0x4069B, size: 0x8, addend: 0x0, symName: __RNCNvNtCsituP22XUc15_12tokio_macros5entry4tests_0B5_, symObjAddr: 0x7F0, symBinAddr: 0x13AD0, symSize: 0x50 }
  - { offset: 0x40700, size: 0x8, addend: 0x0, symName: __RNCNvXs3_NtCsituP22XUc15_12tokio_macros5entryNtB7_4BodyNtNtCs9OU1sGv5X54_5quote9to_tokens8ToTokens9to_tokens0B9_, symObjAddr: 0x840, symBinAddr: 0x13B20, symSize: 0x80 }
  - { offset: 0x40778, size: 0x8, addend: 0x0, symName: __RNvXs3_NtCsituP22XUc15_12tokio_macros5entryNtB5_4BodyNtNtCs9OU1sGv5X54_5quote9to_tokens8ToTokens9to_tokens, symObjAddr: 0x9D00, symBinAddr: 0x1CFE0, symSize: 0x30 }
  - { offset: 0x40A08, size: 0x8, addend: 0x0, symName: __RNvNtCsituP22XUc15_12tokio_macros5entry10parse_bool, symObjAddr: 0x2D30, symBinAddr: 0x16010, symSize: 0x230 }
  - { offset: 0x40AB1, size: 0x8, addend: 0x0, symName: __RNvNtCsituP22XUc15_12tokio_macros5entry10parse_path, symObjAddr: 0x2F60, symBinAddr: 0x16240, symSize: 0x3D0 }
  - { offset: 0x40BBF, size: 0x8, addend: 0x0, symName: __RNvNtCsituP22XUc15_12tokio_macros5entry11parse_knobs, symObjAddr: 0x3330, symBinAddr: 0x16610, symSize: 0x2F20 }
  - { offset: 0x414CA, size: 0x8, addend: 0x0, symName: __RNvNtCsituP22XUc15_12tokio_macros5entry12build_config, symObjAddr: 0x6250, symBinAddr: 0x19530, symSize: 0x1810 }
  - { offset: 0x4189D, size: 0x8, addend: 0x0, symName: __RNvNtCsituP22XUc15_12tokio_macros5entry12parse_string, symObjAddr: 0x7A60, symBinAddr: 0x1AD40, symSize: 0x340 }
  - { offset: 0x41952, size: 0x8, addend: 0x0, symName: __RNvNtCsituP22XUc15_12tokio_macros5entry17is_test_attribute, symObjAddr: 0x7DA0, symBinAddr: 0x1B080, symSize: 0x300 }
  - { offset: 0x419AF, size: 0x8, addend: 0x0, symName: __RNvNtCsituP22XUc15_12tokio_macros5entry23token_stream_with_error, symObjAddr: 0x80A0, symBinAddr: 0x1B380, symSize: 0xA0 }
  - { offset: 0x419EF, size: 0x8, addend: 0x0, symName: __RNvNtCsituP22XUc15_12tokio_macros5entry4main, symObjAddr: 0x8140, symBinAddr: 0x1B420, symSize: 0x510 }
  - { offset: 0x41AF0, size: 0x8, addend: 0x0, symName: __RNvNtCsituP22XUc15_12tokio_macros5entry4test, symObjAddr: 0x8650, symBinAddr: 0x1B930, symSize: 0x5C0 }
  - { offset: 0x41C00, size: 0x8, addend: 0x0, symName: __RNvNtCsituP22XUc15_12tokio_macros5entry9parse_int, symObjAddr: 0x8C10, symBinAddr: 0x1BEF0, symSize: 0x410 }
  - { offset: 0x41D25, size: 0x8, addend: 0x0, symName: __RNvXs2_NtCsituP22XUc15_12tokio_macros5entryNtB5_6ItemFnNtNtCsdGrGZaRBwMb_3syn5parse5Parse5parseB7_, symObjAddr: 0x9050, symBinAddr: 0x1C330, symSize: 0xCB0 }
  - { offset: 0x44B1F, size: 0x8, addend: 0x0, symName: __RNvXs1_NtNtNtCsieiGu2EXtoJ_4core3ops8function5implsQNCNvNtCsituP22XUc15_12tokio_macros5entry4test0INtB7_5FnMutTRRNtNtCsdGrGZaRBwMb_3syn4attr9AttributeEE8call_mutBU_, symObjAddr: 0x9020, symBinAddr: 0x1C300, symSize: 0x30 }
  - { offset: 0x45D01, size: 0x8, addend: 0x0, symName: __RNvMNtCsituP22XUc15_12tokio_macros5entryNtB2_13RuntimeFlavor8from_str, symObjAddr: 0x8C0, symBinAddr: 0x13BA0, symSize: 0x2F0 }
  - { offset: 0x4B1E0, size: 0x8, addend: 0x0, symName: __RNvMs0_NtCsituP22XUc15_12tokio_macros5entryNtB5_13Configuration10macro_name, symObjAddr: 0xBB0, symBinAddr: 0x13E90, symSize: 0x50 }
  - { offset: 0x4B230, size: 0x8, addend: 0x0, symName: __RNvMs0_NtCsituP22XUc15_12tokio_macros5entryNtB5_13Configuration10set_flavor, symObjAddr: 0xC00, symBinAddr: 0x13EE0, symSize: 0x360 }
  - { offset: 0x4B2F4, size: 0x8, addend: 0x0, symName: __RNvMs0_NtCsituP22XUc15_12tokio_macros5entryNtB5_13Configuration14set_crate_name, symObjAddr: 0xF60, symBinAddr: 0x14240, symSize: 0x3C0 }
  - { offset: 0x4B385, size: 0x8, addend: 0x0, symName: __RNvMs0_NtCsituP22XUc15_12tokio_macros5entryNtB5_13Configuration16set_start_paused, symObjAddr: 0x1320, symBinAddr: 0x14600, symSize: 0x220 }
  - { offset: 0x4B3F7, size: 0x8, addend: 0x0, symName: __RNvMs0_NtCsituP22XUc15_12tokio_macros5entryNtB5_13Configuration18set_worker_threads, symObjAddr: 0x1540, symBinAddr: 0x14820, symSize: 0x2A0 }
  - { offset: 0x4B461, size: 0x8, addend: 0x0, symName: __RNvMs0_NtCsituP22XUc15_12tokio_macros5entryNtB5_13Configuration19set_unhandled_panic, symObjAddr: 0x17E0, symBinAddr: 0x14AC0, symSize: 0x370 }
  - { offset: 0x4B525, size: 0x8, addend: 0x0, symName: __RNvMs0_NtCsituP22XUc15_12tokio_macros5entryNtB5_13Configuration3new, symObjAddr: 0x1B50, symBinAddr: 0x14E30, symSize: 0xD0 }
  - { offset: 0x4B555, size: 0x8, addend: 0x0, symName: __RNvMs0_NtCsituP22XUc15_12tokio_macros5entryNtB5_13Configuration5build, symObjAddr: 0x1C20, symBinAddr: 0x14F00, symSize: 0x770 }
  - { offset: 0x4B7B8, size: 0x8, addend: 0x0, symName: __RNvMs1_NtCsituP22XUc15_12tokio_macros5entryNtB5_6ItemFn11into_tokens, symObjAddr: 0x2390, symBinAddr: 0x15670, symSize: 0x560 }
  - { offset: 0x4B8C3, size: 0x8, addend: 0x0, symName: __RNvMs1_NtCsituP22XUc15_12tokio_macros5entryNtB5_6ItemFn4body, symObjAddr: 0x28F0, symBinAddr: 0x15BD0, symSize: 0x70 }
  - { offset: 0x4B900, size: 0x8, addend: 0x0, symName: __RNvMs1_NtCsituP22XUc15_12tokio_macros5entryNtB5_6ItemFn5attrs, symObjAddr: 0x2960, symBinAddr: 0x15C40, symSize: 0x90 }
  - { offset: 0x4B930, size: 0x8, addend: 0x0, symName: __RNvMs_NtCsituP22XUc15_12tokio_macros5entryNtB4_14UnhandledPanic11into_tokens, symObjAddr: 0x29F0, symBinAddr: 0x15CD0, symSize: 0x1F0 }
  - { offset: 0x4B98C, size: 0x8, addend: 0x0, symName: __RNvMs_NtCsituP22XUc15_12tokio_macros5entryNtB4_14UnhandledPanic8from_str, symObjAddr: 0x2BE0, symBinAddr: 0x15EC0, symSize: 0x150 }
  - { offset: 0x4BCFE, size: 0x8, addend: 0x0, symName: __RINvMsi_NtCslJiobkLta79_5alloc3vecINtB6_3VecNtCsaKzlTDPUHDb_11proc_macro25IdentE14extend_trustedINtNtNtNtCsieiGu2EXtoJ_4core4iter8adapters3map3MapINtNtNtB1F_3ops5range5RangejENCNvNtCsituP22XUc15_12tokio_macros6select19declare_output_enum0EEB2T_, symObjAddr: 0x0, symBinAddr: 0x1D010, symSize: 0x1A0 }
  - { offset: 0x4C201, size: 0x8, addend: 0x0, symName: __RNCNCNvXsG_NtCsdGrGZaRBwMb_3syn10punctuatedINtB9_14PrivateIterMutNtNtBb_3pat3PatNtNtBb_5token2OrENtNtNtNtCsieiGu2EXtoJ_4core4iter6traits12double_ended19DoubleEndedIterator9next_back00CsituP22XUc15_12tokio_macros, symObjAddr: 0x950, symBinAddr: 0x1D960, symSize: 0x10 }
  - { offset: 0x4C24C, size: 0x8, addend: 0x0, symName: __RNCNCNvXsG_NtCsdGrGZaRBwMb_3syn10punctuatedINtB9_14PrivateIterMutNtNtBb_3pat3PatNtNtBb_5token5CommaENtNtNtNtCsieiGu2EXtoJ_4core4iter6traits12double_ended19DoubleEndedIterator9next_back00CsituP22XUc15_12tokio_macros, symObjAddr: 0x960, symBinAddr: 0x1D970, symSize: 0x10 }
  - { offset: 0x4C297, size: 0x8, addend: 0x0, symName: __RNCNCNvXsG_NtCsdGrGZaRBwMb_3syn10punctuatedINtB9_14PrivateIterMutNtNtBb_3pat8FieldPatNtNtBb_5token5CommaENtNtNtNtCsieiGu2EXtoJ_4core4iter6traits12double_ended19DoubleEndedIterator9next_back00CsituP22XUc15_12tokio_macros, symObjAddr: 0x970, symBinAddr: 0x1D980, symSize: 0x10 }
  - { offset: 0x4C2F8, size: 0x8, addend: 0x0, symName: __RNCNvXsG_NtCsdGrGZaRBwMb_3syn10punctuatedINtB7_14PrivateIterMutNtNtB9_3pat3PatNtNtB9_5token2OrENtNtNtNtCsieiGu2EXtoJ_4core4iter6traits12double_ended19DoubleEndedIterator9next_back0CsituP22XUc15_12tokio_macros, symObjAddr: 0xA10, symBinAddr: 0x1DA20, symSize: 0x30 }
  - { offset: 0x4C33A, size: 0x8, addend: 0x0, symName: __RNCNvXsG_NtCsdGrGZaRBwMb_3syn10punctuatedINtB7_14PrivateIterMutNtNtB9_3pat3PatNtNtB9_5token5CommaENtNtNtNtCsieiGu2EXtoJ_4core4iter6traits12double_ended19DoubleEndedIterator9next_back0CsituP22XUc15_12tokio_macros, symObjAddr: 0xA40, symBinAddr: 0x1DA50, symSize: 0x30 }
  - { offset: 0x4C37C, size: 0x8, addend: 0x0, symName: __RNCNvXsG_NtCsdGrGZaRBwMb_3syn10punctuatedINtB7_14PrivateIterMutNtNtB9_3pat8FieldPatNtNtB9_5token5CommaENtNtNtNtCsieiGu2EXtoJ_4core4iter6traits12double_ended19DoubleEndedIterator9next_back0CsituP22XUc15_12tokio_macros, symObjAddr: 0xA70, symBinAddr: 0x1DA80, symSize: 0x30 }
  - { offset: 0x4C3BF, size: 0x8, addend: 0x0, symName: __RNvXsG_NtCsdGrGZaRBwMb_3syn10punctuatedINtB5_14PrivateIterMutNtNtB7_3pat3PatNtNtB7_5token2OrENtNtNtNtCsieiGu2EXtoJ_4core4iter6traits12double_ended19DoubleEndedIterator9next_backCsituP22XUc15_12tokio_macros, symObjAddr: 0x23D0, symBinAddr: 0x1F3E0, symSize: 0x40 }
  - { offset: 0x4C3FF, size: 0x8, addend: 0x0, symName: __RNvXsG_NtCsdGrGZaRBwMb_3syn10punctuatedINtB5_14PrivateIterMutNtNtB7_3pat3PatNtNtB7_5token5CommaENtNtNtNtCsieiGu2EXtoJ_4core4iter6traits12double_ended19DoubleEndedIterator9next_backCsituP22XUc15_12tokio_macros, symObjAddr: 0x2410, symBinAddr: 0x1F420, symSize: 0x40 }
  - { offset: 0x4C43F, size: 0x8, addend: 0x0, symName: __RNvXsG_NtCsdGrGZaRBwMb_3syn10punctuatedINtB5_14PrivateIterMutNtNtB7_3pat8FieldPatNtNtB7_5token5CommaENtNtNtNtCsieiGu2EXtoJ_4core4iter6traits12double_ended19DoubleEndedIterator9next_backCsituP22XUc15_12tokio_macros, symObjAddr: 0x2450, symBinAddr: 0x1F460, symSize: 0x40 }
  - { offset: 0x4C48A, size: 0x8, addend: 0x0, symName: __RNCNvXsF_NtCsdGrGZaRBwMb_3syn10punctuatedINtB7_14PrivateIterMutNtNtB9_3pat3PatNtNtB9_5token2OrENtNtNtNtCsieiGu2EXtoJ_4core4iter6traits8iterator8Iterator4next0CsituP22XUc15_12tokio_macros, symObjAddr: 0x980, symBinAddr: 0x1D990, symSize: 0x10 }
  - { offset: 0x4C4D5, size: 0x8, addend: 0x0, symName: __RNCNvXsF_NtCsdGrGZaRBwMb_3syn10punctuatedINtB7_14PrivateIterMutNtNtB9_3pat3PatNtNtB9_5token2OrENtNtNtNtCsieiGu2EXtoJ_4core4iter6traits8iterator8Iterator4nexts_0CsituP22XUc15_12tokio_macros, symObjAddr: 0x990, symBinAddr: 0x1D9A0, symSize: 0x20 }
  - { offset: 0x4C517, size: 0x8, addend: 0x0, symName: __RNCNvXsF_NtCsdGrGZaRBwMb_3syn10punctuatedINtB7_14PrivateIterMutNtNtB9_3pat3PatNtNtB9_5token5CommaENtNtNtNtCsieiGu2EXtoJ_4core4iter6traits8iterator8Iterator4next0CsituP22XUc15_12tokio_macros, symObjAddr: 0x9B0, symBinAddr: 0x1D9C0, symSize: 0x10 }
  - { offset: 0x4C562, size: 0x8, addend: 0x0, symName: __RNCNvXsF_NtCsdGrGZaRBwMb_3syn10punctuatedINtB7_14PrivateIterMutNtNtB9_3pat3PatNtNtB9_5token5CommaENtNtNtNtCsieiGu2EXtoJ_4core4iter6traits8iterator8Iterator4nexts_0CsituP22XUc15_12tokio_macros, symObjAddr: 0x9C0, symBinAddr: 0x1D9D0, symSize: 0x20 }
  - { offset: 0x4C5A4, size: 0x8, addend: 0x0, symName: __RNCNvXsF_NtCsdGrGZaRBwMb_3syn10punctuatedINtB7_14PrivateIterMutNtNtB9_3pat8FieldPatNtNtB9_5token5CommaENtNtNtNtCsieiGu2EXtoJ_4core4iter6traits8iterator8Iterator4next0CsituP22XUc15_12tokio_macros, symObjAddr: 0x9E0, symBinAddr: 0x1D9F0, symSize: 0x10 }
  - { offset: 0x4C5EF, size: 0x8, addend: 0x0, symName: __RNCNvXsF_NtCsdGrGZaRBwMb_3syn10punctuatedINtB7_14PrivateIterMutNtNtB9_3pat8FieldPatNtNtB9_5token5CommaENtNtNtNtCsieiGu2EXtoJ_4core4iter6traits8iterator8Iterator4nexts_0CsituP22XUc15_12tokio_macros, symObjAddr: 0x9F0, symBinAddr: 0x1DA00, symSize: 0x20 }
  - { offset: 0x4C647, size: 0x8, addend: 0x0, symName: __RNvXsF_NtCsdGrGZaRBwMb_3syn10punctuatedINtB5_14PrivateIterMutNtNtB7_3pat3PatNtNtB7_5token2OrENtNtNtNtCsieiGu2EXtoJ_4core4iter6traits8iterator8Iterator4nextCsituP22XUc15_12tokio_macros, symObjAddr: 0x2310, symBinAddr: 0x1F320, symSize: 0x40 }
  - { offset: 0x4C687, size: 0x8, addend: 0x0, symName: __RNvXsF_NtCsdGrGZaRBwMb_3syn10punctuatedINtB5_14PrivateIterMutNtNtB7_3pat3PatNtNtB7_5token5CommaENtNtNtNtCsieiGu2EXtoJ_4core4iter6traits8iterator8Iterator4nextCsituP22XUc15_12tokio_macros, symObjAddr: 0x2350, symBinAddr: 0x1F360, symSize: 0x40 }
  - { offset: 0x4C6C7, size: 0x8, addend: 0x0, symName: __RNvXsF_NtCsdGrGZaRBwMb_3syn10punctuatedINtB5_14PrivateIterMutNtNtB7_3pat8FieldPatNtNtB7_5token5CommaENtNtNtNtCsieiGu2EXtoJ_4core4iter6traits8iterator8Iterator4nextCsituP22XUc15_12tokio_macros, symObjAddr: 0x2390, symBinAddr: 0x1F3A0, symSize: 0x40 }
  - { offset: 0x4C891, size: 0x8, addend: 0x0, symName: __RNvXs8_NtCsdGrGZaRBwMb_3syn10punctuatedINtB5_10PunctuatedNtNtB7_4attr4MetaNtNtB7_5token5CommaENtNtNtNtCsieiGu2EXtoJ_4core4iter6traits7collect12IntoIterator9into_iterCsituP22XUc15_12tokio_macros, symObjAddr: 0x1EB0, symBinAddr: 0x1EEC0, symSize: 0x400 }
  - { offset: 0x4C93D, size: 0x8, addend: 0x0, symName: __RNvXsC_NtCsdGrGZaRBwMb_3syn10punctuatedINtB5_7IterMutNtNtB7_3pat3PatENtNtNtNtCsieiGu2EXtoJ_4core4iter6traits8iterator8Iterator4nextCsituP22XUc15_12tokio_macros, symObjAddr: 0x22B0, symBinAddr: 0x1F2C0, symSize: 0x30 }
  - { offset: 0x4C974, size: 0x8, addend: 0x0, symName: __RNvXsC_NtCsdGrGZaRBwMb_3syn10punctuatedINtB5_7IterMutNtNtB7_3pat8FieldPatENtNtNtNtCsieiGu2EXtoJ_4core4iter6traits8iterator8Iterator4nextCsituP22XUc15_12tokio_macros, symObjAddr: 0x22E0, symBinAddr: 0x1F2F0, symSize: 0x30 }
  - { offset: 0x4C9B1, size: 0x8, addend: 0x0, symName: __RNvXsH_NtCsdGrGZaRBwMb_3syn10punctuatedINtB5_14PrivateIterMutNtNtB7_3pat3PatNtNtB7_5token2OrENtNtNtNtCsieiGu2EXtoJ_4core4iter6traits10exact_size17ExactSizeIterator3lenCsituP22XUc15_12tokio_macros, symObjAddr: 0x2490, symBinAddr: 0x1F4A0, symSize: 0x80 }
  - { offset: 0x4CA29, size: 0x8, addend: 0x0, symName: __RNvXsH_NtCsdGrGZaRBwMb_3syn10punctuatedINtB5_14PrivateIterMutNtNtB7_3pat3PatNtNtB7_5token5CommaENtNtNtNtCsieiGu2EXtoJ_4core4iter6traits10exact_size17ExactSizeIterator3lenCsituP22XUc15_12tokio_macros, symObjAddr: 0x2510, symBinAddr: 0x1F520, symSize: 0x80 }
  - { offset: 0x4CAA1, size: 0x8, addend: 0x0, symName: __RNvXsH_NtCsdGrGZaRBwMb_3syn10punctuatedINtB5_14PrivateIterMutNtNtB7_3pat8FieldPatNtNtB7_5token5CommaENtNtNtNtCsieiGu2EXtoJ_4core4iter6traits10exact_size17ExactSizeIterator3lenCsituP22XUc15_12tokio_macros, symObjAddr: 0x2590, symBinAddr: 0x1F5A0, symSize: 0x80 }
  - { offset: 0x4CB1F, size: 0x8, addend: 0x0, symName: __RNvXsa_NtCsdGrGZaRBwMb_3syn10punctuatedQINtB5_10PunctuatedNtNtB7_3pat3PatNtNtB7_5token2OrENtNtNtNtCsieiGu2EXtoJ_4core4iter6traits7collect12IntoIterator9into_iterCsituP22XUc15_12tokio_macros, symObjAddr: 0x2990, symBinAddr: 0x1F9A0, symSize: 0x20 }
  - { offset: 0x4CB5F, size: 0x8, addend: 0x0, symName: __RNvXsa_NtCsdGrGZaRBwMb_3syn10punctuatedQINtB5_10PunctuatedNtNtB7_3pat3PatNtNtB7_5token5CommaENtNtNtNtCsieiGu2EXtoJ_4core4iter6traits7collect12IntoIterator9into_iterCsituP22XUc15_12tokio_macros, symObjAddr: 0x29B0, symBinAddr: 0x1F9C0, symSize: 0x20 }
  - { offset: 0x4CB9F, size: 0x8, addend: 0x0, symName: __RNvXsa_NtCsdGrGZaRBwMb_3syn10punctuatedQINtB5_10PunctuatedNtNtB7_3pat8FieldPatNtNtB7_5token5CommaENtNtNtNtCsieiGu2EXtoJ_4core4iter6traits7collect12IntoIterator9into_iterCsituP22XUc15_12tokio_macros, symObjAddr: 0x29D0, symBinAddr: 0x1F9E0, symSize: 0x20 }
  - { offset: 0x4CBE5, size: 0x8, addend: 0x0, symName: __RNvXsn_NtCsdGrGZaRBwMb_3syn10punctuatedINtB5_8IntoIterNtNtB7_4attr4MetaENtNtNtNtCsieiGu2EXtoJ_4core4iter6traits8iterator8Iterator4nextCsituP22XUc15_12tokio_macros, symObjAddr: 0x3130, symBinAddr: 0x20140, symSize: 0x30 }
  - { offset: 0x516C1, size: 0x8, addend: 0x0, symName: __RNvXsh_NtCsdGrGZaRBwMb_3syn5parseNvMNtB7_10punctuatedINtBy_10PunctuatedNtNtB7_4attr4MetaNtNtB7_5token5CommaE16parse_terminatedNtB5_6Parser6parse2CsituP22XUc15_12tokio_macros, symObjAddr: 0x2CF0, symBinAddr: 0x1FD00, symSize: 0x440 }
  - { offset: 0x52352, size: 0x8, addend: 0x0, symName: __RINvXsd_NtCslJiobkLta79_5alloc3vecINtB6_3VecNtCsaKzlTDPUHDb_11proc_macro25IdentEINtNtNtNtCsieiGu2EXtoJ_4core4iter6traits7collect12FromIteratorBG_E9from_iterINtNtNtB1n_8adapters3map3MapINtNtNtB1p_3ops5range5RangejENCNvNtCsituP22XUc15_12tokio_macros6select19declare_output_enum0EEB3v_, symObjAddr: 0x430, symBinAddr: 0x1D440, symSize: 0x60 }
  - { offset: 0x52398, size: 0x8, addend: 0x0, symName: __RINvXsh_NtCslJiobkLta79_5alloc3vecINtB6_3VecNtCsaKzlTDPUHDb_11proc_macro29TokenTreeEINtNtNtNtCsieiGu2EXtoJ_4core4iter6traits7collect6ExtendBG_E6extendINtNtNtB1r_8adapters7flatten7FlattenINtNtB2t_3map3MapIB2Z_IB2Z_INtNtB2t_3zip3ZipINtNtNtB1t_5slice4iter4IterNtBI_11TokenStreamEIB3H_ReEENCNvNtCsituP22XUc15_12tokio_macros5entry11parse_knobss1_0ENCINvXsb_BI_B47_INtB1n_12FromIteratorB47_E9from_iterB3k_E0ENCINvXs6_NtBI_3impNtB6B_11TokenStreamIB5M_B6K_E9from_iterB3f_Es_0EEEB4F_, symObjAddr: 0x490, symBinAddr: 0x1D4A0, symSize: 0x40 }
  - { offset: 0x523F8, size: 0x8, addend: 0x0, symName: __RNCINvMsi_NtCslJiobkLta79_5alloc3vecINtB8_3VecNtCsaKzlTDPUHDb_11proc_macro25IdentE14extend_trustedINtNtNtNtCsieiGu2EXtoJ_4core4iter8adapters3map3MapINtNtNtB1H_3ops5range5RangejENCNvNtCsituP22XUc15_12tokio_macros6select19declare_output_enum0EE0B2V_, symObjAddr: 0x910, symBinAddr: 0x1D920, symSize: 0x40 }
  - { offset: 0x5283A, size: 0x8, addend: 0x0, symName: __RNvNvMs_NtCslJiobkLta79_5alloc3vecINtB6_3VecppE7set_len18precondition_checkCsituP22XUc15_12tokio_macros, symObjAddr: 0x1CC0, symBinAddr: 0x1ECD0, symSize: 0xA0 }
  - { offset: 0x528AE, size: 0x8, addend: 0x0, symName: __RNvXNtNtCslJiobkLta79_5alloc3vec11spec_extendINtB4_3VecNtCsaKzlTDPUHDb_11proc_macro29TokenTreeEINtB2_10SpecExtendBR_INtNtNtNtCsieiGu2EXtoJ_4core4iter8adapters7flatten7FlattenINtNtB1V_3map3MapIB2N_IB2N_INtNtB1V_3zip3ZipINtNtNtB1Z_5slice4iter4IterNtBT_11TokenStreamEIB3v_ReEENCNvNtCsituP22XUc15_12tokio_macros5entry11parse_knobss1_0ENCINvXsb_BT_B3V_INtNtNtB1X_6traits7collect12FromIteratorB3V_E9from_iterB38_E0ENCINvXs6_NtBT_3impNtB6I_11TokenStreamIB5A_B6R_E9from_iterB33_Es_0EEE11spec_extendB4t_, symObjAddr: 0x1D60, symBinAddr: 0x1ED70, symSize: 0x20 }
  - { offset: 0x52906, size: 0x8, addend: 0x0, symName: __RNvXs_NtNtCslJiobkLta79_5alloc3vec11spec_extendINtB6_3VecNtCsaKzlTDPUHDb_11proc_macro25IdentEINtB4_10SpecExtendBT_INtNtNtNtCsieiGu2EXtoJ_4core4iter8adapters3map3MapINtNtNtB1X_3ops5range5RangejENCNvNtCsituP22XUc15_12tokio_macros6select19declare_output_enum0EE11spec_extendB3b_, symObjAddr: 0x2610, symBinAddr: 0x1F620, symSize: 0x20 }
  - { offset: 0x52963, size: 0x8, addend: 0x0, symName: __RNvXNtNtCslJiobkLta79_5alloc3vec14spec_from_iterINtB4_3VecNtCsaKzlTDPUHDb_11proc_macro25IdentEINtB2_12SpecFromIterBU_INtNtNtNtCsieiGu2EXtoJ_4core4iter8adapters3map3MapINtNtNtB20_3ops5range5RangejENCNvNtCsituP22XUc15_12tokio_macros6select19declare_output_enum0EE9from_iterB3e_, symObjAddr: 0x1D80, symBinAddr: 0x1ED90, symSize: 0x30 }
  - { offset: 0x529A8, size: 0x8, addend: 0x0, symName: __RNvXs6_NtCslJiobkLta79_5alloc3vecINtB5_3VecNtCsaKzlTDPUHDb_11proc_macro211TokenStreamENtNtNtCsieiGu2EXtoJ_4core3ops5deref5Deref5derefCsituP22XUc15_12tokio_macros, symObjAddr: 0x1E10, symBinAddr: 0x1EE20, symSize: 0x20 }
  - { offset: 0x529E8, size: 0x8, addend: 0x0, symName: __RNvXs6_NtCslJiobkLta79_5alloc3vecINtB5_3VecNtCsaKzlTDPUHDb_11proc_macro25IdentENtNtNtCsieiGu2EXtoJ_4core3ops5deref5Deref5derefCsituP22XUc15_12tokio_macros, symObjAddr: 0x1E30, symBinAddr: 0x1EE40, symSize: 0x20 }
  - { offset: 0x52A5E, size: 0x8, addend: 0x0, symName: __RNvXs7_NtCslJiobkLta79_5alloc3vecINtB5_3VecTNtNtCsdGrGZaRBwMb_3syn3pat3PatNtNtBK_5token2OrEENtNtNtCsieiGu2EXtoJ_4core3ops5deref8DerefMut9deref_mutCsituP22XUc15_12tokio_macros, symObjAddr: 0x1E50, symBinAddr: 0x1EE60, symSize: 0x20 }
  - { offset: 0x52A9E, size: 0x8, addend: 0x0, symName: __RNvXs7_NtCslJiobkLta79_5alloc3vecINtB5_3VecTNtNtCsdGrGZaRBwMb_3syn3pat3PatNtNtBK_5token5CommaEENtNtNtCsieiGu2EXtoJ_4core3ops5deref8DerefMut9deref_mutCsituP22XUc15_12tokio_macros, symObjAddr: 0x1E70, symBinAddr: 0x1EE80, symSize: 0x20 }
  - { offset: 0x52ADE, size: 0x8, addend: 0x0, symName: __RNvXs7_NtCslJiobkLta79_5alloc3vecINtB5_3VecTNtNtCsdGrGZaRBwMb_3syn3pat8FieldPatNtNtBK_5token5CommaEENtNtNtCsieiGu2EXtoJ_4core3ops5deref8DerefMut9deref_mutCsituP22XUc15_12tokio_macros, symObjAddr: 0x1E90, symBinAddr: 0x1EEA0, symSize: 0x20 }
  - { offset: 0x52B29, size: 0x8, addend: 0x0, symName: __RNvXs_NtNtCslJiobkLta79_5alloc3vec21spec_from_iter_nestedINtB6_3VecNtCsaKzlTDPUHDb_11proc_macro25IdentEINtB4_18SpecFromIterNestedB13_INtNtNtNtCsieiGu2EXtoJ_4core4iter8adapters3map3MapINtNtNtB2g_3ops5range5RangejENCNvNtCsituP22XUc15_12tokio_macros6select19declare_output_enum0EE9from_iterB3u_, symObjAddr: 0x2630, symBinAddr: 0x1F640, symSize: 0x1B0 }
  - { offset: 0x52C08, size: 0x8, addend: 0x0, symName: __RNvXse_NtCslJiobkLta79_5alloc3vecINtB5_3VecNtNtCsdGrGZaRBwMb_3syn4attr4MetaENtNtNtNtCsieiGu2EXtoJ_4core4iter6traits7collect12IntoIterator9into_iterCsituP22XUc15_12tokio_macros, symObjAddr: 0x29F0, symBinAddr: 0x1FA00, symSize: 0x140 }
  - { offset: 0x52E98, size: 0x8, addend: 0x0, symName: __RNvXse_NtCslJiobkLta79_5alloc3vecINtB5_3VecTNtNtCsdGrGZaRBwMb_3syn4attr4MetaNtNtBK_5token5CommaEENtNtNtNtCsieiGu2EXtoJ_4core4iter6traits7collect12IntoIterator9into_iterCsituP22XUc15_12tokio_macros, symObjAddr: 0x2B30, symBinAddr: 0x1FB40, symSize: 0x140 }
  - { offset: 0x531B1, size: 0x8, addend: 0x0, symName: __RNvXsf_NtCslJiobkLta79_5alloc3vecRINtB5_3VecReENtNtNtNtCsieiGu2EXtoJ_4core4iter6traits7collect12IntoIterator9into_iterCsituP22XUc15_12tokio_macros, symObjAddr: 0x2C70, symBinAddr: 0x1FC80, symSize: 0x80 }
  - { offset: 0x533E4, size: 0x8, addend: 0x0, symName: __RNvXsn_NtCslJiobkLta79_5alloc3vecINtB5_3VecNtCsaKzlTDPUHDb_11proc_macro211TokenStreamENtNtNtCsieiGu2EXtoJ_4core3ops4drop4Drop4dropCsituP22XUc15_12tokio_macros, symObjAddr: 0x3160, symBinAddr: 0x20170, symSize: 0x30 }
  - { offset: 0x53494, size: 0x8, addend: 0x0, symName: __RNvXsn_NtCslJiobkLta79_5alloc3vecINtB5_3VecNtCsaKzlTDPUHDb_11proc_macro25IdentENtNtNtCsieiGu2EXtoJ_4core3ops4drop4Drop4dropCsituP22XUc15_12tokio_macros, symObjAddr: 0x3190, symBinAddr: 0x201A0, symSize: 0x30 }
  - { offset: 0x53544, size: 0x8, addend: 0x0, symName: __RNvXsn_NtCslJiobkLta79_5alloc3vecINtB5_3VecNtNtCsdGrGZaRBwMb_3syn4attr4MetaENtNtNtCsieiGu2EXtoJ_4core3ops4drop4Drop4dropCsituP22XUc15_12tokio_macros, symObjAddr: 0x31C0, symBinAddr: 0x201D0, symSize: 0x30 }
  - { offset: 0x535F4, size: 0x8, addend: 0x0, symName: __RNvXsn_NtCslJiobkLta79_5alloc3vecINtB5_3VecTNtNtCsdGrGZaRBwMb_3syn4attr4MetaNtNtBK_5token5CommaEENtNtNtCsieiGu2EXtoJ_4core3ops4drop4Drop4dropCsituP22XUc15_12tokio_macros, symObjAddr: 0x31F0, symBinAddr: 0x20200, symSize: 0x30 }
  - { offset: 0x58BFC, size: 0x8, addend: 0x0, symName: __RINvYINtNtCsdGrGZaRBwMb_3syn10punctuated14PrivateIterMutNtNtB8_3pat3PatNtNtB8_5token2OrENtNtNtNtCsieiGu2EXtoJ_4core4iter6traits8iterator8Iterator8try_foldINtNtNtB1w_3num7nonzero7NonZerojENCNvXs_NvB1o_10advance_byB3_NtB36_13SpecAdvanceBy15spec_advance_by0INtNtB1w_6option6OptionB2s_EECsituP22XUc15_12tokio_macros, symObjAddr: 0x4D0, symBinAddr: 0x1D4E0, symSize: 0x130 }
  - { offset: 0x58CB0, size: 0x8, addend: 0x0, symName: __RINvYINtNtCsdGrGZaRBwMb_3syn10punctuated14PrivateIterMutNtNtB8_3pat3PatNtNtB8_5token5CommaENtNtNtNtCsieiGu2EXtoJ_4core4iter6traits8iterator8Iterator8try_foldINtNtNtB1z_3num7nonzero7NonZerojENCNvXs_NvB1r_10advance_byB3_NtB39_13SpecAdvanceBy15spec_advance_by0INtNtB1z_6option6OptionB2v_EECsituP22XUc15_12tokio_macros, symObjAddr: 0x600, symBinAddr: 0x1D610, symSize: 0x130 }
  - { offset: 0x58D64, size: 0x8, addend: 0x0, symName: __RINvYINtNtCsdGrGZaRBwMb_3syn10punctuated14PrivateIterMutNtNtB8_3pat8FieldPatNtNtB8_5token5CommaENtNtNtNtCsieiGu2EXtoJ_4core4iter6traits8iterator8Iterator8try_foldINtNtNtB1E_3num7nonzero7NonZerojENCNvXs_NvB1w_10advance_byB3_NtB3e_13SpecAdvanceBy15spec_advance_by0INtNtB1E_6option6OptionB2A_EECsituP22XUc15_12tokio_macros, symObjAddr: 0x730, symBinAddr: 0x1D740, symSize: 0x130 }
  - { offset: 0x58E18, size: 0x8, addend: 0x0, symName: __RINvYINtNtCsdGrGZaRBwMb_3syn10punctuated4IterNtNtB8_4path11PathSegmentENtNtNtNtCsieiGu2EXtoJ_4core4iter6traits8iterator8Iterator3zipARej4_ECsituP22XUc15_12tokio_macros, symObjAddr: 0x860, symBinAddr: 0x1D870, symSize: 0xB0 }
  - { offset: 0x58E9B, size: 0x8, addend: 0x0, symName: __RNvXs_NvNtNtNtNtCsieiGu2EXtoJ_4core4iter6traits8iterator8Iterator10advance_byINtNtCsdGrGZaRBwMb_3syn10punctuated14PrivateIterMutNtNtB1i_3pat3PatNtNtB1i_5token2OrENtB4_13SpecAdvanceBy15spec_advance_byCsituP22XUc15_12tokio_macros, symObjAddr: 0x27E0, symBinAddr: 0x1F7F0, symSize: 0x90 }
  - { offset: 0x58F49, size: 0x8, addend: 0x0, symName: __RNvXs_NvNtNtNtNtCsieiGu2EXtoJ_4core4iter6traits8iterator8Iterator10advance_byINtNtCsdGrGZaRBwMb_3syn10punctuated14PrivateIterMutNtNtB1i_3pat3PatNtNtB1i_5token5CommaENtB4_13SpecAdvanceBy15spec_advance_byCsituP22XUc15_12tokio_macros, symObjAddr: 0x2870, symBinAddr: 0x1F880, symSize: 0x90 }
  - { offset: 0x58FF7, size: 0x8, addend: 0x0, symName: __RNvXs_NvNtNtNtNtCsieiGu2EXtoJ_4core4iter6traits8iterator8Iterator10advance_byINtNtCsdGrGZaRBwMb_3syn10punctuated14PrivateIterMutNtNtB1i_3pat8FieldPatNtNtB1i_5token5CommaENtB4_13SpecAdvanceBy15spec_advance_byCsituP22XUc15_12tokio_macros, symObjAddr: 0x2900, symBinAddr: 0x1F910, symSize: 0x90 }
  - { offset: 0x590C2, size: 0x8, addend: 0x0, symName: __RNvYINtNtCsdGrGZaRBwMb_3syn10punctuated14PrivateIterMutNtNtB7_3pat3PatNtNtB7_5token2OrENtNtNtNtCsieiGu2EXtoJ_4core4iter6traits8iterator8Iterator10advance_byCsituP22XUc15_12tokio_macros, symObjAddr: 0x3450, symBinAddr: 0x20460, symSize: 0x20 }
  - { offset: 0x59108, size: 0x8, addend: 0x0, symName: __RNvYINtNtCsdGrGZaRBwMb_3syn10punctuated14PrivateIterMutNtNtB7_3pat3PatNtNtB7_5token2OrENtNtNtNtCsieiGu2EXtoJ_4core4iter6traits8iterator8Iterator3nthCsituP22XUc15_12tokio_macros, symObjAddr: 0x3470, symBinAddr: 0x20480, symSize: 0x80 }
  - { offset: 0x591D8, size: 0x8, addend: 0x0, symName: __RNvYINtNtCsdGrGZaRBwMb_3syn10punctuated14PrivateIterMutNtNtB7_3pat3PatNtNtB7_5token2OrENtNtNtNtCsieiGu2EXtoJ_4core4iter6traits8iterator8Iterator9size_hintCsituP22XUc15_12tokio_macros, symObjAddr: 0x34F0, symBinAddr: 0x20500, symSize: 0x30 }
  - { offset: 0x5920D, size: 0x8, addend: 0x0, symName: __RNvYINtNtCsdGrGZaRBwMb_3syn10punctuated14PrivateIterMutNtNtB7_3pat3PatNtNtB7_5token5CommaENtNtNtNtCsieiGu2EXtoJ_4core4iter6traits8iterator8Iterator10advance_byCsituP22XUc15_12tokio_macros, symObjAddr: 0x3750, symBinAddr: 0x20760, symSize: 0x20 }
  - { offset: 0x59253, size: 0x8, addend: 0x0, symName: __RNvYINtNtCsdGrGZaRBwMb_3syn10punctuated14PrivateIterMutNtNtB7_3pat3PatNtNtB7_5token5CommaENtNtNtNtCsieiGu2EXtoJ_4core4iter6traits8iterator8Iterator3nthCsituP22XUc15_12tokio_macros, symObjAddr: 0x3770, symBinAddr: 0x20780, symSize: 0x80 }
  - { offset: 0x59323, size: 0x8, addend: 0x0, symName: __RNvYINtNtCsdGrGZaRBwMb_3syn10punctuated14PrivateIterMutNtNtB7_3pat3PatNtNtB7_5token5CommaENtNtNtNtCsieiGu2EXtoJ_4core4iter6traits8iterator8Iterator9size_hintCsituP22XUc15_12tokio_macros, symObjAddr: 0x37F0, symBinAddr: 0x20800, symSize: 0x30 }
  - { offset: 0x59358, size: 0x8, addend: 0x0, symName: __RNvYINtNtCsdGrGZaRBwMb_3syn10punctuated14PrivateIterMutNtNtB7_3pat8FieldPatNtNtB7_5token5CommaENtNtNtNtCsieiGu2EXtoJ_4core4iter6traits8iterator8Iterator10advance_byCsituP22XUc15_12tokio_macros, symObjAddr: 0x3A50, symBinAddr: 0x20A60, symSize: 0x20 }
  - { offset: 0x5939E, size: 0x8, addend: 0x0, symName: __RNvYINtNtCsdGrGZaRBwMb_3syn10punctuated14PrivateIterMutNtNtB7_3pat8FieldPatNtNtB7_5token5CommaENtNtNtNtCsieiGu2EXtoJ_4core4iter6traits8iterator8Iterator3nthCsituP22XUc15_12tokio_macros, symObjAddr: 0x3A70, symBinAddr: 0x20A80, symSize: 0x80 }
  - { offset: 0x5946E, size: 0x8, addend: 0x0, symName: __RNvYINtNtCsdGrGZaRBwMb_3syn10punctuated14PrivateIterMutNtNtB7_3pat8FieldPatNtNtB7_5token5CommaENtNtNtNtCsieiGu2EXtoJ_4core4iter6traits8iterator8Iterator9size_hintCsituP22XUc15_12tokio_macros, symObjAddr: 0x3AF0, symBinAddr: 0x20B00, symSize: 0x30 }
  - { offset: 0x594AF, size: 0x8, addend: 0x0, symName: __RNvYINtNtCsdGrGZaRBwMb_3syn10punctuated14PrivateIterMutNtNtB7_3pat3PatNtNtB7_5token2OrENtNtNtNtCsieiGu2EXtoJ_4core4iter6traits10exact_size17ExactSizeIterator8is_emptyCsituP22XUc15_12tokio_macros, symObjAddr: 0x3220, symBinAddr: 0x20230, symSize: 0x20 }
  - { offset: 0x594E4, size: 0x8, addend: 0x0, symName: __RNvYINtNtCsdGrGZaRBwMb_3syn10punctuated14PrivateIterMutNtNtB7_3pat3PatNtNtB7_5token5CommaENtNtNtNtCsieiGu2EXtoJ_4core4iter6traits10exact_size17ExactSizeIterator8is_emptyCsituP22XUc15_12tokio_macros, symObjAddr: 0x3520, symBinAddr: 0x20530, symSize: 0x20 }
  - { offset: 0x59519, size: 0x8, addend: 0x0, symName: __RNvYINtNtCsdGrGZaRBwMb_3syn10punctuated14PrivateIterMutNtNtB7_3pat8FieldPatNtNtB7_5token5CommaENtNtNtNtCsieiGu2EXtoJ_4core4iter6traits10exact_size17ExactSizeIterator8is_emptyCsituP22XUc15_12tokio_macros, symObjAddr: 0x3820, symBinAddr: 0x20830, symSize: 0x20 }
  - { offset: 0x5955A, size: 0x8, addend: 0x0, symName: __RNvYINtNtCsdGrGZaRBwMb_3syn10punctuated14PrivateIterMutNtNtB7_3pat3PatNtNtB7_5token2OrENtNtNtNtCsieiGu2EXtoJ_4core4iter6traits12double_ended19DoubleEndedIterator15advance_back_byCsituP22XUc15_12tokio_macros, symObjAddr: 0x3240, symBinAddr: 0x20250, symSize: 0x1A0 }
  - { offset: 0x596D9, size: 0x8, addend: 0x0, symName: __RNvYINtNtCsdGrGZaRBwMb_3syn10punctuated14PrivateIterMutNtNtB7_3pat3PatNtNtB7_5token2OrENtNtNtNtCsieiGu2EXtoJ_4core4iter6traits12double_ended19DoubleEndedIterator8nth_backCsituP22XUc15_12tokio_macros, symObjAddr: 0x33E0, symBinAddr: 0x203F0, symSize: 0x70 }
  - { offset: 0x59757, size: 0x8, addend: 0x0, symName: __RNvYINtNtCsdGrGZaRBwMb_3syn10punctuated14PrivateIterMutNtNtB7_3pat3PatNtNtB7_5token5CommaENtNtNtNtCsieiGu2EXtoJ_4core4iter6traits12double_ended19DoubleEndedIterator15advance_back_byCsituP22XUc15_12tokio_macros, symObjAddr: 0x3540, symBinAddr: 0x20550, symSize: 0x1A0 }
  - { offset: 0x598D6, size: 0x8, addend: 0x0, symName: __RNvYINtNtCsdGrGZaRBwMb_3syn10punctuated14PrivateIterMutNtNtB7_3pat3PatNtNtB7_5token5CommaENtNtNtNtCsieiGu2EXtoJ_4core4iter6traits12double_ended19DoubleEndedIterator8nth_backCsituP22XUc15_12tokio_macros, symObjAddr: 0x36E0, symBinAddr: 0x206F0, symSize: 0x70 }
  - { offset: 0x59954, size: 0x8, addend: 0x0, symName: __RNvYINtNtCsdGrGZaRBwMb_3syn10punctuated14PrivateIterMutNtNtB7_3pat8FieldPatNtNtB7_5token5CommaENtNtNtNtCsieiGu2EXtoJ_4core4iter6traits12double_ended19DoubleEndedIterator15advance_back_byCsituP22XUc15_12tokio_macros, symObjAddr: 0x3840, symBinAddr: 0x20850, symSize: 0x1A0 }
  - { offset: 0x59AD3, size: 0x8, addend: 0x0, symName: __RNvYINtNtCsdGrGZaRBwMb_3syn10punctuated14PrivateIterMutNtNtB7_3pat8FieldPatNtNtB7_5token5CommaENtNtNtNtCsieiGu2EXtoJ_4core4iter6traits12double_ended19DoubleEndedIterator8nth_backCsituP22XUc15_12tokio_macros, symObjAddr: 0x39E0, symBinAddr: 0x209F0, symSize: 0x70 }
  - { offset: 0x5AA68, size: 0x8, addend: 0x0, symName: __RINvMsi_NtCslJiobkLta79_5alloc3vecINtB6_3VecNtCsaKzlTDPUHDb_11proc_macro25IdentE14extend_trustedINtNtNtNtCsieiGu2EXtoJ_4core4iter8adapters3map3MapINtNtNtB1F_3ops5range5RangejENCNvNtCsituP22XUc15_12tokio_macros6select19declare_output_enum0EEB2T_, symObjAddr: 0x0, symBinAddr: 0x1D010, symSize: 0x1A0 }
  - { offset: 0x5AE2B, size: 0x8, addend: 0x0, symName: __RINvMsi_NtCslJiobkLta79_5alloc3vecINtB6_3VecNtCsaKzlTDPUHDb_11proc_macro29TokenTreeE16extend_desugaredINtNtNtNtCsieiGu2EXtoJ_4core4iter8adapters7flatten7FlattenINtNtB1H_3map3MapIB2z_IB2z_INtNtB1H_3zip3ZipINtNtNtB1L_5slice4iter4IterNtBI_11TokenStreamEIB3h_ReEENCNvNtCsituP22XUc15_12tokio_macros5entry11parse_knobss1_0ENCINvXsb_BI_B3H_INtNtNtB1J_6traits7collect12FromIteratorB3H_E9from_iterB2U_E0ENCINvXs6_NtBI_3impNtB6u_11TokenStreamIB5m_B6D_E9from_iterB2P_Es_0EEEB4f_, symObjAddr: 0x1A0, symBinAddr: 0x1D1B0, symSize: 0x290 }
  - { offset: 0x5B1DE, size: 0x8, addend: 0x0, symName: __RNvMNtCsdGrGZaRBwMb_3syn10punctuatedINtB2_10PunctuatedNtNtB4_3pat3PatNtNtB4_5token2OrE8iter_mutCsituP22XUc15_12tokio_macros, symObjAddr: 0xAA0, symBinAddr: 0x1DAB0, symSize: 0xC0 }
  - { offset: 0x5B24A, size: 0x8, addend: 0x0, symName: __RNvMNtCsdGrGZaRBwMb_3syn10punctuatedINtB2_10PunctuatedNtNtB4_3pat3PatNtNtB4_5token5CommaE8iter_mutCsituP22XUc15_12tokio_macros, symObjAddr: 0xB60, symBinAddr: 0x1DB70, symSize: 0xC0 }
  - { offset: 0x5B2E4, size: 0x8, addend: 0x0, symName: __RNvMNtCsdGrGZaRBwMb_3syn10punctuatedINtB2_10PunctuatedNtNtB4_3pat8FieldPatNtNtB4_5token5CommaE8iter_mutCsituP22XUc15_12tokio_macros, symObjAddr: 0xC20, symBinAddr: 0x1DC30, symSize: 0xC0 }
  - { offset: 0x5B399, size: 0x8, addend: 0x0, symName: __RNvMNtCsdGrGZaRBwMb_3syn10punctuatedINtB2_10PunctuatedNtNtB4_4attr4MetaNtNtB4_5token5CommaE10push_punctCsituP22XUc15_12tokio_macros, symObjAddr: 0xCE0, symBinAddr: 0x1DCF0, symSize: 0x230 }
  - { offset: 0x5B417, size: 0x8, addend: 0x0, symName: __RNvMNtCsdGrGZaRBwMb_3syn10punctuatedINtB2_10PunctuatedNtNtB4_4attr4MetaNtNtB4_5token5CommaE10push_valueCsituP22XUc15_12tokio_macros, symObjAddr: 0xF10, symBinAddr: 0x1DF20, symSize: 0x1C0 }
  - { offset: 0x5B4D4, size: 0x8, addend: 0x0, symName: __RNvMNtCsdGrGZaRBwMb_3syn10punctuatedINtB2_10PunctuatedNtNtB4_4attr4MetaNtNtB4_5token5CommaE16parse_terminatedCsituP22XUc15_12tokio_macros, symObjAddr: 0x10D0, symBinAddr: 0x1E0E0, symSize: 0x40 }
  - { offset: 0x5B516, size: 0x8, addend: 0x0, symName: __RNvMNtCsdGrGZaRBwMb_3syn10punctuatedINtB2_10PunctuatedNtNtB4_4attr4MetaNtNtB4_5token5CommaE17empty_or_trailingCsituP22XUc15_12tokio_macros, symObjAddr: 0x1110, symBinAddr: 0x1E120, symSize: 0x30 }
  - { offset: 0x5B562, size: 0x8, addend: 0x0, symName: __RNvMNtCsdGrGZaRBwMb_3syn10punctuatedINtB2_10PunctuatedNtNtB4_4attr4MetaNtNtB4_5token5CommaE21parse_terminated_withCsituP22XUc15_12tokio_macros, symObjAddr: 0x1140, symBinAddr: 0x1E150, symSize: 0x3A0 }
  - { offset: 0x5B667, size: 0x8, addend: 0x0, symName: __RNvMNtCsdGrGZaRBwMb_3syn10punctuatedINtB2_10PunctuatedNtNtB4_4attr4MetaNtNtB4_5token5CommaE3lenCsituP22XUc15_12tokio_macros, symObjAddr: 0x14E0, symBinAddr: 0x1E4F0, symSize: 0x80 }
  - { offset: 0x5B69B, size: 0x8, addend: 0x0, symName: __RNvMNtCsdGrGZaRBwMb_3syn10punctuatedINtB2_10PunctuatedNtNtB4_4attr4MetaNtNtB4_5token5CommaE3newCsituP22XUc15_12tokio_macros, symObjAddr: 0x1560, symBinAddr: 0x1E570, symSize: 0x50 }
  - { offset: 0x5B6C1, size: 0x8, addend: 0x0, symName: __RNvMNtCslJiobkLta79_5alloc3vecINtB2_3VecNtCsaKzlTDPUHDb_11proc_macro211TokenStreamE3newCsituP22XUc15_12tokio_macros, symObjAddr: 0x15B0, symBinAddr: 0x1E5C0, symSize: 0x30 }
  - { offset: 0x5B740, size: 0x8, addend: 0x0, symName: __RNvMNtCslJiobkLta79_5alloc3vecINtB2_3VecNtNtCsdGrGZaRBwMb_3syn4attr4MetaE13with_capacityCsituP22XUc15_12tokio_macros, symObjAddr: 0x15E0, symBinAddr: 0x1E5F0, symSize: 0x60 }
  - { offset: 0x5B7B8, size: 0x8, addend: 0x0, symName: __RNvMNtCslJiobkLta79_5alloc3vecINtB2_3VecTNtNtCsdGrGZaRBwMb_3syn4attr4MetaNtNtBH_5token5CommaEE3newCsituP22XUc15_12tokio_macros, symObjAddr: 0x1640, symBinAddr: 0x1E650, symSize: 0x30 }
  - { offset: 0x5B7E2, size: 0x8, addend: 0x0, symName: __RNvMs_NtCslJiobkLta79_5alloc3vecINtB4_3VecNtCsaKzlTDPUHDb_11proc_macro211TokenStreamE4pushCsituP22XUc15_12tokio_macros, symObjAddr: 0x1670, symBinAddr: 0x1E680, symSize: 0x20 }
  - { offset: 0x5B8E5, size: 0x8, addend: 0x0, symName: __RNvMs_NtCslJiobkLta79_5alloc3vecINtB4_3VecNtCsaKzlTDPUHDb_11proc_macro211TokenStreamE8as_sliceCsituP22XUc15_12tokio_macros, symObjAddr: 0x1690, symBinAddr: 0x1E6A0, symSize: 0x50 }
  - { offset: 0x5BA8B, size: 0x8, addend: 0x0, symName: __RNvMs_NtCslJiobkLta79_5alloc3vecINtB4_3VecNtCsaKzlTDPUHDb_11proc_macro211TokenStreamE8push_mutCsituP22XUc15_12tokio_macros, symObjAddr: 0x16E0, symBinAddr: 0x1E6F0, symSize: 0x120 }
  - { offset: 0x5BD70, size: 0x8, addend: 0x0, symName: __RNvMs_NtCslJiobkLta79_5alloc3vecINtB4_3VecNtCsaKzlTDPUHDb_11proc_macro25IdentE7reserveCsituP22XUc15_12tokio_macros, symObjAddr: 0x1800, symBinAddr: 0x1E810, symSize: 0xB0 }
  - { offset: 0x5BF81, size: 0x8, addend: 0x0, symName: __RNvMs_NtCslJiobkLta79_5alloc3vecINtB4_3VecNtCsaKzlTDPUHDb_11proc_macro25IdentE8as_sliceCsituP22XUc15_12tokio_macros, symObjAddr: 0x18B0, symBinAddr: 0x1E8C0, symSize: 0x50 }
  - { offset: 0x5C048, size: 0x8, addend: 0x0, symName: __RNvMs_NtCslJiobkLta79_5alloc3vecINtB4_3VecNtNtCsdGrGZaRBwMb_3syn4attr4MetaE4pushCsituP22XUc15_12tokio_macros, symObjAddr: 0x1900, symBinAddr: 0x1E910, symSize: 0x20 }
  - { offset: 0x5C1A0, size: 0x8, addend: 0x0, symName: __RNvMs_NtCslJiobkLta79_5alloc3vecINtB4_3VecNtNtCsdGrGZaRBwMb_3syn4attr4MetaE8push_mutCsituP22XUc15_12tokio_macros, symObjAddr: 0x1920, symBinAddr: 0x1E930, symSize: 0x140 }
  - { offset: 0x5C416, size: 0x8, addend: 0x0, symName: __RNvMs_NtCslJiobkLta79_5alloc3vecINtB4_3VecTNtNtCsdGrGZaRBwMb_3syn3pat3PatNtNtBJ_5token2OrEE12as_mut_sliceCsituP22XUc15_12tokio_macros, symObjAddr: 0x1A60, symBinAddr: 0x1EA70, symSize: 0x50 }
  - { offset: 0x5C5A6, size: 0x8, addend: 0x0, symName: __RNvMs_NtCslJiobkLta79_5alloc3vecINtB4_3VecTNtNtCsdGrGZaRBwMb_3syn3pat3PatNtNtBJ_5token5CommaEE12as_mut_sliceCsituP22XUc15_12tokio_macros, symObjAddr: 0x1AB0, symBinAddr: 0x1EAC0, symSize: 0x50 }
  - { offset: 0x5C736, size: 0x8, addend: 0x0, symName: __RNvMs_NtCslJiobkLta79_5alloc3vecINtB4_3VecTNtNtCsdGrGZaRBwMb_3syn3pat8FieldPatNtNtBJ_5token5CommaEE12as_mut_sliceCsituP22XUc15_12tokio_macros, symObjAddr: 0x1B00, symBinAddr: 0x1EB10, symSize: 0x50 }
  - { offset: 0x5C812, size: 0x8, addend: 0x0, symName: __RNvMs_NtCslJiobkLta79_5alloc3vecINtB4_3VecTNtNtCsdGrGZaRBwMb_3syn4attr4MetaNtNtBJ_5token5CommaEE3lenCsituP22XUc15_12tokio_macros, symObjAddr: 0x1B50, symBinAddr: 0x1EB60, symSize: 0x10 }
  - { offset: 0x5C854, size: 0x8, addend: 0x0, symName: __RNvMs_NtCslJiobkLta79_5alloc3vecINtB4_3VecTNtNtCsdGrGZaRBwMb_3syn4attr4MetaNtNtBJ_5token5CommaEE4pushCsituP22XUc15_12tokio_macros, symObjAddr: 0x1B60, symBinAddr: 0x1EB70, symSize: 0x20 }
  - { offset: 0x5C9AC, size: 0x8, addend: 0x0, symName: __RNvMs_NtCslJiobkLta79_5alloc3vecINtB4_3VecTNtNtCsdGrGZaRBwMb_3syn4attr4MetaNtNtBJ_5token5CommaEE8push_mutCsituP22XUc15_12tokio_macros, symObjAddr: 0x1B80, symBinAddr: 0x1EB90, symSize: 0x140 }
  - { offset: 0x5CB87, size: 0x8, addend: 0x0, symName: __RNvXs4_NtNtCs9OU1sGv5X54_5quote9___private3extINtNtCslJiobkLta79_5alloc3vec3VecNtCsaKzlTDPUHDb_11proc_macro211TokenStreamENtB5_16RepAsIteratorExt15quote_into_iterCsituP22XUc15_12tokio_macros, symObjAddr: 0x1DB0, symBinAddr: 0x1EDC0, symSize: 0x30 }
  - { offset: 0x5CBBC, size: 0x8, addend: 0x0, symName: __RNvXs4_NtNtCs9OU1sGv5X54_5quote9___private3extINtNtCslJiobkLta79_5alloc3vec3VecNtCsaKzlTDPUHDb_11proc_macro25IdentENtB5_16RepAsIteratorExt15quote_into_iterCsituP22XUc15_12tokio_macros, symObjAddr: 0x1DE0, symBinAddr: 0x1EDF0, symSize: 0x30 }
  - { offset: 0x5D765, size: 0x8, addend: 0x0, symName: __RINvNtNtCscKtU6MdFI5n_10proc_macro6bridge6client10run_clientNtB2_11TokenStreamINtNtCsieiGu2EXtoJ_4core6option6OptionBW_ENCNCINvMs6_B2_INtB2_6ClientNtB6_11TokenStreamB2l_E7expand1NvCsituP22XUc15_12tokio_macros25select_priv_clean_patternE00EB2S_, symObjAddr: 0x0, symBinAddr: 0x20B30, symSize: 0x2E0 }
  - { offset: 0x5EB8B, size: 0x8, addend: 0x0, symName: __RNCINvNtNtCscKtU6MdFI5n_10proc_macro6bridge6client10run_clientNtB4_11TokenStreamINtNtCsieiGu2EXtoJ_4core6option6OptionBY_ENCNCINvMs6_B4_INtB4_6ClientNtB8_11TokenStreamB2n_E7expand1NvCsituP22XUc15_12tokio_macros25select_priv_clean_patternE00E0B2U_, symObjAddr: 0x1880, symBinAddr: 0x223B0, symSize: 0x420 }
  - { offset: 0x5EDAC, size: 0x8, addend: 0x0, symName: __RNCINvNtNtCscKtU6MdFI5n_10proc_macro6bridge6client10run_clientNtB4_11TokenStreamINtNtCsieiGu2EXtoJ_4core6option6OptionBY_ENCNCINvMs6_B4_INtB4_6ClientNtB8_11TokenStreamB2n_E7expand1NvCsituP22XUc15_12tokio_macros31select_priv_declare_output_enumE00E0B2U_, symObjAddr: 0x1CA0, symBinAddr: 0x227D0, symSize: 0x420 }
  - { offset: 0x5EFCD, size: 0x8, addend: 0x0, symName: __RNCINvNtNtCscKtU6MdFI5n_10proc_macro6bridge6client10run_clientTNtB4_11TokenStreamBZ_EINtNtCsieiGu2EXtoJ_4core6option6OptionBZ_ENCNCINvMs7_B4_INtB4_6ClientTNtB8_11TokenStreamB2t_EB2t_E7expand2NvCsituP22XUc15_12tokio_macros4mainE00E0B35_, symObjAddr: 0x20C0, symBinAddr: 0x22BF0, symSize: 0x450 }
  - { offset: 0x5F1EE, size: 0x8, addend: 0x0, symName: __RNCINvNtNtCscKtU6MdFI5n_10proc_macro6bridge6client10run_clientTNtB4_11TokenStreamBZ_EINtNtCsieiGu2EXtoJ_4core6option6OptionBZ_ENCNCINvMs7_B4_INtB4_6ClientTNtB8_11TokenStreamB2t_EB2t_E7expand2NvCsituP22XUc15_12tokio_macros4testE00E0B35_, symObjAddr: 0x2510, symBinAddr: 0x23040, symSize: 0x450 }
  - { offset: 0x5F40F, size: 0x8, addend: 0x0, symName: __RNCINvNtNtCscKtU6MdFI5n_10proc_macro6bridge6client10run_clientTNtB4_11TokenStreamBZ_EINtNtCsieiGu2EXtoJ_4core6option6OptionBZ_ENCNCINvMs7_B4_INtB4_6ClientTNtB8_11TokenStreamB2t_EB2t_E7expand2NvCsituP22XUc15_12tokio_macros7main_rtE00E0B35_, symObjAddr: 0x2960, symBinAddr: 0x23490, symSize: 0x450 }
  - { offset: 0x5F630, size: 0x8, addend: 0x0, symName: __RNCINvNtNtCscKtU6MdFI5n_10proc_macro6bridge6client10run_clientTNtB4_11TokenStreamBZ_EINtNtCsieiGu2EXtoJ_4core6option6OptionBZ_ENCNCINvMs7_B4_INtB4_6ClientTNtB8_11TokenStreamB2t_EB2t_E7expand2NvCsituP22XUc15_12tokio_macros7test_rtE00E0B35_, symObjAddr: 0x2DB0, symBinAddr: 0x238E0, symSize: 0x450 }
  - { offset: 0x5F851, size: 0x8, addend: 0x0, symName: __RNCINvNtNtCscKtU6MdFI5n_10proc_macro6bridge6client10run_clientTNtB4_11TokenStreamBZ_EINtNtCsieiGu2EXtoJ_4core6option6OptionBZ_ENCNCINvMs7_B4_INtB4_6ClientTNtB8_11TokenStreamB2t_EB2t_E7expand2NvCsituP22XUc15_12tokio_macros9main_failE00E0B35_, symObjAddr: 0x3200, symBinAddr: 0x23D30, symSize: 0x450 }
  - { offset: 0x5FA72, size: 0x8, addend: 0x0, symName: __RNCINvNtNtCscKtU6MdFI5n_10proc_macro6bridge6client10run_clientTNtB4_11TokenStreamBZ_EINtNtCsieiGu2EXtoJ_4core6option6OptionBZ_ENCNCINvMs7_B4_INtB4_6ClientTNtB8_11TokenStreamB2t_EB2t_E7expand2NvCsituP22XUc15_12tokio_macros9test_failE00E0B35_, symObjAddr: 0x3650, symBinAddr: 0x24180, symSize: 0x450 }
  - { offset: 0x5FC98, size: 0x8, addend: 0x0, symName: __RNCNCINvNtNtCscKtU6MdFI5n_10proc_macro6bridge6client10run_clientNtB6_11TokenStreamINtNtCsieiGu2EXtoJ_4core6option6OptionB10_ENCNCINvMs6_B6_INtB6_6ClientNtBa_11TokenStreamB2q_E7expand1NvCsituP22XUc15_12tokio_macros25select_priv_clean_patternE00E00B2X_, symObjAddr: 0x3C00, symBinAddr: 0x24730, symSize: 0x20 }
  - { offset: 0x5FCF4, size: 0x8, addend: 0x0, symName: __RNCNCINvNtNtCscKtU6MdFI5n_10proc_macro6bridge6client10run_clientNtB6_11TokenStreamINtNtCsieiGu2EXtoJ_4core6option6OptionB10_ENCNCINvMs6_B6_INtB6_6ClientNtBa_11TokenStreamB2q_E7expand1NvCsituP22XUc15_12tokio_macros31select_priv_declare_output_enumE00E00B2X_, symObjAddr: 0x3C20, symBinAddr: 0x24750, symSize: 0x20 }
  - { offset: 0x5FD50, size: 0x8, addend: 0x0, symName: __RNCNCINvNtNtCscKtU6MdFI5n_10proc_macro6bridge6client10run_clientTNtB6_11TokenStreamB11_EINtNtCsieiGu2EXtoJ_4core6option6OptionB11_ENCNCINvMs7_B6_INtB6_6ClientTNtBa_11TokenStreamB2x_EB2x_E7expand2NvCsituP22XUc15_12tokio_macros4mainE00E00B39_, symObjAddr: 0x3C40, symBinAddr: 0x24770, symSize: 0x20 }
  - { offset: 0x5FDAC, size: 0x8, addend: 0x0, symName: __RNCNCINvNtNtCscKtU6MdFI5n_10proc_macro6bridge6client10run_clientTNtB6_11TokenStreamB11_EINtNtCsieiGu2EXtoJ_4core6option6OptionB11_ENCNCINvMs7_B6_INtB6_6ClientTNtBa_11TokenStreamB2x_EB2x_E7expand2NvCsituP22XUc15_12tokio_macros4testE00E00B39_, symObjAddr: 0x3C60, symBinAddr: 0x24790, symSize: 0x20 }
  - { offset: 0x5FE08, size: 0x8, addend: 0x0, symName: __RNCNCINvNtNtCscKtU6MdFI5n_10proc_macro6bridge6client10run_clientTNtB6_11TokenStreamB11_EINtNtCsieiGu2EXtoJ_4core6option6OptionB11_ENCNCINvMs7_B6_INtB6_6ClientTNtBa_11TokenStreamB2x_EB2x_E7expand2NvCsituP22XUc15_12tokio_macros7main_rtE00E00B39_, symObjAddr: 0x3C80, symBinAddr: 0x247B0, symSize: 0x20 }
  - { offset: 0x5FE64, size: 0x8, addend: 0x0, symName: __RNCNCINvNtNtCscKtU6MdFI5n_10proc_macro6bridge6client10run_clientTNtB6_11TokenStreamB11_EINtNtCsieiGu2EXtoJ_4core6option6OptionB11_ENCNCINvMs7_B6_INtB6_6ClientTNtBa_11TokenStreamB2x_EB2x_E7expand2NvCsituP22XUc15_12tokio_macros7test_rtE00E00B39_, symObjAddr: 0x3CA0, symBinAddr: 0x247D0, symSize: 0x20 }
  - { offset: 0x5FEC0, size: 0x8, addend: 0x0, symName: __RNCNCINvNtNtCscKtU6MdFI5n_10proc_macro6bridge6client10run_clientTNtB6_11TokenStreamB11_EINtNtCsieiGu2EXtoJ_4core6option6OptionB11_ENCNCINvMs7_B6_INtB6_6ClientTNtBa_11TokenStreamB2x_EB2x_E7expand2NvCsituP22XUc15_12tokio_macros9main_failE00E00B39_, symObjAddr: 0x3CC0, symBinAddr: 0x247F0, symSize: 0x20 }
  - { offset: 0x5FF1C, size: 0x8, addend: 0x0, symName: __RNCNCINvNtNtCscKtU6MdFI5n_10proc_macro6bridge6client10run_clientTNtB6_11TokenStreamB11_EINtNtCsieiGu2EXtoJ_4core6option6OptionB11_ENCNCINvMs7_B6_INtB6_6ClientTNtBa_11TokenStreamB2x_EB2x_E7expand2NvCsituP22XUc15_12tokio_macros9test_failE00E00B39_, symObjAddr: 0x3CE0, symBinAddr: 0x24810, symSize: 0x20 }
  - { offset: 0x5FFAF, size: 0x8, addend: 0x0, symName: __RNCNCINvMs6_NtNtCscKtU6MdFI5n_10proc_macro6bridge6clientINtBa_6ClientNtBe_11TokenStreamB15_E7expand1NvCsituP22XUc15_12tokio_macros25select_priv_clean_patternE00B1C_, symObjAddr: 0x3AA0, symBinAddr: 0x245D0, symSize: 0x20 }
  - { offset: 0x5FFF7, size: 0x8, addend: 0x0, symName: __RNCNCINvMs6_NtNtCscKtU6MdFI5n_10proc_macro6bridge6clientINtBa_6ClientNtBe_11TokenStreamB15_E7expand1NvCsituP22XUc15_12tokio_macros31select_priv_declare_output_enumE00B1C_, symObjAddr: 0x3AC0, symBinAddr: 0x245F0, symSize: 0x20 }
  - { offset: 0x60040, size: 0x8, addend: 0x0, symName: __RNCINvMs6_NtNtCscKtU6MdFI5n_10proc_macro6bridge6clientINtB8_6ClientNtBc_11TokenStreamB13_E7expand1NvCsituP22XUc15_12tokio_macros25select_priv_clean_patternE0B1A_, symObjAddr: 0x1700, symBinAddr: 0x22230, symSize: 0x30 }
  - { offset: 0x60089, size: 0x8, addend: 0x0, symName: __RNCINvMs6_NtNtCscKtU6MdFI5n_10proc_macro6bridge6clientINtB8_6ClientNtBc_11TokenStreamB13_E7expand1NvCsituP22XUc15_12tokio_macros31select_priv_declare_output_enumE0B1A_, symObjAddr: 0x1730, symBinAddr: 0x22260, symSize: 0x30 }
  - { offset: 0x600F5, size: 0x8, addend: 0x0, symName: __RINvNtNtCscKtU6MdFI5n_10proc_macro6bridge6client10run_clientNtB2_11TokenStreamINtNtCsieiGu2EXtoJ_4core6option6OptionBW_ENCNCINvMs6_B2_INtB2_6ClientNtB6_11TokenStreamB2l_E7expand1NvCsituP22XUc15_12tokio_macros25select_priv_clean_patternE00EB2S_, symObjAddr: 0x0, symBinAddr: 0x20B30, symSize: 0x2E0 }
  - { offset: 0x602DF, size: 0x8, addend: 0x0, symName: __RINvNtNtCscKtU6MdFI5n_10proc_macro6bridge6client10run_clientNtB2_11TokenStreamINtNtCsieiGu2EXtoJ_4core6option6OptionBW_ENCNCINvMs6_B2_INtB2_6ClientNtB6_11TokenStreamB2l_E7expand1NvCsituP22XUc15_12tokio_macros31select_priv_declare_output_enumE00EB2S_, symObjAddr: 0x2E0, symBinAddr: 0x20E10, symSize: 0x2E0 }
  - { offset: 0x6054A, size: 0x8, addend: 0x0, symName: __RNCNCINvMs7_NtNtCscKtU6MdFI5n_10proc_macro6bridge6clientINtBa_6ClientTNtBe_11TokenStreamB16_EB16_E7expand2NvCsituP22XUc15_12tokio_macros4mainE00B1I_, symObjAddr: 0x3AE0, symBinAddr: 0x24610, symSize: 0x30 }
  - { offset: 0x605BC, size: 0x8, addend: 0x0, symName: __RNCNCINvMs7_NtNtCscKtU6MdFI5n_10proc_macro6bridge6clientINtBa_6ClientTNtBe_11TokenStreamB16_EB16_E7expand2NvCsituP22XUc15_12tokio_macros4testE00B1I_, symObjAddr: 0x3B10, symBinAddr: 0x24640, symSize: 0x30 }
  - { offset: 0x6062E, size: 0x8, addend: 0x0, symName: __RNCNCINvMs7_NtNtCscKtU6MdFI5n_10proc_macro6bridge6clientINtBa_6ClientTNtBe_11TokenStreamB16_EB16_E7expand2NvCsituP22XUc15_12tokio_macros7main_rtE00B1I_, symObjAddr: 0x3B40, symBinAddr: 0x24670, symSize: 0x30 }
  - { offset: 0x606A0, size: 0x8, addend: 0x0, symName: __RNCNCINvMs7_NtNtCscKtU6MdFI5n_10proc_macro6bridge6clientINtBa_6ClientTNtBe_11TokenStreamB16_EB16_E7expand2NvCsituP22XUc15_12tokio_macros7test_rtE00B1I_, symObjAddr: 0x3B70, symBinAddr: 0x246A0, symSize: 0x30 }
  - { offset: 0x60712, size: 0x8, addend: 0x0, symName: __RNCNCINvMs7_NtNtCscKtU6MdFI5n_10proc_macro6bridge6clientINtBa_6ClientTNtBe_11TokenStreamB16_EB16_E7expand2NvCsituP22XUc15_12tokio_macros9main_failE00B1I_, symObjAddr: 0x3BA0, symBinAddr: 0x246D0, symSize: 0x30 }
  - { offset: 0x60784, size: 0x8, addend: 0x0, symName: __RNCNCINvMs7_NtNtCscKtU6MdFI5n_10proc_macro6bridge6clientINtBa_6ClientTNtBe_11TokenStreamB16_EB16_E7expand2NvCsituP22XUc15_12tokio_macros9test_failE00B1I_, symObjAddr: 0x3BD0, symBinAddr: 0x24700, symSize: 0x30 }
  - { offset: 0x607F7, size: 0x8, addend: 0x0, symName: __RNCINvMs7_NtNtCscKtU6MdFI5n_10proc_macro6bridge6clientINtB8_6ClientTNtBc_11TokenStreamB14_EB14_E7expand2NvCsituP22XUc15_12tokio_macros4mainE0B1G_, symObjAddr: 0x1760, symBinAddr: 0x22290, symSize: 0x30 }
  - { offset: 0x60840, size: 0x8, addend: 0x0, symName: __RNCINvMs7_NtNtCscKtU6MdFI5n_10proc_macro6bridge6clientINtB8_6ClientTNtBc_11TokenStreamB14_EB14_E7expand2NvCsituP22XUc15_12tokio_macros4testE0B1G_, symObjAddr: 0x1790, symBinAddr: 0x222C0, symSize: 0x30 }
  - { offset: 0x60889, size: 0x8, addend: 0x0, symName: __RNCINvMs7_NtNtCscKtU6MdFI5n_10proc_macro6bridge6clientINtB8_6ClientTNtBc_11TokenStreamB14_EB14_E7expand2NvCsituP22XUc15_12tokio_macros7main_rtE0B1G_, symObjAddr: 0x17C0, symBinAddr: 0x222F0, symSize: 0x30 }
  - { offset: 0x608D2, size: 0x8, addend: 0x0, symName: __RNCINvMs7_NtNtCscKtU6MdFI5n_10proc_macro6bridge6clientINtB8_6ClientTNtBc_11TokenStreamB14_EB14_E7expand2NvCsituP22XUc15_12tokio_macros7test_rtE0B1G_, symObjAddr: 0x17F0, symBinAddr: 0x22320, symSize: 0x30 }
  - { offset: 0x6091B, size: 0x8, addend: 0x0, symName: __RNCINvMs7_NtNtCscKtU6MdFI5n_10proc_macro6bridge6clientINtB8_6ClientTNtBc_11TokenStreamB14_EB14_E7expand2NvCsituP22XUc15_12tokio_macros9main_failE0B1G_, symObjAddr: 0x1820, symBinAddr: 0x22350, symSize: 0x30 }
  - { offset: 0x60964, size: 0x8, addend: 0x0, symName: __RNCINvMs7_NtNtCscKtU6MdFI5n_10proc_macro6bridge6clientINtB8_6ClientTNtBc_11TokenStreamB14_EB14_E7expand2NvCsituP22XUc15_12tokio_macros9test_failE0B1G_, symObjAddr: 0x1850, symBinAddr: 0x22380, symSize: 0x30 }
  - { offset: 0x609AF, size: 0x8, addend: 0x0, symName: __RINvNtNtCscKtU6MdFI5n_10proc_macro6bridge6client10run_clientTNtB2_11TokenStreamBX_EINtNtCsieiGu2EXtoJ_4core6option6OptionBX_ENCNCINvMs7_B2_INtB2_6ClientTNtB6_11TokenStreamB2r_EB2r_E7expand2NvCsituP22XUc15_12tokio_macros4mainE00EB33_, symObjAddr: 0x5C0, symBinAddr: 0x210F0, symSize: 0x2E0 }
  - { offset: 0x60B99, size: 0x8, addend: 0x0, symName: __RINvNtNtCscKtU6MdFI5n_10proc_macro6bridge6client10run_clientTNtB2_11TokenStreamBX_EINtNtCsieiGu2EXtoJ_4core6option6OptionBX_ENCNCINvMs7_B2_INtB2_6ClientTNtB6_11TokenStreamB2r_EB2r_E7expand2NvCsituP22XUc15_12tokio_macros4testE00EB33_, symObjAddr: 0x8A0, symBinAddr: 0x213D0, symSize: 0x2E0 }
  - { offset: 0x60D83, size: 0x8, addend: 0x0, symName: __RINvNtNtCscKtU6MdFI5n_10proc_macro6bridge6client10run_clientTNtB2_11TokenStreamBX_EINtNtCsieiGu2EXtoJ_4core6option6OptionBX_ENCNCINvMs7_B2_INtB2_6ClientTNtB6_11TokenStreamB2r_EB2r_E7expand2NvCsituP22XUc15_12tokio_macros7main_rtE00EB33_, symObjAddr: 0xB80, symBinAddr: 0x216B0, symSize: 0x2E0 }
  - { offset: 0x60F6D, size: 0x8, addend: 0x0, symName: __RINvNtNtCscKtU6MdFI5n_10proc_macro6bridge6client10run_clientTNtB2_11TokenStreamBX_EINtNtCsieiGu2EXtoJ_4core6option6OptionBX_ENCNCINvMs7_B2_INtB2_6ClientTNtB6_11TokenStreamB2r_EB2r_E7expand2NvCsituP22XUc15_12tokio_macros7test_rtE00EB33_, symObjAddr: 0xE60, symBinAddr: 0x21990, symSize: 0x2E0 }
  - { offset: 0x61157, size: 0x8, addend: 0x0, symName: __RINvNtNtCscKtU6MdFI5n_10proc_macro6bridge6client10run_clientTNtB2_11TokenStreamBX_EINtNtCsieiGu2EXtoJ_4core6option6OptionBX_ENCNCINvMs7_B2_INtB2_6ClientTNtB6_11TokenStreamB2r_EB2r_E7expand2NvCsituP22XUc15_12tokio_macros9main_failE00EB33_, symObjAddr: 0x1140, symBinAddr: 0x21C70, symSize: 0x2E0 }
  - { offset: 0x61341, size: 0x8, addend: 0x0, symName: __RINvNtNtCscKtU6MdFI5n_10proc_macro6bridge6client10run_clientTNtB2_11TokenStreamBX_EINtNtCsieiGu2EXtoJ_4core6option6OptionBX_ENCNCINvMs7_B2_INtB2_6ClientTNtB6_11TokenStreamB2r_EB2r_E7expand2NvCsituP22XUc15_12tokio_macros9test_failE00EB33_, symObjAddr: 0x1420, symBinAddr: 0x21F50, symSize: 0x2E0 }
  - { offset: 0x6157E, size: 0x8, addend: 0x0, symName: __RNvXsf_NtNtCscKtU6MdFI5n_10proc_macro6bridge6clientNtB5_11TokenStreamINtNtB7_3rpc6EncodeuE6encodeCsituP22XUc15_12tokio_macros, symObjAddr: 0x3D70, symBinAddr: 0x248A0, symSize: 0x40 }
  - { offset: 0x6168F, size: 0x8, addend: 0x0, symName: __RNvXsi_NtNtCscKtU6MdFI5n_10proc_macro6bridge6clientNtB5_11TokenStreamINtNtB7_3rpc9DecodeMutuE6decodeCsituP22XUc15_12tokio_macros, symObjAddr: 0x3DB0, symBinAddr: 0x248E0, symSize: 0x20 }
  - { offset: 0x616D8, size: 0x8, addend: 0x0, symName: __RNvXsk_NtNtCscKtU6MdFI5n_10proc_macro6bridge6clientNtB5_4SpanINtNtB7_3rpc9DecodeMutuE6decodeCsituP22XUc15_12tokio_macros, symObjAddr: 0x3DD0, symBinAddr: 0x24900, symSize: 0x20 }
  - { offset: 0x61A56, size: 0x8, addend: 0x0, symName: __RNvXs9_NtNtCscKtU6MdFI5n_10proc_macro6bridge3rpcTNtNtB7_6client11TokenStreamBL_EINtB5_9DecodeMutuE6decodeCsituP22XUc15_12tokio_macros, symObjAddr: 0x3D00, symBinAddr: 0x24830, symSize: 0x70 }
  - { offset: 0x62EDD, size: 0x8, addend: 0x0, symName: __RINvXNvMNtCslJiobkLta79_5alloc5sliceSp9to_vec_inNtNtCsdGrGZaRBwMb_3syn4item11ForeignItemNtB3_10ConvertVec6to_vecNtNtB8_5alloc6GlobalEBO_, symObjAddr: 0x0, symBinAddr: 0x249D0, symSize: 0x490 }
  - { offset: 0x646D1, size: 0x8, addend: 0x0, symName: __RINvXNvMNtCslJiobkLta79_5alloc5sliceSp9to_vec_inNtNtCsdGrGZaRBwMb_3syn4item11ForeignItemNtB3_10ConvertVec6to_vecNtNtB8_5alloc6GlobalEBO_, symObjAddr: 0x0, symBinAddr: 0x249D0, symSize: 0x490 }
  - { offset: 0x64C25, size: 0x8, addend: 0x0, symName: __RINvXNvMNtCslJiobkLta79_5alloc5sliceSp9to_vec_inNtNtCsdGrGZaRBwMb_3syn4item4ItemNtB3_10ConvertVec6to_vecNtNtB8_5alloc6GlobalEBO_, symObjAddr: 0x490, symBinAddr: 0x24E60, symSize: 0x490 }
  - { offset: 0x65179, size: 0x8, addend: 0x0, symName: __RINvXNvMNtCslJiobkLta79_5alloc5sliceSp9to_vec_inNtNtCsdGrGZaRBwMb_3syn4item8ImplItemNtB3_10ConvertVec6to_vecNtNtB8_5alloc6GlobalEBO_, symObjAddr: 0x920, symBinAddr: 0x252F0, symSize: 0x490 }
  - { offset: 0x656CD, size: 0x8, addend: 0x0, symName: __RINvXNvMNtCslJiobkLta79_5alloc5sliceSp9to_vec_inNtNtCsdGrGZaRBwMb_3syn4item9TraitItemNtB3_10ConvertVec6to_vecNtNtB8_5alloc6GlobalEBO_, symObjAddr: 0xDB0, symBinAddr: 0x25780, symSize: 0x490 }
  - { offset: 0x65C21, size: 0x8, addend: 0x0, symName: __RINvXNvMNtCslJiobkLta79_5alloc5sliceSp9to_vec_inTNtNtCsdGrGZaRBwMb_3syn4item5FnArgNtNtBP_5token5CommaENtB3_10ConvertVec6to_vecNtNtB8_5alloc6GlobalEBP_, symObjAddr: 0x1240, symBinAddr: 0x25C10, symSize: 0x490 }
  - { offset: 0x66175, size: 0x8, addend: 0x0, symName: __RINvXNvMNtCslJiobkLta79_5alloc5sliceSp9to_vec_inTNtNtCsdGrGZaRBwMb_3syn4item7UseTreeNtNtBP_5token5CommaENtB3_10ConvertVec6to_vecNtNtB8_5alloc6GlobalEBP_, symObjAddr: 0x16D0, symBinAddr: 0x260A0, symSize: 0x490 }
  - { offset: 0x6ACA5, size: 0x8, addend: 0x0, symName: __RNcNtNtNtCsdGrGZaRBwMb_3syn4item11ForeignItem5Macro0B7_, symObjAddr: 0x1B60, symBinAddr: 0x26530, symSize: 0x40 }
  - { offset: 0x6ACDC, size: 0x8, addend: 0x0, symName: __RNcNtNtNtCsdGrGZaRBwMb_3syn4item16StaticMutability3Mut0B7_, symObjAddr: 0x1BA0, symBinAddr: 0x26570, symSize: 0x10 }
  - { offset: 0x6AD12, size: 0x8, addend: 0x0, symName: __RNcNtNtNtCsdGrGZaRBwMb_3syn4item4Item10ForeignMod0B7_, symObjAddr: 0x1BB0, symBinAddr: 0x26580, symSize: 0x40 }
  - { offset: 0x6AD41, size: 0x8, addend: 0x0, symName: __RNcNtNtNtCsdGrGZaRBwMb_3syn4item4Item10TraitAlias0B7_, symObjAddr: 0x1BF0, symBinAddr: 0x265C0, symSize: 0x40 }
  - { offset: 0x6AD70, size: 0x8, addend: 0x0, symName: __RNcNtNtNtCsdGrGZaRBwMb_3syn4item4Item11ExternCrate0B7_, symObjAddr: 0x1C30, symBinAddr: 0x26600, symSize: 0x40 }
  - { offset: 0x6AD9F, size: 0x8, addend: 0x0, symName: __RNcNtNtNtCsdGrGZaRBwMb_3syn4item4Item2Fn0B7_, symObjAddr: 0x1C70, symBinAddr: 0x26640, symSize: 0x30 }
  - { offset: 0x6ADCE, size: 0x8, addend: 0x0, symName: __RNcNtNtNtCsdGrGZaRBwMb_3syn4item4Item3Mod0B7_, symObjAddr: 0x1CA0, symBinAddr: 0x26670, symSize: 0x40 }
  - { offset: 0x6ADFD, size: 0x8, addend: 0x0, symName: __RNcNtNtNtCsdGrGZaRBwMb_3syn4item4Item4Enum0B7_, symObjAddr: 0x1CE0, symBinAddr: 0x266B0, symSize: 0x40 }
  - { offset: 0x6AE2C, size: 0x8, addend: 0x0, symName: __RNcNtNtNtCsdGrGZaRBwMb_3syn4item4Item5Macro0B7_, symObjAddr: 0x1D20, symBinAddr: 0x266F0, symSize: 0x40 }
  - { offset: 0x6AE5B, size: 0x8, addend: 0x0, symName: __RNcNtNtNtCsdGrGZaRBwMb_3syn4item4Item5Trait0B7_, symObjAddr: 0x1D60, symBinAddr: 0x26730, symSize: 0x40 }
  - { offset: 0x6AE8A, size: 0x8, addend: 0x0, symName: __RNcNtNtNtCsdGrGZaRBwMb_3syn4item4Item5Union0B7_, symObjAddr: 0x1DA0, symBinAddr: 0x26770, symSize: 0x40 }
  - { offset: 0x6AEB9, size: 0x8, addend: 0x0, symName: __RNcNtNtNtCsdGrGZaRBwMb_3syn4item4Item6Struct0B7_, symObjAddr: 0x1DE0, symBinAddr: 0x267B0, symSize: 0x40 }
  - { offset: 0x6AEEE, size: 0x8, addend: 0x0, symName: __RNcNtNtNtCsdGrGZaRBwMb_3syn4item8ImplItem5Macro0B7_, symObjAddr: 0x1E20, symBinAddr: 0x267F0, symSize: 0x40 }
  - { offset: 0x6AF25, size: 0x8, addend: 0x0, symName: __RNcNtNtNtCsdGrGZaRBwMb_3syn4item9TraitItem2Fn0B7_, symObjAddr: 0x1E60, symBinAddr: 0x26830, symSize: 0x40 }
  - { offset: 0x6AF56, size: 0x8, addend: 0x0, symName: __RNcNtNtNtCsdGrGZaRBwMb_3syn4item9TraitItem5Macro0B7_, symObjAddr: 0x1EA0, symBinAddr: 0x26870, symSize: 0x40 }
  - { offset: 0x6AF8D, size: 0x8, addend: 0x0, symName: __RNvXNtNtCsdGrGZaRBwMb_3syn4item7parsingNtB4_4ItemNtNtB6_5parse5Parse5parse, symObjAddr: 0x45C0, symBinAddr: 0x26CB0, symSize: 0x220 }
  - { offset: 0x6B035, size: 0x8, addend: 0x0, symName: __RNvXs0_NtNtCsdGrGZaRBwMb_3syn4item7parsingNtB7_9ItemMacroNtNtB9_5parse5Parse5parse, symObjAddr: 0x4970, symBinAddr: 0x27060, symSize: 0x900 }
  - { offset: 0x6B203, size: 0x8, addend: 0x0, symName: __RNvXs1_NtNtCsdGrGZaRBwMb_3syn4item7parsingNtB7_15ItemExternCrateNtNtB9_5parse5Parse5parse, symObjAddr: 0x61D0, symBinAddr: 0x283E0, symSize: 0xC80 }
  - { offset: 0x6B40D, size: 0x8, addend: 0x0, symName: __RNvXs3_NtNtCsdGrGZaRBwMb_3syn4item7parsingNtB7_7UseTreeNtNtB9_5parse5Parse5parse, symObjAddr: 0xF1E0, symBinAddr: 0x2DC50, symSize: 0x50 }
  - { offset: 0x6B45F, size: 0x8, addend: 0x0, symName: __RNvXs6_NtNtCsdGrGZaRBwMb_3syn4item7parsingNtB7_9SignatureNtNtB9_5parse5Parse5parse, symObjAddr: 0x127D0, symBinAddr: 0x2DF10, symSize: 0x60 }
  - { offset: 0x6B4B1, size: 0x8, addend: 0x0, symName: __RNvXsa_NtNtCsdGrGZaRBwMb_3syn4item7parsingNtB7_7ItemModNtNtB9_5parse5Parse5parse, symObjAddr: 0x14920, symBinAddr: 0x2E670, symSize: 0x10F0 }
  - { offset: 0x6B714, size: 0x8, addend: 0x0, symName: __RNvXsb_NtNtCsdGrGZaRBwMb_3syn4item7parsingNtB7_14ItemForeignModNtNtB9_5parse5Parse5parse, symObjAddr: 0x15B30, symBinAddr: 0x2F840, symSize: 0x7D0 }
  - { offset: 0x6B8C6, size: 0x8, addend: 0x0, symName: __RNvXsc_NtNtCsdGrGZaRBwMb_3syn4item7parsingNtB7_11ForeignItemNtNtB9_5parse5Parse5parse, symObjAddr: 0x164A0, symBinAddr: 0x30170, symSize: 0x22C0 }
  - { offset: 0x6BF40, size: 0x8, addend: 0x0, symName: __RNvXsg_NtNtCsdGrGZaRBwMb_3syn4item7parsingNtB7_16ForeignItemMacroNtNtB9_5parse5Parse5parse, symObjAddr: 0x1A410, symBinAddr: 0x32630, symSize: 0x410 }
  - { offset: 0x6C054, size: 0x8, addend: 0x0, symName: __RNvXsi_NtNtCsdGrGZaRBwMb_3syn4item7parsingNtB7_10ItemStructNtNtB9_5parse5Parse5parse, symObjAddr: 0x1B5E0, symBinAddr: 0x32AA0, symSize: 0x960 }
  - { offset: 0x6C251, size: 0x8, addend: 0x0, symName: __RNvXsj_NtNtCsdGrGZaRBwMb_3syn4item7parsingNtB7_8ItemEnumNtNtB9_5parse5Parse5parse, symObjAddr: 0x1C090, symBinAddr: 0x33510, symSize: 0x940 }
  - { offset: 0x6C44E, size: 0x8, addend: 0x0, symName: __RNvXsk_NtNtCsdGrGZaRBwMb_3syn4item7parsingNtB7_9ItemUnionNtNtB9_5parse5Parse5parse, symObjAddr: 0x1CD40, symBinAddr: 0x341C0, symSize: 0x940 }
  - { offset: 0x6C63A, size: 0x8, addend: 0x0, symName: __RNvXsl_NtNtCsdGrGZaRBwMb_3syn4item7parsingNtB7_9ItemTraitNtNtB9_5parse5Parse5parse, symObjAddr: 0x1D820, symBinAddr: 0x34C60, symSize: 0x860 }
  - { offset: 0x6C841, size: 0x8, addend: 0x0, symName: __RNvXsn_NtNtCsdGrGZaRBwMb_3syn4item7parsingNtB7_9TraitItemNtNtB9_5parse5Parse5parse, symObjAddr: 0x1E5A0, symBinAddr: 0x35630, symSize: 0x19C0 }
  - { offset: 0x6CCC1, size: 0x8, addend: 0x0, symName: __RNvXsp_NtNtCsdGrGZaRBwMb_3syn4item7parsingNtB7_11TraitItemFnNtNtB9_5parse5Parse5parse, symObjAddr: 0x20C80, symBinAddr: 0x37190, symSize: 0xAF0 }
  - { offset: 0x6CECD, size: 0x8, addend: 0x0, symName: __RNvXsr_NtNtCsdGrGZaRBwMb_3syn4item7parsingNtB7_14TraitItemMacroNtNtB9_5parse5Parse5parse, symObjAddr: 0x225F0, symBinAddr: 0x37E40, symSize: 0x410 }
  - { offset: 0x6CFE1, size: 0x8, addend: 0x0, symName: __RNvXst_NtNtCsdGrGZaRBwMb_3syn4item7parsingNtB7_8ImplItemNtNtB9_5parse5Parse5parse, symObjAddr: 0x22C60, symBinAddr: 0x383D0, symSize: 0x1CB0 }
  - { offset: 0x6D4E8, size: 0x8, addend: 0x0, symName: __RNvXsx_NtNtCsdGrGZaRBwMb_3syn4item7parsingNtB7_13ImplItemMacroNtNtB9_5parse5Parse5parse, symObjAddr: 0x26A90, symBinAddr: 0x3A7D0, symSize: 0x410 }
  - { offset: 0x6D5FC, size: 0x8, addend: 0x0, symName: __RNvXsz_NtNtCsdGrGZaRBwMb_3syn4item7parsingNtB7_16StaticMutabilityNtNtB9_5parse5Parse5parse, symObjAddr: 0x26F70, symBinAddr: 0x3AC30, symSize: 0xD0 }
  - { offset: 0x6D672, size: 0x8, addend: 0x0, symName: __RNvXNtNtCsdGrGZaRBwMb_3syn4item8printingNtB4_15ItemExternCrateNtNtCs9OU1sGv5X54_5quote9to_tokens8ToTokens9to_tokens, symObjAddr: 0x47E0, symBinAddr: 0x26ED0, symSize: 0x100 }
  - { offset: 0x6D6DF, size: 0x8, addend: 0x0, symName: __RNvXs0_NtNtCsdGrGZaRBwMb_3syn4item8printingNtB7_10ItemStaticNtNtCs9OU1sGv5X54_5quote9to_tokens8ToTokens9to_tokens, symObjAddr: 0x5270, symBinAddr: 0x27960, symSize: 0xE0 }
  - { offset: 0x6D71E, size: 0x8, addend: 0x0, symName: __RNvXs1_NtNtCsdGrGZaRBwMb_3syn4item8printingNtB7_9ItemConstNtNtCs9OU1sGv5X54_5quote9to_tokens8ToTokens9to_tokens, symObjAddr: 0x6E50, symBinAddr: 0x29060, symSize: 0xF0 }
  - { offset: 0x6D75D, size: 0x8, addend: 0x0, symName: __RNvXs2_NtNtCsdGrGZaRBwMb_3syn4item8printingNtB7_6ItemFnNtNtCs9OU1sGv5X54_5quote9to_tokens8ToTokens9to_tokens, symObjAddr: 0xC060, symBinAddr: 0x2CC40, symSize: 0xD0 }
  - { offset: 0x6D79C, size: 0x8, addend: 0x0, symName: __RNvXs3_NtNtCsdGrGZaRBwMb_3syn4item8printingNtB7_7ItemModNtNtCs9OU1sGv5X54_5quote9to_tokens8ToTokens9to_tokens, symObjAddr: 0xF230, symBinAddr: 0x2DCA0, symSize: 0x110 }
  - { offset: 0x6D809, size: 0x8, addend: 0x0, symName: __RNvXs4_NtNtCsdGrGZaRBwMb_3syn4item8printingNtB7_14ItemForeignModNtNtCs9OU1sGv5X54_5quote9to_tokens8ToTokens9to_tokens, symObjAddr: 0x10B10, symBinAddr: 0x2DDB0, symSize: 0x80 }
  - { offset: 0x6D848, size: 0x8, addend: 0x0, symName: __RNvXs5_NtNtCsdGrGZaRBwMb_3syn4item8printingNtB7_8ItemTypeNtNtCs9OU1sGv5X54_5quote9to_tokens8ToTokens9to_tokens, symObjAddr: 0x12300, symBinAddr: 0x2DE30, symSize: 0xE0 }
  - { offset: 0x6D887, size: 0x8, addend: 0x0, symName: __RNvXs6_NtNtCsdGrGZaRBwMb_3syn4item8printingNtB7_8ItemEnumNtNtCs9OU1sGv5X54_5quote9to_tokens8ToTokens9to_tokens, symObjAddr: 0x12830, symBinAddr: 0x2DF70, symSize: 0xC0 }
  - { offset: 0x6D8C6, size: 0x8, addend: 0x0, symName: __RNvXs7_NtNtCsdGrGZaRBwMb_3syn4item8printingNtB7_10ItemStructNtNtCs9OU1sGv5X54_5quote9to_tokens8ToTokens9to_tokens, symObjAddr: 0x12DC0, symBinAddr: 0x2E030, symSize: 0x180 }
  - { offset: 0x6D941, size: 0x8, addend: 0x0, symName: __RNvXs8_NtNtCsdGrGZaRBwMb_3syn4item8printingNtB7_9ItemUnionNtNtCs9OU1sGv5X54_5quote9to_tokens8ToTokens9to_tokens, symObjAddr: 0x139D0, symBinAddr: 0x2E1B0, symSize: 0xC0 }
  - { offset: 0x6D980, size: 0x8, addend: 0x0, symName: __RNvXs9_NtNtCsdGrGZaRBwMb_3syn4item8printingNtB7_9ItemTraitNtNtCs9OU1sGv5X54_5quote9to_tokens8ToTokens9to_tokens, symObjAddr: 0x13CD0, symBinAddr: 0x2E270, symSize: 0x130 }
  - { offset: 0x6D9BF, size: 0x8, addend: 0x0, symName: __RNvXs_NtNtCsdGrGZaRBwMb_3syn4item8printingNtB6_7ItemUseNtNtCs9OU1sGv5X54_5quote9to_tokens8ToTokens9to_tokens, symObjAddr: 0x14840, symBinAddr: 0x2E5D0, symSize: 0xA0 }
  - { offset: 0x6D9FE, size: 0x8, addend: 0x0, symName: __RNvXsa_NtNtCsdGrGZaRBwMb_3syn4item8printingNtB7_14ItemTraitAliasNtNtCs9OU1sGv5X54_5quote9to_tokens8ToTokens9to_tokens, symObjAddr: 0x15A10, symBinAddr: 0x2F760, symSize: 0xE0 }
  - { offset: 0x6DA3D, size: 0x8, addend: 0x0, symName: __RNvXsb_NtNtCsdGrGZaRBwMb_3syn4item8printingNtB7_8ItemImplNtNtCs9OU1sGv5X54_5quote9to_tokens8ToTokens9to_tokens, symObjAddr: 0x16300, symBinAddr: 0x30010, symSize: 0x160 }
  - { offset: 0x6DABA, size: 0x8, addend: 0x0, symName: __RNvXsc_NtNtCsdGrGZaRBwMb_3syn4item8printingNtB7_9ItemMacroNtNtCs9OU1sGv5X54_5quote9to_tokens8ToTokens9to_tokens, symObjAddr: 0x18760, symBinAddr: 0x32430, symSize: 0x130 }
  - { offset: 0x6DB4B, size: 0x8, addend: 0x0, symName: __RNvXsd_NtNtCsdGrGZaRBwMb_3syn4item8printingNtB7_7UsePathNtNtCs9OU1sGv5X54_5quote9to_tokens8ToTokens9to_tokens, symObjAddr: 0x18E20, symBinAddr: 0x32560, symSize: 0x50 }
  - { offset: 0x6DB8A, size: 0x8, addend: 0x0, symName: __RNvXse_NtNtCsdGrGZaRBwMb_3syn4item8printingNtB7_7UseNameNtNtCs9OU1sGv5X54_5quote9to_tokens8ToTokens9to_tokens, symObjAddr: 0x19960, symBinAddr: 0x325B0, symSize: 0x30 }
  - { offset: 0x6DBC9, size: 0x8, addend: 0x0, symName: __RNvXsf_NtNtCsdGrGZaRBwMb_3syn4item8printingNtB7_9UseRenameNtNtCs9OU1sGv5X54_5quote9to_tokens8ToTokens9to_tokens, symObjAddr: 0x1A380, symBinAddr: 0x325E0, symSize: 0x50 }
  - { offset: 0x6DC08, size: 0x8, addend: 0x0, symName: __RNvXsg_NtNtCsdGrGZaRBwMb_3syn4item8printingNtB7_7UseGlobNtNtCs9OU1sGv5X54_5quote9to_tokens8ToTokens9to_tokens, symObjAddr: 0x1A820, symBinAddr: 0x32A40, symSize: 0x30 }
  - { offset: 0x6DC47, size: 0x8, addend: 0x0, symName: __RNvXsh_NtNtCsdGrGZaRBwMb_3syn4item8printingNtB7_8UseGroupNtNtCs9OU1sGv5X54_5quote9to_tokens8ToTokens9to_tokens, symObjAddr: 0x1B570, symBinAddr: 0x32A70, symSize: 0x30 }
  - { offset: 0x6DC86, size: 0x8, addend: 0x0, symName: __RNvXsi_NtNtCsdGrGZaRBwMb_3syn4item8printingNtB7_14TraitItemConstNtNtCs9OU1sGv5X54_5quote9to_tokens8ToTokens9to_tokens, symObjAddr: 0x1BF40, symBinAddr: 0x33400, symSize: 0x110 }
  - { offset: 0x6DCF3, size: 0x8, addend: 0x0, symName: __RNvXsj_NtNtCsdGrGZaRBwMb_3syn4item8printingNtB7_11TraitItemFnNtNtCs9OU1sGv5X54_5quote9to_tokens8ToTokens9to_tokens, symObjAddr: 0x1C9D0, symBinAddr: 0x33E50, symSize: 0xD0 }
  - { offset: 0x6DD50, size: 0x8, addend: 0x0, symName: __RNvXsk_NtNtCsdGrGZaRBwMb_3syn4item8printingNtB7_13TraitItemTypeNtNtCs9OU1sGv5X54_5quote9to_tokens8ToTokens9to_tokens, symObjAddr: 0x1D680, symBinAddr: 0x34B00, symSize: 0x160 }
  - { offset: 0x6DDBD, size: 0x8, addend: 0x0, symName: __RNvXsl_NtNtCsdGrGZaRBwMb_3syn4item8printingNtB7_14TraitItemMacroNtNtCs9OU1sGv5X54_5quote9to_tokens8ToTokens9to_tokens, symObjAddr: 0x1E080, symBinAddr: 0x354C0, symSize: 0x70 }
  - { offset: 0x6DDFC, size: 0x8, addend: 0x0, symName: __RNvXsm_NtNtCsdGrGZaRBwMb_3syn4item8printingNtB7_13ImplItemConstNtNtCs9OU1sGv5X54_5quote9to_tokens8ToTokens9to_tokens, symObjAddr: 0x1E460, symBinAddr: 0x35530, symSize: 0x100 }
  - { offset: 0x6DE3B, size: 0x8, addend: 0x0, symName: __RNvXsn_NtNtCsdGrGZaRBwMb_3syn4item8printingNtB7_10ImplItemFnNtNtCs9OU1sGv5X54_5quote9to_tokens8ToTokens9to_tokens, symObjAddr: 0x1FF60, symBinAddr: 0x36FF0, symSize: 0xA0 }
  - { offset: 0x6DE7A, size: 0x8, addend: 0x0, symName: __RNvXso_NtNtCsdGrGZaRBwMb_3syn4item8printingNtB7_12ImplItemTypeNtNtCs9OU1sGv5X54_5quote9to_tokens8ToTokens9to_tokens, symObjAddr: 0x20B40, symBinAddr: 0x37090, symSize: 0x100 }
  - { offset: 0x6DEB9, size: 0x8, addend: 0x0, symName: __RNvXsp_NtNtCsdGrGZaRBwMb_3syn4item8printingNtB7_13ImplItemMacroNtNtCs9OU1sGv5X54_5quote9to_tokens8ToTokens9to_tokens, symObjAddr: 0x21770, symBinAddr: 0x37C80, symSize: 0x70 }
  - { offset: 0x6DEF8, size: 0x8, addend: 0x0, symName: __RNvXsq_NtNtCsdGrGZaRBwMb_3syn4item8printingNtB7_13ForeignItemFnNtNtCs9OU1sGv5X54_5quote9to_tokens8ToTokens9to_tokens, symObjAddr: 0x22540, symBinAddr: 0x37DC0, symSize: 0x80 }
  - { offset: 0x6DF37, size: 0x8, addend: 0x0, symName: __RNvXsr_NtNtCsdGrGZaRBwMb_3syn4item8printingNtB7_17ForeignItemStaticNtNtCs9OU1sGv5X54_5quote9to_tokens8ToTokens9to_tokens, symObjAddr: 0x22A00, symBinAddr: 0x38250, symSize: 0xC0 }
  - { offset: 0x6DF76, size: 0x8, addend: 0x0, symName: __RNvXss_NtNtCsdGrGZaRBwMb_3syn4item8printingNtB7_15ForeignItemTypeNtNtCs9OU1sGv5X54_5quote9to_tokens8ToTokens9to_tokens, symObjAddr: 0x22B60, symBinAddr: 0x38310, symSize: 0xC0 }
  - { offset: 0x6DFB5, size: 0x8, addend: 0x0, symName: __RNvXst_NtNtCsdGrGZaRBwMb_3syn4item8printingNtB7_16ForeignItemMacroNtNtCs9OU1sGv5X54_5quote9to_tokens8ToTokens9to_tokens, symObjAddr: 0x24910, symBinAddr: 0x3A080, symSize: 0x70 }
  - { offset: 0x6DFF4, size: 0x8, addend: 0x0, symName: __RNvXsu_NtNtCsdGrGZaRBwMb_3syn4item8printingNtB7_9SignatureNtNtCs9OU1sGv5X54_5quote9to_tokens8ToTokens9to_tokens, symObjAddr: 0x25730, symBinAddr: 0x3A0F0, symSize: 0xE0 }
  - { offset: 0x6E033, size: 0x8, addend: 0x0, symName: __RNvXsv_NtNtCsdGrGZaRBwMb_3syn4item8printingNtB7_8ReceiverNtNtCs9OU1sGv5X54_5quote9to_tokens8ToTokens9to_tokens, symObjAddr: 0x25950, symBinAddr: 0x3A2B0, symSize: 0x450 }
  - { offset: 0x6E129, size: 0x8, addend: 0x0, symName: __RNvXsw_NtNtCsdGrGZaRBwMb_3syn4item8printingNtB7_8VariadicNtNtCs9OU1sGv5X54_5quote9to_tokens8ToTokens9to_tokens, symObjAddr: 0x26980, symBinAddr: 0x3A700, symSize: 0xD0 }
  - { offset: 0x6E196, size: 0x8, addend: 0x0, symName: __RNvXsx_NtNtCsdGrGZaRBwMb_3syn4item8printingNtB7_16StaticMutabilityNtNtCs9OU1sGv5X54_5quote9to_tokens8ToTokens9to_tokens, symObjAddr: 0x26EA0, symBinAddr: 0x3ABE0, symSize: 0x50 }
  - { offset: 0x6E1F4, size: 0x8, addend: 0x0, symName: __RNvXsA_NtCsdGrGZaRBwMb_3syn4itemNtB5_9TraitItemNtNtCs9OU1sGv5X54_5quote9to_tokens8ToTokens9to_tokens, symObjAddr: 0x13E00, symBinAddr: 0x2E3A0, symSize: 0xE0 }
  - { offset: 0x6E2C1, size: 0x8, addend: 0x0, symName: __RNvXsF_NtCsdGrGZaRBwMb_3syn4itemNtB5_8ImplItemNtNtCs9OU1sGv5X54_5quote9to_tokens8ToTokens9to_tokens, symObjAddr: 0x13FD0, symBinAddr: 0x2E480, symSize: 0xE0 }
  - { offset: 0x6E38E, size: 0x8, addend: 0x0, symName: __RNvXsI_NtCsdGrGZaRBwMb_3syn4itemNtB5_5FnArgNtNtCs9OU1sGv5X54_5quote9to_tokens8ToTokens9to_tokens, symObjAddr: 0x14130, symBinAddr: 0x2E560, symSize: 0x70 }
  - { offset: 0x6E404, size: 0x8, addend: 0x0, symName: __RNvXsk_NtCsdGrGZaRBwMb_3syn4itemNtB5_4ItemNtNtCs9OU1sGv5X54_5quote9to_tokens8ToTokens9to_tokens, symObjAddr: 0x1CAA0, symBinAddr: 0x33F20, symSize: 0x2A0 }
  - { offset: 0x6E61A, size: 0x8, addend: 0x0, symName: __RNvXsq_NtCsdGrGZaRBwMb_3syn4itemNtB5_7UseTreeNtNtCs9OU1sGv5X54_5quote9to_tokens8ToTokens9to_tokens, symObjAddr: 0x217E0, symBinAddr: 0x37CF0, symSize: 0xD0 }
  - { offset: 0x6E6E7, size: 0x8, addend: 0x0, symName: __RNvXsv_NtCsdGrGZaRBwMb_3syn4itemNtB5_11ForeignItemNtNtCs9OU1sGv5X54_5quote9to_tokens8ToTokens9to_tokens, symObjAddr: 0x25810, symBinAddr: 0x3A1D0, symSize: 0xE0 }
  - { offset: 0x6F2EE, size: 0x8, addend: 0x0, symName: __RNvXs16_NtNtCsdGrGZaRBwMb_3syn3gen5cloneNtNtBa_4item5FnArgNtNtCsieiGu2EXtoJ_4core5clone5Clone5clone, symObjAddr: 0x5350, symBinAddr: 0x27A40, symSize: 0xE0 }
  - { offset: 0x6F356, size: 0x8, addend: 0x0, symName: __RNvXs17_NtNtCsdGrGZaRBwMb_3syn3gen5cloneNtNtBa_4item11ForeignItemNtNtCsieiGu2EXtoJ_4core5clone5Clone5clone, symObjAddr: 0x5430, symBinAddr: 0x27B20, symSize: 0x200 }
  - { offset: 0x6F418, size: 0x8, addend: 0x0, symName: __RNvXs18_NtNtCsdGrGZaRBwMb_3syn3gen5cloneNtNtBa_4item13ForeignItemFnNtNtCsieiGu2EXtoJ_4core5clone5Clone5clone, symObjAddr: 0x5630, symBinAddr: 0x27D20, symSize: 0x1A0 }
  - { offset: 0x6F44C, size: 0x8, addend: 0x0, symName: __RNvXs19_NtNtCsdGrGZaRBwMb_3syn3gen5cloneNtNtBa_4item16ForeignItemMacroNtNtCsieiGu2EXtoJ_4core5clone5Clone5clone, symObjAddr: 0x5890, symBinAddr: 0x27EC0, symSize: 0x130 }
  - { offset: 0x6F480, size: 0x8, addend: 0x0, symName: __RNvXs1A_NtNtCsdGrGZaRBwMb_3syn3gen5cloneNtNtBa_4item9ItemUnionNtNtCsieiGu2EXtoJ_4core5clone5Clone5clone, symObjAddr: 0x59C0, symBinAddr: 0x27FF0, symSize: 0x220 }
  - { offset: 0x6F4B4, size: 0x8, addend: 0x0, symName: __RNvXs1B_NtNtCsdGrGZaRBwMb_3syn3gen5cloneNtNtBa_4item7ItemUseNtNtCsieiGu2EXtoJ_4core5clone5Clone5clone, symObjAddr: 0x5BE0, symBinAddr: 0x28210, symSize: 0x1D0 }
  - { offset: 0x6F4E8, size: 0x8, addend: 0x0, symName: __RNvXs1a_NtNtCsdGrGZaRBwMb_3syn3gen5cloneNtNtBa_4item17ForeignItemStaticNtNtCsieiGu2EXtoJ_4core5clone5Clone5clone, symObjAddr: 0x6F40, symBinAddr: 0x29150, symSize: 0x250 }
  - { offset: 0x6F51C, size: 0x8, addend: 0x0, symName: __RNvXs1b_NtNtCsdGrGZaRBwMb_3syn3gen5cloneNtNtBa_4item15ForeignItemTypeNtNtCsieiGu2EXtoJ_4core5clone5Clone5clone, symObjAddr: 0x7190, symBinAddr: 0x293A0, symSize: 0x210 }
  - { offset: 0x6F550, size: 0x8, addend: 0x0, symName: __RNvXs1f_NtNtCsdGrGZaRBwMb_3syn3gen5cloneNtNtBa_4item8ImplItemNtNtCsieiGu2EXtoJ_4core5clone5Clone5clone, symObjAddr: 0x73A0, symBinAddr: 0x295B0, symSize: 0x200 }
  - { offset: 0x6F612, size: 0x8, addend: 0x0, symName: __RNvXs1g_NtNtCsdGrGZaRBwMb_3syn3gen5cloneNtNtBa_4item13ImplItemConstNtNtCsieiGu2EXtoJ_4core5clone5Clone5clone, symObjAddr: 0x75A0, symBinAddr: 0x297B0, symSize: 0x3A0 }
  - { offset: 0x6F646, size: 0x8, addend: 0x0, symName: __RNvXs1h_NtNtCsdGrGZaRBwMb_3syn3gen5cloneNtNtBa_4item10ImplItemFnNtNtCsieiGu2EXtoJ_4core5clone5Clone5clone, symObjAddr: 0x7940, symBinAddr: 0x29B50, symSize: 0x1F0 }
  - { offset: 0x6F67A, size: 0x8, addend: 0x0, symName: __RNvXs1i_NtNtCsdGrGZaRBwMb_3syn3gen5cloneNtNtBa_4item13ImplItemMacroNtNtCsieiGu2EXtoJ_4core5clone5Clone5clone, symObjAddr: 0x7B30, symBinAddr: 0x29D40, symSize: 0x130 }
  - { offset: 0x6F6AE, size: 0x8, addend: 0x0, symName: __RNvXs1j_NtNtCsdGrGZaRBwMb_3syn3gen5cloneNtNtBa_4item12ImplItemTypeNtNtCsieiGu2EXtoJ_4core5clone5Clone5clone, symObjAddr: 0x7C60, symBinAddr: 0x29E70, symSize: 0x310 }
  - { offset: 0x6F6E2, size: 0x8, addend: 0x0, symName: __RNvXs1m_NtNtCsdGrGZaRBwMb_3syn3gen5cloneNtNtBa_4item4ItemNtNtCsieiGu2EXtoJ_4core5clone5Clone5clone, symObjAddr: 0x7F80, symBinAddr: 0x2A180, symSize: 0x5C0 }
  - { offset: 0x6F8F7, size: 0x8, addend: 0x0, symName: __RNvXs1n_NtNtCsdGrGZaRBwMb_3syn3gen5cloneNtNtBa_4item9ItemConstNtNtCsieiGu2EXtoJ_4core5clone5Clone5clone, symObjAddr: 0x8540, symBinAddr: 0x2A740, symSize: 0x320 }
  - { offset: 0x6F92B, size: 0x8, addend: 0x0, symName: __RNvXs1o_NtNtCsdGrGZaRBwMb_3syn3gen5cloneNtNtBa_4item8ItemEnumNtNtCsieiGu2EXtoJ_4core5clone5Clone5clone, symObjAddr: 0x8860, symBinAddr: 0x2AA60, symSize: 0x260 }
  - { offset: 0x6F95F, size: 0x8, addend: 0x0, symName: __RNvXs1p_NtNtCsdGrGZaRBwMb_3syn3gen5cloneNtNtBa_4item15ItemExternCrateNtNtCsieiGu2EXtoJ_4core5clone5Clone5clone, symObjAddr: 0x8AC0, symBinAddr: 0x2ACC0, symSize: 0x200 }
  - { offset: 0x6F993, size: 0x8, addend: 0x0, symName: __RNvXs1q_NtNtCsdGrGZaRBwMb_3syn3gen5cloneNtNtBa_4item6ItemFnNtNtCsieiGu2EXtoJ_4core5clone5Clone5clone, symObjAddr: 0x8CC0, symBinAddr: 0x2AEC0, symSize: 0x1A0 }
  - { offset: 0x6F9C7, size: 0x8, addend: 0x0, symName: __RNvXs1r_NtNtCsdGrGZaRBwMb_3syn3gen5cloneNtNtBa_4item14ItemForeignModNtNtCsieiGu2EXtoJ_4core5clone5Clone5clone, symObjAddr: 0x8E60, symBinAddr: 0x2B060, symSize: 0x170 }
  - { offset: 0x6F9FB, size: 0x8, addend: 0x0, symName: __RNvXs1s_NtNtCsdGrGZaRBwMb_3syn3gen5cloneNtNtBa_4item8ItemImplNtNtCsieiGu2EXtoJ_4core5clone5Clone5clone, symObjAddr: 0x8FD0, symBinAddr: 0x2B1D0, symSize: 0x2D0 }
  - { offset: 0x6FA2F, size: 0x8, addend: 0x0, symName: __RNvXs1t_NtNtCsdGrGZaRBwMb_3syn3gen5cloneNtNtBa_4item9ItemMacroNtNtCsieiGu2EXtoJ_4core5clone5Clone5clone, symObjAddr: 0x92A0, symBinAddr: 0x2B4A0, symSize: 0x190 }
  - { offset: 0x6FA63, size: 0x8, addend: 0x0, symName: __RNvXs1u_NtNtCsdGrGZaRBwMb_3syn3gen5cloneNtNtBa_4item7ItemModNtNtCsieiGu2EXtoJ_4core5clone5Clone5clone, symObjAddr: 0x9430, symBinAddr: 0x2B630, symSize: 0x240 }
  - { offset: 0x6FA97, size: 0x8, addend: 0x0, symName: __RNvXs1v_NtNtCsdGrGZaRBwMb_3syn3gen5cloneNtNtBa_4item10ItemStaticNtNtCsieiGu2EXtoJ_4core5clone5Clone5clone, symObjAddr: 0x9670, symBinAddr: 0x2B870, symSize: 0x2D0 }
  - { offset: 0x6FACB, size: 0x8, addend: 0x0, symName: __RNvXs1w_NtNtCsdGrGZaRBwMb_3syn3gen5cloneNtNtBa_4item10ItemStructNtNtCsieiGu2EXtoJ_4core5clone5Clone5clone, symObjAddr: 0x9940, symBinAddr: 0x2BB40, symSize: 0x270 }
  - { offset: 0x6FAFF, size: 0x8, addend: 0x0, symName: __RNvXs1x_NtNtCsdGrGZaRBwMb_3syn3gen5cloneNtNtBa_4item9ItemTraitNtNtCsieiGu2EXtoJ_4core5clone5Clone5clone, symObjAddr: 0x9BB0, symBinAddr: 0x2BDB0, symSize: 0x3B0 }
  - { offset: 0x6FB33, size: 0x8, addend: 0x0, symName: __RNvXs1y_NtNtCsdGrGZaRBwMb_3syn3gen5cloneNtNtBa_4item14ItemTraitAliasNtNtCsieiGu2EXtoJ_4core5clone5Clone5clone, symObjAddr: 0x9F60, symBinAddr: 0x2C160, symSize: 0x2B0 }
  - { offset: 0x6FB67, size: 0x8, addend: 0x0, symName: __RNvXs1z_NtNtCsdGrGZaRBwMb_3syn3gen5cloneNtNtBa_4item8ItemTypeNtNtCsieiGu2EXtoJ_4core5clone5Clone5clone, symObjAddr: 0xA210, symBinAddr: 0x2C410, symSize: 0x2A0 }
  - { offset: 0x6FB9B, size: 0x8, addend: 0x0, symName: __RNvXs2I_NtNtCsdGrGZaRBwMb_3syn3gen5cloneNtNtBa_4item7UseGlobNtNtCsieiGu2EXtoJ_4core5clone5Clone5clone, symObjAddr: 0xB290, symBinAddr: 0x2C6B0, symSize: 0x40 }
  - { offset: 0x6FBCF, size: 0x8, addend: 0x0, symName: __RNvXs2J_NtNtCsdGrGZaRBwMb_3syn3gen5cloneNtNtBa_4item8UseGroupNtNtCsieiGu2EXtoJ_4core5clone5Clone5clone, symObjAddr: 0xB3B0, symBinAddr: 0x2C6F0, symSize: 0x80 }
  - { offset: 0x6FC03, size: 0x8, addend: 0x0, symName: __RNvXs2K_NtNtCsdGrGZaRBwMb_3syn3gen5cloneNtNtBa_4item7UseNameNtNtCsieiGu2EXtoJ_4core5clone5Clone5clone, symObjAddr: 0xB430, symBinAddr: 0x2C770, symSize: 0x50 }
  - { offset: 0x6FC37, size: 0x8, addend: 0x0, symName: __RNvXs2L_NtNtCsdGrGZaRBwMb_3syn3gen5cloneNtNtBa_4item7UsePathNtNtCsieiGu2EXtoJ_4core5clone5Clone5clone, symObjAddr: 0xB530, symBinAddr: 0x2C7C0, symSize: 0xC0 }
  - { offset: 0x6FC6B, size: 0x8, addend: 0x0, symName: __RNvXs2M_NtNtCsdGrGZaRBwMb_3syn3gen5cloneNtNtBa_4item9UseRenameNtNtCsieiGu2EXtoJ_4core5clone5Clone5clone, symObjAddr: 0xB5F0, symBinAddr: 0x2C880, symSize: 0xC0 }
  - { offset: 0x6FC9F, size: 0x8, addend: 0x0, symName: __RNvXs2N_NtNtCsdGrGZaRBwMb_3syn3gen5cloneNtNtBa_4item7UseTreeNtNtCsieiGu2EXtoJ_4core5clone5Clone5clone, symObjAddr: 0xB770, symBinAddr: 0x2C940, symSize: 0x1F0 }
  - { offset: 0x6FD61, size: 0x8, addend: 0x0, symName: __RNvXs2O_NtNtCsdGrGZaRBwMb_3syn3gen5cloneNtNtBa_4item8VariadicNtNtCsieiGu2EXtoJ_4core5clone5Clone5clone, symObjAddr: 0xB960, symBinAddr: 0x2CB30, symSize: 0x110 }
  - { offset: 0x6FD95, size: 0x8, addend: 0x0, symName: __RNvXs2b_NtNtCsdGrGZaRBwMb_3syn3gen5cloneNtNtBa_4item8ReceiverNtNtCsieiGu2EXtoJ_4core5clone5Clone5clone, symObjAddr: 0xC830, symBinAddr: 0x2CD10, symSize: 0x180 }
  - { offset: 0x6FDC9, size: 0x8, addend: 0x0, symName: __RNvXs2d_NtNtCsdGrGZaRBwMb_3syn3gen5cloneNtNtBa_4item9SignatureNtNtCsieiGu2EXtoJ_4core5clone5Clone5clone, symObjAddr: 0xD180, symBinAddr: 0x2CE90, symSize: 0x340 }
  - { offset: 0x6FDFD, size: 0x8, addend: 0x0, symName: __RNvXs2e_NtNtCsdGrGZaRBwMb_3syn3gen5cloneNtNtBa_4item16StaticMutabilityNtNtCsieiGu2EXtoJ_4core5clone5Clone5clone, symObjAddr: 0xD4C0, symBinAddr: 0x2D1D0, symSize: 0x60 }
  - { offset: 0x6FE4F, size: 0x8, addend: 0x0, symName: __RNvXs2k_NtNtCsdGrGZaRBwMb_3syn3gen5cloneNtNtBa_4item9TraitItemNtNtCsieiGu2EXtoJ_4core5clone5Clone5clone, symObjAddr: 0xD7D0, symBinAddr: 0x2D230, symSize: 0x200 }
  - { offset: 0x6FF11, size: 0x8, addend: 0x0, symName: __RNvXs2l_NtNtCsdGrGZaRBwMb_3syn3gen5cloneNtNtBa_4item14TraitItemConstNtNtCsieiGu2EXtoJ_4core5clone5Clone5clone, symObjAddr: 0xDAC0, symBinAddr: 0x2D430, symSize: 0x2A0 }
  - { offset: 0x6FF45, size: 0x8, addend: 0x0, symName: __RNvXs2m_NtNtCsdGrGZaRBwMb_3syn3gen5cloneNtNtBa_4item11TraitItemFnNtNtCsieiGu2EXtoJ_4core5clone5Clone5clone, symObjAddr: 0xDD60, symBinAddr: 0x2D6D0, symSize: 0x190 }
  - { offset: 0x6FF79, size: 0x8, addend: 0x0, symName: __RNvXs2n_NtNtCsdGrGZaRBwMb_3syn3gen5cloneNtNtBa_4item14TraitItemMacroNtNtCsieiGu2EXtoJ_4core5clone5Clone5clone, symObjAddr: 0xDF30, symBinAddr: 0x2D860, symSize: 0x130 }
  - { offset: 0x6FFAD, size: 0x8, addend: 0x0, symName: __RNvXs2o_NtNtCsdGrGZaRBwMb_3syn3gen5cloneNtNtBa_4item13TraitItemTypeNtNtCsieiGu2EXtoJ_4core5clone5Clone5clone, symObjAddr: 0xE060, symBinAddr: 0x2D990, symSize: 0x2C0 }
  - { offset: 0x74196, size: 0x8, addend: 0x0, symName: __RNvMNtCsieiGu2EXtoJ_4core5sliceSTNtNtCsdGrGZaRBwMb_3syn4item5FnArgNtNtBz_5token5CommaE4iterBz_, symObjAddr: 0x2180, symBinAddr: 0x26B50, symSize: 0x20 }
  - { offset: 0x741CD, size: 0x8, addend: 0x0, symName: __RNvMNtCsieiGu2EXtoJ_4core5sliceSTNtNtCsdGrGZaRBwMb_3syn4item7UseTreeNtNtBz_5token5CommaE4iterBz_, symObjAddr: 0x21A0, symBinAddr: 0x26B70, symSize: 0x20 }
  - { offset: 0x753E1, size: 0x8, addend: 0x0, symName: __RNvXNtNtCsieiGu2EXtoJ_4core5clone6uninitNtNtCsdGrGZaRBwMb_3syn4item5FnArgNtB2_8CopySpec9clone_oneBG_, symObjAddr: 0x48E0, symBinAddr: 0x26FD0, symSize: 0x50 }
  - { offset: 0x75446, size: 0x8, addend: 0x0, symName: __RNvXNtNtCsieiGu2EXtoJ_4core5clone6uninitNtNtCsdGrGZaRBwMb_3syn4item7UseTreeNtB2_8CopySpec9clone_oneBG_, symObjAddr: 0x4930, symBinAddr: 0x27020, symSize: 0x40 }
  - { offset: 0x771CA, size: 0x8, addend: 0x0, symName: __RNvMNtCsdGrGZaRBwMb_3syn4itemNtB2_4Item13replace_attrs, symObjAddr: 0x1EE0, symBinAddr: 0x268B0, symSize: 0x2A0 }
  - { offset: 0x77404, size: 0x8, addend: 0x0, symName: __RNvXNtCs9OU1sGv5X54_5quote9to_tokensRNtNtCsdGrGZaRBwMb_3syn4item11ForeignItemNtB2_8ToTokens9to_tokensBD_, symObjAddr: 0x44A0, symBinAddr: 0x26B90, symSize: 0x30 }
  - { offset: 0x77443, size: 0x8, addend: 0x0, symName: __RNvXNtCs9OU1sGv5X54_5quote9to_tokensRNtNtCsdGrGZaRBwMb_3syn4item4ItemNtB2_8ToTokens9to_tokensBD_, symObjAddr: 0x44D0, symBinAddr: 0x26BC0, symSize: 0x30 }
  - { offset: 0x77482, size: 0x8, addend: 0x0, symName: __RNvXNtCs9OU1sGv5X54_5quote9to_tokensRNtNtCsdGrGZaRBwMb_3syn4item5FnArgNtB2_8ToTokens9to_tokensBD_, symObjAddr: 0x4500, symBinAddr: 0x26BF0, symSize: 0x30 }
  - { offset: 0x774C1, size: 0x8, addend: 0x0, symName: __RNvXNtCs9OU1sGv5X54_5quote9to_tokensRNtNtCsdGrGZaRBwMb_3syn4item7UseTreeNtB2_8ToTokens9to_tokensBD_, symObjAddr: 0x4530, symBinAddr: 0x26C20, symSize: 0x30 }
  - { offset: 0x77500, size: 0x8, addend: 0x0, symName: __RNvXNtCs9OU1sGv5X54_5quote9to_tokensRNtNtCsdGrGZaRBwMb_3syn4item8ImplItemNtB2_8ToTokens9to_tokensBD_, symObjAddr: 0x4560, symBinAddr: 0x26C50, symSize: 0x30 }
  - { offset: 0x7753F, size: 0x8, addend: 0x0, symName: __RNvXNtCs9OU1sGv5X54_5quote9to_tokensRNtNtCsdGrGZaRBwMb_3syn4item9TraitItemNtB2_8ToTokens9to_tokensBD_, symObjAddr: 0x4590, symBinAddr: 0x26C80, symSize: 0x30 }
  - { offset: 0x7791C, size: 0x8, addend: 0x0, symName: __RINvMs_NtCslJiobkLta79_5alloc3vecINtB5_3VecReE10retain_mutNCNvMNtCsdGrGZaRBwMb_3syn9lookaheadNtBZ_10Lookahead15error0EB11_, symObjAddr: 0x0, symBinAddr: 0x3AD00, symSize: 0x160 }
  - { offset: 0x7FB1A, size: 0x8, addend: 0x0, symName: __RNvXs1_NtCsieiGu2EXtoJ_4core7convertINtNtCslJiobkLta79_5alloc3vec3VechEINtB5_4IntoBy_E4intoCsdGrGZaRBwMb_3syn, symObjAddr: 0x7580, symBinAddr: 0x40700, symSize: 0x20 }
  - { offset: 0x7FDB1, size: 0x8, addend: 0x0, symName: __RINvNvMs_NtCslJiobkLta79_5alloc3vecINtB7_3VecppE10retain_mut12process_loopNCNvMNtCsdGrGZaRBwMb_3syn9lookaheadNtB1f_10Lookahead15error0ReNtNtB9_5alloc6GlobalKb0_EB1h_, symObjAddr: 0x160, symBinAddr: 0x3AE60, symSize: 0xB0 }
  - { offset: 0x7FF05, size: 0x8, addend: 0x0, symName: __RINvNvMs_NtCslJiobkLta79_5alloc3vecINtB7_3VecppE10retain_mut12process_loopNCNvMNtCsdGrGZaRBwMb_3syn9lookaheadNtB1f_10Lookahead15error0ReNtNtB9_5alloc6GlobalKb1_EB1h_, symObjAddr: 0x210, symBinAddr: 0x3AF10, symSize: 0x130 }
  - { offset: 0x800FB, size: 0x8, addend: 0x0, symName: __RNvXNvMs_NtCslJiobkLta79_5alloc3vecINtB7_3VecppE10retain_mutINtB2_15BackshiftOnDropReNtNtB9_5alloc6GlobalENtNtNtCsieiGu2EXtoJ_4core3ops4drop4Drop4dropCsdGrGZaRBwMb_3syn, symObjAddr: 0x6EE0, symBinAddr: 0x402E0, symSize: 0x190 }
  - { offset: 0x80341, size: 0x8, addend: 0x0, symName: __RNvNvMs_NtCslJiobkLta79_5alloc3vecINtB6_3VecppE17from_raw_parts_in18precondition_checkCsdGrGZaRBwMb_3syn, symObjAddr: 0x5950, symBinAddr: 0x401A0, symSize: 0xA0 }
  - { offset: 0x803AF, size: 0x8, addend: 0x0, symName: __RNvNvMs_NtCslJiobkLta79_5alloc3vecINtB6_3VecppE7set_len18precondition_checkCsdGrGZaRBwMb_3syn, symObjAddr: 0x59F0, symBinAddr: 0x40240, symSize: 0xA0 }
  - { offset: 0x807B6, size: 0x8, addend: 0x0, symName: __RINvXsh_NtCslJiobkLta79_5alloc3vecINtB6_3VecNtNtCsdGrGZaRBwMb_3syn4attr9AttributeEINtNtNtNtCsieiGu2EXtoJ_4core4iter6traits7collect6ExtendBG_E6extendBw_EBK_, symObjAddr: 0x340, symBinAddr: 0x3B040, symSize: 0x40 }
  - { offset: 0x83AE6, size: 0x8, addend: 0x0, symName: __RNvXs6_NtCslJiobkLta79_5alloc3vecINtB5_3VecNtNtCsdGrGZaRBwMb_3syn4attr9AttributeENtNtNtCsieiGu2EXtoJ_4core3ops5deref5Deref5derefBJ_, symObjAddr: 0x7600, symBinAddr: 0x40720, symSize: 0x20 }
  - { offset: 0x83B26, size: 0x8, addend: 0x0, symName: __RNvXs6_NtCslJiobkLta79_5alloc3vecINtB5_3VecNtNtCsdGrGZaRBwMb_3syn4expr3ArmENtNtNtCsieiGu2EXtoJ_4core3ops5deref5Deref5derefBJ_, symObjAddr: 0x7620, symBinAddr: 0x40740, symSize: 0x20 }
  - { offset: 0x83B66, size: 0x8, addend: 0x0, symName: __RNvXs6_NtCslJiobkLta79_5alloc3vecINtB5_3VecReENtNtNtCsieiGu2EXtoJ_4core3ops5deref5Deref5derefCsdGrGZaRBwMb_3syn, symObjAddr: 0x7660, symBinAddr: 0x40760, symSize: 0x20 }
  - { offset: 0x83BA6, size: 0x8, addend: 0x0, symName: __RNvXs6_NtCslJiobkLta79_5alloc3vecINtB5_3VecTNtNtCsdGrGZaRBwMb_3syn2ty4TypeNtNtBK_5token5CommaEENtNtNtCsieiGu2EXtoJ_4core3ops5deref5Deref5derefBK_, symObjAddr: 0x7680, symBinAddr: 0x40780, symSize: 0x20 }
  - { offset: 0x83BE6, size: 0x8, addend: 0x0, symName: __RNvXs6_NtCslJiobkLta79_5alloc3vecINtB5_3VecTNtNtCsdGrGZaRBwMb_3syn2ty9BareFnArgNtNtBK_5token5CommaEENtNtNtCsieiGu2EXtoJ_4core3ops5deref5Deref5derefBK_, symObjAddr: 0x76A0, symBinAddr: 0x407A0, symSize: 0x20 }
  - { offset: 0x83C26, size: 0x8, addend: 0x0, symName: __RNvXs6_NtCslJiobkLta79_5alloc3vecINtB5_3VecTNtNtCsdGrGZaRBwMb_3syn3pat3PatNtNtBK_5token2OrEENtNtNtCsieiGu2EXtoJ_4core3ops5deref5Deref5derefBK_, symObjAddr: 0x76C0, symBinAddr: 0x407C0, symSize: 0x20 }
  - { offset: 0x83C66, size: 0x8, addend: 0x0, symName: __RNvXs6_NtCslJiobkLta79_5alloc3vecINtB5_3VecTNtNtCsdGrGZaRBwMb_3syn3pat3PatNtNtBK_5token5CommaEENtNtNtCsieiGu2EXtoJ_4core3ops5deref5Deref5derefBK_, symObjAddr: 0x76E0, symBinAddr: 0x407E0, symSize: 0x20 }
  - { offset: 0x83CA6, size: 0x8, addend: 0x0, symName: __RNvXs6_NtCslJiobkLta79_5alloc3vecINtB5_3VecTNtNtCsdGrGZaRBwMb_3syn3pat8FieldPatNtNtBK_5token5CommaEENtNtNtCsieiGu2EXtoJ_4core3ops5deref5Deref5derefBK_, symObjAddr: 0x7700, symBinAddr: 0x40800, symSize: 0x20 }
  - { offset: 0x83CE6, size: 0x8, addend: 0x0, symName: __RNvXs6_NtCslJiobkLta79_5alloc3vecINtB5_3VecTNtNtCsdGrGZaRBwMb_3syn4data5FieldNtNtBK_5token5CommaEENtNtNtCsieiGu2EXtoJ_4core3ops5deref5Deref5derefBK_, symObjAddr: 0x7720, symBinAddr: 0x40820, symSize: 0x20 }
  - { offset: 0x83D26, size: 0x8, addend: 0x0, symName: __RNvXs6_NtCslJiobkLta79_5alloc3vecINtB5_3VecTNtNtCsdGrGZaRBwMb_3syn4data7VariantNtNtBK_5token5CommaEENtNtNtCsieiGu2EXtoJ_4core3ops5deref5Deref5derefBK_, symObjAddr: 0x7740, symBinAddr: 0x40840, symSize: 0x20 }
  - { offset: 0x83D66, size: 0x8, addend: 0x0, symName: __RNvXs6_NtCslJiobkLta79_5alloc3vecINtB5_3VecTNtNtCsdGrGZaRBwMb_3syn4expr10FieldValueNtNtBK_5token5CommaEENtNtNtCsieiGu2EXtoJ_4core3ops5deref5Deref5derefBK_, symObjAddr: 0x7760, symBinAddr: 0x40860, symSize: 0x20 }
  - { offset: 0x83DA6, size: 0x8, addend: 0x0, symName: __RNvXs6_NtCslJiobkLta79_5alloc3vecINtB5_3VecTNtNtCsdGrGZaRBwMb_3syn4expr4ExprNtNtBK_5token5CommaEENtNtNtCsieiGu2EXtoJ_4core3ops5deref5Deref5derefBK_, symObjAddr: 0x7780, symBinAddr: 0x40880, symSize: 0x20 }
  - { offset: 0x83DE6, size: 0x8, addend: 0x0, symName: __RNvXs6_NtCslJiobkLta79_5alloc3vecINtB5_3VecTNtNtCsdGrGZaRBwMb_3syn4item5FnArgNtNtBK_5token5CommaEENtNtNtCsieiGu2EXtoJ_4core3ops5deref5Deref5derefBK_, symObjAddr: 0x77A0, symBinAddr: 0x408A0, symSize: 0x20 }
  - { offset: 0x83E26, size: 0x8, addend: 0x0, symName: __RNvXs6_NtCslJiobkLta79_5alloc3vecINtB5_3VecTNtNtCsdGrGZaRBwMb_3syn4item7UseTreeNtNtBK_5token5CommaEENtNtNtCsieiGu2EXtoJ_4core3ops5deref5Deref5derefBK_, symObjAddr: 0x77C0, symBinAddr: 0x408C0, symSize: 0x20 }
  - { offset: 0x83E66, size: 0x8, addend: 0x0, symName: __RNvXs6_NtCslJiobkLta79_5alloc3vecINtB5_3VecTNtNtCsdGrGZaRBwMb_3syn4path11PathSegmentNtNtBK_5token7PathSepEENtNtNtCsieiGu2EXtoJ_4core3ops5deref5Deref5derefBK_, symObjAddr: 0x77E0, symBinAddr: 0x408E0, symSize: 0x20 }
  - { offset: 0x83EA6, size: 0x8, addend: 0x0, symName: __RNvXs6_NtCslJiobkLta79_5alloc3vecINtB5_3VecTNtNtCsdGrGZaRBwMb_3syn4path15GenericArgumentNtNtBK_5token5CommaEENtNtNtCsieiGu2EXtoJ_4core3ops5deref5Deref5derefBK_, symObjAddr: 0x7800, symBinAddr: 0x40900, symSize: 0x20 }
  - { offset: 0x83EE6, size: 0x8, addend: 0x0, symName: __RNvXs6_NtCslJiobkLta79_5alloc3vecINtB5_3VecTNtNtCsdGrGZaRBwMb_3syn8generics12GenericParamNtNtBK_5token5CommaEENtNtNtCsieiGu2EXtoJ_4core3ops5deref5Deref5derefBK_, symObjAddr: 0x7820, symBinAddr: 0x40920, symSize: 0x20 }
  - { offset: 0x83F26, size: 0x8, addend: 0x0, symName: __RNvXs6_NtCslJiobkLta79_5alloc3vecINtB5_3VecTNtNtCsdGrGZaRBwMb_3syn8generics13CapturedParamNtNtBK_5token5CommaEENtNtNtCsieiGu2EXtoJ_4core3ops5deref5Deref5derefBK_, symObjAddr: 0x7840, symBinAddr: 0x40940, symSize: 0x20 }
  - { offset: 0x83F66, size: 0x8, addend: 0x0, symName: __RNvXs6_NtCslJiobkLta79_5alloc3vecINtB5_3VecTNtNtCsdGrGZaRBwMb_3syn8generics14TypeParamBoundNtNtBK_5token4PlusEENtNtNtCsieiGu2EXtoJ_4core3ops5deref5Deref5derefBK_, symObjAddr: 0x7860, symBinAddr: 0x40960, symSize: 0x20 }
  - { offset: 0x83FA6, size: 0x8, addend: 0x0, symName: __RNvXs6_NtCslJiobkLta79_5alloc3vecINtB5_3VecTNtNtCsdGrGZaRBwMb_3syn8generics14WherePredicateNtNtBK_5token5CommaEENtNtNtCsieiGu2EXtoJ_4core3ops5deref5Deref5derefBK_, symObjAddr: 0x7880, symBinAddr: 0x40980, symSize: 0x20 }
  - { offset: 0x83FE6, size: 0x8, addend: 0x0, symName: __RNvXs6_NtCslJiobkLta79_5alloc3vecINtB5_3VecTNtNtCsdGrGZaRBwMb_3syn8lifetime8LifetimeNtNtBK_5token4PlusEENtNtNtCsieiGu2EXtoJ_4core3ops5deref5Deref5derefBK_, symObjAddr: 0x78A0, symBinAddr: 0x409A0, symSize: 0x20 }
  - { offset: 0x84026, size: 0x8, addend: 0x0, symName: __RNvXs6_NtCslJiobkLta79_5alloc3vecINtB5_3VechENtNtNtCsieiGu2EXtoJ_4core3ops5deref5Deref5derefCsdGrGZaRBwMb_3syn, symObjAddr: 0x78C0, symBinAddr: 0x409C0, symSize: 0x20 }
  - { offset: 0x8481C, size: 0x8, addend: 0x0, symName: __RNvXsb_NtCslJiobkLta79_5alloc3vecINtB5_3VecNtNtCsdGrGZaRBwMb_3syn5error12ErrorMessageEINtNtNtCsieiGu2EXtoJ_4core3ops5index5IndexjE5indexBJ_, symObjAddr: 0x8800, symBinAddr: 0x418C0, symSize: 0x80 }
  - { offset: 0x8499E, size: 0x8, addend: 0x0, symName: __RNvXsb_NtCslJiobkLta79_5alloc3vecINtB5_3VecReEINtNtNtCsieiGu2EXtoJ_4core3ops5index5IndexjE5indexCsdGrGZaRBwMb_3syn, symObjAddr: 0x8880, symBinAddr: 0x41940, symSize: 0x80 }
  - { offset: 0x84B20, size: 0x8, addend: 0x0, symName: __RNvXsb_NtCslJiobkLta79_5alloc3vecINtB5_3VecTNtNtCsdGrGZaRBwMb_3syn3pat3PatNtNtBK_5token5CommaEEINtNtNtCsieiGu2EXtoJ_4core3ops5index5IndexjE5indexBK_, symObjAddr: 0x8900, symBinAddr: 0x419C0, symSize: 0x80 }
  - { offset: 0x84CA2, size: 0x8, addend: 0x0, symName: __RNvXsb_NtCslJiobkLta79_5alloc3vecINtB5_3VecTNtNtCsdGrGZaRBwMb_3syn4path11PathSegmentNtNtBK_5token7PathSepEEINtNtNtCsieiGu2EXtoJ_4core3ops5index5IndexjE5indexBK_, symObjAddr: 0x8980, symBinAddr: 0x41A40, symSize: 0x80 }
  - { offset: 0x84E24, size: 0x8, addend: 0x0, symName: __RNvXsb_NtCslJiobkLta79_5alloc3vecINtB5_3VechEINtNtNtCsieiGu2EXtoJ_4core3ops5index5IndexINtNtBM_5range9RangeFromjEE5indexCsdGrGZaRBwMb_3syn, symObjAddr: 0x8A00, symBinAddr: 0x41AC0, symSize: 0x70 }
  - { offset: 0x84FA6, size: 0x8, addend: 0x0, symName: __RNvXsb_NtCslJiobkLta79_5alloc3vecINtB5_3VechEINtNtNtCsieiGu2EXtoJ_4core3ops5index5IndexjE5indexCsdGrGZaRBwMb_3syn, symObjAddr: 0x8A70, symBinAddr: 0x41B30, symSize: 0x70 }
  - { offset: 0x852E8, size: 0x8, addend: 0x0, symName: __RNvXs0_NtNtCslJiobkLta79_5alloc3vec11spec_extendINtB7_3VecNtNtCsdGrGZaRBwMb_3syn4attr9AttributeEINtB5_10SpecExtendBU_INtNtB7_9into_iter8IntoIterBU_EE11spec_extendBY_, symObjAddr: 0x7440, symBinAddr: 0x40670, symSize: 0x90 }
  - { offset: 0x85355, size: 0x8, addend: 0x0, symName: __RNvXs7_NtCslJiobkLta79_5alloc3vecINtB5_3VecTNtNtCsdGrGZaRBwMb_3syn4path11PathSegmentNtNtBK_5token7PathSepEENtNtNtCsieiGu2EXtoJ_4core3ops5deref8DerefMut9deref_mutBK_, symObjAddr: 0x7900, symBinAddr: 0x409E0, symSize: 0x20 }
  - { offset: 0x8542B, size: 0x8, addend: 0x0, symName: __RNvXs9_NtCslJiobkLta79_5alloc3vecINtB5_3VecNtNtCsdGrGZaRBwMb_3syn4attr9AttributeENtNtCsieiGu2EXtoJ_4core5clone5Clone5cloneBJ_, symObjAddr: 0x7940, symBinAddr: 0x40A00, symSize: 0x90 }
  - { offset: 0x855FC, size: 0x8, addend: 0x0, symName: __RNvXs9_NtCslJiobkLta79_5alloc3vecINtB5_3VecNtNtCsdGrGZaRBwMb_3syn4expr3ArmENtNtCsieiGu2EXtoJ_4core5clone5Clone5cloneBJ_, symObjAddr: 0x79D0, symBinAddr: 0x40A90, symSize: 0x90 }
  - { offset: 0x857CD, size: 0x8, addend: 0x0, symName: __RNvXs9_NtCslJiobkLta79_5alloc3vecINtB5_3VecNtNtCsdGrGZaRBwMb_3syn4item11ForeignItemENtNtCsieiGu2EXtoJ_4core5clone5Clone5cloneBJ_, symObjAddr: 0x7A60, symBinAddr: 0x40B20, symSize: 0x90 }
  - { offset: 0x8599E, size: 0x8, addend: 0x0, symName: __RNvXs9_NtCslJiobkLta79_5alloc3vecINtB5_3VecNtNtCsdGrGZaRBwMb_3syn4item4ItemENtNtCsieiGu2EXtoJ_4core5clone5Clone5cloneBJ_, symObjAddr: 0x7AF0, symBinAddr: 0x40BB0, symSize: 0x90 }
  - { offset: 0x85B6F, size: 0x8, addend: 0x0, symName: __RNvXs9_NtCslJiobkLta79_5alloc3vecINtB5_3VecNtNtCsdGrGZaRBwMb_3syn4item8ImplItemENtNtCsieiGu2EXtoJ_4core5clone5Clone5cloneBJ_, symObjAddr: 0x7B80, symBinAddr: 0x40C40, symSize: 0x90 }
  - { offset: 0x85D40, size: 0x8, addend: 0x0, symName: __RNvXs9_NtCslJiobkLta79_5alloc3vecINtB5_3VecNtNtCsdGrGZaRBwMb_3syn4item9TraitItemENtNtCsieiGu2EXtoJ_4core5clone5Clone5cloneBJ_, symObjAddr: 0x7C10, symBinAddr: 0x40CD0, symSize: 0x90 }
  - { offset: 0x85F11, size: 0x8, addend: 0x0, symName: __RNvXs9_NtCslJiobkLta79_5alloc3vecINtB5_3VecNtNtCsdGrGZaRBwMb_3syn4stmt4StmtENtNtCsieiGu2EXtoJ_4core5clone5Clone5cloneBJ_, symObjAddr: 0x7CA0, symBinAddr: 0x40D60, symSize: 0x90 }
  - { offset: 0x860E2, size: 0x8, addend: 0x0, symName: __RNvXs9_NtCslJiobkLta79_5alloc3vecINtB5_3VecNtNtCsdGrGZaRBwMb_3syn5error12ErrorMessageENtNtCsieiGu2EXtoJ_4core5clone5Clone5cloneBJ_, symObjAddr: 0x7D30, symBinAddr: 0x40DF0, symSize: 0x90 }
  - { offset: 0x862B3, size: 0x8, addend: 0x0, symName: __RNvXs9_NtCslJiobkLta79_5alloc3vecINtB5_3VecTNtNtCsdGrGZaRBwMb_3syn2ty4TypeNtNtBK_5token5CommaEENtNtCsieiGu2EXtoJ_4core5clone5Clone5cloneBK_, symObjAddr: 0x7DC0, symBinAddr: 0x40E80, symSize: 0x90 }
  - { offset: 0x86484, size: 0x8, addend: 0x0, symName: __RNvXs9_NtCslJiobkLta79_5alloc3vecINtB5_3VecTNtNtCsdGrGZaRBwMb_3syn2ty9BareFnArgNtNtBK_5token5CommaEENtNtCsieiGu2EXtoJ_4core5clone5Clone5cloneBK_, symObjAddr: 0x7E50, symBinAddr: 0x40F10, symSize: 0x90 }
  - { offset: 0x86655, size: 0x8, addend: 0x0, symName: __RNvXs9_NtCslJiobkLta79_5alloc3vecINtB5_3VecTNtNtCsdGrGZaRBwMb_3syn3pat3PatNtNtBK_5token2OrEENtNtCsieiGu2EXtoJ_4core5clone5Clone5cloneBK_, symObjAddr: 0x7EE0, symBinAddr: 0x40FA0, symSize: 0x90 }
  - { offset: 0x86826, size: 0x8, addend: 0x0, symName: __RNvXs9_NtCslJiobkLta79_5alloc3vecINtB5_3VecTNtNtCsdGrGZaRBwMb_3syn3pat3PatNtNtBK_5token5CommaEENtNtCsieiGu2EXtoJ_4core5clone5Clone5cloneBK_, symObjAddr: 0x7F70, symBinAddr: 0x41030, symSize: 0x90 }
  - { offset: 0x869F7, size: 0x8, addend: 0x0, symName: __RNvXs9_NtCslJiobkLta79_5alloc3vecINtB5_3VecTNtNtCsdGrGZaRBwMb_3syn3pat8FieldPatNtNtBK_5token5CommaEENtNtCsieiGu2EXtoJ_4core5clone5Clone5cloneBK_, symObjAddr: 0x8000, symBinAddr: 0x410C0, symSize: 0x90 }
  - { offset: 0x86BC8, size: 0x8, addend: 0x0, symName: __RNvXs9_NtCslJiobkLta79_5alloc3vecINtB5_3VecTNtNtCsdGrGZaRBwMb_3syn4data5FieldNtNtBK_5token5CommaEENtNtCsieiGu2EXtoJ_4core5clone5Clone5cloneBK_, symObjAddr: 0x8090, symBinAddr: 0x41150, symSize: 0x90 }
  - { offset: 0x86D99, size: 0x8, addend: 0x0, symName: __RNvXs9_NtCslJiobkLta79_5alloc3vecINtB5_3VecTNtNtCsdGrGZaRBwMb_3syn4data7VariantNtNtBK_5token5CommaEENtNtCsieiGu2EXtoJ_4core5clone5Clone5cloneBK_, symObjAddr: 0x8120, symBinAddr: 0x411E0, symSize: 0x90 }
  - { offset: 0x86F6A, size: 0x8, addend: 0x0, symName: __RNvXs9_NtCslJiobkLta79_5alloc3vecINtB5_3VecTNtNtCsdGrGZaRBwMb_3syn4expr10FieldValueNtNtBK_5token5CommaEENtNtCsieiGu2EXtoJ_4core5clone5Clone5cloneBK_, symObjAddr: 0x81B0, symBinAddr: 0x41270, symSize: 0x90 }
  - { offset: 0x8713B, size: 0x8, addend: 0x0, symName: __RNvXs9_NtCslJiobkLta79_5alloc3vecINtB5_3VecTNtNtCsdGrGZaRBwMb_3syn4expr4ExprNtNtBK_5token5CommaEENtNtCsieiGu2EXtoJ_4core5clone5Clone5cloneBK_, symObjAddr: 0x8240, symBinAddr: 0x41300, symSize: 0x90 }
  - { offset: 0x8730C, size: 0x8, addend: 0x0, symName: __RNvXs9_NtCslJiobkLta79_5alloc3vecINtB5_3VecTNtNtCsdGrGZaRBwMb_3syn4item5FnArgNtNtBK_5token5CommaEENtNtCsieiGu2EXtoJ_4core5clone5Clone5cloneBK_, symObjAddr: 0x82D0, symBinAddr: 0x41390, symSize: 0x90 }
  - { offset: 0x874DD, size: 0x8, addend: 0x0, symName: __RNvXs9_NtCslJiobkLta79_5alloc3vecINtB5_3VecTNtNtCsdGrGZaRBwMb_3syn4item7UseTreeNtNtBK_5token5CommaEENtNtCsieiGu2EXtoJ_4core5clone5Clone5cloneBK_, symObjAddr: 0x8360, symBinAddr: 0x41420, symSize: 0x90 }
  - { offset: 0x876AE, size: 0x8, addend: 0x0, symName: __RNvXs9_NtCslJiobkLta79_5alloc3vecINtB5_3VecTNtNtCsdGrGZaRBwMb_3syn4path11PathSegmentNtNtBK_5token7PathSepEENtNtCsieiGu2EXtoJ_4core5clone5Clone5cloneBK_, symObjAddr: 0x83F0, symBinAddr: 0x414B0, symSize: 0x90 }
  - { offset: 0x8787F, size: 0x8, addend: 0x0, symName: __RNvXs9_NtCslJiobkLta79_5alloc3vecINtB5_3VecTNtNtCsdGrGZaRBwMb_3syn4path15GenericArgumentNtNtBK_5token5CommaEENtNtCsieiGu2EXtoJ_4core5clone5Clone5cloneBK_, symObjAddr: 0x8480, symBinAddr: 0x41540, symSize: 0x90 }
  - { offset: 0x87A50, size: 0x8, addend: 0x0, symName: __RNvXs9_NtCslJiobkLta79_5alloc3vecINtB5_3VecTNtNtCsdGrGZaRBwMb_3syn8generics12GenericParamNtNtBK_5token5CommaEENtNtCsieiGu2EXtoJ_4core5clone5Clone5cloneBK_, symObjAddr: 0x8510, symBinAddr: 0x415D0, symSize: 0x90 }
  - { offset: 0x87C21, size: 0x8, addend: 0x0, symName: __RNvXs9_NtCslJiobkLta79_5alloc3vecINtB5_3VecTNtNtCsdGrGZaRBwMb_3syn8generics13CapturedParamNtNtBK_5token5CommaEENtNtCsieiGu2EXtoJ_4core5clone5Clone5cloneBK_, symObjAddr: 0x85A0, symBinAddr: 0x41660, symSize: 0x90 }
  - { offset: 0x87DF2, size: 0x8, addend: 0x0, symName: __RNvXs9_NtCslJiobkLta79_5alloc3vecINtB5_3VecTNtNtCsdGrGZaRBwMb_3syn8generics14TypeParamBoundNtNtBK_5token4PlusEENtNtCsieiGu2EXtoJ_4core5clone5Clone5cloneBK_, symObjAddr: 0x8630, symBinAddr: 0x416F0, symSize: 0x90 }
  - { offset: 0x87FC3, size: 0x8, addend: 0x0, symName: __RNvXs9_NtCslJiobkLta79_5alloc3vecINtB5_3VecTNtNtCsdGrGZaRBwMb_3syn8generics14WherePredicateNtNtBK_5token5CommaEENtNtCsieiGu2EXtoJ_4core5clone5Clone5cloneBK_, symObjAddr: 0x86C0, symBinAddr: 0x41780, symSize: 0x90 }
  - { offset: 0x88194, size: 0x8, addend: 0x0, symName: __RNvXs9_NtCslJiobkLta79_5alloc3vecINtB5_3VecTNtNtCsdGrGZaRBwMb_3syn8lifetime8LifetimeNtNtBK_5token4PlusEENtNtCsieiGu2EXtoJ_4core5clone5Clone5cloneBK_, symObjAddr: 0x8750, symBinAddr: 0x41810, symSize: 0x90 }
  - { offset: 0x8836B, size: 0x8, addend: 0x0, symName: __RNvXsc_NtCslJiobkLta79_5alloc3vecINtB5_3VecNtNtCsdGrGZaRBwMb_3syn6buffer5EntryEINtNtNtCsieiGu2EXtoJ_4core3ops5index8IndexMutjE9index_mutBJ_, symObjAddr: 0x8AE0, symBinAddr: 0x41BA0, symSize: 0x80 }
  - { offset: 0x884BF, size: 0x8, addend: 0x0, symName: __RNvXsc_NtCslJiobkLta79_5alloc3vecINtB5_3VechEINtNtNtCsieiGu2EXtoJ_4core3ops5index8IndexMutjE9index_mutCsdGrGZaRBwMb_3syn, symObjAddr: 0x8B60, symBinAddr: 0x41C20, symSize: 0x70 }
  - { offset: 0x88619, size: 0x8, addend: 0x0, symName: __RNvXse_NtCslJiobkLta79_5alloc3vecINtB5_3VecNtNtCsdGrGZaRBwMb_3syn4attr9AttributeENtNtNtNtCsieiGu2EXtoJ_4core4iter6traits7collect12IntoIterator9into_iterBJ_, symObjAddr: 0x8BD0, symBinAddr: 0x41C90, symSize: 0x140 }
  - { offset: 0x888A9, size: 0x8, addend: 0x0, symName: __RNvXse_NtCslJiobkLta79_5alloc3vecINtB5_3VecNtNtCsdGrGZaRBwMb_3syn8generics14TypeParamBoundENtNtNtNtCsieiGu2EXtoJ_4core4iter6traits7collect12IntoIterator9into_iterBJ_, symObjAddr: 0x8F90, symBinAddr: 0x41DD0, symSize: 0x140 }
  - { offset: 0x88B39, size: 0x8, addend: 0x0, symName: __RNvXse_NtCslJiobkLta79_5alloc3vecINtB5_3VecTNtNtCsdGrGZaRBwMb_3syn4path11PathSegmentNtNtBK_5token7PathSepEENtNtNtNtCsieiGu2EXtoJ_4core4iter6traits7collect12IntoIterator9into_iterBK_, symObjAddr: 0x9350, symBinAddr: 0x41F10, symSize: 0x140 }
  - { offset: 0x88DC9, size: 0x8, addend: 0x0, symName: __RNvXse_NtCslJiobkLta79_5alloc3vecINtB5_3VecTNtNtCsdGrGZaRBwMb_3syn8generics14TypeParamBoundNtNtBK_5token4PlusEENtNtNtNtCsieiGu2EXtoJ_4core4iter6traits7collect12IntoIterator9into_iterBK_, symObjAddr: 0x9490, symBinAddr: 0x42050, symSize: 0x140 }
  - { offset: 0x8905F, size: 0x8, addend: 0x0, symName: __RNvXsf_NtCslJiobkLta79_5alloc3vecRINtB5_3VecNtNtCsdGrGZaRBwMb_3syn4attr9AttributeENtNtNtNtCsieiGu2EXtoJ_4core4iter6traits7collect12IntoIterator9into_iterBK_, symObjAddr: 0x95D0, symBinAddr: 0x42190, symSize: 0x80 }
  - { offset: 0x8928C, size: 0x8, addend: 0x0, symName: __RNvXsf_NtCslJiobkLta79_5alloc3vecRINtB5_3VecNtNtCsdGrGZaRBwMb_3syn4item11ForeignItemENtNtNtNtCsieiGu2EXtoJ_4core4iter6traits7collect12IntoIterator9into_iterBK_, symObjAddr: 0x9650, symBinAddr: 0x42210, symSize: 0x80 }
  - { offset: 0x894B9, size: 0x8, addend: 0x0, symName: __RNvXsf_NtCslJiobkLta79_5alloc3vecRINtB5_3VecNtNtCsdGrGZaRBwMb_3syn4item4ItemENtNtNtNtCsieiGu2EXtoJ_4core4iter6traits7collect12IntoIterator9into_iterBK_, symObjAddr: 0x96D0, symBinAddr: 0x42290, symSize: 0x80 }
  - { offset: 0x896E6, size: 0x8, addend: 0x0, symName: __RNvXsf_NtCslJiobkLta79_5alloc3vecRINtB5_3VecNtNtCsdGrGZaRBwMb_3syn4item8ImplItemENtNtNtNtCsieiGu2EXtoJ_4core4iter6traits7collect12IntoIterator9into_iterBK_, symObjAddr: 0x9750, symBinAddr: 0x42310, symSize: 0x80 }
  - { offset: 0x89913, size: 0x8, addend: 0x0, symName: __RNvXsf_NtCslJiobkLta79_5alloc3vecRINtB5_3VecNtNtCsdGrGZaRBwMb_3syn4item9TraitItemENtNtNtNtCsieiGu2EXtoJ_4core4iter6traits7collect12IntoIterator9into_iterBK_, symObjAddr: 0x97D0, symBinAddr: 0x42390, symSize: 0x80 }
  - { offset: 0x89B40, size: 0x8, addend: 0x0, symName: __RNvXsf_NtCslJiobkLta79_5alloc3vecRINtB5_3VecNtNtCsdGrGZaRBwMb_3syn4stmt4StmtENtNtNtNtCsieiGu2EXtoJ_4core4iter6traits7collect12IntoIterator9into_iterBK_, symObjAddr: 0x9850, symBinAddr: 0x42410, symSize: 0x80 }
  - { offset: 0x89D6D, size: 0x8, addend: 0x0, symName: __RNvXsf_NtCslJiobkLta79_5alloc3vecRINtB5_3VecNtNtCsdGrGZaRBwMb_3syn5error12ErrorMessageENtNtNtNtCsieiGu2EXtoJ_4core4iter6traits7collect12IntoIterator9into_iterBK_, symObjAddr: 0x98D0, symBinAddr: 0x42490, symSize: 0x80 }
  - { offset: 0x89FA0, size: 0x8, addend: 0x0, symName: __RNvXsg_NtCslJiobkLta79_5alloc3vecQINtB5_3VechENtNtNtNtCsieiGu2EXtoJ_4core4iter6traits7collect12IntoIterator9into_iterCsdGrGZaRBwMb_3syn, symObjAddr: 0xA250, symBinAddr: 0x42510, symSize: 0x80 }
  - { offset: 0x8A1C7, size: 0x8, addend: 0x0, symName: __RNvXsn_NtCslJiobkLta79_5alloc3vecINtB5_3VecNtNtCsdGrGZaRBwMb_3syn4attr9AttributeENtNtNtCsieiGu2EXtoJ_4core3ops4drop4Drop4dropBJ_, symObjAddr: 0xA2D0, symBinAddr: 0x42590, symSize: 0x30 }
  - { offset: 0x8A277, size: 0x8, addend: 0x0, symName: __RNvXsn_NtCslJiobkLta79_5alloc3vecINtB5_3VecNtNtCsdGrGZaRBwMb_3syn4expr3ArmENtNtNtCsieiGu2EXtoJ_4core3ops4drop4Drop4dropBJ_, symObjAddr: 0xA330, symBinAddr: 0x425C0, symSize: 0x30 }
  - { offset: 0x8A327, size: 0x8, addend: 0x0, symName: __RNvXsn_NtCslJiobkLta79_5alloc3vecINtB5_3VecNtNtCsdGrGZaRBwMb_3syn4expr6ExprIfENtNtNtCsieiGu2EXtoJ_4core3ops4drop4Drop4dropBJ_, symObjAddr: 0xA360, symBinAddr: 0x425F0, symSize: 0x30 }
  - { offset: 0x8A3D7, size: 0x8, addend: 0x0, symName: __RNvXsn_NtCslJiobkLta79_5alloc3vecINtB5_3VecNtNtCsdGrGZaRBwMb_3syn4item11ForeignItemENtNtNtCsieiGu2EXtoJ_4core3ops4drop4Drop4dropBJ_, symObjAddr: 0xA390, symBinAddr: 0x42620, symSize: 0x30 }
  - { offset: 0x8A487, size: 0x8, addend: 0x0, symName: __RNvXsn_NtCslJiobkLta79_5alloc3vecINtB5_3VecNtNtCsdGrGZaRBwMb_3syn4item4ItemENtNtNtCsieiGu2EXtoJ_4core3ops4drop4Drop4dropBJ_, symObjAddr: 0xA3C0, symBinAddr: 0x42650, symSize: 0x30 }
  - { offset: 0x8A537, size: 0x8, addend: 0x0, symName: __RNvXsn_NtCslJiobkLta79_5alloc3vecINtB5_3VecNtNtCsdGrGZaRBwMb_3syn4item8ImplItemENtNtNtCsieiGu2EXtoJ_4core3ops4drop4Drop4dropBJ_, symObjAddr: 0xA3F0, symBinAddr: 0x42680, symSize: 0x30 }
  - { offset: 0x8A5E7, size: 0x8, addend: 0x0, symName: __RNvXsn_NtCslJiobkLta79_5alloc3vecINtB5_3VecNtNtCsdGrGZaRBwMb_3syn4item9TraitItemENtNtNtCsieiGu2EXtoJ_4core3ops4drop4Drop4dropBJ_, symObjAddr: 0xA420, symBinAddr: 0x426B0, symSize: 0x30 }
  - { offset: 0x8A697, size: 0x8, addend: 0x0, symName: __RNvXsn_NtCslJiobkLta79_5alloc3vecINtB5_3VecNtNtCsdGrGZaRBwMb_3syn4stmt4StmtENtNtNtCsieiGu2EXtoJ_4core3ops4drop4Drop4dropBJ_, symObjAddr: 0xA450, symBinAddr: 0x426E0, symSize: 0x30 }
  - { offset: 0x8A747, size: 0x8, addend: 0x0, symName: __RNvXsn_NtCslJiobkLta79_5alloc3vecINtB5_3VecNtNtCsdGrGZaRBwMb_3syn5error12ErrorMessageENtNtNtCsieiGu2EXtoJ_4core3ops4drop4Drop4dropBJ_, symObjAddr: 0xA480, symBinAddr: 0x42710, symSize: 0x30 }
  - { offset: 0x8A7F7, size: 0x8, addend: 0x0, symName: __RNvXsn_NtCslJiobkLta79_5alloc3vecINtB5_3VecNtNtCsdGrGZaRBwMb_3syn6buffer5EntryENtNtNtCsieiGu2EXtoJ_4core3ops4drop4Drop4dropBJ_, symObjAddr: 0xA4B0, symBinAddr: 0x42740, symSize: 0x30 }
  - { offset: 0x8A8A7, size: 0x8, addend: 0x0, symName: __RNvXsn_NtCslJiobkLta79_5alloc3vecINtB5_3VecNtNtCsdGrGZaRBwMb_3syn8generics14TypeParamBoundENtNtNtCsieiGu2EXtoJ_4core3ops4drop4Drop4dropBJ_, symObjAddr: 0xA4E0, symBinAddr: 0x42770, symSize: 0x30 }
  - { offset: 0x8A957, size: 0x8, addend: 0x0, symName: __RNvXsn_NtCslJiobkLta79_5alloc3vecINtB5_3VecReENtNtNtCsieiGu2EXtoJ_4core3ops4drop4Drop4dropCsdGrGZaRBwMb_3syn, symObjAddr: 0xA510, symBinAddr: 0x427A0, symSize: 0x20 }
  - { offset: 0x8AA07, size: 0x8, addend: 0x0, symName: __RNvXsn_NtCslJiobkLta79_5alloc3vecINtB5_3VecTNtNtCsdGrGZaRBwMb_3syn2ty4TypeNtNtBK_5token5CommaEENtNtNtCsieiGu2EXtoJ_4core3ops4drop4Drop4dropBK_, symObjAddr: 0xA530, symBinAddr: 0x427C0, symSize: 0x30 }
  - { offset: 0x8AAB7, size: 0x8, addend: 0x0, symName: __RNvXsn_NtCslJiobkLta79_5alloc3vecINtB5_3VecTNtNtCsdGrGZaRBwMb_3syn2ty9BareFnArgNtNtBK_5token5CommaEENtNtNtCsieiGu2EXtoJ_4core3ops4drop4Drop4dropBK_, symObjAddr: 0xA560, symBinAddr: 0x427F0, symSize: 0x30 }
  - { offset: 0x8AB67, size: 0x8, addend: 0x0, symName: __RNvXsn_NtCslJiobkLta79_5alloc3vecINtB5_3VecTNtNtCsdGrGZaRBwMb_3syn3pat3PatNtNtBK_5token2OrEENtNtNtCsieiGu2EXtoJ_4core3ops4drop4Drop4dropBK_, symObjAddr: 0xA590, symBinAddr: 0x42820, symSize: 0x30 }
  - { offset: 0x8AC17, size: 0x8, addend: 0x0, symName: __RNvXsn_NtCslJiobkLta79_5alloc3vecINtB5_3VecTNtNtCsdGrGZaRBwMb_3syn3pat3PatNtNtBK_5token5CommaEENtNtNtCsieiGu2EXtoJ_4core3ops4drop4Drop4dropBK_, symObjAddr: 0xA5C0, symBinAddr: 0x42850, symSize: 0x30 }
  - { offset: 0x8ACC7, size: 0x8, addend: 0x0, symName: __RNvXsn_NtCslJiobkLta79_5alloc3vecINtB5_3VecTNtNtCsdGrGZaRBwMb_3syn3pat8FieldPatNtNtBK_5token5CommaEENtNtNtCsieiGu2EXtoJ_4core3ops4drop4Drop4dropBK_, symObjAddr: 0xA5F0, symBinAddr: 0x42880, symSize: 0x30 }
  - { offset: 0x8AD77, size: 0x8, addend: 0x0, symName: __RNvXsn_NtCslJiobkLta79_5alloc3vecINtB5_3VecTNtNtCsdGrGZaRBwMb_3syn4data5FieldNtNtBK_5token5CommaEENtNtNtCsieiGu2EXtoJ_4core3ops4drop4Drop4dropBK_, symObjAddr: 0xA620, symBinAddr: 0x428B0, symSize: 0x30 }
  - { offset: 0x8AE27, size: 0x8, addend: 0x0, symName: __RNvXsn_NtCslJiobkLta79_5alloc3vecINtB5_3VecTNtNtCsdGrGZaRBwMb_3syn4data7VariantNtNtBK_5token5CommaEENtNtNtCsieiGu2EXtoJ_4core3ops4drop4Drop4dropBK_, symObjAddr: 0xA680, symBinAddr: 0x428E0, symSize: 0x30 }
  - { offset: 0x8AED7, size: 0x8, addend: 0x0, symName: __RNvXsn_NtCslJiobkLta79_5alloc3vecINtB5_3VecTNtNtCsdGrGZaRBwMb_3syn4expr10FieldValueNtNtBK_5token5CommaEENtNtNtCsieiGu2EXtoJ_4core3ops4drop4Drop4dropBK_, symObjAddr: 0xA6B0, symBinAddr: 0x42910, symSize: 0x30 }
  - { offset: 0x8AF87, size: 0x8, addend: 0x0, symName: __RNvXsn_NtCslJiobkLta79_5alloc3vecINtB5_3VecTNtNtCsdGrGZaRBwMb_3syn4expr4ExprNtNtBK_5token5CommaEENtNtNtCsieiGu2EXtoJ_4core3ops4drop4Drop4dropBK_, symObjAddr: 0xA6E0, symBinAddr: 0x42940, symSize: 0x30 }
  - { offset: 0x8B037, size: 0x8, addend: 0x0, symName: __RNvXsn_NtCslJiobkLta79_5alloc3vecINtB5_3VecTNtNtCsdGrGZaRBwMb_3syn4item5FnArgNtNtBK_5token5CommaEENtNtNtCsieiGu2EXtoJ_4core3ops4drop4Drop4dropBK_, symObjAddr: 0xA710, symBinAddr: 0x42970, symSize: 0x30 }
  - { offset: 0x8B0E7, size: 0x8, addend: 0x0, symName: __RNvXsn_NtCslJiobkLta79_5alloc3vecINtB5_3VecTNtNtCsdGrGZaRBwMb_3syn4item7UseTreeNtNtBK_5token5CommaEENtNtNtCsieiGu2EXtoJ_4core3ops4drop4Drop4dropBK_, symObjAddr: 0xA740, symBinAddr: 0x429A0, symSize: 0x30 }
  - { offset: 0x8B197, size: 0x8, addend: 0x0, symName: __RNvXsn_NtCslJiobkLta79_5alloc3vecINtB5_3VecTNtNtCsdGrGZaRBwMb_3syn4path11PathSegmentNtNtBK_5token7PathSepEENtNtNtCsieiGu2EXtoJ_4core3ops4drop4Drop4dropBK_, symObjAddr: 0xA770, symBinAddr: 0x429D0, symSize: 0x30 }
  - { offset: 0x8B247, size: 0x8, addend: 0x0, symName: __RNvXsn_NtCslJiobkLta79_5alloc3vecINtB5_3VecTNtNtCsdGrGZaRBwMb_3syn4path15GenericArgumentNtNtBK_5token5CommaEENtNtNtCsieiGu2EXtoJ_4core3ops4drop4Drop4dropBK_, symObjAddr: 0xA7A0, symBinAddr: 0x42A00, symSize: 0x30 }
  - { offset: 0x8B2F7, size: 0x8, addend: 0x0, symName: __RNvXsn_NtCslJiobkLta79_5alloc3vecINtB5_3VecTNtNtCsdGrGZaRBwMb_3syn8generics12GenericParamNtNtBK_5token5CommaEENtNtNtCsieiGu2EXtoJ_4core3ops4drop4Drop4dropBK_, symObjAddr: 0xA7D0, symBinAddr: 0x42A30, symSize: 0x30 }
  - { offset: 0x8B3A7, size: 0x8, addend: 0x0, symName: __RNvXsn_NtCslJiobkLta79_5alloc3vecINtB5_3VecTNtNtCsdGrGZaRBwMb_3syn8generics13CapturedParamNtNtBK_5token5CommaEENtNtNtCsieiGu2EXtoJ_4core3ops4drop4Drop4dropBK_, symObjAddr: 0xA800, symBinAddr: 0x42A60, symSize: 0x30 }
  - { offset: 0x8B457, size: 0x8, addend: 0x0, symName: __RNvXsn_NtCslJiobkLta79_5alloc3vecINtB5_3VecTNtNtCsdGrGZaRBwMb_3syn8generics14TypeParamBoundNtNtBK_5token4PlusEENtNtNtCsieiGu2EXtoJ_4core3ops4drop4Drop4dropBK_, symObjAddr: 0xA830, symBinAddr: 0x42A90, symSize: 0x30 }
  - { offset: 0x8B507, size: 0x8, addend: 0x0, symName: __RNvXsn_NtCslJiobkLta79_5alloc3vecINtB5_3VecTNtNtCsdGrGZaRBwMb_3syn8generics14WherePredicateNtNtBK_5token5CommaEENtNtNtCsieiGu2EXtoJ_4core3ops4drop4Drop4dropBK_, symObjAddr: 0xA860, symBinAddr: 0x42AC0, symSize: 0x30 }
  - { offset: 0x8B5B7, size: 0x8, addend: 0x0, symName: __RNvXsn_NtCslJiobkLta79_5alloc3vecINtB5_3VecTNtNtCsdGrGZaRBwMb_3syn8lifetime8LifetimeNtNtBK_5token4PlusEENtNtNtCsieiGu2EXtoJ_4core3ops4drop4Drop4dropBK_, symObjAddr: 0xA890, symBinAddr: 0x42AF0, symSize: 0x30 }
  - { offset: 0x8B66D, size: 0x8, addend: 0x0, symName: __RNvXsp_NtCslJiobkLta79_5alloc3vecINtB5_3VecNtNtCsdGrGZaRBwMb_3syn5error12ErrorMessageENtNtCsieiGu2EXtoJ_4core3fmt5Debug3fmtBJ_, symObjAddr: 0xABD0, symBinAddr: 0x42B20, symSize: 0x70 }
  - { offset: 0x8B77D, size: 0x8, addend: 0x0, symName: __RNvXsp_NtCslJiobkLta79_5alloc3vecINtB5_3VechENtNtCsieiGu2EXtoJ_4core3fmt5Debug3fmtCsdGrGZaRBwMb_3syn, symObjAddr: 0xAC40, symBinAddr: 0x42B90, symSize: 0x70 }
  - { offset: 0x8DC10, size: 0x8, addend: 0x0, symName: __RNvXsR_NtCslJiobkLta79_5alloc6stringINtNtB7_3vec3VechEINtNtCsieiGu2EXtoJ_4core7convert4FromNtB5_6StringE4fromCsdGrGZaRBwMb_3syn, symObjAddr: 0x87E0, symBinAddr: 0x418A0, symSize: 0x20 }
  - { offset: 0x8DE52, size: 0x8, addend: 0x0, symName: __RNvXNvMs_NtNtCslJiobkLta79_5alloc3ffi5c_strNtB7_7CString3newINtNtBb_3vec3VechENtB2_11SpecNewImpl13spec_new_implCsdGrGZaRBwMb_3syn, symObjAddr: 0x7070, symBinAddr: 0x40470, symSize: 0x200 }
  - { offset: 0x93584, size: 0x8, addend: 0x0, symName: __RINvMs_NtCslJiobkLta79_5alloc3vecINtB5_3VecReE10retain_mutNCNvMNtCsdGrGZaRBwMb_3syn9lookaheadNtBZ_10Lookahead15error0EB11_, symObjAddr: 0x0, symBinAddr: 0x3AD00, symSize: 0x160 }
  - { offset: 0x93CE3, size: 0x8, addend: 0x0, symName: __RNvMNtCslJiobkLta79_5alloc3vecINtB2_3VecNtNtCsdGrGZaRBwMb_3syn4attr9AttributeE3newBG_, symObjAddr: 0x3C0, symBinAddr: 0x3B080, symSize: 0x30 }
  - { offset: 0x93D2B, size: 0x8, addend: 0x0, symName: __RNvMNtCslJiobkLta79_5alloc3vecINtB2_3VecNtNtCsdGrGZaRBwMb_3syn4expr3ArmE3newBG_, symObjAddr: 0x450, symBinAddr: 0x3B0B0, symSize: 0x30 }
  - { offset: 0x93D48, size: 0x8, addend: 0x0, symName: __RNvMNtCslJiobkLta79_5alloc3vecINtB2_3VecNtNtCsdGrGZaRBwMb_3syn4expr6ExprIfE3newBG_, symObjAddr: 0x480, symBinAddr: 0x3B0E0, symSize: 0x30 }
  - { offset: 0x93D65, size: 0x8, addend: 0x0, symName: __RNvMNtCslJiobkLta79_5alloc3vecINtB2_3VecNtNtCsdGrGZaRBwMb_3syn4item11ForeignItemE3newBG_, symObjAddr: 0x4B0, symBinAddr: 0x3B110, symSize: 0x30 }
  - { offset: 0x93D82, size: 0x8, addend: 0x0, symName: __RNvMNtCslJiobkLta79_5alloc3vecINtB2_3VecNtNtCsdGrGZaRBwMb_3syn4item4ItemE3newBG_, symObjAddr: 0x4E0, symBinAddr: 0x3B140, symSize: 0x30 }
  - { offset: 0x93D9F, size: 0x8, addend: 0x0, symName: __RNvMNtCslJiobkLta79_5alloc3vecINtB2_3VecNtNtCsdGrGZaRBwMb_3syn4item8ImplItemE3newBG_, symObjAddr: 0x510, symBinAddr: 0x3B170, symSize: 0x30 }
  - { offset: 0x93DBC, size: 0x8, addend: 0x0, symName: __RNvMNtCslJiobkLta79_5alloc3vecINtB2_3VecNtNtCsdGrGZaRBwMb_3syn4item9TraitItemE3newBG_, symObjAddr: 0x540, symBinAddr: 0x3B1A0, symSize: 0x30 }
  - { offset: 0x93DD9, size: 0x8, addend: 0x0, symName: __RNvMNtCslJiobkLta79_5alloc3vecINtB2_3VecNtNtCsdGrGZaRBwMb_3syn4stmt4StmtE3newBG_, symObjAddr: 0x570, symBinAddr: 0x3B1D0, symSize: 0x30 }
  - { offset: 0x93DF6, size: 0x8, addend: 0x0, symName: __RNvMNtCslJiobkLta79_5alloc3vecINtB2_3VecNtNtCsdGrGZaRBwMb_3syn6buffer5EntryE3newBG_, symObjAddr: 0x5A0, symBinAddr: 0x3B200, symSize: 0x30 }
  - { offset: 0x93E75, size: 0x8, addend: 0x0, symName: __RNvMNtCslJiobkLta79_5alloc3vecINtB2_3VecNtNtCsdGrGZaRBwMb_3syn8generics14TypeParamBoundE13with_capacityBG_, symObjAddr: 0x5D0, symBinAddr: 0x3B230, symSize: 0x60 }
  - { offset: 0x93EED, size: 0x8, addend: 0x0, symName: __RNvMNtCslJiobkLta79_5alloc3vecINtB2_3VecReE3newCsdGrGZaRBwMb_3syn, symObjAddr: 0x630, symBinAddr: 0x3B290, symSize: 0x30 }
  - { offset: 0x93F0A, size: 0x8, addend: 0x0, symName: __RNvMNtCslJiobkLta79_5alloc3vecINtB2_3VecTNtNtCsdGrGZaRBwMb_3syn2ty4TypeNtNtBH_5token5CommaEE3newBH_, symObjAddr: 0x660, symBinAddr: 0x3B2C0, symSize: 0x30 }
  - { offset: 0x93F27, size: 0x8, addend: 0x0, symName: __RNvMNtCslJiobkLta79_5alloc3vecINtB2_3VecTNtNtCsdGrGZaRBwMb_3syn2ty9BareFnArgNtNtBH_5token5CommaEE3newBH_, symObjAddr: 0x690, symBinAddr: 0x3B2F0, symSize: 0x30 }
  - { offset: 0x93F44, size: 0x8, addend: 0x0, symName: __RNvMNtCslJiobkLta79_5alloc3vecINtB2_3VecTNtNtCsdGrGZaRBwMb_3syn3pat3PatNtNtBH_5token2OrEE3newBH_, symObjAddr: 0x6C0, symBinAddr: 0x3B320, symSize: 0x30 }
  - { offset: 0x93F61, size: 0x8, addend: 0x0, symName: __RNvMNtCslJiobkLta79_5alloc3vecINtB2_3VecTNtNtCsdGrGZaRBwMb_3syn3pat3PatNtNtBH_5token5CommaEE3newBH_, symObjAddr: 0x6F0, symBinAddr: 0x3B350, symSize: 0x30 }
  - { offset: 0x93F7E, size: 0x8, addend: 0x0, symName: __RNvMNtCslJiobkLta79_5alloc3vecINtB2_3VecTNtNtCsdGrGZaRBwMb_3syn3pat8FieldPatNtNtBH_5token5CommaEE3newBH_, symObjAddr: 0x720, symBinAddr: 0x3B380, symSize: 0x30 }
  - { offset: 0x93F9B, size: 0x8, addend: 0x0, symName: __RNvMNtCslJiobkLta79_5alloc3vecINtB2_3VecTNtNtCsdGrGZaRBwMb_3syn4data5FieldNtNtBH_5token5CommaEE3newBH_, symObjAddr: 0x750, symBinAddr: 0x3B3B0, symSize: 0x30 }
  - { offset: 0x93FD8, size: 0x8, addend: 0x0, symName: __RNvMNtCslJiobkLta79_5alloc3vecINtB2_3VecTNtNtCsdGrGZaRBwMb_3syn4data7VariantNtNtBH_5token5CommaEE3newBH_, symObjAddr: 0x7B0, symBinAddr: 0x3B3E0, symSize: 0x30 }
  - { offset: 0x93FF5, size: 0x8, addend: 0x0, symName: __RNvMNtCslJiobkLta79_5alloc3vecINtB2_3VecTNtNtCsdGrGZaRBwMb_3syn4expr10FieldValueNtNtBH_5token5CommaEE3newBH_, symObjAddr: 0x7E0, symBinAddr: 0x3B410, symSize: 0x30 }
  - { offset: 0x94012, size: 0x8, addend: 0x0, symName: __RNvMNtCslJiobkLta79_5alloc3vecINtB2_3VecTNtNtCsdGrGZaRBwMb_3syn4expr4ExprNtNtBH_5token5CommaEE3newBH_, symObjAddr: 0x810, symBinAddr: 0x3B440, symSize: 0x30 }
  - { offset: 0x9402F, size: 0x8, addend: 0x0, symName: __RNvMNtCslJiobkLta79_5alloc3vecINtB2_3VecTNtNtCsdGrGZaRBwMb_3syn4item5FnArgNtNtBH_5token5CommaEE3newBH_, symObjAddr: 0x840, symBinAddr: 0x3B470, symSize: 0x30 }
  - { offset: 0x9404C, size: 0x8, addend: 0x0, symName: __RNvMNtCslJiobkLta79_5alloc3vecINtB2_3VecTNtNtCsdGrGZaRBwMb_3syn4item7UseTreeNtNtBH_5token5CommaEE3newBH_, symObjAddr: 0x870, symBinAddr: 0x3B4A0, symSize: 0x30 }
  - { offset: 0x94069, size: 0x8, addend: 0x0, symName: __RNvMNtCslJiobkLta79_5alloc3vecINtB2_3VecTNtNtCsdGrGZaRBwMb_3syn4path11PathSegmentNtNtBH_5token7PathSepEE3newBH_, symObjAddr: 0x8A0, symBinAddr: 0x3B4D0, symSize: 0x30 }
  - { offset: 0x94086, size: 0x8, addend: 0x0, symName: __RNvMNtCslJiobkLta79_5alloc3vecINtB2_3VecTNtNtCsdGrGZaRBwMb_3syn4path15GenericArgumentNtNtBH_5token5CommaEE3newBH_, symObjAddr: 0x8D0, symBinAddr: 0x3B500, symSize: 0x30 }
  - { offset: 0x940A3, size: 0x8, addend: 0x0, symName: __RNvMNtCslJiobkLta79_5alloc3vecINtB2_3VecTNtNtCsdGrGZaRBwMb_3syn8generics12GenericParamNtNtBH_5token5CommaEE3newBH_, symObjAddr: 0x900, symBinAddr: 0x3B530, symSize: 0x30 }
  - { offset: 0x940C0, size: 0x8, addend: 0x0, symName: __RNvMNtCslJiobkLta79_5alloc3vecINtB2_3VecTNtNtCsdGrGZaRBwMb_3syn8generics13CapturedParamNtNtBH_5token5CommaEE3newBH_, symObjAddr: 0x930, symBinAddr: 0x3B560, symSize: 0x30 }
  - { offset: 0x940DD, size: 0x8, addend: 0x0, symName: __RNvMNtCslJiobkLta79_5alloc3vecINtB2_3VecTNtNtCsdGrGZaRBwMb_3syn8generics14TypeParamBoundNtNtBH_5token4PlusEE3newBH_, symObjAddr: 0x960, symBinAddr: 0x3B590, symSize: 0x30 }
  - { offset: 0x940FA, size: 0x8, addend: 0x0, symName: __RNvMNtCslJiobkLta79_5alloc3vecINtB2_3VecTNtNtCsdGrGZaRBwMb_3syn8generics14WherePredicateNtNtBH_5token5CommaEE3newBH_, symObjAddr: 0x990, symBinAddr: 0x3B5C0, symSize: 0x30 }
  - { offset: 0x94117, size: 0x8, addend: 0x0, symName: __RNvMNtCslJiobkLta79_5alloc3vecINtB2_3VecTNtNtCsdGrGZaRBwMb_3syn8lifetime8LifetimeNtNtBH_5token4PlusEE3newBH_, symObjAddr: 0x9C0, symBinAddr: 0x3B5F0, symSize: 0x30 }
  - { offset: 0x94134, size: 0x8, addend: 0x0, symName: __RNvMNtCslJiobkLta79_5alloc3vecINtB2_3VechE3newCsdGrGZaRBwMb_3syn, symObjAddr: 0x9F0, symBinAddr: 0x3B620, symSize: 0x30 }
  - { offset: 0x94257, size: 0x8, addend: 0x0, symName: __RNvMs0_NtCslJiobkLta79_5alloc3vecINtB5_3VechE17extend_from_sliceCsdGrGZaRBwMb_3syn, symObjAddr: 0xA20, symBinAddr: 0x3B650, symSize: 0x70 }
  - { offset: 0x944CE, size: 0x8, addend: 0x0, symName: __RNvMs0_NtCslJiobkLta79_5alloc3vecINtB5_3VechE6resizeCsdGrGZaRBwMb_3syn, symObjAddr: 0xA90, symBinAddr: 0x3B6C0, symSize: 0xE0 }
  - { offset: 0x94795, size: 0x8, addend: 0x0, symName: __RNvMs2_NtCslJiobkLta79_5alloc3vecINtB5_3VechE11extend_withCsdGrGZaRBwMb_3syn, symObjAddr: 0xB70, symBinAddr: 0x3B7A0, symSize: 0x280 }
  - { offset: 0x94B86, size: 0x8, addend: 0x0, symName: __RNvMs_NtCslJiobkLta79_5alloc3vecINtB4_3VecNtNtCsdGrGZaRBwMb_3syn4attr9AttributeE15append_elementsBI_, symObjAddr: 0xDF0, symBinAddr: 0x3BA20, symSize: 0xC0 }
  - { offset: 0x94D28, size: 0x8, addend: 0x0, symName: __RNvMs_NtCslJiobkLta79_5alloc3vecINtB4_3VecNtNtCsdGrGZaRBwMb_3syn4attr9AttributeE4pushBI_, symObjAddr: 0xEB0, symBinAddr: 0x3BAE0, symSize: 0x20 }
  - { offset: 0x94ED6, size: 0x8, addend: 0x0, symName: __RNvMs_NtCslJiobkLta79_5alloc3vecINtB4_3VecNtNtCsdGrGZaRBwMb_3syn4attr9AttributeE6appendBI_, symObjAddr: 0xED0, symBinAddr: 0x3BB00, symSize: 0xC0 }
  - { offset: 0x951A1, size: 0x8, addend: 0x0, symName: __RNvMs_NtCslJiobkLta79_5alloc3vecINtB4_3VecNtNtCsdGrGZaRBwMb_3syn4attr9AttributeE7reserveBI_, symObjAddr: 0xF90, symBinAddr: 0x3BBC0, symSize: 0xB0 }
  - { offset: 0x95392, size: 0x8, addend: 0x0, symName: __RNvMs_NtCslJiobkLta79_5alloc3vecINtB4_3VecNtNtCsdGrGZaRBwMb_3syn4attr9AttributeE7set_lenBI_, symObjAddr: 0x1040, symBinAddr: 0x3BC70, symSize: 0x70 }
  - { offset: 0x954DB, size: 0x8, addend: 0x0, symName: __RNvMs_NtCslJiobkLta79_5alloc3vecINtB4_3VecNtNtCsdGrGZaRBwMb_3syn4attr9AttributeE8as_sliceBI_, symObjAddr: 0x10B0, symBinAddr: 0x3BCE0, symSize: 0x50 }
  - { offset: 0x955BA, size: 0x8, addend: 0x0, symName: __RNvMs_NtCslJiobkLta79_5alloc3vecINtB4_3VecNtNtCsdGrGZaRBwMb_3syn4attr9AttributeE8is_emptyBI_, symObjAddr: 0x1100, symBinAddr: 0x3BD30, symSize: 0x20 }
  - { offset: 0x956F9, size: 0x8, addend: 0x0, symName: __RNvMs_NtCslJiobkLta79_5alloc3vecINtB4_3VecNtNtCsdGrGZaRBwMb_3syn4attr9AttributeE8push_mutBI_, symObjAddr: 0x1120, symBinAddr: 0x3BD50, symSize: 0x130 }
  - { offset: 0x958D5, size: 0x8, addend: 0x0, symName: __RNvMs_NtCslJiobkLta79_5alloc3vecINtB4_3VecNtNtCsdGrGZaRBwMb_3syn4expr3ArmE3lenBI_, symObjAddr: 0x13B0, symBinAddr: 0x3BE80, symSize: 0x10 }
  - { offset: 0x95917, size: 0x8, addend: 0x0, symName: __RNvMs_NtCslJiobkLta79_5alloc3vecINtB4_3VecNtNtCsdGrGZaRBwMb_3syn4expr3ArmE4pushBI_, symObjAddr: 0x13C0, symBinAddr: 0x3BE90, symSize: 0x20 }
  - { offset: 0x959ED, size: 0x8, addend: 0x0, symName: __RNvMs_NtCslJiobkLta79_5alloc3vecINtB4_3VecNtNtCsdGrGZaRBwMb_3syn4expr3ArmE7set_lenBI_, symObjAddr: 0x13E0, symBinAddr: 0x3BEB0, symSize: 0x70 }
  - { offset: 0x95B77, size: 0x8, addend: 0x0, symName: __RNvMs_NtCslJiobkLta79_5alloc3vecINtB4_3VecNtNtCsdGrGZaRBwMb_3syn4expr3ArmE8as_sliceBI_, symObjAddr: 0x1450, symBinAddr: 0x3BF20, symSize: 0x50 }
  - { offset: 0x95D1D, size: 0x8, addend: 0x0, symName: __RNvMs_NtCslJiobkLta79_5alloc3vecINtB4_3VecNtNtCsdGrGZaRBwMb_3syn4expr3ArmE8push_mutBI_, symObjAddr: 0x14A0, symBinAddr: 0x3BF70, symSize: 0x140 }
  - { offset: 0x9602C, size: 0x8, addend: 0x0, symName: __RNvMs_NtCslJiobkLta79_5alloc3vecINtB4_3VecNtNtCsdGrGZaRBwMb_3syn4expr6ExprIfE3popBI_, symObjAddr: 0x15E0, symBinAddr: 0x3C0B0, symSize: 0x120 }
  - { offset: 0x961C1, size: 0x8, addend: 0x0, symName: __RNvMs_NtCslJiobkLta79_5alloc3vecINtB4_3VecNtNtCsdGrGZaRBwMb_3syn4expr6ExprIfE4pushBI_, symObjAddr: 0x1700, symBinAddr: 0x3C1D0, symSize: 0x20 }
  - { offset: 0x962F2, size: 0x8, addend: 0x0, symName: __RNvMs_NtCslJiobkLta79_5alloc3vecINtB4_3VecNtNtCsdGrGZaRBwMb_3syn4expr6ExprIfE8push_mutBI_, symObjAddr: 0x1720, symBinAddr: 0x3C1F0, symSize: 0x130 }
  - { offset: 0x964B4, size: 0x8, addend: 0x0, symName: __RNvMs_NtCslJiobkLta79_5alloc3vecINtB4_3VecNtNtCsdGrGZaRBwMb_3syn4item11ForeignItemE4pushBI_, symObjAddr: 0x1850, symBinAddr: 0x3C320, symSize: 0x20 }
  - { offset: 0x96597, size: 0x8, addend: 0x0, symName: __RNvMs_NtCslJiobkLta79_5alloc3vecINtB4_3VecNtNtCsdGrGZaRBwMb_3syn4item11ForeignItemE7set_lenBI_, symObjAddr: 0x1870, symBinAddr: 0x3C340, symSize: 0x70 }
  - { offset: 0x96776, size: 0x8, addend: 0x0, symName: __RNvMs_NtCslJiobkLta79_5alloc3vecINtB4_3VecNtNtCsdGrGZaRBwMb_3syn4item11ForeignItemE8push_mutBI_, symObjAddr: 0x18E0, symBinAddr: 0x3C3B0, symSize: 0x140 }
  - { offset: 0x96938, size: 0x8, addend: 0x0, symName: __RNvMs_NtCslJiobkLta79_5alloc3vecINtB4_3VecNtNtCsdGrGZaRBwMb_3syn4item4ItemE4pushBI_, symObjAddr: 0x1A20, symBinAddr: 0x3C4F0, symSize: 0x20 }
  - { offset: 0x96A1B, size: 0x8, addend: 0x0, symName: __RNvMs_NtCslJiobkLta79_5alloc3vecINtB4_3VecNtNtCsdGrGZaRBwMb_3syn4item4ItemE7set_lenBI_, symObjAddr: 0x1A40, symBinAddr: 0x3C510, symSize: 0x70 }
  - { offset: 0x96BFA, size: 0x8, addend: 0x0, symName: __RNvMs_NtCslJiobkLta79_5alloc3vecINtB4_3VecNtNtCsdGrGZaRBwMb_3syn4item4ItemE8push_mutBI_, symObjAddr: 0x1AB0, symBinAddr: 0x3C580, symSize: 0x140 }
  - { offset: 0x96DBC, size: 0x8, addend: 0x0, symName: __RNvMs_NtCslJiobkLta79_5alloc3vecINtB4_3VecNtNtCsdGrGZaRBwMb_3syn4item8ImplItemE4pushBI_, symObjAddr: 0x1BF0, symBinAddr: 0x3C6C0, symSize: 0x20 }
  - { offset: 0x96E9F, size: 0x8, addend: 0x0, symName: __RNvMs_NtCslJiobkLta79_5alloc3vecINtB4_3VecNtNtCsdGrGZaRBwMb_3syn4item8ImplItemE7set_lenBI_, symObjAddr: 0x1C10, symBinAddr: 0x3C6E0, symSize: 0x70 }
  - { offset: 0x9707E, size: 0x8, addend: 0x0, symName: __RNvMs_NtCslJiobkLta79_5alloc3vecINtB4_3VecNtNtCsdGrGZaRBwMb_3syn4item8ImplItemE8push_mutBI_, symObjAddr: 0x1C80, symBinAddr: 0x3C750, symSize: 0x140 }
  - { offset: 0x97240, size: 0x8, addend: 0x0, symName: __RNvMs_NtCslJiobkLta79_5alloc3vecINtB4_3VecNtNtCsdGrGZaRBwMb_3syn4item9TraitItemE4pushBI_, symObjAddr: 0x1DC0, symBinAddr: 0x3C890, symSize: 0x20 }
  - { offset: 0x97323, size: 0x8, addend: 0x0, symName: __RNvMs_NtCslJiobkLta79_5alloc3vecINtB4_3VecNtNtCsdGrGZaRBwMb_3syn4item9TraitItemE7set_lenBI_, symObjAddr: 0x1DE0, symBinAddr: 0x3C8B0, symSize: 0x70 }
  - { offset: 0x97502, size: 0x8, addend: 0x0, symName: __RNvMs_NtCslJiobkLta79_5alloc3vecINtB4_3VecNtNtCsdGrGZaRBwMb_3syn4item9TraitItemE8push_mutBI_, symObjAddr: 0x1E50, symBinAddr: 0x3C920, symSize: 0x140 }
  - { offset: 0x976C4, size: 0x8, addend: 0x0, symName: __RNvMs_NtCslJiobkLta79_5alloc3vecINtB4_3VecNtNtCsdGrGZaRBwMb_3syn4stmt4StmtE4pushBI_, symObjAddr: 0x1F90, symBinAddr: 0x3CA60, symSize: 0x20 }
  - { offset: 0x977A7, size: 0x8, addend: 0x0, symName: __RNvMs_NtCslJiobkLta79_5alloc3vecINtB4_3VecNtNtCsdGrGZaRBwMb_3syn4stmt4StmtE7set_lenBI_, symObjAddr: 0x1FB0, symBinAddr: 0x3CA80, symSize: 0x70 }
  - { offset: 0x97986, size: 0x8, addend: 0x0, symName: __RNvMs_NtCslJiobkLta79_5alloc3vecINtB4_3VecNtNtCsdGrGZaRBwMb_3syn4stmt4StmtE8push_mutBI_, symObjAddr: 0x2020, symBinAddr: 0x3CAF0, symSize: 0x140 }
  - { offset: 0x97C98, size: 0x8, addend: 0x0, symName: __RNvMs_NtCslJiobkLta79_5alloc3vecINtB4_3VecNtNtCsdGrGZaRBwMb_3syn5error12ErrorMessageE17from_raw_parts_inBI_, symObjAddr: 0x2220, symBinAddr: 0x3CC30, symSize: 0xA0 }
  - { offset: 0x97E1F, size: 0x8, addend: 0x0, symName: __RNvMs_NtCslJiobkLta79_5alloc3vecINtB4_3VecNtNtCsdGrGZaRBwMb_3syn5error12ErrorMessageE3lenBI_, symObjAddr: 0x22C0, symBinAddr: 0x3CCD0, symSize: 0x10 }
  - { offset: 0x97EE5, size: 0x8, addend: 0x0, symName: __RNvMs_NtCslJiobkLta79_5alloc3vecINtB4_3VecNtNtCsdGrGZaRBwMb_3syn5error12ErrorMessageE7set_lenBI_, symObjAddr: 0x2380, symBinAddr: 0x3CCE0, symSize: 0x70 }
  - { offset: 0x98109, size: 0x8, addend: 0x0, symName: __RNvMs_NtCslJiobkLta79_5alloc3vecINtB4_3VecNtNtCsdGrGZaRBwMb_3syn6buffer5EntryE13shrink_to_fitBI_, symObjAddr: 0x2440, symBinAddr: 0x3CD50, symSize: 0xE0 }
  - { offset: 0x98383, size: 0x8, addend: 0x0, symName: __RNvMs_NtCslJiobkLta79_5alloc3vecINtB4_3VecNtNtCsdGrGZaRBwMb_3syn6buffer5EntryE16into_boxed_sliceBI_, symObjAddr: 0x2520, symBinAddr: 0x3CE30, symSize: 0x160 }
  - { offset: 0x98553, size: 0x8, addend: 0x0, symName: __RNvMs_NtCslJiobkLta79_5alloc3vecINtB4_3VecNtNtCsdGrGZaRBwMb_3syn6buffer5EntryE3lenBI_, symObjAddr: 0x2680, symBinAddr: 0x3CF90, symSize: 0x10 }
  - { offset: 0x98588, size: 0x8, addend: 0x0, symName: __RNvMs_NtCslJiobkLta79_5alloc3vecINtB4_3VecNtNtCsdGrGZaRBwMb_3syn6buffer5EntryE4pushBI_, symObjAddr: 0x2690, symBinAddr: 0x3CFA0, symSize: 0x20 }
  - { offset: 0x986C6, size: 0x8, addend: 0x0, symName: __RNvMs_NtCslJiobkLta79_5alloc3vecINtB4_3VecNtNtCsdGrGZaRBwMb_3syn6buffer5EntryE8push_mutBI_, symObjAddr: 0x26B0, symBinAddr: 0x3CFC0, symSize: 0x120 }
  - { offset: 0x98888, size: 0x8, addend: 0x0, symName: __RNvMs_NtCslJiobkLta79_5alloc3vecINtB4_3VecNtNtCsdGrGZaRBwMb_3syn8generics14TypeParamBoundE4pushBI_, symObjAddr: 0x27D0, symBinAddr: 0x3D0E0, symSize: 0x20 }
  - { offset: 0x989E0, size: 0x8, addend: 0x0, symName: __RNvMs_NtCslJiobkLta79_5alloc3vecINtB4_3VecNtNtCsdGrGZaRBwMb_3syn8generics14TypeParamBoundE8push_mutBI_, symObjAddr: 0x27F0, symBinAddr: 0x3D100, symSize: 0x130 }
  - { offset: 0x98B95, size: 0x8, addend: 0x0, symName: __RNvMs_NtCslJiobkLta79_5alloc3vecINtB4_3VecReE3lenCsdGrGZaRBwMb_3syn, symObjAddr: 0x2920, symBinAddr: 0x3D230, symSize: 0x10 }
  - { offset: 0x98BCA, size: 0x8, addend: 0x0, symName: __RNvMs_NtCslJiobkLta79_5alloc3vecINtB4_3VecReE4pushCsdGrGZaRBwMb_3syn, symObjAddr: 0x2930, symBinAddr: 0x3D240, symSize: 0x20 }
  - { offset: 0x98CA5, size: 0x8, addend: 0x0, symName: __RNvMs_NtCslJiobkLta79_5alloc3vecINtB4_3VecReE8as_sliceCsdGrGZaRBwMb_3syn, symObjAddr: 0x2950, symBinAddr: 0x3D260, symSize: 0x50 }
  - { offset: 0x98E3E, size: 0x8, addend: 0x0, symName: __RNvMs_NtCslJiobkLta79_5alloc3vecINtB4_3VecReE8push_mutCsdGrGZaRBwMb_3syn, symObjAddr: 0x29A0, symBinAddr: 0x3D2B0, symSize: 0xF0 }
  - { offset: 0x99001, size: 0x8, addend: 0x0, symName: __RNvMs_NtCslJiobkLta79_5alloc3vecINtB4_3VecTNtNtCsdGrGZaRBwMb_3syn2ty4TypeNtNtBJ_5token5CommaEE3lenBJ_, symObjAddr: 0x2A90, symBinAddr: 0x3D3A0, symSize: 0x10 }
  - { offset: 0x99043, size: 0x8, addend: 0x0, symName: __RNvMs_NtCslJiobkLta79_5alloc3vecINtB4_3VecTNtNtCsdGrGZaRBwMb_3syn2ty4TypeNtNtBJ_5token5CommaEE4pushBJ_, symObjAddr: 0x2AA0, symBinAddr: 0x3D3B0, symSize: 0x20 }
  - { offset: 0x99119, size: 0x8, addend: 0x0, symName: __RNvMs_NtCslJiobkLta79_5alloc3vecINtB4_3VecTNtNtCsdGrGZaRBwMb_3syn2ty4TypeNtNtBJ_5token5CommaEE7set_lenBJ_, symObjAddr: 0x2AC0, symBinAddr: 0x3D3D0, symSize: 0x70 }
  - { offset: 0x992A3, size: 0x8, addend: 0x0, symName: __RNvMs_NtCslJiobkLta79_5alloc3vecINtB4_3VecTNtNtCsdGrGZaRBwMb_3syn2ty4TypeNtNtBJ_5token5CommaEE8as_sliceBJ_, symObjAddr: 0x2B30, symBinAddr: 0x3D440, symSize: 0x50 }
  - { offset: 0x99449, size: 0x8, addend: 0x0, symName: __RNvMs_NtCslJiobkLta79_5alloc3vecINtB4_3VecTNtNtCsdGrGZaRBwMb_3syn2ty4TypeNtNtBJ_5token5CommaEE8push_mutBJ_, symObjAddr: 0x2B80, symBinAddr: 0x3D490, symSize: 0x140 }
  - { offset: 0x9960B, size: 0x8, addend: 0x0, symName: __RNvMs_NtCslJiobkLta79_5alloc3vecINtB4_3VecTNtNtCsdGrGZaRBwMb_3syn2ty9BareFnArgNtNtBJ_5token5CommaEE3lenBJ_, symObjAddr: 0x2CC0, symBinAddr: 0x3D5D0, symSize: 0x10 }
  - { offset: 0x9964D, size: 0x8, addend: 0x0, symName: __RNvMs_NtCslJiobkLta79_5alloc3vecINtB4_3VecTNtNtCsdGrGZaRBwMb_3syn2ty9BareFnArgNtNtBJ_5token5CommaEE4pushBJ_, symObjAddr: 0x2CD0, symBinAddr: 0x3D5E0, symSize: 0x20 }
  - { offset: 0x99723, size: 0x8, addend: 0x0, symName: __RNvMs_NtCslJiobkLta79_5alloc3vecINtB4_3VecTNtNtCsdGrGZaRBwMb_3syn2ty9BareFnArgNtNtBJ_5token5CommaEE7set_lenBJ_, symObjAddr: 0x2CF0, symBinAddr: 0x3D600, symSize: 0x70 }
  - { offset: 0x998AD, size: 0x8, addend: 0x0, symName: __RNvMs_NtCslJiobkLta79_5alloc3vecINtB4_3VecTNtNtCsdGrGZaRBwMb_3syn2ty9BareFnArgNtNtBJ_5token5CommaEE8as_sliceBJ_, symObjAddr: 0x2D60, symBinAddr: 0x3D670, symSize: 0x50 }
  - { offset: 0x99A53, size: 0x8, addend: 0x0, symName: __RNvMs_NtCslJiobkLta79_5alloc3vecINtB4_3VecTNtNtCsdGrGZaRBwMb_3syn2ty9BareFnArgNtNtBJ_5token5CommaEE8push_mutBJ_, symObjAddr: 0x2DB0, symBinAddr: 0x3D6C0, symSize: 0x140 }
  - { offset: 0x99C15, size: 0x8, addend: 0x0, symName: __RNvMs_NtCslJiobkLta79_5alloc3vecINtB4_3VecTNtNtCsdGrGZaRBwMb_3syn3pat3PatNtNtBJ_5token2OrEE4pushBJ_, symObjAddr: 0x2EF0, symBinAddr: 0x3D800, symSize: 0x20 }
  - { offset: 0x99CF8, size: 0x8, addend: 0x0, symName: __RNvMs_NtCslJiobkLta79_5alloc3vecINtB4_3VecTNtNtCsdGrGZaRBwMb_3syn3pat3PatNtNtBJ_5token2OrEE7set_lenBJ_, symObjAddr: 0x2F10, symBinAddr: 0x3D820, symSize: 0x70 }
  - { offset: 0x99E82, size: 0x8, addend: 0x0, symName: __RNvMs_NtCslJiobkLta79_5alloc3vecINtB4_3VecTNtNtCsdGrGZaRBwMb_3syn3pat3PatNtNtBJ_5token2OrEE8as_sliceBJ_, symObjAddr: 0x2F80, symBinAddr: 0x3D890, symSize: 0x50 }
  - { offset: 0x9A028, size: 0x8, addend: 0x0, symName: __RNvMs_NtCslJiobkLta79_5alloc3vecINtB4_3VecTNtNtCsdGrGZaRBwMb_3syn3pat3PatNtNtBJ_5token2OrEE8push_mutBJ_, symObjAddr: 0x2FD0, symBinAddr: 0x3D8E0, symSize: 0x140 }
  - { offset: 0x9A1EA, size: 0x8, addend: 0x0, symName: __RNvMs_NtCslJiobkLta79_5alloc3vecINtB4_3VecTNtNtCsdGrGZaRBwMb_3syn3pat3PatNtNtBJ_5token5CommaEE3lenBJ_, symObjAddr: 0x3110, symBinAddr: 0x3DA20, symSize: 0x10 }
  - { offset: 0x9A22C, size: 0x8, addend: 0x0, symName: __RNvMs_NtCslJiobkLta79_5alloc3vecINtB4_3VecTNtNtCsdGrGZaRBwMb_3syn3pat3PatNtNtBJ_5token5CommaEE4pushBJ_, symObjAddr: 0x3120, symBinAddr: 0x3DA30, symSize: 0x20 }
  - { offset: 0x9A302, size: 0x8, addend: 0x0, symName: __RNvMs_NtCslJiobkLta79_5alloc3vecINtB4_3VecTNtNtCsdGrGZaRBwMb_3syn3pat3PatNtNtBJ_5token5CommaEE7set_lenBJ_, symObjAddr: 0x3140, symBinAddr: 0x3DA50, symSize: 0x70 }
  - { offset: 0x9A48C, size: 0x8, addend: 0x0, symName: __RNvMs_NtCslJiobkLta79_5alloc3vecINtB4_3VecTNtNtCsdGrGZaRBwMb_3syn3pat3PatNtNtBJ_5token5CommaEE8as_sliceBJ_, symObjAddr: 0x31B0, symBinAddr: 0x3DAC0, symSize: 0x50 }
  - { offset: 0x9A632, size: 0x8, addend: 0x0, symName: __RNvMs_NtCslJiobkLta79_5alloc3vecINtB4_3VecTNtNtCsdGrGZaRBwMb_3syn3pat3PatNtNtBJ_5token5CommaEE8push_mutBJ_, symObjAddr: 0x3200, symBinAddr: 0x3DB10, symSize: 0x140 }
  - { offset: 0x9A7F4, size: 0x8, addend: 0x0, symName: __RNvMs_NtCslJiobkLta79_5alloc3vecINtB4_3VecTNtNtCsdGrGZaRBwMb_3syn3pat8FieldPatNtNtBJ_5token5CommaEE4pushBJ_, symObjAddr: 0x3340, symBinAddr: 0x3DC50, symSize: 0x20 }
  - { offset: 0x9A8D7, size: 0x8, addend: 0x0, symName: __RNvMs_NtCslJiobkLta79_5alloc3vecINtB4_3VecTNtNtCsdGrGZaRBwMb_3syn3pat8FieldPatNtNtBJ_5token5CommaEE7set_lenBJ_, symObjAddr: 0x3360, symBinAddr: 0x3DC70, symSize: 0x70 }
  - { offset: 0x9AA61, size: 0x8, addend: 0x0, symName: __RNvMs_NtCslJiobkLta79_5alloc3vecINtB4_3VecTNtNtCsdGrGZaRBwMb_3syn3pat8FieldPatNtNtBJ_5token5CommaEE8as_sliceBJ_, symObjAddr: 0x33D0, symBinAddr: 0x3DCE0, symSize: 0x50 }
  - { offset: 0x9AC07, size: 0x8, addend: 0x0, symName: __RNvMs_NtCslJiobkLta79_5alloc3vecINtB4_3VecTNtNtCsdGrGZaRBwMb_3syn3pat8FieldPatNtNtBJ_5token5CommaEE8push_mutBJ_, symObjAddr: 0x3420, symBinAddr: 0x3DD30, symSize: 0x130 }
  - { offset: 0x9AE24, size: 0x8, addend: 0x0, symName: __RNvMs_NtCslJiobkLta79_5alloc3vecINtB4_3VecTNtNtCsdGrGZaRBwMb_3syn4data5FieldNtNtBJ_5token5CommaEE4pushBJ_, symObjAddr: 0x35B0, symBinAddr: 0x3DE60, symSize: 0x20 }
  - { offset: 0x9AEED, size: 0x8, addend: 0x0, symName: __RNvMs_NtCslJiobkLta79_5alloc3vecINtB4_3VecTNtNtCsdGrGZaRBwMb_3syn4data5FieldNtNtBJ_5token5CommaEE7set_lenBJ_, symObjAddr: 0x35D0, symBinAddr: 0x3DE80, symSize: 0x70 }
  - { offset: 0x9B054, size: 0x8, addend: 0x0, symName: __RNvMs_NtCslJiobkLta79_5alloc3vecINtB4_3VecTNtNtCsdGrGZaRBwMb_3syn4data5FieldNtNtBJ_5token5CommaEE8as_sliceBJ_, symObjAddr: 0x3640, symBinAddr: 0x3DEF0, symSize: 0x50 }
  - { offset: 0x9B1FA, size: 0x8, addend: 0x0, symName: __RNvMs_NtCslJiobkLta79_5alloc3vecINtB4_3VecTNtNtCsdGrGZaRBwMb_3syn4data5FieldNtNtBJ_5token5CommaEE8push_mutBJ_, symObjAddr: 0x3690, symBinAddr: 0x3DF40, symSize: 0x140 }
  - { offset: 0x9B3BC, size: 0x8, addend: 0x0, symName: __RNvMs_NtCslJiobkLta79_5alloc3vecINtB4_3VecTNtNtCsdGrGZaRBwMb_3syn4data7VariantNtNtBJ_5token5CommaEE4pushBJ_, symObjAddr: 0x37E0, symBinAddr: 0x3E080, symSize: 0x20 }
  - { offset: 0x9B49F, size: 0x8, addend: 0x0, symName: __RNvMs_NtCslJiobkLta79_5alloc3vecINtB4_3VecTNtNtCsdGrGZaRBwMb_3syn4data7VariantNtNtBJ_5token5CommaEE7set_lenBJ_, symObjAddr: 0x3800, symBinAddr: 0x3E0A0, symSize: 0x70 }
  - { offset: 0x9B629, size: 0x8, addend: 0x0, symName: __RNvMs_NtCslJiobkLta79_5alloc3vecINtB4_3VecTNtNtCsdGrGZaRBwMb_3syn4data7VariantNtNtBJ_5token5CommaEE8as_sliceBJ_, symObjAddr: 0x3870, symBinAddr: 0x3E110, symSize: 0x50 }
  - { offset: 0x9B7CF, size: 0x8, addend: 0x0, symName: __RNvMs_NtCslJiobkLta79_5alloc3vecINtB4_3VecTNtNtCsdGrGZaRBwMb_3syn4data7VariantNtNtBJ_5token5CommaEE8push_mutBJ_, symObjAddr: 0x38C0, symBinAddr: 0x3E160, symSize: 0x140 }
  - { offset: 0x9B991, size: 0x8, addend: 0x0, symName: __RNvMs_NtCslJiobkLta79_5alloc3vecINtB4_3VecTNtNtCsdGrGZaRBwMb_3syn4expr10FieldValueNtNtBJ_5token5CommaEE4pushBJ_, symObjAddr: 0x3A00, symBinAddr: 0x3E2A0, symSize: 0x20 }
  - { offset: 0x9BA74, size: 0x8, addend: 0x0, symName: __RNvMs_NtCslJiobkLta79_5alloc3vecINtB4_3VecTNtNtCsdGrGZaRBwMb_3syn4expr10FieldValueNtNtBJ_5token5CommaEE7set_lenBJ_, symObjAddr: 0x3A20, symBinAddr: 0x3E2C0, symSize: 0x70 }
  - { offset: 0x9BBFE, size: 0x8, addend: 0x0, symName: __RNvMs_NtCslJiobkLta79_5alloc3vecINtB4_3VecTNtNtCsdGrGZaRBwMb_3syn4expr10FieldValueNtNtBJ_5token5CommaEE8as_sliceBJ_, symObjAddr: 0x3A90, symBinAddr: 0x3E330, symSize: 0x50 }
  - { offset: 0x9BDA4, size: 0x8, addend: 0x0, symName: __RNvMs_NtCslJiobkLta79_5alloc3vecINtB4_3VecTNtNtCsdGrGZaRBwMb_3syn4expr10FieldValueNtNtBJ_5token5CommaEE8push_mutBJ_, symObjAddr: 0x3AE0, symBinAddr: 0x3E380, symSize: 0x140 }
  - { offset: 0x9BF66, size: 0x8, addend: 0x0, symName: __RNvMs_NtCslJiobkLta79_5alloc3vecINtB4_3VecTNtNtCsdGrGZaRBwMb_3syn4expr4ExprNtNtBJ_5token5CommaEE3lenBJ_, symObjAddr: 0x3C20, symBinAddr: 0x3E4C0, symSize: 0x10 }
  - { offset: 0x9BFA8, size: 0x8, addend: 0x0, symName: __RNvMs_NtCslJiobkLta79_5alloc3vecINtB4_3VecTNtNtCsdGrGZaRBwMb_3syn4expr4ExprNtNtBJ_5token5CommaEE4pushBJ_, symObjAddr: 0x3C30, symBinAddr: 0x3E4D0, symSize: 0x20 }
  - { offset: 0x9C07E, size: 0x8, addend: 0x0, symName: __RNvMs_NtCslJiobkLta79_5alloc3vecINtB4_3VecTNtNtCsdGrGZaRBwMb_3syn4expr4ExprNtNtBJ_5token5CommaEE7set_lenBJ_, symObjAddr: 0x3C50, symBinAddr: 0x3E4F0, symSize: 0x70 }
  - { offset: 0x9C208, size: 0x8, addend: 0x0, symName: __RNvMs_NtCslJiobkLta79_5alloc3vecINtB4_3VecTNtNtCsdGrGZaRBwMb_3syn4expr4ExprNtNtBJ_5token5CommaEE8as_sliceBJ_, symObjAddr: 0x3CC0, symBinAddr: 0x3E560, symSize: 0x50 }
  - { offset: 0x9C3AE, size: 0x8, addend: 0x0, symName: __RNvMs_NtCslJiobkLta79_5alloc3vecINtB4_3VecTNtNtCsdGrGZaRBwMb_3syn4expr4ExprNtNtBJ_5token5CommaEE8push_mutBJ_, symObjAddr: 0x3D10, symBinAddr: 0x3E5B0, symSize: 0x140 }
  - { offset: 0x9C570, size: 0x8, addend: 0x0, symName: __RNvMs_NtCslJiobkLta79_5alloc3vecINtB4_3VecTNtNtCsdGrGZaRBwMb_3syn4item5FnArgNtNtBJ_5token5CommaEE3lenBJ_, symObjAddr: 0x3E50, symBinAddr: 0x3E6F0, symSize: 0x10 }
  - { offset: 0x9C5B2, size: 0x8, addend: 0x0, symName: __RNvMs_NtCslJiobkLta79_5alloc3vecINtB4_3VecTNtNtCsdGrGZaRBwMb_3syn4item5FnArgNtNtBJ_5token5CommaEE4pushBJ_, symObjAddr: 0x3E60, symBinAddr: 0x3E700, symSize: 0x20 }
  - { offset: 0x9C688, size: 0x8, addend: 0x0, symName: __RNvMs_NtCslJiobkLta79_5alloc3vecINtB4_3VecTNtNtCsdGrGZaRBwMb_3syn4item5FnArgNtNtBJ_5token5CommaEE7set_lenBJ_, symObjAddr: 0x3E80, symBinAddr: 0x3E720, symSize: 0x70 }
  - { offset: 0x9C812, size: 0x8, addend: 0x0, symName: __RNvMs_NtCslJiobkLta79_5alloc3vecINtB4_3VecTNtNtCsdGrGZaRBwMb_3syn4item5FnArgNtNtBJ_5token5CommaEE8as_sliceBJ_, symObjAddr: 0x3EF0, symBinAddr: 0x3E790, symSize: 0x50 }
  - { offset: 0x9C9B8, size: 0x8, addend: 0x0, symName: __RNvMs_NtCslJiobkLta79_5alloc3vecINtB4_3VecTNtNtCsdGrGZaRBwMb_3syn4item5FnArgNtNtBJ_5token5CommaEE8push_mutBJ_, symObjAddr: 0x3F40, symBinAddr: 0x3E7E0, symSize: 0x130 }
  - { offset: 0x9CB7A, size: 0x8, addend: 0x0, symName: __RNvMs_NtCslJiobkLta79_5alloc3vecINtB4_3VecTNtNtCsdGrGZaRBwMb_3syn4item7UseTreeNtNtBJ_5token5CommaEE4pushBJ_, symObjAddr: 0x4070, symBinAddr: 0x3E910, symSize: 0x20 }
  - { offset: 0x9CC5D, size: 0x8, addend: 0x0, symName: __RNvMs_NtCslJiobkLta79_5alloc3vecINtB4_3VecTNtNtCsdGrGZaRBwMb_3syn4item7UseTreeNtNtBJ_5token5CommaEE7set_lenBJ_, symObjAddr: 0x4090, symBinAddr: 0x3E930, symSize: 0x70 }
  - { offset: 0x9CDE7, size: 0x8, addend: 0x0, symName: __RNvMs_NtCslJiobkLta79_5alloc3vecINtB4_3VecTNtNtCsdGrGZaRBwMb_3syn4item7UseTreeNtNtBJ_5token5CommaEE8as_sliceBJ_, symObjAddr: 0x4100, symBinAddr: 0x3E9A0, symSize: 0x50 }
  - { offset: 0x9CF8D, size: 0x8, addend: 0x0, symName: __RNvMs_NtCslJiobkLta79_5alloc3vecINtB4_3VecTNtNtCsdGrGZaRBwMb_3syn4item7UseTreeNtNtBJ_5token5CommaEE8push_mutBJ_, symObjAddr: 0x4150, symBinAddr: 0x3E9F0, symSize: 0x130 }
  - { offset: 0x9D21D, size: 0x8, addend: 0x0, symName: __RNvMs_NtCslJiobkLta79_5alloc3vecINtB4_3VecTNtNtCsdGrGZaRBwMb_3syn4path11PathSegmentNtNtBJ_5token7PathSepEE12as_mut_sliceBJ_, symObjAddr: 0x4280, symBinAddr: 0x3EB20, symSize: 0x50 }
  - { offset: 0x9D2F9, size: 0x8, addend: 0x0, symName: __RNvMs_NtCslJiobkLta79_5alloc3vecINtB4_3VecTNtNtCsdGrGZaRBwMb_3syn4path11PathSegmentNtNtBJ_5token7PathSepEE3lenBJ_, symObjAddr: 0x42D0, symBinAddr: 0x3EB70, symSize: 0x10 }
  - { offset: 0x9D447, size: 0x8, addend: 0x0, symName: __RNvMs_NtCslJiobkLta79_5alloc3vecINtB4_3VecTNtNtCsdGrGZaRBwMb_3syn4path11PathSegmentNtNtBJ_5token7PathSepEE3popBJ_, symObjAddr: 0x42E0, symBinAddr: 0x3EB80, symSize: 0x120 }
  - { offset: 0x9D5DC, size: 0x8, addend: 0x0, symName: __RNvMs_NtCslJiobkLta79_5alloc3vecINtB4_3VecTNtNtCsdGrGZaRBwMb_3syn4path11PathSegmentNtNtBJ_5token7PathSepEE4pushBJ_, symObjAddr: 0x4400, symBinAddr: 0x3ECA0, symSize: 0x20 }
  - { offset: 0x9D6A5, size: 0x8, addend: 0x0, symName: __RNvMs_NtCslJiobkLta79_5alloc3vecINtB4_3VecTNtNtCsdGrGZaRBwMb_3syn4path11PathSegmentNtNtBJ_5token7PathSepEE7set_lenBJ_, symObjAddr: 0x4420, symBinAddr: 0x3ECC0, symSize: 0x70 }
  - { offset: 0x9D80C, size: 0x8, addend: 0x0, symName: __RNvMs_NtCslJiobkLta79_5alloc3vecINtB4_3VecTNtNtCsdGrGZaRBwMb_3syn4path11PathSegmentNtNtBJ_5token7PathSepEE8as_sliceBJ_, symObjAddr: 0x4490, symBinAddr: 0x3ED30, symSize: 0x50 }
  - { offset: 0x9D9B2, size: 0x8, addend: 0x0, symName: __RNvMs_NtCslJiobkLta79_5alloc3vecINtB4_3VecTNtNtCsdGrGZaRBwMb_3syn4path11PathSegmentNtNtBJ_5token7PathSepEE8push_mutBJ_, symObjAddr: 0x44E0, symBinAddr: 0x3ED80, symSize: 0x130 }
  - { offset: 0x9DB74, size: 0x8, addend: 0x0, symName: __RNvMs_NtCslJiobkLta79_5alloc3vecINtB4_3VecTNtNtCsdGrGZaRBwMb_3syn4path15GenericArgumentNtNtBJ_5token5CommaEE3lenBJ_, symObjAddr: 0x4610, symBinAddr: 0x3EEB0, symSize: 0x10 }
  - { offset: 0x9DBB6, size: 0x8, addend: 0x0, symName: __RNvMs_NtCslJiobkLta79_5alloc3vecINtB4_3VecTNtNtCsdGrGZaRBwMb_3syn4path15GenericArgumentNtNtBJ_5token5CommaEE4pushBJ_, symObjAddr: 0x4620, symBinAddr: 0x3EEC0, symSize: 0x20 }
  - { offset: 0x9DC8C, size: 0x8, addend: 0x0, symName: __RNvMs_NtCslJiobkLta79_5alloc3vecINtB4_3VecTNtNtCsdGrGZaRBwMb_3syn4path15GenericArgumentNtNtBJ_5token5CommaEE7set_lenBJ_, symObjAddr: 0x4640, symBinAddr: 0x3EEE0, symSize: 0x70 }
  - { offset: 0x9DE16, size: 0x8, addend: 0x0, symName: __RNvMs_NtCslJiobkLta79_5alloc3vecINtB4_3VecTNtNtCsdGrGZaRBwMb_3syn4path15GenericArgumentNtNtBJ_5token5CommaEE8as_sliceBJ_, symObjAddr: 0x46B0, symBinAddr: 0x3EF50, symSize: 0x50 }
  - { offset: 0x9DFBC, size: 0x8, addend: 0x0, symName: __RNvMs_NtCslJiobkLta79_5alloc3vecINtB4_3VecTNtNtCsdGrGZaRBwMb_3syn4path15GenericArgumentNtNtBJ_5token5CommaEE8push_mutBJ_, symObjAddr: 0x4700, symBinAddr: 0x3EFA0, symSize: 0x140 }
  - { offset: 0x9E1D9, size: 0x8, addend: 0x0, symName: __RNvMs_NtCslJiobkLta79_5alloc3vecINtB4_3VecTNtNtCsdGrGZaRBwMb_3syn8generics12GenericParamNtNtBJ_5token5CommaEE3lenBJ_, symObjAddr: 0x4890, symBinAddr: 0x3F0E0, symSize: 0x10 }
  - { offset: 0x9E20E, size: 0x8, addend: 0x0, symName: __RNvMs_NtCslJiobkLta79_5alloc3vecINtB4_3VecTNtNtCsdGrGZaRBwMb_3syn8generics12GenericParamNtNtBJ_5token5CommaEE4pushBJ_, symObjAddr: 0x48A0, symBinAddr: 0x3F0F0, symSize: 0x20 }
  - { offset: 0x9E2D7, size: 0x8, addend: 0x0, symName: __RNvMs_NtCslJiobkLta79_5alloc3vecINtB4_3VecTNtNtCsdGrGZaRBwMb_3syn8generics12GenericParamNtNtBJ_5token5CommaEE7set_lenBJ_, symObjAddr: 0x48C0, symBinAddr: 0x3F110, symSize: 0x70 }
  - { offset: 0x9E43E, size: 0x8, addend: 0x0, symName: __RNvMs_NtCslJiobkLta79_5alloc3vecINtB4_3VecTNtNtCsdGrGZaRBwMb_3syn8generics12GenericParamNtNtBJ_5token5CommaEE8as_sliceBJ_, symObjAddr: 0x4930, symBinAddr: 0x3F180, symSize: 0x50 }
  - { offset: 0x9E5E4, size: 0x8, addend: 0x0, symName: __RNvMs_NtCslJiobkLta79_5alloc3vecINtB4_3VecTNtNtCsdGrGZaRBwMb_3syn8generics12GenericParamNtNtBJ_5token5CommaEE8push_mutBJ_, symObjAddr: 0x4980, symBinAddr: 0x3F1D0, symSize: 0x140 }
  - { offset: 0x9E7A6, size: 0x8, addend: 0x0, symName: __RNvMs_NtCslJiobkLta79_5alloc3vecINtB4_3VecTNtNtCsdGrGZaRBwMb_3syn8generics13CapturedParamNtNtBJ_5token5CommaEE4pushBJ_, symObjAddr: 0x4AC0, symBinAddr: 0x3F310, symSize: 0x20 }
  - { offset: 0x9E889, size: 0x8, addend: 0x0, symName: __RNvMs_NtCslJiobkLta79_5alloc3vecINtB4_3VecTNtNtCsdGrGZaRBwMb_3syn8generics13CapturedParamNtNtBJ_5token5CommaEE7set_lenBJ_, symObjAddr: 0x4AE0, symBinAddr: 0x3F330, symSize: 0x70 }
  - { offset: 0x9EA13, size: 0x8, addend: 0x0, symName: __RNvMs_NtCslJiobkLta79_5alloc3vecINtB4_3VecTNtNtCsdGrGZaRBwMb_3syn8generics13CapturedParamNtNtBJ_5token5CommaEE8as_sliceBJ_, symObjAddr: 0x4B50, symBinAddr: 0x3F3A0, symSize: 0x50 }
  - { offset: 0x9EBB9, size: 0x8, addend: 0x0, symName: __RNvMs_NtCslJiobkLta79_5alloc3vecINtB4_3VecTNtNtCsdGrGZaRBwMb_3syn8generics13CapturedParamNtNtBJ_5token5CommaEE8push_mutBJ_, symObjAddr: 0x4BA0, symBinAddr: 0x3F3F0, symSize: 0x130 }
  - { offset: 0x9ED7B, size: 0x8, addend: 0x0, symName: __RNvMs_NtCslJiobkLta79_5alloc3vecINtB4_3VecTNtNtCsdGrGZaRBwMb_3syn8generics14TypeParamBoundNtNtBJ_5token4PlusEE3lenBJ_, symObjAddr: 0x4CD0, symBinAddr: 0x3F520, symSize: 0x10 }
  - { offset: 0x9EDBD, size: 0x8, addend: 0x0, symName: __RNvMs_NtCslJiobkLta79_5alloc3vecINtB4_3VecTNtNtCsdGrGZaRBwMb_3syn8generics14TypeParamBoundNtNtBJ_5token4PlusEE4pushBJ_, symObjAddr: 0x4CE0, symBinAddr: 0x3F530, symSize: 0x20 }
  - { offset: 0x9EE93, size: 0x8, addend: 0x0, symName: __RNvMs_NtCslJiobkLta79_5alloc3vecINtB4_3VecTNtNtCsdGrGZaRBwMb_3syn8generics14TypeParamBoundNtNtBJ_5token4PlusEE7set_lenBJ_, symObjAddr: 0x4D00, symBinAddr: 0x3F550, symSize: 0x70 }
  - { offset: 0x9F01D, size: 0x8, addend: 0x0, symName: __RNvMs_NtCslJiobkLta79_5alloc3vecINtB4_3VecTNtNtCsdGrGZaRBwMb_3syn8generics14TypeParamBoundNtNtBJ_5token4PlusEE8as_sliceBJ_, symObjAddr: 0x4D70, symBinAddr: 0x3F5C0, symSize: 0x50 }
  - { offset: 0x9F1C3, size: 0x8, addend: 0x0, symName: __RNvMs_NtCslJiobkLta79_5alloc3vecINtB4_3VecTNtNtCsdGrGZaRBwMb_3syn8generics14TypeParamBoundNtNtBJ_5token4PlusEE8push_mutBJ_, symObjAddr: 0x4DC0, symBinAddr: 0x3F610, symSize: 0x130 }
  - { offset: 0x9F385, size: 0x8, addend: 0x0, symName: __RNvMs_NtCslJiobkLta79_5alloc3vecINtB4_3VecTNtNtCsdGrGZaRBwMb_3syn8generics14WherePredicateNtNtBJ_5token5CommaEE3lenBJ_, symObjAddr: 0x4EF0, symBinAddr: 0x3F740, symSize: 0x10 }
  - { offset: 0x9F3C7, size: 0x8, addend: 0x0, symName: __RNvMs_NtCslJiobkLta79_5alloc3vecINtB4_3VecTNtNtCsdGrGZaRBwMb_3syn8generics14WherePredicateNtNtBJ_5token5CommaEE4pushBJ_, symObjAddr: 0x4F00, symBinAddr: 0x3F750, symSize: 0x20 }
  - { offset: 0x9F49D, size: 0x8, addend: 0x0, symName: __RNvMs_NtCslJiobkLta79_5alloc3vecINtB4_3VecTNtNtCsdGrGZaRBwMb_3syn8generics14WherePredicateNtNtBJ_5token5CommaEE7set_lenBJ_, symObjAddr: 0x4F20, symBinAddr: 0x3F770, symSize: 0x70 }
  - { offset: 0x9F627, size: 0x8, addend: 0x0, symName: __RNvMs_NtCslJiobkLta79_5alloc3vecINtB4_3VecTNtNtCsdGrGZaRBwMb_3syn8generics14WherePredicateNtNtBJ_5token5CommaEE8as_sliceBJ_, symObjAddr: 0x4F90, symBinAddr: 0x3F7E0, symSize: 0x50 }
  - { offset: 0x9F7CD, size: 0x8, addend: 0x0, symName: __RNvMs_NtCslJiobkLta79_5alloc3vecINtB4_3VecTNtNtCsdGrGZaRBwMb_3syn8generics14WherePredicateNtNtBJ_5token5CommaEE8push_mutBJ_, symObjAddr: 0x4FE0, symBinAddr: 0x3F830, symSize: 0x140 }
  - { offset: 0x9F98F, size: 0x8, addend: 0x0, symName: __RNvMs_NtCslJiobkLta79_5alloc3vecINtB4_3VecTNtNtCsdGrGZaRBwMb_3syn8lifetime8LifetimeNtNtBJ_5token4PlusEE3lenBJ_, symObjAddr: 0x5120, symBinAddr: 0x3F970, symSize: 0x10 }
  - { offset: 0x9F9D1, size: 0x8, addend: 0x0, symName: __RNvMs_NtCslJiobkLta79_5alloc3vecINtB4_3VecTNtNtCsdGrGZaRBwMb_3syn8lifetime8LifetimeNtNtBJ_5token4PlusEE4pushBJ_, symObjAddr: 0x5130, symBinAddr: 0x3F980, symSize: 0x20 }
  - { offset: 0x9FAA7, size: 0x8, addend: 0x0, symName: __RNvMs_NtCslJiobkLta79_5alloc3vecINtB4_3VecTNtNtCsdGrGZaRBwMb_3syn8lifetime8LifetimeNtNtBJ_5token4PlusEE7set_lenBJ_, symObjAddr: 0x5150, symBinAddr: 0x3F9A0, symSize: 0x70 }
  - { offset: 0x9FC31, size: 0x8, addend: 0x0, symName: __RNvMs_NtCslJiobkLta79_5alloc3vecINtB4_3VecTNtNtCsdGrGZaRBwMb_3syn8lifetime8LifetimeNtNtBJ_5token4PlusEE8as_sliceBJ_, symObjAddr: 0x51C0, symBinAddr: 0x3FA10, symSize: 0x50 }
  - { offset: 0x9FDD7, size: 0x8, addend: 0x0, symName: __RNvMs_NtCslJiobkLta79_5alloc3vecINtB4_3VecTNtNtCsdGrGZaRBwMb_3syn8lifetime8LifetimeNtNtBJ_5token4PlusEE8push_mutBJ_, symObjAddr: 0x5210, symBinAddr: 0x3FA60, symSize: 0x130 }
  - { offset: 0xA0092, size: 0x8, addend: 0x0, symName: __RNvMs_NtCslJiobkLta79_5alloc3vecINtB4_3VechE13shrink_to_fitCsdGrGZaRBwMb_3syn, symObjAddr: 0x5340, symBinAddr: 0x3FB90, symSize: 0xE0 }
  - { offset: 0xA02C7, size: 0x8, addend: 0x0, symName: __RNvMs_NtCslJiobkLta79_5alloc3vecINtB4_3VechE16into_boxed_sliceCsdGrGZaRBwMb_3syn, symObjAddr: 0x5420, symBinAddr: 0x3FC70, symSize: 0x160 }
  - { offset: 0xA0497, size: 0x8, addend: 0x0, symName: __RNvMs_NtCslJiobkLta79_5alloc3vecINtB4_3VechE3lenCsdGrGZaRBwMb_3syn, symObjAddr: 0x5580, symBinAddr: 0x3FDD0, symSize: 0x10 }
  - { offset: 0xA04CC, size: 0x8, addend: 0x0, symName: __RNvMs_NtCslJiobkLta79_5alloc3vecINtB4_3VechE4pushCsdGrGZaRBwMb_3syn, symObjAddr: 0x5590, symBinAddr: 0x3FDE0, symSize: 0x20 }
  - { offset: 0xA0580, size: 0x8, addend: 0x0, symName: __RNvMs_NtCslJiobkLta79_5alloc3vecINtB4_3VechE8as_sliceCsdGrGZaRBwMb_3syn, symObjAddr: 0x55B0, symBinAddr: 0x3FE00, symSize: 0x50 }
  - { offset: 0xA0726, size: 0x8, addend: 0x0, symName: __RNvMs_NtCslJiobkLta79_5alloc3vecINtB4_3VechE8push_mutCsdGrGZaRBwMb_3syn, symObjAddr: 0x5600, symBinAddr: 0x3FE50, symSize: 0xC0 }
  - { offset: 0xA0B15, size: 0x8, addend: 0x0, symName: __RNvMs_NtCslJiobkLta79_5alloc3vecINtB4_3VechE9split_offCsdGrGZaRBwMb_3syn, symObjAddr: 0x56C0, symBinAddr: 0x3FF10, symSize: 0x290 }
  - { offset: 0xA5113, size: 0x8, addend: 0x0, symName: __RINvXNvMNtCslJiobkLta79_5alloc5sliceSp9to_vec_inNtNtCsdGrGZaRBwMb_3syn4expr3ArmNtB3_10ConvertVec6to_vecNtNtB8_5alloc6GlobalEBO_, symObjAddr: 0x0, symBinAddr: 0x42C00, symSize: 0x490 }
  - { offset: 0xA6481, size: 0x8, addend: 0x0, symName: __RINvXNvMNtCslJiobkLta79_5alloc5sliceSp9to_vec_inNtNtCsdGrGZaRBwMb_3syn4expr3ArmNtB3_10ConvertVec6to_vecNtNtB8_5alloc6GlobalEBO_, symObjAddr: 0x0, symBinAddr: 0x42C00, symSize: 0x490 }
  - { offset: 0xA69D5, size: 0x8, addend: 0x0, symName: __RINvXNvMNtCslJiobkLta79_5alloc5sliceSp9to_vec_inTNtNtCsdGrGZaRBwMb_3syn4expr10FieldValueNtNtBP_5token5CommaENtB3_10ConvertVec6to_vecNtNtB8_5alloc6GlobalEBP_, symObjAddr: 0x490, symBinAddr: 0x43090, symSize: 0x490 }
  - { offset: 0xA6F29, size: 0x8, addend: 0x0, symName: __RINvXNvMNtCslJiobkLta79_5alloc5sliceSp9to_vec_inTNtNtCsdGrGZaRBwMb_3syn4expr4ExprNtNtBP_5token5CommaENtB3_10ConvertVec6to_vecNtNtB8_5alloc6GlobalEBP_, symObjAddr: 0x920, symBinAddr: 0x43520, symSize: 0x490 }
  - { offset: 0xA9FFE, size: 0x8, addend: 0x0, symName: __RNcNtNtNtCsdGrGZaRBwMb_3syn4expr11RangeLimits6Closed0B7_, symObjAddr: 0xDB0, symBinAddr: 0x439B0, symSize: 0x20 }
  - { offset: 0xAA02E, size: 0x8, addend: 0x0, symName: __RNcNtNtNtCsdGrGZaRBwMb_3syn4expr11RangeLimits8HalfOpen0B7_, symObjAddr: 0xDD0, symBinAddr: 0x439D0, symSize: 0x30 }
  - { offset: 0xAA064, size: 0x8, addend: 0x0, symName: __RNcNtNtNtCsdGrGZaRBwMb_3syn4expr4Expr2If0B7_, symObjAddr: 0xE00, symBinAddr: 0x43A00, symSize: 0x40 }
  - { offset: 0xAA093, size: 0x8, addend: 0x0, symName: __RNcNtNtNtCsdGrGZaRBwMb_3syn4expr4Expr3Let0B7_, symObjAddr: 0xE40, symBinAddr: 0x43A40, symSize: 0x40 }
  - { offset: 0xAA0C2, size: 0x8, addend: 0x0, symName: __RNcNtNtNtCsdGrGZaRBwMb_3syn4expr4Expr3Lit0B7_, symObjAddr: 0xE80, symBinAddr: 0x43A80, symSize: 0x40 }
  - { offset: 0xAA0F1, size: 0x8, addend: 0x0, symName: __RNcNtNtNtCsdGrGZaRBwMb_3syn4expr4Expr4Loop0B7_, symObjAddr: 0xEC0, symBinAddr: 0x43AC0, symSize: 0x40 }
  - { offset: 0xAA120, size: 0x8, addend: 0x0, symName: __RNcNtNtNtCsdGrGZaRBwMb_3syn4expr4Expr5Async0B7_, symObjAddr: 0xF00, symBinAddr: 0x43B00, symSize: 0x40 }
  - { offset: 0xAA14F, size: 0x8, addend: 0x0, symName: __RNcNtNtNtCsdGrGZaRBwMb_3syn4expr4Expr5Block0B7_, symObjAddr: 0xF40, symBinAddr: 0x43B40, symSize: 0x40 }
  - { offset: 0xAA17E, size: 0x8, addend: 0x0, symName: __RNcNtNtNtCsdGrGZaRBwMb_3syn4expr4Expr5Break0B7_, symObjAddr: 0xF80, symBinAddr: 0x43B80, symSize: 0x40 }
  - { offset: 0xAA1AD, size: 0x8, addend: 0x0, symName: __RNcNtNtNtCsdGrGZaRBwMb_3syn4expr4Expr5Const0B7_, symObjAddr: 0xFC0, symBinAddr: 0x43BC0, symSize: 0x40 }
  - { offset: 0xAA1DC, size: 0x8, addend: 0x0, symName: __RNcNtNtNtCsdGrGZaRBwMb_3syn4expr4Expr5Infer0B7_, symObjAddr: 0x1000, symBinAddr: 0x43C00, symSize: 0x30 }
  - { offset: 0xAA20A, size: 0x8, addend: 0x0, symName: __RNcNtNtNtCsdGrGZaRBwMb_3syn4expr4Expr5Match0B7_, symObjAddr: 0x1030, symBinAddr: 0x43C30, symSize: 0x40 }
  - { offset: 0xAA239, size: 0x8, addend: 0x0, symName: __RNcNtNtNtCsdGrGZaRBwMb_3syn4expr4Expr5Range0B7_, symObjAddr: 0x1070, symBinAddr: 0x43C70, symSize: 0x40 }
  - { offset: 0xAA268, size: 0x8, addend: 0x0, symName: __RNcNtNtNtCsdGrGZaRBwMb_3syn4expr4Expr5Unary0B7_, symObjAddr: 0x10B0, symBinAddr: 0x43CB0, symSize: 0x40 }
  - { offset: 0xAA297, size: 0x8, addend: 0x0, symName: __RNcNtNtNtCsdGrGZaRBwMb_3syn4expr4Expr5While0B7_, symObjAddr: 0x10F0, symBinAddr: 0x43CF0, symSize: 0x40 }
  - { offset: 0xAA2C6, size: 0x8, addend: 0x0, symName: __RNcNtNtNtCsdGrGZaRBwMb_3syn4expr4Expr5Yield0B7_, symObjAddr: 0x1130, symBinAddr: 0x43D30, symSize: 0x40 }
  - { offset: 0xAA2F5, size: 0x8, addend: 0x0, symName: __RNcNtNtNtCsdGrGZaRBwMb_3syn4expr4Expr6Return0B7_, symObjAddr: 0x1170, symBinAddr: 0x43D70, symSize: 0x40 }
  - { offset: 0xAA324, size: 0x8, addend: 0x0, symName: __RNcNtNtNtCsdGrGZaRBwMb_3syn4expr4Expr6Struct0B7_, symObjAddr: 0x11B0, symBinAddr: 0x43DB0, symSize: 0x40 }
  - { offset: 0xAA353, size: 0x8, addend: 0x0, symName: __RNcNtNtNtCsdGrGZaRBwMb_3syn4expr4Expr6Unsafe0B7_, symObjAddr: 0x11F0, symBinAddr: 0x43DF0, symSize: 0x40 }
  - { offset: 0xAA382, size: 0x8, addend: 0x0, symName: __RNcNtNtNtCsdGrGZaRBwMb_3syn4expr4Expr7Closure0B7_, symObjAddr: 0x1230, symBinAddr: 0x43E30, symSize: 0x40 }
  - { offset: 0xAA3B1, size: 0x8, addend: 0x0, symName: __RNcNtNtNtCsdGrGZaRBwMb_3syn4expr4Expr7ForLoop0B7_, symObjAddr: 0x1270, symBinAddr: 0x43E70, symSize: 0x40 }
  - { offset: 0xAA3E0, size: 0x8, addend: 0x0, symName: __RNcNtNtNtCsdGrGZaRBwMb_3syn4expr4Expr8Continue0B7_, symObjAddr: 0x12B0, symBinAddr: 0x43EB0, symSize: 0x40 }
  - { offset: 0xAA40F, size: 0x8, addend: 0x0, symName: __RNcNtNtNtCsdGrGZaRBwMb_3syn4expr4Expr8TryBlock0B7_, symObjAddr: 0x12F0, symBinAddr: 0x43EF0, symSize: 0x40 }
  - { offset: 0xAA444, size: 0x8, addend: 0x0, symName: __RNcNtNtNtCsdGrGZaRBwMb_3syn4expr6Member5Named0B7_, symObjAddr: 0x1330, symBinAddr: 0x43F30, symSize: 0x20 }
  - { offset: 0xAA474, size: 0x8, addend: 0x0, symName: __RNcNtNtNtCsdGrGZaRBwMb_3syn4expr6Member7Unnamed0B7_, symObjAddr: 0x1350, symBinAddr: 0x43F50, symSize: 0x20 }
  - { offset: 0xAA4AA, size: 0x8, addend: 0x0, symName: __RNvXNtNtCsdGrGZaRBwMb_3syn4expr7parsingNtB4_4ExprNtNtB6_5parse5Parse5parse, symObjAddr: 0x42A0, symBinAddr: 0x44E50, symSize: 0x30 }
  - { offset: 0xAA4DE, size: 0x8, addend: 0x0, symName: __RNvXs4_NtNtCsdGrGZaRBwMb_3syn4expr7parsingNtB7_7ExprLitNtNtB9_5parse5Parse5parse, symObjAddr: 0x78B0, symBinAddr: 0x45690, symSize: 0x190 }
  - { offset: 0xAA531, size: 0x8, addend: 0x0, symName: __RNvXs7_NtNtCsdGrGZaRBwMb_3syn4expr7parsingNtB7_6ExprIfNtNtB9_5parse5Parse5parse, symObjAddr: 0x8100, symBinAddr: 0x458E0, symSize: 0x1460 }
  - { offset: 0xAA7A7, size: 0x8, addend: 0x0, symName: __RNvXs8_NtNtCsdGrGZaRBwMb_3syn4expr7parsingNtB7_9ExprInferNtNtB9_5parse5Parse5parse, symObjAddr: 0x9E10, symBinAddr: 0x46D80, symSize: 0x250 }
  - { offset: 0xAA837, size: 0x8, addend: 0x0, symName: __RNvXs9_NtNtCsdGrGZaRBwMb_3syn4expr7parsingNtB7_11ExprForLoopNtNtB9_5parse5Parse5parse, symObjAddr: 0xA0F0, symBinAddr: 0x47040, symSize: 0xD40 }
  - { offset: 0xAAB06, size: 0x8, addend: 0x0, symName: __RNvXsA_NtNtCsdGrGZaRBwMb_3syn4expr7parsingNtB7_5IndexNtNtB9_5parse5Parse5parse, symObjAddr: 0xB030, symBinAddr: 0x47F40, symSize: 0x300 }
  - { offset: 0xAABAD, size: 0x8, addend: 0x0, symName: __RNvXsa_NtNtCsdGrGZaRBwMb_3syn4expr7parsingNtB7_8ExprLoopNtNtB9_5parse5Parse5parse, symObjAddr: 0x12730, symBinAddr: 0x4A550, symSize: 0x810 }
  - { offset: 0xAAD60, size: 0x8, addend: 0x0, symName: __RNvXsb_NtNtCsdGrGZaRBwMb_3syn4expr7parsingNtB7_9ExprMatchNtNtB9_5parse5Parse5parse, symObjAddr: 0x12FD0, symBinAddr: 0x4ADA0, symSize: 0x850 }
  - { offset: 0xAAF51, size: 0x8, addend: 0x0, symName: __RNvXsh_NtNtCsdGrGZaRBwMb_3syn4expr7parsingNtB7_10ExprReturnNtNtB9_5parse5Parse5parse, symObjAddr: 0x147D0, symBinAddr: 0x4BA20, symSize: 0x270 }
  - { offset: 0xAAFB2, size: 0x8, addend: 0x0, symName: __RNvXsi_NtNtCsdGrGZaRBwMb_3syn4expr7parsingNtB7_12ExprTryBlockNtNtB9_5parse5Parse5parse, symObjAddr: 0x14AD0, symBinAddr: 0x4BCE0, symSize: 0x290 }
  - { offset: 0xAB024, size: 0x8, addend: 0x0, symName: __RNvXsj_NtNtCsdGrGZaRBwMb_3syn4expr7parsingNtB7_9ExprYieldNtNtB9_5parse5Parse5parse, symObjAddr: 0x14E20, symBinAddr: 0x4BFF0, symSize: 0x270 }
  - { offset: 0xAB085, size: 0x8, addend: 0x0, symName: __RNvXsk_NtNtCsdGrGZaRBwMb_3syn4expr7parsingNtB7_9ExprAsyncNtNtB9_5parse5Parse5parse, symObjAddr: 0x15F50, symBinAddr: 0x4D0E0, symSize: 0x390 }
  - { offset: 0xAB116, size: 0x8, addend: 0x0, symName: __RNvXsl_NtNtCsdGrGZaRBwMb_3syn4expr7parsingNtB7_9ExprWhileNtNtB9_5parse5Parse5parse, symObjAddr: 0x164D0, symBinAddr: 0x4D620, symSize: 0xA80 }
  - { offset: 0xAB34C, size: 0x8, addend: 0x0, symName: __RNvXsm_NtNtCsdGrGZaRBwMb_3syn4expr7parsingNtB7_9ExprConstNtNtB9_5parse5Parse5parse, symObjAddr: 0x17C00, symBinAddr: 0x4E1E0, symSize: 0x540 }
  - { offset: 0xAB4A3, size: 0x8, addend: 0x0, symName: __RNvXsn_NtNtCsdGrGZaRBwMb_3syn4expr7parsingNtB7_5LabelNtNtB9_5parse5Parse5parse, symObjAddr: 0x18310, symBinAddr: 0x4E870, symSize: 0x260 }
  - { offset: 0xAB533, size: 0x8, addend: 0x0, symName: __RNvXsp_NtNtCsdGrGZaRBwMb_3syn4expr7parsingNtB7_12ExprContinueNtNtB9_5parse5Parse5parse, symObjAddr: 0x188D0, symBinAddr: 0x4ED70, symSize: 0x2A0 }
  - { offset: 0xAB5A5, size: 0x8, addend: 0x0, symName: __RNvXsq_NtNtCsdGrGZaRBwMb_3syn4expr7parsingNtB7_10FieldValueNtNtB9_5parse5Parse5parse, symObjAddr: 0x18D90, symBinAddr: 0x4F160, symSize: 0x6D0 }
  - { offset: 0xAB744, size: 0x8, addend: 0x0, symName: __RNvXss_NtNtCsdGrGZaRBwMb_3syn4expr7parsingNtB7_10ExprUnsafeNtNtB9_5parse5Parse5parse, symObjAddr: 0x19A50, symBinAddr: 0x4FAF0, symSize: 0x540 }
  - { offset: 0xAB89B, size: 0x8, addend: 0x0, symName: __RNvXst_NtNtCsdGrGZaRBwMb_3syn4expr7parsingNtB7_9ExprBlockNtNtB9_5parse5Parse5parse, symObjAddr: 0x1A140, symBinAddr: 0x50160, symSize: 0x740 }
  - { offset: 0xABA21, size: 0x8, addend: 0x0, symName: __RNvXsu_NtNtCsdGrGZaRBwMb_3syn4expr7parsingNtB7_11RangeLimitsNtNtB9_5parse5Parse5parse, symObjAddr: 0x1AC90, symBinAddr: 0x50C70, symSize: 0x260 }
  - { offset: 0xABAB0, size: 0x8, addend: 0x0, symName: __RNvXsw_NtNtCsdGrGZaRBwMb_3syn4expr7parsingNtB7_8ExprPathNtNtB9_5parse5Parse5parse, symObjAddr: 0x1B1E0, symBinAddr: 0x51100, symSize: 0x310 }
  - { offset: 0xABB9E, size: 0x8, addend: 0x0, symName: __RNvXsx_NtNtCsdGrGZaRBwMb_3syn4expr7parsingNtB7_6MemberNtNtB9_5parse5Parse5parse, symObjAddr: 0x1B6E0, symBinAddr: 0x51580, symSize: 0xD0 }
  - { offset: 0xABBD2, size: 0x8, addend: 0x0, symName: __RNvXsz_NtNtCsdGrGZaRBwMb_3syn4expr7parsingNtB7_3ArmNtNtB9_5parse5Parse5parse, symObjAddr: 0x1BBB0, symBinAddr: 0x51990, symSize: 0xB00 }
  - { offset: 0xABE0F, size: 0x8, addend: 0x0, symName: __RNvXNtNtCsdGrGZaRBwMb_3syn4expr8printingNtB4_9ExprArrayNtNtCs9OU1sGv5X54_5quote9to_tokens8ToTokens9to_tokens, symObjAddr: 0x42D0, symBinAddr: 0x44E80, symSize: 0x50 }
  - { offset: 0xABE4E, size: 0x8, addend: 0x0, symName: __RNvXs0_NtNtCsdGrGZaRBwMb_3syn4expr8printingNtB7_9ExprAsyncNtNtCs9OU1sGv5X54_5quote9to_tokens8ToTokens9to_tokens, symObjAddr: 0x4600, symBinAddr: 0x45190, symSize: 0x70 }
  - { offset: 0xABE8D, size: 0x8, addend: 0x0, symName: __RNvXs1_NtNtCsdGrGZaRBwMb_3syn4expr8printingNtB7_9ExprAwaitNtNtCs9OU1sGv5X54_5quote9to_tokens8ToTokens9to_tokens, symObjAddr: 0x5710, symBinAddr: 0x454D0, symSize: 0x40 }
  - { offset: 0xABECC, size: 0x8, addend: 0x0, symName: __RNvXs2_NtNtCsdGrGZaRBwMb_3syn4expr8printingNtB7_10ExprBinaryNtNtCs9OU1sGv5X54_5quote9to_tokens8ToTokens9to_tokens, symObjAddr: 0x69F0, symBinAddr: 0x455B0, symSize: 0x40 }
  - { offset: 0xABF0B, size: 0x8, addend: 0x0, symName: __RNvXs3_NtNtCsdGrGZaRBwMb_3syn4expr8printingNtB7_9ExprBlockNtNtCs9OU1sGv5X54_5quote9to_tokens8ToTokens9to_tokens, symObjAddr: 0x7590, symBinAddr: 0x45620, symSize: 0x70 }
  - { offset: 0xABF4A, size: 0x8, addend: 0x0, symName: __RNvXs4_NtNtCsdGrGZaRBwMb_3syn4expr8printingNtB7_9ExprBreakNtNtCs9OU1sGv5X54_5quote9to_tokens8ToTokens9to_tokens, symObjAddr: 0x7A40, symBinAddr: 0x45820, symSize: 0x40 }
  - { offset: 0xABF89, size: 0x8, addend: 0x0, symName: __RNvXs5_NtNtCsdGrGZaRBwMb_3syn4expr8printingNtB7_8ExprCallNtNtCs9OU1sGv5X54_5quote9to_tokens8ToTokens9to_tokens, symObjAddr: 0x7FE0, symBinAddr: 0x45860, symSize: 0x40 }
  - { offset: 0xABFC8, size: 0x8, addend: 0x0, symName: __RNvXs6_NtNtCsdGrGZaRBwMb_3syn4expr8printingNtB7_8ExprCastNtNtCs9OU1sGv5X54_5quote9to_tokens8ToTokens9to_tokens, symObjAddr: 0x8060, symBinAddr: 0x458A0, symSize: 0x40 }
  - { offset: 0xAC007, size: 0x8, addend: 0x0, symName: __RNvXs7_NtNtCsdGrGZaRBwMb_3syn4expr8printingNtB7_11ExprClosureNtNtCs9OU1sGv5X54_5quote9to_tokens8ToTokens9to_tokens, symObjAddr: 0x9560, symBinAddr: 0x46D40, symSize: 0x40 }
  - { offset: 0xAC046, size: 0x8, addend: 0x0, symName: __RNvXs8_NtNtCsdGrGZaRBwMb_3syn4expr8printingNtB7_9ExprConstNtNtCs9OU1sGv5X54_5quote9to_tokens8ToTokens9to_tokens, symObjAddr: 0xA060, symBinAddr: 0x46FD0, symSize: 0x70 }
  - { offset: 0xAC085, size: 0x8, addend: 0x0, symName: __RNvXs9_NtNtCsdGrGZaRBwMb_3syn4expr8printingNtB7_12ExprContinueNtNtCs9OU1sGv5X54_5quote9to_tokens8ToTokens9to_tokens, symObjAddr: 0xAE30, symBinAddr: 0x47D80, symSize: 0x60 }
  - { offset: 0xAC0C4, size: 0x8, addend: 0x0, symName: __RNvXsA_NtNtCsdGrGZaRBwMb_3syn4expr8printingNtB7_9ExprYieldNtNtCs9OU1sGv5X54_5quote9to_tokens8ToTokens9to_tokens, symObjAddr: 0xB330, symBinAddr: 0x48240, symSize: 0x40 }
  - { offset: 0xAC103, size: 0x8, addend: 0x0, symName: __RNvXsB_NtNtCsdGrGZaRBwMb_3syn4expr8printingNtB7_3ArmNtNtCs9OU1sGv5X54_5quote9to_tokens8ToTokens9to_tokens, symObjAddr: 0xB830, symBinAddr: 0x48380, symSize: 0x140 }
  - { offset: 0xAC170, size: 0x8, addend: 0x0, symName: __RNvXsC_NtNtCsdGrGZaRBwMb_3syn4expr8printingNtB7_10FieldValueNtNtCs9OU1sGv5X54_5quote9to_tokens8ToTokens9to_tokens, symObjAddr: 0xBEB0, symBinAddr: 0x48560, symSize: 0xA0 }
  - { offset: 0xAC1CD, size: 0x8, addend: 0x0, symName: __RNvXsD_NtNtCsdGrGZaRBwMb_3syn4expr8printingNtB7_5IndexNtNtCs9OU1sGv5X54_5quote9to_tokens8ToTokens9to_tokens, symObjAddr: 0xD560, symBinAddr: 0x48720, symSize: 0xC0 }
  - { offset: 0xAC223, size: 0x8, addend: 0x0, symName: __RNvXsE_NtNtCsdGrGZaRBwMb_3syn4expr8printingNtB7_5LabelNtNtCs9OU1sGv5X54_5quote9to_tokens8ToTokens9to_tokens, symObjAddr: 0xDB70, symBinAddr: 0x48890, symSize: 0x40 }
  - { offset: 0xAC262, size: 0x8, addend: 0x0, symName: __RNvXsF_NtNtCsdGrGZaRBwMb_3syn4expr8printingNtB7_6MemberNtNtCs9OU1sGv5X54_5quote9to_tokens8ToTokens9to_tokens, symObjAddr: 0xE220, symBinAddr: 0x48A00, symSize: 0x70 }
  - { offset: 0xAC2D5, size: 0x8, addend: 0x0, symName: __RNvXsG_NtNtCsdGrGZaRBwMb_3syn4expr8printingNtB7_11RangeLimitsNtNtCs9OU1sGv5X54_5quote9to_tokens8ToTokens9to_tokens, symObjAddr: 0xE800, symBinAddr: 0x48B40, symSize: 0x70 }
  - { offset: 0xAC348, size: 0x8, addend: 0x0, symName: __RNvXsH_NtNtCsdGrGZaRBwMb_3syn4expr8printingNtB7_17PointerMutabilityNtNtCs9OU1sGv5X54_5quote9to_tokens8ToTokens9to_tokens, symObjAddr: 0xEF00, symBinAddr: 0x48CF0, symSize: 0x70 }
  - { offset: 0xAC3BB, size: 0x8, addend: 0x0, symName: __RNvXs_NtNtCsdGrGZaRBwMb_3syn4expr8printingNtB6_10ExprAssignNtNtCs9OU1sGv5X54_5quote9to_tokens8ToTokens9to_tokens, symObjAddr: 0x126F0, symBinAddr: 0x4A510, symSize: 0x40 }
  - { offset: 0xAC3FA, size: 0x8, addend: 0x0, symName: __RNvXsa_NtNtCsdGrGZaRBwMb_3syn4expr8printingNtB7_9ExprFieldNtNtCs9OU1sGv5X54_5quote9to_tokens8ToTokens9to_tokens, symObjAddr: 0x12F40, symBinAddr: 0x4AD60, symSize: 0x40 }
  - { offset: 0xAC439, size: 0x8, addend: 0x0, symName: __RNvXsb_NtNtCsdGrGZaRBwMb_3syn4expr8printingNtB7_11ExprForLoopNtNtCs9OU1sGv5X54_5quote9to_tokens8ToTokens9to_tokens, symObjAddr: 0x13820, symBinAddr: 0x4B5F0, symSize: 0x100 }
  - { offset: 0xAC478, size: 0x8, addend: 0x0, symName: __RNvXsc_NtNtCsdGrGZaRBwMb_3syn4expr8printingNtB7_9ExprGroupNtNtCs9OU1sGv5X54_5quote9to_tokens8ToTokens9to_tokens, symObjAddr: 0x139B0, symBinAddr: 0x4B6F0, symSize: 0x50 }
  - { offset: 0xAC4B7, size: 0x8, addend: 0x0, symName: __RNvXsd_NtNtCsdGrGZaRBwMb_3syn4expr8printingNtB7_6ExprIfNtNtCs9OU1sGv5X54_5quote9to_tokens8ToTokens9to_tokens, symObjAddr: 0x13A80, symBinAddr: 0x4B740, symSize: 0x210 }
  - { offset: 0xAC58D, size: 0x8, addend: 0x0, symName: __RNvXse_NtNtCsdGrGZaRBwMb_3syn4expr8printingNtB7_9ExprIndexNtNtCs9OU1sGv5X54_5quote9to_tokens8ToTokens9to_tokens, symObjAddr: 0x141E0, symBinAddr: 0x4B950, symSize: 0x40 }
  - { offset: 0xAC5CC, size: 0x8, addend: 0x0, symName: __RNvXsf_NtNtCsdGrGZaRBwMb_3syn4expr8printingNtB7_9ExprInferNtNtCs9OU1sGv5X54_5quote9to_tokens8ToTokens9to_tokens, symObjAddr: 0x14680, symBinAddr: 0x4B990, symSize: 0x50 }
  - { offset: 0xAC60B, size: 0x8, addend: 0x0, symName: __RNvXsg_NtNtCsdGrGZaRBwMb_3syn4expr8printingNtB7_7ExprLetNtNtCs9OU1sGv5X54_5quote9to_tokens8ToTokens9to_tokens, symObjAddr: 0x14750, symBinAddr: 0x4B9E0, symSize: 0x40 }
  - { offset: 0xAC64A, size: 0x8, addend: 0x0, symName: __RNvXsh_NtNtCsdGrGZaRBwMb_3syn4expr8printingNtB7_7ExprLitNtNtCs9OU1sGv5X54_5quote9to_tokens8ToTokens9to_tokens, symObjAddr: 0x14A40, symBinAddr: 0x4BC90, symSize: 0x50 }
  - { offset: 0xAC689, size: 0x8, addend: 0x0, symName: __RNvXsi_NtNtCsdGrGZaRBwMb_3syn4expr8printingNtB7_8ExprLoopNtNtCs9OU1sGv5X54_5quote9to_tokens8ToTokens9to_tokens, symObjAddr: 0x14D60, symBinAddr: 0x4BF70, symSize: 0x80 }
  - { offset: 0xAC6C8, size: 0x8, addend: 0x0, symName: __RNvXsj_NtNtCsdGrGZaRBwMb_3syn4expr8printingNtB7_9ExprMacroNtNtCs9OU1sGv5X54_5quote9to_tokens8ToTokens9to_tokens, symObjAddr: 0x15090, symBinAddr: 0x4C260, symSize: 0x50 }
  - { offset: 0xAC707, size: 0x8, addend: 0x0, symName: __RNvXsk_NtNtCsdGrGZaRBwMb_3syn4expr8printingNtB7_9ExprMatchNtNtCs9OU1sGv5X54_5quote9to_tokens8ToTokens9to_tokens, symObjAddr: 0x162E0, symBinAddr: 0x4D470, symSize: 0xD0 }
  - { offset: 0xAC746, size: 0x8, addend: 0x0, symName: __RNvXsl_NtNtCsdGrGZaRBwMb_3syn4expr8printingNtB7_14ExprMethodCallNtNtCs9OU1sGv5X54_5quote9to_tokens8ToTokens9to_tokens, symObjAddr: 0x16F50, symBinAddr: 0x4E0A0, symSize: 0x40 }
  - { offset: 0xAC785, size: 0x8, addend: 0x0, symName: __RNvXsm_NtNtCsdGrGZaRBwMb_3syn4expr8printingNtB7_9ExprParenNtNtCs9OU1sGv5X54_5quote9to_tokens8ToTokens9to_tokens, symObjAddr: 0x18140, symBinAddr: 0x4E720, symSize: 0x50 }
  - { offset: 0xAC7C4, size: 0x8, addend: 0x0, symName: __RNvXsn_NtNtCsdGrGZaRBwMb_3syn4expr8printingNtB7_8ExprPathNtNtCs9OU1sGv5X54_5quote9to_tokens8ToTokens9to_tokens, symObjAddr: 0x18570, symBinAddr: 0x4EAD0, symSize: 0x60 }
  - { offset: 0xAC803, size: 0x8, addend: 0x0, symName: __RNvXso_NtNtCsdGrGZaRBwMb_3syn4expr8printingNtB7_9ExprRangeNtNtCs9OU1sGv5X54_5quote9to_tokens8ToTokens9to_tokens, symObjAddr: 0x18710, symBinAddr: 0x4EC30, symSize: 0x40 }
  - { offset: 0xAC842, size: 0x8, addend: 0x0, symName: __RNvXsp_NtNtCsdGrGZaRBwMb_3syn4expr8printingNtB7_11ExprRawAddrNtNtCs9OU1sGv5X54_5quote9to_tokens8ToTokens9to_tokens, symObjAddr: 0x18B70, symBinAddr: 0x4F010, symSize: 0x40 }
  - { offset: 0xAC881, size: 0x8, addend: 0x0, symName: __RNvXsq_NtNtCsdGrGZaRBwMb_3syn4expr8printingNtB7_13ExprReferenceNtNtCs9OU1sGv5X54_5quote9to_tokens8ToTokens9to_tokens, symObjAddr: 0x19460, symBinAddr: 0x4F830, symSize: 0x40 }
  - { offset: 0xAC8C0, size: 0x8, addend: 0x0, symName: __RNvXsr_NtNtCsdGrGZaRBwMb_3syn4expr8printingNtB7_10ExprRepeatNtNtCs9OU1sGv5X54_5quote9to_tokens8ToTokens9to_tokens, symObjAddr: 0x198A0, symBinAddr: 0x4F980, symSize: 0x50 }
  - { offset: 0xAC8FF, size: 0x8, addend: 0x0, symName: __RNvXss_NtNtCsdGrGZaRBwMb_3syn4expr8printingNtB7_10ExprReturnNtNtCs9OU1sGv5X54_5quote9to_tokens8ToTokens9to_tokens, symObjAddr: 0x19F90, symBinAddr: 0x50030, symSize: 0x40 }
  - { offset: 0xAC93E, size: 0x8, addend: 0x0, symName: __RNvXst_NtNtCsdGrGZaRBwMb_3syn4expr8printingNtB7_10ExprStructNtNtCs9OU1sGv5X54_5quote9to_tokens8ToTokens9to_tokens, symObjAddr: 0x1A880, symBinAddr: 0x508A0, symSize: 0x70 }
  - { offset: 0xAC97D, size: 0x8, addend: 0x0, symName: __RNvXsu_NtNtCsdGrGZaRBwMb_3syn4expr8printingNtB7_7ExprTryNtNtCs9OU1sGv5X54_5quote9to_tokens8ToTokens9to_tokens, symObjAddr: 0x1AEF0, symBinAddr: 0x50ED0, symSize: 0x40 }
  - { offset: 0xAC9BC, size: 0x8, addend: 0x0, symName: __RNvXsv_NtNtCsdGrGZaRBwMb_3syn4expr8printingNtB7_12ExprTryBlockNtNtCs9OU1sGv5X54_5quote9to_tokens8ToTokens9to_tokens, symObjAddr: 0x1B070, symBinAddr: 0x50FD0, symSize: 0x60 }
  - { offset: 0xAC9FB, size: 0x8, addend: 0x0, symName: __RNvXsw_NtNtCsdGrGZaRBwMb_3syn4expr8printingNtB7_9ExprTupleNtNtCs9OU1sGv5X54_5quote9to_tokens8ToTokens9to_tokens, symObjAddr: 0x1B4F0, symBinAddr: 0x51410, symSize: 0x50 }
  - { offset: 0xACA3A, size: 0x8, addend: 0x0, symName: __RNvXsx_NtNtCsdGrGZaRBwMb_3syn4expr8printingNtB7_9ExprUnaryNtNtCs9OU1sGv5X54_5quote9to_tokens8ToTokens9to_tokens, symObjAddr: 0x1B7B0, symBinAddr: 0x51650, symSize: 0x40 }
  - { offset: 0xACA79, size: 0x8, addend: 0x0, symName: __RNvXsy_NtNtCsdGrGZaRBwMb_3syn4expr8printingNtB7_10ExprUnsafeNtNtCs9OU1sGv5X54_5quote9to_tokens8ToTokens9to_tokens, symObjAddr: 0x1BA10, symBinAddr: 0x51870, symSize: 0x70 }
  - { offset: 0xACAB8, size: 0x8, addend: 0x0, symName: __RNvXsz_NtNtCsdGrGZaRBwMb_3syn4expr8printingNtB7_9ExprWhileNtNtCs9OU1sGv5X54_5quote9to_tokens8ToTokens9to_tokens, symObjAddr: 0x1C6B0, symBinAddr: 0x52490, symSize: 0xE0 }
  - { offset: 0xACAF8, size: 0x8, addend: 0x0, symName: __RNvXsP_NtCsdGrGZaRBwMb_3syn4exprNtB5_4ExprNtNtCs9OU1sGv5X54_5quote9to_tokens8ToTokens9to_tokens, symObjAddr: 0x111C0, symBinAddr: 0x495B0, symSize: 0x640 }
  - { offset: 0xAF965, size: 0x8, addend: 0x0, symName: __RNvXs0_NtNtCsdGrGZaRBwMb_3syn3gen5cloneNtNtB9_4expr3ArmNtNtCsieiGu2EXtoJ_4core5clone5Clone5clone, symObjAddr: 0x43E0, symBinAddr: 0x44F70, symSize: 0x220 }
  - { offset: 0xAF997, size: 0x8, addend: 0x0, symName: __RNvXs11_NtNtCsdGrGZaRBwMb_3syn3gen5cloneNtNtBa_4expr10FieldValueNtNtCsieiGu2EXtoJ_4core5clone5Clone5clone, symObjAddr: 0x46D0, symBinAddr: 0x45200, symSize: 0x180 }
  - { offset: 0xAF9CB, size: 0x8, addend: 0x0, symName: __RNvXs1C_NtNtCsdGrGZaRBwMb_3syn3gen5cloneNtNtBa_4expr5LabelNtNtCsieiGu2EXtoJ_4core5clone5Clone5clone, symObjAddr: 0x4D30, symBinAddr: 0x45380, symSize: 0xB0 }
  - { offset: 0xAF9FF, size: 0x8, addend: 0x0, symName: __RNvXs1K_NtNtCsdGrGZaRBwMb_3syn3gen5cloneNtNtBa_4expr6MemberNtNtCsieiGu2EXtoJ_4core5clone5Clone5clone, symObjAddr: 0x50E0, symBinAddr: 0x45430, symSize: 0xA0 }
  - { offset: 0xAFA67, size: 0x8, addend: 0x0, symName: __RNvXs1l_NtNtCsdGrGZaRBwMb_3syn3gen5cloneNtNtBa_4expr5IndexNtNtCsieiGu2EXtoJ_4core5clone5Clone5clone, symObjAddr: 0x5B30, symBinAddr: 0x45510, symSize: 0x30 }
  - { offset: 0xAFA9B, size: 0x8, addend: 0x0, symName: __RNvXs24_NtNtCsdGrGZaRBwMb_3syn3gen5cloneNtNtBa_4expr17PointerMutabilityNtNtCsieiGu2EXtoJ_4core5clone5Clone5clone, symObjAddr: 0x6240, symBinAddr: 0x45540, symSize: 0x70 }
  - { offset: 0xAFB03, size: 0x8, addend: 0x0, symName: __RNvXs2a_NtNtCsdGrGZaRBwMb_3syn3gen5cloneNtNtBa_4expr11RangeLimitsNtNtCsieiGu2EXtoJ_4core5clone5Clone5clone, symObjAddr: 0x6D30, symBinAddr: 0x455F0, symSize: 0x30 }
  - { offset: 0xAFB37, size: 0x8, addend: 0x0, symName: __RNvXsA_NtNtCsdGrGZaRBwMb_3syn3gen5cloneNtNtB9_4expr6ExprIfNtNtCsieiGu2EXtoJ_4core5clone5Clone5clone, symObjAddr: 0xAED0, symBinAddr: 0x47DE0, symSize: 0x160 }
  - { offset: 0xAFB6B, size: 0x8, addend: 0x0, symName: __RNvXsB_NtNtCsdGrGZaRBwMb_3syn3gen5cloneNtNtB9_4expr9ExprIndexNtNtCsieiGu2EXtoJ_4core5clone5Clone5clone, symObjAddr: 0xB3B0, symBinAddr: 0x48280, symSize: 0x100 }
  - { offset: 0xAFB9F, size: 0x8, addend: 0x0, symName: __RNvXsC_NtNtCsdGrGZaRBwMb_3syn3gen5cloneNtNtB9_4expr9ExprInferNtNtCsieiGu2EXtoJ_4core5clone5Clone5clone, symObjAddr: 0xB9B0, symBinAddr: 0x484C0, symSize: 0xA0 }
  - { offset: 0xAFBD3, size: 0x8, addend: 0x0, symName: __RNvXsD_NtNtCsdGrGZaRBwMb_3syn3gen5cloneNtNtB9_4expr7ExprLetNtNtCsieiGu2EXtoJ_4core5clone5Clone5clone, symObjAddr: 0xCFA0, symBinAddr: 0x48600, symSize: 0x120 }
  - { offset: 0xAFC07, size: 0x8, addend: 0x0, symName: __RNvXsE_NtNtCsdGrGZaRBwMb_3syn3gen5cloneNtNtB9_4expr7ExprLitNtNtCsieiGu2EXtoJ_4core5clone5Clone5clone, symObjAddr: 0xD660, symBinAddr: 0x487E0, symSize: 0xB0 }
  - { offset: 0xAFC3B, size: 0x8, addend: 0x0, symName: __RNvXsF_NtNtCsdGrGZaRBwMb_3syn3gen5cloneNtNtB9_4expr8ExprLoopNtNtCsieiGu2EXtoJ_4core5clone5Clone5clone, symObjAddr: 0xDC50, symBinAddr: 0x488D0, symSize: 0x130 }
  - { offset: 0xAFC6F, size: 0x8, addend: 0x0, symName: __RNvXsG_NtNtCsdGrGZaRBwMb_3syn3gen5cloneNtNtB9_4expr9ExprMacroNtNtCsieiGu2EXtoJ_4core5clone5Clone5clone, symObjAddr: 0xE2D0, symBinAddr: 0x48A70, symSize: 0xD0 }
  - { offset: 0xAFCA3, size: 0x8, addend: 0x0, symName: __RNvXsH_NtNtCsdGrGZaRBwMb_3syn3gen5cloneNtNtB9_4expr9ExprMatchNtNtCsieiGu2EXtoJ_4core5clone5Clone5clone, symObjAddr: 0xE940, symBinAddr: 0x48BB0, symSize: 0x140 }
  - { offset: 0xAFCD7, size: 0x8, addend: 0x0, symName: __RNvXsI_NtNtCsdGrGZaRBwMb_3syn3gen5cloneNtNtB9_4expr14ExprMethodCallNtNtCsieiGu2EXtoJ_4core5clone5Clone5clone, symObjAddr: 0xEFB0, symBinAddr: 0x48D60, symSize: 0x240 }
  - { offset: 0xAFD0B, size: 0x8, addend: 0x0, symName: __RNvXsJ_NtNtCsdGrGZaRBwMb_3syn3gen5cloneNtNtB9_4expr9ExprParenNtNtCsieiGu2EXtoJ_4core5clone5Clone5clone, symObjAddr: 0xF720, symBinAddr: 0x48FA0, symSize: 0xC0 }
  - { offset: 0xAFD3F, size: 0x8, addend: 0x0, symName: __RNvXsK_NtNtCsdGrGZaRBwMb_3syn3gen5cloneNtNtB9_4expr8ExprPathNtNtCsieiGu2EXtoJ_4core5clone5Clone5clone, symObjAddr: 0xFCC0, symBinAddr: 0x49060, symSize: 0x110 }
  - { offset: 0xAFD73, size: 0x8, addend: 0x0, symName: __RNvXsL_NtNtCsdGrGZaRBwMb_3syn3gen5cloneNtNtB9_4expr9ExprRangeNtNtCsieiGu2EXtoJ_4core5clone5Clone5clone, symObjAddr: 0x102D0, symBinAddr: 0x49170, symSize: 0x100 }
  - { offset: 0xAFDA7, size: 0x8, addend: 0x0, symName: __RNvXsM_NtNtCsdGrGZaRBwMb_3syn3gen5cloneNtNtB9_4expr11ExprRawAddrNtNtCsieiGu2EXtoJ_4core5clone5Clone5clone, symObjAddr: 0x108B0, symBinAddr: 0x49270, symSize: 0x110 }
  - { offset: 0xAFDDB, size: 0x8, addend: 0x0, symName: __RNvXsN_NtNtCsdGrGZaRBwMb_3syn3gen5cloneNtNtB9_4expr13ExprReferenceNtNtCsieiGu2EXtoJ_4core5clone5Clone5clone, symObjAddr: 0x10F10, symBinAddr: 0x49380, symSize: 0x100 }
  - { offset: 0xAFE0F, size: 0x8, addend: 0x0, symName: __RNvXsO_NtNtCsdGrGZaRBwMb_3syn3gen5cloneNtNtB9_4expr10ExprRepeatNtNtCsieiGu2EXtoJ_4core5clone5Clone5clone, symObjAddr: 0x11090, symBinAddr: 0x49480, symSize: 0x130 }
  - { offset: 0xAFE43, size: 0x8, addend: 0x0, symName: __RNvXsP_NtNtCsdGrGZaRBwMb_3syn3gen5cloneNtNtB9_4expr10ExprReturnNtNtCsieiGu2EXtoJ_4core5clone5Clone5clone, symObjAddr: 0x11890, symBinAddr: 0x49BF0, symSize: 0xB0 }
  - { offset: 0xAFE77, size: 0x8, addend: 0x0, symName: __RNvXsQ_NtNtCsdGrGZaRBwMb_3syn3gen5cloneNtNtB9_4expr10ExprStructNtNtCsieiGu2EXtoJ_4core5clone5Clone5clone, symObjAddr: 0x11980, symBinAddr: 0x49CA0, symSize: 0x230 }
  - { offset: 0xAFEAB, size: 0x8, addend: 0x0, symName: __RNvXsR_NtNtCsdGrGZaRBwMb_3syn3gen5cloneNtNtB9_4expr7ExprTryNtNtCsieiGu2EXtoJ_4core5clone5Clone5clone, symObjAddr: 0x11C40, symBinAddr: 0x49ED0, symSize: 0xE0 }
  - { offset: 0xAFEDF, size: 0x8, addend: 0x0, symName: __RNvXsS_NtNtCsdGrGZaRBwMb_3syn3gen5cloneNtNtB9_4expr12ExprTryBlockNtNtCsieiGu2EXtoJ_4core5clone5Clone5clone, symObjAddr: 0x11D60, symBinAddr: 0x49FB0, symSize: 0xC0 }
  - { offset: 0xAFF13, size: 0x8, addend: 0x0, symName: __RNvXsT_NtNtCsdGrGZaRBwMb_3syn3gen5cloneNtNtB9_4expr9ExprTupleNtNtCsieiGu2EXtoJ_4core5clone5Clone5clone, symObjAddr: 0x11EB0, symBinAddr: 0x4A070, symSize: 0xE0 }
  - { offset: 0xAFF47, size: 0x8, addend: 0x0, symName: __RNvXsU_NtNtCsdGrGZaRBwMb_3syn3gen5cloneNtNtB9_4expr9ExprUnaryNtNtCsieiGu2EXtoJ_4core5clone5Clone5clone, symObjAddr: 0x11FD0, symBinAddr: 0x4A150, symSize: 0xD0 }
  - { offset: 0xAFF7B, size: 0x8, addend: 0x0, symName: __RNvXsV_NtNtCsdGrGZaRBwMb_3syn3gen5cloneNtNtB9_4expr10ExprUnsafeNtNtCsieiGu2EXtoJ_4core5clone5Clone5clone, symObjAddr: 0x12130, symBinAddr: 0x4A220, symSize: 0xC0 }
  - { offset: 0xAFFAF, size: 0x8, addend: 0x0, symName: __RNvXsW_NtNtCsdGrGZaRBwMb_3syn3gen5cloneNtNtB9_4expr9ExprWhileNtNtCsieiGu2EXtoJ_4core5clone5Clone5clone, symObjAddr: 0x12230, symBinAddr: 0x4A2E0, symSize: 0x180 }
  - { offset: 0xAFFE3, size: 0x8, addend: 0x0, symName: __RNvXsX_NtNtCsdGrGZaRBwMb_3syn3gen5cloneNtNtB9_4expr9ExprYieldNtNtCsieiGu2EXtoJ_4core5clone5Clone5clone, symObjAddr: 0x12530, symBinAddr: 0x4A460, symSize: 0xB0 }
  - { offset: 0xB0017, size: 0x8, addend: 0x0, symName: __RNvXsk_NtNtCsdGrGZaRBwMb_3syn3gen5cloneNtNtB9_4expr4ExprNtNtCsieiGu2EXtoJ_4core5clone5Clone5clone, symObjAddr: 0x15120, symBinAddr: 0x4C2B0, symSize: 0xE30 }
  - { offset: 0xB050A, size: 0x8, addend: 0x0, symName: __RNvXsl_NtNtCsdGrGZaRBwMb_3syn3gen5cloneNtNtB9_4expr9ExprArrayNtNtCsieiGu2EXtoJ_4core5clone5Clone5clone, symObjAddr: 0x163F0, symBinAddr: 0x4D540, symSize: 0xE0 }
  - { offset: 0xB053E, size: 0x8, addend: 0x0, symName: __RNvXsm_NtNtCsdGrGZaRBwMb_3syn3gen5cloneNtNtB9_4expr10ExprAssignNtNtCsieiGu2EXtoJ_4core5clone5Clone5clone, symObjAddr: 0x16FD0, symBinAddr: 0x4E0E0, symSize: 0x100 }
  - { offset: 0xB0572, size: 0x8, addend: 0x0, symName: __RNvXsn_NtNtCsdGrGZaRBwMb_3syn3gen5cloneNtNtB9_4expr9ExprAsyncNtNtCsieiGu2EXtoJ_4core5clone5Clone5clone, symObjAddr: 0x181D0, symBinAddr: 0x4E770, symSize: 0x100 }
  - { offset: 0xB05A6, size: 0x8, addend: 0x0, symName: __RNvXso_NtNtCsdGrGZaRBwMb_3syn3gen5cloneNtNtB9_4expr9ExprAwaitNtNtCsieiGu2EXtoJ_4core5clone5Clone5clone, symObjAddr: 0x18610, symBinAddr: 0x4EB30, symSize: 0x100 }
  - { offset: 0xB05DA, size: 0x8, addend: 0x0, symName: __RNvXsp_NtNtCsdGrGZaRBwMb_3syn3gen5cloneNtNtB9_4expr10ExprBinaryNtNtCsieiGu2EXtoJ_4core5clone5Clone5clone, symObjAddr: 0x18790, symBinAddr: 0x4EC70, symSize: 0x100 }
  - { offset: 0xB060E, size: 0x8, addend: 0x0, symName: __RNvXsq_NtNtCsdGrGZaRBwMb_3syn3gen5cloneNtNtB9_4expr9ExprBlockNtNtCsieiGu2EXtoJ_4core5clone5Clone5clone, symObjAddr: 0x18C80, symBinAddr: 0x4F050, symSize: 0x110 }
  - { offset: 0xB0642, size: 0x8, addend: 0x0, symName: __RNvXsr_NtNtCsdGrGZaRBwMb_3syn3gen5cloneNtNtB9_4expr9ExprBreakNtNtCsieiGu2EXtoJ_4core5clone5Clone5clone, symObjAddr: 0x194E0, symBinAddr: 0x4F870, symSize: 0x110 }
  - { offset: 0xB0676, size: 0x8, addend: 0x0, symName: __RNvXss_NtNtCsdGrGZaRBwMb_3syn3gen5cloneNtNtB9_4expr8ExprCallNtNtCsieiGu2EXtoJ_4core5clone5Clone5clone, symObjAddr: 0x19930, symBinAddr: 0x4F9D0, symSize: 0x120 }
  - { offset: 0xB06AA, size: 0x8, addend: 0x0, symName: __RNvXst_NtNtCsdGrGZaRBwMb_3syn3gen5cloneNtNtB9_4expr8ExprCastNtNtCsieiGu2EXtoJ_4core5clone5Clone5clone, symObjAddr: 0x1A010, symBinAddr: 0x50070, symSize: 0xF0 }
  - { offset: 0xB06DE, size: 0x8, addend: 0x0, symName: __RNvXsu_NtNtCsdGrGZaRBwMb_3syn3gen5cloneNtNtB9_4expr11ExprClosureNtNtCsieiGu2EXtoJ_4core5clone5Clone5clone, symObjAddr: 0x1A930, symBinAddr: 0x50910, symSize: 0x360 }
  - { offset: 0xB0712, size: 0x8, addend: 0x0, symName: __RNvXsv_NtNtCsdGrGZaRBwMb_3syn3gen5cloneNtNtB9_4expr9ExprConstNtNtCsieiGu2EXtoJ_4core5clone5Clone5clone, symObjAddr: 0x1AF70, symBinAddr: 0x50F10, symSize: 0xC0 }
  - { offset: 0xB0746, size: 0x8, addend: 0x0, symName: __RNvXsw_NtNtCsdGrGZaRBwMb_3syn3gen5cloneNtNtB9_4expr12ExprContinueNtNtCsieiGu2EXtoJ_4core5clone5Clone5clone, symObjAddr: 0x1B110, symBinAddr: 0x51030, symSize: 0xD0 }
  - { offset: 0xB077A, size: 0x8, addend: 0x0, symName: __RNvXsx_NtNtCsdGrGZaRBwMb_3syn3gen5cloneNtNtB9_4expr9ExprFieldNtNtCsieiGu2EXtoJ_4core5clone5Clone5clone, symObjAddr: 0x1B580, symBinAddr: 0x51460, symSize: 0x120 }
  - { offset: 0xB07AE, size: 0x8, addend: 0x0, symName: __RNvXsy_NtNtCsdGrGZaRBwMb_3syn3gen5cloneNtNtB9_4expr11ExprForLoopNtNtCsieiGu2EXtoJ_4core5clone5Clone5clone, symObjAddr: 0x1B830, symBinAddr: 0x51690, symSize: 0x1E0 }
  - { offset: 0xB07E2, size: 0x8, addend: 0x0, symName: __RNvXsz_NtNtCsdGrGZaRBwMb_3syn3gen5cloneNtNtB9_4expr9ExprGroupNtNtCsieiGu2EXtoJ_4core5clone5Clone5clone, symObjAddr: 0x1BAC0, symBinAddr: 0x518E0, symSize: 0xB0 }
  - { offset: 0xB3D13, size: 0x8, addend: 0x0, symName: __RNvMNtCsieiGu2EXtoJ_4core5sliceSNtNtCsdGrGZaRBwMb_3syn4expr3Arm4iterBy_, symObjAddr: 0x1BB0, symBinAddr: 0x447B0, symSize: 0x20 }
  - { offset: 0xB3D4A, size: 0x8, addend: 0x0, symName: __RNvMNtCsieiGu2EXtoJ_4core5sliceSTNtNtCsdGrGZaRBwMb_3syn4expr10FieldValueNtNtBz_5token5CommaE4iterBz_, symObjAddr: 0x1BD0, symBinAddr: 0x447D0, symSize: 0x20 }
  - { offset: 0xB3D81, size: 0x8, addend: 0x0, symName: __RNvMNtCsieiGu2EXtoJ_4core5sliceSTNtNtCsdGrGZaRBwMb_3syn4expr4ExprNtNtBz_5token5CommaE4iterBz_, symObjAddr: 0x1BF0, symBinAddr: 0x447F0, symSize: 0x20 }
  - { offset: 0xB4EFA, size: 0x8, addend: 0x0, symName: __RNvXNtNtCsieiGu2EXtoJ_4core5clone6uninitNtNtCsdGrGZaRBwMb_3syn4expr10FieldValueNtB2_8CopySpec9clone_oneBG_, symObjAddr: 0x4320, symBinAddr: 0x44ED0, symSize: 0x50 }
  - { offset: 0xB4F5F, size: 0x8, addend: 0x0, symName: __RNvXNtNtCsieiGu2EXtoJ_4core5clone6uninitNtNtCsdGrGZaRBwMb_3syn4expr4ExprNtB2_8CopySpec9clone_oneBG_, symObjAddr: 0x4370, symBinAddr: 0x44F20, symSize: 0x50 }
  - { offset: 0xB612F, size: 0x8, addend: 0x0, symName: __RNvMNtCsdGrGZaRBwMb_3syn4exprNtB2_4Expr13replace_attrs, symObjAddr: 0x1370, symBinAddr: 0x43F70, symSize: 0x540 }
  - { offset: 0xB61D4, size: 0x8, addend: 0x0, symName: __RNvMNtCsdGrGZaRBwMb_3syn4exprNtB2_4Expr25parse_without_eager_brace, symObjAddr: 0x18B0, symBinAddr: 0x444B0, symSize: 0x30 }
  - { offset: 0xB61F7, size: 0x8, addend: 0x0, symName: __RNvMNtCsdGrGZaRBwMb_3syn4exprNtB2_4Expr32parse_with_earlier_boundary_rule, symObjAddr: 0x18E0, symBinAddr: 0x444E0, symSize: 0x30 }
  - { offset: 0xB621A, size: 0x8, addend: 0x0, symName: __RNvMNtCsdGrGZaRBwMb_3syn4exprNtB2_4Expr4peek, symObjAddr: 0x1910, symBinAddr: 0x44510, symSize: 0x2A0 }
  - { offset: 0xB63AA, size: 0x8, addend: 0x0, symName: __RNvMs6_NtCsdGrGZaRBwMb_3syn4exprNtB5_6Member8is_named, symObjAddr: 0x2C10, symBinAddr: 0x44810, symSize: 0x40 }
  - { offset: 0xB64AA, size: 0x8, addend: 0x0, symName: __RNvMsv_NtNtCsdGrGZaRBwMb_3syn4expr7parsingNtB7_11RangeLimits14parse_obsolete, symObjAddr: 0x3B20, symBinAddr: 0x44850, symSize: 0x3C0 }
  - { offset: 0xB6580, size: 0x8, addend: 0x0, symName: __RNvMsy_NtNtCsdGrGZaRBwMb_3syn4expr7parsingNtB7_3Arm14parse_multiple, symObjAddr: 0x4060, symBinAddr: 0x44C10, symSize: 0x1E0 }
  - { offset: 0xB65E8, size: 0x8, addend: 0x0, symName: __RNvXNtCs9OU1sGv5X54_5quote9to_tokensRNtNtCsdGrGZaRBwMb_3syn4expr10FieldValueNtB2_8ToTokens9to_tokensBD_, symObjAddr: 0x4240, symBinAddr: 0x44DF0, symSize: 0x30 }
  - { offset: 0xB6627, size: 0x8, addend: 0x0, symName: __RNvXNtCs9OU1sGv5X54_5quote9to_tokensRNtNtCsdGrGZaRBwMb_3syn4expr4ExprNtB2_8ToTokens9to_tokensBD_, symObjAddr: 0x4270, symBinAddr: 0x44E20, symSize: 0x30 }
  - { offset: 0xB740E, size: 0x8, addend: 0x0, symName: __RNvNvMsd_NtNtCsieiGu2EXtoJ_4core3num7nonzeroINtB7_7NonZeropE13new_unchecked18precondition_checkCsdGrGZaRBwMb_3syn, symObjAddr: 0x17360, symBinAddr: 0x67DC0, symSize: 0x80 }
  - { offset: 0xB7F20, size: 0x8, addend: 0x0, symName: __RNvNvMNtNtCsieiGu2EXtoJ_4core3ptr9const_ptrPp20offset_from_unsigned18precondition_checkCsdGrGZaRBwMb_3syn, symObjAddr: 0x171B0, symBinAddr: 0x67C10, symSize: 0xA0 }
  - { offset: 0xB8059, size: 0x8, addend: 0x0, symName: __RNvNvMNtNtCsieiGu2EXtoJ_4core3ptr9const_ptrPp6offset18precondition_checkCsdGrGZaRBwMb_3syn, symObjAddr: 0x17250, symBinAddr: 0x67CB0, symSize: 0x110 }
  - { offset: 0xB8736, size: 0x8, addend: 0x0, symName: __RNvXs0_NtCsieiGu2EXtoJ_4core4cellINtB5_4CellNtNtCsdGrGZaRBwMb_3syn6buffer6CursorENtNtB7_5clone5Clone5cloneBK_, symObjAddr: 0x17B50, symBinAddr: 0x685B0, symSize: 0x20 }
  - { offset: 0xB8791, size: 0x8, addend: 0x0, symName: __RNvXsD_NtCsieiGu2EXtoJ_4core4cellNtB5_12BorrowRefMutNtNtNtB7_3ops4drop4Drop4dropCsdGrGZaRBwMb_3syn, symObjAddr: 0x191B0, symBinAddr: 0x68DD0, symSize: 0x20 }
  - { offset: 0xB8801, size: 0x8, addend: 0x0, symName: __RNvXsG_NtCsieiGu2EXtoJ_4core4cellINtB5_6RefMutINtNtCslJiobkLta79_5alloc3vec3VecReEENtNtNtB7_3ops5deref8DerefMut9deref_mutCsdGrGZaRBwMb_3syn, symObjAddr: 0x191D0, symBinAddr: 0x68DF0, symSize: 0x10 }
  - { offset: 0xBAB34, size: 0x8, addend: 0x0, symName: __RNvXs19_NtCsieiGu2EXtoJ_4core3fmtRNtNtCsdGrGZaRBwMb_3syn5error12ErrorMessageNtB6_5Debug3fmtBA_, symObjAddr: 0x17E20, symBinAddr: 0x68640, symSize: 0x20 }
  - { offset: 0xBAB80, size: 0x8, addend: 0x0, symName: __RNvXsq_NtCsieiGu2EXtoJ_4core3fmtSNtNtCsdGrGZaRBwMb_3syn5error12ErrorMessageNtB5_5Debug3fmtBz_, symObjAddr: 0x19CE0, symBinAddr: 0x690F0, symSize: 0x80 }
  - { offset: 0xBBB5C, size: 0x8, addend: 0x0, symName: __RINvNtCsieiGu2EXtoJ_4core3mem7replaceINtNtCslJiobkLta79_5alloc3vec3VecNtNtCsdGrGZaRBwMb_3syn4attr9AttributeEEB1a_, symObjAddr: 0x1450, symBinAddr: 0x53880, symSize: 0x40 }
  - { offset: 0xBBBA2, size: 0x8, addend: 0x0, symName: __RINvNtCsieiGu2EXtoJ_4core3mem7replaceNtNtCsdGrGZaRBwMb_3syn4expr4ExprEBD_, symObjAddr: 0x1490, symBinAddr: 0x538C0, symSize: 0x50 }
  - { offset: 0xBC0FC, size: 0x8, addend: 0x0, symName: __RNvXs_NtNtCsieiGu2EXtoJ_4core5slice4iterRSNtNtCsdGrGZaRBwMb_3syn4attr9AttributeNtNtNtNtB8_4iter6traits7collect12IntoIterator9into_iterBI_, symObjAddr: 0x196F0, symBinAddr: 0x69000, symSize: 0x50 }
  - { offset: 0xBC354, size: 0x8, addend: 0x0, symName: __RNvMNtCsieiGu2EXtoJ_4core5sliceSNtNtCsdGrGZaRBwMb_3syn4attr9Attribute4iterBy_, symObjAddr: 0x4080, symBinAddr: 0x55E80, symSize: 0x20 }
  - { offset: 0xBC38B, size: 0x8, addend: 0x0, symName: __RNvMNtCsieiGu2EXtoJ_4core5sliceSTNtNtCsdGrGZaRBwMb_3syn8lifetime8LifetimeNtNtBz_5token4PlusE4iterBz_, symObjAddr: 0x40C0, symBinAddr: 0x55EA0, symSize: 0x20 }
  - { offset: 0xBC865, size: 0x8, addend: 0x0, symName: __RNvXNtNtCsieiGu2EXtoJ_4core5clone6uninitNtNtCsdGrGZaRBwMb_3syn8lifetime8LifetimeNtB2_8CopySpec9clone_oneBG_, symObjAddr: 0x179D0, symBinAddr: 0x68430, symSize: 0x50 }
  - { offset: 0xBDDA1, size: 0x8, addend: 0x0, symName: __RNvXsB_NtCslJiobkLta79_5alloc6stringNtNtCsieiGu2EXtoJ_4core3fmt9ArgumentsNtB5_12SpecToString14spec_to_stringCsdGrGZaRBwMb_3syn, symObjAddr: 0x19170, symBinAddr: 0x68D90, symSize: 0x40 }
  - { offset: 0xBDDD5, size: 0x8, addend: 0x0, symName: __RNvXsw_NtCslJiobkLta79_5alloc6stringNtNtCsdGrGZaRBwMb_3syn5error5ErrorNtB5_8ToString9to_stringBC_, symObjAddr: 0x19D60, symBinAddr: 0x69170, symSize: 0x30 }
  - { offset: 0xBDE0C, size: 0x8, addend: 0x0, symName: __RNvXsw_NtCslJiobkLta79_5alloc6stringNtNtCsieiGu2EXtoJ_4core3fmt9ArgumentsNtB5_8ToString9to_stringCsdGrGZaRBwMb_3syn, symObjAddr: 0x19D90, symBinAddr: 0x691A0, symSize: 0x30 }
  - { offset: 0xBDE49, size: 0x8, addend: 0x0, symName: __RNvXsx_NtCslJiobkLta79_5alloc6stringNtNtCsdGrGZaRBwMb_3syn5error5ErrorNtB5_12SpecToString14spec_to_stringBC_, symObjAddr: 0x19DC0, symBinAddr: 0x691D0, symSize: 0x120 }
  - { offset: 0xBDFD9, size: 0x8, addend: 0x0, symName: __RINvMNtCslJiobkLta79_5alloc5sliceSNtNtCsdGrGZaRBwMb_3syn5error12ErrorMessage8into_vecNtNtB5_5alloc6GlobalEBA_, symObjAddr: 0xD50, symBinAddr: 0x53210, symSize: 0x40 }
  - { offset: 0xBE08D, size: 0x8, addend: 0x0, symName: __RINvXNvMNtCslJiobkLta79_5alloc5sliceSp9to_vec_inNtNtCsdGrGZaRBwMb_3syn4attr9AttributeNtB3_10ConvertVec6to_vecNtNtB8_5alloc6GlobalEBO_, symObjAddr: 0x18F0, symBinAddr: 0x53D20, symSize: 0x490 }
  - { offset: 0xBE5E1, size: 0x8, addend: 0x0, symName: __RINvXNvMNtCslJiobkLta79_5alloc5sliceSp9to_vec_inNtNtCsdGrGZaRBwMb_3syn5error12ErrorMessageNtB3_10ConvertVec6to_vecNtNtB8_5alloc6GlobalEBO_, symObjAddr: 0x1D80, symBinAddr: 0x541B0, symSize: 0x490 }
  - { offset: 0xBEB35, size: 0x8, addend: 0x0, symName: __RINvXNvMNtCslJiobkLta79_5alloc5sliceSp9to_vec_inTNtNtCsdGrGZaRBwMb_3syn8lifetime8LifetimeNtNtBP_5token4PlusENtB3_10ConvertVec6to_vecNtNtB8_5alloc6GlobalEBP_, symObjAddr: 0x2210, symBinAddr: 0x54640, symSize: 0x490 }
  - { offset: 0xBFC05, size: 0x8, addend: 0x0, symName: __RINvNtNtCsdGrGZaRBwMb_3syn5token7parsing5punctKj1_EB6_, symObjAddr: 0x14E0, symBinAddr: 0x53910, symSize: 0x150 }
  - { offset: 0xBFC7F, size: 0x8, addend: 0x0, symName: __RINvNtNtCsdGrGZaRBwMb_3syn5token7parsing5punctKj2_EB6_, symObjAddr: 0x1630, symBinAddr: 0x53A60, symSize: 0x150 }
  - { offset: 0xBFCF9, size: 0x8, addend: 0x0, symName: __RINvNtNtCsdGrGZaRBwMb_3syn5token7parsing5punctKj3_EB6_, symObjAddr: 0x1780, symBinAddr: 0x53BB0, symSize: 0x170 }
  - { offset: 0xBFD79, size: 0x8, addend: 0x0, symName: __RNCNvNtNtCsdGrGZaRBwMb_3syn5token7parsing12punct_helper0B7_, symObjAddr: 0x27E0, symBinAddr: 0x54C10, symSize: 0x4B0 }
  - { offset: 0xBFEDC, size: 0x8, addend: 0x0, symName: __RNCNvNtNtCsdGrGZaRBwMb_3syn5token7parsing7keyword0B7_, symObjAddr: 0x2C90, symBinAddr: 0x550C0, symSize: 0x2E0 }
  - { offset: 0xBFF83, size: 0x8, addend: 0x0, symName: __RNvNtNtCsdGrGZaRBwMb_3syn5token7parsing10peek_punct, symObjAddr: 0x16550, symBinAddr: 0x66FB0, symSize: 0x250 }
  - { offset: 0xC0024, size: 0x8, addend: 0x0, symName: __RNvNtNtCsdGrGZaRBwMb_3syn5token7parsing12peek_keyword, symObjAddr: 0x167A0, symBinAddr: 0x67200, symSize: 0x100 }
  - { offset: 0xC0089, size: 0x8, addend: 0x0, symName: __RNvNtNtCsdGrGZaRBwMb_3syn5token7parsing12punct_helper, symObjAddr: 0x168A0, symBinAddr: 0x67300, symSize: 0x50 }
  - { offset: 0xC00D5, size: 0x8, addend: 0x0, symName: __RNvNtNtCsdGrGZaRBwMb_3syn5token7parsing7keyword, symObjAddr: 0x168F0, symBinAddr: 0x67350, symSize: 0x40 }
  - { offset: 0xC0118, size: 0x8, addend: 0x0, symName: __RNvNtNtCsdGrGZaRBwMb_3syn5token8printing5delim, symObjAddr: 0x16930, symBinAddr: 0x67390, symSize: 0xC0 }
  - { offset: 0xC0188, size: 0x8, addend: 0x0, symName: __RNvNtNtCsdGrGZaRBwMb_3syn5token8printing5punct, symObjAddr: 0x169F0, symBinAddr: 0x67450, symSize: 0x2A0 }
  - { offset: 0xC0323, size: 0x8, addend: 0x0, symName: __RNvNtNtCsdGrGZaRBwMb_3syn5token8printing7keyword, symObjAddr: 0x16C90, symBinAddr: 0x676F0, symSize: 0x60 }
  - { offset: 0xC0371, size: 0x8, addend: 0x0, symName: __RNvXsq_NtCsdGrGZaRBwMb_3syn5tokenNtNtB7_8lifetime8LifetimeNtB5_5Token4peek, symObjAddr: 0x19BC0, symBinAddr: 0x69050, symSize: 0x80 }
  - { offset: 0xC039D, size: 0x8, addend: 0x0, symName: __RNvXsq_NtCsdGrGZaRBwMb_3syn5tokenNtNtB7_8lifetime8LifetimeNtB5_5Token7display, symObjAddr: 0x19C40, symBinAddr: 0x690D0, symSize: 0x20 }
  - { offset: 0xC07ED, size: 0x8, addend: 0x0, symName: __RNvXNtNtCsdGrGZaRBwMb_3syn8lifetime7parsingNtB4_8LifetimeNtNtB6_5parse5Parse5parse, symObjAddr: 0x17940, symBinAddr: 0x683A0, symSize: 0x30 }
  - { offset: 0xC0825, size: 0x8, addend: 0x0, symName: __RNvXNtNtCsdGrGZaRBwMb_3syn8lifetime8printingNtB4_8LifetimeNtNtCs9OU1sGv5X54_5quote9to_tokens8ToTokens9to_tokens, symObjAddr: 0x17970, symBinAddr: 0x683D0, symSize: 0x60 }
  - { offset: 0xC0862, size: 0x8, addend: 0x0, symName: __RNvXs0_NtCsdGrGZaRBwMb_3syn8lifetimeNtB5_8LifetimeNtNtCsieiGu2EXtoJ_4core5clone5Clone5clone, symObjAddr: 0x17AF0, symBinAddr: 0x68550, symSize: 0x60 }
  - { offset: 0xC1E17, size: 0x8, addend: 0x0, symName: __RNCNvNtNtCsdGrGZaRBwMb_3syn4expr7parsing11multi_index0B7_, symObjAddr: 0x27B0, symBinAddr: 0x54BE0, symSize: 0x30 }
  - { offset: 0xC1E62, size: 0x8, addend: 0x0, symName: __RNCNvXsA_NtNtCsdGrGZaRBwMb_3syn4expr7parsingNtB9_5IndexNtNtBb_5parse5Parse5parse0Bb_, symObjAddr: 0x3030, symBinAddr: 0x55460, symSize: 0x50 }
  - { offset: 0xC1EA3, size: 0x8, addend: 0x0, symName: __RNvNtNtCsdGrGZaRBwMb_3syn4expr7parsing10check_cast, symObjAddr: 0x5E90, symBinAddr: 0x568F0, symSize: 0x300 }
  - { offset: 0xC1F4C, size: 0x8, addend: 0x0, symName: __RNvNtNtCsdGrGZaRBwMb_3syn4expr7parsing10expr_attrs, symObjAddr: 0x6190, symBinAddr: 0x56BF0, symSize: 0x200 }
  - { offset: 0xC1FB0, size: 0x8, addend: 0x0, symName: __RNvNtNtCsdGrGZaRBwMb_3syn4expr7parsing10expr_break, symObjAddr: 0x6390, symBinAddr: 0x56DF0, symSize: 0x760 }
  - { offset: 0xC2145, size: 0x8, addend: 0x0, symName: __RNvNtNtCsdGrGZaRBwMb_3syn4expr7parsing10expr_group, symObjAddr: 0x6AF0, symBinAddr: 0x57550, symSize: 0x9C0 }
  - { offset: 0xC2314, size: 0x8, addend: 0x0, symName: __RNvNtNtCsdGrGZaRBwMb_3syn4expr7parsing10expr_range, symObjAddr: 0x74B0, symBinAddr: 0x57F10, symSize: 0x260 }
  - { offset: 0xC2402, size: 0x8, addend: 0x0, symName: __RNvNtNtCsdGrGZaRBwMb_3syn4expr7parsing10expr_unary, symObjAddr: 0x7710, symBinAddr: 0x58170, symSize: 0x340 }
  - { offset: 0xC24AC, size: 0x8, addend: 0x0, symName: __RNvNtNtCsdGrGZaRBwMb_3syn4expr7parsing10parse_expr, symObjAddr: 0x7A50, symBinAddr: 0x584B0, symSize: 0x12D0 }
  - { offset: 0xC282C, size: 0x8, addend: 0x0, symName: __RNvNtNtCsdGrGZaRBwMb_3syn4expr7parsing10unary_expr, symObjAddr: 0x8D20, symBinAddr: 0x59780, symSize: 0xC50 }
  - { offset: 0xC2A4C, size: 0x8, addend: 0x0, symName: __RNvNtNtCsdGrGZaRBwMb_3syn4expr7parsing11closure_arg, symObjAddr: 0x9970, symBinAddr: 0x5A3D0, symSize: 0x1330 }
  - { offset: 0xC2CCE, size: 0x8, addend: 0x0, symName: __RNvNtNtCsdGrGZaRBwMb_3syn4expr7parsing11expr_become, symObjAddr: 0xACA0, symBinAddr: 0x5B700, symSize: 0x290 }
  - { offset: 0xC2D60, size: 0x8, addend: 0x0, symName: __RNvNtNtCsdGrGZaRBwMb_3syn4expr7parsing11multi_index, symObjAddr: 0xAF30, symBinAddr: 0x5B990, symSize: 0x8E0 }
  - { offset: 0xC2F08, size: 0x8, addend: 0x0, symName: __RNvNtNtCsdGrGZaRBwMb_3syn4expr7parsing12atom_labeled, symObjAddr: 0xB810, symBinAddr: 0x5C270, symSize: 0x8D0 }
  - { offset: 0xC301D, size: 0x8, addend: 0x0, symName: __RNvNtNtCsdGrGZaRBwMb_3syn4expr7parsing12expr_builtin, symObjAddr: 0xC0E0, symBinAddr: 0x5CB40, symSize: 0x620 }
  - { offset: 0xC3148, size: 0x8, addend: 0x0, symName: __RNvNtNtCsdGrGZaRBwMb_3syn4expr7parsing12expr_closure, symObjAddr: 0xC700, symBinAddr: 0x5D160, symSize: 0x12F0 }
  - { offset: 0xC352A, size: 0x8, addend: 0x0, symName: __RNvNtNtCsdGrGZaRBwMb_3syn4expr7parsing12trailer_expr, symObjAddr: 0xD9F0, symBinAddr: 0x5E450, symSize: 0x740 }
  - { offset: 0xC36DF, size: 0x8, addend: 0x0, symName: __RNvNtNtCsdGrGZaRBwMb_3syn4expr7parsing14ambiguous_expr, symObjAddr: 0xE130, symBinAddr: 0x5EB90, symSize: 0x1C0 }
  - { offset: 0xC3779, size: 0x8, addend: 0x0, symName: __RNvNtNtCsdGrGZaRBwMb_3syn4expr7parsing14paren_or_tuple, symObjAddr: 0xE2F0, symBinAddr: 0x5ED50, symSize: 0x9A0 }
  - { offset: 0xC3918, size: 0x8, addend: 0x0, symName: __RNvNtNtCsdGrGZaRBwMb_3syn4expr7parsing14trailer_helper, symObjAddr: 0xEC90, symBinAddr: 0x5F6F0, symSize: 0x22E0 }
  - { offset: 0xC3D0F, size: 0x8, addend: 0x0, symName: __RNvNtNtCsdGrGZaRBwMb_3syn4expr7parsing15array_or_repeat, symObjAddr: 0x10F70, symBinAddr: 0x619D0, symSize: 0xD60 }
  - { offset: 0xC3F52, size: 0x8, addend: 0x0, symName: __RNvNtNtCsdGrGZaRBwMb_3syn4expr7parsing15parse_binop_rhs, symObjAddr: 0x11CD0, symBinAddr: 0x62730, symSize: 0x4B0 }
  - { offset: 0xC4058, size: 0x8, addend: 0x0, symName: __RNvNtNtCsdGrGZaRBwMb_3syn4expr7parsing15parse_range_end, symObjAddr: 0x12180, symBinAddr: 0x62BE0, symSize: 0x3F0 }
  - { offset: 0xC40E0, size: 0x8, addend: 0x0, symName: __RNvNtNtCsdGrGZaRBwMb_3syn4expr7parsing15peek_precedence, symObjAddr: 0x12570, symBinAddr: 0x62FD0, symSize: 0x190 }
  - { offset: 0xC4124, size: 0x8, addend: 0x0, symName: __RNvNtNtCsdGrGZaRBwMb_3syn4expr7parsing18expr_struct_helper, symObjAddr: 0x12700, symBinAddr: 0x63160, symSize: 0xC50 }
  - { offset: 0xC4286, size: 0x8, addend: 0x0, symName: __RNvNtNtCsdGrGZaRBwMb_3syn4expr7parsing22continue_parsing_early, symObjAddr: 0x13350, symBinAddr: 0x63DB0, symSize: 0x140 }
  - { offset: 0xC42CA, size: 0x8, addend: 0x0, symName: __RNvNtNtCsdGrGZaRBwMb_3syn4expr7parsing23path_or_macro_or_struct, symObjAddr: 0x13490, symBinAddr: 0x63EF0, symSize: 0x290 }
  - { offset: 0xC436C, size: 0x8, addend: 0x0, symName: __RNvNtNtCsdGrGZaRBwMb_3syn4expr7parsing31rest_of_path_or_macro_or_struct, symObjAddr: 0x13720, symBinAddr: 0x64180, symSize: 0x720 }
  - { offset: 0xC4437, size: 0x8, addend: 0x0, symName: __RNvNtNtCsdGrGZaRBwMb_3syn4expr7parsing32parse_with_earlier_boundary_rule, symObjAddr: 0x13E40, symBinAddr: 0x648A0, symSize: 0x1540 }
  - { offset: 0xC470E, size: 0x8, addend: 0x0, symName: __RNvNtNtCsdGrGZaRBwMb_3syn4expr7parsing8expr_let, symObjAddr: 0x15380, symBinAddr: 0x65DE0, symSize: 0x780 }
  - { offset: 0xC4853, size: 0x8, addend: 0x0, symName: __RNvNtNtCsdGrGZaRBwMb_3syn4expr7parsing9atom_expr, symObjAddr: 0x15B00, symBinAddr: 0x66560, symSize: 0xA50 }
  - { offset: 0xC4AF0, size: 0x8, addend: 0x0, symName: __RNcNtNtNtCsdGrGZaRBwMb_3syn4attr4Meta4List0B7_, symObjAddr: 0x3330, symBinAddr: 0x554B0, symSize: 0x40 }
  - { offset: 0xC4B21, size: 0x8, addend: 0x0, symName: __RNcNtNtNtCsdGrGZaRBwMb_3syn4attr4Meta9NameValue0B7_, symObjAddr: 0x3370, symBinAddr: 0x554F0, symSize: 0x30 }
  - { offset: 0xC4B58, size: 0x8, addend: 0x0, symName: __RNvNvXs1_NtCsdGrGZaRBwMb_3syn4attrRSNtB7_9AttributeNtB7_11FilterAttrs5inner8is_inner, symObjAddr: 0x175D0, symBinAddr: 0x68030, symSize: 0x40 }
  - { offset: 0xC4B8C, size: 0x8, addend: 0x0, symName: __RNvNvXs1_NtCsdGrGZaRBwMb_3syn4attrRSNtB7_9AttributeNtB7_11FilterAttrs5outer8is_outer, symObjAddr: 0x17610, symBinAddr: 0x68070, symSize: 0x40 }
  - { offset: 0xC4BBB, size: 0x8, addend: 0x0, symName: __RNvXs1_NtCsdGrGZaRBwMb_3syn4attrRSNtB5_9AttributeNtB5_11FilterAttrs5inner, symObjAddr: 0x181A0, symBinAddr: 0x689A0, symSize: 0x60 }
  - { offset: 0xC4BE9, size: 0x8, addend: 0x0, symName: __RNvXs1_NtCsdGrGZaRBwMb_3syn4attrRSNtB5_9AttributeNtB5_11FilterAttrs5outer, symObjAddr: 0x18200, symBinAddr: 0x68A00, symSize: 0x60 }
  - { offset: 0xC4C22, size: 0x8, addend: 0x0, symName: __RNvXNtNtCsdGrGZaRBwMb_3syn4attr7parsingNtB4_4MetaNtNtB6_5parse5Parse5parse, symObjAddr: 0x176B0, symBinAddr: 0x68110, symSize: 0x200 }
  - { offset: 0xC4CB9, size: 0x8, addend: 0x0, symName: __RNvXNtNtCsdGrGZaRBwMb_3syn4attr8printingNtB4_9AttributeNtNtCs9OU1sGv5X54_5quote9to_tokens8ToTokens9to_tokens, symObjAddr: 0x178B0, symBinAddr: 0x68310, symSize: 0x90 }
  - { offset: 0xC4D16, size: 0x8, addend: 0x0, symName: __RNvXs0_NtNtCsdGrGZaRBwMb_3syn4attr8printingNtB7_8MetaListNtNtCs9OU1sGv5X54_5quote9to_tokens8ToTokens9to_tokens, symObjAddr: 0x17D70, symBinAddr: 0x685D0, symSize: 0x70 }
  - { offset: 0xC4D55, size: 0x8, addend: 0x0, symName: __RNvXs1_NtNtCsdGrGZaRBwMb_3syn4attr8printingNtB7_13MetaNameValueNtNtCs9OU1sGv5X54_5quote9to_tokens8ToTokens9to_tokens, symObjAddr: 0x182E0, symBinAddr: 0x68A90, symSize: 0x70 }
  - { offset: 0xC4D94, size: 0x8, addend: 0x0, symName: __RNvXs_NtNtCsdGrGZaRBwMb_3syn4attr8printingNtB6_4MetaNtNtCs9OU1sGv5X54_5quote9to_tokens8ToTokens9to_tokens, symObjAddr: 0x19640, symBinAddr: 0x68F50, symSize: 0xB0 }
  - { offset: 0xC7739, size: 0x8, addend: 0x0, symName: __RINvNtCsdGrGZaRBwMb_3syn5error4new2ReEB4_, symObjAddr: 0xE60, symBinAddr: 0x53290, symSize: 0x80 }
  - { offset: 0xC778E, size: 0x8, addend: 0x0, symName: __RINvNtCsdGrGZaRBwMb_3syn5error6new_atNtNtCsieiGu2EXtoJ_4core3fmt9ArgumentsEB4_, symObjAddr: 0xEE0, symBinAddr: 0x53310, symSize: 0x1E0 }
  - { offset: 0xC7840, size: 0x8, addend: 0x0, symName: __RINvNtCsdGrGZaRBwMb_3syn5error6new_atNtNtCslJiobkLta79_5alloc6string6StringEB4_, symObjAddr: 0x10C0, symBinAddr: 0x534F0, symSize: 0x1E0 }
  - { offset: 0xC78F2, size: 0x8, addend: 0x0, symName: __RINvNtCsdGrGZaRBwMb_3syn5error6new_atReEB4_, symObjAddr: 0x12A0, symBinAddr: 0x536D0, symSize: 0x1B0 }
  - { offset: 0xC79B3, size: 0x8, addend: 0x0, symName: __RNCNvNvMNtCsdGrGZaRBwMb_3syn5errorNtB6_5Error11new_spanned11new_spanned0B8_, symObjAddr: 0x2F70, symBinAddr: 0x553A0, symSize: 0x60 }
  - { offset: 0xC79EA, size: 0x8, addend: 0x0, symName: __RNCNvNvMNtCsdGrGZaRBwMb_3syn5errorNtB6_5Error11new_spanned11new_spanneds_0B8_, symObjAddr: 0x2FD0, symBinAddr: 0x55400, symSize: 0x60 }
  - { offset: 0xC7A30, size: 0x8, addend: 0x0, symName: __RNvNvMNtCsdGrGZaRBwMb_3syn5errorNtB4_5Error11new_spanned11new_spanned, symObjAddr: 0x16CF0, symBinAddr: 0x67750, symSize: 0x2E0 }
  - { offset: 0xC7AB2, size: 0x8, addend: 0x0, symName: __RNvNvMNtCsdGrGZaRBwMb_3syn5errorNtB4_5Error3new3new, symObjAddr: 0x16FD0, symBinAddr: 0x67A30, symSize: 0x1E0 }
  - { offset: 0xC7AF4, size: 0x8, addend: 0x0, symName: __RNvNvNtCsdGrGZaRBwMb_3syn5error4new24new2, symObjAddr: 0x173E0, symBinAddr: 0x67E40, symSize: 0x1F0 }
  - { offset: 0xC7B47, size: 0x8, addend: 0x0, symName: __RNvXs0_NtCsdGrGZaRBwMb_3syn5errorNtB5_5ErrorNtNtCsieiGu2EXtoJ_4core3fmt5Debug3fmt, symObjAddr: 0x17A20, symBinAddr: 0x68480, symSize: 0xD0 }
  - { offset: 0xC7B8A, size: 0x8, addend: 0x0, symName: __RNvXs1_NtCsdGrGZaRBwMb_3syn5errorNtB5_12ErrorMessageNtNtCsieiGu2EXtoJ_4core3fmt5Debug3fmt, symObjAddr: 0x18260, symBinAddr: 0x68A60, symSize: 0x30 }
  - { offset: 0xC7BCD, size: 0x8, addend: 0x0, symName: __RNvXs2_NtCsdGrGZaRBwMb_3syn5errorNtB5_5ErrorNtNtCsieiGu2EXtoJ_4core3fmt7Display3fmt, symObjAddr: 0x18590, symBinAddr: 0x68B00, symSize: 0x50 }
  - { offset: 0xC7C10, size: 0x8, addend: 0x0, symName: __RNvXs3_NtCsdGrGZaRBwMb_3syn5errorNtB5_5ErrorNtNtCsieiGu2EXtoJ_4core5clone5Clone5clone, symObjAddr: 0x18930, symBinAddr: 0x68B50, symSize: 0x60 }
  - { offset: 0xC7C44, size: 0x8, addend: 0x0, symName: __RNvXs4_NtCsdGrGZaRBwMb_3syn5errorNtB5_12ErrorMessageNtNtCsieiGu2EXtoJ_4core5clone5Clone5clone, symObjAddr: 0x18BA0, symBinAddr: 0x68BB0, symSize: 0x80 }
  - { offset: 0xC7C78, size: 0x8, addend: 0x0, symName: __RNvXs8_NtCsdGrGZaRBwMb_3syn5errorNtB5_5ErrorINtNtCsieiGu2EXtoJ_4core7convert4FromNtCsaKzlTDPUHDb_11proc_macro28LexErrorE4from, symObjAddr: 0x19000, symBinAddr: 0x68D50, symSize: 0x40 }
  - { offset: 0xC8458, size: 0x8, addend: 0x0, symName: __RNCNvMNtCsdGrGZaRBwMb_3syn9lookaheadNtB4_10Lookahead15error0B6_, symObjAddr: 0x26A0, symBinAddr: 0x54AD0, symSize: 0x110 }
  - { offset: 0xC8497, size: 0x8, addend: 0x0, symName: __RNvNtCsdGrGZaRBwMb_3syn9lookahead3new, symObjAddr: 0x5D20, symBinAddr: 0x56780, symSize: 0x90 }
  - { offset: 0xC84D1, size: 0x8, addend: 0x0, symName: __RNvNtCsdGrGZaRBwMb_3syn9lookahead9peek_impl, symObjAddr: 0x5DB0, symBinAddr: 0x56810, symSize: 0xE0 }
  - { offset: 0xC851E, size: 0x8, addend: 0x0, symName: __RNvXs_NtCsdGrGZaRBwMb_3syn9lookaheadNtB4_14CommaSeparatedNtNtCsieiGu2EXtoJ_4core3fmt7Display3fmt, symObjAddr: 0x192F0, symBinAddr: 0x68E00, symSize: 0x150 }
  - { offset: 0xC87E7, size: 0x8, addend: 0x0, symName: __RNvNtCsdGrGZaRBwMb_3syn5ident6xid_ok, symObjAddr: 0x5C00, symBinAddr: 0x56670, symSize: 0x110 }
  - { offset: 0xC8895, size: 0x8, addend: 0x0, symName: __RNvXs1L_NtNtCsdGrGZaRBwMb_3syn3gen5cloneNtNtBa_4attr4MetaNtNtCsieiGu2EXtoJ_4core5clone5Clone5clone, symObjAddr: 0x17E60, symBinAddr: 0x68660, symSize: 0x150 }
  - { offset: 0xC891B, size: 0x8, addend: 0x0, symName: __RNvXs1M_NtNtCsdGrGZaRBwMb_3syn3gen5cloneNtNtBa_4attr8MetaListNtNtCsieiGu2EXtoJ_4core5clone5Clone5clone, symObjAddr: 0x17FB0, symBinAddr: 0x687B0, symSize: 0xE0 }
  - { offset: 0xC894F, size: 0x8, addend: 0x0, symName: __RNvXs1N_NtNtCsdGrGZaRBwMb_3syn3gen5cloneNtNtBa_4attr13MetaNameValueNtNtCsieiGu2EXtoJ_4core5clone5Clone5clone, symObjAddr: 0x18090, symBinAddr: 0x68890, symSize: 0x110 }
  - { offset: 0xC8983, size: 0x8, addend: 0x0, symName: __RNvXs4_NtNtCsdGrGZaRBwMb_3syn3gen5cloneNtNtB9_4attr9AttrStyleNtNtCsieiGu2EXtoJ_4core5clone5Clone5clone, symObjAddr: 0x18C50, symBinAddr: 0x68C30, symSize: 0x20 }
  - { offset: 0xC89B5, size: 0x8, addend: 0x0, symName: __RNvXs5_NtNtCsdGrGZaRBwMb_3syn3gen5cloneNtNtB9_4attr9AttributeNtNtCsieiGu2EXtoJ_4core5clone5Clone5clone, symObjAddr: 0x18D90, symBinAddr: 0x68C50, symSize: 0x100 }
  - { offset: 0xC8FB3, size: 0x8, addend: 0x0, symName: __RINvMNtCsdGrGZaRBwMb_3syn5errorNtB3_5Error11new_spannedRNtNtB5_2ty4TypeReEB5_, symObjAddr: 0xB0, symBinAddr: 0x52570, symSize: 0xB0 }
  - { offset: 0xC8FF6, size: 0x8, addend: 0x0, symName: __RINvMNtCsdGrGZaRBwMb_3syn5errorNtB3_5Error3newBt_EB5_, symObjAddr: 0x160, symBinAddr: 0x52620, symSize: 0x80 }
  - { offset: 0xC9031, size: 0x8, addend: 0x0, symName: __RINvMNtCsdGrGZaRBwMb_3syn5errorNtB3_5Error3newNtCsaKzlTDPUHDb_11proc_macro28LexErrorEB5_, symObjAddr: 0x1E0, symBinAddr: 0x526A0, symSize: 0x70 }
  - { offset: 0xC9165, size: 0x8, addend: 0x0, symName: __RINvMNtCsdGrGZaRBwMb_3syn5errorNtB3_5Error3newNtNtCsieiGu2EXtoJ_4core3fmt9ArgumentsEB5_, symObjAddr: 0x250, symBinAddr: 0x52710, symSize: 0x70 }
  - { offset: 0xC91A0, size: 0x8, addend: 0x0, symName: __RINvMNtCsdGrGZaRBwMb_3syn5errorNtB3_5Error3newNtNtCslJiobkLta79_5alloc6string6StringEB5_, symObjAddr: 0x2C0, symBinAddr: 0x52780, symSize: 0x80 }
  - { offset: 0xC91DB, size: 0x8, addend: 0x0, symName: __RINvMNtCsdGrGZaRBwMb_3syn5errorNtB3_5Error3newNtNtNtCsieiGu2EXtoJ_4core3num5error13ParseIntErrorEB5_, symObjAddr: 0x340, symBinAddr: 0x52800, symSize: 0x70 }
  - { offset: 0xC9214, size: 0x8, addend: 0x0, symName: __RINvMNtCsdGrGZaRBwMb_3syn5errorNtB3_5Error3newReEB5_, symObjAddr: 0x3B0, symBinAddr: 0x52870, symSize: 0x70 }
  - { offset: 0xC9293, size: 0x8, addend: 0x0, symName: __RINvMNtCsdGrGZaRBwMb_3syn9lookaheadNtB3_10Lookahead14peekINvNtB5_5token10UnderscoreNtB3_11TokenMarkerEEB5_, symObjAddr: 0x420, symBinAddr: 0x528E0, symSize: 0x30 }
  - { offset: 0xC92E4, size: 0x8, addend: 0x0, symName: __RINvMNtCsdGrGZaRBwMb_3syn9lookaheadNtB3_10Lookahead14peekINvNtB5_5token2EqNtB3_11TokenMarkerEEB5_, symObjAddr: 0x450, symBinAddr: 0x52910, symSize: 0x30 }
  - { offset: 0xC9335, size: 0x8, addend: 0x0, symName: __RINvMNtCsdGrGZaRBwMb_3syn9lookaheadNtB3_10Lookahead14peekINvNtB5_5token2FnNtB3_11TokenMarkerEEB5_, symObjAddr: 0x480, symBinAddr: 0x52940, symSize: 0x30 }
  - { offset: 0xC9386, size: 0x8, addend: 0x0, symName: __RINvMNtCsdGrGZaRBwMb_3syn9lookaheadNtB3_10Lookahead14peekINvNtB5_5token2GtNtB3_11TokenMarkerEEB5_, symObjAddr: 0x4B0, symBinAddr: 0x52970, symSize: 0x30 }
  - { offset: 0xC93D7, size: 0x8, addend: 0x0, symName: __RINvMNtCsdGrGZaRBwMb_3syn9lookaheadNtB3_10Lookahead14peekINvNtB5_5token2IfNtB3_11TokenMarkerEEB5_, symObjAddr: 0x4E0, symBinAddr: 0x529A0, symSize: 0x30 }
  - { offset: 0xC9428, size: 0x8, addend: 0x0, symName: __RINvMNtCsdGrGZaRBwMb_3syn9lookaheadNtB3_10Lookahead14peekINvNtB5_5token2LtNtB3_11TokenMarkerEEB5_, symObjAddr: 0x510, symBinAddr: 0x529D0, symSize: 0x30 }
  - { offset: 0xC9479, size: 0x8, addend: 0x0, symName: __RINvMNtCsdGrGZaRBwMb_3syn9lookaheadNtB3_10Lookahead14peekINvNtB5_5token3AndNtB3_11TokenMarkerEEB5_, symObjAddr: 0x540, symBinAddr: 0x52A00, symSize: 0x30 }
  - { offset: 0xC94CA, size: 0x8, addend: 0x0, symName: __RINvMNtCsdGrGZaRBwMb_3syn9lookaheadNtB3_10Lookahead14peekINvNtB5_5token3DynNtB3_11TokenMarkerEEB5_, symObjAddr: 0x570, symBinAddr: 0x52A30, symSize: 0x30 }
  - { offset: 0xC951B, size: 0x8, addend: 0x0, symName: __RINvMNtCsdGrGZaRBwMb_3syn9lookaheadNtB3_10Lookahead14peekINvNtB5_5token3ForNtB3_11TokenMarkerEEB5_, symObjAddr: 0x5A0, symBinAddr: 0x52A60, symSize: 0x30 }
  - { offset: 0xC956C, size: 0x8, addend: 0x0, symName: __RINvMNtCsdGrGZaRBwMb_3syn9lookaheadNtB3_10Lookahead14peekINvNtB5_5token3ModNtB3_11TokenMarkerEEB5_, symObjAddr: 0x5D0, symBinAddr: 0x52A90, symSize: 0x30 }
  - { offset: 0xC95BD, size: 0x8, addend: 0x0, symName: __RINvMNtCsdGrGZaRBwMb_3syn9lookaheadNtB3_10Lookahead14peekINvNtB5_5token3MutNtB3_11TokenMarkerEEB5_, symObjAddr: 0x600, symBinAddr: 0x52AC0, symSize: 0x30 }
  - { offset: 0xC960E, size: 0x8, addend: 0x0, symName: __RINvMNtCsdGrGZaRBwMb_3syn9lookaheadNtB3_10Lookahead14peekINvNtB5_5token3NotNtB3_11TokenMarkerEEB5_, symObjAddr: 0x630, symBinAddr: 0x52AF0, symSize: 0x30 }
  - { offset: 0xC965F, size: 0x8, addend: 0x0, symName: __RINvMNtCsdGrGZaRBwMb_3syn9lookaheadNtB3_10Lookahead14peekINvNtB5_5token3RefNtB3_11TokenMarkerEEB5_, symObjAddr: 0x660, symBinAddr: 0x52B20, symSize: 0x30 }
  - { offset: 0xC96B0, size: 0x8, addend: 0x0, symName: __RINvMNtCsdGrGZaRBwMb_3syn9lookaheadNtB3_10Lookahead14peekINvNtB5_5token3TryNtB3_11TokenMarkerEEB5_, symObjAddr: 0x690, symBinAddr: 0x52B50, symSize: 0x30 }
  - { offset: 0xC9701, size: 0x8, addend: 0x0, symName: __RINvMNtCsdGrGZaRBwMb_3syn9lookaheadNtB3_10Lookahead14peekINvNtB5_5token3UseNtB3_11TokenMarkerEEB5_, symObjAddr: 0x6C0, symBinAddr: 0x52B80, symSize: 0x30 }
  - { offset: 0xC9752, size: 0x8, addend: 0x0, symName: __RINvMNtCsdGrGZaRBwMb_3syn9lookaheadNtB3_10Lookahead14peekINvNtB5_5token4AutoNtB3_11TokenMarkerEEB5_, symObjAddr: 0x6F0, symBinAddr: 0x52BB0, symSize: 0x30 }
  - { offset: 0xC97A3, size: 0x8, addend: 0x0, symName: __RINvMNtCsdGrGZaRBwMb_3syn9lookaheadNtB3_10Lookahead14peekINvNtB5_5token4EnumNtB3_11TokenMarkerEEB5_, symObjAddr: 0x720, symBinAddr: 0x52BE0, symSize: 0x30 }
  - { offset: 0xC97F4, size: 0x8, addend: 0x0, symName: __RINvMNtCsdGrGZaRBwMb_3syn9lookaheadNtB3_10Lookahead14peekINvNtB5_5token4ImplNtB3_11TokenMarkerEEB5_, symObjAddr: 0x750, symBinAddr: 0x52C10, symSize: 0x30 }
  - { offset: 0xC9845, size: 0x8, addend: 0x0, symName: __RINvMNtCsdGrGZaRBwMb_3syn9lookaheadNtB3_10Lookahead14peekINvNtB5_5token4SemiNtB3_11TokenMarkerEEB5_, symObjAddr: 0x780, symBinAddr: 0x52C40, symSize: 0x30 }
  - { offset: 0xC9896, size: 0x8, addend: 0x0, symName: __RINvMNtCsdGrGZaRBwMb_3syn9lookaheadNtB3_10Lookahead14peekINvNtB5_5token4StarNtB3_11TokenMarkerEEB5_, symObjAddr: 0x7B0, symBinAddr: 0x52C70, symSize: 0x30 }
  - { offset: 0xC98E7, size: 0x8, addend: 0x0, symName: __RINvMNtCsdGrGZaRBwMb_3syn9lookaheadNtB3_10Lookahead14peekINvNtB5_5token4TypeNtB3_11TokenMarkerEEB5_, symObjAddr: 0x7E0, symBinAddr: 0x52CA0, symSize: 0x30 }
  - { offset: 0xC9938, size: 0x8, addend: 0x0, symName: __RINvMNtCsdGrGZaRBwMb_3syn9lookaheadNtB3_10Lookahead14peekINvNtB5_5token5AsyncNtB3_11TokenMarkerEEB5_, symObjAddr: 0x810, symBinAddr: 0x52CD0, symSize: 0x30 }
  - { offset: 0xC9989, size: 0x8, addend: 0x0, symName: __RINvMNtCsdGrGZaRBwMb_3syn9lookaheadNtB3_10Lookahead14peekINvNtB5_5token5BraceNtB3_11TokenMarkerEEB5_, symObjAddr: 0x840, symBinAddr: 0x52D00, symSize: 0x30 }
  - { offset: 0xC99DA, size: 0x8, addend: 0x0, symName: __RINvMNtCsdGrGZaRBwMb_3syn9lookaheadNtB3_10Lookahead14peekINvNtB5_5token5ColonNtB3_11TokenMarkerEEB5_, symObjAddr: 0x870, symBinAddr: 0x52D30, symSize: 0x30 }
  - { offset: 0xC9A2B, size: 0x8, addend: 0x0, symName: __RINvMNtCsdGrGZaRBwMb_3syn9lookaheadNtB3_10Lookahead14peekINvNtB5_5token5CommaNtB3_11TokenMarkerEEB5_, symObjAddr: 0x8A0, symBinAddr: 0x52D60, symSize: 0x30 }
  - { offset: 0xC9A7C, size: 0x8, addend: 0x0, symName: __RINvMNtCsdGrGZaRBwMb_3syn9lookaheadNtB3_10Lookahead14peekINvNtB5_5token5ConstNtB3_11TokenMarkerEEB5_, symObjAddr: 0x8D0, symBinAddr: 0x52D90, symSize: 0x30 }
  - { offset: 0xC9ACD, size: 0x8, addend: 0x0, symName: __RINvMNtCsdGrGZaRBwMb_3syn9lookaheadNtB3_10Lookahead14peekINvNtB5_5token5CrateNtB3_11TokenMarkerEEB5_, symObjAddr: 0x900, symBinAddr: 0x52DC0, symSize: 0x30 }
  - { offset: 0xC9B1E, size: 0x8, addend: 0x0, symName: __RINvMNtCsdGrGZaRBwMb_3syn9lookaheadNtB3_10Lookahead14peekINvNtB5_5token5MacroNtB3_11TokenMarkerEEB5_, symObjAddr: 0x930, symBinAddr: 0x52DF0, symSize: 0x30 }
  - { offset: 0xC9B6F, size: 0x8, addend: 0x0, symName: __RINvMNtCsdGrGZaRBwMb_3syn9lookaheadNtB3_10Lookahead14peekINvNtB5_5token5MinusNtB3_11TokenMarkerEEB5_, symObjAddr: 0x960, symBinAddr: 0x52E20, symSize: 0x30 }
  - { offset: 0xC9BC0, size: 0x8, addend: 0x0, symName: __RINvMNtCsdGrGZaRBwMb_3syn9lookaheadNtB3_10Lookahead14peekINvNtB5_5token5ParenNtB3_11TokenMarkerEEB5_, symObjAddr: 0x990, symBinAddr: 0x52E50, symSize: 0x30 }
  - { offset: 0xC9C11, size: 0x8, addend: 0x0, symName: __RINvMNtCsdGrGZaRBwMb_3syn9lookaheadNtB3_10Lookahead14peekINvNtB5_5token5SuperNtB3_11TokenMarkerEEB5_, symObjAddr: 0x9C0, symBinAddr: 0x52E80, symSize: 0x30 }
  - { offset: 0xC9C62, size: 0x8, addend: 0x0, symName: __RINvMNtCsdGrGZaRBwMb_3syn9lookaheadNtB3_10Lookahead14peekINvNtB5_5token5TraitNtB3_11TokenMarkerEEB5_, symObjAddr: 0x9F0, symBinAddr: 0x52EB0, symSize: 0x30 }
  - { offset: 0xC9CB3, size: 0x8, addend: 0x0, symName: __RINvMNtCsdGrGZaRBwMb_3syn9lookaheadNtB3_10Lookahead14peekINvNtB5_5token5UnionNtB3_11TokenMarkerEEB5_, symObjAddr: 0xA20, symBinAddr: 0x52EE0, symSize: 0x30 }
  - { offset: 0xC9D04, size: 0x8, addend: 0x0, symName: __RINvMNtCsdGrGZaRBwMb_3syn9lookaheadNtB3_10Lookahead14peekINvNtB5_5token5WhereNtB3_11TokenMarkerEEB5_, symObjAddr: 0xA50, symBinAddr: 0x52F10, symSize: 0x30 }
  - { offset: 0xC9D55, size: 0x8, addend: 0x0, symName: __RINvMNtCsdGrGZaRBwMb_3syn9lookaheadNtB3_10Lookahead14peekINvNtB5_5token6DotDotNtB3_11TokenMarkerEEB5_, symObjAddr: 0xA80, symBinAddr: 0x52F40, symSize: 0x30 }
  - { offset: 0xC9DA6, size: 0x8, addend: 0x0, symName: __RINvMNtCsdGrGZaRBwMb_3syn9lookaheadNtB3_10Lookahead14peekINvNtB5_5token6ExternNtB3_11TokenMarkerEEB5_, symObjAddr: 0xAB0, symBinAddr: 0x52F70, symSize: 0x30 }
  - { offset: 0xC9DF7, size: 0x8, addend: 0x0, symName: __RINvMNtCsdGrGZaRBwMb_3syn9lookaheadNtB3_10Lookahead14peekINvNtB5_5token6StaticNtB3_11TokenMarkerEEB5_, symObjAddr: 0xAE0, symBinAddr: 0x52FA0, symSize: 0x30 }
  - { offset: 0xC9E48, size: 0x8, addend: 0x0, symName: __RINvMNtCsdGrGZaRBwMb_3syn9lookaheadNtB3_10Lookahead14peekINvNtB5_5token6StructNtB3_11TokenMarkerEEB5_, symObjAddr: 0xB10, symBinAddr: 0x52FD0, symSize: 0x30 }
  - { offset: 0xC9E99, size: 0x8, addend: 0x0, symName: __RINvMNtCsdGrGZaRBwMb_3syn9lookaheadNtB3_10Lookahead14peekINvNtB5_5token6UnsafeNtB3_11TokenMarkerEEB5_, symObjAddr: 0xB40, symBinAddr: 0x53000, symSize: 0x30 }
  - { offset: 0xC9EEA, size: 0x8, addend: 0x0, symName: __RINvMNtCsdGrGZaRBwMb_3syn9lookaheadNtB3_10Lookahead14peekINvNtB5_5token7BracketNtB3_11TokenMarkerEEB5_, symObjAddr: 0xB70, symBinAddr: 0x53030, symSize: 0x30 }
  - { offset: 0xC9F3B, size: 0x8, addend: 0x0, symName: __RINvMNtCsdGrGZaRBwMb_3syn9lookaheadNtB3_10Lookahead14peekINvNtB5_5token7DefaultNtB3_11TokenMarkerEEB5_, symObjAddr: 0xBA0, symBinAddr: 0x53060, symSize: 0x30 }
  - { offset: 0xC9F8C, size: 0x8, addend: 0x0, symName: __RINvMNtCsdGrGZaRBwMb_3syn9lookaheadNtB3_10Lookahead14peekINvNtB5_5token7PathSepNtB3_11TokenMarkerEEB5_, symObjAddr: 0xBD0, symBinAddr: 0x53090, symSize: 0x30 }
  - { offset: 0xC9FDD, size: 0x8, addend: 0x0, symName: __RINvMNtCsdGrGZaRBwMb_3syn9lookaheadNtB3_10Lookahead14peekINvNtB5_5token8DotDotEqNtB3_11TokenMarkerEEB5_, symObjAddr: 0xC00, symBinAddr: 0x530C0, symSize: 0x30 }
  - { offset: 0xCA02E, size: 0x8, addend: 0x0, symName: __RINvMNtCsdGrGZaRBwMb_3syn9lookaheadNtB3_10Lookahead14peekINvNtB5_5token8SelfTypeNtB3_11TokenMarkerEEB5_, symObjAddr: 0xC30, symBinAddr: 0x530F0, symSize: 0x30 }
  - { offset: 0xCA07F, size: 0x8, addend: 0x0, symName: __RINvMNtCsdGrGZaRBwMb_3syn9lookaheadNtB3_10Lookahead14peekINvNtB5_5token9SelfValueNtB3_11TokenMarkerEEB5_, symObjAddr: 0xC60, symBinAddr: 0x53120, symSize: 0x30 }
  - { offset: 0xCA0D0, size: 0x8, addend: 0x0, symName: __RINvMNtCsdGrGZaRBwMb_3syn9lookaheadNtB3_10Lookahead14peekNvNtB5_3lit3LitEB5_, symObjAddr: 0xC90, symBinAddr: 0x53150, symSize: 0x30 }
  - { offset: 0xCA121, size: 0x8, addend: 0x0, symName: __RINvMNtCsdGrGZaRBwMb_3syn9lookaheadNtB3_10Lookahead14peekNvNtB5_3lit6LitStrEB5_, symObjAddr: 0xCC0, symBinAddr: 0x53180, symSize: 0x30 }
  - { offset: 0xCA172, size: 0x8, addend: 0x0, symName: __RINvMNtCsdGrGZaRBwMb_3syn9lookaheadNtB3_10Lookahead14peekNvNtB5_5ident5IdentEB5_, symObjAddr: 0xCF0, symBinAddr: 0x531B0, symSize: 0x30 }
  - { offset: 0xCA1C3, size: 0x8, addend: 0x0, symName: __RINvMNtCsdGrGZaRBwMb_3syn9lookaheadNtB3_10Lookahead14peekNvNtB5_8lifetime8LifetimeEB5_, symObjAddr: 0xD20, symBinAddr: 0x531E0, symSize: 0x30 }
  - { offset: 0xCA293, size: 0x8, addend: 0x0, symName: __RINvMs_NtNtCsieiGu2EXtoJ_4core3fmt2rtNtB7_9Arguments6new_v1Kj2_KBW_ECsdGrGZaRBwMb_3syn, symObjAddr: 0xD90, symBinAddr: 0x53250, symSize: 0x40 }
  - { offset: 0xCAECD, size: 0x8, addend: 0x0, symName: __RNvMNtCsdGrGZaRBwMb_3syn4attrNtB2_9Attribute11parse_inner, symObjAddr: 0x33A0, symBinAddr: 0x55520, symSize: 0x160 }
  - { offset: 0xCAF26, size: 0x8, addend: 0x0, symName: __RNvMNtCsdGrGZaRBwMb_3syn4attrNtB2_9Attribute11parse_outer, symObjAddr: 0x3500, symBinAddr: 0x55680, symSize: 0x1E0 }
  - { offset: 0xCAF99, size: 0x8, addend: 0x0, symName: __RNvMNtCsdGrGZaRBwMb_3syn5errorNtB2_5Error16to_compile_error, symObjAddr: 0x3700, symBinAddr: 0x55860, symSize: 0x110 }
  - { offset: 0xCAFFB, size: 0x8, addend: 0x0, symName: __RNvMNtCsdGrGZaRBwMb_3syn5errorNtB2_5Error18into_compile_error, symObjAddr: 0x3810, symBinAddr: 0x55970, symSize: 0x60 }
  - { offset: 0xCB046, size: 0x8, addend: 0x0, symName: __RNvMNtCsdGrGZaRBwMb_3syn9lookaheadNtB2_10Lookahead15error, symObjAddr: 0x3BD0, symBinAddr: 0x559D0, symSize: 0x4B0 }
  - { offset: 0xCB1C5, size: 0x8, addend: 0x0, symName: __RNvMs7_NtCsieiGu2EXtoJ_4core4cellINtB5_4CellINtNtB7_6option6OptionINtNtCslJiobkLta79_5alloc2rc2RcIBw_NtNtCsdGrGZaRBwMb_3syn5parse10UnexpectedEEEE3newB1F_, symObjAddr: 0x42D0, symBinAddr: 0x55EC0, symSize: 0x10 }
  - { offset: 0xCB226, size: 0x8, addend: 0x0, symName: __RNvMs7_NtCsieiGu2EXtoJ_4core4cellINtB5_4CellINtNtB7_6option6OptionINtNtCslJiobkLta79_5alloc2rc2RcIBw_NtNtCsdGrGZaRBwMb_3syn5parse10UnexpectedEEEE3setB1F_, symObjAddr: 0x42E0, symBinAddr: 0x55ED0, symSize: 0x30 }
  - { offset: 0xCB2AC, size: 0x8, addend: 0x0, symName: __RNvMs7_NtCsieiGu2EXtoJ_4core4cellINtB5_4CellNtNtCsdGrGZaRBwMb_3syn5parse10UnexpectedE3newBK_, symObjAddr: 0x4310, symBinAddr: 0x55F00, symSize: 0x30 }
  - { offset: 0xCB322, size: 0x8, addend: 0x0, symName: __RNvMs7_NtCsieiGu2EXtoJ_4core4cellINtB5_4CellNtNtCsdGrGZaRBwMb_3syn5parse10UnexpectedE3setBK_, symObjAddr: 0x4340, symBinAddr: 0x55F30, symSize: 0x40 }
  - { offset: 0xCB399, size: 0x8, addend: 0x0, symName: __RNvMs7_NtCsieiGu2EXtoJ_4core4cellINtB5_4CellNtNtCsdGrGZaRBwMb_3syn6buffer6CursorE3newBK_, symObjAddr: 0x4380, symBinAddr: 0x55F70, symSize: 0x20 }
  - { offset: 0xCB3FA, size: 0x8, addend: 0x0, symName: __RNvMs7_NtCsieiGu2EXtoJ_4core4cellINtB5_4CellNtNtCsdGrGZaRBwMb_3syn6buffer6CursorE3setBK_, symObjAddr: 0x43A0, symBinAddr: 0x55F90, symSize: 0x20 }
  - { offset: 0xCB470, size: 0x8, addend: 0x0, symName: __RNvMs8_NtCsieiGu2EXtoJ_4core4cellINtB5_4CellNtNtCsdGrGZaRBwMb_3syn6buffer6CursorE3getBK_, symObjAddr: 0x43C0, symBinAddr: 0x55FB0, symSize: 0x20 }
  - { offset: 0xCB4D0, size: 0x8, addend: 0x0, symName: __RNvMs_NtCsdGrGZaRBwMb_3syn5errorNtB4_12ErrorMessage16to_compile_error, symObjAddr: 0x4C20, symBinAddr: 0x55FD0, symSize: 0x4C0 }
  - { offset: 0xCB5A4, size: 0x8, addend: 0x0, symName: __RNvMsa_NtCsieiGu2EXtoJ_4core4cellINtB5_4CellINtNtB7_6option6OptionINtNtCslJiobkLta79_5alloc2rc2RcIBw_NtNtCsdGrGZaRBwMb_3syn5parse10UnexpectedEEEE4takeB1F_, symObjAddr: 0x50E0, symBinAddr: 0x56490, symSize: 0x30 }
  - { offset: 0xCB633, size: 0x8, addend: 0x0, symName: __RNvMsa_NtCsieiGu2EXtoJ_4core4cellINtB5_4CellNtNtCsdGrGZaRBwMb_3syn5parse10UnexpectedE4takeBK_, symObjAddr: 0x5110, symBinAddr: 0x564C0, symSize: 0x50 }
  - { offset: 0xCB69A, size: 0x8, addend: 0x0, symName: __RNvMsh_NtCsieiGu2EXtoJ_4core4cellINtB5_7RefCellINtNtCslJiobkLta79_5alloc3vec3VecReEE10into_innerCsdGrGZaRBwMb_3syn, symObjAddr: 0x5160, symBinAddr: 0x56510, symSize: 0x20 }
  - { offset: 0xCB6D6, size: 0x8, addend: 0x0, symName: __RNvMsh_NtCsieiGu2EXtoJ_4core4cellINtB5_7RefCellINtNtCslJiobkLta79_5alloc3vec3VecReEE3newCsdGrGZaRBwMb_3syn, symObjAddr: 0x5180, symBinAddr: 0x56530, symSize: 0x40 }
  - { offset: 0xCB74B, size: 0x8, addend: 0x0, symName: __RNvMsi_NtCsieiGu2EXtoJ_4core4cellINtB5_7RefCellINtNtCslJiobkLta79_5alloc3vec3VecReEE10borrow_mutCsdGrGZaRBwMb_3syn, symObjAddr: 0x51C0, symBinAddr: 0x56570, symSize: 0x60 }
  - { offset: 0xCB822, size: 0x8, addend: 0x0, symName: __RNvMsi_NtCsieiGu2EXtoJ_4core4cellINtB5_7RefCellINtNtCslJiobkLta79_5alloc3vec3VecReEE14try_borrow_mutCsdGrGZaRBwMb_3syn, symObjAddr: 0x5220, symBinAddr: 0x565D0, symSize: 0xA0 }
  - { offset: 0xCBA53, size: 0x8, addend: 0x0, symName: __RNvXNtCs9OU1sGv5X54_5quote9to_tokensRNtNtCsdGrGZaRBwMb_3syn4attr9AttributeNtB2_8ToTokens9to_tokensBD_, symObjAddr: 0x17650, symBinAddr: 0x680B0, symSize: 0x30 }
  - { offset: 0xCBA92, size: 0x8, addend: 0x0, symName: __RNvXNtCs9OU1sGv5X54_5quote9to_tokensRNtNtCsdGrGZaRBwMb_3syn8lifetime8LifetimeNtB2_8ToTokens9to_tokensBD_, symObjAddr: 0x17680, symBinAddr: 0x680E0, symSize: 0x30 }
  - { offset: 0xCC008, size: 0x8, addend: 0x0, symName: __RINvMNtCsieiGu2EXtoJ_4core3stre3getINtNtNtB5_3ops5range5RangejEECsdGrGZaRBwMb_3syn, symObjAddr: 0x0, symBinAddr: 0x692F0, symSize: 0x40 }
  - { offset: 0xD0151, size: 0x8, addend: 0x0, symName: __RNCNvNtNtCsdGrGZaRBwMb_3syn4item7parsing22parse_rest_of_receiver0B7_, symObjAddr: 0x2A0, symBinAddr: 0x69590, symSize: 0x30 }
  - { offset: 0xD019C, size: 0x8, addend: 0x0, symName: __RNCNvXsp_NtNtCsdGrGZaRBwMb_3syn4item7parsingNtB9_11TraitItemFnNtNtBb_5parse5Parse5parse0Bb_, symObjAddr: 0x3A0, symBinAddr: 0x69660, symSize: 0x50 }
  - { offset: 0xD02A5, size: 0x8, addend: 0x0, symName: __RNvNtNtCsdGrGZaRBwMb_3syn4item7parsing10parse_impl, symObjAddr: 0x31D0, symBinAddr: 0x6C360, symSize: 0x1EA0 }
  - { offset: 0xD070F, size: 0x8, addend: 0x0, symName: __RNvNtNtCsdGrGZaRBwMb_3syn4item7parsing12parse_macro2, symObjAddr: 0x5070, symBinAddr: 0x6E200, symSize: 0xAA0 }
  - { offset: 0xD08C4, size: 0x8, addend: 0x0, symName: __RNvNtNtCsdGrGZaRBwMb_3syn4item7parsing13parse_fn_args, symObjAddr: 0x5B10, symBinAddr: 0x6ECA0, symSize: 0xE20 }
  - { offset: 0xD0AEE, size: 0x8, addend: 0x0, symName: __RNvNtNtCsdGrGZaRBwMb_3syn4item7parsing14parse_item_use, symObjAddr: 0x6930, symBinAddr: 0x6FAC0, symSize: 0x8A0 }
  - { offset: 0xD0CE1, size: 0x8, addend: 0x0, symName: __RNvNtNtCsdGrGZaRBwMb_3syn4item7parsing14parse_use_tree, symObjAddr: 0x71D0, symBinAddr: 0x70360, symSize: 0x15B0 }
  - { offset: 0xD0FD4, size: 0x8, addend: 0x0, symName: __RNvNtNtCsdGrGZaRBwMb_3syn4item7parsing14peek_signature, symObjAddr: 0x8780, symBinAddr: 0x71910, symSize: 0x370 }
  - { offset: 0xD1028, size: 0x8, addend: 0x0, symName: __RNvNtNtCsdGrGZaRBwMb_3syn4item7parsing15parse_item_type, symObjAddr: 0x8AF0, symBinAddr: 0x71C80, symSize: 0x780 }
  - { offset: 0xD115F, size: 0x8, addend: 0x0, symName: __RNvNtNtCsdGrGZaRBwMb_3syn4item7parsing15parse_signature, symObjAddr: 0x9270, symBinAddr: 0x72400, symSize: 0x1180 }
  - { offset: 0xD14BA, size: 0x8, addend: 0x0, symName: __RNvNtNtCsdGrGZaRBwMb_3syn4item7parsing16parse_rest_of_fn, symObjAddr: 0xA3F0, symBinAddr: 0x73580, symSize: 0x6B0 }
  - { offset: 0xD1606, size: 0x8, addend: 0x0, symName: __RNvNtNtCsdGrGZaRBwMb_3syn4item7parsing18parse_impl_item_fn, symObjAddr: 0xAAA0, symBinAddr: 0x73C30, symSize: 0xB30 }
  - { offset: 0xD1845, size: 0x8, addend: 0x0, symName: __RNvNtNtCsdGrGZaRBwMb_3syn4item7parsing18parse_rest_of_item, symObjAddr: 0xB5D0, symBinAddr: 0x74760, symSize: 0x42E0 }
  - { offset: 0xD212A, size: 0x8, addend: 0x0, symName: __RNvNtNtCsdGrGZaRBwMb_3syn4item7parsing19parse_rest_of_trait, symObjAddr: 0xF8B0, symBinAddr: 0x78A40, symSize: 0xD30 }
  - { offset: 0xD234A, size: 0x8, addend: 0x0, symName: __RNvNtNtCsdGrGZaRBwMb_3syn4item7parsing20parse_impl_item_type, symObjAddr: 0x105E0, symBinAddr: 0x79770, symSize: 0x6F0 }
  - { offset: 0xD2472, size: 0x8, addend: 0x0, symName: __RNvNtNtCsdGrGZaRBwMb_3syn4item7parsing20parse_receiver_begin, symObjAddr: 0x10CD0, symBinAddr: 0x79E60, symSize: 0x4C0 }
  - { offset: 0xD258D, size: 0x8, addend: 0x0, symName: __RNvNtNtCsdGrGZaRBwMb_3syn4item7parsing21parse_trait_item_type, symObjAddr: 0x11190, symBinAddr: 0x7A320, symSize: 0x610 }
  - { offset: 0xD2677, size: 0x8, addend: 0x0, symName: __RNvNtNtCsdGrGZaRBwMb_3syn4item7parsing22parse_rest_of_receiver, symObjAddr: 0x117A0, symBinAddr: 0x7A930, symSize: 0x880 }
  - { offset: 0xD27F4, size: 0x8, addend: 0x0, symName: __RNvNtNtCsdGrGZaRBwMb_3syn4item7parsing23parse_foreign_item_type, symObjAddr: 0x12020, symBinAddr: 0x7B1B0, symSize: 0x5C0 }
  - { offset: 0xD28EC, size: 0x8, addend: 0x0, symName: __RNvNtNtCsdGrGZaRBwMb_3syn4item7parsing24parse_fn_arg_or_variadic, symObjAddr: 0x125E0, symBinAddr: 0x7B770, symSize: 0x1000 }
  - { offset: 0xD2AF4, size: 0x8, addend: 0x0, symName: __RNvNtNtCsdGrGZaRBwMb_3syn4item7parsing25parse_rest_of_trait_alias, symObjAddr: 0x135E0, symBinAddr: 0x7C770, symSize: 0x860 }
  - { offset: 0xD2C5D, size: 0x8, addend: 0x0, symName: __RNvNtNtCsdGrGZaRBwMb_3syn4item7parsing26parse_start_of_trait_alias, symObjAddr: 0x13E40, symBinAddr: 0x7CFD0, symSize: 0x620 }
  - { offset: 0xD2DE5, size: 0x8, addend: 0x0, symName: __RNvNtNtCsdGrGZaRBwMb_3syn4item7parsing26parse_trait_or_trait_alias, symObjAddr: 0x14460, symBinAddr: 0x7D5F0, symSize: 0x6C0 }
  - { offset: 0xD307C, size: 0x8, addend: 0x0, symName: __RNvXNtNtCsdGrGZaRBwMb_3syn11restriction7parsingNtB4_10VisibilityNtNtB6_5parse5Parse5parse, symObjAddr: 0x150E0, symBinAddr: 0x7DDF0, symSize: 0x2D0 }
  - { offset: 0xD3114, size: 0x8, addend: 0x0, symName: __RNvXNtNtCsdGrGZaRBwMb_3syn11restriction8printingNtB4_10VisibilityNtNtCs9OU1sGv5X54_5quote9to_tokens8ToTokens9to_tokens, symObjAddr: 0x153B0, symBinAddr: 0x7E0C0, symSize: 0x90 }
  - { offset: 0xD318A, size: 0x8, addend: 0x0, symName: __RNvXs_NtNtCsdGrGZaRBwMb_3syn11restriction8printingNtB6_13VisRestrictedNtNtCs9OU1sGv5X54_5quote9to_tokens8ToTokens9to_tokens, symObjAddr: 0x17020, symBinAddr: 0x7EF20, symSize: 0x50 }
  - { offset: 0xD3672, size: 0x8, addend: 0x0, symName: __RNCNvNtNtCsdGrGZaRBwMb_3syn8generics8printing20print_const_argument0B7_, symObjAddr: 0x2D0, symBinAddr: 0x695C0, symSize: 0x40 }
  - { offset: 0xD36B8, size: 0x8, addend: 0x0, symName: __RNCNvXs5_NtNtCsdGrGZaRBwMb_3syn8generics8printingNtB9_10TraitBoundNtNtCs9OU1sGv5X54_5quote9to_tokens8ToTokens9to_tokens0Bb_, symObjAddr: 0x340, symBinAddr: 0x69600, symSize: 0x60 }
  - { offset: 0xD36F6, size: 0x8, addend: 0x0, symName: __RNvNtNtCsdGrGZaRBwMb_3syn8generics8printing20print_const_argument, symObjAddr: 0x14B20, symBinAddr: 0x7DCB0, symSize: 0x140 }
  - { offset: 0xD3FBD, size: 0x8, addend: 0x0, symName: __RNvXs2Q_NtNtCsdGrGZaRBwMb_3syn3gen5cloneNtNtBa_11restriction13VisRestrictedNtNtCsieiGu2EXtoJ_4core5clone5Clone5clone, symObjAddr: 0x16130, symBinAddr: 0x7E800, symSize: 0xA0 }
  - { offset: 0xD3FF1, size: 0x8, addend: 0x0, symName: __RNvXs2R_NtNtCsdGrGZaRBwMb_3syn3gen5cloneNtNtBa_11restriction10VisibilityNtNtCsieiGu2EXtoJ_4core5clone5Clone5clone, symObjAddr: 0x161D0, symBinAddr: 0x7E8A0, symSize: 0xD0 }
  - { offset: 0xD4061, size: 0x8, addend: 0x0, symName: __RNvXsZ_NtNtCsdGrGZaRBwMb_3syn3gen5cloneNtNtB9_11restriction15FieldMutabilityNtNtCsieiGu2EXtoJ_4core5clone5Clone5clone, symObjAddr: 0x16F60, symBinAddr: 0x7EE60, symSize: 0x20 }
  - { offset: 0xD7F4C, size: 0x8, addend: 0x0, symName: __RINvMNtCsieiGu2EXtoJ_4core3stre3getINtNtNtB5_3ops5range5RangejEECsdGrGZaRBwMb_3syn, symObjAddr: 0x0, symBinAddr: 0x692F0, symSize: 0x40 }
  - { offset: 0xD7F92, size: 0x8, addend: 0x0, symName: __RINvMNtCsieiGu2EXtoJ_4core3stre3getINtNtNtB5_3ops5range9RangeFromjEECsdGrGZaRBwMb_3syn, symObjAddr: 0x40, symBinAddr: 0x69330, symSize: 0x30 }
  - { offset: 0xD7FD8, size: 0x8, addend: 0x0, symName: __RINvMNtCsieiGu2EXtoJ_4core3stre5parseNtCsaKzlTDPUHDb_11proc_macro27LiteralECsdGrGZaRBwMb_3syn, symObjAddr: 0x70, symBinAddr: 0x69360, symSize: 0x30 }
  - { offset: 0xD800F, size: 0x8, addend: 0x0, symName: __RINvMNtCsieiGu2EXtoJ_4core3stre5parsemECsdGrGZaRBwMb_3syn, symObjAddr: 0xA0, symBinAddr: 0x69390, symSize: 0x30 }
  - { offset: 0xD8053, size: 0x8, addend: 0x0, symName: __RINvMNtCsieiGu2EXtoJ_4core3stre5rfindcECsdGrGZaRBwMb_3syn, symObjAddr: 0xD0, symBinAddr: 0x693C0, symSize: 0xD0 }
  - { offset: 0xD80E0, size: 0x8, addend: 0x0, symName: __RINvMNtCsieiGu2EXtoJ_4core3stre5splitcECsdGrGZaRBwMb_3syn, symObjAddr: 0x1A0, symBinAddr: 0x69490, symSize: 0xB0 }
  - { offset: 0xD8126, size: 0x8, addend: 0x0, symName: __RINvMNtCsieiGu2EXtoJ_4core3stre9ends_withcECsdGrGZaRBwMb_3syn, symObjAddr: 0x250, symBinAddr: 0x69540, symSize: 0x30 }
  - { offset: 0xD816C, size: 0x8, addend: 0x0, symName: __RNvMNtCsieiGu2EXtoJ_4core3stre3lenCsdGrGZaRBwMb_3syn, symObjAddr: 0x3F0, symBinAddr: 0x696B0, symSize: 0x20 }
  - { offset: 0xD8198, size: 0x8, addend: 0x0, symName: __RNvMNtCsieiGu2EXtoJ_4core3stre5bytesCsdGrGZaRBwMb_3syn, symObjAddr: 0x410, symBinAddr: 0x696D0, symSize: 0x20 }
  - { offset: 0xD8206, size: 0x8, addend: 0x0, symName: __RNvMNtCsieiGu2EXtoJ_4core3stre5charsCsdGrGZaRBwMb_3syn, symObjAddr: 0x430, symBinAddr: 0x696F0, symSize: 0x20 }
  - { offset: 0xD8274, size: 0x8, addend: 0x0, symName: __RNvMNtCsieiGu2EXtoJ_4core3stre8is_emptyCsdGrGZaRBwMb_3syn, symObjAddr: 0x450, symBinAddr: 0x69710, symSize: 0x20 }
  - { offset: 0xD8461, size: 0x8, addend: 0x0, symName: __RNvXs_NtCsieiGu2EXtoJ_4core3streINtNtB6_7convert5AsRefShE6as_refCsdGrGZaRBwMb_3syn, symObjAddr: 0x17000, symBinAddr: 0x7EF00, symSize: 0x20 }
  - { offset: 0xD85A7, size: 0x8, addend: 0x0, symName: __RINvNtCsieiGu2EXtoJ_4core3cmp3minjECsdGrGZaRBwMb_3syn, symObjAddr: 0x280, symBinAddr: 0x69570, symSize: 0x20 }
  - { offset: 0xD86E8, size: 0x8, addend: 0x0, symName: __RNvXsa_NtCsieiGu2EXtoJ_4core3cmpNtB5_8OrderingNtB5_9PartialEq2eqCsdGrGZaRBwMb_3syn, symObjAddr: 0x17070, symBinAddr: 0x7EF70, symSize: 0x20 }
  - { offset: 0xD99DD, size: 0x8, addend: 0x0, symName: __RNvXsZ_NtNtCsieiGu2EXtoJ_4core3fmt3numjNtB7_5Debug3fmtCsdGrGZaRBwMb_3syn, symObjAddr: 0x16F80, symBinAddr: 0x7EE80, symSize: 0x80 }
  - { offset: 0xD9AAF, size: 0x8, addend: 0x0, symName: __RNvXs1_NtCsieiGu2EXtoJ_4core7convertNtNtCslJiobkLta79_5alloc6string6StringINtB5_4IntoINtNtBC_3vec3VechEE4intoCsdGrGZaRBwMb_3syn, symObjAddr: 0x15F30, symBinAddr: 0x7E620, symSize: 0x20 }
  - { offset: 0xD9C06, size: 0x8, addend: 0x0, symName: __RNvYINtNtNtCslJiobkLta79_5alloc3vec9into_iter8IntoIterNtNtCsdGrGZaRBwMb_3syn4attr9AttributeENtNtNtNtCsieiGu2EXtoJ_4core4iter6traits10exact_size17ExactSizeIterator3lenBU_, symObjAddr: 0x17570, symBinAddr: 0x7F2C0, symSize: 0xE0 }
  - { offset: 0xD9D06, size: 0x8, addend: 0x0, symName: __RNvYINtNtNtCslJiobkLta79_5alloc3vec9into_iter8IntoIterNtNtCsdGrGZaRBwMb_3syn8generics14TypeParamBoundENtNtNtNtCsieiGu2EXtoJ_4core4iter6traits10exact_size17ExactSizeIterator3lenBU_, symObjAddr: 0x17730, symBinAddr: 0x7F3A0, symSize: 0xE0 }
  - { offset: 0xD9E06, size: 0x8, addend: 0x0, symName: __RNvYINtNtNtCslJiobkLta79_5alloc3vec9into_iter8IntoIterTNtNtCsdGrGZaRBwMb_3syn4path11PathSegmentNtNtBV_5token7PathSepEENtNtNtNtCsieiGu2EXtoJ_4core4iter6traits10exact_size17ExactSizeIterator3lenBV_, symObjAddr: 0x179D0, symBinAddr: 0x7F480, symSize: 0xE0 }
  - { offset: 0xD9F06, size: 0x8, addend: 0x0, symName: __RNvYINtNtNtCslJiobkLta79_5alloc3vec9into_iter8IntoIterTNtNtCsdGrGZaRBwMb_3syn8generics14TypeParamBoundNtNtBV_5token4PlusEENtNtNtNtCsieiGu2EXtoJ_4core4iter6traits10exact_size17ExactSizeIterator3lenBV_, symObjAddr: 0x17AB0, symBinAddr: 0x7F560, symSize: 0xE0 }
  - { offset: 0xDAA69, size: 0x8, addend: 0x0, symName: __RNvXNvXsd_NtNtCslJiobkLta79_5alloc3vec9into_iterINtB8_8IntoIterppENtNtNtCsieiGu2EXtoJ_4core3ops4drop4Drop4dropINtB2_9DropGuardNtNtCsdGrGZaRBwMb_3syn4attr9AttributeNtNtBc_5alloc6GlobalEB12_4dropB24_, symObjAddr: 0x15640, symBinAddr: 0x7E350, symSize: 0x70 }
  - { offset: 0xDAB7E, size: 0x8, addend: 0x0, symName: __RNvXNvXsd_NtNtCslJiobkLta79_5alloc3vec9into_iterINtB8_8IntoIterppENtNtNtCsieiGu2EXtoJ_4core3ops4drop4Drop4dropINtB2_9DropGuardNtNtCsdGrGZaRBwMb_3syn8generics14TypeParamBoundNtNtBc_5alloc6GlobalEB12_4dropB24_, symObjAddr: 0x15720, symBinAddr: 0x7E3C0, symSize: 0x70 }
  - { offset: 0xDAC93, size: 0x8, addend: 0x0, symName: __RNvXNvXsd_NtNtCslJiobkLta79_5alloc3vec9into_iterINtB8_8IntoIterppENtNtNtCsieiGu2EXtoJ_4core3ops4drop4Drop4dropINtB2_9DropGuardTNtNtCsdGrGZaRBwMb_3syn4path11PathSegmentNtNtB25_5token7PathSepENtNtBc_5alloc6GlobalEB12_4dropB25_, symObjAddr: 0x15870, symBinAddr: 0x7E430, symSize: 0x70 }
  - { offset: 0xDADA8, size: 0x8, addend: 0x0, symName: __RNvXNvXsd_NtNtCslJiobkLta79_5alloc3vec9into_iterINtB8_8IntoIterppENtNtNtCsieiGu2EXtoJ_4core3ops4drop4Drop4dropINtB2_9DropGuardTNtNtCsdGrGZaRBwMb_3syn8generics14TypeParamBoundNtNtB25_5token4PlusENtNtBc_5alloc6GlobalEB12_4dropB25_, symObjAddr: 0x158E0, symBinAddr: 0x7E4A0, symSize: 0x70 }
  - { offset: 0xDAF5B, size: 0x8, addend: 0x0, symName: __RNvXsd_NtNtCslJiobkLta79_5alloc3vec9into_iterINtB5_8IntoIterNtNtCsdGrGZaRBwMb_3syn4attr9AttributeENtNtNtCsieiGu2EXtoJ_4core3ops4drop4Drop4dropB10_, symObjAddr: 0x17090, symBinAddr: 0x7EF90, symSize: 0x90 }
  - { offset: 0xDAFF6, size: 0x8, addend: 0x0, symName: __RNvXsd_NtNtCslJiobkLta79_5alloc3vec9into_iterINtB5_8IntoIterNtNtCsdGrGZaRBwMb_3syn8generics14TypeParamBoundENtNtNtCsieiGu2EXtoJ_4core3ops4drop4Drop4dropB10_, symObjAddr: 0x171B0, symBinAddr: 0x7F020, symSize: 0x90 }
  - { offset: 0xDB091, size: 0x8, addend: 0x0, symName: __RNvXsd_NtNtCslJiobkLta79_5alloc3vec9into_iterINtB5_8IntoIterTNtNtCsdGrGZaRBwMb_3syn4path11PathSegmentNtNtB11_5token7PathSepEENtNtNtCsieiGu2EXtoJ_4core3ops4drop4Drop4dropB11_, symObjAddr: 0x17360, symBinAddr: 0x7F0B0, symSize: 0x90 }
  - { offset: 0xDB12C, size: 0x8, addend: 0x0, symName: __RNvXsd_NtNtCslJiobkLta79_5alloc3vec9into_iterINtB5_8IntoIterTNtNtCsdGrGZaRBwMb_3syn8generics14TypeParamBoundNtNtB11_5token4PlusEENtNtNtCsieiGu2EXtoJ_4core3ops4drop4Drop4dropB11_, symObjAddr: 0x173F0, symBinAddr: 0x7F140, symSize: 0x90 }
  - { offset: 0xDB1CD, size: 0x8, addend: 0x0, symName: __RNvXs3_NtNtCslJiobkLta79_5alloc3vec9into_iterINtB5_8IntoIterNtNtCsdGrGZaRBwMb_3syn4attr9AttributeENtNtNtNtCsieiGu2EXtoJ_4core4iter6traits8iterator8Iterator9size_hintB10_, symObjAddr: 0x162A0, symBinAddr: 0x7E970, symSize: 0x60 }
  - { offset: 0xDB228, size: 0x8, addend: 0x0, symName: __RNvXs3_NtNtCslJiobkLta79_5alloc3vec9into_iterINtB5_8IntoIterNtNtCsdGrGZaRBwMb_3syn8generics14TypeParamBoundENtNtNtNtCsieiGu2EXtoJ_4core4iter6traits8iterator8Iterator4nextB10_, symObjAddr: 0x16460, symBinAddr: 0x7E9D0, symSize: 0x100 }
  - { offset: 0xDB386, size: 0x8, addend: 0x0, symName: __RNvXs3_NtNtCslJiobkLta79_5alloc3vec9into_iterINtB5_8IntoIterNtNtCsdGrGZaRBwMb_3syn8generics14TypeParamBoundENtNtNtNtCsieiGu2EXtoJ_4core4iter6traits8iterator8Iterator9size_hintB10_, symObjAddr: 0x16560, symBinAddr: 0x7EAD0, symSize: 0x60 }
  - { offset: 0xDB3E1, size: 0x8, addend: 0x0, symName: __RNvXs3_NtNtCslJiobkLta79_5alloc3vec9into_iterINtB5_8IntoIterTNtNtCsdGrGZaRBwMb_3syn4path11PathSegmentNtNtB11_5token7PathSepEENtNtNtNtCsieiGu2EXtoJ_4core4iter6traits8iterator8Iterator4nextB11_, symObjAddr: 0x16880, symBinAddr: 0x7EB30, symSize: 0x100 }
  - { offset: 0xDB53F, size: 0x8, addend: 0x0, symName: __RNvXs3_NtNtCslJiobkLta79_5alloc3vec9into_iterINtB5_8IntoIterTNtNtCsdGrGZaRBwMb_3syn4path11PathSegmentNtNtB11_5token7PathSepEENtNtNtNtCsieiGu2EXtoJ_4core4iter6traits8iterator8Iterator9size_hintB11_, symObjAddr: 0x16980, symBinAddr: 0x7EC30, symSize: 0x60 }
  - { offset: 0xDB59A, size: 0x8, addend: 0x0, symName: __RNvXs3_NtNtCslJiobkLta79_5alloc3vec9into_iterINtB5_8IntoIterTNtNtCsdGrGZaRBwMb_3syn8generics14TypeParamBoundNtNtB11_5token4PlusEENtNtNtNtCsieiGu2EXtoJ_4core4iter6traits8iterator8Iterator4nextB11_, symObjAddr: 0x169E0, symBinAddr: 0x7EC90, symSize: 0x110 }
  - { offset: 0xDB6F8, size: 0x8, addend: 0x0, symName: __RNvXs3_NtNtCslJiobkLta79_5alloc3vec9into_iterINtB5_8IntoIterTNtNtCsdGrGZaRBwMb_3syn8generics14TypeParamBoundNtNtB11_5token4PlusEENtNtNtNtCsieiGu2EXtoJ_4core4iter6traits8iterator8Iterator9size_hintB11_, symObjAddr: 0x16AF0, symBinAddr: 0x7EDA0, symSize: 0x60 }
  - { offset: 0xDC470, size: 0x8, addend: 0x0, symName: __RNvXss_NtCslJiobkLta79_5alloc6stringNtB5_6StringNtNtNtCsieiGu2EXtoJ_4core3ops5deref5Deref5derefCsdGrGZaRBwMb_3syn, symObjAddr: 0x174F0, symBinAddr: 0x7F240, symSize: 0x20 }
  - { offset: 0xDC507, size: 0x8, addend: 0x0, symName: __RNvXs1I_NtCslJiobkLta79_5alloc6stringNtB6_6StringNtB6_12SpecToString14spec_to_stringCsdGrGZaRBwMb_3syn, symObjAddr: 0x15E00, symBinAddr: 0x7E510, symSize: 0xB0 }
  - { offset: 0xDC777, size: 0x8, addend: 0x0, symName: __RNvXs1U_NtCslJiobkLta79_5alloc6stringReNtB6_12SpecToString14spec_to_stringCsdGrGZaRBwMb_3syn, symObjAddr: 0x15EB0, symBinAddr: 0x7E5C0, symSize: 0x60 }
  - { offset: 0xDC8A1, size: 0x8, addend: 0x0, symName: __RNvXs1g_NtCslJiobkLta79_5alloc6stringNtB6_13FromUtf8ErrorNtNtCsieiGu2EXtoJ_4core3fmt5Debug3fmtCsdGrGZaRBwMb_3syn, symObjAddr: 0x15F70, symBinAddr: 0x7E640, symSize: 0x90 }
  - { offset: 0xDC91E, size: 0x8, addend: 0x0, symName: __RNvXs1n_NtCslJiobkLta79_5alloc6stringNtB6_6StringINtNtCsieiGu2EXtoJ_4core3cmp9PartialEqReE2eqCsdGrGZaRBwMb_3syn, symObjAddr: 0x16000, symBinAddr: 0x7E6D0, symSize: 0x130 }
  - { offset: 0xDCC00, size: 0x8, addend: 0x0, symName: __RNvXsT_NtCslJiobkLta79_5alloc6stringNtB5_6StringNtNtCsieiGu2EXtoJ_4core3fmt5Write10write_charCsdGrGZaRBwMb_3syn, symObjAddr: 0x16E80, symBinAddr: 0x7EE00, symSize: 0x30 }
  - { offset: 0xDCC3D, size: 0x8, addend: 0x0, symName: __RNvXsT_NtCslJiobkLta79_5alloc6stringNtB5_6StringNtNtCsieiGu2EXtoJ_4core3fmt5Write9write_strCsdGrGZaRBwMb_3syn, symObjAddr: 0x16EB0, symBinAddr: 0x7EE30, symSize: 0x30 }
  - { offset: 0xDCC80, size: 0x8, addend: 0x0, symName: __RNvXsm_NtCslJiobkLta79_5alloc6stringNtB5_6StringNtNtCsieiGu2EXtoJ_4core3fmt5Debug3fmtCsdGrGZaRBwMb_3syn, symObjAddr: 0x17480, symBinAddr: 0x7F1D0, symSize: 0x70 }
  - { offset: 0xDCDE5, size: 0x8, addend: 0x0, symName: __RNvXsw_NtCslJiobkLta79_5alloc6stringNtB5_6StringNtB5_8ToString9to_stringCsdGrGZaRBwMb_3syn, symObjAddr: 0x17510, symBinAddr: 0x7F260, symSize: 0x30 }
  - { offset: 0xDCE1C, size: 0x8, addend: 0x0, symName: __RNvXsw_NtCslJiobkLta79_5alloc6stringReNtB5_8ToString9to_stringCsdGrGZaRBwMb_3syn, symObjAddr: 0x17540, symBinAddr: 0x7F290, symSize: 0x30 }
  - { offset: 0xDD037, size: 0x8, addend: 0x0, symName: __RNvXNvMs_NtNtCslJiobkLta79_5alloc3ffi5c_strNtB7_7CString3newNtNtBb_6string6StringNtB2_11SpecNewImpl13spec_new_implCsdGrGZaRBwMb_3syn, symObjAddr: 0x15440, symBinAddr: 0x7E150, symSize: 0x200 }
  - { offset: 0xDD8C3, size: 0x8, addend: 0x0, symName: __RNvMNtCslJiobkLta79_5alloc6stringNtB2_6String10into_bytesCsdGrGZaRBwMb_3syn, symObjAddr: 0x470, symBinAddr: 0x69730, symSize: 0x20 }
  - { offset: 0xDD9AD, size: 0x8, addend: 0x0, symName: __RNvMNtCslJiobkLta79_5alloc6stringNtB2_6String13with_capacityCsdGrGZaRBwMb_3syn, symObjAddr: 0x490, symBinAddr: 0x69750, symSize: 0x70 }
  - { offset: 0xDDAAC, size: 0x8, addend: 0x0, symName: __RNvMNtCslJiobkLta79_5alloc6stringNtB2_6String14into_boxed_strCsdGrGZaRBwMb_3syn, symObjAddr: 0x500, symBinAddr: 0x697C0, symSize: 0x70 }
  - { offset: 0xDDBBE, size: 0x8, addend: 0x0, symName: __RNvMNtCslJiobkLta79_5alloc6stringNtB2_6String3lenCsdGrGZaRBwMb_3syn, symObjAddr: 0x570, symBinAddr: 0x69830, symSize: 0x10 }
  - { offset: 0xDDC06, size: 0x8, addend: 0x0, symName: __RNvMNtCslJiobkLta79_5alloc6stringNtB2_6String3newCsdGrGZaRBwMb_3syn, symObjAddr: 0x580, symBinAddr: 0x69840, symSize: 0x40 }
  - { offset: 0xDDDD2, size: 0x8, addend: 0x0, symName: __RNvMNtCslJiobkLta79_5alloc6stringNtB2_6String4pushCsdGrGZaRBwMb_3syn, symObjAddr: 0x5C0, symBinAddr: 0x69880, symSize: 0x130 }
  - { offset: 0xDE0B9, size: 0x8, addend: 0x0, symName: __RNvMNtCslJiobkLta79_5alloc6stringNtB2_6String6as_strCsdGrGZaRBwMb_3syn, symObjAddr: 0x6F0, symBinAddr: 0x699B0, symSize: 0x60 }
  - { offset: 0xDE38E, size: 0x8, addend: 0x0, symName: __RNvMNtCslJiobkLta79_5alloc6stringNtB2_6String6insertCsdGrGZaRBwMb_3syn, symObjAddr: 0x750, symBinAddr: 0x69A10, symSize: 0x370 }
  - { offset: 0xDE8A2, size: 0x8, addend: 0x0, symName: __RNvMNtCslJiobkLta79_5alloc6stringNtB2_6String8is_emptyCsdGrGZaRBwMb_3syn, symObjAddr: 0xAC0, symBinAddr: 0x69D80, symSize: 0x20 }
  - { offset: 0xDE9B0, size: 0x8, addend: 0x0, symName: __RNvMNtCslJiobkLta79_5alloc6stringNtB2_6String8push_strCsdGrGZaRBwMb_3syn, symObjAddr: 0xAE0, symBinAddr: 0x69DA0, symSize: 0x50 }
  - { offset: 0xDEC6E, size: 0x8, addend: 0x0, symName: __RNvMNtCslJiobkLta79_5alloc6stringNtB2_6String8truncateCsdGrGZaRBwMb_3syn, symObjAddr: 0xB30, symBinAddr: 0x69DF0, symSize: 0x1C0 }
  - { offset: 0xDEFFF, size: 0x8, addend: 0x0, symName: __RNvMNtCslJiobkLta79_5alloc6stringNtB2_6String9from_utf8CsdGrGZaRBwMb_3syn, symObjAddr: 0xCF0, symBinAddr: 0x69FB0, symSize: 0x1C0 }
  - { offset: 0xDF1BE, size: 0x8, addend: 0x0, symName: __RNvMNtCslJiobkLta79_5alloc6stringNtB2_6String9split_offCsdGrGZaRBwMb_3syn, symObjAddr: 0xEB0, symBinAddr: 0x6A170, symSize: 0x180 }
  - { offset: 0xDF425, size: 0x8, addend: 0x0, symName: __RNvMs_NtNtCsdGrGZaRBwMb_3syn11restriction7parsingNtB6_10Visibility7is_some, symObjAddr: 0x1100, symBinAddr: 0x6A2F0, symSize: 0x50 }
  - { offset: 0xDF4A3, size: 0x8, addend: 0x0, symName: __RNvMs_NtNtCsdGrGZaRBwMb_3syn11restriction7parsingNtB6_10Visibility9parse_pub, symObjAddr: 0x1150, symBinAddr: 0x6A340, symSize: 0xAF0 }
  - { offset: 0xDF688, size: 0x8, addend: 0x0, symName: __RNvMs_NtNtCsdGrGZaRBwMb_3syn4item7parsingNtB4_16FlexibleItemType21parse_optional_bounds, symObjAddr: 0x1C40, symBinAddr: 0x6AE30, symSize: 0x4A0 }
  - { offset: 0xDF771, size: 0x8, addend: 0x0, symName: __RNvMs_NtNtCsdGrGZaRBwMb_3syn4item7parsingNtB4_16FlexibleItemType25parse_optional_definition, symObjAddr: 0x20E0, symBinAddr: 0x6B2D0, symSize: 0x230 }
  - { offset: 0xDF827, size: 0x8, addend: 0x0, symName: __RNvMs_NtNtCsdGrGZaRBwMb_3syn4item7parsingNtB4_16FlexibleItemType5parse, symObjAddr: 0x2310, symBinAddr: 0x6B500, symSize: 0xDB0 }
  - { offset: 0xDFB01, size: 0x8, addend: 0x0, symName: __RNvMs_NtNtCslJiobkLta79_5alloc3vec9into_iterINtB4_8IntoIterNtNtCsdGrGZaRBwMb_3syn4attr9AttributeE8as_sliceBZ_, symObjAddr: 0x30C0, symBinAddr: 0x6C2B0, symSize: 0x60 }
  - { offset: 0xDFB67, size: 0x8, addend: 0x0, symName: __RNvMsy_NtNtCsdGrGZaRBwMb_3syn4item7parsingNtNtB9_11restriction10Visibility12is_inherited, symObjAddr: 0x3180, symBinAddr: 0x6C310, symSize: 0x50 }
  - { offset: 0xE0680, size: 0x8, addend: 0x0, symName: __RINvNtNtCsdGrGZaRBwMb_3syn3lit5value11backslash_uShEB6_, symObjAddr: 0x0, symBinAddr: 0x7F640, symSize: 0x500 }
  - { offset: 0xE0F38, size: 0x8, addend: 0x0, symName: __RNvXs_NtNtCslJiobkLta79_5alloc3vec15set_len_on_dropNtB4_12SetLenOnDropNtNtNtCsieiGu2EXtoJ_4core3ops4drop4Drop4dropCsdGrGZaRBwMb_3syn, symObjAddr: 0x18670, symBinAddr: 0x91AF0, symSize: 0x20 }
  - { offset: 0xE1AD7, size: 0x8, addend: 0x0, symName: __RINvXNvMNtCslJiobkLta79_5alloc5sliceSp9to_vec_inTNtNtCsdGrGZaRBwMb_3syn3pat3PatNtNtBP_5token2OrENtB3_10ConvertVec6to_vecNtNtB8_5alloc6GlobalEBP_, symObjAddr: 0x10F0, symBinAddr: 0x80730, symSize: 0x4A0 }
  - { offset: 0xE202B, size: 0x8, addend: 0x0, symName: __RINvXNvMNtCslJiobkLta79_5alloc5sliceSp9to_vec_inTNtNtCsdGrGZaRBwMb_3syn3pat3PatNtNtBP_5token5CommaENtB3_10ConvertVec6to_vecNtNtB8_5alloc6GlobalEBP_, symObjAddr: 0x1590, symBinAddr: 0x80BD0, symSize: 0x4A0 }
  - { offset: 0xE257F, size: 0x8, addend: 0x0, symName: __RINvXNvMNtCslJiobkLta79_5alloc5sliceSp9to_vec_inTNtNtCsdGrGZaRBwMb_3syn3pat8FieldPatNtNtBP_5token5CommaENtB3_10ConvertVec6to_vecNtNtB8_5alloc6GlobalEBP_, symObjAddr: 0x1A30, symBinAddr: 0x81070, symSize: 0x490 }
  - { offset: 0xE37C2, size: 0x8, addend: 0x0, symName: __RNvXs5_NtNtCsieiGu2EXtoJ_4core3str6traitsINtNtNtB9_3ops5range5RangejEINtNtNtB9_5slice5index10SliceIndexeE3getCsdGrGZaRBwMb_3syn, symObjAddr: 0x17590, symBinAddr: 0x91450, symSize: 0x1F0 }
  - { offset: 0xE398D, size: 0x8, addend: 0x0, symName: __RNvXs9_NtNtCsieiGu2EXtoJ_4core3str6traitsINtNtNtB9_3ops5range9RangeFromjEINtNtNtB9_5slice5index10SliceIndexeE3getCsdGrGZaRBwMb_3syn, symObjAddr: 0x17ED0, symBinAddr: 0x918D0, symSize: 0x130 }
  - { offset: 0xE60B7, size: 0x8, addend: 0x0, symName: __RNvXs5_NtNtCsieiGu2EXtoJ_4core5slice5indexINtNtNtB9_3ops5range9RangeFromjEINtB5_10SliceIndexShE3getCsdGrGZaRBwMb_3syn, symObjAddr: 0x17780, symBinAddr: 0x91640, symSize: 0x80 }
  - { offset: 0xE63CF, size: 0x8, addend: 0x0, symName: __RNvMNtCsieiGu2EXtoJ_4core5sliceSTNtNtCsdGrGZaRBwMb_3syn3pat3PatNtNtBz_5token2OrE4iterBz_, symObjAddr: 0x29E0, symBinAddr: 0x81FA0, symSize: 0x20 }
  - { offset: 0xE6406, size: 0x8, addend: 0x0, symName: __RNvMNtCsieiGu2EXtoJ_4core5sliceSTNtNtCsdGrGZaRBwMb_3syn3pat3PatNtNtBz_5token5CommaE4iterBz_, symObjAddr: 0x2A00, symBinAddr: 0x81FC0, symSize: 0x20 }
  - { offset: 0xE643D, size: 0x8, addend: 0x0, symName: __RNvMNtCsieiGu2EXtoJ_4core5sliceSTNtNtCsdGrGZaRBwMb_3syn3pat8FieldPatNtNtBz_5token5CommaE4iterBz_, symObjAddr: 0x2A20, symBinAddr: 0x81FE0, symSize: 0x20 }
  - { offset: 0xE6B70, size: 0x8, addend: 0x0, symName: __RINvYNtNtCsaKzlTDPUHDb_11proc_macro212token_stream8IntoIterNtNtNtNtCsieiGu2EXtoJ_4core4iter6traits8iterator8Iterator4foldINtNtB13_6option6OptionNtB7_9TokenTreeEINvNvBV_4last4someB2i_EECsdGrGZaRBwMb_3syn, symObjAddr: 0x1EC0, symBinAddr: 0x81500, symSize: 0x230 }
  - { offset: 0xE6C08, size: 0x8, addend: 0x0, symName: __RNvYNtNtCsaKzlTDPUHDb_11proc_macro212token_stream8IntoIterNtNtNtNtCsieiGu2EXtoJ_4core4iter6traits8iterator8Iterator4lastCsdGrGZaRBwMb_3syn, symObjAddr: 0x194C0, symBinAddr: 0x91DE0, symSize: 0x30 }
  - { offset: 0xE7546, size: 0x8, addend: 0x0, symName: __RNvNvNtCsieiGu2EXtoJ_4core9ub_checks23maybe_is_nonoverlapping7runtimeCsdGrGZaRBwMb_3syn, symObjAddr: 0x10A60, symBinAddr: 0x8F560, symSize: 0xC0 }
  - { offset: 0xE7703, size: 0x8, addend: 0x0, symName: __RNvXNtNtCsieiGu2EXtoJ_4core5clone6uninitNtNtCsdGrGZaRBwMb_3syn3pat3PatNtB2_8CopySpec9clone_oneBG_, symObjAddr: 0x13270, symBinAddr: 0x8FB70, symSize: 0x50 }
  - { offset: 0xE7768, size: 0x8, addend: 0x0, symName: __RNvXNtNtCsieiGu2EXtoJ_4core5clone6uninitNtNtCsdGrGZaRBwMb_3syn3pat8FieldPatNtB2_8CopySpec9clone_oneBG_, symObjAddr: 0x132C0, symBinAddr: 0x8FBC0, symSize: 0x40 }
  - { offset: 0xE9E74, size: 0x8, addend: 0x0, symName: __RNCNvXNtNtCsdGrGZaRBwMb_3syn4stmt8printingNtB6_5BlockNtNtCs9OU1sGv5X54_5quote9to_tokens8ToTokens9to_tokens0B8_, symObjAddr: 0x26F0, symBinAddr: 0x81D30, symSize: 0x30 }
  - { offset: 0xE9EBB, size: 0x8, addend: 0x0, symName: __RNCNvXs0_NtNtCsdGrGZaRBwMb_3syn4stmt8printingNtB9_5LocalNtNtCs9OU1sGv5X54_5quote9to_tokens8ToTokens9to_tokens0Bb_, symObjAddr: 0x2720, symBinAddr: 0x81D60, symSize: 0x40 }
  - { offset: 0xEA5FF, size: 0x8, addend: 0x0, symName: __RNcNtNtNtCsdGrGZaRBwMb_3syn3pat3Pat11TupleStruct0B7_, symObjAddr: 0x2760, symBinAddr: 0x81DA0, symSize: 0x40 }
  - { offset: 0xEA62E, size: 0x8, addend: 0x0, symName: __RNcNtNtNtCsdGrGZaRBwMb_3syn3pat3Pat4Wild0B7_, symObjAddr: 0x27A0, symBinAddr: 0x81DE0, symSize: 0x40 }
  - { offset: 0xEA65C, size: 0x8, addend: 0x0, symName: __RNcNtNtNtCsdGrGZaRBwMb_3syn3pat3Pat5Ident0B7_, symObjAddr: 0x27E0, symBinAddr: 0x81E20, symSize: 0x40 }
  - { offset: 0xEA68B, size: 0x8, addend: 0x0, symName: __RNcNtNtNtCsdGrGZaRBwMb_3syn3pat3Pat5Slice0B7_, symObjAddr: 0x2820, symBinAddr: 0x81E60, symSize: 0x40 }
  - { offset: 0xEA6BA, size: 0x8, addend: 0x0, symName: __RNcNtNtNtCsdGrGZaRBwMb_3syn3pat3Pat6Struct0B7_, symObjAddr: 0x2860, symBinAddr: 0x81EA0, symSize: 0x30 }
  - { offset: 0xEA6E9, size: 0x8, addend: 0x0, symName: __RNcNtNtNtCsdGrGZaRBwMb_3syn3pat3Pat8Verbatim0B7_, symObjAddr: 0x2890, symBinAddr: 0x81ED0, symSize: 0x40 }
  - { offset: 0xEA717, size: 0x8, addend: 0x0, symName: __RNcNtNtNtCsdGrGZaRBwMb_3syn3pat3Pat9Reference0B7_, symObjAddr: 0x28D0, symBinAddr: 0x81F10, symSize: 0x40 }
  - { offset: 0xEA7FF, size: 0x8, addend: 0x0, symName: __RNvNtNtCsdGrGZaRBwMb_3syn3pat7parsing10pat_struct, symObjAddr: 0x99A0, symBinAddr: 0x884A0, symSize: 0xD40 }
  - { offset: 0xEA9CD, size: 0x8, addend: 0x0, symName: __RNvNtNtCsdGrGZaRBwMb_3syn3pat7parsing13pat_reference, symObjAddr: 0xA6E0, symBinAddr: 0x891E0, symSize: 0x420 }
  - { offset: 0xEAA77, size: 0x8, addend: 0x0, symName: __RNvNtNtCsdGrGZaRBwMb_3syn3pat7parsing14multi_pat_impl, symObjAddr: 0xAB00, symBinAddr: 0x89600, symSize: 0x680 }
  - { offset: 0xEABAC, size: 0x8, addend: 0x0, symName: __RNvNtNtCsdGrGZaRBwMb_3syn3pat7parsing15pat_range_bound, symObjAddr: 0xB180, symBinAddr: 0x89C80, symSize: 0x730 }
  - { offset: 0xEAC55, size: 0x8, addend: 0x0, symName: __RNvNtNtCsdGrGZaRBwMb_3syn3pat7parsing16pat_lit_or_range, symObjAddr: 0xB8B0, symBinAddr: 0x8A3B0, symSize: 0x610 }
  - { offset: 0xEAD72, size: 0x8, addend: 0x0, symName: __RNvNtNtCsdGrGZaRBwMb_3syn3pat7parsing16pat_tuple_struct, symObjAddr: 0xBEC0, symBinAddr: 0x8A9C0, symSize: 0x710 }
  - { offset: 0xEAEBD, size: 0x8, addend: 0x0, symName: __RNvNtNtCsdGrGZaRBwMb_3syn3pat7parsing18pat_paren_or_tuple, symObjAddr: 0xC5D0, symBinAddr: 0x8B0D0, symSize: 0x7E0 }
  - { offset: 0xEB007, size: 0x8, addend: 0x0, symName: __RNvNtNtCsdGrGZaRBwMb_3syn3pat7parsing19pat_range_half_open, symObjAddr: 0xCDB0, symBinAddr: 0x8B8B0, symSize: 0x490 }
  - { offset: 0xEB0DF, size: 0x8, addend: 0x0, symName: __RNvNtNtCsdGrGZaRBwMb_3syn3pat7parsing36pat_path_or_macro_or_struct_or_range, symObjAddr: 0xD240, symBinAddr: 0x8BD40, symSize: 0xA40 }
  - { offset: 0xEB1D7, size: 0x8, addend: 0x0, symName: __RNvNtNtCsdGrGZaRBwMb_3syn3pat7parsing7pat_box, symObjAddr: 0xDC80, symBinAddr: 0x8C780, symSize: 0x2A0 }
  - { offset: 0xEB262, size: 0x8, addend: 0x0, symName: __RNvNtNtCsdGrGZaRBwMb_3syn3pat7parsing8pat_wild, symObjAddr: 0xDF20, symBinAddr: 0x8CA20, symSize: 0x180 }
  - { offset: 0xEB2AE, size: 0x8, addend: 0x0, symName: __RNvNtNtCsdGrGZaRBwMb_3syn3pat7parsing9field_pat, symObjAddr: 0xE0A0, symBinAddr: 0x8CBA0, symSize: 0xDE0 }
  - { offset: 0xEB4EE, size: 0x8, addend: 0x0, symName: __RNvNtNtCsdGrGZaRBwMb_3syn3pat7parsing9pat_const, symObjAddr: 0xEE80, symBinAddr: 0x8D980, symSize: 0x500 }
  - { offset: 0xEB602, size: 0x8, addend: 0x0, symName: __RNvNtNtCsdGrGZaRBwMb_3syn3pat7parsing9pat_ident, symObjAddr: 0xF380, symBinAddr: 0x8DE80, symSize: 0x810 }
  - { offset: 0xEB774, size: 0x8, addend: 0x0, symName: __RNvNtNtCsdGrGZaRBwMb_3syn3pat7parsing9pat_range, symObjAddr: 0xFB90, symBinAddr: 0x8E690, symSize: 0x690 }
  - { offset: 0xEB87B, size: 0x8, addend: 0x0, symName: __RNvNtNtCsdGrGZaRBwMb_3syn3pat7parsing9pat_slice, symObjAddr: 0x10220, symBinAddr: 0x8ED20, symSize: 0x840 }
  - { offset: 0xEBA4C, size: 0x8, addend: 0x0, symName: __RNvXNtNtCsdGrGZaRBwMb_3syn3pat8printingNtB4_8PatIdentNtNtCs9OU1sGv5X54_5quote9to_tokens8ToTokens9to_tokens, symObjAddr: 0x10FE0, symBinAddr: 0x8FA90, symSize: 0xE0 }
  - { offset: 0xEBAB9, size: 0x8, addend: 0x0, symName: __RNvXs0_NtNtCsdGrGZaRBwMb_3syn3pat8printingNtB7_8PatParenNtNtCs9OU1sGv5X54_5quote9to_tokens8ToTokens9to_tokens, symObjAddr: 0x13550, symBinAddr: 0x8FC00, symSize: 0x60 }
  - { offset: 0xEBAF8, size: 0x8, addend: 0x0, symName: __RNvXs1_NtNtCsdGrGZaRBwMb_3syn3pat8printingNtB7_12PatReferenceNtNtCs9OU1sGv5X54_5quote9to_tokens8ToTokens9to_tokens, symObjAddr: 0x150B0, symBinAddr: 0x91190, symSize: 0x80 }
  - { offset: 0xEBB37, size: 0x8, addend: 0x0, symName: __RNvXs2_NtNtCsdGrGZaRBwMb_3syn3pat8printingNtB7_7PatRestNtNtCs9OU1sGv5X54_5quote9to_tokens8ToTokens9to_tokens, symObjAddr: 0x15D10, symBinAddr: 0x912B0, symSize: 0x60 }
  - { offset: 0xEBB76, size: 0x8, addend: 0x0, symName: __RNvXs3_NtNtCsdGrGZaRBwMb_3syn3pat8printingNtB7_8PatSliceNtNtCs9OU1sGv5X54_5quote9to_tokens8ToTokens9to_tokens, symObjAddr: 0x17070, symBinAddr: 0x91310, symSize: 0x60 }
  - { offset: 0xEBBB5, size: 0x8, addend: 0x0, symName: __RNvXs4_NtNtCsdGrGZaRBwMb_3syn3pat8printingNtB7_9PatStructNtNtCs9OU1sGv5X54_5quote9to_tokens8ToTokens9to_tokens, symObjAddr: 0x17460, symBinAddr: 0x91370, symSize: 0x80 }
  - { offset: 0xEBBF4, size: 0x8, addend: 0x0, symName: __RNvXs5_NtNtCsdGrGZaRBwMb_3syn3pat8printingNtB7_8PatTupleNtNtCs9OU1sGv5X54_5quote9to_tokens8ToTokens9to_tokens, symObjAddr: 0x17530, symBinAddr: 0x913F0, symSize: 0x60 }
  - { offset: 0xEBC33, size: 0x8, addend: 0x0, symName: __RNvXs6_NtNtCsdGrGZaRBwMb_3syn3pat8printingNtB7_14PatTupleStructNtNtCs9OU1sGv5X54_5quote9to_tokens8ToTokens9to_tokens, symObjAddr: 0x17850, symBinAddr: 0x916C0, symSize: 0x80 }
  - { offset: 0xEBC72, size: 0x8, addend: 0x0, symName: __RNvXs7_NtNtCsdGrGZaRBwMb_3syn3pat8printingNtB7_7PatTypeNtNtCs9OU1sGv5X54_5quote9to_tokens8ToTokens9to_tokens, symObjAddr: 0x17910, symBinAddr: 0x91740, symSize: 0x80 }
  - { offset: 0xEBCB1, size: 0x8, addend: 0x0, symName: __RNvXs8_NtNtCsdGrGZaRBwMb_3syn3pat8printingNtB7_7PatWildNtNtCs9OU1sGv5X54_5quote9to_tokens8ToTokens9to_tokens, symObjAddr: 0x17D90, symBinAddr: 0x917C0, symSize: 0x60 }
  - { offset: 0xEBCF0, size: 0x8, addend: 0x0, symName: __RNvXs9_NtNtCsdGrGZaRBwMb_3syn3pat8printingNtB7_8FieldPatNtNtCs9OU1sGv5X54_5quote9to_tokens8ToTokens9to_tokens, symObjAddr: 0x17E20, symBinAddr: 0x91820, symSize: 0xB0 }
  - { offset: 0xEBD4D, size: 0x8, addend: 0x0, symName: __RNvXs_NtNtCsdGrGZaRBwMb_3syn3pat8printingNtB6_5PatOrNtNtCs9OU1sGv5X54_5quote9to_tokens8ToTokens9to_tokens, symObjAddr: 0x18600, symBinAddr: 0x91A80, symSize: 0x70 }
  - { offset: 0xEBD8D, size: 0x8, addend: 0x0, symName: __RNvXse_NtCsdGrGZaRBwMb_3syn3patNtB5_3PatNtNtCs9OU1sGv5X54_5quote9to_tokens8ToTokens9to_tokens, symObjAddr: 0x187C0, symBinAddr: 0x91B10, symSize: 0x2D0 }
  - { offset: 0xEC27E, size: 0x8, addend: 0x0, symName: __RINvNtNtCsdGrGZaRBwMb_3syn3lit5value11backslash_uShEB6_, symObjAddr: 0x0, symBinAddr: 0x7F640, symSize: 0x500 }
  - { offset: 0xEC409, size: 0x8, addend: 0x0, symName: __RINvNtNtCsdGrGZaRBwMb_3syn3lit5value11backslash_ueEB6_, symObjAddr: 0x500, symBinAddr: 0x7FB40, symSize: 0x3C0 }
  - { offset: 0xEC4F3, size: 0x8, addend: 0x0, symName: __RINvNtNtCsdGrGZaRBwMb_3syn3lit5value11backslash_xShEB6_, symObjAddr: 0x8C0, symBinAddr: 0x7FF00, symSize: 0x390 }
  - { offset: 0xEC593, size: 0x8, addend: 0x0, symName: __RINvNtNtCsdGrGZaRBwMb_3syn3lit5value11backslash_xeEB6_, symObjAddr: 0xC50, symBinAddr: 0x80290, symSize: 0x380 }
  - { offset: 0xEC60C, size: 0x8, addend: 0x0, symName: __RINvNtNtCsdGrGZaRBwMb_3syn3lit5value4byteShEB6_, symObjAddr: 0xFD0, symBinAddr: 0x80610, symSize: 0x90 }
  - { offset: 0xEC668, size: 0x8, addend: 0x0, symName: __RINvNtNtCsdGrGZaRBwMb_3syn3lit5value4byteeEB6_, symObjAddr: 0x1060, symBinAddr: 0x806A0, symSize: 0x90 }
  - { offset: 0xEC6C9, size: 0x8, addend: 0x0, symName: __RNCNvNtNtCsdGrGZaRBwMb_3syn3lit5value15parse_lit_float0B7_, symObjAddr: 0x26C0, symBinAddr: 0x81D00, symSize: 0x30 }
  - { offset: 0xEC70A, size: 0x8, addend: 0x0, symName: __RNvNtNtCsdGrGZaRBwMb_3syn3lit5value13parse_lit_int, symObjAddr: 0x4350, symBinAddr: 0x82E50, symSize: 0xAF0 }
  - { offset: 0xEC859, size: 0x8, addend: 0x0, symName: __RNvNtNtCsdGrGZaRBwMb_3syn3lit5value13parse_lit_str, symObjAddr: 0x4E40, symBinAddr: 0x83940, symSize: 0xB0 }
  - { offset: 0xEC887, size: 0x8, addend: 0x0, symName: __RNvNtNtCsdGrGZaRBwMb_3syn3lit5value14parse_lit_byte, symObjAddr: 0x4EF0, symBinAddr: 0x839F0, symSize: 0x640 }
  - { offset: 0xECA81, size: 0x8, addend: 0x0, symName: __RNvNtNtCsdGrGZaRBwMb_3syn3lit5value14parse_lit_char, symObjAddr: 0x5530, symBinAddr: 0x84030, symSize: 0x780 }
  - { offset: 0xECC33, size: 0x8, addend: 0x0, symName: __RNvNtNtCsdGrGZaRBwMb_3syn3lit5value15parse_lit_c_str, symObjAddr: 0x5CB0, symBinAddr: 0x847B0, symSize: 0x120 }
  - { offset: 0xECCAD, size: 0x8, addend: 0x0, symName: __RNvNtNtCsdGrGZaRBwMb_3syn3lit5value15parse_lit_float, symObjAddr: 0x5DD0, symBinAddr: 0x848D0, symSize: 0xD30 }
  - { offset: 0xECE29, size: 0x8, addend: 0x0, symName: __RNvNtNtCsdGrGZaRBwMb_3syn3lit5value17parse_lit_str_raw, symObjAddr: 0x6B00, symBinAddr: 0x85600, symSize: 0x5F0 }
  - { offset: 0xECF93, size: 0x8, addend: 0x0, symName: __RNvNtNtCsdGrGZaRBwMb_3syn3lit5value18parse_lit_byte_str, symObjAddr: 0x70F0, symBinAddr: 0x85BF0, symSize: 0x120 }
  - { offset: 0xED00D, size: 0x8, addend: 0x0, symName: __RNvNtNtCsdGrGZaRBwMb_3syn3lit5value19parse_lit_c_str_raw, symObjAddr: 0x7210, symBinAddr: 0x85D10, symSize: 0x340 }
  - { offset: 0xED10A, size: 0x8, addend: 0x0, symName: __RNvNtNtCsdGrGZaRBwMb_3syn3lit5value20parse_lit_str_cooked, symObjAddr: 0x7550, symBinAddr: 0x86050, symSize: 0xA60 }
  - { offset: 0xED2E0, size: 0x8, addend: 0x0, symName: __RNvNtNtCsdGrGZaRBwMb_3syn3lit5value22parse_lit_byte_str_raw, symObjAddr: 0x7FB0, symBinAddr: 0x86AB0, symSize: 0x280 }
  - { offset: 0xED3A0, size: 0x8, addend: 0x0, symName: __RNvNtNtCsdGrGZaRBwMb_3syn3lit5value22parse_lit_c_str_cooked, symObjAddr: 0x8230, symBinAddr: 0x86D30, symSize: 0xD20 }
  - { offset: 0xED694, size: 0x8, addend: 0x0, symName: __RNvNtNtCsdGrGZaRBwMb_3syn3lit5value25parse_lit_byte_str_cooked, symObjAddr: 0x8F50, symBinAddr: 0x87A50, symSize: 0xA10 }
  - { offset: 0xED91A, size: 0x8, addend: 0x0, symName: __RNvNtNtCsdGrGZaRBwMb_3syn3lit5value8next_chr, symObjAddr: 0x9960, symBinAddr: 0x88460, symSize: 0x40 }
  - { offset: 0xEDA51, size: 0x8, addend: 0x0, symName: __RNCNvNtCsdGrGZaRBwMb_3syn3mac15parse_delimiter0B5_, symObjAddr: 0x20F0, symBinAddr: 0x81730, symSize: 0x5D0 }
  - { offset: 0xEDAE3, size: 0x8, addend: 0x0, symName: __RNvNtCsdGrGZaRBwMb_3syn3mac15parse_delimiter, symObjAddr: 0x4320, symBinAddr: 0x82E20, symSize: 0x30 }
  - { offset: 0xEDB19, size: 0x8, addend: 0x0, symName: __RNvXNtNtCsdGrGZaRBwMb_3syn3mac7parsingNtB4_5MacroNtNtB6_5parse5Parse5parse, symObjAddr: 0x10BD0, symBinAddr: 0x8F680, symSize: 0x410 }
  - { offset: 0xEDBCF, size: 0x8, addend: 0x0, symName: __RNvXs_NtNtCsdGrGZaRBwMb_3syn3mac8printingNtB6_5MacroNtNtCs9OU1sGv5X54_5quote9to_tokens8ToTokens9to_tokens, symObjAddr: 0x18130, symBinAddr: 0x91A00, symSize: 0x80 }
  - { offset: 0xEFB73, size: 0x8, addend: 0x0, symName: __RNvXs10_NtNtCsdGrGZaRBwMb_3syn3gen5cloneNtNtBa_3pat8FieldPatNtNtCsieiGu2EXtoJ_4core5clone5Clone5clone, symObjAddr: 0x135B0, symBinAddr: 0x8FC60, symSize: 0x110 }
  - { offset: 0xEFBA7, size: 0x8, addend: 0x0, symName: __RNvXs1I_NtNtCsdGrGZaRBwMb_3syn3gen5cloneNtNtBa_3mac5MacroNtNtCsieiGu2EXtoJ_4core5clone5Clone5clone, symObjAddr: 0x138B0, symBinAddr: 0x8FD70, symSize: 0x120 }
  - { offset: 0xEFBDB, size: 0x8, addend: 0x0, symName: __RNvXs1J_NtNtCsdGrGZaRBwMb_3syn3gen5cloneNtNtBa_3mac14MacroDelimiterNtNtCsieiGu2EXtoJ_4core5clone5Clone5clone, symObjAddr: 0x139D0, symBinAddr: 0x8FE90, symSize: 0xF0 }
  - { offset: 0xEFC61, size: 0x8, addend: 0x0, symName: __RNvXs1P_NtNtCsdGrGZaRBwMb_3syn3gen5cloneNtNtBa_3pat3PatNtNtCsieiGu2EXtoJ_4core5clone5Clone5clone, symObjAddr: 0x13B70, symBinAddr: 0x8FF80, symSize: 0x6B0 }
  - { offset: 0xEFE95, size: 0x8, addend: 0x0, symName: __RNvXs1Q_NtNtCsdGrGZaRBwMb_3syn3gen5cloneNtNtBa_3pat8PatIdentNtNtCsieiGu2EXtoJ_4core5clone5Clone5clone, symObjAddr: 0x14220, symBinAddr: 0x90630, symSize: 0x170 }
  - { offset: 0xEFEC9, size: 0x8, addend: 0x0, symName: __RNvXs1R_NtNtCsdGrGZaRBwMb_3syn3gen5cloneNtNtBa_3pat5PatOrNtNtCsieiGu2EXtoJ_4core5clone5Clone5clone, symObjAddr: 0x14390, symBinAddr: 0x907A0, symSize: 0xF0 }
  - { offset: 0xEFEFD, size: 0x8, addend: 0x0, symName: __RNvXs1S_NtNtCsdGrGZaRBwMb_3syn3gen5cloneNtNtBa_3pat8PatParenNtNtCsieiGu2EXtoJ_4core5clone5Clone5clone, symObjAddr: 0x14480, symBinAddr: 0x90890, symSize: 0xC0 }
  - { offset: 0xEFF31, size: 0x8, addend: 0x0, symName: __RNvXs1T_NtNtCsdGrGZaRBwMb_3syn3gen5cloneNtNtBa_3pat12PatReferenceNtNtCsieiGu2EXtoJ_4core5clone5Clone5clone, symObjAddr: 0x14540, symBinAddr: 0x90950, symSize: 0x100 }
  - { offset: 0xEFF65, size: 0x8, addend: 0x0, symName: __RNvXs1U_NtNtCsdGrGZaRBwMb_3syn3gen5cloneNtNtBa_3pat7PatRestNtNtCsieiGu2EXtoJ_4core5clone5Clone5clone, symObjAddr: 0x14640, symBinAddr: 0x90A50, symSize: 0xB0 }
  - { offset: 0xEFF99, size: 0x8, addend: 0x0, symName: __RNvXs1V_NtNtCsdGrGZaRBwMb_3syn3gen5cloneNtNtBa_3pat8PatSliceNtNtCsieiGu2EXtoJ_4core5clone5Clone5clone, symObjAddr: 0x146F0, symBinAddr: 0x90B00, symSize: 0xE0 }
  - { offset: 0xEFFCD, size: 0x8, addend: 0x0, symName: __RNvXs1W_NtNtCsdGrGZaRBwMb_3syn3gen5cloneNtNtBa_3pat9PatStructNtNtCsieiGu2EXtoJ_4core5clone5Clone5clone, symObjAddr: 0x147D0, symBinAddr: 0x90BE0, symSize: 0x220 }
  - { offset: 0xF0001, size: 0x8, addend: 0x0, symName: __RNvXs1X_NtNtCsdGrGZaRBwMb_3syn3gen5cloneNtNtBa_3pat8PatTupleNtNtCsieiGu2EXtoJ_4core5clone5Clone5clone, symObjAddr: 0x149F0, symBinAddr: 0x90E00, symSize: 0xE0 }
  - { offset: 0xF0035, size: 0x8, addend: 0x0, symName: __RNvXs1Y_NtNtCsdGrGZaRBwMb_3syn3gen5cloneNtNtBa_3pat14PatTupleStructNtNtCsieiGu2EXtoJ_4core5clone5Clone5clone, symObjAddr: 0x14AD0, symBinAddr: 0x90EE0, symSize: 0x1B0 }
  - { offset: 0xF0069, size: 0x8, addend: 0x0, symName: __RNvXs1Z_NtNtCsdGrGZaRBwMb_3syn3gen5cloneNtNtBa_3pat7PatTypeNtNtCsieiGu2EXtoJ_4core5clone5Clone5clone, symObjAddr: 0x14D30, symBinAddr: 0x91090, symSize: 0x100 }
  - { offset: 0xF009D, size: 0x8, addend: 0x0, symName: __RNvXs20_NtNtCsdGrGZaRBwMb_3syn3gen5cloneNtNtBa_3pat7PatWildNtNtCsieiGu2EXtoJ_4core5clone5Clone5clone, symObjAddr: 0x15130, symBinAddr: 0x91210, symSize: 0xA0 }
  - { offset: 0xF1E05, size: 0x8, addend: 0x0, symName: __RNvMNtCsdGrGZaRBwMb_3syn3macNtB2_14MacroDelimiter8is_brace, symObjAddr: 0x2990, symBinAddr: 0x81F50, symSize: 0x50 }
  - { offset: 0xF1E34, size: 0x8, addend: 0x0, symName: __RNvMNtNtCsdGrGZaRBwMb_3syn3mac8printingNtB4_14MacroDelimiter8surround, symObjAddr: 0x2A40, symBinAddr: 0x82000, symSize: 0x200 }
  - { offset: 0xF1F4B, size: 0x8, addend: 0x0, symName: __RNvMNtNtCsdGrGZaRBwMb_3syn3pat7parsingNtB4_3Pat12parse_single, symObjAddr: 0x2C80, symBinAddr: 0x82200, symSize: 0x840 }
  - { offset: 0xF1F9C, size: 0x8, addend: 0x0, symName: __RNvMNtNtCsdGrGZaRBwMb_3syn3pat7parsingNtB4_3Pat29parse_multi_with_leading_vert, symObjAddr: 0x34C0, symBinAddr: 0x82A40, symSize: 0xD0 }
  - { offset: 0xF1FFB, size: 0x8, addend: 0x0, symName: __RNvMs0_NtNtCsdGrGZaRBwMb_3syn3pat7parsingNtB5_13PatRangeBound8into_pat, symObjAddr: 0x3590, symBinAddr: 0x82B10, symSize: 0x170 }
  - { offset: 0xF2074, size: 0x8, addend: 0x0, symName: __RNvMs0_NtNtCsdGrGZaRBwMb_3syn3pat7parsingNtB5_13PatRangeBound9into_expr, symObjAddr: 0x3700, symBinAddr: 0x82C80, symSize: 0x1A0 }
  - { offset: 0xF22BD, size: 0x8, addend: 0x0, symName: __RNvXNtCs9OU1sGv5X54_5quote9to_tokensRNtNtCsdGrGZaRBwMb_3syn3pat3PatNtB2_8ToTokens9to_tokensBD_, symObjAddr: 0x10B20, symBinAddr: 0x8F620, symSize: 0x30 }
  - { offset: 0xF22FC, size: 0x8, addend: 0x0, symName: __RNvXNtCs9OU1sGv5X54_5quote9to_tokensRNtNtCsdGrGZaRBwMb_3syn3pat8FieldPatNtB2_8ToTokens9to_tokensBD_, symObjAddr: 0x10B50, symBinAddr: 0x8F650, symSize: 0x30 }
  - { offset: 0xF2670, size: 0x8, addend: 0x0, symName: __RINvMs_NtCsdGrGZaRBwMb_3syn4pathNtB5_4Path8is_identeEB7_, symObjAddr: 0x0, symBinAddr: 0x91E10, symSize: 0x80 }
  - { offset: 0xF90D3, size: 0x8, addend: 0x0, symName: __RINvYINtNtNtCsieiGu2EXtoJ_4core5slice4iter4IterNtNtCsdGrGZaRBwMb_3syn4attr9AttributeENtNtNtNtBa_4iter6traits8iterator8Iterator6filterFG0_RL1_RL0_BJ_EbEBN_, symObjAddr: 0xB10, symBinAddr: 0x92900, symSize: 0x20 }
  - { offset: 0xF9137, size: 0x8, addend: 0x0, symName: __RNvYINtNtNtCsieiGu2EXtoJ_4core5slice4iter4IterNtNtCsdGrGZaRBwMb_3syn4expr3ArmENtNtNtNtB9_4iter6traits8iterator8Iterator9enumerateBM_, symObjAddr: 0xC3B0, symBinAddr: 0x9BA20, symSize: 0x20 }
  - { offset: 0xF9183, size: 0x8, addend: 0x0, symName: __RNvYINtNtNtCsieiGu2EXtoJ_4core5slice4iter4IterhENtNtNtNtB9_4iter6traits8iterator8Iterator3revCsdGrGZaRBwMb_3syn, symObjAddr: 0xC3D0, symBinAddr: 0x9BA40, symSize: 0x20 }
  - { offset: 0xF91C6, size: 0x8, addend: 0x0, symName: __RNvXNtNtNtCsieiGu2EXtoJ_4core4iter6traits7collectINtNtNtB8_5slice4iter4IterNtCsaKzlTDPUHDb_11proc_macro24SpanENtB2_12IntoIterator9into_iterCsdGrGZaRBwMb_3syn, symObjAddr: 0x5A60, symBinAddr: 0x97130, symSize: 0x20 }
  - { offset: 0xF91FD, size: 0x8, addend: 0x0, symName: __RNvXNtNtNtCsieiGu2EXtoJ_4core4iter6traits7collectINtNtNtB8_5slice4iter4IterNtNtCsdGrGZaRBwMb_3syn4attr9AttributeENtB2_12IntoIterator9into_iterB1f_, symObjAddr: 0x5A80, symBinAddr: 0x97150, symSize: 0x20 }
  - { offset: 0xF9234, size: 0x8, addend: 0x0, symName: __RNvXNtNtNtCsieiGu2EXtoJ_4core4iter6traits7collectINtNtNtB8_5slice4iter4IterNtNtCsdGrGZaRBwMb_3syn4item11ForeignItemENtB2_12IntoIterator9into_iterB1f_, symObjAddr: 0x5AC0, symBinAddr: 0x97170, symSize: 0x20 }
  - { offset: 0xF926B, size: 0x8, addend: 0x0, symName: __RNvXNtNtNtCsieiGu2EXtoJ_4core4iter6traits7collectINtNtNtB8_5slice4iter4IterNtNtCsdGrGZaRBwMb_3syn4item4ItemENtB2_12IntoIterator9into_iterB1f_, symObjAddr: 0x5AE0, symBinAddr: 0x97190, symSize: 0x20 }
  - { offset: 0xF92A2, size: 0x8, addend: 0x0, symName: __RNvXNtNtNtCsieiGu2EXtoJ_4core4iter6traits7collectINtNtNtB8_5slice4iter4IterNtNtCsdGrGZaRBwMb_3syn4item8ImplItemENtB2_12IntoIterator9into_iterB1f_, symObjAddr: 0x5B00, symBinAddr: 0x971B0, symSize: 0x20 }
  - { offset: 0xF92D9, size: 0x8, addend: 0x0, symName: __RNvXNtNtNtCsieiGu2EXtoJ_4core4iter6traits7collectINtNtNtB8_5slice4iter4IterNtNtCsdGrGZaRBwMb_3syn4item9TraitItemENtB2_12IntoIterator9into_iterB1f_, symObjAddr: 0x5B20, symBinAddr: 0x971D0, symSize: 0x20 }
  - { offset: 0xF9310, size: 0x8, addend: 0x0, symName: __RNvXNtNtNtCsieiGu2EXtoJ_4core4iter6traits7collectINtNtNtB8_5slice4iter4IterNtNtCsdGrGZaRBwMb_3syn4stmt4StmtENtB2_12IntoIterator9into_iterB1f_, symObjAddr: 0x5B40, symBinAddr: 0x971F0, symSize: 0x20 }
  - { offset: 0xF9347, size: 0x8, addend: 0x0, symName: __RNvXNtNtNtCsieiGu2EXtoJ_4core4iter6traits7collectINtNtNtB8_5slice4iter4IterNtNtCsdGrGZaRBwMb_3syn5error12ErrorMessageENtB2_12IntoIterator9into_iterB1f_, symObjAddr: 0x5B60, symBinAddr: 0x97210, symSize: 0x20 }
  - { offset: 0xF9808, size: 0x8, addend: 0x0, symName: __RINvXs2E_NtNtCsieiGu2EXtoJ_4core5slice4iterINtB7_4IterNtNtCsdGrGZaRBwMb_3syn4attr9AttributeENtNtNtNtBb_4iter6traits8iterator8Iterator4findQFG0_RL1_RL0_BQ_EbEBU_, symObjAddr: 0x9D0, symBinAddr: 0x927C0, symSize: 0xA0 }
  - { offset: 0xF986D, size: 0x8, addend: 0x0, symName: __RINvXs2E_NtNtCsieiGu2EXtoJ_4core5slice4iterINtB7_4IterhENtNtNtNtBb_4iter6traits8iterator8Iterator4findNCNvNtNtCsdGrGZaRBwMb_3syn3lit5value15parse_lit_float0EB1K_, symObjAddr: 0xA70, symBinAddr: 0x92860, symSize: 0xA0 }
  - { offset: 0xF98D2, size: 0x8, addend: 0x0, symName: __RNvXs2E_NtNtCsieiGu2EXtoJ_4core5slice4iterINtB6_4IterNtCsaKzlTDPUHDb_11proc_macro24SpanENtNtNtNtBa_4iter6traits8iterator8Iterator4nextCsdGrGZaRBwMb_3syn, symObjAddr: 0x7110, symBinAddr: 0x982A0, symSize: 0x90 }
  - { offset: 0xF99F3, size: 0x8, addend: 0x0, symName: __RNvXs2E_NtNtCsieiGu2EXtoJ_4core5slice4iterINtB6_4IterNtNtCsdGrGZaRBwMb_3syn4attr9AttributeENtNtNtNtBa_4iter6traits8iterator8Iterator4nextBT_, symObjAddr: 0x71A0, symBinAddr: 0x98330, symSize: 0x90 }
  - { offset: 0xF9B14, size: 0x8, addend: 0x0, symName: __RNvXs2E_NtNtCsieiGu2EXtoJ_4core5slice4iterINtB6_4IterNtNtCsdGrGZaRBwMb_3syn4expr3ArmENtNtNtNtBa_4iter6traits8iterator8Iterator4nextBT_, symObjAddr: 0x7230, symBinAddr: 0x983C0, symSize: 0x90 }
  - { offset: 0xF9C35, size: 0x8, addend: 0x0, symName: __RNvXs2E_NtNtCsieiGu2EXtoJ_4core5slice4iterINtB6_4IterNtNtCsdGrGZaRBwMb_3syn4item11ForeignItemENtNtNtNtBa_4iter6traits8iterator8Iterator4nextBT_, symObjAddr: 0x72C0, symBinAddr: 0x98450, symSize: 0x90 }
  - { offset: 0xF9D56, size: 0x8, addend: 0x0, symName: __RNvXs2E_NtNtCsieiGu2EXtoJ_4core5slice4iterINtB6_4IterNtNtCsdGrGZaRBwMb_3syn4item4ItemENtNtNtNtBa_4iter6traits8iterator8Iterator4nextBT_, symObjAddr: 0x7350, symBinAddr: 0x984E0, symSize: 0x90 }
  - { offset: 0xF9E77, size: 0x8, addend: 0x0, symName: __RNvXs2E_NtNtCsieiGu2EXtoJ_4core5slice4iterINtB6_4IterNtNtCsdGrGZaRBwMb_3syn4item8ImplItemENtNtNtNtBa_4iter6traits8iterator8Iterator4nextBT_, symObjAddr: 0x73E0, symBinAddr: 0x98570, symSize: 0x90 }
  - { offset: 0xF9F98, size: 0x8, addend: 0x0, symName: __RNvXs2E_NtNtCsieiGu2EXtoJ_4core5slice4iterINtB6_4IterNtNtCsdGrGZaRBwMb_3syn4item9TraitItemENtNtNtNtBa_4iter6traits8iterator8Iterator4nextBT_, symObjAddr: 0x7470, symBinAddr: 0x98600, symSize: 0x90 }
  - { offset: 0xFA0B9, size: 0x8, addend: 0x0, symName: __RNvXs2E_NtNtCsieiGu2EXtoJ_4core5slice4iterINtB6_4IterNtNtCsdGrGZaRBwMb_3syn4stmt4StmtENtNtNtNtBa_4iter6traits8iterator8Iterator4nextBT_, symObjAddr: 0x7500, symBinAddr: 0x98690, symSize: 0x90 }
  - { offset: 0xFA1DA, size: 0x8, addend: 0x0, symName: __RNvXs2E_NtNtCsieiGu2EXtoJ_4core5slice4iterINtB6_4IterNtNtCsdGrGZaRBwMb_3syn5error12ErrorMessageENtNtNtNtBa_4iter6traits8iterator8Iterator4nextBT_, symObjAddr: 0x7590, symBinAddr: 0x98720, symSize: 0x90 }
  - { offset: 0xFA2FB, size: 0x8, addend: 0x0, symName: __RNvXs2E_NtNtCsieiGu2EXtoJ_4core5slice4iterINtB6_4IterTNtNtCsdGrGZaRBwMb_3syn2ty4TypeNtNtBU_5token5CommaEENtNtNtNtBa_4iter6traits8iterator8Iterator4nextBU_, symObjAddr: 0x7620, symBinAddr: 0x987B0, symSize: 0x90 }
  - { offset: 0xFA41C, size: 0x8, addend: 0x0, symName: __RNvXs2E_NtNtCsieiGu2EXtoJ_4core5slice4iterINtB6_4IterTNtNtCsdGrGZaRBwMb_3syn2ty9BareFnArgNtNtBU_5token5CommaEENtNtNtNtBa_4iter6traits8iterator8Iterator4nextBU_, symObjAddr: 0x76B0, symBinAddr: 0x98840, symSize: 0x90 }
  - { offset: 0xFA53D, size: 0x8, addend: 0x0, symName: __RNvXs2E_NtNtCsieiGu2EXtoJ_4core5slice4iterINtB6_4IterTNtNtCsdGrGZaRBwMb_3syn3pat3PatNtNtBU_5token2OrEENtNtNtNtBa_4iter6traits8iterator8Iterator4nextBU_, symObjAddr: 0x7740, symBinAddr: 0x988D0, symSize: 0x90 }
  - { offset: 0xFA65E, size: 0x8, addend: 0x0, symName: __RNvXs2E_NtNtCsieiGu2EXtoJ_4core5slice4iterINtB6_4IterTNtNtCsdGrGZaRBwMb_3syn3pat3PatNtNtBU_5token5CommaEENtNtNtNtBa_4iter6traits8iterator8Iterator4nextBU_, symObjAddr: 0x77D0, symBinAddr: 0x98960, symSize: 0x90 }
  - { offset: 0xFA77F, size: 0x8, addend: 0x0, symName: __RNvXs2E_NtNtCsieiGu2EXtoJ_4core5slice4iterINtB6_4IterTNtNtCsdGrGZaRBwMb_3syn3pat8FieldPatNtNtBU_5token5CommaEENtNtNtNtBa_4iter6traits8iterator8Iterator4nextBU_, symObjAddr: 0x7860, symBinAddr: 0x989F0, symSize: 0x90 }
  - { offset: 0xFA8A0, size: 0x8, addend: 0x0, symName: __RNvXs2E_NtNtCsieiGu2EXtoJ_4core5slice4iterINtB6_4IterTNtNtCsdGrGZaRBwMb_3syn4data5FieldNtNtBU_5token5CommaEENtNtNtNtBa_4iter6traits8iterator8Iterator4nextBU_, symObjAddr: 0x78F0, symBinAddr: 0x98A80, symSize: 0x90 }
  - { offset: 0xFA9C1, size: 0x8, addend: 0x0, symName: __RNvXs2E_NtNtCsieiGu2EXtoJ_4core5slice4iterINtB6_4IterTNtNtCsdGrGZaRBwMb_3syn4data7VariantNtNtBU_5token5CommaEENtNtNtNtBa_4iter6traits8iterator8Iterator4nextBU_, symObjAddr: 0x7980, symBinAddr: 0x98B10, symSize: 0x90 }
  - { offset: 0xFAAE2, size: 0x8, addend: 0x0, symName: __RNvXs2E_NtNtCsieiGu2EXtoJ_4core5slice4iterINtB6_4IterTNtNtCsdGrGZaRBwMb_3syn4expr10FieldValueNtNtBU_5token5CommaEENtNtNtNtBa_4iter6traits8iterator8Iterator4nextBU_, symObjAddr: 0x7A10, symBinAddr: 0x98BA0, symSize: 0x90 }
  - { offset: 0xFAC03, size: 0x8, addend: 0x0, symName: __RNvXs2E_NtNtCsieiGu2EXtoJ_4core5slice4iterINtB6_4IterTNtNtCsdGrGZaRBwMb_3syn4expr4ExprNtNtBU_5token5CommaEENtNtNtNtBa_4iter6traits8iterator8Iterator4nextBU_, symObjAddr: 0x7AA0, symBinAddr: 0x98C30, symSize: 0x90 }
  - { offset: 0xFAD24, size: 0x8, addend: 0x0, symName: __RNvXs2E_NtNtCsieiGu2EXtoJ_4core5slice4iterINtB6_4IterTNtNtCsdGrGZaRBwMb_3syn4item5FnArgNtNtBU_5token5CommaEENtNtNtNtBa_4iter6traits8iterator8Iterator4nextBU_, symObjAddr: 0x7B30, symBinAddr: 0x98CC0, symSize: 0x90 }
  - { offset: 0xFAE45, size: 0x8, addend: 0x0, symName: __RNvXs2E_NtNtCsieiGu2EXtoJ_4core5slice4iterINtB6_4IterTNtNtCsdGrGZaRBwMb_3syn4item7UseTreeNtNtBU_5token5CommaEENtNtNtNtBa_4iter6traits8iterator8Iterator4nextBU_, symObjAddr: 0x7BC0, symBinAddr: 0x98D50, symSize: 0x90 }
  - { offset: 0xFAF66, size: 0x8, addend: 0x0, symName: __RNvXs2E_NtNtCsieiGu2EXtoJ_4core5slice4iterINtB6_4IterTNtNtCsdGrGZaRBwMb_3syn4path11PathSegmentNtNtBU_5token7PathSepEENtNtNtNtBa_4iter6traits8iterator8Iterator4nextBU_, symObjAddr: 0x7C50, symBinAddr: 0x98DE0, symSize: 0x90 }
  - { offset: 0xFB087, size: 0x8, addend: 0x0, symName: __RNvXs2E_NtNtCsieiGu2EXtoJ_4core5slice4iterINtB6_4IterTNtNtCsdGrGZaRBwMb_3syn4path15GenericArgumentNtNtBU_5token5CommaEENtNtNtNtBa_4iter6traits8iterator8Iterator4nextBU_, symObjAddr: 0x7CE0, symBinAddr: 0x98E70, symSize: 0x90 }
  - { offset: 0xFB1A8, size: 0x8, addend: 0x0, symName: __RNvXs2E_NtNtCsieiGu2EXtoJ_4core5slice4iterINtB6_4IterTNtNtCsdGrGZaRBwMb_3syn8generics12GenericParamNtNtBU_5token5CommaEENtNtNtNtBa_4iter6traits8iterator8Iterator4nextBU_, symObjAddr: 0x7D70, symBinAddr: 0x98F00, symSize: 0x90 }
  - { offset: 0xFB2C9, size: 0x8, addend: 0x0, symName: __RNvXs2E_NtNtCsieiGu2EXtoJ_4core5slice4iterINtB6_4IterTNtNtCsdGrGZaRBwMb_3syn8generics13CapturedParamNtNtBU_5token5CommaEENtNtNtNtBa_4iter6traits8iterator8Iterator4nextBU_, symObjAddr: 0x7E00, symBinAddr: 0x98F90, symSize: 0x90 }
  - { offset: 0xFB3EA, size: 0x8, addend: 0x0, symName: __RNvXs2E_NtNtCsieiGu2EXtoJ_4core5slice4iterINtB6_4IterTNtNtCsdGrGZaRBwMb_3syn8generics14TypeParamBoundNtNtBU_5token4PlusEENtNtNtNtBa_4iter6traits8iterator8Iterator4nextBU_, symObjAddr: 0x7E90, symBinAddr: 0x99020, symSize: 0x90 }
  - { offset: 0xFB50B, size: 0x8, addend: 0x0, symName: __RNvXs2E_NtNtCsieiGu2EXtoJ_4core5slice4iterINtB6_4IterTNtNtCsdGrGZaRBwMb_3syn8generics14WherePredicateNtNtBU_5token5CommaEENtNtNtNtBa_4iter6traits8iterator8Iterator4nextBU_, symObjAddr: 0x7F20, symBinAddr: 0x990B0, symSize: 0x90 }
  - { offset: 0xFB62C, size: 0x8, addend: 0x0, symName: __RNvXs2E_NtNtCsieiGu2EXtoJ_4core5slice4iterINtB6_4IterTNtNtCsdGrGZaRBwMb_3syn8lifetime8LifetimeNtNtBU_5token4PlusEENtNtNtNtBa_4iter6traits8iterator8Iterator4nextBU_, symObjAddr: 0x7FB0, symBinAddr: 0x99140, symSize: 0x90 }
  - { offset: 0xFBFBD, size: 0x8, addend: 0x0, symName: __RNvXs2F_NtNtCsieiGu2EXtoJ_4core5slice4iterINtB6_4IterNtCsaKzlTDPUHDb_11proc_macro24SpanENtNtNtNtBa_4iter6traits12double_ended19DoubleEndedIterator9next_backCsdGrGZaRBwMb_3syn, symObjAddr: 0x8040, symBinAddr: 0x991D0, symSize: 0x100 }
  - { offset: 0xFC10C, size: 0x8, addend: 0x0, symName: __RNvXs2F_NtNtCsieiGu2EXtoJ_4core5slice4iterINtB6_4IterTNtNtCsdGrGZaRBwMb_3syn4path11PathSegmentNtNtBU_5token7PathSepEENtNtNtNtBa_4iter6traits12double_ended19DoubleEndedIterator9next_backBU_, symObjAddr: 0x8340, symBinAddr: 0x992D0, symSize: 0x100 }
  - { offset: 0xFC25B, size: 0x8, addend: 0x0, symName: __RNvXs2F_NtNtCsieiGu2EXtoJ_4core5slice4iterINtB6_4IterTNtNtCsdGrGZaRBwMb_3syn8generics14TypeParamBoundNtNtBU_5token4PlusEENtNtNtNtBa_4iter6traits12double_ended19DoubleEndedIterator9next_backBU_, symObjAddr: 0x8540, symBinAddr: 0x993D0, symSize: 0x100 }
  - { offset: 0xFC3AA, size: 0x8, addend: 0x0, symName: __RNvXs2F_NtNtCsieiGu2EXtoJ_4core5slice4iterINtB6_4IterhENtNtNtNtBa_4iter6traits12double_ended19DoubleEndedIterator9next_backCsdGrGZaRBwMb_3syn, symObjAddr: 0x8640, symBinAddr: 0x994D0, symSize: 0x100 }
  - { offset: 0xFC576, size: 0x8, addend: 0x0, symName: __RNvXs2M_NtNtCsieiGu2EXtoJ_4core5slice4iterINtB6_7IterMutTNtNtCsdGrGZaRBwMb_3syn4path11PathSegmentNtNtBX_5token7PathSepEENtNtNtNtBa_4iter6traits8iterator8Iterator4nextBX_, symObjAddr: 0x87D0, symBinAddr: 0x995D0, symSize: 0x90 }
  - { offset: 0xFC682, size: 0x8, addend: 0x0, symName: __RNvXs2M_NtNtCsieiGu2EXtoJ_4core5slice4iterINtB6_7IterMuthENtNtNtNtBa_4iter6traits8iterator8Iterator4nextCsdGrGZaRBwMb_3syn, symObjAddr: 0x88F0, symBinAddr: 0x99660, symSize: 0x90 }
  - { offset: 0xFC794, size: 0x8, addend: 0x0, symName: __RNvXs2N_NtNtCsieiGu2EXtoJ_4core5slice4iterINtB6_7IterMutTNtNtCsdGrGZaRBwMb_3syn4path11PathSegmentNtNtBX_5token7PathSepEENtNtNtNtBa_4iter6traits12double_ended19DoubleEndedIterator9next_backBX_, symObjAddr: 0x8A80, symBinAddr: 0x996F0, symSize: 0x100 }
  - { offset: 0xFC8E9, size: 0x8, addend: 0x0, symName: __RNvXs5_NtNtCsieiGu2EXtoJ_4core5slice4iterINtB5_4IterTNtNtCsdGrGZaRBwMb_3syn4path11PathSegmentNtNtBT_5token7PathSepEENtNtB9_5clone5Clone5cloneBT_, symObjAddr: 0xA2D0, symBinAddr: 0x99FD0, symSize: 0x20 }
  - { offset: 0xFC91E, size: 0x8, addend: 0x0, symName: __RNvXs5_NtNtCsieiGu2EXtoJ_4core5slice4iterINtB5_4IterTNtNtCsdGrGZaRBwMb_3syn8generics14TypeParamBoundNtNtBT_5token4PlusEENtNtB9_5clone5Clone5cloneBT_, symObjAddr: 0xA310, symBinAddr: 0x99FF0, symSize: 0x20 }
  - { offset: 0xFC9AD, size: 0x8, addend: 0x0, symName: __RNvXs_NtNtCsieiGu2EXtoJ_4core5slice4iterRSReNtNtNtNtB8_4iter6traits7collect12IntoIterator9into_iterCsdGrGZaRBwMb_3syn, symObjAddr: 0xBDD0, symBinAddr: 0x9B740, symSize: 0x50 }
  - { offset: 0xFCC80, size: 0x8, addend: 0x0, symName: __RNvMNtCsieiGu2EXtoJ_4core5sliceSTNtNtCsdGrGZaRBwMb_3syn4path11PathSegmentNtNtBz_5token7PathSepE4iterBz_, symObjAddr: 0x1730, symBinAddr: 0x931E0, symSize: 0x20 }
  - { offset: 0xFCCB7, size: 0x8, addend: 0x0, symName: __RNvMNtCsieiGu2EXtoJ_4core5sliceSTNtNtCsdGrGZaRBwMb_3syn4path11PathSegmentNtNtBz_5token7PathSepE8iter_mutBz_, symObjAddr: 0x1750, symBinAddr: 0x93200, symSize: 0x20 }
  - { offset: 0xFCCEE, size: 0x8, addend: 0x0, symName: __RNvMNtCsieiGu2EXtoJ_4core5sliceSTNtNtCsdGrGZaRBwMb_3syn4path15GenericArgumentNtNtBz_5token5CommaE4iterBz_, symObjAddr: 0x1770, symBinAddr: 0x93220, symSize: 0x20 }
  - { offset: 0xFCDEA, size: 0x8, addend: 0x0, symName: __RNvNvMNtNtCsieiGu2EXtoJ_4core5alloc6layoutNtB4_6Layout25from_size_align_unchecked18precondition_checkCsdGrGZaRBwMb_3syn, symObjAddr: 0x5710, symBinAddr: 0x96DE0, symSize: 0xB0 }
  - { offset: 0xFD90E, size: 0x8, addend: 0x0, symName: __RNvXNtNtCsieiGu2EXtoJ_4core5clone6uninitNtNtCsdGrGZaRBwMb_3syn4path11PathSegmentNtB2_8CopySpec9clone_oneBG_, symObjAddr: 0x5990, symBinAddr: 0x97060, symSize: 0x40 }
  - { offset: 0xFD973, size: 0x8, addend: 0x0, symName: __RNvXNtNtCsieiGu2EXtoJ_4core5clone6uninitNtNtCsdGrGZaRBwMb_3syn4path15GenericArgumentNtB2_8CopySpec9clone_oneBG_, symObjAddr: 0x59D0, symBinAddr: 0x970A0, symSize: 0x50 }
  - { offset: 0xFD9D8, size: 0x8, addend: 0x0, symName: __RNvXNtNtCsieiGu2EXtoJ_4core5clone6uninitNtNtCsdGrGZaRBwMb_3syn4path4PathNtB2_8CopySpec9clone_oneBG_, symObjAddr: 0x5A20, symBinAddr: 0x970F0, symSize: 0x40 }
  - { offset: 0xFEA9C, size: 0x8, addend: 0x0, symName: __RNcNtNtNtCsdGrGZaRBwMb_3syn4path15GenericArgument5Const0B7_, symObjAddr: 0x16F0, symBinAddr: 0x931A0, symSize: 0x40 }
  - { offset: 0xFEACC, size: 0x8, addend: 0x0, symName: __RNvXNtCsdGrGZaRBwMb_3syn4pathNtB2_4PathINtNtCsieiGu2EXtoJ_4core7convert4FromNtCsaKzlTDPUHDb_11proc_macro25IdentE4fromB4_, symObjAddr: 0x57F0, symBinAddr: 0x96EC0, symSize: 0x170 }
  - { offset: 0xFEB23, size: 0x8, addend: 0x0, symName: __RNvXNtNtCsdGrGZaRBwMb_3syn4path7parsingNtB4_4PathNtNtB6_5parse5Parse5parse, symObjAddr: 0x5960, symBinAddr: 0x97030, symSize: 0x30 }
  - { offset: 0xFEB57, size: 0x8, addend: 0x0, symName: __RNvXs1_NtNtCsdGrGZaRBwMb_3syn4path7parsingNtB7_30AngleBracketedGenericArgumentsNtNtB9_5parse5Parse5parse, symObjAddr: 0x6A20, symBinAddr: 0x97C10, symSize: 0xD0 }
  - { offset: 0xFEBC7, size: 0x8, addend: 0x0, symName: __RNvXs2_NtNtCsdGrGZaRBwMb_3syn4path7parsingNtB7_29ParenthesizedGenericArgumentsNtNtB9_5parse5Parse5parse, symObjAddr: 0x8F10, symBinAddr: 0x99960, symSize: 0x4A0 }
  - { offset: 0xFECA3, size: 0x8, addend: 0x0, symName: __RNvXs_NtNtCsdGrGZaRBwMb_3syn4path7parsingNtB6_15GenericArgumentNtNtB8_5parse5Parse5parse, symObjAddr: 0xA860, symBinAddr: 0x9A1D0, symSize: 0x1570 }
  - { offset: 0xFEF75, size: 0x8, addend: 0x0, symName: __RNvXs0_NtCsdGrGZaRBwMb_3syn4pathNtB5_11PathSegmentINtNtCsieiGu2EXtoJ_4core7convert4FromNtCsaKzlTDPUHDb_11proc_macro25IdentE4fromB7_, symObjAddr: 0x5B80, symBinAddr: 0x97230, symSize: 0x70 }
  - { offset: 0xFEFB6, size: 0x8, addend: 0x0, symName: __RNvXs0_NtNtCsdGrGZaRBwMb_3syn4path8printingNtB7_4PathNtNtCs9OU1sGv5X54_5quote9to_tokens8ToTokens9to_tokens, symObjAddr: 0x5BF0, symBinAddr: 0x972A0, symSize: 0x40 }
  - { offset: 0xFEFF5, size: 0x8, addend: 0x0, symName: __RNvXs3_NtNtCsdGrGZaRBwMb_3syn4path8printingNtB7_15GenericArgumentNtNtCs9OU1sGv5X54_5quote9to_tokens8ToTokens9to_tokens, symObjAddr: 0x9A50, symBinAddr: 0x99E00, symSize: 0x120 }
  - { offset: 0xFF0E0, size: 0x8, addend: 0x0, symName: __RNvXs4_NtNtCsdGrGZaRBwMb_3syn4path8printingNtB7_30AngleBracketedGenericArgumentsNtNtCs9OU1sGv5X54_5quote9to_tokens8ToTokens9to_tokens, symObjAddr: 0xA0C0, symBinAddr: 0x99F20, symSize: 0x40 }
  - { offset: 0xFF11F, size: 0x8, addend: 0x0, symName: __RNvXs5_NtNtCsdGrGZaRBwMb_3syn4path8printingNtB7_9AssocTypeNtNtCs9OU1sGv5X54_5quote9to_tokens8ToTokens9to_tokens, symObjAddr: 0xA220, symBinAddr: 0x99F60, symSize: 0x70 }
  - { offset: 0xFF15E, size: 0x8, addend: 0x0, symName: __RNvXs6_NtNtCsdGrGZaRBwMb_3syn4path8printingNtB7_10AssocConstNtNtCs9OU1sGv5X54_5quote9to_tokens8ToTokens9to_tokens, symObjAddr: 0xA330, symBinAddr: 0x9A010, symSize: 0x70 }
  - { offset: 0xFF19D, size: 0x8, addend: 0x0, symName: __RNvXs7_NtNtCsdGrGZaRBwMb_3syn4path8printingNtB7_10ConstraintNtNtCs9OU1sGv5X54_5quote9to_tokens8ToTokens9to_tokens, symObjAddr: 0xA430, symBinAddr: 0x9A080, symSize: 0x60 }
  - { offset: 0xFF752, size: 0x8, addend: 0x0, symName: __RNCNvXNtNtCsdGrGZaRBwMb_3syn2ty8printingNtB6_9TypeSliceNtNtCs9OU1sGv5X54_5quote9to_tokens8ToTokens9to_tokens0B8_, symObjAddr: 0xFF0, symBinAddr: 0x92AA0, symSize: 0x30 }
  - { offset: 0xFF799, size: 0x8, addend: 0x0, symName: __RNCNvXs2_NtNtCsdGrGZaRBwMb_3syn2ty8printingNtB9_10TypeBareFnNtNtCs9OU1sGv5X54_5quote9to_tokens8ToTokens9to_tokens0Bb_, symObjAddr: 0x1050, symBinAddr: 0x92B00, symSize: 0xC0 }
  - { offset: 0xFF814, size: 0x8, addend: 0x0, symName: __RNCNvXs4_NtNtCsdGrGZaRBwMb_3syn2ty8printingNtB9_9TypeTupleNtNtCs9OU1sGv5X54_5quote9to_tokens8ToTokens9to_tokens0Bb_, symObjAddr: 0x1220, symBinAddr: 0x92CD0, symSize: 0x80 }
  - { offset: 0xFF85B, size: 0x8, addend: 0x0, symName: __RNCNvXs8_NtNtCsdGrGZaRBwMb_3syn2ty8printingNtB9_9TypeGroupNtNtCs9OU1sGv5X54_5quote9to_tokens8ToTokens9to_tokens0Bb_, symObjAddr: 0x1330, symBinAddr: 0x92DE0, symSize: 0x30 }
  - { offset: 0xFF8A2, size: 0x8, addend: 0x0, symName: __RNCNvXs9_NtNtCsdGrGZaRBwMb_3syn2ty8printingNtB9_9TypeParenNtNtCs9OU1sGv5X54_5quote9to_tokens8ToTokens9to_tokens0Bb_, symObjAddr: 0x1360, symBinAddr: 0x92E10, symSize: 0x30 }
  - { offset: 0xFF8E9, size: 0x8, addend: 0x0, symName: __RNCNvXs_NtNtCsdGrGZaRBwMb_3syn2ty8printingNtB8_9TypeArrayNtNtCs9OU1sGv5X54_5quote9to_tokens8ToTokens9to_tokens0Ba_, symObjAddr: 0x13F0, symBinAddr: 0x92EA0, symSize: 0x60 }
  - { offset: 0x100AD7, size: 0x8, addend: 0x0, symName: __RNCNvXNtNtCsdGrGZaRBwMb_3syn4attr8printingNtB6_9AttributeNtNtCs9OU1sGv5X54_5quote9to_tokens8ToTokens9to_tokens0B8_, symObjAddr: 0x1020, symBinAddr: 0x92AD0, symSize: 0x30 }
  - { offset: 0x10272B, size: 0x8, addend: 0x0, symName: __RNCNvXs2_NtNtCsdGrGZaRBwMb_3syn4item8printingNtB9_6ItemFnNtNtCs9OU1sGv5X54_5quote9to_tokens8ToTokens9to_tokens0Bb_, symObjAddr: 0x1110, symBinAddr: 0x92BC0, symSize: 0xB0 }
  - { offset: 0x102772, size: 0x8, addend: 0x0, symName: __RNCNvXs3_NtNtCsdGrGZaRBwMb_3syn4item8printingNtB9_7ItemModNtNtCs9OU1sGv5X54_5quote9to_tokens8ToTokens9to_tokens0Bb_, symObjAddr: 0x11C0, symBinAddr: 0x92C70, symSize: 0x60 }
  - { offset: 0x1027CC, size: 0x8, addend: 0x0, symName: __RNCNvXs4_NtNtCsdGrGZaRBwMb_3syn4item8printingNtB9_14ItemForeignModNtNtCs9OU1sGv5X54_5quote9to_tokens8ToTokens9to_tokens0Bb_, symObjAddr: 0x12A0, symBinAddr: 0x92D50, symSize: 0x60 }
  - { offset: 0x102813, size: 0x8, addend: 0x0, symName: __RNCNvXs6_NtNtCsdGrGZaRBwMb_3syn4item8printingNtB9_8ItemEnumNtNtCs9OU1sGv5X54_5quote9to_tokens8ToTokens9to_tokens0Bb_, symObjAddr: 0x1300, symBinAddr: 0x92DB0, symSize: 0x30 }
  - { offset: 0x10285A, size: 0x8, addend: 0x0, symName: __RNCNvXs9_NtNtCsdGrGZaRBwMb_3syn4item8printingNtB9_9ItemTraitNtNtCs9OU1sGv5X54_5quote9to_tokens8ToTokens9to_tokens0Bb_, symObjAddr: 0x1390, symBinAddr: 0x92E40, symSize: 0x60 }
  - { offset: 0x1028A1, size: 0x8, addend: 0x0, symName: __RNCNvXsb_NtNtCsdGrGZaRBwMb_3syn4item8printingNtB9_8ItemImplNtNtCs9OU1sGv5X54_5quote9to_tokens8ToTokens9to_tokens0Bb_, symObjAddr: 0x1450, symBinAddr: 0x92F00, symSize: 0x60 }
  - { offset: 0x1028E8, size: 0x8, addend: 0x0, symName: __RNCNvXsc_NtNtCsdGrGZaRBwMb_3syn4item8printingNtB9_9ItemMacroNtNtCs9OU1sGv5X54_5quote9to_tokens8ToTokens9to_tokens0Bb_, symObjAddr: 0x14B0, symBinAddr: 0x92F60, symSize: 0x30 }
  - { offset: 0x102923, size: 0x8, addend: 0x0, symName: __RNCNvXsc_NtNtCsdGrGZaRBwMb_3syn4item8printingNtB9_9ItemMacroNtNtCs9OU1sGv5X54_5quote9to_tokens8ToTokens9to_tokenss0_0Bb_, symObjAddr: 0x14E0, symBinAddr: 0x92F90, symSize: 0x30 }
  - { offset: 0x10295E, size: 0x8, addend: 0x0, symName: __RNCNvXsc_NtNtCsdGrGZaRBwMb_3syn4item8printingNtB9_9ItemMacroNtNtCs9OU1sGv5X54_5quote9to_tokens8ToTokens9to_tokenss_0Bb_, symObjAddr: 0x1510, symBinAddr: 0x92FC0, symSize: 0x30 }
  - { offset: 0x1029A5, size: 0x8, addend: 0x0, symName: __RNCNvXsh_NtNtCsdGrGZaRBwMb_3syn4item8printingNtB9_8UseGroupNtNtCs9OU1sGv5X54_5quote9to_tokens8ToTokens9to_tokens0Bb_, symObjAddr: 0x1540, symBinAddr: 0x92FF0, symSize: 0x30 }
  - { offset: 0x1029EC, size: 0x8, addend: 0x0, symName: __RNCNvXsj_NtNtCsdGrGZaRBwMb_3syn4item8printingNtB9_11TraitItemFnNtNtCs9OU1sGv5X54_5quote9to_tokens8ToTokens9to_tokens0Bb_, symObjAddr: 0x1570, symBinAddr: 0x93020, symSize: 0x60 }
  - { offset: 0x102A46, size: 0x8, addend: 0x0, symName: __RNCNvXsn_NtNtCsdGrGZaRBwMb_3syn4item8printingNtB9_10ImplItemFnNtNtCs9OU1sGv5X54_5quote9to_tokens8ToTokens9to_tokens0Bb_, symObjAddr: 0x15D0, symBinAddr: 0x93080, symSize: 0x60 }
  - { offset: 0x102A8D, size: 0x8, addend: 0x0, symName: __RNCNvXsu_NtNtCsdGrGZaRBwMb_3syn4item8printingNtB9_9SignatureNtNtCs9OU1sGv5X54_5quote9to_tokens8ToTokens9to_tokens0Bb_, symObjAddr: 0x1630, symBinAddr: 0x930E0, symSize: 0xC0 }
  - { offset: 0x103620, size: 0x8, addend: 0x0, symName: __RNCNvXNtCsdGrGZaRBwMb_3syn3extNtCsaKzlTDPUHDb_11proc_macro25IdentNtB4_8IdentExt9parse_any0B6_, symObjAddr: 0xE70, symBinAddr: 0x92920, symSize: 0x180 }
  - { offset: 0x103924, size: 0x8, addend: 0x0, symName: __RNvXs1O_NtNtCsdGrGZaRBwMb_3syn3gen5cloneNtNtBa_4path29ParenthesizedGenericArgumentsNtNtCsieiGu2EXtoJ_4core5clone5Clone5clone, symObjAddr: 0x5E10, symBinAddr: 0x97440, symSize: 0xC0 }
  - { offset: 0x103958, size: 0x8, addend: 0x0, symName: __RNvXs1_NtNtCsdGrGZaRBwMb_3syn3gen5cloneNtNtB9_4path10AssocConstNtNtCsieiGu2EXtoJ_4core5clone5Clone5clone, symObjAddr: 0x68B0, symBinAddr: 0x97AA0, symSize: 0x170 }
  - { offset: 0x10398A, size: 0x8, addend: 0x0, symName: __RNvXs1c_NtNtCsdGrGZaRBwMb_3syn3gen5cloneNtNtBa_4path15GenericArgumentNtNtCsieiGu2EXtoJ_4core5clone5Clone5clone, symObjAddr: 0x6B50, symBinAddr: 0x97CE0, symSize: 0x270 }
  - { offset: 0x103A6A, size: 0x8, addend: 0x0, symName: __RNvXs21_NtNtCsdGrGZaRBwMb_3syn3gen5cloneNtNtBa_4path4PathNtNtCsieiGu2EXtoJ_4core5clone5Clone5clone, symObjAddr: 0x6DC0, symBinAddr: 0x97F50, symSize: 0x80 }
  - { offset: 0x103A9E, size: 0x8, addend: 0x0, symName: __RNvXs22_NtNtCsdGrGZaRBwMb_3syn3gen5cloneNtNtBa_4path13PathArgumentsNtNtCsieiGu2EXtoJ_4core5clone5Clone5clone, symObjAddr: 0x6E40, symBinAddr: 0x97FD0, symSize: 0x120 }
  - { offset: 0x103B06, size: 0x8, addend: 0x0, symName: __RNvXs23_NtNtCsdGrGZaRBwMb_3syn3gen5cloneNtNtBa_4path11PathSegmentNtNtCsieiGu2EXtoJ_4core5clone5Clone5clone, symObjAddr: 0x6F60, symBinAddr: 0x980F0, symSize: 0xB0 }
  - { offset: 0x103B3A, size: 0x8, addend: 0x0, symName: __RNvXs28_NtNtCsdGrGZaRBwMb_3syn3gen5cloneNtNtBa_4path5QSelfNtNtCsieiGu2EXtoJ_4core5clone5Clone5clone, symObjAddr: 0x7010, symBinAddr: 0x981A0, symSize: 0x100 }
  - { offset: 0x103B6E, size: 0x8, addend: 0x0, symName: __RNvXs2_NtNtCsdGrGZaRBwMb_3syn3gen5cloneNtNtB9_4path9AssocTypeNtNtCsieiGu2EXtoJ_4core5clone5Clone5clone, symObjAddr: 0x8CC0, symBinAddr: 0x997F0, symSize: 0x170 }
  - { offset: 0x103BA0, size: 0x8, addend: 0x0, symName: __RNvXs_NtNtCsdGrGZaRBwMb_3syn3gen5cloneNtNtB8_4path30AngleBracketedGenericArgumentsNtNtCsieiGu2EXtoJ_4core5clone5Clone5clone, symObjAddr: 0xA730, symBinAddr: 0x9A0E0, symSize: 0xF0 }
  - { offset: 0x103BD2, size: 0x8, addend: 0x0, symName: __RNvXse_NtNtCsdGrGZaRBwMb_3syn3gen5cloneNtNtB9_4path10ConstraintNtNtCsieiGu2EXtoJ_4core5clone5Clone5clone, symObjAddr: 0xC090, symBinAddr: 0x9B790, symSize: 0x150 }
  - { offset: 0x1048D8, size: 0x8, addend: 0x0, symName: __RNvYINtNtCslJiobkLta79_5alloc2rc7RcInnerINtNtCsieiGu2EXtoJ_4core4cell4CellNtNtCsdGrGZaRBwMb_3syn5parse10UnexpectedEENtB5_10RcInnerPtr10inc_strongB1e_, symObjAddr: 0xC310, symBinAddr: 0x9B980, symSize: 0x80 }
  - { offset: 0x1049FA, size: 0x8, addend: 0x0, symName: __RNvYINtNtCslJiobkLta79_5alloc2rc7RcInnerINtNtCsieiGu2EXtoJ_4core4cell4CellNtNtCsdGrGZaRBwMb_3syn5parse10UnexpectedEENtB5_10RcInnerPtr6strongB1e_, symObjAddr: 0xC390, symBinAddr: 0x9BA00, symSize: 0x20 }
  - { offset: 0x104A55, size: 0x8, addend: 0x0, symName: __RNvXs19_NtCslJiobkLta79_5alloc2rcINtB6_4WeakINtNtCsieiGu2EXtoJ_4core4cell4CellNtNtCsdGrGZaRBwMb_3syn5parse10UnexpectedERNtNtB8_5alloc6GlobalENtNtNtBL_3ops4drop4Drop4dropB1i_, symObjAddr: 0x5CB0, symBinAddr: 0x972E0, symSize: 0x160 }
  - { offset: 0x104CDB, size: 0x8, addend: 0x0, symName: __RNvXsu_NtCslJiobkLta79_5alloc2rcINtB5_2RcINtNtCsieiGu2EXtoJ_4core4cell4CellNtNtCsdGrGZaRBwMb_3syn5parse10UnexpectedEENtNtNtBI_3ops4drop4Drop4dropB1f_, symObjAddr: 0xC270, symBinAddr: 0x9B8E0, symSize: 0x60 }
  - { offset: 0x104EE5, size: 0x8, addend: 0x0, symName: __RNvXsv_NtCslJiobkLta79_5alloc2rcINtB5_2RcINtNtCsieiGu2EXtoJ_4core4cell4CellNtNtCsdGrGZaRBwMb_3syn5parse10UnexpectedEENtNtBI_5clone5Clone5cloneB1f_, symObjAddr: 0xC2D0, symBinAddr: 0x9B940, symSize: 0x40 }
  - { offset: 0x106568, size: 0x8, addend: 0x0, symName: __RNvXs1_NtCslJiobkLta79_5alloc7raw_vecINtB5_6RawVecNtNtCsdGrGZaRBwMb_3syn4attr9AttributeENtNtNtCsieiGu2EXtoJ_4core3ops4drop4Drop4dropBQ_, symObjAddr: 0x6250, symBinAddr: 0x97500, symSize: 0x30 }
  - { offset: 0x1065A4, size: 0x8, addend: 0x0, symName: __RNvXs1_NtCslJiobkLta79_5alloc7raw_vecINtB5_6RawVecNtNtCsdGrGZaRBwMb_3syn4expr3ArmENtNtNtCsieiGu2EXtoJ_4core3ops4drop4Drop4dropBQ_, symObjAddr: 0x62B0, symBinAddr: 0x97530, symSize: 0x30 }
  - { offset: 0x1065E0, size: 0x8, addend: 0x0, symName: __RNvXs1_NtCslJiobkLta79_5alloc7raw_vecINtB5_6RawVecNtNtCsdGrGZaRBwMb_3syn4expr6ExprIfENtNtNtCsieiGu2EXtoJ_4core3ops4drop4Drop4dropBQ_, symObjAddr: 0x62E0, symBinAddr: 0x97560, symSize: 0x30 }
  - { offset: 0x10661C, size: 0x8, addend: 0x0, symName: __RNvXs1_NtCslJiobkLta79_5alloc7raw_vecINtB5_6RawVecNtNtCsdGrGZaRBwMb_3syn4item11ForeignItemENtNtNtCsieiGu2EXtoJ_4core3ops4drop4Drop4dropBQ_, symObjAddr: 0x6310, symBinAddr: 0x97590, symSize: 0x30 }
  - { offset: 0x106658, size: 0x8, addend: 0x0, symName: __RNvXs1_NtCslJiobkLta79_5alloc7raw_vecINtB5_6RawVecNtNtCsdGrGZaRBwMb_3syn4item4ItemENtNtNtCsieiGu2EXtoJ_4core3ops4drop4Drop4dropBQ_, symObjAddr: 0x6340, symBinAddr: 0x975C0, symSize: 0x30 }
  - { offset: 0x106694, size: 0x8, addend: 0x0, symName: __RNvXs1_NtCslJiobkLta79_5alloc7raw_vecINtB5_6RawVecNtNtCsdGrGZaRBwMb_3syn4item8ImplItemENtNtNtCsieiGu2EXtoJ_4core3ops4drop4Drop4dropBQ_, symObjAddr: 0x6370, symBinAddr: 0x975F0, symSize: 0x30 }
  - { offset: 0x1066D0, size: 0x8, addend: 0x0, symName: __RNvXs1_NtCslJiobkLta79_5alloc7raw_vecINtB5_6RawVecNtNtCsdGrGZaRBwMb_3syn4item9TraitItemENtNtNtCsieiGu2EXtoJ_4core3ops4drop4Drop4dropBQ_, symObjAddr: 0x63A0, symBinAddr: 0x97620, symSize: 0x30 }
  - { offset: 0x10670C, size: 0x8, addend: 0x0, symName: __RNvXs1_NtCslJiobkLta79_5alloc7raw_vecINtB5_6RawVecNtNtCsdGrGZaRBwMb_3syn4stmt4StmtENtNtNtCsieiGu2EXtoJ_4core3ops4drop4Drop4dropBQ_, symObjAddr: 0x63D0, symBinAddr: 0x97650, symSize: 0x30 }
  - { offset: 0x106748, size: 0x8, addend: 0x0, symName: __RNvXs1_NtCslJiobkLta79_5alloc7raw_vecINtB5_6RawVecNtNtCsdGrGZaRBwMb_3syn5error12ErrorMessageENtNtNtCsieiGu2EXtoJ_4core3ops4drop4Drop4dropBQ_, symObjAddr: 0x6400, symBinAddr: 0x97680, symSize: 0x30 }
  - { offset: 0x106784, size: 0x8, addend: 0x0, symName: __RNvXs1_NtCslJiobkLta79_5alloc7raw_vecINtB5_6RawVecNtNtCsdGrGZaRBwMb_3syn6buffer5EntryENtNtNtCsieiGu2EXtoJ_4core3ops4drop4Drop4dropBQ_, symObjAddr: 0x6430, symBinAddr: 0x976B0, symSize: 0x30 }
  - { offset: 0x1067C0, size: 0x8, addend: 0x0, symName: __RNvXs1_NtCslJiobkLta79_5alloc7raw_vecINtB5_6RawVecNtNtCsdGrGZaRBwMb_3syn8generics14TypeParamBoundENtNtNtCsieiGu2EXtoJ_4core3ops4drop4Drop4dropBQ_, symObjAddr: 0x6460, symBinAddr: 0x976E0, symSize: 0x30 }
  - { offset: 0x1067FC, size: 0x8, addend: 0x0, symName: __RNvXs1_NtCslJiobkLta79_5alloc7raw_vecINtB5_6RawVecReENtNtNtCsieiGu2EXtoJ_4core3ops4drop4Drop4dropCsdGrGZaRBwMb_3syn, symObjAddr: 0x6490, symBinAddr: 0x97710, symSize: 0x30 }
  - { offset: 0x106838, size: 0x8, addend: 0x0, symName: __RNvXs1_NtCslJiobkLta79_5alloc7raw_vecINtB5_6RawVecTNtNtCsdGrGZaRBwMb_3syn2ty4TypeNtNtBR_5token5CommaEENtNtNtCsieiGu2EXtoJ_4core3ops4drop4Drop4dropBR_, symObjAddr: 0x64C0, symBinAddr: 0x97740, symSize: 0x30 }
  - { offset: 0x106874, size: 0x8, addend: 0x0, symName: __RNvXs1_NtCslJiobkLta79_5alloc7raw_vecINtB5_6RawVecTNtNtCsdGrGZaRBwMb_3syn2ty9BareFnArgNtNtBR_5token5CommaEENtNtNtCsieiGu2EXtoJ_4core3ops4drop4Drop4dropBR_, symObjAddr: 0x64F0, symBinAddr: 0x97770, symSize: 0x30 }
  - { offset: 0x1068B0, size: 0x8, addend: 0x0, symName: __RNvXs1_NtCslJiobkLta79_5alloc7raw_vecINtB5_6RawVecTNtNtCsdGrGZaRBwMb_3syn3pat3PatNtNtBR_5token2OrEENtNtNtCsieiGu2EXtoJ_4core3ops4drop4Drop4dropBR_, symObjAddr: 0x6520, symBinAddr: 0x977A0, symSize: 0x30 }
  - { offset: 0x1068EC, size: 0x8, addend: 0x0, symName: __RNvXs1_NtCslJiobkLta79_5alloc7raw_vecINtB5_6RawVecTNtNtCsdGrGZaRBwMb_3syn3pat3PatNtNtBR_5token5CommaEENtNtNtCsieiGu2EXtoJ_4core3ops4drop4Drop4dropBR_, symObjAddr: 0x6550, symBinAddr: 0x977D0, symSize: 0x30 }
  - { offset: 0x106928, size: 0x8, addend: 0x0, symName: __RNvXs1_NtCslJiobkLta79_5alloc7raw_vecINtB5_6RawVecTNtNtCsdGrGZaRBwMb_3syn3pat8FieldPatNtNtBR_5token5CommaEENtNtNtCsieiGu2EXtoJ_4core3ops4drop4Drop4dropBR_, symObjAddr: 0x6580, symBinAddr: 0x97800, symSize: 0x30 }
  - { offset: 0x106964, size: 0x8, addend: 0x0, symName: __RNvXs1_NtCslJiobkLta79_5alloc7raw_vecINtB5_6RawVecTNtNtCsdGrGZaRBwMb_3syn4data5FieldNtNtBR_5token5CommaEENtNtNtCsieiGu2EXtoJ_4core3ops4drop4Drop4dropBR_, symObjAddr: 0x65B0, symBinAddr: 0x97830, symSize: 0x30 }
  - { offset: 0x1069A0, size: 0x8, addend: 0x0, symName: __RNvXs1_NtCslJiobkLta79_5alloc7raw_vecINtB5_6RawVecTNtNtCsdGrGZaRBwMb_3syn4data7VariantNtNtBR_5token5CommaEENtNtNtCsieiGu2EXtoJ_4core3ops4drop4Drop4dropBR_, symObjAddr: 0x6610, symBinAddr: 0x97860, symSize: 0x30 }
  - { offset: 0x1069DC, size: 0x8, addend: 0x0, symName: __RNvXs1_NtCslJiobkLta79_5alloc7raw_vecINtB5_6RawVecTNtNtCsdGrGZaRBwMb_3syn4expr10FieldValueNtNtBR_5token5CommaEENtNtNtCsieiGu2EXtoJ_4core3ops4drop4Drop4dropBR_, symObjAddr: 0x6640, symBinAddr: 0x97890, symSize: 0x30 }
  - { offset: 0x106A18, size: 0x8, addend: 0x0, symName: __RNvXs1_NtCslJiobkLta79_5alloc7raw_vecINtB5_6RawVecTNtNtCsdGrGZaRBwMb_3syn4expr4ExprNtNtBR_5token5CommaEENtNtNtCsieiGu2EXtoJ_4core3ops4drop4Drop4dropBR_, symObjAddr: 0x6670, symBinAddr: 0x978C0, symSize: 0x30 }
  - { offset: 0x106A54, size: 0x8, addend: 0x0, symName: __RNvXs1_NtCslJiobkLta79_5alloc7raw_vecINtB5_6RawVecTNtNtCsdGrGZaRBwMb_3syn4item5FnArgNtNtBR_5token5CommaEENtNtNtCsieiGu2EXtoJ_4core3ops4drop4Drop4dropBR_, symObjAddr: 0x66A0, symBinAddr: 0x978F0, symSize: 0x30 }
  - { offset: 0x106A90, size: 0x8, addend: 0x0, symName: __RNvXs1_NtCslJiobkLta79_5alloc7raw_vecINtB5_6RawVecTNtNtCsdGrGZaRBwMb_3syn4item7UseTreeNtNtBR_5token5CommaEENtNtNtCsieiGu2EXtoJ_4core3ops4drop4Drop4dropBR_, symObjAddr: 0x66D0, symBinAddr: 0x97920, symSize: 0x30 }
  - { offset: 0x106ACC, size: 0x8, addend: 0x0, symName: __RNvXs1_NtCslJiobkLta79_5alloc7raw_vecINtB5_6RawVecTNtNtCsdGrGZaRBwMb_3syn4path11PathSegmentNtNtBR_5token7PathSepEENtNtNtCsieiGu2EXtoJ_4core3ops4drop4Drop4dropBR_, symObjAddr: 0x6700, symBinAddr: 0x97950, symSize: 0x30 }
  - { offset: 0x106B08, size: 0x8, addend: 0x0, symName: __RNvXs1_NtCslJiobkLta79_5alloc7raw_vecINtB5_6RawVecTNtNtCsdGrGZaRBwMb_3syn4path15GenericArgumentNtNtBR_5token5CommaEENtNtNtCsieiGu2EXtoJ_4core3ops4drop4Drop4dropBR_, symObjAddr: 0x6730, symBinAddr: 0x97980, symSize: 0x30 }
  - { offset: 0x106B44, size: 0x8, addend: 0x0, symName: __RNvXs1_NtCslJiobkLta79_5alloc7raw_vecINtB5_6RawVecTNtNtCsdGrGZaRBwMb_3syn8generics12GenericParamNtNtBR_5token5CommaEENtNtNtCsieiGu2EXtoJ_4core3ops4drop4Drop4dropBR_, symObjAddr: 0x6760, symBinAddr: 0x979B0, symSize: 0x30 }
  - { offset: 0x106B80, size: 0x8, addend: 0x0, symName: __RNvXs1_NtCslJiobkLta79_5alloc7raw_vecINtB5_6RawVecTNtNtCsdGrGZaRBwMb_3syn8generics13CapturedParamNtNtBR_5token5CommaEENtNtNtCsieiGu2EXtoJ_4core3ops4drop4Drop4dropBR_, symObjAddr: 0x6790, symBinAddr: 0x979E0, symSize: 0x30 }
  - { offset: 0x106BBC, size: 0x8, addend: 0x0, symName: __RNvXs1_NtCslJiobkLta79_5alloc7raw_vecINtB5_6RawVecTNtNtCsdGrGZaRBwMb_3syn8generics14TypeParamBoundNtNtBR_5token4PlusEENtNtNtCsieiGu2EXtoJ_4core3ops4drop4Drop4dropBR_, symObjAddr: 0x67C0, symBinAddr: 0x97A10, symSize: 0x30 }
  - { offset: 0x106BF8, size: 0x8, addend: 0x0, symName: __RNvXs1_NtCslJiobkLta79_5alloc7raw_vecINtB5_6RawVecTNtNtCsdGrGZaRBwMb_3syn8generics14WherePredicateNtNtBR_5token5CommaEENtNtNtCsieiGu2EXtoJ_4core3ops4drop4Drop4dropBR_, symObjAddr: 0x67F0, symBinAddr: 0x97A40, symSize: 0x30 }
  - { offset: 0x106C34, size: 0x8, addend: 0x0, symName: __RNvXs1_NtCslJiobkLta79_5alloc7raw_vecINtB5_6RawVecTNtNtCsdGrGZaRBwMb_3syn8lifetime8LifetimeNtNtBR_5token4PlusEENtNtNtCsieiGu2EXtoJ_4core3ops4drop4Drop4dropBR_, symObjAddr: 0x6820, symBinAddr: 0x97A70, symSize: 0x30 }
  - { offset: 0x106CD4, size: 0x8, addend: 0x0, symName: __RINvXNvMNtCslJiobkLta79_5alloc5sliceSp9to_vec_inTNtNtCsdGrGZaRBwMb_3syn4path11PathSegmentNtNtBP_5token7PathSepENtB3_10ConvertVec6to_vecNtNtB8_5alloc6GlobalEBP_, symObjAddr: 0xA0, symBinAddr: 0x91E90, symSize: 0x490 }
  - { offset: 0x107228, size: 0x8, addend: 0x0, symName: __RINvXNvMNtCslJiobkLta79_5alloc5sliceSp9to_vec_inTNtNtCsdGrGZaRBwMb_3syn4path15GenericArgumentNtNtBP_5token5CommaENtB3_10ConvertVec6to_vecNtNtB8_5alloc6GlobalEBP_, symObjAddr: 0x530, symBinAddr: 0x92320, symSize: 0x4A0 }
  - { offset: 0x107E7C, size: 0x8, addend: 0x0, symName: __RINvMs_NtCsdGrGZaRBwMb_3syn4pathNtB5_4Path8is_identeEB7_, symObjAddr: 0x0, symBinAddr: 0x91E10, symSize: 0x80 }
  - { offset: 0x108797, size: 0x8, addend: 0x0, symName: __RNvMs0_NtCslJiobkLta79_5alloc7raw_vecINtB5_6RawVecNtNtCsdGrGZaRBwMb_3syn4attr9AttributeE8grow_oneBQ_, symObjAddr: 0x1790, symBinAddr: 0x93240, symSize: 0x90 }
  - { offset: 0x108849, size: 0x8, addend: 0x0, symName: __RNvMs0_NtCslJiobkLta79_5alloc7raw_vecINtB5_6RawVecNtNtCsdGrGZaRBwMb_3syn4expr3ArmE8grow_oneBQ_, symObjAddr: 0x18B0, symBinAddr: 0x932D0, symSize: 0x90 }
  - { offset: 0x1088FB, size: 0x8, addend: 0x0, symName: __RNvMs0_NtCslJiobkLta79_5alloc7raw_vecINtB5_6RawVecNtNtCsdGrGZaRBwMb_3syn4expr6ExprIfE8grow_oneBQ_, symObjAddr: 0x1940, symBinAddr: 0x93360, symSize: 0x90 }
  - { offset: 0x1089AD, size: 0x8, addend: 0x0, symName: __RNvMs0_NtCslJiobkLta79_5alloc7raw_vecINtB5_6RawVecNtNtCsdGrGZaRBwMb_3syn4item11ForeignItemE8grow_oneBQ_, symObjAddr: 0x19D0, symBinAddr: 0x933F0, symSize: 0x90 }
  - { offset: 0x108A5F, size: 0x8, addend: 0x0, symName: __RNvMs0_NtCslJiobkLta79_5alloc7raw_vecINtB5_6RawVecNtNtCsdGrGZaRBwMb_3syn4item4ItemE8grow_oneBQ_, symObjAddr: 0x1A60, symBinAddr: 0x93480, symSize: 0x90 }
  - { offset: 0x108B11, size: 0x8, addend: 0x0, symName: __RNvMs0_NtCslJiobkLta79_5alloc7raw_vecINtB5_6RawVecNtNtCsdGrGZaRBwMb_3syn4item8ImplItemE8grow_oneBQ_, symObjAddr: 0x1AF0, symBinAddr: 0x93510, symSize: 0x90 }
  - { offset: 0x108BC3, size: 0x8, addend: 0x0, symName: __RNvMs0_NtCslJiobkLta79_5alloc7raw_vecINtB5_6RawVecNtNtCsdGrGZaRBwMb_3syn4item9TraitItemE8grow_oneBQ_, symObjAddr: 0x1B80, symBinAddr: 0x935A0, symSize: 0x90 }
  - { offset: 0x108C75, size: 0x8, addend: 0x0, symName: __RNvMs0_NtCslJiobkLta79_5alloc7raw_vecINtB5_6RawVecNtNtCsdGrGZaRBwMb_3syn4stmt4StmtE8grow_oneBQ_, symObjAddr: 0x1C10, symBinAddr: 0x93630, symSize: 0x90 }
  - { offset: 0x108D2E, size: 0x8, addend: 0x0, symName: __RNvMs0_NtCslJiobkLta79_5alloc7raw_vecINtB5_6RawVecNtNtCsdGrGZaRBwMb_3syn6buffer5EntryE8grow_oneBQ_, symObjAddr: 0x1CA0, symBinAddr: 0x936C0, symSize: 0x90 }
  - { offset: 0x10900F, size: 0x8, addend: 0x0, symName: __RNvMs0_NtCslJiobkLta79_5alloc7raw_vecINtB5_6RawVecNtNtCsdGrGZaRBwMb_3syn6buffer5EntryE8into_boxBQ_, symObjAddr: 0x1D30, symBinAddr: 0x93750, symSize: 0x90 }
  - { offset: 0x10920F, size: 0x8, addend: 0x0, symName: __RNvMs0_NtCslJiobkLta79_5alloc7raw_vecINtB5_6RawVecNtNtCsdGrGZaRBwMb_3syn8generics14TypeParamBoundE8grow_oneBQ_, symObjAddr: 0x1DC0, symBinAddr: 0x937E0, symSize: 0x90 }
  - { offset: 0x1092C1, size: 0x8, addend: 0x0, symName: __RNvMs0_NtCslJiobkLta79_5alloc7raw_vecINtB5_6RawVecTNtNtCsdGrGZaRBwMb_3syn2ty4TypeNtNtBR_5token5CommaEE8grow_oneBR_, symObjAddr: 0x1E50, symBinAddr: 0x93870, symSize: 0x90 }
  - { offset: 0x109373, size: 0x8, addend: 0x0, symName: __RNvMs0_NtCslJiobkLta79_5alloc7raw_vecINtB5_6RawVecTNtNtCsdGrGZaRBwMb_3syn2ty9BareFnArgNtNtBR_5token5CommaEE8grow_oneBR_, symObjAddr: 0x1EE0, symBinAddr: 0x93900, symSize: 0x90 }
  - { offset: 0x109425, size: 0x8, addend: 0x0, symName: __RNvMs0_NtCslJiobkLta79_5alloc7raw_vecINtB5_6RawVecTNtNtCsdGrGZaRBwMb_3syn3pat3PatNtNtBR_5token2OrEE8grow_oneBR_, symObjAddr: 0x1F70, symBinAddr: 0x93990, symSize: 0x90 }
  - { offset: 0x1094D7, size: 0x8, addend: 0x0, symName: __RNvMs0_NtCslJiobkLta79_5alloc7raw_vecINtB5_6RawVecTNtNtCsdGrGZaRBwMb_3syn3pat3PatNtNtBR_5token5CommaEE8grow_oneBR_, symObjAddr: 0x2000, symBinAddr: 0x93A20, symSize: 0x90 }
  - { offset: 0x109589, size: 0x8, addend: 0x0, symName: __RNvMs0_NtCslJiobkLta79_5alloc7raw_vecINtB5_6RawVecTNtNtCsdGrGZaRBwMb_3syn3pat8FieldPatNtNtBR_5token5CommaEE8grow_oneBR_, symObjAddr: 0x2090, symBinAddr: 0x93AB0, symSize: 0x90 }
  - { offset: 0x10963B, size: 0x8, addend: 0x0, symName: __RNvMs0_NtCslJiobkLta79_5alloc7raw_vecINtB5_6RawVecTNtNtCsdGrGZaRBwMb_3syn4data5FieldNtNtBR_5token5CommaEE8grow_oneBR_, symObjAddr: 0x2120, symBinAddr: 0x93B40, symSize: 0x90 }
  - { offset: 0x1096ED, size: 0x8, addend: 0x0, symName: __RNvMs0_NtCslJiobkLta79_5alloc7raw_vecINtB5_6RawVecTNtNtCsdGrGZaRBwMb_3syn4data7VariantNtNtBR_5token5CommaEE8grow_oneBR_, symObjAddr: 0x21B0, symBinAddr: 0x93BD0, symSize: 0x90 }
  - { offset: 0x10979F, size: 0x8, addend: 0x0, symName: __RNvMs0_NtCslJiobkLta79_5alloc7raw_vecINtB5_6RawVecTNtNtCsdGrGZaRBwMb_3syn4expr10FieldValueNtNtBR_5token5CommaEE8grow_oneBR_, symObjAddr: 0x2240, symBinAddr: 0x93C60, symSize: 0x90 }
  - { offset: 0x109851, size: 0x8, addend: 0x0, symName: __RNvMs0_NtCslJiobkLta79_5alloc7raw_vecINtB5_6RawVecTNtNtCsdGrGZaRBwMb_3syn4expr4ExprNtNtBR_5token5CommaEE8grow_oneBR_, symObjAddr: 0x22D0, symBinAddr: 0x93CF0, symSize: 0x90 }
  - { offset: 0x109903, size: 0x8, addend: 0x0, symName: __RNvMs0_NtCslJiobkLta79_5alloc7raw_vecINtB5_6RawVecTNtNtCsdGrGZaRBwMb_3syn4item5FnArgNtNtBR_5token5CommaEE8grow_oneBR_, symObjAddr: 0x2360, symBinAddr: 0x93D80, symSize: 0x90 }
  - { offset: 0x1099B5, size: 0x8, addend: 0x0, symName: __RNvMs0_NtCslJiobkLta79_5alloc7raw_vecINtB5_6RawVecTNtNtCsdGrGZaRBwMb_3syn4item7UseTreeNtNtBR_5token5CommaEE8grow_oneBR_, symObjAddr: 0x23F0, symBinAddr: 0x93E10, symSize: 0x90 }
  - { offset: 0x109A67, size: 0x8, addend: 0x0, symName: __RNvMs0_NtCslJiobkLta79_5alloc7raw_vecINtB5_6RawVecTNtNtCsdGrGZaRBwMb_3syn4path11PathSegmentNtNtBR_5token7PathSepEE8grow_oneBR_, symObjAddr: 0x2480, symBinAddr: 0x93EA0, symSize: 0x90 }
  - { offset: 0x109B19, size: 0x8, addend: 0x0, symName: __RNvMs0_NtCslJiobkLta79_5alloc7raw_vecINtB5_6RawVecTNtNtCsdGrGZaRBwMb_3syn4path15GenericArgumentNtNtBR_5token5CommaEE8grow_oneBR_, symObjAddr: 0x2510, symBinAddr: 0x93F30, symSize: 0x90 }
  - { offset: 0x109BCB, size: 0x8, addend: 0x0, symName: __RNvMs0_NtCslJiobkLta79_5alloc7raw_vecINtB5_6RawVecTNtNtCsdGrGZaRBwMb_3syn8generics12GenericParamNtNtBR_5token5CommaEE8grow_oneBR_, symObjAddr: 0x25A0, symBinAddr: 0x93FC0, symSize: 0x90 }
  - { offset: 0x109C7D, size: 0x8, addend: 0x0, symName: __RNvMs0_NtCslJiobkLta79_5alloc7raw_vecINtB5_6RawVecTNtNtCsdGrGZaRBwMb_3syn8generics13CapturedParamNtNtBR_5token5CommaEE8grow_oneBR_, symObjAddr: 0x2630, symBinAddr: 0x94050, symSize: 0x90 }
  - { offset: 0x109D2F, size: 0x8, addend: 0x0, symName: __RNvMs0_NtCslJiobkLta79_5alloc7raw_vecINtB5_6RawVecTNtNtCsdGrGZaRBwMb_3syn8generics14TypeParamBoundNtNtBR_5token4PlusEE8grow_oneBR_, symObjAddr: 0x26C0, symBinAddr: 0x940E0, symSize: 0x90 }
  - { offset: 0x109DE1, size: 0x8, addend: 0x0, symName: __RNvMs0_NtCslJiobkLta79_5alloc7raw_vecINtB5_6RawVecTNtNtCsdGrGZaRBwMb_3syn8generics14WherePredicateNtNtBR_5token5CommaEE8grow_oneBR_, symObjAddr: 0x2750, symBinAddr: 0x94170, symSize: 0x90 }
  - { offset: 0x109E93, size: 0x8, addend: 0x0, symName: __RNvMs0_NtCslJiobkLta79_5alloc7raw_vecINtB5_6RawVecTNtNtCsdGrGZaRBwMb_3syn8lifetime8LifetimeNtNtBR_5token4PlusEE8grow_oneBR_, symObjAddr: 0x27E0, symBinAddr: 0x94200, symSize: 0x90 }
  - { offset: 0x109F55, size: 0x8, addend: 0x0, symName: __RNvMs0_NtNtCsdGrGZaRBwMb_3syn4path7parsingNtB7_30AngleBracketedGenericArguments15parse_turbofish, symObjAddr: 0x2940, symBinAddr: 0x94290, symSize: 0xD0 }
  - { offset: 0x109FB4, size: 0x8, addend: 0x0, symName: __RNvMs0_NtNtCsdGrGZaRBwMb_3syn4path7parsingNtB7_30AngleBracketedGenericArguments8do_parse, symObjAddr: 0x2A10, symBinAddr: 0x94360, symSize: 0x540 }
  - { offset: 0x10A0D8, size: 0x8, addend: 0x0, symName: __RNvMs2_NtCsdGrGZaRBwMb_3syn4pathNtB5_13PathArguments7is_none, symObjAddr: 0x3000, symBinAddr: 0x948A0, symSize: 0x60 }
  - { offset: 0x10A0FA, size: 0x8, addend: 0x0, symName: __RNvMs2_NtCsdGrGZaRBwMb_3syn4pathNtB5_13PathArguments8is_empty, symObjAddr: 0x3060, symBinAddr: 0x94900, symSize: 0x90 }
  - { offset: 0x10A1BD, size: 0x8, addend: 0x0, symName: __RNvMs2_NtCslJiobkLta79_5alloc7raw_vecNtB5_11RawVecInner14current_memoryCsdGrGZaRBwMb_3syn, symObjAddr: 0x30F0, symBinAddr: 0x94990, symSize: 0x170 }
  - { offset: 0x10A42A, size: 0x8, addend: 0x0, symName: __RNvMs2_NtCslJiobkLta79_5alloc7raw_vecNtB5_11RawVecInner16shrink_uncheckedCsdGrGZaRBwMb_3syn, symObjAddr: 0x3260, symBinAddr: 0x94B00, symSize: 0x3E0 }
  - { offset: 0x10A7D3, size: 0x8, addend: 0x0, symName: __RNvMs2_NtCslJiobkLta79_5alloc7raw_vecNtB5_11RawVecInner6shrinkCsdGrGZaRBwMb_3syn, symObjAddr: 0x3640, symBinAddr: 0x94EE0, symSize: 0xE0 }
  - { offset: 0x10A896, size: 0x8, addend: 0x0, symName: __RNvMs4_NtNtCsdGrGZaRBwMb_3syn4path7parsingNtB7_11PathSegment12parse_helper, symObjAddr: 0x37B0, symBinAddr: 0x94FC0, symSize: 0x790 }
  - { offset: 0x10AA98, size: 0x8, addend: 0x0, symName: __RNvMs4_NtNtCsieiGu2EXtoJ_4core5slice4iterINtB5_4IterNtCsaKzlTDPUHDb_11proc_macro24SpanE3newCsdGrGZaRBwMb_3syn, symObjAddr: 0x3F40, symBinAddr: 0x95750, symSize: 0x50 }
  - { offset: 0x10AC45, size: 0x8, addend: 0x0, symName: __RNvMs4_NtNtCsieiGu2EXtoJ_4core5slice4iterINtB5_4IterNtNtCsdGrGZaRBwMb_3syn4attr9AttributeE3newBS_, symObjAddr: 0x3F90, symBinAddr: 0x957A0, symSize: 0x50 }
  - { offset: 0x10AE0C, size: 0x8, addend: 0x0, symName: __RNvMs4_NtNtCsieiGu2EXtoJ_4core5slice4iterINtB5_4IterNtNtCsdGrGZaRBwMb_3syn4expr3ArmE3newBS_, symObjAddr: 0x3FE0, symBinAddr: 0x957F0, symSize: 0x50 }
  - { offset: 0x10B021, size: 0x8, addend: 0x0, symName: __RNvMs4_NtNtCsieiGu2EXtoJ_4core5slice4iterINtB5_4IterTNtNtCsdGrGZaRBwMb_3syn2ty4TypeNtNtBT_5token5CommaEE3newBT_, symObjAddr: 0x4080, symBinAddr: 0x95840, symSize: 0x50 }
  - { offset: 0x10B1E8, size: 0x8, addend: 0x0, symName: __RNvMs4_NtNtCsieiGu2EXtoJ_4core5slice4iterINtB5_4IterTNtNtCsdGrGZaRBwMb_3syn2ty9BareFnArgNtNtBT_5token5CommaEE3newBT_, symObjAddr: 0x40D0, symBinAddr: 0x95890, symSize: 0x50 }
  - { offset: 0x10B3AF, size: 0x8, addend: 0x0, symName: __RNvMs4_NtNtCsieiGu2EXtoJ_4core5slice4iterINtB5_4IterTNtNtCsdGrGZaRBwMb_3syn3pat3PatNtNtBT_5token2OrEE3newBT_, symObjAddr: 0x4120, symBinAddr: 0x958E0, symSize: 0x50 }
  - { offset: 0x10B576, size: 0x8, addend: 0x0, symName: __RNvMs4_NtNtCsieiGu2EXtoJ_4core5slice4iterINtB5_4IterTNtNtCsdGrGZaRBwMb_3syn3pat3PatNtNtBT_5token5CommaEE3newBT_, symObjAddr: 0x4170, symBinAddr: 0x95930, symSize: 0x50 }
  - { offset: 0x10B73D, size: 0x8, addend: 0x0, symName: __RNvMs4_NtNtCsieiGu2EXtoJ_4core5slice4iterINtB5_4IterTNtNtCsdGrGZaRBwMb_3syn3pat8FieldPatNtNtBT_5token5CommaEE3newBT_, symObjAddr: 0x41C0, symBinAddr: 0x95980, symSize: 0x50 }
  - { offset: 0x10B904, size: 0x8, addend: 0x0, symName: __RNvMs4_NtNtCsieiGu2EXtoJ_4core5slice4iterINtB5_4IterTNtNtCsdGrGZaRBwMb_3syn4data5FieldNtNtBT_5token5CommaEE3newBT_, symObjAddr: 0x4210, symBinAddr: 0x959D0, symSize: 0x50 }
  - { offset: 0x10BACB, size: 0x8, addend: 0x0, symName: __RNvMs4_NtNtCsieiGu2EXtoJ_4core5slice4iterINtB5_4IterTNtNtCsdGrGZaRBwMb_3syn4data7VariantNtNtBT_5token5CommaEE3newBT_, symObjAddr: 0x4260, symBinAddr: 0x95A20, symSize: 0x50 }
  - { offset: 0x10BC92, size: 0x8, addend: 0x0, symName: __RNvMs4_NtNtCsieiGu2EXtoJ_4core5slice4iterINtB5_4IterTNtNtCsdGrGZaRBwMb_3syn4expr10FieldValueNtNtBT_5token5CommaEE3newBT_, symObjAddr: 0x42B0, symBinAddr: 0x95A70, symSize: 0x50 }
  - { offset: 0x10BE59, size: 0x8, addend: 0x0, symName: __RNvMs4_NtNtCsieiGu2EXtoJ_4core5slice4iterINtB5_4IterTNtNtCsdGrGZaRBwMb_3syn4expr4ExprNtNtBT_5token5CommaEE3newBT_, symObjAddr: 0x4300, symBinAddr: 0x95AC0, symSize: 0x50 }
  - { offset: 0x10C020, size: 0x8, addend: 0x0, symName: __RNvMs4_NtNtCsieiGu2EXtoJ_4core5slice4iterINtB5_4IterTNtNtCsdGrGZaRBwMb_3syn4item5FnArgNtNtBT_5token5CommaEE3newBT_, symObjAddr: 0x4350, symBinAddr: 0x95B10, symSize: 0x50 }
  - { offset: 0x10C1E7, size: 0x8, addend: 0x0, symName: __RNvMs4_NtNtCsieiGu2EXtoJ_4core5slice4iterINtB5_4IterTNtNtCsdGrGZaRBwMb_3syn4item7UseTreeNtNtBT_5token5CommaEE3newBT_, symObjAddr: 0x43A0, symBinAddr: 0x95B60, symSize: 0x50 }
  - { offset: 0x10C342, size: 0x8, addend: 0x0, symName: __RNvMs4_NtNtCsieiGu2EXtoJ_4core5slice4iterINtB5_4IterTNtNtCsdGrGZaRBwMb_3syn4path11PathSegmentNtNtBT_5token7PathSepEE3newBT_, symObjAddr: 0x43F0, symBinAddr: 0x95BB0, symSize: 0x50 }
  - { offset: 0x10C49D, size: 0x8, addend: 0x0, symName: __RNvMs4_NtNtCsieiGu2EXtoJ_4core5slice4iterINtB5_4IterTNtNtCsdGrGZaRBwMb_3syn4path15GenericArgumentNtNtBT_5token5CommaEE3newBT_, symObjAddr: 0x4440, symBinAddr: 0x95C00, symSize: 0x50 }
  - { offset: 0x10C664, size: 0x8, addend: 0x0, symName: __RNvMs4_NtNtCsieiGu2EXtoJ_4core5slice4iterINtB5_4IterTNtNtCsdGrGZaRBwMb_3syn8generics12GenericParamNtNtBT_5token5CommaEE3newBT_, symObjAddr: 0x4490, symBinAddr: 0x95C50, symSize: 0x50 }
  - { offset: 0x10C82B, size: 0x8, addend: 0x0, symName: __RNvMs4_NtNtCsieiGu2EXtoJ_4core5slice4iterINtB5_4IterTNtNtCsdGrGZaRBwMb_3syn8generics13CapturedParamNtNtBT_5token5CommaEE3newBT_, symObjAddr: 0x44E0, symBinAddr: 0x95CA0, symSize: 0x50 }
  - { offset: 0x10C9F2, size: 0x8, addend: 0x0, symName: __RNvMs4_NtNtCsieiGu2EXtoJ_4core5slice4iterINtB5_4IterTNtNtCsdGrGZaRBwMb_3syn8generics14TypeParamBoundNtNtBT_5token4PlusEE3newBT_, symObjAddr: 0x4530, symBinAddr: 0x95CF0, symSize: 0x50 }
  - { offset: 0x10CBB9, size: 0x8, addend: 0x0, symName: __RNvMs4_NtNtCsieiGu2EXtoJ_4core5slice4iterINtB5_4IterTNtNtCsdGrGZaRBwMb_3syn8generics14WherePredicateNtNtBT_5token5CommaEE3newBT_, symObjAddr: 0x4580, symBinAddr: 0x95D40, symSize: 0x50 }
  - { offset: 0x10CD80, size: 0x8, addend: 0x0, symName: __RNvMs4_NtNtCsieiGu2EXtoJ_4core5slice4iterINtB5_4IterTNtNtCsdGrGZaRBwMb_3syn8lifetime8LifetimeNtNtBT_5token4PlusEE3newBT_, symObjAddr: 0x45D0, symBinAddr: 0x95D90, symSize: 0x50 }
  - { offset: 0x10CE8B, size: 0x8, addend: 0x0, symName: __RNvMs5_NtCslJiobkLta79_5alloc2rcINtB5_2RcINtNtCsieiGu2EXtoJ_4core4cell4CellNtNtCsdGrGZaRBwMb_3syn5parse10UnexpectedEE9drop_slowB1f_, symObjAddr: 0x4620, symBinAddr: 0x95DE0, symSize: 0x70 }
  - { offset: 0x10CEEB, size: 0x8, addend: 0x0, symName: __RNvMs5_NtNtCsdGrGZaRBwMb_3syn4path7parsingNtB7_4Path10parse_rest, symObjAddr: 0x4690, symBinAddr: 0x95E50, symSize: 0x2E0 }
  - { offset: 0x10CFBF, size: 0x8, addend: 0x0, symName: __RNvMs5_NtNtCsdGrGZaRBwMb_3syn4path7parsingNtB7_4Path12is_mod_style, symObjAddr: 0x4970, symBinAddr: 0x96130, symSize: 0x70 }
  - { offset: 0x10CFE2, size: 0x8, addend: 0x0, symName: __RNvMs5_NtNtCsdGrGZaRBwMb_3syn4path7parsingNtB7_4Path12parse_helper, symObjAddr: 0x49E0, symBinAddr: 0x961A0, symSize: 0x430 }
  - { offset: 0x10D0D5, size: 0x8, addend: 0x0, symName: __RNvMs5_NtNtCsdGrGZaRBwMb_3syn4path7parsingNtB7_4Path15parse_mod_style, symObjAddr: 0x4E10, symBinAddr: 0x965D0, symSize: 0x640 }
  - { offset: 0x10D22F, size: 0x8, addend: 0x0, symName: __RNvMs6_NtCslJiobkLta79_5alloc2rcINtB5_2RcINtNtCsieiGu2EXtoJ_4core4cell4CellNtNtCsdGrGZaRBwMb_3syn5parse10UnexpectedEE3newB1f_, symObjAddr: 0x5450, symBinAddr: 0x96C10, symSize: 0xB0 }
  - { offset: 0x10D351, size: 0x8, addend: 0x0, symName: __RNvMs_NtCsdGrGZaRBwMb_3syn4pathNtB4_4Path9get_ident, symObjAddr: 0x5550, symBinAddr: 0x96CC0, symSize: 0xB0 }
  - { offset: 0x10D419, size: 0x8, addend: 0x0, symName: __RNvMsa_NtNtCsieiGu2EXtoJ_4core5slice4iterINtB5_7IterMutTNtNtCsdGrGZaRBwMb_3syn4path11PathSegmentNtNtBW_5token7PathSepEE3newBW_, symObjAddr: 0x5650, symBinAddr: 0x96D70, symSize: 0x50 }
  - { offset: 0x10D54F, size: 0x8, addend: 0x0, symName: __RNvMsd_NtCslJiobkLta79_5alloc2rcINtB5_2RcINtNtCsieiGu2EXtoJ_4core4cell4CellNtNtCsdGrGZaRBwMb_3syn5parse10UnexpectedEE6ptr_eqB1f_, symObjAddr: 0x56F0, symBinAddr: 0x96DC0, symSize: 0x20 }
  - { offset: 0x10D5C9, size: 0x8, addend: 0x0, symName: __RNvXNtCs9OU1sGv5X54_5quote9to_tokensRNtNtCsdGrGZaRBwMb_3syn4path15GenericArgumentNtB2_8ToTokens9to_tokensBD_, symObjAddr: 0x57C0, symBinAddr: 0x96E90, symSize: 0x30 }
  - { offset: 0x10ED6D, size: 0x8, addend: 0x0, symName: __RINvMsG_CsaKzlTDPUHDb_11proc_macro2NtB6_7Literal7subspanINtNtNtCsieiGu2EXtoJ_4core3ops5range5RangejEECsdGrGZaRBwMb_3syn, symObjAddr: 0x0, symBinAddr: 0x9BA60, symSize: 0x30 }
  - { offset: 0x110187, size: 0x8, addend: 0x0, symName: __RNvXsw_NtCslJiobkLta79_5alloc6stringNtCsaKzlTDPUHDb_11proc_macro27LiteralNtB5_8ToString9to_stringCsdGrGZaRBwMb_3syn, symObjAddr: 0x17190, symBinAddr: 0xB1130, symSize: 0x30 }
  - { offset: 0x1101BE, size: 0x8, addend: 0x0, symName: __RNvXsw_NtCslJiobkLta79_5alloc6stringNtCsaKzlTDPUHDb_11proc_macro28LexErrorNtB5_8ToString9to_stringCsdGrGZaRBwMb_3syn, symObjAddr: 0x171C0, symBinAddr: 0xB1160, symSize: 0x30 }
  - { offset: 0x1101FB, size: 0x8, addend: 0x0, symName: __RNvXsx_NtCslJiobkLta79_5alloc6stringNtCsaKzlTDPUHDb_11proc_macro27LiteralNtB5_12SpecToString14spec_to_stringCsdGrGZaRBwMb_3syn, symObjAddr: 0x171F0, symBinAddr: 0xB1190, symSize: 0x120 }
  - { offset: 0x1102C7, size: 0x8, addend: 0x0, symName: __RNvXsx_NtCslJiobkLta79_5alloc6stringNtCsaKzlTDPUHDb_11proc_macro28LexErrorNtB5_12SpecToString14spec_to_stringCsdGrGZaRBwMb_3syn, symObjAddr: 0x17310, symBinAddr: 0xB12B0, symSize: 0x120 }
  - { offset: 0x1103CA, size: 0x8, addend: 0x0, symName: __RINvXNvMNtCslJiobkLta79_5alloc5sliceSp9to_vec_inNtNtCsdGrGZaRBwMb_3syn4stmt4StmtNtB3_10ConvertVec6to_vecNtNtB8_5alloc6GlobalEBO_, symObjAddr: 0xB350, symBinAddr: 0xA65F0, symSize: 0x490 }
  - { offset: 0x110F72, size: 0x8, addend: 0x0, symName: __RNvXs2_NtCslJiobkLta79_5alloc3streNtNtB7_6borrow7ToOwned8to_ownedCsdGrGZaRBwMb_3syn, symObjAddr: 0x15830, symBinAddr: 0xB0440, symSize: 0x50 }
  - { offset: 0x111CC1, size: 0x8, addend: 0x0, symName: __RNCNvMs5_NtNtCsdGrGZaRBwMb_3syn4path7parsingNtB9_4Path12is_mod_style0Bb_, symObjAddr: 0xB7E0, symBinAddr: 0xA6A80, symSize: 0x30 }
  - { offset: 0x111D03, size: 0x8, addend: 0x0, symName: __RNvNtNtCsdGrGZaRBwMb_3syn4path7parsing14const_argument, symObjAddr: 0xFEC0, symBinAddr: 0xAAF50, symSize: 0x600 }
  - { offset: 0x111E01, size: 0x8, addend: 0x0, symName: __RNvNtNtCsdGrGZaRBwMb_3syn4path7parsing5qpath, symObjAddr: 0x104C0, symBinAddr: 0xAB550, symSize: 0xF20 }
  - { offset: 0x1148A1, size: 0x8, addend: 0x0, symName: __RNCNvNtNtCsdGrGZaRBwMb_3syn4expr8printing10print_expr0B7_, symObjAddr: 0xB810, symBinAddr: 0xA6AB0, symSize: 0xA90 }
  - { offset: 0x114DE0, size: 0x8, addend: 0x0, symName: __RNCNvNtNtCsdGrGZaRBwMb_3syn4expr8printing15print_expr_call0B7_, symObjAddr: 0xC2A0, symBinAddr: 0xA7540, symSize: 0x30 }
  - { offset: 0x114E21, size: 0x8, addend: 0x0, symName: __RNCNvNtNtCsdGrGZaRBwMb_3syn4expr8printing15print_expr_cast0B7_, symObjAddr: 0xC2D0, symBinAddr: 0xA7570, symSize: 0x170 }
  - { offset: 0x114EBD, size: 0x8, addend: 0x0, symName: __RNCNvNtNtCsdGrGZaRBwMb_3syn4expr8printing16print_expr_index0B7_, symObjAddr: 0xC440, symBinAddr: 0xA76E0, symSize: 0x30 }
  - { offset: 0x114EFE, size: 0x8, addend: 0x0, symName: __RNCNvNtNtCsdGrGZaRBwMb_3syn4expr8printing16print_expr_range0B7_, symObjAddr: 0xC470, symBinAddr: 0xA7710, symSize: 0x370 }
  - { offset: 0x114FF6, size: 0x8, addend: 0x0, symName: __RNCNvNtNtCsdGrGZaRBwMb_3syn4expr8printing17print_expr_assign0B7_, symObjAddr: 0xC7E0, symBinAddr: 0xA7A80, symSize: 0x1F0 }
  - { offset: 0x115092, size: 0x8, addend: 0x0, symName: __RNCNvNtNtCsdGrGZaRBwMb_3syn4expr8printing17print_expr_binary0B7_, symObjAddr: 0xC9D0, symBinAddr: 0xA7C70, symSize: 0x440 }
  - { offset: 0x115189, size: 0x8, addend: 0x0, symName: __RNCNvNtNtCsdGrGZaRBwMb_3syn4expr8printing18print_expr_closure0B7_, symObjAddr: 0xCE10, symBinAddr: 0xA80B0, symSize: 0x90 }
  - { offset: 0x1151CA, size: 0x8, addend: 0x0, symName: __RNCNvNtNtCsdGrGZaRBwMb_3syn4expr8printing19print_subexpression0B7_, symObjAddr: 0xCEA0, symBinAddr: 0xA8140, symSize: 0x40 }
  - { offset: 0x11523E, size: 0x8, addend: 0x0, symName: __RNCNvNtNtCsdGrGZaRBwMb_3syn4expr8printing22print_expr_method_call0B7_, symObjAddr: 0xCEE0, symBinAddr: 0xA8180, symSize: 0x30 }
  - { offset: 0x115284, size: 0x8, addend: 0x0, symName: __RNCNvXNtNtCsdGrGZaRBwMb_3syn4expr8printingNtB6_9ExprArrayNtNtCs9OU1sGv5X54_5quote9to_tokens8ToTokens9to_tokens0B8_, symObjAddr: 0xCF10, symBinAddr: 0xA81B0, symSize: 0x30 }
  - { offset: 0x1152CB, size: 0x8, addend: 0x0, symName: __RNCNvXs3_NtNtCsdGrGZaRBwMb_3syn4expr8printingNtB9_9ExprBlockNtNtCs9OU1sGv5X54_5quote9to_tokens8ToTokens9to_tokens0Bb_, symObjAddr: 0xCF40, symBinAddr: 0xA81E0, symSize: 0x50 }
  - { offset: 0x115312, size: 0x8, addend: 0x0, symName: __RNCNvXs8_NtNtCsdGrGZaRBwMb_3syn4expr8printingNtB9_9ExprConstNtNtCs9OU1sGv5X54_5quote9to_tokens8ToTokens9to_tokens0Bb_, symObjAddr: 0xCF90, symBinAddr: 0xA8230, symSize: 0x50 }
  - { offset: 0x115359, size: 0x8, addend: 0x0, symName: __RNCNvXsb_NtNtCsdGrGZaRBwMb_3syn4expr8printingNtB9_11ExprForLoopNtNtCs9OU1sGv5X54_5quote9to_tokens8ToTokens9to_tokens0Bb_, symObjAddr: 0xCFE0, symBinAddr: 0xA8280, symSize: 0x50 }
  - { offset: 0x1153A0, size: 0x8, addend: 0x0, symName: __RNCNvXsc_NtNtCsdGrGZaRBwMb_3syn4expr8printingNtB9_9ExprGroupNtNtCs9OU1sGv5X54_5quote9to_tokens8ToTokens9to_tokens0Bb_, symObjAddr: 0xD030, symBinAddr: 0xA82D0, symSize: 0x30 }
  - { offset: 0x1153E7, size: 0x8, addend: 0x0, symName: __RNCNvXsd_NtNtCsdGrGZaRBwMb_3syn4expr8printingNtB9_6ExprIfNtNtCs9OU1sGv5X54_5quote9to_tokens8ToTokens9to_tokens0Bb_, symObjAddr: 0xD060, symBinAddr: 0xA8300, symSize: 0x40 }
  - { offset: 0x11542E, size: 0x8, addend: 0x0, symName: __RNCNvXsi_NtNtCsdGrGZaRBwMb_3syn4expr8printingNtB9_8ExprLoopNtNtCs9OU1sGv5X54_5quote9to_tokens8ToTokens9to_tokens0Bb_, symObjAddr: 0xD0A0, symBinAddr: 0xA8340, symSize: 0x50 }
  - { offset: 0x115475, size: 0x8, addend: 0x0, symName: __RNCNvXsk_NtNtCsdGrGZaRBwMb_3syn4expr8printingNtB9_9ExprMatchNtNtCs9OU1sGv5X54_5quote9to_tokens8ToTokens9to_tokens0Bb_, symObjAddr: 0xD0F0, symBinAddr: 0xA8390, symSize: 0x220 }
  - { offset: 0x11550F, size: 0x8, addend: 0x0, symName: __RNCNvXsm_NtNtCsdGrGZaRBwMb_3syn4expr8printingNtB9_9ExprParenNtNtCs9OU1sGv5X54_5quote9to_tokens8ToTokens9to_tokens0Bb_, symObjAddr: 0xD310, symBinAddr: 0xA85B0, symSize: 0x30 }
  - { offset: 0x115556, size: 0x8, addend: 0x0, symName: __RNCNvXsr_NtNtCsdGrGZaRBwMb_3syn4expr8printingNtB9_10ExprRepeatNtNtCs9OU1sGv5X54_5quote9to_tokens8ToTokens9to_tokens0Bb_, symObjAddr: 0xD340, symBinAddr: 0xA85E0, symSize: 0x60 }
  - { offset: 0x11559D, size: 0x8, addend: 0x0, symName: __RNCNvXst_NtNtCsdGrGZaRBwMb_3syn4expr8printingNtB9_10ExprStructNtNtCs9OU1sGv5X54_5quote9to_tokens8ToTokens9to_tokens0Bb_, symObjAddr: 0xD3A0, symBinAddr: 0xA8640, symSize: 0xD0 }
  - { offset: 0x115602, size: 0x8, addend: 0x0, symName: __RNCNvXsw_NtNtCsdGrGZaRBwMb_3syn4expr8printingNtB9_9ExprTupleNtNtCs9OU1sGv5X54_5quote9to_tokens8ToTokens9to_tokens0Bb_, symObjAddr: 0xD470, symBinAddr: 0xA8710, symSize: 0x90 }
  - { offset: 0x115649, size: 0x8, addend: 0x0, symName: __RNCNvXsy_NtNtCsdGrGZaRBwMb_3syn4expr8printingNtB9_10ExprUnsafeNtNtCs9OU1sGv5X54_5quote9to_tokens8ToTokens9to_tokens0Bb_, symObjAddr: 0xD500, symBinAddr: 0xA87A0, symSize: 0x50 }
  - { offset: 0x115690, size: 0x8, addend: 0x0, symName: __RNCNvXsz_NtNtCsdGrGZaRBwMb_3syn4expr8printingNtB9_9ExprWhileNtNtCs9OU1sGv5X54_5quote9to_tokens8ToTokens9to_tokens0Bb_, symObjAddr: 0xD550, symBinAddr: 0xA87F0, symSize: 0x50 }
  - { offset: 0x1156CD, size: 0x8, addend: 0x0, symName: __RNvNtNtCsdGrGZaRBwMb_3syn4expr8printing10print_expr, symObjAddr: 0xE390, symBinAddr: 0xA9420, symSize: 0xC0 }
  - { offset: 0x115753, size: 0x8, addend: 0x0, symName: __RNvNtNtCsdGrGZaRBwMb_3syn4expr8printing14print_expr_let, symObjAddr: 0xE450, symBinAddr: 0xA94E0, symSize: 0x180 }
  - { offset: 0x1157C4, size: 0x8, addend: 0x0, symName: __RNvNtNtCsdGrGZaRBwMb_3syn4expr8printing14print_expr_try, symObjAddr: 0xE5D0, symBinAddr: 0xA9660, symSize: 0x160 }
  - { offset: 0x115835, size: 0x8, addend: 0x0, symName: __RNvNtNtCsdGrGZaRBwMb_3syn4expr8printing15print_expr_call, symObjAddr: 0xE730, symBinAddr: 0xA97C0, symSize: 0x200 }
  - { offset: 0x1158D2, size: 0x8, addend: 0x0, symName: __RNvNtNtCsdGrGZaRBwMb_3syn4expr8printing15print_expr_cast, symObjAddr: 0xE930, symBinAddr: 0xA99C0, symSize: 0xD0 }
  - { offset: 0x115957, size: 0x8, addend: 0x0, symName: __RNvNtNtCsdGrGZaRBwMb_3syn4expr8printing16print_expr_await, symObjAddr: 0xEA00, symBinAddr: 0xA9A90, symSize: 0x170 }
  - { offset: 0x1159C8, size: 0x8, addend: 0x0, symName: __RNvNtNtCsdGrGZaRBwMb_3syn4expr8printing16print_expr_break, symObjAddr: 0xEB70, symBinAddr: 0xA9C00, symSize: 0x1B0 }
  - { offset: 0x115A27, size: 0x8, addend: 0x0, symName: __RNvNtNtCsdGrGZaRBwMb_3syn4expr8printing16print_expr_field, symObjAddr: 0xED20, symBinAddr: 0xA9DB0, symSize: 0x170 }
  - { offset: 0x115A98, size: 0x8, addend: 0x0, symName: __RNvNtNtCsdGrGZaRBwMb_3syn4expr8printing16print_expr_index, symObjAddr: 0xEE90, symBinAddr: 0xA9F20, symSize: 0x170 }
  - { offset: 0x115B09, size: 0x8, addend: 0x0, symName: __RNvNtNtCsdGrGZaRBwMb_3syn4expr8printing16print_expr_range, symObjAddr: 0xF000, symBinAddr: 0xAA090, symSize: 0xD0 }
  - { offset: 0x115B8E, size: 0x8, addend: 0x0, symName: __RNvNtNtCsdGrGZaRBwMb_3syn4expr8printing16print_expr_unary, symObjAddr: 0xF0D0, symBinAddr: 0xAA160, symSize: 0x160 }
  - { offset: 0x115BFF, size: 0x8, addend: 0x0, symName: __RNvNtNtCsdGrGZaRBwMb_3syn4expr8printing16print_expr_yield, symObjAddr: 0xF230, symBinAddr: 0xAA2C0, symSize: 0x110 }
  - { offset: 0x115C5E, size: 0x8, addend: 0x0, symName: __RNvNtNtCsdGrGZaRBwMb_3syn4expr8printing17print_expr_assign, symObjAddr: 0xF340, symBinAddr: 0xAA3D0, symSize: 0xD0 }
  - { offset: 0x115CE3, size: 0x8, addend: 0x0, symName: __RNvNtNtCsdGrGZaRBwMb_3syn4expr8printing17print_expr_binary, symObjAddr: 0xF410, symBinAddr: 0xAA4A0, symSize: 0xD0 }
  - { offset: 0x115D68, size: 0x8, addend: 0x0, symName: __RNvNtNtCsdGrGZaRBwMb_3syn4expr8printing17print_expr_return, symObjAddr: 0xF4E0, symBinAddr: 0xAA570, symSize: 0x110 }
  - { offset: 0x115DC7, size: 0x8, addend: 0x0, symName: __RNvNtNtCsdGrGZaRBwMb_3syn4expr8printing18print_expr_closure, symObjAddr: 0xF5F0, symBinAddr: 0xAA680, symSize: 0x2B0 }
  - { offset: 0x115E3F, size: 0x8, addend: 0x0, symName: __RNvNtNtCsdGrGZaRBwMb_3syn4expr8printing19print_expr_raw_addr, symObjAddr: 0xF8A0, symBinAddr: 0xAA930, symSize: 0x180 }
  - { offset: 0x115EB0, size: 0x8, addend: 0x0, symName: __RNvNtNtCsdGrGZaRBwMb_3syn4expr8printing19print_subexpression, symObjAddr: 0xFA20, symBinAddr: 0xAAAB0, symSize: 0xB0 }
  - { offset: 0x115F26, size: 0x8, addend: 0x0, symName: __RNvNtNtCsdGrGZaRBwMb_3syn4expr8printing20print_expr_reference, symObjAddr: 0xFAD0, symBinAddr: 0xAAB60, symSize: 0x170 }
  - { offset: 0x115F97, size: 0x8, addend: 0x0, symName: __RNvNtNtCsdGrGZaRBwMb_3syn4expr8printing21inner_attrs_to_tokens, symObjAddr: 0xFC40, symBinAddr: 0xAACD0, symSize: 0x50 }
  - { offset: 0x115FD0, size: 0x8, addend: 0x0, symName: __RNvNtNtCsdGrGZaRBwMb_3syn4expr8printing21outer_attrs_to_tokens, symObjAddr: 0xFC90, symBinAddr: 0xAAD20, symSize: 0x50 }
  - { offset: 0x116009, size: 0x8, addend: 0x0, symName: __RNvNtNtCsdGrGZaRBwMb_3syn4expr8printing22print_expr_method_call, symObjAddr: 0xFCE0, symBinAddr: 0xAAD70, symSize: 0x1E0 }
  - { offset: 0x116268, size: 0x8, addend: 0x0, symName: __RNcNtNtNtCsdGrGZaRBwMb_3syn4stmt4Stmt5Local0B7_, symObjAddr: 0xD5A0, symBinAddr: 0xA8840, symSize: 0x40 }
  - { offset: 0x116297, size: 0x8, addend: 0x0, symName: __RNcNtNtNtCsdGrGZaRBwMb_3syn4stmt4Stmt5Macro0B7_, symObjAddr: 0xD5E0, symBinAddr: 0xA8880, symSize: 0x40 }
  - { offset: 0x1162C7, size: 0x8, addend: 0x0, symName: __RNvNtNtCsdGrGZaRBwMb_3syn4stmt7parsing10parse_stmt, symObjAddr: 0x113E0, symBinAddr: 0xAC470, symSize: 0xFB0 }
  - { offset: 0x1163D9, size: 0x8, addend: 0x0, symName: __RNvNtNtCsdGrGZaRBwMb_3syn4stmt7parsing10stmt_local, symObjAddr: 0x12390, symBinAddr: 0xAD420, symSize: 0x1010 }
  - { offset: 0x1166F4, size: 0x8, addend: 0x0, symName: __RNvNtNtCsdGrGZaRBwMb_3syn4stmt7parsing8stmt_mac, symObjAddr: 0x133A0, symBinAddr: 0xAE430, symSize: 0x4B0 }
  - { offset: 0x1167ED, size: 0x8, addend: 0x0, symName: __RNvNtNtCsdGrGZaRBwMb_3syn4stmt7parsing9stmt_expr, symObjAddr: 0x13850, symBinAddr: 0xAE8E0, symSize: 0x9F0 }
  - { offset: 0x116983, size: 0x8, addend: 0x0, symName: __RNvXs_NtNtCsdGrGZaRBwMb_3syn4stmt7parsingNtB6_5BlockNtNtB8_5parse5Parse5parse, symObjAddr: 0x16860, symBinAddr: 0xB0B50, symSize: 0x2E0 }
  - { offset: 0x116A38, size: 0x8, addend: 0x0, symName: __RNvXNtNtCsdGrGZaRBwMb_3syn4stmt8printingNtB4_5BlockNtNtCs9OU1sGv5X54_5quote9to_tokens8ToTokens9to_tokens, symObjAddr: 0x14BB0, symBinAddr: 0xAFAF0, symSize: 0x30 }
  - { offset: 0x116A77, size: 0x8, addend: 0x0, symName: __RNvXs0_NtNtCsdGrGZaRBwMb_3syn4stmt8printingNtB7_5LocalNtNtCs9OU1sGv5X54_5quote9to_tokens8ToTokens9to_tokens, symObjAddr: 0x14CE0, symBinAddr: 0xAFBB0, symSize: 0x330 }
  - { offset: 0x116B10, size: 0x8, addend: 0x0, symName: __RNvXs1_NtNtCsdGrGZaRBwMb_3syn4stmt8printingNtB7_9StmtMacroNtNtCs9OU1sGv5X54_5quote9to_tokens8ToTokens9to_tokens, symObjAddr: 0x15550, symBinAddr: 0xB0320, symSize: 0x60 }
  - { offset: 0x116B4F, size: 0x8, addend: 0x0, symName: __RNvXs_NtNtCsdGrGZaRBwMb_3syn4stmt8printingNtB6_4StmtNtNtCs9OU1sGv5X54_5quote9to_tokens8ToTokens9to_tokens, symObjAddr: 0x16B40, symBinAddr: 0xB0E30, symSize: 0x110 }
  - { offset: 0x119452, size: 0x8, addend: 0x0, symName: __RNvXsc_NtCsdGrGZaRBwMb_3syn5parseNtCsaKzlTDPUHDb_11proc_macro211TokenStreamNtB5_5Parse5parse, symObjAddr: 0x16DE0, symBinAddr: 0xB10D0, symSize: 0x30 }
  - { offset: 0x119486, size: 0x8, addend: 0x0, symName: __RNvXsd_NtCsdGrGZaRBwMb_3syn5parseNtCsaKzlTDPUHDb_11proc_macro29TokenTreeNtB5_5Parse5parse, symObjAddr: 0x16E10, symBinAddr: 0xB1100, symSize: 0x30 }
  - { offset: 0x1195DF, size: 0x8, addend: 0x0, symName: __RNvNtCsdGrGZaRBwMb_3syn8verbatim7between, symObjAddr: 0xDF40, symBinAddr: 0xA8FD0, symSize: 0x450 }
  - { offset: 0x1196DF, size: 0x8, addend: 0x0, symName: __RNvXNtCsdGrGZaRBwMb_3syn3extNtCsaKzlTDPUHDb_11proc_macro25IdentNtB2_8IdentExt9parse_any, symObjAddr: 0x14B00, symBinAddr: 0xAFA40, symSize: 0x30 }
  - { offset: 0x119711, size: 0x8, addend: 0x0, symName: __RNvXs2_NtCsdGrGZaRBwMb_3syn3extNtCsaKzlTDPUHDb_11proc_macro211TokenStreamNtB5_14TokenStreamExt6append, symObjAddr: 0x15790, symBinAddr: 0xB0400, symSize: 0x40 }
  - { offset: 0x11974E, size: 0x8, addend: 0x0, symName: __RNvXs3_NtCsdGrGZaRBwMb_3syn3extNtCsaKzlTDPUHDb_11proc_macro25PunctNtB5_8PunctExt11new_spanned, symObjAddr: 0x15D10, symBinAddr: 0xB07E0, symSize: 0x70 }
  - { offset: 0x1197BF, size: 0x8, addend: 0x0, symName: __RNvXNtCsdGrGZaRBwMb_3syn4spanNtCsaKzlTDPUHDb_11proc_macro24SpanINtB2_9IntoSpansBr_E10into_spans, symObjAddr: 0x14B30, symBinAddr: 0xAFA70, symSize: 0x20 }
  - { offset: 0x1197F1, size: 0x8, addend: 0x0, symName: __RNvXs0_NtCsdGrGZaRBwMb_3syn4spanNtCsaKzlTDPUHDb_11proc_macro24SpanINtB5_9IntoSpansABu_j2_E10into_spans, symObjAddr: 0x14C50, symBinAddr: 0xAFB90, symSize: 0x20 }
  - { offset: 0x119823, size: 0x8, addend: 0x0, symName: __RNvXs4_NtCsdGrGZaRBwMb_3syn4spanANtCsaKzlTDPUHDb_11proc_macro24Spanj3_INtB5_9IntoSpansBu_E10into_spans, symObjAddr: 0x16100, symBinAddr: 0xB0850, symSize: 0x20 }
  - { offset: 0x119855, size: 0x8, addend: 0x0, symName: __RNvXs5_NtCsdGrGZaRBwMb_3syn4spanNtCsaKzlTDPUHDb_11proc_macro24SpanINtB5_9IntoSpansNtNtBw_5extra9DelimSpanE10into_spans, symObjAddr: 0x163D0, symBinAddr: 0xB0870, symSize: 0xA0 }
  - { offset: 0x11989D, size: 0x8, addend: 0x0, symName: __RNvXs_NtCsdGrGZaRBwMb_3syn4spanNtCsaKzlTDPUHDb_11proc_macro24SpanINtB4_9IntoSpansABt_j1_E10into_spans, symObjAddr: 0x16800, symBinAddr: 0xB0B30, symSize: 0x20 }
  - { offset: 0x1198D5, size: 0x8, addend: 0x0, symName: __RNvXNtCsdGrGZaRBwMb_3syn5identNtCsaKzlTDPUHDb_11proc_macro25IdentINtNtCsieiGu2EXtoJ_4core7convert4FromNtNtB4_5token10UnderscoreE4from, symObjAddr: 0x14B50, symBinAddr: 0xAFA90, symSize: 0x60 }
  - { offset: 0x11990C, size: 0x8, addend: 0x0, symName: __RNvXNtNtCsdGrGZaRBwMb_3syn5ident7parsingNtCsaKzlTDPUHDb_11proc_macro25IdentNtNtB6_5parse5Parse5parse, symObjAddr: 0x14BE0, symBinAddr: 0xAFB20, symSize: 0x30 }
  - { offset: 0x11993E, size: 0x8, addend: 0x0, symName: __RNvXs_NtNtCsdGrGZaRBwMb_3syn5ident7parsingNtCsaKzlTDPUHDb_11proc_macro25IdentNtNtB8_5token5Token4peek, symObjAddr: 0x16C50, symBinAddr: 0xB0F40, symSize: 0xF0 }
  - { offset: 0x11998F, size: 0x8, addend: 0x0, symName: __RNvXs_NtNtCsdGrGZaRBwMb_3syn5ident7parsingNtCsaKzlTDPUHDb_11proc_macro25IdentNtNtB8_5token5Token7display, symObjAddr: 0x16D40, symBinAddr: 0xB1030, symSize: 0x20 }
  - { offset: 0x1199BE, size: 0x8, addend: 0x0, symName: __RNvXs1G_NtNtCsdGrGZaRBwMb_3syn3gen5cloneNtNtBa_4stmt5LocalNtNtCsieiGu2EXtoJ_4core5clone5Clone5clone, symObjAddr: 0x15220, symBinAddr: 0xB0050, symSize: 0x1B0 }
  - { offset: 0x1199F2, size: 0x8, addend: 0x0, symName: __RNvXs1H_NtNtCsdGrGZaRBwMb_3syn3gen5cloneNtNtBa_4stmt9LocalInitNtNtCsieiGu2EXtoJ_4core5clone5Clone5clone, symObjAddr: 0x153D0, symBinAddr: 0xB0200, symSize: 0xB0 }
  - { offset: 0x119A26, size: 0x8, addend: 0x0, symName: __RNvXs2f_NtNtCsdGrGZaRBwMb_3syn3gen5cloneNtNtBa_4stmt4StmtNtNtCsieiGu2EXtoJ_4core5clone5Clone5clone, symObjAddr: 0x15980, symBinAddr: 0xB0490, symSize: 0x220 }
  - { offset: 0x119AD3, size: 0x8, addend: 0x0, symName: __RNvXs2g_NtNtCsdGrGZaRBwMb_3syn3gen5cloneNtNtBa_4stmt9StmtMacroNtNtCsieiGu2EXtoJ_4core5clone5Clone5clone, symObjAddr: 0x15BA0, symBinAddr: 0xB06B0, symSize: 0x130 }
  - { offset: 0x119B07, size: 0x8, addend: 0x0, symName: __RNvXsa_NtNtCsdGrGZaRBwMb_3syn3gen5cloneNtNtB9_4stmt5BlockNtNtCsieiGu2EXtoJ_4core5clone5Clone5clone, symObjAddr: 0x16D60, symBinAddr: 0xB1050, symSize: 0x80 }
  - { offset: 0x11A2A6, size: 0x8, addend: 0x0, symName: __RNvXs11_CsaKzlTDPUHDb_11proc_macro2NtB6_7SpacingNtNtCsieiGu2EXtoJ_4core3cmp9PartialEq2eqCsdGrGZaRBwMb_3syn, symObjAddr: 0x15050, symBinAddr: 0xAFF20, symSize: 0x30 }
  - { offset: 0x11A325, size: 0x8, addend: 0x0, symName: __RNvXs12_CsaKzlTDPUHDb_11proc_macro2NtB6_5IdentNtNtCsieiGu2EXtoJ_4core5clone5Clone5cloneCsdGrGZaRBwMb_3syn, symObjAddr: 0x15080, symBinAddr: 0xAFF50, symSize: 0x80 }
  - { offset: 0x11A359, size: 0x8, addend: 0x0, symName: __RNvXs13_CsaKzlTDPUHDb_11proc_macro2NtB6_7LiteralNtNtCsieiGu2EXtoJ_4core5clone5Clone5cloneCsdGrGZaRBwMb_3syn, symObjAddr: 0x15100, symBinAddr: 0xAFFD0, symSize: 0x80 }
  - { offset: 0x11A38D, size: 0x8, addend: 0x0, symName: __RNvXsK_CsaKzlTDPUHDb_11proc_macro2NtB5_11TokenStreamNtNtCsieiGu2EXtoJ_4core5clone5Clone5cloneCsdGrGZaRBwMb_3syn, symObjAddr: 0x16610, symBinAddr: 0xB0940, symSize: 0x90 }
  - { offset: 0x11A3BF, size: 0x8, addend: 0x0, symName: __RNvXsM_CsaKzlTDPUHDb_11proc_macro2NtB5_4SpanNtNtCsieiGu2EXtoJ_4core5clone5Clone5cloneCsdGrGZaRBwMb_3syn, symObjAddr: 0x166A0, symBinAddr: 0xB09D0, symSize: 0x10 }
  - { offset: 0x11A3F3, size: 0x8, addend: 0x0, symName: __RNvXsO_CsaKzlTDPUHDb_11proc_macro2NtB5_5GroupNtNtCsieiGu2EXtoJ_4core5clone5Clone5cloneCsdGrGZaRBwMb_3syn, symObjAddr: 0x166B0, symBinAddr: 0xB09E0, symSize: 0x50 }
  - { offset: 0x11A427, size: 0x8, addend: 0x0, symName: __RNvXsQ_CsaKzlTDPUHDb_11proc_macro2NtB5_9DelimiterNtNtCsieiGu2EXtoJ_4core5clone5Clone5cloneCsdGrGZaRBwMb_3syn, symObjAddr: 0x16700, symBinAddr: 0xB0A30, symSize: 0x10 }
  - { offset: 0x11A45B, size: 0x8, addend: 0x0, symName: __RNvXsU_CsaKzlTDPUHDb_11proc_macro2NtB5_9DelimiterNtNtCsieiGu2EXtoJ_4core3cmp9PartialEq2eqCsdGrGZaRBwMb_3syn, symObjAddr: 0x16710, symBinAddr: 0xB0A40, symSize: 0x30 }
  - { offset: 0x11A4DA, size: 0x8, addend: 0x0, symName: __RNvXsV_CsaKzlTDPUHDb_11proc_macro2NtB5_5PunctNtNtCsieiGu2EXtoJ_4core5clone5Clone5cloneCsdGrGZaRBwMb_3syn, symObjAddr: 0x16790, symBinAddr: 0xB0AC0, symSize: 0x60 }
  - { offset: 0x11A50E, size: 0x8, addend: 0x0, symName: __RNvXsX_CsaKzlTDPUHDb_11proc_macro2NtB5_7SpacingNtNtCsieiGu2EXtoJ_4core5clone5Clone5cloneCsdGrGZaRBwMb_3syn, symObjAddr: 0x167F0, symBinAddr: 0xB0B20, symSize: 0x10 }
  - { offset: 0x11A542, size: 0x8, addend: 0x0, symName: __RNvXsz_CsaKzlTDPUHDb_11proc_macro2NtB5_5IdentINtNtCsieiGu2EXtoJ_4core3cmp9PartialEqReE2eqCsdGrGZaRBwMb_3syn, symObjAddr: 0x17430, symBinAddr: 0xB13D0, symSize: 0x30 }
  - { offset: 0x11A588, size: 0x8, addend: 0x0, symName: __RNvXsz_CsaKzlTDPUHDb_11proc_macro2NtB5_5IdentINtNtCsieiGu2EXtoJ_4core3cmp9PartialEqeE2eqCsdGrGZaRBwMb_3syn, symObjAddr: 0x17460, symBinAddr: 0xB1400, symSize: 0x30 }
  - { offset: 0x11AA12, size: 0x8, addend: 0x0, symName: __RNvXs10_CscKtU6MdFI5n_10proc_macroNtB6_5GroupNtNtCsieiGu2EXtoJ_4core5clone5Clone5cloneCsdGrGZaRBwMb_3syn, symObjAddr: 0x15010, symBinAddr: 0xAFEE0, symSize: 0x40 }
  - { offset: 0x11AA46, size: 0x8, addend: 0x0, symName: __RNvXs1e_CscKtU6MdFI5n_10proc_macroNtB6_5IdentNtNtCsieiGu2EXtoJ_4core5clone5Clone5cloneCsdGrGZaRBwMb_3syn, symObjAddr: 0x155B0, symBinAddr: 0xB0380, symSize: 0x40 }
  - { offset: 0x11AA7A, size: 0x8, addend: 0x0, symName: __RNvXs1f_CscKtU6MdFI5n_10proc_macroNtB6_7LiteralNtNtCsieiGu2EXtoJ_4core5clone5Clone5cloneCsdGrGZaRBwMb_3syn, symObjAddr: 0x155F0, symBinAddr: 0xB03C0, symSize: 0x40 }
  - { offset: 0x11AAAE, size: 0x8, addend: 0x0, symName: __RNvXsU_CscKtU6MdFI5n_10proc_macroNtB5_11TokenStreamNtNtCsieiGu2EXtoJ_4core5clone5Clone5cloneCsdGrGZaRBwMb_3syn, symObjAddr: 0x16740, symBinAddr: 0xB0A70, symSize: 0x50 }
  - { offset: 0x11B4F4, size: 0x8, addend: 0x0, symName: __RINvNtCsieiGu2EXtoJ_4core3ptr13drop_in_placeINtNtB4_3pin3PinINtNtCslJiobkLta79_5alloc4sync3ArcNtNtCsHUR1vrdMJt_3std6thread5InnerEEECsdGrGZaRBwMb_3syn, symObjAddr: 0x30, symBinAddr: 0x9BA90, symSize: 0x20 }
  - { offset: 0x11B523, size: 0x8, addend: 0x0, symName: __RINvNtCsieiGu2EXtoJ_4core3ptr13drop_in_placeINtNtB4_4cell10UnsafeCellINtNtB4_6option6OptionINtNtCslJiobkLta79_5alloc2rc2RcINtBJ_4CellNtNtCsdGrGZaRBwMb_3syn5parse10UnexpectedEEEEEB2b_, symObjAddr: 0x50, symBinAddr: 0x9BAB0, symSize: 0x20 }
  - { offset: 0x11B552, size: 0x8, addend: 0x0, symName: __RINvNtCsieiGu2EXtoJ_4core3ptr13drop_in_placeINtNtB4_4cell10UnsafeCellINtNtCslJiobkLta79_5alloc3vec3VecReEEECsdGrGZaRBwMb_3syn, symObjAddr: 0x70, symBinAddr: 0x9BAD0, symSize: 0x20 }
  - { offset: 0x11B581, size: 0x8, addend: 0x0, symName: __RINvNtCsieiGu2EXtoJ_4core3ptr13drop_in_placeINtNtB4_4cell10UnsafeCellNtNtCsdGrGZaRBwMb_3syn5parse10UnexpectedEEB19_, symObjAddr: 0x90, symBinAddr: 0x9BAF0, symSize: 0x20 }
  - { offset: 0x11B5B0, size: 0x8, addend: 0x0, symName: __RINvNtCsieiGu2EXtoJ_4core3ptr13drop_in_placeINtNtB4_4cell4CellINtNtB4_6option6OptionINtNtCslJiobkLta79_5alloc2rc2RcIBH_NtNtCsdGrGZaRBwMb_3syn5parse10UnexpectedEEEEEB1X_, symObjAddr: 0xB0, symBinAddr: 0x9BB10, symSize: 0x20 }
  - { offset: 0x11B5DF, size: 0x8, addend: 0x0, symName: __RINvNtCsieiGu2EXtoJ_4core3ptr13drop_in_placeINtNtB4_4cell4CellNtNtCsdGrGZaRBwMb_3syn5parse10UnexpectedEEB12_, symObjAddr: 0xD0, symBinAddr: 0x9BB30, symSize: 0x20 }
  - { offset: 0x11B60E, size: 0x8, addend: 0x0, symName: __RINvNtCsieiGu2EXtoJ_4core3ptr13drop_in_placeINtNtB4_4cell6RefMutINtNtCslJiobkLta79_5alloc3vec3VecReEEECsdGrGZaRBwMb_3syn, symObjAddr: 0xF0, symBinAddr: 0x9BB50, symSize: 0x20 }
  - { offset: 0x11B63D, size: 0x8, addend: 0x0, symName: __RINvNtCsieiGu2EXtoJ_4core3ptr13drop_in_placeINtNtB4_4cell7RefCellINtNtCslJiobkLta79_5alloc3vec3VecReEEECsdGrGZaRBwMb_3syn, symObjAddr: 0x110, symBinAddr: 0x9BB70, symSize: 0x20 }
  - { offset: 0x11B66C, size: 0x8, addend: 0x0, symName: __RINvNtCsieiGu2EXtoJ_4core3ptr13drop_in_placeINtNtB4_6option4ItemNtNtCsdGrGZaRBwMb_3syn4path11PathSegmentEEB14_, symObjAddr: 0x130, symBinAddr: 0x9BB90, symSize: 0x20 }
  - { offset: 0x11B69B, size: 0x8, addend: 0x0, symName: __RINvNtCsieiGu2EXtoJ_4core3ptr13drop_in_placeINtNtB4_6option6OptionINtNtCsdGrGZaRBwMb_3syn10punctuated4PairNtNtB17_4path11PathSegmentNtNtB17_5token7PathSepEEEB17_, symObjAddr: 0x150, symBinAddr: 0x9BBB0, symSize: 0x40 }
  - { offset: 0x11B6CA, size: 0x8, addend: 0x0, symName: __RINvNtCsieiGu2EXtoJ_4core3ptr13drop_in_placeINtNtB4_6option6OptionINtNtCslJiobkLta79_5alloc2rc2RcINtNtB4_4cell4CellNtNtCsdGrGZaRBwMb_3syn5parse10UnexpectedEEEEB1T_, symObjAddr: 0x190, symBinAddr: 0x9BBF0, symSize: 0x40 }
  - { offset: 0x11B6F9, size: 0x8, addend: 0x0, symName: __RINvNtCsieiGu2EXtoJ_4core3ptr13drop_in_placeINtNtB4_6option6OptionINtNtCslJiobkLta79_5alloc5boxed3BoxNtNtCsdGrGZaRBwMb_3syn2ty4TypeEEEB1F_, symObjAddr: 0x1D0, symBinAddr: 0x9BC30, symSize: 0x40 }
  - { offset: 0x11B728, size: 0x8, addend: 0x0, symName: __RINvNtCsieiGu2EXtoJ_4core3ptr13drop_in_placeINtNtB4_6option6OptionINtNtCslJiobkLta79_5alloc5boxed3BoxNtNtCsdGrGZaRBwMb_3syn2ty9BareFnArgEEEB1F_, symObjAddr: 0x210, symBinAddr: 0x9BC70, symSize: 0x40 }
  - { offset: 0x11B757, size: 0x8, addend: 0x0, symName: __RINvNtCsieiGu2EXtoJ_4core3ptr13drop_in_placeINtNtB4_6option6OptionINtNtCslJiobkLta79_5alloc5boxed3BoxNtNtCsdGrGZaRBwMb_3syn3pat3PatEEEB1F_, symObjAddr: 0x250, symBinAddr: 0x9BCB0, symSize: 0x40 }
  - { offset: 0x11B786, size: 0x8, addend: 0x0, symName: __RINvNtCsieiGu2EXtoJ_4core3ptr13drop_in_placeINtNtB4_6option6OptionINtNtCslJiobkLta79_5alloc5boxed3BoxNtNtCsdGrGZaRBwMb_3syn3pat8FieldPatEEEB1F_, symObjAddr: 0x290, symBinAddr: 0x9BCF0, symSize: 0x40 }
  - { offset: 0x11B7B5, size: 0x8, addend: 0x0, symName: __RINvNtCsieiGu2EXtoJ_4core3ptr13drop_in_placeINtNtB4_6option6OptionINtNtCslJiobkLta79_5alloc5boxed3BoxNtNtCsdGrGZaRBwMb_3syn4data5FieldEEEB1F_, symObjAddr: 0x2D0, symBinAddr: 0x9BD30, symSize: 0x40 }
  - { offset: 0x11B7E4, size: 0x8, addend: 0x0, symName: __RINvNtCsieiGu2EXtoJ_4core3ptr13drop_in_placeINtNtB4_6option6OptionINtNtCslJiobkLta79_5alloc5boxed3BoxNtNtCsdGrGZaRBwMb_3syn4data7VariantEEEB1F_, symObjAddr: 0x310, symBinAddr: 0x9BD70, symSize: 0x40 }
  - { offset: 0x11B813, size: 0x8, addend: 0x0, symName: __RINvNtCsieiGu2EXtoJ_4core3ptr13drop_in_placeINtNtB4_6option6OptionINtNtCslJiobkLta79_5alloc5boxed3BoxNtNtCsdGrGZaRBwMb_3syn4expr10FieldValueEEEB1F_, symObjAddr: 0x350, symBinAddr: 0x9BDB0, symSize: 0x40 }
  - { offset: 0x11B842, size: 0x8, addend: 0x0, symName: __RINvNtCsieiGu2EXtoJ_4core3ptr13drop_in_placeINtNtB4_6option6OptionINtNtCslJiobkLta79_5alloc5boxed3BoxNtNtCsdGrGZaRBwMb_3syn4expr4ExprEEEB1F_, symObjAddr: 0x390, symBinAddr: 0x9BDF0, symSize: 0x40 }
