---
triple:          'x86_64-apple-darwin'
binary-path:     '/Users/kema/git/rust-serv/target/debug/build/cranelift-codegen-f87ccc5030a9aead/build_script_build-f87ccc5030a9aead'
relocations:
  - { offset: 0x1E, size: 0x8, addend: 0x0, symName: __RINvMNtCsieiGu2EXtoJ_4core3stre5splitcECs21pnhi4BuMk_18build_script_build, symObjAddr: 0x0, symBinAddr: 0x100000B90, symSize: 0xB0 }
  - { offset: 0x55, size: 0x8, addend: 0x0, symName: __RNCINvNtCsHUR1vrdMJt_3std2rt10lang_startuE0Cs21pnhi4BuMk_18build_script_build, symObjAddr: 0x2230, symBinAddr: 0x100002DC0, symSize: 0x30 }
  - { offset: 0xBF, size: 0x8, addend: 0x0, symName: __RINvNtCsHUR1vrdMJt_3std2rt10lang_startuECs21pnhi4BuMk_18build_script_build, symObjAddr: 0x1A70, symBinAddr: 0x100002600, symSize: 0x40 }
  - { offset: 0x49A, size: 0x8, addend: 0x0, symName: __RNvYNtNtCsHUR1vrdMJt_3std7process10ChildStdinNtNtB6_2io5Write9write_allCs21pnhi4BuMk_18build_script_build, symObjAddr: 0x4B20, symBinAddr: 0x1000056A0, symSize: 0x2E0 }
  - { offset: 0x685, size: 0x8, addend: 0x0, symName: __RNvYNtNtCsHUR1vrdMJt_3std7process11ChildStdoutNtNtB6_2io4Read14read_to_stringCs21pnhi4BuMk_18build_script_build, symObjAddr: 0x4E00, symBinAddr: 0x100005980, symSize: 0x40 }
  - { offset: 0x81F, size: 0x8, addend: 0x0, symName: __RNvXs3_NtNtCsHUR1vrdMJt_3std3ffi6os_strNtB5_8OsStringINtNtNtCsieiGu2EXtoJ_4core3ops5index5IndexNtNtBU_5range9RangeFullE5indexCs21pnhi4BuMk_18build_script_build, symObjAddr: 0x39E0, symBinAddr: 0x100004560, symSize: 0x60 }
  - { offset: 0x92E, size: 0x8, addend: 0x0, symName: __RNvXsW_NtNtCsHUR1vrdMJt_3std3ffi6os_streINtNtCsieiGu2EXtoJ_4core7convert5AsRefNtB5_5OsStrE6as_refCs21pnhi4BuMk_18build_script_build, symObjAddr: 0x3F00, symBinAddr: 0x100004A80, symSize: 0x20 }
  - { offset: 0x962, size: 0x8, addend: 0x0, symName: __RNvXsX_NtNtCsHUR1vrdMJt_3std3ffi6os_strNtNtCslJiobkLta79_5alloc6string6StringINtNtCsieiGu2EXtoJ_4core7convert5AsRefNtB5_5OsStrE6as_refCs21pnhi4BuMk_18build_script_build, symObjAddr: 0x3F20, symBinAddr: 0x100004AA0, symSize: 0x70 }
  - { offset: 0xF3D, size: 0x8, addend: 0x0, symName: __RNvXsZ_NtCsHUR1vrdMJt_3std7processuNtB5_11Termination6reportCs21pnhi4BuMk_18build_script_build, symObjAddr: 0x3FB0, symBinAddr: 0x100004B30, symSize: 0x10 }
  - { offset: 0x10F0, size: 0x8, addend: 0x0, symName: __RNvXsH_NtCsHUR1vrdMJt_3std4pathNtB5_7PathBufNtNtNtCsieiGu2EXtoJ_4core3ops5deref5Deref5derefCs21pnhi4BuMk_18build_script_build, symObjAddr: 0x3ED0, symBinAddr: 0x100004A50, symSize: 0x30 }
  - { offset: 0x117E, size: 0x8, addend: 0x0, symName: __RNvXs18_NtCsHUR1vrdMJt_3std4pathNtB6_4PathINtNtCsieiGu2EXtoJ_4core7convert5AsRefNtNtNtB8_3ffi6os_str5OsStrE6as_refCs21pnhi4BuMk_18build_script_build, symObjAddr: 0x3430, symBinAddr: 0x100003FB0, symSize: 0x20 }
  - { offset: 0x11B2, size: 0x8, addend: 0x0, symName: __RNvXs1q_NtCsHUR1vrdMJt_3std4pathNtNtCslJiobkLta79_5alloc6string6StringINtNtCsieiGu2EXtoJ_4core7convert5AsRefNtB6_4PathE6as_refCs21pnhi4BuMk_18build_script_build, symObjAddr: 0x37D0, symBinAddr: 0x100004350, symSize: 0x20 }
  - { offset: 0x1204, size: 0x8, addend: 0x0, symName: __RNvXs1r_NtCsHUR1vrdMJt_3std4pathNtB6_7PathBufINtNtCsieiGu2EXtoJ_4core7convert5AsRefNtB6_4PathE6as_refCs21pnhi4BuMk_18build_script_build, symObjAddr: 0x37F0, symBinAddr: 0x100004370, symSize: 0x30 }
  - { offset: 0x12F9, size: 0x8, addend: 0x0, symName: __RINvNtCsHUR1vrdMJt_3std2fs5writeNtNtB4_4path7PathBufNtNtCslJiobkLta79_5alloc6string6StringECs21pnhi4BuMk_18build_script_build, symObjAddr: 0x1900, symBinAddr: 0x100002490, symSize: 0xC0 }
  - { offset: 0x134A, size: 0x8, addend: 0x0, symName: __RINvNtCsHUR1vrdMJt_3std2fs5writeRNtNtB4_4path7PathBufNtNtCslJiobkLta79_5alloc6string6StringECs21pnhi4BuMk_18build_script_build, symObjAddr: 0x19C0, symBinAddr: 0x100002550, symSize: 0xB0 }
  - { offset: 0x13A0, size: 0x8, addend: 0x0, symName: __RINvNtCsHUR1vrdMJt_3std3env3varNtNtCslJiobkLta79_5alloc6string6StringECs21pnhi4BuMk_18build_script_build, symObjAddr: 0x1AB0, symBinAddr: 0x100002640, symSize: 0x80 }
  - { offset: 0x13D6, size: 0x8, addend: 0x0, symName: __RINvNtCsHUR1vrdMJt_3std3env3varReECs21pnhi4BuMk_18build_script_build, symObjAddr: 0x1B30, symBinAddr: 0x1000026C0, symSize: 0x60 }
  - { offset: 0x1410, size: 0x8, addend: 0x0, symName: __RNvXsk_NtCsHUR1vrdMJt_3std3envNtB5_8VarErrorNtNtCsieiGu2EXtoJ_4core3fmt5Debug3fmtCs21pnhi4BuMk_18build_script_build, symObjAddr: 0x4690, symBinAddr: 0x100005210, symSize: 0x90 }
  - { offset: 0x1ADE, size: 0x8, addend: 0x0, symName: __RNvXs_NtCslJiobkLta79_5alloc5allocNtB4_6GlobalNtNtCsieiGu2EXtoJ_4core5alloc9Allocator10deallocateCs21pnhi4BuMk_18build_script_build, symObjAddr: 0x4040, symBinAddr: 0x100004BC0, symSize: 0x70 }
  - { offset: 0x1BA7, size: 0x8, addend: 0x0, symName: __RNvNtCslJiobkLta79_5alloc5alloc15exchange_mallocCs21pnhi4BuMk_18build_script_build, symObjAddr: 0x2CE0, symBinAddr: 0x100003860, symSize: 0xA0 }
  - { offset: 0x1C43, size: 0x8, addend: 0x0, symName: __RNvXs1_NtCslJiobkLta79_5alloc5allocNtB5_6GlobalNtNtCsieiGu2EXtoJ_4core5clone5Clone5cloneCs21pnhi4BuMk_18build_script_build, symObjAddr: 0x3590, symBinAddr: 0x100004110, symSize: 0x10 }
  - { offset: 0x21E9, size: 0x8, addend: 0x0, symName: __RNvXsh_NtNtCslJiobkLta79_5alloc5boxed7convertINtB7_3BoxDNtNtCsieiGu2EXtoJ_4core5error5ErrorNtNtBW_6marker4SyncNtB1t_4SendEL_EINtNtBW_7convert4FromNtNtB9_6string6StringE4fromCs21pnhi4BuMk_18build_script_build, symObjAddr: 0x4600, symBinAddr: 0x100005180, symSize: 0x90 }
  - { offset: 0x223C, size: 0x8, addend: 0x0, symName: __RNvXsf_NtNtCslJiobkLta79_5alloc5boxed7convertINtB7_3BoxDNtNtCsieiGu2EXtoJ_4core5error5ErrorEL_EINtNtBW_7convert4FromNtNtNtCsHUR1vrdMJt_3std2io5error5ErrorE4fromCs21pnhi4BuMk_18build_script_build, symObjAddr: 0x45A0, symBinAddr: 0x100005120, symSize: 0x60 }
  - { offset: 0x2298, size: 0x8, addend: 0x0, symName: __RNvXs6_NtCslJiobkLta79_5alloc5boxedINtB5_3BoxDINtNtNtCsieiGu2EXtoJ_4core3ops8function5FnMutuEp6OutputINtNtBP_6result6ResultuNtNtNtCsHUR1vrdMJt_3std2io5error5ErrorENtNtBP_6marker4SyncNtB2D_4SendEL_ENtNtBN_4drop4Drop4dropCs21pnhi4BuMk_18build_script_build, symObjAddr: 0x3A40, symBinAddr: 0x1000045C0, symSize: 0xC0 }
  - { offset: 0x23D5, size: 0x8, addend: 0x0, symName: __RNvXs6_NtCslJiobkLta79_5alloc5boxedINtB5_3BoxDNtNtCsieiGu2EXtoJ_4core5error5ErrorEL_ENtNtNtBM_3ops4drop4Drop4dropCs21pnhi4BuMk_18build_script_build, symObjAddr: 0x3B00, symBinAddr: 0x100004680, symSize: 0xC0 }
  - { offset: 0x2512, size: 0x8, addend: 0x0, symName: __RNvXs6_NtCslJiobkLta79_5alloc5boxedINtB5_3BoxNtNtCsfqjmhE9NbIf_22cranelift_codegen_meta5error10ErrorInnerENtNtNtCsieiGu2EXtoJ_4core3ops4drop4Drop4dropCs21pnhi4BuMk_18build_script_build, symObjAddr: 0x3BC0, symBinAddr: 0x100004740, symSize: 0xB0 }
  - { offset: 0x264D, size: 0x8, addend: 0x0, symName: __RNvXs6_NtCslJiobkLta79_5alloc5boxedINtB5_3BoxShENtNtNtCsieiGu2EXtoJ_4core3ops4drop4Drop4dropCs21pnhi4BuMk_18build_script_build, symObjAddr: 0x3C70, symBinAddr: 0x1000047F0, symSize: 0xC0 }
  - { offset: 0x278A, size: 0x8, addend: 0x0, symName: __RNvXs6_NtCslJiobkLta79_5alloc5boxedINtB5_3BoxSmENtNtNtCsieiGu2EXtoJ_4core3ops4drop4Drop4dropCs21pnhi4BuMk_18build_script_build, symObjAddr: 0x3D30, symBinAddr: 0x1000048B0, symSize: 0xC0 }
  - { offset: 0x2921, size: 0x8, addend: 0x0, symName: __RNvXsk_NtCslJiobkLta79_5alloc5boxedINtB5_3BoxDNtNtCsieiGu2EXtoJ_4core5error5ErrorEL_ENtNtBM_3fmt7Display3fmtCs21pnhi4BuMk_18build_script_build, symObjAddr: 0x4720, symBinAddr: 0x1000052A0, symSize: 0x30 }
  - { offset: 0x2A31, size: 0x8, addend: 0x0, symName: __RINvXs5_NtCslJiobkLta79_5alloc6stringNtB6_6StringINtNtNtNtCsieiGu2EXtoJ_4core4iter6traits7collect12FromIteratorcE9from_iterINtNtNtBS_8adapters4take4TakeNtNtNtBU_3str4iter5CharsEECs21pnhi4BuMk_18build_script_build, symObjAddr: 0x1D60, symBinAddr: 0x1000028F0, symSize: 0xA0 }
  - { offset: 0x2AB0, size: 0x8, addend: 0x0, symName: __RINvXsb_NtCslJiobkLta79_5alloc6stringNtB6_6StringINtNtNtNtCsieiGu2EXtoJ_4core4iter6traits7collect6ExtendcE6extendINtNtNtBS_8adapters4take4TakeNtNtNtBU_3str4iter5CharsEECs21pnhi4BuMk_18build_script_build, symObjAddr: 0x1E00, symBinAddr: 0x100002990, symSize: 0xB0 }
  - { offset: 0x2B53, size: 0x8, addend: 0x0, symName: __RNCINvXsb_NtCslJiobkLta79_5alloc6stringNtB8_6StringINtNtNtNtCsieiGu2EXtoJ_4core4iter6traits7collect6ExtendcE6extendINtNtNtBU_8adapters4take4TakeNtNtNtBW_3str4iter5CharsEE0Cs21pnhi4BuMk_18build_script_build, symObjAddr: 0x2260, symBinAddr: 0x100002DF0, symSize: 0x30 }
  - { offset: 0x2BD2, size: 0x8, addend: 0x0, symName: __RNvXs1g_NtCslJiobkLta79_5alloc6stringNtB6_13FromUtf8ErrorNtNtCsieiGu2EXtoJ_4core3fmt5Debug3fmtCs21pnhi4BuMk_18build_script_build, symObjAddr: 0x3610, symBinAddr: 0x100004190, symSize: 0x90 }
  - { offset: 0x2C4F, size: 0x8, addend: 0x0, symName: __RNvXs1l_NtCslJiobkLta79_5alloc6stringNtB6_6StringINtNtCsieiGu2EXtoJ_4core3cmp9PartialEqeE2neCs21pnhi4BuMk_18build_script_build, symObjAddr: 0x36A0, symBinAddr: 0x100004220, symSize: 0x130 }
  - { offset: 0x2F58, size: 0x8, addend: 0x0, symName: __RNvXsE_NtCslJiobkLta79_5alloc6stringNtB5_6StringINtNtCsieiGu2EXtoJ_4core7convert5AsRefShE6as_refCs21pnhi4BuMk_18build_script_build, symObjAddr: 0x3EB0, symBinAddr: 0x100004A30, symSize: 0x20 }
  - { offset: 0x2FE6, size: 0x8, addend: 0x0, symName: __RNvXss_NtCslJiobkLta79_5alloc6stringNtB5_6StringNtNtNtCsieiGu2EXtoJ_4core3ops5deref5Deref5derefCs21pnhi4BuMk_18build_script_build, symObjAddr: 0x47C0, symBinAddr: 0x100005340, symSize: 0x20 }
  - { offset: 0x301A, size: 0x8, addend: 0x0, symName: __RNvXsm_NtCslJiobkLta79_5alloc6stringNtB5_6StringNtNtCsieiGu2EXtoJ_4core3fmt5Debug3fmtCs21pnhi4BuMk_18build_script_build, symObjAddr: 0x4750, symBinAddr: 0x1000052D0, symSize: 0x70 }
  - { offset: 0x32F8, size: 0x8, addend: 0x0, symName: __RNvXNtNtNtCslJiobkLta79_5alloc11collections5btree3mapINtB2_8BTreeMapNtNtNtCsHUR1vrdMJt_3std3ffi6os_str8OsStringINtNtCsieiGu2EXtoJ_4core6option6OptionB14_EENtNtNtB1Q_3ops4drop4Drop4dropCs21pnhi4BuMk_18build_script_build, symObjAddr: 0x3380, symBinAddr: 0x100003F00, symSize: 0x40 }
  - { offset: 0x3386, size: 0x8, addend: 0x0, symName: __RNvXNvXsw_NtNtNtCslJiobkLta79_5alloc11collections5btree3mapINtB8_8IntoIterpppENtNtNtCsieiGu2EXtoJ_4core3ops4drop4Drop4dropINtB2_9DropGuardNtNtNtCsHUR1vrdMJt_3std3ffi6os_str8OsStringINtNtB1k_6option6OptionB2c_ENtNtBe_5alloc6GlobalEB1e_4dropCs21pnhi4BuMk_18build_script_build, symObjAddr: 0x33C0, symBinAddr: 0x100003F40, symSize: 0x70 }
  - { offset: 0x341B, size: 0x8, addend: 0x0, symName: __RNvXsw_NtNtNtCslJiobkLta79_5alloc11collections5btree3mapINtB5_8IntoIterNtNtNtCsHUR1vrdMJt_3std3ffi6os_str8OsStringINtNtCsieiGu2EXtoJ_4core6option6OptionB17_EENtNtNtB1T_3ops4drop4Drop4dropCs21pnhi4BuMk_18build_script_build, symObjAddr: 0x4A80, symBinAddr: 0x100005600, symSize: 0xA0 }
  - { offset: 0x3492, size: 0x8, addend: 0x0, symName: __RNvXsv_NtNtNtCslJiobkLta79_5alloc11collections5btree3mapINtB5_8BTreeMapNtNtNtCsHUR1vrdMJt_3std3ffi6os_str8OsStringINtNtCsieiGu2EXtoJ_4core6option6OptionB17_EENtNtNtNtB1T_4iter6traits7collect12IntoIterator9into_iterCs21pnhi4BuMk_18build_script_build, symObjAddr: 0x47E0, symBinAddr: 0x100005360, symSize: 0x2A0 }
  - { offset: 0x38B1, size: 0x8, addend: 0x0, symName: __RINvNtNtNtCslJiobkLta79_5alloc11collections5btree3mem7replaceINtNtB4_4node6HandleINtB10_7NodeRefNtNtB10_6marker5DyingNtNtNtCsHUR1vrdMJt_3std3ffi6os_str8OsStringINtNtCsieiGu2EXtoJ_4core6option6OptionB1R_ENtB1y_4LeafENtB1y_4EdgeEIBY_IB1i_B1w_B1R_B2y_NtB1y_14LeafOrInternalENtB1y_2KVENCINvMsm_NtB4_8navigateBX_27deallocating_next_uncheckedNtNtB8_5alloc6GlobalE0ECs21pnhi4BuMk_18build_script_build, symObjAddr: 0x1C50, symBinAddr: 0x1000027E0, symSize: 0x110 }
  - { offset: 0x3F24, size: 0x8, addend: 0x0, symName: __RNvNvMs1_NtNtCsieiGu2EXtoJ_4core3ptr8non_nullINtB7_7NonNullpE13new_unchecked18precondition_checkCs21pnhi4BuMk_18build_script_build, symObjAddr: 0x3080, symBinAddr: 0x100003C00, symSize: 0x90 }
  - { offset: 0x4BF3, size: 0x8, addend: 0x0, symName: __RNvXs8_NtNtCsieiGu2EXtoJ_4core3str5errorNtB5_9Utf8ErrorNtNtB9_3fmt5Debug3fmtCs21pnhi4BuMk_18build_script_build, symObjAddr: 0x3E20, symBinAddr: 0x1000049A0, symSize: 0x90 }
  - { offset: 0x4C34, size: 0x8, addend: 0x0, symName: __RINvMNtCsieiGu2EXtoJ_4core3stre5splitcECs21pnhi4BuMk_18build_script_build, symObjAddr: 0x0, symBinAddr: 0x100000B90, symSize: 0xB0 }
  - { offset: 0x4C7A, size: 0x8, addend: 0x0, symName: __RNvMNtCsieiGu2EXtoJ_4core3stre4trimCs21pnhi4BuMk_18build_script_build, symObjAddr: 0x2310, symBinAddr: 0x100002EA0, symSize: 0x20 }
  - { offset: 0x4CA8, size: 0x8, addend: 0x0, symName: __RNvMNtCsieiGu2EXtoJ_4core3stre5charsCs21pnhi4BuMk_18build_script_build, symObjAddr: 0x2330, symBinAddr: 0x100002EC0, symSize: 0x20 }
  - { offset: 0x4DF6, size: 0x8, addend: 0x0, symName: __RNvNvXs5_NtNtCsieiGu2EXtoJ_4core3str6traitsINtNtNtBb_3ops5range5RangejEINtNtNtBb_5slice5index10SliceIndexeE13get_unchecked18precondition_checkCs21pnhi4BuMk_18build_script_build, symObjAddr: 0x3110, symBinAddr: 0x100003C90, symSize: 0xC0 }
  - { offset: 0x4F3C, size: 0x8, addend: 0x0, symName: __RNvXNtNtCsieiGu2EXtoJ_4core3str4iterNtB2_5CharsNtNtNtNtB6_4iter6traits8iterator8Iterator4nextCs21pnhi4BuMk_18build_script_build, symObjAddr: 0x3240, symBinAddr: 0x100003DC0, symSize: 0x60 }
  - { offset: 0x4FD7, size: 0x8, addend: 0x0, symName: __RNvXNtNtCsieiGu2EXtoJ_4core3str4iterNtB2_5CharsNtNtNtNtB6_4iter6traits8iterator8Iterator9size_hintCs21pnhi4BuMk_18build_script_build, symObjAddr: 0x32A0, symBinAddr: 0x100003E20, symSize: 0x90 }
  - { offset: 0x50A6, size: 0x8, addend: 0x0, symName: __RNvXsX_NtNtCsieiGu2EXtoJ_4core3str4iterINtB5_5SplitcENtNtNtNtB9_4iter6traits8iterator8Iterator4nextCs21pnhi4BuMk_18build_script_build, symObjAddr: 0x3F90, symBinAddr: 0x100004B10, symSize: 0x20 }
  - { offset: 0x5183, size: 0x8, addend: 0x0, symName: __RNvXs2_NtNtCsieiGu2EXtoJ_4core3str7patterncNtB5_7Pattern13into_searcherCs21pnhi4BuMk_18build_script_build, symObjAddr: 0x38B0, symBinAddr: 0x100004430, symSize: 0x120 }
  - { offset: 0x52A4, size: 0x8, addend: 0x0, symName: __RNvXs_NtNtCsieiGu2EXtoJ_4core3str7patternNtB4_12CharSearcherNtB4_8Searcher10next_matchCs21pnhi4BuMk_18build_script_build, symObjAddr: 0x40B0, symBinAddr: 0x100004C30, symSize: 0x4A0 }
  - { offset: 0x5849, size: 0x8, addend: 0x0, symName: __RNvXs_NtNtCsieiGu2EXtoJ_4core3str7patternNtB4_12CharSearcherNtB4_8Searcher8haystackCs21pnhi4BuMk_18build_script_build, symObjAddr: 0x4550, symBinAddr: 0x1000050D0, symSize: 0x20 }
  - { offset: 0x6880, size: 0x8, addend: 0x0, symName: __RNvXs19_NtCsieiGu2EXtoJ_4core3fmtRNtNtNtB8_3str5error9Utf8ErrorNtB6_5Debug3fmtCs21pnhi4BuMk_18build_script_build, symObjAddr: 0x3450, symBinAddr: 0x100003FD0, symSize: 0x20 }
  - { offset: 0x68C6, size: 0x8, addend: 0x0, symName: __RNvXs19_NtCsieiGu2EXtoJ_4core3fmtRNtNtNtCsHUR1vrdMJt_3std3ffi6os_str8OsStringNtB6_5Debug3fmtCs21pnhi4BuMk_18build_script_build, symObjAddr: 0x3470, symBinAddr: 0x100003FF0, symSize: 0x20 }
  - { offset: 0x6917, size: 0x8, addend: 0x0, symName: __RNvXsZ_NtNtCsieiGu2EXtoJ_4core3fmt3numjNtB7_5Debug3fmtCs21pnhi4BuMk_18build_script_build, symObjAddr: 0x3FC0, symBinAddr: 0x100004B40, symSize: 0x80 }
  - { offset: 0x7327, size: 0x8, addend: 0x0, symName: __RINvNtNtNtCsieiGu2EXtoJ_4core4iter8adapters5chain17and_then_or_clearINtNtNtB8_5slice4iter4IterNtNtCsHUR1vrdMJt_3std4path7PathBufERB1u_NvYB14_NtNtNtB6_6traits8iterator8Iterator4nextECs21pnhi4BuMk_18build_script_build, symObjAddr: 0x1B90, symBinAddr: 0x100002720, symSize: 0xC0 }
  - { offset: 0x7479, size: 0x8, addend: 0x0, symName: __RNCNvXs_NtNtNtCsieiGu2EXtoJ_4core4iter8adapters5chainINtB6_5ChainINtNtNtBc_5slice4iter4IterNtNtCsHUR1vrdMJt_3std4path7PathBufEB11_ENtNtNtBa_6traits8iterator8Iterator4next0Cs21pnhi4BuMk_18build_script_build, symObjAddr: 0x2290, symBinAddr: 0x100002E20, symSize: 0x80 }
  - { offset: 0x7552, size: 0x8, addend: 0x0, symName: __RNvXs_NtNtNtCsieiGu2EXtoJ_4core4iter8adapters5chainINtB4_5ChainINtNtNtBa_5slice4iter4IterNtNtCsHUR1vrdMJt_3std4path7PathBufEBZ_ENtNtNtB8_6traits8iterator8Iterator4nextCs21pnhi4BuMk_18build_script_build, symObjAddr: 0x4570, symBinAddr: 0x1000050F0, symSize: 0x30 }
  - { offset: 0x759C, size: 0x8, addend: 0x0, symName: __RNvXs1_NtNtNtCsieiGu2EXtoJ_4core4iter8adapters6filterINtB5_6FilterINtNtB7_6cloned6ClonedINtNtNtBb_5slice4iter4IterNtNtCsfqjmhE9NbIf_22cranelift_codegen_meta3isa3IsaEENCNvCs21pnhi4BuMk_18build_script_build4main0ENtNtNtB9_6traits8iterator8Iterator4nextB2I_, symObjAddr: 0x35A0, symBinAddr: 0x100004120, symSize: 0x20 }
  - { offset: 0x75DA, size: 0x8, addend: 0x0, symName: __RNvXs1_NtNtNtCsieiGu2EXtoJ_4core4iter8adapters6filterINtB5_6FilterINtNtB7_6cloned6ClonedINtNtNtBb_5slice4iter4IterNtNtCsfqjmhE9NbIf_22cranelift_codegen_meta3isa3IsaEENCNvCs21pnhi4BuMk_18build_script_build4main0ENtNtNtB9_6traits8iterator8Iterator9size_hintB2I_, symObjAddr: 0x35C0, symBinAddr: 0x100004140, symSize: 0x50 }
  - { offset: 0x775F, size: 0x8, addend: 0x0, symName: __RINvYINtNtNtCsieiGu2EXtoJ_4core5slice4iter4IterNtNtCsfqjmhE9NbIf_22cranelift_codegen_meta3isa3IsaENtNtNtNtBa_4iter6traits8iterator8Iterator8try_folduNCINvNtNtB1E_8adapters6cloned14clone_try_foldBJ_uINtNtNtBa_3ops12control_flow11ControlFlowBJ_ENCINvNvB1y_4find5checkBJ_QNCNvCs21pnhi4BuMk_18build_script_build4main0E0E0B3a_EB4n_, symObjAddr: 0x1EB0, symBinAddr: 0x100002A40, symSize: 0x100 }
  - { offset: 0x7812, size: 0x8, addend: 0x0, symName: __RINvYINtNtNtNtCsieiGu2EXtoJ_4core4iter8adapters6filter6FilterINtNtB8_6cloned6ClonedINtNtNtBc_5slice4iter4IterNtNtCsfqjmhE9NbIf_22cranelift_codegen_meta3isa3IsaEENCNvCs21pnhi4BuMk_18build_script_build4main0ENtNtNtBa_6traits8iterator8Iterator7collectINtNtCslJiobkLta79_5alloc3vec3VecB1J_EEB2D_, symObjAddr: 0x1FB0, symBinAddr: 0x100002B40, symSize: 0x70 }
  - { offset: 0x78A8, size: 0x8, addend: 0x0, symName: __RINvYNtNtNtCsieiGu2EXtoJ_4core3str4iter5CharsNtNtNtNtB9_4iter6traits8iterator8Iterator8try_foldjNCINvNvXs7_NtNtBN_8adapters4takeINtB1H_4TakepENtB1H_8SpecTake13spec_for_each5checkcNCINvXsb_NtCslJiobkLta79_5alloc6stringNtB30_6StringINtNtBL_7collect6ExtendcE6extendIB23_B3_EE0E0INtNtB9_6option6OptionjEECs21pnhi4BuMk_18build_script_build, symObjAddr: 0x2020, symBinAddr: 0x100002BB0, symSize: 0x180 }
  - { offset: 0x795C, size: 0x8, addend: 0x0, symName: __RNvYNtNtNtCsieiGu2EXtoJ_4core3str4iter5CharsNtNtNtNtB8_4iter6traits8iterator8Iterator4takeCs21pnhi4BuMk_18build_script_build, symObjAddr: 0x4E40, symBinAddr: 0x1000059C0, symSize: 0x20 }
  - { offset: 0x79E2, size: 0x8, addend: 0x0, symName: __RNvXNtNtNtCsieiGu2EXtoJ_4core4iter6traits7collectINtNtNtB6_8adapters5chain5ChainINtNtNtB8_5slice4iter4IterNtNtCsHUR1vrdMJt_3std4path7PathBufEB1g_ENtB2_12IntoIterator9into_iterCs21pnhi4BuMk_18build_script_build, symObjAddr: 0x3330, symBinAddr: 0x100003EB0, symSize: 0x30 }
  - { offset: 0x7A19, size: 0x8, addend: 0x0, symName: __RNvXNtNtNtCsieiGu2EXtoJ_4core4iter6traits7collectINtNtNtB6_8adapters6filter6FilterINtNtBQ_6cloned6ClonedINtNtNtB8_5slice4iter4IterNtNtCsfqjmhE9NbIf_22cranelift_codegen_meta3isa3IsaEENCNvCs21pnhi4BuMk_18build_script_build4main0ENtB2_12IntoIterator9into_iterB2Y_, symObjAddr: 0x3360, symBinAddr: 0x100003EE0, symSize: 0x20 }
  - { offset: 0x7B34, size: 0x8, addend: 0x0, symName: __RNvXs2E_NtNtCsieiGu2EXtoJ_4core5slice4iterINtB6_4IterNtNtCsHUR1vrdMJt_3std4path7PathBufENtNtNtNtBa_4iter6traits8iterator8Iterator4nextCs21pnhi4BuMk_18build_script_build, symObjAddr: 0x3820, symBinAddr: 0x1000043A0, symSize: 0x90 }
  - { offset: 0x7F62, size: 0x8, addend: 0x0, symName: __RNvNtNtCsieiGu2EXtoJ_4core5slice6memchr6memchrCs21pnhi4BuMk_18build_script_build, symObjAddr: 0x2FA0, symBinAddr: 0x100003B20, symSize: 0xE0 }
  - { offset: 0x897D, size: 0x8, addend: 0x0, symName: __RNvXNtCsieiGu2EXtoJ_4core7convertRNtNtCsHUR1vrdMJt_3std4path4PathINtB2_5AsRefNtNtNtBA_3ffi6os_str5OsStrE6as_refCs21pnhi4BuMk_18build_script_build, symObjAddr: 0x31D0, symBinAddr: 0x100003D50, symSize: 0x30 }
  - { offset: 0x89BD, size: 0x8, addend: 0x0, symName: __RNvXNtCsieiGu2EXtoJ_4core7convertRNtNtCsHUR1vrdMJt_3std4path7PathBufINtB2_5AsRefNtBy_4PathE6as_refCs21pnhi4BuMk_18build_script_build, symObjAddr: 0x3200, symBinAddr: 0x100003D80, symSize: 0x20 }
  - { offset: 0x89FD, size: 0x8, addend: 0x0, symName: __RNvXNtCsieiGu2EXtoJ_4core7convertRRNtNtCsHUR1vrdMJt_3std4path4PathINtB2_5AsRefBx_E6as_refCs21pnhi4BuMk_18build_script_build, symObjAddr: 0x3220, symBinAddr: 0x100003DA0, symSize: 0x20 }
  - { offset: 0x8A43, size: 0x8, addend: 0x0, symName: __RNvXs1_NtCsieiGu2EXtoJ_4core7convertNtNtCsHUR1vrdMJt_3std7process5StdioINtB5_4IntoBy_E4intoCs21pnhi4BuMk_18build_script_build, symObjAddr: 0x3560, symBinAddr: 0x1000040E0, symSize: 0x20 }
  - { offset: 0x8A83, size: 0x8, addend: 0x0, symName: __RNvXs1_NtCsieiGu2EXtoJ_4core7convertNtNtCslJiobkLta79_5alloc6string6StringINtB5_4IntoINtNtBC_5boxed3BoxDNtNtB7_5error5ErrorNtNtB7_6marker4SyncNtB1Z_4SendEL_EE4intoCs21pnhi4BuMk_18build_script_build, symObjAddr: 0x3580, symBinAddr: 0x100004100, symSize: 0x10 }
  - { offset: 0x8D72, size: 0x8, addend: 0x0, symName: __RNvNtNtCsieiGu2EXtoJ_4core4char7methods15encode_utf8_rawCs21pnhi4BuMk_18build_script_build, symObjAddr: 0x2D80, symBinAddr: 0x100003900, symSize: 0xE0 }
  - { offset: 0x8E72, size: 0x8, addend: 0x0, symName: __RNvNtNtCsieiGu2EXtoJ_4core4char7methods25encode_utf8_raw_uncheckedCs21pnhi4BuMk_18build_script_build, symObjAddr: 0x2E60, symBinAddr: 0x1000039E0, symSize: 0x140 }
  - { offset: 0x90C7, size: 0x8, addend: 0x0, symName: __RNvXs7_NtNtCsieiGu2EXtoJ_4core3cmp5implsRNtNtCslJiobkLta79_5alloc6string6StringINtB7_9PartialEqReE2neCs21pnhi4BuMk_18build_script_build, symObjAddr: 0x3DF0, symBinAddr: 0x100004970, symSize: 0x30 }
  - { offset: 0x91A8, size: 0x8, addend: 0x0, symName: __RNvYNtNvXsh_NtNtCslJiobkLta79_5alloc5boxed7convertINtBc_3BoxDNtNtCsieiGu2EXtoJ_4core5error5ErrorNtNtB11_6marker4SyncNtB1y_4SendEL_EINtNtB11_7convert4FromNtNtBe_6string6StringE4from11StringErrorBX_11descriptionCs21pnhi4BuMk_18build_script_build, symObjAddr: 0x4E60, symBinAddr: 0x1000059E0, symSize: 0x20 }
  - { offset: 0x91DD, size: 0x8, addend: 0x0, symName: __RNvYNtNvXsh_NtNtCslJiobkLta79_5alloc5boxed7convertINtBc_3BoxDNtNtCsieiGu2EXtoJ_4core5error5ErrorNtNtB11_6marker4SyncNtB1y_4SendEL_EINtNtB11_7convert4FromNtNtBe_6string6StringE4from11StringErrorBX_5causeCs21pnhi4BuMk_18build_script_build, symObjAddr: 0x4E80, symBinAddr: 0x100005A00, symSize: 0x20 }
  - { offset: 0x9212, size: 0x8, addend: 0x0, symName: __RNvYNtNvXsh_NtNtCslJiobkLta79_5alloc5boxed7convertINtBc_3BoxDNtNtCsieiGu2EXtoJ_4core5error5ErrorNtNtB11_6marker4SyncNtB1y_4SendEL_EINtNtB11_7convert4FromNtNtBe_6string6StringE4from11StringErrorBX_6sourceCs21pnhi4BuMk_18build_script_build, symObjAddr: 0x4EA0, symBinAddr: 0x100005A20, symSize: 0x20 }
  - { offset: 0x9247, size: 0x8, addend: 0x0, symName: __RNvYNtNvXsh_NtNtCslJiobkLta79_5alloc5boxed7convertINtBc_3BoxDNtNtCsieiGu2EXtoJ_4core5error5ErrorNtNtB11_6marker4SyncNtB1y_4SendEL_EINtNtB11_7convert4FromNtNtBe_6string6StringE4from11StringErrorBX_7provideCs21pnhi4BuMk_18build_script_build, symObjAddr: 0x4EC0, symBinAddr: 0x100005A40, symSize: 0x20 }
  - { offset: 0x9286, size: 0x8, addend: 0x0, symName: __RNvYNtNvXsh_NtNtCslJiobkLta79_5alloc5boxed7convertINtBc_3BoxDNtNtCsieiGu2EXtoJ_4core5error5ErrorNtNtB11_6marker4SyncNtB1y_4SendEL_EINtNtB11_7convert4FromNtNtBe_6string6StringE4from11StringErrorBX_7type_idCs21pnhi4BuMk_18build_script_build, symObjAddr: 0x4EE0, symBinAddr: 0x100005A60, symSize: 0x30 }
  - { offset: 0x945B, size: 0x8, addend: 0x0, symName: __RNvXs3_NtCsfqjmhE9NbIf_22cranelift_codegen_meta3isaNtB5_3IsaNtNtCsieiGu2EXtoJ_4core5clone5Clone5cloneCs21pnhi4BuMk_18build_script_build, symObjAddr: 0x39D0, symBinAddr: 0x100004550, symSize: 0x10 }
  - { offset: 0xA539, size: 0x8, addend: 0x0, symName: __RNCINvMs0_NtCs4xvdaJ1JWuv_14cranelift_isle5filesNtB8_5Files10from_pathsRNtNtCsHUR1vrdMJt_3std4path7PathBufINtNtNtNtCsieiGu2EXtoJ_4core4iter8adapters5chain5ChainINtNtNtB1P_5slice4iter4IterB18_EB2y_EE0Cs21pnhi4BuMk_18build_script_build, symObjAddr: 0x21A0, symBinAddr: 0x100002D30, symSize: 0x90 }
  - { offset: 0xA58E, size: 0x8, addend: 0x0, symName: __RNvXs1_NtCs4xvdaJ1JWuv_14cranelift_isle5filesNtB5_5FilesNtNtCsieiGu2EXtoJ_4core7default7Default7defaultCs21pnhi4BuMk_18build_script_build, symObjAddr: 0x3490, symBinAddr: 0x100004010, symSize: 0xD0 }
  - { offset: 0xA5B2, size: 0x8, addend: 0x0, symName: __RINvNtCs4xvdaJ1JWuv_14cranelift_isle7compile10from_filesRNtNtCsHUR1vrdMJt_3std4path7PathBufINtNtNtNtCsieiGu2EXtoJ_4core4iter8adapters5chain5ChainINtNtNtB1A_5slice4iter4IterBT_EB2j_EECs21pnhi4BuMk_18build_script_build, symObjAddr: 0xDB0, symBinAddr: 0x100001940, symSize: 0xB50 }
  - { offset: 0xA864, size: 0x8, addend: 0x0, symName: __RINvMNtNtCsieiGu2EXtoJ_4core3fmt2rtNtB3_8Argument11new_displayINtNtCslJiobkLta79_5alloc5boxed3BoxDNtNtB7_5error5ErrorEL_EECs21pnhi4BuMk_18build_script_build, symObjAddr: 0xB0, symBinAddr: 0x100000C40, symSize: 0x30 }
  - { offset: 0xA89C, size: 0x8, addend: 0x0, symName: __RINvMNtNtCsieiGu2EXtoJ_4core3fmt2rtNtB3_8Argument11new_displayNtNtCsHUR1vrdMJt_3std7process10ExitStatusECs21pnhi4BuMk_18build_script_build, symObjAddr: 0xE0, symBinAddr: 0x100000C70, symSize: 0x30 }
  - { offset: 0xA8D4, size: 0x8, addend: 0x0, symName: __RINvMNtNtCsieiGu2EXtoJ_4core3fmt2rtNtB3_8Argument11new_displayNtNtCsfqjmhE9NbIf_22cranelift_codegen_meta3isa3IsaECs21pnhi4BuMk_18build_script_build, symObjAddr: 0x110, symBinAddr: 0x100000CA0, symSize: 0x30 }
  - { offset: 0xA919, size: 0x8, addend: 0x0, symName: __RINvMNtNtCsieiGu2EXtoJ_4core3fmt2rtNtB3_8Argument11new_displayNtNtCsfqjmhE9NbIf_22cranelift_codegen_meta5error5ErrorECs21pnhi4BuMk_18build_script_build, symObjAddr: 0x140, symBinAddr: 0x100000CD0, symSize: 0x30 }
  - { offset: 0xA951, size: 0x8, addend: 0x0, symName: __RINvMNtNtCsieiGu2EXtoJ_4core3fmt2rtNtB3_8Argument9new_debugNtNtB7_4time8DurationECs21pnhi4BuMk_18build_script_build, symObjAddr: 0x170, symBinAddr: 0x100000D00, symSize: 0x30 }
  - { offset: 0xA996, size: 0x8, addend: 0x0, symName: __RINvMNtNtCsieiGu2EXtoJ_4core3fmt2rtNtB3_8Argument9new_debugNtNtCs4xvdaJ1JWuv_14cranelift_isle5error6ErrorsECs21pnhi4BuMk_18build_script_build, symObjAddr: 0x1A0, symBinAddr: 0x100000D30, symSize: 0x30 }
  - { offset: 0xA9CE, size: 0x8, addend: 0x0, symName: __RINvMNtNtCsieiGu2EXtoJ_4core3fmt2rtNtB3_8Argument9new_debugNtNtNtCsHUR1vrdMJt_3std2io5error5ErrorECs21pnhi4BuMk_18build_script_build, symObjAddr: 0x1D0, symBinAddr: 0x100000D60, symSize: 0x30 }
  - { offset: 0xAA31, size: 0x8, addend: 0x0, symName: __RINvMs0_NtCs4xvdaJ1JWuv_14cranelift_isle5filesNtB6_5Files10from_pathsRNtNtCsHUR1vrdMJt_3std4path7PathBufINtNtNtNtCsieiGu2EXtoJ_4core4iter8adapters5chain5ChainINtNtNtB1N_5slice4iter4IterB16_EB2w_EECs21pnhi4BuMk_18build_script_build, symObjAddr: 0x200, symBinAddr: 0x100000D90, symSize: 0x610 }
  - { offset: 0xAB85, size: 0x8, addend: 0x0, symName: __RINvMs16_NtCsHUR1vrdMJt_3std4pathNtB7_4Path12strip_prefixRRBv_ECs21pnhi4BuMk_18build_script_build, symObjAddr: 0x810, symBinAddr: 0x1000013A0, symSize: 0x80 }
  - { offset: 0xABCD, size: 0x8, addend: 0x0, symName: __RINvMs16_NtCsHUR1vrdMJt_3std4pathNtB7_4Path3newNtNtCslJiobkLta79_5alloc6string6StringECs21pnhi4BuMk_18build_script_build, symObjAddr: 0x890, symBinAddr: 0x100001420, symSize: 0x20 }
  - { offset: 0xABF9, size: 0x8, addend: 0x0, symName: __RINvMs16_NtCsHUR1vrdMJt_3std4pathNtB7_4Path3newRBv_ECs21pnhi4BuMk_18build_script_build, symObjAddr: 0x8B0, symBinAddr: 0x100001440, symSize: 0x20 }
  - { offset: 0xAC25, size: 0x8, addend: 0x0, symName: __RINvMs_NtCs4xvdaJ1JWuv_14cranelift_isle5errorNtB5_6Errors7from_ioReECs21pnhi4BuMk_18build_script_build, symObjAddr: 0x8D0, symBinAddr: 0x100001460, symSize: 0x2B0 }
  - { offset: 0xADAB, size: 0x8, addend: 0x0, symName: __RINvMsk_NtCsHUR1vrdMJt_3std7processNtB6_7Command11current_dirNtNtCslJiobkLta79_5alloc6string6StringECs21pnhi4BuMk_18build_script_build, symObjAddr: 0xB80, symBinAddr: 0x100001710, symSize: 0x90 }
  - { offset: 0xADE7, size: 0x8, addend: 0x0, symName: __RINvMsk_NtCsHUR1vrdMJt_3std7processNtB6_7Command3argReECs21pnhi4BuMk_18build_script_build, symObjAddr: 0xC10, symBinAddr: 0x1000017A0, symSize: 0x60 }
  - { offset: 0xAE22, size: 0x8, addend: 0x0, symName: __RINvMsk_NtCsHUR1vrdMJt_3std7processNtB6_7Command3newReECs21pnhi4BuMk_18build_script_build, symObjAddr: 0xC70, symBinAddr: 0x100001800, symSize: 0xA0 }
  - { offset: 0xAE4F, size: 0x8, addend: 0x0, symName: __RINvMsk_NtCsHUR1vrdMJt_3std7processNtB6_7Command5stdinNtB6_5StdioECs21pnhi4BuMk_18build_script_build, symObjAddr: 0xD10, symBinAddr: 0x1000018A0, symSize: 0x50 }
  - { offset: 0xAE8A, size: 0x8, addend: 0x0, symName: __RINvMsk_NtCsHUR1vrdMJt_3std7processNtB6_7Command6stdoutNtB6_5StdioECs21pnhi4BuMk_18build_script_build, symObjAddr: 0xD60, symBinAddr: 0x1000018F0, symSize: 0x50 }
  - { offset: 0xB2C7, size: 0x8, addend: 0x0, symName: __RNvMNtCslJiobkLta79_5alloc5allocNtB2_6Global10alloc_implCs21pnhi4BuMk_18build_script_build, symObjAddr: 0x2350, symBinAddr: 0x100002EE0, symSize: 0x290 }
  - { offset: 0xB651, size: 0x8, addend: 0x0, symName: __RNvMNtCslJiobkLta79_5alloc6stringNtB2_6String3newCs21pnhi4BuMk_18build_script_build, symObjAddr: 0x25E0, symBinAddr: 0x100003170, symSize: 0x40 }
  - { offset: 0xB824, size: 0x8, addend: 0x0, symName: __RNvMNtCslJiobkLta79_5alloc6stringNtB2_6String4pushCs21pnhi4BuMk_18build_script_build, symObjAddr: 0x2620, symBinAddr: 0x1000031B0, symSize: 0x130 }
  - { offset: 0xBAED, size: 0x8, addend: 0x0, symName: __RNvMNtCslJiobkLta79_5alloc6stringNtB2_6String6as_strCs21pnhi4BuMk_18build_script_build, symObjAddr: 0x2750, symBinAddr: 0x1000032E0, symSize: 0x60 }
  - { offset: 0xBC8B, size: 0x8, addend: 0x0, symName: __RNvMNtCslJiobkLta79_5alloc6stringNtB2_6String9from_utf8Cs21pnhi4BuMk_18build_script_build, symObjAddr: 0x27B0, symBinAddr: 0x100003340, symSize: 0x1C0 }
  - { offset: 0xBE37, size: 0x8, addend: 0x0, symName: __RNvMs16_NtCsHUR1vrdMJt_3std4pathNtB6_4Path6to_strCs21pnhi4BuMk_18build_script_build, symObjAddr: 0x2970, symBinAddr: 0x100003500, symSize: 0x80 }
  - { offset: 0xBECF, size: 0x8, addend: 0x0, symName: __RNvMs16_NtCsHUR1vrdMJt_3std4pathNtB6_4Path7displayCs21pnhi4BuMk_18build_script_build, symObjAddr: 0x29F0, symBinAddr: 0x100003580, symSize: 0x20 }
  - { offset: 0xBFB0, size: 0x8, addend: 0x0, symName: __RNvMsI_NtCsHUR1vrdMJt_3std7processNtB5_10ExitStatus7successCs21pnhi4BuMk_18build_script_build, symObjAddr: 0x2A10, symBinAddr: 0x1000035A0, symSize: 0x60 }
  - { offset: 0xC0A5, size: 0x8, addend: 0x0, symName: __RNvMsf_NtNtCsieiGu2EXtoJ_4core3str4iterINtB5_13SplitInternalcE4nextCs21pnhi4BuMk_18build_script_build, symObjAddr: 0x2A70, symBinAddr: 0x100003600, symSize: 0x180 }
  - { offset: 0xC205, size: 0x8, addend: 0x0, symName: __RNvMsr_NtCsHUR1vrdMJt_3std4pathNtB5_7PathBuf7as_pathCs21pnhi4BuMk_18build_script_build, symObjAddr: 0x2BF0, symBinAddr: 0x100003780, symSize: 0x30 }
  - { offset: 0xC2A0, size: 0x8, addend: 0x0, symName: __RNvMsv_NtCsHUR1vrdMJt_3std7processNtB5_5Stdio5pipedCs21pnhi4BuMk_18build_script_build, symObjAddr: 0x2C20, symBinAddr: 0x1000037B0, symSize: 0x20 }
  - { offset: 0xC2DE, size: 0x8, addend: 0x0, symName: __RNvMsx_NtNtNtCslJiobkLta79_5alloc11collections5btree3mapINtB5_8IntoIterNtNtNtCsHUR1vrdMJt_3std3ffi6os_str8OsStringINtNtCsieiGu2EXtoJ_4core6option6OptionB17_EE10dying_nextCs21pnhi4BuMk_18build_script_build, symObjAddr: 0x2C40, symBinAddr: 0x1000037D0, symSize: 0x90 }
  - { offset: 0xD026, size: 0x8, addend: 0x0, symName: __RINvMNtCsieiGu2EXtoJ_4core6optionINtB3_6OptionRNtNtCsHUR1vrdMJt_3std4path7PathBufE7or_elseNCNvXs_NtNtNtB5_4iter8adapters5chainINtB1x_5ChainINtNtNtB5_5slice4iter4IterBJ_EB2d_ENtNtNtB1B_6traits8iterator8Iterator4next0ECs21pnhi4BuMk_18build_script_build, symObjAddr: 0x0, symBinAddr: 0x100005A90, symSize: 0x90 }
  - { offset: 0xD5E2, size: 0x8, addend: 0x0, symName: __RINvNtNtCsHUR1vrdMJt_3std3sys9backtrace28___rust_begin_short_backtraceFEuuECs21pnhi4BuMk_18build_script_build, symObjAddr: 0x1980, symBinAddr: 0x100007390, symSize: 0x20 }
  - { offset: 0xDE8A, size: 0x8, addend: 0x0, symName: __RINvNtCsieiGu2EXtoJ_4core3ptr13drop_in_placeINtNtB4_6option6OptionINtNtCslJiobkLta79_5alloc5boxed3BoxSmEEECs21pnhi4BuMk_18build_script_build, symObjAddr: 0xCC0, symBinAddr: 0x1000066D0, symSize: 0x40 }
  - { offset: 0xDEB9, size: 0x8, addend: 0x0, symName: __RINvNtCsieiGu2EXtoJ_4core3ptr13drop_in_placeINtNtB4_6option6OptionNtNtCsHUR1vrdMJt_3std7process10ChildStdinEECs21pnhi4BuMk_18build_script_build, symObjAddr: 0xD00, symBinAddr: 0x100006710, symSize: 0x40 }
  - { offset: 0xDEE8, size: 0x8, addend: 0x0, symName: __RINvNtCsieiGu2EXtoJ_4core3ptr13drop_in_placeINtNtB4_6option6OptionNtNtCsHUR1vrdMJt_3std7process11ChildStderrEECs21pnhi4BuMk_18build_script_build, symObjAddr: 0xD40, symBinAddr: 0x100006750, symSize: 0x40 }
  - { offset: 0xDF17, size: 0x8, addend: 0x0, symName: __RINvNtCsieiGu2EXtoJ_4core3ptr13drop_in_placeINtNtB4_6option6OptionNtNtCsHUR1vrdMJt_3std7process11ChildStdoutEECs21pnhi4BuMk_18build_script_build, symObjAddr: 0xD80, symBinAddr: 0x100006790, symSize: 0x40 }
  - { offset: 0xDF46, size: 0x8, addend: 0x0, symName: __RINvNtCsieiGu2EXtoJ_4core3ptr13drop_in_placeINtNtB4_6option6OptionNtNtNtCsHUR1vrdMJt_3std3ffi6os_str8OsStringEECs21pnhi4BuMk_18build_script_build, symObjAddr: 0xDC0, symBinAddr: 0x1000067D0, symSize: 0x40 }
  - { offset: 0xDF75, size: 0x8, addend: 0x0, symName: __RINvNtCsieiGu2EXtoJ_4core3ptr13drop_in_placeINtNtB4_6option6OptionNtNtNtCslJiobkLta79_5alloc3ffi5c_str7CStringEECs21pnhi4BuMk_18build_script_build, symObjAddr: 0xE00, symBinAddr: 0x100006810, symSize: 0x40 }
  - { offset: 0xDFA4, size: 0x8, addend: 0x0, symName: __RINvNtCsieiGu2EXtoJ_4core3ptr13drop_in_placeINtNtB4_6option6OptionNtNtNtNtNtCsHUR1vrdMJt_3std3sys7process4unix6common5StdioEECs21pnhi4BuMk_18build_script_build, symObjAddr: 0xE40, symBinAddr: 0x100006850, symSize: 0x40 }
  - { offset: 0xDFD3, size: 0x8, addend: 0x0, symName: __RINvNtCsieiGu2EXtoJ_4core3ptr13drop_in_placeINtNtB4_6result6ResultNtNtCsHUR1vrdMJt_3std7process5ChildNtNtNtB16_2io5error5ErrorEECs21pnhi4BuMk_18build_script_build, symObjAddr: 0xE80, symBinAddr: 0x100006890, symSize: 0x50 }
  - { offset: 0xE002, size: 0x8, addend: 0x0, symName: __RINvNtCsieiGu2EXtoJ_4core3ptr13drop_in_placeINtNtB4_6result6ResultNtNtCslJiobkLta79_5alloc6string6StringNtNtCsHUR1vrdMJt_3std3env8VarErrorEECs21pnhi4BuMk_18build_script_build, symObjAddr: 0xED0, symBinAddr: 0x1000068E0, symSize: 0x40 }
  - { offset: 0xE031, size: 0x8, addend: 0x0, symName: __RINvNtCsieiGu2EXtoJ_4core3ptr13drop_in_placeINtNtB4_6result6ResultjNtNtNtCsHUR1vrdMJt_3std2io5error5ErrorEECs21pnhi4BuMk_18build_script_build, symObjAddr: 0xF10, symBinAddr: 0x100006920, symSize: 0x30 }
  - { offset: 0xE060, size: 0x8, addend: 0x0, symName: __RINvNtCsieiGu2EXtoJ_4core3ptr13drop_in_placeINtNtCslJiobkLta79_5alloc3vec3VecINtNtBL_5boxed3BoxDINtNtNtB4_3ops8function5FnMutuEp6OutputINtNtB4_6result6ResultuNtNtNtCsHUR1vrdMJt_3std2io5error5ErrorENtNtB4_6marker4SyncNtB3b_4SendEL_EEECs21pnhi4BuMk_18build_script_build, symObjAddr: 0xF40, symBinAddr: 0x100006950, symSize: 0x50 }
  - { offset: 0xE08F, size: 0x8, addend: 0x0, symName: __RINvNtCsieiGu2EXtoJ_4core3ptr13drop_in_placeINtNtCslJiobkLta79_5alloc3vec3VecNtNtCsfqjmhE9NbIf_22cranelift_codegen_meta3isa3IsaEECs21pnhi4BuMk_18build_script_build, symObjAddr: 0xF90, symBinAddr: 0x1000069A0, symSize: 0x50 }
  - { offset: 0xE0BE, size: 0x8, addend: 0x0, symName: __RINvNtCsieiGu2EXtoJ_4core3ptr13drop_in_placeINtNtCslJiobkLta79_5alloc3vec3VecNtNtCsfqjmhE9NbIf_22cranelift_codegen_meta4isle15IsleCompilationEECs21pnhi4BuMk_18build_script_build, symObjAddr: 0xFE0, symBinAddr: 0x1000069F0, symSize: 0x50 }
  - { offset: 0xE0ED, size: 0x8, addend: 0x0, symName: __RINvNtCsieiGu2EXtoJ_4core3ptr13drop_in_placeINtNtCslJiobkLta79_5alloc3vec3VecPaEECs21pnhi4BuMk_18build_script_build, symObjAddr: 0x1030, symBinAddr: 0x100006A40, symSize: 0x50 }
  - { offset: 0xE11C, size: 0x8, addend: 0x0, symName: __RINvNtCsieiGu2EXtoJ_4core3ptr13drop_in_placeINtNtCslJiobkLta79_5alloc5boxed3BoxDINtNtNtB4_3ops8function5FnMutuEp6OutputINtNtB4_6result6ResultuNtNtNtCsHUR1vrdMJt_3std2io5error5ErrorENtNtB4_6marker4SyncNtB2V_4SendEL_EECs21pnhi4BuMk_18build_script_build, symObjAddr: 0x1080, symBinAddr: 0x100006A90, symSize: 0x70 }
  - { offset: 0xE14B, size: 0x8, addend: 0x0, symName: __RINvNtCsieiGu2EXtoJ_4core3ptr13drop_in_placeINtNtCslJiobkLta79_5alloc5boxed3BoxDNtNtB4_5error5ErrorEL_EECs21pnhi4BuMk_18build_script_build, symObjAddr: 0x10F0, symBinAddr: 0x100006B00, symSize: 0x70 }
  - { offset: 0xE17A, size: 0x8, addend: 0x0, symName: __RINvNtCsieiGu2EXtoJ_4core3ptr13drop_in_placeINtNtCslJiobkLta79_5alloc5boxed3BoxNtNtCsfqjmhE9NbIf_22cranelift_codegen_meta5error10ErrorInnerEECs21pnhi4BuMk_18build_script_build, symObjAddr: 0x1160, symBinAddr: 0x100006B70, symSize: 0x50 }
  - { offset: 0xE1A9, size: 0x8, addend: 0x0, symName: __RINvNtCsieiGu2EXtoJ_4core3ptr13drop_in_placeINtNtCslJiobkLta79_5alloc5boxed3BoxShEECs21pnhi4BuMk_18build_script_build, symObjAddr: 0x11B0, symBinAddr: 0x100006BC0, symSize: 0x20 }
  - { offset: 0xE1D8, size: 0x8, addend: 0x0, symName: __RINvNtCsieiGu2EXtoJ_4core3ptr13drop_in_placeINtNtCslJiobkLta79_5alloc5boxed3BoxSmEECs21pnhi4BuMk_18build_script_build, symObjAddr: 0x11D0, symBinAddr: 0x100006BE0, symSize: 0x20 }
  - { offset: 0xE207, size: 0x8, addend: 0x0, symName: __RINvNtCsieiGu2EXtoJ_4core3ptr13drop_in_placeINtNtCslJiobkLta79_5alloc7raw_vec6RawVecINtNtBL_5boxed3BoxDINtNtNtB4_3ops8function5FnMutuEp6OutputINtNtB4_6result6ResultuNtNtNtCsHUR1vrdMJt_3std2io5error5ErrorENtNtB4_6marker4SyncNtB3i_4SendEL_EEECs21pnhi4BuMk_18build_script_build, symObjAddr: 0x11F0, symBinAddr: 0x100006C00, symSize: 0x20 }
  - { offset: 0xE236, size: 0x8, addend: 0x0, symName: __RINvNtCsieiGu2EXtoJ_4core3ptr13drop_in_placeINtNtCslJiobkLta79_5alloc7raw_vec6RawVecNtNtCsfqjmhE9NbIf_22cranelift_codegen_meta3isa3IsaEECs21pnhi4BuMk_18build_script_build, symObjAddr: 0x1210, symBinAddr: 0x100006C20, symSize: 0x20 }
  - { offset: 0xE265, size: 0x8, addend: 0x0, symName: __RINvNtCsieiGu2EXtoJ_4core3ptr13drop_in_placeINtNtCslJiobkLta79_5alloc7raw_vec6RawVecNtNtCsfqjmhE9NbIf_22cranelift_codegen_meta4isle15IsleCompilationEECs21pnhi4BuMk_18build_script_build, symObjAddr: 0x1230, symBinAddr: 0x100006C40, symSize: 0x20 }
  - { offset: 0xE294, size: 0x8, addend: 0x0, symName: __RINvNtCsieiGu2EXtoJ_4core3ptr13drop_in_placeINtNtCslJiobkLta79_5alloc7raw_vec6RawVecPaEECs21pnhi4BuMk_18build_script_build, symObjAddr: 0x1250, symBinAddr: 0x100006C60, symSize: 0x20 }
  - { offset: 0xE2C3, size: 0x8, addend: 0x0, symName: __RINvNtCsieiGu2EXtoJ_4core3ptr13drop_in_placeINtNtNtNtCslJiobkLta79_5alloc11collections5btree3map8BTreeMapNtNtNtCsHUR1vrdMJt_3std3ffi6os_str8OsStringINtNtB4_6option6OptionB1F_EEECs21pnhi4BuMk_18build_script_build, symObjAddr: 0x1270, symBinAddr: 0x100006C80, symSize: 0x20 }
  - { offset: 0xE2F2, size: 0x8, addend: 0x0, symName: __RINvNtCsieiGu2EXtoJ_4core3ptr13drop_in_placeINtNtNtNtCslJiobkLta79_5alloc11collections5btree3map8IntoIterNtNtNtCsHUR1vrdMJt_3std3ffi6os_str8OsStringINtNtB4_6option6OptionB1F_EEECs21pnhi4BuMk_18build_script_build, symObjAddr: 0x1290, symBinAddr: 0x100006CA0, symSize: 0x20 }
  - { offset: 0xE321, size: 0x8, addend: 0x0, symName: __RINvNtCsieiGu2EXtoJ_4core3ptr13drop_in_placeINtNvMsT_NtNtNtCslJiobkLta79_5alloc11collections5btree4nodeINtBP_6HandleINtBP_7NodeRefNtNtBP_6marker5DyingpppENtB26_2KVE12drop_key_val7DropperINtNtB4_6option6OptionNtNtNtCsHUR1vrdMJt_3std3ffi6os_str8OsStringEEECs21pnhi4BuMk_18build_script_build, symObjAddr: 0x12B0, symBinAddr: 0x100006CC0, symSize: 0x20 }
  - { offset: 0xE350, size: 0x8, addend: 0x0, symName: __RINvNtCsieiGu2EXtoJ_4core3ptr13drop_in_placeINtNvXsw_NtNtNtCslJiobkLta79_5alloc11collections5btree3mapINtBP_8IntoIterpppENtNtNtB4_3ops4drop4Drop4drop9DropGuardNtNtNtCsHUR1vrdMJt_3std3ffi6os_str8OsStringINtNtB4_6option6OptionB2x_ENtNtBV_5alloc6GlobalEECs21pnhi4BuMk_18build_script_build, symObjAddr: 0x12D0, symBinAddr: 0x100006CE0, symSize: 0x20 }
  - { offset: 0xE37F, size: 0x8, addend: 0x0, symName: __RINvNtCsieiGu2EXtoJ_4core3ptr13drop_in_placeNCNvCs21pnhi4BuMk_18build_script_build15run_compilation0EBK_, symObjAddr: 0x12F0, symBinAddr: 0x100006D00, symSize: 0x20 }
  - { offset: 0xE3AE, size: 0x8, addend: 0x0, symName: __RINvNtCsieiGu2EXtoJ_4core3ptr13drop_in_placeNtNtCs4xvdaJ1JWuv_14cranelift_isle5error6ErrorsECs21pnhi4BuMk_18build_script_build, symObjAddr: 0x1310, symBinAddr: 0x100006D20, symSize: 0x60 }
  - { offset: 0xE3DD, size: 0x8, addend: 0x0, symName: __RINvNtCsieiGu2EXtoJ_4core3ptr13drop_in_placeNtNtCsHUR1vrdMJt_3std2io5GuardECs21pnhi4BuMk_18build_script_build, symObjAddr: 0x1370, symBinAddr: 0x100006D80, symSize: 0x20 }
  - { offset: 0xE40C, size: 0x8, addend: 0x0, symName: __RINvNtCsieiGu2EXtoJ_4core3ptr13drop_in_placeNtNtCsHUR1vrdMJt_3std3env8VarErrorECs21pnhi4BuMk_18build_script_build, symObjAddr: 0x1390, symBinAddr: 0x100006DA0, symSize: 0x40 }
  - { offset: 0xE43B, size: 0x8, addend: 0x0, symName: __RINvNtCsieiGu2EXtoJ_4core3ptr13drop_in_placeNtNtCsHUR1vrdMJt_3std7process10ChildStdinECs21pnhi4BuMk_18build_script_build, symObjAddr: 0x13D0, symBinAddr: 0x100006DE0, symSize: 0x20 }
  - { offset: 0xE46A, size: 0x8, addend: 0x0, symName: __RINvNtCsieiGu2EXtoJ_4core3ptr13drop_in_placeNtNtCsHUR1vrdMJt_3std7process11ChildStderrECs21pnhi4BuMk_18build_script_build, symObjAddr: 0x13F0, symBinAddr: 0x100006E00, symSize: 0x20 }
  - { offset: 0xE499, size: 0x8, addend: 0x0, symName: __RINvNtCsieiGu2EXtoJ_4core3ptr13drop_in_placeNtNtCsHUR1vrdMJt_3std7process11ChildStdoutECs21pnhi4BuMk_18build_script_build, symObjAddr: 0x1410, symBinAddr: 0x100006E20, symSize: 0x20 }
  - { offset: 0xE4C8, size: 0x8, addend: 0x0, symName: __RINvNtCsieiGu2EXtoJ_4core3ptr13drop_in_placeNtNtCsHUR1vrdMJt_3std7process5ChildECs21pnhi4BuMk_18build_script_build, symObjAddr: 0x1430, symBinAddr: 0x100006E40, symSize: 0x90 }
  - { offset: 0xE4F7, size: 0x8, addend: 0x0, symName: __RINvNtCsieiGu2EXtoJ_4core3ptr13drop_in_placeNtNtCsHUR1vrdMJt_3std7process7CommandECs21pnhi4BuMk_18build_script_build, symObjAddr: 0x14C0, symBinAddr: 0x100006ED0, symSize: 0x20 }
  - { offset: 0xE526, size: 0x8, addend: 0x0, symName: __RINvNtCsieiGu2EXtoJ_4core3ptr13drop_in_placeNtNtCsfqjmhE9NbIf_22cranelift_codegen_meta4isle16IsleCompilationsECs21pnhi4BuMk_18build_script_build, symObjAddr: 0x14E0, symBinAddr: 0x100006EF0, symSize: 0x20 }
  - { offset: 0xE555, size: 0x8, addend: 0x0, symName: __RINvNtCsieiGu2EXtoJ_4core3ptr13drop_in_placeNtNtCsfqjmhE9NbIf_22cranelift_codegen_meta5error5ErrorECs21pnhi4BuMk_18build_script_build, symObjAddr: 0x1500, symBinAddr: 0x100006F10, symSize: 0x20 }
  - { offset: 0xE584, size: 0x8, addend: 0x0, symName: __RINvNtCsieiGu2EXtoJ_4core3ptr13drop_in_placeNtNtCslJiobkLta79_5alloc6string13FromUtf8ErrorECs21pnhi4BuMk_18build_script_build, symObjAddr: 0x1520, symBinAddr: 0x100006F30, symSize: 0x20 }
  - { offset: 0xE5B3, size: 0x8, addend: 0x0, symName: __RINvNtCsieiGu2EXtoJ_4core3ptr13drop_in_placeNtNtNtCslJiobkLta79_5alloc3ffi5c_str7CStringECs21pnhi4BuMk_18build_script_build, symObjAddr: 0x1540, symBinAddr: 0x100006F50, symSize: 0x50 }
  - { offset: 0xE5E2, size: 0x8, addend: 0x0, symName: __RINvNtCsieiGu2EXtoJ_4core3ptr13drop_in_placeNtNtNtNtCsHUR1vrdMJt_3std3sys7process3env10CommandEnvECs21pnhi4BuMk_18build_script_build, symObjAddr: 0x1590, symBinAddr: 0x100006FA0, symSize: 0x20 }
  - { offset: 0xE611, size: 0x8, addend: 0x0, symName: __RINvNtCsieiGu2EXtoJ_4core3ptr13drop_in_placeNtNtNtNtNtCsHUR1vrdMJt_3std3sys3pal4unix4pipe8AnonPipeECs21pnhi4BuMk_18build_script_build, symObjAddr: 0x15B0, symBinAddr: 0x100006FC0, symSize: 0x20 }
  - { offset: 0xE640, size: 0x8, addend: 0x0, symName: __RINvNtCsieiGu2EXtoJ_4core3ptr13drop_in_placeNtNtNtNtNtCsHUR1vrdMJt_3std3sys7process4unix6common5StdioECs21pnhi4BuMk_18build_script_build, symObjAddr: 0x15D0, symBinAddr: 0x100006FE0, symSize: 0x30 }
  - { offset: 0xE66F, size: 0x8, addend: 0x0, symName: __RINvNtCsieiGu2EXtoJ_4core3ptr13drop_in_placeNtNtNtNtNtCsHUR1vrdMJt_3std3sys7process4unix6common7CommandECs21pnhi4BuMk_18build_script_build, symObjAddr: 0x1600, symBinAddr: 0x100007010, symSize: 0x1D0 }
  - { offset: 0xE69E, size: 0x8, addend: 0x0, symName: __RINvNtCsieiGu2EXtoJ_4core3ptr13drop_in_placeNtNtNtNtNtNtCsHUR1vrdMJt_3std3sys7process4unix6common13cstring_array12CStringArrayECs21pnhi4BuMk_18build_script_build, symObjAddr: 0x17D0, symBinAddr: 0x1000071E0, symSize: 0x50 }
  - { offset: 0xE6CD, size: 0x8, addend: 0x0, symName: __RINvNtCsieiGu2EXtoJ_4core3ptr13drop_in_placeNtNvXsh_NtNtCslJiobkLta79_5alloc5boxed7convertINtBQ_3BoxDNtNtB4_5error5ErrorNtNtB4_6marker4SyncNtB1W_4SendEL_EINtNtB4_7convert4FromNtNtBS_6string6StringE4from11StringErrorECs21pnhi4BuMk_18build_script_build, symObjAddr: 0x1820, symBinAddr: 0x100007230, symSize: 0x20 }
  - { offset: 0xE6FC, size: 0x8, addend: 0x0, symName: __RINvNtCsieiGu2EXtoJ_4core3ptr13drop_in_placeSINtNtCslJiobkLta79_5alloc5boxed3BoxDINtNtNtB4_3ops8function5FnMutuEp6OutputINtNtB4_6result6ResultuNtNtNtCsHUR1vrdMJt_3std2io5error5ErrorENtNtB4_6marker4SyncNtB2W_4SendEL_EECs21pnhi4BuMk_18build_script_build, symObjAddr: 0x1840, symBinAddr: 0x100007250, symSize: 0xA0 }
  - { offset: 0xE72B, size: 0x8, addend: 0x0, symName: __RINvNtCsieiGu2EXtoJ_4core3ptr13drop_in_placeSNtNtCsfqjmhE9NbIf_22cranelift_codegen_meta4isle15IsleCompilationECs21pnhi4BuMk_18build_script_build, symObjAddr: 0x18E0, symBinAddr: 0x1000072F0, symSize: 0xA0 }
  - { offset: 0xF6D8, size: 0x8, addend: 0x0, symName: __RNvXsI_NtCsieiGu2EXtoJ_4core6optionINtB5_6OptionhENtNtB7_3fmt5Debug3fmtCs21pnhi4BuMk_18build_script_build, symObjAddr: 0x43F0, symBinAddr: 0x100009E00, symSize: 0x80 }
  - { offset: 0xFB08, size: 0x8, addend: 0x0, symName: __RINvXs_NtNtNtCsieiGu2EXtoJ_4core4iter8adapters6clonedINtB5_6ClonedINtNtNtBb_5slice4iter4IterNtNtCsfqjmhE9NbIf_22cranelift_codegen_meta3isa3IsaEENtNtNtB9_6traits8iterator8Iterator8try_folduNCINvNvB2i_4find5checkB1s_QNCNvCs21pnhi4BuMk_18build_script_build4main0E0INtNtNtBb_3ops12control_flow11ControlFlowB1s_EEB3v_, symObjAddr: 0x1A30, symBinAddr: 0x100007440, symSize: 0x20 }
  - { offset: 0xFB7D, size: 0x8, addend: 0x0, symName: __RNvXs_NtNtNtCsieiGu2EXtoJ_4core4iter8adapters6clonedINtB4_6ClonedINtNtNtBa_5slice4iter4IterNtNtCsfqjmhE9NbIf_22cranelift_codegen_meta3isa3IsaEENtNtNtB8_6traits8iterator8Iterator9size_hintCs21pnhi4BuMk_18build_script_build, symObjAddr: 0x4580, symBinAddr: 0x100009F90, symSize: 0x30 }
  - { offset: 0xFBC1, size: 0x8, addend: 0x0, symName: __RNCINvNtNtNtCsieiGu2EXtoJ_4core4iter8adapters6cloned14clone_try_foldNtNtCsfqjmhE9NbIf_22cranelift_codegen_meta3isa3IsauINtNtNtBa_3ops12control_flow11ControlFlowB14_ENCINvNvNtNtNtB8_6traits8iterator8Iterator4find5checkB14_QNCNvCs21pnhi4BuMk_18build_script_build4main0E0E0B3C_, symObjAddr: 0x1BD0, symBinAddr: 0x1000075E0, symSize: 0x70 }
  - { offset: 0xFC3B, size: 0x8, addend: 0x0, symName: __RINvXs7_NtNtNtCsieiGu2EXtoJ_4core4iter8adapters4takeINtB6_4TakeNtNtNtBc_3str4iter5CharsENtB6_8SpecTake13spec_for_eachNCINvXsb_NtCslJiobkLta79_5alloc6stringNtB20_6StringINtNtNtBa_6traits7collect6ExtendcE6extendBO_E0ECs21pnhi4BuMk_18build_script_build, symObjAddr: 0x19A0, symBinAddr: 0x1000073B0, symSize: 0x70 }
  - { offset: 0xFCA7, size: 0x8, addend: 0x0, symName: __RNCINvNvXs7_NtNtNtCsieiGu2EXtoJ_4core4iter8adapters4takeINtBa_4TakepENtBa_8SpecTake13spec_for_each5checkcNCINvXsb_NtCslJiobkLta79_5alloc6stringNtB1O_6StringINtNtNtBe_6traits7collect6ExtendcE6extendIBT_NtNtNtBg_3str4iter5CharsEE0E0Cs21pnhi4BuMk_18build_script_build, symObjAddr: 0x1CA0, symBinAddr: 0x1000076B0, symSize: 0x80 }
  - { offset: 0xFD2D, size: 0x8, addend: 0x0, symName: __RINvXs_NtNtNtCsieiGu2EXtoJ_4core4iter8adapters4takeINtB5_4TakeNtNtNtBb_3str4iter5CharsENtNtNtB9_6traits8iterator8Iterator8for_eachNCINvXsb_NtCslJiobkLta79_5alloc6stringNtB2d_6StringINtNtB1r_7collect6ExtendcE6extendBN_E0ECs21pnhi4BuMk_18build_script_build, symObjAddr: 0x1A10, symBinAddr: 0x100007420, symSize: 0x20 }
  - { offset: 0xFD76, size: 0x8, addend: 0x0, symName: __RNvXs_NtNtNtCsieiGu2EXtoJ_4core4iter8adapters4takeINtB4_4TakeNtNtNtBa_3str4iter5CharsENtNtNtB8_6traits8iterator8Iterator9size_hintCs21pnhi4BuMk_18build_script_build, symObjAddr: 0x4470, symBinAddr: 0x100009E80, symSize: 0x110 }
  - { offset: 0xFE8F, size: 0x8, addend: 0x0, symName: __RINvYINtNtNtNtCsieiGu2EXtoJ_4core4iter8adapters4take4TakeNtNtNtBc_3str4iter5CharsENtNtNtBa_6traits8iterator8Iterator7collectNtNtCslJiobkLta79_5alloc6string6StringECs21pnhi4BuMk_18build_script_build, symObjAddr: 0x1A90, symBinAddr: 0x1000074A0, symSize: 0x60 }
  - { offset: 0xFF25, size: 0x8, addend: 0x0, symName: __RINvYINtNtNtNtCsieiGu2EXtoJ_4core4iter8adapters6cloned6ClonedINtNtNtBc_5slice4iter4IterNtNtCsfqjmhE9NbIf_22cranelift_codegen_meta3isa3IsaEENtNtNtBa_6traits8iterator8Iterator4findQNCNvCs21pnhi4BuMk_18build_script_build4main0EB2V_, symObjAddr: 0x1AF0, symBinAddr: 0x100007500, symSize: 0x60 }
  - { offset: 0xFFA4, size: 0x8, addend: 0x0, symName: __RINvYINtNtNtNtCsieiGu2EXtoJ_4core4iter8adapters6cloned6ClonedINtNtNtBc_5slice4iter4IterNtNtCsfqjmhE9NbIf_22cranelift_codegen_meta3isa3IsaEENtNtNtBa_6traits8iterator8Iterator6filterNCNvCs21pnhi4BuMk_18build_script_build4main0EB2W_, symObjAddr: 0x1B50, symBinAddr: 0x100007560, symSize: 0x20 }
  - { offset: 0x10012, size: 0x8, addend: 0x0, symName: __RNCINvNvNtNtNtNtCsieiGu2EXtoJ_4core4iter6traits8iterator8Iterator4find5checkNtNtCsfqjmhE9NbIf_22cranelift_codegen_meta3isa3IsaQNCNvCs21pnhi4BuMk_18build_script_build4main0E0B25_, symObjAddr: 0x1C40, symBinAddr: 0x100007650, symSize: 0x60 }
  - { offset: 0x1008F, size: 0x8, addend: 0x0, symName: __RNvXNtNtNtCsieiGu2EXtoJ_4core4iter6traits7collectINtNtNtB6_8adapters4take4TakeNtNtNtB8_3str4iter5CharsENtB2_12IntoIterator9into_iterCs21pnhi4BuMk_18build_script_build, symObjAddr: 0x4260, symBinAddr: 0x100009C70, symSize: 0x20 }
  - { offset: 0x10252, size: 0x8, addend: 0x0, symName: __RNvNvXs0_NtNtCsieiGu2EXtoJ_4core5slice5indexjINtB7_10SliceIndexSpE13get_unchecked18precondition_checkCs21pnhi4BuMk_18build_script_build, symObjAddr: 0x3C40, symBinAddr: 0x100009650, symSize: 0xA0 }
  - { offset: 0x102C0, size: 0x8, addend: 0x0, symName: __RNvNvXs0_NtNtCsieiGu2EXtoJ_4core5slice5indexjINtB7_10SliceIndexSpE17get_unchecked_mut18precondition_checkCs21pnhi4BuMk_18build_script_build, symObjAddr: 0x3CE0, symBinAddr: 0x1000096F0, symSize: 0xA0 }
  - { offset: 0x10365, size: 0x8, addend: 0x0, symName: __RNvNvXs2_NtNtCsieiGu2EXtoJ_4core5slice5indexINtNtNtBb_3ops5range5RangejEINtB7_10SliceIndexSpE13get_unchecked18precondition_checkCs21pnhi4BuMk_18build_script_build, symObjAddr: 0x3D80, symBinAddr: 0x100009790, symSize: 0xC0 }
  - { offset: 0x103E1, size: 0x8, addend: 0x0, symName: __RNvNvXs2_NtNtCsieiGu2EXtoJ_4core5slice5indexINtNtNtBb_3ops5range5RangejEINtB7_10SliceIndexSpE17get_unchecked_mut18precondition_checkCs21pnhi4BuMk_18build_script_build, symObjAddr: 0x3E40, symBinAddr: 0x100009850, symSize: 0xC0 }
  - { offset: 0x105D9, size: 0x8, addend: 0x0, symName: __RNvNvNtNtCsieiGu2EXtoJ_4core5slice3raw14from_raw_parts18precondition_checkCs21pnhi4BuMk_18build_script_build, symObjAddr: 0x3780, symBinAddr: 0x100009190, symSize: 0x260 }
  - { offset: 0x107A7, size: 0x8, addend: 0x0, symName: __RNvNvNtNtCsieiGu2EXtoJ_4core5slice3raw18from_raw_parts_mut18precondition_checkCs21pnhi4BuMk_18build_script_build, symObjAddr: 0x39E0, symBinAddr: 0x1000093F0, symSize: 0x260 }
  - { offset: 0x111FA, size: 0x8, addend: 0x0, symName: __RNvXsp_NtCsieiGu2EXtoJ_4core6resultINtB5_6ResultNtNtCsHUR1vrdMJt_3std4path7PathBufNtNtNtBO_2io5error5ErrorENtNtNtB7_3ops9try_trait3Try6branchCs21pnhi4BuMk_18build_script_build, symObjAddr: 0x4750, symBinAddr: 0x10000A160, symSize: 0x90 }
  - { offset: 0x11277, size: 0x8, addend: 0x0, symName: __RNvXsp_NtCsieiGu2EXtoJ_4core6resultINtB5_6ResultNtNtCsHUR1vrdMJt_3std7process10ExitStatusNtNtNtBO_2io5error5ErrorENtNtNtB7_3ops9try_trait3Try6branchCs21pnhi4BuMk_18build_script_build, symObjAddr: 0x47E0, symBinAddr: 0x10000A1F0, symSize: 0x60 }
  - { offset: 0x112F4, size: 0x8, addend: 0x0, symName: __RNvXsp_NtCsieiGu2EXtoJ_4core6resultINtB5_6ResultNtNtCsHUR1vrdMJt_3std7process5ChildNtNtNtBO_2io5error5ErrorENtNtNtB7_3ops9try_trait3Try6branchCs21pnhi4BuMk_18build_script_build, symObjAddr: 0x4840, symBinAddr: 0x10000A250, symSize: 0x80 }
  - { offset: 0x11371, size: 0x8, addend: 0x0, symName: __RNvXsp_NtCsieiGu2EXtoJ_4core6resultINtB5_6ResultNtNtCslJiobkLta79_5alloc6string6StringNtNtCs4xvdaJ1JWuv_14cranelift_isle5error6ErrorsENtNtNtB7_3ops9try_trait3Try6branchCs21pnhi4BuMk_18build_script_build, symObjAddr: 0x48C0, symBinAddr: 0x10000A2D0, symSize: 0xF0 }
  - { offset: 0x113EF, size: 0x8, addend: 0x0, symName: __RNvXsp_NtCsieiGu2EXtoJ_4core6resultINtB5_6ResultjNtNtNtCsHUR1vrdMJt_3std2io5error5ErrorENtNtNtB7_3ops9try_trait3Try6branchCs21pnhi4BuMk_18build_script_build, symObjAddr: 0x49B0, symBinAddr: 0x10000A3C0, symSize: 0x50 }
  - { offset: 0x1146B, size: 0x8, addend: 0x0, symName: __RNvXsp_NtCsieiGu2EXtoJ_4core6resultINtB5_6ResultuNtNtCs4xvdaJ1JWuv_14cranelift_isle5error6ErrorsENtNtNtB7_3ops9try_trait3Try6branchCs21pnhi4BuMk_18build_script_build, symObjAddr: 0x4A00, symBinAddr: 0x10000A410, symSize: 0xB0 }
  - { offset: 0x11630, size: 0x8, addend: 0x0, symName: __RNvXsq_NtCsieiGu2EXtoJ_4core6resultINtB5_6ResultNtNtCslJiobkLta79_5alloc6string6StringNtNtNtCsHUR1vrdMJt_3std2io5error5ErrorEINtNtNtB7_3ops9try_trait12FromResidualIBy_NtNtB7_7convert10InfallibleB1m_EE13from_residualCs21pnhi4BuMk_18build_script_build, symObjAddr: 0x4B20, symBinAddr: 0x10000A530, symSize: 0x30 }
  - { offset: 0x11697, size: 0x8, addend: 0x0, symName: __RNvXsq_NtCsieiGu2EXtoJ_4core6resultINtB5_6ResultuINtNtCslJiobkLta79_5alloc5boxed3BoxDNtNtB7_5error5ErrorEL_EEINtNtNtB7_3ops9try_trait12FromResidualIBy_NtNtB7_7convert10InfallibleNtNtNtCsHUR1vrdMJt_3std2io5error5ErrorEE13from_residualCs21pnhi4BuMk_18build_script_build, symObjAddr: 0x4B50, symBinAddr: 0x10000A560, symSize: 0x20 }
  - { offset: 0x116FE, size: 0x8, addend: 0x0, symName: __RNvXsq_NtCsieiGu2EXtoJ_4core6resultINtB5_6ResultuNtNtCs4xvdaJ1JWuv_14cranelift_isle5error6ErrorsEINtNtNtB7_3ops9try_trait12FromResidualIBy_NtNtB7_7convert10InfallibleBL_EE13from_residualCs21pnhi4BuMk_18build_script_build, symObjAddr: 0x4B70, symBinAddr: 0x10000A580, symSize: 0x70 }
  - { offset: 0x11E85, size: 0x8, addend: 0x0, symName: __RINvNtCsieiGu2EXtoJ_4core3mem4dropNtNtCsHUR1vrdMJt_3std7process10ChildStdinECs21pnhi4BuMk_18build_script_build, symObjAddr: 0xC20, symBinAddr: 0x1000066B0, symSize: 0x20 }
  - { offset: 0x12033, size: 0x8, addend: 0x0, symName: __RNvNvMNtNtCsieiGu2EXtoJ_4core5alloc6layoutNtB4_6Layout25from_size_align_unchecked18precondition_checkCs21pnhi4BuMk_18build_script_build, symObjAddr: 0x3420, symBinAddr: 0x100008E30, symSize: 0xB0 }
  - { offset: 0x120DF, size: 0x8, addend: 0x0, symName: __RNvXNtCsieiGu2EXtoJ_4core7convertReINtB2_5AsRefNtNtNtCsHUR1vrdMJt_3std3ffi6os_str5OsStrE6as_refCs21pnhi4BuMk_18build_script_build, symObjAddr: 0x3F00, symBinAddr: 0x100009910, symSize: 0x30 }
  - { offset: 0x121A0, size: 0x8, addend: 0x0, symName: __RNvNvNtCsieiGu2EXtoJ_4core4hint16assert_unchecked18precondition_checkCs21pnhi4BuMk_18build_script_build, symObjAddr: 0x3570, symBinAddr: 0x100008F80, symSize: 0xA0 }
  - { offset: 0x12200, size: 0x8, addend: 0x0, symName: __RNvNvNtCsieiGu2EXtoJ_4core4hint21unreachable_unchecked18precondition_checkCs21pnhi4BuMk_18build_script_build, symObjAddr: 0x3610, symBinAddr: 0x100009020, symSize: 0x80 }
  - { offset: 0x12461, size: 0x8, addend: 0x0, symName: __RNvXs19_NtCsieiGu2EXtoJ_4core3fmtRINtNtB8_6option6OptionhENtB6_5Debug3fmtCs21pnhi4BuMk_18build_script_build, symObjAddr: 0x4300, symBinAddr: 0x100009D10, symSize: 0x20 }
  - { offset: 0x1297B, size: 0x8, addend: 0x0, symName: __RNSNvYNCINvNtCsHUR1vrdMJt_3std2rt10lang_startuE0INtNtNtCsieiGu2EXtoJ_4core3ops8function6FnOnceuE9call_once6vtableCs21pnhi4BuMk_18build_script_build, symObjAddr: 0x1D20, symBinAddr: 0x100007730, symSize: 0x20 }
  - { offset: 0x129BF, size: 0x8, addend: 0x0, symName: __RNvYFEuINtNtNtCsieiGu2EXtoJ_4core3ops8function6FnOnceuE9call_onceCs21pnhi4BuMk_18build_script_build, symObjAddr: 0x4BE0, symBinAddr: 0x10000A5F0, symSize: 0x20 }
  - { offset: 0x129FF, size: 0x8, addend: 0x0, symName: __RNvYNCINvNtCsHUR1vrdMJt_3std2rt10lang_startuE0INtNtNtCsieiGu2EXtoJ_4core3ops8function6FnOnceuE9call_onceCs21pnhi4BuMk_18build_script_build, symObjAddr: 0x4C00, symBinAddr: 0x10000A610, symSize: 0x40 }
  - { offset: 0x12A43, size: 0x8, addend: 0x0, symName: __RNvYNvYINtNtNtCsieiGu2EXtoJ_4core5slice4iter4IterNtNtCsHUR1vrdMJt_3std4path7PathBufENtNtNtNtBc_4iter6traits8iterator8Iterator4nextINtNtNtBc_3ops8function6FnOnceTQB5_EE9call_onceCs21pnhi4BuMk_18build_script_build, symObjAddr: 0x4C40, symBinAddr: 0x10000A650, symSize: 0x20 }
  - { offset: 0x12ACA, size: 0x8, addend: 0x0, symName: __RNvNvNtNtCsieiGu2EXtoJ_4core4char7convert18from_u32_unchecked18precondition_checkCs21pnhi4BuMk_18build_script_build, symObjAddr: 0x3690, symBinAddr: 0x1000090A0, symSize: 0xF0 }
  - { offset: 0x1328F, size: 0x8, addend: 0x0, symName: __RINvXsd_NtCslJiobkLta79_5alloc3vecINtB6_3VecNtNtCsfqjmhE9NbIf_22cranelift_codegen_meta3isa3IsaEINtNtNtNtCsieiGu2EXtoJ_4core4iter6traits7collect12FromIteratorBG_E9from_iterINtNtNtB1C_8adapters6filter6FilterINtNtB2O_6cloned6ClonedINtNtNtB1E_5slice4iter4IterBG_EENCNvCs21pnhi4BuMk_18build_script_build4main0EEB4e_, symObjAddr: 0x1A50, symBinAddr: 0x100007460, symSize: 0x40 }
  - { offset: 0x132DB, size: 0x8, addend: 0x0, symName: __RNvNvMs_NtCslJiobkLta79_5alloc3vecINtB6_3VecppE7set_len18precondition_checkCs21pnhi4BuMk_18build_script_build, symObjAddr: 0x34D0, symBinAddr: 0x100008EE0, symSize: 0xA0 }
  - { offset: 0x1334F, size: 0x8, addend: 0x0, symName: __RNvXNtNtCslJiobkLta79_5alloc3vec11spec_extendINtB4_3VecNtNtCsfqjmhE9NbIf_22cranelift_codegen_meta3isa3IsaEINtB2_10SpecExtendBR_INtNtNtNtCsieiGu2EXtoJ_4core4iter8adapters6filter6FilterINtNtB26_6cloned6ClonedINtNtNtB2a_5slice4iter4IterBR_EENCNvCs21pnhi4BuMk_18build_script_build4main0EE11spec_extendB3S_, symObjAddr: 0x3F30, symBinAddr: 0x100009940, symSize: 0x20 }
  - { offset: 0x133AD, size: 0x8, addend: 0x0, symName: __RNvXNtNtCslJiobkLta79_5alloc3vec14spec_from_iterINtB4_3VecNtNtCsfqjmhE9NbIf_22cranelift_codegen_meta3isa3IsaEINtB2_12SpecFromIterBU_INtNtNtNtCsieiGu2EXtoJ_4core4iter8adapters6filter6FilterINtNtB2b_6cloned6ClonedINtNtNtB2f_5slice4iter4IterBU_EENCNvCs21pnhi4BuMk_18build_script_build4main0EE9from_iterB3X_, symObjAddr: 0x3F50, symBinAddr: 0x100009960, symSize: 0x20 }
  - { offset: 0x133F8, size: 0x8, addend: 0x0, symName: __RNvXNtNtCslJiobkLta79_5alloc3vec21spec_from_iter_nestedINtB4_3VecNtNtCsfqjmhE9NbIf_22cranelift_codegen_meta3isa3IsaEINtB2_18SpecFromIterNestedB11_INtNtNtNtCsieiGu2EXtoJ_4core4iter8adapters6filter6FilterINtNtB2p_6cloned6ClonedINtNtNtB2t_5slice4iter4IterB11_EENCNvCs21pnhi4BuMk_18build_script_build4main0EE9from_iterB4c_, symObjAddr: 0x3F70, symBinAddr: 0x100009980, symSize: 0x2F0 }
  - { offset: 0x136B8, size: 0x8, addend: 0x0, symName: __RNvXs6_NtCslJiobkLta79_5alloc3vecINtB5_3VecNtNtCsfqjmhE9NbIf_22cranelift_codegen_meta3isa3IsaENtNtNtCsieiGu2EXtoJ_4core3ops5deref5Deref5derefCs21pnhi4BuMk_18build_script_build, symObjAddr: 0x43D0, symBinAddr: 0x100009DE0, symSize: 0x20 }
  - { offset: 0x13811, size: 0x8, addend: 0x0, symName: __RNvXsf_NtCslJiobkLta79_5alloc3vecRINtB5_3VecNtNtCsHUR1vrdMJt_3std4path7PathBufENtNtNtNtCsieiGu2EXtoJ_4core4iter6traits7collect12IntoIterator9into_iterCs21pnhi4BuMk_18build_script_build, symObjAddr: 0x45B0, symBinAddr: 0x100009FC0, symSize: 0x80 }
  - { offset: 0x13A3E, size: 0x8, addend: 0x0, symName: __RNvXsf_NtCslJiobkLta79_5alloc3vecRINtB5_3VecNtNtCsfqjmhE9NbIf_22cranelift_codegen_meta3isa3IsaENtNtNtNtCsieiGu2EXtoJ_4core4iter6traits7collect12IntoIterator9into_iterCs21pnhi4BuMk_18build_script_build, symObjAddr: 0x4630, symBinAddr: 0x10000A040, symSize: 0x80 }
  - { offset: 0x13CCC, size: 0x8, addend: 0x0, symName: __RNvXsn_NtCslJiobkLta79_5alloc3vecINtB5_3VecINtNtB7_5boxed3BoxDINtNtNtCsieiGu2EXtoJ_4core3ops8function5FnMutuEp6OutputINtNtB15_6result6ResultuNtNtNtCsHUR1vrdMJt_3std2io5error5ErrorENtNtB15_6marker4SyncNtB2U_4SendEL_EENtNtB13_4drop4Drop4dropCs21pnhi4BuMk_18build_script_build, symObjAddr: 0x46B0, symBinAddr: 0x10000A0C0, symSize: 0x30 }
  - { offset: 0x13D7C, size: 0x8, addend: 0x0, symName: __RNvXsn_NtCslJiobkLta79_5alloc3vecINtB5_3VecNtNtCsfqjmhE9NbIf_22cranelift_codegen_meta3isa3IsaENtNtNtCsieiGu2EXtoJ_4core3ops4drop4Drop4dropCs21pnhi4BuMk_18build_script_build, symObjAddr: 0x46E0, symBinAddr: 0x10000A0F0, symSize: 0x20 }
  - { offset: 0x13E2C, size: 0x8, addend: 0x0, symName: __RNvXsn_NtCslJiobkLta79_5alloc3vecINtB5_3VecNtNtCsfqjmhE9NbIf_22cranelift_codegen_meta4isle15IsleCompilationENtNtNtCsieiGu2EXtoJ_4core3ops4drop4Drop4dropCs21pnhi4BuMk_18build_script_build, symObjAddr: 0x4700, symBinAddr: 0x10000A110, symSize: 0x30 }
  - { offset: 0x13EDC, size: 0x8, addend: 0x0, symName: __RNvXsn_NtCslJiobkLta79_5alloc3vecINtB5_3VecPaENtNtNtCsieiGu2EXtoJ_4core3ops4drop4Drop4dropCs21pnhi4BuMk_18build_script_build, symObjAddr: 0x4730, symBinAddr: 0x10000A140, symSize: 0x20 }
  - { offset: 0x14048, size: 0x8, addend: 0x0, symName: __RNvXsp_NtCslJiobkLta79_5alloc3vecINtB5_3VechENtNtCsieiGu2EXtoJ_4core3fmt5Debug3fmtCs21pnhi4BuMk_18build_script_build, symObjAddr: 0x4AB0, symBinAddr: 0x10000A4C0, symSize: 0x70 }
  - { offset: 0x146C6, size: 0x8, addend: 0x0, symName: __RNvXs1_NtCslJiobkLta79_5alloc7raw_vecINtB5_6RawVecINtNtB7_5boxed3BoxDINtNtNtCsieiGu2EXtoJ_4core3ops8function5FnMutuEp6OutputINtNtB1c_6result6ResultuNtNtNtCsHUR1vrdMJt_3std2io5error5ErrorENtNtB1c_6marker4SyncNtB31_4SendEL_EENtNtB1a_4drop4Drop4dropCs21pnhi4BuMk_18build_script_build, symObjAddr: 0x4320, symBinAddr: 0x100009D30, symSize: 0x30 }
  - { offset: 0x14702, size: 0x8, addend: 0x0, symName: __RNvXs1_NtCslJiobkLta79_5alloc7raw_vecINtB5_6RawVecNtNtCsfqjmhE9NbIf_22cranelift_codegen_meta3isa3IsaENtNtNtCsieiGu2EXtoJ_4core3ops4drop4Drop4dropCs21pnhi4BuMk_18build_script_build, symObjAddr: 0x4350, symBinAddr: 0x100009D60, symSize: 0x20 }
  - { offset: 0x1473E, size: 0x8, addend: 0x0, symName: __RNvXs1_NtCslJiobkLta79_5alloc7raw_vecINtB5_6RawVecNtNtCsfqjmhE9NbIf_22cranelift_codegen_meta4isle15IsleCompilationENtNtNtCsieiGu2EXtoJ_4core3ops4drop4Drop4dropCs21pnhi4BuMk_18build_script_build, symObjAddr: 0x4370, symBinAddr: 0x100009D80, symSize: 0x30 }
  - { offset: 0x1477A, size: 0x8, addend: 0x0, symName: __RNvXs1_NtCslJiobkLta79_5alloc7raw_vecINtB5_6RawVecPaENtNtNtCsieiGu2EXtoJ_4core3ops4drop4Drop4dropCs21pnhi4BuMk_18build_script_build, symObjAddr: 0x43A0, symBinAddr: 0x100009DB0, symSize: 0x20 }
  - { offset: 0x14B42, size: 0x8, addend: 0x0, symName: __RNCINvMsm_NtNtNtCslJiobkLta79_5alloc11collections5btree8navigateINtNtBa_4node6HandleINtB13_7NodeRefNtNtB13_6marker5DyingNtNtNtCsHUR1vrdMJt_3std3ffi6os_str8OsStringINtNtCsieiGu2EXtoJ_4core6option6OptionB1U_ENtB1B_4LeafENtB1B_4EdgeE27deallocating_next_uncheckedNtNtBe_5alloc6GlobalE0Cs21pnhi4BuMk_18build_script_build, symObjAddr: 0x1B70, symBinAddr: 0x100007580, symSize: 0x60 }
  - { offset: 0x15627, size: 0x8, addend: 0x0, symName: __RNvXNvMsT_NtNtNtCslJiobkLta79_5alloc11collections5btree4nodeINtB8_6HandleINtB8_7NodeRefNtNtB8_6marker5DyingpppENtB1p_2KVE12drop_key_valINtB2_7DropperINtNtCsieiGu2EXtoJ_4core6option6OptionNtNtNtCsHUR1vrdMJt_3std3ffi6os_str8OsStringEENtNtNtB2s_3ops4drop4Drop4dropCs21pnhi4BuMk_18build_script_build, symObjAddr: 0x4280, symBinAddr: 0x100009C90, symSize: 0x20 }
  - { offset: 0x1583F, size: 0x8, addend: 0x0, symName: __RNvNtCslJiobkLta79_5alloc3fmt6formatCs21pnhi4BuMk_18build_script_build, symObjAddr: 0x3360, symBinAddr: 0x100008D70, symSize: 0xC0 }
  - { offset: 0x158AE, size: 0x8, addend: 0x0, symName: __RNvXs0_NtNtCslJiobkLta79_5alloc3ffi5c_strNtB5_7CStringNtNtNtCsieiGu2EXtoJ_4core3ops4drop4Drop4dropCs21pnhi4BuMk_18build_script_build, symObjAddr: 0x42A0, symBinAddr: 0x100009CB0, symSize: 0x60 }
  - { offset: 0x15AAF, size: 0x8, addend: 0x0, symName: __RINvMNtCsieiGu2EXtoJ_4core6optionINtB3_6OptionRNtNtCsHUR1vrdMJt_3std4path7PathBufE7or_elseNCNvXs_NtNtNtB5_4iter8adapters5chainINtB1x_5ChainINtNtNtB5_5slice4iter4IterBJ_EB2d_ENtNtNtB1B_6traits8iterator8Iterator4next0ECs21pnhi4BuMk_18build_script_build, symObjAddr: 0x0, symBinAddr: 0x100005A90, symSize: 0x90 }
  - { offset: 0x15B82, size: 0x8, addend: 0x0, symName: __RINvMNtCsieiGu2EXtoJ_4core6resultINtB3_6ResultNtNtCslJiobkLta79_5alloc6string6StringNtNtNtCsHUR1vrdMJt_3std2io5error5ErrorE14unwrap_or_elseNCNvCs21pnhi4BuMk_18build_script_build15run_compilation0EB2h_, symObjAddr: 0x90, symBinAddr: 0x100005B20, symSize: 0xC0 }
  - { offset: 0x15E40, size: 0x8, addend: 0x0, symName: __RNvXs2_NtCs4xvdaJ1JWuv_14cranelift_isle7codegenNtB5_14CodegenOptionsNtNtCsieiGu2EXtoJ_4core7default7Default7defaultCs21pnhi4BuMk_18build_script_build, symObjAddr: 0x43C0, symBinAddr: 0x100009DD0, symSize: 0x10 }
  - { offset: 0x15E9C, size: 0x8, addend: 0x0, symName: __RINvMNtCsieiGu2EXtoJ_4core6resultINtB3_6ResultNtNtCslJiobkLta79_5alloc6string6StringNtNtNtCsHUR1vrdMJt_3std2io5error5ErrorE7map_errTNtNtB1q_4path7PathBufB1k_ENCINvMs0_NtCs4xvdaJ1JWuv_14cranelift_isle5filesNtB2F_5Files10from_pathsRB26_INtNtNtNtB5_4iter8adapters5chain5ChainINtNtNtB5_5slice4iter4IterB26_EB4m_EE0ECs21pnhi4BuMk_18build_script_build, symObjAddr: 0x150, symBinAddr: 0x100005BE0, symSize: 0xE0 }
  - { offset: 0x15F3D, size: 0x8, addend: 0x0, symName: __RINvMNtCsieiGu2EXtoJ_4core6resultINtB3_6ResultuNtNtNtCsHUR1vrdMJt_3std2io5error5ErrorE7map_errNtNtCs4xvdaJ1JWuv_14cranelift_isle5error6ErrorsNCNvCs21pnhi4BuMk_18build_script_build15run_compilations_0EB2j_, symObjAddr: 0x230, symBinAddr: 0x100005CC0, symSize: 0x80 }
  - { offset: 0x15FCF, size: 0x8, addend: 0x0, symName: __RINvMs5_NtNtCsHUR1vrdMJt_3std2io5errorNtB6_5Error3newNtNtCslJiobkLta79_5alloc6string6StringECs21pnhi4BuMk_18build_script_build, symObjAddr: 0x2B0, symBinAddr: 0x100005D40, symSize: 0x40 }
  - { offset: 0x1609C, size: 0x8, addend: 0x0, symName: __RINvMsb_NtNtNtCslJiobkLta79_5alloc11collections5btree8navigateINtB6_13LazyLeafRangeNtNtNtB8_4node6marker5DyingNtNtNtCsHUR1vrdMJt_3std3ffi6os_str8OsStringINtNtCsieiGu2EXtoJ_4core6option6OptionB1K_EE16deallocating_endNtNtBc_5alloc6GlobalECs21pnhi4BuMk_18build_script_build, symObjAddr: 0x2F0, symBinAddr: 0x100005D80, symSize: 0x90 }
  - { offset: 0x1616E, size: 0x8, addend: 0x0, symName: __RINvMsb_NtNtNtCslJiobkLta79_5alloc11collections5btree8navigateINtB6_13LazyLeafRangeNtNtNtB8_4node6marker5DyingNtNtNtCsHUR1vrdMJt_3std3ffi6os_str8OsStringINtNtCsieiGu2EXtoJ_4core6option6OptionB1K_EE27deallocating_next_uncheckedNtNtBc_5alloc6GlobalECs21pnhi4BuMk_18build_script_build, symObjAddr: 0x380, symBinAddr: 0x100005E10, symSize: 0xB0 }
  - { offset: 0x162F1, size: 0x8, addend: 0x0, symName: __RINvMsh_NtNtNtCslJiobkLta79_5alloc11collections5btree4nodeINtB6_7NodeRefNtNtB6_6marker5DyingNtNtNtCsHUR1vrdMJt_3std3ffi6os_str8OsStringINtNtCsieiGu2EXtoJ_4core6option6OptionB1s_ENtB1a_14LeafOrInternalE21deallocate_and_ascendNtNtBc_5alloc6GlobalECs21pnhi4BuMk_18build_script_build, symObjAddr: 0x430, symBinAddr: 0x100005EC0, symSize: 0x1A0 }
  - { offset: 0x16696, size: 0x8, addend: 0x0, symName: __RINvMsi_NtCslJiobkLta79_5alloc3vecINtB6_3VecNtNtCsfqjmhE9NbIf_22cranelift_codegen_meta3isa3IsaE16extend_desugaredINtNtNtNtCsieiGu2EXtoJ_4core4iter8adapters6filter6FilterINtNtB1S_6cloned6ClonedINtNtNtB1W_5slice4iter4IterBG_EENCNvCs21pnhi4BuMk_18build_script_build4main0EEB3E_, symObjAddr: 0x5D0, symBinAddr: 0x100006060, symSize: 0x1F0 }
  - { offset: 0x169AB, size: 0x8, addend: 0x0, symName: __RINvMsj_NtNtNtCslJiobkLta79_5alloc11collections5btree8navigateINtNtB8_4node6HandleINtB11_7NodeRefNtNtB11_6marker5DyingNtNtNtCsHUR1vrdMJt_3std3ffi6os_str8OsStringINtNtCsieiGu2EXtoJ_4core6option6OptionB1S_ENtB1z_4LeafENtB1z_4EdgeE16deallocating_endNtNtBc_5alloc6GlobalECs21pnhi4BuMk_18build_script_build, symObjAddr: 0x7C0, symBinAddr: 0x100006250, symSize: 0xF0 }
  - { offset: 0x16C2E, size: 0x8, addend: 0x0, symName: __RINvMsj_NtNtNtCslJiobkLta79_5alloc11collections5btree8navigateINtNtB8_4node6HandleINtB11_7NodeRefNtNtB11_6marker5DyingNtNtNtCsHUR1vrdMJt_3std3ffi6os_str8OsStringINtNtCsieiGu2EXtoJ_4core6option6OptionB1S_ENtB1z_4LeafENtB1z_4EdgeE17deallocating_nextNtNtBc_5alloc6GlobalECs21pnhi4BuMk_18build_script_build, symObjAddr: 0x8B0, symBinAddr: 0x100006340, symSize: 0x370 }
  - { offset: 0x16FE8, size: 0x8, addend: 0x0, symName: __RNvMNtCsieiGu2EXtoJ_4core6optionINtB2_6OptionNtNtCsHUR1vrdMJt_3std7process10ChildStdinE4takeCs21pnhi4BuMk_18build_script_build, symObjAddr: 0x1D40, symBinAddr: 0x100007750, symSize: 0x20 }
  - { offset: 0x1703F, size: 0x8, addend: 0x0, symName: __RNvMNtCsieiGu2EXtoJ_4core6optionINtB2_6OptionNtNtCsHUR1vrdMJt_3std7process11ChildStdoutE4takeCs21pnhi4BuMk_18build_script_build, symObjAddr: 0x1D60, symBinAddr: 0x100007770, symSize: 0x20 }
  - { offset: 0x17096, size: 0x8, addend: 0x0, symName: __RNvMNtCsieiGu2EXtoJ_4core6optionINtB2_6OptionNtNtCsHUR1vrdMJt_3std7process11ChildStdoutE6as_mutCs21pnhi4BuMk_18build_script_build, symObjAddr: 0x1D80, symBinAddr: 0x100007790, symSize: 0x40 }
  - { offset: 0x170E0, size: 0x8, addend: 0x0, symName: __RNvMNtCsieiGu2EXtoJ_4core6resultINtB2_6ResultNtNtCsHUR1vrdMJt_3std4path7PathBufNtNtNtBL_2io5error5ErrorE6expectCs21pnhi4BuMk_18build_script_build, symObjAddr: 0x1DC0, symBinAddr: 0x1000077D0, symSize: 0xD0 }
  - { offset: 0x17143, size: 0x8, addend: 0x0, symName: __RNvMNtCsieiGu2EXtoJ_4core6resultINtB2_6ResultNtNtCsfqjmhE9NbIf_22cranelift_codegen_meta3isa3IsaNtNtCslJiobkLta79_5alloc6string6StringE6expectCs21pnhi4BuMk_18build_script_build, symObjAddr: 0x1E90, symBinAddr: 0x1000078A0, symSize: 0xC0 }
  - { offset: 0x171A6, size: 0x8, addend: 0x0, symName: __RNvMNtCsieiGu2EXtoJ_4core6resultINtB2_6ResultNtNtCslJiobkLta79_5alloc6string6StringNtBJ_13FromUtf8ErrorE6expectCs21pnhi4BuMk_18build_script_build, symObjAddr: 0x1F50, symBinAddr: 0x100007960, symSize: 0xF0 }
  - { offset: 0x17217, size: 0x8, addend: 0x0, symName: __RNvMNtCsieiGu2EXtoJ_4core6resultINtB2_6ResultNtNtCslJiobkLta79_5alloc6string6StringNtNtCsHUR1vrdMJt_3std3env8VarErrorE5is_okCs21pnhi4BuMk_18build_script_build, symObjAddr: 0x2040, symBinAddr: 0x100007A50, symSize: 0x20 }
  - { offset: 0x1724C, size: 0x8, addend: 0x0, symName: __RNvMNtCsieiGu2EXtoJ_4core6resultINtB2_6ResultNtNtCslJiobkLta79_5alloc6string6StringNtNtCsHUR1vrdMJt_3std3env8VarErrorE6expectCs21pnhi4BuMk_18build_script_build, symObjAddr: 0x2060, symBinAddr: 0x100007A70, symSize: 0xC0 }
  - { offset: 0x172AF, size: 0x8, addend: 0x0, symName: __RNvMNtCsieiGu2EXtoJ_4core6resultINtB2_6ResultNtNtCslJiobkLta79_5alloc6string6StringNtNtCsHUR1vrdMJt_3std3env8VarErrorE9unwrap_orCs21pnhi4BuMk_18build_script_build, symObjAddr: 0x2120, symBinAddr: 0x100007B30, symSize: 0xE0 }
  - { offset: 0x17313, size: 0x8, addend: 0x0, symName: __RNvMNtCslJiobkLta79_5alloc3vecINtB2_3VechE3newCs21pnhi4BuMk_18build_script_build, symObjAddr: 0x2200, symBinAddr: 0x100007C10, symSize: 0x30 }
  - { offset: 0x17382, size: 0x8, addend: 0x0, symName: __RNvMs0_NtCslJiobkLta79_5alloc7raw_vecINtB5_6RawVecNtNtCsfqjmhE9NbIf_22cranelift_codegen_meta3isa3IsaE8grow_oneCs21pnhi4BuMk_18build_script_build, symObjAddr: 0x2230, symBinAddr: 0x100007C40, symSize: 0x90 }
  - { offset: 0x17488, size: 0x8, addend: 0x0, symName: __RNvMs2_NtCslJiobkLta79_5alloc7raw_vecNtB5_11RawVecInner11try_reserveCs21pnhi4BuMk_18build_script_build, symObjAddr: 0x22C0, symBinAddr: 0x100007CD0, symSize: 0x230 }
  - { offset: 0x177BC, size: 0x8, addend: 0x0, symName: __RNvMsO_NtNtNtCslJiobkLta79_5alloc11collections5btree4nodeINtB5_6HandleINtB5_7NodeRefNtNtB5_6marker5DyingNtNtNtCsHUR1vrdMJt_3std3ffi6os_str8OsStringINtNtCsieiGu2EXtoJ_4core6option6OptionB1E_ENtB1m_8InternalENtB1m_4EdgeE7descendCs21pnhi4BuMk_18build_script_build, symObjAddr: 0x24F0, symBinAddr: 0x100007F00, symSize: 0x80 }
  - { offset: 0x17AAB, size: 0x8, addend: 0x0, symName: __RNvMsT_NtNtNtCslJiobkLta79_5alloc11collections5btree4nodeINtB5_6HandleINtB5_7NodeRefNtNtB5_6marker5DyingNtNtNtCsHUR1vrdMJt_3std3ffi6os_str8OsStringINtNtCsieiGu2EXtoJ_4core6option6OptionB1E_ENtB1m_14LeafOrInternalENtB1m_2KVE12drop_key_valCs21pnhi4BuMk_18build_script_build, symObjAddr: 0x2570, symBinAddr: 0x100007F80, symSize: 0x140 }
  - { offset: 0x17C94, size: 0x8, addend: 0x0, symName: __RNvMs_NtCslJiobkLta79_5alloc3vecINtB4_3VecNtNtCsfqjmhE9NbIf_22cranelift_codegen_meta3isa3IsaE4pushCs21pnhi4BuMk_18build_script_build, symObjAddr: 0x26B0, symBinAddr: 0x1000080C0, symSize: 0x20 }
  - { offset: 0x17DE1, size: 0x8, addend: 0x0, symName: __RNvMs_NtCslJiobkLta79_5alloc3vecINtB4_3VecNtNtCsfqjmhE9NbIf_22cranelift_codegen_meta3isa3IsaE7reserveCs21pnhi4BuMk_18build_script_build, symObjAddr: 0x26D0, symBinAddr: 0x1000080E0, symSize: 0xB0 }
  - { offset: 0x17FE5, size: 0x8, addend: 0x0, symName: __RNvMs_NtCslJiobkLta79_5alloc3vecINtB4_3VecNtNtCsfqjmhE9NbIf_22cranelift_codegen_meta3isa3IsaE8as_sliceCs21pnhi4BuMk_18build_script_build, symObjAddr: 0x2780, symBinAddr: 0x100008190, symSize: 0x50 }
  - { offset: 0x180C4, size: 0x8, addend: 0x0, symName: __RNvMs_NtCslJiobkLta79_5alloc3vecINtB4_3VecNtNtCsfqjmhE9NbIf_22cranelift_codegen_meta3isa3IsaE8is_emptyCs21pnhi4BuMk_18build_script_build, symObjAddr: 0x27D0, symBinAddr: 0x1000081E0, symSize: 0x20 }
  - { offset: 0x18203, size: 0x8, addend: 0x0, symName: __RNvMs_NtCslJiobkLta79_5alloc3vecINtB4_3VecNtNtCsfqjmhE9NbIf_22cranelift_codegen_meta3isa3IsaE8push_mutCs21pnhi4BuMk_18build_script_build, symObjAddr: 0x27F0, symBinAddr: 0x100008200, symSize: 0xC0 }
  - { offset: 0x18530, size: 0x8, addend: 0x0, symName: __RNvMsb_NtNtNtCslJiobkLta79_5alloc11collections5btree8navigateINtB5_13LazyLeafRangeNtNtNtB7_4node6marker5DyingNtNtNtCsHUR1vrdMJt_3std3ffi6os_str8OsStringINtNtCsieiGu2EXtoJ_4core6option6OptionB1J_EE10take_frontCs21pnhi4BuMk_18build_script_build, symObjAddr: 0x28B0, symBinAddr: 0x1000082C0, symSize: 0x2E0 }
  - { offset: 0x1888F, size: 0x8, addend: 0x0, symName: __RNvMsc_NtNtNtCslJiobkLta79_5alloc11collections5btree8navigateINtB5_13LazyLeafRangeNtNtNtB7_4node6marker5DyingNtNtNtCsHUR1vrdMJt_3std3ffi6os_str8OsStringINtNtCsieiGu2EXtoJ_4core6option6OptionB1J_EE10init_frontCs21pnhi4BuMk_18build_script_build, symObjAddr: 0x2B90, symBinAddr: 0x1000085A0, symSize: 0x280 }
  - { offset: 0x18B3F, size: 0x8, addend: 0x0, symName: __RNvMse_NtNtNtCslJiobkLta79_5alloc11collections5btree4nodeINtB5_7NodeRefNtNtB5_6marker5DyingNtNtNtCsHUR1vrdMJt_3std3ffi6os_str8OsStringINtNtCsieiGu2EXtoJ_4core6option6OptionB1r_ENtB19_14LeafOrInternalE6ascendCs21pnhi4BuMk_18build_script_build, symObjAddr: 0x2E10, symBinAddr: 0x100008820, symSize: 0x230 }
  - { offset: 0x18EC7, size: 0x8, addend: 0x0, symName: __RNvMsp_NtNtNtCslJiobkLta79_5alloc11collections5btree8navigateINtNtB7_4node6HandleINtB10_7NodeRefNtNtB10_6marker5DyingNtNtNtCsHUR1vrdMJt_3std3ffi6os_str8OsStringINtNtCsieiGu2EXtoJ_4core6option6OptionB1R_ENtB1y_14LeafOrInternalENtB1y_2KVE14next_leaf_edgeCs21pnhi4BuMk_18build_script_build, symObjAddr: 0x3040, symBinAddr: 0x100008A50, symSize: 0x320 }
  - { offset: 0x1A02C, size: 0x8, addend: 0x0, symName: __RINvNtCsHUR1vrdMJt_3std2io16append_to_stringNCINvB2_22default_read_to_stringNtNtB4_7process11ChildStdoutE0ECs21pnhi4BuMk_18build_script_build, symObjAddr: 0x0, symBinAddr: 0x10000A670, symSize: 0x2B0 }
  - { offset: 0x1A442, size: 0x8, addend: 0x0, symName: __RNCINvNtCsHUR1vrdMJt_3std2io22default_read_to_stringNtNtB6_7process11ChildStdoutE0Cs21pnhi4BuMk_18build_script_build, symObjAddr: 0x1600, symBinAddr: 0x10000BC70, symSize: 0x40 }
  - { offset: 0x1A49E, size: 0x8, addend: 0x0, symName: __RINvNtCsHUR1vrdMJt_3std2io16append_to_stringNCINvB2_22default_read_to_stringNtNtB4_7process11ChildStdoutE0ECs21pnhi4BuMk_18build_script_build, symObjAddr: 0x0, symBinAddr: 0x10000A670, symSize: 0x2B0 }
  - { offset: 0x1A83F, size: 0x8, addend: 0x0, symName: __RINvNvNtCsHUR1vrdMJt_3std2io19default_read_to_end16small_probe_readNtNtB6_7process11ChildStdoutECs21pnhi4BuMk_18build_script_build, symObjAddr: 0x1140, symBinAddr: 0x10000B7B0, symSize: 0x330 }
  - { offset: 0x1ABAB, size: 0x8, addend: 0x0, symName: __RNCINvNtCsHUR1vrdMJt_3std2io19default_read_to_endNtNtB6_7process11ChildStdoutE0Cs21pnhi4BuMk_18build_script_build, symObjAddr: 0x1470, symBinAddr: 0x10000BAE0, symSize: 0x190 }
  - { offset: 0x1AD45, size: 0x8, addend: 0x0, symName: __RINvNtCsHUR1vrdMJt_3std2io19default_read_to_endNtNtB4_7process11ChildStdoutECs21pnhi4BuMk_18build_script_build, symObjAddr: 0x2B0, symBinAddr: 0x10000A920, symSize: 0xE90 }
  - { offset: 0x1D13E, size: 0x8, addend: 0x0, symName: __RNvXs1_NtNtNtCsieiGu2EXtoJ_4core3ops8function5implsQNCNvCs21pnhi4BuMk_18build_script_build4main0INtB7_5FnMutTRNtNtCsfqjmhE9NbIf_22cranelift_codegen_meta3isa3IsaEE8call_mutBS_, symObjAddr: 0x4710, symBinAddr: 0x10000ED80, symSize: 0x30 }
  - { offset: 0x1FDFD, size: 0x8, addend: 0x0, symName: __RNCNvCs21pnhi4BuMk_18build_script_build15run_compilation0B3_, symObjAddr: 0x1640, symBinAddr: 0x10000BCB0, symSize: 0x100 }
  - { offset: 0x1FE57, size: 0x8, addend: 0x0, symName: __RNCNvCs21pnhi4BuMk_18build_script_build15run_compilations_0B3_, symObjAddr: 0x1740, symBinAddr: 0x10000BDB0, symSize: 0x40 }
  - { offset: 0x1FE9A, size: 0x8, addend: 0x0, symName: __RNCNvCs21pnhi4BuMk_18build_script_build4main0B3_, symObjAddr: 0x1780, symBinAddr: 0x10000BDF0, symSize: 0x280 }
  - { offset: 0x1FF3D, size: 0x8, addend: 0x0, symName: __RNvCs21pnhi4BuMk_18build_script_build10build_isle, symObjAddr: 0x1A00, symBinAddr: 0x10000C070, symSize: 0x7A0 }
  - { offset: 0x200D9, size: 0x8, addend: 0x0, symName: __RNvCs21pnhi4BuMk_18build_script_build15run_compilation, symObjAddr: 0x21A0, symBinAddr: 0x10000C810, symSize: 0x4F0 }
  - { offset: 0x20203, size: 0x8, addend: 0x0, symName: __RNvCs21pnhi4BuMk_18build_script_build30make_isle_source_path_relative, symObjAddr: 0x2690, symBinAddr: 0x10000CD00, symSize: 0xB0 }
  - { offset: 0x20252, size: 0x8, addend: 0x0, symName: __RNvCs21pnhi4BuMk_18build_script_build4main, symObjAddr: 0x2740, symBinAddr: 0x10000CDB0, symSize: 0x18B0 }
  - { offset: 0x2073A, size: 0x8, addend: 0x0, symName: __RNvCs21pnhi4BuMk_18build_script_build7rustfmt, symObjAddr: 0x3FF0, symBinAddr: 0x10000E660, symSize: 0x720 }
  - { offset: 0x20FE7, size: 0x8, addend: 0x0, symName: __RINvMs6_NtCsjK30CmJ87bX_9hashbrown3rawINtB6_8RawTableTNtNtCs4xvdaJ1JWuv_14cranelift_isle10trie_again7BindingNtBS_9BindingIdEE14reserve_rehashNCINvNtB8_3map11make_hasherBQ_B1I_NtNtNtCsHUR1vrdMJt_3std4hash6random11RandomStateE0EBU_, symObjAddr: 0x0, symBinAddr: 0x10023B580, symSize: 0xD50 }
  - { offset: 0x21023, size: 0x8, addend: 0x0, symName: __RNCINvMs6_NtCsjK30CmJ87bX_9hashbrown3rawINtB8_8RawTableTNtNtCs4xvdaJ1JWuv_14cranelift_isle10trie_again7BindingNtBU_9BindingIdEE14reserve_rehashNCINvNtBa_3map11make_hasherBS_B1K_NtNtNtCsHUR1vrdMJt_3std4hash6random11RandomStateE0E0BW_, symObjAddr: 0x154A0, symBinAddr: 0x100018800, symSize: 0xB0 }
  - { offset: 0x211E9, size: 0x8, addend: 0x0, symName: __RNCINvMs6_NtCsjK30CmJ87bX_9hashbrown3rawINtB8_8RawTableTNtNtCs4xvdaJ1JWuv_14cranelift_isle10trie_again7BindingNtBU_9BindingIdEE14reserve_rehashNCINvNtBa_3map11make_hasherBS_B1K_NtNtNtCsHUR1vrdMJt_3std4hash6random11RandomStateE0Es_0BW_, symObjAddr: 0x15550, symBinAddr: 0x1000188B0, symSize: 0x30 }
  - { offset: 0x21239, size: 0x8, addend: 0x0, symName: __RNCINvMs6_NtCsjK30CmJ87bX_9hashbrown3rawINtB8_8RawTableTNtNtCs4xvdaJ1JWuv_14cranelift_isle10trie_again9BindingIdNtBU_10ConstraintEE14reserve_rehashNCINvNtBa_3map11make_hasherBS_B1M_NtNtNtCsHUR1vrdMJt_3std4hash6random11RandomStateE0E0BW_, symObjAddr: 0x156E0, symBinAddr: 0x100018A40, symSize: 0xB0 }
  - { offset: 0x213FF, size: 0x8, addend: 0x0, symName: __RNCINvMs6_NtCsjK30CmJ87bX_9hashbrown3rawINtB8_8RawTableTNtNtCs4xvdaJ1JWuv_14cranelift_isle10trie_again9BindingIdTBS_hEEE14reserve_rehashNCINvNtBa_3map11make_hasherBS_B1M_NtNtNtCsHUR1vrdMJt_3std4hash6random11RandomStateE0E0BW_, symObjAddr: 0x158F0, symBinAddr: 0x100018C50, symSize: 0xB0 }
  - { offset: 0x215C5, size: 0x8, addend: 0x0, symName: __RNCINvMs6_NtCsjK30CmJ87bX_9hashbrown3rawINtB8_8RawTableTNtNtCs4xvdaJ1JWuv_14cranelift_isle10trie_again9BindingIduEE14reserve_rehashNCINvNtBa_3map11make_hasherBS_uNtNtNtCsHUR1vrdMJt_3std4hash6random11RandomStateE0E0BW_, symObjAddr: 0x15B00, symBinAddr: 0x100018E60, symSize: 0xB0 }
  - { offset: 0x2178B, size: 0x8, addend: 0x0, symName: __RNCINvMs6_NtCsjK30CmJ87bX_9hashbrown3rawINtB8_8RawTableTNtNtCs4xvdaJ1JWuv_14cranelift_isle4sema3SymNtBU_6TermIdEE14reserve_rehashNCINvNtBa_3map11make_hasherBS_B1z_NtNtNtCsHUR1vrdMJt_3std4hash6random11RandomStateE0E0BW_, symObjAddr: 0x15D10, symBinAddr: 0x100019070, symSize: 0xB0 }
  - { offset: 0x21951, size: 0x8, addend: 0x0, symName: __RNCINvMs6_NtCsjK30CmJ87bX_9hashbrown3rawINtB8_8RawTableTNtNtCs4xvdaJ1JWuv_14cranelift_isle4sema3SymNtBU_6TypeIdEE14reserve_rehashNCINvNtBa_3map11make_hasherBS_B1z_NtNtNtCsHUR1vrdMJt_3std4hash6random11RandomStateE0E0BW_, symObjAddr: 0x15F20, symBinAddr: 0x100019280, symSize: 0xB0 }
  - { offset: 0x21B17, size: 0x8, addend: 0x0, symName: __RNCINvMs6_NtCsjK30CmJ87bX_9hashbrown3rawINtB8_8RawTableTNtNtCs4xvdaJ1JWuv_14cranelift_isle4sema5VarIdNtNtBW_10trie_again9BindingIdEE14reserve_rehashNCINvNtBa_3map11make_hasherBS_B1B_NtNtNtCsHUR1vrdMJt_3std4hash6random11RandomStateE0E0BW_, symObjAddr: 0x16130, symBinAddr: 0x100019490, symSize: 0xB0 }
  - { offset: 0x21CDD, size: 0x8, addend: 0x0, symName: __RNCINvMs6_NtCsjK30CmJ87bX_9hashbrown3rawINtB8_8RawTableTNtNtCs4xvdaJ1JWuv_14cranelift_isle4sema6TermIdNtNtBW_10trie_again14RuleSetBuilderEE14reserve_rehashNCINvNtBa_3map11make_hasherBS_B1C_NtNtNtCsHUR1vrdMJt_3std4hash6random11RandomStateE0E0BW_, symObjAddr: 0x16340, symBinAddr: 0x1000196A0, symSize: 0xB0 }
  - { offset: 0x21EA3, size: 0x8, addend: 0x0, symName: __RNCINvMs6_NtCsjK30CmJ87bX_9hashbrown3rawINtB8_8RawTableTNtNtCs4xvdaJ1JWuv_14cranelift_isle4sema6TermIdNtNtBW_10trie_again14RuleSetBuilderEE14reserve_rehashNCINvNtBa_3map11make_hasherBS_B1C_NtNtNtCsHUR1vrdMJt_3std4hash6random11RandomStateE0Es_0BW_, symObjAddr: 0x163F0, symBinAddr: 0x100019750, symSize: 0x30 }
  - { offset: 0x21EF3, size: 0x8, addend: 0x0, symName: __RNCINvMs6_NtCsjK30CmJ87bX_9hashbrown3rawINtB8_8RawTableTNtNtCs4xvdaJ1JWuv_14cranelift_isle4sema6TermIduEE14reserve_rehashNCINvNtBa_3map11make_hasherBS_uNtNtNtCsHUR1vrdMJt_3std4hash6random11RandomStateE0E0BW_, symObjAddr: 0x164D0, symBinAddr: 0x100019830, symSize: 0xB0 }
  - { offset: 0x220B9, size: 0x8, addend: 0x0, symName: __RNCINvMs6_NtCsjK30CmJ87bX_9hashbrown3rawINtB8_8RawTableTNtNtCs4xvdaJ1JWuv_14cranelift_isle5lexer3PosINtNtCslJiobkLta79_5alloc3vec3VecBS_EEE14reserve_rehashNCINvNtBa_3map11make_hasherBS_B1A_NtNtNtCsHUR1vrdMJt_3std4hash6random11RandomStateE0E0BW_, symObjAddr: 0x16630, symBinAddr: 0x100019990, symSize: 0xB0 }
  - { offset: 0x2227F, size: 0x8, addend: 0x0, symName: __RNCINvMs6_NtCsjK30CmJ87bX_9hashbrown3rawINtB8_8RawTableTNtNtCs4xvdaJ1JWuv_14cranelift_isle5lexer3PosINtNtCslJiobkLta79_5alloc3vec3VecBS_EEE14reserve_rehashNCINvNtBa_3map11make_hasherBS_B1A_NtNtNtCsHUR1vrdMJt_3std4hash6random11RandomStateE0Es_0BW_, symObjAddr: 0x166E0, symBinAddr: 0x100019A40, symSize: 0x30 }
  - { offset: 0x222CF, size: 0x8, addend: 0x0, symName: __RNCINvMs6_NtCsjK30CmJ87bX_9hashbrown3rawINtB8_8RawTableTNtNtCs4xvdaJ1JWuv_14cranelift_isle5lexer3PosINtNtNtNtCsHUR1vrdMJt_3std11collections4hash3set7HashSetBS_EEE14reserve_rehashNCINvNtBa_3map11make_hasherBS_B1A_NtNtNtB1J_4hash6random11RandomStateE0E0BW_, symObjAddr: 0x167C0, symBinAddr: 0x100019B20, symSize: 0xB0 }
  - { offset: 0x22495, size: 0x8, addend: 0x0, symName: __RNCINvMs6_NtCsjK30CmJ87bX_9hashbrown3rawINtB8_8RawTableTNtNtCs4xvdaJ1JWuv_14cranelift_isle5lexer3PosINtNtNtNtCsHUR1vrdMJt_3std11collections4hash3set7HashSetBS_EEE14reserve_rehashNCINvNtBa_3map11make_hasherBS_B1A_NtNtNtB1J_4hash6random11RandomStateE0Es_0BW_, symObjAddr: 0x16870, symBinAddr: 0x100019BD0, symSize: 0x30 }
  - { offset: 0x224E5, size: 0x8, addend: 0x0, symName: __RNCINvMs6_NtCsjK30CmJ87bX_9hashbrown3rawINtB8_8RawTableTNtNtCs4xvdaJ1JWuv_14cranelift_isle5lexer3PosuEE14reserve_rehashNCINvNtBa_3map11make_hasherBS_uNtNtNtCsHUR1vrdMJt_3std4hash6random11RandomStateE0E0BW_, symObjAddr: 0x16A00, symBinAddr: 0x100019D60, symSize: 0xB0 }
  - { offset: 0x226AB, size: 0x8, addend: 0x0, symName: __RNCINvMs6_NtCsjK30CmJ87bX_9hashbrown3rawINtB8_8RawTableTNtNtCslJiobkLta79_5alloc6string6StringNtNtCs4xvdaJ1JWuv_14cranelift_isle4sema3SymEE14reserve_rehashNCINvNtBa_3map11make_hasherBS_B1u_NtNtNtCsHUR1vrdMJt_3std4hash6random11RandomStateE0E0B1y_, symObjAddr: 0x16C10, symBinAddr: 0x100019F70, symSize: 0xB0 }
  - { offset: 0x22871, size: 0x8, addend: 0x0, symName: __RNCINvMs6_NtCsjK30CmJ87bX_9hashbrown3rawINtB8_8RawTableTNtNtCslJiobkLta79_5alloc6string6StringNtNtCs4xvdaJ1JWuv_14cranelift_isle4sema3SymEE14reserve_rehashNCINvNtBa_3map11make_hasherBS_B1u_NtNtNtCsHUR1vrdMJt_3std4hash6random11RandomStateE0Es_0B1y_, symObjAddr: 0x16CC0, symBinAddr: 0x10001A020, symSize: 0x30 }
  - { offset: 0x228C1, size: 0x8, addend: 0x0, symName: __RNCINvMs6_NtCsjK30CmJ87bX_9hashbrown3rawINtB8_8RawTableTTNtNtCs4xvdaJ1JWuv_14cranelift_isle4sema6TypeIdBT_ENtBV_6TermIdEE14reserve_rehashNCINvNtBa_3map11make_hasherBS_B1H_NtNtNtCsHUR1vrdMJt_3std4hash6random11RandomStateE0E0BX_, symObjAddr: 0x16E50, symBinAddr: 0x10001A1B0, symSize: 0xB0 }
  - { offset: 0x22AB0, size: 0x8, addend: 0x0, symName: __RNCINvMs6_NtCsjK30CmJ87bX_9hashbrown3rawINtB8_8RawTableTNtNtCs4xvdaJ1JWuv_14cranelift_isle10trie_again7BindingNtBU_9BindingIdEE24find_or_find_insert_slotNCINvNtBa_3map14equivalent_keyBS_BS_B1K_E0NCINvB2w_11make_hasherBS_B1K_NtNtNtCsHUR1vrdMJt_3std4hash6random11RandomStateE0E0BW_, symObjAddr: 0x15580, symBinAddr: 0x1000188E0, symSize: 0xB0 }
  - { offset: 0x22C86, size: 0x8, addend: 0x0, symName: __RNCINvMs6_NtCsjK30CmJ87bX_9hashbrown3rawINtB8_8RawTableTNtNtCs4xvdaJ1JWuv_14cranelift_isle10trie_again9BindingIdTBS_hEEE24find_or_find_insert_slotNCINvNtBa_3map14equivalent_keyBS_BS_B1M_E0NCINvB2p_11make_hasherBS_B1M_NtNtNtCsHUR1vrdMJt_3std4hash6random11RandomStateE0E0BW_, symObjAddr: 0x159A0, symBinAddr: 0x100018D00, symSize: 0xB0 }
  - { offset: 0x22E5C, size: 0x8, addend: 0x0, symName: __RNCINvMs6_NtCsjK30CmJ87bX_9hashbrown3rawINtB8_8RawTableTNtNtCs4xvdaJ1JWuv_14cranelift_isle10trie_again9BindingIduEE24find_or_find_insert_slotNCINvNtBa_3map14equivalent_keyBS_BS_uE0NCINvB2k_11make_hasherBS_uNtNtNtCsHUR1vrdMJt_3std4hash6random11RandomStateE0E0BW_, symObjAddr: 0x15BB0, symBinAddr: 0x100018F10, symSize: 0xB0 }
  - { offset: 0x23032, size: 0x8, addend: 0x0, symName: __RNCINvMs6_NtCsjK30CmJ87bX_9hashbrown3rawINtB8_8RawTableTNtNtCs4xvdaJ1JWuv_14cranelift_isle4sema3SymNtBU_6TermIdEE24find_or_find_insert_slotNCINvNtBa_3map14equivalent_keyBS_BS_B1z_E0NCINvB2i_11make_hasherBS_B1z_NtNtNtCsHUR1vrdMJt_3std4hash6random11RandomStateE0E0BW_, symObjAddr: 0x15DC0, symBinAddr: 0x100019120, symSize: 0xB0 }
  - { offset: 0x23208, size: 0x8, addend: 0x0, symName: __RNCINvMs6_NtCsjK30CmJ87bX_9hashbrown3rawINtB8_8RawTableTNtNtCs4xvdaJ1JWuv_14cranelift_isle4sema3SymNtBU_6TypeIdEE24find_or_find_insert_slotNCINvNtBa_3map14equivalent_keyBS_BS_B1z_E0NCINvB2i_11make_hasherBS_B1z_NtNtNtCsHUR1vrdMJt_3std4hash6random11RandomStateE0E0BW_, symObjAddr: 0x15FD0, symBinAddr: 0x100019330, symSize: 0xB0 }
  - { offset: 0x233DE, size: 0x8, addend: 0x0, symName: __RNCINvMs6_NtCsjK30CmJ87bX_9hashbrown3rawINtB8_8RawTableTNtNtCs4xvdaJ1JWuv_14cranelift_isle4sema5VarIdNtNtBW_10trie_again9BindingIdEE24find_or_find_insert_slotNCINvNtBa_3map14equivalent_keyBS_BS_B1B_E0NCINvB2B_11make_hasherBS_B1B_NtNtNtCsHUR1vrdMJt_3std4hash6random11RandomStateE0E0BW_, symObjAddr: 0x161E0, symBinAddr: 0x100019540, symSize: 0xB0 }
  - { offset: 0x235B4, size: 0x8, addend: 0x0, symName: __RNCINvMs6_NtCsjK30CmJ87bX_9hashbrown3rawINtB8_8RawTableTNtNtCs4xvdaJ1JWuv_14cranelift_isle4sema6TermIduEE24find_or_find_insert_slotNCINvNtBa_3map14equivalent_keyBS_BS_uE0NCINvB2a_11make_hasherBS_uNtNtNtCsHUR1vrdMJt_3std4hash6random11RandomStateE0E0BW_, symObjAddr: 0x16580, symBinAddr: 0x1000198E0, symSize: 0xB0 }
  - { offset: 0x2378A, size: 0x8, addend: 0x0, symName: __RNCINvMs6_NtCsjK30CmJ87bX_9hashbrown3rawINtB8_8RawTableTNtNtCs4xvdaJ1JWuv_14cranelift_isle5lexer3PosuEE24find_or_find_insert_slotNCINvNtBa_3map14equivalent_keyBS_BS_uE0NCINvB28_11make_hasherBS_uNtNtNtCsHUR1vrdMJt_3std4hash6random11RandomStateE0E0BW_, symObjAddr: 0x16AB0, symBinAddr: 0x100019E10, symSize: 0xB0 }
  - { offset: 0x23960, size: 0x8, addend: 0x0, symName: __RNCINvMs6_NtCsjK30CmJ87bX_9hashbrown3rawINtB8_8RawTableTNtNtCslJiobkLta79_5alloc6string6StringNtNtCs4xvdaJ1JWuv_14cranelift_isle4sema3SymEE24find_or_find_insert_slotNCINvNtBa_3map14equivalent_keyBS_BS_B1u_E0NCINvB2I_11make_hasherBS_B1u_NtNtNtCsHUR1vrdMJt_3std4hash6random11RandomStateE0E0B1y_, symObjAddr: 0x16CF0, symBinAddr: 0x10001A050, symSize: 0xB0 }
  - { offset: 0x23B3C, size: 0x8, addend: 0x0, symName: __RNCINvMs6_NtCsjK30CmJ87bX_9hashbrown3rawINtB8_8RawTableTNtNtCs4xvdaJ1JWuv_14cranelift_isle10trie_again7BindingNtBU_9BindingIdEE4findNCINvNtBa_3map14equivalent_keyBS_BS_B1K_E0E0BW_, symObjAddr: 0x15630, symBinAddr: 0x100018990, symSize: 0xB0 }
  - { offset: 0x23D09, size: 0x8, addend: 0x0, symName: __RNCINvMs6_NtCsjK30CmJ87bX_9hashbrown3rawINtB8_8RawTableTNtNtCs4xvdaJ1JWuv_14cranelift_isle10trie_again9BindingIdNtBU_10ConstraintEE4findNCINvNtBa_3map14equivalent_keyBS_BS_B1M_E0E0BW_, symObjAddr: 0x15790, symBinAddr: 0x100018AF0, symSize: 0xB0 }
  - { offset: 0x23ED6, size: 0x8, addend: 0x0, symName: __RNCINvMs6_NtCsjK30CmJ87bX_9hashbrown3rawINtB8_8RawTableTNtNtCs4xvdaJ1JWuv_14cranelift_isle10trie_again9BindingIdNtBU_10ConstraintEE4findNCNvMNtBa_11rustc_entryINtNtBa_3map7HashMapBS_B1M_NtNtNtCsHUR1vrdMJt_3std4hash6random11RandomStateE11rustc_entry0E0BW_, symObjAddr: 0x15840, symBinAddr: 0x100018BA0, symSize: 0xB0 }
  - { offset: 0x240A3, size: 0x8, addend: 0x0, symName: __RNCINvMs6_NtCsjK30CmJ87bX_9hashbrown3rawINtB8_8RawTableTNtNtCs4xvdaJ1JWuv_14cranelift_isle10trie_again9BindingIdTBS_hEEE4findNCINvNtBa_3map14equivalent_keyBS_BS_B1M_E0E0BW_, symObjAddr: 0x15A50, symBinAddr: 0x100018DB0, symSize: 0xB0 }
  - { offset: 0x24270, size: 0x8, addend: 0x0, symName: __RNCINvMs6_NtCsjK30CmJ87bX_9hashbrown3rawINtB8_8RawTableTNtNtCs4xvdaJ1JWuv_14cranelift_isle10trie_again9BindingIduEE4findNCINvNtBa_3map14equivalent_keyBS_BS_uE0E0BW_, symObjAddr: 0x15C60, symBinAddr: 0x100018FC0, symSize: 0xB0 }
  - { offset: 0x2443D, size: 0x8, addend: 0x0, symName: __RNCINvMs6_NtCsjK30CmJ87bX_9hashbrown3rawINtB8_8RawTableTNtNtCs4xvdaJ1JWuv_14cranelift_isle4sema3SymNtBU_6TermIdEE4findNCINvNtBa_3map14equivalent_keyBS_BS_B1z_E0E0BW_, symObjAddr: 0x15E70, symBinAddr: 0x1000191D0, symSize: 0xB0 }
  - { offset: 0x2460A, size: 0x8, addend: 0x0, symName: __RNCINvMs6_NtCsjK30CmJ87bX_9hashbrown3rawINtB8_8RawTableTNtNtCs4xvdaJ1JWuv_14cranelift_isle4sema3SymNtBU_6TypeIdEE4findNCINvNtBa_3map14equivalent_keyBS_BS_B1z_E0E0BW_, symObjAddr: 0x16080, symBinAddr: 0x1000193E0, symSize: 0xB0 }
  - { offset: 0x247D7, size: 0x8, addend: 0x0, symName: __RNCINvMs6_NtCsjK30CmJ87bX_9hashbrown3rawINtB8_8RawTableTNtNtCs4xvdaJ1JWuv_14cranelift_isle4sema5VarIdNtNtBW_10trie_again9BindingIdEE4findNCINvNtBa_3map14equivalent_keyBS_BS_B1B_E0E0BW_, symObjAddr: 0x16290, symBinAddr: 0x1000195F0, symSize: 0xB0 }
  - { offset: 0x249A4, size: 0x8, addend: 0x0, symName: __RNCINvMs6_NtCsjK30CmJ87bX_9hashbrown3rawINtB8_8RawTableTNtNtCs4xvdaJ1JWuv_14cranelift_isle4sema6TermIdNtNtBW_10trie_again14RuleSetBuilderEE4findNCNvMNtBa_11rustc_entryINtNtBa_3map7HashMapBS_B1C_NtNtNtCsHUR1vrdMJt_3std4hash6random11RandomStateE11rustc_entry0E0BW_, symObjAddr: 0x16420, symBinAddr: 0x100019780, symSize: 0xB0 }
  - { offset: 0x24B71, size: 0x8, addend: 0x0, symName: __RNCINvMs6_NtCsjK30CmJ87bX_9hashbrown3rawINtB8_8RawTableTNtNtCs4xvdaJ1JWuv_14cranelift_isle5lexer3PosINtNtCslJiobkLta79_5alloc3vec3VecBS_EEE4findNCNvMNtBa_11rustc_entryINtNtBa_3map7HashMapBS_B1A_NtNtNtCsHUR1vrdMJt_3std4hash6random11RandomStateE11rustc_entry0E0BW_, symObjAddr: 0x16710, symBinAddr: 0x100019A70, symSize: 0xB0 }
  - { offset: 0x24D3E, size: 0x8, addend: 0x0, symName: __RNCINvMs6_NtCsjK30CmJ87bX_9hashbrown3rawINtB8_8RawTableTNtNtCs4xvdaJ1JWuv_14cranelift_isle5lexer3PosINtNtNtNtCsHUR1vrdMJt_3std11collections4hash3set7HashSetBS_EEE4findNCINvNtBa_3map14equivalent_keyBS_BS_B1A_E0E0BW_, symObjAddr: 0x168A0, symBinAddr: 0x100019C00, symSize: 0xB0 }
  - { offset: 0x24F0B, size: 0x8, addend: 0x0, symName: __RNCINvMs6_NtCsjK30CmJ87bX_9hashbrown3rawINtB8_8RawTableTNtNtCs4xvdaJ1JWuv_14cranelift_isle5lexer3PosINtNtNtNtCsHUR1vrdMJt_3std11collections4hash3set7HashSetBS_EEE4findNCNvMNtBa_11rustc_entryINtNtBa_3map7HashMapBS_B1A_NtNtNtB1J_4hash6random11RandomStateE11rustc_entry0E0BW_, symObjAddr: 0x16950, symBinAddr: 0x100019CB0, symSize: 0xB0 }
  - { offset: 0x250D8, size: 0x8, addend: 0x0, symName: __RNCINvMs6_NtCsjK30CmJ87bX_9hashbrown3rawINtB8_8RawTableTNtNtCs4xvdaJ1JWuv_14cranelift_isle5lexer3PosuEE4findNCINvNtBa_3map14equivalent_keyBS_BS_uE0E0BW_, symObjAddr: 0x16B60, symBinAddr: 0x100019EC0, symSize: 0xB0 }
  - { offset: 0x252A5, size: 0x8, addend: 0x0, symName: __RNCINvMs6_NtCsjK30CmJ87bX_9hashbrown3rawINtB8_8RawTableTNtNtCslJiobkLta79_5alloc6string6StringNtNtCs4xvdaJ1JWuv_14cranelift_isle4sema3SymEE4findNCINvNtBa_3map14equivalent_keyBS_BS_B1u_E0E0B1y_, symObjAddr: 0x16DA0, symBinAddr: 0x10001A100, symSize: 0xB0 }
  - { offset: 0x25472, size: 0x8, addend: 0x0, symName: __RNCINvMs6_NtCsjK30CmJ87bX_9hashbrown3rawINtB8_8RawTableTTNtNtCs4xvdaJ1JWuv_14cranelift_isle4sema6TypeIdBT_ENtBV_6TermIdEE4findNCINvNtBa_3map14equivalent_keyBS_BS_B1H_E0E0BX_, symObjAddr: 0x16F00, symBinAddr: 0x10001A260, symSize: 0xB0 }
  - { offset: 0x2563F, size: 0x8, addend: 0x0, symName: __RNCINvMs6_NtCsjK30CmJ87bX_9hashbrown3rawINtB8_8RawTableTTNtNtCs4xvdaJ1JWuv_14cranelift_isle4sema6TypeIdBT_ENtBV_6TermIdEE4findNCNvMNtBa_11rustc_entryINtNtBa_3map7HashMapBS_B1H_NtNtNtCsHUR1vrdMJt_3std4hash6random11RandomStateE11rustc_entry0E0BX_, symObjAddr: 0x16FB0, symBinAddr: 0x10001A310, symSize: 0xB0 }
  - { offset: 0x28469, size: 0x8, addend: 0x0, symName: __RNCINvMsa_NtCsjK30CmJ87bX_9hashbrown3rawNtB8_13RawTableInner14prepare_resizeNtNtCslJiobkLta79_5alloc5alloc6GlobalE0Cs4xvdaJ1JWuv_14cranelift_isle, symObjAddr: 0x17060, symBinAddr: 0x10001A3C0, symSize: 0xD0 }
  - { offset: 0x28637, size: 0x8, addend: 0x0, symName: __RNCNvMsa_NtCsjK30CmJ87bX_9hashbrown3rawNtB7_13RawTableInner15rehash_in_place0Cs4xvdaJ1JWuv_14cranelift_isle, symObjAddr: 0x17130, symBinAddr: 0x10001A490, symSize: 0x250 }
  - { offset: 0x2A3ED, size: 0x8, addend: 0x0, symName: __RNvNtCsjK30CmJ87bX_9hashbrown3raw19capacity_to_bucketsCs4xvdaJ1JWuv_14cranelift_isle, symObjAddr: 0x1BC70, symBinAddr: 0x10001EFD0, symSize: 0x280 }
  - { offset: 0x2A603, size: 0x8, addend: 0x0, symName: __RNvXsB_NtCsjK30CmJ87bX_9hashbrown3rawINtB5_11RawIntoIterTNtNtCs4xvdaJ1JWuv_14cranelift_isle4sema6TermIdNtNtBX_10trie_again14RuleSetBuilderEENtNtNtCsieiGu2EXtoJ_4core3ops4drop4Drop4dropBX_, symObjAddr: 0x1BEF0, symBinAddr: 0x10001F250, symSize: 0x70 }
  - { offset: 0x2A67D, size: 0x8, addend: 0x0, symName: __RNvXsB_NtCsjK30CmJ87bX_9hashbrown3rawINtB5_11RawIntoIterTNtNtCs4xvdaJ1JWuv_14cranelift_isle5lexer3PosINtNtCslJiobkLta79_5alloc3vec3VecBT_EEENtNtNtCsieiGu2EXtoJ_4core3ops4drop4Drop4dropBX_, symObjAddr: 0x1BF60, symBinAddr: 0x10001F2C0, symSize: 0x70 }
  - { offset: 0x2A6F7, size: 0x8, addend: 0x0, symName: __RNvXsB_NtCsjK30CmJ87bX_9hashbrown3rawINtB5_11RawIntoIterTNtNtCs4xvdaJ1JWuv_14cranelift_isle5lexer3PosuEENtNtNtCsieiGu2EXtoJ_4core3ops4drop4Drop4dropBX_, symObjAddr: 0x1BFD0, symBinAddr: 0x10001F330, symSize: 0x70 }
  - { offset: 0x2A777, size: 0x8, addend: 0x0, symName: __RNvXsD_NtCsjK30CmJ87bX_9hashbrown3rawINtB5_11RawIntoIterTNtNtCs4xvdaJ1JWuv_14cranelift_isle4sema6TermIdNtNtBX_10trie_again14RuleSetBuilderEENtNtNtNtCsieiGu2EXtoJ_4core4iter6traits8iterator8Iterator4nextBX_, symObjAddr: 0x1C040, symBinAddr: 0x10001F3A0, symSize: 0x130 }
  - { offset: 0x2A908, size: 0x8, addend: 0x0, symName: __RNvXsD_NtCsjK30CmJ87bX_9hashbrown3rawINtB5_11RawIntoIterTNtNtCs4xvdaJ1JWuv_14cranelift_isle5lexer3PosINtNtCslJiobkLta79_5alloc3vec3VecBT_EEENtNtNtNtCsieiGu2EXtoJ_4core4iter6traits8iterator8Iterator4nextBX_, symObjAddr: 0x1C170, symBinAddr: 0x10001F4D0, symSize: 0x130 }
  - { offset: 0x2AA99, size: 0x8, addend: 0x0, symName: __RNvXsD_NtCsjK30CmJ87bX_9hashbrown3rawINtB5_11RawIntoIterTNtNtCs4xvdaJ1JWuv_14cranelift_isle5lexer3PosuEENtNtNtNtCsieiGu2EXtoJ_4core4iter6traits8iterator8Iterator4nextBX_, symObjAddr: 0x1C2A0, symBinAddr: 0x10001F600, symSize: 0x110 }
  - { offset: 0x2AC30, size: 0x8, addend: 0x0, symName: __RNvXsb_NtCsjK30CmJ87bX_9hashbrown3rawINtB5_8RawTableTNtNtCs4xvdaJ1JWuv_14cranelift_isle10trie_again9BindingIdTBP_hEEENtNtCsieiGu2EXtoJ_4core5clone5Clone5cloneBT_, symObjAddr: 0x1C3B0, symBinAddr: 0x10001F710, symSize: 0x190 }
  - { offset: 0x2ACE2, size: 0x8, addend: 0x0, symName: __RNvXsb_NtCsjK30CmJ87bX_9hashbrown3rawINtB5_8RawTableTNtNtCs4xvdaJ1JWuv_14cranelift_isle10trie_again9BindingIduEENtNtCsieiGu2EXtoJ_4core5clone5Clone5cloneBT_, symObjAddr: 0x1C540, symBinAddr: 0x10001F8A0, symSize: 0x190 }
  - { offset: 0x2AD94, size: 0x8, addend: 0x0, symName: __RNvXsb_NtCsjK30CmJ87bX_9hashbrown3rawINtB5_8RawTableTNtNtCs4xvdaJ1JWuv_14cranelift_isle4sema5VarIdNtNtBT_10trie_again9BindingIdEENtNtCsieiGu2EXtoJ_4core5clone5Clone5cloneBT_, symObjAddr: 0x1C6D0, symBinAddr: 0x10001FA30, symSize: 0x190 }
  - { offset: 0x2AE46, size: 0x8, addend: 0x0, symName: __RNvXsb_NtCsjK30CmJ87bX_9hashbrown3rawINtB5_8RawTableTNtNtCs4xvdaJ1JWuv_14cranelift_isle4sema6TermIduEENtNtCsieiGu2EXtoJ_4core5clone5Clone5cloneBT_, symObjAddr: 0x1C860, symBinAddr: 0x10001FBC0, symSize: 0x190 }
  - { offset: 0x2AEFE, size: 0x8, addend: 0x0, symName: __RNvXsd_NtCsjK30CmJ87bX_9hashbrown3rawINtB5_8RawTableTNtNtCs4xvdaJ1JWuv_14cranelift_isle10trie_again9BindingIdTBP_hEEENtB5_13RawTableClone15clone_from_specBT_, symObjAddr: 0x1C9F0, symBinAddr: 0x10001FD50, symSize: 0x160 }
  - { offset: 0x2B321, size: 0x8, addend: 0x0, symName: __RNvXsd_NtCsjK30CmJ87bX_9hashbrown3rawINtB5_8RawTableTNtNtCs4xvdaJ1JWuv_14cranelift_isle10trie_again9BindingIduEENtB5_13RawTableClone15clone_from_specBT_, symObjAddr: 0x1CB50, symBinAddr: 0x10001FEB0, symSize: 0x160 }
  - { offset: 0x2B744, size: 0x8, addend: 0x0, symName: __RNvXsd_NtCsjK30CmJ87bX_9hashbrown3rawINtB5_8RawTableTNtNtCs4xvdaJ1JWuv_14cranelift_isle4sema5VarIdNtNtBT_10trie_again9BindingIdEENtB5_13RawTableClone15clone_from_specBT_, symObjAddr: 0x1CCB0, symBinAddr: 0x100020010, symSize: 0x160 }
  - { offset: 0x2BB67, size: 0x8, addend: 0x0, symName: __RNvXsd_NtCsjK30CmJ87bX_9hashbrown3rawINtB5_8RawTableTNtNtCs4xvdaJ1JWuv_14cranelift_isle4sema6TermIduEENtB5_13RawTableClone15clone_from_specBT_, symObjAddr: 0x1CE10, symBinAddr: 0x100020170, symSize: 0x160 }
  - { offset: 0x2BF90, size: 0x8, addend: 0x0, symName: __RNvXsg_NtCsjK30CmJ87bX_9hashbrown3rawINtB5_8RawTableTNtNtCs4xvdaJ1JWuv_14cranelift_isle10trie_again7BindingNtBR_9BindingIdEENtNtNtCsieiGu2EXtoJ_4core3ops4drop4Drop4dropBT_, symObjAddr: 0x1CF70, symBinAddr: 0x1000202D0, symSize: 0x30 }
  - { offset: 0x2BFCC, size: 0x8, addend: 0x0, symName: __RNvXsg_NtCsjK30CmJ87bX_9hashbrown3rawINtB5_8RawTableTNtNtCs4xvdaJ1JWuv_14cranelift_isle10trie_again9BindingIdNtBR_10ConstraintEENtNtNtCsieiGu2EXtoJ_4core3ops4drop4Drop4dropBT_, symObjAddr: 0x1CFA0, symBinAddr: 0x100020300, symSize: 0x30 }
  - { offset: 0x2C008, size: 0x8, addend: 0x0, symName: __RNvXsg_NtCsjK30CmJ87bX_9hashbrown3rawINtB5_8RawTableTNtNtCs4xvdaJ1JWuv_14cranelift_isle10trie_again9BindingIdTBP_hEEENtNtNtCsieiGu2EXtoJ_4core3ops4drop4Drop4dropBT_, symObjAddr: 0x1CFD0, symBinAddr: 0x100020330, symSize: 0x30 }
  - { offset: 0x2C044, size: 0x8, addend: 0x0, symName: __RNvXsg_NtCsjK30CmJ87bX_9hashbrown3rawINtB5_8RawTableTNtNtCs4xvdaJ1JWuv_14cranelift_isle10trie_again9BindingIduEENtNtNtCsieiGu2EXtoJ_4core3ops4drop4Drop4dropBT_, symObjAddr: 0x1D000, symBinAddr: 0x100020360, symSize: 0x30 }
  - { offset: 0x2C080, size: 0x8, addend: 0x0, symName: __RNvXsg_NtCsjK30CmJ87bX_9hashbrown3rawINtB5_8RawTableTNtNtCs4xvdaJ1JWuv_14cranelift_isle4sema3SymNtBR_6TermIdEENtNtNtCsieiGu2EXtoJ_4core3ops4drop4Drop4dropBT_, symObjAddr: 0x1D030, symBinAddr: 0x100020390, symSize: 0x30 }
  - { offset: 0x2C0BC, size: 0x8, addend: 0x0, symName: __RNvXsg_NtCsjK30CmJ87bX_9hashbrown3rawINtB5_8RawTableTNtNtCs4xvdaJ1JWuv_14cranelift_isle4sema3SymNtBR_6TypeIdEENtNtNtCsieiGu2EXtoJ_4core3ops4drop4Drop4dropBT_, symObjAddr: 0x1D060, symBinAddr: 0x1000203C0, symSize: 0x30 }
  - { offset: 0x2C0F8, size: 0x8, addend: 0x0, symName: __RNvXsg_NtCsjK30CmJ87bX_9hashbrown3rawINtB5_8RawTableTNtNtCs4xvdaJ1JWuv_14cranelift_isle4sema5VarIdNtNtBT_10trie_again9BindingIdEENtNtNtCsieiGu2EXtoJ_4core3ops4drop4Drop4dropBT_, symObjAddr: 0x1D090, symBinAddr: 0x1000203F0, symSize: 0x30 }
  - { offset: 0x2C134, size: 0x8, addend: 0x0, symName: __RNvXsg_NtCsjK30CmJ87bX_9hashbrown3rawINtB5_8RawTableTNtNtCs4xvdaJ1JWuv_14cranelift_isle4sema6TermIdNtNtBT_10trie_again14RuleSetBuilderEENtNtNtCsieiGu2EXtoJ_4core3ops4drop4Drop4dropBT_, symObjAddr: 0x1D0C0, symBinAddr: 0x100020420, symSize: 0x30 }
  - { offset: 0x2C170, size: 0x8, addend: 0x0, symName: __RNvXsg_NtCsjK30CmJ87bX_9hashbrown3rawINtB5_8RawTableTNtNtCs4xvdaJ1JWuv_14cranelift_isle4sema6TermIduEENtNtNtCsieiGu2EXtoJ_4core3ops4drop4Drop4dropBT_, symObjAddr: 0x1D0F0, symBinAddr: 0x100020450, symSize: 0x30 }
  - { offset: 0x2C1AC, size: 0x8, addend: 0x0, symName: __RNvXsg_NtCsjK30CmJ87bX_9hashbrown3rawINtB5_8RawTableTNtNtCs4xvdaJ1JWuv_14cranelift_isle5lexer3PosINtNtCslJiobkLta79_5alloc3vec3VecBP_EEENtNtNtCsieiGu2EXtoJ_4core3ops4drop4Drop4dropBT_, symObjAddr: 0x1D120, symBinAddr: 0x100020480, symSize: 0x30 }
  - { offset: 0x2C1E8, size: 0x8, addend: 0x0, symName: __RNvXsg_NtCsjK30CmJ87bX_9hashbrown3rawINtB5_8RawTableTNtNtCs4xvdaJ1JWuv_14cranelift_isle5lexer3PosINtNtNtNtCsHUR1vrdMJt_3std11collections4hash3set7HashSetBP_EEENtNtNtCsieiGu2EXtoJ_4core3ops4drop4Drop4dropBT_, symObjAddr: 0x1D150, symBinAddr: 0x1000204B0, symSize: 0x30 }
  - { offset: 0x2C224, size: 0x8, addend: 0x0, symName: __RNvXsg_NtCsjK30CmJ87bX_9hashbrown3rawINtB5_8RawTableTNtNtCs4xvdaJ1JWuv_14cranelift_isle5lexer3PosuEENtNtNtCsieiGu2EXtoJ_4core3ops4drop4Drop4dropBT_, symObjAddr: 0x1D180, symBinAddr: 0x1000204E0, symSize: 0x30 }
  - { offset: 0x2C260, size: 0x8, addend: 0x0, symName: __RNvXsg_NtCsjK30CmJ87bX_9hashbrown3rawINtB5_8RawTableTNtNtCslJiobkLta79_5alloc6string6StringNtNtCs4xvdaJ1JWuv_14cranelift_isle4sema3SymEENtNtNtCsieiGu2EXtoJ_4core3ops4drop4Drop4dropB1v_, symObjAddr: 0x1D1B0, symBinAddr: 0x100020510, symSize: 0x30 }
  - { offset: 0x2C29C, size: 0x8, addend: 0x0, symName: __RNvXsg_NtCsjK30CmJ87bX_9hashbrown3rawINtB5_8RawTableTTNtNtCs4xvdaJ1JWuv_14cranelift_isle4sema6TypeIdBQ_ENtBS_6TermIdEENtNtNtCsieiGu2EXtoJ_4core3ops4drop4Drop4dropBU_, symObjAddr: 0x1D1E0, symBinAddr: 0x100020540, symSize: 0x30 }
  - { offset: 0x2C2DE, size: 0x8, addend: 0x0, symName: __RNvXsh_NtCsjK30CmJ87bX_9hashbrown3rawINtB5_8RawTableTNtNtCs4xvdaJ1JWuv_14cranelift_isle4sema6TermIdNtNtBT_10trie_again14RuleSetBuilderEENtNtNtNtCsieiGu2EXtoJ_4core4iter6traits7collect12IntoIterator9into_iterBT_, symObjAddr: 0x1D210, symBinAddr: 0x100020570, symSize: 0x180 }
  - { offset: 0x2C464, size: 0x8, addend: 0x0, symName: __RNvXsh_NtCsjK30CmJ87bX_9hashbrown3rawINtB5_8RawTableTNtNtCs4xvdaJ1JWuv_14cranelift_isle5lexer3PosINtNtCslJiobkLta79_5alloc3vec3VecBP_EEENtNtNtNtCsieiGu2EXtoJ_4core4iter6traits7collect12IntoIterator9into_iterBT_, symObjAddr: 0x1D390, symBinAddr: 0x1000206F0, symSize: 0x180 }
  - { offset: 0x2C5EA, size: 0x8, addend: 0x0, symName: __RNvXsh_NtCsjK30CmJ87bX_9hashbrown3rawINtB5_8RawTableTNtNtCs4xvdaJ1JWuv_14cranelift_isle5lexer3PosuEENtNtNtNtCsieiGu2EXtoJ_4core4iter6traits7collect12IntoIterator9into_iterBT_, symObjAddr: 0x1D510, symBinAddr: 0x100020870, symSize: 0x180 }
  - { offset: 0x36E37, size: 0x8, addend: 0x0, symName: __RINvMs6_NtCsjK30CmJ87bX_9hashbrown3rawINtB6_8RawTableTNtNtCs4xvdaJ1JWuv_14cranelift_isle10trie_again7BindingNtBS_9BindingIdEE14reserve_rehashNCINvNtB8_3map11make_hasherBQ_B1I_NtNtNtCsHUR1vrdMJt_3std4hash6random11RandomStateE0EBU_, symObjAddr: 0x0, symBinAddr: 0x10023B580, symSize: 0xD50 }
  - { offset: 0x3790A, size: 0x8, addend: 0x0, symName: __RINvMs6_NtCsjK30CmJ87bX_9hashbrown3rawINtB6_8RawTableTNtNtCs4xvdaJ1JWuv_14cranelift_isle10trie_again7BindingNtBS_9BindingIdEE24find_or_find_insert_slotNCINvNtB8_3map14equivalent_keyBQ_BQ_B1I_E0NCINvB2u_11make_hasherBQ_B1I_NtNtNtCsHUR1vrdMJt_3std4hash6random11RandomStateE0EBU_, symObjAddr: 0xD50, symBinAddr: 0x10000EE40, symSize: 0x160 }
  - { offset: 0x37DD4, size: 0x8, addend: 0x0, symName: __RINvMs6_NtCsjK30CmJ87bX_9hashbrown3rawINtB6_8RawTableTNtNtCs4xvdaJ1JWuv_14cranelift_isle10trie_again7BindingNtBS_9BindingIdEE4findNCINvNtB8_3map14equivalent_keyBQ_BQ_B1I_E0EBU_, symObjAddr: 0xEB0, symBinAddr: 0x10000EFA0, symSize: 0x480 }
  - { offset: 0x382ED, size: 0x8, addend: 0x0, symName: __RINvMs6_NtCsjK30CmJ87bX_9hashbrown3rawINtB6_8RawTableTNtNtCs4xvdaJ1JWuv_14cranelift_isle10trie_again7BindingNtBS_9BindingIdEE7reserveNCINvNtB8_3map11make_hasherBQ_B1I_NtNtNtCsHUR1vrdMJt_3std4hash6random11RandomStateE0EBU_, symObjAddr: 0x1330, symBinAddr: 0x10000F420, symSize: 0xC0 }
  - { offset: 0x383C5, size: 0x8, addend: 0x0, symName: __RINvMs6_NtCsjK30CmJ87bX_9hashbrown3rawINtB6_8RawTableTNtNtCs4xvdaJ1JWuv_14cranelift_isle10trie_again9BindingIdNtBS_10ConstraintEE14reserve_rehashNCINvNtB8_3map11make_hasherBQ_B1K_NtNtNtCsHUR1vrdMJt_3std4hash6random11RandomStateE0EBU_, symObjAddr: 0x13F0, symBinAddr: 0x10023C2D0, symSize: 0xD50 }
  - { offset: 0x38E98, size: 0x8, addend: 0x0, symName: __RINvMs6_NtCsjK30CmJ87bX_9hashbrown3rawINtB6_8RawTableTNtNtCs4xvdaJ1JWuv_14cranelift_isle10trie_again9BindingIdNtBS_10ConstraintEE4findNCINvNtB8_3map14equivalent_keyBQ_BQ_B1K_E0EBU_, symObjAddr: 0x2140, symBinAddr: 0x10000F4E0, symSize: 0x480 }
  - { offset: 0x39449, size: 0x8, addend: 0x0, symName: __RINvMs6_NtCsjK30CmJ87bX_9hashbrown3rawINtB6_8RawTableTNtNtCs4xvdaJ1JWuv_14cranelift_isle10trie_again9BindingIdNtBS_10ConstraintEE4findNCNvMNtB8_11rustc_entryINtNtB8_3map7HashMapBQ_B1K_NtNtNtCsHUR1vrdMJt_3std4hash6random11RandomStateE11rustc_entry0EBU_, symObjAddr: 0x25C0, symBinAddr: 0x10000F960, symSize: 0x480 }
  - { offset: 0x39955, size: 0x8, addend: 0x0, symName: __RINvMs6_NtCsjK30CmJ87bX_9hashbrown3rawINtB6_8RawTableTNtNtCs4xvdaJ1JWuv_14cranelift_isle10trie_again9BindingIdNtBS_10ConstraintEE7reserveNCINvNtB8_3map11make_hasherBQ_B1K_NtNtNtCsHUR1vrdMJt_3std4hash6random11RandomStateE0EBU_, symObjAddr: 0x2A40, symBinAddr: 0x10000FDE0, symSize: 0xC0 }
  - { offset: 0x39A2D, size: 0x8, addend: 0x0, symName: __RINvMs6_NtCsjK30CmJ87bX_9hashbrown3rawINtB6_8RawTableTNtNtCs4xvdaJ1JWuv_14cranelift_isle10trie_again9BindingIdTBQ_hEEE12remove_entryNCINvNtB8_3map14equivalent_keyBQ_BQ_B1K_E0EBU_, symObjAddr: 0x2B00, symBinAddr: 0x10000FEA0, symSize: 0x90 }
  - { offset: 0x39AA7, size: 0x8, addend: 0x0, symName: __RINvMs6_NtCsjK30CmJ87bX_9hashbrown3rawINtB6_8RawTableTNtNtCs4xvdaJ1JWuv_14cranelift_isle10trie_again9BindingIdTBQ_hEEE14reserve_rehashNCINvNtB8_3map11make_hasherBQ_B1K_NtNtNtCsHUR1vrdMJt_3std4hash6random11RandomStateE0EBU_, symObjAddr: 0x2B90, symBinAddr: 0x10023D020, symSize: 0xD60 }
  - { offset: 0x3A57A, size: 0x8, addend: 0x0, symName: __RINvMs6_NtCsjK30CmJ87bX_9hashbrown3rawINtB6_8RawTableTNtNtCs4xvdaJ1JWuv_14cranelift_isle10trie_again9BindingIdTBQ_hEEE24find_or_find_insert_slotNCINvNtB8_3map14equivalent_keyBQ_BQ_B1K_E0NCINvB2n_11make_hasherBQ_B1K_NtNtNtCsHUR1vrdMJt_3std4hash6random11RandomStateE0EBU_, symObjAddr: 0x38F0, symBinAddr: 0x10000FF30, symSize: 0x160 }
  - { offset: 0x3A807, size: 0x8, addend: 0x0, symName: __RINvMs6_NtCsjK30CmJ87bX_9hashbrown3rawINtB6_8RawTableTNtNtCs4xvdaJ1JWuv_14cranelift_isle10trie_again9BindingIdTBQ_hEEE4findNCINvNtB8_3map14equivalent_keyBQ_BQ_B1K_E0EBU_, symObjAddr: 0x3A50, symBinAddr: 0x100010090, symSize: 0x480 }
  - { offset: 0x3AD13, size: 0x8, addend: 0x0, symName: __RINvMs6_NtCsjK30CmJ87bX_9hashbrown3rawINtB6_8RawTableTNtNtCs4xvdaJ1JWuv_14cranelift_isle10trie_again9BindingIdTBQ_hEEE7reserveNCINvNtB8_3map11make_hasherBQ_B1K_NtNtNtCsHUR1vrdMJt_3std4hash6random11RandomStateE0EBU_, symObjAddr: 0x3ED0, symBinAddr: 0x100010510, symSize: 0xC0 }
  - { offset: 0x3ADEB, size: 0x8, addend: 0x0, symName: __RINvMs6_NtCsjK30CmJ87bX_9hashbrown3rawINtB6_8RawTableTNtNtCs4xvdaJ1JWuv_14cranelift_isle10trie_again9BindingIduEE14reserve_rehashNCINvNtB8_3map11make_hasherBQ_uNtNtNtCsHUR1vrdMJt_3std4hash6random11RandomStateE0EBU_, symObjAddr: 0x3F90, symBinAddr: 0x10023DD80, symSize: 0xD50 }
  - { offset: 0x3B8BE, size: 0x8, addend: 0x0, symName: __RINvMs6_NtCsjK30CmJ87bX_9hashbrown3rawINtB6_8RawTableTNtNtCs4xvdaJ1JWuv_14cranelift_isle10trie_again9BindingIduEE24find_or_find_insert_slotNCINvNtB8_3map14equivalent_keyBQ_BQ_uE0NCINvB2i_11make_hasherBQ_uNtNtNtCsHUR1vrdMJt_3std4hash6random11RandomStateE0EBU_, symObjAddr: 0x4CE0, symBinAddr: 0x1000105D0, symSize: 0x160 }
  - { offset: 0x3BB4B, size: 0x8, addend: 0x0, symName: __RINvMs6_NtCsjK30CmJ87bX_9hashbrown3rawINtB6_8RawTableTNtNtCs4xvdaJ1JWuv_14cranelift_isle10trie_again9BindingIduEE4findNCINvNtB8_3map14equivalent_keyBQ_BQ_uE0EBU_, symObjAddr: 0x4E40, symBinAddr: 0x100010730, symSize: 0x480 }
  - { offset: 0x3C057, size: 0x8, addend: 0x0, symName: __RINvMs6_NtCsjK30CmJ87bX_9hashbrown3rawINtB6_8RawTableTNtNtCs4xvdaJ1JWuv_14cranelift_isle10trie_again9BindingIduEE7reserveNCINvNtB8_3map11make_hasherBQ_uNtNtNtCsHUR1vrdMJt_3std4hash6random11RandomStateE0EBU_, symObjAddr: 0x52C0, symBinAddr: 0x100010BB0, symSize: 0xC0 }
  - { offset: 0x3C12F, size: 0x8, addend: 0x0, symName: __RINvMs6_NtCsjK30CmJ87bX_9hashbrown3rawINtB6_8RawTableTNtNtCs4xvdaJ1JWuv_14cranelift_isle4sema3SymNtBS_6TermIdEE14reserve_rehashNCINvNtB8_3map11make_hasherBQ_B1x_NtNtNtCsHUR1vrdMJt_3std4hash6random11RandomStateE0EBU_, symObjAddr: 0x5380, symBinAddr: 0x10023EAD0, symSize: 0xD60 }
  - { offset: 0x3CC02, size: 0x8, addend: 0x0, symName: __RINvMs6_NtCsjK30CmJ87bX_9hashbrown3rawINtB6_8RawTableTNtNtCs4xvdaJ1JWuv_14cranelift_isle4sema3SymNtBS_6TermIdEE24find_or_find_insert_slotNCINvNtB8_3map14equivalent_keyBQ_BQ_B1x_E0NCINvB2g_11make_hasherBQ_B1x_NtNtNtCsHUR1vrdMJt_3std4hash6random11RandomStateE0EBU_, symObjAddr: 0x60E0, symBinAddr: 0x100010C70, symSize: 0x160 }
  - { offset: 0x3CE8F, size: 0x8, addend: 0x0, symName: __RINvMs6_NtCsjK30CmJ87bX_9hashbrown3rawINtB6_8RawTableTNtNtCs4xvdaJ1JWuv_14cranelift_isle4sema3SymNtBS_6TermIdEE4findNCINvNtB8_3map14equivalent_keyBQ_BQ_B1x_E0EBU_, symObjAddr: 0x6240, symBinAddr: 0x100010DD0, symSize: 0x480 }
  - { offset: 0x3D39B, size: 0x8, addend: 0x0, symName: __RINvMs6_NtCsjK30CmJ87bX_9hashbrown3rawINtB6_8RawTableTNtNtCs4xvdaJ1JWuv_14cranelift_isle4sema3SymNtBS_6TermIdEE7reserveNCINvNtB8_3map11make_hasherBQ_B1x_NtNtNtCsHUR1vrdMJt_3std4hash6random11RandomStateE0EBU_, symObjAddr: 0x66C0, symBinAddr: 0x100011250, symSize: 0xC0 }
  - { offset: 0x3D473, size: 0x8, addend: 0x0, symName: __RINvMs6_NtCsjK30CmJ87bX_9hashbrown3rawINtB6_8RawTableTNtNtCs4xvdaJ1JWuv_14cranelift_isle4sema3SymNtBS_6TypeIdEE14reserve_rehashNCINvNtB8_3map11make_hasherBQ_B1x_NtNtNtCsHUR1vrdMJt_3std4hash6random11RandomStateE0EBU_, symObjAddr: 0x6780, symBinAddr: 0x10023F830, symSize: 0xD60 }
  - { offset: 0x3DF46, size: 0x8, addend: 0x0, symName: __RINvMs6_NtCsjK30CmJ87bX_9hashbrown3rawINtB6_8RawTableTNtNtCs4xvdaJ1JWuv_14cranelift_isle4sema3SymNtBS_6TypeIdEE24find_or_find_insert_slotNCINvNtB8_3map14equivalent_keyBQ_BQ_B1x_E0NCINvB2g_11make_hasherBQ_B1x_NtNtNtCsHUR1vrdMJt_3std4hash6random11RandomStateE0EBU_, symObjAddr: 0x74E0, symBinAddr: 0x100011310, symSize: 0x160 }
  - { offset: 0x3E1D3, size: 0x8, addend: 0x0, symName: __RINvMs6_NtCsjK30CmJ87bX_9hashbrown3rawINtB6_8RawTableTNtNtCs4xvdaJ1JWuv_14cranelift_isle4sema3SymNtBS_6TypeIdEE4findNCINvNtB8_3map14equivalent_keyBQ_BQ_B1x_E0EBU_, symObjAddr: 0x7640, symBinAddr: 0x100011470, symSize: 0x480 }
  - { offset: 0x3E6DF, size: 0x8, addend: 0x0, symName: __RINvMs6_NtCsjK30CmJ87bX_9hashbrown3rawINtB6_8RawTableTNtNtCs4xvdaJ1JWuv_14cranelift_isle4sema3SymNtBS_6TypeIdEE7reserveNCINvNtB8_3map11make_hasherBQ_B1x_NtNtNtCsHUR1vrdMJt_3std4hash6random11RandomStateE0EBU_, symObjAddr: 0x7AC0, symBinAddr: 0x1000118F0, symSize: 0xC0 }
  - { offset: 0x3E7B7, size: 0x8, addend: 0x0, symName: __RINvMs6_NtCsjK30CmJ87bX_9hashbrown3rawINtB6_8RawTableTNtNtCs4xvdaJ1JWuv_14cranelift_isle4sema5VarIdNtNtBU_10trie_again9BindingIdEE14reserve_rehashNCINvNtB8_3map11make_hasherBQ_B1z_NtNtNtCsHUR1vrdMJt_3std4hash6random11RandomStateE0EBU_, symObjAddr: 0x7B80, symBinAddr: 0x100240590, symSize: 0xD60 }
  - { offset: 0x3F28A, size: 0x8, addend: 0x0, symName: __RINvMs6_NtCsjK30CmJ87bX_9hashbrown3rawINtB6_8RawTableTNtNtCs4xvdaJ1JWuv_14cranelift_isle4sema5VarIdNtNtBU_10trie_again9BindingIdEE24find_or_find_insert_slotNCINvNtB8_3map14equivalent_keyBQ_BQ_B1z_E0NCINvB2z_11make_hasherBQ_B1z_NtNtNtCsHUR1vrdMJt_3std4hash6random11RandomStateE0EBU_, symObjAddr: 0x88E0, symBinAddr: 0x1000119B0, symSize: 0x160 }
  - { offset: 0x3F517, size: 0x8, addend: 0x0, symName: __RINvMs6_NtCsjK30CmJ87bX_9hashbrown3rawINtB6_8RawTableTNtNtCs4xvdaJ1JWuv_14cranelift_isle4sema5VarIdNtNtBU_10trie_again9BindingIdEE4findNCINvNtB8_3map14equivalent_keyBQ_BQ_B1z_E0EBU_, symObjAddr: 0x8A40, symBinAddr: 0x100011B10, symSize: 0x480 }
  - { offset: 0x3FA23, size: 0x8, addend: 0x0, symName: __RINvMs6_NtCsjK30CmJ87bX_9hashbrown3rawINtB6_8RawTableTNtNtCs4xvdaJ1JWuv_14cranelift_isle4sema5VarIdNtNtBU_10trie_again9BindingIdEE7reserveNCINvNtB8_3map11make_hasherBQ_B1z_NtNtNtCsHUR1vrdMJt_3std4hash6random11RandomStateE0EBU_, symObjAddr: 0x8EC0, symBinAddr: 0x100011F90, symSize: 0xC0 }
  - { offset: 0x3FAFB, size: 0x8, addend: 0x0, symName: __RINvMs6_NtCsjK30CmJ87bX_9hashbrown3rawINtB6_8RawTableTNtNtCs4xvdaJ1JWuv_14cranelift_isle4sema6TermIdNtNtBU_10trie_again14RuleSetBuilderEE14reserve_rehashNCINvNtB8_3map11make_hasherBQ_B1A_NtNtNtCsHUR1vrdMJt_3std4hash6random11RandomStateE0EBU_, symObjAddr: 0x8F80, symBinAddr: 0x1002412F0, symSize: 0xD50 }
  - { offset: 0x405CE, size: 0x8, addend: 0x0, symName: __RINvMs6_NtCsjK30CmJ87bX_9hashbrown3rawINtB6_8RawTableTNtNtCs4xvdaJ1JWuv_14cranelift_isle4sema6TermIdNtNtBU_10trie_again14RuleSetBuilderEE4findNCNvMNtB8_11rustc_entryINtNtB8_3map7HashMapBQ_B1A_NtNtNtCsHUR1vrdMJt_3std4hash6random11RandomStateE11rustc_entry0EBU_, symObjAddr: 0x9CD0, symBinAddr: 0x100012050, symSize: 0x490 }
  - { offset: 0x40ADA, size: 0x8, addend: 0x0, symName: __RINvMs6_NtCsjK30CmJ87bX_9hashbrown3rawINtB6_8RawTableTNtNtCs4xvdaJ1JWuv_14cranelift_isle4sema6TermIdNtNtBU_10trie_again14RuleSetBuilderEE7reserveNCINvNtB8_3map11make_hasherBQ_B1A_NtNtNtCsHUR1vrdMJt_3std4hash6random11RandomStateE0EBU_, symObjAddr: 0xA160, symBinAddr: 0x1000124E0, symSize: 0xC0 }
  - { offset: 0x40BB2, size: 0x8, addend: 0x0, symName: __RINvMs6_NtCsjK30CmJ87bX_9hashbrown3rawINtB6_8RawTableTNtNtCs4xvdaJ1JWuv_14cranelift_isle4sema6TermIduEE14reserve_rehashNCINvNtB8_3map11make_hasherBQ_uNtNtNtCsHUR1vrdMJt_3std4hash6random11RandomStateE0EBU_, symObjAddr: 0xA220, symBinAddr: 0x100242040, symSize: 0xD50 }
  - { offset: 0x41685, size: 0x8, addend: 0x0, symName: __RINvMs6_NtCsjK30CmJ87bX_9hashbrown3rawINtB6_8RawTableTNtNtCs4xvdaJ1JWuv_14cranelift_isle4sema6TermIduEE24find_or_find_insert_slotNCINvNtB8_3map14equivalent_keyBQ_BQ_uE0NCINvB28_11make_hasherBQ_uNtNtNtCsHUR1vrdMJt_3std4hash6random11RandomStateE0EBU_, symObjAddr: 0xAF70, symBinAddr: 0x1000125A0, symSize: 0x160 }
  - { offset: 0x4186D, size: 0x8, addend: 0x0, symName: __RINvMs6_NtCsjK30CmJ87bX_9hashbrown3rawINtB6_8RawTableTNtNtCs4xvdaJ1JWuv_14cranelift_isle4sema6TermIduEE7reserveNCINvNtB8_3map11make_hasherBQ_uNtNtNtCsHUR1vrdMJt_3std4hash6random11RandomStateE0EBU_, symObjAddr: 0xB0D0, symBinAddr: 0x100012700, symSize: 0xC0 }
  - { offset: 0x41945, size: 0x8, addend: 0x0, symName: __RINvMs6_NtCsjK30CmJ87bX_9hashbrown3rawINtB6_8RawTableTNtNtCs4xvdaJ1JWuv_14cranelift_isle5lexer3PosINtNtCslJiobkLta79_5alloc3vec3VecBQ_EEE14reserve_rehashNCINvNtB8_3map11make_hasherBQ_B1y_NtNtNtCsHUR1vrdMJt_3std4hash6random11RandomStateE0EBU_, symObjAddr: 0xB190, symBinAddr: 0x100242D90, symSize: 0xD50 }
  - { offset: 0x42418, size: 0x8, addend: 0x0, symName: __RINvMs6_NtCsjK30CmJ87bX_9hashbrown3rawINtB6_8RawTableTNtNtCs4xvdaJ1JWuv_14cranelift_isle5lexer3PosINtNtCslJiobkLta79_5alloc3vec3VecBQ_EEE4findNCNvMNtB8_11rustc_entryINtNtB8_3map7HashMapBQ_B1y_NtNtNtCsHUR1vrdMJt_3std4hash6random11RandomStateE11rustc_entry0EBU_, symObjAddr: 0xBEE0, symBinAddr: 0x1000127C0, symSize: 0x480 }
  - { offset: 0x42924, size: 0x8, addend: 0x0, symName: __RINvMs6_NtCsjK30CmJ87bX_9hashbrown3rawINtB6_8RawTableTNtNtCs4xvdaJ1JWuv_14cranelift_isle5lexer3PosINtNtCslJiobkLta79_5alloc3vec3VecBQ_EEE7reserveNCINvNtB8_3map11make_hasherBQ_B1y_NtNtNtCsHUR1vrdMJt_3std4hash6random11RandomStateE0EBU_, symObjAddr: 0xC360, symBinAddr: 0x100012C40, symSize: 0xC0 }
  - { offset: 0x429FC, size: 0x8, addend: 0x0, symName: __RINvMs6_NtCsjK30CmJ87bX_9hashbrown3rawINtB6_8RawTableTNtNtCs4xvdaJ1JWuv_14cranelift_isle5lexer3PosINtNtNtNtCsHUR1vrdMJt_3std11collections4hash3set7HashSetBQ_EEE12remove_entryNCINvNtB8_3map14equivalent_keyBQ_BQ_B1y_E0EBU_, symObjAddr: 0xC420, symBinAddr: 0x100012D00, symSize: 0xF0 }
  - { offset: 0x42A76, size: 0x8, addend: 0x0, symName: __RINvMs6_NtCsjK30CmJ87bX_9hashbrown3rawINtB6_8RawTableTNtNtCs4xvdaJ1JWuv_14cranelift_isle5lexer3PosINtNtNtNtCsHUR1vrdMJt_3std11collections4hash3set7HashSetBQ_EEE14reserve_rehashNCINvNtB8_3map11make_hasherBQ_B1y_NtNtNtB1H_4hash6random11RandomStateE0EBU_, symObjAddr: 0xC510, symBinAddr: 0x100243AE0, symSize: 0xD50 }
  - { offset: 0x43549, size: 0x8, addend: 0x0, symName: __RINvMs6_NtCsjK30CmJ87bX_9hashbrown3rawINtB6_8RawTableTNtNtCs4xvdaJ1JWuv_14cranelift_isle5lexer3PosINtNtNtNtCsHUR1vrdMJt_3std11collections4hash3set7HashSetBQ_EEE4findNCINvNtB8_3map14equivalent_keyBQ_BQ_B1y_E0EBU_, symObjAddr: 0xD260, symBinAddr: 0x100012DF0, symSize: 0x480 }
  - { offset: 0x43AFA, size: 0x8, addend: 0x0, symName: __RINvMs6_NtCsjK30CmJ87bX_9hashbrown3rawINtB6_8RawTableTNtNtCs4xvdaJ1JWuv_14cranelift_isle5lexer3PosINtNtNtNtCsHUR1vrdMJt_3std11collections4hash3set7HashSetBQ_EEE4findNCNvMNtB8_11rustc_entryINtNtB8_3map7HashMapBQ_B1y_NtNtNtB1H_4hash6random11RandomStateE11rustc_entry0EBU_, symObjAddr: 0xD6E0, symBinAddr: 0x100013270, symSize: 0x480 }
  - { offset: 0x44006, size: 0x8, addend: 0x0, symName: __RINvMs6_NtCsjK30CmJ87bX_9hashbrown3rawINtB6_8RawTableTNtNtCs4xvdaJ1JWuv_14cranelift_isle5lexer3PosINtNtNtNtCsHUR1vrdMJt_3std11collections4hash3set7HashSetBQ_EEE7reserveNCINvNtB8_3map11make_hasherBQ_B1y_NtNtNtB1H_4hash6random11RandomStateE0EBU_, symObjAddr: 0xDB60, symBinAddr: 0x1000136F0, symSize: 0xC0 }
  - { offset: 0x440DE, size: 0x8, addend: 0x0, symName: __RINvMs6_NtCsjK30CmJ87bX_9hashbrown3rawINtB6_8RawTableTNtNtCs4xvdaJ1JWuv_14cranelift_isle5lexer3PosuEE12remove_entryNCINvNtB8_3map14equivalent_keyBQ_BQ_uE0EBU_, symObjAddr: 0xDC20, symBinAddr: 0x1000137B0, symSize: 0xB0 }
  - { offset: 0x44158, size: 0x8, addend: 0x0, symName: __RINvMs6_NtCsjK30CmJ87bX_9hashbrown3rawINtB6_8RawTableTNtNtCs4xvdaJ1JWuv_14cranelift_isle5lexer3PosuEE14reserve_rehashNCINvNtB8_3map11make_hasherBQ_uNtNtNtCsHUR1vrdMJt_3std4hash6random11RandomStateE0EBU_, symObjAddr: 0xDCD0, symBinAddr: 0x100244830, symSize: 0xD60 }
  - { offset: 0x44C2B, size: 0x8, addend: 0x0, symName: __RINvMs6_NtCsjK30CmJ87bX_9hashbrown3rawINtB6_8RawTableTNtNtCs4xvdaJ1JWuv_14cranelift_isle5lexer3PosuEE24find_or_find_insert_slotNCINvNtB8_3map14equivalent_keyBQ_BQ_uE0NCINvB26_11make_hasherBQ_uNtNtNtCsHUR1vrdMJt_3std4hash6random11RandomStateE0EBU_, symObjAddr: 0xEA30, symBinAddr: 0x100013860, symSize: 0x160 }
  - { offset: 0x44EB8, size: 0x8, addend: 0x0, symName: __RINvMs6_NtCsjK30CmJ87bX_9hashbrown3rawINtB6_8RawTableTNtNtCs4xvdaJ1JWuv_14cranelift_isle5lexer3PosuEE4findNCINvNtB8_3map14equivalent_keyBQ_BQ_uE0EBU_, symObjAddr: 0xEB90, symBinAddr: 0x1000139C0, symSize: 0x480 }
  - { offset: 0x453C4, size: 0x8, addend: 0x0, symName: __RINvMs6_NtCsjK30CmJ87bX_9hashbrown3rawINtB6_8RawTableTNtNtCs4xvdaJ1JWuv_14cranelift_isle5lexer3PosuEE7reserveNCINvNtB8_3map11make_hasherBQ_uNtNtNtCsHUR1vrdMJt_3std4hash6random11RandomStateE0EBU_, symObjAddr: 0xF010, symBinAddr: 0x100013E40, symSize: 0xC0 }
  - { offset: 0x4549C, size: 0x8, addend: 0x0, symName: __RINvMs6_NtCsjK30CmJ87bX_9hashbrown3rawINtB6_8RawTableTNtNtCslJiobkLta79_5alloc6string6StringNtNtCs4xvdaJ1JWuv_14cranelift_isle4sema3SymEE14reserve_rehashNCINvNtB8_3map11make_hasherBQ_B1s_NtNtNtCsHUR1vrdMJt_3std4hash6random11RandomStateE0EB1w_, symObjAddr: 0xF0D0, symBinAddr: 0x100245590, symSize: 0xD70 }
  - { offset: 0x45F6F, size: 0x8, addend: 0x0, symName: __RINvMs6_NtCsjK30CmJ87bX_9hashbrown3rawINtB6_8RawTableTNtNtCslJiobkLta79_5alloc6string6StringNtNtCs4xvdaJ1JWuv_14cranelift_isle4sema3SymEE24find_or_find_insert_slotNCINvNtB8_3map14equivalent_keyBQ_BQ_B1s_E0NCINvB2G_11make_hasherBQ_B1s_NtNtNtCsHUR1vrdMJt_3std4hash6random11RandomStateE0EB1w_, symObjAddr: 0xFE40, symBinAddr: 0x100013F00, symSize: 0x160 }
  - { offset: 0x461FC, size: 0x8, addend: 0x0, symName: __RINvMs6_NtCsjK30CmJ87bX_9hashbrown3rawINtB6_8RawTableTNtNtCslJiobkLta79_5alloc6string6StringNtNtCs4xvdaJ1JWuv_14cranelift_isle4sema3SymEE4findNCINvNtB8_3map14equivalent_keyBQ_BQ_B1s_E0EB1w_, symObjAddr: 0xFFA0, symBinAddr: 0x100014060, symSize: 0x480 }
  - { offset: 0x46708, size: 0x8, addend: 0x0, symName: __RINvMs6_NtCsjK30CmJ87bX_9hashbrown3rawINtB6_8RawTableTNtNtCslJiobkLta79_5alloc6string6StringNtNtCs4xvdaJ1JWuv_14cranelift_isle4sema3SymEE7reserveNCINvNtB8_3map11make_hasherBQ_B1s_NtNtNtCsHUR1vrdMJt_3std4hash6random11RandomStateE0EB1w_, symObjAddr: 0x10420, symBinAddr: 0x1000144E0, symSize: 0xC0 }
  - { offset: 0x467E0, size: 0x8, addend: 0x0, symName: __RINvMs6_NtCsjK30CmJ87bX_9hashbrown3rawINtB6_8RawTableTTNtNtCs4xvdaJ1JWuv_14cranelift_isle4sema6TypeIdBR_ENtBT_6TermIdEE14reserve_rehashNCINvNtB8_3map11make_hasherBQ_B1F_NtNtNtCsHUR1vrdMJt_3std4hash6random11RandomStateE0EBV_, symObjAddr: 0x104E0, symBinAddr: 0x100246300, symSize: 0xD60 }
  - { offset: 0x472B3, size: 0x8, addend: 0x0, symName: __RINvMs6_NtCsjK30CmJ87bX_9hashbrown3rawINtB6_8RawTableTTNtNtCs4xvdaJ1JWuv_14cranelift_isle4sema6TypeIdBR_ENtBT_6TermIdEE4findNCINvNtB8_3map14equivalent_keyBQ_BQ_B1F_E0EBV_, symObjAddr: 0x11240, symBinAddr: 0x1000145A0, symSize: 0x480 }
  - { offset: 0x47864, size: 0x8, addend: 0x0, symName: __RINvMs6_NtCsjK30CmJ87bX_9hashbrown3rawINtB6_8RawTableTTNtNtCs4xvdaJ1JWuv_14cranelift_isle4sema6TypeIdBR_ENtBT_6TermIdEE4findNCNvMNtB8_11rustc_entryINtNtB8_3map7HashMapBQ_B1F_NtNtNtCsHUR1vrdMJt_3std4hash6random11RandomStateE11rustc_entry0EBV_, symObjAddr: 0x116C0, symBinAddr: 0x100014A20, symSize: 0x480 }
  - { offset: 0x47D70, size: 0x8, addend: 0x0, symName: __RINvMs6_NtCsjK30CmJ87bX_9hashbrown3rawINtB6_8RawTableTTNtNtCs4xvdaJ1JWuv_14cranelift_isle4sema6TypeIdBR_ENtBT_6TermIdEE7reserveNCINvNtB8_3map11make_hasherBQ_B1F_NtNtNtCsHUR1vrdMJt_3std4hash6random11RandomStateE0EBV_, symObjAddr: 0x11B40, symBinAddr: 0x100014EA0, symSize: 0xC0 }
  - { offset: 0x47F62, size: 0x8, addend: 0x0, symName: __RINvMsa_NtCsjK30CmJ87bX_9hashbrown3rawNtB6_13RawTableInner13drop_elementsTNtNtCs4xvdaJ1JWuv_14cranelift_isle10trie_again7BindingNtB1c_9BindingIdEEB1e_, symObjAddr: 0x11C00, symBinAddr: 0x100014F60, symSize: 0x1D0 }
  - { offset: 0x4823B, size: 0x8, addend: 0x0, symName: __RINvMsa_NtCsjK30CmJ87bX_9hashbrown3rawNtB6_13RawTableInner13drop_elementsTNtNtCs4xvdaJ1JWuv_14cranelift_isle10trie_again9BindingIdNtB1c_10ConstraintEEB1e_, symObjAddr: 0x11DD0, symBinAddr: 0x100015130, symSize: 0x30 }
  - { offset: 0x48408, size: 0x8, addend: 0x0, symName: __RINvMsa_NtCsjK30CmJ87bX_9hashbrown3rawNtB6_13RawTableInner13drop_elementsTNtNtCs4xvdaJ1JWuv_14cranelift_isle10trie_again9BindingIdTB1a_hEEEB1e_, symObjAddr: 0x11E00, symBinAddr: 0x100015160, symSize: 0x30 }
  - { offset: 0x485D5, size: 0x8, addend: 0x0, symName: __RINvMsa_NtCsjK30CmJ87bX_9hashbrown3rawNtB6_13RawTableInner13drop_elementsTNtNtCs4xvdaJ1JWuv_14cranelift_isle10trie_again9BindingIduEEB1e_, symObjAddr: 0x11E30, symBinAddr: 0x100015190, symSize: 0x30 }
  - { offset: 0x487A2, size: 0x8, addend: 0x0, symName: __RINvMsa_NtCsjK30CmJ87bX_9hashbrown3rawNtB6_13RawTableInner13drop_elementsTNtNtCs4xvdaJ1JWuv_14cranelift_isle4sema3SymNtB1c_6TermIdEEB1e_, symObjAddr: 0x11E60, symBinAddr: 0x1000151C0, symSize: 0x30 }
  - { offset: 0x4896F, size: 0x8, addend: 0x0, symName: __RINvMsa_NtCsjK30CmJ87bX_9hashbrown3rawNtB6_13RawTableInner13drop_elementsTNtNtCs4xvdaJ1JWuv_14cranelift_isle4sema3SymNtB1c_6TypeIdEEB1e_, symObjAddr: 0x11E90, symBinAddr: 0x1000151F0, symSize: 0x30 }
  - { offset: 0x48B3C, size: 0x8, addend: 0x0, symName: __RINvMsa_NtCsjK30CmJ87bX_9hashbrown3rawNtB6_13RawTableInner13drop_elementsTNtNtCs4xvdaJ1JWuv_14cranelift_isle4sema5VarIdNtNtB1e_10trie_again9BindingIdEEB1e_, symObjAddr: 0x11EC0, symBinAddr: 0x100015220, symSize: 0x30 }
  - { offset: 0x48D87, size: 0x8, addend: 0x0, symName: __RINvMsa_NtCsjK30CmJ87bX_9hashbrown3rawNtB6_13RawTableInner13drop_elementsTNtNtCs4xvdaJ1JWuv_14cranelift_isle4sema6TermIdNtNtB1e_10trie_again14RuleSetBuilderEEB1e_, symObjAddr: 0x11EF0, symBinAddr: 0x100015250, symSize: 0x1D0 }
  - { offset: 0x49060, size: 0x8, addend: 0x0, symName: __RINvMsa_NtCsjK30CmJ87bX_9hashbrown3rawNtB6_13RawTableInner13drop_elementsTNtNtCs4xvdaJ1JWuv_14cranelift_isle4sema6TermIduEEB1e_, symObjAddr: 0x120C0, symBinAddr: 0x100015420, symSize: 0x30 }
  - { offset: 0x492AB, size: 0x8, addend: 0x0, symName: __RINvMsa_NtCsjK30CmJ87bX_9hashbrown3rawNtB6_13RawTableInner13drop_elementsTNtNtCs4xvdaJ1JWuv_14cranelift_isle5lexer3PosINtNtCslJiobkLta79_5alloc3vec3VecB1a_EEEB1e_, symObjAddr: 0x120F0, symBinAddr: 0x100015450, symSize: 0x1D0 }
  - { offset: 0x49602, size: 0x8, addend: 0x0, symName: __RINvMsa_NtCsjK30CmJ87bX_9hashbrown3rawNtB6_13RawTableInner13drop_elementsTNtNtCs4xvdaJ1JWuv_14cranelift_isle5lexer3PosINtNtNtNtCsHUR1vrdMJt_3std11collections4hash3set7HashSetB1a_EEEB1e_, symObjAddr: 0x122C0, symBinAddr: 0x100015620, symSize: 0x1D0 }
  - { offset: 0x498DB, size: 0x8, addend: 0x0, symName: __RINvMsa_NtCsjK30CmJ87bX_9hashbrown3rawNtB6_13RawTableInner13drop_elementsTNtNtCs4xvdaJ1JWuv_14cranelift_isle5lexer3PosuEEB1e_, symObjAddr: 0x12490, symBinAddr: 0x1000157F0, symSize: 0x30 }
  - { offset: 0x49B26, size: 0x8, addend: 0x0, symName: __RINvMsa_NtCsjK30CmJ87bX_9hashbrown3rawNtB6_13RawTableInner13drop_elementsTNtNtCslJiobkLta79_5alloc6string6StringNtNtCs4xvdaJ1JWuv_14cranelift_isle4sema3SymEEB1Q_, symObjAddr: 0x124C0, symBinAddr: 0x100015820, symSize: 0x1D0 }
  - { offset: 0x49DFF, size: 0x8, addend: 0x0, symName: __RINvMsa_NtCsjK30CmJ87bX_9hashbrown3rawNtB6_13RawTableInner13drop_elementsTTNtNtCs4xvdaJ1JWuv_14cranelift_isle4sema6TypeIdB1b_ENtB1d_6TermIdEEB1f_, symObjAddr: 0x12690, symBinAddr: 0x1000159F0, symSize: 0x30 }
  - { offset: 0x4A056, size: 0x8, addend: 0x0, symName: __RINvMsa_NtCsjK30CmJ87bX_9hashbrown3rawNtB6_13RawTableInner16drop_inner_tableTNtNtCs4xvdaJ1JWuv_14cranelift_isle10trie_again7BindingNtB1f_9BindingIdENtNtCslJiobkLta79_5alloc5alloc6GlobalEB1h_, symObjAddr: 0x126C0, symBinAddr: 0x100015A20, symSize: 0xD0 }
  - { offset: 0x4A2CF, size: 0x8, addend: 0x0, symName: __RINvMsa_NtCsjK30CmJ87bX_9hashbrown3rawNtB6_13RawTableInner16drop_inner_tableTNtNtCs4xvdaJ1JWuv_14cranelift_isle10trie_again9BindingIdNtB1f_10ConstraintENtNtCslJiobkLta79_5alloc5alloc6GlobalEB1h_, symObjAddr: 0x12790, symBinAddr: 0x100015AF0, symSize: 0xD0 }
  - { offset: 0x4A548, size: 0x8, addend: 0x0, symName: __RINvMsa_NtCsjK30CmJ87bX_9hashbrown3rawNtB6_13RawTableInner16drop_inner_tableTNtNtCs4xvdaJ1JWuv_14cranelift_isle10trie_again9BindingIdTB1d_hEENtNtCslJiobkLta79_5alloc5alloc6GlobalEB1h_, symObjAddr: 0x12860, symBinAddr: 0x100015BC0, symSize: 0xD0 }
  - { offset: 0x4A7C1, size: 0x8, addend: 0x0, symName: __RINvMsa_NtCsjK30CmJ87bX_9hashbrown3rawNtB6_13RawTableInner16drop_inner_tableTNtNtCs4xvdaJ1JWuv_14cranelift_isle10trie_again9BindingIduENtNtCslJiobkLta79_5alloc5alloc6GlobalEB1h_, symObjAddr: 0x12930, symBinAddr: 0x100015C90, symSize: 0xD0 }
  - { offset: 0x4AA3A, size: 0x8, addend: 0x0, symName: __RINvMsa_NtCsjK30CmJ87bX_9hashbrown3rawNtB6_13RawTableInner16drop_inner_tableTNtNtCs4xvdaJ1JWuv_14cranelift_isle4sema3SymNtB1f_6TermIdENtNtCslJiobkLta79_5alloc5alloc6GlobalEB1h_, symObjAddr: 0x12A00, symBinAddr: 0x100015D60, symSize: 0xD0 }
  - { offset: 0x4ACB3, size: 0x8, addend: 0x0, symName: __RINvMsa_NtCsjK30CmJ87bX_9hashbrown3rawNtB6_13RawTableInner16drop_inner_tableTNtNtCs4xvdaJ1JWuv_14cranelift_isle4sema3SymNtB1f_6TypeIdENtNtCslJiobkLta79_5alloc5alloc6GlobalEB1h_, symObjAddr: 0x12AD0, symBinAddr: 0x100015E30, symSize: 0xD0 }
  - { offset: 0x4AF2C, size: 0x8, addend: 0x0, symName: __RINvMsa_NtCsjK30CmJ87bX_9hashbrown3rawNtB6_13RawTableInner16drop_inner_tableTNtNtCs4xvdaJ1JWuv_14cranelift_isle4sema5VarIdNtNtB1h_10trie_again9BindingIdENtNtCslJiobkLta79_5alloc5alloc6GlobalEB1h_, symObjAddr: 0x12BA0, symBinAddr: 0x100015F00, symSize: 0xD0 }
  - { offset: 0x4B1A5, size: 0x8, addend: 0x0, symName: __RINvMsa_NtCsjK30CmJ87bX_9hashbrown3rawNtB6_13RawTableInner16drop_inner_tableTNtNtCs4xvdaJ1JWuv_14cranelift_isle4sema6TermIdNtNtB1h_10trie_again14RuleSetBuilderENtNtCslJiobkLta79_5alloc5alloc6GlobalEB1h_, symObjAddr: 0x12C70, symBinAddr: 0x100015FD0, symSize: 0xD0 }
  - { offset: 0x4B41E, size: 0x8, addend: 0x0, symName: __RINvMsa_NtCsjK30CmJ87bX_9hashbrown3rawNtB6_13RawTableInner16drop_inner_tableTNtNtCs4xvdaJ1JWuv_14cranelift_isle4sema6TermIduENtNtCslJiobkLta79_5alloc5alloc6GlobalEB1h_, symObjAddr: 0x12D40, symBinAddr: 0x1000160A0, symSize: 0xD0 }
  - { offset: 0x4B697, size: 0x8, addend: 0x0, symName: __RINvMsa_NtCsjK30CmJ87bX_9hashbrown3rawNtB6_13RawTableInner16drop_inner_tableTNtNtCs4xvdaJ1JWuv_14cranelift_isle5lexer3PosINtNtCslJiobkLta79_5alloc3vec3VecB1d_EENtNtB20_5alloc6GlobalEB1h_, symObjAddr: 0x12E10, symBinAddr: 0x100016170, symSize: 0xD0 }
  - { offset: 0x4B910, size: 0x8, addend: 0x0, symName: __RINvMsa_NtCsjK30CmJ87bX_9hashbrown3rawNtB6_13RawTableInner16drop_inner_tableTNtNtCs4xvdaJ1JWuv_14cranelift_isle5lexer3PosINtNtNtNtCsHUR1vrdMJt_3std11collections4hash3set7HashSetB1d_EENtNtCslJiobkLta79_5alloc5alloc6GlobalEB1h_, symObjAddr: 0x12EE0, symBinAddr: 0x100016240, symSize: 0xD0 }
  - { offset: 0x4BB89, size: 0x8, addend: 0x0, symName: __RINvMsa_NtCsjK30CmJ87bX_9hashbrown3rawNtB6_13RawTableInner16drop_inner_tableTNtNtCs4xvdaJ1JWuv_14cranelift_isle5lexer3PosuENtNtCslJiobkLta79_5alloc5alloc6GlobalEB1h_, symObjAddr: 0x12FB0, symBinAddr: 0x100016310, symSize: 0xD0 }
  - { offset: 0x4BE02, size: 0x8, addend: 0x0, symName: __RINvMsa_NtCsjK30CmJ87bX_9hashbrown3rawNtB6_13RawTableInner16drop_inner_tableTNtNtCslJiobkLta79_5alloc6string6StringNtNtCs4xvdaJ1JWuv_14cranelift_isle4sema3SymENtNtB1h_5alloc6GlobalEB1T_, symObjAddr: 0x13080, symBinAddr: 0x1000163E0, symSize: 0xD0 }
  - { offset: 0x4C07B, size: 0x8, addend: 0x0, symName: __RINvMsa_NtCsjK30CmJ87bX_9hashbrown3rawNtB6_13RawTableInner16drop_inner_tableTTNtNtCs4xvdaJ1JWuv_14cranelift_isle4sema6TypeIdB1e_ENtB1g_6TermIdENtNtCslJiobkLta79_5alloc5alloc6GlobalEB1i_, symObjAddr: 0x13150, symBinAddr: 0x1000164B0, symSize: 0xD0 }
  - { offset: 0x4C277, size: 0x8, addend: 0x0, symName: __RINvMsa_NtCsjK30CmJ87bX_9hashbrown3rawNtB6_13RawTableInner17new_uninitializedNtNtCslJiobkLta79_5alloc5alloc6GlobalECs4xvdaJ1JWuv_14cranelift_isle, symObjAddr: 0x13220, symBinAddr: 0x100016580, symSize: 0x290 }
  - { offset: 0x4C4CB, size: 0x8, addend: 0x0, symName: __RINvMsa_NtCsjK30CmJ87bX_9hashbrown3rawNtB6_13RawTableInner22fallible_with_capacityNtNtCslJiobkLta79_5alloc5alloc6GlobalECs4xvdaJ1JWuv_14cranelift_isle, symObjAddr: 0x134B0, symBinAddr: 0x100016810, symSize: 0x430 }
  - { offset: 0x4C994, size: 0x8, addend: 0x0, symName: __RINvMsi_NtCsjK30CmJ87bX_9hashbrown3rawINtB6_12RawIterRangeTNtNtCs4xvdaJ1JWuv_14cranelift_isle10trie_again7BindingNtBX_9BindingIdEE9next_implKb0_EBZ_, symObjAddr: 0x138E0, symBinAddr: 0x100016C40, symSize: 0x290 }
  - { offset: 0x4CE9E, size: 0x8, addend: 0x0, symName: __RINvMsi_NtCsjK30CmJ87bX_9hashbrown3rawINtB6_12RawIterRangeTNtNtCs4xvdaJ1JWuv_14cranelift_isle10trie_again9BindingIdNtBX_10ConstraintEE9next_implKb0_EBZ_, symObjAddr: 0x13B70, symBinAddr: 0x100016ED0, symSize: 0x290 }
  - { offset: 0x4D3A8, size: 0x8, addend: 0x0, symName: __RINvMsi_NtCsjK30CmJ87bX_9hashbrown3rawINtB6_12RawIterRangeTNtNtCs4xvdaJ1JWuv_14cranelift_isle10trie_again9BindingIdTBV_hEEE9next_implKb0_EBZ_, symObjAddr: 0x13E00, symBinAddr: 0x100017160, symSize: 0x290 }
  - { offset: 0x4D8CC, size: 0x8, addend: 0x0, symName: __RINvMsi_NtCsjK30CmJ87bX_9hashbrown3rawINtB6_12RawIterRangeTNtNtCs4xvdaJ1JWuv_14cranelift_isle4sema5VarIdNtNtBZ_10trie_again9BindingIdEE9fold_implNCINvXsG_NtB8_3mapINtB2s_4IterBV_B1E_ENtNtNtNtCsieiGu2EXtoJ_4core4iter6traits8iterator8Iterator4folduNCINvNtNtB31_8adapters3map8map_foldTRBV_RB1E_EBU_uNCINvMs1_BX_NtBX_4Expr13visit_in_ruleNtB1G_14RuleSetBuilderE0NCINvNvB2V_8for_each4callBU_NCINvXs1i_B2s_INtB2s_7HashMapBV_B1E_NtNtNtCsHUR1vrdMJt_3std4hash6random11RandomStateEINtNtB2Z_7collect6ExtendBU_E6extendINtB41_3MapINtNtNtNtB6R_11collections4hash3map4IterBV_B1E_EB4K_EE0E0E0E0uEBZ_, symObjAddr: 0x14090, symBinAddr: 0x1000173F0, symSize: 0x320 }
  - { offset: 0x4DE2F, size: 0x8, addend: 0x0, symName: __RINvMsi_NtCsjK30CmJ87bX_9hashbrown3rawINtB6_12RawIterRangeTNtNtCs4xvdaJ1JWuv_14cranelift_isle4sema6TermIdNtNtBZ_10trie_again14RuleSetBuilderEE9next_implKb0_EBZ_, symObjAddr: 0x143B0, symBinAddr: 0x100017710, symSize: 0x290 }
  - { offset: 0x4E339, size: 0x8, addend: 0x0, symName: __RINvMsi_NtCsjK30CmJ87bX_9hashbrown3rawINtB6_12RawIterRangeTNtNtCs4xvdaJ1JWuv_14cranelift_isle5lexer3PosINtNtCslJiobkLta79_5alloc3vec3VecBV_EEE9next_implKb0_EBZ_, symObjAddr: 0x14640, symBinAddr: 0x1000179A0, symSize: 0x290 }
  - { offset: 0x4E8D4, size: 0x8, addend: 0x0, symName: __RINvMsi_NtCsjK30CmJ87bX_9hashbrown3rawINtB6_12RawIterRangeTNtNtCs4xvdaJ1JWuv_14cranelift_isle5lexer3PosINtNtNtNtCsHUR1vrdMJt_3std11collections4hash3set7HashSetBV_EEE9fold_implNCINvXsG_NtB8_3mapINtB2W_4IterBV_B1D_ENtNtNtNtCsieiGu2EXtoJ_4core4iter6traits8iterator8Iterator4foldTTjRBV_ETB4s_RB1D_EENCINvNtNtB3v_8adapters3map8map_foldB4x_B4p_B4p_NCINvNvB3p_10max_by_key3keyB4x_B4q_NCNvMNtBZ_7overlapNtB68_6Errors6report0E0NCINvNvB3p_6max_by4foldB4p_INvB5z_7compareB4x_B4q_EE0E0E0B4p_EBZ_, symObjAddr: 0x148D0, symBinAddr: 0x100017C30, symSize: 0x420 }
  - { offset: 0x4EE37, size: 0x8, addend: 0x0, symName: __RINvMsi_NtCsjK30CmJ87bX_9hashbrown3rawINtB6_12RawIterRangeTNtNtCs4xvdaJ1JWuv_14cranelift_isle5lexer3PosINtNtNtNtCsHUR1vrdMJt_3std11collections4hash3set7HashSetBV_EEE9next_implKb0_EBZ_, symObjAddr: 0x14CF0, symBinAddr: 0x100018050, symSize: 0x290 }
  - { offset: 0x4F341, size: 0x8, addend: 0x0, symName: __RINvMsi_NtCsjK30CmJ87bX_9hashbrown3rawINtB6_12RawIterRangeTNtNtCs4xvdaJ1JWuv_14cranelift_isle5lexer3PosuEE9next_implKb0_EBZ_, symObjAddr: 0x14F80, symBinAddr: 0x1000182E0, symSize: 0x290 }
  - { offset: 0x4F84B, size: 0x8, addend: 0x0, symName: __RINvMsi_NtCsjK30CmJ87bX_9hashbrown3rawINtB6_12RawIterRangeTNtNtCslJiobkLta79_5alloc6string6StringNtNtCs4xvdaJ1JWuv_14cranelift_isle4sema3SymEE9next_implKb0_EB1B_, symObjAddr: 0x15210, symBinAddr: 0x100018570, symSize: 0x290 }
  - { offset: 0x53041, size: 0x8, addend: 0x0, symName: __RNvMs1_NtCsjK30CmJ87bX_9hashbrown3rawNtB5_11TableLayout20calculate_layout_forCs4xvdaJ1JWuv_14cranelift_isle, symObjAddr: 0x17380, symBinAddr: 0x10001A6E0, symSize: 0x2F0 }
  - { offset: 0x534E4, size: 0x8, addend: 0x0, symName: __RNvMs6_NtCsjK30CmJ87bX_9hashbrown3rawINtB5_8RawTableTNtNtCs4xvdaJ1JWuv_14cranelift_isle10trie_again7BindingNtBR_9BindingIdEE14insert_in_slotBT_, symObjAddr: 0x17670, symBinAddr: 0x10001A9D0, symSize: 0x140 }
  - { offset: 0x5399F, size: 0x8, addend: 0x0, symName: __RNvMs6_NtCsjK30CmJ87bX_9hashbrown3rawINtB5_8RawTableTNtNtCs4xvdaJ1JWuv_14cranelift_isle10trie_again9BindingIdNtBR_10ConstraintEE14insert_no_growBT_, symObjAddr: 0x177B0, symBinAddr: 0x10001AB10, symSize: 0x170 }
  - { offset: 0x53C99, size: 0x8, addend: 0x0, symName: __RNvMs6_NtCsjK30CmJ87bX_9hashbrown3rawINtB5_8RawTableTNtNtCs4xvdaJ1JWuv_14cranelift_isle10trie_again9BindingIdTBP_hEEE13erase_no_dropBT_, symObjAddr: 0x17920, symBinAddr: 0x10001AC80, symSize: 0x80 }
  - { offset: 0x53FD7, size: 0x8, addend: 0x0, symName: __RNvMs6_NtCsjK30CmJ87bX_9hashbrown3rawINtB5_8RawTableTNtNtCs4xvdaJ1JWuv_14cranelift_isle10trie_again9BindingIdTBP_hEEE14insert_in_slotBT_, symObjAddr: 0x179A0, symBinAddr: 0x10001AD00, symSize: 0x160 }
  - { offset: 0x54340, size: 0x8, addend: 0x0, symName: __RNvMs6_NtCsjK30CmJ87bX_9hashbrown3rawINtB5_8RawTableTNtNtCs4xvdaJ1JWuv_14cranelift_isle10trie_again9BindingIdTBP_hEEE17new_uninitializedBT_, symObjAddr: 0x17B00, symBinAddr: 0x10001AE60, symSize: 0x1F0 }
  - { offset: 0x54550, size: 0x8, addend: 0x0, symName: __RNvMs6_NtCsjK30CmJ87bX_9hashbrown3rawINtB5_8RawTableTNtNtCs4xvdaJ1JWuv_14cranelift_isle10trie_again9BindingIdTBP_hEEE6removeBT_, symObjAddr: 0x17CF0, symBinAddr: 0x10001B050, symSize: 0x120 }
  - { offset: 0x54915, size: 0x8, addend: 0x0, symName: __RNvMs6_NtCsjK30CmJ87bX_9hashbrown3rawINtB5_8RawTableTNtNtCs4xvdaJ1JWuv_14cranelift_isle10trie_again9BindingIduEE14insert_in_slotBT_, symObjAddr: 0x17E10, symBinAddr: 0x10001B170, symSize: 0x130 }
  - { offset: 0x54C7E, size: 0x8, addend: 0x0, symName: __RNvMs6_NtCsjK30CmJ87bX_9hashbrown3rawINtB5_8RawTableTNtNtCs4xvdaJ1JWuv_14cranelift_isle10trie_again9BindingIduEE17new_uninitializedBT_, symObjAddr: 0x17F40, symBinAddr: 0x10001B2A0, symSize: 0x1F0 }
  - { offset: 0x54F5A, size: 0x8, addend: 0x0, symName: __RNvMs6_NtCsjK30CmJ87bX_9hashbrown3rawINtB5_8RawTableTNtNtCs4xvdaJ1JWuv_14cranelift_isle4sema3SymNtBR_6TermIdEE14insert_in_slotBT_, symObjAddr: 0x18130, symBinAddr: 0x10001B490, symSize: 0x160 }
  - { offset: 0x554A6, size: 0x8, addend: 0x0, symName: __RNvMs6_NtCsjK30CmJ87bX_9hashbrown3rawINtB5_8RawTableTNtNtCs4xvdaJ1JWuv_14cranelift_isle4sema3SymNtBR_6TypeIdEE14insert_in_slotBT_, symObjAddr: 0x18290, symBinAddr: 0x10001B5F0, symSize: 0x160 }
  - { offset: 0x559F2, size: 0x8, addend: 0x0, symName: __RNvMs6_NtCsjK30CmJ87bX_9hashbrown3rawINtB5_8RawTableTNtNtCs4xvdaJ1JWuv_14cranelift_isle4sema5VarIdNtNtBT_10trie_again9BindingIdEE14insert_in_slotBT_, symObjAddr: 0x183F0, symBinAddr: 0x10001B750, symSize: 0x160 }
  - { offset: 0x55D5B, size: 0x8, addend: 0x0, symName: __RNvMs6_NtCsjK30CmJ87bX_9hashbrown3rawINtB5_8RawTableTNtNtCs4xvdaJ1JWuv_14cranelift_isle4sema5VarIdNtNtBT_10trie_again9BindingIdEE17new_uninitializedBT_, symObjAddr: 0x18550, symBinAddr: 0x10001B8B0, symSize: 0x1F0 }
  - { offset: 0x55FAF, size: 0x8, addend: 0x0, symName: __RNvMs6_NtCsjK30CmJ87bX_9hashbrown3rawINtB5_8RawTableTNtNtCs4xvdaJ1JWuv_14cranelift_isle4sema6TermIdNtNtBT_10trie_again14RuleSetBuilderEE14insert_no_growBT_, symObjAddr: 0x18740, symBinAddr: 0x10001BAA0, symSize: 0x180 }
  - { offset: 0x56233, size: 0x8, addend: 0x0, symName: __RNvMs6_NtCsjK30CmJ87bX_9hashbrown3rawINtB5_8RawTableTNtNtCs4xvdaJ1JWuv_14cranelift_isle4sema6TermIdNtNtBT_10trie_again14RuleSetBuilderEE14into_iter_fromBT_, symObjAddr: 0x188C0, symBinAddr: 0x10001BC20, symSize: 0xA0 }
  - { offset: 0x5630D, size: 0x8, addend: 0x0, symName: __RNvMs6_NtCsjK30CmJ87bX_9hashbrown3rawINtB5_8RawTableTNtNtCs4xvdaJ1JWuv_14cranelift_isle4sema6TermIdNtNtBT_10trie_again14RuleSetBuilderEE15into_allocationBT_, symObjAddr: 0x18960, symBinAddr: 0x10001BCC0, symSize: 0x1A0 }
  - { offset: 0x565D9, size: 0x8, addend: 0x0, symName: __RNvMs6_NtCsjK30CmJ87bX_9hashbrown3rawINtB5_8RawTableTNtNtCs4xvdaJ1JWuv_14cranelift_isle4sema6TermIduEE14insert_in_slotBT_, symObjAddr: 0x18B00, symBinAddr: 0x10001BE60, symSize: 0x140 }
  - { offset: 0x56942, size: 0x8, addend: 0x0, symName: __RNvMs6_NtCsjK30CmJ87bX_9hashbrown3rawINtB5_8RawTableTNtNtCs4xvdaJ1JWuv_14cranelift_isle4sema6TermIduEE17new_uninitializedBT_, symObjAddr: 0x18C40, symBinAddr: 0x10001BFA0, symSize: 0x1F0 }
  - { offset: 0x56B96, size: 0x8, addend: 0x0, symName: __RNvMs6_NtCsjK30CmJ87bX_9hashbrown3rawINtB5_8RawTableTNtNtCs4xvdaJ1JWuv_14cranelift_isle5lexer3PosINtNtCslJiobkLta79_5alloc3vec3VecBP_EEE14insert_no_growBT_, symObjAddr: 0x18E30, symBinAddr: 0x10001C190, symSize: 0x180 }
  - { offset: 0x56DF1, size: 0x8, addend: 0x0, symName: __RNvMs6_NtCsjK30CmJ87bX_9hashbrown3rawINtB5_8RawTableTNtNtCs4xvdaJ1JWuv_14cranelift_isle5lexer3PosINtNtCslJiobkLta79_5alloc3vec3VecBP_EEE14into_iter_fromBT_, symObjAddr: 0x18FB0, symBinAddr: 0x10001C310, symSize: 0xA0 }
  - { offset: 0x56ECB, size: 0x8, addend: 0x0, symName: __RNvMs6_NtCsjK30CmJ87bX_9hashbrown3rawINtB5_8RawTableTNtNtCs4xvdaJ1JWuv_14cranelift_isle5lexer3PosINtNtCslJiobkLta79_5alloc3vec3VecBP_EEE15into_allocationBT_, symObjAddr: 0x19050, symBinAddr: 0x10001C3B0, symSize: 0x1A0 }
  - { offset: 0x5704C, size: 0x8, addend: 0x0, symName: __RNvMs6_NtCsjK30CmJ87bX_9hashbrown3rawINtB5_8RawTableTNtNtCs4xvdaJ1JWuv_14cranelift_isle5lexer3PosINtNtNtNtCsHUR1vrdMJt_3std11collections4hash3set7HashSetBP_EEE13erase_no_dropBT_, symObjAddr: 0x191F0, symBinAddr: 0x10001C550, symSize: 0x70 }
  - { offset: 0x57302, size: 0x8, addend: 0x0, symName: __RNvMs6_NtCsjK30CmJ87bX_9hashbrown3rawINtB5_8RawTableTNtNtCs4xvdaJ1JWuv_14cranelift_isle5lexer3PosINtNtNtNtCsHUR1vrdMJt_3std11collections4hash3set7HashSetBP_EEE14insert_no_growBT_, symObjAddr: 0x19260, symBinAddr: 0x10001C5C0, symSize: 0x180 }
  - { offset: 0x57674, size: 0x8, addend: 0x0, symName: __RNvMs6_NtCsjK30CmJ87bX_9hashbrown3rawINtB5_8RawTableTNtNtCs4xvdaJ1JWuv_14cranelift_isle5lexer3PosINtNtNtNtCsHUR1vrdMJt_3std11collections4hash3set7HashSetBP_EEE6removeBT_, symObjAddr: 0x193E0, symBinAddr: 0x10001C740, symSize: 0x140 }
  - { offset: 0x578EE, size: 0x8, addend: 0x0, symName: __RNvMs6_NtCsjK30CmJ87bX_9hashbrown3rawINtB5_8RawTableTNtNtCs4xvdaJ1JWuv_14cranelift_isle5lexer3PosuEE13erase_no_dropBT_, symObjAddr: 0x19520, symBinAddr: 0x10001C880, symSize: 0x70 }
  - { offset: 0x57C2C, size: 0x8, addend: 0x0, symName: __RNvMs6_NtCsjK30CmJ87bX_9hashbrown3rawINtB5_8RawTableTNtNtCs4xvdaJ1JWuv_14cranelift_isle5lexer3PosuEE14insert_in_slotBT_, symObjAddr: 0x19590, symBinAddr: 0x10001C8F0, symSize: 0x160 }
  - { offset: 0x57F95, size: 0x8, addend: 0x0, symName: __RNvMs6_NtCsjK30CmJ87bX_9hashbrown3rawINtB5_8RawTableTNtNtCs4xvdaJ1JWuv_14cranelift_isle5lexer3PosuEE14into_iter_fromBT_, symObjAddr: 0x196F0, symBinAddr: 0x10001CA50, symSize: 0xA0 }
  - { offset: 0x5806F, size: 0x8, addend: 0x0, symName: __RNvMs6_NtCsjK30CmJ87bX_9hashbrown3rawINtB5_8RawTableTNtNtCs4xvdaJ1JWuv_14cranelift_isle5lexer3PosuEE15into_allocationBT_, symObjAddr: 0x19790, symBinAddr: 0x10001CAF0, symSize: 0x190 }
  - { offset: 0x5826F, size: 0x8, addend: 0x0, symName: __RNvMs6_NtCsjK30CmJ87bX_9hashbrown3rawINtB5_8RawTableTNtNtCs4xvdaJ1JWuv_14cranelift_isle5lexer3PosuEE6removeBT_, symObjAddr: 0x19920, symBinAddr: 0x10001CC80, symSize: 0x120 }
  - { offset: 0x58634, size: 0x8, addend: 0x0, symName: __RNvMs6_NtCsjK30CmJ87bX_9hashbrown3rawINtB5_8RawTableTNtNtCslJiobkLta79_5alloc6string6StringNtNtCs4xvdaJ1JWuv_14cranelift_isle4sema3SymEE14insert_in_slotB1v_, symObjAddr: 0x19A40, symBinAddr: 0x10001CDA0, symSize: 0x150 }
  - { offset: 0x58AEF, size: 0x8, addend: 0x0, symName: __RNvMs6_NtCsjK30CmJ87bX_9hashbrown3rawINtB5_8RawTableTTNtNtCs4xvdaJ1JWuv_14cranelift_isle4sema6TypeIdBQ_ENtBS_6TermIdEE14insert_no_growBU_, symObjAddr: 0x19B90, symBinAddr: 0x10001CEF0, symSize: 0x180 }
  - { offset: 0x58E8A, size: 0x8, addend: 0x0, symName: __RNvMsa_NtCsjK30CmJ87bX_9hashbrown3rawNtB5_13RawTableInner15fix_insert_slotCs4xvdaJ1JWuv_14cranelift_isle, symObjAddr: 0x19D10, symBinAddr: 0x10001D070, symSize: 0x140 }
  - { offset: 0x59223, size: 0x8, addend: 0x0, symName: __RNvMsa_NtCsjK30CmJ87bX_9hashbrown3rawNtB5_13RawTableInner15rehash_in_placeCs4xvdaJ1JWuv_14cranelift_isle, symObjAddr: 0x19E50, symBinAddr: 0x10001D1B0, symSize: 0x5B0 }
  - { offset: 0x599EF, size: 0x8, addend: 0x0, symName: __RNvMsa_NtCsjK30CmJ87bX_9hashbrown3rawNtB5_13RawTableInner16find_insert_slotCs4xvdaJ1JWuv_14cranelift_isle, symObjAddr: 0x1A400, symBinAddr: 0x10001D760, symSize: 0x130 }
  - { offset: 0x59BEE, size: 0x8, addend: 0x0, symName: __RNvMsa_NtCsjK30CmJ87bX_9hashbrown3rawNtB5_13RawTableInner19prepare_insert_slotCs4xvdaJ1JWuv_14cranelift_isle, symObjAddr: 0x1A530, symBinAddr: 0x10001D890, symSize: 0x60 }
  - { offset: 0x59EDF, size: 0x8, addend: 0x0, symName: __RNvMsa_NtCsjK30CmJ87bX_9hashbrown3rawNtB5_13RawTableInner23prepare_rehash_in_placeCs4xvdaJ1JWuv_14cranelift_isle, symObjAddr: 0x1A590, symBinAddr: 0x10001D8F0, symSize: 0x340 }
  - { offset: 0x5A606, size: 0x8, addend: 0x0, symName: __RNvMsa_NtCsjK30CmJ87bX_9hashbrown3rawNtB5_13RawTableInner25find_insert_slot_in_groupCs4xvdaJ1JWuv_14cranelift_isle, symObjAddr: 0x1A8D0, symBinAddr: 0x10001DC30, symSize: 0x160 }
  - { offset: 0x5A904, size: 0x8, addend: 0x0, symName: __RNvMsa_NtCsjK30CmJ87bX_9hashbrown3rawNtB5_13RawTableInner30find_or_find_insert_slot_innerCs4xvdaJ1JWuv_14cranelift_isle, symObjAddr: 0x1AA30, symBinAddr: 0x10001DD90, symSize: 0x410 }
  - { offset: 0x5ADDE, size: 0x8, addend: 0x0, symName: __RNvMsa_NtCsjK30CmJ87bX_9hashbrown3rawNtB5_13RawTableInner5eraseCs4xvdaJ1JWuv_14cranelift_isle, symObjAddr: 0x1AE40, symBinAddr: 0x10001E1A0, symSize: 0x230 }
  - { offset: 0x5B179, size: 0x8, addend: 0x0, symName: __RNvMsi_NtCsjK30CmJ87bX_9hashbrown3rawINtB5_12RawIterRangeTNtNtCs4xvdaJ1JWuv_14cranelift_isle10trie_again7BindingNtBW_9BindingIdEE3newBY_, symObjAddr: 0x1B070, symBinAddr: 0x10001E3D0, symSize: 0x120 }
  - { offset: 0x5B499, size: 0x8, addend: 0x0, symName: __RNvMsi_NtCsjK30CmJ87bX_9hashbrown3rawINtB5_12RawIterRangeTNtNtCs4xvdaJ1JWuv_14cranelift_isle10trie_again9BindingIdNtBW_10ConstraintEE3newBY_, symObjAddr: 0x1B190, symBinAddr: 0x10001E4F0, symSize: 0x120 }
  - { offset: 0x5B7B9, size: 0x8, addend: 0x0, symName: __RNvMsi_NtCsjK30CmJ87bX_9hashbrown3rawINtB5_12RawIterRangeTNtNtCs4xvdaJ1JWuv_14cranelift_isle10trie_again9BindingIdTBU_hEEE3newBY_, symObjAddr: 0x1B2B0, symBinAddr: 0x10001E610, symSize: 0x120 }
  - { offset: 0x5BAD9, size: 0x8, addend: 0x0, symName: __RNvMsi_NtCsjK30CmJ87bX_9hashbrown3rawINtB5_12RawIterRangeTNtNtCs4xvdaJ1JWuv_14cranelift_isle4sema5VarIdNtNtBY_10trie_again9BindingIdEE3newBY_, symObjAddr: 0x1B3D0, symBinAddr: 0x10001E730, symSize: 0x120 }
  - { offset: 0x5BDF9, size: 0x8, addend: 0x0, symName: __RNvMsi_NtCsjK30CmJ87bX_9hashbrown3rawINtB5_12RawIterRangeTNtNtCs4xvdaJ1JWuv_14cranelift_isle4sema6TermIdNtNtBY_10trie_again14RuleSetBuilderEE3newBY_, symObjAddr: 0x1B4F0, symBinAddr: 0x10001E850, symSize: 0x120 }
  - { offset: 0x5C119, size: 0x8, addend: 0x0, symName: __RNvMsi_NtCsjK30CmJ87bX_9hashbrown3rawINtB5_12RawIterRangeTNtNtCs4xvdaJ1JWuv_14cranelift_isle5lexer3PosINtNtCslJiobkLta79_5alloc3vec3VecBU_EEE3newBY_, symObjAddr: 0x1B610, symBinAddr: 0x10001E970, symSize: 0x120 }
  - { offset: 0x5C439, size: 0x8, addend: 0x0, symName: __RNvMsi_NtCsjK30CmJ87bX_9hashbrown3rawINtB5_12RawIterRangeTNtNtCs4xvdaJ1JWuv_14cranelift_isle5lexer3PosINtNtNtNtCsHUR1vrdMJt_3std11collections4hash3set7HashSetBU_EEE3newBY_, symObjAddr: 0x1B730, symBinAddr: 0x10001EA90, symSize: 0x120 }
  - { offset: 0x5C759, size: 0x8, addend: 0x0, symName: __RNvMsi_NtCsjK30CmJ87bX_9hashbrown3rawINtB5_12RawIterRangeTNtNtCs4xvdaJ1JWuv_14cranelift_isle5lexer3PosuEE3newBY_, symObjAddr: 0x1B850, symBinAddr: 0x10001EBB0, symSize: 0x120 }
  - { offset: 0x5CA79, size: 0x8, addend: 0x0, symName: __RNvMsi_NtCsjK30CmJ87bX_9hashbrown3rawINtB5_12RawIterRangeTNtNtCslJiobkLta79_5alloc6string6StringNtNtCs4xvdaJ1JWuv_14cranelift_isle4sema3SymEE3newB1A_, symObjAddr: 0x1B970, symBinAddr: 0x10001ECD0, symSize: 0x120 }
  - { offset: 0x5CD75, size: 0x8, addend: 0x0, symName: __RNvMso_NtCsjK30CmJ87bX_9hashbrown3rawINtB5_7RawIterTNtNtCs4xvdaJ1JWuv_14cranelift_isle4sema6TermIdNtNtBS_10trie_again14RuleSetBuilderEE13drop_elementsBS_, symObjAddr: 0x1BA90, symBinAddr: 0x10001EDF0, symSize: 0xE0 }
  - { offset: 0x5CEFE, size: 0x8, addend: 0x0, symName: __RNvMso_NtCsjK30CmJ87bX_9hashbrown3rawINtB5_7RawIterTNtNtCs4xvdaJ1JWuv_14cranelift_isle5lexer3PosINtNtCslJiobkLta79_5alloc3vec3VecBO_EEE13drop_elementsBS_, symObjAddr: 0x1BB70, symBinAddr: 0x10001EED0, symSize: 0xE0 }
  - { offset: 0x5D06B, size: 0x8, addend: 0x0, symName: __RNvMso_NtCsjK30CmJ87bX_9hashbrown3rawINtB5_7RawIterTNtNtCs4xvdaJ1JWuv_14cranelift_isle5lexer3PosuEE13drop_elementsBS_, symObjAddr: 0x1BC50, symBinAddr: 0x10001EFB0, symSize: 0x20 }
  - { offset: 0x5DA98, size: 0x8, addend: 0x0, symName: __RINvMs_NtCslJiobkLta79_5alloc3vecINtB5_3VecNtNtCs4xvdaJ1JWuv_14cranelift_isle10trie_again16UnreachableErrorE5drainNtNtNtCsieiGu2EXtoJ_4core3ops5range9RangeFullEBJ_, symObjAddr: 0x0, symBinAddr: 0x1000209F0, symSize: 0x1C0 }
  - { offset: 0x68BD5, size: 0x8, addend: 0x0, symName: __RNvXs19_NtCsieiGu2EXtoJ_4core3fmtRINtNtCslJiobkLta79_5alloc3vec3VecNtNtCs4xvdaJ1JWuv_14cranelift_isle10trie_again9BindingIdENtB6_5Debug3fmtB17_, symObjAddr: 0xE910, symBinAddr: 0x10002F300, symSize: 0x20 }
  - { offset: 0x68C1B, size: 0x8, addend: 0x0, symName: __RNvXs19_NtCsieiGu2EXtoJ_4core3fmtRINtNtCslJiobkLta79_5alloc3vec3VecNtNtCs4xvdaJ1JWuv_14cranelift_isle5error4SpanENtB6_5Debug3fmtB17_, symObjAddr: 0xE930, symBinAddr: 0x10002F320, symSize: 0x20 }
  - { offset: 0x6AEDB, size: 0x8, addend: 0x0, symName: __RINvNvMs_NtCslJiobkLta79_5alloc3vecINtB7_3VecppE10retain_mut12process_loopNCINvMs_B7_IBy_NtNtCs4xvdaJ1JWuv_14cranelift_isle10trie_again9BindingIdE6retainNCNvMNtB1t_12disjointsetsINtB2w_12DisjointSetsB1p_E13remove_set_of0E0B1p_NtNtB9_5alloc6GlobalKb0_EB1t_, symObjAddr: 0x48F0, symBinAddr: 0x1000252E0, symSize: 0xB0 }
  - { offset: 0x6B02F, size: 0x8, addend: 0x0, symName: __RINvNvMs_NtCslJiobkLta79_5alloc3vecINtB7_3VecppE10retain_mut12process_loopNCINvMs_B7_IBy_NtNtCs4xvdaJ1JWuv_14cranelift_isle10trie_again9BindingIdE6retainNCNvMNtB1t_12disjointsetsINtB2w_12DisjointSetsB1p_E13remove_set_of0E0B1p_NtNtB9_5alloc6GlobalKb1_EB1t_, symObjAddr: 0x49A0, symBinAddr: 0x100025390, symSize: 0x120 }
  - { offset: 0x6B220, size: 0x8, addend: 0x0, symName: __RINvNvMs_NtCslJiobkLta79_5alloc3vecINtB7_3VecppE10retain_mut12process_loopNCNvMs2_NtCs4xvdaJ1JWuv_14cranelift_isle9serializeNtB1i_13Decomposition17best_control_flow0NtB1i_9CandidateNtNtB9_5alloc6GlobalKb0_EB1k_, symObjAddr: 0x4AC0, symBinAddr: 0x1000254B0, symSize: 0xB0 }
  - { offset: 0x6B374, size: 0x8, addend: 0x0, symName: __RINvNvMs_NtCslJiobkLta79_5alloc3vecINtB7_3VecppE10retain_mut12process_loopNCNvMs2_NtCs4xvdaJ1JWuv_14cranelift_isle9serializeNtB1i_13Decomposition17best_control_flow0NtB1i_9CandidateNtNtB9_5alloc6GlobalKb1_EB1k_, symObjAddr: 0x4B70, symBinAddr: 0x100025560, symSize: 0x130 }
  - { offset: 0x6B565, size: 0x8, addend: 0x0, symName: __RINvNvMs_NtCslJiobkLta79_5alloc3vecINtB7_3VecppE10retain_mut12process_loopNCNvMs2_NtCs4xvdaJ1JWuv_14cranelift_isle9serializeNtB1i_13Decomposition17best_control_flows_0NtB1i_14EqualCandidateNtNtB9_5alloc6GlobalKb0_EB1k_, symObjAddr: 0x4CA0, symBinAddr: 0x100025690, symSize: 0xB0 }
  - { offset: 0x6B6B9, size: 0x8, addend: 0x0, symName: __RINvNvMs_NtCslJiobkLta79_5alloc3vecINtB7_3VecppE10retain_mut12process_loopNCNvMs2_NtCs4xvdaJ1JWuv_14cranelift_isle9serializeNtB1i_13Decomposition17best_control_flows_0NtB1i_14EqualCandidateNtNtB9_5alloc6GlobalKb1_EB1k_, symObjAddr: 0x4D50, symBinAddr: 0x100025740, symSize: 0x130 }
  - { offset: 0x6B8AF, size: 0x8, addend: 0x0, symName: __RNvXNvMs_NtCslJiobkLta79_5alloc3vecINtB7_3VecppE10retain_mutINtB2_15BackshiftOnDropNtNtCs4xvdaJ1JWuv_14cranelift_isle10trie_again9BindingIdNtNtB9_5alloc6GlobalENtNtNtCsieiGu2EXtoJ_4core3ops4drop4Drop4dropB1n_, symObjAddr: 0xE470, symBinAddr: 0x10002EE60, symSize: 0x180 }
  - { offset: 0x6BAEE, size: 0x8, addend: 0x0, symName: __RNvXNvMs_NtCslJiobkLta79_5alloc3vecINtB7_3VecppE10retain_mutINtB2_15BackshiftOnDropNtNtCs4xvdaJ1JWuv_14cranelift_isle9serialize14EqualCandidateNtNtB9_5alloc6GlobalENtNtNtCsieiGu2EXtoJ_4core3ops4drop4Drop4dropB1n_, symObjAddr: 0xE5F0, symBinAddr: 0x10002EFE0, symSize: 0x190 }
  - { offset: 0x6BD2D, size: 0x8, addend: 0x0, symName: __RNvXNvMs_NtCslJiobkLta79_5alloc3vecINtB7_3VecppE10retain_mutINtB2_15BackshiftOnDropNtNtCs4xvdaJ1JWuv_14cranelift_isle9serialize9CandidateNtNtB9_5alloc6GlobalENtNtNtCsieiGu2EXtoJ_4core3ops4drop4Drop4dropB1n_, symObjAddr: 0xE780, symBinAddr: 0x10002F170, symSize: 0x190 }
  - { offset: 0x6BF86, size: 0x8, addend: 0x0, symName: __RNCINvMs_NtCslJiobkLta79_5alloc3vecINtB7_3VecNtNtCs4xvdaJ1JWuv_14cranelift_isle10trie_again9BindingIdE6retainNCNvMNtBL_12disjointsetsINtB1O_12DisjointSetsBH_E13remove_set_of0E0BL_, symObjAddr: 0x57E0, symBinAddr: 0x1000261D0, symSize: 0x20 }
  - { offset: 0x6BFE7, size: 0x8, addend: 0x0, symName: __RNvNvMs_NtCslJiobkLta79_5alloc3vecINtB6_3VecppE17from_raw_parts_in18precondition_checkCs4xvdaJ1JWuv_14cranelift_isle, symObjAddr: 0xC030, symBinAddr: 0x10002CA20, symSize: 0xA0 }
  - { offset: 0x6C055, size: 0x8, addend: 0x0, symName: __RNvNvMs_NtCslJiobkLta79_5alloc3vecINtB6_3VecppE7set_len18precondition_checkCs4xvdaJ1JWuv_14cranelift_isle, symObjAddr: 0xC0D0, symBinAddr: 0x10002CAC0, symSize: 0xA0 }
  - { offset: 0x70213, size: 0x8, addend: 0x0, symName: __RINvXsd_NtCslJiobkLta79_5alloc3vecINtB6_3VecINtNtCsieiGu2EXtoJ_4core6option6OptionNtNtCs4xvdaJ1JWuv_14cranelift_isle10trie_again9BindingIdEEINtNtNtNtBL_4iter6traits7collect12FromIteratorBG_E9from_iterINtNtNtB2l_8adapters3map3MapINtNtB6_9into_iter8IntoIterNtB1k_7BindingENCNvMs2_NtB1m_9serializeNtB4s_13Decomposition17make_control_flows1_0EEB1m_, symObjAddr: 0x4E80, symBinAddr: 0x100025870, symSize: 0x40 }
  - { offset: 0x70254, size: 0x8, addend: 0x0, symName: __RINvXsd_NtCslJiobkLta79_5alloc3vecINtB6_3VecINtNtNtCs4xvdaJ1JWuv_14cranelift_isle5error10diagnostic10DiagnosticjEEINtNtNtNtCsieiGu2EXtoJ_4core4iter6traits7collect12FromIteratorBG_E9from_iterINtNtNtB1V_8adapters3map3MapINtNtNtB1X_5slice4iter4IterNtBL_5ErrorENCNvXBL_NtBL_6ErrorsNtNtB1X_3fmt5Debug3fmt0EEBN_, symObjAddr: 0x4EC0, symBinAddr: 0x1000258B0, symSize: 0x60 }
  - { offset: 0x70294, size: 0x8, addend: 0x0, symName: __RINvXsd_NtCslJiobkLta79_5alloc3vecINtB6_3VecNtNtB8_6string6StringEINtNtNtNtCsieiGu2EXtoJ_4core4iter6traits7collect12FromIteratorBG_E9from_iterINtNtNtB19_8adapters3map3MapINtNtNtB1b_5slice4iter4IterNtNtCs4xvdaJ1JWuv_14cranelift_isle4sema6TypeIdENCNvMs_NtB3d_7codegenNtB41_7Codegen18generate_trait_sig0EEB3d_, symObjAddr: 0x4F20, symBinAddr: 0x100025910, symSize: 0x40 }
  - { offset: 0x702D5, size: 0x8, addend: 0x0, symName: __RINvXsd_NtCslJiobkLta79_5alloc3vecINtB6_3VecNtNtB8_6string6StringEINtNtNtNtCsieiGu2EXtoJ_4core4iter6traits7collect12FromIteratorBG_E9from_iterINtNtNtB19_8adapters5chain5ChainINtNtB2l_3map3MapINtNtB2l_9enumerate9EnumerateINtNtNtB1b_5slice4iter4IterNtNtCs4xvdaJ1JWuv_14cranelift_isle4sema6TypeIdEENCNvMs_NtB41_7codegenNtB4Q_7Codegen18generate_trait_sigs_0EINtNtB1b_6option8IntoIterBG_EEEB41_, symObjAddr: 0x4F60, symBinAddr: 0x100025950, symSize: 0x40 }
  - { offset: 0x70316, size: 0x8, addend: 0x0, symName: __RINvXsd_NtCslJiobkLta79_5alloc3vecINtB6_3VecNtNtCs4xvdaJ1JWuv_14cranelift_isle10trie_again7BindingEINtNtNtNtCsieiGu2EXtoJ_4core4iter6traits7collect12FromIteratorBG_E9from_iterINtNtNtB1G_8adapters3map3MapIB2O_INtNtNtB1I_3ops5range5RangehENcNtBI_10TupleIndex0ENCNvMs4_BI_NtBI_10Constraint12bindings_for0EEBK_, symObjAddr: 0x4FA0, symBinAddr: 0x100025990, symSize: 0x40 }
  - { offset: 0x70357, size: 0x8, addend: 0x0, symName: __RINvXsd_NtCslJiobkLta79_5alloc3vecINtB6_3VecNtNtCs4xvdaJ1JWuv_14cranelift_isle10trie_again9BindingIdEINtNtNtNtCsieiGu2EXtoJ_4core4iter6traits7collect12FromIteratorBG_E9from_iterINtNtNtB1I_8adapters3map3MapIB2Q_INtNtNtB1K_3ops5range5RangehENcNtBI_10TupleIndex0ENCNvXs7_BI_NtBI_14RuleSetBuilderNtNtBK_4sema14PatternVisitor11add_extract0EEBK_, symObjAddr: 0x4FE0, symBinAddr: 0x1000259D0, symSize: 0x40 }
  - { offset: 0x70398, size: 0x8, addend: 0x0, symName: __RINvXsd_NtCslJiobkLta79_5alloc3vecINtB6_3VecNtNtCs4xvdaJ1JWuv_14cranelift_isle10trie_again9BindingIdEINtNtNtNtCsieiGu2EXtoJ_4core4iter6traits7collect12FromIteratorBG_E9from_iterINtNtNtB1I_8adapters3map3MapINtNtB6_9into_iter8IntoIterNtBI_7BindingENCNvMs6_BI_NtBI_14RuleSetBuilder14set_constraint0EEBK_, symObjAddr: 0x5020, symBinAddr: 0x100025A10, symSize: 0x40 }
  - { offset: 0x703D9, size: 0x8, addend: 0x0, symName: __RINvXsd_NtCslJiobkLta79_5alloc3vecINtB6_3VecNtNtCs4xvdaJ1JWuv_14cranelift_isle10trie_again9BindingIdEINtNtNtNtCsieiGu2EXtoJ_4core4iter6traits7collect12FromIteratorBG_E9from_iterINtNtNtB1I_8adapters3map3MapINtNtB6_9into_iter8IntoIterTBG_NtNtBK_4sema6TypeIdEENCNvXs8_BI_NtBI_14RuleSetBuilderNtB3O_11ExprVisitor13add_construct0EEBK_, symObjAddr: 0x5060, symBinAddr: 0x100025A50, symSize: 0x40 }
  - { offset: 0x7041A, size: 0x8, addend: 0x0, symName: __RINvXsd_NtCslJiobkLta79_5alloc3vecINtB6_3VecNtNtCs4xvdaJ1JWuv_14cranelift_isle10trie_again9BindingIdEINtNtNtNtCsieiGu2EXtoJ_4core4iter6traits7collect12FromIteratorBG_E9from_iterINtNtNtB1I_8adapters3map3MapINtNtB6_9into_iter8IntoIterTBG_NtNtBK_4sema6TypeIdEENCNvXs8_BI_NtBI_14RuleSetBuilderNtB3O_11ExprVisitor18add_create_variant0EEBK_, symObjAddr: 0x50A0, symBinAddr: 0x100025A90, symSize: 0x40 }
  - { offset: 0x7045B, size: 0x8, addend: 0x0, symName: __RINvXsd_NtCslJiobkLta79_5alloc3vecINtB6_3VecNtNtCs4xvdaJ1JWuv_14cranelift_isle3ast7PatternEINtNtNtNtCsieiGu2EXtoJ_4core4iter6traits7collect12FromIteratorBG_E9from_iterINtNtB1y_8adapters12GenericShuntINtNtB2I_3map3MapINtNtNtB1A_5slice4iter4IterBG_ENCNvMBI_BG_16subst_macro_args0EINtNtB1A_6option6OptionNtNtB1A_7convert10InfallibleEEEBK_, symObjAddr: 0x50E0, symBinAddr: 0x100025AD0, symSize: 0x40 }
  - { offset: 0x7049C, size: 0x8, addend: 0x0, symName: __RINvXsd_NtCslJiobkLta79_5alloc3vecINtB6_3VecNtNtCs4xvdaJ1JWuv_14cranelift_isle3ast7PatternEINtNtNtNtCsieiGu2EXtoJ_4core4iter6traits7collect12FromIteratorBG_E9from_iterINtNtB1y_8adapters12GenericShuntINtNtB2I_3map3MapINtNtNtB1A_5slice4iter4IterBG_ENCNvMBI_BG_16subst_macro_argss_0EINtNtB1A_6option6OptionNtNtB1A_7convert10InfallibleEEEBK_, symObjAddr: 0x5120, symBinAddr: 0x100025B10, symSize: 0x40 }
  - { offset: 0x704DD, size: 0x8, addend: 0x0, symName: __RINvXsd_NtCslJiobkLta79_5alloc3vecINtB6_3VecNtNtCs4xvdaJ1JWuv_14cranelift_isle3ast7PatternEINtNtNtNtCsieiGu2EXtoJ_4core4iter6traits7collect12FromIteratorBG_E9from_iterINtNtNtB1y_8adapters3map3MapINtNtNtB1A_5slice4iter4IterBG_ENCNvMBI_BG_19make_macro_templates0_0EEBK_, symObjAddr: 0x5160, symBinAddr: 0x100025B50, symSize: 0x40 }
  - { offset: 0x7051E, size: 0x8, addend: 0x0, symName: __RINvXsd_NtCslJiobkLta79_5alloc3vecINtB6_3VecNtNtCs4xvdaJ1JWuv_14cranelift_isle3ast7PatternEINtNtNtNtCsieiGu2EXtoJ_4core4iter6traits7collect12FromIteratorBG_E9from_iterINtNtNtB1y_8adapters3map3MapINtNtNtB1A_5slice4iter4IterBG_ENCNvMBI_BG_19make_macro_templates1_0EEBK_, symObjAddr: 0x51A0, symBinAddr: 0x100025B90, symSize: 0x40 }
  - { offset: 0x7055F, size: 0x8, addend: 0x0, symName: __RINvXsd_NtCslJiobkLta79_5alloc3vecINtB6_3VecNtNtCs4xvdaJ1JWuv_14cranelift_isle4sema4ExprEINtNtNtNtCsieiGu2EXtoJ_4core4iter6traits7collect12FromIteratorBG_E9from_iterINtNtNtB1w_8adapters10filter_map9FilterMapINtNtB2I_3zip3ZipINtNtNtB1y_5slice4iter4IterNtNtBK_3ast4ExprEIB3B_NtBI_6TypeIdEENCNvMs5_BI_NtBI_7TermEnv14translate_expr0EEBK_, symObjAddr: 0x51E0, symBinAddr: 0x100025BD0, symSize: 0x40 }
  - { offset: 0x705A0, size: 0x8, addend: 0x0, symName: __RINvXsd_NtCslJiobkLta79_5alloc3vecINtB6_3VecNtNtCs4xvdaJ1JWuv_14cranelift_isle4sema5IfLetEINtNtNtNtCsieiGu2EXtoJ_4core4iter6traits7collect12FromIteratorBG_E9from_iterINtNtNtB1x_8adapters10filter_map9FilterMapINtNtNtB1z_5slice4iter4IterNtNtBK_3ast5IfLetENCNvMs5_BI_NtBI_7TermEnv13collect_rules0EEBK_, symObjAddr: 0x5220, symBinAddr: 0x100025C10, symSize: 0x40 }
  - { offset: 0x705E1, size: 0x8, addend: 0x0, symName: __RINvXsd_NtCslJiobkLta79_5alloc3vecINtB6_3VecNtNtCs4xvdaJ1JWuv_14cranelift_isle4sema6TypeIdEINtNtNtNtCsieiGu2EXtoJ_4core4iter6traits7collect12FromIteratorBG_E9from_iterINtNtB1y_8adapters12GenericShuntINtNtB2I_3map3MapINtNtNtB1A_5slice4iter4IterNtNtBK_3ast5IdentENCNvMs5_BI_NtBI_7TermEnv17collect_term_sigs0EINtNtB1A_6result6ResultNtNtB1A_7convert10InfallibleuEEEBK_, symObjAddr: 0x5260, symBinAddr: 0x100025C50, symSize: 0x40 }
  - { offset: 0x70622, size: 0x8, addend: 0x0, symName: __RINvXsd_NtCslJiobkLta79_5alloc3vecINtB6_3VecNtNtCs4xvdaJ1JWuv_14cranelift_isle4sema6TypeIdEINtNtNtNtCsieiGu2EXtoJ_4core4iter6traits7collect12FromIteratorBG_E9from_iterINtNtNtB1y_8adapters3map3MapINtNtNtB1A_5slice4iter4IterNtBI_5FieldENCNvMs5_BI_NtBI_7TermEnv26collect_enum_variant_terms0EEBK_, symObjAddr: 0x52A0, symBinAddr: 0x100025C90, symSize: 0x60 }
  - { offset: 0x70662, size: 0x8, addend: 0x0, symName: __RINvXsd_NtCslJiobkLta79_5alloc3vecINtB6_3VecNtNtCs4xvdaJ1JWuv_14cranelift_isle4sema6TypeIdEINtNtNtNtCsieiGu2EXtoJ_4core4iter6traits7collect12FromIteratorBG_E9from_iterINtNtNtB1y_8adapters3map3MapINtNtNtB1A_5slice4iter4IterNtBI_7PatternENCINvMs0_BI_B3y_5visitNtNtBK_10trie_again14RuleSetBuilderE0EEBK_, symObjAddr: 0x5300, symBinAddr: 0x100025CF0, symSize: 0x60 }
  - { offset: 0x706A2, size: 0x8, addend: 0x0, symName: __RINvXsd_NtCslJiobkLta79_5alloc3vecINtB6_3VecNtNtCs4xvdaJ1JWuv_14cranelift_isle4sema7PatternEINtNtNtNtCsieiGu2EXtoJ_4core4iter6traits7collect12FromIteratorBG_E9from_iterINtNtNtB1z_8adapters10filter_map9FilterMapINtNtB2L_3zip3ZipINtNtNtB1B_5slice4iter4IterNtNtBK_3ast7PatternEIB3E_NtBI_6TypeIdEENCNvMs5_BI_NtBI_7TermEnv14translate_args0EEBK_, symObjAddr: 0x5360, symBinAddr: 0x100025D50, symSize: 0x40 }
  - { offset: 0x706E3, size: 0x8, addend: 0x0, symName: __RINvXsd_NtCslJiobkLta79_5alloc3vecINtB6_3VecNtNtCs4xvdaJ1JWuv_14cranelift_isle4sema7PatternEINtNtNtNtCsieiGu2EXtoJ_4core4iter6traits7collect12FromIteratorBG_E9from_iterINtNtNtB1z_8adapters10filter_map9FilterMapINtNtNtB1B_5slice4iter4IterNtNtBK_3ast7PatternENCNvMs5_BI_NtBI_7TermEnv17translate_pattern0EEBK_, symObjAddr: 0x53A0, symBinAddr: 0x100025D90, symSize: 0x40 }
  - { offset: 0x70724, size: 0x8, addend: 0x0, symName: __RINvXsd_NtCslJiobkLta79_5alloc3vecINtB6_3VecNtNtCs4xvdaJ1JWuv_14cranelift_isle5error4SpanEINtNtNtNtCsieiGu2EXtoJ_4core4iter6traits7collect12FromIteratorBG_E9from_iterINtNtNtB1x_8adapters3map3MapINtNtB6_9into_iter8IntoIterNtNtBK_5lexer3PosENvMs1_BI_BG_10new_singleEEBK_, symObjAddr: 0x53E0, symBinAddr: 0x100025DD0, symSize: 0x40 }
  - { offset: 0x70765, size: 0x8, addend: 0x0, symName: __RINvXsd_NtCslJiobkLta79_5alloc3vecINtB6_3VecReEINtNtNtNtCsieiGu2EXtoJ_4core4iter6traits7collect12FromIteratorBG_E9from_iterINtNtNtBQ_8adapters3map3MapINtNtNtBS_5slice4iter4IterNtNtCs4xvdaJ1JWuv_14cranelift_isle4sema6TermIdENCNvMs5_B2Q_NtB2Q_7TermEnv27collect_extractor_templatess0_0EEB2S_, symObjAddr: 0x5420, symBinAddr: 0x100025E10, symSize: 0x40 }
  - { offset: 0x707A6, size: 0x8, addend: 0x0, symName: __RINvXsd_NtCslJiobkLta79_5alloc3vecINtB6_3VecTNtNtCs4xvdaJ1JWuv_14cranelift_isle10trie_again9BindingIdNtNtBL_4sema6TypeIdEEINtNtNtNtCsieiGu2EXtoJ_4core4iter6traits7collect12FromIteratorBG_E9from_iterINtNtNtB23_8adapters3zip3ZipINtNtB3f_3map3MapINtNtNtB25_5slice4iter4IterNtB1D_4ExprENCINvMs1_B1D_B4k_5visitNtBJ_14RuleSetBuilderE0EINtNtB3f_6copied6CopiedIB3U_B1B_EEEEBL_, symObjAddr: 0x5460, symBinAddr: 0x100025E50, symSize: 0x40 }
  - { offset: 0x707E7, size: 0x8, addend: 0x0, symName: __RINvXsd_NtCslJiobkLta79_5alloc3vecINtB6_3VecTNtNtCs4xvdaJ1JWuv_14cranelift_isle4sema6TermIdNtNtBL_10trie_again7RuleSetEEINtNtNtNtCsieiGu2EXtoJ_4core4iter6traits7collect12FromIteratorBG_E9from_iterINtNtNtB21_8adapters3map3MapINtNtNtNtCsHUR1vrdMJt_3std11collections4hash3map8IntoIterBH_NtB1t_14RuleSetBuilderENCNvB1t_5build0EEBL_, symObjAddr: 0x54A0, symBinAddr: 0x100025E90, symSize: 0x40 }
  - { offset: 0x70828, size: 0x8, addend: 0x0, symName: __RINvXsd_NtCslJiobkLta79_5alloc3vecINtB6_3VechEINtNtNtNtCsieiGu2EXtoJ_4core4iter6traits7collect12FromIteratorhE9from_iterINtNtNtBP_8adapters3map3MapINtNtNtBR_5slice4iter4IterhENCNvNtB8_3str13replace_ascii0EECs4xvdaJ1JWuv_14cranelift_isle, symObjAddr: 0x54E0, symBinAddr: 0x100025ED0, symSize: 0x40 }
  - { offset: 0x70869, size: 0x8, addend: 0x0, symName: __RINvXsd_NtCslJiobkLta79_5alloc3vecINtB6_3VecjEINtNtNtNtCsieiGu2EXtoJ_4core4iter6traits7collect12FromIteratorjE9from_iterINtNtNtBP_8adapters3map3MapINtNtNtBR_3str4iter12MatchIndicescENCNvMs_NtCs4xvdaJ1JWuv_14cranelift_isle5filesNtB31_7LineMap8from_str0EEB33_, symObjAddr: 0x5520, symBinAddr: 0x100025F10, symSize: 0x40 }
  - { offset: 0x708AA, size: 0x8, addend: 0x0, symName: __RINvXsd_NtCslJiobkLta79_5alloc3vecINtB6_3VecjEINtNtNtNtCsieiGu2EXtoJ_4core4iter6traits7collect12FromIteratorjE9from_iterINtNtNtBR_3ops5range5RangejEECs4xvdaJ1JWuv_14cranelift_isle, symObjAddr: 0x5560, symBinAddr: 0x100025F50, symSize: 0x60 }
  - { offset: 0x708F0, size: 0x8, addend: 0x0, symName: __RINvXsh_NtCslJiobkLta79_5alloc3vecINtB6_3VecINtNtNtCs4xvdaJ1JWuv_14cranelift_isle5error10diagnostic5LabeljEEINtNtNtNtCsieiGu2EXtoJ_4core4iter6traits7collect6ExtendBG_E6extendINtNtNtB1P_8adapters3map3MapINtNtNtB1R_5slice4iter4IterNtBL_4SpanENCNCNvXBL_NtBL_6ErrorsNtNtB1R_3fmt5Debug3fmt00EEBN_, symObjAddr: 0x55C0, symBinAddr: 0x100025FB0, symSize: 0x50 }
  - { offset: 0x70944, size: 0x8, addend: 0x0, symName: __RINvXsh_NtCslJiobkLta79_5alloc3vecINtB6_3VecINtNtNtCs4xvdaJ1JWuv_14cranelift_isle5error10diagnostic5LabeljEEINtNtNtNtCsieiGu2EXtoJ_4core4iter6traits7collect6ExtendBG_E6extendINtNtNtB1P_8adapters3map3MapINtNtNtB1R_5slice4iter4IterNtBL_4SpanENCNCNvXBL_NtBL_6ErrorsNtNtB1R_3fmt5Debug3fmt0s_0EEBN_, symObjAddr: 0x5610, symBinAddr: 0x100026000, symSize: 0x50 }
  - { offset: 0x70998, size: 0x8, addend: 0x0, symName: __RINvXsh_NtCslJiobkLta79_5alloc3vecINtB6_3VecNtNtCs4xvdaJ1JWuv_14cranelift_isle10trie_again9BindingIdEINtNtNtNtCsieiGu2EXtoJ_4core4iter6traits7collect6ExtendBG_E6extendINtNtNtB1I_8adapters6copied6CopiedINtNtNtNtCsHUR1vrdMJt_3std11collections4hash3map4KeysBG_TBG_hEEEEBK_, symObjAddr: 0x5660, symBinAddr: 0x100026050, symSize: 0x40 }
  - { offset: 0x709ED, size: 0x8, addend: 0x0, symName: __RINvXsh_NtCslJiobkLta79_5alloc3vecINtB6_3VecNtNtCs4xvdaJ1JWuv_14cranelift_isle5error4SpanEINtNtNtNtCsieiGu2EXtoJ_4core4iter6traits7collect6ExtendBG_E6extendINtNtNtB1x_8adapters3map3MapINtNtNtNtCsHUR1vrdMJt_3std11collections4hash3set8IntoIterNtNtBK_5lexer3PosENvMs1_BI_BG_10new_singleEEBK_, symObjAddr: 0x56A0, symBinAddr: 0x100026090, symSize: 0x40 }
  - { offset: 0x70A42, size: 0x8, addend: 0x0, symName: __RINvXsh_NtCslJiobkLta79_5alloc3vecINtB6_3VecNtNtCs4xvdaJ1JWuv_14cranelift_isle5error5ErrorEINtNtNtNtCsieiGu2EXtoJ_4core4iter6traits7collect6ExtendBG_E6extendINtNtNtB1y_8adapters3map3MapINtNtB6_5drain5DrainNtNtBK_10trie_again16UnreachableErrorENCNvMs6_B3j_NtB3j_14RuleSetBuilder8add_rule0EEBK_, symObjAddr: 0x56E0, symBinAddr: 0x1000260D0, symSize: 0x40 }
  - { offset: 0x70A97, size: 0x8, addend: 0x0, symName: __RINvXsh_NtCslJiobkLta79_5alloc3vecINtB6_3VecNtNtCs4xvdaJ1JWuv_14cranelift_isle5error5ErrorEINtNtNtNtCsieiGu2EXtoJ_4core4iter6traits7collect6ExtendBG_E6extendINtNtNtB1y_8adapters3map3MapINtNtNtNtCsHUR1vrdMJt_3std11collections4hash3map8IntoIterNtNtBK_5lexer3PosIBx_B3S_EENCNvMNtBK_7overlapNtB4o_6Errors6reports_0EEBK_, symObjAddr: 0x5720, symBinAddr: 0x100026110, symSize: 0x40 }
  - { offset: 0x70AEC, size: 0x8, addend: 0x0, symName: __RINvXsh_NtCslJiobkLta79_5alloc3vecINtB6_3VecNtNtCs4xvdaJ1JWuv_14cranelift_isle9serialize9CandidateEINtNtNtNtCsieiGu2EXtoJ_4core4iter6traits7collect6ExtendBG_E6extendABG_j2_EBK_, symObjAddr: 0x5760, symBinAddr: 0x100026150, symSize: 0x40 }
  - { offset: 0x70B41, size: 0x8, addend: 0x0, symName: __RINvXsh_NtCslJiobkLta79_5alloc3vecINtB6_3VecTNtNtCs4xvdaJ1JWuv_14cranelift_isle4sema6TermIdIBx_BH_EINtNtBL_12stablemapset9StableSetBH_EEEINtNtNtNtCsieiGu2EXtoJ_4core4iter6traits7collect6ExtendBG_E6extendINtNtNtB2i_8adapters3map3MapINtNtNtNtB8_11collections5btree3set4IterBH_ENCNvMs5_BJ_NtBJ_7TermEnv27collect_extractor_templatess_0EEBL_, symObjAddr: 0x57A0, symBinAddr: 0x100026190, symSize: 0x40 }
  - { offset: 0x70BA1, size: 0x8, addend: 0x0, symName: __RNCINvMsi_NtCslJiobkLta79_5alloc3vecINtB8_3VecINtNtCsieiGu2EXtoJ_4core6option6OptionNtNtCs4xvdaJ1JWuv_14cranelift_isle10trie_again9BindingIdEE14extend_trustedINtNtNtNtBN_4iter8adapters3map3MapINtNtB8_9into_iter8IntoIterNtB1m_7BindingENCNvMs2_NtB1o_9serializeNtB3S_13Decomposition17make_control_flows1_0EE0B1o_, symObjAddr: 0x5800, symBinAddr: 0x1000261F0, symSize: 0x30 }
  - { offset: 0x70C49, size: 0x8, addend: 0x0, symName: __RNCINvMsi_NtCslJiobkLta79_5alloc3vecINtB8_3VecINtNtNtCs4xvdaJ1JWuv_14cranelift_isle5error10diagnostic10DiagnosticjEE14extend_trustedINtNtNtNtCsieiGu2EXtoJ_4core4iter8adapters3map3MapINtNtNtB2f_5slice4iter4IterNtBN_5ErrorENCNvXBN_NtBN_6ErrorsNtNtB2f_3fmt5Debug3fmt0EE0BP_, symObjAddr: 0x5830, symBinAddr: 0x100026220, symSize: 0x40 }
  - { offset: 0x70CF2, size: 0x8, addend: 0x0, symName: __RNCINvMsi_NtCslJiobkLta79_5alloc3vecINtB8_3VecINtNtNtCs4xvdaJ1JWuv_14cranelift_isle5error10diagnostic5LabeljEE14extend_trustedINtNtNtNtCsieiGu2EXtoJ_4core4iter8adapters3map3MapINtNtNtB29_5slice4iter4IterNtBN_4SpanENCNCNvXBN_NtBN_6ErrorsNtNtB29_3fmt5Debug3fmt00EE0BP_, symObjAddr: 0x5870, symBinAddr: 0x100026260, symSize: 0x40 }
  - { offset: 0x70D9A, size: 0x8, addend: 0x0, symName: __RNCINvMsi_NtCslJiobkLta79_5alloc3vecINtB8_3VecINtNtNtCs4xvdaJ1JWuv_14cranelift_isle5error10diagnostic5LabeljEE14extend_trustedINtNtNtNtCsieiGu2EXtoJ_4core4iter8adapters3map3MapINtNtNtB29_5slice4iter4IterNtBN_4SpanENCNCNvXBN_NtBN_6ErrorsNtNtB29_3fmt5Debug3fmt0s_0EE0BP_, symObjAddr: 0x58B0, symBinAddr: 0x1000262A0, symSize: 0x40 }
  - { offset: 0x70E42, size: 0x8, addend: 0x0, symName: __RNCINvMsi_NtCslJiobkLta79_5alloc3vecINtB8_3VecNtNtBa_6string6StringE14extend_trustedINtNtNtNtCsieiGu2EXtoJ_4core4iter8adapters3map3MapINtNtNtB1t_5slice4iter4IterNtNtCs4xvdaJ1JWuv_14cranelift_isle4sema6TypeIdENCNvMs_NtB2D_7codegenNtB3r_7Codegen18generate_trait_sig0EE0B2D_, symObjAddr: 0x58F0, symBinAddr: 0x1000262E0, symSize: 0x40 }
  - { offset: 0x70EEA, size: 0x8, addend: 0x0, symName: __RNCINvMsi_NtCslJiobkLta79_5alloc3vecINtB8_3VecNtNtBa_6string6StringE14extend_trustedINtNtNtNtCsieiGu2EXtoJ_4core4iter8adapters5chain5ChainINtNtB1p_3map3MapINtNtB1p_9enumerate9EnumerateINtNtNtB1t_5slice4iter4IterNtNtCs4xvdaJ1JWuv_14cranelift_isle4sema6TypeIdEENCNvMs_NtB3r_7codegenNtB4g_7Codegen18generate_trait_sigs_0EINtNtB1t_6option8IntoIterBI_EEE0B3r_, symObjAddr: 0x5930, symBinAddr: 0x100026320, symSize: 0x40 }
  - { offset: 0x70F92, size: 0x8, addend: 0x0, symName: __RNCINvMsi_NtCslJiobkLta79_5alloc3vecINtB8_3VecNtNtCs4xvdaJ1JWuv_14cranelift_isle10trie_again7BindingE14extend_trustedINtNtNtNtCsieiGu2EXtoJ_4core4iter8adapters3map3MapIB1S_INtNtNtB20_3ops5range5RangehENcNtBK_10TupleIndex0ENCNvMs4_BK_NtBK_10Constraint12bindings_for0EE0BM_, symObjAddr: 0x5970, symBinAddr: 0x100026360, symSize: 0x40 }
  - { offset: 0x7103B, size: 0x8, addend: 0x0, symName: __RNCINvMsi_NtCslJiobkLta79_5alloc3vecINtB8_3VecNtNtCs4xvdaJ1JWuv_14cranelift_isle10trie_again9BindingIdE14extend_trustedINtNtNtNtCsieiGu2EXtoJ_4core4iter8adapters3map3MapIB1U_INtNtNtB22_3ops5range5RangehENcNtBK_10TupleIndex0ENCNvXs7_BK_NtBK_14RuleSetBuilderNtNtBM_4sema14PatternVisitor11add_extract0EE0BM_, symObjAddr: 0x59B0, symBinAddr: 0x1000263A0, symSize: 0x30 }
  - { offset: 0x710E3, size: 0x8, addend: 0x0, symName: __RNCINvMsi_NtCslJiobkLta79_5alloc3vecINtB8_3VecNtNtCs4xvdaJ1JWuv_14cranelift_isle10trie_again9BindingIdE14extend_trustedINtNtNtNtCsieiGu2EXtoJ_4core4iter8adapters3map3MapINtNtB8_9into_iter8IntoIterNtBK_7BindingENCNvMs6_BK_NtBK_14RuleSetBuilder14set_constraint0EE0BM_, symObjAddr: 0x59E0, symBinAddr: 0x1000263D0, symSize: 0x30 }
  - { offset: 0x7118B, size: 0x8, addend: 0x0, symName: __RNCINvMsi_NtCslJiobkLta79_5alloc3vecINtB8_3VecNtNtCs4xvdaJ1JWuv_14cranelift_isle10trie_again9BindingIdE14extend_trustedINtNtNtNtCsieiGu2EXtoJ_4core4iter8adapters3map3MapINtNtB8_9into_iter8IntoIterTBI_NtNtBM_4sema6TypeIdEENCNvXs8_BK_NtBK_14RuleSetBuilderNtB3e_11ExprVisitor13add_construct0EE0BM_, symObjAddr: 0x5A10, symBinAddr: 0x100026400, symSize: 0x30 }
  - { offset: 0x71233, size: 0x8, addend: 0x0, symName: __RNCINvMsi_NtCslJiobkLta79_5alloc3vecINtB8_3VecNtNtCs4xvdaJ1JWuv_14cranelift_isle10trie_again9BindingIdE14extend_trustedINtNtNtNtCsieiGu2EXtoJ_4core4iter8adapters3map3MapINtNtB8_9into_iter8IntoIterTBI_NtNtBM_4sema6TypeIdEENCNvXs8_BK_NtBK_14RuleSetBuilderNtB3e_11ExprVisitor18add_create_variant0EE0BM_, symObjAddr: 0x5A40, symBinAddr: 0x100026430, symSize: 0x30 }
  - { offset: 0x712DB, size: 0x8, addend: 0x0, symName: __RNCINvMsi_NtCslJiobkLta79_5alloc3vecINtB8_3VecNtNtCs4xvdaJ1JWuv_14cranelift_isle3ast7PatternE14extend_trustedINtNtNtNtCsieiGu2EXtoJ_4core4iter8adapters3map3MapINtNtNtB1S_5slice4iter4IterBI_ENCNvMBK_BI_19make_macro_templates0_0EE0BM_, symObjAddr: 0x5A70, symBinAddr: 0x100026460, symSize: 0x40 }
  - { offset: 0x71384, size: 0x8, addend: 0x0, symName: __RNCINvMsi_NtCslJiobkLta79_5alloc3vecINtB8_3VecNtNtCs4xvdaJ1JWuv_14cranelift_isle3ast7PatternE14extend_trustedINtNtNtNtCsieiGu2EXtoJ_4core4iter8adapters3map3MapINtNtNtB1S_5slice4iter4IterBI_ENCNvMBK_BI_19make_macro_templates1_0EE0BM_, symObjAddr: 0x5AB0, symBinAddr: 0x1000264A0, symSize: 0x40 }
  - { offset: 0x7142D, size: 0x8, addend: 0x0, symName: __RNCINvMsi_NtCslJiobkLta79_5alloc3vecINtB8_3VecNtNtCs4xvdaJ1JWuv_14cranelift_isle4sema6TypeIdE14extend_trustedINtNtNtNtCsieiGu2EXtoJ_4core4iter8adapters3map3MapINtNtNtB1S_5slice4iter4IterNtBK_5FieldENCNvMs5_BK_NtBK_7TermEnv26collect_enum_variant_terms0EE0BM_, symObjAddr: 0x5AF0, symBinAddr: 0x1000264E0, symSize: 0x30 }
  - { offset: 0x714D5, size: 0x8, addend: 0x0, symName: __RNCINvMsi_NtCslJiobkLta79_5alloc3vecINtB8_3VecNtNtCs4xvdaJ1JWuv_14cranelift_isle4sema6TypeIdE14extend_trustedINtNtNtNtCsieiGu2EXtoJ_4core4iter8adapters3map3MapINtNtNtB1S_5slice4iter4IterNtBK_7PatternENCINvMs0_BK_B2Y_5visitNtNtBM_10trie_again14RuleSetBuilderE0EE0BM_, symObjAddr: 0x5B20, symBinAddr: 0x100026510, symSize: 0x30 }
  - { offset: 0x7157D, size: 0x8, addend: 0x0, symName: __RNCINvMsi_NtCslJiobkLta79_5alloc3vecINtB8_3VecNtNtCs4xvdaJ1JWuv_14cranelift_isle5error4SpanE14extend_trustedINtNtNtNtCsieiGu2EXtoJ_4core4iter8adapters3map3MapINtNtB8_9into_iter8IntoIterNtNtBM_5lexer3PosENvMs1_BK_BI_10new_singleEE0BM_, symObjAddr: 0x5B50, symBinAddr: 0x100026540, symSize: 0x50 }
  - { offset: 0x7163A, size: 0x8, addend: 0x0, symName: __RNCINvMsi_NtCslJiobkLta79_5alloc3vecINtB8_3VecNtNtCs4xvdaJ1JWuv_14cranelift_isle5error5ErrorE14extend_trustedINtNtNtNtCsieiGu2EXtoJ_4core4iter8adapters3map3MapINtNtB8_5drain5DrainNtNtBM_10trie_again16UnreachableErrorENCNvMs6_B2T_NtB2T_14RuleSetBuilder8add_rule0EE0BM_, symObjAddr: 0x5BA0, symBinAddr: 0x100026590, symSize: 0x50 }
  - { offset: 0x716F8, size: 0x8, addend: 0x0, symName: __RNCINvMsi_NtCslJiobkLta79_5alloc3vecINtB8_3VecNtNtCs4xvdaJ1JWuv_14cranelift_isle9serialize9CandidateE14extend_trustedINtNtNtCsieiGu2EXtoJ_4core5array4iter8IntoIterBI_Kj2_EE0BM_, symObjAddr: 0x5BF0, symBinAddr: 0x1000265E0, symSize: 0x40 }
  - { offset: 0x717A0, size: 0x8, addend: 0x0, symName: __RNCINvMsi_NtCslJiobkLta79_5alloc3vecINtB8_3VecReE14extend_trustedINtNtNtNtCsieiGu2EXtoJ_4core4iter8adapters3map3MapINtNtNtB1a_5slice4iter4IterNtNtCs4xvdaJ1JWuv_14cranelift_isle4sema6TermIdENCNvMs5_B2i_NtB2i_7TermEnv27collect_extractor_templatess0_0EE0B2k_, symObjAddr: 0x5C30, symBinAddr: 0x100026620, symSize: 0x40 }
  - { offset: 0x7185D, size: 0x8, addend: 0x0, symName: __RNCINvMsi_NtCslJiobkLta79_5alloc3vecINtB8_3VecTNtNtCs4xvdaJ1JWuv_14cranelift_isle10trie_again9BindingIdNtNtBN_4sema6TypeIdEE14extend_trustedINtNtNtNtCsieiGu2EXtoJ_4core4iter8adapters3zip3ZipINtNtB2j_3map3MapINtNtNtB2n_5slice4iter4IterNtB1F_4ExprENCINvMs1_B1F_B3K_5visitNtBL_14RuleSetBuilderE0EINtNtB2j_6copied6CopiedIB3k_B1D_EEEE0BN_, symObjAddr: 0x5C70, symBinAddr: 0x100026660, symSize: 0x40 }
  - { offset: 0x7191A, size: 0x8, addend: 0x0, symName: __RNCINvMsi_NtCslJiobkLta79_5alloc3vecINtB8_3VechE14extend_trustedINtNtNtNtCsieiGu2EXtoJ_4core4iter8adapters3map3MapINtNtNtB19_5slice4iter4IterhENCNvNtBa_3str13replace_ascii0EE0Cs4xvdaJ1JWuv_14cranelift_isle, symObjAddr: 0x5CB0, symBinAddr: 0x1000266A0, symSize: 0x30 }
  - { offset: 0x719C2, size: 0x8, addend: 0x0, symName: __RNCINvMsi_NtCslJiobkLta79_5alloc3vecINtB8_3VecjE14extend_trustedINtNtNtCsieiGu2EXtoJ_4core3ops5range5RangejEE0Cs4xvdaJ1JWuv_14cranelift_isle, symObjAddr: 0x5CE0, symBinAddr: 0x1000266D0, symSize: 0x30 }
  - { offset: 0x72A35, size: 0x8, addend: 0x0, symName: __RNvXs6_NtCslJiobkLta79_5alloc3vecINtB5_3VecINtNtCsieiGu2EXtoJ_4core6option6OptionNtNtCs4xvdaJ1JWuv_14cranelift_isle10trie_again9BindingIdEENtNtNtBK_3ops5deref5Deref5derefB1l_, symObjAddr: 0xE9E0, symBinAddr: 0x10002F3D0, symSize: 0x20 }
  - { offset: 0x72A75, size: 0x8, addend: 0x0, symName: __RNvXs6_NtCslJiobkLta79_5alloc3vecINtB5_3VecNtNtB7_6string6StringENtNtNtCsieiGu2EXtoJ_4core3ops5deref5Deref5derefCs4xvdaJ1JWuv_14cranelift_isle, symObjAddr: 0xEA00, symBinAddr: 0x10002F3F0, symSize: 0x20 }
  - { offset: 0x72AB5, size: 0x8, addend: 0x0, symName: __RNvXs6_NtCslJiobkLta79_5alloc3vecINtB5_3VecNtNtCs4xvdaJ1JWuv_14cranelift_isle10trie_again4RuleENtNtNtCsieiGu2EXtoJ_4core3ops5deref5Deref5derefBJ_, symObjAddr: 0xEA20, symBinAddr: 0x10002F410, symSize: 0x20 }
  - { offset: 0x72AF5, size: 0x8, addend: 0x0, symName: __RNvXs6_NtCslJiobkLta79_5alloc3vecINtB5_3VecNtNtCs4xvdaJ1JWuv_14cranelift_isle10trie_again7BindingENtNtNtCsieiGu2EXtoJ_4core3ops5deref5Deref5derefBJ_, symObjAddr: 0xEA40, symBinAddr: 0x10002F430, symSize: 0x20 }
  - { offset: 0x72B35, size: 0x8, addend: 0x0, symName: __RNvXs6_NtCslJiobkLta79_5alloc3vecINtB5_3VecNtNtCs4xvdaJ1JWuv_14cranelift_isle10trie_again9BindingIdENtNtNtCsieiGu2EXtoJ_4core3ops5deref5Deref5derefBJ_, symObjAddr: 0xEA60, symBinAddr: 0x10002F450, symSize: 0x20 }
  - { offset: 0x72B75, size: 0x8, addend: 0x0, symName: __RNvXs6_NtCslJiobkLta79_5alloc3vecINtB5_3VecNtNtCs4xvdaJ1JWuv_14cranelift_isle3ast3DefENtNtNtCsieiGu2EXtoJ_4core3ops5deref5Deref5derefBJ_, symObjAddr: 0xEA80, symBinAddr: 0x10002F470, symSize: 0x20 }
  - { offset: 0x72BB5, size: 0x8, addend: 0x0, symName: __RNvXs6_NtCslJiobkLta79_5alloc3vecINtB5_3VecNtNtCs4xvdaJ1JWuv_14cranelift_isle3ast4ExprENtNtNtCsieiGu2EXtoJ_4core3ops5deref5Deref5derefBJ_, symObjAddr: 0xEAA0, symBinAddr: 0x10002F490, symSize: 0x20 }
  - { offset: 0x72BF5, size: 0x8, addend: 0x0, symName: __RNvXs6_NtCslJiobkLta79_5alloc3vecINtB5_3VecNtNtCs4xvdaJ1JWuv_14cranelift_isle3ast5IdentENtNtNtCsieiGu2EXtoJ_4core3ops5deref5Deref5derefBJ_, symObjAddr: 0xEAC0, symBinAddr: 0x10002F4B0, symSize: 0x20 }
  - { offset: 0x72C35, size: 0x8, addend: 0x0, symName: __RNvXs6_NtCslJiobkLta79_5alloc3vecINtB5_3VecNtNtCs4xvdaJ1JWuv_14cranelift_isle3ast5IfLetENtNtNtCsieiGu2EXtoJ_4core3ops5deref5Deref5derefBJ_, symObjAddr: 0xEAE0, symBinAddr: 0x10002F4D0, symSize: 0x20 }
  - { offset: 0x72C75, size: 0x8, addend: 0x0, symName: __RNvXs6_NtCslJiobkLta79_5alloc3vecINtB5_3VecNtNtCs4xvdaJ1JWuv_14cranelift_isle3ast7PatternENtNtNtCsieiGu2EXtoJ_4core3ops5deref5Deref5derefBJ_, symObjAddr: 0xEB00, symBinAddr: 0x10002F4F0, symSize: 0x20 }
  - { offset: 0x72CB5, size: 0x8, addend: 0x0, symName: __RNvXs6_NtCslJiobkLta79_5alloc3vecINtB5_3VecNtNtCs4xvdaJ1JWuv_14cranelift_isle4sema4ExprENtNtNtCsieiGu2EXtoJ_4core3ops5deref5Deref5derefBJ_, symObjAddr: 0xEB20, symBinAddr: 0x10002F510, symSize: 0x20 }
  - { offset: 0x72CF5, size: 0x8, addend: 0x0, symName: __RNvXs6_NtCslJiobkLta79_5alloc3vecINtB5_3VecNtNtCs4xvdaJ1JWuv_14cranelift_isle4sema4RuleENtNtNtCsieiGu2EXtoJ_4core3ops5deref5Deref5derefBJ_, symObjAddr: 0xEB40, symBinAddr: 0x10002F530, symSize: 0x20 }
  - { offset: 0x72D35, size: 0x8, addend: 0x0, symName: __RNvXs6_NtCslJiobkLta79_5alloc3vecINtB5_3VecNtNtCs4xvdaJ1JWuv_14cranelift_isle4sema4TypeENtNtNtCsieiGu2EXtoJ_4core3ops5deref5Deref5derefBJ_, symObjAddr: 0xEB60, symBinAddr: 0x10002F550, symSize: 0x20 }
  - { offset: 0x72D75, size: 0x8, addend: 0x0, symName: __RNvXs6_NtCslJiobkLta79_5alloc3vecINtB5_3VecNtNtCs4xvdaJ1JWuv_14cranelift_isle4sema5FieldENtNtNtCsieiGu2EXtoJ_4core3ops5deref5Deref5derefBJ_, symObjAddr: 0xEB80, symBinAddr: 0x10002F570, symSize: 0x20 }
  - { offset: 0x72DB5, size: 0x8, addend: 0x0, symName: __RNvXs6_NtCslJiobkLta79_5alloc3vecINtB5_3VecNtNtCs4xvdaJ1JWuv_14cranelift_isle4sema5IfLetENtNtNtCsieiGu2EXtoJ_4core3ops5deref5Deref5derefBJ_, symObjAddr: 0xEBA0, symBinAddr: 0x10002F590, symSize: 0x20 }
  - { offset: 0x72DF5, size: 0x8, addend: 0x0, symName: __RNvXs6_NtCslJiobkLta79_5alloc3vecINtB5_3VecNtNtCs4xvdaJ1JWuv_14cranelift_isle4sema6TermIdENtNtNtCsieiGu2EXtoJ_4core3ops5deref5Deref5derefBJ_, symObjAddr: 0xEBC0, symBinAddr: 0x10002F5B0, symSize: 0x20 }
  - { offset: 0x72E35, size: 0x8, addend: 0x0, symName: __RNvXs6_NtCslJiobkLta79_5alloc3vecINtB5_3VecNtNtCs4xvdaJ1JWuv_14cranelift_isle4sema6TypeIdENtNtNtCsieiGu2EXtoJ_4core3ops5deref5Deref5derefBJ_, symObjAddr: 0xEBE0, symBinAddr: 0x10002F5D0, symSize: 0x20 }
  - { offset: 0x72E75, size: 0x8, addend: 0x0, symName: __RNvXs6_NtCslJiobkLta79_5alloc3vecINtB5_3VecNtNtCs4xvdaJ1JWuv_14cranelift_isle4sema7PatternENtNtNtCsieiGu2EXtoJ_4core3ops5deref5Deref5derefBJ_, symObjAddr: 0xEC00, symBinAddr: 0x10002F5F0, symSize: 0x20 }
  - { offset: 0x72EB5, size: 0x8, addend: 0x0, symName: __RNvXs6_NtCslJiobkLta79_5alloc3vecINtB5_3VecNtNtCs4xvdaJ1JWuv_14cranelift_isle4sema7VariantENtNtNtCsieiGu2EXtoJ_4core3ops5deref5Deref5derefBJ_, symObjAddr: 0xEC20, symBinAddr: 0x10002F610, symSize: 0x20 }
  - { offset: 0x72EF5, size: 0x8, addend: 0x0, symName: __RNvXs6_NtCslJiobkLta79_5alloc3vecINtB5_3VecNtNtCs4xvdaJ1JWuv_14cranelift_isle4sema8BoundVarENtNtNtCsieiGu2EXtoJ_4core3ops5deref5Deref5derefBJ_, symObjAddr: 0xEC40, symBinAddr: 0x10002F630, symSize: 0x20 }
  - { offset: 0x72F35, size: 0x8, addend: 0x0, symName: __RNvXs6_NtCslJiobkLta79_5alloc3vecINtB5_3VecNtNtCs4xvdaJ1JWuv_14cranelift_isle5error4SpanENtNtNtCsieiGu2EXtoJ_4core3ops5deref5Deref5derefBJ_, symObjAddr: 0xEC60, symBinAddr: 0x10002F650, symSize: 0x20 }
  - { offset: 0x72F75, size: 0x8, addend: 0x0, symName: __RNvXs6_NtCslJiobkLta79_5alloc3vecINtB5_3VecNtNtCs4xvdaJ1JWuv_14cranelift_isle5error5ErrorENtNtNtCsieiGu2EXtoJ_4core3ops5deref5Deref5derefBJ_, symObjAddr: 0xEC80, symBinAddr: 0x10002F670, symSize: 0x20 }
  - { offset: 0x72FB5, size: 0x8, addend: 0x0, symName: __RNvXs6_NtCslJiobkLta79_5alloc3vecINtB5_3VecNtNtCs4xvdaJ1JWuv_14cranelift_isle5files7LineMapENtNtNtCsieiGu2EXtoJ_4core3ops5deref5Deref5derefBJ_, symObjAddr: 0xECA0, symBinAddr: 0x10002F690, symSize: 0x20 }
  - { offset: 0x72FF5, size: 0x8, addend: 0x0, symName: __RNvXs6_NtCslJiobkLta79_5alloc3vecINtB5_3VecNtNtCs4xvdaJ1JWuv_14cranelift_isle9serialize14EqualCandidateENtNtNtCsieiGu2EXtoJ_4core3ops5deref5Deref5derefBJ_, symObjAddr: 0xECC0, symBinAddr: 0x10002F6B0, symSize: 0x20 }
  - { offset: 0x73035, size: 0x8, addend: 0x0, symName: __RNvXs6_NtCslJiobkLta79_5alloc3vecINtB5_3VecNtNtCs4xvdaJ1JWuv_14cranelift_isle9serialize8EvalStepENtNtNtCsieiGu2EXtoJ_4core3ops5deref5Deref5derefBJ_, symObjAddr: 0xECE0, symBinAddr: 0x10002F6D0, symSize: 0x20 }
  - { offset: 0x73075, size: 0x8, addend: 0x0, symName: __RNvXs6_NtCslJiobkLta79_5alloc3vecINtB5_3VecNtNtCs4xvdaJ1JWuv_14cranelift_isle9serialize8MatchArmENtNtNtCsieiGu2EXtoJ_4core3ops5deref5Deref5derefBJ_, symObjAddr: 0xED00, symBinAddr: 0x10002F6F0, symSize: 0x20 }
  - { offset: 0x730B5, size: 0x8, addend: 0x0, symName: __RNvXs6_NtCslJiobkLta79_5alloc3vecINtB5_3VecNtNtCs4xvdaJ1JWuv_14cranelift_isle9serialize9CandidateENtNtNtCsieiGu2EXtoJ_4core3ops5deref5Deref5derefBJ_, symObjAddr: 0xED20, symBinAddr: 0x10002F710, symSize: 0x20 }
  - { offset: 0x730F5, size: 0x8, addend: 0x0, symName: __RNvXs6_NtCslJiobkLta79_5alloc3vecINtB5_3VecReENtNtNtCsieiGu2EXtoJ_4core3ops5deref5Deref5derefCs4xvdaJ1JWuv_14cranelift_isle, symObjAddr: 0xED40, symBinAddr: 0x10002F730, symSize: 0x20 }
  - { offset: 0x73135, size: 0x8, addend: 0x0, symName: __RNvXs6_NtCslJiobkLta79_5alloc3vecINtB5_3VecTNtNtCs4xvdaJ1JWuv_14cranelift_isle4sema6TermIdNtNtBK_10trie_again7RuleSetEENtNtNtCsieiGu2EXtoJ_4core3ops5deref5Deref5derefBK_, symObjAddr: 0xED60, symBinAddr: 0x10002F750, symSize: 0x20 }
  - { offset: 0x73175, size: 0x8, addend: 0x0, symName: __RNvXs6_NtCslJiobkLta79_5alloc3vecINtB5_3VecjENtNtNtCsieiGu2EXtoJ_4core3ops5deref5Deref5derefCs4xvdaJ1JWuv_14cranelift_isle, symObjAddr: 0xED80, symBinAddr: 0x10002F770, symSize: 0x20 }
  - { offset: 0x73997, size: 0x8, addend: 0x0, symName: __RNvXsb_NtCslJiobkLta79_5alloc3vecINtB5_3VecINtNtCsieiGu2EXtoJ_4core6option6OptionNtNtCs4xvdaJ1JWuv_14cranelift_isle10trie_again9BindingIdEEINtNtNtBK_3ops5index5IndexjE5indexB1l_, symObjAddr: 0x117B0, symBinAddr: 0x1000321A0, symSize: 0x80 }
  - { offset: 0x73B19, size: 0x8, addend: 0x0, symName: __RNvXsb_NtCslJiobkLta79_5alloc3vecINtB5_3VecNtNtB7_6string6StringEINtNtNtCsieiGu2EXtoJ_4core3ops5index5IndexjE5indexCs4xvdaJ1JWuv_14cranelift_isle, symObjAddr: 0x11830, symBinAddr: 0x100032220, symSize: 0x80 }
  - { offset: 0x73C9B, size: 0x8, addend: 0x0, symName: __RNvXsb_NtCslJiobkLta79_5alloc3vecINtB5_3VecNtNtCs4xvdaJ1JWuv_14cranelift_isle10trie_again4RuleEINtNtNtCsieiGu2EXtoJ_4core3ops5index5IndexjE5indexBJ_, symObjAddr: 0x118B0, symBinAddr: 0x1000322A0, symSize: 0x80 }
  - { offset: 0x73E1D, size: 0x8, addend: 0x0, symName: __RNvXsb_NtCslJiobkLta79_5alloc3vecINtB5_3VecNtNtCs4xvdaJ1JWuv_14cranelift_isle10trie_again7BindingEINtNtNtCsieiGu2EXtoJ_4core3ops5index5IndexjE5indexBJ_, symObjAddr: 0x11930, symBinAddr: 0x100032320, symSize: 0x80 }
  - { offset: 0x73F9F, size: 0x8, addend: 0x0, symName: __RNvXsb_NtCslJiobkLta79_5alloc3vecINtB5_3VecNtNtCs4xvdaJ1JWuv_14cranelift_isle10trie_again9BindingIdEINtNtNtCsieiGu2EXtoJ_4core3ops5index5IndexjE5indexBJ_, symObjAddr: 0x119B0, symBinAddr: 0x1000323A0, symSize: 0x70 }
  - { offset: 0x74121, size: 0x8, addend: 0x0, symName: __RNvXsb_NtCslJiobkLta79_5alloc3vecINtB5_3VecNtNtCs4xvdaJ1JWuv_14cranelift_isle3ast5IdentEINtNtNtCsieiGu2EXtoJ_4core3ops5index5IndexNtNtB1t_5range9RangeFullE5indexBJ_, symObjAddr: 0x11A20, symBinAddr: 0x100032410, symSize: 0x70 }
  - { offset: 0x742A3, size: 0x8, addend: 0x0, symName: __RNvXsb_NtCslJiobkLta79_5alloc3vecINtB5_3VecNtNtCs4xvdaJ1JWuv_14cranelift_isle4sema4TermEINtNtNtCsieiGu2EXtoJ_4core3ops5index5IndexjE5indexBJ_, symObjAddr: 0x11A90, symBinAddr: 0x100032480, symSize: 0x80 }
  - { offset: 0x74425, size: 0x8, addend: 0x0, symName: __RNvXsb_NtCslJiobkLta79_5alloc3vecINtB5_3VecNtNtCs4xvdaJ1JWuv_14cranelift_isle4sema4TypeEINtNtNtCsieiGu2EXtoJ_4core3ops5index5IndexjE5indexBJ_, symObjAddr: 0x11B10, symBinAddr: 0x100032500, symSize: 0x80 }
  - { offset: 0x745A7, size: 0x8, addend: 0x0, symName: __RNvXsb_NtCslJiobkLta79_5alloc3vecINtB5_3VecNtNtCs4xvdaJ1JWuv_14cranelift_isle4sema6TypeIdEINtNtNtCsieiGu2EXtoJ_4core3ops5index5IndexNtNtB1v_5range9RangeFullE5indexBJ_, symObjAddr: 0x11B90, symBinAddr: 0x100032580, symSize: 0x70 }
  - { offset: 0x74729, size: 0x8, addend: 0x0, symName: __RNvXsb_NtCslJiobkLta79_5alloc3vecINtB5_3VecNtNtCs4xvdaJ1JWuv_14cranelift_isle4sema6TypeIdEINtNtNtCsieiGu2EXtoJ_4core3ops5index5IndexjE5indexBJ_, symObjAddr: 0x11C00, symBinAddr: 0x1000325F0, symSize: 0x70 }
  - { offset: 0x748AB, size: 0x8, addend: 0x0, symName: __RNvXsb_NtCslJiobkLta79_5alloc3vecINtB5_3VecNtNtCs4xvdaJ1JWuv_14cranelift_isle4sema7VariantEINtNtNtCsieiGu2EXtoJ_4core3ops5index5IndexjE5indexBJ_, symObjAddr: 0x11C70, symBinAddr: 0x100032660, symSize: 0x80 }
  - { offset: 0x74A2D, size: 0x8, addend: 0x0, symName: __RNvXsb_NtCslJiobkLta79_5alloc3vecINtB5_3VecNtNtCs4xvdaJ1JWuv_14cranelift_isle5error4SpanEINtNtNtCsieiGu2EXtoJ_4core3ops5index5IndexINtNtB1u_5range9RangeFromjEE5indexBJ_, symObjAddr: 0x11CF0, symBinAddr: 0x1000326E0, symSize: 0x80 }
  - { offset: 0x74BAF, size: 0x8, addend: 0x0, symName: __RNvXsb_NtCslJiobkLta79_5alloc3vecINtB5_3VecNtNtCs4xvdaJ1JWuv_14cranelift_isle5error4SpanEINtNtNtCsieiGu2EXtoJ_4core3ops5index5IndexjE5indexBJ_, symObjAddr: 0x11D70, symBinAddr: 0x100032760, symSize: 0x80 }
  - { offset: 0x74D31, size: 0x8, addend: 0x0, symName: __RNvXsb_NtCslJiobkLta79_5alloc3vecINtB5_3VecNtNtCs4xvdaJ1JWuv_14cranelift_isle9serialize12BindingStateEINtNtNtCsieiGu2EXtoJ_4core3ops5index5IndexjE5indexBJ_, symObjAddr: 0x11DF0, symBinAddr: 0x1000327E0, symSize: 0x70 }
  - { offset: 0x74EB3, size: 0x8, addend: 0x0, symName: __RNvXsb_NtCslJiobkLta79_5alloc3vecINtB5_3VecNtNtCs4xvdaJ1JWuv_14cranelift_isle9serialize8MatchArmEINtNtNtCsieiGu2EXtoJ_4core3ops5index5IndexjE5indexBJ_, symObjAddr: 0x11E60, symBinAddr: 0x100032850, symSize: 0x80 }
  - { offset: 0x75035, size: 0x8, addend: 0x0, symName: __RNvXsb_NtCslJiobkLta79_5alloc3vecINtB5_3VecjEINtNtNtCsieiGu2EXtoJ_4core3ops5index5IndexjE5indexCs4xvdaJ1JWuv_14cranelift_isle, symObjAddr: 0x11EE0, symBinAddr: 0x1000328D0, symSize: 0x70 }
  - { offset: 0x751C2, size: 0x8, addend: 0x0, symName: __RNvXNtNtCslJiobkLta79_5alloc3vec10partial_eqINtB4_3VechENtNtCsieiGu2EXtoJ_4core3cmp9PartialEq2eqCs4xvdaJ1JWuv_14cranelift_isle, symObjAddr: 0xC170, symBinAddr: 0x10002CB60, symSize: 0xD0 }
  - { offset: 0x754B0, size: 0x8, addend: 0x0, symName: __RNvXs9_NtNtCslJiobkLta79_5alloc3vec10partial_eqINtB7_3VecNtNtCs4xvdaJ1JWuv_14cranelift_isle10trie_again9BindingIdEINtNtCsieiGu2EXtoJ_4core3cmp9PartialEqRABT_j0_E2eqBX_, symObjAddr: 0xF3C0, symBinAddr: 0x10002FDB0, symSize: 0x80 }
  - { offset: 0x7568A, size: 0x8, addend: 0x0, symName: __RNvXNtNtCslJiobkLta79_5alloc3vec11spec_extendINtB4_3VecNtNtCs4xvdaJ1JWuv_14cranelift_isle10trie_again9BindingIdEINtB2_10SpecExtendBR_INtNtNtNtCsieiGu2EXtoJ_4core4iter8adapters6copied6CopiedINtNtNtNtCsHUR1vrdMJt_3std11collections4hash3map4KeysBR_TBR_hEEEE11spec_extendBV_, symObjAddr: 0xC240, symBinAddr: 0x10002CC30, symSize: 0x20 }
  - { offset: 0x756DC, size: 0x8, addend: 0x0, symName: __RNvXNtNtCslJiobkLta79_5alloc3vec11spec_extendINtB4_3VecNtNtCs4xvdaJ1JWuv_14cranelift_isle3ast7PatternEINtB2_10SpecExtendBR_INtNtNtCsieiGu2EXtoJ_4core4iter8adapters12GenericShuntINtNtB20_3map3MapINtNtNtB24_5slice4iter4IterBR_ENCNvMBT_BR_16subst_macro_args0EINtNtB24_6option6OptionNtNtB24_7convert10InfallibleEEE11spec_extendBV_, symObjAddr: 0xC260, symBinAddr: 0x10002CC50, symSize: 0x20 }
  - { offset: 0x7572E, size: 0x8, addend: 0x0, symName: __RNvXNtNtCslJiobkLta79_5alloc3vec11spec_extendINtB4_3VecNtNtCs4xvdaJ1JWuv_14cranelift_isle3ast7PatternEINtB2_10SpecExtendBR_INtNtNtCsieiGu2EXtoJ_4core4iter8adapters12GenericShuntINtNtB20_3map3MapINtNtNtB24_5slice4iter4IterBR_ENCNvMBT_BR_16subst_macro_argss_0EINtNtB24_6option6OptionNtNtB24_7convert10InfallibleEEE11spec_extendBV_, symObjAddr: 0xC280, symBinAddr: 0x10002CC70, symSize: 0x20 }
  - { offset: 0x75780, size: 0x8, addend: 0x0, symName: __RNvXNtNtCslJiobkLta79_5alloc3vec11spec_extendINtB4_3VecNtNtCs4xvdaJ1JWuv_14cranelift_isle4sema4ExprEINtB2_10SpecExtendBR_INtNtNtNtCsieiGu2EXtoJ_4core4iter8adapters10filter_map9FilterMapINtNtB20_3zip3ZipINtNtNtB24_5slice4iter4IterNtNtBV_3ast4ExprEIB3f_NtBT_6TypeIdEENCNvMs5_BT_NtBT_7TermEnv14translate_expr0EE11spec_extendBV_, symObjAddr: 0xC2A0, symBinAddr: 0x10002CC90, symSize: 0x20 }
  - { offset: 0x757D2, size: 0x8, addend: 0x0, symName: __RNvXNtNtCslJiobkLta79_5alloc3vec11spec_extendINtB4_3VecNtNtCs4xvdaJ1JWuv_14cranelift_isle4sema5IfLetEINtB2_10SpecExtendBR_INtNtNtNtCsieiGu2EXtoJ_4core4iter8adapters10filter_map9FilterMapINtNtNtB25_5slice4iter4IterNtNtBV_3ast5IfLetENCNvMs5_BT_NtBT_7TermEnv13collect_rules0EE11spec_extendBV_, symObjAddr: 0xC2C0, symBinAddr: 0x10002CCB0, symSize: 0x20 }
  - { offset: 0x75824, size: 0x8, addend: 0x0, symName: __RNvXNtNtCslJiobkLta79_5alloc3vec11spec_extendINtB4_3VecNtNtCs4xvdaJ1JWuv_14cranelift_isle4sema6TypeIdEINtB2_10SpecExtendBR_INtNtNtCsieiGu2EXtoJ_4core4iter8adapters12GenericShuntINtNtB20_3map3MapINtNtNtB24_5slice4iter4IterNtNtBV_3ast5IdentENCNvMs5_BT_NtBT_7TermEnv17collect_term_sigs0EINtNtB24_6result6ResultNtNtB24_7convert10InfallibleuEEE11spec_extendBV_, symObjAddr: 0xC2E0, symBinAddr: 0x10002CCD0, symSize: 0x20 }
  - { offset: 0x75876, size: 0x8, addend: 0x0, symName: __RNvXNtNtCslJiobkLta79_5alloc3vec11spec_extendINtB4_3VecNtNtCs4xvdaJ1JWuv_14cranelift_isle4sema7PatternEINtB2_10SpecExtendBR_INtNtNtNtCsieiGu2EXtoJ_4core4iter8adapters10filter_map9FilterMapINtNtB23_3zip3ZipINtNtNtB27_5slice4iter4IterNtNtBV_3ast7PatternEIB3i_NtBT_6TypeIdEENCNvMs5_BT_NtBT_7TermEnv14translate_args0EE11spec_extendBV_, symObjAddr: 0xC300, symBinAddr: 0x10002CCF0, symSize: 0x20 }
  - { offset: 0x758C8, size: 0x8, addend: 0x0, symName: __RNvXNtNtCslJiobkLta79_5alloc3vec11spec_extendINtB4_3VecNtNtCs4xvdaJ1JWuv_14cranelift_isle4sema7PatternEINtB2_10SpecExtendBR_INtNtNtNtCsieiGu2EXtoJ_4core4iter8adapters10filter_map9FilterMapINtNtNtB27_5slice4iter4IterNtNtBV_3ast7PatternENCNvMs5_BT_NtBT_7TermEnv17translate_pattern0EE11spec_extendBV_, symObjAddr: 0xC320, symBinAddr: 0x10002CD10, symSize: 0x20 }
  - { offset: 0x7591A, size: 0x8, addend: 0x0, symName: __RNvXNtNtCslJiobkLta79_5alloc3vec11spec_extendINtB4_3VecNtNtCs4xvdaJ1JWuv_14cranelift_isle5error4SpanEINtB2_10SpecExtendBR_INtNtNtNtCsieiGu2EXtoJ_4core4iter8adapters3map3MapINtNtNtNtCsHUR1vrdMJt_3std11collections4hash3set8IntoIterNtNtBV_5lexer3PosENvMs1_BT_BR_10new_singleEE11spec_extendBV_, symObjAddr: 0xC340, symBinAddr: 0x10002CD30, symSize: 0x20 }
  - { offset: 0x7596C, size: 0x8, addend: 0x0, symName: __RNvXNtNtCslJiobkLta79_5alloc3vec11spec_extendINtB4_3VecNtNtCs4xvdaJ1JWuv_14cranelift_isle5error5ErrorEINtB2_10SpecExtendBR_INtNtNtNtCsieiGu2EXtoJ_4core4iter8adapters3map3MapINtNtNtNtCsHUR1vrdMJt_3std11collections4hash3map8IntoIterNtNtBV_5lexer3PosIBI_B3G_EENCNvMNtBV_7overlapNtB4c_6Errors6reports_0EE11spec_extendBV_, symObjAddr: 0xC360, symBinAddr: 0x10002CD50, symSize: 0x20 }
  - { offset: 0x759BE, size: 0x8, addend: 0x0, symName: __RNvXNtNtCslJiobkLta79_5alloc3vec11spec_extendINtB4_3VecTNtNtCs4xvdaJ1JWuv_14cranelift_isle4sema6TermIdIBI_BS_EINtNtBW_12stablemapset9StableSetBS_EEEINtB2_10SpecExtendBR_INtNtNtNtCsieiGu2EXtoJ_4core4iter8adapters3map3MapINtNtNtNtB6_11collections5btree3set4IterBS_ENCNvMs5_BU_NtBU_7TermEnv27collect_extractor_templatess_0EE11spec_extendBW_, symObjAddr: 0xC380, symBinAddr: 0x10002CD70, symSize: 0x20 }
  - { offset: 0x75A10, size: 0x8, addend: 0x0, symName: __RNvXNtNtCslJiobkLta79_5alloc3vec11spec_extendINtB4_3VecTNtNtCs4xvdaJ1JWuv_14cranelift_isle4sema6TermIdNtNtBW_10trie_again7RuleSetEEINtB2_10SpecExtendBR_INtNtNtNtCsieiGu2EXtoJ_4core4iter8adapters3map3MapINtNtNtNtCsHUR1vrdMJt_3std11collections4hash3map8IntoIterBS_NtB1E_14RuleSetBuilderENCNvB1E_5build0EE11spec_extendBW_, symObjAddr: 0xC3A0, symBinAddr: 0x10002CD90, symSize: 0x20 }
  - { offset: 0x75A62, size: 0x8, addend: 0x0, symName: __RNvXNtNtCslJiobkLta79_5alloc3vec11spec_extendINtB4_3VecjEINtB2_10SpecExtendjINtNtNtNtCsieiGu2EXtoJ_4core4iter8adapters3map3MapINtNtNtB1l_3str4iter12MatchIndicescENCNvMs_NtCs4xvdaJ1JWuv_14cranelift_isle5filesNtB2H_7LineMap8from_str0EE11spec_extendB2J_, symObjAddr: 0xC3C0, symBinAddr: 0x10002CDB0, symSize: 0x20 }
  - { offset: 0x75ABA, size: 0x8, addend: 0x0, symName: __RNvXs2_NtNtCslJiobkLta79_5alloc3vec11spec_extendINtB7_3VecNtNtCs4xvdaJ1JWuv_14cranelift_isle10trie_again9BindingIdEINtB5_10SpecExtendRBU_INtNtNtCsieiGu2EXtoJ_4core5slice4iter4IterBU_EE11spec_extendBY_, symObjAddr: 0xE950, symBinAddr: 0x10002F340, symSize: 0x90 }
  - { offset: 0x75BE2, size: 0x8, addend: 0x0, symName: __RNvXs_NtNtCslJiobkLta79_5alloc3vec11spec_extendINtB6_3VecINtNtCsieiGu2EXtoJ_4core6option6OptionNtNtCs4xvdaJ1JWuv_14cranelift_isle10trie_again9BindingIdEEINtB4_10SpecExtendBT_INtNtNtNtBY_4iter8adapters3map3MapINtNtB6_9into_iter8IntoIterNtB1x_7BindingENCNvMs2_NtB1z_9serializeNtB48_13Decomposition17make_control_flows1_0EE11spec_extendB1z_, symObjAddr: 0xF440, symBinAddr: 0x10002FE30, symSize: 0x20 }
  - { offset: 0x75C34, size: 0x8, addend: 0x0, symName: __RNvXs_NtNtCslJiobkLta79_5alloc3vec11spec_extendINtB6_3VecINtNtNtCs4xvdaJ1JWuv_14cranelift_isle5error10diagnostic10DiagnosticjEEINtB4_10SpecExtendBT_INtNtNtNtCsieiGu2EXtoJ_4core4iter8adapters3map3MapINtNtNtB2v_5slice4iter4IterNtBY_5ErrorENCNvXBY_NtBY_6ErrorsNtNtB2v_3fmt5Debug3fmt0EE11spec_extendB10_, symObjAddr: 0xF460, symBinAddr: 0x10002FE50, symSize: 0x20 }
  - { offset: 0x75C85, size: 0x8, addend: 0x0, symName: __RNvXs_NtNtCslJiobkLta79_5alloc3vec11spec_extendINtB6_3VecINtNtNtCs4xvdaJ1JWuv_14cranelift_isle5error10diagnostic5LabeljEEINtB4_10SpecExtendBT_INtNtNtNtCsieiGu2EXtoJ_4core4iter8adapters3map3MapINtNtNtB2p_5slice4iter4IterNtBY_4SpanENCNCNvXBY_NtBY_6ErrorsNtNtB2p_3fmt5Debug3fmt00EE11spec_extendB10_, symObjAddr: 0xF480, symBinAddr: 0x10002FE70, symSize: 0x20 }
  - { offset: 0x75CD6, size: 0x8, addend: 0x0, symName: __RNvXs_NtNtCslJiobkLta79_5alloc3vec11spec_extendINtB6_3VecINtNtNtCs4xvdaJ1JWuv_14cranelift_isle5error10diagnostic5LabeljEEINtB4_10SpecExtendBT_INtNtNtNtCsieiGu2EXtoJ_4core4iter8adapters3map3MapINtNtNtB2p_5slice4iter4IterNtBY_4SpanENCNCNvXBY_NtBY_6ErrorsNtNtB2p_3fmt5Debug3fmt0s_0EE11spec_extendB10_, symObjAddr: 0xF4A0, symBinAddr: 0x10002FE90, symSize: 0x20 }
  - { offset: 0x75D27, size: 0x8, addend: 0x0, symName: __RNvXs_NtNtCslJiobkLta79_5alloc3vec11spec_extendINtB6_3VecNtNtB8_6string6StringEINtB4_10SpecExtendBT_INtNtNtNtCsieiGu2EXtoJ_4core4iter8adapters3map3MapINtNtNtB1J_5slice4iter4IterNtNtCs4xvdaJ1JWuv_14cranelift_isle4sema6TypeIdENCNvMs_NtB2T_7codegenNtB3H_7Codegen18generate_trait_sig0EE11spec_extendB2T_, symObjAddr: 0xF4C0, symBinAddr: 0x10002FEB0, symSize: 0x20 }
  - { offset: 0x75D79, size: 0x8, addend: 0x0, symName: __RNvXs_NtNtCslJiobkLta79_5alloc3vec11spec_extendINtB6_3VecNtNtB8_6string6StringEINtB4_10SpecExtendBT_INtNtNtNtCsieiGu2EXtoJ_4core4iter8adapters5chain5ChainINtNtB1F_3map3MapINtNtB1F_9enumerate9EnumerateINtNtNtB1J_5slice4iter4IterNtNtCs4xvdaJ1JWuv_14cranelift_isle4sema6TypeIdEENCNvMs_NtB3H_7codegenNtB4w_7Codegen18generate_trait_sigs_0EINtNtB1J_6option8IntoIterBT_EEE11spec_extendB3H_, symObjAddr: 0xF4E0, symBinAddr: 0x10002FED0, symSize: 0x20 }
  - { offset: 0x75DCB, size: 0x8, addend: 0x0, symName: __RNvXs_NtNtCslJiobkLta79_5alloc3vec11spec_extendINtB6_3VecNtNtCs4xvdaJ1JWuv_14cranelift_isle10trie_again7BindingEINtB4_10SpecExtendBT_INtNtNtNtCsieiGu2EXtoJ_4core4iter8adapters3map3MapIB28_INtNtNtB2g_3ops5range5RangehENcNtBV_10TupleIndex0ENCNvMs4_BV_NtBV_10Constraint12bindings_for0EE11spec_extendBX_, symObjAddr: 0xF500, symBinAddr: 0x10002FEF0, symSize: 0x20 }
  - { offset: 0x75E1D, size: 0x8, addend: 0x0, symName: __RNvXs_NtNtCslJiobkLta79_5alloc3vec11spec_extendINtB6_3VecNtNtCs4xvdaJ1JWuv_14cranelift_isle10trie_again9BindingIdEINtB4_10SpecExtendBT_INtNtNtNtCsieiGu2EXtoJ_4core4iter8adapters3map3MapIB2a_INtNtNtB2i_3ops5range5RangehENcNtBV_10TupleIndex0ENCNvXs7_BV_NtBV_14RuleSetBuilderNtNtBX_4sema14PatternVisitor11add_extract0EE11spec_extendBX_, symObjAddr: 0xF520, symBinAddr: 0x10002FF10, symSize: 0x20 }
  - { offset: 0x75E6F, size: 0x8, addend: 0x0, symName: __RNvXs_NtNtCslJiobkLta79_5alloc3vec11spec_extendINtB6_3VecNtNtCs4xvdaJ1JWuv_14cranelift_isle10trie_again9BindingIdEINtB4_10SpecExtendBT_INtNtNtNtCsieiGu2EXtoJ_4core4iter8adapters3map3MapINtNtB6_9into_iter8IntoIterNtBV_7BindingENCNvMs6_BV_NtBV_14RuleSetBuilder14set_constraint0EE11spec_extendBX_, symObjAddr: 0xF540, symBinAddr: 0x10002FF30, symSize: 0x20 }
  - { offset: 0x75EC1, size: 0x8, addend: 0x0, symName: __RNvXs_NtNtCslJiobkLta79_5alloc3vec11spec_extendINtB6_3VecNtNtCs4xvdaJ1JWuv_14cranelift_isle10trie_again9BindingIdEINtB4_10SpecExtendBT_INtNtNtNtCsieiGu2EXtoJ_4core4iter8adapters3map3MapINtNtB6_9into_iter8IntoIterTBT_NtNtBX_4sema6TypeIdEENCNvXs8_BV_NtBV_14RuleSetBuilderNtB3u_11ExprVisitor13add_construct0EE11spec_extendBX_, symObjAddr: 0xF560, symBinAddr: 0x10002FF50, symSize: 0x20 }
  - { offset: 0x75F13, size: 0x8, addend: 0x0, symName: __RNvXs_NtNtCslJiobkLta79_5alloc3vec11spec_extendINtB6_3VecNtNtCs4xvdaJ1JWuv_14cranelift_isle10trie_again9BindingIdEINtB4_10SpecExtendBT_INtNtNtNtCsieiGu2EXtoJ_4core4iter8adapters3map3MapINtNtB6_9into_iter8IntoIterTBT_NtNtBX_4sema6TypeIdEENCNvXs8_BV_NtBV_14RuleSetBuilderNtB3u_11ExprVisitor18add_create_variant0EE11spec_extendBX_, symObjAddr: 0xF580, symBinAddr: 0x10002FF70, symSize: 0x20 }
  - { offset: 0x75F65, size: 0x8, addend: 0x0, symName: __RNvXs_NtNtCslJiobkLta79_5alloc3vec11spec_extendINtB6_3VecNtNtCs4xvdaJ1JWuv_14cranelift_isle3ast7PatternEINtB4_10SpecExtendBT_INtNtNtNtCsieiGu2EXtoJ_4core4iter8adapters3map3MapINtNtNtB28_5slice4iter4IterBT_ENCNvMBV_BT_19make_macro_templates0_0EE11spec_extendBX_, symObjAddr: 0xF5A0, symBinAddr: 0x10002FF90, symSize: 0x20 }
  - { offset: 0x75FB7, size: 0x8, addend: 0x0, symName: __RNvXs_NtNtCslJiobkLta79_5alloc3vec11spec_extendINtB6_3VecNtNtCs4xvdaJ1JWuv_14cranelift_isle3ast7PatternEINtB4_10SpecExtendBT_INtNtNtNtCsieiGu2EXtoJ_4core4iter8adapters3map3MapINtNtNtB28_5slice4iter4IterBT_ENCNvMBV_BT_19make_macro_templates1_0EE11spec_extendBX_, symObjAddr: 0xF5C0, symBinAddr: 0x10002FFB0, symSize: 0x20 }
  - { offset: 0x76009, size: 0x8, addend: 0x0, symName: __RNvXs_NtNtCslJiobkLta79_5alloc3vec11spec_extendINtB6_3VecNtNtCs4xvdaJ1JWuv_14cranelift_isle4sema6TypeIdEINtB4_10SpecExtendBT_INtNtNtNtCsieiGu2EXtoJ_4core4iter8adapters3map3MapINtNtNtB28_5slice4iter4IterNtBV_5FieldENCNvMs5_BV_NtBV_7TermEnv26collect_enum_variant_terms0EE11spec_extendBX_, symObjAddr: 0xF5E0, symBinAddr: 0x10002FFD0, symSize: 0x20 }
  - { offset: 0x7605A, size: 0x8, addend: 0x0, symName: __RNvXs_NtNtCslJiobkLta79_5alloc3vec11spec_extendINtB6_3VecNtNtCs4xvdaJ1JWuv_14cranelift_isle4sema6TypeIdEINtB4_10SpecExtendBT_INtNtNtNtCsieiGu2EXtoJ_4core4iter8adapters3map3MapINtNtNtB28_5slice4iter4IterNtBV_7PatternENCINvMs0_BV_B3e_5visitNtNtBX_10trie_again14RuleSetBuilderE0EE11spec_extendBX_, symObjAddr: 0xF600, symBinAddr: 0x10002FFF0, symSize: 0x20 }
  - { offset: 0x760AB, size: 0x8, addend: 0x0, symName: __RNvXs_NtNtCslJiobkLta79_5alloc3vec11spec_extendINtB6_3VecNtNtCs4xvdaJ1JWuv_14cranelift_isle5error4SpanEINtB4_10SpecExtendBT_INtNtNtNtCsieiGu2EXtoJ_4core4iter8adapters3map3MapINtNtB6_9into_iter8IntoIterNtNtBX_5lexer3PosENvMs1_BV_BT_10new_singleEE11spec_extendBX_, symObjAddr: 0xF620, symBinAddr: 0x100030010, symSize: 0x20 }
  - { offset: 0x760FD, size: 0x8, addend: 0x0, symName: __RNvXs_NtNtCslJiobkLta79_5alloc3vec11spec_extendINtB6_3VecNtNtCs4xvdaJ1JWuv_14cranelift_isle5error5ErrorEINtB4_10SpecExtendBT_INtNtNtNtCsieiGu2EXtoJ_4core4iter8adapters3map3MapINtNtB6_5drain5DrainNtNtBX_10trie_again16UnreachableErrorENCNvMs6_B39_NtB39_14RuleSetBuilder8add_rule0EE11spec_extendBX_, symObjAddr: 0xF640, symBinAddr: 0x100030030, symSize: 0x20 }
  - { offset: 0x7614F, size: 0x8, addend: 0x0, symName: __RNvXs_NtNtCslJiobkLta79_5alloc3vec11spec_extendINtB6_3VecNtNtCs4xvdaJ1JWuv_14cranelift_isle9serialize9CandidateEINtB4_10SpecExtendBT_INtNtNtCsieiGu2EXtoJ_4core5array4iter8IntoIterBT_Kj2_EE11spec_extendBX_, symObjAddr: 0xF660, symBinAddr: 0x100030050, symSize: 0x20 }
  - { offset: 0x761A1, size: 0x8, addend: 0x0, symName: __RNvXs_NtNtCslJiobkLta79_5alloc3vec11spec_extendINtB6_3VecReEINtB4_10SpecExtendBT_INtNtNtNtCsieiGu2EXtoJ_4core4iter8adapters3map3MapINtNtNtB1q_5slice4iter4IterNtNtCs4xvdaJ1JWuv_14cranelift_isle4sema6TermIdENCNvMs5_B2y_NtB2y_7TermEnv27collect_extractor_templatess0_0EE11spec_extendB2A_, symObjAddr: 0xF680, symBinAddr: 0x100030070, symSize: 0x20 }
  - { offset: 0x761F3, size: 0x8, addend: 0x0, symName: __RNvXs_NtNtCslJiobkLta79_5alloc3vec11spec_extendINtB6_3VecTNtNtCs4xvdaJ1JWuv_14cranelift_isle10trie_again9BindingIdNtNtBY_4sema6TypeIdEEINtB4_10SpecExtendBT_INtNtNtNtCsieiGu2EXtoJ_4core4iter8adapters3zip3ZipINtNtB2z_3map3MapINtNtNtB2D_5slice4iter4IterNtB1Q_4ExprENCINvMs1_B1Q_B40_5visitNtBW_14RuleSetBuilderE0EINtNtB2z_6copied6CopiedIB3A_B1O_EEEE11spec_extendBY_, symObjAddr: 0xF6A0, symBinAddr: 0x100030090, symSize: 0x20 }
  - { offset: 0x76245, size: 0x8, addend: 0x0, symName: __RNvXs_NtNtCslJiobkLta79_5alloc3vec11spec_extendINtB6_3VechEINtB4_10SpecExtendhINtNtNtNtCsieiGu2EXtoJ_4core4iter8adapters3map3MapINtNtNtB1n_5slice4iter4IterhENCNvNtB8_3str13replace_ascii0EE11spec_extendCs4xvdaJ1JWuv_14cranelift_isle, symObjAddr: 0xF6C0, symBinAddr: 0x1000300B0, symSize: 0x20 }
  - { offset: 0x76297, size: 0x8, addend: 0x0, symName: __RNvXs_NtNtCslJiobkLta79_5alloc3vec11spec_extendINtB6_3VecjEINtB4_10SpecExtendjINtNtNtCsieiGu2EXtoJ_4core3ops5range5RangejEE11spec_extendCs4xvdaJ1JWuv_14cranelift_isle, symObjAddr: 0xF6E0, symBinAddr: 0x1000300D0, symSize: 0x20 }
  - { offset: 0x762F4, size: 0x8, addend: 0x0, symName: __RNvXNtNtCslJiobkLta79_5alloc3vec14spec_from_iterINtB4_3VecINtNtNtCs4xvdaJ1JWuv_14cranelift_isle5error10diagnostic10DiagnosticjEEINtB2_12SpecFromIterBU_INtNtNtNtCsieiGu2EXtoJ_4core4iter8adapters3map3MapINtNtNtB2y_5slice4iter4IterNtBZ_5ErrorENCNvXBZ_NtBZ_6ErrorsNtNtB2y_3fmt5Debug3fmt0EE9from_iterB11_, symObjAddr: 0xC3E0, symBinAddr: 0x10002CDD0, symSize: 0x30 }
  - { offset: 0x76332, size: 0x8, addend: 0x0, symName: __RNvXNtNtCslJiobkLta79_5alloc3vec14spec_from_iterINtB4_3VecNtNtB6_6string6StringEINtB2_12SpecFromIterBU_INtNtNtNtCsieiGu2EXtoJ_4core4iter8adapters3map3MapINtNtNtB1M_5slice4iter4IterNtNtCs4xvdaJ1JWuv_14cranelift_isle4sema6TypeIdENCNvMs_NtB2W_7codegenNtB3K_7Codegen18generate_trait_sig0EE9from_iterB2W_, symObjAddr: 0xC410, symBinAddr: 0x10002CE00, symSize: 0x20 }
  - { offset: 0x76371, size: 0x8, addend: 0x0, symName: __RNvXNtNtCslJiobkLta79_5alloc3vec14spec_from_iterINtB4_3VecNtNtB6_6string6StringEINtB2_12SpecFromIterBU_INtNtNtNtCsieiGu2EXtoJ_4core4iter8adapters5chain5ChainINtNtB1I_3map3MapINtNtB1I_9enumerate9EnumerateINtNtNtB1M_5slice4iter4IterNtNtCs4xvdaJ1JWuv_14cranelift_isle4sema6TypeIdEENCNvMs_NtB3K_7codegenNtB4z_7Codegen18generate_trait_sigs_0EINtNtB1M_6option8IntoIterBU_EEE9from_iterB3K_, symObjAddr: 0xC430, symBinAddr: 0x10002CE20, symSize: 0x20 }
  - { offset: 0x763B0, size: 0x8, addend: 0x0, symName: __RNvXNtNtCslJiobkLta79_5alloc3vec14spec_from_iterINtB4_3VecNtNtCs4xvdaJ1JWuv_14cranelift_isle10trie_again7BindingEINtB2_12SpecFromIterBU_INtNtNtNtCsieiGu2EXtoJ_4core4iter8adapters3map3MapIB2b_INtNtNtB2j_3ops5range5RangehENcNtBW_10TupleIndex0ENCNvMs4_BW_NtBW_10Constraint12bindings_for0EE9from_iterBY_, symObjAddr: 0xC450, symBinAddr: 0x10002CE40, symSize: 0x20 }
  - { offset: 0x763EF, size: 0x8, addend: 0x0, symName: __RNvXNtNtCslJiobkLta79_5alloc3vec14spec_from_iterINtB4_3VecNtNtCs4xvdaJ1JWuv_14cranelift_isle10trie_again9BindingIdEINtB2_12SpecFromIterBU_INtNtNtNtCsieiGu2EXtoJ_4core4iter8adapters3map3MapIB2d_INtNtNtB2l_3ops5range5RangehENcNtBW_10TupleIndex0ENCNvXs7_BW_NtBW_14RuleSetBuilderNtNtBY_4sema14PatternVisitor11add_extract0EE9from_iterBY_, symObjAddr: 0xC470, symBinAddr: 0x10002CE60, symSize: 0x20 }
  - { offset: 0x7642E, size: 0x8, addend: 0x0, symName: __RNvXNtNtCslJiobkLta79_5alloc3vec14spec_from_iterINtB4_3VecNtNtCs4xvdaJ1JWuv_14cranelift_isle3ast7PatternEINtB2_12SpecFromIterBU_INtNtNtCsieiGu2EXtoJ_4core4iter8adapters12GenericShuntINtNtB25_3map3MapINtNtNtB29_5slice4iter4IterBU_ENCNvMBW_BU_16subst_macro_args0EINtNtB29_6option6OptionNtNtB29_7convert10InfallibleEEE9from_iterBY_, symObjAddr: 0xC490, symBinAddr: 0x10002CE80, symSize: 0x20 }
  - { offset: 0x7646D, size: 0x8, addend: 0x0, symName: __RNvXNtNtCslJiobkLta79_5alloc3vec14spec_from_iterINtB4_3VecNtNtCs4xvdaJ1JWuv_14cranelift_isle3ast7PatternEINtB2_12SpecFromIterBU_INtNtNtCsieiGu2EXtoJ_4core4iter8adapters12GenericShuntINtNtB25_3map3MapINtNtNtB29_5slice4iter4IterBU_ENCNvMBW_BU_16subst_macro_argss_0EINtNtB29_6option6OptionNtNtB29_7convert10InfallibleEEE9from_iterBY_, symObjAddr: 0xC4B0, symBinAddr: 0x10002CEA0, symSize: 0x20 }
  - { offset: 0x764AC, size: 0x8, addend: 0x0, symName: __RNvXNtNtCslJiobkLta79_5alloc3vec14spec_from_iterINtB4_3VecNtNtCs4xvdaJ1JWuv_14cranelift_isle3ast7PatternEINtB2_12SpecFromIterBU_INtNtNtNtCsieiGu2EXtoJ_4core4iter8adapters3map3MapINtNtNtB2b_5slice4iter4IterBU_ENCNvMBW_BU_19make_macro_templates0_0EE9from_iterBY_, symObjAddr: 0xC4D0, symBinAddr: 0x10002CEC0, symSize: 0x20 }
  - { offset: 0x764EB, size: 0x8, addend: 0x0, symName: __RNvXNtNtCslJiobkLta79_5alloc3vec14spec_from_iterINtB4_3VecNtNtCs4xvdaJ1JWuv_14cranelift_isle3ast7PatternEINtB2_12SpecFromIterBU_INtNtNtNtCsieiGu2EXtoJ_4core4iter8adapters3map3MapINtNtNtB2b_5slice4iter4IterBU_ENCNvMBW_BU_19make_macro_templates1_0EE9from_iterBY_, symObjAddr: 0xC4F0, symBinAddr: 0x10002CEE0, symSize: 0x20 }
  - { offset: 0x7652A, size: 0x8, addend: 0x0, symName: __RNvXNtNtCslJiobkLta79_5alloc3vec14spec_from_iterINtB4_3VecNtNtCs4xvdaJ1JWuv_14cranelift_isle4sema4ExprEINtB2_12SpecFromIterBU_INtNtNtNtCsieiGu2EXtoJ_4core4iter8adapters10filter_map9FilterMapINtNtB25_3zip3ZipINtNtNtB29_5slice4iter4IterNtNtBY_3ast4ExprEIB3k_NtBW_6TypeIdEENCNvMs5_BW_NtBW_7TermEnv14translate_expr0EE9from_iterBY_, symObjAddr: 0xC510, symBinAddr: 0x10002CF00, symSize: 0x20 }
  - { offset: 0x76569, size: 0x8, addend: 0x0, symName: __RNvXNtNtCslJiobkLta79_5alloc3vec14spec_from_iterINtB4_3VecNtNtCs4xvdaJ1JWuv_14cranelift_isle4sema5IfLetEINtB2_12SpecFromIterBU_INtNtNtNtCsieiGu2EXtoJ_4core4iter8adapters10filter_map9FilterMapINtNtNtB2a_5slice4iter4IterNtNtBY_3ast5IfLetENCNvMs5_BW_NtBW_7TermEnv13collect_rules0EE9from_iterBY_, symObjAddr: 0xC530, symBinAddr: 0x10002CF20, symSize: 0x20 }
  - { offset: 0x765A8, size: 0x8, addend: 0x0, symName: __RNvXNtNtCslJiobkLta79_5alloc3vec14spec_from_iterINtB4_3VecNtNtCs4xvdaJ1JWuv_14cranelift_isle4sema6TypeIdEINtB2_12SpecFromIterBU_INtNtNtCsieiGu2EXtoJ_4core4iter8adapters12GenericShuntINtNtB25_3map3MapINtNtNtB29_5slice4iter4IterNtNtBY_3ast5IdentENCNvMs5_BW_NtBW_7TermEnv17collect_term_sigs0EINtNtB29_6result6ResultNtNtB29_7convert10InfallibleuEEE9from_iterBY_, symObjAddr: 0xC550, symBinAddr: 0x10002CF40, symSize: 0x20 }
  - { offset: 0x765E7, size: 0x8, addend: 0x0, symName: __RNvXNtNtCslJiobkLta79_5alloc3vec14spec_from_iterINtB4_3VecNtNtCs4xvdaJ1JWuv_14cranelift_isle4sema6TypeIdEINtB2_12SpecFromIterBU_INtNtNtNtCsieiGu2EXtoJ_4core4iter8adapters3map3MapINtNtNtB2b_5slice4iter4IterNtBW_5FieldENCNvMs5_BW_NtBW_7TermEnv26collect_enum_variant_terms0EE9from_iterBY_, symObjAddr: 0xC570, symBinAddr: 0x10002CF60, symSize: 0x30 }
  - { offset: 0x76625, size: 0x8, addend: 0x0, symName: __RNvXNtNtCslJiobkLta79_5alloc3vec14spec_from_iterINtB4_3VecNtNtCs4xvdaJ1JWuv_14cranelift_isle4sema6TypeIdEINtB2_12SpecFromIterBU_INtNtNtNtCsieiGu2EXtoJ_4core4iter8adapters3map3MapINtNtNtB2b_5slice4iter4IterNtBW_7PatternENCINvMs0_BW_B3h_5visitNtNtBY_10trie_again14RuleSetBuilderE0EE9from_iterBY_, symObjAddr: 0xC5A0, symBinAddr: 0x10002CF90, symSize: 0x30 }
  - { offset: 0x76663, size: 0x8, addend: 0x0, symName: __RNvXNtNtCslJiobkLta79_5alloc3vec14spec_from_iterINtB4_3VecNtNtCs4xvdaJ1JWuv_14cranelift_isle4sema7PatternEINtB2_12SpecFromIterBU_INtNtNtNtCsieiGu2EXtoJ_4core4iter8adapters10filter_map9FilterMapINtNtB28_3zip3ZipINtNtNtB2c_5slice4iter4IterNtNtBY_3ast7PatternEIB3n_NtBW_6TypeIdEENCNvMs5_BW_NtBW_7TermEnv14translate_args0EE9from_iterBY_, symObjAddr: 0xC5D0, symBinAddr: 0x10002CFC0, symSize: 0x20 }
  - { offset: 0x766A2, size: 0x8, addend: 0x0, symName: __RNvXNtNtCslJiobkLta79_5alloc3vec14spec_from_iterINtB4_3VecNtNtCs4xvdaJ1JWuv_14cranelift_isle4sema7PatternEINtB2_12SpecFromIterBU_INtNtNtNtCsieiGu2EXtoJ_4core4iter8adapters10filter_map9FilterMapINtNtNtB2c_5slice4iter4IterNtNtBY_3ast7PatternENCNvMs5_BW_NtBW_7TermEnv17translate_pattern0EE9from_iterBY_, symObjAddr: 0xC5F0, symBinAddr: 0x10002CFE0, symSize: 0x20 }
  - { offset: 0x766E1, size: 0x8, addend: 0x0, symName: __RNvXNtNtCslJiobkLta79_5alloc3vec14spec_from_iterINtB4_3VecReEINtB2_12SpecFromIterBU_INtNtNtNtCsieiGu2EXtoJ_4core4iter8adapters3map3MapINtNtNtB1t_5slice4iter4IterNtNtCs4xvdaJ1JWuv_14cranelift_isle4sema6TermIdENCNvMs5_B2B_NtB2B_7TermEnv27collect_extractor_templatess0_0EE9from_iterB2D_, symObjAddr: 0xC610, symBinAddr: 0x10002D000, symSize: 0x20 }
  - { offset: 0x76720, size: 0x8, addend: 0x0, symName: __RNvXNtNtCslJiobkLta79_5alloc3vec14spec_from_iterINtB4_3VecTNtNtCs4xvdaJ1JWuv_14cranelift_isle10trie_again9BindingIdNtNtBZ_4sema6TypeIdEEINtB2_12SpecFromIterBU_INtNtNtNtCsieiGu2EXtoJ_4core4iter8adapters3zip3ZipINtNtB2C_3map3MapINtNtNtB2G_5slice4iter4IterNtB1R_4ExprENCINvMs1_B1R_B43_5visitNtBX_14RuleSetBuilderE0EINtNtB2C_6copied6CopiedIB3D_B1P_EEEE9from_iterBZ_, symObjAddr: 0xC630, symBinAddr: 0x10002D020, symSize: 0x20 }
  - { offset: 0x7675F, size: 0x8, addend: 0x0, symName: __RNvXNtNtCslJiobkLta79_5alloc3vec14spec_from_iterINtB4_3VecTNtNtCs4xvdaJ1JWuv_14cranelift_isle4sema6TermIdNtNtBZ_10trie_again7RuleSetEEINtB2_12SpecFromIterBU_INtNtNtNtCsieiGu2EXtoJ_4core4iter8adapters3map3MapINtNtNtNtCsHUR1vrdMJt_3std11collections4hash3map8IntoIterBV_NtB1H_14RuleSetBuilderENCNvB1H_5build0EE9from_iterBZ_, symObjAddr: 0xC650, symBinAddr: 0x10002D040, symSize: 0x20 }
  - { offset: 0x7679E, size: 0x8, addend: 0x0, symName: __RNvXNtNtCslJiobkLta79_5alloc3vec14spec_from_iterINtB4_3VechEINtB2_12SpecFromIterhINtNtNtNtCsieiGu2EXtoJ_4core4iter8adapters3map3MapINtNtNtB1q_5slice4iter4IterhENCNvNtB6_3str13replace_ascii0EE9from_iterCs4xvdaJ1JWuv_14cranelift_isle, symObjAddr: 0xC670, symBinAddr: 0x10002D060, symSize: 0x20 }
  - { offset: 0x767DD, size: 0x8, addend: 0x0, symName: __RNvXNtNtCslJiobkLta79_5alloc3vec14spec_from_iterINtB4_3VecjEINtB2_12SpecFromIterjINtNtNtCsieiGu2EXtoJ_4core3ops5range5RangejEE9from_iterCs4xvdaJ1JWuv_14cranelift_isle, symObjAddr: 0xC690, symBinAddr: 0x10002D080, symSize: 0x30 }
  - { offset: 0x7681B, size: 0x8, addend: 0x0, symName: __RNvXNtNtCslJiobkLta79_5alloc3vec14spec_from_iterINtB4_3VecjEINtB2_12SpecFromIterjINtNtNtNtCsieiGu2EXtoJ_4core4iter8adapters3map3MapINtNtNtB1q_3str4iter12MatchIndicescENCNvMs_NtCs4xvdaJ1JWuv_14cranelift_isle5filesNtB2M_7LineMap8from_str0EE9from_iterB2O_, symObjAddr: 0xC6C0, symBinAddr: 0x10002D0B0, symSize: 0x20 }
  - { offset: 0x76866, size: 0x8, addend: 0x0, symName: __RNvXNtNtCslJiobkLta79_5alloc3vec21spec_from_iter_nestedINtB4_3VecNtNtCs4xvdaJ1JWuv_14cranelift_isle3ast7PatternEINtB2_18SpecFromIterNestedB11_INtNtNtCsieiGu2EXtoJ_4core4iter8adapters12GenericShuntINtNtB2j_3map3MapINtNtNtB2n_5slice4iter4IterB11_ENCNvMB13_B11_16subst_macro_args0EINtNtB2n_6option6OptionNtNtB2n_7convert10InfallibleEEE9from_iterB15_, symObjAddr: 0xC6E0, symBinAddr: 0x10002D0D0, symSize: 0x370 }
  - { offset: 0x76B1B, size: 0x8, addend: 0x0, symName: __RNvXNtNtCslJiobkLta79_5alloc3vec21spec_from_iter_nestedINtB4_3VecNtNtCs4xvdaJ1JWuv_14cranelift_isle3ast7PatternEINtB2_18SpecFromIterNestedB11_INtNtNtCsieiGu2EXtoJ_4core4iter8adapters12GenericShuntINtNtB2j_3map3MapINtNtNtB2n_5slice4iter4IterB11_ENCNvMB13_B11_16subst_macro_argss_0EINtNtB2n_6option6OptionNtNtB2n_7convert10InfallibleEEE9from_iterB15_, symObjAddr: 0xCA50, symBinAddr: 0x10002D440, symSize: 0x370 }
  - { offset: 0x76DD0, size: 0x8, addend: 0x0, symName: __RNvXNtNtCslJiobkLta79_5alloc3vec21spec_from_iter_nestedINtB4_3VecNtNtCs4xvdaJ1JWuv_14cranelift_isle4sema4ExprEINtB2_18SpecFromIterNestedB11_INtNtNtNtCsieiGu2EXtoJ_4core4iter8adapters10filter_map9FilterMapINtNtB2j_3zip3ZipINtNtNtB2n_5slice4iter4IterNtNtB15_3ast4ExprEIB3y_NtB13_6TypeIdEENCNvMs5_B13_NtB13_7TermEnv14translate_expr0EE9from_iterB15_, symObjAddr: 0xCDC0, symBinAddr: 0x10002D7B0, symSize: 0x320 }
  - { offset: 0x77085, size: 0x8, addend: 0x0, symName: __RNvXNtNtCslJiobkLta79_5alloc3vec21spec_from_iter_nestedINtB4_3VecNtNtCs4xvdaJ1JWuv_14cranelift_isle4sema5IfLetEINtB2_18SpecFromIterNestedB11_INtNtNtNtCsieiGu2EXtoJ_4core4iter8adapters10filter_map9FilterMapINtNtNtB2o_5slice4iter4IterNtNtB15_3ast5IfLetENCNvMs5_B13_NtB13_7TermEnv13collect_rules0EE9from_iterB15_, symObjAddr: 0xD0E0, symBinAddr: 0x10002DAD0, symSize: 0x380 }
  - { offset: 0x7733A, size: 0x8, addend: 0x0, symName: __RNvXNtNtCslJiobkLta79_5alloc3vec21spec_from_iter_nestedINtB4_3VecNtNtCs4xvdaJ1JWuv_14cranelift_isle4sema6TypeIdEINtB2_18SpecFromIterNestedB11_INtNtNtCsieiGu2EXtoJ_4core4iter8adapters12GenericShuntINtNtB2j_3map3MapINtNtNtB2n_5slice4iter4IterNtNtB15_3ast5IdentENCNvMs5_B13_NtB13_7TermEnv17collect_term_sigs0EINtNtB2n_6result6ResultNtNtB2n_7convert10InfallibleuEEE9from_iterB15_, symObjAddr: 0xD460, symBinAddr: 0x10002DE50, symSize: 0x310 }
  - { offset: 0x775F3, size: 0x8, addend: 0x0, symName: __RNvXNtNtCslJiobkLta79_5alloc3vec21spec_from_iter_nestedINtB4_3VecNtNtCs4xvdaJ1JWuv_14cranelift_isle4sema7PatternEINtB2_18SpecFromIterNestedB11_INtNtNtNtCsieiGu2EXtoJ_4core4iter8adapters10filter_map9FilterMapINtNtB2m_3zip3ZipINtNtNtB2q_5slice4iter4IterNtNtB15_3ast7PatternEIB3B_NtB13_6TypeIdEENCNvMs5_B13_NtB13_7TermEnv14translate_args0EE9from_iterB15_, symObjAddr: 0xD770, symBinAddr: 0x10002E160, symSize: 0x320 }
  - { offset: 0x778A8, size: 0x8, addend: 0x0, symName: __RNvXNtNtCslJiobkLta79_5alloc3vec21spec_from_iter_nestedINtB4_3VecNtNtCs4xvdaJ1JWuv_14cranelift_isle4sema7PatternEINtB2_18SpecFromIterNestedB11_INtNtNtNtCsieiGu2EXtoJ_4core4iter8adapters10filter_map9FilterMapINtNtNtB2q_5slice4iter4IterNtNtB15_3ast7PatternENCNvMs5_B13_NtB13_7TermEnv17translate_pattern0EE9from_iterB15_, symObjAddr: 0xDA90, symBinAddr: 0x10002E480, symSize: 0x350 }
  - { offset: 0x77B5D, size: 0x8, addend: 0x0, symName: __RNvXNtNtCslJiobkLta79_5alloc3vec21spec_from_iter_nestedINtB4_3VecTNtNtCs4xvdaJ1JWuv_14cranelift_isle4sema6TermIdNtNtB16_10trie_again7RuleSetEEINtB2_18SpecFromIterNestedB11_INtNtNtNtCsieiGu2EXtoJ_4core4iter8adapters3map3MapINtNtNtNtCsHUR1vrdMJt_3std11collections4hash3map8IntoIterB12_NtB1O_14RuleSetBuilderENCNvB1O_5build0EE9from_iterB16_, symObjAddr: 0xDDE0, symBinAddr: 0x10002E7D0, symSize: 0x370 }
  - { offset: 0x77E12, size: 0x8, addend: 0x0, symName: __RNvXNtNtCslJiobkLta79_5alloc3vec21spec_from_iter_nestedINtB4_3VecjEINtB2_18SpecFromIterNestedjINtNtNtNtCsieiGu2EXtoJ_4core4iter8adapters3map3MapINtNtNtB1D_3str4iter12MatchIndicescENCNvMs_NtCs4xvdaJ1JWuv_14cranelift_isle5filesNtB2Z_7LineMap8from_str0EE9from_iterB31_, symObjAddr: 0xE150, symBinAddr: 0x10002EB40, symSize: 0x320 }
  - { offset: 0x780D1, size: 0x8, addend: 0x0, symName: __RNvXs_NtNtCslJiobkLta79_5alloc3vec21spec_from_iter_nestedINtB6_3VecINtNtCsieiGu2EXtoJ_4core6option6OptionNtNtCs4xvdaJ1JWuv_14cranelift_isle10trie_again9BindingIdEEINtB4_18SpecFromIterNestedB13_INtNtNtNtB18_4iter8adapters3map3MapINtNtB6_9into_iter8IntoIterNtB1H_7BindingENCNvMs2_NtB1J_9serializeNtB4s_13Decomposition17make_control_flows1_0EE9from_iterB1J_, symObjAddr: 0xF7F0, symBinAddr: 0x1000301E0, symSize: 0x1E0 }
  - { offset: 0x781A9, size: 0x8, addend: 0x0, symName: __RNvXs_NtNtCslJiobkLta79_5alloc3vec21spec_from_iter_nestedINtB6_3VecINtNtNtCs4xvdaJ1JWuv_14cranelift_isle5error10diagnostic10DiagnosticjEEINtB4_18SpecFromIterNestedB13_INtNtNtNtCsieiGu2EXtoJ_4core4iter8adapters3map3MapINtNtNtB2O_5slice4iter4IterNtB18_5ErrorENCNvXB18_NtB18_6ErrorsNtNtB2O_3fmt5Debug3fmt0EE9from_iterB1a_, symObjAddr: 0xF9D0, symBinAddr: 0x1000303C0, symSize: 0x1B0 }
  - { offset: 0x78281, size: 0x8, addend: 0x0, symName: __RNvXs_NtNtCslJiobkLta79_5alloc3vec21spec_from_iter_nestedINtB6_3VecNtNtB8_6string6StringEINtB4_18SpecFromIterNestedB13_INtNtNtNtCsieiGu2EXtoJ_4core4iter8adapters3map3MapINtNtNtB22_5slice4iter4IterNtNtCs4xvdaJ1JWuv_14cranelift_isle4sema6TypeIdENCNvMs_NtB3c_7codegenNtB40_7Codegen18generate_trait_sig0EE9from_iterB3c_, symObjAddr: 0xFB80, symBinAddr: 0x100030570, symSize: 0x1C0 }
  - { offset: 0x78359, size: 0x8, addend: 0x0, symName: __RNvXs_NtNtCslJiobkLta79_5alloc3vec21spec_from_iter_nestedINtB6_3VecNtNtB8_6string6StringEINtB4_18SpecFromIterNestedB13_INtNtNtNtCsieiGu2EXtoJ_4core4iter8adapters5chain5ChainINtNtB1Y_3map3MapINtNtB1Y_9enumerate9EnumerateINtNtNtB22_5slice4iter4IterNtNtCs4xvdaJ1JWuv_14cranelift_isle4sema6TypeIdEENCNvMs_NtB40_7codegenNtB4P_7Codegen18generate_trait_sigs_0EINtNtB22_6option8IntoIterB13_EEE9from_iterB40_, symObjAddr: 0xFD40, symBinAddr: 0x100030730, symSize: 0x1F0 }
  - { offset: 0x78431, size: 0x8, addend: 0x0, symName: __RNvXs_NtNtCslJiobkLta79_5alloc3vec21spec_from_iter_nestedINtB6_3VecNtNtCs4xvdaJ1JWuv_14cranelift_isle10trie_again7BindingEINtB4_18SpecFromIterNestedB13_INtNtNtNtCsieiGu2EXtoJ_4core4iter8adapters3map3MapIB2r_INtNtNtB2z_3ops5range5RangehENcNtB15_10TupleIndex0ENCNvMs4_B15_NtB15_10Constraint12bindings_for0EE9from_iterB17_, symObjAddr: 0xFF30, symBinAddr: 0x100030920, symSize: 0x1C0 }
  - { offset: 0x78509, size: 0x8, addend: 0x0, symName: __RNvXs_NtNtCslJiobkLta79_5alloc3vec21spec_from_iter_nestedINtB6_3VecNtNtCs4xvdaJ1JWuv_14cranelift_isle10trie_again9BindingIdEINtB4_18SpecFromIterNestedB13_INtNtNtNtCsieiGu2EXtoJ_4core4iter8adapters3map3MapIB2t_INtNtNtB2B_3ops5range5RangehENcNtB15_10TupleIndex0ENCNvXs7_B15_NtB15_14RuleSetBuilderNtNtB17_4sema14PatternVisitor11add_extract0EE9from_iterB17_, symObjAddr: 0x100F0, symBinAddr: 0x100030AE0, symSize: 0x1C0 }
  - { offset: 0x785E1, size: 0x8, addend: 0x0, symName: __RNvXs_NtNtCslJiobkLta79_5alloc3vec21spec_from_iter_nestedINtB6_3VecNtNtCs4xvdaJ1JWuv_14cranelift_isle10trie_again9BindingIdEINtB4_18SpecFromIterNestedB13_INtNtNtNtCsieiGu2EXtoJ_4core4iter8adapters3map3MapINtNtB6_9into_iter8IntoIterNtB15_7BindingENCNvMs6_B15_NtB15_14RuleSetBuilder14set_constraint0EE9from_iterB17_, symObjAddr: 0x102B0, symBinAddr: 0x100030CA0, symSize: 0x1E0 }
  - { offset: 0x786B9, size: 0x8, addend: 0x0, symName: __RNvXs_NtNtCslJiobkLta79_5alloc3vec21spec_from_iter_nestedINtB6_3VecNtNtCs4xvdaJ1JWuv_14cranelift_isle10trie_again9BindingIdEINtB4_18SpecFromIterNestedB13_INtNtNtNtCsieiGu2EXtoJ_4core4iter8adapters3map3MapINtNtB6_9into_iter8IntoIterTB13_NtNtB17_4sema6TypeIdEENCNvXs8_B15_NtB15_14RuleSetBuilderNtB3O_11ExprVisitor13add_construct0EE9from_iterB17_, symObjAddr: 0x10490, symBinAddr: 0x100030E80, symSize: 0x1D0 }
  - { offset: 0x78791, size: 0x8, addend: 0x0, symName: __RNvXs_NtNtCslJiobkLta79_5alloc3vec21spec_from_iter_nestedINtB6_3VecNtNtCs4xvdaJ1JWuv_14cranelift_isle10trie_again9BindingIdEINtB4_18SpecFromIterNestedB13_INtNtNtNtCsieiGu2EXtoJ_4core4iter8adapters3map3MapINtNtB6_9into_iter8IntoIterTB13_NtNtB17_4sema6TypeIdEENCNvXs8_B15_NtB15_14RuleSetBuilderNtB3O_11ExprVisitor18add_create_variant0EE9from_iterB17_, symObjAddr: 0x10660, symBinAddr: 0x100031050, symSize: 0x1D0 }
  - { offset: 0x78869, size: 0x8, addend: 0x0, symName: __RNvXs_NtNtCslJiobkLta79_5alloc3vec21spec_from_iter_nestedINtB6_3VecNtNtCs4xvdaJ1JWuv_14cranelift_isle3ast7PatternEINtB4_18SpecFromIterNestedB13_INtNtNtNtCsieiGu2EXtoJ_4core4iter8adapters3map3MapINtNtNtB2r_5slice4iter4IterB13_ENCNvMB15_B13_19make_macro_templates0_0EE9from_iterB17_, symObjAddr: 0x10830, symBinAddr: 0x100031220, symSize: 0x1C0 }
  - { offset: 0x78941, size: 0x8, addend: 0x0, symName: __RNvXs_NtNtCslJiobkLta79_5alloc3vec21spec_from_iter_nestedINtB6_3VecNtNtCs4xvdaJ1JWuv_14cranelift_isle3ast7PatternEINtB4_18SpecFromIterNestedB13_INtNtNtNtCsieiGu2EXtoJ_4core4iter8adapters3map3MapINtNtNtB2r_5slice4iter4IterB13_ENCNvMB15_B13_19make_macro_templates1_0EE9from_iterB17_, symObjAddr: 0x109F0, symBinAddr: 0x1000313E0, symSize: 0x1C0 }
  - { offset: 0x78A19, size: 0x8, addend: 0x0, symName: __RNvXs_NtNtCslJiobkLta79_5alloc3vec21spec_from_iter_nestedINtB6_3VecNtNtCs4xvdaJ1JWuv_14cranelift_isle4sema6TypeIdEINtB4_18SpecFromIterNestedB13_INtNtNtNtCsieiGu2EXtoJ_4core4iter8adapters3map3MapINtNtNtB2r_5slice4iter4IterNtB15_5FieldENCNvMs5_B15_NtB15_7TermEnv26collect_enum_variant_terms0EE9from_iterB17_, symObjAddr: 0x10BB0, symBinAddr: 0x1000315A0, symSize: 0x1A0 }
  - { offset: 0x78AF1, size: 0x8, addend: 0x0, symName: __RNvXs_NtNtCslJiobkLta79_5alloc3vec21spec_from_iter_nestedINtB6_3VecNtNtCs4xvdaJ1JWuv_14cranelift_isle4sema6TypeIdEINtB4_18SpecFromIterNestedB13_INtNtNtNtCsieiGu2EXtoJ_4core4iter8adapters3map3MapINtNtNtB2r_5slice4iter4IterNtB15_7PatternENCINvMs0_B15_B3x_5visitNtNtB17_10trie_again14RuleSetBuilderE0EE9from_iterB17_, symObjAddr: 0x10D50, symBinAddr: 0x100031740, symSize: 0x1A0 }
  - { offset: 0x78BC9, size: 0x8, addend: 0x0, symName: __RNvXs_NtNtCslJiobkLta79_5alloc3vec21spec_from_iter_nestedINtB6_3VecNtNtCs4xvdaJ1JWuv_14cranelift_isle5error4SpanEINtB4_18SpecFromIterNestedB13_INtNtNtNtCsieiGu2EXtoJ_4core4iter8adapters3map3MapINtNtB6_9into_iter8IntoIterNtNtB17_5lexer3PosENvMs1_B15_B13_10new_singleEE9from_iterB17_, symObjAddr: 0x10EF0, symBinAddr: 0x1000318E0, symSize: 0x1D0 }
  - { offset: 0x78CA1, size: 0x8, addend: 0x0, symName: __RNvXs_NtNtCslJiobkLta79_5alloc3vec21spec_from_iter_nestedINtB6_3VecReEINtB4_18SpecFromIterNestedB13_INtNtNtNtCsieiGu2EXtoJ_4core4iter8adapters3map3MapINtNtNtB1J_5slice4iter4IterNtNtCs4xvdaJ1JWuv_14cranelift_isle4sema6TermIdENCNvMs5_B2R_NtB2R_7TermEnv27collect_extractor_templatess0_0EE9from_iterB2T_, symObjAddr: 0x110C0, symBinAddr: 0x100031AB0, symSize: 0x1C0 }
  - { offset: 0x78D79, size: 0x8, addend: 0x0, symName: __RNvXs_NtNtCslJiobkLta79_5alloc3vec21spec_from_iter_nestedINtB6_3VecTNtNtCs4xvdaJ1JWuv_14cranelift_isle10trie_again9BindingIdNtNtB18_4sema6TypeIdEEINtB4_18SpecFromIterNestedB13_INtNtNtNtCsieiGu2EXtoJ_4core4iter8adapters3zip3ZipINtNtB2T_3map3MapINtNtNtB2X_5slice4iter4IterNtB20_4ExprENCINvMs1_B20_B4k_5visitNtB16_14RuleSetBuilderE0EINtNtB2T_6copied6CopiedIB3U_B1Y_EEEE9from_iterB18_, symObjAddr: 0x11280, symBinAddr: 0x100031C70, symSize: 0x1D0 }
  - { offset: 0x78E51, size: 0x8, addend: 0x0, symName: __RNvXs_NtNtCslJiobkLta79_5alloc3vec21spec_from_iter_nestedINtB6_3VechEINtB4_18SpecFromIterNestedhINtNtNtNtCsieiGu2EXtoJ_4core4iter8adapters3map3MapINtNtNtB1F_5slice4iter4IterhENCNvNtB8_3str13replace_ascii0EE9from_iterCs4xvdaJ1JWuv_14cranelift_isle, symObjAddr: 0x11450, symBinAddr: 0x100031E40, symSize: 0x1C0 }
  - { offset: 0x78F29, size: 0x8, addend: 0x0, symName: __RNvXs_NtNtCslJiobkLta79_5alloc3vec21spec_from_iter_nestedINtB6_3VecjEINtB4_18SpecFromIterNestedjINtNtNtCsieiGu2EXtoJ_4core3ops5range5RangejEE9from_iterCs4xvdaJ1JWuv_14cranelift_isle, symObjAddr: 0x11610, symBinAddr: 0x100032000, symSize: 0x1A0 }
  - { offset: 0x79008, size: 0x8, addend: 0x0, symName: __RNvXs7_NtCslJiobkLta79_5alloc3vecINtB5_3VecNtNtCs4xvdaJ1JWuv_14cranelift_isle10trie_again9BindingIdENtNtNtCsieiGu2EXtoJ_4core3ops5deref8DerefMut9deref_mutBJ_, symObjAddr: 0xEDA0, symBinAddr: 0x10002F790, symSize: 0x20 }
  - { offset: 0x79048, size: 0x8, addend: 0x0, symName: __RNvXs7_NtCslJiobkLta79_5alloc3vecINtB5_3VecNtNtCs4xvdaJ1JWuv_14cranelift_isle5error5ErrorENtNtNtCsieiGu2EXtoJ_4core3ops5deref8DerefMut9deref_mutBJ_, symObjAddr: 0xEDC0, symBinAddr: 0x10002F7B0, symSize: 0x20 }
  - { offset: 0x79088, size: 0x8, addend: 0x0, symName: __RNvXs7_NtCslJiobkLta79_5alloc3vecINtB5_3VecNtNtCs4xvdaJ1JWuv_14cranelift_isle9serialize14EqualCandidateENtNtNtCsieiGu2EXtoJ_4core3ops5deref8DerefMut9deref_mutBJ_, symObjAddr: 0xEDE0, symBinAddr: 0x10002F7D0, symSize: 0x20 }
  - { offset: 0x790C8, size: 0x8, addend: 0x0, symName: __RNvXs7_NtCslJiobkLta79_5alloc3vecINtB5_3VecTNtNtCs4xvdaJ1JWuv_14cranelift_isle4sema6TermIdNtNtBK_10trie_again7RuleSetEENtNtNtCsieiGu2EXtoJ_4core3ops5deref8DerefMut9deref_mutBK_, symObjAddr: 0xEE00, symBinAddr: 0x10002F7F0, symSize: 0x20 }
  - { offset: 0x79108, size: 0x8, addend: 0x0, symName: __RNvXs7_NtCslJiobkLta79_5alloc3vecINtB5_3VecjENtNtNtCsieiGu2EXtoJ_4core3ops5deref8DerefMut9deref_mutCs4xvdaJ1JWuv_14cranelift_isle, symObjAddr: 0xEE20, symBinAddr: 0x10002F810, symSize: 0x20 }
  - { offset: 0x791AE, size: 0x8, addend: 0x0, symName: __RNvXs9_NtCslJiobkLta79_5alloc3vecINtB5_3VecNtNtCs4xvdaJ1JWuv_14cranelift_isle3ast4ExprENtNtCsieiGu2EXtoJ_4core5clone5Clone5cloneBJ_, symObjAddr: 0xEF40, symBinAddr: 0x10002F930, symSize: 0x90 }
  - { offset: 0x7937F, size: 0x8, addend: 0x0, symName: __RNvXs9_NtCslJiobkLta79_5alloc3vecINtB5_3VecNtNtCs4xvdaJ1JWuv_14cranelift_isle3ast6LetDefENtNtCsieiGu2EXtoJ_4core5clone5Clone5cloneBJ_, symObjAddr: 0xEFD0, symBinAddr: 0x10002F9C0, symSize: 0x90 }
  - { offset: 0x79550, size: 0x8, addend: 0x0, symName: __RNvXs9_NtCslJiobkLta79_5alloc3vecINtB5_3VecNtNtCs4xvdaJ1JWuv_14cranelift_isle3ast7PatternENtNtCsieiGu2EXtoJ_4core5clone5Clone5cloneBJ_, symObjAddr: 0xF060, symBinAddr: 0x10002FA50, symSize: 0x90 }
  - { offset: 0x79721, size: 0x8, addend: 0x0, symName: __RNvXs9_NtCslJiobkLta79_5alloc3vecINtB5_3VecNtNtCs4xvdaJ1JWuv_14cranelift_isle4sema6TermIdENtNtCsieiGu2EXtoJ_4core5clone5Clone5cloneBJ_, symObjAddr: 0xF0F0, symBinAddr: 0x10002FAE0, symSize: 0x90 }
  - { offset: 0x798F2, size: 0x8, addend: 0x0, symName: __RNvXs9_NtCslJiobkLta79_5alloc3vecINtB5_3VecNtNtCs4xvdaJ1JWuv_14cranelift_isle4sema6TypeIdENtNtCsieiGu2EXtoJ_4core5clone5Clone5cloneBJ_, symObjAddr: 0xF180, symBinAddr: 0x10002FB70, symSize: 0x90 }
  - { offset: 0x79AC3, size: 0x8, addend: 0x0, symName: __RNvXs9_NtCslJiobkLta79_5alloc3vecINtB5_3VecNtNtCs4xvdaJ1JWuv_14cranelift_isle9serialize12BindingStateENtNtCsieiGu2EXtoJ_4core5clone5Clone5cloneBJ_, symObjAddr: 0xF210, symBinAddr: 0x10002FC00, symSize: 0x90 }
  - { offset: 0x79C94, size: 0x8, addend: 0x0, symName: __RNvXs9_NtCslJiobkLta79_5alloc3vecINtB5_3VecNtNtCs4xvdaJ1JWuv_14cranelift_isle9serialize14EqualCandidateENtNtCsieiGu2EXtoJ_4core5clone5Clone5cloneBJ_, symObjAddr: 0xF2A0, symBinAddr: 0x10002FC90, symSize: 0x90 }
  - { offset: 0x79E65, size: 0x8, addend: 0x0, symName: __RNvXs9_NtCslJiobkLta79_5alloc3vecINtB5_3VecNtNtCs4xvdaJ1JWuv_14cranelift_isle9serialize9CandidateENtNtCsieiGu2EXtoJ_4core5clone5Clone5cloneBJ_, symObjAddr: 0xF330, symBinAddr: 0x10002FD20, symSize: 0x90 }
  - { offset: 0x7A041, size: 0x8, addend: 0x0, symName: __RNvXs_NtNtCslJiobkLta79_5alloc3vec16in_place_collectINtB6_3VecINtNtCsieiGu2EXtoJ_4core6option6OptionNtNtCs4xvdaJ1JWuv_14cranelift_isle10trie_again9BindingIdEEINtNtB6_14spec_from_iter12SpecFromIterBY_INtNtNtNtB13_4iter8adapters3map3MapINtNtB6_9into_iter8IntoIterNtB1C_7BindingENCNvMs2_NtB1E_9serializeNtB4y_13Decomposition17make_control_flows1_0EE9from_iterB1E_, symObjAddr: 0xF700, symBinAddr: 0x1000300F0, symSize: 0x30 }
  - { offset: 0x7A09D, size: 0x8, addend: 0x0, symName: __RNvXs_NtNtCslJiobkLta79_5alloc3vec16in_place_collectINtB6_3VecNtNtCs4xvdaJ1JWuv_14cranelift_isle10trie_again9BindingIdEINtNtB6_14spec_from_iter12SpecFromIterBY_INtNtNtNtCsieiGu2EXtoJ_4core4iter8adapters3map3MapINtNtB6_9into_iter8IntoIterNtB10_7BindingENCNvMs6_B10_NtB10_14RuleSetBuilder14set_constraint0EE9from_iterB12_, symObjAddr: 0xF730, symBinAddr: 0x100030120, symSize: 0x30 }
  - { offset: 0x7A0F9, size: 0x8, addend: 0x0, symName: __RNvXs_NtNtCslJiobkLta79_5alloc3vec16in_place_collectINtB6_3VecNtNtCs4xvdaJ1JWuv_14cranelift_isle10trie_again9BindingIdEINtNtB6_14spec_from_iter12SpecFromIterBY_INtNtNtNtCsieiGu2EXtoJ_4core4iter8adapters3map3MapINtNtB6_9into_iter8IntoIterTBY_NtNtB12_4sema6TypeIdEENCNvXs8_B10_NtB10_14RuleSetBuilderNtB3T_11ExprVisitor13add_construct0EE9from_iterB12_, symObjAddr: 0xF760, symBinAddr: 0x100030150, symSize: 0x30 }
  - { offset: 0x7A155, size: 0x8, addend: 0x0, symName: __RNvXs_NtNtCslJiobkLta79_5alloc3vec16in_place_collectINtB6_3VecNtNtCs4xvdaJ1JWuv_14cranelift_isle10trie_again9BindingIdEINtNtB6_14spec_from_iter12SpecFromIterBY_INtNtNtNtCsieiGu2EXtoJ_4core4iter8adapters3map3MapINtNtB6_9into_iter8IntoIterTBY_NtNtB12_4sema6TypeIdEENCNvXs8_B10_NtB10_14RuleSetBuilderNtB3T_11ExprVisitor18add_create_variant0EE9from_iterB12_, symObjAddr: 0xF790, symBinAddr: 0x100030180, symSize: 0x30 }
  - { offset: 0x7A1B1, size: 0x8, addend: 0x0, symName: __RNvXs_NtNtCslJiobkLta79_5alloc3vec16in_place_collectINtB6_3VecNtNtCs4xvdaJ1JWuv_14cranelift_isle5error4SpanEINtNtB6_14spec_from_iter12SpecFromIterBY_INtNtNtNtCsieiGu2EXtoJ_4core4iter8adapters3map3MapINtNtB6_9into_iter8IntoIterNtNtB12_5lexer3PosENvMs1_B10_BY_10new_singleEE9from_iterB12_, symObjAddr: 0xF7C0, symBinAddr: 0x1000301B0, symSize: 0x30 }
  - { offset: 0x7A214, size: 0x8, addend: 0x0, symName: __RNvXsc_NtCslJiobkLta79_5alloc3vecINtB5_3VecNtNtCs4xvdaJ1JWuv_14cranelift_isle4sema4TermEINtNtNtCsieiGu2EXtoJ_4core3ops5index8IndexMutjE9index_mutBJ_, symObjAddr: 0x11F50, symBinAddr: 0x100032940, symSize: 0x80 }
  - { offset: 0x7A368, size: 0x8, addend: 0x0, symName: __RNvXsc_NtCslJiobkLta79_5alloc3vecINtB5_3VecNtNtCs4xvdaJ1JWuv_14cranelift_isle9serialize12BindingStateEINtNtNtCsieiGu2EXtoJ_4core3ops5index8IndexMutjE9index_mutBJ_, symObjAddr: 0x11FD0, symBinAddr: 0x1000329C0, symSize: 0x70 }
  - { offset: 0x7A4C2, size: 0x8, addend: 0x0, symName: __RNvXse_NtCslJiobkLta79_5alloc3vecINtB5_3VecINtNtNtCs4xvdaJ1JWuv_14cranelift_isle5error10diagnostic10DiagnosticjEENtNtNtNtCsieiGu2EXtoJ_4core4iter6traits7collect12IntoIterator9into_iterBM_, symObjAddr: 0x12040, symBinAddr: 0x100032A30, symSize: 0x140 }
  - { offset: 0x7A752, size: 0x8, addend: 0x0, symName: __RNvXse_NtCslJiobkLta79_5alloc3vecINtB5_3VecINtNtNtCs4xvdaJ1JWuv_14cranelift_isle5error10diagnostic5LabeljEENtNtNtNtCsieiGu2EXtoJ_4core4iter6traits7collect12IntoIterator9into_iterBM_, symObjAddr: 0x12180, symBinAddr: 0x100032B70, symSize: 0x140 }
  - { offset: 0x7A9E2, size: 0x8, addend: 0x0, symName: __RNvXse_NtCslJiobkLta79_5alloc3vecINtB5_3VecNtNtB7_6string6StringENtNtNtNtCsieiGu2EXtoJ_4core4iter6traits7collect12IntoIterator9into_iterCs4xvdaJ1JWuv_14cranelift_isle, symObjAddr: 0x122C0, symBinAddr: 0x100032CB0, symSize: 0x140 }
  - { offset: 0x7AC72, size: 0x8, addend: 0x0, symName: __RNvXse_NtCslJiobkLta79_5alloc3vecINtB5_3VecNtNtCs4xvdaJ1JWuv_14cranelift_isle10trie_again7BindingENtNtNtNtCsieiGu2EXtoJ_4core4iter6traits7collect12IntoIterator9into_iterBJ_, symObjAddr: 0x12400, symBinAddr: 0x100032DF0, symSize: 0x140 }
  - { offset: 0x7AF02, size: 0x8, addend: 0x0, symName: __RNvXse_NtCslJiobkLta79_5alloc3vecINtB5_3VecNtNtCs4xvdaJ1JWuv_14cranelift_isle10trie_again9BindingIdENtNtNtNtCsieiGu2EXtoJ_4core4iter6traits7collect12IntoIterator9into_iterBJ_, symObjAddr: 0x12540, symBinAddr: 0x100032F30, symSize: 0x140 }
  - { offset: 0x7B192, size: 0x8, addend: 0x0, symName: __RNvXse_NtCslJiobkLta79_5alloc3vecINtB5_3VecNtNtCs4xvdaJ1JWuv_14cranelift_isle5lexer3PosENtNtNtNtCsieiGu2EXtoJ_4core4iter6traits7collect12IntoIterator9into_iterBJ_, symObjAddr: 0x12680, symBinAddr: 0x100033070, symSize: 0x140 }
  - { offset: 0x7B422, size: 0x8, addend: 0x0, symName: __RNvXse_NtCslJiobkLta79_5alloc3vecINtB5_3VecTNtNtCs4xvdaJ1JWuv_14cranelift_isle10trie_again9BindingIdNtNtBK_4sema6TypeIdEENtNtNtNtCsieiGu2EXtoJ_4core4iter6traits7collect12IntoIterator9into_iterBK_, symObjAddr: 0x12900, symBinAddr: 0x1000331B0, symSize: 0x140 }
  - { offset: 0x7B6B8, size: 0x8, addend: 0x0, symName: __RNvXsf_NtCslJiobkLta79_5alloc3vecRINtB5_3VecNtNtB7_6string6StringENtNtNtNtCsieiGu2EXtoJ_4core4iter6traits7collect12IntoIterator9into_iterCs4xvdaJ1JWuv_14cranelift_isle, symObjAddr: 0x12A40, symBinAddr: 0x1000332F0, symSize: 0x80 }
  - { offset: 0x7B8E5, size: 0x8, addend: 0x0, symName: __RNvXsf_NtCslJiobkLta79_5alloc3vecRINtB5_3VecNtNtCs4xvdaJ1JWuv_14cranelift_isle3ast4ExprENtNtNtNtCsieiGu2EXtoJ_4core4iter6traits7collect12IntoIterator9into_iterBK_, symObjAddr: 0x12AC0, symBinAddr: 0x100033370, symSize: 0x80 }
  - { offset: 0x7BB12, size: 0x8, addend: 0x0, symName: __RNvXsf_NtCslJiobkLta79_5alloc3vecRINtB5_3VecNtNtCs4xvdaJ1JWuv_14cranelift_isle3ast5FieldENtNtNtNtCsieiGu2EXtoJ_4core4iter6traits7collect12IntoIterator9into_iterBK_, symObjAddr: 0x12B40, symBinAddr: 0x1000333F0, symSize: 0x80 }
  - { offset: 0x7BD3F, size: 0x8, addend: 0x0, symName: __RNvXsf_NtCslJiobkLta79_5alloc3vecRINtB5_3VecNtNtCs4xvdaJ1JWuv_14cranelift_isle3ast6LetDefENtNtNtNtCsieiGu2EXtoJ_4core4iter6traits7collect12IntoIterator9into_iterBK_, symObjAddr: 0x12BC0, symBinAddr: 0x100033470, symSize: 0x80 }
  - { offset: 0x7BF6C, size: 0x8, addend: 0x0, symName: __RNvXsf_NtCslJiobkLta79_5alloc3vecRINtB5_3VecNtNtCs4xvdaJ1JWuv_14cranelift_isle3ast7PatternENtNtNtNtCsieiGu2EXtoJ_4core4iter6traits7collect12IntoIterator9into_iterBK_, symObjAddr: 0x12C40, symBinAddr: 0x1000334F0, symSize: 0x80 }
  - { offset: 0x7C199, size: 0x8, addend: 0x0, symName: __RNvXsf_NtCslJiobkLta79_5alloc3vecRINtB5_3VecNtNtCs4xvdaJ1JWuv_14cranelift_isle3ast7VariantENtNtNtNtCsieiGu2EXtoJ_4core4iter6traits7collect12IntoIterator9into_iterBK_, symObjAddr: 0x12CC0, symBinAddr: 0x100033570, symSize: 0x80 }
  - { offset: 0x7C3C6, size: 0x8, addend: 0x0, symName: __RNvXsf_NtCslJiobkLta79_5alloc3vecRINtB5_3VecNtNtCs4xvdaJ1JWuv_14cranelift_isle4sema4TermENtNtNtNtCsieiGu2EXtoJ_4core4iter6traits7collect12IntoIterator9into_iterBK_, symObjAddr: 0x12D40, symBinAddr: 0x1000335F0, symSize: 0x80 }
  - { offset: 0x7C5F3, size: 0x8, addend: 0x0, symName: __RNvXsf_NtCslJiobkLta79_5alloc3vecRINtB5_3VecNtNtCs4xvdaJ1JWuv_14cranelift_isle4sema4TypeENtNtNtNtCsieiGu2EXtoJ_4core4iter6traits7collect12IntoIterator9into_iterBK_, symObjAddr: 0x12DC0, symBinAddr: 0x100033670, symSize: 0x80 }
  - { offset: 0x7C820, size: 0x8, addend: 0x0, symName: __RNvXsf_NtCslJiobkLta79_5alloc3vecRINtB5_3VecNtNtCs4xvdaJ1JWuv_14cranelift_isle4sema5FieldENtNtNtNtCsieiGu2EXtoJ_4core4iter6traits7collect12IntoIterator9into_iterBK_, symObjAddr: 0x12E40, symBinAddr: 0x1000336F0, symSize: 0x80 }
  - { offset: 0x7CA4D, size: 0x8, addend: 0x0, symName: __RNvXsf_NtCslJiobkLta79_5alloc3vecRINtB5_3VecNtNtCs4xvdaJ1JWuv_14cranelift_isle4sema7PatternENtNtNtNtCsieiGu2EXtoJ_4core4iter6traits7collect12IntoIterator9into_iterBK_, symObjAddr: 0x12EC0, symBinAddr: 0x100033770, symSize: 0x80 }
  - { offset: 0x7CC7A, size: 0x8, addend: 0x0, symName: __RNvXsf_NtCslJiobkLta79_5alloc3vecRINtB5_3VecNtNtCs4xvdaJ1JWuv_14cranelift_isle4sema7VariantENtNtNtNtCsieiGu2EXtoJ_4core4iter6traits7collect12IntoIterator9into_iterBK_, symObjAddr: 0x12F40, symBinAddr: 0x1000337F0, symSize: 0x80 }
  - { offset: 0x7CEA7, size: 0x8, addend: 0x0, symName: __RNvXsf_NtCslJiobkLta79_5alloc3vecRINtB5_3VecTNtNtCs4xvdaJ1JWuv_14cranelift_isle4sema5VarIdNtBJ_6TypeIdINtNtB7_5boxed3BoxNtBJ_4ExprEEENtNtNtNtCsieiGu2EXtoJ_4core4iter6traits7collect12IntoIterator9into_iterBL_, symObjAddr: 0x12FC0, symBinAddr: 0x100033870, symSize: 0x80 }
  - { offset: 0x7D0DA, size: 0x8, addend: 0x0, symName: __RNvXsn_NtCslJiobkLta79_5alloc3vecINtB5_3VecINtNtCsieiGu2EXtoJ_4core6option6OptionNtNtCs4xvdaJ1JWuv_14cranelift_isle10trie_again9BindingIdEENtNtNtBK_3ops4drop4Drop4dropB1l_, symObjAddr: 0x13040, symBinAddr: 0x1000338F0, symSize: 0x20 }
  - { offset: 0x7D18A, size: 0x8, addend: 0x0, symName: __RNvXsn_NtCslJiobkLta79_5alloc3vecINtB5_3VecINtNtNtCs4xvdaJ1JWuv_14cranelift_isle5error10diagnostic10DiagnosticjEENtNtNtCsieiGu2EXtoJ_4core3ops4drop4Drop4dropBM_, symObjAddr: 0x13060, symBinAddr: 0x100033910, symSize: 0x30 }
  - { offset: 0x7D23A, size: 0x8, addend: 0x0, symName: __RNvXsn_NtCslJiobkLta79_5alloc3vecINtB5_3VecINtNtNtCs4xvdaJ1JWuv_14cranelift_isle5error10diagnostic5LabeljEENtNtNtCsieiGu2EXtoJ_4core3ops4drop4Drop4dropBM_, symObjAddr: 0x13090, symBinAddr: 0x100033940, symSize: 0x20 }
  - { offset: 0x7D2EA, size: 0x8, addend: 0x0, symName: __RNvXsn_NtCslJiobkLta79_5alloc3vecINtB5_3VecNtNtB7_6string6StringENtNtNtCsieiGu2EXtoJ_4core3ops4drop4Drop4dropCs4xvdaJ1JWuv_14cranelift_isle, symObjAddr: 0x130B0, symBinAddr: 0x100033960, symSize: 0x30 }
  - { offset: 0x7D39A, size: 0x8, addend: 0x0, symName: __RNvXsn_NtCslJiobkLta79_5alloc3vecINtB5_3VecNtNtCs4xvdaJ1JWuv_14cranelift_isle10trie_again16UnreachableErrorENtNtNtCsieiGu2EXtoJ_4core3ops4drop4Drop4dropBJ_, symObjAddr: 0x130E0, symBinAddr: 0x100033990, symSize: 0x20 }
  - { offset: 0x7D44A, size: 0x8, addend: 0x0, symName: __RNvXsn_NtCslJiobkLta79_5alloc3vecINtB5_3VecNtNtCs4xvdaJ1JWuv_14cranelift_isle10trie_again4RuleENtNtNtCsieiGu2EXtoJ_4core3ops4drop4Drop4dropBJ_, symObjAddr: 0x13100, symBinAddr: 0x1000339B0, symSize: 0x30 }
  - { offset: 0x7D4FA, size: 0x8, addend: 0x0, symName: __RNvXsn_NtCslJiobkLta79_5alloc3vecINtB5_3VecNtNtCs4xvdaJ1JWuv_14cranelift_isle10trie_again7BindingENtNtNtCsieiGu2EXtoJ_4core3ops4drop4Drop4dropBJ_, symObjAddr: 0x13130, symBinAddr: 0x1000339E0, symSize: 0x30 }
  - { offset: 0x7D5AA, size: 0x8, addend: 0x0, symName: __RNvXsn_NtCslJiobkLta79_5alloc3vecINtB5_3VecNtNtCs4xvdaJ1JWuv_14cranelift_isle10trie_again9BindingIdENtNtNtCsieiGu2EXtoJ_4core3ops4drop4Drop4dropBJ_, symObjAddr: 0x13160, symBinAddr: 0x100033A10, symSize: 0x20 }
  - { offset: 0x7D65A, size: 0x8, addend: 0x0, symName: __RNvXsn_NtCslJiobkLta79_5alloc3vecINtB5_3VecNtNtCs4xvdaJ1JWuv_14cranelift_isle3ast3DefENtNtNtCsieiGu2EXtoJ_4core3ops4drop4Drop4dropBJ_, symObjAddr: 0x13180, symBinAddr: 0x100033A30, symSize: 0x30 }
  - { offset: 0x7D70A, size: 0x8, addend: 0x0, symName: __RNvXsn_NtCslJiobkLta79_5alloc3vecINtB5_3VecNtNtCs4xvdaJ1JWuv_14cranelift_isle3ast4ExprENtNtNtCsieiGu2EXtoJ_4core3ops4drop4Drop4dropBJ_, symObjAddr: 0x131B0, symBinAddr: 0x100033A60, symSize: 0x30 }
  - { offset: 0x7D7BA, size: 0x8, addend: 0x0, symName: __RNvXsn_NtCslJiobkLta79_5alloc3vecINtB5_3VecNtNtCs4xvdaJ1JWuv_14cranelift_isle3ast5FieldENtNtNtCsieiGu2EXtoJ_4core3ops4drop4Drop4dropBJ_, symObjAddr: 0x131E0, symBinAddr: 0x100033A90, symSize: 0x30 }
  - { offset: 0x7D86A, size: 0x8, addend: 0x0, symName: __RNvXsn_NtCslJiobkLta79_5alloc3vecINtB5_3VecNtNtCs4xvdaJ1JWuv_14cranelift_isle3ast5IdentENtNtNtCsieiGu2EXtoJ_4core3ops4drop4Drop4dropBJ_, symObjAddr: 0x13210, symBinAddr: 0x100033AC0, symSize: 0x30 }
  - { offset: 0x7D91A, size: 0x8, addend: 0x0, symName: __RNvXsn_NtCslJiobkLta79_5alloc3vecINtB5_3VecNtNtCs4xvdaJ1JWuv_14cranelift_isle3ast5IfLetENtNtNtCsieiGu2EXtoJ_4core3ops4drop4Drop4dropBJ_, symObjAddr: 0x13240, symBinAddr: 0x100033AF0, symSize: 0x30 }
  - { offset: 0x7D9CA, size: 0x8, addend: 0x0, symName: __RNvXsn_NtCslJiobkLta79_5alloc3vecINtB5_3VecNtNtCs4xvdaJ1JWuv_14cranelift_isle3ast6LetDefENtNtNtCsieiGu2EXtoJ_4core3ops4drop4Drop4dropBJ_, symObjAddr: 0x13270, symBinAddr: 0x100033B20, symSize: 0x30 }
  - { offset: 0x7DA7A, size: 0x8, addend: 0x0, symName: __RNvXsn_NtCslJiobkLta79_5alloc3vecINtB5_3VecNtNtCs4xvdaJ1JWuv_14cranelift_isle3ast7PatternENtNtNtCsieiGu2EXtoJ_4core3ops4drop4Drop4dropBJ_, symObjAddr: 0x132A0, symBinAddr: 0x100033B50, symSize: 0x30 }
  - { offset: 0x7DB2A, size: 0x8, addend: 0x0, symName: __RNvXsn_NtCslJiobkLta79_5alloc3vecINtB5_3VecNtNtCs4xvdaJ1JWuv_14cranelift_isle3ast7VariantENtNtNtCsieiGu2EXtoJ_4core3ops4drop4Drop4dropBJ_, symObjAddr: 0x132D0, symBinAddr: 0x100033B80, symSize: 0x30 }
  - { offset: 0x7DBDA, size: 0x8, addend: 0x0, symName: __RNvXsn_NtCslJiobkLta79_5alloc3vecINtB5_3VecNtNtCs4xvdaJ1JWuv_14cranelift_isle3ast8SpecExprENtNtNtCsieiGu2EXtoJ_4core3ops4drop4Drop4dropBJ_, symObjAddr: 0x13300, symBinAddr: 0x100033BB0, symSize: 0x30 }
  - { offset: 0x7DC8A, size: 0x8, addend: 0x0, symName: __RNvXsn_NtCslJiobkLta79_5alloc3vecINtB5_3VecNtNtCs4xvdaJ1JWuv_14cranelift_isle3ast9ModelTypeENtNtNtCsieiGu2EXtoJ_4core3ops4drop4Drop4dropBJ_, symObjAddr: 0x13330, symBinAddr: 0x100033BE0, symSize: 0x20 }
  - { offset: 0x7DD3A, size: 0x8, addend: 0x0, symName: __RNvXsn_NtCslJiobkLta79_5alloc3vecINtB5_3VecNtNtCs4xvdaJ1JWuv_14cranelift_isle3ast9SignatureENtNtNtCsieiGu2EXtoJ_4core3ops4drop4Drop4dropBJ_, symObjAddr: 0x13350, symBinAddr: 0x100033C00, symSize: 0x30 }
  - { offset: 0x7DDEA, size: 0x8, addend: 0x0, symName: __RNvXsn_NtCslJiobkLta79_5alloc3vecINtB5_3VecNtNtCs4xvdaJ1JWuv_14cranelift_isle4sema4ExprENtNtNtCsieiGu2EXtoJ_4core3ops4drop4Drop4dropBJ_, symObjAddr: 0x13380, symBinAddr: 0x100033C30, symSize: 0x30 }
  - { offset: 0x7DE9A, size: 0x8, addend: 0x0, symName: __RNvXsn_NtCslJiobkLta79_5alloc3vecINtB5_3VecNtNtCs4xvdaJ1JWuv_14cranelift_isle4sema4RuleENtNtNtCsieiGu2EXtoJ_4core3ops4drop4Drop4dropBJ_, symObjAddr: 0x133B0, symBinAddr: 0x100033C60, symSize: 0x30 }
  - { offset: 0x7DF4A, size: 0x8, addend: 0x0, symName: __RNvXsn_NtCslJiobkLta79_5alloc3vecINtB5_3VecNtNtCs4xvdaJ1JWuv_14cranelift_isle4sema4TermENtNtNtCsieiGu2EXtoJ_4core3ops4drop4Drop4dropBJ_, symObjAddr: 0x133E0, symBinAddr: 0x100033C90, symSize: 0x30 }
  - { offset: 0x7DFFA, size: 0x8, addend: 0x0, symName: __RNvXsn_NtCslJiobkLta79_5alloc3vecINtB5_3VecNtNtCs4xvdaJ1JWuv_14cranelift_isle4sema4TypeENtNtNtCsieiGu2EXtoJ_4core3ops4drop4Drop4dropBJ_, symObjAddr: 0x13410, symBinAddr: 0x100033CC0, symSize: 0x30 }
  - { offset: 0x7E0AA, size: 0x8, addend: 0x0, symName: __RNvXsn_NtCslJiobkLta79_5alloc3vecINtB5_3VecNtNtCs4xvdaJ1JWuv_14cranelift_isle4sema5FieldENtNtNtCsieiGu2EXtoJ_4core3ops4drop4Drop4dropBJ_, symObjAddr: 0x13440, symBinAddr: 0x100033CF0, symSize: 0x20 }
  - { offset: 0x7E15A, size: 0x8, addend: 0x0, symName: __RNvXsn_NtCslJiobkLta79_5alloc3vecINtB5_3VecNtNtCs4xvdaJ1JWuv_14cranelift_isle4sema5IfLetENtNtNtCsieiGu2EXtoJ_4core3ops4drop4Drop4dropBJ_, symObjAddr: 0x13460, symBinAddr: 0x100033D10, symSize: 0x30 }
  - { offset: 0x7E20A, size: 0x8, addend: 0x0, symName: __RNvXsn_NtCslJiobkLta79_5alloc3vecINtB5_3VecNtNtCs4xvdaJ1JWuv_14cranelift_isle4sema6TermIdENtNtNtCsieiGu2EXtoJ_4core3ops4drop4Drop4dropBJ_, symObjAddr: 0x13490, symBinAddr: 0x100033D40, symSize: 0x20 }
  - { offset: 0x7E2BA, size: 0x8, addend: 0x0, symName: __RNvXsn_NtCslJiobkLta79_5alloc3vecINtB5_3VecNtNtCs4xvdaJ1JWuv_14cranelift_isle4sema6TypeIdENtNtNtCsieiGu2EXtoJ_4core3ops4drop4Drop4dropBJ_, symObjAddr: 0x134B0, symBinAddr: 0x100033D60, symSize: 0x20 }
  - { offset: 0x7E36A, size: 0x8, addend: 0x0, symName: __RNvXsn_NtCslJiobkLta79_5alloc3vecINtB5_3VecNtNtCs4xvdaJ1JWuv_14cranelift_isle4sema7PatternENtNtNtCsieiGu2EXtoJ_4core3ops4drop4Drop4dropBJ_, symObjAddr: 0x134D0, symBinAddr: 0x100033D80, symSize: 0x30 }
  - { offset: 0x7E41A, size: 0x8, addend: 0x0, symName: __RNvXsn_NtCslJiobkLta79_5alloc3vecINtB5_3VecNtNtCs4xvdaJ1JWuv_14cranelift_isle4sema7VariantENtNtNtCsieiGu2EXtoJ_4core3ops4drop4Drop4dropBJ_, symObjAddr: 0x13500, symBinAddr: 0x100033DB0, symSize: 0x30 }
  - { offset: 0x7E4CA, size: 0x8, addend: 0x0, symName: __RNvXsn_NtCslJiobkLta79_5alloc3vecINtB5_3VecNtNtCs4xvdaJ1JWuv_14cranelift_isle4sema8BoundVarENtNtNtCsieiGu2EXtoJ_4core3ops4drop4Drop4dropBJ_, symObjAddr: 0x13530, symBinAddr: 0x100033DE0, symSize: 0x20 }
  - { offset: 0x7E57A, size: 0x8, addend: 0x0, symName: __RNvXsn_NtCslJiobkLta79_5alloc3vecINtB5_3VecNtNtCs4xvdaJ1JWuv_14cranelift_isle5error4SpanENtNtNtCsieiGu2EXtoJ_4core3ops4drop4Drop4dropBJ_, symObjAddr: 0x13550, symBinAddr: 0x100033E00, symSize: 0x20 }
  - { offset: 0x7E62A, size: 0x8, addend: 0x0, symName: __RNvXsn_NtCslJiobkLta79_5alloc3vecINtB5_3VecNtNtCs4xvdaJ1JWuv_14cranelift_isle5error5ErrorENtNtNtCsieiGu2EXtoJ_4core3ops4drop4Drop4dropBJ_, symObjAddr: 0x13570, symBinAddr: 0x100033E20, symSize: 0x30 }
  - { offset: 0x7E6DA, size: 0x8, addend: 0x0, symName: __RNvXsn_NtCslJiobkLta79_5alloc3vecINtB5_3VecNtNtCs4xvdaJ1JWuv_14cranelift_isle5files7LineMapENtNtNtCsieiGu2EXtoJ_4core3ops4drop4Drop4dropBJ_, symObjAddr: 0x135A0, symBinAddr: 0x100033E50, symSize: 0x30 }
  - { offset: 0x7E78A, size: 0x8, addend: 0x0, symName: __RNvXsn_NtCslJiobkLta79_5alloc3vecINtB5_3VecNtNtCs4xvdaJ1JWuv_14cranelift_isle5lexer3PosENtNtNtCsieiGu2EXtoJ_4core3ops4drop4Drop4dropBJ_, symObjAddr: 0x135D0, symBinAddr: 0x100033E80, symSize: 0x20 }
  - { offset: 0x7E83A, size: 0x8, addend: 0x0, symName: __RNvXsn_NtCslJiobkLta79_5alloc3vecINtB5_3VecNtNtCs4xvdaJ1JWuv_14cranelift_isle9serialize12BindingStateENtNtNtCsieiGu2EXtoJ_4core3ops4drop4Drop4dropBJ_, symObjAddr: 0x135F0, symBinAddr: 0x100033EA0, symSize: 0x20 }
  - { offset: 0x7E8EA, size: 0x8, addend: 0x0, symName: __RNvXsn_NtCslJiobkLta79_5alloc3vecINtB5_3VecNtNtCs4xvdaJ1JWuv_14cranelift_isle9serialize14EqualCandidateENtNtNtCsieiGu2EXtoJ_4core3ops4drop4Drop4dropBJ_, symObjAddr: 0x13610, symBinAddr: 0x100033EC0, symSize: 0x20 }
  - { offset: 0x7E99A, size: 0x8, addend: 0x0, symName: __RNvXsn_NtCslJiobkLta79_5alloc3vecINtB5_3VecNtNtCs4xvdaJ1JWuv_14cranelift_isle9serialize8EvalStepENtNtNtCsieiGu2EXtoJ_4core3ops4drop4Drop4dropBJ_, symObjAddr: 0x13630, symBinAddr: 0x100033EE0, symSize: 0x30 }
  - { offset: 0x7EA4A, size: 0x8, addend: 0x0, symName: __RNvXsn_NtCslJiobkLta79_5alloc3vecINtB5_3VecNtNtCs4xvdaJ1JWuv_14cranelift_isle9serialize8MatchArmENtNtNtCsieiGu2EXtoJ_4core3ops4drop4Drop4dropBJ_, symObjAddr: 0x13660, symBinAddr: 0x100033F10, symSize: 0x30 }
  - { offset: 0x7EAFA, size: 0x8, addend: 0x0, symName: __RNvXsn_NtCslJiobkLta79_5alloc3vecINtB5_3VecNtNtCs4xvdaJ1JWuv_14cranelift_isle9serialize9CandidateENtNtNtCsieiGu2EXtoJ_4core3ops4drop4Drop4dropBJ_, symObjAddr: 0x13690, symBinAddr: 0x100033F40, symSize: 0x20 }
  - { offset: 0x7EBAA, size: 0x8, addend: 0x0, symName: __RNvXsn_NtCslJiobkLta79_5alloc3vecINtB5_3VecReENtNtNtCsieiGu2EXtoJ_4core3ops4drop4Drop4dropCs4xvdaJ1JWuv_14cranelift_isle, symObjAddr: 0x136E0, symBinAddr: 0x100033F60, symSize: 0x20 }
  - { offset: 0x7EC5A, size: 0x8, addend: 0x0, symName: __RNvXsn_NtCslJiobkLta79_5alloc3vecINtB5_3VecTNtNtCs4xvdaJ1JWuv_14cranelift_isle10trie_again9BindingIdNtBI_10ConstraintEENtNtNtCsieiGu2EXtoJ_4core3ops4drop4Drop4dropBK_, symObjAddr: 0x13700, symBinAddr: 0x100033F80, symSize: 0x20 }
  - { offset: 0x7ED0A, size: 0x8, addend: 0x0, symName: __RNvXsn_NtCslJiobkLta79_5alloc3vecINtB5_3VecTNtNtCs4xvdaJ1JWuv_14cranelift_isle10trie_again9BindingIdNtNtBK_4sema6TypeIdEENtNtNtCsieiGu2EXtoJ_4core3ops4drop4Drop4dropBK_, symObjAddr: 0x13720, symBinAddr: 0x100033FA0, symSize: 0x20 }
  - { offset: 0x7EDBA, size: 0x8, addend: 0x0, symName: __RNvXsn_NtCslJiobkLta79_5alloc3vecINtB5_3VecTNtNtCs4xvdaJ1JWuv_14cranelift_isle3ast5IdentNtBI_8SpecExprEENtNtNtCsieiGu2EXtoJ_4core3ops4drop4Drop4dropBK_, symObjAddr: 0x13740, symBinAddr: 0x100033FC0, symSize: 0x30 }
  - { offset: 0x7EE6A, size: 0x8, addend: 0x0, symName: __RNvXsn_NtCslJiobkLta79_5alloc3vecINtB5_3VecTNtNtCs4xvdaJ1JWuv_14cranelift_isle4sema5VarIdNtBI_6TypeIdINtNtB7_5boxed3BoxNtBI_4ExprEEENtNtNtCsieiGu2EXtoJ_4core3ops4drop4Drop4dropBK_, symObjAddr: 0x13770, symBinAddr: 0x100033FF0, symSize: 0x30 }
  - { offset: 0x7EF1A, size: 0x8, addend: 0x0, symName: __RNvXsn_NtCslJiobkLta79_5alloc3vecINtB5_3VecTNtNtCs4xvdaJ1JWuv_14cranelift_isle4sema6TermIdIBw_BG_EINtNtBK_12stablemapset9StableSetBG_EEENtNtNtCsieiGu2EXtoJ_4core3ops4drop4Drop4dropBK_, symObjAddr: 0x137A0, symBinAddr: 0x100034020, symSize: 0x30 }
  - { offset: 0x7EFCA, size: 0x8, addend: 0x0, symName: __RNvXsn_NtCslJiobkLta79_5alloc3vecINtB5_3VecTNtNtCs4xvdaJ1JWuv_14cranelift_isle4sema6TermIdNtNtBK_10trie_again7RuleSetEENtNtNtCsieiGu2EXtoJ_4core3ops4drop4Drop4dropBK_, symObjAddr: 0x137D0, symBinAddr: 0x100034050, symSize: 0x30 }
  - { offset: 0x7F07A, size: 0x8, addend: 0x0, symName: __RNvXsn_NtCslJiobkLta79_5alloc3vecINtB5_3VecTNtNtCs4xvdaJ1JWuv_14cranelift_isle7codegen6NestedReINtNtBK_12stablemapset9StableSetNtNtBK_10trie_again9BindingIdEEENtNtNtCsieiGu2EXtoJ_4core3ops4drop4Drop4dropBK_, symObjAddr: 0x13800, symBinAddr: 0x100034080, symSize: 0x30 }
  - { offset: 0x7F12A, size: 0x8, addend: 0x0, symName: __RNvXsn_NtCslJiobkLta79_5alloc3vecINtB5_3VecjENtNtNtCsieiGu2EXtoJ_4core3ops4drop4Drop4dropCs4xvdaJ1JWuv_14cranelift_isle, symObjAddr: 0x13830, symBinAddr: 0x1000340B0, symSize: 0x20 }
  - { offset: 0x7F1E0, size: 0x8, addend: 0x0, symName: __RNvXso_NtCslJiobkLta79_5alloc3vecINtB5_3VecNtNtB7_6string6StringENtNtCsieiGu2EXtoJ_4core7default7Default7defaultCs4xvdaJ1JWuv_14cranelift_isle, symObjAddr: 0x13850, symBinAddr: 0x1000340D0, symSize: 0x30 }
  - { offset: 0x7F21D, size: 0x8, addend: 0x0, symName: __RNvXso_NtCslJiobkLta79_5alloc3vecINtB5_3VecNtNtCs4xvdaJ1JWuv_14cranelift_isle10trie_again16UnreachableErrorENtNtCsieiGu2EXtoJ_4core7default7Default7defaultBJ_, symObjAddr: 0x13880, symBinAddr: 0x100034100, symSize: 0x30 }
  - { offset: 0x7F25A, size: 0x8, addend: 0x0, symName: __RNvXso_NtCslJiobkLta79_5alloc3vecINtB5_3VecNtNtCs4xvdaJ1JWuv_14cranelift_isle10trie_again4RuleENtNtCsieiGu2EXtoJ_4core7default7Default7defaultBJ_, symObjAddr: 0x138B0, symBinAddr: 0x100034130, symSize: 0x30 }
  - { offset: 0x7F297, size: 0x8, addend: 0x0, symName: __RNvXso_NtCslJiobkLta79_5alloc3vecINtB5_3VecNtNtCs4xvdaJ1JWuv_14cranelift_isle10trie_again7BindingENtNtCsieiGu2EXtoJ_4core7default7Default7defaultBJ_, symObjAddr: 0x138E0, symBinAddr: 0x100034160, symSize: 0x30 }
  - { offset: 0x7F2D4, size: 0x8, addend: 0x0, symName: __RNvXso_NtCslJiobkLta79_5alloc3vecINtB5_3VecNtNtCs4xvdaJ1JWuv_14cranelift_isle10trie_again9BindingIdENtNtCsieiGu2EXtoJ_4core7default7Default7defaultBJ_, symObjAddr: 0x13910, symBinAddr: 0x100034190, symSize: 0x30 }
  - { offset: 0x7F311, size: 0x8, addend: 0x0, symName: __RNvXso_NtCslJiobkLta79_5alloc3vecINtB5_3VecNtNtCs4xvdaJ1JWuv_14cranelift_isle4sema8BoundVarENtNtCsieiGu2EXtoJ_4core7default7Default7defaultBJ_, symObjAddr: 0x13940, symBinAddr: 0x1000341C0, symSize: 0x30 }
  - { offset: 0x7F34E, size: 0x8, addend: 0x0, symName: __RNvXso_NtCslJiobkLta79_5alloc3vecINtB5_3VecNtNtCs4xvdaJ1JWuv_14cranelift_isle5error5ErrorENtNtCsieiGu2EXtoJ_4core7default7Default7defaultBJ_, symObjAddr: 0x13970, symBinAddr: 0x1000341F0, symSize: 0x30 }
  - { offset: 0x7F38B, size: 0x8, addend: 0x0, symName: __RNvXso_NtCslJiobkLta79_5alloc3vecINtB5_3VecNtNtCs4xvdaJ1JWuv_14cranelift_isle5files7LineMapENtNtCsieiGu2EXtoJ_4core7default7Default7defaultBJ_, symObjAddr: 0x139A0, symBinAddr: 0x100034220, symSize: 0x30 }
  - { offset: 0x7F3C8, size: 0x8, addend: 0x0, symName: __RNvXso_NtCslJiobkLta79_5alloc3vecINtB5_3VecNtNtCs4xvdaJ1JWuv_14cranelift_isle5lexer3PosENtNtCsieiGu2EXtoJ_4core7default7Default7defaultBJ_, symObjAddr: 0x139D0, symBinAddr: 0x100034250, symSize: 0x30 }
  - { offset: 0x7F405, size: 0x8, addend: 0x0, symName: __RNvXso_NtCslJiobkLta79_5alloc3vecINtB5_3VecNtNtCs4xvdaJ1JWuv_14cranelift_isle9serialize12BindingStateENtNtCsieiGu2EXtoJ_4core7default7Default7defaultBJ_, symObjAddr: 0x13A00, symBinAddr: 0x100034280, symSize: 0x30 }
  - { offset: 0x7F442, size: 0x8, addend: 0x0, symName: __RNvXso_NtCslJiobkLta79_5alloc3vecINtB5_3VecNtNtCs4xvdaJ1JWuv_14cranelift_isle9serialize14EqualCandidateENtNtCsieiGu2EXtoJ_4core7default7Default7defaultBJ_, symObjAddr: 0x13A30, symBinAddr: 0x1000342B0, symSize: 0x30 }
  - { offset: 0x7F47F, size: 0x8, addend: 0x0, symName: __RNvXso_NtCslJiobkLta79_5alloc3vecINtB5_3VecNtNtCs4xvdaJ1JWuv_14cranelift_isle9serialize8EvalStepENtNtCsieiGu2EXtoJ_4core7default7Default7defaultBJ_, symObjAddr: 0x13A60, symBinAddr: 0x1000342E0, symSize: 0x30 }
  - { offset: 0x7F4BC, size: 0x8, addend: 0x0, symName: __RNvXso_NtCslJiobkLta79_5alloc3vecINtB5_3VecNtNtCs4xvdaJ1JWuv_14cranelift_isle9serialize9CandidateENtNtCsieiGu2EXtoJ_4core7default7Default7defaultBJ_, symObjAddr: 0x13A90, symBinAddr: 0x100034310, symSize: 0x30 }
  - { offset: 0x7F4F9, size: 0x8, addend: 0x0, symName: __RNvXso_NtCslJiobkLta79_5alloc3vecINtB5_3VecjENtNtCsieiGu2EXtoJ_4core7default7Default7defaultCs4xvdaJ1JWuv_14cranelift_isle, symObjAddr: 0x13AC0, symBinAddr: 0x100034340, symSize: 0x30 }
  - { offset: 0x7F53C, size: 0x8, addend: 0x0, symName: __RNvXsp_NtCslJiobkLta79_5alloc3vecINtB5_3VecNtNtCs4xvdaJ1JWuv_14cranelift_isle10trie_again9BindingIdENtNtCsieiGu2EXtoJ_4core3fmt5Debug3fmtBJ_, symObjAddr: 0x13AF0, symBinAddr: 0x100034370, symSize: 0x70 }
  - { offset: 0x7F64C, size: 0x8, addend: 0x0, symName: __RNvXsp_NtCslJiobkLta79_5alloc3vecINtB5_3VecNtNtCs4xvdaJ1JWuv_14cranelift_isle5error4SpanENtNtCsieiGu2EXtoJ_4core3fmt5Debug3fmtBJ_, symObjAddr: 0x13B60, symBinAddr: 0x1000343E0, symSize: 0x70 }
  - { offset: 0x832C9, size: 0x8, addend: 0x0, symName: __RNvXs8_NtCslJiobkLta79_5alloc5sliceINtNtB7_3vec3VecNtNtCs4xvdaJ1JWuv_14cranelift_isle5error5ErrorEINtNtNtNtCsieiGu2EXtoJ_4core5slice4sort6stable8BufGuardBN_E13with_capacityBR_, symObjAddr: 0xEE40, symBinAddr: 0x10002F830, symSize: 0x60 }
  - { offset: 0x8336A, size: 0x8, addend: 0x0, symName: __RNvXs8_NtCslJiobkLta79_5alloc5sliceINtNtB7_3vec3VecNtNtCs4xvdaJ1JWuv_14cranelift_isle5error5ErrorEINtNtNtNtCsieiGu2EXtoJ_4core5slice4sort6stable8BufGuardBN_E19as_uninit_slice_mutBR_, symObjAddr: 0xEEA0, symBinAddr: 0x10002F890, symSize: 0xA0 }
  - { offset: 0x8397B, size: 0x8, addend: 0x0, symName: __RINvMs_NtCslJiobkLta79_5alloc3vecINtB5_3VecNtNtCs4xvdaJ1JWuv_14cranelift_isle10trie_again16UnreachableErrorE5drainNtNtNtCsieiGu2EXtoJ_4core3ops5range9RangeFullEBJ_, symObjAddr: 0x0, symBinAddr: 0x1000209F0, symSize: 0x1C0 }
  - { offset: 0x8483F, size: 0x8, addend: 0x0, symName: __RINvMs_NtCslJiobkLta79_5alloc3vecINtB5_3VecNtNtCs4xvdaJ1JWuv_14cranelift_isle10trie_again9BindingIdE10retain_mutNCINvB2_6retainNCNvMNtBJ_12disjointsetsINtB26_12DisjointSetsBF_E13remove_set_of0E0EBJ_, symObjAddr: 0x1C0, symBinAddr: 0x100020BB0, symSize: 0x160 }
  - { offset: 0x849AE, size: 0x8, addend: 0x0, symName: __RINvMs_NtCslJiobkLta79_5alloc3vecINtB5_3VecNtNtCs4xvdaJ1JWuv_14cranelift_isle10trie_again9BindingIdE6retainNCNvMNtBJ_12disjointsetsINtB1M_12DisjointSetsBF_E13remove_set_of0EBJ_, symObjAddr: 0x320, symBinAddr: 0x100020D10, symSize: 0x40 }
  - { offset: 0x84BD4, size: 0x8, addend: 0x0, symName: __RINvMs_NtCslJiobkLta79_5alloc3vecINtB5_3VecNtNtCs4xvdaJ1JWuv_14cranelift_isle9serialize14EqualCandidateE10retain_mutNCNvMs2_BH_NtBH_13Decomposition17best_control_flows_0EBJ_, symObjAddr: 0x360, symBinAddr: 0x100020D50, symSize: 0x160 }
  - { offset: 0x84E45, size: 0x8, addend: 0x0, symName: __RINvMs_NtCslJiobkLta79_5alloc3vecINtB5_3VecNtNtCs4xvdaJ1JWuv_14cranelift_isle9serialize9CandidateE10retain_mutNCNvMs2_BH_NtBH_13Decomposition17best_control_flow0EBJ_, symObjAddr: 0x4C0, symBinAddr: 0x100020EB0, symSize: 0x160 }
  - { offset: 0x85253, size: 0x8, addend: 0x0, symName: __RINvMsi_NtCslJiobkLta79_5alloc3vecINtB6_3VecINtNtCsieiGu2EXtoJ_4core6option6OptionNtNtCs4xvdaJ1JWuv_14cranelift_isle10trie_again9BindingIdEE14extend_trustedINtNtNtNtBL_4iter8adapters3map3MapINtNtB6_9into_iter8IntoIterNtB1k_7BindingENCNvMs2_NtB1m_9serializeNtB3Q_13Decomposition17make_control_flows1_0EEB1m_, symObjAddr: 0x620, symBinAddr: 0x100021010, symSize: 0x1E0 }
  - { offset: 0x855C1, size: 0x8, addend: 0x0, symName: __RINvMsi_NtCslJiobkLta79_5alloc3vecINtB6_3VecINtNtNtCs4xvdaJ1JWuv_14cranelift_isle5error10diagnostic10DiagnosticjEE14extend_trustedINtNtNtNtCsieiGu2EXtoJ_4core4iter8adapters3map3MapINtNtNtB2d_5slice4iter4IterNtBL_5ErrorENCNvXBL_NtBL_6ErrorsNtNtB2d_3fmt5Debug3fmt0EEBN_, symObjAddr: 0x800, symBinAddr: 0x1000211F0, symSize: 0x1A0 }
  - { offset: 0x858C6, size: 0x8, addend: 0x0, symName: __RINvMsi_NtCslJiobkLta79_5alloc3vecINtB6_3VecINtNtNtCs4xvdaJ1JWuv_14cranelift_isle5error10diagnostic5LabeljEE14extend_trustedINtNtNtNtCsieiGu2EXtoJ_4core4iter8adapters3map3MapINtNtNtB27_5slice4iter4IterNtBL_4SpanENCNCNvXBL_NtBL_6ErrorsNtNtB27_3fmt5Debug3fmt00EEBN_, symObjAddr: 0x9A0, symBinAddr: 0x100021390, symSize: 0x1A0 }
  - { offset: 0x85B7D, size: 0x8, addend: 0x0, symName: __RINvMsi_NtCslJiobkLta79_5alloc3vecINtB6_3VecINtNtNtCs4xvdaJ1JWuv_14cranelift_isle5error10diagnostic5LabeljEE14extend_trustedINtNtNtNtCsieiGu2EXtoJ_4core4iter8adapters3map3MapINtNtNtB27_5slice4iter4IterNtBL_4SpanENCNCNvXBL_NtBL_6ErrorsNtNtB27_3fmt5Debug3fmt0s_0EEBN_, symObjAddr: 0xB40, symBinAddr: 0x100021530, symSize: 0x1A0 }
  - { offset: 0x85FE8, size: 0x8, addend: 0x0, symName: __RINvMsi_NtCslJiobkLta79_5alloc3vecINtB6_3VecNtNtB8_6string6StringE14extend_trustedINtNtNtNtCsieiGu2EXtoJ_4core4iter8adapters3map3MapINtNtNtB1r_5slice4iter4IterNtNtCs4xvdaJ1JWuv_14cranelift_isle4sema6TypeIdENCNvMs_NtB2B_7codegenNtB3p_7Codegen18generate_trait_sig0EEB2B_, symObjAddr: 0xCE0, symBinAddr: 0x1000216D0, symSize: 0x1B0 }
  - { offset: 0x8629F, size: 0x8, addend: 0x0, symName: __RINvMsi_NtCslJiobkLta79_5alloc3vecINtB6_3VecNtNtB8_6string6StringE14extend_trustedINtNtNtNtCsieiGu2EXtoJ_4core4iter8adapters5chain5ChainINtNtB1n_3map3MapINtNtB1n_9enumerate9EnumerateINtNtNtB1r_5slice4iter4IterNtNtCs4xvdaJ1JWuv_14cranelift_isle4sema6TypeIdEENCNvMs_NtB3p_7codegenNtB4e_7Codegen18generate_trait_sigs_0EINtNtB1r_6option8IntoIterBG_EEEB3p_, symObjAddr: 0xE90, symBinAddr: 0x100021880, symSize: 0x1F0 }
  - { offset: 0x865A2, size: 0x8, addend: 0x0, symName: __RINvMsi_NtCslJiobkLta79_5alloc3vecINtB6_3VecNtNtCs4xvdaJ1JWuv_14cranelift_isle10trie_again7BindingE14extend_trustedINtNtNtNtCsieiGu2EXtoJ_4core4iter8adapters3map3MapIB1Q_INtNtNtB1Y_3ops5range5RangehENcNtBI_10TupleIndex0ENCNvMs4_BI_NtBI_10Constraint12bindings_for0EEBK_, symObjAddr: 0x1080, symBinAddr: 0x100021A70, symSize: 0x1B0 }
  - { offset: 0x86880, size: 0x8, addend: 0x0, symName: __RINvMsi_NtCslJiobkLta79_5alloc3vecINtB6_3VecNtNtCs4xvdaJ1JWuv_14cranelift_isle10trie_again9BindingIdE14extend_trustedINtNtNtNtCsieiGu2EXtoJ_4core4iter8adapters3map3MapIB1S_INtNtNtB20_3ops5range5RangehENcNtBI_10TupleIndex0ENCNvXs7_BI_NtBI_14RuleSetBuilderNtNtBK_4sema14PatternVisitor11add_extract0EEBK_, symObjAddr: 0x1230, symBinAddr: 0x100021C20, symSize: 0x1B0 }
  - { offset: 0x86B37, size: 0x8, addend: 0x0, symName: __RINvMsi_NtCslJiobkLta79_5alloc3vecINtB6_3VecNtNtCs4xvdaJ1JWuv_14cranelift_isle10trie_again9BindingIdE14extend_trustedINtNtNtNtCsieiGu2EXtoJ_4core4iter8adapters3map3MapINtNtB6_9into_iter8IntoIterNtBI_7BindingENCNvMs6_BI_NtBI_14RuleSetBuilder14set_constraint0EEBK_, symObjAddr: 0x13E0, symBinAddr: 0x100021DD0, symSize: 0x1E0 }
  - { offset: 0x86E19, size: 0x8, addend: 0x0, symName: __RINvMsi_NtCslJiobkLta79_5alloc3vecINtB6_3VecNtNtCs4xvdaJ1JWuv_14cranelift_isle10trie_again9BindingIdE14extend_trustedINtNtNtNtCsieiGu2EXtoJ_4core4iter8adapters3map3MapINtNtB6_9into_iter8IntoIterTBG_NtNtBK_4sema6TypeIdEENCNvXs8_BI_NtBI_14RuleSetBuilderNtB3c_11ExprVisitor13add_construct0EEBK_, symObjAddr: 0x15C0, symBinAddr: 0x100021FB0, symSize: 0x1D0 }
  - { offset: 0x870D0, size: 0x8, addend: 0x0, symName: __RINvMsi_NtCslJiobkLta79_5alloc3vecINtB6_3VecNtNtCs4xvdaJ1JWuv_14cranelift_isle10trie_again9BindingIdE14extend_trustedINtNtNtNtCsieiGu2EXtoJ_4core4iter8adapters3map3MapINtNtB6_9into_iter8IntoIterTBG_NtNtBK_4sema6TypeIdEENCNvXs8_BI_NtBI_14RuleSetBuilderNtB3c_11ExprVisitor18add_create_variant0EEBK_, symObjAddr: 0x1790, symBinAddr: 0x100022180, symSize: 0x1D0 }
  - { offset: 0x87456, size: 0x8, addend: 0x0, symName: __RINvMsi_NtCslJiobkLta79_5alloc3vecINtB6_3VecNtNtCs4xvdaJ1JWuv_14cranelift_isle10trie_again9BindingIdE16extend_desugaredINtNtNtNtCsieiGu2EXtoJ_4core4iter8adapters6copied6CopiedINtNtNtNtCsHUR1vrdMJt_3std11collections4hash3map4KeysBG_TBG_hEEEEBK_, symObjAddr: 0x1960, symBinAddr: 0x100022350, symSize: 0x210 }
  - { offset: 0x8783C, size: 0x8, addend: 0x0, symName: __RINvMsi_NtCslJiobkLta79_5alloc3vecINtB6_3VecNtNtCs4xvdaJ1JWuv_14cranelift_isle3ast7PatternE14extend_trustedINtNtNtNtCsieiGu2EXtoJ_4core4iter8adapters3map3MapINtNtNtB1Q_5slice4iter4IterBG_ENCNvMBI_BG_19make_macro_templates0_0EEBK_, symObjAddr: 0x1B70, symBinAddr: 0x100022560, symSize: 0x1C0 }
  - { offset: 0x87AF3, size: 0x8, addend: 0x0, symName: __RINvMsi_NtCslJiobkLta79_5alloc3vecINtB6_3VecNtNtCs4xvdaJ1JWuv_14cranelift_isle3ast7PatternE14extend_trustedINtNtNtNtCsieiGu2EXtoJ_4core4iter8adapters3map3MapINtNtNtB1Q_5slice4iter4IterBG_ENCNvMBI_BG_19make_macro_templates1_0EEBK_, symObjAddr: 0x1D30, symBinAddr: 0x100022720, symSize: 0x1C0 }
  - { offset: 0x87E82, size: 0x8, addend: 0x0, symName: __RINvMsi_NtCslJiobkLta79_5alloc3vecINtB6_3VecNtNtCs4xvdaJ1JWuv_14cranelift_isle3ast7PatternE16extend_desugaredINtNtNtCsieiGu2EXtoJ_4core4iter8adapters12GenericShuntINtNtB1M_3map3MapINtNtNtB1Q_5slice4iter4IterBG_ENCNvMBI_BG_16subst_macro_args0EINtNtB1Q_6option6OptionNtNtB1Q_7convert10InfallibleEEEBK_, symObjAddr: 0x1EF0, symBinAddr: 0x1000228E0, symSize: 0x230 }
  - { offset: 0x88296, size: 0x8, addend: 0x0, symName: __RINvMsi_NtCslJiobkLta79_5alloc3vecINtB6_3VecNtNtCs4xvdaJ1JWuv_14cranelift_isle3ast7PatternE16extend_desugaredINtNtNtCsieiGu2EXtoJ_4core4iter8adapters12GenericShuntINtNtB1M_3map3MapINtNtNtB1Q_5slice4iter4IterBG_ENCNvMBI_BG_16subst_macro_argss_0EINtNtB1Q_6option6OptionNtNtB1Q_7convert10InfallibleEEEBK_, symObjAddr: 0x2120, symBinAddr: 0x100022B10, symSize: 0x230 }
  - { offset: 0x88746, size: 0x8, addend: 0x0, symName: __RINvMsi_NtCslJiobkLta79_5alloc3vecINtB6_3VecNtNtCs4xvdaJ1JWuv_14cranelift_isle4sema4ExprE16extend_desugaredINtNtNtNtCsieiGu2EXtoJ_4core4iter8adapters10filter_map9FilterMapINtNtB1M_3zip3ZipINtNtNtB1Q_5slice4iter4IterNtNtBK_3ast4ExprEIB31_NtBI_6TypeIdEENCNvMs5_BI_NtBI_7TermEnv14translate_expr0EEBK_, symObjAddr: 0x2350, symBinAddr: 0x100022D40, symSize: 0x230 }
  - { offset: 0x88BB5, size: 0x8, addend: 0x0, symName: __RINvMsi_NtCslJiobkLta79_5alloc3vecINtB6_3VecNtNtCs4xvdaJ1JWuv_14cranelift_isle4sema5IfLetE16extend_desugaredINtNtNtNtCsieiGu2EXtoJ_4core4iter8adapters10filter_map9FilterMapINtNtNtB1R_5slice4iter4IterNtNtBK_3ast5IfLetENCNvMs5_BI_NtBI_7TermEnv13collect_rules0EEBK_, symObjAddr: 0x2580, symBinAddr: 0x100022F70, symSize: 0x230 }
  - { offset: 0x88F73, size: 0x8, addend: 0x0, symName: __RINvMsi_NtCslJiobkLta79_5alloc3vecINtB6_3VecNtNtCs4xvdaJ1JWuv_14cranelift_isle4sema6TypeIdE14extend_trustedINtNtNtNtCsieiGu2EXtoJ_4core4iter8adapters3map3MapINtNtNtB1Q_5slice4iter4IterNtBI_5FieldENCNvMs5_BI_NtBI_7TermEnv26collect_enum_variant_terms0EEBK_, symObjAddr: 0x27B0, symBinAddr: 0x1000231A0, symSize: 0x1A0 }
  - { offset: 0x89244, size: 0x8, addend: 0x0, symName: __RINvMsi_NtCslJiobkLta79_5alloc3vecINtB6_3VecNtNtCs4xvdaJ1JWuv_14cranelift_isle4sema6TypeIdE14extend_trustedINtNtNtNtCsieiGu2EXtoJ_4core4iter8adapters3map3MapINtNtNtB1Q_5slice4iter4IterNtBI_7PatternENCINvMs0_BI_B2W_5visitNtNtBK_10trie_again14RuleSetBuilderE0EEBK_, symObjAddr: 0x2950, symBinAddr: 0x100023340, symSize: 0x1A0 }
  - { offset: 0x895C6, size: 0x8, addend: 0x0, symName: __RINvMsi_NtCslJiobkLta79_5alloc3vecINtB6_3VecNtNtCs4xvdaJ1JWuv_14cranelift_isle4sema6TypeIdE16extend_desugaredINtNtNtCsieiGu2EXtoJ_4core4iter8adapters12GenericShuntINtNtB1M_3map3MapINtNtNtB1Q_5slice4iter4IterNtNtBK_3ast5IdentENCNvMs5_BI_NtBI_7TermEnv17collect_term_sigs0EINtNtB1Q_6result6ResultNtNtB1Q_7convert10InfallibleuEEEBK_, symObjAddr: 0x2AF0, symBinAddr: 0x1000234E0, symSize: 0x200 }
  - { offset: 0x89A0F, size: 0x8, addend: 0x0, symName: __RINvMsi_NtCslJiobkLta79_5alloc3vecINtB6_3VecNtNtCs4xvdaJ1JWuv_14cranelift_isle4sema7PatternE16extend_desugaredINtNtNtNtCsieiGu2EXtoJ_4core4iter8adapters10filter_map9FilterMapINtNtB1P_3zip3ZipINtNtNtB1T_5slice4iter4IterNtNtBK_3ast7PatternEIB34_NtBI_6TypeIdEENCNvMs5_BI_NtBI_7TermEnv14translate_args0EEBK_, symObjAddr: 0x2CF0, symBinAddr: 0x1000236E0, symSize: 0x230 }
  - { offset: 0x89E23, size: 0x8, addend: 0x0, symName: __RINvMsi_NtCslJiobkLta79_5alloc3vecINtB6_3VecNtNtCs4xvdaJ1JWuv_14cranelift_isle4sema7PatternE16extend_desugaredINtNtNtNtCsieiGu2EXtoJ_4core4iter8adapters10filter_map9FilterMapINtNtNtB1T_5slice4iter4IterNtNtBK_3ast7PatternENCNvMs5_BI_NtBI_7TermEnv17translate_pattern0EEBK_, symObjAddr: 0x2F20, symBinAddr: 0x100023910, symSize: 0x230 }
  - { offset: 0x8A1EC, size: 0x8, addend: 0x0, symName: __RINvMsi_NtCslJiobkLta79_5alloc3vecINtB6_3VecNtNtCs4xvdaJ1JWuv_14cranelift_isle5error4SpanE14extend_trustedINtNtNtNtCsieiGu2EXtoJ_4core4iter8adapters3map3MapINtNtB6_9into_iter8IntoIterNtNtBK_5lexer3PosENvMs1_BI_BG_10new_singleEEBK_, symObjAddr: 0x3150, symBinAddr: 0x100023B40, symSize: 0x1D0 }
  - { offset: 0x8A59B, size: 0x8, addend: 0x0, symName: __RINvMsi_NtCslJiobkLta79_5alloc3vecINtB6_3VecNtNtCs4xvdaJ1JWuv_14cranelift_isle5error4SpanE16extend_desugaredINtNtNtNtCsieiGu2EXtoJ_4core4iter8adapters3map3MapINtNtNtNtCsHUR1vrdMJt_3std11collections4hash3set8IntoIterNtNtBK_5lexer3PosENvMs1_BI_BG_10new_singleEEBK_, symObjAddr: 0x3320, symBinAddr: 0x100023D10, symSize: 0x270 }
  - { offset: 0x8A93F, size: 0x8, addend: 0x0, symName: __RINvMsi_NtCslJiobkLta79_5alloc3vecINtB6_3VecNtNtCs4xvdaJ1JWuv_14cranelift_isle5error5ErrorE14extend_trustedINtNtNtNtCsieiGu2EXtoJ_4core4iter8adapters3map3MapINtNtB6_5drain5DrainNtNtBK_10trie_again16UnreachableErrorENCNvMs6_B2R_NtB2R_14RuleSetBuilder8add_rule0EEBK_, symObjAddr: 0x3590, symBinAddr: 0x100023F80, symSize: 0x1E0 }
  - { offset: 0x8ACC5, size: 0x8, addend: 0x0, symName: __RINvMsi_NtCslJiobkLta79_5alloc3vecINtB6_3VecNtNtCs4xvdaJ1JWuv_14cranelift_isle5error5ErrorE16extend_desugaredINtNtNtNtCsieiGu2EXtoJ_4core4iter8adapters3map3MapINtNtNtNtCsHUR1vrdMJt_3std11collections4hash3map8IntoIterNtNtBK_5lexer3PosIBx_B3s_EENCNvMNtBK_7overlapNtB3Y_6Errors6reports_0EEBK_, symObjAddr: 0x3770, symBinAddr: 0x100024160, symSize: 0x240 }
  - { offset: 0x8B069, size: 0x8, addend: 0x0, symName: __RINvMsi_NtCslJiobkLta79_5alloc3vecINtB6_3VecNtNtCs4xvdaJ1JWuv_14cranelift_isle9serialize9CandidateE14extend_trustedINtNtNtCsieiGu2EXtoJ_4core5array4iter8IntoIterBG_Kj2_EEBK_, symObjAddr: 0x39B0, symBinAddr: 0x1000243A0, symSize: 0x200 }
  - { offset: 0x8B37B, size: 0x8, addend: 0x0, symName: __RINvMsi_NtCslJiobkLta79_5alloc3vecINtB6_3VecReE14extend_trustedINtNtNtNtCsieiGu2EXtoJ_4core4iter8adapters3map3MapINtNtNtB18_5slice4iter4IterNtNtCs4xvdaJ1JWuv_14cranelift_isle4sema6TermIdENCNvMs5_B2g_NtB2g_7TermEnv27collect_extractor_templatess0_0EEB2i_, symObjAddr: 0x3BB0, symBinAddr: 0x1000245A0, symSize: 0x1B0 }
  - { offset: 0x8B691, size: 0x8, addend: 0x0, symName: __RINvMsi_NtCslJiobkLta79_5alloc3vecINtB6_3VecTNtNtCs4xvdaJ1JWuv_14cranelift_isle10trie_again9BindingIdNtNtBL_4sema6TypeIdEE14extend_trustedINtNtNtNtCsieiGu2EXtoJ_4core4iter8adapters3zip3ZipINtNtB2h_3map3MapINtNtNtB2l_5slice4iter4IterNtB1D_4ExprENCINvMs1_B1D_B3I_5visitNtBJ_14RuleSetBuilderE0EINtNtB2h_6copied6CopiedIB3i_B1B_EEEEBL_, symObjAddr: 0x3D60, symBinAddr: 0x100024750, symSize: 0x1B0 }
  - { offset: 0x8BAFE, size: 0x8, addend: 0x0, symName: __RINvMsi_NtCslJiobkLta79_5alloc3vecINtB6_3VecTNtNtCs4xvdaJ1JWuv_14cranelift_isle4sema6TermIdIBx_BH_EINtNtBL_12stablemapset9StableSetBH_EEE16extend_desugaredINtNtNtNtCsieiGu2EXtoJ_4core4iter8adapters3map3MapINtNtNtNtB8_11collections5btree3set4IterBH_ENCNvMs5_BJ_NtBJ_7TermEnv27collect_extractor_templatess_0EEBL_, symObjAddr: 0x3F10, symBinAddr: 0x100024900, symSize: 0x230 }
  - { offset: 0x8BF7F, size: 0x8, addend: 0x0, symName: __RINvMsi_NtCslJiobkLta79_5alloc3vecINtB6_3VecTNtNtCs4xvdaJ1JWuv_14cranelift_isle4sema6TermIdNtNtBL_10trie_again7RuleSetEE16extend_desugaredINtNtNtNtCsieiGu2EXtoJ_4core4iter8adapters3map3MapINtNtNtNtCsHUR1vrdMJt_3std11collections4hash3map8IntoIterBH_NtB1t_14RuleSetBuilderENCNvB1t_5build0EEBL_, symObjAddr: 0x4140, symBinAddr: 0x100024B30, symSize: 0x250 }
  - { offset: 0x8C330, size: 0x8, addend: 0x0, symName: __RINvMsi_NtCslJiobkLta79_5alloc3vecINtB6_3VechE14extend_trustedINtNtNtNtCsieiGu2EXtoJ_4core4iter8adapters3map3MapINtNtNtB17_5slice4iter4IterhENCNvNtB8_3str13replace_ascii0EECs4xvdaJ1JWuv_14cranelift_isle, symObjAddr: 0x4390, symBinAddr: 0x100024D80, symSize: 0x1C0 }
  - { offset: 0x8C61B, size: 0x8, addend: 0x0, symName: __RINvMsi_NtCslJiobkLta79_5alloc3vecINtB6_3VecjE14extend_trustedINtNtNtCsieiGu2EXtoJ_4core3ops5range5RangejEECs4xvdaJ1JWuv_14cranelift_isle, symObjAddr: 0x4550, symBinAddr: 0x100024F40, symSize: 0x1A0 }
  - { offset: 0x8C98A, size: 0x8, addend: 0x0, symName: __RINvMsi_NtCslJiobkLta79_5alloc3vecINtB6_3VecjE16extend_desugaredINtNtNtNtCsieiGu2EXtoJ_4core4iter8adapters3map3MapINtNtNtB19_3str4iter12MatchIndicescENCNvMs_NtCs4xvdaJ1JWuv_14cranelift_isle5filesNtB2v_7LineMap8from_str0EEB2x_, symObjAddr: 0x46F0, symBinAddr: 0x1000250E0, symSize: 0x200 }
  - { offset: 0x8D072, size: 0x8, addend: 0x0, symName: __RNvMNtCslJiobkLta79_5alloc3vecINtB2_3VecINtNtNtCs4xvdaJ1JWuv_14cranelift_isle5error10diagnostic5LabeljEE3newBJ_, symObjAddr: 0x5D10, symBinAddr: 0x100026700, symSize: 0x30 }
  - { offset: 0x8D08F, size: 0x8, addend: 0x0, symName: __RNvMNtCslJiobkLta79_5alloc3vecINtB2_3VecNtNtB4_6string6StringE3newCs4xvdaJ1JWuv_14cranelift_isle, symObjAddr: 0x5D40, symBinAddr: 0x100026730, symSize: 0x30 }
  - { offset: 0x8D0AC, size: 0x8, addend: 0x0, symName: __RNvMNtCslJiobkLta79_5alloc3vecINtB2_3VecNtNtCs4xvdaJ1JWuv_14cranelift_isle10trie_again7BindingE3newBG_, symObjAddr: 0x5D70, symBinAddr: 0x100026760, symSize: 0x30 }
  - { offset: 0x8D0C9, size: 0x8, addend: 0x0, symName: __RNvMNtCslJiobkLta79_5alloc3vecINtB2_3VecNtNtCs4xvdaJ1JWuv_14cranelift_isle10trie_again9BindingIdE3newBG_, symObjAddr: 0x5DA0, symBinAddr: 0x100026790, symSize: 0x30 }
  - { offset: 0x8D118, size: 0x8, addend: 0x0, symName: __RNvMNtCslJiobkLta79_5alloc3vecINtB2_3VecNtNtCs4xvdaJ1JWuv_14cranelift_isle3ast3DefE3newBG_, symObjAddr: 0x5DD0, symBinAddr: 0x1000267C0, symSize: 0x30 }
  - { offset: 0x8D135, size: 0x8, addend: 0x0, symName: __RNvMNtCslJiobkLta79_5alloc3vecINtB2_3VecNtNtCs4xvdaJ1JWuv_14cranelift_isle3ast4ExprE3newBG_, symObjAddr: 0x5E00, symBinAddr: 0x1000267F0, symSize: 0x30 }
  - { offset: 0x8D152, size: 0x8, addend: 0x0, symName: __RNvMNtCslJiobkLta79_5alloc3vecINtB2_3VecNtNtCs4xvdaJ1JWuv_14cranelift_isle3ast5FieldE3newBG_, symObjAddr: 0x5E30, symBinAddr: 0x100026820, symSize: 0x30 }
  - { offset: 0x8D16F, size: 0x8, addend: 0x0, symName: __RNvMNtCslJiobkLta79_5alloc3vecINtB2_3VecNtNtCs4xvdaJ1JWuv_14cranelift_isle3ast5IdentE3newBG_, symObjAddr: 0x5E60, symBinAddr: 0x100026850, symSize: 0x30 }
  - { offset: 0x8D18C, size: 0x8, addend: 0x0, symName: __RNvMNtCslJiobkLta79_5alloc3vecINtB2_3VecNtNtCs4xvdaJ1JWuv_14cranelift_isle3ast5IfLetE3newBG_, symObjAddr: 0x5E90, symBinAddr: 0x100026880, symSize: 0x30 }
  - { offset: 0x8D1A9, size: 0x8, addend: 0x0, symName: __RNvMNtCslJiobkLta79_5alloc3vecINtB2_3VecNtNtCs4xvdaJ1JWuv_14cranelift_isle3ast6LetDefE3newBG_, symObjAddr: 0x5EC0, symBinAddr: 0x1000268B0, symSize: 0x30 }
  - { offset: 0x8D1C6, size: 0x8, addend: 0x0, symName: __RNvMNtCslJiobkLta79_5alloc3vecINtB2_3VecNtNtCs4xvdaJ1JWuv_14cranelift_isle3ast7PatternE3newBG_, symObjAddr: 0x5EF0, symBinAddr: 0x1000268E0, symSize: 0x30 }
  - { offset: 0x8D1E3, size: 0x8, addend: 0x0, symName: __RNvMNtCslJiobkLta79_5alloc3vecINtB2_3VecNtNtCs4xvdaJ1JWuv_14cranelift_isle3ast7VariantE3newBG_, symObjAddr: 0x5F20, symBinAddr: 0x100026910, symSize: 0x30 }
  - { offset: 0x8D200, size: 0x8, addend: 0x0, symName: __RNvMNtCslJiobkLta79_5alloc3vecINtB2_3VecNtNtCs4xvdaJ1JWuv_14cranelift_isle3ast8SpecExprE3newBG_, symObjAddr: 0x5F50, symBinAddr: 0x100026940, symSize: 0x30 }
  - { offset: 0x8D21D, size: 0x8, addend: 0x0, symName: __RNvMNtCslJiobkLta79_5alloc3vecINtB2_3VecNtNtCs4xvdaJ1JWuv_14cranelift_isle3ast9ModelTypeE3newBG_, symObjAddr: 0x5F80, symBinAddr: 0x100026970, symSize: 0x30 }
  - { offset: 0x8D23A, size: 0x8, addend: 0x0, symName: __RNvMNtCslJiobkLta79_5alloc3vecINtB2_3VecNtNtCs4xvdaJ1JWuv_14cranelift_isle3ast9SignatureE3newBG_, symObjAddr: 0x5FB0, symBinAddr: 0x1000269A0, symSize: 0x30 }
  - { offset: 0x8D257, size: 0x8, addend: 0x0, symName: __RNvMNtCslJiobkLta79_5alloc3vecINtB2_3VecNtNtCs4xvdaJ1JWuv_14cranelift_isle4sema4RuleE3newBG_, symObjAddr: 0x5FE0, symBinAddr: 0x1000269D0, symSize: 0x30 }
  - { offset: 0x8D274, size: 0x8, addend: 0x0, symName: __RNvMNtCslJiobkLta79_5alloc3vecINtB2_3VecNtNtCs4xvdaJ1JWuv_14cranelift_isle4sema4TermE3newBG_, symObjAddr: 0x6010, symBinAddr: 0x100026A00, symSize: 0x30 }
  - { offset: 0x8D291, size: 0x8, addend: 0x0, symName: __RNvMNtCslJiobkLta79_5alloc3vecINtB2_3VecNtNtCs4xvdaJ1JWuv_14cranelift_isle4sema4TypeE3newBG_, symObjAddr: 0x6040, symBinAddr: 0x100026A30, symSize: 0x30 }
  - { offset: 0x8D2AE, size: 0x8, addend: 0x0, symName: __RNvMNtCslJiobkLta79_5alloc3vecINtB2_3VecNtNtCs4xvdaJ1JWuv_14cranelift_isle4sema5FieldE3newBG_, symObjAddr: 0x6070, symBinAddr: 0x100026A60, symSize: 0x30 }
  - { offset: 0x8D2CB, size: 0x8, addend: 0x0, symName: __RNvMNtCslJiobkLta79_5alloc3vecINtB2_3VecNtNtCs4xvdaJ1JWuv_14cranelift_isle4sema7VariantE3newBG_, symObjAddr: 0x60A0, symBinAddr: 0x100026A90, symSize: 0x30 }
  - { offset: 0x8D2E8, size: 0x8, addend: 0x0, symName: __RNvMNtCslJiobkLta79_5alloc3vecINtB2_3VecNtNtCs4xvdaJ1JWuv_14cranelift_isle5error5ErrorE3newBG_, symObjAddr: 0x60D0, symBinAddr: 0x100026AC0, symSize: 0x30 }
  - { offset: 0x8D305, size: 0x8, addend: 0x0, symName: __RNvMNtCslJiobkLta79_5alloc3vecINtB2_3VecNtNtCs4xvdaJ1JWuv_14cranelift_isle5files7LineMapE3newBG_, symObjAddr: 0x6100, symBinAddr: 0x100026AF0, symSize: 0x30 }
  - { offset: 0x8D322, size: 0x8, addend: 0x0, symName: __RNvMNtCslJiobkLta79_5alloc3vecINtB2_3VecNtNtCs4xvdaJ1JWuv_14cranelift_isle9serialize8MatchArmE3newBG_, symObjAddr: 0x6130, symBinAddr: 0x100026B20, symSize: 0x30 }
  - { offset: 0x8D33F, size: 0x8, addend: 0x0, symName: __RNvMNtCslJiobkLta79_5alloc3vecINtB2_3VecTNtNtCs4xvdaJ1JWuv_14cranelift_isle10trie_again9BindingIdNtBF_10ConstraintEE3newBH_, symObjAddr: 0x6160, symBinAddr: 0x100026B50, symSize: 0x30 }
  - { offset: 0x8D35C, size: 0x8, addend: 0x0, symName: __RNvMNtCslJiobkLta79_5alloc3vecINtB2_3VecTNtNtCs4xvdaJ1JWuv_14cranelift_isle3ast5IdentNtBF_8SpecExprEE3newBH_, symObjAddr: 0x6190, symBinAddr: 0x100026B80, symSize: 0x30 }
  - { offset: 0x8D379, size: 0x8, addend: 0x0, symName: __RNvMNtCslJiobkLta79_5alloc3vecINtB2_3VecTNtNtCs4xvdaJ1JWuv_14cranelift_isle4sema5VarIdNtBF_6TypeIdINtNtB4_5boxed3BoxNtBF_4ExprEEE3newBH_, symObjAddr: 0x61C0, symBinAddr: 0x100026BB0, symSize: 0x30 }
  - { offset: 0x8D396, size: 0x8, addend: 0x0, symName: __RNvMNtCslJiobkLta79_5alloc3vecINtB2_3VecTNtNtCs4xvdaJ1JWuv_14cranelift_isle4sema6TermIdIBt_BD_EINtNtBH_12stablemapset9StableSetBD_EEE3newBH_, symObjAddr: 0x61F0, symBinAddr: 0x100026BE0, symSize: 0x30 }
  - { offset: 0x8D410, size: 0x8, addend: 0x0, symName: __RNvMNtCslJiobkLta79_5alloc3vecINtB2_3VecTNtNtCs4xvdaJ1JWuv_14cranelift_isle7codegen6NestedReINtNtBH_12stablemapset9StableSetNtNtBH_10trie_again9BindingIdEEE3newBH_, symObjAddr: 0x6220, symBinAddr: 0x100026C10, symSize: 0x30 }
  - { offset: 0x8D50C, size: 0x8, addend: 0x0, symName: __RNvMs0_NtCslJiobkLta79_5alloc3vecINtB5_3VecNtNtCs4xvdaJ1JWuv_14cranelift_isle10trie_again9BindingIdE17extend_from_sliceBJ_, symObjAddr: 0x6250, symBinAddr: 0x100026C40, symSize: 0x70 }
  - { offset: 0x8D7A6, size: 0x8, addend: 0x0, symName: __RNvMs0_NtCslJiobkLta79_5alloc3vecINtB5_3VecNtNtCs4xvdaJ1JWuv_14cranelift_isle9serialize12BindingStateE6resizeBJ_, symObjAddr: 0x62C0, symBinAddr: 0x100026CB0, symSize: 0xE0 }
  - { offset: 0x8DA53, size: 0x8, addend: 0x0, symName: __RNvMs2_NtCslJiobkLta79_5alloc3vecINtB5_3VecNtNtCs4xvdaJ1JWuv_14cranelift_isle9serialize12BindingStateE11extend_withBJ_, symObjAddr: 0x63A0, symBinAddr: 0x100026D90, symSize: 0x2A0 }
  - { offset: 0x8DE48, size: 0x8, addend: 0x0, symName: __RNvMs_NtCslJiobkLta79_5alloc3vecINtB4_3VecINtNtCsieiGu2EXtoJ_4core6option6OptionNtNtCs4xvdaJ1JWuv_14cranelift_isle10trie_again9BindingIdEE7reserveB1k_, symObjAddr: 0x6640, symBinAddr: 0x100027030, symSize: 0xB0 }
  - { offset: 0x8E059, size: 0x8, addend: 0x0, symName: __RNvMs_NtCslJiobkLta79_5alloc3vecINtB4_3VecINtNtCsieiGu2EXtoJ_4core6option6OptionNtNtCs4xvdaJ1JWuv_14cranelift_isle10trie_again9BindingIdEE8as_sliceB1k_, symObjAddr: 0x66F0, symBinAddr: 0x1000270E0, symSize: 0x50 }
  - { offset: 0x8E138, size: 0x8, addend: 0x0, symName: __RNvMs_NtCslJiobkLta79_5alloc3vecINtB4_3VecINtNtCsieiGu2EXtoJ_4core6option6OptionNtNtCs4xvdaJ1JWuv_14cranelift_isle10trie_again9BindingIdEE8is_emptyB1k_, symObjAddr: 0x6740, symBinAddr: 0x100027130, symSize: 0x20 }
  - { offset: 0x8E2A1, size: 0x8, addend: 0x0, symName: __RNvMs_NtCslJiobkLta79_5alloc3vecINtB4_3VecINtNtNtCs4xvdaJ1JWuv_14cranelift_isle5error10diagnostic10DiagnosticjEE7reserveBL_, symObjAddr: 0x6760, symBinAddr: 0x100027150, symSize: 0xB0 }
  - { offset: 0x8E4E2, size: 0x8, addend: 0x0, symName: __RNvMs_NtCslJiobkLta79_5alloc3vecINtB4_3VecINtNtNtCs4xvdaJ1JWuv_14cranelift_isle5error10diagnostic5LabeljEE17from_raw_parts_inBL_, symObjAddr: 0x6810, symBinAddr: 0x100027200, symSize: 0xA0 }
  - { offset: 0x8E77F, size: 0x8, addend: 0x0, symName: __RNvMs_NtCslJiobkLta79_5alloc3vecINtB4_3VecINtNtNtCs4xvdaJ1JWuv_14cranelift_isle5error10diagnostic5LabeljEE7reserveBL_, symObjAddr: 0x68B0, symBinAddr: 0x1000272A0, symSize: 0xB0 }
  - { offset: 0x8E8EC, size: 0x8, addend: 0x0, symName: __RNvMs_NtCslJiobkLta79_5alloc3vecINtB4_3VecNtNtB6_6string6StringE3lenCs4xvdaJ1JWuv_14cranelift_isle, symObjAddr: 0x6960, symBinAddr: 0x100027350, symSize: 0x10 }
  - { offset: 0x8E921, size: 0x8, addend: 0x0, symName: __RNvMs_NtCslJiobkLta79_5alloc3vecINtB4_3VecNtNtB6_6string6StringE4pushCs4xvdaJ1JWuv_14cranelift_isle, symObjAddr: 0x6970, symBinAddr: 0x100027360, symSize: 0x20 }
  - { offset: 0x8EA7C, size: 0x8, addend: 0x0, symName: __RNvMs_NtCslJiobkLta79_5alloc3vecINtB4_3VecNtNtB6_6string6StringE7reserveCs4xvdaJ1JWuv_14cranelift_isle, symObjAddr: 0x6990, symBinAddr: 0x100027380, symSize: 0xB0 }
  - { offset: 0x8EC80, size: 0x8, addend: 0x0, symName: __RNvMs_NtCslJiobkLta79_5alloc3vecINtB4_3VecNtNtB6_6string6StringE8as_sliceCs4xvdaJ1JWuv_14cranelift_isle, symObjAddr: 0x6A40, symBinAddr: 0x100027430, symSize: 0x50 }
  - { offset: 0x8EE26, size: 0x8, addend: 0x0, symName: __RNvMs_NtCslJiobkLta79_5alloc3vecINtB4_3VecNtNtB6_6string6StringE8push_mutCs4xvdaJ1JWuv_14cranelift_isle, symObjAddr: 0x6A90, symBinAddr: 0x100027480, symSize: 0x110 }
  - { offset: 0x8EFDB, size: 0x8, addend: 0x0, symName: __RNvMs_NtCslJiobkLta79_5alloc3vecINtB4_3VecNtNtCs4xvdaJ1JWuv_14cranelift_isle10trie_again16UnreachableErrorE4pushBI_, symObjAddr: 0x6BA0, symBinAddr: 0x100027590, symSize: 0x20 }
  - { offset: 0x8F045, size: 0x8, addend: 0x0, symName: __RNvMs_NtCslJiobkLta79_5alloc3vecINtB4_3VecNtNtCs4xvdaJ1JWuv_14cranelift_isle10trie_again16UnreachableErrorE8is_emptyBI_, symObjAddr: 0x6BC0, symBinAddr: 0x1000275B0, symSize: 0x20 }
  - { offset: 0x8F184, size: 0x8, addend: 0x0, symName: __RNvMs_NtCslJiobkLta79_5alloc3vecINtB4_3VecNtNtCs4xvdaJ1JWuv_14cranelift_isle10trie_again16UnreachableErrorE8push_mutBI_, symObjAddr: 0x6BE0, symBinAddr: 0x1000275D0, symSize: 0x120 }
  - { offset: 0x8F346, size: 0x8, addend: 0x0, symName: __RNvMs_NtCslJiobkLta79_5alloc3vecINtB4_3VecNtNtCs4xvdaJ1JWuv_14cranelift_isle10trie_again4RuleE3lenBI_, symObjAddr: 0x6D00, symBinAddr: 0x1000276F0, symSize: 0x10 }
  - { offset: 0x8F388, size: 0x8, addend: 0x0, symName: __RNvMs_NtCslJiobkLta79_5alloc3vecINtB4_3VecNtNtCs4xvdaJ1JWuv_14cranelift_isle10trie_again4RuleE4pushBI_, symObjAddr: 0x6D10, symBinAddr: 0x100027700, symSize: 0x20 }
  - { offset: 0x8F48B, size: 0x8, addend: 0x0, symName: __RNvMs_NtCslJiobkLta79_5alloc3vecINtB4_3VecNtNtCs4xvdaJ1JWuv_14cranelift_isle10trie_again4RuleE8as_sliceBI_, symObjAddr: 0x6D30, symBinAddr: 0x100027720, symSize: 0x50 }
  - { offset: 0x8F631, size: 0x8, addend: 0x0, symName: __RNvMs_NtCslJiobkLta79_5alloc3vecINtB4_3VecNtNtCs4xvdaJ1JWuv_14cranelift_isle10trie_again4RuleE8push_mutBI_, symObjAddr: 0x6D80, symBinAddr: 0x100027770, symSize: 0x140 }
  - { offset: 0x8F8BA, size: 0x8, addend: 0x0, symName: __RNvMs_NtCslJiobkLta79_5alloc3vecINtB4_3VecNtNtCs4xvdaJ1JWuv_14cranelift_isle10trie_again7BindingE17from_raw_parts_inBI_, symObjAddr: 0x6EC0, symBinAddr: 0x1000278B0, symSize: 0xA0 }
  - { offset: 0x8FA4E, size: 0x8, addend: 0x0, symName: __RNvMs_NtCslJiobkLta79_5alloc3vecINtB4_3VecNtNtCs4xvdaJ1JWuv_14cranelift_isle10trie_again7BindingE3lenBI_, symObjAddr: 0x6F60, symBinAddr: 0x100027950, symSize: 0x10 }
  - { offset: 0x8FA83, size: 0x8, addend: 0x0, symName: __RNvMs_NtCslJiobkLta79_5alloc3vecINtB4_3VecNtNtCs4xvdaJ1JWuv_14cranelift_isle10trie_again7BindingE4pushBI_, symObjAddr: 0x6F70, symBinAddr: 0x100027960, symSize: 0x20 }
  - { offset: 0x8FBDE, size: 0x8, addend: 0x0, symName: __RNvMs_NtCslJiobkLta79_5alloc3vecINtB4_3VecNtNtCs4xvdaJ1JWuv_14cranelift_isle10trie_again7BindingE7reserveBI_, symObjAddr: 0x6F90, symBinAddr: 0x100027980, symSize: 0xB0 }
  - { offset: 0x8FDE2, size: 0x8, addend: 0x0, symName: __RNvMs_NtCslJiobkLta79_5alloc3vecINtB4_3VecNtNtCs4xvdaJ1JWuv_14cranelift_isle10trie_again7BindingE8as_sliceBI_, symObjAddr: 0x7040, symBinAddr: 0x100027A30, symSize: 0x50 }
  - { offset: 0x8FF88, size: 0x8, addend: 0x0, symName: __RNvMs_NtCslJiobkLta79_5alloc3vecINtB4_3VecNtNtCs4xvdaJ1JWuv_14cranelift_isle10trie_again7BindingE8push_mutBI_, symObjAddr: 0x7090, symBinAddr: 0x100027A80, symSize: 0x130 }
  - { offset: 0x901DB, size: 0x8, addend: 0x0, symName: __RNvMs_NtCslJiobkLta79_5alloc3vecINtB4_3VecNtNtCs4xvdaJ1JWuv_14cranelift_isle10trie_again9BindingIdE12as_mut_sliceBI_, symObjAddr: 0x71C0, symBinAddr: 0x100027BB0, symSize: 0x50 }
  - { offset: 0x903B0, size: 0x8, addend: 0x0, symName: __RNvMs_NtCslJiobkLta79_5alloc3vecINtB4_3VecNtNtCs4xvdaJ1JWuv_14cranelift_isle10trie_again9BindingIdE13shrink_to_fitBI_, symObjAddr: 0x7210, symBinAddr: 0x100027C00, symSize: 0xE0 }
  - { offset: 0x90579, size: 0x8, addend: 0x0, symName: __RNvMs_NtCslJiobkLta79_5alloc3vecINtB4_3VecNtNtCs4xvdaJ1JWuv_14cranelift_isle10trie_again9BindingIdE15append_elementsBI_, symObjAddr: 0x72F0, symBinAddr: 0x100027CE0, symSize: 0xC0 }
  - { offset: 0x9082C, size: 0x8, addend: 0x0, symName: __RNvMs_NtCslJiobkLta79_5alloc3vecINtB4_3VecNtNtCs4xvdaJ1JWuv_14cranelift_isle10trie_again9BindingIdE16into_boxed_sliceBI_, symObjAddr: 0x73B0, symBinAddr: 0x100027DA0, symSize: 0x160 }
  - { offset: 0x90AD0, size: 0x8, addend: 0x0, symName: __RNvMs_NtCslJiobkLta79_5alloc3vecINtB4_3VecNtNtCs4xvdaJ1JWuv_14cranelift_isle10trie_again9BindingIdE17from_raw_parts_inBI_, symObjAddr: 0x7510, symBinAddr: 0x100027F00, symSize: 0xA0 }
  - { offset: 0x90C57, size: 0x8, addend: 0x0, symName: __RNvMs_NtCslJiobkLta79_5alloc3vecINtB4_3VecNtNtCs4xvdaJ1JWuv_14cranelift_isle10trie_again9BindingIdE3lenBI_, symObjAddr: 0x75B0, symBinAddr: 0x100027FA0, symSize: 0x10 }
  - { offset: 0x90DA5, size: 0x8, addend: 0x0, symName: __RNvMs_NtCslJiobkLta79_5alloc3vecINtB4_3VecNtNtCs4xvdaJ1JWuv_14cranelift_isle10trie_again9BindingIdE3popBI_, symObjAddr: 0x75C0, symBinAddr: 0x100027FB0, symSize: 0xD0 }
  - { offset: 0x90F3A, size: 0x8, addend: 0x0, symName: __RNvMs_NtCslJiobkLta79_5alloc3vecINtB4_3VecNtNtCs4xvdaJ1JWuv_14cranelift_isle10trie_again9BindingIdE4pushBI_, symObjAddr: 0x7690, symBinAddr: 0x100028080, symSize: 0x30 }
  - { offset: 0x91087, size: 0x8, addend: 0x0, symName: __RNvMs_NtCslJiobkLta79_5alloc3vecINtB4_3VecNtNtCs4xvdaJ1JWuv_14cranelift_isle10trie_again9BindingIdE7reserveBI_, symObjAddr: 0x76C0, symBinAddr: 0x1000280B0, symSize: 0xB0 }
  - { offset: 0x91264, size: 0x8, addend: 0x0, symName: __RNvMs_NtCslJiobkLta79_5alloc3vecINtB4_3VecNtNtCs4xvdaJ1JWuv_14cranelift_isle10trie_again9BindingIdE8as_sliceBI_, symObjAddr: 0x7770, symBinAddr: 0x100028160, symSize: 0x50 }
  - { offset: 0x913FD, size: 0x8, addend: 0x0, symName: __RNvMs_NtCslJiobkLta79_5alloc3vecINtB4_3VecNtNtCs4xvdaJ1JWuv_14cranelift_isle10trie_again9BindingIdE8push_mutBI_, symObjAddr: 0x77C0, symBinAddr: 0x1000281B0, symSize: 0xD0 }
  - { offset: 0x916BF, size: 0x8, addend: 0x0, symName: __RNvMs_NtCslJiobkLta79_5alloc3vecINtB4_3VecNtNtCs4xvdaJ1JWuv_14cranelift_isle3ast3DefE15append_elementsBI_, symObjAddr: 0x7890, symBinAddr: 0x100028280, symSize: 0xC0 }
  - { offset: 0x91861, size: 0x8, addend: 0x0, symName: __RNvMs_NtCslJiobkLta79_5alloc3vecINtB4_3VecNtNtCs4xvdaJ1JWuv_14cranelift_isle3ast3DefE4pushBI_, symObjAddr: 0x7950, symBinAddr: 0x100028340, symSize: 0x20 }
  - { offset: 0x91A0F, size: 0x8, addend: 0x0, symName: __RNvMs_NtCslJiobkLta79_5alloc3vecINtB4_3VecNtNtCs4xvdaJ1JWuv_14cranelift_isle3ast3DefE6appendBI_, symObjAddr: 0x7970, symBinAddr: 0x100028360, symSize: 0xC0 }
  - { offset: 0x91CC0, size: 0x8, addend: 0x0, symName: __RNvMs_NtCslJiobkLta79_5alloc3vecINtB4_3VecNtNtCs4xvdaJ1JWuv_14cranelift_isle3ast3DefE7reserveBI_, symObjAddr: 0x7A30, symBinAddr: 0x100028420, symSize: 0xB0 }
  - { offset: 0x91E9D, size: 0x8, addend: 0x0, symName: __RNvMs_NtCslJiobkLta79_5alloc3vecINtB4_3VecNtNtCs4xvdaJ1JWuv_14cranelift_isle3ast3DefE8as_sliceBI_, symObjAddr: 0x7AE0, symBinAddr: 0x1000284D0, symSize: 0x50 }
  - { offset: 0x92043, size: 0x8, addend: 0x0, symName: __RNvMs_NtCslJiobkLta79_5alloc3vecINtB4_3VecNtNtCs4xvdaJ1JWuv_14cranelift_isle3ast3DefE8push_mutBI_, symObjAddr: 0x7B30, symBinAddr: 0x100028520, symSize: 0x130 }
  - { offset: 0x922D9, size: 0x8, addend: 0x0, symName: __RNvMs_NtCslJiobkLta79_5alloc3vecINtB4_3VecNtNtCs4xvdaJ1JWuv_14cranelift_isle3ast4ExprE17from_raw_parts_inBI_, symObjAddr: 0x7C60, symBinAddr: 0x100028650, symSize: 0xA0 }
  - { offset: 0x9246D, size: 0x8, addend: 0x0, symName: __RNvMs_NtCslJiobkLta79_5alloc3vecINtB4_3VecNtNtCs4xvdaJ1JWuv_14cranelift_isle3ast4ExprE4pushBI_, symObjAddr: 0x7D00, symBinAddr: 0x1000286F0, symSize: 0x20 }
  - { offset: 0x92550, size: 0x8, addend: 0x0, symName: __RNvMs_NtCslJiobkLta79_5alloc3vecINtB4_3VecNtNtCs4xvdaJ1JWuv_14cranelift_isle3ast4ExprE7set_lenBI_, symObjAddr: 0x7D20, symBinAddr: 0x100028710, symSize: 0x70 }
  - { offset: 0x926C0, size: 0x8, addend: 0x0, symName: __RNvMs_NtCslJiobkLta79_5alloc3vecINtB4_3VecNtNtCs4xvdaJ1JWuv_14cranelift_isle3ast4ExprE8as_sliceBI_, symObjAddr: 0x7D90, symBinAddr: 0x100028780, symSize: 0x50 }
  - { offset: 0x92866, size: 0x8, addend: 0x0, symName: __RNvMs_NtCslJiobkLta79_5alloc3vecINtB4_3VecNtNtCs4xvdaJ1JWuv_14cranelift_isle3ast4ExprE8push_mutBI_, symObjAddr: 0x7DE0, symBinAddr: 0x1000287D0, symSize: 0x130 }
  - { offset: 0x92A28, size: 0x8, addend: 0x0, symName: __RNvMs_NtCslJiobkLta79_5alloc3vecINtB4_3VecNtNtCs4xvdaJ1JWuv_14cranelift_isle3ast5FieldE4pushBI_, symObjAddr: 0x7F10, symBinAddr: 0x100028900, symSize: 0x20 }
  - { offset: 0x92B80, size: 0x8, addend: 0x0, symName: __RNvMs_NtCslJiobkLta79_5alloc3vecINtB4_3VecNtNtCs4xvdaJ1JWuv_14cranelift_isle3ast5FieldE8push_mutBI_, symObjAddr: 0x7F30, symBinAddr: 0x100028920, symSize: 0x130 }
  - { offset: 0x92D42, size: 0x8, addend: 0x0, symName: __RNvMs_NtCslJiobkLta79_5alloc3vecINtB4_3VecNtNtCs4xvdaJ1JWuv_14cranelift_isle3ast5IdentE4pushBI_, symObjAddr: 0x8060, symBinAddr: 0x100028A50, symSize: 0x20 }
  - { offset: 0x92E1E, size: 0x8, addend: 0x0, symName: __RNvMs_NtCslJiobkLta79_5alloc3vecINtB4_3VecNtNtCs4xvdaJ1JWuv_14cranelift_isle3ast5IdentE8as_sliceBI_, symObjAddr: 0x8080, symBinAddr: 0x100028A70, symSize: 0x50 }
  - { offset: 0x92FC4, size: 0x8, addend: 0x0, symName: __RNvMs_NtCslJiobkLta79_5alloc3vecINtB4_3VecNtNtCs4xvdaJ1JWuv_14cranelift_isle3ast5IdentE8push_mutBI_, symObjAddr: 0x80D0, symBinAddr: 0x100028AC0, symSize: 0x130 }
  - { offset: 0x93186, size: 0x8, addend: 0x0, symName: __RNvMs_NtCslJiobkLta79_5alloc3vecINtB4_3VecNtNtCs4xvdaJ1JWuv_14cranelift_isle3ast5IfLetE4pushBI_, symObjAddr: 0x8200, symBinAddr: 0x100028BF0, symSize: 0x20 }
  - { offset: 0x93289, size: 0x8, addend: 0x0, symName: __RNvMs_NtCslJiobkLta79_5alloc3vecINtB4_3VecNtNtCs4xvdaJ1JWuv_14cranelift_isle3ast5IfLetE8as_sliceBI_, symObjAddr: 0x8220, symBinAddr: 0x100028C10, symSize: 0x50 }
  - { offset: 0x9342F, size: 0x8, addend: 0x0, symName: __RNvMs_NtCslJiobkLta79_5alloc3vecINtB4_3VecNtNtCs4xvdaJ1JWuv_14cranelift_isle3ast5IfLetE8push_mutBI_, symObjAddr: 0x8270, symBinAddr: 0x100028C60, symSize: 0x140 }
  - { offset: 0x935F1, size: 0x8, addend: 0x0, symName: __RNvMs_NtCslJiobkLta79_5alloc3vecINtB4_3VecNtNtCs4xvdaJ1JWuv_14cranelift_isle3ast6LetDefE4pushBI_, symObjAddr: 0x83B0, symBinAddr: 0x100028DA0, symSize: 0x20 }
  - { offset: 0x936D4, size: 0x8, addend: 0x0, symName: __RNvMs_NtCslJiobkLta79_5alloc3vecINtB4_3VecNtNtCs4xvdaJ1JWuv_14cranelift_isle3ast6LetDefE7set_lenBI_, symObjAddr: 0x83D0, symBinAddr: 0x100028DC0, symSize: 0x70 }
  - { offset: 0x938B3, size: 0x8, addend: 0x0, symName: __RNvMs_NtCslJiobkLta79_5alloc3vecINtB4_3VecNtNtCs4xvdaJ1JWuv_14cranelift_isle3ast6LetDefE8push_mutBI_, symObjAddr: 0x8440, symBinAddr: 0x100028E30, symSize: 0x130 }
  - { offset: 0x93B3C, size: 0x8, addend: 0x0, symName: __RNvMs_NtCslJiobkLta79_5alloc3vecINtB4_3VecNtNtCs4xvdaJ1JWuv_14cranelift_isle3ast7PatternE17from_raw_parts_inBI_, symObjAddr: 0x8570, symBinAddr: 0x100028F60, symSize: 0xA0 }
  - { offset: 0x93CC3, size: 0x8, addend: 0x0, symName: __RNvMs_NtCslJiobkLta79_5alloc3vecINtB4_3VecNtNtCs4xvdaJ1JWuv_14cranelift_isle3ast7PatternE4pushBI_, symObjAddr: 0x8610, symBinAddr: 0x100029000, symSize: 0x20 }
  - { offset: 0x93E1E, size: 0x8, addend: 0x0, symName: __RNvMs_NtCslJiobkLta79_5alloc3vecINtB4_3VecNtNtCs4xvdaJ1JWuv_14cranelift_isle3ast7PatternE7reserveBI_, symObjAddr: 0x8630, symBinAddr: 0x100029020, symSize: 0xB0 }
  - { offset: 0x9400F, size: 0x8, addend: 0x0, symName: __RNvMs_NtCslJiobkLta79_5alloc3vecINtB4_3VecNtNtCs4xvdaJ1JWuv_14cranelift_isle3ast7PatternE7set_lenBI_, symObjAddr: 0x86E0, symBinAddr: 0x1000290D0, symSize: 0x70 }
  - { offset: 0x94158, size: 0x8, addend: 0x0, symName: __RNvMs_NtCslJiobkLta79_5alloc3vecINtB4_3VecNtNtCs4xvdaJ1JWuv_14cranelift_isle3ast7PatternE8as_sliceBI_, symObjAddr: 0x8750, symBinAddr: 0x100029140, symSize: 0x50 }
  - { offset: 0x942FE, size: 0x8, addend: 0x0, symName: __RNvMs_NtCslJiobkLta79_5alloc3vecINtB4_3VecNtNtCs4xvdaJ1JWuv_14cranelift_isle3ast7PatternE8push_mutBI_, symObjAddr: 0x87A0, symBinAddr: 0x100029190, symSize: 0x130 }
  - { offset: 0x944C0, size: 0x8, addend: 0x0, symName: __RNvMs_NtCslJiobkLta79_5alloc3vecINtB4_3VecNtNtCs4xvdaJ1JWuv_14cranelift_isle3ast7VariantE4pushBI_, symObjAddr: 0x88D0, symBinAddr: 0x1000292C0, symSize: 0x20 }
  - { offset: 0x94618, size: 0x8, addend: 0x0, symName: __RNvMs_NtCslJiobkLta79_5alloc3vecINtB4_3VecNtNtCs4xvdaJ1JWuv_14cranelift_isle3ast7VariantE8push_mutBI_, symObjAddr: 0x88F0, symBinAddr: 0x1000292E0, symSize: 0x130 }
  - { offset: 0x947DA, size: 0x8, addend: 0x0, symName: __RNvMs_NtCslJiobkLta79_5alloc3vecINtB4_3VecNtNtCs4xvdaJ1JWuv_14cranelift_isle3ast8SpecExprE4pushBI_, symObjAddr: 0x8A20, symBinAddr: 0x100029410, symSize: 0x20 }
  - { offset: 0x94932, size: 0x8, addend: 0x0, symName: __RNvMs_NtCslJiobkLta79_5alloc3vecINtB4_3VecNtNtCs4xvdaJ1JWuv_14cranelift_isle3ast8SpecExprE8push_mutBI_, symObjAddr: 0x8A40, symBinAddr: 0x100029430, symSize: 0x130 }
  - { offset: 0x94AF4, size: 0x8, addend: 0x0, symName: __RNvMs_NtCslJiobkLta79_5alloc3vecINtB4_3VecNtNtCs4xvdaJ1JWuv_14cranelift_isle3ast9ModelTypeE4pushBI_, symObjAddr: 0x8B70, symBinAddr: 0x100029560, symSize: 0x20 }
  - { offset: 0x94C4B, size: 0x8, addend: 0x0, symName: __RNvMs_NtCslJiobkLta79_5alloc3vecINtB4_3VecNtNtCs4xvdaJ1JWuv_14cranelift_isle3ast9ModelTypeE8push_mutBI_, symObjAddr: 0x8B90, symBinAddr: 0x100029580, symSize: 0xF0 }
  - { offset: 0x94E0E, size: 0x8, addend: 0x0, symName: __RNvMs_NtCslJiobkLta79_5alloc3vecINtB4_3VecNtNtCs4xvdaJ1JWuv_14cranelift_isle3ast9SignatureE4pushBI_, symObjAddr: 0x8C80, symBinAddr: 0x100029670, symSize: 0x20 }
  - { offset: 0x94F66, size: 0x8, addend: 0x0, symName: __RNvMs_NtCslJiobkLta79_5alloc3vecINtB4_3VecNtNtCs4xvdaJ1JWuv_14cranelift_isle3ast9SignatureE8push_mutBI_, symObjAddr: 0x8CA0, symBinAddr: 0x100029690, symSize: 0x130 }
  - { offset: 0x95231, size: 0x8, addend: 0x0, symName: __RNvMs_NtCslJiobkLta79_5alloc3vecINtB4_3VecNtNtCs4xvdaJ1JWuv_14cranelift_isle4sema4ExprE7reserveBI_, symObjAddr: 0x8DD0, symBinAddr: 0x1000297C0, symSize: 0xB0 }
  - { offset: 0x95435, size: 0x8, addend: 0x0, symName: __RNvMs_NtCslJiobkLta79_5alloc3vecINtB4_3VecNtNtCs4xvdaJ1JWuv_14cranelift_isle4sema4ExprE8as_sliceBI_, symObjAddr: 0x8E80, symBinAddr: 0x100029870, symSize: 0x50 }
  - { offset: 0x954FC, size: 0x8, addend: 0x0, symName: __RNvMs_NtCslJiobkLta79_5alloc3vecINtB4_3VecNtNtCs4xvdaJ1JWuv_14cranelift_isle4sema4RuleE3lenBI_, symObjAddr: 0x8ED0, symBinAddr: 0x1000298C0, symSize: 0x10 }
  - { offset: 0x9553E, size: 0x8, addend: 0x0, symName: __RNvMs_NtCslJiobkLta79_5alloc3vecINtB4_3VecNtNtCs4xvdaJ1JWuv_14cranelift_isle4sema4RuleE4pushBI_, symObjAddr: 0x8EE0, symBinAddr: 0x1000298D0, symSize: 0x20 }
  - { offset: 0x95641, size: 0x8, addend: 0x0, symName: __RNvMs_NtCslJiobkLta79_5alloc3vecINtB4_3VecNtNtCs4xvdaJ1JWuv_14cranelift_isle4sema4RuleE8as_sliceBI_, symObjAddr: 0x8F00, symBinAddr: 0x1000298F0, symSize: 0x50 }
  - { offset: 0x957E7, size: 0x8, addend: 0x0, symName: __RNvMs_NtCslJiobkLta79_5alloc3vecINtB4_3VecNtNtCs4xvdaJ1JWuv_14cranelift_isle4sema4RuleE8push_mutBI_, symObjAddr: 0x8F50, symBinAddr: 0x100029940, symSize: 0x140 }
  - { offset: 0x959A9, size: 0x8, addend: 0x0, symName: __RNvMs_NtCslJiobkLta79_5alloc3vecINtB4_3VecNtNtCs4xvdaJ1JWuv_14cranelift_isle4sema4TermE3lenBI_, symObjAddr: 0x9090, symBinAddr: 0x100029A80, symSize: 0x10 }
  - { offset: 0x959EB, size: 0x8, addend: 0x0, symName: __RNvMs_NtCslJiobkLta79_5alloc3vecINtB4_3VecNtNtCs4xvdaJ1JWuv_14cranelift_isle4sema4TermE4pushBI_, symObjAddr: 0x90A0, symBinAddr: 0x100029A90, symSize: 0x20 }
  - { offset: 0x95B43, size: 0x8, addend: 0x0, symName: __RNvMs_NtCslJiobkLta79_5alloc3vecINtB4_3VecNtNtCs4xvdaJ1JWuv_14cranelift_isle4sema4TermE8push_mutBI_, symObjAddr: 0x90C0, symBinAddr: 0x100029AB0, symSize: 0x140 }
  - { offset: 0x95D05, size: 0x8, addend: 0x0, symName: __RNvMs_NtCslJiobkLta79_5alloc3vecINtB4_3VecNtNtCs4xvdaJ1JWuv_14cranelift_isle4sema4TypeE3lenBI_, symObjAddr: 0x9200, symBinAddr: 0x100029BF0, symSize: 0x10 }
  - { offset: 0x95D47, size: 0x8, addend: 0x0, symName: __RNvMs_NtCslJiobkLta79_5alloc3vecINtB4_3VecNtNtCs4xvdaJ1JWuv_14cranelift_isle4sema4TypeE4pushBI_, symObjAddr: 0x9210, symBinAddr: 0x100029C00, symSize: 0x20 }
  - { offset: 0x95E4A, size: 0x8, addend: 0x0, symName: __RNvMs_NtCslJiobkLta79_5alloc3vecINtB4_3VecNtNtCs4xvdaJ1JWuv_14cranelift_isle4sema4TypeE8as_sliceBI_, symObjAddr: 0x9230, symBinAddr: 0x100029C20, symSize: 0x50 }
  - { offset: 0x95FF0, size: 0x8, addend: 0x0, symName: __RNvMs_NtCslJiobkLta79_5alloc3vecINtB4_3VecNtNtCs4xvdaJ1JWuv_14cranelift_isle4sema4TypeE8push_mutBI_, symObjAddr: 0x9280, symBinAddr: 0x100029C70, symSize: 0x130 }
  - { offset: 0x961B2, size: 0x8, addend: 0x0, symName: __RNvMs_NtCslJiobkLta79_5alloc3vecINtB4_3VecNtNtCs4xvdaJ1JWuv_14cranelift_isle4sema5FieldE3lenBI_, symObjAddr: 0x93B0, symBinAddr: 0x100029DA0, symSize: 0x10 }
  - { offset: 0x961F4, size: 0x8, addend: 0x0, symName: __RNvMs_NtCslJiobkLta79_5alloc3vecINtB4_3VecNtNtCs4xvdaJ1JWuv_14cranelift_isle4sema5FieldE4pushBI_, symObjAddr: 0x93C0, symBinAddr: 0x100029DB0, symSize: 0x20 }
  - { offset: 0x962EA, size: 0x8, addend: 0x0, symName: __RNvMs_NtCslJiobkLta79_5alloc3vecINtB4_3VecNtNtCs4xvdaJ1JWuv_14cranelift_isle4sema5FieldE8as_sliceBI_, symObjAddr: 0x93E0, symBinAddr: 0x100029DD0, symSize: 0x50 }
  - { offset: 0x963C9, size: 0x8, addend: 0x0, symName: __RNvMs_NtCslJiobkLta79_5alloc3vecINtB4_3VecNtNtCs4xvdaJ1JWuv_14cranelift_isle4sema5FieldE8is_emptyBI_, symObjAddr: 0x9430, symBinAddr: 0x100029E20, symSize: 0x20 }
  - { offset: 0x96508, size: 0x8, addend: 0x0, symName: __RNvMs_NtCslJiobkLta79_5alloc3vecINtB4_3VecNtNtCs4xvdaJ1JWuv_14cranelift_isle4sema5FieldE8push_mutBI_, symObjAddr: 0x9450, symBinAddr: 0x100029E40, symSize: 0xF0 }
  - { offset: 0x967D3, size: 0x8, addend: 0x0, symName: __RNvMs_NtCslJiobkLta79_5alloc3vecINtB4_3VecNtNtCs4xvdaJ1JWuv_14cranelift_isle4sema5IfLetE7reserveBI_, symObjAddr: 0x9540, symBinAddr: 0x100029F30, symSize: 0xB0 }
  - { offset: 0x969D7, size: 0x8, addend: 0x0, symName: __RNvMs_NtCslJiobkLta79_5alloc3vecINtB4_3VecNtNtCs4xvdaJ1JWuv_14cranelift_isle4sema5IfLetE8as_sliceBI_, symObjAddr: 0x95F0, symBinAddr: 0x100029FE0, symSize: 0x50 }
  - { offset: 0x96B72, size: 0x8, addend: 0x0, symName: __RNvMs_NtCslJiobkLta79_5alloc3vecINtB4_3VecNtNtCs4xvdaJ1JWuv_14cranelift_isle4sema6TermIdE17from_raw_parts_inBI_, symObjAddr: 0x9640, symBinAddr: 0x10002A030, symSize: 0xA0 }
  - { offset: 0x96D06, size: 0x8, addend: 0x0, symName: __RNvMs_NtCslJiobkLta79_5alloc3vecINtB4_3VecNtNtCs4xvdaJ1JWuv_14cranelift_isle4sema6TermIdE4pushBI_, symObjAddr: 0x96E0, symBinAddr: 0x10002A0D0, symSize: 0x20 }
  - { offset: 0x96DEE, size: 0x8, addend: 0x0, symName: __RNvMs_NtCslJiobkLta79_5alloc3vecINtB4_3VecNtNtCs4xvdaJ1JWuv_14cranelift_isle4sema6TermIdE8as_sliceBI_, symObjAddr: 0x9700, symBinAddr: 0x10002A0F0, symSize: 0x50 }
  - { offset: 0x96F94, size: 0x8, addend: 0x0, symName: __RNvMs_NtCslJiobkLta79_5alloc3vecINtB4_3VecNtNtCs4xvdaJ1JWuv_14cranelift_isle4sema6TermIdE8push_mutBI_, symObjAddr: 0x9750, symBinAddr: 0x10002A140, symSize: 0xD0 }
  - { offset: 0x9721D, size: 0x8, addend: 0x0, symName: __RNvMs_NtCslJiobkLta79_5alloc3vecINtB4_3VecNtNtCs4xvdaJ1JWuv_14cranelift_isle4sema6TypeIdE17from_raw_parts_inBI_, symObjAddr: 0x9820, symBinAddr: 0x10002A210, symSize: 0xA0 }
  - { offset: 0x973A4, size: 0x8, addend: 0x0, symName: __RNvMs_NtCslJiobkLta79_5alloc3vecINtB4_3VecNtNtCs4xvdaJ1JWuv_14cranelift_isle4sema6TypeIdE3lenBI_, symObjAddr: 0x98C0, symBinAddr: 0x10002A2B0, symSize: 0x10 }
  - { offset: 0x974EF, size: 0x8, addend: 0x0, symName: __RNvMs_NtCslJiobkLta79_5alloc3vecINtB4_3VecNtNtCs4xvdaJ1JWuv_14cranelift_isle4sema6TypeIdE7reserveBI_, symObjAddr: 0x98D0, symBinAddr: 0x10002A2C0, symSize: 0xB0 }
  - { offset: 0x976F3, size: 0x8, addend: 0x0, symName: __RNvMs_NtCslJiobkLta79_5alloc3vecINtB4_3VecNtNtCs4xvdaJ1JWuv_14cranelift_isle4sema6TypeIdE8as_sliceBI_, symObjAddr: 0x9980, symBinAddr: 0x10002A370, symSize: 0x50 }
  - { offset: 0x978C3, size: 0x8, addend: 0x0, symName: __RNvMs_NtCslJiobkLta79_5alloc3vecINtB4_3VecNtNtCs4xvdaJ1JWuv_14cranelift_isle4sema7PatternE7reserveBI_, symObjAddr: 0x99D0, symBinAddr: 0x10002A3C0, symSize: 0xB0 }
  - { offset: 0x97AC7, size: 0x8, addend: 0x0, symName: __RNvMs_NtCslJiobkLta79_5alloc3vecINtB4_3VecNtNtCs4xvdaJ1JWuv_14cranelift_isle4sema7PatternE8as_sliceBI_, symObjAddr: 0x9A80, symBinAddr: 0x10002A470, symSize: 0x50 }
  - { offset: 0x97B8E, size: 0x8, addend: 0x0, symName: __RNvMs_NtCslJiobkLta79_5alloc3vecINtB4_3VecNtNtCs4xvdaJ1JWuv_14cranelift_isle4sema7VariantE3lenBI_, symObjAddr: 0x9AD0, symBinAddr: 0x10002A4C0, symSize: 0x10 }
  - { offset: 0x97BD0, size: 0x8, addend: 0x0, symName: __RNvMs_NtCslJiobkLta79_5alloc3vecINtB4_3VecNtNtCs4xvdaJ1JWuv_14cranelift_isle4sema7VariantE4pushBI_, symObjAddr: 0x9AE0, symBinAddr: 0x10002A4D0, symSize: 0x20 }
  - { offset: 0x97CD3, size: 0x8, addend: 0x0, symName: __RNvMs_NtCslJiobkLta79_5alloc3vecINtB4_3VecNtNtCs4xvdaJ1JWuv_14cranelift_isle4sema7VariantE8as_sliceBI_, symObjAddr: 0x9B00, symBinAddr: 0x10002A4F0, symSize: 0x50 }
  - { offset: 0x97E79, size: 0x8, addend: 0x0, symName: __RNvMs_NtCslJiobkLta79_5alloc3vecINtB4_3VecNtNtCs4xvdaJ1JWuv_14cranelift_isle4sema7VariantE8push_mutBI_, symObjAddr: 0x9B50, symBinAddr: 0x10002A540, symSize: 0x130 }
  - { offset: 0x9803B, size: 0x8, addend: 0x0, symName: __RNvMs_NtCslJiobkLta79_5alloc3vecINtB4_3VecNtNtCs4xvdaJ1JWuv_14cranelift_isle4sema8BoundVarE3lenBI_, symObjAddr: 0x9C80, symBinAddr: 0x10002A670, symSize: 0x10 }
  - { offset: 0x9807D, size: 0x8, addend: 0x0, symName: __RNvMs_NtCslJiobkLta79_5alloc3vecINtB4_3VecNtNtCs4xvdaJ1JWuv_14cranelift_isle4sema8BoundVarE4pushBI_, symObjAddr: 0x9C90, symBinAddr: 0x10002A680, symSize: 0x20 }
  - { offset: 0x98180, size: 0x8, addend: 0x0, symName: __RNvMs_NtCslJiobkLta79_5alloc3vecINtB4_3VecNtNtCs4xvdaJ1JWuv_14cranelift_isle4sema8BoundVarE8as_sliceBI_, symObjAddr: 0x9CB0, symBinAddr: 0x10002A6A0, symSize: 0x50 }
  - { offset: 0x98326, size: 0x8, addend: 0x0, symName: __RNvMs_NtCslJiobkLta79_5alloc3vecINtB4_3VecNtNtCs4xvdaJ1JWuv_14cranelift_isle4sema8BoundVarE8push_mutBI_, symObjAddr: 0x9D00, symBinAddr: 0x10002A6F0, symSize: 0x110 }
  - { offset: 0x985AF, size: 0x8, addend: 0x0, symName: __RNvMs_NtCslJiobkLta79_5alloc3vecINtB4_3VecNtNtCs4xvdaJ1JWuv_14cranelift_isle5error4SpanE17from_raw_parts_inBI_, symObjAddr: 0x9E10, symBinAddr: 0x10002A800, symSize: 0xA0 }
  - { offset: 0x9884C, size: 0x8, addend: 0x0, symName: __RNvMs_NtCslJiobkLta79_5alloc3vecINtB4_3VecNtNtCs4xvdaJ1JWuv_14cranelift_isle5error4SpanE7reserveBI_, symObjAddr: 0x9EB0, symBinAddr: 0x10002A8A0, symSize: 0xB0 }
  - { offset: 0x98A50, size: 0x8, addend: 0x0, symName: __RNvMs_NtCslJiobkLta79_5alloc3vecINtB4_3VecNtNtCs4xvdaJ1JWuv_14cranelift_isle5error4SpanE8as_sliceBI_, symObjAddr: 0x9F60, symBinAddr: 0x10002A950, symSize: 0x50 }
  - { offset: 0x98BB1, size: 0x8, addend: 0x0, symName: __RNvMs_NtCslJiobkLta79_5alloc3vecINtB4_3VecNtNtCs4xvdaJ1JWuv_14cranelift_isle5error5ErrorE12as_mut_sliceBI_, symObjAddr: 0x9FB0, symBinAddr: 0x10002A9A0, symSize: 0x50 }
  - { offset: 0x98D43, size: 0x8, addend: 0x0, symName: __RNvMs_NtCslJiobkLta79_5alloc3vecINtB4_3VecNtNtCs4xvdaJ1JWuv_14cranelift_isle5error5ErrorE15append_elementsBI_, symObjAddr: 0xA000, symBinAddr: 0x10002A9F0, symSize: 0xC0 }
  - { offset: 0x98FB9, size: 0x8, addend: 0x0, symName: __RNvMs_NtCslJiobkLta79_5alloc3vecINtB4_3VecNtNtCs4xvdaJ1JWuv_14cranelift_isle5error5ErrorE17from_raw_parts_inBI_, symObjAddr: 0xA0C0, symBinAddr: 0x10002AAB0, symSize: 0xA0 }
  - { offset: 0x99140, size: 0x8, addend: 0x0, symName: __RNvMs_NtCslJiobkLta79_5alloc3vecINtB4_3VecNtNtCs4xvdaJ1JWuv_14cranelift_isle5error5ErrorE3lenBI_, symObjAddr: 0xA160, symBinAddr: 0x10002AB50, symSize: 0x10 }
  - { offset: 0x99175, size: 0x8, addend: 0x0, symName: __RNvMs_NtCslJiobkLta79_5alloc3vecINtB4_3VecNtNtCs4xvdaJ1JWuv_14cranelift_isle5error5ErrorE4pushBI_, symObjAddr: 0xA170, symBinAddr: 0x10002AB60, symSize: 0x20 }
  - { offset: 0x99323, size: 0x8, addend: 0x0, symName: __RNvMs_NtCslJiobkLta79_5alloc3vecINtB4_3VecNtNtCs4xvdaJ1JWuv_14cranelift_isle5error5ErrorE6appendBI_, symObjAddr: 0xA190, symBinAddr: 0x10002AB80, symSize: 0xC0 }
  - { offset: 0x995D4, size: 0x8, addend: 0x0, symName: __RNvMs_NtCslJiobkLta79_5alloc3vecINtB4_3VecNtNtCs4xvdaJ1JWuv_14cranelift_isle5error5ErrorE7reserveBI_, symObjAddr: 0xA250, symBinAddr: 0x10002AC40, symSize: 0xB0 }
  - { offset: 0x997B1, size: 0x8, addend: 0x0, symName: __RNvMs_NtCslJiobkLta79_5alloc3vecINtB4_3VecNtNtCs4xvdaJ1JWuv_14cranelift_isle5error5ErrorE8as_sliceBI_, symObjAddr: 0xA300, symBinAddr: 0x10002ACF0, symSize: 0x50 }
  - { offset: 0x99890, size: 0x8, addend: 0x0, symName: __RNvMs_NtCslJiobkLta79_5alloc3vecINtB4_3VecNtNtCs4xvdaJ1JWuv_14cranelift_isle5error5ErrorE8is_emptyBI_, symObjAddr: 0xA350, symBinAddr: 0x10002AD40, symSize: 0x20 }
  - { offset: 0x999CF, size: 0x8, addend: 0x0, symName: __RNvMs_NtCslJiobkLta79_5alloc3vecINtB4_3VecNtNtCs4xvdaJ1JWuv_14cranelift_isle5error5ErrorE8push_mutBI_, symObjAddr: 0xA370, symBinAddr: 0x10002AD60, symSize: 0x130 }
  - { offset: 0x99B91, size: 0x8, addend: 0x0, symName: __RNvMs_NtCslJiobkLta79_5alloc3vecINtB4_3VecNtNtCs4xvdaJ1JWuv_14cranelift_isle5files7LineMapE4pushBI_, symObjAddr: 0xA4A0, symBinAddr: 0x10002AE90, symSize: 0x20 }
  - { offset: 0x99CA1, size: 0x8, addend: 0x0, symName: __RNvMs_NtCslJiobkLta79_5alloc3vecINtB4_3VecNtNtCs4xvdaJ1JWuv_14cranelift_isle5files7LineMapE8as_sliceBI_, symObjAddr: 0xA4C0, symBinAddr: 0x10002AEB0, symSize: 0x50 }
  - { offset: 0x99E47, size: 0x8, addend: 0x0, symName: __RNvMs_NtCslJiobkLta79_5alloc3vecINtB4_3VecNtNtCs4xvdaJ1JWuv_14cranelift_isle5files7LineMapE8push_mutBI_, symObjAddr: 0xA510, symBinAddr: 0x10002AF00, symSize: 0x110 }
  - { offset: 0x9A009, size: 0x8, addend: 0x0, symName: __RNvMs_NtCslJiobkLta79_5alloc3vecINtB4_3VecNtNtCs4xvdaJ1JWuv_14cranelift_isle5lexer3PosE4pushBI_, symObjAddr: 0xA620, symBinAddr: 0x10002B010, symSize: 0x20 }
  - { offset: 0x9A153, size: 0x8, addend: 0x0, symName: __RNvMs_NtCslJiobkLta79_5alloc3vecINtB4_3VecNtNtCs4xvdaJ1JWuv_14cranelift_isle5lexer3PosE8push_mutBI_, symObjAddr: 0xA640, symBinAddr: 0x10002B030, symSize: 0xF0 }
  - { offset: 0x9A41F, size: 0x8, addend: 0x0, symName: __RNvMs_NtCslJiobkLta79_5alloc3vecINtB4_3VecNtNtCs4xvdaJ1JWuv_14cranelift_isle9serialize12BindingStateE7reserveBI_, symObjAddr: 0xA730, symBinAddr: 0x10002B120, symSize: 0xB0 }
  - { offset: 0x9A633, size: 0x8, addend: 0x0, symName: __RNvMs_NtCslJiobkLta79_5alloc3vecINtB4_3VecNtNtCs4xvdaJ1JWuv_14cranelift_isle9serialize14EqualCandidateE12as_mut_sliceBI_, symObjAddr: 0xA7E0, symBinAddr: 0x10002B1D0, symSize: 0x50 }
  - { offset: 0x9A702, size: 0x8, addend: 0x0, symName: __RNvMs_NtCslJiobkLta79_5alloc3vecINtB4_3VecNtNtCs4xvdaJ1JWuv_14cranelift_isle9serialize14EqualCandidateE4pushBI_, symObjAddr: 0xA830, symBinAddr: 0x10002B220, symSize: 0x20 }
  - { offset: 0x9A7CB, size: 0x8, addend: 0x0, symName: __RNvMs_NtCslJiobkLta79_5alloc3vecINtB4_3VecNtNtCs4xvdaJ1JWuv_14cranelift_isle9serialize14EqualCandidateE7set_lenBI_, symObjAddr: 0xA850, symBinAddr: 0x10002B240, symSize: 0x70 }
  - { offset: 0x9A932, size: 0x8, addend: 0x0, symName: __RNvMs_NtCslJiobkLta79_5alloc3vecINtB4_3VecNtNtCs4xvdaJ1JWuv_14cranelift_isle9serialize14EqualCandidateE8as_sliceBI_, symObjAddr: 0xA8C0, symBinAddr: 0x10002B2B0, symSize: 0x50 }
  - { offset: 0x9AACB, size: 0x8, addend: 0x0, symName: __RNvMs_NtCslJiobkLta79_5alloc3vecINtB4_3VecNtNtCs4xvdaJ1JWuv_14cranelift_isle9serialize14EqualCandidateE8push_mutBI_, symObjAddr: 0xA910, symBinAddr: 0x10002B300, symSize: 0xF0 }
  - { offset: 0x9AC8D, size: 0x8, addend: 0x0, symName: __RNvMs_NtCslJiobkLta79_5alloc3vecINtB4_3VecNtNtCs4xvdaJ1JWuv_14cranelift_isle9serialize8EvalStepE3lenBI_, symObjAddr: 0xAA00, symBinAddr: 0x10002B3F0, symSize: 0x10 }
  - { offset: 0x9ACCF, size: 0x8, addend: 0x0, symName: __RNvMs_NtCslJiobkLta79_5alloc3vecINtB4_3VecNtNtCs4xvdaJ1JWuv_14cranelift_isle9serialize8EvalStepE4pushBI_, symObjAddr: 0xAA10, symBinAddr: 0x10002B400, symSize: 0x20 }
  - { offset: 0x9ADC5, size: 0x8, addend: 0x0, symName: __RNvMs_NtCslJiobkLta79_5alloc3vecINtB4_3VecNtNtCs4xvdaJ1JWuv_14cranelift_isle9serialize8EvalStepE8as_sliceBI_, symObjAddr: 0xAA30, symBinAddr: 0x10002B420, symSize: 0x50 }
  - { offset: 0x9AF6B, size: 0x8, addend: 0x0, symName: __RNvMs_NtCslJiobkLta79_5alloc3vecINtB4_3VecNtNtCs4xvdaJ1JWuv_14cranelift_isle9serialize8EvalStepE8push_mutBI_, symObjAddr: 0xAA80, symBinAddr: 0x10002B470, symSize: 0x130 }
  - { offset: 0x9B12D, size: 0x8, addend: 0x0, symName: __RNvMs_NtCslJiobkLta79_5alloc3vecINtB4_3VecNtNtCs4xvdaJ1JWuv_14cranelift_isle9serialize8MatchArmE3lenBI_, symObjAddr: 0xABB0, symBinAddr: 0x10002B5A0, symSize: 0x10 }
  - { offset: 0x9B16F, size: 0x8, addend: 0x0, symName: __RNvMs_NtCslJiobkLta79_5alloc3vecINtB4_3VecNtNtCs4xvdaJ1JWuv_14cranelift_isle9serialize8MatchArmE4pushBI_, symObjAddr: 0xABC0, symBinAddr: 0x10002B5B0, symSize: 0x20 }
  - { offset: 0x9B265, size: 0x8, addend: 0x0, symName: __RNvMs_NtCslJiobkLta79_5alloc3vecINtB4_3VecNtNtCs4xvdaJ1JWuv_14cranelift_isle9serialize8MatchArmE8as_sliceBI_, symObjAddr: 0xABE0, symBinAddr: 0x10002B5D0, symSize: 0x50 }
  - { offset: 0x9B40B, size: 0x8, addend: 0x0, symName: __RNvMs_NtCslJiobkLta79_5alloc3vecINtB4_3VecNtNtCs4xvdaJ1JWuv_14cranelift_isle9serialize8MatchArmE8push_mutBI_, symObjAddr: 0xAC30, symBinAddr: 0x10002B620, symSize: 0x130 }
  - { offset: 0x9B5C0, size: 0x8, addend: 0x0, symName: __RNvMs_NtCslJiobkLta79_5alloc3vecINtB4_3VecNtNtCs4xvdaJ1JWuv_14cranelift_isle9serialize9CandidateE3lenBI_, symObjAddr: 0xAD60, symBinAddr: 0x10002B750, symSize: 0x10 }
  - { offset: 0x9B6DF, size: 0x8, addend: 0x0, symName: __RNvMs_NtCslJiobkLta79_5alloc3vecINtB4_3VecNtNtCs4xvdaJ1JWuv_14cranelift_isle9serialize9CandidateE5clearBI_, symObjAddr: 0xAD70, symBinAddr: 0x10002B760, symSize: 0x70 }
  - { offset: 0x9B93A, size: 0x8, addend: 0x0, symName: __RNvMs_NtCslJiobkLta79_5alloc3vecINtB4_3VecNtNtCs4xvdaJ1JWuv_14cranelift_isle9serialize9CandidateE7reserveBI_, symObjAddr: 0xADE0, symBinAddr: 0x10002B7D0, symSize: 0xB0 }
  - { offset: 0x9BB2B, size: 0x8, addend: 0x0, symName: __RNvMs_NtCslJiobkLta79_5alloc3vecINtB4_3VecNtNtCs4xvdaJ1JWuv_14cranelift_isle9serialize9CandidateE7set_lenBI_, symObjAddr: 0xAE90, symBinAddr: 0x10002B880, symSize: 0x70 }
  - { offset: 0x9BC92, size: 0x8, addend: 0x0, symName: __RNvMs_NtCslJiobkLta79_5alloc3vecINtB4_3VecNtNtCs4xvdaJ1JWuv_14cranelift_isle9serialize9CandidateE8as_sliceBI_, symObjAddr: 0xAF00, symBinAddr: 0x10002B8F0, symSize: 0x50 }
  - { offset: 0x9BE62, size: 0x8, addend: 0x0, symName: __RNvMs_NtCslJiobkLta79_5alloc3vecINtB4_3VecReE7reserveCs4xvdaJ1JWuv_14cranelift_isle, symObjAddr: 0xAF50, symBinAddr: 0x10002B940, symSize: 0xB0 }
  - { offset: 0x9C04C, size: 0x8, addend: 0x0, symName: __RNvMs_NtCslJiobkLta79_5alloc3vecINtB4_3VecReE8as_sliceCs4xvdaJ1JWuv_14cranelift_isle, symObjAddr: 0xB000, symBinAddr: 0x10002B9F0, symSize: 0x50 }
  - { offset: 0x9C260, size: 0x8, addend: 0x0, symName: __RNvMs_NtCslJiobkLta79_5alloc3vecINtB4_3VecTNtNtCs4xvdaJ1JWuv_14cranelift_isle10trie_again9BindingIdNtBH_10ConstraintEE3popBJ_, symObjAddr: 0xB050, symBinAddr: 0x10002BA40, symSize: 0x110 }
  - { offset: 0x9C3F5, size: 0x8, addend: 0x0, symName: __RNvMs_NtCslJiobkLta79_5alloc3vecINtB4_3VecTNtNtCs4xvdaJ1JWuv_14cranelift_isle10trie_again9BindingIdNtBH_10ConstraintEE4pushBJ_, symObjAddr: 0xB160, symBinAddr: 0x10002BB50, symSize: 0x20 }
  - { offset: 0x9C526, size: 0x8, addend: 0x0, symName: __RNvMs_NtCslJiobkLta79_5alloc3vecINtB4_3VecTNtNtCs4xvdaJ1JWuv_14cranelift_isle10trie_again9BindingIdNtBH_10ConstraintEE8push_mutBJ_, symObjAddr: 0xB180, symBinAddr: 0x10002BB70, symSize: 0x120 }
  - { offset: 0x9C7F1, size: 0x8, addend: 0x0, symName: __RNvMs_NtCslJiobkLta79_5alloc3vecINtB4_3VecTNtNtCs4xvdaJ1JWuv_14cranelift_isle10trie_again9BindingIdNtNtBJ_4sema6TypeIdEE7reserveBJ_, symObjAddr: 0xB2A0, symBinAddr: 0x10002BC90, symSize: 0xB0 }
  - { offset: 0x9C96B, size: 0x8, addend: 0x0, symName: __RNvMs_NtCslJiobkLta79_5alloc3vecINtB4_3VecTNtNtCs4xvdaJ1JWuv_14cranelift_isle3ast5IdentNtBH_8SpecExprEE4pushBJ_, symObjAddr: 0xB350, symBinAddr: 0x10002BD40, symSize: 0x20 }
  - { offset: 0x9CAC3, size: 0x8, addend: 0x0, symName: __RNvMs_NtCslJiobkLta79_5alloc3vecINtB4_3VecTNtNtCs4xvdaJ1JWuv_14cranelift_isle3ast5IdentNtBH_8SpecExprEE8push_mutBJ_, symObjAddr: 0xB370, symBinAddr: 0x10002BD60, symSize: 0x130 }
  - { offset: 0x9CC85, size: 0x8, addend: 0x0, symName: __RNvMs_NtCslJiobkLta79_5alloc3vecINtB4_3VecTNtNtCs4xvdaJ1JWuv_14cranelift_isle4sema5VarIdNtBH_6TypeIdINtNtB6_5boxed3BoxNtBH_4ExprEEE4pushBJ_, symObjAddr: 0xB4A0, symBinAddr: 0x10002BE90, symSize: 0x20 }
  - { offset: 0x9CDDD, size: 0x8, addend: 0x0, symName: __RNvMs_NtCslJiobkLta79_5alloc3vecINtB4_3VecTNtNtCs4xvdaJ1JWuv_14cranelift_isle4sema5VarIdNtBH_6TypeIdINtNtB6_5boxed3BoxNtBH_4ExprEEE8push_mutBJ_, symObjAddr: 0xB4C0, symBinAddr: 0x10002BEB0, symSize: 0x110 }
  - { offset: 0x9D0AB, size: 0x8, addend: 0x0, symName: __RNvMs_NtCslJiobkLta79_5alloc3vecINtB4_3VecTNtNtCs4xvdaJ1JWuv_14cranelift_isle4sema6TermIdIBv_BF_EINtNtBJ_12stablemapset9StableSetBF_EEE3popBJ_, symObjAddr: 0xB5D0, symBinAddr: 0x10002BFC0, symSize: 0x120 }
  - { offset: 0x9D240, size: 0x8, addend: 0x0, symName: __RNvMs_NtCslJiobkLta79_5alloc3vecINtB4_3VecTNtNtCs4xvdaJ1JWuv_14cranelift_isle4sema6TermIdIBv_BF_EINtNtBJ_12stablemapset9StableSetBF_EEE4pushBJ_, symObjAddr: 0xB6F0, symBinAddr: 0x10002C0E0, symSize: 0x20 }
  - { offset: 0x9D36F, size: 0x8, addend: 0x0, symName: __RNvMs_NtCslJiobkLta79_5alloc3vecINtB4_3VecTNtNtCs4xvdaJ1JWuv_14cranelift_isle4sema6TermIdIBv_BF_EINtNtBJ_12stablemapset9StableSetBF_EEE5clearBJ_, symObjAddr: 0xB710, symBinAddr: 0x10002C100, symSize: 0x70 }
  - { offset: 0x9D5CA, size: 0x8, addend: 0x0, symName: __RNvMs_NtCslJiobkLta79_5alloc3vecINtB4_3VecTNtNtCs4xvdaJ1JWuv_14cranelift_isle4sema6TermIdIBv_BF_EINtNtBJ_12stablemapset9StableSetBF_EEE7reserveBJ_, symObjAddr: 0xB780, symBinAddr: 0x10002C170, symSize: 0xB0 }
  - { offset: 0x9D823, size: 0x8, addend: 0x0, symName: __RNvMs_NtCslJiobkLta79_5alloc3vecINtB4_3VecTNtNtCs4xvdaJ1JWuv_14cranelift_isle4sema6TermIdIBv_BF_EINtNtBJ_12stablemapset9StableSetBF_EEE8push_mutBJ_, symObjAddr: 0xB830, symBinAddr: 0x10002C220, symSize: 0x130 }
  - { offset: 0x9DA76, size: 0x8, addend: 0x0, symName: __RNvMs_NtCslJiobkLta79_5alloc3vecINtB4_3VecTNtNtCs4xvdaJ1JWuv_14cranelift_isle4sema6TermIdNtNtBJ_10trie_again7RuleSetEE12as_mut_sliceBJ_, symObjAddr: 0xB960, symBinAddr: 0x10002C350, symSize: 0x50 }
  - { offset: 0x9DC5B, size: 0x8, addend: 0x0, symName: __RNvMs_NtCslJiobkLta79_5alloc3vecINtB4_3VecTNtNtCs4xvdaJ1JWuv_14cranelift_isle4sema6TermIdNtNtBJ_10trie_again7RuleSetEE7reserveBJ_, symObjAddr: 0xB9B0, symBinAddr: 0x10002C3A0, symSize: 0xB0 }
  - { offset: 0x9DE38, size: 0x8, addend: 0x0, symName: __RNvMs_NtCslJiobkLta79_5alloc3vecINtB4_3VecTNtNtCs4xvdaJ1JWuv_14cranelift_isle4sema6TermIdNtNtBJ_10trie_again7RuleSetEE8as_sliceBJ_, symObjAddr: 0xBA60, symBinAddr: 0x10002C450, symSize: 0x50 }
  - { offset: 0x9E04C, size: 0x8, addend: 0x0, symName: __RNvMs_NtCslJiobkLta79_5alloc3vecINtB4_3VecTNtNtCs4xvdaJ1JWuv_14cranelift_isle7codegen6NestedReINtNtBJ_12stablemapset9StableSetNtNtBJ_10trie_again9BindingIdEEE3popBJ_, symObjAddr: 0xBAB0, symBinAddr: 0x10002C4A0, symSize: 0x120 }
  - { offset: 0x9E1E1, size: 0x8, addend: 0x0, symName: __RNvMs_NtCslJiobkLta79_5alloc3vecINtB4_3VecTNtNtCs4xvdaJ1JWuv_14cranelift_isle7codegen6NestedReINtNtBJ_12stablemapset9StableSetNtNtBJ_10trie_again9BindingIdEEE4pushBJ_, symObjAddr: 0xBBD0, symBinAddr: 0x10002C5C0, symSize: 0x20 }
  - { offset: 0x9E312, size: 0x8, addend: 0x0, symName: __RNvMs_NtCslJiobkLta79_5alloc3vecINtB4_3VecTNtNtCs4xvdaJ1JWuv_14cranelift_isle7codegen6NestedReINtNtBJ_12stablemapset9StableSetNtNtBJ_10trie_again9BindingIdEEE8push_mutBJ_, symObjAddr: 0xBBF0, symBinAddr: 0x10002C5E0, symSize: 0x130 }
  - { offset: 0x9E547, size: 0x8, addend: 0x0, symName: __RNvMs_NtCslJiobkLta79_5alloc3vecINtB4_3VecjE12as_mut_sliceCs4xvdaJ1JWuv_14cranelift_isle, symObjAddr: 0xBD20, symBinAddr: 0x10002C710, symSize: 0x50 }
  - { offset: 0x9E72F, size: 0x8, addend: 0x0, symName: __RNvMs_NtCslJiobkLta79_5alloc3vecINtB4_3VecjE3popCs4xvdaJ1JWuv_14cranelift_isle, symObjAddr: 0xBD70, symBinAddr: 0x10002C760, symSize: 0xD0 }
  - { offset: 0x9E8C4, size: 0x8, addend: 0x0, symName: __RNvMs_NtCslJiobkLta79_5alloc3vecINtB4_3VecjE4pushCs4xvdaJ1JWuv_14cranelift_isle, symObjAddr: 0xBE40, symBinAddr: 0x10002C830, symSize: 0x20 }
  - { offset: 0x9EA1E, size: 0x8, addend: 0x0, symName: __RNvMs_NtCslJiobkLta79_5alloc3vecINtB4_3VecjE7reserveCs4xvdaJ1JWuv_14cranelift_isle, symObjAddr: 0xBE60, symBinAddr: 0x10002C850, symSize: 0xB0 }
  - { offset: 0x9EC19, size: 0x8, addend: 0x0, symName: __RNvMs_NtCslJiobkLta79_5alloc3vecINtB4_3VecjE8as_sliceCs4xvdaJ1JWuv_14cranelift_isle, symObjAddr: 0xBF10, symBinAddr: 0x10002C900, symSize: 0x50 }
  - { offset: 0x9EDB2, size: 0x8, addend: 0x0, symName: __RNvMs_NtCslJiobkLta79_5alloc3vecINtB4_3VecjE8push_mutCs4xvdaJ1JWuv_14cranelift_isle, symObjAddr: 0xBF60, symBinAddr: 0x10002C950, symSize: 0xD0 }
  - { offset: 0xA5908, size: 0x8, addend: 0x0, symName: __RINvMNtNtNtCslJiobkLta79_5alloc11collections5btree4nodeINtB3_8LeafNodeNtNtCs4xvdaJ1JWuv_14cranelift_isle4sema6TermIdINtNtB5_3set8BTreeSetB16_EE3newNtNtB9_5alloc6GlobalEB1a_, symObjAddr: 0x0, symBinAddr: 0x100034450, symSize: 0x60 }
  - { offset: 0xB089E, size: 0x8, addend: 0x0, symName: __RINvNtNtNtCslJiobkLta79_5alloc11collections5btree4node12slice_insertINtNtB4_3set8BTreeSetNtNtCs4xvdaJ1JWuv_14cranelift_isle4sema6TermIdEEB1t_, symObjAddr: 0x5340, symBinAddr: 0x100039790, symSize: 0x180 }
  - { offset: 0xB0A25, size: 0x8, addend: 0x0, symName: __RINvNtNtNtCslJiobkLta79_5alloc11collections5btree4node12slice_insertINtNtNtCsieiGu2EXtoJ_4core3ptr8non_null7NonNullINtB2_8LeafNodeNtNtCs4xvdaJ1JWuv_14cranelift_isle4sema6TermIdINtNtB4_3set8BTreeSetB24_EEEEB28_, symObjAddr: 0x54C0, symBinAddr: 0x100039910, symSize: 0x130 }
  - { offset: 0xB0B8B, size: 0x8, addend: 0x0, symName: __RINvNtNtNtCslJiobkLta79_5alloc11collections5btree4node12slice_insertINtNtNtCsieiGu2EXtoJ_4core3ptr8non_null7NonNullINtB2_8LeafNodeNtNtCs4xvdaJ1JWuv_14cranelift_isle4sema6TermIdNtNtB4_7set_val9SetValZSTEEEB28_, symObjAddr: 0x55F0, symBinAddr: 0x100039A40, symSize: 0x130 }
  - { offset: 0xB0CF1, size: 0x8, addend: 0x0, symName: __RINvNtNtNtCslJiobkLta79_5alloc11collections5btree4node12slice_insertNtNtB4_7set_val9SetValZSTECs4xvdaJ1JWuv_14cranelift_isle, symObjAddr: 0x5720, symBinAddr: 0x100039B70, symSize: 0xB0 }
  - { offset: 0xB0E0A, size: 0x8, addend: 0x0, symName: __RINvNtNtNtCslJiobkLta79_5alloc11collections5btree4node12slice_insertNtNtCs4xvdaJ1JWuv_14cranelift_isle4sema6TermIdEB18_, symObjAddr: 0x57D0, symBinAddr: 0x100039C20, symSize: 0x130 }
  - { offset: 0xB0F70, size: 0x8, addend: 0x0, symName: __RINvNtNtNtCslJiobkLta79_5alloc11collections5btree4node13move_to_sliceINtNtB4_3set8BTreeSetNtNtCs4xvdaJ1JWuv_14cranelift_isle4sema6TermIdEEB1u_, symObjAddr: 0x5900, symBinAddr: 0x100039D50, symSize: 0xA0 }
  - { offset: 0xB101C, size: 0x8, addend: 0x0, symName: __RINvNtNtNtCslJiobkLta79_5alloc11collections5btree4node13move_to_sliceINtNtNtCsieiGu2EXtoJ_4core3ptr8non_null7NonNullINtB2_8LeafNodeNtNtCs4xvdaJ1JWuv_14cranelift_isle4sema6TermIdINtNtB4_3set8BTreeSetB25_EEEEB29_, symObjAddr: 0x59A0, symBinAddr: 0x100039DF0, symSize: 0x90 }
  - { offset: 0xB10C8, size: 0x8, addend: 0x0, symName: __RINvNtNtNtCslJiobkLta79_5alloc11collections5btree4node13move_to_sliceINtNtNtCsieiGu2EXtoJ_4core3ptr8non_null7NonNullINtB2_8LeafNodeNtNtCs4xvdaJ1JWuv_14cranelift_isle4sema6TermIdNtNtB4_7set_val9SetValZSTEEEB29_, symObjAddr: 0x5A30, symBinAddr: 0x100039E80, symSize: 0x90 }
  - { offset: 0xB1174, size: 0x8, addend: 0x0, symName: __RINvNtNtNtCslJiobkLta79_5alloc11collections5btree4node13move_to_sliceNtNtB4_7set_val9SetValZSTECs4xvdaJ1JWuv_14cranelift_isle, symObjAddr: 0x5AC0, symBinAddr: 0x100039F10, symSize: 0xA0 }
  - { offset: 0xB1220, size: 0x8, addend: 0x0, symName: __RINvNtNtNtCslJiobkLta79_5alloc11collections5btree4node13move_to_sliceNtNtCs4xvdaJ1JWuv_14cranelift_isle4sema6TermIdEB19_, symObjAddr: 0x5B60, symBinAddr: 0x100039FB0, symSize: 0x90 }
  - { offset: 0xB12D6, size: 0x8, addend: 0x0, symName: __RNCINvMss_NtNtNtCslJiobkLta79_5alloc11collections5btree4nodeINtB8_7NodeRefNtNtB8_6marker5OwnedNtNtCs4xvdaJ1JWuv_14cranelift_isle4sema6TermIdINtNtBa_3set8BTreeSetB1u_ENtB1c_14LeafOrInternalE19push_internal_levelNtNtBe_5alloc6GlobalE0B1y_, symObjAddr: 0x5BF0, symBinAddr: 0x10003A040, symSize: 0x30 }
  - { offset: 0xB132F, size: 0x8, addend: 0x0, symName: __RNCINvMss_NtNtNtCslJiobkLta79_5alloc11collections5btree4nodeINtB8_7NodeRefNtNtB8_6marker5OwnedNtNtCs4xvdaJ1JWuv_14cranelift_isle4sema6TermIdNtNtBa_7set_val9SetValZSTNtB1c_14LeafOrInternalE19push_internal_levelNtNtBe_5alloc6GlobalE0B1y_, symObjAddr: 0x5C20, symBinAddr: 0x10003A070, symSize: 0x30 }
  - { offset: 0xB22A2, size: 0x8, addend: 0x0, symName: __RNvXNvMsT_NtNtNtCslJiobkLta79_5alloc11collections5btree4nodeINtB8_6HandleINtB8_7NodeRefNtNtB8_6marker5DyingpppENtB1p_2KVE12drop_key_valINtB2_7DropperINtNtBa_3set8BTreeSetNtNtCs4xvdaJ1JWuv_14cranelift_isle4sema6TermIdEENtNtNtCsieiGu2EXtoJ_4core3ops4drop4Drop4dropB2M_, symObjAddr: 0xB0C0, symBinAddr: 0x10003F510, symSize: 0x20 }
  - { offset: 0xB22F3, size: 0x8, addend: 0x0, symName: __RNvXNvMsT_NtNtNtCslJiobkLta79_5alloc11collections5btree4nodeINtB8_6HandleINtB8_7NodeRefNtNtB8_6marker5DyingpppENtB1p_2KVE12drop_key_valINtB2_7DropperNtNtBa_7set_val9SetValZSTENtNtNtCsieiGu2EXtoJ_4core3ops4drop4Drop4dropCs4xvdaJ1JWuv_14cranelift_isle, symObjAddr: 0xB0E0, symBinAddr: 0x10003F530, symSize: 0x20 }
  - { offset: 0xB2F8F, size: 0x8, addend: 0x0, symName: __RINvMNtNtNtCslJiobkLta79_5alloc11collections5btree4nodeINtB3_8LeafNodeNtNtCs4xvdaJ1JWuv_14cranelift_isle4sema6TermIdINtNtB5_3set8BTreeSetB16_EE3newNtNtB9_5alloc6GlobalEB1a_, symObjAddr: 0x0, symBinAddr: 0x100034450, symSize: 0x60 }
  - { offset: 0xB3218, size: 0x8, addend: 0x0, symName: __RINvMNtNtNtCslJiobkLta79_5alloc11collections5btree4nodeINtB3_8LeafNodeNtNtCs4xvdaJ1JWuv_14cranelift_isle4sema6TermIdNtNtB5_7set_val9SetValZSTE3newNtNtB9_5alloc6GlobalEB1a_, symObjAddr: 0x60, symBinAddr: 0x1000344B0, symSize: 0x50 }
  - { offset: 0xB355C, size: 0x8, addend: 0x0, symName: __RINvMs0_NtNtNtCslJiobkLta79_5alloc11collections5btree6searchINtNtB8_4node7NodeRefNtNtBZ_6marker3MutNtNtCs4xvdaJ1JWuv_14cranelift_isle4sema6TermIdINtNtB8_3set8BTreeSetB1z_ENtB1j_14LeafOrInternalE14find_key_indexB1z_EB1D_, symObjAddr: 0xB0, symBinAddr: 0x100034500, symSize: 0x240 }
  - { offset: 0xB394E, size: 0x8, addend: 0x0, symName: __RINvMs0_NtNtNtCslJiobkLta79_5alloc11collections5btree6searchINtNtB8_4node7NodeRefNtNtBZ_6marker3MutNtNtCs4xvdaJ1JWuv_14cranelift_isle4sema6TermIdNtNtB8_7set_val9SetValZSTNtB1j_14LeafOrInternalE14find_key_indexB1z_EB1D_, symObjAddr: 0x2F0, symBinAddr: 0x100034740, symSize: 0x240 }
  - { offset: 0xB3D40, size: 0x8, addend: 0x0, symName: __RINvMs0_NtNtNtCslJiobkLta79_5alloc11collections5btree6searchINtNtB8_4node7NodeRefNtNtBZ_6marker5ImmutNtNtCs4xvdaJ1JWuv_14cranelift_isle4sema6TermIdINtNtB8_3set8BTreeSetB1B_ENtB1j_14LeafOrInternalE14find_key_indexB1B_EB1F_, symObjAddr: 0x530, symBinAddr: 0x100034980, symSize: 0x240 }
  - { offset: 0xB40B7, size: 0x8, addend: 0x0, symName: __RINvMs9_NtNtNtCslJiobkLta79_5alloc11collections5btree4nodeINtB6_7NodeRefNtNtB6_6marker5OwnedNtNtCs4xvdaJ1JWuv_14cranelift_isle4sema6TermIdINtNtB8_3set8BTreeSetB1s_ENtB1a_8InternalE12new_internalNtNtBc_5alloc6GlobalEB1w_, symObjAddr: 0x770, symBinAddr: 0x100034BC0, symSize: 0x90 }
  - { offset: 0xB430F, size: 0x8, addend: 0x0, symName: __RINvMs9_NtNtNtCslJiobkLta79_5alloc11collections5btree4nodeINtB6_7NodeRefNtNtB6_6marker5OwnedNtNtCs4xvdaJ1JWuv_14cranelift_isle4sema6TermIdINtNtB8_3set8BTreeSetB1s_ENtB1a_8InternalE17from_new_internalNtNtBc_5alloc6GlobalEB1w_, symObjAddr: 0x800, symBinAddr: 0x100034C50, symSize: 0xD0 }
  - { offset: 0xB4508, size: 0x8, addend: 0x0, symName: __RINvMs9_NtNtNtCslJiobkLta79_5alloc11collections5btree4nodeINtB6_7NodeRefNtNtB6_6marker5OwnedNtNtCs4xvdaJ1JWuv_14cranelift_isle4sema6TermIdNtNtB8_7set_val9SetValZSTNtB1a_8InternalE12new_internalNtNtBc_5alloc6GlobalEB1w_, symObjAddr: 0x8D0, symBinAddr: 0x100034D20, symSize: 0x80 }
  - { offset: 0xB473B, size: 0x8, addend: 0x0, symName: __RINvMs9_NtNtNtCslJiobkLta79_5alloc11collections5btree4nodeINtB6_7NodeRefNtNtB6_6marker5OwnedNtNtCs4xvdaJ1JWuv_14cranelift_isle4sema6TermIdNtNtB8_7set_val9SetValZSTNtB1a_8InternalE17from_new_internalNtNtBc_5alloc6GlobalEB1w_, symObjAddr: 0x950, symBinAddr: 0x100034DA0, symSize: 0xD0 }
  - { offset: 0xB4B83, size: 0x8, addend: 0x0, symName: __RINvMsK_NtNtNtCslJiobkLta79_5alloc11collections5btree4nodeINtB6_6HandleINtB6_7NodeRefNtNtB6_6marker3MutNtNtCs4xvdaJ1JWuv_14cranelift_isle4sema6TermIdINtNtB8_3set8BTreeSetB1D_ENtB1n_4LeafENtB1n_4EdgeE6insertNtNtBc_5alloc6GlobalEB1H_, symObjAddr: 0xA20, symBinAddr: 0x100034E70, symSize: 0x710 }
  - { offset: 0xB5053, size: 0x8, addend: 0x0, symName: __RINvMsK_NtNtNtCslJiobkLta79_5alloc11collections5btree4nodeINtB6_6HandleINtB6_7NodeRefNtNtB6_6marker3MutNtNtCs4xvdaJ1JWuv_14cranelift_isle4sema6TermIdNtNtB8_7set_val9SetValZSTNtB1n_4LeafENtB1n_4EdgeE6insertNtNtBc_5alloc6GlobalEB1H_, symObjAddr: 0x1130, symBinAddr: 0x100035580, symSize: 0x680 }
  - { offset: 0xB5478, size: 0x8, addend: 0x0, symName: __RINvMsM_NtNtNtCslJiobkLta79_5alloc11collections5btree4nodeINtB6_6HandleINtB6_7NodeRefNtNtB6_6marker3MutNtNtCs4xvdaJ1JWuv_14cranelift_isle4sema6TermIdINtNtB8_3set8BTreeSetB1D_ENtB1n_8InternalENtB1n_4EdgeE6insertNtNtBc_5alloc6GlobalEB1H_, symObjAddr: 0x17B0, symBinAddr: 0x100035C00, symSize: 0x6F0 }
  - { offset: 0xB5802, size: 0x8, addend: 0x0, symName: __RINvMsM_NtNtNtCslJiobkLta79_5alloc11collections5btree4nodeINtB6_6HandleINtB6_7NodeRefNtNtB6_6marker3MutNtNtCs4xvdaJ1JWuv_14cranelift_isle4sema6TermIdNtNtB8_7set_val9SetValZSTNtB1n_8InternalENtB1n_4EdgeE6insertNtNtBc_5alloc6GlobalEB1H_, symObjAddr: 0x1EA0, symBinAddr: 0x1000362F0, symSize: 0x640 }
  - { offset: 0xB5B01, size: 0x8, addend: 0x0, symName: __RINvMsN_NtNtNtCslJiobkLta79_5alloc11collections5btree4nodeINtB6_6HandleINtB6_7NodeRefNtNtB6_6marker3MutNtNtCs4xvdaJ1JWuv_14cranelift_isle4sema6TermIdINtNtB8_3set8BTreeSetB1D_ENtB1n_4LeafENtB1n_4EdgeE16insert_recursingNtNtBc_5alloc6GlobalNCNvMs6_NtNtB8_3map5entryINtB3V_11VacantEntryB1D_B2n_E12insert_entry0EB1H_, symObjAddr: 0x24E0, symBinAddr: 0x100036930, symSize: 0x6D0 }
  - { offset: 0xB5E22, size: 0x8, addend: 0x0, symName: __RINvMsN_NtNtNtCslJiobkLta79_5alloc11collections5btree4nodeINtB6_6HandleINtB6_7NodeRefNtNtB6_6marker3MutNtNtCs4xvdaJ1JWuv_14cranelift_isle4sema6TermIdNtNtB8_7set_val9SetValZSTNtB1n_4LeafENtB1n_4EdgeE16insert_recursingNtNtBc_5alloc6GlobalNCNvMs6_NtNtB8_3map5entryINtB3U_11VacantEntryB1D_B2n_E12insert_entry0EB1H_, symObjAddr: 0x2BB0, symBinAddr: 0x100037000, symSize: 0x540 }
  - { offset: 0xB60C8, size: 0x8, addend: 0x0, symName: __RINvMsV_NtNtNtCslJiobkLta79_5alloc11collections5btree4nodeINtB6_6HandleINtB6_7NodeRefNtNtB6_6marker3MutNtNtCs4xvdaJ1JWuv_14cranelift_isle4sema6TermIdINtNtB8_3set8BTreeSetB1D_ENtB1n_4LeafENtB1n_2KVE5splitNtNtBc_5alloc6GlobalEB1H_, symObjAddr: 0x30F0, symBinAddr: 0x100037540, symSize: 0xC0 }
  - { offset: 0xB61B7, size: 0x8, addend: 0x0, symName: __RINvMsV_NtNtNtCslJiobkLta79_5alloc11collections5btree4nodeINtB6_6HandleINtB6_7NodeRefNtNtB6_6marker3MutNtNtCs4xvdaJ1JWuv_14cranelift_isle4sema6TermIdNtNtB8_7set_val9SetValZSTNtB1n_4LeafENtB1n_2KVE5splitNtNtBc_5alloc6GlobalEB1H_, symObjAddr: 0x31B0, symBinAddr: 0x100037600, symSize: 0xB0 }
  - { offset: 0xB63CD, size: 0x8, addend: 0x0, symName: __RINvMsW_NtNtNtCslJiobkLta79_5alloc11collections5btree4nodeINtB6_6HandleINtB6_7NodeRefNtNtB6_6marker3MutNtNtCs4xvdaJ1JWuv_14cranelift_isle4sema6TermIdINtNtB8_3set8BTreeSetB1D_ENtB1n_8InternalENtB1n_2KVE5splitNtNtBc_5alloc6GlobalEB1H_, symObjAddr: 0x3260, symBinAddr: 0x1000376B0, symSize: 0x360 }
  - { offset: 0xB6889, size: 0x8, addend: 0x0, symName: __RINvMsW_NtNtNtCslJiobkLta79_5alloc11collections5btree4nodeINtB6_6HandleINtB6_7NodeRefNtNtB6_6marker3MutNtNtCs4xvdaJ1JWuv_14cranelift_isle4sema6TermIdNtNtB8_7set_val9SetValZSTNtB1n_8InternalENtB1n_2KVE5splitNtNtBc_5alloc6GlobalEB1H_, symObjAddr: 0x35C0, symBinAddr: 0x100037A10, symSize: 0x300 }
  - { offset: 0xB6C80, size: 0x8, addend: 0x0, symName: __RINvMs_NtNtNtCslJiobkLta79_5alloc11collections5btree4nodeINtB5_12InternalNodeNtNtCs4xvdaJ1JWuv_14cranelift_isle4sema6TermIdINtNtB7_3set8BTreeSetB1d_EE3newNtNtBb_5alloc6GlobalEB1h_, symObjAddr: 0x38C0, symBinAddr: 0x100037D10, symSize: 0x60 }
  - { offset: 0xB6E9C, size: 0x8, addend: 0x0, symName: __RINvMs_NtNtNtCslJiobkLta79_5alloc11collections5btree4nodeINtB5_12InternalNodeNtNtCs4xvdaJ1JWuv_14cranelift_isle4sema6TermIdNtNtB7_7set_val9SetValZSTE3newNtNtBb_5alloc6GlobalEB1h_, symObjAddr: 0x3920, symBinAddr: 0x100037D70, symSize: 0x50 }
  - { offset: 0xB7197, size: 0x8, addend: 0x0, symName: __RINvMs_NtNtNtCslJiobkLta79_5alloc11collections5btree6searchINtNtB7_4node7NodeRefNtNtBY_6marker3MutNtNtCs4xvdaJ1JWuv_14cranelift_isle4sema6TermIdINtNtB7_3set8BTreeSetB1y_ENtB1i_14LeafOrInternalE11search_treeB1y_EB1C_, symObjAddr: 0x3970, symBinAddr: 0x100037DC0, symSize: 0x3A0 }
  - { offset: 0xB74E7, size: 0x8, addend: 0x0, symName: __RINvMs_NtNtNtCslJiobkLta79_5alloc11collections5btree6searchINtNtB7_4node7NodeRefNtNtBY_6marker3MutNtNtCs4xvdaJ1JWuv_14cranelift_isle4sema6TermIdNtNtB7_7set_val9SetValZSTNtB1i_14LeafOrInternalE11search_treeB1y_EB1C_, symObjAddr: 0x3D10, symBinAddr: 0x100038160, symSize: 0x3A0 }
  - { offset: 0xB7873, size: 0x8, addend: 0x0, symName: __RINvMs_NtNtNtCslJiobkLta79_5alloc11collections5btree6searchINtNtB7_4node7NodeRefNtNtBY_6marker5ImmutNtNtCs4xvdaJ1JWuv_14cranelift_isle4sema6TermIdINtNtB7_3set8BTreeSetB1A_ENtB1i_14LeafOrInternalE11search_treeB1A_EB1E_, symObjAddr: 0x40B0, symBinAddr: 0x100038500, symSize: 0x3A0 }
  - { offset: 0xB7B51, size: 0x8, addend: 0x0, symName: __RINvMsh_NtNtNtCslJiobkLta79_5alloc11collections5btree4nodeINtB6_7NodeRefNtNtB6_6marker5DyingNtNtCs4xvdaJ1JWuv_14cranelift_isle4sema6TermIdINtNtB8_3set8BTreeSetB1s_ENtB1a_14LeafOrInternalE21deallocate_and_ascendNtNtBc_5alloc6GlobalEB1w_, symObjAddr: 0x4450, symBinAddr: 0x1000388A0, symSize: 0x1A0 }
  - { offset: 0xB7DD2, size: 0x8, addend: 0x0, symName: __RINvMsh_NtNtNtCslJiobkLta79_5alloc11collections5btree4nodeINtB6_7NodeRefNtNtB6_6marker5DyingNtNtCs4xvdaJ1JWuv_14cranelift_isle4sema6TermIdNtNtB8_7set_val9SetValZSTNtB1a_14LeafOrInternalE21deallocate_and_ascendNtNtBc_5alloc6GlobalEB1w_, symObjAddr: 0x45F0, symBinAddr: 0x100038A40, symSize: 0x1A0 }
  - { offset: 0xB8026, size: 0x8, addend: 0x0, symName: __RINvMsj_NtNtNtCslJiobkLta79_5alloc11collections5btree8navigateINtNtB8_4node6HandleINtB11_7NodeRefNtNtB11_6marker5DyingNtNtCs4xvdaJ1JWuv_14cranelift_isle4sema6TermIdINtNtB8_3set8BTreeSetB1S_ENtB1z_4LeafENtB1z_4EdgeE16deallocating_endNtNtBc_5alloc6GlobalEB1W_, symObjAddr: 0x4790, symBinAddr: 0x100038BE0, symSize: 0xF0 }
  - { offset: 0xB829C, size: 0x8, addend: 0x0, symName: __RINvMsj_NtNtNtCslJiobkLta79_5alloc11collections5btree8navigateINtNtB8_4node6HandleINtB11_7NodeRefNtNtB11_6marker5DyingNtNtCs4xvdaJ1JWuv_14cranelift_isle4sema6TermIdINtNtB8_3set8BTreeSetB1S_ENtB1z_4LeafENtB1z_4EdgeE17deallocating_nextNtNtBc_5alloc6GlobalEB1W_, symObjAddr: 0x4880, symBinAddr: 0x100038CD0, symSize: 0x370 }
  - { offset: 0xB84E7, size: 0x8, addend: 0x0, symName: __RINvMsj_NtNtNtCslJiobkLta79_5alloc11collections5btree8navigateINtNtB8_4node6HandleINtB11_7NodeRefNtNtB11_6marker5DyingNtNtCs4xvdaJ1JWuv_14cranelift_isle4sema6TermIdNtNtB8_7set_val9SetValZSTNtB1z_4LeafENtB1z_4EdgeE16deallocating_endNtNtBc_5alloc6GlobalEB1W_, symObjAddr: 0x4BF0, symBinAddr: 0x100039040, symSize: 0xF0 }
  - { offset: 0xB875D, size: 0x8, addend: 0x0, symName: __RINvMsj_NtNtNtCslJiobkLta79_5alloc11collections5btree8navigateINtNtB8_4node6HandleINtB11_7NodeRefNtNtB11_6marker5DyingNtNtCs4xvdaJ1JWuv_14cranelift_isle4sema6TermIdNtNtB8_7set_val9SetValZSTNtB1z_4LeafENtB1z_4EdgeE17deallocating_nextNtNtBc_5alloc6GlobalEB1W_, symObjAddr: 0x4CE0, symBinAddr: 0x100039130, symSize: 0x360 }
  - { offset: 0xB89BF, size: 0x8, addend: 0x0, symName: __RINvMsp_NtNtNtCslJiobkLta79_5alloc11collections5btree4nodeINtB6_7NodeRefNtNtB6_6marker3MutNtNtCs4xvdaJ1JWuv_14cranelift_isle4sema6TermIdINtNtB8_3set8BTreeSetB1q_ENtB1a_8InternalE30correct_childrens_parent_linksINtNtNtCsieiGu2EXtoJ_4core3ops5range14RangeInclusivejEEB1u_, symObjAddr: 0x5040, symBinAddr: 0x100039490, symSize: 0xC0 }
  - { offset: 0xB8AF7, size: 0x8, addend: 0x0, symName: __RINvMsp_NtNtNtCslJiobkLta79_5alloc11collections5btree4nodeINtB6_7NodeRefNtNtB6_6marker3MutNtNtCs4xvdaJ1JWuv_14cranelift_isle4sema6TermIdINtNtB8_3set8BTreeSetB1q_ENtB1a_8InternalE30correct_childrens_parent_linksINtNtNtCsieiGu2EXtoJ_4core3ops5range5RangejEEB1u_, symObjAddr: 0x5100, symBinAddr: 0x100039550, symSize: 0xC0 }
  - { offset: 0xB8C2E, size: 0x8, addend: 0x0, symName: __RINvMsp_NtNtNtCslJiobkLta79_5alloc11collections5btree4nodeINtB6_7NodeRefNtNtB6_6marker3MutNtNtCs4xvdaJ1JWuv_14cranelift_isle4sema6TermIdNtNtB8_7set_val9SetValZSTNtB1a_8InternalE30correct_childrens_parent_linksINtNtNtCsieiGu2EXtoJ_4core3ops5range14RangeInclusivejEEB1u_, symObjAddr: 0x51C0, symBinAddr: 0x100039610, symSize: 0xC0 }
  - { offset: 0xB8D66, size: 0x8, addend: 0x0, symName: __RINvMsp_NtNtNtCslJiobkLta79_5alloc11collections5btree4nodeINtB6_7NodeRefNtNtB6_6marker3MutNtNtCs4xvdaJ1JWuv_14cranelift_isle4sema6TermIdNtNtB8_7set_val9SetValZSTNtB1a_8InternalE30correct_childrens_parent_linksINtNtNtCsieiGu2EXtoJ_4core3ops5range5RangejEEB1u_, symObjAddr: 0x5280, symBinAddr: 0x1000396D0, symSize: 0xC0 }
  - { offset: 0xB923A, size: 0x8, addend: 0x0, symName: __RNvMsJ_NtNtNtCslJiobkLta79_5alloc11collections5btree4nodeINtB5_6HandleINtB5_7NodeRefNtNtB5_6marker3MutNtNtCs4xvdaJ1JWuv_14cranelift_isle4sema6TermIdINtNtB7_3set8BTreeSetB1C_ENtB1m_4LeafENtB1m_4EdgeE10insert_fitB1G_, symObjAddr: 0x5C50, symBinAddr: 0x10003A0A0, symSize: 0x270 }
  - { offset: 0xB97AD, size: 0x8, addend: 0x0, symName: __RNvMsJ_NtNtNtCslJiobkLta79_5alloc11collections5btree4nodeINtB5_6HandleINtB5_7NodeRefNtNtB5_6marker3MutNtNtCs4xvdaJ1JWuv_14cranelift_isle4sema6TermIdNtNtB7_7set_val9SetValZSTNtB1m_4LeafENtB1m_4EdgeE10insert_fitB1G_, symObjAddr: 0x5EC0, symBinAddr: 0x10003A310, symSize: 0x220 }
  - { offset: 0xB9C28, size: 0x8, addend: 0x0, symName: __RNvMsL_NtNtNtCslJiobkLta79_5alloc11collections5btree4nodeINtB5_6HandleINtB5_7NodeRefNtNtB5_6marker3MutNtNtCs4xvdaJ1JWuv_14cranelift_isle4sema6TermIdINtNtB7_3set8BTreeSetB1C_ENtB1m_8InternalENtB1m_4EdgeE19correct_parent_linkB1G_, symObjAddr: 0x60E0, symBinAddr: 0x10003A530, symSize: 0xA0 }
  - { offset: 0xB9E30, size: 0x8, addend: 0x0, symName: __RNvMsL_NtNtNtCslJiobkLta79_5alloc11collections5btree4nodeINtB5_6HandleINtB5_7NodeRefNtNtB5_6marker3MutNtNtCs4xvdaJ1JWuv_14cranelift_isle4sema6TermIdNtNtB7_7set_val9SetValZSTNtB1m_8InternalENtB1m_4EdgeE19correct_parent_linkB1G_, symObjAddr: 0x6180, symBinAddr: 0x10003A5D0, symSize: 0xA0 }
  - { offset: 0xBA166, size: 0x8, addend: 0x0, symName: __RNvMsM_NtNtNtCslJiobkLta79_5alloc11collections5btree4nodeINtB5_6HandleINtB5_7NodeRefNtNtB5_6marker3MutNtNtCs4xvdaJ1JWuv_14cranelift_isle4sema6TermIdINtNtB7_3set8BTreeSetB1C_ENtB1m_8InternalENtB1m_4EdgeE10insert_fitB1G_, symObjAddr: 0x6220, symBinAddr: 0x10003A670, symSize: 0x330 }
  - { offset: 0xBA807, size: 0x8, addend: 0x0, symName: __RNvMsM_NtNtNtCslJiobkLta79_5alloc11collections5btree4nodeINtB5_6HandleINtB5_7NodeRefNtNtB5_6marker3MutNtNtCs4xvdaJ1JWuv_14cranelift_isle4sema6TermIdNtNtB7_7set_val9SetValZSTNtB1m_8InternalENtB1m_4EdgeE10insert_fitB1G_, symObjAddr: 0x6550, symBinAddr: 0x10003A9A0, symSize: 0x2F0 }
  - { offset: 0xBAD3E, size: 0x8, addend: 0x0, symName: __RNvMsO_NtNtNtCslJiobkLta79_5alloc11collections5btree4nodeINtB5_6HandleINtB5_7NodeRefNtNtB5_6marker3MutNtNtCs4xvdaJ1JWuv_14cranelift_isle4sema6TermIdINtNtB7_3set8BTreeSetB1C_ENtB1m_8InternalENtB1m_4EdgeE7descendB1G_, symObjAddr: 0x6840, symBinAddr: 0x10003AC90, symSize: 0x80 }
  - { offset: 0xBAF39, size: 0x8, addend: 0x0, symName: __RNvMsO_NtNtNtCslJiobkLta79_5alloc11collections5btree4nodeINtB5_6HandleINtB5_7NodeRefNtNtB5_6marker3MutNtNtCs4xvdaJ1JWuv_14cranelift_isle4sema6TermIdNtNtB7_7set_val9SetValZSTNtB1m_8InternalENtB1m_4EdgeE7descendB1G_, symObjAddr: 0x68C0, symBinAddr: 0x10003AD10, symSize: 0x80 }
  - { offset: 0xBB109, size: 0x8, addend: 0x0, symName: __RNvMsO_NtNtNtCslJiobkLta79_5alloc11collections5btree4nodeINtB5_6HandleINtB5_7NodeRefNtNtB5_6marker5DyingNtNtCs4xvdaJ1JWuv_14cranelift_isle4sema6TermIdINtNtB7_3set8BTreeSetB1E_ENtB1m_8InternalENtB1m_4EdgeE7descendB1I_, symObjAddr: 0x6940, symBinAddr: 0x10003AD90, symSize: 0x80 }
  - { offset: 0xBB2D9, size: 0x8, addend: 0x0, symName: __RNvMsO_NtNtNtCslJiobkLta79_5alloc11collections5btree4nodeINtB5_6HandleINtB5_7NodeRefNtNtB5_6marker5DyingNtNtCs4xvdaJ1JWuv_14cranelift_isle4sema6TermIdNtNtB7_7set_val9SetValZSTNtB1m_8InternalENtB1m_4EdgeE7descendB1I_, symObjAddr: 0x69C0, symBinAddr: 0x10003AE10, symSize: 0x80 }
  - { offset: 0xBB4A9, size: 0x8, addend: 0x0, symName: __RNvMsO_NtNtNtCslJiobkLta79_5alloc11collections5btree4nodeINtB5_6HandleINtB5_7NodeRefNtNtB5_6marker5ImmutNtNtCs4xvdaJ1JWuv_14cranelift_isle4sema6TermIdINtNtB7_3set8BTreeSetB1E_ENtB1m_8InternalENtB1m_4EdgeE7descendB1I_, symObjAddr: 0x6A40, symBinAddr: 0x10003AE90, symSize: 0x80 }
  - { offset: 0xBB679, size: 0x8, addend: 0x0, symName: __RNvMsO_NtNtNtCslJiobkLta79_5alloc11collections5btree4nodeINtB5_6HandleINtB5_7NodeRefNtNtB5_6marker5ImmutNtNtCs4xvdaJ1JWuv_14cranelift_isle4sema6TermIdNtNtB7_7set_val9SetValZSTNtB1m_8InternalENtB1m_4EdgeE7descendB1I_, symObjAddr: 0x6AC0, symBinAddr: 0x10003AF10, symSize: 0x80 }
  - { offset: 0xBB957, size: 0x8, addend: 0x0, symName: __RNvMsP_NtNtNtCslJiobkLta79_5alloc11collections5btree4nodeINtB5_6HandleINtB5_7NodeRefNtNtB5_6marker5ImmutNtNtCs4xvdaJ1JWuv_14cranelift_isle4sema6TermIdINtNtB7_3set8BTreeSetB1E_ENtB1m_14LeafOrInternalENtB1m_2KVE7into_kvB1I_, symObjAddr: 0x6B40, symBinAddr: 0x10003AF90, symSize: 0xF0 }
  - { offset: 0xBBCBA, size: 0x8, addend: 0x0, symName: __RNvMsP_NtNtNtCslJiobkLta79_5alloc11collections5btree4nodeINtB5_6HandleINtB5_7NodeRefNtNtB5_6marker5ImmutNtNtCs4xvdaJ1JWuv_14cranelift_isle4sema6TermIdNtNtB7_7set_val9SetValZSTNtB1m_14LeafOrInternalENtB1m_2KVE7into_kvB1I_, symObjAddr: 0x6C30, symBinAddr: 0x10003B080, symSize: 0xE0 }
  - { offset: 0xBBF30, size: 0x8, addend: 0x0, symName: __RNvMsQ_NtNtNtCslJiobkLta79_5alloc11collections5btree4nodeINtB5_6HandleINtB5_7NodeRefNtNtB5_6marker3MutNtNtCs4xvdaJ1JWuv_14cranelift_isle4sema6TermIdINtNtB7_3set8BTreeSetB1C_ENtB1m_14LeafOrInternalENtB1m_2KVE12into_val_mutB1G_, symObjAddr: 0x6D10, symBinAddr: 0x10003B160, symSize: 0x80 }
  - { offset: 0xBC0BA, size: 0x8, addend: 0x0, symName: __RNvMsQ_NtNtNtCslJiobkLta79_5alloc11collections5btree4nodeINtB5_6HandleINtB5_7NodeRefNtNtB5_6marker3MutNtNtCs4xvdaJ1JWuv_14cranelift_isle4sema6TermIdNtNtB7_7set_val9SetValZSTNtB1m_14LeafOrInternalENtB1m_2KVE12into_val_mutB1G_, symObjAddr: 0x6D90, symBinAddr: 0x10003B1E0, symSize: 0x80 }
  - { offset: 0xBC28C, size: 0x8, addend: 0x0, symName: __RNvMsS_NtNtNtCslJiobkLta79_5alloc11collections5btree4nodeINtB5_6HandleINtB5_7NodeRefNtNtB5_6marker3MutNtNtCs4xvdaJ1JWuv_14cranelift_isle4sema6TermIdINtNtB7_3set8BTreeSetB1C_ENtB1m_14LeafOrInternalENtB1m_2KVE6kv_mutB1G_, symObjAddr: 0x6E10, symBinAddr: 0x10003B260, symSize: 0x110 }
  - { offset: 0xBC52C, size: 0x8, addend: 0x0, symName: __RNvMsS_NtNtNtCslJiobkLta79_5alloc11collections5btree4nodeINtB5_6HandleINtB5_7NodeRefNtNtB5_6marker3MutNtNtCs4xvdaJ1JWuv_14cranelift_isle4sema6TermIdNtNtB7_7set_val9SetValZSTNtB1m_14LeafOrInternalENtB1m_2KVE6kv_mutB1G_, symObjAddr: 0x6F20, symBinAddr: 0x10003B370, symSize: 0x100 }
  - { offset: 0xBC776, size: 0x8, addend: 0x0, symName: __RNvMsT_NtNtNtCslJiobkLta79_5alloc11collections5btree4nodeINtB5_6HandleINtB5_7NodeRefNtNtB5_6marker5DyingNtNtCs4xvdaJ1JWuv_14cranelift_isle4sema6TermIdINtNtB7_3set8BTreeSetB1E_ENtB1m_14LeafOrInternalENtB1m_2KVE12drop_key_valB1I_, symObjAddr: 0x7020, symBinAddr: 0x10003B470, symSize: 0x100 }
  - { offset: 0xBC984, size: 0x8, addend: 0x0, symName: __RNvMsT_NtNtNtCslJiobkLta79_5alloc11collections5btree4nodeINtB5_6HandleINtB5_7NodeRefNtNtB5_6marker5DyingNtNtCs4xvdaJ1JWuv_14cranelift_isle4sema6TermIdNtNtB7_7set_val9SetValZSTNtB1m_14LeafOrInternalENtB1m_2KVE12drop_key_valB1I_, symObjAddr: 0x7120, symBinAddr: 0x10003B570, symSize: 0x100 }
  - { offset: 0xBCD89, size: 0x8, addend: 0x0, symName: __RNvMsU_NtNtNtCslJiobkLta79_5alloc11collections5btree4nodeINtB5_6HandleINtB5_7NodeRefNtNtB5_6marker3MutNtNtCs4xvdaJ1JWuv_14cranelift_isle4sema6TermIdINtNtB7_3set8BTreeSetB1C_ENtB1m_4LeafENtB1m_2KVE15split_leaf_dataB1G_, symObjAddr: 0x7220, symBinAddr: 0x10003B670, symSize: 0x550 }
  - { offset: 0xBD839, size: 0x8, addend: 0x0, symName: __RNvMsU_NtNtNtCslJiobkLta79_5alloc11collections5btree4nodeINtB5_6HandleINtB5_7NodeRefNtNtB5_6marker3MutNtNtCs4xvdaJ1JWuv_14cranelift_isle4sema6TermIdINtNtB7_3set8BTreeSetB1C_ENtB1m_8InternalENtB1m_2KVE15split_leaf_dataB1G_, symObjAddr: 0x7770, symBinAddr: 0x10003BBC0, symSize: 0x550 }
  - { offset: 0xBE2E9, size: 0x8, addend: 0x0, symName: __RNvMsU_NtNtNtCslJiobkLta79_5alloc11collections5btree4nodeINtB5_6HandleINtB5_7NodeRefNtNtB5_6marker3MutNtNtCs4xvdaJ1JWuv_14cranelift_isle4sema6TermIdNtNtB7_7set_val9SetValZSTNtB1m_4LeafENtB1m_2KVE15split_leaf_dataB1G_, symObjAddr: 0x7CC0, symBinAddr: 0x10003C110, symSize: 0x490 }
  - { offset: 0xBED0E, size: 0x8, addend: 0x0, symName: __RNvMsU_NtNtNtCslJiobkLta79_5alloc11collections5btree4nodeINtB5_6HandleINtB5_7NodeRefNtNtB5_6marker3MutNtNtCs4xvdaJ1JWuv_14cranelift_isle4sema6TermIdNtNtB7_7set_val9SetValZSTNtB1m_8InternalENtB1m_2KVE15split_leaf_dataB1G_, symObjAddr: 0x8150, symBinAddr: 0x10003C5A0, symSize: 0x490 }
  - { offset: 0xBF5DA, size: 0x8, addend: 0x0, symName: __RNvMse_NtNtNtCslJiobkLta79_5alloc11collections5btree4nodeINtB5_7NodeRefNtNtB5_6marker3MutNtNtCs4xvdaJ1JWuv_14cranelift_isle4sema6TermIdINtNtB7_3set8BTreeSetB1p_ENtB19_14LeafOrInternalE6ascendB1t_, symObjAddr: 0x85E0, symBinAddr: 0x10003CA30, symSize: 0x230 }
  - { offset: 0xBF861, size: 0x8, addend: 0x0, symName: __RNvMse_NtNtNtCslJiobkLta79_5alloc11collections5btree4nodeINtB5_7NodeRefNtNtB5_6marker3MutNtNtCs4xvdaJ1JWuv_14cranelift_isle4sema6TermIdNtNtB7_7set_val9SetValZSTNtB19_14LeafOrInternalE6ascendB1t_, symObjAddr: 0x8810, symBinAddr: 0x10003CC60, symSize: 0x230 }
  - { offset: 0xBFAC1, size: 0x8, addend: 0x0, symName: __RNvMse_NtNtNtCslJiobkLta79_5alloc11collections5btree4nodeINtB5_7NodeRefNtNtB5_6marker5DyingNtNtCs4xvdaJ1JWuv_14cranelift_isle4sema6TermIdINtNtB7_3set8BTreeSetB1r_ENtB19_14LeafOrInternalE6ascendB1v_, symObjAddr: 0x8A40, symBinAddr: 0x10003CE90, symSize: 0x230 }
  - { offset: 0xBFD21, size: 0x8, addend: 0x0, symName: __RNvMse_NtNtNtCslJiobkLta79_5alloc11collections5btree4nodeINtB5_7NodeRefNtNtB5_6marker5DyingNtNtCs4xvdaJ1JWuv_14cranelift_isle4sema6TermIdNtNtB7_7set_val9SetValZSTNtB19_14LeafOrInternalE6ascendB1v_, symObjAddr: 0x8C70, symBinAddr: 0x10003D0C0, symSize: 0x230 }
  - { offset: 0xBFF81, size: 0x8, addend: 0x0, symName: __RNvMse_NtNtNtCslJiobkLta79_5alloc11collections5btree4nodeINtB5_7NodeRefNtNtB5_6marker5ImmutNtNtCs4xvdaJ1JWuv_14cranelift_isle4sema6TermIdINtNtB7_3set8BTreeSetB1r_ENtB19_14LeafOrInternalE6ascendB1v_, symObjAddr: 0x8EA0, symBinAddr: 0x10003D2F0, symSize: 0x230 }
  - { offset: 0xC01E1, size: 0x8, addend: 0x0, symName: __RNvMse_NtNtNtCslJiobkLta79_5alloc11collections5btree4nodeINtB5_7NodeRefNtNtB5_6marker5ImmutNtNtCs4xvdaJ1JWuv_14cranelift_isle4sema6TermIdNtNtB7_7set_val9SetValZSTNtB19_14LeafOrInternalE6ascendB1v_, symObjAddr: 0x90D0, symBinAddr: 0x10003D520, symSize: 0x230 }
  - { offset: 0xC03DD, size: 0x8, addend: 0x0, symName: __RNvMsg_NtNtNtCslJiobkLta79_5alloc11collections5btree4nodeINtB5_7NodeRefNtNtB5_6marker5ImmutNtNtCs4xvdaJ1JWuv_14cranelift_isle4sema6TermIdINtNtB7_3set8BTreeSetB1r_ENtB19_14LeafOrInternalE4keysB1v_, symObjAddr: 0x9300, symBinAddr: 0x10003D750, symSize: 0x90 }
  - { offset: 0xC05A4, size: 0x8, addend: 0x0, symName: __RNvMsg_NtNtNtCslJiobkLta79_5alloc11collections5btree4nodeINtB5_7NodeRefNtNtB5_6marker5ImmutNtNtCs4xvdaJ1JWuv_14cranelift_isle4sema6TermIdNtNtB7_7set_val9SetValZSTNtB19_14LeafOrInternalE4keysB1v_, symObjAddr: 0x9390, symBinAddr: 0x10003D7E0, symSize: 0x90 }
  - { offset: 0xC0872, size: 0x8, addend: 0x0, symName: __RNvMsh_NtNtNtCslJiobkLta79_5alloc11collections5btree8navigateINtNtB7_4node6HandleINtB10_7NodeRefNtNtB10_6marker5ImmutNtNtCs4xvdaJ1JWuv_14cranelift_isle4sema6TermIdINtNtB7_3set8BTreeSetB1R_ENtB1y_4LeafENtB1y_4EdgeE7next_kvB1V_, symObjAddr: 0x9420, symBinAddr: 0x10003D870, symSize: 0x290 }
  - { offset: 0xC0BD3, size: 0x8, addend: 0x0, symName: __RNvMsh_NtNtNtCslJiobkLta79_5alloc11collections5btree8navigateINtNtB7_4node6HandleINtB10_7NodeRefNtNtB10_6marker5ImmutNtNtCs4xvdaJ1JWuv_14cranelift_isle4sema6TermIdNtNtB7_7set_val9SetValZSTNtB1y_4LeafENtB1y_4EdgeE7next_kvB1V_, symObjAddr: 0x96B0, symBinAddr: 0x10003DB00, symSize: 0x290 }
  - { offset: 0xC0FD7, size: 0x8, addend: 0x0, symName: __RNvMsp_NtNtNtCslJiobkLta79_5alloc11collections5btree8navigateINtNtB7_4node6HandleINtB10_7NodeRefNtNtB10_6marker5DyingNtNtCs4xvdaJ1JWuv_14cranelift_isle4sema6TermIdINtNtB7_3set8BTreeSetB1R_ENtB1y_14LeafOrInternalENtB1y_2KVE14next_leaf_edgeB1V_, symObjAddr: 0x9940, symBinAddr: 0x10003DD90, symSize: 0x320 }
  - { offset: 0xC145A, size: 0x8, addend: 0x0, symName: __RNvMsp_NtNtNtCslJiobkLta79_5alloc11collections5btree8navigateINtNtB7_4node6HandleINtB10_7NodeRefNtNtB10_6marker5DyingNtNtCs4xvdaJ1JWuv_14cranelift_isle4sema6TermIdNtNtB7_7set_val9SetValZSTNtB1y_14LeafOrInternalENtB1y_2KVE14next_leaf_edgeB1V_, symObjAddr: 0x9C60, symBinAddr: 0x10003E0B0, symSize: 0x320 }
  - { offset: 0xC18DD, size: 0x8, addend: 0x0, symName: __RNvMsp_NtNtNtCslJiobkLta79_5alloc11collections5btree8navigateINtNtB7_4node6HandleINtB10_7NodeRefNtNtB10_6marker5ImmutNtNtCs4xvdaJ1JWuv_14cranelift_isle4sema6TermIdINtNtB7_3set8BTreeSetB1R_ENtB1y_14LeafOrInternalENtB1y_2KVE14next_leaf_edgeB1V_, symObjAddr: 0x9F80, symBinAddr: 0x10003E3D0, symSize: 0x320 }
  - { offset: 0xC1D60, size: 0x8, addend: 0x0, symName: __RNvMsp_NtNtNtCslJiobkLta79_5alloc11collections5btree8navigateINtNtB7_4node6HandleINtB10_7NodeRefNtNtB10_6marker5ImmutNtNtCs4xvdaJ1JWuv_14cranelift_isle4sema6TermIdNtNtB7_7set_val9SetValZSTNtB1y_14LeafOrInternalENtB1y_2KVE14next_leaf_edgeB1V_, symObjAddr: 0xA2A0, symBinAddr: 0x10003E6F0, symSize: 0x320 }
  - { offset: 0xC21B9, size: 0x8, addend: 0x0, symName: __RNvMsu_NtNtNtCslJiobkLta79_5alloc11collections5btree4nodeINtB5_7NodeRefNtNtB5_6marker3MutNtNtCs4xvdaJ1JWuv_14cranelift_isle4sema6TermIdINtNtB7_3set8BTreeSetB1p_ENtB19_4LeafE16push_with_handleB1t_, symObjAddr: 0xA5C0, symBinAddr: 0x10003EA10, symSize: 0x290 }
  - { offset: 0xC268A, size: 0x8, addend: 0x0, symName: __RNvMsu_NtNtNtCslJiobkLta79_5alloc11collections5btree4nodeINtB5_7NodeRefNtNtB5_6marker3MutNtNtCs4xvdaJ1JWuv_14cranelift_isle4sema6TermIdNtNtB7_7set_val9SetValZSTNtB19_4LeafE16push_with_handleB1t_, symObjAddr: 0xA850, symBinAddr: 0x10003ECA0, symSize: 0x1D0 }
  - { offset: 0xC2C3E, size: 0x8, addend: 0x0, symName: __RNvMsv_NtNtNtCslJiobkLta79_5alloc11collections5btree4nodeINtB5_7NodeRefNtNtB5_6marker3MutNtNtCs4xvdaJ1JWuv_14cranelift_isle4sema6TermIdINtNtB7_3set8BTreeSetB1p_ENtB19_8InternalE4pushB1t_, symObjAddr: 0xAA20, symBinAddr: 0x10003EE70, symSize: 0x3B0 }
  - { offset: 0xC3342, size: 0x8, addend: 0x0, symName: __RNvMsv_NtNtNtCslJiobkLta79_5alloc11collections5btree4nodeINtB5_7NodeRefNtNtB5_6marker3MutNtNtCs4xvdaJ1JWuv_14cranelift_isle4sema6TermIdNtNtB7_7set_val9SetValZSTNtB19_8InternalE4pushB1t_, symObjAddr: 0xADD0, symBinAddr: 0x10003F220, symSize: 0x2F0 }
  - { offset: 0xC37BA, size: 0x8, addend: 0x0, symName: __RINvNtNtNtNtCsieiGu2EXtoJ_4core5slice4sort6shared9smallsort11insert_tailNtNtCs4xvdaJ1JWuv_14cranelift_isle10trie_again9BindingIdNvYB18_NtNtBa_3cmp10PartialOrd2ltEB1c_, symObjAddr: 0x0, symBinAddr: 0x10003F550, symSize: 0x1E0 }
  - { offset: 0xC6326, size: 0x8, addend: 0x0, symName: __RINvNtNtNtNtCsieiGu2EXtoJ_4core5slice4sort6shared9smallsort11insert_tailNtNtCs4xvdaJ1JWuv_14cranelift_isle10trie_again9BindingIdNvYB18_NtNtBa_3cmp10PartialOrd2ltEB1c_, symObjAddr: 0x0, symBinAddr: 0x10003F550, symSize: 0x1E0 }
  - { offset: 0xC6480, size: 0x8, addend: 0x0, symName: __RINvNtNtNtNtCsieiGu2EXtoJ_4core5slice4sort6shared9smallsort11insert_tailNtNtCs4xvdaJ1JWuv_14cranelift_isle5error5ErrorNCINvMNtCslJiobkLta79_5alloc5sliceSB18_11sort_by_keyNtNtB1c_5lexer3PosNCNvMNtB1c_7overlapNtB35_6Errors6reports0_0E0EB1c_, symObjAddr: 0x1E0, symBinAddr: 0x10003F730, symSize: 0x200 }
  - { offset: 0xC65DA, size: 0x8, addend: 0x0, symName: __RINvNtNtNtNtCsieiGu2EXtoJ_4core5slice4sort6shared9smallsort11insert_tailNtNtCs4xvdaJ1JWuv_14cranelift_isle9serialize14EqualCandidateNCINvMB8_SB18_16sort_unstable_byNCNvMs2_B1a_NtB1a_13Decomposition17best_control_flows0_0E0EB1c_, symObjAddr: 0x3E0, symBinAddr: 0x10003F930, symSize: 0x230 }
  - { offset: 0xC6734, size: 0x8, addend: 0x0, symName: __RINvNtNtNtNtCsieiGu2EXtoJ_4core5slice4sort6shared9smallsort11insert_tailTNtNtCs4xvdaJ1JWuv_14cranelift_isle4sema6TermIdNtNtB1d_10trie_again7RuleSetENCINvMB8_SB18_20sort_unstable_by_keyB19_NCNvB1V_5builds_0E0EB1d_, symObjAddr: 0x610, symBinAddr: 0x10003FB60, symSize: 0x200 }
  - { offset: 0xC688E, size: 0x8, addend: 0x0, symName: __RINvNtNtNtNtCsieiGu2EXtoJ_4core5slice4sort6shared9smallsort11insert_tailjNCINvMB8_Sj20sort_unstable_by_keyNtNtCs4xvdaJ1JWuv_14cranelift_isle10trie_again10ConstraintNCNvMs2_NtB1K_9serializeNtB2K_13Decomposition17make_control_flows_0E0EB1K_, symObjAddr: 0x810, symBinAddr: 0x10003FD60, symSize: 0x1E0 }
  - { offset: 0xC69E8, size: 0x8, addend: 0x0, symName: __RINvNtNtNtNtCsieiGu2EXtoJ_4core5slice4sort6shared9smallsort11insert_tailjNCINvMB8_Sj20sort_unstable_by_keyTINtNtBa_3cmp7ReversexEjENCNvMs2_NtCs4xvdaJ1JWuv_14cranelift_isle9serializeNtB2d_13Decomposition4sort0E0EB2f_, symObjAddr: 0x9F0, symBinAddr: 0x10003FF40, symSize: 0x1E0 }
  - { offset: 0xC6B42, size: 0x8, addend: 0x0, symName: __RINvNtNtNtNtCsieiGu2EXtoJ_4core5slice4sort6shared9smallsort12sort4_stableNtNtCs4xvdaJ1JWuv_14cranelift_isle5error5ErrorNCINvMNtCslJiobkLta79_5alloc5sliceSB19_11sort_by_keyNtNtB1d_5lexer3PosNCNvMNtB1d_7overlapNtB36_6Errors6reports0_0E0EB1d_, symObjAddr: 0x17B0, symBinAddr: 0x100040120, symSize: 0xC10 }
  - { offset: 0xC7E27, size: 0x8, addend: 0x0, symName: __RINvNtNtNtNtCsieiGu2EXtoJ_4core5slice4sort6shared9smallsort12sort4_stableNtNtCs4xvdaJ1JWuv_14cranelift_isle9serialize14EqualCandidateNCINvMB8_SB19_16sort_unstable_byNCNvMs2_B1b_NtB1b_13Decomposition17best_control_flows0_0E0EB1d_, symObjAddr: 0x23C0, symBinAddr: 0x100040D30, symSize: 0xC30 }
  - { offset: 0xC910C, size: 0x8, addend: 0x0, symName: __RINvNtNtNtNtCsieiGu2EXtoJ_4core5slice4sort6shared9smallsort12swap_if_lessNtNtCs4xvdaJ1JWuv_14cranelift_isle10trie_again9BindingIdNvYB19_NtNtBa_3cmp10PartialOrd2ltEB1d_, symObjAddr: 0x55C0, symBinAddr: 0x100041960, symSize: 0x350 }
  - { offset: 0xC96A9, size: 0x8, addend: 0x0, symName: __RINvNtNtNtNtCsieiGu2EXtoJ_4core5slice4sort6shared9smallsort12swap_if_lessjNCINvMB8_Sj20sort_unstable_by_keyNtNtCs4xvdaJ1JWuv_14cranelift_isle10trie_again10ConstraintNCNvMs2_NtB1L_9serializeNtB2L_13Decomposition17make_control_flows_0E0EB1L_, symObjAddr: 0x5910, symBinAddr: 0x100041CB0, symSize: 0x350 }
  - { offset: 0xC9C46, size: 0x8, addend: 0x0, symName: __RINvNtNtNtNtCsieiGu2EXtoJ_4core5slice4sort6shared9smallsort12swap_if_lessjNCINvMB8_Sj20sort_unstable_by_keyTINtNtBa_3cmp7ReversexEjENCNvMs2_NtCs4xvdaJ1JWuv_14cranelift_isle9serializeNtB2e_13Decomposition4sort0E0EB2g_, symObjAddr: 0x5C60, symBinAddr: 0x100042000, symSize: 0x350 }
  - { offset: 0xCA1E3, size: 0x8, addend: 0x0, symName: __RINvNtNtNtNtCsieiGu2EXtoJ_4core5slice4sort6shared9smallsort13sort9_optimalNtNtCs4xvdaJ1JWuv_14cranelift_isle10trie_again9BindingIdNvYB1a_NtNtBa_3cmp10PartialOrd2ltEB1e_, symObjAddr: 0x5FB0, symBinAddr: 0x100042350, symSize: 0x270 }
  - { offset: 0xCA26A, size: 0x8, addend: 0x0, symName: __RINvNtNtNtNtCsieiGu2EXtoJ_4core5slice4sort6shared9smallsort13sort9_optimaljNCINvMB8_Sj20sort_unstable_by_keyNtNtCs4xvdaJ1JWuv_14cranelift_isle10trie_again10ConstraintNCNvMs2_NtB1M_9serializeNtB2M_13Decomposition17make_control_flows_0E0EB1M_, symObjAddr: 0x6220, symBinAddr: 0x1000425C0, symSize: 0x270 }
  - { offset: 0xCA2F1, size: 0x8, addend: 0x0, symName: __RINvNtNtNtNtCsieiGu2EXtoJ_4core5slice4sort6shared9smallsort13sort9_optimaljNCINvMB8_Sj20sort_unstable_by_keyTINtNtBa_3cmp7ReversexEjENCNvMs2_NtCs4xvdaJ1JWuv_14cranelift_isle9serializeNtB2f_13Decomposition4sort0E0EB2h_, symObjAddr: 0x6490, symBinAddr: 0x100042830, symSize: 0x270 }
  - { offset: 0xCA378, size: 0x8, addend: 0x0, symName: __RINvNtNtNtNtCsieiGu2EXtoJ_4core5slice4sort6shared9smallsort14sort13_optimalNtNtCs4xvdaJ1JWuv_14cranelift_isle10trie_again9BindingIdNvYB1b_NtNtBa_3cmp10PartialOrd2ltEB1f_, symObjAddr: 0x6700, symBinAddr: 0x100042AA0, symSize: 0x440 }
  - { offset: 0xCA3FF, size: 0x8, addend: 0x0, symName: __RINvNtNtNtNtCsieiGu2EXtoJ_4core5slice4sort6shared9smallsort14sort13_optimaljNCINvMB8_Sj20sort_unstable_by_keyNtNtCs4xvdaJ1JWuv_14cranelift_isle10trie_again10ConstraintNCNvMs2_NtB1N_9serializeNtB2N_13Decomposition17make_control_flows_0E0EB1N_, symObjAddr: 0x6B40, symBinAddr: 0x100042EE0, symSize: 0x440 }
  - { offset: 0xCA486, size: 0x8, addend: 0x0, symName: __RINvNtNtNtNtCsieiGu2EXtoJ_4core5slice4sort6shared9smallsort14sort13_optimaljNCINvMB8_Sj20sort_unstable_by_keyTINtNtBa_3cmp7ReversexEjENCNvMs2_NtCs4xvdaJ1JWuv_14cranelift_isle9serializeNtB2g_13Decomposition4sort0E0EB2i_, symObjAddr: 0x6F80, symBinAddr: 0x100043320, symSize: 0x440 }
  - { offset: 0xCA50D, size: 0x8, addend: 0x0, symName: __RINvNtNtNtNtCsieiGu2EXtoJ_4core5slice4sort6shared9smallsort18small_sort_generalNtNtCs4xvdaJ1JWuv_14cranelift_isle9serialize14EqualCandidateNCINvMB8_SB1f_16sort_unstable_byNCNvMs2_B1h_NtB1h_13Decomposition17best_control_flows0_0E0EB1j_, symObjAddr: 0x7480, symBinAddr: 0x100043760, symSize: 0xC0 }
  - { offset: 0xCA5D3, size: 0x8, addend: 0x0, symName: __RINvNtNtNtNtCsieiGu2EXtoJ_4core5slice4sort6shared9smallsort18small_sort_networkNtNtCs4xvdaJ1JWuv_14cranelift_isle10trie_again9BindingIdNvYB1f_NtNtBa_3cmp10PartialOrd2ltEB1j_, symObjAddr: 0x7790, symBinAddr: 0x100043820, symSize: 0x250 }
  - { offset: 0xCA775, size: 0x8, addend: 0x0, symName: __RINvNtNtNtNtCsieiGu2EXtoJ_4core5slice4sort6shared9smallsort18small_sort_networkjNCINvMB8_Sj20sort_unstable_by_keyNtNtCs4xvdaJ1JWuv_14cranelift_isle10trie_again10ConstraintNCNvMs2_NtB1R_9serializeNtB2R_13Decomposition17make_control_flows_0E0EB1R_, symObjAddr: 0x79E0, symBinAddr: 0x100043A70, symSize: 0x250 }
  - { offset: 0xCA917, size: 0x8, addend: 0x0, symName: __RINvNtNtNtNtCsieiGu2EXtoJ_4core5slice4sort6shared9smallsort18small_sort_networkjNCINvMB8_Sj20sort_unstable_by_keyTINtNtBa_3cmp7ReversexEjENCNvMs2_NtCs4xvdaJ1JWuv_14cranelift_isle9serializeNtB2k_13Decomposition4sort0E0EB2m_, symObjAddr: 0x7C30, symBinAddr: 0x100043CC0, symSize: 0x250 }
  - { offset: 0xCAB9D, size: 0x8, addend: 0x0, symName: __RINvNtNtNtNtCsieiGu2EXtoJ_4core5slice4sort6shared9smallsort19bidirectional_mergeNtNtCs4xvdaJ1JWuv_14cranelift_isle10trie_again9BindingIdNvYB1g_NtNtBa_3cmp10PartialOrd2ltEB1k_, symObjAddr: 0x7E80, symBinAddr: 0x100043F10, symSize: 0x6F0 }
  - { offset: 0xCB347, size: 0x8, addend: 0x0, symName: __RINvNtNtNtNtCsieiGu2EXtoJ_4core5slice4sort6shared9smallsort19bidirectional_mergeNtNtCs4xvdaJ1JWuv_14cranelift_isle5error5ErrorNCINvMNtCslJiobkLta79_5alloc5sliceSB1g_11sort_by_keyNtNtB1k_5lexer3PosNCNvMNtB1k_7overlapNtB3d_6Errors6reports0_0E0EB1k_, symObjAddr: 0x8570, symBinAddr: 0x100044600, symSize: 0x710 }
  - { offset: 0xCBAF1, size: 0x8, addend: 0x0, symName: __RINvNtNtNtNtCsieiGu2EXtoJ_4core5slice4sort6shared9smallsort19bidirectional_mergeNtNtCs4xvdaJ1JWuv_14cranelift_isle9serialize14EqualCandidateNCINvMB8_SB1g_16sort_unstable_byNCNvMs2_B1i_NtB1i_13Decomposition17best_control_flows0_0E0EB1k_, symObjAddr: 0x8C80, symBinAddr: 0x100044D10, symSize: 0x730 }
  - { offset: 0xCC29B, size: 0x8, addend: 0x0, symName: __RINvNtNtNtNtCsieiGu2EXtoJ_4core5slice4sort6shared9smallsort19bidirectional_mergejNCINvMB8_Sj20sort_unstable_by_keyNtNtCs4xvdaJ1JWuv_14cranelift_isle10trie_again10ConstraintNCNvMs2_NtB1S_9serializeNtB2S_13Decomposition17make_control_flows_0E0EB1S_, symObjAddr: 0x9AC0, symBinAddr: 0x100045440, symSize: 0x700 }
  - { offset: 0xCCA45, size: 0x8, addend: 0x0, symName: __RINvNtNtNtNtCsieiGu2EXtoJ_4core5slice4sort6shared9smallsort19bidirectional_mergejNCINvMB8_Sj20sort_unstable_by_keyTINtNtBa_3cmp7ReversexEjENCNvMs2_NtCs4xvdaJ1JWuv_14cranelift_isle9serializeNtB2l_13Decomposition4sort0E0EB2n_, symObjAddr: 0xA1C0, symBinAddr: 0x100045B40, symSize: 0x700 }
  - { offset: 0xCD10B, size: 0x8, addend: 0x0, symName: __RINvNtNtNtNtCsieiGu2EXtoJ_4core5slice4sort6shared9smallsort25insertion_sort_shift_leftNtNtCs4xvdaJ1JWuv_14cranelift_isle10trie_again9BindingIdNvYB1m_NtNtBa_3cmp10PartialOrd2ltEB1q_, symObjAddr: 0xA8C0, symBinAddr: 0x100046240, symSize: 0xB0 }
  - { offset: 0xCD248, size: 0x8, addend: 0x0, symName: __RINvNtNtNtNtCsieiGu2EXtoJ_4core5slice4sort6shared9smallsort25insertion_sort_shift_leftNtNtCs4xvdaJ1JWuv_14cranelift_isle5error5ErrorNCINvMNtCslJiobkLta79_5alloc5sliceSB1m_11sort_by_keyNtNtB1q_5lexer3PosNCNvMNtB1q_7overlapNtB3j_6Errors6reports0_0E0EB1q_, symObjAddr: 0xA970, symBinAddr: 0x1000462F0, symSize: 0xB0 }
  - { offset: 0xCD385, size: 0x8, addend: 0x0, symName: __RINvNtNtNtNtCsieiGu2EXtoJ_4core5slice4sort6shared9smallsort25insertion_sort_shift_leftNtNtCs4xvdaJ1JWuv_14cranelift_isle9serialize14EqualCandidateNCINvMB8_SB1m_16sort_unstable_byNCNvMs2_B1o_NtB1o_13Decomposition17best_control_flows0_0E0EB1q_, symObjAddr: 0xAA20, symBinAddr: 0x1000463A0, symSize: 0xB0 }
  - { offset: 0xCD4C2, size: 0x8, addend: 0x0, symName: __RINvNtNtNtNtCsieiGu2EXtoJ_4core5slice4sort6shared9smallsort25insertion_sort_shift_leftTNtNtCs4xvdaJ1JWuv_14cranelift_isle4sema6TermIdNtNtB1r_10trie_again7RuleSetENCINvMB8_SB1m_20sort_unstable_by_keyB1n_NCNvB29_5builds_0E0EB1r_, symObjAddr: 0xAAD0, symBinAddr: 0x100046450, symSize: 0xB0 }
  - { offset: 0xCD5FF, size: 0x8, addend: 0x0, symName: __RINvNtNtNtNtCsieiGu2EXtoJ_4core5slice4sort6shared9smallsort25insertion_sort_shift_leftjNCINvMB8_Sj20sort_unstable_by_keyNtNtCs4xvdaJ1JWuv_14cranelift_isle10trie_again10ConstraintNCNvMs2_NtB1Y_9serializeNtB2Y_13Decomposition17make_control_flows_0E0EB1Y_, symObjAddr: 0xAB80, symBinAddr: 0x100046500, symSize: 0xB0 }
  - { offset: 0xCD73C, size: 0x8, addend: 0x0, symName: __RINvNtNtNtNtCsieiGu2EXtoJ_4core5slice4sort6shared9smallsort25insertion_sort_shift_leftjNCINvMB8_Sj20sort_unstable_by_keyTINtNtBa_3cmp7ReversexEjENCNvMs2_NtCs4xvdaJ1JWuv_14cranelift_isle9serializeNtB2r_13Decomposition4sort0E0EB2t_, symObjAddr: 0xAC30, symBinAddr: 0x1000465B0, symSize: 0xB0 }
  - { offset: 0xCD879, size: 0x8, addend: 0x0, symName: __RINvNtNtNtNtCsieiGu2EXtoJ_4core5slice4sort6shared9smallsort31small_sort_general_with_scratchNtNtCs4xvdaJ1JWuv_14cranelift_isle5error5ErrorNCINvMNtCslJiobkLta79_5alloc5sliceSB1s_11sort_by_keyNtNtB1w_5lexer3PosNCNvMNtB1w_7overlapNtB3p_6Errors6reports0_0E0EB1w_, symObjAddr: 0xB3B0, symBinAddr: 0x100046660, symSize: 0x690 }
  - { offset: 0xCDCB7, size: 0x8, addend: 0x0, symName: __RINvNtNtNtNtCsieiGu2EXtoJ_4core5slice4sort6shared9smallsort31small_sort_general_with_scratchNtNtCs4xvdaJ1JWuv_14cranelift_isle9serialize14EqualCandidateNCINvMB8_SB1s_16sort_unstable_byNCNvMs2_B1u_NtB1u_13Decomposition17best_control_flows0_0E0EB1w_, symObjAddr: 0xBA40, symBinAddr: 0x100046CF0, symSize: 0x670 }
  - { offset: 0xCE0FA, size: 0x8, addend: 0x0, symName: __RNvXs5_NtNtNtNtCsieiGu2EXtoJ_4core5slice4sort6shared9smallsortINtB5_10CopyOnDropNtNtCs4xvdaJ1JWuv_14cranelift_isle10trie_again9BindingIdENtNtNtBd_3ops4drop4Drop4dropB1k_, symObjAddr: 0xD4D0, symBinAddr: 0x100047360, symSize: 0x70 }
  - { offset: 0xCE15B, size: 0x8, addend: 0x0, symName: __RNvXs5_NtNtNtNtCsieiGu2EXtoJ_4core5slice4sort6shared9smallsortINtB5_10CopyOnDropNtNtCs4xvdaJ1JWuv_14cranelift_isle5error5ErrorENtNtNtBd_3ops4drop4Drop4dropB1k_, symObjAddr: 0xD540, symBinAddr: 0x1000473D0, symSize: 0x70 }
  - { offset: 0xCE1BC, size: 0x8, addend: 0x0, symName: __RNvXs5_NtNtNtNtCsieiGu2EXtoJ_4core5slice4sort6shared9smallsortINtB5_10CopyOnDropNtNtCs4xvdaJ1JWuv_14cranelift_isle9serialize14EqualCandidateENtNtNtBd_3ops4drop4Drop4dropB1k_, symObjAddr: 0xD5B0, symBinAddr: 0x100047440, symSize: 0x70 }
  - { offset: 0xCE21D, size: 0x8, addend: 0x0, symName: __RNvXs5_NtNtNtNtCsieiGu2EXtoJ_4core5slice4sort6shared9smallsortINtB5_10CopyOnDropTNtNtCs4xvdaJ1JWuv_14cranelift_isle4sema6TermIdNtNtB1l_10trie_again7RuleSetEENtNtNtBd_3ops4drop4Drop4dropB1l_, symObjAddr: 0xD620, symBinAddr: 0x1000474B0, symSize: 0x70 }
  - { offset: 0xCE27E, size: 0x8, addend: 0x0, symName: __RNvXs5_NtNtNtNtCsieiGu2EXtoJ_4core5slice4sort6shared9smallsortINtB5_10CopyOnDropjENtNtNtBd_3ops4drop4Drop4dropCs4xvdaJ1JWuv_14cranelift_isle, symObjAddr: 0xD690, symBinAddr: 0x100047520, symSize: 0x70 }
  - { offset: 0xD04E5, size: 0x8, addend: 0x0, symName: __RINvXs2E_NtNtCsieiGu2EXtoJ_4core5slice4iterINtB7_4IterNtNtCs4xvdaJ1JWuv_14cranelift_isle10trie_again9BindingIdENtNtNtNtBb_4iter6traits8iterator8Iterator3allNCNvMs2_NtBU_9serializeNtB2C_13Decomposition12add_bindings0EBU_, symObjAddr: 0x0, symBinAddr: 0x100047590, symSize: 0xA0 }
  - { offset: 0xD2B49, size: 0x8, addend: 0x0, symName: __RINvXs2E_NtNtCsieiGu2EXtoJ_4core5slice4iterINtB7_4IterNtNtCs4xvdaJ1JWuv_14cranelift_isle10trie_again9BindingIdENtNtNtNtBb_4iter6traits8iterator8Iterator3allNCNvMs2_NtBU_9serializeNtB2C_13Decomposition12add_bindings0EBU_, symObjAddr: 0x0, symBinAddr: 0x100047590, symSize: 0xA0 }
  - { offset: 0xD2BAE, size: 0x8, addend: 0x0, symName: __RINvXs2E_NtNtCsieiGu2EXtoJ_4core5slice4iterINtB7_4IterNtNtCs4xvdaJ1JWuv_14cranelift_isle10trie_again9BindingIdENtNtNtNtBb_4iter6traits8iterator8Iterator8for_eachNCNvMs6_BS_NtBS_14RuleSetBuilder29normalize_equivalence_classess_0EBU_, symObjAddr: 0xA0, symBinAddr: 0x100047630, symSize: 0x80 }
  - { offset: 0xD2C0F, size: 0x8, addend: 0x0, symName: __RINvXs2E_NtNtCsieiGu2EXtoJ_4core5slice4iterINtB7_4IterNtNtCs4xvdaJ1JWuv_14cranelift_isle3ast5IdentENtNtNtNtBb_4iter6traits8iterator8Iterator8positionNCNvMBS_NtBS_7Pattern19make_macro_template0EBU_, symObjAddr: 0x120, symBinAddr: 0x1000476B0, symSize: 0x150 }
  - { offset: 0xD2CCD, size: 0x8, addend: 0x0, symName: __RINvXs2E_NtNtCsieiGu2EXtoJ_4core5slice4iterINtB7_4IterNtNtCs4xvdaJ1JWuv_14cranelift_isle3ast5IdentENtNtNtNtBb_4iter6traits8iterator8Iterator8positionNCNvMBS_NtBS_7Pattern19make_macro_templates_0EBU_, symObjAddr: 0x270, symBinAddr: 0x100047800, symSize: 0x150 }
  - { offset: 0xD2D8B, size: 0x8, addend: 0x0, symName: __RINvXs2E_NtNtCsieiGu2EXtoJ_4core5slice4iterINtB7_4IterNtNtCs4xvdaJ1JWuv_14cranelift_isle3ast5IfLetENtNtNtNtBb_4iter6traits8iterator8Iterator8find_mapNtNtBU_4sema5IfLetQNCNvMs5_B2p_NtB2p_7TermEnv13collect_rules0EBU_, symObjAddr: 0x3C0, symBinAddr: 0x100047950, symSize: 0x120 }
  - { offset: 0xD2E11, size: 0x8, addend: 0x0, symName: __RINvXs2E_NtNtCsieiGu2EXtoJ_4core5slice4iterINtB7_4IterNtNtCs4xvdaJ1JWuv_14cranelift_isle3ast7PatternENtNtNtNtBb_4iter6traits8iterator8Iterator4folduNCINvNtNtB1H_8adapters3map8map_foldRBQ_BQ_uNCNvMBS_BQ_19make_macro_templates0_0NCINvNvB1B_8for_each4callBQ_NCINvMsi_NtCslJiobkLta79_5alloc3vecINtB4e_3VecBQ_E14extend_trustedINtB2r_3MapBF_B33_EE0E0E0EBU_, symObjAddr: 0x4E0, symBinAddr: 0x100047A70, symSize: 0x190 }
  - { offset: 0xD2F52, size: 0x8, addend: 0x0, symName: __RINvXs2E_NtNtCsieiGu2EXtoJ_4core5slice4iterINtB7_4IterNtNtCs4xvdaJ1JWuv_14cranelift_isle3ast7PatternENtNtNtNtBb_4iter6traits8iterator8Iterator4folduNCINvNtNtB1H_8adapters3map8map_foldRBQ_BQ_uNCNvMBS_BQ_19make_macro_templates1_0NCINvNvB1B_8for_each4callBQ_NCINvMsi_NtCslJiobkLta79_5alloc3vecINtB4e_3VecBQ_E14extend_trustedINtB2r_3MapBF_B33_EE0E0E0EBU_, symObjAddr: 0x670, symBinAddr: 0x100047C00, symSize: 0x190 }
  - { offset: 0xD3093, size: 0x8, addend: 0x0, symName: __RINvXs2E_NtNtCsieiGu2EXtoJ_4core5slice4iterINtB7_4IterNtNtCs4xvdaJ1JWuv_14cranelift_isle3ast7PatternENtNtNtNtBb_4iter6traits8iterator8Iterator8find_mapNtNtBU_4sema7PatternQNCNvMs5_B2r_NtB2r_7TermEnv17translate_pattern0EBU_, symObjAddr: 0x800, symBinAddr: 0x100047D90, symSize: 0x110 }
  - { offset: 0xD3119, size: 0x8, addend: 0x0, symName: __RINvXs2E_NtNtCsieiGu2EXtoJ_4core5slice4iterINtB7_4IterNtNtCs4xvdaJ1JWuv_14cranelift_isle4sema5FieldENtNtNtNtBb_4iter6traits8iterator8Iterator3anyNCNvMs3_BS_NtBS_7TypeEnv13type_from_asts_0EBU_, symObjAddr: 0x910, symBinAddr: 0x100047EA0, symSize: 0xA0 }
  - { offset: 0xD317E, size: 0x8, addend: 0x0, symName: __RINvXs2E_NtNtCsieiGu2EXtoJ_4core5slice4iterINtB7_4IterNtNtCs4xvdaJ1JWuv_14cranelift_isle4sema5FieldENtNtNtNtBb_4iter6traits8iterator8Iterator4folduNCINvNtNtB1G_8adapters3map8map_foldRBQ_NtBS_6TypeIduNCNvMs5_BS_NtBS_7TermEnv26collect_enum_variant_terms0NCINvNvB1A_8for_each4callB2Y_NCINvMsi_NtCslJiobkLta79_5alloc3vecINtB4E_3VecB2Y_E14extend_trustedINtB2q_3MapBF_B3b_EE0E0E0EBU_, symObjAddr: 0x9B0, symBinAddr: 0x100047F40, symSize: 0x190 }
  - { offset: 0xD32BF, size: 0x8, addend: 0x0, symName: __RINvXs2E_NtNtCsieiGu2EXtoJ_4core5slice4iterINtB7_4IterNtNtCs4xvdaJ1JWuv_14cranelift_isle4sema6TermIdENtNtNtNtBb_4iter6traits8iterator8Iterator4folduNCINvNtNtB1H_8adapters3map8map_foldRBQ_ReuNCNvMs5_BS_NtBS_7TermEnv27collect_extractor_templatess0_0NCINvNvB1B_8for_each4callB2Z_NCINvMsi_NtCslJiobkLta79_5alloc3vecINtB4z_3VecB2Z_E14extend_trustedINtB2r_3MapBF_B32_EE0E0E0EBU_, symObjAddr: 0xB40, symBinAddr: 0x1000480D0, symSize: 0x190 }
  - { offset: 0xD3400, size: 0x8, addend: 0x0, symName: __RINvXs2E_NtNtCsieiGu2EXtoJ_4core5slice4iterINtB7_4IterNtNtCs4xvdaJ1JWuv_14cranelift_isle4sema6TypeIdENtNtNtNtBb_4iter6traits8iterator8Iterator4folduNCINvNtNtB1H_8adapters3map8map_foldRBQ_NtNtCslJiobkLta79_5alloc6string6StringuNCNvMs_NtBU_7codegenNtB3J_7Codegen18generate_trait_sig0NCINvNvB1B_8for_each4callB2Z_NCINvMsi_NtB33_3vecINtB57_3VecB2Z_E14extend_trustedINtB2r_3MapBF_B3C_EE0E0E0EBU_, symObjAddr: 0xCD0, symBinAddr: 0x100048260, symSize: 0x190 }
  - { offset: 0xD3541, size: 0x8, addend: 0x0, symName: __RINvXs2E_NtNtCsieiGu2EXtoJ_4core5slice4iterINtB7_4IterNtNtCs4xvdaJ1JWuv_14cranelift_isle4sema6TypeIdENtNtNtNtBb_4iter6traits8iterator8Iterator4folduNCINvNvXs_NtNtB1H_8adapters9enumerateINtB2w_9EnumeratepEB1B_4fold9enumerateRBQ_uNCINvNtB2y_3map8map_foldTjB3z_ENtNtCslJiobkLta79_5alloc6string6StringuNCNvMs_NtBU_7codegenNtB4T_7Codegen18generate_trait_sigs_0QNCINvNvB1B_8for_each4callB49_NCINvMsi_NtB4d_3vecINtB6k_3VecB49_E14extend_trustedINtNtB2y_5chain5ChainINtB3J_3MapIB2Y_BF_EB4M_EINtNtBb_6option8IntoIterB49_EEE0E0E0E0EBU_, symObjAddr: 0xE60, symBinAddr: 0x1000483F0, symSize: 0x150 }
  - { offset: 0xD3682, size: 0x8, addend: 0x0, symName: __RINvXs2E_NtNtCsieiGu2EXtoJ_4core5slice4iterINtB7_4IterNtNtCs4xvdaJ1JWuv_14cranelift_isle4sema7PatternENtNtNtNtBb_4iter6traits8iterator8Iterator4folduNCINvNtNtB1I_8adapters3map8map_foldRBQ_NtBS_6TypeIduNCINvMs0_BS_BQ_5visitNtNtBU_10trie_again14RuleSetBuilderE0NCINvNvB1C_8for_each4callB30_NCINvMsi_NtCslJiobkLta79_5alloc3vecINtB4L_3VecB30_E14extend_trustedINtB2s_3MapBF_B3d_EE0E0E0EBU_, symObjAddr: 0xFB0, symBinAddr: 0x100048540, symSize: 0x190 }
  - { offset: 0xD37C3, size: 0x8, addend: 0x0, symName: __RINvXs2E_NtNtCsieiGu2EXtoJ_4core5slice4iterINtB7_4IterNtNtCs4xvdaJ1JWuv_14cranelift_isle4sema7VariantENtNtNtNtBb_4iter6traits8iterator8Iterator3allNCNvMs_NtBU_7codegenNtB2s_7Codegen23generate_internal_types0EBU_, symObjAddr: 0x1140, symBinAddr: 0x1000486D0, symSize: 0xA0 }
  - { offset: 0xD3828, size: 0x8, addend: 0x0, symName: __RINvXs2E_NtNtCsieiGu2EXtoJ_4core5slice4iterINtB7_4IterNtNtCs4xvdaJ1JWuv_14cranelift_isle4sema7VariantENtNtNtNtBb_4iter6traits8iterator8Iterator3anyNCNvMs3_BS_NtBS_7TypeEnv13type_from_ast0EBU_, symObjAddr: 0x11E0, symBinAddr: 0x100048770, symSize: 0xA0 }
  - { offset: 0xD388D, size: 0x8, addend: 0x0, symName: __RINvXs2E_NtNtCsieiGu2EXtoJ_4core5slice4iterINtB7_4IterNtNtCs4xvdaJ1JWuv_14cranelift_isle5error4SpanENtNtNtNtBb_4iter6traits8iterator8Iterator4folduNCINvNtNtB1G_8adapters3map8map_foldRBQ_INtNtBS_10diagnostic5LabeljEuNCNCNvXBS_NtBS_6ErrorsNtNtBb_3fmt5Debug3fmt00NCINvNvB1A_8for_each4callB2Y_NCINvMsi_NtCslJiobkLta79_5alloc3vecINtB4M_3VecB2Y_E14extend_trustedINtB2q_3MapBF_B3r_EE0E0E0EBU_, symObjAddr: 0x1280, symBinAddr: 0x100048810, symSize: 0x190 }
  - { offset: 0xD39CE, size: 0x8, addend: 0x0, symName: __RINvXs2E_NtNtCsieiGu2EXtoJ_4core5slice4iterINtB7_4IterNtNtCs4xvdaJ1JWuv_14cranelift_isle5error4SpanENtNtNtNtBb_4iter6traits8iterator8Iterator4folduNCINvNtNtB1G_8adapters3map8map_foldRBQ_INtNtBS_10diagnostic5LabeljEuNCNCNvXBS_NtBS_6ErrorsNtNtBb_3fmt5Debug3fmt0s_0NCINvNvB1A_8for_each4callB2Y_NCINvMsi_NtCslJiobkLta79_5alloc3vecINtB4O_3VecB2Y_E14extend_trustedINtB2q_3MapBF_B3r_EE0E0E0EBU_, symObjAddr: 0x1410, symBinAddr: 0x1000489A0, symSize: 0x190 }
  - { offset: 0xD3B0F, size: 0x8, addend: 0x0, symName: __RINvXs2E_NtNtCsieiGu2EXtoJ_4core5slice4iterINtB7_4IterNtNtCs4xvdaJ1JWuv_14cranelift_isle5error5ErrorENtNtNtNtBb_4iter6traits8iterator8Iterator4folduNCINvNtNtB1H_8adapters3map8map_foldRBQ_INtNtBS_10diagnostic10DiagnosticjEuNCNvXBS_NtBS_6ErrorsNtNtBb_3fmt5Debug3fmt0NCINvNvB1B_8for_each4callB2Z_NCINvMsi_NtCslJiobkLta79_5alloc3vecINtB4Q_3VecB2Z_E14extend_trustedINtB2r_3MapBF_B3y_EE0E0E0EBU_, symObjAddr: 0x15A0, symBinAddr: 0x100048B30, symSize: 0x190 }
  - { offset: 0xD3C50, size: 0x8, addend: 0x0, symName: __RINvXs2E_NtNtCsieiGu2EXtoJ_4core5slice4iterINtB7_4IterNtNtCs4xvdaJ1JWuv_14cranelift_isle9serialize8EvalStepENtNtNtNtBb_4iter6traits8iterator8Iterator3anyNCNvMs_NtBU_7codegenNtB2y_7Codegen14validate_blocks_0EBU_, symObjAddr: 0x1730, symBinAddr: 0x100048CC0, symSize: 0x90 }
  - { offset: 0xD3CB5, size: 0x8, addend: 0x0, symName: __RINvXs2E_NtNtCsieiGu2EXtoJ_4core5slice4iterINtB7_4IterNtNtCs4xvdaJ1JWuv_14cranelift_isle9serialize8EvalStepENtNtNtNtBb_4iter6traits8iterator8Iterator8positionNCNvMs_NtBU_7codegenNtB2D_7Codegen14validate_block0EBU_, symObjAddr: 0x17C0, symBinAddr: 0x100048D50, symSize: 0x150 }
  - { offset: 0xD3D73, size: 0x8, addend: 0x0, symName: __RINvXs2E_NtNtCsieiGu2EXtoJ_4core5slice4iterINtB7_4IterNtNtCs4xvdaJ1JWuv_14cranelift_isle9serialize9CandidateENtNtNtNtBb_4iter6traits8iterator8Iterator4foldRBQ_NCINvNvB1J_6max_by4foldB2t_NvYB2t_NtNtBb_3cmp3Ord3cmpE0EBU_, symObjAddr: 0x1910, symBinAddr: 0x100048EA0, symSize: 0x1B0 }
  - { offset: 0xD3EB8, size: 0x8, addend: 0x0, symName: __RINvXs2E_NtNtCsieiGu2EXtoJ_4core5slice4iterINtB7_4IterhENtNtNtNtBb_4iter6traits8iterator8Iterator4folduNCINvNtNtBY_8adapters3map8map_foldRhhuNCNvNtCslJiobkLta79_5alloc3str13replace_ascii0NCINvNvBS_8for_each4callhNCINvMsi_NtB2l_3vecINtB3x_3VechE14extend_trustedINtB1I_3MapBF_B2f_EE0E0E0ECs4xvdaJ1JWuv_14cranelift_isle, symObjAddr: 0x1AC0, symBinAddr: 0x100049050, symSize: 0x190 }
  - { offset: 0xD3FF9, size: 0x8, addend: 0x0, symName: __RINvXs2E_NtNtCsieiGu2EXtoJ_4core5slice4iterINtB7_4IterjENtNtNtNtBb_4iter6traits8iterator8Iterator3anyNCNvXsJ_NtB9_3cmpjNtB1J_13SliceContains14slice_containss_0ECs4xvdaJ1JWuv_14cranelift_isle, symObjAddr: 0x1C50, symBinAddr: 0x1000491E0, symSize: 0xA0 }
  - { offset: 0xD405E, size: 0x8, addend: 0x0, symName: __RINvXs2E_NtNtCsieiGu2EXtoJ_4core5slice4iterINtB7_4IterjENtNtNtNtBb_4iter6traits8iterator8Iterator4foldbNCNvXsJ_NtB9_3cmpjNtB1L_13SliceContains14slice_contains0ECs4xvdaJ1JWuv_14cranelift_isle, symObjAddr: 0x1CF0, symBinAddr: 0x100049280, symSize: 0x1A0 }
  - { offset: 0xD41A3, size: 0x8, addend: 0x0, symName: __RINvXs2E_NtNtCsieiGu2EXtoJ_4core5slice4iterINtB7_4IterjENtNtNtNtBb_4iter6traits8iterator8Iterator4foldxNCINvNtNtBY_8adapters3map8map_foldRjxxNCNvNtCs4xvdaJ1JWuv_14cranelift_isle9serialize16respect_priority0NCINvNvBS_6max_by4foldxNvYxNtNtBb_3cmp3Ord3cmpE0E0EB2l_, symObjAddr: 0x1E90, symBinAddr: 0x100049420, symSize: 0x1B0 }
  - { offset: 0xD42E8, size: 0x8, addend: 0x0, symName: __RNvXs2E_NtNtCsieiGu2EXtoJ_4core5slice4iterINtB6_4IterAhj20_ENtNtNtNtBa_4iter6traits8iterator8Iterator4nextCs4xvdaJ1JWuv_14cranelift_isle, symObjAddr: 0x42A0, symBinAddr: 0x10004B830, symSize: 0x90 }
  - { offset: 0xD4409, size: 0x8, addend: 0x0, symName: __RNvXs2E_NtNtCsieiGu2EXtoJ_4core5slice4iterINtB6_4IterINtNtBa_6option6OptionNtNtCs4xvdaJ1JWuv_14cranelift_isle10trie_again9BindingIdEENtNtNtNtBa_4iter6traits8iterator8Iterator24___iterator_get_uncheckedB1f_, symObjAddr: 0x4330, symBinAddr: 0x10004B8C0, symSize: 0x20 }
  - { offset: 0xD4464, size: 0x8, addend: 0x0, symName: __RNvXs2E_NtNtCsieiGu2EXtoJ_4core5slice4iterINtB6_4IterINtNtBa_6option6OptionNtNtCs4xvdaJ1JWuv_14cranelift_isle10trie_again9BindingIdEENtNtNtNtBa_4iter6traits8iterator8Iterator4nextB1f_, symObjAddr: 0x4350, symBinAddr: 0x10004B8E0, symSize: 0x90 }
  - { offset: 0xD4585, size: 0x8, addend: 0x0, symName: __RNvXs2E_NtNtCsieiGu2EXtoJ_4core5slice4iterINtB6_4IterINtNtBa_6option6OptionNtNtCs4xvdaJ1JWuv_14cranelift_isle10trie_again9BindingIdEENtNtNtNtBa_4iter6traits8iterator8Iterator9size_hintB1f_, symObjAddr: 0x43E0, symBinAddr: 0x10004B970, symSize: 0x60 }
  - { offset: 0xD45F4, size: 0x8, addend: 0x0, symName: __RNvXs2E_NtNtCsieiGu2EXtoJ_4core5slice4iterINtB6_4IterNtNtCs4xvdaJ1JWuv_14cranelift_isle10trie_again16UnreachableErrorENtNtNtNtBa_4iter6traits8iterator8Iterator4nextBT_, symObjAddr: 0x4440, symBinAddr: 0x10004B9D0, symSize: 0x90 }
  - { offset: 0xD4715, size: 0x8, addend: 0x0, symName: __RNvXs2E_NtNtCsieiGu2EXtoJ_4core5slice4iterINtB6_4IterNtNtCs4xvdaJ1JWuv_14cranelift_isle10trie_again4RuleENtNtNtNtBa_4iter6traits8iterator8Iterator4nextBT_, symObjAddr: 0x44D0, symBinAddr: 0x10004BA60, symSize: 0x90 }
  - { offset: 0xD4836, size: 0x8, addend: 0x0, symName: __RNvXs2E_NtNtCsieiGu2EXtoJ_4core5slice4iterINtB6_4IterNtNtCs4xvdaJ1JWuv_14cranelift_isle10trie_again7BindingENtNtNtNtBa_4iter6traits8iterator8Iterator4nextBT_, symObjAddr: 0x4560, symBinAddr: 0x10004BAF0, symSize: 0x90 }
  - { offset: 0xD4957, size: 0x8, addend: 0x0, symName: __RNvXs2E_NtNtCsieiGu2EXtoJ_4core5slice4iterINtB6_4IterNtNtCs4xvdaJ1JWuv_14cranelift_isle10trie_again9BindingIdENtNtNtNtBa_4iter6traits8iterator8Iterator24___iterator_get_uncheckedBT_, symObjAddr: 0x45F0, symBinAddr: 0x10004BB80, symSize: 0x20 }
  - { offset: 0xD49B2, size: 0x8, addend: 0x0, symName: __RNvXs2E_NtNtCsieiGu2EXtoJ_4core5slice4iterINtB6_4IterNtNtCs4xvdaJ1JWuv_14cranelift_isle10trie_again9BindingIdENtNtNtNtBa_4iter6traits8iterator8Iterator4nextBT_, symObjAddr: 0x4610, symBinAddr: 0x10004BBA0, symSize: 0x90 }
  - { offset: 0xD4AD3, size: 0x8, addend: 0x0, symName: __RNvXs2E_NtNtCsieiGu2EXtoJ_4core5slice4iterINtB6_4IterNtNtCs4xvdaJ1JWuv_14cranelift_isle10trie_again9BindingIdENtNtNtNtBa_4iter6traits8iterator8Iterator9size_hintBT_, symObjAddr: 0x46A0, symBinAddr: 0x10004BC30, symSize: 0x60 }
  - { offset: 0xD4B42, size: 0x8, addend: 0x0, symName: __RNvXs2E_NtNtCsieiGu2EXtoJ_4core5slice4iterINtB6_4IterNtNtCs4xvdaJ1JWuv_14cranelift_isle3ast3DefENtNtNtNtBa_4iter6traits8iterator8Iterator4nextBT_, symObjAddr: 0x4700, symBinAddr: 0x10004BC90, symSize: 0x90 }
  - { offset: 0xD4C63, size: 0x8, addend: 0x0, symName: __RNvXs2E_NtNtCsieiGu2EXtoJ_4core5slice4iterINtB6_4IterNtNtCs4xvdaJ1JWuv_14cranelift_isle3ast4ExprENtNtNtNtBa_4iter6traits8iterator8Iterator24___iterator_get_uncheckedBT_, symObjAddr: 0x4790, symBinAddr: 0x10004BD20, symSize: 0x20 }
  - { offset: 0xD4CBE, size: 0x8, addend: 0x0, symName: __RNvXs2E_NtNtCsieiGu2EXtoJ_4core5slice4iterINtB6_4IterNtNtCs4xvdaJ1JWuv_14cranelift_isle3ast4ExprENtNtNtNtBa_4iter6traits8iterator8Iterator4nextBT_, symObjAddr: 0x47B0, symBinAddr: 0x10004BD40, symSize: 0x90 }
  - { offset: 0xD4DDF, size: 0x8, addend: 0x0, symName: __RNvXs2E_NtNtCsieiGu2EXtoJ_4core5slice4iterINtB6_4IterNtNtCs4xvdaJ1JWuv_14cranelift_isle3ast4ExprENtNtNtNtBa_4iter6traits8iterator8Iterator9size_hintBT_, symObjAddr: 0x4840, symBinAddr: 0x10004BDD0, symSize: 0x60 }
  - { offset: 0xD4E4E, size: 0x8, addend: 0x0, symName: __RNvXs2E_NtNtCsieiGu2EXtoJ_4core5slice4iterINtB6_4IterNtNtCs4xvdaJ1JWuv_14cranelift_isle3ast5FieldENtNtNtNtBa_4iter6traits8iterator8Iterator4nextBT_, symObjAddr: 0x48A0, symBinAddr: 0x10004BE30, symSize: 0x90 }
  - { offset: 0xD4F6F, size: 0x8, addend: 0x0, symName: __RNvXs2E_NtNtCsieiGu2EXtoJ_4core5slice4iterINtB6_4IterNtNtCs4xvdaJ1JWuv_14cranelift_isle3ast5IdentENtNtNtNtBa_4iter6traits8iterator8Iterator4nextBT_, symObjAddr: 0x4930, symBinAddr: 0x10004BEC0, symSize: 0x90 }
  - { offset: 0xD5090, size: 0x8, addend: 0x0, symName: __RNvXs2E_NtNtCsieiGu2EXtoJ_4core5slice4iterINtB6_4IterNtNtCs4xvdaJ1JWuv_14cranelift_isle3ast5IdentENtNtNtNtBa_4iter6traits8iterator8Iterator9size_hintBT_, symObjAddr: 0x49C0, symBinAddr: 0x10004BF50, symSize: 0x60 }
  - { offset: 0xD50FF, size: 0x8, addend: 0x0, symName: __RNvXs2E_NtNtCsieiGu2EXtoJ_4core5slice4iterINtB6_4IterNtNtCs4xvdaJ1JWuv_14cranelift_isle3ast5IfLetENtNtNtNtBa_4iter6traits8iterator8Iterator4nextBT_, symObjAddr: 0x4A20, symBinAddr: 0x10004BFB0, symSize: 0x90 }
  - { offset: 0xD5220, size: 0x8, addend: 0x0, symName: __RNvXs2E_NtNtCsieiGu2EXtoJ_4core5slice4iterINtB6_4IterNtNtCs4xvdaJ1JWuv_14cranelift_isle3ast5IfLetENtNtNtNtBa_4iter6traits8iterator8Iterator9size_hintBT_, symObjAddr: 0x4AB0, symBinAddr: 0x10004C040, symSize: 0x60 }
  - { offset: 0xD528F, size: 0x8, addend: 0x0, symName: __RNvXs2E_NtNtCsieiGu2EXtoJ_4core5slice4iterINtB6_4IterNtNtCs4xvdaJ1JWuv_14cranelift_isle3ast6LetDefENtNtNtNtBa_4iter6traits8iterator8Iterator4nextBT_, symObjAddr: 0x4B10, symBinAddr: 0x10004C0A0, symSize: 0x90 }
  - { offset: 0xD53B0, size: 0x8, addend: 0x0, symName: __RNvXs2E_NtNtCsieiGu2EXtoJ_4core5slice4iterINtB6_4IterNtNtCs4xvdaJ1JWuv_14cranelift_isle3ast7PatternENtNtNtNtBa_4iter6traits8iterator8Iterator24___iterator_get_uncheckedBT_, symObjAddr: 0x4BA0, symBinAddr: 0x10004C130, symSize: 0x20 }
  - { offset: 0xD540B, size: 0x8, addend: 0x0, symName: __RNvXs2E_NtNtCsieiGu2EXtoJ_4core5slice4iterINtB6_4IterNtNtCs4xvdaJ1JWuv_14cranelift_isle3ast7PatternENtNtNtNtBa_4iter6traits8iterator8Iterator4nextBT_, symObjAddr: 0x4BC0, symBinAddr: 0x10004C150, symSize: 0x90 }
  - { offset: 0xD552C, size: 0x8, addend: 0x0, symName: __RNvXs2E_NtNtCsieiGu2EXtoJ_4core5slice4iterINtB6_4IterNtNtCs4xvdaJ1JWuv_14cranelift_isle3ast7PatternENtNtNtNtBa_4iter6traits8iterator8Iterator9size_hintBT_, symObjAddr: 0x4C50, symBinAddr: 0x10004C1E0, symSize: 0x60 }
  - { offset: 0xD559B, size: 0x8, addend: 0x0, symName: __RNvXs2E_NtNtCsieiGu2EXtoJ_4core5slice4iterINtB6_4IterNtNtCs4xvdaJ1JWuv_14cranelift_isle3ast7VariantENtNtNtNtBa_4iter6traits8iterator8Iterator4nextBT_, symObjAddr: 0x4CB0, symBinAddr: 0x10004C240, symSize: 0x90 }
  - { offset: 0xD56BC, size: 0x8, addend: 0x0, symName: __RNvXs2E_NtNtCsieiGu2EXtoJ_4core5slice4iterINtB6_4IterNtNtCs4xvdaJ1JWuv_14cranelift_isle4sema4ExprENtNtNtNtBa_4iter6traits8iterator8Iterator24___iterator_get_uncheckedBT_, symObjAddr: 0x4D40, symBinAddr: 0x10004C2D0, symSize: 0x20 }
  - { offset: 0xD5717, size: 0x8, addend: 0x0, symName: __RNvXs2E_NtNtCsieiGu2EXtoJ_4core5slice4iterINtB6_4IterNtNtCs4xvdaJ1JWuv_14cranelift_isle4sema4ExprENtNtNtNtBa_4iter6traits8iterator8Iterator9size_hintBT_, symObjAddr: 0x4D60, symBinAddr: 0x10004C2F0, symSize: 0x60 }
  - { offset: 0xD5786, size: 0x8, addend: 0x0, symName: __RNvXs2E_NtNtCsieiGu2EXtoJ_4core5slice4iterINtB6_4IterNtNtCs4xvdaJ1JWuv_14cranelift_isle4sema4RuleENtNtNtNtBa_4iter6traits8iterator8Iterator4nextBT_, symObjAddr: 0x4DC0, symBinAddr: 0x10004C350, symSize: 0x90 }
  - { offset: 0xD58A7, size: 0x8, addend: 0x0, symName: __RNvXs2E_NtNtCsieiGu2EXtoJ_4core5slice4iterINtB6_4IterNtNtCs4xvdaJ1JWuv_14cranelift_isle4sema4TermENtNtNtNtBa_4iter6traits8iterator8Iterator4nextBT_, symObjAddr: 0x4E50, symBinAddr: 0x10004C3E0, symSize: 0x90 }
  - { offset: 0xD59C8, size: 0x8, addend: 0x0, symName: __RNvXs2E_NtNtCsieiGu2EXtoJ_4core5slice4iterINtB6_4IterNtNtCs4xvdaJ1JWuv_14cranelift_isle4sema4TypeENtNtNtNtBa_4iter6traits8iterator8Iterator4nextBT_, symObjAddr: 0x4EE0, symBinAddr: 0x10004C470, symSize: 0x90 }
  - { offset: 0xD5AE9, size: 0x8, addend: 0x0, symName: __RNvXs2E_NtNtCsieiGu2EXtoJ_4core5slice4iterINtB6_4IterNtNtCs4xvdaJ1JWuv_14cranelift_isle4sema5FieldENtNtNtNtBa_4iter6traits8iterator8Iterator24___iterator_get_uncheckedBT_, symObjAddr: 0x4F70, symBinAddr: 0x10004C500, symSize: 0x20 }
  - { offset: 0xD5B44, size: 0x8, addend: 0x0, symName: __RNvXs2E_NtNtCsieiGu2EXtoJ_4core5slice4iterINtB6_4IterNtNtCs4xvdaJ1JWuv_14cranelift_isle4sema5FieldENtNtNtNtBa_4iter6traits8iterator8Iterator4nextBT_, symObjAddr: 0x4F90, symBinAddr: 0x10004C520, symSize: 0x90 }
  - { offset: 0xD5C65, size: 0x8, addend: 0x0, symName: __RNvXs2E_NtNtCsieiGu2EXtoJ_4core5slice4iterINtB6_4IterNtNtCs4xvdaJ1JWuv_14cranelift_isle4sema5FieldENtNtNtNtBa_4iter6traits8iterator8Iterator9size_hintBT_, symObjAddr: 0x5020, symBinAddr: 0x10004C5B0, symSize: 0x60 }
  - { offset: 0xD5CD4, size: 0x8, addend: 0x0, symName: __RNvXs2E_NtNtCsieiGu2EXtoJ_4core5slice4iterINtB6_4IterNtNtCs4xvdaJ1JWuv_14cranelift_isle4sema5IfLetENtNtNtNtBa_4iter6traits8iterator8Iterator4nextBT_, symObjAddr: 0x5080, symBinAddr: 0x10004C610, symSize: 0x90 }
  - { offset: 0xD5DF5, size: 0x8, addend: 0x0, symName: __RNvXs2E_NtNtCsieiGu2EXtoJ_4core5slice4iterINtB6_4IterNtNtCs4xvdaJ1JWuv_14cranelift_isle4sema6TermIdENtNtNtNtBa_4iter6traits8iterator8Iterator4nextBT_, symObjAddr: 0x5110, symBinAddr: 0x10004C6A0, symSize: 0x90 }
  - { offset: 0xD5F16, size: 0x8, addend: 0x0, symName: __RNvXs2E_NtNtCsieiGu2EXtoJ_4core5slice4iterINtB6_4IterNtNtCs4xvdaJ1JWuv_14cranelift_isle4sema6TermIdENtNtNtNtBa_4iter6traits8iterator8Iterator9size_hintBT_, symObjAddr: 0x51A0, symBinAddr: 0x10004C730, symSize: 0x60 }
  - { offset: 0xD5F85, size: 0x8, addend: 0x0, symName: __RNvXs2E_NtNtCsieiGu2EXtoJ_4core5slice4iterINtB6_4IterNtNtCs4xvdaJ1JWuv_14cranelift_isle4sema6TypeIdENtNtNtNtBa_4iter6traits8iterator8Iterator24___iterator_get_uncheckedBT_, symObjAddr: 0x5200, symBinAddr: 0x10004C790, symSize: 0x20 }
  - { offset: 0xD5FE0, size: 0x8, addend: 0x0, symName: __RNvXs2E_NtNtCsieiGu2EXtoJ_4core5slice4iterINtB6_4IterNtNtCs4xvdaJ1JWuv_14cranelift_isle4sema6TypeIdENtNtNtNtBa_4iter6traits8iterator8Iterator4nextBT_, symObjAddr: 0x5220, symBinAddr: 0x10004C7B0, symSize: 0x90 }
  - { offset: 0xD6101, size: 0x8, addend: 0x0, symName: __RNvXs2E_NtNtCsieiGu2EXtoJ_4core5slice4iterINtB6_4IterNtNtCs4xvdaJ1JWuv_14cranelift_isle4sema6TypeIdENtNtNtNtBa_4iter6traits8iterator8Iterator9size_hintBT_, symObjAddr: 0x52B0, symBinAddr: 0x10004C840, symSize: 0x60 }
  - { offset: 0xD6170, size: 0x8, addend: 0x0, symName: __RNvXs2E_NtNtCsieiGu2EXtoJ_4core5slice4iterINtB6_4IterNtNtCs4xvdaJ1JWuv_14cranelift_isle4sema7PatternENtNtNtNtBa_4iter6traits8iterator8Iterator24___iterator_get_uncheckedBT_, symObjAddr: 0x5310, symBinAddr: 0x10004C8A0, symSize: 0x20 }
  - { offset: 0xD61CB, size: 0x8, addend: 0x0, symName: __RNvXs2E_NtNtCsieiGu2EXtoJ_4core5slice4iterINtB6_4IterNtNtCs4xvdaJ1JWuv_14cranelift_isle4sema7PatternENtNtNtNtBa_4iter6traits8iterator8Iterator4nextBT_, symObjAddr: 0x5330, symBinAddr: 0x10004C8C0, symSize: 0x90 }
  - { offset: 0xD62EC, size: 0x8, addend: 0x0, symName: __RNvXs2E_NtNtCsieiGu2EXtoJ_4core5slice4iterINtB6_4IterNtNtCs4xvdaJ1JWuv_14cranelift_isle4sema7PatternENtNtNtNtBa_4iter6traits8iterator8Iterator9size_hintBT_, symObjAddr: 0x53C0, symBinAddr: 0x10004C950, symSize: 0x60 }
  - { offset: 0xD635B, size: 0x8, addend: 0x0, symName: __RNvXs2E_NtNtCsieiGu2EXtoJ_4core5slice4iterINtB6_4IterNtNtCs4xvdaJ1JWuv_14cranelift_isle4sema7VariantENtNtNtNtBa_4iter6traits8iterator8Iterator4nextBT_, symObjAddr: 0x5420, symBinAddr: 0x10004C9B0, symSize: 0x90 }
  - { offset: 0xD647C, size: 0x8, addend: 0x0, symName: __RNvXs2E_NtNtCsieiGu2EXtoJ_4core5slice4iterINtB6_4IterNtNtCs4xvdaJ1JWuv_14cranelift_isle5error4SpanENtNtNtNtBa_4iter6traits8iterator8Iterator4nextBT_, symObjAddr: 0x54B0, symBinAddr: 0x10004CA40, symSize: 0x90 }
  - { offset: 0xD659D, size: 0x8, addend: 0x0, symName: __RNvXs2E_NtNtCsieiGu2EXtoJ_4core5slice4iterINtB6_4IterNtNtCs4xvdaJ1JWuv_14cranelift_isle5error4SpanENtNtNtNtBa_4iter6traits8iterator8Iterator9size_hintBT_, symObjAddr: 0x5540, symBinAddr: 0x10004CAD0, symSize: 0x60 }
  - { offset: 0xD660C, size: 0x8, addend: 0x0, symName: __RNvXs2E_NtNtCsieiGu2EXtoJ_4core5slice4iterINtB6_4IterNtNtCs4xvdaJ1JWuv_14cranelift_isle5error5ErrorENtNtNtNtBa_4iter6traits8iterator8Iterator9size_hintBT_, symObjAddr: 0x55A0, symBinAddr: 0x10004CB30, symSize: 0x60 }
  - { offset: 0xD667B, size: 0x8, addend: 0x0, symName: __RNvXs2E_NtNtCsieiGu2EXtoJ_4core5slice4iterINtB6_4IterNtNtCs4xvdaJ1JWuv_14cranelift_isle9serialize14EqualCandidateENtNtNtNtBa_4iter6traits8iterator8Iterator4nextBT_, symObjAddr: 0x5600, symBinAddr: 0x10004CB90, symSize: 0x90 }
  - { offset: 0xD679C, size: 0x8, addend: 0x0, symName: __RNvXs2E_NtNtCsieiGu2EXtoJ_4core5slice4iterINtB6_4IterNtNtCs4xvdaJ1JWuv_14cranelift_isle9serialize8EvalStepENtNtNtNtBa_4iter6traits8iterator8Iterator4nextBT_, symObjAddr: 0x5690, symBinAddr: 0x10004CC20, symSize: 0x90 }
  - { offset: 0xD68BD, size: 0x8, addend: 0x0, symName: __RNvXs2E_NtNtCsieiGu2EXtoJ_4core5slice4iterINtB6_4IterNtNtCs4xvdaJ1JWuv_14cranelift_isle9serialize8MatchArmENtNtNtNtBa_4iter6traits8iterator8Iterator4nextBT_, symObjAddr: 0x5720, symBinAddr: 0x10004CCB0, symSize: 0x90 }
  - { offset: 0xD69DE, size: 0x8, addend: 0x0, symName: __RNvXs2E_NtNtCsieiGu2EXtoJ_4core5slice4iterINtB6_4IterNtNtCs4xvdaJ1JWuv_14cranelift_isle9serialize9CandidateENtNtNtNtBa_4iter6traits8iterator8Iterator4nextBT_, symObjAddr: 0x57B0, symBinAddr: 0x10004CD40, symSize: 0x90 }
  - { offset: 0xD6AFF, size: 0x8, addend: 0x0, symName: __RNvXs2E_NtNtCsieiGu2EXtoJ_4core5slice4iterINtB6_4IterNtNtCslJiobkLta79_5alloc6string6StringENtNtNtNtBa_4iter6traits8iterator8Iterator4nextCs4xvdaJ1JWuv_14cranelift_isle, symObjAddr: 0x5840, symBinAddr: 0x10004CDD0, symSize: 0x90 }
  - { offset: 0xD6C20, size: 0x8, addend: 0x0, symName: __RNvXs2E_NtNtCsieiGu2EXtoJ_4core5slice4iterINtB6_4IterReENtNtNtNtBa_4iter6traits8iterator8Iterator4nextCs4xvdaJ1JWuv_14cranelift_isle, symObjAddr: 0x58D0, symBinAddr: 0x10004CE60, symSize: 0x90 }
  - { offset: 0xD6D41, size: 0x8, addend: 0x0, symName: __RNvXs2E_NtNtCsieiGu2EXtoJ_4core5slice4iterINtB6_4IterTNtNtCs4xvdaJ1JWuv_14cranelift_isle4sema5VarIdNtBS_6TypeIdINtNtCslJiobkLta79_5alloc5boxed3BoxNtBS_4ExprEEENtNtNtNtBa_4iter6traits8iterator8Iterator4nextBU_, symObjAddr: 0x5960, symBinAddr: 0x10004CEF0, symSize: 0x90 }
  - { offset: 0xD6E62, size: 0x8, addend: 0x0, symName: __RNvXs2E_NtNtCsieiGu2EXtoJ_4core5slice4iterINtB6_4IterTNtNtCs4xvdaJ1JWuv_14cranelift_isle4sema6TermIdNtNtBU_10trie_again7RuleSetEENtNtNtNtBa_4iter6traits8iterator8Iterator4nextBU_, symObjAddr: 0x59F0, symBinAddr: 0x10004CF80, symSize: 0x90 }
  - { offset: 0xD6F83, size: 0x8, addend: 0x0, symName: __RNvXs2E_NtNtCsieiGu2EXtoJ_4core5slice4iterINtB6_4IterhENtNtNtNtBa_4iter6traits8iterator8Iterator10advance_byCs4xvdaJ1JWuv_14cranelift_isle, symObjAddr: 0x5A80, symBinAddr: 0x10004D010, symSize: 0xA0 }
  - { offset: 0xD70C3, size: 0x8, addend: 0x0, symName: __RNvXs2E_NtNtCsieiGu2EXtoJ_4core5slice4iterINtB6_4IterhENtNtNtNtBa_4iter6traits8iterator8Iterator24___iterator_get_uncheckedCs4xvdaJ1JWuv_14cranelift_isle, symObjAddr: 0x5B20, symBinAddr: 0x10004D0B0, symSize: 0x20 }
  - { offset: 0xD711E, size: 0x8, addend: 0x0, symName: __RNvXs2E_NtNtCsieiGu2EXtoJ_4core5slice4iterINtB6_4IterhENtNtNtNtBa_4iter6traits8iterator8Iterator4nextCs4xvdaJ1JWuv_14cranelift_isle, symObjAddr: 0x5B40, symBinAddr: 0x10004D0D0, symSize: 0x90 }
  - { offset: 0xD723F, size: 0x8, addend: 0x0, symName: __RNvXs2E_NtNtCsieiGu2EXtoJ_4core5slice4iterINtB6_4IterhENtNtNtNtBa_4iter6traits8iterator8Iterator9size_hintCs4xvdaJ1JWuv_14cranelift_isle, symObjAddr: 0x5BD0, symBinAddr: 0x10004D160, symSize: 0x60 }
  - { offset: 0xD72AE, size: 0x8, addend: 0x0, symName: __RNvXs2E_NtNtCsieiGu2EXtoJ_4core5slice4iterINtB6_4IterjENtNtNtNtBa_4iter6traits8iterator8Iterator4nextCs4xvdaJ1JWuv_14cranelift_isle, symObjAddr: 0x5C30, symBinAddr: 0x10004D1C0, symSize: 0x90 }
  - { offset: 0xD7E22, size: 0x8, addend: 0x0, symName: __RNvXs1q_NtNtCsieiGu2EXtoJ_4core5slice4iterINtB6_11ChunksExactjENtNtNtNtBa_4iter6traits8iterator8Iterator4nextCs4xvdaJ1JWuv_14cranelift_isle, symObjAddr: 0x4140, symBinAddr: 0x10004B6D0, symSize: 0x160 }
  - { offset: 0xD7EE0, size: 0x8, addend: 0x0, symName: __RNvXs2F_NtNtCsieiGu2EXtoJ_4core5slice4iterINtB6_4IterNtNtCs4xvdaJ1JWuv_14cranelift_isle4sema8BoundVarENtNtNtNtBa_4iter6traits12double_ended19DoubleEndedIterator9next_backBT_, symObjAddr: 0x5CC0, symBinAddr: 0x10004D250, symSize: 0x100 }
  - { offset: 0xD8035, size: 0x8, addend: 0x0, symName: __RNvXs2M_NtNtCsieiGu2EXtoJ_4core5slice4iterINtB6_7IterMutjENtNtNtNtBa_4iter6traits8iterator8Iterator4nextCs4xvdaJ1JWuv_14cranelift_isle, symObjAddr: 0x5DC0, symBinAddr: 0x10004D350, symSize: 0x90 }
  - { offset: 0xD8147, size: 0x8, addend: 0x0, symName: __RNvXs2N_NtNtCsieiGu2EXtoJ_4core5slice4iterINtB6_7IterMutjENtNtNtNtBa_4iter6traits12double_ended19DoubleEndedIterator9next_backCs4xvdaJ1JWuv_14cranelift_isle, symObjAddr: 0x5E50, symBinAddr: 0x10004D3E0, symSize: 0x100 }
  - { offset: 0xD829C, size: 0x8, addend: 0x0, symName: __RNvXsY_NtNtCsieiGu2EXtoJ_4core5slice4iterINtB5_7WindowshENtNtNtNtB9_4iter6traits8iterator8Iterator4nextCs4xvdaJ1JWuv_14cranelift_isle, symObjAddr: 0x5F50, symBinAddr: 0x10004D4E0, symSize: 0x150 }
  - { offset: 0xD83DD, size: 0x8, addend: 0x0, symName: __RNvXsY_NtNtCsieiGu2EXtoJ_4core5slice4iterINtB5_7WindowsjENtNtNtNtB9_4iter6traits8iterator8Iterator4nextCs4xvdaJ1JWuv_14cranelift_isle, symObjAddr: 0x60A0, symBinAddr: 0x10004D630, symSize: 0x150 }
  - { offset: 0xD8524, size: 0x8, addend: 0x0, symName: __RNvXs_NtNtCsieiGu2EXtoJ_4core5slice4iterRShNtNtNtNtB8_4iter6traits7collect12IntoIterator9into_iterCs4xvdaJ1JWuv_14cranelift_isle, symObjAddr: 0x61F0, symBinAddr: 0x10004D780, symSize: 0x50 }
  - { offset: 0xDD421, size: 0x8, addend: 0x0, symName: __RNvXsh_NtNtNtCsieiGu2EXtoJ_4core4iter8adapters3zipINtNtNtBb_5slice4iter4IterNtNtCs4xvdaJ1JWuv_14cranelift_isle4sema4ExprENtB5_23SpecTrustedRandomAccess17try_get_uncheckedB1g_, symObjAddr: 0x6240, symBinAddr: 0x10004D7D0, symSize: 0x20 }
  - { offset: 0xDD467, size: 0x8, addend: 0x0, symName: __RNvXsh_NtNtNtCsieiGu2EXtoJ_4core4iter8adapters3zipINtNtNtBb_5slice4iter4IterNtNtCs4xvdaJ1JWuv_14cranelift_isle4sema6TypeIdENtB5_23SpecTrustedRandomAccess17try_get_uncheckedB1g_, symObjAddr: 0x6260, symBinAddr: 0x10004D7F0, symSize: 0x20 }
  - { offset: 0xDD4B3, size: 0x8, addend: 0x0, symName: __RNvYINtNtNtCsieiGu2EXtoJ_4core5slice4iter4IterINtNtB9_6option6OptionNtNtCs4xvdaJ1JWuv_14cranelift_isle10trie_again9BindingIdEENtNtNtNtB9_4iter8adapters3zip27TrustedRandomAccessNoCoerce4sizeB18_, symObjAddr: 0x6280, symBinAddr: 0x10004D810, symSize: 0x30 }
  - { offset: 0xDD4EA, size: 0x8, addend: 0x0, symName: __RNvYINtNtNtCsieiGu2EXtoJ_4core5slice4iter4IterNtNtCs4xvdaJ1JWuv_14cranelift_isle10trie_again9BindingIdENtNtNtNtB9_4iter8adapters3zip27TrustedRandomAccessNoCoerce4sizeBM_, symObjAddr: 0x62D0, symBinAddr: 0x10004D860, symSize: 0x30 }
  - { offset: 0xDD521, size: 0x8, addend: 0x0, symName: __RNvYINtNtNtCsieiGu2EXtoJ_4core5slice4iter4IterNtNtCs4xvdaJ1JWuv_14cranelift_isle3ast4ExprENtNtNtNtB9_4iter8adapters3zip27TrustedRandomAccessNoCoerce4sizeBM_, symObjAddr: 0x6300, symBinAddr: 0x10004D890, symSize: 0x30 }
  - { offset: 0xDD558, size: 0x8, addend: 0x0, symName: __RNvYINtNtNtCsieiGu2EXtoJ_4core5slice4iter4IterNtNtCs4xvdaJ1JWuv_14cranelift_isle3ast7PatternENtNtNtNtB9_4iter8adapters3zip27TrustedRandomAccessNoCoerce4sizeBM_, symObjAddr: 0x6330, symBinAddr: 0x10004D8C0, symSize: 0x30 }
  - { offset: 0xDD58F, size: 0x8, addend: 0x0, symName: __RNvYINtNtNtCsieiGu2EXtoJ_4core5slice4iter4IterNtNtCs4xvdaJ1JWuv_14cranelift_isle4sema5FieldENtNtNtNtB9_4iter8adapters3zip27TrustedRandomAccessNoCoerce4sizeBM_, symObjAddr: 0x6360, symBinAddr: 0x10004D8F0, symSize: 0x30 }
  - { offset: 0xDD5C6, size: 0x8, addend: 0x0, symName: __RNvYINtNtNtCsieiGu2EXtoJ_4core5slice4iter4IterNtNtCs4xvdaJ1JWuv_14cranelift_isle4sema6TypeIdENtNtNtNtB9_4iter8adapters3zip27TrustedRandomAccessNoCoerce4sizeBM_, symObjAddr: 0x63B0, symBinAddr: 0x10004D940, symSize: 0x30 }
  - { offset: 0xDD5FD, size: 0x8, addend: 0x0, symName: __RNvYINtNtNtCsieiGu2EXtoJ_4core5slice4iter4IterNtNtCs4xvdaJ1JWuv_14cranelift_isle4sema7PatternENtNtNtNtB9_4iter8adapters3zip27TrustedRandomAccessNoCoerce4sizeBM_, symObjAddr: 0x63E0, symBinAddr: 0x10004D970, symSize: 0x30 }
  - { offset: 0xDD634, size: 0x8, addend: 0x0, symName: __RNvYINtNtNtCsieiGu2EXtoJ_4core5slice4iter4IterhENtNtNtNtB9_4iter8adapters3zip27TrustedRandomAccessNoCoerce4sizeCs4xvdaJ1JWuv_14cranelift_isle, symObjAddr: 0x6470, symBinAddr: 0x10004DA00, symSize: 0x30 }
  - { offset: 0xDDF63, size: 0x8, addend: 0x0, symName: __RINvYINtNtNtCsieiGu2EXtoJ_4core5slice4iter4IterINtNtBa_6option6OptionNtNtCs4xvdaJ1JWuv_14cranelift_isle10trie_again9BindingIdEENtNtNtNtBa_4iter6traits8iterator8Iterator3zipIB4_NtNtB19_4sema5FieldEEB19_, symObjAddr: 0x2040, symBinAddr: 0x1000495D0, symSize: 0xD0 }
  - { offset: 0xDDFD9, size: 0x8, addend: 0x0, symName: __RINvYINtNtNtCsieiGu2EXtoJ_4core5slice4iter4IterNtNtCs4xvdaJ1JWuv_14cranelift_isle10trie_again9BindingIdENtNtNtNtBa_4iter6traits8iterator8Iterator3zipIB4_NtNtBN_4sema6TypeIdEEBN_, symObjAddr: 0x2110, symBinAddr: 0x1000496A0, symSize: 0xD0 }
  - { offset: 0xDE04F, size: 0x8, addend: 0x0, symName: __RINvYINtNtNtCsieiGu2EXtoJ_4core5slice4iter4IterNtNtCs4xvdaJ1JWuv_14cranelift_isle10trie_again9BindingIdENtNtNtNtBa_4iter6traits8iterator8Iterator3zipINtNtCslJiobkLta79_5alloc3vec3VecBJ_EEBN_, symObjAddr: 0x21E0, symBinAddr: 0x100049770, symSize: 0x90 }
  - { offset: 0xDE0C7, size: 0x8, addend: 0x0, symName: __RINvYINtNtNtCsieiGu2EXtoJ_4core5slice4iter4IterNtNtCs4xvdaJ1JWuv_14cranelift_isle3ast4ExprENtNtNtNtBa_4iter6traits8iterator8Iterator3zipIB4_NtNtBN_4sema6TypeIdEEBN_, symObjAddr: 0x2270, symBinAddr: 0x100049800, symSize: 0xD0 }
  - { offset: 0xDE13D, size: 0x8, addend: 0x0, symName: __RINvYINtNtNtCsieiGu2EXtoJ_4core5slice4iter4IterNtNtCs4xvdaJ1JWuv_14cranelift_isle3ast5IdentENtNtNtNtBa_4iter6traits8iterator8Iterator3mapINtNtBa_6result6ResultNtNtBN_4sema6TypeIduENCNvMs5_B2z_NtB2z_7TermEnv17collect_term_sigs0EBN_, symObjAddr: 0x2340, symBinAddr: 0x1000498D0, symSize: 0x20 }
  - { offset: 0xDE1AA, size: 0x8, addend: 0x0, symName: __RINvYINtNtNtCsieiGu2EXtoJ_4core5slice4iter4IterNtNtCs4xvdaJ1JWuv_14cranelift_isle3ast5IdentENtNtNtNtBa_4iter6traits8iterator8Iterator8try_folduNCINvNtNtB1y_8adapters3map12map_try_foldRBJ_INtNtBa_6result6ResultNtNtBN_4sema6TypeIduEuINtNtNtBa_3ops12control_flow11ControlFlowIB3I_B3l_EENCNvMs5_B3n_NtB3n_7TermEnv17collect_term_sigs0NCINvXB2o_INtB2o_12GenericShuntINtB2m_3MapB3_B4x_EIB30_NtNtBa_7convert10InfallibleuEEB1s_8try_folduNCINvNvB1s_12try_for_each4callB3l_B4m_NcNtB4m_5Break0E0B4m_E0E0B3H_EBN_, symObjAddr: 0x2360, symBinAddr: 0x1000498F0, symSize: 0x180 }
  - { offset: 0xDE25D, size: 0x8, addend: 0x0, symName: __RINvYINtNtNtCsieiGu2EXtoJ_4core5slice4iter4IterNtNtCs4xvdaJ1JWuv_14cranelift_isle3ast5IfLetENtNtNtNtBa_4iter6traits8iterator8Iterator10filter_mapNtNtBN_4sema5IfLetNCNvMs5_B2l_NtB2l_7TermEnv13collect_rules0EBN_, symObjAddr: 0x24E0, symBinAddr: 0x100049A70, symSize: 0x40 }
  - { offset: 0xDE2CB, size: 0x8, addend: 0x0, symName: __RINvYINtNtNtCsieiGu2EXtoJ_4core5slice4iter4IterNtNtCs4xvdaJ1JWuv_14cranelift_isle3ast7PatternENtNtNtNtBa_4iter6traits8iterator8Iterator10filter_mapNtNtBN_4sema7PatternNCNvMs5_B2n_NtB2n_7TermEnv17translate_pattern0EBN_, symObjAddr: 0x2520, symBinAddr: 0x100049AB0, symSize: 0x40 }
  - { offset: 0xDE339, size: 0x8, addend: 0x0, symName: __RINvYINtNtNtCsieiGu2EXtoJ_4core5slice4iter4IterNtNtCs4xvdaJ1JWuv_14cranelift_isle3ast7PatternENtNtNtNtBa_4iter6traits8iterator8Iterator3mapBJ_NCNvMBL_BJ_19make_macro_templates0_0EBN_, symObjAddr: 0x2560, symBinAddr: 0x100049AF0, symSize: 0x30 }
  - { offset: 0xDE3A6, size: 0x8, addend: 0x0, symName: __RINvYINtNtNtCsieiGu2EXtoJ_4core5slice4iter4IterNtNtCs4xvdaJ1JWuv_14cranelift_isle3ast7PatternENtNtNtNtBa_4iter6traits8iterator8Iterator3mapBJ_NCNvMBL_BJ_19make_macro_templates1_0EBN_, symObjAddr: 0x2590, symBinAddr: 0x100049B20, symSize: 0x30 }
  - { offset: 0xDE413, size: 0x8, addend: 0x0, symName: __RINvYINtNtNtCsieiGu2EXtoJ_4core5slice4iter4IterNtNtCs4xvdaJ1JWuv_14cranelift_isle3ast7PatternENtNtNtNtBa_4iter6traits8iterator8Iterator3mapINtNtBa_6option6OptionBJ_ENCNvMBL_BJ_16subst_macro_args0EBN_, symObjAddr: 0x25C0, symBinAddr: 0x100049B50, symSize: 0x30 }
  - { offset: 0xDE480, size: 0x8, addend: 0x0, symName: __RINvYINtNtNtCsieiGu2EXtoJ_4core5slice4iter4IterNtNtCs4xvdaJ1JWuv_14cranelift_isle3ast7PatternENtNtNtNtBa_4iter6traits8iterator8Iterator3mapINtNtBa_6option6OptionBJ_ENCNvMBL_BJ_16subst_macro_argss_0EBN_, symObjAddr: 0x25F0, symBinAddr: 0x100049B80, symSize: 0x30 }
  - { offset: 0xDE4ED, size: 0x8, addend: 0x0, symName: __RINvYINtNtNtCsieiGu2EXtoJ_4core5slice4iter4IterNtNtCs4xvdaJ1JWuv_14cranelift_isle3ast7PatternENtNtNtNtBa_4iter6traits8iterator8Iterator3zipIB4_NtNtBN_4sema6TypeIdEEBN_, symObjAddr: 0x2620, symBinAddr: 0x100049BB0, symSize: 0xD0 }
  - { offset: 0xDE563, size: 0x8, addend: 0x0, symName: __RINvYINtNtNtCsieiGu2EXtoJ_4core5slice4iter4IterNtNtCs4xvdaJ1JWuv_14cranelift_isle3ast7PatternENtNtNtNtBa_4iter6traits8iterator8Iterator8try_folduNCINvNtNtB1A_8adapters3map12map_try_foldRBJ_INtNtBa_6option6OptionBJ_EuINtNtNtBa_3ops12control_flow11ControlFlowIB3t_BJ_EENCNvMBL_BJ_16subst_macro_args0NCINvXB2q_INtB2q_12GenericShuntINtB2o_3MapB3_B4h_EIB32_NtNtBa_7convert10InfallibleEEB1u_8try_folduNCINvNvB1u_12try_for_each4callBJ_B47_NcNtB47_5Break0E0B47_E0E0B3s_EBN_, symObjAddr: 0x26F0, symBinAddr: 0x100049C80, symSize: 0x170 }
  - { offset: 0xDE61F, size: 0x8, addend: 0x0, symName: __RINvYINtNtNtCsieiGu2EXtoJ_4core5slice4iter4IterNtNtCs4xvdaJ1JWuv_14cranelift_isle3ast7PatternENtNtNtNtBa_4iter6traits8iterator8Iterator8try_folduNCINvNtNtB1A_8adapters3map12map_try_foldRBJ_INtNtBa_6option6OptionBJ_EuINtNtNtBa_3ops12control_flow11ControlFlowIB3t_BJ_EENCNvMBL_BJ_16subst_macro_argss_0NCINvXB2q_INtB2q_12GenericShuntINtB2o_3MapB3_B4h_EIB32_NtNtBa_7convert10InfallibleEEB1u_8try_folduNCINvNvB1u_12try_for_each4callBJ_B47_NcNtB47_5Break0E0B47_E0E0B3s_EBN_, symObjAddr: 0x2860, symBinAddr: 0x100049DF0, symSize: 0x170 }
  - { offset: 0xDE6DB, size: 0x8, addend: 0x0, symName: __RINvYINtNtNtCsieiGu2EXtoJ_4core5slice4iter4IterNtNtCs4xvdaJ1JWuv_14cranelift_isle4sema4ExprENtNtNtNtBa_4iter6traits8iterator8Iterator3mapNtNtBN_10trie_again9BindingIdNCINvMs1_BL_BJ_5visitNtB2d_14RuleSetBuilderE0EBN_, symObjAddr: 0x29D0, symBinAddr: 0x100049F60, symSize: 0x30 }
  - { offset: 0xDE749, size: 0x8, addend: 0x0, symName: __RINvYINtNtNtCsieiGu2EXtoJ_4core5slice4iter4IterNtNtCs4xvdaJ1JWuv_14cranelift_isle4sema5FieldENtNtNtNtBa_4iter6traits8iterator8Iterator3mapNtBL_6TypeIdNCNvMs5_BL_NtBL_7TermEnv26collect_enum_variant_terms0EBN_, symObjAddr: 0x2A00, symBinAddr: 0x100049F90, symSize: 0x20 }
  - { offset: 0xDE7A1, size: 0x8, addend: 0x0, symName: __RINvYINtNtNtCsieiGu2EXtoJ_4core5slice4iter4IterNtNtCs4xvdaJ1JWuv_14cranelift_isle4sema5FieldENtNtNtNtBa_4iter6traits8iterator8Iterator3zipIB4_NtNtBN_10trie_again9BindingIdEEBN_, symObjAddr: 0x2A20, symBinAddr: 0x100049FB0, symSize: 0xD0 }
  - { offset: 0xDE817, size: 0x8, addend: 0x0, symName: __RINvYINtNtNtCsieiGu2EXtoJ_4core5slice4iter4IterNtNtCs4xvdaJ1JWuv_14cranelift_isle4sema6TermIdENtNtNtNtBa_4iter6traits8iterator8Iterator3mapReNCNvMs5_BL_NtBL_7TermEnv27collect_extractor_templatess0_0EBN_, symObjAddr: 0x2AF0, symBinAddr: 0x10004A080, symSize: 0x20 }
  - { offset: 0xDE884, size: 0x8, addend: 0x0, symName: __RINvYINtNtNtCsieiGu2EXtoJ_4core5slice4iter4IterNtNtCs4xvdaJ1JWuv_14cranelift_isle4sema6TypeIdENtNtNtNtBa_4iter6traits8iterator8Iterator3mapNtNtCslJiobkLta79_5alloc6string6StringNCNvMs_NtBN_7codegenNtB2W_7Codegen18generate_trait_sig0EBN_, symObjAddr: 0x2B10, symBinAddr: 0x10004A0A0, symSize: 0x20 }
  - { offset: 0xDE8F1, size: 0x8, addend: 0x0, symName: __RINvYINtNtNtCsieiGu2EXtoJ_4core5slice4iter4IterNtNtCs4xvdaJ1JWuv_14cranelift_isle4sema6TypeIdENtNtNtNtBa_4iter6traits8iterator8Iterator6copiedBJ_EBN_, symObjAddr: 0x2B30, symBinAddr: 0x10004A0C0, symSize: 0x20 }
  - { offset: 0xDE931, size: 0x8, addend: 0x0, symName: __RINvYINtNtNtCsieiGu2EXtoJ_4core5slice4iter4IterNtNtCs4xvdaJ1JWuv_14cranelift_isle4sema7PatternENtNtNtNtBa_4iter6traits8iterator8Iterator3mapNtBL_6TypeIdNCINvMs0_BL_BJ_5visitNtNtBN_10trie_again14RuleSetBuilderE0EBN_, symObjAddr: 0x2B50, symBinAddr: 0x10004A0E0, symSize: 0x20 }
  - { offset: 0xDE989, size: 0x8, addend: 0x0, symName: __RINvYINtNtNtCsieiGu2EXtoJ_4core5slice4iter4IterNtNtCs4xvdaJ1JWuv_14cranelift_isle4sema7PatternENtNtNtNtBa_4iter6traits8iterator8Iterator3zipIB4_NtBL_6TypeIdEEBN_, symObjAddr: 0x2B70, symBinAddr: 0x10004A100, symSize: 0xD0 }
  - { offset: 0xDE9FF, size: 0x8, addend: 0x0, symName: __RINvYINtNtNtCsieiGu2EXtoJ_4core5slice4iter4IterNtNtCs4xvdaJ1JWuv_14cranelift_isle4sema7PatternENtNtNtNtBa_4iter6traits8iterator8Iterator3zipINtNtCslJiobkLta79_5alloc3vec3VecNtNtBN_10trie_again9BindingIdEEBN_, symObjAddr: 0x2C40, symBinAddr: 0x10004A1D0, symSize: 0x90 }
  - { offset: 0xDEA77, size: 0x8, addend: 0x0, symName: __RINvYINtNtNtCsieiGu2EXtoJ_4core5slice4iter4IterNtNtCs4xvdaJ1JWuv_14cranelift_isle5error4SpanENtNtNtNtBa_4iter6traits8iterator8Iterator3mapINtNtBL_10diagnostic5LabeljENCNCNvXBL_NtBL_6ErrorsNtNtBa_3fmt5Debug3fmt00EBN_, symObjAddr: 0x2E70, symBinAddr: 0x10004A400, symSize: 0x20 }
  - { offset: 0xDEACF, size: 0x8, addend: 0x0, symName: __RINvYINtNtNtCsieiGu2EXtoJ_4core5slice4iter4IterNtNtCs4xvdaJ1JWuv_14cranelift_isle5error4SpanENtNtNtNtBa_4iter6traits8iterator8Iterator3mapINtNtBL_10diagnostic5LabeljENCNCNvXBL_NtBL_6ErrorsNtNtBa_3fmt5Debug3fmt0s_0EBN_, symObjAddr: 0x2E90, symBinAddr: 0x10004A420, symSize: 0x20 }
  - { offset: 0xDEB27, size: 0x8, addend: 0x0, symName: __RINvYINtNtNtCsieiGu2EXtoJ_4core5slice4iter4IterNtNtCs4xvdaJ1JWuv_14cranelift_isle5error5ErrorENtNtNtNtBa_4iter6traits8iterator8Iterator3mapINtNtBL_10diagnostic10DiagnosticjENCNvXBL_NtBL_6ErrorsNtNtBa_3fmt5Debug3fmt0EBN_, symObjAddr: 0x2EB0, symBinAddr: 0x10004A440, symSize: 0x20 }
  - { offset: 0xDEB7F, size: 0x8, addend: 0x0, symName: __RINvYINtNtNtCsieiGu2EXtoJ_4core5slice4iter4IterNtNtCs4xvdaJ1JWuv_14cranelift_isle9serialize9CandidateENtNtNtNtBa_4iter6traits8iterator8Iterator6max_byNvYRBJ_NtNtBa_3cmp3Ord3cmpEBN_, symObjAddr: 0x2ED0, symBinAddr: 0x10004A460, symSize: 0x20 }
  - { offset: 0xDEBCE, size: 0x8, addend: 0x0, symName: __RINvYINtNtNtCsieiGu2EXtoJ_4core5slice4iter4IterNtNtCs4xvdaJ1JWuv_14cranelift_isle9serialize9CandidateENtNtNtNtBa_4iter6traits8iterator8Iterator6reduceNCINvNvB1C_6max_by4foldRBJ_NvYB2L_NtNtBa_3cmp3Ord3cmpE0EBN_, symObjAddr: 0x2EF0, symBinAddr: 0x10004A480, symSize: 0xD0 }
  - { offset: 0xDECA0, size: 0x8, addend: 0x0, symName: __RINvYINtNtNtCsieiGu2EXtoJ_4core5slice4iter4IterNtNtCslJiobkLta79_5alloc6string6StringENtNtNtNtBa_4iter6traits8iterator8Iterator8try_foldjNCINvNtNtB1s_8adapters3map12map_try_foldRBJ_jjINtNtBa_6option6OptionjENCNCINvNtBN_3str17join_generic_copyehBJ_E00NvMs9_NtBa_3numj11checked_addE0B2V_ECs4xvdaJ1JWuv_14cranelift_isle, symObjAddr: 0x2FC0, symBinAddr: 0x10004A550, symSize: 0x180 }
  - { offset: 0xDED54, size: 0x8, addend: 0x0, symName: __RINvYINtNtNtCsieiGu2EXtoJ_4core5slice4iter4IterReENtNtNtNtBa_4iter6traits8iterator8Iterator8try_foldjNCINvNtNtBS_8adapters3map12map_try_foldRBJ_jjINtNtBa_6option6OptionjENCNCINvNtCslJiobkLta79_5alloc3str17join_generic_copyehBJ_E00NvMs9_NtBa_3numj11checked_addE0B2k_ECs4xvdaJ1JWuv_14cranelift_isle, symObjAddr: 0x3140, symBinAddr: 0x10004A6D0, symSize: 0x180 }
  - { offset: 0xDEE08, size: 0x8, addend: 0x0, symName: __RINvYINtNtNtCsieiGu2EXtoJ_4core5slice4iter4IterhENtNtNtNtBa_4iter6traits8iterator8Iterator3zipRShECs4xvdaJ1JWuv_14cranelift_isle, symObjAddr: 0x32C0, symBinAddr: 0x10004A850, symSize: 0xD0 }
  - { offset: 0xDEE7E, size: 0x8, addend: 0x0, symName: __RINvYINtNtNtCsieiGu2EXtoJ_4core5slice4iter4IterjENtNtNtNtBa_4iter6traits8iterator8Iterator3mapxNCNvNtCs4xvdaJ1JWuv_14cranelift_isle9serialize16respect_priority0EB1B_, symObjAddr: 0x3390, symBinAddr: 0x10004A920, symSize: 0x20 }
  - { offset: 0xDEEEB, size: 0x8, addend: 0x0, symName: __RINvYINtNtNtCsieiGu2EXtoJ_4core5slice4iter7WindowshENtNtNtNtBa_4iter6traits8iterator8Iterator8try_folduNCINvNvBO_3any5checkRShNCNvNtNtBa_3str7pattern13simd_containss_0E0INtNtNtBa_3ops12control_flow11ControlFlowuEECs4xvdaJ1JWuv_14cranelift_isle, symObjAddr: 0x33B0, symBinAddr: 0x10004A940, symSize: 0x110 }
  - { offset: 0xDEF9E, size: 0x8, addend: 0x0, symName: __RINvYINtNtNtCsieiGu2EXtoJ_4core5slice4iter7WindowsjENtNtNtNtBa_4iter6traits8iterator8Iterator8positionNCNCINvNtCs4xvdaJ1JWuv_14cranelift_isle9serialize12group_by_mutjNCNvMs2_B1J_NtB1J_13Decomposition17make_control_flows0_0E00EB1L_, symObjAddr: 0x34C0, symBinAddr: 0x10004AA50, symSize: 0x80 }
  - { offset: 0xDF043, size: 0x8, addend: 0x0, symName: __RINvYINtNtNtCsieiGu2EXtoJ_4core5slice4iter7WindowsjENtNtNtNtBa_4iter6traits8iterator8Iterator8try_folduNCINvNvBO_8position5checkRSjNCNCINvNtCs4xvdaJ1JWuv_14cranelift_isle9serialize12group_by_mutjNCNvMs2_B2c_NtB2c_13Decomposition17make_control_flows0_0E00E0INtNtNtBa_3ops12control_flow11ControlFlowjEEB2e_, symObjAddr: 0x3540, symBinAddr: 0x10004AAD0, symSize: 0x190 }
  - { offset: 0xDF0F6, size: 0x8, addend: 0x0, symName: __RNvYINtNtNtCsieiGu2EXtoJ_4core5slice4iter4IterNtNtCs4xvdaJ1JWuv_14cranelift_isle10trie_again7BindingENtNtNtNtB9_4iter6traits8iterator8Iterator9enumerateBM_, symObjAddr: 0x62B0, symBinAddr: 0x10004D840, symSize: 0x20 }
  - { offset: 0xDF142, size: 0x8, addend: 0x0, symName: __RNvYINtNtNtCsieiGu2EXtoJ_4core5slice4iter4IterNtNtCs4xvdaJ1JWuv_14cranelift_isle4sema6TypeIdENtNtNtNtB9_4iter6traits8iterator8Iterator9enumerateBM_, symObjAddr: 0x6390, symBinAddr: 0x10004D920, symSize: 0x20 }
  - { offset: 0xDF18E, size: 0x8, addend: 0x0, symName: __RNvYINtNtNtCsieiGu2EXtoJ_4core5slice4iter4IterNtNtCs4xvdaJ1JWuv_14cranelift_isle4sema8BoundVarENtNtNtNtB9_4iter6traits8iterator8Iterator3revBM_, symObjAddr: 0x6410, symBinAddr: 0x10004D9A0, symSize: 0x20 }
  - { offset: 0xDF1C5, size: 0x8, addend: 0x0, symName: __RNvYINtNtNtCsieiGu2EXtoJ_4core5slice4iter4IterNtNtCs4xvdaJ1JWuv_14cranelift_isle9serialize9CandidateENtNtNtNtB9_4iter6traits8iterator8Iterator3maxBM_, symObjAddr: 0x6430, symBinAddr: 0x10004D9C0, symSize: 0x20 }
  - { offset: 0xDF1FC, size: 0x8, addend: 0x0, symName: __RNvYINtNtNtCsieiGu2EXtoJ_4core5slice4iter4IterNtNtCslJiobkLta79_5alloc6string6StringENtNtNtNtB9_4iter6traits8iterator8Iterator9enumerateCs4xvdaJ1JWuv_14cranelift_isle, symObjAddr: 0x6450, symBinAddr: 0x10004D9E0, symSize: 0x20 }
  - { offset: 0xDF3DE, size: 0x8, addend: 0x0, symName: __RINvYINtNtNtCsieiGu2EXtoJ_4core5slice4iter4IterNtNtCs4xvdaJ1JWuv_14cranelift_isle4sema8BoundVarENtNtNtNtBa_4iter6traits12double_ended19DoubleEndedIterator5rfindNCNvMs4_BL_NtBL_8Bindings6lookup0EBN_, symObjAddr: 0x2CD0, symBinAddr: 0x10004A260, symSize: 0x80 }
  - { offset: 0xDF45D, size: 0x8, addend: 0x0, symName: __RINvYINtNtNtCsieiGu2EXtoJ_4core5slice4iter4IterNtNtCs4xvdaJ1JWuv_14cranelift_isle4sema8BoundVarENtNtNtNtBa_4iter6traits12double_ended19DoubleEndedIterator9try_rfolduNCINvNvB1w_5rfind5checkRBJ_NCNvMs4_BL_NtBL_8Bindings6lookup0E0INtNtNtBa_3ops12control_flow11ControlFlowB30_EEBN_, symObjAddr: 0x2D50, symBinAddr: 0x10004A2E0, symSize: 0x120 }
  - { offset: 0xDF534, size: 0x8, addend: 0x0, symName: __RNvXNtNtNtCsieiGu2EXtoJ_4core4iter6traits7collectINtNtNtB8_5slice4iter4IterINtNtB8_6option6OptionNtNtCs4xvdaJ1JWuv_14cranelift_isle10trie_again9BindingIdEENtB2_12IntoIterator9into_iterB1B_, symObjAddr: 0x4000, symBinAddr: 0x10004B590, symSize: 0x20 }
  - { offset: 0xDF56B, size: 0x8, addend: 0x0, symName: __RNvXNtNtNtCsieiGu2EXtoJ_4core4iter6traits7collectINtNtNtB8_5slice4iter4IterNtNtCs4xvdaJ1JWuv_14cranelift_isle10trie_again9BindingIdENtB2_12IntoIterator9into_iterB1f_, symObjAddr: 0x4020, symBinAddr: 0x10004B5B0, symSize: 0x20 }
  - { offset: 0xDF5A2, size: 0x8, addend: 0x0, symName: __RNvXNtNtNtCsieiGu2EXtoJ_4core4iter6traits7collectINtNtNtB8_5slice4iter4IterNtNtCs4xvdaJ1JWuv_14cranelift_isle4sema4RuleENtB2_12IntoIterator9into_iterB1f_, symObjAddr: 0x4040, symBinAddr: 0x10004B5D0, symSize: 0x20 }
  - { offset: 0xDF5D9, size: 0x8, addend: 0x0, symName: __RNvXNtNtNtCsieiGu2EXtoJ_4core4iter6traits7collectINtNtNtB8_5slice4iter4IterNtNtCs4xvdaJ1JWuv_14cranelift_isle4sema5FieldENtB2_12IntoIterator9into_iterB1f_, symObjAddr: 0x4060, symBinAddr: 0x10004B5F0, symSize: 0x20 }
  - { offset: 0xDF610, size: 0x8, addend: 0x0, symName: __RNvXNtNtNtCsieiGu2EXtoJ_4core4iter6traits7collectINtNtNtB8_5slice4iter4IterNtNtCs4xvdaJ1JWuv_14cranelift_isle4sema5IfLetENtB2_12IntoIterator9into_iterB1f_, symObjAddr: 0x4080, symBinAddr: 0x10004B610, symSize: 0x20 }
  - { offset: 0xDF647, size: 0x8, addend: 0x0, symName: __RNvXNtNtNtCsieiGu2EXtoJ_4core4iter6traits7collectINtNtNtB8_5slice4iter4IterNtNtCs4xvdaJ1JWuv_14cranelift_isle4sema6TypeIdENtB2_12IntoIterator9into_iterB1f_, symObjAddr: 0x40A0, symBinAddr: 0x10004B630, symSize: 0x20 }
  - { offset: 0xDF67E, size: 0x8, addend: 0x0, symName: __RNvXNtNtNtCsieiGu2EXtoJ_4core4iter6traits7collectINtNtNtB8_5slice4iter4IterNtNtCs4xvdaJ1JWuv_14cranelift_isle5error4SpanENtB2_12IntoIterator9into_iterB1f_, symObjAddr: 0x40C0, symBinAddr: 0x10004B650, symSize: 0x20 }
  - { offset: 0xDF6B5, size: 0x8, addend: 0x0, symName: __RNvXNtNtNtCsieiGu2EXtoJ_4core4iter6traits7collectINtNtNtB8_5slice4iter4IterNtNtCs4xvdaJ1JWuv_14cranelift_isle9serialize14EqualCandidateENtB2_12IntoIterator9into_iterB1f_, symObjAddr: 0x40E0, symBinAddr: 0x10004B670, symSize: 0x20 }
  - { offset: 0xDF6EC, size: 0x8, addend: 0x0, symName: __RNvXNtNtNtCsieiGu2EXtoJ_4core4iter6traits7collectINtNtNtB8_5slice4iter4IterTNtNtCs4xvdaJ1JWuv_14cranelift_isle4sema6TermIdNtNtB1g_10trie_again7RuleSetEENtB2_12IntoIterator9into_iterB1g_, symObjAddr: 0x4100, symBinAddr: 0x10004B690, symSize: 0x20 }
  - { offset: 0xDF723, size: 0x8, addend: 0x0, symName: __RNvXNtNtNtCsieiGu2EXtoJ_4core4iter6traits7collectINtNtNtB8_5slice4iter4IterjENtB2_12IntoIterator9into_iterCs4xvdaJ1JWuv_14cranelift_isle, symObjAddr: 0x4120, symBinAddr: 0x10004B6B0, symSize: 0x20 }
  - { offset: 0xE3AAB, size: 0x8, addend: 0x0, symName: __RNvMs4_NtNtCsieiGu2EXtoJ_4core5slice4iterINtB5_4IterINtNtB9_6option6OptionNtNtCs4xvdaJ1JWuv_14cranelift_isle10trie_again9BindingIdEE3newB1e_, symObjAddr: 0x36D0, symBinAddr: 0x10004AC60, symSize: 0x50 }
  - { offset: 0xE3C72, size: 0x8, addend: 0x0, symName: __RNvMs4_NtNtCsieiGu2EXtoJ_4core5slice4iterINtB5_4IterNtNtCs4xvdaJ1JWuv_14cranelift_isle10trie_again4RuleE3newBS_, symObjAddr: 0x3720, symBinAddr: 0x10004ACB0, symSize: 0x50 }
  - { offset: 0xE3DB4, size: 0x8, addend: 0x0, symName: __RNvMs4_NtNtCsieiGu2EXtoJ_4core5slice4iterINtB5_4IterNtNtCs4xvdaJ1JWuv_14cranelift_isle10trie_again4RuleE8as_sliceBS_, symObjAddr: 0x3770, symBinAddr: 0x10004AD00, symSize: 0x60 }
  - { offset: 0xE3F47, size: 0x8, addend: 0x0, symName: __RNvMs4_NtNtCsieiGu2EXtoJ_4core5slice4iterINtB5_4IterNtNtCs4xvdaJ1JWuv_14cranelift_isle10trie_again7BindingE3newBS_, symObjAddr: 0x37D0, symBinAddr: 0x10004AD60, symSize: 0x50 }
  - { offset: 0xE40EB, size: 0x8, addend: 0x0, symName: __RNvMs4_NtNtCsieiGu2EXtoJ_4core5slice4iterINtB5_4IterNtNtCs4xvdaJ1JWuv_14cranelift_isle10trie_again9BindingIdE3newBS_, symObjAddr: 0x3820, symBinAddr: 0x10004ADB0, symSize: 0x50 }
  - { offset: 0xE4298, size: 0x8, addend: 0x0, symName: __RNvMs4_NtNtCsieiGu2EXtoJ_4core5slice4iterINtB5_4IterNtNtCs4xvdaJ1JWuv_14cranelift_isle3ast4ExprE3newBS_, symObjAddr: 0x3870, symBinAddr: 0x10004AE00, symSize: 0x50 }
  - { offset: 0xE441E, size: 0x8, addend: 0x0, symName: __RNvMs4_NtNtCsieiGu2EXtoJ_4core5slice4iterINtB5_4IterNtNtCs4xvdaJ1JWuv_14cranelift_isle3ast5IdentE3newBS_, symObjAddr: 0x38C0, symBinAddr: 0x10004AE50, symSize: 0x50 }
  - { offset: 0xE45CB, size: 0x8, addend: 0x0, symName: __RNvMs4_NtNtCsieiGu2EXtoJ_4core5slice4iterINtB5_4IterNtNtCs4xvdaJ1JWuv_14cranelift_isle3ast5IfLetE3newBS_, symObjAddr: 0x3910, symBinAddr: 0x10004AEA0, symSize: 0x50 }
  - { offset: 0xE4751, size: 0x8, addend: 0x0, symName: __RNvMs4_NtNtCsieiGu2EXtoJ_4core5slice4iterINtB5_4IterNtNtCs4xvdaJ1JWuv_14cranelift_isle3ast7PatternE3newBS_, symObjAddr: 0x3960, symBinAddr: 0x10004AEF0, symSize: 0x50 }
  - { offset: 0xE48FE, size: 0x8, addend: 0x0, symName: __RNvMs4_NtNtCsieiGu2EXtoJ_4core5slice4iterINtB5_4IterNtNtCs4xvdaJ1JWuv_14cranelift_isle4sema4ExprE3newBS_, symObjAddr: 0x39B0, symBinAddr: 0x10004AF40, symSize: 0x50 }
  - { offset: 0xE4AC5, size: 0x8, addend: 0x0, symName: __RNvMs4_NtNtCsieiGu2EXtoJ_4core5slice4iterINtB5_4IterNtNtCs4xvdaJ1JWuv_14cranelift_isle4sema4RuleE3newBS_, symObjAddr: 0x3A00, symBinAddr: 0x10004AF90, symSize: 0x50 }
  - { offset: 0xE4C72, size: 0x8, addend: 0x0, symName: __RNvMs4_NtNtCsieiGu2EXtoJ_4core5slice4iterINtB5_4IterNtNtCs4xvdaJ1JWuv_14cranelift_isle4sema5FieldE3newBS_, symObjAddr: 0x3A50, symBinAddr: 0x10004AFE0, symSize: 0x50 }
  - { offset: 0xE4E39, size: 0x8, addend: 0x0, symName: __RNvMs4_NtNtCsieiGu2EXtoJ_4core5slice4iterINtB5_4IterNtNtCs4xvdaJ1JWuv_14cranelift_isle4sema5IfLetE3newBS_, symObjAddr: 0x3AA0, symBinAddr: 0x10004B030, symSize: 0x50 }
  - { offset: 0xE4FE6, size: 0x8, addend: 0x0, symName: __RNvMs4_NtNtCsieiGu2EXtoJ_4core5slice4iterINtB5_4IterNtNtCs4xvdaJ1JWuv_14cranelift_isle4sema6TermIdE3newBS_, symObjAddr: 0x3AF0, symBinAddr: 0x10004B080, symSize: 0x50 }
  - { offset: 0xE5193, size: 0x8, addend: 0x0, symName: __RNvMs4_NtNtCsieiGu2EXtoJ_4core5slice4iterINtB5_4IterNtNtCs4xvdaJ1JWuv_14cranelift_isle4sema6TypeIdE3newBS_, symObjAddr: 0x3B40, symBinAddr: 0x10004B0D0, symSize: 0x50 }
  - { offset: 0xE5340, size: 0x8, addend: 0x0, symName: __RNvMs4_NtNtCsieiGu2EXtoJ_4core5slice4iterINtB5_4IterNtNtCs4xvdaJ1JWuv_14cranelift_isle4sema7PatternE3newBS_, symObjAddr: 0x3B90, symBinAddr: 0x10004B120, symSize: 0x50 }
  - { offset: 0xE5507, size: 0x8, addend: 0x0, symName: __RNvMs4_NtNtCsieiGu2EXtoJ_4core5slice4iterINtB5_4IterNtNtCs4xvdaJ1JWuv_14cranelift_isle4sema7VariantE3newBS_, symObjAddr: 0x3BE0, symBinAddr: 0x10004B170, symSize: 0x50 }
  - { offset: 0xE56C1, size: 0x8, addend: 0x0, symName: __RNvMs4_NtNtCsieiGu2EXtoJ_4core5slice4iterINtB5_4IterNtNtCs4xvdaJ1JWuv_14cranelift_isle4sema8BoundVarE3newBS_, symObjAddr: 0x3C30, symBinAddr: 0x10004B1C0, symSize: 0x50 }
  - { offset: 0xE587B, size: 0x8, addend: 0x0, symName: __RNvMs4_NtNtCsieiGu2EXtoJ_4core5slice4iterINtB5_4IterNtNtCs4xvdaJ1JWuv_14cranelift_isle5error4SpanE3newBS_, symObjAddr: 0x3C80, symBinAddr: 0x10004B210, symSize: 0x50 }
  - { offset: 0xE5A35, size: 0x8, addend: 0x0, symName: __RNvMs4_NtNtCsieiGu2EXtoJ_4core5slice4iterINtB5_4IterNtNtCs4xvdaJ1JWuv_14cranelift_isle5error5ErrorE3newBS_, symObjAddr: 0x3CD0, symBinAddr: 0x10004B260, symSize: 0x50 }
  - { offset: 0xE5BFC, size: 0x8, addend: 0x0, symName: __RNvMs4_NtNtCsieiGu2EXtoJ_4core5slice4iterINtB5_4IterNtNtCs4xvdaJ1JWuv_14cranelift_isle9serialize14EqualCandidateE3newBS_, symObjAddr: 0x3D20, symBinAddr: 0x10004B2B0, symSize: 0x50 }
  - { offset: 0xE5D3E, size: 0x8, addend: 0x0, symName: __RNvMs4_NtNtCsieiGu2EXtoJ_4core5slice4iterINtB5_4IterNtNtCs4xvdaJ1JWuv_14cranelift_isle9serialize14EqualCandidateE8as_sliceBS_, symObjAddr: 0x3D70, symBinAddr: 0x10004B300, symSize: 0x60 }
  - { offset: 0xE5ED1, size: 0x8, addend: 0x0, symName: __RNvMs4_NtNtCsieiGu2EXtoJ_4core5slice4iterINtB5_4IterNtNtCs4xvdaJ1JWuv_14cranelift_isle9serialize8EvalStepE3newBS_, symObjAddr: 0x3DD0, symBinAddr: 0x10004B360, symSize: 0x50 }
  - { offset: 0xE6098, size: 0x8, addend: 0x0, symName: __RNvMs4_NtNtCsieiGu2EXtoJ_4core5slice4iterINtB5_4IterNtNtCs4xvdaJ1JWuv_14cranelift_isle9serialize8MatchArmE3newBS_, symObjAddr: 0x3E20, symBinAddr: 0x10004B3B0, symSize: 0x50 }
  - { offset: 0xE6245, size: 0x8, addend: 0x0, symName: __RNvMs4_NtNtCsieiGu2EXtoJ_4core5slice4iterINtB5_4IterNtNtCs4xvdaJ1JWuv_14cranelift_isle9serialize9CandidateE3newBS_, symObjAddr: 0x3E70, symBinAddr: 0x10004B400, symSize: 0x50 }
  - { offset: 0xE640C, size: 0x8, addend: 0x0, symName: __RNvMs4_NtNtCsieiGu2EXtoJ_4core5slice4iterINtB5_4IterNtNtCslJiobkLta79_5alloc6string6StringE3newCs4xvdaJ1JWuv_14cranelift_isle, symObjAddr: 0x3EC0, symBinAddr: 0x10004B450, symSize: 0x50 }
  - { offset: 0xE65AC, size: 0x8, addend: 0x0, symName: __RNvMs4_NtNtCsieiGu2EXtoJ_4core5slice4iterINtB5_4IterTNtNtCs4xvdaJ1JWuv_14cranelift_isle4sema6TermIdNtNtBT_10trie_again7RuleSetEE3newBT_, symObjAddr: 0x3F10, symBinAddr: 0x10004B4A0, symSize: 0x50 }
  - { offset: 0xE6759, size: 0x8, addend: 0x0, symName: __RNvMs4_NtNtCsieiGu2EXtoJ_4core5slice4iterINtB5_4IterjE3newCs4xvdaJ1JWuv_14cranelift_isle, symObjAddr: 0x3F60, symBinAddr: 0x10004B4F0, symSize: 0x50 }
  - { offset: 0xE68DF, size: 0x8, addend: 0x0, symName: __RNvMsa_NtNtCsieiGu2EXtoJ_4core5slice4iterINtB5_7IterMutjE3newCs4xvdaJ1JWuv_14cranelift_isle, symObjAddr: 0x3FB0, symBinAddr: 0x10004B540, symSize: 0x50 }
  - { offset: 0xE8257, size: 0x8, addend: 0x0, symName: __RINvMNtCslJiobkLta79_5alloc5sliceSINtNtNtCs4xvdaJ1JWuv_14cranelift_isle5error10diagnostic5LabeljE8into_vecNtNtB5_5alloc6GlobalEBD_, symObjAddr: 0x0, symBinAddr: 0x10004DA30, symSize: 0x40 }
  - { offset: 0xE82C0, size: 0x8, addend: 0x0, symName: __RNvXsw_NtCslJiobkLta79_5alloc6stringNtNtNtCsieiGu2EXtoJ_4core3num5error13ParseIntErrorNtB5_8ToString9to_stringCs4xvdaJ1JWuv_14cranelift_isle, symObjAddr: 0x8EE0, symBinAddr: 0x1000568E0, symSize: 0x30 }
  - { offset: 0xE82FD, size: 0x8, addend: 0x0, symName: __RNvXsx_NtCslJiobkLta79_5alloc6stringNtNtNtCsieiGu2EXtoJ_4core3num5error13ParseIntErrorNtB5_12SpecToString14spec_to_stringCs4xvdaJ1JWuv_14cranelift_isle, symObjAddr: 0x8F10, symBinAddr: 0x100056910, symSize: 0x120 }
  - { offset: 0xE9D60, size: 0x8, addend: 0x0, symName: __RNvXs1_NtCslJiobkLta79_5alloc7raw_vecINtB5_6RawVecINtNtCsieiGu2EXtoJ_4core6option6OptionNtNtCs4xvdaJ1JWuv_14cranelift_isle10trie_again9BindingIdEENtNtNtBR_3ops4drop4Drop4dropB1s_, symObjAddr: 0x7CE0, symBinAddr: 0x100055710, symSize: 0x30 }
  - { offset: 0xE9D9C, size: 0x8, addend: 0x0, symName: __RNvXs1_NtCslJiobkLta79_5alloc7raw_vecINtB5_6RawVecINtNtNtCs4xvdaJ1JWuv_14cranelift_isle5error10diagnostic10DiagnosticjEENtNtNtCsieiGu2EXtoJ_4core3ops4drop4Drop4dropBT_, symObjAddr: 0x7D10, symBinAddr: 0x100055740, symSize: 0x30 }
  - { offset: 0xE9DD8, size: 0x8, addend: 0x0, symName: __RNvXs1_NtCslJiobkLta79_5alloc7raw_vecINtB5_6RawVecINtNtNtCs4xvdaJ1JWuv_14cranelift_isle5error10diagnostic5LabeljEENtNtNtCsieiGu2EXtoJ_4core3ops4drop4Drop4dropBT_, symObjAddr: 0x7D40, symBinAddr: 0x100055770, symSize: 0x30 }
  - { offset: 0xE9E14, size: 0x8, addend: 0x0, symName: __RNvXs1_NtCslJiobkLta79_5alloc7raw_vecINtB5_6RawVecNtNtB7_6string6StringENtNtNtCsieiGu2EXtoJ_4core3ops4drop4Drop4dropCs4xvdaJ1JWuv_14cranelift_isle, symObjAddr: 0x7D70, symBinAddr: 0x1000557A0, symSize: 0x30 }
  - { offset: 0xE9E50, size: 0x8, addend: 0x0, symName: __RNvXs1_NtCslJiobkLta79_5alloc7raw_vecINtB5_6RawVecNtNtCs4xvdaJ1JWuv_14cranelift_isle10trie_again16UnreachableErrorENtNtNtCsieiGu2EXtoJ_4core3ops4drop4Drop4dropBQ_, symObjAddr: 0x7DA0, symBinAddr: 0x1000557D0, symSize: 0x30 }
  - { offset: 0xE9E8C, size: 0x8, addend: 0x0, symName: __RNvXs1_NtCslJiobkLta79_5alloc7raw_vecINtB5_6RawVecNtNtCs4xvdaJ1JWuv_14cranelift_isle10trie_again4RuleENtNtNtCsieiGu2EXtoJ_4core3ops4drop4Drop4dropBQ_, symObjAddr: 0x7DD0, symBinAddr: 0x100055800, symSize: 0x30 }
  - { offset: 0xE9EC8, size: 0x8, addend: 0x0, symName: __RNvXs1_NtCslJiobkLta79_5alloc7raw_vecINtB5_6RawVecNtNtCs4xvdaJ1JWuv_14cranelift_isle10trie_again7BindingENtNtNtCsieiGu2EXtoJ_4core3ops4drop4Drop4dropBQ_, symObjAddr: 0x7E00, symBinAddr: 0x100055830, symSize: 0x30 }
  - { offset: 0xE9F04, size: 0x8, addend: 0x0, symName: __RNvXs1_NtCslJiobkLta79_5alloc7raw_vecINtB5_6RawVecNtNtCs4xvdaJ1JWuv_14cranelift_isle10trie_again9BindingIdENtNtNtCsieiGu2EXtoJ_4core3ops4drop4Drop4dropBQ_, symObjAddr: 0x7E30, symBinAddr: 0x100055860, symSize: 0x20 }
  - { offset: 0xE9F40, size: 0x8, addend: 0x0, symName: __RNvXs1_NtCslJiobkLta79_5alloc7raw_vecINtB5_6RawVecNtNtCs4xvdaJ1JWuv_14cranelift_isle3ast3DefENtNtNtCsieiGu2EXtoJ_4core3ops4drop4Drop4dropBQ_, symObjAddr: 0x7E50, symBinAddr: 0x100055880, symSize: 0x30 }
  - { offset: 0xE9F7C, size: 0x8, addend: 0x0, symName: __RNvXs1_NtCslJiobkLta79_5alloc7raw_vecINtB5_6RawVecNtNtCs4xvdaJ1JWuv_14cranelift_isle3ast4ExprENtNtNtCsieiGu2EXtoJ_4core3ops4drop4Drop4dropBQ_, symObjAddr: 0x7E80, symBinAddr: 0x1000558B0, symSize: 0x30 }
  - { offset: 0xE9FB8, size: 0x8, addend: 0x0, symName: __RNvXs1_NtCslJiobkLta79_5alloc7raw_vecINtB5_6RawVecNtNtCs4xvdaJ1JWuv_14cranelift_isle3ast5FieldENtNtNtCsieiGu2EXtoJ_4core3ops4drop4Drop4dropBQ_, symObjAddr: 0x7EB0, symBinAddr: 0x1000558E0, symSize: 0x30 }
  - { offset: 0xE9FF4, size: 0x8, addend: 0x0, symName: __RNvXs1_NtCslJiobkLta79_5alloc7raw_vecINtB5_6RawVecNtNtCs4xvdaJ1JWuv_14cranelift_isle3ast5IdentENtNtNtCsieiGu2EXtoJ_4core3ops4drop4Drop4dropBQ_, symObjAddr: 0x7EE0, symBinAddr: 0x100055910, symSize: 0x30 }
  - { offset: 0xEA030, size: 0x8, addend: 0x0, symName: __RNvXs1_NtCslJiobkLta79_5alloc7raw_vecINtB5_6RawVecNtNtCs4xvdaJ1JWuv_14cranelift_isle3ast5IfLetENtNtNtCsieiGu2EXtoJ_4core3ops4drop4Drop4dropBQ_, symObjAddr: 0x7F10, symBinAddr: 0x100055940, symSize: 0x30 }
  - { offset: 0xEA06C, size: 0x8, addend: 0x0, symName: __RNvXs1_NtCslJiobkLta79_5alloc7raw_vecINtB5_6RawVecNtNtCs4xvdaJ1JWuv_14cranelift_isle3ast6LetDefENtNtNtCsieiGu2EXtoJ_4core3ops4drop4Drop4dropBQ_, symObjAddr: 0x7F40, symBinAddr: 0x100055970, symSize: 0x30 }
  - { offset: 0xEA0A8, size: 0x8, addend: 0x0, symName: __RNvXs1_NtCslJiobkLta79_5alloc7raw_vecINtB5_6RawVecNtNtCs4xvdaJ1JWuv_14cranelift_isle3ast7PatternENtNtNtCsieiGu2EXtoJ_4core3ops4drop4Drop4dropBQ_, symObjAddr: 0x7F70, symBinAddr: 0x1000559A0, symSize: 0x30 }
  - { offset: 0xEA0E4, size: 0x8, addend: 0x0, symName: __RNvXs1_NtCslJiobkLta79_5alloc7raw_vecINtB5_6RawVecNtNtCs4xvdaJ1JWuv_14cranelift_isle3ast7VariantENtNtNtCsieiGu2EXtoJ_4core3ops4drop4Drop4dropBQ_, symObjAddr: 0x7FA0, symBinAddr: 0x1000559D0, symSize: 0x30 }
  - { offset: 0xEA120, size: 0x8, addend: 0x0, symName: __RNvXs1_NtCslJiobkLta79_5alloc7raw_vecINtB5_6RawVecNtNtCs4xvdaJ1JWuv_14cranelift_isle3ast8SpecExprENtNtNtCsieiGu2EXtoJ_4core3ops4drop4Drop4dropBQ_, symObjAddr: 0x7FD0, symBinAddr: 0x100055A00, symSize: 0x30 }
  - { offset: 0xEA15C, size: 0x8, addend: 0x0, symName: __RNvXs1_NtCslJiobkLta79_5alloc7raw_vecINtB5_6RawVecNtNtCs4xvdaJ1JWuv_14cranelift_isle3ast9ModelTypeENtNtNtCsieiGu2EXtoJ_4core3ops4drop4Drop4dropBQ_, symObjAddr: 0x8000, symBinAddr: 0x100055A30, symSize: 0x30 }
  - { offset: 0xEA198, size: 0x8, addend: 0x0, symName: __RNvXs1_NtCslJiobkLta79_5alloc7raw_vecINtB5_6RawVecNtNtCs4xvdaJ1JWuv_14cranelift_isle3ast9SignatureENtNtNtCsieiGu2EXtoJ_4core3ops4drop4Drop4dropBQ_, symObjAddr: 0x8030, symBinAddr: 0x100055A60, symSize: 0x30 }
  - { offset: 0xEA1D4, size: 0x8, addend: 0x0, symName: __RNvXs1_NtCslJiobkLta79_5alloc7raw_vecINtB5_6RawVecNtNtCs4xvdaJ1JWuv_14cranelift_isle4sema4ExprENtNtNtCsieiGu2EXtoJ_4core3ops4drop4Drop4dropBQ_, symObjAddr: 0x8060, symBinAddr: 0x100055A90, symSize: 0x30 }
  - { offset: 0xEA210, size: 0x8, addend: 0x0, symName: __RNvXs1_NtCslJiobkLta79_5alloc7raw_vecINtB5_6RawVecNtNtCs4xvdaJ1JWuv_14cranelift_isle4sema4RuleENtNtNtCsieiGu2EXtoJ_4core3ops4drop4Drop4dropBQ_, symObjAddr: 0x8090, symBinAddr: 0x100055AC0, symSize: 0x30 }
  - { offset: 0xEA24C, size: 0x8, addend: 0x0, symName: __RNvXs1_NtCslJiobkLta79_5alloc7raw_vecINtB5_6RawVecNtNtCs4xvdaJ1JWuv_14cranelift_isle4sema4TermENtNtNtCsieiGu2EXtoJ_4core3ops4drop4Drop4dropBQ_, symObjAddr: 0x80C0, symBinAddr: 0x100055AF0, symSize: 0x30 }
  - { offset: 0xEA288, size: 0x8, addend: 0x0, symName: __RNvXs1_NtCslJiobkLta79_5alloc7raw_vecINtB5_6RawVecNtNtCs4xvdaJ1JWuv_14cranelift_isle4sema4TypeENtNtNtCsieiGu2EXtoJ_4core3ops4drop4Drop4dropBQ_, symObjAddr: 0x80F0, symBinAddr: 0x100055B20, symSize: 0x30 }
  - { offset: 0xEA2C4, size: 0x8, addend: 0x0, symName: __RNvXs1_NtCslJiobkLta79_5alloc7raw_vecINtB5_6RawVecNtNtCs4xvdaJ1JWuv_14cranelift_isle4sema5FieldENtNtNtCsieiGu2EXtoJ_4core3ops4drop4Drop4dropBQ_, symObjAddr: 0x8120, symBinAddr: 0x100055B50, symSize: 0x30 }
  - { offset: 0xEA300, size: 0x8, addend: 0x0, symName: __RNvXs1_NtCslJiobkLta79_5alloc7raw_vecINtB5_6RawVecNtNtCs4xvdaJ1JWuv_14cranelift_isle4sema5IfLetENtNtNtCsieiGu2EXtoJ_4core3ops4drop4Drop4dropBQ_, symObjAddr: 0x8150, symBinAddr: 0x100055B80, symSize: 0x30 }
  - { offset: 0xEA33C, size: 0x8, addend: 0x0, symName: __RNvXs1_NtCslJiobkLta79_5alloc7raw_vecINtB5_6RawVecNtNtCs4xvdaJ1JWuv_14cranelift_isle4sema6TermIdENtNtNtCsieiGu2EXtoJ_4core3ops4drop4Drop4dropBQ_, symObjAddr: 0x8180, symBinAddr: 0x100055BB0, symSize: 0x20 }
  - { offset: 0xEA378, size: 0x8, addend: 0x0, symName: __RNvXs1_NtCslJiobkLta79_5alloc7raw_vecINtB5_6RawVecNtNtCs4xvdaJ1JWuv_14cranelift_isle4sema6TypeIdENtNtNtCsieiGu2EXtoJ_4core3ops4drop4Drop4dropBQ_, symObjAddr: 0x81A0, symBinAddr: 0x100055BD0, symSize: 0x20 }
  - { offset: 0xEA3B4, size: 0x8, addend: 0x0, symName: __RNvXs1_NtCslJiobkLta79_5alloc7raw_vecINtB5_6RawVecNtNtCs4xvdaJ1JWuv_14cranelift_isle4sema7PatternENtNtNtCsieiGu2EXtoJ_4core3ops4drop4Drop4dropBQ_, symObjAddr: 0x81C0, symBinAddr: 0x100055BF0, symSize: 0x30 }
  - { offset: 0xEA3F0, size: 0x8, addend: 0x0, symName: __RNvXs1_NtCslJiobkLta79_5alloc7raw_vecINtB5_6RawVecNtNtCs4xvdaJ1JWuv_14cranelift_isle4sema7VariantENtNtNtCsieiGu2EXtoJ_4core3ops4drop4Drop4dropBQ_, symObjAddr: 0x81F0, symBinAddr: 0x100055C20, symSize: 0x30 }
  - { offset: 0xEA42C, size: 0x8, addend: 0x0, symName: __RNvXs1_NtCslJiobkLta79_5alloc7raw_vecINtB5_6RawVecNtNtCs4xvdaJ1JWuv_14cranelift_isle4sema8BoundVarENtNtNtCsieiGu2EXtoJ_4core3ops4drop4Drop4dropBQ_, symObjAddr: 0x8220, symBinAddr: 0x100055C50, symSize: 0x30 }
  - { offset: 0xEA468, size: 0x8, addend: 0x0, symName: __RNvXs1_NtCslJiobkLta79_5alloc7raw_vecINtB5_6RawVecNtNtCs4xvdaJ1JWuv_14cranelift_isle5error4SpanENtNtNtCsieiGu2EXtoJ_4core3ops4drop4Drop4dropBQ_, symObjAddr: 0x8250, symBinAddr: 0x100055C80, symSize: 0x30 }
  - { offset: 0xEA4A4, size: 0x8, addend: 0x0, symName: __RNvXs1_NtCslJiobkLta79_5alloc7raw_vecINtB5_6RawVecNtNtCs4xvdaJ1JWuv_14cranelift_isle5error5ErrorENtNtNtCsieiGu2EXtoJ_4core3ops4drop4Drop4dropBQ_, symObjAddr: 0x8280, symBinAddr: 0x100055CB0, symSize: 0x30 }
  - { offset: 0xEA4E0, size: 0x8, addend: 0x0, symName: __RNvXs1_NtCslJiobkLta79_5alloc7raw_vecINtB5_6RawVecNtNtCs4xvdaJ1JWuv_14cranelift_isle5files7LineMapENtNtNtCsieiGu2EXtoJ_4core3ops4drop4Drop4dropBQ_, symObjAddr: 0x82B0, symBinAddr: 0x100055CE0, symSize: 0x30 }
  - { offset: 0xEA51C, size: 0x8, addend: 0x0, symName: __RNvXs1_NtCslJiobkLta79_5alloc7raw_vecINtB5_6RawVecNtNtCs4xvdaJ1JWuv_14cranelift_isle5lexer3PosENtNtNtCsieiGu2EXtoJ_4core3ops4drop4Drop4dropBQ_, symObjAddr: 0x82E0, symBinAddr: 0x100055D10, symSize: 0x30 }
  - { offset: 0xEA558, size: 0x8, addend: 0x0, symName: __RNvXs1_NtCslJiobkLta79_5alloc7raw_vecINtB5_6RawVecNtNtCs4xvdaJ1JWuv_14cranelift_isle9serialize12BindingStateENtNtNtCsieiGu2EXtoJ_4core3ops4drop4Drop4dropBQ_, symObjAddr: 0x8310, symBinAddr: 0x100055D40, symSize: 0x20 }
  - { offset: 0xEA594, size: 0x8, addend: 0x0, symName: __RNvXs1_NtCslJiobkLta79_5alloc7raw_vecINtB5_6RawVecNtNtCs4xvdaJ1JWuv_14cranelift_isle9serialize14EqualCandidateENtNtNtCsieiGu2EXtoJ_4core3ops4drop4Drop4dropBQ_, symObjAddr: 0x8330, symBinAddr: 0x100055D60, symSize: 0x30 }
  - { offset: 0xEA5D0, size: 0x8, addend: 0x0, symName: __RNvXs1_NtCslJiobkLta79_5alloc7raw_vecINtB5_6RawVecNtNtCs4xvdaJ1JWuv_14cranelift_isle9serialize8EvalStepENtNtNtCsieiGu2EXtoJ_4core3ops4drop4Drop4dropBQ_, symObjAddr: 0x8360, symBinAddr: 0x100055D90, symSize: 0x30 }
  - { offset: 0xEA60C, size: 0x8, addend: 0x0, symName: __RNvXs1_NtCslJiobkLta79_5alloc7raw_vecINtB5_6RawVecNtNtCs4xvdaJ1JWuv_14cranelift_isle9serialize8MatchArmENtNtNtCsieiGu2EXtoJ_4core3ops4drop4Drop4dropBQ_, symObjAddr: 0x8390, symBinAddr: 0x100055DC0, symSize: 0x30 }
  - { offset: 0xEA648, size: 0x8, addend: 0x0, symName: __RNvXs1_NtCslJiobkLta79_5alloc7raw_vecINtB5_6RawVecNtNtCs4xvdaJ1JWuv_14cranelift_isle9serialize9CandidateENtNtNtCsieiGu2EXtoJ_4core3ops4drop4Drop4dropBQ_, symObjAddr: 0x83C0, symBinAddr: 0x100055DF0, symSize: 0x30 }
  - { offset: 0xEA684, size: 0x8, addend: 0x0, symName: __RNvXs1_NtCslJiobkLta79_5alloc7raw_vecINtB5_6RawVecReENtNtNtCsieiGu2EXtoJ_4core3ops4drop4Drop4dropCs4xvdaJ1JWuv_14cranelift_isle, symObjAddr: 0x8420, symBinAddr: 0x100055E20, symSize: 0x30 }
  - { offset: 0xEA6C0, size: 0x8, addend: 0x0, symName: __RNvXs1_NtCslJiobkLta79_5alloc7raw_vecINtB5_6RawVecTNtNtCs4xvdaJ1JWuv_14cranelift_isle10trie_again9BindingIdNtBP_10ConstraintEENtNtNtCsieiGu2EXtoJ_4core3ops4drop4Drop4dropBR_, symObjAddr: 0x8450, symBinAddr: 0x100055E50, symSize: 0x30 }
  - { offset: 0xEA6FC, size: 0x8, addend: 0x0, symName: __RNvXs1_NtCslJiobkLta79_5alloc7raw_vecINtB5_6RawVecTNtNtCs4xvdaJ1JWuv_14cranelift_isle10trie_again9BindingIdNtNtBR_4sema6TypeIdEENtNtNtCsieiGu2EXtoJ_4core3ops4drop4Drop4dropBR_, symObjAddr: 0x8480, symBinAddr: 0x100055E80, symSize: 0x30 }
  - { offset: 0xEA738, size: 0x8, addend: 0x0, symName: __RNvXs1_NtCslJiobkLta79_5alloc7raw_vecINtB5_6RawVecTNtNtCs4xvdaJ1JWuv_14cranelift_isle3ast5IdentNtBP_8SpecExprEENtNtNtCsieiGu2EXtoJ_4core3ops4drop4Drop4dropBR_, symObjAddr: 0x84B0, symBinAddr: 0x100055EB0, symSize: 0x30 }
  - { offset: 0xEA774, size: 0x8, addend: 0x0, symName: __RNvXs1_NtCslJiobkLta79_5alloc7raw_vecINtB5_6RawVecTNtNtCs4xvdaJ1JWuv_14cranelift_isle4sema5VarIdNtBP_6TypeIdINtNtB7_5boxed3BoxNtBP_4ExprEEENtNtNtCsieiGu2EXtoJ_4core3ops4drop4Drop4dropBR_, symObjAddr: 0x84E0, symBinAddr: 0x100055EE0, symSize: 0x30 }
  - { offset: 0xEA7B0, size: 0x8, addend: 0x0, symName: __RNvXs1_NtCslJiobkLta79_5alloc7raw_vecINtB5_6RawVecTNtNtCs4xvdaJ1JWuv_14cranelift_isle4sema6TermIdINtNtB7_3vec3VecBN_EINtNtBR_12stablemapset9StableSetBN_EEENtNtNtCsieiGu2EXtoJ_4core3ops4drop4Drop4dropBR_, symObjAddr: 0x8510, symBinAddr: 0x100055F10, symSize: 0x30 }
  - { offset: 0xEA7EC, size: 0x8, addend: 0x0, symName: __RNvXs1_NtCslJiobkLta79_5alloc7raw_vecINtB5_6RawVecTNtNtCs4xvdaJ1JWuv_14cranelift_isle4sema6TermIdNtNtBR_10trie_again7RuleSetEENtNtNtCsieiGu2EXtoJ_4core3ops4drop4Drop4dropBR_, symObjAddr: 0x8540, symBinAddr: 0x100055F40, symSize: 0x30 }
  - { offset: 0xEA828, size: 0x8, addend: 0x0, symName: __RNvXs1_NtCslJiobkLta79_5alloc7raw_vecINtB5_6RawVecTNtNtCs4xvdaJ1JWuv_14cranelift_isle7codegen6NestedReINtNtBR_12stablemapset9StableSetNtNtBR_10trie_again9BindingIdEEENtNtNtCsieiGu2EXtoJ_4core3ops4drop4Drop4dropBR_, symObjAddr: 0x8570, symBinAddr: 0x100055F70, symSize: 0x30 }
  - { offset: 0xEA864, size: 0x8, addend: 0x0, symName: __RNvXs1_NtCslJiobkLta79_5alloc7raw_vecINtB5_6RawVecjENtNtNtCsieiGu2EXtoJ_4core3ops4drop4Drop4dropCs4xvdaJ1JWuv_14cranelift_isle, symObjAddr: 0x85A0, symBinAddr: 0x100055FA0, symSize: 0x20 }
  - { offset: 0xEAA57, size: 0x8, addend: 0x0, symName: __RINvMNtCslJiobkLta79_5alloc5sliceSINtNtNtCs4xvdaJ1JWuv_14cranelift_isle5error10diagnostic5LabeljE8into_vecNtNtB5_5alloc6GlobalEBD_, symObjAddr: 0x0, symBinAddr: 0x10004DA30, symSize: 0x40 }
  - { offset: 0xEAB01, size: 0x8, addend: 0x0, symName: __RINvMNtCslJiobkLta79_5alloc5sliceSRe4joinBw_ECs4xvdaJ1JWuv_14cranelift_isle, symObjAddr: 0x40, symBinAddr: 0x10004DA70, symSize: 0x30 }
  - { offset: 0xEAB68, size: 0x8, addend: 0x0, symName: __RNCINvMNtCslJiobkLta79_5alloc5sliceSNtNtCs4xvdaJ1JWuv_14cranelift_isle5error5Error11sort_by_keyNtNtBC_5lexer3PosNCNvMNtBC_7overlapNtB1R_6Errors6reports0_0E0BC_, symObjAddr: 0x27E0, symBinAddr: 0x100050210, symSize: 0xA0 }
  - { offset: 0xEABD9, size: 0x8, addend: 0x0, symName: __RINvXs_NvMNtCslJiobkLta79_5alloc5sliceSp9to_vec_inhNtB5_10ConvertVec6to_vecNtNtBa_5alloc6GlobalECs4xvdaJ1JWuv_14cranelift_isle, symObjAddr: 0x2670, symBinAddr: 0x1000500A0, symSize: 0x170 }
  - { offset: 0xEAE57, size: 0x8, addend: 0x0, symName: __RNvXNvXNvMNtCslJiobkLta79_5alloc5sliceSp9to_vec_inpNtB5_10ConvertVec6to_vecINtB2_9DropGuardNtNtCs4xvdaJ1JWuv_14cranelift_isle3ast4ExprNtNtBa_5alloc6GlobalENtNtNtCsieiGu2EXtoJ_4core3ops4drop4Drop4dropB1v_, symObjAddr: 0x7BF0, symBinAddr: 0x100055620, symSize: 0x30 }
  - { offset: 0xEAE93, size: 0x8, addend: 0x0, symName: __RNvXNvXNvMNtCslJiobkLta79_5alloc5sliceSp9to_vec_inpNtB5_10ConvertVec6to_vecINtB2_9DropGuardNtNtCs4xvdaJ1JWuv_14cranelift_isle3ast6LetDefNtNtBa_5alloc6GlobalENtNtNtCsieiGu2EXtoJ_4core3ops4drop4Drop4dropB1v_, symObjAddr: 0x7C20, symBinAddr: 0x100055650, symSize: 0x30 }
  - { offset: 0xEAECF, size: 0x8, addend: 0x0, symName: __RNvXNvXNvMNtCslJiobkLta79_5alloc5sliceSp9to_vec_inpNtB5_10ConvertVec6to_vecINtB2_9DropGuardNtNtCs4xvdaJ1JWuv_14cranelift_isle3ast7PatternNtNtBa_5alloc6GlobalENtNtNtCsieiGu2EXtoJ_4core3ops4drop4Drop4dropB1v_, symObjAddr: 0x7C50, symBinAddr: 0x100055680, symSize: 0x30 }
  - { offset: 0xEAF0B, size: 0x8, addend: 0x0, symName: __RNvXNvXNvMNtCslJiobkLta79_5alloc5sliceSp9to_vec_inpNtB5_10ConvertVec6to_vecINtB2_9DropGuardNtNtCs4xvdaJ1JWuv_14cranelift_isle9serialize14EqualCandidateNtNtBa_5alloc6GlobalENtNtNtCsieiGu2EXtoJ_4core3ops4drop4Drop4dropB1v_, symObjAddr: 0x7C80, symBinAddr: 0x1000556B0, symSize: 0x30 }
  - { offset: 0xEAF47, size: 0x8, addend: 0x0, symName: __RNvXNvXNvMNtCslJiobkLta79_5alloc5sliceSp9to_vec_inpNtB5_10ConvertVec6to_vecINtB2_9DropGuardNtNtCs4xvdaJ1JWuv_14cranelift_isle9serialize9CandidateNtNtBa_5alloc6GlobalENtNtNtCsieiGu2EXtoJ_4core3ops4drop4Drop4dropB1v_, symObjAddr: 0x7CB0, symBinAddr: 0x1000556E0, symSize: 0x30 }
  - { offset: 0xEB087, size: 0x8, addend: 0x0, symName: __RINvNtCslJiobkLta79_5alloc5slice11stable_sortNtNtCs4xvdaJ1JWuv_14cranelift_isle5error5ErrorNCINvMB2_SBH_11sort_by_keyNtNtBL_5lexer3PosNCNvMNtBL_7overlapNtB2d_6Errors6reports0_0E0EBL_, symObjAddr: 0xDF0, symBinAddr: 0x10004E820, symSize: 0xB0 }
  - { offset: 0xEB299, size: 0x8, addend: 0x0, symName: __RNCNvMs6_NtNtNtNtCslJiobkLta79_5alloc11collections5btree3map5entryINtB7_11VacantEntryNtNtCs4xvdaJ1JWuv_14cranelift_isle4sema6TermIdINtNtBb_3set8BTreeSetB1l_EE12insert_entry0B1p_, symObjAddr: 0x2E50, symBinAddr: 0x100050880, symSize: 0x180 }
  - { offset: 0xEB3F8, size: 0x8, addend: 0x0, symName: __RNCNvMs6_NtNtNtNtCslJiobkLta79_5alloc11collections5btree3map5entryINtB7_11VacantEntryNtNtCs4xvdaJ1JWuv_14cranelift_isle4sema6TermIdNtNtBb_7set_val9SetValZSTE12insert_entry0B1p_, symObjAddr: 0x2FD0, symBinAddr: 0x100050A00, symSize: 0x130 }
  - { offset: 0xEDEF0, size: 0x8, addend: 0x0, symName: __RNvXs5_NtNtCsieiGu2EXtoJ_4core3num5errorNtB5_15TryFromIntErrorNtNtB9_3fmt5Debug3fmtCs4xvdaJ1JWuv_14cranelift_isle, symObjAddr: 0x8800, symBinAddr: 0x100056200, symSize: 0x50 }
  - { offset: 0xEE2DF, size: 0x8, addend: 0x0, symName: __RINvXs_NtNtCsieiGu2EXtoJ_4core3ops11index_rangeNtB5_10IndexRangeNtNtNtNtB9_4iter6traits8iterator8Iterator8try_foldhNCINvMs6_NtNtNtB9_5array4iter10iter_innerINtB1Y_15PolymorphicIterSINtNtNtB9_3mem12maybe_uninit11MaybeUninitbEE8try_foldhNCINvMNtB7_9try_traitINtB3R_17NeverShortCircuithE10wrap_mut_2hbNCINvNtNtB16_8adapters3map8map_foldbhhNCNvXNtNtB9_3str4iterNtB5t_5CharsB10_10advance_by0NCINvXsq_NtB14_5accumhNtB6l_3Sum3sumINtB4R_3MapINtB20_8IntoIterbKj20_EB5o_EE0E0E0B46_E0B46_ECs4xvdaJ1JWuv_14cranelift_isle, symObjAddr: 0x2440, symBinAddr: 0x10004FE70, symSize: 0x120 }
  - { offset: 0xEE3DF, size: 0x8, addend: 0x0, symName: __RINvXs_NtNtCsieiGu2EXtoJ_4core3ops11index_rangeNtB5_10IndexRangeNtNtNtNtB9_4iter6traits8iterator8Iterator8try_folduNCINvMs6_NtNtNtB9_5array4iter10iter_innerINtB1Y_15PolymorphicIterSINtNtNtB9_3mem12maybe_uninit11MaybeUninitNtNtCs4xvdaJ1JWuv_14cranelift_isle9serialize9CandidateEE8try_folduNCINvMNtB7_9try_traitINtB4I_17NeverShortCircuituE10wrap_mut_2uB3y_NCINvNvB10_8for_each4callB3y_NCINvMsi_NtCslJiobkLta79_5alloc3vecINtB6i_3VecB3y_E14extend_trustedINtB20_8IntoIterB3y_Kj2_EE0E0E0B4X_E0B4X_EB3C_, symObjAddr: 0x2560, symBinAddr: 0x10004FF90, symSize: 0x110 }
  - { offset: 0xEF936, size: 0x8, addend: 0x0, symName: __RINvNtNtNtCsieiGu2EXtoJ_4core5slice4sort6stable14driftsort_mainNtNtCs4xvdaJ1JWuv_14cranelift_isle5error5ErrorNCINvMNtCslJiobkLta79_5alloc5sliceSBZ_11sort_by_keyNtNtB13_5lexer3PosNCNvMNtB13_7overlapNtB2V_6Errors6reports0_0E0INtNtB1R_3vec3VecBZ_EEB13_, symObjAddr: 0xEA0, symBinAddr: 0x10004E8D0, symSize: 0x330 }
  - { offset: 0xEFB76, size: 0x8, addend: 0x0, symName: __RINvNtNtNtNtCsieiGu2EXtoJ_4core5slice4sort6stable9quicksort16stable_partitionNtNtCs4xvdaJ1JWuv_14cranelift_isle5error5ErrorNCINvB2_9quicksortB1d_NCINvMNtCslJiobkLta79_5alloc5sliceSB1d_11sort_by_keyNtNtB1h_5lexer3PosNCNvMNtB1h_7overlapNtB3w_6Errors6reports0_0E0E0EB1h_, symObjAddr: 0x11D0, symBinAddr: 0x10004EC00, symSize: 0x5C0 }
  - { offset: 0xEFFB7, size: 0x8, addend: 0x0, symName: __RINvNtNtNtNtCsieiGu2EXtoJ_4core5slice4sort6stable9quicksort16stable_partitionNtNtCs4xvdaJ1JWuv_14cranelift_isle5error5ErrorNCINvMNtCslJiobkLta79_5alloc5sliceSB1d_11sort_by_keyNtNtB1h_5lexer3PosNCNvMNtB1h_7overlapNtB3a_6Errors6reports0_0E0EB1h_, symObjAddr: 0x1790, symBinAddr: 0x10004F1C0, symSize: 0x5C0 }
  - { offset: 0xF03F8, size: 0x8, addend: 0x0, symName: __RINvNtNtNtNtCsieiGu2EXtoJ_4core5slice4sort6stable9quicksort9quicksortNtNtCs4xvdaJ1JWuv_14cranelift_isle5error5ErrorNCINvMNtCslJiobkLta79_5alloc5sliceSB15_11sort_by_keyNtNtB19_5lexer3PosNCNvMNtB19_7overlapNtB32_6Errors6reports0_0E0EB19_, symObjAddr: 0x1D50, symBinAddr: 0x10004F780, symSize: 0x4E0 }
  - { offset: 0xF068E, size: 0x8, addend: 0x0, symName: __RNCINvNtNtNtNtCsieiGu2EXtoJ_4core5slice4sort6stable9quicksort9quicksortNtNtCs4xvdaJ1JWuv_14cranelift_isle5error5ErrorNCINvMNtCslJiobkLta79_5alloc5sliceSB17_11sort_by_keyNtNtB1b_5lexer3PosNCNvMNtB1b_7overlapNtB34_6Errors6reports0_0E0E0B1b_, symObjAddr: 0x2CA0, symBinAddr: 0x1000506D0, symSize: 0x40 }
  - { offset: 0xF08F9, size: 0x8, addend: 0x0, symName: __RNvMNtCsieiGu2EXtoJ_4core5sliceSINtNtNtB4_3mem12maybe_uninit11MaybeUninithE15copy_from_sliceCs4xvdaJ1JWuv_14cranelift_isle, symObjAddr: 0x3100, symBinAddr: 0x100050B30, symSize: 0xA0 }
  - { offset: 0xF09C4, size: 0x8, addend: 0x0, symName: __RNvMNtCsieiGu2EXtoJ_4core5sliceSINtNtNtB4_3mem12maybe_uninit11MaybeUninithE22split_at_mut_uncheckedCs4xvdaJ1JWuv_14cranelift_isle, symObjAddr: 0x31A0, symBinAddr: 0x100050BD0, symSize: 0x110 }
  - { offset: 0xF2430, size: 0x8, addend: 0x0, symName: __RNvXNtNtNtCsieiGu2EXtoJ_4core7convert3num18ptr_try_from_implshINtB6_7TryFromjE8try_fromCs4xvdaJ1JWuv_14cranelift_isle, symObjAddr: 0x7BB0, symBinAddr: 0x1000555E0, symSize: 0x40 }
  - { offset: 0xF2464, size: 0x8, addend: 0x0, symName: __RNvXs_NtNtNtCsieiGu2EXtoJ_4core7convert3num18ptr_try_from_implstINtB8_7TryFromjE8try_fromCs4xvdaJ1JWuv_14cranelift_isle, symObjAddr: 0x8E10, symBinAddr: 0x100056810, symSize: 0x50 }
  - { offset: 0xF2498, size: 0x8, addend: 0x0, symName: __RNvXsp_NtNtNtCsieiGu2EXtoJ_4core7convert3num18ptr_try_from_implsjINtB9_7TryFromnE8try_fromCs4xvdaJ1JWuv_14cranelift_isle, symObjAddr: 0x8E60, symBinAddr: 0x100056860, symSize: 0x80 }
  - { offset: 0xF251A, size: 0x8, addend: 0x0, symName: __RNvXNtNtNtCsieiGu2EXtoJ_4core5array4iter10iter_innerSINtNtNtB8_3mem12maybe_uninit11MaybeUninitNtNtCs4xvdaJ1JWuv_14cranelift_isle9serialize9CandidateENtB2_11PartialDrop12partial_dropB1y_, symObjAddr: 0x79A0, symBinAddr: 0x1000553D0, symSize: 0xB0 }
  - { offset: 0xF262A, size: 0x8, addend: 0x0, symName: __RNvXNtNtNtCsieiGu2EXtoJ_4core5array4iter10iter_innerSINtNtNtB8_3mem12maybe_uninit11MaybeUninitbENtB2_11PartialDrop12partial_dropCs4xvdaJ1JWuv_14cranelift_isle, symObjAddr: 0x7A50, symBinAddr: 0x100055480, symSize: 0xB0 }
  - { offset: 0xF273A, size: 0x8, addend: 0x0, symName: __RNvXNtNtNtCsieiGu2EXtoJ_4core5array4iter10iter_innerSINtNtNtB8_3mem12maybe_uninit11MaybeUninitjENtB2_11PartialDrop12partial_dropCs4xvdaJ1JWuv_14cranelift_isle, symObjAddr: 0x7B00, symBinAddr: 0x100055530, symSize: 0xB0 }
  - { offset: 0xF2850, size: 0x8, addend: 0x0, symName: __RNvXs_NtNtNtCsieiGu2EXtoJ_4core5array4iter10iter_innerAINtNtNtBa_3mem12maybe_uninit11MaybeUninitNtNtCs4xvdaJ1JWuv_14cranelift_isle9serialize9CandidateEj2_NtB4_11PartialDrop12partial_dropB1A_, symObjAddr: 0x8D50, symBinAddr: 0x100056750, symSize: 0x40 }
  - { offset: 0xF28AC, size: 0x8, addend: 0x0, symName: __RNvXs_NtNtNtCsieiGu2EXtoJ_4core5array4iter10iter_innerAINtNtNtBa_3mem12maybe_uninit11MaybeUninitbEj20_NtB4_11PartialDrop12partial_dropCs4xvdaJ1JWuv_14cranelift_isle, symObjAddr: 0x8D90, symBinAddr: 0x100056790, symSize: 0x40 }
  - { offset: 0xF2908, size: 0x8, addend: 0x0, symName: __RNvXs_NtNtNtCsieiGu2EXtoJ_4core5array4iter10iter_innerAINtNtNtBa_3mem12maybe_uninit11MaybeUninitjEj2_NtB4_11PartialDrop12partial_dropCs4xvdaJ1JWuv_14cranelift_isle, symObjAddr: 0x8DD0, symBinAddr: 0x1000567D0, symSize: 0x40 }
  - { offset: 0xF4C3F, size: 0x8, addend: 0x0, symName: __RINvMNtNtCs4xvdaJ1JWuv_14cranelift_isle5error10diagnosticINtB3_10DiagnosticjE12with_messageNtNtCslJiobkLta79_5alloc6string6StringEB7_, symObjAddr: 0x70, symBinAddr: 0x10004DAA0, symSize: 0xD0 }
  - { offset: 0xF61AE, size: 0x8, addend: 0x0, symName: __RNCINvNtCsjK30CmJ87bX_9hashbrown3map14equivalent_keyNtNtCs4xvdaJ1JWuv_14cranelift_isle10trie_again7BindingBO_NtBQ_9BindingIdE0BS_, symObjAddr: 0x2B20, symBinAddr: 0x100050550, symSize: 0x20 }
  - { offset: 0xF6205, size: 0x8, addend: 0x0, symName: __RNCINvNtCsjK30CmJ87bX_9hashbrown3map14equivalent_keyNtNtCs4xvdaJ1JWuv_14cranelift_isle10trie_again9BindingIdBO_NtBQ_10ConstraintE0BS_, symObjAddr: 0x2B40, symBinAddr: 0x100050570, symSize: 0x20 }
  - { offset: 0xF625C, size: 0x8, addend: 0x0, symName: __RNCINvNtCsjK30CmJ87bX_9hashbrown3map14equivalent_keyNtNtCs4xvdaJ1JWuv_14cranelift_isle10trie_again9BindingIdBO_TBO_hEE0BS_, symObjAddr: 0x2B60, symBinAddr: 0x100050590, symSize: 0x20 }
  - { offset: 0xF62B3, size: 0x8, addend: 0x0, symName: __RNCINvNtCsjK30CmJ87bX_9hashbrown3map14equivalent_keyNtNtCs4xvdaJ1JWuv_14cranelift_isle10trie_again9BindingIdBO_uE0BS_, symObjAddr: 0x2B80, symBinAddr: 0x1000505B0, symSize: 0x20 }
  - { offset: 0xF630A, size: 0x8, addend: 0x0, symName: __RNCINvNtCsjK30CmJ87bX_9hashbrown3map14equivalent_keyNtNtCs4xvdaJ1JWuv_14cranelift_isle4sema3SymBO_NtBQ_6TermIdE0BS_, symObjAddr: 0x2BA0, symBinAddr: 0x1000505D0, symSize: 0x20 }
  - { offset: 0xF6361, size: 0x8, addend: 0x0, symName: __RNCINvNtCsjK30CmJ87bX_9hashbrown3map14equivalent_keyNtNtCs4xvdaJ1JWuv_14cranelift_isle4sema3SymBO_NtBQ_6TypeIdE0BS_, symObjAddr: 0x2BC0, symBinAddr: 0x1000505F0, symSize: 0x20 }
  - { offset: 0xF63B8, size: 0x8, addend: 0x0, symName: __RNCINvNtCsjK30CmJ87bX_9hashbrown3map14equivalent_keyNtNtCs4xvdaJ1JWuv_14cranelift_isle4sema5VarIdBO_NtNtBS_10trie_again9BindingIdE0BS_, symObjAddr: 0x2BE0, symBinAddr: 0x100050610, symSize: 0x20 }
  - { offset: 0xF640F, size: 0x8, addend: 0x0, symName: __RNCINvNtCsjK30CmJ87bX_9hashbrown3map14equivalent_keyNtNtCs4xvdaJ1JWuv_14cranelift_isle4sema6TermIdBO_uE0BS_, symObjAddr: 0x2C00, symBinAddr: 0x100050630, symSize: 0x20 }
  - { offset: 0xF6466, size: 0x8, addend: 0x0, symName: __RNCINvNtCsjK30CmJ87bX_9hashbrown3map14equivalent_keyNtNtCs4xvdaJ1JWuv_14cranelift_isle5lexer3PosBO_INtNtNtNtCsHUR1vrdMJt_3std11collections4hash3set7HashSetBO_EE0BS_, symObjAddr: 0x2C20, symBinAddr: 0x100050650, symSize: 0x20 }
  - { offset: 0xF64BD, size: 0x8, addend: 0x0, symName: __RNCINvNtCsjK30CmJ87bX_9hashbrown3map14equivalent_keyNtNtCs4xvdaJ1JWuv_14cranelift_isle5lexer3PosBO_uE0BS_, symObjAddr: 0x2C40, symBinAddr: 0x100050670, symSize: 0x20 }
  - { offset: 0xF6514, size: 0x8, addend: 0x0, symName: __RNCINvNtCsjK30CmJ87bX_9hashbrown3map14equivalent_keyNtNtCslJiobkLta79_5alloc6string6StringBO_NtNtCs4xvdaJ1JWuv_14cranelift_isle4sema3SymE0B1x_, symObjAddr: 0x2C60, symBinAddr: 0x100050690, symSize: 0x20 }
  - { offset: 0xF656B, size: 0x8, addend: 0x0, symName: __RNCINvNtCsjK30CmJ87bX_9hashbrown3map14equivalent_keyTNtNtCs4xvdaJ1JWuv_14cranelift_isle4sema6TypeIdBP_EBO_NtBR_6TermIdE0BT_, symObjAddr: 0x2C80, symBinAddr: 0x1000506B0, symSize: 0x20 }
  - { offset: 0xF7A18, size: 0x8, addend: 0x0, symName: __RINvXs1i_NtCsjK30CmJ87bX_9hashbrown3mapINtB7_7HashMapNtNtCs4xvdaJ1JWuv_14cranelift_isle4sema5VarIdNtNtBT_10trie_again9BindingIdNtNtNtCsHUR1vrdMJt_3std4hash6random11RandomStateEINtNtNtNtCsieiGu2EXtoJ_4core4iter6traits7collect6ExtendTBP_B1y_EE6extendINtNtNtB2V_8adapters3map3MapINtNtNtNtB27_11collections4hash3map4IterBP_B1y_ENCINvMs1_BR_NtBR_4Expr13visit_in_ruleNtB1A_14RuleSetBuilderE0EEBT_, symObjAddr: 0x2230, symBinAddr: 0x10004FC60, symSize: 0x130 }
  - { offset: 0xF7AEB, size: 0x8, addend: 0x0, symName: __RNCINvXs1i_NtCsjK30CmJ87bX_9hashbrown3mapINtB9_7HashMapNtNtCs4xvdaJ1JWuv_14cranelift_isle4sema5VarIdNtNtBV_10trie_again9BindingIdNtNtNtCsHUR1vrdMJt_3std4hash6random11RandomStateEINtNtNtNtCsieiGu2EXtoJ_4core4iter6traits7collect6ExtendTBR_B1A_EE6extendINtNtNtB2X_8adapters3map3MapINtNtNtNtB29_11collections4hash3map4IterBR_B1A_ENCINvMs1_BT_NtBT_4Expr13visit_in_ruleNtB1C_14RuleSetBuilderE0EE0BV_, symObjAddr: 0x2CE0, symBinAddr: 0x100050710, symSize: 0x30 }
  - { offset: 0xF7BAF, size: 0x8, addend: 0x0, symName: __RNCINvXsG_NtCsjK30CmJ87bX_9hashbrown3mapINtB8_4IterNtNtCs4xvdaJ1JWuv_14cranelift_isle4sema5VarIdNtNtBR_10trie_again9BindingIdENtNtNtNtCsieiGu2EXtoJ_4core4iter6traits8iterator8Iterator4folduNCINvNtNtB26_8adapters3map8map_foldTRBN_RB1w_ETBN_B1w_EuNCINvMs1_BP_NtBP_4Expr13visit_in_ruleNtB1y_14RuleSetBuilderE0NCINvNvB20_8for_each4callB3L_NCINvXs1i_B8_INtB8_7HashMapBN_B1w_NtNtNtCsHUR1vrdMJt_3std4hash6random11RandomStateEINtNtB24_7collect6ExtendB3L_E6extendINtB36_3MapINtNtNtNtB61_11collections4hash3map4IterBN_B1w_EB3V_EE0E0E0E0BR_, symObjAddr: 0x2D10, symBinAddr: 0x100050740, symSize: 0x70 }
  - { offset: 0xF7CB5, size: 0x8, addend: 0x0, symName: __RNCINvXsG_NtCsjK30CmJ87bX_9hashbrown3mapINtB8_4IterNtNtCs4xvdaJ1JWuv_14cranelift_isle5lexer3PosINtNtNtNtCsHUR1vrdMJt_3std11collections4hash3set7HashSetBN_EENtNtNtNtCsieiGu2EXtoJ_4core4iter6traits8iterator8Iterator4foldTTjRBN_ETB3x_RB1v_EENCINvNtNtB2A_8adapters3map8map_foldB3C_B3u_B3u_NCINvNvB2u_10max_by_key3keyB3C_B3v_NCNvMNtBR_7overlapNtB5d_6Errors6report0E0NCINvNvB2u_6max_by4foldB3u_INvB4E_7compareB3C_B3v_EE0E0E0BR_, symObjAddr: 0x2D80, symBinAddr: 0x1000507B0, symSize: 0xD0 }
  - { offset: 0xF7DC1, size: 0x8, addend: 0x0, symName: __RINvXsG_NtCsjK30CmJ87bX_9hashbrown3mapINtB6_4IterNtNtCs4xvdaJ1JWuv_14cranelift_isle4sema5VarIdNtNtBP_10trie_again9BindingIdENtNtNtNtCsieiGu2EXtoJ_4core4iter6traits8iterator8Iterator4folduNCINvNtNtB24_8adapters3map8map_foldTRBL_RB1u_ETBL_B1u_EuNCINvMs1_BN_NtBN_4Expr13visit_in_ruleNtB1w_14RuleSetBuilderE0NCINvNvB1Y_8for_each4callB3J_NCINvXs1i_B6_INtB6_7HashMapBL_B1u_NtNtNtCsHUR1vrdMJt_3std4hash6random11RandomStateEINtNtB22_7collect6ExtendB3J_E6extendINtB34_3MapINtNtNtNtB5Z_11collections4hash3map4IterBL_B1u_EB3T_EE0E0E0EBP_, symObjAddr: 0x2360, symBinAddr: 0x10004FD90, symSize: 0x70 }
  - { offset: 0xF7E64, size: 0x8, addend: 0x0, symName: __RINvXsG_NtCsjK30CmJ87bX_9hashbrown3mapINtB6_4IterNtNtCs4xvdaJ1JWuv_14cranelift_isle5lexer3PosINtNtNtNtCsHUR1vrdMJt_3std11collections4hash3set7HashSetBL_EENtNtNtNtCsieiGu2EXtoJ_4core4iter6traits8iterator8Iterator4foldTTjRBL_ETB3v_RB1t_EENCINvNtNtB2y_8adapters3map8map_foldB3A_B3s_B3s_NCINvNvB2s_10max_by_key3keyB3A_B3t_NCNvMNtBP_7overlapNtB5b_6Errors6report0E0NCINvNvB2s_6max_by4foldB3s_INvB4C_7compareB3A_B3t_EE0E0EBP_, symObjAddr: 0x23D0, symBinAddr: 0x10004FE00, symSize: 0x70 }
  - { offset: 0xF7F0C, size: 0x8, addend: 0x0, symName: __RNvXsG_NtCsjK30CmJ87bX_9hashbrown3mapINtB5_4IterNtNtCs4xvdaJ1JWuv_14cranelift_isle10trie_again9BindingIdNtBM_10ConstraintENtNtNtNtCsieiGu2EXtoJ_4core4iter6traits8iterator8Iterator4nextBO_, symObjAddr: 0x89D0, symBinAddr: 0x1000563D0, symSize: 0xE0 }
  - { offset: 0xF8019, size: 0x8, addend: 0x0, symName: __RNvXsG_NtCsjK30CmJ87bX_9hashbrown3mapINtB5_4IterNtNtCs4xvdaJ1JWuv_14cranelift_isle10trie_again9BindingIdTBK_hEENtNtNtNtCsieiGu2EXtoJ_4core4iter6traits8iterator8Iterator4nextBO_, symObjAddr: 0x8AB0, symBinAddr: 0x1000564B0, symSize: 0xE0 }
  - { offset: 0xF8126, size: 0x8, addend: 0x0, symName: __RNvXsG_NtCsjK30CmJ87bX_9hashbrown3mapINtB5_4IterNtNtCs4xvdaJ1JWuv_14cranelift_isle5lexer3PosINtNtNtNtCsHUR1vrdMJt_3std11collections4hash3set7HashSetBK_EENtNtNtNtCsieiGu2EXtoJ_4core4iter6traits8iterator8Iterator4nextBO_, symObjAddr: 0x8B90, symBinAddr: 0x100056590, symSize: 0xE0 }
  - { offset: 0xF8233, size: 0x8, addend: 0x0, symName: __RNvXsG_NtCsjK30CmJ87bX_9hashbrown3mapINtB5_4IterNtNtCs4xvdaJ1JWuv_14cranelift_isle5lexer3PosuENtNtNtNtCsieiGu2EXtoJ_4core4iter6traits8iterator8Iterator4nextBO_, symObjAddr: 0x8C70, symBinAddr: 0x100056670, symSize: 0xE0 }
  - { offset: 0xF837F, size: 0x8, addend: 0x0, symName: __RNCINvNtCsjK30CmJ87bX_9hashbrown3map11make_hasherNtNtCs4xvdaJ1JWuv_14cranelift_isle10trie_again7BindingNtBN_9BindingIdNtNtNtCsHUR1vrdMJt_3std4hash6random11RandomStateE0BP_, symObjAddr: 0x2880, symBinAddr: 0x1000502B0, symSize: 0x30 }
  - { offset: 0xF83FB, size: 0x8, addend: 0x0, symName: __RNCINvNtCsjK30CmJ87bX_9hashbrown3map11make_hasherNtNtCs4xvdaJ1JWuv_14cranelift_isle10trie_again9BindingIdNtBN_10ConstraintNtNtNtCsHUR1vrdMJt_3std4hash6random11RandomStateE0BP_, symObjAddr: 0x28B0, symBinAddr: 0x1000502E0, symSize: 0x30 }
  - { offset: 0xF8477, size: 0x8, addend: 0x0, symName: __RNCINvNtCsjK30CmJ87bX_9hashbrown3map11make_hasherNtNtCs4xvdaJ1JWuv_14cranelift_isle10trie_again9BindingIdTBL_hENtNtNtCsHUR1vrdMJt_3std4hash6random11RandomStateE0BP_, symObjAddr: 0x28E0, symBinAddr: 0x100050310, symSize: 0x30 }
  - { offset: 0xF84F3, size: 0x8, addend: 0x0, symName: __RNCINvNtCsjK30CmJ87bX_9hashbrown3map11make_hasherNtNtCs4xvdaJ1JWuv_14cranelift_isle10trie_again9BindingIduNtNtNtCsHUR1vrdMJt_3std4hash6random11RandomStateE0BP_, symObjAddr: 0x2910, symBinAddr: 0x100050340, symSize: 0x30 }
  - { offset: 0xF856F, size: 0x8, addend: 0x0, symName: __RNCINvNtCsjK30CmJ87bX_9hashbrown3map11make_hasherNtNtCs4xvdaJ1JWuv_14cranelift_isle4sema3SymNtBN_6TermIdNtNtNtCsHUR1vrdMJt_3std4hash6random11RandomStateE0BP_, symObjAddr: 0x2940, symBinAddr: 0x100050370, symSize: 0x30 }
  - { offset: 0xF85EB, size: 0x8, addend: 0x0, symName: __RNCINvNtCsjK30CmJ87bX_9hashbrown3map11make_hasherNtNtCs4xvdaJ1JWuv_14cranelift_isle4sema3SymNtBN_6TypeIdNtNtNtCsHUR1vrdMJt_3std4hash6random11RandomStateE0BP_, symObjAddr: 0x2970, symBinAddr: 0x1000503A0, symSize: 0x30 }
  - { offset: 0xF8667, size: 0x8, addend: 0x0, symName: __RNCINvNtCsjK30CmJ87bX_9hashbrown3map11make_hasherNtNtCs4xvdaJ1JWuv_14cranelift_isle4sema5VarIdNtNtBP_10trie_again9BindingIdNtNtNtCsHUR1vrdMJt_3std4hash6random11RandomStateE0BP_, symObjAddr: 0x29A0, symBinAddr: 0x1000503D0, symSize: 0x30 }
  - { offset: 0xF86E3, size: 0x8, addend: 0x0, symName: __RNCINvNtCsjK30CmJ87bX_9hashbrown3map11make_hasherNtNtCs4xvdaJ1JWuv_14cranelift_isle4sema6TermIdNtNtBP_10trie_again14RuleSetBuilderNtNtNtCsHUR1vrdMJt_3std4hash6random11RandomStateE0BP_, symObjAddr: 0x29D0, symBinAddr: 0x100050400, symSize: 0x30 }
  - { offset: 0xF875F, size: 0x8, addend: 0x0, symName: __RNCINvNtCsjK30CmJ87bX_9hashbrown3map11make_hasherNtNtCs4xvdaJ1JWuv_14cranelift_isle4sema6TermIduNtNtNtCsHUR1vrdMJt_3std4hash6random11RandomStateE0BP_, symObjAddr: 0x2A00, symBinAddr: 0x100050430, symSize: 0x30 }
  - { offset: 0xF87DB, size: 0x8, addend: 0x0, symName: __RNCINvNtCsjK30CmJ87bX_9hashbrown3map11make_hasherNtNtCs4xvdaJ1JWuv_14cranelift_isle5lexer3PosINtNtCslJiobkLta79_5alloc3vec3VecBL_ENtNtNtCsHUR1vrdMJt_3std4hash6random11RandomStateE0BP_, symObjAddr: 0x2A30, symBinAddr: 0x100050460, symSize: 0x30 }
  - { offset: 0xF8857, size: 0x8, addend: 0x0, symName: __RNCINvNtCsjK30CmJ87bX_9hashbrown3map11make_hasherNtNtCs4xvdaJ1JWuv_14cranelift_isle5lexer3PosINtNtNtNtCsHUR1vrdMJt_3std11collections4hash3set7HashSetBL_ENtNtNtB1C_4hash6random11RandomStateE0BP_, symObjAddr: 0x2A60, symBinAddr: 0x100050490, symSize: 0x30 }
  - { offset: 0xF88D3, size: 0x8, addend: 0x0, symName: __RNCINvNtCsjK30CmJ87bX_9hashbrown3map11make_hasherNtNtCs4xvdaJ1JWuv_14cranelift_isle5lexer3PosuNtNtNtCsHUR1vrdMJt_3std4hash6random11RandomStateE0BP_, symObjAddr: 0x2A90, symBinAddr: 0x1000504C0, symSize: 0x30 }
  - { offset: 0xF894F, size: 0x8, addend: 0x0, symName: __RNCINvNtCsjK30CmJ87bX_9hashbrown3map11make_hasherNtNtCslJiobkLta79_5alloc6string6StringNtNtCs4xvdaJ1JWuv_14cranelift_isle4sema3SymNtNtNtCsHUR1vrdMJt_3std4hash6random11RandomStateE0B1r_, symObjAddr: 0x2AC0, symBinAddr: 0x1000504F0, symSize: 0x30 }
  - { offset: 0xF89CB, size: 0x8, addend: 0x0, symName: __RNCINvNtCsjK30CmJ87bX_9hashbrown3map11make_hasherTNtNtCs4xvdaJ1JWuv_14cranelift_isle4sema6TypeIdBM_ENtBO_6TermIdNtNtNtCsHUR1vrdMJt_3std4hash6random11RandomStateE0BQ_, symObjAddr: 0x2AF0, symBinAddr: 0x100050520, symSize: 0x30 }
  - { offset: 0xF93E0, size: 0x8, addend: 0x0, symName: __RNvXNtCsjK30CmJ87bX_9hashbrown3mapINtB2_7HashMapNtNtCs4xvdaJ1JWuv_14cranelift_isle10trie_again9BindingIdTBK_hENtNtNtCsHUR1vrdMJt_3std4hash6random11RandomStateENtNtCsieiGu2EXtoJ_4core5clone5Clone5cloneBO_, symObjAddr: 0x7720, symBinAddr: 0x100055150, symSize: 0xA0 }
  - { offset: 0xF9430, size: 0x8, addend: 0x0, symName: __RNvXNtCsjK30CmJ87bX_9hashbrown3mapINtB2_7HashMapNtNtCs4xvdaJ1JWuv_14cranelift_isle10trie_again9BindingIduNtNtNtCsHUR1vrdMJt_3std4hash6random11RandomStateENtNtCsieiGu2EXtoJ_4core5clone5Clone5cloneBO_, symObjAddr: 0x77C0, symBinAddr: 0x1000551F0, symSize: 0xA0 }
  - { offset: 0xF9480, size: 0x8, addend: 0x0, symName: __RNvXNtCsjK30CmJ87bX_9hashbrown3mapINtB2_7HashMapNtNtCs4xvdaJ1JWuv_14cranelift_isle4sema5VarIdNtNtBO_10trie_again9BindingIdNtNtNtCsHUR1vrdMJt_3std4hash6random11RandomStateENtNtCsieiGu2EXtoJ_4core5clone5Clone5cloneBO_, symObjAddr: 0x7860, symBinAddr: 0x100055290, symSize: 0xA0 }
  - { offset: 0xF94D0, size: 0x8, addend: 0x0, symName: __RNvXNtCsjK30CmJ87bX_9hashbrown3mapINtB2_7HashMapNtNtCs4xvdaJ1JWuv_14cranelift_isle4sema6TermIduNtNtNtCsHUR1vrdMJt_3std4hash6random11RandomStateENtNtCsieiGu2EXtoJ_4core5clone5Clone5cloneBO_, symObjAddr: 0x7900, symBinAddr: 0x100055330, symSize: 0xA0 }
  - { offset: 0xF9526, size: 0x8, addend: 0x0, symName: __RNvXs5_NtCsjK30CmJ87bX_9hashbrown3mapINtB5_7HashMapNtNtCs4xvdaJ1JWuv_14cranelift_isle10trie_again9BindingIduNtNtNtCsHUR1vrdMJt_3std4hash6random11RandomStateENtNtCsieiGu2EXtoJ_4core7default7Default7defaultBR_, symObjAddr: 0x85C0, symBinAddr: 0x100055FC0, symSize: 0xC0 }
  - { offset: 0xF95A4, size: 0x8, addend: 0x0, symName: __RNvXs5_NtCsjK30CmJ87bX_9hashbrown3mapINtB5_7HashMapNtNtCs4xvdaJ1JWuv_14cranelift_isle4sema6TermIduNtNtNtCsHUR1vrdMJt_3std4hash6random11RandomStateENtNtCsieiGu2EXtoJ_4core7default7Default7defaultBR_, symObjAddr: 0x8680, symBinAddr: 0x100056080, symSize: 0xC0 }
  - { offset: 0xF9622, size: 0x8, addend: 0x0, symName: __RNvXs5_NtCsjK30CmJ87bX_9hashbrown3mapINtB5_7HashMapNtNtCs4xvdaJ1JWuv_14cranelift_isle5lexer3PosuNtNtNtCsHUR1vrdMJt_3std4hash6random11RandomStateENtNtCsieiGu2EXtoJ_4core7default7Default7defaultBR_, symObjAddr: 0x8740, symBinAddr: 0x100056140, symSize: 0xC0 }
  - { offset: 0xF96A6, size: 0x8, addend: 0x0, symName: __RNvXsE_NtCsjK30CmJ87bX_9hashbrown3mapINtB5_7HashMapNtNtCs4xvdaJ1JWuv_14cranelift_isle4sema6TermIdNtNtBR_10trie_again14RuleSetBuilderNtNtNtCsHUR1vrdMJt_3std4hash6random11RandomStateENtNtNtNtCsieiGu2EXtoJ_4core4iter6traits7collect12IntoIterator9into_iterBR_, symObjAddr: 0x8850, symBinAddr: 0x100056250, symSize: 0x80 }
  - { offset: 0xF96F9, size: 0x8, addend: 0x0, symName: __RNvXsE_NtCsjK30CmJ87bX_9hashbrown3mapINtB5_7HashMapNtNtCs4xvdaJ1JWuv_14cranelift_isle5lexer3PosINtNtCslJiobkLta79_5alloc3vec3VecBN_ENtNtNtCsHUR1vrdMJt_3std4hash6random11RandomStateENtNtNtNtCsieiGu2EXtoJ_4core4iter6traits7collect12IntoIterator9into_iterBR_, symObjAddr: 0x88D0, symBinAddr: 0x1000562D0, symSize: 0x80 }
  - { offset: 0xF974C, size: 0x8, addend: 0x0, symName: __RNvXsE_NtCsjK30CmJ87bX_9hashbrown3mapINtB5_7HashMapNtNtCs4xvdaJ1JWuv_14cranelift_isle5lexer3PosuNtNtNtCsHUR1vrdMJt_3std4hash6random11RandomStateENtNtNtNtCsieiGu2EXtoJ_4core4iter6traits7collect12IntoIterator9into_iterBR_, symObjAddr: 0x8950, symBinAddr: 0x100056350, symSize: 0x80 }
  - { offset: 0xFA035, size: 0x8, addend: 0x0, symName: __RINvMs1_NtCsjK30CmJ87bX_9hashbrown3mapINtB6_7HashMapNtNtCs4xvdaJ1JWuv_14cranelift_isle10trie_again7BindingNtBQ_9BindingIdNtNtNtCsHUR1vrdMJt_3std4hash6random11RandomStateE9get_innerBO_EBS_, symObjAddr: 0x140, symBinAddr: 0x10004DB70, symSize: 0xF0 }
  - { offset: 0xFA2B6, size: 0x8, addend: 0x0, symName: __RINvMs1_NtCsjK30CmJ87bX_9hashbrown3mapINtB6_7HashMapNtNtCs4xvdaJ1JWuv_14cranelift_isle10trie_again9BindingIdNtBQ_10ConstraintNtNtNtCsHUR1vrdMJt_3std4hash6random11RandomStateE9get_innerBO_EBS_, symObjAddr: 0x230, symBinAddr: 0x10004DC60, symSize: 0xF0 }
  - { offset: 0xFA45E, size: 0x8, addend: 0x0, symName: __RINvMs1_NtCsjK30CmJ87bX_9hashbrown3mapINtB6_7HashMapNtNtCs4xvdaJ1JWuv_14cranelift_isle10trie_again9BindingIdTBO_hENtNtNtCsHUR1vrdMJt_3std4hash6random11RandomStateE12remove_entryBO_EBS_, symObjAddr: 0x320, symBinAddr: 0x10004DD50, symSize: 0x50 }
  - { offset: 0xFA5EB, size: 0x8, addend: 0x0, symName: __RINvMs1_NtCsjK30CmJ87bX_9hashbrown3mapINtB6_7HashMapNtNtCs4xvdaJ1JWuv_14cranelift_isle10trie_again9BindingIdTBO_hENtNtNtCsHUR1vrdMJt_3std4hash6random11RandomStateE13get_inner_mutBO_EBS_, symObjAddr: 0x370, symBinAddr: 0x10004DDA0, symSize: 0xF0 }
  - { offset: 0xFA74A, size: 0x8, addend: 0x0, symName: __RINvMs1_NtCsjK30CmJ87bX_9hashbrown3mapINtB6_7HashMapNtNtCs4xvdaJ1JWuv_14cranelift_isle10trie_again9BindingIdTBO_hENtNtNtCsHUR1vrdMJt_3std4hash6random11RandomStateE6removeBO_EBS_, symObjAddr: 0x460, symBinAddr: 0x10004DE90, symSize: 0x80 }
  - { offset: 0xFA897, size: 0x8, addend: 0x0, symName: __RINvMs1_NtCsjK30CmJ87bX_9hashbrown3mapINtB6_7HashMapNtNtCs4xvdaJ1JWuv_14cranelift_isle10trie_again9BindingIdTBO_hENtNtNtCsHUR1vrdMJt_3std4hash6random11RandomStateE9get_innerBO_EBS_, symObjAddr: 0x4E0, symBinAddr: 0x10004DF10, symSize: 0xF0 }
  - { offset: 0xFAB0B, size: 0x8, addend: 0x0, symName: __RINvMs1_NtCsjK30CmJ87bX_9hashbrown3mapINtB6_7HashMapNtNtCs4xvdaJ1JWuv_14cranelift_isle10trie_again9BindingIduNtNtNtCsHUR1vrdMJt_3std4hash6random11RandomStateE9get_innerBO_EBS_, symObjAddr: 0x5D0, symBinAddr: 0x10004E000, symSize: 0xF0 }
  - { offset: 0xFAD8C, size: 0x8, addend: 0x0, symName: __RINvMs1_NtCsjK30CmJ87bX_9hashbrown3mapINtB6_7HashMapNtNtCs4xvdaJ1JWuv_14cranelift_isle4sema3SymNtBQ_6TermIdNtNtNtCsHUR1vrdMJt_3std4hash6random11RandomStateE9get_innerBO_EBS_, symObjAddr: 0x6C0, symBinAddr: 0x10004E0F0, symSize: 0xF0 }
  - { offset: 0xFB000, size: 0x8, addend: 0x0, symName: __RINvMs1_NtCsjK30CmJ87bX_9hashbrown3mapINtB6_7HashMapNtNtCs4xvdaJ1JWuv_14cranelift_isle4sema3SymNtBQ_6TypeIdNtNtNtCsHUR1vrdMJt_3std4hash6random11RandomStateE9get_innerBO_EBS_, symObjAddr: 0x7B0, symBinAddr: 0x10004E1E0, symSize: 0xF0 }
  - { offset: 0xFB281, size: 0x8, addend: 0x0, symName: __RINvMs1_NtCsjK30CmJ87bX_9hashbrown3mapINtB6_7HashMapNtNtCs4xvdaJ1JWuv_14cranelift_isle4sema5VarIdNtNtBS_10trie_again9BindingIdNtNtNtCsHUR1vrdMJt_3std4hash6random11RandomStateE9get_innerBO_EBS_, symObjAddr: 0x8A0, symBinAddr: 0x10004E2D0, symSize: 0xF0 }
  - { offset: 0xFB436, size: 0x8, addend: 0x0, symName: __RINvMs1_NtCsjK30CmJ87bX_9hashbrown3mapINtB6_7HashMapNtNtCs4xvdaJ1JWuv_14cranelift_isle5lexer3PosINtNtNtNtCsHUR1vrdMJt_3std11collections4hash3set7HashSetBO_ENtNtNtB1F_4hash6random11RandomStateE12remove_entryBO_EBS_, symObjAddr: 0x990, symBinAddr: 0x10004E3C0, symSize: 0x60 }
  - { offset: 0xFB4D9, size: 0x8, addend: 0x0, symName: __RINvMs1_NtCsjK30CmJ87bX_9hashbrown3mapINtB6_7HashMapNtNtCs4xvdaJ1JWuv_14cranelift_isle5lexer3PosINtNtNtNtCsHUR1vrdMJt_3std11collections4hash3set7HashSetBO_ENtNtNtB1F_4hash6random11RandomStateE6removeBO_EBS_, symObjAddr: 0x9F0, symBinAddr: 0x10004E420, symSize: 0xB0 }
  - { offset: 0xFB563, size: 0x8, addend: 0x0, symName: __RINvMs1_NtCsjK30CmJ87bX_9hashbrown3mapINtB6_7HashMapNtNtCs4xvdaJ1JWuv_14cranelift_isle5lexer3PosuNtNtNtCsHUR1vrdMJt_3std4hash6random11RandomStateE12remove_entryBO_EBS_, symObjAddr: 0xAA0, symBinAddr: 0x10004E4D0, symSize: 0x60 }
  - { offset: 0xFB606, size: 0x8, addend: 0x0, symName: __RINvMs1_NtCsjK30CmJ87bX_9hashbrown3mapINtB6_7HashMapNtNtCs4xvdaJ1JWuv_14cranelift_isle5lexer3PosuNtNtNtCsHUR1vrdMJt_3std4hash6random11RandomStateE6removeBO_EBS_, symObjAddr: 0xB00, symBinAddr: 0x10004E530, symSize: 0x50 }
  - { offset: 0xFB7A5, size: 0x8, addend: 0x0, symName: __RINvMs1_NtCsjK30CmJ87bX_9hashbrown3mapINtB6_7HashMapNtNtCslJiobkLta79_5alloc6string6StringNtNtCs4xvdaJ1JWuv_14cranelift_isle4sema3SymNtNtNtCsHUR1vrdMJt_3std4hash6random11RandomStateE9get_innerBO_EB1u_, symObjAddr: 0xB50, symBinAddr: 0x10004E580, symSize: 0xF0 }
  - { offset: 0xFBA44, size: 0x8, addend: 0x0, symName: __RINvMs1_NtCsjK30CmJ87bX_9hashbrown3mapINtB6_7HashMapTNtNtCs4xvdaJ1JWuv_14cranelift_isle4sema6TypeIdBP_ENtBR_6TermIdNtNtNtCsHUR1vrdMJt_3std4hash6random11RandomStateE9get_innerBO_EBT_, symObjAddr: 0xC40, symBinAddr: 0x10004E670, symSize: 0xF0 }
  - { offset: 0xFBBB0, size: 0x8, addend: 0x0, symName: __RINvMs_NtNtCs4xvdaJ1JWuv_14cranelift_isle5error10diagnosticINtB5_5LabeljE7primaryRNtB7_4SpanEB9_, symObjAddr: 0xD30, symBinAddr: 0x10004E760, symSize: 0x90 }
  - { offset: 0xFBBF4, size: 0x8, addend: 0x0, symName: __RINvMs_NtNtCs4xvdaJ1JWuv_14cranelift_isle5error10diagnosticINtB5_5LabeljE9secondaryRNtB7_4SpanEB9_, symObjAddr: 0xDC0, symBinAddr: 0x10004E7F0, symSize: 0x30 }
  - { offset: 0xFC834, size: 0x8, addend: 0x0, symName: __RNvMNtCsjK30CmJ87bX_9hashbrown11rustc_entryINtNtB4_3map7HashMapNtNtCs4xvdaJ1JWuv_14cranelift_isle10trie_again9BindingIdNtB11_10ConstraintNtNtNtCsHUR1vrdMJt_3std4hash6random11RandomStateE11rustc_entryB13_, symObjAddr: 0x32B0, symBinAddr: 0x100050CE0, symSize: 0x140 }
  - { offset: 0xFC981, size: 0x8, addend: 0x0, symName: __RNvMNtCsjK30CmJ87bX_9hashbrown11rustc_entryINtNtB4_3map7HashMapNtNtCs4xvdaJ1JWuv_14cranelift_isle4sema6TermIdNtNtB13_10trie_again14RuleSetBuilderNtNtNtCsHUR1vrdMJt_3std4hash6random11RandomStateE11rustc_entryB13_, symObjAddr: 0x33F0, symBinAddr: 0x100050E20, symSize: 0x140 }
  - { offset: 0xFCACD, size: 0x8, addend: 0x0, symName: __RNvMNtCsjK30CmJ87bX_9hashbrown11rustc_entryINtNtB4_3map7HashMapNtNtCs4xvdaJ1JWuv_14cranelift_isle5lexer3PosINtNtCslJiobkLta79_5alloc3vec3VecBZ_ENtNtNtCsHUR1vrdMJt_3std4hash6random11RandomStateE11rustc_entryB13_, symObjAddr: 0x3530, symBinAddr: 0x100050F60, symSize: 0x160 }
  - { offset: 0xFCBE1, size: 0x8, addend: 0x0, symName: __RNvMNtCsjK30CmJ87bX_9hashbrown11rustc_entryINtNtB4_3map7HashMapNtNtCs4xvdaJ1JWuv_14cranelift_isle5lexer3PosINtNtNtNtCsHUR1vrdMJt_3std11collections4hash3set7HashSetBZ_ENtNtNtB1Q_4hash6random11RandomStateE11rustc_entryB13_, symObjAddr: 0x3690, symBinAddr: 0x1000510C0, symSize: 0x160 }
  - { offset: 0xFCD02, size: 0x8, addend: 0x0, symName: __RNvMNtCsjK30CmJ87bX_9hashbrown11rustc_entryINtNtB4_3map7HashMapTNtNtCs4xvdaJ1JWuv_14cranelift_isle4sema6TypeIdB10_ENtB12_6TermIdNtNtNtCsHUR1vrdMJt_3std4hash6random11RandomStateE11rustc_entryB14_, symObjAddr: 0x37F0, symBinAddr: 0x100051220, symSize: 0x160 }
  - { offset: 0xFCDC5, size: 0x8, addend: 0x0, symName: __RNvMNtNtCs4xvdaJ1JWuv_14cranelift_isle5error10diagnosticINtB2_10DiagnosticjE10with_notesB6_, symObjAddr: 0x3950, symBinAddr: 0x100051380, symSize: 0xB0 }
  - { offset: 0xFCE02, size: 0x8, addend: 0x0, symName: __RNvMNtNtCs4xvdaJ1JWuv_14cranelift_isle5error10diagnosticINtB2_10DiagnosticjE11with_labelsB6_, symObjAddr: 0x3A00, symBinAddr: 0x100051430, symSize: 0xB0 }
  - { offset: 0xFCE3F, size: 0x8, addend: 0x0, symName: __RNvMNtNtCs4xvdaJ1JWuv_14cranelift_isle5error10diagnosticINtB2_10DiagnosticjE5errorB6_, symObjAddr: 0x3AB0, symBinAddr: 0x1000514E0, symSize: 0xD0 }
  - { offset: 0xFCE76, size: 0x8, addend: 0x0, symName: __RNvMNtNtNtCsieiGu2EXtoJ_4core5slice4sort6stableINtB2_14AlignedStorageNtNtCs4xvdaJ1JWuv_14cranelift_isle5error5ErrorKj1000_E19as_uninit_slice_mutB19_, symObjAddr: 0x3B80, symBinAddr: 0x1000515B0, symSize: 0x60 }
  - { offset: 0xFCF2A, size: 0x8, addend: 0x0, symName: __RNvMNtNtNtNtCsieiGu2EXtoJ_4core5slice4sort6stable9quicksortINtB2_14PartitionStateNtNtCs4xvdaJ1JWuv_14cranelift_isle5error5ErrorE13partition_oneB1l_, symObjAddr: 0x3BE0, symBinAddr: 0x100051610, symSize: 0x130 }
  - { offset: 0xFD13B, size: 0x8, addend: 0x0, symName: __RNvMs0_NtCsjK30CmJ87bX_9hashbrown3mapINtB5_7HashMapNtNtCs4xvdaJ1JWuv_14cranelift_isle10trie_again9BindingIdNtBP_10ConstraintNtNtNtCsHUR1vrdMJt_3std4hash6random11RandomStateE4iterBR_, symObjAddr: 0x3D10, symBinAddr: 0x100051740, symSize: 0x100 }
  - { offset: 0xFD3C8, size: 0x8, addend: 0x0, symName: __RNvMs0_NtCsjK30CmJ87bX_9hashbrown3mapINtB5_7HashMapNtNtCs4xvdaJ1JWuv_14cranelift_isle10trie_again9BindingIdTBN_hENtNtNtCsHUR1vrdMJt_3std4hash6random11RandomStateE4iterBR_, symObjAddr: 0x3E10, symBinAddr: 0x100051840, symSize: 0x100 }
  - { offset: 0xFD648, size: 0x8, addend: 0x0, symName: __RNvMs0_NtCsjK30CmJ87bX_9hashbrown3mapINtB5_7HashMapNtNtCs4xvdaJ1JWuv_14cranelift_isle4sema5VarIdNtNtBR_10trie_again9BindingIdNtNtNtCsHUR1vrdMJt_3std4hash6random11RandomStateE4iterBR_, symObjAddr: 0x3F10, symBinAddr: 0x100051940, symSize: 0x100 }
  - { offset: 0xFD8C4, size: 0x8, addend: 0x0, symName: __RNvMs0_NtCsjK30CmJ87bX_9hashbrown3mapINtB5_7HashMapNtNtCs4xvdaJ1JWuv_14cranelift_isle5lexer3PosINtNtNtNtCsHUR1vrdMJt_3std11collections4hash3set7HashSetBN_ENtNtNtB1E_4hash6random11RandomStateE4iterBR_, symObjAddr: 0x4010, symBinAddr: 0x100051A40, symSize: 0x100 }
  - { offset: 0xFDB78, size: 0x8, addend: 0x0, symName: __RNvMs0_NtCsjK30CmJ87bX_9hashbrown3mapINtB5_7HashMapNtNtCs4xvdaJ1JWuv_14cranelift_isle5lexer3PosuNtNtNtCsHUR1vrdMJt_3std4hash6random11RandomStateE4iterBR_, symObjAddr: 0x4110, symBinAddr: 0x100051B40, symSize: 0x100 }
  - { offset: 0xFDD3E, size: 0x8, addend: 0x0, symName: __RNvMs0_NtCslJiobkLta79_5alloc7raw_vecINtB5_6RawVecNtNtCs4xvdaJ1JWuv_14cranelift_isle10trie_again16UnreachableErrorE8grow_oneBQ_, symObjAddr: 0x4210, symBinAddr: 0x100051C40, symSize: 0x90 }
  - { offset: 0xFDDF0, size: 0x8, addend: 0x0, symName: __RNvMs0_NtCslJiobkLta79_5alloc7raw_vecINtB5_6RawVecNtNtCs4xvdaJ1JWuv_14cranelift_isle10trie_again4RuleE8grow_oneBQ_, symObjAddr: 0x42A0, symBinAddr: 0x100051CD0, symSize: 0x90 }
  - { offset: 0xFDEA2, size: 0x8, addend: 0x0, symName: __RNvMs0_NtCslJiobkLta79_5alloc7raw_vecINtB5_6RawVecNtNtCs4xvdaJ1JWuv_14cranelift_isle10trie_again7BindingE8grow_oneBQ_, symObjAddr: 0x4330, symBinAddr: 0x100051D60, symSize: 0x90 }
  - { offset: 0xFDF54, size: 0x8, addend: 0x0, symName: __RNvMs0_NtCslJiobkLta79_5alloc7raw_vecINtB5_6RawVecNtNtCs4xvdaJ1JWuv_14cranelift_isle10trie_again9BindingIdE8grow_oneBQ_, symObjAddr: 0x43C0, symBinAddr: 0x100051DF0, symSize: 0x90 }
  - { offset: 0xFE120, size: 0x8, addend: 0x0, symName: __RNvMs0_NtCslJiobkLta79_5alloc7raw_vecINtB5_6RawVecNtNtCs4xvdaJ1JWuv_14cranelift_isle10trie_again9BindingIdE8into_boxBQ_, symObjAddr: 0x4450, symBinAddr: 0x100051E80, symSize: 0x90 }
  - { offset: 0xFE365, size: 0x8, addend: 0x0, symName: __RNvMs0_NtCslJiobkLta79_5alloc7raw_vecINtB5_6RawVecNtNtCs4xvdaJ1JWuv_14cranelift_isle3ast3DefE8grow_oneBQ_, symObjAddr: 0x44E0, symBinAddr: 0x100051F10, symSize: 0x90 }
  - { offset: 0xFE417, size: 0x8, addend: 0x0, symName: __RNvMs0_NtCslJiobkLta79_5alloc7raw_vecINtB5_6RawVecNtNtCs4xvdaJ1JWuv_14cranelift_isle3ast4ExprE8grow_oneBQ_, symObjAddr: 0x4570, symBinAddr: 0x100051FA0, symSize: 0x90 }
  - { offset: 0xFE4C9, size: 0x8, addend: 0x0, symName: __RNvMs0_NtCslJiobkLta79_5alloc7raw_vecINtB5_6RawVecNtNtCs4xvdaJ1JWuv_14cranelift_isle3ast5FieldE8grow_oneBQ_, symObjAddr: 0x4600, symBinAddr: 0x100052030, symSize: 0x90 }
  - { offset: 0xFE57B, size: 0x8, addend: 0x0, symName: __RNvMs0_NtCslJiobkLta79_5alloc7raw_vecINtB5_6RawVecNtNtCs4xvdaJ1JWuv_14cranelift_isle3ast5IdentE8grow_oneBQ_, symObjAddr: 0x4690, symBinAddr: 0x1000520C0, symSize: 0x90 }
  - { offset: 0xFE62D, size: 0x8, addend: 0x0, symName: __RNvMs0_NtCslJiobkLta79_5alloc7raw_vecINtB5_6RawVecNtNtCs4xvdaJ1JWuv_14cranelift_isle3ast5IfLetE8grow_oneBQ_, symObjAddr: 0x4720, symBinAddr: 0x100052150, symSize: 0x90 }
  - { offset: 0xFE6DF, size: 0x8, addend: 0x0, symName: __RNvMs0_NtCslJiobkLta79_5alloc7raw_vecINtB5_6RawVecNtNtCs4xvdaJ1JWuv_14cranelift_isle3ast6LetDefE8grow_oneBQ_, symObjAddr: 0x47B0, symBinAddr: 0x1000521E0, symSize: 0x90 }
  - { offset: 0xFE791, size: 0x8, addend: 0x0, symName: __RNvMs0_NtCslJiobkLta79_5alloc7raw_vecINtB5_6RawVecNtNtCs4xvdaJ1JWuv_14cranelift_isle3ast7PatternE8grow_oneBQ_, symObjAddr: 0x4840, symBinAddr: 0x100052270, symSize: 0x90 }
  - { offset: 0xFE843, size: 0x8, addend: 0x0, symName: __RNvMs0_NtCslJiobkLta79_5alloc7raw_vecINtB5_6RawVecNtNtCs4xvdaJ1JWuv_14cranelift_isle3ast7VariantE8grow_oneBQ_, symObjAddr: 0x48D0, symBinAddr: 0x100052300, symSize: 0x90 }
  - { offset: 0xFE8F5, size: 0x8, addend: 0x0, symName: __RNvMs0_NtCslJiobkLta79_5alloc7raw_vecINtB5_6RawVecNtNtCs4xvdaJ1JWuv_14cranelift_isle3ast8SpecExprE8grow_oneBQ_, symObjAddr: 0x4960, symBinAddr: 0x100052390, symSize: 0x90 }
  - { offset: 0xFE9A7, size: 0x8, addend: 0x0, symName: __RNvMs0_NtCslJiobkLta79_5alloc7raw_vecINtB5_6RawVecNtNtCs4xvdaJ1JWuv_14cranelift_isle3ast9ModelTypeE8grow_oneBQ_, symObjAddr: 0x49F0, symBinAddr: 0x100052420, symSize: 0x90 }
  - { offset: 0xFEA59, size: 0x8, addend: 0x0, symName: __RNvMs0_NtCslJiobkLta79_5alloc7raw_vecINtB5_6RawVecNtNtCs4xvdaJ1JWuv_14cranelift_isle3ast9SignatureE8grow_oneBQ_, symObjAddr: 0x4A80, symBinAddr: 0x1000524B0, symSize: 0x90 }
  - { offset: 0xFEB4E, size: 0x8, addend: 0x0, symName: __RNvMs0_NtCslJiobkLta79_5alloc7raw_vecINtB5_6RawVecNtNtCs4xvdaJ1JWuv_14cranelift_isle4sema4RuleE8grow_oneBQ_, symObjAddr: 0x4B10, symBinAddr: 0x100052540, symSize: 0x90 }
  - { offset: 0xFEC00, size: 0x8, addend: 0x0, symName: __RNvMs0_NtCslJiobkLta79_5alloc7raw_vecINtB5_6RawVecNtNtCs4xvdaJ1JWuv_14cranelift_isle4sema4TermE8grow_oneBQ_, symObjAddr: 0x4BA0, symBinAddr: 0x1000525D0, symSize: 0x90 }
  - { offset: 0xFECB2, size: 0x8, addend: 0x0, symName: __RNvMs0_NtCslJiobkLta79_5alloc7raw_vecINtB5_6RawVecNtNtCs4xvdaJ1JWuv_14cranelift_isle4sema4TypeE8grow_oneBQ_, symObjAddr: 0x4C30, symBinAddr: 0x100052660, symSize: 0x90 }
  - { offset: 0xFED64, size: 0x8, addend: 0x0, symName: __RNvMs0_NtCslJiobkLta79_5alloc7raw_vecINtB5_6RawVecNtNtCs4xvdaJ1JWuv_14cranelift_isle4sema5FieldE8grow_oneBQ_, symObjAddr: 0x4CC0, symBinAddr: 0x1000526F0, symSize: 0x90 }
  - { offset: 0xFEE16, size: 0x8, addend: 0x0, symName: __RNvMs0_NtCslJiobkLta79_5alloc7raw_vecINtB5_6RawVecNtNtCs4xvdaJ1JWuv_14cranelift_isle4sema6TermIdE8grow_oneBQ_, symObjAddr: 0x4D50, symBinAddr: 0x100052780, symSize: 0x90 }
  - { offset: 0xFEEC8, size: 0x8, addend: 0x0, symName: __RNvMs0_NtCslJiobkLta79_5alloc7raw_vecINtB5_6RawVecNtNtCs4xvdaJ1JWuv_14cranelift_isle4sema7VariantE8grow_oneBQ_, symObjAddr: 0x4DE0, symBinAddr: 0x100052810, symSize: 0x90 }
  - { offset: 0xFEF7A, size: 0x8, addend: 0x0, symName: __RNvMs0_NtCslJiobkLta79_5alloc7raw_vecINtB5_6RawVecNtNtCs4xvdaJ1JWuv_14cranelift_isle4sema8BoundVarE8grow_oneBQ_, symObjAddr: 0x4E70, symBinAddr: 0x1000528A0, symSize: 0x90 }
  - { offset: 0xFF02C, size: 0x8, addend: 0x0, symName: __RNvMs0_NtCslJiobkLta79_5alloc7raw_vecINtB5_6RawVecNtNtCs4xvdaJ1JWuv_14cranelift_isle5error5ErrorE8grow_oneBQ_, symObjAddr: 0x4F00, symBinAddr: 0x100052930, symSize: 0x90 }
  - { offset: 0xFF0DE, size: 0x8, addend: 0x0, symName: __RNvMs0_NtCslJiobkLta79_5alloc7raw_vecINtB5_6RawVecNtNtCs4xvdaJ1JWuv_14cranelift_isle5files7LineMapE8grow_oneBQ_, symObjAddr: 0x4F90, symBinAddr: 0x1000529C0, symSize: 0x90 }
  - { offset: 0xFF190, size: 0x8, addend: 0x0, symName: __RNvMs0_NtCslJiobkLta79_5alloc7raw_vecINtB5_6RawVecNtNtCs4xvdaJ1JWuv_14cranelift_isle5lexer3PosE8grow_oneBQ_, symObjAddr: 0x5020, symBinAddr: 0x100052A50, symSize: 0x90 }
  - { offset: 0xFF242, size: 0x8, addend: 0x0, symName: __RNvMs0_NtCslJiobkLta79_5alloc7raw_vecINtB5_6RawVecNtNtCs4xvdaJ1JWuv_14cranelift_isle9serialize14EqualCandidateE8grow_oneBQ_, symObjAddr: 0x50B0, symBinAddr: 0x100052AE0, symSize: 0x90 }
  - { offset: 0xFF2F4, size: 0x8, addend: 0x0, symName: __RNvMs0_NtCslJiobkLta79_5alloc7raw_vecINtB5_6RawVecNtNtCs4xvdaJ1JWuv_14cranelift_isle9serialize8EvalStepE8grow_oneBQ_, symObjAddr: 0x5140, symBinAddr: 0x100052B70, symSize: 0x90 }
  - { offset: 0xFF3A6, size: 0x8, addend: 0x0, symName: __RNvMs0_NtCslJiobkLta79_5alloc7raw_vecINtB5_6RawVecNtNtCs4xvdaJ1JWuv_14cranelift_isle9serialize8MatchArmE8grow_oneBQ_, symObjAddr: 0x51D0, symBinAddr: 0x100052C00, symSize: 0x90 }
  - { offset: 0xFF458, size: 0x8, addend: 0x0, symName: __RNvMs0_NtCslJiobkLta79_5alloc7raw_vecINtB5_6RawVecTNtNtCs4xvdaJ1JWuv_14cranelift_isle10trie_again9BindingIdNtBP_10ConstraintEE8grow_oneBR_, symObjAddr: 0x5260, symBinAddr: 0x100052C90, symSize: 0x90 }
  - { offset: 0xFF50A, size: 0x8, addend: 0x0, symName: __RNvMs0_NtCslJiobkLta79_5alloc7raw_vecINtB5_6RawVecTNtNtCs4xvdaJ1JWuv_14cranelift_isle3ast5IdentNtBP_8SpecExprEE8grow_oneBR_, symObjAddr: 0x52F0, symBinAddr: 0x100052D20, symSize: 0x90 }
  - { offset: 0xFF5BC, size: 0x8, addend: 0x0, symName: __RNvMs0_NtCslJiobkLta79_5alloc7raw_vecINtB5_6RawVecTNtNtCs4xvdaJ1JWuv_14cranelift_isle4sema5VarIdNtBP_6TypeIdINtNtB7_5boxed3BoxNtBP_4ExprEEE8grow_oneBR_, symObjAddr: 0x5380, symBinAddr: 0x100052DB0, symSize: 0x90 }
  - { offset: 0xFF6B5, size: 0x8, addend: 0x0, symName: __RNvMs0_NtCslJiobkLta79_5alloc7raw_vecINtB5_6RawVecTNtNtCs4xvdaJ1JWuv_14cranelift_isle4sema6TermIdINtNtB7_3vec3VecBN_EINtNtBR_12stablemapset9StableSetBN_EEE8grow_oneBR_, symObjAddr: 0x5410, symBinAddr: 0x100052E40, symSize: 0x90 }
  - { offset: 0xFF7C4, size: 0x8, addend: 0x0, symName: __RNvMs0_NtCslJiobkLta79_5alloc7raw_vecINtB5_6RawVecTNtNtCs4xvdaJ1JWuv_14cranelift_isle7codegen6NestedReINtNtBR_12stablemapset9StableSetNtNtBR_10trie_again9BindingIdEEE8grow_oneBR_, symObjAddr: 0x54A0, symBinAddr: 0x100052ED0, symSize: 0x90 }
  - { offset: 0xFF876, size: 0x8, addend: 0x0, symName: __RNvMs0_NtCslJiobkLta79_5alloc7raw_vecINtB5_6RawVecjE8grow_oneCs4xvdaJ1JWuv_14cranelift_isle, symObjAddr: 0x5530, symBinAddr: 0x100052F60, symSize: 0x90 }
  - { offset: 0xFF9B6, size: 0x8, addend: 0x0, symName: __RNvMs1_NtCsjK30CmJ87bX_9hashbrown3mapINtB5_7HashMapNtNtCs4xvdaJ1JWuv_14cranelift_isle10trie_again7BindingNtBP_9BindingIdNtNtNtCsHUR1vrdMJt_3std4hash6random11RandomStateE6insertBR_, symObjAddr: 0x55C0, symBinAddr: 0x100052FF0, symSize: 0x260 }
  - { offset: 0xFFBFA, size: 0x8, addend: 0x0, symName: __RNvMs1_NtCsjK30CmJ87bX_9hashbrown3mapINtB5_7HashMapNtNtCs4xvdaJ1JWuv_14cranelift_isle10trie_again9BindingIdTBN_hENtNtNtCsHUR1vrdMJt_3std4hash6random11RandomStateE6insertBR_, symObjAddr: 0x5820, symBinAddr: 0x100053250, symSize: 0x250 }
  - { offset: 0xFFE4C, size: 0x8, addend: 0x0, symName: __RNvMs1_NtCsjK30CmJ87bX_9hashbrown3mapINtB5_7HashMapNtNtCs4xvdaJ1JWuv_14cranelift_isle10trie_again9BindingIduNtNtNtCsHUR1vrdMJt_3std4hash6random11RandomStateE6insertBR_, symObjAddr: 0x5A70, symBinAddr: 0x1000534A0, symSize: 0x1B0 }
  - { offset: 0x100082, size: 0x8, addend: 0x0, symName: __RNvMs1_NtCsjK30CmJ87bX_9hashbrown3mapINtB5_7HashMapNtNtCs4xvdaJ1JWuv_14cranelift_isle4sema3SymNtBP_6TermIdNtNtNtCsHUR1vrdMJt_3std4hash6random11RandomStateE6insertBR_, symObjAddr: 0x5C20, symBinAddr: 0x100053650, symSize: 0x1F0 }
  - { offset: 0x1002E0, size: 0x8, addend: 0x0, symName: __RNvMs1_NtCsjK30CmJ87bX_9hashbrown3mapINtB5_7HashMapNtNtCs4xvdaJ1JWuv_14cranelift_isle4sema3SymNtBP_6TypeIdNtNtNtCsHUR1vrdMJt_3std4hash6random11RandomStateE6insertBR_, symObjAddr: 0x5E10, symBinAddr: 0x100053840, symSize: 0x1F0 }
  - { offset: 0x100524, size: 0x8, addend: 0x0, symName: __RNvMs1_NtCsjK30CmJ87bX_9hashbrown3mapINtB5_7HashMapNtNtCs4xvdaJ1JWuv_14cranelift_isle4sema5VarIdNtNtBR_10trie_again9BindingIdNtNtNtCsHUR1vrdMJt_3std4hash6random11RandomStateE6insertBR_, symObjAddr: 0x6000, symBinAddr: 0x100053A30, symSize: 0x1F0 }
  - { offset: 0x10079C, size: 0x8, addend: 0x0, symName: __RNvMs1_NtCsjK30CmJ87bX_9hashbrown3mapINtB5_7HashMapNtNtCs4xvdaJ1JWuv_14cranelift_isle4sema6TermIduNtNtNtCsHUR1vrdMJt_3std4hash6random11RandomStateE6insertBR_, symObjAddr: 0x61F0, symBinAddr: 0x100053C20, symSize: 0x1A0 }
  - { offset: 0x1009C5, size: 0x8, addend: 0x0, symName: __RNvMs1_NtCsjK30CmJ87bX_9hashbrown3mapINtB5_7HashMapNtNtCs4xvdaJ1JWuv_14cranelift_isle5lexer3PosuNtNtNtCsHUR1vrdMJt_3std4hash6random11RandomStateE6insertBR_, symObjAddr: 0x6390, symBinAddr: 0x100053DC0, symSize: 0x1B0 }
  - { offset: 0x100BFB, size: 0x8, addend: 0x0, symName: __RNvMs1_NtCsjK30CmJ87bX_9hashbrown3mapINtB5_7HashMapNtNtCslJiobkLta79_5alloc6string6StringNtNtCs4xvdaJ1JWuv_14cranelift_isle4sema3SymNtNtNtCsHUR1vrdMJt_3std4hash6random11RandomStateE6insertB1t_, symObjAddr: 0x6540, symBinAddr: 0x100053F70, symSize: 0x260 }
  - { offset: 0x100E0A, size: 0x8, addend: 0x0, symName: __RNvMs2_NtCslJiobkLta79_5alloc7raw_vecNtB5_11RawVecInner14current_memoryCs4xvdaJ1JWuv_14cranelift_isle, symObjAddr: 0x67A0, symBinAddr: 0x1000541D0, symSize: 0x170 }
  - { offset: 0x10106A, size: 0x8, addend: 0x0, symName: __RNvMs2_NtCslJiobkLta79_5alloc7raw_vecNtB5_11RawVecInner16shrink_uncheckedCs4xvdaJ1JWuv_14cranelift_isle, symObjAddr: 0x6910, symBinAddr: 0x100054340, symSize: 0x3E0 }
  - { offset: 0x101441, size: 0x8, addend: 0x0, symName: __RNvMs2_NtCslJiobkLta79_5alloc7raw_vecNtB5_11RawVecInner16with_capacity_inCs4xvdaJ1JWuv_14cranelift_isle, symObjAddr: 0x6CF0, symBinAddr: 0x100054720, symSize: 0x150 }
  - { offset: 0x1015F2, size: 0x8, addend: 0x0, symName: __RNvMs2_NtCslJiobkLta79_5alloc7raw_vecNtB5_11RawVecInner6shrinkCs4xvdaJ1JWuv_14cranelift_isle, symObjAddr: 0x6E40, symBinAddr: 0x100054870, symSize: 0xE0 }
  - { offset: 0x101926, size: 0x8, addend: 0x0, symName: __RNvMs6_NtNtNtNtCslJiobkLta79_5alloc11collections5btree3map5entryINtB5_11VacantEntryNtNtCs4xvdaJ1JWuv_14cranelift_isle4sema6TermIdINtNtB9_3set8BTreeSetB1j_EE12insert_entryB1n_, symObjAddr: 0x6F20, symBinAddr: 0x100054950, symSize: 0x370 }
  - { offset: 0x101DE8, size: 0x8, addend: 0x0, symName: __RNvMs6_NtNtNtNtCslJiobkLta79_5alloc11collections5btree3map5entryINtB5_11VacantEntryNtNtCs4xvdaJ1JWuv_14cranelift_isle4sema6TermIdNtNtB9_7set_val9SetValZSTE12insert_entryB1n_, symObjAddr: 0x7290, symBinAddr: 0x100054CC0, symSize: 0x2F0 }
  - { offset: 0x1020DB, size: 0x8, addend: 0x0, symName: __RNvMs7_NtNtNtNtCslJiobkLta79_5alloc11collections5btree3map5entryINtB5_13OccupiedEntryNtNtCs4xvdaJ1JWuv_14cranelift_isle4sema6TermIdINtNtB9_3set8BTreeSetB1l_EE6insertB1p_, symObjAddr: 0x7580, symBinAddr: 0x100054FB0, symSize: 0xC0 }
  - { offset: 0x102165, size: 0x8, addend: 0x0, symName: __RNvMs7_NtNtNtNtCslJiobkLta79_5alloc11collections5btree3map5entryINtB5_13OccupiedEntryNtNtCs4xvdaJ1JWuv_14cranelift_isle4sema6TermIdINtNtB9_3set8BTreeSetB1l_EE8into_mutB1p_, symObjAddr: 0x7640, symBinAddr: 0x100055070, symSize: 0x50 }
  - { offset: 0x1021EC, size: 0x8, addend: 0x0, symName: __RNvMs7_NtNtNtNtCslJiobkLta79_5alloc11collections5btree3map5entryINtB5_13OccupiedEntryNtNtCs4xvdaJ1JWuv_14cranelift_isle4sema6TermIdNtNtB9_7set_val9SetValZSTE6insertB1p_, symObjAddr: 0x7690, symBinAddr: 0x1000550C0, symSize: 0x40 }
  - { offset: 0x10224F, size: 0x8, addend: 0x0, symName: __RNvMs7_NtNtNtNtCslJiobkLta79_5alloc11collections5btree3map5entryINtB5_13OccupiedEntryNtNtCs4xvdaJ1JWuv_14cranelift_isle4sema6TermIdNtNtB9_7set_val9SetValZSTE8into_mutB1p_, symObjAddr: 0x76D0, symBinAddr: 0x100055100, symSize: 0x50 }
  - { offset: 0x102979, size: 0x8, addend: 0x0, symName: __RINvMNtCsieiGu2EXtoJ_4core5sliceSNtNtCs4xvdaJ1JWuv_14cranelift_isle3ast7Pattern3getjEBz_, symObjAddr: 0x0, symBinAddr: 0x100056A30, symSize: 0x30 }
  - { offset: 0x102A3A, size: 0x8, addend: 0x0, symName: __RNvMs4_NtCsieiGu2EXtoJ_4core3numh19is_ascii_whitespaceCs4xvdaJ1JWuv_14cranelift_isle, symObjAddr: 0x55A0, symBinAddr: 0x10005BFD0, symSize: 0x40 }
  - { offset: 0x102A97, size: 0x8, addend: 0x0, symName: __RNvNvMs4_NtCsieiGu2EXtoJ_4core3numh13unchecked_add18precondition_checkCs4xvdaJ1JWuv_14cranelift_isle, symObjAddr: 0xA340, symBinAddr: 0x10005FF30, symSize: 0xA0 }
  - { offset: 0x102B2C, size: 0x8, addend: 0x0, symName: __RNvMs9_NtCsieiGu2EXtoJ_4core3numj11checked_addCs4xvdaJ1JWuv_14cranelift_isle, symObjAddr: 0x6790, symBinAddr: 0x10005D1C0, symSize: 0x70 }
  - { offset: 0x102B87, size: 0x8, addend: 0x0, symName: __RNvMs9_NtCsieiGu2EXtoJ_4core3numj11checked_subCs4xvdaJ1JWuv_14cranelift_isle, symObjAddr: 0x6800, symBinAddr: 0x10005D230, symSize: 0x60 }
  - { offset: 0x102BF3, size: 0x8, addend: 0x0, symName: __RNvNvMs9_NtCsieiGu2EXtoJ_4core3numj13unchecked_add18precondition_checkCs4xvdaJ1JWuv_14cranelift_isle, symObjAddr: 0xA3E0, symBinAddr: 0x10005FFD0, symSize: 0xA0 }
  - { offset: 0x102CB1, size: 0x8, addend: 0x0, symName: __RNvNvMs9_NtCsieiGu2EXtoJ_4core3numj13unchecked_mul18precondition_checkCs4xvdaJ1JWuv_14cranelift_isle, symObjAddr: 0xA480, symBinAddr: 0x100060070, symSize: 0xA0 }
  - { offset: 0x102D6F, size: 0x8, addend: 0x0, symName: __RNvNvMs9_NtCsieiGu2EXtoJ_4core3numj13unchecked_sub18precondition_checkCs4xvdaJ1JWuv_14cranelift_isle, symObjAddr: 0xA520, symBinAddr: 0x100060110, symSize: 0xA0 }
  - { offset: 0x102E04, size: 0x8, addend: 0x0, symName: __RNvMsE_NtCsieiGu2EXtoJ_4core3numo14from_str_radixCs4xvdaJ1JWuv_14cranelift_isle, symObjAddr: 0x6860, symBinAddr: 0x10005D290, symSize: 0x30 }
  - { offset: 0x102E41, size: 0x8, addend: 0x0, symName: __RNvMsE_NtCsieiGu2EXtoJ_4core3numo16from_ascii_radixCs4xvdaJ1JWuv_14cranelift_isle, symObjAddr: 0x6890, symBinAddr: 0x10005D2C0, symSize: 0x780 }
  - { offset: 0x10318B, size: 0x8, addend: 0x0, symName: __RNvMss_NtCsieiGu2EXtoJ_4core3numn14from_str_radixCs4xvdaJ1JWuv_14cranelift_isle, symObjAddr: 0x7BB0, symBinAddr: 0x10005E5E0, symSize: 0x30 }
  - { offset: 0x1031C8, size: 0x8, addend: 0x0, symName: __RNvMss_NtCsieiGu2EXtoJ_4core3numn16from_ascii_radixCs4xvdaJ1JWuv_14cranelift_isle, symObjAddr: 0x7BE0, symBinAddr: 0x10005E610, symSize: 0xD20 }
  - { offset: 0x103815, size: 0x8, addend: 0x0, symName: __RNvNvMs3_NtCsieiGu2EXtoJ_4core3numi13unchecked_neg18precondition_checkCs4xvdaJ1JWuv_14cranelift_isle, symObjAddr: 0xA290, symBinAddr: 0x10005FE80, symSize: 0xB0 }
  - { offset: 0x104BEA, size: 0x8, addend: 0x0, symName: __RNvXs7_NtNtCsieiGu2EXtoJ_4core3cmp5implsRNtNtCs4xvdaJ1JWuv_14cranelift_isle10trie_again10ConstraintNtB7_9PartialEq2neBH_, symObjAddr: 0xC910, symBinAddr: 0x100062500, symSize: 0x30 }
  - { offset: 0x104C39, size: 0x8, addend: 0x0, symName: __RNvXs7_NtNtCsieiGu2EXtoJ_4core3cmp5implsRNtNtCs4xvdaJ1JWuv_14cranelift_isle10trie_again10TupleIndexNtB7_9PartialEq2eqBH_, symObjAddr: 0xC940, symBinAddr: 0x100062530, symSize: 0x30 }
  - { offset: 0x104C88, size: 0x8, addend: 0x0, symName: __RNvXs7_NtNtCsieiGu2EXtoJ_4core3cmp5implsRNtNtCs4xvdaJ1JWuv_14cranelift_isle10trie_again9BindingIdNtB7_9PartialEq2eqBH_, symObjAddr: 0xC970, symBinAddr: 0x100062560, symSize: 0x30 }
  - { offset: 0x104D38, size: 0x8, addend: 0x0, symName: __RNvYNtNtCs4xvdaJ1JWuv_14cranelift_isle10trie_again10ConstraintNtNtCsieiGu2EXtoJ_4core3cmp10PartialOrd2ltB6_, symObjAddr: 0xF5A0, symBinAddr: 0x100065190, symSize: 0x50 }
  - { offset: 0x104DFA, size: 0x8, addend: 0x0, symName: __RNvYNtNtCs4xvdaJ1JWuv_14cranelift_isle10trie_again9BindingIdNtNtCsieiGu2EXtoJ_4core3cmp10PartialOrd2ltB6_, symObjAddr: 0xF610, symBinAddr: 0x100065200, symSize: 0x50 }
  - { offset: 0x104EC2, size: 0x8, addend: 0x0, symName: __RNvYNtNtCs4xvdaJ1JWuv_14cranelift_isle10trie_again10ConstraintNtNtCsieiGu2EXtoJ_4core3cmp9PartialEq2neB6_, symObjAddr: 0xF5F0, symBinAddr: 0x1000651E0, symSize: 0x20 }
  - { offset: 0x104F11, size: 0x8, addend: 0x0, symName: __RNvYNtNtCs4xvdaJ1JWuv_14cranelift_isle10trie_again9BindingIdNtNtCsieiGu2EXtoJ_4core3cmp9PartialEq2neB6_, symObjAddr: 0xF660, symBinAddr: 0x100065250, symSize: 0x20 }
  - { offset: 0x104F6C, size: 0x8, addend: 0x0, symName: __RINvMNtCsieiGu2EXtoJ_4core5sliceSNtNtCs4xvdaJ1JWuv_14cranelift_isle3ast7Pattern3getjEBz_, symObjAddr: 0x0, symBinAddr: 0x100056A30, symSize: 0x30 }
  - { offset: 0x10507E, size: 0x8, addend: 0x0, symName: __RNvMNtCsieiGu2EXtoJ_4core5sliceSNtNtCs4xvdaJ1JWuv_14cranelift_isle10trie_again4Rule4iterBy_, symObjAddr: 0x49B0, symBinAddr: 0x10005B3E0, symSize: 0x20 }
  - { offset: 0x1050B5, size: 0x8, addend: 0x0, symName: __RNvMNtCsieiGu2EXtoJ_4core5sliceSNtNtCs4xvdaJ1JWuv_14cranelift_isle10trie_again7Binding4iterBy_, symObjAddr: 0x49D0, symBinAddr: 0x10005B400, symSize: 0x20 }
  - { offset: 0x1050EC, size: 0x8, addend: 0x0, symName: __RNvMNtCsieiGu2EXtoJ_4core5sliceSNtNtCs4xvdaJ1JWuv_14cranelift_isle10trie_again9BindingId11split_firstBy_, symObjAddr: 0x49F0, symBinAddr: 0x10005B420, symSize: 0x80 }
  - { offset: 0x105145, size: 0x8, addend: 0x0, symName: __RNvMNtCsieiGu2EXtoJ_4core5sliceSNtNtCs4xvdaJ1JWuv_14cranelift_isle10trie_again9BindingId13sort_unstableBy_, symObjAddr: 0x4A70, symBinAddr: 0x10005B4A0, symSize: 0x90 }
  - { offset: 0x105219, size: 0x8, addend: 0x0, symName: __RNvMNtCsieiGu2EXtoJ_4core5sliceSNtNtCs4xvdaJ1JWuv_14cranelift_isle10trie_again9BindingId14swap_uncheckedBy_, symObjAddr: 0x4B00, symBinAddr: 0x10005B530, symSize: 0x70 }
  - { offset: 0x105319, size: 0x8, addend: 0x0, symName: __RNvMNtCsieiGu2EXtoJ_4core5sliceSNtNtCs4xvdaJ1JWuv_14cranelift_isle10trie_again9BindingId22split_at_mut_uncheckedBy_, symObjAddr: 0x4B70, symBinAddr: 0x10005B5A0, symSize: 0x110 }
  - { offset: 0x10546D, size: 0x8, addend: 0x0, symName: __RNvMNtCsieiGu2EXtoJ_4core5sliceSNtNtCs4xvdaJ1JWuv_14cranelift_isle10trie_again9BindingId4iterBy_, symObjAddr: 0x4C80, symBinAddr: 0x10005B6B0, symSize: 0x20 }
  - { offset: 0x1054F2, size: 0x8, addend: 0x0, symName: __RNvMNtCsieiGu2EXtoJ_4core5sliceSNtNtCs4xvdaJ1JWuv_14cranelift_isle10trie_again9BindingId7reverseBy_, symObjAddr: 0x4CA0, symBinAddr: 0x10005B6D0, symSize: 0x100 }
  - { offset: 0x1056A7, size: 0x8, addend: 0x0, symName: __RNvMNtCsieiGu2EXtoJ_4core5sliceSNtNtCs4xvdaJ1JWuv_14cranelift_isle10trie_again9BindingId8is_emptyBy_, symObjAddr: 0x4DA0, symBinAddr: 0x10005B7D0, symSize: 0x20 }
  - { offset: 0x1056DC, size: 0x8, addend: 0x0, symName: __RNvMNtCsieiGu2EXtoJ_4core5sliceSNtNtCs4xvdaJ1JWuv_14cranelift_isle3ast4Expr4iterBy_, symObjAddr: 0x4DC0, symBinAddr: 0x10005B7F0, symSize: 0x20 }
  - { offset: 0x105713, size: 0x8, addend: 0x0, symName: __RNvMNtCsieiGu2EXtoJ_4core5sliceSNtNtCs4xvdaJ1JWuv_14cranelift_isle3ast5Ident4iterBy_, symObjAddr: 0x4DE0, symBinAddr: 0x10005B810, symSize: 0x20 }
  - { offset: 0x10574A, size: 0x8, addend: 0x0, symName: __RNvMNtCsieiGu2EXtoJ_4core5sliceSNtNtCs4xvdaJ1JWuv_14cranelift_isle3ast5IfLet4iterBy_, symObjAddr: 0x4E00, symBinAddr: 0x10005B830, symSize: 0x20 }
  - { offset: 0x105781, size: 0x8, addend: 0x0, symName: __RNvMNtCsieiGu2EXtoJ_4core5sliceSNtNtCs4xvdaJ1JWuv_14cranelift_isle3ast7Pattern4iterBy_, symObjAddr: 0x4E20, symBinAddr: 0x10005B850, symSize: 0x20 }
  - { offset: 0x1057B8, size: 0x8, addend: 0x0, symName: __RNvMNtCsieiGu2EXtoJ_4core5sliceSNtNtCs4xvdaJ1JWuv_14cranelift_isle5error4Span4iterBy_, symObjAddr: 0x4E40, symBinAddr: 0x10005B870, symSize: 0x20 }
  - { offset: 0x105816, size: 0x8, addend: 0x0, symName: __RNvMNtCsieiGu2EXtoJ_4core5sliceSNtNtCs4xvdaJ1JWuv_14cranelift_isle5error5Error22split_at_mut_uncheckedBy_, symObjAddr: 0x4E60, symBinAddr: 0x10005B890, symSize: 0x120 }
  - { offset: 0x10596A, size: 0x8, addend: 0x0, symName: __RNvMNtCsieiGu2EXtoJ_4core5sliceSNtNtCs4xvdaJ1JWuv_14cranelift_isle5error5Error4iterBy_, symObjAddr: 0x4F80, symBinAddr: 0x10005B9B0, symSize: 0x20 }
  - { offset: 0x1059EF, size: 0x8, addend: 0x0, symName: __RNvMNtCsieiGu2EXtoJ_4core5sliceSNtNtCs4xvdaJ1JWuv_14cranelift_isle5error5Error7reverseBy_, symObjAddr: 0x4FA0, symBinAddr: 0x10005B9D0, symSize: 0x100 }
  - { offset: 0x105F73, size: 0x8, addend: 0x0, symName: __RNvXs_NtNtCsieiGu2EXtoJ_4core5slice4iterRSNtNtCs4xvdaJ1JWuv_14cranelift_isle10trie_again4RuleNtNtNtNtB8_4iter6traits7collect12IntoIterator9into_iterBI_, symObjAddr: 0xDDD0, symBinAddr: 0x1000639C0, symSize: 0x50 }
  - { offset: 0x1060AD, size: 0x8, addend: 0x0, symName: __RNvXs_NtNtCsieiGu2EXtoJ_4core5slice4iterRSNtNtCs4xvdaJ1JWuv_14cranelift_isle10trie_again9BindingIdNtNtNtNtB8_4iter6traits7collect12IntoIterator9into_iterBI_, symObjAddr: 0xDE20, symBinAddr: 0x100063A10, symSize: 0x50 }
  - { offset: 0x1061E7, size: 0x8, addend: 0x0, symName: __RNvXs_NtNtCsieiGu2EXtoJ_4core5slice4iterRSNtNtCs4xvdaJ1JWuv_14cranelift_isle3ast3DefNtNtNtNtB8_4iter6traits7collect12IntoIterator9into_iterBI_, symObjAddr: 0xDE70, symBinAddr: 0x100063A60, symSize: 0x50 }
  - { offset: 0x106698, size: 0x8, addend: 0x0, symName: __RNvXs0_NtNtNtNtCsieiGu2EXtoJ_4core5slice4sort6stable9quicksortNtNtCs4xvdaJ1JWuv_14cranelift_isle5error5ErrorNtB5_8IsFreeze9is_freezeB12_, symObjAddr: 0xAE50, symBinAddr: 0x100060A40, symSize: 0x10 }
  - { offset: 0x106712, size: 0x8, addend: 0x0, symName: __RNvXNtNtCsieiGu2EXtoJ_4core5slice3cmpSNtNtCs4xvdaJ1JWuv_14cranelift_isle10trie_again9BindingIdNtNtB6_3cmp9PartialEq2eqBE_, symObjAddr: 0xAD90, symBinAddr: 0x100060980, symSize: 0x30 }
  - { offset: 0x106764, size: 0x8, addend: 0x0, symName: __RNvXs2_NtNtCsieiGu2EXtoJ_4core5slice3cmpSNtNtCs4xvdaJ1JWuv_14cranelift_isle10trie_again9BindingIdINtB5_14SlicePartialEqBD_E5equalBH_, symObjAddr: 0xBB30, symBinAddr: 0x100061720, symSize: 0xF0 }
  - { offset: 0x106812, size: 0x8, addend: 0x0, symName: __RINvNtCsieiGu2EXtoJ_4core3mem4swapTNtNtCs4xvdaJ1JWuv_14cranelift_isle10trie_again9BindingIdhEEBB_, symObjAddr: 0x4B0, symBinAddr: 0x100056EE0, symSize: 0x20 }
  - { offset: 0x106854, size: 0x8, addend: 0x0, symName: __RINvNtCsieiGu2EXtoJ_4core3mem4swapjECs4xvdaJ1JWuv_14cranelift_isle, symObjAddr: 0x4D0, symBinAddr: 0x100056F00, symSize: 0x20 }
  - { offset: 0x1068C9, size: 0x8, addend: 0x0, symName: __RINvNtCsieiGu2EXtoJ_4core3mem4takeINtNtCslJiobkLta79_5alloc3vec3VecNtNtCs4xvdaJ1JWuv_14cranelift_isle10trie_again9BindingIdEEB17_, symObjAddr: 0x4F0, symBinAddr: 0x100056F20, symSize: 0x60 }
  - { offset: 0x106959, size: 0x8, addend: 0x0, symName: __RINvNtCsieiGu2EXtoJ_4core3mem4takeINtNtCslJiobkLta79_5alloc3vec3VecNtNtCs4xvdaJ1JWuv_14cranelift_isle5error5ErrorEEB17_, symObjAddr: 0x550, symBinAddr: 0x100056F80, symSize: 0x60 }
  - { offset: 0x1069E9, size: 0x8, addend: 0x0, symName: __RINvNtCsieiGu2EXtoJ_4core3mem4takeNtNtCs4xvdaJ1JWuv_14cranelift_isle10trie_again4RuleEBA_, symObjAddr: 0x5B0, symBinAddr: 0x100056FE0, symSize: 0x70 }
  - { offset: 0x106A7A, size: 0x8, addend: 0x0, symName: __RINvNtCsieiGu2EXtoJ_4core3mem4takeQSjECs4xvdaJ1JWuv_14cranelift_isle, symObjAddr: 0x620, symBinAddr: 0x100057050, symSize: 0x40 }
  - { offset: 0x106AD7, size: 0x8, addend: 0x0, symName: __RINvNtCsieiGu2EXtoJ_4core3mem7replaceINtNtCs4xvdaJ1JWuv_14cranelift_isle12stablemapset9StableSetNtNtBE_10trie_again9BindingIdEEBE_, symObjAddr: 0x660, symBinAddr: 0x100057090, symSize: 0x50 }
  - { offset: 0x107011, size: 0x8, addend: 0x0, symName: __RNCINvNvXs_NtNtNtCsieiGu2EXtoJ_4core4iter8adapters9enumerateINtB9_9EnumeratepENtNtNtBd_6traits8iterator8Iterator4fold9enumerateRNtNtCs4xvdaJ1JWuv_14cranelift_isle4sema6TypeIduNCINvNtBb_3map8map_foldTjB21_ENtNtCslJiobkLta79_5alloc6string6StringuNCNvMs_NtB26_7codegenNtB41_7Codegen18generate_trait_sigs_0QNCINvNvB1e_8for_each4callB3h_NCINvMsi_NtB3l_3vecINtB5t_3VecB3h_E14extend_trustedINtNtBb_5chain5ChainINtB2S_3MapIBX_INtNtNtBf_5slice4iter4IterB22_EEB3U_EINtNtBf_6option8IntoIterB3h_EEE0E0E0E0B26_, symObjAddr: 0x1E30, symBinAddr: 0x100058860, symSize: 0x80 }
  - { offset: 0x10709B, size: 0x8, addend: 0x0, symName: __RINvXs_NtNtNtCsieiGu2EXtoJ_4core4iter8adapters9enumerateINtB5_9EnumerateINtNtNtBb_5slice4iter4IterNtNtCs4xvdaJ1JWuv_14cranelift_isle4sema6TypeIdEENtNtNtB9_6traits8iterator8Iterator4folduNCINvNtB7_3map8map_foldTjRB1y_ENtNtCslJiobkLta79_5alloc6string6StringuNCNvMs_NtB1C_7codegenNtB4d_7Codegen18generate_trait_sigs_0QNCINvNvB2k_8for_each4callB3t_NCINvMsi_NtB3x_3vecINtB5F_3VecB3t_E14extend_trustedINtNtB7_5chain5ChainINtB33_3MapBS_B46_EINtNtBb_6option8IntoIterB3t_EEE0E0E0EB1C_, symObjAddr: 0x16C0, symBinAddr: 0x1000580F0, symSize: 0x40 }
  - { offset: 0x107120, size: 0x8, addend: 0x0, symName: __RNvXs_NtNtNtCsieiGu2EXtoJ_4core4iter8adapters9enumerateINtB4_9EnumerateINtNtB6_3zip3ZipINtNtNtBa_5slice4iter4IterNtNtCs4xvdaJ1JWuv_14cranelift_isle4sema7PatternEIB1o_NtB1P_6TypeIdEEENtNtNtB8_6traits8iterator8Iterator4nextB1R_, symObjAddr: 0xDEC0, symBinAddr: 0x100063AB0, symSize: 0x170 }
  - { offset: 0x107209, size: 0x8, addend: 0x0, symName: __RNvXs_NtNtNtCsieiGu2EXtoJ_4core4iter8adapters9enumerateINtB4_9EnumerateINtNtNtBa_5slice4iter4IterNtNtCs4xvdaJ1JWuv_14cranelift_isle10trie_again7BindingEENtNtNtB8_6traits8iterator8Iterator4nextB1B_, symObjAddr: 0xE030, symBinAddr: 0x100063C20, symSize: 0xE0 }
  - { offset: 0x1072EF, size: 0x8, addend: 0x0, symName: __RNvXs_NtNtNtCsieiGu2EXtoJ_4core4iter8adapters9enumerateINtB4_9EnumerateINtNtNtBa_5slice4iter4IterNtNtCs4xvdaJ1JWuv_14cranelift_isle3ast4ExprEENtNtNtB8_6traits8iterator8Iterator4nextB1B_, symObjAddr: 0xE110, symBinAddr: 0x100063D00, symSize: 0xE0 }
  - { offset: 0x1073D5, size: 0x8, addend: 0x0, symName: __RNvXs_NtNtNtCsieiGu2EXtoJ_4core4iter8adapters9enumerateINtB4_9EnumerateINtNtNtBa_5slice4iter4IterNtNtCs4xvdaJ1JWuv_14cranelift_isle3ast6LetDefEENtNtNtB8_6traits8iterator8Iterator4nextB1B_, symObjAddr: 0xE1F0, symBinAddr: 0x100063DE0, symSize: 0xE0 }
  - { offset: 0x1074BB, size: 0x8, addend: 0x0, symName: __RNvXs_NtNtNtCsieiGu2EXtoJ_4core4iter8adapters9enumerateINtB4_9EnumerateINtNtNtBa_5slice4iter4IterNtNtCs4xvdaJ1JWuv_14cranelift_isle3ast7PatternEENtNtNtB8_6traits8iterator8Iterator4nextB1B_, symObjAddr: 0xE2D0, symBinAddr: 0x100063EC0, symSize: 0xE0 }
  - { offset: 0x1075A1, size: 0x8, addend: 0x0, symName: __RNvXs_NtNtNtCsieiGu2EXtoJ_4core4iter8adapters9enumerateINtB4_9EnumerateINtNtNtBa_5slice4iter4IterNtNtCs4xvdaJ1JWuv_14cranelift_isle4sema6TermIdEENtNtNtB8_6traits8iterator8Iterator4nextB1B_, symObjAddr: 0xE3B0, symBinAddr: 0x100063FA0, symSize: 0xE0 }
  - { offset: 0x107687, size: 0x8, addend: 0x0, symName: __RNvXs_NtNtNtCsieiGu2EXtoJ_4core4iter8adapters9enumerateINtB4_9EnumerateINtNtNtBa_5slice4iter4IterNtNtCs4xvdaJ1JWuv_14cranelift_isle4sema6TypeIdEENtNtNtB8_6traits8iterator8Iterator4nextB1B_, symObjAddr: 0xE490, symBinAddr: 0x100064080, symSize: 0xE0 }
  - { offset: 0x10776D, size: 0x8, addend: 0x0, symName: __RNvXs_NtNtNtCsieiGu2EXtoJ_4core4iter8adapters9enumerateINtB4_9EnumerateINtNtNtBa_5slice4iter4IterNtNtCs4xvdaJ1JWuv_14cranelift_isle4sema6TypeIdEENtNtNtB8_6traits8iterator8Iterator9size_hintB1B_, symObjAddr: 0xE570, symBinAddr: 0x100064160, symSize: 0x30 }
  - { offset: 0x1077A2, size: 0x8, addend: 0x0, symName: __RNvXs_NtNtNtCsieiGu2EXtoJ_4core4iter8adapters9enumerateINtB4_9EnumerateINtNtNtBa_5slice4iter4IterNtNtCs4xvdaJ1JWuv_14cranelift_isle9serialize14EqualCandidateEENtNtNtB8_6traits8iterator8Iterator4nextB1B_, symObjAddr: 0xE5A0, symBinAddr: 0x100064190, symSize: 0xE0 }
  - { offset: 0x107888, size: 0x8, addend: 0x0, symName: __RNvXs_NtNtNtCsieiGu2EXtoJ_4core4iter8adapters9enumerateINtB4_9EnumerateINtNtNtBa_5slice4iter4IterNtNtCs4xvdaJ1JWuv_14cranelift_isle9serialize9CandidateEENtNtNtB8_6traits8iterator8Iterator4nextB1B_, symObjAddr: 0xE680, symBinAddr: 0x100064270, symSize: 0xE0 }
  - { offset: 0x10796E, size: 0x8, addend: 0x0, symName: __RNvXs_NtNtNtCsieiGu2EXtoJ_4core4iter8adapters9enumerateINtB4_9EnumerateINtNtNtBa_5slice4iter4IterNtNtCslJiobkLta79_5alloc6string6StringEENtNtNtB8_6traits8iterator8Iterator4nextCs4xvdaJ1JWuv_14cranelift_isle, symObjAddr: 0xE760, symBinAddr: 0x100064350, symSize: 0xE0 }
  - { offset: 0x107FA1, size: 0x8, addend: 0x0, symName: __RINvYINtNtNtCsieiGu2EXtoJ_4core5array4iter8IntoIterNtNtCs4xvdaJ1JWuv_14cranelift_isle9serialize9CandidateKj2_ENtNtNtNtBa_4iter6traits8iterator8Iterator8for_eachNCINvMsi_NtCslJiobkLta79_5alloc3vecINtB2H_3VecBN_E14extend_trustedB3_E0EBR_, symObjAddr: 0x1D40, symBinAddr: 0x100058770, symSize: 0x30 }
  - { offset: 0x10800C, size: 0x8, addend: 0x0, symName: __RINvYINtNtNtNtCsieiGu2EXtoJ_4core4iter8adapters9enumerate9EnumerateINtNtNtBc_5slice4iter4IterNtNtCs4xvdaJ1JWuv_14cranelift_isle4sema6TypeIdEENtNtNtBa_6traits8iterator8Iterator3mapNtNtCslJiobkLta79_5alloc6string6StringNCNvMs_NtB1x_7codegenNtB3A_7Codegen18generate_trait_sigs_0EB1x_, symObjAddr: 0x1D70, symBinAddr: 0x1000587A0, symSize: 0x30 }
  - { offset: 0x10809E, size: 0x8, addend: 0x0, symName: __RNvXNtNtNtCsieiGu2EXtoJ_4core4iter6traits7collectINtNtNtB6_8adapters9enumerate9EnumerateINtNtBQ_3zip3ZipINtNtNtB8_5slice4iter4IterNtNtCs4xvdaJ1JWuv_14cranelift_isle4sema7PatternEIB1F_NtB26_6TypeIdEEENtB2_12IntoIterator9into_iterB28_, symObjAddr: 0xADC0, symBinAddr: 0x1000609B0, symSize: 0x30 }
  - { offset: 0x1080D6, size: 0x8, addend: 0x0, symName: __RNvXNtNtNtCsieiGu2EXtoJ_4core4iter6traits7collectINtNtNtB6_8adapters9enumerate9EnumerateINtNtNtB8_5slice4iter4IterNtNtCs4xvdaJ1JWuv_14cranelift_isle10trie_again7BindingEENtB2_12IntoIterator9into_iterB1S_, symObjAddr: 0xADF0, symBinAddr: 0x1000609E0, symSize: 0x20 }
  - { offset: 0x10810D, size: 0x8, addend: 0x0, symName: __RNvXNtNtNtCsieiGu2EXtoJ_4core4iter6traits7collectINtNtNtB6_8adapters9enumerate9EnumerateINtNtNtB8_5slice4iter4IterNtNtCs4xvdaJ1JWuv_14cranelift_isle4sema6TypeIdEENtB2_12IntoIterator9into_iterB1S_, symObjAddr: 0xAE10, symBinAddr: 0x100060A00, symSize: 0x20 }
  - { offset: 0x108144, size: 0x8, addend: 0x0, symName: __RNvXNtNtNtCsieiGu2EXtoJ_4core4iter6traits7collectINtNtNtB6_8adapters9enumerate9EnumerateINtNtNtB8_5slice4iter4IterNtNtCslJiobkLta79_5alloc6string6StringEENtB2_12IntoIterator9into_iterCs4xvdaJ1JWuv_14cranelift_isle, symObjAddr: 0xAE30, symBinAddr: 0x100060A20, symSize: 0x20 }
  - { offset: 0x1093D0, size: 0x8, addend: 0x0, symName: __RINvXs2_NtNtCsieiGu2EXtoJ_4core4hash5implsSNtNtCs4xvdaJ1JWuv_14cranelift_isle10trie_again9BindingIdNtB8_4Hash4hashNtNtNtCsHUR1vrdMJt_3std4hash6random13DefaultHasherEBJ_, symObjAddr: 0x1460, symBinAddr: 0x100057E90, symSize: 0x50 }
  - { offset: 0x109421, size: 0x8, addend: 0x0, symName: __RINvXs3_NtNtCsieiGu2EXtoJ_4core4hash5implsRNtNtCs4xvdaJ1JWuv_14cranelift_isle10trie_again7BindingNtB8_4Hash4hashNtNtNtCsHUR1vrdMJt_3std4hash6random13DefaultHasherEBJ_, symObjAddr: 0x15F0, symBinAddr: 0x100058020, symSize: 0x20 }
  - { offset: 0x10946C, size: 0x8, addend: 0x0, symName: __RINvXs3_NtNtCsieiGu2EXtoJ_4core4hash5implsRNtNtCs4xvdaJ1JWuv_14cranelift_isle10trie_again9BindingIdNtB8_4Hash4hashNtNtNtCsHUR1vrdMJt_3std4hash6random13DefaultHasherEBJ_, symObjAddr: 0x1610, symBinAddr: 0x100058040, symSize: 0x20 }
  - { offset: 0x1094BE, size: 0x8, addend: 0x0, symName: __RINvYNtNtCs4xvdaJ1JWuv_14cranelift_isle10trie_again9BindingIdNtNtCsieiGu2EXtoJ_4core4hash4Hash10hash_sliceNtNtNtCsHUR1vrdMJt_3std4hash6random13DefaultHasherEB7_, symObjAddr: 0x1DA0, symBinAddr: 0x1000587D0, symSize: 0x90 }
  - { offset: 0x10995B, size: 0x8, addend: 0x0, symName: __RINvXs2_NtNtCsieiGu2EXtoJ_4core5array4iterINtB6_8IntoIterNtNtCs4xvdaJ1JWuv_14cranelift_isle9serialize9CandidateKj2_ENtNtNtNtBa_4iter6traits8iterator8Iterator4folduNCINvNvB1Q_8for_each4callBT_NCINvMsi_NtCslJiobkLta79_5alloc3vecINtB3c_3VecBT_E14extend_trustedBE_E0E0EBX_, symObjAddr: 0x14B0, symBinAddr: 0x100057EE0, symSize: 0xC0 }
  - { offset: 0x109A6C, size: 0x8, addend: 0x0, symName: __RINvXs2_NtNtCsieiGu2EXtoJ_4core5array4iterINtB6_8IntoIterbKj20_ENtNtNtNtBa_4iter6traits8iterator8Iterator4foldhNCINvNtNtB16_8adapters3map8map_foldbhhNCNvXNtNtBa_3str4iterNtB2s_5CharsB10_10advance_by0NCINvXsq_NtB14_5accumhNtB3k_3Sum3sumINtB1Q_3MapBE_B2n_EE0E0ECs4xvdaJ1JWuv_14cranelift_isle, symObjAddr: 0x1570, symBinAddr: 0x100057FA0, symSize: 0x80 }
  - { offset: 0x109B61, size: 0x8, addend: 0x0, symName: __RNvXs2_NtNtCsieiGu2EXtoJ_4core5array4iterINtB5_8IntoIterNtNtCs4xvdaJ1JWuv_14cranelift_isle9serialize9CandidateKj2_ENtNtNtNtB9_4iter6traits8iterator8Iterator9size_hintBW_, symObjAddr: 0xBB00, symBinAddr: 0x1000616F0, symSize: 0x30 }
  - { offset: 0x109C16, size: 0x8, addend: 0x0, symName: __RNvXs4_NtNtCsieiGu2EXtoJ_4core5array4iterINtB5_8IntoIterNtNtCs4xvdaJ1JWuv_14cranelift_isle9serialize9CandidateKj2_ENtNtNtB9_3ops4drop4Drop4dropBW_, symObjAddr: 0xBF80, symBinAddr: 0x100061B70, symSize: 0x10 }
  - { offset: 0x109C49, size: 0x8, addend: 0x0, symName: __RNvXs4_NtNtCsieiGu2EXtoJ_4core5array4iterINtB5_8IntoIterbKj20_ENtNtNtB9_3ops4drop4Drop4dropCs4xvdaJ1JWuv_14cranelift_isle, symObjAddr: 0xBF90, symBinAddr: 0x100061B80, symSize: 0x10 }
  - { offset: 0x109C7C, size: 0x8, addend: 0x0, symName: __RNvXs4_NtNtCsieiGu2EXtoJ_4core5array4iterINtB5_8IntoIterjKj2_ENtNtNtB9_3ops4drop4Drop4dropCs4xvdaJ1JWuv_14cranelift_isle, symObjAddr: 0xBFA0, symBinAddr: 0x100061B90, symSize: 0x10 }
  - { offset: 0x109D11, size: 0x8, addend: 0x0, symName: __RNvXsd_NtCsieiGu2EXtoJ_4core5arrayANtNtCs4xvdaJ1JWuv_14cranelift_isle10trie_again9BindingIdj0_INtNtNtB7_3ops5index5IndexNtNtB1z_5range9RangeFullE5indexBB_, symObjAddr: 0xE8F0, symBinAddr: 0x1000644E0, symSize: 0x30 }
  - { offset: 0x109D84, size: 0x8, addend: 0x0, symName: __RNvXsa_NtCsieiGu2EXtoJ_4core5arrayANtNtCs4xvdaJ1JWuv_14cranelift_isle10trie_again9BindingIdj0_NtNtB7_3fmt5Debug3fmtBB_, symObjAddr: 0xE850, symBinAddr: 0x100064440, symSize: 0x50 }
