---
triple:          'x86_64-apple-darwin'
binary-path:     '/Users/kema/git/rust-serv/target/debug/deps/libtracing_attributes-4f655f6ccab0fc57.dylib'
relocations:
  - { offset: 0x1E, size: 0x8, addend: 0x0, symName: __RINvNtNtCsdGrGZaRBwMb_3syn3gen9visit_mut13visit_abi_mutNtNtCsjTXeTLYUiB9_18tracing_attributes6expand15ImplTraitEraserEBV_, symObjAddr: 0x0, symBinAddr: 0xBD0, symSize: 0x60 }
  - { offset: 0x975, size: 0x8, addend: 0x0, symName: __RINvNtNtCsdGrGZaRBwMb_3syn3gen9visit_mut13visit_abi_mutNtNtCsjTXeTLYUiB9_18tracing_attributes6expand15ImplTraitEraserEBV_, symObjAddr: 0x0, symBinAddr: 0xBD0, symSize: 0x60 }
  - { offset: 0x9D5, size: 0x8, addend: 0x0, symName: __RINvNtNtCsdGrGZaRBwMb_3syn3gen9visit_mut13visit_abi_mutNtNtCsjTXeTLYUiB9_18tracing_attributes6expand20IdentAndTypesRenamerEBV_, symObjAddr: 0x60, symBinAddr: 0xC30, symSize: 0x60 }
  - { offset: 0xA35, size: 0x8, addend: 0x0, symName: __RINvNtNtCsdGrGZaRBwMb_3syn3gen9visit_mut13visit_arm_mutNtNtCsjTXeTLYUiB9_18tracing_attributes6expand15ImplTraitEraserEBV_, symObjAddr: 0xC0, symBinAddr: 0xC90, symSize: 0x140 }
  - { offset: 0xA8D, size: 0x8, addend: 0x0, symName: __RINvNtNtCsdGrGZaRBwMb_3syn3gen9visit_mut13visit_arm_mutNtNtCsjTXeTLYUiB9_18tracing_attributes6expand20IdentAndTypesRenamerEBV_, symObjAddr: 0x200, symBinAddr: 0xDD0, symSize: 0x140 }
  - { offset: 0xAE5, size: 0x8, addend: 0x0, symName: __RINvNtNtCsdGrGZaRBwMb_3syn3gen9visit_mut13visit_lit_mutNtNtCsjTXeTLYUiB9_18tracing_attributes6expand15ImplTraitEraserEBV_, symObjAddr: 0x340, symBinAddr: 0xF10, symSize: 0x1A0 }
  - { offset: 0xC1A, size: 0x8, addend: 0x0, symName: __RINvNtNtCsdGrGZaRBwMb_3syn3gen9visit_mut13visit_lit_mutNtNtCsjTXeTLYUiB9_18tracing_attributes6expand20IdentAndTypesRenamerEBV_, symObjAddr: 0x4E0, symBinAddr: 0x10B0, symSize: 0x1A0 }
  - { offset: 0xD4F, size: 0x8, addend: 0x0, symName: __RINvNtNtCsdGrGZaRBwMb_3syn3gen9visit_mut13visit_pat_mutNtNtCsjTXeTLYUiB9_18tracing_attributes6expand15ImplTraitEraserEBV_, symObjAddr: 0x680, symBinAddr: 0x1250, symSize: 0x350 }
  - { offset: 0xF92, size: 0x8, addend: 0x0, symName: __RINvNtNtCsdGrGZaRBwMb_3syn3gen9visit_mut13visit_pat_mutNtNtCsjTXeTLYUiB9_18tracing_attributes6expand20IdentAndTypesRenamerEBV_, symObjAddr: 0x9D0, symBinAddr: 0x15A0, symSize: 0x350 }
  - { offset: 0x11D5, size: 0x8, addend: 0x0, symName: __RINvNtNtCsdGrGZaRBwMb_3syn3gen9visit_mut14visit_expr_mutNtNtCsjTXeTLYUiB9_18tracing_attributes6expand15ImplTraitEraserEBW_, symObjAddr: 0xD20, symBinAddr: 0x18F0, symSize: 0x770 }
  - { offset: 0x16E1, size: 0x8, addend: 0x0, symName: __RINvNtNtCsdGrGZaRBwMb_3syn3gen9visit_mut14visit_expr_mutNtNtCsjTXeTLYUiB9_18tracing_attributes6expand20IdentAndTypesRenamerEBW_, symObjAddr: 0x1490, symBinAddr: 0x2060, symSize: 0x770 }
  - { offset: 0x1BED, size: 0x8, addend: 0x0, symName: __RINvNtNtCsdGrGZaRBwMb_3syn3gen9visit_mut14visit_item_mutNtNtCsjTXeTLYUiB9_18tracing_attributes6expand15ImplTraitEraserEBW_, symObjAddr: 0x1C00, symBinAddr: 0x27D0, symSize: 0x320 }
  - { offset: 0x1E11, size: 0x8, addend: 0x0, symName: __RINvNtNtCsdGrGZaRBwMb_3syn3gen9visit_mut14visit_item_mutNtNtCsjTXeTLYUiB9_18tracing_attributes6expand20IdentAndTypesRenamerEBW_, symObjAddr: 0x1F20, symBinAddr: 0x2AF0, symSize: 0x320 }
  - { offset: 0x2035, size: 0x8, addend: 0x0, symName: __RINvNtNtCsdGrGZaRBwMb_3syn3gen9visit_mut14visit_meta_mutNtNtCsjTXeTLYUiB9_18tracing_attributes6expand15ImplTraitEraserEBW_, symObjAddr: 0x2240, symBinAddr: 0x2E10, symSize: 0xB0 }
  - { offset: 0x20C9, size: 0x8, addend: 0x0, symName: __RINvNtNtCsdGrGZaRBwMb_3syn3gen9visit_mut14visit_meta_mutNtNtCsjTXeTLYUiB9_18tracing_attributes6expand20IdentAndTypesRenamerEBW_, symObjAddr: 0x22F0, symBinAddr: 0x2EC0, symSize: 0xB0 }
  - { offset: 0x215D, size: 0x8, addend: 0x0, symName: __RINvNtNtCsdGrGZaRBwMb_3syn3gen9visit_mut14visit_path_mutNtNtCsjTXeTLYUiB9_18tracing_attributes6expand15ImplTraitEraserEBW_, symObjAddr: 0x23A0, symBinAddr: 0x2F70, symSize: 0xB0 }
  - { offset: 0x21FA, size: 0x8, addend: 0x0, symName: __RINvNtNtCsdGrGZaRBwMb_3syn3gen9visit_mut14visit_path_mutNtNtCsjTXeTLYUiB9_18tracing_attributes6expand20IdentAndTypesRenamerEBW_, symObjAddr: 0x2450, symBinAddr: 0x3020, symSize: 0xB0 }
  - { offset: 0x2297, size: 0x8, addend: 0x0, symName: __RINvNtNtCsdGrGZaRBwMb_3syn3gen9visit_mut14visit_stmt_mutNtNtCsjTXeTLYUiB9_18tracing_attributes6expand15ImplTraitEraserEBW_, symObjAddr: 0x2500, symBinAddr: 0x30D0, symSize: 0xF0 }
  - { offset: 0x2359, size: 0x8, addend: 0x0, symName: __RINvNtNtCsdGrGZaRBwMb_3syn3gen9visit_mut14visit_stmt_mutNtNtCsjTXeTLYUiB9_18tracing_attributes6expand20IdentAndTypesRenamerEBW_, symObjAddr: 0x25F0, symBinAddr: 0x31C0, symSize: 0xF0 }
  - { offset: 0x241B, size: 0x8, addend: 0x0, symName: __RINvNtNtCsdGrGZaRBwMb_3syn3gen9visit_mut14visit_type_mutNtNtCsjTXeTLYUiB9_18tracing_attributes6expand15ImplTraitEraserEBW_, symObjAddr: 0x26E0, symBinAddr: 0x32B0, symSize: 0x2F0 }
  - { offset: 0x2620, size: 0x8, addend: 0x0, symName: __RINvNtNtCsdGrGZaRBwMb_3syn3gen9visit_mut15visit_block_mutNtNtCsjTXeTLYUiB9_18tracing_attributes6expand15ImplTraitEraserEBX_, symObjAddr: 0x29D0, symBinAddr: 0x35A0, symSize: 0x80 }
  - { offset: 0x269E, size: 0x8, addend: 0x0, symName: __RINvNtNtCsdGrGZaRBwMb_3syn3gen9visit_mut15visit_block_mutNtNtCsjTXeTLYUiB9_18tracing_attributes6expand20IdentAndTypesRenamerEBX_, symObjAddr: 0x2A50, symBinAddr: 0x3620, symSize: 0x80 }
  - { offset: 0x271C, size: 0x8, addend: 0x0, symName: __RINvNtNtCsdGrGZaRBwMb_3syn3gen9visit_mut15visit_field_mutNtNtCsjTXeTLYUiB9_18tracing_attributes6expand15ImplTraitEraserEBX_, symObjAddr: 0x2AD0, symBinAddr: 0x36A0, symSize: 0xB0 }
  - { offset: 0x277C, size: 0x8, addend: 0x0, symName: __RINvNtNtCsdGrGZaRBwMb_3syn3gen9visit_mut15visit_field_mutNtNtCsjTXeTLYUiB9_18tracing_attributes6expand20IdentAndTypesRenamerEBX_, symObjAddr: 0x2B80, symBinAddr: 0x3750, symSize: 0xB0 }
  - { offset: 0x27DC, size: 0x8, addend: 0x0, symName: __RINvNtNtCsdGrGZaRBwMb_3syn3gen9visit_mut15visit_ident_mutNtNtCsjTXeTLYUiB9_18tracing_attributes6expand15ImplTraitEraserEBX_, symObjAddr: 0x2C30, symBinAddr: 0x3800, symSize: 0x60 }
  - { offset: 0x283C, size: 0x8, addend: 0x0, symName: __RINvNtNtCsdGrGZaRBwMb_3syn3gen9visit_mut15visit_index_mutNtNtCsjTXeTLYUiB9_18tracing_attributes6expand15ImplTraitEraserEBX_, symObjAddr: 0x2C90, symBinAddr: 0x3860, symSize: 0x30 }
  - { offset: 0x287E, size: 0x8, addend: 0x0, symName: __RINvNtNtCsdGrGZaRBwMb_3syn3gen9visit_mut15visit_index_mutNtNtCsjTXeTLYUiB9_18tracing_attributes6expand20IdentAndTypesRenamerEBX_, symObjAddr: 0x2CC0, symBinAddr: 0x3890, symSize: 0x30 }
  - { offset: 0x28C0, size: 0x8, addend: 0x0, symName: __RINvNtNtCsdGrGZaRBwMb_3syn3gen9visit_mut15visit_label_mutNtNtCsjTXeTLYUiB9_18tracing_attributes6expand15ImplTraitEraserEBX_, symObjAddr: 0x2CF0, symBinAddr: 0x38C0, symSize: 0x30 }
  - { offset: 0x2902, size: 0x8, addend: 0x0, symName: __RINvNtNtCsdGrGZaRBwMb_3syn3gen9visit_mut15visit_label_mutNtNtCsjTXeTLYUiB9_18tracing_attributes6expand20IdentAndTypesRenamerEBX_, symObjAddr: 0x2D20, symBinAddr: 0x38F0, symSize: 0x30 }
  - { offset: 0x2944, size: 0x8, addend: 0x0, symName: __RINvNtNtCsdGrGZaRBwMb_3syn3gen9visit_mut15visit_local_mutNtNtCsjTXeTLYUiB9_18tracing_attributes6expand15ImplTraitEraserEBX_, symObjAddr: 0x2D50, symBinAddr: 0x3920, symSize: 0x90 }
  - { offset: 0x29A4, size: 0x8, addend: 0x0, symName: __RINvNtNtCsdGrGZaRBwMb_3syn3gen9visit_mut15visit_local_mutNtNtCsjTXeTLYUiB9_18tracing_attributes6expand20IdentAndTypesRenamerEBX_, symObjAddr: 0x2DE0, symBinAddr: 0x39B0, symSize: 0x90 }
  - { offset: 0x2A04, size: 0x8, addend: 0x0, symName: __RINvNtNtCsdGrGZaRBwMb_3syn3gen9visit_mut15visit_macro_mutNtNtCsjTXeTLYUiB9_18tracing_attributes6expand15ImplTraitEraserEBX_, symObjAddr: 0x2E70, symBinAddr: 0x3A40, symSize: 0x50 }
  - { offset: 0x2A46, size: 0x8, addend: 0x0, symName: __RINvNtNtCsdGrGZaRBwMb_3syn3gen9visit_mut15visit_macro_mutNtNtCsjTXeTLYUiB9_18tracing_attributes6expand20IdentAndTypesRenamerEBX_, symObjAddr: 0x2EC0, symBinAddr: 0x3A90, symSize: 0x50 }
  - { offset: 0x2A88, size: 0x8, addend: 0x0, symName: __RINvNtNtCsdGrGZaRBwMb_3syn3gen9visit_mut15visit_qself_mutNtNtCsjTXeTLYUiB9_18tracing_attributes6expand15ImplTraitEraserEBX_, symObjAddr: 0x2F10, symBinAddr: 0x3AE0, symSize: 0x80 }
  - { offset: 0x2ACA, size: 0x8, addend: 0x0, symName: __RINvNtNtCsdGrGZaRBwMb_3syn3gen9visit_mut15visit_qself_mutNtNtCsjTXeTLYUiB9_18tracing_attributes6expand20IdentAndTypesRenamerEBX_, symObjAddr: 0x2F90, symBinAddr: 0x3B60, symSize: 0x80 }
  - { offset: 0x2B0C, size: 0x8, addend: 0x0, symName: __RINvNtNtCsdGrGZaRBwMb_3syn3gen9visit_mut15visit_un_op_mutNtNtCsjTXeTLYUiB9_18tracing_attributes6expand15ImplTraitEraserEBX_, symObjAddr: 0x3010, symBinAddr: 0x3BE0, symSize: 0x70 }
  - { offset: 0x2B4E, size: 0x8, addend: 0x0, symName: __RINvNtNtCsdGrGZaRBwMb_3syn3gen9visit_mut15visit_un_op_mutNtNtCsjTXeTLYUiB9_18tracing_attributes6expand20IdentAndTypesRenamerEBX_, symObjAddr: 0x3080, symBinAddr: 0x3C50, symSize: 0x70 }
  - { offset: 0x2B90, size: 0x8, addend: 0x0, symName: __RINvNtNtCsdGrGZaRBwMb_3syn3gen9visit_mut16visit_bin_op_mutNtNtCsjTXeTLYUiB9_18tracing_attributes6expand15ImplTraitEraserEBY_, symObjAddr: 0x30F0, symBinAddr: 0x3CC0, symSize: 0x3E0 }
  - { offset: 0x2BD4, size: 0x8, addend: 0x0, symName: __RINvNtNtCsdGrGZaRBwMb_3syn3gen9visit_mut16visit_bin_op_mutNtNtCsjTXeTLYUiB9_18tracing_attributes6expand20IdentAndTypesRenamerEBY_, symObjAddr: 0x34D0, symBinAddr: 0x40A0, symSize: 0x3E0 }
  - { offset: 0x2C18, size: 0x8, addend: 0x0, symName: __RINvNtNtCsdGrGZaRBwMb_3syn3gen9visit_mut16visit_fields_mutNtNtCsjTXeTLYUiB9_18tracing_attributes6expand15ImplTraitEraserEBY_, symObjAddr: 0x38B0, symBinAddr: 0x4480, symSize: 0x90 }
  - { offset: 0x2C96, size: 0x8, addend: 0x0, symName: __RINvNtNtCsdGrGZaRBwMb_3syn3gen9visit_mut16visit_fields_mutNtNtCsjTXeTLYUiB9_18tracing_attributes6expand20IdentAndTypesRenamerEBY_, symObjAddr: 0x3940, symBinAddr: 0x4510, symSize: 0x90 }
  - { offset: 0x2D14, size: 0x8, addend: 0x0, symName: __RINvNtNtCsdGrGZaRBwMb_3syn3gen9visit_mut16visit_fn_arg_mutNtNtCsjTXeTLYUiB9_18tracing_attributes6expand15ImplTraitEraserEBY_, symObjAddr: 0x39D0, symBinAddr: 0x45A0, symSize: 0x80 }
  - { offset: 0x2D8A, size: 0x8, addend: 0x0, symName: __RINvNtNtCsdGrGZaRBwMb_3syn3gen9visit_mut16visit_fn_arg_mutNtNtCsjTXeTLYUiB9_18tracing_attributes6expand20IdentAndTypesRenamerEBY_, symObjAddr: 0x3A50, symBinAddr: 0x4620, symSize: 0x80 }
  - { offset: 0x2E00, size: 0x8, addend: 0x0, symName: __RINvNtNtCsdGrGZaRBwMb_3syn3gen9visit_mut16visit_member_mutNtNtCsjTXeTLYUiB9_18tracing_attributes6expand15ImplTraitEraserEBY_, symObjAddr: 0x3AD0, symBinAddr: 0x46A0, symSize: 0x70 }
  - { offset: 0x2E76, size: 0x8, addend: 0x0, symName: __RINvNtNtCsdGrGZaRBwMb_3syn3gen9visit_mut16visit_member_mutNtNtCsjTXeTLYUiB9_18tracing_attributes6expand20IdentAndTypesRenamerEBY_, symObjAddr: 0x3B40, symBinAddr: 0x4710, symSize: 0x70 }
  - { offset: 0x2EEC, size: 0x8, addend: 0x0, symName: __RINvNtNtCsdGrGZaRBwMb_3syn3gen9visit_mut16visit_pat_or_mutNtNtCsjTXeTLYUiB9_18tracing_attributes6expand15ImplTraitEraserEBY_, symObjAddr: 0x3BB0, symBinAddr: 0x4780, symSize: 0xD0 }
  - { offset: 0x2F89, size: 0x8, addend: 0x0, symName: __RINvNtNtCsdGrGZaRBwMb_3syn3gen9visit_mut16visit_pat_or_mutNtNtCsjTXeTLYUiB9_18tracing_attributes6expand20IdentAndTypesRenamerEBY_, symObjAddr: 0x3C80, symBinAddr: 0x4850, symSize: 0xD0 }
  - { offset: 0x3026, size: 0x8, addend: 0x0, symName: __RINvNtNtCsdGrGZaRBwMb_3syn3gen9visit_mut17visit_expr_if_mutNtNtCsjTXeTLYUiB9_18tracing_attributes6expand15ImplTraitEraserEBZ_, symObjAddr: 0x3D50, symBinAddr: 0x4920, symSize: 0x130 }
  - { offset: 0x307E, size: 0x8, addend: 0x0, symName: __RINvNtNtCsdGrGZaRBwMb_3syn3gen9visit_mut17visit_expr_if_mutNtNtCsjTXeTLYUiB9_18tracing_attributes6expand20IdentAndTypesRenamerEBZ_, symObjAddr: 0x3E80, symBinAddr: 0x4A50, symSize: 0x130 }
  - { offset: 0x30D6, size: 0x8, addend: 0x0, symName: __RINvNtNtCsdGrGZaRBwMb_3syn3gen9visit_mut17visit_item_fn_mutNtNtCsjTXeTLYUiB9_18tracing_attributes6expand15ImplTraitEraserEBZ_, symObjAddr: 0x3FB0, symBinAddr: 0x4B80, symSize: 0xB0 }
  - { offset: 0x3118, size: 0x8, addend: 0x0, symName: __RINvNtNtCsdGrGZaRBwMb_3syn3gen9visit_mut17visit_item_fn_mutNtNtCsjTXeTLYUiB9_18tracing_attributes6expand20IdentAndTypesRenamerEBZ_, symObjAddr: 0x4060, symBinAddr: 0x4C30, symSize: 0xB0 }
  - { offset: 0x315A, size: 0x8, addend: 0x0, symName: __RINvNtNtCsdGrGZaRBwMb_3syn3gen9visit_mut17visit_lit_int_mutNtNtCsjTXeTLYUiB9_18tracing_attributes6expand15ImplTraitEraserEBZ_, symObjAddr: 0x4110, symBinAddr: 0x4CE0, symSize: 0x20 }
  - { offset: 0x319C, size: 0x8, addend: 0x0, symName: __RINvNtNtCsdGrGZaRBwMb_3syn3gen9visit_mut17visit_lit_int_mutNtNtCsjTXeTLYUiB9_18tracing_attributes6expand20IdentAndTypesRenamerEBZ_, symObjAddr: 0x4130, symBinAddr: 0x4D00, symSize: 0x20 }
  - { offset: 0x31DE, size: 0x8, addend: 0x0, symName: __RINvNtNtCsdGrGZaRBwMb_3syn3gen9visit_mut17visit_lit_str_mutNtNtCsjTXeTLYUiB9_18tracing_attributes6expand15ImplTraitEraserEBZ_, symObjAddr: 0x4150, symBinAddr: 0x4D20, symSize: 0x20 }
  - { offset: 0x3220, size: 0x8, addend: 0x0, symName: __RINvNtNtCsdGrGZaRBwMb_3syn3gen9visit_mut17visit_lit_str_mutNtNtCsjTXeTLYUiB9_18tracing_attributes6expand20IdentAndTypesRenamerEBZ_, symObjAddr: 0x4170, symBinAddr: 0x4D40, symSize: 0x20 }
  - { offset: 0x3262, size: 0x8, addend: 0x0, symName: __RINvNtNtCsdGrGZaRBwMb_3syn3gen9visit_mut17visit_variant_mutNtNtCsjTXeTLYUiB9_18tracing_attributes6expand15ImplTraitEraserEBZ_, symObjAddr: 0x4190, symBinAddr: 0x4D60, symSize: 0xA0 }
  - { offset: 0x32C2, size: 0x8, addend: 0x0, symName: __RINvNtNtCsdGrGZaRBwMb_3syn3gen9visit_mut17visit_variant_mutNtNtCsjTXeTLYUiB9_18tracing_attributes6expand20IdentAndTypesRenamerEBZ_, symObjAddr: 0x4230, symBinAddr: 0x4E00, symSize: 0xA0 }
  - { offset: 0x3322, size: 0x8, addend: 0x0, symName: __RINvNtNtCsdGrGZaRBwMb_3syn3gen9visit_mut18visit_expr_let_mutNtNtCsjTXeTLYUiB9_18tracing_attributes6expand15ImplTraitEraserEB10_, symObjAddr: 0x42D0, symBinAddr: 0x4EA0, symSize: 0xE0 }
  - { offset: 0x3364, size: 0x8, addend: 0x0, symName: __RINvNtNtCsdGrGZaRBwMb_3syn3gen9visit_mut18visit_expr_let_mutNtNtCsjTXeTLYUiB9_18tracing_attributes6expand20IdentAndTypesRenamerEB10_, symObjAddr: 0x43B0, symBinAddr: 0x4F80, symSize: 0xE0 }
  - { offset: 0x33A6, size: 0x8, addend: 0x0, symName: __RINvNtNtCsdGrGZaRBwMb_3syn3gen9visit_mut18visit_expr_lit_mutNtNtCsjTXeTLYUiB9_18tracing_attributes6expand15ImplTraitEraserEB10_, symObjAddr: 0x4490, symBinAddr: 0x5060, symSize: 0x40 }
  - { offset: 0x33E8, size: 0x8, addend: 0x0, symName: __RINvNtNtCsdGrGZaRBwMb_3syn3gen9visit_mut18visit_expr_lit_mutNtNtCsjTXeTLYUiB9_18tracing_attributes6expand20IdentAndTypesRenamerEB10_, symObjAddr: 0x44D0, symBinAddr: 0x50A0, symSize: 0x40 }
  - { offset: 0x342A, size: 0x8, addend: 0x0, symName: __RINvNtNtCsdGrGZaRBwMb_3syn3gen9visit_mut18visit_expr_try_mutNtNtCsjTXeTLYUiB9_18tracing_attributes6expand15ImplTraitEraserEB10_, symObjAddr: 0x4510, symBinAddr: 0x50E0, symSize: 0x90 }
  - { offset: 0x346C, size: 0x8, addend: 0x0, symName: __RINvNtNtCsdGrGZaRBwMb_3syn3gen9visit_mut18visit_expr_try_mutNtNtCsjTXeTLYUiB9_18tracing_attributes6expand20IdentAndTypesRenamerEB10_, symObjAddr: 0x45A0, symBinAddr: 0x5170, symSize: 0x90 }
  - { offset: 0x34AE, size: 0x8, addend: 0x0, symName: __RINvNtNtCsdGrGZaRBwMb_3syn3gen9visit_mut18visit_generics_mutNtNtCsjTXeTLYUiB9_18tracing_attributes6expand15ImplTraitEraserEB10_, symObjAddr: 0x4630, symBinAddr: 0x5200, symSize: 0x110 }
  - { offset: 0x3569, size: 0x8, addend: 0x0, symName: __RINvNtNtCsdGrGZaRBwMb_3syn3gen9visit_mut18visit_generics_mutNtNtCsjTXeTLYUiB9_18tracing_attributes6expand20IdentAndTypesRenamerEB10_, symObjAddr: 0x4740, symBinAddr: 0x5310, symSize: 0x110 }
  - { offset: 0x3624, size: 0x8, addend: 0x0, symName: __RINvNtNtCsdGrGZaRBwMb_3syn3gen9visit_mut18visit_item_mod_mutNtNtCsjTXeTLYUiB9_18tracing_attributes6expand15ImplTraitEraserEB10_, symObjAddr: 0x4850, symBinAddr: 0x5420, symSize: 0xF0 }
  - { offset: 0x36B0, size: 0x8, addend: 0x0, symName: __RINvNtNtCsdGrGZaRBwMb_3syn3gen9visit_mut18visit_item_mod_mutNtNtCsjTXeTLYUiB9_18tracing_attributes6expand20IdentAndTypesRenamerEB10_, symObjAddr: 0x4940, symBinAddr: 0x5510, symSize: 0xF0 }
  - { offset: 0x373C, size: 0x8, addend: 0x0, symName: __RINvNtNtCsdGrGZaRBwMb_3syn3gen9visit_mut18visit_item_use_mutNtNtCsjTXeTLYUiB9_18tracing_attributes6expand15ImplTraitEraserEB10_, symObjAddr: 0x4A30, symBinAddr: 0x5600, symSize: 0x50 }
  - { offset: 0x377E, size: 0x8, addend: 0x0, symName: __RINvNtNtCsdGrGZaRBwMb_3syn3gen9visit_mut18visit_item_use_mutNtNtCsjTXeTLYUiB9_18tracing_attributes6expand20IdentAndTypesRenamerEB10_, symObjAddr: 0x4A80, symBinAddr: 0x5650, symSize: 0x50 }
  - { offset: 0x37C0, size: 0x8, addend: 0x0, symName: __RINvNtNtCsdGrGZaRBwMb_3syn3gen9visit_mut18visit_lifetime_mutNtNtCsjTXeTLYUiB9_18tracing_attributes6expand15ImplTraitEraserEB10_, symObjAddr: 0x4AD0, symBinAddr: 0x56A0, symSize: 0x40 }
  - { offset: 0x3802, size: 0x8, addend: 0x0, symName: __RINvNtNtCsdGrGZaRBwMb_3syn3gen9visit_mut18visit_lifetime_mutNtNtCsjTXeTLYUiB9_18tracing_attributes6expand20IdentAndTypesRenamerEB10_, symObjAddr: 0x4B10, symBinAddr: 0x56E0, symSize: 0x40 }
  - { offset: 0x3844, size: 0x8, addend: 0x0, symName: __RINvNtNtCsdGrGZaRBwMb_3syn3gen9visit_mut18visit_lit_bool_mutNtNtCsjTXeTLYUiB9_18tracing_attributes6expand15ImplTraitEraserEB10_, symObjAddr: 0x4B50, symBinAddr: 0x5720, symSize: 0x30 }
  - { offset: 0x3886, size: 0x8, addend: 0x0, symName: __RINvNtNtCsdGrGZaRBwMb_3syn3gen9visit_mut18visit_lit_bool_mutNtNtCsjTXeTLYUiB9_18tracing_attributes6expand20IdentAndTypesRenamerEB10_, symObjAddr: 0x4B80, symBinAddr: 0x5750, symSize: 0x30 }
  - { offset: 0x38C8, size: 0x8, addend: 0x0, symName: __RINvNtNtCsdGrGZaRBwMb_3syn3gen9visit_mut18visit_lit_byte_mutNtNtCsjTXeTLYUiB9_18tracing_attributes6expand15ImplTraitEraserEB10_, symObjAddr: 0x4BB0, symBinAddr: 0x5780, symSize: 0x20 }
  - { offset: 0x390A, size: 0x8, addend: 0x0, symName: __RINvNtNtCsdGrGZaRBwMb_3syn3gen9visit_mut18visit_lit_byte_mutNtNtCsjTXeTLYUiB9_18tracing_attributes6expand20IdentAndTypesRenamerEB10_, symObjAddr: 0x4BD0, symBinAddr: 0x57A0, symSize: 0x20 }
  - { offset: 0x394C, size: 0x8, addend: 0x0, symName: __RINvNtNtCsdGrGZaRBwMb_3syn3gen9visit_mut18visit_lit_char_mutNtNtCsjTXeTLYUiB9_18tracing_attributes6expand15ImplTraitEraserEB10_, symObjAddr: 0x4BF0, symBinAddr: 0x57C0, symSize: 0x20 }
  - { offset: 0x398E, size: 0x8, addend: 0x0, symName: __RINvNtNtCsdGrGZaRBwMb_3syn3gen9visit_mut18visit_lit_char_mutNtNtCsjTXeTLYUiB9_18tracing_attributes6expand20IdentAndTypesRenamerEB10_, symObjAddr: 0x4C10, symBinAddr: 0x57E0, symSize: 0x20 }
  - { offset: 0x39D0, size: 0x8, addend: 0x0, symName: __RINvNtNtCsdGrGZaRBwMb_3syn3gen9visit_mut18visit_lit_cstr_mutNtNtCsjTXeTLYUiB9_18tracing_attributes6expand15ImplTraitEraserEB10_, symObjAddr: 0x4C30, symBinAddr: 0x5800, symSize: 0x20 }
  - { offset: 0x3A12, size: 0x8, addend: 0x0, symName: __RINvNtNtCsdGrGZaRBwMb_3syn3gen9visit_mut18visit_lit_cstr_mutNtNtCsjTXeTLYUiB9_18tracing_attributes6expand20IdentAndTypesRenamerEB10_, symObjAddr: 0x4C50, symBinAddr: 0x5820, symSize: 0x20 }
  - { offset: 0x3A54, size: 0x8, addend: 0x0, symName: __RINvNtNtCsdGrGZaRBwMb_3syn3gen9visit_mut18visit_pat_rest_mutNtNtCsjTXeTLYUiB9_18tracing_attributes6expand15ImplTraitEraserEB10_, symObjAddr: 0x4C70, symBinAddr: 0x5840, symSize: 0x30 }
  - { offset: 0x3A96, size: 0x8, addend: 0x0, symName: __RINvNtNtCsdGrGZaRBwMb_3syn3gen9visit_mut18visit_pat_rest_mutNtNtCsjTXeTLYUiB9_18tracing_attributes6expand20IdentAndTypesRenamerEB10_, symObjAddr: 0x4CA0, symBinAddr: 0x5870, symSize: 0x30 }
  - { offset: 0x3AD8, size: 0x8, addend: 0x0, symName: __RINvNtNtCsdGrGZaRBwMb_3syn3gen9visit_mut18visit_pat_type_mutNtNtCsjTXeTLYUiB9_18tracing_attributes6expand15ImplTraitEraserEB10_, symObjAddr: 0x4CD0, symBinAddr: 0x58A0, symSize: 0xE0 }
  - { offset: 0x3B1A, size: 0x8, addend: 0x0, symName: __RINvNtNtCsdGrGZaRBwMb_3syn3gen9visit_mut18visit_pat_type_mutNtNtCsjTXeTLYUiB9_18tracing_attributes6expand20IdentAndTypesRenamerEB10_, symObjAddr: 0x4DB0, symBinAddr: 0x5980, symSize: 0xE0 }
  - { offset: 0x3B5C, size: 0x8, addend: 0x0, symName: __RINvNtNtCsdGrGZaRBwMb_3syn3gen9visit_mut18visit_pat_wild_mutNtNtCsjTXeTLYUiB9_18tracing_attributes6expand15ImplTraitEraserEB10_, symObjAddr: 0x4E90, symBinAddr: 0x5A60, symSize: 0x30 }
  - { offset: 0x3B9E, size: 0x8, addend: 0x0, symName: __RINvNtNtCsdGrGZaRBwMb_3syn3gen9visit_mut18visit_pat_wild_mutNtNtCsjTXeTLYUiB9_18tracing_attributes6expand20IdentAndTypesRenamerEB10_, symObjAddr: 0x4EC0, symBinAddr: 0x5A90, symSize: 0x30 }
  - { offset: 0x3BE0, size: 0x8, addend: 0x0, symName: __RINvNtNtCsdGrGZaRBwMb_3syn3gen9visit_mut18visit_receiver_mutNtNtCsjTXeTLYUiB9_18tracing_attributes6expand15ImplTraitEraserEB10_, symObjAddr: 0x4EF0, symBinAddr: 0x5AC0, symSize: 0x100 }
  - { offset: 0x3C4E, size: 0x8, addend: 0x0, symName: __RINvNtNtCsdGrGZaRBwMb_3syn3gen9visit_mut18visit_receiver_mutNtNtCsjTXeTLYUiB9_18tracing_attributes6expand20IdentAndTypesRenamerEB10_, symObjAddr: 0x4FF0, symBinAddr: 0x5BC0, symSize: 0x100 }
  - { offset: 0x3CBC, size: 0x8, addend: 0x0, symName: __RINvNtNtCsdGrGZaRBwMb_3syn3gen9visit_mut18visit_type_ptr_mutNtNtCsjTXeTLYUiB9_18tracing_attributes6expand15ImplTraitEraserEB10_, symObjAddr: 0x50F0, symBinAddr: 0x5CC0, symSize: 0x80 }
  - { offset: 0x3CFE, size: 0x8, addend: 0x0, symName: __RINvNtNtCsdGrGZaRBwMb_3syn3gen9visit_mut18visit_use_glob_mutNtNtCsjTXeTLYUiB9_18tracing_attributes6expand15ImplTraitEraserEB10_, symObjAddr: 0x5170, symBinAddr: 0x5D40, symSize: 0x20 }
  - { offset: 0x3D40, size: 0x8, addend: 0x0, symName: __RINvNtNtCsdGrGZaRBwMb_3syn3gen9visit_mut18visit_use_glob_mutNtNtCsjTXeTLYUiB9_18tracing_attributes6expand20IdentAndTypesRenamerEB10_, symObjAddr: 0x5190, symBinAddr: 0x5D60, symSize: 0x20 }
  - { offset: 0x3D82, size: 0x8, addend: 0x0, symName: __RINvNtNtCsdGrGZaRBwMb_3syn3gen9visit_mut18visit_use_name_mutNtNtCsjTXeTLYUiB9_18tracing_attributes6expand15ImplTraitEraserEB10_, symObjAddr: 0x51B0, symBinAddr: 0x5D80, symSize: 0x30 }
  - { offset: 0x3DC4, size: 0x8, addend: 0x0, symName: __RINvNtNtCsdGrGZaRBwMb_3syn3gen9visit_mut18visit_use_name_mutNtNtCsjTXeTLYUiB9_18tracing_attributes6expand20IdentAndTypesRenamerEB10_, symObjAddr: 0x51E0, symBinAddr: 0x5DB0, symSize: 0x30 }
  - { offset: 0x3E06, size: 0x8, addend: 0x0, symName: __RINvNtNtCsdGrGZaRBwMb_3syn3gen9visit_mut18visit_use_path_mutNtNtCsjTXeTLYUiB9_18tracing_attributes6expand15ImplTraitEraserEB10_, symObjAddr: 0x5210, symBinAddr: 0x5DE0, symSize: 0x90 }
  - { offset: 0x3E48, size: 0x8, addend: 0x0, symName: __RINvNtNtCsdGrGZaRBwMb_3syn3gen9visit_mut18visit_use_path_mutNtNtCsjTXeTLYUiB9_18tracing_attributes6expand20IdentAndTypesRenamerEB10_, symObjAddr: 0x52A0, symBinAddr: 0x5E70, symSize: 0x90 }
  - { offset: 0x3E8A, size: 0x8, addend: 0x0, symName: __RINvNtNtCsdGrGZaRBwMb_3syn3gen9visit_mut18visit_use_tree_mutNtNtCsjTXeTLYUiB9_18tracing_attributes6expand15ImplTraitEraserEB10_, symObjAddr: 0x5330, symBinAddr: 0x5F00, symSize: 0xF0 }
  - { offset: 0x3F5A, size: 0x8, addend: 0x0, symName: __RINvNtNtCsdGrGZaRBwMb_3syn3gen9visit_mut18visit_use_tree_mutNtNtCsjTXeTLYUiB9_18tracing_attributes6expand20IdentAndTypesRenamerEB10_, symObjAddr: 0x5420, symBinAddr: 0x5FF0, symSize: 0xF0 }
  - { offset: 0x402A, size: 0x8, addend: 0x0, symName: __RINvNtNtCsdGrGZaRBwMb_3syn3gen9visit_mut18visit_variadic_mutNtNtCsjTXeTLYUiB9_18tracing_attributes6expand15ImplTraitEraserEB10_, symObjAddr: 0x5510, symBinAddr: 0x60E0, symSize: 0xC0 }
  - { offset: 0x4082, size: 0x8, addend: 0x0, symName: __RINvNtNtCsdGrGZaRBwMb_3syn3gen9visit_mut18visit_variadic_mutNtNtCsjTXeTLYUiB9_18tracing_attributes6expand20IdentAndTypesRenamerEB10_, symObjAddr: 0x55D0, symBinAddr: 0x61A0, symSize: 0xC0 }
  - { offset: 0x40DA, size: 0x8, addend: 0x0, symName: __RINvNtNtCsdGrGZaRBwMb_3syn3gen9visit_mut19visit_attribute_mutNtNtCsjTXeTLYUiB9_18tracing_attributes6expand15ImplTraitEraserEB11_, symObjAddr: 0x5690, symBinAddr: 0x6260, symSize: 0x40 }
  - { offset: 0x411C, size: 0x8, addend: 0x0, symName: __RINvNtNtCsdGrGZaRBwMb_3syn3gen9visit_mut19visit_attribute_mutNtNtCsjTXeTLYUiB9_18tracing_attributes6expand20IdentAndTypesRenamerEB11_, symObjAddr: 0x56D0, symBinAddr: 0x62A0, symSize: 0x40 }
  - { offset: 0x415E, size: 0x8, addend: 0x0, symName: __RINvNtNtCsdGrGZaRBwMb_3syn3gen9visit_mut19visit_expr_call_mutNtNtCsjTXeTLYUiB9_18tracing_attributes6expand15ImplTraitEraserEB11_, symObjAddr: 0x5710, symBinAddr: 0x62E0, symSize: 0x130 }
  - { offset: 0x41F3, size: 0x8, addend: 0x0, symName: __RINvNtNtCsdGrGZaRBwMb_3syn3gen9visit_mut19visit_expr_call_mutNtNtCsjTXeTLYUiB9_18tracing_attributes6expand20IdentAndTypesRenamerEB11_, symObjAddr: 0x5840, symBinAddr: 0x6410, symSize: 0x130 }
  - { offset: 0x4288, size: 0x8, addend: 0x0, symName: __RINvNtNtCsdGrGZaRBwMb_3syn3gen9visit_mut19visit_expr_cast_mutNtNtCsjTXeTLYUiB9_18tracing_attributes6expand15ImplTraitEraserEB11_, symObjAddr: 0x5970, symBinAddr: 0x6540, symSize: 0xE0 }
  - { offset: 0x42CA, size: 0x8, addend: 0x0, symName: __RINvNtNtCsdGrGZaRBwMb_3syn3gen9visit_mut19visit_expr_cast_mutNtNtCsjTXeTLYUiB9_18tracing_attributes6expand20IdentAndTypesRenamerEB11_, symObjAddr: 0x5A50, symBinAddr: 0x6620, symSize: 0xE0 }
  - { offset: 0x430C, size: 0x8, addend: 0x0, symName: __RINvNtNtCsdGrGZaRBwMb_3syn3gen9visit_mut19visit_expr_loop_mutNtNtCsjTXeTLYUiB9_18tracing_attributes6expand15ImplTraitEraserEB11_, symObjAddr: 0x5B30, symBinAddr: 0x6700, symSize: 0x80 }
  - { offset: 0x436C, size: 0x8, addend: 0x0, symName: __RINvNtNtCsdGrGZaRBwMb_3syn3gen9visit_mut19visit_expr_loop_mutNtNtCsjTXeTLYUiB9_18tracing_attributes6expand20IdentAndTypesRenamerEB11_, symObjAddr: 0x5BB0, symBinAddr: 0x6780, symSize: 0x80 }
  - { offset: 0x43CC, size: 0x8, addend: 0x0, symName: __RINvNtNtCsdGrGZaRBwMb_3syn3gen9visit_mut19visit_expr_path_mutNtNtCsjTXeTLYUiB9_18tracing_attributes6expand15ImplTraitEraserEB11_, symObjAddr: 0x5C30, symBinAddr: 0x6800, symSize: 0x80 }
  - { offset: 0x442C, size: 0x8, addend: 0x0, symName: __RINvNtNtCsdGrGZaRBwMb_3syn3gen9visit_mut19visit_expr_path_mutNtNtCsjTXeTLYUiB9_18tracing_attributes6expand20IdentAndTypesRenamerEB11_, symObjAddr: 0x5CB0, symBinAddr: 0x6880, symSize: 0x80 }
  - { offset: 0x448C, size: 0x8, addend: 0x0, symName: __RINvNtNtCsdGrGZaRBwMb_3syn3gen9visit_mut19visit_field_pat_mutNtNtCsjTXeTLYUiB9_18tracing_attributes6expand15ImplTraitEraserEB11_, symObjAddr: 0x5D30, symBinAddr: 0x6900, symSize: 0xA0 }
  - { offset: 0x44CE, size: 0x8, addend: 0x0, symName: __RINvNtNtCsdGrGZaRBwMb_3syn3gen9visit_mut19visit_field_pat_mutNtNtCsjTXeTLYUiB9_18tracing_attributes6expand20IdentAndTypesRenamerEB11_, symObjAddr: 0x5DD0, symBinAddr: 0x69A0, symSize: 0xA0 }
  - { offset: 0x4510, size: 0x8, addend: 0x0, symName: __RINvNtNtCsdGrGZaRBwMb_3syn3gen9visit_mut19visit_impl_item_mutNtNtCsjTXeTLYUiB9_18tracing_attributes6expand15ImplTraitEraserEB11_, symObjAddr: 0x5E70, symBinAddr: 0x6A40, symSize: 0x100 }
  - { offset: 0x45E0, size: 0x8, addend: 0x0, symName: __RINvNtNtCsdGrGZaRBwMb_3syn3gen9visit_mut19visit_impl_item_mutNtNtCsjTXeTLYUiB9_18tracing_attributes6expand20IdentAndTypesRenamerEB11_, symObjAddr: 0x5F70, symBinAddr: 0x6B40, symSize: 0x100 }
  - { offset: 0x46B0, size: 0x8, addend: 0x0, symName: __RINvNtNtCsdGrGZaRBwMb_3syn3gen9visit_mut19visit_item_enum_mutNtNtCsjTXeTLYUiB9_18tracing_attributes6expand15ImplTraitEraserEB11_, symObjAddr: 0x6070, symBinAddr: 0x6C40, symSize: 0x110 }
  - { offset: 0x474D, size: 0x8, addend: 0x0, symName: __RINvNtNtCsdGrGZaRBwMb_3syn3gen9visit_mut19visit_item_enum_mutNtNtCsjTXeTLYUiB9_18tracing_attributes6expand20IdentAndTypesRenamerEB11_, symObjAddr: 0x6180, symBinAddr: 0x6D50, symSize: 0x110 }
  - { offset: 0x47EA, size: 0x8, addend: 0x0, symName: __RINvNtNtCsdGrGZaRBwMb_3syn3gen9visit_mut19visit_item_impl_mutNtNtCsjTXeTLYUiB9_18tracing_attributes6expand15ImplTraitEraserEB11_, symObjAddr: 0x6290, symBinAddr: 0x6E60, symSize: 0x150 }
  - { offset: 0x487E, size: 0x8, addend: 0x0, symName: __RINvNtNtCsdGrGZaRBwMb_3syn3gen9visit_mut19visit_item_impl_mutNtNtCsjTXeTLYUiB9_18tracing_attributes6expand20IdentAndTypesRenamerEB11_, symObjAddr: 0x63E0, symBinAddr: 0x6FB0, symSize: 0x150 }
  - { offset: 0x4912, size: 0x8, addend: 0x0, symName: __RINvNtNtCsdGrGZaRBwMb_3syn3gen9visit_mut19visit_item_type_mutNtNtCsjTXeTLYUiB9_18tracing_attributes6expand15ImplTraitEraserEB11_, symObjAddr: 0x6530, symBinAddr: 0x7100, symSize: 0xC0 }
  - { offset: 0x4954, size: 0x8, addend: 0x0, symName: __RINvNtNtCsdGrGZaRBwMb_3syn3gen9visit_mut19visit_item_type_mutNtNtCsjTXeTLYUiB9_18tracing_attributes6expand20IdentAndTypesRenamerEB11_, symObjAddr: 0x65F0, symBinAddr: 0x71C0, symSize: 0xC0 }
  - { offset: 0x4996, size: 0x8, addend: 0x0, symName: __RINvNtNtCsdGrGZaRBwMb_3syn3gen9visit_mut19visit_lit_float_mutNtNtCsjTXeTLYUiB9_18tracing_attributes6expand15ImplTraitEraserEB11_, symObjAddr: 0x66B0, symBinAddr: 0x7280, symSize: 0x20 }
  - { offset: 0x49D8, size: 0x8, addend: 0x0, symName: __RINvNtNtCsdGrGZaRBwMb_3syn3gen9visit_mut19visit_lit_float_mutNtNtCsjTXeTLYUiB9_18tracing_attributes6expand20IdentAndTypesRenamerEB11_, symObjAddr: 0x66D0, symBinAddr: 0x72A0, symSize: 0x20 }
  - { offset: 0x4A1A, size: 0x8, addend: 0x0, symName: __RINvNtNtCsdGrGZaRBwMb_3syn3gen9visit_mut19visit_meta_list_mutNtNtCsjTXeTLYUiB9_18tracing_attributes6expand15ImplTraitEraserEB11_, symObjAddr: 0x66F0, symBinAddr: 0x72C0, symSize: 0x50 }
  - { offset: 0x4A5C, size: 0x8, addend: 0x0, symName: __RINvNtNtCsdGrGZaRBwMb_3syn3gen9visit_mut19visit_meta_list_mutNtNtCsjTXeTLYUiB9_18tracing_attributes6expand20IdentAndTypesRenamerEB11_, symObjAddr: 0x6740, symBinAddr: 0x7310, symSize: 0x50 }
  - { offset: 0x4A9E, size: 0x8, addend: 0x0, symName: __RINvNtNtCsdGrGZaRBwMb_3syn3gen9visit_mut19visit_pat_ident_mutNtNtCsjTXeTLYUiB9_18tracing_attributes6expand15ImplTraitEraserEB11_, symObjAddr: 0x6790, symBinAddr: 0x7360, symSize: 0xE0 }
  - { offset: 0x4AF6, size: 0x8, addend: 0x0, symName: __RINvNtNtCsdGrGZaRBwMb_3syn3gen9visit_mut19visit_pat_ident_mutNtNtCsjTXeTLYUiB9_18tracing_attributes6expand20IdentAndTypesRenamerEB11_, symObjAddr: 0x6870, symBinAddr: 0x7440, symSize: 0xE0 }
  - { offset: 0x4B4E, size: 0x8, addend: 0x0, symName: __RINvNtNtCsdGrGZaRBwMb_3syn3gen9visit_mut19visit_pat_paren_mutNtNtCsjTXeTLYUiB9_18tracing_attributes6expand15ImplTraitEraserEB11_, symObjAddr: 0x6950, symBinAddr: 0x7520, symSize: 0x90 }
  - { offset: 0x4B90, size: 0x8, addend: 0x0, symName: __RINvNtNtCsdGrGZaRBwMb_3syn3gen9visit_mut19visit_pat_paren_mutNtNtCsjTXeTLYUiB9_18tracing_attributes6expand20IdentAndTypesRenamerEB11_, symObjAddr: 0x69E0, symBinAddr: 0x75B0, symSize: 0x90 }
  - { offset: 0x4BD2, size: 0x8, addend: 0x0, symName: __RINvNtNtCsdGrGZaRBwMb_3syn3gen9visit_mut19visit_pat_slice_mutNtNtCsjTXeTLYUiB9_18tracing_attributes6expand15ImplTraitEraserEB11_, symObjAddr: 0x6A70, symBinAddr: 0x7640, symSize: 0xD0 }
  - { offset: 0x4C6F, size: 0x8, addend: 0x0, symName: __RINvNtNtCsdGrGZaRBwMb_3syn3gen9visit_mut19visit_pat_slice_mutNtNtCsjTXeTLYUiB9_18tracing_attributes6expand20IdentAndTypesRenamerEB11_, symObjAddr: 0x6B40, symBinAddr: 0x7710, symSize: 0xD0 }
  - { offset: 0x4D0C, size: 0x8, addend: 0x0, symName: __RINvNtNtCsdGrGZaRBwMb_3syn3gen9visit_mut19visit_pat_tuple_mutNtNtCsjTXeTLYUiB9_18tracing_attributes6expand15ImplTraitEraserEB11_, symObjAddr: 0x6C10, symBinAddr: 0x77E0, symSize: 0xD0 }
  - { offset: 0x4DA9, size: 0x8, addend: 0x0, symName: __RINvNtNtCsdGrGZaRBwMb_3syn3gen9visit_mut19visit_pat_tuple_mutNtNtCsjTXeTLYUiB9_18tracing_attributes6expand20IdentAndTypesRenamerEB11_, symObjAddr: 0x6CE0, symBinAddr: 0x78B0, symSize: 0xD0 }
  - { offset: 0x4E46, size: 0x8, addend: 0x0, symName: __RINvNtNtCsdGrGZaRBwMb_3syn3gen9visit_mut19visit_signature_mutNtNtCsjTXeTLYUiB9_18tracing_attributes6expand15ImplTraitEraserEB11_, symObjAddr: 0x6DB0, symBinAddr: 0x7980, symSize: 0x1A0 }
  - { offset: 0x4F1F, size: 0x8, addend: 0x0, symName: __RINvNtNtCsdGrGZaRBwMb_3syn3gen9visit_mut19visit_signature_mutNtNtCsjTXeTLYUiB9_18tracing_attributes6expand20IdentAndTypesRenamerEB11_, symObjAddr: 0x6F50, symBinAddr: 0x7B20, symSize: 0x1A0 }
  - { offset: 0x4FF8, size: 0x8, addend: 0x0, symName: __RINvNtNtCsdGrGZaRBwMb_3syn3gen9visit_mut19visit_type_path_mutNtNtCsjTXeTLYUiB9_18tracing_attributes6expand15ImplTraitEraserEB11_, symObjAddr: 0x70F0, symBinAddr: 0x7CC0, symSize: 0x70 }
  - { offset: 0x5058, size: 0x8, addend: 0x0, symName: __RINvNtNtCsdGrGZaRBwMb_3syn3gen9visit_mut19visit_use_group_mutNtNtCsjTXeTLYUiB9_18tracing_attributes6expand15ImplTraitEraserEB11_, symObjAddr: 0x7160, symBinAddr: 0x7D30, symSize: 0xB0 }
  - { offset: 0x50F5, size: 0x8, addend: 0x0, symName: __RINvNtNtCsdGrGZaRBwMb_3syn3gen9visit_mut19visit_use_group_mutNtNtCsjTXeTLYUiB9_18tracing_attributes6expand20IdentAndTypesRenamerEB11_, symObjAddr: 0x7210, symBinAddr: 0x7DE0, symSize: 0xB0 }
  - { offset: 0x5192, size: 0x8, addend: 0x0, symName: __RINvNtNtCsdGrGZaRBwMb_3syn3gen9visit_mut20visit_assoc_type_mutNtNtCsjTXeTLYUiB9_18tracing_attributes6expand15ImplTraitEraserEB12_, symObjAddr: 0x72C0, symBinAddr: 0x7E90, symSize: 0x90 }
  - { offset: 0x51F2, size: 0x8, addend: 0x0, symName: __RINvNtNtCsdGrGZaRBwMb_3syn3gen9visit_mut20visit_assoc_type_mutNtNtCsjTXeTLYUiB9_18tracing_attributes6expand20IdentAndTypesRenamerEB12_, symObjAddr: 0x7350, symBinAddr: 0x7F20, symSize: 0x90 }
  - { offset: 0x5252, size: 0x8, addend: 0x0, symName: __RINvNtNtCsdGrGZaRBwMb_3syn3gen9visit_mut20visit_attr_style_mutNtNtCsjTXeTLYUiB9_18tracing_attributes6expand15ImplTraitEraserEB12_, symObjAddr: 0x73E0, symBinAddr: 0x7FB0, symSize: 0x40 }
  - { offset: 0x5294, size: 0x8, addend: 0x0, symName: __RINvNtNtCsdGrGZaRBwMb_3syn3gen9visit_mut20visit_attr_style_mutNtNtCsjTXeTLYUiB9_18tracing_attributes6expand20IdentAndTypesRenamerEB12_, symObjAddr: 0x7420, symBinAddr: 0x7FF0, symSize: 0x40 }
  - { offset: 0x52D6, size: 0x8, addend: 0x0, symName: __RINvNtNtCsdGrGZaRBwMb_3syn3gen9visit_mut20visit_constraint_mutNtNtCsjTXeTLYUiB9_18tracing_attributes6expand15ImplTraitEraserEB12_, symObjAddr: 0x7460, symBinAddr: 0x8030, symSize: 0x120 }
  - { offset: 0x5391, size: 0x8, addend: 0x0, symName: __RINvNtNtCsdGrGZaRBwMb_3syn3gen9visit_mut20visit_constraint_mutNtNtCsjTXeTLYUiB9_18tracing_attributes6expand20IdentAndTypesRenamerEB12_, symObjAddr: 0x7580, symBinAddr: 0x8150, symSize: 0x120 }
  - { offset: 0x544C, size: 0x8, addend: 0x0, symName: __RINvNtNtCsdGrGZaRBwMb_3syn3gen9visit_mut20visit_expr_array_mutNtNtCsjTXeTLYUiB9_18tracing_attributes6expand15ImplTraitEraserEB12_, symObjAddr: 0x76A0, symBinAddr: 0x8270, symSize: 0xD0 }
  - { offset: 0x54E9, size: 0x8, addend: 0x0, symName: __RINvNtNtCsdGrGZaRBwMb_3syn3gen9visit_mut20visit_expr_array_mutNtNtCsjTXeTLYUiB9_18tracing_attributes6expand20IdentAndTypesRenamerEB12_, symObjAddr: 0x7770, symBinAddr: 0x8340, symSize: 0xD0 }
  - { offset: 0x5586, size: 0x8, addend: 0x0, symName: __RINvNtNtCsdGrGZaRBwMb_3syn3gen9visit_mut20visit_expr_async_mutNtNtCsjTXeTLYUiB9_18tracing_attributes6expand15ImplTraitEraserEB12_, symObjAddr: 0x7840, symBinAddr: 0x8410, symSize: 0x40 }
  - { offset: 0x55C8, size: 0x8, addend: 0x0, symName: __RINvNtNtCsdGrGZaRBwMb_3syn3gen9visit_mut20visit_expr_async_mutNtNtCsjTXeTLYUiB9_18tracing_attributes6expand20IdentAndTypesRenamerEB12_, symObjAddr: 0x7880, symBinAddr: 0x8450, symSize: 0x40 }
  - { offset: 0x560A, size: 0x8, addend: 0x0, symName: __RINvNtNtCsdGrGZaRBwMb_3syn3gen9visit_mut20visit_expr_await_mutNtNtCsjTXeTLYUiB9_18tracing_attributes6expand15ImplTraitEraserEB12_, symObjAddr: 0x78C0, symBinAddr: 0x8490, symSize: 0x90 }
  - { offset: 0x564C, size: 0x8, addend: 0x0, symName: __RINvNtNtCsdGrGZaRBwMb_3syn3gen9visit_mut20visit_expr_await_mutNtNtCsjTXeTLYUiB9_18tracing_attributes6expand20IdentAndTypesRenamerEB12_, symObjAddr: 0x7950, symBinAddr: 0x8520, symSize: 0x90 }
  - { offset: 0x568E, size: 0x8, addend: 0x0, symName: __RINvNtNtCsdGrGZaRBwMb_3syn3gen9visit_mut20visit_expr_block_mutNtNtCsjTXeTLYUiB9_18tracing_attributes6expand15ImplTraitEraserEB12_, symObjAddr: 0x79E0, symBinAddr: 0x85B0, symSize: 0x80 }
  - { offset: 0x56EE, size: 0x8, addend: 0x0, symName: __RINvNtNtCsdGrGZaRBwMb_3syn3gen9visit_mut20visit_expr_block_mutNtNtCsjTXeTLYUiB9_18tracing_attributes6expand20IdentAndTypesRenamerEB12_, symObjAddr: 0x7A60, symBinAddr: 0x8630, symSize: 0x80 }
  - { offset: 0x574E, size: 0x8, addend: 0x0, symName: __RINvNtNtCsdGrGZaRBwMb_3syn3gen9visit_mut20visit_expr_break_mutNtNtCsjTXeTLYUiB9_18tracing_attributes6expand15ImplTraitEraserEB12_, symObjAddr: 0x7AE0, symBinAddr: 0x86B0, symSize: 0x100 }
  - { offset: 0x57C4, size: 0x8, addend: 0x0, symName: __RINvNtNtCsdGrGZaRBwMb_3syn3gen9visit_mut20visit_expr_break_mutNtNtCsjTXeTLYUiB9_18tracing_attributes6expand20IdentAndTypesRenamerEB12_, symObjAddr: 0x7BE0, symBinAddr: 0x87B0, symSize: 0x100 }
  - { offset: 0x583A, size: 0x8, addend: 0x0, symName: __RINvNtNtCsdGrGZaRBwMb_3syn3gen9visit_mut20visit_expr_const_mutNtNtCsjTXeTLYUiB9_18tracing_attributes6expand15ImplTraitEraserEB12_, symObjAddr: 0x7CE0, symBinAddr: 0x88B0, symSize: 0x40 }
  - { offset: 0x587C, size: 0x8, addend: 0x0, symName: __RINvNtNtCsdGrGZaRBwMb_3syn3gen9visit_mut20visit_expr_const_mutNtNtCsjTXeTLYUiB9_18tracing_attributes6expand20IdentAndTypesRenamerEB12_, symObjAddr: 0x7D20, symBinAddr: 0x88F0, symSize: 0x40 }
  - { offset: 0x58BE, size: 0x8, addend: 0x0, symName: __RINvNtNtCsdGrGZaRBwMb_3syn3gen9visit_mut20visit_expr_field_mutNtNtCsjTXeTLYUiB9_18tracing_attributes6expand15ImplTraitEraserEB12_, symObjAddr: 0x7D60, symBinAddr: 0x8930, symSize: 0xA0 }
  - { offset: 0x5900, size: 0x8, addend: 0x0, symName: __RINvNtNtCsdGrGZaRBwMb_3syn3gen9visit_mut20visit_expr_field_mutNtNtCsjTXeTLYUiB9_18tracing_attributes6expand20IdentAndTypesRenamerEB12_, symObjAddr: 0x7E00, symBinAddr: 0x89D0, symSize: 0xA0 }
  - { offset: 0x5942, size: 0x8, addend: 0x0, symName: __RINvNtNtCsdGrGZaRBwMb_3syn3gen9visit_mut20visit_expr_group_mutNtNtCsjTXeTLYUiB9_18tracing_attributes6expand15ImplTraitEraserEB12_, symObjAddr: 0x7EA0, symBinAddr: 0x8A70, symSize: 0x90 }
  - { offset: 0x5984, size: 0x8, addend: 0x0, symName: __RINvNtNtCsdGrGZaRBwMb_3syn3gen9visit_mut20visit_expr_group_mutNtNtCsjTXeTLYUiB9_18tracing_attributes6expand20IdentAndTypesRenamerEB12_, symObjAddr: 0x7F30, symBinAddr: 0x8B00, symSize: 0x90 }
  - { offset: 0x59C6, size: 0x8, addend: 0x0, symName: __RINvNtNtCsdGrGZaRBwMb_3syn3gen9visit_mut20visit_expr_index_mutNtNtCsjTXeTLYUiB9_18tracing_attributes6expand15ImplTraitEraserEB12_, symObjAddr: 0x7FC0, symBinAddr: 0x8B90, symSize: 0xE0 }
  - { offset: 0x5A08, size: 0x8, addend: 0x0, symName: __RINvNtNtCsdGrGZaRBwMb_3syn3gen9visit_mut20visit_expr_index_mutNtNtCsjTXeTLYUiB9_18tracing_attributes6expand20IdentAndTypesRenamerEB12_, symObjAddr: 0x80A0, symBinAddr: 0x8C70, symSize: 0xE0 }
  - { offset: 0x5A4A, size: 0x8, addend: 0x0, symName: __RINvNtNtCsdGrGZaRBwMb_3syn3gen9visit_mut20visit_expr_infer_mutNtNtCsjTXeTLYUiB9_18tracing_attributes6expand15ImplTraitEraserEB12_, symObjAddr: 0x8180, symBinAddr: 0x8D50, symSize: 0x30 }
  - { offset: 0x5A8C, size: 0x8, addend: 0x0, symName: __RINvNtNtCsdGrGZaRBwMb_3syn3gen9visit_mut20visit_expr_infer_mutNtNtCsjTXeTLYUiB9_18tracing_attributes6expand20IdentAndTypesRenamerEB12_, symObjAddr: 0x81B0, symBinAddr: 0x8D80, symSize: 0x30 }
  - { offset: 0x5ACE, size: 0x8, addend: 0x0, symName: __RINvNtNtCsdGrGZaRBwMb_3syn3gen9visit_mut20visit_expr_macro_mutNtNtCsjTXeTLYUiB9_18tracing_attributes6expand15ImplTraitEraserEB12_, symObjAddr: 0x81E0, symBinAddr: 0x8DB0, symSize: 0x40 }
  - { offset: 0x5B10, size: 0x8, addend: 0x0, symName: __RINvNtNtCsdGrGZaRBwMb_3syn3gen9visit_mut20visit_expr_macro_mutNtNtCsjTXeTLYUiB9_18tracing_attributes6expand20IdentAndTypesRenamerEB12_, symObjAddr: 0x8220, symBinAddr: 0x8DF0, symSize: 0x40 }
  - { offset: 0x5B52, size: 0x8, addend: 0x0, symName: __RINvNtNtCsdGrGZaRBwMb_3syn3gen9visit_mut20visit_expr_match_mutNtNtCsjTXeTLYUiB9_18tracing_attributes6expand15ImplTraitEraserEB12_, symObjAddr: 0x8260, symBinAddr: 0x8E30, symSize: 0xE0 }
  - { offset: 0x5BC8, size: 0x8, addend: 0x0, symName: __RINvNtNtCsdGrGZaRBwMb_3syn3gen9visit_mut20visit_expr_match_mutNtNtCsjTXeTLYUiB9_18tracing_attributes6expand20IdentAndTypesRenamerEB12_, symObjAddr: 0x8340, symBinAddr: 0x8F10, symSize: 0xE0 }
  - { offset: 0x5C3E, size: 0x8, addend: 0x0, symName: __RINvNtNtCsdGrGZaRBwMb_3syn3gen9visit_mut20visit_expr_paren_mutNtNtCsjTXeTLYUiB9_18tracing_attributes6expand15ImplTraitEraserEB12_, symObjAddr: 0x8420, symBinAddr: 0x8FF0, symSize: 0x90 }
  - { offset: 0x5C80, size: 0x8, addend: 0x0, symName: __RINvNtNtCsdGrGZaRBwMb_3syn3gen9visit_mut20visit_expr_paren_mutNtNtCsjTXeTLYUiB9_18tracing_attributes6expand20IdentAndTypesRenamerEB12_, symObjAddr: 0x84B0, symBinAddr: 0x9080, symSize: 0x90 }
  - { offset: 0x5CC2, size: 0x8, addend: 0x0, symName: __RINvNtNtCsdGrGZaRBwMb_3syn3gen9visit_mut20visit_expr_range_mutNtNtCsjTXeTLYUiB9_18tracing_attributes6expand15ImplTraitEraserEB12_, symObjAddr: 0x8540, symBinAddr: 0x9110, symSize: 0x170 }
  - { offset: 0x5D30, size: 0x8, addend: 0x0, symName: __RINvNtNtCsdGrGZaRBwMb_3syn3gen9visit_mut20visit_expr_range_mutNtNtCsjTXeTLYUiB9_18tracing_attributes6expand20IdentAndTypesRenamerEB12_, symObjAddr: 0x86B0, symBinAddr: 0x9280, symSize: 0x170 }
  - { offset: 0x5D9E, size: 0x8, addend: 0x0, symName: __RINvNtNtCsdGrGZaRBwMb_3syn3gen9visit_mut20visit_expr_tuple_mutNtNtCsjTXeTLYUiB9_18tracing_attributes6expand15ImplTraitEraserEB12_, symObjAddr: 0x8820, symBinAddr: 0x93F0, symSize: 0xD0 }
  - { offset: 0x5E3B, size: 0x8, addend: 0x0, symName: __RINvNtNtCsdGrGZaRBwMb_3syn3gen9visit_mut20visit_expr_tuple_mutNtNtCsjTXeTLYUiB9_18tracing_attributes6expand20IdentAndTypesRenamerEB12_, symObjAddr: 0x88F0, symBinAddr: 0x94C0, symSize: 0xD0 }
  - { offset: 0x5ED8, size: 0x8, addend: 0x0, symName: __RINvNtNtCsdGrGZaRBwMb_3syn3gen9visit_mut20visit_expr_unary_mutNtNtCsjTXeTLYUiB9_18tracing_attributes6expand15ImplTraitEraserEB12_, symObjAddr: 0x89C0, symBinAddr: 0x9590, symSize: 0xA0 }
  - { offset: 0x5F1A, size: 0x8, addend: 0x0, symName: __RINvNtNtCsdGrGZaRBwMb_3syn3gen9visit_mut20visit_expr_unary_mutNtNtCsjTXeTLYUiB9_18tracing_attributes6expand20IdentAndTypesRenamerEB12_, symObjAddr: 0x8A60, symBinAddr: 0x9630, symSize: 0xA0 }
  - { offset: 0x5F5C, size: 0x8, addend: 0x0, symName: __RINvNtNtCsdGrGZaRBwMb_3syn3gen9visit_mut20visit_expr_while_mutNtNtCsjTXeTLYUiB9_18tracing_attributes6expand15ImplTraitEraserEB12_, symObjAddr: 0x8B00, symBinAddr: 0x96D0, symSize: 0xE0 }
  - { offset: 0x5FBC, size: 0x8, addend: 0x0, symName: __RINvNtNtCsdGrGZaRBwMb_3syn3gen9visit_mut20visit_expr_while_mutNtNtCsjTXeTLYUiB9_18tracing_attributes6expand20IdentAndTypesRenamerEB12_, symObjAddr: 0x8BE0, symBinAddr: 0x97B0, symSize: 0xE0 }
  - { offset: 0x601C, size: 0x8, addend: 0x0, symName: __RINvNtNtCsdGrGZaRBwMb_3syn3gen9visit_mut20visit_expr_yield_mutNtNtCsjTXeTLYUiB9_18tracing_attributes6expand15ImplTraitEraserEB12_, symObjAddr: 0x8CC0, symBinAddr: 0x9890, symSize: 0xC0 }
  - { offset: 0x6074, size: 0x8, addend: 0x0, symName: __RINvNtNtCsdGrGZaRBwMb_3syn3gen9visit_mut20visit_expr_yield_mutNtNtCsjTXeTLYUiB9_18tracing_attributes6expand20IdentAndTypesRenamerEB12_, symObjAddr: 0x8D80, symBinAddr: 0x9950, symSize: 0xC0 }
  - { offset: 0x60CC, size: 0x8, addend: 0x0, symName: __RINvNtNtCsdGrGZaRBwMb_3syn3gen9visit_mut20visit_item_const_mutNtNtCsjTXeTLYUiB9_18tracing_attributes6expand15ImplTraitEraserEB12_, symObjAddr: 0x8E40, symBinAddr: 0x9A10, symSize: 0x120 }
  - { offset: 0x610E, size: 0x8, addend: 0x0, symName: __RINvNtNtCsdGrGZaRBwMb_3syn3gen9visit_mut20visit_item_const_mutNtNtCsjTXeTLYUiB9_18tracing_attributes6expand20IdentAndTypesRenamerEB12_, symObjAddr: 0x8F60, symBinAddr: 0x9B30, symSize: 0x120 }
  - { offset: 0x6150, size: 0x8, addend: 0x0, symName: __RINvNtNtCsdGrGZaRBwMb_3syn3gen9visit_mut20visit_item_macro_mutNtNtCsjTXeTLYUiB9_18tracing_attributes6expand15ImplTraitEraserEB12_, symObjAddr: 0x9080, symBinAddr: 0x9C50, symSize: 0x90 }
  - { offset: 0x61B0, size: 0x8, addend: 0x0, symName: __RINvNtNtCsdGrGZaRBwMb_3syn3gen9visit_mut20visit_item_macro_mutNtNtCsjTXeTLYUiB9_18tracing_attributes6expand20IdentAndTypesRenamerEB12_, symObjAddr: 0x9110, symBinAddr: 0x9CE0, symSize: 0x90 }
  - { offset: 0x6210, size: 0x8, addend: 0x0, symName: __RINvNtNtCsdGrGZaRBwMb_3syn3gen9visit_mut20visit_item_trait_mutNtNtCsjTXeTLYUiB9_18tracing_attributes6expand15ImplTraitEraserEB12_, symObjAddr: 0x91A0, symBinAddr: 0x9D70, symSize: 0x180 }
  - { offset: 0x62EA, size: 0x8, addend: 0x0, symName: __RINvNtNtCsdGrGZaRBwMb_3syn3gen9visit_mut20visit_item_trait_mutNtNtCsjTXeTLYUiB9_18tracing_attributes6expand20IdentAndTypesRenamerEB12_, symObjAddr: 0x9320, symBinAddr: 0x9EF0, symSize: 0x180 }
  - { offset: 0x63C4, size: 0x8, addend: 0x0, symName: __RINvNtNtCsdGrGZaRBwMb_3syn3gen9visit_mut20visit_item_union_mutNtNtCsjTXeTLYUiB9_18tracing_attributes6expand15ImplTraitEraserEB12_, symObjAddr: 0x94A0, symBinAddr: 0xA070, symSize: 0x80 }
  - { offset: 0x6406, size: 0x8, addend: 0x0, symName: __RINvNtNtCsdGrGZaRBwMb_3syn3gen9visit_mut20visit_item_union_mutNtNtCsjTXeTLYUiB9_18tracing_attributes6expand20IdentAndTypesRenamerEB12_, symObjAddr: 0x9520, symBinAddr: 0xA0F0, symSize: 0x80 }
  - { offset: 0x6448, size: 0x8, addend: 0x0, symName: __RINvNtNtCsdGrGZaRBwMb_3syn3gen9visit_mut20visit_local_init_mutNtNtCsjTXeTLYUiB9_18tracing_attributes6expand15ImplTraitEraserEB12_, symObjAddr: 0x95A0, symBinAddr: 0xA170, symSize: 0x120 }
  - { offset: 0x64A0, size: 0x8, addend: 0x0, symName: __RINvNtNtCsdGrGZaRBwMb_3syn3gen9visit_mut20visit_local_init_mutNtNtCsjTXeTLYUiB9_18tracing_attributes6expand20IdentAndTypesRenamerEB12_, symObjAddr: 0x96C0, symBinAddr: 0xA290, symSize: 0x120 }
  - { offset: 0x64F8, size: 0x8, addend: 0x0, symName: __RINvNtNtCsdGrGZaRBwMb_3syn3gen9visit_mut20visit_pat_struct_mutNtNtCsjTXeTLYUiB9_18tracing_attributes6expand15ImplTraitEraserEB12_, symObjAddr: 0x97E0, symBinAddr: 0xA3B0, symSize: 0x190 }
  - { offset: 0x65D1, size: 0x8, addend: 0x0, symName: __RINvNtNtCsdGrGZaRBwMb_3syn3gen9visit_mut20visit_pat_struct_mutNtNtCsjTXeTLYUiB9_18tracing_attributes6expand20IdentAndTypesRenamerEB12_, symObjAddr: 0x9970, symBinAddr: 0xA540, symSize: 0x190 }
  - { offset: 0x66AA, size: 0x8, addend: 0x0, symName: __RINvNtNtCsdGrGZaRBwMb_3syn3gen9visit_mut20visit_stmt_macro_mutNtNtCsjTXeTLYUiB9_18tracing_attributes6expand15ImplTraitEraserEB12_, symObjAddr: 0x9B00, symBinAddr: 0xA6D0, symSize: 0x40 }
  - { offset: 0x66EC, size: 0x8, addend: 0x0, symName: __RINvNtNtCsdGrGZaRBwMb_3syn3gen9visit_mut20visit_stmt_macro_mutNtNtCsjTXeTLYUiB9_18tracing_attributes6expand20IdentAndTypesRenamerEB12_, symObjAddr: 0x9B40, symBinAddr: 0xA710, symSize: 0x40 }
  - { offset: 0x672E, size: 0x8, addend: 0x0, symName: __RINvNtNtCsdGrGZaRBwMb_3syn3gen9visit_mut20visit_trait_item_mutNtNtCsjTXeTLYUiB9_18tracing_attributes6expand15ImplTraitEraserEB12_, symObjAddr: 0x9B80, symBinAddr: 0xA750, symSize: 0x100 }
  - { offset: 0x67FE, size: 0x8, addend: 0x0, symName: __RINvNtNtCsdGrGZaRBwMb_3syn3gen9visit_mut20visit_trait_item_mutNtNtCsjTXeTLYUiB9_18tracing_attributes6expand20IdentAndTypesRenamerEB12_, symObjAddr: 0x9C80, symBinAddr: 0xA850, symSize: 0x100 }
  - { offset: 0x68CE, size: 0x8, addend: 0x0, symName: __RINvNtNtCsdGrGZaRBwMb_3syn3gen9visit_mut20visit_type_array_mutNtNtCsjTXeTLYUiB9_18tracing_attributes6expand15ImplTraitEraserEB12_, symObjAddr: 0x9D80, symBinAddr: 0xA950, symSize: 0x90 }
  - { offset: 0x6910, size: 0x8, addend: 0x0, symName: __RINvNtNtCsdGrGZaRBwMb_3syn3gen9visit_mut20visit_type_group_mutNtNtCsjTXeTLYUiB9_18tracing_attributes6expand15ImplTraitEraserEB12_, symObjAddr: 0x9E10, symBinAddr: 0xA9E0, symSize: 0x80 }
  - { offset: 0x6952, size: 0x8, addend: 0x0, symName: __RINvNtNtCsdGrGZaRBwMb_3syn3gen9visit_mut20visit_type_infer_mutNtNtCsjTXeTLYUiB9_18tracing_attributes6expand15ImplTraitEraserEB12_, symObjAddr: 0x9E90, symBinAddr: 0xAA60, symSize: 0x20 }
  - { offset: 0x6994, size: 0x8, addend: 0x0, symName: __RINvNtNtCsdGrGZaRBwMb_3syn3gen9visit_mut20visit_type_macro_mutNtNtCsjTXeTLYUiB9_18tracing_attributes6expand15ImplTraitEraserEB12_, symObjAddr: 0x9EB0, symBinAddr: 0xAA80, symSize: 0x30 }
  - { offset: 0x69D6, size: 0x8, addend: 0x0, symName: __RINvNtNtCsdGrGZaRBwMb_3syn3gen9visit_mut20visit_type_never_mutNtNtCsjTXeTLYUiB9_18tracing_attributes6expand15ImplTraitEraserEB12_, symObjAddr: 0x9EE0, symBinAddr: 0xAAB0, symSize: 0x20 }
  - { offset: 0x6A18, size: 0x8, addend: 0x0, symName: __RINvNtNtCsdGrGZaRBwMb_3syn3gen9visit_mut20visit_type_param_mutNtNtCsjTXeTLYUiB9_18tracing_attributes6expand15ImplTraitEraserEB12_, symObjAddr: 0x9F00, symBinAddr: 0xAAD0, symSize: 0x130 }
  - { offset: 0x6AD3, size: 0x8, addend: 0x0, symName: __RINvNtNtCsdGrGZaRBwMb_3syn3gen9visit_mut20visit_type_param_mutNtNtCsjTXeTLYUiB9_18tracing_attributes6expand20IdentAndTypesRenamerEB12_, symObjAddr: 0xA030, symBinAddr: 0xAC00, symSize: 0x130 }
  - { offset: 0x6B8E, size: 0x8, addend: 0x0, symName: __RINvNtNtCsdGrGZaRBwMb_3syn3gen9visit_mut20visit_type_paren_mutNtNtCsjTXeTLYUiB9_18tracing_attributes6expand15ImplTraitEraserEB12_, symObjAddr: 0xA160, symBinAddr: 0xAD30, symSize: 0x80 }
  - { offset: 0x6BD0, size: 0x8, addend: 0x0, symName: __RINvNtNtCsdGrGZaRBwMb_3syn3gen9visit_mut20visit_type_slice_mutNtNtCsjTXeTLYUiB9_18tracing_attributes6expand15ImplTraitEraserEB12_, symObjAddr: 0xA1E0, symBinAddr: 0xADB0, symSize: 0x80 }
  - { offset: 0x6C12, size: 0x8, addend: 0x0, symName: __RINvNtNtCsdGrGZaRBwMb_3syn3gen9visit_mut20visit_type_tuple_mutNtNtCsjTXeTLYUiB9_18tracing_attributes6expand15ImplTraitEraserEB12_, symObjAddr: 0xA260, symBinAddr: 0xAE30, symSize: 0xB0 }
  - { offset: 0x6CAF, size: 0x8, addend: 0x0, symName: __RINvNtNtCsdGrGZaRBwMb_3syn3gen9visit_mut20visit_use_rename_mutNtNtCsjTXeTLYUiB9_18tracing_attributes6expand15ImplTraitEraserEB12_, symObjAddr: 0xA310, symBinAddr: 0xAEE0, symSize: 0x40 }
  - { offset: 0x6CF1, size: 0x8, addend: 0x0, symName: __RINvNtNtCsdGrGZaRBwMb_3syn3gen9visit_mut20visit_use_rename_mutNtNtCsjTXeTLYUiB9_18tracing_attributes6expand20IdentAndTypesRenamerEB12_, symObjAddr: 0xA350, symBinAddr: 0xAF20, symSize: 0x40 }
  - { offset: 0x6D33, size: 0x8, addend: 0x0, symName: __RINvNtNtCsdGrGZaRBwMb_3syn3gen9visit_mut20visit_visibility_mutNtNtCsjTXeTLYUiB9_18tracing_attributes6expand15ImplTraitEraserEB12_, symObjAddr: 0xA390, symBinAddr: 0xAF60, symSize: 0x90 }
  - { offset: 0x6D93, size: 0x8, addend: 0x0, symName: __RINvNtNtCsdGrGZaRBwMb_3syn3gen9visit_mut20visit_visibility_mutNtNtCsjTXeTLYUiB9_18tracing_attributes6expand20IdentAndTypesRenamerEB12_, symObjAddr: 0xA420, symBinAddr: 0xAFF0, symSize: 0x90 }
  - { offset: 0x6DF3, size: 0x8, addend: 0x0, symName: __RINvNtNtCsdGrGZaRBwMb_3syn3gen9visit_mut21visit_assoc_const_mutNtNtCsjTXeTLYUiB9_18tracing_attributes6expand15ImplTraitEraserEB13_, symObjAddr: 0xA4B0, symBinAddr: 0xB080, symSize: 0x90 }
  - { offset: 0x6E53, size: 0x8, addend: 0x0, symName: __RINvNtNtCsdGrGZaRBwMb_3syn3gen9visit_mut21visit_assoc_const_mutNtNtCsjTXeTLYUiB9_18tracing_attributes6expand20IdentAndTypesRenamerEB13_, symObjAddr: 0xA540, symBinAddr: 0xB110, symSize: 0x90 }
  - { offset: 0x6EB3, size: 0x8, addend: 0x0, symName: __RINvNtNtCsdGrGZaRBwMb_3syn3gen9visit_mut21visit_bare_fn_arg_mutNtNtCsjTXeTLYUiB9_18tracing_attributes6expand15ImplTraitEraserEB13_, symObjAddr: 0xA5D0, symBinAddr: 0xB1A0, symSize: 0x90 }
  - { offset: 0x6F13, size: 0x8, addend: 0x0, symName: __RINvNtNtCsdGrGZaRBwMb_3syn3gen9visit_mut21visit_const_param_mutNtNtCsjTXeTLYUiB9_18tracing_attributes6expand15ImplTraitEraserEB13_, symObjAddr: 0xA660, symBinAddr: 0xB230, symSize: 0xA0 }
  - { offset: 0x6F73, size: 0x8, addend: 0x0, symName: __RINvNtNtCsdGrGZaRBwMb_3syn3gen9visit_mut21visit_const_param_mutNtNtCsjTXeTLYUiB9_18tracing_attributes6expand20IdentAndTypesRenamerEB13_, symObjAddr: 0xA700, symBinAddr: 0xB2D0, symSize: 0xA0 }
  - { offset: 0x6FD3, size: 0x8, addend: 0x0, symName: __RINvNtNtCsdGrGZaRBwMb_3syn3gen9visit_mut21visit_expr_assign_mutNtNtCsjTXeTLYUiB9_18tracing_attributes6expand15ImplTraitEraserEB13_, symObjAddr: 0xA7A0, symBinAddr: 0xB370, symSize: 0xE0 }
  - { offset: 0x7015, size: 0x8, addend: 0x0, symName: __RINvNtNtCsdGrGZaRBwMb_3syn3gen9visit_mut21visit_expr_assign_mutNtNtCsjTXeTLYUiB9_18tracing_attributes6expand20IdentAndTypesRenamerEB13_, symObjAddr: 0xA880, symBinAddr: 0xB450, symSize: 0xE0 }
  - { offset: 0x7057, size: 0x8, addend: 0x0, symName: __RINvNtNtCsdGrGZaRBwMb_3syn3gen9visit_mut21visit_expr_binary_mutNtNtCsjTXeTLYUiB9_18tracing_attributes6expand15ImplTraitEraserEB13_, symObjAddr: 0xA960, symBinAddr: 0xB530, symSize: 0xF0 }
  - { offset: 0x7099, size: 0x8, addend: 0x0, symName: __RINvNtNtCsdGrGZaRBwMb_3syn3gen9visit_mut21visit_expr_binary_mutNtNtCsjTXeTLYUiB9_18tracing_attributes6expand20IdentAndTypesRenamerEB13_, symObjAddr: 0xAA50, symBinAddr: 0xB620, symSize: 0xF0 }
  - { offset: 0x70DB, size: 0x8, addend: 0x0, symName: __RINvNtNtCsdGrGZaRBwMb_3syn3gen9visit_mut21visit_expr_repeat_mutNtNtCsjTXeTLYUiB9_18tracing_attributes6expand15ImplTraitEraserEB13_, symObjAddr: 0xAB40, symBinAddr: 0xB710, symSize: 0xE0 }
  - { offset: 0x711D, size: 0x8, addend: 0x0, symName: __RINvNtNtCsdGrGZaRBwMb_3syn3gen9visit_mut21visit_expr_repeat_mutNtNtCsjTXeTLYUiB9_18tracing_attributes6expand20IdentAndTypesRenamerEB13_, symObjAddr: 0xAC20, symBinAddr: 0xB7F0, symSize: 0xE0 }
  - { offset: 0x715F, size: 0x8, addend: 0x0, symName: __RINvNtNtCsdGrGZaRBwMb_3syn3gen9visit_mut21visit_expr_return_mutNtNtCsjTXeTLYUiB9_18tracing_attributes6expand15ImplTraitEraserEB13_, symObjAddr: 0xAD00, symBinAddr: 0xB8D0, symSize: 0xC0 }
  - { offset: 0x71B7, size: 0x8, addend: 0x0, symName: __RINvNtNtCsdGrGZaRBwMb_3syn3gen9visit_mut21visit_expr_return_mutNtNtCsjTXeTLYUiB9_18tracing_attributes6expand20IdentAndTypesRenamerEB13_, symObjAddr: 0xADC0, symBinAddr: 0xB990, symSize: 0xC0 }
  - { offset: 0x720F, size: 0x8, addend: 0x0, symName: __RINvNtNtCsdGrGZaRBwMb_3syn3gen9visit_mut21visit_expr_struct_mutNtNtCsjTXeTLYUiB9_18tracing_attributes6expand15ImplTraitEraserEB13_, symObjAddr: 0xAE80, symBinAddr: 0xBA50, symSize: 0x1E0 }
  - { offset: 0x72E0, size: 0x8, addend: 0x0, symName: __RINvNtNtCsdGrGZaRBwMb_3syn3gen9visit_mut21visit_expr_struct_mutNtNtCsjTXeTLYUiB9_18tracing_attributes6expand20IdentAndTypesRenamerEB13_, symObjAddr: 0xB060, symBinAddr: 0xBC30, symSize: 0x1E0 }
  - { offset: 0x73B1, size: 0x8, addend: 0x0, symName: __RINvNtNtCsdGrGZaRBwMb_3syn3gen9visit_mut21visit_expr_unsafe_mutNtNtCsjTXeTLYUiB9_18tracing_attributes6expand15ImplTraitEraserEB13_, symObjAddr: 0xB240, symBinAddr: 0xBE10, symSize: 0x40 }
  - { offset: 0x73F3, size: 0x8, addend: 0x0, symName: __RINvNtNtCsdGrGZaRBwMb_3syn3gen9visit_mut21visit_expr_unsafe_mutNtNtCsjTXeTLYUiB9_18tracing_attributes6expand20IdentAndTypesRenamerEB13_, symObjAddr: 0xB280, symBinAddr: 0xBE50, symSize: 0x40 }
  - { offset: 0x7435, size: 0x8, addend: 0x0, symName: __RINvNtNtCsdGrGZaRBwMb_3syn3gen9visit_mut21visit_field_value_mutNtNtCsjTXeTLYUiB9_18tracing_attributes6expand15ImplTraitEraserEB13_, symObjAddr: 0xB2C0, symBinAddr: 0xBE90, symSize: 0x60 }
  - { offset: 0x7477, size: 0x8, addend: 0x0, symName: __RINvNtNtCsdGrGZaRBwMb_3syn3gen9visit_mut21visit_field_value_mutNtNtCsjTXeTLYUiB9_18tracing_attributes6expand20IdentAndTypesRenamerEB13_, symObjAddr: 0xB320, symBinAddr: 0xBEF0, symSize: 0x60 }
  - { offset: 0x74B9, size: 0x8, addend: 0x0, symName: __RINvNtNtCsdGrGZaRBwMb_3syn3gen9visit_mut21visit_item_static_mutNtNtCsjTXeTLYUiB9_18tracing_attributes6expand15ImplTraitEraserEB13_, symObjAddr: 0xB380, symBinAddr: 0xBF50, symSize: 0x120 }
  - { offset: 0x74FB, size: 0x8, addend: 0x0, symName: __RINvNtNtCsdGrGZaRBwMb_3syn3gen9visit_mut21visit_item_static_mutNtNtCsjTXeTLYUiB9_18tracing_attributes6expand20IdentAndTypesRenamerEB13_, symObjAddr: 0xB4A0, symBinAddr: 0xC070, symSize: 0x120 }
  - { offset: 0x753D, size: 0x8, addend: 0x0, symName: __RINvNtNtCsdGrGZaRBwMb_3syn3gen9visit_mut21visit_item_struct_mutNtNtCsjTXeTLYUiB9_18tracing_attributes6expand15ImplTraitEraserEB13_, symObjAddr: 0xB5C0, symBinAddr: 0xC190, symSize: 0x80 }
  - { offset: 0x757F, size: 0x8, addend: 0x0, symName: __RINvNtNtCsdGrGZaRBwMb_3syn3gen9visit_mut21visit_item_struct_mutNtNtCsjTXeTLYUiB9_18tracing_attributes6expand20IdentAndTypesRenamerEB13_, symObjAddr: 0xB640, symBinAddr: 0xC210, symSize: 0x80 }
  - { offset: 0x75C1, size: 0x8, addend: 0x0, symName: __RINvNtNtCsdGrGZaRBwMb_3syn3gen9visit_mut21visit_return_type_mutNtNtCsjTXeTLYUiB9_18tracing_attributes6expand15ImplTraitEraserEB13_, symObjAddr: 0xB6C0, symBinAddr: 0xC290, symSize: 0xC0 }
  - { offset: 0x7629, size: 0x8, addend: 0x0, symName: __RINvNtNtCsdGrGZaRBwMb_3syn3gen9visit_mut21visit_return_type_mutNtNtCsjTXeTLYUiB9_18tracing_attributes6expand20IdentAndTypesRenamerEB13_, symObjAddr: 0xB780, symBinAddr: 0xC350, symSize: 0xC0 }
  - { offset: 0x7691, size: 0x8, addend: 0x0, symName: __RINvNtNtCsdGrGZaRBwMb_3syn3gen9visit_mut21visit_trait_bound_mutNtNtCsjTXeTLYUiB9_18tracing_attributes6expand15ImplTraitEraserEB13_, symObjAddr: 0xB840, symBinAddr: 0xC410, symSize: 0x90 }
  - { offset: 0x76F1, size: 0x8, addend: 0x0, symName: __RINvNtNtCsdGrGZaRBwMb_3syn3gen9visit_mut21visit_trait_bound_mutNtNtCsjTXeTLYUiB9_18tracing_attributes6expand20IdentAndTypesRenamerEB13_, symObjAddr: 0xB8D0, symBinAddr: 0xC4A0, symSize: 0x90 }
  - { offset: 0x7751, size: 0x8, addend: 0x0, symName: __RINvNtNtCsdGrGZaRBwMb_3syn3gen9visit_mut22visit_expr_closure_mutNtNtCsjTXeTLYUiB9_18tracing_attributes6expand15ImplTraitEraserEB14_, symObjAddr: 0xB960, symBinAddr: 0xC530, symSize: 0x1B0 }
  - { offset: 0x780C, size: 0x8, addend: 0x0, symName: __RINvNtNtCsdGrGZaRBwMb_3syn3gen9visit_mut22visit_expr_closure_mutNtNtCsjTXeTLYUiB9_18tracing_attributes6expand20IdentAndTypesRenamerEB14_, symObjAddr: 0xBB10, symBinAddr: 0xC6E0, symSize: 0x1B0 }
  - { offset: 0x78C7, size: 0x8, addend: 0x0, symName: __RINvNtNtCsdGrGZaRBwMb_3syn3gen9visit_mut22visit_fields_named_mutNtNtCsjTXeTLYUiB9_18tracing_attributes6expand15ImplTraitEraserEB14_, symObjAddr: 0xBCC0, symBinAddr: 0xC890, symSize: 0xB0 }
  - { offset: 0x7964, size: 0x8, addend: 0x0, symName: __RINvNtNtCsdGrGZaRBwMb_3syn3gen9visit_mut22visit_fields_named_mutNtNtCsjTXeTLYUiB9_18tracing_attributes6expand20IdentAndTypesRenamerEB14_, symObjAddr: 0xBD70, symBinAddr: 0xC940, symSize: 0xB0 }
  - { offset: 0x7A01, size: 0x8, addend: 0x0, symName: __RINvNtNtCsdGrGZaRBwMb_3syn3gen9visit_mut22visit_foreign_item_mutNtNtCsjTXeTLYUiB9_18tracing_attributes6expand15ImplTraitEraserEB14_, symObjAddr: 0xBE20, symBinAddr: 0xC9F0, symSize: 0x100 }
  - { offset: 0x7AD1, size: 0x8, addend: 0x0, symName: __RINvNtNtCsdGrGZaRBwMb_3syn3gen9visit_mut22visit_foreign_item_mutNtNtCsjTXeTLYUiB9_18tracing_attributes6expand20IdentAndTypesRenamerEB14_, symObjAddr: 0xBF20, symBinAddr: 0xCAF0, symSize: 0x100 }
  - { offset: 0x7BA1, size: 0x8, addend: 0x0, symName: __RINvNtNtCsdGrGZaRBwMb_3syn3gen9visit_mut22visit_impl_item_fn_mutNtNtCsjTXeTLYUiB9_18tracing_attributes6expand15ImplTraitEraserEB14_, symObjAddr: 0xC020, symBinAddr: 0xCBF0, symSize: 0x70 }
  - { offset: 0x7BE3, size: 0x8, addend: 0x0, symName: __RINvNtNtCsdGrGZaRBwMb_3syn3gen9visit_mut22visit_impl_item_fn_mutNtNtCsjTXeTLYUiB9_18tracing_attributes6expand20IdentAndTypesRenamerEB14_, symObjAddr: 0xC090, symBinAddr: 0xCC60, symSize: 0x70 }
  - { offset: 0x7C25, size: 0x8, addend: 0x0, symName: __RINvNtNtCsdGrGZaRBwMb_3syn3gen9visit_mut22visit_lit_byte_str_mutNtNtCsjTXeTLYUiB9_18tracing_attributes6expand15ImplTraitEraserEB14_, symObjAddr: 0xC100, symBinAddr: 0xCCD0, symSize: 0x20 }
  - { offset: 0x7C67, size: 0x8, addend: 0x0, symName: __RINvNtNtCsdGrGZaRBwMb_3syn3gen9visit_mut22visit_lit_byte_str_mutNtNtCsjTXeTLYUiB9_18tracing_attributes6expand20IdentAndTypesRenamerEB14_, symObjAddr: 0xC120, symBinAddr: 0xCCF0, symSize: 0x20 }
  - { offset: 0x7CA9, size: 0x8, addend: 0x0, symName: __RINvNtNtCsdGrGZaRBwMb_3syn3gen9visit_mut22visit_path_segment_mutNtNtCsjTXeTLYUiB9_18tracing_attributes6expand15ImplTraitEraserEB14_, symObjAddr: 0xC140, symBinAddr: 0xCD10, symSize: 0x40 }
  - { offset: 0x7CEB, size: 0x8, addend: 0x0, symName: __RINvNtNtCsdGrGZaRBwMb_3syn3gen9visit_mut22visit_path_segment_mutNtNtCsjTXeTLYUiB9_18tracing_attributes6expand20IdentAndTypesRenamerEB14_, symObjAddr: 0xC180, symBinAddr: 0xCD50, symSize: 0x40 }
  - { offset: 0x7D2D, size: 0x8, addend: 0x0, symName: __RINvNtNtCsdGrGZaRBwMb_3syn3gen9visit_mut22visit_range_limits_mutNtNtCsjTXeTLYUiB9_18tracing_attributes6expand15ImplTraitEraserEB14_, symObjAddr: 0xC1C0, symBinAddr: 0xCD90, symSize: 0x50 }
  - { offset: 0x7D6F, size: 0x8, addend: 0x0, symName: __RINvNtNtCsdGrGZaRBwMb_3syn3gen9visit_mut22visit_range_limits_mutNtNtCsjTXeTLYUiB9_18tracing_attributes6expand20IdentAndTypesRenamerEB14_, symObjAddr: 0xC210, symBinAddr: 0xCDE0, symSize: 0x50 }
  - { offset: 0x7DB1, size: 0x8, addend: 0x0, symName: __RINvNtNtCsdGrGZaRBwMb_3syn3gen9visit_mut22visit_type_bare_fn_mutNtNtCsjTXeTLYUiB9_18tracing_attributes6expand15ImplTraitEraserEB14_, symObjAddr: 0xC260, symBinAddr: 0xCE30, symSize: 0x1C0 }
  - { offset: 0x7EA8, size: 0x8, addend: 0x0, symName: __RINvNtNtCsdGrGZaRBwMb_3syn3gen9visit_mut22visit_where_clause_mutNtNtCsjTXeTLYUiB9_18tracing_attributes6expand15ImplTraitEraserEB14_, symObjAddr: 0xC420, symBinAddr: 0xCFF0, symSize: 0xB0 }
  - { offset: 0x7F45, size: 0x8, addend: 0x0, symName: __RINvNtNtCsdGrGZaRBwMb_3syn3gen9visit_mut22visit_where_clause_mutNtNtCsjTXeTLYUiB9_18tracing_attributes6expand20IdentAndTypesRenamerEB14_, symObjAddr: 0xC4D0, symBinAddr: 0xD0A0, symSize: 0xB0 }
  - { offset: 0x7FE2, size: 0x8, addend: 0x0, symName: __RINvNtNtCsdGrGZaRBwMb_3syn3gen9visit_mut23visit_bare_variadic_mutNtNtCsjTXeTLYUiB9_18tracing_attributes6expand15ImplTraitEraserEB15_, symObjAddr: 0xC580, symBinAddr: 0xD150, symSize: 0x70 }
  - { offset: 0x8042, size: 0x8, addend: 0x0, symName: __RINvNtNtCsdGrGZaRBwMb_3syn3gen9visit_mut23visit_expr_continue_mutNtNtCsjTXeTLYUiB9_18tracing_attributes6expand15ImplTraitEraserEB15_, symObjAddr: 0xC5F0, symBinAddr: 0xD1C0, symSize: 0x70 }
  - { offset: 0x80A2, size: 0x8, addend: 0x0, symName: __RINvNtNtCsdGrGZaRBwMb_3syn3gen9visit_mut23visit_expr_continue_mutNtNtCsjTXeTLYUiB9_18tracing_attributes6expand20IdentAndTypesRenamerEB15_, symObjAddr: 0xC660, symBinAddr: 0xD230, symSize: 0x70 }
  - { offset: 0x8102, size: 0x8, addend: 0x0, symName: __RINvNtNtCsdGrGZaRBwMb_3syn3gen9visit_mut23visit_expr_for_loop_mutNtNtCsjTXeTLYUiB9_18tracing_attributes6expand15ImplTraitEraserEB15_, symObjAddr: 0xC6D0, symBinAddr: 0xD2A0, symSize: 0x140 }
  - { offset: 0x8162, size: 0x8, addend: 0x0, symName: __RINvNtNtCsdGrGZaRBwMb_3syn3gen9visit_mut23visit_expr_for_loop_mutNtNtCsjTXeTLYUiB9_18tracing_attributes6expand20IdentAndTypesRenamerEB15_, symObjAddr: 0xC810, symBinAddr: 0xD3E0, symSize: 0x140 }
  - { offset: 0x81C2, size: 0x8, addend: 0x0, symName: __RINvNtNtCsdGrGZaRBwMb_3syn3gen9visit_mut23visit_expr_raw_addr_mutNtNtCsjTXeTLYUiB9_18tracing_attributes6expand15ImplTraitEraserEB15_, symObjAddr: 0xC950, symBinAddr: 0xD520, symSize: 0xA0 }
  - { offset: 0x8204, size: 0x8, addend: 0x0, symName: __RINvNtNtCsdGrGZaRBwMb_3syn3gen9visit_mut23visit_expr_raw_addr_mutNtNtCsjTXeTLYUiB9_18tracing_attributes6expand20IdentAndTypesRenamerEB15_, symObjAddr: 0xC9F0, symBinAddr: 0xD5C0, symSize: 0xA0 }
  - { offset: 0x8246, size: 0x8, addend: 0x0, symName: __RINvNtNtCsdGrGZaRBwMb_3syn3gen9visit_mut23visit_generic_param_mutNtNtCsjTXeTLYUiB9_18tracing_attributes6expand15ImplTraitEraserEB15_, symObjAddr: 0xCA90, symBinAddr: 0xD660, symSize: 0xB0 }
  - { offset: 0x82DA, size: 0x8, addend: 0x0, symName: __RINvNtNtCsdGrGZaRBwMb_3syn3gen9visit_mut23visit_generic_param_mutNtNtCsjTXeTLYUiB9_18tracing_attributes6expand20IdentAndTypesRenamerEB15_, symObjAddr: 0xCB40, symBinAddr: 0xD710, symSize: 0xB0 }
  - { offset: 0x836E, size: 0x8, addend: 0x0, symName: __RINvNtNtCsdGrGZaRBwMb_3syn3gen9visit_mut23visit_pat_reference_mutNtNtCsjTXeTLYUiB9_18tracing_attributes6expand15ImplTraitEraserEB15_, symObjAddr: 0xCBF0, symBinAddr: 0xD7C0, symSize: 0x90 }
  - { offset: 0x83B0, size: 0x8, addend: 0x0, symName: __RINvNtNtCsdGrGZaRBwMb_3syn3gen9visit_mut23visit_pat_reference_mutNtNtCsjTXeTLYUiB9_18tracing_attributes6expand20IdentAndTypesRenamerEB15_, symObjAddr: 0xCC80, symBinAddr: 0xD850, symSize: 0x90 }
  - { offset: 0x83F2, size: 0x8, addend: 0x0, symName: __RINvNtNtCsdGrGZaRBwMb_3syn3gen9visit_mut23visit_trait_item_fn_mutNtNtCsjTXeTLYUiB9_18tracing_attributes6expand15ImplTraitEraserEB15_, symObjAddr: 0xCD10, symBinAddr: 0xD8E0, symSize: 0x90 }
  - { offset: 0x8452, size: 0x8, addend: 0x0, symName: __RINvNtNtCsdGrGZaRBwMb_3syn3gen9visit_mut23visit_trait_item_fn_mutNtNtCsjTXeTLYUiB9_18tracing_attributes6expand20IdentAndTypesRenamerEB15_, symObjAddr: 0xCDA0, symBinAddr: 0xD970, symSize: 0x90 }
  - { offset: 0x84B2, size: 0x8, addend: 0x0, symName: __RINvNtNtCsdGrGZaRBwMb_3syn3gen9visit_mut24visit_captured_param_mutNtNtCsjTXeTLYUiB9_18tracing_attributes6expand15ImplTraitEraserEB16_, symObjAddr: 0xCE30, symBinAddr: 0xDA00, symSize: 0x70 }
  - { offset: 0x8528, size: 0x8, addend: 0x0, symName: __RINvNtNtCsdGrGZaRBwMb_3syn3gen9visit_mut24visit_captured_param_mutNtNtCsjTXeTLYUiB9_18tracing_attributes6expand20IdentAndTypesRenamerEB16_, symObjAddr: 0xCEA0, symBinAddr: 0xDA70, symSize: 0x70 }
  - { offset: 0x859E, size: 0x8, addend: 0x0, symName: __RINvNtNtCsdGrGZaRBwMb_3syn3gen9visit_mut24visit_expr_reference_mutNtNtCsjTXeTLYUiB9_18tracing_attributes6expand15ImplTraitEraserEB16_, symObjAddr: 0xCF10, symBinAddr: 0xDAE0, symSize: 0x90 }
  - { offset: 0x85E0, size: 0x8, addend: 0x0, symName: __RINvNtNtCsdGrGZaRBwMb_3syn3gen9visit_mut24visit_expr_reference_mutNtNtCsjTXeTLYUiB9_18tracing_attributes6expand20IdentAndTypesRenamerEB16_, symObjAddr: 0xCFA0, symBinAddr: 0xDB70, symSize: 0x90 }
  - { offset: 0x8622, size: 0x8, addend: 0x0, symName: __RINvNtNtCsdGrGZaRBwMb_3syn3gen9visit_mut24visit_expr_try_block_mutNtNtCsjTXeTLYUiB9_18tracing_attributes6expand15ImplTraitEraserEB16_, symObjAddr: 0xD030, symBinAddr: 0xDC00, symSize: 0x40 }
  - { offset: 0x8664, size: 0x8, addend: 0x0, symName: __RINvNtNtCsdGrGZaRBwMb_3syn3gen9visit_mut24visit_expr_try_block_mutNtNtCsjTXeTLYUiB9_18tracing_attributes6expand20IdentAndTypesRenamerEB16_, symObjAddr: 0xD070, symBinAddr: 0xDC40, symSize: 0x40 }
  - { offset: 0x86A6, size: 0x8, addend: 0x0, symName: __RINvNtNtCsdGrGZaRBwMb_3syn3gen9visit_mut24visit_fields_unnamed_mutNtNtCsjTXeTLYUiB9_18tracing_attributes6expand15ImplTraitEraserEB16_, symObjAddr: 0xD0B0, symBinAddr: 0xDC80, symSize: 0xB0 }
  - { offset: 0x8743, size: 0x8, addend: 0x0, symName: __RINvNtNtCsdGrGZaRBwMb_3syn3gen9visit_mut24visit_fields_unnamed_mutNtNtCsjTXeTLYUiB9_18tracing_attributes6expand20IdentAndTypesRenamerEB16_, symObjAddr: 0xD160, symBinAddr: 0xDD30, symSize: 0xB0 }
  - { offset: 0x87E0, size: 0x8, addend: 0x0, symName: __RINvNtNtCsdGrGZaRBwMb_3syn3gen9visit_mut24visit_impl_item_type_mutNtNtCsjTXeTLYUiB9_18tracing_attributes6expand15ImplTraitEraserEB16_, symObjAddr: 0xD210, symBinAddr: 0xDDE0, symSize: 0x80 }
  - { offset: 0x8822, size: 0x8, addend: 0x0, symName: __RINvNtNtCsdGrGZaRBwMb_3syn3gen9visit_mut24visit_impl_item_type_mutNtNtCsjTXeTLYUiB9_18tracing_attributes6expand20IdentAndTypesRenamerEB16_, symObjAddr: 0xD290, symBinAddr: 0xDE60, symSize: 0x80 }
  - { offset: 0x8864, size: 0x8, addend: 0x0, symName: __RINvNtNtCsdGrGZaRBwMb_3syn3gen9visit_mut24visit_lifetime_param_mutNtNtCsjTXeTLYUiB9_18tracing_attributes6expand15ImplTraitEraserEB16_, symObjAddr: 0xD310, symBinAddr: 0xDEE0, symSize: 0xE0 }
  - { offset: 0x8901, size: 0x8, addend: 0x0, symName: __RINvNtNtCsdGrGZaRBwMb_3syn3gen9visit_mut24visit_lifetime_param_mutNtNtCsjTXeTLYUiB9_18tracing_attributes6expand20IdentAndTypesRenamerEB16_, symObjAddr: 0xD3F0, symBinAddr: 0xDFC0, symSize: 0xE0 }
  - { offset: 0x899E, size: 0x8, addend: 0x0, symName: __RINvNtNtCsdGrGZaRBwMb_3syn3gen9visit_mut24visit_path_arguments_mutNtNtCsjTXeTLYUiB9_18tracing_attributes6expand15ImplTraitEraserEB16_, symObjAddr: 0xD4D0, symBinAddr: 0xE0A0, symSize: 0xA0 }
  - { offset: 0x8A14, size: 0x8, addend: 0x0, symName: __RINvNtNtCsdGrGZaRBwMb_3syn3gen9visit_mut24visit_path_arguments_mutNtNtCsjTXeTLYUiB9_18tracing_attributes6expand20IdentAndTypesRenamerEB16_, symObjAddr: 0xD570, symBinAddr: 0xE140, symSize: 0xA0 }
  - { offset: 0x8A8A, size: 0x8, addend: 0x0, symName: __RINvNtNtCsdGrGZaRBwMb_3syn3gen9visit_mut24visit_predicate_type_mutNtNtCsjTXeTLYUiB9_18tracing_attributes6expand15ImplTraitEraserEB16_, symObjAddr: 0xD610, symBinAddr: 0xE1E0, symSize: 0x130 }
  - { offset: 0x8B45, size: 0x8, addend: 0x0, symName: __RINvNtNtCsdGrGZaRBwMb_3syn3gen9visit_mut24visit_predicate_type_mutNtNtCsjTXeTLYUiB9_18tracing_attributes6expand20IdentAndTypesRenamerEB16_, symObjAddr: 0xD740, symBinAddr: 0xE310, symSize: 0x130 }
  - { offset: 0x8C00, size: 0x8, addend: 0x0, symName: __RINvNtNtCsdGrGZaRBwMb_3syn3gen9visit_mut24visit_type_reference_mutNtNtCsjTXeTLYUiB9_18tracing_attributes6expand15ImplTraitEraserEB16_, symObjAddr: 0xD870, symBinAddr: 0xE440, symSize: 0xC0 }
  - { offset: 0x8C60, size: 0x8, addend: 0x0, symName: __RINvNtNtCsdGrGZaRBwMb_3syn3gen9visit_mut24visit_vis_restricted_mutNtNtCsjTXeTLYUiB9_18tracing_attributes6expand15ImplTraitEraserEB16_, symObjAddr: 0xD930, symBinAddr: 0xE500, symSize: 0x80 }
  - { offset: 0x8CA2, size: 0x8, addend: 0x0, symName: __RINvNtNtCsdGrGZaRBwMb_3syn3gen9visit_mut24visit_vis_restricted_mutNtNtCsjTXeTLYUiB9_18tracing_attributes6expand20IdentAndTypesRenamerEB16_, symObjAddr: 0xD9B0, symBinAddr: 0xE580, symSize: 0x80 }
  - { offset: 0x8CE4, size: 0x8, addend: 0x0, symName: __RINvNtNtCsdGrGZaRBwMb_3syn3gen9visit_mut25visit_bound_lifetimes_mutNtNtCsjTXeTLYUiB9_18tracing_attributes6expand15ImplTraitEraserEB17_, symObjAddr: 0xDA30, symBinAddr: 0xE600, symSize: 0xB0 }
  - { offset: 0x8D81, size: 0x8, addend: 0x0, symName: __RINvNtNtCsdGrGZaRBwMb_3syn3gen9visit_mut25visit_bound_lifetimes_mutNtNtCsjTXeTLYUiB9_18tracing_attributes6expand20IdentAndTypesRenamerEB17_, symObjAddr: 0xDAE0, symBinAddr: 0xE6B0, symSize: 0xB0 }
  - { offset: 0x8E1E, size: 0x8, addend: 0x0, symName: __RINvNtNtCsdGrGZaRBwMb_3syn3gen9visit_mut25visit_foreign_item_fn_mutNtNtCsjTXeTLYUiB9_18tracing_attributes6expand15ImplTraitEraserEB17_, symObjAddr: 0xDB90, symBinAddr: 0xE760, symSize: 0x60 }
  - { offset: 0x8E60, size: 0x8, addend: 0x0, symName: __RINvNtNtCsdGrGZaRBwMb_3syn3gen9visit_mut25visit_foreign_item_fn_mutNtNtCsjTXeTLYUiB9_18tracing_attributes6expand20IdentAndTypesRenamerEB17_, symObjAddr: 0xDBF0, symBinAddr: 0xE7C0, symSize: 0x60 }
  - { offset: 0x8EA2, size: 0x8, addend: 0x0, symName: __RINvNtNtCsdGrGZaRBwMb_3syn3gen9visit_mut25visit_impl_item_const_mutNtNtCsjTXeTLYUiB9_18tracing_attributes6expand15ImplTraitEraserEB17_, symObjAddr: 0xDC50, symBinAddr: 0xE820, symSize: 0x90 }
  - { offset: 0x8EE4, size: 0x8, addend: 0x0, symName: __RINvNtNtCsdGrGZaRBwMb_3syn3gen9visit_mut25visit_impl_item_const_mutNtNtCsjTXeTLYUiB9_18tracing_attributes6expand20IdentAndTypesRenamerEB17_, symObjAddr: 0xDCE0, symBinAddr: 0xE8B0, symSize: 0x90 }
  - { offset: 0x8F26, size: 0x8, addend: 0x0, symName: __RINvNtNtCsdGrGZaRBwMb_3syn3gen9visit_mut25visit_impl_item_macro_mutNtNtCsjTXeTLYUiB9_18tracing_attributes6expand15ImplTraitEraserEB17_, symObjAddr: 0xDD70, symBinAddr: 0xE940, symSize: 0x40 }
  - { offset: 0x8F68, size: 0x8, addend: 0x0, symName: __RINvNtNtCsdGrGZaRBwMb_3syn3gen9visit_mut25visit_impl_item_macro_mutNtNtCsjTXeTLYUiB9_18tracing_attributes6expand20IdentAndTypesRenamerEB17_, symObjAddr: 0xDDB0, symBinAddr: 0xE980, symSize: 0x40 }
  - { offset: 0x8FAA, size: 0x8, addend: 0x0, symName: __RINvNtNtCsdGrGZaRBwMb_3syn3gen9visit_mut25visit_macro_delimiter_mutNtNtCsjTXeTLYUiB9_18tracing_attributes6expand15ImplTraitEraserEB17_, symObjAddr: 0xDDF0, symBinAddr: 0xE9C0, symSize: 0x70 }
  - { offset: 0x8FEC, size: 0x8, addend: 0x0, symName: __RINvNtNtCsdGrGZaRBwMb_3syn3gen9visit_mut25visit_macro_delimiter_mutNtNtCsjTXeTLYUiB9_18tracing_attributes6expand20IdentAndTypesRenamerEB17_, symObjAddr: 0xDE60, symBinAddr: 0xEA30, symSize: 0x70 }
  - { offset: 0x902E, size: 0x8, addend: 0x0, symName: __RINvNtNtCsdGrGZaRBwMb_3syn3gen9visit_mut25visit_meta_name_value_mutNtNtCsjTXeTLYUiB9_18tracing_attributes6expand15ImplTraitEraserEB17_, symObjAddr: 0xDED0, symBinAddr: 0xEAA0, symSize: 0x40 }
  - { offset: 0x9070, size: 0x8, addend: 0x0, symName: __RINvNtNtCsdGrGZaRBwMb_3syn3gen9visit_mut25visit_meta_name_value_mutNtNtCsjTXeTLYUiB9_18tracing_attributes6expand20IdentAndTypesRenamerEB17_, symObjAddr: 0xDF10, symBinAddr: 0xEAE0, symSize: 0x40 }
  - { offset: 0x90B2, size: 0x8, addend: 0x0, symName: __RINvNtNtCsdGrGZaRBwMb_3syn3gen9visit_mut25visit_precise_capture_mutNtNtCsjTXeTLYUiB9_18tracing_attributes6expand15ImplTraitEraserEB17_, symObjAddr: 0xDF50, symBinAddr: 0xEB20, symSize: 0xB0 }
  - { offset: 0x914F, size: 0x8, addend: 0x0, symName: __RINvNtNtCsdGrGZaRBwMb_3syn3gen9visit_mut25visit_precise_capture_mutNtNtCsjTXeTLYUiB9_18tracing_attributes6expand20IdentAndTypesRenamerEB17_, symObjAddr: 0xE000, symBinAddr: 0xEBD0, symSize: 0xB0 }
  - { offset: 0x91EC, size: 0x8, addend: 0x0, symName: __RINvNtNtCsdGrGZaRBwMb_3syn3gen9visit_mut25visit_trait_item_type_mutNtNtCsjTXeTLYUiB9_18tracing_attributes6expand15ImplTraitEraserEB17_, symObjAddr: 0xE0B0, symBinAddr: 0xEC80, symSize: 0x150 }
  - { offset: 0x92A7, size: 0x8, addend: 0x0, symName: __RINvNtNtCsdGrGZaRBwMb_3syn3gen9visit_mut25visit_trait_item_type_mutNtNtCsjTXeTLYUiB9_18tracing_attributes6expand20IdentAndTypesRenamerEB17_, symObjAddr: 0xE200, symBinAddr: 0xEDD0, symSize: 0x150 }
  - { offset: 0x9362, size: 0x8, addend: 0x0, symName: __RINvNtNtCsdGrGZaRBwMb_3syn3gen9visit_mut25visit_type_impl_trait_mutNtNtCsjTXeTLYUiB9_18tracing_attributes6expand15ImplTraitEraserEB17_, symObjAddr: 0xE350, symBinAddr: 0xEF20, symSize: 0xB0 }
  - { offset: 0x93FF, size: 0x8, addend: 0x0, symName: __RINvNtNtCsdGrGZaRBwMb_3syn3gen9visit_mut25visit_where_predicate_mutNtNtCsjTXeTLYUiB9_18tracing_attributes6expand15ImplTraitEraserEB17_, symObjAddr: 0xE400, symBinAddr: 0xEFD0, symSize: 0x70 }
  - { offset: 0x9475, size: 0x8, addend: 0x0, symName: __RINvNtNtCsdGrGZaRBwMb_3syn3gen9visit_mut25visit_where_predicate_mutNtNtCsjTXeTLYUiB9_18tracing_attributes6expand20IdentAndTypesRenamerEB17_, symObjAddr: 0xE470, symBinAddr: 0xF040, symSize: 0x70 }
  - { offset: 0x94EB, size: 0x8, addend: 0x0, symName: __RINvNtNtCsdGrGZaRBwMb_3syn3gen9visit_mut26visit_expr_method_call_mutNtNtCsjTXeTLYUiB9_18tracing_attributes6expand15ImplTraitEraserEB18_, symObjAddr: 0xE4E0, symBinAddr: 0xF0B0, symSize: 0x1B0 }
  - { offset: 0x959E, size: 0x8, addend: 0x0, symName: __RINvNtNtCsdGrGZaRBwMb_3syn3gen9visit_mut26visit_expr_method_call_mutNtNtCsjTXeTLYUiB9_18tracing_attributes6expand20IdentAndTypesRenamerEB18_, symObjAddr: 0xE690, symBinAddr: 0xF260, symSize: 0x1B0 }
  - { offset: 0x9651, size: 0x8, addend: 0x0, symName: __RINvNtNtCsdGrGZaRBwMb_3syn3gen9visit_mut26visit_field_mutability_mutNtNtCsjTXeTLYUiB9_18tracing_attributes6expand15ImplTraitEraserEB18_, symObjAddr: 0xE840, symBinAddr: 0xF410, symSize: 0x20 }
  - { offset: 0x9693, size: 0x8, addend: 0x0, symName: __RINvNtNtCsdGrGZaRBwMb_3syn3gen9visit_mut26visit_field_mutability_mutNtNtCsjTXeTLYUiB9_18tracing_attributes6expand20IdentAndTypesRenamerEB18_, symObjAddr: 0xE860, symBinAddr: 0xF430, symSize: 0x20 }
  - { offset: 0x96D5, size: 0x8, addend: 0x0, symName: __RINvNtNtCsdGrGZaRBwMb_3syn3gen9visit_mut26visit_generic_argument_mutNtNtCsjTXeTLYUiB9_18tracing_attributes6expand15ImplTraitEraserEB18_, symObjAddr: 0xE880, symBinAddr: 0xF450, symSize: 0x120 }
  - { offset: 0x97C3, size: 0x8, addend: 0x0, symName: __RINvNtNtCsdGrGZaRBwMb_3syn3gen9visit_mut26visit_generic_argument_mutNtNtCsjTXeTLYUiB9_18tracing_attributes6expand20IdentAndTypesRenamerEB18_, symObjAddr: 0xE9A0, symBinAddr: 0xF570, symSize: 0x120 }
  - { offset: 0x98B1, size: 0x8, addend: 0x0, symName: __RINvNtNtCsdGrGZaRBwMb_3syn3gen9visit_mut26visit_item_foreign_mod_mutNtNtCsjTXeTLYUiB9_18tracing_attributes6expand15ImplTraitEraserEB18_, symObjAddr: 0xEAC0, symBinAddr: 0xF690, symSize: 0xA0 }
  - { offset: 0x992F, size: 0x8, addend: 0x0, symName: __RINvNtNtCsdGrGZaRBwMb_3syn3gen9visit_mut26visit_item_foreign_mod_mutNtNtCsjTXeTLYUiB9_18tracing_attributes6expand20IdentAndTypesRenamerEB18_, symObjAddr: 0xEB60, symBinAddr: 0xF730, symSize: 0xA0 }
  - { offset: 0x99AD, size: 0x8, addend: 0x0, symName: __RINvNtNtCsdGrGZaRBwMb_3syn3gen9visit_mut26visit_item_trait_alias_mutNtNtCsjTXeTLYUiB9_18tracing_attributes6expand15ImplTraitEraserEB18_, symObjAddr: 0xEC00, symBinAddr: 0xF7D0, symSize: 0x110 }
  - { offset: 0x9A4A, size: 0x8, addend: 0x0, symName: __RINvNtNtCsdGrGZaRBwMb_3syn3gen9visit_mut26visit_item_trait_alias_mutNtNtCsjTXeTLYUiB9_18tracing_attributes6expand20IdentAndTypesRenamerEB18_, symObjAddr: 0xED10, symBinAddr: 0xF8E0, symSize: 0x110 }
  - { offset: 0x9AE7, size: 0x8, addend: 0x0, symName: __RINvNtNtCsdGrGZaRBwMb_3syn3gen9visit_mut26visit_pat_tuple_struct_mutNtNtCsjTXeTLYUiB9_18tracing_attributes6expand15ImplTraitEraserEB18_, symObjAddr: 0xEE20, symBinAddr: 0xF9F0, symSize: 0x130 }
  - { offset: 0x9BA2, size: 0x8, addend: 0x0, symName: __RINvNtNtCsdGrGZaRBwMb_3syn3gen9visit_mut26visit_pat_tuple_struct_mutNtNtCsjTXeTLYUiB9_18tracing_attributes6expand20IdentAndTypesRenamerEB18_, symObjAddr: 0xEF50, symBinAddr: 0xFB20, symSize: 0x130 }
  - { offset: 0x9C5D, size: 0x8, addend: 0x0, symName: __RINvNtNtCsdGrGZaRBwMb_3syn3gen9visit_mut26visit_trait_item_const_mutNtNtCsjTXeTLYUiB9_18tracing_attributes6expand15ImplTraitEraserEB18_, symObjAddr: 0xF080, symBinAddr: 0xFC50, symSize: 0xC0 }
  - { offset: 0x9CBD, size: 0x8, addend: 0x0, symName: __RINvNtNtCsdGrGZaRBwMb_3syn3gen9visit_mut26visit_trait_item_const_mutNtNtCsjTXeTLYUiB9_18tracing_attributes6expand20IdentAndTypesRenamerEB18_, symObjAddr: 0xF140, symBinAddr: 0xFD10, symSize: 0xC0 }
  - { offset: 0x9D1D, size: 0x8, addend: 0x0, symName: __RINvNtNtCsdGrGZaRBwMb_3syn3gen9visit_mut26visit_trait_item_macro_mutNtNtCsjTXeTLYUiB9_18tracing_attributes6expand15ImplTraitEraserEB18_, symObjAddr: 0xF200, symBinAddr: 0xFDD0, symSize: 0x40 }
  - { offset: 0x9D5F, size: 0x8, addend: 0x0, symName: __RINvNtNtCsdGrGZaRBwMb_3syn3gen9visit_mut26visit_trait_item_macro_mutNtNtCsjTXeTLYUiB9_18tracing_attributes6expand20IdentAndTypesRenamerEB18_, symObjAddr: 0xF240, symBinAddr: 0xFE10, symSize: 0x40 }
  - { offset: 0x9DA1, size: 0x8, addend: 0x0, symName: __RINvNtNtCsdGrGZaRBwMb_3syn3gen9visit_mut26visit_type_param_bound_mutNtNtCsjTXeTLYUiB9_18tracing_attributes6expand15ImplTraitEraserEB18_, symObjAddr: 0xF280, symBinAddr: 0xFE50, symSize: 0xE0 }
  - { offset: 0x9E53, size: 0x8, addend: 0x0, symName: __RINvNtNtCsdGrGZaRBwMb_3syn3gen9visit_mut26visit_type_param_bound_mutNtNtCsjTXeTLYUiB9_18tracing_attributes6expand20IdentAndTypesRenamerEB18_, symObjAddr: 0xF360, symBinAddr: 0xFF30, symSize: 0xE0 }
  - { offset: 0x9F05, size: 0x8, addend: 0x0, symName: __RINvNtNtCsdGrGZaRBwMb_3syn3gen9visit_mut27visit_foreign_item_type_mutNtNtCsjTXeTLYUiB9_18tracing_attributes6expand15ImplTraitEraserEB19_, symObjAddr: 0xF440, symBinAddr: 0x10010, symSize: 0x70 }
  - { offset: 0x9F47, size: 0x8, addend: 0x0, symName: __RINvNtNtCsdGrGZaRBwMb_3syn3gen9visit_mut27visit_foreign_item_type_mutNtNtCsjTXeTLYUiB9_18tracing_attributes6expand20IdentAndTypesRenamerEB19_, symObjAddr: 0xF4B0, symBinAddr: 0x10080, symSize: 0x70 }
  - { offset: 0x9F89, size: 0x8, addend: 0x0, symName: __RINvNtNtCsdGrGZaRBwMb_3syn3gen9visit_mut27visit_item_extern_crate_mutNtNtCsjTXeTLYUiB9_18tracing_attributes6expand15ImplTraitEraserEB19_, symObjAddr: 0xF520, symBinAddr: 0x100F0, symSize: 0xA0 }
  - { offset: 0x9FE9, size: 0x8, addend: 0x0, symName: __RINvNtNtCsdGrGZaRBwMb_3syn3gen9visit_mut27visit_item_extern_crate_mutNtNtCsjTXeTLYUiB9_18tracing_attributes6expand20IdentAndTypesRenamerEB19_, symObjAddr: 0xF5C0, symBinAddr: 0x10190, symSize: 0xA0 }
  - { offset: 0xA049, size: 0x8, addend: 0x0, symName: __RINvNtNtCsdGrGZaRBwMb_3syn3gen9visit_mut27visit_static_mutability_mutNtNtCsjTXeTLYUiB9_18tracing_attributes6expand15ImplTraitEraserEB19_, symObjAddr: 0xF660, symBinAddr: 0x10230, symSize: 0x40 }
  - { offset: 0xA08B, size: 0x8, addend: 0x0, symName: __RINvNtNtCsdGrGZaRBwMb_3syn3gen9visit_mut27visit_static_mutability_mutNtNtCsjTXeTLYUiB9_18tracing_attributes6expand20IdentAndTypesRenamerEB19_, symObjAddr: 0xF6A0, symBinAddr: 0x10270, symSize: 0x40 }
  - { offset: 0xA0CD, size: 0x8, addend: 0x0, symName: __RINvNtNtCsdGrGZaRBwMb_3syn3gen9visit_mut27visit_type_trait_object_mutNtNtCsjTXeTLYUiB9_18tracing_attributes6expand15ImplTraitEraserEB19_, symObjAddr: 0xF6E0, symBinAddr: 0x102B0, symSize: 0xB0 }
  - { offset: 0xA16A, size: 0x8, addend: 0x0, symName: __RINvNtNtCsdGrGZaRBwMb_3syn3gen9visit_mut28visit_foreign_item_macro_mutNtNtCsjTXeTLYUiB9_18tracing_attributes6expand15ImplTraitEraserEB1a_, symObjAddr: 0xF790, symBinAddr: 0x10360, symSize: 0x40 }
  - { offset: 0xA1AC, size: 0x8, addend: 0x0, symName: __RINvNtNtCsdGrGZaRBwMb_3syn3gen9visit_mut28visit_foreign_item_macro_mutNtNtCsjTXeTLYUiB9_18tracing_attributes6expand20IdentAndTypesRenamerEB1a_, symObjAddr: 0xF7D0, symBinAddr: 0x103A0, symSize: 0x40 }
  - { offset: 0xA1EE, size: 0x8, addend: 0x0, symName: __RINvNtNtCsdGrGZaRBwMb_3syn3gen9visit_mut28visit_pointer_mutability_mutNtNtCsjTXeTLYUiB9_18tracing_attributes6expand15ImplTraitEraserEB1a_, symObjAddr: 0xF810, symBinAddr: 0x103E0, symSize: 0x50 }
  - { offset: 0xA230, size: 0x8, addend: 0x0, symName: __RINvNtNtCsdGrGZaRBwMb_3syn3gen9visit_mut28visit_pointer_mutability_mutNtNtCsjTXeTLYUiB9_18tracing_attributes6expand20IdentAndTypesRenamerEB1a_, symObjAddr: 0xF860, symBinAddr: 0x10430, symSize: 0x50 }
  - { offset: 0xA272, size: 0x8, addend: 0x0, symName: __RINvNtNtCsdGrGZaRBwMb_3syn3gen9visit_mut28visit_predicate_lifetime_mutNtNtCsjTXeTLYUiB9_18tracing_attributes6expand15ImplTraitEraserEB1a_, symObjAddr: 0xF8B0, symBinAddr: 0x10480, symSize: 0xD0 }
  - { offset: 0xA30F, size: 0x8, addend: 0x0, symName: __RINvNtNtCsdGrGZaRBwMb_3syn3gen9visit_mut28visit_predicate_lifetime_mutNtNtCsjTXeTLYUiB9_18tracing_attributes6expand20IdentAndTypesRenamerEB1a_, symObjAddr: 0xF980, symBinAddr: 0x10550, symSize: 0xD0 }
  - { offset: 0xA3AC, size: 0x8, addend: 0x0, symName: __RINvNtNtCsdGrGZaRBwMb_3syn3gen9visit_mut29visit_foreign_item_static_mutNtNtCsjTXeTLYUiB9_18tracing_attributes6expand15ImplTraitEraserEB1b_, symObjAddr: 0xFA50, symBinAddr: 0x10620, symSize: 0xC0 }
  - { offset: 0xA3EE, size: 0x8, addend: 0x0, symName: __RINvNtNtCsdGrGZaRBwMb_3syn3gen9visit_mut29visit_foreign_item_static_mutNtNtCsjTXeTLYUiB9_18tracing_attributes6expand20IdentAndTypesRenamerEB1b_, symObjAddr: 0xFB10, symBinAddr: 0x106E0, symSize: 0xC0 }
  - { offset: 0xA430, size: 0x8, addend: 0x0, symName: __RINvNtNtCsdGrGZaRBwMb_3syn3gen9visit_mut30visit_trait_bound_modifier_mutNtNtCsjTXeTLYUiB9_18tracing_attributes6expand15ImplTraitEraserEB1c_, symObjAddr: 0xFBD0, symBinAddr: 0x107A0, symSize: 0x40 }
  - { offset: 0xA472, size: 0x8, addend: 0x0, symName: __RINvNtNtCsdGrGZaRBwMb_3syn3gen9visit_mut30visit_trait_bound_modifier_mutNtNtCsjTXeTLYUiB9_18tracing_attributes6expand20IdentAndTypesRenamerEB1c_, symObjAddr: 0xFC10, symBinAddr: 0x107E0, symSize: 0x40 }
  - { offset: 0xA4B4, size: 0x8, addend: 0x0, symName: __RINvNtNtCsdGrGZaRBwMb_3syn3gen9visit_mut41visit_parenthesized_generic_arguments_mutNtNtCsjTXeTLYUiB9_18tracing_attributes6expand15ImplTraitEraserEB1n_, symObjAddr: 0xFC50, symBinAddr: 0x10820, symSize: 0xD0 }
  - { offset: 0xA551, size: 0x8, addend: 0x0, symName: __RINvNtNtCsdGrGZaRBwMb_3syn3gen9visit_mut41visit_parenthesized_generic_arguments_mutNtNtCsjTXeTLYUiB9_18tracing_attributes6expand20IdentAndTypesRenamerEB1n_, symObjAddr: 0xFD20, symBinAddr: 0x108F0, symSize: 0xD0 }
  - { offset: 0xA5EE, size: 0x8, addend: 0x0, symName: __RINvNtNtCsdGrGZaRBwMb_3syn3gen9visit_mut43visit_angle_bracketed_generic_arguments_mutNtNtCsjTXeTLYUiB9_18tracing_attributes6expand15ImplTraitEraserEB1p_, symObjAddr: 0xFDF0, symBinAddr: 0x109C0, symSize: 0xB0 }
  - { offset: 0xA68B, size: 0x8, addend: 0x0, symName: __RINvNtNtCsdGrGZaRBwMb_3syn3gen9visit_mut43visit_angle_bracketed_generic_arguments_mutNtNtCsjTXeTLYUiB9_18tracing_attributes6expand20IdentAndTypesRenamerEB1p_, symObjAddr: 0xFEA0, symBinAddr: 0x10A70, symSize: 0xB0 }
  - { offset: 0x154DE, size: 0x8, addend: 0x0, symName: __RINvNtCsjTXeTLYUiB9_18tracing_attributes6expand12gen_functionNtCsaKzlTDPUHDb_11proc_macro211TokenStreamEB4_, symObjAddr: 0x0, symBinAddr: 0x10B20, symSize: 0x1110 }
  - { offset: 0x1835F, size: 0x8, addend: 0x0, symName: __RNvXs1_NtNtNtCsieiGu2EXtoJ_4core3ops8function5implsQNCNCINvNtCsjTXeTLYUiB9_18tracing_attributes6expand9gen_blockNtCsaKzlTDPUHDb_11proc_macro211TokenStreamEs0_0s2_0INtB7_5FnMutTRRTNtB1O_5IdentTB2R_NtBV_10RecordTypeEEEE8call_mutBX_, symObjAddr: 0x147F0, symBinAddr: 0x25310, symSize: 0x30 }
  - { offset: 0x183AE, size: 0x8, addend: 0x0, symName: __RNvXs1_NtNtNtCsieiGu2EXtoJ_4core3ops8function5implsQNCNCINvNtCsjTXeTLYUiB9_18tracing_attributes6expand9gen_blockNtCsaKzlTDPUHDb_11proc_macro211TokenStreamEs0_0s5_0INtB7_5FnMutTQNtNtBX_4attr5FieldEE8call_mutBX_, symObjAddr: 0x14820, symBinAddr: 0x25340, symSize: 0x30 }
  - { offset: 0x183FD, size: 0x8, addend: 0x0, symName: __RNvXs1_NtNtNtCsieiGu2EXtoJ_4core3ops8function5implsQNCNCINvNtCsjTXeTLYUiB9_18tracing_attributes6expand9gen_blockNtNtCsdGrGZaRBwMb_3syn4stmt5BlockEs0_0s2_0INtB7_5FnMutTRRTNtCsaKzlTDPUHDb_11proc_macro25IdentTB2I_NtBV_10RecordTypeEEEE8call_mutBX_, symObjAddr: 0x14850, symBinAddr: 0x25370, symSize: 0x30 }
  - { offset: 0x1844C, size: 0x8, addend: 0x0, symName: __RNvXs1_NtNtNtCsieiGu2EXtoJ_4core3ops8function5implsQNCNCINvNtCsjTXeTLYUiB9_18tracing_attributes6expand9gen_blockNtNtCsdGrGZaRBwMb_3syn4stmt5BlockEs0_0s5_0INtB7_5FnMutTQNtNtBX_4attr5FieldEE8call_mutBX_, symObjAddr: 0x14880, symBinAddr: 0x253A0, symSize: 0x30 }
  - { offset: 0x1A268, size: 0x8, addend: 0x0, symName: __RNCNvNtCsjTXeTLYUiB9_18tracing_attributes6expand11param_names0B5_, symObjAddr: 0x11280, symBinAddr: 0x21DA0, symSize: 0x1A0 }
  - { offset: 0x1A2B5, size: 0x8, addend: 0x0, symName: __RNCNvNtCsjTXeTLYUiB9_18tracing_attributes6expand11param_namess0_0B5_, symObjAddr: 0x11420, symBinAddr: 0x21F40, symSize: 0x30 }
  - { offset: 0x1A2EF, size: 0x8, addend: 0x0, symName: __RNCNvNtCsjTXeTLYUiB9_18tracing_attributes6expand11param_namess_0B5_, symObjAddr: 0x11450, symBinAddr: 0x21F70, symSize: 0x30 }
  - { offset: 0x1A32A, size: 0x8, addend: 0x0, symName: __RINvNtCsjTXeTLYUiB9_18tracing_attributes6expand12gen_functionNtCsaKzlTDPUHDb_11proc_macro211TokenStreamEB4_, symObjAddr: 0x0, symBinAddr: 0x10B20, symSize: 0x1110 }
  - { offset: 0x1A740, size: 0x8, addend: 0x0, symName: __RINvNtCsjTXeTLYUiB9_18tracing_attributes6expand9gen_blockNtCsaKzlTDPUHDb_11proc_macro211TokenStreamEB4_, symObjAddr: 0x1110, symBinAddr: 0x11C30, symSize: 0x6580 }
  - { offset: 0x1B888, size: 0x8, addend: 0x0, symName: __RINvNtCsjTXeTLYUiB9_18tracing_attributes6expand9gen_blockNtNtCsdGrGZaRBwMb_3syn4stmt5BlockEB4_, symObjAddr: 0x7690, symBinAddr: 0x181B0, symSize: 0x6580 }
  - { offset: 0x1C9D5, size: 0x8, addend: 0x0, symName: __RNCINvNtCsjTXeTLYUiB9_18tracing_attributes6expand12gen_functionNtCsaKzlTDPUHDb_11proc_macro211TokenStreamE0B6_, symObjAddr: 0xDC10, symBinAddr: 0x1E730, symSize: 0x50 }
  - { offset: 0x1CA28, size: 0x8, addend: 0x0, symName: __RNCINvNtCsjTXeTLYUiB9_18tracing_attributes6expand12gen_functionNtCsaKzlTDPUHDb_11proc_macro211TokenStreamEs_0B6_, symObjAddr: 0xDC60, symBinAddr: 0x1E780, symSize: 0x60 }
  - { offset: 0x1CA96, size: 0x8, addend: 0x0, symName: __RNCINvNtCsjTXeTLYUiB9_18tracing_attributes6expand9gen_blockNtCsaKzlTDPUHDb_11proc_macro211TokenStreamE0B6_, symObjAddr: 0xDCC0, symBinAddr: 0x1E7E0, symSize: 0x90 }
  - { offset: 0x1CAEA, size: 0x8, addend: 0x0, symName: __RNCINvNtCsjTXeTLYUiB9_18tracing_attributes6expand9gen_blockNtCsaKzlTDPUHDb_11proc_macro211TokenStreamEs0_0B6_, symObjAddr: 0xDD50, symBinAddr: 0x1E870, symSize: 0xBE0 }
  - { offset: 0x1CE13, size: 0x8, addend: 0x0, symName: __RNCINvNtCsjTXeTLYUiB9_18tracing_attributes6expand9gen_blockNtCsaKzlTDPUHDb_11proc_macro211TokenStreamEs_0B6_, symObjAddr: 0xE930, symBinAddr: 0x1F450, symSize: 0x90 }
  - { offset: 0x1CE5F, size: 0x8, addend: 0x0, symName: __RNCINvNtCsjTXeTLYUiB9_18tracing_attributes6expand9gen_blockNtNtCsdGrGZaRBwMb_3syn4stmt5BlockE0B6_, symObjAddr: 0xE9C0, symBinAddr: 0x1F4E0, symSize: 0x90 }
  - { offset: 0x1CEB3, size: 0x8, addend: 0x0, symName: __RNCINvNtCsjTXeTLYUiB9_18tracing_attributes6expand9gen_blockNtNtCsdGrGZaRBwMb_3syn4stmt5BlockEs0_0B6_, symObjAddr: 0xEA50, symBinAddr: 0x1F570, symSize: 0xBE0 }
  - { offset: 0x1D1DC, size: 0x8, addend: 0x0, symName: __RNCINvNtCsjTXeTLYUiB9_18tracing_attributes6expand9gen_blockNtNtCsdGrGZaRBwMb_3syn4stmt5BlockEs_0B6_, symObjAddr: 0xF630, symBinAddr: 0x20150, symSize: 0x90 }
  - { offset: 0x1D22D, size: 0x8, addend: 0x0, symName: __RNCNCINvNtCsjTXeTLYUiB9_18tracing_attributes6expand9gen_blockNtCsaKzlTDPUHDb_11proc_macro211TokenStreamEs0_00B8_, symObjAddr: 0xF6C0, symBinAddr: 0x201E0, symSize: 0x420 }
  - { offset: 0x1D2B1, size: 0x8, addend: 0x0, symName: __RNCNCINvNtCsjTXeTLYUiB9_18tracing_attributes6expand9gen_blockNtCsaKzlTDPUHDb_11proc_macro211TokenStreamEs0_0s0_0B8_, symObjAddr: 0xFAE0, symBinAddr: 0x20600, symSize: 0x20 }
  - { offset: 0x1D2EC, size: 0x8, addend: 0x0, symName: __RNCNCINvNtCsjTXeTLYUiB9_18tracing_attributes6expand9gen_blockNtCsaKzlTDPUHDb_11proc_macro211TokenStreamEs0_0s1_0B8_, symObjAddr: 0xFB00, symBinAddr: 0x20620, symSize: 0x30 }
  - { offset: 0x1D332, size: 0x8, addend: 0x0, symName: __RNCNCINvNtCsjTXeTLYUiB9_18tracing_attributes6expand9gen_blockNtCsaKzlTDPUHDb_11proc_macro211TokenStreamEs0_0s2_0B8_, symObjAddr: 0xFB30, symBinAddr: 0x20650, symSize: 0x120 }
  - { offset: 0x1D39E, size: 0x8, addend: 0x0, symName: __RNCNCINvNtCsjTXeTLYUiB9_18tracing_attributes6expand9gen_blockNtCsaKzlTDPUHDb_11proc_macro211TokenStreamEs0_0s3_0B8_, symObjAddr: 0xFC50, symBinAddr: 0x20770, symSize: 0x290 }
  - { offset: 0x1D450, size: 0x8, addend: 0x0, symName: __RNCNCINvNtCsjTXeTLYUiB9_18tracing_attributes6expand9gen_blockNtCsaKzlTDPUHDb_11proc_macro211TokenStreamEs0_0s4_0B8_, symObjAddr: 0xFEE0, symBinAddr: 0x20A00, symSize: 0x80 }
  - { offset: 0x1D4AF, size: 0x8, addend: 0x0, symName: __RNCNCINvNtCsjTXeTLYUiB9_18tracing_attributes6expand9gen_blockNtCsaKzlTDPUHDb_11proc_macro211TokenStreamEs0_0s5_0B8_, symObjAddr: 0xFF60, symBinAddr: 0x20A80, symSize: 0x40 }
  - { offset: 0x1D4EE, size: 0x8, addend: 0x0, symName: __RNCNCINvNtCsjTXeTLYUiB9_18tracing_attributes6expand9gen_blockNtCsaKzlTDPUHDb_11proc_macro211TokenStreamEs0_0s_0B8_, symObjAddr: 0xFFA0, symBinAddr: 0x20AC0, symSize: 0x270 }
  - { offset: 0x1D556, size: 0x8, addend: 0x0, symName: __RNCNCINvNtCsjTXeTLYUiB9_18tracing_attributes6expand9gen_blockNtNtCsdGrGZaRBwMb_3syn4stmt5BlockEs0_00B8_, symObjAddr: 0x10210, symBinAddr: 0x20D30, symSize: 0x420 }
  - { offset: 0x1D5DA, size: 0x8, addend: 0x0, symName: __RNCNCINvNtCsjTXeTLYUiB9_18tracing_attributes6expand9gen_blockNtNtCsdGrGZaRBwMb_3syn4stmt5BlockEs0_0s0_0B8_, symObjAddr: 0x10630, symBinAddr: 0x21150, symSize: 0x20 }
  - { offset: 0x1D615, size: 0x8, addend: 0x0, symName: __RNCNCINvNtCsjTXeTLYUiB9_18tracing_attributes6expand9gen_blockNtNtCsdGrGZaRBwMb_3syn4stmt5BlockEs0_0s1_0B8_, symObjAddr: 0x10650, symBinAddr: 0x21170, symSize: 0x30 }
  - { offset: 0x1D65B, size: 0x8, addend: 0x0, symName: __RNCNCINvNtCsjTXeTLYUiB9_18tracing_attributes6expand9gen_blockNtNtCsdGrGZaRBwMb_3syn4stmt5BlockEs0_0s2_0B8_, symObjAddr: 0x10680, symBinAddr: 0x211A0, symSize: 0x120 }
  - { offset: 0x1D6C7, size: 0x8, addend: 0x0, symName: __RNCNCINvNtCsjTXeTLYUiB9_18tracing_attributes6expand9gen_blockNtNtCsdGrGZaRBwMb_3syn4stmt5BlockEs0_0s3_0B8_, symObjAddr: 0x107A0, symBinAddr: 0x212C0, symSize: 0x290 }
  - { offset: 0x1D779, size: 0x8, addend: 0x0, symName: __RNCNCINvNtCsjTXeTLYUiB9_18tracing_attributes6expand9gen_blockNtNtCsdGrGZaRBwMb_3syn4stmt5BlockEs0_0s4_0B8_, symObjAddr: 0x10A30, symBinAddr: 0x21550, symSize: 0x80 }
  - { offset: 0x1D7D8, size: 0x8, addend: 0x0, symName: __RNCNCINvNtCsjTXeTLYUiB9_18tracing_attributes6expand9gen_blockNtNtCsdGrGZaRBwMb_3syn4stmt5BlockEs0_0s5_0B8_, symObjAddr: 0x10AB0, symBinAddr: 0x215D0, symSize: 0x40 }
  - { offset: 0x1D817, size: 0x8, addend: 0x0, symName: __RNCNCINvNtCsjTXeTLYUiB9_18tracing_attributes6expand9gen_blockNtNtCsdGrGZaRBwMb_3syn4stmt5BlockEs0_0s_0B8_, symObjAddr: 0x10AF0, symBinAddr: 0x21610, symSize: 0x270 }
  - { offset: 0x1D884, size: 0x8, addend: 0x0, symName: __RNCNCNCINvNtCsjTXeTLYUiB9_18tracing_attributes6expand9gen_blockNtCsaKzlTDPUHDb_11proc_macro211TokenStreamEs0_0s2_00Ba_, symObjAddr: 0x10D60, symBinAddr: 0x21880, symSize: 0xD0 }
  - { offset: 0x1D905, size: 0x8, addend: 0x0, symName: __RNCNCNCINvNtCsjTXeTLYUiB9_18tracing_attributes6expand9gen_blockNtNtCsdGrGZaRBwMb_3syn4stmt5BlockEs0_0s2_00Ba_, symObjAddr: 0x10E30, symBinAddr: 0x21950, symSize: 0xD0 }
  - { offset: 0x1D98B, size: 0x8, addend: 0x0, symName: __RNCNCNCNCINvNtCsjTXeTLYUiB9_18tracing_attributes6expand9gen_blockNtCsaKzlTDPUHDb_11proc_macro211TokenStreamEs0_0s2_000Bc_, symObjAddr: 0x10F00, symBinAddr: 0x21A20, symSize: 0x40 }
  - { offset: 0x1D9D1, size: 0x8, addend: 0x0, symName: __RNCNCNCNCINvNtCsjTXeTLYUiB9_18tracing_attributes6expand9gen_blockNtNtCsdGrGZaRBwMb_3syn4stmt5BlockEs0_0s2_000Bc_, symObjAddr: 0x10F40, symBinAddr: 0x21A60, symSize: 0x40 }
  - { offset: 0x1DAA4, size: 0x8, addend: 0x0, symName: __RNCNCNvMNtCsjTXeTLYUiB9_18tracing_attributes6expandNtB6_10RecordType13parse_from_ty00B8_, symObjAddr: 0x10F80, symBinAddr: 0x21AA0, symSize: 0x40 }
  - { offset: 0x1DAF7, size: 0x8, addend: 0x0, symName: __RNCNvMNtCsjTXeTLYUiB9_18tracing_attributes6expandNtB4_10RecordType13parse_from_ty0B6_, symObjAddr: 0x10FC0, symBinAddr: 0x21AE0, symSize: 0xA0 }
  - { offset: 0x1DB5A, size: 0x8, addend: 0x0, symName: __RNCNvMs_NtCsjTXeTLYUiB9_18tracing_attributes6expandNtB6_9AsyncInfo7from_fn0B8_, symObjAddr: 0x11060, symBinAddr: 0x21B80, symSize: 0xC0 }
  - { offset: 0x1DBA9, size: 0x8, addend: 0x0, symName: __RNCNvMs_NtCsjTXeTLYUiB9_18tracing_attributes6expandNtB6_9AsyncInfo7from_fns0_0B8_, symObjAddr: 0x11120, symBinAddr: 0x21C40, symSize: 0x50 }
  - { offset: 0x1DBFB, size: 0x8, addend: 0x0, symName: __RNCNvMs_NtCsjTXeTLYUiB9_18tracing_attributes6expandNtB6_9AsyncInfo7from_fns_0B8_, symObjAddr: 0x11170, symBinAddr: 0x21C90, symSize: 0x80 }
  - { offset: 0x1DC76, size: 0x8, addend: 0x0, symName: __RNCNvMs_NtCsjTXeTLYUiB9_18tracing_attributes6expandNtB6_9AsyncInfo9gen_async0B8_, symObjAddr: 0x111F0, symBinAddr: 0x21D10, symSize: 0x40 }
  - { offset: 0x1DCAF, size: 0x8, addend: 0x0, symName: __RNCNvMs_NtCsjTXeTLYUiB9_18tracing_attributes6expandNtB6_9AsyncInfo9gen_asyncs_0B8_, symObjAddr: 0x11230, symBinAddr: 0x21D50, symSize: 0x50 }
  - { offset: 0x1DDF1, size: 0x8, addend: 0x0, symName: __RNvNtCsjTXeTLYUiB9_18tracing_attributes6expand11param_names, symObjAddr: 0x133F0, symBinAddr: 0x23F10, symSize: 0xBF0 }
  - { offset: 0x1DF34, size: 0x8, addend: 0x0, symName: __RNvNtCsjTXeTLYUiB9_18tracing_attributes6expand14path_to_string, symObjAddr: 0x13FE0, symBinAddr: 0x24B00, symSize: 0x2A0 }
  - { offset: 0x1DFC4, size: 0x8, addend: 0x0, symName: __RNvNtCsjTXeTLYUiB9_18tracing_attributes6expand16erase_impl_trait, symObjAddr: 0x14280, symBinAddr: 0x24DA0, symSize: 0xA0 }
  - { offset: 0x1E00E, size: 0x8, addend: 0x0, symName: __RNvXs0_NtCsjTXeTLYUiB9_18tracing_attributes6expandNtB5_20IdentAndTypesRenamerNtNtNtCsdGrGZaRBwMb_3syn3gen9visit_mut8VisitMut14visit_type_mut, symObjAddr: 0x14320, symBinAddr: 0x24E40, symSize: 0x200 }
  - { offset: 0x1E09A, size: 0x8, addend: 0x0, symName: __RNvXs0_NtCsjTXeTLYUiB9_18tracing_attributes6expandNtB5_20IdentAndTypesRenamerNtNtNtCsdGrGZaRBwMb_3syn3gen9visit_mut8VisitMut15visit_ident_mut, symObjAddr: 0x14520, symBinAddr: 0x25040, symSize: 0x1C0 }
  - { offset: 0x1E117, size: 0x8, addend: 0x0, symName: __RNvXs1_NtCsjTXeTLYUiB9_18tracing_attributes6expandNtB5_15ImplTraitEraserNtNtNtCsdGrGZaRBwMb_3syn3gen9visit_mut8VisitMut14visit_type_mut, symObjAddr: 0x146E0, symBinAddr: 0x25200, symSize: 0x110 }
  - { offset: 0x23283, size: 0x8, addend: 0x0, symName: __RNvYNtNtCsjTXeTLYUiB9_18tracing_attributes6expand15ImplTraitEraserNtNtNtCsdGrGZaRBwMb_3syn3gen9visit_mut8VisitMut13visit_abi_mutB6_, symObjAddr: 0x148B0, symBinAddr: 0x253D0, symSize: 0x30 }
  - { offset: 0x232C2, size: 0x8, addend: 0x0, symName: __RNvYNtNtCsjTXeTLYUiB9_18tracing_attributes6expand15ImplTraitEraserNtNtNtCsdGrGZaRBwMb_3syn3gen9visit_mut8VisitMut13visit_arm_mutB6_, symObjAddr: 0x148E0, symBinAddr: 0x25400, symSize: 0x30 }
  - { offset: 0x23301, size: 0x8, addend: 0x0, symName: __RNvYNtNtCsjTXeTLYUiB9_18tracing_attributes6expand15ImplTraitEraserNtNtNtCsdGrGZaRBwMb_3syn3gen9visit_mut8VisitMut13visit_lit_mutB6_, symObjAddr: 0x14910, symBinAddr: 0x25430, symSize: 0x30 }
  - { offset: 0x23343, size: 0x8, addend: 0x0, symName: __RNvYNtNtCsjTXeTLYUiB9_18tracing_attributes6expand15ImplTraitEraserNtNtNtCsdGrGZaRBwMb_3syn3gen9visit_mut8VisitMut13visit_pat_mutB6_, symObjAddr: 0x14940, symBinAddr: 0x25460, symSize: 0x30 }
  - { offset: 0x23385, size: 0x8, addend: 0x0, symName: __RNvYNtNtCsjTXeTLYUiB9_18tracing_attributes6expand15ImplTraitEraserNtNtNtCsdGrGZaRBwMb_3syn3gen9visit_mut8VisitMut14visit_expr_mutB6_, symObjAddr: 0x14970, symBinAddr: 0x25490, symSize: 0x30 }
  - { offset: 0x233C4, size: 0x8, addend: 0x0, symName: __RNvYNtNtCsjTXeTLYUiB9_18tracing_attributes6expand15ImplTraitEraserNtNtNtCsdGrGZaRBwMb_3syn3gen9visit_mut8VisitMut14visit_item_mutB6_, symObjAddr: 0x149A0, symBinAddr: 0x254C0, symSize: 0x30 }
  - { offset: 0x23406, size: 0x8, addend: 0x0, symName: __RNvYNtNtCsjTXeTLYUiB9_18tracing_attributes6expand15ImplTraitEraserNtNtNtCsdGrGZaRBwMb_3syn3gen9visit_mut8VisitMut14visit_meta_mutB6_, symObjAddr: 0x149D0, symBinAddr: 0x254F0, symSize: 0x30 }
  - { offset: 0x23448, size: 0x8, addend: 0x0, symName: __RNvYNtNtCsjTXeTLYUiB9_18tracing_attributes6expand15ImplTraitEraserNtNtNtCsdGrGZaRBwMb_3syn3gen9visit_mut8VisitMut14visit_path_mutB6_, symObjAddr: 0x14A00, symBinAddr: 0x25520, symSize: 0x30 }
  - { offset: 0x2348A, size: 0x8, addend: 0x0, symName: __RNvYNtNtCsjTXeTLYUiB9_18tracing_attributes6expand15ImplTraitEraserNtNtNtCsdGrGZaRBwMb_3syn3gen9visit_mut8VisitMut14visit_span_mutB6_, symObjAddr: 0x14A30, symBinAddr: 0x25550, symSize: 0x20 }
  - { offset: 0x234CC, size: 0x8, addend: 0x0, symName: __RNvYNtNtCsjTXeTLYUiB9_18tracing_attributes6expand15ImplTraitEraserNtNtNtCsdGrGZaRBwMb_3syn3gen9visit_mut8VisitMut14visit_stmt_mutB6_, symObjAddr: 0x14A50, symBinAddr: 0x25570, symSize: 0x30 }
  - { offset: 0x2350E, size: 0x8, addend: 0x0, symName: __RNvYNtNtCsjTXeTLYUiB9_18tracing_attributes6expand15ImplTraitEraserNtNtNtCsdGrGZaRBwMb_3syn3gen9visit_mut8VisitMut15visit_block_mutB6_, symObjAddr: 0x14A80, symBinAddr: 0x255A0, symSize: 0x30 }
  - { offset: 0x2354D, size: 0x8, addend: 0x0, symName: __RNvYNtNtCsjTXeTLYUiB9_18tracing_attributes6expand15ImplTraitEraserNtNtNtCsdGrGZaRBwMb_3syn3gen9visit_mut8VisitMut15visit_field_mutB6_, symObjAddr: 0x14AB0, symBinAddr: 0x255D0, symSize: 0x30 }
  - { offset: 0x2358F, size: 0x8, addend: 0x0, symName: __RNvYNtNtCsjTXeTLYUiB9_18tracing_attributes6expand15ImplTraitEraserNtNtNtCsdGrGZaRBwMb_3syn3gen9visit_mut8VisitMut15visit_ident_mutB6_, symObjAddr: 0x14AE0, symBinAddr: 0x25600, symSize: 0x30 }
  - { offset: 0x235D1, size: 0x8, addend: 0x0, symName: __RNvYNtNtCsjTXeTLYUiB9_18tracing_attributes6expand15ImplTraitEraserNtNtNtCsdGrGZaRBwMb_3syn3gen9visit_mut8VisitMut15visit_index_mutB6_, symObjAddr: 0x14B10, symBinAddr: 0x25630, symSize: 0x30 }
  - { offset: 0x23613, size: 0x8, addend: 0x0, symName: __RNvYNtNtCsjTXeTLYUiB9_18tracing_attributes6expand15ImplTraitEraserNtNtNtCsdGrGZaRBwMb_3syn3gen9visit_mut8VisitMut15visit_label_mutB6_, symObjAddr: 0x14B40, symBinAddr: 0x25660, symSize: 0x30 }
  - { offset: 0x23655, size: 0x8, addend: 0x0, symName: __RNvYNtNtCsjTXeTLYUiB9_18tracing_attributes6expand15ImplTraitEraserNtNtNtCsdGrGZaRBwMb_3syn3gen9visit_mut8VisitMut15visit_local_mutB6_, symObjAddr: 0x14B70, symBinAddr: 0x25690, symSize: 0x30 }
  - { offset: 0x23697, size: 0x8, addend: 0x0, symName: __RNvYNtNtCsjTXeTLYUiB9_18tracing_attributes6expand15ImplTraitEraserNtNtNtCsdGrGZaRBwMb_3syn3gen9visit_mut8VisitMut15visit_macro_mutB6_, symObjAddr: 0x14BA0, symBinAddr: 0x256C0, symSize: 0x30 }
  - { offset: 0x236D9, size: 0x8, addend: 0x0, symName: __RNvYNtNtCsjTXeTLYUiB9_18tracing_attributes6expand15ImplTraitEraserNtNtNtCsdGrGZaRBwMb_3syn3gen9visit_mut8VisitMut15visit_qself_mutB6_, symObjAddr: 0x14BD0, symBinAddr: 0x256F0, symSize: 0x30 }
  - { offset: 0x2371B, size: 0x8, addend: 0x0, symName: __RNvYNtNtCsjTXeTLYUiB9_18tracing_attributes6expand15ImplTraitEraserNtNtNtCsdGrGZaRBwMb_3syn3gen9visit_mut8VisitMut15visit_un_op_mutB6_, symObjAddr: 0x14C00, symBinAddr: 0x25720, symSize: 0x30 }
  - { offset: 0x2375D, size: 0x8, addend: 0x0, symName: __RNvYNtNtCsjTXeTLYUiB9_18tracing_attributes6expand15ImplTraitEraserNtNtNtCsdGrGZaRBwMb_3syn3gen9visit_mut8VisitMut16visit_bin_op_mutB6_, symObjAddr: 0x14C30, symBinAddr: 0x25750, symSize: 0x30 }
  - { offset: 0x2379C, size: 0x8, addend: 0x0, symName: __RNvYNtNtCsjTXeTLYUiB9_18tracing_attributes6expand15ImplTraitEraserNtNtNtCsdGrGZaRBwMb_3syn3gen9visit_mut8VisitMut16visit_fields_mutB6_, symObjAddr: 0x14C60, symBinAddr: 0x25780, symSize: 0x30 }
  - { offset: 0x237DE, size: 0x8, addend: 0x0, symName: __RNvYNtNtCsjTXeTLYUiB9_18tracing_attributes6expand15ImplTraitEraserNtNtNtCsdGrGZaRBwMb_3syn3gen9visit_mut8VisitMut16visit_fn_arg_mutB6_, symObjAddr: 0x14C90, symBinAddr: 0x257B0, symSize: 0x30 }
  - { offset: 0x23820, size: 0x8, addend: 0x0, symName: __RNvYNtNtCsjTXeTLYUiB9_18tracing_attributes6expand15ImplTraitEraserNtNtNtCsdGrGZaRBwMb_3syn3gen9visit_mut8VisitMut16visit_member_mutB6_, symObjAddr: 0x14CC0, symBinAddr: 0x257E0, symSize: 0x30 }
  - { offset: 0x23862, size: 0x8, addend: 0x0, symName: __RNvYNtNtCsjTXeTLYUiB9_18tracing_attributes6expand15ImplTraitEraserNtNtNtCsdGrGZaRBwMb_3syn3gen9visit_mut8VisitMut16visit_pat_or_mutB6_, symObjAddr: 0x14CF0, symBinAddr: 0x25810, symSize: 0x30 }
  - { offset: 0x238A4, size: 0x8, addend: 0x0, symName: __RNvYNtNtCsjTXeTLYUiB9_18tracing_attributes6expand15ImplTraitEraserNtNtNtCsdGrGZaRBwMb_3syn3gen9visit_mut8VisitMut17visit_expr_if_mutB6_, symObjAddr: 0x14D20, symBinAddr: 0x25840, symSize: 0x30 }
  - { offset: 0x238E3, size: 0x8, addend: 0x0, symName: __RNvYNtNtCsjTXeTLYUiB9_18tracing_attributes6expand15ImplTraitEraserNtNtNtCsdGrGZaRBwMb_3syn3gen9visit_mut8VisitMut17visit_item_fn_mutB6_, symObjAddr: 0x14D50, symBinAddr: 0x25870, symSize: 0x30 }
  - { offset: 0x23925, size: 0x8, addend: 0x0, symName: __RNvYNtNtCsjTXeTLYUiB9_18tracing_attributes6expand15ImplTraitEraserNtNtNtCsdGrGZaRBwMb_3syn3gen9visit_mut8VisitMut17visit_lit_int_mutB6_, symObjAddr: 0x14D80, symBinAddr: 0x258A0, symSize: 0x30 }
  - { offset: 0x23967, size: 0x8, addend: 0x0, symName: __RNvYNtNtCsjTXeTLYUiB9_18tracing_attributes6expand15ImplTraitEraserNtNtNtCsdGrGZaRBwMb_3syn3gen9visit_mut8VisitMut17visit_lit_str_mutB6_, symObjAddr: 0x14DB0, symBinAddr: 0x258D0, symSize: 0x30 }
  - { offset: 0x239A9, size: 0x8, addend: 0x0, symName: __RNvYNtNtCsjTXeTLYUiB9_18tracing_attributes6expand15ImplTraitEraserNtNtNtCsdGrGZaRBwMb_3syn3gen9visit_mut8VisitMut17visit_variant_mutB6_, symObjAddr: 0x14DE0, symBinAddr: 0x25900, symSize: 0x30 }
  - { offset: 0x239EB, size: 0x8, addend: 0x0, symName: __RNvYNtNtCsjTXeTLYUiB9_18tracing_attributes6expand15ImplTraitEraserNtNtNtCsdGrGZaRBwMb_3syn3gen9visit_mut8VisitMut18visit_expr_let_mutB6_, symObjAddr: 0x14E10, symBinAddr: 0x25930, symSize: 0x30 }
  - { offset: 0x23A2A, size: 0x8, addend: 0x0, symName: __RNvYNtNtCsjTXeTLYUiB9_18tracing_attributes6expand15ImplTraitEraserNtNtNtCsdGrGZaRBwMb_3syn3gen9visit_mut8VisitMut18visit_expr_lit_mutB6_, symObjAddr: 0x14E40, symBinAddr: 0x25960, symSize: 0x30 }
  - { offset: 0x23A69, size: 0x8, addend: 0x0, symName: __RNvYNtNtCsjTXeTLYUiB9_18tracing_attributes6expand15ImplTraitEraserNtNtNtCsdGrGZaRBwMb_3syn3gen9visit_mut8VisitMut18visit_expr_try_mutB6_, symObjAddr: 0x14E70, symBinAddr: 0x25990, symSize: 0x30 }
  - { offset: 0x23AAB, size: 0x8, addend: 0x0, symName: __RNvYNtNtCsjTXeTLYUiB9_18tracing_attributes6expand15ImplTraitEraserNtNtNtCsdGrGZaRBwMb_3syn3gen9visit_mut8VisitMut18visit_generics_mutB6_, symObjAddr: 0x14EA0, symBinAddr: 0x259C0, symSize: 0x30 }
  - { offset: 0x23AED, size: 0x8, addend: 0x0, symName: __RNvYNtNtCsjTXeTLYUiB9_18tracing_attributes6expand15ImplTraitEraserNtNtNtCsdGrGZaRBwMb_3syn3gen9visit_mut8VisitMut18visit_item_mod_mutB6_, symObjAddr: 0x14ED0, symBinAddr: 0x259F0, symSize: 0x30 }
  - { offset: 0x23B2F, size: 0x8, addend: 0x0, symName: __RNvYNtNtCsjTXeTLYUiB9_18tracing_attributes6expand15ImplTraitEraserNtNtNtCsdGrGZaRBwMb_3syn3gen9visit_mut8VisitMut18visit_item_use_mutB6_, symObjAddr: 0x14F00, symBinAddr: 0x25A20, symSize: 0x30 }
  - { offset: 0x23B71, size: 0x8, addend: 0x0, symName: __RNvYNtNtCsjTXeTLYUiB9_18tracing_attributes6expand15ImplTraitEraserNtNtNtCsdGrGZaRBwMb_3syn3gen9visit_mut8VisitMut18visit_lifetime_mutB6_, symObjAddr: 0x14F30, symBinAddr: 0x25A50, symSize: 0x30 }
  - { offset: 0x23BB3, size: 0x8, addend: 0x0, symName: __RNvYNtNtCsjTXeTLYUiB9_18tracing_attributes6expand15ImplTraitEraserNtNtNtCsdGrGZaRBwMb_3syn3gen9visit_mut8VisitMut18visit_lit_bool_mutB6_, symObjAddr: 0x14F60, symBinAddr: 0x25A80, symSize: 0x30 }
  - { offset: 0x23BF5, size: 0x8, addend: 0x0, symName: __RNvYNtNtCsjTXeTLYUiB9_18tracing_attributes6expand15ImplTraitEraserNtNtNtCsdGrGZaRBwMb_3syn3gen9visit_mut8VisitMut18visit_lit_byte_mutB6_, symObjAddr: 0x14F90, symBinAddr: 0x25AB0, symSize: 0x30 }
  - { offset: 0x23C37, size: 0x8, addend: 0x0, symName: __RNvYNtNtCsjTXeTLYUiB9_18tracing_attributes6expand15ImplTraitEraserNtNtNtCsdGrGZaRBwMb_3syn3gen9visit_mut8VisitMut18visit_lit_char_mutB6_, symObjAddr: 0x14FC0, symBinAddr: 0x25AE0, symSize: 0x30 }
  - { offset: 0x23C79, size: 0x8, addend: 0x0, symName: __RNvYNtNtCsjTXeTLYUiB9_18tracing_attributes6expand15ImplTraitEraserNtNtNtCsdGrGZaRBwMb_3syn3gen9visit_mut8VisitMut18visit_lit_cstr_mutB6_, symObjAddr: 0x14FF0, symBinAddr: 0x25B10, symSize: 0x30 }
  - { offset: 0x23CBB, size: 0x8, addend: 0x0, symName: __RNvYNtNtCsjTXeTLYUiB9_18tracing_attributes6expand15ImplTraitEraserNtNtNtCsdGrGZaRBwMb_3syn3gen9visit_mut8VisitMut18visit_pat_rest_mutB6_, symObjAddr: 0x15020, symBinAddr: 0x25B40, symSize: 0x30 }
  - { offset: 0x23CFD, size: 0x8, addend: 0x0, symName: __RNvYNtNtCsjTXeTLYUiB9_18tracing_attributes6expand15ImplTraitEraserNtNtNtCsdGrGZaRBwMb_3syn3gen9visit_mut8VisitMut18visit_pat_type_mutB6_, symObjAddr: 0x15050, symBinAddr: 0x25B70, symSize: 0x30 }
  - { offset: 0x23D3F, size: 0x8, addend: 0x0, symName: __RNvYNtNtCsjTXeTLYUiB9_18tracing_attributes6expand15ImplTraitEraserNtNtNtCsdGrGZaRBwMb_3syn3gen9visit_mut8VisitMut18visit_pat_wild_mutB6_, symObjAddr: 0x15080, symBinAddr: 0x25BA0, symSize: 0x30 }
  - { offset: 0x23D81, size: 0x8, addend: 0x0, symName: __RNvYNtNtCsjTXeTLYUiB9_18tracing_attributes6expand15ImplTraitEraserNtNtNtCsdGrGZaRBwMb_3syn3gen9visit_mut8VisitMut18visit_receiver_mutB6_, symObjAddr: 0x150B0, symBinAddr: 0x25BD0, symSize: 0x30 }
  - { offset: 0x23DC3, size: 0x8, addend: 0x0, symName: __RNvYNtNtCsjTXeTLYUiB9_18tracing_attributes6expand15ImplTraitEraserNtNtNtCsdGrGZaRBwMb_3syn3gen9visit_mut8VisitMut18visit_type_ptr_mutB6_, symObjAddr: 0x150E0, symBinAddr: 0x25C00, symSize: 0x30 }
  - { offset: 0x23E05, size: 0x8, addend: 0x0, symName: __RNvYNtNtCsjTXeTLYUiB9_18tracing_attributes6expand15ImplTraitEraserNtNtNtCsdGrGZaRBwMb_3syn3gen9visit_mut8VisitMut18visit_use_glob_mutB6_, symObjAddr: 0x15110, symBinAddr: 0x25C30, symSize: 0x30 }
  - { offset: 0x23E47, size: 0x8, addend: 0x0, symName: __RNvYNtNtCsjTXeTLYUiB9_18tracing_attributes6expand15ImplTraitEraserNtNtNtCsdGrGZaRBwMb_3syn3gen9visit_mut8VisitMut18visit_use_name_mutB6_, symObjAddr: 0x15140, symBinAddr: 0x25C60, symSize: 0x30 }
  - { offset: 0x23E89, size: 0x8, addend: 0x0, symName: __RNvYNtNtCsjTXeTLYUiB9_18tracing_attributes6expand15ImplTraitEraserNtNtNtCsdGrGZaRBwMb_3syn3gen9visit_mut8VisitMut18visit_use_path_mutB6_, symObjAddr: 0x15170, symBinAddr: 0x25C90, symSize: 0x30 }
  - { offset: 0x23ECB, size: 0x8, addend: 0x0, symName: __RNvYNtNtCsjTXeTLYUiB9_18tracing_attributes6expand15ImplTraitEraserNtNtNtCsdGrGZaRBwMb_3syn3gen9visit_mut8VisitMut18visit_use_tree_mutB6_, symObjAddr: 0x151A0, symBinAddr: 0x25CC0, symSize: 0x30 }
  - { offset: 0x23F0D, size: 0x8, addend: 0x0, symName: __RNvYNtNtCsjTXeTLYUiB9_18tracing_attributes6expand15ImplTraitEraserNtNtNtCsdGrGZaRBwMb_3syn3gen9visit_mut8VisitMut18visit_variadic_mutB6_, symObjAddr: 0x151D0, symBinAddr: 0x25CF0, symSize: 0x30 }
  - { offset: 0x23F4F, size: 0x8, addend: 0x0, symName: __RNvYNtNtCsjTXeTLYUiB9_18tracing_attributes6expand15ImplTraitEraserNtNtNtCsdGrGZaRBwMb_3syn3gen9visit_mut8VisitMut19visit_attribute_mutB6_, symObjAddr: 0x15200, symBinAddr: 0x25D20, symSize: 0x30 }
  - { offset: 0x23F8E, size: 0x8, addend: 0x0, symName: __RNvYNtNtCsjTXeTLYUiB9_18tracing_attributes6expand15ImplTraitEraserNtNtNtCsdGrGZaRBwMb_3syn3gen9visit_mut8VisitMut19visit_expr_call_mutB6_, symObjAddr: 0x15230, symBinAddr: 0x25D50, symSize: 0x30 }
  - { offset: 0x23FCD, size: 0x8, addend: 0x0, symName: __RNvYNtNtCsjTXeTLYUiB9_18tracing_attributes6expand15ImplTraitEraserNtNtNtCsdGrGZaRBwMb_3syn3gen9visit_mut8VisitMut19visit_expr_cast_mutB6_, symObjAddr: 0x15260, symBinAddr: 0x25D80, symSize: 0x30 }
  - { offset: 0x2400C, size: 0x8, addend: 0x0, symName: __RNvYNtNtCsjTXeTLYUiB9_18tracing_attributes6expand15ImplTraitEraserNtNtNtCsdGrGZaRBwMb_3syn3gen9visit_mut8VisitMut19visit_expr_loop_mutB6_, symObjAddr: 0x15290, symBinAddr: 0x25DB0, symSize: 0x30 }
  - { offset: 0x2404B, size: 0x8, addend: 0x0, symName: __RNvYNtNtCsjTXeTLYUiB9_18tracing_attributes6expand15ImplTraitEraserNtNtNtCsdGrGZaRBwMb_3syn3gen9visit_mut8VisitMut19visit_expr_path_mutB6_, symObjAddr: 0x152C0, symBinAddr: 0x25DE0, symSize: 0x30 }
  - { offset: 0x2408D, size: 0x8, addend: 0x0, symName: __RNvYNtNtCsjTXeTLYUiB9_18tracing_attributes6expand15ImplTraitEraserNtNtNtCsdGrGZaRBwMb_3syn3gen9visit_mut8VisitMut19visit_field_pat_mutB6_, symObjAddr: 0x152F0, symBinAddr: 0x25E10, symSize: 0x30 }
  - { offset: 0x240CF, size: 0x8, addend: 0x0, symName: __RNvYNtNtCsjTXeTLYUiB9_18tracing_attributes6expand15ImplTraitEraserNtNtNtCsdGrGZaRBwMb_3syn3gen9visit_mut8VisitMut19visit_impl_item_mutB6_, symObjAddr: 0x15320, symBinAddr: 0x25E40, symSize: 0x30 }
  - { offset: 0x24111, size: 0x8, addend: 0x0, symName: __RNvYNtNtCsjTXeTLYUiB9_18tracing_attributes6expand15ImplTraitEraserNtNtNtCsdGrGZaRBwMb_3syn3gen9visit_mut8VisitMut19visit_item_enum_mutB6_, symObjAddr: 0x15350, symBinAddr: 0x25E70, symSize: 0x30 }
  - { offset: 0x24153, size: 0x8, addend: 0x0, symName: __RNvYNtNtCsjTXeTLYUiB9_18tracing_attributes6expand15ImplTraitEraserNtNtNtCsdGrGZaRBwMb_3syn3gen9visit_mut8VisitMut19visit_item_impl_mutB6_, symObjAddr: 0x15380, symBinAddr: 0x25EA0, symSize: 0x30 }
  - { offset: 0x24195, size: 0x8, addend: 0x0, symName: __RNvYNtNtCsjTXeTLYUiB9_18tracing_attributes6expand15ImplTraitEraserNtNtNtCsdGrGZaRBwMb_3syn3gen9visit_mut8VisitMut19visit_item_type_mutB6_, symObjAddr: 0x153B0, symBinAddr: 0x25ED0, symSize: 0x30 }
  - { offset: 0x241D7, size: 0x8, addend: 0x0, symName: __RNvYNtNtCsjTXeTLYUiB9_18tracing_attributes6expand15ImplTraitEraserNtNtNtCsdGrGZaRBwMb_3syn3gen9visit_mut8VisitMut19visit_lit_float_mutB6_, symObjAddr: 0x153E0, symBinAddr: 0x25F00, symSize: 0x30 }
  - { offset: 0x24219, size: 0x8, addend: 0x0, symName: __RNvYNtNtCsjTXeTLYUiB9_18tracing_attributes6expand15ImplTraitEraserNtNtNtCsdGrGZaRBwMb_3syn3gen9visit_mut8VisitMut19visit_meta_list_mutB6_, symObjAddr: 0x15410, symBinAddr: 0x25F30, symSize: 0x30 }
  - { offset: 0x2425B, size: 0x8, addend: 0x0, symName: __RNvYNtNtCsjTXeTLYUiB9_18tracing_attributes6expand15ImplTraitEraserNtNtNtCsdGrGZaRBwMb_3syn3gen9visit_mut8VisitMut19visit_pat_ident_mutB6_, symObjAddr: 0x15440, symBinAddr: 0x25F60, symSize: 0x30 }
  - { offset: 0x2429D, size: 0x8, addend: 0x0, symName: __RNvYNtNtCsjTXeTLYUiB9_18tracing_attributes6expand15ImplTraitEraserNtNtNtCsdGrGZaRBwMb_3syn3gen9visit_mut8VisitMut19visit_pat_paren_mutB6_, symObjAddr: 0x15470, symBinAddr: 0x25F90, symSize: 0x30 }
  - { offset: 0x242DF, size: 0x8, addend: 0x0, symName: __RNvYNtNtCsjTXeTLYUiB9_18tracing_attributes6expand15ImplTraitEraserNtNtNtCsdGrGZaRBwMb_3syn3gen9visit_mut8VisitMut19visit_pat_slice_mutB6_, symObjAddr: 0x154A0, symBinAddr: 0x25FC0, symSize: 0x30 }
  - { offset: 0x24321, size: 0x8, addend: 0x0, symName: __RNvYNtNtCsjTXeTLYUiB9_18tracing_attributes6expand15ImplTraitEraserNtNtNtCsdGrGZaRBwMb_3syn3gen9visit_mut8VisitMut19visit_pat_tuple_mutB6_, symObjAddr: 0x154D0, symBinAddr: 0x25FF0, symSize: 0x30 }
  - { offset: 0x24363, size: 0x8, addend: 0x0, symName: __RNvYNtNtCsjTXeTLYUiB9_18tracing_attributes6expand15ImplTraitEraserNtNtNtCsdGrGZaRBwMb_3syn3gen9visit_mut8VisitMut19visit_signature_mutB6_, symObjAddr: 0x15500, symBinAddr: 0x26020, symSize: 0x30 }
  - { offset: 0x243A5, size: 0x8, addend: 0x0, symName: __RNvYNtNtCsjTXeTLYUiB9_18tracing_attributes6expand15ImplTraitEraserNtNtNtCsdGrGZaRBwMb_3syn3gen9visit_mut8VisitMut19visit_type_path_mutB6_, symObjAddr: 0x15530, symBinAddr: 0x26050, symSize: 0x30 }
  - { offset: 0x243E7, size: 0x8, addend: 0x0, symName: __RNvYNtNtCsjTXeTLYUiB9_18tracing_attributes6expand15ImplTraitEraserNtNtNtCsdGrGZaRBwMb_3syn3gen9visit_mut8VisitMut19visit_use_group_mutB6_, symObjAddr: 0x15560, symBinAddr: 0x26080, symSize: 0x30 }
  - { offset: 0x24429, size: 0x8, addend: 0x0, symName: __RNvYNtNtCsjTXeTLYUiB9_18tracing_attributes6expand15ImplTraitEraserNtNtNtCsdGrGZaRBwMb_3syn3gen9visit_mut8VisitMut20visit_assoc_type_mutB6_, symObjAddr: 0x15590, symBinAddr: 0x260B0, symSize: 0x30 }
  - { offset: 0x24468, size: 0x8, addend: 0x0, symName: __RNvYNtNtCsjTXeTLYUiB9_18tracing_attributes6expand15ImplTraitEraserNtNtNtCsdGrGZaRBwMb_3syn3gen9visit_mut8VisitMut20visit_attr_style_mutB6_, symObjAddr: 0x155C0, symBinAddr: 0x260E0, symSize: 0x30 }
  - { offset: 0x244A7, size: 0x8, addend: 0x0, symName: __RNvYNtNtCsjTXeTLYUiB9_18tracing_attributes6expand15ImplTraitEraserNtNtNtCsdGrGZaRBwMb_3syn3gen9visit_mut8VisitMut20visit_attributes_mutB6_, symObjAddr: 0x155F0, symBinAddr: 0x26110, symSize: 0x80 }
  - { offset: 0x24520, size: 0x8, addend: 0x0, symName: __RNvYNtNtCsjTXeTLYUiB9_18tracing_attributes6expand15ImplTraitEraserNtNtNtCsdGrGZaRBwMb_3syn3gen9visit_mut8VisitMut20visit_constraint_mutB6_, symObjAddr: 0x15670, symBinAddr: 0x26190, symSize: 0x30 }
  - { offset: 0x2455F, size: 0x8, addend: 0x0, symName: __RNvYNtNtCsjTXeTLYUiB9_18tracing_attributes6expand15ImplTraitEraserNtNtNtCsdGrGZaRBwMb_3syn3gen9visit_mut8VisitMut20visit_expr_array_mutB6_, symObjAddr: 0x156A0, symBinAddr: 0x261C0, symSize: 0x30 }
  - { offset: 0x2459E, size: 0x8, addend: 0x0, symName: __RNvYNtNtCsjTXeTLYUiB9_18tracing_attributes6expand15ImplTraitEraserNtNtNtCsdGrGZaRBwMb_3syn3gen9visit_mut8VisitMut20visit_expr_async_mutB6_, symObjAddr: 0x156D0, symBinAddr: 0x261F0, symSize: 0x30 }
  - { offset: 0x245DD, size: 0x8, addend: 0x0, symName: __RNvYNtNtCsjTXeTLYUiB9_18tracing_attributes6expand15ImplTraitEraserNtNtNtCsdGrGZaRBwMb_3syn3gen9visit_mut8VisitMut20visit_expr_await_mutB6_, symObjAddr: 0x15700, symBinAddr: 0x26220, symSize: 0x30 }
  - { offset: 0x2461C, size: 0x8, addend: 0x0, symName: __RNvYNtNtCsjTXeTLYUiB9_18tracing_attributes6expand15ImplTraitEraserNtNtNtCsdGrGZaRBwMb_3syn3gen9visit_mut8VisitMut20visit_expr_block_mutB6_, symObjAddr: 0x15730, symBinAddr: 0x26250, symSize: 0x30 }
  - { offset: 0x2465B, size: 0x8, addend: 0x0, symName: __RNvYNtNtCsjTXeTLYUiB9_18tracing_attributes6expand15ImplTraitEraserNtNtNtCsdGrGZaRBwMb_3syn3gen9visit_mut8VisitMut20visit_expr_break_mutB6_, symObjAddr: 0x15760, symBinAddr: 0x26280, symSize: 0x30 }
  - { offset: 0x2469A, size: 0x8, addend: 0x0, symName: __RNvYNtNtCsjTXeTLYUiB9_18tracing_attributes6expand15ImplTraitEraserNtNtNtCsdGrGZaRBwMb_3syn3gen9visit_mut8VisitMut20visit_expr_const_mutB6_, symObjAddr: 0x15790, symBinAddr: 0x262B0, symSize: 0x30 }
  - { offset: 0x246D9, size: 0x8, addend: 0x0, symName: __RNvYNtNtCsjTXeTLYUiB9_18tracing_attributes6expand15ImplTraitEraserNtNtNtCsdGrGZaRBwMb_3syn3gen9visit_mut8VisitMut20visit_expr_field_mutB6_, symObjAddr: 0x157C0, symBinAddr: 0x262E0, symSize: 0x30 }
  - { offset: 0x24718, size: 0x8, addend: 0x0, symName: __RNvYNtNtCsjTXeTLYUiB9_18tracing_attributes6expand15ImplTraitEraserNtNtNtCsdGrGZaRBwMb_3syn3gen9visit_mut8VisitMut20visit_expr_group_mutB6_, symObjAddr: 0x157F0, symBinAddr: 0x26310, symSize: 0x30 }
  - { offset: 0x24757, size: 0x8, addend: 0x0, symName: __RNvYNtNtCsjTXeTLYUiB9_18tracing_attributes6expand15ImplTraitEraserNtNtNtCsdGrGZaRBwMb_3syn3gen9visit_mut8VisitMut20visit_expr_index_mutB6_, symObjAddr: 0x15820, symBinAddr: 0x26340, symSize: 0x30 }
  - { offset: 0x24796, size: 0x8, addend: 0x0, symName: __RNvYNtNtCsjTXeTLYUiB9_18tracing_attributes6expand15ImplTraitEraserNtNtNtCsdGrGZaRBwMb_3syn3gen9visit_mut8VisitMut20visit_expr_infer_mutB6_, symObjAddr: 0x15850, symBinAddr: 0x26370, symSize: 0x30 }
  - { offset: 0x247D5, size: 0x8, addend: 0x0, symName: __RNvYNtNtCsjTXeTLYUiB9_18tracing_attributes6expand15ImplTraitEraserNtNtNtCsdGrGZaRBwMb_3syn3gen9visit_mut8VisitMut20visit_expr_macro_mutB6_, symObjAddr: 0x15880, symBinAddr: 0x263A0, symSize: 0x30 }
  - { offset: 0x24814, size: 0x8, addend: 0x0, symName: __RNvYNtNtCsjTXeTLYUiB9_18tracing_attributes6expand15ImplTraitEraserNtNtNtCsdGrGZaRBwMb_3syn3gen9visit_mut8VisitMut20visit_expr_match_mutB6_, symObjAddr: 0x158B0, symBinAddr: 0x263D0, symSize: 0x30 }
  - { offset: 0x24856, size: 0x8, addend: 0x0, symName: __RNvYNtNtCsjTXeTLYUiB9_18tracing_attributes6expand15ImplTraitEraserNtNtNtCsdGrGZaRBwMb_3syn3gen9visit_mut8VisitMut20visit_expr_paren_mutB6_, symObjAddr: 0x158E0, symBinAddr: 0x26400, symSize: 0x30 }
  - { offset: 0x24898, size: 0x8, addend: 0x0, symName: __RNvYNtNtCsjTXeTLYUiB9_18tracing_attributes6expand15ImplTraitEraserNtNtNtCsdGrGZaRBwMb_3syn3gen9visit_mut8VisitMut20visit_expr_range_mutB6_, symObjAddr: 0x15910, symBinAddr: 0x26430, symSize: 0x30 }
  - { offset: 0x248DA, size: 0x8, addend: 0x0, symName: __RNvYNtNtCsjTXeTLYUiB9_18tracing_attributes6expand15ImplTraitEraserNtNtNtCsdGrGZaRBwMb_3syn3gen9visit_mut8VisitMut20visit_expr_tuple_mutB6_, symObjAddr: 0x15940, symBinAddr: 0x26460, symSize: 0x30 }
  - { offset: 0x2491C, size: 0x8, addend: 0x0, symName: __RNvYNtNtCsjTXeTLYUiB9_18tracing_attributes6expand15ImplTraitEraserNtNtNtCsdGrGZaRBwMb_3syn3gen9visit_mut8VisitMut20visit_expr_unary_mutB6_, symObjAddr: 0x15970, symBinAddr: 0x26490, symSize: 0x30 }
  - { offset: 0x2495E, size: 0x8, addend: 0x0, symName: __RNvYNtNtCsjTXeTLYUiB9_18tracing_attributes6expand15ImplTraitEraserNtNtNtCsdGrGZaRBwMb_3syn3gen9visit_mut8VisitMut20visit_expr_while_mutB6_, symObjAddr: 0x159A0, symBinAddr: 0x264C0, symSize: 0x30 }
  - { offset: 0x249A0, size: 0x8, addend: 0x0, symName: __RNvYNtNtCsjTXeTLYUiB9_18tracing_attributes6expand15ImplTraitEraserNtNtNtCsdGrGZaRBwMb_3syn3gen9visit_mut8VisitMut20visit_expr_yield_mutB6_, symObjAddr: 0x159D0, symBinAddr: 0x264F0, symSize: 0x30 }
  - { offset: 0x249E2, size: 0x8, addend: 0x0, symName: __RNvYNtNtCsjTXeTLYUiB9_18tracing_attributes6expand15ImplTraitEraserNtNtNtCsdGrGZaRBwMb_3syn3gen9visit_mut8VisitMut20visit_item_const_mutB6_, symObjAddr: 0x15A00, symBinAddr: 0x26520, symSize: 0x30 }
  - { offset: 0x24A24, size: 0x8, addend: 0x0, symName: __RNvYNtNtCsjTXeTLYUiB9_18tracing_attributes6expand15ImplTraitEraserNtNtNtCsdGrGZaRBwMb_3syn3gen9visit_mut8VisitMut20visit_item_macro_mutB6_, symObjAddr: 0x15A30, symBinAddr: 0x26550, symSize: 0x30 }
  - { offset: 0x24A66, size: 0x8, addend: 0x0, symName: __RNvYNtNtCsjTXeTLYUiB9_18tracing_attributes6expand15ImplTraitEraserNtNtNtCsdGrGZaRBwMb_3syn3gen9visit_mut8VisitMut20visit_item_trait_mutB6_, symObjAddr: 0x15A60, symBinAddr: 0x26580, symSize: 0x30 }
  - { offset: 0x24AA8, size: 0x8, addend: 0x0, symName: __RNvYNtNtCsjTXeTLYUiB9_18tracing_attributes6expand15ImplTraitEraserNtNtNtCsdGrGZaRBwMb_3syn3gen9visit_mut8VisitMut20visit_item_union_mutB6_, symObjAddr: 0x15A90, symBinAddr: 0x265B0, symSize: 0x30 }
  - { offset: 0x24AEA, size: 0x8, addend: 0x0, symName: __RNvYNtNtCsjTXeTLYUiB9_18tracing_attributes6expand15ImplTraitEraserNtNtNtCsdGrGZaRBwMb_3syn3gen9visit_mut8VisitMut20visit_local_init_mutB6_, symObjAddr: 0x15AC0, symBinAddr: 0x265E0, symSize: 0x30 }
  - { offset: 0x24B2C, size: 0x8, addend: 0x0, symName: __RNvYNtNtCsjTXeTLYUiB9_18tracing_attributes6expand15ImplTraitEraserNtNtNtCsdGrGZaRBwMb_3syn3gen9visit_mut8VisitMut20visit_pat_struct_mutB6_, symObjAddr: 0x15AF0, symBinAddr: 0x26610, symSize: 0x30 }
  - { offset: 0x24B6E, size: 0x8, addend: 0x0, symName: __RNvYNtNtCsjTXeTLYUiB9_18tracing_attributes6expand15ImplTraitEraserNtNtNtCsdGrGZaRBwMb_3syn3gen9visit_mut8VisitMut20visit_stmt_macro_mutB6_, symObjAddr: 0x15B20, symBinAddr: 0x26640, symSize: 0x30 }
  - { offset: 0x24BB0, size: 0x8, addend: 0x0, symName: __RNvYNtNtCsjTXeTLYUiB9_18tracing_attributes6expand15ImplTraitEraserNtNtNtCsdGrGZaRBwMb_3syn3gen9visit_mut8VisitMut20visit_trait_item_mutB6_, symObjAddr: 0x15B50, symBinAddr: 0x26670, symSize: 0x30 }
  - { offset: 0x24BF2, size: 0x8, addend: 0x0, symName: __RNvYNtNtCsjTXeTLYUiB9_18tracing_attributes6expand15ImplTraitEraserNtNtNtCsdGrGZaRBwMb_3syn3gen9visit_mut8VisitMut20visit_type_array_mutB6_, symObjAddr: 0x15B80, symBinAddr: 0x266A0, symSize: 0x30 }
  - { offset: 0x24C34, size: 0x8, addend: 0x0, symName: __RNvYNtNtCsjTXeTLYUiB9_18tracing_attributes6expand15ImplTraitEraserNtNtNtCsdGrGZaRBwMb_3syn3gen9visit_mut8VisitMut20visit_type_group_mutB6_, symObjAddr: 0x15BB0, symBinAddr: 0x266D0, symSize: 0x30 }
  - { offset: 0x24C76, size: 0x8, addend: 0x0, symName: __RNvYNtNtCsjTXeTLYUiB9_18tracing_attributes6expand15ImplTraitEraserNtNtNtCsdGrGZaRBwMb_3syn3gen9visit_mut8VisitMut20visit_type_infer_mutB6_, symObjAddr: 0x15BE0, symBinAddr: 0x26700, symSize: 0x30 }
  - { offset: 0x24CB8, size: 0x8, addend: 0x0, symName: __RNvYNtNtCsjTXeTLYUiB9_18tracing_attributes6expand15ImplTraitEraserNtNtNtCsdGrGZaRBwMb_3syn3gen9visit_mut8VisitMut20visit_type_macro_mutB6_, symObjAddr: 0x15C10, symBinAddr: 0x26730, symSize: 0x30 }
  - { offset: 0x24CFA, size: 0x8, addend: 0x0, symName: __RNvYNtNtCsjTXeTLYUiB9_18tracing_attributes6expand15ImplTraitEraserNtNtNtCsdGrGZaRBwMb_3syn3gen9visit_mut8VisitMut20visit_type_never_mutB6_, symObjAddr: 0x15C40, symBinAddr: 0x26760, symSize: 0x30 }
  - { offset: 0x24D3C, size: 0x8, addend: 0x0, symName: __RNvYNtNtCsjTXeTLYUiB9_18tracing_attributes6expand15ImplTraitEraserNtNtNtCsdGrGZaRBwMb_3syn3gen9visit_mut8VisitMut20visit_type_param_mutB6_, symObjAddr: 0x15C70, symBinAddr: 0x26790, symSize: 0x30 }
  - { offset: 0x24D7E, size: 0x8, addend: 0x0, symName: __RNvYNtNtCsjTXeTLYUiB9_18tracing_attributes6expand15ImplTraitEraserNtNtNtCsdGrGZaRBwMb_3syn3gen9visit_mut8VisitMut20visit_type_paren_mutB6_, symObjAddr: 0x15CA0, symBinAddr: 0x267C0, symSize: 0x30 }
  - { offset: 0x24DC0, size: 0x8, addend: 0x0, symName: __RNvYNtNtCsjTXeTLYUiB9_18tracing_attributes6expand15ImplTraitEraserNtNtNtCsdGrGZaRBwMb_3syn3gen9visit_mut8VisitMut20visit_type_slice_mutB6_, symObjAddr: 0x15CD0, symBinAddr: 0x267F0, symSize: 0x30 }
  - { offset: 0x24E02, size: 0x8, addend: 0x0, symName: __RNvYNtNtCsjTXeTLYUiB9_18tracing_attributes6expand15ImplTraitEraserNtNtNtCsdGrGZaRBwMb_3syn3gen9visit_mut8VisitMut20visit_type_tuple_mutB6_, symObjAddr: 0x15D00, symBinAddr: 0x26820, symSize: 0x30 }
  - { offset: 0x24E44, size: 0x8, addend: 0x0, symName: __RNvYNtNtCsjTXeTLYUiB9_18tracing_attributes6expand15ImplTraitEraserNtNtNtCsdGrGZaRBwMb_3syn3gen9visit_mut8VisitMut20visit_use_rename_mutB6_, symObjAddr: 0x15D30, symBinAddr: 0x26850, symSize: 0x30 }
  - { offset: 0x24E86, size: 0x8, addend: 0x0, symName: __RNvYNtNtCsjTXeTLYUiB9_18tracing_attributes6expand15ImplTraitEraserNtNtNtCsdGrGZaRBwMb_3syn3gen9visit_mut8VisitMut20visit_visibility_mutB6_, symObjAddr: 0x15D60, symBinAddr: 0x26880, symSize: 0x30 }
  - { offset: 0x24EC8, size: 0x8, addend: 0x0, symName: __RNvYNtNtCsjTXeTLYUiB9_18tracing_attributes6expand15ImplTraitEraserNtNtNtCsdGrGZaRBwMb_3syn3gen9visit_mut8VisitMut21visit_assoc_const_mutB6_, symObjAddr: 0x15D90, symBinAddr: 0x268B0, symSize: 0x30 }
  - { offset: 0x24F07, size: 0x8, addend: 0x0, symName: __RNvYNtNtCsjTXeTLYUiB9_18tracing_attributes6expand15ImplTraitEraserNtNtNtCsdGrGZaRBwMb_3syn3gen9visit_mut8VisitMut21visit_bare_fn_arg_mutB6_, symObjAddr: 0x15DC0, symBinAddr: 0x268E0, symSize: 0x30 }
  - { offset: 0x24F46, size: 0x8, addend: 0x0, symName: __RNvYNtNtCsjTXeTLYUiB9_18tracing_attributes6expand15ImplTraitEraserNtNtNtCsdGrGZaRBwMb_3syn3gen9visit_mut8VisitMut21visit_const_param_mutB6_, symObjAddr: 0x15DF0, symBinAddr: 0x26910, symSize: 0x30 }
  - { offset: 0x24F85, size: 0x8, addend: 0x0, symName: __RNvYNtNtCsjTXeTLYUiB9_18tracing_attributes6expand15ImplTraitEraserNtNtNtCsdGrGZaRBwMb_3syn3gen9visit_mut8VisitMut21visit_expr_assign_mutB6_, symObjAddr: 0x15E20, symBinAddr: 0x26940, symSize: 0x30 }
  - { offset: 0x24FC4, size: 0x8, addend: 0x0, symName: __RNvYNtNtCsjTXeTLYUiB9_18tracing_attributes6expand15ImplTraitEraserNtNtNtCsdGrGZaRBwMb_3syn3gen9visit_mut8VisitMut21visit_expr_binary_mutB6_, symObjAddr: 0x15E50, symBinAddr: 0x26970, symSize: 0x30 }
  - { offset: 0x25003, size: 0x8, addend: 0x0, symName: __RNvYNtNtCsjTXeTLYUiB9_18tracing_attributes6expand15ImplTraitEraserNtNtNtCsdGrGZaRBwMb_3syn3gen9visit_mut8VisitMut21visit_expr_repeat_mutB6_, symObjAddr: 0x15E80, symBinAddr: 0x269A0, symSize: 0x30 }
  - { offset: 0x25045, size: 0x8, addend: 0x0, symName: __RNvYNtNtCsjTXeTLYUiB9_18tracing_attributes6expand15ImplTraitEraserNtNtNtCsdGrGZaRBwMb_3syn3gen9visit_mut8VisitMut21visit_expr_return_mutB6_, symObjAddr: 0x15EB0, symBinAddr: 0x269D0, symSize: 0x30 }
  - { offset: 0x25087, size: 0x8, addend: 0x0, symName: __RNvYNtNtCsjTXeTLYUiB9_18tracing_attributes6expand15ImplTraitEraserNtNtNtCsdGrGZaRBwMb_3syn3gen9visit_mut8VisitMut21visit_expr_struct_mutB6_, symObjAddr: 0x15EE0, symBinAddr: 0x26A00, symSize: 0x30 }
  - { offset: 0x250C9, size: 0x8, addend: 0x0, symName: __RNvYNtNtCsjTXeTLYUiB9_18tracing_attributes6expand15ImplTraitEraserNtNtNtCsdGrGZaRBwMb_3syn3gen9visit_mut8VisitMut21visit_expr_unsafe_mutB6_, symObjAddr: 0x15F10, symBinAddr: 0x26A30, symSize: 0x30 }
  - { offset: 0x2510B, size: 0x8, addend: 0x0, symName: __RNvYNtNtCsjTXeTLYUiB9_18tracing_attributes6expand15ImplTraitEraserNtNtNtCsdGrGZaRBwMb_3syn3gen9visit_mut8VisitMut21visit_field_value_mutB6_, symObjAddr: 0x15F40, symBinAddr: 0x26A60, symSize: 0x30 }
  - { offset: 0x2514D, size: 0x8, addend: 0x0, symName: __RNvYNtNtCsjTXeTLYUiB9_18tracing_attributes6expand15ImplTraitEraserNtNtNtCsdGrGZaRBwMb_3syn3gen9visit_mut8VisitMut21visit_item_static_mutB6_, symObjAddr: 0x15F70, symBinAddr: 0x26A90, symSize: 0x30 }
  - { offset: 0x2518F, size: 0x8, addend: 0x0, symName: __RNvYNtNtCsjTXeTLYUiB9_18tracing_attributes6expand15ImplTraitEraserNtNtNtCsdGrGZaRBwMb_3syn3gen9visit_mut8VisitMut21visit_item_struct_mutB6_, symObjAddr: 0x15FA0, symBinAddr: 0x26AC0, symSize: 0x30 }
  - { offset: 0x251D1, size: 0x8, addend: 0x0, symName: __RNvYNtNtCsjTXeTLYUiB9_18tracing_attributes6expand15ImplTraitEraserNtNtNtCsdGrGZaRBwMb_3syn3gen9visit_mut8VisitMut21visit_return_type_mutB6_, symObjAddr: 0x15FD0, symBinAddr: 0x26AF0, symSize: 0x30 }
  - { offset: 0x25213, size: 0x8, addend: 0x0, symName: __RNvYNtNtCsjTXeTLYUiB9_18tracing_attributes6expand15ImplTraitEraserNtNtNtCsdGrGZaRBwMb_3syn3gen9visit_mut8VisitMut21visit_trait_bound_mutB6_, symObjAddr: 0x16000, symBinAddr: 0x26B20, symSize: 0x30 }
  - { offset: 0x25255, size: 0x8, addend: 0x0, symName: __RNvYNtNtCsjTXeTLYUiB9_18tracing_attributes6expand15ImplTraitEraserNtNtNtCsdGrGZaRBwMb_3syn3gen9visit_mut8VisitMut22visit_expr_closure_mutB6_, symObjAddr: 0x16030, symBinAddr: 0x26B50, symSize: 0x30 }
  - { offset: 0x25294, size: 0x8, addend: 0x0, symName: __RNvYNtNtCsjTXeTLYUiB9_18tracing_attributes6expand15ImplTraitEraserNtNtNtCsdGrGZaRBwMb_3syn3gen9visit_mut8VisitMut22visit_fields_named_mutB6_, symObjAddr: 0x16060, symBinAddr: 0x26B80, symSize: 0x30 }
  - { offset: 0x252D6, size: 0x8, addend: 0x0, symName: __RNvYNtNtCsjTXeTLYUiB9_18tracing_attributes6expand15ImplTraitEraserNtNtNtCsdGrGZaRBwMb_3syn3gen9visit_mut8VisitMut22visit_foreign_item_mutB6_, symObjAddr: 0x16090, symBinAddr: 0x26BB0, symSize: 0x30 }
  - { offset: 0x25318, size: 0x8, addend: 0x0, symName: __RNvYNtNtCsjTXeTLYUiB9_18tracing_attributes6expand15ImplTraitEraserNtNtNtCsdGrGZaRBwMb_3syn3gen9visit_mut8VisitMut22visit_impl_item_fn_mutB6_, symObjAddr: 0x160C0, symBinAddr: 0x26BE0, symSize: 0x30 }
  - { offset: 0x2535A, size: 0x8, addend: 0x0, symName: __RNvYNtNtCsjTXeTLYUiB9_18tracing_attributes6expand15ImplTraitEraserNtNtNtCsdGrGZaRBwMb_3syn3gen9visit_mut8VisitMut22visit_lit_byte_str_mutB6_, symObjAddr: 0x160F0, symBinAddr: 0x26C10, symSize: 0x30 }
  - { offset: 0x2539C, size: 0x8, addend: 0x0, symName: __RNvYNtNtCsjTXeTLYUiB9_18tracing_attributes6expand15ImplTraitEraserNtNtNtCsdGrGZaRBwMb_3syn3gen9visit_mut8VisitMut22visit_path_segment_mutB6_, symObjAddr: 0x16120, symBinAddr: 0x26C40, symSize: 0x30 }
  - { offset: 0x253DE, size: 0x8, addend: 0x0, symName: __RNvYNtNtCsjTXeTLYUiB9_18tracing_attributes6expand15ImplTraitEraserNtNtNtCsdGrGZaRBwMb_3syn3gen9visit_mut8VisitMut22visit_range_limits_mutB6_, symObjAddr: 0x16150, symBinAddr: 0x26C70, symSize: 0x30 }
  - { offset: 0x25420, size: 0x8, addend: 0x0, symName: __RNvYNtNtCsjTXeTLYUiB9_18tracing_attributes6expand15ImplTraitEraserNtNtNtCsdGrGZaRBwMb_3syn3gen9visit_mut8VisitMut22visit_token_stream_mutB6_, symObjAddr: 0x16180, symBinAddr: 0x26CA0, symSize: 0x20 }
  - { offset: 0x25462, size: 0x8, addend: 0x0, symName: __RNvYNtNtCsjTXeTLYUiB9_18tracing_attributes6expand15ImplTraitEraserNtNtNtCsdGrGZaRBwMb_3syn3gen9visit_mut8VisitMut22visit_type_bare_fn_mutB6_, symObjAddr: 0x161A0, symBinAddr: 0x26CC0, symSize: 0x30 }
  - { offset: 0x254A4, size: 0x8, addend: 0x0, symName: __RNvYNtNtCsjTXeTLYUiB9_18tracing_attributes6expand15ImplTraitEraserNtNtNtCsdGrGZaRBwMb_3syn3gen9visit_mut8VisitMut22visit_where_clause_mutB6_, symObjAddr: 0x161D0, symBinAddr: 0x26CF0, symSize: 0x30 }
  - { offset: 0x254E6, size: 0x8, addend: 0x0, symName: __RNvYNtNtCsjTXeTLYUiB9_18tracing_attributes6expand15ImplTraitEraserNtNtNtCsdGrGZaRBwMb_3syn3gen9visit_mut8VisitMut23visit_bare_variadic_mutB6_, symObjAddr: 0x16200, symBinAddr: 0x26D20, symSize: 0x30 }
  - { offset: 0x25525, size: 0x8, addend: 0x0, symName: __RNvYNtNtCsjTXeTLYUiB9_18tracing_attributes6expand15ImplTraitEraserNtNtNtCsdGrGZaRBwMb_3syn3gen9visit_mut8VisitMut23visit_expr_continue_mutB6_, symObjAddr: 0x16230, symBinAddr: 0x26D50, symSize: 0x30 }
  - { offset: 0x25564, size: 0x8, addend: 0x0, symName: __RNvYNtNtCsjTXeTLYUiB9_18tracing_attributes6expand15ImplTraitEraserNtNtNtCsdGrGZaRBwMb_3syn3gen9visit_mut8VisitMut23visit_expr_for_loop_mutB6_, symObjAddr: 0x16260, symBinAddr: 0x26D80, symSize: 0x30 }
  - { offset: 0x255A3, size: 0x8, addend: 0x0, symName: __RNvYNtNtCsjTXeTLYUiB9_18tracing_attributes6expand15ImplTraitEraserNtNtNtCsdGrGZaRBwMb_3syn3gen9visit_mut8VisitMut23visit_expr_raw_addr_mutB6_, symObjAddr: 0x16290, symBinAddr: 0x26DB0, symSize: 0x30 }
  - { offset: 0x255E5, size: 0x8, addend: 0x0, symName: __RNvYNtNtCsjTXeTLYUiB9_18tracing_attributes6expand15ImplTraitEraserNtNtNtCsdGrGZaRBwMb_3syn3gen9visit_mut8VisitMut23visit_generic_param_mutB6_, symObjAddr: 0x162C0, symBinAddr: 0x26DE0, symSize: 0x30 }
  - { offset: 0x25627, size: 0x8, addend: 0x0, symName: __RNvYNtNtCsjTXeTLYUiB9_18tracing_attributes6expand15ImplTraitEraserNtNtNtCsdGrGZaRBwMb_3syn3gen9visit_mut8VisitMut23visit_pat_reference_mutB6_, symObjAddr: 0x162F0, symBinAddr: 0x26E10, symSize: 0x30 }
  - { offset: 0x25669, size: 0x8, addend: 0x0, symName: __RNvYNtNtCsjTXeTLYUiB9_18tracing_attributes6expand15ImplTraitEraserNtNtNtCsdGrGZaRBwMb_3syn3gen9visit_mut8VisitMut23visit_trait_item_fn_mutB6_, symObjAddr: 0x16320, symBinAddr: 0x26E40, symSize: 0x30 }
  - { offset: 0x256AB, size: 0x8, addend: 0x0, symName: __RNvYNtNtCsjTXeTLYUiB9_18tracing_attributes6expand15ImplTraitEraserNtNtNtCsdGrGZaRBwMb_3syn3gen9visit_mut8VisitMut24visit_captured_param_mutB6_, symObjAddr: 0x16350, symBinAddr: 0x26E70, symSize: 0x30 }
  - { offset: 0x256EA, size: 0x8, addend: 0x0, symName: __RNvYNtNtCsjTXeTLYUiB9_18tracing_attributes6expand15ImplTraitEraserNtNtNtCsdGrGZaRBwMb_3syn3gen9visit_mut8VisitMut24visit_expr_reference_mutB6_, symObjAddr: 0x16380, symBinAddr: 0x26EA0, symSize: 0x30 }
  - { offset: 0x2572C, size: 0x8, addend: 0x0, symName: __RNvYNtNtCsjTXeTLYUiB9_18tracing_attributes6expand15ImplTraitEraserNtNtNtCsdGrGZaRBwMb_3syn3gen9visit_mut8VisitMut24visit_expr_try_block_mutB6_, symObjAddr: 0x163B0, symBinAddr: 0x26ED0, symSize: 0x30 }
  - { offset: 0x2576E, size: 0x8, addend: 0x0, symName: __RNvYNtNtCsjTXeTLYUiB9_18tracing_attributes6expand15ImplTraitEraserNtNtNtCsdGrGZaRBwMb_3syn3gen9visit_mut8VisitMut24visit_fields_unnamed_mutB6_, symObjAddr: 0x163E0, symBinAddr: 0x26F00, symSize: 0x30 }
  - { offset: 0x257B0, size: 0x8, addend: 0x0, symName: __RNvYNtNtCsjTXeTLYUiB9_18tracing_attributes6expand15ImplTraitEraserNtNtNtCsdGrGZaRBwMb_3syn3gen9visit_mut8VisitMut24visit_impl_item_type_mutB6_, symObjAddr: 0x16410, symBinAddr: 0x26F30, symSize: 0x30 }
  - { offset: 0x257F2, size: 0x8, addend: 0x0, symName: __RNvYNtNtCsjTXeTLYUiB9_18tracing_attributes6expand15ImplTraitEraserNtNtNtCsdGrGZaRBwMb_3syn3gen9visit_mut8VisitMut24visit_lifetime_param_mutB6_, symObjAddr: 0x16440, symBinAddr: 0x26F60, symSize: 0x30 }
  - { offset: 0x25834, size: 0x8, addend: 0x0, symName: __RNvYNtNtCsjTXeTLYUiB9_18tracing_attributes6expand15ImplTraitEraserNtNtNtCsdGrGZaRBwMb_3syn3gen9visit_mut8VisitMut24visit_path_arguments_mutB6_, symObjAddr: 0x16470, symBinAddr: 0x26F90, symSize: 0x30 }
  - { offset: 0x25876, size: 0x8, addend: 0x0, symName: __RNvYNtNtCsjTXeTLYUiB9_18tracing_attributes6expand15ImplTraitEraserNtNtNtCsdGrGZaRBwMb_3syn3gen9visit_mut8VisitMut24visit_predicate_type_mutB6_, symObjAddr: 0x164A0, symBinAddr: 0x26FC0, symSize: 0x30 }
  - { offset: 0x258B8, size: 0x8, addend: 0x0, symName: __RNvYNtNtCsjTXeTLYUiB9_18tracing_attributes6expand15ImplTraitEraserNtNtNtCsdGrGZaRBwMb_3syn3gen9visit_mut8VisitMut24visit_type_reference_mutB6_, symObjAddr: 0x164D0, symBinAddr: 0x26FF0, symSize: 0x30 }
  - { offset: 0x258FA, size: 0x8, addend: 0x0, symName: __RNvYNtNtCsjTXeTLYUiB9_18tracing_attributes6expand15ImplTraitEraserNtNtNtCsdGrGZaRBwMb_3syn3gen9visit_mut8VisitMut24visit_vis_restricted_mutB6_, symObjAddr: 0x16500, symBinAddr: 0x27020, symSize: 0x30 }
  - { offset: 0x2593C, size: 0x8, addend: 0x0, symName: __RNvYNtNtCsjTXeTLYUiB9_18tracing_attributes6expand15ImplTraitEraserNtNtNtCsdGrGZaRBwMb_3syn3gen9visit_mut8VisitMut25visit_bound_lifetimes_mutB6_, symObjAddr: 0x16530, symBinAddr: 0x27050, symSize: 0x30 }
  - { offset: 0x2597B, size: 0x8, addend: 0x0, symName: __RNvYNtNtCsjTXeTLYUiB9_18tracing_attributes6expand15ImplTraitEraserNtNtNtCsdGrGZaRBwMb_3syn3gen9visit_mut8VisitMut25visit_foreign_item_fn_mutB6_, symObjAddr: 0x16560, symBinAddr: 0x27080, symSize: 0x30 }
  - { offset: 0x259BD, size: 0x8, addend: 0x0, symName: __RNvYNtNtCsjTXeTLYUiB9_18tracing_attributes6expand15ImplTraitEraserNtNtNtCsdGrGZaRBwMb_3syn3gen9visit_mut8VisitMut25visit_impl_item_const_mutB6_, symObjAddr: 0x16590, symBinAddr: 0x270B0, symSize: 0x30 }
  - { offset: 0x259FF, size: 0x8, addend: 0x0, symName: __RNvYNtNtCsjTXeTLYUiB9_18tracing_attributes6expand15ImplTraitEraserNtNtNtCsdGrGZaRBwMb_3syn3gen9visit_mut8VisitMut25visit_impl_item_macro_mutB6_, symObjAddr: 0x165C0, symBinAddr: 0x270E0, symSize: 0x30 }
  - { offset: 0x25A41, size: 0x8, addend: 0x0, symName: __RNvYNtNtCsjTXeTLYUiB9_18tracing_attributes6expand15ImplTraitEraserNtNtNtCsdGrGZaRBwMb_3syn3gen9visit_mut8VisitMut25visit_macro_delimiter_mutB6_, symObjAddr: 0x165F0, symBinAddr: 0x27110, symSize: 0x30 }
  - { offset: 0x25A83, size: 0x8, addend: 0x0, symName: __RNvYNtNtCsjTXeTLYUiB9_18tracing_attributes6expand15ImplTraitEraserNtNtNtCsdGrGZaRBwMb_3syn3gen9visit_mut8VisitMut25visit_meta_name_value_mutB6_, symObjAddr: 0x16620, symBinAddr: 0x27140, symSize: 0x30 }
  - { offset: 0x25AC5, size: 0x8, addend: 0x0, symName: __RNvYNtNtCsjTXeTLYUiB9_18tracing_attributes6expand15ImplTraitEraserNtNtNtCsdGrGZaRBwMb_3syn3gen9visit_mut8VisitMut25visit_precise_capture_mutB6_, symObjAddr: 0x16650, symBinAddr: 0x27170, symSize: 0x30 }
  - { offset: 0x25B07, size: 0x8, addend: 0x0, symName: __RNvYNtNtCsjTXeTLYUiB9_18tracing_attributes6expand15ImplTraitEraserNtNtNtCsdGrGZaRBwMb_3syn3gen9visit_mut8VisitMut25visit_trait_item_type_mutB6_, symObjAddr: 0x16680, symBinAddr: 0x271A0, symSize: 0x30 }
  - { offset: 0x25B49, size: 0x8, addend: 0x0, symName: __RNvYNtNtCsjTXeTLYUiB9_18tracing_attributes6expand15ImplTraitEraserNtNtNtCsdGrGZaRBwMb_3syn3gen9visit_mut8VisitMut25visit_type_impl_trait_mutB6_, symObjAddr: 0x166B0, symBinAddr: 0x271D0, symSize: 0x30 }
  - { offset: 0x25B8B, size: 0x8, addend: 0x0, symName: __RNvYNtNtCsjTXeTLYUiB9_18tracing_attributes6expand15ImplTraitEraserNtNtNtCsdGrGZaRBwMb_3syn3gen9visit_mut8VisitMut25visit_where_predicate_mutB6_, symObjAddr: 0x166E0, symBinAddr: 0x27200, symSize: 0x30 }
  - { offset: 0x25BCD, size: 0x8, addend: 0x0, symName: __RNvYNtNtCsjTXeTLYUiB9_18tracing_attributes6expand15ImplTraitEraserNtNtNtCsdGrGZaRBwMb_3syn3gen9visit_mut8VisitMut26visit_expr_method_call_mutB6_, symObjAddr: 0x16710, symBinAddr: 0x27230, symSize: 0x30 }
  - { offset: 0x25C0F, size: 0x8, addend: 0x0, symName: __RNvYNtNtCsjTXeTLYUiB9_18tracing_attributes6expand15ImplTraitEraserNtNtNtCsdGrGZaRBwMb_3syn3gen9visit_mut8VisitMut26visit_field_mutability_mutB6_, symObjAddr: 0x16740, symBinAddr: 0x27260, symSize: 0x30 }
  - { offset: 0x25C51, size: 0x8, addend: 0x0, symName: __RNvYNtNtCsjTXeTLYUiB9_18tracing_attributes6expand15ImplTraitEraserNtNtNtCsdGrGZaRBwMb_3syn3gen9visit_mut8VisitMut26visit_generic_argument_mutB6_, symObjAddr: 0x16770, symBinAddr: 0x27290, symSize: 0x30 }
  - { offset: 0x25C93, size: 0x8, addend: 0x0, symName: __RNvYNtNtCsjTXeTLYUiB9_18tracing_attributes6expand15ImplTraitEraserNtNtNtCsdGrGZaRBwMb_3syn3gen9visit_mut8VisitMut26visit_item_foreign_mod_mutB6_, symObjAddr: 0x167A0, symBinAddr: 0x272C0, symSize: 0x30 }
  - { offset: 0x25CD5, size: 0x8, addend: 0x0, symName: __RNvYNtNtCsjTXeTLYUiB9_18tracing_attributes6expand15ImplTraitEraserNtNtNtCsdGrGZaRBwMb_3syn3gen9visit_mut8VisitMut26visit_item_trait_alias_mutB6_, symObjAddr: 0x167D0, symBinAddr: 0x272F0, symSize: 0x30 }
  - { offset: 0x25D17, size: 0x8, addend: 0x0, symName: __RNvYNtNtCsjTXeTLYUiB9_18tracing_attributes6expand15ImplTraitEraserNtNtNtCsdGrGZaRBwMb_3syn3gen9visit_mut8VisitMut26visit_pat_tuple_struct_mutB6_, symObjAddr: 0x16800, symBinAddr: 0x27320, symSize: 0x30 }
  - { offset: 0x25D59, size: 0x8, addend: 0x0, symName: __RNvYNtNtCsjTXeTLYUiB9_18tracing_attributes6expand15ImplTraitEraserNtNtNtCsdGrGZaRBwMb_3syn3gen9visit_mut8VisitMut26visit_trait_item_const_mutB6_, symObjAddr: 0x16830, symBinAddr: 0x27350, symSize: 0x30 }
  - { offset: 0x25D9B, size: 0x8, addend: 0x0, symName: __RNvYNtNtCsjTXeTLYUiB9_18tracing_attributes6expand15ImplTraitEraserNtNtNtCsdGrGZaRBwMb_3syn3gen9visit_mut8VisitMut26visit_trait_item_macro_mutB6_, symObjAddr: 0x16860, symBinAddr: 0x27380, symSize: 0x30 }
  - { offset: 0x25DDD, size: 0x8, addend: 0x0, symName: __RNvYNtNtCsjTXeTLYUiB9_18tracing_attributes6expand15ImplTraitEraserNtNtNtCsdGrGZaRBwMb_3syn3gen9visit_mut8VisitMut26visit_type_param_bound_mutB6_, symObjAddr: 0x16890, symBinAddr: 0x273B0, symSize: 0x30 }
  - { offset: 0x25E1F, size: 0x8, addend: 0x0, symName: __RNvYNtNtCsjTXeTLYUiB9_18tracing_attributes6expand15ImplTraitEraserNtNtNtCsdGrGZaRBwMb_3syn3gen9visit_mut8VisitMut27visit_foreign_item_type_mutB6_, symObjAddr: 0x168C0, symBinAddr: 0x273E0, symSize: 0x30 }
  - { offset: 0x25E61, size: 0x8, addend: 0x0, symName: __RNvYNtNtCsjTXeTLYUiB9_18tracing_attributes6expand15ImplTraitEraserNtNtNtCsdGrGZaRBwMb_3syn3gen9visit_mut8VisitMut27visit_item_extern_crate_mutB6_, symObjAddr: 0x168F0, symBinAddr: 0x27410, symSize: 0x30 }
  - { offset: 0x25EA3, size: 0x8, addend: 0x0, symName: __RNvYNtNtCsjTXeTLYUiB9_18tracing_attributes6expand15ImplTraitEraserNtNtNtCsdGrGZaRBwMb_3syn3gen9visit_mut8VisitMut27visit_static_mutability_mutB6_, symObjAddr: 0x16920, symBinAddr: 0x27440, symSize: 0x30 }
  - { offset: 0x25EE5, size: 0x8, addend: 0x0, symName: __RNvYNtNtCsjTXeTLYUiB9_18tracing_attributes6expand15ImplTraitEraserNtNtNtCsdGrGZaRBwMb_3syn3gen9visit_mut8VisitMut27visit_type_trait_object_mutB6_, symObjAddr: 0x16950, symBinAddr: 0x27470, symSize: 0x30 }
  - { offset: 0x25F27, size: 0x8, addend: 0x0, symName: __RNvYNtNtCsjTXeTLYUiB9_18tracing_attributes6expand15ImplTraitEraserNtNtNtCsdGrGZaRBwMb_3syn3gen9visit_mut8VisitMut28visit_foreign_item_macro_mutB6_, symObjAddr: 0x16980, symBinAddr: 0x274A0, symSize: 0x30 }
  - { offset: 0x25F69, size: 0x8, addend: 0x0, symName: __RNvYNtNtCsjTXeTLYUiB9_18tracing_attributes6expand15ImplTraitEraserNtNtNtCsdGrGZaRBwMb_3syn3gen9visit_mut8VisitMut28visit_pointer_mutability_mutB6_, symObjAddr: 0x169B0, symBinAddr: 0x274D0, symSize: 0x30 }
  - { offset: 0x25FAB, size: 0x8, addend: 0x0, symName: __RNvYNtNtCsjTXeTLYUiB9_18tracing_attributes6expand15ImplTraitEraserNtNtNtCsdGrGZaRBwMb_3syn3gen9visit_mut8VisitMut28visit_predicate_lifetime_mutB6_, symObjAddr: 0x169E0, symBinAddr: 0x27500, symSize: 0x30 }
  - { offset: 0x25FED, size: 0x8, addend: 0x0, symName: __RNvYNtNtCsjTXeTLYUiB9_18tracing_attributes6expand15ImplTraitEraserNtNtNtCsdGrGZaRBwMb_3syn3gen9visit_mut8VisitMut29visit_foreign_item_static_mutB6_, symObjAddr: 0x16A10, symBinAddr: 0x27530, symSize: 0x30 }
  - { offset: 0x2602F, size: 0x8, addend: 0x0, symName: __RNvYNtNtCsjTXeTLYUiB9_18tracing_attributes6expand15ImplTraitEraserNtNtNtCsdGrGZaRBwMb_3syn3gen9visit_mut8VisitMut30visit_trait_bound_modifier_mutB6_, symObjAddr: 0x16A40, symBinAddr: 0x27560, symSize: 0x30 }
  - { offset: 0x26071, size: 0x8, addend: 0x0, symName: __RNvYNtNtCsjTXeTLYUiB9_18tracing_attributes6expand15ImplTraitEraserNtNtNtCsdGrGZaRBwMb_3syn3gen9visit_mut8VisitMut41visit_parenthesized_generic_arguments_mutB6_, symObjAddr: 0x16A70, symBinAddr: 0x27590, symSize: 0x30 }
  - { offset: 0x260B3, size: 0x8, addend: 0x0, symName: __RNvYNtNtCsjTXeTLYUiB9_18tracing_attributes6expand15ImplTraitEraserNtNtNtCsdGrGZaRBwMb_3syn3gen9visit_mut8VisitMut43visit_angle_bracketed_generic_arguments_mutB6_, symObjAddr: 0x16AA0, symBinAddr: 0x275C0, symSize: 0x30 }
  - { offset: 0x260F2, size: 0x8, addend: 0x0, symName: __RNvYNtNtCsjTXeTLYUiB9_18tracing_attributes6expand20IdentAndTypesRenamerNtNtNtCsdGrGZaRBwMb_3syn3gen9visit_mut8VisitMut13visit_abi_mutB6_, symObjAddr: 0x16AD0, symBinAddr: 0x275F0, symSize: 0x30 }
  - { offset: 0x26131, size: 0x8, addend: 0x0, symName: __RNvYNtNtCsjTXeTLYUiB9_18tracing_attributes6expand20IdentAndTypesRenamerNtNtNtCsdGrGZaRBwMb_3syn3gen9visit_mut8VisitMut13visit_arm_mutB6_, symObjAddr: 0x16B00, symBinAddr: 0x27620, symSize: 0x30 }
  - { offset: 0x26170, size: 0x8, addend: 0x0, symName: __RNvYNtNtCsjTXeTLYUiB9_18tracing_attributes6expand20IdentAndTypesRenamerNtNtNtCsdGrGZaRBwMb_3syn3gen9visit_mut8VisitMut13visit_lit_mutB6_, symObjAddr: 0x16B30, symBinAddr: 0x27650, symSize: 0x30 }
  - { offset: 0x261B2, size: 0x8, addend: 0x0, symName: __RNvYNtNtCsjTXeTLYUiB9_18tracing_attributes6expand20IdentAndTypesRenamerNtNtNtCsdGrGZaRBwMb_3syn3gen9visit_mut8VisitMut13visit_pat_mutB6_, symObjAddr: 0x16B60, symBinAddr: 0x27680, symSize: 0x30 }
  - { offset: 0x261F4, size: 0x8, addend: 0x0, symName: __RNvYNtNtCsjTXeTLYUiB9_18tracing_attributes6expand20IdentAndTypesRenamerNtNtNtCsdGrGZaRBwMb_3syn3gen9visit_mut8VisitMut14visit_expr_mutB6_, symObjAddr: 0x16B90, symBinAddr: 0x276B0, symSize: 0x30 }
  - { offset: 0x26233, size: 0x8, addend: 0x0, symName: __RNvYNtNtCsjTXeTLYUiB9_18tracing_attributes6expand20IdentAndTypesRenamerNtNtNtCsdGrGZaRBwMb_3syn3gen9visit_mut8VisitMut14visit_item_mutB6_, symObjAddr: 0x16BC0, symBinAddr: 0x276E0, symSize: 0x30 }
  - { offset: 0x26275, size: 0x8, addend: 0x0, symName: __RNvYNtNtCsjTXeTLYUiB9_18tracing_attributes6expand20IdentAndTypesRenamerNtNtNtCsdGrGZaRBwMb_3syn3gen9visit_mut8VisitMut14visit_meta_mutB6_, symObjAddr: 0x16BF0, symBinAddr: 0x27710, symSize: 0x30 }
  - { offset: 0x262B7, size: 0x8, addend: 0x0, symName: __RNvYNtNtCsjTXeTLYUiB9_18tracing_attributes6expand20IdentAndTypesRenamerNtNtNtCsdGrGZaRBwMb_3syn3gen9visit_mut8VisitMut14visit_path_mutB6_, symObjAddr: 0x16C20, symBinAddr: 0x27740, symSize: 0x30 }
  - { offset: 0x262F9, size: 0x8, addend: 0x0, symName: __RNvYNtNtCsjTXeTLYUiB9_18tracing_attributes6expand20IdentAndTypesRenamerNtNtNtCsdGrGZaRBwMb_3syn3gen9visit_mut8VisitMut14visit_span_mutB6_, symObjAddr: 0x16C50, symBinAddr: 0x27770, symSize: 0x20 }
  - { offset: 0x2633B, size: 0x8, addend: 0x0, symName: __RNvYNtNtCsjTXeTLYUiB9_18tracing_attributes6expand20IdentAndTypesRenamerNtNtNtCsdGrGZaRBwMb_3syn3gen9visit_mut8VisitMut14visit_stmt_mutB6_, symObjAddr: 0x16C70, symBinAddr: 0x27790, symSize: 0x30 }
  - { offset: 0x2637D, size: 0x8, addend: 0x0, symName: __RNvYNtNtCsjTXeTLYUiB9_18tracing_attributes6expand20IdentAndTypesRenamerNtNtNtCsdGrGZaRBwMb_3syn3gen9visit_mut8VisitMut15visit_block_mutB6_, symObjAddr: 0x16CA0, symBinAddr: 0x277C0, symSize: 0x30 }
  - { offset: 0x263BC, size: 0x8, addend: 0x0, symName: __RNvYNtNtCsjTXeTLYUiB9_18tracing_attributes6expand20IdentAndTypesRenamerNtNtNtCsdGrGZaRBwMb_3syn3gen9visit_mut8VisitMut15visit_field_mutB6_, symObjAddr: 0x16CD0, symBinAddr: 0x277F0, symSize: 0x30 }
  - { offset: 0x263FE, size: 0x8, addend: 0x0, symName: __RNvYNtNtCsjTXeTLYUiB9_18tracing_attributes6expand20IdentAndTypesRenamerNtNtNtCsdGrGZaRBwMb_3syn3gen9visit_mut8VisitMut15visit_index_mutB6_, symObjAddr: 0x16D00, symBinAddr: 0x27820, symSize: 0x30 }
  - { offset: 0x26440, size: 0x8, addend: 0x0, symName: __RNvYNtNtCsjTXeTLYUiB9_18tracing_attributes6expand20IdentAndTypesRenamerNtNtNtCsdGrGZaRBwMb_3syn3gen9visit_mut8VisitMut15visit_label_mutB6_, symObjAddr: 0x16D30, symBinAddr: 0x27850, symSize: 0x30 }
  - { offset: 0x26482, size: 0x8, addend: 0x0, symName: __RNvYNtNtCsjTXeTLYUiB9_18tracing_attributes6expand20IdentAndTypesRenamerNtNtNtCsdGrGZaRBwMb_3syn3gen9visit_mut8VisitMut15visit_local_mutB6_, symObjAddr: 0x16D60, symBinAddr: 0x27880, symSize: 0x30 }
  - { offset: 0x264C4, size: 0x8, addend: 0x0, symName: __RNvYNtNtCsjTXeTLYUiB9_18tracing_attributes6expand20IdentAndTypesRenamerNtNtNtCsdGrGZaRBwMb_3syn3gen9visit_mut8VisitMut15visit_macro_mutB6_, symObjAddr: 0x16D90, symBinAddr: 0x278B0, symSize: 0x30 }
  - { offset: 0x26506, size: 0x8, addend: 0x0, symName: __RNvYNtNtCsjTXeTLYUiB9_18tracing_attributes6expand20IdentAndTypesRenamerNtNtNtCsdGrGZaRBwMb_3syn3gen9visit_mut8VisitMut15visit_qself_mutB6_, symObjAddr: 0x16DC0, symBinAddr: 0x278E0, symSize: 0x30 }
  - { offset: 0x26548, size: 0x8, addend: 0x0, symName: __RNvYNtNtCsjTXeTLYUiB9_18tracing_attributes6expand20IdentAndTypesRenamerNtNtNtCsdGrGZaRBwMb_3syn3gen9visit_mut8VisitMut15visit_un_op_mutB6_, symObjAddr: 0x16DF0, symBinAddr: 0x27910, symSize: 0x30 }
  - { offset: 0x2658A, size: 0x8, addend: 0x0, symName: __RNvYNtNtCsjTXeTLYUiB9_18tracing_attributes6expand20IdentAndTypesRenamerNtNtNtCsdGrGZaRBwMb_3syn3gen9visit_mut8VisitMut16visit_bin_op_mutB6_, symObjAddr: 0x16E20, symBinAddr: 0x27940, symSize: 0x30 }
  - { offset: 0x265C9, size: 0x8, addend: 0x0, symName: __RNvYNtNtCsjTXeTLYUiB9_18tracing_attributes6expand20IdentAndTypesRenamerNtNtNtCsdGrGZaRBwMb_3syn3gen9visit_mut8VisitMut16visit_fields_mutB6_, symObjAddr: 0x16E50, symBinAddr: 0x27970, symSize: 0x30 }
  - { offset: 0x2660B, size: 0x8, addend: 0x0, symName: __RNvYNtNtCsjTXeTLYUiB9_18tracing_attributes6expand20IdentAndTypesRenamerNtNtNtCsdGrGZaRBwMb_3syn3gen9visit_mut8VisitMut16visit_fn_arg_mutB6_, symObjAddr: 0x16E80, symBinAddr: 0x279A0, symSize: 0x30 }
  - { offset: 0x2664D, size: 0x8, addend: 0x0, symName: __RNvYNtNtCsjTXeTLYUiB9_18tracing_attributes6expand20IdentAndTypesRenamerNtNtNtCsdGrGZaRBwMb_3syn3gen9visit_mut8VisitMut16visit_member_mutB6_, symObjAddr: 0x16EB0, symBinAddr: 0x279D0, symSize: 0x30 }
  - { offset: 0x2668F, size: 0x8, addend: 0x0, symName: __RNvYNtNtCsjTXeTLYUiB9_18tracing_attributes6expand20IdentAndTypesRenamerNtNtNtCsdGrGZaRBwMb_3syn3gen9visit_mut8VisitMut16visit_pat_or_mutB6_, symObjAddr: 0x16EE0, symBinAddr: 0x27A00, symSize: 0x30 }
  - { offset: 0x266D1, size: 0x8, addend: 0x0, symName: __RNvYNtNtCsjTXeTLYUiB9_18tracing_attributes6expand20IdentAndTypesRenamerNtNtNtCsdGrGZaRBwMb_3syn3gen9visit_mut8VisitMut17visit_expr_if_mutB6_, symObjAddr: 0x16F10, symBinAddr: 0x27A30, symSize: 0x30 }
  - { offset: 0x26710, size: 0x8, addend: 0x0, symName: __RNvYNtNtCsjTXeTLYUiB9_18tracing_attributes6expand20IdentAndTypesRenamerNtNtNtCsdGrGZaRBwMb_3syn3gen9visit_mut8VisitMut17visit_item_fn_mutB6_, symObjAddr: 0x16F40, symBinAddr: 0x27A60, symSize: 0x30 }
  - { offset: 0x26752, size: 0x8, addend: 0x0, symName: __RNvYNtNtCsjTXeTLYUiB9_18tracing_attributes6expand20IdentAndTypesRenamerNtNtNtCsdGrGZaRBwMb_3syn3gen9visit_mut8VisitMut17visit_lit_int_mutB6_, symObjAddr: 0x16F70, symBinAddr: 0x27A90, symSize: 0x30 }
  - { offset: 0x26794, size: 0x8, addend: 0x0, symName: __RNvYNtNtCsjTXeTLYUiB9_18tracing_attributes6expand20IdentAndTypesRenamerNtNtNtCsdGrGZaRBwMb_3syn3gen9visit_mut8VisitMut17visit_lit_str_mutB6_, symObjAddr: 0x16FA0, symBinAddr: 0x27AC0, symSize: 0x30 }
  - { offset: 0x267D6, size: 0x8, addend: 0x0, symName: __RNvYNtNtCsjTXeTLYUiB9_18tracing_attributes6expand20IdentAndTypesRenamerNtNtNtCsdGrGZaRBwMb_3syn3gen9visit_mut8VisitMut17visit_variant_mutB6_, symObjAddr: 0x16FD0, symBinAddr: 0x27AF0, symSize: 0x30 }
  - { offset: 0x26818, size: 0x8, addend: 0x0, symName: __RNvYNtNtCsjTXeTLYUiB9_18tracing_attributes6expand20IdentAndTypesRenamerNtNtNtCsdGrGZaRBwMb_3syn3gen9visit_mut8VisitMut18visit_expr_let_mutB6_, symObjAddr: 0x17000, symBinAddr: 0x27B20, symSize: 0x30 }
  - { offset: 0x26857, size: 0x8, addend: 0x0, symName: __RNvYNtNtCsjTXeTLYUiB9_18tracing_attributes6expand20IdentAndTypesRenamerNtNtNtCsdGrGZaRBwMb_3syn3gen9visit_mut8VisitMut18visit_expr_lit_mutB6_, symObjAddr: 0x17030, symBinAddr: 0x27B50, symSize: 0x30 }
  - { offset: 0x26896, size: 0x8, addend: 0x0, symName: __RNvYNtNtCsjTXeTLYUiB9_18tracing_attributes6expand20IdentAndTypesRenamerNtNtNtCsdGrGZaRBwMb_3syn3gen9visit_mut8VisitMut18visit_expr_try_mutB6_, symObjAddr: 0x17060, symBinAddr: 0x27B80, symSize: 0x30 }
  - { offset: 0x268D8, size: 0x8, addend: 0x0, symName: __RNvYNtNtCsjTXeTLYUiB9_18tracing_attributes6expand20IdentAndTypesRenamerNtNtNtCsdGrGZaRBwMb_3syn3gen9visit_mut8VisitMut18visit_generics_mutB6_, symObjAddr: 0x17090, symBinAddr: 0x27BB0, symSize: 0x30 }
  - { offset: 0x2691A, size: 0x8, addend: 0x0, symName: __RNvYNtNtCsjTXeTLYUiB9_18tracing_attributes6expand20IdentAndTypesRenamerNtNtNtCsdGrGZaRBwMb_3syn3gen9visit_mut8VisitMut18visit_item_mod_mutB6_, symObjAddr: 0x170C0, symBinAddr: 0x27BE0, symSize: 0x30 }
  - { offset: 0x2695C, size: 0x8, addend: 0x0, symName: __RNvYNtNtCsjTXeTLYUiB9_18tracing_attributes6expand20IdentAndTypesRenamerNtNtNtCsdGrGZaRBwMb_3syn3gen9visit_mut8VisitMut18visit_item_use_mutB6_, symObjAddr: 0x170F0, symBinAddr: 0x27C10, symSize: 0x30 }
  - { offset: 0x2699E, size: 0x8, addend: 0x0, symName: __RNvYNtNtCsjTXeTLYUiB9_18tracing_attributes6expand20IdentAndTypesRenamerNtNtNtCsdGrGZaRBwMb_3syn3gen9visit_mut8VisitMut18visit_lifetime_mutB6_, symObjAddr: 0x17120, symBinAddr: 0x27C40, symSize: 0x30 }
  - { offset: 0x269E0, size: 0x8, addend: 0x0, symName: __RNvYNtNtCsjTXeTLYUiB9_18tracing_attributes6expand20IdentAndTypesRenamerNtNtNtCsdGrGZaRBwMb_3syn3gen9visit_mut8VisitMut18visit_lit_bool_mutB6_, symObjAddr: 0x17150, symBinAddr: 0x27C70, symSize: 0x30 }
  - { offset: 0x26A22, size: 0x8, addend: 0x0, symName: __RNvYNtNtCsjTXeTLYUiB9_18tracing_attributes6expand20IdentAndTypesRenamerNtNtNtCsdGrGZaRBwMb_3syn3gen9visit_mut8VisitMut18visit_lit_byte_mutB6_, symObjAddr: 0x17180, symBinAddr: 0x27CA0, symSize: 0x30 }
  - { offset: 0x26A64, size: 0x8, addend: 0x0, symName: __RNvYNtNtCsjTXeTLYUiB9_18tracing_attributes6expand20IdentAndTypesRenamerNtNtNtCsdGrGZaRBwMb_3syn3gen9visit_mut8VisitMut18visit_lit_char_mutB6_, symObjAddr: 0x171B0, symBinAddr: 0x27CD0, symSize: 0x30 }
  - { offset: 0x26AA6, size: 0x8, addend: 0x0, symName: __RNvYNtNtCsjTXeTLYUiB9_18tracing_attributes6expand20IdentAndTypesRenamerNtNtNtCsdGrGZaRBwMb_3syn3gen9visit_mut8VisitMut18visit_lit_cstr_mutB6_, symObjAddr: 0x171E0, symBinAddr: 0x27D00, symSize: 0x30 }
  - { offset: 0x26AE8, size: 0x8, addend: 0x0, symName: __RNvYNtNtCsjTXeTLYUiB9_18tracing_attributes6expand20IdentAndTypesRenamerNtNtNtCsdGrGZaRBwMb_3syn3gen9visit_mut8VisitMut18visit_pat_rest_mutB6_, symObjAddr: 0x17210, symBinAddr: 0x27D30, symSize: 0x30 }
  - { offset: 0x26B2A, size: 0x8, addend: 0x0, symName: __RNvYNtNtCsjTXeTLYUiB9_18tracing_attributes6expand20IdentAndTypesRenamerNtNtNtCsdGrGZaRBwMb_3syn3gen9visit_mut8VisitMut18visit_pat_type_mutB6_, symObjAddr: 0x17240, symBinAddr: 0x27D60, symSize: 0x30 }
  - { offset: 0x26B6C, size: 0x8, addend: 0x0, symName: __RNvYNtNtCsjTXeTLYUiB9_18tracing_attributes6expand20IdentAndTypesRenamerNtNtNtCsdGrGZaRBwMb_3syn3gen9visit_mut8VisitMut18visit_pat_wild_mutB6_, symObjAddr: 0x17270, symBinAddr: 0x27D90, symSize: 0x30 }
  - { offset: 0x26BAE, size: 0x8, addend: 0x0, symName: __RNvYNtNtCsjTXeTLYUiB9_18tracing_attributes6expand20IdentAndTypesRenamerNtNtNtCsdGrGZaRBwMb_3syn3gen9visit_mut8VisitMut18visit_receiver_mutB6_, symObjAddr: 0x172A0, symBinAddr: 0x27DC0, symSize: 0x30 }
  - { offset: 0x26BF0, size: 0x8, addend: 0x0, symName: __RNvYNtNtCsjTXeTLYUiB9_18tracing_attributes6expand20IdentAndTypesRenamerNtNtNtCsdGrGZaRBwMb_3syn3gen9visit_mut8VisitMut18visit_use_glob_mutB6_, symObjAddr: 0x172D0, symBinAddr: 0x27DF0, symSize: 0x30 }
  - { offset: 0x26C32, size: 0x8, addend: 0x0, symName: __RNvYNtNtCsjTXeTLYUiB9_18tracing_attributes6expand20IdentAndTypesRenamerNtNtNtCsdGrGZaRBwMb_3syn3gen9visit_mut8VisitMut18visit_use_name_mutB6_, symObjAddr: 0x17300, symBinAddr: 0x27E20, symSize: 0x30 }
  - { offset: 0x26C74, size: 0x8, addend: 0x0, symName: __RNvYNtNtCsjTXeTLYUiB9_18tracing_attributes6expand20IdentAndTypesRenamerNtNtNtCsdGrGZaRBwMb_3syn3gen9visit_mut8VisitMut18visit_use_path_mutB6_, symObjAddr: 0x17330, symBinAddr: 0x27E50, symSize: 0x30 }
  - { offset: 0x26CB6, size: 0x8, addend: 0x0, symName: __RNvYNtNtCsjTXeTLYUiB9_18tracing_attributes6expand20IdentAndTypesRenamerNtNtNtCsdGrGZaRBwMb_3syn3gen9visit_mut8VisitMut18visit_use_tree_mutB6_, symObjAddr: 0x17360, symBinAddr: 0x27E80, symSize: 0x30 }
  - { offset: 0x26CF8, size: 0x8, addend: 0x0, symName: __RNvYNtNtCsjTXeTLYUiB9_18tracing_attributes6expand20IdentAndTypesRenamerNtNtNtCsdGrGZaRBwMb_3syn3gen9visit_mut8VisitMut18visit_variadic_mutB6_, symObjAddr: 0x17390, symBinAddr: 0x27EB0, symSize: 0x30 }
  - { offset: 0x26D3A, size: 0x8, addend: 0x0, symName: __RNvYNtNtCsjTXeTLYUiB9_18tracing_attributes6expand20IdentAndTypesRenamerNtNtNtCsdGrGZaRBwMb_3syn3gen9visit_mut8VisitMut19visit_attribute_mutB6_, symObjAddr: 0x173C0, symBinAddr: 0x27EE0, symSize: 0x30 }
  - { offset: 0x26D79, size: 0x8, addend: 0x0, symName: __RNvYNtNtCsjTXeTLYUiB9_18tracing_attributes6expand20IdentAndTypesRenamerNtNtNtCsdGrGZaRBwMb_3syn3gen9visit_mut8VisitMut19visit_expr_call_mutB6_, symObjAddr: 0x173F0, symBinAddr: 0x27F10, symSize: 0x30 }
  - { offset: 0x26DB8, size: 0x8, addend: 0x0, symName: __RNvYNtNtCsjTXeTLYUiB9_18tracing_attributes6expand20IdentAndTypesRenamerNtNtNtCsdGrGZaRBwMb_3syn3gen9visit_mut8VisitMut19visit_expr_cast_mutB6_, symObjAddr: 0x17420, symBinAddr: 0x27F40, symSize: 0x30 }
  - { offset: 0x26DF7, size: 0x8, addend: 0x0, symName: __RNvYNtNtCsjTXeTLYUiB9_18tracing_attributes6expand20IdentAndTypesRenamerNtNtNtCsdGrGZaRBwMb_3syn3gen9visit_mut8VisitMut19visit_expr_loop_mutB6_, symObjAddr: 0x17450, symBinAddr: 0x27F70, symSize: 0x30 }
  - { offset: 0x26E36, size: 0x8, addend: 0x0, symName: __RNvYNtNtCsjTXeTLYUiB9_18tracing_attributes6expand20IdentAndTypesRenamerNtNtNtCsdGrGZaRBwMb_3syn3gen9visit_mut8VisitMut19visit_expr_path_mutB6_, symObjAddr: 0x17480, symBinAddr: 0x27FA0, symSize: 0x30 }
  - { offset: 0x26E78, size: 0x8, addend: 0x0, symName: __RNvYNtNtCsjTXeTLYUiB9_18tracing_attributes6expand20IdentAndTypesRenamerNtNtNtCsdGrGZaRBwMb_3syn3gen9visit_mut8VisitMut19visit_field_pat_mutB6_, symObjAddr: 0x174B0, symBinAddr: 0x27FD0, symSize: 0x30 }
  - { offset: 0x26EBA, size: 0x8, addend: 0x0, symName: __RNvYNtNtCsjTXeTLYUiB9_18tracing_attributes6expand20IdentAndTypesRenamerNtNtNtCsdGrGZaRBwMb_3syn3gen9visit_mut8VisitMut19visit_impl_item_mutB6_, symObjAddr: 0x174E0, symBinAddr: 0x28000, symSize: 0x30 }
  - { offset: 0x26EFC, size: 0x8, addend: 0x0, symName: __RNvYNtNtCsjTXeTLYUiB9_18tracing_attributes6expand20IdentAndTypesRenamerNtNtNtCsdGrGZaRBwMb_3syn3gen9visit_mut8VisitMut19visit_item_enum_mutB6_, symObjAddr: 0x17510, symBinAddr: 0x28030, symSize: 0x30 }
  - { offset: 0x26F3E, size: 0x8, addend: 0x0, symName: __RNvYNtNtCsjTXeTLYUiB9_18tracing_attributes6expand20IdentAndTypesRenamerNtNtNtCsdGrGZaRBwMb_3syn3gen9visit_mut8VisitMut19visit_item_impl_mutB6_, symObjAddr: 0x17540, symBinAddr: 0x28060, symSize: 0x30 }
  - { offset: 0x26F80, size: 0x8, addend: 0x0, symName: __RNvYNtNtCsjTXeTLYUiB9_18tracing_attributes6expand20IdentAndTypesRenamerNtNtNtCsdGrGZaRBwMb_3syn3gen9visit_mut8VisitMut19visit_item_type_mutB6_, symObjAddr: 0x17570, symBinAddr: 0x28090, symSize: 0x30 }
  - { offset: 0x26FC2, size: 0x8, addend: 0x0, symName: __RNvYNtNtCsjTXeTLYUiB9_18tracing_attributes6expand20IdentAndTypesRenamerNtNtNtCsdGrGZaRBwMb_3syn3gen9visit_mut8VisitMut19visit_lit_float_mutB6_, symObjAddr: 0x175A0, symBinAddr: 0x280C0, symSize: 0x30 }
  - { offset: 0x27004, size: 0x8, addend: 0x0, symName: __RNvYNtNtCsjTXeTLYUiB9_18tracing_attributes6expand20IdentAndTypesRenamerNtNtNtCsdGrGZaRBwMb_3syn3gen9visit_mut8VisitMut19visit_meta_list_mutB6_, symObjAddr: 0x175D0, symBinAddr: 0x280F0, symSize: 0x30 }
  - { offset: 0x27046, size: 0x8, addend: 0x0, symName: __RNvYNtNtCsjTXeTLYUiB9_18tracing_attributes6expand20IdentAndTypesRenamerNtNtNtCsdGrGZaRBwMb_3syn3gen9visit_mut8VisitMut19visit_pat_ident_mutB6_, symObjAddr: 0x17600, symBinAddr: 0x28120, symSize: 0x30 }
  - { offset: 0x27088, size: 0x8, addend: 0x0, symName: __RNvYNtNtCsjTXeTLYUiB9_18tracing_attributes6expand20IdentAndTypesRenamerNtNtNtCsdGrGZaRBwMb_3syn3gen9visit_mut8VisitMut19visit_pat_paren_mutB6_, symObjAddr: 0x17630, symBinAddr: 0x28150, symSize: 0x30 }
  - { offset: 0x270CA, size: 0x8, addend: 0x0, symName: __RNvYNtNtCsjTXeTLYUiB9_18tracing_attributes6expand20IdentAndTypesRenamerNtNtNtCsdGrGZaRBwMb_3syn3gen9visit_mut8VisitMut19visit_pat_slice_mutB6_, symObjAddr: 0x17660, symBinAddr: 0x28180, symSize: 0x30 }
  - { offset: 0x2710C, size: 0x8, addend: 0x0, symName: __RNvYNtNtCsjTXeTLYUiB9_18tracing_attributes6expand20IdentAndTypesRenamerNtNtNtCsdGrGZaRBwMb_3syn3gen9visit_mut8VisitMut19visit_pat_tuple_mutB6_, symObjAddr: 0x17690, symBinAddr: 0x281B0, symSize: 0x30 }
  - { offset: 0x2714E, size: 0x8, addend: 0x0, symName: __RNvYNtNtCsjTXeTLYUiB9_18tracing_attributes6expand20IdentAndTypesRenamerNtNtNtCsdGrGZaRBwMb_3syn3gen9visit_mut8VisitMut19visit_signature_mutB6_, symObjAddr: 0x176C0, symBinAddr: 0x281E0, symSize: 0x30 }
  - { offset: 0x27190, size: 0x8, addend: 0x0, symName: __RNvYNtNtCsjTXeTLYUiB9_18tracing_attributes6expand20IdentAndTypesRenamerNtNtNtCsdGrGZaRBwMb_3syn3gen9visit_mut8VisitMut19visit_use_group_mutB6_, symObjAddr: 0x176F0, symBinAddr: 0x28210, symSize: 0x30 }
  - { offset: 0x271D2, size: 0x8, addend: 0x0, symName: __RNvYNtNtCsjTXeTLYUiB9_18tracing_attributes6expand20IdentAndTypesRenamerNtNtNtCsdGrGZaRBwMb_3syn3gen9visit_mut8VisitMut20visit_assoc_type_mutB6_, symObjAddr: 0x17720, symBinAddr: 0x28240, symSize: 0x30 }
  - { offset: 0x27211, size: 0x8, addend: 0x0, symName: __RNvYNtNtCsjTXeTLYUiB9_18tracing_attributes6expand20IdentAndTypesRenamerNtNtNtCsdGrGZaRBwMb_3syn3gen9visit_mut8VisitMut20visit_attr_style_mutB6_, symObjAddr: 0x17750, symBinAddr: 0x28270, symSize: 0x30 }
  - { offset: 0x27250, size: 0x8, addend: 0x0, symName: __RNvYNtNtCsjTXeTLYUiB9_18tracing_attributes6expand20IdentAndTypesRenamerNtNtNtCsdGrGZaRBwMb_3syn3gen9visit_mut8VisitMut20visit_attributes_mutB6_, symObjAddr: 0x17780, symBinAddr: 0x282A0, symSize: 0x80 }
  - { offset: 0x272C9, size: 0x8, addend: 0x0, symName: __RNvYNtNtCsjTXeTLYUiB9_18tracing_attributes6expand20IdentAndTypesRenamerNtNtNtCsdGrGZaRBwMb_3syn3gen9visit_mut8VisitMut20visit_constraint_mutB6_, symObjAddr: 0x17800, symBinAddr: 0x28320, symSize: 0x30 }
  - { offset: 0x27308, size: 0x8, addend: 0x0, symName: __RNvYNtNtCsjTXeTLYUiB9_18tracing_attributes6expand20IdentAndTypesRenamerNtNtNtCsdGrGZaRBwMb_3syn3gen9visit_mut8VisitMut20visit_expr_array_mutB6_, symObjAddr: 0x17830, symBinAddr: 0x28350, symSize: 0x30 }
  - { offset: 0x27347, size: 0x8, addend: 0x0, symName: __RNvYNtNtCsjTXeTLYUiB9_18tracing_attributes6expand20IdentAndTypesRenamerNtNtNtCsdGrGZaRBwMb_3syn3gen9visit_mut8VisitMut20visit_expr_async_mutB6_, symObjAddr: 0x17860, symBinAddr: 0x28380, symSize: 0x30 }
  - { offset: 0x27386, size: 0x8, addend: 0x0, symName: __RNvYNtNtCsjTXeTLYUiB9_18tracing_attributes6expand20IdentAndTypesRenamerNtNtNtCsdGrGZaRBwMb_3syn3gen9visit_mut8VisitMut20visit_expr_await_mutB6_, symObjAddr: 0x17890, symBinAddr: 0x283B0, symSize: 0x30 }
  - { offset: 0x273C5, size: 0x8, addend: 0x0, symName: __RNvYNtNtCsjTXeTLYUiB9_18tracing_attributes6expand20IdentAndTypesRenamerNtNtNtCsdGrGZaRBwMb_3syn3gen9visit_mut8VisitMut20visit_expr_block_mutB6_, symObjAddr: 0x178C0, symBinAddr: 0x283E0, symSize: 0x30 }
  - { offset: 0x27404, size: 0x8, addend: 0x0, symName: __RNvYNtNtCsjTXeTLYUiB9_18tracing_attributes6expand20IdentAndTypesRenamerNtNtNtCsdGrGZaRBwMb_3syn3gen9visit_mut8VisitMut20visit_expr_break_mutB6_, symObjAddr: 0x178F0, symBinAddr: 0x28410, symSize: 0x30 }
  - { offset: 0x27443, size: 0x8, addend: 0x0, symName: __RNvYNtNtCsjTXeTLYUiB9_18tracing_attributes6expand20IdentAndTypesRenamerNtNtNtCsdGrGZaRBwMb_3syn3gen9visit_mut8VisitMut20visit_expr_const_mutB6_, symObjAddr: 0x17920, symBinAddr: 0x28440, symSize: 0x30 }
  - { offset: 0x27482, size: 0x8, addend: 0x0, symName: __RNvYNtNtCsjTXeTLYUiB9_18tracing_attributes6expand20IdentAndTypesRenamerNtNtNtCsdGrGZaRBwMb_3syn3gen9visit_mut8VisitMut20visit_expr_field_mutB6_, symObjAddr: 0x17950, symBinAddr: 0x28470, symSize: 0x30 }
  - { offset: 0x274C1, size: 0x8, addend: 0x0, symName: __RNvYNtNtCsjTXeTLYUiB9_18tracing_attributes6expand20IdentAndTypesRenamerNtNtNtCsdGrGZaRBwMb_3syn3gen9visit_mut8VisitMut20visit_expr_group_mutB6_, symObjAddr: 0x17980, symBinAddr: 0x284A0, symSize: 0x30 }
  - { offset: 0x27500, size: 0x8, addend: 0x0, symName: __RNvYNtNtCsjTXeTLYUiB9_18tracing_attributes6expand20IdentAndTypesRenamerNtNtNtCsdGrGZaRBwMb_3syn3gen9visit_mut8VisitMut20visit_expr_index_mutB6_, symObjAddr: 0x179B0, symBinAddr: 0x284D0, symSize: 0x30 }
  - { offset: 0x2753F, size: 0x8, addend: 0x0, symName: __RNvYNtNtCsjTXeTLYUiB9_18tracing_attributes6expand20IdentAndTypesRenamerNtNtNtCsdGrGZaRBwMb_3syn3gen9visit_mut8VisitMut20visit_expr_infer_mutB6_, symObjAddr: 0x179E0, symBinAddr: 0x28500, symSize: 0x30 }
  - { offset: 0x2757E, size: 0x8, addend: 0x0, symName: __RNvYNtNtCsjTXeTLYUiB9_18tracing_attributes6expand20IdentAndTypesRenamerNtNtNtCsdGrGZaRBwMb_3syn3gen9visit_mut8VisitMut20visit_expr_macro_mutB6_, symObjAddr: 0x17A10, symBinAddr: 0x28530, symSize: 0x30 }
  - { offset: 0x275BD, size: 0x8, addend: 0x0, symName: __RNvYNtNtCsjTXeTLYUiB9_18tracing_attributes6expand20IdentAndTypesRenamerNtNtNtCsdGrGZaRBwMb_3syn3gen9visit_mut8VisitMut20visit_expr_match_mutB6_, symObjAddr: 0x17A40, symBinAddr: 0x28560, symSize: 0x30 }
  - { offset: 0x275FF, size: 0x8, addend: 0x0, symName: __RNvYNtNtCsjTXeTLYUiB9_18tracing_attributes6expand20IdentAndTypesRenamerNtNtNtCsdGrGZaRBwMb_3syn3gen9visit_mut8VisitMut20visit_expr_paren_mutB6_, symObjAddr: 0x17A70, symBinAddr: 0x28590, symSize: 0x30 }
  - { offset: 0x27641, size: 0x8, addend: 0x0, symName: __RNvYNtNtCsjTXeTLYUiB9_18tracing_attributes6expand20IdentAndTypesRenamerNtNtNtCsdGrGZaRBwMb_3syn3gen9visit_mut8VisitMut20visit_expr_range_mutB6_, symObjAddr: 0x17AA0, symBinAddr: 0x285C0, symSize: 0x30 }
  - { offset: 0x27683, size: 0x8, addend: 0x0, symName: __RNvYNtNtCsjTXeTLYUiB9_18tracing_attributes6expand20IdentAndTypesRenamerNtNtNtCsdGrGZaRBwMb_3syn3gen9visit_mut8VisitMut20visit_expr_tuple_mutB6_, symObjAddr: 0x17AD0, symBinAddr: 0x285F0, symSize: 0x30 }
  - { offset: 0x276C5, size: 0x8, addend: 0x0, symName: __RNvYNtNtCsjTXeTLYUiB9_18tracing_attributes6expand20IdentAndTypesRenamerNtNtNtCsdGrGZaRBwMb_3syn3gen9visit_mut8VisitMut20visit_expr_unary_mutB6_, symObjAddr: 0x17B00, symBinAddr: 0x28620, symSize: 0x30 }
  - { offset: 0x27707, size: 0x8, addend: 0x0, symName: __RNvYNtNtCsjTXeTLYUiB9_18tracing_attributes6expand20IdentAndTypesRenamerNtNtNtCsdGrGZaRBwMb_3syn3gen9visit_mut8VisitMut20visit_expr_while_mutB6_, symObjAddr: 0x17B30, symBinAddr: 0x28650, symSize: 0x30 }
  - { offset: 0x27749, size: 0x8, addend: 0x0, symName: __RNvYNtNtCsjTXeTLYUiB9_18tracing_attributes6expand20IdentAndTypesRenamerNtNtNtCsdGrGZaRBwMb_3syn3gen9visit_mut8VisitMut20visit_expr_yield_mutB6_, symObjAddr: 0x17B60, symBinAddr: 0x28680, symSize: 0x30 }
  - { offset: 0x2778B, size: 0x8, addend: 0x0, symName: __RNvYNtNtCsjTXeTLYUiB9_18tracing_attributes6expand20IdentAndTypesRenamerNtNtNtCsdGrGZaRBwMb_3syn3gen9visit_mut8VisitMut20visit_item_const_mutB6_, symObjAddr: 0x17B90, symBinAddr: 0x286B0, symSize: 0x30 }
  - { offset: 0x277CD, size: 0x8, addend: 0x0, symName: __RNvYNtNtCsjTXeTLYUiB9_18tracing_attributes6expand20IdentAndTypesRenamerNtNtNtCsdGrGZaRBwMb_3syn3gen9visit_mut8VisitMut20visit_item_macro_mutB6_, symObjAddr: 0x17BC0, symBinAddr: 0x286E0, symSize: 0x30 }
  - { offset: 0x2780F, size: 0x8, addend: 0x0, symName: __RNvYNtNtCsjTXeTLYUiB9_18tracing_attributes6expand20IdentAndTypesRenamerNtNtNtCsdGrGZaRBwMb_3syn3gen9visit_mut8VisitMut20visit_item_trait_mutB6_, symObjAddr: 0x17BF0, symBinAddr: 0x28710, symSize: 0x30 }
  - { offset: 0x27851, size: 0x8, addend: 0x0, symName: __RNvYNtNtCsjTXeTLYUiB9_18tracing_attributes6expand20IdentAndTypesRenamerNtNtNtCsdGrGZaRBwMb_3syn3gen9visit_mut8VisitMut20visit_item_union_mutB6_, symObjAddr: 0x17C20, symBinAddr: 0x28740, symSize: 0x30 }
  - { offset: 0x27893, size: 0x8, addend: 0x0, symName: __RNvYNtNtCsjTXeTLYUiB9_18tracing_attributes6expand20IdentAndTypesRenamerNtNtNtCsdGrGZaRBwMb_3syn3gen9visit_mut8VisitMut20visit_local_init_mutB6_, symObjAddr: 0x17C50, symBinAddr: 0x28770, symSize: 0x30 }
  - { offset: 0x278D5, size: 0x8, addend: 0x0, symName: __RNvYNtNtCsjTXeTLYUiB9_18tracing_attributes6expand20IdentAndTypesRenamerNtNtNtCsdGrGZaRBwMb_3syn3gen9visit_mut8VisitMut20visit_pat_struct_mutB6_, symObjAddr: 0x17C80, symBinAddr: 0x287A0, symSize: 0x30 }
  - { offset: 0x27917, size: 0x8, addend: 0x0, symName: __RNvYNtNtCsjTXeTLYUiB9_18tracing_attributes6expand20IdentAndTypesRenamerNtNtNtCsdGrGZaRBwMb_3syn3gen9visit_mut8VisitMut20visit_stmt_macro_mutB6_, symObjAddr: 0x17CB0, symBinAddr: 0x287D0, symSize: 0x30 }
  - { offset: 0x27959, size: 0x8, addend: 0x0, symName: __RNvYNtNtCsjTXeTLYUiB9_18tracing_attributes6expand20IdentAndTypesRenamerNtNtNtCsdGrGZaRBwMb_3syn3gen9visit_mut8VisitMut20visit_trait_item_mutB6_, symObjAddr: 0x17CE0, symBinAddr: 0x28800, symSize: 0x30 }
  - { offset: 0x2799B, size: 0x8, addend: 0x0, symName: __RNvYNtNtCsjTXeTLYUiB9_18tracing_attributes6expand20IdentAndTypesRenamerNtNtNtCsdGrGZaRBwMb_3syn3gen9visit_mut8VisitMut20visit_type_param_mutB6_, symObjAddr: 0x17D10, symBinAddr: 0x28830, symSize: 0x30 }
  - { offset: 0x279DD, size: 0x8, addend: 0x0, symName: __RNvYNtNtCsjTXeTLYUiB9_18tracing_attributes6expand20IdentAndTypesRenamerNtNtNtCsdGrGZaRBwMb_3syn3gen9visit_mut8VisitMut20visit_use_rename_mutB6_, symObjAddr: 0x17D40, symBinAddr: 0x28860, symSize: 0x30 }
  - { offset: 0x27A1F, size: 0x8, addend: 0x0, symName: __RNvYNtNtCsjTXeTLYUiB9_18tracing_attributes6expand20IdentAndTypesRenamerNtNtNtCsdGrGZaRBwMb_3syn3gen9visit_mut8VisitMut20visit_visibility_mutB6_, symObjAddr: 0x17D70, symBinAddr: 0x28890, symSize: 0x30 }
  - { offset: 0x27A61, size: 0x8, addend: 0x0, symName: __RNvYNtNtCsjTXeTLYUiB9_18tracing_attributes6expand20IdentAndTypesRenamerNtNtNtCsdGrGZaRBwMb_3syn3gen9visit_mut8VisitMut21visit_assoc_const_mutB6_, symObjAddr: 0x17DA0, symBinAddr: 0x288C0, symSize: 0x30 }
  - { offset: 0x27AA0, size: 0x8, addend: 0x0, symName: __RNvYNtNtCsjTXeTLYUiB9_18tracing_attributes6expand20IdentAndTypesRenamerNtNtNtCsdGrGZaRBwMb_3syn3gen9visit_mut8VisitMut21visit_const_param_mutB6_, symObjAddr: 0x17DD0, symBinAddr: 0x288F0, symSize: 0x30 }
  - { offset: 0x27ADF, size: 0x8, addend: 0x0, symName: __RNvYNtNtCsjTXeTLYUiB9_18tracing_attributes6expand20IdentAndTypesRenamerNtNtNtCsdGrGZaRBwMb_3syn3gen9visit_mut8VisitMut21visit_expr_assign_mutB6_, symObjAddr: 0x17E00, symBinAddr: 0x28920, symSize: 0x30 }
  - { offset: 0x27B1E, size: 0x8, addend: 0x0, symName: __RNvYNtNtCsjTXeTLYUiB9_18tracing_attributes6expand20IdentAndTypesRenamerNtNtNtCsdGrGZaRBwMb_3syn3gen9visit_mut8VisitMut21visit_expr_binary_mutB6_, symObjAddr: 0x17E30, symBinAddr: 0x28950, symSize: 0x30 }
  - { offset: 0x27B5D, size: 0x8, addend: 0x0, symName: __RNvYNtNtCsjTXeTLYUiB9_18tracing_attributes6expand20IdentAndTypesRenamerNtNtNtCsdGrGZaRBwMb_3syn3gen9visit_mut8VisitMut21visit_expr_repeat_mutB6_, symObjAddr: 0x17E60, symBinAddr: 0x28980, symSize: 0x30 }
  - { offset: 0x27B9F, size: 0x8, addend: 0x0, symName: __RNvYNtNtCsjTXeTLYUiB9_18tracing_attributes6expand20IdentAndTypesRenamerNtNtNtCsdGrGZaRBwMb_3syn3gen9visit_mut8VisitMut21visit_expr_return_mutB6_, symObjAddr: 0x17E90, symBinAddr: 0x289B0, symSize: 0x30 }
  - { offset: 0x27BE1, size: 0x8, addend: 0x0, symName: __RNvYNtNtCsjTXeTLYUiB9_18tracing_attributes6expand20IdentAndTypesRenamerNtNtNtCsdGrGZaRBwMb_3syn3gen9visit_mut8VisitMut21visit_expr_struct_mutB6_, symObjAddr: 0x17EC0, symBinAddr: 0x289E0, symSize: 0x30 }
  - { offset: 0x27C23, size: 0x8, addend: 0x0, symName: __RNvYNtNtCsjTXeTLYUiB9_18tracing_attributes6expand20IdentAndTypesRenamerNtNtNtCsdGrGZaRBwMb_3syn3gen9visit_mut8VisitMut21visit_expr_unsafe_mutB6_, symObjAddr: 0x17EF0, symBinAddr: 0x28A10, symSize: 0x30 }
  - { offset: 0x27C65, size: 0x8, addend: 0x0, symName: __RNvYNtNtCsjTXeTLYUiB9_18tracing_attributes6expand20IdentAndTypesRenamerNtNtNtCsdGrGZaRBwMb_3syn3gen9visit_mut8VisitMut21visit_field_value_mutB6_, symObjAddr: 0x17F20, symBinAddr: 0x28A40, symSize: 0x30 }
  - { offset: 0x27CA7, size: 0x8, addend: 0x0, symName: __RNvYNtNtCsjTXeTLYUiB9_18tracing_attributes6expand20IdentAndTypesRenamerNtNtNtCsdGrGZaRBwMb_3syn3gen9visit_mut8VisitMut21visit_item_static_mutB6_, symObjAddr: 0x17F50, symBinAddr: 0x28A70, symSize: 0x30 }
  - { offset: 0x27CE9, size: 0x8, addend: 0x0, symName: __RNvYNtNtCsjTXeTLYUiB9_18tracing_attributes6expand20IdentAndTypesRenamerNtNtNtCsdGrGZaRBwMb_3syn3gen9visit_mut8VisitMut21visit_item_struct_mutB6_, symObjAddr: 0x17F80, symBinAddr: 0x28AA0, symSize: 0x30 }
  - { offset: 0x27D2B, size: 0x8, addend: 0x0, symName: __RNvYNtNtCsjTXeTLYUiB9_18tracing_attributes6expand20IdentAndTypesRenamerNtNtNtCsdGrGZaRBwMb_3syn3gen9visit_mut8VisitMut21visit_return_type_mutB6_, symObjAddr: 0x17FB0, symBinAddr: 0x28AD0, symSize: 0x30 }
  - { offset: 0x27D6D, size: 0x8, addend: 0x0, symName: __RNvYNtNtCsjTXeTLYUiB9_18tracing_attributes6expand20IdentAndTypesRenamerNtNtNtCsdGrGZaRBwMb_3syn3gen9visit_mut8VisitMut21visit_trait_bound_mutB6_, symObjAddr: 0x17FE0, symBinAddr: 0x28B00, symSize: 0x30 }
  - { offset: 0x27DAF, size: 0x8, addend: 0x0, symName: __RNvYNtNtCsjTXeTLYUiB9_18tracing_attributes6expand20IdentAndTypesRenamerNtNtNtCsdGrGZaRBwMb_3syn3gen9visit_mut8VisitMut22visit_expr_closure_mutB6_, symObjAddr: 0x18010, symBinAddr: 0x28B30, symSize: 0x30 }
  - { offset: 0x27DEE, size: 0x8, addend: 0x0, symName: __RNvYNtNtCsjTXeTLYUiB9_18tracing_attributes6expand20IdentAndTypesRenamerNtNtNtCsdGrGZaRBwMb_3syn3gen9visit_mut8VisitMut22visit_fields_named_mutB6_, symObjAddr: 0x18040, symBinAddr: 0x28B60, symSize: 0x30 }
  - { offset: 0x27E30, size: 0x8, addend: 0x0, symName: __RNvYNtNtCsjTXeTLYUiB9_18tracing_attributes6expand20IdentAndTypesRenamerNtNtNtCsdGrGZaRBwMb_3syn3gen9visit_mut8VisitMut22visit_foreign_item_mutB6_, symObjAddr: 0x18070, symBinAddr: 0x28B90, symSize: 0x30 }
  - { offset: 0x27E72, size: 0x8, addend: 0x0, symName: __RNvYNtNtCsjTXeTLYUiB9_18tracing_attributes6expand20IdentAndTypesRenamerNtNtNtCsdGrGZaRBwMb_3syn3gen9visit_mut8VisitMut22visit_impl_item_fn_mutB6_, symObjAddr: 0x180A0, symBinAddr: 0x28BC0, symSize: 0x30 }
  - { offset: 0x27EB4, size: 0x8, addend: 0x0, symName: __RNvYNtNtCsjTXeTLYUiB9_18tracing_attributes6expand20IdentAndTypesRenamerNtNtNtCsdGrGZaRBwMb_3syn3gen9visit_mut8VisitMut22visit_lit_byte_str_mutB6_, symObjAddr: 0x180D0, symBinAddr: 0x28BF0, symSize: 0x30 }
  - { offset: 0x27EF6, size: 0x8, addend: 0x0, symName: __RNvYNtNtCsjTXeTLYUiB9_18tracing_attributes6expand20IdentAndTypesRenamerNtNtNtCsdGrGZaRBwMb_3syn3gen9visit_mut8VisitMut22visit_path_segment_mutB6_, symObjAddr: 0x18100, symBinAddr: 0x28C20, symSize: 0x30 }
  - { offset: 0x27F38, size: 0x8, addend: 0x0, symName: __RNvYNtNtCsjTXeTLYUiB9_18tracing_attributes6expand20IdentAndTypesRenamerNtNtNtCsdGrGZaRBwMb_3syn3gen9visit_mut8VisitMut22visit_range_limits_mutB6_, symObjAddr: 0x18130, symBinAddr: 0x28C50, symSize: 0x30 }
  - { offset: 0x27F7A, size: 0x8, addend: 0x0, symName: __RNvYNtNtCsjTXeTLYUiB9_18tracing_attributes6expand20IdentAndTypesRenamerNtNtNtCsdGrGZaRBwMb_3syn3gen9visit_mut8VisitMut22visit_token_stream_mutB6_, symObjAddr: 0x18160, symBinAddr: 0x28C80, symSize: 0x20 }
  - { offset: 0x27FBC, size: 0x8, addend: 0x0, symName: __RNvYNtNtCsjTXeTLYUiB9_18tracing_attributes6expand20IdentAndTypesRenamerNtNtNtCsdGrGZaRBwMb_3syn3gen9visit_mut8VisitMut22visit_where_clause_mutB6_, symObjAddr: 0x18180, symBinAddr: 0x28CA0, symSize: 0x30 }
  - { offset: 0x27FFE, size: 0x8, addend: 0x0, symName: __RNvYNtNtCsjTXeTLYUiB9_18tracing_attributes6expand20IdentAndTypesRenamerNtNtNtCsdGrGZaRBwMb_3syn3gen9visit_mut8VisitMut23visit_expr_continue_mutB6_, symObjAddr: 0x181B0, symBinAddr: 0x28CD0, symSize: 0x30 }
  - { offset: 0x2803D, size: 0x8, addend: 0x0, symName: __RNvYNtNtCsjTXeTLYUiB9_18tracing_attributes6expand20IdentAndTypesRenamerNtNtNtCsdGrGZaRBwMb_3syn3gen9visit_mut8VisitMut23visit_expr_for_loop_mutB6_, symObjAddr: 0x181E0, symBinAddr: 0x28D00, symSize: 0x30 }
  - { offset: 0x2807C, size: 0x8, addend: 0x0, symName: __RNvYNtNtCsjTXeTLYUiB9_18tracing_attributes6expand20IdentAndTypesRenamerNtNtNtCsdGrGZaRBwMb_3syn3gen9visit_mut8VisitMut23visit_expr_raw_addr_mutB6_, symObjAddr: 0x18210, symBinAddr: 0x28D30, symSize: 0x30 }
  - { offset: 0x280BE, size: 0x8, addend: 0x0, symName: __RNvYNtNtCsjTXeTLYUiB9_18tracing_attributes6expand20IdentAndTypesRenamerNtNtNtCsdGrGZaRBwMb_3syn3gen9visit_mut8VisitMut23visit_generic_param_mutB6_, symObjAddr: 0x18240, symBinAddr: 0x28D60, symSize: 0x30 }
  - { offset: 0x28100, size: 0x8, addend: 0x0, symName: __RNvYNtNtCsjTXeTLYUiB9_18tracing_attributes6expand20IdentAndTypesRenamerNtNtNtCsdGrGZaRBwMb_3syn3gen9visit_mut8VisitMut23visit_pat_reference_mutB6_, symObjAddr: 0x18270, symBinAddr: 0x28D90, symSize: 0x30 }
  - { offset: 0x28142, size: 0x8, addend: 0x0, symName: __RNvYNtNtCsjTXeTLYUiB9_18tracing_attributes6expand20IdentAndTypesRenamerNtNtNtCsdGrGZaRBwMb_3syn3gen9visit_mut8VisitMut23visit_trait_item_fn_mutB6_, symObjAddr: 0x182A0, symBinAddr: 0x28DC0, symSize: 0x30 }
  - { offset: 0x28184, size: 0x8, addend: 0x0, symName: __RNvYNtNtCsjTXeTLYUiB9_18tracing_attributes6expand20IdentAndTypesRenamerNtNtNtCsdGrGZaRBwMb_3syn3gen9visit_mut8VisitMut24visit_captured_param_mutB6_, symObjAddr: 0x182D0, symBinAddr: 0x28DF0, symSize: 0x30 }
  - { offset: 0x281C3, size: 0x8, addend: 0x0, symName: __RNvYNtNtCsjTXeTLYUiB9_18tracing_attributes6expand20IdentAndTypesRenamerNtNtNtCsdGrGZaRBwMb_3syn3gen9visit_mut8VisitMut24visit_expr_reference_mutB6_, symObjAddr: 0x18300, symBinAddr: 0x28E20, symSize: 0x30 }
  - { offset: 0x28205, size: 0x8, addend: 0x0, symName: __RNvYNtNtCsjTXeTLYUiB9_18tracing_attributes6expand20IdentAndTypesRenamerNtNtNtCsdGrGZaRBwMb_3syn3gen9visit_mut8VisitMut24visit_expr_try_block_mutB6_, symObjAddr: 0x18330, symBinAddr: 0x28E50, symSize: 0x30 }
  - { offset: 0x28247, size: 0x8, addend: 0x0, symName: __RNvYNtNtCsjTXeTLYUiB9_18tracing_attributes6expand20IdentAndTypesRenamerNtNtNtCsdGrGZaRBwMb_3syn3gen9visit_mut8VisitMut24visit_fields_unnamed_mutB6_, symObjAddr: 0x18360, symBinAddr: 0x28E80, symSize: 0x30 }
  - { offset: 0x28289, size: 0x8, addend: 0x0, symName: __RNvYNtNtCsjTXeTLYUiB9_18tracing_attributes6expand20IdentAndTypesRenamerNtNtNtCsdGrGZaRBwMb_3syn3gen9visit_mut8VisitMut24visit_impl_item_type_mutB6_, symObjAddr: 0x18390, symBinAddr: 0x28EB0, symSize: 0x30 }
  - { offset: 0x282CB, size: 0x8, addend: 0x0, symName: __RNvYNtNtCsjTXeTLYUiB9_18tracing_attributes6expand20IdentAndTypesRenamerNtNtNtCsdGrGZaRBwMb_3syn3gen9visit_mut8VisitMut24visit_lifetime_param_mutB6_, symObjAddr: 0x183C0, symBinAddr: 0x28EE0, symSize: 0x30 }
  - { offset: 0x2830D, size: 0x8, addend: 0x0, symName: __RNvYNtNtCsjTXeTLYUiB9_18tracing_attributes6expand20IdentAndTypesRenamerNtNtNtCsdGrGZaRBwMb_3syn3gen9visit_mut8VisitMut24visit_path_arguments_mutB6_, symObjAddr: 0x183F0, symBinAddr: 0x28F10, symSize: 0x30 }
  - { offset: 0x2834F, size: 0x8, addend: 0x0, symName: __RNvYNtNtCsjTXeTLYUiB9_18tracing_attributes6expand20IdentAndTypesRenamerNtNtNtCsdGrGZaRBwMb_3syn3gen9visit_mut8VisitMut24visit_predicate_type_mutB6_, symObjAddr: 0x18420, symBinAddr: 0x28F40, symSize: 0x30 }
  - { offset: 0x28391, size: 0x8, addend: 0x0, symName: __RNvYNtNtCsjTXeTLYUiB9_18tracing_attributes6expand20IdentAndTypesRenamerNtNtNtCsdGrGZaRBwMb_3syn3gen9visit_mut8VisitMut24visit_vis_restricted_mutB6_, symObjAddr: 0x18450, symBinAddr: 0x28F70, symSize: 0x30 }
  - { offset: 0x283D3, size: 0x8, addend: 0x0, symName: __RNvYNtNtCsjTXeTLYUiB9_18tracing_attributes6expand20IdentAndTypesRenamerNtNtNtCsdGrGZaRBwMb_3syn3gen9visit_mut8VisitMut25visit_bound_lifetimes_mutB6_, symObjAddr: 0x18480, symBinAddr: 0x28FA0, symSize: 0x30 }
  - { offset: 0x28412, size: 0x8, addend: 0x0, symName: __RNvYNtNtCsjTXeTLYUiB9_18tracing_attributes6expand20IdentAndTypesRenamerNtNtNtCsdGrGZaRBwMb_3syn3gen9visit_mut8VisitMut25visit_foreign_item_fn_mutB6_, symObjAddr: 0x184B0, symBinAddr: 0x28FD0, symSize: 0x30 }
  - { offset: 0x28454, size: 0x8, addend: 0x0, symName: __RNvYNtNtCsjTXeTLYUiB9_18tracing_attributes6expand20IdentAndTypesRenamerNtNtNtCsdGrGZaRBwMb_3syn3gen9visit_mut8VisitMut25visit_impl_item_const_mutB6_, symObjAddr: 0x184E0, symBinAddr: 0x29000, symSize: 0x30 }
  - { offset: 0x28496, size: 0x8, addend: 0x0, symName: __RNvYNtNtCsjTXeTLYUiB9_18tracing_attributes6expand20IdentAndTypesRenamerNtNtNtCsdGrGZaRBwMb_3syn3gen9visit_mut8VisitMut25visit_impl_item_macro_mutB6_, symObjAddr: 0x18510, symBinAddr: 0x29030, symSize: 0x30 }
  - { offset: 0x284D8, size: 0x8, addend: 0x0, symName: __RNvYNtNtCsjTXeTLYUiB9_18tracing_attributes6expand20IdentAndTypesRenamerNtNtNtCsdGrGZaRBwMb_3syn3gen9visit_mut8VisitMut25visit_macro_delimiter_mutB6_, symObjAddr: 0x18540, symBinAddr: 0x29060, symSize: 0x30 }
  - { offset: 0x2851A, size: 0x8, addend: 0x0, symName: __RNvYNtNtCsjTXeTLYUiB9_18tracing_attributes6expand20IdentAndTypesRenamerNtNtNtCsdGrGZaRBwMb_3syn3gen9visit_mut8VisitMut25visit_meta_name_value_mutB6_, symObjAddr: 0x18570, symBinAddr: 0x29090, symSize: 0x30 }
  - { offset: 0x2855C, size: 0x8, addend: 0x0, symName: __RNvYNtNtCsjTXeTLYUiB9_18tracing_attributes6expand20IdentAndTypesRenamerNtNtNtCsdGrGZaRBwMb_3syn3gen9visit_mut8VisitMut25visit_precise_capture_mutB6_, symObjAddr: 0x185A0, symBinAddr: 0x290C0, symSize: 0x30 }
  - { offset: 0x2859E, size: 0x8, addend: 0x0, symName: __RNvYNtNtCsjTXeTLYUiB9_18tracing_attributes6expand20IdentAndTypesRenamerNtNtNtCsdGrGZaRBwMb_3syn3gen9visit_mut8VisitMut25visit_trait_item_type_mutB6_, symObjAddr: 0x185D0, symBinAddr: 0x290F0, symSize: 0x30 }
  - { offset: 0x285E0, size: 0x8, addend: 0x0, symName: __RNvYNtNtCsjTXeTLYUiB9_18tracing_attributes6expand20IdentAndTypesRenamerNtNtNtCsdGrGZaRBwMb_3syn3gen9visit_mut8VisitMut25visit_where_predicate_mutB6_, symObjAddr: 0x18600, symBinAddr: 0x29120, symSize: 0x30 }
  - { offset: 0x28622, size: 0x8, addend: 0x0, symName: __RNvYNtNtCsjTXeTLYUiB9_18tracing_attributes6expand20IdentAndTypesRenamerNtNtNtCsdGrGZaRBwMb_3syn3gen9visit_mut8VisitMut26visit_expr_method_call_mutB6_, symObjAddr: 0x18630, symBinAddr: 0x29150, symSize: 0x30 }
  - { offset: 0x28664, size: 0x8, addend: 0x0, symName: __RNvYNtNtCsjTXeTLYUiB9_18tracing_attributes6expand20IdentAndTypesRenamerNtNtNtCsdGrGZaRBwMb_3syn3gen9visit_mut8VisitMut26visit_field_mutability_mutB6_, symObjAddr: 0x18660, symBinAddr: 0x29180, symSize: 0x30 }
  - { offset: 0x286A6, size: 0x8, addend: 0x0, symName: __RNvYNtNtCsjTXeTLYUiB9_18tracing_attributes6expand20IdentAndTypesRenamerNtNtNtCsdGrGZaRBwMb_3syn3gen9visit_mut8VisitMut26visit_generic_argument_mutB6_, symObjAddr: 0x18690, symBinAddr: 0x291B0, symSize: 0x30 }
  - { offset: 0x286E8, size: 0x8, addend: 0x0, symName: __RNvYNtNtCsjTXeTLYUiB9_18tracing_attributes6expand20IdentAndTypesRenamerNtNtNtCsdGrGZaRBwMb_3syn3gen9visit_mut8VisitMut26visit_item_foreign_mod_mutB6_, symObjAddr: 0x186C0, symBinAddr: 0x291E0, symSize: 0x30 }
  - { offset: 0x2872A, size: 0x8, addend: 0x0, symName: __RNvYNtNtCsjTXeTLYUiB9_18tracing_attributes6expand20IdentAndTypesRenamerNtNtNtCsdGrGZaRBwMb_3syn3gen9visit_mut8VisitMut26visit_item_trait_alias_mutB6_, symObjAddr: 0x186F0, symBinAddr: 0x29210, symSize: 0x30 }
  - { offset: 0x2876C, size: 0x8, addend: 0x0, symName: __RNvYNtNtCsjTXeTLYUiB9_18tracing_attributes6expand20IdentAndTypesRenamerNtNtNtCsdGrGZaRBwMb_3syn3gen9visit_mut8VisitMut26visit_pat_tuple_struct_mutB6_, symObjAddr: 0x18720, symBinAddr: 0x29240, symSize: 0x30 }
  - { offset: 0x287AE, size: 0x8, addend: 0x0, symName: __RNvYNtNtCsjTXeTLYUiB9_18tracing_attributes6expand20IdentAndTypesRenamerNtNtNtCsdGrGZaRBwMb_3syn3gen9visit_mut8VisitMut26visit_trait_item_const_mutB6_, symObjAddr: 0x18750, symBinAddr: 0x29270, symSize: 0x30 }
  - { offset: 0x287F0, size: 0x8, addend: 0x0, symName: __RNvYNtNtCsjTXeTLYUiB9_18tracing_attributes6expand20IdentAndTypesRenamerNtNtNtCsdGrGZaRBwMb_3syn3gen9visit_mut8VisitMut26visit_trait_item_macro_mutB6_, symObjAddr: 0x18780, symBinAddr: 0x292A0, symSize: 0x30 }
  - { offset: 0x28832, size: 0x8, addend: 0x0, symName: __RNvYNtNtCsjTXeTLYUiB9_18tracing_attributes6expand20IdentAndTypesRenamerNtNtNtCsdGrGZaRBwMb_3syn3gen9visit_mut8VisitMut26visit_type_param_bound_mutB6_, symObjAddr: 0x187B0, symBinAddr: 0x292D0, symSize: 0x30 }
  - { offset: 0x28874, size: 0x8, addend: 0x0, symName: __RNvYNtNtCsjTXeTLYUiB9_18tracing_attributes6expand20IdentAndTypesRenamerNtNtNtCsdGrGZaRBwMb_3syn3gen9visit_mut8VisitMut27visit_foreign_item_type_mutB6_, symObjAddr: 0x187E0, symBinAddr: 0x29300, symSize: 0x30 }
  - { offset: 0x288B6, size: 0x8, addend: 0x0, symName: __RNvYNtNtCsjTXeTLYUiB9_18tracing_attributes6expand20IdentAndTypesRenamerNtNtNtCsdGrGZaRBwMb_3syn3gen9visit_mut8VisitMut27visit_item_extern_crate_mutB6_, symObjAddr: 0x18810, symBinAddr: 0x29330, symSize: 0x30 }
  - { offset: 0x288F8, size: 0x8, addend: 0x0, symName: __RNvYNtNtCsjTXeTLYUiB9_18tracing_attributes6expand20IdentAndTypesRenamerNtNtNtCsdGrGZaRBwMb_3syn3gen9visit_mut8VisitMut27visit_static_mutability_mutB6_, symObjAddr: 0x18840, symBinAddr: 0x29360, symSize: 0x30 }
  - { offset: 0x2893A, size: 0x8, addend: 0x0, symName: __RNvYNtNtCsjTXeTLYUiB9_18tracing_attributes6expand20IdentAndTypesRenamerNtNtNtCsdGrGZaRBwMb_3syn3gen9visit_mut8VisitMut28visit_foreign_item_macro_mutB6_, symObjAddr: 0x18870, symBinAddr: 0x29390, symSize: 0x30 }
  - { offset: 0x2897C, size: 0x8, addend: 0x0, symName: __RNvYNtNtCsjTXeTLYUiB9_18tracing_attributes6expand20IdentAndTypesRenamerNtNtNtCsdGrGZaRBwMb_3syn3gen9visit_mut8VisitMut28visit_pointer_mutability_mutB6_, symObjAddr: 0x188A0, symBinAddr: 0x293C0, symSize: 0x30 }
  - { offset: 0x289BE, size: 0x8, addend: 0x0, symName: __RNvYNtNtCsjTXeTLYUiB9_18tracing_attributes6expand20IdentAndTypesRenamerNtNtNtCsdGrGZaRBwMb_3syn3gen9visit_mut8VisitMut28visit_predicate_lifetime_mutB6_, symObjAddr: 0x188D0, symBinAddr: 0x293F0, symSize: 0x30 }
  - { offset: 0x28A00, size: 0x8, addend: 0x0, symName: __RNvYNtNtCsjTXeTLYUiB9_18tracing_attributes6expand20IdentAndTypesRenamerNtNtNtCsdGrGZaRBwMb_3syn3gen9visit_mut8VisitMut29visit_foreign_item_static_mutB6_, symObjAddr: 0x18900, symBinAddr: 0x29420, symSize: 0x30 }
  - { offset: 0x28A42, size: 0x8, addend: 0x0, symName: __RNvYNtNtCsjTXeTLYUiB9_18tracing_attributes6expand20IdentAndTypesRenamerNtNtNtCsdGrGZaRBwMb_3syn3gen9visit_mut8VisitMut30visit_trait_bound_modifier_mutB6_, symObjAddr: 0x18930, symBinAddr: 0x29450, symSize: 0x30 }
  - { offset: 0x28A84, size: 0x8, addend: 0x0, symName: __RNvYNtNtCsjTXeTLYUiB9_18tracing_attributes6expand20IdentAndTypesRenamerNtNtNtCsdGrGZaRBwMb_3syn3gen9visit_mut8VisitMut41visit_parenthesized_generic_arguments_mutB6_, symObjAddr: 0x18960, symBinAddr: 0x29480, symSize: 0x30 }
  - { offset: 0x28AC6, size: 0x8, addend: 0x0, symName: __RNvYNtNtCsjTXeTLYUiB9_18tracing_attributes6expand20IdentAndTypesRenamerNtNtNtCsdGrGZaRBwMb_3syn3gen9visit_mut8VisitMut43visit_angle_bracketed_generic_arguments_mutB6_, symObjAddr: 0x18990, symBinAddr: 0x294B0, symSize: 0x30 }
  - { offset: 0x290CA, size: 0x8, addend: 0x0, symName: __RNvMNtCsjTXeTLYUiB9_18tracing_attributes6expandNtB2_10RecordType13parse_from_ty, symObjAddr: 0x11480, symBinAddr: 0x21FA0, symSize: 0x190 }
  - { offset: 0x29158, size: 0x8, addend: 0x0, symName: __RNvMs_NtCsjTXeTLYUiB9_18tracing_attributes6expandNtB4_9AsyncInfo7from_fn, symObjAddr: 0x11610, symBinAddr: 0x22130, symSize: 0xF90 }
  - { offset: 0x29741, size: 0x8, addend: 0x0, symName: __RNvMs_NtCsjTXeTLYUiB9_18tracing_attributes6expandNtB4_9AsyncInfo9gen_async, symObjAddr: 0x125A0, symBinAddr: 0x230C0, symSize: 0xE50 }
  - { offset: 0x2ABD5, size: 0x8, addend: 0x0, symName: __RINvMsi_NtCslJiobkLta79_5alloc3vecINtB6_3VecNtCsaKzlTDPUHDb_11proc_macro211TokenStreamE14extend_trustedINtNtNtNtCsieiGu2EXtoJ_4core4iter8adapters3map3MapINtNtNtB1M_5slice4iter4IterNtNtCsdGrGZaRBwMb_3syn4stmt4StmtENCNvMs_NtCsjTXeTLYUiB9_18tracing_attributes6expandNtB3w_9AsyncInfo9gen_async0EEB3y_, symObjAddr: 0x0, symBinAddr: 0x294E0, symSize: 0x1A0 }
  - { offset: 0x356BA, size: 0x8, addend: 0x0, symName: __RINvXsd_NtCslJiobkLta79_5alloc3vecINtB6_3VecNtCsaKzlTDPUHDb_11proc_macro211TokenStreamEINtNtNtNtCsieiGu2EXtoJ_4core4iter6traits7collect12FromIteratorBG_E9from_iterINtNtNtB1u_8adapters3map3MapINtNtB2G_6filter6FilterINtNtNtB1w_5slice4iter4IterTNtBI_5IdentTB3S_NtNtCsjTXeTLYUiB9_18tracing_attributes6expand10RecordTypeEEENCNCINvB4a_9gen_blockBG_Es0_0s2_0ENCB58_s3_0EEB4c_, symObjAddr: 0xB20, symBinAddr: 0x2A000, symSize: 0x40 }
  - { offset: 0x356FB, size: 0x8, addend: 0x0, symName: __RINvXsd_NtCslJiobkLta79_5alloc3vecINtB6_3VecNtCsaKzlTDPUHDb_11proc_macro211TokenStreamEINtNtNtNtCsieiGu2EXtoJ_4core4iter6traits7collect12FromIteratorBG_E9from_iterINtNtNtB1u_8adapters3map3MapINtNtB2G_6filter6FilterINtNtNtB1w_5slice4iter4IterTNtBI_5IdentTB3S_NtNtCsjTXeTLYUiB9_18tracing_attributes6expand10RecordTypeEEENCNCINvB4a_9gen_blockNtNtCsdGrGZaRBwMb_3syn4stmt5BlockEs0_0s2_0ENCB58_s3_0EEB4c_, symObjAddr: 0xB60, symBinAddr: 0x2A040, symSize: 0x40 }
  - { offset: 0x3573C, size: 0x8, addend: 0x0, symName: __RINvXsd_NtCslJiobkLta79_5alloc3vecINtB6_3VecNtCsaKzlTDPUHDb_11proc_macro211TokenStreamEINtNtNtNtCsieiGu2EXtoJ_4core4iter6traits7collect12FromIteratorBG_E9from_iterINtNtNtB1u_8adapters3map3MapINtNtNtB1w_5slice4iter4IterNtNtCsdGrGZaRBwMb_3syn4stmt4StmtENCNvMs_NtCsjTXeTLYUiB9_18tracing_attributes6expandNtB48_9AsyncInfo9gen_async0EEB4a_, symObjAddr: 0xBA0, symBinAddr: 0x2A080, symSize: 0x60 }
  - { offset: 0x3577C, size: 0x8, addend: 0x0, symName: __RINvXsd_NtCslJiobkLta79_5alloc3vecINtB6_3VecTNtCsaKzlTDPUHDb_11proc_macro25IdentBH_EEINtNtNtNtCsieiGu2EXtoJ_4core4iter6traits7collect12FromIteratorBG_E9from_iterINtNtNtB1s_8adapters3map3MapINtNtB6_9into_iter8IntoIterTBH_TBH_NtNtCsjTXeTLYUiB9_18tracing_attributes6expand10RecordTypeEEENCNCINvB3C_9gen_blockNtBJ_11TokenStreamEs0_0s4_0EEB3E_, symObjAddr: 0xC00, symBinAddr: 0x2A0E0, symSize: 0x40 }
  - { offset: 0x357BD, size: 0x8, addend: 0x0, symName: __RINvXsd_NtCslJiobkLta79_5alloc3vecINtB6_3VecTNtCsaKzlTDPUHDb_11proc_macro25IdentBH_EEINtNtNtNtCsieiGu2EXtoJ_4core4iter6traits7collect12FromIteratorBG_E9from_iterINtNtNtB1s_8adapters3map3MapINtNtB6_9into_iter8IntoIterTBH_TBH_NtNtCsjTXeTLYUiB9_18tracing_attributes6expand10RecordTypeEEENCNCINvB3C_9gen_blockNtNtCsdGrGZaRBwMb_3syn4stmt5BlockEs0_0s4_0EEB3E_, symObjAddr: 0xC40, symBinAddr: 0x2A120, symSize: 0x40 }
  - { offset: 0x357FE, size: 0x8, addend: 0x0, symName: __RINvXsd_NtCslJiobkLta79_5alloc3vecINtB6_3VecTNtCsaKzlTDPUHDb_11proc_macro25IdentTBH_NtNtCsjTXeTLYUiB9_18tracing_attributes6expand10RecordTypeEEEINtNtNtNtCsieiGu2EXtoJ_4core4iter6traits7collect12FromIteratorBG_E9from_iterINtNtNtB2p_8adapters3map3MapINtNtB3B_7flatten7FlatMapINtNtCsdGrGZaRBwMb_3syn10punctuated8IntoIterNtNtB4s_4item5FnArgEINtNtB8_5boxed3BoxDNtNtB2n_8iterator8Iteratorp4ItemB1g_EL_ENCNCINvB1m_9gen_blockNtBJ_11TokenStreamEs0_00ENCB6o_s_0EEB1o_, symObjAddr: 0xC80, symBinAddr: 0x2A160, symSize: 0x40 }
  - { offset: 0x3583F, size: 0x8, addend: 0x0, symName: __RINvXsd_NtCslJiobkLta79_5alloc3vecINtB6_3VecTNtCsaKzlTDPUHDb_11proc_macro25IdentTBH_NtNtCsjTXeTLYUiB9_18tracing_attributes6expand10RecordTypeEEEINtNtNtNtCsieiGu2EXtoJ_4core4iter6traits7collect12FromIteratorBG_E9from_iterINtNtNtB2p_8adapters3map3MapINtNtB3B_7flatten7FlatMapINtNtCsdGrGZaRBwMb_3syn10punctuated8IntoIterNtNtB4s_4item5FnArgEINtNtB8_5boxed3BoxDNtNtB2n_8iterator8Iteratorp4ItemB1g_EL_ENCNCINvB1m_9gen_blockNtNtB4s_4stmt5BlockEs0_00ENCB6o_s_0EEB1o_, symObjAddr: 0xCC0, symBinAddr: 0x2A1A0, symSize: 0x40 }
  - { offset: 0x3588B, size: 0x8, addend: 0x0, symName: __RNCINvMsi_NtCslJiobkLta79_5alloc3vecINtB8_3VecNtCsaKzlTDPUHDb_11proc_macro211TokenStreamE14extend_trustedINtNtNtNtCsieiGu2EXtoJ_4core4iter8adapters3map3MapINtNtNtB1O_5slice4iter4IterNtNtCsdGrGZaRBwMb_3syn4stmt4StmtENCNvMs_NtCsjTXeTLYUiB9_18tracing_attributes6expandNtB3y_9AsyncInfo9gen_async0EE0B3A_, symObjAddr: 0xD00, symBinAddr: 0x2A1E0, symSize: 0x50 }
  - { offset: 0x3605A, size: 0x8, addend: 0x0, symName: __RNvNvMs_NtCslJiobkLta79_5alloc3vecINtB6_3VecppE13from_parts_in18precondition_checkCsjTXeTLYUiB9_18tracing_attributes, symObjAddr: 0x24D0, symBinAddr: 0x2B9B0, symSize: 0xA0 }
  - { offset: 0x360C8, size: 0x8, addend: 0x0, symName: __RNvNvMs_NtCslJiobkLta79_5alloc3vecINtB6_3VecppE7set_len18precondition_checkCsjTXeTLYUiB9_18tracing_attributes, symObjAddr: 0x2570, symBinAddr: 0x2BA50, symSize: 0xA0 }
  - { offset: 0x3613C, size: 0x8, addend: 0x0, symName: __RNvXNtNtCslJiobkLta79_5alloc3vec11spec_extendINtB4_3VecNtCsaKzlTDPUHDb_11proc_macro211TokenStreamEINtB2_10SpecExtendBR_INtNtNtNtCsieiGu2EXtoJ_4core4iter8adapters3map3MapINtNtB1Y_6filter6FilterINtNtNtB22_5slice4iter4IterTNtBT_5IdentTB3w_NtNtCsjTXeTLYUiB9_18tracing_attributes6expand10RecordTypeEEENCNCINvB3O_9gen_blockBR_Es0_0s2_0ENCB4M_s3_0EE11spec_extendB3Q_, symObjAddr: 0x2610, symBinAddr: 0x2BAF0, symSize: 0x20 }
  - { offset: 0x3618E, size: 0x8, addend: 0x0, symName: __RNvXNtNtCslJiobkLta79_5alloc3vec11spec_extendINtB4_3VecNtCsaKzlTDPUHDb_11proc_macro211TokenStreamEINtB2_10SpecExtendBR_INtNtNtNtCsieiGu2EXtoJ_4core4iter8adapters3map3MapINtNtB1Y_6filter6FilterINtNtNtB22_5slice4iter4IterTNtBT_5IdentTB3w_NtNtCsjTXeTLYUiB9_18tracing_attributes6expand10RecordTypeEEENCNCINvB3O_9gen_blockNtNtCsdGrGZaRBwMb_3syn4stmt5BlockEs0_0s2_0ENCB4M_s3_0EE11spec_extendB3Q_, symObjAddr: 0x2630, symBinAddr: 0x2BB10, symSize: 0x20 }
  - { offset: 0x361E0, size: 0x8, addend: 0x0, symName: __RNvXNtNtCslJiobkLta79_5alloc3vec11spec_extendINtB4_3VecTNtCsaKzlTDPUHDb_11proc_macro25IdentTBS_NtNtCsjTXeTLYUiB9_18tracing_attributes6expand10RecordTypeEEEINtB2_10SpecExtendBR_INtNtNtNtCsieiGu2EXtoJ_4core4iter8adapters3map3MapINtNtB2T_7flatten7FlatMapINtNtCsdGrGZaRBwMb_3syn10punctuated8IntoIterNtNtB46_4item5FnArgEINtNtB6_5boxed3BoxDNtNtNtB2V_6traits8iterator8Iteratorp4ItemB1r_EL_ENCNCINvB1x_9gen_blockNtBU_11TokenStreamEs0_00ENCB6b_s_0EE11spec_extendB1z_, symObjAddr: 0x2650, symBinAddr: 0x2BB30, symSize: 0x20 }
  - { offset: 0x36232, size: 0x8, addend: 0x0, symName: __RNvXNtNtCslJiobkLta79_5alloc3vec11spec_extendINtB4_3VecTNtCsaKzlTDPUHDb_11proc_macro25IdentTBS_NtNtCsjTXeTLYUiB9_18tracing_attributes6expand10RecordTypeEEEINtB2_10SpecExtendBR_INtNtNtNtCsieiGu2EXtoJ_4core4iter8adapters3map3MapINtNtB2T_7flatten7FlatMapINtNtCsdGrGZaRBwMb_3syn10punctuated8IntoIterNtNtB46_4item5FnArgEINtNtB6_5boxed3BoxDNtNtNtB2V_6traits8iterator8Iteratorp4ItemB1r_EL_ENCNCINvB1x_9gen_blockNtNtB46_4stmt5BlockEs0_00ENCB6b_s_0EE11spec_extendB1z_, symObjAddr: 0x2670, symBinAddr: 0x2BB50, symSize: 0x20 }
  - { offset: 0x3628A, size: 0x8, addend: 0x0, symName: __RNvXs_NtNtCslJiobkLta79_5alloc3vec11spec_extendINtB6_3VecNtCsaKzlTDPUHDb_11proc_macro211TokenStreamEINtB4_10SpecExtendBT_INtNtNtNtCsieiGu2EXtoJ_4core4iter8adapters3map3MapINtNtNtB24_5slice4iter4IterNtNtCsdGrGZaRBwMb_3syn4stmt4StmtENCNvMs_NtCsjTXeTLYUiB9_18tracing_attributes6expandNtB3O_9AsyncInfo9gen_async0EE11spec_extendB3Q_, symObjAddr: 0x39D0, symBinAddr: 0x2CEB0, symSize: 0x20 }
  - { offset: 0x362E7, size: 0x8, addend: 0x0, symName: __RNvXNtNtCslJiobkLta79_5alloc3vec14spec_from_iterINtB4_3VecNtCsaKzlTDPUHDb_11proc_macro211TokenStreamEINtB2_12SpecFromIterBU_INtNtNtNtCsieiGu2EXtoJ_4core4iter8adapters3map3MapINtNtB23_6filter6FilterINtNtNtB27_5slice4iter4IterTNtBW_5IdentTB3B_NtNtCsjTXeTLYUiB9_18tracing_attributes6expand10RecordTypeEEENCNCINvB3T_9gen_blockBU_Es0_0s2_0ENCB4R_s3_0EE9from_iterB3V_, symObjAddr: 0x2690, symBinAddr: 0x2BB70, symSize: 0x20 }
  - { offset: 0x36326, size: 0x8, addend: 0x0, symName: __RNvXNtNtCslJiobkLta79_5alloc3vec14spec_from_iterINtB4_3VecNtCsaKzlTDPUHDb_11proc_macro211TokenStreamEINtB2_12SpecFromIterBU_INtNtNtNtCsieiGu2EXtoJ_4core4iter8adapters3map3MapINtNtB23_6filter6FilterINtNtNtB27_5slice4iter4IterTNtBW_5IdentTB3B_NtNtCsjTXeTLYUiB9_18tracing_attributes6expand10RecordTypeEEENCNCINvB3T_9gen_blockNtNtCsdGrGZaRBwMb_3syn4stmt5BlockEs0_0s2_0ENCB4R_s3_0EE9from_iterB3V_, symObjAddr: 0x26B0, symBinAddr: 0x2BB90, symSize: 0x20 }
  - { offset: 0x36365, size: 0x8, addend: 0x0, symName: __RNvXNtNtCslJiobkLta79_5alloc3vec14spec_from_iterINtB4_3VecNtCsaKzlTDPUHDb_11proc_macro211TokenStreamEINtB2_12SpecFromIterBU_INtNtNtNtCsieiGu2EXtoJ_4core4iter8adapters3map3MapINtNtNtB27_5slice4iter4IterNtNtCsdGrGZaRBwMb_3syn4stmt4StmtENCNvMs_NtCsjTXeTLYUiB9_18tracing_attributes6expandNtB3R_9AsyncInfo9gen_async0EE9from_iterB3T_, symObjAddr: 0x26D0, symBinAddr: 0x2BBB0, symSize: 0x30 }
  - { offset: 0x363A3, size: 0x8, addend: 0x0, symName: __RNvXNtNtCslJiobkLta79_5alloc3vec14spec_from_iterINtB4_3VecTNtCsaKzlTDPUHDb_11proc_macro25IdentTBV_NtNtCsjTXeTLYUiB9_18tracing_attributes6expand10RecordTypeEEEINtB2_12SpecFromIterBU_INtNtNtNtCsieiGu2EXtoJ_4core4iter8adapters3map3MapINtNtB2Y_7flatten7FlatMapINtNtCsdGrGZaRBwMb_3syn10punctuated8IntoIterNtNtB4b_4item5FnArgEINtNtB6_5boxed3BoxDNtNtNtB30_6traits8iterator8Iteratorp4ItemB1u_EL_ENCNCINvB1A_9gen_blockNtBX_11TokenStreamEs0_00ENCB6g_s_0EE9from_iterB1C_, symObjAddr: 0x2700, symBinAddr: 0x2BBE0, symSize: 0x20 }
  - { offset: 0x363E2, size: 0x8, addend: 0x0, symName: __RNvXNtNtCslJiobkLta79_5alloc3vec14spec_from_iterINtB4_3VecTNtCsaKzlTDPUHDb_11proc_macro25IdentTBV_NtNtCsjTXeTLYUiB9_18tracing_attributes6expand10RecordTypeEEEINtB2_12SpecFromIterBU_INtNtNtNtCsieiGu2EXtoJ_4core4iter8adapters3map3MapINtNtB2Y_7flatten7FlatMapINtNtCsdGrGZaRBwMb_3syn10punctuated8IntoIterNtNtB4b_4item5FnArgEINtNtB6_5boxed3BoxDNtNtNtB30_6traits8iterator8Iteratorp4ItemB1u_EL_ENCNCINvB1A_9gen_blockNtNtB4b_4stmt5BlockEs0_00ENCB6g_s_0EE9from_iterB1C_, symObjAddr: 0x2720, symBinAddr: 0x2BC00, symSize: 0x20 }
  - { offset: 0x3642D, size: 0x8, addend: 0x0, symName: __RNvXNtNtCslJiobkLta79_5alloc3vec21spec_from_iter_nestedINtB4_3VecNtCsaKzlTDPUHDb_11proc_macro211TokenStreamEINtB2_18SpecFromIterNestedB11_INtNtNtNtCsieiGu2EXtoJ_4core4iter8adapters3map3MapINtNtB2h_6filter6FilterINtNtNtB2l_5slice4iter4IterTNtB13_5IdentTB3P_NtNtCsjTXeTLYUiB9_18tracing_attributes6expand10RecordTypeEEENCNCINvB48_9gen_blockB11_Es0_0s2_0ENCB56_s3_0EE9from_iterB4a_, symObjAddr: 0x2740, symBinAddr: 0x2BC20, symSize: 0x370 }
  - { offset: 0x366E2, size: 0x8, addend: 0x0, symName: __RNvXNtNtCslJiobkLta79_5alloc3vec21spec_from_iter_nestedINtB4_3VecNtCsaKzlTDPUHDb_11proc_macro211TokenStreamEINtB2_18SpecFromIterNestedB11_INtNtNtNtCsieiGu2EXtoJ_4core4iter8adapters3map3MapINtNtB2h_6filter6FilterINtNtNtB2l_5slice4iter4IterTNtB13_5IdentTB3P_NtNtCsjTXeTLYUiB9_18tracing_attributes6expand10RecordTypeEEENCNCINvB48_9gen_blockNtNtCsdGrGZaRBwMb_3syn4stmt5BlockEs0_0s2_0ENCB56_s3_0EE9from_iterB4a_, symObjAddr: 0x2AB0, symBinAddr: 0x2BF90, symSize: 0x370 }
  - { offset: 0x36997, size: 0x8, addend: 0x0, symName: __RNvXNtNtCslJiobkLta79_5alloc3vec21spec_from_iter_nestedINtB4_3VecTNtCsaKzlTDPUHDb_11proc_macro25IdentTB12_NtNtCsjTXeTLYUiB9_18tracing_attributes6expand10RecordTypeEEEINtB2_18SpecFromIterNestedB11_INtNtNtNtCsieiGu2EXtoJ_4core4iter8adapters3map3MapINtNtB3d_7flatten7FlatMapINtNtCsdGrGZaRBwMb_3syn10punctuated8IntoIterNtNtB4q_4item5FnArgEINtNtB6_5boxed3BoxDNtNtNtB3f_6traits8iterator8Iteratorp4ItemB1B_EL_ENCNCINvB1I_9gen_blockNtB14_11TokenStreamEs0_00ENCB6v_s_0EE9from_iterB1K_, symObjAddr: 0x2E20, symBinAddr: 0x2C300, symSize: 0x370 }
  - { offset: 0x36C4C, size: 0x8, addend: 0x0, symName: __RNvXNtNtCslJiobkLta79_5alloc3vec21spec_from_iter_nestedINtB4_3VecTNtCsaKzlTDPUHDb_11proc_macro25IdentTB12_NtNtCsjTXeTLYUiB9_18tracing_attributes6expand10RecordTypeEEEINtB2_18SpecFromIterNestedB11_INtNtNtNtCsieiGu2EXtoJ_4core4iter8adapters3map3MapINtNtB3d_7flatten7FlatMapINtNtCsdGrGZaRBwMb_3syn10punctuated8IntoIterNtNtB4q_4item5FnArgEINtNtB6_5boxed3BoxDNtNtNtB3f_6traits8iterator8Iteratorp4ItemB1B_EL_ENCNCINvB1I_9gen_blockNtNtB4q_4stmt5BlockEs0_00ENCB6v_s_0EE9from_iterB1K_, symObjAddr: 0x3190, symBinAddr: 0x2C670, symSize: 0x370 }
  - { offset: 0x36F07, size: 0x8, addend: 0x0, symName: __RNvXs_NtNtCslJiobkLta79_5alloc3vec21spec_from_iter_nestedINtB6_3VecNtCsaKzlTDPUHDb_11proc_macro211TokenStreamEINtB4_18SpecFromIterNestedB13_INtNtNtNtCsieiGu2EXtoJ_4core4iter8adapters3map3MapINtNtNtB2n_5slice4iter4IterNtNtCsdGrGZaRBwMb_3syn4stmt4StmtENCNvMs_NtCsjTXeTLYUiB9_18tracing_attributes6expandNtB47_9AsyncInfo9gen_async0EE9from_iterB49_, symObjAddr: 0x3A50, symBinAddr: 0x2CF30, symSize: 0x1B0 }
  - { offset: 0x36FE6, size: 0x8, addend: 0x0, symName: __RNvXs6_NtCslJiobkLta79_5alloc3vecINtB5_3VecNtCsaKzlTDPUHDb_11proc_macro211TokenStreamENtNtNtCsieiGu2EXtoJ_4core3ops5deref5Deref5derefCsjTXeTLYUiB9_18tracing_attributes, symObjAddr: 0x3560, symBinAddr: 0x2CA40, symSize: 0x20 }
  - { offset: 0x37026, size: 0x8, addend: 0x0, symName: __RNvXs6_NtCslJiobkLta79_5alloc3vecINtB5_3VecNtNtCsdGrGZaRBwMb_3syn4stmt4StmtENtNtNtCsieiGu2EXtoJ_4core3ops5deref5Deref5derefCsjTXeTLYUiB9_18tracing_attributes, symObjAddr: 0x3580, symBinAddr: 0x2CA60, symSize: 0x20 }
  - { offset: 0x37066, size: 0x8, addend: 0x0, symName: __RNvXs6_NtCslJiobkLta79_5alloc3vecINtB5_3VecNtNtCsdGrGZaRBwMb_3syn5error5ErrorENtNtNtCsieiGu2EXtoJ_4core3ops5deref5Deref5derefCsjTXeTLYUiB9_18tracing_attributes, symObjAddr: 0x35A0, symBinAddr: 0x2CA80, symSize: 0x20 }
  - { offset: 0x370A6, size: 0x8, addend: 0x0, symName: __RNvXs6_NtCslJiobkLta79_5alloc3vecINtB5_3VecTNtCsaKzlTDPUHDb_11proc_macro25IdentNtNtCsdGrGZaRBwMb_3syn5token3DotEENtNtNtCsieiGu2EXtoJ_4core3ops5deref5Deref5derefCsjTXeTLYUiB9_18tracing_attributes, symObjAddr: 0x35C0, symBinAddr: 0x2CAA0, symSize: 0x20 }
  - { offset: 0x370E6, size: 0x8, addend: 0x0, symName: __RNvXs6_NtCslJiobkLta79_5alloc3vecINtB5_3VecTNtCsaKzlTDPUHDb_11proc_macro25IdentTBG_NtNtCsjTXeTLYUiB9_18tracing_attributes6expand10RecordTypeEEENtNtNtCsieiGu2EXtoJ_4core3ops5deref5Deref5derefB1n_, symObjAddr: 0x35E0, symBinAddr: 0x2CAC0, symSize: 0x20 }
  - { offset: 0x37126, size: 0x8, addend: 0x0, symName: __RNvXs6_NtCslJiobkLta79_5alloc3vecINtB5_3VecTNtNtCsjTXeTLYUiB9_18tracing_attributes4attr5FieldNtNtCsdGrGZaRBwMb_3syn5token5CommaEENtNtNtCsieiGu2EXtoJ_4core3ops5deref5Deref5derefBK_, symObjAddr: 0x3600, symBinAddr: 0x2CAE0, symSize: 0x20 }
  - { offset: 0x3728C, size: 0x8, addend: 0x0, symName: __RNvXs7_NtCslJiobkLta79_5alloc3vecINtB5_3VecTNtNtCsdGrGZaRBwMb_3syn2ty4TypeNtNtBK_5token5CommaEENtNtNtCsieiGu2EXtoJ_4core3ops5deref8DerefMut9deref_mutCsjTXeTLYUiB9_18tracing_attributes, symObjAddr: 0x3620, symBinAddr: 0x2CB00, symSize: 0x20 }
  - { offset: 0x372CC, size: 0x8, addend: 0x0, symName: __RNvXs7_NtCslJiobkLta79_5alloc3vecINtB5_3VecTNtNtCsdGrGZaRBwMb_3syn2ty9BareFnArgNtNtBK_5token5CommaEENtNtNtCsieiGu2EXtoJ_4core3ops5deref8DerefMut9deref_mutCsjTXeTLYUiB9_18tracing_attributes, symObjAddr: 0x3640, symBinAddr: 0x2CB20, symSize: 0x20 }
  - { offset: 0x3730C, size: 0x8, addend: 0x0, symName: __RNvXs7_NtCslJiobkLta79_5alloc3vecINtB5_3VecTNtNtCsdGrGZaRBwMb_3syn3pat3PatNtNtBK_5token2OrEENtNtNtCsieiGu2EXtoJ_4core3ops5deref8DerefMut9deref_mutCsjTXeTLYUiB9_18tracing_attributes, symObjAddr: 0x3660, symBinAddr: 0x2CB40, symSize: 0x20 }
  - { offset: 0x3734C, size: 0x8, addend: 0x0, symName: __RNvXs7_NtCslJiobkLta79_5alloc3vecINtB5_3VecTNtNtCsdGrGZaRBwMb_3syn3pat3PatNtNtBK_5token5CommaEENtNtNtCsieiGu2EXtoJ_4core3ops5deref8DerefMut9deref_mutCsjTXeTLYUiB9_18tracing_attributes, symObjAddr: 0x3680, symBinAddr: 0x2CB60, symSize: 0x20 }
  - { offset: 0x3738C, size: 0x8, addend: 0x0, symName: __RNvXs7_NtCslJiobkLta79_5alloc3vecINtB5_3VecTNtNtCsdGrGZaRBwMb_3syn3pat8FieldPatNtNtBK_5token5CommaEENtNtNtCsieiGu2EXtoJ_4core3ops5deref8DerefMut9deref_mutCsjTXeTLYUiB9_18tracing_attributes, symObjAddr: 0x36A0, symBinAddr: 0x2CB80, symSize: 0x20 }
  - { offset: 0x373CC, size: 0x8, addend: 0x0, symName: __RNvXs7_NtCslJiobkLta79_5alloc3vecINtB5_3VecTNtNtCsdGrGZaRBwMb_3syn4data7VariantNtNtBK_5token5CommaEENtNtNtCsieiGu2EXtoJ_4core3ops5deref8DerefMut9deref_mutCsjTXeTLYUiB9_18tracing_attributes, symObjAddr: 0x36C0, symBinAddr: 0x2CBA0, symSize: 0x20 }
  - { offset: 0x3740C, size: 0x8, addend: 0x0, symName: __RNvXs7_NtCslJiobkLta79_5alloc3vecINtB5_3VecTNtNtCsdGrGZaRBwMb_3syn4expr10FieldValueNtNtBK_5token5CommaEENtNtNtCsieiGu2EXtoJ_4core3ops5deref8DerefMut9deref_mutCsjTXeTLYUiB9_18tracing_attributes, symObjAddr: 0x36E0, symBinAddr: 0x2CBC0, symSize: 0x20 }
  - { offset: 0x3744C, size: 0x8, addend: 0x0, symName: __RNvXs7_NtCslJiobkLta79_5alloc3vecINtB5_3VecTNtNtCsdGrGZaRBwMb_3syn4expr4ExprNtNtBK_5token5CommaEENtNtNtCsieiGu2EXtoJ_4core3ops5deref8DerefMut9deref_mutCsjTXeTLYUiB9_18tracing_attributes, symObjAddr: 0x3700, symBinAddr: 0x2CBE0, symSize: 0x20 }
  - { offset: 0x3748C, size: 0x8, addend: 0x0, symName: __RNvXs7_NtCslJiobkLta79_5alloc3vecINtB5_3VecTNtNtCsdGrGZaRBwMb_3syn4item5FnArgNtNtBK_5token5CommaEENtNtNtCsieiGu2EXtoJ_4core3ops5deref8DerefMut9deref_mutCsjTXeTLYUiB9_18tracing_attributes, symObjAddr: 0x3720, symBinAddr: 0x2CC00, symSize: 0x20 }
  - { offset: 0x374CC, size: 0x8, addend: 0x0, symName: __RNvXs7_NtCslJiobkLta79_5alloc3vecINtB5_3VecTNtNtCsdGrGZaRBwMb_3syn4item7UseTreeNtNtBK_5token5CommaEENtNtNtCsieiGu2EXtoJ_4core3ops5deref8DerefMut9deref_mutCsjTXeTLYUiB9_18tracing_attributes, symObjAddr: 0x3740, symBinAddr: 0x2CC20, symSize: 0x20 }
  - { offset: 0x3750C, size: 0x8, addend: 0x0, symName: __RNvXs7_NtCslJiobkLta79_5alloc3vecINtB5_3VecTNtNtCsdGrGZaRBwMb_3syn4path15GenericArgumentNtNtBK_5token5CommaEENtNtNtCsieiGu2EXtoJ_4core3ops5deref8DerefMut9deref_mutCsjTXeTLYUiB9_18tracing_attributes, symObjAddr: 0x3760, symBinAddr: 0x2CC40, symSize: 0x20 }
  - { offset: 0x3754C, size: 0x8, addend: 0x0, symName: __RNvXs7_NtCslJiobkLta79_5alloc3vecINtB5_3VecTNtNtCsdGrGZaRBwMb_3syn8generics13CapturedParamNtNtBK_5token5CommaEENtNtNtCsieiGu2EXtoJ_4core3ops5deref8DerefMut9deref_mutCsjTXeTLYUiB9_18tracing_attributes, symObjAddr: 0x3780, symBinAddr: 0x2CC60, symSize: 0x20 }
  - { offset: 0x3758C, size: 0x8, addend: 0x0, symName: __RNvXs7_NtCslJiobkLta79_5alloc3vecINtB5_3VecTNtNtCsdGrGZaRBwMb_3syn8generics14TypeParamBoundNtNtBK_5token4PlusEENtNtNtCsieiGu2EXtoJ_4core3ops5deref8DerefMut9deref_mutCsjTXeTLYUiB9_18tracing_attributes, symObjAddr: 0x37A0, symBinAddr: 0x2CC80, symSize: 0x20 }
  - { offset: 0x375CC, size: 0x8, addend: 0x0, symName: __RNvXs7_NtCslJiobkLta79_5alloc3vecINtB5_3VecTNtNtCsdGrGZaRBwMb_3syn8generics14WherePredicateNtNtBK_5token5CommaEENtNtNtCsieiGu2EXtoJ_4core3ops5deref8DerefMut9deref_mutCsjTXeTLYUiB9_18tracing_attributes, symObjAddr: 0x37C0, symBinAddr: 0x2CCA0, symSize: 0x20 }
  - { offset: 0x3760C, size: 0x8, addend: 0x0, symName: __RNvXs7_NtCslJiobkLta79_5alloc3vecINtB5_3VecTNtNtCsdGrGZaRBwMb_3syn8lifetime8LifetimeNtNtBK_5token4PlusEENtNtNtCsieiGu2EXtoJ_4core3ops5deref8DerefMut9deref_mutCsjTXeTLYUiB9_18tracing_attributes, symObjAddr: 0x37E0, symBinAddr: 0x2CCC0, symSize: 0x20 }
  - { offset: 0x3764C, size: 0x8, addend: 0x0, symName: __RNvXs7_NtCslJiobkLta79_5alloc3vecINtB5_3VecTNtNtCsjTXeTLYUiB9_18tracing_attributes4attr5FieldNtNtCsdGrGZaRBwMb_3syn5token5CommaEENtNtNtCsieiGu2EXtoJ_4core3ops5deref8DerefMut9deref_mutBK_, symObjAddr: 0x3800, symBinAddr: 0x2CCE0, symSize: 0x20 }
  - { offset: 0x37812, size: 0x8, addend: 0x0, symName: __RNvXs9_NtCslJiobkLta79_5alloc3vecINtB5_3VecNtNtCsdGrGZaRBwMb_3syn5error5ErrorENtNtCsieiGu2EXtoJ_4core5clone5Clone5cloneCsjTXeTLYUiB9_18tracing_attributes, symObjAddr: 0x3820, symBinAddr: 0x2CD00, symSize: 0x90 }
  - { offset: 0x379E3, size: 0x8, addend: 0x0, symName: __RNvXs9_NtCslJiobkLta79_5alloc3vecINtB5_3VecTNtCsaKzlTDPUHDb_11proc_macro25IdentNtNtCsdGrGZaRBwMb_3syn5token3DotEENtNtCsieiGu2EXtoJ_4core5clone5Clone5cloneCsjTXeTLYUiB9_18tracing_attributes, symObjAddr: 0x38B0, symBinAddr: 0x2CD90, symSize: 0x90 }
  - { offset: 0x37BB4, size: 0x8, addend: 0x0, symName: __RNvXs9_NtCslJiobkLta79_5alloc3vecINtB5_3VecTNtNtCsjTXeTLYUiB9_18tracing_attributes4attr5FieldNtNtCsdGrGZaRBwMb_3syn5token5CommaEENtNtCsieiGu2EXtoJ_4core5clone5Clone5cloneBK_, symObjAddr: 0x3940, symBinAddr: 0x2CE20, symSize: 0x90 }
  - { offset: 0x37D90, size: 0x8, addend: 0x0, symName: __RNvXs_NtNtCslJiobkLta79_5alloc3vec16in_place_collectINtB6_3VecTNtCsaKzlTDPUHDb_11proc_macro25IdentBZ_EEINtNtB6_14spec_from_iter12SpecFromIterBY_INtNtNtNtCsieiGu2EXtoJ_4core4iter8adapters3map3MapINtNtB6_9into_iter8IntoIterTBZ_TBZ_NtNtCsjTXeTLYUiB9_18tracing_attributes6expand10RecordTypeEEENCNCINvB3H_9gen_blockNtB11_11TokenStreamEs0_0s4_0EE9from_iterB3J_, symObjAddr: 0x39F0, symBinAddr: 0x2CED0, symSize: 0x30 }
  - { offset: 0x37DEC, size: 0x8, addend: 0x0, symName: __RNvXs_NtNtCslJiobkLta79_5alloc3vec16in_place_collectINtB6_3VecTNtCsaKzlTDPUHDb_11proc_macro25IdentBZ_EEINtNtB6_14spec_from_iter12SpecFromIterBY_INtNtNtNtCsieiGu2EXtoJ_4core4iter8adapters3map3MapINtNtB6_9into_iter8IntoIterTBZ_TBZ_NtNtCsjTXeTLYUiB9_18tracing_attributes6expand10RecordTypeEEENCNCINvB3H_9gen_blockNtNtCsdGrGZaRBwMb_3syn4stmt5BlockEs0_0s4_0EE9from_iterB3J_, symObjAddr: 0x3A20, symBinAddr: 0x2CF00, symSize: 0x30 }
  - { offset: 0x37E4F, size: 0x8, addend: 0x0, symName: __RNvXsb_NtCslJiobkLta79_5alloc3vecINtB5_3VecTNtNtCsdGrGZaRBwMb_3syn4expr4ExprNtNtBK_5token5CommaEEINtNtNtCsieiGu2EXtoJ_4core3ops5index5IndexjE5indexCsjTXeTLYUiB9_18tracing_attributes, symObjAddr: 0x3C00, symBinAddr: 0x2D0E0, symSize: 0x80 }
  - { offset: 0x37FD7, size: 0x8, addend: 0x0, symName: __RNvXsc_NtCslJiobkLta79_5alloc3vecINtB5_3VecNtCsaKzlTDPUHDb_11proc_macro211TokenStreamEINtNtNtCsieiGu2EXtoJ_4core3ops5index8IndexMutjE9index_mutCsjTXeTLYUiB9_18tracing_attributes, symObjAddr: 0x3C80, symBinAddr: 0x2D160, symSize: 0x80 }
  - { offset: 0x38131, size: 0x8, addend: 0x0, symName: __RNvXse_NtCslJiobkLta79_5alloc3vecINtB5_3VecNtCsaKzlTDPUHDb_11proc_macro25IdentENtNtNtNtCsieiGu2EXtoJ_4core4iter6traits7collect12IntoIterator9into_iterCsjTXeTLYUiB9_18tracing_attributes, symObjAddr: 0x3D00, symBinAddr: 0x2D1E0, symSize: 0x140 }
  - { offset: 0x383C1, size: 0x8, addend: 0x0, symName: __RNvXse_NtCslJiobkLta79_5alloc3vecINtB5_3VecNtNtCsdGrGZaRBwMb_3syn3pat3PatENtNtNtNtCsieiGu2EXtoJ_4core4iter6traits7collect12IntoIterator9into_iterCsjTXeTLYUiB9_18tracing_attributes, symObjAddr: 0x3E40, symBinAddr: 0x2D320, symSize: 0x140 }
  - { offset: 0x38651, size: 0x8, addend: 0x0, symName: __RNvXse_NtCslJiobkLta79_5alloc3vecINtB5_3VecNtNtCsdGrGZaRBwMb_3syn3pat8FieldPatENtNtNtNtCsieiGu2EXtoJ_4core4iter6traits7collect12IntoIterator9into_iterCsjTXeTLYUiB9_18tracing_attributes, symObjAddr: 0x3F80, symBinAddr: 0x2D460, symSize: 0x140 }
  - { offset: 0x388E1, size: 0x8, addend: 0x0, symName: __RNvXse_NtCslJiobkLta79_5alloc3vecINtB5_3VecNtNtCsdGrGZaRBwMb_3syn4item5FnArgENtNtNtNtCsieiGu2EXtoJ_4core4iter6traits7collect12IntoIterator9into_iterCsjTXeTLYUiB9_18tracing_attributes, symObjAddr: 0x40C0, symBinAddr: 0x2D5A0, symSize: 0x140 }
  - { offset: 0x38B71, size: 0x8, addend: 0x0, symName: __RNvXse_NtCslJiobkLta79_5alloc3vecINtB5_3VecNtNtCsdGrGZaRBwMb_3syn4stmt4StmtENtNtNtNtCsieiGu2EXtoJ_4core4iter6traits7collect12IntoIterator9into_iterCsjTXeTLYUiB9_18tracing_attributes, symObjAddr: 0x4200, symBinAddr: 0x2D6E0, symSize: 0x140 }
  - { offset: 0x38E01, size: 0x8, addend: 0x0, symName: __RNvXse_NtCslJiobkLta79_5alloc3vecINtB5_3VecTNtCsaKzlTDPUHDb_11proc_macro25IdentNtNtCsdGrGZaRBwMb_3syn5token5CommaEENtNtNtNtCsieiGu2EXtoJ_4core4iter6traits7collect12IntoIterator9into_iterCsjTXeTLYUiB9_18tracing_attributes, symObjAddr: 0x4340, symBinAddr: 0x2D820, symSize: 0x140 }
  - { offset: 0x39091, size: 0x8, addend: 0x0, symName: __RNvXse_NtCslJiobkLta79_5alloc3vecINtB5_3VecTNtCsaKzlTDPUHDb_11proc_macro25IdentTBG_NtNtCsjTXeTLYUiB9_18tracing_attributes6expand10RecordTypeEEENtNtNtNtCsieiGu2EXtoJ_4core4iter6traits7collect12IntoIterator9into_iterB1n_, symObjAddr: 0x4480, symBinAddr: 0x2D960, symSize: 0x140 }
  - { offset: 0x39321, size: 0x8, addend: 0x0, symName: __RNvXse_NtCslJiobkLta79_5alloc3vecINtB5_3VecTNtNtCsdGrGZaRBwMb_3syn3pat3PatNtNtBK_5token5CommaEENtNtNtNtCsieiGu2EXtoJ_4core4iter6traits7collect12IntoIterator9into_iterCsjTXeTLYUiB9_18tracing_attributes, symObjAddr: 0x45C0, symBinAddr: 0x2DAA0, symSize: 0x140 }
  - { offset: 0x395B1, size: 0x8, addend: 0x0, symName: __RNvXse_NtCslJiobkLta79_5alloc3vecINtB5_3VecTNtNtCsdGrGZaRBwMb_3syn3pat8FieldPatNtNtBK_5token5CommaEENtNtNtNtCsieiGu2EXtoJ_4core4iter6traits7collect12IntoIterator9into_iterCsjTXeTLYUiB9_18tracing_attributes, symObjAddr: 0x4700, symBinAddr: 0x2DBE0, symSize: 0x140 }
  - { offset: 0x39841, size: 0x8, addend: 0x0, symName: __RNvXse_NtCslJiobkLta79_5alloc3vecINtB5_3VecTNtNtCsdGrGZaRBwMb_3syn4item5FnArgNtNtBK_5token5CommaEENtNtNtNtCsieiGu2EXtoJ_4core4iter6traits7collect12IntoIterator9into_iterCsjTXeTLYUiB9_18tracing_attributes, symObjAddr: 0x4840, symBinAddr: 0x2DD20, symSize: 0x140 }
  - { offset: 0x39B82, size: 0x8, addend: 0x0, symName: __RNvXsf_NtCslJiobkLta79_5alloc3vecRINtB5_3VecTNtCsaKzlTDPUHDb_11proc_macro25IdentBH_EENtNtNtNtCsieiGu2EXtoJ_4core4iter6traits7collect12IntoIterator9into_iterCsjTXeTLYUiB9_18tracing_attributes, symObjAddr: 0x4980, symBinAddr: 0x2DE60, symSize: 0x80 }
  - { offset: 0x39DAF, size: 0x8, addend: 0x0, symName: __RNvXsf_NtCslJiobkLta79_5alloc3vecRINtB5_3VecTReNtNtCsdGrGZaRBwMb_3syn2ty8TypePathEENtNtNtNtCsieiGu2EXtoJ_4core4iter6traits7collect12IntoIterator9into_iterCsjTXeTLYUiB9_18tracing_attributes, symObjAddr: 0x4A00, symBinAddr: 0x2DEE0, symSize: 0x80 }
  - { offset: 0x39FE2, size: 0x8, addend: 0x0, symName: __RNvXsg_NtCslJiobkLta79_5alloc3vecQINtB5_3VecNtNtCsdGrGZaRBwMb_3syn4attr9AttributeENtNtNtNtCsieiGu2EXtoJ_4core4iter6traits7collect12IntoIterator9into_iterCsjTXeTLYUiB9_18tracing_attributes, symObjAddr: 0x4A80, symBinAddr: 0x2DF60, symSize: 0x90 }
  - { offset: 0x3A203, size: 0x8, addend: 0x0, symName: __RNvXsg_NtCslJiobkLta79_5alloc3vecQINtB5_3VecNtNtCsdGrGZaRBwMb_3syn4expr3ArmENtNtNtNtCsieiGu2EXtoJ_4core4iter6traits7collect12IntoIterator9into_iterCsjTXeTLYUiB9_18tracing_attributes, symObjAddr: 0x4B10, symBinAddr: 0x2DFF0, symSize: 0x90 }
  - { offset: 0x3A424, size: 0x8, addend: 0x0, symName: __RNvXsg_NtCslJiobkLta79_5alloc3vecQINtB5_3VecNtNtCsdGrGZaRBwMb_3syn4item11ForeignItemENtNtNtNtCsieiGu2EXtoJ_4core4iter6traits7collect12IntoIterator9into_iterCsjTXeTLYUiB9_18tracing_attributes, symObjAddr: 0x4BA0, symBinAddr: 0x2E080, symSize: 0x90 }
  - { offset: 0x3A645, size: 0x8, addend: 0x0, symName: __RNvXsg_NtCslJiobkLta79_5alloc3vecQINtB5_3VecNtNtCsdGrGZaRBwMb_3syn4item4ItemENtNtNtNtCsieiGu2EXtoJ_4core4iter6traits7collect12IntoIterator9into_iterCsjTXeTLYUiB9_18tracing_attributes, symObjAddr: 0x4C30, symBinAddr: 0x2E110, symSize: 0x90 }
  - { offset: 0x3A866, size: 0x8, addend: 0x0, symName: __RNvXsg_NtCslJiobkLta79_5alloc3vecQINtB5_3VecNtNtCsdGrGZaRBwMb_3syn4item8ImplItemENtNtNtNtCsieiGu2EXtoJ_4core4iter6traits7collect12IntoIterator9into_iterCsjTXeTLYUiB9_18tracing_attributes, symObjAddr: 0x4CC0, symBinAddr: 0x2E1A0, symSize: 0x90 }
  - { offset: 0x3AA87, size: 0x8, addend: 0x0, symName: __RNvXsg_NtCslJiobkLta79_5alloc3vecQINtB5_3VecNtNtCsdGrGZaRBwMb_3syn4item9TraitItemENtNtNtNtCsieiGu2EXtoJ_4core4iter6traits7collect12IntoIterator9into_iterCsjTXeTLYUiB9_18tracing_attributes, symObjAddr: 0x4D50, symBinAddr: 0x2E230, symSize: 0x90 }
  - { offset: 0x3ACA8, size: 0x8, addend: 0x0, symName: __RNvXsg_NtCslJiobkLta79_5alloc3vecQINtB5_3VecNtNtCsdGrGZaRBwMb_3syn4stmt4StmtENtNtNtNtCsieiGu2EXtoJ_4core4iter6traits7collect12IntoIterator9into_iterCsjTXeTLYUiB9_18tracing_attributes, symObjAddr: 0x4DE0, symBinAddr: 0x2E2C0, symSize: 0x90 }
  - { offset: 0x3AECF, size: 0x8, addend: 0x0, symName: __RNvXsh_NtCslJiobkLta79_5alloc3vecINtB5_3VecNtNtCsdGrGZaRBwMb_3syn4attr9AttributeEINtNtNtNtCsieiGu2EXtoJ_4core4iter6traits7collect6ExtendBF_E10extend_oneCsjTXeTLYUiB9_18tracing_attributes, symObjAddr: 0x4E70, symBinAddr: 0x2E350, symSize: 0x20 }
  - { offset: 0x3AF47, size: 0x8, addend: 0x0, symName: __RNvXsn_NtCslJiobkLta79_5alloc3vecINtB5_3VecNtCsaKzlTDPUHDb_11proc_macro211TokenStreamENtNtNtCsieiGu2EXtoJ_4core3ops4drop4Drop4dropCsjTXeTLYUiB9_18tracing_attributes, symObjAddr: 0x4E90, symBinAddr: 0x2E370, symSize: 0x30 }
  - { offset: 0x3AFF7, size: 0x8, addend: 0x0, symName: __RNvXsn_NtCslJiobkLta79_5alloc3vecINtB5_3VecNtCsaKzlTDPUHDb_11proc_macro25IdentENtNtNtCsieiGu2EXtoJ_4core3ops4drop4Drop4dropCsjTXeTLYUiB9_18tracing_attributes, symObjAddr: 0x4EC0, symBinAddr: 0x2E3A0, symSize: 0x30 }
  - { offset: 0x3B0A7, size: 0x8, addend: 0x0, symName: __RNvXsn_NtCslJiobkLta79_5alloc3vecINtB5_3VecNtNtCsdGrGZaRBwMb_3syn3pat3PatENtNtNtCsieiGu2EXtoJ_4core3ops4drop4Drop4dropCsjTXeTLYUiB9_18tracing_attributes, symObjAddr: 0x4EF0, symBinAddr: 0x2E3D0, symSize: 0x30 }
  - { offset: 0x3B157, size: 0x8, addend: 0x0, symName: __RNvXsn_NtCslJiobkLta79_5alloc3vecINtB5_3VecNtNtCsdGrGZaRBwMb_3syn3pat8FieldPatENtNtNtCsieiGu2EXtoJ_4core3ops4drop4Drop4dropCsjTXeTLYUiB9_18tracing_attributes, symObjAddr: 0x4F20, symBinAddr: 0x2E400, symSize: 0x30 }
  - { offset: 0x3B207, size: 0x8, addend: 0x0, symName: __RNvXsn_NtCslJiobkLta79_5alloc3vecINtB5_3VecNtNtCsdGrGZaRBwMb_3syn4item5FnArgENtNtNtCsieiGu2EXtoJ_4core3ops4drop4Drop4dropCsjTXeTLYUiB9_18tracing_attributes, symObjAddr: 0x4F50, symBinAddr: 0x2E430, symSize: 0x30 }
  - { offset: 0x3B2B7, size: 0x8, addend: 0x0, symName: __RNvXsn_NtCslJiobkLta79_5alloc3vecINtB5_3VecNtNtCsdGrGZaRBwMb_3syn5error5ErrorENtNtNtCsieiGu2EXtoJ_4core3ops4drop4Drop4dropCsjTXeTLYUiB9_18tracing_attributes, symObjAddr: 0x4F80, symBinAddr: 0x2E460, symSize: 0x30 }
  - { offset: 0x3B367, size: 0x8, addend: 0x0, symName: __RNvXsn_NtCslJiobkLta79_5alloc3vecINtB5_3VecTNtCsaKzlTDPUHDb_11proc_macro25IdentBG_EENtNtNtCsieiGu2EXtoJ_4core3ops4drop4Drop4dropCsjTXeTLYUiB9_18tracing_attributes, symObjAddr: 0x4FB0, symBinAddr: 0x2E490, symSize: 0x30 }
  - { offset: 0x3B417, size: 0x8, addend: 0x0, symName: __RNvXsn_NtCslJiobkLta79_5alloc3vecINtB5_3VecTNtCsaKzlTDPUHDb_11proc_macro25IdentNtNtCsdGrGZaRBwMb_3syn5token3DotEENtNtNtCsieiGu2EXtoJ_4core3ops4drop4Drop4dropCsjTXeTLYUiB9_18tracing_attributes, symObjAddr: 0x4FE0, symBinAddr: 0x2E4C0, symSize: 0x30 }
  - { offset: 0x3B4C7, size: 0x8, addend: 0x0, symName: __RNvXsn_NtCslJiobkLta79_5alloc3vecINtB5_3VecTNtCsaKzlTDPUHDb_11proc_macro25IdentNtNtCsdGrGZaRBwMb_3syn5token5CommaEENtNtNtCsieiGu2EXtoJ_4core3ops4drop4Drop4dropCsjTXeTLYUiB9_18tracing_attributes, symObjAddr: 0x5010, symBinAddr: 0x2E4F0, symSize: 0x30 }
  - { offset: 0x3B577, size: 0x8, addend: 0x0, symName: __RNvXsn_NtCslJiobkLta79_5alloc3vecINtB5_3VecTNtCsaKzlTDPUHDb_11proc_macro25IdentTBG_NtNtCsjTXeTLYUiB9_18tracing_attributes6expand10RecordTypeEEENtNtNtCsieiGu2EXtoJ_4core3ops4drop4Drop4dropB1n_, symObjAddr: 0x5040, symBinAddr: 0x2E520, symSize: 0x30 }
  - { offset: 0x3B627, size: 0x8, addend: 0x0, symName: __RNvXsn_NtCslJiobkLta79_5alloc3vecINtB5_3VecTNtNtCsjTXeTLYUiB9_18tracing_attributes4attr5FieldNtNtCsdGrGZaRBwMb_3syn5token5CommaEENtNtNtCsieiGu2EXtoJ_4core3ops4drop4Drop4dropBK_, symObjAddr: 0x5070, symBinAddr: 0x2E550, symSize: 0x30 }
  - { offset: 0x3B6D7, size: 0x8, addend: 0x0, symName: __RNvXsn_NtCslJiobkLta79_5alloc3vecINtB5_3VecTReNtNtCsdGrGZaRBwMb_3syn2ty8TypePathEENtNtNtCsieiGu2EXtoJ_4core3ops4drop4Drop4dropCsjTXeTLYUiB9_18tracing_attributes, symObjAddr: 0x50A0, symBinAddr: 0x2E580, symSize: 0x30 }
  - { offset: 0x3B78D, size: 0x8, addend: 0x0, symName: __RNvXso_NtCslJiobkLta79_5alloc3vecINtB5_3VecNtNtCsdGrGZaRBwMb_3syn4attr9AttributeENtNtCsieiGu2EXtoJ_4core7default7Default7defaultCsjTXeTLYUiB9_18tracing_attributes, symObjAddr: 0x50D0, symBinAddr: 0x2E5B0, symSize: 0x30 }
  - { offset: 0x3B7CA, size: 0x8, addend: 0x0, symName: __RNvXso_NtCslJiobkLta79_5alloc3vecINtB5_3VecNtNtCsdGrGZaRBwMb_3syn5error5ErrorENtNtCsieiGu2EXtoJ_4core7default7Default7defaultCsjTXeTLYUiB9_18tracing_attributes, symObjAddr: 0x5100, symBinAddr: 0x2E5E0, symSize: 0x30 }
  - { offset: 0x40D4C, size: 0x8, addend: 0x0, symName: __RINvMsi_NtCslJiobkLta79_5alloc3vecINtB6_3VecNtCsaKzlTDPUHDb_11proc_macro211TokenStreamE14extend_trustedINtNtNtNtCsieiGu2EXtoJ_4core4iter8adapters3map3MapINtNtNtB1M_5slice4iter4IterNtNtCsdGrGZaRBwMb_3syn4stmt4StmtENCNvMs_NtCsjTXeTLYUiB9_18tracing_attributes6expandNtB3w_9AsyncInfo9gen_async0EEB3y_, symObjAddr: 0x0, symBinAddr: 0x294E0, symSize: 0x1A0 }
  - { offset: 0x4130C, size: 0x8, addend: 0x0, symName: __RINvMsi_NtCslJiobkLta79_5alloc3vecINtB6_3VecNtCsaKzlTDPUHDb_11proc_macro211TokenStreamE16extend_desugaredINtNtNtNtCsieiGu2EXtoJ_4core4iter8adapters3map3MapINtNtB1K_6filter6FilterINtNtNtB1O_5slice4iter4IterTNtBI_5IdentTB3i_NtNtCsjTXeTLYUiB9_18tracing_attributes6expand10RecordTypeEEENCNCINvB3A_9gen_blockBG_Es0_0s2_0ENCB4y_s3_0EEB3C_, symObjAddr: 0x1A0, symBinAddr: 0x29680, symSize: 0x280 }
  - { offset: 0x41720, size: 0x8, addend: 0x0, symName: __RINvMsi_NtCslJiobkLta79_5alloc3vecINtB6_3VecNtCsaKzlTDPUHDb_11proc_macro211TokenStreamE16extend_desugaredINtNtNtNtCsieiGu2EXtoJ_4core4iter8adapters3map3MapINtNtB1K_6filter6FilterINtNtNtB1O_5slice4iter4IterTNtBI_5IdentTB3i_NtNtCsjTXeTLYUiB9_18tracing_attributes6expand10RecordTypeEEENCNCINvB3A_9gen_blockNtNtCsdGrGZaRBwMb_3syn4stmt5BlockEs0_0s2_0ENCB4y_s3_0EEB3C_, symObjAddr: 0x420, symBinAddr: 0x29900, symSize: 0x280 }
  - { offset: 0x41BD7, size: 0x8, addend: 0x0, symName: __RINvMsi_NtCslJiobkLta79_5alloc3vecINtB6_3VecTNtCsaKzlTDPUHDb_11proc_macro25IdentTBH_NtNtCsjTXeTLYUiB9_18tracing_attributes6expand10RecordTypeEEE16extend_desugaredINtNtNtNtCsieiGu2EXtoJ_4core4iter8adapters3map3MapINtNtB2F_7flatten7FlatMapINtNtCsdGrGZaRBwMb_3syn10punctuated8IntoIterNtNtB3S_4item5FnArgEINtNtB8_5boxed3BoxDNtNtNtB2H_6traits8iterator8Iteratorp4ItemB1g_EL_ENCNCINvB1m_9gen_blockNtBJ_11TokenStreamEs0_00ENCB5X_s_0EEB1o_, symObjAddr: 0x6A0, symBinAddr: 0x29B80, symSize: 0x240 }
  - { offset: 0x41FEB, size: 0x8, addend: 0x0, symName: __RINvMsi_NtCslJiobkLta79_5alloc3vecINtB6_3VecTNtCsaKzlTDPUHDb_11proc_macro25IdentTBH_NtNtCsjTXeTLYUiB9_18tracing_attributes6expand10RecordTypeEEE16extend_desugaredINtNtNtNtCsieiGu2EXtoJ_4core4iter8adapters3map3MapINtNtB2F_7flatten7FlatMapINtNtCsdGrGZaRBwMb_3syn10punctuated8IntoIterNtNtB3S_4item5FnArgEINtNtB8_5boxed3BoxDNtNtNtB2H_6traits8iterator8Iteratorp4ItemB1g_EL_ENCNCINvB1m_9gen_blockNtNtB3S_4stmt5BlockEs0_00ENCB5X_s_0EEB1o_, symObjAddr: 0x8E0, symBinAddr: 0x29DC0, symSize: 0x240 }
  - { offset: 0x4232D, size: 0x8, addend: 0x0, symName: __RNvMNtCslJiobkLta79_5alloc3vecINtB2_3VecNtCsaKzlTDPUHDb_11proc_macro25IdentE13with_capacityCsjTXeTLYUiB9_18tracing_attributes, symObjAddr: 0xD50, symBinAddr: 0x2A230, symSize: 0x60 }
  - { offset: 0x42407, size: 0x8, addend: 0x0, symName: __RNvMNtCslJiobkLta79_5alloc3vecINtB2_3VecNtNtCsdGrGZaRBwMb_3syn3pat3PatE13with_capacityCsjTXeTLYUiB9_18tracing_attributes, symObjAddr: 0xDB0, symBinAddr: 0x2A290, symSize: 0x60 }
  - { offset: 0x424E1, size: 0x8, addend: 0x0, symName: __RNvMNtCslJiobkLta79_5alloc3vecINtB2_3VecNtNtCsdGrGZaRBwMb_3syn3pat8FieldPatE13with_capacityCsjTXeTLYUiB9_18tracing_attributes, symObjAddr: 0xE10, symBinAddr: 0x2A2F0, symSize: 0x60 }
  - { offset: 0x425BB, size: 0x8, addend: 0x0, symName: __RNvMNtCslJiobkLta79_5alloc3vecINtB2_3VecNtNtCsdGrGZaRBwMb_3syn4item5FnArgE13with_capacityCsjTXeTLYUiB9_18tracing_attributes, symObjAddr: 0xE70, symBinAddr: 0x2A350, symSize: 0x60 }
  - { offset: 0x42633, size: 0x8, addend: 0x0, symName: __RNvMNtCslJiobkLta79_5alloc3vecINtB2_3VecTNtCsaKzlTDPUHDb_11proc_macro25IdentNtNtCsdGrGZaRBwMb_3syn5token3DotEE3newCsjTXeTLYUiB9_18tracing_attributes, symObjAddr: 0xED0, symBinAddr: 0x2A3B0, symSize: 0x30 }
  - { offset: 0x4266E, size: 0x8, addend: 0x0, symName: __RNvMNtCslJiobkLta79_5alloc3vecINtB2_3VecTNtCsaKzlTDPUHDb_11proc_macro25IdentNtNtCsdGrGZaRBwMb_3syn5token5CommaEE3newCsjTXeTLYUiB9_18tracing_attributes, symObjAddr: 0xF00, symBinAddr: 0x2A3E0, symSize: 0x30 }
  - { offset: 0x4268B, size: 0x8, addend: 0x0, symName: __RNvMNtCslJiobkLta79_5alloc3vecINtB2_3VecTNtNtCsjTXeTLYUiB9_18tracing_attributes4attr5FieldNtNtCsdGrGZaRBwMb_3syn5token5CommaEE3newBH_, symObjAddr: 0xF30, symBinAddr: 0x2A410, symSize: 0x30 }
  - { offset: 0x426C6, size: 0x8, addend: 0x0, symName: __RNvMNtCslJiobkLta79_5alloc3vecINtB2_3VecTReNtNtCsdGrGZaRBwMb_3syn2ty8TypePathEE3newCsjTXeTLYUiB9_18tracing_attributes, symObjAddr: 0xF60, symBinAddr: 0x2A440, symSize: 0x30 }
  - { offset: 0x42813, size: 0x8, addend: 0x0, symName: __RNvMs_NtCslJiobkLta79_5alloc3vecINtB4_3VecNtCsaKzlTDPUHDb_11proc_macro211TokenStreamE7reserveCsjTXeTLYUiB9_18tracing_attributes, symObjAddr: 0xF90, symBinAddr: 0x2A470, symSize: 0xB0 }
  - { offset: 0x42A17, size: 0x8, addend: 0x0, symName: __RNvMs_NtCslJiobkLta79_5alloc3vecINtB4_3VecNtCsaKzlTDPUHDb_11proc_macro211TokenStreamE8as_sliceCsjTXeTLYUiB9_18tracing_attributes, symObjAddr: 0x1040, symBinAddr: 0x2A520, symSize: 0x50 }
  - { offset: 0x42ADE, size: 0x8, addend: 0x0, symName: __RNvMs_NtCslJiobkLta79_5alloc3vecINtB4_3VecNtCsaKzlTDPUHDb_11proc_macro25IdentE4pushCsjTXeTLYUiB9_18tracing_attributes, symObjAddr: 0x1090, symBinAddr: 0x2A570, symSize: 0x20 }
  - { offset: 0x42C36, size: 0x8, addend: 0x0, symName: __RNvMs_NtCslJiobkLta79_5alloc3vecINtB4_3VecNtCsaKzlTDPUHDb_11proc_macro25IdentE8push_mutCsjTXeTLYUiB9_18tracing_attributes, symObjAddr: 0x10B0, symBinAddr: 0x2A590, symSize: 0x110 }
  - { offset: 0x42DF8, size: 0x8, addend: 0x0, symName: __RNvMs_NtCslJiobkLta79_5alloc3vecINtB4_3VecNtNtCsdGrGZaRBwMb_3syn3pat3PatE4pushCsjTXeTLYUiB9_18tracing_attributes, symObjAddr: 0x11C0, symBinAddr: 0x2A6A0, symSize: 0x20 }
  - { offset: 0x42F50, size: 0x8, addend: 0x0, symName: __RNvMs_NtCslJiobkLta79_5alloc3vecINtB4_3VecNtNtCsdGrGZaRBwMb_3syn3pat3PatE8push_mutCsjTXeTLYUiB9_18tracing_attributes, symObjAddr: 0x11E0, symBinAddr: 0x2A6C0, symSize: 0x140 }
  - { offset: 0x43112, size: 0x8, addend: 0x0, symName: __RNvMs_NtCslJiobkLta79_5alloc3vecINtB4_3VecNtNtCsdGrGZaRBwMb_3syn3pat8FieldPatE4pushCsjTXeTLYUiB9_18tracing_attributes, symObjAddr: 0x1320, symBinAddr: 0x2A800, symSize: 0x20 }
  - { offset: 0x4326A, size: 0x8, addend: 0x0, symName: __RNvMs_NtCslJiobkLta79_5alloc3vecINtB4_3VecNtNtCsdGrGZaRBwMb_3syn3pat8FieldPatE8push_mutCsjTXeTLYUiB9_18tracing_attributes, symObjAddr: 0x1340, symBinAddr: 0x2A820, symSize: 0x130 }
  - { offset: 0x4342C, size: 0x8, addend: 0x0, symName: __RNvMs_NtCslJiobkLta79_5alloc3vecINtB4_3VecNtNtCsdGrGZaRBwMb_3syn4item5FnArgE4pushCsjTXeTLYUiB9_18tracing_attributes, symObjAddr: 0x1470, symBinAddr: 0x2A950, symSize: 0x20 }
  - { offset: 0x43577, size: 0x8, addend: 0x0, symName: __RNvMs_NtCslJiobkLta79_5alloc3vecINtB4_3VecNtNtCsdGrGZaRBwMb_3syn4item5FnArgE8push_mutCsjTXeTLYUiB9_18tracing_attributes, symObjAddr: 0x1490, symBinAddr: 0x2A970, symSize: 0x130 }
  - { offset: 0x437EA, size: 0x8, addend: 0x0, symName: __RNvMs_NtCslJiobkLta79_5alloc3vecINtB4_3VecNtNtCsdGrGZaRBwMb_3syn4stmt4StmtE8as_sliceCsjTXeTLYUiB9_18tracing_attributes, symObjAddr: 0x15C0, symBinAddr: 0x2AAA0, symSize: 0x50 }
  - { offset: 0x438B1, size: 0x8, addend: 0x0, symName: __RNvMs_NtCslJiobkLta79_5alloc3vecINtB4_3VecNtNtCsdGrGZaRBwMb_3syn5error5ErrorE4pushCsjTXeTLYUiB9_18tracing_attributes, symObjAddr: 0x1610, symBinAddr: 0x2AAF0, symSize: 0x20 }
  - { offset: 0x43994, size: 0x8, addend: 0x0, symName: __RNvMs_NtCslJiobkLta79_5alloc3vecINtB4_3VecNtNtCsdGrGZaRBwMb_3syn5error5ErrorE7set_lenCsjTXeTLYUiB9_18tracing_attributes, symObjAddr: 0x1630, symBinAddr: 0x2AB10, symSize: 0x70 }
  - { offset: 0x43B1E, size: 0x8, addend: 0x0, symName: __RNvMs_NtCslJiobkLta79_5alloc3vecINtB4_3VecNtNtCsdGrGZaRBwMb_3syn5error5ErrorE8as_sliceCsjTXeTLYUiB9_18tracing_attributes, symObjAddr: 0x16A0, symBinAddr: 0x2AB80, symSize: 0x50 }
  - { offset: 0x43CC4, size: 0x8, addend: 0x0, symName: __RNvMs_NtCslJiobkLta79_5alloc3vecINtB4_3VecNtNtCsdGrGZaRBwMb_3syn5error5ErrorE8push_mutCsjTXeTLYUiB9_18tracing_attributes, symObjAddr: 0x16F0, symBinAddr: 0x2ABD0, symSize: 0x110 }
  - { offset: 0x43E86, size: 0x8, addend: 0x0, symName: __RNvMs_NtCslJiobkLta79_5alloc3vecINtB4_3VecTNtCsaKzlTDPUHDb_11proc_macro25IdentNtNtCsdGrGZaRBwMb_3syn5token3DotEE4pushCsjTXeTLYUiB9_18tracing_attributes, symObjAddr: 0x1800, symBinAddr: 0x2ACE0, symSize: 0x20 }
  - { offset: 0x43F69, size: 0x8, addend: 0x0, symName: __RNvMs_NtCslJiobkLta79_5alloc3vecINtB4_3VecTNtCsaKzlTDPUHDb_11proc_macro25IdentNtNtCsdGrGZaRBwMb_3syn5token3DotEE7set_lenCsjTXeTLYUiB9_18tracing_attributes, symObjAddr: 0x1820, symBinAddr: 0x2AD00, symSize: 0x70 }
  - { offset: 0x440F3, size: 0x8, addend: 0x0, symName: __RNvMs_NtCslJiobkLta79_5alloc3vecINtB4_3VecTNtCsaKzlTDPUHDb_11proc_macro25IdentNtNtCsdGrGZaRBwMb_3syn5token3DotEE8as_sliceCsjTXeTLYUiB9_18tracing_attributes, symObjAddr: 0x1890, symBinAddr: 0x2AD70, symSize: 0x50 }
  - { offset: 0x44299, size: 0x8, addend: 0x0, symName: __RNvMs_NtCslJiobkLta79_5alloc3vecINtB4_3VecTNtCsaKzlTDPUHDb_11proc_macro25IdentNtNtCsdGrGZaRBwMb_3syn5token3DotEE8push_mutCsjTXeTLYUiB9_18tracing_attributes, symObjAddr: 0x18E0, symBinAddr: 0x2ADC0, symSize: 0x120 }
  - { offset: 0x4445B, size: 0x8, addend: 0x0, symName: __RNvMs_NtCslJiobkLta79_5alloc3vecINtB4_3VecTNtCsaKzlTDPUHDb_11proc_macro25IdentNtNtCsdGrGZaRBwMb_3syn5token5CommaEE3lenCsjTXeTLYUiB9_18tracing_attributes, symObjAddr: 0x1A00, symBinAddr: 0x2AEE0, symSize: 0x10 }
  - { offset: 0x4449D, size: 0x8, addend: 0x0, symName: __RNvMs_NtCslJiobkLta79_5alloc3vecINtB4_3VecTNtCsaKzlTDPUHDb_11proc_macro25IdentNtNtCsdGrGZaRBwMb_3syn5token5CommaEE4pushCsjTXeTLYUiB9_18tracing_attributes, symObjAddr: 0x1A10, symBinAddr: 0x2AEF0, symSize: 0x20 }
  - { offset: 0x445F5, size: 0x8, addend: 0x0, symName: __RNvMs_NtCslJiobkLta79_5alloc3vecINtB4_3VecTNtCsaKzlTDPUHDb_11proc_macro25IdentNtNtCsdGrGZaRBwMb_3syn5token5CommaEE8push_mutCsjTXeTLYUiB9_18tracing_attributes, symObjAddr: 0x1A30, symBinAddr: 0x2AF10, symSize: 0x120 }
  - { offset: 0x448C0, size: 0x8, addend: 0x0, symName: __RNvMs_NtCslJiobkLta79_5alloc3vecINtB4_3VecTNtCsaKzlTDPUHDb_11proc_macro25IdentTBF_NtNtCsjTXeTLYUiB9_18tracing_attributes6expand10RecordTypeEEE7reserveB1m_, symObjAddr: 0x1B50, symBinAddr: 0x2B030, symSize: 0xB0 }
  - { offset: 0x44AC4, size: 0x8, addend: 0x0, symName: __RNvMs_NtCslJiobkLta79_5alloc3vecINtB4_3VecTNtCsaKzlTDPUHDb_11proc_macro25IdentTBF_NtNtCsjTXeTLYUiB9_18tracing_attributes6expand10RecordTypeEEE8as_sliceB1m_, symObjAddr: 0x1C00, symBinAddr: 0x2B0E0, symSize: 0x50 }
  - { offset: 0x44C59, size: 0x8, addend: 0x0, symName: __RNvMs_NtCslJiobkLta79_5alloc3vecINtB4_3VecTNtNtCsdGrGZaRBwMb_3syn2ty4TypeNtNtBJ_5token5CommaEE12as_mut_sliceCsjTXeTLYUiB9_18tracing_attributes, symObjAddr: 0x1C50, symBinAddr: 0x2B130, symSize: 0x50 }
  - { offset: 0x44E03, size: 0x8, addend: 0x0, symName: __RNvMs_NtCslJiobkLta79_5alloc3vecINtB4_3VecTNtNtCsdGrGZaRBwMb_3syn2ty9BareFnArgNtNtBJ_5token5CommaEE12as_mut_sliceCsjTXeTLYUiB9_18tracing_attributes, symObjAddr: 0x1CA0, symBinAddr: 0x2B180, symSize: 0x50 }
  - { offset: 0x44FAD, size: 0x8, addend: 0x0, symName: __RNvMs_NtCslJiobkLta79_5alloc3vecINtB4_3VecTNtNtCsdGrGZaRBwMb_3syn3pat3PatNtNtBJ_5token2OrEE12as_mut_sliceCsjTXeTLYUiB9_18tracing_attributes, symObjAddr: 0x1CF0, symBinAddr: 0x2B1D0, symSize: 0x50 }
  - { offset: 0x45157, size: 0x8, addend: 0x0, symName: __RNvMs_NtCslJiobkLta79_5alloc3vecINtB4_3VecTNtNtCsdGrGZaRBwMb_3syn3pat3PatNtNtBJ_5token5CommaEE12as_mut_sliceCsjTXeTLYUiB9_18tracing_attributes, symObjAddr: 0x1D40, symBinAddr: 0x2B220, symSize: 0x50 }
  - { offset: 0x45301, size: 0x8, addend: 0x0, symName: __RNvMs_NtCslJiobkLta79_5alloc3vecINtB4_3VecTNtNtCsdGrGZaRBwMb_3syn3pat8FieldPatNtNtBJ_5token5CommaEE12as_mut_sliceCsjTXeTLYUiB9_18tracing_attributes, symObjAddr: 0x1D90, symBinAddr: 0x2B270, symSize: 0x50 }
  - { offset: 0x453DD, size: 0x8, addend: 0x0, symName: __RNvMs_NtCslJiobkLta79_5alloc3vecINtB4_3VecTNtNtCsdGrGZaRBwMb_3syn3pat8FieldPatNtNtBJ_5token5CommaEE3lenCsjTXeTLYUiB9_18tracing_attributes, symObjAddr: 0x1DE0, symBinAddr: 0x2B2C0, symSize: 0x10 }
  - { offset: 0x454ED, size: 0x8, addend: 0x0, symName: __RNvMs_NtCslJiobkLta79_5alloc3vecINtB4_3VecTNtNtCsdGrGZaRBwMb_3syn4data7VariantNtNtBJ_5token5CommaEE12as_mut_sliceCsjTXeTLYUiB9_18tracing_attributes, symObjAddr: 0x1DF0, symBinAddr: 0x2B2D0, symSize: 0x50 }
  - { offset: 0x45697, size: 0x8, addend: 0x0, symName: __RNvMs_NtCslJiobkLta79_5alloc3vecINtB4_3VecTNtNtCsdGrGZaRBwMb_3syn4expr10FieldValueNtNtBJ_5token5CommaEE12as_mut_sliceCsjTXeTLYUiB9_18tracing_attributes, symObjAddr: 0x1E40, symBinAddr: 0x2B320, symSize: 0x50 }
  - { offset: 0x45841, size: 0x8, addend: 0x0, symName: __RNvMs_NtCslJiobkLta79_5alloc3vecINtB4_3VecTNtNtCsdGrGZaRBwMb_3syn4expr4ExprNtNtBJ_5token5CommaEE12as_mut_sliceCsjTXeTLYUiB9_18tracing_attributes, symObjAddr: 0x1E90, symBinAddr: 0x2B370, symSize: 0x50 }
  - { offset: 0x459EB, size: 0x8, addend: 0x0, symName: __RNvMs_NtCslJiobkLta79_5alloc3vecINtB4_3VecTNtNtCsdGrGZaRBwMb_3syn4item5FnArgNtNtBJ_5token5CommaEE12as_mut_sliceCsjTXeTLYUiB9_18tracing_attributes, symObjAddr: 0x1EE0, symBinAddr: 0x2B3C0, symSize: 0x50 }
  - { offset: 0x45B95, size: 0x8, addend: 0x0, symName: __RNvMs_NtCslJiobkLta79_5alloc3vecINtB4_3VecTNtNtCsdGrGZaRBwMb_3syn4item7UseTreeNtNtBJ_5token5CommaEE12as_mut_sliceCsjTXeTLYUiB9_18tracing_attributes, symObjAddr: 0x1F30, symBinAddr: 0x2B410, symSize: 0x50 }
  - { offset: 0x45D3F, size: 0x8, addend: 0x0, symName: __RNvMs_NtCslJiobkLta79_5alloc3vecINtB4_3VecTNtNtCsdGrGZaRBwMb_3syn4path15GenericArgumentNtNtBJ_5token5CommaEE12as_mut_sliceCsjTXeTLYUiB9_18tracing_attributes, symObjAddr: 0x1F80, symBinAddr: 0x2B460, symSize: 0x50 }
  - { offset: 0x45EE9, size: 0x8, addend: 0x0, symName: __RNvMs_NtCslJiobkLta79_5alloc3vecINtB4_3VecTNtNtCsdGrGZaRBwMb_3syn8generics13CapturedParamNtNtBJ_5token5CommaEE12as_mut_sliceCsjTXeTLYUiB9_18tracing_attributes, symObjAddr: 0x1FD0, symBinAddr: 0x2B4B0, symSize: 0x50 }
  - { offset: 0x46093, size: 0x8, addend: 0x0, symName: __RNvMs_NtCslJiobkLta79_5alloc3vecINtB4_3VecTNtNtCsdGrGZaRBwMb_3syn8generics14TypeParamBoundNtNtBJ_5token4PlusEE12as_mut_sliceCsjTXeTLYUiB9_18tracing_attributes, symObjAddr: 0x2020, symBinAddr: 0x2B500, symSize: 0x50 }
  - { offset: 0x4623D, size: 0x8, addend: 0x0, symName: __RNvMs_NtCslJiobkLta79_5alloc3vecINtB4_3VecTNtNtCsdGrGZaRBwMb_3syn8generics14WherePredicateNtNtBJ_5token5CommaEE12as_mut_sliceCsjTXeTLYUiB9_18tracing_attributes, symObjAddr: 0x2070, symBinAddr: 0x2B550, symSize: 0x50 }
  - { offset: 0x463E7, size: 0x8, addend: 0x0, symName: __RNvMs_NtCslJiobkLta79_5alloc3vecINtB4_3VecTNtNtCsdGrGZaRBwMb_3syn8lifetime8LifetimeNtNtBJ_5token4PlusEE12as_mut_sliceCsjTXeTLYUiB9_18tracing_attributes, symObjAddr: 0x20C0, symBinAddr: 0x2B5A0, symSize: 0x50 }
  - { offset: 0x46591, size: 0x8, addend: 0x0, symName: __RNvMs_NtCslJiobkLta79_5alloc3vecINtB4_3VecTNtNtCsjTXeTLYUiB9_18tracing_attributes4attr5FieldNtNtCsdGrGZaRBwMb_3syn5token5CommaEE12as_mut_sliceBJ_, symObjAddr: 0x2110, symBinAddr: 0x2B5F0, symSize: 0x50 }
  - { offset: 0x46660, size: 0x8, addend: 0x0, symName: __RNvMs_NtCslJiobkLta79_5alloc3vecINtB4_3VecTNtNtCsjTXeTLYUiB9_18tracing_attributes4attr5FieldNtNtCsdGrGZaRBwMb_3syn5token5CommaEE4pushBJ_, symObjAddr: 0x2160, symBinAddr: 0x2B640, symSize: 0x20 }
  - { offset: 0x46736, size: 0x8, addend: 0x0, symName: __RNvMs_NtCslJiobkLta79_5alloc3vecINtB4_3VecTNtNtCsjTXeTLYUiB9_18tracing_attributes4attr5FieldNtNtCsdGrGZaRBwMb_3syn5token5CommaEE7set_lenBJ_, symObjAddr: 0x2180, symBinAddr: 0x2B660, symSize: 0x70 }
  - { offset: 0x4689D, size: 0x8, addend: 0x0, symName: __RNvMs_NtCslJiobkLta79_5alloc3vecINtB4_3VecTNtNtCsjTXeTLYUiB9_18tracing_attributes4attr5FieldNtNtCsdGrGZaRBwMb_3syn5token5CommaEE8as_sliceBJ_, symObjAddr: 0x21F0, symBinAddr: 0x2B6D0, symSize: 0x50 }
  - { offset: 0x46A43, size: 0x8, addend: 0x0, symName: __RNvMs_NtCslJiobkLta79_5alloc3vecINtB4_3VecTNtNtCsjTXeTLYUiB9_18tracing_attributes4attr5FieldNtNtCsdGrGZaRBwMb_3syn5token5CommaEE8push_mutBJ_, symObjAddr: 0x2240, symBinAddr: 0x2B720, symSize: 0x140 }
  - { offset: 0x46C05, size: 0x8, addend: 0x0, symName: __RNvMs_NtCslJiobkLta79_5alloc3vecINtB4_3VecTReNtNtCsdGrGZaRBwMb_3syn2ty8TypePathEE4pushCsjTXeTLYUiB9_18tracing_attributes, symObjAddr: 0x2380, symBinAddr: 0x2B860, symSize: 0x20 }
  - { offset: 0x46D5D, size: 0x8, addend: 0x0, symName: __RNvMs_NtCslJiobkLta79_5alloc3vecINtB4_3VecTReNtNtCsdGrGZaRBwMb_3syn2ty8TypePathEE8push_mutCsjTXeTLYUiB9_18tracing_attributes, symObjAddr: 0x23A0, symBinAddr: 0x2B880, symSize: 0x130 }
  - { offset: 0x4765A, size: 0x8, addend: 0x0, symName: __RNvXs4_NtNtCs9OU1sGv5X54_5quote9___private3extINtNtCslJiobkLta79_5alloc3vec3VecNtCsaKzlTDPUHDb_11proc_macro211TokenStreamENtB5_16RepAsIteratorExt15quote_into_iterCsjTXeTLYUiB9_18tracing_attributes, symObjAddr: 0x3500, symBinAddr: 0x2C9E0, symSize: 0x30 }
  - { offset: 0x4768F, size: 0x8, addend: 0x0, symName: __RNvXs4_NtNtCs9OU1sGv5X54_5quote9___private3extINtNtCslJiobkLta79_5alloc3vec3VecNtNtCsdGrGZaRBwMb_3syn4attr9AttributeENtB5_16RepAsIteratorExt15quote_into_iterCsjTXeTLYUiB9_18tracing_attributes, symObjAddr: 0x3530, symBinAddr: 0x2CA10, symSize: 0x30 }
  - { offset: 0x49F03, size: 0x8, addend: 0x0, symName: __RINvMs6_NtCsjK30CmJ87bX_9hashbrown3rawINtB6_8RawTableTNtCsaKzlTDPUHDb_11proc_macro25IdentuEE14reserve_rehashNCINvNtB8_3map11make_hasherBQ_uNtNtNtCsHUR1vrdMJt_3std4hash6random11RandomStateE0ECsjTXeTLYUiB9_18tracing_attributes, symObjAddr: 0x0, symBinAddr: 0x1FBC90, symSize: 0xD70 }
  - { offset: 0x49F3F, size: 0x8, addend: 0x0, symName: __RNCINvMs6_NtCsjK30CmJ87bX_9hashbrown3rawINtB8_8RawTableTNtCsaKzlTDPUHDb_11proc_macro25IdentuEE14reserve_rehashNCINvNtBa_3map11make_hasherBS_uNtNtNtCsHUR1vrdMJt_3std4hash6random11RandomStateE0E0CsjTXeTLYUiB9_18tracing_attributes, symObjAddr: 0x2000, symBinAddr: 0x2F8A0, symSize: 0xB0 }
  - { offset: 0x4A105, size: 0x8, addend: 0x0, symName: __RNCINvMs6_NtCsjK30CmJ87bX_9hashbrown3rawINtB8_8RawTableTNtCsaKzlTDPUHDb_11proc_macro25IdentuEE14reserve_rehashNCINvNtBa_3map11make_hasherBS_uNtNtNtCsHUR1vrdMJt_3std4hash6random11RandomStateE0Es_0CsjTXeTLYUiB9_18tracing_attributes, symObjAddr: 0x20B0, symBinAddr: 0x2F950, symSize: 0x30 }
  - { offset: 0x4A162, size: 0x8, addend: 0x0, symName: __RNCINvMs6_NtCsjK30CmJ87bX_9hashbrown3rawINtB8_8RawTableTNtCsaKzlTDPUHDb_11proc_macro25IdentuEE24find_or_find_insert_slotNCINvNtBa_3map14equivalent_keyBS_BS_uE0NCINvB1Z_11make_hasherBS_uNtNtNtCsHUR1vrdMJt_3std4hash6random11RandomStateE0E0CsjTXeTLYUiB9_18tracing_attributes, symObjAddr: 0x20E0, symBinAddr: 0x2F980, symSize: 0xB0 }
  - { offset: 0x4A33E, size: 0x8, addend: 0x0, symName: __RNCINvMs6_NtCsjK30CmJ87bX_9hashbrown3rawINtB8_8RawTableTNtCsaKzlTDPUHDb_11proc_macro25IdentuEE4findNCINvNtBa_3map14equivalent_keyBS_BS_uE0E0CsjTXeTLYUiB9_18tracing_attributes, symObjAddr: 0x2190, symBinAddr: 0x2FA30, symSize: 0xB0 }
  - { offset: 0x4AD50, size: 0x8, addend: 0x0, symName: __RNCINvMsa_NtCsjK30CmJ87bX_9hashbrown3rawNtB8_13RawTableInner14prepare_resizeNtNtCslJiobkLta79_5alloc5alloc6GlobalE0CsjTXeTLYUiB9_18tracing_attributes, symObjAddr: 0x2240, symBinAddr: 0x2FAE0, symSize: 0xD0 }
  - { offset: 0x4AF1E, size: 0x8, addend: 0x0, symName: __RNCNvMsa_NtCsjK30CmJ87bX_9hashbrown3rawNtB7_13RawTableInner15rehash_in_place0CsjTXeTLYUiB9_18tracing_attributes, symObjAddr: 0x2310, symBinAddr: 0x2FBB0, symSize: 0x250 }
  - { offset: 0x4B549, size: 0x8, addend: 0x0, symName: __RNCNvMse_NtCsjK30CmJ87bX_9hashbrown3rawINtB7_8RawTableTNtCsaKzlTDPUHDb_11proc_macro25IdentuEE15clone_from_impl0CsjTXeTLYUiB9_18tracing_attributes, symObjAddr: 0x2560, symBinAddr: 0x2FE00, symSize: 0x1C0 }
  - { offset: 0x4B8B8, size: 0x8, addend: 0x0, symName: __RNvNtCsjK30CmJ87bX_9hashbrown3raw19capacity_to_bucketsCsjTXeTLYUiB9_18tracing_attributes, symObjAddr: 0x4420, symBinAddr: 0x31CC0, symSize: 0x280 }
  - { offset: 0x4BACE, size: 0x8, addend: 0x0, symName: __RNvXsb_NtCsjK30CmJ87bX_9hashbrown3rawINtB5_8RawTableTNtCsaKzlTDPUHDb_11proc_macro25IdentuEENtNtCsieiGu2EXtoJ_4core5clone5Clone5cloneCsjTXeTLYUiB9_18tracing_attributes, symObjAddr: 0x46A0, symBinAddr: 0x31F40, symSize: 0x190 }
  - { offset: 0x4BB86, size: 0x8, addend: 0x0, symName: __RNvXsc_NtCsjK30CmJ87bX_9hashbrown3rawINtB5_8RawTableTNtCsaKzlTDPUHDb_11proc_macro25IdentuEENtB5_13RawTableClone15clone_from_specCsjTXeTLYUiB9_18tracing_attributes, symObjAddr: 0x4830, symBinAddr: 0x320D0, symSize: 0x20 }
  - { offset: 0x4BBD6, size: 0x8, addend: 0x0, symName: __RNvXsg_NtCsjK30CmJ87bX_9hashbrown3rawINtB5_8RawTableTNtCsaKzlTDPUHDb_11proc_macro25IdentuEENtNtNtCsieiGu2EXtoJ_4core3ops4drop4Drop4dropCsjTXeTLYUiB9_18tracing_attributes, symObjAddr: 0x4850, symBinAddr: 0x320F0, symSize: 0x30 }
  - { offset: 0x4F9B6, size: 0x8, addend: 0x0, symName: __RINvMs6_NtCsjK30CmJ87bX_9hashbrown3rawINtB6_8RawTableTNtCsaKzlTDPUHDb_11proc_macro25IdentuEE14reserve_rehashNCINvNtB8_3map11make_hasherBQ_uNtNtNtCsHUR1vrdMJt_3std4hash6random11RandomStateE0ECsjTXeTLYUiB9_18tracing_attributes, symObjAddr: 0x0, symBinAddr: 0x1FBC90, symSize: 0xD70 }
  - { offset: 0x50489, size: 0x8, addend: 0x0, symName: __RINvMs6_NtCsjK30CmJ87bX_9hashbrown3rawINtB6_8RawTableTNtCsaKzlTDPUHDb_11proc_macro25IdentuEE24find_or_find_insert_slotNCINvNtB8_3map14equivalent_keyBQ_BQ_uE0NCINvB1X_11make_hasherBQ_uNtNtNtCsHUR1vrdMJt_3std4hash6random11RandomStateE0ECsjTXeTLYUiB9_18tracing_attributes, symObjAddr: 0xD70, symBinAddr: 0x2E610, symSize: 0x160 }
  - { offset: 0x50953, size: 0x8, addend: 0x0, symName: __RINvMs6_NtCsjK30CmJ87bX_9hashbrown3rawINtB6_8RawTableTNtCsaKzlTDPUHDb_11proc_macro25IdentuEE4findNCINvNtB8_3map14equivalent_keyBQ_BQ_uE0ECsjTXeTLYUiB9_18tracing_attributes, symObjAddr: 0xED0, symBinAddr: 0x2E770, symSize: 0x480 }
  - { offset: 0x50E6C, size: 0x8, addend: 0x0, symName: __RINvMs6_NtCsjK30CmJ87bX_9hashbrown3rawINtB6_8RawTableTNtCsaKzlTDPUHDb_11proc_macro25IdentuEE7reserveNCINvNtB8_3map11make_hasherBQ_uNtNtNtCsHUR1vrdMJt_3std4hash6random11RandomStateE0ECsjTXeTLYUiB9_18tracing_attributes, symObjAddr: 0x1350, symBinAddr: 0x2EBF0, symSize: 0xC0 }
  - { offset: 0x5105E, size: 0x8, addend: 0x0, symName: __RINvMsa_NtCsjK30CmJ87bX_9hashbrown3rawNtB6_13RawTableInner13drop_elementsTNtCsaKzlTDPUHDb_11proc_macro25IdentuEECsjTXeTLYUiB9_18tracing_attributes, symObjAddr: 0x1410, symBinAddr: 0x2ECB0, symSize: 0x1D0 }
  - { offset: 0x513C1, size: 0x8, addend: 0x0, symName: __RINvMsa_NtCsjK30CmJ87bX_9hashbrown3rawNtB6_13RawTableInner16drop_inner_tableTNtCsaKzlTDPUHDb_11proc_macro25IdentuENtNtCslJiobkLta79_5alloc5alloc6GlobalECsjTXeTLYUiB9_18tracing_attributes, symObjAddr: 0x15E0, symBinAddr: 0x2EE80, symSize: 0xD0 }
  - { offset: 0x515BD, size: 0x8, addend: 0x0, symName: __RINvMsa_NtCsjK30CmJ87bX_9hashbrown3rawNtB6_13RawTableInner17new_uninitializedNtNtCslJiobkLta79_5alloc5alloc6GlobalECsjTXeTLYUiB9_18tracing_attributes, symObjAddr: 0x16B0, symBinAddr: 0x2EF50, symSize: 0x290 }
  - { offset: 0x51811, size: 0x8, addend: 0x0, symName: __RINvMsa_NtCsjK30CmJ87bX_9hashbrown3rawNtB6_13RawTableInner22fallible_with_capacityNtNtCslJiobkLta79_5alloc5alloc6GlobalECsjTXeTLYUiB9_18tracing_attributes, symObjAddr: 0x1940, symBinAddr: 0x2F1E0, symSize: 0x430 }
  - { offset: 0x51CDA, size: 0x8, addend: 0x0, symName: __RINvMsi_NtCsjK30CmJ87bX_9hashbrown3rawINtB6_12RawIterRangeTNtCsaKzlTDPUHDb_11proc_macro25IdentuEE9next_implKb0_ECsjTXeTLYUiB9_18tracing_attributes, symObjAddr: 0x1D70, symBinAddr: 0x2F610, symSize: 0x290 }
  - { offset: 0x527AA, size: 0x8, addend: 0x0, symName: __RNvMs1_NtCsjK30CmJ87bX_9hashbrown3rawNtB5_11TableLayout20calculate_layout_forCsjTXeTLYUiB9_18tracing_attributes, symObjAddr: 0x2720, symBinAddr: 0x2FFC0, symSize: 0x2F0 }
  - { offset: 0x52C4D, size: 0x8, addend: 0x0, symName: __RNvMs6_NtCsjK30CmJ87bX_9hashbrown3rawINtB5_8RawTableTNtCsaKzlTDPUHDb_11proc_macro25IdentuEE14insert_in_slotCsjTXeTLYUiB9_18tracing_attributes, symObjAddr: 0x2A10, symBinAddr: 0x302B0, symSize: 0x150 }
  - { offset: 0x52FAD, size: 0x8, addend: 0x0, symName: __RNvMs6_NtCsjK30CmJ87bX_9hashbrown3rawINtB5_8RawTableTNtCsaKzlTDPUHDb_11proc_macro25IdentuEE17new_uninitializedCsjTXeTLYUiB9_18tracing_attributes, symObjAddr: 0x2B60, symBinAddr: 0x30400, symSize: 0x1F0 }
  - { offset: 0x531E6, size: 0x8, addend: 0x0, symName: __RNvMsa_NtCsjK30CmJ87bX_9hashbrown3rawNtB5_13RawTableInner15fix_insert_slotCsjTXeTLYUiB9_18tracing_attributes, symObjAddr: 0x2D50, symBinAddr: 0x305F0, symSize: 0x140 }
  - { offset: 0x5357F, size: 0x8, addend: 0x0, symName: __RNvMsa_NtCsjK30CmJ87bX_9hashbrown3rawNtB5_13RawTableInner15rehash_in_placeCsjTXeTLYUiB9_18tracing_attributes, symObjAddr: 0x2E90, symBinAddr: 0x30730, symSize: 0x5B0 }
  - { offset: 0x53D4B, size: 0x8, addend: 0x0, symName: __RNvMsa_NtCsjK30CmJ87bX_9hashbrown3rawNtB5_13RawTableInner16find_insert_slotCsjTXeTLYUiB9_18tracing_attributes, symObjAddr: 0x3440, symBinAddr: 0x30CE0, symSize: 0x130 }
  - { offset: 0x53F4A, size: 0x8, addend: 0x0, symName: __RNvMsa_NtCsjK30CmJ87bX_9hashbrown3rawNtB5_13RawTableInner19prepare_insert_slotCsjTXeTLYUiB9_18tracing_attributes, symObjAddr: 0x3570, symBinAddr: 0x30E10, symSize: 0x60 }
  - { offset: 0x5423B, size: 0x8, addend: 0x0, symName: __RNvMsa_NtCsjK30CmJ87bX_9hashbrown3rawNtB5_13RawTableInner23prepare_rehash_in_placeCsjTXeTLYUiB9_18tracing_attributes, symObjAddr: 0x35D0, symBinAddr: 0x30E70, symSize: 0x340 }
  - { offset: 0x54962, size: 0x8, addend: 0x0, symName: __RNvMsa_NtCsjK30CmJ87bX_9hashbrown3rawNtB5_13RawTableInner25find_insert_slot_in_groupCsjTXeTLYUiB9_18tracing_attributes, symObjAddr: 0x3910, symBinAddr: 0x311B0, symSize: 0x160 }
  - { offset: 0x54C60, size: 0x8, addend: 0x0, symName: __RNvMsa_NtCsjK30CmJ87bX_9hashbrown3rawNtB5_13RawTableInner30find_or_find_insert_slot_innerCsjTXeTLYUiB9_18tracing_attributes, symObjAddr: 0x3A70, symBinAddr: 0x31310, symSize: 0x410 }
  - { offset: 0x5532D, size: 0x8, addend: 0x0, symName: __RNvMse_NtCsjK30CmJ87bX_9hashbrown3rawINtB5_8RawTableTNtCsaKzlTDPUHDb_11proc_macro25IdentuEE15clone_from_implCsjTXeTLYUiB9_18tracing_attributes, symObjAddr: 0x3E80, symBinAddr: 0x31720, symSize: 0x480 }
  - { offset: 0x55A01, size: 0x8, addend: 0x0, symName: __RNvMsi_NtCsjK30CmJ87bX_9hashbrown3rawINtB5_12RawIterRangeTNtCsaKzlTDPUHDb_11proc_macro25IdentuEE3newCsjTXeTLYUiB9_18tracing_attributes, symObjAddr: 0x4300, symBinAddr: 0x31BA0, symSize: 0x120 }
  - { offset: 0x55D40, size: 0x8, addend: 0x0, symName: __RINvXs2E_NtNtCsieiGu2EXtoJ_4core5slice4iterINtB7_4IterNtNtCsdGrGZaRBwMb_3syn4stmt4StmtENtNtNtNtBb_4iter6traits8iterator8Iterator4folduNCINvNtNtB1t_8adapters3map8map_foldRBQ_NtCsaKzlTDPUHDb_11proc_macro211TokenStreamuNCNvMs_NtCsjTXeTLYUiB9_18tracing_attributes6expandNtB3z_9AsyncInfo9gen_async0NCINvNvB1n_8for_each4callB2L_NCINvMsi_NtCslJiobkLta79_5alloc3vecINtB5j_3VecB2L_E14extend_trustedINtB2d_3MapBF_B3s_EE0E0E0EB3B_, symObjAddr: 0x0, symBinAddr: 0x32120, symSize: 0x190 }
  - { offset: 0x5C5BD, size: 0x8, addend: 0x0, symName: __RINvXs2E_NtNtCsieiGu2EXtoJ_4core5slice4iterINtB7_4IterNtNtCsdGrGZaRBwMb_3syn4stmt4StmtENtNtNtNtBb_4iter6traits8iterator8Iterator4folduNCINvNtNtB1t_8adapters3map8map_foldRBQ_NtCsaKzlTDPUHDb_11proc_macro211TokenStreamuNCNvMs_NtCsjTXeTLYUiB9_18tracing_attributes6expandNtB3z_9AsyncInfo9gen_async0NCINvNvB1n_8for_each4callB2L_NCINvMsi_NtCslJiobkLta79_5alloc3vecINtB5j_3VecB2L_E14extend_trustedINtB2d_3MapBF_B3s_EE0E0E0EB3B_, symObjAddr: 0x0, symBinAddr: 0x32120, symSize: 0x190 }
  - { offset: 0x5C6FE, size: 0x8, addend: 0x0, symName: __RINvXs2E_NtNtCsieiGu2EXtoJ_4core5slice4iterINtB7_4IterReENtNtNtNtBb_4iter6traits8iterator8Iterator3anyNCNCNvMNtCsjTXeTLYUiB9_18tracing_attributes6expandNtB1J_10RecordType13parse_from_ty00EB1L_, symObjAddr: 0x190, symBinAddr: 0x322B0, symSize: 0xA0 }
  - { offset: 0x5C763, size: 0x8, addend: 0x0, symName: __RINvXs2E_NtNtCsieiGu2EXtoJ_4core5slice4iterINtB7_4IterTNtCsaKzlTDPUHDb_11proc_macro25IdentTBR_NtNtCsjTXeTLYUiB9_18tracing_attributes6expand10RecordTypeEEENtNtNtNtBb_4iter6traits8iterator8Iterator4findQNCNCINvB1w_9gen_blockNtBT_11TokenStreamEs0_0s2_0EB1y_, symObjAddr: 0x230, symBinAddr: 0x32350, symSize: 0xA0 }
  - { offset: 0x5C7C8, size: 0x8, addend: 0x0, symName: __RINvXs2E_NtNtCsieiGu2EXtoJ_4core5slice4iterINtB7_4IterTNtCsaKzlTDPUHDb_11proc_macro25IdentTBR_NtNtCsjTXeTLYUiB9_18tracing_attributes6expand10RecordTypeEEENtNtNtNtBb_4iter6traits8iterator8Iterator4findQNCNCINvB1w_9gen_blockNtNtCsdGrGZaRBwMb_3syn4stmt5BlockEs0_0s2_0EB1y_, symObjAddr: 0x2D0, symBinAddr: 0x323F0, symSize: 0xA0 }
  - { offset: 0x5C82D, size: 0x8, addend: 0x0, symName: __RNvXs2E_NtNtCsieiGu2EXtoJ_4core5slice4iterINtB6_4IterNtCsaKzlTDPUHDb_11proc_macro211TokenStreamENtNtNtNtBa_4iter6traits8iterator8Iterator4nextCsjTXeTLYUiB9_18tracing_attributes, symObjAddr: 0x11D0, symBinAddr: 0x332F0, symSize: 0x90 }
  - { offset: 0x5C94E, size: 0x8, addend: 0x0, symName: __RNvXs2E_NtNtCsieiGu2EXtoJ_4core5slice4iterINtB6_4IterNtNtCsdGrGZaRBwMb_3syn4stmt4StmtENtNtNtNtBa_4iter6traits8iterator8Iterator9size_hintCsjTXeTLYUiB9_18tracing_attributes, symObjAddr: 0x1260, symBinAddr: 0x33380, symSize: 0x60 }
  - { offset: 0x5C9BD, size: 0x8, addend: 0x0, symName: __RNvXs2E_NtNtCsieiGu2EXtoJ_4core5slice4iterINtB6_4IterNtNtCsdGrGZaRBwMb_3syn5error5ErrorENtNtNtNtBa_4iter6traits8iterator8Iterator4nextCsjTXeTLYUiB9_18tracing_attributes, symObjAddr: 0x12C0, symBinAddr: 0x333E0, symSize: 0x90 }
  - { offset: 0x5CADE, size: 0x8, addend: 0x0, symName: __RNvXs2E_NtNtCsieiGu2EXtoJ_4core5slice4iterINtB6_4IterTNtCsaKzlTDPUHDb_11proc_macro25IdentBQ_EENtNtNtNtBa_4iter6traits8iterator8Iterator4nextCsjTXeTLYUiB9_18tracing_attributes, symObjAddr: 0x1350, symBinAddr: 0x33470, symSize: 0x90 }
  - { offset: 0x5CBFF, size: 0x8, addend: 0x0, symName: __RNvXs2E_NtNtCsieiGu2EXtoJ_4core5slice4iterINtB6_4IterTNtCsaKzlTDPUHDb_11proc_macro25IdentNtNtCsdGrGZaRBwMb_3syn5token3DotEENtNtNtNtBa_4iter6traits8iterator8Iterator4nextCsjTXeTLYUiB9_18tracing_attributes, symObjAddr: 0x13E0, symBinAddr: 0x33500, symSize: 0x90 }
  - { offset: 0x5CD20, size: 0x8, addend: 0x0, symName: __RNvXs2E_NtNtCsieiGu2EXtoJ_4core5slice4iterINtB6_4IterTNtCsaKzlTDPUHDb_11proc_macro25IdentTBQ_NtNtCsjTXeTLYUiB9_18tracing_attributes6expand10RecordTypeEEENtNtNtNtBa_4iter6traits8iterator8Iterator4nextB1x_, symObjAddr: 0x1470, symBinAddr: 0x33590, symSize: 0x90 }
  - { offset: 0x5CE41, size: 0x8, addend: 0x0, symName: __RNvXs2E_NtNtCsieiGu2EXtoJ_4core5slice4iterINtB6_4IterTNtCsaKzlTDPUHDb_11proc_macro25IdentTBQ_NtNtCsjTXeTLYUiB9_18tracing_attributes6expand10RecordTypeEEENtNtNtNtBa_4iter6traits8iterator8Iterator9size_hintB1x_, symObjAddr: 0x1500, symBinAddr: 0x33620, symSize: 0x60 }
  - { offset: 0x5CEB0, size: 0x8, addend: 0x0, symName: __RNvXs2E_NtNtCsieiGu2EXtoJ_4core5slice4iterINtB6_4IterTNtNtCsjTXeTLYUiB9_18tracing_attributes4attr5FieldNtNtCsdGrGZaRBwMb_3syn5token5CommaEENtNtNtNtBa_4iter6traits8iterator8Iterator4nextBU_, symObjAddr: 0x1560, symBinAddr: 0x33680, symSize: 0x90 }
  - { offset: 0x5CFD1, size: 0x8, addend: 0x0, symName: __RNvXs2E_NtNtCsieiGu2EXtoJ_4core5slice4iterINtB6_4IterTReNtNtCsdGrGZaRBwMb_3syn2ty8TypePathEENtNtNtNtBa_4iter6traits8iterator8Iterator4nextCsjTXeTLYUiB9_18tracing_attributes, symObjAddr: 0x15F0, symBinAddr: 0x33710, symSize: 0x90 }
  - { offset: 0x5D934, size: 0x8, addend: 0x0, symName: __RNvXs2F_NtNtCsieiGu2EXtoJ_4core5slice4iterINtB6_4IterNtNtCsdGrGZaRBwMb_3syn4stmt4StmtENtNtNtNtBa_4iter6traits12double_ended19DoubleEndedIterator9next_backCsjTXeTLYUiB9_18tracing_attributes, symObjAddr: 0x1680, symBinAddr: 0x337A0, symSize: 0x100 }
  - { offset: 0x5DA83, size: 0x8, addend: 0x0, symName: __RNvXs2F_NtNtCsieiGu2EXtoJ_4core5slice4iterINtB6_4IterTNtCsaKzlTDPUHDb_11proc_macro25IdentNtNtCsdGrGZaRBwMb_3syn5token3DotEENtNtNtNtBa_4iter6traits12double_ended19DoubleEndedIterator9next_backCsjTXeTLYUiB9_18tracing_attributes, symObjAddr: 0x1780, symBinAddr: 0x338A0, symSize: 0x100 }
  - { offset: 0x5DBD2, size: 0x8, addend: 0x0, symName: __RNvXs2F_NtNtCsieiGu2EXtoJ_4core5slice4iterINtB6_4IterTNtNtCsjTXeTLYUiB9_18tracing_attributes4attr5FieldNtNtCsdGrGZaRBwMb_3syn5token5CommaEENtNtNtNtBa_4iter6traits12double_ended19DoubleEndedIterator9next_backBU_, symObjAddr: 0x1880, symBinAddr: 0x339A0, symSize: 0x100 }
  - { offset: 0x5DD27, size: 0x8, addend: 0x0, symName: __RNvXs2M_NtNtCsieiGu2EXtoJ_4core5slice4iterINtB6_7IterMutNtNtCsdGrGZaRBwMb_3syn4attr9AttributeENtNtNtNtBa_4iter6traits8iterator8Iterator4nextCsjTXeTLYUiB9_18tracing_attributes, symObjAddr: 0x1980, symBinAddr: 0x33AA0, symSize: 0x90 }
  - { offset: 0x5DE33, size: 0x8, addend: 0x0, symName: __RNvXs2M_NtNtCsieiGu2EXtoJ_4core5slice4iterINtB6_7IterMutNtNtCsdGrGZaRBwMb_3syn4expr3ArmENtNtNtNtBa_4iter6traits8iterator8Iterator4nextCsjTXeTLYUiB9_18tracing_attributes, symObjAddr: 0x1A10, symBinAddr: 0x33B30, symSize: 0x90 }
  - { offset: 0x5DF3F, size: 0x8, addend: 0x0, symName: __RNvXs2M_NtNtCsieiGu2EXtoJ_4core5slice4iterINtB6_7IterMutNtNtCsdGrGZaRBwMb_3syn4item11ForeignItemENtNtNtNtBa_4iter6traits8iterator8Iterator4nextCsjTXeTLYUiB9_18tracing_attributes, symObjAddr: 0x1AA0, symBinAddr: 0x33BC0, symSize: 0x90 }
  - { offset: 0x5E04B, size: 0x8, addend: 0x0, symName: __RNvXs2M_NtNtCsieiGu2EXtoJ_4core5slice4iterINtB6_7IterMutNtNtCsdGrGZaRBwMb_3syn4item4ItemENtNtNtNtBa_4iter6traits8iterator8Iterator4nextCsjTXeTLYUiB9_18tracing_attributes, symObjAddr: 0x1B30, symBinAddr: 0x33C50, symSize: 0x90 }
  - { offset: 0x5E157, size: 0x8, addend: 0x0, symName: __RNvXs2M_NtNtCsieiGu2EXtoJ_4core5slice4iterINtB6_7IterMutNtNtCsdGrGZaRBwMb_3syn4item8ImplItemENtNtNtNtBa_4iter6traits8iterator8Iterator4nextCsjTXeTLYUiB9_18tracing_attributes, symObjAddr: 0x1BC0, symBinAddr: 0x33CE0, symSize: 0x90 }
  - { offset: 0x5E263, size: 0x8, addend: 0x0, symName: __RNvXs2M_NtNtCsieiGu2EXtoJ_4core5slice4iterINtB6_7IterMutNtNtCsdGrGZaRBwMb_3syn4item9TraitItemENtNtNtNtBa_4iter6traits8iterator8Iterator4nextCsjTXeTLYUiB9_18tracing_attributes, symObjAddr: 0x1C50, symBinAddr: 0x33D70, symSize: 0x90 }
  - { offset: 0x5E36F, size: 0x8, addend: 0x0, symName: __RNvXs2M_NtNtCsieiGu2EXtoJ_4core5slice4iterINtB6_7IterMutNtNtCsdGrGZaRBwMb_3syn4stmt4StmtENtNtNtNtBa_4iter6traits8iterator8Iterator4nextCsjTXeTLYUiB9_18tracing_attributes, symObjAddr: 0x1CE0, symBinAddr: 0x33E00, symSize: 0x90 }
  - { offset: 0x5E47B, size: 0x8, addend: 0x0, symName: __RNvXs2M_NtNtCsieiGu2EXtoJ_4core5slice4iterINtB6_7IterMutTNtNtCsdGrGZaRBwMb_3syn2ty4TypeNtNtBX_5token5CommaEENtNtNtNtBa_4iter6traits8iterator8Iterator4nextCsjTXeTLYUiB9_18tracing_attributes, symObjAddr: 0x1D70, symBinAddr: 0x33E90, symSize: 0x90 }
  - { offset: 0x5E587, size: 0x8, addend: 0x0, symName: __RNvXs2M_NtNtCsieiGu2EXtoJ_4core5slice4iterINtB6_7IterMutTNtNtCsdGrGZaRBwMb_3syn2ty9BareFnArgNtNtBX_5token5CommaEENtNtNtNtBa_4iter6traits8iterator8Iterator4nextCsjTXeTLYUiB9_18tracing_attributes, symObjAddr: 0x1E00, symBinAddr: 0x33F20, symSize: 0x90 }
  - { offset: 0x5E693, size: 0x8, addend: 0x0, symName: __RNvXs2M_NtNtCsieiGu2EXtoJ_4core5slice4iterINtB6_7IterMutTNtNtCsdGrGZaRBwMb_3syn3pat3PatNtNtBX_5token2OrEENtNtNtNtBa_4iter6traits8iterator8Iterator4nextCsjTXeTLYUiB9_18tracing_attributes, symObjAddr: 0x1E90, symBinAddr: 0x33FB0, symSize: 0x90 }
  - { offset: 0x5E79F, size: 0x8, addend: 0x0, symName: __RNvXs2M_NtNtCsieiGu2EXtoJ_4core5slice4iterINtB6_7IterMutTNtNtCsdGrGZaRBwMb_3syn3pat3PatNtNtBX_5token5CommaEENtNtNtNtBa_4iter6traits8iterator8Iterator4nextCsjTXeTLYUiB9_18tracing_attributes, symObjAddr: 0x1F20, symBinAddr: 0x34040, symSize: 0x90 }
  - { offset: 0x5E8AB, size: 0x8, addend: 0x0, symName: __RNvXs2M_NtNtCsieiGu2EXtoJ_4core5slice4iterINtB6_7IterMutTNtNtCsdGrGZaRBwMb_3syn3pat8FieldPatNtNtBX_5token5CommaEENtNtNtNtBa_4iter6traits8iterator8Iterator4nextCsjTXeTLYUiB9_18tracing_attributes, symObjAddr: 0x1FB0, symBinAddr: 0x340D0, symSize: 0x90 }
  - { offset: 0x5E9B7, size: 0x8, addend: 0x0, symName: __RNvXs2M_NtNtCsieiGu2EXtoJ_4core5slice4iterINtB6_7IterMutTNtNtCsdGrGZaRBwMb_3syn4data7VariantNtNtBX_5token5CommaEENtNtNtNtBa_4iter6traits8iterator8Iterator4nextCsjTXeTLYUiB9_18tracing_attributes, symObjAddr: 0x2040, symBinAddr: 0x34160, symSize: 0x90 }
  - { offset: 0x5EAC3, size: 0x8, addend: 0x0, symName: __RNvXs2M_NtNtCsieiGu2EXtoJ_4core5slice4iterINtB6_7IterMutTNtNtCsdGrGZaRBwMb_3syn4expr10FieldValueNtNtBX_5token5CommaEENtNtNtNtBa_4iter6traits8iterator8Iterator4nextCsjTXeTLYUiB9_18tracing_attributes, symObjAddr: 0x20D0, symBinAddr: 0x341F0, symSize: 0x90 }
  - { offset: 0x5EBCF, size: 0x8, addend: 0x0, symName: __RNvXs2M_NtNtCsieiGu2EXtoJ_4core5slice4iterINtB6_7IterMutTNtNtCsdGrGZaRBwMb_3syn4expr4ExprNtNtBX_5token5CommaEENtNtNtNtBa_4iter6traits8iterator8Iterator4nextCsjTXeTLYUiB9_18tracing_attributes, symObjAddr: 0x2160, symBinAddr: 0x34280, symSize: 0x90 }
  - { offset: 0x5ECDB, size: 0x8, addend: 0x0, symName: __RNvXs2M_NtNtCsieiGu2EXtoJ_4core5slice4iterINtB6_7IterMutTNtNtCsdGrGZaRBwMb_3syn4item5FnArgNtNtBX_5token5CommaEENtNtNtNtBa_4iter6traits8iterator8Iterator4nextCsjTXeTLYUiB9_18tracing_attributes, symObjAddr: 0x21F0, symBinAddr: 0x34310, symSize: 0x90 }
  - { offset: 0x5EDE7, size: 0x8, addend: 0x0, symName: __RNvXs2M_NtNtCsieiGu2EXtoJ_4core5slice4iterINtB6_7IterMutTNtNtCsdGrGZaRBwMb_3syn4item7UseTreeNtNtBX_5token5CommaEENtNtNtNtBa_4iter6traits8iterator8Iterator4nextCsjTXeTLYUiB9_18tracing_attributes, symObjAddr: 0x2280, symBinAddr: 0x343A0, symSize: 0x90 }
  - { offset: 0x5EEF3, size: 0x8, addend: 0x0, symName: __RNvXs2M_NtNtCsieiGu2EXtoJ_4core5slice4iterINtB6_7IterMutTNtNtCsdGrGZaRBwMb_3syn4path15GenericArgumentNtNtBX_5token5CommaEENtNtNtNtBa_4iter6traits8iterator8Iterator4nextCsjTXeTLYUiB9_18tracing_attributes, symObjAddr: 0x2310, symBinAddr: 0x34430, symSize: 0x90 }
  - { offset: 0x5EFFF, size: 0x8, addend: 0x0, symName: __RNvXs2M_NtNtCsieiGu2EXtoJ_4core5slice4iterINtB6_7IterMutTNtNtCsdGrGZaRBwMb_3syn8generics13CapturedParamNtNtBX_5token5CommaEENtNtNtNtBa_4iter6traits8iterator8Iterator4nextCsjTXeTLYUiB9_18tracing_attributes, symObjAddr: 0x23A0, symBinAddr: 0x344C0, symSize: 0x90 }
  - { offset: 0x5F10B, size: 0x8, addend: 0x0, symName: __RNvXs2M_NtNtCsieiGu2EXtoJ_4core5slice4iterINtB6_7IterMutTNtNtCsdGrGZaRBwMb_3syn8generics14TypeParamBoundNtNtBX_5token4PlusEENtNtNtNtBa_4iter6traits8iterator8Iterator4nextCsjTXeTLYUiB9_18tracing_attributes, symObjAddr: 0x2430, symBinAddr: 0x34550, symSize: 0x90 }
  - { offset: 0x5F217, size: 0x8, addend: 0x0, symName: __RNvXs2M_NtNtCsieiGu2EXtoJ_4core5slice4iterINtB6_7IterMutTNtNtCsdGrGZaRBwMb_3syn8generics14WherePredicateNtNtBX_5token5CommaEENtNtNtNtBa_4iter6traits8iterator8Iterator4nextCsjTXeTLYUiB9_18tracing_attributes, symObjAddr: 0x24C0, symBinAddr: 0x345E0, symSize: 0x90 }
  - { offset: 0x5F323, size: 0x8, addend: 0x0, symName: __RNvXs2M_NtNtCsieiGu2EXtoJ_4core5slice4iterINtB6_7IterMutTNtNtCsdGrGZaRBwMb_3syn8lifetime8LifetimeNtNtBX_5token4PlusEENtNtNtNtBa_4iter6traits8iterator8Iterator4nextCsjTXeTLYUiB9_18tracing_attributes, symObjAddr: 0x2550, symBinAddr: 0x34670, symSize: 0x90 }
  - { offset: 0x5F42F, size: 0x8, addend: 0x0, symName: __RNvXs2M_NtNtCsieiGu2EXtoJ_4core5slice4iterINtB6_7IterMutTNtNtCsjTXeTLYUiB9_18tracing_attributes4attr5FieldNtNtCsdGrGZaRBwMb_3syn5token5CommaEENtNtNtNtBa_4iter6traits8iterator8Iterator4nextBX_, symObjAddr: 0x25E0, symBinAddr: 0x34700, symSize: 0x90 }
  - { offset: 0x5F541, size: 0x8, addend: 0x0, symName: __RNvXs2N_NtNtCsieiGu2EXtoJ_4core5slice4iterINtB6_7IterMutTNtNtCsjTXeTLYUiB9_18tracing_attributes4attr5FieldNtNtCsdGrGZaRBwMb_3syn5token5CommaEENtNtNtNtBa_4iter6traits12double_ended19DoubleEndedIterator9next_backBX_, symObjAddr: 0x2670, symBinAddr: 0x34790, symSize: 0x100 }
  - { offset: 0x5F696, size: 0x8, addend: 0x0, symName: __RNvXs5_NtNtCsieiGu2EXtoJ_4core5slice4iterINtB5_4IterTNtCsaKzlTDPUHDb_11proc_macro25IdentNtNtCsdGrGZaRBwMb_3syn5token3DotEENtNtB9_5clone5Clone5cloneCsjTXeTLYUiB9_18tracing_attributes, symObjAddr: 0x2770, symBinAddr: 0x34890, symSize: 0x20 }
  - { offset: 0x5F6CB, size: 0x8, addend: 0x0, symName: __RNvXs5_NtNtCsieiGu2EXtoJ_4core5slice4iterINtB5_4IterTNtNtCsjTXeTLYUiB9_18tracing_attributes4attr5FieldNtNtCsdGrGZaRBwMb_3syn5token5CommaEENtNtB9_5clone5Clone5cloneBT_, symObjAddr: 0x2790, symBinAddr: 0x348B0, symSize: 0x20 }
  - { offset: 0x5F933, size: 0x8, addend: 0x0, symName: __RINvYINtNtNtCsieiGu2EXtoJ_4core5slice4iter4IterNtNtCsdGrGZaRBwMb_3syn4stmt4StmtENtNtNtNtBa_4iter6traits12double_ended19DoubleEndedIterator9try_rfolduNCINvNvNtNtB1k_8iterator8Iterator8find_map5checkRBJ_TB39_RNtNtBN_4expr4ExprENCNvMs_NtCsjTXeTLYUiB9_18tracing_attributes6expandNtB3I_9AsyncInfo7from_fns_0E0INtNtNtBa_3ops12control_flow11ControlFlowB3d_EEB3K_, symObjAddr: 0x370, symBinAddr: 0x32490, symSize: 0x180 }
  - { offset: 0x5F9EB, size: 0x8, addend: 0x0, symName: __RINvYINtNtNtCsieiGu2EXtoJ_4core5slice4iter4IterNtNtCsdGrGZaRBwMb_3syn4stmt4StmtENtNtNtNtBa_4iter6traits8iterator8Iterator10filter_mapTRBJ_RNtNtBN_4item6ItemFnENCNvMs_NtCsjTXeTLYUiB9_18tracing_attributes6expandNtB2E_9AsyncInfo7from_fn0EB2G_, symObjAddr: 0x4F0, symBinAddr: 0x32610, symSize: 0x20 }
  - { offset: 0x5FA43, size: 0x8, addend: 0x0, symName: __RINvYINtNtNtCsieiGu2EXtoJ_4core5slice4iter4IterNtNtCsdGrGZaRBwMb_3syn4stmt4StmtENtNtNtNtBa_4iter6traits8iterator8Iterator3mapNtCsaKzlTDPUHDb_11proc_macro211TokenStreamNCNvMs_NtCsjTXeTLYUiB9_18tracing_attributes6expandNtB2M_9AsyncInfo9gen_async0EB2O_, symObjAddr: 0x510, symBinAddr: 0x32630, symSize: 0x20 }
  - { offset: 0x5FA9B, size: 0x8, addend: 0x0, symName: __RINvYINtNtNtCsieiGu2EXtoJ_4core5slice4iter4IterNtNtCsdGrGZaRBwMb_3syn4stmt4StmtENtNtNtNtBa_4iter6traits8iterator8Iterator8try_folduNCINvNtNtB1m_8adapters10filter_map19filter_map_try_foldRBJ_TB2Y_RNtNtBN_4item6ItemFnEuINtNtNtBa_3ops12control_flow11ControlFlowB32_ENCNvMs_NtCsjTXeTLYUiB9_18tracing_attributes6expandNtB4k_9AsyncInfo7from_fn0NCINvNvB1g_4find5checkB32_NCB4f_s0_0E0E0B3t_EB4m_, symObjAddr: 0x530, symBinAddr: 0x32650, symSize: 0x190 }
  - { offset: 0x5FB4E, size: 0x8, addend: 0x0, symName: __RINvYINtNtNtCsieiGu2EXtoJ_4core5slice4iter4IterNtNtCsdGrGZaRBwMb_3syn4stmt4StmtENtNtNtNtBa_4iter6traits8iterator8Iterator8try_folduNCINvNvXs_NtNtB1m_8adapters9enumerateINtB2f_9EnumeratepEB1g_8try_fold9enumerateRBJ_uINtNtNtBa_3ops12control_flow11ControlFlowTjB3m_EENCINvNvB1g_4find5checkB46_NCNvMs_NtCsjTXeTLYUiB9_18tracing_attributes6expandNtB4L_9AsyncInfo9gen_asyncs_0E0E0B3r_EB4N_, symObjAddr: 0x6C0, symBinAddr: 0x327E0, symSize: 0x190 }
  - { offset: 0x5FC01, size: 0x8, addend: 0x0, symName: __RINvYINtNtNtCsieiGu2EXtoJ_4core5slice4iter4IterNtNtCsdGrGZaRBwMb_3syn5error5ErrorENtNtNtNtBa_4iter6traits8iterator8Iterator3mapNtCsaKzlTDPUHDb_11proc_macro211TokenStreamNCNvMNtCsjTXeTLYUiB9_18tracing_attributes4attrNtB2M_14InstrumentArgs8warnings0EB2O_, symObjAddr: 0x850, symBinAddr: 0x32970, symSize: 0x20 }
  - { offset: 0x5FC59, size: 0x8, addend: 0x0, symName: __RINvYINtNtNtCsieiGu2EXtoJ_4core5slice4iter4IterTNtCsaKzlTDPUHDb_11proc_macro25IdentTBK_NtNtCsjTXeTLYUiB9_18tracing_attributes6expand10RecordTypeEEENtNtNtNtBa_4iter6traits8iterator8Iterator3mapRBK_NCNCINvB1p_9gen_blockNtBM_11TokenStreamEs0_0s0_0EB1r_, symObjAddr: 0x870, symBinAddr: 0x32990, symSize: 0x20 }
  - { offset: 0x5FCB1, size: 0x8, addend: 0x0, symName: __RINvYINtNtNtCsieiGu2EXtoJ_4core5slice4iter4IterTNtCsaKzlTDPUHDb_11proc_macro25IdentTBK_NtNtCsjTXeTLYUiB9_18tracing_attributes6expand10RecordTypeEEENtNtNtNtBa_4iter6traits8iterator8Iterator3mapRBK_NCNCINvB1p_9gen_blockNtNtCsdGrGZaRBwMb_3syn4stmt5BlockEs0_0s0_0EB1r_, symObjAddr: 0x890, symBinAddr: 0x329B0, symSize: 0x20 }
  - { offset: 0x5FD09, size: 0x8, addend: 0x0, symName: __RINvYINtNtNtCsieiGu2EXtoJ_4core5slice4iter4IterTNtCsaKzlTDPUHDb_11proc_macro25IdentTBK_NtNtCsjTXeTLYUiB9_18tracing_attributes6expand10RecordTypeEEENtNtNtNtBa_4iter6traits8iterator8Iterator6filterNCNCINvB1p_9gen_blockNtBM_11TokenStreamEs0_0s2_0EB1r_, symObjAddr: 0x8B0, symBinAddr: 0x329D0, symSize: 0x20 }
  - { offset: 0x5FD6D, size: 0x8, addend: 0x0, symName: __RINvYINtNtNtCsieiGu2EXtoJ_4core5slice4iter4IterTNtCsaKzlTDPUHDb_11proc_macro25IdentTBK_NtNtCsjTXeTLYUiB9_18tracing_attributes6expand10RecordTypeEEENtNtNtNtBa_4iter6traits8iterator8Iterator6filterNCNCINvB1p_9gen_blockNtNtCsdGrGZaRBwMb_3syn4stmt5BlockEs0_0s2_0EB1r_, symObjAddr: 0x8D0, symBinAddr: 0x329F0, symSize: 0x20 }
  - { offset: 0x5FDD1, size: 0x8, addend: 0x0, symName: __RINvYINtNtNtCsieiGu2EXtoJ_4core5slice4iter4IterTNtCsaKzlTDPUHDb_11proc_macro25IdentTBK_NtNtCsjTXeTLYUiB9_18tracing_attributes6expand10RecordTypeEEENtNtNtNtBa_4iter6traits8iterator8Iterator8try_folduNCINvNtNtB2r_8adapters3map12map_try_foldRBJ_RBK_uINtNtNtBa_3ops12control_flow11ControlFlowuENCNCINvB1p_9gen_blockNtBM_11TokenStreamEs0_0s0_0NCINvNvB2l_3any5checkB3S_NCB4G_s1_0E0E0B3X_EB1r_, symObjAddr: 0x8F0, symBinAddr: 0x32A10, symSize: 0x100 }
  - { offset: 0x5FE84, size: 0x8, addend: 0x0, symName: __RINvYINtNtNtCsieiGu2EXtoJ_4core5slice4iter4IterTNtCsaKzlTDPUHDb_11proc_macro25IdentTBK_NtNtCsjTXeTLYUiB9_18tracing_attributes6expand10RecordTypeEEENtNtNtNtBa_4iter6traits8iterator8Iterator8try_folduNCINvNtNtB2r_8adapters3map12map_try_foldRBJ_RBK_uINtNtNtBa_3ops12control_flow11ControlFlowuENCNCINvB1p_9gen_blockNtNtCsdGrGZaRBwMb_3syn4stmt5BlockEs0_0s0_0NCINvNvB2l_3any5checkB3S_NCB4G_s1_0E0E0B3X_EB1r_, symObjAddr: 0x9F0, symBinAddr: 0x32B10, symSize: 0x100 }
  - { offset: 0x5FF37, size: 0x8, addend: 0x0, symName: __RNvYINtNtNtCsieiGu2EXtoJ_4core5slice4iter4IterNtNtCsdGrGZaRBwMb_3syn4stmt4StmtENtNtNtNtB9_4iter6traits8iterator8Iterator3revCsjTXeTLYUiB9_18tracing_attributes, symObjAddr: 0x27B0, symBinAddr: 0x348D0, symSize: 0x20 }
  - { offset: 0x5FF6E, size: 0x8, addend: 0x0, symName: __RNvYINtNtNtCsieiGu2EXtoJ_4core5slice4iter4IterNtNtCsdGrGZaRBwMb_3syn4stmt4StmtENtNtNtNtB9_4iter6traits8iterator8Iterator9enumerateCsjTXeTLYUiB9_18tracing_attributes, symObjAddr: 0x27D0, symBinAddr: 0x348F0, symSize: 0x20 }
  - { offset: 0x66BBB, size: 0x8, addend: 0x0, symName: __RNvMs4_NtNtCsieiGu2EXtoJ_4core5slice4iterINtB5_4IterNtCsaKzlTDPUHDb_11proc_macro211TokenStreamE3newCsjTXeTLYUiB9_18tracing_attributes, symObjAddr: 0xAF0, symBinAddr: 0x32C10, symSize: 0x50 }
  - { offset: 0x66D75, size: 0x8, addend: 0x0, symName: __RNvMs4_NtNtCsieiGu2EXtoJ_4core5slice4iterINtB5_4IterNtNtCsdGrGZaRBwMb_3syn4stmt4StmtE3newCsjTXeTLYUiB9_18tracing_attributes, symObjAddr: 0xB40, symBinAddr: 0x32C60, symSize: 0x50 }
  - { offset: 0x66F3C, size: 0x8, addend: 0x0, symName: __RNvMs4_NtNtCsieiGu2EXtoJ_4core5slice4iterINtB5_4IterNtNtCsdGrGZaRBwMb_3syn5error5ErrorE3newCsjTXeTLYUiB9_18tracing_attributes, symObjAddr: 0xB90, symBinAddr: 0x32CB0, symSize: 0x50 }
  - { offset: 0x67103, size: 0x8, addend: 0x0, symName: __RNvMs4_NtNtCsieiGu2EXtoJ_4core5slice4iterINtB5_4IterTNtCsaKzlTDPUHDb_11proc_macro25IdentNtNtCsdGrGZaRBwMb_3syn5token3DotEE3newCsjTXeTLYUiB9_18tracing_attributes, symObjAddr: 0xBE0, symBinAddr: 0x32D00, symSize: 0x50 }
  - { offset: 0x672B0, size: 0x8, addend: 0x0, symName: __RNvMs4_NtNtCsieiGu2EXtoJ_4core5slice4iterINtB5_4IterTNtCsaKzlTDPUHDb_11proc_macro25IdentTBP_NtNtCsjTXeTLYUiB9_18tracing_attributes6expand10RecordTypeEEE3newB1w_, symObjAddr: 0xC30, symBinAddr: 0x32D50, symSize: 0x50 }
  - { offset: 0x67477, size: 0x8, addend: 0x0, symName: __RNvMs4_NtNtCsieiGu2EXtoJ_4core5slice4iterINtB5_4IterTNtNtCsjTXeTLYUiB9_18tracing_attributes4attr5FieldNtNtCsdGrGZaRBwMb_3syn5token5CommaEE3newBT_, symObjAddr: 0xC80, symBinAddr: 0x32DA0, symSize: 0x50 }
  - { offset: 0x6763E, size: 0x8, addend: 0x0, symName: __RNvMsa_NtNtCsieiGu2EXtoJ_4core5slice4iterINtB5_7IterMutTNtNtCsdGrGZaRBwMb_3syn2ty4TypeNtNtBW_5token5CommaEE3newCsjTXeTLYUiB9_18tracing_attributes, symObjAddr: 0xCD0, symBinAddr: 0x32DF0, symSize: 0x50 }
  - { offset: 0x67805, size: 0x8, addend: 0x0, symName: __RNvMsa_NtNtCsieiGu2EXtoJ_4core5slice4iterINtB5_7IterMutTNtNtCsdGrGZaRBwMb_3syn2ty9BareFnArgNtNtBW_5token5CommaEE3newCsjTXeTLYUiB9_18tracing_attributes, symObjAddr: 0xD20, symBinAddr: 0x32E40, symSize: 0x50 }
  - { offset: 0x679CC, size: 0x8, addend: 0x0, symName: __RNvMsa_NtNtCsieiGu2EXtoJ_4core5slice4iterINtB5_7IterMutTNtNtCsdGrGZaRBwMb_3syn3pat3PatNtNtBW_5token2OrEE3newCsjTXeTLYUiB9_18tracing_attributes, symObjAddr: 0xD70, symBinAddr: 0x32E90, symSize: 0x50 }
  - { offset: 0x67B93, size: 0x8, addend: 0x0, symName: __RNvMsa_NtNtCsieiGu2EXtoJ_4core5slice4iterINtB5_7IterMutTNtNtCsdGrGZaRBwMb_3syn3pat3PatNtNtBW_5token5CommaEE3newCsjTXeTLYUiB9_18tracing_attributes, symObjAddr: 0xDC0, symBinAddr: 0x32EE0, symSize: 0x50 }
  - { offset: 0x67D5A, size: 0x8, addend: 0x0, symName: __RNvMsa_NtNtCsieiGu2EXtoJ_4core5slice4iterINtB5_7IterMutTNtNtCsdGrGZaRBwMb_3syn3pat8FieldPatNtNtBW_5token5CommaEE3newCsjTXeTLYUiB9_18tracing_attributes, symObjAddr: 0xE10, symBinAddr: 0x32F30, symSize: 0x50 }
  - { offset: 0x67F21, size: 0x8, addend: 0x0, symName: __RNvMsa_NtNtCsieiGu2EXtoJ_4core5slice4iterINtB5_7IterMutTNtNtCsdGrGZaRBwMb_3syn4data7VariantNtNtBW_5token5CommaEE3newCsjTXeTLYUiB9_18tracing_attributes, symObjAddr: 0xE60, symBinAddr: 0x32F80, symSize: 0x50 }
  - { offset: 0x680E8, size: 0x8, addend: 0x0, symName: __RNvMsa_NtNtCsieiGu2EXtoJ_4core5slice4iterINtB5_7IterMutTNtNtCsdGrGZaRBwMb_3syn4expr10FieldValueNtNtBW_5token5CommaEE3newCsjTXeTLYUiB9_18tracing_attributes, symObjAddr: 0xEB0, symBinAddr: 0x32FD0, symSize: 0x50 }
  - { offset: 0x682AF, size: 0x8, addend: 0x0, symName: __RNvMsa_NtNtCsieiGu2EXtoJ_4core5slice4iterINtB5_7IterMutTNtNtCsdGrGZaRBwMb_3syn4expr4ExprNtNtBW_5token5CommaEE3newCsjTXeTLYUiB9_18tracing_attributes, symObjAddr: 0xF00, symBinAddr: 0x33020, symSize: 0x50 }
  - { offset: 0x68476, size: 0x8, addend: 0x0, symName: __RNvMsa_NtNtCsieiGu2EXtoJ_4core5slice4iterINtB5_7IterMutTNtNtCsdGrGZaRBwMb_3syn4item5FnArgNtNtBW_5token5CommaEE3newCsjTXeTLYUiB9_18tracing_attributes, symObjAddr: 0xF50, symBinAddr: 0x33070, symSize: 0x50 }
  - { offset: 0x6863D, size: 0x8, addend: 0x0, symName: __RNvMsa_NtNtCsieiGu2EXtoJ_4core5slice4iterINtB5_7IterMutTNtNtCsdGrGZaRBwMb_3syn4item7UseTreeNtNtBW_5token5CommaEE3newCsjTXeTLYUiB9_18tracing_attributes, symObjAddr: 0xFA0, symBinAddr: 0x330C0, symSize: 0x50 }
  - { offset: 0x68804, size: 0x8, addend: 0x0, symName: __RNvMsa_NtNtCsieiGu2EXtoJ_4core5slice4iterINtB5_7IterMutTNtNtCsdGrGZaRBwMb_3syn4path15GenericArgumentNtNtBW_5token5CommaEE3newCsjTXeTLYUiB9_18tracing_attributes, symObjAddr: 0xFF0, symBinAddr: 0x33110, symSize: 0x50 }
  - { offset: 0x689CB, size: 0x8, addend: 0x0, symName: __RNvMsa_NtNtCsieiGu2EXtoJ_4core5slice4iterINtB5_7IterMutTNtNtCsdGrGZaRBwMb_3syn8generics13CapturedParamNtNtBW_5token5CommaEE3newCsjTXeTLYUiB9_18tracing_attributes, symObjAddr: 0x1040, symBinAddr: 0x33160, symSize: 0x50 }
  - { offset: 0x68B92, size: 0x8, addend: 0x0, symName: __RNvMsa_NtNtCsieiGu2EXtoJ_4core5slice4iterINtB5_7IterMutTNtNtCsdGrGZaRBwMb_3syn8generics14TypeParamBoundNtNtBW_5token4PlusEE3newCsjTXeTLYUiB9_18tracing_attributes, symObjAddr: 0x1090, symBinAddr: 0x331B0, symSize: 0x50 }
  - { offset: 0x68D59, size: 0x8, addend: 0x0, symName: __RNvMsa_NtNtCsieiGu2EXtoJ_4core5slice4iterINtB5_7IterMutTNtNtCsdGrGZaRBwMb_3syn8generics14WherePredicateNtNtBW_5token5CommaEE3newCsjTXeTLYUiB9_18tracing_attributes, symObjAddr: 0x10E0, symBinAddr: 0x33200, symSize: 0x50 }
  - { offset: 0x68F20, size: 0x8, addend: 0x0, symName: __RNvMsa_NtNtCsieiGu2EXtoJ_4core5slice4iterINtB5_7IterMutTNtNtCsdGrGZaRBwMb_3syn8lifetime8LifetimeNtNtBW_5token4PlusEE3newCsjTXeTLYUiB9_18tracing_attributes, symObjAddr: 0x1130, symBinAddr: 0x33250, symSize: 0x50 }
  - { offset: 0x690A6, size: 0x8, addend: 0x0, symName: __RNvMsa_NtNtCsieiGu2EXtoJ_4core5slice4iterINtB5_7IterMutTNtNtCsjTXeTLYUiB9_18tracing_attributes4attr5FieldNtNtCsdGrGZaRBwMb_3syn5token5CommaEE3newBW_, symObjAddr: 0x1180, symBinAddr: 0x332A0, symSize: 0x50 }
  - { offset: 0x6A6AC, size: 0x8, addend: 0x0, symName: __RINvYINtNtCsdGrGZaRBwMb_3syn10punctuated11PrivateIterNtCsaKzlTDPUHDb_11proc_macro25IdentNtNtB8_5token3DotENtNtNtNtCsieiGu2EXtoJ_4core4iter6traits8iterator8Iterator8try_foldINtNtNtB1O_3num7nonzero7NonZerojENCNvXs_NvB1G_10advance_byB3_NtB3o_13SpecAdvanceBy15spec_advance_by0INtNtB1O_6option6OptionB2K_EECsjTXeTLYUiB9_18tracing_attributes, symObjAddr: 0x0, symBinAddr: 0x34910, symSize: 0x130 }
  - { offset: 0x6B00A, size: 0x8, addend: 0x0, symName: __RNCNCNvXsG_NtCsdGrGZaRBwMb_3syn10punctuatedINtB9_14PrivateIterMutNtNtCsjTXeTLYUiB9_18tracing_attributes4attr5FieldNtNtBb_5token5CommaENtNtNtNtCsieiGu2EXtoJ_4core4iter6traits12double_ended19DoubleEndedIterator9next_back00B15_, symObjAddr: 0x1580, symBinAddr: 0x35E90, symSize: 0x10 }
  - { offset: 0x6B05D, size: 0x8, addend: 0x0, symName: __RNCNvXsG_NtCsdGrGZaRBwMb_3syn10punctuatedINtB7_14PrivateIterMutNtNtCsjTXeTLYUiB9_18tracing_attributes4attr5FieldNtNtB9_5token5CommaENtNtNtNtCsieiGu2EXtoJ_4core4iter6traits12double_ended19DoubleEndedIterator9next_back0B13_, symObjAddr: 0x15E0, symBinAddr: 0x35EF0, symSize: 0x30 }
  - { offset: 0x6B0A0, size: 0x8, addend: 0x0, symName: __RNvXsG_NtCsdGrGZaRBwMb_3syn10punctuatedINtB5_14PrivateIterMutNtNtCsjTXeTLYUiB9_18tracing_attributes4attr5FieldNtNtB7_5token5CommaENtNtNtNtCsieiGu2EXtoJ_4core4iter6traits12double_ended19DoubleEndedIterator9next_backB11_, symObjAddr: 0x66D0, symBinAddr: 0x3AFE0, symSize: 0x40 }
  - { offset: 0x6B0F0, size: 0x8, addend: 0x0, symName: __RNCNCNvXsx_NtCsdGrGZaRBwMb_3syn10punctuatedINtB9_11PrivateIterNtCsaKzlTDPUHDb_11proc_macro25IdentNtNtBb_5token3DotENtNtNtNtCsieiGu2EXtoJ_4core4iter6traits12double_ended19DoubleEndedIterator9next_back00CsjTXeTLYUiB9_18tracing_attributes, symObjAddr: 0x1590, symBinAddr: 0x35EA0, symSize: 0x10 }
  - { offset: 0x6B13B, size: 0x8, addend: 0x0, symName: __RNCNCNvXsx_NtCsdGrGZaRBwMb_3syn10punctuatedINtB9_11PrivateIterNtNtCsjTXeTLYUiB9_18tracing_attributes4attr5FieldNtNtBb_5token5CommaENtNtNtNtCsieiGu2EXtoJ_4core4iter6traits12double_ended19DoubleEndedIterator9next_back00B12_, symObjAddr: 0x15A0, symBinAddr: 0x35EB0, symSize: 0x10 }
  - { offset: 0x6B195, size: 0x8, addend: 0x0, symName: __RNCNvXsx_NtCsdGrGZaRBwMb_3syn10punctuatedINtB7_11PrivateIterNtCsaKzlTDPUHDb_11proc_macro25IdentNtNtB9_5token3DotENtNtNtNtCsieiGu2EXtoJ_4core4iter6traits12double_ended19DoubleEndedIterator9next_back0CsjTXeTLYUiB9_18tracing_attributes, symObjAddr: 0x2130, symBinAddr: 0x36A40, symSize: 0x30 }
  - { offset: 0x6B1D7, size: 0x8, addend: 0x0, symName: __RNCNvXsx_NtCsdGrGZaRBwMb_3syn10punctuatedINtB7_11PrivateIterNtNtCsjTXeTLYUiB9_18tracing_attributes4attr5FieldNtNtB9_5token5CommaENtNtNtNtCsieiGu2EXtoJ_4core4iter6traits12double_ended19DoubleEndedIterator9next_back0B10_, symObjAddr: 0x2160, symBinAddr: 0x36A70, symSize: 0x30 }
  - { offset: 0x6B21A, size: 0x8, addend: 0x0, symName: __RNvXsx_NtCsdGrGZaRBwMb_3syn10punctuatedINtB5_11PrivateIterNtCsaKzlTDPUHDb_11proc_macro25IdentNtNtB7_5token3DotENtNtNtNtCsieiGu2EXtoJ_4core4iter6traits12double_ended19DoubleEndedIterator9next_backCsjTXeTLYUiB9_18tracing_attributes, symObjAddr: 0x77B0, symBinAddr: 0x3C0C0, symSize: 0x40 }
  - { offset: 0x6B25A, size: 0x8, addend: 0x0, symName: __RNvXsx_NtCsdGrGZaRBwMb_3syn10punctuatedINtB5_11PrivateIterNtNtCsjTXeTLYUiB9_18tracing_attributes4attr5FieldNtNtB7_5token5CommaENtNtNtNtCsieiGu2EXtoJ_4core4iter6traits12double_ended19DoubleEndedIterator9next_backBY_, symObjAddr: 0x77F0, symBinAddr: 0x3C100, symSize: 0x40 }
  - { offset: 0x6B2A5, size: 0x8, addend: 0x0, symName: __RNCNvXsF_NtCsdGrGZaRBwMb_3syn10punctuatedINtB7_14PrivateIterMutNtNtCsjTXeTLYUiB9_18tracing_attributes4attr5FieldNtNtB9_5token5CommaENtNtNtNtCsieiGu2EXtoJ_4core4iter6traits8iterator8Iterator4next0B13_, symObjAddr: 0x15B0, symBinAddr: 0x35EC0, symSize: 0x10 }
  - { offset: 0x6B2F0, size: 0x8, addend: 0x0, symName: __RNCNvXsF_NtCsdGrGZaRBwMb_3syn10punctuatedINtB7_14PrivateIterMutNtNtCsjTXeTLYUiB9_18tracing_attributes4attr5FieldNtNtB9_5token5CommaENtNtNtNtCsieiGu2EXtoJ_4core4iter6traits8iterator8Iterator4nexts_0B13_, symObjAddr: 0x15C0, symBinAddr: 0x35ED0, symSize: 0x20 }
  - { offset: 0x6B33A, size: 0x8, addend: 0x0, symName: __RNvXsF_NtCsdGrGZaRBwMb_3syn10punctuatedINtB5_14PrivateIterMutNtNtCsjTXeTLYUiB9_18tracing_attributes4attr5FieldNtNtB7_5token5CommaENtNtNtNtCsieiGu2EXtoJ_4core4iter6traits8iterator8Iterator4nextB11_, symObjAddr: 0x6690, symBinAddr: 0x3AFA0, symSize: 0x40 }
  - { offset: 0x6B385, size: 0x8, addend: 0x0, symName: __RNCNvXsc_NtCsdGrGZaRBwMb_3syn10punctuatedINtB7_5PairsNtCsaKzlTDPUHDb_11proc_macro25IdentNtNtB9_5token3DotENtNtNtNtCsieiGu2EXtoJ_4core4iter6traits8iterator8Iterator4next0CsjTXeTLYUiB9_18tracing_attributes, symObjAddr: 0x1610, symBinAddr: 0x35F20, symSize: 0x30 }
  - { offset: 0x6B3FA, size: 0x8, addend: 0x0, symName: __RNCNvXsc_NtCsdGrGZaRBwMb_3syn10punctuatedINtB7_5PairsNtCsaKzlTDPUHDb_11proc_macro25IdentNtNtB9_5token3DotENtNtNtNtCsieiGu2EXtoJ_4core4iter6traits8iterator8Iterator4nexts_0CsjTXeTLYUiB9_18tracing_attributes, symObjAddr: 0x1640, symBinAddr: 0x35F50, symSize: 0x50 }
  - { offset: 0x6B43C, size: 0x8, addend: 0x0, symName: __RNCNvXsc_NtCsdGrGZaRBwMb_3syn10punctuatedINtB7_5PairsNtNtCsjTXeTLYUiB9_18tracing_attributes4attr5FieldNtNtB9_5token5CommaENtNtNtNtCsieiGu2EXtoJ_4core4iter6traits8iterator8Iterator4next0BT_, symObjAddr: 0x1690, symBinAddr: 0x35FA0, symSize: 0x40 }
  - { offset: 0x6B4B1, size: 0x8, addend: 0x0, symName: __RNCNvXsc_NtCsdGrGZaRBwMb_3syn10punctuatedINtB7_5PairsNtNtCsjTXeTLYUiB9_18tracing_attributes4attr5FieldNtNtB9_5token5CommaENtNtNtNtCsieiGu2EXtoJ_4core4iter6traits8iterator8Iterator4nexts_0BT_, symObjAddr: 0x16D0, symBinAddr: 0x35FE0, symSize: 0x50 }
  - { offset: 0x6B502, size: 0x8, addend: 0x0, symName: __RNvXsc_NtCsdGrGZaRBwMb_3syn10punctuatedINtB5_5PairsNtCsaKzlTDPUHDb_11proc_macro25IdentNtNtB7_5token3DotENtNtNtNtCsieiGu2EXtoJ_4core4iter6traits8iterator8Iterator4nextCsjTXeTLYUiB9_18tracing_attributes, symObjAddr: 0x6CE0, symBinAddr: 0x3B5F0, symSize: 0x60 }
  - { offset: 0x6B542, size: 0x8, addend: 0x0, symName: __RNvXsc_NtCsdGrGZaRBwMb_3syn10punctuatedINtB5_5PairsNtNtCsjTXeTLYUiB9_18tracing_attributes4attr5FieldNtNtB7_5token5CommaENtNtNtNtCsieiGu2EXtoJ_4core4iter6traits8iterator8Iterator4nextBR_, symObjAddr: 0x6D40, symBinAddr: 0x3B650, symSize: 0x60 }
  - { offset: 0x6B58D, size: 0x8, addend: 0x0, symName: __RNCNvXsg_NtCsdGrGZaRBwMb_3syn10punctuatedINtB7_8PairsMutNtNtB9_2ty4TypeNtNtB9_5token5CommaENtNtNtNtCsieiGu2EXtoJ_4core4iter6traits8iterator8Iterator4next0CsjTXeTLYUiB9_18tracing_attributes, symObjAddr: 0x1720, symBinAddr: 0x36030, symSize: 0x40 }
  - { offset: 0x6B602, size: 0x8, addend: 0x0, symName: __RNCNvXsg_NtCsdGrGZaRBwMb_3syn10punctuatedINtB7_8PairsMutNtNtB9_2ty4TypeNtNtB9_5token5CommaENtNtNtNtCsieiGu2EXtoJ_4core4iter6traits8iterator8Iterator4nexts_0CsjTXeTLYUiB9_18tracing_attributes, symObjAddr: 0x1760, symBinAddr: 0x36070, symSize: 0x50 }
  - { offset: 0x6B644, size: 0x8, addend: 0x0, symName: __RNCNvXsg_NtCsdGrGZaRBwMb_3syn10punctuatedINtB7_8PairsMutNtNtB9_2ty9BareFnArgNtNtB9_5token5CommaENtNtNtNtCsieiGu2EXtoJ_4core4iter6traits8iterator8Iterator4next0CsjTXeTLYUiB9_18tracing_attributes, symObjAddr: 0x17B0, symBinAddr: 0x360C0, symSize: 0x40 }
  - { offset: 0x6B6B9, size: 0x8, addend: 0x0, symName: __RNCNvXsg_NtCsdGrGZaRBwMb_3syn10punctuatedINtB7_8PairsMutNtNtB9_2ty9BareFnArgNtNtB9_5token5CommaENtNtNtNtCsieiGu2EXtoJ_4core4iter6traits8iterator8Iterator4nexts_0CsjTXeTLYUiB9_18tracing_attributes, symObjAddr: 0x17F0, symBinAddr: 0x36100, symSize: 0x50 }
  - { offset: 0x6B6FB, size: 0x8, addend: 0x0, symName: __RNCNvXsg_NtCsdGrGZaRBwMb_3syn10punctuatedINtB7_8PairsMutNtNtB9_3pat3PatNtNtB9_5token2OrENtNtNtNtCsieiGu2EXtoJ_4core4iter6traits8iterator8Iterator4next0CsjTXeTLYUiB9_18tracing_attributes, symObjAddr: 0x1840, symBinAddr: 0x36150, symSize: 0x40 }
  - { offset: 0x6B770, size: 0x8, addend: 0x0, symName: __RNCNvXsg_NtCsdGrGZaRBwMb_3syn10punctuatedINtB7_8PairsMutNtNtB9_3pat3PatNtNtB9_5token2OrENtNtNtNtCsieiGu2EXtoJ_4core4iter6traits8iterator8Iterator4nexts_0CsjTXeTLYUiB9_18tracing_attributes, symObjAddr: 0x1880, symBinAddr: 0x36190, symSize: 0x50 }
  - { offset: 0x6B7B2, size: 0x8, addend: 0x0, symName: __RNCNvXsg_NtCsdGrGZaRBwMb_3syn10punctuatedINtB7_8PairsMutNtNtB9_3pat3PatNtNtB9_5token5CommaENtNtNtNtCsieiGu2EXtoJ_4core4iter6traits8iterator8Iterator4next0CsjTXeTLYUiB9_18tracing_attributes, symObjAddr: 0x18D0, symBinAddr: 0x361E0, symSize: 0x40 }
  - { offset: 0x6B827, size: 0x8, addend: 0x0, symName: __RNCNvXsg_NtCsdGrGZaRBwMb_3syn10punctuatedINtB7_8PairsMutNtNtB9_3pat3PatNtNtB9_5token5CommaENtNtNtNtCsieiGu2EXtoJ_4core4iter6traits8iterator8Iterator4nexts_0CsjTXeTLYUiB9_18tracing_attributes, symObjAddr: 0x1910, symBinAddr: 0x36220, symSize: 0x50 }
  - { offset: 0x6B869, size: 0x8, addend: 0x0, symName: __RNCNvXsg_NtCsdGrGZaRBwMb_3syn10punctuatedINtB7_8PairsMutNtNtB9_3pat8FieldPatNtNtB9_5token5CommaENtNtNtNtCsieiGu2EXtoJ_4core4iter6traits8iterator8Iterator4next0CsjTXeTLYUiB9_18tracing_attributes, symObjAddr: 0x1960, symBinAddr: 0x36270, symSize: 0x30 }
  - { offset: 0x6B8DE, size: 0x8, addend: 0x0, symName: __RNCNvXsg_NtCsdGrGZaRBwMb_3syn10punctuatedINtB7_8PairsMutNtNtB9_3pat8FieldPatNtNtB9_5token5CommaENtNtNtNtCsieiGu2EXtoJ_4core4iter6traits8iterator8Iterator4nexts_0CsjTXeTLYUiB9_18tracing_attributes, symObjAddr: 0x1990, symBinAddr: 0x362A0, symSize: 0x50 }
  - { offset: 0x6B920, size: 0x8, addend: 0x0, symName: __RNCNvXsg_NtCsdGrGZaRBwMb_3syn10punctuatedINtB7_8PairsMutNtNtB9_4data5FieldNtNtB9_5token5CommaENtNtNtNtCsieiGu2EXtoJ_4core4iter6traits8iterator8Iterator4next0CsjTXeTLYUiB9_18tracing_attributes, symObjAddr: 0x19E0, symBinAddr: 0x362F0, symSize: 0x40 }
  - { offset: 0x6B995, size: 0x8, addend: 0x0, symName: __RNCNvXsg_NtCsdGrGZaRBwMb_3syn10punctuatedINtB7_8PairsMutNtNtB9_4data5FieldNtNtB9_5token5CommaENtNtNtNtCsieiGu2EXtoJ_4core4iter6traits8iterator8Iterator4nexts_0CsjTXeTLYUiB9_18tracing_attributes, symObjAddr: 0x1A20, symBinAddr: 0x36330, symSize: 0x50 }
  - { offset: 0x6B9D7, size: 0x8, addend: 0x0, symName: __RNCNvXsg_NtCsdGrGZaRBwMb_3syn10punctuatedINtB7_8PairsMutNtNtB9_4data7VariantNtNtB9_5token5CommaENtNtNtNtCsieiGu2EXtoJ_4core4iter6traits8iterator8Iterator4next0CsjTXeTLYUiB9_18tracing_attributes, symObjAddr: 0x1A70, symBinAddr: 0x36380, symSize: 0x40 }
  - { offset: 0x6BA4C, size: 0x8, addend: 0x0, symName: __RNCNvXsg_NtCsdGrGZaRBwMb_3syn10punctuatedINtB7_8PairsMutNtNtB9_4data7VariantNtNtB9_5token5CommaENtNtNtNtCsieiGu2EXtoJ_4core4iter6traits8iterator8Iterator4nexts_0CsjTXeTLYUiB9_18tracing_attributes, symObjAddr: 0x1AB0, symBinAddr: 0x363C0, symSize: 0x50 }
  - { offset: 0x6BA8E, size: 0x8, addend: 0x0, symName: __RNCNvXsg_NtCsdGrGZaRBwMb_3syn10punctuatedINtB7_8PairsMutNtNtB9_4expr10FieldValueNtNtB9_5token5CommaENtNtNtNtCsieiGu2EXtoJ_4core4iter6traits8iterator8Iterator4next0CsjTXeTLYUiB9_18tracing_attributes, symObjAddr: 0x1B00, symBinAddr: 0x36410, symSize: 0x40 }
  - { offset: 0x6BB03, size: 0x8, addend: 0x0, symName: __RNCNvXsg_NtCsdGrGZaRBwMb_3syn10punctuatedINtB7_8PairsMutNtNtB9_4expr10FieldValueNtNtB9_5token5CommaENtNtNtNtCsieiGu2EXtoJ_4core4iter6traits8iterator8Iterator4nexts_0CsjTXeTLYUiB9_18tracing_attributes, symObjAddr: 0x1B40, symBinAddr: 0x36450, symSize: 0x50 }
  - { offset: 0x6BB45, size: 0x8, addend: 0x0, symName: __RNCNvXsg_NtCsdGrGZaRBwMb_3syn10punctuatedINtB7_8PairsMutNtNtB9_4expr4ExprNtNtB9_5token5CommaENtNtNtNtCsieiGu2EXtoJ_4core4iter6traits8iterator8Iterator4next0CsjTXeTLYUiB9_18tracing_attributes, symObjAddr: 0x1B90, symBinAddr: 0x364A0, symSize: 0x40 }
  - { offset: 0x6BBBA, size: 0x8, addend: 0x0, symName: __RNCNvXsg_NtCsdGrGZaRBwMb_3syn10punctuatedINtB7_8PairsMutNtNtB9_4expr4ExprNtNtB9_5token5CommaENtNtNtNtCsieiGu2EXtoJ_4core4iter6traits8iterator8Iterator4nexts_0CsjTXeTLYUiB9_18tracing_attributes, symObjAddr: 0x1BD0, symBinAddr: 0x364E0, symSize: 0x50 }
  - { offset: 0x6BBFC, size: 0x8, addend: 0x0, symName: __RNCNvXsg_NtCsdGrGZaRBwMb_3syn10punctuatedINtB7_8PairsMutNtNtB9_4item5FnArgNtNtB9_5token5CommaENtNtNtNtCsieiGu2EXtoJ_4core4iter6traits8iterator8Iterator4next0CsjTXeTLYUiB9_18tracing_attributes, symObjAddr: 0x1C20, symBinAddr: 0x36530, symSize: 0x30 }
  - { offset: 0x6BC71, size: 0x8, addend: 0x0, symName: __RNCNvXsg_NtCsdGrGZaRBwMb_3syn10punctuatedINtB7_8PairsMutNtNtB9_4item5FnArgNtNtB9_5token5CommaENtNtNtNtCsieiGu2EXtoJ_4core4iter6traits8iterator8Iterator4nexts_0CsjTXeTLYUiB9_18tracing_attributes, symObjAddr: 0x1C50, symBinAddr: 0x36560, symSize: 0x50 }
  - { offset: 0x6BCB3, size: 0x8, addend: 0x0, symName: __RNCNvXsg_NtCsdGrGZaRBwMb_3syn10punctuatedINtB7_8PairsMutNtNtB9_4item7UseTreeNtNtB9_5token5CommaENtNtNtNtCsieiGu2EXtoJ_4core4iter6traits8iterator8Iterator4next0CsjTXeTLYUiB9_18tracing_attributes, symObjAddr: 0x1CA0, symBinAddr: 0x365B0, symSize: 0x30 }
  - { offset: 0x6BD28, size: 0x8, addend: 0x0, symName: __RNCNvXsg_NtCsdGrGZaRBwMb_3syn10punctuatedINtB7_8PairsMutNtNtB9_4item7UseTreeNtNtB9_5token5CommaENtNtNtNtCsieiGu2EXtoJ_4core4iter6traits8iterator8Iterator4nexts_0CsjTXeTLYUiB9_18tracing_attributes, symObjAddr: 0x1CD0, symBinAddr: 0x365E0, symSize: 0x50 }
  - { offset: 0x6BD6A, size: 0x8, addend: 0x0, symName: __RNCNvXsg_NtCsdGrGZaRBwMb_3syn10punctuatedINtB7_8PairsMutNtNtB9_4path11PathSegmentNtNtB9_5token7PathSepENtNtNtNtCsieiGu2EXtoJ_4core4iter6traits8iterator8Iterator4next0CsjTXeTLYUiB9_18tracing_attributes, symObjAddr: 0x1D20, symBinAddr: 0x36630, symSize: 0x30 }
  - { offset: 0x6BDDF, size: 0x8, addend: 0x0, symName: __RNCNvXsg_NtCsdGrGZaRBwMb_3syn10punctuatedINtB7_8PairsMutNtNtB9_4path11PathSegmentNtNtB9_5token7PathSepENtNtNtNtCsieiGu2EXtoJ_4core4iter6traits8iterator8Iterator4nexts_0CsjTXeTLYUiB9_18tracing_attributes, symObjAddr: 0x1D50, symBinAddr: 0x36660, symSize: 0x50 }
  - { offset: 0x6BE21, size: 0x8, addend: 0x0, symName: __RNCNvXsg_NtCsdGrGZaRBwMb_3syn10punctuatedINtB7_8PairsMutNtNtB9_4path15GenericArgumentNtNtB9_5token5CommaENtNtNtNtCsieiGu2EXtoJ_4core4iter6traits8iterator8Iterator4next0CsjTXeTLYUiB9_18tracing_attributes, symObjAddr: 0x1DA0, symBinAddr: 0x366B0, symSize: 0x40 }
  - { offset: 0x6BE96, size: 0x8, addend: 0x0, symName: __RNCNvXsg_NtCsdGrGZaRBwMb_3syn10punctuatedINtB7_8PairsMutNtNtB9_4path15GenericArgumentNtNtB9_5token5CommaENtNtNtNtCsieiGu2EXtoJ_4core4iter6traits8iterator8Iterator4nexts_0CsjTXeTLYUiB9_18tracing_attributes, symObjAddr: 0x1DE0, symBinAddr: 0x366F0, symSize: 0x50 }
  - { offset: 0x6BED8, size: 0x8, addend: 0x0, symName: __RNCNvXsg_NtCsdGrGZaRBwMb_3syn10punctuatedINtB7_8PairsMutNtNtB9_8generics12GenericParamNtNtB9_5token5CommaENtNtNtNtCsieiGu2EXtoJ_4core4iter6traits8iterator8Iterator4next0CsjTXeTLYUiB9_18tracing_attributes, symObjAddr: 0x1E30, symBinAddr: 0x36740, symSize: 0x40 }
  - { offset: 0x6BF4D, size: 0x8, addend: 0x0, symName: __RNCNvXsg_NtCsdGrGZaRBwMb_3syn10punctuatedINtB7_8PairsMutNtNtB9_8generics12GenericParamNtNtB9_5token5CommaENtNtNtNtCsieiGu2EXtoJ_4core4iter6traits8iterator8Iterator4nexts_0CsjTXeTLYUiB9_18tracing_attributes, symObjAddr: 0x1E70, symBinAddr: 0x36780, symSize: 0x50 }
  - { offset: 0x6BF8F, size: 0x8, addend: 0x0, symName: __RNCNvXsg_NtCsdGrGZaRBwMb_3syn10punctuatedINtB7_8PairsMutNtNtB9_8generics13CapturedParamNtNtB9_5token5CommaENtNtNtNtCsieiGu2EXtoJ_4core4iter6traits8iterator8Iterator4next0CsjTXeTLYUiB9_18tracing_attributes, symObjAddr: 0x1EC0, symBinAddr: 0x367D0, symSize: 0x30 }
  - { offset: 0x6C004, size: 0x8, addend: 0x0, symName: __RNCNvXsg_NtCsdGrGZaRBwMb_3syn10punctuatedINtB7_8PairsMutNtNtB9_8generics13CapturedParamNtNtB9_5token5CommaENtNtNtNtCsieiGu2EXtoJ_4core4iter6traits8iterator8Iterator4nexts_0CsjTXeTLYUiB9_18tracing_attributes, symObjAddr: 0x1EF0, symBinAddr: 0x36800, symSize: 0x50 }
  - { offset: 0x6C046, size: 0x8, addend: 0x0, symName: __RNCNvXsg_NtCsdGrGZaRBwMb_3syn10punctuatedINtB7_8PairsMutNtNtB9_8generics14TypeParamBoundNtNtB9_5token4PlusENtNtNtNtCsieiGu2EXtoJ_4core4iter6traits8iterator8Iterator4next0CsjTXeTLYUiB9_18tracing_attributes, symObjAddr: 0x1F40, symBinAddr: 0x36850, symSize: 0x30 }
  - { offset: 0x6C0BB, size: 0x8, addend: 0x0, symName: __RNCNvXsg_NtCsdGrGZaRBwMb_3syn10punctuatedINtB7_8PairsMutNtNtB9_8generics14TypeParamBoundNtNtB9_5token4PlusENtNtNtNtCsieiGu2EXtoJ_4core4iter6traits8iterator8Iterator4nexts_0CsjTXeTLYUiB9_18tracing_attributes, symObjAddr: 0x1F70, symBinAddr: 0x36880, symSize: 0x50 }
  - { offset: 0x6C0FD, size: 0x8, addend: 0x0, symName: __RNCNvXsg_NtCsdGrGZaRBwMb_3syn10punctuatedINtB7_8PairsMutNtNtB9_8generics14WherePredicateNtNtB9_5token5CommaENtNtNtNtCsieiGu2EXtoJ_4core4iter6traits8iterator8Iterator4next0CsjTXeTLYUiB9_18tracing_attributes, symObjAddr: 0x1FC0, symBinAddr: 0x368D0, symSize: 0x40 }
  - { offset: 0x6C172, size: 0x8, addend: 0x0, symName: __RNCNvXsg_NtCsdGrGZaRBwMb_3syn10punctuatedINtB7_8PairsMutNtNtB9_8generics14WherePredicateNtNtB9_5token5CommaENtNtNtNtCsieiGu2EXtoJ_4core4iter6traits8iterator8Iterator4nexts_0CsjTXeTLYUiB9_18tracing_attributes, symObjAddr: 0x2000, symBinAddr: 0x36910, symSize: 0x50 }
  - { offset: 0x6C1B4, size: 0x8, addend: 0x0, symName: __RNCNvXsg_NtCsdGrGZaRBwMb_3syn10punctuatedINtB7_8PairsMutNtNtB9_8lifetime8LifetimeNtNtB9_5token4PlusENtNtNtNtCsieiGu2EXtoJ_4core4iter6traits8iterator8Iterator4next0CsjTXeTLYUiB9_18tracing_attributes, symObjAddr: 0x2050, symBinAddr: 0x36960, symSize: 0x30 }
  - { offset: 0x6C229, size: 0x8, addend: 0x0, symName: __RNCNvXsg_NtCsdGrGZaRBwMb_3syn10punctuatedINtB7_8PairsMutNtNtB9_8lifetime8LifetimeNtNtB9_5token4PlusENtNtNtNtCsieiGu2EXtoJ_4core4iter6traits8iterator8Iterator4nexts_0CsjTXeTLYUiB9_18tracing_attributes, symObjAddr: 0x2080, symBinAddr: 0x36990, symSize: 0x50 }
  - { offset: 0x6C2EA, size: 0x8, addend: 0x0, symName: __RNvXsg_NtCsdGrGZaRBwMb_3syn10punctuatedINtB5_8PairsMutNtNtB7_2ty4TypeNtNtB7_5token5CommaENtNtNtNtCsieiGu2EXtoJ_4core4iter6traits8iterator8Iterator4nextCsjTXeTLYUiB9_18tracing_attributes, symObjAddr: 0x6DA0, symBinAddr: 0x3B6B0, symSize: 0x60 }
  - { offset: 0x6C32A, size: 0x8, addend: 0x0, symName: __RNvXsg_NtCsdGrGZaRBwMb_3syn10punctuatedINtB5_8PairsMutNtNtB7_2ty9BareFnArgNtNtB7_5token5CommaENtNtNtNtCsieiGu2EXtoJ_4core4iter6traits8iterator8Iterator4nextCsjTXeTLYUiB9_18tracing_attributes, symObjAddr: 0x6E00, symBinAddr: 0x3B710, symSize: 0x60 }
  - { offset: 0x6C36A, size: 0x8, addend: 0x0, symName: __RNvXsg_NtCsdGrGZaRBwMb_3syn10punctuatedINtB5_8PairsMutNtNtB7_3pat3PatNtNtB7_5token2OrENtNtNtNtCsieiGu2EXtoJ_4core4iter6traits8iterator8Iterator4nextCsjTXeTLYUiB9_18tracing_attributes, symObjAddr: 0x6E60, symBinAddr: 0x3B770, symSize: 0x60 }
  - { offset: 0x6C3AA, size: 0x8, addend: 0x0, symName: __RNvXsg_NtCsdGrGZaRBwMb_3syn10punctuatedINtB5_8PairsMutNtNtB7_3pat3PatNtNtB7_5token5CommaENtNtNtNtCsieiGu2EXtoJ_4core4iter6traits8iterator8Iterator4nextCsjTXeTLYUiB9_18tracing_attributes, symObjAddr: 0x6EC0, symBinAddr: 0x3B7D0, symSize: 0x60 }
  - { offset: 0x6C3EA, size: 0x8, addend: 0x0, symName: __RNvXsg_NtCsdGrGZaRBwMb_3syn10punctuatedINtB5_8PairsMutNtNtB7_3pat8FieldPatNtNtB7_5token5CommaENtNtNtNtCsieiGu2EXtoJ_4core4iter6traits8iterator8Iterator4nextCsjTXeTLYUiB9_18tracing_attributes, symObjAddr: 0x6F20, symBinAddr: 0x3B830, symSize: 0x60 }
  - { offset: 0x6C42A, size: 0x8, addend: 0x0, symName: __RNvXsg_NtCsdGrGZaRBwMb_3syn10punctuatedINtB5_8PairsMutNtNtB7_4data5FieldNtNtB7_5token5CommaENtNtNtNtCsieiGu2EXtoJ_4core4iter6traits8iterator8Iterator4nextCsjTXeTLYUiB9_18tracing_attributes, symObjAddr: 0x6F80, symBinAddr: 0x3B890, symSize: 0x60 }
  - { offset: 0x6C46A, size: 0x8, addend: 0x0, symName: __RNvXsg_NtCsdGrGZaRBwMb_3syn10punctuatedINtB5_8PairsMutNtNtB7_4data7VariantNtNtB7_5token5CommaENtNtNtNtCsieiGu2EXtoJ_4core4iter6traits8iterator8Iterator4nextCsjTXeTLYUiB9_18tracing_attributes, symObjAddr: 0x6FE0, symBinAddr: 0x3B8F0, symSize: 0x60 }
  - { offset: 0x6C4AA, size: 0x8, addend: 0x0, symName: __RNvXsg_NtCsdGrGZaRBwMb_3syn10punctuatedINtB5_8PairsMutNtNtB7_4expr10FieldValueNtNtB7_5token5CommaENtNtNtNtCsieiGu2EXtoJ_4core4iter6traits8iterator8Iterator4nextCsjTXeTLYUiB9_18tracing_attributes, symObjAddr: 0x7040, symBinAddr: 0x3B950, symSize: 0x60 }
  - { offset: 0x6C4EA, size: 0x8, addend: 0x0, symName: __RNvXsg_NtCsdGrGZaRBwMb_3syn10punctuatedINtB5_8PairsMutNtNtB7_4expr4ExprNtNtB7_5token5CommaENtNtNtNtCsieiGu2EXtoJ_4core4iter6traits8iterator8Iterator4nextCsjTXeTLYUiB9_18tracing_attributes, symObjAddr: 0x70A0, symBinAddr: 0x3B9B0, symSize: 0x60 }
  - { offset: 0x6C52A, size: 0x8, addend: 0x0, symName: __RNvXsg_NtCsdGrGZaRBwMb_3syn10punctuatedINtB5_8PairsMutNtNtB7_4item5FnArgNtNtB7_5token5CommaENtNtNtNtCsieiGu2EXtoJ_4core4iter6traits8iterator8Iterator4nextCsjTXeTLYUiB9_18tracing_attributes, symObjAddr: 0x7100, symBinAddr: 0x3BA10, symSize: 0x60 }
  - { offset: 0x6C56A, size: 0x8, addend: 0x0, symName: __RNvXsg_NtCsdGrGZaRBwMb_3syn10punctuatedINtB5_8PairsMutNtNtB7_4item7UseTreeNtNtB7_5token5CommaENtNtNtNtCsieiGu2EXtoJ_4core4iter6traits8iterator8Iterator4nextCsjTXeTLYUiB9_18tracing_attributes, symObjAddr: 0x7160, symBinAddr: 0x3BA70, symSize: 0x60 }
  - { offset: 0x6C5AA, size: 0x8, addend: 0x0, symName: __RNvXsg_NtCsdGrGZaRBwMb_3syn10punctuatedINtB5_8PairsMutNtNtB7_4path11PathSegmentNtNtB7_5token7PathSepENtNtNtNtCsieiGu2EXtoJ_4core4iter6traits8iterator8Iterator4nextCsjTXeTLYUiB9_18tracing_attributes, symObjAddr: 0x71C0, symBinAddr: 0x3BAD0, symSize: 0x60 }
  - { offset: 0x6C5EA, size: 0x8, addend: 0x0, symName: __RNvXsg_NtCsdGrGZaRBwMb_3syn10punctuatedINtB5_8PairsMutNtNtB7_4path15GenericArgumentNtNtB7_5token5CommaENtNtNtNtCsieiGu2EXtoJ_4core4iter6traits8iterator8Iterator4nextCsjTXeTLYUiB9_18tracing_attributes, symObjAddr: 0x7220, symBinAddr: 0x3BB30, symSize: 0x60 }
  - { offset: 0x6C62A, size: 0x8, addend: 0x0, symName: __RNvXsg_NtCsdGrGZaRBwMb_3syn10punctuatedINtB5_8PairsMutNtNtB7_8generics12GenericParamNtNtB7_5token5CommaENtNtNtNtCsieiGu2EXtoJ_4core4iter6traits8iterator8Iterator4nextCsjTXeTLYUiB9_18tracing_attributes, symObjAddr: 0x7280, symBinAddr: 0x3BB90, symSize: 0x60 }
  - { offset: 0x6C66A, size: 0x8, addend: 0x0, symName: __RNvXsg_NtCsdGrGZaRBwMb_3syn10punctuatedINtB5_8PairsMutNtNtB7_8generics13CapturedParamNtNtB7_5token5CommaENtNtNtNtCsieiGu2EXtoJ_4core4iter6traits8iterator8Iterator4nextCsjTXeTLYUiB9_18tracing_attributes, symObjAddr: 0x72E0, symBinAddr: 0x3BBF0, symSize: 0x60 }
  - { offset: 0x6C6AA, size: 0x8, addend: 0x0, symName: __RNvXsg_NtCsdGrGZaRBwMb_3syn10punctuatedINtB5_8PairsMutNtNtB7_8generics14TypeParamBoundNtNtB7_5token4PlusENtNtNtNtCsieiGu2EXtoJ_4core4iter6traits8iterator8Iterator4nextCsjTXeTLYUiB9_18tracing_attributes, symObjAddr: 0x7340, symBinAddr: 0x3BC50, symSize: 0x60 }
  - { offset: 0x6C6EA, size: 0x8, addend: 0x0, symName: __RNvXsg_NtCsdGrGZaRBwMb_3syn10punctuatedINtB5_8PairsMutNtNtB7_8generics14WherePredicateNtNtB7_5token5CommaENtNtNtNtCsieiGu2EXtoJ_4core4iter6traits8iterator8Iterator4nextCsjTXeTLYUiB9_18tracing_attributes, symObjAddr: 0x73A0, symBinAddr: 0x3BCB0, symSize: 0x60 }
  - { offset: 0x6C72A, size: 0x8, addend: 0x0, symName: __RNvXsg_NtCsdGrGZaRBwMb_3syn10punctuatedINtB5_8PairsMutNtNtB7_8lifetime8LifetimeNtNtB7_5token4PlusENtNtNtNtCsieiGu2EXtoJ_4core4iter6traits8iterator8Iterator4nextCsjTXeTLYUiB9_18tracing_attributes, symObjAddr: 0x7400, symBinAddr: 0x3BD10, symSize: 0x60 }
  - { offset: 0x6C775, size: 0x8, addend: 0x0, symName: __RNCNvXsw_NtCsdGrGZaRBwMb_3syn10punctuatedINtB7_11PrivateIterNtCsaKzlTDPUHDb_11proc_macro25IdentNtNtB9_5token3DotENtNtNtNtCsieiGu2EXtoJ_4core4iter6traits8iterator8Iterator4next0CsjTXeTLYUiB9_18tracing_attributes, symObjAddr: 0x20D0, symBinAddr: 0x369E0, symSize: 0x10 }
  - { offset: 0x6C7C0, size: 0x8, addend: 0x0, symName: __RNCNvXsw_NtCsdGrGZaRBwMb_3syn10punctuatedINtB7_11PrivateIterNtCsaKzlTDPUHDb_11proc_macro25IdentNtNtB9_5token3DotENtNtNtNtCsieiGu2EXtoJ_4core4iter6traits8iterator8Iterator4nexts_0CsjTXeTLYUiB9_18tracing_attributes, symObjAddr: 0x20E0, symBinAddr: 0x369F0, symSize: 0x20 }
  - { offset: 0x6C802, size: 0x8, addend: 0x0, symName: __RNCNvXsw_NtCsdGrGZaRBwMb_3syn10punctuatedINtB7_11PrivateIterNtNtCsjTXeTLYUiB9_18tracing_attributes4attr5FieldNtNtB9_5token5CommaENtNtNtNtCsieiGu2EXtoJ_4core4iter6traits8iterator8Iterator4next0B10_, symObjAddr: 0x2100, symBinAddr: 0x36A10, symSize: 0x10 }
  - { offset: 0x6C84D, size: 0x8, addend: 0x0, symName: __RNCNvXsw_NtCsdGrGZaRBwMb_3syn10punctuatedINtB7_11PrivateIterNtNtCsjTXeTLYUiB9_18tracing_attributes4attr5FieldNtNtB9_5token5CommaENtNtNtNtCsieiGu2EXtoJ_4core4iter6traits8iterator8Iterator4nexts_0B10_, symObjAddr: 0x2110, symBinAddr: 0x36A20, symSize: 0x20 }
  - { offset: 0x6C89E, size: 0x8, addend: 0x0, symName: __RNvXsw_NtCsdGrGZaRBwMb_3syn10punctuatedINtB5_11PrivateIterNtCsaKzlTDPUHDb_11proc_macro25IdentNtNtB7_5token3DotENtNtNtNtCsieiGu2EXtoJ_4core4iter6traits8iterator8Iterator4nextCsjTXeTLYUiB9_18tracing_attributes, symObjAddr: 0x7730, symBinAddr: 0x3C040, symSize: 0x40 }
  - { offset: 0x6C8DE, size: 0x8, addend: 0x0, symName: __RNvXsw_NtCsdGrGZaRBwMb_3syn10punctuatedINtB5_11PrivateIterNtNtCsjTXeTLYUiB9_18tracing_attributes4attr5FieldNtNtB7_5token5CommaENtNtNtNtCsieiGu2EXtoJ_4core4iter6traits8iterator8Iterator4nextBY_, symObjAddr: 0x7770, symBinAddr: 0x3C080, symSize: 0x40 }
  - { offset: 0x6C929, size: 0x8, addend: 0x0, symName: __RNcNtINtNtCsdGrGZaRBwMb_3syn10punctuated4PairQNtNtB8_2ty4TypeQNtNtB8_5token5CommaE3End0CsjTXeTLYUiB9_18tracing_attributes, symObjAddr: 0x2190, symBinAddr: 0x36AA0, symSize: 0x20 }
  - { offset: 0x6C965, size: 0x8, addend: 0x0, symName: __RNcNtINtNtCsdGrGZaRBwMb_3syn10punctuated4PairQNtNtB8_2ty9BareFnArgQNtNtB8_5token5CommaE3End0CsjTXeTLYUiB9_18tracing_attributes, symObjAddr: 0x21B0, symBinAddr: 0x36AC0, symSize: 0x20 }
  - { offset: 0x6C9A1, size: 0x8, addend: 0x0, symName: __RNcNtINtNtCsdGrGZaRBwMb_3syn10punctuated4PairQNtNtB8_3pat3PatQNtNtB8_5token2OrE3End0CsjTXeTLYUiB9_18tracing_attributes, symObjAddr: 0x21D0, symBinAddr: 0x36AE0, symSize: 0x20 }
  - { offset: 0x6C9DD, size: 0x8, addend: 0x0, symName: __RNcNtINtNtCsdGrGZaRBwMb_3syn10punctuated4PairQNtNtB8_3pat3PatQNtNtB8_5token5CommaE3End0CsjTXeTLYUiB9_18tracing_attributes, symObjAddr: 0x21F0, symBinAddr: 0x36B00, symSize: 0x20 }
  - { offset: 0x6CA19, size: 0x8, addend: 0x0, symName: __RNcNtINtNtCsdGrGZaRBwMb_3syn10punctuated4PairQNtNtB8_3pat8FieldPatQNtNtB8_5token5CommaE3End0CsjTXeTLYUiB9_18tracing_attributes, symObjAddr: 0x2210, symBinAddr: 0x36B20, symSize: 0x20 }
  - { offset: 0x6CA55, size: 0x8, addend: 0x0, symName: __RNcNtINtNtCsdGrGZaRBwMb_3syn10punctuated4PairQNtNtB8_4data5FieldQNtNtB8_5token5CommaE3End0CsjTXeTLYUiB9_18tracing_attributes, symObjAddr: 0x2230, symBinAddr: 0x36B40, symSize: 0x20 }
  - { offset: 0x6CA91, size: 0x8, addend: 0x0, symName: __RNcNtINtNtCsdGrGZaRBwMb_3syn10punctuated4PairQNtNtB8_4data7VariantQNtNtB8_5token5CommaE3End0CsjTXeTLYUiB9_18tracing_attributes, symObjAddr: 0x2250, symBinAddr: 0x36B60, symSize: 0x20 }
  - { offset: 0x6CACD, size: 0x8, addend: 0x0, symName: __RNcNtINtNtCsdGrGZaRBwMb_3syn10punctuated4PairQNtNtB8_4expr10FieldValueQNtNtB8_5token5CommaE3End0CsjTXeTLYUiB9_18tracing_attributes, symObjAddr: 0x2270, symBinAddr: 0x36B80, symSize: 0x20 }
  - { offset: 0x6CB09, size: 0x8, addend: 0x0, symName: __RNcNtINtNtCsdGrGZaRBwMb_3syn10punctuated4PairQNtNtB8_4expr4ExprQNtNtB8_5token5CommaE3End0CsjTXeTLYUiB9_18tracing_attributes, symObjAddr: 0x2290, symBinAddr: 0x36BA0, symSize: 0x20 }
  - { offset: 0x6CB45, size: 0x8, addend: 0x0, symName: __RNcNtINtNtCsdGrGZaRBwMb_3syn10punctuated4PairQNtNtB8_4item5FnArgQNtNtB8_5token5CommaE3End0CsjTXeTLYUiB9_18tracing_attributes, symObjAddr: 0x22B0, symBinAddr: 0x36BC0, symSize: 0x20 }
  - { offset: 0x6CB81, size: 0x8, addend: 0x0, symName: __RNcNtINtNtCsdGrGZaRBwMb_3syn10punctuated4PairQNtNtB8_4item7UseTreeQNtNtB8_5token5CommaE3End0CsjTXeTLYUiB9_18tracing_attributes, symObjAddr: 0x22D0, symBinAddr: 0x36BE0, symSize: 0x20 }
  - { offset: 0x6CBBD, size: 0x8, addend: 0x0, symName: __RNcNtINtNtCsdGrGZaRBwMb_3syn10punctuated4PairQNtNtB8_4path11PathSegmentQNtNtB8_5token7PathSepE3End0CsjTXeTLYUiB9_18tracing_attributes, symObjAddr: 0x22F0, symBinAddr: 0x36C00, symSize: 0x20 }
  - { offset: 0x6CBF9, size: 0x8, addend: 0x0, symName: __RNcNtINtNtCsdGrGZaRBwMb_3syn10punctuated4PairQNtNtB8_4path15GenericArgumentQNtNtB8_5token5CommaE3End0CsjTXeTLYUiB9_18tracing_attributes, symObjAddr: 0x2310, symBinAddr: 0x36C20, symSize: 0x20 }
  - { offset: 0x6CC35, size: 0x8, addend: 0x0, symName: __RNcNtINtNtCsdGrGZaRBwMb_3syn10punctuated4PairQNtNtB8_8generics12GenericParamQNtNtB8_5token5CommaE3End0CsjTXeTLYUiB9_18tracing_attributes, symObjAddr: 0x2330, symBinAddr: 0x36C40, symSize: 0x20 }
  - { offset: 0x6CC71, size: 0x8, addend: 0x0, symName: __RNcNtINtNtCsdGrGZaRBwMb_3syn10punctuated4PairQNtNtB8_8generics13CapturedParamQNtNtB8_5token5CommaE3End0CsjTXeTLYUiB9_18tracing_attributes, symObjAddr: 0x2350, symBinAddr: 0x36C60, symSize: 0x20 }
  - { offset: 0x6CCAD, size: 0x8, addend: 0x0, symName: __RNcNtINtNtCsdGrGZaRBwMb_3syn10punctuated4PairQNtNtB8_8generics14TypeParamBoundQNtNtB8_5token4PlusE3End0CsjTXeTLYUiB9_18tracing_attributes, symObjAddr: 0x2370, symBinAddr: 0x36C80, symSize: 0x20 }
  - { offset: 0x6CCE9, size: 0x8, addend: 0x0, symName: __RNcNtINtNtCsdGrGZaRBwMb_3syn10punctuated4PairQNtNtB8_8generics14WherePredicateQNtNtB8_5token5CommaE3End0CsjTXeTLYUiB9_18tracing_attributes, symObjAddr: 0x2390, symBinAddr: 0x36CA0, symSize: 0x20 }
  - { offset: 0x6CD25, size: 0x8, addend: 0x0, symName: __RNcNtINtNtCsdGrGZaRBwMb_3syn10punctuated4PairQNtNtB8_8lifetime8LifetimeQNtNtB8_5token4PlusE3End0CsjTXeTLYUiB9_18tracing_attributes, symObjAddr: 0x23B0, symBinAddr: 0x36CC0, symSize: 0x20 }
  - { offset: 0x6CD61, size: 0x8, addend: 0x0, symName: __RNcNtINtNtCsdGrGZaRBwMb_3syn10punctuated4PairRNtCsaKzlTDPUHDb_11proc_macro25IdentRNtNtB8_5token3DotE3End0CsjTXeTLYUiB9_18tracing_attributes, symObjAddr: 0x23D0, symBinAddr: 0x36CE0, symSize: 0x20 }
  - { offset: 0x6CD9D, size: 0x8, addend: 0x0, symName: __RNcNtINtNtCsdGrGZaRBwMb_3syn10punctuated4PairRNtNtCsjTXeTLYUiB9_18tracing_attributes4attr5FieldRNtNtB8_5token5CommaE3End0BM_, symObjAddr: 0x23F0, symBinAddr: 0x36D00, symSize: 0x20 }
  - { offset: 0x6E15F, size: 0x8, addend: 0x0, symName: __RNvXNtNtCsdGrGZaRBwMb_3syn10punctuated8printingINtB4_10PunctuatedNtCsaKzlTDPUHDb_11proc_macro25IdentNtNtB6_5token3DotENtNtCs9OU1sGv5X54_5quote9to_tokens8ToTokens9to_tokensCsjTXeTLYUiB9_18tracing_attributes, symObjAddr: 0x5160, symBinAddr: 0x39A70, symSize: 0x40 }
  - { offset: 0x6E1AA, size: 0x8, addend: 0x0, symName: __RNvXNtNtCsdGrGZaRBwMb_3syn10punctuated8printingINtB4_10PunctuatedNtNtCsjTXeTLYUiB9_18tracing_attributes4attr5FieldNtNtB6_5token5CommaENtNtCs9OU1sGv5X54_5quote9to_tokens8ToTokens9to_tokensB15_, symObjAddr: 0x51A0, symBinAddr: 0x39AB0, symSize: 0x40 }
  - { offset: 0x6E1FB, size: 0x8, addend: 0x0, symName: __RNvXs_NtNtCsdGrGZaRBwMb_3syn10punctuated8printingINtB6_4PairRNtCsaKzlTDPUHDb_11proc_macro25IdentRNtNtB8_5token3DotENtNtCs9OU1sGv5X54_5quote9to_tokens8ToTokens9to_tokensCsjTXeTLYUiB9_18tracing_attributes, symObjAddr: 0x6A10, symBinAddr: 0x3B320, symSize: 0x90 }
  - { offset: 0x6E28A, size: 0x8, addend: 0x0, symName: __RNvXs_NtNtCsdGrGZaRBwMb_3syn10punctuated8printingINtB6_4PairRNtNtCsjTXeTLYUiB9_18tracing_attributes4attr5FieldRNtNtB8_5token5CommaENtNtCs9OU1sGv5X54_5quote9to_tokens8ToTokens9to_tokensB11_, symObjAddr: 0x6AA0, symBinAddr: 0x3B3B0, symSize: 0x90 }
  - { offset: 0x6E320, size: 0x8, addend: 0x0, symName: __RNvXs8_NtCsdGrGZaRBwMb_3syn10punctuatedINtB5_10PunctuatedNtCsaKzlTDPUHDb_11proc_macro25IdentNtNtB7_5token5CommaENtNtNtNtCsieiGu2EXtoJ_4core4iter6traits7collect12IntoIterator9into_iterCsjTXeTLYUiB9_18tracing_attributes, symObjAddr: 0x5460, symBinAddr: 0x39D70, symSize: 0x3F0 }
  - { offset: 0x6E3C6, size: 0x8, addend: 0x0, symName: __RNvXs8_NtCsdGrGZaRBwMb_3syn10punctuatedINtB5_10PunctuatedNtNtB7_3pat3PatNtNtB7_5token5CommaENtNtNtNtCsieiGu2EXtoJ_4core4iter6traits7collect12IntoIterator9into_iterCsjTXeTLYUiB9_18tracing_attributes, symObjAddr: 0x5850, symBinAddr: 0x3A160, symSize: 0x420 }
  - { offset: 0x6E46C, size: 0x8, addend: 0x0, symName: __RNvXs8_NtCsdGrGZaRBwMb_3syn10punctuatedINtB5_10PunctuatedNtNtB7_3pat8FieldPatNtNtB7_5token5CommaENtNtNtNtCsieiGu2EXtoJ_4core4iter6traits7collect12IntoIterator9into_iterCsjTXeTLYUiB9_18tracing_attributes, symObjAddr: 0x5C70, symBinAddr: 0x3A580, symSize: 0x4A0 }
  - { offset: 0x6E512, size: 0x8, addend: 0x0, symName: __RNvXs8_NtCsdGrGZaRBwMb_3syn10punctuatedINtB5_10PunctuatedNtNtB7_4item5FnArgNtNtB7_5token5CommaENtNtNtNtCsieiGu2EXtoJ_4core4iter6traits7collect12IntoIterator9into_iterCsjTXeTLYUiB9_18tracing_attributes, symObjAddr: 0x6110, symBinAddr: 0x3AA20, symSize: 0x410 }
  - { offset: 0x6E5BE, size: 0x8, addend: 0x0, symName: __RNvXs9_NtCsdGrGZaRBwMb_3syn10punctuatedRINtB5_10PunctuatedNtNtB7_4item5FnArgNtNtB7_5token5CommaENtNtNtNtCsieiGu2EXtoJ_4core4iter6traits7collect12IntoIterator9into_iterCsjTXeTLYUiB9_18tracing_attributes, symObjAddr: 0x6520, symBinAddr: 0x3AE30, symSize: 0x20 }
  - { offset: 0x6E604, size: 0x8, addend: 0x0, symName: __RNvXsA_NtCsdGrGZaRBwMb_3syn10punctuatedINtB5_11PrivateIterNtCsaKzlTDPUHDb_11proc_macro25IdentNtNtB7_5token3DotEINtB5_9IterTraitBU_E9clone_boxCsjTXeTLYUiB9_18tracing_attributes, symObjAddr: 0x6540, symBinAddr: 0x3AE50, symSize: 0x90 }
  - { offset: 0x6E663, size: 0x8, addend: 0x0, symName: __RNvXsA_NtCsdGrGZaRBwMb_3syn10punctuatedINtB5_11PrivateIterNtNtCsjTXeTLYUiB9_18tracing_attributes4attr5FieldNtNtB7_5token5CommaEINtB5_9IterTraitBU_E9clone_boxBY_, symObjAddr: 0x65D0, symBinAddr: 0x3AEE0, symSize: 0x90 }
  - { offset: 0x6E6C8, size: 0x8, addend: 0x0, symName: __RNvXsC_NtCsdGrGZaRBwMb_3syn10punctuatedINtB5_7IterMutNtNtCsjTXeTLYUiB9_18tracing_attributes4attr5FieldENtNtNtNtCsieiGu2EXtoJ_4core4iter6traits8iterator8Iterator4nextBT_, symObjAddr: 0x6660, symBinAddr: 0x3AF70, symSize: 0x30 }
  - { offset: 0x6E705, size: 0x8, addend: 0x0, symName: __RNvXsH_NtCsdGrGZaRBwMb_3syn10punctuatedINtB5_14PrivateIterMutNtNtCsjTXeTLYUiB9_18tracing_attributes4attr5FieldNtNtB7_5token5CommaENtNtNtNtCsieiGu2EXtoJ_4core4iter6traits10exact_size17ExactSizeIterator3lenB11_, symObjAddr: 0x6710, symBinAddr: 0x3B020, symSize: 0x80 }
  - { offset: 0x6E783, size: 0x8, addend: 0x0, symName: __RNvXsN_NtCsdGrGZaRBwMb_3syn10punctuatedINtB5_10PunctuatedNtNtB7_4expr4ExprNtNtB7_5token5CommaEINtNtNtCsieiGu2EXtoJ_4core3ops5index5IndexjE5indexCsjTXeTLYUiB9_18tracing_attributes, symObjAddr: 0x6790, symBinAddr: 0x3B0A0, symSize: 0x140 }
  - { offset: 0x6E7EE, size: 0x8, addend: 0x0, symName: __RNvXs_NtCsdGrGZaRBwMb_3syn10punctuatedINtB4_10PunctuatedNtCsaKzlTDPUHDb_11proc_macro25IdentNtNtB6_5token3DotENtNtCsieiGu2EXtoJ_4core5clone5Clone5cloneCsjTXeTLYUiB9_18tracing_attributes, symObjAddr: 0x68D0, symBinAddr: 0x3B1E0, symSize: 0xA0 }
  - { offset: 0x6E82E, size: 0x8, addend: 0x0, symName: __RNvXs_NtCsdGrGZaRBwMb_3syn10punctuatedINtB4_10PunctuatedNtNtCsjTXeTLYUiB9_18tracing_attributes4attr5FieldNtNtB6_5token5CommaENtNtCsieiGu2EXtoJ_4core5clone5Clone5cloneBW_, symObjAddr: 0x6970, symBinAddr: 0x3B280, symSize: 0xA0 }
  - { offset: 0x6E874, size: 0x8, addend: 0x0, symName: __RNvXsn_NtCsdGrGZaRBwMb_3syn10punctuatedINtB5_8IntoIterNtCsaKzlTDPUHDb_11proc_macro25IdentENtNtNtNtCsieiGu2EXtoJ_4core4iter6traits8iterator8Iterator4nextCsjTXeTLYUiB9_18tracing_attributes, symObjAddr: 0x7460, symBinAddr: 0x3BD70, symSize: 0x30 }
  - { offset: 0x6E8AB, size: 0x8, addend: 0x0, symName: __RNvXsn_NtCsdGrGZaRBwMb_3syn10punctuatedINtB5_8IntoIterNtNtB7_3pat3PatENtNtNtNtCsieiGu2EXtoJ_4core4iter6traits8iterator8Iterator4nextCsjTXeTLYUiB9_18tracing_attributes, symObjAddr: 0x7490, symBinAddr: 0x3BDA0, symSize: 0x30 }
  - { offset: 0x6E8E2, size: 0x8, addend: 0x0, symName: __RNvXsn_NtCsdGrGZaRBwMb_3syn10punctuatedINtB5_8IntoIterNtNtB7_3pat3PatENtNtNtNtCsieiGu2EXtoJ_4core4iter6traits8iterator8Iterator9size_hintCsjTXeTLYUiB9_18tracing_attributes, symObjAddr: 0x74C0, symBinAddr: 0x3BDD0, symSize: 0x60 }
  - { offset: 0x6E919, size: 0x8, addend: 0x0, symName: __RNvXsn_NtCsdGrGZaRBwMb_3syn10punctuatedINtB5_8IntoIterNtNtB7_3pat8FieldPatENtNtNtNtCsieiGu2EXtoJ_4core4iter6traits8iterator8Iterator4nextCsjTXeTLYUiB9_18tracing_attributes, symObjAddr: 0x7520, symBinAddr: 0x3BE30, symSize: 0x30 }
  - { offset: 0x6E950, size: 0x8, addend: 0x0, symName: __RNvXsn_NtCsdGrGZaRBwMb_3syn10punctuatedINtB5_8IntoIterNtNtB7_3pat8FieldPatENtNtNtNtCsieiGu2EXtoJ_4core4iter6traits8iterator8Iterator9size_hintCsjTXeTLYUiB9_18tracing_attributes, symObjAddr: 0x7550, symBinAddr: 0x3BE60, symSize: 0x60 }
  - { offset: 0x6E987, size: 0x8, addend: 0x0, symName: __RNvXsn_NtCsdGrGZaRBwMb_3syn10punctuatedINtB5_8IntoIterNtNtB7_4item5FnArgENtNtNtNtCsieiGu2EXtoJ_4core4iter6traits8iterator8Iterator4nextCsjTXeTLYUiB9_18tracing_attributes, symObjAddr: 0x75B0, symBinAddr: 0x3BEC0, symSize: 0x30 }
  - { offset: 0x6E9BE, size: 0x8, addend: 0x0, symName: __RNvXsn_NtCsdGrGZaRBwMb_3syn10punctuatedINtB5_8IntoIterNtNtB7_4item5FnArgENtNtNtNtCsieiGu2EXtoJ_4core4iter6traits8iterator8Iterator9size_hintCsjTXeTLYUiB9_18tracing_attributes, symObjAddr: 0x75E0, symBinAddr: 0x3BEF0, symSize: 0x60 }
  - { offset: 0x6E9FB, size: 0x8, addend: 0x0, symName: __RNvXsp_NtCsdGrGZaRBwMb_3syn10punctuatedINtB5_8IntoIterNtNtB7_3pat3PatENtNtNtNtCsieiGu2EXtoJ_4core4iter6traits10exact_size17ExactSizeIterator3lenCsjTXeTLYUiB9_18tracing_attributes, symObjAddr: 0x7640, symBinAddr: 0x3BF50, symSize: 0x20 }
  - { offset: 0x6EA32, size: 0x8, addend: 0x0, symName: __RNvXsp_NtCsdGrGZaRBwMb_3syn10punctuatedINtB5_8IntoIterNtNtB7_3pat8FieldPatENtNtNtNtCsieiGu2EXtoJ_4core4iter6traits10exact_size17ExactSizeIterator3lenCsjTXeTLYUiB9_18tracing_attributes, symObjAddr: 0x7660, symBinAddr: 0x3BF70, symSize: 0x20 }
  - { offset: 0x6EA69, size: 0x8, addend: 0x0, symName: __RNvXsp_NtCsdGrGZaRBwMb_3syn10punctuatedINtB5_8IntoIterNtNtB7_4item5FnArgENtNtNtNtCsieiGu2EXtoJ_4core4iter6traits10exact_size17ExactSizeIterator3lenCsjTXeTLYUiB9_18tracing_attributes, symObjAddr: 0x7680, symBinAddr: 0x3BF90, symSize: 0x20 }
  - { offset: 0x6EAA6, size: 0x8, addend: 0x0, symName: __RNvXst_NtCsdGrGZaRBwMb_3syn10punctuatedINtB5_4IterNtCsaKzlTDPUHDb_11proc_macro25IdentENtNtNtNtCsieiGu2EXtoJ_4core4iter6traits8iterator8Iterator4nextCsjTXeTLYUiB9_18tracing_attributes, symObjAddr: 0x76A0, symBinAddr: 0x3BFB0, symSize: 0x30 }
  - { offset: 0x6EADD, size: 0x8, addend: 0x0, symName: __RNvXst_NtCsdGrGZaRBwMb_3syn10punctuatedINtB5_4IterNtNtCsjTXeTLYUiB9_18tracing_attributes4attr5FieldENtNtNtNtCsieiGu2EXtoJ_4core4iter6traits8iterator8Iterator4nextBQ_, symObjAddr: 0x76D0, symBinAddr: 0x3BFE0, symSize: 0x30 }
  - { offset: 0x6EB1A, size: 0x8, addend: 0x0, symName: __RNvXsu_NtCsdGrGZaRBwMb_3syn10punctuatedINtB5_4IterNtCsaKzlTDPUHDb_11proc_macro25IdentENtNtNtNtCsieiGu2EXtoJ_4core4iter6traits12double_ended19DoubleEndedIterator9next_backCsjTXeTLYUiB9_18tracing_attributes, symObjAddr: 0x7700, symBinAddr: 0x3C010, symSize: 0x30 }
  - { offset: 0x6EB57, size: 0x8, addend: 0x0, symName: __RNvXsy_NtCsdGrGZaRBwMb_3syn10punctuatedINtB5_11PrivateIterNtCsaKzlTDPUHDb_11proc_macro25IdentNtNtB7_5token3DotENtNtNtNtCsieiGu2EXtoJ_4core4iter6traits10exact_size17ExactSizeIterator3lenCsjTXeTLYUiB9_18tracing_attributes, symObjAddr: 0x7830, symBinAddr: 0x3C140, symSize: 0x80 }
  - { offset: 0x6EBCF, size: 0x8, addend: 0x0, symName: __RNvXsy_NtCsdGrGZaRBwMb_3syn10punctuatedINtB5_11PrivateIterNtNtCsjTXeTLYUiB9_18tracing_attributes4attr5FieldNtNtB7_5token5CommaENtNtNtNtCsieiGu2EXtoJ_4core4iter6traits10exact_size17ExactSizeIterator3lenBY_, symObjAddr: 0x78B0, symBinAddr: 0x3C1C0, symSize: 0x80 }
  - { offset: 0x6EC4D, size: 0x8, addend: 0x0, symName: __RNvXsz_NtCsdGrGZaRBwMb_3syn10punctuatedINtB5_11PrivateIterNtCsaKzlTDPUHDb_11proc_macro25IdentNtNtB7_5token3DotENtNtCsieiGu2EXtoJ_4core5clone5Clone5cloneCsjTXeTLYUiB9_18tracing_attributes, symObjAddr: 0x7930, symBinAddr: 0x3C240, symSize: 0x70 }
  - { offset: 0x6EC8D, size: 0x8, addend: 0x0, symName: __RNvXsz_NtCsdGrGZaRBwMb_3syn10punctuatedINtB5_11PrivateIterNtNtCsjTXeTLYUiB9_18tracing_attributes4attr5FieldNtNtB7_5token5CommaENtNtCsieiGu2EXtoJ_4core5clone5Clone5cloneBY_, symObjAddr: 0x79A0, symBinAddr: 0x3C2B0, symSize: 0x70 }
  - { offset: 0x78A24, size: 0x8, addend: 0x0, symName: __RINvYINtNtCsdGrGZaRBwMb_3syn10punctuated11PrivateIterNtCsaKzlTDPUHDb_11proc_macro25IdentNtNtB8_5token3DotENtNtNtNtCsieiGu2EXtoJ_4core4iter6traits8iterator8Iterator8try_foldINtNtNtB1O_3num7nonzero7NonZerojENCNvXs_NvB1G_10advance_byB3_NtB3o_13SpecAdvanceBy15spec_advance_by0INtNtB1O_6option6OptionB2K_EECsjTXeTLYUiB9_18tracing_attributes, symObjAddr: 0x0, symBinAddr: 0x34910, symSize: 0x130 }
  - { offset: 0x78AD8, size: 0x8, addend: 0x0, symName: __RINvYINtNtCsdGrGZaRBwMb_3syn10punctuated11PrivateIterNtNtCsjTXeTLYUiB9_18tracing_attributes4attr5FieldNtNtB8_5token5CommaENtNtNtNtCsieiGu2EXtoJ_4core4iter6traits8iterator8Iterator8try_foldINtNtNtB24_3num7nonzero7NonZerojENCNvXs_NvB1W_10advance_byB3_NtB3E_13SpecAdvanceBy15spec_advance_by0INtNtB24_6option6OptionB30_EEBT_, symObjAddr: 0x130, symBinAddr: 0x34A40, symSize: 0x130 }
  - { offset: 0x78B8C, size: 0x8, addend: 0x0, symName: __RINvYINtNtCsdGrGZaRBwMb_3syn10punctuated14PrivateIterMutNtNtCsjTXeTLYUiB9_18tracing_attributes4attr5FieldNtNtB8_5token5CommaENtNtNtNtCsieiGu2EXtoJ_4core4iter6traits8iterator8Iterator8try_foldINtNtNtB27_3num7nonzero7NonZerojENCNvXs_NvB1Z_10advance_byB3_NtB3H_13SpecAdvanceBy15spec_advance_by0INtNtB27_6option6OptionB33_EEBW_, symObjAddr: 0x260, symBinAddr: 0x34B70, symSize: 0x130 }
  - { offset: 0x78C40, size: 0x8, addend: 0x0, symName: __RINvYINtNtCsdGrGZaRBwMb_3syn10punctuated4IterNtNtCsjTXeTLYUiB9_18tracing_attributes4attr5FieldENtNtNtNtCsieiGu2EXtoJ_4core4iter6traits8iterator8Iterator3allNCNCNCINvNtBL_6expand9gen_blockNtCsaKzlTDPUHDb_11proc_macro211TokenStreamEs0_0s2_00EBL_, symObjAddr: 0x390, symBinAddr: 0x34CA0, symSize: 0x40 }
  - { offset: 0x78C8F, size: 0x8, addend: 0x0, symName: __RINvYINtNtCsdGrGZaRBwMb_3syn10punctuated4IterNtNtCsjTXeTLYUiB9_18tracing_attributes4attr5FieldENtNtNtNtCsieiGu2EXtoJ_4core4iter6traits8iterator8Iterator3allNCNCNCINvNtBL_6expand9gen_blockNtNtB8_4stmt5BlockEs0_0s2_00EBL_, symObjAddr: 0x3D0, symBinAddr: 0x34CE0, symSize: 0x40 }
  - { offset: 0x78CDE, size: 0x8, addend: 0x0, symName: __RINvYINtNtCsdGrGZaRBwMb_3syn10punctuated4IterNtNtCsjTXeTLYUiB9_18tracing_attributes4attr5FieldENtNtNtNtCsieiGu2EXtoJ_4core4iter6traits8iterator8Iterator8try_folduNCINvNvB1v_3all5checkRBH_NCNCNCINvNtBL_6expand9gen_blockNtCsaKzlTDPUHDb_11proc_macro211TokenStreamEs0_0s2_00E0INtNtNtB1D_3ops12control_flow11ControlFlowuEEBL_, symObjAddr: 0x410, symBinAddr: 0x34D20, symSize: 0x100 }
  - { offset: 0x78D91, size: 0x8, addend: 0x0, symName: __RINvYINtNtCsdGrGZaRBwMb_3syn10punctuated4IterNtNtCsjTXeTLYUiB9_18tracing_attributes4attr5FieldENtNtNtNtCsieiGu2EXtoJ_4core4iter6traits8iterator8Iterator8try_folduNCINvNvB1v_3all5checkRBH_NCNCNCINvNtBL_6expand9gen_blockNtNtB8_4stmt5BlockEs0_0s2_00E0INtNtNtB1D_3ops12control_flow11ControlFlowuEEBL_, symObjAddr: 0x510, symBinAddr: 0x34E20, symSize: 0x100 }
  - { offset: 0x78E44, size: 0x8, addend: 0x0, symName: __RINvYINtNtCsdGrGZaRBwMb_3syn10punctuated7IterMutNtNtCsjTXeTLYUiB9_18tracing_attributes4attr5FieldENtNtNtNtCsieiGu2EXtoJ_4core4iter6traits8iterator8Iterator10filter_mapQNtNtB8_4expr4ExprNCNCINvNtBO_6expand9gen_blockNtCsaKzlTDPUHDb_11proc_macro211TokenStreamEs0_0s5_0EBO_, symObjAddr: 0x610, symBinAddr: 0x34F20, symSize: 0x20 }
  - { offset: 0x78E9C, size: 0x8, addend: 0x0, symName: __RINvYINtNtCsdGrGZaRBwMb_3syn10punctuated7IterMutNtNtCsjTXeTLYUiB9_18tracing_attributes4attr5FieldENtNtNtNtCsieiGu2EXtoJ_4core4iter6traits8iterator8Iterator10filter_mapQNtNtB8_4expr4ExprNCNCINvNtBO_6expand9gen_blockNtNtB8_4stmt5BlockEs0_0s5_0EBO_, symObjAddr: 0x630, symBinAddr: 0x34F40, symSize: 0x20 }
  - { offset: 0x78EF4, size: 0x8, addend: 0x0, symName: __RINvYINtNtCsdGrGZaRBwMb_3syn10punctuated7IterMutNtNtCsjTXeTLYUiB9_18tracing_attributes4attr5FieldENtNtNtNtCsieiGu2EXtoJ_4core4iter6traits8iterator8Iterator8find_mapQNtNtB8_4expr4ExprQNCNCINvNtBO_6expand9gen_blockNtCsaKzlTDPUHDb_11proc_macro211TokenStreamEs0_0s5_0EBO_, symObjAddr: 0x650, symBinAddr: 0x34F60, symSize: 0x80 }
  - { offset: 0x78F7C, size: 0x8, addend: 0x0, symName: __RINvYINtNtCsdGrGZaRBwMb_3syn10punctuated7IterMutNtNtCsjTXeTLYUiB9_18tracing_attributes4attr5FieldENtNtNtNtCsieiGu2EXtoJ_4core4iter6traits8iterator8Iterator8find_mapQNtNtB8_4expr4ExprQNCNCINvNtBO_6expand9gen_blockNtNtB8_4stmt5BlockEs0_0s5_0EBO_, symObjAddr: 0x6D0, symBinAddr: 0x34FE0, symSize: 0x80 }
  - { offset: 0x79004, size: 0x8, addend: 0x0, symName: __RINvYINtNtCsdGrGZaRBwMb_3syn10punctuated7IterMutNtNtCsjTXeTLYUiB9_18tracing_attributes4attr5FieldENtNtNtNtCsieiGu2EXtoJ_4core4iter6traits8iterator8Iterator8try_folduNCINvNvB1y_8find_map5checkQBK_QNtNtB8_4expr4ExprQNCNCINvNtBO_6expand9gen_blockNtCsaKzlTDPUHDb_11proc_macro211TokenStreamEs0_0s5_0E0INtNtNtB1G_3ops12control_flow11ControlFlowB37_EEBO_, symObjAddr: 0x750, symBinAddr: 0x35060, symSize: 0x120 }
  - { offset: 0x790B7, size: 0x8, addend: 0x0, symName: __RINvYINtNtCsdGrGZaRBwMb_3syn10punctuated7IterMutNtNtCsjTXeTLYUiB9_18tracing_attributes4attr5FieldENtNtNtNtCsieiGu2EXtoJ_4core4iter6traits8iterator8Iterator8try_folduNCINvNvB1y_8find_map5checkQBK_QNtNtB8_4expr4ExprQNCNCINvNtBO_6expand9gen_blockNtNtB8_4stmt5BlockEs0_0s5_0E0INtNtNtB1G_3ops12control_flow11ControlFlowB37_EEBO_, symObjAddr: 0x870, symBinAddr: 0x35180, symSize: 0x120 }
  - { offset: 0x7916A, size: 0x8, addend: 0x0, symName: __RINvYINtNtCsdGrGZaRBwMb_3syn10punctuated8IntoIterNtNtB8_3pat3PatENtNtNtNtCsieiGu2EXtoJ_4core4iter6traits8iterator8Iterator3mapINtNtCslJiobkLta79_5alloc5boxed3BoxDB11_p4ItemTNtCsaKzlTDPUHDb_11proc_macro25IdentNtNtCsjTXeTLYUiB9_18tracing_attributes6expand10RecordTypeEEL_ENCNvB3m_11param_namess0_0EB3o_, symObjAddr: 0x990, symBinAddr: 0x352A0, symSize: 0x30 }
  - { offset: 0x791D7, size: 0x8, addend: 0x0, symName: __RINvYINtNtCsdGrGZaRBwMb_3syn10punctuated8IntoIterNtNtB8_3pat3PatENtNtNtNtCsieiGu2EXtoJ_4core4iter6traits8iterator8Iterator3mapINtNtCslJiobkLta79_5alloc5boxed3BoxDB11_p4ItemTNtCsaKzlTDPUHDb_11proc_macro25IdentNtNtCsjTXeTLYUiB9_18tracing_attributes6expand10RecordTypeEEL_ENCNvB3m_11param_namess_0EB3o_, symObjAddr: 0x9C0, symBinAddr: 0x352D0, symSize: 0x30 }
  - { offset: 0x7926B, size: 0x8, addend: 0x0, symName: __RINvYINtNtCsdGrGZaRBwMb_3syn10punctuated8IntoIterNtNtB8_3pat3PatENtNtNtNtCsieiGu2EXtoJ_4core4iter6traits8iterator8Iterator8flat_mapINtNtCslJiobkLta79_5alloc5boxed3BoxDB11_p4ItemTNtCsaKzlTDPUHDb_11proc_macro25IdentNtNtCsjTXeTLYUiB9_18tracing_attributes6expand10RecordTypeEEL_ENCNvB3r_11param_namess0_0EB3t_, symObjAddr: 0x9F0, symBinAddr: 0x35300, symSize: 0xE0 }
  - { offset: 0x79364, size: 0x8, addend: 0x0, symName: __RINvYINtNtCsdGrGZaRBwMb_3syn10punctuated8IntoIterNtNtB8_3pat3PatENtNtNtNtCsieiGu2EXtoJ_4core4iter6traits8iterator8Iterator8flat_mapINtNtCslJiobkLta79_5alloc5boxed3BoxDB11_p4ItemTNtCsaKzlTDPUHDb_11proc_macro25IdentNtNtCsjTXeTLYUiB9_18tracing_attributes6expand10RecordTypeEEL_ENCNvB3r_11param_namess_0EB3t_, symObjAddr: 0xAD0, symBinAddr: 0x353E0, symSize: 0xE0 }
  - { offset: 0x79436, size: 0x8, addend: 0x0, symName: __RINvYINtNtCsdGrGZaRBwMb_3syn10punctuated8IntoIterNtNtB8_3pat3PatENtNtNtNtCsieiGu2EXtoJ_4core4iter6traits8iterator8Iterator8try_foldjNCINvNtNtB17_8adapters3map12map_try_foldBL_INtNtCslJiobkLta79_5alloc5boxed3BoxDB11_p4ItemTNtCsaKzlTDPUHDb_11proc_macro25IdentNtNtCsjTXeTLYUiB9_18tracing_attributes6expand10RecordTypeEEL_EjINtNtNtB19_3ops12control_flow11ControlFlowujENCNvB49_11param_namess0_0NCINvNvMsg_NtB2d_7flattenINtB6r_13FlattenCompatppE13iter_try_fold7flattenB2N_jB58_INvNvXsi_B6r_B6F_B11_10advance_by7advanceB2N_EE0E0B58_EB4b_, symObjAddr: 0xBB0, symBinAddr: 0x354C0, symSize: 0x210 }
  - { offset: 0x794EB, size: 0x8, addend: 0x0, symName: __RINvYINtNtCsdGrGZaRBwMb_3syn10punctuated8IntoIterNtNtB8_3pat3PatENtNtNtNtCsieiGu2EXtoJ_4core4iter6traits8iterator8Iterator8try_foldjNCINvNtNtB17_8adapters3map12map_try_foldBL_INtNtCslJiobkLta79_5alloc5boxed3BoxDB11_p4ItemTNtCsaKzlTDPUHDb_11proc_macro25IdentNtNtCsjTXeTLYUiB9_18tracing_attributes6expand10RecordTypeEEL_EjINtNtNtB19_3ops12control_flow11ControlFlowujENCNvB49_11param_namess_0NCINvNvMsg_NtB2d_7flattenINtB6q_13FlattenCompatppE13iter_try_fold7flattenB2N_jB58_INvNvXsi_B6q_B6E_B11_10advance_by7advanceB2N_EE0E0B58_EB4b_, symObjAddr: 0xDC0, symBinAddr: 0x356D0, symSize: 0x210 }
  - { offset: 0x795A0, size: 0x8, addend: 0x0, symName: __RINvYINtNtCsdGrGZaRBwMb_3syn10punctuated8IntoIterNtNtB8_3pat8FieldPatENtNtNtNtCsieiGu2EXtoJ_4core4iter6traits8iterator8Iterator3mapINtNtCslJiobkLta79_5alloc5boxed3BoxDB16_p4ItemTNtCsaKzlTDPUHDb_11proc_macro25IdentNtNtCsjTXeTLYUiB9_18tracing_attributes6expand10RecordTypeEEL_ENCNvB3r_11param_names0EB3t_, symObjAddr: 0xFD0, symBinAddr: 0x358E0, symSize: 0x30 }
  - { offset: 0x79634, size: 0x8, addend: 0x0, symName: __RINvYINtNtCsdGrGZaRBwMb_3syn10punctuated8IntoIterNtNtB8_3pat8FieldPatENtNtNtNtCsieiGu2EXtoJ_4core4iter6traits8iterator8Iterator8flat_mapINtNtCslJiobkLta79_5alloc5boxed3BoxDB16_p4ItemTNtCsaKzlTDPUHDb_11proc_macro25IdentNtNtCsjTXeTLYUiB9_18tracing_attributes6expand10RecordTypeEEL_ENCNvB3w_11param_names0EB3y_, symObjAddr: 0x1000, symBinAddr: 0x35910, symSize: 0xE0 }
  - { offset: 0x79706, size: 0x8, addend: 0x0, symName: __RINvYINtNtCsdGrGZaRBwMb_3syn10punctuated8IntoIterNtNtB8_3pat8FieldPatENtNtNtNtCsieiGu2EXtoJ_4core4iter6traits8iterator8Iterator8try_foldjNCINvNtNtB1c_8adapters3map12map_try_foldBL_INtNtCslJiobkLta79_5alloc5boxed3BoxDB16_p4ItemTNtCsaKzlTDPUHDb_11proc_macro25IdentNtNtCsjTXeTLYUiB9_18tracing_attributes6expand10RecordTypeEEL_EjINtNtNtB1e_3ops12control_flow11ControlFlowujENCNvB4e_11param_names0NCINvNvMsg_NtB2i_7flattenINtB6t_13FlattenCompatppE13iter_try_fold7flattenB2S_jB5d_INvNvXsi_B6t_B6H_B16_10advance_by7advanceB2S_EE0E0B5d_EB4g_, symObjAddr: 0x10E0, symBinAddr: 0x359F0, symSize: 0x280 }
  - { offset: 0x797BB, size: 0x8, addend: 0x0, symName: __RINvYINtNtCsdGrGZaRBwMb_3syn10punctuated8IntoIterNtNtB8_4item5FnArgENtNtNtNtCsieiGu2EXtoJ_4core4iter6traits8iterator8Iterator3mapINtNtCslJiobkLta79_5alloc5boxed3BoxDB14_p4ItemTNtCsaKzlTDPUHDb_11proc_macro25IdentNtNtCsjTXeTLYUiB9_18tracing_attributes6expand10RecordTypeEEL_ENCNCINvB3p_9gen_blockNtB2Q_11TokenStreamEs0_00EB3r_, symObjAddr: 0x1360, symBinAddr: 0x35C70, symSize: 0x30 }
  - { offset: 0x79828, size: 0x8, addend: 0x0, symName: __RINvYINtNtCsdGrGZaRBwMb_3syn10punctuated8IntoIterNtNtB8_4item5FnArgENtNtNtNtCsieiGu2EXtoJ_4core4iter6traits8iterator8Iterator3mapINtNtCslJiobkLta79_5alloc5boxed3BoxDB14_p4ItemTNtCsaKzlTDPUHDb_11proc_macro25IdentNtNtCsjTXeTLYUiB9_18tracing_attributes6expand10RecordTypeEEL_ENCNCINvB3p_9gen_blockNtNtB8_4stmt5BlockEs0_00EB3r_, symObjAddr: 0x1390, symBinAddr: 0x35CA0, symSize: 0x30 }
  - { offset: 0x798BC, size: 0x8, addend: 0x0, symName: __RINvYINtNtCsdGrGZaRBwMb_3syn10punctuated8IntoIterNtNtB8_4item5FnArgENtNtNtNtCsieiGu2EXtoJ_4core4iter6traits8iterator8Iterator8flat_mapINtNtCslJiobkLta79_5alloc5boxed3BoxDB14_p4ItemTNtCsaKzlTDPUHDb_11proc_macro25IdentNtNtCsjTXeTLYUiB9_18tracing_attributes6expand10RecordTypeEEL_ENCNCINvB3u_9gen_blockNtB2V_11TokenStreamEs0_00EB3w_, symObjAddr: 0x13C0, symBinAddr: 0x35CD0, symSize: 0xE0 }
  - { offset: 0x799B5, size: 0x8, addend: 0x0, symName: __RINvYINtNtCsdGrGZaRBwMb_3syn10punctuated8IntoIterNtNtB8_4item5FnArgENtNtNtNtCsieiGu2EXtoJ_4core4iter6traits8iterator8Iterator8flat_mapINtNtCslJiobkLta79_5alloc5boxed3BoxDB14_p4ItemTNtCsaKzlTDPUHDb_11proc_macro25IdentNtNtCsjTXeTLYUiB9_18tracing_attributes6expand10RecordTypeEEL_ENCNCINvB3u_9gen_blockNtNtB8_4stmt5BlockEs0_00EB3w_, symObjAddr: 0x14A0, symBinAddr: 0x35DB0, symSize: 0xE0 }
  - { offset: 0x79A91, size: 0x8, addend: 0x0, symName: __RNvXs_NvNtNtNtNtCsieiGu2EXtoJ_4core4iter6traits8iterator8Iterator10advance_byINtNtCsdGrGZaRBwMb_3syn10punctuated11PrivateIterNtCsaKzlTDPUHDb_11proc_macro25IdentNtNtB1i_5token3DotENtB4_13SpecAdvanceBy15spec_advance_byCsjTXeTLYUiB9_18tracing_attributes, symObjAddr: 0x6B30, symBinAddr: 0x3B440, symSize: 0x90 }
  - { offset: 0x79B3F, size: 0x8, addend: 0x0, symName: __RNvXs_NvNtNtNtNtCsieiGu2EXtoJ_4core4iter6traits8iterator8Iterator10advance_byINtNtCsdGrGZaRBwMb_3syn10punctuated11PrivateIterNtNtCsjTXeTLYUiB9_18tracing_attributes4attr5FieldNtNtB1i_5token5CommaENtB4_13SpecAdvanceBy15spec_advance_byB23_, symObjAddr: 0x6BC0, symBinAddr: 0x3B4D0, symSize: 0x90 }
  - { offset: 0x79BED, size: 0x8, addend: 0x0, symName: __RNvXs_NvNtNtNtNtCsieiGu2EXtoJ_4core4iter6traits8iterator8Iterator10advance_byINtNtCsdGrGZaRBwMb_3syn10punctuated14PrivateIterMutNtNtCsjTXeTLYUiB9_18tracing_attributes4attr5FieldNtNtB1i_5token5CommaENtB4_13SpecAdvanceBy15spec_advance_byB26_, symObjAddr: 0x6C50, symBinAddr: 0x3B560, symSize: 0x90 }
  - { offset: 0x79CB8, size: 0x8, addend: 0x0, symName: __RNvYINtNtCsdGrGZaRBwMb_3syn10punctuated11PrivateIterNtCsaKzlTDPUHDb_11proc_macro25IdentNtNtB7_5token3DotENtNtNtNtCsieiGu2EXtoJ_4core4iter6traits8iterator8Iterator10advance_byCsjTXeTLYUiB9_18tracing_attributes, symObjAddr: 0x7C40, symBinAddr: 0x3C550, symSize: 0x20 }
  - { offset: 0x79CFE, size: 0x8, addend: 0x0, symName: __RNvYINtNtCsdGrGZaRBwMb_3syn10punctuated11PrivateIterNtCsaKzlTDPUHDb_11proc_macro25IdentNtNtB7_5token3DotENtNtNtNtCsieiGu2EXtoJ_4core4iter6traits8iterator8Iterator3nthCsjTXeTLYUiB9_18tracing_attributes, symObjAddr: 0x7C60, symBinAddr: 0x3C570, symSize: 0x80 }
  - { offset: 0x79DCE, size: 0x8, addend: 0x0, symName: __RNvYINtNtCsdGrGZaRBwMb_3syn10punctuated11PrivateIterNtCsaKzlTDPUHDb_11proc_macro25IdentNtNtB7_5token3DotENtNtNtNtCsieiGu2EXtoJ_4core4iter6traits8iterator8Iterator9size_hintCsjTXeTLYUiB9_18tracing_attributes, symObjAddr: 0x7CE0, symBinAddr: 0x3C5F0, symSize: 0x30 }
  - { offset: 0x79E03, size: 0x8, addend: 0x0, symName: __RNvYINtNtCsdGrGZaRBwMb_3syn10punctuated11PrivateIterNtNtCsjTXeTLYUiB9_18tracing_attributes4attr5FieldNtNtB7_5token5CommaENtNtNtNtCsieiGu2EXtoJ_4core4iter6traits8iterator8Iterator10advance_byBS_, symObjAddr: 0x7F40, symBinAddr: 0x3C850, symSize: 0x20 }
  - { offset: 0x79E49, size: 0x8, addend: 0x0, symName: __RNvYINtNtCsdGrGZaRBwMb_3syn10punctuated11PrivateIterNtNtCsjTXeTLYUiB9_18tracing_attributes4attr5FieldNtNtB7_5token5CommaENtNtNtNtCsieiGu2EXtoJ_4core4iter6traits8iterator8Iterator3nthBS_, symObjAddr: 0x7F60, symBinAddr: 0x3C870, symSize: 0x80 }
  - { offset: 0x79F19, size: 0x8, addend: 0x0, symName: __RNvYINtNtCsdGrGZaRBwMb_3syn10punctuated11PrivateIterNtNtCsjTXeTLYUiB9_18tracing_attributes4attr5FieldNtNtB7_5token5CommaENtNtNtNtCsieiGu2EXtoJ_4core4iter6traits8iterator8Iterator9size_hintBS_, symObjAddr: 0x7FE0, symBinAddr: 0x3C8F0, symSize: 0x30 }
  - { offset: 0x79F4E, size: 0x8, addend: 0x0, symName: __RNvYINtNtCsdGrGZaRBwMb_3syn10punctuated14PrivateIterMutNtNtCsjTXeTLYUiB9_18tracing_attributes4attr5FieldNtNtB7_5token5CommaENtNtNtNtCsieiGu2EXtoJ_4core4iter6traits8iterator8Iterator10advance_byBV_, symObjAddr: 0x8240, symBinAddr: 0x3CB50, symSize: 0x20 }
  - { offset: 0x79F94, size: 0x8, addend: 0x0, symName: __RNvYINtNtCsdGrGZaRBwMb_3syn10punctuated14PrivateIterMutNtNtCsjTXeTLYUiB9_18tracing_attributes4attr5FieldNtNtB7_5token5CommaENtNtNtNtCsieiGu2EXtoJ_4core4iter6traits8iterator8Iterator3nthBV_, symObjAddr: 0x8260, symBinAddr: 0x3CB70, symSize: 0x80 }
  - { offset: 0x7A064, size: 0x8, addend: 0x0, symName: __RNvYINtNtCsdGrGZaRBwMb_3syn10punctuated14PrivateIterMutNtNtCsjTXeTLYUiB9_18tracing_attributes4attr5FieldNtNtB7_5token5CommaENtNtNtNtCsieiGu2EXtoJ_4core4iter6traits8iterator8Iterator9size_hintBV_, symObjAddr: 0x82E0, symBinAddr: 0x3CBF0, symSize: 0x30 }
  - { offset: 0x7A109, size: 0x8, addend: 0x0, symName: __RNvXNtNtNtCsieiGu2EXtoJ_4core4iter6traits7collectINtNtCsdGrGZaRBwMb_3syn10punctuated5PairsNtCsaKzlTDPUHDb_11proc_macro25IdentNtNtBQ_5token3DotENtB2_12IntoIterator9into_iterCsjTXeTLYUiB9_18tracing_attributes, symObjAddr: 0x51E0, symBinAddr: 0x39AF0, symSize: 0x20 }
  - { offset: 0x7A140, size: 0x8, addend: 0x0, symName: __RNvXNtNtNtCsieiGu2EXtoJ_4core4iter6traits7collectINtNtCsdGrGZaRBwMb_3syn10punctuated5PairsNtNtCsjTXeTLYUiB9_18tracing_attributes4attr5FieldNtNtBQ_5token5CommaENtB2_12IntoIterator9into_iterB1u_, symObjAddr: 0x5200, symBinAddr: 0x39B10, symSize: 0x20 }
  - { offset: 0x7A177, size: 0x8, addend: 0x0, symName: __RNvXNtNtNtCsieiGu2EXtoJ_4core4iter6traits7collectINtNtCsdGrGZaRBwMb_3syn10punctuated8PairsMutNtNtBQ_2ty4TypeNtNtBQ_5token5CommaENtB2_12IntoIterator9into_iterCsjTXeTLYUiB9_18tracing_attributes, symObjAddr: 0x5220, symBinAddr: 0x39B30, symSize: 0x20 }
  - { offset: 0x7A1AE, size: 0x8, addend: 0x0, symName: __RNvXNtNtNtCsieiGu2EXtoJ_4core4iter6traits7collectINtNtCsdGrGZaRBwMb_3syn10punctuated8PairsMutNtNtBQ_2ty9BareFnArgNtNtBQ_5token5CommaENtB2_12IntoIterator9into_iterCsjTXeTLYUiB9_18tracing_attributes, symObjAddr: 0x5240, symBinAddr: 0x39B50, symSize: 0x20 }
  - { offset: 0x7A1E5, size: 0x8, addend: 0x0, symName: __RNvXNtNtNtCsieiGu2EXtoJ_4core4iter6traits7collectINtNtCsdGrGZaRBwMb_3syn10punctuated8PairsMutNtNtBQ_3pat3PatNtNtBQ_5token2OrENtB2_12IntoIterator9into_iterCsjTXeTLYUiB9_18tracing_attributes, symObjAddr: 0x5260, symBinAddr: 0x39B70, symSize: 0x20 }
  - { offset: 0x7A21C, size: 0x8, addend: 0x0, symName: __RNvXNtNtNtCsieiGu2EXtoJ_4core4iter6traits7collectINtNtCsdGrGZaRBwMb_3syn10punctuated8PairsMutNtNtBQ_3pat3PatNtNtBQ_5token5CommaENtB2_12IntoIterator9into_iterCsjTXeTLYUiB9_18tracing_attributes, symObjAddr: 0x5280, symBinAddr: 0x39B90, symSize: 0x20 }
  - { offset: 0x7A253, size: 0x8, addend: 0x0, symName: __RNvXNtNtNtCsieiGu2EXtoJ_4core4iter6traits7collectINtNtCsdGrGZaRBwMb_3syn10punctuated8PairsMutNtNtBQ_3pat8FieldPatNtNtBQ_5token5CommaENtB2_12IntoIterator9into_iterCsjTXeTLYUiB9_18tracing_attributes, symObjAddr: 0x52A0, symBinAddr: 0x39BB0, symSize: 0x20 }
  - { offset: 0x7A28A, size: 0x8, addend: 0x0, symName: __RNvXNtNtNtCsieiGu2EXtoJ_4core4iter6traits7collectINtNtCsdGrGZaRBwMb_3syn10punctuated8PairsMutNtNtBQ_4data5FieldNtNtBQ_5token5CommaENtB2_12IntoIterator9into_iterCsjTXeTLYUiB9_18tracing_attributes, symObjAddr: 0x52C0, symBinAddr: 0x39BD0, symSize: 0x20 }
  - { offset: 0x7A2C1, size: 0x8, addend: 0x0, symName: __RNvXNtNtNtCsieiGu2EXtoJ_4core4iter6traits7collectINtNtCsdGrGZaRBwMb_3syn10punctuated8PairsMutNtNtBQ_4data7VariantNtNtBQ_5token5CommaENtB2_12IntoIterator9into_iterCsjTXeTLYUiB9_18tracing_attributes, symObjAddr: 0x52E0, symBinAddr: 0x39BF0, symSize: 0x20 }
  - { offset: 0x7A2F8, size: 0x8, addend: 0x0, symName: __RNvXNtNtNtCsieiGu2EXtoJ_4core4iter6traits7collectINtNtCsdGrGZaRBwMb_3syn10punctuated8PairsMutNtNtBQ_4expr10FieldValueNtNtBQ_5token5CommaENtB2_12IntoIterator9into_iterCsjTXeTLYUiB9_18tracing_attributes, symObjAddr: 0x5300, symBinAddr: 0x39C10, symSize: 0x20 }
  - { offset: 0x7A32F, size: 0x8, addend: 0x0, symName: __RNvXNtNtNtCsieiGu2EXtoJ_4core4iter6traits7collectINtNtCsdGrGZaRBwMb_3syn10punctuated8PairsMutNtNtBQ_4expr4ExprNtNtBQ_5token5CommaENtB2_12IntoIterator9into_iterCsjTXeTLYUiB9_18tracing_attributes, symObjAddr: 0x5320, symBinAddr: 0x39C30, symSize: 0x20 }
  - { offset: 0x7A366, size: 0x8, addend: 0x0, symName: __RNvXNtNtNtCsieiGu2EXtoJ_4core4iter6traits7collectINtNtCsdGrGZaRBwMb_3syn10punctuated8PairsMutNtNtBQ_4item5FnArgNtNtBQ_5token5CommaENtB2_12IntoIterator9into_iterCsjTXeTLYUiB9_18tracing_attributes, symObjAddr: 0x5340, symBinAddr: 0x39C50, symSize: 0x20 }
  - { offset: 0x7A39D, size: 0x8, addend: 0x0, symName: __RNvXNtNtNtCsieiGu2EXtoJ_4core4iter6traits7collectINtNtCsdGrGZaRBwMb_3syn10punctuated8PairsMutNtNtBQ_4item7UseTreeNtNtBQ_5token5CommaENtB2_12IntoIterator9into_iterCsjTXeTLYUiB9_18tracing_attributes, symObjAddr: 0x5360, symBinAddr: 0x39C70, symSize: 0x20 }
  - { offset: 0x7A3D4, size: 0x8, addend: 0x0, symName: __RNvXNtNtNtCsieiGu2EXtoJ_4core4iter6traits7collectINtNtCsdGrGZaRBwMb_3syn10punctuated8PairsMutNtNtBQ_4path11PathSegmentNtNtBQ_5token7PathSepENtB2_12IntoIterator9into_iterCsjTXeTLYUiB9_18tracing_attributes, symObjAddr: 0x5380, symBinAddr: 0x39C90, symSize: 0x20 }
  - { offset: 0x7A40B, size: 0x8, addend: 0x0, symName: __RNvXNtNtNtCsieiGu2EXtoJ_4core4iter6traits7collectINtNtCsdGrGZaRBwMb_3syn10punctuated8PairsMutNtNtBQ_4path15GenericArgumentNtNtBQ_5token5CommaENtB2_12IntoIterator9into_iterCsjTXeTLYUiB9_18tracing_attributes, symObjAddr: 0x53A0, symBinAddr: 0x39CB0, symSize: 0x20 }
  - { offset: 0x7A442, size: 0x8, addend: 0x0, symName: __RNvXNtNtNtCsieiGu2EXtoJ_4core4iter6traits7collectINtNtCsdGrGZaRBwMb_3syn10punctuated8PairsMutNtNtBQ_8generics12GenericParamNtNtBQ_5token5CommaENtB2_12IntoIterator9into_iterCsjTXeTLYUiB9_18tracing_attributes, symObjAddr: 0x53C0, symBinAddr: 0x39CD0, symSize: 0x20 }
  - { offset: 0x7A479, size: 0x8, addend: 0x0, symName: __RNvXNtNtNtCsieiGu2EXtoJ_4core4iter6traits7collectINtNtCsdGrGZaRBwMb_3syn10punctuated8PairsMutNtNtBQ_8generics13CapturedParamNtNtBQ_5token5CommaENtB2_12IntoIterator9into_iterCsjTXeTLYUiB9_18tracing_attributes, symObjAddr: 0x53E0, symBinAddr: 0x39CF0, symSize: 0x20 }
  - { offset: 0x7A4B0, size: 0x8, addend: 0x0, symName: __RNvXNtNtNtCsieiGu2EXtoJ_4core4iter6traits7collectINtNtCsdGrGZaRBwMb_3syn10punctuated8PairsMutNtNtBQ_8generics14TypeParamBoundNtNtBQ_5token4PlusENtB2_12IntoIterator9into_iterCsjTXeTLYUiB9_18tracing_attributes, symObjAddr: 0x5400, symBinAddr: 0x39D10, symSize: 0x20 }
  - { offset: 0x7A4E7, size: 0x8, addend: 0x0, symName: __RNvXNtNtNtCsieiGu2EXtoJ_4core4iter6traits7collectINtNtCsdGrGZaRBwMb_3syn10punctuated8PairsMutNtNtBQ_8generics14WherePredicateNtNtBQ_5token5CommaENtB2_12IntoIterator9into_iterCsjTXeTLYUiB9_18tracing_attributes, symObjAddr: 0x5420, symBinAddr: 0x39D30, symSize: 0x20 }
  - { offset: 0x7A51E, size: 0x8, addend: 0x0, symName: __RNvXNtNtNtCsieiGu2EXtoJ_4core4iter6traits7collectINtNtCsdGrGZaRBwMb_3syn10punctuated8PairsMutNtNtBQ_8lifetime8LifetimeNtNtBQ_5token4PlusENtB2_12IntoIterator9into_iterCsjTXeTLYUiB9_18tracing_attributes, symObjAddr: 0x5440, symBinAddr: 0x39D50, symSize: 0x20 }
  - { offset: 0x7A561, size: 0x8, addend: 0x0, symName: __RNvYINtNtCsdGrGZaRBwMb_3syn10punctuated11PrivateIterNtCsaKzlTDPUHDb_11proc_macro25IdentNtNtB7_5token3DotENtNtNtNtCsieiGu2EXtoJ_4core4iter6traits10exact_size17ExactSizeIterator8is_emptyCsjTXeTLYUiB9_18tracing_attributes, symObjAddr: 0x7A10, symBinAddr: 0x3C320, symSize: 0x20 }
  - { offset: 0x7A596, size: 0x8, addend: 0x0, symName: __RNvYINtNtCsdGrGZaRBwMb_3syn10punctuated11PrivateIterNtNtCsjTXeTLYUiB9_18tracing_attributes4attr5FieldNtNtB7_5token5CommaENtNtNtNtCsieiGu2EXtoJ_4core4iter6traits10exact_size17ExactSizeIterator8is_emptyBS_, symObjAddr: 0x7D10, symBinAddr: 0x3C620, symSize: 0x20 }
  - { offset: 0x7A5CB, size: 0x8, addend: 0x0, symName: __RNvYINtNtCsdGrGZaRBwMb_3syn10punctuated14PrivateIterMutNtNtCsjTXeTLYUiB9_18tracing_attributes4attr5FieldNtNtB7_5token5CommaENtNtNtNtCsieiGu2EXtoJ_4core4iter6traits10exact_size17ExactSizeIterator8is_emptyBV_, symObjAddr: 0x8010, symBinAddr: 0x3C920, symSize: 0x20 }
  - { offset: 0x7A60C, size: 0x8, addend: 0x0, symName: __RNvYINtNtCsdGrGZaRBwMb_3syn10punctuated11PrivateIterNtCsaKzlTDPUHDb_11proc_macro25IdentNtNtB7_5token3DotENtNtNtNtCsieiGu2EXtoJ_4core4iter6traits12double_ended19DoubleEndedIterator15advance_back_byCsjTXeTLYUiB9_18tracing_attributes, symObjAddr: 0x7A30, symBinAddr: 0x3C340, symSize: 0x1A0 }
  - { offset: 0x7A78B, size: 0x8, addend: 0x0, symName: __RNvYINtNtCsdGrGZaRBwMb_3syn10punctuated11PrivateIterNtCsaKzlTDPUHDb_11proc_macro25IdentNtNtB7_5token3DotENtNtNtNtCsieiGu2EXtoJ_4core4iter6traits12double_ended19DoubleEndedIterator8nth_backCsjTXeTLYUiB9_18tracing_attributes, symObjAddr: 0x7BD0, symBinAddr: 0x3C4E0, symSize: 0x70 }
  - { offset: 0x7A809, size: 0x8, addend: 0x0, symName: __RNvYINtNtCsdGrGZaRBwMb_3syn10punctuated11PrivateIterNtNtCsjTXeTLYUiB9_18tracing_attributes4attr5FieldNtNtB7_5token5CommaENtNtNtNtCsieiGu2EXtoJ_4core4iter6traits12double_ended19DoubleEndedIterator15advance_back_byBS_, symObjAddr: 0x7D30, symBinAddr: 0x3C640, symSize: 0x1A0 }
  - { offset: 0x7A988, size: 0x8, addend: 0x0, symName: __RNvYINtNtCsdGrGZaRBwMb_3syn10punctuated11PrivateIterNtNtCsjTXeTLYUiB9_18tracing_attributes4attr5FieldNtNtB7_5token5CommaENtNtNtNtCsieiGu2EXtoJ_4core4iter6traits12double_ended19DoubleEndedIterator8nth_backBS_, symObjAddr: 0x7ED0, symBinAddr: 0x3C7E0, symSize: 0x70 }
  - { offset: 0x7AA06, size: 0x8, addend: 0x0, symName: __RNvYINtNtCsdGrGZaRBwMb_3syn10punctuated14PrivateIterMutNtNtCsjTXeTLYUiB9_18tracing_attributes4attr5FieldNtNtB7_5token5CommaENtNtNtNtCsieiGu2EXtoJ_4core4iter6traits12double_ended19DoubleEndedIterator15advance_back_byBV_, symObjAddr: 0x8030, symBinAddr: 0x3C940, symSize: 0x1A0 }
  - { offset: 0x7AB85, size: 0x8, addend: 0x0, symName: __RNvYINtNtCsdGrGZaRBwMb_3syn10punctuated14PrivateIterMutNtNtCsjTXeTLYUiB9_18tracing_attributes4attr5FieldNtNtB7_5token5CommaENtNtNtNtCsieiGu2EXtoJ_4core4iter6traits12double_ended19DoubleEndedIterator8nth_backBV_, symObjAddr: 0x81D0, symBinAddr: 0x3CAE0, symSize: 0x70 }
  - { offset: 0x7DE36, size: 0x8, addend: 0x0, symName: __RNvMNtCsdGrGZaRBwMb_3syn10punctuatedINtB2_10PunctuatedNtCsaKzlTDPUHDb_11proc_macro25IdentNtNtB4_5token3DotE10push_punctCsjTXeTLYUiB9_18tracing_attributes, symObjAddr: 0x2410, symBinAddr: 0x36D20, symSize: 0x210 }
  - { offset: 0x7DEB4, size: 0x8, addend: 0x0, symName: __RNvMNtCsdGrGZaRBwMb_3syn10punctuatedINtB2_10PunctuatedNtCsaKzlTDPUHDb_11proc_macro25IdentNtNtB4_5token3DotE10push_valueCsjTXeTLYUiB9_18tracing_attributes, symObjAddr: 0x2620, symBinAddr: 0x36F30, symSize: 0x1B0 }
  - { offset: 0x7DF22, size: 0x8, addend: 0x0, symName: __RNvMNtCsdGrGZaRBwMb_3syn10punctuatedINtB2_10PunctuatedNtCsaKzlTDPUHDb_11proc_macro25IdentNtNtB4_5token3DotE17empty_or_trailingCsjTXeTLYUiB9_18tracing_attributes, symObjAddr: 0x27D0, symBinAddr: 0x370E0, symSize: 0x30 }
  - { offset: 0x7DFCA, size: 0x8, addend: 0x0, symName: __RNvMNtCsdGrGZaRBwMb_3syn10punctuatedINtB2_10PunctuatedNtCsaKzlTDPUHDb_11proc_macro25IdentNtNtB4_5token3DotE29parse_separated_nonempty_withCsjTXeTLYUiB9_18tracing_attributes, symObjAddr: 0x2800, symBinAddr: 0x37110, symSize: 0x390 }
  - { offset: 0x7E0CF, size: 0x8, addend: 0x0, symName: __RNvMNtCsdGrGZaRBwMb_3syn10punctuatedINtB2_10PunctuatedNtCsaKzlTDPUHDb_11proc_macro25IdentNtNtB4_5token3DotE3newCsjTXeTLYUiB9_18tracing_attributes, symObjAddr: 0x2B90, symBinAddr: 0x374A0, symSize: 0x50 }
  - { offset: 0x7E14A, size: 0x8, addend: 0x0, symName: __RNvMNtCsdGrGZaRBwMb_3syn10punctuatedINtB2_10PunctuatedNtCsaKzlTDPUHDb_11proc_macro25IdentNtNtB4_5token3DotE4iterCsjTXeTLYUiB9_18tracing_attributes, symObjAddr: 0x2BE0, symBinAddr: 0x374F0, symSize: 0xC0 }
  - { offset: 0x7E19C, size: 0x8, addend: 0x0, symName: __RNvMNtCsdGrGZaRBwMb_3syn10punctuatedINtB2_10PunctuatedNtCsaKzlTDPUHDb_11proc_macro25IdentNtNtB4_5token3DotE4lastCsjTXeTLYUiB9_18tracing_attributes, symObjAddr: 0x2CA0, symBinAddr: 0x375B0, symSize: 0x70 }
  - { offset: 0x7E1D0, size: 0x8, addend: 0x0, symName: __RNvMNtCsdGrGZaRBwMb_3syn10punctuatedINtB2_10PunctuatedNtCsaKzlTDPUHDb_11proc_macro25IdentNtNtB4_5token3DotE5firstCsjTXeTLYUiB9_18tracing_attributes, symObjAddr: 0x2D10, symBinAddr: 0x37620, symSize: 0x70 }
  - { offset: 0x7E204, size: 0x8, addend: 0x0, symName: __RNvMNtCsdGrGZaRBwMb_3syn10punctuatedINtB2_10PunctuatedNtCsaKzlTDPUHDb_11proc_macro25IdentNtNtB4_5token3DotE5pairsCsjTXeTLYUiB9_18tracing_attributes, symObjAddr: 0x2D80, symBinAddr: 0x37690, symSize: 0x80 }
  - { offset: 0x7E263, size: 0x8, addend: 0x0, symName: __RNvMNtCsdGrGZaRBwMb_3syn10punctuatedINtB2_10PunctuatedNtCsaKzlTDPUHDb_11proc_macro25IdentNtNtB4_5token5CommaE10push_punctCsjTXeTLYUiB9_18tracing_attributes, symObjAddr: 0x2E00, symBinAddr: 0x37710, symSize: 0x210 }
  - { offset: 0x7E2E1, size: 0x8, addend: 0x0, symName: __RNvMNtCsdGrGZaRBwMb_3syn10punctuatedINtB2_10PunctuatedNtCsaKzlTDPUHDb_11proc_macro25IdentNtNtB4_5token5CommaE10push_valueCsjTXeTLYUiB9_18tracing_attributes, symObjAddr: 0x3010, symBinAddr: 0x37920, symSize: 0x1B0 }
  - { offset: 0x7E34F, size: 0x8, addend: 0x0, symName: __RNvMNtCsdGrGZaRBwMb_3syn10punctuatedINtB2_10PunctuatedNtCsaKzlTDPUHDb_11proc_macro25IdentNtNtB4_5token5CommaE17empty_or_trailingCsjTXeTLYUiB9_18tracing_attributes, symObjAddr: 0x31C0, symBinAddr: 0x37AD0, symSize: 0x30 }
  - { offset: 0x7E383, size: 0x8, addend: 0x0, symName: __RNvMNtCsdGrGZaRBwMb_3syn10punctuatedINtB2_10PunctuatedNtCsaKzlTDPUHDb_11proc_macro25IdentNtNtB4_5token5CommaE21parse_terminated_withCsjTXeTLYUiB9_18tracing_attributes, symObjAddr: 0x31F0, symBinAddr: 0x37B00, symSize: 0x3A0 }
  - { offset: 0x7E488, size: 0x8, addend: 0x0, symName: __RNvMNtCsdGrGZaRBwMb_3syn10punctuatedINtB2_10PunctuatedNtCsaKzlTDPUHDb_11proc_macro25IdentNtNtB4_5token5CommaE3lenCsjTXeTLYUiB9_18tracing_attributes, symObjAddr: 0x3590, symBinAddr: 0x37EA0, symSize: 0x80 }
  - { offset: 0x7E4BC, size: 0x8, addend: 0x0, symName: __RNvMNtCsdGrGZaRBwMb_3syn10punctuatedINtB2_10PunctuatedNtCsaKzlTDPUHDb_11proc_macro25IdentNtNtB4_5token5CommaE3newCsjTXeTLYUiB9_18tracing_attributes, symObjAddr: 0x3610, symBinAddr: 0x37F20, symSize: 0x50 }
  - { offset: 0x7E523, size: 0x8, addend: 0x0, symName: __RNvMNtCsdGrGZaRBwMb_3syn10punctuatedINtB2_10PunctuatedNtNtB4_2ty4TypeNtNtB4_5token5CommaE9pairs_mutCsjTXeTLYUiB9_18tracing_attributes, symObjAddr: 0x3660, symBinAddr: 0x37F70, symSize: 0x80 }
  - { offset: 0x7E598, size: 0x8, addend: 0x0, symName: __RNvMNtCsdGrGZaRBwMb_3syn10punctuatedINtB2_10PunctuatedNtNtB4_2ty9BareFnArgNtNtB4_5token5CommaE9pairs_mutCsjTXeTLYUiB9_18tracing_attributes, symObjAddr: 0x36E0, symBinAddr: 0x37FF0, symSize: 0x80 }
  - { offset: 0x7E60D, size: 0x8, addend: 0x0, symName: __RNvMNtCsdGrGZaRBwMb_3syn10punctuatedINtB2_10PunctuatedNtNtB4_3pat3PatNtNtB4_5token2OrE9pairs_mutCsjTXeTLYUiB9_18tracing_attributes, symObjAddr: 0x3760, symBinAddr: 0x38070, symSize: 0x80 }
  - { offset: 0x7E675, size: 0x8, addend: 0x0, symName: __RNvMNtCsdGrGZaRBwMb_3syn10punctuatedINtB2_10PunctuatedNtNtB4_3pat3PatNtNtB4_5token5CommaE9pairs_mutCsjTXeTLYUiB9_18tracing_attributes, symObjAddr: 0x37E0, symBinAddr: 0x380F0, symSize: 0x80 }
  - { offset: 0x7E6B6, size: 0x8, addend: 0x0, symName: __RNvMNtCsdGrGZaRBwMb_3syn10punctuatedINtB2_10PunctuatedNtNtB4_3pat8FieldPatNtNtB4_5token5CommaE3lenCsjTXeTLYUiB9_18tracing_attributes, symObjAddr: 0x3860, symBinAddr: 0x38170, symSize: 0x80 }
  - { offset: 0x7E72B, size: 0x8, addend: 0x0, symName: __RNvMNtCsdGrGZaRBwMb_3syn10punctuatedINtB2_10PunctuatedNtNtB4_3pat8FieldPatNtNtB4_5token5CommaE9pairs_mutCsjTXeTLYUiB9_18tracing_attributes, symObjAddr: 0x38E0, symBinAddr: 0x381F0, symSize: 0x80 }
  - { offset: 0x7E7A0, size: 0x8, addend: 0x0, symName: __RNvMNtCsdGrGZaRBwMb_3syn10punctuatedINtB2_10PunctuatedNtNtB4_4data5FieldNtNtB4_5token5CommaE9pairs_mutCsjTXeTLYUiB9_18tracing_attributes, symObjAddr: 0x3960, symBinAddr: 0x38270, symSize: 0x80 }
  - { offset: 0x7E815, size: 0x8, addend: 0x0, symName: __RNvMNtCsdGrGZaRBwMb_3syn10punctuatedINtB2_10PunctuatedNtNtB4_4data7VariantNtNtB4_5token5CommaE9pairs_mutCsjTXeTLYUiB9_18tracing_attributes, symObjAddr: 0x39E0, symBinAddr: 0x382F0, symSize: 0x80 }
  - { offset: 0x7E88A, size: 0x8, addend: 0x0, symName: __RNvMNtCsdGrGZaRBwMb_3syn10punctuatedINtB2_10PunctuatedNtNtB4_4expr10FieldValueNtNtB4_5token5CommaE9pairs_mutCsjTXeTLYUiB9_18tracing_attributes, symObjAddr: 0x3A60, symBinAddr: 0x38370, symSize: 0x80 }
  - { offset: 0x7E8F2, size: 0x8, addend: 0x0, symName: __RNvMNtCsdGrGZaRBwMb_3syn10punctuatedINtB2_10PunctuatedNtNtB4_4expr4ExprNtNtB4_5token5CommaE9pairs_mutCsjTXeTLYUiB9_18tracing_attributes, symObjAddr: 0x3AE0, symBinAddr: 0x383F0, symSize: 0x80 }
  - { offset: 0x7E933, size: 0x8, addend: 0x0, symName: __RNvMNtCsdGrGZaRBwMb_3syn10punctuatedINtB2_10PunctuatedNtNtB4_4item5FnArgNtNtB4_5token5CommaE3lenCsjTXeTLYUiB9_18tracing_attributes, symObjAddr: 0x3B60, symBinAddr: 0x38470, symSize: 0x80 }
  - { offset: 0x7E9A8, size: 0x8, addend: 0x0, symName: __RNvMNtCsdGrGZaRBwMb_3syn10punctuatedINtB2_10PunctuatedNtNtB4_4item5FnArgNtNtB4_5token5CommaE9pairs_mutCsjTXeTLYUiB9_18tracing_attributes, symObjAddr: 0x3BE0, symBinAddr: 0x384F0, symSize: 0x80 }
  - { offset: 0x7EA1D, size: 0x8, addend: 0x0, symName: __RNvMNtCsdGrGZaRBwMb_3syn10punctuatedINtB2_10PunctuatedNtNtB4_4item7UseTreeNtNtB4_5token5CommaE9pairs_mutCsjTXeTLYUiB9_18tracing_attributes, symObjAddr: 0x3C60, symBinAddr: 0x38570, symSize: 0x80 }
  - { offset: 0x7EA92, size: 0x8, addend: 0x0, symName: __RNvMNtCsdGrGZaRBwMb_3syn10punctuatedINtB2_10PunctuatedNtNtB4_4path11PathSegmentNtNtB4_5token7PathSepE9pairs_mutCsjTXeTLYUiB9_18tracing_attributes, symObjAddr: 0x3CE0, symBinAddr: 0x385F0, symSize: 0x80 }
  - { offset: 0x7EB07, size: 0x8, addend: 0x0, symName: __RNvMNtCsdGrGZaRBwMb_3syn10punctuatedINtB2_10PunctuatedNtNtB4_4path15GenericArgumentNtNtB4_5token5CommaE9pairs_mutCsjTXeTLYUiB9_18tracing_attributes, symObjAddr: 0x3D60, symBinAddr: 0x38670, symSize: 0x80 }
  - { offset: 0x7EB7C, size: 0x8, addend: 0x0, symName: __RNvMNtCsdGrGZaRBwMb_3syn10punctuatedINtB2_10PunctuatedNtNtB4_8generics12GenericParamNtNtB4_5token5CommaE9pairs_mutCsjTXeTLYUiB9_18tracing_attributes, symObjAddr: 0x3DE0, symBinAddr: 0x386F0, symSize: 0x80 }
  - { offset: 0x7EBF1, size: 0x8, addend: 0x0, symName: __RNvMNtCsdGrGZaRBwMb_3syn10punctuatedINtB2_10PunctuatedNtNtB4_8generics13CapturedParamNtNtB4_5token5CommaE9pairs_mutCsjTXeTLYUiB9_18tracing_attributes, symObjAddr: 0x3E60, symBinAddr: 0x38770, symSize: 0x80 }
  - { offset: 0x7EC66, size: 0x8, addend: 0x0, symName: __RNvMNtCsdGrGZaRBwMb_3syn10punctuatedINtB2_10PunctuatedNtNtB4_8generics14TypeParamBoundNtNtB4_5token4PlusE9pairs_mutCsjTXeTLYUiB9_18tracing_attributes, symObjAddr: 0x3EE0, symBinAddr: 0x387F0, symSize: 0x80 }
  - { offset: 0x7ECDB, size: 0x8, addend: 0x0, symName: __RNvMNtCsdGrGZaRBwMb_3syn10punctuatedINtB2_10PunctuatedNtNtB4_8generics14WherePredicateNtNtB4_5token5CommaE9pairs_mutCsjTXeTLYUiB9_18tracing_attributes, symObjAddr: 0x3F60, symBinAddr: 0x38870, symSize: 0x80 }
  - { offset: 0x7ED50, size: 0x8, addend: 0x0, symName: __RNvMNtCsdGrGZaRBwMb_3syn10punctuatedINtB2_10PunctuatedNtNtB4_8lifetime8LifetimeNtNtB4_5token4PlusE9pairs_mutCsjTXeTLYUiB9_18tracing_attributes, symObjAddr: 0x3FE0, symBinAddr: 0x388F0, symSize: 0x80 }
  - { offset: 0x7EDC9, size: 0x8, addend: 0x0, symName: __RNvMNtCsdGrGZaRBwMb_3syn10punctuatedINtB2_10PunctuatedNtNtCsjTXeTLYUiB9_18tracing_attributes4attr5FieldNtNtB4_5token5CommaE10push_punctBU_, symObjAddr: 0x4060, symBinAddr: 0x38970, symSize: 0x230 }
  - { offset: 0x7EE47, size: 0x8, addend: 0x0, symName: __RNvMNtCsdGrGZaRBwMb_3syn10punctuatedINtB2_10PunctuatedNtNtCsjTXeTLYUiB9_18tracing_attributes4attr5FieldNtNtB4_5token5CommaE10push_valueBU_, symObjAddr: 0x4290, symBinAddr: 0x38BA0, symSize: 0x1C0 }
  - { offset: 0x7EEB5, size: 0x8, addend: 0x0, symName: __RNvMNtCsdGrGZaRBwMb_3syn10punctuatedINtB2_10PunctuatedNtNtCsjTXeTLYUiB9_18tracing_attributes4attr5FieldNtNtB4_5token5CommaE17empty_or_trailingBU_, symObjAddr: 0x4450, symBinAddr: 0x38D60, symSize: 0x30 }
  - { offset: 0x7EF01, size: 0x8, addend: 0x0, symName: __RNvMNtCsdGrGZaRBwMb_3syn10punctuatedINtB2_10PunctuatedNtNtCsjTXeTLYUiB9_18tracing_attributes4attr5FieldNtNtB4_5token5CommaE21parse_terminated_withBU_, symObjAddr: 0x4480, symBinAddr: 0x38D90, symSize: 0x3A0 }
  - { offset: 0x7F006, size: 0x8, addend: 0x0, symName: __RNvMNtCsdGrGZaRBwMb_3syn10punctuatedINtB2_10PunctuatedNtNtCsjTXeTLYUiB9_18tracing_attributes4attr5FieldNtNtB4_5token5CommaE3newBU_, symObjAddr: 0x4820, symBinAddr: 0x39130, symSize: 0x50 }
  - { offset: 0x7F067, size: 0x8, addend: 0x0, symName: __RNvMNtCsdGrGZaRBwMb_3syn10punctuatedINtB2_10PunctuatedNtNtCsjTXeTLYUiB9_18tracing_attributes4attr5FieldNtNtB4_5token5CommaE4iterBU_, symObjAddr: 0x4870, symBinAddr: 0x39180, symSize: 0xC0 }
  - { offset: 0x7F0B9, size: 0x8, addend: 0x0, symName: __RNvMNtCsdGrGZaRBwMb_3syn10punctuatedINtB2_10PunctuatedNtNtCsjTXeTLYUiB9_18tracing_attributes4attr5FieldNtNtB4_5token5CommaE5pairsBU_, symObjAddr: 0x4930, symBinAddr: 0x39240, symSize: 0x80 }
  - { offset: 0x7F142, size: 0x8, addend: 0x0, symName: __RNvMNtCsdGrGZaRBwMb_3syn10punctuatedINtB2_10PunctuatedNtNtCsjTXeTLYUiB9_18tracing_attributes4attr5FieldNtNtB4_5token5CommaE8iter_mutBU_, symObjAddr: 0x49B0, symBinAddr: 0x392C0, symSize: 0xC0 }
  - { offset: 0x7F1BB, size: 0x8, addend: 0x0, symName: __RNvMsJ_NtCsdGrGZaRBwMb_3syn10punctuatedINtB5_4PairQNtNtB7_2ty4TypeQNtNtB7_5token5CommaE9value_mutCsjTXeTLYUiB9_18tracing_attributes, symObjAddr: 0x4A70, symBinAddr: 0x39380, symSize: 0x60 }
  - { offset: 0x7F228, size: 0x8, addend: 0x0, symName: __RNvMsJ_NtCsdGrGZaRBwMb_3syn10punctuatedINtB5_4PairQNtNtB7_2ty9BareFnArgQNtNtB7_5token5CommaE9value_mutCsjTXeTLYUiB9_18tracing_attributes, symObjAddr: 0x4AD0, symBinAddr: 0x393E0, symSize: 0x60 }
  - { offset: 0x7F2A2, size: 0x8, addend: 0x0, symName: __RNvMsJ_NtCsdGrGZaRBwMb_3syn10punctuatedINtB5_4PairQNtNtB7_3pat3PatQNtNtB7_5token2OrE9value_mutCsjTXeTLYUiB9_18tracing_attributes, symObjAddr: 0x4B30, symBinAddr: 0x39440, symSize: 0x60 }
  - { offset: 0x7F302, size: 0x8, addend: 0x0, symName: __RNvMsJ_NtCsdGrGZaRBwMb_3syn10punctuatedINtB5_4PairQNtNtB7_3pat3PatQNtNtB7_5token5CommaE9value_mutCsjTXeTLYUiB9_18tracing_attributes, symObjAddr: 0x4B90, symBinAddr: 0x394A0, symSize: 0x60 }
  - { offset: 0x7F36F, size: 0x8, addend: 0x0, symName: __RNvMsJ_NtCsdGrGZaRBwMb_3syn10punctuatedINtB5_4PairQNtNtB7_3pat8FieldPatQNtNtB7_5token5CommaE9value_mutCsjTXeTLYUiB9_18tracing_attributes, symObjAddr: 0x4BF0, symBinAddr: 0x39500, symSize: 0x60 }
  - { offset: 0x7F3DC, size: 0x8, addend: 0x0, symName: __RNvMsJ_NtCsdGrGZaRBwMb_3syn10punctuatedINtB5_4PairQNtNtB7_4data5FieldQNtNtB7_5token5CommaE9value_mutCsjTXeTLYUiB9_18tracing_attributes, symObjAddr: 0x4C50, symBinAddr: 0x39560, symSize: 0x60 }
  - { offset: 0x7F449, size: 0x8, addend: 0x0, symName: __RNvMsJ_NtCsdGrGZaRBwMb_3syn10punctuatedINtB5_4PairQNtNtB7_4data7VariantQNtNtB7_5token5CommaE9value_mutCsjTXeTLYUiB9_18tracing_attributes, symObjAddr: 0x4CB0, symBinAddr: 0x395C0, symSize: 0x60 }
  - { offset: 0x7F4B6, size: 0x8, addend: 0x0, symName: __RNvMsJ_NtCsdGrGZaRBwMb_3syn10punctuatedINtB5_4PairQNtNtB7_4expr10FieldValueQNtNtB7_5token5CommaE9value_mutCsjTXeTLYUiB9_18tracing_attributes, symObjAddr: 0x4D10, symBinAddr: 0x39620, symSize: 0x60 }
  - { offset: 0x7F523, size: 0x8, addend: 0x0, symName: __RNvMsJ_NtCsdGrGZaRBwMb_3syn10punctuatedINtB5_4PairQNtNtB7_4expr4ExprQNtNtB7_5token5CommaE9value_mutCsjTXeTLYUiB9_18tracing_attributes, symObjAddr: 0x4D70, symBinAddr: 0x39680, symSize: 0x60 }
  - { offset: 0x7F590, size: 0x8, addend: 0x0, symName: __RNvMsJ_NtCsdGrGZaRBwMb_3syn10punctuatedINtB5_4PairQNtNtB7_4item5FnArgQNtNtB7_5token5CommaE9value_mutCsjTXeTLYUiB9_18tracing_attributes, symObjAddr: 0x4DD0, symBinAddr: 0x396E0, symSize: 0x60 }
  - { offset: 0x7F5FD, size: 0x8, addend: 0x0, symName: __RNvMsJ_NtCsdGrGZaRBwMb_3syn10punctuatedINtB5_4PairQNtNtB7_4item7UseTreeQNtNtB7_5token5CommaE9value_mutCsjTXeTLYUiB9_18tracing_attributes, symObjAddr: 0x4E30, symBinAddr: 0x39740, symSize: 0x60 }
  - { offset: 0x7F677, size: 0x8, addend: 0x0, symName: __RNvMsJ_NtCsdGrGZaRBwMb_3syn10punctuatedINtB5_4PairQNtNtB7_4path11PathSegmentQNtNtB7_5token7PathSepE9value_mutCsjTXeTLYUiB9_18tracing_attributes, symObjAddr: 0x4E90, symBinAddr: 0x397A0, symSize: 0x60 }
  - { offset: 0x7F6E4, size: 0x8, addend: 0x0, symName: __RNvMsJ_NtCsdGrGZaRBwMb_3syn10punctuatedINtB5_4PairQNtNtB7_4path15GenericArgumentQNtNtB7_5token5CommaE9value_mutCsjTXeTLYUiB9_18tracing_attributes, symObjAddr: 0x4EF0, symBinAddr: 0x39800, symSize: 0x60 }
  - { offset: 0x7F751, size: 0x8, addend: 0x0, symName: __RNvMsJ_NtCsdGrGZaRBwMb_3syn10punctuatedINtB5_4PairQNtNtB7_8generics12GenericParamQNtNtB7_5token5CommaE9value_mutCsjTXeTLYUiB9_18tracing_attributes, symObjAddr: 0x4F50, symBinAddr: 0x39860, symSize: 0x60 }
  - { offset: 0x7F7BE, size: 0x8, addend: 0x0, symName: __RNvMsJ_NtCsdGrGZaRBwMb_3syn10punctuatedINtB5_4PairQNtNtB7_8generics13CapturedParamQNtNtB7_5token5CommaE9value_mutCsjTXeTLYUiB9_18tracing_attributes, symObjAddr: 0x4FB0, symBinAddr: 0x398C0, symSize: 0x60 }
  - { offset: 0x7F838, size: 0x8, addend: 0x0, symName: __RNvMsJ_NtCsdGrGZaRBwMb_3syn10punctuatedINtB5_4PairQNtNtB7_8generics14TypeParamBoundQNtNtB7_5token4PlusE9value_mutCsjTXeTLYUiB9_18tracing_attributes, symObjAddr: 0x5010, symBinAddr: 0x39920, symSize: 0x60 }
  - { offset: 0x7F8A5, size: 0x8, addend: 0x0, symName: __RNvMsJ_NtCsdGrGZaRBwMb_3syn10punctuatedINtB5_4PairQNtNtB7_8generics14WherePredicateQNtNtB7_5token5CommaE9value_mutCsjTXeTLYUiB9_18tracing_attributes, symObjAddr: 0x5070, symBinAddr: 0x39980, symSize: 0x60 }
  - { offset: 0x7F912, size: 0x8, addend: 0x0, symName: __RNvMsJ_NtCsdGrGZaRBwMb_3syn10punctuatedINtB5_4PairQNtNtB7_8lifetime8LifetimeQNtNtB7_5token4PlusE9value_mutCsjTXeTLYUiB9_18tracing_attributes, symObjAddr: 0x50D0, symBinAddr: 0x399E0, symSize: 0x60 }
  - { offset: 0x7F974, size: 0x8, addend: 0x0, symName: __RNvXNtCs9OU1sGv5X54_5quote9to_tokensRINtNtCsdGrGZaRBwMb_3syn10punctuated10PunctuatedNtNtBE_8generics12GenericParamNtNtBE_5token5CommaENtB2_8ToTokens9to_tokensCsjTXeTLYUiB9_18tracing_attributes, symObjAddr: 0x5130, symBinAddr: 0x39A40, symSize: 0x30 }
  - { offset: 0x80109, size: 0x8, addend: 0x0, symName: __RINvXs3_NtNtCslJiobkLta79_5alloc3vec9into_iterINtB6_8IntoIterNtNtCsdGrGZaRBwMb_3syn4attr9AttributeENtNtNtNtCsieiGu2EXtoJ_4core4iter6traits8iterator8Iterator4folduNCINvNvB1z_9partition6extendBX_INtB8_3VecBX_ENCNvXs0_CsjTXeTLYUiB9_18tracing_attributesNtB3r_11MaybeItemFnINtNtB1H_7convert4FromNtNtB11_4item6ItemFnE4from0E0EB3r_, symObjAddr: 0x0, symBinAddr: 0x3CC20, symSize: 0x160 }
  - { offset: 0x846A3, size: 0x8, addend: 0x0, symName: __RINvYINtNtNtCslJiobkLta79_5alloc3vec9into_iter8IntoIterNtNtCsdGrGZaRBwMb_3syn4attr9AttributeENtNtNtNtCsieiGu2EXtoJ_4core4iter6traits8iterator8Iterator9partitionINtB8_3VecBR_ENCNvXs0_CsjTXeTLYUiB9_18tracing_attributesNtB2U_11MaybeItemFnINtNtB1B_7convert4FromNtNtBV_4item6ItemFnE4from0EB2U_, symObjAddr: 0x6E0, symBinAddr: 0x3D300, symSize: 0x1A0 }
  - { offset: 0x8472A, size: 0x8, addend: 0x0, symName: __RINvYINtNtNtCslJiobkLta79_5alloc3vec9into_iter8IntoIterTNtCsaKzlTDPUHDb_11proc_macro25IdentTBS_NtNtCsjTXeTLYUiB9_18tracing_attributes6expand10RecordTypeEEENtNtNtNtCsieiGu2EXtoJ_4core4iter6traits8iterator8Iterator3mapTBS_BS_ENCNCINvB1x_9gen_blockNtBU_11TokenStreamEs0_0s4_0EB1z_, symObjAddr: 0x880, symBinAddr: 0x3D4A0, symSize: 0x30 }
  - { offset: 0x84797, size: 0x8, addend: 0x0, symName: __RINvYINtNtNtCslJiobkLta79_5alloc3vec9into_iter8IntoIterTNtCsaKzlTDPUHDb_11proc_macro25IdentTBS_NtNtCsjTXeTLYUiB9_18tracing_attributes6expand10RecordTypeEEENtNtNtNtCsieiGu2EXtoJ_4core4iter6traits8iterator8Iterator3mapTBS_BS_ENCNCINvB1x_9gen_blockNtNtCsdGrGZaRBwMb_3syn4stmt5BlockEs0_0s4_0EB1z_, symObjAddr: 0x8B0, symBinAddr: 0x3D4D0, symSize: 0x30 }
  - { offset: 0x849E2, size: 0x8, addend: 0x0, symName: __RNvYINtNtNtCslJiobkLta79_5alloc3vec9into_iter8IntoIterNtCsaKzlTDPUHDb_11proc_macro25IdentENtNtNtNtCsieiGu2EXtoJ_4core4iter6traits10exact_size17ExactSizeIterator3lenCsjTXeTLYUiB9_18tracing_attributes, symObjAddr: 0x20B0, symBinAddr: 0x3ECD0, symSize: 0xE0 }
  - { offset: 0x84AE2, size: 0x8, addend: 0x0, symName: __RNvYINtNtNtCslJiobkLta79_5alloc3vec9into_iter8IntoIterNtNtCsdGrGZaRBwMb_3syn3pat3PatENtNtNtNtCsieiGu2EXtoJ_4core4iter6traits10exact_size17ExactSizeIterator3lenCsjTXeTLYUiB9_18tracing_attributes, symObjAddr: 0x2190, symBinAddr: 0x3EDB0, symSize: 0xE0 }
  - { offset: 0x84BE2, size: 0x8, addend: 0x0, symName: __RNvYINtNtNtCslJiobkLta79_5alloc3vec9into_iter8IntoIterNtNtCsdGrGZaRBwMb_3syn3pat8FieldPatENtNtNtNtCsieiGu2EXtoJ_4core4iter6traits10exact_size17ExactSizeIterator3lenCsjTXeTLYUiB9_18tracing_attributes, symObjAddr: 0x2270, symBinAddr: 0x3EE90, symSize: 0xE0 }
  - { offset: 0x84CE2, size: 0x8, addend: 0x0, symName: __RNvYINtNtNtCslJiobkLta79_5alloc3vec9into_iter8IntoIterNtNtCsdGrGZaRBwMb_3syn4item5FnArgENtNtNtNtCsieiGu2EXtoJ_4core4iter6traits10exact_size17ExactSizeIterator3lenCsjTXeTLYUiB9_18tracing_attributes, symObjAddr: 0x2350, symBinAddr: 0x3EF70, symSize: 0xE0 }
  - { offset: 0x84DE2, size: 0x8, addend: 0x0, symName: __RNvYINtNtNtCslJiobkLta79_5alloc3vec9into_iter8IntoIterNtNtCsdGrGZaRBwMb_3syn4stmt4StmtENtNtNtNtCsieiGu2EXtoJ_4core4iter6traits10exact_size17ExactSizeIterator3lenCsjTXeTLYUiB9_18tracing_attributes, symObjAddr: 0x2430, symBinAddr: 0x3F050, symSize: 0xE0 }
  - { offset: 0x84EE2, size: 0x8, addend: 0x0, symName: __RNvYINtNtNtCslJiobkLta79_5alloc3vec9into_iter8IntoIterTNtCsaKzlTDPUHDb_11proc_macro25IdentNtNtCsdGrGZaRBwMb_3syn5token5CommaEENtNtNtNtCsieiGu2EXtoJ_4core4iter6traits10exact_size17ExactSizeIterator3lenCsjTXeTLYUiB9_18tracing_attributes, symObjAddr: 0x2510, symBinAddr: 0x3F130, symSize: 0xE0 }
  - { offset: 0x84FE2, size: 0x8, addend: 0x0, symName: __RNvYINtNtNtCslJiobkLta79_5alloc3vec9into_iter8IntoIterTNtCsaKzlTDPUHDb_11proc_macro25IdentTBR_NtNtCsjTXeTLYUiB9_18tracing_attributes6expand10RecordTypeEEENtNtNtNtCsieiGu2EXtoJ_4core4iter6traits10exact_size17ExactSizeIterator3lenB1y_, symObjAddr: 0x25F0, symBinAddr: 0x3F210, symSize: 0xE0 }
  - { offset: 0x850E2, size: 0x8, addend: 0x0, symName: __RNvYINtNtNtCslJiobkLta79_5alloc3vec9into_iter8IntoIterTNtNtCsdGrGZaRBwMb_3syn3pat3PatNtNtBV_5token5CommaEENtNtNtNtCsieiGu2EXtoJ_4core4iter6traits10exact_size17ExactSizeIterator3lenCsjTXeTLYUiB9_18tracing_attributes, symObjAddr: 0x26D0, symBinAddr: 0x3F2F0, symSize: 0xE0 }
  - { offset: 0x851E2, size: 0x8, addend: 0x0, symName: __RNvYINtNtNtCslJiobkLta79_5alloc3vec9into_iter8IntoIterTNtNtCsdGrGZaRBwMb_3syn3pat8FieldPatNtNtBV_5token5CommaEENtNtNtNtCsieiGu2EXtoJ_4core4iter6traits10exact_size17ExactSizeIterator3lenCsjTXeTLYUiB9_18tracing_attributes, symObjAddr: 0x27B0, symBinAddr: 0x3F3D0, symSize: 0xE0 }
  - { offset: 0x852E2, size: 0x8, addend: 0x0, symName: __RNvYINtNtNtCslJiobkLta79_5alloc3vec9into_iter8IntoIterTNtNtCsdGrGZaRBwMb_3syn4item5FnArgNtNtBV_5token5CommaEENtNtNtNtCsieiGu2EXtoJ_4core4iter6traits10exact_size17ExactSizeIterator3lenCsjTXeTLYUiB9_18tracing_attributes, symObjAddr: 0x2890, symBinAddr: 0x3F4B0, symSize: 0xE0 }
  - { offset: 0x853EE, size: 0x8, addend: 0x0, symName: __RNvXNtNtNtCsieiGu2EXtoJ_4core4iter6traits7collectINtNtNtCslJiobkLta79_5alloc3vec9into_iter8IntoIterNtNtCsdGrGZaRBwMb_3syn4stmt4StmtENtB2_12IntoIterator9into_iterCsjTXeTLYUiB9_18tracing_attributes, symObjAddr: 0x990, symBinAddr: 0x3D5B0, symSize: 0x30 }
  - { offset: 0x8A8CD, size: 0x8, addend: 0x0, symName: __RINvXs3_NtNtCslJiobkLta79_5alloc3vec9into_iterINtB6_8IntoIterNtNtCsdGrGZaRBwMb_3syn4attr9AttributeENtNtNtNtCsieiGu2EXtoJ_4core4iter6traits8iterator8Iterator4folduNCINvNvB1z_9partition6extendBX_INtB8_3VecBX_ENCNvXs0_CsjTXeTLYUiB9_18tracing_attributesNtB3r_11MaybeItemFnINtNtB1H_7convert4FromNtNtB11_4item6ItemFnE4from0E0EB3r_, symObjAddr: 0x0, symBinAddr: 0x3CC20, symSize: 0x160 }
  - { offset: 0x8AA87, size: 0x8, addend: 0x0, symName: __RINvXs3_NtNtCslJiobkLta79_5alloc3vec9into_iterINtB6_8IntoIterTNtCsaKzlTDPUHDb_11proc_macro25IdentTBY_NtNtCsjTXeTLYUiB9_18tracing_attributes6expand10RecordTypeEEENtNtNtNtCsieiGu2EXtoJ_4core4iter6traits8iterator8Iterator8try_foldINtNtB8_13in_place_drop11InPlaceDropTBY_BY_EENCINvNtNtB2F_8adapters3map12map_try_foldBX_B4d_B3D_INtNtB2H_6result6ResultB3D_zENCNCINvB1D_9gen_blockNtB10_11TokenStreamEs0_0s4_0NCINvNtB8_16in_place_collect24write_in_place_with_dropB4d_E0E0B5b_EB1F_, symObjAddr: 0x160, symBinAddr: 0x3CD80, symSize: 0x2C0 }
  - { offset: 0x8AC50, size: 0x8, addend: 0x0, symName: __RINvXs3_NtNtCslJiobkLta79_5alloc3vec9into_iterINtB6_8IntoIterTNtCsaKzlTDPUHDb_11proc_macro25IdentTBY_NtNtCsjTXeTLYUiB9_18tracing_attributes6expand10RecordTypeEEENtNtNtNtCsieiGu2EXtoJ_4core4iter6traits8iterator8Iterator8try_foldINtNtB8_13in_place_drop11InPlaceDropTBY_BY_EENCINvNtNtB2F_8adapters3map12map_try_foldBX_B4d_B3D_INtNtB2H_6result6ResultB3D_zENCNCINvB1D_9gen_blockNtNtCsdGrGZaRBwMb_3syn4stmt5BlockEs0_0s4_0NCINvNtB8_16in_place_collect24write_in_place_with_dropB4d_E0E0B5b_EB1F_, symObjAddr: 0x420, symBinAddr: 0x3D040, symSize: 0x2C0 }
  - { offset: 0x8AE19, size: 0x8, addend: 0x0, symName: __RNvXs3_NtNtCslJiobkLta79_5alloc3vec9into_iterINtB5_8IntoIterNtCsaKzlTDPUHDb_11proc_macro25IdentENtNtNtNtCsieiGu2EXtoJ_4core4iter6traits8iterator8Iterator4nextCsjTXeTLYUiB9_18tracing_attributes, symObjAddr: 0xE20, symBinAddr: 0x3DA40, symSize: 0xF0 }
  - { offset: 0x8AF77, size: 0x8, addend: 0x0, symName: __RNvXs3_NtNtCslJiobkLta79_5alloc3vec9into_iterINtB5_8IntoIterNtCsaKzlTDPUHDb_11proc_macro25IdentENtNtNtNtCsieiGu2EXtoJ_4core4iter6traits8iterator8Iterator9size_hintCsjTXeTLYUiB9_18tracing_attributes, symObjAddr: 0xF10, symBinAddr: 0x3DB30, symSize: 0x60 }
  - { offset: 0x8AFD2, size: 0x8, addend: 0x0, symName: __RNvXs3_NtNtCslJiobkLta79_5alloc3vec9into_iterINtB5_8IntoIterNtNtCsdGrGZaRBwMb_3syn3pat3PatENtNtNtNtCsieiGu2EXtoJ_4core4iter6traits8iterator8Iterator4nextCsjTXeTLYUiB9_18tracing_attributes, symObjAddr: 0xF70, symBinAddr: 0x3DB90, symSize: 0x110 }
  - { offset: 0x8B130, size: 0x8, addend: 0x0, symName: __RNvXs3_NtNtCslJiobkLta79_5alloc3vec9into_iterINtB5_8IntoIterNtNtCsdGrGZaRBwMb_3syn3pat3PatENtNtNtNtCsieiGu2EXtoJ_4core4iter6traits8iterator8Iterator9size_hintCsjTXeTLYUiB9_18tracing_attributes, symObjAddr: 0x1080, symBinAddr: 0x3DCA0, symSize: 0x60 }
  - { offset: 0x8B18B, size: 0x8, addend: 0x0, symName: __RNvXs3_NtNtCslJiobkLta79_5alloc3vec9into_iterINtB5_8IntoIterNtNtCsdGrGZaRBwMb_3syn3pat8FieldPatENtNtNtNtCsieiGu2EXtoJ_4core4iter6traits8iterator8Iterator4nextCsjTXeTLYUiB9_18tracing_attributes, symObjAddr: 0x10E0, symBinAddr: 0x3DD00, symSize: 0x100 }
  - { offset: 0x8B2E9, size: 0x8, addend: 0x0, symName: __RNvXs3_NtNtCslJiobkLta79_5alloc3vec9into_iterINtB5_8IntoIterNtNtCsdGrGZaRBwMb_3syn3pat8FieldPatENtNtNtNtCsieiGu2EXtoJ_4core4iter6traits8iterator8Iterator9size_hintCsjTXeTLYUiB9_18tracing_attributes, symObjAddr: 0x11E0, symBinAddr: 0x3DE00, symSize: 0x60 }
  - { offset: 0x8B344, size: 0x8, addend: 0x0, symName: __RNvXs3_NtNtCslJiobkLta79_5alloc3vec9into_iterINtB5_8IntoIterNtNtCsdGrGZaRBwMb_3syn4item5FnArgENtNtNtNtCsieiGu2EXtoJ_4core4iter6traits8iterator8Iterator4nextCsjTXeTLYUiB9_18tracing_attributes, symObjAddr: 0x1240, symBinAddr: 0x3DE60, symSize: 0x100 }
  - { offset: 0x8B4A2, size: 0x8, addend: 0x0, symName: __RNvXs3_NtNtCslJiobkLta79_5alloc3vec9into_iterINtB5_8IntoIterNtNtCsdGrGZaRBwMb_3syn4item5FnArgENtNtNtNtCsieiGu2EXtoJ_4core4iter6traits8iterator8Iterator9size_hintCsjTXeTLYUiB9_18tracing_attributes, symObjAddr: 0x1340, symBinAddr: 0x3DF60, symSize: 0x60 }
  - { offset: 0x8B4FD, size: 0x8, addend: 0x0, symName: __RNvXs3_NtNtCslJiobkLta79_5alloc3vec9into_iterINtB5_8IntoIterNtNtCsdGrGZaRBwMb_3syn4stmt4StmtENtNtNtNtCsieiGu2EXtoJ_4core4iter6traits8iterator8Iterator4nextCsjTXeTLYUiB9_18tracing_attributes, symObjAddr: 0x13A0, symBinAddr: 0x3DFC0, symSize: 0x100 }
  - { offset: 0x8B65B, size: 0x8, addend: 0x0, symName: __RNvXs3_NtNtCslJiobkLta79_5alloc3vec9into_iterINtB5_8IntoIterNtNtCsdGrGZaRBwMb_3syn4stmt4StmtENtNtNtNtCsieiGu2EXtoJ_4core4iter6traits8iterator8Iterator9size_hintCsjTXeTLYUiB9_18tracing_attributes, symObjAddr: 0x14A0, symBinAddr: 0x3E0C0, symSize: 0x60 }
  - { offset: 0x8B6B6, size: 0x8, addend: 0x0, symName: __RNvXs3_NtNtCslJiobkLta79_5alloc3vec9into_iterINtB5_8IntoIterTNtCsaKzlTDPUHDb_11proc_macro25IdentNtNtCsdGrGZaRBwMb_3syn5token5CommaEENtNtNtNtCsieiGu2EXtoJ_4core4iter6traits8iterator8Iterator4nextCsjTXeTLYUiB9_18tracing_attributes, symObjAddr: 0x1500, symBinAddr: 0x3E120, symSize: 0x100 }
  - { offset: 0x8B814, size: 0x8, addend: 0x0, symName: __RNvXs3_NtNtCslJiobkLta79_5alloc3vec9into_iterINtB5_8IntoIterTNtCsaKzlTDPUHDb_11proc_macro25IdentNtNtCsdGrGZaRBwMb_3syn5token5CommaEENtNtNtNtCsieiGu2EXtoJ_4core4iter6traits8iterator8Iterator9size_hintCsjTXeTLYUiB9_18tracing_attributes, symObjAddr: 0x1600, symBinAddr: 0x3E220, symSize: 0x60 }
  - { offset: 0x8B86F, size: 0x8, addend: 0x0, symName: __RNvXs3_NtNtCslJiobkLta79_5alloc3vec9into_iterINtB5_8IntoIterTNtCsaKzlTDPUHDb_11proc_macro25IdentTBX_NtNtCsjTXeTLYUiB9_18tracing_attributes6expand10RecordTypeEEENtNtNtNtCsieiGu2EXtoJ_4core4iter6traits8iterator8Iterator9size_hintB1E_, symObjAddr: 0x1660, symBinAddr: 0x3E280, symSize: 0x60 }
  - { offset: 0x8B8CA, size: 0x8, addend: 0x0, symName: __RNvXs3_NtNtCslJiobkLta79_5alloc3vec9into_iterINtB5_8IntoIterTNtNtCsdGrGZaRBwMb_3syn3pat3PatNtNtB11_5token5CommaEENtNtNtNtCsieiGu2EXtoJ_4core4iter6traits8iterator8Iterator4nextCsjTXeTLYUiB9_18tracing_attributes, symObjAddr: 0x16C0, symBinAddr: 0x3E2E0, symSize: 0x110 }
  - { offset: 0x8BA28, size: 0x8, addend: 0x0, symName: __RNvXs3_NtNtCslJiobkLta79_5alloc3vec9into_iterINtB5_8IntoIterTNtNtCsdGrGZaRBwMb_3syn3pat3PatNtNtB11_5token5CommaEENtNtNtNtCsieiGu2EXtoJ_4core4iter6traits8iterator8Iterator9size_hintCsjTXeTLYUiB9_18tracing_attributes, symObjAddr: 0x17D0, symBinAddr: 0x3E3F0, symSize: 0x60 }
  - { offset: 0x8BA83, size: 0x8, addend: 0x0, symName: __RNvXs3_NtNtCslJiobkLta79_5alloc3vec9into_iterINtB5_8IntoIterTNtNtCsdGrGZaRBwMb_3syn3pat8FieldPatNtNtB11_5token5CommaEENtNtNtNtCsieiGu2EXtoJ_4core4iter6traits8iterator8Iterator4nextCsjTXeTLYUiB9_18tracing_attributes, symObjAddr: 0x1830, symBinAddr: 0x3E450, symSize: 0x100 }
  - { offset: 0x8BBE1, size: 0x8, addend: 0x0, symName: __RNvXs3_NtNtCslJiobkLta79_5alloc3vec9into_iterINtB5_8IntoIterTNtNtCsdGrGZaRBwMb_3syn3pat8FieldPatNtNtB11_5token5CommaEENtNtNtNtCsieiGu2EXtoJ_4core4iter6traits8iterator8Iterator9size_hintCsjTXeTLYUiB9_18tracing_attributes, symObjAddr: 0x1930, symBinAddr: 0x3E550, symSize: 0x60 }
  - { offset: 0x8BC3C, size: 0x8, addend: 0x0, symName: __RNvXs3_NtNtCslJiobkLta79_5alloc3vec9into_iterINtB5_8IntoIterTNtNtCsdGrGZaRBwMb_3syn4item5FnArgNtNtB11_5token5CommaEENtNtNtNtCsieiGu2EXtoJ_4core4iter6traits8iterator8Iterator4nextCsjTXeTLYUiB9_18tracing_attributes, symObjAddr: 0x1990, symBinAddr: 0x3E5B0, symSize: 0x100 }
  - { offset: 0x8BD9A, size: 0x8, addend: 0x0, symName: __RNvXs3_NtNtCslJiobkLta79_5alloc3vec9into_iterINtB5_8IntoIterTNtNtCsdGrGZaRBwMb_3syn4item5FnArgNtNtB11_5token5CommaEENtNtNtNtCsieiGu2EXtoJ_4core4iter6traits8iterator8Iterator9size_hintCsjTXeTLYUiB9_18tracing_attributes, symObjAddr: 0x1A90, symBinAddr: 0x3E6B0, symSize: 0x60 }
  - { offset: 0x8BEB2, size: 0x8, addend: 0x0, symName: __RNvXNvXsd_NtNtCslJiobkLta79_5alloc3vec9into_iterINtB8_8IntoIterppENtNtNtCsieiGu2EXtoJ_4core3ops4drop4Drop4dropINtB2_9DropGuardNtCsaKzlTDPUHDb_11proc_macro25IdentNtNtBc_5alloc6GlobalEB12_4dropCsjTXeTLYUiB9_18tracing_attributes, symObjAddr: 0x9C0, symBinAddr: 0x3D5E0, symSize: 0x70 }
  - { offset: 0x8BFC7, size: 0x8, addend: 0x0, symName: __RNvXNvXsd_NtNtCslJiobkLta79_5alloc3vec9into_iterINtB8_8IntoIterppENtNtNtCsieiGu2EXtoJ_4core3ops4drop4Drop4dropINtB2_9DropGuardNtNtCsdGrGZaRBwMb_3syn3pat3PatNtNtBc_5alloc6GlobalEB12_4dropCsjTXeTLYUiB9_18tracing_attributes, symObjAddr: 0xA30, symBinAddr: 0x3D650, symSize: 0x70 }
  - { offset: 0x8C0DC, size: 0x8, addend: 0x0, symName: __RNvXNvXsd_NtNtCslJiobkLta79_5alloc3vec9into_iterINtB8_8IntoIterppENtNtNtCsieiGu2EXtoJ_4core3ops4drop4Drop4dropINtB2_9DropGuardNtNtCsdGrGZaRBwMb_3syn3pat8FieldPatNtNtBc_5alloc6GlobalEB12_4dropCsjTXeTLYUiB9_18tracing_attributes, symObjAddr: 0xAA0, symBinAddr: 0x3D6C0, symSize: 0x70 }
  - { offset: 0x8C1F1, size: 0x8, addend: 0x0, symName: __RNvXNvXsd_NtNtCslJiobkLta79_5alloc3vec9into_iterINtB8_8IntoIterppENtNtNtCsieiGu2EXtoJ_4core3ops4drop4Drop4dropINtB2_9DropGuardNtNtCsdGrGZaRBwMb_3syn4item5FnArgNtNtBc_5alloc6GlobalEB12_4dropCsjTXeTLYUiB9_18tracing_attributes, symObjAddr: 0xB10, symBinAddr: 0x3D730, symSize: 0x70 }
  - { offset: 0x8C306, size: 0x8, addend: 0x0, symName: __RNvXNvXsd_NtNtCslJiobkLta79_5alloc3vec9into_iterINtB8_8IntoIterppENtNtNtCsieiGu2EXtoJ_4core3ops4drop4Drop4dropINtB2_9DropGuardNtNtCsdGrGZaRBwMb_3syn4stmt4StmtNtNtBc_5alloc6GlobalEB12_4dropCsjTXeTLYUiB9_18tracing_attributes, symObjAddr: 0xB80, symBinAddr: 0x3D7A0, symSize: 0x70 }
  - { offset: 0x8C41B, size: 0x8, addend: 0x0, symName: __RNvXNvXsd_NtNtCslJiobkLta79_5alloc3vec9into_iterINtB8_8IntoIterppENtNtNtCsieiGu2EXtoJ_4core3ops4drop4Drop4dropINtB2_9DropGuardTNtCsaKzlTDPUHDb_11proc_macro25IdentNtNtCsdGrGZaRBwMb_3syn5token5CommaENtNtBc_5alloc6GlobalEB12_4dropCsjTXeTLYUiB9_18tracing_attributes, symObjAddr: 0xBF0, symBinAddr: 0x3D810, symSize: 0x70 }
  - { offset: 0x8C530, size: 0x8, addend: 0x0, symName: __RNvXNvXsd_NtNtCslJiobkLta79_5alloc3vec9into_iterINtB8_8IntoIterppENtNtNtCsieiGu2EXtoJ_4core3ops4drop4Drop4dropINtB2_9DropGuardTNtCsaKzlTDPUHDb_11proc_macro25IdentTB21_NtNtCsjTXeTLYUiB9_18tracing_attributes6expand10RecordTypeEENtNtBc_5alloc6GlobalEB12_4dropB2J_, symObjAddr: 0xC60, symBinAddr: 0x3D880, symSize: 0x70 }
  - { offset: 0x8C645, size: 0x8, addend: 0x0, symName: __RNvXNvXsd_NtNtCslJiobkLta79_5alloc3vec9into_iterINtB8_8IntoIterppENtNtNtCsieiGu2EXtoJ_4core3ops4drop4Drop4dropINtB2_9DropGuardTNtNtCsdGrGZaRBwMb_3syn3pat3PatNtNtB25_5token5CommaENtNtBc_5alloc6GlobalEB12_4dropCsjTXeTLYUiB9_18tracing_attributes, symObjAddr: 0xCD0, symBinAddr: 0x3D8F0, symSize: 0x70 }
  - { offset: 0x8C75A, size: 0x8, addend: 0x0, symName: __RNvXNvXsd_NtNtCslJiobkLta79_5alloc3vec9into_iterINtB8_8IntoIterppENtNtNtCsieiGu2EXtoJ_4core3ops4drop4Drop4dropINtB2_9DropGuardTNtNtCsdGrGZaRBwMb_3syn3pat8FieldPatNtNtB25_5token5CommaENtNtBc_5alloc6GlobalEB12_4dropCsjTXeTLYUiB9_18tracing_attributes, symObjAddr: 0xD40, symBinAddr: 0x3D960, symSize: 0x70 }
  - { offset: 0x8C86F, size: 0x8, addend: 0x0, symName: __RNvXNvXsd_NtNtCslJiobkLta79_5alloc3vec9into_iterINtB8_8IntoIterppENtNtNtCsieiGu2EXtoJ_4core3ops4drop4Drop4dropINtB2_9DropGuardTNtNtCsdGrGZaRBwMb_3syn4item5FnArgNtNtB25_5token5CommaENtNtBc_5alloc6GlobalEB12_4dropCsjTXeTLYUiB9_18tracing_attributes, symObjAddr: 0xDB0, symBinAddr: 0x3D9D0, symSize: 0x70 }
  - { offset: 0x8CB0C, size: 0x8, addend: 0x0, symName: __RNvXsd_NtNtCslJiobkLta79_5alloc3vec9into_iterINtB5_8IntoIterNtCsaKzlTDPUHDb_11proc_macro25IdentENtNtNtCsieiGu2EXtoJ_4core3ops4drop4Drop4dropCsjTXeTLYUiB9_18tracing_attributes, symObjAddr: 0x1AF0, symBinAddr: 0x3E710, symSize: 0x90 }
  - { offset: 0x8CBA7, size: 0x8, addend: 0x0, symName: __RNvXsd_NtNtCslJiobkLta79_5alloc3vec9into_iterINtB5_8IntoIterNtNtCsdGrGZaRBwMb_3syn3pat3PatENtNtNtCsieiGu2EXtoJ_4core3ops4drop4Drop4dropCsjTXeTLYUiB9_18tracing_attributes, symObjAddr: 0x1B80, symBinAddr: 0x3E7A0, symSize: 0x90 }
  - { offset: 0x8CC42, size: 0x8, addend: 0x0, symName: __RNvXsd_NtNtCslJiobkLta79_5alloc3vec9into_iterINtB5_8IntoIterNtNtCsdGrGZaRBwMb_3syn3pat8FieldPatENtNtNtCsieiGu2EXtoJ_4core3ops4drop4Drop4dropCsjTXeTLYUiB9_18tracing_attributes, symObjAddr: 0x1C10, symBinAddr: 0x3E830, symSize: 0x90 }
  - { offset: 0x8CCDD, size: 0x8, addend: 0x0, symName: __RNvXsd_NtNtCslJiobkLta79_5alloc3vec9into_iterINtB5_8IntoIterNtNtCsdGrGZaRBwMb_3syn4item5FnArgENtNtNtCsieiGu2EXtoJ_4core3ops4drop4Drop4dropCsjTXeTLYUiB9_18tracing_attributes, symObjAddr: 0x1CA0, symBinAddr: 0x3E8C0, symSize: 0x90 }
  - { offset: 0x8CD78, size: 0x8, addend: 0x0, symName: __RNvXsd_NtNtCslJiobkLta79_5alloc3vec9into_iterINtB5_8IntoIterNtNtCsdGrGZaRBwMb_3syn4stmt4StmtENtNtNtCsieiGu2EXtoJ_4core3ops4drop4Drop4dropCsjTXeTLYUiB9_18tracing_attributes, symObjAddr: 0x1D30, symBinAddr: 0x3E950, symSize: 0x90 }
  - { offset: 0x8CE13, size: 0x8, addend: 0x0, symName: __RNvXsd_NtNtCslJiobkLta79_5alloc3vec9into_iterINtB5_8IntoIterTNtCsaKzlTDPUHDb_11proc_macro25IdentNtNtCsdGrGZaRBwMb_3syn5token5CommaEENtNtNtCsieiGu2EXtoJ_4core3ops4drop4Drop4dropCsjTXeTLYUiB9_18tracing_attributes, symObjAddr: 0x1DC0, symBinAddr: 0x3E9E0, symSize: 0x90 }
  - { offset: 0x8CEAE, size: 0x8, addend: 0x0, symName: __RNvXsd_NtNtCslJiobkLta79_5alloc3vec9into_iterINtB5_8IntoIterTNtCsaKzlTDPUHDb_11proc_macro25IdentTBX_NtNtCsjTXeTLYUiB9_18tracing_attributes6expand10RecordTypeEEENtNtNtCsieiGu2EXtoJ_4core3ops4drop4Drop4dropB1E_, symObjAddr: 0x1E50, symBinAddr: 0x3EA70, symSize: 0x90 }
  - { offset: 0x8CF49, size: 0x8, addend: 0x0, symName: __RNvXsd_NtNtCslJiobkLta79_5alloc3vec9into_iterINtB5_8IntoIterTNtNtCsdGrGZaRBwMb_3syn3pat3PatNtNtB11_5token5CommaEENtNtNtCsieiGu2EXtoJ_4core3ops4drop4Drop4dropCsjTXeTLYUiB9_18tracing_attributes, symObjAddr: 0x1EE0, symBinAddr: 0x3EB00, symSize: 0x90 }
  - { offset: 0x8CFE4, size: 0x8, addend: 0x0, symName: __RNvXsd_NtNtCslJiobkLta79_5alloc3vec9into_iterINtB5_8IntoIterTNtNtCsdGrGZaRBwMb_3syn3pat8FieldPatNtNtB11_5token5CommaEENtNtNtCsieiGu2EXtoJ_4core3ops4drop4Drop4dropCsjTXeTLYUiB9_18tracing_attributes, symObjAddr: 0x1F70, symBinAddr: 0x3EB90, symSize: 0x90 }
  - { offset: 0x8D07F, size: 0x8, addend: 0x0, symName: __RNvXsd_NtNtCslJiobkLta79_5alloc3vec9into_iterINtB5_8IntoIterTNtNtCsdGrGZaRBwMb_3syn4item5FnArgNtNtB11_5token5CommaEENtNtNtCsieiGu2EXtoJ_4core3ops4drop4Drop4dropCsjTXeTLYUiB9_18tracing_attributes, symObjAddr: 0x2000, symBinAddr: 0x3EC20, symSize: 0x90 }
  - { offset: 0x8D5FA, size: 0x8, addend: 0x0, symName: __RNvXsf_NtNtCslJiobkLta79_5alloc3vec9into_iterINtB5_8IntoIterTNtCsaKzlTDPUHDb_11proc_macro25IdentTBX_NtNtCsjTXeTLYUiB9_18tracing_attributes6expand10RecordTypeEEENtNtNtCsieiGu2EXtoJ_4core4iter8adapters10SourceIter8as_innerB1E_, symObjAddr: 0x2090, symBinAddr: 0x3ECB0, symSize: 0x10 }
  - { offset: 0x8D640, size: 0x8, addend: 0x0, symName: __RNvXsg_NtNtCslJiobkLta79_5alloc3vec9into_iterINtB5_8IntoIterTNtCsaKzlTDPUHDb_11proc_macro25IdentTBX_NtNtCsjTXeTLYUiB9_18tracing_attributes6expand10RecordTypeEEENtNtB7_16in_place_collect13AsVecIntoIter12as_into_iterB1E_, symObjAddr: 0x20A0, symBinAddr: 0x3ECC0, symSize: 0x10 }
  - { offset: 0x8E9E6, size: 0x8, addend: 0x0, symName: __RNvMs_NtNtCslJiobkLta79_5alloc3vec9into_iterINtB4_8IntoIterTNtCsaKzlTDPUHDb_11proc_macro25IdentTBW_NtNtCsjTXeTLYUiB9_18tracing_attributes6expand10RecordTypeEEE32forget_allocation_drop_remainingB1D_, symObjAddr: 0x8E0, symBinAddr: 0x3D500, symSize: 0xB0 }
  - { offset: 0x8FB6A, size: 0x8, addend: 0x0, symName: __RINvMNtCsieiGu2EXtoJ_4core6optionINtB3_6OptionINtNtCsdGrGZaRBwMb_3syn10punctuated4PairQNtNtBN_2ty4TypeQNtNtBN_5token5CommaEE7or_elseNCNvXsg_BL_INtBL_8PairsMutB1n_B1D_ENtNtNtNtB5_4iter6traits8iterator8Iterator4nexts_0ECsjTXeTLYUiB9_18tracing_attributes, symObjAddr: 0x0, symBinAddr: 0x3F590, symSize: 0xB0 }
  - { offset: 0x8FF37, size: 0x8, addend: 0x0, symName: __RNvXsR_NtCscKtU6MdFI5n_10proc_macro6bridgeINtNtCsieiGu2EXtoJ_4core6option6OptionNtNtB5_6client11TokenStreamEINtNtB5_3rpc6EncodeuE6encodeCsjTXeTLYUiB9_18tracing_attributes, symObjAddr: 0x4570, symBinAddr: 0x43B00, symSize: 0xB0 }
  - { offset: 0x8FFDD, size: 0x8, addend: 0x0, symName: __RNvXsR_NtCscKtU6MdFI5n_10proc_macro6bridgeINtNtCsieiGu2EXtoJ_4core6option6OptionReEINtNtB5_3rpc6EncodeuE6encodeCsjTXeTLYUiB9_18tracing_attributes, symObjAddr: 0x4620, symBinAddr: 0x43BB0, symSize: 0xC0 }
  - { offset: 0x969D8, size: 0x8, addend: 0x0, symName: __RNvXs3_NtCsieiGu2EXtoJ_4core6optionINtB5_6OptionINtNtCslJiobkLta79_5alloc5boxed3BoxNtCsaKzlTDPUHDb_11proc_macro25IdentEENtNtB7_5clone5Clone5cloneCsjTXeTLYUiB9_18tracing_attributes, symObjAddr: 0x3FA0, symBinAddr: 0x43530, symSize: 0x50 }
  - { offset: 0x96A2D, size: 0x8, addend: 0x0, symName: __RNvXs3_NtCsieiGu2EXtoJ_4core6optionINtB5_6OptionINtNtCslJiobkLta79_5alloc5boxed3BoxNtNtCsjTXeTLYUiB9_18tracing_attributes4attr5FieldEENtNtB7_5clone5Clone5cloneB1n_, symObjAddr: 0x3FF0, symBinAddr: 0x43580, symSize: 0x50 }
  - { offset: 0x96A82, size: 0x8, addend: 0x0, symName: __RNvXs3_NtCsieiGu2EXtoJ_4core6optionINtB5_6OptionNtNtCsjTXeTLYUiB9_18tracing_attributes4attr13LitStrOrIdentENtNtB7_5clone5Clone5cloneBO_, symObjAddr: 0x4040, symBinAddr: 0x435D0, symSize: 0x70 }
  - { offset: 0x96AD7, size: 0x8, addend: 0x0, symName: __RNvXs3_NtCsieiGu2EXtoJ_4core6optionINtB5_6OptionNtNtCsjTXeTLYUiB9_18tracing_attributes4attr5LevelENtNtB7_5clone5Clone5cloneBO_, symObjAddr: 0x40B0, symBinAddr: 0x43640, symSize: 0x80 }
  - { offset: 0x96B2C, size: 0x8, addend: 0x0, symName: __RNvXs3_NtCsieiGu2EXtoJ_4core6optionINtB5_6OptionNtNtCsjTXeTLYUiB9_18tracing_attributes4attr6FieldsENtNtB7_5clone5Clone5cloneBO_, symObjAddr: 0x4130, symBinAddr: 0x436C0, symSize: 0x90 }
  - { offset: 0x96B81, size: 0x8, addend: 0x0, symName: __RNvXs3_NtCsieiGu2EXtoJ_4core6optionINtB5_6OptionNtNtCsjTXeTLYUiB9_18tracing_attributes4attr9EventArgsENtNtB7_5clone5Clone5cloneBO_, symObjAddr: 0x41C0, symBinAddr: 0x43750, symSize: 0x80 }
  - { offset: 0x96C48, size: 0x8, addend: 0x0, symName: __RNvXs5_NtCsieiGu2EXtoJ_4core6optionINtB5_6OptionNtNtCsdGrGZaRBwMb_3syn4expr4ExprENtNtB7_7default7Default7defaultCsjTXeTLYUiB9_18tracing_attributes, symObjAddr: 0x4240, symBinAddr: 0x437D0, symSize: 0x10 }
  - { offset: 0x96C70, size: 0x8, addend: 0x0, symName: __RNvXs5_NtCsieiGu2EXtoJ_4core6optionINtB5_6OptionNtNtCsjTXeTLYUiB9_18tracing_attributes4attr13LitStrOrIdentENtNtB7_7default7Default7defaultBO_, symObjAddr: 0x4250, symBinAddr: 0x437E0, symSize: 0x10 }
  - { offset: 0x96C98, size: 0x8, addend: 0x0, symName: __RNvXs5_NtCsieiGu2EXtoJ_4core6optionINtB5_6OptionNtNtCsjTXeTLYUiB9_18tracing_attributes4attr5LevelENtNtB7_7default7Default7defaultBO_, symObjAddr: 0x4260, symBinAddr: 0x437F0, symSize: 0x20 }
  - { offset: 0x96CC0, size: 0x8, addend: 0x0, symName: __RNvXs5_NtCsieiGu2EXtoJ_4core6optionINtB5_6OptionNtNtCsjTXeTLYUiB9_18tracing_attributes4attr6FieldsENtNtB7_7default7Default7defaultBO_, symObjAddr: 0x4280, symBinAddr: 0x43810, symSize: 0x20 }
  - { offset: 0x96CE8, size: 0x8, addend: 0x0, symName: __RNvXs5_NtCsieiGu2EXtoJ_4core6optionINtB5_6OptionNtNtCsjTXeTLYUiB9_18tracing_attributes4attr9EventArgsENtNtB7_7default7Default7defaultBO_, symObjAddr: 0x42A0, symBinAddr: 0x43830, symSize: 0x20 }
  - { offset: 0x96D16, size: 0x8, addend: 0x0, symName: __RNvXs6_NtCsieiGu2EXtoJ_4core6optionINtB5_6OptionQNtNtCsdGrGZaRBwMb_3syn2ty4TypeENtNtNtNtB7_4iter6traits7collect12IntoIterator9into_iterCsjTXeTLYUiB9_18tracing_attributes, symObjAddr: 0x42C0, symBinAddr: 0x43850, symSize: 0x10 }
  - { offset: 0x96D4D, size: 0x8, addend: 0x0, symName: __RNvXs6_NtCsieiGu2EXtoJ_4core6optionINtB5_6OptionQNtNtCsdGrGZaRBwMb_3syn2ty9BareFnArgENtNtNtNtB7_4iter6traits7collect12IntoIterator9into_iterCsjTXeTLYUiB9_18tracing_attributes, symObjAddr: 0x42D0, symBinAddr: 0x43860, symSize: 0x10 }
  - { offset: 0x96D84, size: 0x8, addend: 0x0, symName: __RNvXs6_NtCsieiGu2EXtoJ_4core6optionINtB5_6OptionQNtNtCsdGrGZaRBwMb_3syn3pat3PatENtNtNtNtB7_4iter6traits7collect12IntoIterator9into_iterCsjTXeTLYUiB9_18tracing_attributes, symObjAddr: 0x42E0, symBinAddr: 0x43870, symSize: 0x10 }
  - { offset: 0x96DBB, size: 0x8, addend: 0x0, symName: __RNvXs6_NtCsieiGu2EXtoJ_4core6optionINtB5_6OptionQNtNtCsdGrGZaRBwMb_3syn3pat8FieldPatENtNtNtNtB7_4iter6traits7collect12IntoIterator9into_iterCsjTXeTLYUiB9_18tracing_attributes, symObjAddr: 0x42F0, symBinAddr: 0x43880, symSize: 0x10 }
  - { offset: 0x96DF2, size: 0x8, addend: 0x0, symName: __RNvXs6_NtCsieiGu2EXtoJ_4core6optionINtB5_6OptionQNtNtCsdGrGZaRBwMb_3syn4data7VariantENtNtNtNtB7_4iter6traits7collect12IntoIterator9into_iterCsjTXeTLYUiB9_18tracing_attributes, symObjAddr: 0x4300, symBinAddr: 0x43890, symSize: 0x10 }
  - { offset: 0x96E29, size: 0x8, addend: 0x0, symName: __RNvXs6_NtCsieiGu2EXtoJ_4core6optionINtB5_6OptionQNtNtCsdGrGZaRBwMb_3syn4expr10FieldValueENtNtNtNtB7_4iter6traits7collect12IntoIterator9into_iterCsjTXeTLYUiB9_18tracing_attributes, symObjAddr: 0x4310, symBinAddr: 0x438A0, symSize: 0x10 }
  - { offset: 0x96E60, size: 0x8, addend: 0x0, symName: __RNvXs6_NtCsieiGu2EXtoJ_4core6optionINtB5_6OptionQNtNtCsdGrGZaRBwMb_3syn4expr4ExprENtNtNtNtB7_4iter6traits7collect12IntoIterator9into_iterCsjTXeTLYUiB9_18tracing_attributes, symObjAddr: 0x4320, symBinAddr: 0x438B0, symSize: 0x10 }
  - { offset: 0x96E97, size: 0x8, addend: 0x0, symName: __RNvXs6_NtCsieiGu2EXtoJ_4core6optionINtB5_6OptionQNtNtCsdGrGZaRBwMb_3syn4item5FnArgENtNtNtNtB7_4iter6traits7collect12IntoIterator9into_iterCsjTXeTLYUiB9_18tracing_attributes, symObjAddr: 0x4330, symBinAddr: 0x438C0, symSize: 0x10 }
  - { offset: 0x96ECE, size: 0x8, addend: 0x0, symName: __RNvXs6_NtCsieiGu2EXtoJ_4core6optionINtB5_6OptionQNtNtCsdGrGZaRBwMb_3syn4item7UseTreeENtNtNtNtB7_4iter6traits7collect12IntoIterator9into_iterCsjTXeTLYUiB9_18tracing_attributes, symObjAddr: 0x4340, symBinAddr: 0x438D0, symSize: 0x10 }
  - { offset: 0x96F05, size: 0x8, addend: 0x0, symName: __RNvXs6_NtCsieiGu2EXtoJ_4core6optionINtB5_6OptionQNtNtCsdGrGZaRBwMb_3syn4path15GenericArgumentENtNtNtNtB7_4iter6traits7collect12IntoIterator9into_iterCsjTXeTLYUiB9_18tracing_attributes, symObjAddr: 0x4350, symBinAddr: 0x438E0, symSize: 0x10 }
  - { offset: 0x96F3C, size: 0x8, addend: 0x0, symName: __RNvXs6_NtCsieiGu2EXtoJ_4core6optionINtB5_6OptionQNtNtCsdGrGZaRBwMb_3syn8generics13CapturedParamENtNtNtNtB7_4iter6traits7collect12IntoIterator9into_iterCsjTXeTLYUiB9_18tracing_attributes, symObjAddr: 0x4360, symBinAddr: 0x438F0, symSize: 0x10 }
  - { offset: 0x96F73, size: 0x8, addend: 0x0, symName: __RNvXs6_NtCsieiGu2EXtoJ_4core6optionINtB5_6OptionQNtNtCsdGrGZaRBwMb_3syn8generics14TypeParamBoundENtNtNtNtB7_4iter6traits7collect12IntoIterator9into_iterCsjTXeTLYUiB9_18tracing_attributes, symObjAddr: 0x4370, symBinAddr: 0x43900, symSize: 0x10 }
  - { offset: 0x96FAA, size: 0x8, addend: 0x0, symName: __RNvXs6_NtCsieiGu2EXtoJ_4core6optionINtB5_6OptionQNtNtCsdGrGZaRBwMb_3syn8generics14WherePredicateENtNtNtNtB7_4iter6traits7collect12IntoIterator9into_iterCsjTXeTLYUiB9_18tracing_attributes, symObjAddr: 0x4380, symBinAddr: 0x43910, symSize: 0x10 }
  - { offset: 0x96FE1, size: 0x8, addend: 0x0, symName: __RNvXs6_NtCsieiGu2EXtoJ_4core6optionINtB5_6OptionQNtNtCsdGrGZaRBwMb_3syn8lifetime8LifetimeENtNtNtNtB7_4iter6traits7collect12IntoIterator9into_iterCsjTXeTLYUiB9_18tracing_attributes, symObjAddr: 0x4390, symBinAddr: 0x43920, symSize: 0x10 }
  - { offset: 0x97018, size: 0x8, addend: 0x0, symName: __RNvXs6_NtCsieiGu2EXtoJ_4core6optionINtB5_6OptionQNtNtCsjTXeTLYUiB9_18tracing_attributes4attr5FieldENtNtNtNtB7_4iter6traits7collect12IntoIterator9into_iterBP_, symObjAddr: 0x43A0, symBinAddr: 0x43930, symSize: 0x10 }
  - { offset: 0x9704F, size: 0x8, addend: 0x0, symName: __RNvXs6_NtCsieiGu2EXtoJ_4core6optionINtB5_6OptionRNtCsaKzlTDPUHDb_11proc_macro25IdentENtNtNtNtB7_4iter6traits7collect12IntoIterator9into_iterCsjTXeTLYUiB9_18tracing_attributes, symObjAddr: 0x43B0, symBinAddr: 0x43940, symSize: 0x10 }
  - { offset: 0x97086, size: 0x8, addend: 0x0, symName: __RNvXs6_NtCsieiGu2EXtoJ_4core6optionINtB5_6OptionRNtNtCsjTXeTLYUiB9_18tracing_attributes4attr5FieldENtNtNtNtB7_4iter6traits7collect12IntoIterator9into_iterBP_, symObjAddr: 0x43C0, symBinAddr: 0x43950, symSize: 0x10 }
  - { offset: 0x970C3, size: 0x8, addend: 0x0, symName: __RNvXsC_NtCsieiGu2EXtoJ_4core6optionINtB5_6OptionTRNtNtCsdGrGZaRBwMb_3syn4stmt4StmtRNtNtBQ_4expr4ExprEENtNtNtB7_3ops9try_trait3Try6branchCsjTXeTLYUiB9_18tracing_attributes, symObjAddr: 0x43D0, symBinAddr: 0x43960, symSize: 0x60 }
  - { offset: 0x97118, size: 0x8, addend: 0x0, symName: __RNvXsC_NtCsieiGu2EXtoJ_4core6optionINtB5_6OptionTRNtNtCsdGrGZaRBwMb_3syn4stmt4StmtRNtNtBQ_4item6ItemFnEENtNtNtB7_3ops9try_trait3Try6branchCsjTXeTLYUiB9_18tracing_attributes, symObjAddr: 0x4430, symBinAddr: 0x439C0, symSize: 0x60 }
  - { offset: 0x97173, size: 0x8, addend: 0x0, symName: __RNvXsD_NtCsieiGu2EXtoJ_4core6optionINtB5_6OptionNtNtCsjTXeTLYUiB9_18tracing_attributes6expand9AsyncInfoEINtNtNtB7_3ops9try_trait12FromResidualIBy_NtNtB7_7convert10InfallibleEE13from_residualBO_, symObjAddr: 0x4490, symBinAddr: 0x43A20, symSize: 0x20 }
  - { offset: 0x97200, size: 0x8, addend: 0x0, symName: __RNvXsP_NtCsieiGu2EXtoJ_4core6optionINtB5_8IntoIterRNtCsaKzlTDPUHDb_11proc_macro25IdentENtNtB7_5clone5Clone5cloneCsjTXeTLYUiB9_18tracing_attributes, symObjAddr: 0x44B0, symBinAddr: 0x43A40, symSize: 0x60 }
  - { offset: 0x972AB, size: 0x8, addend: 0x0, symName: __RNvXsP_NtCsieiGu2EXtoJ_4core6optionINtB5_8IntoIterRNtNtCsjTXeTLYUiB9_18tracing_attributes4attr5FieldENtNtB7_5clone5Clone5cloneBR_, symObjAddr: 0x4510, symBinAddr: 0x43AA0, symSize: 0x60 }
  - { offset: 0x9735C, size: 0x8, addend: 0x0, symName: __RNvXsd_NtCsieiGu2EXtoJ_4core6optionINtB5_6OptionRNtCsaKzlTDPUHDb_11proc_macro25IdentENtNtB7_3cmp9PartialEq2eqCsjTXeTLYUiB9_18tracing_attributes, symObjAddr: 0x46E0, symBinAddr: 0x43C70, symSize: 0xB0 }
  - { offset: 0x9771B, size: 0x8, addend: 0x0, symName: __RNvXsl_NtCsieiGu2EXtoJ_4core6optionINtB5_4IterNtNtCsdGrGZaRBwMb_3syn4expr4ExprENtNtNtNtB7_4iter6traits8iterator8Iterator4nextCsjTXeTLYUiB9_18tracing_attributes, symObjAddr: 0x4790, symBinAddr: 0x43D20, symSize: 0x20 }
  - { offset: 0x97793, size: 0x8, addend: 0x0, symName: __RNvXsl_NtCsieiGu2EXtoJ_4core6optionINtB5_4IterRNtCsaKzlTDPUHDb_11proc_macro25IdentENtNtNtNtB7_4iter6traits8iterator8Iterator4nextCsjTXeTLYUiB9_18tracing_attributes, symObjAddr: 0x47B0, symBinAddr: 0x43D40, symSize: 0x20 }
  - { offset: 0x97811, size: 0x8, addend: 0x0, symName: __RNvXsw_NtCsieiGu2EXtoJ_4core6optionINtB5_8IntoIterQNtNtCsdGrGZaRBwMb_3syn2ty4TypeENtNtNtNtB7_4iter6traits8iterator8Iterator4nextCsjTXeTLYUiB9_18tracing_attributes, symObjAddr: 0x47D0, symBinAddr: 0x43D60, symSize: 0x20 }
  - { offset: 0x97889, size: 0x8, addend: 0x0, symName: __RNvXsw_NtCsieiGu2EXtoJ_4core6optionINtB5_8IntoIterQNtNtCsdGrGZaRBwMb_3syn2ty9BareFnArgENtNtNtNtB7_4iter6traits8iterator8Iterator4nextCsjTXeTLYUiB9_18tracing_attributes, symObjAddr: 0x47F0, symBinAddr: 0x43D80, symSize: 0x20 }
  - { offset: 0x97901, size: 0x8, addend: 0x0, symName: __RNvXsw_NtCsieiGu2EXtoJ_4core6optionINtB5_8IntoIterQNtNtCsdGrGZaRBwMb_3syn3pat3PatENtNtNtNtB7_4iter6traits8iterator8Iterator4nextCsjTXeTLYUiB9_18tracing_attributes, symObjAddr: 0x4810, symBinAddr: 0x43DA0, symSize: 0x20 }
  - { offset: 0x97979, size: 0x8, addend: 0x0, symName: __RNvXsw_NtCsieiGu2EXtoJ_4core6optionINtB5_8IntoIterQNtNtCsdGrGZaRBwMb_3syn3pat8FieldPatENtNtNtNtB7_4iter6traits8iterator8Iterator4nextCsjTXeTLYUiB9_18tracing_attributes, symObjAddr: 0x4830, symBinAddr: 0x43DC0, symSize: 0x20 }
  - { offset: 0x979F1, size: 0x8, addend: 0x0, symName: __RNvXsw_NtCsieiGu2EXtoJ_4core6optionINtB5_8IntoIterQNtNtCsdGrGZaRBwMb_3syn4data7VariantENtNtNtNtB7_4iter6traits8iterator8Iterator4nextCsjTXeTLYUiB9_18tracing_attributes, symObjAddr: 0x4850, symBinAddr: 0x43DE0, symSize: 0x20 }
  - { offset: 0x97A69, size: 0x8, addend: 0x0, symName: __RNvXsw_NtCsieiGu2EXtoJ_4core6optionINtB5_8IntoIterQNtNtCsdGrGZaRBwMb_3syn4expr10FieldValueENtNtNtNtB7_4iter6traits8iterator8Iterator4nextCsjTXeTLYUiB9_18tracing_attributes, symObjAddr: 0x4870, symBinAddr: 0x43E00, symSize: 0x20 }
  - { offset: 0x97AE1, size: 0x8, addend: 0x0, symName: __RNvXsw_NtCsieiGu2EXtoJ_4core6optionINtB5_8IntoIterQNtNtCsdGrGZaRBwMb_3syn4expr4ExprENtNtNtNtB7_4iter6traits8iterator8Iterator4nextCsjTXeTLYUiB9_18tracing_attributes, symObjAddr: 0x4890, symBinAddr: 0x43E20, symSize: 0x20 }
  - { offset: 0x97B59, size: 0x8, addend: 0x0, symName: __RNvXsw_NtCsieiGu2EXtoJ_4core6optionINtB5_8IntoIterQNtNtCsdGrGZaRBwMb_3syn4item5FnArgENtNtNtNtB7_4iter6traits8iterator8Iterator4nextCsjTXeTLYUiB9_18tracing_attributes, symObjAddr: 0x48B0, symBinAddr: 0x43E40, symSize: 0x20 }
  - { offset: 0x97BD1, size: 0x8, addend: 0x0, symName: __RNvXsw_NtCsieiGu2EXtoJ_4core6optionINtB5_8IntoIterQNtNtCsdGrGZaRBwMb_3syn4item7UseTreeENtNtNtNtB7_4iter6traits8iterator8Iterator4nextCsjTXeTLYUiB9_18tracing_attributes, symObjAddr: 0x48D0, symBinAddr: 0x43E60, symSize: 0x20 }
  - { offset: 0x97C49, size: 0x8, addend: 0x0, symName: __RNvXsw_NtCsieiGu2EXtoJ_4core6optionINtB5_8IntoIterQNtNtCsdGrGZaRBwMb_3syn4path15GenericArgumentENtNtNtNtB7_4iter6traits8iterator8Iterator4nextCsjTXeTLYUiB9_18tracing_attributes, symObjAddr: 0x48F0, symBinAddr: 0x43E80, symSize: 0x20 }
  - { offset: 0x97CC1, size: 0x8, addend: 0x0, symName: __RNvXsw_NtCsieiGu2EXtoJ_4core6optionINtB5_8IntoIterQNtNtCsdGrGZaRBwMb_3syn8generics13CapturedParamENtNtNtNtB7_4iter6traits8iterator8Iterator4nextCsjTXeTLYUiB9_18tracing_attributes, symObjAddr: 0x4910, symBinAddr: 0x43EA0, symSize: 0x20 }
  - { offset: 0x97D39, size: 0x8, addend: 0x0, symName: __RNvXsw_NtCsieiGu2EXtoJ_4core6optionINtB5_8IntoIterQNtNtCsdGrGZaRBwMb_3syn8generics14TypeParamBoundENtNtNtNtB7_4iter6traits8iterator8Iterator4nextCsjTXeTLYUiB9_18tracing_attributes, symObjAddr: 0x4930, symBinAddr: 0x43EC0, symSize: 0x20 }
  - { offset: 0x97DB1, size: 0x8, addend: 0x0, symName: __RNvXsw_NtCsieiGu2EXtoJ_4core6optionINtB5_8IntoIterQNtNtCsdGrGZaRBwMb_3syn8generics14WherePredicateENtNtNtNtB7_4iter6traits8iterator8Iterator4nextCsjTXeTLYUiB9_18tracing_attributes, symObjAddr: 0x4950, symBinAddr: 0x43EE0, symSize: 0x20 }
  - { offset: 0x97E29, size: 0x8, addend: 0x0, symName: __RNvXsw_NtCsieiGu2EXtoJ_4core6optionINtB5_8IntoIterQNtNtCsdGrGZaRBwMb_3syn8lifetime8LifetimeENtNtNtNtB7_4iter6traits8iterator8Iterator4nextCsjTXeTLYUiB9_18tracing_attributes, symObjAddr: 0x4970, symBinAddr: 0x43F00, symSize: 0x20 }
  - { offset: 0x97EA1, size: 0x8, addend: 0x0, symName: __RNvXsw_NtCsieiGu2EXtoJ_4core6optionINtB5_8IntoIterQNtNtCsjTXeTLYUiB9_18tracing_attributes4attr5FieldENtNtNtNtB7_4iter6traits8iterator8Iterator4nextBR_, symObjAddr: 0x4990, symBinAddr: 0x43F20, symSize: 0x20 }
  - { offset: 0x97F19, size: 0x8, addend: 0x0, symName: __RNvXsw_NtCsieiGu2EXtoJ_4core6optionINtB5_8IntoIterQNtNtCsjTXeTLYUiB9_18tracing_attributes4attr5FieldENtNtNtNtB7_4iter6traits8iterator8Iterator9size_hintBR_, symObjAddr: 0x49B0, symBinAddr: 0x43F40, symSize: 0x30 }
  - { offset: 0x97F91, size: 0x8, addend: 0x0, symName: __RNvXsw_NtCsieiGu2EXtoJ_4core6optionINtB5_8IntoIterRNtCsaKzlTDPUHDb_11proc_macro25IdentENtNtNtNtB7_4iter6traits8iterator8Iterator4nextCsjTXeTLYUiB9_18tracing_attributes, symObjAddr: 0x49E0, symBinAddr: 0x43F70, symSize: 0x20 }
  - { offset: 0x98009, size: 0x8, addend: 0x0, symName: __RNvXsw_NtCsieiGu2EXtoJ_4core6optionINtB5_8IntoIterRNtCsaKzlTDPUHDb_11proc_macro25IdentENtNtNtNtB7_4iter6traits8iterator8Iterator9size_hintCsjTXeTLYUiB9_18tracing_attributes, symObjAddr: 0x4A00, symBinAddr: 0x43F90, symSize: 0x30 }
  - { offset: 0x98081, size: 0x8, addend: 0x0, symName: __RNvXsw_NtCsieiGu2EXtoJ_4core6optionINtB5_8IntoIterRNtNtCsjTXeTLYUiB9_18tracing_attributes4attr5FieldENtNtNtNtB7_4iter6traits8iterator8Iterator4nextBR_, symObjAddr: 0x4A30, symBinAddr: 0x43FC0, symSize: 0x20 }
  - { offset: 0x980F9, size: 0x8, addend: 0x0, symName: __RNvXsw_NtCsieiGu2EXtoJ_4core6optionINtB5_8IntoIterRNtNtCsjTXeTLYUiB9_18tracing_attributes4attr5FieldENtNtNtNtB7_4iter6traits8iterator8Iterator9size_hintBR_, symObjAddr: 0x4A50, symBinAddr: 0x43FE0, symSize: 0x30 }
  - { offset: 0x98A0F, size: 0x8, addend: 0x0, symName: __RINvYINtNtCsieiGu2EXtoJ_4core6option4IterRNtCsaKzlTDPUHDb_11proc_macro25IdentENtNtNtNtB8_4iter6traits8iterator8Iterator3anyNCNCNCNCINvNtCsjTXeTLYUiB9_18tracing_attributes6expand9gen_blockNtBG_11TokenStreamEs0_0s2_000EB2a_, symObjAddr: 0x3010, symBinAddr: 0x425A0, symSize: 0x40 }
  - { offset: 0x98A5E, size: 0x8, addend: 0x0, symName: __RINvYINtNtCsieiGu2EXtoJ_4core6option4IterRNtCsaKzlTDPUHDb_11proc_macro25IdentENtNtNtNtB8_4iter6traits8iterator8Iterator3anyNCNCNCNCINvNtCsjTXeTLYUiB9_18tracing_attributes6expand9gen_blockNtNtCsdGrGZaRBwMb_3syn4stmt5BlockEs0_0s2_000EB2a_, symObjAddr: 0x3050, symBinAddr: 0x425E0, symSize: 0x40 }
  - { offset: 0x98AAD, size: 0x8, addend: 0x0, symName: __RINvYINtNtCsieiGu2EXtoJ_4core6option4IterRNtCsaKzlTDPUHDb_11proc_macro25IdentENtNtNtNtB8_4iter6traits8iterator8Iterator8try_folduNCINvNvB1e_3any5checkRBD_NCNCNCNCINvNtCsjTXeTLYUiB9_18tracing_attributes6expand9gen_blockNtBG_11TokenStreamEs0_0s2_000E0INtNtNtB8_3ops12control_flow11ControlFlowuEEB2F_, symObjAddr: 0x3090, symBinAddr: 0x42620, symSize: 0x100 }
  - { offset: 0x98B60, size: 0x8, addend: 0x0, symName: __RINvYINtNtCsieiGu2EXtoJ_4core6option4IterRNtCsaKzlTDPUHDb_11proc_macro25IdentENtNtNtNtB8_4iter6traits8iterator8Iterator8try_folduNCINvNvB1e_3any5checkRBD_NCNCNCNCINvNtCsjTXeTLYUiB9_18tracing_attributes6expand9gen_blockNtNtCsdGrGZaRBwMb_3syn4stmt5BlockEs0_0s2_000E0INtNtNtB8_3ops12control_flow11ControlFlowuEEB2F_, symObjAddr: 0x3190, symBinAddr: 0x42720, symSize: 0x100 }
  - { offset: 0x98C51, size: 0x8, addend: 0x0, symName: __RNvYINtNtCsieiGu2EXtoJ_4core6option8IntoIterQNtNtCsjTXeTLYUiB9_18tracing_attributes4attr5FieldENtNtNtNtB7_4iter6traits10exact_size17ExactSizeIterator3lenBL_, symObjAddr: 0x4AC0, symBinAddr: 0x44050, symSize: 0xE0 }
  - { offset: 0x98D51, size: 0x8, addend: 0x0, symName: __RNvYINtNtCsieiGu2EXtoJ_4core6option8IntoIterRNtCsaKzlTDPUHDb_11proc_macro25IdentENtNtNtNtB7_4iter6traits10exact_size17ExactSizeIterator3lenCsjTXeTLYUiB9_18tracing_attributes, symObjAddr: 0x4BA0, symBinAddr: 0x44130, symSize: 0xE0 }
  - { offset: 0x98E51, size: 0x8, addend: 0x0, symName: __RNvYINtNtCsieiGu2EXtoJ_4core6option8IntoIterRNtNtCsjTXeTLYUiB9_18tracing_attributes4attr5FieldENtNtNtNtB7_4iter6traits10exact_size17ExactSizeIterator3lenBL_, symObjAddr: 0x4C80, symBinAddr: 0x44210, symSize: 0xE0 }
  - { offset: 0x99226, size: 0x8, addend: 0x0, symName: __RNvYINtNtCsieiGu2EXtoJ_4core6option6OptionRNtCsaKzlTDPUHDb_11proc_macro25IdentENtNtB7_3cmp9PartialEq2neCsjTXeTLYUiB9_18tracing_attributes, symObjAddr: 0x4AA0, symBinAddr: 0x44030, symSize: 0x20 }
  - { offset: 0xA0232, size: 0x8, addend: 0x0, symName: __RINvMNtCsieiGu2EXtoJ_4core6optionINtB3_6OptionINtNtCsdGrGZaRBwMb_3syn10punctuated4PairQNtNtBN_2ty4TypeQNtNtBN_5token5CommaEE7or_elseNCNvXsg_BL_INtBL_8PairsMutB1n_B1D_ENtNtNtNtB5_4iter6traits8iterator8Iterator4nexts_0ECsjTXeTLYUiB9_18tracing_attributes, symObjAddr: 0x0, symBinAddr: 0x3F590, symSize: 0xB0 }
  - { offset: 0xA02AF, size: 0x8, addend: 0x0, symName: __RINvMNtCsieiGu2EXtoJ_4core6optionINtB3_6OptionINtNtCsdGrGZaRBwMb_3syn10punctuated4PairQNtNtBN_2ty9BareFnArgQNtNtBN_5token5CommaEE7or_elseNCNvXsg_BL_INtBL_8PairsMutB1n_B1I_ENtNtNtNtB5_4iter6traits8iterator8Iterator4nexts_0ECsjTXeTLYUiB9_18tracing_attributes, symObjAddr: 0xB0, symBinAddr: 0x3F640, symSize: 0xB0 }
  - { offset: 0xA0339, size: 0x8, addend: 0x0, symName: __RINvMNtCsieiGu2EXtoJ_4core6optionINtB3_6OptionINtNtCsdGrGZaRBwMb_3syn10punctuated4PairQNtNtBN_3pat3PatQNtNtBN_5token2OrEE7or_elseNCNvXsg_BL_INtBL_8PairsMutB1n_B1D_ENtNtNtNtB5_4iter6traits8iterator8Iterator4nexts_0ECsjTXeTLYUiB9_18tracing_attributes, symObjAddr: 0x160, symBinAddr: 0x3F6F0, symSize: 0xB0 }
  - { offset: 0xA039C, size: 0x8, addend: 0x0, symName: __RINvMNtCsieiGu2EXtoJ_4core6optionINtB3_6OptionINtNtCsdGrGZaRBwMb_3syn10punctuated4PairQNtNtBN_3pat3PatQNtNtBN_5token5CommaEE7or_elseNCNvXsg_BL_INtBL_8PairsMutB1n_B1D_ENtNtNtNtB5_4iter6traits8iterator8Iterator4nexts_0ECsjTXeTLYUiB9_18tracing_attributes, symObjAddr: 0x210, symBinAddr: 0x3F7A0, symSize: 0xB0 }
  - { offset: 0xA0419, size: 0x8, addend: 0x0, symName: __RINvMNtCsieiGu2EXtoJ_4core6optionINtB3_6OptionINtNtCsdGrGZaRBwMb_3syn10punctuated4PairQNtNtBN_3pat8FieldPatQNtNtBN_5token5CommaEE7or_elseNCNvXsg_BL_INtBL_8PairsMutB1n_B1I_ENtNtNtNtB5_4iter6traits8iterator8Iterator4nexts_0ECsjTXeTLYUiB9_18tracing_attributes, symObjAddr: 0x2C0, symBinAddr: 0x3F850, symSize: 0xB0 }
  - { offset: 0xA0496, size: 0x8, addend: 0x0, symName: __RINvMNtCsieiGu2EXtoJ_4core6optionINtB3_6OptionINtNtCsdGrGZaRBwMb_3syn10punctuated4PairQNtNtBN_4data5FieldQNtNtBN_5token5CommaEE7or_elseNCNvXsg_BL_INtBL_8PairsMutB1n_B1G_ENtNtNtNtB5_4iter6traits8iterator8Iterator4nexts_0ECsjTXeTLYUiB9_18tracing_attributes, symObjAddr: 0x370, symBinAddr: 0x3F900, symSize: 0xB0 }
  - { offset: 0xA0513, size: 0x8, addend: 0x0, symName: __RINvMNtCsieiGu2EXtoJ_4core6optionINtB3_6OptionINtNtCsdGrGZaRBwMb_3syn10punctuated4PairQNtNtBN_4data7VariantQNtNtBN_5token5CommaEE7or_elseNCNvXsg_BL_INtBL_8PairsMutB1n_B1I_ENtNtNtNtB5_4iter6traits8iterator8Iterator4nexts_0ECsjTXeTLYUiB9_18tracing_attributes, symObjAddr: 0x420, symBinAddr: 0x3F9B0, symSize: 0xB0 }
  - { offset: 0xA0590, size: 0x8, addend: 0x0, symName: __RINvMNtCsieiGu2EXtoJ_4core6optionINtB3_6OptionINtNtCsdGrGZaRBwMb_3syn10punctuated4PairQNtNtBN_4expr10FieldValueQNtNtBN_5token5CommaEE7or_elseNCNvXsg_BL_INtBL_8PairsMutB1n_B1M_ENtNtNtNtB5_4iter6traits8iterator8Iterator4nexts_0ECsjTXeTLYUiB9_18tracing_attributes, symObjAddr: 0x4D0, symBinAddr: 0x3FA60, symSize: 0xB0 }
  - { offset: 0xA060D, size: 0x8, addend: 0x0, symName: __RINvMNtCsieiGu2EXtoJ_4core6optionINtB3_6OptionINtNtCsdGrGZaRBwMb_3syn10punctuated4PairQNtNtBN_4expr4ExprQNtNtBN_5token5CommaEE7or_elseNCNvXsg_BL_INtBL_8PairsMutB1n_B1F_ENtNtNtNtB5_4iter6traits8iterator8Iterator4nexts_0ECsjTXeTLYUiB9_18tracing_attributes, symObjAddr: 0x580, symBinAddr: 0x3FB10, symSize: 0xB0 }
  - { offset: 0xA068A, size: 0x8, addend: 0x0, symName: __RINvMNtCsieiGu2EXtoJ_4core6optionINtB3_6OptionINtNtCsdGrGZaRBwMb_3syn10punctuated4PairQNtNtBN_4item5FnArgQNtNtBN_5token5CommaEE7or_elseNCNvXsg_BL_INtBL_8PairsMutB1n_B1G_ENtNtNtNtB5_4iter6traits8iterator8Iterator4nexts_0ECsjTXeTLYUiB9_18tracing_attributes, symObjAddr: 0x630, symBinAddr: 0x3FBC0, symSize: 0xB0 }
  - { offset: 0xA0707, size: 0x8, addend: 0x0, symName: __RINvMNtCsieiGu2EXtoJ_4core6optionINtB3_6OptionINtNtCsdGrGZaRBwMb_3syn10punctuated4PairQNtNtBN_4item7UseTreeQNtNtBN_5token5CommaEE7or_elseNCNvXsg_BL_INtBL_8PairsMutB1n_B1I_ENtNtNtNtB5_4iter6traits8iterator8Iterator4nexts_0ECsjTXeTLYUiB9_18tracing_attributes, symObjAddr: 0x6E0, symBinAddr: 0x3FC70, symSize: 0xB0 }
  - { offset: 0xA0791, size: 0x8, addend: 0x0, symName: __RINvMNtCsieiGu2EXtoJ_4core6optionINtB3_6OptionINtNtCsdGrGZaRBwMb_3syn10punctuated4PairQNtNtBN_4path11PathSegmentQNtNtBN_5token7PathSepEE7or_elseNCNvXsg_BL_INtBL_8PairsMutB1n_B1N_ENtNtNtNtB5_4iter6traits8iterator8Iterator4nexts_0ECsjTXeTLYUiB9_18tracing_attributes, symObjAddr: 0x790, symBinAddr: 0x3FD20, symSize: 0xB0 }
  - { offset: 0xA080E, size: 0x8, addend: 0x0, symName: __RINvMNtCsieiGu2EXtoJ_4core6optionINtB3_6OptionINtNtCsdGrGZaRBwMb_3syn10punctuated4PairQNtNtBN_4path15GenericArgumentQNtNtBN_5token5CommaEE7or_elseNCNvXsg_BL_INtBL_8PairsMutB1n_B1R_ENtNtNtNtB5_4iter6traits8iterator8Iterator4nexts_0ECsjTXeTLYUiB9_18tracing_attributes, symObjAddr: 0x840, symBinAddr: 0x3FDD0, symSize: 0xB0 }
  - { offset: 0xA088B, size: 0x8, addend: 0x0, symName: __RINvMNtCsieiGu2EXtoJ_4core6optionINtB3_6OptionINtNtCsdGrGZaRBwMb_3syn10punctuated4PairQNtNtBN_8generics12GenericParamQNtNtBN_5token5CommaEE7or_elseNCNvXsg_BL_INtBL_8PairsMutB1n_B1S_ENtNtNtNtB5_4iter6traits8iterator8Iterator4nexts_0ECsjTXeTLYUiB9_18tracing_attributes, symObjAddr: 0x8F0, symBinAddr: 0x3FE80, symSize: 0xB0 }
  - { offset: 0xA0908, size: 0x8, addend: 0x0, symName: __RINvMNtCsieiGu2EXtoJ_4core6optionINtB3_6OptionINtNtCsdGrGZaRBwMb_3syn10punctuated4PairQNtNtBN_8generics13CapturedParamQNtNtBN_5token5CommaEE7or_elseNCNvXsg_BL_INtBL_8PairsMutB1n_B1T_ENtNtNtNtB5_4iter6traits8iterator8Iterator4nexts_0ECsjTXeTLYUiB9_18tracing_attributes, symObjAddr: 0x9A0, symBinAddr: 0x3FF30, symSize: 0xB0 }
  - { offset: 0xA0992, size: 0x8, addend: 0x0, symName: __RINvMNtCsieiGu2EXtoJ_4core6optionINtB3_6OptionINtNtCsdGrGZaRBwMb_3syn10punctuated4PairQNtNtBN_8generics14TypeParamBoundQNtNtBN_5token4PlusEE7or_elseNCNvXsg_BL_INtBL_8PairsMutB1n_B1U_ENtNtNtNtB5_4iter6traits8iterator8Iterator4nexts_0ECsjTXeTLYUiB9_18tracing_attributes, symObjAddr: 0xA50, symBinAddr: 0x3FFE0, symSize: 0xB0 }
  - { offset: 0xA0A0F, size: 0x8, addend: 0x0, symName: __RINvMNtCsieiGu2EXtoJ_4core6optionINtB3_6OptionINtNtCsdGrGZaRBwMb_3syn10punctuated4PairQNtNtBN_8generics14WherePredicateQNtNtBN_5token5CommaEE7or_elseNCNvXsg_BL_INtBL_8PairsMutB1n_B1U_ENtNtNtNtB5_4iter6traits8iterator8Iterator4nexts_0ECsjTXeTLYUiB9_18tracing_attributes, symObjAddr: 0xB00, symBinAddr: 0x40090, symSize: 0xB0 }
  - { offset: 0xA0A8C, size: 0x8, addend: 0x0, symName: __RINvMNtCsieiGu2EXtoJ_4core6optionINtB3_6OptionINtNtCsdGrGZaRBwMb_3syn10punctuated4PairQNtNtBN_8lifetime8LifetimeQNtNtBN_5token4PlusEE7or_elseNCNvXsg_BL_INtBL_8PairsMutB1n_B1N_ENtNtNtNtB5_4iter6traits8iterator8Iterator4nexts_0ECsjTXeTLYUiB9_18tracing_attributes, symObjAddr: 0xBB0, symBinAddr: 0x40140, symSize: 0xB0 }
  - { offset: 0xA0B16, size: 0x8, addend: 0x0, symName: __RINvMNtCsieiGu2EXtoJ_4core6optionINtB3_6OptionINtNtCsdGrGZaRBwMb_3syn10punctuated4PairRNtCsaKzlTDPUHDb_11proc_macro25IdentRNtNtBN_5token3DotEE7or_elseNCNvXsc_BL_INtBL_5PairsB1n_B1X_ENtNtNtNtB5_4iter6traits8iterator8Iterator4nexts_0ECsjTXeTLYUiB9_18tracing_attributes, symObjAddr: 0xC60, symBinAddr: 0x401F0, symSize: 0xB0 }
  - { offset: 0xA0BCB, size: 0x8, addend: 0x0, symName: __RINvMNtCsieiGu2EXtoJ_4core6optionINtB3_6OptionINtNtCsdGrGZaRBwMb_3syn10punctuated4PairRNtNtCsjTXeTLYUiB9_18tracing_attributes4attr5FieldRNtNtBN_5token5CommaEE7or_elseNCNvXsc_BL_INtBL_5PairsB1n_B2b_ENtNtNtNtB5_4iter6traits8iterator8Iterator4nexts_0EB1r_, symObjAddr: 0xD10, symBinAddr: 0x402A0, symSize: 0xB0 }
  - { offset: 0xA0C46, size: 0x8, addend: 0x0, symName: __RINvMNtCsieiGu2EXtoJ_4core6optionINtB3_6OptionINtNtNtB5_3num7nonzero7NonZerojEE6map_orINtNtB5_6result6ResultuBI_ENcNtB1m_3Err0ECsjTXeTLYUiB9_18tracing_attributes, symObjAddr: 0xDC0, symBinAddr: 0x40350, symSize: 0x90 }
  - { offset: 0xA0D0E, size: 0x8, addend: 0x0, symName: __RINvMNtCsieiGu2EXtoJ_4core6optionINtB3_6OptionNtCsaKzlTDPUHDb_11proc_macro211TokenStreamE14unwrap_or_elseNCINvNtCsjTXeTLYUiB9_18tracing_attributes6expand9gen_blockBI_Es_0EB1M_, symObjAddr: 0xE50, symBinAddr: 0x403E0, symSize: 0xA0 }
  - { offset: 0xA0D71, size: 0x8, addend: 0x0, symName: __RINvMNtCsieiGu2EXtoJ_4core6optionINtB3_6OptionNtCsaKzlTDPUHDb_11proc_macro211TokenStreamE14unwrap_or_elseNCINvNtCsjTXeTLYUiB9_18tracing_attributes6expand9gen_blockNtNtCsdGrGZaRBwMb_3syn4stmt5BlockEs_0EB1M_, symObjAddr: 0xEF0, symBinAddr: 0x40480, symSize: 0xA0 }
  - { offset: 0xA0DF9, size: 0x8, addend: 0x0, symName: __RINvMNtCsieiGu2EXtoJ_4core6optionINtB3_6OptionQINtNtCslJiobkLta79_5alloc5boxed3BoxNtNtCsdGrGZaRBwMb_3syn2ty4TypeEE3mapQB1i_NvYBJ_INtNtB5_7convert5AsMutB1i_E6as_mutECsjTXeTLYUiB9_18tracing_attributes, symObjAddr: 0xF90, symBinAddr: 0x40520, symSize: 0x50 }
  - { offset: 0xA0E89, size: 0x8, addend: 0x0, symName: __RINvMNtCsieiGu2EXtoJ_4core6optionINtB3_6OptionQINtNtCslJiobkLta79_5alloc5boxed3BoxNtNtCsdGrGZaRBwMb_3syn2ty9BareFnArgEE3mapQB1i_NvYBJ_INtNtB5_7convert5AsMutB1i_E6as_mutECsjTXeTLYUiB9_18tracing_attributes, symObjAddr: 0xFE0, symBinAddr: 0x40570, symSize: 0x50 }
  - { offset: 0xA0F19, size: 0x8, addend: 0x0, symName: __RINvMNtCsieiGu2EXtoJ_4core6optionINtB3_6OptionQINtNtCslJiobkLta79_5alloc5boxed3BoxNtNtCsdGrGZaRBwMb_3syn3pat3PatEE3mapQB1i_NvYBJ_INtNtB5_7convert5AsMutB1i_E6as_mutECsjTXeTLYUiB9_18tracing_attributes, symObjAddr: 0x1030, symBinAddr: 0x405C0, symSize: 0x50 }
  - { offset: 0xA0FA9, size: 0x8, addend: 0x0, symName: __RINvMNtCsieiGu2EXtoJ_4core6optionINtB3_6OptionQINtNtCslJiobkLta79_5alloc5boxed3BoxNtNtCsdGrGZaRBwMb_3syn3pat8FieldPatEE3mapQB1i_NvYBJ_INtNtB5_7convert5AsMutB1i_E6as_mutECsjTXeTLYUiB9_18tracing_attributes, symObjAddr: 0x1080, symBinAddr: 0x40610, symSize: 0x50 }
  - { offset: 0xA1039, size: 0x8, addend: 0x0, symName: __RINvMNtCsieiGu2EXtoJ_4core6optionINtB3_6OptionQINtNtCslJiobkLta79_5alloc5boxed3BoxNtNtCsdGrGZaRBwMb_3syn4data7VariantEE3mapQB1i_NvYBJ_INtNtB5_7convert5AsMutB1i_E6as_mutECsjTXeTLYUiB9_18tracing_attributes, symObjAddr: 0x10D0, symBinAddr: 0x40660, symSize: 0x50 }
  - { offset: 0xA10C9, size: 0x8, addend: 0x0, symName: __RINvMNtCsieiGu2EXtoJ_4core6optionINtB3_6OptionQINtNtCslJiobkLta79_5alloc5boxed3BoxNtNtCsdGrGZaRBwMb_3syn4expr10FieldValueEE3mapQB1i_NvYBJ_INtNtB5_7convert5AsMutB1i_E6as_mutECsjTXeTLYUiB9_18tracing_attributes, symObjAddr: 0x1120, symBinAddr: 0x406B0, symSize: 0x50 }
  - { offset: 0xA1159, size: 0x8, addend: 0x0, symName: __RINvMNtCsieiGu2EXtoJ_4core6optionINtB3_6OptionQINtNtCslJiobkLta79_5alloc5boxed3BoxNtNtCsdGrGZaRBwMb_3syn4expr4ExprEE3mapQB1i_NvYBJ_INtNtB5_7convert5AsMutB1i_E6as_mutECsjTXeTLYUiB9_18tracing_attributes, symObjAddr: 0x1170, symBinAddr: 0x40700, symSize: 0x50 }
  - { offset: 0xA11E9, size: 0x8, addend: 0x0, symName: __RINvMNtCsieiGu2EXtoJ_4core6optionINtB3_6OptionQINtNtCslJiobkLta79_5alloc5boxed3BoxNtNtCsdGrGZaRBwMb_3syn4item5FnArgEE3mapQB1i_NvYBJ_INtNtB5_7convert5AsMutB1i_E6as_mutECsjTXeTLYUiB9_18tracing_attributes, symObjAddr: 0x11C0, symBinAddr: 0x40750, symSize: 0x50 }
  - { offset: 0xA1279, size: 0x8, addend: 0x0, symName: __RINvMNtCsieiGu2EXtoJ_4core6optionINtB3_6OptionQINtNtCslJiobkLta79_5alloc5boxed3BoxNtNtCsdGrGZaRBwMb_3syn4item7UseTreeEE3mapQB1i_NvYBJ_INtNtB5_7convert5AsMutB1i_E6as_mutECsjTXeTLYUiB9_18tracing_attributes, symObjAddr: 0x1210, symBinAddr: 0x407A0, symSize: 0x50 }
  - { offset: 0xA1309, size: 0x8, addend: 0x0, symName: __RINvMNtCsieiGu2EXtoJ_4core6optionINtB3_6OptionQINtNtCslJiobkLta79_5alloc5boxed3BoxNtNtCsdGrGZaRBwMb_3syn4path15GenericArgumentEE3mapQB1i_NvYBJ_INtNtB5_7convert5AsMutB1i_E6as_mutECsjTXeTLYUiB9_18tracing_attributes, symObjAddr: 0x1260, symBinAddr: 0x407F0, symSize: 0x50 }
  - { offset: 0xA1399, size: 0x8, addend: 0x0, symName: __RINvMNtCsieiGu2EXtoJ_4core6optionINtB3_6OptionQINtNtCslJiobkLta79_5alloc5boxed3BoxNtNtCsdGrGZaRBwMb_3syn8generics13CapturedParamEE3mapQB1i_NvYBJ_INtNtB5_7convert5AsMutB1i_E6as_mutECsjTXeTLYUiB9_18tracing_attributes, symObjAddr: 0x12B0, symBinAddr: 0x40840, symSize: 0x50 }
  - { offset: 0xA1429, size: 0x8, addend: 0x0, symName: __RINvMNtCsieiGu2EXtoJ_4core6optionINtB3_6OptionQINtNtCslJiobkLta79_5alloc5boxed3BoxNtNtCsdGrGZaRBwMb_3syn8generics14TypeParamBoundEE3mapQB1i_NvYBJ_INtNtB5_7convert5AsMutB1i_E6as_mutECsjTXeTLYUiB9_18tracing_attributes, symObjAddr: 0x1300, symBinAddr: 0x40890, symSize: 0x50 }
  - { offset: 0xA14B9, size: 0x8, addend: 0x0, symName: __RINvMNtCsieiGu2EXtoJ_4core6optionINtB3_6OptionQINtNtCslJiobkLta79_5alloc5boxed3BoxNtNtCsdGrGZaRBwMb_3syn8generics14WherePredicateEE3mapQB1i_NvYBJ_INtNtB5_7convert5AsMutB1i_E6as_mutECsjTXeTLYUiB9_18tracing_attributes, symObjAddr: 0x1350, symBinAddr: 0x408E0, symSize: 0x50 }
  - { offset: 0xA1549, size: 0x8, addend: 0x0, symName: __RINvMNtCsieiGu2EXtoJ_4core6optionINtB3_6OptionQINtNtCslJiobkLta79_5alloc5boxed3BoxNtNtCsdGrGZaRBwMb_3syn8lifetime8LifetimeEE3mapQB1i_NvYBJ_INtNtB5_7convert5AsMutB1i_E6as_mutECsjTXeTLYUiB9_18tracing_attributes, symObjAddr: 0x13A0, symBinAddr: 0x40930, symSize: 0x50 }
  - { offset: 0xA15F3, size: 0x8, addend: 0x0, symName: __RINvMNtCsieiGu2EXtoJ_4core6optionINtB3_6OptionQINtNtCslJiobkLta79_5alloc5boxed3BoxNtNtCsjTXeTLYUiB9_18tracing_attributes4attr5FieldEE3mapQB1i_NvYBJ_INtNtB5_7convert5AsMutB1i_E6as_mutEB1m_, symObjAddr: 0x13F0, symBinAddr: 0x40980, symSize: 0x50 }
  - { offset: 0xA1676, size: 0x8, addend: 0x0, symName: __RINvMNtCsieiGu2EXtoJ_4core6optionINtB3_6OptionQNtNtCsdGrGZaRBwMb_3syn2ty4TypeE3mapINtNtBN_10punctuated4PairBI_QNtNtBN_5token5CommaENcNtB1i_3End0ECsjTXeTLYUiB9_18tracing_attributes, symObjAddr: 0x1440, symBinAddr: 0x409D0, symSize: 0x80 }
  - { offset: 0xA16F9, size: 0x8, addend: 0x0, symName: __RINvMNtCsieiGu2EXtoJ_4core6optionINtB3_6OptionQNtNtCsdGrGZaRBwMb_3syn2ty9BareFnArgE3mapINtNtBN_10punctuated4PairBI_QNtNtBN_5token5CommaENcNtB1n_3End0ECsjTXeTLYUiB9_18tracing_attributes, symObjAddr: 0x14C0, symBinAddr: 0x40A50, symSize: 0x80 }
  - { offset: 0xA177C, size: 0x8, addend: 0x0, symName: __RINvMNtCsieiGu2EXtoJ_4core6optionINtB3_6OptionQNtNtCsdGrGZaRBwMb_3syn3pat3PatE3mapINtNtBN_10punctuated4PairBI_QNtNtBN_5token2OrENcNtB1i_3End0ECsjTXeTLYUiB9_18tracing_attributes, symObjAddr: 0x1540, symBinAddr: 0x40AD0, symSize: 0x80 }
  - { offset: 0xA17FF, size: 0x8, addend: 0x0, symName: __RINvMNtCsieiGu2EXtoJ_4core6optionINtB3_6OptionQNtNtCsdGrGZaRBwMb_3syn3pat3PatE3mapINtNtBN_10punctuated4PairBI_QNtNtBN_5token5CommaENcNtB1i_3End0ECsjTXeTLYUiB9_18tracing_attributes, symObjAddr: 0x15C0, symBinAddr: 0x40B50, symSize: 0x80 }
  - { offset: 0xA1882, size: 0x8, addend: 0x0, symName: __RINvMNtCsieiGu2EXtoJ_4core6optionINtB3_6OptionQNtNtCsdGrGZaRBwMb_3syn3pat8FieldPatE3mapINtNtBN_10punctuated4PairBI_QNtNtBN_5token5CommaENcNtB1n_3End0ECsjTXeTLYUiB9_18tracing_attributes, symObjAddr: 0x1640, symBinAddr: 0x40BD0, symSize: 0x80 }
  - { offset: 0xA1905, size: 0x8, addend: 0x0, symName: __RINvMNtCsieiGu2EXtoJ_4core6optionINtB3_6OptionQNtNtCsdGrGZaRBwMb_3syn4data5FieldE3mapINtNtBN_10punctuated4PairBI_QNtNtBN_5token5CommaENcNtB1l_3End0ECsjTXeTLYUiB9_18tracing_attributes, symObjAddr: 0x16C0, symBinAddr: 0x40C50, symSize: 0x80 }
  - { offset: 0xA1988, size: 0x8, addend: 0x0, symName: __RINvMNtCsieiGu2EXtoJ_4core6optionINtB3_6OptionQNtNtCsdGrGZaRBwMb_3syn4data7VariantE3mapINtNtBN_10punctuated4PairBI_QNtNtBN_5token5CommaENcNtB1n_3End0ECsjTXeTLYUiB9_18tracing_attributes, symObjAddr: 0x1740, symBinAddr: 0x40CD0, symSize: 0x80 }
  - { offset: 0xA1A0B, size: 0x8, addend: 0x0, symName: __RINvMNtCsieiGu2EXtoJ_4core6optionINtB3_6OptionQNtNtCsdGrGZaRBwMb_3syn4expr10FieldValueE3mapINtNtBN_10punctuated4PairBI_QNtNtBN_5token5CommaENcNtB1r_3End0ECsjTXeTLYUiB9_18tracing_attributes, symObjAddr: 0x17C0, symBinAddr: 0x40D50, symSize: 0x80 }
  - { offset: 0xA1A8E, size: 0x8, addend: 0x0, symName: __RINvMNtCsieiGu2EXtoJ_4core6optionINtB3_6OptionQNtNtCsdGrGZaRBwMb_3syn4expr4ExprE3mapINtNtBN_10punctuated4PairBI_QNtNtBN_5token5CommaENcNtB1k_3End0ECsjTXeTLYUiB9_18tracing_attributes, symObjAddr: 0x1840, symBinAddr: 0x40DD0, symSize: 0x80 }
  - { offset: 0xA1B11, size: 0x8, addend: 0x0, symName: __RINvMNtCsieiGu2EXtoJ_4core6optionINtB3_6OptionQNtNtCsdGrGZaRBwMb_3syn4item5FnArgE3mapINtNtBN_10punctuated4PairBI_QNtNtBN_5token5CommaENcNtB1l_3End0ECsjTXeTLYUiB9_18tracing_attributes, symObjAddr: 0x18C0, symBinAddr: 0x40E50, symSize: 0x80 }
  - { offset: 0xA1B94, size: 0x8, addend: 0x0, symName: __RINvMNtCsieiGu2EXtoJ_4core6optionINtB3_6OptionQNtNtCsdGrGZaRBwMb_3syn4item7UseTreeE3mapINtNtBN_10punctuated4PairBI_QNtNtBN_5token5CommaENcNtB1n_3End0ECsjTXeTLYUiB9_18tracing_attributes, symObjAddr: 0x1940, symBinAddr: 0x40ED0, symSize: 0x80 }
  - { offset: 0xA1C17, size: 0x8, addend: 0x0, symName: __RINvMNtCsieiGu2EXtoJ_4core6optionINtB3_6OptionQNtNtCsdGrGZaRBwMb_3syn4path11PathSegmentE3mapINtNtBN_10punctuated4PairBI_QNtNtBN_5token7PathSepENcNtB1s_3End0ECsjTXeTLYUiB9_18tracing_attributes, symObjAddr: 0x19C0, symBinAddr: 0x40F50, symSize: 0x80 }
  - { offset: 0xA1C9A, size: 0x8, addend: 0x0, symName: __RINvMNtCsieiGu2EXtoJ_4core6optionINtB3_6OptionQNtNtCsdGrGZaRBwMb_3syn4path15GenericArgumentE3mapINtNtBN_10punctuated4PairBI_QNtNtBN_5token5CommaENcNtB1w_3End0ECsjTXeTLYUiB9_18tracing_attributes, symObjAddr: 0x1A40, symBinAddr: 0x40FD0, symSize: 0x80 }
  - { offset: 0xA1D1D, size: 0x8, addend: 0x0, symName: __RINvMNtCsieiGu2EXtoJ_4core6optionINtB3_6OptionQNtNtCsdGrGZaRBwMb_3syn8generics12GenericParamE3mapINtNtBN_10punctuated4PairBI_QNtNtBN_5token5CommaENcNtB1x_3End0ECsjTXeTLYUiB9_18tracing_attributes, symObjAddr: 0x1AC0, symBinAddr: 0x41050, symSize: 0x80 }
  - { offset: 0xA1DA0, size: 0x8, addend: 0x0, symName: __RINvMNtCsieiGu2EXtoJ_4core6optionINtB3_6OptionQNtNtCsdGrGZaRBwMb_3syn8generics13CapturedParamE3mapINtNtBN_10punctuated4PairBI_QNtNtBN_5token5CommaENcNtB1y_3End0ECsjTXeTLYUiB9_18tracing_attributes, symObjAddr: 0x1B40, symBinAddr: 0x410D0, symSize: 0x80 }
  - { offset: 0xA1E23, size: 0x8, addend: 0x0, symName: __RINvMNtCsieiGu2EXtoJ_4core6optionINtB3_6OptionQNtNtCsdGrGZaRBwMb_3syn8generics14TypeParamBoundE3mapINtNtBN_10punctuated4PairBI_QNtNtBN_5token4PlusENcNtB1z_3End0ECsjTXeTLYUiB9_18tracing_attributes, symObjAddr: 0x1BC0, symBinAddr: 0x41150, symSize: 0x80 }
  - { offset: 0xA1EA6, size: 0x8, addend: 0x0, symName: __RINvMNtCsieiGu2EXtoJ_4core6optionINtB3_6OptionQNtNtCsdGrGZaRBwMb_3syn8generics14WherePredicateE3mapINtNtBN_10punctuated4PairBI_QNtNtBN_5token5CommaENcNtB1z_3End0ECsjTXeTLYUiB9_18tracing_attributes, symObjAddr: 0x1C40, symBinAddr: 0x411D0, symSize: 0x80 }
  - { offset: 0xA1F29, size: 0x8, addend: 0x0, symName: __RINvMNtCsieiGu2EXtoJ_4core6optionINtB3_6OptionQNtNtCsdGrGZaRBwMb_3syn8lifetime8LifetimeE3mapINtNtBN_10punctuated4PairBI_QNtNtBN_5token4PlusENcNtB1s_3End0ECsjTXeTLYUiB9_18tracing_attributes, symObjAddr: 0x1CC0, symBinAddr: 0x41250, symSize: 0x80 }
  - { offset: 0xA1FA1, size: 0x8, addend: 0x0, symName: __RINvMNtCsieiGu2EXtoJ_4core6optionINtB3_6OptionQNtNtCsjTXeTLYUiB9_18tracing_attributes4attr5FieldE7or_elseNCNvXsF_NtCsdGrGZaRBwMb_3syn10punctuatedINtB1N_14PrivateIterMutBJ_NtNtB1P_5token5CommaENtNtNtNtB5_4iter6traits8iterator8Iterator4nexts_0EBN_, symObjAddr: 0x1D40, symBinAddr: 0x412D0, symSize: 0x90 }
  - { offset: 0xA2057, size: 0x8, addend: 0x0, symName: __RINvMNtCsieiGu2EXtoJ_4core6optionINtB3_6OptionQNtNtCsjTXeTLYUiB9_18tracing_attributes4attr5FieldE7or_elseNCNvXsG_NtCsdGrGZaRBwMb_3syn10punctuatedINtB1N_14PrivateIterMutBJ_NtNtB1P_5token5CommaENtNtNtNtB5_4iter6traits12double_ended19DoubleEndedIterator9next_back0EBN_, symObjAddr: 0x1DD0, symBinAddr: 0x41360, symSize: 0x90 }
  - { offset: 0xA20C6, size: 0x8, addend: 0x0, symName: __RINvMNtCsieiGu2EXtoJ_4core6optionINtB3_6OptionQTNtNtCsdGrGZaRBwMb_3syn2ty4TypeNtNtBO_5token5CommaEE3mapINtNtBO_10punctuated4PairQBK_QB1e_ENCNvXsg_B1G_INtB1G_8PairsMutBK_B1e_ENtNtNtNtB5_4iter6traits8iterator8Iterator4next0ECsjTXeTLYUiB9_18tracing_attributes, symObjAddr: 0x1E60, symBinAddr: 0x413F0, symSize: 0x80 }
  - { offset: 0xA213E, size: 0x8, addend: 0x0, symName: __RINvMNtCsieiGu2EXtoJ_4core6optionINtB3_6OptionQTNtNtCsdGrGZaRBwMb_3syn2ty9BareFnArgNtNtBO_5token5CommaEE3mapINtNtBO_10punctuated4PairQBK_QB1j_ENCNvXsg_B1L_INtB1L_8PairsMutBK_B1j_ENtNtNtNtB5_4iter6traits8iterator8Iterator4next0ECsjTXeTLYUiB9_18tracing_attributes, symObjAddr: 0x1EE0, symBinAddr: 0x41470, symSize: 0x80 }
  - { offset: 0xA21B6, size: 0x8, addend: 0x0, symName: __RINvMNtCsieiGu2EXtoJ_4core6optionINtB3_6OptionQTNtNtCsdGrGZaRBwMb_3syn3pat3PatNtNtBO_5token2OrEE3mapINtNtBO_10punctuated4PairQBK_QB1e_ENCNvXsg_B1D_INtB1D_8PairsMutBK_B1e_ENtNtNtNtB5_4iter6traits8iterator8Iterator4next0ECsjTXeTLYUiB9_18tracing_attributes, symObjAddr: 0x1F60, symBinAddr: 0x414F0, symSize: 0x80 }
  - { offset: 0xA222E, size: 0x8, addend: 0x0, symName: __RINvMNtCsieiGu2EXtoJ_4core6optionINtB3_6OptionQTNtNtCsdGrGZaRBwMb_3syn3pat3PatNtNtBO_5token5CommaEE3mapINtNtBO_10punctuated4PairQBK_QB1e_ENCNvXsg_B1G_INtB1G_8PairsMutBK_B1e_ENtNtNtNtB5_4iter6traits8iterator8Iterator4next0ECsjTXeTLYUiB9_18tracing_attributes, symObjAddr: 0x1FE0, symBinAddr: 0x41570, symSize: 0x80 }
  - { offset: 0xA22A6, size: 0x8, addend: 0x0, symName: __RINvMNtCsieiGu2EXtoJ_4core6optionINtB3_6OptionQTNtNtCsdGrGZaRBwMb_3syn3pat8FieldPatNtNtBO_5token5CommaEE3mapINtNtBO_10punctuated4PairQBK_QB1j_ENCNvXsg_B1L_INtB1L_8PairsMutBK_B1j_ENtNtNtNtB5_4iter6traits8iterator8Iterator4next0ECsjTXeTLYUiB9_18tracing_attributes, symObjAddr: 0x2060, symBinAddr: 0x415F0, symSize: 0x80 }
  - { offset: 0xA231E, size: 0x8, addend: 0x0, symName: __RINvMNtCsieiGu2EXtoJ_4core6optionINtB3_6OptionQTNtNtCsdGrGZaRBwMb_3syn4data5FieldNtNtBO_5token5CommaEE3mapINtNtBO_10punctuated4PairQBK_QB1h_ENCNvXsg_B1J_INtB1J_8PairsMutBK_B1h_ENtNtNtNtB5_4iter6traits8iterator8Iterator4next0ECsjTXeTLYUiB9_18tracing_attributes, symObjAddr: 0x20E0, symBinAddr: 0x41670, symSize: 0x80 }
  - { offset: 0xA2396, size: 0x8, addend: 0x0, symName: __RINvMNtCsieiGu2EXtoJ_4core6optionINtB3_6OptionQTNtNtCsdGrGZaRBwMb_3syn4data7VariantNtNtBO_5token5CommaEE3mapINtNtBO_10punctuated4PairQBK_QB1j_ENCNvXsg_B1L_INtB1L_8PairsMutBK_B1j_ENtNtNtNtB5_4iter6traits8iterator8Iterator4next0ECsjTXeTLYUiB9_18tracing_attributes, symObjAddr: 0x2160, symBinAddr: 0x416F0, symSize: 0x80 }
  - { offset: 0xA240E, size: 0x8, addend: 0x0, symName: __RINvMNtCsieiGu2EXtoJ_4core6optionINtB3_6OptionQTNtNtCsdGrGZaRBwMb_3syn4expr10FieldValueNtNtBO_5token5CommaEE3mapINtNtBO_10punctuated4PairQBK_QB1n_ENCNvXsg_B1P_INtB1P_8PairsMutBK_B1n_ENtNtNtNtB5_4iter6traits8iterator8Iterator4next0ECsjTXeTLYUiB9_18tracing_attributes, symObjAddr: 0x21E0, symBinAddr: 0x41770, symSize: 0x80 }
  - { offset: 0xA2486, size: 0x8, addend: 0x0, symName: __RINvMNtCsieiGu2EXtoJ_4core6optionINtB3_6OptionQTNtNtCsdGrGZaRBwMb_3syn4expr4ExprNtNtBO_5token5CommaEE3mapINtNtBO_10punctuated4PairQBK_QB1g_ENCNvXsg_B1I_INtB1I_8PairsMutBK_B1g_ENtNtNtNtB5_4iter6traits8iterator8Iterator4next0ECsjTXeTLYUiB9_18tracing_attributes, symObjAddr: 0x2260, symBinAddr: 0x417F0, symSize: 0x80 }
  - { offset: 0xA24FE, size: 0x8, addend: 0x0, symName: __RINvMNtCsieiGu2EXtoJ_4core6optionINtB3_6OptionQTNtNtCsdGrGZaRBwMb_3syn4item5FnArgNtNtBO_5token5CommaEE3mapINtNtBO_10punctuated4PairQBK_QB1h_ENCNvXsg_B1J_INtB1J_8PairsMutBK_B1h_ENtNtNtNtB5_4iter6traits8iterator8Iterator4next0ECsjTXeTLYUiB9_18tracing_attributes, symObjAddr: 0x22E0, symBinAddr: 0x41870, symSize: 0x80 }
  - { offset: 0xA2576, size: 0x8, addend: 0x0, symName: __RINvMNtCsieiGu2EXtoJ_4core6optionINtB3_6OptionQTNtNtCsdGrGZaRBwMb_3syn4item7UseTreeNtNtBO_5token5CommaEE3mapINtNtBO_10punctuated4PairQBK_QB1j_ENCNvXsg_B1L_INtB1L_8PairsMutBK_B1j_ENtNtNtNtB5_4iter6traits8iterator8Iterator4next0ECsjTXeTLYUiB9_18tracing_attributes, symObjAddr: 0x2360, symBinAddr: 0x418F0, symSize: 0x80 }
  - { offset: 0xA25EE, size: 0x8, addend: 0x0, symName: __RINvMNtCsieiGu2EXtoJ_4core6optionINtB3_6OptionQTNtNtCsdGrGZaRBwMb_3syn4path11PathSegmentNtNtBO_5token7PathSepEE3mapINtNtBO_10punctuated4PairQBK_QB1o_ENCNvXsg_B1S_INtB1S_8PairsMutBK_B1o_ENtNtNtNtB5_4iter6traits8iterator8Iterator4next0ECsjTXeTLYUiB9_18tracing_attributes, symObjAddr: 0x23E0, symBinAddr: 0x41970, symSize: 0x80 }
  - { offset: 0xA2666, size: 0x8, addend: 0x0, symName: __RINvMNtCsieiGu2EXtoJ_4core6optionINtB3_6OptionQTNtNtCsdGrGZaRBwMb_3syn4path15GenericArgumentNtNtBO_5token5CommaEE3mapINtNtBO_10punctuated4PairQBK_QB1s_ENCNvXsg_B1U_INtB1U_8PairsMutBK_B1s_ENtNtNtNtB5_4iter6traits8iterator8Iterator4next0ECsjTXeTLYUiB9_18tracing_attributes, symObjAddr: 0x2460, symBinAddr: 0x419F0, symSize: 0x80 }
  - { offset: 0xA26DE, size: 0x8, addend: 0x0, symName: __RINvMNtCsieiGu2EXtoJ_4core6optionINtB3_6OptionQTNtNtCsdGrGZaRBwMb_3syn8generics12GenericParamNtNtBO_5token5CommaEE3mapINtNtBO_10punctuated4PairQBK_QB1t_ENCNvXsg_B1V_INtB1V_8PairsMutBK_B1t_ENtNtNtNtB5_4iter6traits8iterator8Iterator4next0ECsjTXeTLYUiB9_18tracing_attributes, symObjAddr: 0x24E0, symBinAddr: 0x41A70, symSize: 0x80 }
  - { offset: 0xA2756, size: 0x8, addend: 0x0, symName: __RINvMNtCsieiGu2EXtoJ_4core6optionINtB3_6OptionQTNtNtCsdGrGZaRBwMb_3syn8generics13CapturedParamNtNtBO_5token5CommaEE3mapINtNtBO_10punctuated4PairQBK_QB1u_ENCNvXsg_B1W_INtB1W_8PairsMutBK_B1u_ENtNtNtNtB5_4iter6traits8iterator8Iterator4next0ECsjTXeTLYUiB9_18tracing_attributes, symObjAddr: 0x2560, symBinAddr: 0x41AF0, symSize: 0x80 }
  - { offset: 0xA27CE, size: 0x8, addend: 0x0, symName: __RINvMNtCsieiGu2EXtoJ_4core6optionINtB3_6OptionQTNtNtCsdGrGZaRBwMb_3syn8generics14TypeParamBoundNtNtBO_5token4PlusEE3mapINtNtBO_10punctuated4PairQBK_QB1v_ENCNvXsg_B1W_INtB1W_8PairsMutBK_B1v_ENtNtNtNtB5_4iter6traits8iterator8Iterator4next0ECsjTXeTLYUiB9_18tracing_attributes, symObjAddr: 0x25E0, symBinAddr: 0x41B70, symSize: 0x80 }
  - { offset: 0xA2846, size: 0x8, addend: 0x0, symName: __RINvMNtCsieiGu2EXtoJ_4core6optionINtB3_6OptionQTNtNtCsdGrGZaRBwMb_3syn8generics14WherePredicateNtNtBO_5token5CommaEE3mapINtNtBO_10punctuated4PairQBK_QB1v_ENCNvXsg_B1X_INtB1X_8PairsMutBK_B1v_ENtNtNtNtB5_4iter6traits8iterator8Iterator4next0ECsjTXeTLYUiB9_18tracing_attributes, symObjAddr: 0x2660, symBinAddr: 0x41BF0, symSize: 0x80 }
  - { offset: 0xA28BE, size: 0x8, addend: 0x0, symName: __RINvMNtCsieiGu2EXtoJ_4core6optionINtB3_6OptionQTNtNtCsdGrGZaRBwMb_3syn8lifetime8LifetimeNtNtBO_5token4PlusEE3mapINtNtBO_10punctuated4PairQBK_QB1o_ENCNvXsg_B1P_INtB1P_8PairsMutBK_B1o_ENtNtNtNtB5_4iter6traits8iterator8Iterator4next0ECsjTXeTLYUiB9_18tracing_attributes, symObjAddr: 0x26E0, symBinAddr: 0x41C70, symSize: 0x80 }
  - { offset: 0xA2929, size: 0x8, addend: 0x0, symName: __RINvMNtCsieiGu2EXtoJ_4core6optionINtB3_6OptionQTNtNtCsjTXeTLYUiB9_18tracing_attributes4attr5FieldNtNtCsdGrGZaRBwMb_3syn5token5CommaEE3mapQBK_NCNCNvXsG_NtB1B_10punctuatedINtB2p_14PrivateIterMutBK_B1x_ENtNtNtNtB5_4iter6traits12double_ended19DoubleEndedIterator9next_back00EBO_, symObjAddr: 0x2760, symBinAddr: 0x41CF0, symSize: 0x50 }
  - { offset: 0xA2994, size: 0x8, addend: 0x0, symName: __RINvMNtCsieiGu2EXtoJ_4core6optionINtB3_6OptionQTNtNtCsjTXeTLYUiB9_18tracing_attributes4attr5FieldNtNtCsdGrGZaRBwMb_3syn5token5CommaEE3mapQBK_NCNvXsF_NtB1B_10punctuatedINtB2n_14PrivateIterMutBK_B1x_ENtNtNtNtB5_4iter6traits8iterator8Iterator4next0EBO_, symObjAddr: 0x27B0, symBinAddr: 0x41D40, symSize: 0x50 }
  - { offset: 0xA2A8A, size: 0x8, addend: 0x0, symName: __RINvMNtCsieiGu2EXtoJ_4core6optionINtB3_6OptionRINtNtCslJiobkLta79_5alloc5boxed3BoxDNtNtNtNtB5_4iter6traits8iterator8Iteratorp4ItemTNtCsaKzlTDPUHDb_11proc_macro25IdentNtNtCsjTXeTLYUiB9_18tracing_attributes6expand10RecordTypeEEL_EE6map_orTjIBw_jEENvYBJ_B1j_9size_hintEB2I_, symObjAddr: 0x2800, symBinAddr: 0x41D90, symSize: 0xA0 }
  - { offset: 0xA2B2A, size: 0x8, addend: 0x0, symName: __RINvMNtCsieiGu2EXtoJ_4core6optionINtB3_6OptionRINtNtCslJiobkLta79_5alloc5boxed3BoxNtCsaKzlTDPUHDb_11proc_macro25IdentEE3mapRB1i_NvYBJ_INtNtB5_7convert5AsRefB1i_E6as_refECsjTXeTLYUiB9_18tracing_attributes, symObjAddr: 0x28A0, symBinAddr: 0x41E30, symSize: 0x50 }
  - { offset: 0xA2BBA, size: 0x8, addend: 0x0, symName: __RINvMNtCsieiGu2EXtoJ_4core6optionINtB3_6OptionRINtNtCslJiobkLta79_5alloc5boxed3BoxNtNtCsjTXeTLYUiB9_18tracing_attributes4attr5FieldEE3mapRB1i_NvYBJ_INtNtB5_7convert5AsRefB1i_E6as_refEB1m_, symObjAddr: 0x28F0, symBinAddr: 0x41E80, symSize: 0x50 }
  - { offset: 0xA2C3D, size: 0x8, addend: 0x0, symName: __RINvMNtCsieiGu2EXtoJ_4core6optionINtB3_6OptionRNtCsaKzlTDPUHDb_11proc_macro25IdentE3mapINtNtCsdGrGZaRBwMb_3syn10punctuated4PairBI_RNtNtB1s_5token3DotENcNtB1n_3End0ECsjTXeTLYUiB9_18tracing_attributes, symObjAddr: 0x2940, symBinAddr: 0x41ED0, symSize: 0x80 }
  - { offset: 0xA2CA8, size: 0x8, addend: 0x0, symName: __RINvMNtCsieiGu2EXtoJ_4core6optionINtB3_6OptionRNtCsaKzlTDPUHDb_11proc_macro25IdentE7or_elseNCNvXsw_NtCsdGrGZaRBwMb_3syn10punctuatedINtB1z_11PrivateIterBJ_NtNtB1B_5token3DotENtNtNtNtB5_4iter6traits8iterator8Iterator4nexts_0ECsjTXeTLYUiB9_18tracing_attributes, symObjAddr: 0x29C0, symBinAddr: 0x41F50, symSize: 0x90 }
  - { offset: 0xA2D31, size: 0x8, addend: 0x0, symName: __RINvMNtCsieiGu2EXtoJ_4core6optionINtB3_6OptionRNtCsaKzlTDPUHDb_11proc_macro25IdentE7or_elseNCNvXsx_NtCsdGrGZaRBwMb_3syn10punctuatedINtB1z_11PrivateIterBJ_NtNtB1B_5token3DotENtNtNtNtB5_4iter6traits12double_ended19DoubleEndedIterator9next_back0ECsjTXeTLYUiB9_18tracing_attributes, symObjAddr: 0x2A50, symBinAddr: 0x41FE0, symSize: 0x90 }
  - { offset: 0xA2DA0, size: 0x8, addend: 0x0, symName: __RINvMNtCsieiGu2EXtoJ_4core6optionINtB3_6OptionRNtNtCsdGrGZaRBwMb_3syn4path11PathSegmentE3mapbNCNvMNtCsjTXeTLYUiB9_18tracing_attributes6expandNtB1y_10RecordType13parse_from_ty0EB1A_, symObjAddr: 0x2AE0, symBinAddr: 0x42070, symSize: 0x50 }
  - { offset: 0xA2E18, size: 0x8, addend: 0x0, symName: __RINvMNtCsieiGu2EXtoJ_4core6optionINtB3_6OptionRNtNtCsjTXeTLYUiB9_18tracing_attributes4attr13LitStrOrIdentE3mapNtCsaKzlTDPUHDb_11proc_macro211TokenStreamNCINvNtBN_6expand9gen_blockB1K_E0EBN_, symObjAddr: 0x2B30, symBinAddr: 0x420C0, symSize: 0x80 }
  - { offset: 0xA2E83, size: 0x8, addend: 0x0, symName: __RINvMNtCsieiGu2EXtoJ_4core6optionINtB3_6OptionRNtNtCsjTXeTLYUiB9_18tracing_attributes4attr13LitStrOrIdentE3mapNtCsaKzlTDPUHDb_11proc_macro211TokenStreamNCINvNtBN_6expand9gen_blockNtNtCsdGrGZaRBwMb_3syn4stmt5BlockE0EBN_, symObjAddr: 0x2BB0, symBinAddr: 0x42140, symSize: 0x80 }
  - { offset: 0xA2F06, size: 0x8, addend: 0x0, symName: __RINvMNtCsieiGu2EXtoJ_4core6optionINtB3_6OptionRNtNtCsjTXeTLYUiB9_18tracing_attributes4attr5FieldE3mapINtNtCsdGrGZaRBwMb_3syn10punctuated4PairBI_RNtNtB1G_5token5CommaENcNtB1B_3End0EBN_, symObjAddr: 0x2C30, symBinAddr: 0x421C0, symSize: 0x80 }
  - { offset: 0xA2F71, size: 0x8, addend: 0x0, symName: __RINvMNtCsieiGu2EXtoJ_4core6optionINtB3_6OptionRNtNtCsjTXeTLYUiB9_18tracing_attributes4attr5FieldE7or_elseNCNvXsw_NtCsdGrGZaRBwMb_3syn10punctuatedINtB1N_11PrivateIterBJ_NtNtB1P_5token5CommaENtNtNtNtB5_4iter6traits8iterator8Iterator4nexts_0EBN_, symObjAddr: 0x2CB0, symBinAddr: 0x42240, symSize: 0x90 }
  - { offset: 0xA2FED, size: 0x8, addend: 0x0, symName: __RINvMNtCsieiGu2EXtoJ_4core6optionINtB3_6OptionRNtNtCsjTXeTLYUiB9_18tracing_attributes4attr5FieldE7or_elseNCNvXsx_NtCsdGrGZaRBwMb_3syn10punctuatedINtB1N_11PrivateIterBJ_NtNtB1P_5token5CommaENtNtNtNtB5_4iter6traits12double_ended19DoubleEndedIterator9next_back0EBN_, symObjAddr: 0x2D40, symBinAddr: 0x422D0, symSize: 0x90 }
  - { offset: 0xA304F, size: 0x8, addend: 0x0, symName: __RINvMNtCsieiGu2EXtoJ_4core6optionINtB3_6OptionRTNtCsaKzlTDPUHDb_11proc_macro25IdentNtNtCsdGrGZaRBwMb_3syn5token3DotEE3mapINtNtB1n_10punctuated4PairRBK_RB1j_ENCNvXsc_B1Y_INtB1Y_5PairsBK_B1j_ENtNtNtNtB5_4iter6traits8iterator8Iterator4next0ECsjTXeTLYUiB9_18tracing_attributes, symObjAddr: 0x2DD0, symBinAddr: 0x42360, symSize: 0x80 }
  - { offset: 0xA30BA, size: 0x8, addend: 0x0, symName: __RINvMNtCsieiGu2EXtoJ_4core6optionINtB3_6OptionRTNtCsaKzlTDPUHDb_11proc_macro25IdentNtNtCsdGrGZaRBwMb_3syn5token3DotEE3mapRBK_NCNCNvXsx_NtB1n_10punctuatedINtB29_11PrivateIterBK_B1j_ENtNtNtNtB5_4iter6traits12double_ended19DoubleEndedIterator9next_back00ECsjTXeTLYUiB9_18tracing_attributes, symObjAddr: 0x2E50, symBinAddr: 0x423E0, symSize: 0x50 }
  - { offset: 0xA3125, size: 0x8, addend: 0x0, symName: __RINvMNtCsieiGu2EXtoJ_4core6optionINtB3_6OptionRTNtCsaKzlTDPUHDb_11proc_macro25IdentNtNtCsdGrGZaRBwMb_3syn5token3DotEE3mapRBK_NCNvXsw_NtB1n_10punctuatedINtB27_11PrivateIterBK_B1j_ENtNtNtNtB5_4iter6traits8iterator8Iterator4next0ECsjTXeTLYUiB9_18tracing_attributes, symObjAddr: 0x2EA0, symBinAddr: 0x42430, symSize: 0x50 }
  - { offset: 0xA3190, size: 0x8, addend: 0x0, symName: __RINvMNtCsieiGu2EXtoJ_4core6optionINtB3_6OptionRTNtNtCsjTXeTLYUiB9_18tracing_attributes4attr5FieldNtNtCsdGrGZaRBwMb_3syn5token5CommaEE3mapINtNtB1B_10punctuated4PairRBK_RB1x_ENCNvXsc_B2e_INtB2e_5PairsBK_B1x_ENtNtNtNtB5_4iter6traits8iterator8Iterator4next0EBO_, symObjAddr: 0x2EF0, symBinAddr: 0x42480, symSize: 0x80 }
  - { offset: 0xA31FB, size: 0x8, addend: 0x0, symName: __RINvMNtCsieiGu2EXtoJ_4core6optionINtB3_6OptionRTNtNtCsjTXeTLYUiB9_18tracing_attributes4attr5FieldNtNtCsdGrGZaRBwMb_3syn5token5CommaEE3mapRBK_NCNCNvXsx_NtB1B_10punctuatedINtB2p_11PrivateIterBK_B1x_ENtNtNtNtB5_4iter6traits12double_ended19DoubleEndedIterator9next_back00EBO_, symObjAddr: 0x2F70, symBinAddr: 0x42500, symSize: 0x50 }
  - { offset: 0xA3266, size: 0x8, addend: 0x0, symName: __RINvMNtCsieiGu2EXtoJ_4core6optionINtB3_6OptionRTNtNtCsjTXeTLYUiB9_18tracing_attributes4attr5FieldNtNtCsdGrGZaRBwMb_3syn5token5CommaEE3mapRBK_NCNvXsw_NtB1B_10punctuatedINtB2n_11PrivateIterBK_B1x_ENtNtNtNtB5_4iter6traits8iterator8Iterator4next0EBO_, symObjAddr: 0x2FC0, symBinAddr: 0x42550, symSize: 0x50 }
  - { offset: 0xA3341, size: 0x8, addend: 0x0, symName: __RNvMNtCsieiGu2EXtoJ_4core6optionINtB2_6OptionINtNtCslJiobkLta79_5alloc5boxed3BoxDNtNtNtNtB4_4iter6traits8iterator8Iteratorp4ItemTNtCsaKzlTDPUHDb_11proc_macro25IdentNtNtCsjTXeTLYUiB9_18tracing_attributes6expand10RecordTypeEEL_EE6insertB2G_, symObjAddr: 0x3290, symBinAddr: 0x42820, symSize: 0xB0 }
  - { offset: 0xA33E4, size: 0x8, addend: 0x0, symName: __RNvMNtCsieiGu2EXtoJ_4core6optionINtB2_6OptionINtNtCslJiobkLta79_5alloc5boxed3BoxNtCsaKzlTDPUHDb_11proc_macro25IdentEE4takeCsjTXeTLYUiB9_18tracing_attributes, symObjAddr: 0x3340, symBinAddr: 0x428D0, symSize: 0x20 }
  - { offset: 0xA343B, size: 0x8, addend: 0x0, symName: __RNvMNtCsieiGu2EXtoJ_4core6optionINtB2_6OptionINtNtCslJiobkLta79_5alloc5boxed3BoxNtCsaKzlTDPUHDb_11proc_macro25IdentEE6as_refCsjTXeTLYUiB9_18tracing_attributes, symObjAddr: 0x3360, symBinAddr: 0x428F0, symSize: 0x50 }
  - { offset: 0xA34A1, size: 0x8, addend: 0x0, symName: __RNvMNtCsieiGu2EXtoJ_4core6optionINtB2_6OptionINtNtCslJiobkLta79_5alloc5boxed3BoxNtCsaKzlTDPUHDb_11proc_macro25IdentEE7is_noneCsjTXeTLYUiB9_18tracing_attributes, symObjAddr: 0x33B0, symBinAddr: 0x42940, symSize: 0x30 }
  - { offset: 0xA34EB, size: 0x8, addend: 0x0, symName: __RNvMNtCsieiGu2EXtoJ_4core6optionINtB2_6OptionINtNtCslJiobkLta79_5alloc5boxed3BoxNtCsaKzlTDPUHDb_11proc_macro25IdentEE7is_someCsjTXeTLYUiB9_18tracing_attributes, symObjAddr: 0x33E0, symBinAddr: 0x42970, symSize: 0x30 }
  - { offset: 0xA3524, size: 0x8, addend: 0x0, symName: __RNvMNtCsieiGu2EXtoJ_4core6optionINtB2_6OptionINtNtCslJiobkLta79_5alloc5boxed3BoxNtNtCsdGrGZaRBwMb_3syn2ty4TypeEE6as_mutCsjTXeTLYUiB9_18tracing_attributes, symObjAddr: 0x3410, symBinAddr: 0x429A0, symSize: 0x50 }
  - { offset: 0xA357B, size: 0x8, addend: 0x0, symName: __RNvMNtCsieiGu2EXtoJ_4core6optionINtB2_6OptionINtNtCslJiobkLta79_5alloc5boxed3BoxNtNtCsdGrGZaRBwMb_3syn2ty9BareFnArgEE6as_mutCsjTXeTLYUiB9_18tracing_attributes, symObjAddr: 0x3460, symBinAddr: 0x429F0, symSize: 0x50 }
  - { offset: 0xA35D2, size: 0x8, addend: 0x0, symName: __RNvMNtCsieiGu2EXtoJ_4core6optionINtB2_6OptionINtNtCslJiobkLta79_5alloc5boxed3BoxNtNtCsdGrGZaRBwMb_3syn3pat3PatEE6as_mutCsjTXeTLYUiB9_18tracing_attributes, symObjAddr: 0x34B0, symBinAddr: 0x42A40, symSize: 0x50 }
  - { offset: 0xA3629, size: 0x8, addend: 0x0, symName: __RNvMNtCsieiGu2EXtoJ_4core6optionINtB2_6OptionINtNtCslJiobkLta79_5alloc5boxed3BoxNtNtCsdGrGZaRBwMb_3syn3pat8FieldPatEE6as_mutCsjTXeTLYUiB9_18tracing_attributes, symObjAddr: 0x3500, symBinAddr: 0x42A90, symSize: 0x50 }
  - { offset: 0xA3680, size: 0x8, addend: 0x0, symName: __RNvMNtCsieiGu2EXtoJ_4core6optionINtB2_6OptionINtNtCslJiobkLta79_5alloc5boxed3BoxNtNtCsdGrGZaRBwMb_3syn4data7VariantEE6as_mutCsjTXeTLYUiB9_18tracing_attributes, symObjAddr: 0x3550, symBinAddr: 0x42AE0, symSize: 0x50 }
  - { offset: 0xA36D7, size: 0x8, addend: 0x0, symName: __RNvMNtCsieiGu2EXtoJ_4core6optionINtB2_6OptionINtNtCslJiobkLta79_5alloc5boxed3BoxNtNtCsdGrGZaRBwMb_3syn4expr10FieldValueEE6as_mutCsjTXeTLYUiB9_18tracing_attributes, symObjAddr: 0x35A0, symBinAddr: 0x42B30, symSize: 0x50 }
  - { offset: 0xA372E, size: 0x8, addend: 0x0, symName: __RNvMNtCsieiGu2EXtoJ_4core6optionINtB2_6OptionINtNtCslJiobkLta79_5alloc5boxed3BoxNtNtCsdGrGZaRBwMb_3syn4expr4ExprEE6as_mutCsjTXeTLYUiB9_18tracing_attributes, symObjAddr: 0x35F0, symBinAddr: 0x42B80, symSize: 0x50 }
  - { offset: 0xA3785, size: 0x8, addend: 0x0, symName: __RNvMNtCsieiGu2EXtoJ_4core6optionINtB2_6OptionINtNtCslJiobkLta79_5alloc5boxed3BoxNtNtCsdGrGZaRBwMb_3syn4item5FnArgEE6as_mutCsjTXeTLYUiB9_18tracing_attributes, symObjAddr: 0x3640, symBinAddr: 0x42BD0, symSize: 0x50 }
  - { offset: 0xA37DC, size: 0x8, addend: 0x0, symName: __RNvMNtCsieiGu2EXtoJ_4core6optionINtB2_6OptionINtNtCslJiobkLta79_5alloc5boxed3BoxNtNtCsdGrGZaRBwMb_3syn4item7UseTreeEE6as_mutCsjTXeTLYUiB9_18tracing_attributes, symObjAddr: 0x3690, symBinAddr: 0x42C20, symSize: 0x50 }
  - { offset: 0xA3833, size: 0x8, addend: 0x0, symName: __RNvMNtCsieiGu2EXtoJ_4core6optionINtB2_6OptionINtNtCslJiobkLta79_5alloc5boxed3BoxNtNtCsdGrGZaRBwMb_3syn4path15GenericArgumentEE6as_mutCsjTXeTLYUiB9_18tracing_attributes, symObjAddr: 0x36E0, symBinAddr: 0x42C70, symSize: 0x50 }
  - { offset: 0xA388A, size: 0x8, addend: 0x0, symName: __RNvMNtCsieiGu2EXtoJ_4core6optionINtB2_6OptionINtNtCslJiobkLta79_5alloc5boxed3BoxNtNtCsdGrGZaRBwMb_3syn8generics13CapturedParamEE6as_mutCsjTXeTLYUiB9_18tracing_attributes, symObjAddr: 0x3730, symBinAddr: 0x42CC0, symSize: 0x50 }
  - { offset: 0xA38E1, size: 0x8, addend: 0x0, symName: __RNvMNtCsieiGu2EXtoJ_4core6optionINtB2_6OptionINtNtCslJiobkLta79_5alloc5boxed3BoxNtNtCsdGrGZaRBwMb_3syn8generics14TypeParamBoundEE6as_mutCsjTXeTLYUiB9_18tracing_attributes, symObjAddr: 0x3780, symBinAddr: 0x42D10, symSize: 0x50 }
  - { offset: 0xA3938, size: 0x8, addend: 0x0, symName: __RNvMNtCsieiGu2EXtoJ_4core6optionINtB2_6OptionINtNtCslJiobkLta79_5alloc5boxed3BoxNtNtCsdGrGZaRBwMb_3syn8generics14WherePredicateEE6as_mutCsjTXeTLYUiB9_18tracing_attributes, symObjAddr: 0x37D0, symBinAddr: 0x42D60, symSize: 0x50 }
  - { offset: 0xA398F, size: 0x8, addend: 0x0, symName: __RNvMNtCsieiGu2EXtoJ_4core6optionINtB2_6OptionINtNtCslJiobkLta79_5alloc5boxed3BoxNtNtCsdGrGZaRBwMb_3syn8lifetime8LifetimeEE6as_mutCsjTXeTLYUiB9_18tracing_attributes, symObjAddr: 0x3820, symBinAddr: 0x42DB0, symSize: 0x50 }
  - { offset: 0xA39E6, size: 0x8, addend: 0x0, symName: __RNvMNtCsieiGu2EXtoJ_4core6optionINtB2_6OptionINtNtCslJiobkLta79_5alloc5boxed3BoxNtNtCsjTXeTLYUiB9_18tracing_attributes4attr5FieldEE4takeB1k_, symObjAddr: 0x3870, symBinAddr: 0x42E00, symSize: 0x20 }
  - { offset: 0xA3A30, size: 0x8, addend: 0x0, symName: __RNvMNtCsieiGu2EXtoJ_4core6optionINtB2_6OptionINtNtCslJiobkLta79_5alloc5boxed3BoxNtNtCsjTXeTLYUiB9_18tracing_attributes4attr5FieldEE6as_mutB1k_, symObjAddr: 0x3890, symBinAddr: 0x42E20, symSize: 0x50 }
  - { offset: 0xA3A87, size: 0x8, addend: 0x0, symName: __RNvMNtCsieiGu2EXtoJ_4core6optionINtB2_6OptionINtNtCslJiobkLta79_5alloc5boxed3BoxNtNtCsjTXeTLYUiB9_18tracing_attributes4attr5FieldEE6as_refB1k_, symObjAddr: 0x38E0, symBinAddr: 0x42E70, symSize: 0x50 }
  - { offset: 0xA3AED, size: 0x8, addend: 0x0, symName: __RNvMNtCsieiGu2EXtoJ_4core6optionINtB2_6OptionINtNtCslJiobkLta79_5alloc5boxed3BoxNtNtCsjTXeTLYUiB9_18tracing_attributes4attr5FieldEE7is_noneB1k_, symObjAddr: 0x3930, symBinAddr: 0x42EC0, symSize: 0x30 }
  - { offset: 0xA3B37, size: 0x8, addend: 0x0, symName: __RNvMNtCsieiGu2EXtoJ_4core6optionINtB2_6OptionINtNtCslJiobkLta79_5alloc5boxed3BoxNtNtCsjTXeTLYUiB9_18tracing_attributes4attr5FieldEE7is_someB1k_, symObjAddr: 0x3960, symBinAddr: 0x42EF0, symSize: 0x30 }
  - { offset: 0xA3B7D, size: 0x8, addend: 0x0, symName: __RNvMNtCsieiGu2EXtoJ_4core6optionINtB2_6OptionNtNtCsdGrGZaRBwMb_3syn2ty8TypePathE6as_refCsjTXeTLYUiB9_18tracing_attributes, symObjAddr: 0x3990, symBinAddr: 0x42F20, symSize: 0x50 }
  - { offset: 0xA3C0C, size: 0x8, addend: 0x0, symName: __RNvMNtCsieiGu2EXtoJ_4core6optionINtB2_6OptionNtNtCsdGrGZaRBwMb_3syn4expr4ExprE4iterCsjTXeTLYUiB9_18tracing_attributes, symObjAddr: 0x39E0, symBinAddr: 0x42F70, symSize: 0x40 }
  - { offset: 0xA3C7D, size: 0x8, addend: 0x0, symName: __RNvMNtCsieiGu2EXtoJ_4core6optionINtB2_6OptionNtNtCsdGrGZaRBwMb_3syn4expr4ExprE6as_mutCsjTXeTLYUiB9_18tracing_attributes, symObjAddr: 0x3A20, symBinAddr: 0x42FB0, symSize: 0x40 }
  - { offset: 0xA3CD4, size: 0x8, addend: 0x0, symName: __RNvMNtCsieiGu2EXtoJ_4core6optionINtB2_6OptionNtNtCsdGrGZaRBwMb_3syn5token5AsyncE7is_someCsjTXeTLYUiB9_18tracing_attributes, symObjAddr: 0x3A60, symBinAddr: 0x42FF0, symSize: 0x20 }
  - { offset: 0xA3D0D, size: 0x8, addend: 0x0, symName: __RNvMNtCsieiGu2EXtoJ_4core6optionINtB2_6OptionNtNtCsdGrGZaRBwMb_3syn5token5ConstE7is_someCsjTXeTLYUiB9_18tracing_attributes, symObjAddr: 0x3A80, symBinAddr: 0x43010, symSize: 0x20 }
  - { offset: 0xA3D46, size: 0x8, addend: 0x0, symName: __RNvMNtCsieiGu2EXtoJ_4core6optionINtB2_6OptionNtNtCsjTXeTLYUiB9_18tracing_attributes4attr13LitStrOrIdentE6as_refBL_, symObjAddr: 0x3AA0, symBinAddr: 0x43030, symSize: 0x40 }
  - { offset: 0xA3D90, size: 0x8, addend: 0x0, symName: __RNvMNtCsieiGu2EXtoJ_4core6optionINtB2_6OptionNtNtCsjTXeTLYUiB9_18tracing_attributes4attr13LitStrOrIdentE7is_someBL_, symObjAddr: 0x3AE0, symBinAddr: 0x43070, symSize: 0x30 }
  - { offset: 0xA3DC9, size: 0x8, addend: 0x0, symName: __RNvMNtCsieiGu2EXtoJ_4core6optionINtB2_6OptionNtNtCsjTXeTLYUiB9_18tracing_attributes4attr5LevelE7is_someBL_, symObjAddr: 0x3B10, symBinAddr: 0x430A0, symSize: 0x30 }
  - { offset: 0xA3DF5, size: 0x8, addend: 0x0, symName: __RNvMNtCsieiGu2EXtoJ_4core6optionINtB2_6OptionNtNtCsjTXeTLYUiB9_18tracing_attributes4attr5LevelE9unwrap_orBL_, symObjAddr: 0x3B40, symBinAddr: 0x430D0, symSize: 0x90 }
  - { offset: 0xA3E5D, size: 0x8, addend: 0x0, symName: __RNvMNtCsieiGu2EXtoJ_4core6optionINtB2_6OptionNtNtCsjTXeTLYUiB9_18tracing_attributes4attr6FieldsE7is_someBL_, symObjAddr: 0x3BD0, symBinAddr: 0x43160, symSize: 0x30 }
  - { offset: 0xA3ECE, size: 0x8, addend: 0x0, symName: __RNvMNtCsieiGu2EXtoJ_4core6optionINtB2_6OptionRNtCsaKzlTDPUHDb_11proc_macro25IdentE4iterCsjTXeTLYUiB9_18tracing_attributes, symObjAddr: 0x3C00, symBinAddr: 0x43190, symSize: 0x50 }
  - { offset: 0xA3F3F, size: 0x8, addend: 0x0, symName: __RNvMNtCsieiGu2EXtoJ_4core6optionINtB2_6OptionRNtNtCsdGrGZaRBwMb_3syn2ty8TypePathE7is_someCsjTXeTLYUiB9_18tracing_attributes, symObjAddr: 0x3C50, symBinAddr: 0x431E0, symSize: 0x30 }
  - { offset: 0xA3F6B, size: 0x8, addend: 0x0, symName: __RNvMNtCsieiGu2EXtoJ_4core6optionINtB2_6OptionbE9unwrap_orCsjTXeTLYUiB9_18tracing_attributes, symObjAddr: 0x3C80, symBinAddr: 0x43210, symSize: 0x50 }
  - { offset: 0xA3FD3, size: 0x8, addend: 0x0, symName: __RNvXNtCs9OU1sGv5X54_5quote9to_tokensRINtNtCsieiGu2EXtoJ_4core6option6OptionNtNtCsdGrGZaRBwMb_3syn2ty3AbiENtB2_8ToTokens9to_tokensCsjTXeTLYUiB9_18tracing_attributes, symObjAddr: 0x3CD0, symBinAddr: 0x43260, symSize: 0x30 }
  - { offset: 0xA4012, size: 0x8, addend: 0x0, symName: __RNvXNtCs9OU1sGv5X54_5quote9to_tokensRINtNtCsieiGu2EXtoJ_4core6option6OptionNtNtCsdGrGZaRBwMb_3syn5token2GtENtB2_8ToTokens9to_tokensCsjTXeTLYUiB9_18tracing_attributes, symObjAddr: 0x3D00, symBinAddr: 0x43290, symSize: 0x30 }
  - { offset: 0xA4051, size: 0x8, addend: 0x0, symName: __RNvXNtCs9OU1sGv5X54_5quote9to_tokensRINtNtCsieiGu2EXtoJ_4core6option6OptionNtNtCsdGrGZaRBwMb_3syn5token2LtENtB2_8ToTokens9to_tokensCsjTXeTLYUiB9_18tracing_attributes, symObjAddr: 0x3D30, symBinAddr: 0x432C0, symSize: 0x30 }
  - { offset: 0xA4090, size: 0x8, addend: 0x0, symName: __RNvXNtCs9OU1sGv5X54_5quote9to_tokensRINtNtCsieiGu2EXtoJ_4core6option6OptionNtNtCsdGrGZaRBwMb_3syn5token5AsyncENtB2_8ToTokens9to_tokensCsjTXeTLYUiB9_18tracing_attributes, symObjAddr: 0x3D60, symBinAddr: 0x432F0, symSize: 0x30 }
  - { offset: 0xA40CF, size: 0x8, addend: 0x0, symName: __RNvXNtCs9OU1sGv5X54_5quote9to_tokensRINtNtCsieiGu2EXtoJ_4core6option6OptionNtNtCsdGrGZaRBwMb_3syn5token5ConstENtB2_8ToTokens9to_tokensCsjTXeTLYUiB9_18tracing_attributes, symObjAddr: 0x3D90, symBinAddr: 0x43320, symSize: 0x30 }
  - { offset: 0xA410E, size: 0x8, addend: 0x0, symName: __RNvXNtCs9OU1sGv5X54_5quote9to_tokensRINtNtCsieiGu2EXtoJ_4core6option6OptionNtNtCsdGrGZaRBwMb_3syn5token6UnsafeENtB2_8ToTokens9to_tokensCsjTXeTLYUiB9_18tracing_attributes, symObjAddr: 0x3DC0, symBinAddr: 0x43350, symSize: 0x30 }
  - { offset: 0xA414D, size: 0x8, addend: 0x0, symName: __RNvXNtCs9OU1sGv5X54_5quote9to_tokensRINtNtCsieiGu2EXtoJ_4core6option6OptionNtNtCsjTXeTLYUiB9_18tracing_attributes4attr6FieldsENtB2_8ToTokens9to_tokensB1f_, symObjAddr: 0x3DF0, symBinAddr: 0x43380, symSize: 0x30 }
  - { offset: 0xA4192, size: 0x8, addend: 0x0, symName: __RNvXs3_NtCs9OU1sGv5X54_5quote9to_tokensINtNtCsieiGu2EXtoJ_4core6option6OptionNtNtCsdGrGZaRBwMb_3syn4item8VariadicENtB5_8ToTokens9to_tokensCsjTXeTLYUiB9_18tracing_attributes, symObjAddr: 0x3E20, symBinAddr: 0x433B0, symSize: 0x70 }
  - { offset: 0xA41EE, size: 0x8, addend: 0x0, symName: __RNvXs3_NtCs9OU1sGv5X54_5quote9to_tokensINtNtCsieiGu2EXtoJ_4core6option6OptionNtNtCsdGrGZaRBwMb_3syn5token2GtENtB5_8ToTokens9to_tokensCsjTXeTLYUiB9_18tracing_attributes, symObjAddr: 0x3E90, symBinAddr: 0x43420, symSize: 0x50 }
  - { offset: 0xA424A, size: 0x8, addend: 0x0, symName: __RNvXs3_NtCs9OU1sGv5X54_5quote9to_tokensINtNtCsieiGu2EXtoJ_4core6option6OptionNtNtCsdGrGZaRBwMb_3syn5token2LtENtB5_8ToTokens9to_tokensCsjTXeTLYUiB9_18tracing_attributes, symObjAddr: 0x3EE0, symBinAddr: 0x43470, symSize: 0x50 }
  - { offset: 0xA42A6, size: 0x8, addend: 0x0, symName: __RNvXs3_NtCs9OU1sGv5X54_5quote9to_tokensINtNtCsieiGu2EXtoJ_4core6option6OptionNtNtCsjTXeTLYUiB9_18tracing_attributes4attr6FieldsENtB5_8ToTokens9to_tokensB1h_, symObjAddr: 0x3F30, symBinAddr: 0x434C0, symSize: 0x70 }
  - { offset: 0xA4313, size: 0x8, addend: 0x0, symName: __RNvYINtNtCsieiGu2EXtoJ_4core6option4IterNtNtCsdGrGZaRBwMb_3syn4expr4ExprENtNtNtCs9OU1sGv5X54_5quote9___private3ext14RepIteratorExt15quote_into_iterCsjTXeTLYUiB9_18tracing_attributes, symObjAddr: 0x4A80, symBinAddr: 0x44010, symSize: 0x20 }
  - { offset: 0xA4842, size: 0x8, addend: 0x0, symName: __RINvMsg_NtNtNtCsieiGu2EXtoJ_4core4iter8adapters7flattenINtB6_13FlattenCompatINtNtB8_3map3MapINtNtCsdGrGZaRBwMb_3syn10punctuated8IntoIterNtNtB1x_3pat3PatENCNvNtCsjTXeTLYUiB9_18tracing_attributes6expand11param_namess0_0EINtNtCslJiobkLta79_5alloc5boxed3BoxDNtNtNtBa_6traits8iterator8Iteratorp4ItemTNtCsaKzlTDPUHDb_11proc_macro25IdentNtB2v_10RecordTypeEEL_EE13iter_try_foldjINvNvXsi_B6_IBS_ppEB44_10advance_by7advanceB3u_EINtNtNtBc_3ops12control_flow11ControlFlowujEEB2x_, symObjAddr: 0x0, symBinAddr: 0x442F0, symSize: 0x440 }
  - { offset: 0xA5298, size: 0x8, addend: 0x0, symName: __RNCINvNvMsg_NtNtNtCsieiGu2EXtoJ_4core4iter8adapters7flattenINtBa_13FlattenCompatppE13iter_try_fold7flattenINtNtCslJiobkLta79_5alloc5boxed3BoxDNtNtNtBe_6traits8iterator8Iteratorp4ItemTNtCsaKzlTDPUHDb_11proc_macro25IdentNtNtCsjTXeTLYUiB9_18tracing_attributes6expand10RecordTypeEEL_EjINtNtNtBg_3ops12control_flow11ControlFlowujEINvNvXsi_Ba_BV_B2g_10advance_by7advanceB1G_EE0B3y_, symObjAddr: 0xEF0, symBinAddr: 0x451E0, symSize: 0xD0 }
  - { offset: 0xA5560, size: 0x8, addend: 0x0, symName: __RINvNtNtNtCsieiGu2EXtoJ_4core4iter8adapters7flatten17and_then_or_clearINtNtCslJiobkLta79_5alloc5boxed3BoxDNtNtNtB6_6traits8iterator8Iteratorp4ItemTNtCsaKzlTDPUHDb_11proc_macro25IdentNtNtCsjTXeTLYUiB9_18tracing_attributes6expand10RecordTypeEEL_EB2k_NvYB16_B1G_4nextEB2Y_, symObjAddr: 0xCC0, symBinAddr: 0x44FB0, symSize: 0x130 }
  - { offset: 0xA56B2, size: 0x8, addend: 0x0, symName: __RINvNvXsi_NtNtNtCsieiGu2EXtoJ_4core4iter8adapters7flattenINtB8_13FlattenCompatppENtNtNtBc_6traits8iterator8Iterator10advance_by7advanceINtNtCslJiobkLta79_5alloc5boxed3BoxDB1h_p4ItemTNtCsaKzlTDPUHDb_11proc_macro25IdentNtNtCsjTXeTLYUiB9_18tracing_attributes6expand10RecordTypeEEL_EEB3x_, symObjAddr: 0xDF0, symBinAddr: 0x450E0, symSize: 0x80 }
  - { offset: 0xA5717, size: 0x8, addend: 0x0, symName: __RNvXsi_NtNtNtCsieiGu2EXtoJ_4core4iter8adapters7flattenINtB5_13FlattenCompatINtNtB7_3map3MapINtNtCsdGrGZaRBwMb_3syn10punctuated8IntoIterNtNtB1w_3pat3PatENCNvNtCsjTXeTLYUiB9_18tracing_attributes6expand11param_namess0_0EINtNtCslJiobkLta79_5alloc5boxed3BoxDNtNtNtB9_6traits8iterator8Iteratorp4ItemTNtCsaKzlTDPUHDb_11proc_macro25IdentNtB2u_10RecordTypeEEL_EEB43_10advance_byB2w_, symObjAddr: 0x1200, symBinAddr: 0x454F0, symSize: 0x50 }
  - { offset: 0xA5784, size: 0x8, addend: 0x0, symName: __RNvXsi_NtNtNtCsieiGu2EXtoJ_4core4iter8adapters7flattenINtB5_13FlattenCompatINtNtB7_3map3MapINtNtCsdGrGZaRBwMb_3syn10punctuated8IntoIterNtNtB1w_3pat3PatENCNvNtCsjTXeTLYUiB9_18tracing_attributes6expand11param_namess0_0EINtNtCslJiobkLta79_5alloc5boxed3BoxDNtNtNtB9_6traits8iterator8Iteratorp4ItemTNtCsaKzlTDPUHDb_11proc_macro25IdentNtB2u_10RecordTypeEEL_EEB43_4nextB2w_, symObjAddr: 0x1250, symBinAddr: 0x45540, symSize: 0x190 }
  - { offset: 0xA5817, size: 0x8, addend: 0x0, symName: __RNvXsi_NtNtNtCsieiGu2EXtoJ_4core4iter8adapters7flattenINtB5_13FlattenCompatINtNtB7_3map3MapINtNtCsdGrGZaRBwMb_3syn10punctuated8IntoIterNtNtB1w_3pat3PatENCNvNtCsjTXeTLYUiB9_18tracing_attributes6expand11param_namess0_0EINtNtCslJiobkLta79_5alloc5boxed3BoxDNtNtNtB9_6traits8iterator8Iteratorp4ItemTNtCsaKzlTDPUHDb_11proc_macro25IdentNtB2u_10RecordTypeEEL_EEB43_9size_hintB2w_, symObjAddr: 0x13E0, symBinAddr: 0x456D0, symSize: 0x920 }
  - { offset: 0xA5F70, size: 0x8, addend: 0x0, symName: __RNvXsi_NtNtNtCsieiGu2EXtoJ_4core4iter8adapters7flattenINtB5_13FlattenCompatINtNtB7_3map3MapINtNtCsdGrGZaRBwMb_3syn10punctuated8IntoIterNtNtB1w_3pat3PatENCNvNtCsjTXeTLYUiB9_18tracing_attributes6expand11param_namess_0EINtNtCslJiobkLta79_5alloc5boxed3BoxDNtNtNtB9_6traits8iterator8Iteratorp4ItemTNtCsaKzlTDPUHDb_11proc_macro25IdentNtB2u_10RecordTypeEEL_EEB42_10advance_byB2w_, symObjAddr: 0x1D00, symBinAddr: 0x45FF0, symSize: 0x50 }
  - { offset: 0xA5FDD, size: 0x8, addend: 0x0, symName: __RNvXsi_NtNtNtCsieiGu2EXtoJ_4core4iter8adapters7flattenINtB5_13FlattenCompatINtNtB7_3map3MapINtNtCsdGrGZaRBwMb_3syn10punctuated8IntoIterNtNtB1w_3pat3PatENCNvNtCsjTXeTLYUiB9_18tracing_attributes6expand11param_namess_0EINtNtCslJiobkLta79_5alloc5boxed3BoxDNtNtNtB9_6traits8iterator8Iteratorp4ItemTNtCsaKzlTDPUHDb_11proc_macro25IdentNtB2u_10RecordTypeEEL_EEB42_4nextB2w_, symObjAddr: 0x1D50, symBinAddr: 0x46040, symSize: 0x190 }
  - { offset: 0xA6070, size: 0x8, addend: 0x0, symName: __RNvXsi_NtNtNtCsieiGu2EXtoJ_4core4iter8adapters7flattenINtB5_13FlattenCompatINtNtB7_3map3MapINtNtCsdGrGZaRBwMb_3syn10punctuated8IntoIterNtNtB1w_3pat3PatENCNvNtCsjTXeTLYUiB9_18tracing_attributes6expand11param_namess_0EINtNtCslJiobkLta79_5alloc5boxed3BoxDNtNtNtB9_6traits8iterator8Iteratorp4ItemTNtCsaKzlTDPUHDb_11proc_macro25IdentNtB2u_10RecordTypeEEL_EEB42_9size_hintB2w_, symObjAddr: 0x1EE0, symBinAddr: 0x461D0, symSize: 0x920 }
  - { offset: 0xA67C9, size: 0x8, addend: 0x0, symName: __RNvXsi_NtNtNtCsieiGu2EXtoJ_4core4iter8adapters7flattenINtB5_13FlattenCompatINtNtB7_3map3MapINtNtCsdGrGZaRBwMb_3syn10punctuated8IntoIterNtNtB1w_3pat8FieldPatENCNvNtCsjTXeTLYUiB9_18tracing_attributes6expand11param_names0EINtNtCslJiobkLta79_5alloc5boxed3BoxDNtNtNtB9_6traits8iterator8Iteratorp4ItemTNtCsaKzlTDPUHDb_11proc_macro25IdentNtB2z_10RecordTypeEEL_EEB45_10advance_byB2B_, symObjAddr: 0x2800, symBinAddr: 0x46AF0, symSize: 0x50 }
  - { offset: 0xA6836, size: 0x8, addend: 0x0, symName: __RNvXsi_NtNtNtCsieiGu2EXtoJ_4core4iter8adapters7flattenINtB5_13FlattenCompatINtNtB7_3map3MapINtNtCsdGrGZaRBwMb_3syn10punctuated8IntoIterNtNtB1w_3pat8FieldPatENCNvNtCsjTXeTLYUiB9_18tracing_attributes6expand11param_names0EINtNtCslJiobkLta79_5alloc5boxed3BoxDNtNtNtB9_6traits8iterator8Iteratorp4ItemTNtCsaKzlTDPUHDb_11proc_macro25IdentNtB2z_10RecordTypeEEL_EEB45_4nextB2B_, symObjAddr: 0x2850, symBinAddr: 0x46B40, symSize: 0x190 }
  - { offset: 0xA68C9, size: 0x8, addend: 0x0, symName: __RNvXsi_NtNtNtCsieiGu2EXtoJ_4core4iter8adapters7flattenINtB5_13FlattenCompatINtNtB7_3map3MapINtNtCsdGrGZaRBwMb_3syn10punctuated8IntoIterNtNtB1w_3pat8FieldPatENCNvNtCsjTXeTLYUiB9_18tracing_attributes6expand11param_names0EINtNtCslJiobkLta79_5alloc5boxed3BoxDNtNtNtB9_6traits8iterator8Iteratorp4ItemTNtCsaKzlTDPUHDb_11proc_macro25IdentNtB2z_10RecordTypeEEL_EEB45_9size_hintB2B_, symObjAddr: 0x29E0, symBinAddr: 0x46CD0, symSize: 0x920 }
  - { offset: 0xA7022, size: 0x8, addend: 0x0, symName: __RNvXsi_NtNtNtCsieiGu2EXtoJ_4core4iter8adapters7flattenINtB5_13FlattenCompatINtNtB7_3map3MapINtNtCsdGrGZaRBwMb_3syn10punctuated8IntoIterNtNtB1w_4item5FnArgENCNCINvNtCsjTXeTLYUiB9_18tracing_attributes6expand9gen_blockNtCsaKzlTDPUHDb_11proc_macro211TokenStreamEs0_00EINtNtCslJiobkLta79_5alloc5boxed3BoxDNtNtNtB9_6traits8iterator8Iteratorp4ItemTNtB3t_5IdentNtB2A_10RecordTypeEEL_EEB4O_4nextB2C_, symObjAddr: 0x3300, symBinAddr: 0x475F0, symSize: 0x190 }
  - { offset: 0xA70B5, size: 0x8, addend: 0x0, symName: __RNvXsi_NtNtNtCsieiGu2EXtoJ_4core4iter8adapters7flattenINtB5_13FlattenCompatINtNtB7_3map3MapINtNtCsdGrGZaRBwMb_3syn10punctuated8IntoIterNtNtB1w_4item5FnArgENCNCINvNtCsjTXeTLYUiB9_18tracing_attributes6expand9gen_blockNtCsaKzlTDPUHDb_11proc_macro211TokenStreamEs0_00EINtNtCslJiobkLta79_5alloc5boxed3BoxDNtNtNtB9_6traits8iterator8Iteratorp4ItemTNtB3t_5IdentNtB2A_10RecordTypeEEL_EEB4O_9size_hintB2C_, symObjAddr: 0x3490, symBinAddr: 0x47780, symSize: 0x920 }
  - { offset: 0xA780E, size: 0x8, addend: 0x0, symName: __RNvXsi_NtNtNtCsieiGu2EXtoJ_4core4iter8adapters7flattenINtB5_13FlattenCompatINtNtB7_3map3MapINtNtCsdGrGZaRBwMb_3syn10punctuated8IntoIterNtNtB1w_4item5FnArgENCNCINvNtCsjTXeTLYUiB9_18tracing_attributes6expand9gen_blockNtNtB1w_4stmt5BlockEs0_00EINtNtCslJiobkLta79_5alloc5boxed3BoxDNtNtNtB9_6traits8iterator8Iteratorp4ItemTNtCsaKzlTDPUHDb_11proc_macro25IdentNtB2A_10RecordTypeEEL_EEB4r_4nextB2C_, symObjAddr: 0x3DB0, symBinAddr: 0x480A0, symSize: 0x190 }
  - { offset: 0xA78A1, size: 0x8, addend: 0x0, symName: __RNvXsi_NtNtNtCsieiGu2EXtoJ_4core4iter8adapters7flattenINtB5_13FlattenCompatINtNtB7_3map3MapINtNtCsdGrGZaRBwMb_3syn10punctuated8IntoIterNtNtB1w_4item5FnArgENCNCINvNtCsjTXeTLYUiB9_18tracing_attributes6expand9gen_blockNtNtB1w_4stmt5BlockEs0_00EINtNtCslJiobkLta79_5alloc5boxed3BoxDNtNtNtB9_6traits8iterator8Iteratorp4ItemTNtCsaKzlTDPUHDb_11proc_macro25IdentNtB2A_10RecordTypeEEL_EEB4r_9size_hintB2C_, symObjAddr: 0x3F40, symBinAddr: 0x48230, symSize: 0x920 }
  - { offset: 0xA80DE, size: 0x8, addend: 0x0, symName: __RNvXs1_NtNtNtCsieiGu2EXtoJ_4core4iter8adapters7flattenINtB5_7FlatMapINtNtCsdGrGZaRBwMb_3syn10punctuated8IntoIterNtNtB19_3pat3PatEINtNtCslJiobkLta79_5alloc5boxed3BoxDNtNtNtB9_6traits8iterator8Iteratorp4ItemTNtCsaKzlTDPUHDb_11proc_macro25IdentNtNtCsjTXeTLYUiB9_18tracing_attributes6expand10RecordTypeEEL_ENCNvB3T_11param_namess0_0EB2D_10advance_byB3V_, symObjAddr: 0xFC0, symBinAddr: 0x452B0, symSize: 0x20 }
  - { offset: 0xA8133, size: 0x8, addend: 0x0, symName: __RNvXs1_NtNtNtCsieiGu2EXtoJ_4core4iter8adapters7flattenINtB5_7FlatMapINtNtCsdGrGZaRBwMb_3syn10punctuated8IntoIterNtNtB19_3pat3PatEINtNtCslJiobkLta79_5alloc5boxed3BoxDNtNtNtB9_6traits8iterator8Iteratorp4ItemTNtCsaKzlTDPUHDb_11proc_macro25IdentNtNtCsjTXeTLYUiB9_18tracing_attributes6expand10RecordTypeEEL_ENCNvB3T_11param_namess0_0EB2D_4nextB3V_, symObjAddr: 0xFE0, symBinAddr: 0x452D0, symSize: 0x30 }
  - { offset: 0xA817A, size: 0x8, addend: 0x0, symName: __RNvXs1_NtNtNtCsieiGu2EXtoJ_4core4iter8adapters7flattenINtB5_7FlatMapINtNtCsdGrGZaRBwMb_3syn10punctuated8IntoIterNtNtB19_3pat3PatEINtNtCslJiobkLta79_5alloc5boxed3BoxDNtNtNtB9_6traits8iterator8Iteratorp4ItemTNtCsaKzlTDPUHDb_11proc_macro25IdentNtNtCsjTXeTLYUiB9_18tracing_attributes6expand10RecordTypeEEL_ENCNvB3T_11param_namess0_0EB2D_9size_hintB3V_, symObjAddr: 0x1010, symBinAddr: 0x45300, symSize: 0x30 }
  - { offset: 0xA81C1, size: 0x8, addend: 0x0, symName: __RNvXs1_NtNtNtCsieiGu2EXtoJ_4core4iter8adapters7flattenINtB5_7FlatMapINtNtCsdGrGZaRBwMb_3syn10punctuated8IntoIterNtNtB19_3pat3PatEINtNtCslJiobkLta79_5alloc5boxed3BoxDNtNtNtB9_6traits8iterator8Iteratorp4ItemTNtCsaKzlTDPUHDb_11proc_macro25IdentNtNtCsjTXeTLYUiB9_18tracing_attributes6expand10RecordTypeEEL_ENCNvB3T_11param_namess_0EB2D_10advance_byB3V_, symObjAddr: 0x1040, symBinAddr: 0x45330, symSize: 0x20 }
  - { offset: 0xA8216, size: 0x8, addend: 0x0, symName: __RNvXs1_NtNtNtCsieiGu2EXtoJ_4core4iter8adapters7flattenINtB5_7FlatMapINtNtCsdGrGZaRBwMb_3syn10punctuated8IntoIterNtNtB19_3pat3PatEINtNtCslJiobkLta79_5alloc5boxed3BoxDNtNtNtB9_6traits8iterator8Iteratorp4ItemTNtCsaKzlTDPUHDb_11proc_macro25IdentNtNtCsjTXeTLYUiB9_18tracing_attributes6expand10RecordTypeEEL_ENCNvB3T_11param_namess_0EB2D_4nextB3V_, symObjAddr: 0x1060, symBinAddr: 0x45350, symSize: 0x30 }
  - { offset: 0xA825D, size: 0x8, addend: 0x0, symName: __RNvXs1_NtNtNtCsieiGu2EXtoJ_4core4iter8adapters7flattenINtB5_7FlatMapINtNtCsdGrGZaRBwMb_3syn10punctuated8IntoIterNtNtB19_3pat3PatEINtNtCslJiobkLta79_5alloc5boxed3BoxDNtNtNtB9_6traits8iterator8Iteratorp4ItemTNtCsaKzlTDPUHDb_11proc_macro25IdentNtNtCsjTXeTLYUiB9_18tracing_attributes6expand10RecordTypeEEL_ENCNvB3T_11param_namess_0EB2D_9size_hintB3V_, symObjAddr: 0x1090, symBinAddr: 0x45380, symSize: 0x30 }
  - { offset: 0xA82A4, size: 0x8, addend: 0x0, symName: __RNvXs1_NtNtNtCsieiGu2EXtoJ_4core4iter8adapters7flattenINtB5_7FlatMapINtNtCsdGrGZaRBwMb_3syn10punctuated8IntoIterNtNtB19_3pat8FieldPatEINtNtCslJiobkLta79_5alloc5boxed3BoxDNtNtNtB9_6traits8iterator8Iteratorp4ItemTNtCsaKzlTDPUHDb_11proc_macro25IdentNtNtCsjTXeTLYUiB9_18tracing_attributes6expand10RecordTypeEEL_ENCNvB3Y_11param_names0EB2I_10advance_byB40_, symObjAddr: 0x10C0, symBinAddr: 0x453B0, symSize: 0x20 }
  - { offset: 0xA82F9, size: 0x8, addend: 0x0, symName: __RNvXs1_NtNtNtCsieiGu2EXtoJ_4core4iter8adapters7flattenINtB5_7FlatMapINtNtCsdGrGZaRBwMb_3syn10punctuated8IntoIterNtNtB19_3pat8FieldPatEINtNtCslJiobkLta79_5alloc5boxed3BoxDNtNtNtB9_6traits8iterator8Iteratorp4ItemTNtCsaKzlTDPUHDb_11proc_macro25IdentNtNtCsjTXeTLYUiB9_18tracing_attributes6expand10RecordTypeEEL_ENCNvB3Y_11param_names0EB2I_4nextB40_, symObjAddr: 0x10E0, symBinAddr: 0x453D0, symSize: 0x30 }
  - { offset: 0xA8340, size: 0x8, addend: 0x0, symName: __RNvXs1_NtNtNtCsieiGu2EXtoJ_4core4iter8adapters7flattenINtB5_7FlatMapINtNtCsdGrGZaRBwMb_3syn10punctuated8IntoIterNtNtB19_3pat8FieldPatEINtNtCslJiobkLta79_5alloc5boxed3BoxDNtNtNtB9_6traits8iterator8Iteratorp4ItemTNtCsaKzlTDPUHDb_11proc_macro25IdentNtNtCsjTXeTLYUiB9_18tracing_attributes6expand10RecordTypeEEL_ENCNvB3Y_11param_names0EB2I_9size_hintB40_, symObjAddr: 0x1110, symBinAddr: 0x45400, symSize: 0x30 }
  - { offset: 0xA8387, size: 0x8, addend: 0x0, symName: __RNvXs1_NtNtNtCsieiGu2EXtoJ_4core4iter8adapters7flattenINtB5_7FlatMapINtNtCsdGrGZaRBwMb_3syn10punctuated8IntoIterNtNtB19_4item5FnArgEINtNtCslJiobkLta79_5alloc5boxed3BoxDNtNtNtB9_6traits8iterator8Iteratorp4ItemTNtCsaKzlTDPUHDb_11proc_macro25IdentNtNtCsjTXeTLYUiB9_18tracing_attributes6expand10RecordTypeEEL_ENCNCINvB3W_9gen_blockNtB3n_11TokenStreamEs0_00EB2G_4nextB3Y_, symObjAddr: 0x1140, symBinAddr: 0x45430, symSize: 0x30 }
  - { offset: 0xA83CE, size: 0x8, addend: 0x0, symName: __RNvXs1_NtNtNtCsieiGu2EXtoJ_4core4iter8adapters7flattenINtB5_7FlatMapINtNtCsdGrGZaRBwMb_3syn10punctuated8IntoIterNtNtB19_4item5FnArgEINtNtCslJiobkLta79_5alloc5boxed3BoxDNtNtNtB9_6traits8iterator8Iteratorp4ItemTNtCsaKzlTDPUHDb_11proc_macro25IdentNtNtCsjTXeTLYUiB9_18tracing_attributes6expand10RecordTypeEEL_ENCNCINvB3W_9gen_blockNtB3n_11TokenStreamEs0_00EB2G_9size_hintB3Y_, symObjAddr: 0x1170, symBinAddr: 0x45460, symSize: 0x30 }
  - { offset: 0xA8415, size: 0x8, addend: 0x0, symName: __RNvXs1_NtNtNtCsieiGu2EXtoJ_4core4iter8adapters7flattenINtB5_7FlatMapINtNtCsdGrGZaRBwMb_3syn10punctuated8IntoIterNtNtB19_4item5FnArgEINtNtCslJiobkLta79_5alloc5boxed3BoxDNtNtNtB9_6traits8iterator8Iteratorp4ItemTNtCsaKzlTDPUHDb_11proc_macro25IdentNtNtCsjTXeTLYUiB9_18tracing_attributes6expand10RecordTypeEEL_ENCNCINvB3W_9gen_blockNtNtB19_4stmt5BlockEs0_00EB2G_4nextB3Y_, symObjAddr: 0x11A0, symBinAddr: 0x45490, symSize: 0x30 }
  - { offset: 0xA845C, size: 0x8, addend: 0x0, symName: __RNvXs1_NtNtNtCsieiGu2EXtoJ_4core4iter8adapters7flattenINtB5_7FlatMapINtNtCsdGrGZaRBwMb_3syn10punctuated8IntoIterNtNtB19_4item5FnArgEINtNtCslJiobkLta79_5alloc5boxed3BoxDNtNtNtB9_6traits8iterator8Iteratorp4ItemTNtCsaKzlTDPUHDb_11proc_macro25IdentNtNtCsjTXeTLYUiB9_18tracing_attributes6expand10RecordTypeEEL_ENCNCINvB3W_9gen_blockNtNtB19_4stmt5BlockEs0_00EB2G_9size_hintB3Y_, symObjAddr: 0x11D0, symBinAddr: 0x454C0, symSize: 0x30 }
  - { offset: 0xA8AAA, size: 0x8, addend: 0x0, symName: __RINvYINtNtNtNtCsieiGu2EXtoJ_4core4iter8adapters7flatten7FlatMapINtNtCsdGrGZaRBwMb_3syn10punctuated8IntoIterNtNtB14_4item5FnArgEINtNtCslJiobkLta79_5alloc5boxed3BoxDNtNtNtBa_6traits8iterator8Iteratorp4ItemTNtCsaKzlTDPUHDb_11proc_macro25IdentNtNtCsjTXeTLYUiB9_18tracing_attributes6expand10RecordTypeEEL_ENCNCINvB3R_9gen_blockNtB3i_11TokenStreamEs0_00EB2B_3mapTB3g_B3f_ENCB4R_s_0EB3T_, symObjAddr: 0xE70, symBinAddr: 0x45160, symSize: 0x40 }
  - { offset: 0xA8B18, size: 0x8, addend: 0x0, symName: __RINvYINtNtNtNtCsieiGu2EXtoJ_4core4iter8adapters7flatten7FlatMapINtNtCsdGrGZaRBwMb_3syn10punctuated8IntoIterNtNtB14_4item5FnArgEINtNtCslJiobkLta79_5alloc5boxed3BoxDNtNtNtBa_6traits8iterator8Iteratorp4ItemTNtCsaKzlTDPUHDb_11proc_macro25IdentNtNtCsjTXeTLYUiB9_18tracing_attributes6expand10RecordTypeEEL_ENCNCINvB3R_9gen_blockNtNtB14_4stmt5BlockEs0_00EB2B_3mapTB3g_B3f_ENCB4R_s_0EB3T_, symObjAddr: 0xEB0, symBinAddr: 0x451A0, symSize: 0x40 }
  - { offset: 0xA8B86, size: 0x8, addend: 0x0, symName: __RNvYINtNtNtNtCsieiGu2EXtoJ_4core4iter8adapters7flatten7FlatMapINtNtCsdGrGZaRBwMb_3syn10punctuated8IntoIterNtNtB13_3pat3PatEINtNtCslJiobkLta79_5alloc5boxed3BoxDNtNtNtB9_6traits8iterator8Iteratorp4ItemTNtCsaKzlTDPUHDb_11proc_macro25IdentNtNtCsjTXeTLYUiB9_18tracing_attributes6expand10RecordTypeEEL_ENCNvB3N_11param_namess0_0EB2x_3nthB3P_, symObjAddr: 0x4860, symBinAddr: 0x48B50, symSize: 0x90 }
  - { offset: 0xA8C56, size: 0x8, addend: 0x0, symName: __RNvYINtNtNtNtCsieiGu2EXtoJ_4core4iter8adapters7flatten7FlatMapINtNtCsdGrGZaRBwMb_3syn10punctuated8IntoIterNtNtB13_3pat3PatEINtNtCslJiobkLta79_5alloc5boxed3BoxDNtNtNtB9_6traits8iterator8Iteratorp4ItemTNtCsaKzlTDPUHDb_11proc_macro25IdentNtNtCsjTXeTLYUiB9_18tracing_attributes6expand10RecordTypeEEL_ENCNvB3N_11param_namess_0EB2x_3nthB3P_, symObjAddr: 0x48F0, symBinAddr: 0x48BE0, symSize: 0x90 }
  - { offset: 0xA8D26, size: 0x8, addend: 0x0, symName: __RNvYINtNtNtNtCsieiGu2EXtoJ_4core4iter8adapters7flatten7FlatMapINtNtCsdGrGZaRBwMb_3syn10punctuated8IntoIterNtNtB13_3pat8FieldPatEINtNtCslJiobkLta79_5alloc5boxed3BoxDNtNtNtB9_6traits8iterator8Iteratorp4ItemTNtCsaKzlTDPUHDb_11proc_macro25IdentNtNtCsjTXeTLYUiB9_18tracing_attributes6expand10RecordTypeEEL_ENCNvB3S_11param_names0EB2C_3nthB3U_, symObjAddr: 0x4980, symBinAddr: 0x48C70, symSize: 0x90 }
  - { offset: 0xB2141, size: 0x8, addend: 0x0, symName: __RINvMsg_NtNtNtCsieiGu2EXtoJ_4core4iter8adapters7flattenINtB6_13FlattenCompatINtNtB8_3map3MapINtNtCsdGrGZaRBwMb_3syn10punctuated8IntoIterNtNtB1x_3pat3PatENCNvNtCsjTXeTLYUiB9_18tracing_attributes6expand11param_namess0_0EINtNtCslJiobkLta79_5alloc5boxed3BoxDNtNtNtBa_6traits8iterator8Iteratorp4ItemTNtCsaKzlTDPUHDb_11proc_macro25IdentNtB2v_10RecordTypeEEL_EE13iter_try_foldjINvNvXsi_B6_IBS_ppEB44_10advance_by7advanceB3u_EINtNtNtBc_3ops12control_flow11ControlFlowujEEB2x_, symObjAddr: 0x0, symBinAddr: 0x442F0, symSize: 0x440 }
  - { offset: 0xB2293, size: 0x8, addend: 0x0, symName: __RINvMsg_NtNtNtCsieiGu2EXtoJ_4core4iter8adapters7flattenINtB6_13FlattenCompatINtNtB8_3map3MapINtNtCsdGrGZaRBwMb_3syn10punctuated8IntoIterNtNtB1x_3pat3PatENCNvNtCsjTXeTLYUiB9_18tracing_attributes6expand11param_namess_0EINtNtCslJiobkLta79_5alloc5boxed3BoxDNtNtNtBa_6traits8iterator8Iteratorp4ItemTNtCsaKzlTDPUHDb_11proc_macro25IdentNtB2v_10RecordTypeEEL_EE13iter_try_foldjINvNvXsi_B6_IBS_ppEB43_10advance_by7advanceB3t_EINtNtNtBc_3ops12control_flow11ControlFlowujEEB2x_, symObjAddr: 0x440, symBinAddr: 0x44730, symSize: 0x440 }
  - { offset: 0xB23F2, size: 0x8, addend: 0x0, symName: __RINvMsg_NtNtNtCsieiGu2EXtoJ_4core4iter8adapters7flattenINtB6_13FlattenCompatINtNtB8_3map3MapINtNtCsdGrGZaRBwMb_3syn10punctuated8IntoIterNtNtB1x_3pat8FieldPatENCNvNtCsjTXeTLYUiB9_18tracing_attributes6expand11param_names0EINtNtCslJiobkLta79_5alloc5boxed3BoxDNtNtNtBa_6traits8iterator8Iteratorp4ItemTNtCsaKzlTDPUHDb_11proc_macro25IdentNtB2A_10RecordTypeEEL_EE13iter_try_foldjINvNvXsi_B6_IBS_ppEB46_10advance_by7advanceB3w_EINtNtNtBc_3ops12control_flow11ControlFlowujEEB2C_, symObjAddr: 0x880, symBinAddr: 0x44B70, symSize: 0x440 }
  - { offset: 0xB29F2, size: 0x8, addend: 0x0, symName: __RINvMNtCsdGrGZaRBwMb_3syn9lookaheadNtB3_10Lookahead14peekINvNtNtCsjTXeTLYUiB9_18tracing_attributes4attr2kw12follows_fromNtB3_11TokenMarkerEEB10_, symObjAddr: 0x0, symBinAddr: 0x48D00, symSize: 0x30 }
  - { offset: 0xB2A14, size: 0x8, addend: 0x0, symName: ___rustc_proc_macro_decls_e7d11b0ffb483729__, symObjAddr: 0x4FD0, symBinAddr: 0x2467B8, symSize: 0x0 }
  - { offset: 0xB2EBB, size: 0x8, addend: 0x0, symName: __RNCNvCsjTXeTLYUiB9_18tracing_attributes10instrument0B3_, symObjAddr: 0xC20, symBinAddr: 0x496C0, symSize: 0xB0 }
  - { offset: 0xB2F1C, size: 0x8, addend: 0x0, symName: __RNCNvXs0_CsjTXeTLYUiB9_18tracing_attributesNtB7_11MaybeItemFnINtNtCsieiGu2EXtoJ_4core7convert4FromNtNtCsdGrGZaRBwMb_3syn4item6ItemFnE4from0B7_, symObjAddr: 0xCD0, symBinAddr: 0x49770, symSize: 0x40 }
  - { offset: 0xB2F5D, size: 0x8, addend: 0x0, symName: __RNvXs0_CsjTXeTLYUiB9_18tracing_attributesNtB5_11MaybeItemFnINtNtCsieiGu2EXtoJ_4core7convert4FromNtNtCsdGrGZaRBwMb_3syn4item6ItemFnE4from, symObjAddr: 0x2660, symBinAddr: 0x4B100, symSize: 0x530 }
  - { offset: 0xB301D, size: 0x8, addend: 0x0, symName: __RNCNvXs_CsjTXeTLYUiB9_18tracing_attributesNtB6_11MaybeItemFnNtNtCsdGrGZaRBwMb_3syn5parse5Parse5parse0B6_, symObjAddr: 0xD10, symBinAddr: 0x497B0, symSize: 0x40 }
  - { offset: 0xB305E, size: 0x8, addend: 0x0, symName: __RNvXs_CsjTXeTLYUiB9_18tracing_attributesNtB4_11MaybeItemFnNtNtCsdGrGZaRBwMb_3syn5parse5Parse5parse, symObjAddr: 0x3850, symBinAddr: 0x4C2F0, symSize: 0x9A0 }
  - { offset: 0xB3264, size: 0x8, addend: 0x0, symName: __RNvCsjTXeTLYUiB9_18tracing_attributes10instrument, symObjAddr: 0xD50, symBinAddr: 0x497F0, symSize: 0x2B0 }
  - { offset: 0xB32EF, size: 0x8, addend: 0x0, symName: __RNvCsjTXeTLYUiB9_18tracing_attributes18instrument_precise, symObjAddr: 0x1000, symBinAddr: 0x49AA0, symSize: 0x650 }
  - { offset: 0xB33ED, size: 0x8, addend: 0x0, symName: __RNvCsjTXeTLYUiB9_18tracing_attributes22instrument_speculative, symObjAddr: 0x1650, symBinAddr: 0x4A0F0, symSize: 0x2D0 }
  - { offset: 0xB71FB, size: 0x8, addend: 0x0, symName: __RNvNvMs1_NtNtCsieiGu2EXtoJ_4core3ptr8non_nullINtB7_7NonNullpE13new_unchecked18precondition_checkCsjTXeTLYUiB9_18tracing_attributes, symObjAddr: 0x22E0, symBinAddr: 0x4AD80, symSize: 0x90 }
  - { offset: 0xB8816, size: 0x8, addend: 0x0, symName: __RNvXNtNtCsieiGu2EXtoJ_4core3ops12control_flowINtB2_11ControlFlowQNtNtCsdGrGZaRBwMb_3syn4expr4ExprENtNtB4_9try_trait3Try11from_outputCsjTXeTLYUiB9_18tracing_attributes, symObjAddr: 0x23F0, symBinAddr: 0x4AE90, symSize: 0x10 }
  - { offset: 0xB8854, size: 0x8, addend: 0x0, symName: __RNvXNtNtCsieiGu2EXtoJ_4core3ops12control_flowINtB2_11ControlFlowQNtNtCsdGrGZaRBwMb_3syn4expr4ExprENtNtB4_9try_trait3Try6branchCsjTXeTLYUiB9_18tracing_attributes, symObjAddr: 0x2400, symBinAddr: 0x4AEA0, symSize: 0x40 }
  - { offset: 0xB88CC, size: 0x8, addend: 0x0, symName: __RNvXNtNtCsieiGu2EXtoJ_4core3ops12control_flowINtB2_11ControlFlowTRNtNtCsdGrGZaRBwMb_3syn4stmt4StmtRNtNtB16_4expr4ExprEENtNtB4_9try_trait3Try11from_outputCsjTXeTLYUiB9_18tracing_attributes, symObjAddr: 0x2440, symBinAddr: 0x4AEE0, symSize: 0x10 }
  - { offset: 0xB890A, size: 0x8, addend: 0x0, symName: __RNvXNtNtCsieiGu2EXtoJ_4core3ops12control_flowINtB2_11ControlFlowTRNtNtCsdGrGZaRBwMb_3syn4stmt4StmtRNtNtB16_4expr4ExprEENtNtB4_9try_trait3Try6branchCsjTXeTLYUiB9_18tracing_attributes, symObjAddr: 0x2450, symBinAddr: 0x4AEF0, symSize: 0x60 }
  - { offset: 0xB8982, size: 0x8, addend: 0x0, symName: __RNvXNtNtCsieiGu2EXtoJ_4core3ops12control_flowINtB2_11ControlFlowTRNtNtCsdGrGZaRBwMb_3syn4stmt4StmtRNtNtB16_4item6ItemFnEENtNtB4_9try_trait3Try11from_outputCsjTXeTLYUiB9_18tracing_attributes, symObjAddr: 0x24B0, symBinAddr: 0x4AF50, symSize: 0x10 }
  - { offset: 0xB89C0, size: 0x8, addend: 0x0, symName: __RNvXNtNtCsieiGu2EXtoJ_4core3ops12control_flowINtB2_11ControlFlowTRNtNtCsdGrGZaRBwMb_3syn4stmt4StmtRNtNtB16_4item6ItemFnEENtNtB4_9try_trait3Try6branchCsjTXeTLYUiB9_18tracing_attributes, symObjAddr: 0x24C0, symBinAddr: 0x4AF60, symSize: 0x60 }
  - { offset: 0xB8A38, size: 0x8, addend: 0x0, symName: __RNvXNtNtCsieiGu2EXtoJ_4core3ops12control_flowINtB2_11ControlFlowTjRNtNtCsdGrGZaRBwMb_3syn4stmt4StmtEENtNtB4_9try_trait3Try11from_outputCsjTXeTLYUiB9_18tracing_attributes, symObjAddr: 0x2520, symBinAddr: 0x4AFC0, symSize: 0x10 }
  - { offset: 0xB8A76, size: 0x8, addend: 0x0, symName: __RNvXNtNtCsieiGu2EXtoJ_4core3ops12control_flowINtB2_11ControlFlowTjRNtNtCsdGrGZaRBwMb_3syn4stmt4StmtEENtNtB4_9try_trait3Try6branchCsjTXeTLYUiB9_18tracing_attributes, symObjAddr: 0x2530, symBinAddr: 0x4AFD0, symSize: 0x60 }
  - { offset: 0xB8AEE, size: 0x8, addend: 0x0, symName: __RNvXNtNtCsieiGu2EXtoJ_4core3ops12control_flowINtB2_11ControlFlowujENtNtB4_9try_trait3Try11from_outputCsjTXeTLYUiB9_18tracing_attributes, symObjAddr: 0x2590, symBinAddr: 0x4B030, symSize: 0x10 }
  - { offset: 0xB8B2C, size: 0x8, addend: 0x0, symName: __RNvXNtNtCsieiGu2EXtoJ_4core3ops12control_flowINtB2_11ControlFlowujENtNtB4_9try_trait3Try6branchCsjTXeTLYUiB9_18tracing_attributes, symObjAddr: 0x25A0, symBinAddr: 0x4B040, symSize: 0x40 }
  - { offset: 0xB8BAA, size: 0x8, addend: 0x0, symName: __RNvXs_NtNtCsieiGu2EXtoJ_4core3ops12control_flowINtB4_11ControlFlowQNtNtCsdGrGZaRBwMb_3syn4expr4ExprEINtNtB6_9try_trait12FromResidualIBK_B12_NtNtB8_7convert10InfallibleEE13from_residualCsjTXeTLYUiB9_18tracing_attributes, symObjAddr: 0x41F0, symBinAddr: 0x4CC90, symSize: 0x10 }
  - { offset: 0xB8BE8, size: 0x8, addend: 0x0, symName: __RNvXs_NtNtCsieiGu2EXtoJ_4core3ops12control_flowINtB4_11ControlFlowTRNtNtCsdGrGZaRBwMb_3syn4stmt4StmtRNtNtB18_4expr4ExprEEINtNtB6_9try_trait12FromResidualIBK_B12_NtNtB8_7convert10InfallibleEE13from_residualCsjTXeTLYUiB9_18tracing_attributes, symObjAddr: 0x4200, symBinAddr: 0x4CCA0, symSize: 0x20 }
  - { offset: 0xB8C26, size: 0x8, addend: 0x0, symName: __RNvXs_NtNtCsieiGu2EXtoJ_4core3ops12control_flowINtB4_11ControlFlowTRNtNtCsdGrGZaRBwMb_3syn4stmt4StmtRNtNtB18_4item6ItemFnEEINtNtB6_9try_trait12FromResidualIBK_B12_NtNtB8_7convert10InfallibleEE13from_residualCsjTXeTLYUiB9_18tracing_attributes, symObjAddr: 0x4220, symBinAddr: 0x4CCC0, symSize: 0x20 }
  - { offset: 0xB8C64, size: 0x8, addend: 0x0, symName: __RNvXs_NtNtCsieiGu2EXtoJ_4core3ops12control_flowINtB4_11ControlFlowTjRNtNtCsdGrGZaRBwMb_3syn4stmt4StmtEEINtNtB6_9try_trait12FromResidualIBK_B12_NtNtB8_7convert10InfallibleEE13from_residualCsjTXeTLYUiB9_18tracing_attributes, symObjAddr: 0x4240, symBinAddr: 0x4CCE0, symSize: 0x20 }
  - { offset: 0xB8CA2, size: 0x8, addend: 0x0, symName: __RNvXs_NtNtCsieiGu2EXtoJ_4core3ops12control_flowINtB4_11ControlFlowujEINtNtB6_9try_trait12FromResidualIBK_uNtNtB8_7convert10InfallibleEE13from_residualCsjTXeTLYUiB9_18tracing_attributes, symObjAddr: 0x4260, symBinAddr: 0x4CD00, symSize: 0x10 }
  - { offset: 0xB95F8, size: 0x8, addend: 0x0, symName: __RNvMNtCsieiGu2EXtoJ_4core5sliceSNtNtCsdGrGZaRBwMb_3syn5error5Error4iterCsjTXeTLYUiB9_18tracing_attributes, symObjAddr: 0x1990, symBinAddr: 0x4A430, symSize: 0x20 }
  - { offset: 0xB962F, size: 0x8, addend: 0x0, symName: __RNvMNtCsieiGu2EXtoJ_4core5sliceSTNtNtCsdGrGZaRBwMb_3syn4expr10FieldValueNtNtBz_5token5CommaE8iter_mutCsjTXeTLYUiB9_18tracing_attributes, symObjAddr: 0x19B0, symBinAddr: 0x4A450, symSize: 0x20 }
  - { offset: 0xB9666, size: 0x8, addend: 0x0, symName: __RNvMNtCsieiGu2EXtoJ_4core5sliceSTNtNtCsdGrGZaRBwMb_3syn4expr4ExprNtNtBz_5token5CommaE8iter_mutCsjTXeTLYUiB9_18tracing_attributes, symObjAddr: 0x19D0, symBinAddr: 0x4A470, symSize: 0x20 }
  - { offset: 0xB969D, size: 0x8, addend: 0x0, symName: __RNvMNtCsieiGu2EXtoJ_4core5sliceSTNtNtCsdGrGZaRBwMb_3syn4path15GenericArgumentNtNtBz_5token5CommaE8iter_mutCsjTXeTLYUiB9_18tracing_attributes, symObjAddr: 0x19F0, symBinAddr: 0x4A490, symSize: 0x20 }
  - { offset: 0xB98E0, size: 0x8, addend: 0x0, symName: __RNvXs1_NtNtNtCsieiGu2EXtoJ_4core4iter8adapters6filterINtB5_6FilterINtNtNtBb_5slice4iter4IterTNtCsaKzlTDPUHDb_11proc_macro25IdentTB1t_NtNtCsjTXeTLYUiB9_18tracing_attributes6expand10RecordTypeEEENCNCINvB29_9gen_blockNtB1v_11TokenStreamEs0_0s2_0ENtNtNtB9_6traits8iterator8Iterator4nextB2b_, symObjAddr: 0x2CA0, symBinAddr: 0x4B740, symSize: 0x20 }
  - { offset: 0xB991E, size: 0x8, addend: 0x0, symName: __RNvXs1_NtNtNtCsieiGu2EXtoJ_4core4iter8adapters6filterINtB5_6FilterINtNtNtBb_5slice4iter4IterTNtCsaKzlTDPUHDb_11proc_macro25IdentTB1t_NtNtCsjTXeTLYUiB9_18tracing_attributes6expand10RecordTypeEEENCNCINvB29_9gen_blockNtB1v_11TokenStreamEs0_0s2_0ENtNtNtB9_6traits8iterator8Iterator9size_hintB2b_, symObjAddr: 0x2CC0, symBinAddr: 0x4B760, symSize: 0x50 }
  - { offset: 0xB9979, size: 0x8, addend: 0x0, symName: __RNvXs1_NtNtNtCsieiGu2EXtoJ_4core4iter8adapters6filterINtB5_6FilterINtNtNtBb_5slice4iter4IterTNtCsaKzlTDPUHDb_11proc_macro25IdentTB1t_NtNtCsjTXeTLYUiB9_18tracing_attributes6expand10RecordTypeEEENCNCINvB29_9gen_blockNtNtCsdGrGZaRBwMb_3syn4stmt5BlockEs0_0s2_0ENtNtNtB9_6traits8iterator8Iterator4nextB2b_, symObjAddr: 0x2D10, symBinAddr: 0x4B7B0, symSize: 0x20 }
  - { offset: 0xB99B7, size: 0x8, addend: 0x0, symName: __RNvXs1_NtNtNtCsieiGu2EXtoJ_4core4iter8adapters6filterINtB5_6FilterINtNtNtBb_5slice4iter4IterTNtCsaKzlTDPUHDb_11proc_macro25IdentTB1t_NtNtCsjTXeTLYUiB9_18tracing_attributes6expand10RecordTypeEEENCNCINvB29_9gen_blockNtNtCsdGrGZaRBwMb_3syn4stmt5BlockEs0_0s2_0ENtNtNtB9_6traits8iterator8Iterator9size_hintB2b_, symObjAddr: 0x2D30, symBinAddr: 0x4B7D0, symSize: 0x50 }
  - { offset: 0xB9A1E, size: 0x8, addend: 0x0, symName: __RNvXsn_NtNtNtCsieiGu2EXtoJ_4core4iter8adapters7flattenINtNtCslJiobkLta79_5alloc5boxed3BoxDNtNtNtB9_6traits8iterator8Iteratorp4ItemTNtCsaKzlTDPUHDb_11proc_macro25IdentNtNtCsjTXeTLYUiB9_18tracing_attributes6expand10RecordTypeEEL_ENtB5_21ConstSizeIntoIterator4sizeB2I_, symObjAddr: 0x4520, symBinAddr: 0x4CFC0, symSize: 0x20 }
  - { offset: 0xB9AB2, size: 0x8, addend: 0x0, symName: __RINvYINtNtCslJiobkLta79_5alloc5boxed3BoxDNtNtNtNtCsieiGu2EXtoJ_4core4iter6traits8iterator8Iteratorp4ItemTNtCsaKzlTDPUHDb_11proc_macro25IdentNtNtCsjTXeTLYUiB9_18tracing_attributes6expand10RecordTypeEEL_EBD_8try_foldINtNtNtBL_3num7nonzero7NonZerojENCNvXs_NvBD_10advance_byB3_NtB43_13SpecAdvanceBy15spec_advance_by0INtNtBL_6option6OptionB3q_EEB2i_, symObjAddr: 0xA40, symBinAddr: 0x494E0, symSize: 0x1A0 }
  - { offset: 0xB9B67, size: 0x8, addend: 0x0, symName: __RINvYINtNtNtNtCsieiGu2EXtoJ_4core4iter8adapters6filter6FilterINtNtNtBc_5slice4iter4IterTNtCsaKzlTDPUHDb_11proc_macro25IdentTB1o_NtNtCsjTXeTLYUiB9_18tracing_attributes6expand10RecordTypeEEENCNCINvB24_9gen_blockNtB1q_11TokenStreamEs0_0s2_0ENtNtNtBa_6traits8iterator8Iterator3mapB3l_NCB32_s3_0EB26_, symObjAddr: 0xBE0, symBinAddr: 0x49680, symSize: 0x20 }
  - { offset: 0xB9BD4, size: 0x8, addend: 0x0, symName: __RINvYINtNtNtNtCsieiGu2EXtoJ_4core4iter8adapters6filter6FilterINtNtNtBc_5slice4iter4IterTNtCsaKzlTDPUHDb_11proc_macro25IdentTB1o_NtNtCsjTXeTLYUiB9_18tracing_attributes6expand10RecordTypeEEENCNCINvB24_9gen_blockNtNtCsdGrGZaRBwMb_3syn4stmt5BlockEs0_0s2_0ENtNtNtBa_6traits8iterator8Iterator3mapNtB1q_11TokenStreamNCB32_s3_0EB26_, symObjAddr: 0xC00, symBinAddr: 0x496A0, symSize: 0x20 }
  - { offset: 0xB9C4B, size: 0x8, addend: 0x0, symName: __RNvXs_NvNtNtNtNtCsieiGu2EXtoJ_4core4iter6traits8iterator8Iterator10advance_byINtNtCslJiobkLta79_5alloc5boxed3BoxDB6_p4ItemTNtCsaKzlTDPUHDb_11proc_macro25IdentNtNtCsjTXeTLYUiB9_18tracing_attributes6expand10RecordTypeEEL_ENtB4_13SpecAdvanceBy15spec_advance_byB2A_, symObjAddr: 0x4270, symBinAddr: 0x4CD10, symSize: 0x90 }
  - { offset: 0xB9D08, size: 0x8, addend: 0x0, symName: __RNvYINtNtCslJiobkLta79_5alloc5boxed3BoxDNtNtNtNtCsieiGu2EXtoJ_4core4iter6traits8iterator8Iteratorp4ItemTNtCsaKzlTDPUHDb_11proc_macro25IdentNtNtCsjTXeTLYUiB9_18tracing_attributes6expand10RecordTypeEEL_EBC_10advance_byB2h_, symObjAddr: 0x4550, symBinAddr: 0x4CFF0, symSize: 0x20 }
  - { offset: 0xB9D5A, size: 0x8, addend: 0x0, symName: __RNvXNtNtNtCsieiGu2EXtoJ_4core4iter6traits7collectINtNtCslJiobkLta79_5alloc5boxed3BoxDNtNtB4_8iterator8Iteratorp4ItemTNtCsaKzlTDPUHDb_11proc_macro25IdentNtNtCsjTXeTLYUiB9_18tracing_attributes6expand10RecordTypeEEL_ENtB2_12IntoIterator9into_iterB2u_, symObjAddr: 0x2640, symBinAddr: 0x4B0E0, symSize: 0x20 }
  - { offset: 0xB9D9E, size: 0x8, addend: 0x0, symName: __RNvXsF_NtNtCsieiGu2EXtoJ_4core4iter5rangejNtB5_4Step17forward_uncheckedCsjTXeTLYUiB9_18tracing_attributes, symObjAddr: 0x3810, symBinAddr: 0x4C2B0, symSize: 0x40 }
  - { offset: 0xBA835, size: 0x8, addend: 0x0, symName: __RNvXs1b_NtCsieiGu2EXtoJ_4core3fmtRNtNtCsdGrGZaRBwMb_3syn5error5ErrorNtB6_7Display3fmtCsjTXeTLYUiB9_18tracing_attributes, symObjAddr: 0x2D80, symBinAddr: 0x4B820, symSize: 0x20 }
  - { offset: 0xBB1AD, size: 0x8, addend: 0x0, symName: __RNvXs9_NtNtNtCsHUR1vrdMJt_3std11collections4hash3setINtB5_7HashSetNtCsaKzlTDPUHDb_11proc_macro25IdentENtNtCsieiGu2EXtoJ_4core7default7Default7defaultCsjTXeTLYUiB9_18tracing_attributes, symObjAddr: 0x36B0, symBinAddr: 0x4C150, symSize: 0x50 }
  - { offset: 0xBB1F9, size: 0x8, addend: 0x0, symName: __RNvXs1_NtNtNtCsHUR1vrdMJt_3std11collections4hash3setINtB5_7HashSetNtCsaKzlTDPUHDb_11proc_macro25IdentENtNtCsieiGu2EXtoJ_4core5clone5Clone5cloneCsjTXeTLYUiB9_18tracing_attributes, symObjAddr: 0x2C40, symBinAddr: 0x4B6E0, symSize: 0x60 }
  - { offset: 0xBB27B, size: 0x8, addend: 0x0, symName: __RNvXsg_NtNtNtCsHUR1vrdMJt_3std11collections4hash3setRINtB5_7HashSetNtCsaKzlTDPUHDb_11proc_macro25IdentENtNtNtNtCsieiGu2EXtoJ_4core4iter6traits7collect12IntoIterator9into_iterCsjTXeTLYUiB9_18tracing_attributes, symObjAddr: 0x4440, symBinAddr: 0x4CEE0, symSize: 0x80 }
  - { offset: 0xBB31A, size: 0x8, addend: 0x0, symName: __RNvXsj_NtNtNtCsHUR1vrdMJt_3std11collections4hash3setINtB5_4IterNtCsaKzlTDPUHDb_11proc_macro25IdentENtNtNtNtCsieiGu2EXtoJ_4core4iter6traits8iterator8Iterator4nextCsjTXeTLYUiB9_18tracing_attributes, symObjAddr: 0x44C0, symBinAddr: 0x4CF60, symSize: 0x60 }
  - { offset: 0xBB4ED, size: 0x8, addend: 0x0, symName: __RINvXNtNtNtNtCsHUR1vrdMJt_3std3sys12thread_local6native4lazyzNtB3_14DestroyedState13register_dtorINtNtCsieiGu2EXtoJ_4core4cell4CellTyyEEECsjTXeTLYUiB9_18tracing_attributes, symObjAddr: 0x570, symBinAddr: 0x49010, symSize: 0x10 }
  - { offset: 0xC0523, size: 0x8, addend: 0x0, symName: __RNvXNtCsdGrGZaRBwMb_3syn7spannedINtNtCslJiobkLta79_5alloc5boxed3BoxNtNtB4_2ty4TypeENtB2_7Spanned4spanCsjTXeTLYUiB9_18tracing_attributes, symObjAddr: 0x23D0, symBinAddr: 0x4AE70, symSize: 0x20 }
  - { offset: 0xC1776, size: 0x8, addend: 0x0, symName: __RINvXNvMNtCslJiobkLta79_5alloc5sliceSp9to_vec_inNtNtCsdGrGZaRBwMb_3syn5error5ErrorNtB3_10ConvertVec6to_vecNtNtB8_5alloc6GlobalECsjTXeTLYUiB9_18tracing_attributes, symObjAddr: 0x580, symBinAddr: 0x49020, symSize: 0x4C0 }
  - { offset: 0xC1D11, size: 0x8, addend: 0x0, symName: __RNvMs_NtCslJiobkLta79_5alloc5boxedINtB4_3BoxNtCsaKzlTDPUHDb_11proc_macro25IdentE13new_uninit_inCsjTXeTLYUiB9_18tracing_attributes, symObjAddr: 0x1F40, symBinAddr: 0x4A9E0, symSize: 0x80 }
  - { offset: 0xC1E09, size: 0x8, addend: 0x0, symName: __RNvMs_NtCslJiobkLta79_5alloc5boxedINtB4_3BoxNtCsaKzlTDPUHDb_11proc_macro25IdentE17try_new_uninit_inCsjTXeTLYUiB9_18tracing_attributes, symObjAddr: 0x1FC0, symBinAddr: 0x4AA60, symSize: 0x140 }
  - { offset: 0xC2047, size: 0x8, addend: 0x0, symName: __RNvMs_NtCslJiobkLta79_5alloc5boxedINtB4_3BoxNtNtCsjTXeTLYUiB9_18tracing_attributes4attr5FieldE13new_uninit_inBK_, symObjAddr: 0x2100, symBinAddr: 0x4ABA0, symSize: 0x80 }
  - { offset: 0xC213F, size: 0x8, addend: 0x0, symName: __RNvMs_NtCslJiobkLta79_5alloc5boxedINtB4_3BoxNtNtCsjTXeTLYUiB9_18tracing_attributes4attr5FieldE17try_new_uninit_inBK_, symObjAddr: 0x2180, symBinAddr: 0x4AC20, symSize: 0x140 }
  - { offset: 0xC24E0, size: 0x8, addend: 0x0, symName: __RNvXNtNtCslJiobkLta79_5alloc5boxed4iterINtB4_3BoxDNtNtNtNtCsieiGu2EXtoJ_4core4iter6traits8iterator8Iteratorp4ItemTNtCsaKzlTDPUHDb_11proc_macro25IdentNtNtCsjTXeTLYUiB9_18tracing_attributes6expand10RecordTypeEEL_EBM_4nextB2r_, symObjAddr: 0x25E0, symBinAddr: 0x4B080, symSize: 0x30 }
  - { offset: 0xC251E, size: 0x8, addend: 0x0, symName: __RNvXNtNtCslJiobkLta79_5alloc5boxed4iterINtB4_3BoxDNtNtNtNtCsieiGu2EXtoJ_4core4iter6traits8iterator8Iteratorp4ItemTNtCsaKzlTDPUHDb_11proc_macro25IdentNtNtCsjTXeTLYUiB9_18tracing_attributes6expand10RecordTypeEEL_EBM_9size_hintB2r_, symObjAddr: 0x2610, symBinAddr: 0x4B0B0, symSize: 0x30 }
  - { offset: 0xC2563, size: 0x8, addend: 0x0, symName: __RNvXs6_NtCslJiobkLta79_5alloc5boxedINtB5_3BoxDNtNtCsieiGu2EXtoJ_4core5error5ErrorNtNtBM_6marker4SyncNtB1j_4SendEL_ENtNtNtBM_3ops4drop4Drop4dropCsjTXeTLYUiB9_18tracing_attributes, symObjAddr: 0x2E60, symBinAddr: 0x4B900, symSize: 0xC0 }
  - { offset: 0xC26A0, size: 0x8, addend: 0x0, symName: __RNvXs6_NtCslJiobkLta79_5alloc5boxedINtB5_3BoxDNtNtNtNtCsieiGu2EXtoJ_4core4iter6traits8iterator8Iteratorp4ItemTNtCsaKzlTDPUHDb_11proc_macro25IdentNtNtCsjTXeTLYUiB9_18tracing_attributes6expand10RecordTypeEEL_ENtNtNtBQ_3ops4drop4Drop4dropB2n_, symObjAddr: 0x2F20, symBinAddr: 0x4B9C0, symSize: 0xC0 }
  - { offset: 0xC27DD, size: 0x8, addend: 0x0, symName: __RNvXs6_NtCslJiobkLta79_5alloc5boxedINtB5_3BoxINtNtCsdGrGZaRBwMb_3syn5drops6NoDropDINtNtBM_10punctuated12IterMutTraitNtNtCsjTXeTLYUiB9_18tracing_attributes4attr5FieldEp4ItemQB1Q_EL_EENtNtNtCsieiGu2EXtoJ_4core3ops4drop4Drop4dropB1U_, symObjAddr: 0x2FE0, symBinAddr: 0x4BA80, symSize: 0x120 }
  - { offset: 0xC291A, size: 0x8, addend: 0x0, symName: __RNvXs6_NtCslJiobkLta79_5alloc5boxedINtB5_3BoxINtNtCsdGrGZaRBwMb_3syn5drops6NoDropDINtNtBM_10punctuated9IterTraitNtCsaKzlTDPUHDb_11proc_macro25IdentEp4ItemRB1M_EL_EENtNtNtCsieiGu2EXtoJ_4core3ops4drop4Drop4dropCsjTXeTLYUiB9_18tracing_attributes, symObjAddr: 0x3100, symBinAddr: 0x4BBA0, symSize: 0x120 }
  - { offset: 0xC2A57, size: 0x8, addend: 0x0, symName: __RNvXs6_NtCslJiobkLta79_5alloc5boxedINtB5_3BoxINtNtCsdGrGZaRBwMb_3syn5drops6NoDropDINtNtBM_10punctuated9IterTraitNtNtCsjTXeTLYUiB9_18tracing_attributes4attr5FieldEp4ItemRB1M_EL_EENtNtNtCsieiGu2EXtoJ_4core3ops4drop4Drop4dropB1Q_, symObjAddr: 0x3220, symBinAddr: 0x4BCC0, symSize: 0x120 }
  - { offset: 0xC2B94, size: 0x8, addend: 0x0, symName: __RNvXs6_NtCslJiobkLta79_5alloc5boxedINtB5_3BoxINtNtNtCsieiGu2EXtoJ_4core3mem12maybe_uninit11MaybeUninitNtCsaKzlTDPUHDb_11proc_macro25IdentEENtNtNtBO_3ops4drop4Drop4dropCsjTXeTLYUiB9_18tracing_attributes, symObjAddr: 0x3340, symBinAddr: 0x4BDE0, symSize: 0xB0 }
  - { offset: 0xC2CCF, size: 0x8, addend: 0x0, symName: __RNvXs6_NtCslJiobkLta79_5alloc5boxedINtB5_3BoxINtNtNtCsieiGu2EXtoJ_4core3mem12maybe_uninit11MaybeUninitNtNtCsjTXeTLYUiB9_18tracing_attributes4attr5FieldEENtNtNtBO_3ops4drop4Drop4dropB1G_, symObjAddr: 0x33F0, symBinAddr: 0x4BE90, symSize: 0xB0 }
  - { offset: 0xC2E0A, size: 0x8, addend: 0x0, symName: __RNvXs6_NtCslJiobkLta79_5alloc5boxedINtB5_3BoxNtCsaKzlTDPUHDb_11proc_macro25IdentENtNtNtCsieiGu2EXtoJ_4core3ops4drop4Drop4dropCsjTXeTLYUiB9_18tracing_attributes, symObjAddr: 0x34A0, symBinAddr: 0x4BF40, symSize: 0xB0 }
  - { offset: 0xC2F45, size: 0x8, addend: 0x0, symName: __RNvXs6_NtCslJiobkLta79_5alloc5boxedINtB5_3BoxNtNtCsjTXeTLYUiB9_18tracing_attributes4attr5FieldENtNtNtCsieiGu2EXtoJ_4core3ops4drop4Drop4dropBL_, symObjAddr: 0x3550, symBinAddr: 0x4BFF0, symSize: 0xB0 }
  - { offset: 0xC3080, size: 0x8, addend: 0x0, symName: __RNvXs6_NtCslJiobkLta79_5alloc5boxedINtB5_3BoxNtNtNtCsHUR1vrdMJt_3std2io5error6CustomENtNtNtCsieiGu2EXtoJ_4core3ops4drop4Drop4dropCsjTXeTLYUiB9_18tracing_attributes, symObjAddr: 0x3600, symBinAddr: 0x4C0A0, symSize: 0xB0 }
  - { offset: 0xC31C1, size: 0x8, addend: 0x0, symName: __RNvXsC_NtCslJiobkLta79_5alloc5boxedINtB5_3BoxNtCsaKzlTDPUHDb_11proc_macro25IdentEINtNtCsieiGu2EXtoJ_4core7convert5AsRefBH_E6as_refCsjTXeTLYUiB9_18tracing_attributes, symObjAddr: 0x3700, symBinAddr: 0x4C1A0, symSize: 0x10 }
  - { offset: 0xC3201, size: 0x8, addend: 0x0, symName: __RNvXsC_NtCslJiobkLta79_5alloc5boxedINtB5_3BoxNtNtCsjTXeTLYUiB9_18tracing_attributes4attr5FieldEINtNtCsieiGu2EXtoJ_4core7convert5AsRefBH_E6as_refBL_, symObjAddr: 0x3710, symBinAddr: 0x4C1B0, symSize: 0x10 }
  - { offset: 0xC3247, size: 0x8, addend: 0x0, symName: __RNvXsD_NtCslJiobkLta79_5alloc5boxedINtB5_3BoxNtNtCsdGrGZaRBwMb_3syn2ty4TypeEINtNtCsieiGu2EXtoJ_4core7convert5AsMutBH_E6as_mutCsjTXeTLYUiB9_18tracing_attributes, symObjAddr: 0x3720, symBinAddr: 0x4C1C0, symSize: 0x10 }
  - { offset: 0xC3287, size: 0x8, addend: 0x0, symName: __RNvXsD_NtCslJiobkLta79_5alloc5boxedINtB5_3BoxNtNtCsdGrGZaRBwMb_3syn2ty9BareFnArgEINtNtCsieiGu2EXtoJ_4core7convert5AsMutBH_E6as_mutCsjTXeTLYUiB9_18tracing_attributes, symObjAddr: 0x3730, symBinAddr: 0x4C1D0, symSize: 0x10 }
  - { offset: 0xC32C7, size: 0x8, addend: 0x0, symName: __RNvXsD_NtCslJiobkLta79_5alloc5boxedINtB5_3BoxNtNtCsdGrGZaRBwMb_3syn3pat3PatEINtNtCsieiGu2EXtoJ_4core7convert5AsMutBH_E6as_mutCsjTXeTLYUiB9_18tracing_attributes, symObjAddr: 0x3740, symBinAddr: 0x4C1E0, symSize: 0x10 }
  - { offset: 0xC3307, size: 0x8, addend: 0x0, symName: __RNvXsD_NtCslJiobkLta79_5alloc5boxedINtB5_3BoxNtNtCsdGrGZaRBwMb_3syn3pat8FieldPatEINtNtCsieiGu2EXtoJ_4core7convert5AsMutBH_E6as_mutCsjTXeTLYUiB9_18tracing_attributes, symObjAddr: 0x3750, symBinAddr: 0x4C1F0, symSize: 0x10 }
  - { offset: 0xC3347, size: 0x8, addend: 0x0, symName: __RNvXsD_NtCslJiobkLta79_5alloc5boxedINtB5_3BoxNtNtCsdGrGZaRBwMb_3syn4data7VariantEINtNtCsieiGu2EXtoJ_4core7convert5AsMutBH_E6as_mutCsjTXeTLYUiB9_18tracing_attributes, symObjAddr: 0x3760, symBinAddr: 0x4C200, symSize: 0x10 }
  - { offset: 0xC3387, size: 0x8, addend: 0x0, symName: __RNvXsD_NtCslJiobkLta79_5alloc5boxedINtB5_3BoxNtNtCsdGrGZaRBwMb_3syn4expr10FieldValueEINtNtCsieiGu2EXtoJ_4core7convert5AsMutBH_E6as_mutCsjTXeTLYUiB9_18tracing_attributes, symObjAddr: 0x3770, symBinAddr: 0x4C210, symSize: 0x10 }
  - { offset: 0xC33C7, size: 0x8, addend: 0x0, symName: __RNvXsD_NtCslJiobkLta79_5alloc5boxedINtB5_3BoxNtNtCsdGrGZaRBwMb_3syn4expr4ExprEINtNtCsieiGu2EXtoJ_4core7convert5AsMutBH_E6as_mutCsjTXeTLYUiB9_18tracing_attributes, symObjAddr: 0x3780, symBinAddr: 0x4C220, symSize: 0x10 }
  - { offset: 0xC3407, size: 0x8, addend: 0x0, symName: __RNvXsD_NtCslJiobkLta79_5alloc5boxedINtB5_3BoxNtNtCsdGrGZaRBwMb_3syn4item5FnArgEINtNtCsieiGu2EXtoJ_4core7convert5AsMutBH_E6as_mutCsjTXeTLYUiB9_18tracing_attributes, symObjAddr: 0x3790, symBinAddr: 0x4C230, symSize: 0x10 }
  - { offset: 0xC3447, size: 0x8, addend: 0x0, symName: __RNvXsD_NtCslJiobkLta79_5alloc5boxedINtB5_3BoxNtNtCsdGrGZaRBwMb_3syn4item7UseTreeEINtNtCsieiGu2EXtoJ_4core7convert5AsMutBH_E6as_mutCsjTXeTLYUiB9_18tracing_attributes, symObjAddr: 0x37A0, symBinAddr: 0x4C240, symSize: 0x10 }
  - { offset: 0xC3487, size: 0x8, addend: 0x0, symName: __RNvXsD_NtCslJiobkLta79_5alloc5boxedINtB5_3BoxNtNtCsdGrGZaRBwMb_3syn4path15GenericArgumentEINtNtCsieiGu2EXtoJ_4core7convert5AsMutBH_E6as_mutCsjTXeTLYUiB9_18tracing_attributes, symObjAddr: 0x37B0, symBinAddr: 0x4C250, symSize: 0x10 }
  - { offset: 0xC34C7, size: 0x8, addend: 0x0, symName: __RNvXsD_NtCslJiobkLta79_5alloc5boxedINtB5_3BoxNtNtCsdGrGZaRBwMb_3syn8generics13CapturedParamEINtNtCsieiGu2EXtoJ_4core7convert5AsMutBH_E6as_mutCsjTXeTLYUiB9_18tracing_attributes, symObjAddr: 0x37C0, symBinAddr: 0x4C260, symSize: 0x10 }
  - { offset: 0xC3507, size: 0x8, addend: 0x0, symName: __RNvXsD_NtCslJiobkLta79_5alloc5boxedINtB5_3BoxNtNtCsdGrGZaRBwMb_3syn8generics14TypeParamBoundEINtNtCsieiGu2EXtoJ_4core7convert5AsMutBH_E6as_mutCsjTXeTLYUiB9_18tracing_attributes, symObjAddr: 0x37D0, symBinAddr: 0x4C270, symSize: 0x10 }
  - { offset: 0xC3547, size: 0x8, addend: 0x0, symName: __RNvXsD_NtCslJiobkLta79_5alloc5boxedINtB5_3BoxNtNtCsdGrGZaRBwMb_3syn8generics14WherePredicateEINtNtCsieiGu2EXtoJ_4core7convert5AsMutBH_E6as_mutCsjTXeTLYUiB9_18tracing_attributes, symObjAddr: 0x37E0, symBinAddr: 0x4C280, symSize: 0x10 }
  - { offset: 0xC3587, size: 0x8, addend: 0x0, symName: __RNvXsD_NtCslJiobkLta79_5alloc5boxedINtB5_3BoxNtNtCsdGrGZaRBwMb_3syn8lifetime8LifetimeEINtNtCsieiGu2EXtoJ_4core7convert5AsMutBH_E6as_mutCsjTXeTLYUiB9_18tracing_attributes, symObjAddr: 0x37F0, symBinAddr: 0x4C290, symSize: 0x10 }
  - { offset: 0xC35C7, size: 0x8, addend: 0x0, symName: __RNvXsD_NtCslJiobkLta79_5alloc5boxedINtB5_3BoxNtNtCsjTXeTLYUiB9_18tracing_attributes4attr5FieldEINtNtCsieiGu2EXtoJ_4core7convert5AsMutBH_E6as_mutBL_, symObjAddr: 0x3800, symBinAddr: 0x4C2A0, symSize: 0x10 }
  - { offset: 0xC36AD, size: 0x8, addend: 0x0, symName: __RNvXsb_NtCslJiobkLta79_5alloc5boxedINtB5_3BoxNtCsaKzlTDPUHDb_11proc_macro25IdentENtNtCsieiGu2EXtoJ_4core5clone5Clone5cloneCsjTXeTLYUiB9_18tracing_attributes, symObjAddr: 0x4300, symBinAddr: 0x4CDA0, symSize: 0xA0 }
  - { offset: 0xC3829, size: 0x8, addend: 0x0, symName: __RNvXsb_NtCslJiobkLta79_5alloc5boxedINtB5_3BoxNtNtCsjTXeTLYUiB9_18tracing_attributes4attr5FieldENtNtCsieiGu2EXtoJ_4core5clone5Clone5cloneBL_, symObjAddr: 0x43A0, symBinAddr: 0x4CE40, symSize: 0xA0 }
  - { offset: 0xC3A3A, size: 0x8, addend: 0x0, symName: __RINvMNtCsdGrGZaRBwMb_3syn9lookaheadNtB3_10Lookahead14peekINvNtNtCsjTXeTLYUiB9_18tracing_attributes4attr2kw12follows_fromNtB3_11TokenMarkerEEB10_, symObjAddr: 0x0, symBinAddr: 0x48D00, symSize: 0x30 }
  - { offset: 0xC3A8B, size: 0x8, addend: 0x0, symName: __RINvMNtCsdGrGZaRBwMb_3syn9lookaheadNtB3_10Lookahead14peekINvNtNtCsjTXeTLYUiB9_18tracing_attributes4attr2kw3errNtB3_11TokenMarkerEEB10_, symObjAddr: 0x30, symBinAddr: 0x48D30, symSize: 0x30 }
  - { offset: 0xC3ADC, size: 0x8, addend: 0x0, symName: __RINvMNtCsdGrGZaRBwMb_3syn9lookaheadNtB3_10Lookahead14peekINvNtNtCsjTXeTLYUiB9_18tracing_attributes4attr2kw3retNtB3_11TokenMarkerEEB10_, symObjAddr: 0x60, symBinAddr: 0x48D60, symSize: 0x30 }
  - { offset: 0xC3B2D, size: 0x8, addend: 0x0, symName: __RINvMNtCsdGrGZaRBwMb_3syn9lookaheadNtB3_10Lookahead14peekINvNtNtCsjTXeTLYUiB9_18tracing_attributes4attr2kw4nameNtB3_11TokenMarkerEEB10_, symObjAddr: 0x90, symBinAddr: 0x48D90, symSize: 0x30 }
  - { offset: 0xC3B7E, size: 0x8, addend: 0x0, symName: __RINvMNtCsdGrGZaRBwMb_3syn9lookaheadNtB3_10Lookahead14peekINvNtNtCsjTXeTLYUiB9_18tracing_attributes4attr2kw4skipNtB3_11TokenMarkerEEB10_, symObjAddr: 0xC0, symBinAddr: 0x48DC0, symSize: 0x30 }
  - { offset: 0xC3BCF, size: 0x8, addend: 0x0, symName: __RINvMNtCsdGrGZaRBwMb_3syn9lookaheadNtB3_10Lookahead14peekINvNtNtCsjTXeTLYUiB9_18tracing_attributes4attr2kw5levelNtB3_11TokenMarkerEEB10_, symObjAddr: 0xF0, symBinAddr: 0x48DF0, symSize: 0x30 }
  - { offset: 0xC3C20, size: 0x8, addend: 0x0, symName: __RINvMNtCsdGrGZaRBwMb_3syn9lookaheadNtB3_10Lookahead14peekINvNtNtCsjTXeTLYUiB9_18tracing_attributes4attr2kw6fieldsNtB3_11TokenMarkerEEB10_, symObjAddr: 0x120, symBinAddr: 0x48E20, symSize: 0x30 }
  - { offset: 0xC3C71, size: 0x8, addend: 0x0, symName: __RINvMNtCsdGrGZaRBwMb_3syn9lookaheadNtB3_10Lookahead14peekINvNtNtCsjTXeTLYUiB9_18tracing_attributes4attr2kw6parentNtB3_11TokenMarkerEEB10_, symObjAddr: 0x150, symBinAddr: 0x48E50, symSize: 0x30 }
  - { offset: 0xC3CC2, size: 0x8, addend: 0x0, symName: __RINvMNtCsdGrGZaRBwMb_3syn9lookaheadNtB3_10Lookahead14peekINvNtNtCsjTXeTLYUiB9_18tracing_attributes4attr2kw6targetNtB3_11TokenMarkerEEB10_, symObjAddr: 0x180, symBinAddr: 0x48E80, symSize: 0x30 }
  - { offset: 0xC3D13, size: 0x8, addend: 0x0, symName: __RINvMNtCsdGrGZaRBwMb_3syn9lookaheadNtB3_10Lookahead14peekINvNtNtCsjTXeTLYUiB9_18tracing_attributes4attr2kw8skip_allNtB3_11TokenMarkerEEB10_, symObjAddr: 0x1B0, symBinAddr: 0x48EB0, symSize: 0x30 }
  - { offset: 0xC3D71, size: 0x8, addend: 0x0, symName: __RINvMNtCsdGrGZaRBwMb_3syn9lookaheadNtB3_10Lookahead14peekNvNtB5_3lit6LitIntECsjTXeTLYUiB9_18tracing_attributes, symObjAddr: 0x1E0, symBinAddr: 0x48EE0, symSize: 0x30 }
  - { offset: 0xC42DE, size: 0x8, addend: 0x0, symName: __RNvXs1_NtCsjK30CmJ87bX_9hashbrown10scopeguardINtB5_10ScopeGuardNtNtB7_3raw13RawTableInnerNCINvMsa_B11_BZ_14prepare_resizeNtNtCslJiobkLta79_5alloc5alloc6GlobalE0ENtNtNtCsieiGu2EXtoJ_4core3ops4drop4Drop4dropCsjTXeTLYUiB9_18tracing_attributes, symObjAddr: 0x2BC0, symBinAddr: 0x4B660, symSize: 0x20 }
  - { offset: 0xC4318, size: 0x8, addend: 0x0, symName: __RNvXs1_NtCsjK30CmJ87bX_9hashbrown10scopeguardINtB5_10ScopeGuardQNtNtB7_3raw13RawTableInnerNCNvMsa_B12_B10_15rehash_in_place0ENtNtNtCsieiGu2EXtoJ_4core3ops4drop4Drop4dropCsjTXeTLYUiB9_18tracing_attributes, symObjAddr: 0x2BE0, symBinAddr: 0x4B680, symSize: 0x30 }
  - { offset: 0xC4352, size: 0x8, addend: 0x0, symName: __RNvXs1_NtCsjK30CmJ87bX_9hashbrown10scopeguardINtB5_10ScopeGuardTjQINtNtB7_3raw8RawTableTNtCsaKzlTDPUHDb_11proc_macro25IdentuEEENCNvMse_B15_B12_15clone_from_impl0ENtNtNtCsieiGu2EXtoJ_4core3ops4drop4Drop4dropCsjTXeTLYUiB9_18tracing_attributes, symObjAddr: 0x2C10, symBinAddr: 0x4B6B0, symSize: 0x30 }
  - { offset: 0xC4575, size: 0x8, addend: 0x0, symName: __RINvMs0_NtNtNtCsHUR1vrdMJt_3std11collections4hash3setINtB6_7HashSetNtCsaKzlTDPUHDb_11proc_macro25IdentE8containsB13_ECsjTXeTLYUiB9_18tracing_attributes, symObjAddr: 0x210, symBinAddr: 0x48F10, symSize: 0x50 }
  - { offset: 0xC46E9, size: 0x8, addend: 0x0, symName: __RINvMs0_NtNtNtNtCsHUR1vrdMJt_3std3sys12thread_local6native4lazyINtB6_7StorageINtNtCsieiGu2EXtoJ_4core4cell4CellTyyEEzE11get_or_initNvNvNvMNtNtBe_4hash6randomNtB2c_11RandomState3new4KEYS6___initECsjTXeTLYUiB9_18tracing_attributes, symObjAddr: 0x260, symBinAddr: 0x48F60, symSize: 0x90 }
  - { offset: 0xC48F4, size: 0x8, addend: 0x0, symName: __RINvMs0_NtNtNtNtCsHUR1vrdMJt_3std3sys12thread_local6native4lazyINtB6_7StorageINtNtCsieiGu2EXtoJ_4core4cell4CellTyyEEzE16get_or_init_slowNvNvNvMNtNtBe_4hash6randomNtB2h_11RandomState3new4KEYS6___initECsjTXeTLYUiB9_18tracing_attributes, symObjAddr: 0x2F0, symBinAddr: 0x1FCA00, symSize: 0x260 }
  - { offset: 0xC4BCC, size: 0x8, addend: 0x0, symName: __RINvNtCs9OU1sGv5X54_5quote9___private8get_spanNtCsaKzlTDPUHDb_11proc_macro24SpanECsjTXeTLYUiB9_18tracing_attributes, symObjAddr: 0x550, symBinAddr: 0x48FF0, symSize: 0x20 }
  - { offset: 0xC4C06, size: 0x8, addend: 0x0, symName: __RNvXs5_NtCs9OU1sGv5X54_5quote9___privateINtB5_9RepInterpNtCsaKzlTDPUHDb_11proc_macro211TokenStreamENtNtB7_9to_tokens8ToTokens9to_tokensCsjTXeTLYUiB9_18tracing_attributes, symObjAddr: 0x2DA0, symBinAddr: 0x4B840, symSize: 0x30 }
  - { offset: 0xC4C45, size: 0x8, addend: 0x0, symName: __RNvXs5_NtCs9OU1sGv5X54_5quote9___privateINtB5_9RepInterpRNtCsaKzlTDPUHDb_11proc_macro211TokenStreamENtNtB7_9to_tokens8ToTokens9to_tokensCsjTXeTLYUiB9_18tracing_attributes, symObjAddr: 0x2DD0, symBinAddr: 0x4B870, symSize: 0x30 }
  - { offset: 0xC4C84, size: 0x8, addend: 0x0, symName: __RNvXs5_NtCs9OU1sGv5X54_5quote9___privateINtB5_9RepInterpRNtNtCsdGrGZaRBwMb_3syn4attr9AttributeENtNtB7_9to_tokens8ToTokens9to_tokensCsjTXeTLYUiB9_18tracing_attributes, symObjAddr: 0x2E00, symBinAddr: 0x4B8A0, symSize: 0x30 }
  - { offset: 0xC4CC3, size: 0x8, addend: 0x0, symName: __RNvXs5_NtCs9OU1sGv5X54_5quote9___privateINtB5_9RepInterpRNtNtCsdGrGZaRBwMb_3syn4expr4ExprENtNtB7_9to_tokens8ToTokens9to_tokensCsjTXeTLYUiB9_18tracing_attributes, symObjAddr: 0x2E30, symBinAddr: 0x4B8D0, symSize: 0x30 }
  - { offset: 0xC4D08, size: 0x8, addend: 0x0, symName: __RNvYINtNtCs9OU1sGv5X54_5quote9___private11HasIteratorKb1_EINtB5_16CheckHasIteratorKBQ_E5checkCsjTXeTLYUiB9_18tracing_attributes, symObjAddr: 0x4540, symBinAddr: 0x4CFE0, symSize: 0x10 }
  - { offset: 0xC4E25, size: 0x8, addend: 0x0, symName: __RNvXNtCs9OU1sGv5X54_5quote9to_tokensRINtNtCslJiobkLta79_5alloc5boxed3BoxNtNtCsdGrGZaRBwMb_3syn2ty4TypeENtB2_8ToTokens9to_tokensCsjTXeTLYUiB9_18tracing_attributes, symObjAddr: 0x2370, symBinAddr: 0x4AE10, symSize: 0x30 }
  - { offset: 0xC4E64, size: 0x8, addend: 0x0, symName: __RNvXNtCs9OU1sGv5X54_5quote9to_tokensRNtNtCsdGrGZaRBwMb_3syn4path4PathNtB2_8ToTokens9to_tokensCsjTXeTLYUiB9_18tracing_attributes, symObjAddr: 0x23A0, symBinAddr: 0x4AE40, symSize: 0x30 }
  - { offset: 0xC4EA9, size: 0x8, addend: 0x0, symName: __RNvYRINtNtCslJiobkLta79_5alloc5boxed3BoxNtNtCsdGrGZaRBwMb_3syn2ty4TypeENtNtCs9OU1sGv5X54_5quote9to_tokens8ToTokens15to_token_streamCsjTXeTLYUiB9_18tracing_attributes, symObjAddr: 0x4570, symBinAddr: 0x4D010, symSize: 0x90 }
  - { offset: 0xC4EF3, size: 0x8, addend: 0x0, symName: __RNvYRINtNtCslJiobkLta79_5alloc5boxed3BoxNtNtCsdGrGZaRBwMb_3syn2ty4TypeENtNtCs9OU1sGv5X54_5quote9to_tokens8ToTokens17into_token_streamCsjTXeTLYUiB9_18tracing_attributes, symObjAddr: 0x4600, symBinAddr: 0x4D0A0, symSize: 0x50 }
  - { offset: 0xC4F34, size: 0x8, addend: 0x0, symName: __RNvXs0_NtCs9OU1sGv5X54_5quote7spannedINtNtCslJiobkLta79_5alloc5boxed3BoxNtNtCsdGrGZaRBwMb_3syn2ty4TypeENtB5_7Spanned6___spanCsjTXeTLYUiB9_18tracing_attributes, symObjAddr: 0x2B90, symBinAddr: 0x4B630, symSize: 0x30 }
  - { offset: 0xC595B, size: 0x8, addend: 0x0, symName: __RNvMCsjTXeTLYUiB9_18tracing_attributesNtB2_11MaybeItemFn6as_ref, symObjAddr: 0x1920, symBinAddr: 0x4A3C0, symSize: 0x70 }
  - { offset: 0xC597E, size: 0x8, addend: 0x0, symName: __RNvMNtNtNtCsHUR1vrdMJt_3std11collections4hash3setINtB2_7HashSetNtCsaKzlTDPUHDb_11proc_macro25IdentE3newCsjTXeTLYUiB9_18tracing_attributes, symObjAddr: 0x1A10, symBinAddr: 0x4A4B0, symSize: 0x50 }
  - { offset: 0xC5A5E, size: 0x8, addend: 0x0, symName: __RNvMs0_NtNtNtCsHUR1vrdMJt_3std11collections4hash3setINtB5_7HashSetNtCsaKzlTDPUHDb_11proc_macro25IdentE6insertCsjTXeTLYUiB9_18tracing_attributes, symObjAddr: 0x1A60, symBinAddr: 0x4A500, symSize: 0x40 }
  - { offset: 0xC5B3C, size: 0x8, addend: 0x0, symName: __RNvMs1_NtNtCsieiGu2EXtoJ_4core3ptr8non_nullINtB5_7NonNullNtCsaKzlTDPUHDb_11proc_macro25IdentE20offset_from_unsignedCsjTXeTLYUiB9_18tracing_attributes, symObjAddr: 0x1AA0, symBinAddr: 0x4A540, symSize: 0x70 }
  - { offset: 0xC5C46, size: 0x8, addend: 0x0, symName: __RNvMs1_NtNtCsieiGu2EXtoJ_4core3ptr8non_nullINtB5_7NonNullNtNtCsdGrGZaRBwMb_3syn3pat3PatE20offset_from_unsignedCsjTXeTLYUiB9_18tracing_attributes, symObjAddr: 0x1B10, symBinAddr: 0x4A5B0, symSize: 0x70 }
  - { offset: 0xC5D50, size: 0x8, addend: 0x0, symName: __RNvMs1_NtNtCsieiGu2EXtoJ_4core3ptr8non_nullINtB5_7NonNullNtNtCsdGrGZaRBwMb_3syn3pat8FieldPatE20offset_from_unsignedCsjTXeTLYUiB9_18tracing_attributes, symObjAddr: 0x1B80, symBinAddr: 0x4A620, symSize: 0x60 }
  - { offset: 0xC5E5A, size: 0x8, addend: 0x0, symName: __RNvMs1_NtNtCsieiGu2EXtoJ_4core3ptr8non_nullINtB5_7NonNullNtNtCsdGrGZaRBwMb_3syn4item5FnArgE20offset_from_unsignedCsjTXeTLYUiB9_18tracing_attributes, symObjAddr: 0x1BE0, symBinAddr: 0x4A680, symSize: 0x70 }
  - { offset: 0xC5F64, size: 0x8, addend: 0x0, symName: __RNvMs1_NtNtCsieiGu2EXtoJ_4core3ptr8non_nullINtB5_7NonNullNtNtCsdGrGZaRBwMb_3syn4stmt4StmtE20offset_from_unsignedCsjTXeTLYUiB9_18tracing_attributes, symObjAddr: 0x1C50, symBinAddr: 0x4A6F0, symSize: 0x70 }
  - { offset: 0xC606E, size: 0x8, addend: 0x0, symName: __RNvMs1_NtNtCsieiGu2EXtoJ_4core3ptr8non_nullINtB5_7NonNullTNtCsaKzlTDPUHDb_11proc_macro25IdentNtNtCsdGrGZaRBwMb_3syn5token3DotEE20offset_from_unsignedCsjTXeTLYUiB9_18tracing_attributes, symObjAddr: 0x1CC0, symBinAddr: 0x4A760, symSize: 0x60 }
  - { offset: 0xC6196, size: 0x8, addend: 0x0, symName: __RNvMs1_NtNtCsieiGu2EXtoJ_4core3ptr8non_nullINtB5_7NonNullTNtCsaKzlTDPUHDb_11proc_macro25IdentNtNtCsdGrGZaRBwMb_3syn5token5CommaEE20offset_from_unsignedCsjTXeTLYUiB9_18tracing_attributes, symObjAddr: 0x1D20, symBinAddr: 0x4A7C0, symSize: 0x60 }
  - { offset: 0xC6293, size: 0x8, addend: 0x0, symName: __RNvMs1_NtNtCsieiGu2EXtoJ_4core3ptr8non_nullINtB5_7NonNullTNtCsaKzlTDPUHDb_11proc_macro25IdentTBU_NtNtCsjTXeTLYUiB9_18tracing_attributes6expand10RecordTypeEEE20offset_from_unsignedB1B_, symObjAddr: 0x1D80, symBinAddr: 0x4A820, symSize: 0x70 }
  - { offset: 0xC639D, size: 0x8, addend: 0x0, symName: __RNvMs1_NtNtCsieiGu2EXtoJ_4core3ptr8non_nullINtB5_7NonNullTNtNtCsdGrGZaRBwMb_3syn3pat3PatNtNtBY_5token5CommaEE20offset_from_unsignedCsjTXeTLYUiB9_18tracing_attributes, symObjAddr: 0x1DF0, symBinAddr: 0x4A890, symSize: 0x70 }
  - { offset: 0xC64A7, size: 0x8, addend: 0x0, symName: __RNvMs1_NtNtCsieiGu2EXtoJ_4core3ptr8non_nullINtB5_7NonNullTNtNtCsdGrGZaRBwMb_3syn3pat8FieldPatNtNtBY_5token5CommaEE20offset_from_unsignedCsjTXeTLYUiB9_18tracing_attributes, symObjAddr: 0x1E60, symBinAddr: 0x4A900, symSize: 0x70 }
  - { offset: 0xC65B1, size: 0x8, addend: 0x0, symName: __RNvMs1_NtNtCsieiGu2EXtoJ_4core3ptr8non_nullINtB5_7NonNullTNtNtCsjTXeTLYUiB9_18tracing_attributes4attr5FieldNtNtCsdGrGZaRBwMb_3syn5token5CommaEE20offset_from_unsignedBY_, symObjAddr: 0x1ED0, symBinAddr: 0x4A970, symSize: 0x70 }
  - { offset: 0xC6966, size: 0x8, addend: 0x0, symName: __RNvMs_NtNtNtCsHUR1vrdMJt_3std11collections4hash3setINtB4_7HashSetNtCsaKzlTDPUHDb_11proc_macro25IdentE8is_emptyCsjTXeTLYUiB9_18tracing_attributes, symObjAddr: 0x22C0, symBinAddr: 0x4AD60, symSize: 0x20 }
  - { offset: 0xC79D4, size: 0x8, addend: 0x0, symName: __RINvNtNtCscKtU6MdFI5n_10proc_macro6bridge6client10run_clientTNtB2_11TokenStreamBX_EINtNtCsieiGu2EXtoJ_4core6option6OptionBX_ENCNCINvMs7_B2_INtB2_6ClientTNtB6_11TokenStreamB2r_EB2r_E7expand2NvCsjTXeTLYUiB9_18tracing_attributes10instrumentE00EB33_, symObjAddr: 0x0, symBinAddr: 0x4D0F0, symSize: 0x2E0 }
  - { offset: 0xC7BA9, size: 0x8, addend: 0x0, symName: __RNCNvXs1_NtNtNtCsHUR1vrdMJt_3std2io5error14repr_bitpackedNtB7_4ReprNtNtNtCsieiGu2EXtoJ_4core3ops4drop4Drop4drop0CsjTXeTLYUiB9_18tracing_attributes, symObjAddr: 0x1EA0, symBinAddr: 0x4EF90, symSize: 0x30 }
  - { offset: 0xC7C5E, size: 0x8, addend: 0x0, symName: __RNvXs1_NtNtNtCsHUR1vrdMJt_3std2io5error14repr_bitpackedNtB5_4ReprNtNtNtCsieiGu2EXtoJ_4core3ops4drop4Drop4dropCsjTXeTLYUiB9_18tracing_attributes, symObjAddr: 0x3770, symBinAddr: 0x50860, symSize: 0x30 }
  - { offset: 0xC7C87, size: 0x8, addend: 0x0, symName: __RINvNtNtNtCsHUR1vrdMJt_3std2io5error14repr_bitpacked11decode_reprINtNtCslJiobkLta79_5alloc5boxed3BoxNtB4_6CustomENCNvXs1_B2_NtB2_4ReprNtNtNtCsieiGu2EXtoJ_4core3ops4drop4Drop4drop0ECsjTXeTLYUiB9_18tracing_attributes, symObjAddr: 0x2E0, symBinAddr: 0x4D3D0, symSize: 0x200 }
  - { offset: 0xC7EE8, size: 0x8, addend: 0x0, symName: __RNvNtNtNtCsHUR1vrdMJt_3std2io5error14repr_bitpacked14kind_from_primCsjTXeTLYUiB9_18tracing_attributes, symObjAddr: 0x2370, symBinAddr: 0x4F460, symSize: 0x5B0 }
  - { offset: 0xC8925, size: 0x8, addend: 0x0, symName: __RNCNkNvNvMNtNtCsHUR1vrdMJt_3std4hash6randomNtB8_11RandomState3new4KEYS0s_0CsjTXeTLYUiB9_18tracing_attributes, symObjAddr: 0x1E50, symBinAddr: 0x4EF40, symSize: 0x30 }
  - { offset: 0xC8963, size: 0x8, addend: 0x0, symName: __RNvNvNvMNtNtCsHUR1vrdMJt_3std4hash6randomNtB6_11RandomState3new4KEYS6___initCsjTXeTLYUiB9_18tracing_attributes, symObjAddr: 0x2920, symBinAddr: 0x4FA10, symSize: 0x20 }
  - { offset: 0xC8981, size: 0x8, addend: 0x0, symName: __RNCNvMNtNtCsHUR1vrdMJt_3std4hash6randomNtB4_11RandomState3new0CsjTXeTLYUiB9_18tracing_attributes, symObjAddr: 0x1E80, symBinAddr: 0x4EF70, symSize: 0x20 }
  - { offset: 0xC8A46, size: 0x8, addend: 0x0, symName: __RNvXs2_NtNtCsHUR1vrdMJt_3std4hash6randomNtB5_13DefaultHasherNtNtCsieiGu2EXtoJ_4core4hash6Hasher6finishCsjTXeTLYUiB9_18tracing_attributes, symObjAddr: 0x37B0, symBinAddr: 0x508A0, symSize: 0x20 }
  - { offset: 0xC8A8F, size: 0x8, addend: 0x0, symName: __RNvXs2_NtNtCsHUR1vrdMJt_3std4hash6randomNtB5_13DefaultHasherNtNtCsieiGu2EXtoJ_4core4hash6Hasher9write_strCsjTXeTLYUiB9_18tracing_attributes, symObjAddr: 0x37D0, symBinAddr: 0x508C0, symSize: 0x30 }
  - { offset: 0xC8B20, size: 0x8, addend: 0x0, symName: __RNvXs3_NtNtCsHUR1vrdMJt_3std4hash6randomNtB5_11RandomStateNtNtCsieiGu2EXtoJ_4core7default7Default7defaultCsjTXeTLYUiB9_18tracing_attributes, symObjAddr: 0x3800, symBinAddr: 0x508F0, symSize: 0x20 }
  - { offset: 0xC8B58, size: 0x8, addend: 0x0, symName: __RNvXs5_NtNtCsHUR1vrdMJt_3std4hash6randomNtB5_11RandomStateNtNtCsieiGu2EXtoJ_4core5clone5Clone5cloneCsjTXeTLYUiB9_18tracing_attributes, symObjAddr: 0x3820, symBinAddr: 0x50910, symSize: 0x20 }
  - { offset: 0xC8B8A, size: 0x8, addend: 0x0, symName: __RNvXs_NtNtCsHUR1vrdMJt_3std4hash6randomNtB4_11RandomStateNtNtCsieiGu2EXtoJ_4core4hash11BuildHasher12build_hasherCsjTXeTLYUiB9_18tracing_attributes, symObjAddr: 0x3F60, symBinAddr: 0x51050, symSize: 0xF0 }
  - { offset: 0xC910D, size: 0x8, addend: 0x0, symName: __RNCINvNtNtCscKtU6MdFI5n_10proc_macro6bridge6client10run_clientTNtB4_11TokenStreamBZ_EINtNtCsieiGu2EXtoJ_4core6option6OptionBZ_ENCNCINvMs7_B4_INtB4_6ClientTNtB8_11TokenStreamB2t_EB2t_E7expand2NvCsjTXeTLYUiB9_18tracing_attributes10instrumentE00E0B35_, symObjAddr: 0x11F0, symBinAddr: 0x4E2E0, symSize: 0x450 }
  - { offset: 0xC9333, size: 0x8, addend: 0x0, symName: __RNCNCINvNtNtCscKtU6MdFI5n_10proc_macro6bridge6client10run_clientTNtB6_11TokenStreamB11_EINtNtCsieiGu2EXtoJ_4core6option6OptionB11_ENCNCINvMs7_B6_INtB6_6ClientTNtBa_11TokenStreamB2x_EB2x_E7expand2NvCsjTXeTLYUiB9_18tracing_attributes10instrumentE00E00B39_, symObjAddr: 0x1E10, symBinAddr: 0x4EF00, symSize: 0x20 }
  - { offset: 0xC93D1, size: 0x8, addend: 0x0, symName: __RNCNCINvMs7_NtNtCscKtU6MdFI5n_10proc_macro6bridge6clientINtBa_6ClientTNtBe_11TokenStreamB16_EB16_E7expand2NvCsjTXeTLYUiB9_18tracing_attributes10instrumentE00B1I_, symObjAddr: 0x1DE0, symBinAddr: 0x4EED0, symSize: 0x30 }
  - { offset: 0xC9444, size: 0x8, addend: 0x0, symName: __RNCINvMs7_NtNtCscKtU6MdFI5n_10proc_macro6bridge6clientINtB8_6ClientTNtBc_11TokenStreamB14_EB14_E7expand2NvCsjTXeTLYUiB9_18tracing_attributes10instrumentE0B1G_, symObjAddr: 0x11C0, symBinAddr: 0x4E2B0, symSize: 0x30 }
  - { offset: 0xC94B0, size: 0x8, addend: 0x0, symName: __RINvNtNtCscKtU6MdFI5n_10proc_macro6bridge6client10run_clientTNtB2_11TokenStreamBX_EINtNtCsieiGu2EXtoJ_4core6option6OptionBX_ENCNCINvMs7_B2_INtB2_6ClientTNtB6_11TokenStreamB2r_EB2r_E7expand2NvCsjTXeTLYUiB9_18tracing_attributes10instrumentE00EB33_, symObjAddr: 0x0, symBinAddr: 0x4D0F0, symSize: 0x2E0 }
  - { offset: 0xC96ED, size: 0x8, addend: 0x0, symName: __RINvNtNtNtCscKtU6MdFI5n_10proc_macro6bridge6client5state3setINtNtCsieiGu2EXtoJ_4core6option6OptionNtB4_11TokenStreamENCNCINvB4_10run_clientTB1y_B1y_EBW_NCNCINvMs7_B4_INtB4_6ClientTNtB8_11TokenStreamB2S_EB2S_E7expand2NvCsjTXeTLYUiB9_18tracing_attributes10instrumentE00E00EB3u_, symObjAddr: 0x4E0, symBinAddr: 0x4D5D0, symSize: 0xD0 }
  - { offset: 0xC97CE, size: 0x8, addend: 0x0, symName: __RNCNkNvNtNtNtCscKtU6MdFI5n_10proc_macro6bridge6client5state12BRIDGE_STATE0s_0CsjTXeTLYUiB9_18tracing_attributes, symObjAddr: 0x1E30, symBinAddr: 0x4EF20, symSize: 0x20 }
  - { offset: 0xC982A, size: 0x8, addend: 0x0, symName: __RNvXsf_NtNtCscKtU6MdFI5n_10proc_macro6bridge6clientNtB5_11TokenStreamINtNtB7_3rpc6EncodeuE6encodeCsjTXeTLYUiB9_18tracing_attributes, symObjAddr: 0x40E0, symBinAddr: 0x511D0, symSize: 0x40 }
  - { offset: 0xC993B, size: 0x8, addend: 0x0, symName: __RNvXsi_NtNtCscKtU6MdFI5n_10proc_macro6bridge6clientNtB5_11TokenStreamINtNtB7_3rpc9DecodeMutuE6decodeCsjTXeTLYUiB9_18tracing_attributes, symObjAddr: 0x4120, symBinAddr: 0x51210, symSize: 0x20 }
  - { offset: 0xC9984, size: 0x8, addend: 0x0, symName: __RNvXsk_NtNtCscKtU6MdFI5n_10proc_macro6bridge6clientNtB5_4SpanINtNtB7_3rpc9DecodeMutuE6decodeCsjTXeTLYUiB9_18tracing_attributes, symObjAddr: 0x4140, symBinAddr: 0x51230, symSize: 0x20 }
  - { offset: 0xC9B5E, size: 0x8, addend: 0x0, symName: __RNvXs9_NtNtCscKtU6MdFI5n_10proc_macro6bridge3rpcTNtNtB7_6client11TokenStreamBL_EINtB5_9DecodeMutuE6decodeCsjTXeTLYUiB9_18tracing_attributes, symObjAddr: 0x3840, symBinAddr: 0x50930, symSize: 0x70 }
  - { offset: 0xCF4E1, size: 0x8, addend: 0x0, symName: __RINvNtNtNtCsieiGu2EXtoJ_4core4iter7sources4once4onceTNtCsaKzlTDPUHDb_11proc_macro25IdentNtNtCsjTXeTLYUiB9_18tracing_attributes6expand10RecordTypeEEB1s_, symObjAddr: 0x5B0, symBinAddr: 0x4D6A0, symSize: 0x90 }
  - { offset: 0xCF52F, size: 0x8, addend: 0x0, symName: __RNvXNtNtNtCsieiGu2EXtoJ_4core4iter7sources4onceINtB2_4OnceTNtCsaKzlTDPUHDb_11proc_macro25IdentNtNtCsjTXeTLYUiB9_18tracing_attributes6expand10RecordTypeEENtNtNtB6_6traits8iterator8Iterator4nextB1y_, symObjAddr: 0x2A90, symBinAddr: 0x4FB80, symSize: 0x50 }
  - { offset: 0xCF5BA, size: 0x8, addend: 0x0, symName: __RNvXNtNtNtCsieiGu2EXtoJ_4core4iter7sources4onceINtB2_4OnceTNtCsaKzlTDPUHDb_11proc_macro25IdentNtNtCsjTXeTLYUiB9_18tracing_attributes6expand10RecordTypeEENtNtNtB6_6traits8iterator8Iterator9size_hintB1y_, symObjAddr: 0x2AE0, symBinAddr: 0x4FBD0, symSize: 0x30 }
  - { offset: 0xCF72C, size: 0x8, addend: 0x0, symName: __RNCINvNtNtNtCsieiGu2EXtoJ_4core4iter8adapters3map12map_try_foldNtNtCsdGrGZaRBwMb_3syn3pat3PatINtNtCslJiobkLta79_5alloc5boxed3BoxDNtNtNtB8_6traits8iterator8Iteratorp4ItemTNtCsaKzlTDPUHDb_11proc_macro25IdentNtNtCsjTXeTLYUiB9_18tracing_attributes6expand10RecordTypeEEL_EjINtNtNtBa_3ops12control_flow11ControlFlowujENCNvB3j_11param_namess0_0NCINvNvMsg_NtB6_7flattenINtB5A_13FlattenCompatppE13iter_try_fold7flattenB1t_jB4i_INvNvXsi_B5A_B5N_B23_10advance_by7advanceB1t_EE0E0B3l_, symObjAddr: 0x1640, symBinAddr: 0x4E730, symSize: 0x120 }
