---
triple:          'x86_64-apple-darwin'
binary-path:     '/Users/kema/git/rust-serv/target/debug/deps/libwiggle_macro-4f5a1786ac1a72c8.dylib'
relocations:
  - { offset: 0x1E, size: 0x8, addend: 0x0, symName: __RINvCsdGrGZaRBwMb_3syn5parseNtNtB2_5parse7NothingECsd13wb5Vf9Kd_12wiggle_macro, symObjAddr: 0x0, symBinAddr: 0xC00, symSize: 0x30 }
  - { offset: 0xE14, size: 0x8, addend: 0x0, symName: __RINvNtCsieiGu2EXtoJ_4core3ptr13drop_in_placeINtNtB4_4cell10UnsafeCellNtNtNtCscKtU6MdFI5n_10proc_macro6bridge6client6BridgeEECsd13wb5Vf9Kd_12wiggle_macro, symObjAddr: 0xFC0, symBinAddr: 0x1B80, symSize: 0x20 }
  - { offset: 0xE43, size: 0x8, addend: 0x0, symName: __RINvNtCsieiGu2EXtoJ_4core3ptr13drop_in_placeINtNtB4_4cell7RefCellNtNtNtCscKtU6MdFI5n_10proc_macro6bridge6client6BridgeEECsd13wb5Vf9Kd_12wiggle_macro, symObjAddr: 0xFE0, symBinAddr: 0x1BA0, symSize: 0x20 }
  - { offset: 0xE72, size: 0x8, addend: 0x0, symName: __RINvNtCsieiGu2EXtoJ_4core3ptr13drop_in_placeINtNtB4_6option6OptionINtNtCslJiobkLta79_5alloc5boxed3BoxSmEEECsd13wb5Vf9Kd_12wiggle_macro, symObjAddr: 0x1000, symBinAddr: 0x1BC0, symSize: 0x40 }
  - { offset: 0xEA1, size: 0x8, addend: 0x0, symName: __RINvNtCsieiGu2EXtoJ_4core3ptr13drop_in_placeINtNtB4_6option6OptionNtNtNtCslJiobkLta79_5alloc3ffi5c_str7CStringEECsd13wb5Vf9Kd_12wiggle_macro, symObjAddr: 0x1040, symBinAddr: 0x1C00, symSize: 0x40 }
  - { offset: 0xED0, size: 0x8, addend: 0x0, symName: __RINvNtCsieiGu2EXtoJ_4core3ptr13drop_in_placeINtNtB4_6option6OptionNtNtNtNtNtCsHUR1vrdMJt_3std3sys7process4unix6common5StdioEECsd13wb5Vf9Kd_12wiggle_macro, symObjAddr: 0x1080, symBinAddr: 0x1C40, symSize: 0x40 }
  - { offset: 0xEFF, size: 0x8, addend: 0x0, symName: __RINvNtCsieiGu2EXtoJ_4core3ptr13drop_in_placeINtNtB4_6result6ResultNtNtCsHUR1vrdMJt_3std7process6OutputNtNtNtB16_2io5error5ErrorEECsd13wb5Vf9Kd_12wiggle_macro, symObjAddr: 0x10C0, symBinAddr: 0x1C80, symSize: 0x50 }
  - { offset: 0xF2E, size: 0x8, addend: 0x0, symName: __RINvNtCsieiGu2EXtoJ_4core3ptr13drop_in_placeINtNtCslJiobkLta79_5alloc3vec3VecINtNtBL_5boxed3BoxDINtNtNtB4_3ops8function5FnMutuEp6OutputINtNtB4_6result6ResultuNtNtNtCsHUR1vrdMJt_3std2io5error5ErrorENtNtB4_6marker4SyncNtB3b_4SendEL_EEECsd13wb5Vf9Kd_12wiggle_macro, symObjAddr: 0x1110, symBinAddr: 0x1CD0, symSize: 0x50 }
  - { offset: 0xF5D, size: 0x8, addend: 0x0, symName: __RINvNtCsieiGu2EXtoJ_4core3ptr13drop_in_placeINtNtCslJiobkLta79_5alloc3vec3VecPaEECsd13wb5Vf9Kd_12wiggle_macro, symObjAddr: 0x1160, symBinAddr: 0x1D20, symSize: 0x50 }
  - { offset: 0xF8C, size: 0x8, addend: 0x0, symName: __RINvNtCsieiGu2EXtoJ_4core3ptr13drop_in_placeINtNtCslJiobkLta79_5alloc5boxed3BoxDINtNtNtB4_3ops8function5FnMutuEp6OutputINtNtB4_6result6ResultuNtNtNtCsHUR1vrdMJt_3std2io5error5ErrorENtNtB4_6marker4SyncNtB2V_4SendEL_EECsd13wb5Vf9Kd_12wiggle_macro, symObjAddr: 0x11B0, symBinAddr: 0x1D70, symSize: 0x70 }
  - { offset: 0xFBB, size: 0x8, addend: 0x0, symName: __RINvNtCsieiGu2EXtoJ_4core3ptr13drop_in_placeINtNtCslJiobkLta79_5alloc5boxed3BoxSmEECsd13wb5Vf9Kd_12wiggle_macro, symObjAddr: 0x1220, symBinAddr: 0x1DE0, symSize: 0x20 }
  - { offset: 0xFEA, size: 0x8, addend: 0x0, symName: __RINvNtCsieiGu2EXtoJ_4core3ptr13drop_in_placeINtNtCslJiobkLta79_5alloc7raw_vec6RawVecINtNtBL_5boxed3BoxDINtNtNtB4_3ops8function5FnMutuEp6OutputINtNtB4_6result6ResultuNtNtNtCsHUR1vrdMJt_3std2io5error5ErrorENtNtB4_6marker4SyncNtB3i_4SendEL_EEECsd13wb5Vf9Kd_12wiggle_macro, symObjAddr: 0x1240, symBinAddr: 0x1E00, symSize: 0x20 }
  - { offset: 0x1019, size: 0x8, addend: 0x0, symName: __RINvNtCsieiGu2EXtoJ_4core3ptr13drop_in_placeINtNtCslJiobkLta79_5alloc7raw_vec6RawVecPaEECsd13wb5Vf9Kd_12wiggle_macro, symObjAddr: 0x1260, symBinAddr: 0x1E20, symSize: 0x20 }
  - { offset: 0x1048, size: 0x8, addend: 0x0, symName: __RINvNtCsieiGu2EXtoJ_4core3ptr13drop_in_placeINtNtNtNtCslJiobkLta79_5alloc11collections5btree3map8BTreeMapNtNtNtCsHUR1vrdMJt_3std3ffi6os_str8OsStringINtNtB4_6option6OptionB1F_EEECsd13wb5Vf9Kd_12wiggle_macro, symObjAddr: 0x1280, symBinAddr: 0x1E40, symSize: 0x20 }
  - { offset: 0x1077, size: 0x8, addend: 0x0, symName: __RINvNtCsieiGu2EXtoJ_4core3ptr13drop_in_placeINtNtNtNtCslJiobkLta79_5alloc11collections5btree3map8IntoIterNtNtNtCsHUR1vrdMJt_3std3ffi6os_str8OsStringINtNtB4_6option6OptionB1F_EEECsd13wb5Vf9Kd_12wiggle_macro, symObjAddr: 0x12A0, symBinAddr: 0x1E60, symSize: 0x20 }
  - { offset: 0x10A6, size: 0x8, addend: 0x0, symName: __RINvNtCsieiGu2EXtoJ_4core3ptr13drop_in_placeINtNvMsT_NtNtNtCslJiobkLta79_5alloc11collections5btree4nodeINtBP_6HandleINtBP_7NodeRefNtNtBP_6marker5DyingpppENtB26_2KVE12drop_key_val7DropperINtNtB4_6option6OptionNtNtNtCsHUR1vrdMJt_3std3ffi6os_str8OsStringEEECsd13wb5Vf9Kd_12wiggle_macro, symObjAddr: 0x12C0, symBinAddr: 0x1E80, symSize: 0x20 }
  - { offset: 0x10D5, size: 0x8, addend: 0x0, symName: __RINvNtCsieiGu2EXtoJ_4core3ptr13drop_in_placeINtNvXsw_NtNtNtCslJiobkLta79_5alloc11collections5btree3mapINtBP_8IntoIterpppENtNtNtB4_3ops4drop4Drop4drop9DropGuardNtNtNtCsHUR1vrdMJt_3std3ffi6os_str8OsStringINtNtB4_6option6OptionB2x_ENtNtBV_5alloc6GlobalEECsd13wb5Vf9Kd_12wiggle_macro, symObjAddr: 0x12E0, symBinAddr: 0x1EA0, symSize: 0x20 }
  - { offset: 0x1104, size: 0x8, addend: 0x0, symName: __RINvNtCsieiGu2EXtoJ_4core3ptr13drop_in_placeNCNCINvNtNtCscKtU6MdFI5n_10proc_macro6bridge6client10run_clientNtBN_11TokenStreamINtNtB4_6option6OptionB1H_ENCNCINvMs6_BN_INtBN_6ClientNtBR_11TokenStreamB2R_E7expand1NvCsd13wb5Vf9Kd_12wiggle_macro20wasmtime_integrationE00E00EB3o_, symObjAddr: 0x1300, symBinAddr: 0x1EC0, symSize: 0x20 }
  - { offset: 0x1133, size: 0x8, addend: 0x0, symName: __RINvNtCsieiGu2EXtoJ_4core3ptr13drop_in_placeNCNCINvNtNtCscKtU6MdFI5n_10proc_macro6bridge6client10run_clientNtBN_11TokenStreamINtNtB4_6option6OptionB1H_ENCNCINvMs6_BN_INtBN_6ClientNtBR_11TokenStreamB2R_E7expand1NvCsd13wb5Vf9Kd_12wiggle_macro9from_witxE00E00EB3o_, symObjAddr: 0x1320, symBinAddr: 0x1EE0, symSize: 0x20 }
  - { offset: 0x1162, size: 0x8, addend: 0x0, symName: __RINvNtCsieiGu2EXtoJ_4core3ptr13drop_in_placeNCNCINvNtNtCscKtU6MdFI5n_10proc_macro6bridge6client10run_clientTNtBN_11TokenStreamB1I_EINtNtB4_6option6OptionB1I_ENCNCINvMs7_BN_INtBN_6ClientTNtBR_11TokenStreamB2Y_EB2Y_E7expand2NvCsd13wb5Vf9Kd_12wiggle_macro11async_traitE00E00EB3A_, symObjAddr: 0x1340, symBinAddr: 0x1F00, symSize: 0x20 }
  - { offset: 0x1191, size: 0x8, addend: 0x0, symName: __RINvNtCsieiGu2EXtoJ_4core3ptr13drop_in_placeNtNtCs8QreBtO1sIU_4witx3ast8DocumentECsd13wb5Vf9Kd_12wiggle_macro, symObjAddr: 0x1360, symBinAddr: 0x1F20, symSize: 0x60 }
  - { offset: 0x11C0, size: 0x8, addend: 0x0, symName: __RINvNtCsieiGu2EXtoJ_4core3ptr13drop_in_placeNtNtCsHUR1vrdMJt_3std7process6OutputECsd13wb5Vf9Kd_12wiggle_macro, symObjAddr: 0x13C0, symBinAddr: 0x1F80, symSize: 0x60 }
  - { offset: 0x11EF, size: 0x8, addend: 0x0, symName: __RINvNtCsieiGu2EXtoJ_4core3ptr13drop_in_placeNtNtCsHUR1vrdMJt_3std7process7CommandECsd13wb5Vf9Kd_12wiggle_macro, symObjAddr: 0x1420, symBinAddr: 0x1FE0, symSize: 0x20 }
  - { offset: 0x121E, size: 0x8, addend: 0x0, symName: __RINvNtCsieiGu2EXtoJ_4core3ptr13drop_in_placeNtNtCsfMaSMcsiNJc_15wiggle_generate16codegen_settings15CodegenSettingsECsd13wb5Vf9Kd_12wiggle_macro, symObjAddr: 0x1440, symBinAddr: 0x2000, symSize: 0x90 }
  - { offset: 0x124D, size: 0x8, addend: 0x0, symName: __RINvNtCsieiGu2EXtoJ_4core3ptr13drop_in_placeNtNtCsfMaSMcsiNJc_15wiggle_generate6config14WasmtimeConfigECsd13wb5Vf9Kd_12wiggle_macro, symObjAddr: 0x14D0, symBinAddr: 0x2090, symSize: 0x60 }
  - { offset: 0x127C, size: 0x8, addend: 0x0, symName: __RINvNtCsieiGu2EXtoJ_4core3ptr13drop_in_placeNtNtNtCscKtU6MdFI5n_10proc_macro6bridge3rpc12PanicMessageECsd13wb5Vf9Kd_12wiggle_macro, symObjAddr: 0x1530, symBinAddr: 0x20F0, symSize: 0x50 }
  - { offset: 0x12AB, size: 0x8, addend: 0x0, symName: __RINvNtCsieiGu2EXtoJ_4core3ptr13drop_in_placeNtNtNtCscKtU6MdFI5n_10proc_macro6bridge6buffer6BufferECsd13wb5Vf9Kd_12wiggle_macro, symObjAddr: 0x1580, symBinAddr: 0x2140, symSize: 0x20 }
  - { offset: 0x12DA, size: 0x8, addend: 0x0, symName: __RINvNtCsieiGu2EXtoJ_4core3ptr13drop_in_placeNtNtNtCscKtU6MdFI5n_10proc_macro6bridge6client6BridgeECsd13wb5Vf9Kd_12wiggle_macro, symObjAddr: 0x15A0, symBinAddr: 0x2160, symSize: 0x20 }
  - { offset: 0x1309, size: 0x8, addend: 0x0, symName: __RINvNtCsieiGu2EXtoJ_4core3ptr13drop_in_placeNtNtNtNtCsHUR1vrdMJt_3std3sys7process3env10CommandEnvECsd13wb5Vf9Kd_12wiggle_macro, symObjAddr: 0x15C0, symBinAddr: 0x2180, symSize: 0x20 }
  - { offset: 0x1338, size: 0x8, addend: 0x0, symName: __RINvNtCsieiGu2EXtoJ_4core3ptr13drop_in_placeNtNtNtNtNtCsHUR1vrdMJt_3std3sys7process4unix6common5StdioECsd13wb5Vf9Kd_12wiggle_macro, symObjAddr: 0x15E0, symBinAddr: 0x21A0, symSize: 0x30 }
  - { offset: 0x1367, size: 0x8, addend: 0x0, symName: __RINvNtCsieiGu2EXtoJ_4core3ptr13drop_in_placeNtNtNtNtNtCsHUR1vrdMJt_3std3sys7process4unix6common7CommandECsd13wb5Vf9Kd_12wiggle_macro, symObjAddr: 0x1610, symBinAddr: 0x21D0, symSize: 0x1D0 }
  - { offset: 0x1396, size: 0x8, addend: 0x0, symName: __RINvNtCsieiGu2EXtoJ_4core3ptr13drop_in_placeNtNtNtNtNtNtCsHUR1vrdMJt_3std3sys7process4unix6common13cstring_array12CStringArrayECsd13wb5Vf9Kd_12wiggle_macro, symObjAddr: 0x17E0, symBinAddr: 0x23A0, symSize: 0x50 }
  - { offset: 0x13C5, size: 0x8, addend: 0x0, symName: __RINvNtCsieiGu2EXtoJ_4core3ptr13drop_in_placeNtNvNtNtNtCscKtU6MdFI5n_10proc_macro6bridge6client5state3set13RestoreOnDropECsd13wb5Vf9Kd_12wiggle_macro, symObjAddr: 0x1830, symBinAddr: 0x23F0, symSize: 0x20 }
  - { offset: 0x13F4, size: 0x8, addend: 0x0, symName: __RINvNtCsieiGu2EXtoJ_4core3ptr13drop_in_placeNtNvNtNtNtCslJiobkLta79_5alloc11collections5btree3mem7replace10PanicGuardECsd13wb5Vf9Kd_12wiggle_macro, symObjAddr: 0x1850, symBinAddr: 0x2410, symSize: 0x20 }
  - { offset: 0x1423, size: 0x8, addend: 0x0, symName: __RINvNtCsieiGu2EXtoJ_4core3ptr13drop_in_placeSINtNtCslJiobkLta79_5alloc5boxed3BoxDINtNtNtB4_3ops8function5FnMutuEp6OutputINtNtB4_6result6ResultuNtNtNtCsHUR1vrdMJt_3std2io5error5ErrorENtNtB4_6marker4SyncNtB2W_4SendEL_EECsd13wb5Vf9Kd_12wiggle_macro, symObjAddr: 0x1870, symBinAddr: 0x2430, symSize: 0xA0 }
  - { offset: 0x1452, size: 0x8, addend: 0x0, symName: __RINvNtCsieiGu2EXtoJ_4core3ptr13drop_in_placeTNtNtNtCscKtU6MdFI5n_10proc_macro6bridge6client11TokenStreamBH_EECsd13wb5Vf9Kd_12wiggle_macro, symObjAddr: 0x1910, symBinAddr: 0x24D0, symSize: 0x60 }
  - { offset: 0x170D, size: 0x8, addend: 0x0, symName: __RNvNvNtCsieiGu2EXtoJ_4core3ptr19copy_nonoverlapping18precondition_checkCsd13wb5Vf9Kd_12wiggle_macro, symObjAddr: 0x6120, symBinAddr: 0x6CD0, symSize: 0x4B0 }
  - { offset: 0x5613, size: 0x8, addend: 0x0, symName: __RINvNtCsieiGu2EXtoJ_4core3mem4dropINtNtB4_6result6ResultNtNtCsHUR1vrdMJt_3std7process6OutputNtNtNtBW_2io5error5ErrorEECsd13wb5Vf9Kd_12wiggle_macro, symObjAddr: 0xF70, symBinAddr: 0x1B70, symSize: 0x10 }
  - { offset: 0x5A16, size: 0x8, addend: 0x0, symName: __RNvXsq_NtCsieiGu2EXtoJ_4core6resultINtB5_6ResultNtNtCsdGrGZaRBwMb_3syn5parse7NothingNtNtBO_5error5ErrorEINtNtNtB7_3ops9try_trait12FromResidualIBy_NtNtB7_7convert10InfallibleB1k_EE13from_residualCsd13wb5Vf9Kd_12wiggle_macro, symObjAddr: 0x8810, symBinAddr: 0x93C0, symSize: 0x50 }
  - { offset: 0x5BE2, size: 0x8, addend: 0x0, symName: __RNvXsp_NtCsieiGu2EXtoJ_4core6resultINtB5_6ResultNtNtCsdGrGZaRBwMb_3syn5parse7NothingNtNtBO_5error5ErrorENtNtNtB7_3ops9try_trait3Try6branchCsd13wb5Vf9Kd_12wiggle_macro, symObjAddr: 0x8770, symBinAddr: 0x9320, symSize: 0xA0 }
  - { offset: 0x65E1, size: 0x8, addend: 0x0, symName: __RNvXNtCsieiGu2EXtoJ_4core7convertRNtNtCsHUR1vrdMJt_3std4path7PathBufINtB2_5AsRefNtBy_4PathE6as_refCsd13wb5Vf9Kd_12wiggle_macro, symObjAddr: 0x6AB0, symBinAddr: 0x7660, symSize: 0x20 }
  - { offset: 0x6621, size: 0x8, addend: 0x0, symName: __RNvXNtCsieiGu2EXtoJ_4core7convertRNtNtCsHUR1vrdMJt_3std4path7PathBufINtB2_5AsRefNtNtNtBA_3ffi6os_str5OsStrE6as_refCsd13wb5Vf9Kd_12wiggle_macro, symObjAddr: 0x6AD0, symBinAddr: 0x7680, symSize: 0x20 }
  - { offset: 0x6667, size: 0x8, addend: 0x0, symName: __RNvXs1_NtCsieiGu2EXtoJ_4core7convertNtCsaKzlTDPUHDb_11proc_macro211TokenStreamINtB5_4IntoNtCscKtU6MdFI5n_10proc_macro11TokenStreamE4intoCsd13wb5Vf9Kd_12wiggle_macro, symObjAddr: 0x6D50, symBinAddr: 0x7900, symSize: 0x10 }
  - { offset: 0x68DA, size: 0x8, addend: 0x0, symName: __RNvYNCNkNvNtNtNtCscKtU6MdFI5n_10proc_macro6bridge6client5state12BRIDGE_STATE0s_0INtNtNtCsieiGu2EXtoJ_4core3ops8function6FnOnceTINtNtB1n_6option6OptionQIB22_INtNtB1n_4cell4CellPuEEEEE9call_onceCsd13wb5Vf9Kd_12wiggle_macro, symObjAddr: 0x8D20, symBinAddr: 0x98D0, symSize: 0x40 }
  - { offset: 0x691E, size: 0x8, addend: 0x0, symName: __RNvYNvYNtNtCsdGrGZaRBwMb_3syn5parse7NothingNtB7_5Parse5parseINtNtNtCsieiGu2EXtoJ_4core3ops8function6FnOnceTRNtB7_11ParseBufferEE9call_onceCsd13wb5Vf9Kd_12wiggle_macro, symObjAddr: 0x8DD0, symBinAddr: 0x9980, symSize: 0x30 }
  - { offset: 0x6962, size: 0x8, addend: 0x0, symName: __RNvYNvYNtNtCsfMaSMcsiNJc_15wiggle_generate6config14WasmtimeConfigNtNtCsdGrGZaRBwMb_3syn5parse5Parse5parseINtNtNtCsieiGu2EXtoJ_4core3ops8function6FnOnceTRNtB13_11ParseBufferEE9call_onceCsd13wb5Vf9Kd_12wiggle_macro, symObjAddr: 0x8E70, symBinAddr: 0x9A20, symSize: 0x30 }
  - { offset: 0x69A6, size: 0x8, addend: 0x0, symName: __RNvYNvYNtNtCsfMaSMcsiNJc_15wiggle_generate6config6ConfigNtNtCsdGrGZaRBwMb_3syn5parse5Parse5parseINtNtNtCsieiGu2EXtoJ_4core3ops8function6FnOnceTRNtBU_11ParseBufferEE9call_onceCsd13wb5Vf9Kd_12wiggle_macro, symObjAddr: 0x8F10, symBinAddr: 0x9AC0, symSize: 0x30 }
  - { offset: 0x6A38, size: 0x8, addend: 0x0, symName: __RNvYNvCsd13wb5Vf9Kd_12wiggle_macro11async_traitINtNtNtCsieiGu2EXtoJ_4core3ops8function2FnTNtCscKtU6MdFI5n_10proc_macro11TokenStreamB1q_EE4callB4_, symObjAddr: 0x8D60, symBinAddr: 0x9910, symSize: 0x30 }
  - { offset: 0x6A7C, size: 0x8, addend: 0x0, symName: __RNvYNvCsd13wb5Vf9Kd_12wiggle_macro20wasmtime_integrationINtNtNtCsieiGu2EXtoJ_4core3ops8function2FnTNtCscKtU6MdFI5n_10proc_macro11TokenStreamEE4callB4_, symObjAddr: 0x8D90, symBinAddr: 0x9940, symSize: 0x20 }
  - { offset: 0x6AC0, size: 0x8, addend: 0x0, symName: __RNvYNvCsd13wb5Vf9Kd_12wiggle_macro9from_witxINtNtNtCsieiGu2EXtoJ_4core3ops8function2FnTNtCscKtU6MdFI5n_10proc_macro11TokenStreamEE4callB4_, symObjAddr: 0x8DB0, symBinAddr: 0x9960, symSize: 0x20 }
  - { offset: 0x6C21, size: 0x8, addend: 0x0, symName: __RNvMNtCsieiGu2EXtoJ_4core5sliceSh15copy_from_sliceCsd13wb5Vf9Kd_12wiggle_macro, symObjAddr: 0x4900, symBinAddr: 0x54C0, symSize: 0xA0 }
  - { offset: 0x6EB0, size: 0x8, addend: 0x0, symName: __RNvNvNtNtCsieiGu2EXtoJ_4core5slice3raw14from_raw_parts18precondition_checkCsd13wb5Vf9Kd_12wiggle_macro, symObjAddr: 0x6710, symBinAddr: 0x72C0, symSize: 0x260 }
  - { offset: 0x71A9, size: 0x8, addend: 0x0, symName: __RNvNvXs0_NtNtCsieiGu2EXtoJ_4core5slice5indexjINtB7_10SliceIndexSpE13get_unchecked18precondition_checkCsd13wb5Vf9Kd_12wiggle_macro, symObjAddr: 0x6970, symBinAddr: 0x7520, symSize: 0xA0 }
  - { offset: 0x7217, size: 0x8, addend: 0x0, symName: __RNvNvXs0_NtNtCsieiGu2EXtoJ_4core5slice5indexjINtB7_10SliceIndexSpE17get_unchecked_mut18precondition_checkCsd13wb5Vf9Kd_12wiggle_macro, symObjAddr: 0x6A10, symBinAddr: 0x75C0, symSize: 0xA0 }
  - { offset: 0x7463, size: 0x8, addend: 0x0, symName: __RNvXsn_NtNtCsieiGu2EXtoJ_4core5panic11unwind_safeINtB5_16AssertUnwindSafeNCINvNtNtCscKtU6MdFI5n_10proc_macro6bridge6client10run_clientNtB1e_11TokenStreamINtNtB9_6option6OptionB28_ENCNCINvMs6_B1e_INtB1e_6ClientNtB1i_11TokenStreamB3l_E7expand1NvCsd13wb5Vf9Kd_12wiggle_macro20wasmtime_integrationE00E0EINtNtNtB9_3ops8function6FnOnceuE9call_onceB3T_, symObjAddr: 0x85A0, symBinAddr: 0x9150, symSize: 0x30 }
  - { offset: 0x74BB, size: 0x8, addend: 0x0, symName: __RNvXsn_NtNtCsieiGu2EXtoJ_4core5panic11unwind_safeINtB5_16AssertUnwindSafeNCINvNtNtCscKtU6MdFI5n_10proc_macro6bridge6client10run_clientNtB1e_11TokenStreamINtNtB9_6option6OptionB28_ENCNCINvMs6_B1e_INtB1e_6ClientNtB1i_11TokenStreamB3l_E7expand1NvCsd13wb5Vf9Kd_12wiggle_macro9from_witxE00E0EINtNtNtB9_3ops8function6FnOnceuE9call_onceB3T_, symObjAddr: 0x85D0, symBinAddr: 0x9180, symSize: 0x30 }
  - { offset: 0x7513, size: 0x8, addend: 0x0, symName: __RNvXsn_NtNtCsieiGu2EXtoJ_4core5panic11unwind_safeINtB5_16AssertUnwindSafeNCINvNtNtCscKtU6MdFI5n_10proc_macro6bridge6client10run_clientTNtB1e_11TokenStreamB29_EINtNtB9_6option6OptionB29_ENCNCINvMs7_B1e_INtB1e_6ClientTNtB1i_11TokenStreamB3s_EB3s_E7expand2NvCsd13wb5Vf9Kd_12wiggle_macro11async_traitE00E0EINtNtNtB9_3ops8function6FnOnceuE9call_onceB45_, symObjAddr: 0x8600, symBinAddr: 0x91B0, symSize: 0x30 }
  - { offset: 0x768E, size: 0x8, addend: 0x0, symName: __RNvNvMNtNtCsieiGu2EXtoJ_4core5alloc6layoutNtB4_6Layout25from_size_align_unchecked18precondition_checkCsd13wb5Vf9Kd_12wiggle_macro, symObjAddr: 0x5FD0, symBinAddr: 0x6B80, symSize: 0xB0 }
  - { offset: 0x776D, size: 0x8, addend: 0x0, symName: __RNvXs0_NtNtNtCsieiGu2EXtoJ_4core4iter8adapters3mapINtB5_3MapINtNtB7_10filter_map9FilterMapINtNtNtBb_5slice4iter4IterNtNtCs8QreBtO1sIU_4witx3ast10DefinitionENCNvMs3_B1S_NtB1S_8Document7modules0ENCNvCsd13wb5Vf9Kd_12wiggle_macro20wasmtime_integration0ENtNtNtB9_6traits8iterator8Iterator4nextB39_, symObjAddr: 0x6BE0, symBinAddr: 0x7790, symSize: 0xB0 }
  - { offset: 0x7865, size: 0x8, addend: 0x0, symName: __RINvYINtNtNtNtCsieiGu2EXtoJ_4core4iter8adapters10filter_map9FilterMapINtNtNtBc_5slice4iter4IterNtNtCs8QreBtO1sIU_4witx3ast10DefinitionENCNvMs3_B1x_NtB1x_8Document7modules0ENtNtNtBa_6traits8iterator8Iterator3mapNtCsaKzlTDPUHDb_11proc_macro211TokenStreamNCNvCsd13wb5Vf9Kd_12wiggle_macro20wasmtime_integration0EB46_, symObjAddr: 0x2930, symBinAddr: 0x34F0, symSize: 0x30 }
  - { offset: 0x7913, size: 0x8, addend: 0x0, symName: __RNvNvNtCsieiGu2EXtoJ_4core4hint21unreachable_unchecked18precondition_checkCsd13wb5Vf9Kd_12wiggle_macro, symObjAddr: 0x65D0, symBinAddr: 0x7180, symSize: 0x80 }
  - { offset: 0x79D3, size: 0x8, addend: 0x0, symName: __RNvNtNtCsieiGu2EXtoJ_4core4char7methods25encode_utf8_raw_uncheckedCsd13wb5Vf9Kd_12wiggle_macro, symObjAddr: 0x5E90, symBinAddr: 0x6A40, symSize: 0x140 }
  - { offset: 0x7F22, size: 0x8, addend: 0x0, symName: __RNvNvNtCsieiGu2EXtoJ_4core9ub_checks23maybe_is_nonoverlapping7runtimeCsd13wb5Vf9Kd_12wiggle_macro, symObjAddr: 0x6650, symBinAddr: 0x7200, symSize: 0xC0 }
  - { offset: 0x8B28, size: 0x8, addend: 0x0, symName: __RNvXs15_NtCsHUR1vrdMJt_3std4pathNtB6_7PathBufINtNtCsieiGu2EXtoJ_4core7convert5AsRefNtNtNtB8_3ffi6os_str5OsStrE6as_refCsd13wb5Vf9Kd_12wiggle_macro, symObjAddr: 0x6C90, symBinAddr: 0x7840, symSize: 0x20 }
  - { offset: 0x8B5C, size: 0x8, addend: 0x0, symName: __RNvXs1q_NtCsHUR1vrdMJt_3std4pathNtNtCslJiobkLta79_5alloc6string6StringINtNtCsieiGu2EXtoJ_4core7convert5AsRefNtB6_4PathE6as_refCsd13wb5Vf9Kd_12wiggle_macro, symObjAddr: 0x6DC0, symBinAddr: 0x7970, symSize: 0x20 }
  - { offset: 0x8BCC, size: 0x8, addend: 0x0, symName: __RNvXsH_NtCsHUR1vrdMJt_3std4pathNtB5_7PathBufNtNtNtCsieiGu2EXtoJ_4core3ops5deref5Deref5derefCsd13wb5Vf9Kd_12wiggle_macro, symObjAddr: 0x7270, symBinAddr: 0x7E20, symSize: 0x30 }
  - { offset: 0x8C5A, size: 0x8, addend: 0x0, symName: __RNvXs1r_NtCsHUR1vrdMJt_3std4pathNtB6_7PathBufINtNtCsieiGu2EXtoJ_4core7convert5AsRefNtB6_4PathE6as_refCsd13wb5Vf9Kd_12wiggle_macro, symObjAddr: 0x6DE0, symBinAddr: 0x7990, symSize: 0x30 }
  - { offset: 0x8DD5, size: 0x8, addend: 0x0, symName: __RNvXs3_NtNtCsHUR1vrdMJt_3std3ffi6os_strNtB5_8OsStringINtNtNtCsieiGu2EXtoJ_4core3ops5index5IndexNtNtBU_5range9RangeFullE5indexCsd13wb5Vf9Kd_12wiggle_macro, symObjAddr: 0x6E10, symBinAddr: 0x79C0, symSize: 0x60 }
  - { offset: 0x8EE4, size: 0x8, addend: 0x0, symName: __RNvXsX_NtNtCsHUR1vrdMJt_3std3ffi6os_strNtNtCslJiobkLta79_5alloc6string6StringINtNtCsieiGu2EXtoJ_4core7convert5AsRefNtB5_5OsStrE6as_refCsd13wb5Vf9Kd_12wiggle_macro, symObjAddr: 0x7670, symBinAddr: 0x8220, symSize: 0x70 }
  - { offset: 0x912A, size: 0x8, addend: 0x0, symName: __RNCNvMs3_NtNtCsHUR1vrdMJt_3std6thread5localINtB7_8LocalKeyINtNtCsieiGu2EXtoJ_4core4cell4CellPuEE7replace0Csd13wb5Vf9Kd_12wiggle_macro, symObjAddr: 0x3860, symBinAddr: 0x4420, symSize: 0x20 }
  - { offset: 0x92D6, size: 0x8, addend: 0x0, symName: __RINvNtCsHUR1vrdMJt_3std2fs5writeRNtNtB4_4path7PathBufNtNtCslJiobkLta79_5alloc6string6StringECsd13wb5Vf9Kd_12wiggle_macro, symObjAddr: 0xEC0, symBinAddr: 0x1AC0, symSize: 0xB0 }
  - { offset: 0x9430, size: 0x8, addend: 0x0, symName: __RINvNvNtCsHUR1vrdMJt_3std9panicking12catch_unwind7do_callINtNtNtCsieiGu2EXtoJ_4core5panic11unwind_safe16AssertUnwindSafeNCINvNtNtCscKtU6MdFI5n_10proc_macro6bridge6client10run_clientNtB1Z_11TokenStreamINtNtB10_6option6OptionB2T_ENCNCINvMs6_B1Z_INtB1Z_6ClientNtB23_11TokenStreamB47_E7expand1NvCsd13wb5Vf9Kd_12wiggle_macro20wasmtime_integrationE00E0EuEB4F_, symObjAddr: 0x2570, symBinAddr: 0x3130, symSize: 0x40 }
  - { offset: 0x94F9, size: 0x8, addend: 0x0, symName: __RINvNvNtCsHUR1vrdMJt_3std9panicking12catch_unwind7do_callINtNtNtCsieiGu2EXtoJ_4core5panic11unwind_safe16AssertUnwindSafeNCINvNtNtCscKtU6MdFI5n_10proc_macro6bridge6client10run_clientNtB1Z_11TokenStreamINtNtB10_6option6OptionB2T_ENCNCINvMs6_B1Z_INtB1Z_6ClientNtB23_11TokenStreamB47_E7expand1NvCsd13wb5Vf9Kd_12wiggle_macro9from_witxE00E0EuEB4F_, symObjAddr: 0x25B0, symBinAddr: 0x3170, symSize: 0x40 }
  - { offset: 0x95C2, size: 0x8, addend: 0x0, symName: __RINvNvNtCsHUR1vrdMJt_3std9panicking12catch_unwind7do_callINtNtNtCsieiGu2EXtoJ_4core5panic11unwind_safe16AssertUnwindSafeNCINvNtNtCscKtU6MdFI5n_10proc_macro6bridge6client10run_clientTNtB1Z_11TokenStreamB2U_EINtNtB10_6option6OptionB2U_ENCNCINvMs7_B1Z_INtB1Z_6ClientTNtB23_11TokenStreamB4e_EB4e_E7expand2NvCsd13wb5Vf9Kd_12wiggle_macro11async_traitE00E0EuEB4R_, symObjAddr: 0x25F0, symBinAddr: 0x31B0, symSize: 0x40 }
  - { offset: 0x968B, size: 0x8, addend: 0x0, symName: __RINvNvNtCsHUR1vrdMJt_3std9panicking12catch_unwind8do_catchINtNtNtCsieiGu2EXtoJ_4core5panic11unwind_safe16AssertUnwindSafeNCINvNtNtCscKtU6MdFI5n_10proc_macro6bridge6client10run_clientNtB20_11TokenStreamINtNtB11_6option6OptionB2U_ENCNCINvMs6_B20_INtB20_6ClientNtB24_11TokenStreamB48_E7expand1NvCsd13wb5Vf9Kd_12wiggle_macro20wasmtime_integrationE00E0EuEB4G_, symObjAddr: 0x2630, symBinAddr: 0x31F0, symSize: 0x60 }
  - { offset: 0x9720, size: 0x8, addend: 0x0, symName: __RINvNvNtCsHUR1vrdMJt_3std9panicking12catch_unwind8do_catchINtNtNtCsieiGu2EXtoJ_4core5panic11unwind_safe16AssertUnwindSafeNCINvNtNtCscKtU6MdFI5n_10proc_macro6bridge6client10run_clientNtB20_11TokenStreamINtNtB11_6option6OptionB2U_ENCNCINvMs6_B20_INtB20_6ClientNtB24_11TokenStreamB48_E7expand1NvCsd13wb5Vf9Kd_12wiggle_macro9from_witxE00E0EuEB4G_, symObjAddr: 0x2690, symBinAddr: 0x3250, symSize: 0x60 }
  - { offset: 0x97B5, size: 0x8, addend: 0x0, symName: __RINvNvNtCsHUR1vrdMJt_3std9panicking12catch_unwind8do_catchINtNtNtCsieiGu2EXtoJ_4core5panic11unwind_safe16AssertUnwindSafeNCINvNtNtCscKtU6MdFI5n_10proc_macro6bridge6client10run_clientTNtB20_11TokenStreamB2V_EINtNtB11_6option6OptionB2V_ENCNCINvMs7_B20_INtB20_6ClientTNtB24_11TokenStreamB4f_EB4f_E7expand2NvCsd13wb5Vf9Kd_12wiggle_macro11async_traitE00E0EuEB4S_, symObjAddr: 0x26F0, symBinAddr: 0x32B0, symSize: 0x60 }
  - { offset: 0xA43B, size: 0x8, addend: 0x0, symName: __RNvNvMs_NtCslJiobkLta79_5alloc3vecINtB6_3VecppE7set_len18precondition_checkCsd13wb5Vf9Kd_12wiggle_macro, symObjAddr: 0x6080, symBinAddr: 0x6C30, symSize: 0xA0 }
  - { offset: 0xA4AA, size: 0x8, addend: 0x0, symName: __RNvXsn_NtCslJiobkLta79_5alloc3vecINtB5_3VecINtNtB7_5boxed3BoxDINtNtNtCsieiGu2EXtoJ_4core3ops8function5FnMutuEp6OutputINtNtB15_6result6ResultuNtNtNtCsHUR1vrdMJt_3std2io5error5ErrorENtNtB15_6marker4SyncNtB2U_4SendEL_EENtNtB13_4drop4Drop4dropCsd13wb5Vf9Kd_12wiggle_macro, symObjAddr: 0x8550, symBinAddr: 0x9100, symSize: 0x30 }
  - { offset: 0xA55A, size: 0x8, addend: 0x0, symName: __RNvXsn_NtCslJiobkLta79_5alloc3vecINtB5_3VecPaENtNtNtCsieiGu2EXtoJ_4core3ops4drop4Drop4dropCsd13wb5Vf9Kd_12wiggle_macro, symObjAddr: 0x8580, symBinAddr: 0x9130, symSize: 0x20 }
  - { offset: 0xA6B7, size: 0x8, addend: 0x0, symName: __RNvXs1_NtCslJiobkLta79_5alloc5allocNtB5_6GlobalNtNtCsieiGu2EXtoJ_4core5clone5Clone5cloneCsd13wb5Vf9Kd_12wiggle_macro, symObjAddr: 0x6D60, symBinAddr: 0x7910, symSize: 0x10 }
  - { offset: 0xA708, size: 0x8, addend: 0x0, symName: __RNvXs_NtCslJiobkLta79_5alloc5allocNtB4_6GlobalNtNtCsieiGu2EXtoJ_4core5alloc9Allocator10deallocateCsd13wb5Vf9Kd_12wiggle_macro, symObjAddr: 0x76E0, symBinAddr: 0x8290, symSize: 0x70 }
  - { offset: 0xB18B, size: 0x8, addend: 0x0, symName: __RNvXs1_NtCslJiobkLta79_5alloc7raw_vecINtB5_6RawVecINtNtB7_5boxed3BoxDINtNtNtCsieiGu2EXtoJ_4core3ops8function5FnMutuEp6OutputINtNtB1c_6result6ResultuNtNtNtCsHUR1vrdMJt_3std2io5error5ErrorENtNtB1c_6marker4SyncNtB31_4SendEL_EENtNtB1a_4drop4Drop4dropCsd13wb5Vf9Kd_12wiggle_macro, symObjAddr: 0x6D70, symBinAddr: 0x7920, symSize: 0x30 }
  - { offset: 0xB1C7, size: 0x8, addend: 0x0, symName: __RNvXs1_NtCslJiobkLta79_5alloc7raw_vecINtB5_6RawVecPaENtNtNtCsieiGu2EXtoJ_4core3ops4drop4Drop4dropCsd13wb5Vf9Kd_12wiggle_macro, symObjAddr: 0x6DA0, symBinAddr: 0x7950, symSize: 0x20 }
  - { offset: 0xB363, size: 0x8, addend: 0x0, symName: __RNvXsE_NtCslJiobkLta79_5alloc6stringNtB5_6StringINtNtCsieiGu2EXtoJ_4core7convert5AsRefShE6as_refCsd13wb5Vf9Kd_12wiggle_macro, symObjAddr: 0x7250, symBinAddr: 0x7E00, symSize: 0x20 }
  - { offset: 0xB3B5, size: 0x8, addend: 0x0, symName: __RNvXsT_NtCslJiobkLta79_5alloc6stringNtB5_6StringNtNtCsieiGu2EXtoJ_4core3fmt5Write10write_charCsd13wb5Vf9Kd_12wiggle_macro, symObjAddr: 0x7410, symBinAddr: 0x7FC0, symSize: 0x30 }
  - { offset: 0xB3F2, size: 0x8, addend: 0x0, symName: __RNvXsT_NtCslJiobkLta79_5alloc6stringNtB5_6StringNtNtCsieiGu2EXtoJ_4core3fmt5Write9write_strCsd13wb5Vf9Kd_12wiggle_macro, symObjAddr: 0x7440, symBinAddr: 0x7FF0, symSize: 0x30 }
  - { offset: 0xB477, size: 0x8, addend: 0x0, symName: __RNvXsw_NtCslJiobkLta79_5alloc6stringNtCsaKzlTDPUHDb_11proc_macro211TokenStreamNtB5_8ToString9to_stringCsd13wb5Vf9Kd_12wiggle_macro, symObjAddr: 0x8B00, symBinAddr: 0x96B0, symSize: 0x30 }
  - { offset: 0xB4B4, size: 0x8, addend: 0x0, symName: __RNvXsx_NtCslJiobkLta79_5alloc6stringNtCsaKzlTDPUHDb_11proc_macro211TokenStreamNtB5_12SpecToString14spec_to_stringCsd13wb5Vf9Kd_12wiggle_macro, symObjAddr: 0x8BD0, symBinAddr: 0x9780, symSize: 0x120 }
  - { offset: 0xB750, size: 0x8, addend: 0x0, symName: __RNCINvMsm_NtNtNtCslJiobkLta79_5alloc11collections5btree8navigateINtNtBa_4node6HandleINtB13_7NodeRefNtNtB13_6marker5DyingNtNtNtCsHUR1vrdMJt_3std3ffi6os_str8OsStringINtNtCsieiGu2EXtoJ_4core6option6OptionB1U_ENtB1B_4LeafENtB1B_4EdgeE27deallocating_next_uncheckedNtNtBe_5alloc6GlobalE0Csd13wb5Vf9Kd_12wiggle_macro, symObjAddr: 0x29F0, symBinAddr: 0x35B0, symSize: 0x60 }
  - { offset: 0xC31F, size: 0x8, addend: 0x0, symName: __RNvXNvMsT_NtNtNtCslJiobkLta79_5alloc11collections5btree4nodeINtB8_6HandleINtB8_7NodeRefNtNtB8_6marker5DyingpppENtB1p_2KVE12drop_key_valINtB2_7DropperINtNtCsieiGu2EXtoJ_4core6option6OptionNtNtNtCsHUR1vrdMJt_3std3ffi6os_str8OsStringEENtNtNtB2s_3ops4drop4Drop4dropCsd13wb5Vf9Kd_12wiggle_macro, symObjAddr: 0x6B40, symBinAddr: 0x76F0, symSize: 0x20 }
  - { offset: 0xC469, size: 0x8, addend: 0x0, symName: __RNvXNtNtNtCslJiobkLta79_5alloc11collections5btree3mapINtB2_8BTreeMapNtNtNtCsHUR1vrdMJt_3std3ffi6os_str8OsStringINtNtCsieiGu2EXtoJ_4core6option6OptionB14_EENtNtNtB1Q_3ops4drop4Drop4dropCsd13wb5Vf9Kd_12wiggle_macro, symObjAddr: 0x6B00, symBinAddr: 0x76B0, symSize: 0x40 }
  - { offset: 0xC4F7, size: 0x8, addend: 0x0, symName: __RNvXNvXsw_NtNtNtCslJiobkLta79_5alloc11collections5btree3mapINtB8_8IntoIterpppENtNtNtCsieiGu2EXtoJ_4core3ops4drop4Drop4dropINtB2_9DropGuardNtNtNtCsHUR1vrdMJt_3std3ffi6os_str8OsStringINtNtB1k_6option6OptionB2c_ENtNtBe_5alloc6GlobalEB1e_4dropCsd13wb5Vf9Kd_12wiggle_macro, symObjAddr: 0x6B70, symBinAddr: 0x7720, symSize: 0x70 }
  - { offset: 0xC58C, size: 0x8, addend: 0x0, symName: __RNvXsw_NtNtNtCslJiobkLta79_5alloc11collections5btree3mapINtB5_8IntoIterNtNtNtCsHUR1vrdMJt_3std3ffi6os_str8OsStringINtNtCsieiGu2EXtoJ_4core6option6OptionB17_EENtNtNtB1T_3ops4drop4Drop4dropCsd13wb5Vf9Kd_12wiggle_macro, symObjAddr: 0x8B30, symBinAddr: 0x96E0, symSize: 0xA0 }
  - { offset: 0xC603, size: 0x8, addend: 0x0, symName: __RNvXsv_NtNtNtCslJiobkLta79_5alloc11collections5btree3mapINtB5_8BTreeMapNtNtNtCsHUR1vrdMJt_3std3ffi6os_str8OsStringINtNtCsieiGu2EXtoJ_4core6option6OptionB17_EENtNtNtNtB1T_4iter6traits7collect12IntoIterator9into_iterCsd13wb5Vf9Kd_12wiggle_macro, symObjAddr: 0x8860, symBinAddr: 0x9410, symSize: 0x2A0 }
  - { offset: 0xC780, size: 0x8, addend: 0x0, symName: __RINvNtNtNtCslJiobkLta79_5alloc11collections5btree3mem7replaceINtNtB4_4node6HandleINtB10_7NodeRefNtNtB10_6marker5DyingNtNtNtCsHUR1vrdMJt_3std3ffi6os_str8OsStringINtNtCsieiGu2EXtoJ_4core6option6OptionB1R_ENtB1y_4LeafENtB1y_4EdgeEIBY_IB1i_B1w_B1R_B2y_NtB1y_14LeafOrInternalENtB1y_2KVENCINvMsm_NtB4_8navigateBX_27deallocating_next_uncheckedNtNtB8_5alloc6GlobalE0ECsd13wb5Vf9Kd_12wiggle_macro, symObjAddr: 0x2460, symBinAddr: 0x3020, symSize: 0x110 }
  - { offset: 0xC87C, size: 0x8, addend: 0x0, symName: __RNvXNvNtNtNtCslJiobkLta79_5alloc11collections5btree3mem7replaceNtB2_10PanicGuardNtNtNtCsieiGu2EXtoJ_4core3ops4drop4Drop4dropCsd13wb5Vf9Kd_12wiggle_macro, symObjAddr: 0x6B60, symBinAddr: 0x7710, symSize: 0x10 }
  - { offset: 0xCDAF, size: 0x8, addend: 0x0, symName: __RNvNtCslJiobkLta79_5alloc3fmt6formatCsd13wb5Vf9Kd_12wiggle_macro, symObjAddr: 0x5DD0, symBinAddr: 0x6980, symSize: 0xC0 }
  - { offset: 0xCE19, size: 0x8, addend: 0x0, symName: __RNvXs6_NtCslJiobkLta79_5alloc5boxedINtB5_3BoxDINtNtNtCsieiGu2EXtoJ_4core3ops8function5FnMutuEp6OutputINtNtBP_6result6ResultuNtNtNtCsHUR1vrdMJt_3std2io5error5ErrorENtNtBP_6marker4SyncNtB2D_4SendEL_ENtNtBN_4drop4Drop4dropCsd13wb5Vf9Kd_12wiggle_macro, symObjAddr: 0x6F10, symBinAddr: 0x7AC0, symSize: 0xC0 }
  - { offset: 0xCF56, size: 0x8, addend: 0x0, symName: __RNvXs6_NtCslJiobkLta79_5alloc5boxedINtB5_3BoxSmENtNtNtCsieiGu2EXtoJ_4core3ops4drop4Drop4dropCsd13wb5Vf9Kd_12wiggle_macro, symObjAddr: 0x6FD0, symBinAddr: 0x7B80, symSize: 0xC0 }
  - { offset: 0xD13E, size: 0x8, addend: 0x0, symName: __RNvNvCsd13wb5Vf9Kd_12wiggle_macro9from_witx10INVOCATION, symObjAddr: 0x6F540, symBinAddr: 0x371640, symSize: 0x0 }
  - { offset: 0xD15C, size: 0x8, addend: 0x0, symName: ___rustc_proc_macro_decls_979e18f4a3e1958f__, symObjAddr: 0xA448, symBinAddr: 0x2FC7E8, symSize: 0x0 }
  - { offset: 0xD18D, size: 0x8, addend: 0x0, symName: __RNCNvCsd13wb5Vf9Kd_12wiggle_macro20wasmtime_integration0B3_, symObjAddr: 0x37D0, symBinAddr: 0x4390, symSize: 0x90 }
  - { offset: 0xD22E, size: 0x8, addend: 0x0, symName: __RNvCsd13wb5Vf9Kd_12wiggle_macro11async_trait, symObjAddr: 0x3880, symBinAddr: 0x4440, symSize: 0x2D0 }
  - { offset: 0xD2C0, size: 0x8, addend: 0x0, symName: __RNvCsd13wb5Vf9Kd_12wiggle_macro20wasmtime_integration, symObjAddr: 0x3B50, symBinAddr: 0x4710, symSize: 0x410 }
  - { offset: 0xD418, size: 0x8, addend: 0x0, symName: __RNvCsd13wb5Vf9Kd_12wiggle_macro9from_witx, symObjAddr: 0x3F60, symBinAddr: 0x4B20, symSize: 0x9A0 }
  - { offset: 0xD991, size: 0x8, addend: 0x0, symName: __RNCINvNtNtCscKtU6MdFI5n_10proc_macro6bridge6client10run_clientNtB4_11TokenStreamINtNtCsieiGu2EXtoJ_4core6option6OptionBY_ENCNCINvMs6_B4_INtB4_6ClientNtB8_11TokenStreamB2n_E7expand1NvCsd13wb5Vf9Kd_12wiggle_macro20wasmtime_integrationE00E0B2U_, symObjAddr: 0x2A50, symBinAddr: 0x3610, symSize: 0x420 }
  - { offset: 0xDBB2, size: 0x8, addend: 0x0, symName: __RNCINvNtNtCscKtU6MdFI5n_10proc_macro6bridge6client10run_clientNtB4_11TokenStreamINtNtCsieiGu2EXtoJ_4core6option6OptionBY_ENCNCINvMs6_B4_INtB4_6ClientNtB8_11TokenStreamB2n_E7expand1NvCsd13wb5Vf9Kd_12wiggle_macro9from_witxE00E0B2U_, symObjAddr: 0x2E70, symBinAddr: 0x3A30, symSize: 0x420 }
  - { offset: 0xDDD3, size: 0x8, addend: 0x0, symName: __RNCINvNtNtCscKtU6MdFI5n_10proc_macro6bridge6client10run_clientTNtB4_11TokenStreamBZ_EINtNtCsieiGu2EXtoJ_4core6option6OptionBZ_ENCNCINvMs7_B4_INtB4_6ClientTNtB8_11TokenStreamB2t_EB2t_E7expand2NvCsd13wb5Vf9Kd_12wiggle_macro11async_traitE00E0B35_, symObjAddr: 0x3290, symBinAddr: 0x3E50, symSize: 0x450 }
  - { offset: 0xDFF9, size: 0x8, addend: 0x0, symName: __RNCNCINvNtNtCscKtU6MdFI5n_10proc_macro6bridge6client10run_clientNtB6_11TokenStreamINtNtCsieiGu2EXtoJ_4core6option6OptionB10_ENCNCINvMs6_B6_INtB6_6ClientNtBa_11TokenStreamB2q_E7expand1NvCsd13wb5Vf9Kd_12wiggle_macro20wasmtime_integrationE00E00B2X_, symObjAddr: 0x3750, symBinAddr: 0x4310, symSize: 0x20 }
  - { offset: 0xE055, size: 0x8, addend: 0x0, symName: __RNCNCINvNtNtCscKtU6MdFI5n_10proc_macro6bridge6client10run_clientNtB6_11TokenStreamINtNtCsieiGu2EXtoJ_4core6option6OptionB10_ENCNCINvMs6_B6_INtB6_6ClientNtBa_11TokenStreamB2q_E7expand1NvCsd13wb5Vf9Kd_12wiggle_macro9from_witxE00E00B2X_, symObjAddr: 0x3770, symBinAddr: 0x4330, symSize: 0x20 }
  - { offset: 0xE0B1, size: 0x8, addend: 0x0, symName: __RNCNCINvNtNtCscKtU6MdFI5n_10proc_macro6bridge6client10run_clientTNtB6_11TokenStreamB11_EINtNtCsieiGu2EXtoJ_4core6option6OptionB11_ENCNCINvMs7_B6_INtB6_6ClientTNtBa_11TokenStreamB2x_EB2x_E7expand2NvCsd13wb5Vf9Kd_12wiggle_macro11async_traitE00E00B39_, symObjAddr: 0x3790, symBinAddr: 0x4350, symSize: 0x20 }
  - { offset: 0xE19E, size: 0x8, addend: 0x0, symName: __RNCNCINvMs6_NtNtCscKtU6MdFI5n_10proc_macro6bridge6clientINtBa_6ClientNtBe_11TokenStreamB15_E7expand1NvCsd13wb5Vf9Kd_12wiggle_macro20wasmtime_integrationE00B1C_, symObjAddr: 0x36E0, symBinAddr: 0x42A0, symSize: 0x20 }
  - { offset: 0xE1E6, size: 0x8, addend: 0x0, symName: __RNCNCINvMs6_NtNtCscKtU6MdFI5n_10proc_macro6bridge6clientINtBa_6ClientNtBe_11TokenStreamB15_E7expand1NvCsd13wb5Vf9Kd_12wiggle_macro9from_witxE00B1C_, symObjAddr: 0x3700, symBinAddr: 0x42C0, symSize: 0x20 }
  - { offset: 0xE255, size: 0x8, addend: 0x0, symName: __RNCINvMs6_NtNtCscKtU6MdFI5n_10proc_macro6bridge6clientINtB8_6ClientNtBc_11TokenStreamB13_E7expand1NvCsd13wb5Vf9Kd_12wiggle_macro20wasmtime_integrationE0B1A_, symObjAddr: 0x2960, symBinAddr: 0x3520, symSize: 0x30 }
  - { offset: 0xE29E, size: 0x8, addend: 0x0, symName: __RNCINvMs6_NtNtCscKtU6MdFI5n_10proc_macro6bridge6clientINtB8_6ClientNtBc_11TokenStreamB13_E7expand1NvCsd13wb5Vf9Kd_12wiggle_macro9from_witxE0B1A_, symObjAddr: 0x2990, symBinAddr: 0x3550, symSize: 0x30 }
  - { offset: 0xE2E9, size: 0x8, addend: 0x0, symName: __RINvNtNtCscKtU6MdFI5n_10proc_macro6bridge6client10run_clientNtB2_11TokenStreamINtNtCsieiGu2EXtoJ_4core6option6OptionBW_ENCNCINvMs6_B2_INtB2_6ClientNtB6_11TokenStreamB2l_E7expand1NvCsd13wb5Vf9Kd_12wiggle_macro20wasmtime_integrationE00EB2S_, symObjAddr: 0x1970, symBinAddr: 0x2530, symSize: 0x2E0 }
  - { offset: 0xE4D3, size: 0x8, addend: 0x0, symName: __RINvNtNtCscKtU6MdFI5n_10proc_macro6bridge6client10run_clientNtB2_11TokenStreamINtNtCsieiGu2EXtoJ_4core6option6OptionBW_ENCNCINvMs6_B2_INtB2_6ClientNtB6_11TokenStreamB2l_E7expand1NvCsd13wb5Vf9Kd_12wiggle_macro9from_witxE00EB2S_, symObjAddr: 0x1C50, symBinAddr: 0x2810, symSize: 0x2E0 }
  - { offset: 0xE6DF, size: 0x8, addend: 0x0, symName: __RNCNCINvMs7_NtNtCscKtU6MdFI5n_10proc_macro6bridge6clientINtBa_6ClientTNtBe_11TokenStreamB16_EB16_E7expand2NvCsd13wb5Vf9Kd_12wiggle_macro11async_traitE00B1I_, symObjAddr: 0x3720, symBinAddr: 0x42E0, symSize: 0x30 }
  - { offset: 0xE765, size: 0x8, addend: 0x0, symName: __RNCINvMs7_NtNtCscKtU6MdFI5n_10proc_macro6bridge6clientINtB8_6ClientTNtBc_11TokenStreamB14_EB14_E7expand2NvCsd13wb5Vf9Kd_12wiggle_macro11async_traitE0B1G_, symObjAddr: 0x29C0, symBinAddr: 0x3580, symSize: 0x30 }
  - { offset: 0xE7B0, size: 0x8, addend: 0x0, symName: __RINvNtNtCscKtU6MdFI5n_10proc_macro6bridge6client10run_clientTNtB2_11TokenStreamBX_EINtNtCsieiGu2EXtoJ_4core6option6OptionBX_ENCNCINvMs7_B2_INtB2_6ClientTNtB6_11TokenStreamB2r_EB2r_E7expand2NvCsd13wb5Vf9Kd_12wiggle_macro11async_traitE00EB33_, symObjAddr: 0x1F30, symBinAddr: 0x2AF0, symSize: 0x2E0 }
  - { offset: 0xE9ED, size: 0x8, addend: 0x0, symName: __RINvNtNtNtCscKtU6MdFI5n_10proc_macro6bridge6client5state3setINtNtCsieiGu2EXtoJ_4core6option6OptionNtB4_11TokenStreamENCNCINvB4_10run_clientB1y_BW_NCNCINvMs6_B4_INtB4_6ClientNtB8_11TokenStreamB2L_E7expand1NvCsd13wb5Vf9Kd_12wiggle_macro20wasmtime_integrationE00E00EB3i_, symObjAddr: 0x2210, symBinAddr: 0x2DD0, symSize: 0xC0 }
  - { offset: 0xEAC3, size: 0x8, addend: 0x0, symName: __RINvNtNtNtCscKtU6MdFI5n_10proc_macro6bridge6client5state3setINtNtCsieiGu2EXtoJ_4core6option6OptionNtB4_11TokenStreamENCNCINvB4_10run_clientB1y_BW_NCNCINvMs6_B4_INtB4_6ClientNtB8_11TokenStreamB2L_E7expand1NvCsd13wb5Vf9Kd_12wiggle_macro9from_witxE00E00EB3i_, symObjAddr: 0x22D0, symBinAddr: 0x2E90, symSize: 0xC0 }
  - { offset: 0xEB99, size: 0x8, addend: 0x0, symName: __RINvNtNtNtCscKtU6MdFI5n_10proc_macro6bridge6client5state3setINtNtCsieiGu2EXtoJ_4core6option6OptionNtB4_11TokenStreamENCNCINvB4_10run_clientTB1y_B1y_EBW_NCNCINvMs7_B4_INtB4_6ClientTNtB8_11TokenStreamB2S_EB2S_E7expand2NvCsd13wb5Vf9Kd_12wiggle_macro11async_traitE00E00EB3u_, symObjAddr: 0x2390, symBinAddr: 0x2F50, symSize: 0xD0 }
  - { offset: 0xEC7A, size: 0x8, addend: 0x0, symName: __RNCNkNvNtNtNtCscKtU6MdFI5n_10proc_macro6bridge6client5state12BRIDGE_STATE0s_0Csd13wb5Vf9Kd_12wiggle_macro, symObjAddr: 0x37B0, symBinAddr: 0x4370, symSize: 0x20 }
  - { offset: 0xECD6, size: 0x8, addend: 0x0, symName: __RNvXsf_NtNtCscKtU6MdFI5n_10proc_macro6bridge6clientNtB5_11TokenStreamINtNtB7_3rpc6EncodeuE6encodeCsd13wb5Vf9Kd_12wiggle_macro, symObjAddr: 0x7850, symBinAddr: 0x8400, symSize: 0x40 }
  - { offset: 0xEDE7, size: 0x8, addend: 0x0, symName: __RNvXsi_NtNtCscKtU6MdFI5n_10proc_macro6bridge6clientNtB5_11TokenStreamINtNtB7_3rpc9DecodeMutuE6decodeCsd13wb5Vf9Kd_12wiggle_macro, symObjAddr: 0x83E0, symBinAddr: 0x8F90, symSize: 0x20 }
  - { offset: 0xEE30, size: 0x8, addend: 0x0, symName: __RNvXsk_NtNtCscKtU6MdFI5n_10proc_macro6bridge6clientNtB5_4SpanINtNtB7_3rpc9DecodeMutuE6decodeCsd13wb5Vf9Kd_12wiggle_macro, symObjAddr: 0x8400, symBinAddr: 0x8FB0, symSize: 0x20 }
  - { offset: 0xF0A8, size: 0x8, addend: 0x0, symName: __RNvXs5_NtNtCscKtU6MdFI5n_10proc_macro6bridge6bufferNtB5_6BufferNtNtNtCsieiGu2EXtoJ_4core3ops4drop4Drop4dropCsd13wb5Vf9Kd_12wiggle_macro, symObjAddr: 0x6E70, symBinAddr: 0x7A20, symSize: 0xA0 }
  - { offset: 0xF2C4, size: 0x8, addend: 0x0, symName: __RNvXNtNtCscKtU6MdFI5n_10proc_macro6bridge3rpcuINtB2_6EncodeuE6encodeCsd13wb5Vf9Kd_12wiggle_macro, symObjAddr: 0x6AF0, symBinAddr: 0x76A0, symSize: 0x10 }
  - { offset: 0xF30B, size: 0x8, addend: 0x0, symName: __RNvXs7_NtNtCscKtU6MdFI5n_10proc_macro6bridge3rpcINtNtNtCsieiGu2EXtoJ_4core3num7nonzero7NonZeromEINtB5_9DecodeMutuE6decodeCsd13wb5Vf9Kd_12wiggle_macro, symObjAddr: 0x7090, symBinAddr: 0x7C40, symSize: 0x50 }
  - { offset: 0xF386, size: 0x8, addend: 0x0, symName: __RNvXs9_NtNtCscKtU6MdFI5n_10proc_macro6bridge3rpcTINtB7_11ExpnGlobalsNtNtB7_6client4SpanENtB16_11TokenStreamEINtB5_9DecodeMutuE6decodeCsd13wb5Vf9Kd_12wiggle_macro, symObjAddr: 0x70E0, symBinAddr: 0x7C90, symSize: 0x80 }
  - { offset: 0xF3DB, size: 0x8, addend: 0x0, symName: __RNvXs9_NtNtCscKtU6MdFI5n_10proc_macro6bridge3rpcTINtB7_11ExpnGlobalsNtNtB7_6client4SpanETNtB16_11TokenStreamB1p_EEINtB5_9DecodeMutuE6decodeCsd13wb5Vf9Kd_12wiggle_macro, symObjAddr: 0x7160, symBinAddr: 0x7D10, symSize: 0x80 }
  - { offset: 0xF430, size: 0x8, addend: 0x0, symName: __RNvXs9_NtNtCscKtU6MdFI5n_10proc_macro6bridge3rpcTNtNtB7_6client11TokenStreamBL_EINtB5_9DecodeMutuE6decodeCsd13wb5Vf9Kd_12wiggle_macro, symObjAddr: 0x71E0, symBinAddr: 0x7D90, symSize: 0x70 }
  - { offset: 0xF577, size: 0x8, addend: 0x0, symName: __RNvXsa_NtNtCscKtU6MdFI5n_10proc_macro6bridge3rpcRShINtB5_6EncodeuE6encodeCsd13wb5Vf9Kd_12wiggle_macro, symObjAddr: 0x7750, symBinAddr: 0x8300, symSize: 0xD0 }
  - { offset: 0xF67F, size: 0x8, addend: 0x0, symName: __RNvXsc_NtNtCscKtU6MdFI5n_10proc_macro6bridge3rpcReINtB5_6EncodeuE6encodeCsd13wb5Vf9Kd_12wiggle_macro, symObjAddr: 0x7820, symBinAddr: 0x83D0, symSize: 0x30 }
  - { offset: 0xF741, size: 0x8, addend: 0x0, symName: __RNvXsl_NtNtCscKtU6MdFI5n_10proc_macro6bridge3rpcNtB5_12PanicMessageINtB5_6EncodeuE6encodeCsd13wb5Vf9Kd_12wiggle_macro, symObjAddr: 0x8420, symBinAddr: 0x8FD0, symSize: 0x130 }
  - { offset: 0xF911, size: 0x8, addend: 0x0, symName: __RNvXso_NtNtCscKtU6MdFI5n_10proc_macro6bridge3rpcmINtB5_9DecodeMutuE6decodeCsd13wb5Vf9Kd_12wiggle_macro, symObjAddr: 0x8630, symBinAddr: 0x91E0, symSize: 0x140 }
  - { offset: 0xFABA, size: 0x8, addend: 0x0, symName: __RINvNvNtNtCscKtU6MdFI5n_10proc_macro6bridge14selfless_reify31reify_to_extern_c_fn_hrt_bridge7wrapperNtNtB6_6buffer6BufferNCINvMs6_NtB6_6clientINtB24_6ClientNtB8_11TokenStreamB2u_E7expand1NvCsd13wb5Vf9Kd_12wiggle_macro20wasmtime_integrationE0EB31_, symObjAddr: 0x2750, symBinAddr: 0x3310, symSize: 0xA0 }
  - { offset: 0xFB52, size: 0x8, addend: 0x0, symName: __RINvNvNtNtCscKtU6MdFI5n_10proc_macro6bridge14selfless_reify31reify_to_extern_c_fn_hrt_bridge7wrapperNtNtB6_6buffer6BufferNCINvMs6_NtB6_6clientINtB24_6ClientNtB8_11TokenStreamB2u_E7expand1NvCsd13wb5Vf9Kd_12wiggle_macro9from_witxE0EB31_, symObjAddr: 0x27F0, symBinAddr: 0x33B0, symSize: 0xA0 }
  - { offset: 0xFBEA, size: 0x8, addend: 0x0, symName: __RINvNvNtNtCscKtU6MdFI5n_10proc_macro6bridge14selfless_reify31reify_to_extern_c_fn_hrt_bridge7wrapperNtNtB6_6buffer6BufferNCINvMs7_NtB6_6clientINtB24_6ClientTNtB8_11TokenStreamB2v_EB2v_E7expand2NvCsd13wb5Vf9Kd_12wiggle_macro11async_traitE0EB37_, symObjAddr: 0x2890, symBinAddr: 0x3450, symSize: 0xA0 }
  - { offset: 0xFF08, size: 0x8, addend: 0x0, symName: __RNvXs1J_NtCscKtU6MdFI5n_10proc_macro6bridgeINtB6_11ExpnGlobalsNtNtB6_6client4SpanEINtNtB6_3rpc9DecodeMutuE6decodeCsd13wb5Vf9Kd_12wiggle_macro, symObjAddr: 0x6CB0, symBinAddr: 0x7860, symSize: 0xA0 }
  - { offset: 0xFF5A, size: 0x8, addend: 0x0, symName: __RNvXsR_NtCscKtU6MdFI5n_10proc_macro6bridgeINtNtCsieiGu2EXtoJ_4core6option6OptionNtNtB5_6client11TokenStreamEINtNtB5_3rpc6EncodeuE6encodeCsd13wb5Vf9Kd_12wiggle_macro, symObjAddr: 0x72A0, symBinAddr: 0x7E50, symSize: 0xB0 }
  - { offset: 0x10000, size: 0x8, addend: 0x0, symName: __RNvXsR_NtCscKtU6MdFI5n_10proc_macro6bridgeINtNtCsieiGu2EXtoJ_4core6option6OptionReEINtNtB5_3rpc6EncodeuE6encodeCsd13wb5Vf9Kd_12wiggle_macro, symObjAddr: 0x7350, symBinAddr: 0x7F00, symSize: 0xC0 }
  - { offset: 0x100AD, size: 0x8, addend: 0x0, symName: __RNvXsV_NtCscKtU6MdFI5n_10proc_macro6bridgeINtNtCsieiGu2EXtoJ_4core6result6ResultINtNtBJ_6option6OptionNtNtB5_6client11TokenStreamEuEINtNtB5_3rpc6EncodeuE6encodeCsd13wb5Vf9Kd_12wiggle_macro, symObjAddr: 0x7470, symBinAddr: 0x8020, symSize: 0xE0 }
  - { offset: 0x10171, size: 0x8, addend: 0x0, symName: __RNvXsV_NtCscKtU6MdFI5n_10proc_macro6bridgeINtNtCsieiGu2EXtoJ_4core6result6ResultuNtNtB5_3rpc12PanicMessageEINtB1j_6EncodeuE6encodeCsd13wb5Vf9Kd_12wiggle_macro, symObjAddr: 0x7550, symBinAddr: 0x8100, symSize: 0x120 }
  - { offset: 0x110FD, size: 0x8, addend: 0x0, symName: __RINvCsdGrGZaRBwMb_3syn5parseNtNtB2_5parse7NothingECsd13wb5Vf9Kd_12wiggle_macro, symObjAddr: 0x0, symBinAddr: 0xC00, symSize: 0x30 }
  - { offset: 0x11134, size: 0x8, addend: 0x0, symName: __RINvCsdGrGZaRBwMb_3syn5parseNtNtCsfMaSMcsiNJc_15wiggle_generate6config14WasmtimeConfigECsd13wb5Vf9Kd_12wiggle_macro, symObjAddr: 0x30, symBinAddr: 0xC30, symSize: 0x30 }
  - { offset: 0x1116B, size: 0x8, addend: 0x0, symName: __RINvCsdGrGZaRBwMb_3syn5parseNtNtCsfMaSMcsiNJc_15wiggle_generate6config6ConfigECsd13wb5Vf9Kd_12wiggle_macro, symObjAddr: 0x60, symBinAddr: 0xC60, symSize: 0x30 }
  - { offset: 0x15DC5, size: 0x8, addend: 0x0, symName: __RNvXsh_NtCsdGrGZaRBwMb_3syn5parseNvYNtB5_7NothingNtB5_5Parse5parseNtB5_6Parser6parse2Csd13wb5Vf9Kd_12wiggle_macro, symObjAddr: 0x7890, symBinAddr: 0x8440, symSize: 0x350 }
  - { offset: 0x15ED4, size: 0x8, addend: 0x0, symName: __RNvXsh_NtCsdGrGZaRBwMb_3syn5parseNvYNtNtCsfMaSMcsiNJc_15wiggle_generate6config14WasmtimeConfigNtB5_5Parse5parseNtB5_6Parser6parse2Csd13wb5Vf9Kd_12wiggle_macro, symObjAddr: 0x7BE0, symBinAddr: 0x8790, symSize: 0x400 }
  - { offset: 0x15FE5, size: 0x8, addend: 0x0, symName: __RNvXsh_NtCsdGrGZaRBwMb_3syn5parseNvYNtNtCsfMaSMcsiNJc_15wiggle_generate6config6ConfigNtB5_5Parse5parseNtB5_6Parser6parse2Csd13wb5Vf9Kd_12wiggle_macro, symObjAddr: 0x7FE0, symBinAddr: 0x8B90, symSize: 0x400 }
  - { offset: 0x160FC, size: 0x8, addend: 0x0, symName: __RNvYNvYNtNtCsdGrGZaRBwMb_3syn5parse7NothingNtB7_5Parse5parseNtB7_6Parser5parseCsd13wb5Vf9Kd_12wiggle_macro, symObjAddr: 0x8E00, symBinAddr: 0x99B0, symSize: 0x70 }
  - { offset: 0x16142, size: 0x8, addend: 0x0, symName: __RNvYNvYNtNtCsfMaSMcsiNJc_15wiggle_generate6config14WasmtimeConfigNtNtCsdGrGZaRBwMb_3syn5parse5Parse5parseNtB13_6Parser5parseCsd13wb5Vf9Kd_12wiggle_macro, symObjAddr: 0x8EA0, symBinAddr: 0x9A50, symSize: 0x70 }
  - { offset: 0x16188, size: 0x8, addend: 0x0, symName: __RNvYNvYNtNtCsfMaSMcsiNJc_15wiggle_generate6config6ConfigNtNtCsdGrGZaRBwMb_3syn5parse5Parse5parseNtBU_6Parser5parseCsd13wb5Vf9Kd_12wiggle_macro, symObjAddr: 0x8F40, symBinAddr: 0x9AF0, symSize: 0x70 }
  - { offset: 0x16468, size: 0x8, addend: 0x0, symName: __RINvMs16_NtCsHUR1vrdMJt_3std4pathNtB7_4Path4joinNtNtCslJiobkLta79_5alloc6string6StringECsd13wb5Vf9Kd_12wiggle_macro, symObjAddr: 0x90, symBinAddr: 0xC90, symSize: 0x90 }
  - { offset: 0x164E4, size: 0x8, addend: 0x0, symName: __RINvMs2_NtNtCsHUR1vrdMJt_3std6thread5localINtB6_8LocalKeyINtNtCsieiGu2EXtoJ_4core4cell4CellPuEE4withNCNvMs3_B6_BE_7replace0B1r_ECsd13wb5Vf9Kd_12wiggle_macro, symObjAddr: 0x120, symBinAddr: 0xD20, symSize: 0x50 }
  - { offset: 0x1659D, size: 0x8, addend: 0x0, symName: __RINvMs2_NtNtCsHUR1vrdMJt_3std6thread5localINtB6_8LocalKeyINtNtCsieiGu2EXtoJ_4core4cell4CellPuEE8try_withNCNvMs3_B6_BE_7replace0B1r_ECsd13wb5Vf9Kd_12wiggle_macro, symObjAddr: 0x170, symBinAddr: 0xD70, symSize: 0xF0 }
  - { offset: 0x16737, size: 0x8, addend: 0x0, symName: __RINvMs3_NtNtCscKtU6MdFI5n_10proc_macro6bridge6bufferNtB6_6Buffer17extend_from_arrayKj4_ECsd13wb5Vf9Kd_12wiggle_macro, symObjAddr: 0x260, symBinAddr: 0xE60, symSize: 0x1E0 }
  - { offset: 0x168BF, size: 0x8, addend: 0x0, symName: __RINvMs3_NtNtCscKtU6MdFI5n_10proc_macro6bridge6bufferNtB6_6Buffer17extend_from_arrayKj8_ECsd13wb5Vf9Kd_12wiggle_macro, symObjAddr: 0x440, symBinAddr: 0x1040, symSize: 0x1E0 }
  - { offset: 0x16AA5, size: 0x8, addend: 0x0, symName: __RINvMsb_NtNtNtCslJiobkLta79_5alloc11collections5btree8navigateINtB6_13LazyLeafRangeNtNtNtB8_4node6marker5DyingNtNtNtCsHUR1vrdMJt_3std3ffi6os_str8OsStringINtNtCsieiGu2EXtoJ_4core6option6OptionB1K_EE16deallocating_endNtNtBc_5alloc6GlobalECsd13wb5Vf9Kd_12wiggle_macro, symObjAddr: 0x620, symBinAddr: 0x1220, symSize: 0x90 }
  - { offset: 0x16BA2, size: 0x8, addend: 0x0, symName: __RINvMsb_NtNtNtCslJiobkLta79_5alloc11collections5btree8navigateINtB6_13LazyLeafRangeNtNtNtB8_4node6marker5DyingNtNtNtCsHUR1vrdMJt_3std3ffi6os_str8OsStringINtNtCsieiGu2EXtoJ_4core6option6OptionB1K_EE27deallocating_next_uncheckedNtNtBc_5alloc6GlobalECsd13wb5Vf9Kd_12wiggle_macro, symObjAddr: 0x6B0, symBinAddr: 0x12B0, symSize: 0xB0 }
  - { offset: 0x16D25, size: 0x8, addend: 0x0, symName: __RINvMsh_NtNtNtCslJiobkLta79_5alloc11collections5btree4nodeINtB6_7NodeRefNtNtB6_6marker5DyingNtNtNtCsHUR1vrdMJt_3std3ffi6os_str8OsStringINtNtCsieiGu2EXtoJ_4core6option6OptionB1s_ENtB1a_14LeafOrInternalE21deallocate_and_ascendNtNtBc_5alloc6GlobalECsd13wb5Vf9Kd_12wiggle_macro, symObjAddr: 0x760, symBinAddr: 0x1360, symSize: 0x1A0 }
  - { offset: 0x16F5B, size: 0x8, addend: 0x0, symName: __RINvMsj_NtNtNtCslJiobkLta79_5alloc11collections5btree8navigateINtNtB8_4node6HandleINtB11_7NodeRefNtNtB11_6marker5DyingNtNtNtCsHUR1vrdMJt_3std3ffi6os_str8OsStringINtNtCsieiGu2EXtoJ_4core6option6OptionB1S_ENtB1z_4LeafENtB1z_4EdgeE16deallocating_endNtNtBc_5alloc6GlobalECsd13wb5Vf9Kd_12wiggle_macro, symObjAddr: 0x900, symBinAddr: 0x1500, symSize: 0xF0 }
  - { offset: 0x171DE, size: 0x8, addend: 0x0, symName: __RINvMsj_NtNtNtCslJiobkLta79_5alloc11collections5btree8navigateINtNtB8_4node6HandleINtB11_7NodeRefNtNtB11_6marker5DyingNtNtNtCsHUR1vrdMJt_3std3ffi6os_str8OsStringINtNtCsieiGu2EXtoJ_4core6option6OptionB1S_ENtB1z_4LeafENtB1z_4EdgeE17deallocating_nextNtNtBc_5alloc6GlobalECsd13wb5Vf9Kd_12wiggle_macro, symObjAddr: 0x9F0, symBinAddr: 0x15F0, symSize: 0x370 }
  - { offset: 0x174E0, size: 0x8, addend: 0x0, symName: __RINvMsk_NtCsHUR1vrdMJt_3std7processNtB6_7Command3argRNtNtB8_4path7PathBufECsd13wb5Vf9Kd_12wiggle_macro, symObjAddr: 0xD60, symBinAddr: 0x1960, symSize: 0x60 }
  - { offset: 0x1751B, size: 0x8, addend: 0x0, symName: __RINvMsk_NtCsHUR1vrdMJt_3std7processNtB6_7Command3argReECsd13wb5Vf9Kd_12wiggle_macro, symObjAddr: 0xDC0, symBinAddr: 0x19C0, symSize: 0x60 }
  - { offset: 0x17556, size: 0x8, addend: 0x0, symName: __RINvMsk_NtCsHUR1vrdMJt_3std7processNtB6_7Command3newReECsd13wb5Vf9Kd_12wiggle_macro, symObjAddr: 0xE20, symBinAddr: 0x1A20, symSize: 0xA0 }
  - { offset: 0x188AC, size: 0x8, addend: 0x0, symName: __RNvMNtCsieiGu2EXtoJ_4core6resultINtB2_6ResultNtNtCsfMaSMcsiNJc_15wiggle_generate16codegen_settings15CodegenSettingsNtCs5LsBMV3VaIp_6anyhow5ErrorE6expectCsd13wb5Vf9Kd_12wiggle_macro, symObjAddr: 0x49A0, symBinAddr: 0x5560, symSize: 0xC0 }
  - { offset: 0x1891C, size: 0x8, addend: 0x0, symName: __RNvMNtCsieiGu2EXtoJ_4core6resultINtB2_6ResultNtNtCslJiobkLta79_5alloc6string6StringNtNtCsHUR1vrdMJt_3std3env8VarErrorE5is_okCsd13wb5Vf9Kd_12wiggle_macro, symObjAddr: 0x4A60, symBinAddr: 0x5620, symSize: 0x20 }
  - { offset: 0x18B0E, size: 0x8, addend: 0x0, symName: __RNvMNtCslJiobkLta79_5alloc6stringNtB2_6String4pushCsd13wb5Vf9Kd_12wiggle_macro, symObjAddr: 0x4A80, symBinAddr: 0x5640, symSize: 0x130 }
  - { offset: 0x18E07, size: 0x8, addend: 0x0, symName: __RNvMNtCslJiobkLta79_5alloc6stringNtB2_6String8push_strCsd13wb5Vf9Kd_12wiggle_macro, symObjAddr: 0x4BB0, symBinAddr: 0x5770, symSize: 0x50 }
  - { offset: 0x18FF7, size: 0x8, addend: 0x0, symName: __RNvMs16_NtCsHUR1vrdMJt_3std4pathNtB6_4Path6to_strCsd13wb5Vf9Kd_12wiggle_macro, symObjAddr: 0x4C00, symBinAddr: 0x57C0, symSize: 0x80 }
  - { offset: 0x190D2, size: 0x8, addend: 0x0, symName: __RNvMs1G_NtNtCsieiGu2EXtoJ_4core4sync6atomicNtB6_11AtomicUsize9fetch_addCsd13wb5Vf9Kd_12wiggle_macro, symObjAddr: 0x4C80, symBinAddr: 0x5840, symSize: 0xC0 }
  - { offset: 0x19171, size: 0x8, addend: 0x0, symName: __RNvMs3_NtNtCscKtU6MdFI5n_10proc_macro6bridge6bufferNtB5_6Buffer17extend_from_sliceCsd13wb5Vf9Kd_12wiggle_macro, symObjAddr: 0x4D40, symBinAddr: 0x5900, symSize: 0x1E0 }
  - { offset: 0x192EE, size: 0x8, addend: 0x0, symName: __RNvMs3_NtNtCscKtU6MdFI5n_10proc_macro6bridge6bufferNtB5_6Buffer4pushCsd13wb5Vf9Kd_12wiggle_macro, symObjAddr: 0x4F20, symBinAddr: 0x5AE0, symSize: 0x1A0 }
  - { offset: 0x19484, size: 0x8, addend: 0x0, symName: __RNvMsO_NtNtNtCslJiobkLta79_5alloc11collections5btree4nodeINtB5_6HandleINtB5_7NodeRefNtNtB5_6marker5DyingNtNtNtCsHUR1vrdMJt_3std3ffi6os_str8OsStringINtNtCsieiGu2EXtoJ_4core6option6OptionB1E_ENtB1m_8InternalENtB1m_4EdgeE7descendCsd13wb5Vf9Kd_12wiggle_macro, symObjAddr: 0x50C0, symBinAddr: 0x5C80, symSize: 0x80 }
  - { offset: 0x19773, size: 0x8, addend: 0x0, symName: __RNvMsT_NtNtNtCslJiobkLta79_5alloc11collections5btree4nodeINtB5_6HandleINtB5_7NodeRefNtNtB5_6marker5DyingNtNtNtCsHUR1vrdMJt_3std3ffi6os_str8OsStringINtNtCsieiGu2EXtoJ_4core6option6OptionB1E_ENtB1m_14LeafOrInternalENtB1m_2KVE12drop_key_valCsd13wb5Vf9Kd_12wiggle_macro, symObjAddr: 0x5140, symBinAddr: 0x5D00, symSize: 0x140 }
  - { offset: 0x19AD4, size: 0x8, addend: 0x0, symName: __RNvMsb_NtNtNtCslJiobkLta79_5alloc11collections5btree8navigateINtB5_13LazyLeafRangeNtNtNtB7_4node6marker5DyingNtNtNtCsHUR1vrdMJt_3std3ffi6os_str8OsStringINtNtCsieiGu2EXtoJ_4core6option6OptionB1J_EE10take_frontCsd13wb5Vf9Kd_12wiggle_macro, symObjAddr: 0x5280, symBinAddr: 0x5E40, symSize: 0x2E0 }
  - { offset: 0x19E33, size: 0x8, addend: 0x0, symName: __RNvMsc_NtNtNtCslJiobkLta79_5alloc11collections5btree8navigateINtB5_13LazyLeafRangeNtNtNtB7_4node6marker5DyingNtNtNtCsHUR1vrdMJt_3std3ffi6os_str8OsStringINtNtCsieiGu2EXtoJ_4core6option6OptionB1J_EE10init_frontCsd13wb5Vf9Kd_12wiggle_macro, symObjAddr: 0x5560, symBinAddr: 0x6120, symSize: 0x280 }
  - { offset: 0x1A0E3, size: 0x8, addend: 0x0, symName: __RNvMse_NtNtNtCslJiobkLta79_5alloc11collections5btree4nodeINtB5_7NodeRefNtNtB5_6marker5DyingNtNtNtCsHUR1vrdMJt_3std3ffi6os_str8OsStringINtNtCsieiGu2EXtoJ_4core6option6OptionB1r_ENtB19_14LeafOrInternalE6ascendCsd13wb5Vf9Kd_12wiggle_macro, symObjAddr: 0x57E0, symBinAddr: 0x63A0, symSize: 0x230 }
  - { offset: 0x1A46B, size: 0x8, addend: 0x0, symName: __RNvMsp_NtNtNtCslJiobkLta79_5alloc11collections5btree8navigateINtNtB7_4node6HandleINtB10_7NodeRefNtNtB10_6marker5DyingNtNtNtCsHUR1vrdMJt_3std3ffi6os_str8OsStringINtNtCsieiGu2EXtoJ_4core6option6OptionB1R_ENtB1y_14LeafOrInternalENtB1y_2KVE14next_leaf_edgeCsd13wb5Vf9Kd_12wiggle_macro, symObjAddr: 0x5A10, symBinAddr: 0x65D0, symSize: 0x320 }
  - { offset: 0x1A6E7, size: 0x8, addend: 0x0, symName: __RNvMsx_NtNtNtCslJiobkLta79_5alloc11collections5btree3mapINtB5_8IntoIterNtNtNtCsHUR1vrdMJt_3std3ffi6os_str8OsStringINtNtCsieiGu2EXtoJ_4core6option6OptionB17_EE10dying_nextCsd13wb5Vf9Kd_12wiggle_macro, symObjAddr: 0x5D30, symBinAddr: 0x68F0, symSize: 0x90 }
  - { offset: 0x1B0E1, size: 0x8, addend: 0x0, symName: __RNvYINtNtNtNtCsieiGu2EXtoJ_4core4iter8adapters3map3MapINtNtB7_10filter_map9FilterMapINtNtNtBb_5slice4iter4IterNtNtCs8QreBtO1sIU_4witx3ast10DefinitionENCNvMs3_B1M_NtB1M_8Document7modules0ENCNvCsd13wb5Vf9Kd_12wiggle_macro20wasmtime_integration0ENtNtNtCs9OU1sGv5X54_5quote9___private3ext14RepIteratorExt15quote_into_iterB33_, symObjAddr: 0x8CF0, symBinAddr: 0x98A0, symSize: 0x30 }
  - { offset: 0x1B589, size: 0x8, addend: 0x0, symName: __RINvMs6_NtCsjK30CmJ87bX_9hashbrown3rawINtB6_8RawTableTNtCsaKzlTDPUHDb_11proc_macro25IdentNtBS_4SpanEE14reserve_rehashNCINvNtB8_3map11make_hasherBQ_B1p_NtNtNtCsHUR1vrdMJt_3std4hash6random11RandomStateE0ECsfMaSMcsiNJc_15wiggle_generate, symObjAddr: 0x0, symBinAddr: 0x285380, symSize: 0xD70 }
  - { offset: 0x1B5C5, size: 0x8, addend: 0x0, symName: __RNCINvMs6_NtCsjK30CmJ87bX_9hashbrown3rawINtB8_8RawTableTNtCsaKzlTDPUHDb_11proc_macro25IdentNtBU_4SpanEE14reserve_rehashNCINvNtBa_3map11make_hasherBS_B1r_NtNtNtCsHUR1vrdMJt_3std4hash6random11RandomStateE0E0CsfMaSMcsiNJc_15wiggle_generate, symObjAddr: 0x5A70, symBinAddr: 0xC100, symSize: 0xB0 }
  - { offset: 0x1B78B, size: 0x8, addend: 0x0, symName: __RNCINvMs6_NtCsjK30CmJ87bX_9hashbrown3rawINtB8_8RawTableTNtCsaKzlTDPUHDb_11proc_macro25IdentNtBU_4SpanEE14reserve_rehashNCINvNtBa_3map11make_hasherBS_B1r_NtNtNtCsHUR1vrdMJt_3std4hash6random11RandomStateE0Es_0CsfMaSMcsiNJc_15wiggle_generate, symObjAddr: 0x5B20, symBinAddr: 0xC1B0, symSize: 0x30 }
  - { offset: 0x1B7DB, size: 0x8, addend: 0x0, symName: __RNCINvMs6_NtCsjK30CmJ87bX_9hashbrown3rawINtB8_8RawTableTNtCsaKzlTDPUHDb_11proc_macro25IdentNtNtCsfMaSMcsiNJc_15wiggle_generate6config14ErrorConfFieldEE14reserve_rehashNCINvNtBa_3map11make_hasherBS_B1r_NtNtNtCsHUR1vrdMJt_3std4hash6random11RandomStateE0E0B1v_, symObjAddr: 0x5C00, symBinAddr: 0xC290, symSize: 0xB0 }
  - { offset: 0x1B9A1, size: 0x8, addend: 0x0, symName: __RNCINvMs6_NtCsjK30CmJ87bX_9hashbrown3rawINtB8_8RawTableTNtCsaKzlTDPUHDb_11proc_macro25IdentNtNtCsfMaSMcsiNJc_15wiggle_generate6config14ErrorConfFieldEE14reserve_rehashNCINvNtBa_3map11make_hasherBS_B1r_NtNtNtCsHUR1vrdMJt_3std4hash6random11RandomStateE0Es_0B1v_, symObjAddr: 0x5CB0, symBinAddr: 0xC340, symSize: 0x30 }
  - { offset: 0x1B9F1, size: 0x8, addend: 0x0, symName: __RNCINvMs6_NtCsjK30CmJ87bX_9hashbrown3rawINtB8_8RawTableTNtCsaKzlTDPUHDb_11proc_macro25IdentuEE14reserve_rehashNCINvNtBa_3map11make_hasherBS_uNtNtNtCsHUR1vrdMJt_3std4hash6random11RandomStateE0E0CsfMaSMcsiNJc_15wiggle_generate, symObjAddr: 0x5D90, symBinAddr: 0xC420, symSize: 0xB0 }
  - { offset: 0x1BBB7, size: 0x8, addend: 0x0, symName: __RNCINvMs6_NtCsjK30CmJ87bX_9hashbrown3rawINtB8_8RawTableTNtCsaKzlTDPUHDb_11proc_macro25IdentuEE14reserve_rehashNCINvNtBa_3map11make_hasherBS_uNtNtNtCsHUR1vrdMJt_3std4hash6random11RandomStateE0Es_0CsfMaSMcsiNJc_15wiggle_generate, symObjAddr: 0x5E40, symBinAddr: 0xC4D0, symSize: 0x30 }
  - { offset: 0x1BC07, size: 0x8, addend: 0x0, symName: __RNCINvMs6_NtCsjK30CmJ87bX_9hashbrown3rawINtB8_8RawTableTNtNtCslJiobkLta79_5alloc6string6StringINtNtBW_3vec3VecBS_EEE14reserve_rehashNCINvNtBa_3map11make_hasherBS_B1u_NtNtNtCsHUR1vrdMJt_3std4hash6random11RandomStateE0E0CsfMaSMcsiNJc_15wiggle_generate, symObjAddr: 0x5F20, symBinAddr: 0xC5B0, symSize: 0xB0 }
  - { offset: 0x1BDCD, size: 0x8, addend: 0x0, symName: __RNCINvMs6_NtCsjK30CmJ87bX_9hashbrown3rawINtB8_8RawTableTNtNtCslJiobkLta79_5alloc6string6StringINtNtBW_3vec3VecBS_EEE14reserve_rehashNCINvNtBa_3map11make_hasherBS_B1u_NtNtNtCsHUR1vrdMJt_3std4hash6random11RandomStateE0Es_0CsfMaSMcsiNJc_15wiggle_generate, symObjAddr: 0x5FD0, symBinAddr: 0xC660, symSize: 0x30 }
  - { offset: 0x1BE3F, size: 0x8, addend: 0x0, symName: __RNCINvMs6_NtCsjK30CmJ87bX_9hashbrown3rawINtB8_8RawTableTNtCsaKzlTDPUHDb_11proc_macro25IdentNtBU_4SpanEE24find_or_find_insert_slotNCINvNtBa_3map14equivalent_keyBS_BS_B1r_E0NCINvB28_11make_hasherBS_B1r_NtNtNtCsHUR1vrdMJt_3std4hash6random11RandomStateE0E0CsfMaSMcsiNJc_15wiggle_generate, symObjAddr: 0x5B50, symBinAddr: 0xC1E0, symSize: 0xB0 }
  - { offset: 0x1C015, size: 0x8, addend: 0x0, symName: __RNCINvMs6_NtCsjK30CmJ87bX_9hashbrown3rawINtB8_8RawTableTNtCsaKzlTDPUHDb_11proc_macro25IdentNtNtCsfMaSMcsiNJc_15wiggle_generate6config14ErrorConfFieldEE24find_or_find_insert_slotNCINvNtBa_3map14equivalent_keyBS_BS_B1r_E0NCINvB2U_11make_hasherBS_B1r_NtNtNtCsHUR1vrdMJt_3std4hash6random11RandomStateE0E0B1v_, symObjAddr: 0x5CE0, symBinAddr: 0xC370, symSize: 0xB0 }
  - { offset: 0x1C1EB, size: 0x8, addend: 0x0, symName: __RNCINvMs6_NtCsjK30CmJ87bX_9hashbrown3rawINtB8_8RawTableTNtCsaKzlTDPUHDb_11proc_macro25IdentuEE24find_or_find_insert_slotNCINvNtBa_3map14equivalent_keyBS_BS_uE0NCINvB1Z_11make_hasherBS_uNtNtNtCsHUR1vrdMJt_3std4hash6random11RandomStateE0E0CsfMaSMcsiNJc_15wiggle_generate, symObjAddr: 0x5E70, symBinAddr: 0xC500, symSize: 0xB0 }
  - { offset: 0x1C3C7, size: 0x8, addend: 0x0, symName: __RNCINvMs6_NtCsjK30CmJ87bX_9hashbrown3rawINtB8_8RawTableTNtNtCslJiobkLta79_5alloc6string6StringINtNtBW_3vec3VecBS_EEE4findNCINvNtBa_3map14equivalent_keyeBS_B1u_E0E0CsfMaSMcsiNJc_15wiggle_generate, symObjAddr: 0x6000, symBinAddr: 0xC690, symSize: 0xB0 }
  - { offset: 0x1C594, size: 0x8, addend: 0x0, symName: __RNCINvMs6_NtCsjK30CmJ87bX_9hashbrown3rawINtB8_8RawTableTNtNtCslJiobkLta79_5alloc6string6StringINtNtBW_3vec3VecBS_EEE4findNCNvMNtBa_11rustc_entryINtNtBa_3map7HashMapBS_B1u_NtNtNtCsHUR1vrdMJt_3std4hash6random11RandomStateE11rustc_entry0E0CsfMaSMcsiNJc_15wiggle_generate, symObjAddr: 0x60B0, symBinAddr: 0xC740, symSize: 0xB0 }
  - { offset: 0x1DF30, size: 0x8, addend: 0x0, symName: __RNCNvMse_NtCsjK30CmJ87bX_9hashbrown3rawINtB7_8RawTableTNtNtCslJiobkLta79_5alloc6string6StringINtNtBV_3vec3VecBR_EEE15clone_from_impl0CsfMaSMcsiNJc_15wiggle_generate, symObjAddr: 0x6160, symBinAddr: 0xC7F0, symSize: 0x1C0 }
  - { offset: 0x1E2E3, size: 0x8, addend: 0x0, symName: __RNvXsB_NtCsjK30CmJ87bX_9hashbrown3rawINtB5_11RawIntoIterTNtCsaKzlTDPUHDb_11proc_macro25IdentuEENtNtNtCsieiGu2EXtoJ_4core3ops4drop4Drop4dropCsfMaSMcsiNJc_15wiggle_generate, symObjAddr: 0x8AA0, symBinAddr: 0xF130, symSize: 0x70 }
  - { offset: 0x1E363, size: 0x8, addend: 0x0, symName: __RNvXsD_NtCsjK30CmJ87bX_9hashbrown3rawINtB5_11RawIntoIterTNtCsaKzlTDPUHDb_11proc_macro25IdentuEENtNtNtNtCsieiGu2EXtoJ_4core4iter6traits8iterator8Iterator4nextCsfMaSMcsiNJc_15wiggle_generate, symObjAddr: 0x8B10, symBinAddr: 0xF1A0, symSize: 0x140 }
  - { offset: 0x1E4FA, size: 0x8, addend: 0x0, symName: __RNvXsb_NtCsjK30CmJ87bX_9hashbrown3rawINtB5_8RawTableTNtNtCslJiobkLta79_5alloc6string6StringINtNtBT_3vec3VecBP_EEENtNtCsieiGu2EXtoJ_4core5clone5Clone5cloneCsfMaSMcsiNJc_15wiggle_generate, symObjAddr: 0x8C50, symBinAddr: 0xF2E0, symSize: 0x190 }
  - { offset: 0x1E5B2, size: 0x8, addend: 0x0, symName: __RNvXsc_NtCsjK30CmJ87bX_9hashbrown3rawINtB5_8RawTableTNtNtCslJiobkLta79_5alloc6string6StringINtNtBT_3vec3VecBP_EEENtB5_13RawTableClone15clone_from_specCsfMaSMcsiNJc_15wiggle_generate, symObjAddr: 0x8DE0, symBinAddr: 0xF470, symSize: 0x20 }
  - { offset: 0x1E602, size: 0x8, addend: 0x0, symName: __RNvXsg_NtCsjK30CmJ87bX_9hashbrown3rawINtB5_8RawTableTNtCsaKzlTDPUHDb_11proc_macro25IdentNtBR_4SpanEENtNtNtCsieiGu2EXtoJ_4core3ops4drop4Drop4dropCsfMaSMcsiNJc_15wiggle_generate, symObjAddr: 0x8E00, symBinAddr: 0xF490, symSize: 0x30 }
  - { offset: 0x1E63E, size: 0x8, addend: 0x0, symName: __RNvXsg_NtCsjK30CmJ87bX_9hashbrown3rawINtB5_8RawTableTNtCsaKzlTDPUHDb_11proc_macro25IdentNtNtCsfMaSMcsiNJc_15wiggle_generate6config14ErrorConfFieldEENtNtNtCsieiGu2EXtoJ_4core3ops4drop4Drop4dropB1s_, symObjAddr: 0x8E30, symBinAddr: 0xF4C0, symSize: 0x30 }
  - { offset: 0x1E67A, size: 0x8, addend: 0x0, symName: __RNvXsg_NtCsjK30CmJ87bX_9hashbrown3rawINtB5_8RawTableTNtCsaKzlTDPUHDb_11proc_macro25IdentuEENtNtNtCsieiGu2EXtoJ_4core3ops4drop4Drop4dropCsfMaSMcsiNJc_15wiggle_generate, symObjAddr: 0x8E60, symBinAddr: 0xF4F0, symSize: 0x30 }
  - { offset: 0x1E6B6, size: 0x8, addend: 0x0, symName: __RNvXsg_NtCsjK30CmJ87bX_9hashbrown3rawINtB5_8RawTableTNtNtCslJiobkLta79_5alloc6string6StringINtNtBT_3vec3VecBP_EEENtNtNtCsieiGu2EXtoJ_4core3ops4drop4Drop4dropCsfMaSMcsiNJc_15wiggle_generate, symObjAddr: 0x8E90, symBinAddr: 0xF520, symSize: 0x30 }
  - { offset: 0x1E6F8, size: 0x8, addend: 0x0, symName: __RNvXsh_NtCsjK30CmJ87bX_9hashbrown3rawINtB5_8RawTableTNtCsaKzlTDPUHDb_11proc_macro25IdentuEENtNtNtNtCsieiGu2EXtoJ_4core4iter6traits7collect12IntoIterator9into_iterCsfMaSMcsiNJc_15wiggle_generate, symObjAddr: 0x8EC0, symBinAddr: 0xF550, symSize: 0x180 }
  - { offset: 0x2B8AD, size: 0x8, addend: 0x0, symName: __RINvMs6_NtCsjK30CmJ87bX_9hashbrown3rawINtB6_8RawTableTNtCsaKzlTDPUHDb_11proc_macro25IdentNtBS_4SpanEE14reserve_rehashNCINvNtB8_3map11make_hasherBQ_B1p_NtNtNtCsHUR1vrdMJt_3std4hash6random11RandomStateE0ECsfMaSMcsiNJc_15wiggle_generate, symObjAddr: 0x0, symBinAddr: 0x285380, symSize: 0xD70 }
  - { offset: 0x2C380, size: 0x8, addend: 0x0, symName: __RINvMs6_NtCsjK30CmJ87bX_9hashbrown3rawINtB6_8RawTableTNtCsaKzlTDPUHDb_11proc_macro25IdentNtBS_4SpanEE24find_or_find_insert_slotNCINvNtB8_3map14equivalent_keyBQ_BQ_B1p_E0NCINvB26_11make_hasherBQ_B1p_NtNtNtCsHUR1vrdMJt_3std4hash6random11RandomStateE0ECsfMaSMcsiNJc_15wiggle_generate, symObjAddr: 0xD70, symBinAddr: 0x9C10, symSize: 0x160 }
  - { offset: 0x2C575, size: 0x8, addend: 0x0, symName: __RINvMs6_NtCsjK30CmJ87bX_9hashbrown3rawINtB6_8RawTableTNtCsaKzlTDPUHDb_11proc_macro25IdentNtBS_4SpanEE7reserveNCINvNtB8_3map11make_hasherBQ_B1p_NtNtNtCsHUR1vrdMJt_3std4hash6random11RandomStateE0ECsfMaSMcsiNJc_15wiggle_generate, symObjAddr: 0xED0, symBinAddr: 0x9D70, symSize: 0xC0 }
  - { offset: 0x2C64D, size: 0x8, addend: 0x0, symName: __RINvMs6_NtCsjK30CmJ87bX_9hashbrown3rawINtB6_8RawTableTNtCsaKzlTDPUHDb_11proc_macro25IdentNtNtCsfMaSMcsiNJc_15wiggle_generate6config14ErrorConfFieldEE14reserve_rehashNCINvNtB8_3map11make_hasherBQ_B1p_NtNtNtCsHUR1vrdMJt_3std4hash6random11RandomStateE0EB1t_, symObjAddr: 0xF90, symBinAddr: 0x2860F0, symSize: 0xD50 }
  - { offset: 0x2D120, size: 0x8, addend: 0x0, symName: __RINvMs6_NtCsjK30CmJ87bX_9hashbrown3rawINtB6_8RawTableTNtCsaKzlTDPUHDb_11proc_macro25IdentNtNtCsfMaSMcsiNJc_15wiggle_generate6config14ErrorConfFieldEE24find_or_find_insert_slotNCINvNtB8_3map14equivalent_keyBQ_BQ_B1p_E0NCINvB2S_11make_hasherBQ_B1p_NtNtNtCsHUR1vrdMJt_3std4hash6random11RandomStateE0EB1t_, symObjAddr: 0x1CE0, symBinAddr: 0x9E30, symSize: 0x160 }
  - { offset: 0x2D308, size: 0x8, addend: 0x0, symName: __RINvMs6_NtCsjK30CmJ87bX_9hashbrown3rawINtB6_8RawTableTNtCsaKzlTDPUHDb_11proc_macro25IdentNtNtCsfMaSMcsiNJc_15wiggle_generate6config14ErrorConfFieldEE7reserveNCINvNtB8_3map11make_hasherBQ_B1p_NtNtNtCsHUR1vrdMJt_3std4hash6random11RandomStateE0EB1t_, symObjAddr: 0x1E40, symBinAddr: 0x9F90, symSize: 0xC0 }
  - { offset: 0x2D3E0, size: 0x8, addend: 0x0, symName: __RINvMs6_NtCsjK30CmJ87bX_9hashbrown3rawINtB6_8RawTableTNtCsaKzlTDPUHDb_11proc_macro25IdentuEE14reserve_rehashNCINvNtB8_3map11make_hasherBQ_uNtNtNtCsHUR1vrdMJt_3std4hash6random11RandomStateE0ECsfMaSMcsiNJc_15wiggle_generate, symObjAddr: 0x1F00, symBinAddr: 0x286E40, symSize: 0xD70 }
  - { offset: 0x2DEB3, size: 0x8, addend: 0x0, symName: __RINvMs6_NtCsjK30CmJ87bX_9hashbrown3rawINtB6_8RawTableTNtCsaKzlTDPUHDb_11proc_macro25IdentuEE24find_or_find_insert_slotNCINvNtB8_3map14equivalent_keyBQ_BQ_uE0NCINvB1X_11make_hasherBQ_uNtNtNtCsHUR1vrdMJt_3std4hash6random11RandomStateE0ECsfMaSMcsiNJc_15wiggle_generate, symObjAddr: 0x2C70, symBinAddr: 0xA050, symSize: 0x160 }
  - { offset: 0x2E09B, size: 0x8, addend: 0x0, symName: __RINvMs6_NtCsjK30CmJ87bX_9hashbrown3rawINtB6_8RawTableTNtCsaKzlTDPUHDb_11proc_macro25IdentuEE7reserveNCINvNtB8_3map11make_hasherBQ_uNtNtNtCsHUR1vrdMJt_3std4hash6random11RandomStateE0ECsfMaSMcsiNJc_15wiggle_generate, symObjAddr: 0x2DD0, symBinAddr: 0xA1B0, symSize: 0xC0 }
  - { offset: 0x2E173, size: 0x8, addend: 0x0, symName: __RINvMs6_NtCsjK30CmJ87bX_9hashbrown3rawINtB6_8RawTableTNtNtCslJiobkLta79_5alloc6string6StringINtNtBU_3vec3VecBQ_EEE14reserve_rehashNCINvNtB8_3map11make_hasherBQ_B1s_NtNtNtCsHUR1vrdMJt_3std4hash6random11RandomStateE0ECsfMaSMcsiNJc_15wiggle_generate, symObjAddr: 0x2E90, symBinAddr: 0x287BB0, symSize: 0xD50 }
  - { offset: 0x2EE83, size: 0x8, addend: 0x0, symName: __RINvMs6_NtCsjK30CmJ87bX_9hashbrown3rawINtB6_8RawTableTNtNtCslJiobkLta79_5alloc6string6StringINtNtBU_3vec3VecBQ_EEE4findNCINvNtB8_3map14equivalent_keyeBQ_B1s_E0ECsfMaSMcsiNJc_15wiggle_generate, symObjAddr: 0x3BE0, symBinAddr: 0xA270, symSize: 0x490 }
  - { offset: 0x2F434, size: 0x8, addend: 0x0, symName: __RINvMs6_NtCsjK30CmJ87bX_9hashbrown3rawINtB6_8RawTableTNtNtCslJiobkLta79_5alloc6string6StringINtNtBU_3vec3VecBQ_EEE4findNCNvMNtB8_11rustc_entryINtNtB8_3map7HashMapBQ_B1s_NtNtNtCsHUR1vrdMJt_3std4hash6random11RandomStateE11rustc_entry0ECsfMaSMcsiNJc_15wiggle_generate, symObjAddr: 0x4070, symBinAddr: 0xA700, symSize: 0x480 }
  - { offset: 0x2F940, size: 0x8, addend: 0x0, symName: __RINvMs6_NtCsjK30CmJ87bX_9hashbrown3rawINtB6_8RawTableTNtNtCslJiobkLta79_5alloc6string6StringINtNtBU_3vec3VecBQ_EEE7reserveNCINvNtB8_3map11make_hasherBQ_B1s_NtNtNtCsHUR1vrdMJt_3std4hash6random11RandomStateE0ECsfMaSMcsiNJc_15wiggle_generate, symObjAddr: 0x44F0, symBinAddr: 0xAB80, symSize: 0xC0 }
  - { offset: 0x2FB32, size: 0x8, addend: 0x0, symName: __RINvMsa_NtCsjK30CmJ87bX_9hashbrown3rawNtB6_13RawTableInner13drop_elementsTNtCsaKzlTDPUHDb_11proc_macro25IdentNtB1c_4SpanEECsfMaSMcsiNJc_15wiggle_generate, symObjAddr: 0x45B0, symBinAddr: 0xAC40, symSize: 0x1D0 }
  - { offset: 0x2FE89, size: 0x8, addend: 0x0, symName: __RINvMsa_NtCsjK30CmJ87bX_9hashbrown3rawNtB6_13RawTableInner13drop_elementsTNtCsaKzlTDPUHDb_11proc_macro25IdentNtNtCsfMaSMcsiNJc_15wiggle_generate6config14ErrorConfFieldEEB1N_, symObjAddr: 0x4780, symBinAddr: 0xAE10, symSize: 0x1D0 }
  - { offset: 0x301E0, size: 0x8, addend: 0x0, symName: __RINvMsa_NtCsjK30CmJ87bX_9hashbrown3rawNtB6_13RawTableInner13drop_elementsTNtCsaKzlTDPUHDb_11proc_macro25IdentuEECsfMaSMcsiNJc_15wiggle_generate, symObjAddr: 0x4950, symBinAddr: 0xAFE0, symSize: 0x1D0 }
  - { offset: 0x30537, size: 0x8, addend: 0x0, symName: __RINvMsa_NtCsjK30CmJ87bX_9hashbrown3rawNtB6_13RawTableInner13drop_elementsTNtNtCslJiobkLta79_5alloc6string6StringINtNtB1e_3vec3VecB1a_EEECsfMaSMcsiNJc_15wiggle_generate, symObjAddr: 0x4B20, symBinAddr: 0xB1B0, symSize: 0x1D0 }
  - { offset: 0x3089A, size: 0x8, addend: 0x0, symName: __RINvMsa_NtCsjK30CmJ87bX_9hashbrown3rawNtB6_13RawTableInner16drop_inner_tableTNtCsaKzlTDPUHDb_11proc_macro25IdentNtB1f_4SpanENtNtCslJiobkLta79_5alloc5alloc6GlobalECsfMaSMcsiNJc_15wiggle_generate, symObjAddr: 0x4CF0, symBinAddr: 0xB380, symSize: 0xD0 }
  - { offset: 0x30B13, size: 0x8, addend: 0x0, symName: __RINvMsa_NtCsjK30CmJ87bX_9hashbrown3rawNtB6_13RawTableInner16drop_inner_tableTNtCsaKzlTDPUHDb_11proc_macro25IdentNtNtCsfMaSMcsiNJc_15wiggle_generate6config14ErrorConfFieldENtNtCslJiobkLta79_5alloc5alloc6GlobalEB1Q_, symObjAddr: 0x4DC0, symBinAddr: 0xB450, symSize: 0xD0 }
  - { offset: 0x30D8C, size: 0x8, addend: 0x0, symName: __RINvMsa_NtCsjK30CmJ87bX_9hashbrown3rawNtB6_13RawTableInner16drop_inner_tableTNtCsaKzlTDPUHDb_11proc_macro25IdentuENtNtCslJiobkLta79_5alloc5alloc6GlobalECsfMaSMcsiNJc_15wiggle_generate, symObjAddr: 0x4E90, symBinAddr: 0xB520, symSize: 0xD0 }
  - { offset: 0x31005, size: 0x8, addend: 0x0, symName: __RINvMsa_NtCsjK30CmJ87bX_9hashbrown3rawNtB6_13RawTableInner16drop_inner_tableTNtNtCslJiobkLta79_5alloc6string6StringINtNtB1h_3vec3VecB1d_EENtNtB1h_5alloc6GlobalECsfMaSMcsiNJc_15wiggle_generate, symObjAddr: 0x4F60, symBinAddr: 0xB5F0, symSize: 0xD0 }
  - { offset: 0x3130B, size: 0x8, addend: 0x0, symName: __RINvMsi_NtCsjK30CmJ87bX_9hashbrown3rawINtB6_12RawIterRangeTNtCsaKzlTDPUHDb_11proc_macro25IdentNtBX_4SpanEE9next_implKb0_ECsfMaSMcsiNJc_15wiggle_generate, symObjAddr: 0x5030, symBinAddr: 0xB6C0, symSize: 0x290 }
  - { offset: 0x31815, size: 0x8, addend: 0x0, symName: __RINvMsi_NtCsjK30CmJ87bX_9hashbrown3rawINtB6_12RawIterRangeTNtCsaKzlTDPUHDb_11proc_macro25IdentNtNtCsfMaSMcsiNJc_15wiggle_generate6config14ErrorConfFieldEE9next_implKb0_EB1y_, symObjAddr: 0x52C0, symBinAddr: 0xB950, symSize: 0x290 }
  - { offset: 0x31D1F, size: 0x8, addend: 0x0, symName: __RINvMsi_NtCsjK30CmJ87bX_9hashbrown3rawINtB6_12RawIterRangeTNtCsaKzlTDPUHDb_11proc_macro25IdentuEE9next_implKb0_ECsfMaSMcsiNJc_15wiggle_generate, symObjAddr: 0x5550, symBinAddr: 0xBBE0, symSize: 0x290 }
  - { offset: 0x32229, size: 0x8, addend: 0x0, symName: __RINvMsi_NtCsjK30CmJ87bX_9hashbrown3rawINtB6_12RawIterRangeTNtNtCslJiobkLta79_5alloc6string6StringINtNtBZ_3vec3VecBV_EEE9next_implKb0_ECsfMaSMcsiNJc_15wiggle_generate, symObjAddr: 0x57E0, symBinAddr: 0xBE70, symSize: 0x290 }
  - { offset: 0x33315, size: 0x8, addend: 0x0, symName: __RNvMs1_NtCsjK30CmJ87bX_9hashbrown3rawNtB5_11TableLayout20calculate_layout_forCsfMaSMcsiNJc_15wiggle_generate, symObjAddr: 0x6320, symBinAddr: 0xC9B0, symSize: 0x2F0 }
  - { offset: 0x337B8, size: 0x8, addend: 0x0, symName: __RNvMs6_NtCsjK30CmJ87bX_9hashbrown3rawINtB5_8RawTableTNtCsaKzlTDPUHDb_11proc_macro25IdentNtBR_4SpanEE14insert_in_slotCsfMaSMcsiNJc_15wiggle_generate, symObjAddr: 0x6610, symBinAddr: 0xCCA0, symSize: 0x150 }
  - { offset: 0x33CFB, size: 0x8, addend: 0x0, symName: __RNvMs6_NtCsjK30CmJ87bX_9hashbrown3rawINtB5_8RawTableTNtCsaKzlTDPUHDb_11proc_macro25IdentNtNtCsfMaSMcsiNJc_15wiggle_generate6config14ErrorConfFieldEE14insert_in_slotB1s_, symObjAddr: 0x6760, symBinAddr: 0xCDF0, symSize: 0x140 }
  - { offset: 0x3423E, size: 0x8, addend: 0x0, symName: __RNvMs6_NtCsjK30CmJ87bX_9hashbrown3rawINtB5_8RawTableTNtCsaKzlTDPUHDb_11proc_macro25IdentuEE14insert_in_slotCsfMaSMcsiNJc_15wiggle_generate, symObjAddr: 0x68A0, symBinAddr: 0xCF30, symSize: 0x150 }
  - { offset: 0x345C7, size: 0x8, addend: 0x0, symName: __RNvMs6_NtCsjK30CmJ87bX_9hashbrown3rawINtB5_8RawTableTNtCsaKzlTDPUHDb_11proc_macro25IdentuEE14into_iter_fromCsfMaSMcsiNJc_15wiggle_generate, symObjAddr: 0x69F0, symBinAddr: 0xD080, symSize: 0xA0 }
  - { offset: 0x346A1, size: 0x8, addend: 0x0, symName: __RNvMs6_NtCsjK30CmJ87bX_9hashbrown3rawINtB5_8RawTableTNtCsaKzlTDPUHDb_11proc_macro25IdentuEE15into_allocationCsfMaSMcsiNJc_15wiggle_generate, symObjAddr: 0x6A90, symBinAddr: 0xD120, symSize: 0x1A0 }
  - { offset: 0x348E5, size: 0x8, addend: 0x0, symName: __RNvMs6_NtCsjK30CmJ87bX_9hashbrown3rawINtB5_8RawTableTNtNtCslJiobkLta79_5alloc6string6StringINtNtBT_3vec3VecBP_EEE14insert_no_growCsfMaSMcsiNJc_15wiggle_generate, symObjAddr: 0x6C30, symBinAddr: 0xD2C0, symSize: 0x180 }
  - { offset: 0x34B40, size: 0x8, addend: 0x0, symName: __RNvMs6_NtCsjK30CmJ87bX_9hashbrown3rawINtB5_8RawTableTNtNtCslJiobkLta79_5alloc6string6StringINtNtBT_3vec3VecBP_EEE17new_uninitializedCsfMaSMcsiNJc_15wiggle_generate, symObjAddr: 0x6DB0, symBinAddr: 0xD440, symSize: 0x1F0 }
  - { offset: 0x34D79, size: 0x8, addend: 0x0, symName: __RNvMsa_NtCsjK30CmJ87bX_9hashbrown3rawNtB5_13RawTableInner15fix_insert_slotCsfMaSMcsiNJc_15wiggle_generate, symObjAddr: 0x6FA0, symBinAddr: 0xD630, symSize: 0x140 }
  - { offset: 0x3511F, size: 0x8, addend: 0x0, symName: __RNvMsa_NtCsjK30CmJ87bX_9hashbrown3rawNtB5_13RawTableInner15rehash_in_placeCsfMaSMcsiNJc_15wiggle_generate, symObjAddr: 0x70E0, symBinAddr: 0xD770, symSize: 0x5B0 }
  - { offset: 0x358EB, size: 0x8, addend: 0x0, symName: __RNvMsa_NtCsjK30CmJ87bX_9hashbrown3rawNtB5_13RawTableInner16find_insert_slotCsfMaSMcsiNJc_15wiggle_generate, symObjAddr: 0x7690, symBinAddr: 0xDD20, symSize: 0x130 }
  - { offset: 0x35AEA, size: 0x8, addend: 0x0, symName: __RNvMsa_NtCsjK30CmJ87bX_9hashbrown3rawNtB5_13RawTableInner19prepare_insert_slotCsfMaSMcsiNJc_15wiggle_generate, symObjAddr: 0x77C0, symBinAddr: 0xDE50, symSize: 0x60 }
  - { offset: 0x35DDB, size: 0x8, addend: 0x0, symName: __RNvMsa_NtCsjK30CmJ87bX_9hashbrown3rawNtB5_13RawTableInner23prepare_rehash_in_placeCsfMaSMcsiNJc_15wiggle_generate, symObjAddr: 0x7820, symBinAddr: 0xDEB0, symSize: 0x340 }
  - { offset: 0x36502, size: 0x8, addend: 0x0, symName: __RNvMsa_NtCsjK30CmJ87bX_9hashbrown3rawNtB5_13RawTableInner25find_insert_slot_in_groupCsfMaSMcsiNJc_15wiggle_generate, symObjAddr: 0x7B60, symBinAddr: 0xE1F0, symSize: 0x160 }
  - { offset: 0x36800, size: 0x8, addend: 0x0, symName: __RNvMsa_NtCsjK30CmJ87bX_9hashbrown3rawNtB5_13RawTableInner30find_or_find_insert_slot_innerCsfMaSMcsiNJc_15wiggle_generate, symObjAddr: 0x7CC0, symBinAddr: 0xE350, symSize: 0x410 }
  - { offset: 0x36ECD, size: 0x8, addend: 0x0, symName: __RNvMse_NtCsjK30CmJ87bX_9hashbrown3rawINtB5_8RawTableTNtNtCslJiobkLta79_5alloc6string6StringINtNtBT_3vec3VecBP_EEE15clone_from_implCsfMaSMcsiNJc_15wiggle_generate, symObjAddr: 0x80D0, symBinAddr: 0xE760, symSize: 0x470 }
  - { offset: 0x375A1, size: 0x8, addend: 0x0, symName: __RNvMsi_NtCsjK30CmJ87bX_9hashbrown3rawINtB5_12RawIterRangeTNtCsaKzlTDPUHDb_11proc_macro25IdentNtBW_4SpanEE3newCsfMaSMcsiNJc_15wiggle_generate, symObjAddr: 0x8540, symBinAddr: 0xEBD0, symSize: 0x120 }
  - { offset: 0x378C1, size: 0x8, addend: 0x0, symName: __RNvMsi_NtCsjK30CmJ87bX_9hashbrown3rawINtB5_12RawIterRangeTNtCsaKzlTDPUHDb_11proc_macro25IdentNtNtCsfMaSMcsiNJc_15wiggle_generate6config14ErrorConfFieldEE3newB1x_, symObjAddr: 0x8660, symBinAddr: 0xECF0, symSize: 0x120 }
  - { offset: 0x37BE1, size: 0x8, addend: 0x0, symName: __RNvMsi_NtCsjK30CmJ87bX_9hashbrown3rawINtB5_12RawIterRangeTNtCsaKzlTDPUHDb_11proc_macro25IdentuEE3newCsfMaSMcsiNJc_15wiggle_generate, symObjAddr: 0x8780, symBinAddr: 0xEE10, symSize: 0x120 }
  - { offset: 0x37F01, size: 0x8, addend: 0x0, symName: __RNvMsi_NtCsjK30CmJ87bX_9hashbrown3rawINtB5_12RawIterRangeTNtNtCslJiobkLta79_5alloc6string6StringINtNtBY_3vec3VecBU_EEE3newCsfMaSMcsiNJc_15wiggle_generate, symObjAddr: 0x88A0, symBinAddr: 0xEF30, symSize: 0x120 }
  - { offset: 0x381FD, size: 0x8, addend: 0x0, symName: __RNvMso_NtCsjK30CmJ87bX_9hashbrown3rawINtB5_7RawIterTNtCsaKzlTDPUHDb_11proc_macro25IdentuEE13drop_elementsCsfMaSMcsiNJc_15wiggle_generate, symObjAddr: 0x89C0, symBinAddr: 0xF050, symSize: 0xE0 }
  - { offset: 0x38532, size: 0x8, addend: 0x0, symName: __RINvMs_NtCslJiobkLta79_5alloc3vecINtB5_3VecNtCsaKzlTDPUHDb_11proc_macro211TokenStreamE5drainINtNtNtCsieiGu2EXtoJ_4core3ops5range9RangeFromjEECsfMaSMcsiNJc_15wiggle_generate, symObjAddr: 0x0, symBinAddr: 0xF6D0, symSize: 0x1E0 }
  - { offset: 0x3E6B3, size: 0x8, addend: 0x0, symName: __RNvXs19_NtCsieiGu2EXtoJ_4core3fmtRINtNtCslJiobkLta79_5alloc3vec3VecNtNtCs8QreBtO1sIU_4witx3ast12RecordMemberENtB6_5Debug3fmtCsfMaSMcsiNJc_15wiggle_generate, symObjAddr: 0x52A0, symBinAddr: 0x14940, symSize: 0x20 }
  - { offset: 0x3E6F9, size: 0x8, addend: 0x0, symName: __RNvXs19_NtCsieiGu2EXtoJ_4core3fmtRINtNtCslJiobkLta79_5alloc3vec3VecNtNtCs8QreBtO1sIU_4witx3ast4CaseENtB6_5Debug3fmtCsfMaSMcsiNJc_15wiggle_generate, symObjAddr: 0x52C0, symBinAddr: 0x14960, symSize: 0x20 }
  - { offset: 0x40C58, size: 0x8, addend: 0x0, symName: __RINvXsd_NtCslJiobkLta79_5alloc3vecINtB6_3VecNtCsaKzlTDPUHDb_11proc_macro211TokenStreamEINtNtNtNtCsieiGu2EXtoJ_4core4iter6traits7collect12FromIteratorBG_E9from_iterINtNtNtB1u_8adapters3map3MapINtNtB2G_3zip3ZipINtNtNtB1w_5slice4iter4IterNtBI_5IdentEIB3l_BG_EENCNvNtCsfMaSMcsiNJc_15wiggle_generate8wasmtime13generate_funcs0_0EEB4d_, symObjAddr: 0x1EC0, symBinAddr: 0x11590, symSize: 0x40 }
  - { offset: 0x40C99, size: 0x8, addend: 0x0, symName: __RINvXsd_NtCslJiobkLta79_5alloc3vecINtB6_3VecNtCsaKzlTDPUHDb_11proc_macro211TokenStreamEINtNtNtNtCsieiGu2EXtoJ_4core4iter6traits7collect12FromIteratorBG_E9from_iterINtNtNtB1u_8adapters3map3MapINtNtNtB1w_5slice4iter4IterNtNtCs8QreBtO1sIU_4witx3abi8WasmTypeENCNvNtCsfMaSMcsiNJc_15wiggle_generate8wasmtime13generate_funcs_0EEB4b_, symObjAddr: 0x1F00, symBinAddr: 0x115D0, symSize: 0x60 }
  - { offset: 0x40CD9, size: 0x8, addend: 0x0, symName: __RINvXsd_NtCslJiobkLta79_5alloc3vecINtB6_3VecNtCsaKzlTDPUHDb_11proc_macro211TokenStreamEINtNtNtNtCsieiGu2EXtoJ_4core4iter6traits7collect12FromIteratorBG_E9from_iterINtNtNtB1u_8adapters3map3MapINtNtNtB1w_5slice4iter4IterNtNtCs8QreBtO1sIU_4witx3ast12RecordMemberENCNvNtCsfMaSMcsiNJc_15wiggle_generate5names8type_ref0EEB4g_, symObjAddr: 0x1F60, symBinAddr: 0x11630, symSize: 0x40 }
  - { offset: 0x40D1A, size: 0x8, addend: 0x0, symName: __RINvXsd_NtCslJiobkLta79_5alloc3vecINtB6_3VecNtCsaKzlTDPUHDb_11proc_macro211TokenStreamEINtNtNtNtCsieiGu2EXtoJ_4core4iter6traits7collect12FromIteratorBG_E9from_iterINtNtNtB1u_8adapters3map3MapINtNtNtB1w_5slice4iter4IterNtNtCs8QreBtO1sIU_4witx3ast18InterfaceFuncParamENCNvXs_NtCsfMaSMcsiNJc_15wiggle_generate5funcsNtB4n_4RustNtNtB3y_3abi7Bindgen4emits0_0EEB4p_, symObjAddr: 0x1FA0, symBinAddr: 0x11670, symSize: 0x60 }
  - { offset: 0x40D5A, size: 0x8, addend: 0x0, symName: __RINvXsd_NtCslJiobkLta79_5alloc3vecINtB6_3VecNtCsaKzlTDPUHDb_11proc_macro25IdentEINtNtNtNtCsieiGu2EXtoJ_4core4iter6traits7collect12FromIteratorBG_E9from_iterINtNtNtB1n_8adapters3map3MapINtNtNtB1p_3ops5range5RangejENCNvNtCsfMaSMcsiNJc_15wiggle_generate5funcs12__define_func0EEB3v_, symObjAddr: 0x2000, symBinAddr: 0x116D0, symSize: 0x60 }
  - { offset: 0x40D9A, size: 0x8, addend: 0x0, symName: __RINvXsd_NtCslJiobkLta79_5alloc3vecINtB6_3VecNtCsaKzlTDPUHDb_11proc_macro25IdentEINtNtNtNtCsieiGu2EXtoJ_4core4iter6traits7collect12FromIteratorBG_E9from_iterINtNtNtB1n_8adapters3map3MapINtNtNtB1p_3ops5range5RangejENCNvNtCsfMaSMcsiNJc_15wiggle_generate8wasmtime13generate_func0EEB3v_, symObjAddr: 0x2060, symBinAddr: 0x11730, symSize: 0x60 }
  - { offset: 0x40DDA, size: 0x8, addend: 0x0, symName: __RINvXsd_NtCslJiobkLta79_5alloc3vecINtB6_3VecNtCsaKzlTDPUHDb_11proc_macro25IdentEINtNtNtNtCsieiGu2EXtoJ_4core4iter6traits7collect12FromIteratorBG_E9from_iterINtNtNtB1n_8adapters3map3MapINtNtNtB1p_3ops5range5RangejENCNvXs_NtCsfMaSMcsiNJc_15wiggle_generate5funcsNtB3w_4RustNtNtCs8QreBtO1sIU_4witx3abi7Bindgen4emits1_0EEB3y_, symObjAddr: 0x20C0, symBinAddr: 0x11790, symSize: 0x60 }
  - { offset: 0x40E1A, size: 0x8, addend: 0x0, symName: __RINvXsd_NtCslJiobkLta79_5alloc3vecINtB6_3VecNtCsaKzlTDPUHDb_11proc_macro25IdentEINtNtNtNtCsieiGu2EXtoJ_4core4iter6traits7collect12FromIteratorBG_E9from_iterINtNtNtB1n_8adapters6cloned6ClonedINtNtCsdGrGZaRBwMb_3syn10punctuated4IterBG_EEECsfMaSMcsiNJc_15wiggle_generate, symObjAddr: 0x2120, symBinAddr: 0x117F0, symSize: 0x60 }
  - { offset: 0x40E5A, size: 0x8, addend: 0x0, symName: __RINvXsd_NtCslJiobkLta79_5alloc3vecINtB6_3VecNtNtB8_6string6StringEINtNtNtNtCsieiGu2EXtoJ_4core4iter6traits7collect12FromIteratorBG_E9from_iterINtNtNtB19_8adapters3map3MapINtNtNtB1b_5slice4iter4IterNtCsaKzlTDPUHDb_11proc_macro25IdentENCNvXsi_NtCsfMaSMcsiNJc_15wiggle_generate6configNtB3R_14AsyncFunctionsNtNtCsdGrGZaRBwMb_3syn5parse5Parse5parse0EEB3T_, symObjAddr: 0x2180, symBinAddr: 0x11850, symSize: 0x60 }
  - { offset: 0x40E9A, size: 0x8, addend: 0x0, symName: __RINvXsd_NtCslJiobkLta79_5alloc3vecINtB6_3VecNtNtB8_6string6StringEINtNtNtNtCsieiGu2EXtoJ_4core4iter6traits7collect12FromIteratorBG_E9from_iterINtNtNtB19_8adapters3map3MapINtNtNtB1b_5slice4iter4IterNtCsaKzlTDPUHDb_11proc_macro25IdentENCNvXsp_NtCsfMaSMcsiNJc_15wiggle_generate6configNtB3R_11TracingConfNtNtCsdGrGZaRBwMb_3syn5parse5Parse5parse0EEB3T_, symObjAddr: 0x21E0, symBinAddr: 0x118B0, symSize: 0x60 }
  - { offset: 0x40EDA, size: 0x8, addend: 0x0, symName: __RINvXsd_NtCslJiobkLta79_5alloc3vecINtB6_3VecNtNtCsHUR1vrdMJt_3std4path7PathBufEINtNtNtNtCsieiGu2EXtoJ_4core4iter6traits7collect12FromIteratorBG_E9from_iterINtNtNtB1m_8adapters3map3MapINtNtCsdGrGZaRBwMb_3syn10punctuated4IterNtNtB30_3lit6LitStrENCNvXs7_NtCsfMaSMcsiNJc_15wiggle_generate6configNtB41_5PathsNtNtB30_5parse5Parse5parse0EEB43_, symObjAddr: 0x2240, symBinAddr: 0x11910, symSize: 0x60 }
  - { offset: 0x40F1A, size: 0x8, addend: 0x0, symName: __RINvXsd_NtCslJiobkLta79_5alloc3vecINtB6_3VecNtNtCsfMaSMcsiNJc_15wiggle_generate16codegen_settings9ErrorTypeEINtNtNtNtCsieiGu2EXtoJ_4core4iter6traits7collect12FromIteratorBG_E9from_iterINtNtB1P_8adapters12GenericShuntINtNtB2Z_3map3MapINtNtNtNtCsHUR1vrdMJt_3std11collections4hash3map4IterNtCsaKzlTDPUHDb_11proc_macro25IdentNtNtBK_6config14ErrorConfFieldENCNvMs_BI_NtBI_14ErrorTransform3new0EINtNtB1R_6result6ResultNtNtB1R_7convert10InfallibleNtCs5LsBMV3VaIp_6anyhow5ErrorEEEBK_, symObjAddr: 0x22A0, symBinAddr: 0x11970, symSize: 0x40 }
  - { offset: 0x40F5B, size: 0x8, addend: 0x0, symName: __RINvXsd_NtCslJiobkLta79_5alloc3vecINtB6_3VecRNtNtCsHUR1vrdMJt_3std4path4PathEINtNtNtNtCsieiGu2EXtoJ_4core4iter6traits7collect12FromIteratorBG_E9from_iterINtNtNtB1k_8adapters3map3MapINtNtNtB1m_5slice4iter4IterNtBJ_7PathBufENCINvNtCs8QreBtO1sIU_4witx8toplevel10parse_witxB3k_E0EECsfMaSMcsiNJc_15wiggle_generate, symObjAddr: 0x22E0, symBinAddr: 0x119B0, symSize: 0x60 }
  - { offset: 0x40FA1, size: 0x8, addend: 0x0, symName: __RINvXsh_NtCslJiobkLta79_5alloc3vecINtB6_3VecNtCsaKzlTDPUHDb_11proc_macro211TokenStreamEINtNtNtNtCsieiGu2EXtoJ_4core4iter6traits7collect6ExtendBG_E6extendINtNtB6_5drain5DrainBG_EECsfMaSMcsiNJc_15wiggle_generate, symObjAddr: 0x2340, symBinAddr: 0x11A10, symSize: 0x40 }
  - { offset: 0x40FF6, size: 0x8, addend: 0x0, symName: __RINvXsh_NtCslJiobkLta79_5alloc3vecINtB6_3VecNtCsaKzlTDPUHDb_11proc_macro211TokenStreamEINtNtNtNtCsieiGu2EXtoJ_4core4iter6traits7collect6ExtendBG_E6extendINtNtNtB1u_8adapters3map3MapINtNtNtB1w_5slice4iter4IterNtBI_5IdentENCNvXs_NtCsfMaSMcsiNJc_15wiggle_generate5funcsNtB3D_4RustNtNtCs8QreBtO1sIU_4witx3abi7Bindgen4emits2_0EEB3F_, symObjAddr: 0x2380, symBinAddr: 0x11A50, symSize: 0x50 }
  - { offset: 0x4104A, size: 0x8, addend: 0x0, symName: __RINvXsh_NtCslJiobkLta79_5alloc3vecINtB6_3VecNtNtB8_6string6StringEINtNtNtNtCsieiGu2EXtoJ_4core4iter6traits7collect6ExtendBG_E6extendBw_ECsfMaSMcsiNJc_15wiggle_generate, symObjAddr: 0x23D0, symBinAddr: 0x11AA0, symSize: 0x40 }
  - { offset: 0x410AA, size: 0x8, addend: 0x0, symName: __RNCINvMsi_NtCslJiobkLta79_5alloc3vecINtB8_3VecNtCsaKzlTDPUHDb_11proc_macro211TokenStreamE14extend_trustedINtNtB8_5drain5DrainBI_EE0CsfMaSMcsiNJc_15wiggle_generate, symObjAddr: 0x2410, symBinAddr: 0x11AE0, symSize: 0x50 }
  - { offset: 0x41167, size: 0x8, addend: 0x0, symName: __RNCINvMsi_NtCslJiobkLta79_5alloc3vecINtB8_3VecNtCsaKzlTDPUHDb_11proc_macro211TokenStreamE14extend_trustedINtNtNtNtCsieiGu2EXtoJ_4core4iter8adapters3map3MapINtNtB1K_3zip3ZipINtNtNtB1O_5slice4iter4IterNtBK_5IdentEIB2L_BI_EENCNvNtCsfMaSMcsiNJc_15wiggle_generate8wasmtime13generate_funcs0_0EE0B3D_, symObjAddr: 0x2460, symBinAddr: 0x11B30, symSize: 0x50 }
  - { offset: 0x41224, size: 0x8, addend: 0x0, symName: __RNCINvMsi_NtCslJiobkLta79_5alloc3vecINtB8_3VecNtCsaKzlTDPUHDb_11proc_macro211TokenStreamE14extend_trustedINtNtNtNtCsieiGu2EXtoJ_4core4iter8adapters3map3MapINtNtNtB1O_5slice4iter4IterNtBK_5IdentENCNvXs_NtCsfMaSMcsiNJc_15wiggle_generate5funcsNtB3d_4RustNtNtCs8QreBtO1sIU_4witx3abi7Bindgen4emits2_0EE0B3f_, symObjAddr: 0x24B0, symBinAddr: 0x11B80, symSize: 0x50 }
  - { offset: 0x412E1, size: 0x8, addend: 0x0, symName: __RNCINvMsi_NtCslJiobkLta79_5alloc3vecINtB8_3VecNtCsaKzlTDPUHDb_11proc_macro211TokenStreamE14extend_trustedINtNtNtNtCsieiGu2EXtoJ_4core4iter8adapters3map3MapINtNtNtB1O_5slice4iter4IterNtNtCs8QreBtO1sIU_4witx3abi8WasmTypeENCNvNtCsfMaSMcsiNJc_15wiggle_generate8wasmtime13generate_funcs_0EE0B3B_, symObjAddr: 0x2500, symBinAddr: 0x11BD0, symSize: 0x50 }
  - { offset: 0x4139E, size: 0x8, addend: 0x0, symName: __RNCINvMsi_NtCslJiobkLta79_5alloc3vecINtB8_3VecNtCsaKzlTDPUHDb_11proc_macro211TokenStreamE14extend_trustedINtNtNtNtCsieiGu2EXtoJ_4core4iter8adapters3map3MapINtNtNtB1O_5slice4iter4IterNtNtCs8QreBtO1sIU_4witx3ast12RecordMemberENCNvNtCsfMaSMcsiNJc_15wiggle_generate5names8type_ref0EE0B3G_, symObjAddr: 0x2550, symBinAddr: 0x11C20, symSize: 0x50 }
  - { offset: 0x4145B, size: 0x8, addend: 0x0, symName: __RNCINvMsi_NtCslJiobkLta79_5alloc3vecINtB8_3VecNtCsaKzlTDPUHDb_11proc_macro211TokenStreamE14extend_trustedINtNtNtNtCsieiGu2EXtoJ_4core4iter8adapters3map3MapINtNtNtB1O_5slice4iter4IterNtNtCs8QreBtO1sIU_4witx3ast18InterfaceFuncParamENCNvXs_NtCsfMaSMcsiNJc_15wiggle_generate5funcsNtB3N_4RustNtNtB2Y_3abi7Bindgen4emits0_0EE0B3P_, symObjAddr: 0x25A0, symBinAddr: 0x11C70, symSize: 0x50 }
  - { offset: 0x41518, size: 0x8, addend: 0x0, symName: __RNCINvMsi_NtCslJiobkLta79_5alloc3vecINtB8_3VecNtCsaKzlTDPUHDb_11proc_macro25IdentE14extend_trustedINtNtNtNtCsieiGu2EXtoJ_4core4iter8adapters3map3MapINtNtNtB1H_3ops5range5RangejENCNvNtCsfMaSMcsiNJc_15wiggle_generate5funcs12__define_func0EE0B2V_, symObjAddr: 0x25F0, symBinAddr: 0x11CC0, symSize: 0x40 }
  - { offset: 0x415C0, size: 0x8, addend: 0x0, symName: __RNCINvMsi_NtCslJiobkLta79_5alloc3vecINtB8_3VecNtCsaKzlTDPUHDb_11proc_macro25IdentE14extend_trustedINtNtNtNtCsieiGu2EXtoJ_4core4iter8adapters3map3MapINtNtNtB1H_3ops5range5RangejENCNvNtCsfMaSMcsiNJc_15wiggle_generate8wasmtime13generate_func0EE0B2V_, symObjAddr: 0x2630, symBinAddr: 0x11D00, symSize: 0x40 }
  - { offset: 0x41668, size: 0x8, addend: 0x0, symName: __RNCINvMsi_NtCslJiobkLta79_5alloc3vecINtB8_3VecNtCsaKzlTDPUHDb_11proc_macro25IdentE14extend_trustedINtNtNtNtCsieiGu2EXtoJ_4core4iter8adapters3map3MapINtNtNtB1H_3ops5range5RangejENCNvXs_NtCsfMaSMcsiNJc_15wiggle_generate5funcsNtB2W_4RustNtNtCs8QreBtO1sIU_4witx3abi7Bindgen4emits1_0EE0B2Y_, symObjAddr: 0x2670, symBinAddr: 0x11D40, symSize: 0x40 }
  - { offset: 0x41710, size: 0x8, addend: 0x0, symName: __RNCINvMsi_NtCslJiobkLta79_5alloc3vecINtB8_3VecNtNtBa_6string6StringE14extend_trustedINtNtNtNtCsieiGu2EXtoJ_4core4iter8adapters3map3MapINtNtNtB1t_5slice4iter4IterNtCsaKzlTDPUHDb_11proc_macro25IdentENCNvXsi_NtCsfMaSMcsiNJc_15wiggle_generate6configNtB3h_14AsyncFunctionsNtNtCsdGrGZaRBwMb_3syn5parse5Parse5parse0EE0B3j_, symObjAddr: 0x26B0, symBinAddr: 0x11D80, symSize: 0x40 }
  - { offset: 0x417B8, size: 0x8, addend: 0x0, symName: __RNCINvMsi_NtCslJiobkLta79_5alloc3vecINtB8_3VecNtNtBa_6string6StringE14extend_trustedINtNtNtNtCsieiGu2EXtoJ_4core4iter8adapters3map3MapINtNtNtB1t_5slice4iter4IterNtCsaKzlTDPUHDb_11proc_macro25IdentENCNvXsp_NtCsfMaSMcsiNJc_15wiggle_generate6configNtB3h_11TracingConfNtNtCsdGrGZaRBwMb_3syn5parse5Parse5parse0EE0B3j_, symObjAddr: 0x26F0, symBinAddr: 0x11DC0, symSize: 0x40 }
  - { offset: 0x41860, size: 0x8, addend: 0x0, symName: __RNCINvMsi_NtCslJiobkLta79_5alloc3vecINtB8_3VecRNtNtCsHUR1vrdMJt_3std4path4PathE14extend_trustedINtNtNtNtCsieiGu2EXtoJ_4core4iter8adapters3map3MapINtNtNtB1E_5slice4iter4IterNtBL_7PathBufENCINvNtCs8QreBtO1sIU_4witx8toplevel10parse_witxB2K_E0EE0CsfMaSMcsiNJc_15wiggle_generate, symObjAddr: 0x2730, symBinAddr: 0x11E00, symSize: 0x40 }
  - { offset: 0x42635, size: 0x8, addend: 0x0, symName: __RNvNvMs_NtCslJiobkLta79_5alloc3vecINtB6_3VecppE17from_raw_parts_in18precondition_checkCsfMaSMcsiNJc_15wiggle_generate, symObjAddr: 0x4430, symBinAddr: 0x13AD0, symSize: 0xA0 }
  - { offset: 0x426A3, size: 0x8, addend: 0x0, symName: __RNvNvMs_NtCslJiobkLta79_5alloc3vecINtB6_3VecppE7set_len18precondition_checkCsfMaSMcsiNJc_15wiggle_generate, symObjAddr: 0x44D0, symBinAddr: 0x13B70, symSize: 0xA0 }
  - { offset: 0x42717, size: 0x8, addend: 0x0, symName: __RNvXNtNtCslJiobkLta79_5alloc3vec11spec_extendINtB4_3VecNtCsaKzlTDPUHDb_11proc_macro25IdentEINtB2_10SpecExtendBR_INtNtNtNtCsieiGu2EXtoJ_4core4iter8adapters6cloned6ClonedINtNtCsdGrGZaRBwMb_3syn10punctuated4IterBR_EEE11spec_extendCsfMaSMcsiNJc_15wiggle_generate, symObjAddr: 0x4570, symBinAddr: 0x13C10, symSize: 0x20 }
  - { offset: 0x42768, size: 0x8, addend: 0x0, symName: __RNvXNtNtCslJiobkLta79_5alloc3vec11spec_extendINtB4_3VecNtNtCsHUR1vrdMJt_3std4path7PathBufEINtB2_10SpecExtendBR_INtNtNtNtCsieiGu2EXtoJ_4core4iter8adapters3map3MapINtNtCsdGrGZaRBwMb_3syn10punctuated4IterNtNtB2E_3lit6LitStrENCNvXs7_NtCsfMaSMcsiNJc_15wiggle_generate6configNtB3F_5PathsNtNtB2E_5parse5Parse5parse0EE11spec_extendB3H_, symObjAddr: 0x4590, symBinAddr: 0x13C30, symSize: 0x20 }
  - { offset: 0x427B9, size: 0x8, addend: 0x0, symName: __RNvXNtNtCslJiobkLta79_5alloc3vec11spec_extendINtB4_3VecNtNtCsfMaSMcsiNJc_15wiggle_generate16codegen_settings9ErrorTypeEINtB2_10SpecExtendBR_INtNtNtCsieiGu2EXtoJ_4core4iter8adapters12GenericShuntINtNtB2h_3map3MapINtNtNtNtCsHUR1vrdMJt_3std11collections4hash3map4IterNtCsaKzlTDPUHDb_11proc_macro25IdentNtNtBV_6config14ErrorConfFieldENCNvMs_BT_NtBT_14ErrorTransform3new0EINtNtB2l_6result6ResultNtNtB2l_7convert10InfallibleNtCs5LsBMV3VaIp_6anyhow5ErrorEEE11spec_extendBV_, symObjAddr: 0x45B0, symBinAddr: 0x13C50, symSize: 0x20 }
  - { offset: 0x42811, size: 0x8, addend: 0x0, symName: __RNvXs0_NtNtCslJiobkLta79_5alloc3vec11spec_extendINtB7_3VecNtNtB9_6string6StringEINtB5_10SpecExtendBU_INtNtB7_9into_iter8IntoIterBU_EE11spec_extendCsfMaSMcsiNJc_15wiggle_generate, symObjAddr: 0x5210, symBinAddr: 0x148B0, symSize: 0x90 }
  - { offset: 0x4287D, size: 0x8, addend: 0x0, symName: __RNvXs_NtNtCslJiobkLta79_5alloc3vec11spec_extendINtB6_3VecNtCsaKzlTDPUHDb_11proc_macro211TokenStreamEINtB4_10SpecExtendBT_INtNtB6_5drain5DrainBT_EE11spec_extendCsfMaSMcsiNJc_15wiggle_generate, symObjAddr: 0x54E0, symBinAddr: 0x14B80, symSize: 0x20 }
  - { offset: 0x428CF, size: 0x8, addend: 0x0, symName: __RNvXs_NtNtCslJiobkLta79_5alloc3vec11spec_extendINtB6_3VecNtCsaKzlTDPUHDb_11proc_macro211TokenStreamEINtB4_10SpecExtendBT_INtNtNtNtCsieiGu2EXtoJ_4core4iter8adapters3map3MapINtNtB20_3zip3ZipINtNtNtB24_5slice4iter4IterNtBV_5IdentEIB31_BT_EENCNvNtCsfMaSMcsiNJc_15wiggle_generate8wasmtime13generate_funcs0_0EE11spec_extendB3T_, symObjAddr: 0x5500, symBinAddr: 0x14BA0, symSize: 0x20 }
  - { offset: 0x42921, size: 0x8, addend: 0x0, symName: __RNvXs_NtNtCslJiobkLta79_5alloc3vec11spec_extendINtB6_3VecNtCsaKzlTDPUHDb_11proc_macro211TokenStreamEINtB4_10SpecExtendBT_INtNtNtNtCsieiGu2EXtoJ_4core4iter8adapters3map3MapINtNtNtB24_5slice4iter4IterNtBV_5IdentENCNvXs_NtCsfMaSMcsiNJc_15wiggle_generate5funcsNtB3t_4RustNtNtCs8QreBtO1sIU_4witx3abi7Bindgen4emits2_0EE11spec_extendB3v_, symObjAddr: 0x5520, symBinAddr: 0x14BC0, symSize: 0x20 }
  - { offset: 0x42972, size: 0x8, addend: 0x0, symName: __RNvXs_NtNtCslJiobkLta79_5alloc3vec11spec_extendINtB6_3VecNtCsaKzlTDPUHDb_11proc_macro211TokenStreamEINtB4_10SpecExtendBT_INtNtNtNtCsieiGu2EXtoJ_4core4iter8adapters3map3MapINtNtNtB24_5slice4iter4IterNtNtCs8QreBtO1sIU_4witx3abi8WasmTypeENCNvNtCsfMaSMcsiNJc_15wiggle_generate8wasmtime13generate_funcs_0EE11spec_extendB3R_, symObjAddr: 0x5540, symBinAddr: 0x14BE0, symSize: 0x20 }
  - { offset: 0x429C3, size: 0x8, addend: 0x0, symName: __RNvXs_NtNtCslJiobkLta79_5alloc3vec11spec_extendINtB6_3VecNtCsaKzlTDPUHDb_11proc_macro211TokenStreamEINtB4_10SpecExtendBT_INtNtNtNtCsieiGu2EXtoJ_4core4iter8adapters3map3MapINtNtNtB24_5slice4iter4IterNtNtCs8QreBtO1sIU_4witx3ast12RecordMemberENCNvNtCsfMaSMcsiNJc_15wiggle_generate5names8type_ref0EE11spec_extendB3W_, symObjAddr: 0x5560, symBinAddr: 0x14C00, symSize: 0x20 }
  - { offset: 0x42A15, size: 0x8, addend: 0x0, symName: __RNvXs_NtNtCslJiobkLta79_5alloc3vec11spec_extendINtB6_3VecNtCsaKzlTDPUHDb_11proc_macro211TokenStreamEINtB4_10SpecExtendBT_INtNtNtNtCsieiGu2EXtoJ_4core4iter8adapters3map3MapINtNtNtB24_5slice4iter4IterNtNtCs8QreBtO1sIU_4witx3ast18InterfaceFuncParamENCNvXs_NtCsfMaSMcsiNJc_15wiggle_generate5funcsNtB43_4RustNtNtB3e_3abi7Bindgen4emits0_0EE11spec_extendB45_, symObjAddr: 0x5580, symBinAddr: 0x14C20, symSize: 0x20 }
  - { offset: 0x42A66, size: 0x8, addend: 0x0, symName: __RNvXs_NtNtCslJiobkLta79_5alloc3vec11spec_extendINtB6_3VecNtCsaKzlTDPUHDb_11proc_macro25IdentEINtB4_10SpecExtendBT_INtNtNtNtCsieiGu2EXtoJ_4core4iter8adapters3map3MapINtNtNtB1X_3ops5range5RangejENCNvNtCsfMaSMcsiNJc_15wiggle_generate5funcs12__define_func0EE11spec_extendB3b_, symObjAddr: 0x55A0, symBinAddr: 0x14C40, symSize: 0x20 }
  - { offset: 0x42AB7, size: 0x8, addend: 0x0, symName: __RNvXs_NtNtCslJiobkLta79_5alloc3vec11spec_extendINtB6_3VecNtCsaKzlTDPUHDb_11proc_macro25IdentEINtB4_10SpecExtendBT_INtNtNtNtCsieiGu2EXtoJ_4core4iter8adapters3map3MapINtNtNtB1X_3ops5range5RangejENCNvNtCsfMaSMcsiNJc_15wiggle_generate8wasmtime13generate_func0EE11spec_extendB3b_, symObjAddr: 0x55C0, symBinAddr: 0x14C60, symSize: 0x20 }
  - { offset: 0x42B08, size: 0x8, addend: 0x0, symName: __RNvXs_NtNtCslJiobkLta79_5alloc3vec11spec_extendINtB6_3VecNtCsaKzlTDPUHDb_11proc_macro25IdentEINtB4_10SpecExtendBT_INtNtNtNtCsieiGu2EXtoJ_4core4iter8adapters3map3MapINtNtNtB1X_3ops5range5RangejENCNvXs_NtCsfMaSMcsiNJc_15wiggle_generate5funcsNtB3c_4RustNtNtCs8QreBtO1sIU_4witx3abi7Bindgen4emits1_0EE11spec_extendB3e_, symObjAddr: 0x55E0, symBinAddr: 0x14C80, symSize: 0x20 }
  - { offset: 0x42B59, size: 0x8, addend: 0x0, symName: __RNvXs_NtNtCslJiobkLta79_5alloc3vec11spec_extendINtB6_3VecNtNtB8_6string6StringEINtB4_10SpecExtendBT_INtNtNtNtCsieiGu2EXtoJ_4core4iter8adapters3map3MapINtNtNtB1J_5slice4iter4IterNtCsaKzlTDPUHDb_11proc_macro25IdentENCNvXsi_NtCsfMaSMcsiNJc_15wiggle_generate6configNtB3x_14AsyncFunctionsNtNtCsdGrGZaRBwMb_3syn5parse5Parse5parse0EE11spec_extendB3z_, symObjAddr: 0x5600, symBinAddr: 0x14CA0, symSize: 0x20 }
  - { offset: 0x42BAA, size: 0x8, addend: 0x0, symName: __RNvXs_NtNtCslJiobkLta79_5alloc3vec11spec_extendINtB6_3VecNtNtB8_6string6StringEINtB4_10SpecExtendBT_INtNtNtNtCsieiGu2EXtoJ_4core4iter8adapters3map3MapINtNtNtB1J_5slice4iter4IterNtCsaKzlTDPUHDb_11proc_macro25IdentENCNvXsp_NtCsfMaSMcsiNJc_15wiggle_generate6configNtB3x_11TracingConfNtNtCsdGrGZaRBwMb_3syn5parse5Parse5parse0EE11spec_extendB3z_, symObjAddr: 0x5620, symBinAddr: 0x14CC0, symSize: 0x20 }
  - { offset: 0x42BFB, size: 0x8, addend: 0x0, symName: __RNvXs_NtNtCslJiobkLta79_5alloc3vec11spec_extendINtB6_3VecRNtNtCsHUR1vrdMJt_3std4path4PathEINtB4_10SpecExtendBT_INtNtNtNtCsieiGu2EXtoJ_4core4iter8adapters3map3MapINtNtNtB1U_5slice4iter4IterNtBW_7PathBufENCINvNtCs8QreBtO1sIU_4witx8toplevel10parse_witxB30_E0EE11spec_extendCsfMaSMcsiNJc_15wiggle_generate, symObjAddr: 0x5640, symBinAddr: 0x14CE0, symSize: 0x20 }
  - { offset: 0x42C58, size: 0x8, addend: 0x0, symName: __RNvXNtNtCslJiobkLta79_5alloc3vec14spec_from_iterINtB4_3VecNtCsaKzlTDPUHDb_11proc_macro211TokenStreamEINtB2_12SpecFromIterBU_INtNtNtNtCsieiGu2EXtoJ_4core4iter8adapters3map3MapINtNtB23_3zip3ZipINtNtNtB27_5slice4iter4IterNtBW_5IdentEIB34_BU_EENCNvNtCsfMaSMcsiNJc_15wiggle_generate8wasmtime13generate_funcs0_0EE9from_iterB3W_, symObjAddr: 0x45D0, symBinAddr: 0x13C70, symSize: 0x20 }
  - { offset: 0x42C97, size: 0x8, addend: 0x0, symName: __RNvXNtNtCslJiobkLta79_5alloc3vec14spec_from_iterINtB4_3VecNtCsaKzlTDPUHDb_11proc_macro211TokenStreamEINtB2_12SpecFromIterBU_INtNtNtNtCsieiGu2EXtoJ_4core4iter8adapters3map3MapINtNtNtB27_5slice4iter4IterNtNtCs8QreBtO1sIU_4witx3abi8WasmTypeENCNvNtCsfMaSMcsiNJc_15wiggle_generate8wasmtime13generate_funcs_0EE9from_iterB3U_, symObjAddr: 0x45F0, symBinAddr: 0x13C90, symSize: 0x30 }
  - { offset: 0x42CD5, size: 0x8, addend: 0x0, symName: __RNvXNtNtCslJiobkLta79_5alloc3vec14spec_from_iterINtB4_3VecNtCsaKzlTDPUHDb_11proc_macro211TokenStreamEINtB2_12SpecFromIterBU_INtNtNtNtCsieiGu2EXtoJ_4core4iter8adapters3map3MapINtNtNtB27_5slice4iter4IterNtNtCs8QreBtO1sIU_4witx3ast12RecordMemberENCNvNtCsfMaSMcsiNJc_15wiggle_generate5names8type_ref0EE9from_iterB3Z_, symObjAddr: 0x4620, symBinAddr: 0x13CC0, symSize: 0x20 }
  - { offset: 0x42D14, size: 0x8, addend: 0x0, symName: __RNvXNtNtCslJiobkLta79_5alloc3vec14spec_from_iterINtB4_3VecNtCsaKzlTDPUHDb_11proc_macro211TokenStreamEINtB2_12SpecFromIterBU_INtNtNtNtCsieiGu2EXtoJ_4core4iter8adapters3map3MapINtNtNtB27_5slice4iter4IterNtNtCs8QreBtO1sIU_4witx3ast18InterfaceFuncParamENCNvXs_NtCsfMaSMcsiNJc_15wiggle_generate5funcsNtB46_4RustNtNtB3h_3abi7Bindgen4emits0_0EE9from_iterB48_, symObjAddr: 0x4640, symBinAddr: 0x13CE0, symSize: 0x30 }
  - { offset: 0x42D52, size: 0x8, addend: 0x0, symName: __RNvXNtNtCslJiobkLta79_5alloc3vec14spec_from_iterINtB4_3VecNtCsaKzlTDPUHDb_11proc_macro25IdentEINtB2_12SpecFromIterBU_INtNtNtNtCsieiGu2EXtoJ_4core4iter8adapters3map3MapINtNtNtB20_3ops5range5RangejENCNvNtCsfMaSMcsiNJc_15wiggle_generate5funcs12__define_func0EE9from_iterB3e_, symObjAddr: 0x4670, symBinAddr: 0x13D10, symSize: 0x30 }
  - { offset: 0x42D90, size: 0x8, addend: 0x0, symName: __RNvXNtNtCslJiobkLta79_5alloc3vec14spec_from_iterINtB4_3VecNtCsaKzlTDPUHDb_11proc_macro25IdentEINtB2_12SpecFromIterBU_INtNtNtNtCsieiGu2EXtoJ_4core4iter8adapters3map3MapINtNtNtB20_3ops5range5RangejENCNvNtCsfMaSMcsiNJc_15wiggle_generate8wasmtime13generate_func0EE9from_iterB3e_, symObjAddr: 0x46A0, symBinAddr: 0x13D40, symSize: 0x30 }
  - { offset: 0x42DCE, size: 0x8, addend: 0x0, symName: __RNvXNtNtCslJiobkLta79_5alloc3vec14spec_from_iterINtB4_3VecNtCsaKzlTDPUHDb_11proc_macro25IdentEINtB2_12SpecFromIterBU_INtNtNtNtCsieiGu2EXtoJ_4core4iter8adapters3map3MapINtNtNtB20_3ops5range5RangejENCNvXs_NtCsfMaSMcsiNJc_15wiggle_generate5funcsNtB3f_4RustNtNtCs8QreBtO1sIU_4witx3abi7Bindgen4emits1_0EE9from_iterB3h_, symObjAddr: 0x46D0, symBinAddr: 0x13D70, symSize: 0x30 }
  - { offset: 0x42E0C, size: 0x8, addend: 0x0, symName: __RNvXNtNtCslJiobkLta79_5alloc3vec14spec_from_iterINtB4_3VecNtCsaKzlTDPUHDb_11proc_macro25IdentEINtB2_12SpecFromIterBU_INtNtNtNtCsieiGu2EXtoJ_4core4iter8adapters6cloned6ClonedINtNtCsdGrGZaRBwMb_3syn10punctuated4IterBU_EEE9from_iterCsfMaSMcsiNJc_15wiggle_generate, symObjAddr: 0x4700, symBinAddr: 0x13DA0, symSize: 0x30 }
  - { offset: 0x42E4A, size: 0x8, addend: 0x0, symName: __RNvXNtNtCslJiobkLta79_5alloc3vec14spec_from_iterINtB4_3VecNtNtB6_6string6StringEINtB2_12SpecFromIterBU_INtNtNtNtCsieiGu2EXtoJ_4core4iter8adapters3map3MapINtNtNtB1M_5slice4iter4IterNtCsaKzlTDPUHDb_11proc_macro25IdentENCNvXsi_NtCsfMaSMcsiNJc_15wiggle_generate6configNtB3A_14AsyncFunctionsNtNtCsdGrGZaRBwMb_3syn5parse5Parse5parse0EE9from_iterB3C_, symObjAddr: 0x4730, symBinAddr: 0x13DD0, symSize: 0x30 }
  - { offset: 0x42E88, size: 0x8, addend: 0x0, symName: __RNvXNtNtCslJiobkLta79_5alloc3vec14spec_from_iterINtB4_3VecNtNtB6_6string6StringEINtB2_12SpecFromIterBU_INtNtNtNtCsieiGu2EXtoJ_4core4iter8adapters3map3MapINtNtNtB1M_5slice4iter4IterNtCsaKzlTDPUHDb_11proc_macro25IdentENCNvXsp_NtCsfMaSMcsiNJc_15wiggle_generate6configNtB3A_11TracingConfNtNtCsdGrGZaRBwMb_3syn5parse5Parse5parse0EE9from_iterB3C_, symObjAddr: 0x4760, symBinAddr: 0x13E00, symSize: 0x30 }
  - { offset: 0x42EC6, size: 0x8, addend: 0x0, symName: __RNvXNtNtCslJiobkLta79_5alloc3vec14spec_from_iterINtB4_3VecNtNtCsHUR1vrdMJt_3std4path7PathBufEINtB2_12SpecFromIterBU_INtNtNtNtCsieiGu2EXtoJ_4core4iter8adapters3map3MapINtNtCsdGrGZaRBwMb_3syn10punctuated4IterNtNtB2J_3lit6LitStrENCNvXs7_NtCsfMaSMcsiNJc_15wiggle_generate6configNtB3K_5PathsNtNtB2J_5parse5Parse5parse0EE9from_iterB3M_, symObjAddr: 0x4790, symBinAddr: 0x13E30, symSize: 0x30 }
  - { offset: 0x42F04, size: 0x8, addend: 0x0, symName: __RNvXNtNtCslJiobkLta79_5alloc3vec14spec_from_iterINtB4_3VecNtNtCsfMaSMcsiNJc_15wiggle_generate16codegen_settings9ErrorTypeEINtB2_12SpecFromIterBU_INtNtNtCsieiGu2EXtoJ_4core4iter8adapters12GenericShuntINtNtB2m_3map3MapINtNtNtNtCsHUR1vrdMJt_3std11collections4hash3map4IterNtCsaKzlTDPUHDb_11proc_macro25IdentNtNtBY_6config14ErrorConfFieldENCNvMs_BW_NtBW_14ErrorTransform3new0EINtNtB2q_6result6ResultNtNtB2q_7convert10InfallibleNtCs5LsBMV3VaIp_6anyhow5ErrorEEE9from_iterBY_, symObjAddr: 0x47C0, symBinAddr: 0x13E60, symSize: 0x20 }
  - { offset: 0x42F43, size: 0x8, addend: 0x0, symName: __RNvXNtNtCslJiobkLta79_5alloc3vec14spec_from_iterINtB4_3VecRNtNtCsHUR1vrdMJt_3std4path4PathEINtB2_12SpecFromIterBU_INtNtNtNtCsieiGu2EXtoJ_4core4iter8adapters3map3MapINtNtNtB1X_5slice4iter4IterNtBX_7PathBufENCINvNtCs8QreBtO1sIU_4witx8toplevel10parse_witxB33_E0EE9from_iterCsfMaSMcsiNJc_15wiggle_generate, symObjAddr: 0x47E0, symBinAddr: 0x13E80, symSize: 0x30 }
  - { offset: 0x42F8D, size: 0x8, addend: 0x0, symName: __RNvXNtNtCslJiobkLta79_5alloc3vec21spec_from_iter_nestedINtB4_3VecNtCsaKzlTDPUHDb_11proc_macro25IdentEINtB2_18SpecFromIterNestedB11_INtNtNtNtCsieiGu2EXtoJ_4core4iter8adapters6cloned6ClonedINtNtCsdGrGZaRBwMb_3syn10punctuated4IterB11_EEE9from_iterCsfMaSMcsiNJc_15wiggle_generate, symObjAddr: 0x4810, symBinAddr: 0x13EB0, symSize: 0x350 }
  - { offset: 0x43242, size: 0x8, addend: 0x0, symName: __RNvXNtNtCslJiobkLta79_5alloc3vec21spec_from_iter_nestedINtB4_3VecNtNtCsHUR1vrdMJt_3std4path7PathBufEINtB2_18SpecFromIterNestedB11_INtNtNtNtCsieiGu2EXtoJ_4core4iter8adapters3map3MapINtNtCsdGrGZaRBwMb_3syn10punctuated4IterNtNtB2X_3lit6LitStrENCNvXs7_NtCsfMaSMcsiNJc_15wiggle_generate6configNtB3Y_5PathsNtNtB2X_5parse5Parse5parse0EE9from_iterB40_, symObjAddr: 0x4B60, symBinAddr: 0x14200, symSize: 0x350 }
  - { offset: 0x434F7, size: 0x8, addend: 0x0, symName: __RNvXNtNtCslJiobkLta79_5alloc3vec21spec_from_iter_nestedINtB4_3VecNtNtCsfMaSMcsiNJc_15wiggle_generate16codegen_settings9ErrorTypeEINtB2_18SpecFromIterNestedB11_INtNtNtCsieiGu2EXtoJ_4core4iter8adapters12GenericShuntINtNtB2A_3map3MapINtNtNtNtCsHUR1vrdMJt_3std11collections4hash3map4IterNtCsaKzlTDPUHDb_11proc_macro25IdentNtNtB15_6config14ErrorConfFieldENCNvMs_B13_NtB13_14ErrorTransform3new0EINtNtB2E_6result6ResultNtNtB2E_7convert10InfallibleNtCs5LsBMV3VaIp_6anyhow5ErrorEEE9from_iterB15_, symObjAddr: 0x4EB0, symBinAddr: 0x14550, symSize: 0x360 }
  - { offset: 0x437B2, size: 0x8, addend: 0x0, symName: __RNvXs_NtNtCslJiobkLta79_5alloc3vec21spec_from_iter_nestedINtB6_3VecNtCsaKzlTDPUHDb_11proc_macro211TokenStreamEINtB4_18SpecFromIterNestedB13_INtNtNtNtCsieiGu2EXtoJ_4core4iter8adapters3map3MapINtNtB2j_3zip3ZipINtNtNtB2n_5slice4iter4IterNtB15_5IdentEIB3k_B13_EENCNvNtCsfMaSMcsiNJc_15wiggle_generate8wasmtime13generate_funcs0_0EE9from_iterB4e_, symObjAddr: 0x5660, symBinAddr: 0x14D00, symSize: 0x1E0 }
  - { offset: 0x4388A, size: 0x8, addend: 0x0, symName: __RNvXs_NtNtCslJiobkLta79_5alloc3vec21spec_from_iter_nestedINtB6_3VecNtCsaKzlTDPUHDb_11proc_macro211TokenStreamEINtB4_18SpecFromIterNestedB13_INtNtNtNtCsieiGu2EXtoJ_4core4iter8adapters3map3MapINtNtNtB2n_5slice4iter4IterNtNtCs8QreBtO1sIU_4witx3abi8WasmTypeENCNvNtCsfMaSMcsiNJc_15wiggle_generate8wasmtime13generate_funcs_0EE9from_iterB4a_, symObjAddr: 0x5840, symBinAddr: 0x14EE0, symSize: 0x1B0 }
  - { offset: 0x43962, size: 0x8, addend: 0x0, symName: __RNvXs_NtNtCslJiobkLta79_5alloc3vec21spec_from_iter_nestedINtB6_3VecNtCsaKzlTDPUHDb_11proc_macro211TokenStreamEINtB4_18SpecFromIterNestedB13_INtNtNtNtCsieiGu2EXtoJ_4core4iter8adapters3map3MapINtNtNtB2n_5slice4iter4IterNtNtCs8QreBtO1sIU_4witx3ast12RecordMemberENCNvNtCsfMaSMcsiNJc_15wiggle_generate5names8type_ref0EE9from_iterB4f_, symObjAddr: 0x59F0, symBinAddr: 0x15090, symSize: 0x1C0 }
  - { offset: 0x43A3A, size: 0x8, addend: 0x0, symName: __RNvXs_NtNtCslJiobkLta79_5alloc3vec21spec_from_iter_nestedINtB6_3VecNtCsaKzlTDPUHDb_11proc_macro211TokenStreamEINtB4_18SpecFromIterNestedB13_INtNtNtNtCsieiGu2EXtoJ_4core4iter8adapters3map3MapINtNtNtB2n_5slice4iter4IterNtNtCs8QreBtO1sIU_4witx3ast18InterfaceFuncParamENCNvXs_NtCsfMaSMcsiNJc_15wiggle_generate5funcsNtB4m_4RustNtNtB3x_3abi7Bindgen4emits0_0EE9from_iterB4o_, symObjAddr: 0x5BB0, symBinAddr: 0x15250, symSize: 0x1B0 }
  - { offset: 0x43B12, size: 0x8, addend: 0x0, symName: __RNvXs_NtNtCslJiobkLta79_5alloc3vec21spec_from_iter_nestedINtB6_3VecNtCsaKzlTDPUHDb_11proc_macro25IdentEINtB4_18SpecFromIterNestedB13_INtNtNtNtCsieiGu2EXtoJ_4core4iter8adapters3map3MapINtNtNtB2g_3ops5range5RangejENCNvNtCsfMaSMcsiNJc_15wiggle_generate5funcs12__define_func0EE9from_iterB3u_, symObjAddr: 0x5D60, symBinAddr: 0x15400, symSize: 0x1B0 }
  - { offset: 0x43BEA, size: 0x8, addend: 0x0, symName: __RNvXs_NtNtCslJiobkLta79_5alloc3vec21spec_from_iter_nestedINtB6_3VecNtCsaKzlTDPUHDb_11proc_macro25IdentEINtB4_18SpecFromIterNestedB13_INtNtNtNtCsieiGu2EXtoJ_4core4iter8adapters3map3MapINtNtNtB2g_3ops5range5RangejENCNvNtCsfMaSMcsiNJc_15wiggle_generate8wasmtime13generate_func0EE9from_iterB3u_, symObjAddr: 0x5F10, symBinAddr: 0x155B0, symSize: 0x1B0 }
  - { offset: 0x43CC2, size: 0x8, addend: 0x0, symName: __RNvXs_NtNtCslJiobkLta79_5alloc3vec21spec_from_iter_nestedINtB6_3VecNtCsaKzlTDPUHDb_11proc_macro25IdentEINtB4_18SpecFromIterNestedB13_INtNtNtNtCsieiGu2EXtoJ_4core4iter8adapters3map3MapINtNtNtB2g_3ops5range5RangejENCNvXs_NtCsfMaSMcsiNJc_15wiggle_generate5funcsNtB3v_4RustNtNtCs8QreBtO1sIU_4witx3abi7Bindgen4emits1_0EE9from_iterB3x_, symObjAddr: 0x60C0, symBinAddr: 0x15760, symSize: 0x1B0 }
  - { offset: 0x43D9A, size: 0x8, addend: 0x0, symName: __RNvXs_NtNtCslJiobkLta79_5alloc3vec21spec_from_iter_nestedINtB6_3VecNtNtB8_6string6StringEINtB4_18SpecFromIterNestedB13_INtNtNtNtCsieiGu2EXtoJ_4core4iter8adapters3map3MapINtNtNtB22_5slice4iter4IterNtCsaKzlTDPUHDb_11proc_macro25IdentENCNvXsi_NtCsfMaSMcsiNJc_15wiggle_generate6configNtB3Q_14AsyncFunctionsNtNtCsdGrGZaRBwMb_3syn5parse5Parse5parse0EE9from_iterB3S_, symObjAddr: 0x6270, symBinAddr: 0x15910, symSize: 0x1B0 }
  - { offset: 0x43E72, size: 0x8, addend: 0x0, symName: __RNvXs_NtNtCslJiobkLta79_5alloc3vec21spec_from_iter_nestedINtB6_3VecNtNtB8_6string6StringEINtB4_18SpecFromIterNestedB13_INtNtNtNtCsieiGu2EXtoJ_4core4iter8adapters3map3MapINtNtNtB22_5slice4iter4IterNtCsaKzlTDPUHDb_11proc_macro25IdentENCNvXsp_NtCsfMaSMcsiNJc_15wiggle_generate6configNtB3Q_11TracingConfNtNtCsdGrGZaRBwMb_3syn5parse5Parse5parse0EE9from_iterB3S_, symObjAddr: 0x6420, symBinAddr: 0x15AC0, symSize: 0x1B0 }
  - { offset: 0x43F4A, size: 0x8, addend: 0x0, symName: __RNvXs_NtNtCslJiobkLta79_5alloc3vec21spec_from_iter_nestedINtB6_3VecRNtNtCsHUR1vrdMJt_3std4path4PathEINtB4_18SpecFromIterNestedB13_INtNtNtNtCsieiGu2EXtoJ_4core4iter8adapters3map3MapINtNtNtB2d_5slice4iter4IterNtB16_7PathBufENCINvNtCs8QreBtO1sIU_4witx8toplevel10parse_witxB3j_E0EE9from_iterCsfMaSMcsiNJc_15wiggle_generate, symObjAddr: 0x65D0, symBinAddr: 0x15C70, symSize: 0x1B0 }
  - { offset: 0x44493, size: 0x8, addend: 0x0, symName: __RNvXs6_NtCslJiobkLta79_5alloc3vecINtB5_3VecNtCsaKzlTDPUHDb_11proc_macro211TokenStreamENtNtNtCsieiGu2EXtoJ_4core3ops5deref5Deref5derefCsfMaSMcsiNJc_15wiggle_generate, symObjAddr: 0x5370, symBinAddr: 0x14A10, symSize: 0x20 }
  - { offset: 0x444D3, size: 0x8, addend: 0x0, symName: __RNvXs6_NtCslJiobkLta79_5alloc3vecINtB5_3VecNtCsaKzlTDPUHDb_11proc_macro25IdentENtNtNtCsieiGu2EXtoJ_4core3ops5deref5Deref5derefCsfMaSMcsiNJc_15wiggle_generate, symObjAddr: 0x5390, symBinAddr: 0x14A30, symSize: 0x20 }
  - { offset: 0x44513, size: 0x8, addend: 0x0, symName: __RNvXs6_NtCslJiobkLta79_5alloc3vecINtB5_3VecNtCsaKzlTDPUHDb_11proc_macro27LiteralENtNtNtCsieiGu2EXtoJ_4core3ops5deref5Deref5derefCsfMaSMcsiNJc_15wiggle_generate, symObjAddr: 0x53B0, symBinAddr: 0x14A50, symSize: 0x20 }
  - { offset: 0x44553, size: 0x8, addend: 0x0, symName: __RNvXs6_NtCslJiobkLta79_5alloc3vecINtB5_3VecNtNtCs8QreBtO1sIU_4witx3abi8WasmTypeENtNtNtCsieiGu2EXtoJ_4core3ops5deref5Deref5derefCsfMaSMcsiNJc_15wiggle_generate, symObjAddr: 0x53D0, symBinAddr: 0x14A70, symSize: 0x20 }
  - { offset: 0x44593, size: 0x8, addend: 0x0, symName: __RNvXs6_NtCslJiobkLta79_5alloc3vecINtB5_3VecNtNtCsfMaSMcsiNJc_15wiggle_generate16codegen_settings9ErrorTypeENtNtNtCsieiGu2EXtoJ_4core3ops5deref5Deref5derefBJ_, symObjAddr: 0x53F0, symBinAddr: 0x14A90, symSize: 0x20 }
  - { offset: 0x445D3, size: 0x8, addend: 0x0, symName: __RNvXs6_NtCslJiobkLta79_5alloc3vecINtB5_3VecTNtCsaKzlTDPUHDb_11proc_macro25IdentNtNtCsdGrGZaRBwMb_3syn5token5CommaEENtNtNtCsieiGu2EXtoJ_4core3ops5deref5Deref5derefCsfMaSMcsiNJc_15wiggle_generate, symObjAddr: 0x5410, symBinAddr: 0x14AB0, symSize: 0x20 }
  - { offset: 0x44613, size: 0x8, addend: 0x0, symName: __RNvXs6_NtCslJiobkLta79_5alloc3vecINtB5_3VecTNtNtCsdGrGZaRBwMb_3syn3lit6LitStrNtNtBK_5token5CommaEENtNtNtCsieiGu2EXtoJ_4core3ops5deref5Deref5derefCsfMaSMcsiNJc_15wiggle_generate, symObjAddr: 0x5430, symBinAddr: 0x14AD0, symSize: 0x20 }
  - { offset: 0x447D9, size: 0x8, addend: 0x0, symName: __RNvXs9_NtCslJiobkLta79_5alloc3vecINtB5_3VecNtNtB7_6string6StringENtNtCsieiGu2EXtoJ_4core5clone5Clone5cloneCsfMaSMcsiNJc_15wiggle_generate, symObjAddr: 0x5450, symBinAddr: 0x14AF0, symSize: 0x90 }
  - { offset: 0x449B0, size: 0x8, addend: 0x0, symName: __RNvXsb_NtCslJiobkLta79_5alloc3vecINtB5_3VecNtCsaKzlTDPUHDb_11proc_macro211TokenStreamEINtNtNtCsieiGu2EXtoJ_4core3ops5index5IndexjE5indexCsfMaSMcsiNJc_15wiggle_generate, symObjAddr: 0x6780, symBinAddr: 0x15E20, symSize: 0x80 }
  - { offset: 0x44B32, size: 0x8, addend: 0x0, symName: __RNvXsb_NtCslJiobkLta79_5alloc3vecINtB5_3VecNtNtCs8QreBtO1sIU_4witx3abi8WasmTypeEINtNtNtCsieiGu2EXtoJ_4core3ops5index5IndexjE5indexCsfMaSMcsiNJc_15wiggle_generate, symObjAddr: 0x6800, symBinAddr: 0x15EA0, symSize: 0x70 }
  - { offset: 0x44CBA, size: 0x8, addend: 0x0, symName: __RNvXse_NtCslJiobkLta79_5alloc3vecINtB5_3VecNtCsaKzlTDPUHDb_11proc_macro25IdentENtNtNtNtCsieiGu2EXtoJ_4core4iter6traits7collect12IntoIterator9into_iterCsfMaSMcsiNJc_15wiggle_generate, symObjAddr: 0x6870, symBinAddr: 0x15F10, symSize: 0x140 }
  - { offset: 0x44F4A, size: 0x8, addend: 0x0, symName: __RNvXse_NtCslJiobkLta79_5alloc3vecINtB5_3VecNtNtB7_6string6StringENtNtNtNtCsieiGu2EXtoJ_4core4iter6traits7collect12IntoIterator9into_iterCsfMaSMcsiNJc_15wiggle_generate, symObjAddr: 0x69B0, symBinAddr: 0x16050, symSize: 0x140 }
  - { offset: 0x451DA, size: 0x8, addend: 0x0, symName: __RNvXse_NtCslJiobkLta79_5alloc3vecINtB5_3VecNtNtCs8QreBtO1sIU_4witx6layout18RecordMemberLayoutENtNtNtNtCsieiGu2EXtoJ_4core4iter6traits7collect12IntoIterator9into_iterCsfMaSMcsiNJc_15wiggle_generate, symObjAddr: 0x6AF0, symBinAddr: 0x16190, symSize: 0x140 }
  - { offset: 0x4546A, size: 0x8, addend: 0x0, symName: __RNvXse_NtCslJiobkLta79_5alloc3vecINtB5_3VecNtNtCsfMaSMcsiNJc_15wiggle_generate6config11ConfigFieldENtNtNtNtCsieiGu2EXtoJ_4core4iter6traits7collect12IntoIterator9into_iterBJ_, symObjAddr: 0x6C30, symBinAddr: 0x162D0, symSize: 0x140 }
  - { offset: 0x456FA, size: 0x8, addend: 0x0, symName: __RNvXse_NtCslJiobkLta79_5alloc3vecINtB5_3VecNtNtCsfMaSMcsiNJc_15wiggle_generate6config13FunctionFieldENtNtNtNtCsieiGu2EXtoJ_4core4iter6traits7collect12IntoIterator9into_iterBJ_, symObjAddr: 0x6D70, symBinAddr: 0x16410, symSize: 0x140 }
  - { offset: 0x4598A, size: 0x8, addend: 0x0, symName: __RNvXse_NtCslJiobkLta79_5alloc3vecINtB5_3VecNtNtCsfMaSMcsiNJc_15wiggle_generate6config14ErrorConfFieldENtNtNtNtCsieiGu2EXtoJ_4core4iter6traits7collect12IntoIterator9into_iterBJ_, symObjAddr: 0x6EB0, symBinAddr: 0x16550, symSize: 0x140 }
  - { offset: 0x45C1A, size: 0x8, addend: 0x0, symName: __RNvXse_NtCslJiobkLta79_5alloc3vecINtB5_3VecNtNtCsfMaSMcsiNJc_15wiggle_generate6config19WasmtimeConfigFieldENtNtNtNtCsieiGu2EXtoJ_4core4iter6traits7collect12IntoIterator9into_iterBJ_, symObjAddr: 0x6FF0, symBinAddr: 0x16690, symSize: 0x140 }
  - { offset: 0x45EAA, size: 0x8, addend: 0x0, symName: __RNvXse_NtCslJiobkLta79_5alloc3vecINtB5_3VecTNtNtCsfMaSMcsiNJc_15wiggle_generate6config11ConfigFieldNtNtCsdGrGZaRBwMb_3syn5token5CommaEENtNtNtNtCsieiGu2EXtoJ_4core4iter6traits7collect12IntoIterator9into_iterBK_, symObjAddr: 0x7130, symBinAddr: 0x167D0, symSize: 0x140 }
  - { offset: 0x4613A, size: 0x8, addend: 0x0, symName: __RNvXse_NtCslJiobkLta79_5alloc3vecINtB5_3VecTNtNtCsfMaSMcsiNJc_15wiggle_generate6config13FunctionFieldNtNtCsdGrGZaRBwMb_3syn5token5CommaEENtNtNtNtCsieiGu2EXtoJ_4core4iter6traits7collect12IntoIterator9into_iterBK_, symObjAddr: 0x7270, symBinAddr: 0x16910, symSize: 0x140 }
  - { offset: 0x463CA, size: 0x8, addend: 0x0, symName: __RNvXse_NtCslJiobkLta79_5alloc3vecINtB5_3VecTNtNtCsfMaSMcsiNJc_15wiggle_generate6config14ErrorConfFieldNtNtCsdGrGZaRBwMb_3syn5token5CommaEENtNtNtNtCsieiGu2EXtoJ_4core4iter6traits7collect12IntoIterator9into_iterBK_, symObjAddr: 0x73B0, symBinAddr: 0x16A50, symSize: 0x140 }
  - { offset: 0x4665A, size: 0x8, addend: 0x0, symName: __RNvXse_NtCslJiobkLta79_5alloc3vecINtB5_3VecTNtNtCsfMaSMcsiNJc_15wiggle_generate6config19WasmtimeConfigFieldNtNtCsdGrGZaRBwMb_3syn5token5CommaEENtNtNtNtCsieiGu2EXtoJ_4core4iter6traits7collect12IntoIterator9into_iterBK_, symObjAddr: 0x74F0, symBinAddr: 0x16B90, symSize: 0x140 }
  - { offset: 0x4694B, size: 0x8, addend: 0x0, symName: __RNvXsf_NtCslJiobkLta79_5alloc3vecRINtB5_3VecNtCsaKzlTDPUHDb_11proc_macro25IdentENtNtNtNtCsieiGu2EXtoJ_4core4iter6traits7collect12IntoIterator9into_iterCsfMaSMcsiNJc_15wiggle_generate, symObjAddr: 0x7630, symBinAddr: 0x16CD0, symSize: 0x80 }
  - { offset: 0x46B7E, size: 0x8, addend: 0x0, symName: __RNvXsn_NtCslJiobkLta79_5alloc3vecINtB5_3VecNtCsaKzlTDPUHDb_11proc_macro211TokenStreamENtNtNtCsieiGu2EXtoJ_4core3ops4drop4Drop4dropCsfMaSMcsiNJc_15wiggle_generate, symObjAddr: 0x76B0, symBinAddr: 0x16D50, symSize: 0x30 }
  - { offset: 0x46C2E, size: 0x8, addend: 0x0, symName: __RNvXsn_NtCslJiobkLta79_5alloc3vecINtB5_3VecNtCsaKzlTDPUHDb_11proc_macro25IdentENtNtNtCsieiGu2EXtoJ_4core3ops4drop4Drop4dropCsfMaSMcsiNJc_15wiggle_generate, symObjAddr: 0x76E0, symBinAddr: 0x16D80, symSize: 0x30 }
  - { offset: 0x46CDE, size: 0x8, addend: 0x0, symName: __RNvXsn_NtCslJiobkLta79_5alloc3vecINtB5_3VecNtCsaKzlTDPUHDb_11proc_macro27LiteralENtNtNtCsieiGu2EXtoJ_4core3ops4drop4Drop4dropCsfMaSMcsiNJc_15wiggle_generate, symObjAddr: 0x7710, symBinAddr: 0x16DB0, symSize: 0x30 }
  - { offset: 0x46D8E, size: 0x8, addend: 0x0, symName: __RNvXsn_NtCslJiobkLta79_5alloc3vecINtB5_3VecNtNtCsfMaSMcsiNJc_15wiggle_generate16codegen_settings9ErrorTypeENtNtNtCsieiGu2EXtoJ_4core3ops4drop4Drop4dropBJ_, symObjAddr: 0x7740, symBinAddr: 0x16DE0, symSize: 0x30 }
  - { offset: 0x46E3E, size: 0x8, addend: 0x0, symName: __RNvXsn_NtCslJiobkLta79_5alloc3vecINtB5_3VecNtNtCsfMaSMcsiNJc_15wiggle_generate6config11ConfigFieldENtNtNtCsieiGu2EXtoJ_4core3ops4drop4Drop4dropBJ_, symObjAddr: 0x7770, symBinAddr: 0x16E10, symSize: 0x30 }
  - { offset: 0x46EEE, size: 0x8, addend: 0x0, symName: __RNvXsn_NtCslJiobkLta79_5alloc3vecINtB5_3VecNtNtCsfMaSMcsiNJc_15wiggle_generate6config13FunctionFieldENtNtNtCsieiGu2EXtoJ_4core3ops4drop4Drop4dropBJ_, symObjAddr: 0x77A0, symBinAddr: 0x16E40, symSize: 0x30 }
  - { offset: 0x46F9E, size: 0x8, addend: 0x0, symName: __RNvXsn_NtCslJiobkLta79_5alloc3vecINtB5_3VecNtNtCsfMaSMcsiNJc_15wiggle_generate6config14ErrorConfFieldENtNtNtCsieiGu2EXtoJ_4core3ops4drop4Drop4dropBJ_, symObjAddr: 0x77D0, symBinAddr: 0x16E70, symSize: 0x30 }
  - { offset: 0x4704E, size: 0x8, addend: 0x0, symName: __RNvXsn_NtCslJiobkLta79_5alloc3vecINtB5_3VecNtNtCsfMaSMcsiNJc_15wiggle_generate6config19WasmtimeConfigFieldENtNtNtCsieiGu2EXtoJ_4core3ops4drop4Drop4dropBJ_, symObjAddr: 0x7800, symBinAddr: 0x16EA0, symSize: 0x30 }
  - { offset: 0x470FE, size: 0x8, addend: 0x0, symName: __RNvXsn_NtCslJiobkLta79_5alloc3vecINtB5_3VecTNtCsaKzlTDPUHDb_11proc_macro25IdentNtNtCsdGrGZaRBwMb_3syn5token5CommaEENtNtNtCsieiGu2EXtoJ_4core3ops4drop4Drop4dropCsfMaSMcsiNJc_15wiggle_generate, symObjAddr: 0x7830, symBinAddr: 0x16ED0, symSize: 0x30 }
  - { offset: 0x471AE, size: 0x8, addend: 0x0, symName: __RNvXsn_NtCslJiobkLta79_5alloc3vecINtB5_3VecTNtNtCsdGrGZaRBwMb_3syn3lit6LitStrNtNtBK_5token5CommaEENtNtNtCsieiGu2EXtoJ_4core3ops4drop4Drop4dropCsfMaSMcsiNJc_15wiggle_generate, symObjAddr: 0x7860, symBinAddr: 0x16F00, symSize: 0x30 }
  - { offset: 0x4725E, size: 0x8, addend: 0x0, symName: __RNvXsn_NtCslJiobkLta79_5alloc3vecINtB5_3VecTNtNtCsfMaSMcsiNJc_15wiggle_generate6config11ConfigFieldNtNtCsdGrGZaRBwMb_3syn5token5CommaEENtNtNtCsieiGu2EXtoJ_4core3ops4drop4Drop4dropBK_, symObjAddr: 0x7890, symBinAddr: 0x16F30, symSize: 0x30 }
  - { offset: 0x4730E, size: 0x8, addend: 0x0, symName: __RNvXsn_NtCslJiobkLta79_5alloc3vecINtB5_3VecTNtNtCsfMaSMcsiNJc_15wiggle_generate6config13FunctionFieldNtNtCsdGrGZaRBwMb_3syn5token5CommaEENtNtNtCsieiGu2EXtoJ_4core3ops4drop4Drop4dropBK_, symObjAddr: 0x78C0, symBinAddr: 0x16F60, symSize: 0x30 }
  - { offset: 0x473BE, size: 0x8, addend: 0x0, symName: __RNvXsn_NtCslJiobkLta79_5alloc3vecINtB5_3VecTNtNtCsfMaSMcsiNJc_15wiggle_generate6config14ErrorConfFieldNtNtCsdGrGZaRBwMb_3syn5token5CommaEENtNtNtCsieiGu2EXtoJ_4core3ops4drop4Drop4dropBK_, symObjAddr: 0x78F0, symBinAddr: 0x16F90, symSize: 0x30 }
  - { offset: 0x4746E, size: 0x8, addend: 0x0, symName: __RNvXsn_NtCslJiobkLta79_5alloc3vecINtB5_3VecTNtNtCsfMaSMcsiNJc_15wiggle_generate6config19WasmtimeConfigFieldNtNtCsdGrGZaRBwMb_3syn5token5CommaEENtNtNtCsieiGu2EXtoJ_4core3ops4drop4Drop4dropBK_, symObjAddr: 0x7920, symBinAddr: 0x16FC0, symSize: 0x30 }
  - { offset: 0x47524, size: 0x8, addend: 0x0, symName: __RNvXsp_NtCslJiobkLta79_5alloc3vecINtB5_3VecNtNtCs8QreBtO1sIU_4witx3ast12RecordMemberENtNtCsieiGu2EXtoJ_4core3fmt5Debug3fmtCsfMaSMcsiNJc_15wiggle_generate, symObjAddr: 0x7980, symBinAddr: 0x16FF0, symSize: 0x70 }
  - { offset: 0x47634, size: 0x8, addend: 0x0, symName: __RNvXsp_NtCslJiobkLta79_5alloc3vecINtB5_3VecNtNtCs8QreBtO1sIU_4witx3ast18InterfaceFuncParamENtNtCsieiGu2EXtoJ_4core3fmt5Debug3fmtCsfMaSMcsiNJc_15wiggle_generate, symObjAddr: 0x79F0, symBinAddr: 0x17060, symSize: 0x70 }
  - { offset: 0x47744, size: 0x8, addend: 0x0, symName: __RNvXsp_NtCslJiobkLta79_5alloc3vecINtB5_3VecNtNtCs8QreBtO1sIU_4witx3ast4CaseENtNtCsieiGu2EXtoJ_4core3fmt5Debug3fmtCsfMaSMcsiNJc_15wiggle_generate, symObjAddr: 0x7A60, symBinAddr: 0x170D0, symSize: 0x70 }
  - { offset: 0x4785A, size: 0x8, addend: 0x0, symName: __RNvXss_NtCslJiobkLta79_5alloc3vecINtB5_3VecNtNtCsHUR1vrdMJt_3std4path7PathBufEINtNtCsieiGu2EXtoJ_4core7convert5AsRefSBF_E6as_refCsfMaSMcsiNJc_15wiggle_generate, symObjAddr: 0x7AD0, symBinAddr: 0x17140, symSize: 0x50 }
  - { offset: 0x49E5E, size: 0x8, addend: 0x0, symName: __RINvMs_NtCslJiobkLta79_5alloc3vecINtB5_3VecNtCsaKzlTDPUHDb_11proc_macro211TokenStreamE5drainINtNtNtCsieiGu2EXtoJ_4core3ops5range9RangeFromjEECsfMaSMcsiNJc_15wiggle_generate, symObjAddr: 0x0, symBinAddr: 0xF6D0, symSize: 0x1E0 }
  - { offset: 0x4A3A9, size: 0x8, addend: 0x0, symName: __RINvMs_NtCslJiobkLta79_5alloc3vecINtB5_3VecNtCsaKzlTDPUHDb_11proc_macro211TokenStreamE5drainNtNtNtCsieiGu2EXtoJ_4core3ops5range9RangeFullECsfMaSMcsiNJc_15wiggle_generate, symObjAddr: 0x1E0, symBinAddr: 0xF8B0, symSize: 0x1D0 }
  - { offset: 0x4A97F, size: 0x8, addend: 0x0, symName: __RINvMsi_NtCslJiobkLta79_5alloc3vecINtB6_3VecNtCsaKzlTDPUHDb_11proc_macro211TokenStreamE14extend_trustedINtNtB6_5drain5DrainBG_EECsfMaSMcsiNJc_15wiggle_generate, symObjAddr: 0x3B0, symBinAddr: 0xFA80, symSize: 0x1E0 }
  - { offset: 0x4B169, size: 0x8, addend: 0x0, symName: __RINvMsi_NtCslJiobkLta79_5alloc3vecINtB6_3VecNtCsaKzlTDPUHDb_11proc_macro211TokenStreamE14extend_trustedINtNtNtNtCsieiGu2EXtoJ_4core4iter8adapters3map3MapINtNtB1I_3zip3ZipINtNtNtB1M_5slice4iter4IterNtBI_5IdentEIB2J_BG_EENCNvNtCsfMaSMcsiNJc_15wiggle_generate8wasmtime13generate_funcs0_0EEB3B_, symObjAddr: 0x590, symBinAddr: 0xFC60, symSize: 0x1D0 }
  - { offset: 0x4B420, size: 0x8, addend: 0x0, symName: __RINvMsi_NtCslJiobkLta79_5alloc3vecINtB6_3VecNtCsaKzlTDPUHDb_11proc_macro211TokenStreamE14extend_trustedINtNtNtNtCsieiGu2EXtoJ_4core4iter8adapters3map3MapINtNtNtB1M_5slice4iter4IterNtBI_5IdentENCNvXs_NtCsfMaSMcsiNJc_15wiggle_generate5funcsNtB3b_4RustNtNtCs8QreBtO1sIU_4witx3abi7Bindgen4emits2_0EEB3d_, symObjAddr: 0x760, symBinAddr: 0xFE30, symSize: 0x1A0 }
  - { offset: 0x4B6F1, size: 0x8, addend: 0x0, symName: __RINvMsi_NtCslJiobkLta79_5alloc3vecINtB6_3VecNtCsaKzlTDPUHDb_11proc_macro211TokenStreamE14extend_trustedINtNtNtNtCsieiGu2EXtoJ_4core4iter8adapters3map3MapINtNtNtB1M_5slice4iter4IterNtNtCs8QreBtO1sIU_4witx3abi8WasmTypeENCNvNtCsfMaSMcsiNJc_15wiggle_generate8wasmtime13generate_funcs_0EEB3z_, symObjAddr: 0x900, symBinAddr: 0xFFD0, symSize: 0x1A0 }
  - { offset: 0x4B9DC, size: 0x8, addend: 0x0, symName: __RINvMsi_NtCslJiobkLta79_5alloc3vecINtB6_3VecNtCsaKzlTDPUHDb_11proc_macro211TokenStreamE14extend_trustedINtNtNtNtCsieiGu2EXtoJ_4core4iter8adapters3map3MapINtNtNtB1M_5slice4iter4IterNtNtCs8QreBtO1sIU_4witx3ast12RecordMemberENCNvNtCsfMaSMcsiNJc_15wiggle_generate5names8type_ref0EEB3E_, symObjAddr: 0xAA0, symBinAddr: 0x10170, symSize: 0x1B0 }
  - { offset: 0x4BCAD, size: 0x8, addend: 0x0, symName: __RINvMsi_NtCslJiobkLta79_5alloc3vecINtB6_3VecNtCsaKzlTDPUHDb_11proc_macro211TokenStreamE14extend_trustedINtNtNtNtCsieiGu2EXtoJ_4core4iter8adapters3map3MapINtNtNtB1M_5slice4iter4IterNtNtCs8QreBtO1sIU_4witx3ast18InterfaceFuncParamENCNvXs_NtCsfMaSMcsiNJc_15wiggle_generate5funcsNtB3L_4RustNtNtB2W_3abi7Bindgen4emits0_0EEB3N_, symObjAddr: 0xC50, symBinAddr: 0x10320, symSize: 0x1A0 }
  - { offset: 0x4BF8B, size: 0x8, addend: 0x0, symName: __RINvMsi_NtCslJiobkLta79_5alloc3vecINtB6_3VecNtCsaKzlTDPUHDb_11proc_macro25IdentE14extend_trustedINtNtNtNtCsieiGu2EXtoJ_4core4iter8adapters3map3MapINtNtNtB1F_3ops5range5RangejENCNvNtCsfMaSMcsiNJc_15wiggle_generate5funcs12__define_func0EEB2T_, symObjAddr: 0xDF0, symBinAddr: 0x104C0, symSize: 0x1A0 }
  - { offset: 0x4C242, size: 0x8, addend: 0x0, symName: __RINvMsi_NtCslJiobkLta79_5alloc3vecINtB6_3VecNtCsaKzlTDPUHDb_11proc_macro25IdentE14extend_trustedINtNtNtNtCsieiGu2EXtoJ_4core4iter8adapters3map3MapINtNtNtB1F_3ops5range5RangejENCNvNtCsfMaSMcsiNJc_15wiggle_generate8wasmtime13generate_func0EEB2T_, symObjAddr: 0xF90, symBinAddr: 0x10660, symSize: 0x1A0 }
  - { offset: 0x4C4F9, size: 0x8, addend: 0x0, symName: __RINvMsi_NtCslJiobkLta79_5alloc3vecINtB6_3VecNtCsaKzlTDPUHDb_11proc_macro25IdentE14extend_trustedINtNtNtNtCsieiGu2EXtoJ_4core4iter8adapters3map3MapINtNtNtB1F_3ops5range5RangejENCNvXs_NtCsfMaSMcsiNJc_15wiggle_generate5funcsNtB2U_4RustNtNtCs8QreBtO1sIU_4witx3abi7Bindgen4emits1_0EEB2W_, symObjAddr: 0x1130, symBinAddr: 0x10800, symSize: 0x1A0 }
  - { offset: 0x51539, size: 0x8, addend: 0x0, symName: __RINvMsi_NtCslJiobkLta79_5alloc3vecINtB6_3VecNtCsaKzlTDPUHDb_11proc_macro25IdentE16extend_desugaredINtNtNtNtCsieiGu2EXtoJ_4core4iter8adapters6cloned6ClonedINtNtCsdGrGZaRBwMb_3syn10punctuated4IterBG_EEECsfMaSMcsiNJc_15wiggle_generate, symObjAddr: 0x12D0, symBinAddr: 0x109A0, symSize: 0x270 }
  - { offset: 0x518EA, size: 0x8, addend: 0x0, symName: __RINvMsi_NtCslJiobkLta79_5alloc3vecINtB6_3VecNtNtB8_6string6StringE14extend_trustedINtNtNtNtCsieiGu2EXtoJ_4core4iter8adapters3map3MapINtNtNtB1r_5slice4iter4IterNtCsaKzlTDPUHDb_11proc_macro25IdentENCNvXsi_NtCsfMaSMcsiNJc_15wiggle_generate6configNtB3f_14AsyncFunctionsNtNtCsdGrGZaRBwMb_3syn5parse5Parse5parse0EEB3h_, symObjAddr: 0x1540, symBinAddr: 0x10C10, symSize: 0x1A0 }
  - { offset: 0x51BA1, size: 0x8, addend: 0x0, symName: __RINvMsi_NtCslJiobkLta79_5alloc3vecINtB6_3VecNtNtB8_6string6StringE14extend_trustedINtNtNtNtCsieiGu2EXtoJ_4core4iter8adapters3map3MapINtNtNtB1r_5slice4iter4IterNtCsaKzlTDPUHDb_11proc_macro25IdentENCNvXsp_NtCsfMaSMcsiNJc_15wiggle_generate6configNtB3f_11TracingConfNtNtCsdGrGZaRBwMb_3syn5parse5Parse5parse0EEB3h_, symObjAddr: 0x16E0, symBinAddr: 0x10DB0, symSize: 0x1A0 }
  - { offset: 0x5246E, size: 0x8, addend: 0x0, symName: __RINvMsi_NtCslJiobkLta79_5alloc3vecINtB6_3VecNtNtCsHUR1vrdMJt_3std4path7PathBufE16extend_desugaredINtNtNtNtCsieiGu2EXtoJ_4core4iter8adapters3map3MapINtNtCsdGrGZaRBwMb_3syn10punctuated4IterNtNtB2q_3lit6LitStrENCNvXs7_NtCsfMaSMcsiNJc_15wiggle_generate6configNtB3r_5PathsNtNtB2q_5parse5Parse5parse0EEB3t_, symObjAddr: 0x1880, symBinAddr: 0x10F50, symSize: 0x270 }
  - { offset: 0x5350F, size: 0x8, addend: 0x0, symName: __RINvMsi_NtCslJiobkLta79_5alloc3vecINtB6_3VecNtNtCsfMaSMcsiNJc_15wiggle_generate16codegen_settings9ErrorTypeE16extend_desugaredINtNtNtCsieiGu2EXtoJ_4core4iter8adapters12GenericShuntINtNtB23_3map3MapINtNtNtNtCsHUR1vrdMJt_3std11collections4hash3map4IterNtCsaKzlTDPUHDb_11proc_macro25IdentNtNtBK_6config14ErrorConfFieldENCNvMs_BI_NtBI_14ErrorTransform3new0EINtNtB27_6result6ResultNtNtB27_7convert10InfallibleNtCs5LsBMV3VaIp_6anyhow5ErrorEEEBK_, symObjAddr: 0x1AF0, symBinAddr: 0x111C0, symSize: 0x230 }
  - { offset: 0x538F4, size: 0x8, addend: 0x0, symName: __RINvMsi_NtCslJiobkLta79_5alloc3vecINtB6_3VecRNtNtCsHUR1vrdMJt_3std4path4PathE14extend_trustedINtNtNtNtCsieiGu2EXtoJ_4core4iter8adapters3map3MapINtNtNtB1C_5slice4iter4IterNtBJ_7PathBufENCINvNtCs8QreBtO1sIU_4witx8toplevel10parse_witxB2I_E0EECsfMaSMcsiNJc_15wiggle_generate, symObjAddr: 0x1D20, symBinAddr: 0x113F0, symSize: 0x1A0 }
  - { offset: 0x53B74, size: 0x8, addend: 0x0, symName: __RNvMNtCslJiobkLta79_5alloc3vecINtB2_3VecNtCsaKzlTDPUHDb_11proc_macro211TokenStreamE3newCsfMaSMcsiNJc_15wiggle_generate, symObjAddr: 0x2770, symBinAddr: 0x11E40, symSize: 0x30 }
  - { offset: 0x53B91, size: 0x8, addend: 0x0, symName: __RNvMNtCslJiobkLta79_5alloc3vecINtB2_3VecNtCsaKzlTDPUHDb_11proc_macro25IdentE3newCsfMaSMcsiNJc_15wiggle_generate, symObjAddr: 0x27A0, symBinAddr: 0x11E70, symSize: 0x30 }
  - { offset: 0x53BAE, size: 0x8, addend: 0x0, symName: __RNvMNtCslJiobkLta79_5alloc3vecINtB2_3VecNtCsaKzlTDPUHDb_11proc_macro27LiteralE3newCsfMaSMcsiNJc_15wiggle_generate, symObjAddr: 0x27D0, symBinAddr: 0x11EA0, symSize: 0x30 }
  - { offset: 0x53C4B, size: 0x8, addend: 0x0, symName: __RNvMNtCslJiobkLta79_5alloc3vecINtB2_3VecNtNtCsfMaSMcsiNJc_15wiggle_generate6config11ConfigFieldE13with_capacityBG_, symObjAddr: 0x2830, symBinAddr: 0x11ED0, symSize: 0x60 }
  - { offset: 0x53CC3, size: 0x8, addend: 0x0, symName: __RNvMNtCslJiobkLta79_5alloc3vecINtB2_3VecNtNtCsfMaSMcsiNJc_15wiggle_generate6config11ConfigFieldE3newBG_, symObjAddr: 0x2890, symBinAddr: 0x11F30, symSize: 0x30 }
  - { offset: 0x53D42, size: 0x8, addend: 0x0, symName: __RNvMNtCslJiobkLta79_5alloc3vecINtB2_3VecNtNtCsfMaSMcsiNJc_15wiggle_generate6config13FunctionFieldE13with_capacityBG_, symObjAddr: 0x28C0, symBinAddr: 0x11F60, symSize: 0x60 }
  - { offset: 0x53E1C, size: 0x8, addend: 0x0, symName: __RNvMNtCslJiobkLta79_5alloc3vecINtB2_3VecNtNtCsfMaSMcsiNJc_15wiggle_generate6config14ErrorConfFieldE13with_capacityBG_, symObjAddr: 0x2920, symBinAddr: 0x11FC0, symSize: 0x60 }
  - { offset: 0x53EF6, size: 0x8, addend: 0x0, symName: __RNvMNtCslJiobkLta79_5alloc3vecINtB2_3VecNtNtCsfMaSMcsiNJc_15wiggle_generate6config19WasmtimeConfigFieldE13with_capacityBG_, symObjAddr: 0x2980, symBinAddr: 0x12020, symSize: 0x60 }
  - { offset: 0x53F8C, size: 0x8, addend: 0x0, symName: __RNvMNtCslJiobkLta79_5alloc3vecINtB2_3VecTNtCsaKzlTDPUHDb_11proc_macro25IdentNtNtCsdGrGZaRBwMb_3syn5token5CommaEE3newCsfMaSMcsiNJc_15wiggle_generate, symObjAddr: 0x29E0, symBinAddr: 0x12080, symSize: 0x30 }
  - { offset: 0x53FC7, size: 0x8, addend: 0x0, symName: __RNvMNtCslJiobkLta79_5alloc3vecINtB2_3VecTNtNtCsdGrGZaRBwMb_3syn3lit6LitStrNtNtBH_5token5CommaEE3newCsfMaSMcsiNJc_15wiggle_generate, symObjAddr: 0x2A10, symBinAddr: 0x120B0, symSize: 0x30 }
  - { offset: 0x54002, size: 0x8, addend: 0x0, symName: __RNvMNtCslJiobkLta79_5alloc3vecINtB2_3VecTNtNtCsfMaSMcsiNJc_15wiggle_generate6config11ConfigFieldNtNtCsdGrGZaRBwMb_3syn5token5CommaEE3newBH_, symObjAddr: 0x2A40, symBinAddr: 0x120E0, symSize: 0x30 }
  - { offset: 0x5403D, size: 0x8, addend: 0x0, symName: __RNvMNtCslJiobkLta79_5alloc3vecINtB2_3VecTNtNtCsfMaSMcsiNJc_15wiggle_generate6config13FunctionFieldNtNtCsdGrGZaRBwMb_3syn5token5CommaEE3newBH_, symObjAddr: 0x2A70, symBinAddr: 0x12110, symSize: 0x30 }
  - { offset: 0x54078, size: 0x8, addend: 0x0, symName: __RNvMNtCslJiobkLta79_5alloc3vecINtB2_3VecTNtNtCsfMaSMcsiNJc_15wiggle_generate6config14ErrorConfFieldNtNtCsdGrGZaRBwMb_3syn5token5CommaEE3newBH_, symObjAddr: 0x2AA0, symBinAddr: 0x12140, symSize: 0x30 }
  - { offset: 0x540B3, size: 0x8, addend: 0x0, symName: __RNvMNtCslJiobkLta79_5alloc3vecINtB2_3VecTNtNtCsfMaSMcsiNJc_15wiggle_generate6config19WasmtimeConfigFieldNtNtCsdGrGZaRBwMb_3syn5token5CommaEE3newBH_, symObjAddr: 0x2AD0, symBinAddr: 0x12170, symSize: 0x30 }
  - { offset: 0x540D0, size: 0x8, addend: 0x0, symName: __RNvMs_NtCslJiobkLta79_5alloc3vecINtB4_3VecNtCsaKzlTDPUHDb_11proc_macro211TokenStreamE3lenCsfMaSMcsiNJc_15wiggle_generate, symObjAddr: 0x2B00, symBinAddr: 0x121A0, symSize: 0x10 }
  - { offset: 0x5421E, size: 0x8, addend: 0x0, symName: __RNvMs_NtCslJiobkLta79_5alloc3vecINtB4_3VecNtCsaKzlTDPUHDb_11proc_macro211TokenStreamE3popCsfMaSMcsiNJc_15wiggle_generate, symObjAddr: 0x2B10, symBinAddr: 0x121B0, symSize: 0x130 }
  - { offset: 0x543B3, size: 0x8, addend: 0x0, symName: __RNvMs_NtCslJiobkLta79_5alloc3vecINtB4_3VecNtCsaKzlTDPUHDb_11proc_macro211TokenStreamE4pushCsfMaSMcsiNJc_15wiggle_generate, symObjAddr: 0x2C40, symBinAddr: 0x122E0, symSize: 0x20 }
  - { offset: 0x544D9, size: 0x8, addend: 0x0, symName: __RNvMs_NtCslJiobkLta79_5alloc3vecINtB4_3VecNtCsaKzlTDPUHDb_11proc_macro211TokenStreamE5clearCsfMaSMcsiNJc_15wiggle_generate, symObjAddr: 0x2C60, symBinAddr: 0x12300, symSize: 0x70 }
  - { offset: 0x5474E, size: 0x8, addend: 0x0, symName: __RNvMs_NtCslJiobkLta79_5alloc3vecINtB4_3VecNtCsaKzlTDPUHDb_11proc_macro211TokenStreamE7reserveCsfMaSMcsiNJc_15wiggle_generate, symObjAddr: 0x2CD0, symBinAddr: 0x12370, symSize: 0xB0 }
  - { offset: 0x5492B, size: 0x8, addend: 0x0, symName: __RNvMs_NtCslJiobkLta79_5alloc3vecINtB4_3VecNtCsaKzlTDPUHDb_11proc_macro211TokenStreamE8as_sliceCsfMaSMcsiNJc_15wiggle_generate, symObjAddr: 0x2D80, symBinAddr: 0x12420, symSize: 0x50 }
  - { offset: 0x54AD1, size: 0x8, addend: 0x0, symName: __RNvMs_NtCslJiobkLta79_5alloc3vecINtB4_3VecNtCsaKzlTDPUHDb_11proc_macro211TokenStreamE8push_mutCsfMaSMcsiNJc_15wiggle_generate, symObjAddr: 0x2DD0, symBinAddr: 0x12470, symSize: 0x120 }
  - { offset: 0x54D67, size: 0x8, addend: 0x0, symName: __RNvMs_NtCslJiobkLta79_5alloc3vecINtB4_3VecNtCsaKzlTDPUHDb_11proc_macro25IdentE17from_raw_parts_inCsfMaSMcsiNJc_15wiggle_generate, symObjAddr: 0x2EF0, symBinAddr: 0x12590, symSize: 0xA0 }
  - { offset: 0x54EEE, size: 0x8, addend: 0x0, symName: __RNvMs_NtCslJiobkLta79_5alloc3vecINtB4_3VecNtCsaKzlTDPUHDb_11proc_macro25IdentE4pushCsfMaSMcsiNJc_15wiggle_generate, symObjAddr: 0x2F90, symBinAddr: 0x12630, symSize: 0x20 }
  - { offset: 0x55049, size: 0x8, addend: 0x0, symName: __RNvMs_NtCslJiobkLta79_5alloc3vecINtB4_3VecNtCsaKzlTDPUHDb_11proc_macro25IdentE7reserveCsfMaSMcsiNJc_15wiggle_generate, symObjAddr: 0x2FB0, symBinAddr: 0x12650, symSize: 0xB0 }
  - { offset: 0x5524D, size: 0x8, addend: 0x0, symName: __RNvMs_NtCslJiobkLta79_5alloc3vecINtB4_3VecNtCsaKzlTDPUHDb_11proc_macro25IdentE8as_sliceCsfMaSMcsiNJc_15wiggle_generate, symObjAddr: 0x3060, symBinAddr: 0x12700, symSize: 0x50 }
  - { offset: 0x553F3, size: 0x8, addend: 0x0, symName: __RNvMs_NtCslJiobkLta79_5alloc3vecINtB4_3VecNtCsaKzlTDPUHDb_11proc_macro25IdentE8push_mutCsfMaSMcsiNJc_15wiggle_generate, symObjAddr: 0x30B0, symBinAddr: 0x12750, symSize: 0x110 }
  - { offset: 0x555B5, size: 0x8, addend: 0x0, symName: __RNvMs_NtCslJiobkLta79_5alloc3vecINtB4_3VecNtCsaKzlTDPUHDb_11proc_macro27LiteralE4pushCsfMaSMcsiNJc_15wiggle_generate, symObjAddr: 0x31C0, symBinAddr: 0x12860, symSize: 0x20 }
  - { offset: 0x556C5, size: 0x8, addend: 0x0, symName: __RNvMs_NtCslJiobkLta79_5alloc3vecINtB4_3VecNtCsaKzlTDPUHDb_11proc_macro27LiteralE8as_sliceCsfMaSMcsiNJc_15wiggle_generate, symObjAddr: 0x31E0, symBinAddr: 0x12880, symSize: 0x50 }
  - { offset: 0x5586B, size: 0x8, addend: 0x0, symName: __RNvMs_NtCslJiobkLta79_5alloc3vecINtB4_3VecNtCsaKzlTDPUHDb_11proc_macro27LiteralE8push_mutCsfMaSMcsiNJc_15wiggle_generate, symObjAddr: 0x3230, symBinAddr: 0x128D0, symSize: 0x110 }
  - { offset: 0x55AF9, size: 0x8, addend: 0x0, symName: __RNvMs_NtCslJiobkLta79_5alloc3vecINtB4_3VecNtNtB6_6string6StringE15append_elementsCsfMaSMcsiNJc_15wiggle_generate, symObjAddr: 0x3340, symBinAddr: 0x129E0, symSize: 0xC0 }
  - { offset: 0x55D1F, size: 0x8, addend: 0x0, symName: __RNvMs_NtCslJiobkLta79_5alloc3vecINtB4_3VecNtNtB6_6string6StringE7set_lenCsfMaSMcsiNJc_15wiggle_generate, symObjAddr: 0x3400, symBinAddr: 0x12AA0, symSize: 0x70 }
  - { offset: 0x55E05, size: 0x8, addend: 0x0, symName: __RNvMs_NtCslJiobkLta79_5alloc3vecINtB4_3VecNtNtCs8QreBtO1sIU_4witx3abi8WasmTypeE3lenCsfMaSMcsiNJc_15wiggle_generate, symObjAddr: 0x3470, symBinAddr: 0x12B10, symSize: 0x10 }
  - { offset: 0x55EEB, size: 0x8, addend: 0x0, symName: __RNvMs_NtCslJiobkLta79_5alloc3vecINtB4_3VecNtNtCs8QreBtO1sIU_4witx3abi8WasmTypeE8as_sliceCsfMaSMcsiNJc_15wiggle_generate, symObjAddr: 0x3480, symBinAddr: 0x12B20, symSize: 0x50 }
  - { offset: 0x560BB, size: 0x8, addend: 0x0, symName: __RNvMs_NtCslJiobkLta79_5alloc3vecINtB4_3VecNtNtCsHUR1vrdMJt_3std4path7PathBufE7reserveCsfMaSMcsiNJc_15wiggle_generate, symObjAddr: 0x34D0, symBinAddr: 0x12B70, symSize: 0xB0 }
  - { offset: 0x5633E, size: 0x8, addend: 0x0, symName: __RNvMs_NtCslJiobkLta79_5alloc3vecINtB4_3VecNtNtCsfMaSMcsiNJc_15wiggle_generate16codegen_settings9ErrorTypeE7reserveBI_, symObjAddr: 0x3580, symBinAddr: 0x12C20, symSize: 0xB0 }
  - { offset: 0x56542, size: 0x8, addend: 0x0, symName: __RNvMs_NtCslJiobkLta79_5alloc3vecINtB4_3VecNtNtCsfMaSMcsiNJc_15wiggle_generate16codegen_settings9ErrorTypeE8as_sliceBI_, symObjAddr: 0x3630, symBinAddr: 0x12CD0, symSize: 0x50 }
  - { offset: 0x56609, size: 0x8, addend: 0x0, symName: __RNvMs_NtCslJiobkLta79_5alloc3vecINtB4_3VecNtNtCsfMaSMcsiNJc_15wiggle_generate6config11ConfigFieldE4pushBI_, symObjAddr: 0x3680, symBinAddr: 0x12D20, symSize: 0x20 }
  - { offset: 0x56761, size: 0x8, addend: 0x0, symName: __RNvMs_NtCslJiobkLta79_5alloc3vecINtB4_3VecNtNtCsfMaSMcsiNJc_15wiggle_generate6config11ConfigFieldE8push_mutBI_, symObjAddr: 0x36A0, symBinAddr: 0x12D40, symSize: 0x130 }
  - { offset: 0x56923, size: 0x8, addend: 0x0, symName: __RNvMs_NtCslJiobkLta79_5alloc3vecINtB4_3VecNtNtCsfMaSMcsiNJc_15wiggle_generate6config13FunctionFieldE4pushBI_, symObjAddr: 0x37D0, symBinAddr: 0x12E70, symSize: 0x20 }
  - { offset: 0x56A7B, size: 0x8, addend: 0x0, symName: __RNvMs_NtCslJiobkLta79_5alloc3vecINtB4_3VecNtNtCsfMaSMcsiNJc_15wiggle_generate6config13FunctionFieldE8push_mutBI_, symObjAddr: 0x37F0, symBinAddr: 0x12E90, symSize: 0x130 }
  - { offset: 0x56C3D, size: 0x8, addend: 0x0, symName: __RNvMs_NtCslJiobkLta79_5alloc3vecINtB4_3VecNtNtCsfMaSMcsiNJc_15wiggle_generate6config14ErrorConfFieldE4pushBI_, symObjAddr: 0x3920, symBinAddr: 0x12FC0, symSize: 0x20 }
  - { offset: 0x56D95, size: 0x8, addend: 0x0, symName: __RNvMs_NtCslJiobkLta79_5alloc3vecINtB4_3VecNtNtCsfMaSMcsiNJc_15wiggle_generate6config14ErrorConfFieldE8push_mutBI_, symObjAddr: 0x3940, symBinAddr: 0x12FE0, symSize: 0x130 }
  - { offset: 0x56F57, size: 0x8, addend: 0x0, symName: __RNvMs_NtCslJiobkLta79_5alloc3vecINtB4_3VecNtNtCsfMaSMcsiNJc_15wiggle_generate6config19WasmtimeConfigFieldE4pushBI_, symObjAddr: 0x3A70, symBinAddr: 0x13110, symSize: 0x20 }
  - { offset: 0x570AF, size: 0x8, addend: 0x0, symName: __RNvMs_NtCslJiobkLta79_5alloc3vecINtB4_3VecNtNtCsfMaSMcsiNJc_15wiggle_generate6config19WasmtimeConfigFieldE8push_mutBI_, symObjAddr: 0x3A90, symBinAddr: 0x13130, symSize: 0x130 }
  - { offset: 0x57271, size: 0x8, addend: 0x0, symName: __RNvMs_NtCslJiobkLta79_5alloc3vecINtB4_3VecTNtCsaKzlTDPUHDb_11proc_macro25IdentNtNtCsdGrGZaRBwMb_3syn5token5CommaEE4pushCsfMaSMcsiNJc_15wiggle_generate, symObjAddr: 0x3BC0, symBinAddr: 0x13260, symSize: 0x20 }
  - { offset: 0x57381, size: 0x8, addend: 0x0, symName: __RNvMs_NtCslJiobkLta79_5alloc3vecINtB4_3VecTNtCsaKzlTDPUHDb_11proc_macro25IdentNtNtCsdGrGZaRBwMb_3syn5token5CommaEE8as_sliceCsfMaSMcsiNJc_15wiggle_generate, symObjAddr: 0x3BE0, symBinAddr: 0x13280, symSize: 0x50 }
  - { offset: 0x57527, size: 0x8, addend: 0x0, symName: __RNvMs_NtCslJiobkLta79_5alloc3vecINtB4_3VecTNtCsaKzlTDPUHDb_11proc_macro25IdentNtNtCsdGrGZaRBwMb_3syn5token5CommaEE8push_mutCsfMaSMcsiNJc_15wiggle_generate, symObjAddr: 0x3C30, symBinAddr: 0x132D0, symSize: 0x120 }
  - { offset: 0x576E9, size: 0x8, addend: 0x0, symName: __RNvMs_NtCslJiobkLta79_5alloc3vecINtB4_3VecTNtNtCsdGrGZaRBwMb_3syn3lit6LitStrNtNtBJ_5token5CommaEE4pushCsfMaSMcsiNJc_15wiggle_generate, symObjAddr: 0x3D50, symBinAddr: 0x133F0, symSize: 0x20 }
  - { offset: 0x577F9, size: 0x8, addend: 0x0, symName: __RNvMs_NtCslJiobkLta79_5alloc3vecINtB4_3VecTNtNtCsdGrGZaRBwMb_3syn3lit6LitStrNtNtBJ_5token5CommaEE8as_sliceCsfMaSMcsiNJc_15wiggle_generate, symObjAddr: 0x3D70, symBinAddr: 0x13410, symSize: 0x50 }
  - { offset: 0x5799F, size: 0x8, addend: 0x0, symName: __RNvMs_NtCslJiobkLta79_5alloc3vecINtB4_3VecTNtNtCsdGrGZaRBwMb_3syn3lit6LitStrNtNtBJ_5token5CommaEE8push_mutCsfMaSMcsiNJc_15wiggle_generate, symObjAddr: 0x3DC0, symBinAddr: 0x13460, symSize: 0xF0 }
  - { offset: 0x57B61, size: 0x8, addend: 0x0, symName: __RNvMs_NtCslJiobkLta79_5alloc3vecINtB4_3VecTNtNtCsfMaSMcsiNJc_15wiggle_generate6config11ConfigFieldNtNtCsdGrGZaRBwMb_3syn5token5CommaEE3lenBJ_, symObjAddr: 0x3EB0, symBinAddr: 0x13550, symSize: 0x10 }
  - { offset: 0x57BA3, size: 0x8, addend: 0x0, symName: __RNvMs_NtCslJiobkLta79_5alloc3vecINtB4_3VecTNtNtCsfMaSMcsiNJc_15wiggle_generate6config11ConfigFieldNtNtCsdGrGZaRBwMb_3syn5token5CommaEE4pushBJ_, symObjAddr: 0x3EC0, symBinAddr: 0x13560, symSize: 0x20 }
  - { offset: 0x57CFB, size: 0x8, addend: 0x0, symName: __RNvMs_NtCslJiobkLta79_5alloc3vecINtB4_3VecTNtNtCsfMaSMcsiNJc_15wiggle_generate6config11ConfigFieldNtNtCsdGrGZaRBwMb_3syn5token5CommaEE8push_mutBJ_, symObjAddr: 0x3EE0, symBinAddr: 0x13580, symSize: 0x130 }
  - { offset: 0x57EBD, size: 0x8, addend: 0x0, symName: __RNvMs_NtCslJiobkLta79_5alloc3vecINtB4_3VecTNtNtCsfMaSMcsiNJc_15wiggle_generate6config13FunctionFieldNtNtCsdGrGZaRBwMb_3syn5token5CommaEE3lenBJ_, symObjAddr: 0x4010, symBinAddr: 0x136B0, symSize: 0x10 }
  - { offset: 0x57EFF, size: 0x8, addend: 0x0, symName: __RNvMs_NtCslJiobkLta79_5alloc3vecINtB4_3VecTNtNtCsfMaSMcsiNJc_15wiggle_generate6config13FunctionFieldNtNtCsdGrGZaRBwMb_3syn5token5CommaEE4pushBJ_, symObjAddr: 0x4020, symBinAddr: 0x136C0, symSize: 0x20 }
  - { offset: 0x58057, size: 0x8, addend: 0x0, symName: __RNvMs_NtCslJiobkLta79_5alloc3vecINtB4_3VecTNtNtCsfMaSMcsiNJc_15wiggle_generate6config13FunctionFieldNtNtCsdGrGZaRBwMb_3syn5token5CommaEE8push_mutBJ_, symObjAddr: 0x4040, symBinAddr: 0x136E0, symSize: 0x130 }
  - { offset: 0x58219, size: 0x8, addend: 0x0, symName: __RNvMs_NtCslJiobkLta79_5alloc3vecINtB4_3VecTNtNtCsfMaSMcsiNJc_15wiggle_generate6config14ErrorConfFieldNtNtCsdGrGZaRBwMb_3syn5token5CommaEE3lenBJ_, symObjAddr: 0x4170, symBinAddr: 0x13810, symSize: 0x10 }
  - { offset: 0x5825B, size: 0x8, addend: 0x0, symName: __RNvMs_NtCslJiobkLta79_5alloc3vecINtB4_3VecTNtNtCsfMaSMcsiNJc_15wiggle_generate6config14ErrorConfFieldNtNtCsdGrGZaRBwMb_3syn5token5CommaEE4pushBJ_, symObjAddr: 0x4180, symBinAddr: 0x13820, symSize: 0x20 }
  - { offset: 0x583B3, size: 0x8, addend: 0x0, symName: __RNvMs_NtCslJiobkLta79_5alloc3vecINtB4_3VecTNtNtCsfMaSMcsiNJc_15wiggle_generate6config14ErrorConfFieldNtNtCsdGrGZaRBwMb_3syn5token5CommaEE8push_mutBJ_, symObjAddr: 0x41A0, symBinAddr: 0x13840, symSize: 0x130 }
  - { offset: 0x58575, size: 0x8, addend: 0x0, symName: __RNvMs_NtCslJiobkLta79_5alloc3vecINtB4_3VecTNtNtCsfMaSMcsiNJc_15wiggle_generate6config19WasmtimeConfigFieldNtNtCsdGrGZaRBwMb_3syn5token5CommaEE3lenBJ_, symObjAddr: 0x42D0, symBinAddr: 0x13970, symSize: 0x10 }
  - { offset: 0x585B7, size: 0x8, addend: 0x0, symName: __RNvMs_NtCslJiobkLta79_5alloc3vecINtB4_3VecTNtNtCsfMaSMcsiNJc_15wiggle_generate6config19WasmtimeConfigFieldNtNtCsdGrGZaRBwMb_3syn5token5CommaEE4pushBJ_, symObjAddr: 0x42E0, symBinAddr: 0x13980, symSize: 0x20 }
  - { offset: 0x5870F, size: 0x8, addend: 0x0, symName: __RNvMs_NtCslJiobkLta79_5alloc3vecINtB4_3VecTNtNtCsfMaSMcsiNJc_15wiggle_generate6config19WasmtimeConfigFieldNtNtCsdGrGZaRBwMb_3syn5token5CommaEE8push_mutBJ_, symObjAddr: 0x4300, symBinAddr: 0x139A0, symSize: 0x130 }
  - { offset: 0x58E79, size: 0x8, addend: 0x0, symName: __RNvXs4_NtNtCs9OU1sGv5X54_5quote9___private3extINtNtCslJiobkLta79_5alloc3vec3VecNtCsaKzlTDPUHDb_11proc_macro211TokenStreamENtB5_16RepAsIteratorExt15quote_into_iterCsfMaSMcsiNJc_15wiggle_generate, symObjAddr: 0x52E0, symBinAddr: 0x14980, symSize: 0x30 }
  - { offset: 0x58EAE, size: 0x8, addend: 0x0, symName: __RNvXs4_NtNtCs9OU1sGv5X54_5quote9___private3extINtNtCslJiobkLta79_5alloc3vec3VecNtCsaKzlTDPUHDb_11proc_macro25IdentENtB5_16RepAsIteratorExt15quote_into_iterCsfMaSMcsiNJc_15wiggle_generate, symObjAddr: 0x5310, symBinAddr: 0x149B0, symSize: 0x30 }
  - { offset: 0x58EE3, size: 0x8, addend: 0x0, symName: __RNvXs4_NtNtCs9OU1sGv5X54_5quote9___private3extINtNtCslJiobkLta79_5alloc3vec3VecNtCsaKzlTDPUHDb_11proc_macro27LiteralENtB5_16RepAsIteratorExt15quote_into_iterCsfMaSMcsiNJc_15wiggle_generate, symObjAddr: 0x5340, symBinAddr: 0x149E0, symSize: 0x30 }
  - { offset: 0x5B16A, size: 0x8, addend: 0x0, symName: __RNCNvNtCsfMaSMcsiNJc_15wiggle_generate5funcs12__define_func0B5_, symObjAddr: 0x0, symBinAddr: 0x17190, symSize: 0x150 }
  - { offset: 0x5FFB4, size: 0x8, addend: 0x0, symName: __RNCNvNtCsfMaSMcsiNJc_15wiggle_generate5funcs12__define_func0B5_, symObjAddr: 0x0, symBinAddr: 0x17190, symSize: 0x150 }
  - { offset: 0x60026, size: 0x8, addend: 0x0, symName: __RNCNvNtCsfMaSMcsiNJc_15wiggle_generate5funcs12__define_funcs_0B5_, symObjAddr: 0x150, symBinAddr: 0x172E0, symSize: 0x100 }
  - { offset: 0x600C2, size: 0x8, addend: 0x0, symName: __RNCNvXs_NtCsfMaSMcsiNJc_15wiggle_generate5funcsNtB6_4RustNtNtCs8QreBtO1sIU_4witx3abi7Bindgen4emit0B8_, symObjAddr: 0x250, symBinAddr: 0x173E0, symSize: 0x520 }
  - { offset: 0x601BC, size: 0x8, addend: 0x0, symName: __RNCNvXs_NtCsfMaSMcsiNJc_15wiggle_generate5funcsNtB6_4RustNtNtCs8QreBtO1sIU_4witx3abi7Bindgen4emits0_0B8_, symObjAddr: 0x770, symBinAddr: 0x17900, symSize: 0x3D0 }
  - { offset: 0x60267, size: 0x8, addend: 0x0, symName: __RNCNvXs_NtCsfMaSMcsiNJc_15wiggle_generate5funcsNtB6_4RustNtNtCs8QreBtO1sIU_4witx3abi7Bindgen4emits1_0B8_, symObjAddr: 0xB40, symBinAddr: 0x17CD0, symSize: 0x150 }
  - { offset: 0x602DE, size: 0x8, addend: 0x0, symName: __RNCNvXs_NtCsfMaSMcsiNJc_15wiggle_generate5funcsNtB6_4RustNtNtCs8QreBtO1sIU_4witx3abi7Bindgen4emits2_0B8_, symObjAddr: 0xC90, symBinAddr: 0x17E20, symSize: 0x90 }
  - { offset: 0x6032D, size: 0x8, addend: 0x0, symName: __RNCNvXs_NtCsfMaSMcsiNJc_15wiggle_generate5funcsNtB6_4RustNtNtCs8QreBtO1sIU_4witx3abi7Bindgen4emits_0B8_, symObjAddr: 0xD20, symBinAddr: 0x17EB0, symSize: 0x430 }
  - { offset: 0x604B9, size: 0x8, addend: 0x0, symName: __RNvXs_NtCsfMaSMcsiNJc_15wiggle_generate5funcsNtB4_4RustNtNtCs8QreBtO1sIU_4witx3abi7Bindgen10push_block, symObjAddr: 0x3980, symBinAddr: 0x1AB10, symSize: 0x60 }
  - { offset: 0x604FF, size: 0x8, addend: 0x0, symName: __RNvXs_NtCsfMaSMcsiNJc_15wiggle_generate5funcsNtB4_4RustNtNtCs8QreBtO1sIU_4witx3abi7Bindgen12finish_block, symObjAddr: 0x39E0, symBinAddr: 0x1AB70, symSize: 0x440 }
  - { offset: 0x605C1, size: 0x8, addend: 0x0, symName: __RNvXs_NtCsfMaSMcsiNJc_15wiggle_generate5funcsNtB4_4RustNtNtCs8QreBtO1sIU_4witx3abi7Bindgen4emit, symObjAddr: 0x3E60, symBinAddr: 0x1AFB0, symSize: 0x52E0 }
  - { offset: 0x61644, size: 0x8, addend: 0x0, symName: __RNvNtCsfMaSMcsiNJc_15wiggle_generate5funcs11define_func, symObjAddr: 0x1240, symBinAddr: 0x183D0, symSize: 0x110 }
  - { offset: 0x616BA, size: 0x8, addend: 0x0, symName: __RNvNtCsfMaSMcsiNJc_15wiggle_generate5funcs11func_bounds, symObjAddr: 0x1350, symBinAddr: 0x184E0, symSize: 0x90 }
  - { offset: 0x61702, size: 0x8, addend: 0x0, symName: __RNvNtCsfMaSMcsiNJc_15wiggle_generate5funcs12__define_func, symObjAddr: 0x13E0, symBinAddr: 0x18570, symSize: 0x25A0 }
  - { offset: 0x67373, size: 0x8, addend: 0x0, symName: __RNvMNtCsfMaSMcsiNJc_15wiggle_generate5funcsNtB2_4Rust5bound, symObjAddr: 0x1150, symBinAddr: 0x182E0, symSize: 0xF0 }
  - { offset: 0x67721, size: 0x8, addend: 0x0, symName: __RINvMs_NtCsfMaSMcsiNJc_15wiggle_generate6configNtB5_6Config5buildINtNtCsdGrGZaRBwMb_3syn10punctuated8IntoIterNtB5_11ConfigFieldEEB7_, symObjAddr: 0x0, symBinAddr: 0x20290, symSize: 0x1080 }
  - { offset: 0x6E179, size: 0x8, addend: 0x0, symName: __RNvNtCslJiobkLta79_5alloc3fmt6formatCsfMaSMcsiNJc_15wiggle_generate, symObjAddr: 0x3650, symBinAddr: 0x23840, symSize: 0xC0 }
  - { offset: 0x6E401, size: 0x8, addend: 0x0, symName: __RINvXs7_NtCsaKzlTDPUHDb_11proc_macro23impNtB6_11TokenStreamINtNtNtNtCsieiGu2EXtoJ_4core4iter6traits7collect6ExtendNtB8_9TokenTreeE6extendNtB8_11TokenStreamECsfMaSMcsiNJc_15wiggle_generate, symObjAddr: 0x2940, symBinAddr: 0x22BD0, symSize: 0x170 }
  - { offset: 0x6E49D, size: 0x8, addend: 0x0, symName: __RNvXsA_NtCsaKzlTDPUHDb_11proc_macro23impNtB5_19DeferredTokenStreamNtNtCsieiGu2EXtoJ_4core5clone5Clone5cloneCsfMaSMcsiNJc_15wiggle_generate, symObjAddr: 0x63B0, symBinAddr: 0x26530, symSize: 0xA0 }
  - { offset: 0x6E4CF, size: 0x8, addend: 0x0, symName: __RNvXsF_NtCsaKzlTDPUHDb_11proc_macro23impNtB5_5IdentNtNtCsieiGu2EXtoJ_4core5clone5Clone5cloneCsfMaSMcsiNJc_15wiggle_generate, symObjAddr: 0x6560, symBinAddr: 0x266E0, symSize: 0x90 }
  - { offset: 0x6E53F, size: 0x8, addend: 0x0, symName: __RNvXsz_NtCsaKzlTDPUHDb_11proc_macro23impNtB5_11TokenStreamNtNtCsieiGu2EXtoJ_4core5clone5Clone5cloneCsfMaSMcsiNJc_15wiggle_generate, symObjAddr: 0xA080, symBinAddr: 0x2A150, symSize: 0xB0 }
  - { offset: 0x72500, size: 0x8, addend: 0x0, symName: __RNvNvMNtNtCsieiGu2EXtoJ_4core5alloc6layoutNtB4_6Layout25from_size_align_unchecked18precondition_checkCsfMaSMcsiNJc_15wiggle_generate, symObjAddr: 0x3710, symBinAddr: 0x23900, symSize: 0xB0 }
  - { offset: 0x72576, size: 0x8, addend: 0x0, symName: __RNvNvNtCsieiGu2EXtoJ_4core4hint16assert_unchecked18precondition_checkCsfMaSMcsiNJc_15wiggle_generate, symObjAddr: 0x37C0, symBinAddr: 0x239B0, symSize: 0xA0 }
  - { offset: 0x72786, size: 0x8, addend: 0x0, symName: __RNvNvNtNtCsieiGu2EXtoJ_4core5slice3raw14from_raw_parts18precondition_checkCsfMaSMcsiNJc_15wiggle_generate, symObjAddr: 0x3860, symBinAddr: 0x23A50, symSize: 0x260 }
  - { offset: 0x72954, size: 0x8, addend: 0x0, symName: __RNvNvNtNtCsieiGu2EXtoJ_4core5slice3raw18from_raw_parts_mut18precondition_checkCsfMaSMcsiNJc_15wiggle_generate, symObjAddr: 0x3AC0, symBinAddr: 0x23CB0, symSize: 0x260 }
  - { offset: 0x73AC3, size: 0x8, addend: 0x0, symName: __RNCINvMs_NtCsfMaSMcsiNJc_15wiggle_generate6configNtB7_6Config5buildINtNtCsdGrGZaRBwMb_3syn10punctuated8IntoIterNtB7_11ConfigFieldEE0B9_, symObjAddr: 0x2AB0, symBinAddr: 0x22D40, symSize: 0x40 }
  - { offset: 0x73AFA, size: 0x8, addend: 0x0, symName: __RNCINvMs_NtCsfMaSMcsiNJc_15wiggle_generate6configNtB7_6Config5buildINtNtNtCslJiobkLta79_5alloc3vec9into_iter8IntoIterNtB7_11ConfigFieldEE0B9_, symObjAddr: 0x2AF0, symBinAddr: 0x22D80, symSize: 0x40 }
  - { offset: 0x73B3D, size: 0x8, addend: 0x0, symName: __RNCINvMsk_NtCsfMaSMcsiNJc_15wiggle_generate6configNtB8_14WasmtimeConfig5buildINtNtCsdGrGZaRBwMb_3syn10punctuated8IntoIterNtB8_19WasmtimeConfigFieldEE0Ba_, symObjAddr: 0x2B30, symBinAddr: 0x22DC0, symSize: 0x40 }
  - { offset: 0x73B87, size: 0x8, addend: 0x0, symName: __RNCNCNvMsh_NtCsfMaSMcsiNJc_15wiggle_generate6configNtB9_9AsyncConf3get00Bb_, symObjAddr: 0x2B70, symBinAddr: 0x22E00, symSize: 0x40 }
  - { offset: 0x73BC8, size: 0x8, addend: 0x0, symName: __RNCNvMsh_NtCsfMaSMcsiNJc_15wiggle_generate6configNtB7_9AsyncConf3get0B9_, symObjAddr: 0x2BF0, symBinAddr: 0x22E80, symSize: 0x60 }
  - { offset: 0x73C18, size: 0x8, addend: 0x0, symName: __RNCNCNvMsn_NtCsfMaSMcsiNJc_15wiggle_generate6configNtB9_11TracingConf11enabled_for00Bb_, symObjAddr: 0x2BB0, symBinAddr: 0x22E40, symSize: 0x40 }
  - { offset: 0x73C59, size: 0x8, addend: 0x0, symName: __RNCNvMsn_NtCsfMaSMcsiNJc_15wiggle_generate6configNtB7_11TracingConf11enabled_for0B9_, symObjAddr: 0x2C50, symBinAddr: 0x22EE0, symSize: 0x60 }
  - { offset: 0x73CA4, size: 0x8, addend: 0x0, symName: __RNCNvXs7_NtCsfMaSMcsiNJc_15wiggle_generate6configNtB7_5PathsNtNtCsdGrGZaRBwMb_3syn5parse5Parse5parse0B9_, symObjAddr: 0x2CB0, symBinAddr: 0x22F40, symSize: 0x120 }
  - { offset: 0x73CE2, size: 0x8, addend: 0x0, symName: __RNvXs7_NtCsfMaSMcsiNJc_15wiggle_generate6configNtB5_5PathsNtNtCsdGrGZaRBwMb_3syn5parse5Parse5parse, symObjAddr: 0x5E90, symBinAddr: 0x26010, symSize: 0x3B0 }
  - { offset: 0x73DCC, size: 0x8, addend: 0x0, symName: __RNCNvXsi_NtCsfMaSMcsiNJc_15wiggle_generate6configNtB7_14AsyncFunctionsNtNtCsdGrGZaRBwMb_3syn5parse5Parse5parse0B9_, symObjAddr: 0x2DD0, symBinAddr: 0x23060, symSize: 0x40 }
  - { offset: 0x73E0D, size: 0x8, addend: 0x0, symName: __RNvXsi_NtCsfMaSMcsiNJc_15wiggle_generate6configNtB5_14AsyncFunctionsNtNtCsdGrGZaRBwMb_3syn5parse5Parse5parse, symObjAddr: 0x7860, symBinAddr: 0x27930, symSize: 0xA40 }
  - { offset: 0x73FC2, size: 0x8, addend: 0x0, symName: __RNCNvXsp_NtCsfMaSMcsiNJc_15wiggle_generate6configNtB7_11TracingConfNtNtCsdGrGZaRBwMb_3syn5parse5Parse5parse0B9_, symObjAddr: 0x2E10, symBinAddr: 0x230A0, symSize: 0x40 }
  - { offset: 0x74003, size: 0x8, addend: 0x0, symName: __RNvXsp_NtCsfMaSMcsiNJc_15wiggle_generate6configNtB5_11TracingConfNtNtCsdGrGZaRBwMb_3syn5parse5Parse5parse, symObjAddr: 0x9610, symBinAddr: 0x296E0, symSize: 0xA70 }
  - { offset: 0x7427A, size: 0x8, addend: 0x0, symName: __RNvXNtCsfMaSMcsiNJc_15wiggle_generate6configNtB2_11ConfigFieldNtNtCsdGrGZaRBwMb_3syn5parse5Parse5parse, symObjAddr: 0x3D20, symBinAddr: 0x23F10, symSize: 0x1BE0 }
  - { offset: 0x7459D, size: 0x8, addend: 0x0, symName: __RNvXs0_NtCsfMaSMcsiNJc_15wiggle_generate6configNtB5_6ConfigNtNtCsdGrGZaRBwMb_3syn5parse5Parse5parse, symObjAddr: 0x5900, symBinAddr: 0x25AF0, symSize: 0x500 }
  - { offset: 0x746A0, size: 0x8, addend: 0x0, symName: __RNvXs4_NtCsfMaSMcsiNJc_15wiggle_generate6configNtB5_5PathsINtNtCsieiGu2EXtoJ_4core7convert5AsRefSNtNtCsHUR1vrdMJt_3std4path7PathBufE6as_ref, symObjAddr: 0x5E50, symBinAddr: 0x25FF0, symSize: 0x20 }
  - { offset: 0x746D2, size: 0x8, addend: 0x0, symName: __RNvXs8_NtCsfMaSMcsiNJc_15wiggle_generate6configNtB5_7LiteralINtNtCsieiGu2EXtoJ_4core7convert5AsRefeE6as_ref, symObjAddr: 0x6240, symBinAddr: 0x263C0, symSize: 0x20 }
  - { offset: 0x74706, size: 0x8, addend: 0x0, symName: __RNvXs9_NtCsfMaSMcsiNJc_15wiggle_generate6configNtB5_7LiteralNtNtCsdGrGZaRBwMb_3syn5parse5Parse5parse, symObjAddr: 0x6260, symBinAddr: 0x263E0, symSize: 0x150 }
  - { offset: 0x74776, size: 0x8, addend: 0x0, symName: __RNvXsB_NtCsfMaSMcsiNJc_15wiggle_generate6configNtB5_9ErrorConfNtNtCsieiGu2EXtoJ_4core7default7Default7defaultB7_, symObjAddr: 0x6450, symBinAddr: 0x265D0, symSize: 0x40 }
  - { offset: 0x7479A, size: 0x8, addend: 0x0, symName: __RNvXsE_NtCsfMaSMcsiNJc_15wiggle_generate6configNtB5_14ErrorConfFieldNtNtCsieiGu2EXtoJ_4core5clone5Clone5cloneB7_, symObjAddr: 0x6490, symBinAddr: 0x26610, symSize: 0xD0 }
  - { offset: 0x7480A, size: 0x8, addend: 0x0, symName: __RNvXsF_NtCsfMaSMcsiNJc_15wiggle_generate6configNtB5_23TrappableErrorConfFieldNtNtCsieiGu2EXtoJ_4core5clone5Clone5cloneB7_, symObjAddr: 0x65F0, symBinAddr: 0x26770, symSize: 0xD0 }
  - { offset: 0x7483E, size: 0x8, addend: 0x0, symName: __RNvXsH_NtCsfMaSMcsiNJc_15wiggle_generate6configNtB5_18UserErrorConfFieldNtNtCsieiGu2EXtoJ_4core5clone5Clone5cloneB7_, symObjAddr: 0x66C0, symBinAddr: 0x26840, symSize: 0xD0 }
  - { offset: 0x74872, size: 0x8, addend: 0x0, symName: __RNvXsI_NtCsfMaSMcsiNJc_15wiggle_generate6configNtB5_9AsyncConfNtNtCsieiGu2EXtoJ_4core5clone5Clone5cloneB7_, symObjAddr: 0x6790, symBinAddr: 0x26910, symSize: 0xA0 }
  - { offset: 0x748A6, size: 0x8, addend: 0x0, symName: __RNvXsJ_NtCsfMaSMcsiNJc_15wiggle_generate6configNtB5_9AsyncConfNtNtCsieiGu2EXtoJ_4core7default7Default7defaultB7_, symObjAddr: 0x6830, symBinAddr: 0x269B0, symSize: 0x90 }
  - { offset: 0x748CA, size: 0x8, addend: 0x0, symName: __RNvXsN_NtCsfMaSMcsiNJc_15wiggle_generate6configNtB5_14AsyncFunctionsNtNtCsieiGu2EXtoJ_4core5clone5Clone5cloneB7_, symObjAddr: 0x68C0, symBinAddr: 0x26A40, symSize: 0x70 }
  - { offset: 0x7491C, size: 0x8, addend: 0x0, symName: __RNvXsS_NtCsfMaSMcsiNJc_15wiggle_generate6configNtB5_11TracingConfNtNtCsieiGu2EXtoJ_4core5clone5Clone5cloneB7_, symObjAddr: 0x6930, symBinAddr: 0x26AB0, symSize: 0x50 }
  - { offset: 0x74950, size: 0x8, addend: 0x0, symName: __RNvXsb_NtCsfMaSMcsiNJc_15wiggle_generate6configNtB5_9ErrorConfNtNtCsdGrGZaRBwMb_3syn5parse5Parse5parse, symObjAddr: 0x6980, symBinAddr: 0x26B00, symSize: 0x7B0 }
  - { offset: 0x74AD7, size: 0x8, addend: 0x0, symName: __RNvXsd_NtCsfMaSMcsiNJc_15wiggle_generate6configNtB5_14ErrorConfFieldNtNtCsdGrGZaRBwMb_3syn5parse5Parse5parse, symObjAddr: 0x7130, symBinAddr: 0x272B0, symSize: 0x640 }
  - { offset: 0x74C3E, size: 0x8, addend: 0x0, symName: __RNvXsg_NtCsfMaSMcsiNJc_15wiggle_generate6configNtB5_14AsyncFunctionsNtNtCsieiGu2EXtoJ_4core7default7Default7default, symObjAddr: 0x7820, symBinAddr: 0x278F0, symSize: 0x40 }
  - { offset: 0x74C62, size: 0x8, addend: 0x0, symName: __RNvXsj_NtCsfMaSMcsiNJc_15wiggle_generate6configNtB5_13FunctionFieldNtNtCsdGrGZaRBwMb_3syn5parse5Parse5parse, symObjAddr: 0x82A0, symBinAddr: 0x28370, symSize: 0xA90 }
  - { offset: 0x74E46, size: 0x8, addend: 0x0, symName: __RNvXsl_NtCsfMaSMcsiNJc_15wiggle_generate6configNtB5_14WasmtimeConfigNtNtCsdGrGZaRBwMb_3syn5parse5Parse5parse, symObjAddr: 0x8D30, symBinAddr: 0x28E00, symSize: 0x500 }
  - { offset: 0x74F53, size: 0x8, addend: 0x0, symName: __RNvXsm_NtCsfMaSMcsiNJc_15wiggle_generate6configNtB5_19WasmtimeConfigFieldNtNtCsdGrGZaRBwMb_3syn5parse5Parse5parse, symObjAddr: 0x9230, symBinAddr: 0x29300, symSize: 0x390 }
  - { offset: 0x75003, size: 0x8, addend: 0x0, symName: __RNvXso_NtCsfMaSMcsiNJc_15wiggle_generate6configNtB5_11TracingConfNtNtCsieiGu2EXtoJ_4core7default7Default7default, symObjAddr: 0x95C0, symBinAddr: 0x29690, symSize: 0x50 }
  - { offset: 0x7596D, size: 0x8, addend: 0x0, symName: __RINvMs_NtCsfMaSMcsiNJc_15wiggle_generate6configNtB5_6Config5buildINtNtCsdGrGZaRBwMb_3syn10punctuated8IntoIterNtB5_11ConfigFieldEEB7_, symObjAddr: 0x0, symBinAddr: 0x20290, symSize: 0x1080 }
  - { offset: 0x75B16, size: 0x8, addend: 0x0, symName: __RINvMs_NtCsfMaSMcsiNJc_15wiggle_generate6configNtB5_6Config5buildINtNtNtCslJiobkLta79_5alloc3vec9into_iter8IntoIterNtB5_11ConfigFieldEEB7_, symObjAddr: 0x1080, symBinAddr: 0x21310, symSize: 0x1080 }
  - { offset: 0x75CCC, size: 0x8, addend: 0x0, symName: __RINvMsk_NtCsfMaSMcsiNJc_15wiggle_generate6configNtB6_14WasmtimeConfig5buildINtNtCsdGrGZaRBwMb_3syn10punctuated8IntoIterNtB6_19WasmtimeConfigFieldEEB8_, symObjAddr: 0x2100, symBinAddr: 0x22390, symSize: 0x840 }
  - { offset: 0x75E99, size: 0x8, addend: 0x0, symName: __RNvMs1_NtCsfMaSMcsiNJc_15wiggle_generate6configNtB5_8WitxConf13load_document, symObjAddr: 0x2E50, symBinAddr: 0x230E0, symSize: 0xE0 }
  - { offset: 0x75EFA, size: 0x8, addend: 0x0, symName: __RNvMs_NtCsfMaSMcsiNJc_15wiggle_generate6configNtB4_6Config13load_document, symObjAddr: 0x2F60, symBinAddr: 0x231C0, symSize: 0x30 }
  - { offset: 0x75F75, size: 0x8, addend: 0x0, symName: __RNvMsa_NtCsfMaSMcsiNJc_15wiggle_generate6configNtB5_9ErrorConf4iter, symObjAddr: 0x2F90, symBinAddr: 0x231F0, symSize: 0x30 }
  - { offset: 0x75FA5, size: 0x8, addend: 0x0, symName: __RNvMsc_NtCsfMaSMcsiNJc_15wiggle_generate6configNtB5_14ErrorConfField7err_loc, symObjAddr: 0x2FC0, symBinAddr: 0x23220, symSize: 0x70 }
  - { offset: 0x76004, size: 0x8, addend: 0x0, symName: __RNvMsc_NtCsfMaSMcsiNJc_15wiggle_generate6configNtB5_14ErrorConfField9abi_error, symObjAddr: 0x3030, symBinAddr: 0x23290, symSize: 0x70 }
  - { offset: 0x76070, size: 0x8, addend: 0x0, symName: __RNvMsf_NtCsfMaSMcsiNJc_15wiggle_generate6configNtB5_9Asyncness7is_sync, symObjAddr: 0x30A0, symBinAddr: 0x23300, symSize: 0x60 }
  - { offset: 0x760A0, size: 0x8, addend: 0x0, symName: __RNvMsf_NtCsfMaSMcsiNJc_15wiggle_generate6configNtB5_9Asyncness8is_async, symObjAddr: 0x3170, symBinAddr: 0x23360, symSize: 0x60 }
  - { offset: 0x76146, size: 0x8, addend: 0x0, symName: __RNvMsh_NtCsfMaSMcsiNJc_15wiggle_generate6configNtB5_9AsyncConf14contains_async, symObjAddr: 0x31D0, symBinAddr: 0x233C0, symSize: 0x1B0 }
  - { offset: 0x761F7, size: 0x8, addend: 0x0, symName: __RNvMsh_NtCsfMaSMcsiNJc_15wiggle_generate6configNtB5_9AsyncConf3get, symObjAddr: 0x3380, symBinAddr: 0x23570, symSize: 0x250 }
  - { offset: 0x76291, size: 0x8, addend: 0x0, symName: __RNvMsn_NtCsfMaSMcsiNJc_15wiggle_generate6configNtB5_11TracingConf11enabled_for, symObjAddr: 0x35D0, symBinAddr: 0x237C0, symSize: 0x80 }
  - { offset: 0x76837, size: 0x8, addend: 0x0, symName: __RINvMNtCslJiobkLta79_5alloc5sliceSNtCsaKzlTDPUHDb_11proc_macro25Ident8into_vecNtNtB5_5alloc6GlobalECsfMaSMcsiNJc_15wiggle_generate, symObjAddr: 0x0, symBinAddr: 0x2A200, symSize: 0x40 }
  - { offset: 0x76E97, size: 0x8, addend: 0x0, symName: __RNCNvMs1_NtCs8QreBtO1sIU_4witx3abiINtB7_9GeneratorNtNtCsfMaSMcsiNJc_15wiggle_generate5funcs4RustE4lift0BQ_, symObjAddr: 0x130, symBinAddr: 0x2A330, symSize: 0x120 }
  - { offset: 0x76F83, size: 0x8, addend: 0x0, symName: __RNCNvMs1_NtCs8QreBtO1sIU_4witx3abiINtB7_9GeneratorNtNtCsfMaSMcsiNJc_15wiggle_generate5funcs4RustE5lower0BQ_, symObjAddr: 0x250, symBinAddr: 0x2A450, symSize: 0x110 }
  - { offset: 0x77747, size: 0x8, addend: 0x0, symName: __RNvXs2_NtCs8QreBtO1sIU_4witx3abiNtB5_8WasmTypeNtNtCsieiGu2EXtoJ_4core3fmt5Debug3fmtCsfMaSMcsiNJc_15wiggle_generate, symObjAddr: 0x5D40, symBinAddr: 0x2F9A0, symSize: 0xB0 }
  - { offset: 0x77787, size: 0x8, addend: 0x0, symName: __RNvXs8_NtCs8QreBtO1sIU_4witx3abiNtB5_3AbiNtNtCsieiGu2EXtoJ_4core3fmt5Debug3fmtCsfMaSMcsiNJc_15wiggle_generate, symObjAddr: 0x6560, symBinAddr: 0x301C0, symSize: 0x40 }
  - { offset: 0x777C7, size: 0x8, addend: 0x0, symName: __RNvXsc_NtCs8QreBtO1sIU_4witx3abiNtB5_3AbiNtNtCsieiGu2EXtoJ_4core3cmp9PartialEq2eqCsfMaSMcsiNJc_15wiggle_generate, symObjAddr: 0x6660, symBinAddr: 0x302C0, symSize: 0x20 }
  - { offset: 0x77807, size: 0x8, addend: 0x0, symName: __RNvXsg_NtCs8QreBtO1sIU_4witx3abiNtB5_11InstructionNtNtCsieiGu2EXtoJ_4core3fmt5Debug3fmtCsfMaSMcsiNJc_15wiggle_generate, symObjAddr: 0x66F0, symBinAddr: 0x30350, symSize: 0xDF0 }
  - { offset: 0x78F86, size: 0x8, addend: 0x0, symName: __RNvXs6_NtCslJiobkLta79_5alloc5boxedINtB5_3BoxANtCsaKzlTDPUHDb_11proc_macro25Identj1_ENtNtNtCsieiGu2EXtoJ_4core3ops4drop4Drop4dropCsfMaSMcsiNJc_15wiggle_generate, symObjAddr: 0x5E50, symBinAddr: 0x2FAB0, symSize: 0xB0 }
  - { offset: 0x790C1, size: 0x8, addend: 0x0, symName: __RNvXs6_NtCslJiobkLta79_5alloc5boxedINtB5_3BoxINtNtCsdGrGZaRBwMb_3syn5drops6NoDropDINtNtBM_10punctuated9IterTraitNtCsaKzlTDPUHDb_11proc_macro25IdentEp4ItemRB1M_EL_EENtNtNtCsieiGu2EXtoJ_4core3ops4drop4Drop4dropCsfMaSMcsiNJc_15wiggle_generate, symObjAddr: 0x5F00, symBinAddr: 0x2FB60, symSize: 0x120 }
  - { offset: 0x791FE, size: 0x8, addend: 0x0, symName: __RNvXs6_NtCslJiobkLta79_5alloc5boxedINtB5_3BoxINtNtCsdGrGZaRBwMb_3syn5drops6NoDropDINtNtBM_10punctuated9IterTraitNtNtBM_3lit6LitStrEp4ItemRB1M_EL_EENtNtNtCsieiGu2EXtoJ_4core3ops4drop4Drop4dropCsfMaSMcsiNJc_15wiggle_generate, symObjAddr: 0x6020, symBinAddr: 0x2FC80, symSize: 0x120 }
  - { offset: 0x7933B, size: 0x8, addend: 0x0, symName: __RNvXs6_NtCslJiobkLta79_5alloc5boxedINtB5_3BoxNtCsaKzlTDPUHDb_11proc_macro25IdentENtNtNtCsieiGu2EXtoJ_4core3ops4drop4Drop4dropCsfMaSMcsiNJc_15wiggle_generate, symObjAddr: 0x6140, symBinAddr: 0x2FDA0, symSize: 0xB0 }
  - { offset: 0x79476, size: 0x8, addend: 0x0, symName: __RNvXs6_NtCslJiobkLta79_5alloc5boxedINtB5_3BoxNtNtCsdGrGZaRBwMb_3syn3lit6LitStrENtNtNtCsieiGu2EXtoJ_4core3ops4drop4Drop4dropCsfMaSMcsiNJc_15wiggle_generate, symObjAddr: 0x61F0, symBinAddr: 0x2FE50, symSize: 0xB0 }
  - { offset: 0x795B1, size: 0x8, addend: 0x0, symName: __RNvXs6_NtCslJiobkLta79_5alloc5boxedINtB5_3BoxNtNtCsfMaSMcsiNJc_15wiggle_generate6config11ConfigFieldENtNtNtCsieiGu2EXtoJ_4core3ops4drop4Drop4dropBL_, symObjAddr: 0x62A0, symBinAddr: 0x2FF00, symSize: 0xB0 }
  - { offset: 0x796EC, size: 0x8, addend: 0x0, symName: __RNvXs6_NtCslJiobkLta79_5alloc5boxedINtB5_3BoxNtNtCsfMaSMcsiNJc_15wiggle_generate6config13FunctionFieldENtNtNtCsieiGu2EXtoJ_4core3ops4drop4Drop4dropBL_, symObjAddr: 0x6350, symBinAddr: 0x2FFB0, symSize: 0xB0 }
  - { offset: 0x79827, size: 0x8, addend: 0x0, symName: __RNvXs6_NtCslJiobkLta79_5alloc5boxedINtB5_3BoxNtNtCsfMaSMcsiNJc_15wiggle_generate6config14ErrorConfFieldENtNtNtCsieiGu2EXtoJ_4core3ops4drop4Drop4dropBL_, symObjAddr: 0x6400, symBinAddr: 0x30060, symSize: 0xB0 }
  - { offset: 0x79962, size: 0x8, addend: 0x0, symName: __RNvXs6_NtCslJiobkLta79_5alloc5boxedINtB5_3BoxNtNtCsfMaSMcsiNJc_15wiggle_generate6config19WasmtimeConfigFieldENtNtNtCsieiGu2EXtoJ_4core3ops4drop4Drop4dropBL_, symObjAddr: 0x64B0, symBinAddr: 0x30110, symSize: 0xB0 }
  - { offset: 0x79AA3, size: 0x8, addend: 0x0, symName: __RNvXsC_NtCslJiobkLta79_5alloc5boxedINtB5_3BoxNtCsaKzlTDPUHDb_11proc_macro25IdentEINtNtCsieiGu2EXtoJ_4core7convert5AsRefBH_E6as_refCsfMaSMcsiNJc_15wiggle_generate, symObjAddr: 0x65A0, symBinAddr: 0x30200, symSize: 0x10 }
  - { offset: 0x79AE3, size: 0x8, addend: 0x0, symName: __RNvXsC_NtCslJiobkLta79_5alloc5boxedINtB5_3BoxNtNtCsdGrGZaRBwMb_3syn3lit6LitStrEINtNtCsieiGu2EXtoJ_4core7convert5AsRefBH_E6as_refCsfMaSMcsiNJc_15wiggle_generate, symObjAddr: 0x65B0, symBinAddr: 0x30210, symSize: 0x10 }
  - { offset: 0x79B2F, size: 0x8, addend: 0x0, symName: __RINvMNtCslJiobkLta79_5alloc5sliceSNtCsaKzlTDPUHDb_11proc_macro25Ident8into_vecNtNtB5_5alloc6GlobalECsfMaSMcsiNJc_15wiggle_generate, symObjAddr: 0x0, symBinAddr: 0x2A200, symSize: 0x40 }
  - { offset: 0x7CB64, size: 0x8, addend: 0x0, symName: __RINvXs3_NtNtCsieiGu2EXtoJ_4core4hash5implsRNtCsaKzlTDPUHDb_11proc_macro25IdentNtB8_4Hash4hashNtNtNtCsHUR1vrdMJt_3std4hash6random13DefaultHasherECsfMaSMcsiNJc_15wiggle_generate, symObjAddr: 0x40, symBinAddr: 0x2A240, symSize: 0x20 }
  - { offset: 0x7CC7E, size: 0x8, addend: 0x0, symName: __RNvMNtCsieiGu2EXtoJ_4core5sliceSNtCsaKzlTDPUHDb_11proc_macro211TokenStream4iterCsfMaSMcsiNJc_15wiggle_generate, symObjAddr: 0x3E0, symBinAddr: 0x2A5E0, symSize: 0x20 }
  - { offset: 0x7CCB5, size: 0x8, addend: 0x0, symName: __RNvMNtCsieiGu2EXtoJ_4core5sliceSNtCsaKzlTDPUHDb_11proc_macro25Ident4iterCsfMaSMcsiNJc_15wiggle_generate, symObjAddr: 0x400, symBinAddr: 0x2A600, symSize: 0x20 }
  - { offset: 0x7CCEC, size: 0x8, addend: 0x0, symName: __RNvMNtCsieiGu2EXtoJ_4core5sliceSNtCsaKzlTDPUHDb_11proc_macro25Ident8containsCsfMaSMcsiNJc_15wiggle_generate, symObjAddr: 0x420, symBinAddr: 0x2A620, symSize: 0x30 }
  - { offset: 0x7CD32, size: 0x8, addend: 0x0, symName: __RNvMNtCsieiGu2EXtoJ_4core5sliceSNtCsaKzlTDPUHDb_11proc_macro27Literal4iterCsfMaSMcsiNJc_15wiggle_generate, symObjAddr: 0x450, symBinAddr: 0x2A650, symSize: 0x20 }
  - { offset: 0x7CD69, size: 0x8, addend: 0x0, symName: __RNvMNtCsieiGu2EXtoJ_4core5sliceSNtNtCs8QreBtO1sIU_4witx3abi8WasmType4iterCsfMaSMcsiNJc_15wiggle_generate, symObjAddr: 0x470, symBinAddr: 0x2A670, symSize: 0x20 }
  - { offset: 0x7CDA0, size: 0x8, addend: 0x0, symName: __RNvMNtCsieiGu2EXtoJ_4core5sliceSTNtCsaKzlTDPUHDb_11proc_macro25IdentNtNtCsdGrGZaRBwMb_3syn5token5CommaE4iterCsfMaSMcsiNJc_15wiggle_generate, symObjAddr: 0x490, symBinAddr: 0x2A690, symSize: 0x20 }
  - { offset: 0x7D022, size: 0x8, addend: 0x0, symName: __RNvXsf_NtNtCsieiGu2EXtoJ_4core5slice3cmpNtCsaKzlTDPUHDb_11proc_macro25IdentNtB5_13SliceContains14slice_containsCsfMaSMcsiNJc_15wiggle_generate, symObjAddr: 0x6680, symBinAddr: 0x302E0, symSize: 0x70 }
  - { offset: 0x7D25D, size: 0x8, addend: 0x0, symName: __RNvXNtCsieiGu2EXtoJ_4core6borrowNtCsaKzlTDPUHDb_11proc_macro25IdentINtB2_6BorrowBu_E6borrowCsfMaSMcsiNJc_15wiggle_generate, symObjAddr: 0x5BC0, symBinAddr: 0x2F820, symSize: 0x10 }
  - { offset: 0x7D29E, size: 0x8, addend: 0x0, symName: __RNvXs19_NtCsieiGu2EXtoJ_4core3fmtRNtCsaKzlTDPUHDb_11proc_macro24SpanNtB6_5Debug3fmtCsfMaSMcsiNJc_15wiggle_generate, symObjAddr: 0x5C50, symBinAddr: 0x2F8B0, symSize: 0x20 }
  - { offset: 0x7D2E4, size: 0x8, addend: 0x0, symName: __RNvXs19_NtCsieiGu2EXtoJ_4core3fmtRNtNtCs8QreBtO1sIU_4witx3abi11InstructionNtB6_5Debug3fmtCsfMaSMcsiNJc_15wiggle_generate, symObjAddr: 0x5C70, symBinAddr: 0x2F8D0, symSize: 0x20 }
  - { offset: 0x7D32A, size: 0x8, addend: 0x0, symName: __RNvXs19_NtCsieiGu2EXtoJ_4core3fmtRNtNtCs8QreBtO1sIU_4witx3abi8WasmTypeNtB6_5Debug3fmtCsfMaSMcsiNJc_15wiggle_generate, symObjAddr: 0x5C90, symBinAddr: 0x2F8F0, symSize: 0x20 }
  - { offset: 0x7D370, size: 0x8, addend: 0x0, symName: __RNvXs19_NtCsieiGu2EXtoJ_4core3fmtRNtNtCsHUR1vrdMJt_3std3env8VarErrorNtB6_5Debug3fmtCsfMaSMcsiNJc_15wiggle_generate, symObjAddr: 0x5CB0, symBinAddr: 0x2F910, symSize: 0x20 }
  - { offset: 0x7D3B6, size: 0x8, addend: 0x0, symName: __RNvXs19_NtCsieiGu2EXtoJ_4core3fmtRNtNtNtCsHUR1vrdMJt_3std3ffi6os_str8OsStringNtB6_5Debug3fmtCsfMaSMcsiNJc_15wiggle_generate, symObjAddr: 0x5CD0, symBinAddr: 0x2F930, symSize: 0x20 }
  - { offset: 0x7D3FC, size: 0x8, addend: 0x0, symName: __RNvXs19_NtCsieiGu2EXtoJ_4core3fmtRRSNtNtCs8QreBtO1sIU_4witx3abi8WasmTypeNtB6_5Debug3fmtCsfMaSMcsiNJc_15wiggle_generate, symObjAddr: 0x5CF0, symBinAddr: 0x2F950, symSize: 0x20 }
  - { offset: 0x7D442, size: 0x8, addend: 0x0, symName: __RNvXs19_NtCsieiGu2EXtoJ_4core3fmtRSNtNtCs8QreBtO1sIU_4witx3abi8WasmTypeNtB6_5Debug3fmtCsfMaSMcsiNJc_15wiggle_generate, symObjAddr: 0x5D10, symBinAddr: 0x2F970, symSize: 0x30 }
  - { offset: 0x7D48E, size: 0x8, addend: 0x0, symName: __RNvXsq_NtCsieiGu2EXtoJ_4core3fmtSNtNtCs8QreBtO1sIU_4witx3abi8WasmTypeNtB5_5Debug3fmtCsfMaSMcsiNJc_15wiggle_generate, symObjAddr: 0x7570, symBinAddr: 0x311D0, symSize: 0x80 }
  - { offset: 0x7DD23, size: 0x8, addend: 0x0, symName: __RNvXs3_NtNtCsHUR1vrdMJt_3std3ffi6os_strNtB5_8OsStringINtNtNtCsieiGu2EXtoJ_4core3ops5index5IndexNtNtBU_5range9RangeFullE5indexCsfMaSMcsiNJc_15wiggle_generate, symObjAddr: 0x5DF0, symBinAddr: 0x2FA50, symSize: 0x60 }
  - { offset: 0x7DF9E, size: 0x8, addend: 0x0, symName: __RNvXsk_NtCsHUR1vrdMJt_3std3envNtB5_8VarErrorNtNtCsieiGu2EXtoJ_4core3fmt5Debug3fmtCsfMaSMcsiNJc_15wiggle_generate, symObjAddr: 0x74E0, symBinAddr: 0x31140, symSize: 0x90 }
  - { offset: 0x7E784, size: 0x8, addend: 0x0, symName: __RINvXs4_CsaKzlTDPUHDb_11proc_macro2NtB6_11TokenStreamINtNtNtNtCsieiGu2EXtoJ_4core4iter6traits7collect6ExtendNtB6_9TokenTreeE6extendBx_ECsfMaSMcsiNJc_15wiggle_generate, symObjAddr: 0x60, symBinAddr: 0x2A260, symSize: 0x20 }
  - { offset: 0x7E7CD, size: 0x8, addend: 0x0, symName: __RINvXsD_CsaKzlTDPUHDb_11proc_macro2NtB6_5IdentNtNtCsieiGu2EXtoJ_4core4hash4Hash4hashNtNtNtCsHUR1vrdMJt_3std4hash6random13DefaultHasherECsfMaSMcsiNJc_15wiggle_generate, symObjAddr: 0x80, symBinAddr: 0x2A280, symSize: 0x80 }
  - { offset: 0x7EA1A, size: 0x8, addend: 0x0, symName: __RNvXs12_CsaKzlTDPUHDb_11proc_macro2NtB6_5IdentNtNtCsieiGu2EXtoJ_4core5clone5Clone5cloneCsfMaSMcsiNJc_15wiggle_generate, symObjAddr: 0x5BD0, symBinAddr: 0x2F830, symSize: 0x80 }
  - { offset: 0x7EA4E, size: 0x8, addend: 0x0, symName: __RNvXsK_CsaKzlTDPUHDb_11proc_macro2NtB5_11TokenStreamNtNtCsieiGu2EXtoJ_4core5clone5Clone5cloneCsfMaSMcsiNJc_15wiggle_generate, symObjAddr: 0x65C0, symBinAddr: 0x30220, symSize: 0x90 }
  - { offset: 0x7EA80, size: 0x8, addend: 0x0, symName: __RNvXsM_CsaKzlTDPUHDb_11proc_macro2NtB5_4SpanNtNtCsieiGu2EXtoJ_4core5clone5Clone5cloneCsfMaSMcsiNJc_15wiggle_generate, symObjAddr: 0x6650, symBinAddr: 0x302B0, symSize: 0x10 }
  - { offset: 0x7EB66, size: 0x8, addend: 0x0, symName: __RNCNvMNtCsjK30CmJ87bX_9hashbrown11rustc_entryINtNtB6_3map7HashMapNtNtCslJiobkLta79_5alloc6string6StringINtNtB15_3vec3VecB11_ENtNtNtCsHUR1vrdMJt_3std4hash6random11RandomStateE11rustc_entry0CsfMaSMcsiNJc_15wiggle_generate, symObjAddr: 0x100, symBinAddr: 0x2A300, symSize: 0x30 }
  - { offset: 0x7EEB6, size: 0x8, addend: 0x0, symName: __RNvXCsjK30CmJ87bX_9hashbrownNtCsaKzlTDPUHDb_11proc_macro25IdentINtB2_10EquivalentBq_E10equivalentCsfMaSMcsiNJc_15wiggle_generate, symObjAddr: 0x5A80, symBinAddr: 0x2F6E0, symSize: 0x50 }
  - { offset: 0x7EF94, size: 0x8, addend: 0x0, symName: __RNCNvNtCsfMaSMcsiNJc_15wiggle_generate5names12enum_variant0B5_, symObjAddr: 0x360, symBinAddr: 0x2A560, symSize: 0x30 }
  - { offset: 0x7EFC8, size: 0x8, addend: 0x0, symName: __RNCNvNtCsfMaSMcsiNJc_15wiggle_generate5names8type_ref0B5_, symObjAddr: 0x390, symBinAddr: 0x2A590, symSize: 0x50 }
  - { offset: 0x7F006, size: 0x8, addend: 0x0, symName: __RNvNtCsfMaSMcsiNJc_15wiggle_generate5names10func_param, symObjAddr: 0x23C0, symBinAddr: 0x2C5C0, symSize: 0x30 }
  - { offset: 0x7F032, size: 0x8, addend: 0x0, symName: __RNvNtCsfMaSMcsiNJc_15wiggle_generate5names10trait_name, symObjAddr: 0x25D0, symBinAddr: 0x2C5F0, symSize: 0x30 }
  - { offset: 0x7F05E, size: 0x8, addend: 0x0, symName: __RNvNtCsfMaSMcsiNJc_15wiggle_generate5names11flag_member, symObjAddr: 0x2600, symBinAddr: 0x2C620, symSize: 0x1E0 }
  - { offset: 0x7F0DB, size: 0x8, addend: 0x0, symName: __RNvNtCsfMaSMcsiNJc_15wiggle_generate5names12builtin_name, symObjAddr: 0x27E0, symBinAddr: 0x2C800, symSize: 0x1B0 }
  - { offset: 0x7F107, size: 0x8, addend: 0x0, symName: __RNvNtCsfMaSMcsiNJc_15wiggle_generate5names12builtin_type, symObjAddr: 0x2990, symBinAddr: 0x2C9B0, symSize: 0x670 }
  - { offset: 0x7F224, size: 0x8, addend: 0x0, symName: __RNvNtCsfMaSMcsiNJc_15wiggle_generate5names12enum_variant, symObjAddr: 0x3000, symBinAddr: 0x2D020, symSize: 0x50 }
  - { offset: 0x7F250, size: 0x8, addend: 0x0, symName: __RNvNtCsfMaSMcsiNJc_15wiggle_generate5names13struct_member, symObjAddr: 0x3050, symBinAddr: 0x2D070, symSize: 0x30 }
  - { offset: 0x7F27C, size: 0x8, addend: 0x0, symName: __RNvNtCsfMaSMcsiNJc_15wiggle_generate5names14snake_typename, symObjAddr: 0x3080, symBinAddr: 0x2D0A0, symSize: 0x130 }
  - { offset: 0x7F3B6, size: 0x8, addend: 0x0, symName: __RNvNtCsfMaSMcsiNJc_15wiggle_generate5names28user_error_conversion_method, symObjAddr: 0x3570, symBinAddr: 0x2D1D0, symSize: 0x330 }
  - { offset: 0x7F47D, size: 0x8, addend: 0x0, symName: __RNvNtCsfMaSMcsiNJc_15wiggle_generate5names4func, symObjAddr: 0x38A0, symBinAddr: 0x2D500, symSize: 0x30 }
  - { offset: 0x7F4A9, size: 0x8, addend: 0x0, symName: __RNvNtCsfMaSMcsiNJc_15wiggle_generate5names5type_, symObjAddr: 0x38D0, symBinAddr: 0x2D530, symSize: 0x30 }
  - { offset: 0x7F4D5, size: 0x8, addend: 0x0, symName: __RNvNtCsfMaSMcsiNJc_15wiggle_generate5names6module, symObjAddr: 0x3900, symBinAddr: 0x2D560, symSize: 0x30 }
  - { offset: 0x7F501, size: 0x8, addend: 0x0, symName: __RNvNtCsfMaSMcsiNJc_15wiggle_generate5names8type_ref, symObjAddr: 0x3930, symBinAddr: 0x2D590, symSize: 0xD70 }
  - { offset: 0x7F94E, size: 0x8, addend: 0x0, symName: __RNvNtCsfMaSMcsiNJc_15wiggle_generate5names9wasm_type, symObjAddr: 0x46A0, symBinAddr: 0x2E300, symSize: 0x260 }
  - { offset: 0x7FEDC, size: 0x8, addend: 0x0, symName: __RNvNtCsfMaSMcsiNJc_15wiggle_generate5types12define_alias, symObjAddr: 0x4900, symBinAddr: 0x2E560, symSize: 0x2B0 }
  - { offset: 0x7FF6D, size: 0x8, addend: 0x0, symName: __RNvNtCsfMaSMcsiNJc_15wiggle_generate5types14define_builtin, symObjAddr: 0x4BB0, symBinAddr: 0x2E810, symSize: 0x170 }
  - { offset: 0x7FFE8, size: 0x8, addend: 0x0, symName: __RNvNtCsfMaSMcsiNJc_15wiggle_generate5types15define_datatype, symObjAddr: 0x4D20, symBinAddr: 0x2E980, symSize: 0x630 }
  - { offset: 0x80248, size: 0x8, addend: 0x0, symName: __RNvNtCsfMaSMcsiNJc_15wiggle_generate5types15int_repr_tokens, symObjAddr: 0x5350, symBinAddr: 0x2EFB0, symSize: 0x260 }
  - { offset: 0x802CB, size: 0x8, addend: 0x0, symName: __RNvNtCsfMaSMcsiNJc_15wiggle_generate5types16define_witx_list, symObjAddr: 0x55B0, symBinAddr: 0x2F210, symSize: 0x240 }
  - { offset: 0x8035C, size: 0x8, addend: 0x0, symName: __RNvNtCsfMaSMcsiNJc_15wiggle_generate5types19define_witx_pointer, symObjAddr: 0x57F0, symBinAddr: 0x2F450, symSize: 0x290 }
  - { offset: 0x80419, size: 0x8, addend: 0x0, symName: __RNvMNtNtNtCsjK30CmJ87bX_9hashbrown7control5group4sse2NtB2_5Group44convert_special_to_empty_and_full_to_deletedCsfMaSMcsiNJc_15wiggle_generate, symObjAddr: 0x4B0, symBinAddr: 0x2A6B0, symSize: 0xD0 }
  - { offset: 0x856E8, size: 0x8, addend: 0x0, symName: __RNvMs1_NtCs8QreBtO1sIU_4witx3abiINtB5_9GeneratorNtNtCsfMaSMcsiNJc_15wiggle_generate5funcs4RustE14call_interfaceBO_, symObjAddr: 0x580, symBinAddr: 0x2A780, symSize: 0x3A0 }
  - { offset: 0x8581A, size: 0x8, addend: 0x0, symName: __RNvMs1_NtCs8QreBtO1sIU_4witx3abiINtB5_9GeneratorNtNtCsfMaSMcsiNJc_15wiggle_generate5funcs4RustE4emitBO_, symObjAddr: 0x920, symBinAddr: 0x2AB20, symSize: 0x360 }
  - { offset: 0x859B4, size: 0x8, addend: 0x0, symName: __RNvMs1_NtCs8QreBtO1sIU_4witx3abiINtB5_9GeneratorNtNtCsfMaSMcsiNJc_15wiggle_generate5funcs4RustE4liftBO_, symObjAddr: 0xC80, symBinAddr: 0x2AE80, symSize: 0xBD0 }
  - { offset: 0x85F22, size: 0x8, addend: 0x0, symName: __RNvMs1_NtCs8QreBtO1sIU_4witx3abiINtB5_9GeneratorNtNtCsfMaSMcsiNJc_15wiggle_generate5funcs4RustE5lowerBO_, symObjAddr: 0x1850, symBinAddr: 0x2BA50, symSize: 0xAC0 }
  - { offset: 0x86401, size: 0x8, addend: 0x0, symName: __RNvMs7_NtCsjK30CmJ87bX_9hashbrown11rustc_entryINtB5_16RustcVacantEntryNtNtCslJiobkLta79_5alloc6string6StringINtNtB1a_3vec3VecB16_EE6insertCsfMaSMcsiNJc_15wiggle_generate, symObjAddr: 0x2310, symBinAddr: 0x2C510, symSize: 0xB0 }
  - { offset: 0x864F8, size: 0x8, addend: 0x0, symName: __RNvXNtCs9OU1sGv5X54_5quote14ident_fragmentRNtCsaKzlTDPUHDb_11proc_macro25IdentNtB2_13IdentFragment3fmtCsfMaSMcsiNJc_15wiggle_generate, symObjAddr: 0x5AD0, symBinAddr: 0x2F730, symSize: 0x30 }
  - { offset: 0x8653B, size: 0x8, addend: 0x0, symName: __RNvXNtCs9OU1sGv5X54_5quote14ident_fragmentRNtCsaKzlTDPUHDb_11proc_macro25IdentNtB2_13IdentFragment4spanCsfMaSMcsiNJc_15wiggle_generate, symObjAddr: 0x5B00, symBinAddr: 0x2F760, symSize: 0x30 }
  - { offset: 0x8657C, size: 0x8, addend: 0x0, symName: __RNvXNtCs9OU1sGv5X54_5quote9to_tokensRNtCsaKzlTDPUHDb_11proc_macro211TokenStreamNtB2_8ToTokens9to_tokensCsfMaSMcsiNJc_15wiggle_generate, symObjAddr: 0x5B30, symBinAddr: 0x2F790, symSize: 0x30 }
  - { offset: 0x865BB, size: 0x8, addend: 0x0, symName: __RNvXNtCs9OU1sGv5X54_5quote9to_tokensRNtCsaKzlTDPUHDb_11proc_macro25IdentNtB2_8ToTokens9to_tokensCsfMaSMcsiNJc_15wiggle_generate, symObjAddr: 0x5B60, symBinAddr: 0x2F7C0, symSize: 0x30 }
  - { offset: 0x865FA, size: 0x8, addend: 0x0, symName: __RNvXNtCs9OU1sGv5X54_5quote9to_tokensRNtCsaKzlTDPUHDb_11proc_macro27LiteralNtB2_8ToTokens9to_tokensCsfMaSMcsiNJc_15wiggle_generate, symObjAddr: 0x5B90, symBinAddr: 0x2F7F0, symSize: 0x30 }
  - { offset: 0x87450, size: 0x8, addend: 0x0, symName: __RINvMNtCsieiGu2EXtoJ_4core6optionINtB3_6OptionNtCsaKzlTDPUHDb_11proc_macro25IdentE14unwrap_or_elseNCNvNtCsfMaSMcsiNJc_15wiggle_generate5names12enum_variant0EB1E_, symObjAddr: 0x0, symBinAddr: 0x31250, symSize: 0x90 }
  - { offset: 0x87F0B, size: 0x8, addend: 0x0, symName: __RNvXs1b_NtCslJiobkLta79_5alloc6stringNtB6_6StringNtNtCsieiGu2EXtoJ_4core3cmp9PartialEq2eqCsfMaSMcsiNJc_15wiggle_generate, symObjAddr: 0x4C20, symBinAddr: 0x35E40, symSize: 0x20 }
  - { offset: 0x87FBC, size: 0x8, addend: 0x0, symName: __RNvXs1l_NtCslJiobkLta79_5alloc6stringNtB6_6StringINtNtCsieiGu2EXtoJ_4core3cmp9PartialEqeE2eqCsfMaSMcsiNJc_15wiggle_generate, symObjAddr: 0x4C40, symBinAddr: 0x35E60, symSize: 0x130 }
  - { offset: 0x8829E, size: 0x8, addend: 0x0, symName: __RNvXs1o_NtCslJiobkLta79_5alloc6stringReINtNtCsieiGu2EXtoJ_4core3cmp9PartialEqNtB6_6StringE2eqCsfMaSMcsiNJc_15wiggle_generate, symObjAddr: 0x4D70, symBinAddr: 0x35F90, symSize: 0x140 }
  - { offset: 0x885BC, size: 0x8, addend: 0x0, symName: __RNvXss_NtCslJiobkLta79_5alloc6stringNtB5_6StringNtNtNtCsieiGu2EXtoJ_4core3ops5deref5Deref5derefCsfMaSMcsiNJc_15wiggle_generate, symObjAddr: 0x57B0, symBinAddr: 0x369D0, symSize: 0x20 }
  - { offset: 0x885F0, size: 0x8, addend: 0x0, symName: __RNvXsC_NtCslJiobkLta79_5alloc6stringNtB5_6StringINtNtCsieiGu2EXtoJ_4core7convert5AsRefeE6as_refCsfMaSMcsiNJc_15wiggle_generate, symObjAddr: 0x5380, symBinAddr: 0x365A0, symSize: 0x20 }
  - { offset: 0x88642, size: 0x8, addend: 0x0, symName: __RNvXsF_NtCslJiobkLta79_5alloc6stringNtB5_6StringINtNtCsieiGu2EXtoJ_4core7convert4FromReE4fromCsfMaSMcsiNJc_15wiggle_generate, symObjAddr: 0x53A0, symBinAddr: 0x365C0, symSize: 0x50 }
  - { offset: 0x8872F, size: 0x8, addend: 0x0, symName: __RNvXsm_NtCslJiobkLta79_5alloc6stringNtB5_6StringNtNtCsieiGu2EXtoJ_4core3fmt5Debug3fmtCsfMaSMcsiNJc_15wiggle_generate, symObjAddr: 0x5740, symBinAddr: 0x36960, symSize: 0x70 }
  - { offset: 0x8A9D9, size: 0x8, addend: 0x0, symName: __RINvXNvMNtCslJiobkLta79_5alloc5sliceSp9to_vec_inNtNtB8_6string6StringNtB3_10ConvertVec6to_vecNtNtB8_5alloc6GlobalECsfMaSMcsiNJc_15wiggle_generate, symObjAddr: 0x3400, symBinAddr: 0x34650, symSize: 0x4D0 }
  - { offset: 0x8B005, size: 0x8, addend: 0x0, symName: __RNvXs0_NtCslJiobkLta79_5alloc3strNtNtB7_6string6StringINtNtCsieiGu2EXtoJ_4core6borrow6BorroweE6borrowCsfMaSMcsiNJc_15wiggle_generate, symObjAddr: 0x4BE0, symBinAddr: 0x35E00, symSize: 0x20 }
  - { offset: 0x8B77A, size: 0x8, addend: 0x0, symName: __RINvNtCsieiGu2EXtoJ_4core3ptr13drop_in_placeINtCsi88DhWbSVU_11shellexpand11LookupErrorNtNtCsHUR1vrdMJt_3std3env8VarErrorEECsfMaSMcsiNJc_15wiggle_generate, symObjAddr: 0x840, symBinAddr: 0x31A90, symSize: 0x60 }
  - { offset: 0x8B7A9, size: 0x8, addend: 0x0, symName: __RINvNtCsieiGu2EXtoJ_4core3ptr13drop_in_placeINtNtB4_6option6OptionINtNtB4_6result6ResultNtNtB4_7convert10InfallibleNtCs5LsBMV3VaIp_6anyhow5ErrorEEECsfMaSMcsiNJc_15wiggle_generate, symObjAddr: 0x8A0, symBinAddr: 0x31AF0, symSize: 0x40 }
  - { offset: 0x8B7D8, size: 0x8, addend: 0x0, symName: __RINvNtCsieiGu2EXtoJ_4core3ptr13drop_in_placeINtNtB4_6option6OptionINtNtCslJiobkLta79_5alloc5boxed3BoxNtCsaKzlTDPUHDb_11proc_macro25IdentEEECsfMaSMcsiNJc_15wiggle_generate, symObjAddr: 0x8E0, symBinAddr: 0x31B30, symSize: 0x40 }
  - { offset: 0x8B807, size: 0x8, addend: 0x0, symName: __RINvNtCsieiGu2EXtoJ_4core3ptr13drop_in_placeINtNtB4_6option6OptionINtNtCslJiobkLta79_5alloc5boxed3BoxNtNtCsdGrGZaRBwMb_3syn3lit6LitStrEEECsfMaSMcsiNJc_15wiggle_generate, symObjAddr: 0x920, symBinAddr: 0x31B70, symSize: 0x40 }
  - { offset: 0x8B836, size: 0x8, addend: 0x0, symName: __RINvNtCsieiGu2EXtoJ_4core3ptr13drop_in_placeINtNtB4_6option6OptionINtNtCslJiobkLta79_5alloc5boxed3BoxNtNtCsfMaSMcsiNJc_15wiggle_generate6config11ConfigFieldEEEB1F_, symObjAddr: 0x960, symBinAddr: 0x31BB0, symSize: 0x40 }
  - { offset: 0x8B865, size: 0x8, addend: 0x0, symName: __RINvNtCsieiGu2EXtoJ_4core3ptr13drop_in_placeINtNtB4_6option6OptionINtNtCslJiobkLta79_5alloc5boxed3BoxNtNtCsfMaSMcsiNJc_15wiggle_generate6config13FunctionFieldEEEB1F_, symObjAddr: 0x9A0, symBinAddr: 0x31BF0, symSize: 0x40 }
  - { offset: 0x8B894, size: 0x8, addend: 0x0, symName: __RINvNtCsieiGu2EXtoJ_4core3ptr13drop_in_placeINtNtB4_6option6OptionINtNtCslJiobkLta79_5alloc5boxed3BoxNtNtCsfMaSMcsiNJc_15wiggle_generate6config14ErrorConfFieldEEEB1F_, symObjAddr: 0x9E0, symBinAddr: 0x31C30, symSize: 0x40 }
  - { offset: 0x8B8C3, size: 0x8, addend: 0x0, symName: __RINvNtCsieiGu2EXtoJ_4core3ptr13drop_in_placeINtNtB4_6option6OptionINtNtCslJiobkLta79_5alloc5boxed3BoxNtNtCsfMaSMcsiNJc_15wiggle_generate6config19WasmtimeConfigFieldEEEB1F_, symObjAddr: 0xA20, symBinAddr: 0x31C70, symSize: 0x40 }
  - { offset: 0x8B8F2, size: 0x8, addend: 0x0, symName: __RINvNtCsieiGu2EXtoJ_4core3ptr13drop_in_placeINtNtB4_6option6OptionNtNtCsdGrGZaRBwMb_3syn4path4PathEECsfMaSMcsiNJc_15wiggle_generate, symObjAddr: 0xA60, symBinAddr: 0x31CB0, symSize: 0x40 }
  - { offset: 0x8B921, size: 0x8, addend: 0x0, symName: __RINvNtCsieiGu2EXtoJ_4core3ptr13drop_in_placeINtNtB4_6option6OptionNtNtCsfMaSMcsiNJc_15wiggle_generate6config11TracingConfEEB16_, symObjAddr: 0xAA0, symBinAddr: 0x31CF0, symSize: 0x40 }
  - { offset: 0x8B950, size: 0x8, addend: 0x0, symName: __RINvNtCsieiGu2EXtoJ_4core3ptr13drop_in_placeINtNtB4_6option6OptionNtNtCsfMaSMcsiNJc_15wiggle_generate6config8WitxConfEEB16_, symObjAddr: 0xAE0, symBinAddr: 0x31D30, symSize: 0x40 }
  - { offset: 0x8B97F, size: 0x8, addend: 0x0, symName: __RINvNtCsieiGu2EXtoJ_4core3ptr13drop_in_placeINtNtB4_6option6OptionNtNtCsfMaSMcsiNJc_15wiggle_generate6config9AsyncConfEEB16_, symObjAddr: 0xB20, symBinAddr: 0x31D70, symSize: 0x40 }
  - { offset: 0x8B9AE, size: 0x8, addend: 0x0, symName: __RINvNtCsieiGu2EXtoJ_4core3ptr13drop_in_placeINtNtB4_6option6OptionNtNtCsfMaSMcsiNJc_15wiggle_generate6config9ErrorConfEEB16_, symObjAddr: 0xB60, symBinAddr: 0x31DB0, symSize: 0x40 }
  - { offset: 0x8B9DD, size: 0x8, addend: 0x0, symName: __RINvNtCsieiGu2EXtoJ_4core3ptr13drop_in_placeINtNtB4_6result6ResultINtNtB4_6option6OptionNtNtCslJiobkLta79_5alloc6string6StringENtNtCsHUR1vrdMJt_3std3env8VarErrorEECsfMaSMcsiNJc_15wiggle_generate, symObjAddr: 0xBA0, symBinAddr: 0x31DF0, symSize: 0x40 }
  - { offset: 0x8BA0C, size: 0x8, addend: 0x0, symName: __RINvNtCsieiGu2EXtoJ_4core3ptr13drop_in_placeINtNtB4_6result6ResultNtNtB4_7convert10InfallibleNtCs5LsBMV3VaIp_6anyhow5ErrorEECsfMaSMcsiNJc_15wiggle_generate, symObjAddr: 0xBE0, symBinAddr: 0x31E30, symSize: 0x20 }
  - { offset: 0x8BA3B, size: 0x8, addend: 0x0, symName: __RINvNtCsieiGu2EXtoJ_4core3ptr13drop_in_placeINtNtCs8QreBtO1sIU_4witx3abi9GeneratorNtNtCsfMaSMcsiNJc_15wiggle_generate5funcs4RustEEB1m_, symObjAddr: 0xC00, symBinAddr: 0x31E50, symSize: 0x90 }
  - { offset: 0x8BA6A, size: 0x8, addend: 0x0, symName: __RINvNtCsieiGu2EXtoJ_4core3ptr13drop_in_placeINtNtCs9OU1sGv5X54_5quote9___private9RepInterpNtCsaKzlTDPUHDb_11proc_macro211TokenStreamEECsfMaSMcsiNJc_15wiggle_generate, symObjAddr: 0xC90, symBinAddr: 0x31EE0, symSize: 0x20 }
  - { offset: 0x8BA99, size: 0x8, addend: 0x0, symName: __RINvNtCsieiGu2EXtoJ_4core3ptr13drop_in_placeINtNtCs9OU1sGv5X54_5quote9___private9RepInterpNtCsaKzlTDPUHDb_11proc_macro25IdentEECsfMaSMcsiNJc_15wiggle_generate, symObjAddr: 0xCB0, symBinAddr: 0x31F00, symSize: 0x20 }
  - { offset: 0x8BAC8, size: 0x8, addend: 0x0, symName: __RINvNtCsieiGu2EXtoJ_4core3ptr13drop_in_placeINtNtCsdGrGZaRBwMb_3syn10punctuated10PunctuatedNtCsaKzlTDPUHDb_11proc_macro25IdentNtNtBL_5token5CommaEECsfMaSMcsiNJc_15wiggle_generate, symObjAddr: 0xCD0, symBinAddr: 0x31F20, symSize: 0x60 }
  - { offset: 0x8BAF7, size: 0x8, addend: 0x0, symName: __RINvNtCsieiGu2EXtoJ_4core3ptr13drop_in_placeINtNtCsdGrGZaRBwMb_3syn10punctuated10PunctuatedNtNtBL_3lit6LitStrNtNtBL_5token5CommaEECsfMaSMcsiNJc_15wiggle_generate, symObjAddr: 0xD30, symBinAddr: 0x31F80, symSize: 0x60 }
  - { offset: 0x8BB26, size: 0x8, addend: 0x0, symName: __RINvNtCsieiGu2EXtoJ_4core3ptr13drop_in_placeINtNtCsdGrGZaRBwMb_3syn10punctuated10PunctuatedNtNtCsfMaSMcsiNJc_15wiggle_generate6config11ConfigFieldNtNtBL_5token5CommaEEB1v_, symObjAddr: 0xD90, symBinAddr: 0x31FE0, symSize: 0x60 }
  - { offset: 0x8BB55, size: 0x8, addend: 0x0, symName: __RINvNtCsieiGu2EXtoJ_4core3ptr13drop_in_placeINtNtCsdGrGZaRBwMb_3syn10punctuated10PunctuatedNtNtCsfMaSMcsiNJc_15wiggle_generate6config13FunctionFieldNtNtBL_5token5CommaEEB1v_, symObjAddr: 0xDF0, symBinAddr: 0x32040, symSize: 0x60 }
  - { offset: 0x8BB84, size: 0x8, addend: 0x0, symName: __RINvNtCsieiGu2EXtoJ_4core3ptr13drop_in_placeINtNtCsdGrGZaRBwMb_3syn10punctuated10PunctuatedNtNtCsfMaSMcsiNJc_15wiggle_generate6config14ErrorConfFieldNtNtBL_5token5CommaEEB1v_, symObjAddr: 0xE50, symBinAddr: 0x320A0, symSize: 0x60 }
  - { offset: 0x8BBB3, size: 0x8, addend: 0x0, symName: __RINvNtCsieiGu2EXtoJ_4core3ptr13drop_in_placeINtNtCsdGrGZaRBwMb_3syn10punctuated10PunctuatedNtNtCsfMaSMcsiNJc_15wiggle_generate6config19WasmtimeConfigFieldNtNtBL_5token5CommaEEB1v_, symObjAddr: 0xEB0, symBinAddr: 0x32100, symSize: 0x60 }
  - { offset: 0x8BBE2, size: 0x8, addend: 0x0, symName: __RINvNtCsieiGu2EXtoJ_4core3ptr13drop_in_placeINtNtCsdGrGZaRBwMb_3syn10punctuated4IterNtCsaKzlTDPUHDb_11proc_macro25IdentEECsfMaSMcsiNJc_15wiggle_generate, symObjAddr: 0xF10, symBinAddr: 0x32160, symSize: 0x20 }
  - { offset: 0x8BC11, size: 0x8, addend: 0x0, symName: __RINvNtCsieiGu2EXtoJ_4core3ptr13drop_in_placeINtNtCsdGrGZaRBwMb_3syn10punctuated4IterNtNtBL_3lit6LitStrEECsfMaSMcsiNJc_15wiggle_generate, symObjAddr: 0xF30, symBinAddr: 0x32180, symSize: 0x20 }
  - { offset: 0x8BC40, size: 0x8, addend: 0x0, symName: __RINvNtCsieiGu2EXtoJ_4core3ptr13drop_in_placeINtNtCsdGrGZaRBwMb_3syn10punctuated8IntoIterNtNtCsfMaSMcsiNJc_15wiggle_generate6config11ConfigFieldEEB1s_, symObjAddr: 0xF50, symBinAddr: 0x321A0, symSize: 0x20 }
  - { offset: 0x8BC6F, size: 0x8, addend: 0x0, symName: __RINvNtCsieiGu2EXtoJ_4core3ptr13drop_in_placeINtNtCsdGrGZaRBwMb_3syn10punctuated8IntoIterNtNtCsfMaSMcsiNJc_15wiggle_generate6config13FunctionFieldEEB1s_, symObjAddr: 0xF70, symBinAddr: 0x321C0, symSize: 0x20 }
  - { offset: 0x8BC9E, size: 0x8, addend: 0x0, symName: __RINvNtCsieiGu2EXtoJ_4core3ptr13drop_in_placeINtNtCsdGrGZaRBwMb_3syn10punctuated8IntoIterNtNtCsfMaSMcsiNJc_15wiggle_generate6config14ErrorConfFieldEEB1s_, symObjAddr: 0xF90, symBinAddr: 0x321E0, symSize: 0x20 }
  - { offset: 0x8BCCD, size: 0x8, addend: 0x0, symName: __RINvNtCsieiGu2EXtoJ_4core3ptr13drop_in_placeINtNtCsdGrGZaRBwMb_3syn10punctuated8IntoIterNtNtCsfMaSMcsiNJc_15wiggle_generate6config19WasmtimeConfigFieldEEB1s_, symObjAddr: 0xFB0, symBinAddr: 0x32200, symSize: 0x20 }
  - { offset: 0x8BCFC, size: 0x8, addend: 0x0, symName: __RINvNtCsieiGu2EXtoJ_4core3ptr13drop_in_placeINtNtCsjK30CmJ87bX_9hashbrown10scopeguard10ScopeGuardTjQINtNtBL_3raw8RawTableTNtNtCslJiobkLta79_5alloc6string6StringINtNtB20_3vec3VecB1W_EEEENCNvMse_B1D_B1A_15clone_from_impl0EECsfMaSMcsiNJc_15wiggle_generate, symObjAddr: 0xFD0, symBinAddr: 0x32220, symSize: 0x20 }
  - { offset: 0x8BD2B, size: 0x8, addend: 0x0, symName: __RINvNtCsieiGu2EXtoJ_4core3ptr13drop_in_placeINtNtCsjK30CmJ87bX_9hashbrown3map7HashMapNtCsaKzlTDPUHDb_11proc_macro25IdentNtB1n_4SpanNtNtNtCsHUR1vrdMJt_3std4hash6random11RandomStateEECsfMaSMcsiNJc_15wiggle_generate, symObjAddr: 0xFF0, symBinAddr: 0x32240, symSize: 0x20 }
  - { offset: 0x8BD5A, size: 0x8, addend: 0x0, symName: __RINvNtCsieiGu2EXtoJ_4core3ptr13drop_in_placeINtNtCsjK30CmJ87bX_9hashbrown3map7HashMapNtCsaKzlTDPUHDb_11proc_macro25IdentNtNtCsfMaSMcsiNJc_15wiggle_generate6config14ErrorConfFieldNtNtNtCsHUR1vrdMJt_3std4hash6random11RandomStateEEB1Y_, symObjAddr: 0x1010, symBinAddr: 0x32260, symSize: 0x20 }
  - { offset: 0x8BD89, size: 0x8, addend: 0x0, symName: __RINvNtCsieiGu2EXtoJ_4core3ptr13drop_in_placeINtNtCsjK30CmJ87bX_9hashbrown3map7HashMapNtCsaKzlTDPUHDb_11proc_macro25IdentuNtNtNtCsHUR1vrdMJt_3std4hash6random11RandomStateEECsfMaSMcsiNJc_15wiggle_generate, symObjAddr: 0x1030, symBinAddr: 0x32280, symSize: 0x20 }
  - { offset: 0x8BDB8, size: 0x8, addend: 0x0, symName: __RINvNtCsieiGu2EXtoJ_4core3ptr13drop_in_placeINtNtCsjK30CmJ87bX_9hashbrown3map7HashMapNtNtCslJiobkLta79_5alloc6string6StringINtNtB1p_3vec3VecB1l_ENtNtNtCsHUR1vrdMJt_3std4hash6random11RandomStateEECsfMaSMcsiNJc_15wiggle_generate, symObjAddr: 0x1050, symBinAddr: 0x322A0, symSize: 0x20 }
  - { offset: 0x8BDE7, size: 0x8, addend: 0x0, symName: __RINvNtCsieiGu2EXtoJ_4core3ptr13drop_in_placeINtNtCsjK30CmJ87bX_9hashbrown3map8IntoIterNtCsaKzlTDPUHDb_11proc_macro25IdentuEECsfMaSMcsiNJc_15wiggle_generate, symObjAddr: 0x1070, symBinAddr: 0x322C0, symSize: 0x20 }
  - { offset: 0x8BE16, size: 0x8, addend: 0x0, symName: __RINvNtCsieiGu2EXtoJ_4core3ptr13drop_in_placeINtNtCsjK30CmJ87bX_9hashbrown3raw11RawIntoIterTNtCsaKzlTDPUHDb_11proc_macro25IdentuEEECsfMaSMcsiNJc_15wiggle_generate, symObjAddr: 0x1090, symBinAddr: 0x322E0, symSize: 0x20 }
  - { offset: 0x8BE45, size: 0x8, addend: 0x0, symName: __RINvNtCsieiGu2EXtoJ_4core3ptr13drop_in_placeINtNtCsjK30CmJ87bX_9hashbrown3raw8RawTableTNtCsaKzlTDPUHDb_11proc_macro25IdentNtB1p_4SpanEEECsfMaSMcsiNJc_15wiggle_generate, symObjAddr: 0x10B0, symBinAddr: 0x32300, symSize: 0x20 }
  - { offset: 0x8BE74, size: 0x8, addend: 0x0, symName: __RINvNtCsieiGu2EXtoJ_4core3ptr13drop_in_placeINtNtCsjK30CmJ87bX_9hashbrown3raw8RawTableTNtCsaKzlTDPUHDb_11proc_macro25IdentNtNtCsfMaSMcsiNJc_15wiggle_generate6config14ErrorConfFieldEEEB20_, symObjAddr: 0x10D0, symBinAddr: 0x32320, symSize: 0x20 }
  - { offset: 0x8BEA3, size: 0x8, addend: 0x0, symName: __RINvNtCsieiGu2EXtoJ_4core3ptr13drop_in_placeINtNtCsjK30CmJ87bX_9hashbrown3raw8RawTableTNtCsaKzlTDPUHDb_11proc_macro25IdentuEEECsfMaSMcsiNJc_15wiggle_generate, symObjAddr: 0x10F0, symBinAddr: 0x32340, symSize: 0x20 }
  - { offset: 0x8BED2, size: 0x8, addend: 0x0, symName: __RINvNtCsieiGu2EXtoJ_4core3ptr13drop_in_placeINtNtCsjK30CmJ87bX_9hashbrown3raw8RawTableTNtNtCslJiobkLta79_5alloc6string6StringINtNtB1r_3vec3VecB1n_EEEECsfMaSMcsiNJc_15wiggle_generate, symObjAddr: 0x1110, symBinAddr: 0x32360, symSize: 0x20 }
  - { offset: 0x8BF01, size: 0x8, addend: 0x0, symName: __RINvNtCsieiGu2EXtoJ_4core3ptr13drop_in_placeINtNtCsjK30CmJ87bX_9hashbrown3set7HashSetNtCsaKzlTDPUHDb_11proc_macro25IdentNtNtNtCsHUR1vrdMJt_3std4hash6random11RandomStateEECsfMaSMcsiNJc_15wiggle_generate, symObjAddr: 0x1130, symBinAddr: 0x32380, symSize: 0x20 }
  - { offset: 0x8BF30, size: 0x8, addend: 0x0, symName: __RINvNtCsieiGu2EXtoJ_4core3ptr13drop_in_placeINtNtCsjK30CmJ87bX_9hashbrown3set8IntoIterNtCsaKzlTDPUHDb_11proc_macro25IdentEECsfMaSMcsiNJc_15wiggle_generate, symObjAddr: 0x1150, symBinAddr: 0x323A0, symSize: 0x20 }
  - { offset: 0x8BF5F, size: 0x8, addend: 0x0, symName: __RINvNtCsieiGu2EXtoJ_4core3ptr13drop_in_placeINtNtCslJiobkLta79_5alloc3vec3VecNtCsaKzlTDPUHDb_11proc_macro211TokenStreamEECsfMaSMcsiNJc_15wiggle_generate, symObjAddr: 0x1170, symBinAddr: 0x323C0, symSize: 0x50 }
  - { offset: 0x8BF8E, size: 0x8, addend: 0x0, symName: __RINvNtCsieiGu2EXtoJ_4core3ptr13drop_in_placeINtNtCslJiobkLta79_5alloc3vec3VecNtCsaKzlTDPUHDb_11proc_macro25IdentEECsfMaSMcsiNJc_15wiggle_generate, symObjAddr: 0x11C0, symBinAddr: 0x32410, symSize: 0x50 }
  - { offset: 0x8BFBD, size: 0x8, addend: 0x0, symName: __RINvNtCsieiGu2EXtoJ_4core3ptr13drop_in_placeINtNtCslJiobkLta79_5alloc3vec3VecNtCsaKzlTDPUHDb_11proc_macro27LiteralEECsfMaSMcsiNJc_15wiggle_generate, symObjAddr: 0x1210, symBinAddr: 0x32460, symSize: 0x50 }
  - { offset: 0x8BFEC, size: 0x8, addend: 0x0, symName: __RINvNtCsieiGu2EXtoJ_4core3ptr13drop_in_placeINtNtCslJiobkLta79_5alloc3vec3VecNtNtCsfMaSMcsiNJc_15wiggle_generate16codegen_settings9ErrorTypeEEB1h_, symObjAddr: 0x1260, symBinAddr: 0x324B0, symSize: 0x50 }
  - { offset: 0x8C01B, size: 0x8, addend: 0x0, symName: __RINvNtCsieiGu2EXtoJ_4core3ptr13drop_in_placeINtNtCslJiobkLta79_5alloc3vec3VecNtNtCsfMaSMcsiNJc_15wiggle_generate6config11ConfigFieldEEB1h_, symObjAddr: 0x12B0, symBinAddr: 0x32500, symSize: 0x50 }
  - { offset: 0x8C04A, size: 0x8, addend: 0x0, symName: __RINvNtCsieiGu2EXtoJ_4core3ptr13drop_in_placeINtNtCslJiobkLta79_5alloc3vec3VecNtNtCsfMaSMcsiNJc_15wiggle_generate6config13FunctionFieldEEB1h_, symObjAddr: 0x1300, symBinAddr: 0x32550, symSize: 0x50 }
  - { offset: 0x8C079, size: 0x8, addend: 0x0, symName: __RINvNtCsieiGu2EXtoJ_4core3ptr13drop_in_placeINtNtCslJiobkLta79_5alloc3vec3VecNtNtCsfMaSMcsiNJc_15wiggle_generate6config14ErrorConfFieldEEB1h_, symObjAddr: 0x1350, symBinAddr: 0x325A0, symSize: 0x50 }
  - { offset: 0x8C0A8, size: 0x8, addend: 0x0, symName: __RINvNtCsieiGu2EXtoJ_4core3ptr13drop_in_placeINtNtCslJiobkLta79_5alloc3vec3VecNtNtCsfMaSMcsiNJc_15wiggle_generate6config19WasmtimeConfigFieldEEB1h_, symObjAddr: 0x13A0, symBinAddr: 0x325F0, symSize: 0x50 }
  - { offset: 0x8C0D7, size: 0x8, addend: 0x0, symName: __RINvNtCsieiGu2EXtoJ_4core3ptr13drop_in_placeINtNtCslJiobkLta79_5alloc3vec3VecTNtCsaKzlTDPUHDb_11proc_macro25IdentNtNtCsdGrGZaRBwMb_3syn5token5CommaEEECsfMaSMcsiNJc_15wiggle_generate, symObjAddr: 0x13F0, symBinAddr: 0x32640, symSize: 0x50 }
  - { offset: 0x8C106, size: 0x8, addend: 0x0, symName: __RINvNtCsieiGu2EXtoJ_4core3ptr13drop_in_placeINtNtCslJiobkLta79_5alloc3vec3VecTNtNtCsdGrGZaRBwMb_3syn3lit6LitStrNtNtB1i_5token5CommaEEECsfMaSMcsiNJc_15wiggle_generate, symObjAddr: 0x1440, symBinAddr: 0x32690, symSize: 0x50 }
  - { offset: 0x8C135, size: 0x8, addend: 0x0, symName: __RINvNtCsieiGu2EXtoJ_4core3ptr13drop_in_placeINtNtCslJiobkLta79_5alloc3vec3VecTNtNtCsfMaSMcsiNJc_15wiggle_generate6config11ConfigFieldNtNtCsdGrGZaRBwMb_3syn5token5CommaEEEB1i_, symObjAddr: 0x1490, symBinAddr: 0x326E0, symSize: 0x50 }
  - { offset: 0x8C164, size: 0x8, addend: 0x0, symName: __RINvNtCsieiGu2EXtoJ_4core3ptr13drop_in_placeINtNtCslJiobkLta79_5alloc3vec3VecTNtNtCsfMaSMcsiNJc_15wiggle_generate6config13FunctionFieldNtNtCsdGrGZaRBwMb_3syn5token5CommaEEEB1i_, symObjAddr: 0x14E0, symBinAddr: 0x32730, symSize: 0x50 }
  - { offset: 0x8C193, size: 0x8, addend: 0x0, symName: __RINvNtCsieiGu2EXtoJ_4core3ptr13drop_in_placeINtNtCslJiobkLta79_5alloc3vec3VecTNtNtCsfMaSMcsiNJc_15wiggle_generate6config14ErrorConfFieldNtNtCsdGrGZaRBwMb_3syn5token5CommaEEEB1i_, symObjAddr: 0x1530, symBinAddr: 0x32780, symSize: 0x50 }
  - { offset: 0x8C1C2, size: 0x8, addend: 0x0, symName: __RINvNtCsieiGu2EXtoJ_4core3ptr13drop_in_placeINtNtCslJiobkLta79_5alloc3vec3VecTNtNtCsfMaSMcsiNJc_15wiggle_generate6config19WasmtimeConfigFieldNtNtCsdGrGZaRBwMb_3syn5token5CommaEEEB1i_, symObjAddr: 0x1580, symBinAddr: 0x327D0, symSize: 0x50 }
  - { offset: 0x8C1F1, size: 0x8, addend: 0x0, symName: __RINvNtCsieiGu2EXtoJ_4core3ptr13drop_in_placeINtNtCslJiobkLta79_5alloc5boxed3BoxINtNtCsdGrGZaRBwMb_3syn5drops6NoDropDINtNtB1k_10punctuated9IterTraitNtCsaKzlTDPUHDb_11proc_macro25IdentEp4ItemRB2l_EL_EEECsfMaSMcsiNJc_15wiggle_generate, symObjAddr: 0x15D0, symBinAddr: 0x32820, symSize: 0x20 }
  - { offset: 0x8C220, size: 0x8, addend: 0x0, symName: __RINvNtCsieiGu2EXtoJ_4core3ptr13drop_in_placeINtNtCslJiobkLta79_5alloc5boxed3BoxINtNtCsdGrGZaRBwMb_3syn5drops6NoDropDINtNtB1k_10punctuated9IterTraitNtNtB1k_3lit6LitStrEp4ItemRB2l_EL_EEECsfMaSMcsiNJc_15wiggle_generate, symObjAddr: 0x15F0, symBinAddr: 0x32840, symSize: 0x20 }
  - { offset: 0x8C24F, size: 0x8, addend: 0x0, symName: __RINvNtCsieiGu2EXtoJ_4core3ptr13drop_in_placeINtNtCslJiobkLta79_5alloc5boxed3BoxNtCsaKzlTDPUHDb_11proc_macro25IdentEECsfMaSMcsiNJc_15wiggle_generate, symObjAddr: 0x1610, symBinAddr: 0x32860, symSize: 0x50 }
  - { offset: 0x8C27E, size: 0x8, addend: 0x0, symName: __RINvNtCsieiGu2EXtoJ_4core3ptr13drop_in_placeINtNtCslJiobkLta79_5alloc5boxed3BoxNtNtCsdGrGZaRBwMb_3syn3lit6LitStrEECsfMaSMcsiNJc_15wiggle_generate, symObjAddr: 0x1660, symBinAddr: 0x328B0, symSize: 0x50 }
  - { offset: 0x8C2AD, size: 0x8, addend: 0x0, symName: __RINvNtCsieiGu2EXtoJ_4core3ptr13drop_in_placeINtNtCslJiobkLta79_5alloc5boxed3BoxNtNtCsfMaSMcsiNJc_15wiggle_generate6config11ConfigFieldEEB1j_, symObjAddr: 0x16B0, symBinAddr: 0x32900, symSize: 0x50 }
  - { offset: 0x8C2DC, size: 0x8, addend: 0x0, symName: __RINvNtCsieiGu2EXtoJ_4core3ptr13drop_in_placeINtNtCslJiobkLta79_5alloc5boxed3BoxNtNtCsfMaSMcsiNJc_15wiggle_generate6config13FunctionFieldEEB1j_, symObjAddr: 0x1700, symBinAddr: 0x32950, symSize: 0x50 }
  - { offset: 0x8C30B, size: 0x8, addend: 0x0, symName: __RINvNtCsieiGu2EXtoJ_4core3ptr13drop_in_placeINtNtCslJiobkLta79_5alloc5boxed3BoxNtNtCsfMaSMcsiNJc_15wiggle_generate6config14ErrorConfFieldEEB1j_, symObjAddr: 0x1750, symBinAddr: 0x329A0, symSize: 0x50 }
  - { offset: 0x8C33A, size: 0x8, addend: 0x0, symName: __RINvNtCsieiGu2EXtoJ_4core3ptr13drop_in_placeINtNtCslJiobkLta79_5alloc5boxed3BoxNtNtCsfMaSMcsiNJc_15wiggle_generate6config19WasmtimeConfigFieldEEB1j_, symObjAddr: 0x17A0, symBinAddr: 0x329F0, symSize: 0x50 }
  - { offset: 0x8C369, size: 0x8, addend: 0x0, symName: __RINvNtCsieiGu2EXtoJ_4core3ptr13drop_in_placeINtNtCslJiobkLta79_5alloc7raw_vec6RawVecNtCsaKzlTDPUHDb_11proc_macro211TokenStreamEECsfMaSMcsiNJc_15wiggle_generate, symObjAddr: 0x17F0, symBinAddr: 0x32A40, symSize: 0x20 }
  - { offset: 0x8C398, size: 0x8, addend: 0x0, symName: __RINvNtCsieiGu2EXtoJ_4core3ptr13drop_in_placeINtNtCslJiobkLta79_5alloc7raw_vec6RawVecNtCsaKzlTDPUHDb_11proc_macro25IdentEECsfMaSMcsiNJc_15wiggle_generate, symObjAddr: 0x1810, symBinAddr: 0x32A60, symSize: 0x20 }
  - { offset: 0x8C3C7, size: 0x8, addend: 0x0, symName: __RINvNtCsieiGu2EXtoJ_4core3ptr13drop_in_placeINtNtCslJiobkLta79_5alloc7raw_vec6RawVecNtCsaKzlTDPUHDb_11proc_macro27LiteralEECsfMaSMcsiNJc_15wiggle_generate, symObjAddr: 0x1830, symBinAddr: 0x32A80, symSize: 0x20 }
  - { offset: 0x8C3F6, size: 0x8, addend: 0x0, symName: __RINvNtCsieiGu2EXtoJ_4core3ptr13drop_in_placeINtNtCslJiobkLta79_5alloc7raw_vec6RawVecNtNtCsfMaSMcsiNJc_15wiggle_generate16codegen_settings9ErrorTypeEEB1o_, symObjAddr: 0x1850, symBinAddr: 0x32AA0, symSize: 0x20 }
  - { offset: 0x8C425, size: 0x8, addend: 0x0, symName: __RINvNtCsieiGu2EXtoJ_4core3ptr13drop_in_placeINtNtCslJiobkLta79_5alloc7raw_vec6RawVecNtNtCsfMaSMcsiNJc_15wiggle_generate6config11ConfigFieldEEB1o_, symObjAddr: 0x1870, symBinAddr: 0x32AC0, symSize: 0x20 }
  - { offset: 0x8C454, size: 0x8, addend: 0x0, symName: __RINvNtCsieiGu2EXtoJ_4core3ptr13drop_in_placeINtNtCslJiobkLta79_5alloc7raw_vec6RawVecNtNtCsfMaSMcsiNJc_15wiggle_generate6config13FunctionFieldEEB1o_, symObjAddr: 0x1890, symBinAddr: 0x32AE0, symSize: 0x20 }
  - { offset: 0x8C483, size: 0x8, addend: 0x0, symName: __RINvNtCsieiGu2EXtoJ_4core3ptr13drop_in_placeINtNtCslJiobkLta79_5alloc7raw_vec6RawVecNtNtCsfMaSMcsiNJc_15wiggle_generate6config14ErrorConfFieldEEB1o_, symObjAddr: 0x18B0, symBinAddr: 0x32B00, symSize: 0x20 }
  - { offset: 0x8C4B2, size: 0x8, addend: 0x0, symName: __RINvNtCsieiGu2EXtoJ_4core3ptr13drop_in_placeINtNtCslJiobkLta79_5alloc7raw_vec6RawVecNtNtCsfMaSMcsiNJc_15wiggle_generate6config19WasmtimeConfigFieldEEB1o_, symObjAddr: 0x18D0, symBinAddr: 0x32B20, symSize: 0x20 }
  - { offset: 0x8C4E1, size: 0x8, addend: 0x0, symName: __RINvNtCsieiGu2EXtoJ_4core3ptr13drop_in_placeINtNtCslJiobkLta79_5alloc7raw_vec6RawVecTNtCsaKzlTDPUHDb_11proc_macro25IdentNtNtCsdGrGZaRBwMb_3syn5token5CommaEEECsfMaSMcsiNJc_15wiggle_generate, symObjAddr: 0x18F0, symBinAddr: 0x32B40, symSize: 0x20 }
  - { offset: 0x8C510, size: 0x8, addend: 0x0, symName: __RINvNtCsieiGu2EXtoJ_4core3ptr13drop_in_placeINtNtCslJiobkLta79_5alloc7raw_vec6RawVecTNtNtCsdGrGZaRBwMb_3syn3lit6LitStrNtNtB1p_5token5CommaEEECsfMaSMcsiNJc_15wiggle_generate, symObjAddr: 0x1910, symBinAddr: 0x32B60, symSize: 0x20 }
  - { offset: 0x8C53F, size: 0x8, addend: 0x0, symName: __RINvNtCsieiGu2EXtoJ_4core3ptr13drop_in_placeINtNtCslJiobkLta79_5alloc7raw_vec6RawVecTNtNtCsfMaSMcsiNJc_15wiggle_generate6config11ConfigFieldNtNtCsdGrGZaRBwMb_3syn5token5CommaEEEB1p_, symObjAddr: 0x1930, symBinAddr: 0x32B80, symSize: 0x20 }
  - { offset: 0x8C56E, size: 0x8, addend: 0x0, symName: __RINvNtCsieiGu2EXtoJ_4core3ptr13drop_in_placeINtNtCslJiobkLta79_5alloc7raw_vec6RawVecTNtNtCsfMaSMcsiNJc_15wiggle_generate6config13FunctionFieldNtNtCsdGrGZaRBwMb_3syn5token5CommaEEEB1p_, symObjAddr: 0x1950, symBinAddr: 0x32BA0, symSize: 0x20 }
  - { offset: 0x8C59D, size: 0x8, addend: 0x0, symName: __RINvNtCsieiGu2EXtoJ_4core3ptr13drop_in_placeINtNtCslJiobkLta79_5alloc7raw_vec6RawVecTNtNtCsfMaSMcsiNJc_15wiggle_generate6config14ErrorConfFieldNtNtCsdGrGZaRBwMb_3syn5token5CommaEEEB1p_, symObjAddr: 0x1970, symBinAddr: 0x32BC0, symSize: 0x20 }
  - { offset: 0x8C5CC, size: 0x8, addend: 0x0, symName: __RINvNtCsieiGu2EXtoJ_4core3ptr13drop_in_placeINtNtCslJiobkLta79_5alloc7raw_vec6RawVecTNtNtCsfMaSMcsiNJc_15wiggle_generate6config19WasmtimeConfigFieldNtNtCsdGrGZaRBwMb_3syn5token5CommaEEEB1p_, symObjAddr: 0x1990, symBinAddr: 0x32BE0, symSize: 0x20 }
  - { offset: 0x8C5FB, size: 0x8, addend: 0x0, symName: __RINvNtCsieiGu2EXtoJ_4core3ptr13drop_in_placeINtNtNtB4_3ops12control_flow11ControlFlowNtNtCsfMaSMcsiNJc_15wiggle_generate16codegen_settings9ErrorTypeEEB1p_, symObjAddr: 0x19B0, symBinAddr: 0x32C00, symSize: 0x40 }
  - { offset: 0x8C62A, size: 0x8, addend: 0x0, symName: __RINvNtCsieiGu2EXtoJ_4core3ptr13drop_in_placeINtNtNtCslJiobkLta79_5alloc3vec5drain5DrainNtCsaKzlTDPUHDb_11proc_macro211TokenStreamEECsfMaSMcsiNJc_15wiggle_generate, symObjAddr: 0x19F0, symBinAddr: 0x32C40, symSize: 0x20 }
  - { offset: 0x8C659, size: 0x8, addend: 0x0, symName: __RINvNtCsieiGu2EXtoJ_4core3ptr13drop_in_placeINtNtNtCslJiobkLta79_5alloc3vec9into_iter8IntoIterNtCsaKzlTDPUHDb_11proc_macro25IdentEECsfMaSMcsiNJc_15wiggle_generate, symObjAddr: 0x1A10, symBinAddr: 0x32C60, symSize: 0x20 }
  - { offset: 0x8C688, size: 0x8, addend: 0x0, symName: __RINvNtCsieiGu2EXtoJ_4core3ptr13drop_in_placeINtNtNtCslJiobkLta79_5alloc3vec9into_iter8IntoIterNtNtBN_6string6StringEECsfMaSMcsiNJc_15wiggle_generate, symObjAddr: 0x1A30, symBinAddr: 0x32C80, symSize: 0x20 }
  - { offset: 0x8C6B7, size: 0x8, addend: 0x0, symName: __RINvNtCsieiGu2EXtoJ_4core3ptr13drop_in_placeINtNtNtCslJiobkLta79_5alloc3vec9into_iter8IntoIterNtNtCs8QreBtO1sIU_4witx6layout18RecordMemberLayoutEECsfMaSMcsiNJc_15wiggle_generate, symObjAddr: 0x1A50, symBinAddr: 0x32CA0, symSize: 0x20 }
  - { offset: 0x8C6E6, size: 0x8, addend: 0x0, symName: __RINvNtCsieiGu2EXtoJ_4core3ptr13drop_in_placeINtNtNtCslJiobkLta79_5alloc3vec9into_iter8IntoIterNtNtCsfMaSMcsiNJc_15wiggle_generate6config11ConfigFieldEEB1y_, symObjAddr: 0x1A70, symBinAddr: 0x32CC0, symSize: 0x20 }
  - { offset: 0x8C715, size: 0x8, addend: 0x0, symName: __RINvNtCsieiGu2EXtoJ_4core3ptr13drop_in_placeINtNtNtCslJiobkLta79_5alloc3vec9into_iter8IntoIterNtNtCsfMaSMcsiNJc_15wiggle_generate6config13FunctionFieldEEB1y_, symObjAddr: 0x1A90, symBinAddr: 0x32CE0, symSize: 0x20 }
  - { offset: 0x8C744, size: 0x8, addend: 0x0, symName: __RINvNtCsieiGu2EXtoJ_4core3ptr13drop_in_placeINtNtNtCslJiobkLta79_5alloc3vec9into_iter8IntoIterNtNtCsfMaSMcsiNJc_15wiggle_generate6config14ErrorConfFieldEEB1y_, symObjAddr: 0x1AB0, symBinAddr: 0x32D00, symSize: 0x20 }
  - { offset: 0x8C773, size: 0x8, addend: 0x0, symName: __RINvNtCsieiGu2EXtoJ_4core3ptr13drop_in_placeINtNtNtCslJiobkLta79_5alloc3vec9into_iter8IntoIterNtNtCsfMaSMcsiNJc_15wiggle_generate6config19WasmtimeConfigFieldEEB1y_, symObjAddr: 0x1AD0, symBinAddr: 0x32D20, symSize: 0x20 }
  - { offset: 0x8C7A2, size: 0x8, addend: 0x0, symName: __RINvNtCsieiGu2EXtoJ_4core3ptr13drop_in_placeINtNtNtCslJiobkLta79_5alloc3vec9into_iter8IntoIterTNtNtCsfMaSMcsiNJc_15wiggle_generate6config11ConfigFieldNtNtCsdGrGZaRBwMb_3syn5token5CommaEEEB1z_, symObjAddr: 0x1AF0, symBinAddr: 0x32D40, symSize: 0x20 }
  - { offset: 0x8C7D1, size: 0x8, addend: 0x0, symName: __RINvNtCsieiGu2EXtoJ_4core3ptr13drop_in_placeINtNtNtCslJiobkLta79_5alloc3vec9into_iter8IntoIterTNtNtCsfMaSMcsiNJc_15wiggle_generate6config13FunctionFieldNtNtCsdGrGZaRBwMb_3syn5token5CommaEEEB1z_, symObjAddr: 0x1B10, symBinAddr: 0x32D60, symSize: 0x20 }
  - { offset: 0x8C800, size: 0x8, addend: 0x0, symName: __RINvNtCsieiGu2EXtoJ_4core3ptr13drop_in_placeINtNtNtCslJiobkLta79_5alloc3vec9into_iter8IntoIterTNtNtCsfMaSMcsiNJc_15wiggle_generate6config14ErrorConfFieldNtNtCsdGrGZaRBwMb_3syn5token5CommaEEEB1z_, symObjAddr: 0x1B30, symBinAddr: 0x32D80, symSize: 0x20 }
  - { offset: 0x8C82F, size: 0x8, addend: 0x0, symName: __RINvNtCsieiGu2EXtoJ_4core3ptr13drop_in_placeINtNtNtCslJiobkLta79_5alloc3vec9into_iter8IntoIterTNtNtCsfMaSMcsiNJc_15wiggle_generate6config19WasmtimeConfigFieldNtNtCsdGrGZaRBwMb_3syn5token5CommaEEEB1z_, symObjAddr: 0x1B50, symBinAddr: 0x32DA0, symSize: 0x20 }
  - { offset: 0x8C85E, size: 0x8, addend: 0x0, symName: __RINvNtCsieiGu2EXtoJ_4core3ptr13drop_in_placeINtNtNtNtB4_4iter8adapters3map3MapINtNtCsdGrGZaRBwMb_3syn10punctuated4IterNtNtB1j_3lit6LitStrENCNvXs7_NtCsfMaSMcsiNJc_15wiggle_generate6configNtB2k_5PathsNtNtB1j_5parse5Parse5parse0EEB2m_, symObjAddr: 0x1B70, symBinAddr: 0x32DC0, symSize: 0x20 }
  - { offset: 0x8C88D, size: 0x8, addend: 0x0, symName: __RINvNtCsieiGu2EXtoJ_4core3ptr13drop_in_placeINtNtNtNtB4_4iter8adapters3map3MapINtNtNtCslJiobkLta79_5alloc3vec9into_iter8IntoIterNtNtCs8QreBtO1sIU_4witx6layout18RecordMemberLayoutENCNvNtNtCsfMaSMcsiNJc_15wiggle_generate5types6record13define_structs0_0EEB2Z_, symObjAddr: 0x1B90, symBinAddr: 0x32DE0, symSize: 0x20 }
  - { offset: 0x8C8BC, size: 0x8, addend: 0x0, symName: __RINvNtCsieiGu2EXtoJ_4core3ptr13drop_in_placeINtNtNtNtB4_4iter8adapters3map3MapINtNtNtCslJiobkLta79_5alloc3vec9into_iter8IntoIterNtNtCs8QreBtO1sIU_4witx6layout18RecordMemberLayoutENCNvNtNtCsfMaSMcsiNJc_15wiggle_generate5types6record13define_structs1_0EEB2Z_, symObjAddr: 0x1BB0, symBinAddr: 0x32E00, symSize: 0x20 }
  - { offset: 0x8C8EB, size: 0x8, addend: 0x0, symName: __RINvNtCsieiGu2EXtoJ_4core3ptr13drop_in_placeINtNtNtNtB4_4iter8adapters3map3MapINtNtNtCslJiobkLta79_5alloc3vec9into_iter8IntoIterNtNtCs8QreBtO1sIU_4witx6layout18RecordMemberLayoutENCNvNtNtCsfMaSMcsiNJc_15wiggle_generate5types6record13define_structs2_0EEB2Z_, symObjAddr: 0x1BD0, symBinAddr: 0x32E20, symSize: 0x20 }
  - { offset: 0x8C91A, size: 0x8, addend: 0x0, symName: __RINvNtCsieiGu2EXtoJ_4core3ptr13drop_in_placeINtNtNtNtB4_4iter8adapters3map3MapINtNtNtNtCsHUR1vrdMJt_3std11collections4hash3set8IntoIterNtCsaKzlTDPUHDb_11proc_macro25IdentENCNvNtCsfMaSMcsiNJc_15wiggle_generate8wasmtime11link_module0EEB2P_, symObjAddr: 0x1BF0, symBinAddr: 0x32E40, symSize: 0x20 }
  - { offset: 0x8C949, size: 0x8, addend: 0x0, symName: __RINvNtCsieiGu2EXtoJ_4core3ptr13drop_in_placeINtNtNtNtB4_4iter8adapters6cloned6ClonedINtNtCsdGrGZaRBwMb_3syn10punctuated4IterNtCsaKzlTDPUHDb_11proc_macro25IdentEEECsfMaSMcsiNJc_15wiggle_generate, symObjAddr: 0x1C10, symBinAddr: 0x32E60, symSize: 0x20 }
  - { offset: 0x8C978, size: 0x8, addend: 0x0, symName: __RINvNtCsieiGu2EXtoJ_4core3ptr13drop_in_placeINtNtNtNtCsHUR1vrdMJt_3std11collections4hash3map7HashMapNtCsaKzlTDPUHDb_11proc_macro25IdentNtB1C_4SpanEECsfMaSMcsiNJc_15wiggle_generate, symObjAddr: 0x1C30, symBinAddr: 0x32E80, symSize: 0x20 }
  - { offset: 0x8C9A7, size: 0x8, addend: 0x0, symName: __RINvNtCsieiGu2EXtoJ_4core3ptr13drop_in_placeINtNtNtNtCsHUR1vrdMJt_3std11collections4hash3map7HashMapNtCsaKzlTDPUHDb_11proc_macro25IdentNtNtCsfMaSMcsiNJc_15wiggle_generate6config14ErrorConfFieldEEB2d_, symObjAddr: 0x1C50, symBinAddr: 0x32EA0, symSize: 0x20 }
  - { offset: 0x8C9D6, size: 0x8, addend: 0x0, symName: __RINvNtCsieiGu2EXtoJ_4core3ptr13drop_in_placeINtNtNtNtCsHUR1vrdMJt_3std11collections4hash3map7HashMapNtNtCslJiobkLta79_5alloc6string6StringINtNtB1E_3vec3VecB1A_EEECsfMaSMcsiNJc_15wiggle_generate, symObjAddr: 0x1C70, symBinAddr: 0x32EC0, symSize: 0x20 }
  - { offset: 0x8CA05, size: 0x8, addend: 0x0, symName: __RINvNtCsieiGu2EXtoJ_4core3ptr13drop_in_placeINtNtNtNtCsHUR1vrdMJt_3std11collections4hash3set7HashSetNtCsaKzlTDPUHDb_11proc_macro25IdentEECsfMaSMcsiNJc_15wiggle_generate, symObjAddr: 0x1C90, symBinAddr: 0x32EE0, symSize: 0x20 }
  - { offset: 0x8CA34, size: 0x8, addend: 0x0, symName: __RINvNtCsieiGu2EXtoJ_4core3ptr13drop_in_placeINtNtNtNtCsHUR1vrdMJt_3std11collections4hash3set8IntoIterNtCsaKzlTDPUHDb_11proc_macro25IdentEECsfMaSMcsiNJc_15wiggle_generate, symObjAddr: 0x1CB0, symBinAddr: 0x32F00, symSize: 0x20 }
  - { offset: 0x8CA63, size: 0x8, addend: 0x0, symName: __RINvNtCsieiGu2EXtoJ_4core3ptr13drop_in_placeINtNvXNvMNtCslJiobkLta79_5alloc5sliceSp9to_vec_inpNtBM_10ConvertVec6to_vec9DropGuardNtNtBR_6string6StringNtNtBR_5alloc6GlobalEECsfMaSMcsiNJc_15wiggle_generate, symObjAddr: 0x1CD0, symBinAddr: 0x32F20, symSize: 0x20 }
  - { offset: 0x8CA92, size: 0x8, addend: 0x0, symName: __RINvNtCsieiGu2EXtoJ_4core3ptr13drop_in_placeINtNvXs5_NtNtCslJiobkLta79_5alloc3vec5drainINtBP_5DrainppENtNtNtB4_3ops4drop4Drop4drop9DropGuardNtCsaKzlTDPUHDb_11proc_macro211TokenStreamNtNtBT_5alloc6GlobalEECsfMaSMcsiNJc_15wiggle_generate, symObjAddr: 0x1CF0, symBinAddr: 0x32F40, symSize: 0x20 }
  - { offset: 0x8CAC1, size: 0x8, addend: 0x0, symName: __RINvNtCsieiGu2EXtoJ_4core3ptr13drop_in_placeINtNvXsd_NtNtCslJiobkLta79_5alloc3vec9into_iterINtBP_8IntoIterppENtNtNtB4_3ops4drop4Drop4drop9DropGuardNtCsaKzlTDPUHDb_11proc_macro25IdentNtNtBT_5alloc6GlobalEECsfMaSMcsiNJc_15wiggle_generate, symObjAddr: 0x1D10, symBinAddr: 0x32F60, symSize: 0x20 }
  - { offset: 0x8CAF0, size: 0x8, addend: 0x0, symName: __RINvNtCsieiGu2EXtoJ_4core3ptr13drop_in_placeINtNvXsd_NtNtCslJiobkLta79_5alloc3vec9into_iterINtBP_8IntoIterppENtNtNtB4_3ops4drop4Drop4drop9DropGuardNtNtBT_6string6StringNtNtBT_5alloc6GlobalEECsfMaSMcsiNJc_15wiggle_generate, symObjAddr: 0x1D30, symBinAddr: 0x32F80, symSize: 0x20 }
  - { offset: 0x8CB1F, size: 0x8, addend: 0x0, symName: __RINvNtCsieiGu2EXtoJ_4core3ptr13drop_in_placeINtNvXsd_NtNtCslJiobkLta79_5alloc3vec9into_iterINtBP_8IntoIterppENtNtNtB4_3ops4drop4Drop4drop9DropGuardNtNtCs8QreBtO1sIU_4witx6layout18RecordMemberLayoutNtNtBT_5alloc6GlobalEECsfMaSMcsiNJc_15wiggle_generate, symObjAddr: 0x1D50, symBinAddr: 0x32FA0, symSize: 0x20 }
  - { offset: 0x8CB4E, size: 0x8, addend: 0x0, symName: __RINvNtCsieiGu2EXtoJ_4core3ptr13drop_in_placeINtNvXsd_NtNtCslJiobkLta79_5alloc3vec9into_iterINtBP_8IntoIterppENtNtNtB4_3ops4drop4Drop4drop9DropGuardNtNtCsfMaSMcsiNJc_15wiggle_generate6config11ConfigFieldNtNtBT_5alloc6GlobalEEB2p_, symObjAddr: 0x1D70, symBinAddr: 0x32FC0, symSize: 0x20 }
  - { offset: 0x8CB7D, size: 0x8, addend: 0x0, symName: __RINvNtCsieiGu2EXtoJ_4core3ptr13drop_in_placeINtNvXsd_NtNtCslJiobkLta79_5alloc3vec9into_iterINtBP_8IntoIterppENtNtNtB4_3ops4drop4Drop4drop9DropGuardNtNtCsfMaSMcsiNJc_15wiggle_generate6config13FunctionFieldNtNtBT_5alloc6GlobalEEB2p_, symObjAddr: 0x1D90, symBinAddr: 0x32FE0, symSize: 0x20 }
  - { offset: 0x8CBAC, size: 0x8, addend: 0x0, symName: __RINvNtCsieiGu2EXtoJ_4core3ptr13drop_in_placeINtNvXsd_NtNtCslJiobkLta79_5alloc3vec9into_iterINtBP_8IntoIterppENtNtNtB4_3ops4drop4Drop4drop9DropGuardNtNtCsfMaSMcsiNJc_15wiggle_generate6config14ErrorConfFieldNtNtBT_5alloc6GlobalEEB2p_, symObjAddr: 0x1DB0, symBinAddr: 0x33000, symSize: 0x20 }
  - { offset: 0x8CBDB, size: 0x8, addend: 0x0, symName: __RINvNtCsieiGu2EXtoJ_4core3ptr13drop_in_placeINtNvXsd_NtNtCslJiobkLta79_5alloc3vec9into_iterINtBP_8IntoIterppENtNtNtB4_3ops4drop4Drop4drop9DropGuardNtNtCsfMaSMcsiNJc_15wiggle_generate6config19WasmtimeConfigFieldNtNtBT_5alloc6GlobalEEB2p_, symObjAddr: 0x1DD0, symBinAddr: 0x33020, symSize: 0x20 }
  - { offset: 0x8CC0A, size: 0x8, addend: 0x0, symName: __RINvNtCsieiGu2EXtoJ_4core3ptr13drop_in_placeINtNvXsd_NtNtCslJiobkLta79_5alloc3vec9into_iterINtBP_8IntoIterppENtNtNtB4_3ops4drop4Drop4drop9DropGuardTNtNtCsfMaSMcsiNJc_15wiggle_generate6config11ConfigFieldNtNtCsdGrGZaRBwMb_3syn5token5CommaENtNtBT_5alloc6GlobalEEB2q_, symObjAddr: 0x1DF0, symBinAddr: 0x33040, symSize: 0x20 }
  - { offset: 0x8CC39, size: 0x8, addend: 0x0, symName: __RINvNtCsieiGu2EXtoJ_4core3ptr13drop_in_placeINtNvXsd_NtNtCslJiobkLta79_5alloc3vec9into_iterINtBP_8IntoIterppENtNtNtB4_3ops4drop4Drop4drop9DropGuardTNtNtCsfMaSMcsiNJc_15wiggle_generate6config13FunctionFieldNtNtCsdGrGZaRBwMb_3syn5token5CommaENtNtBT_5alloc6GlobalEEB2q_, symObjAddr: 0x1E10, symBinAddr: 0x33060, symSize: 0x20 }
  - { offset: 0x8CC68, size: 0x8, addend: 0x0, symName: __RINvNtCsieiGu2EXtoJ_4core3ptr13drop_in_placeINtNvXsd_NtNtCslJiobkLta79_5alloc3vec9into_iterINtBP_8IntoIterppENtNtNtB4_3ops4drop4Drop4drop9DropGuardTNtNtCsfMaSMcsiNJc_15wiggle_generate6config14ErrorConfFieldNtNtCsdGrGZaRBwMb_3syn5token5CommaENtNtBT_5alloc6GlobalEEB2q_, symObjAddr: 0x1E30, symBinAddr: 0x33080, symSize: 0x20 }
  - { offset: 0x8CC97, size: 0x8, addend: 0x0, symName: __RINvNtCsieiGu2EXtoJ_4core3ptr13drop_in_placeINtNvXsd_NtNtCslJiobkLta79_5alloc3vec9into_iterINtBP_8IntoIterppENtNtNtB4_3ops4drop4Drop4drop9DropGuardTNtNtCsfMaSMcsiNJc_15wiggle_generate6config19WasmtimeConfigFieldNtNtCsdGrGZaRBwMb_3syn5token5CommaENtNtBT_5alloc6GlobalEEB2q_, symObjAddr: 0x1E50, symBinAddr: 0x330A0, symSize: 0x20 }
  - { offset: 0x8CCC6, size: 0x8, addend: 0x0, symName: __RINvNtCsieiGu2EXtoJ_4core3ptr13drop_in_placeNCINvMsi_NtCslJiobkLta79_5alloc3vecINtBP_3VecNtCsaKzlTDPUHDb_11proc_macro211TokenStreamE14extend_trustedINtNtBP_5drain5DrainB1p_EE0ECsfMaSMcsiNJc_15wiggle_generate, symObjAddr: 0x1E70, symBinAddr: 0x330C0, symSize: 0x20 }
  - { offset: 0x8CCF5, size: 0x8, addend: 0x0, symName: __RINvNtCsieiGu2EXtoJ_4core3ptr13drop_in_placeNCINvMsi_NtCslJiobkLta79_5alloc3vecINtBP_3VecNtCsaKzlTDPUHDb_11proc_macro211TokenStreamE14extend_trustedINtNtNtNtB4_4iter8adapters3map3MapINtNtB2r_3zip3ZipINtNtNtB4_5slice4iter4IterNtB1r_5IdentEIB3c_B1p_EENCNvNtCsfMaSMcsiNJc_15wiggle_generate8wasmtime13generate_funcs0_0EE0EB45_, symObjAddr: 0x1E90, symBinAddr: 0x330E0, symSize: 0x20 }
  - { offset: 0x8CD24, size: 0x8, addend: 0x0, symName: __RINvNtCsieiGu2EXtoJ_4core3ptr13drop_in_placeNCINvMsi_NtCslJiobkLta79_5alloc3vecINtBP_3VecNtCsaKzlTDPUHDb_11proc_macro211TokenStreamE14extend_trustedINtNtNtNtB4_4iter8adapters3map3MapINtNtNtB4_5slice4iter4IterNtB1r_5IdentENCNvXs_NtCsfMaSMcsiNJc_15wiggle_generate5funcsNtB3E_4RustNtNtCs8QreBtO1sIU_4witx3abi7Bindgen4emits2_0EE0EB3G_, symObjAddr: 0x1EB0, symBinAddr: 0x33100, symSize: 0x20 }
  - { offset: 0x8CD53, size: 0x8, addend: 0x0, symName: __RINvNtCsieiGu2EXtoJ_4core3ptr13drop_in_placeNCINvMsi_NtCslJiobkLta79_5alloc3vecINtBP_3VecNtCsaKzlTDPUHDb_11proc_macro211TokenStreamE14extend_trustedINtNtNtNtB4_4iter8adapters3map3MapINtNtNtB4_5slice4iter4IterNtNtCs8QreBtO1sIU_4witx3abi8WasmTypeENCNvNtCsfMaSMcsiNJc_15wiggle_generate8wasmtime13generate_funcs_0EE0EB41_, symObjAddr: 0x1ED0, symBinAddr: 0x33120, symSize: 0x20 }
  - { offset: 0x8CD82, size: 0x8, addend: 0x0, symName: __RINvNtCsieiGu2EXtoJ_4core3ptr13drop_in_placeNCINvMsi_NtCslJiobkLta79_5alloc3vecINtBP_3VecNtCsaKzlTDPUHDb_11proc_macro211TokenStreamE14extend_trustedINtNtNtNtB4_4iter8adapters3map3MapINtNtNtB4_5slice4iter4IterNtNtCs8QreBtO1sIU_4witx3ast12RecordMemberENCNvNtCsfMaSMcsiNJc_15wiggle_generate5names8type_ref0EE0EB46_, symObjAddr: 0x1EF0, symBinAddr: 0x33140, symSize: 0x20 }
  - { offset: 0x8CDB1, size: 0x8, addend: 0x0, symName: __RINvNtCsieiGu2EXtoJ_4core3ptr13drop_in_placeNCINvMsi_NtCslJiobkLta79_5alloc3vecINtBP_3VecNtCsaKzlTDPUHDb_11proc_macro211TokenStreamE14extend_trustedINtNtNtNtB4_4iter8adapters3map3MapINtNtNtB4_5slice4iter4IterNtNtCs8QreBtO1sIU_4witx3ast18InterfaceFuncParamENCNvXs_NtCsfMaSMcsiNJc_15wiggle_generate5funcsNtB4d_4RustNtNtB3o_3abi7Bindgen4emits0_0EE0EB4f_, symObjAddr: 0x1F10, symBinAddr: 0x33160, symSize: 0x20 }
  - { offset: 0x8CDE0, size: 0x8, addend: 0x0, symName: __RINvNtCsieiGu2EXtoJ_4core3ptr13drop_in_placeNCINvMsi_NtCslJiobkLta79_5alloc3vecINtBP_3VecNtCsaKzlTDPUHDb_11proc_macro25IdentE14extend_trustedINtNtNtNtB4_4iter8adapters3map3MapINtNtNtB4_3ops5range5RangejENCNvNtCsfMaSMcsiNJc_15wiggle_generate5funcs12__define_func0EE0EB3l_, symObjAddr: 0x1F30, symBinAddr: 0x33180, symSize: 0x20 }
  - { offset: 0x8CE0F, size: 0x8, addend: 0x0, symName: __RINvNtCsieiGu2EXtoJ_4core3ptr13drop_in_placeNCINvMsi_NtCslJiobkLta79_5alloc3vecINtBP_3VecNtCsaKzlTDPUHDb_11proc_macro25IdentE14extend_trustedINtNtNtNtB4_4iter8adapters3map3MapINtNtNtB4_3ops5range5RangejENCNvNtCsfMaSMcsiNJc_15wiggle_generate8wasmtime13generate_func0EE0EB3l_, symObjAddr: 0x1F50, symBinAddr: 0x331A0, symSize: 0x20 }
  - { offset: 0x8CE3E, size: 0x8, addend: 0x0, symName: __RINvNtCsieiGu2EXtoJ_4core3ptr13drop_in_placeNCINvMsi_NtCslJiobkLta79_5alloc3vecINtBP_3VecNtCsaKzlTDPUHDb_11proc_macro25IdentE14extend_trustedINtNtNtNtB4_4iter8adapters3map3MapINtNtNtB4_3ops5range5RangejENCNvXs_NtCsfMaSMcsiNJc_15wiggle_generate5funcsNtB3m_4RustNtNtCs8QreBtO1sIU_4witx3abi7Bindgen4emits1_0EE0EB3o_, symObjAddr: 0x1F70, symBinAddr: 0x331C0, symSize: 0x20 }
  - { offset: 0x8CE6D, size: 0x8, addend: 0x0, symName: __RINvNtCsieiGu2EXtoJ_4core3ptr13drop_in_placeNCINvMsi_NtCslJiobkLta79_5alloc3vecINtBP_3VecNtNtBR_6string6StringE14extend_trustedINtNtNtNtB4_4iter8adapters3map3MapINtNtNtB4_5slice4iter4IterNtCsaKzlTDPUHDb_11proc_macro25IdentENCNvXsi_NtCsfMaSMcsiNJc_15wiggle_generate6configNtB3H_14AsyncFunctionsNtNtCsdGrGZaRBwMb_3syn5parse5Parse5parse0EE0EB3J_, symObjAddr: 0x1F90, symBinAddr: 0x331E0, symSize: 0x20 }
  - { offset: 0x8CE9C, size: 0x8, addend: 0x0, symName: __RINvNtCsieiGu2EXtoJ_4core3ptr13drop_in_placeNCINvMsi_NtCslJiobkLta79_5alloc3vecINtBP_3VecNtNtBR_6string6StringE14extend_trustedINtNtNtNtB4_4iter8adapters3map3MapINtNtNtB4_5slice4iter4IterNtCsaKzlTDPUHDb_11proc_macro25IdentENCNvXsp_NtCsfMaSMcsiNJc_15wiggle_generate6configNtB3H_11TracingConfNtNtCsdGrGZaRBwMb_3syn5parse5Parse5parse0EE0EB3J_, symObjAddr: 0x1FB0, symBinAddr: 0x33200, symSize: 0x20 }
  - { offset: 0x8CECB, size: 0x8, addend: 0x0, symName: __RINvNtCsieiGu2EXtoJ_4core3ptr13drop_in_placeNCINvMsi_NtCslJiobkLta79_5alloc3vecINtBP_3VecRNtNtCsHUR1vrdMJt_3std4path4PathE14extend_trustedINtNtNtNtB4_4iter8adapters3map3MapINtNtNtB4_5slice4iter4IterNtB1s_7PathBufENCINvNtCs8QreBtO1sIU_4witx8toplevel10parse_witxB3a_E0EE0ECsfMaSMcsiNJc_15wiggle_generate, symObjAddr: 0x1FD0, symBinAddr: 0x33220, symSize: 0x20 }
  - { offset: 0x8CEFA, size: 0x8, addend: 0x0, symName: __RINvNtCsieiGu2EXtoJ_4core3ptr13drop_in_placeNCINvNtNtNtB4_4iter8adapters3map8map_foldRNtCsaKzlTDPUHDb_11proc_macro25IdentNtB1o_11TokenStreamuNCNvXs_NtCsfMaSMcsiNJc_15wiggle_generate5funcsNtB2m_4RustNtNtCs8QreBtO1sIU_4witx3abi7Bindgen4emits2_0NCINvNvNtNtNtBP_6traits8iterator8Iterator8for_each4callB1V_NCINvMsi_NtCslJiobkLta79_5alloc3vecINtB4Y_3VecB1V_E14extend_trustedINtBL_3MapINtNtNtB4_5slice4iter4IterB1m_EB2f_EE0E0E0EB2o_, symObjAddr: 0x1FF0, symBinAddr: 0x33240, symSize: 0x20 }
  - { offset: 0x8CF29, size: 0x8, addend: 0x0, symName: __RINvNtCsieiGu2EXtoJ_4core3ptr13drop_in_placeNCINvNtNtNtB4_4iter8adapters3map8map_foldRNtCsaKzlTDPUHDb_11proc_macro25IdentNtNtCslJiobkLta79_5alloc6string6StringuNCNvXsi_NtCsfMaSMcsiNJc_15wiggle_generate6configNtB2G_14AsyncFunctionsNtNtCsdGrGZaRBwMb_3syn5parse5Parse5parse0NCINvNvNtNtNtBP_6traits8iterator8Iterator8for_each4callB1V_NCINvMsi_NtB1Z_3vecINtB5r_3VecB1V_E14extend_trustedINtBL_3MapINtNtNtB4_5slice4iter4IterB1m_EB2y_EE0E0E0EB2I_, symObjAddr: 0x2010, symBinAddr: 0x33260, symSize: 0x20 }
  - { offset: 0x8CF58, size: 0x8, addend: 0x0, symName: __RINvNtCsieiGu2EXtoJ_4core3ptr13drop_in_placeNCINvNtNtNtB4_4iter8adapters3map8map_foldRNtCsaKzlTDPUHDb_11proc_macro25IdentNtNtCslJiobkLta79_5alloc6string6StringuNCNvXsp_NtCsfMaSMcsiNJc_15wiggle_generate6configNtB2G_11TracingConfNtNtCsdGrGZaRBwMb_3syn5parse5Parse5parse0NCINvNvNtNtNtBP_6traits8iterator8Iterator8for_each4callB1V_NCINvMsi_NtB1Z_3vecINtB5o_3VecB1V_E14extend_trustedINtBL_3MapINtNtNtB4_5slice4iter4IterB1m_EB2y_EE0E0E0EB2I_, symObjAddr: 0x2030, symBinAddr: 0x33280, symSize: 0x20 }
  - { offset: 0x8CF87, size: 0x8, addend: 0x0, symName: __RINvNtCsieiGu2EXtoJ_4core3ptr13drop_in_placeNCINvNtNtNtB4_4iter8adapters3map8map_foldRNtNtCs8QreBtO1sIU_4witx3abi8WasmTypeNtCsaKzlTDPUHDb_11proc_macro211TokenStreamuNCNvNtCsfMaSMcsiNJc_15wiggle_generate8wasmtime13generate_funcs_0NCINvNvNtNtNtBP_6traits8iterator8Iterator8for_each4callB1W_NCINvMsi_NtCslJiobkLta79_5alloc3vecINtB4L_3VecB1W_E14extend_trustedINtBL_3MapINtNtNtB4_5slice4iter4IterB1m_EB2D_EE0E0E0EB2J_, symObjAddr: 0x2050, symBinAddr: 0x332A0, symSize: 0x20 }
  - { offset: 0x8CFB6, size: 0x8, addend: 0x0, symName: __RINvNtCsieiGu2EXtoJ_4core3ptr13drop_in_placeNCINvNtNtNtB4_4iter8adapters3map8map_foldRNtNtCs8QreBtO1sIU_4witx3ast12RecordMemberNtCsaKzlTDPUHDb_11proc_macro211TokenStreamuNCNvNtCsfMaSMcsiNJc_15wiggle_generate5names8type_ref0NCINvNvNtNtNtBP_6traits8iterator8Iterator8for_each4callB21_NCINvMsi_NtCslJiobkLta79_5alloc3vecINtB4F_3VecB21_E14extend_trustedINtBL_3MapINtNtNtB4_5slice4iter4IterB1m_EB2I_EE0E0E0EB2O_, symObjAddr: 0x2070, symBinAddr: 0x332C0, symSize: 0x20 }
  - { offset: 0x8CFE5, size: 0x8, addend: 0x0, symName: __RINvNtCsieiGu2EXtoJ_4core3ptr13drop_in_placeNCINvNtNtNtB4_4iter8adapters3map8map_foldRNtNtCs8QreBtO1sIU_4witx3ast18InterfaceFuncParamNtCsaKzlTDPUHDb_11proc_macro211TokenStreamuNCNvXs_NtCsfMaSMcsiNJc_15wiggle_generate5funcsNtB2V_4RustNtNtB1q_3abi7Bindgen4emits0_0NCINvNvNtNtNtBP_6traits8iterator8Iterator8for_each4callB27_NCINvMsi_NtCslJiobkLta79_5alloc3vecINtB5i_3VecB27_E14extend_trustedINtBL_3MapINtNtNtB4_5slice4iter4IterB1m_EB2O_EE0E0E0EB2X_, symObjAddr: 0x2090, symBinAddr: 0x332E0, symSize: 0x20 }
  - { offset: 0x8D014, size: 0x8, addend: 0x0, symName: __RINvNtCsieiGu2EXtoJ_4core3ptr13drop_in_placeNCINvNtNtNtB4_4iter8adapters3map8map_foldRNtNtCsHUR1vrdMJt_3std4path7PathBufRNtB1o_4PathuNCINvNtCs8QreBtO1sIU_4witx8toplevel10parse_witxB1m_E0NCINvNvNtNtNtBP_6traits8iterator8Iterator8for_each4callB1U_NCINvMsi_NtCslJiobkLta79_5alloc3vecINtB44_3VecB1U_E14extend_trustedINtBL_3MapINtNtNtB4_5slice4iter4IterB1m_EB27_EE0E0E0ECsfMaSMcsiNJc_15wiggle_generate, symObjAddr: 0x20B0, symBinAddr: 0x33300, symSize: 0x20 }
  - { offset: 0x8D043, size: 0x8, addend: 0x0, symName: __RINvNtCsieiGu2EXtoJ_4core3ptr13drop_in_placeNCINvNtNtNtB4_4iter8adapters3map8map_foldTRNtCsaKzlTDPUHDb_11proc_macro25IdentRNtB1p_11TokenStreamEB1X_uNCNvNtCsfMaSMcsiNJc_15wiggle_generate8wasmtime13generate_funcs0_0NCINvNvNtNtNtBP_6traits8iterator8Iterator8for_each4callB1X_NCINvMsi_NtCslJiobkLta79_5alloc3vecINtB4v_3VecB1X_E14extend_trustedINtBL_3MapINtNtBN_3zip3ZipINtNtNtB4_5slice4iter4IterB1n_EIB5S_B1X_EEB2m_EE0E0E0EB2s_, symObjAddr: 0x20D0, symBinAddr: 0x33320, symSize: 0x20 }
  - { offset: 0x8D072, size: 0x8, addend: 0x0, symName: __RINvNtCsieiGu2EXtoJ_4core3ptr13drop_in_placeNCINvNtNtNtB4_4iter8adapters3map8map_foldjNtCsaKzlTDPUHDb_11proc_macro25IdentuNCNvNtCsfMaSMcsiNJc_15wiggle_generate5funcs12__define_func0NCINvNvNtNtNtBP_6traits8iterator8Iterator8for_each4callB1m_NCINvMsi_NtCslJiobkLta79_5alloc3vecINtB3Z_3VecB1m_E14extend_trustedINtBL_3MapINtNtNtB4_3ops5range5RangejEB1W_EE0E0E0EB22_, symObjAddr: 0x20F0, symBinAddr: 0x33340, symSize: 0x20 }
  - { offset: 0x8D0A1, size: 0x8, addend: 0x0, symName: __RINvNtCsieiGu2EXtoJ_4core3ptr13drop_in_placeNCINvNtNtNtB4_4iter8adapters3map8map_foldjNtCsaKzlTDPUHDb_11proc_macro25IdentuNCNvNtCsfMaSMcsiNJc_15wiggle_generate8wasmtime13generate_func0NCINvNvNtNtNtBP_6traits8iterator8Iterator8for_each4callB1m_NCINvMsi_NtCslJiobkLta79_5alloc3vecINtB42_3VecB1m_E14extend_trustedINtBL_3MapINtNtNtB4_3ops5range5RangejEB1W_EE0E0E0EB22_, symObjAddr: 0x2110, symBinAddr: 0x33360, symSize: 0x20 }
  - { offset: 0x8D0D0, size: 0x8, addend: 0x0, symName: __RINvNtCsieiGu2EXtoJ_4core3ptr13drop_in_placeNCINvNtNtNtB4_4iter8adapters3map8map_foldjNtCsaKzlTDPUHDb_11proc_macro25IdentuNCNvXs_NtCsfMaSMcsiNJc_15wiggle_generate5funcsNtB23_4RustNtNtCs8QreBtO1sIU_4witx3abi7Bindgen4emits1_0NCINvNvNtNtNtBP_6traits8iterator8Iterator8for_each4callB1m_NCINvMsi_NtCslJiobkLta79_5alloc3vecINtB4F_3VecB1m_E14extend_trustedINtBL_3MapINtNtNtB4_3ops5range5RangejEB1W_EE0E0E0EB25_, symObjAddr: 0x2130, symBinAddr: 0x33380, symSize: 0x20 }
  - { offset: 0x8D0FF, size: 0x8, addend: 0x0, symName: __RINvNtCsieiGu2EXtoJ_4core3ptr13drop_in_placeNCINvNvNtNtNtNtB4_4iter6traits8iterator8Iterator8for_each4callNtCsaKzlTDPUHDb_11proc_macro211TokenStreamNCINvMsi_NtCslJiobkLta79_5alloc3vecINtB2v_3VecB1G_E14extend_trustedINtNtB2v_5drain5DrainB1G_EE0E0ECsfMaSMcsiNJc_15wiggle_generate, symObjAddr: 0x2150, symBinAddr: 0x333A0, symSize: 0x20 }
  - { offset: 0x8D12E, size: 0x8, addend: 0x0, symName: __RINvNtCsieiGu2EXtoJ_4core3ptr13drop_in_placeNCINvNvNtNtNtNtB4_4iter6traits8iterator8Iterator8for_each4callNtCsaKzlTDPUHDb_11proc_macro211TokenStreamNCINvMsi_NtCslJiobkLta79_5alloc3vecINtB2v_3VecB1G_E14extend_trustedINtNtNtBT_8adapters3map3MapINtNtB3w_3zip3ZipINtNtNtB4_5slice4iter4IterNtB1I_5IdentEIB4a_B1G_EENCNvNtCsfMaSMcsiNJc_15wiggle_generate8wasmtime13generate_funcs0_0EE0E0EB53_, symObjAddr: 0x2170, symBinAddr: 0x333C0, symSize: 0x20 }
  - { offset: 0x8D15D, size: 0x8, addend: 0x0, symName: __RINvNtCsieiGu2EXtoJ_4core3ptr13drop_in_placeNCINvNvNtNtNtNtB4_4iter6traits8iterator8Iterator8for_each4callNtCsaKzlTDPUHDb_11proc_macro211TokenStreamNCINvMsi_NtCslJiobkLta79_5alloc3vecINtB2v_3VecB1G_E14extend_trustedINtNtNtBT_8adapters3map3MapINtNtNtB4_5slice4iter4IterNtB1I_5IdentENCNvXs_NtCsfMaSMcsiNJc_15wiggle_generate5funcsNtB4C_4RustNtNtCs8QreBtO1sIU_4witx3abi7Bindgen4emits2_0EE0E0EB4E_, symObjAddr: 0x2190, symBinAddr: 0x333E0, symSize: 0x20 }
  - { offset: 0x8D18C, size: 0x8, addend: 0x0, symName: __RINvNtCsieiGu2EXtoJ_4core3ptr13drop_in_placeNCINvNvNtNtNtNtB4_4iter6traits8iterator8Iterator8for_each4callNtCsaKzlTDPUHDb_11proc_macro211TokenStreamNCINvMsi_NtCslJiobkLta79_5alloc3vecINtB2v_3VecB1G_E14extend_trustedINtNtNtBT_8adapters3map3MapINtNtNtB4_5slice4iter4IterNtNtCs8QreBtO1sIU_4witx3abi8WasmTypeENCNvNtCsfMaSMcsiNJc_15wiggle_generate8wasmtime13generate_funcs_0EE0E0EB4Z_, symObjAddr: 0x21B0, symBinAddr: 0x33400, symSize: 0x20 }
  - { offset: 0x8D1BB, size: 0x8, addend: 0x0, symName: __RINvNtCsieiGu2EXtoJ_4core3ptr13drop_in_placeNCINvNvNtNtNtNtB4_4iter6traits8iterator8Iterator8for_each4callNtCsaKzlTDPUHDb_11proc_macro211TokenStreamNCINvMsi_NtCslJiobkLta79_5alloc3vecINtB2v_3VecB1G_E14extend_trustedINtNtNtBT_8adapters3map3MapINtNtNtB4_5slice4iter4IterNtNtCs8QreBtO1sIU_4witx3ast12RecordMemberENCNvNtCsfMaSMcsiNJc_15wiggle_generate5names8type_ref0EE0E0EB54_, symObjAddr: 0x21D0, symBinAddr: 0x33420, symSize: 0x20 }
  - { offset: 0x8D1EA, size: 0x8, addend: 0x0, symName: __RINvNtCsieiGu2EXtoJ_4core3ptr13drop_in_placeNCINvNvNtNtNtNtB4_4iter6traits8iterator8Iterator8for_each4callNtCsaKzlTDPUHDb_11proc_macro211TokenStreamNCINvMsi_NtCslJiobkLta79_5alloc3vecINtB2v_3VecB1G_E14extend_trustedINtNtNtBT_8adapters3map3MapINtNtNtB4_5slice4iter4IterNtNtCs8QreBtO1sIU_4witx3ast18InterfaceFuncParamENCNvXs_NtCsfMaSMcsiNJc_15wiggle_generate5funcsNtB5b_4RustNtNtB4m_3abi7Bindgen4emits0_0EE0E0EB5d_, symObjAddr: 0x21F0, symBinAddr: 0x33440, symSize: 0x20 }
  - { offset: 0x8D219, size: 0x8, addend: 0x0, symName: __RINvNtCsieiGu2EXtoJ_4core3ptr13drop_in_placeNCINvNvNtNtNtNtB4_4iter6traits8iterator8Iterator8for_each4callNtCsaKzlTDPUHDb_11proc_macro25IdentNCINvMsi_NtCslJiobkLta79_5alloc3vecINtB2o_3VecB1G_E14extend_trustedINtNtNtBT_8adapters3map3MapINtNtNtB4_3ops5range5RangejENCNvNtCsfMaSMcsiNJc_15wiggle_generate5funcs12__define_func0EE0E0EB4j_, symObjAddr: 0x2210, symBinAddr: 0x33460, symSize: 0x20 }
  - { offset: 0x8D248, size: 0x8, addend: 0x0, symName: __RINvNtCsieiGu2EXtoJ_4core3ptr13drop_in_placeNCINvNvNtNtNtNtB4_4iter6traits8iterator8Iterator8for_each4callNtCsaKzlTDPUHDb_11proc_macro25IdentNCINvMsi_NtCslJiobkLta79_5alloc3vecINtB2o_3VecB1G_E14extend_trustedINtNtNtBT_8adapters3map3MapINtNtNtB4_3ops5range5RangejENCNvNtCsfMaSMcsiNJc_15wiggle_generate8wasmtime13generate_func0EE0E0EB4j_, symObjAddr: 0x2230, symBinAddr: 0x33480, symSize: 0x20 }
  - { offset: 0x8D277, size: 0x8, addend: 0x0, symName: __RINvNtCsieiGu2EXtoJ_4core3ptr13drop_in_placeNCINvNvNtNtNtNtB4_4iter6traits8iterator8Iterator8for_each4callNtCsaKzlTDPUHDb_11proc_macro25IdentNCINvMsi_NtCslJiobkLta79_5alloc3vecINtB2o_3VecB1G_E14extend_trustedINtNtNtBT_8adapters3map3MapINtNtNtB4_3ops5range5RangejENCNvXs_NtCsfMaSMcsiNJc_15wiggle_generate5funcsNtB4k_4RustNtNtCs8QreBtO1sIU_4witx3abi7Bindgen4emits1_0EE0E0EB4m_, symObjAddr: 0x2250, symBinAddr: 0x334A0, symSize: 0x20 }
  - { offset: 0x8D2A6, size: 0x8, addend: 0x0, symName: __RINvNtCsieiGu2EXtoJ_4core3ptr13drop_in_placeNCINvNvNtNtNtNtB4_4iter6traits8iterator8Iterator8for_each4callNtNtCslJiobkLta79_5alloc6string6StringNCINvMsi_NtB1K_3vecINtB2r_3VecB1G_E14extend_trustedINtNtNtBT_8adapters3map3MapINtNtNtB4_5slice4iter4IterNtCsaKzlTDPUHDb_11proc_macro25IdentENCNvXsi_NtCsfMaSMcsiNJc_15wiggle_generate6configNtB4G_14AsyncFunctionsNtNtCsdGrGZaRBwMb_3syn5parse5Parse5parse0EE0E0EB4I_, symObjAddr: 0x2270, symBinAddr: 0x334C0, symSize: 0x20 }
  - { offset: 0x8D2D5, size: 0x8, addend: 0x0, symName: __RINvNtCsieiGu2EXtoJ_4core3ptr13drop_in_placeNCINvNvNtNtNtNtB4_4iter6traits8iterator8Iterator8for_each4callNtNtCslJiobkLta79_5alloc6string6StringNCINvMsi_NtB1K_3vecINtB2r_3VecB1G_E14extend_trustedINtNtNtBT_8adapters3map3MapINtNtNtB4_5slice4iter4IterNtCsaKzlTDPUHDb_11proc_macro25IdentENCNvXsp_NtCsfMaSMcsiNJc_15wiggle_generate6configNtB4G_11TracingConfNtNtCsdGrGZaRBwMb_3syn5parse5Parse5parse0EE0E0EB4I_, symObjAddr: 0x2290, symBinAddr: 0x334E0, symSize: 0x20 }
  - { offset: 0x8D304, size: 0x8, addend: 0x0, symName: __RINvNtCsieiGu2EXtoJ_4core3ptr13drop_in_placeNCINvNvNtNtNtNtB4_4iter6traits8iterator8Iterator8for_each4callRNtNtCsHUR1vrdMJt_3std4path4PathNCINvMsi_NtCslJiobkLta79_5alloc3vecINtB2l_3VecB1G_E14extend_trustedINtNtNtBT_8adapters3map3MapINtNtNtB4_5slice4iter4IterNtB1J_7PathBufENCINvNtCs8QreBtO1sIU_4witx8toplevel10parse_witxB48_E0EE0E0ECsfMaSMcsiNJc_15wiggle_generate, symObjAddr: 0x22B0, symBinAddr: 0x33500, symSize: 0x20 }
  - { offset: 0x8D333, size: 0x8, addend: 0x0, symName: __RINvNtCsieiGu2EXtoJ_4core3ptr13drop_in_placeNtCs5LsBMV3VaIp_6anyhow5ErrorECsfMaSMcsiNJc_15wiggle_generate, symObjAddr: 0x22D0, symBinAddr: 0x33520, symSize: 0x20 }
  - { offset: 0x8D362, size: 0x8, addend: 0x0, symName: __RINvNtCsieiGu2EXtoJ_4core3ptr13drop_in_placeNtNtCsfMaSMcsiNJc_15wiggle_generate16codegen_settings13UserErrorTypeEBK_, symObjAddr: 0x22F0, symBinAddr: 0x33540, symSize: 0x80 }
  - { offset: 0x8D391, size: 0x8, addend: 0x0, symName: __RINvNtCsieiGu2EXtoJ_4core3ptr13drop_in_placeNtNtCsfMaSMcsiNJc_15wiggle_generate16codegen_settings14ErrorTransformEBK_, symObjAddr: 0x2370, symBinAddr: 0x335C0, symSize: 0x20 }
  - { offset: 0x8D3C0, size: 0x8, addend: 0x0, symName: __RINvNtCsieiGu2EXtoJ_4core3ptr13drop_in_placeNtNtCsfMaSMcsiNJc_15wiggle_generate16codegen_settings18TrappableErrorTypeEBK_, symObjAddr: 0x2390, symBinAddr: 0x335E0, symSize: 0x60 }
  - { offset: 0x8D3EF, size: 0x8, addend: 0x0, symName: __RINvNtCsieiGu2EXtoJ_4core3ptr13drop_in_placeNtNtCsfMaSMcsiNJc_15wiggle_generate16codegen_settings9ErrorTypeEBK_, symObjAddr: 0x23F0, symBinAddr: 0x33640, symSize: 0x50 }
  - { offset: 0x8D41E, size: 0x8, addend: 0x0, symName: __RINvNtCsieiGu2EXtoJ_4core3ptr13drop_in_placeNtNtCsfMaSMcsiNJc_15wiggle_generate5funcs4RustEBK_, symObjAddr: 0x2440, symBinAddr: 0x33690, symSize: 0x60 }
  - { offset: 0x8D44D, size: 0x8, addend: 0x0, symName: __RINvNtCsieiGu2EXtoJ_4core3ptr13drop_in_placeNtNtCsfMaSMcsiNJc_15wiggle_generate6config11ConfigFieldEBK_, symObjAddr: 0x24A0, symBinAddr: 0x336F0, symSize: 0xB0 }
  - { offset: 0x8D47C, size: 0x8, addend: 0x0, symName: __RINvNtCsieiGu2EXtoJ_4core3ptr13drop_in_placeNtNtCsfMaSMcsiNJc_15wiggle_generate6config11TracingConfEBK_, symObjAddr: 0x2550, symBinAddr: 0x337A0, symSize: 0x20 }
  - { offset: 0x8D4AB, size: 0x8, addend: 0x0, symName: __RINvNtCsieiGu2EXtoJ_4core3ptr13drop_in_placeNtNtCsfMaSMcsiNJc_15wiggle_generate6config13FunctionFieldEBK_, symObjAddr: 0x2570, symBinAddr: 0x337C0, symSize: 0x60 }
  - { offset: 0x8D4DA, size: 0x8, addend: 0x0, symName: __RINvNtCsieiGu2EXtoJ_4core3ptr13drop_in_placeNtNtCsfMaSMcsiNJc_15wiggle_generate6config14AsyncFunctionsEBK_, symObjAddr: 0x25D0, symBinAddr: 0x33820, symSize: 0x40 }
  - { offset: 0x8D509, size: 0x8, addend: 0x0, symName: __RINvNtCsieiGu2EXtoJ_4core3ptr13drop_in_placeNtNtCsfMaSMcsiNJc_15wiggle_generate6config14ErrorConfFieldEBK_, symObjAddr: 0x2610, symBinAddr: 0x33860, symSize: 0x50 }
  - { offset: 0x8D538, size: 0x8, addend: 0x0, symName: __RINvNtCsieiGu2EXtoJ_4core3ptr13drop_in_placeNtNtCsfMaSMcsiNJc_15wiggle_generate6config18UserErrorConfFieldEBK_, symObjAddr: 0x2660, symBinAddr: 0x338B0, symSize: 0x60 }
  - { offset: 0x8D567, size: 0x8, addend: 0x0, symName: __RINvNtCsieiGu2EXtoJ_4core3ptr13drop_in_placeNtNtCsfMaSMcsiNJc_15wiggle_generate6config19WasmtimeConfigFieldEBK_, symObjAddr: 0x26C0, symBinAddr: 0x33910, symSize: 0x50 }
  - { offset: 0x8D596, size: 0x8, addend: 0x0, symName: __RINvNtCsieiGu2EXtoJ_4core3ptr13drop_in_placeNtNtCsfMaSMcsiNJc_15wiggle_generate6config23TrappableErrorConfFieldEBK_, symObjAddr: 0x2710, symBinAddr: 0x33960, symSize: 0x60 }
  - { offset: 0x8D5C5, size: 0x8, addend: 0x0, symName: __RINvNtCsieiGu2EXtoJ_4core3ptr13drop_in_placeNtNtCsfMaSMcsiNJc_15wiggle_generate6config5PathsEBK_, symObjAddr: 0x2770, symBinAddr: 0x339C0, symSize: 0x20 }
  - { offset: 0x8D5F4, size: 0x8, addend: 0x0, symName: __RINvNtCsieiGu2EXtoJ_4core3ptr13drop_in_placeNtNtCsfMaSMcsiNJc_15wiggle_generate6config6ConfigEBK_, symObjAddr: 0x2790, symBinAddr: 0x339E0, symSize: 0xC0 }
  - { offset: 0x8D623, size: 0x8, addend: 0x0, symName: __RINvNtCsieiGu2EXtoJ_4core3ptr13drop_in_placeNtNtCsfMaSMcsiNJc_15wiggle_generate6config7LiteralEBK_, symObjAddr: 0x2850, symBinAddr: 0x33AA0, symSize: 0x20 }
  - { offset: 0x8D652, size: 0x8, addend: 0x0, symName: __RINvNtCsieiGu2EXtoJ_4core3ptr13drop_in_placeNtNtCsfMaSMcsiNJc_15wiggle_generate6config8WitxConfEBK_, symObjAddr: 0x2870, symBinAddr: 0x33AC0, symSize: 0x40 }
  - { offset: 0x8D681, size: 0x8, addend: 0x0, symName: __RINvNtCsieiGu2EXtoJ_4core3ptr13drop_in_placeNtNtCsfMaSMcsiNJc_15wiggle_generate6config9AsyncConfEBK_, symObjAddr: 0x28B0, symBinAddr: 0x33B00, symSize: 0x60 }
  - { offset: 0x8D6B0, size: 0x8, addend: 0x0, symName: __RINvNtCsieiGu2EXtoJ_4core3ptr13drop_in_placeNtNtCsfMaSMcsiNJc_15wiggle_generate6config9AsyncnessEBK_, symObjAddr: 0x2910, symBinAddr: 0x33B60, symSize: 0x50 }
  - { offset: 0x8D6DF, size: 0x8, addend: 0x0, symName: __RINvNtCsieiGu2EXtoJ_4core3ptr13drop_in_placeNtNtCsfMaSMcsiNJc_15wiggle_generate6config9ErrorConfEBK_, symObjAddr: 0x2960, symBinAddr: 0x33BB0, symSize: 0x20 }
  - { offset: 0x8D70E, size: 0x8, addend: 0x0, symName: __RINvNtCsieiGu2EXtoJ_4core3ptr13drop_in_placeSNtCsaKzlTDPUHDb_11proc_macro211TokenStreamECsfMaSMcsiNJc_15wiggle_generate, symObjAddr: 0x2980, symBinAddr: 0x33BD0, symSize: 0xA0 }
  - { offset: 0x8D73D, size: 0x8, addend: 0x0, symName: __RINvNtCsieiGu2EXtoJ_4core3ptr13drop_in_placeSNtCsaKzlTDPUHDb_11proc_macro25IdentECsfMaSMcsiNJc_15wiggle_generate, symObjAddr: 0x2A20, symBinAddr: 0x33C70, symSize: 0xA0 }
  - { offset: 0x8D76C, size: 0x8, addend: 0x0, symName: __RINvNtCsieiGu2EXtoJ_4core3ptr13drop_in_placeSNtCsaKzlTDPUHDb_11proc_macro27LiteralECsfMaSMcsiNJc_15wiggle_generate, symObjAddr: 0x2AC0, symBinAddr: 0x33D10, symSize: 0xA0 }
  - { offset: 0x8D79B, size: 0x8, addend: 0x0, symName: __RINvNtCsieiGu2EXtoJ_4core3ptr13drop_in_placeSNtNtCsfMaSMcsiNJc_15wiggle_generate16codegen_settings9ErrorTypeEBL_, symObjAddr: 0x2B60, symBinAddr: 0x33DB0, symSize: 0xA0 }
  - { offset: 0x8D7CA, size: 0x8, addend: 0x0, symName: __RINvNtCsieiGu2EXtoJ_4core3ptr13drop_in_placeSNtNtCsfMaSMcsiNJc_15wiggle_generate6config11ConfigFieldEBL_, symObjAddr: 0x2C00, symBinAddr: 0x33E50, symSize: 0xA0 }
  - { offset: 0x8D7F9, size: 0x8, addend: 0x0, symName: __RINvNtCsieiGu2EXtoJ_4core3ptr13drop_in_placeSNtNtCsfMaSMcsiNJc_15wiggle_generate6config13FunctionFieldEBL_, symObjAddr: 0x2CA0, symBinAddr: 0x33EF0, symSize: 0xA0 }
  - { offset: 0x8D828, size: 0x8, addend: 0x0, symName: __RINvNtCsieiGu2EXtoJ_4core3ptr13drop_in_placeSNtNtCsfMaSMcsiNJc_15wiggle_generate6config14ErrorConfFieldEBL_, symObjAddr: 0x2D40, symBinAddr: 0x33F90, symSize: 0xA0 }
  - { offset: 0x8D857, size: 0x8, addend: 0x0, symName: __RINvNtCsieiGu2EXtoJ_4core3ptr13drop_in_placeSNtNtCsfMaSMcsiNJc_15wiggle_generate6config19WasmtimeConfigFieldEBL_, symObjAddr: 0x2DE0, symBinAddr: 0x34030, symSize: 0xA0 }
  - { offset: 0x8D886, size: 0x8, addend: 0x0, symName: __RINvNtCsieiGu2EXtoJ_4core3ptr13drop_in_placeSTNtCsaKzlTDPUHDb_11proc_macro25IdentNtNtCsdGrGZaRBwMb_3syn5token5CommaEECsfMaSMcsiNJc_15wiggle_generate, symObjAddr: 0x2E80, symBinAddr: 0x340D0, symSize: 0xA0 }
  - { offset: 0x8D8B5, size: 0x8, addend: 0x0, symName: __RINvNtCsieiGu2EXtoJ_4core3ptr13drop_in_placeSTNtNtCsdGrGZaRBwMb_3syn3lit6LitStrNtNtBM_5token5CommaEECsfMaSMcsiNJc_15wiggle_generate, symObjAddr: 0x2F20, symBinAddr: 0x34170, symSize: 0xA0 }
  - { offset: 0x8D8E4, size: 0x8, addend: 0x0, symName: __RINvNtCsieiGu2EXtoJ_4core3ptr13drop_in_placeSTNtNtCsfMaSMcsiNJc_15wiggle_generate6config11ConfigFieldNtNtCsdGrGZaRBwMb_3syn5token5CommaEEBM_, symObjAddr: 0x2FC0, symBinAddr: 0x34210, symSize: 0xA0 }
  - { offset: 0x8D913, size: 0x8, addend: 0x0, symName: __RINvNtCsieiGu2EXtoJ_4core3ptr13drop_in_placeSTNtNtCsfMaSMcsiNJc_15wiggle_generate6config13FunctionFieldNtNtCsdGrGZaRBwMb_3syn5token5CommaEEBM_, symObjAddr: 0x3060, symBinAddr: 0x342B0, symSize: 0xA0 }
  - { offset: 0x8D942, size: 0x8, addend: 0x0, symName: __RINvNtCsieiGu2EXtoJ_4core3ptr13drop_in_placeSTNtNtCsfMaSMcsiNJc_15wiggle_generate6config14ErrorConfFieldNtNtCsdGrGZaRBwMb_3syn5token5CommaEEBM_, symObjAddr: 0x3100, symBinAddr: 0x34350, symSize: 0xA0 }
  - { offset: 0x8D971, size: 0x8, addend: 0x0, symName: __RINvNtCsieiGu2EXtoJ_4core3ptr13drop_in_placeSTNtNtCsfMaSMcsiNJc_15wiggle_generate6config19WasmtimeConfigFieldNtNtCsdGrGZaRBwMb_3syn5token5CommaEEBM_, symObjAddr: 0x31A0, symBinAddr: 0x343F0, symSize: 0xA0 }
  - { offset: 0x8D9A0, size: 0x8, addend: 0x0, symName: __RINvNtCsieiGu2EXtoJ_4core3ptr13drop_in_placeTNtCsaKzlTDPUHDb_11proc_macro25IdentNtBJ_4SpanEECsfMaSMcsiNJc_15wiggle_generate, symObjAddr: 0x3240, symBinAddr: 0x34490, symSize: 0x20 }
  - { offset: 0x8D9CF, size: 0x8, addend: 0x0, symName: __RINvNtCsieiGu2EXtoJ_4core3ptr13drop_in_placeTNtCsaKzlTDPUHDb_11proc_macro25IdentNtNtCsdGrGZaRBwMb_3syn5token5CommaEECsfMaSMcsiNJc_15wiggle_generate, symObjAddr: 0x3260, symBinAddr: 0x344B0, symSize: 0x20 }
  - { offset: 0x8D9FE, size: 0x8, addend: 0x0, symName: __RINvNtCsieiGu2EXtoJ_4core3ptr13drop_in_placeTNtCsaKzlTDPUHDb_11proc_macro25IdentNtNtCsfMaSMcsiNJc_15wiggle_generate6config14ErrorConfFieldEEB1k_, symObjAddr: 0x3280, symBinAddr: 0x344D0, symSize: 0x60 }
  - { offset: 0x8DA2D, size: 0x8, addend: 0x0, symName: __RINvNtCsieiGu2EXtoJ_4core3ptr13drop_in_placeTNtCsaKzlTDPUHDb_11proc_macro25IdentuEECsfMaSMcsiNJc_15wiggle_generate, symObjAddr: 0x32E0, symBinAddr: 0x34530, symSize: 0x20 }
  - { offset: 0x8DA5C, size: 0x8, addend: 0x0, symName: __RINvNtCsieiGu2EXtoJ_4core3ptr13drop_in_placeTNtNtCsdGrGZaRBwMb_3syn3lit6LitStrNtNtBL_5token5CommaEECsfMaSMcsiNJc_15wiggle_generate, symObjAddr: 0x3300, symBinAddr: 0x34550, symSize: 0x20 }
  - { offset: 0x8DA8B, size: 0x8, addend: 0x0, symName: __RINvNtCsieiGu2EXtoJ_4core3ptr13drop_in_placeTNtNtCsfMaSMcsiNJc_15wiggle_generate6config11ConfigFieldNtNtCsdGrGZaRBwMb_3syn5token5CommaEEBL_, symObjAddr: 0x3320, symBinAddr: 0x34570, symSize: 0x20 }
  - { offset: 0x8DABA, size: 0x8, addend: 0x0, symName: __RINvNtCsieiGu2EXtoJ_4core3ptr13drop_in_placeTNtNtCsfMaSMcsiNJc_15wiggle_generate6config13FunctionFieldNtNtCsdGrGZaRBwMb_3syn5token5CommaEEBL_, symObjAddr: 0x3340, symBinAddr: 0x34590, symSize: 0x20 }
  - { offset: 0x8DAE9, size: 0x8, addend: 0x0, symName: __RINvNtCsieiGu2EXtoJ_4core3ptr13drop_in_placeTNtNtCsfMaSMcsiNJc_15wiggle_generate6config14ErrorConfFieldNtNtCsdGrGZaRBwMb_3syn5token5CommaEEBL_, symObjAddr: 0x3360, symBinAddr: 0x345B0, symSize: 0x20 }
  - { offset: 0x8DB18, size: 0x8, addend: 0x0, symName: __RINvNtCsieiGu2EXtoJ_4core3ptr13drop_in_placeTNtNtCsfMaSMcsiNJc_15wiggle_generate6config19WasmtimeConfigFieldNtNtCsdGrGZaRBwMb_3syn5token5CommaEEBL_, symObjAddr: 0x3380, symBinAddr: 0x345D0, symSize: 0x20 }
  - { offset: 0x8DB47, size: 0x8, addend: 0x0, symName: __RINvNtCsieiGu2EXtoJ_4core3ptr13drop_in_placeTNtNtCslJiobkLta79_5alloc6string6StringINtNtBL_3vec3VecBH_EEECsfMaSMcsiNJc_15wiggle_generate, symObjAddr: 0x33A0, symBinAddr: 0x345F0, symSize: 0x60 }
  - { offset: 0x8DDB2, size: 0x8, addend: 0x0, symName: __RNvNvMNtNtCsieiGu2EXtoJ_4core3ptr9const_ptrPp20offset_from_unsigned18precondition_checkCsfMaSMcsiNJc_15wiggle_generate, symObjAddr: 0x4830, symBinAddr: 0x35A80, symSize: 0xA0 }
  - { offset: 0x8E50C, size: 0x8, addend: 0x0, symName: __RNvNvMsd_NtNtCsieiGu2EXtoJ_4core3num7nonzeroINtB7_7NonZeropE13new_unchecked18precondition_checkCsfMaSMcsiNJc_15wiggle_generate, symObjAddr: 0x48D0, symBinAddr: 0x35B20, symSize: 0x80 }
  - { offset: 0x90CDF, size: 0x8, addend: 0x0, symName: __RNcNtINtNtCsieiGu2EXtoJ_4core6option6OptionNtNtCslJiobkLta79_5alloc6string6StringE4Some0CsfMaSMcsiNJc_15wiggle_generate, symObjAddr: 0x3CC0, symBinAddr: 0x34F10, symSize: 0x20 }
  - { offset: 0x91712, size: 0x8, addend: 0x0, symName: __RNvXs3_NtCsieiGu2EXtoJ_4core6optionINtB5_6OptionNtCsaKzlTDPUHDb_11proc_macro211TokenStreamENtNtB7_5clone5Clone5cloneCsfMaSMcsiNJc_15wiggle_generate, symObjAddr: 0x4F20, symBinAddr: 0x36140, symSize: 0x90 }
  - { offset: 0x917D9, size: 0x8, addend: 0x0, symName: __RNvXs5_NtCsieiGu2EXtoJ_4core6optionINtB5_6OptionNtCsaKzlTDPUHDb_11proc_macro211TokenStreamENtNtB7_7default7Default7defaultCsfMaSMcsiNJc_15wiggle_generate, symObjAddr: 0x5310, symBinAddr: 0x36530, symSize: 0x20 }
  - { offset: 0x91807, size: 0x8, addend: 0x0, symName: __RNvXs6_NtCsieiGu2EXtoJ_4core6optionINtB5_6OptionRNtCsaKzlTDPUHDb_11proc_macro25IdentENtNtNtNtB7_4iter6traits7collect12IntoIterator9into_iterCsfMaSMcsiNJc_15wiggle_generate, symObjAddr: 0x5330, symBinAddr: 0x36550, symSize: 0x10 }
  - { offset: 0x9183E, size: 0x8, addend: 0x0, symName: __RNvXs6_NtCsieiGu2EXtoJ_4core6optionINtB5_6OptionRNtNtCsdGrGZaRBwMb_3syn3lit6LitStrENtNtNtNtB7_4iter6traits7collect12IntoIterator9into_iterCsfMaSMcsiNJc_15wiggle_generate, symObjAddr: 0x5340, symBinAddr: 0x36560, symSize: 0x10 }
  - { offset: 0x9187B, size: 0x8, addend: 0x0, symName: __RNvXsI_NtCsieiGu2EXtoJ_4core6optionINtB5_6OptionNtNtCs8QreBtO1sIU_4witx3ast7TypeRefENtNtB7_3fmt5Debug3fmtCsfMaSMcsiNJc_15wiggle_generate, symObjAddr: 0x53F0, symBinAddr: 0x36610, symSize: 0x90 }
  - { offset: 0x918DF, size: 0x8, addend: 0x0, symName: __RNvXsI_NtCsieiGu2EXtoJ_4core6optionINtB5_6OptionRNtNtCs8QreBtO1sIU_4witx3ast7TypeRefENtNtB7_3fmt5Debug3fmtCsfMaSMcsiNJc_15wiggle_generate, symObjAddr: 0x5480, symBinAddr: 0x366A0, symSize: 0x90 }
  - { offset: 0x9199D, size: 0x8, addend: 0x0, symName: __RNvXsP_NtCsieiGu2EXtoJ_4core6optionINtB5_8IntoIterRNtCsaKzlTDPUHDb_11proc_macro25IdentENtNtB7_5clone5Clone5cloneCsfMaSMcsiNJc_15wiggle_generate, symObjAddr: 0x5510, symBinAddr: 0x36730, symSize: 0x60 }
  - { offset: 0x91A48, size: 0x8, addend: 0x0, symName: __RNvXsP_NtCsieiGu2EXtoJ_4core6optionINtB5_8IntoIterRNtNtCsdGrGZaRBwMb_3syn3lit6LitStrENtNtB7_5clone5Clone5cloneCsfMaSMcsiNJc_15wiggle_generate, symObjAddr: 0x5570, symBinAddr: 0x36790, symSize: 0x60 }
  - { offset: 0x91AF9, size: 0x8, addend: 0x0, symName: __RNvXsd_NtCsieiGu2EXtoJ_4core6optionINtB5_6OptionbENtNtB7_3cmp9PartialEq2eqCsfMaSMcsiNJc_15wiggle_generate, symObjAddr: 0x56A0, symBinAddr: 0x368C0, symSize: 0xA0 }
  - { offset: 0x91C83, size: 0x8, addend: 0x0, symName: __RNvXsw_NtCsieiGu2EXtoJ_4core6optionINtB5_8IntoIterRNtCsaKzlTDPUHDb_11proc_macro25IdentENtNtNtNtB7_4iter6traits8iterator8Iterator4nextCsfMaSMcsiNJc_15wiggle_generate, symObjAddr: 0x57D0, symBinAddr: 0x369F0, symSize: 0x20 }
  - { offset: 0x91CFB, size: 0x8, addend: 0x0, symName: __RNvXsw_NtCsieiGu2EXtoJ_4core6optionINtB5_8IntoIterRNtCsaKzlTDPUHDb_11proc_macro25IdentENtNtNtNtB7_4iter6traits8iterator8Iterator9size_hintCsfMaSMcsiNJc_15wiggle_generate, symObjAddr: 0x57F0, symBinAddr: 0x36A10, symSize: 0x30 }
  - { offset: 0x91D73, size: 0x8, addend: 0x0, symName: __RNvXsw_NtCsieiGu2EXtoJ_4core6optionINtB5_8IntoIterRNtNtCsdGrGZaRBwMb_3syn3lit6LitStrENtNtNtNtB7_4iter6traits8iterator8Iterator4nextCsfMaSMcsiNJc_15wiggle_generate, symObjAddr: 0x5820, symBinAddr: 0x36A40, symSize: 0x20 }
  - { offset: 0x91DEB, size: 0x8, addend: 0x0, symName: __RNvXsw_NtCsieiGu2EXtoJ_4core6optionINtB5_8IntoIterRNtNtCsdGrGZaRBwMb_3syn3lit6LitStrENtNtNtNtB7_4iter6traits8iterator8Iterator9size_hintCsfMaSMcsiNJc_15wiggle_generate, symObjAddr: 0x5840, symBinAddr: 0x36A60, symSize: 0x30 }
  - { offset: 0x92F66, size: 0x8, addend: 0x0, symName: __RINvXs2_NtNtNtCsieiGu2EXtoJ_4core4iter8adapters3zipINtB6_3ZipINtNtNtBc_5slice4iter4IterNtCsaKzlTDPUHDb_11proc_macro25IdentEIBY_NtB1p_11TokenStreamEEINtB6_7ZipImplBX_B1X_E4folduNCINvNtB8_3map8map_foldTRB1n_RB21_EB21_uNCNvNtCsfMaSMcsiNJc_15wiggle_generate8wasmtime13generate_funcs0_0NCINvNvNtNtNtBa_6traits8iterator8Iterator8for_each4callB21_NCINvMsi_NtCslJiobkLta79_5alloc3vecINtB5B_3VecB21_E14extend_trustedINtB2T_3MapBN_B3s_EE0E0E0EB3y_, symObjAddr: 0x38D0, symBinAddr: 0x34B20, symSize: 0x1C0 }
  - { offset: 0x930D1, size: 0x8, addend: 0x0, symName: __RNvXs2_NtNtNtCsieiGu2EXtoJ_4core4iter8adapters3zipINtB5_3ZipINtNtNtBb_5slice4iter4IterNtCsaKzlTDPUHDb_11proc_macro25IdentEIBX_NtB1o_11TokenStreamEEINtB5_7ZipImplBW_B1W_E13get_uncheckedCsfMaSMcsiNJc_15wiggle_generate, symObjAddr: 0x4EB0, symBinAddr: 0x360D0, symSize: 0x70 }
  - { offset: 0x93144, size: 0x8, addend: 0x0, symName: __RINvXs_NtNtNtCsieiGu2EXtoJ_4core4iter8adapters3zipINtB5_3ZipINtNtNtBb_5slice4iter4IterNtCsaKzlTDPUHDb_11proc_macro25IdentEIBX_NtB1o_11TokenStreamEENtNtNtB9_6traits8iterator8Iterator4folduNCINvNtB7_3map8map_foldTRB1m_RB20_EB20_uNCNvNtCsfMaSMcsiNJc_15wiggle_generate8wasmtime13generate_funcs0_0NCINvNvB2l_8for_each4callB20_NCINvMsi_NtCslJiobkLta79_5alloc3vecINtB5i_3VecB20_E14extend_trustedINtB34_3MapBM_B3D_EE0E0E0EB3J_, symObjAddr: 0x3A90, symBinAddr: 0x34CE0, symSize: 0x20 }
  - { offset: 0x931AE, size: 0x8, addend: 0x0, symName: __RNvXs_NtNtNtCsieiGu2EXtoJ_4core4iter8adapters3zipINtB4_3ZipINtNtNtBa_5slice4iter4IterNtCsaKzlTDPUHDb_11proc_macro25IdentEIBW_NtB1n_11TokenStreamEENtNtNtB8_6traits8iterator8Iterator9size_hintCsfMaSMcsiNJc_15wiggle_generate, symObjAddr: 0x5650, symBinAddr: 0x36870, symSize: 0x30 }
  - { offset: 0x931EC, size: 0x8, addend: 0x0, symName: __RNvXs_NtNtNtCsieiGu2EXtoJ_4core4iter8adapters3zipINtB4_3ZipINtNtNtBa_5slice4iter4IterNtNtCs8QreBtO1sIU_4witx3abi8WasmTypeEIBW_NtCsaKzlTDPUHDb_11proc_macro25IdentEENtNtNtB8_6traits8iterator8Iterator4nextCsfMaSMcsiNJc_15wiggle_generate, symObjAddr: 0x5680, symBinAddr: 0x368A0, symSize: 0x20 }
  - { offset: 0x932C6, size: 0x8, addend: 0x0, symName: __RNvXs3_NtNtNtCsieiGu2EXtoJ_4core4iter8adapters3zipINtB5_3ZipINtNtNtBb_5slice4iter4IterNtCsaKzlTDPUHDb_11proc_macro25IdentEIBX_NtB1o_11TokenStreamEEINtB5_7ZipImplBW_B1W_E3newCsfMaSMcsiNJc_15wiggle_generate, symObjAddr: 0x50C0, symBinAddr: 0x362E0, symSize: 0xC0 }
  - { offset: 0x9335A, size: 0x8, addend: 0x0, symName: __RNvXs3_NtNtNtCsieiGu2EXtoJ_4core4iter8adapters3zipINtB5_3ZipINtNtNtBb_5slice4iter4IterNtCsaKzlTDPUHDb_11proc_macro25IdentEIBX_NtB1o_11TokenStreamEEINtB5_7ZipImplBW_B1W_E9size_hintCsfMaSMcsiNJc_15wiggle_generate, symObjAddr: 0x5180, symBinAddr: 0x363A0, symSize: 0x30 }
  - { offset: 0x9339A, size: 0x8, addend: 0x0, symName: __RNvXs3_NtNtNtCsieiGu2EXtoJ_4core4iter8adapters3zipINtB5_3ZipINtNtNtBb_5slice4iter4IterNtNtCs8QreBtO1sIU_4witx3abi8WasmTypeEIBX_NtCsaKzlTDPUHDb_11proc_macro25IdentEEINtB5_7ZipImplBW_B1X_E3newCsfMaSMcsiNJc_15wiggle_generate, symObjAddr: 0x51B0, symBinAddr: 0x363D0, symSize: 0xC0 }
  - { offset: 0x9342E, size: 0x8, addend: 0x0, symName: __RNvXs3_NtNtNtCsieiGu2EXtoJ_4core4iter8adapters3zipINtB5_3ZipINtNtNtBb_5slice4iter4IterNtNtCs8QreBtO1sIU_4witx3abi8WasmTypeEIBX_NtCsaKzlTDPUHDb_11proc_macro25IdentEEINtB5_7ZipImplBW_B1X_E4nextCsfMaSMcsiNJc_15wiggle_generate, symObjAddr: 0x5270, symBinAddr: 0x36490, symSize: 0xA0 }
  - { offset: 0x93827, size: 0x8, addend: 0x0, symName: __RINvYINtNtNtNtCsieiGu2EXtoJ_4core4iter8adapters3zip3ZipINtNtNtBc_5slice4iter4IterNtCsaKzlTDPUHDb_11proc_macro25IdentEIBS_NtB1j_11TokenStreamEENtNtNtBa_6traits8iterator8Iterator3mapB1V_NCNvNtCsfMaSMcsiNJc_15wiggle_generate8wasmtime13generate_funcs0_0EB32_, symObjAddr: 0x3AB0, symBinAddr: 0x34D00, symSize: 0x30 }
  - { offset: 0x93895, size: 0x8, addend: 0x0, symName: __RINvYINtNtNtNtCsieiGu2EXtoJ_4core4iter8adapters3zip3ZipINtNtNtBc_5slice4iter4IterNtNtCs8QreBtO1sIU_4witx3abi8WasmTypeEIBS_NtCsaKzlTDPUHDb_11proc_macro25IdentEENtNtNtBa_6traits8iterator8Iterator3mapNtB1Y_11TokenStreamNCNvNtCsfMaSMcsiNJc_15wiggle_generate5funcs12__define_funcs_0EB3y_, symObjAddr: 0x3AE0, symBinAddr: 0x34D30, symSize: 0x30 }
  - { offset: 0x939FF, size: 0x8, addend: 0x0, symName: __RNvYINtNtCsieiGu2EXtoJ_4core6option8IntoIterRNtCsaKzlTDPUHDb_11proc_macro25IdentENtNtNtNtB7_4iter6traits10exact_size17ExactSizeIterator3lenCsfMaSMcsiNJc_15wiggle_generate, symObjAddr: 0x5870, symBinAddr: 0x36A90, symSize: 0xE0 }
  - { offset: 0x93AFF, size: 0x8, addend: 0x0, symName: __RNvYINtNtCsieiGu2EXtoJ_4core6option8IntoIterRNtNtCsdGrGZaRBwMb_3syn3lit6LitStrENtNtNtNtB7_4iter6traits10exact_size17ExactSizeIterator3lenCsfMaSMcsiNJc_15wiggle_generate, symObjAddr: 0x5950, symBinAddr: 0x36B70, symSize: 0xE0 }
  - { offset: 0x93CE7, size: 0x8, addend: 0x0, symName: __RNSNvYNCINvMs6_NtCsjK30CmJ87bX_9hashbrown3rawINtBd_8RawTableTNtCsaKzlTDPUHDb_11proc_macro25IdentNtBZ_4SpanEE14reserve_rehashNCINvNtBf_3map11make_hasherBX_B1w_NtNtNtCsHUR1vrdMJt_3std4hash6random11RandomStateE0E0INtNtNtCsieiGu2EXtoJ_4core3ops8function6FnOnceTQNtBd_13RawTableInnerjEE9call_once6vtableCsfMaSMcsiNJc_15wiggle_generate, symObjAddr: 0x3B10, symBinAddr: 0x34D60, symSize: 0x30 }
  - { offset: 0x93D2B, size: 0x8, addend: 0x0, symName: __RNSNvYNCINvMs6_NtCsjK30CmJ87bX_9hashbrown3rawINtBd_8RawTableTNtCsaKzlTDPUHDb_11proc_macro25IdentNtBZ_4SpanEE24find_or_find_insert_slotNCINvNtBf_3map14equivalent_keyBX_BX_B1w_E0NCINvB2d_11make_hasherBX_B1w_NtNtNtCsHUR1vrdMJt_3std4hash6random11RandomStateE0E0INtNtNtCsieiGu2EXtoJ_4core3ops8function6FnOnceTjEE9call_once6vtableCsfMaSMcsiNJc_15wiggle_generate, symObjAddr: 0x3B40, symBinAddr: 0x34D90, symSize: 0x30 }
  - { offset: 0x93D6F, size: 0x8, addend: 0x0, symName: __RNSNvYNCINvMs6_NtCsjK30CmJ87bX_9hashbrown3rawINtBd_8RawTableTNtCsaKzlTDPUHDb_11proc_macro25IdentNtNtCsfMaSMcsiNJc_15wiggle_generate6config14ErrorConfFieldEE14reserve_rehashNCINvNtBf_3map11make_hasherBX_B1w_NtNtNtCsHUR1vrdMJt_3std4hash6random11RandomStateE0E0INtNtNtCsieiGu2EXtoJ_4core3ops8function6FnOnceTQNtBd_13RawTableInnerjEE9call_once6vtableB1A_, symObjAddr: 0x3B70, symBinAddr: 0x34DC0, symSize: 0x30 }
  - { offset: 0x93DB3, size: 0x8, addend: 0x0, symName: __RNSNvYNCINvMs6_NtCsjK30CmJ87bX_9hashbrown3rawINtBd_8RawTableTNtCsaKzlTDPUHDb_11proc_macro25IdentNtNtCsfMaSMcsiNJc_15wiggle_generate6config14ErrorConfFieldEE24find_or_find_insert_slotNCINvNtBf_3map14equivalent_keyBX_BX_B1w_E0NCINvB2Z_11make_hasherBX_B1w_NtNtNtCsHUR1vrdMJt_3std4hash6random11RandomStateE0E0INtNtNtCsieiGu2EXtoJ_4core3ops8function6FnOnceTjEE9call_once6vtableB1A_, symObjAddr: 0x3BA0, symBinAddr: 0x34DF0, symSize: 0x30 }
  - { offset: 0x93DF7, size: 0x8, addend: 0x0, symName: __RNSNvYNCINvMs6_NtCsjK30CmJ87bX_9hashbrown3rawINtBd_8RawTableTNtCsaKzlTDPUHDb_11proc_macro25IdentuEE14reserve_rehashNCINvNtBf_3map11make_hasherBX_uNtNtNtCsHUR1vrdMJt_3std4hash6random11RandomStateE0E0INtNtNtCsieiGu2EXtoJ_4core3ops8function6FnOnceTQNtBd_13RawTableInnerjEE9call_once6vtableCsfMaSMcsiNJc_15wiggle_generate, symObjAddr: 0x3BD0, symBinAddr: 0x34E20, symSize: 0x30 }
  - { offset: 0x93E3B, size: 0x8, addend: 0x0, symName: __RNSNvYNCINvMs6_NtCsjK30CmJ87bX_9hashbrown3rawINtBd_8RawTableTNtCsaKzlTDPUHDb_11proc_macro25IdentuEE24find_or_find_insert_slotNCINvNtBf_3map14equivalent_keyBX_BX_uE0NCINvB24_11make_hasherBX_uNtNtNtCsHUR1vrdMJt_3std4hash6random11RandomStateE0E0INtNtNtCsieiGu2EXtoJ_4core3ops8function6FnOnceTjEE9call_once6vtableCsfMaSMcsiNJc_15wiggle_generate, symObjAddr: 0x3C00, symBinAddr: 0x34E50, symSize: 0x30 }
  - { offset: 0x93E7F, size: 0x8, addend: 0x0, symName: __RNSNvYNCINvMs6_NtCsjK30CmJ87bX_9hashbrown3rawINtBd_8RawTableTNtNtCslJiobkLta79_5alloc6string6StringINtNtB11_3vec3VecBX_EEE14reserve_rehashNCINvNtBf_3map11make_hasherBX_B1z_NtNtNtCsHUR1vrdMJt_3std4hash6random11RandomStateE0E0INtNtNtCsieiGu2EXtoJ_4core3ops8function6FnOnceTQNtBd_13RawTableInnerjEE9call_once6vtableCsfMaSMcsiNJc_15wiggle_generate, symObjAddr: 0x3C30, symBinAddr: 0x34E80, symSize: 0x30 }
  - { offset: 0x93EC3, size: 0x8, addend: 0x0, symName: __RNSNvYNCINvMs6_NtCsjK30CmJ87bX_9hashbrown3rawINtBd_8RawTableTNtNtCslJiobkLta79_5alloc6string6StringINtNtB11_3vec3VecBX_EEE4findNCINvNtBf_3map14equivalent_keyeBX_B1z_E0E0INtNtNtCsieiGu2EXtoJ_4core3ops8function6FnOnceTjEE9call_once6vtableCsfMaSMcsiNJc_15wiggle_generate, symObjAddr: 0x3C60, symBinAddr: 0x34EB0, symSize: 0x30 }
  - { offset: 0x93F07, size: 0x8, addend: 0x0, symName: __RNSNvYNCINvMs6_NtCsjK30CmJ87bX_9hashbrown3rawINtBd_8RawTableTNtNtCslJiobkLta79_5alloc6string6StringINtNtB11_3vec3VecBX_EEE4findNCNvMNtBf_11rustc_entryINtNtBf_3map7HashMapBX_B1z_NtNtNtCsHUR1vrdMJt_3std4hash6random11RandomStateE11rustc_entry0E0INtNtNtCsieiGu2EXtoJ_4core3ops8function6FnOnceTjEE9call_once6vtableCsfMaSMcsiNJc_15wiggle_generate, symObjAddr: 0x3C90, symBinAddr: 0x34EE0, symSize: 0x30 }
  - { offset: 0x93F4B, size: 0x8, addend: 0x0, symName: __RNvYNCINvMs6_NtCsjK30CmJ87bX_9hashbrown3rawINtBb_8RawTableTNtCsaKzlTDPUHDb_11proc_macro25IdentNtBX_4SpanEE14reserve_rehashNCINvNtBd_3map11make_hasherBV_B1u_NtNtNtCsHUR1vrdMJt_3std4hash6random11RandomStateE0E0INtNtNtCsieiGu2EXtoJ_4core3ops8function6FnOnceTQNtBb_13RawTableInnerjEE9call_onceCsfMaSMcsiNJc_15wiggle_generate, symObjAddr: 0x5A30, symBinAddr: 0x36C50, symSize: 0x50 }
  - { offset: 0x93F8F, size: 0x8, addend: 0x0, symName: __RNvYNCINvMs6_NtCsjK30CmJ87bX_9hashbrown3rawINtBb_8RawTableTNtCsaKzlTDPUHDb_11proc_macro25IdentNtBX_4SpanEE14reserve_rehashNCINvNtBd_3map11make_hasherBV_B1u_NtNtNtCsHUR1vrdMJt_3std4hash6random11RandomStateE0Es_0INtNtNtCsieiGu2EXtoJ_4core3ops8function6FnOnceTOhEE9call_onceCsfMaSMcsiNJc_15wiggle_generate, symObjAddr: 0x5A80, symBinAddr: 0x36CA0, symSize: 0x40 }
  - { offset: 0x93FCF, size: 0x8, addend: 0x0, symName: __RNvYNCINvMs6_NtCsjK30CmJ87bX_9hashbrown3rawINtBb_8RawTableTNtCsaKzlTDPUHDb_11proc_macro25IdentNtBX_4SpanEE24find_or_find_insert_slotNCINvNtBd_3map14equivalent_keyBV_BV_B1u_E0NCINvB2b_11make_hasherBV_B1u_NtNtNtCsHUR1vrdMJt_3std4hash6random11RandomStateE0E0INtNtNtCsieiGu2EXtoJ_4core3ops8function6FnOnceTjEE9call_onceCsfMaSMcsiNJc_15wiggle_generate, symObjAddr: 0x5AC0, symBinAddr: 0x36CE0, symSize: 0x50 }
  - { offset: 0x94013, size: 0x8, addend: 0x0, symName: __RNvYNCINvMs6_NtCsjK30CmJ87bX_9hashbrown3rawINtBb_8RawTableTNtCsaKzlTDPUHDb_11proc_macro25IdentNtNtCsfMaSMcsiNJc_15wiggle_generate6config14ErrorConfFieldEE14reserve_rehashNCINvNtBd_3map11make_hasherBV_B1u_NtNtNtCsHUR1vrdMJt_3std4hash6random11RandomStateE0E0INtNtNtCsieiGu2EXtoJ_4core3ops8function6FnOnceTQNtBb_13RawTableInnerjEE9call_onceB1y_, symObjAddr: 0x5B10, symBinAddr: 0x36D30, symSize: 0x50 }
  - { offset: 0x94057, size: 0x8, addend: 0x0, symName: __RNvYNCINvMs6_NtCsjK30CmJ87bX_9hashbrown3rawINtBb_8RawTableTNtCsaKzlTDPUHDb_11proc_macro25IdentNtNtCsfMaSMcsiNJc_15wiggle_generate6config14ErrorConfFieldEE14reserve_rehashNCINvNtBd_3map11make_hasherBV_B1u_NtNtNtCsHUR1vrdMJt_3std4hash6random11RandomStateE0Es_0INtNtNtCsieiGu2EXtoJ_4core3ops8function6FnOnceTOhEE9call_onceB1y_, symObjAddr: 0x5B60, symBinAddr: 0x36D80, symSize: 0x40 }
  - { offset: 0x94097, size: 0x8, addend: 0x0, symName: __RNvYNCINvMs6_NtCsjK30CmJ87bX_9hashbrown3rawINtBb_8RawTableTNtCsaKzlTDPUHDb_11proc_macro25IdentNtNtCsfMaSMcsiNJc_15wiggle_generate6config14ErrorConfFieldEE24find_or_find_insert_slotNCINvNtBd_3map14equivalent_keyBV_BV_B1u_E0NCINvB2X_11make_hasherBV_B1u_NtNtNtCsHUR1vrdMJt_3std4hash6random11RandomStateE0E0INtNtNtCsieiGu2EXtoJ_4core3ops8function6FnOnceTjEE9call_onceB1y_, symObjAddr: 0x5BA0, symBinAddr: 0x36DC0, symSize: 0x50 }
  - { offset: 0x940DB, size: 0x8, addend: 0x0, symName: __RNvYNCINvMs6_NtCsjK30CmJ87bX_9hashbrown3rawINtBb_8RawTableTNtCsaKzlTDPUHDb_11proc_macro25IdentuEE14reserve_rehashNCINvNtBd_3map11make_hasherBV_uNtNtNtCsHUR1vrdMJt_3std4hash6random11RandomStateE0E0INtNtNtCsieiGu2EXtoJ_4core3ops8function6FnOnceTQNtBb_13RawTableInnerjEE9call_onceCsfMaSMcsiNJc_15wiggle_generate, symObjAddr: 0x5BF0, symBinAddr: 0x36E10, symSize: 0x50 }
  - { offset: 0x9411F, size: 0x8, addend: 0x0, symName: __RNvYNCINvMs6_NtCsjK30CmJ87bX_9hashbrown3rawINtBb_8RawTableTNtCsaKzlTDPUHDb_11proc_macro25IdentuEE14reserve_rehashNCINvNtBd_3map11make_hasherBV_uNtNtNtCsHUR1vrdMJt_3std4hash6random11RandomStateE0Es_0INtNtNtCsieiGu2EXtoJ_4core3ops8function6FnOnceTOhEE9call_onceCsfMaSMcsiNJc_15wiggle_generate, symObjAddr: 0x5C40, symBinAddr: 0x36E60, symSize: 0x40 }
  - { offset: 0x9415F, size: 0x8, addend: 0x0, symName: __RNvYNCINvMs6_NtCsjK30CmJ87bX_9hashbrown3rawINtBb_8RawTableTNtCsaKzlTDPUHDb_11proc_macro25IdentuEE24find_or_find_insert_slotNCINvNtBd_3map14equivalent_keyBV_BV_uE0NCINvB22_11make_hasherBV_uNtNtNtCsHUR1vrdMJt_3std4hash6random11RandomStateE0E0INtNtNtCsieiGu2EXtoJ_4core3ops8function6FnOnceTjEE9call_onceCsfMaSMcsiNJc_15wiggle_generate, symObjAddr: 0x5C80, symBinAddr: 0x36EA0, symSize: 0x50 }
  - { offset: 0x941A3, size: 0x8, addend: 0x0, symName: __RNvYNCINvMs6_NtCsjK30CmJ87bX_9hashbrown3rawINtBb_8RawTableTNtNtCslJiobkLta79_5alloc6string6StringINtNtBZ_3vec3VecBV_EEE14reserve_rehashNCINvNtBd_3map11make_hasherBV_B1x_NtNtNtCsHUR1vrdMJt_3std4hash6random11RandomStateE0E0INtNtNtCsieiGu2EXtoJ_4core3ops8function6FnOnceTQNtBb_13RawTableInnerjEE9call_onceCsfMaSMcsiNJc_15wiggle_generate, symObjAddr: 0x5CD0, symBinAddr: 0x36EF0, symSize: 0x50 }
  - { offset: 0x941E7, size: 0x8, addend: 0x0, symName: __RNvYNCINvMs6_NtCsjK30CmJ87bX_9hashbrown3rawINtBb_8RawTableTNtNtCslJiobkLta79_5alloc6string6StringINtNtBZ_3vec3VecBV_EEE14reserve_rehashNCINvNtBd_3map11make_hasherBV_B1x_NtNtNtCsHUR1vrdMJt_3std4hash6random11RandomStateE0Es_0INtNtNtCsieiGu2EXtoJ_4core3ops8function6FnOnceTOhEE9call_onceCsfMaSMcsiNJc_15wiggle_generate, symObjAddr: 0x5D20, symBinAddr: 0x36F40, symSize: 0x40 }
  - { offset: 0x94227, size: 0x8, addend: 0x0, symName: __RNvYNCINvMs6_NtCsjK30CmJ87bX_9hashbrown3rawINtBb_8RawTableTNtNtCslJiobkLta79_5alloc6string6StringINtNtBZ_3vec3VecBV_EEE4findNCINvNtBd_3map14equivalent_keyeBV_B1x_E0E0INtNtNtCsieiGu2EXtoJ_4core3ops8function6FnOnceTjEE9call_onceCsfMaSMcsiNJc_15wiggle_generate, symObjAddr: 0x5D60, symBinAddr: 0x36F80, symSize: 0x50 }
  - { offset: 0x9426B, size: 0x8, addend: 0x0, symName: __RNvYNCINvMs6_NtCsjK30CmJ87bX_9hashbrown3rawINtBb_8RawTableTNtNtCslJiobkLta79_5alloc6string6StringINtNtBZ_3vec3VecBV_EEE4findNCNvMNtBd_11rustc_entryINtNtBd_3map7HashMapBV_B1x_NtNtNtCsHUR1vrdMJt_3std4hash6random11RandomStateE11rustc_entry0E0INtNtNtCsieiGu2EXtoJ_4core3ops8function6FnOnceTjEE9call_onceCsfMaSMcsiNJc_15wiggle_generate, symObjAddr: 0x5DB0, symBinAddr: 0x36FD0, symSize: 0x50 }
  - { offset: 0x942AF, size: 0x8, addend: 0x0, symName: __RNvYNCNkNvNvMNtNtCsHUR1vrdMJt_3std4hash6randomNtBb_11RandomState3new4KEYS0s_0INtNtNtCsieiGu2EXtoJ_4core3ops8function6FnOnceTINtNtB1k_6option6OptionQIB1Z_INtNtB1k_4cell4CellTyyEEEEEE9call_onceCsfMaSMcsiNJc_15wiggle_generate, symObjAddr: 0x5E00, symBinAddr: 0x37020, symSize: 0x40 }
  - { offset: 0x942F3, size: 0x8, addend: 0x0, symName: __RNvYNcNtINtNtCsieiGu2EXtoJ_4core6option6OptionNtNtCslJiobkLta79_5alloc6string6StringE4Some0INtNtNtBb_3ops8function6FnOnceTBI_EE9call_onceCsfMaSMcsiNJc_15wiggle_generate, symObjAddr: 0x5E40, symBinAddr: 0x37060, symSize: 0x40 }
  - { offset: 0x94337, size: 0x8, addend: 0x0, symName: __RNvYNvCsi88DhWbSVU_11shellexpand22is_valid_var_name_charINtNtNtCsieiGu2EXtoJ_4core3ops8function6FnOnceTcEE9call_onceCsfMaSMcsiNJc_15wiggle_generate, symObjAddr: 0x5F00, symBinAddr: 0x37120, symSize: 0x20 }
  - { offset: 0x9437B, size: 0x8, addend: 0x0, symName: __RNvYNvYINtNtCslJiobkLta79_5alloc5boxed3BoxNtCsaKzlTDPUHDb_11proc_macro25IdentEINtNtCsieiGu2EXtoJ_4core7convert5AsRefBE_E6as_refINtNtNtB1j_3ops8function6FnOnceTRB5_EE9call_onceCsfMaSMcsiNJc_15wiggle_generate, symObjAddr: 0x5F20, symBinAddr: 0x37140, symSize: 0x20 }
  - { offset: 0x943BF, size: 0x8, addend: 0x0, symName: __RNvYNvYINtNtCslJiobkLta79_5alloc5boxed3BoxNtNtCsdGrGZaRBwMb_3syn3lit6LitStrEINtNtCsieiGu2EXtoJ_4core7convert5AsRefBE_E6as_refINtNtNtB1h_3ops8function6FnOnceTRB5_EE9call_onceCsfMaSMcsiNJc_15wiggle_generate, symObjAddr: 0x5F40, symBinAddr: 0x37160, symSize: 0x20 }
  - { offset: 0x94409, size: 0x8, addend: 0x0, symName: __RNvYNcNtINtNtNtCsieiGu2EXtoJ_4core3ops12control_flow11ControlFlowNtNtCsfMaSMcsiNJc_15wiggle_generate16codegen_settings9ErrorTypeE5Break0INtNtBb_8function5FnMutTB11_EE8call_mutB15_, symObjAddr: 0x5E80, symBinAddr: 0x370A0, symSize: 0x60 }
  - { offset: 0x9445F, size: 0x8, addend: 0x0, symName: __RNcNtINtNtNtCsieiGu2EXtoJ_4core3ops12control_flow11ControlFlowNtNtCsfMaSMcsiNJc_15wiggle_generate16codegen_settings9ErrorTypeE5Break0B12_, symObjAddr: 0x3CE0, symBinAddr: 0x34F30, symSize: 0x30 }
  - { offset: 0x944A1, size: 0x8, addend: 0x0, symName: __RNvXNtNtCsieiGu2EXtoJ_4core3ops12control_flowINtB2_11ControlFlowIBI_NtNtCsfMaSMcsiNJc_15wiggle_generate16codegen_settings9ErrorTypeEENtNtB4_9try_trait3Try11from_outputB18_, symObjAddr: 0x49E0, symBinAddr: 0x35C00, symSize: 0x20 }
  - { offset: 0x944DF, size: 0x8, addend: 0x0, symName: __RNvXNtNtCsieiGu2EXtoJ_4core3ops12control_flowINtB2_11ControlFlowIBI_NtNtCsfMaSMcsiNJc_15wiggle_generate16codegen_settings9ErrorTypeEENtNtB4_9try_trait3Try6branchB18_, symObjAddr: 0x4A00, symBinAddr: 0x35C20, symSize: 0xB0 }
  - { offset: 0x94559, size: 0x8, addend: 0x0, symName: __RNvXNtNtCsieiGu2EXtoJ_4core3ops12control_flowINtB2_11ControlFlowNtNtCsfMaSMcsiNJc_15wiggle_generate16codegen_settings9ErrorTypeENtNtB4_9try_trait3Try11from_outputB14_, symObjAddr: 0x4AB0, symBinAddr: 0x35CD0, symSize: 0x20 }
  - { offset: 0x94597, size: 0x8, addend: 0x0, symName: __RNvXNtNtCsieiGu2EXtoJ_4core3ops12control_flowINtB2_11ControlFlowNtNtCsfMaSMcsiNJc_15wiggle_generate16codegen_settings9ErrorTypeENtNtB4_9try_trait3Try6branchB14_, symObjAddr: 0x4AD0, symBinAddr: 0x35CF0, symSize: 0xB0 }
  - { offset: 0x94617, size: 0x8, addend: 0x0, symName: __RNvXs_NtNtCsieiGu2EXtoJ_4core3ops12control_flowINtB4_11ControlFlowIBK_NtNtCsfMaSMcsiNJc_15wiggle_generate16codegen_settings9ErrorTypeEEINtNtB6_9try_trait12FromResidualIBK_B12_NtNtB8_7convert10InfallibleEE13from_residualB1a_, symObjAddr: 0x55D0, symBinAddr: 0x367F0, symSize: 0x40 }
  - { offset: 0x94656, size: 0x8, addend: 0x0, symName: __RNvXs_NtNtCsieiGu2EXtoJ_4core3ops12control_flowINtB4_11ControlFlowNtNtCsfMaSMcsiNJc_15wiggle_generate16codegen_settings9ErrorTypeEINtNtB6_9try_trait12FromResidualIBK_B12_NtNtB8_7convert10InfallibleEE13from_residualB16_, symObjAddr: 0x5610, symBinAddr: 0x36830, symSize: 0x40 }
  - { offset: 0x94A4D, size: 0x8, addend: 0x0, symName: __RNvXs7_NtNtCsieiGu2EXtoJ_4core3cmp5implsRNtNtCslJiobkLta79_5alloc6string6StringINtB7_9PartialEqReE2eqCsfMaSMcsiNJc_15wiggle_generate, symObjAddr: 0x5350, symBinAddr: 0x36570, symSize: 0x30 }
  - { offset: 0x94CF5, size: 0x8, addend: 0x0, symName: __RNvXNtNtCsieiGu2EXtoJ_4core3str4iterNtB2_5CharsNtNtNtNtB6_4iter6traits8iterator8Iterator4nextCsfMaSMcsiNJc_15wiggle_generate, symObjAddr: 0x4B80, symBinAddr: 0x35DA0, symSize: 0x60 }
  - { offset: 0x94DC7, size: 0x8, addend: 0x0, symName: __RNvXs3_NtNtCsieiGu2EXtoJ_4core3str4iterNtB5_11CharIndicesNtNtNtNtB9_4iter6traits8iterator8Iterator4nextCsfMaSMcsiNJc_15wiggle_generate, symObjAddr: 0x4FB0, symBinAddr: 0x361D0, symSize: 0x110 }
  - { offset: 0x951EC, size: 0x8, addend: 0x0, symName: __RNvXs19_NtCsieiGu2EXtoJ_4core3fmtRINtNtB8_6option6OptionRNtNtCs8QreBtO1sIU_4witx3ast7TypeRefENtB6_5Debug3fmtCsfMaSMcsiNJc_15wiggle_generate, symObjAddr: 0x4C00, symBinAddr: 0x35E20, symSize: 0x20 }
  - { offset: 0x95298, size: 0x8, addend: 0x0, symName: __RNvYTNtNtCslJiobkLta79_5alloc6string6StringINtNtB7_3vec3VecB3_EENtNtCsieiGu2EXtoJ_4core5clone5Clone5cloneCsfMaSMcsiNJc_15wiggle_generate, symObjAddr: 0x5F60, symBinAddr: 0x37180, symSize: 0x80 }
  - { offset: 0x964E9, size: 0x8, addend: 0x0, symName: __RINvMNtCsieiGu2EXtoJ_4core6optionINtB3_6OptionNtCsaKzlTDPUHDb_11proc_macro25IdentE14unwrap_or_elseNCNvNtCsfMaSMcsiNJc_15wiggle_generate5names12enum_variant0EB1E_, symObjAddr: 0x0, symBinAddr: 0x31250, symSize: 0x90 }
  - { offset: 0x9BF1C, size: 0x8, addend: 0x0, symName: __RINvMNtCsieiGu2EXtoJ_4core6optionINtB3_6OptionNtNtCsdGrGZaRBwMb_3syn4path4PathE10ok_or_elseNtNtBM_5error5ErrorNCINvMsk_NtCsfMaSMcsiNJc_15wiggle_generate6configNtB1T_14WasmtimeConfig5buildINtNtBM_10punctuated8IntoIterNtB1T_19WasmtimeConfigFieldEE0EB1V_, symObjAddr: 0x90, symBinAddr: 0x312E0, symSize: 0xB0 }
  - { offset: 0x9BF89, size: 0x8, addend: 0x0, symName: __RINvMNtCsieiGu2EXtoJ_4core6optionINtB3_6OptionNtNtCsfMaSMcsiNJc_15wiggle_generate6config8WitxConfE10ok_or_elseNtNtCsdGrGZaRBwMb_3syn5error5ErrorNCINvMs_BK_NtBK_6Config5buildINtNtB1O_10punctuated8IntoIterNtBK_11ConfigFieldEE0EBM_, symObjAddr: 0x140, symBinAddr: 0x31390, symSize: 0xC0 }
  - { offset: 0x9BFF5, size: 0x8, addend: 0x0, symName: __RINvMNtCsieiGu2EXtoJ_4core6optionINtB3_6OptionNtNtCsfMaSMcsiNJc_15wiggle_generate6config8WitxConfE10ok_or_elseNtNtCsdGrGZaRBwMb_3syn5error5ErrorNCINvMs_BK_NtBK_6Config5buildINtNtNtCslJiobkLta79_5alloc3vec9into_iter8IntoIterNtBK_11ConfigFieldEE0EBM_, symObjAddr: 0x200, symBinAddr: 0x31450, symSize: 0xC0 }
  - { offset: 0x9C088, size: 0x8, addend: 0x0, symName: __RINvMNtCsieiGu2EXtoJ_4core6optionINtB3_6OptionRINtNtCslJiobkLta79_5alloc3vec3VecNtNtBO_6string6StringEE8and_thenRB1g_NCNvMsh_NtCsfMaSMcsiNJc_15wiggle_generate6configNtB1Z_9AsyncConf3get0EB21_, symObjAddr: 0x2C0, symBinAddr: 0x31510, symSize: 0x60 }
  - { offset: 0x9C0F3, size: 0x8, addend: 0x0, symName: __RINvMNtCsieiGu2EXtoJ_4core6optionINtB3_6OptionRINtNtCslJiobkLta79_5alloc3vec3VecNtNtBO_6string6StringEE8and_thenRB1g_NCNvMsn_NtCsfMaSMcsiNJc_15wiggle_generate6configNtB1Z_11TracingConf11enabled_for0EB21_, symObjAddr: 0x320, symBinAddr: 0x31570, symSize: 0x60 }
  - { offset: 0x9C19D, size: 0x8, addend: 0x0, symName: __RINvMNtCsieiGu2EXtoJ_4core6optionINtB3_6OptionRINtNtCslJiobkLta79_5alloc5boxed3BoxNtCsaKzlTDPUHDb_11proc_macro25IdentEE3mapRB1i_NvYBJ_INtNtB5_7convert5AsRefB1i_E6as_refECsfMaSMcsiNJc_15wiggle_generate, symObjAddr: 0x380, symBinAddr: 0x315D0, symSize: 0x50 }
  - { offset: 0x9C247, size: 0x8, addend: 0x0, symName: __RINvMNtCsieiGu2EXtoJ_4core6optionINtB3_6OptionRINtNtCslJiobkLta79_5alloc5boxed3BoxNtNtCsdGrGZaRBwMb_3syn3lit6LitStrEE3mapRB1i_NvYBJ_INtNtB5_7convert5AsRefB1i_E6as_refECsfMaSMcsiNJc_15wiggle_generate, symObjAddr: 0x3D0, symBinAddr: 0x31620, symSize: 0x50 }
  - { offset: 0x9C2BF, size: 0x8, addend: 0x0, symName: __RINvMNtCsieiGu2EXtoJ_4core6optionINtB3_6OptionRNtCsaKzlTDPUHDb_11proc_macro25IdentE7or_elseNCNvXsw_NtCsdGrGZaRBwMb_3syn10punctuatedINtB1z_11PrivateIterBJ_NtNtB1B_5token5CommaENtNtNtNtB5_4iter6traits8iterator8Iterator4nexts_0ECsfMaSMcsiNJc_15wiggle_generate, symObjAddr: 0x420, symBinAddr: 0x31670, symSize: 0x90 }
  - { offset: 0x9C366, size: 0x8, addend: 0x0, symName: __RINvMNtCsieiGu2EXtoJ_4core6optionINtB3_6OptionRNtCsaKzlTDPUHDb_11proc_macro25IdentE7or_elseNCNvXsx_NtCsdGrGZaRBwMb_3syn10punctuatedINtB1z_11PrivateIterBJ_NtNtB1B_5token5CommaENtNtNtNtB5_4iter6traits12double_ended19DoubleEndedIterator9next_back0ECsfMaSMcsiNJc_15wiggle_generate, symObjAddr: 0x4B0, symBinAddr: 0x31700, symSize: 0x90 }
  - { offset: 0x9C3C8, size: 0x8, addend: 0x0, symName: __RINvMNtCsieiGu2EXtoJ_4core6optionINtB3_6OptionRNtNtCs8QreBtO1sIU_4witx3ast7TypeRefE3mapbNCNCNvXs2_NtCsfMaSMcsiNJc_15wiggle_generate9lifetimesNtBL_7VariantNtB1y_11LifetimeExt14needs_lifetime00EB1A_, symObjAddr: 0x540, symBinAddr: 0x31790, symSize: 0x50 }
  - { offset: 0x9C440, size: 0x8, addend: 0x0, symName: __RINvMNtCsieiGu2EXtoJ_4core6optionINtB3_6OptionRNtNtCsdGrGZaRBwMb_3syn3lit6LitStrE7or_elseNCNvXsw_NtBN_10punctuatedINtB1x_11PrivateIterBJ_NtNtBN_5token5CommaENtNtNtNtB5_4iter6traits8iterator8Iterator4nexts_0ECsfMaSMcsiNJc_15wiggle_generate, symObjAddr: 0x590, symBinAddr: 0x317E0, symSize: 0x90 }
  - { offset: 0x9C4E7, size: 0x8, addend: 0x0, symName: __RINvMNtCsieiGu2EXtoJ_4core6optionINtB3_6OptionRNtNtCsdGrGZaRBwMb_3syn3lit6LitStrE7or_elseNCNvXsx_NtBN_10punctuatedINtB1x_11PrivateIterBJ_NtNtBN_5token5CommaENtNtNtNtB5_4iter6traits12double_ended19DoubleEndedIterator9next_back0ECsfMaSMcsiNJc_15wiggle_generate, symObjAddr: 0x620, symBinAddr: 0x31870, symSize: 0x90 }
  - { offset: 0x9C549, size: 0x8, addend: 0x0, symName: __RINvMNtCsieiGu2EXtoJ_4core6optionINtB3_6OptionRTNtCsaKzlTDPUHDb_11proc_macro25IdentNtNtCsdGrGZaRBwMb_3syn5token5CommaEE3mapRBK_NCNCNvXsx_NtB1n_10punctuatedINtB2b_11PrivateIterBK_B1j_ENtNtNtNtB5_4iter6traits12double_ended19DoubleEndedIterator9next_back00ECsfMaSMcsiNJc_15wiggle_generate, symObjAddr: 0x6B0, symBinAddr: 0x31900, symSize: 0x50 }
  - { offset: 0x9C5B4, size: 0x8, addend: 0x0, symName: __RINvMNtCsieiGu2EXtoJ_4core6optionINtB3_6OptionRTNtCsaKzlTDPUHDb_11proc_macro25IdentNtNtCsdGrGZaRBwMb_3syn5token5CommaEE3mapRBK_NCNvXsw_NtB1n_10punctuatedINtB29_11PrivateIterBK_B1j_ENtNtNtNtB5_4iter6traits8iterator8Iterator4next0ECsfMaSMcsiNJc_15wiggle_generate, symObjAddr: 0x700, symBinAddr: 0x31950, symSize: 0x50 }
  - { offset: 0x9C61F, size: 0x8, addend: 0x0, symName: __RINvMNtCsieiGu2EXtoJ_4core6optionINtB3_6OptionRTNtNtCsdGrGZaRBwMb_3syn3lit6LitStrNtNtBO_5token5CommaEE3mapRBK_NCNCNvXsx_NtBO_10punctuatedINtB1U_11PrivateIterBK_B1h_ENtNtNtNtB5_4iter6traits12double_ended19DoubleEndedIterator9next_back00ECsfMaSMcsiNJc_15wiggle_generate, symObjAddr: 0x750, symBinAddr: 0x319A0, symSize: 0x50 }
  - { offset: 0x9C68A, size: 0x8, addend: 0x0, symName: __RINvMNtCsieiGu2EXtoJ_4core6optionINtB3_6OptionRTNtNtCsdGrGZaRBwMb_3syn3lit6LitStrNtNtBO_5token5CommaEE3mapRBK_NCNvXsw_NtBO_10punctuatedINtB1S_11PrivateIterBK_B1h_ENtNtNtNtB5_4iter6traits8iterator8Iterator4next0ECsfMaSMcsiNJc_15wiggle_generate, symObjAddr: 0x7A0, symBinAddr: 0x319F0, symSize: 0x50 }
  - { offset: 0x9C70D, size: 0x8, addend: 0x0, symName: __RINvMNtCsieiGu2EXtoJ_4core6optionINtB3_6OptioncE3mapbNvCsi88DhWbSVU_11shellexpand22is_valid_var_name_charECsfMaSMcsiNJc_15wiggle_generate, symObjAddr: 0x7F0, symBinAddr: 0x31A40, symSize: 0x50 }
  - { offset: 0x9CBF0, size: 0x8, addend: 0x0, symName: __RNvMNtCsieiGu2EXtoJ_4core6optionINtB2_6OptionINtNtCslJiobkLta79_5alloc5boxed3BoxNtCsaKzlTDPUHDb_11proc_macro25IdentEE4takeCsfMaSMcsiNJc_15wiggle_generate, symObjAddr: 0x3D10, symBinAddr: 0x34F60, symSize: 0x20 }
  - { offset: 0x9CC47, size: 0x8, addend: 0x0, symName: __RNvMNtCsieiGu2EXtoJ_4core6optionINtB2_6OptionINtNtCslJiobkLta79_5alloc5boxed3BoxNtCsaKzlTDPUHDb_11proc_macro25IdentEE6as_refCsfMaSMcsiNJc_15wiggle_generate, symObjAddr: 0x3D30, symBinAddr: 0x34F80, symSize: 0x50 }
  - { offset: 0x9CCAD, size: 0x8, addend: 0x0, symName: __RNvMNtCsieiGu2EXtoJ_4core6optionINtB2_6OptionINtNtCslJiobkLta79_5alloc5boxed3BoxNtCsaKzlTDPUHDb_11proc_macro25IdentEE7is_noneCsfMaSMcsiNJc_15wiggle_generate, symObjAddr: 0x3D80, symBinAddr: 0x34FD0, symSize: 0x30 }
  - { offset: 0x9CCF7, size: 0x8, addend: 0x0, symName: __RNvMNtCsieiGu2EXtoJ_4core6optionINtB2_6OptionINtNtCslJiobkLta79_5alloc5boxed3BoxNtCsaKzlTDPUHDb_11proc_macro25IdentEE7is_someCsfMaSMcsiNJc_15wiggle_generate, symObjAddr: 0x3DB0, symBinAddr: 0x35000, symSize: 0x30 }
  - { offset: 0x9CD30, size: 0x8, addend: 0x0, symName: __RNvMNtCsieiGu2EXtoJ_4core6optionINtB2_6OptionINtNtCslJiobkLta79_5alloc5boxed3BoxNtNtCsdGrGZaRBwMb_3syn3lit6LitStrEE4takeCsfMaSMcsiNJc_15wiggle_generate, symObjAddr: 0x3DE0, symBinAddr: 0x35030, symSize: 0x20 }
  - { offset: 0x9CD87, size: 0x8, addend: 0x0, symName: __RNvMNtCsieiGu2EXtoJ_4core6optionINtB2_6OptionINtNtCslJiobkLta79_5alloc5boxed3BoxNtNtCsdGrGZaRBwMb_3syn3lit6LitStrEE6as_refCsfMaSMcsiNJc_15wiggle_generate, symObjAddr: 0x3E00, symBinAddr: 0x35050, symSize: 0x50 }
  - { offset: 0x9CDED, size: 0x8, addend: 0x0, symName: __RNvMNtCsieiGu2EXtoJ_4core6optionINtB2_6OptionINtNtCslJiobkLta79_5alloc5boxed3BoxNtNtCsdGrGZaRBwMb_3syn3lit6LitStrEE7is_noneCsfMaSMcsiNJc_15wiggle_generate, symObjAddr: 0x3E50, symBinAddr: 0x350A0, symSize: 0x30 }
  - { offset: 0x9CE37, size: 0x8, addend: 0x0, symName: __RNvMNtCsieiGu2EXtoJ_4core6optionINtB2_6OptionINtNtCslJiobkLta79_5alloc5boxed3BoxNtNtCsdGrGZaRBwMb_3syn3lit6LitStrEE7is_someCsfMaSMcsiNJc_15wiggle_generate, symObjAddr: 0x3E80, symBinAddr: 0x350D0, symSize: 0x30 }
  - { offset: 0x9D54F, size: 0x8, addend: 0x0, symName: __RNvMNtCsieiGu2EXtoJ_4core6optionINtB2_6OptionINtNtCslJiobkLta79_5alloc5boxed3BoxNtNtCsfMaSMcsiNJc_15wiggle_generate6config11ConfigFieldEE4takeB1k_, symObjAddr: 0x3EB0, symBinAddr: 0x35100, symSize: 0x20 }
  - { offset: 0x9D5C2, size: 0x8, addend: 0x0, symName: __RNvMNtCsieiGu2EXtoJ_4core6optionINtB2_6OptionINtNtCslJiobkLta79_5alloc5boxed3BoxNtNtCsfMaSMcsiNJc_15wiggle_generate6config11ConfigFieldEE7is_noneB1k_, symObjAddr: 0x3ED0, symBinAddr: 0x35120, symSize: 0x30 }
  - { offset: 0x9D60C, size: 0x8, addend: 0x0, symName: __RNvMNtCsieiGu2EXtoJ_4core6optionINtB2_6OptionINtNtCslJiobkLta79_5alloc5boxed3BoxNtNtCsfMaSMcsiNJc_15wiggle_generate6config11ConfigFieldEE7is_someB1k_, symObjAddr: 0x3F00, symBinAddr: 0x35150, symSize: 0x30 }
  - { offset: 0x9D652, size: 0x8, addend: 0x0, symName: __RNvMNtCsieiGu2EXtoJ_4core6optionINtB2_6OptionINtNtCslJiobkLta79_5alloc5boxed3BoxNtNtCsfMaSMcsiNJc_15wiggle_generate6config13FunctionFieldEE4takeB1k_, symObjAddr: 0x3F30, symBinAddr: 0x35180, symSize: 0x20 }
  - { offset: 0x9D6C5, size: 0x8, addend: 0x0, symName: __RNvMNtCsieiGu2EXtoJ_4core6optionINtB2_6OptionINtNtCslJiobkLta79_5alloc5boxed3BoxNtNtCsfMaSMcsiNJc_15wiggle_generate6config13FunctionFieldEE7is_noneB1k_, symObjAddr: 0x3F50, symBinAddr: 0x351A0, symSize: 0x30 }
  - { offset: 0x9D70F, size: 0x8, addend: 0x0, symName: __RNvMNtCsieiGu2EXtoJ_4core6optionINtB2_6OptionINtNtCslJiobkLta79_5alloc5boxed3BoxNtNtCsfMaSMcsiNJc_15wiggle_generate6config13FunctionFieldEE7is_someB1k_, symObjAddr: 0x3F80, symBinAddr: 0x351D0, symSize: 0x30 }
  - { offset: 0x9D755, size: 0x8, addend: 0x0, symName: __RNvMNtCsieiGu2EXtoJ_4core6optionINtB2_6OptionINtNtCslJiobkLta79_5alloc5boxed3BoxNtNtCsfMaSMcsiNJc_15wiggle_generate6config14ErrorConfFieldEE4takeB1k_, symObjAddr: 0x3FB0, symBinAddr: 0x35200, symSize: 0x20 }
  - { offset: 0x9D7C8, size: 0x8, addend: 0x0, symName: __RNvMNtCsieiGu2EXtoJ_4core6optionINtB2_6OptionINtNtCslJiobkLta79_5alloc5boxed3BoxNtNtCsfMaSMcsiNJc_15wiggle_generate6config14ErrorConfFieldEE7is_noneB1k_, symObjAddr: 0x3FD0, symBinAddr: 0x35220, symSize: 0x30 }
  - { offset: 0x9D812, size: 0x8, addend: 0x0, symName: __RNvMNtCsieiGu2EXtoJ_4core6optionINtB2_6OptionINtNtCslJiobkLta79_5alloc5boxed3BoxNtNtCsfMaSMcsiNJc_15wiggle_generate6config14ErrorConfFieldEE7is_someB1k_, symObjAddr: 0x4000, symBinAddr: 0x35250, symSize: 0x30 }
  - { offset: 0x9D858, size: 0x8, addend: 0x0, symName: __RNvMNtCsieiGu2EXtoJ_4core6optionINtB2_6OptionINtNtCslJiobkLta79_5alloc5boxed3BoxNtNtCsfMaSMcsiNJc_15wiggle_generate6config19WasmtimeConfigFieldEE4takeB1k_, symObjAddr: 0x4030, symBinAddr: 0x35280, symSize: 0x20 }
  - { offset: 0x9D8CB, size: 0x8, addend: 0x0, symName: __RNvMNtCsieiGu2EXtoJ_4core6optionINtB2_6OptionINtNtCslJiobkLta79_5alloc5boxed3BoxNtNtCsfMaSMcsiNJc_15wiggle_generate6config19WasmtimeConfigFieldEE7is_noneB1k_, symObjAddr: 0x4050, symBinAddr: 0x352A0, symSize: 0x30 }
  - { offset: 0x9D915, size: 0x8, addend: 0x0, symName: __RNvMNtCsieiGu2EXtoJ_4core6optionINtB2_6OptionINtNtCslJiobkLta79_5alloc5boxed3BoxNtNtCsfMaSMcsiNJc_15wiggle_generate6config19WasmtimeConfigFieldEE7is_someB1k_, symObjAddr: 0x4080, symBinAddr: 0x352D0, symSize: 0x30 }
  - { offset: 0x9D941, size: 0x8, addend: 0x0, symName: __RNvMNtCsieiGu2EXtoJ_4core6optionINtB2_6OptionNtCsaKzlTDPUHDb_11proc_macro24SpanE2orCsfMaSMcsiNJc_15wiggle_generate, symObjAddr: 0x40B0, symBinAddr: 0x35300, symSize: 0x60 }
  - { offset: 0x9D9C3, size: 0x8, addend: 0x0, symName: __RNvMNtCsieiGu2EXtoJ_4core6optionINtB2_6OptionNtNtCs8QreBtO1sIU_4witx3ast7IntReprE7is_noneCsfMaSMcsiNJc_15wiggle_generate, symObjAddr: 0x4110, symBinAddr: 0x35360, symSize: 0x30 }
  - { offset: 0x9DA1A, size: 0x8, addend: 0x0, symName: __RNvMNtCsieiGu2EXtoJ_4core6optionINtB2_6OptionNtNtCsdGrGZaRBwMb_3syn4path4PathE4takeCsfMaSMcsiNJc_15wiggle_generate, symObjAddr: 0x4140, symBinAddr: 0x35390, symSize: 0x50 }
  - { offset: 0x9DA71, size: 0x8, addend: 0x0, symName: __RNvMNtCsieiGu2EXtoJ_4core6optionINtB2_6OptionNtNtCsdGrGZaRBwMb_3syn4path4PathE7is_someCsfMaSMcsiNJc_15wiggle_generate, symObjAddr: 0x4190, symBinAddr: 0x353E0, symSize: 0x30 }
  - { offset: 0x9DA9D, size: 0x8, addend: 0x0, symName: __RNvMNtCsieiGu2EXtoJ_4core6optionINtB2_6OptionNtNtCsfMaSMcsiNJc_15wiggle_generate6config11TracingConfE17unwrap_or_defaultBL_, symObjAddr: 0x41C0, symBinAddr: 0x35410, symSize: 0x70 }
  - { offset: 0x9DAF5, size: 0x8, addend: 0x0, symName: __RNvMNtCsieiGu2EXtoJ_4core6optionINtB2_6OptionNtNtCsfMaSMcsiNJc_15wiggle_generate6config11TracingConfE7is_someBL_, symObjAddr: 0x4230, symBinAddr: 0x35480, symSize: 0x30 }
  - { offset: 0x9DB2E, size: 0x8, addend: 0x0, symName: __RNvMNtCsieiGu2EXtoJ_4core6optionINtB2_6OptionNtNtCsfMaSMcsiNJc_15wiggle_generate6config8WitxConfE4takeBL_, symObjAddr: 0x4260, symBinAddr: 0x354B0, symSize: 0x60 }
  - { offset: 0x9DB85, size: 0x8, addend: 0x0, symName: __RNvMNtCsieiGu2EXtoJ_4core6optionINtB2_6OptionNtNtCsfMaSMcsiNJc_15wiggle_generate6config8WitxConfE7is_someBL_, symObjAddr: 0x42C0, symBinAddr: 0x35510, symSize: 0x30 }
  - { offset: 0x9DBB1, size: 0x8, addend: 0x0, symName: __RNvMNtCsieiGu2EXtoJ_4core6optionINtB2_6OptionNtNtCsfMaSMcsiNJc_15wiggle_generate6config9AsyncConfE17unwrap_or_defaultBL_, symObjAddr: 0x42F0, symBinAddr: 0x35540, symSize: 0x70 }
  - { offset: 0x9DC0A, size: 0x8, addend: 0x0, symName: __RNvMNtCsieiGu2EXtoJ_4core6optionINtB2_6OptionNtNtCsfMaSMcsiNJc_15wiggle_generate6config9AsyncConfE4takeBL_, symObjAddr: 0x4360, symBinAddr: 0x355B0, symSize: 0x50 }
  - { offset: 0x9DC61, size: 0x8, addend: 0x0, symName: __RNvMNtCsieiGu2EXtoJ_4core6optionINtB2_6OptionNtNtCsfMaSMcsiNJc_15wiggle_generate6config9AsyncConfE7is_someBL_, symObjAddr: 0x43B0, symBinAddr: 0x35600, symSize: 0x30 }
  - { offset: 0x9DC8D, size: 0x8, addend: 0x0, symName: __RNvMNtCsieiGu2EXtoJ_4core6optionINtB2_6OptionNtNtCsfMaSMcsiNJc_15wiggle_generate6config9ErrorConfE17unwrap_or_defaultBL_, symObjAddr: 0x43E0, symBinAddr: 0x35630, symSize: 0x70 }
  - { offset: 0x9DCE5, size: 0x8, addend: 0x0, symName: __RNvMNtCsieiGu2EXtoJ_4core6optionINtB2_6OptionNtNtCsfMaSMcsiNJc_15wiggle_generate6config9ErrorConfE4takeBL_, symObjAddr: 0x4450, symBinAddr: 0x356A0, symSize: 0x50 }
  - { offset: 0x9DD3C, size: 0x8, addend: 0x0, symName: __RNvMNtCsieiGu2EXtoJ_4core6optionINtB2_6OptionNtNtCsfMaSMcsiNJc_15wiggle_generate6config9ErrorConfE7is_someBL_, symObjAddr: 0x44A0, symBinAddr: 0x356F0, symSize: 0x30 }
  - { offset: 0x9DD9E, size: 0x8, addend: 0x0, symName: __RNvMNtCsieiGu2EXtoJ_4core6optionINtB2_6OptionRNtNtCsdGrGZaRBwMb_3syn4path4PathE7is_noneCsfMaSMcsiNJc_15wiggle_generate, symObjAddr: 0x44D0, symBinAddr: 0x35720, symSize: 0x30 }
  - { offset: 0x9DE11, size: 0x8, addend: 0x0, symName: __RNvMNtCsieiGu2EXtoJ_4core6optionINtB2_6OptionRNtNtCslJiobkLta79_5alloc6string6StringE7is_noneCsfMaSMcsiNJc_15wiggle_generate, symObjAddr: 0x4500, symBinAddr: 0x35750, symSize: 0x30 }
  - { offset: 0x9DE5B, size: 0x8, addend: 0x0, symName: __RNvMNtCsieiGu2EXtoJ_4core6optionINtB2_6OptionRNtNtCslJiobkLta79_5alloc6string6StringE7is_someCsfMaSMcsiNJc_15wiggle_generate, symObjAddr: 0x4530, symBinAddr: 0x35780, symSize: 0x30 }
  - { offset: 0x9DE94, size: 0x8, addend: 0x0, symName: __RNvMNtCsieiGu2EXtoJ_4core6optionINtB2_6OptionbE7is_someCsfMaSMcsiNJc_15wiggle_generate, symObjAddr: 0x4560, symBinAddr: 0x357B0, symSize: 0x30 }
  - { offset: 0x9DEC0, size: 0x8, addend: 0x0, symName: __RNvMNtCsieiGu2EXtoJ_4core6optionINtB2_6OptionbE9unwrap_orCsfMaSMcsiNJc_15wiggle_generate, symObjAddr: 0x4590, symBinAddr: 0x357E0, symSize: 0x50 }
  - { offset: 0x9DF97, size: 0x8, addend: 0x0, symName: __RNvMNtCslJiobkLta79_5alloc6stringNtB2_6String13with_capacityCsfMaSMcsiNJc_15wiggle_generate, symObjAddr: 0x45E0, symBinAddr: 0x35830, symSize: 0x70 }
  - { offset: 0x9E1C7, size: 0x8, addend: 0x0, symName: __RNvMNtCslJiobkLta79_5alloc6stringNtB2_6String4pushCsfMaSMcsiNJc_15wiggle_generate, symObjAddr: 0x4650, symBinAddr: 0x358A0, symSize: 0x130 }
  - { offset: 0x9E4CC, size: 0x8, addend: 0x0, symName: __RNvMNtCslJiobkLta79_5alloc6stringNtB2_6String6as_strCsfMaSMcsiNJc_15wiggle_generate, symObjAddr: 0x4780, symBinAddr: 0x359D0, symSize: 0x60 }
  - { offset: 0x9E69A, size: 0x8, addend: 0x0, symName: __RNvMNtCslJiobkLta79_5alloc6stringNtB2_6String8push_strCsfMaSMcsiNJc_15wiggle_generate, symObjAddr: 0x47E0, symBinAddr: 0x35A30, symSize: 0x50 }
  - { offset: 0x9E92A, size: 0x8, addend: 0x0, symName: __RNvXNtCs9OU1sGv5X54_5quote14ident_fragmentRNtNtCslJiobkLta79_5alloc6string6StringNtB2_13IdentFragment3fmtCsfMaSMcsiNJc_15wiggle_generate, symObjAddr: 0x4950, symBinAddr: 0x35BA0, symSize: 0x30 }
  - { offset: 0x9E96D, size: 0x8, addend: 0x0, symName: __RNvXNtCs9OU1sGv5X54_5quote14ident_fragmentRNtNtCslJiobkLta79_5alloc6string6StringNtB2_13IdentFragment4spanCsfMaSMcsiNJc_15wiggle_generate, symObjAddr: 0x4980, symBinAddr: 0x35BD0, symSize: 0x30 }
  - { offset: 0x9E9A8, size: 0x8, addend: 0x0, symName: __RNvYNtNtCslJiobkLta79_5alloc6string6StringNtNtCs9OU1sGv5X54_5quote14ident_fragment13IdentFragment4spanCsfMaSMcsiNJc_15wiggle_generate, symObjAddr: 0x5EE0, symBinAddr: 0x37100, symSize: 0x20 }
  - { offset: 0xA034B, size: 0x8, addend: 0x0, symName: __RINvMs9_NtCsdGrGZaRBwMb_3syn5parseNtB6_11ParseBuffer16parse_terminatedNtCsaKzlTDPUHDb_11proc_macro25IdentINvNtB8_5token5CommaNtNtB8_9lookahead11TokenMarkerEECsfMaSMcsiNJc_15wiggle_generate, symObjAddr: 0x0, symBinAddr: 0x37200, symSize: 0x30 }
  - { offset: 0xA0AA5, size: 0x8, addend: 0x0, symName: __RINvNtCs8QreBtO1sIU_4witx8toplevel10parse_witxNtNtCsHUR1vrdMJt_3std4path7PathBufECsfMaSMcsiNJc_15wiggle_generate, symObjAddr: 0x1740, symBinAddr: 0x38940, symSize: 0xD0 }
  - { offset: 0xA0AF4, size: 0x8, addend: 0x0, symName: __RNCINvNtCs8QreBtO1sIU_4witx8toplevel10parse_witxNtNtCsHUR1vrdMJt_3std4path7PathBufE0CsfMaSMcsiNJc_15wiggle_generate, symObjAddr: 0x1870, symBinAddr: 0x38A70, symSize: 0x30 }
  - { offset: 0xA0B46, size: 0x8, addend: 0x0, symName: __RNvXs3_NtCs8QreBtO1sIU_4witx8validateNtB5_15ValidationErrorNtNtCsieiGu2EXtoJ_4core3fmt5Debug3fmtCsfMaSMcsiNJc_15wiggle_generate, symObjAddr: 0x7310, symBinAddr: 0x3E510, symSize: 0x6D0 }
  - { offset: 0xA1351, size: 0x8, addend: 0x0, symName: __RNvXs2_CskbcJ0WOUxlj_4wastNtB5_5ErrorNtNtCsieiGu2EXtoJ_4core3fmt5Debug3fmtCsfMaSMcsiNJc_15wiggle_generate, symObjAddr: 0x72A0, symBinAddr: 0x3E4A0, symSize: 0x60 }
  - { offset: 0xA545D, size: 0x8, addend: 0x0, symName: __RNvXs19_NtCsieiGu2EXtoJ_4core3fmtRNtCskbcJ0WOUxlj_4wast5ErrorNtB6_5Debug3fmtCsfMaSMcsiNJc_15wiggle_generate, symObjAddr: 0x7250, symBinAddr: 0x3E450, symSize: 0x20 }
  - { offset: 0xA54A3, size: 0x8, addend: 0x0, symName: __RNvXs19_NtCsieiGu2EXtoJ_4core3fmtRNtNtCs8QreBtO1sIU_4witx8validate15ValidationErrorNtB6_5Debug3fmtCsfMaSMcsiNJc_15wiggle_generate, symObjAddr: 0x7270, symBinAddr: 0x3E470, symSize: 0x20 }
  - { offset: 0xA54FF, size: 0x8, addend: 0x0, symName: __RINvYINtNtNtNtCsieiGu2EXtoJ_4core4iter8adapters6cloned6ClonedINtNtCsdGrGZaRBwMb_3syn10punctuated4IterNtCsaKzlTDPUHDb_11proc_macro25IdentEENtNtNtBa_6traits8iterator8Iterator7collectINtNtCslJiobkLta79_5alloc3vec3VecB1B_EECsfMaSMcsiNJc_15wiggle_generate, symObjAddr: 0x1810, symBinAddr: 0x38A10, symSize: 0x60 }
  - { offset: 0xA55A0, size: 0x8, addend: 0x0, symName: __RNvXNtNtNtCsieiGu2EXtoJ_4core4iter6traits7collectINtNtNtB6_8adapters6cloned6ClonedINtNtCsdGrGZaRBwMb_3syn10punctuated4IterNtCsaKzlTDPUHDb_11proc_macro25IdentEENtB2_12IntoIterator9into_iterCsfMaSMcsiNJc_15wiggle_generate, symObjAddr: 0x7230, symBinAddr: 0x3E430, symSize: 0x20 }
  - { offset: 0xA55E9, size: 0x8, addend: 0x0, symName: __RNvXs_NtNtNtCsieiGu2EXtoJ_4core4iter8adapters6clonedINtB4_6ClonedINtNtCsdGrGZaRBwMb_3syn10punctuated4IterNtCsaKzlTDPUHDb_11proc_macro25IdentEENtNtNtB8_6traits8iterator8Iterator4nextCsfMaSMcsiNJc_15wiggle_generate, symObjAddr: 0x7A50, symBinAddr: 0x3EC50, symSize: 0x90 }
  - { offset: 0xA565E, size: 0x8, addend: 0x0, symName: __RNvXs_NtNtNtCsieiGu2EXtoJ_4core4iter8adapters6clonedINtB4_6ClonedINtNtCsdGrGZaRBwMb_3syn10punctuated4IterNtCsaKzlTDPUHDb_11proc_macro25IdentEENtNtNtB8_6traits8iterator8Iterator9size_hintCsfMaSMcsiNJc_15wiggle_generate, symObjAddr: 0x7AE0, symBinAddr: 0x3ECE0, symSize: 0x30 }
  - { offset: 0xA6356, size: 0x8, addend: 0x0, symName: __RNvXs_NtCslJiobkLta79_5alloc5allocNtB4_6GlobalNtNtCsieiGu2EXtoJ_4core5alloc9Allocator10deallocateCsfMaSMcsiNJc_15wiggle_generate, symObjAddr: 0x79E0, symBinAddr: 0x3EBE0, symSize: 0x70 }
  - { offset: 0xA641F, size: 0x8, addend: 0x0, symName: __RNvNtCslJiobkLta79_5alloc5alloc15exchange_mallocCsfMaSMcsiNJc_15wiggle_generate, symObjAddr: 0x34C0, symBinAddr: 0x3A6C0, symSize: 0xA0 }
  - { offset: 0xA64BB, size: 0x8, addend: 0x0, symName: __RNvXs1_NtCslJiobkLta79_5alloc5allocNtB5_6GlobalNtNtCsieiGu2EXtoJ_4core5clone5Clone5cloneCsfMaSMcsiNJc_15wiggle_generate, symObjAddr: 0x7290, symBinAddr: 0x3E490, symSize: 0x10 }
  - { offset: 0xA64E9, size: 0x8, addend: 0x0, symName: __RNvXs2_NtCslJiobkLta79_5alloc5allocNtB5_6GlobalNtNtCsieiGu2EXtoJ_4core7default7Default7defaultCsfMaSMcsiNJc_15wiggle_generate, symObjAddr: 0x7300, symBinAddr: 0x3E500, symSize: 0x10 }
  - { offset: 0xAD666, size: 0x8, addend: 0x0, symName: __RINvMs9_NtCsdGrGZaRBwMb_3syn5parseNtB6_11ParseBuffer16parse_terminatedNtCsaKzlTDPUHDb_11proc_macro25IdentINvNtB8_5token5CommaNtNtB8_9lookahead11TokenMarkerEECsfMaSMcsiNJc_15wiggle_generate, symObjAddr: 0x0, symBinAddr: 0x37200, symSize: 0x30 }
  - { offset: 0xAD709, size: 0x8, addend: 0x0, symName: __RINvMs9_NtCsdGrGZaRBwMb_3syn5parseNtB6_11ParseBuffer16parse_terminatedNtNtB8_3lit6LitStrINvNtB8_5token5CommaNtNtB8_9lookahead11TokenMarkerEECsfMaSMcsiNJc_15wiggle_generate, symObjAddr: 0x30, symBinAddr: 0x37230, symSize: 0x30 }
  - { offset: 0xADC26, size: 0x8, addend: 0x0, symName: __RNCNvNtNtCsfMaSMcsiNJc_15wiggle_generate5types7variant14define_variant0B7_, symObjAddr: 0x18A0, symBinAddr: 0x38AA0, symSize: 0x280 }
  - { offset: 0xADCE6, size: 0x8, addend: 0x0, symName: __RNCNvNtNtCsfMaSMcsiNJc_15wiggle_generate5types7variant14define_variants0_0B7_, symObjAddr: 0x1B20, symBinAddr: 0x38D20, symSize: 0xA10 }
  - { offset: 0xADE9A, size: 0x8, addend: 0x0, symName: __RNCNvNtNtCsfMaSMcsiNJc_15wiggle_generate5types7variant14define_variants1_0B7_, symObjAddr: 0x2530, symBinAddr: 0x39730, symSize: 0x30 }
  - { offset: 0xADED0, size: 0x8, addend: 0x0, symName: __RNCNvNtNtCsfMaSMcsiNJc_15wiggle_generate5types7variant14define_variants2_0B7_, symObjAddr: 0x2560, symBinAddr: 0x39760, symSize: 0x210 }
  - { offset: 0xADF85, size: 0x8, addend: 0x0, symName: __RNCNvNtNtCsfMaSMcsiNJc_15wiggle_generate5types7variant14define_variants3_0B7_, symObjAddr: 0x2770, symBinAddr: 0x39970, symSize: 0x30 }
  - { offset: 0xADFBB, size: 0x8, addend: 0x0, symName: __RNCNvNtNtCsfMaSMcsiNJc_15wiggle_generate5types7variant14define_variants4_0B7_, symObjAddr: 0x27A0, symBinAddr: 0x399A0, symSize: 0x180 }
  - { offset: 0xAE05A, size: 0x8, addend: 0x0, symName: __RNCNvNtNtCsfMaSMcsiNJc_15wiggle_generate5types7variant14define_variants_0B7_, symObjAddr: 0x2920, symBinAddr: 0x39B20, symSize: 0x910 }
  - { offset: 0xAE289, size: 0x8, addend: 0x0, symName: __RNvNtNtCsfMaSMcsiNJc_15wiggle_generate5types7variant14define_variant, symObjAddr: 0x3560, symBinAddr: 0x3A760, symSize: 0x3CD0 }
  - { offset: 0xAF2E3, size: 0x8, addend: 0x0, symName: __RINvMs9_NtCsdGrGZaRBwMb_3syn5parseNtB6_11ParseBuffer16parse_terminatedNtNtCsfMaSMcsiNJc_15wiggle_generate6config11ConfigFieldINvNtB8_5token5CommaNtNtB8_9lookahead11TokenMarkerEEB1a_, symObjAddr: 0x60, symBinAddr: 0x37260, symSize: 0x30 }
  - { offset: 0xAF379, size: 0x8, addend: 0x0, symName: __RINvMs9_NtCsdGrGZaRBwMb_3syn5parseNtB6_11ParseBuffer16parse_terminatedNtNtCsfMaSMcsiNJc_15wiggle_generate6config13FunctionFieldINvNtB8_5token5CommaNtNtB8_9lookahead11TokenMarkerEEB1a_, symObjAddr: 0x90, symBinAddr: 0x37290, symSize: 0x30 }
  - { offset: 0xAF40F, size: 0x8, addend: 0x0, symName: __RINvMs9_NtCsdGrGZaRBwMb_3syn5parseNtB6_11ParseBuffer16parse_terminatedNtNtCsfMaSMcsiNJc_15wiggle_generate6config14ErrorConfFieldINvNtB8_5token5CommaNtNtB8_9lookahead11TokenMarkerEEB1a_, symObjAddr: 0xC0, symBinAddr: 0x372C0, symSize: 0x30 }
  - { offset: 0xAF4A5, size: 0x8, addend: 0x0, symName: __RINvMs9_NtCsdGrGZaRBwMb_3syn5parseNtB6_11ParseBuffer16parse_terminatedNtNtCsfMaSMcsiNJc_15wiggle_generate6config19WasmtimeConfigFieldINvNtB8_5token5CommaNtNtB8_9lookahead11TokenMarkerEEB1a_, symObjAddr: 0xF0, symBinAddr: 0x372F0, symSize: 0x30 }
  - { offset: 0xAF510, size: 0x8, addend: 0x0, symName: __RINvMs9_NtCsdGrGZaRBwMb_3syn5parseNtB6_11ParseBuffer4peekINvNtNtCsfMaSMcsiNJc_15wiggle_generate6config2kw6targetNtNtB8_9lookahead11TokenMarkerEEB10_, symObjAddr: 0x120, symBinAddr: 0x37320, symSize: 0x30 }
  - { offset: 0xAF54B, size: 0x8, addend: 0x0, symName: __RINvMs9_NtCsdGrGZaRBwMb_3syn5parseNtB6_11ParseBuffer4stepNCNvXs0_NvNtNtCsfMaSMcsiNJc_15wiggle_generate6config2kw1__NtB13_4witxNtB6_5Parse5parse0B1P_EB17_, symObjAddr: 0x150, symBinAddr: 0x37350, symSize: 0x1E0 }
  - { offset: 0xAF5D4, size: 0x8, addend: 0x0, symName: __RINvMs9_NtCsdGrGZaRBwMb_3syn5parseNtB6_11ParseBuffer4stepNCNvXs0_NvNtNtCsfMaSMcsiNJc_15wiggle_generate6config2kws0_1__NtB13_8block_onNtB6_5Parse5parse0B1S_EB17_, symObjAddr: 0x330, symBinAddr: 0x37530, symSize: 0x1E0 }
  - { offset: 0xAF65D, size: 0x8, addend: 0x0, symName: __RINvMs9_NtCsdGrGZaRBwMb_3syn5parseNtB6_11ParseBuffer4stepNCNvXs0_NvNtNtCsfMaSMcsiNJc_15wiggle_generate6config2kws1_1__NtB13_6errorsNtB6_5Parse5parse0B1S_EB17_, symObjAddr: 0x510, symBinAddr: 0x37710, symSize: 0x1E0 }
  - { offset: 0xAF6E6, size: 0x8, addend: 0x0, symName: __RINvMs9_NtCsdGrGZaRBwMb_3syn5parseNtB6_11ParseBuffer4stepNCNvXs0_NvNtNtCsfMaSMcsiNJc_15wiggle_generate6config2kws2_1__NtB13_6targetNtB6_5Parse5parse0B1S_EB17_, symObjAddr: 0x6F0, symBinAddr: 0x378F0, symSize: 0x1E0 }
  - { offset: 0xAF76F, size: 0x8, addend: 0x0, symName: __RINvMs9_NtCsdGrGZaRBwMb_3syn5parseNtB6_11ParseBuffer4stepNCNvXs0_NvNtNtCsfMaSMcsiNJc_15wiggle_generate6config2kws3_1__NtB13_8wasmtimeNtB6_5Parse5parse0B1S_EB17_, symObjAddr: 0x8D0, symBinAddr: 0x37AD0, symSize: 0x1E0 }
  - { offset: 0xAF7F8, size: 0x8, addend: 0x0, symName: __RINvMs9_NtCsdGrGZaRBwMb_3syn5parseNtB6_11ParseBuffer4stepNCNvXs0_NvNtNtCsfMaSMcsiNJc_15wiggle_generate6config2kws4_1__NtB13_7mutableNtB6_5Parse5parse0B1S_EB17_, symObjAddr: 0xAB0, symBinAddr: 0x37CB0, symSize: 0x1E0 }
  - { offset: 0xAF881, size: 0x8, addend: 0x0, symName: __RINvMs9_NtCsdGrGZaRBwMb_3syn5parseNtB6_11ParseBuffer4stepNCNvXs0_NvNtNtCsfMaSMcsiNJc_15wiggle_generate6config2kws5_1__NtB13_7tracingNtB6_5Parse5parse0B1S_EB17_, symObjAddr: 0xC90, symBinAddr: 0x37E90, symSize: 0x1E0 }
  - { offset: 0xAF90A, size: 0x8, addend: 0x0, symName: __RINvMs9_NtCsdGrGZaRBwMb_3syn5parseNtB6_11ParseBuffer4stepNCNvXs0_NvNtNtCsfMaSMcsiNJc_15wiggle_generate6config2kws6_1__NtB13_11disable_forNtB6_5Parse5parse0B1S_EB17_, symObjAddr: 0xE70, symBinAddr: 0x38070, symSize: 0x1E0 }
  - { offset: 0xAF993, size: 0x8, addend: 0x0, symName: __RINvMs9_NtCsdGrGZaRBwMb_3syn5parseNtB6_11ParseBuffer4stepNCNvXs0_NvNtNtCsfMaSMcsiNJc_15wiggle_generate6config2kws7_1__NtB13_9trappableNtB6_5Parse5parse0B1S_EB17_, symObjAddr: 0x1050, symBinAddr: 0x38250, symSize: 0x1E0 }
  - { offset: 0xAFA1C, size: 0x8, addend: 0x0, symName: __RINvMs9_NtCsdGrGZaRBwMb_3syn5parseNtB6_11ParseBuffer4stepNCNvXs0_NvNtNtCsfMaSMcsiNJc_15wiggle_generate6config2kws_1__NtB13_12witx_literalNtB6_5Parse5parse0B1R_EB17_, symObjAddr: 0x1230, symBinAddr: 0x38430, symSize: 0x1E0 }
  - { offset: 0xAFAA5, size: 0x8, addend: 0x0, symName: __RINvMs9_NtCsdGrGZaRBwMb_3syn5parseNtB6_11ParseBuffer5parseNtNtB8_3lit7LitBoolECsfMaSMcsiNJc_15wiggle_generate, symObjAddr: 0x1410, symBinAddr: 0x38610, symSize: 0x30 }
  - { offset: 0xAFAD1, size: 0x8, addend: 0x0, symName: __RINvMs9_NtCsdGrGZaRBwMb_3syn5parseNtB6_11ParseBuffer5parseNtNtCsfMaSMcsiNJc_15wiggle_generate6config11ConfigFieldEBY_, symObjAddr: 0x1440, symBinAddr: 0x38640, symSize: 0x30 }
  - { offset: 0xAFAFD, size: 0x8, addend: 0x0, symName: __RINvMs9_NtCsdGrGZaRBwMb_3syn5parseNtB6_11ParseBuffer5parseNtNtCsfMaSMcsiNJc_15wiggle_generate6config11TracingConfEBY_, symObjAddr: 0x1470, symBinAddr: 0x38670, symSize: 0x30 }
  - { offset: 0xAFB29, size: 0x8, addend: 0x0, symName: __RINvMs9_NtCsdGrGZaRBwMb_3syn5parseNtB6_11ParseBuffer5parseNtNtCsfMaSMcsiNJc_15wiggle_generate6config14AsyncFunctionsEBY_, symObjAddr: 0x14A0, symBinAddr: 0x386A0, symSize: 0x30 }
  - { offset: 0xAFB55, size: 0x8, addend: 0x0, symName: __RINvMs9_NtCsdGrGZaRBwMb_3syn5parseNtB6_11ParseBuffer5parseNtNtCsfMaSMcsiNJc_15wiggle_generate6config5PathsEBY_, symObjAddr: 0x14D0, symBinAddr: 0x386D0, symSize: 0x30 }
  - { offset: 0xAFB81, size: 0x8, addend: 0x0, symName: __RINvMs9_NtCsdGrGZaRBwMb_3syn5parseNtB6_11ParseBuffer5parseNtNtCsfMaSMcsiNJc_15wiggle_generate6config7LiteralEBY_, symObjAddr: 0x1500, symBinAddr: 0x38700, symSize: 0x30 }
  - { offset: 0xAFBAD, size: 0x8, addend: 0x0, symName: __RINvMs9_NtCsdGrGZaRBwMb_3syn5parseNtB6_11ParseBuffer5parseNtNtCsfMaSMcsiNJc_15wiggle_generate6config9ErrorConfEBY_, symObjAddr: 0x1530, symBinAddr: 0x38730, symSize: 0x30 }
  - { offset: 0xAFBD9, size: 0x8, addend: 0x0, symName: __RINvMs9_NtCsdGrGZaRBwMb_3syn5parseNtB6_11ParseBuffer5parseNtNtNtCsfMaSMcsiNJc_15wiggle_generate6config2kw11disable_forEB10_, symObjAddr: 0x1560, symBinAddr: 0x38760, symSize: 0x30 }
  - { offset: 0xAFC05, size: 0x8, addend: 0x0, symName: __RINvMs9_NtCsdGrGZaRBwMb_3syn5parseNtB6_11ParseBuffer5parseNtNtNtCsfMaSMcsiNJc_15wiggle_generate6config2kw12witx_literalEB10_, symObjAddr: 0x1590, symBinAddr: 0x38790, symSize: 0x30 }
  - { offset: 0xAFC31, size: 0x8, addend: 0x0, symName: __RINvMs9_NtCsdGrGZaRBwMb_3syn5parseNtB6_11ParseBuffer5parseNtNtNtCsfMaSMcsiNJc_15wiggle_generate6config2kw4witxEB10_, symObjAddr: 0x15C0, symBinAddr: 0x387C0, symSize: 0x30 }
  - { offset: 0xAFC5D, size: 0x8, addend: 0x0, symName: __RINvMs9_NtCsdGrGZaRBwMb_3syn5parseNtB6_11ParseBuffer5parseNtNtNtCsfMaSMcsiNJc_15wiggle_generate6config2kw6errorsEB10_, symObjAddr: 0x15F0, symBinAddr: 0x387F0, symSize: 0x30 }
  - { offset: 0xAFC89, size: 0x8, addend: 0x0, symName: __RINvMs9_NtCsdGrGZaRBwMb_3syn5parseNtB6_11ParseBuffer5parseNtNtNtCsfMaSMcsiNJc_15wiggle_generate6config2kw6targetEB10_, symObjAddr: 0x1620, symBinAddr: 0x38820, symSize: 0x30 }
  - { offset: 0xAFCB5, size: 0x8, addend: 0x0, symName: __RINvMs9_NtCsdGrGZaRBwMb_3syn5parseNtB6_11ParseBuffer5parseNtNtNtCsfMaSMcsiNJc_15wiggle_generate6config2kw7mutableEB10_, symObjAddr: 0x1650, symBinAddr: 0x38850, symSize: 0x30 }
  - { offset: 0xAFCE1, size: 0x8, addend: 0x0, symName: __RINvMs9_NtCsdGrGZaRBwMb_3syn5parseNtB6_11ParseBuffer5parseNtNtNtCsfMaSMcsiNJc_15wiggle_generate6config2kw7tracingEB10_, symObjAddr: 0x1680, symBinAddr: 0x38880, symSize: 0x30 }
  - { offset: 0xAFD0D, size: 0x8, addend: 0x0, symName: __RINvMs9_NtCsdGrGZaRBwMb_3syn5parseNtB6_11ParseBuffer5parseNtNtNtCsfMaSMcsiNJc_15wiggle_generate6config2kw8block_onEB10_, symObjAddr: 0x16B0, symBinAddr: 0x388B0, symSize: 0x30 }
  - { offset: 0xAFD39, size: 0x8, addend: 0x0, symName: __RINvMs9_NtCsdGrGZaRBwMb_3syn5parseNtB6_11ParseBuffer5parseNtNtNtCsfMaSMcsiNJc_15wiggle_generate6config2kw8wasmtimeEB10_, symObjAddr: 0x16E0, symBinAddr: 0x388E0, symSize: 0x30 }
  - { offset: 0xAFD65, size: 0x8, addend: 0x0, symName: __RINvMs9_NtCsdGrGZaRBwMb_3syn5parseNtB6_11ParseBuffer5parseNtNtNtCsfMaSMcsiNJc_15wiggle_generate6config2kw9trappableEB10_, symObjAddr: 0x1710, symBinAddr: 0x38910, symSize: 0x30 }
  - { offset: 0xB0096, size: 0x8, addend: 0x0, symName: __RNvMNtCslJiobkLta79_5alloc5allocNtB2_6Global10alloc_implCsfMaSMcsiNJc_15wiggle_generate, symObjAddr: 0x3230, symBinAddr: 0x3A430, symSize: 0x290 }
  - { offset: 0xB07B9, size: 0x8, addend: 0x0, symName: __RINvMNtCsdGrGZaRBwMb_3syn9lookaheadNtB3_10Lookahead14peekINvNtNtCsfMaSMcsiNJc_15wiggle_generate6config2kw11disable_forNtB3_11TokenMarkerEEB10_, symObjAddr: 0x0, symBinAddr: 0x3ED10, symSize: 0x30 }
  - { offset: 0xB0BF6, size: 0x8, addend: 0x0, symName: __RNCNCNvXsx_NtCsdGrGZaRBwMb_3syn10punctuatedINtB9_11PrivateIterNtCsaKzlTDPUHDb_11proc_macro25IdentNtNtBb_5token5CommaENtNtNtNtCsieiGu2EXtoJ_4core4iter6traits12double_ended19DoubleEndedIterator9next_back00CsfMaSMcsiNJc_15wiggle_generate, symObjAddr: 0x790, symBinAddr: 0x3F4A0, symSize: 0x10 }
  - { offset: 0xB0C41, size: 0x8, addend: 0x0, symName: __RNCNCNvXsx_NtCsdGrGZaRBwMb_3syn10punctuatedINtB9_11PrivateIterNtNtBb_3lit6LitStrNtNtBb_5token5CommaENtNtNtNtCsieiGu2EXtoJ_4core4iter6traits12double_ended19DoubleEndedIterator9next_back00CsfMaSMcsiNJc_15wiggle_generate, symObjAddr: 0x7A0, symBinAddr: 0x3F4B0, symSize: 0x10 }
  - { offset: 0xB0C9B, size: 0x8, addend: 0x0, symName: __RNCNvXsx_NtCsdGrGZaRBwMb_3syn10punctuatedINtB7_11PrivateIterNtCsaKzlTDPUHDb_11proc_macro25IdentNtNtB9_5token5CommaENtNtNtNtCsieiGu2EXtoJ_4core4iter6traits12double_ended19DoubleEndedIterator9next_back0CsfMaSMcsiNJc_15wiggle_generate, symObjAddr: 0x8C0, symBinAddr: 0x3F5A0, symSize: 0x30 }
  - { offset: 0xB0CDD, size: 0x8, addend: 0x0, symName: __RNCNvXsx_NtCsdGrGZaRBwMb_3syn10punctuatedINtB7_11PrivateIterNtNtB9_3lit6LitStrNtNtB9_5token5CommaENtNtNtNtCsieiGu2EXtoJ_4core4iter6traits12double_ended19DoubleEndedIterator9next_back0CsfMaSMcsiNJc_15wiggle_generate, symObjAddr: 0x8F0, symBinAddr: 0x3F5D0, symSize: 0x30 }
  - { offset: 0xB0D20, size: 0x8, addend: 0x0, symName: __RNvXsx_NtCsdGrGZaRBwMb_3syn10punctuatedINtB5_11PrivateIterNtCsaKzlTDPUHDb_11proc_macro25IdentNtNtB7_5token5CommaENtNtNtNtCsieiGu2EXtoJ_4core4iter6traits12double_ended19DoubleEndedIterator9next_backCsfMaSMcsiNJc_15wiggle_generate, symObjAddr: 0x5CE0, symBinAddr: 0x449C0, symSize: 0x40 }
  - { offset: 0xB0D60, size: 0x8, addend: 0x0, symName: __RNvXsx_NtCsdGrGZaRBwMb_3syn10punctuatedINtB5_11PrivateIterNtNtB7_3lit6LitStrNtNtB7_5token5CommaENtNtNtNtCsieiGu2EXtoJ_4core4iter6traits12double_ended19DoubleEndedIterator9next_backCsfMaSMcsiNJc_15wiggle_generate, symObjAddr: 0x5D20, symBinAddr: 0x44A00, symSize: 0x40 }
  - { offset: 0xB0DAB, size: 0x8, addend: 0x0, symName: __RNCNvXsw_NtCsdGrGZaRBwMb_3syn10punctuatedINtB7_11PrivateIterNtCsaKzlTDPUHDb_11proc_macro25IdentNtNtB9_5token5CommaENtNtNtNtCsieiGu2EXtoJ_4core4iter6traits8iterator8Iterator4next0CsfMaSMcsiNJc_15wiggle_generate, symObjAddr: 0x860, symBinAddr: 0x3F540, symSize: 0x10 }
  - { offset: 0xB0DF6, size: 0x8, addend: 0x0, symName: __RNCNvXsw_NtCsdGrGZaRBwMb_3syn10punctuatedINtB7_11PrivateIterNtCsaKzlTDPUHDb_11proc_macro25IdentNtNtB9_5token5CommaENtNtNtNtCsieiGu2EXtoJ_4core4iter6traits8iterator8Iterator4nexts_0CsfMaSMcsiNJc_15wiggle_generate, symObjAddr: 0x870, symBinAddr: 0x3F550, symSize: 0x20 }
  - { offset: 0xB0E38, size: 0x8, addend: 0x0, symName: __RNCNvXsw_NtCsdGrGZaRBwMb_3syn10punctuatedINtB7_11PrivateIterNtNtB9_3lit6LitStrNtNtB9_5token5CommaENtNtNtNtCsieiGu2EXtoJ_4core4iter6traits8iterator8Iterator4next0CsfMaSMcsiNJc_15wiggle_generate, symObjAddr: 0x890, symBinAddr: 0x3F570, symSize: 0x10 }
  - { offset: 0xB0E83, size: 0x8, addend: 0x0, symName: __RNCNvXsw_NtCsdGrGZaRBwMb_3syn10punctuatedINtB7_11PrivateIterNtNtB9_3lit6LitStrNtNtB9_5token5CommaENtNtNtNtCsieiGu2EXtoJ_4core4iter6traits8iterator8Iterator4nexts_0CsfMaSMcsiNJc_15wiggle_generate, symObjAddr: 0x8A0, symBinAddr: 0x3F580, symSize: 0x20 }
  - { offset: 0xB0ED4, size: 0x8, addend: 0x0, symName: __RNvXsw_NtCsdGrGZaRBwMb_3syn10punctuatedINtB5_11PrivateIterNtCsaKzlTDPUHDb_11proc_macro25IdentNtNtB7_5token5CommaENtNtNtNtCsieiGu2EXtoJ_4core4iter6traits8iterator8Iterator4nextCsfMaSMcsiNJc_15wiggle_generate, symObjAddr: 0x5C60, symBinAddr: 0x44940, symSize: 0x40 }
  - { offset: 0xB0F14, size: 0x8, addend: 0x0, symName: __RNvXsw_NtCsdGrGZaRBwMb_3syn10punctuatedINtB5_11PrivateIterNtNtB7_3lit6LitStrNtNtB7_5token5CommaENtNtNtNtCsieiGu2EXtoJ_4core4iter6traits8iterator8Iterator4nextCsfMaSMcsiNJc_15wiggle_generate, symObjAddr: 0x5CA0, symBinAddr: 0x44980, symSize: 0x40 }
  - { offset: 0xB1656, size: 0x8, addend: 0x0, symName: __RNvXs8_NtCsdGrGZaRBwMb_3syn10punctuatedINtB5_10PunctuatedNtNtCsfMaSMcsiNJc_15wiggle_generate6config11ConfigFieldNtNtB7_5token5CommaENtNtNtNtCsieiGu2EXtoJ_4core4iter6traits7collect12IntoIterator9into_iterBX_, symObjAddr: 0x44E0, symBinAddr: 0x431C0, symSize: 0x410 }
  - { offset: 0xB16FC, size: 0x8, addend: 0x0, symName: __RNvXs8_NtCsdGrGZaRBwMb_3syn10punctuatedINtB5_10PunctuatedNtNtCsfMaSMcsiNJc_15wiggle_generate6config13FunctionFieldNtNtB7_5token5CommaENtNtNtNtCsieiGu2EXtoJ_4core4iter6traits7collect12IntoIterator9into_iterBX_, symObjAddr: 0x48F0, symBinAddr: 0x435D0, symSize: 0x480 }
  - { offset: 0xB17A2, size: 0x8, addend: 0x0, symName: __RNvXs8_NtCsdGrGZaRBwMb_3syn10punctuatedINtB5_10PunctuatedNtNtCsfMaSMcsiNJc_15wiggle_generate6config14ErrorConfFieldNtNtB7_5token5CommaENtNtNtNtCsieiGu2EXtoJ_4core4iter6traits7collect12IntoIterator9into_iterBX_, symObjAddr: 0x4D70, symBinAddr: 0x43A50, symSize: 0x410 }
  - { offset: 0xB1848, size: 0x8, addend: 0x0, symName: __RNvXs8_NtCsdGrGZaRBwMb_3syn10punctuatedINtB5_10PunctuatedNtNtCsfMaSMcsiNJc_15wiggle_generate6config19WasmtimeConfigFieldNtNtB7_5token5CommaENtNtNtNtCsieiGu2EXtoJ_4core4iter6traits7collect12IntoIterator9into_iterBX_, symObjAddr: 0x5180, symBinAddr: 0x43E60, symSize: 0x410 }
  - { offset: 0xB18F4, size: 0x8, addend: 0x0, symName: __RNvXsA_NtCsdGrGZaRBwMb_3syn10punctuatedINtB5_11PrivateIterNtCsaKzlTDPUHDb_11proc_macro25IdentNtNtB7_5token5CommaEINtB5_9IterTraitBU_E9clone_boxCsfMaSMcsiNJc_15wiggle_generate, symObjAddr: 0x5590, symBinAddr: 0x44270, symSize: 0x90 }
  - { offset: 0xB1953, size: 0x8, addend: 0x0, symName: __RNvXsA_NtCsdGrGZaRBwMb_3syn10punctuatedINtB5_11PrivateIterNtNtB7_3lit6LitStrNtNtB7_5token5CommaEINtB5_9IterTraitBU_E9clone_boxCsfMaSMcsiNJc_15wiggle_generate, symObjAddr: 0x5620, symBinAddr: 0x44300, symSize: 0x90 }
  - { offset: 0xB19B8, size: 0x8, addend: 0x0, symName: __RNvXsn_NtCsdGrGZaRBwMb_3syn10punctuatedINtB5_8IntoIterNtNtCsfMaSMcsiNJc_15wiggle_generate6config11ConfigFieldENtNtNtNtCsieiGu2EXtoJ_4core4iter6traits8iterator8Iterator4nextBU_, symObjAddr: 0x5A20, symBinAddr: 0x44700, symSize: 0x30 }
  - { offset: 0xB19EF, size: 0x8, addend: 0x0, symName: __RNvXsn_NtCsdGrGZaRBwMb_3syn10punctuatedINtB5_8IntoIterNtNtCsfMaSMcsiNJc_15wiggle_generate6config13FunctionFieldENtNtNtNtCsieiGu2EXtoJ_4core4iter6traits8iterator8Iterator4nextBU_, symObjAddr: 0x5A50, symBinAddr: 0x44730, symSize: 0x30 }
  - { offset: 0xB1A26, size: 0x8, addend: 0x0, symName: __RNvXsn_NtCsdGrGZaRBwMb_3syn10punctuatedINtB5_8IntoIterNtNtCsfMaSMcsiNJc_15wiggle_generate6config14ErrorConfFieldENtNtNtNtCsieiGu2EXtoJ_4core4iter6traits8iterator8Iterator4nextBU_, symObjAddr: 0x5A80, symBinAddr: 0x44760, symSize: 0x30 }
  - { offset: 0xB1A5D, size: 0x8, addend: 0x0, symName: __RNvXsn_NtCsdGrGZaRBwMb_3syn10punctuatedINtB5_8IntoIterNtNtCsfMaSMcsiNJc_15wiggle_generate6config19WasmtimeConfigFieldENtNtNtNtCsieiGu2EXtoJ_4core4iter6traits8iterator8Iterator4nextBU_, symObjAddr: 0x5AB0, symBinAddr: 0x44790, symSize: 0x30 }
  - { offset: 0xB1A9A, size: 0x8, addend: 0x0, symName: __RNvXst_NtCsdGrGZaRBwMb_3syn10punctuatedINtB5_4IterNtCsaKzlTDPUHDb_11proc_macro25IdentENtNtNtNtCsieiGu2EXtoJ_4core4iter6traits8iterator8Iterator4nextCsfMaSMcsiNJc_15wiggle_generate, symObjAddr: 0x5AE0, symBinAddr: 0x447C0, symSize: 0x30 }
  - { offset: 0xB1AD1, size: 0x8, addend: 0x0, symName: __RNvXst_NtCsdGrGZaRBwMb_3syn10punctuatedINtB5_4IterNtCsaKzlTDPUHDb_11proc_macro25IdentENtNtNtNtCsieiGu2EXtoJ_4core4iter6traits8iterator8Iterator9size_hintCsfMaSMcsiNJc_15wiggle_generate, symObjAddr: 0x5B10, symBinAddr: 0x447F0, symSize: 0x60 }
  - { offset: 0xB1B08, size: 0x8, addend: 0x0, symName: __RNvXst_NtCsdGrGZaRBwMb_3syn10punctuatedINtB5_4IterNtNtB7_3lit6LitStrENtNtNtNtCsieiGu2EXtoJ_4core4iter6traits8iterator8Iterator4nextCsfMaSMcsiNJc_15wiggle_generate, symObjAddr: 0x5B70, symBinAddr: 0x44850, symSize: 0x30 }
  - { offset: 0xB1B3F, size: 0x8, addend: 0x0, symName: __RNvXst_NtCsdGrGZaRBwMb_3syn10punctuatedINtB5_4IterNtNtB7_3lit6LitStrENtNtNtNtCsieiGu2EXtoJ_4core4iter6traits8iterator8Iterator9size_hintCsfMaSMcsiNJc_15wiggle_generate, symObjAddr: 0x5BA0, symBinAddr: 0x44880, symSize: 0x60 }
  - { offset: 0xB1B7C, size: 0x8, addend: 0x0, symName: __RNvXsv_NtCsdGrGZaRBwMb_3syn10punctuatedINtB5_4IterNtCsaKzlTDPUHDb_11proc_macro25IdentENtNtNtNtCsieiGu2EXtoJ_4core4iter6traits10exact_size17ExactSizeIterator3lenCsfMaSMcsiNJc_15wiggle_generate, symObjAddr: 0x5C00, symBinAddr: 0x448E0, symSize: 0x30 }
  - { offset: 0xB1BB3, size: 0x8, addend: 0x0, symName: __RNvXsv_NtCsdGrGZaRBwMb_3syn10punctuatedINtB5_4IterNtNtB7_3lit6LitStrENtNtNtNtCsieiGu2EXtoJ_4core4iter6traits10exact_size17ExactSizeIterator3lenCsfMaSMcsiNJc_15wiggle_generate, symObjAddr: 0x5C30, symBinAddr: 0x44910, symSize: 0x30 }
  - { offset: 0xB1BF0, size: 0x8, addend: 0x0, symName: __RNvXsy_NtCsdGrGZaRBwMb_3syn10punctuatedINtB5_11PrivateIterNtCsaKzlTDPUHDb_11proc_macro25IdentNtNtB7_5token5CommaENtNtNtNtCsieiGu2EXtoJ_4core4iter6traits10exact_size17ExactSizeIterator3lenCsfMaSMcsiNJc_15wiggle_generate, symObjAddr: 0x5D60, symBinAddr: 0x44A40, symSize: 0x80 }
  - { offset: 0xB1C68, size: 0x8, addend: 0x0, symName: __RNvXsy_NtCsdGrGZaRBwMb_3syn10punctuatedINtB5_11PrivateIterNtNtB7_3lit6LitStrNtNtB7_5token5CommaENtNtNtNtCsieiGu2EXtoJ_4core4iter6traits10exact_size17ExactSizeIterator3lenCsfMaSMcsiNJc_15wiggle_generate, symObjAddr: 0x5DE0, symBinAddr: 0x44AC0, symSize: 0x80 }
  - { offset: 0xB1CE6, size: 0x8, addend: 0x0, symName: __RNvXsz_NtCsdGrGZaRBwMb_3syn10punctuatedINtB5_11PrivateIterNtCsaKzlTDPUHDb_11proc_macro25IdentNtNtB7_5token5CommaENtNtCsieiGu2EXtoJ_4core5clone5Clone5cloneCsfMaSMcsiNJc_15wiggle_generate, symObjAddr: 0x5EA0, symBinAddr: 0x44B80, symSize: 0x70 }
  - { offset: 0xB1D26, size: 0x8, addend: 0x0, symName: __RNvXsz_NtCsdGrGZaRBwMb_3syn10punctuatedINtB5_11PrivateIterNtNtB7_3lit6LitStrNtNtB7_5token5CommaENtNtCsieiGu2EXtoJ_4core5clone5Clone5cloneCsfMaSMcsiNJc_15wiggle_generate, symObjAddr: 0x5F10, symBinAddr: 0x44BF0, symSize: 0x70 }
  - { offset: 0xB82A2, size: 0x8, addend: 0x0, symName: __RNvMNtCsieiGu2EXtoJ_4core5sliceSTNtNtCsdGrGZaRBwMb_3syn3lit6LitStrNtNtBz_5token5CommaE4iterCsfMaSMcsiNJc_15wiggle_generate, symObjAddr: 0x3C80, symBinAddr: 0x42960, symSize: 0x20 }
  - { offset: 0xBAFD0, size: 0x8, addend: 0x0, symName: __RINvYINtNtCsdGrGZaRBwMb_3syn10punctuated11PrivateIterNtCsaKzlTDPUHDb_11proc_macro25IdentNtNtB8_5token5CommaENtNtNtNtCsieiGu2EXtoJ_4core4iter6traits8iterator8Iterator8try_foldINtNtNtB1Q_3num7nonzero7NonZerojENCNvXs_NvB1I_10advance_byB3_NtB3q_13SpecAdvanceBy15spec_advance_by0INtNtB1Q_6option6OptionB2M_EECsfMaSMcsiNJc_15wiggle_generate, symObjAddr: 0x210, symBinAddr: 0x3EF20, symSize: 0x130 }
  - { offset: 0xBB084, size: 0x8, addend: 0x0, symName: __RINvYINtNtCsdGrGZaRBwMb_3syn10punctuated11PrivateIterNtNtB8_3lit6LitStrNtNtB8_5token5CommaENtNtNtNtCsieiGu2EXtoJ_4core4iter6traits8iterator8Iterator8try_foldINtNtNtB1z_3num7nonzero7NonZerojENCNvXs_NvB1r_10advance_byB3_NtB39_13SpecAdvanceBy15spec_advance_by0INtNtB1z_6option6OptionB2v_EECsfMaSMcsiNJc_15wiggle_generate, symObjAddr: 0x340, symBinAddr: 0x3F050, symSize: 0x130 }
  - { offset: 0xBB138, size: 0x8, addend: 0x0, symName: __RINvYINtNtCsdGrGZaRBwMb_3syn10punctuated4IterNtCsaKzlTDPUHDb_11proc_macro25IdentENtNtNtNtCsieiGu2EXtoJ_4core4iter6traits8iterator8Iterator6clonedBH_ECsfMaSMcsiNJc_15wiggle_generate, symObjAddr: 0x470, symBinAddr: 0x3F180, symSize: 0x20 }
  - { offset: 0xBB178, size: 0x8, addend: 0x0, symName: __RINvYINtNtCsdGrGZaRBwMb_3syn10punctuated4IterNtNtB8_3lit6LitStrENtNtNtNtCsieiGu2EXtoJ_4core4iter6traits8iterator8Iterator3mapNtNtCsHUR1vrdMJt_3std4path7PathBufNCNvXs7_NtCsfMaSMcsiNJc_15wiggle_generate6configNtB2F_5PathsNtNtB8_5parse5Parse5parse0EB2H_, symObjAddr: 0x490, symBinAddr: 0x3F1A0, symSize: 0x20 }
  - { offset: 0xBB1D0, size: 0x8, addend: 0x0, symName: __RINvYINtNtNtNtCsHUR1vrdMJt_3std11collections4hash3map4IterNtCsaKzlTDPUHDb_11proc_macro25IdentNtNtCsfMaSMcsiNJc_15wiggle_generate6config14ErrorConfFieldENtNtNtNtCsieiGu2EXtoJ_4core4iter6traits8iterator8Iterator3mapINtNtB2y_6result6ResultNtNtB1x_16codegen_settings9ErrorTypeNtCs5LsBMV3VaIp_6anyhow5ErrorENCNvMs_B3O_NtB3O_14ErrorTransform3new0EB1x_, symObjAddr: 0x4B0, symBinAddr: 0x3F1C0, symSize: 0x50 }
  - { offset: 0xBB23E, size: 0x8, addend: 0x0, symName: __RINvYINtNtNtNtCsHUR1vrdMJt_3std11collections4hash3map4IterNtCsaKzlTDPUHDb_11proc_macro25IdentNtNtCsfMaSMcsiNJc_15wiggle_generate6config14ErrorConfFieldENtNtNtNtCsieiGu2EXtoJ_4core4iter6traits8iterator8Iterator8try_folduNCINvNtNtB2w_8adapters3map12map_try_foldTRBU_RB1t_EINtNtB2y_6result6ResultNtNtB1x_16codegen_settings9ErrorTypeNtCs5LsBMV3VaIp_6anyhow5ErrorEuINtNtNtB2y_3ops12control_flow11ControlFlowIB5N_B4H_EENCNvMs_B4J_NtB4J_14ErrorTransform3new0NCINvXB3C_INtB3C_12GenericShuntINtB3A_3MapB3_B6D_EIB4l_NtNtB2y_7convert10InfallibleB5h_EEB2q_8try_folduNCINvNvB2q_12try_for_each4callB4H_B6s_NcNtB6s_5Break0E0B6s_E0E0B5M_EB1x_, symObjAddr: 0x500, symBinAddr: 0x3F210, symSize: 0x180 }
  - { offset: 0xBB2FA, size: 0x8, addend: 0x0, symName: __RINvYINtNtNtNtCsieiGu2EXtoJ_4core4iter8adapters9enumerate9EnumerateINtNtNtBc_5slice4iter4IterNtNtCs8QreBtO1sIU_4witx3ast4CaseEENtNtNtBa_6traits8iterator8Iterator3mapNtCsaKzlTDPUHDb_11proc_macro211TokenStreamNCNvNtNtCsfMaSMcsiNJc_15wiggle_generate5types7variant14define_variants0_0EB3r_, symObjAddr: 0x680, symBinAddr: 0x3F390, symSize: 0x40 }
  - { offset: 0xBB367, size: 0x8, addend: 0x0, symName: __RINvYINtNtNtNtCsieiGu2EXtoJ_4core4iter8adapters9enumerate9EnumerateINtNtNtBc_5slice4iter4IterNtNtCs8QreBtO1sIU_4witx3ast4CaseEENtNtNtBa_6traits8iterator8Iterator3mapNtCsaKzlTDPUHDb_11proc_macro211TokenStreamNCNvNtNtCsfMaSMcsiNJc_15wiggle_generate5types7variant14define_variants2_0EB3r_, symObjAddr: 0x6C0, symBinAddr: 0x3F3D0, symSize: 0x30 }
  - { offset: 0xBB3D4, size: 0x8, addend: 0x0, symName: __RINvYINtNtNtNtCsieiGu2EXtoJ_4core4iter8adapters9enumerate9EnumerateINtNtNtBc_5slice4iter4IterNtNtCs8QreBtO1sIU_4witx3ast4CaseEENtNtNtBa_6traits8iterator8Iterator3mapNtCsaKzlTDPUHDb_11proc_macro211TokenStreamNCNvNtNtCsfMaSMcsiNJc_15wiggle_generate5types7variant14define_variants4_0EB3r_, symObjAddr: 0x6F0, symBinAddr: 0x3F400, symSize: 0x30 }
  - { offset: 0xBB441, size: 0x8, addend: 0x0, symName: __RINvYINtNtNtNtCsieiGu2EXtoJ_4core4iter8adapters9enumerate9EnumerateINtNtNtBc_5slice4iter4IterNtNtCs8QreBtO1sIU_4witx3ast4CaseEENtNtNtBa_6traits8iterator8Iterator3mapNtCsaKzlTDPUHDb_11proc_macro211TokenStreamNCNvNtNtCsfMaSMcsiNJc_15wiggle_generate5types7variant14define_variants_0EB3r_, symObjAddr: 0x720, symBinAddr: 0x3F430, symSize: 0x40 }
  - { offset: 0xBB4B8, size: 0x8, addend: 0x0, symName: __RNvXs_NvNtNtNtNtCsieiGu2EXtoJ_4core4iter6traits8iterator8Iterator10advance_byINtNtCsdGrGZaRBwMb_3syn10punctuated11PrivateIterNtCsaKzlTDPUHDb_11proc_macro25IdentNtNtB1i_5token5CommaENtB4_13SpecAdvanceBy15spec_advance_byCsfMaSMcsiNJc_15wiggle_generate, symObjAddr: 0x5900, symBinAddr: 0x445E0, symSize: 0x90 }
  - { offset: 0xBB566, size: 0x8, addend: 0x0, symName: __RNvXs_NvNtNtNtNtCsieiGu2EXtoJ_4core4iter6traits8iterator8Iterator10advance_byINtNtCsdGrGZaRBwMb_3syn10punctuated11PrivateIterNtNtB1i_3lit6LitStrNtNtB1i_5token5CommaENtB4_13SpecAdvanceBy15spec_advance_byCsfMaSMcsiNJc_15wiggle_generate, symObjAddr: 0x5990, symBinAddr: 0x44670, symSize: 0x90 }
  - { offset: 0xBB62A, size: 0x8, addend: 0x0, symName: __RNvYINtNtCsdGrGZaRBwMb_3syn10punctuated11PrivateIterNtCsaKzlTDPUHDb_11proc_macro25IdentNtNtB7_5token5CommaENtNtNtNtCsieiGu2EXtoJ_4core4iter6traits8iterator8Iterator10advance_byCsfMaSMcsiNJc_15wiggle_generate, symObjAddr: 0x61B0, symBinAddr: 0x44E90, symSize: 0x20 }
  - { offset: 0xBB670, size: 0x8, addend: 0x0, symName: __RNvYINtNtCsdGrGZaRBwMb_3syn10punctuated11PrivateIterNtCsaKzlTDPUHDb_11proc_macro25IdentNtNtB7_5token5CommaENtNtNtNtCsieiGu2EXtoJ_4core4iter6traits8iterator8Iterator3nthCsfMaSMcsiNJc_15wiggle_generate, symObjAddr: 0x61D0, symBinAddr: 0x44EB0, symSize: 0x80 }
  - { offset: 0xBB740, size: 0x8, addend: 0x0, symName: __RNvYINtNtCsdGrGZaRBwMb_3syn10punctuated11PrivateIterNtCsaKzlTDPUHDb_11proc_macro25IdentNtNtB7_5token5CommaENtNtNtNtCsieiGu2EXtoJ_4core4iter6traits8iterator8Iterator9size_hintCsfMaSMcsiNJc_15wiggle_generate, symObjAddr: 0x6250, symBinAddr: 0x44F30, symSize: 0x30 }
  - { offset: 0xBB775, size: 0x8, addend: 0x0, symName: __RNvYINtNtCsdGrGZaRBwMb_3syn10punctuated11PrivateIterNtNtB7_3lit6LitStrNtNtB7_5token5CommaENtNtNtNtCsieiGu2EXtoJ_4core4iter6traits8iterator8Iterator10advance_byCsfMaSMcsiNJc_15wiggle_generate, symObjAddr: 0x64B0, symBinAddr: 0x45190, symSize: 0x20 }
  - { offset: 0xBB7BB, size: 0x8, addend: 0x0, symName: __RNvYINtNtCsdGrGZaRBwMb_3syn10punctuated11PrivateIterNtNtB7_3lit6LitStrNtNtB7_5token5CommaENtNtNtNtCsieiGu2EXtoJ_4core4iter6traits8iterator8Iterator3nthCsfMaSMcsiNJc_15wiggle_generate, symObjAddr: 0x64D0, symBinAddr: 0x451B0, symSize: 0x80 }
  - { offset: 0xBB88B, size: 0x8, addend: 0x0, symName: __RNvYINtNtCsdGrGZaRBwMb_3syn10punctuated11PrivateIterNtNtB7_3lit6LitStrNtNtB7_5token5CommaENtNtNtNtCsieiGu2EXtoJ_4core4iter6traits8iterator8Iterator9size_hintCsfMaSMcsiNJc_15wiggle_generate, symObjAddr: 0x6550, symBinAddr: 0x45230, symSize: 0x30 }
  - { offset: 0xBB8C0, size: 0x8, addend: 0x0, symName: __RNvYINtNtNtNtCsieiGu2EXtoJ_4core4iter8adapters9enumerate9EnumerateINtNtNtBb_5slice4iter4IterNtNtCs8QreBtO1sIU_4witx3ast12RecordMemberEENtNtNtB9_6traits8iterator8Iterator3revCsfMaSMcsiNJc_15wiggle_generate, symObjAddr: 0x6580, symBinAddr: 0x45260, symSize: 0x20 }
  - { offset: 0xBB937, size: 0x8, addend: 0x0, symName: __RNvXNtNtNtCsieiGu2EXtoJ_4core4iter6traits7collectINtNtCsdGrGZaRBwMb_3syn10punctuated8IntoIterNtNtCsfMaSMcsiNJc_15wiggle_generate6config11ConfigFieldENtB2_12IntoIterator9into_iterB1x_, symObjAddr: 0x4210, symBinAddr: 0x42EF0, symSize: 0x30 }
  - { offset: 0xBB96E, size: 0x8, addend: 0x0, symName: __RNvXNtNtNtCsieiGu2EXtoJ_4core4iter6traits7collectINtNtCsdGrGZaRBwMb_3syn10punctuated8IntoIterNtNtCsfMaSMcsiNJc_15wiggle_generate6config19WasmtimeConfigFieldENtB2_12IntoIterator9into_iterB1x_, symObjAddr: 0x4240, symBinAddr: 0x42F20, symSize: 0x30 }
  - { offset: 0xBB9A5, size: 0x8, addend: 0x0, symName: __RNvXNtNtNtCsieiGu2EXtoJ_4core4iter6traits7collectINtNtNtB6_8adapters9enumerate9EnumerateINtNtNtB8_5slice4iter4IterNtNtCs8QreBtO1sIU_4witx3ast18InterfaceFuncParamEENtB2_12IntoIterator9into_iterCsfMaSMcsiNJc_15wiggle_generate, symObjAddr: 0x4270, symBinAddr: 0x42F50, symSize: 0x20 }
  - { offset: 0xBB9E8, size: 0x8, addend: 0x0, symName: __RNvYINtNtCsdGrGZaRBwMb_3syn10punctuated11PrivateIterNtCsaKzlTDPUHDb_11proc_macro25IdentNtNtB7_5token5CommaENtNtNtNtCsieiGu2EXtoJ_4core4iter6traits10exact_size17ExactSizeIterator8is_emptyCsfMaSMcsiNJc_15wiggle_generate, symObjAddr: 0x5F80, symBinAddr: 0x44C60, symSize: 0x20 }
  - { offset: 0xBBA1D, size: 0x8, addend: 0x0, symName: __RNvYINtNtCsdGrGZaRBwMb_3syn10punctuated11PrivateIterNtNtB7_3lit6LitStrNtNtB7_5token5CommaENtNtNtNtCsieiGu2EXtoJ_4core4iter6traits10exact_size17ExactSizeIterator8is_emptyCsfMaSMcsiNJc_15wiggle_generate, symObjAddr: 0x6280, symBinAddr: 0x44F60, symSize: 0x20 }
  - { offset: 0xBBA5E, size: 0x8, addend: 0x0, symName: __RNvYINtNtCsdGrGZaRBwMb_3syn10punctuated11PrivateIterNtCsaKzlTDPUHDb_11proc_macro25IdentNtNtB7_5token5CommaENtNtNtNtCsieiGu2EXtoJ_4core4iter6traits12double_ended19DoubleEndedIterator15advance_back_byCsfMaSMcsiNJc_15wiggle_generate, symObjAddr: 0x5FA0, symBinAddr: 0x44C80, symSize: 0x1A0 }
  - { offset: 0xBBBDD, size: 0x8, addend: 0x0, symName: __RNvYINtNtCsdGrGZaRBwMb_3syn10punctuated11PrivateIterNtCsaKzlTDPUHDb_11proc_macro25IdentNtNtB7_5token5CommaENtNtNtNtCsieiGu2EXtoJ_4core4iter6traits12double_ended19DoubleEndedIterator8nth_backCsfMaSMcsiNJc_15wiggle_generate, symObjAddr: 0x6140, symBinAddr: 0x44E20, symSize: 0x70 }
  - { offset: 0xBBC5B, size: 0x8, addend: 0x0, symName: __RNvYINtNtCsdGrGZaRBwMb_3syn10punctuated11PrivateIterNtNtB7_3lit6LitStrNtNtB7_5token5CommaENtNtNtNtCsieiGu2EXtoJ_4core4iter6traits12double_ended19DoubleEndedIterator15advance_back_byCsfMaSMcsiNJc_15wiggle_generate, symObjAddr: 0x62A0, symBinAddr: 0x44F80, symSize: 0x1A0 }
  - { offset: 0xBBDDA, size: 0x8, addend: 0x0, symName: __RNvYINtNtCsdGrGZaRBwMb_3syn10punctuated11PrivateIterNtNtB7_3lit6LitStrNtNtB7_5token5CommaENtNtNtNtCsieiGu2EXtoJ_4core4iter6traits12double_ended19DoubleEndedIterator8nth_backCsfMaSMcsiNJc_15wiggle_generate, symObjAddr: 0x6440, symBinAddr: 0x45120, symSize: 0x70 }
  - { offset: 0xBC0CC, size: 0x8, addend: 0x0, symName: __RNvXs0_NtNtNtCsieiGu2EXtoJ_4core4iter8adapters9enumerateINtB5_9EnumerateINtNtNtBb_5slice4iter4IterNtNtCs8QreBtO1sIU_4witx3ast12RecordMemberEENtNtNtB9_6traits12double_ended19DoubleEndedIterator9next_backCsfMaSMcsiNJc_15wiggle_generate, symObjAddr: 0x4290, symBinAddr: 0x42F70, symSize: 0xF0 }
  - { offset: 0xBC1FA, size: 0x8, addend: 0x0, symName: __RNvXs_NtNtNtCsieiGu2EXtoJ_4core4iter8adapters9enumerateINtB4_9EnumerateINtNtNtBa_5slice4iter4IterNtNtCs8QreBtO1sIU_4witx3ast18InterfaceFuncParamEENtNtNtB8_6traits8iterator8Iterator4nextCsfMaSMcsiNJc_15wiggle_generate, symObjAddr: 0x5740, symBinAddr: 0x44420, symSize: 0xE0 }
  - { offset: 0xBC2E0, size: 0x8, addend: 0x0, symName: __RNvXs_NtNtNtCsieiGu2EXtoJ_4core4iter8adapters9enumerateINtB4_9EnumerateINtNtNtBa_5slice4iter4IterNtNtCslJiobkLta79_5alloc6string6StringEENtNtNtB8_6traits8iterator8Iterator4nextCsfMaSMcsiNJc_15wiggle_generate, symObjAddr: 0x5820, symBinAddr: 0x44500, symSize: 0xE0 }
  - { offset: 0xBD2AC, size: 0x8, addend: 0x0, symName: __RNvNvXs5_NtNtCsieiGu2EXtoJ_4core3str6traitsINtNtNtBb_3ops5range5RangejEINtNtNtBb_5slice5index10SliceIndexeE13get_unchecked18precondition_checkCsfMaSMcsiNJc_15wiggle_generate, symObjAddr: 0x4120, symBinAddr: 0x42E00, symSize: 0xC0 }
  - { offset: 0xBD329, size: 0x8, addend: 0x0, symName: __RNvXs_NtNtCsieiGu2EXtoJ_4core3str6traitseNtNtB8_3cmp9PartialEq2eqCsfMaSMcsiNJc_15wiggle_generate, symObjAddr: 0x56B0, symBinAddr: 0x44390, symSize: 0x90 }
  - { offset: 0xC058D, size: 0x8, addend: 0x0, symName: __RNCNCNvXs2_NtCsfMaSMcsiNJc_15wiggle_generate9lifetimesNtNtCs8QreBtO1sIU_4witx3ast7VariantNtB9_11LifetimeExt14needs_lifetime00Bb_, symObjAddr: 0x760, symBinAddr: 0x3F470, symSize: 0x30 }
  - { offset: 0xC05CB, size: 0x8, addend: 0x0, symName: __RNCNvXs2_NtCsfMaSMcsiNJc_15wiggle_generate9lifetimesNtNtCs8QreBtO1sIU_4witx3ast7VariantNtB7_11LifetimeExt14needs_lifetime0B9_, symObjAddr: 0x810, symBinAddr: 0x3F4F0, symSize: 0x50 }
  - { offset: 0xC0614, size: 0x8, addend: 0x0, symName: __RNCNvXs1_NtCsfMaSMcsiNJc_15wiggle_generate9lifetimesNtNtCs8QreBtO1sIU_4witx3ast14RecordDatatypeNtB7_11LifetimeExt14needs_lifetime0B9_, symObjAddr: 0x7E0, symBinAddr: 0x3F4C0, symSize: 0x30 }
  - { offset: 0xC0653, size: 0x8, addend: 0x0, symName: __RNvNtCsfMaSMcsiNJc_15wiggle_generate9lifetimes13anon_lifetime, symObjAddr: 0x4090, symBinAddr: 0x42D70, symSize: 0x90 }
  - { offset: 0xC0695, size: 0x8, addend: 0x0, symName: __RINvMNtCsdGrGZaRBwMb_3syn9lookaheadNtB3_10Lookahead14peekINvNtNtCsfMaSMcsiNJc_15wiggle_generate6config2kw11disable_forNtB3_11TokenMarkerEEB10_, symObjAddr: 0x0, symBinAddr: 0x3ED10, symSize: 0x30 }
  - { offset: 0xC06E6, size: 0x8, addend: 0x0, symName: __RINvMNtCsdGrGZaRBwMb_3syn9lookaheadNtB3_10Lookahead14peekINvNtNtCsfMaSMcsiNJc_15wiggle_generate6config2kw12witx_literalNtB3_11TokenMarkerEEB10_, symObjAddr: 0x30, symBinAddr: 0x3ED40, symSize: 0x30 }
  - { offset: 0xC0737, size: 0x8, addend: 0x0, symName: __RINvMNtCsdGrGZaRBwMb_3syn9lookaheadNtB3_10Lookahead14peekINvNtNtCsfMaSMcsiNJc_15wiggle_generate6config2kw4witxNtB3_11TokenMarkerEEB10_, symObjAddr: 0x60, symBinAddr: 0x3ED70, symSize: 0x30 }
  - { offset: 0xC0788, size: 0x8, addend: 0x0, symName: __RINvMNtCsdGrGZaRBwMb_3syn9lookaheadNtB3_10Lookahead14peekINvNtNtCsfMaSMcsiNJc_15wiggle_generate6config2kw6errorsNtB3_11TokenMarkerEEB10_, symObjAddr: 0x90, symBinAddr: 0x3EDA0, symSize: 0x30 }
  - { offset: 0xC07D9, size: 0x8, addend: 0x0, symName: __RINvMNtCsdGrGZaRBwMb_3syn9lookaheadNtB3_10Lookahead14peekINvNtNtCsfMaSMcsiNJc_15wiggle_generate6config2kw7mutableNtB3_11TokenMarkerEEB10_, symObjAddr: 0xC0, symBinAddr: 0x3EDD0, symSize: 0x30 }
  - { offset: 0xC082A, size: 0x8, addend: 0x0, symName: __RINvMNtCsdGrGZaRBwMb_3syn9lookaheadNtB3_10Lookahead14peekINvNtNtCsfMaSMcsiNJc_15wiggle_generate6config2kw7tracingNtB3_11TokenMarkerEEB10_, symObjAddr: 0xF0, symBinAddr: 0x3EE00, symSize: 0x30 }
  - { offset: 0xC087B, size: 0x8, addend: 0x0, symName: __RINvMNtCsdGrGZaRBwMb_3syn9lookaheadNtB3_10Lookahead14peekINvNtNtCsfMaSMcsiNJc_15wiggle_generate6config2kw8block_onNtB3_11TokenMarkerEEB10_, symObjAddr: 0x120, symBinAddr: 0x3EE30, symSize: 0x30 }
  - { offset: 0xC08CC, size: 0x8, addend: 0x0, symName: __RINvMNtCsdGrGZaRBwMb_3syn9lookaheadNtB3_10Lookahead14peekINvNtNtCsfMaSMcsiNJc_15wiggle_generate6config2kw8wasmtimeNtB3_11TokenMarkerEEB10_, symObjAddr: 0x150, symBinAddr: 0x3EE60, symSize: 0x30 }
  - { offset: 0xC091D, size: 0x8, addend: 0x0, symName: __RINvMNtCsdGrGZaRBwMb_3syn9lookaheadNtB3_10Lookahead14peekINvNtNtCsfMaSMcsiNJc_15wiggle_generate6config2kw9trappableNtB3_11TokenMarkerEEB10_, symObjAddr: 0x180, symBinAddr: 0x3EE90, symSize: 0x30 }
  - { offset: 0xC148C, size: 0x8, addend: 0x0, symName: __RNvXs5_NtNtNtCsHUR1vrdMJt_3std11collections4hash3mapINtB5_7HashMapNtCsaKzlTDPUHDb_11proc_macro25IdentNtNtCsfMaSMcsiNJc_15wiggle_generate6config14ErrorConfFieldENtNtCsieiGu2EXtoJ_4core7default7Default7defaultB1F_, symObjAddr: 0x43C0, symBinAddr: 0x430A0, symSize: 0x90 }
  - { offset: 0xC150F, size: 0x8, addend: 0x0, symName: __RNvXs5_NtNtNtCsHUR1vrdMJt_3std11collections4hash3mapINtB5_7HashMapNtNtCslJiobkLta79_5alloc6string6StringINtNtB16_3vec3VecB12_EENtNtCsieiGu2EXtoJ_4core7default7Default7defaultCsfMaSMcsiNJc_15wiggle_generate, symObjAddr: 0x4450, symBinAddr: 0x43130, symSize: 0x90 }
  - { offset: 0xC170F, size: 0x8, addend: 0x0, symName: __RNvXs1_NtNtNtCsHUR1vrdMJt_3std11collections4hash3mapINtB5_7HashMapNtNtCslJiobkLta79_5alloc6string6StringINtNtB16_3vec3VecB12_EENtNtCsieiGu2EXtoJ_4core5clone5Clone5cloneCsfMaSMcsiNJc_15wiggle_generate, symObjAddr: 0x4380, symBinAddr: 0x43060, symSize: 0x40 }
  - { offset: 0xC175E, size: 0x8, addend: 0x0, symName: __RNvXsy_NtNtNtCsHUR1vrdMJt_3std11collections4hash3mapINtB5_4IterNtCsaKzlTDPUHDb_11proc_macro25IdentNtNtCsfMaSMcsiNJc_15wiggle_generate6config14ErrorConfFieldENtNtNtNtCsieiGu2EXtoJ_4core4iter6traits8iterator8Iterator4nextB1C_, symObjAddr: 0x5E60, symBinAddr: 0x44B40, symSize: 0x20 }
  - { offset: 0xC179E, size: 0x8, addend: 0x0, symName: __RNvXsy_NtNtNtCsHUR1vrdMJt_3std11collections4hash3mapINtB5_4IterNtCsaKzlTDPUHDb_11proc_macro25IdentNtNtCsfMaSMcsiNJc_15wiggle_generate6config14ErrorConfFieldENtNtNtNtCsieiGu2EXtoJ_4core4iter6traits8iterator8Iterator9size_hintB1C_, symObjAddr: 0x5E80, symBinAddr: 0x44B60, symSize: 0x20 }
  - { offset: 0xC1C31, size: 0x8, addend: 0x0, symName: __RINvMs0_NtNtNtCsHUR1vrdMJt_3std11collections4hash3mapINtB6_7HashMapNtNtCslJiobkLta79_5alloc6string6StringINtNtB17_3vec3VecB13_EE3geteECsfMaSMcsiNJc_15wiggle_generate, symObjAddr: 0x1B0, symBinAddr: 0x3EEC0, symSize: 0x60 }
  - { offset: 0xC23A2, size: 0x8, addend: 0x0, symName: __RNvMNtCsdGrGZaRBwMb_3syn10punctuatedINtB2_10PunctuatedNtCsaKzlTDPUHDb_11proc_macro25IdentNtNtB4_5token5CommaE10push_punctCsfMaSMcsiNJc_15wiggle_generate, symObjAddr: 0x920, symBinAddr: 0x3F600, symSize: 0x210 }
  - { offset: 0xC2420, size: 0x8, addend: 0x0, symName: __RNvMNtCsdGrGZaRBwMb_3syn10punctuatedINtB2_10PunctuatedNtCsaKzlTDPUHDb_11proc_macro25IdentNtNtB4_5token5CommaE10push_valueCsfMaSMcsiNJc_15wiggle_generate, symObjAddr: 0xB30, symBinAddr: 0x3F810, symSize: 0x1B0 }
  - { offset: 0xC248E, size: 0x8, addend: 0x0, symName: __RNvMNtCsdGrGZaRBwMb_3syn10punctuatedINtB2_10PunctuatedNtCsaKzlTDPUHDb_11proc_macro25IdentNtNtB4_5token5CommaE17empty_or_trailingCsfMaSMcsiNJc_15wiggle_generate, symObjAddr: 0xCE0, symBinAddr: 0x3F9C0, symSize: 0x30 }
  - { offset: 0xC24F4, size: 0x8, addend: 0x0, symName: __RNvMNtCsdGrGZaRBwMb_3syn10punctuatedINtB2_10PunctuatedNtCsaKzlTDPUHDb_11proc_macro25IdentNtNtB4_5token5CommaE21parse_terminated_withCsfMaSMcsiNJc_15wiggle_generate, symObjAddr: 0xD10, symBinAddr: 0x3F9F0, symSize: 0x3A0 }
  - { offset: 0xC25F9, size: 0x8, addend: 0x0, symName: __RNvMNtCsdGrGZaRBwMb_3syn10punctuatedINtB2_10PunctuatedNtCsaKzlTDPUHDb_11proc_macro25IdentNtNtB4_5token5CommaE3newCsfMaSMcsiNJc_15wiggle_generate, symObjAddr: 0x10B0, symBinAddr: 0x3FD90, symSize: 0x50 }
  - { offset: 0xC2674, size: 0x8, addend: 0x0, symName: __RNvMNtCsdGrGZaRBwMb_3syn10punctuatedINtB2_10PunctuatedNtCsaKzlTDPUHDb_11proc_macro25IdentNtNtB4_5token5CommaE4iterCsfMaSMcsiNJc_15wiggle_generate, symObjAddr: 0x1100, symBinAddr: 0x3FDE0, symSize: 0xC0 }
  - { offset: 0xC270B, size: 0x8, addend: 0x0, symName: __RNvMNtCsdGrGZaRBwMb_3syn10punctuatedINtB2_10PunctuatedNtNtB4_3lit6LitStrNtNtB4_5token5CommaE10push_punctCsfMaSMcsiNJc_15wiggle_generate, symObjAddr: 0x11C0, symBinAddr: 0x3FEA0, symSize: 0x1D0 }
  - { offset: 0xC2789, size: 0x8, addend: 0x0, symName: __RNvMNtCsdGrGZaRBwMb_3syn10punctuatedINtB2_10PunctuatedNtNtB4_3lit6LitStrNtNtB4_5token5CommaE10push_valueCsfMaSMcsiNJc_15wiggle_generate, symObjAddr: 0x1390, symBinAddr: 0x40070, symSize: 0x170 }
  - { offset: 0xC27F6, size: 0x8, addend: 0x0, symName: __RNvMNtCsdGrGZaRBwMb_3syn10punctuatedINtB2_10PunctuatedNtNtB4_3lit6LitStrNtNtB4_5token5CommaE17empty_or_trailingCsfMaSMcsiNJc_15wiggle_generate, symObjAddr: 0x1500, symBinAddr: 0x401E0, symSize: 0x30 }
  - { offset: 0xC2842, size: 0x8, addend: 0x0, symName: __RNvMNtCsdGrGZaRBwMb_3syn10punctuatedINtB2_10PunctuatedNtNtB4_3lit6LitStrNtNtB4_5token5CommaE21parse_terminated_withCsfMaSMcsiNJc_15wiggle_generate, symObjAddr: 0x1530, symBinAddr: 0x40210, symSize: 0x350 }
  - { offset: 0xC2946, size: 0x8, addend: 0x0, symName: __RNvMNtCsdGrGZaRBwMb_3syn10punctuatedINtB2_10PunctuatedNtNtB4_3lit6LitStrNtNtB4_5token5CommaE3newCsfMaSMcsiNJc_15wiggle_generate, symObjAddr: 0x1880, symBinAddr: 0x40560, symSize: 0x50 }
  - { offset: 0xC29A7, size: 0x8, addend: 0x0, symName: __RNvMNtCsdGrGZaRBwMb_3syn10punctuatedINtB2_10PunctuatedNtNtB4_3lit6LitStrNtNtB4_5token5CommaE4iterCsfMaSMcsiNJc_15wiggle_generate, symObjAddr: 0x18D0, symBinAddr: 0x405B0, symSize: 0xC0 }
  - { offset: 0xC2A5C, size: 0x8, addend: 0x0, symName: __RNvMNtCsdGrGZaRBwMb_3syn10punctuatedINtB2_10PunctuatedNtNtCsfMaSMcsiNJc_15wiggle_generate6config11ConfigFieldNtNtB4_5token5CommaE10push_punctBU_, symObjAddr: 0x1990, symBinAddr: 0x40670, symSize: 0x230 }
  - { offset: 0xC2ADA, size: 0x8, addend: 0x0, symName: __RNvMNtCsdGrGZaRBwMb_3syn10punctuatedINtB2_10PunctuatedNtNtCsfMaSMcsiNJc_15wiggle_generate6config11ConfigFieldNtNtB4_5token5CommaE10push_valueBU_, symObjAddr: 0x1BC0, symBinAddr: 0x408A0, symSize: 0x1A0 }
  - { offset: 0xC2B48, size: 0x8, addend: 0x0, symName: __RNvMNtCsdGrGZaRBwMb_3syn10punctuatedINtB2_10PunctuatedNtNtCsfMaSMcsiNJc_15wiggle_generate6config11ConfigFieldNtNtB4_5token5CommaE17empty_or_trailingBU_, symObjAddr: 0x1D60, symBinAddr: 0x40A40, symSize: 0x30 }
  - { offset: 0xC2B94, size: 0x8, addend: 0x0, symName: __RNvMNtCsdGrGZaRBwMb_3syn10punctuatedINtB2_10PunctuatedNtNtCsfMaSMcsiNJc_15wiggle_generate6config11ConfigFieldNtNtB4_5token5CommaE21parse_terminated_withBU_, symObjAddr: 0x1D90, symBinAddr: 0x40A70, symSize: 0x3A0 }
  - { offset: 0xC2C99, size: 0x8, addend: 0x0, symName: __RNvMNtCsdGrGZaRBwMb_3syn10punctuatedINtB2_10PunctuatedNtNtCsfMaSMcsiNJc_15wiggle_generate6config11ConfigFieldNtNtB4_5token5CommaE3lenBU_, symObjAddr: 0x2130, symBinAddr: 0x40E10, symSize: 0x80 }
  - { offset: 0xC2CCD, size: 0x8, addend: 0x0, symName: __RNvMNtCsdGrGZaRBwMb_3syn10punctuatedINtB2_10PunctuatedNtNtCsfMaSMcsiNJc_15wiggle_generate6config11ConfigFieldNtNtB4_5token5CommaE3newBU_, symObjAddr: 0x21B0, symBinAddr: 0x40E90, symSize: 0x50 }
  - { offset: 0xC2D56, size: 0x8, addend: 0x0, symName: __RNvMNtCsdGrGZaRBwMb_3syn10punctuatedINtB2_10PunctuatedNtNtCsfMaSMcsiNJc_15wiggle_generate6config13FunctionFieldNtNtB4_5token5CommaE10push_punctBU_, symObjAddr: 0x2200, symBinAddr: 0x40EE0, symSize: 0x270 }
  - { offset: 0xC2DD4, size: 0x8, addend: 0x0, symName: __RNvMNtCsdGrGZaRBwMb_3syn10punctuatedINtB2_10PunctuatedNtNtCsfMaSMcsiNJc_15wiggle_generate6config13FunctionFieldNtNtB4_5token5CommaE10push_valueBU_, symObjAddr: 0x2470, symBinAddr: 0x41150, symSize: 0x1D0 }
  - { offset: 0xC2E42, size: 0x8, addend: 0x0, symName: __RNvMNtCsdGrGZaRBwMb_3syn10punctuatedINtB2_10PunctuatedNtNtCsfMaSMcsiNJc_15wiggle_generate6config13FunctionFieldNtNtB4_5token5CommaE17empty_or_trailingBU_, symObjAddr: 0x2640, symBinAddr: 0x41320, symSize: 0x30 }
  - { offset: 0xC2E8E, size: 0x8, addend: 0x0, symName: __RNvMNtCsdGrGZaRBwMb_3syn10punctuatedINtB2_10PunctuatedNtNtCsfMaSMcsiNJc_15wiggle_generate6config13FunctionFieldNtNtB4_5token5CommaE21parse_terminated_withBU_, symObjAddr: 0x2670, symBinAddr: 0x41350, symSize: 0x460 }
  - { offset: 0xC2F93, size: 0x8, addend: 0x0, symName: __RNvMNtCsdGrGZaRBwMb_3syn10punctuatedINtB2_10PunctuatedNtNtCsfMaSMcsiNJc_15wiggle_generate6config13FunctionFieldNtNtB4_5token5CommaE3lenBU_, symObjAddr: 0x2AD0, symBinAddr: 0x417B0, symSize: 0x80 }
  - { offset: 0xC2FC7, size: 0x8, addend: 0x0, symName: __RNvMNtCsdGrGZaRBwMb_3syn10punctuatedINtB2_10PunctuatedNtNtCsfMaSMcsiNJc_15wiggle_generate6config13FunctionFieldNtNtB4_5token5CommaE3newBU_, symObjAddr: 0x2B50, symBinAddr: 0x41830, symSize: 0x50 }
  - { offset: 0xC3050, size: 0x8, addend: 0x0, symName: __RNvMNtCsdGrGZaRBwMb_3syn10punctuatedINtB2_10PunctuatedNtNtCsfMaSMcsiNJc_15wiggle_generate6config14ErrorConfFieldNtNtB4_5token5CommaE10push_punctBU_, symObjAddr: 0x2BA0, symBinAddr: 0x41880, symSize: 0x230 }
  - { offset: 0xC30CE, size: 0x8, addend: 0x0, symName: __RNvMNtCsdGrGZaRBwMb_3syn10punctuatedINtB2_10PunctuatedNtNtCsfMaSMcsiNJc_15wiggle_generate6config14ErrorConfFieldNtNtB4_5token5CommaE10push_valueBU_, symObjAddr: 0x2DD0, symBinAddr: 0x41AB0, symSize: 0x1A0 }
  - { offset: 0xC313C, size: 0x8, addend: 0x0, symName: __RNvMNtCsdGrGZaRBwMb_3syn10punctuatedINtB2_10PunctuatedNtNtCsfMaSMcsiNJc_15wiggle_generate6config14ErrorConfFieldNtNtB4_5token5CommaE17empty_or_trailingBU_, symObjAddr: 0x2F70, symBinAddr: 0x41C50, symSize: 0x30 }
  - { offset: 0xC3188, size: 0x8, addend: 0x0, symName: __RNvMNtCsdGrGZaRBwMb_3syn10punctuatedINtB2_10PunctuatedNtNtCsfMaSMcsiNJc_15wiggle_generate6config14ErrorConfFieldNtNtB4_5token5CommaE21parse_terminated_withBU_, symObjAddr: 0x2FA0, symBinAddr: 0x41C80, symSize: 0x3A0 }
  - { offset: 0xC328D, size: 0x8, addend: 0x0, symName: __RNvMNtCsdGrGZaRBwMb_3syn10punctuatedINtB2_10PunctuatedNtNtCsfMaSMcsiNJc_15wiggle_generate6config14ErrorConfFieldNtNtB4_5token5CommaE3lenBU_, symObjAddr: 0x3340, symBinAddr: 0x42020, symSize: 0x80 }
  - { offset: 0xC32C1, size: 0x8, addend: 0x0, symName: __RNvMNtCsdGrGZaRBwMb_3syn10punctuatedINtB2_10PunctuatedNtNtCsfMaSMcsiNJc_15wiggle_generate6config14ErrorConfFieldNtNtB4_5token5CommaE3newBU_, symObjAddr: 0x33C0, symBinAddr: 0x420A0, symSize: 0x50 }
  - { offset: 0xC334A, size: 0x8, addend: 0x0, symName: __RNvMNtCsdGrGZaRBwMb_3syn10punctuatedINtB2_10PunctuatedNtNtCsfMaSMcsiNJc_15wiggle_generate6config19WasmtimeConfigFieldNtNtB4_5token5CommaE10push_punctBU_, symObjAddr: 0x3410, symBinAddr: 0x420F0, symSize: 0x230 }
  - { offset: 0xC33C8, size: 0x8, addend: 0x0, symName: __RNvMNtCsdGrGZaRBwMb_3syn10punctuatedINtB2_10PunctuatedNtNtCsfMaSMcsiNJc_15wiggle_generate6config19WasmtimeConfigFieldNtNtB4_5token5CommaE10push_valueBU_, symObjAddr: 0x3640, symBinAddr: 0x42320, symSize: 0x1A0 }
  - { offset: 0xC3436, size: 0x8, addend: 0x0, symName: __RNvMNtCsdGrGZaRBwMb_3syn10punctuatedINtB2_10PunctuatedNtNtCsfMaSMcsiNJc_15wiggle_generate6config19WasmtimeConfigFieldNtNtB4_5token5CommaE17empty_or_trailingBU_, symObjAddr: 0x37E0, symBinAddr: 0x424C0, symSize: 0x30 }
  - { offset: 0xC3482, size: 0x8, addend: 0x0, symName: __RNvMNtCsdGrGZaRBwMb_3syn10punctuatedINtB2_10PunctuatedNtNtCsfMaSMcsiNJc_15wiggle_generate6config19WasmtimeConfigFieldNtNtB4_5token5CommaE21parse_terminated_withBU_, symObjAddr: 0x3810, symBinAddr: 0x424F0, symSize: 0x3A0 }
  - { offset: 0xC3587, size: 0x8, addend: 0x0, symName: __RNvMNtCsdGrGZaRBwMb_3syn10punctuatedINtB2_10PunctuatedNtNtCsfMaSMcsiNJc_15wiggle_generate6config19WasmtimeConfigFieldNtNtB4_5token5CommaE3lenBU_, symObjAddr: 0x3BB0, symBinAddr: 0x42890, symSize: 0x80 }
  - { offset: 0xC35BB, size: 0x8, addend: 0x0, symName: __RNvMNtCsdGrGZaRBwMb_3syn10punctuatedINtB2_10PunctuatedNtNtCsfMaSMcsiNJc_15wiggle_generate6config19WasmtimeConfigFieldNtNtB4_5token5CommaE3newBU_, symObjAddr: 0x3C30, symBinAddr: 0x42910, symSize: 0x50 }
  - { offset: 0xC3647, size: 0x8, addend: 0x0, symName: __RNvMNtNtNtCsHUR1vrdMJt_3std11collections4hash3mapINtB2_7HashMapNtCsaKzlTDPUHDb_11proc_macro25IdentNtB11_4SpanE3newCsfMaSMcsiNJc_15wiggle_generate, symObjAddr: 0x3CA0, symBinAddr: 0x42980, symSize: 0xA0 }
  - { offset: 0xC375C, size: 0x8, addend: 0x0, symName: __RNvMNtNtNtCsHUR1vrdMJt_3std11collections4hash3mapINtB2_7HashMapNtCsaKzlTDPUHDb_11proc_macro25IdentNtNtCsfMaSMcsiNJc_15wiggle_generate6config14ErrorConfFieldE3newB1C_, symObjAddr: 0x3D40, symBinAddr: 0x42A20, symSize: 0xA0 }
  - { offset: 0xC3871, size: 0x8, addend: 0x0, symName: __RNvMNtNtNtCsHUR1vrdMJt_3std11collections4hash3mapINtB2_7HashMapNtNtCslJiobkLta79_5alloc6string6StringINtNtB13_3vec3VecBZ_EE3newCsfMaSMcsiNJc_15wiggle_generate, symObjAddr: 0x3DE0, symBinAddr: 0x42AC0, symSize: 0xA0 }
  - { offset: 0xC3920, size: 0x8, addend: 0x0, symName: __RNvMs0_NtNtNtCsHUR1vrdMJt_3std11collections4hash3mapINtB5_7HashMapNtCsaKzlTDPUHDb_11proc_macro25IdentNtB14_4SpanE6insertCsfMaSMcsiNJc_15wiggle_generate, symObjAddr: 0x3E80, symBinAddr: 0x42B60, symSize: 0x20 }
  - { offset: 0xC398A, size: 0x8, addend: 0x0, symName: __RNvMs0_NtNtNtCsHUR1vrdMJt_3std11collections4hash3mapINtB5_7HashMapNtCsaKzlTDPUHDb_11proc_macro25IdentNtNtCsfMaSMcsiNJc_15wiggle_generate6config14ErrorConfFieldE6insertB1F_, symObjAddr: 0x3EA0, symBinAddr: 0x42B80, symSize: 0x30 }
  - { offset: 0xC3A0F, size: 0x8, addend: 0x0, symName: __RNvMs0_NtNtNtCsHUR1vrdMJt_3std11collections4hash3mapINtB5_7HashMapNtNtCslJiobkLta79_5alloc6string6StringINtNtB16_3vec3VecB12_EE5entryCsfMaSMcsiNJc_15wiggle_generate, symObjAddr: 0x3ED0, symBinAddr: 0x42BB0, symSize: 0xD0 }
  - { offset: 0xC3AD9, size: 0x8, addend: 0x0, symName: __RNvMs10_NtNtCsieiGu2EXtoJ_4core9core_arch3x86NtB6_7___m128i8as_i8x16CsfMaSMcsiNJc_15wiggle_generate, symObjAddr: 0x3FA0, symBinAddr: 0x42C80, symSize: 0x20 }
  - { offset: 0xC3BB2, size: 0x8, addend: 0x0, symName: __RNvMs1a_NtNtNtCsHUR1vrdMJt_3std11collections4hash3mapINtB6_13OccupiedEntryNtNtCslJiobkLta79_5alloc6string6StringINtNtB1e_3vec3VecB1a_EE8into_mutCsfMaSMcsiNJc_15wiggle_generate, symObjAddr: 0x3FC0, symBinAddr: 0x42CA0, symSize: 0x50 }
  - { offset: 0xC3C66, size: 0x8, addend: 0x0, symName: __RNvMs1b_NtNtNtCsHUR1vrdMJt_3std11collections4hash3mapINtB6_11VacantEntryNtNtCslJiobkLta79_5alloc6string6StringINtNtB1c_3vec3VecB18_EE6insertCsfMaSMcsiNJc_15wiggle_generate, symObjAddr: 0x4010, symBinAddr: 0x42CF0, symSize: 0x40 }
  - { offset: 0xC3CB9, size: 0x8, addend: 0x0, symName: __RNvMs_NtNtNtCsHUR1vrdMJt_3std11collections4hash3mapINtB4_7HashMapNtCsaKzlTDPUHDb_11proc_macro25IdentNtNtCsfMaSMcsiNJc_15wiggle_generate6config14ErrorConfFieldE4iterB1E_, symObjAddr: 0x4050, symBinAddr: 0x42D30, symSize: 0x40 }
  - { offset: 0xC3E26, size: 0x8, addend: 0x0, symName: __RNvXNtCs9OU1sGv5X54_5quote9to_tokensRNtNtCsdGrGZaRBwMb_3syn4path4PathNtB2_8ToTokens9to_tokensCsfMaSMcsiNJc_15wiggle_generate, symObjAddr: 0x41E0, symBinAddr: 0x42EC0, symSize: 0x30 }
  - { offset: 0xC47A1, size: 0x8, addend: 0x0, symName: __RINvYINtNtNtCslJiobkLta79_5alloc3vec9into_iter8IntoIterNtNtCs8QreBtO1sIU_4witx6layout18RecordMemberLayoutENtNtNtNtCsieiGu2EXtoJ_4core4iter6traits8iterator8Iterator3mapNtCsaKzlTDPUHDb_11proc_macro211TokenStreamNCNvNtNtCsfMaSMcsiNJc_15wiggle_generate5types6record13define_structs0_0EB3t_, symObjAddr: 0x0, symBinAddr: 0x45280, symSize: 0x30 }
  - { offset: 0xC5679, size: 0x8, addend: 0x0, symName: __RINvYINtNtNtCslJiobkLta79_5alloc3vec9into_iter8IntoIterNtNtCs8QreBtO1sIU_4witx6layout18RecordMemberLayoutENtNtNtNtCsieiGu2EXtoJ_4core4iter6traits8iterator8Iterator3mapNtCsaKzlTDPUHDb_11proc_macro211TokenStreamNCNvNtNtCsfMaSMcsiNJc_15wiggle_generate5types6record13define_structs0_0EB3t_, symObjAddr: 0x0, symBinAddr: 0x45280, symSize: 0x30 }
  - { offset: 0xC56E6, size: 0x8, addend: 0x0, symName: __RINvYINtNtNtCslJiobkLta79_5alloc3vec9into_iter8IntoIterNtNtCs8QreBtO1sIU_4witx6layout18RecordMemberLayoutENtNtNtNtCsieiGu2EXtoJ_4core4iter6traits8iterator8Iterator3mapNtCsaKzlTDPUHDb_11proc_macro211TokenStreamNCNvNtNtCsfMaSMcsiNJc_15wiggle_generate5types6record13define_structs1_0EB3t_, symObjAddr: 0x30, symBinAddr: 0x452B0, symSize: 0x30 }
  - { offset: 0xC5753, size: 0x8, addend: 0x0, symName: __RINvYINtNtNtCslJiobkLta79_5alloc3vec9into_iter8IntoIterNtNtCs8QreBtO1sIU_4witx6layout18RecordMemberLayoutENtNtNtNtCsieiGu2EXtoJ_4core4iter6traits8iterator8Iterator3mapNtCsaKzlTDPUHDb_11proc_macro211TokenStreamNCNvNtNtCsfMaSMcsiNJc_15wiggle_generate5types6record13define_structs2_0EB3t_, symObjAddr: 0x60, symBinAddr: 0x452E0, symSize: 0x30 }
  - { offset: 0xC57CC, size: 0x8, addend: 0x0, symName: __RNvXNtNtNtCsieiGu2EXtoJ_4core4iter6traits7collectINtNtNtCslJiobkLta79_5alloc3vec9into_iter8IntoIterNtNtCsfMaSMcsiNJc_15wiggle_generate6config11ConfigFieldENtB2_12IntoIterator9into_iterB1D_, symObjAddr: 0x120, symBinAddr: 0x453A0, symSize: 0x30 }
  - { offset: 0xC59AC, size: 0x8, addend: 0x0, symName: __RNvYINtNtNtCslJiobkLta79_5alloc3vec9into_iter8IntoIterNtCsaKzlTDPUHDb_11proc_macro25IdentENtNtNtNtCsieiGu2EXtoJ_4core4iter6traits10exact_size17ExactSizeIterator3lenCsfMaSMcsiNJc_15wiggle_generate, symObjAddr: 0x1A30, symBinAddr: 0x46CB0, symSize: 0xE0 }
  - { offset: 0xC5AAC, size: 0x8, addend: 0x0, symName: __RNvYINtNtNtCslJiobkLta79_5alloc3vec9into_iter8IntoIterNtNtB9_6string6StringENtNtNtNtCsieiGu2EXtoJ_4core4iter6traits10exact_size17ExactSizeIterator3lenCsfMaSMcsiNJc_15wiggle_generate, symObjAddr: 0x1B10, symBinAddr: 0x46D90, symSize: 0xE0 }
  - { offset: 0xC5BAC, size: 0x8, addend: 0x0, symName: __RNvYINtNtNtCslJiobkLta79_5alloc3vec9into_iter8IntoIterNtNtCs8QreBtO1sIU_4witx6layout18RecordMemberLayoutENtNtNtNtCsieiGu2EXtoJ_4core4iter6traits10exact_size17ExactSizeIterator3lenCsfMaSMcsiNJc_15wiggle_generate, symObjAddr: 0x1BF0, symBinAddr: 0x46E70, symSize: 0xE0 }
  - { offset: 0xC5CAC, size: 0x8, addend: 0x0, symName: __RNvYINtNtNtCslJiobkLta79_5alloc3vec9into_iter8IntoIterNtNtCsfMaSMcsiNJc_15wiggle_generate6config11ConfigFieldENtNtNtNtCsieiGu2EXtoJ_4core4iter6traits10exact_size17ExactSizeIterator3lenBU_, symObjAddr: 0x1CD0, symBinAddr: 0x46F50, symSize: 0xE0 }
  - { offset: 0xC5DAC, size: 0x8, addend: 0x0, symName: __RNvYINtNtNtCslJiobkLta79_5alloc3vec9into_iter8IntoIterNtNtCsfMaSMcsiNJc_15wiggle_generate6config13FunctionFieldENtNtNtNtCsieiGu2EXtoJ_4core4iter6traits10exact_size17ExactSizeIterator3lenBU_, symObjAddr: 0x1DB0, symBinAddr: 0x47030, symSize: 0xE0 }
  - { offset: 0xC5EAC, size: 0x8, addend: 0x0, symName: __RNvYINtNtNtCslJiobkLta79_5alloc3vec9into_iter8IntoIterNtNtCsfMaSMcsiNJc_15wiggle_generate6config14ErrorConfFieldENtNtNtNtCsieiGu2EXtoJ_4core4iter6traits10exact_size17ExactSizeIterator3lenBU_, symObjAddr: 0x1E90, symBinAddr: 0x47110, symSize: 0xE0 }
  - { offset: 0xC5FAC, size: 0x8, addend: 0x0, symName: __RNvYINtNtNtCslJiobkLta79_5alloc3vec9into_iter8IntoIterNtNtCsfMaSMcsiNJc_15wiggle_generate6config19WasmtimeConfigFieldENtNtNtNtCsieiGu2EXtoJ_4core4iter6traits10exact_size17ExactSizeIterator3lenBU_, symObjAddr: 0x1F70, symBinAddr: 0x471F0, symSize: 0xE0 }
  - { offset: 0xC60AC, size: 0x8, addend: 0x0, symName: __RNvYINtNtNtCslJiobkLta79_5alloc3vec9into_iter8IntoIterTNtNtCsfMaSMcsiNJc_15wiggle_generate6config11ConfigFieldNtNtCsdGrGZaRBwMb_3syn5token5CommaEENtNtNtNtCsieiGu2EXtoJ_4core4iter6traits10exact_size17ExactSizeIterator3lenBV_, symObjAddr: 0x2050, symBinAddr: 0x472D0, symSize: 0xE0 }
  - { offset: 0xC61AC, size: 0x8, addend: 0x0, symName: __RNvYINtNtNtCslJiobkLta79_5alloc3vec9into_iter8IntoIterTNtNtCsfMaSMcsiNJc_15wiggle_generate6config13FunctionFieldNtNtCsdGrGZaRBwMb_3syn5token5CommaEENtNtNtNtCsieiGu2EXtoJ_4core4iter6traits10exact_size17ExactSizeIterator3lenBV_, symObjAddr: 0x2130, symBinAddr: 0x473B0, symSize: 0xE0 }
  - { offset: 0xC62AC, size: 0x8, addend: 0x0, symName: __RNvYINtNtNtCslJiobkLta79_5alloc3vec9into_iter8IntoIterTNtNtCsfMaSMcsiNJc_15wiggle_generate6config14ErrorConfFieldNtNtCsdGrGZaRBwMb_3syn5token5CommaEENtNtNtNtCsieiGu2EXtoJ_4core4iter6traits10exact_size17ExactSizeIterator3lenBV_, symObjAddr: 0x2210, symBinAddr: 0x47490, symSize: 0xE0 }
  - { offset: 0xC63AC, size: 0x8, addend: 0x0, symName: __RNvYINtNtNtCslJiobkLta79_5alloc3vec9into_iter8IntoIterTNtNtCsfMaSMcsiNJc_15wiggle_generate6config19WasmtimeConfigFieldNtNtCsdGrGZaRBwMb_3syn5token5CommaEENtNtNtNtCsieiGu2EXtoJ_4core4iter6traits10exact_size17ExactSizeIterator3lenBV_, symObjAddr: 0x22F0, symBinAddr: 0x47570, symSize: 0xE0 }
  - { offset: 0xC9E70, size: 0x8, addend: 0x0, symName: __RNCNvXsf_NtNtCsieiGu2EXtoJ_4core5slice3cmpNtCsaKzlTDPUHDb_11proc_macro25IdentNtB7_13SliceContains14slice_contains0CsfMaSMcsiNJc_15wiggle_generate, symObjAddr: 0x90, symBinAddr: 0x45310, symSize: 0x30 }
  - { offset: 0xC9EFD, size: 0x8, addend: 0x0, symName: __RNvXs1_NtCsieiGu2EXtoJ_4core7convertReINtB5_4IntoNtNtCslJiobkLta79_5alloc6string6StringE4intoCsfMaSMcsiNJc_15wiggle_generate, symObjAddr: 0x620, symBinAddr: 0x458A0, symSize: 0x30 }
  - { offset: 0xCA279, size: 0x8, addend: 0x0, symName: __RNvXNvXsd_NtNtCslJiobkLta79_5alloc3vec9into_iterINtB8_8IntoIterppENtNtNtCsieiGu2EXtoJ_4core3ops4drop4Drop4dropINtB2_9DropGuardNtCsaKzlTDPUHDb_11proc_macro25IdentNtNtBc_5alloc6GlobalEB12_4dropCsfMaSMcsiNJc_15wiggle_generate, symObjAddr: 0x150, symBinAddr: 0x453D0, symSize: 0x70 }
  - { offset: 0xCA38E, size: 0x8, addend: 0x0, symName: __RNvXNvXsd_NtNtCslJiobkLta79_5alloc3vec9into_iterINtB8_8IntoIterppENtNtNtCsieiGu2EXtoJ_4core3ops4drop4Drop4dropINtB2_9DropGuardNtNtBc_6string6StringNtNtBc_5alloc6GlobalEB12_4dropCsfMaSMcsiNJc_15wiggle_generate, symObjAddr: 0x1C0, symBinAddr: 0x45440, symSize: 0x70 }
  - { offset: 0xCA4A3, size: 0x8, addend: 0x0, symName: __RNvXNvXsd_NtNtCslJiobkLta79_5alloc3vec9into_iterINtB8_8IntoIterppENtNtNtCsieiGu2EXtoJ_4core3ops4drop4Drop4dropINtB2_9DropGuardNtNtCs8QreBtO1sIU_4witx6layout18RecordMemberLayoutNtNtBc_5alloc6GlobalEB12_4dropCsfMaSMcsiNJc_15wiggle_generate, symObjAddr: 0x230, symBinAddr: 0x454B0, symSize: 0x70 }
  - { offset: 0xCA5B8, size: 0x8, addend: 0x0, symName: __RNvXNvXsd_NtNtCslJiobkLta79_5alloc3vec9into_iterINtB8_8IntoIterppENtNtNtCsieiGu2EXtoJ_4core3ops4drop4Drop4dropINtB2_9DropGuardNtNtCsfMaSMcsiNJc_15wiggle_generate6config11ConfigFieldNtNtBc_5alloc6GlobalEB12_4dropB24_, symObjAddr: 0x2A0, symBinAddr: 0x45520, symSize: 0x70 }
  - { offset: 0xCA6CD, size: 0x8, addend: 0x0, symName: __RNvXNvXsd_NtNtCslJiobkLta79_5alloc3vec9into_iterINtB8_8IntoIterppENtNtNtCsieiGu2EXtoJ_4core3ops4drop4Drop4dropINtB2_9DropGuardNtNtCsfMaSMcsiNJc_15wiggle_generate6config13FunctionFieldNtNtBc_5alloc6GlobalEB12_4dropB24_, symObjAddr: 0x310, symBinAddr: 0x45590, symSize: 0x70 }
  - { offset: 0xCA7E2, size: 0x8, addend: 0x0, symName: __RNvXNvXsd_NtNtCslJiobkLta79_5alloc3vec9into_iterINtB8_8IntoIterppENtNtNtCsieiGu2EXtoJ_4core3ops4drop4Drop4dropINtB2_9DropGuardNtNtCsfMaSMcsiNJc_15wiggle_generate6config14ErrorConfFieldNtNtBc_5alloc6GlobalEB12_4dropB24_, symObjAddr: 0x380, symBinAddr: 0x45600, symSize: 0x70 }
  - { offset: 0xCA8F7, size: 0x8, addend: 0x0, symName: __RNvXNvXsd_NtNtCslJiobkLta79_5alloc3vec9into_iterINtB8_8IntoIterppENtNtNtCsieiGu2EXtoJ_4core3ops4drop4Drop4dropINtB2_9DropGuardNtNtCsfMaSMcsiNJc_15wiggle_generate6config19WasmtimeConfigFieldNtNtBc_5alloc6GlobalEB12_4dropB24_, symObjAddr: 0x3F0, symBinAddr: 0x45670, symSize: 0x70 }
  - { offset: 0xCAA0C, size: 0x8, addend: 0x0, symName: __RNvXNvXsd_NtNtCslJiobkLta79_5alloc3vec9into_iterINtB8_8IntoIterppENtNtNtCsieiGu2EXtoJ_4core3ops4drop4Drop4dropINtB2_9DropGuardTNtNtCsfMaSMcsiNJc_15wiggle_generate6config11ConfigFieldNtNtCsdGrGZaRBwMb_3syn5token5CommaENtNtBc_5alloc6GlobalEB12_4dropB25_, symObjAddr: 0x460, symBinAddr: 0x456E0, symSize: 0x70 }
  - { offset: 0xCAB21, size: 0x8, addend: 0x0, symName: __RNvXNvXsd_NtNtCslJiobkLta79_5alloc3vec9into_iterINtB8_8IntoIterppENtNtNtCsieiGu2EXtoJ_4core3ops4drop4Drop4dropINtB2_9DropGuardTNtNtCsfMaSMcsiNJc_15wiggle_generate6config13FunctionFieldNtNtCsdGrGZaRBwMb_3syn5token5CommaENtNtBc_5alloc6GlobalEB12_4dropB25_, symObjAddr: 0x4D0, symBinAddr: 0x45750, symSize: 0x70 }
  - { offset: 0xCAC36, size: 0x8, addend: 0x0, symName: __RNvXNvXsd_NtNtCslJiobkLta79_5alloc3vec9into_iterINtB8_8IntoIterppENtNtNtCsieiGu2EXtoJ_4core3ops4drop4Drop4dropINtB2_9DropGuardTNtNtCsfMaSMcsiNJc_15wiggle_generate6config14ErrorConfFieldNtNtCsdGrGZaRBwMb_3syn5token5CommaENtNtBc_5alloc6GlobalEB12_4dropB25_, symObjAddr: 0x540, symBinAddr: 0x457C0, symSize: 0x70 }
  - { offset: 0xCAD4B, size: 0x8, addend: 0x0, symName: __RNvXNvXsd_NtNtCslJiobkLta79_5alloc3vec9into_iterINtB8_8IntoIterppENtNtNtCsieiGu2EXtoJ_4core3ops4drop4Drop4dropINtB2_9DropGuardTNtNtCsfMaSMcsiNJc_15wiggle_generate6config19WasmtimeConfigFieldNtNtCsdGrGZaRBwMb_3syn5token5CommaENtNtBc_5alloc6GlobalEB12_4dropB25_, symObjAddr: 0x5B0, symBinAddr: 0x45830, symSize: 0x70 }
  - { offset: 0xCB00F, size: 0x8, addend: 0x0, symName: __RNvXsd_NtNtCslJiobkLta79_5alloc3vec9into_iterINtB5_8IntoIterNtCsaKzlTDPUHDb_11proc_macro25IdentENtNtNtCsieiGu2EXtoJ_4core3ops4drop4Drop4dropCsfMaSMcsiNJc_15wiggle_generate, symObjAddr: 0x1410, symBinAddr: 0x46690, symSize: 0x90 }
  - { offset: 0xCB0AA, size: 0x8, addend: 0x0, symName: __RNvXsd_NtNtCslJiobkLta79_5alloc3vec9into_iterINtB5_8IntoIterNtNtB9_6string6StringENtNtNtCsieiGu2EXtoJ_4core3ops4drop4Drop4dropCsfMaSMcsiNJc_15wiggle_generate, symObjAddr: 0x14A0, symBinAddr: 0x46720, symSize: 0x90 }
  - { offset: 0xCB145, size: 0x8, addend: 0x0, symName: __RNvXsd_NtNtCslJiobkLta79_5alloc3vec9into_iterINtB5_8IntoIterNtNtCs8QreBtO1sIU_4witx6layout18RecordMemberLayoutENtNtNtCsieiGu2EXtoJ_4core3ops4drop4Drop4dropCsfMaSMcsiNJc_15wiggle_generate, symObjAddr: 0x1530, symBinAddr: 0x467B0, symSize: 0x80 }
  - { offset: 0xCB1E0, size: 0x8, addend: 0x0, symName: __RNvXsd_NtNtCslJiobkLta79_5alloc3vec9into_iterINtB5_8IntoIterNtNtCsfMaSMcsiNJc_15wiggle_generate6config11ConfigFieldENtNtNtCsieiGu2EXtoJ_4core3ops4drop4Drop4dropB10_, symObjAddr: 0x15B0, symBinAddr: 0x46830, symSize: 0x90 }
  - { offset: 0xCB27B, size: 0x8, addend: 0x0, symName: __RNvXsd_NtNtCslJiobkLta79_5alloc3vec9into_iterINtB5_8IntoIterNtNtCsfMaSMcsiNJc_15wiggle_generate6config13FunctionFieldENtNtNtCsieiGu2EXtoJ_4core3ops4drop4Drop4dropB10_, symObjAddr: 0x1640, symBinAddr: 0x468C0, symSize: 0x90 }
  - { offset: 0xCB316, size: 0x8, addend: 0x0, symName: __RNvXsd_NtNtCslJiobkLta79_5alloc3vec9into_iterINtB5_8IntoIterNtNtCsfMaSMcsiNJc_15wiggle_generate6config14ErrorConfFieldENtNtNtCsieiGu2EXtoJ_4core3ops4drop4Drop4dropB10_, symObjAddr: 0x16D0, symBinAddr: 0x46950, symSize: 0x90 }
  - { offset: 0xCB3B1, size: 0x8, addend: 0x0, symName: __RNvXsd_NtNtCslJiobkLta79_5alloc3vec9into_iterINtB5_8IntoIterNtNtCsfMaSMcsiNJc_15wiggle_generate6config19WasmtimeConfigFieldENtNtNtCsieiGu2EXtoJ_4core3ops4drop4Drop4dropB10_, symObjAddr: 0x1760, symBinAddr: 0x469E0, symSize: 0x90 }
  - { offset: 0xCB44C, size: 0x8, addend: 0x0, symName: __RNvXsd_NtNtCslJiobkLta79_5alloc3vec9into_iterINtB5_8IntoIterTNtNtCsfMaSMcsiNJc_15wiggle_generate6config11ConfigFieldNtNtCsdGrGZaRBwMb_3syn5token5CommaEENtNtNtCsieiGu2EXtoJ_4core3ops4drop4Drop4dropB11_, symObjAddr: 0x17F0, symBinAddr: 0x46A70, symSize: 0x90 }
  - { offset: 0xCB4E7, size: 0x8, addend: 0x0, symName: __RNvXsd_NtNtCslJiobkLta79_5alloc3vec9into_iterINtB5_8IntoIterTNtNtCsfMaSMcsiNJc_15wiggle_generate6config13FunctionFieldNtNtCsdGrGZaRBwMb_3syn5token5CommaEENtNtNtCsieiGu2EXtoJ_4core3ops4drop4Drop4dropB11_, symObjAddr: 0x1880, symBinAddr: 0x46B00, symSize: 0x90 }
  - { offset: 0xCB582, size: 0x8, addend: 0x0, symName: __RNvXsd_NtNtCslJiobkLta79_5alloc3vec9into_iterINtB5_8IntoIterTNtNtCsfMaSMcsiNJc_15wiggle_generate6config14ErrorConfFieldNtNtCsdGrGZaRBwMb_3syn5token5CommaEENtNtNtCsieiGu2EXtoJ_4core3ops4drop4Drop4dropB11_, symObjAddr: 0x1910, symBinAddr: 0x46B90, symSize: 0x90 }
  - { offset: 0xCB61D, size: 0x8, addend: 0x0, symName: __RNvXsd_NtNtCslJiobkLta79_5alloc3vec9into_iterINtB5_8IntoIterTNtNtCsfMaSMcsiNJc_15wiggle_generate6config19WasmtimeConfigFieldNtNtCsdGrGZaRBwMb_3syn5token5CommaEENtNtNtCsieiGu2EXtoJ_4core3ops4drop4Drop4dropB11_, symObjAddr: 0x19A0, symBinAddr: 0x46C20, symSize: 0x90 }
  - { offset: 0xCB6BE, size: 0x8, addend: 0x0, symName: __RNvXs3_NtNtCslJiobkLta79_5alloc3vec9into_iterINtB5_8IntoIterNtCsaKzlTDPUHDb_11proc_macro25IdentENtNtNtNtCsieiGu2EXtoJ_4core4iter6traits8iterator8Iterator4nextCsfMaSMcsiNJc_15wiggle_generate, symObjAddr: 0x650, symBinAddr: 0x458D0, symSize: 0xF0 }
  - { offset: 0xCB81C, size: 0x8, addend: 0x0, symName: __RNvXs3_NtNtCslJiobkLta79_5alloc3vec9into_iterINtB5_8IntoIterNtCsaKzlTDPUHDb_11proc_macro25IdentENtNtNtNtCsieiGu2EXtoJ_4core4iter6traits8iterator8Iterator9size_hintCsfMaSMcsiNJc_15wiggle_generate, symObjAddr: 0x740, symBinAddr: 0x459C0, symSize: 0x60 }
  - { offset: 0xCB877, size: 0x8, addend: 0x0, symName: __RNvXs3_NtNtCslJiobkLta79_5alloc3vec9into_iterINtB5_8IntoIterNtNtB9_6string6StringENtNtNtNtCsieiGu2EXtoJ_4core4iter6traits8iterator8Iterator9size_hintCsfMaSMcsiNJc_15wiggle_generate, symObjAddr: 0x7A0, symBinAddr: 0x45A20, symSize: 0x60 }
  - { offset: 0xCB8D2, size: 0x8, addend: 0x0, symName: __RNvXs3_NtNtCslJiobkLta79_5alloc3vec9into_iterINtB5_8IntoIterNtNtCs8QreBtO1sIU_4witx6layout18RecordMemberLayoutENtNtNtNtCsieiGu2EXtoJ_4core4iter6traits8iterator8Iterator4nextCsfMaSMcsiNJc_15wiggle_generate, symObjAddr: 0x800, symBinAddr: 0x45A80, symSize: 0xB0 }
  - { offset: 0xCBA30, size: 0x8, addend: 0x0, symName: __RNvXs3_NtNtCslJiobkLta79_5alloc3vec9into_iterINtB5_8IntoIterNtNtCs8QreBtO1sIU_4witx6layout18RecordMemberLayoutENtNtNtNtCsieiGu2EXtoJ_4core4iter6traits8iterator8Iterator9size_hintCsfMaSMcsiNJc_15wiggle_generate, symObjAddr: 0x8B0, symBinAddr: 0x45B30, symSize: 0x60 }
  - { offset: 0xCBA8B, size: 0x8, addend: 0x0, symName: __RNvXs3_NtNtCslJiobkLta79_5alloc3vec9into_iterINtB5_8IntoIterNtNtCsfMaSMcsiNJc_15wiggle_generate6config11ConfigFieldENtNtNtNtCsieiGu2EXtoJ_4core4iter6traits8iterator8Iterator4nextB10_, symObjAddr: 0x910, symBinAddr: 0x45B90, symSize: 0x100 }
  - { offset: 0xCBBE9, size: 0x8, addend: 0x0, symName: __RNvXs3_NtNtCslJiobkLta79_5alloc3vec9into_iterINtB5_8IntoIterNtNtCsfMaSMcsiNJc_15wiggle_generate6config11ConfigFieldENtNtNtNtCsieiGu2EXtoJ_4core4iter6traits8iterator8Iterator9size_hintB10_, symObjAddr: 0xA10, symBinAddr: 0x45C90, symSize: 0x60 }
  - { offset: 0xCBC44, size: 0x8, addend: 0x0, symName: __RNvXs3_NtNtCslJiobkLta79_5alloc3vec9into_iterINtB5_8IntoIterNtNtCsfMaSMcsiNJc_15wiggle_generate6config13FunctionFieldENtNtNtNtCsieiGu2EXtoJ_4core4iter6traits8iterator8Iterator4nextB10_, symObjAddr: 0xA70, symBinAddr: 0x45CF0, symSize: 0x100 }
  - { offset: 0xCBDA2, size: 0x8, addend: 0x0, symName: __RNvXs3_NtNtCslJiobkLta79_5alloc3vec9into_iterINtB5_8IntoIterNtNtCsfMaSMcsiNJc_15wiggle_generate6config13FunctionFieldENtNtNtNtCsieiGu2EXtoJ_4core4iter6traits8iterator8Iterator9size_hintB10_, symObjAddr: 0xB70, symBinAddr: 0x45DF0, symSize: 0x60 }
  - { offset: 0xCBDFD, size: 0x8, addend: 0x0, symName: __RNvXs3_NtNtCslJiobkLta79_5alloc3vec9into_iterINtB5_8IntoIterNtNtCsfMaSMcsiNJc_15wiggle_generate6config14ErrorConfFieldENtNtNtNtCsieiGu2EXtoJ_4core4iter6traits8iterator8Iterator4nextB10_, symObjAddr: 0xBD0, symBinAddr: 0x45E50, symSize: 0x100 }
  - { offset: 0xCBF5B, size: 0x8, addend: 0x0, symName: __RNvXs3_NtNtCslJiobkLta79_5alloc3vec9into_iterINtB5_8IntoIterNtNtCsfMaSMcsiNJc_15wiggle_generate6config14ErrorConfFieldENtNtNtNtCsieiGu2EXtoJ_4core4iter6traits8iterator8Iterator9size_hintB10_, symObjAddr: 0xCD0, symBinAddr: 0x45F50, symSize: 0x60 }
  - { offset: 0xCBFB6, size: 0x8, addend: 0x0, symName: __RNvXs3_NtNtCslJiobkLta79_5alloc3vec9into_iterINtB5_8IntoIterNtNtCsfMaSMcsiNJc_15wiggle_generate6config19WasmtimeConfigFieldENtNtNtNtCsieiGu2EXtoJ_4core4iter6traits8iterator8Iterator4nextB10_, symObjAddr: 0xD30, symBinAddr: 0x45FB0, symSize: 0x100 }
  - { offset: 0xCC114, size: 0x8, addend: 0x0, symName: __RNvXs3_NtNtCslJiobkLta79_5alloc3vec9into_iterINtB5_8IntoIterNtNtCsfMaSMcsiNJc_15wiggle_generate6config19WasmtimeConfigFieldENtNtNtNtCsieiGu2EXtoJ_4core4iter6traits8iterator8Iterator9size_hintB10_, symObjAddr: 0xE30, symBinAddr: 0x460B0, symSize: 0x60 }
  - { offset: 0xCC16F, size: 0x8, addend: 0x0, symName: __RNvXs3_NtNtCslJiobkLta79_5alloc3vec9into_iterINtB5_8IntoIterTNtNtCsfMaSMcsiNJc_15wiggle_generate6config11ConfigFieldNtNtCsdGrGZaRBwMb_3syn5token5CommaEENtNtNtNtCsieiGu2EXtoJ_4core4iter6traits8iterator8Iterator4nextB11_, symObjAddr: 0xE90, symBinAddr: 0x46110, symSize: 0x100 }
  - { offset: 0xCC2CD, size: 0x8, addend: 0x0, symName: __RNvXs3_NtNtCslJiobkLta79_5alloc3vec9into_iterINtB5_8IntoIterTNtNtCsfMaSMcsiNJc_15wiggle_generate6config11ConfigFieldNtNtCsdGrGZaRBwMb_3syn5token5CommaEENtNtNtNtCsieiGu2EXtoJ_4core4iter6traits8iterator8Iterator9size_hintB11_, symObjAddr: 0xF90, symBinAddr: 0x46210, symSize: 0x60 }
  - { offset: 0xCC328, size: 0x8, addend: 0x0, symName: __RNvXs3_NtNtCslJiobkLta79_5alloc3vec9into_iterINtB5_8IntoIterTNtNtCsfMaSMcsiNJc_15wiggle_generate6config13FunctionFieldNtNtCsdGrGZaRBwMb_3syn5token5CommaEENtNtNtNtCsieiGu2EXtoJ_4core4iter6traits8iterator8Iterator4nextB11_, symObjAddr: 0xFF0, symBinAddr: 0x46270, symSize: 0x100 }
  - { offset: 0xCC486, size: 0x8, addend: 0x0, symName: __RNvXs3_NtNtCslJiobkLta79_5alloc3vec9into_iterINtB5_8IntoIterTNtNtCsfMaSMcsiNJc_15wiggle_generate6config13FunctionFieldNtNtCsdGrGZaRBwMb_3syn5token5CommaEENtNtNtNtCsieiGu2EXtoJ_4core4iter6traits8iterator8Iterator9size_hintB11_, symObjAddr: 0x10F0, symBinAddr: 0x46370, symSize: 0x60 }
  - { offset: 0xCC4E1, size: 0x8, addend: 0x0, symName: __RNvXs3_NtNtCslJiobkLta79_5alloc3vec9into_iterINtB5_8IntoIterTNtNtCsfMaSMcsiNJc_15wiggle_generate6config14ErrorConfFieldNtNtCsdGrGZaRBwMb_3syn5token5CommaEENtNtNtNtCsieiGu2EXtoJ_4core4iter6traits8iterator8Iterator4nextB11_, symObjAddr: 0x1150, symBinAddr: 0x463D0, symSize: 0x100 }
  - { offset: 0xCC63F, size: 0x8, addend: 0x0, symName: __RNvXs3_NtNtCslJiobkLta79_5alloc3vec9into_iterINtB5_8IntoIterTNtNtCsfMaSMcsiNJc_15wiggle_generate6config14ErrorConfFieldNtNtCsdGrGZaRBwMb_3syn5token5CommaEENtNtNtNtCsieiGu2EXtoJ_4core4iter6traits8iterator8Iterator9size_hintB11_, symObjAddr: 0x1250, symBinAddr: 0x464D0, symSize: 0x60 }
  - { offset: 0xCC69A, size: 0x8, addend: 0x0, symName: __RNvXs3_NtNtCslJiobkLta79_5alloc3vec9into_iterINtB5_8IntoIterTNtNtCsfMaSMcsiNJc_15wiggle_generate6config19WasmtimeConfigFieldNtNtCsdGrGZaRBwMb_3syn5token5CommaEENtNtNtNtCsieiGu2EXtoJ_4core4iter6traits8iterator8Iterator4nextB11_, symObjAddr: 0x12B0, symBinAddr: 0x46530, symSize: 0x100 }
  - { offset: 0xCC7F8, size: 0x8, addend: 0x0, symName: __RNvXs3_NtNtCslJiobkLta79_5alloc3vec9into_iterINtB5_8IntoIterTNtNtCsfMaSMcsiNJc_15wiggle_generate6config19WasmtimeConfigFieldNtNtCsdGrGZaRBwMb_3syn5token5CommaEENtNtNtNtCsieiGu2EXtoJ_4core4iter6traits8iterator8Iterator9size_hintB11_, symObjAddr: 0x13B0, symBinAddr: 0x46630, symSize: 0x60 }
  - { offset: 0xCE6B3, size: 0x8, addend: 0x0, symName: __RNvMs_NtNtCslJiobkLta79_5alloc3vec9into_iterINtB4_8IntoIterNtNtB8_6string6StringE8as_sliceCsfMaSMcsiNJc_15wiggle_generate, symObjAddr: 0xC0, symBinAddr: 0x45340, symSize: 0x60 }
  - { offset: 0xD4CFF, size: 0x8, addend: 0x0, symName: __RINvMNtCsieiGu2EXtoJ_4core6resultINtB3_6ResultNtNtCslJiobkLta79_5alloc6string6StringNtNtCsHUR1vrdMJt_3std3env8VarErrorE3mapINtNtB5_6option6OptionBI_ENcNtB1X_4Some0ECsfMaSMcsiNJc_15wiggle_generate, symObjAddr: 0x0, symBinAddr: 0x47650, symSize: 0xE0 }
  - { offset: 0xD57F3, size: 0x8, addend: 0x0, symName: __RNvXNvXs5_NtNtCslJiobkLta79_5alloc3vec5drainINtB8_5DrainppENtNtNtCsieiGu2EXtoJ_4core3ops4drop4Drop4dropINtB2_9DropGuardNtCsaKzlTDPUHDb_11proc_macro211TokenStreamNtNtBc_5alloc6GlobalEBV_4dropCsfMaSMcsiNJc_15wiggle_generate, symObjAddr: 0x26C0, symBinAddr: 0x49BD0, symSize: 0x1C0 }
  - { offset: 0xD5B2A, size: 0x8, addend: 0x0, symName: __RNvXs5_NtNtCslJiobkLta79_5alloc3vec5drainINtB5_5DrainNtCsaKzlTDPUHDb_11proc_macro211TokenStreamENtNtNtCsieiGu2EXtoJ_4core3ops4drop4Drop4dropCsfMaSMcsiNJc_15wiggle_generate, symObjAddr: 0x35C0, symBinAddr: 0x4A3F0, symSize: 0x2D0 }
  - { offset: 0xD602C, size: 0x8, addend: 0x0, symName: __RNvXs3_NtNtCslJiobkLta79_5alloc3vec5drainINtB5_5DrainNtCsaKzlTDPUHDb_11proc_macro211TokenStreamENtNtNtNtCsieiGu2EXtoJ_4core4iter6traits8iterator8Iterator4nextCsfMaSMcsiNJc_15wiggle_generate, symObjAddr: 0x30F0, symBinAddr: 0x4A2E0, symSize: 0xB0 }
  - { offset: 0xD60E4, size: 0x8, addend: 0x0, symName: __RNvXs3_NtNtCslJiobkLta79_5alloc3vec5drainINtB5_5DrainNtCsaKzlTDPUHDb_11proc_macro211TokenStreamENtNtNtNtCsieiGu2EXtoJ_4core4iter6traits8iterator8Iterator9size_hintCsfMaSMcsiNJc_15wiggle_generate, symObjAddr: 0x31A0, symBinAddr: 0x4A390, symSize: 0x60 }
  - { offset: 0xD7F3C, size: 0x8, addend: 0x0, symName: __RNvNvNtCsieiGu2EXtoJ_4core3ptr19copy_nonoverlapping18precondition_checkCsfMaSMcsiNJc_15wiggle_generate, symObjAddr: 0x1D70, symBinAddr: 0x493C0, symSize: 0x4B0 }
  - { offset: 0xD824D, size: 0x8, addend: 0x0, symName: __RNvNvNtCsieiGu2EXtoJ_4core3ptr4copy18precondition_checkCsfMaSMcsiNJc_15wiggle_generate, symObjAddr: 0x2220, symBinAddr: 0x49870, symSize: 0x330 }
  - { offset: 0xDB1BF, size: 0x8, addend: 0x0, symName: __RINvXso_NtCsieiGu2EXtoJ_4core6resultINtB6_6ResultINtNtCslJiobkLta79_5alloc3vec3VecNtNtCsfMaSMcsiNJc_15wiggle_generate16codegen_settings9ErrorTypeENtCs5LsBMV3VaIp_6anyhow5ErrorEINtNtNtNtB8_4iter6traits7collect12FromIteratorIBz_B1i_B2k_EE9from_iterINtNtNtB2V_8adapters3map3MapINtNtNtNtCsHUR1vrdMJt_3std11collections4hash3map4IterNtCsaKzlTDPUHDb_11proc_macro25IdentNtNtB1m_6config14ErrorConfFieldENCNvMs_B1k_NtB1k_14ErrorTransform3new0EEB1m_, symObjAddr: 0xE0, symBinAddr: 0x47730, symSize: 0x30 }
  - { offset: 0xDB217, size: 0x8, addend: 0x0, symName: __RNCINvXso_NtCsieiGu2EXtoJ_4core6resultINtB8_6ResultINtNtCslJiobkLta79_5alloc3vec3VecNtNtCsfMaSMcsiNJc_15wiggle_generate16codegen_settings9ErrorTypeENtCs5LsBMV3VaIp_6anyhow5ErrorEINtNtNtNtBa_4iter6traits7collect12FromIteratorIBB_B1k_B2m_EE9from_iterINtNtNtB2X_8adapters3map3MapINtNtNtNtCsHUR1vrdMJt_3std11collections4hash3map4IterNtCsaKzlTDPUHDb_11proc_macro25IdentNtNtB1o_6config14ErrorConfFieldENCNvMs_B1m_NtB1m_14ErrorTransform3new0EE0B1o_, symObjAddr: 0x380, symBinAddr: 0x479D0, symSize: 0x30 }
  - { offset: 0xDB473, size: 0x8, addend: 0x0, symName: __RNvXsp_NtCsieiGu2EXtoJ_4core6resultINtB5_6ResultINtNtCsdGrGZaRBwMb_3syn10punctuated10PunctuatedNtCsaKzlTDPUHDb_11proc_macro25IdentNtNtBP_5token5CommaENtNtBP_5error5ErrorENtNtNtB7_3ops9try_trait3Try6branchCsfMaSMcsiNJc_15wiggle_generate, symObjAddr: 0x44C0, symBinAddr: 0x4B190, symSize: 0xE0 }
  - { offset: 0xDB4F1, size: 0x8, addend: 0x0, symName: __RNvXsp_NtCsieiGu2EXtoJ_4core6resultINtB5_6ResultINtNtCsdGrGZaRBwMb_3syn10punctuated10PunctuatedNtNtBP_3lit6LitStrNtNtBP_5token5CommaENtNtBP_5error5ErrorENtNtNtB7_3ops9try_trait3Try6branchCsfMaSMcsiNJc_15wiggle_generate, symObjAddr: 0x45A0, symBinAddr: 0x4B270, symSize: 0xE0 }
  - { offset: 0xDB56F, size: 0x8, addend: 0x0, symName: __RNvXsp_NtCsieiGu2EXtoJ_4core6resultINtB5_6ResultINtNtCsdGrGZaRBwMb_3syn10punctuated10PunctuatedNtNtCsfMaSMcsiNJc_15wiggle_generate6config11ConfigFieldNtNtBP_5token5CommaENtNtBP_5error5ErrorENtNtNtB7_3ops9try_trait3Try6branchB1z_, symObjAddr: 0x4680, symBinAddr: 0x4B350, symSize: 0xE0 }
  - { offset: 0xDB5ED, size: 0x8, addend: 0x0, symName: __RNvXsp_NtCsieiGu2EXtoJ_4core6resultINtB5_6ResultINtNtCsdGrGZaRBwMb_3syn10punctuated10PunctuatedNtNtCsfMaSMcsiNJc_15wiggle_generate6config13FunctionFieldNtNtBP_5token5CommaENtNtBP_5error5ErrorENtNtNtB7_3ops9try_trait3Try6branchB1z_, symObjAddr: 0x4760, symBinAddr: 0x4B430, symSize: 0xE0 }
  - { offset: 0xDB66B, size: 0x8, addend: 0x0, symName: __RNvXsp_NtCsieiGu2EXtoJ_4core6resultINtB5_6ResultINtNtCsdGrGZaRBwMb_3syn10punctuated10PunctuatedNtNtCsfMaSMcsiNJc_15wiggle_generate6config14ErrorConfFieldNtNtBP_5token5CommaENtNtBP_5error5ErrorENtNtNtB7_3ops9try_trait3Try6branchB1z_, symObjAddr: 0x4840, symBinAddr: 0x4B510, symSize: 0xE0 }
  - { offset: 0xDB6E9, size: 0x8, addend: 0x0, symName: __RNvXsp_NtCsieiGu2EXtoJ_4core6resultINtB5_6ResultINtNtCsdGrGZaRBwMb_3syn10punctuated10PunctuatedNtNtCsfMaSMcsiNJc_15wiggle_generate6config19WasmtimeConfigFieldNtNtBP_5token5CommaENtNtBP_5error5ErrorENtNtNtB7_3ops9try_trait3Try6branchB1z_, symObjAddr: 0x4920, symBinAddr: 0x4B5F0, symSize: 0xE0 }
  - { offset: 0xDB767, size: 0x8, addend: 0x0, symName: __RNvXsp_NtCsieiGu2EXtoJ_4core6resultINtB5_6ResultINtNtCslJiobkLta79_5alloc3vec3VecNtNtCsfMaSMcsiNJc_15wiggle_generate16codegen_settings9ErrorTypeENtCs5LsBMV3VaIp_6anyhow5ErrorENtNtNtB7_3ops9try_trait3Try11from_outputB1l_, symObjAddr: 0x4A00, symBinAddr: 0x4B6D0, symSize: 0x20 }
  - { offset: 0xDB7A7, size: 0x8, addend: 0x0, symName: __RNvXsp_NtCsieiGu2EXtoJ_4core6resultINtB5_6ResultINtNtCslJiobkLta79_5alloc3vec3VecNtNtCsfMaSMcsiNJc_15wiggle_generate16codegen_settings9ErrorTypeENtCs5LsBMV3VaIp_6anyhow5ErrorENtNtNtB7_3ops9try_trait3Try6branchB1l_, symObjAddr: 0x4A20, symBinAddr: 0x4B6F0, symSize: 0x90 }
  - { offset: 0xDB824, size: 0x8, addend: 0x0, symName: __RNvXsp_NtCsieiGu2EXtoJ_4core6resultINtB5_6ResultNtNtCsdGrGZaRBwMb_3syn3lit7LitBoolNtNtBO_5error5ErrorENtNtNtB7_3ops9try_trait3Try6branchCsfMaSMcsiNJc_15wiggle_generate, symObjAddr: 0x4AB0, symBinAddr: 0x4B780, symSize: 0xC0 }
  - { offset: 0xDB8A1, size: 0x8, addend: 0x0, symName: __RNvXsp_NtCsieiGu2EXtoJ_4core6resultINtB5_6ResultNtNtCsfMaSMcsiNJc_15wiggle_generate16codegen_settings14ErrorTransformNtCs5LsBMV3VaIp_6anyhow5ErrorENtNtNtB7_3ops9try_trait3Try6branchBO_, symObjAddr: 0x4B70, symBinAddr: 0x4B840, symSize: 0x90 }
  - { offset: 0xDB91E, size: 0x8, addend: 0x0, symName: __RNvXsp_NtCsieiGu2EXtoJ_4core6resultINtB5_6ResultNtNtCsfMaSMcsiNJc_15wiggle_generate16codegen_settings9ErrorTypeNtCs5LsBMV3VaIp_6anyhow5ErrorENtNtNtB7_3ops9try_trait3Try6branchBO_, symObjAddr: 0x4C00, symBinAddr: 0x4B8D0, symSize: 0x90 }
  - { offset: 0xDB99C, size: 0x8, addend: 0x0, symName: __RNvXsp_NtCsieiGu2EXtoJ_4core6resultINtB5_6ResultNtNtCsfMaSMcsiNJc_15wiggle_generate6config11ConfigFieldNtNtCsdGrGZaRBwMb_3syn5error5ErrorENtNtNtB7_3ops9try_trait3Try6branchBO_, symObjAddr: 0x4C90, symBinAddr: 0x4B960, symSize: 0xE0 }
  - { offset: 0xDBA1A, size: 0x8, addend: 0x0, symName: __RNvXsp_NtCsieiGu2EXtoJ_4core6resultINtB5_6ResultNtNtCsfMaSMcsiNJc_15wiggle_generate6config11TracingConfNtNtCsdGrGZaRBwMb_3syn5error5ErrorENtNtNtB7_3ops9try_trait3Try6branchBO_, symObjAddr: 0x4D70, symBinAddr: 0x4BA40, symSize: 0xC0 }
  - { offset: 0xDBA98, size: 0x8, addend: 0x0, symName: __RNvXsp_NtCsieiGu2EXtoJ_4core6resultINtB5_6ResultNtNtCsfMaSMcsiNJc_15wiggle_generate6config13FunctionFieldNtNtCsdGrGZaRBwMb_3syn5error5ErrorENtNtNtB7_3ops9try_trait3Try6branchBO_, symObjAddr: 0x4E30, symBinAddr: 0x4BB00, symSize: 0xD0 }
  - { offset: 0xDBB16, size: 0x8, addend: 0x0, symName: __RNvXsp_NtCsieiGu2EXtoJ_4core6resultINtB5_6ResultNtNtCsfMaSMcsiNJc_15wiggle_generate6config14AsyncFunctionsNtNtCsdGrGZaRBwMb_3syn5error5ErrorENtNtNtB7_3ops9try_trait3Try6branchBO_, symObjAddr: 0x4F00, symBinAddr: 0x4BBD0, symSize: 0xC0 }
  - { offset: 0xDBB94, size: 0x8, addend: 0x0, symName: __RNvXsp_NtCsieiGu2EXtoJ_4core6resultINtB5_6ResultNtNtCsfMaSMcsiNJc_15wiggle_generate6config14ErrorConfFieldNtNtCsdGrGZaRBwMb_3syn5error5ErrorENtNtNtB7_3ops9try_trait3Try6branchBO_, symObjAddr: 0x4FC0, symBinAddr: 0x4BC90, symSize: 0xE0 }
  - { offset: 0xDBC12, size: 0x8, addend: 0x0, symName: __RNvXsp_NtCsieiGu2EXtoJ_4core6resultINtB5_6ResultNtNtCsfMaSMcsiNJc_15wiggle_generate6config14WasmtimeConfigNtNtCsdGrGZaRBwMb_3syn5error5ErrorENtNtNtB7_3ops9try_trait3Try6branchBO_, symObjAddr: 0x50A0, symBinAddr: 0x4BD70, symSize: 0xE0 }
  - { offset: 0xDBC90, size: 0x8, addend: 0x0, symName: __RNvXsp_NtCsieiGu2EXtoJ_4core6resultINtB5_6ResultNtNtCsfMaSMcsiNJc_15wiggle_generate6config19WasmtimeConfigFieldNtNtCsdGrGZaRBwMb_3syn5error5ErrorENtNtNtB7_3ops9try_trait3Try6branchBO_, symObjAddr: 0x5180, symBinAddr: 0x4BE50, symSize: 0xE0 }
  - { offset: 0xDBD0E, size: 0x8, addend: 0x0, symName: __RNvXsp_NtCsieiGu2EXtoJ_4core6resultINtB5_6ResultNtNtCsfMaSMcsiNJc_15wiggle_generate6config5PathsNtNtCsdGrGZaRBwMb_3syn5error5ErrorENtNtNtB7_3ops9try_trait3Try6branchBO_, symObjAddr: 0x5260, symBinAddr: 0x4BF30, symSize: 0xC0 }
  - { offset: 0xDBD8C, size: 0x8, addend: 0x0, symName: __RNvXsp_NtCsieiGu2EXtoJ_4core6resultINtB5_6ResultNtNtCsfMaSMcsiNJc_15wiggle_generate6config6ConfigNtNtCsdGrGZaRBwMb_3syn5error5ErrorENtNtNtB7_3ops9try_trait3Try6branchBO_, symObjAddr: 0x5320, symBinAddr: 0x4BFF0, symSize: 0xE0 }
  - { offset: 0xDBE0A, size: 0x8, addend: 0x0, symName: __RNvXsp_NtCsieiGu2EXtoJ_4core6resultINtB5_6ResultNtNtCsfMaSMcsiNJc_15wiggle_generate6config7LiteralNtNtCsdGrGZaRBwMb_3syn5error5ErrorENtNtNtB7_3ops9try_trait3Try6branchBO_, symObjAddr: 0x5400, symBinAddr: 0x4C0D0, symSize: 0xC0 }
  - { offset: 0xDBE88, size: 0x8, addend: 0x0, symName: __RNvXsp_NtCsieiGu2EXtoJ_4core6resultINtB5_6ResultNtNtCsfMaSMcsiNJc_15wiggle_generate6config8WitxConfNtNtCsdGrGZaRBwMb_3syn5error5ErrorENtNtNtB7_3ops9try_trait3Try6branchBO_, symObjAddr: 0x54C0, symBinAddr: 0x4C190, symSize: 0xD0 }
  - { offset: 0xDBF06, size: 0x8, addend: 0x0, symName: __RNvXsp_NtCsieiGu2EXtoJ_4core6resultINtB5_6ResultNtNtCsfMaSMcsiNJc_15wiggle_generate6config9ErrorConfNtNtCsdGrGZaRBwMb_3syn5error5ErrorENtNtNtB7_3ops9try_trait3Try6branchBO_, symObjAddr: 0x5590, symBinAddr: 0x4C260, symSize: 0xC0 }
  - { offset: 0xDBF84, size: 0x8, addend: 0x0, symName: __RNvXsp_NtCsieiGu2EXtoJ_4core6resultINtB5_6ResultNtNtNtCsfMaSMcsiNJc_15wiggle_generate6config2kw11disable_forNtNtCsdGrGZaRBwMb_3syn5error5ErrorENtNtNtB7_3ops9try_trait3Try6branchBQ_, symObjAddr: 0x5650, symBinAddr: 0x4C320, symSize: 0xB0 }
  - { offset: 0xDC001, size: 0x8, addend: 0x0, symName: __RNvXsp_NtCsieiGu2EXtoJ_4core6resultINtB5_6ResultNtNtNtCsfMaSMcsiNJc_15wiggle_generate6config2kw12witx_literalNtNtCsdGrGZaRBwMb_3syn5error5ErrorENtNtNtB7_3ops9try_trait3Try6branchBQ_, symObjAddr: 0x5700, symBinAddr: 0x4C3D0, symSize: 0xB0 }
  - { offset: 0xDC07E, size: 0x8, addend: 0x0, symName: __RNvXsp_NtCsieiGu2EXtoJ_4core6resultINtB5_6ResultNtNtNtCsfMaSMcsiNJc_15wiggle_generate6config2kw4witxNtNtCsdGrGZaRBwMb_3syn5error5ErrorENtNtNtB7_3ops9try_trait3Try6branchBQ_, symObjAddr: 0x57B0, symBinAddr: 0x4C480, symSize: 0xB0 }
  - { offset: 0xDC0FB, size: 0x8, addend: 0x0, symName: __RNvXsp_NtCsieiGu2EXtoJ_4core6resultINtB5_6ResultNtNtNtCsfMaSMcsiNJc_15wiggle_generate6config2kw6errorsNtNtCsdGrGZaRBwMb_3syn5error5ErrorENtNtNtB7_3ops9try_trait3Try6branchBQ_, symObjAddr: 0x5860, symBinAddr: 0x4C530, symSize: 0xB0 }
  - { offset: 0xDC178, size: 0x8, addend: 0x0, symName: __RNvXsp_NtCsieiGu2EXtoJ_4core6resultINtB5_6ResultNtNtNtCsfMaSMcsiNJc_15wiggle_generate6config2kw6targetNtNtCsdGrGZaRBwMb_3syn5error5ErrorENtNtNtB7_3ops9try_trait3Try6branchBQ_, symObjAddr: 0x5910, symBinAddr: 0x4C5E0, symSize: 0xB0 }
  - { offset: 0xDC1F5, size: 0x8, addend: 0x0, symName: __RNvXsp_NtCsieiGu2EXtoJ_4core6resultINtB5_6ResultNtNtNtCsfMaSMcsiNJc_15wiggle_generate6config2kw7mutableNtNtCsdGrGZaRBwMb_3syn5error5ErrorENtNtNtB7_3ops9try_trait3Try6branchBQ_, symObjAddr: 0x59C0, symBinAddr: 0x4C690, symSize: 0xB0 }
  - { offset: 0xDC272, size: 0x8, addend: 0x0, symName: __RNvXsp_NtCsieiGu2EXtoJ_4core6resultINtB5_6ResultNtNtNtCsfMaSMcsiNJc_15wiggle_generate6config2kw7tracingNtNtCsdGrGZaRBwMb_3syn5error5ErrorENtNtNtB7_3ops9try_trait3Try6branchBQ_, symObjAddr: 0x5A70, symBinAddr: 0x4C740, symSize: 0xB0 }
  - { offset: 0xDC2EF, size: 0x8, addend: 0x0, symName: __RNvXsp_NtCsieiGu2EXtoJ_4core6resultINtB5_6ResultNtNtNtCsfMaSMcsiNJc_15wiggle_generate6config2kw8block_onNtNtCsdGrGZaRBwMb_3syn5error5ErrorENtNtNtB7_3ops9try_trait3Try6branchBQ_, symObjAddr: 0x5B20, symBinAddr: 0x4C7F0, symSize: 0xB0 }
  - { offset: 0xDC36C, size: 0x8, addend: 0x0, symName: __RNvXsp_NtCsieiGu2EXtoJ_4core6resultINtB5_6ResultNtNtNtCsfMaSMcsiNJc_15wiggle_generate6config2kw8wasmtimeNtNtCsdGrGZaRBwMb_3syn5error5ErrorENtNtNtB7_3ops9try_trait3Try6branchBQ_, symObjAddr: 0x5BD0, symBinAddr: 0x4C8A0, symSize: 0xB0 }
  - { offset: 0xDC3E9, size: 0x8, addend: 0x0, symName: __RNvXsp_NtCsieiGu2EXtoJ_4core6resultINtB5_6ResultNtNtNtCsfMaSMcsiNJc_15wiggle_generate6config2kw9trappableNtNtCsdGrGZaRBwMb_3syn5error5ErrorENtNtNtB7_3ops9try_trait3Try6branchBQ_, symObjAddr: 0x5C80, symBinAddr: 0x4C950, symSize: 0xB0 }
  - { offset: 0xDC466, size: 0x8, addend: 0x0, symName: __RNvXsp_NtCsieiGu2EXtoJ_4core6resultINtB5_6ResultTNtNtNtCsfMaSMcsiNJc_15wiggle_generate6config2kw11disable_forNtNtCsdGrGZaRBwMb_3syn6buffer6CursorENtNtB1N_5error5ErrorENtNtNtB7_3ops9try_trait3Try6branchBR_, symObjAddr: 0x5D30, symBinAddr: 0x4CA00, symSize: 0xC0 }
  - { offset: 0xDC4E4, size: 0x8, addend: 0x0, symName: __RNvXsp_NtCsieiGu2EXtoJ_4core6resultINtB5_6ResultTNtNtNtCsfMaSMcsiNJc_15wiggle_generate6config2kw12witx_literalNtNtCsdGrGZaRBwMb_3syn6buffer6CursorENtNtB1O_5error5ErrorENtNtNtB7_3ops9try_trait3Try6branchBR_, symObjAddr: 0x5DF0, symBinAddr: 0x4CAC0, symSize: 0xC0 }
  - { offset: 0xDC562, size: 0x8, addend: 0x0, symName: __RNvXsp_NtCsieiGu2EXtoJ_4core6resultINtB5_6ResultTNtNtNtCsfMaSMcsiNJc_15wiggle_generate6config2kw4witxNtNtCsdGrGZaRBwMb_3syn6buffer6CursorENtNtB1F_5error5ErrorENtNtNtB7_3ops9try_trait3Try6branchBR_, symObjAddr: 0x5EB0, symBinAddr: 0x4CB80, symSize: 0xC0 }
  - { offset: 0xDC5E0, size: 0x8, addend: 0x0, symName: __RNvXsp_NtCsieiGu2EXtoJ_4core6resultINtB5_6ResultTNtNtNtCsfMaSMcsiNJc_15wiggle_generate6config2kw6errorsNtNtCsdGrGZaRBwMb_3syn6buffer6CursorENtNtB1H_5error5ErrorENtNtNtB7_3ops9try_trait3Try6branchBR_, symObjAddr: 0x5F70, symBinAddr: 0x4CC40, symSize: 0xC0 }
  - { offset: 0xDC65E, size: 0x8, addend: 0x0, symName: __RNvXsp_NtCsieiGu2EXtoJ_4core6resultINtB5_6ResultTNtNtNtCsfMaSMcsiNJc_15wiggle_generate6config2kw6targetNtNtCsdGrGZaRBwMb_3syn6buffer6CursorENtNtB1H_5error5ErrorENtNtNtB7_3ops9try_trait3Try6branchBR_, symObjAddr: 0x6030, symBinAddr: 0x4CD00, symSize: 0xC0 }
  - { offset: 0xDC6DC, size: 0x8, addend: 0x0, symName: __RNvXsp_NtCsieiGu2EXtoJ_4core6resultINtB5_6ResultTNtNtNtCsfMaSMcsiNJc_15wiggle_generate6config2kw7mutableNtNtCsdGrGZaRBwMb_3syn6buffer6CursorENtNtB1I_5error5ErrorENtNtNtB7_3ops9try_trait3Try6branchBR_, symObjAddr: 0x60F0, symBinAddr: 0x4CDC0, symSize: 0xC0 }
  - { offset: 0xDC75A, size: 0x8, addend: 0x0, symName: __RNvXsp_NtCsieiGu2EXtoJ_4core6resultINtB5_6ResultTNtNtNtCsfMaSMcsiNJc_15wiggle_generate6config2kw7tracingNtNtCsdGrGZaRBwMb_3syn6buffer6CursorENtNtB1I_5error5ErrorENtNtNtB7_3ops9try_trait3Try6branchBR_, symObjAddr: 0x61B0, symBinAddr: 0x4CE80, symSize: 0xC0 }
  - { offset: 0xDC7D8, size: 0x8, addend: 0x0, symName: __RNvXsp_NtCsieiGu2EXtoJ_4core6resultINtB5_6ResultTNtNtNtCsfMaSMcsiNJc_15wiggle_generate6config2kw8block_onNtNtCsdGrGZaRBwMb_3syn6buffer6CursorENtNtB1J_5error5ErrorENtNtNtB7_3ops9try_trait3Try6branchBR_, symObjAddr: 0x6270, symBinAddr: 0x4CF40, symSize: 0xC0 }
  - { offset: 0xDC856, size: 0x8, addend: 0x0, symName: __RNvXsp_NtCsieiGu2EXtoJ_4core6resultINtB5_6ResultTNtNtNtCsfMaSMcsiNJc_15wiggle_generate6config2kw8wasmtimeNtNtCsdGrGZaRBwMb_3syn6buffer6CursorENtNtB1J_5error5ErrorENtNtNtB7_3ops9try_trait3Try6branchBR_, symObjAddr: 0x6330, symBinAddr: 0x4D000, symSize: 0xC0 }
  - { offset: 0xDC8D4, size: 0x8, addend: 0x0, symName: __RNvXsp_NtCsieiGu2EXtoJ_4core6resultINtB5_6ResultTNtNtNtCsfMaSMcsiNJc_15wiggle_generate6config2kw9trappableNtNtCsdGrGZaRBwMb_3syn6buffer6CursorENtNtB1K_5error5ErrorENtNtNtB7_3ops9try_trait3Try6branchBR_, symObjAddr: 0x63F0, symBinAddr: 0x4D0C0, symSize: 0xC0 }
  - { offset: 0xDC958, size: 0x8, addend: 0x0, symName: __RNvXsq_NtCsieiGu2EXtoJ_4core6resultINtB5_6ResultINtNtCsdGrGZaRBwMb_3syn10punctuated10PunctuatedNtCsaKzlTDPUHDb_11proc_macro25IdentNtNtBP_5token5CommaENtNtBP_5error5ErrorEINtNtNtB7_3ops9try_trait12FromResidualIBy_NtNtB7_7convert10InfallibleB2o_EE13from_residualCsfMaSMcsiNJc_15wiggle_generate, symObjAddr: 0x64B0, symBinAddr: 0x4D180, symSize: 0x60 }
  - { offset: 0xDC9DD, size: 0x8, addend: 0x0, symName: __RNvXsq_NtCsieiGu2EXtoJ_4core6resultINtB5_6ResultINtNtCsdGrGZaRBwMb_3syn10punctuated10PunctuatedNtNtBP_3lit6LitStrNtNtBP_5token5CommaENtNtBP_5error5ErrorEINtNtNtB7_3ops9try_trait12FromResidualIBy_NtNtB7_7convert10InfallibleB27_EE13from_residualCsfMaSMcsiNJc_15wiggle_generate, symObjAddr: 0x6510, symBinAddr: 0x4D1E0, symSize: 0x60 }
  - { offset: 0xDCA62, size: 0x8, addend: 0x0, symName: __RNvXsq_NtCsieiGu2EXtoJ_4core6resultINtB5_6ResultINtNtCsdGrGZaRBwMb_3syn10punctuated10PunctuatedNtNtCsfMaSMcsiNJc_15wiggle_generate6config11ConfigFieldNtNtBP_5token5CommaENtNtBP_5error5ErrorEINtNtNtB7_3ops9try_trait12FromResidualIBy_NtNtB7_7convert10InfallibleB2I_EE13from_residualB1z_, symObjAddr: 0x6570, symBinAddr: 0x4D240, symSize: 0x60 }
  - { offset: 0xDCAE7, size: 0x8, addend: 0x0, symName: __RNvXsq_NtCsieiGu2EXtoJ_4core6resultINtB5_6ResultINtNtCsdGrGZaRBwMb_3syn10punctuated10PunctuatedNtNtCsfMaSMcsiNJc_15wiggle_generate6config13FunctionFieldNtNtBP_5token5CommaENtNtBP_5error5ErrorEINtNtNtB7_3ops9try_trait12FromResidualIBy_NtNtB7_7convert10InfallibleB2K_EE13from_residualB1z_, symObjAddr: 0x65D0, symBinAddr: 0x4D2A0, symSize: 0x60 }
  - { offset: 0xDCB6C, size: 0x8, addend: 0x0, symName: __RNvXsq_NtCsieiGu2EXtoJ_4core6resultINtB5_6ResultINtNtCsdGrGZaRBwMb_3syn10punctuated10PunctuatedNtNtCsfMaSMcsiNJc_15wiggle_generate6config14ErrorConfFieldNtNtBP_5token5CommaENtNtBP_5error5ErrorEINtNtNtB7_3ops9try_trait12FromResidualIBy_NtNtB7_7convert10InfallibleB2L_EE13from_residualB1z_, symObjAddr: 0x6630, symBinAddr: 0x4D300, symSize: 0x60 }
  - { offset: 0xDCBF1, size: 0x8, addend: 0x0, symName: __RNvXsq_NtCsieiGu2EXtoJ_4core6resultINtB5_6ResultINtNtCsdGrGZaRBwMb_3syn10punctuated10PunctuatedNtNtCsfMaSMcsiNJc_15wiggle_generate6config19WasmtimeConfigFieldNtNtBP_5token5CommaENtNtBP_5error5ErrorEINtNtNtB7_3ops9try_trait12FromResidualIBy_NtNtB7_7convert10InfallibleB2Q_EE13from_residualB1z_, symObjAddr: 0x6690, symBinAddr: 0x4D360, symSize: 0x60 }
  - { offset: 0xDCC76, size: 0x8, addend: 0x0, symName: __RNvXsq_NtCsieiGu2EXtoJ_4core6resultINtB5_6ResultINtNtCslJiobkLta79_5alloc3vec3VecNtNtCsfMaSMcsiNJc_15wiggle_generate16codegen_settings9ErrorTypeENtCs5LsBMV3VaIp_6anyhow5ErrorEINtNtNtB7_3ops9try_trait12FromResidualIBy_NtNtB7_7convert10InfallibleB2j_EE13from_residualB1l_, symObjAddr: 0x66F0, symBinAddr: 0x4D3C0, symSize: 0x30 }
  - { offset: 0xDCCDD, size: 0x8, addend: 0x0, symName: __RNvXsq_NtCsieiGu2EXtoJ_4core6resultINtB5_6ResultNtNtCsfMaSMcsiNJc_15wiggle_generate16codegen_settings14ErrorTransformNtCs5LsBMV3VaIp_6anyhow5ErrorEINtNtNtB7_3ops9try_trait12FromResidualIBy_NtNtB7_7convert10InfallibleB1R_EE13from_residualBO_, symObjAddr: 0x6720, symBinAddr: 0x4D3F0, symSize: 0x30 }
  - { offset: 0xDCD44, size: 0x8, addend: 0x0, symName: __RNvXsq_NtCsieiGu2EXtoJ_4core6resultINtB5_6ResultNtNtCsfMaSMcsiNJc_15wiggle_generate16codegen_settings15CodegenSettingsNtCs5LsBMV3VaIp_6anyhow5ErrorEINtNtNtB7_3ops9try_trait12FromResidualIBy_NtNtB7_7convert10InfallibleB1S_EE13from_residualBO_, symObjAddr: 0x6750, symBinAddr: 0x4D420, symSize: 0x30 }
  - { offset: 0xDCDAB, size: 0x8, addend: 0x0, symName: __RNvXsq_NtCsieiGu2EXtoJ_4core6resultINtB5_6ResultNtNtCsfMaSMcsiNJc_15wiggle_generate6config11ConfigFieldNtNtCsdGrGZaRBwMb_3syn5error5ErrorEINtNtNtB7_3ops9try_trait12FromResidualIBy_NtNtB7_7convert10InfallibleB1D_EE13from_residualBO_, symObjAddr: 0x6780, symBinAddr: 0x4D450, symSize: 0x60 }
  - { offset: 0xDCE30, size: 0x8, addend: 0x0, symName: __RNvXsq_NtCsieiGu2EXtoJ_4core6resultINtB5_6ResultNtNtCsfMaSMcsiNJc_15wiggle_generate6config11TracingConfNtNtCsdGrGZaRBwMb_3syn5error5ErrorEINtNtNtB7_3ops9try_trait12FromResidualIBy_NtNtB7_7convert10InfallibleB1D_EE13from_residualBO_, symObjAddr: 0x67E0, symBinAddr: 0x4D4B0, symSize: 0x60 }
  - { offset: 0xDCEB5, size: 0x8, addend: 0x0, symName: __RNvXsq_NtCsieiGu2EXtoJ_4core6resultINtB5_6ResultNtNtCsfMaSMcsiNJc_15wiggle_generate6config13FunctionFieldNtNtCsdGrGZaRBwMb_3syn5error5ErrorEINtNtNtB7_3ops9try_trait12FromResidualIBy_NtNtB7_7convert10InfallibleB1F_EE13from_residualBO_, symObjAddr: 0x6840, symBinAddr: 0x4D510, symSize: 0x60 }
  - { offset: 0xDCF3A, size: 0x8, addend: 0x0, symName: __RNvXsq_NtCsieiGu2EXtoJ_4core6resultINtB5_6ResultNtNtCsfMaSMcsiNJc_15wiggle_generate6config14AsyncFunctionsNtNtCsdGrGZaRBwMb_3syn5error5ErrorEINtNtNtB7_3ops9try_trait12FromResidualIBy_NtNtB7_7convert10InfallibleB1G_EE13from_residualBO_, symObjAddr: 0x68A0, symBinAddr: 0x4D570, symSize: 0x60 }
  - { offset: 0xDCFBF, size: 0x8, addend: 0x0, symName: __RNvXsq_NtCsieiGu2EXtoJ_4core6resultINtB5_6ResultNtNtCsfMaSMcsiNJc_15wiggle_generate6config14ErrorConfFieldNtNtCsdGrGZaRBwMb_3syn5error5ErrorEINtNtNtB7_3ops9try_trait12FromResidualIBy_NtNtB7_7convert10InfallibleB1G_EE13from_residualBO_, symObjAddr: 0x6900, symBinAddr: 0x4D5D0, symSize: 0x60 }
  - { offset: 0xDD044, size: 0x8, addend: 0x0, symName: __RNvXsq_NtCsieiGu2EXtoJ_4core6resultINtB5_6ResultNtNtCsfMaSMcsiNJc_15wiggle_generate6config14WasmtimeConfigNtNtCsdGrGZaRBwMb_3syn5error5ErrorEINtNtNtB7_3ops9try_trait12FromResidualIBy_NtNtB7_7convert10InfallibleB1G_EE13from_residualBO_, symObjAddr: 0x6960, symBinAddr: 0x4D630, symSize: 0x60 }
  - { offset: 0xDD0C9, size: 0x8, addend: 0x0, symName: __RNvXsq_NtCsieiGu2EXtoJ_4core6resultINtB5_6ResultNtNtCsfMaSMcsiNJc_15wiggle_generate6config19WasmtimeConfigFieldNtNtCsdGrGZaRBwMb_3syn5error5ErrorEINtNtNtB7_3ops9try_trait12FromResidualIBy_NtNtB7_7convert10InfallibleB1L_EE13from_residualBO_, symObjAddr: 0x69C0, symBinAddr: 0x4D690, symSize: 0x60 }
  - { offset: 0xDD14E, size: 0x8, addend: 0x0, symName: __RNvXsq_NtCsieiGu2EXtoJ_4core6resultINtB5_6ResultNtNtCsfMaSMcsiNJc_15wiggle_generate6config5PathsNtNtCsdGrGZaRBwMb_3syn5error5ErrorEINtNtNtB7_3ops9try_trait12FromResidualIBy_NtNtB7_7convert10InfallibleB1w_EE13from_residualBO_, symObjAddr: 0x6A20, symBinAddr: 0x4D6F0, symSize: 0x60 }
  - { offset: 0xDD1D3, size: 0x8, addend: 0x0, symName: __RNvXsq_NtCsieiGu2EXtoJ_4core6resultINtB5_6ResultNtNtCsfMaSMcsiNJc_15wiggle_generate6config6ConfigNtNtCsdGrGZaRBwMb_3syn5error5ErrorEINtNtNtB7_3ops9try_trait12FromResidualIBy_NtNtB7_7convert10InfallibleB1x_EE13from_residualBO_, symObjAddr: 0x6A80, symBinAddr: 0x4D750, symSize: 0x60 }
  - { offset: 0xDD258, size: 0x8, addend: 0x0, symName: __RNvXsq_NtCsieiGu2EXtoJ_4core6resultINtB5_6ResultNtNtCsfMaSMcsiNJc_15wiggle_generate6config7LiteralNtNtCsdGrGZaRBwMb_3syn5error5ErrorEINtNtNtB7_3ops9try_trait12FromResidualIBy_NtNtB7_7convert10InfallibleB1y_EE13from_residualBO_, symObjAddr: 0x6AE0, symBinAddr: 0x4D7B0, symSize: 0x60 }
  - { offset: 0xDD2DD, size: 0x8, addend: 0x0, symName: __RNvXsq_NtCsieiGu2EXtoJ_4core6resultINtB5_6ResultNtNtCsfMaSMcsiNJc_15wiggle_generate6config9ErrorConfNtNtCsdGrGZaRBwMb_3syn5error5ErrorEINtNtNtB7_3ops9try_trait12FromResidualIBy_NtNtB7_7convert10InfallibleB1A_EE13from_residualBO_, symObjAddr: 0x6B40, symBinAddr: 0x4D810, symSize: 0x60 }
  - { offset: 0xDD362, size: 0x8, addend: 0x0, symName: __RNvXsq_NtCsieiGu2EXtoJ_4core6resultINtB5_6ResultNtNtNtCsfMaSMcsiNJc_15wiggle_generate6config2kw11disable_forNtNtCsdGrGZaRBwMb_3syn5error5ErrorEINtNtNtB7_3ops9try_trait12FromResidualIBy_NtNtB7_7convert10InfallibleB1I_EE13from_residualBQ_, symObjAddr: 0x6BA0, symBinAddr: 0x4D870, symSize: 0x50 }
  - { offset: 0xDD3E7, size: 0x8, addend: 0x0, symName: __RNvXsq_NtCsieiGu2EXtoJ_4core6resultINtB5_6ResultNtNtNtCsfMaSMcsiNJc_15wiggle_generate6config2kw12witx_literalNtNtCsdGrGZaRBwMb_3syn5error5ErrorEINtNtNtB7_3ops9try_trait12FromResidualIBy_NtNtB7_7convert10InfallibleB1J_EE13from_residualBQ_, symObjAddr: 0x6BF0, symBinAddr: 0x4D8C0, symSize: 0x50 }
  - { offset: 0xDD46C, size: 0x8, addend: 0x0, symName: __RNvXsq_NtCsieiGu2EXtoJ_4core6resultINtB5_6ResultNtNtNtCsfMaSMcsiNJc_15wiggle_generate6config2kw4witxNtNtCsdGrGZaRBwMb_3syn5error5ErrorEINtNtNtB7_3ops9try_trait12FromResidualIBy_NtNtB7_7convert10InfallibleB1A_EE13from_residualBQ_, symObjAddr: 0x6C40, symBinAddr: 0x4D910, symSize: 0x50 }
  - { offset: 0xDD4F1, size: 0x8, addend: 0x0, symName: __RNvXsq_NtCsieiGu2EXtoJ_4core6resultINtB5_6ResultNtNtNtCsfMaSMcsiNJc_15wiggle_generate6config2kw6errorsNtNtCsdGrGZaRBwMb_3syn5error5ErrorEINtNtNtB7_3ops9try_trait12FromResidualIBy_NtNtB7_7convert10InfallibleB1C_EE13from_residualBQ_, symObjAddr: 0x6C90, symBinAddr: 0x4D960, symSize: 0x50 }
  - { offset: 0xDD576, size: 0x8, addend: 0x0, symName: __RNvXsq_NtCsieiGu2EXtoJ_4core6resultINtB5_6ResultNtNtNtCsfMaSMcsiNJc_15wiggle_generate6config2kw6targetNtNtCsdGrGZaRBwMb_3syn5error5ErrorEINtNtNtB7_3ops9try_trait12FromResidualIBy_NtNtB7_7convert10InfallibleB1C_EE13from_residualBQ_, symObjAddr: 0x6CE0, symBinAddr: 0x4D9B0, symSize: 0x50 }
  - { offset: 0xDD5FB, size: 0x8, addend: 0x0, symName: __RNvXsq_NtCsieiGu2EXtoJ_4core6resultINtB5_6ResultNtNtNtCsfMaSMcsiNJc_15wiggle_generate6config2kw7mutableNtNtCsdGrGZaRBwMb_3syn5error5ErrorEINtNtNtB7_3ops9try_trait12FromResidualIBy_NtNtB7_7convert10InfallibleB1D_EE13from_residualBQ_, symObjAddr: 0x6D30, symBinAddr: 0x4DA00, symSize: 0x50 }
  - { offset: 0xDD680, size: 0x8, addend: 0x0, symName: __RNvXsq_NtCsieiGu2EXtoJ_4core6resultINtB5_6ResultNtNtNtCsfMaSMcsiNJc_15wiggle_generate6config2kw7tracingNtNtCsdGrGZaRBwMb_3syn5error5ErrorEINtNtNtB7_3ops9try_trait12FromResidualIBy_NtNtB7_7convert10InfallibleB1D_EE13from_residualBQ_, symObjAddr: 0x6D80, symBinAddr: 0x4DA50, symSize: 0x50 }
  - { offset: 0xDD705, size: 0x8, addend: 0x0, symName: __RNvXsq_NtCsieiGu2EXtoJ_4core6resultINtB5_6ResultNtNtNtCsfMaSMcsiNJc_15wiggle_generate6config2kw8block_onNtNtCsdGrGZaRBwMb_3syn5error5ErrorEINtNtNtB7_3ops9try_trait12FromResidualIBy_NtNtB7_7convert10InfallibleB1E_EE13from_residualBQ_, symObjAddr: 0x6DD0, symBinAddr: 0x4DAA0, symSize: 0x50 }
  - { offset: 0xDD78A, size: 0x8, addend: 0x0, symName: __RNvXsq_NtCsieiGu2EXtoJ_4core6resultINtB5_6ResultNtNtNtCsfMaSMcsiNJc_15wiggle_generate6config2kw8wasmtimeNtNtCsdGrGZaRBwMb_3syn5error5ErrorEINtNtNtB7_3ops9try_trait12FromResidualIBy_NtNtB7_7convert10InfallibleB1E_EE13from_residualBQ_, symObjAddr: 0x6E20, symBinAddr: 0x4DAF0, symSize: 0x50 }
  - { offset: 0xDD80F, size: 0x8, addend: 0x0, symName: __RNvXsq_NtCsieiGu2EXtoJ_4core6resultINtB5_6ResultNtNtNtCsfMaSMcsiNJc_15wiggle_generate6config2kw9trappableNtNtCsdGrGZaRBwMb_3syn5error5ErrorEINtNtNtB7_3ops9try_trait12FromResidualIBy_NtNtB7_7convert10InfallibleB1F_EE13from_residualBQ_, symObjAddr: 0x6E70, symBinAddr: 0x4DB40, symSize: 0x50 }
  - { offset: 0xDEFA4, size: 0x8, addend: 0x0, symName: __RINvYINtNtNtCslJiobkLta79_5alloc3vec5drain5DrainNtCsaKzlTDPUHDb_11proc_macro211TokenStreamENtNtNtNtCsieiGu2EXtoJ_4core4iter6traits8iterator8Iterator4folduNCINvNvB1r_8for_each4callBK_NCINvMsi_B8_INtB8_3VecBK_E14extend_trustedB3_E0E0ECsfMaSMcsiNJc_15wiggle_generate, symObjAddr: 0x110, symBinAddr: 0x47760, symSize: 0x120 }
  - { offset: 0xDF098, size: 0x8, addend: 0x0, symName: __RINvYINtNtNtCslJiobkLta79_5alloc3vec5drain5DrainNtCsaKzlTDPUHDb_11proc_macro211TokenStreamENtNtNtNtCsieiGu2EXtoJ_4core4iter6traits8iterator8Iterator8for_eachNCINvMsi_B8_INtB8_3VecBK_E14extend_trustedB3_E0ECsfMaSMcsiNJc_15wiggle_generate, symObjAddr: 0x230, symBinAddr: 0x47880, symSize: 0x30 }
  - { offset: 0xDF103, size: 0x8, addend: 0x0, symName: __RINvYNtNtCsaKzlTDPUHDb_11proc_macro212token_stream8IntoIterNtNtNtNtCsieiGu2EXtoJ_4core4iter6traits8iterator8Iterator4folduNCINvNvBV_8for_each4callNtB7_9TokenTreeNCINvXsa_NtB7_8fallbackNtB2I_11TokenStreamINtNtBZ_7collect6ExtendB2k_E6extendNtB7_11TokenStreamE0E0ECsfMaSMcsiNJc_15wiggle_generate, symObjAddr: 0x260, symBinAddr: 0x478B0, symSize: 0x100 }
  - { offset: 0xDF195, size: 0x8, addend: 0x0, symName: __RINvYNtNtCsaKzlTDPUHDb_11proc_macro212token_stream8IntoIterNtNtNtNtCsieiGu2EXtoJ_4core4iter6traits8iterator8Iterator8for_eachNCINvXsa_NtB7_8fallbackNtB28_11TokenStreamINtNtBZ_7collect6ExtendNtB7_9TokenTreeE6extendNtB7_11TokenStreamE0ECsfMaSMcsiNJc_15wiggle_generate, symObjAddr: 0x360, symBinAddr: 0x479B0, symSize: 0x20 }
  - { offset: 0xDF1ED, size: 0x8, addend: 0x0, symName: __RNvXNtNtNtCsieiGu2EXtoJ_4core4iter6traits7collectINtNtNtCslJiobkLta79_5alloc3vec5drain5DrainNtCsaKzlTDPUHDb_11proc_macro211TokenStreamENtB2_12IntoIterator9into_iterCsfMaSMcsiNJc_15wiggle_generate, symObjAddr: 0x2550, symBinAddr: 0x49BA0, symSize: 0x30 }
  - { offset: 0xDF43A, size: 0x8, addend: 0x0, symName: __RNvNtNtCsieiGu2EXtoJ_4core4char7methods25encode_utf8_raw_uncheckedCsfMaSMcsiNJc_15wiggle_generate, symObjAddr: 0x1C30, symBinAddr: 0x49280, symSize: 0x140 }
  - { offset: 0xE2518, size: 0x8, addend: 0x0, symName: __RNvXs1e_CscKtU6MdFI5n_10proc_macroNtB6_5IdentNtNtCsieiGu2EXtoJ_4core5clone5Clone5cloneCsfMaSMcsiNJc_15wiggle_generate, symObjAddr: 0x30B0, symBinAddr: 0x4A2A0, symSize: 0x40 }
  - { offset: 0xE254C, size: 0x8, addend: 0x0, symName: __RNvXsU_CscKtU6MdFI5n_10proc_macroNtB5_11TokenStreamNtNtCsieiGu2EXtoJ_4core5clone5Clone5cloneCsfMaSMcsiNJc_15wiggle_generate, symObjAddr: 0x39D0, symBinAddr: 0x4A6C0, symSize: 0x50 }
  - { offset: 0xE2BE0, size: 0x8, addend: 0x0, symName: __RINvMNtCsieiGu2EXtoJ_4core6resultINtB3_6ResultNtNtCslJiobkLta79_5alloc6string6StringNtNtCsHUR1vrdMJt_3std3env8VarErrorE3mapINtNtB5_6option6OptionBI_ENcNtB1X_4Some0ECsfMaSMcsiNJc_15wiggle_generate, symObjAddr: 0x0, symBinAddr: 0x47650, symSize: 0xE0 }
  - { offset: 0xE2CF1, size: 0x8, addend: 0x0, symName: __RNCNvXs0_NvNtNtCsfMaSMcsiNJc_15wiggle_generate6config2kw1__NtB9_4witxNtNtCsdGrGZaRBwMb_3syn5parse5Parse5parse0Bd_, symObjAddr: 0x3B0, symBinAddr: 0x47A00, symSize: 0x240 }
  - { offset: 0xE2D4E, size: 0x8, addend: 0x0, symName: __RNCNvXs0_NvNtNtCsfMaSMcsiNJc_15wiggle_generate6config2kws0_1__NtB9_8block_onNtNtCsdGrGZaRBwMb_3syn5parse5Parse5parse0Bd_, symObjAddr: 0x5F0, symBinAddr: 0x47C40, symSize: 0x240 }
  - { offset: 0xE2DAB, size: 0x8, addend: 0x0, symName: __RNCNvXs0_NvNtNtCsfMaSMcsiNJc_15wiggle_generate6config2kws1_1__NtB9_6errorsNtNtCsdGrGZaRBwMb_3syn5parse5Parse5parse0Bd_, symObjAddr: 0x830, symBinAddr: 0x47E80, symSize: 0x240 }
  - { offset: 0xE2E08, size: 0x8, addend: 0x0, symName: __RNCNvXs0_NvNtNtCsfMaSMcsiNJc_15wiggle_generate6config2kws2_1__NtB9_6targetNtNtCsdGrGZaRBwMb_3syn5parse5Parse5parse0Bd_, symObjAddr: 0xA70, symBinAddr: 0x480C0, symSize: 0x240 }
  - { offset: 0xE2E65, size: 0x8, addend: 0x0, symName: __RNCNvXs0_NvNtNtCsfMaSMcsiNJc_15wiggle_generate6config2kws3_1__NtB9_8wasmtimeNtNtCsdGrGZaRBwMb_3syn5parse5Parse5parse0Bd_, symObjAddr: 0xCB0, symBinAddr: 0x48300, symSize: 0x240 }
  - { offset: 0xE2EC2, size: 0x8, addend: 0x0, symName: __RNCNvXs0_NvNtNtCsfMaSMcsiNJc_15wiggle_generate6config2kws4_1__NtB9_7mutableNtNtCsdGrGZaRBwMb_3syn5parse5Parse5parse0Bd_, symObjAddr: 0xEF0, symBinAddr: 0x48540, symSize: 0x240 }
  - { offset: 0xE2F1F, size: 0x8, addend: 0x0, symName: __RNCNvXs0_NvNtNtCsfMaSMcsiNJc_15wiggle_generate6config2kws5_1__NtB9_7tracingNtNtCsdGrGZaRBwMb_3syn5parse5Parse5parse0Bd_, symObjAddr: 0x1130, symBinAddr: 0x48780, symSize: 0x240 }
  - { offset: 0xE2F7C, size: 0x8, addend: 0x0, symName: __RNCNvXs0_NvNtNtCsfMaSMcsiNJc_15wiggle_generate6config2kws6_1__NtB9_11disable_forNtNtCsdGrGZaRBwMb_3syn5parse5Parse5parse0Bd_, symObjAddr: 0x1370, symBinAddr: 0x489C0, symSize: 0x240 }
  - { offset: 0xE2FD9, size: 0x8, addend: 0x0, symName: __RNCNvXs0_NvNtNtCsfMaSMcsiNJc_15wiggle_generate6config2kws7_1__NtB9_9trappableNtNtCsdGrGZaRBwMb_3syn5parse5Parse5parse0Bd_, symObjAddr: 0x15B0, symBinAddr: 0x48C00, symSize: 0x240 }
  - { offset: 0xE3036, size: 0x8, addend: 0x0, symName: __RNCNvXs0_NvNtNtCsfMaSMcsiNJc_15wiggle_generate6config2kws_1__NtB9_12witx_literalNtNtCsdGrGZaRBwMb_3syn5parse5Parse5parse0Bd_, symObjAddr: 0x17F0, symBinAddr: 0x48E40, symSize: 0x240 }
  - { offset: 0xE30DA, size: 0x8, addend: 0x0, symName: __RNvXs0_NvNtNtCsfMaSMcsiNJc_15wiggle_generate6config2kw1__NtB7_4witxNtNtCsdGrGZaRBwMb_3syn5parse5Parse5parse, symObjAddr: 0x2B80, symBinAddr: 0x4A090, symSize: 0x30 }
  - { offset: 0xE3106, size: 0x8, addend: 0x0, symName: __RNvXs0_NvNtNtCsfMaSMcsiNJc_15wiggle_generate6config2kws0_1__NtB7_8block_onNtNtCsdGrGZaRBwMb_3syn5parse5Parse5parse, symObjAddr: 0x2BB0, symBinAddr: 0x4A0C0, symSize: 0x30 }
  - { offset: 0xE3132, size: 0x8, addend: 0x0, symName: __RNvXs0_NvNtNtCsfMaSMcsiNJc_15wiggle_generate6config2kws1_1__NtB7_6errorsNtNtCsdGrGZaRBwMb_3syn5parse5Parse5parse, symObjAddr: 0x2BE0, symBinAddr: 0x4A0F0, symSize: 0x30 }
  - { offset: 0xE315E, size: 0x8, addend: 0x0, symName: __RNvXs0_NvNtNtCsfMaSMcsiNJc_15wiggle_generate6config2kws2_1__NtB7_6targetNtNtCsdGrGZaRBwMb_3syn5parse5Parse5parse, symObjAddr: 0x2C10, symBinAddr: 0x4A120, symSize: 0x30 }
  - { offset: 0xE318A, size: 0x8, addend: 0x0, symName: __RNvXs0_NvNtNtCsfMaSMcsiNJc_15wiggle_generate6config2kws3_1__NtB7_8wasmtimeNtNtCsdGrGZaRBwMb_3syn5parse5Parse5parse, symObjAddr: 0x2C40, symBinAddr: 0x4A150, symSize: 0x30 }
  - { offset: 0xE31B6, size: 0x8, addend: 0x0, symName: __RNvXs0_NvNtNtCsfMaSMcsiNJc_15wiggle_generate6config2kws4_1__NtB7_7mutableNtNtCsdGrGZaRBwMb_3syn5parse5Parse5parse, symObjAddr: 0x2C70, symBinAddr: 0x4A180, symSize: 0x30 }
  - { offset: 0xE31E2, size: 0x8, addend: 0x0, symName: __RNvXs0_NvNtNtCsfMaSMcsiNJc_15wiggle_generate6config2kws5_1__NtB7_7tracingNtNtCsdGrGZaRBwMb_3syn5parse5Parse5parse, symObjAddr: 0x2CA0, symBinAddr: 0x4A1B0, symSize: 0x30 }
  - { offset: 0xE320E, size: 0x8, addend: 0x0, symName: __RNvXs0_NvNtNtCsfMaSMcsiNJc_15wiggle_generate6config2kws6_1__NtB7_11disable_forNtNtCsdGrGZaRBwMb_3syn5parse5Parse5parse, symObjAddr: 0x2CD0, symBinAddr: 0x4A1E0, symSize: 0x30 }
  - { offset: 0xE323A, size: 0x8, addend: 0x0, symName: __RNvXs0_NvNtNtCsfMaSMcsiNJc_15wiggle_generate6config2kws7_1__NtB7_9trappableNtNtCsdGrGZaRBwMb_3syn5parse5Parse5parse, symObjAddr: 0x2D00, symBinAddr: 0x4A210, symSize: 0x30 }
  - { offset: 0xE3266, size: 0x8, addend: 0x0, symName: __RNvXs0_NvNtNtCsfMaSMcsiNJc_15wiggle_generate6config2kws_1__NtB7_12witx_literalNtNtCsdGrGZaRBwMb_3syn5parse5Parse5parse, symObjAddr: 0x2D30, symBinAddr: 0x4A240, symSize: 0x30 }
  - { offset: 0xE3298, size: 0x8, addend: 0x0, symName: __RNvXs_NvNtNtCsfMaSMcsiNJc_15wiggle_generate6config2kw1__NtB6_4witxNtNtNtCsdGrGZaRBwMb_3syn5token7private11CustomToken4peek, symObjAddr: 0x3A20, symBinAddr: 0x4A710, symSize: 0xF0 }
  - { offset: 0xE32E9, size: 0x8, addend: 0x0, symName: __RNvXs_NvNtNtCsfMaSMcsiNJc_15wiggle_generate6config2kw1__NtB6_4witxNtNtNtCsdGrGZaRBwMb_3syn5token7private11CustomToken7display, symObjAddr: 0x3B10, symBinAddr: 0x4A800, symSize: 0x20 }
  - { offset: 0xE3306, size: 0x8, addend: 0x0, symName: __RNvXs_NvNtNtCsfMaSMcsiNJc_15wiggle_generate6config2kws0_1__NtB6_8block_onNtNtNtCsdGrGZaRBwMb_3syn5token7private11CustomToken4peek, symObjAddr: 0x3B30, symBinAddr: 0x4A820, symSize: 0xF0 }
  - { offset: 0xE3357, size: 0x8, addend: 0x0, symName: __RNvXs_NvNtNtCsfMaSMcsiNJc_15wiggle_generate6config2kws0_1__NtB6_8block_onNtNtNtCsdGrGZaRBwMb_3syn5token7private11CustomToken7display, symObjAddr: 0x3C20, symBinAddr: 0x4A910, symSize: 0x20 }
  - { offset: 0xE3374, size: 0x8, addend: 0x0, symName: __RNvXs_NvNtNtCsfMaSMcsiNJc_15wiggle_generate6config2kws1_1__NtB6_6errorsNtNtNtCsdGrGZaRBwMb_3syn5token7private11CustomToken4peek, symObjAddr: 0x3C40, symBinAddr: 0x4A930, symSize: 0xF0 }
  - { offset: 0xE33C5, size: 0x8, addend: 0x0, symName: __RNvXs_NvNtNtCsfMaSMcsiNJc_15wiggle_generate6config2kws1_1__NtB6_6errorsNtNtNtCsdGrGZaRBwMb_3syn5token7private11CustomToken7display, symObjAddr: 0x3D30, symBinAddr: 0x4AA20, symSize: 0x20 }
  - { offset: 0xE33E2, size: 0x8, addend: 0x0, symName: __RNvXs_NvNtNtCsfMaSMcsiNJc_15wiggle_generate6config2kws2_1__NtB6_6targetNtNtNtCsdGrGZaRBwMb_3syn5token7private11CustomToken4peek, symObjAddr: 0x3D50, symBinAddr: 0x4AA40, symSize: 0xF0 }
  - { offset: 0xE3433, size: 0x8, addend: 0x0, symName: __RNvXs_NvNtNtCsfMaSMcsiNJc_15wiggle_generate6config2kws3_1__NtB6_8wasmtimeNtNtNtCsdGrGZaRBwMb_3syn5token7private11CustomToken4peek, symObjAddr: 0x3E60, symBinAddr: 0x4AB30, symSize: 0xF0 }
  - { offset: 0xE3484, size: 0x8, addend: 0x0, symName: __RNvXs_NvNtNtCsfMaSMcsiNJc_15wiggle_generate6config2kws3_1__NtB6_8wasmtimeNtNtNtCsdGrGZaRBwMb_3syn5token7private11CustomToken7display, symObjAddr: 0x3F50, symBinAddr: 0x4AC20, symSize: 0x20 }
  - { offset: 0xE34A1, size: 0x8, addend: 0x0, symName: __RNvXs_NvNtNtCsfMaSMcsiNJc_15wiggle_generate6config2kws4_1__NtB6_7mutableNtNtNtCsdGrGZaRBwMb_3syn5token7private11CustomToken4peek, symObjAddr: 0x3F70, symBinAddr: 0x4AC40, symSize: 0xF0 }
  - { offset: 0xE34F2, size: 0x8, addend: 0x0, symName: __RNvXs_NvNtNtCsfMaSMcsiNJc_15wiggle_generate6config2kws4_1__NtB6_7mutableNtNtNtCsdGrGZaRBwMb_3syn5token7private11CustomToken7display, symObjAddr: 0x4060, symBinAddr: 0x4AD30, symSize: 0x20 }
  - { offset: 0xE350F, size: 0x8, addend: 0x0, symName: __RNvXs_NvNtNtCsfMaSMcsiNJc_15wiggle_generate6config2kws5_1__NtB6_7tracingNtNtNtCsdGrGZaRBwMb_3syn5token7private11CustomToken4peek, symObjAddr: 0x4080, symBinAddr: 0x4AD50, symSize: 0xF0 }
  - { offset: 0xE3560, size: 0x8, addend: 0x0, symName: __RNvXs_NvNtNtCsfMaSMcsiNJc_15wiggle_generate6config2kws5_1__NtB6_7tracingNtNtNtCsdGrGZaRBwMb_3syn5token7private11CustomToken7display, symObjAddr: 0x4170, symBinAddr: 0x4AE40, symSize: 0x20 }
  - { offset: 0xE357D, size: 0x8, addend: 0x0, symName: __RNvXs_NvNtNtCsfMaSMcsiNJc_15wiggle_generate6config2kws6_1__NtB6_11disable_forNtNtNtCsdGrGZaRBwMb_3syn5token7private11CustomToken4peek, symObjAddr: 0x4190, symBinAddr: 0x4AE60, symSize: 0xF0 }
  - { offset: 0xE35CE, size: 0x8, addend: 0x0, symName: __RNvXs_NvNtNtCsfMaSMcsiNJc_15wiggle_generate6config2kws6_1__NtB6_11disable_forNtNtNtCsdGrGZaRBwMb_3syn5token7private11CustomToken7display, symObjAddr: 0x4280, symBinAddr: 0x4AF50, symSize: 0x20 }
  - { offset: 0xE35EB, size: 0x8, addend: 0x0, symName: __RNvXs_NvNtNtCsfMaSMcsiNJc_15wiggle_generate6config2kws7_1__NtB6_9trappableNtNtNtCsdGrGZaRBwMb_3syn5token7private11CustomToken4peek, symObjAddr: 0x42A0, symBinAddr: 0x4AF70, symSize: 0xF0 }
  - { offset: 0xE363C, size: 0x8, addend: 0x0, symName: __RNvXs_NvNtNtCsfMaSMcsiNJc_15wiggle_generate6config2kws7_1__NtB6_9trappableNtNtNtCsdGrGZaRBwMb_3syn5token7private11CustomToken7display, symObjAddr: 0x4390, symBinAddr: 0x4B060, symSize: 0x20 }
  - { offset: 0xE3659, size: 0x8, addend: 0x0, symName: __RNvXs_NvNtNtCsfMaSMcsiNJc_15wiggle_generate6config2kws_1__NtB6_12witx_literalNtNtNtCsdGrGZaRBwMb_3syn5token7private11CustomToken4peek, symObjAddr: 0x43B0, symBinAddr: 0x4B080, symSize: 0xF0 }
  - { offset: 0xE36AA, size: 0x8, addend: 0x0, symName: __RNvXs_NvNtNtCsfMaSMcsiNJc_15wiggle_generate6config2kws_1__NtB6_12witx_literalNtNtNtCsdGrGZaRBwMb_3syn5token7private11CustomToken7display, symObjAddr: 0x44A0, symBinAddr: 0x4B170, symSize: 0x20 }
  - { offset: 0xE3CF6, size: 0x8, addend: 0x0, symName: __RNvMNtCsieiGu2EXtoJ_4core6resultINtB2_6ResultINtNtCslJiobkLta79_5alloc6borrow3CoweEINtCsi88DhWbSVU_11shellexpand11LookupErrorNtNtCsHUR1vrdMJt_3std3env8VarErrorEE6expectCsfMaSMcsiNJc_15wiggle_generate, symObjAddr: 0x1A30, symBinAddr: 0x49080, symSize: 0x100 }
  - { offset: 0xE4146, size: 0x8, addend: 0x0, symName: __RNvXs1_NtCsjK30CmJ87bX_9hashbrown10scopeguardINtB5_10ScopeGuardTjQINtNtB7_3raw8RawTableTNtNtCslJiobkLta79_5alloc6string6StringINtNtB1s_3vec3VecB1o_EEEENCNvMse_B15_B12_15clone_from_impl0ENtNtNtCsieiGu2EXtoJ_4core3ops4drop4Drop4dropCsfMaSMcsiNJc_15wiggle_generate, symObjAddr: 0x2D60, symBinAddr: 0x4A270, symSize: 0x30 }
  - { offset: 0xE4235, size: 0x8, addend: 0x0, symName: __RNvMNtCsieiGu2EXtoJ_4core6resultINtB2_6ResultNtNtCs8QreBtO1sIU_4witx3ast8DocumentNtBL_9WitxErrorE6expectCsfMaSMcsiNJc_15wiggle_generate, symObjAddr: 0x1B30, symBinAddr: 0x49180, symSize: 0x100 }
  - { offset: 0xE4619, size: 0x8, addend: 0x0, symName: __RNvXs0_NtCsdGrGZaRBwMb_3syn5tokenNtNtNtCsfMaSMcsiNJc_15wiggle_generate6config2kw11disable_forNtB5_5Token4peekBB_, symObjAddr: 0x2880, symBinAddr: 0x49D90, symSize: 0x30 }
  - { offset: 0xE464E, size: 0x8, addend: 0x0, symName: __RNvXs0_NtCsdGrGZaRBwMb_3syn5tokenNtNtNtCsfMaSMcsiNJc_15wiggle_generate6config2kw11disable_forNtB5_5Token7displayBB_, symObjAddr: 0x28B0, symBinAddr: 0x49DC0, symSize: 0x20 }
  - { offset: 0xE4675, size: 0x8, addend: 0x0, symName: __RNvXs0_NtCsdGrGZaRBwMb_3syn5tokenNtNtNtCsfMaSMcsiNJc_15wiggle_generate6config2kw12witx_literalNtB5_5Token4peekBB_, symObjAddr: 0x28D0, symBinAddr: 0x49DE0, symSize: 0x30 }
  - { offset: 0xE46AA, size: 0x8, addend: 0x0, symName: __RNvXs0_NtCsdGrGZaRBwMb_3syn5tokenNtNtNtCsfMaSMcsiNJc_15wiggle_generate6config2kw12witx_literalNtB5_5Token7displayBB_, symObjAddr: 0x2900, symBinAddr: 0x49E10, symSize: 0x20 }
  - { offset: 0xE46D1, size: 0x8, addend: 0x0, symName: __RNvXs0_NtCsdGrGZaRBwMb_3syn5tokenNtNtNtCsfMaSMcsiNJc_15wiggle_generate6config2kw4witxNtB5_5Token4peekBB_, symObjAddr: 0x2920, symBinAddr: 0x49E30, symSize: 0x30 }
  - { offset: 0xE4706, size: 0x8, addend: 0x0, symName: __RNvXs0_NtCsdGrGZaRBwMb_3syn5tokenNtNtNtCsfMaSMcsiNJc_15wiggle_generate6config2kw4witxNtB5_5Token7displayBB_, symObjAddr: 0x2950, symBinAddr: 0x49E60, symSize: 0x20 }
  - { offset: 0xE472D, size: 0x8, addend: 0x0, symName: __RNvXs0_NtCsdGrGZaRBwMb_3syn5tokenNtNtNtCsfMaSMcsiNJc_15wiggle_generate6config2kw6errorsNtB5_5Token4peekBB_, symObjAddr: 0x2970, symBinAddr: 0x49E80, symSize: 0x30 }
  - { offset: 0xE4762, size: 0x8, addend: 0x0, symName: __RNvXs0_NtCsdGrGZaRBwMb_3syn5tokenNtNtNtCsfMaSMcsiNJc_15wiggle_generate6config2kw6errorsNtB5_5Token7displayBB_, symObjAddr: 0x29A0, symBinAddr: 0x49EB0, symSize: 0x20 }
  - { offset: 0xE4789, size: 0x8, addend: 0x0, symName: __RNvXs0_NtCsdGrGZaRBwMb_3syn5tokenNtNtNtCsfMaSMcsiNJc_15wiggle_generate6config2kw6targetNtB5_5Token4peekBB_, symObjAddr: 0x29C0, symBinAddr: 0x49ED0, symSize: 0x30 }
  - { offset: 0xE47BE, size: 0x8, addend: 0x0, symName: __RNvXs0_NtCsdGrGZaRBwMb_3syn5tokenNtNtNtCsfMaSMcsiNJc_15wiggle_generate6config2kw7mutableNtB5_5Token4peekBB_, symObjAddr: 0x29F0, symBinAddr: 0x49F00, symSize: 0x30 }
  - { offset: 0xE47F3, size: 0x8, addend: 0x0, symName: __RNvXs0_NtCsdGrGZaRBwMb_3syn5tokenNtNtNtCsfMaSMcsiNJc_15wiggle_generate6config2kw7mutableNtB5_5Token7displayBB_, symObjAddr: 0x2A20, symBinAddr: 0x49F30, symSize: 0x20 }
  - { offset: 0xE481A, size: 0x8, addend: 0x0, symName: __RNvXs0_NtCsdGrGZaRBwMb_3syn5tokenNtNtNtCsfMaSMcsiNJc_15wiggle_generate6config2kw7tracingNtB5_5Token4peekBB_, symObjAddr: 0x2A40, symBinAddr: 0x49F50, symSize: 0x30 }
  - { offset: 0xE484F, size: 0x8, addend: 0x0, symName: __RNvXs0_NtCsdGrGZaRBwMb_3syn5tokenNtNtNtCsfMaSMcsiNJc_15wiggle_generate6config2kw7tracingNtB5_5Token7displayBB_, symObjAddr: 0x2A70, symBinAddr: 0x49F80, symSize: 0x20 }
  - { offset: 0xE4876, size: 0x8, addend: 0x0, symName: __RNvXs0_NtCsdGrGZaRBwMb_3syn5tokenNtNtNtCsfMaSMcsiNJc_15wiggle_generate6config2kw8block_onNtB5_5Token4peekBB_, symObjAddr: 0x2A90, symBinAddr: 0x49FA0, symSize: 0x30 }
  - { offset: 0xE48AB, size: 0x8, addend: 0x0, symName: __RNvXs0_NtCsdGrGZaRBwMb_3syn5tokenNtNtNtCsfMaSMcsiNJc_15wiggle_generate6config2kw8block_onNtB5_5Token7displayBB_, symObjAddr: 0x2AC0, symBinAddr: 0x49FD0, symSize: 0x20 }
  - { offset: 0xE48D2, size: 0x8, addend: 0x0, symName: __RNvXs0_NtCsdGrGZaRBwMb_3syn5tokenNtNtNtCsfMaSMcsiNJc_15wiggle_generate6config2kw8wasmtimeNtB5_5Token4peekBB_, symObjAddr: 0x2AE0, symBinAddr: 0x49FF0, symSize: 0x30 }
  - { offset: 0xE4907, size: 0x8, addend: 0x0, symName: __RNvXs0_NtCsdGrGZaRBwMb_3syn5tokenNtNtNtCsfMaSMcsiNJc_15wiggle_generate6config2kw8wasmtimeNtB5_5Token7displayBB_, symObjAddr: 0x2B10, symBinAddr: 0x4A020, symSize: 0x20 }
  - { offset: 0xE492E, size: 0x8, addend: 0x0, symName: __RNvXs0_NtCsdGrGZaRBwMb_3syn5tokenNtNtNtCsfMaSMcsiNJc_15wiggle_generate6config2kw9trappableNtB5_5Token4peekBB_, symObjAddr: 0x2B30, symBinAddr: 0x4A040, symSize: 0x30 }
  - { offset: 0xE4963, size: 0x8, addend: 0x0, symName: __RNvXs0_NtCsdGrGZaRBwMb_3syn5tokenNtNtNtCsfMaSMcsiNJc_15wiggle_generate6config2kw9trappableNtB5_5Token7displayBB_, symObjAddr: 0x2B60, symBinAddr: 0x4A070, symSize: 0x20 }
  - { offset: 0xEA753, size: 0x8, addend: 0x0, symName: __RINvCs8QreBtO1sIU_4witx4loadNtNtCsHUR1vrdMJt_3std4path7PathBufECsfMaSMcsiNJc_15wiggle_generate, symObjAddr: 0x0, symBinAddr: 0x4DB90, symSize: 0x30 }
  - { offset: 0xEEDAC, size: 0x8, addend: 0x0, symName: __RINvMNtCsieiGu2EXtoJ_4core3stre4findNCINvCsi88DhWbSVU_11shellexpand16env_with_contextNtNtCslJiobkLta79_5alloc6string6StringB1l_NCINvBD_3envB1l_E0NtNtCsHUR1vrdMJt_3std3env8VarErrorE0ECsfMaSMcsiNJc_15wiggle_generate, symObjAddr: 0x30, symBinAddr: 0x4DBC0, symSize: 0xB0 }
  - { offset: 0xEEE39, size: 0x8, addend: 0x0, symName: __RINvMNtCsieiGu2EXtoJ_4core3stre4findReECsfMaSMcsiNJc_15wiggle_generate, symObjAddr: 0xE0, symBinAddr: 0x4DC70, symSize: 0xF0 }
  - { offset: 0xEEEC7, size: 0x8, addend: 0x0, symName: __RNvMNtCsieiGu2EXtoJ_4core3stre3lenCsfMaSMcsiNJc_15wiggle_generate, symObjAddr: 0x1F50, symBinAddr: 0x4FAE0, symSize: 0x20 }
  - { offset: 0xEEEF3, size: 0x8, addend: 0x0, symName: __RNvMNtCsieiGu2EXtoJ_4core3stre5charsCsfMaSMcsiNJc_15wiggle_generate, symObjAddr: 0x1F70, symBinAddr: 0x4FB00, symSize: 0x20 }
  - { offset: 0xEEF61, size: 0x8, addend: 0x0, symName: __RNvMNtCsieiGu2EXtoJ_4core3stre8is_emptyCsfMaSMcsiNJc_15wiggle_generate, symObjAddr: 0x1F90, symBinAddr: 0x4FB20, symSize: 0x20 }
  - { offset: 0xEEFFC, size: 0x8, addend: 0x0, symName: __RNvXs9_NtNtCsieiGu2EXtoJ_4core3str6traitsINtNtNtB9_3ops5range9RangeFromjEINtNtNtB9_5slice5index10SliceIndexeE3getCsfMaSMcsiNJc_15wiggle_generate, symObjAddr: 0x7120, symBinAddr: 0x54CB0, symSize: 0x130 }
  - { offset: 0xEF1F4, size: 0x8, addend: 0x0, symName: __RINvYINtNtNtCsieiGu2EXtoJ_4core3ops5range5RangejENtNtNtNtBa_4iter6traits8iterator8Iterator3mapNtCsaKzlTDPUHDb_11proc_macro25IdentNCNvNtCsfMaSMcsiNJc_15wiggle_generate5funcs12__define_func0EB29_, symObjAddr: 0x1D0, symBinAddr: 0x4DD60, symSize: 0x20 }
  - { offset: 0xEF24C, size: 0x8, addend: 0x0, symName: __RINvYINtNtNtCsieiGu2EXtoJ_4core3ops5range5RangejENtNtNtNtBa_4iter6traits8iterator8Iterator3mapNtCsaKzlTDPUHDb_11proc_macro25IdentNCNvNtCsfMaSMcsiNJc_15wiggle_generate8wasmtime13generate_func0EB29_, symObjAddr: 0x1F0, symBinAddr: 0x4DD80, symSize: 0x20 }
  - { offset: 0xEF2A4, size: 0x8, addend: 0x0, symName: __RINvYINtNtNtCsieiGu2EXtoJ_4core3ops5range5RangejENtNtNtNtBa_4iter6traits8iterator8Iterator3mapNtCsaKzlTDPUHDb_11proc_macro25IdentNCNvXs_NtCsfMaSMcsiNJc_15wiggle_generate5funcsNtB2a_4RustNtNtCs8QreBtO1sIU_4witx3abi7Bindgen4emits1_0EB2c_, symObjAddr: 0x210, symBinAddr: 0x4DDA0, symSize: 0x20 }
  - { offset: 0xEF2FC, size: 0x8, addend: 0x0, symName: __RINvYINtNtNtCsieiGu2EXtoJ_4core3ops5range5RangejENtNtNtNtBa_4iter6traits8iterator8Iterator4folduNCINvNtNtBR_8adapters3map8map_foldjNtCsaKzlTDPUHDb_11proc_macro25IdentuNCNvNtCsfMaSMcsiNJc_15wiggle_generate5funcs12__define_func0NCINvNvBL_8for_each4callB25_NCINvMsi_NtCslJiobkLta79_5alloc3vecINtB4d_3VecB25_E14extend_trustedINtB1B_3MapB3_B2F_EE0E0E0EB2L_, symObjAddr: 0x230, symBinAddr: 0x4DDC0, symSize: 0xC0 }
  - { offset: 0xEF38C, size: 0x8, addend: 0x0, symName: __RINvYINtNtNtCsieiGu2EXtoJ_4core3ops5range5RangejENtNtNtNtBa_4iter6traits8iterator8Iterator4folduNCINvNtNtBR_8adapters3map8map_foldjNtCsaKzlTDPUHDb_11proc_macro25IdentuNCNvNtCsfMaSMcsiNJc_15wiggle_generate8wasmtime13generate_func0NCINvNvBL_8for_each4callB25_NCINvMsi_NtCslJiobkLta79_5alloc3vecINtB4g_3VecB25_E14extend_trustedINtB1B_3MapB3_B2F_EE0E0E0EB2L_, symObjAddr: 0x2F0, symBinAddr: 0x4DE80, symSize: 0xC0 }
  - { offset: 0xEF41C, size: 0x8, addend: 0x0, symName: __RINvYINtNtNtCsieiGu2EXtoJ_4core3ops5range5RangejENtNtNtNtBa_4iter6traits8iterator8Iterator4folduNCINvNtNtBR_8adapters3map8map_foldjNtCsaKzlTDPUHDb_11proc_macro25IdentuNCNvXs_NtCsfMaSMcsiNJc_15wiggle_generate5funcsNtB2M_4RustNtNtCs8QreBtO1sIU_4witx3abi7Bindgen4emits1_0NCINvNvBL_8for_each4callB25_NCINvMsi_NtCslJiobkLta79_5alloc3vecINtB4T_3VecB25_E14extend_trustedINtB1B_3MapB3_B2F_EE0E0E0EB2O_, symObjAddr: 0x3B0, symBinAddr: 0x4DF40, symSize: 0xC0 }
  - { offset: 0xEF4B6, size: 0x8, addend: 0x0, symName: __RNCINvNvNtNtNtNtCsieiGu2EXtoJ_4core4iter6traits8iterator8Iterator12try_for_each4callNtNtCsfMaSMcsiNJc_15wiggle_generate16codegen_settings9ErrorTypeINtNtNtBe_3ops12control_flow11ControlFlowB1k_ENcNtB2l_5Break0E0B1o_, symObjAddr: 0x470, symBinAddr: 0x4E000, symSize: 0x60 }
  - { offset: 0xEF528, size: 0x8, addend: 0x0, symName: __RNCINvNvNtNtNtNtCsieiGu2EXtoJ_4core4iter6traits8iterator8Iterator3any5checkRReNCNvNtNtCsfMaSMcsiNJc_15wiggle_generate5names8escaping9escape_id0E0B1m_, symObjAddr: 0x4D0, symBinAddr: 0x4E060, symSize: 0x30 }
  - { offset: 0xEF5A3, size: 0x8, addend: 0x0, symName: __RNCINvNvNtNtNtNtCsieiGu2EXtoJ_4core4iter6traits8iterator8Iterator8for_each4callNtCsaKzlTDPUHDb_11proc_macro211TokenStreamNCINvMsi_NtCslJiobkLta79_5alloc3vecINtB24_3VecB1f_E14extend_trustedINtNtB24_5drain5DrainB1f_EE0E0CsfMaSMcsiNJc_15wiggle_generate, symObjAddr: 0x500, symBinAddr: 0x4E090, symSize: 0x40 }
  - { offset: 0xEF5FC, size: 0x8, addend: 0x0, symName: __RNCINvNvNtNtNtNtCsieiGu2EXtoJ_4core4iter6traits8iterator8Iterator8for_each4callNtCsaKzlTDPUHDb_11proc_macro211TokenStreamNCINvMsi_NtCslJiobkLta79_5alloc3vecINtB24_3VecB1f_E14extend_trustedINtNtNtBc_8adapters3map3MapINtNtB35_3zip3ZipINtNtNtBe_5slice4iter4IterNtB1h_5IdentEIB3J_B1f_EENCNvNtCsfMaSMcsiNJc_15wiggle_generate8wasmtime13generate_funcs0_0EE0E0B4C_, symObjAddr: 0x540, symBinAddr: 0x4E0D0, symSize: 0x40 }
  - { offset: 0xEF655, size: 0x8, addend: 0x0, symName: __RNCINvNvNtNtNtNtCsieiGu2EXtoJ_4core4iter6traits8iterator8Iterator8for_each4callNtCsaKzlTDPUHDb_11proc_macro211TokenStreamNCINvMsi_NtCslJiobkLta79_5alloc3vecINtB24_3VecB1f_E14extend_trustedINtNtNtBc_8adapters3map3MapINtNtNtBe_5slice4iter4IterNtB1h_5IdentENCNvXs_NtCsfMaSMcsiNJc_15wiggle_generate5funcsNtB4b_4RustNtNtCs8QreBtO1sIU_4witx3abi7Bindgen4emits2_0EE0E0B4d_, symObjAddr: 0x580, symBinAddr: 0x4E110, symSize: 0x40 }
  - { offset: 0xEF6AE, size: 0x8, addend: 0x0, symName: __RNCINvNvNtNtNtNtCsieiGu2EXtoJ_4core4iter6traits8iterator8Iterator8for_each4callNtCsaKzlTDPUHDb_11proc_macro211TokenStreamNCINvMsi_NtCslJiobkLta79_5alloc3vecINtB24_3VecB1f_E14extend_trustedINtNtNtBc_8adapters3map3MapINtNtNtBe_5slice4iter4IterNtNtCs8QreBtO1sIU_4witx3abi8WasmTypeENCNvNtCsfMaSMcsiNJc_15wiggle_generate8wasmtime13generate_funcs_0EE0E0B4y_, symObjAddr: 0x5C0, symBinAddr: 0x4E150, symSize: 0x40 }
  - { offset: 0xEF707, size: 0x8, addend: 0x0, symName: __RNCINvNvNtNtNtNtCsieiGu2EXtoJ_4core4iter6traits8iterator8Iterator8for_each4callNtCsaKzlTDPUHDb_11proc_macro211TokenStreamNCINvMsi_NtCslJiobkLta79_5alloc3vecINtB24_3VecB1f_E14extend_trustedINtNtNtBc_8adapters3map3MapINtNtNtBe_5slice4iter4IterNtNtCs8QreBtO1sIU_4witx3ast12RecordMemberENCNvNtCsfMaSMcsiNJc_15wiggle_generate5names8type_ref0EE0E0B4D_, symObjAddr: 0x600, symBinAddr: 0x4E190, symSize: 0x40 }
  - { offset: 0xEF760, size: 0x8, addend: 0x0, symName: __RNCINvNvNtNtNtNtCsieiGu2EXtoJ_4core4iter6traits8iterator8Iterator8for_each4callNtCsaKzlTDPUHDb_11proc_macro211TokenStreamNCINvMsi_NtCslJiobkLta79_5alloc3vecINtB24_3VecB1f_E14extend_trustedINtNtNtBc_8adapters3map3MapINtNtNtBe_5slice4iter4IterNtNtCs8QreBtO1sIU_4witx3ast18InterfaceFuncParamENCNvXs_NtCsfMaSMcsiNJc_15wiggle_generate5funcsNtB4K_4RustNtNtB3V_3abi7Bindgen4emits0_0EE0E0B4M_, symObjAddr: 0x640, symBinAddr: 0x4E1D0, symSize: 0x40 }
  - { offset: 0xEF7B9, size: 0x8, addend: 0x0, symName: __RNCINvNvNtNtNtNtCsieiGu2EXtoJ_4core4iter6traits8iterator8Iterator8for_each4callNtCsaKzlTDPUHDb_11proc_macro25IdentNCINvMsi_NtCslJiobkLta79_5alloc3vecINtB1X_3VecB1f_E14extend_trustedINtNtNtBc_8adapters3map3MapINtNtNtBe_3ops5range5RangejENCNvNtCsfMaSMcsiNJc_15wiggle_generate5funcs12__define_func0EE0E0B3S_, symObjAddr: 0x680, symBinAddr: 0x4E210, symSize: 0x40 }
  - { offset: 0xEF812, size: 0x8, addend: 0x0, symName: __RNCINvNvNtNtNtNtCsieiGu2EXtoJ_4core4iter6traits8iterator8Iterator8for_each4callNtCsaKzlTDPUHDb_11proc_macro25IdentNCINvMsi_NtCslJiobkLta79_5alloc3vecINtB1X_3VecB1f_E14extend_trustedINtNtNtBc_8adapters3map3MapINtNtNtBe_3ops5range5RangejENCNvNtCsfMaSMcsiNJc_15wiggle_generate8wasmtime13generate_func0EE0E0B3S_, symObjAddr: 0x6C0, symBinAddr: 0x4E250, symSize: 0x40 }
  - { offset: 0xEF86B, size: 0x8, addend: 0x0, symName: __RNCINvNvNtNtNtNtCsieiGu2EXtoJ_4core4iter6traits8iterator8Iterator8for_each4callNtCsaKzlTDPUHDb_11proc_macro25IdentNCINvMsi_NtCslJiobkLta79_5alloc3vecINtB1X_3VecB1f_E14extend_trustedINtNtNtBc_8adapters3map3MapINtNtNtBe_3ops5range5RangejENCNvXs_NtCsfMaSMcsiNJc_15wiggle_generate5funcsNtB3T_4RustNtNtCs8QreBtO1sIU_4witx3abi7Bindgen4emits1_0EE0E0B3V_, symObjAddr: 0x700, symBinAddr: 0x4E290, symSize: 0x40 }
  - { offset: 0xEF8C4, size: 0x8, addend: 0x0, symName: __RNCINvNvNtNtNtNtCsieiGu2EXtoJ_4core4iter6traits8iterator8Iterator8for_each4callNtCsaKzlTDPUHDb_11proc_macro29TokenTreeNCINvXsa_NtB1h_8fallbackNtB21_11TokenStreamINtNtBa_7collect6ExtendB1f_E6extendNtB1h_11TokenStreamE0E0CsfMaSMcsiNJc_15wiggle_generate, symObjAddr: 0x740, symBinAddr: 0x4E2D0, symSize: 0x40 }
  - { offset: 0xEF91D, size: 0x8, addend: 0x0, symName: __RNCINvNvNtNtNtNtCsieiGu2EXtoJ_4core4iter6traits8iterator8Iterator8for_each4callNtNtCslJiobkLta79_5alloc6string6StringNCINvMsi_NtB1j_3vecINtB20_3VecB1f_E14extend_trustedINtNtNtBc_8adapters3map3MapINtNtNtBe_5slice4iter4IterNtCsaKzlTDPUHDb_11proc_macro25IdentENCNvXsi_NtCsfMaSMcsiNJc_15wiggle_generate6configNtB4f_14AsyncFunctionsNtNtCsdGrGZaRBwMb_3syn5parse5Parse5parse0EE0E0B4h_, symObjAddr: 0x780, symBinAddr: 0x4E310, symSize: 0x40 }
  - { offset: 0xEF976, size: 0x8, addend: 0x0, symName: __RNCINvNvNtNtNtNtCsieiGu2EXtoJ_4core4iter6traits8iterator8Iterator8for_each4callNtNtCslJiobkLta79_5alloc6string6StringNCINvMsi_NtB1j_3vecINtB20_3VecB1f_E14extend_trustedINtNtNtBc_8adapters3map3MapINtNtNtBe_5slice4iter4IterNtCsaKzlTDPUHDb_11proc_macro25IdentENCNvXsp_NtCsfMaSMcsiNJc_15wiggle_generate6configNtB4f_11TracingConfNtNtCsdGrGZaRBwMb_3syn5parse5Parse5parse0EE0E0B4h_, symObjAddr: 0x7C0, symBinAddr: 0x4E350, symSize: 0x40 }
  - { offset: 0xEF9CF, size: 0x8, addend: 0x0, symName: __RNCINvNvNtNtNtNtCsieiGu2EXtoJ_4core4iter6traits8iterator8Iterator8for_each4callRNtNtCsHUR1vrdMJt_3std4path4PathNCINvMsi_NtCslJiobkLta79_5alloc3vecINtB1U_3VecB1f_E14extend_trustedINtNtNtBc_8adapters3map3MapINtNtNtBe_5slice4iter4IterNtB1i_7PathBufENCINvNtCs8QreBtO1sIU_4witx8toplevel10parse_witxB3H_E0EE0E0CsfMaSMcsiNJc_15wiggle_generate, symObjAddr: 0x800, symBinAddr: 0x4E390, symSize: 0x20 }
  - { offset: 0xEFA71, size: 0x8, addend: 0x0, symName: __RNCNvXs_NvNtNtNtNtCsieiGu2EXtoJ_4core4iter6traits8iterator8Iterator10advance_byINtNtCsdGrGZaRBwMb_3syn10punctuated11PrivateIterNtCsaKzlTDPUHDb_11proc_macro25IdentNtNtB1k_5token5CommaENtB6_13SpecAdvanceBy15spec_advance_by0CsfMaSMcsiNJc_15wiggle_generate, symObjAddr: 0x1F10, symBinAddr: 0x4FAA0, symSize: 0x20 }
  - { offset: 0xEFABE, size: 0x8, addend: 0x0, symName: __RNCNvXs_NvNtNtNtNtCsieiGu2EXtoJ_4core4iter6traits8iterator8Iterator10advance_byINtNtCsdGrGZaRBwMb_3syn10punctuated11PrivateIterNtNtB1k_3lit6LitStrNtNtB1k_5token5CommaENtB6_13SpecAdvanceBy15spec_advance_by0CsfMaSMcsiNJc_15wiggle_generate, symObjAddr: 0x1F30, symBinAddr: 0x4FAC0, symSize: 0x20 }
  - { offset: 0xEFB29, size: 0x8, addend: 0x0, symName: __RNvXs4_NtNtCsieiGu2EXtoJ_4core4iter5rangeINtNtNtB9_3ops5range5RangejENtNtNtB7_6traits8iterator8Iterator9size_hintCsfMaSMcsiNJc_15wiggle_generate, symObjAddr: 0x6F90, symBinAddr: 0x54B20, symSize: 0x80 }
  - { offset: 0xEFB8C, size: 0x8, addend: 0x0, symName: __RNvXsF_NtNtCsieiGu2EXtoJ_4core4iter5rangejNtB5_4Step13steps_betweenCsfMaSMcsiNJc_15wiggle_generate, symObjAddr: 0x7250, symBinAddr: 0x54DE0, symSize: 0x80 }
  - { offset: 0xF0009, size: 0x8, addend: 0x0, symName: __RNvXs1_NtNtNtCsieiGu2EXtoJ_4core3ops8function5implsQNCINvNvNtNtNtNtBb_4iter6traits8iterator8Iterator3any5checkRReNCNvNtNtCsfMaSMcsiNJc_15wiggle_generate5names8escaping9escape_id0E0INtB7_5FnMutTuB1K_EE8call_mutB1V_, symObjAddr: 0x6F60, symBinAddr: 0x54AF0, symSize: 0x30 }
  - { offset: 0xF00AD, size: 0x8, addend: 0x0, symName: __RNvXsg_NtNtCsieiGu2EXtoJ_4core3ops5rangeINtB5_9RangeFromjEINtB5_11RangeBoundsjE11start_boundCsfMaSMcsiNJc_15wiggle_generate, symObjAddr: 0x72D0, symBinAddr: 0x54E60, symSize: 0x10 }
  - { offset: 0xF00E4, size: 0x8, addend: 0x0, symName: __RNvXsg_NtNtCsieiGu2EXtoJ_4core3ops5rangeINtB5_9RangeFromjEINtB5_11RangeBoundsjE9end_boundCsfMaSMcsiNJc_15wiggle_generate, symObjAddr: 0x72E0, symBinAddr: 0x54E70, symSize: 0x20 }
  - { offset: 0xF12D5, size: 0x8, addend: 0x0, symName: __RINvCs8QreBtO1sIU_4witx4loadNtNtCsHUR1vrdMJt_3std4path7PathBufECsfMaSMcsiNJc_15wiggle_generate, symObjAddr: 0x0, symBinAddr: 0x4DB90, symSize: 0x30 }
  - { offset: 0xF130F, size: 0x8, addend: 0x0, symName: __RNvXs0_Cs8QreBtO1sIU_4witxNtB5_8LocationNtNtCsieiGu2EXtoJ_4core3fmt5Debug3fmtCsfMaSMcsiNJc_15wiggle_generate, symObjAddr: 0x6EA0, symBinAddr: 0x54A30, symSize: 0xC0 }
  - { offset: 0xF134F, size: 0x8, addend: 0x0, symName: __RNvXs5_Cs8QreBtO1sIU_4witxNtB5_9WitxErrorNtNtCsieiGu2EXtoJ_4core3fmt5Debug3fmtCsfMaSMcsiNJc_15wiggle_generate, symObjAddr: 0x7010, symBinAddr: 0x54BA0, symSize: 0x110 }
  - { offset: 0xF1F4A, size: 0x8, addend: 0x0, symName: __RNCNCNvNtCsfMaSMcsiNJc_15wiggle_generate12module_trait19define_module_trait00B7_, symObjAddr: 0x820, symBinAddr: 0x4E3B0, symSize: 0x2D0 }
  - { offset: 0xF205C, size: 0x8, addend: 0x0, symName: __RNCNvNtCsfMaSMcsiNJc_15wiggle_generate12module_trait19define_module_trait0B5_, symObjAddr: 0xAF0, symBinAddr: 0x4E680, symSize: 0x10D0 }
  - { offset: 0xF25F5, size: 0x8, addend: 0x0, symName: __RNvNtCsfMaSMcsiNJc_15wiggle_generate12module_trait19define_module_trait, symObjAddr: 0x1FB0, symBinAddr: 0x4FB40, symSize: 0x3E0 }
  - { offset: 0xF2728, size: 0x8, addend: 0x0, symName: __RNvNtCsfMaSMcsiNJc_15wiggle_generate12module_trait19passed_by_reference, symObjAddr: 0x2390, symBinAddr: 0x4FF20, symSize: 0x90 }
  - { offset: 0xF2799, size: 0x8, addend: 0x0, symName: __RNCNvNtCsfMaSMcsiNJc_15wiggle_generate8wasmtime11link_module0B5_, symObjAddr: 0x1BC0, symBinAddr: 0x4F750, symSize: 0x100 }
  - { offset: 0xF2823, size: 0x8, addend: 0x0, symName: __RNCNvNtCsfMaSMcsiNJc_15wiggle_generate8wasmtime13generate_func0B5_, symObjAddr: 0x1CC0, symBinAddr: 0x4F850, symSize: 0x150 }
  - { offset: 0xF2895, size: 0x8, addend: 0x0, symName: __RNCNvNtCsfMaSMcsiNJc_15wiggle_generate8wasmtime13generate_funcs0_0B5_, symObjAddr: 0x1E10, symBinAddr: 0x4F9A0, symSize: 0xC0 }
  - { offset: 0xF2903, size: 0x8, addend: 0x0, symName: __RNCNvNtCsfMaSMcsiNJc_15wiggle_generate8wasmtime13generate_funcs_0B5_, symObjAddr: 0x1ED0, symBinAddr: 0x4FA60, symSize: 0x40 }
  - { offset: 0xF294F, size: 0x8, addend: 0x0, symName: __RNvNtCsfMaSMcsiNJc_15wiggle_generate8wasmtime11link_module, symObjAddr: 0x2420, symBinAddr: 0x4FFB0, symSize: 0x18F0 }
  - { offset: 0xF2F00, size: 0x8, addend: 0x0, symName: __RNvNtCsfMaSMcsiNJc_15wiggle_generate8wasmtime13generate_func, symObjAddr: 0x3D10, symBinAddr: 0x518A0, symSize: 0x3130 }
  - { offset: 0xF3A13, size: 0x8, addend: 0x0, symName: __RNvXNtCs9OU1sGv5X54_5quote9to_tokensRReNtB2_8ToTokens9to_tokensCsfMaSMcsiNJc_15wiggle_generate, symObjAddr: 0x6E40, symBinAddr: 0x549D0, symSize: 0x30 }
  - { offset: 0xF3A52, size: 0x8, addend: 0x0, symName: __RNvXNtCs9OU1sGv5X54_5quote9to_tokensReNtB2_8ToTokens9to_tokensCsfMaSMcsiNJc_15wiggle_generate, symObjAddr: 0x6E70, symBinAddr: 0x54A00, symSize: 0x30 }
  - { offset: 0xF95E7, size: 0x8, addend: 0x0, symName: __RINvCsi88DhWbSVU_11shellexpand16env_with_contextNtNtCslJiobkLta79_5alloc6string6StringBK_NCINvB2_3envBK_E0NtNtCsHUR1vrdMJt_3std3env8VarErrorECsfMaSMcsiNJc_15wiggle_generate, symObjAddr: 0x0, symBinAddr: 0x54E90, symSize: 0x1450 }
  - { offset: 0xF9D8F, size: 0x8, addend: 0x0, symName: __RNvXs16_NtCs8QreBtO1sIU_4witx3astNtB6_14RecordDatatypeNtNtCsieiGu2EXtoJ_4core3fmt5Debug3fmtCsfMaSMcsiNJc_15wiggle_generate, symObjAddr: 0x69C0, symBinAddr: 0x5B770, symSize: 0x90 }
  - { offset: 0xF9DD2, size: 0x8, addend: 0x0, symName: __RNvXs1A_NtCs8QreBtO1sIU_4witx3astNtB6_14HandleDatatypeNtNtCsieiGu2EXtoJ_4core3fmt5Debug3fmtCsfMaSMcsiNJc_15wiggle_generate, symObjAddr: 0x6BF0, symBinAddr: 0x5B9A0, symSize: 0x40 }
  - { offset: 0xF9E15, size: 0x8, addend: 0x0, symName: __RNvXs1c_NtCs8QreBtO1sIU_4witx3astNtB6_10RecordKindNtNtCsieiGu2EXtoJ_4core3fmt5Debug3fmtCsfMaSMcsiNJc_15wiggle_generate, symObjAddr: 0x6D10, symBinAddr: 0x5BA60, symSize: 0xC0 }
  - { offset: 0xF9E76, size: 0x8, addend: 0x0, symName: __RNvXs1i_NtCs8QreBtO1sIU_4witx3astNtB6_12RecordMemberNtNtCsieiGu2EXtoJ_4core3fmt5Debug3fmtCsfMaSMcsiNJc_15wiggle_generate, symObjAddr: 0x6DD0, symBinAddr: 0x5BB20, symSize: 0xC0 }
  - { offset: 0xF9EB9, size: 0x8, addend: 0x0, symName: __RNvXs1o_NtCs8QreBtO1sIU_4witx3astNtB6_7VariantNtNtCsieiGu2EXtoJ_4core3fmt5Debug3fmtCsfMaSMcsiNJc_15wiggle_generate, symObjAddr: 0x6E90, symBinAddr: 0x5BBE0, symSize: 0x90 }
  - { offset: 0xF9EFC, size: 0x8, addend: 0x0, symName: __RNvXs1u_NtCs8QreBtO1sIU_4witx3astNtB6_4CaseNtNtCsieiGu2EXtoJ_4core3fmt5Debug3fmtCsfMaSMcsiNJc_15wiggle_generate, symObjAddr: 0x6F20, symBinAddr: 0x5BC70, symSize: 0xC0 }
  - { offset: 0xF9F3F, size: 0x8, addend: 0x0, symName: __RNvXs22_NtCs8QreBtO1sIU_4witx3astNtB6_13InterfaceFuncNtNtCsieiGu2EXtoJ_4core3fmt5Debug3fmtCsfMaSMcsiNJc_15wiggle_generate, symObjAddr: 0x6FE0, symBinAddr: 0x5BD30, symSize: 0x110 }
  - { offset: 0xF9FBE, size: 0x8, addend: 0x0, symName: __RNvXs28_NtCs8QreBtO1sIU_4witx3astNtB6_18InterfaceFuncParamNtNtCsieiGu2EXtoJ_4core3fmt5Debug3fmtCsfMaSMcsiNJc_15wiggle_generate, symObjAddr: 0x70F0, symBinAddr: 0x5BE40, symSize: 0xC0 }
  - { offset: 0xFA001, size: 0x8, addend: 0x0, symName: __RNvXsA_NtCs8QreBtO1sIU_4witx3astNtB5_7TypeRefNtNtCsieiGu2EXtoJ_4core3fmt5Debug3fmtCsfMaSMcsiNJc_15wiggle_generate, symObjAddr: 0x7260, symBinAddr: 0x5BF90, symSize: 0x90 }
  - { offset: 0xFA07B, size: 0x8, addend: 0x0, symName: __RNvXsG_NtCs8QreBtO1sIU_4witx3astNtB5_9NamedTypeNtNtCsieiGu2EXtoJ_4core3fmt5Debug3fmtCsfMaSMcsiNJc_15wiggle_generate, symObjAddr: 0x72F0, symBinAddr: 0x5C020, symSize: 0xC0 }
  - { offset: 0xFA0BB, size: 0x8, addend: 0x0, symName: __RNvXsM_NtCs8QreBtO1sIU_4witx3astNtB5_4TypeNtNtCsieiGu2EXtoJ_4core3fmt5Debug3fmtCsfMaSMcsiNJc_15wiggle_generate, symObjAddr: 0x73B0, symBinAddr: 0x5C0E0, symSize: 0x1D0 }
  - { offset: 0xFA1C7, size: 0x8, addend: 0x0, symName: __RNvXsS_NtCs8QreBtO1sIU_4witx3astNtB5_11BuiltinTypeNtNtCsieiGu2EXtoJ_4core3fmt5Debug3fmtCsfMaSMcsiNJc_15wiggle_generate, symObjAddr: 0x7580, symBinAddr: 0x5C2B0, symSize: 0x200 }
  - { offset: 0xFA243, size: 0x8, addend: 0x0, symName: __RNvXsZ_NtCs8QreBtO1sIU_4witx3astNtB5_7IntReprNtNtCsieiGu2EXtoJ_4core3fmt5Debug3fmtCsfMaSMcsiNJc_15wiggle_generate, symObjAddr: 0x7780, symBinAddr: 0x5C4B0, symSize: 0xB0 }
  - { offset: 0xFA286, size: 0x8, addend: 0x0, symName: __RNvXsk_NtCs8QreBtO1sIU_4witx3astNtB5_2IdNtNtCsieiGu2EXtoJ_4core3fmt5Debug3fmtCsfMaSMcsiNJc_15wiggle_generate, symObjAddr: 0x7A80, symBinAddr: 0x5C700, symSize: 0x50 }
  - { offset: 0xFA2C6, size: 0x8, addend: 0x0, symName: __RNvXsn_NtCs8QreBtO1sIU_4witx3astNtB5_2IdNtNtCsieiGu2EXtoJ_4core3cmp9PartialEq2eqCsfMaSMcsiNJc_15wiggle_generate, symObjAddr: 0x7AD0, symBinAddr: 0x5C750, symSize: 0x20 }
  - { offset: 0xFC323, size: 0x8, addend: 0x0, symName: __RNvNvMs3_NtCsieiGu2EXtoJ_4core3numi13unchecked_neg18precondition_checkCsfMaSMcsiNJc_15wiggle_generate, symObjAddr: 0x64A0, symBinAddr: 0x5B2B0, symSize: 0xB0 }
  - { offset: 0xFC3EF, size: 0x8, addend: 0x0, symName: __RNvNvMs9_NtCsieiGu2EXtoJ_4core3numj13unchecked_add18precondition_checkCsfMaSMcsiNJc_15wiggle_generate, symObjAddr: 0x6550, symBinAddr: 0x5B360, symSize: 0xA0 }
  - { offset: 0xFE684, size: 0x8, addend: 0x0, symName: __RINvMNtCsieiGu2EXtoJ_4core5sliceSNtNtCs8QreBtO1sIU_4witx3ast18InterfaceFuncParam3getjECsfMaSMcsiNJc_15wiggle_generate, symObjAddr: 0x1480, symBinAddr: 0x56310, symSize: 0x30 }
  - { offset: 0xFE6D3, size: 0x8, addend: 0x0, symName: __RNvMNtCsieiGu2EXtoJ_4core5sliceSNtNtCsfMaSMcsiNJc_15wiggle_generate16codegen_settings9ErrorType4iterBy_, symObjAddr: 0x4090, symBinAddr: 0x58F20, symSize: 0x20 }
  - { offset: 0xFEC28, size: 0x8, addend: 0x0, symName: __RNvXs19_NtCsieiGu2EXtoJ_4core3fmtRNtNtCs8QreBtO1sIU_4witx3ast12RecordMemberNtB6_5Debug3fmtCsfMaSMcsiNJc_15wiggle_generate, symObjAddr: 0x6A50, symBinAddr: 0x5B800, symSize: 0x20 }
  - { offset: 0xFEC6E, size: 0x8, addend: 0x0, symName: __RNvXs19_NtCsieiGu2EXtoJ_4core3fmtRNtNtCs8QreBtO1sIU_4witx3ast13InterfaceFuncNtB6_5Debug3fmtCsfMaSMcsiNJc_15wiggle_generate, symObjAddr: 0x6A70, symBinAddr: 0x5B820, symSize: 0x20 }
  - { offset: 0xFECB4, size: 0x8, addend: 0x0, symName: __RNvXs19_NtCsieiGu2EXtoJ_4core3fmtRNtNtCs8QreBtO1sIU_4witx3ast14HandleDatatypeNtB6_5Debug3fmtCsfMaSMcsiNJc_15wiggle_generate, symObjAddr: 0x6A90, symBinAddr: 0x5B840, symSize: 0x20 }
  - { offset: 0xFECFA, size: 0x8, addend: 0x0, symName: __RNvXs19_NtCsieiGu2EXtoJ_4core3fmtRNtNtCs8QreBtO1sIU_4witx3ast14RecordDatatypeNtB6_5Debug3fmtCsfMaSMcsiNJc_15wiggle_generate, symObjAddr: 0x6AB0, symBinAddr: 0x5B860, symSize: 0x20 }
  - { offset: 0xFED40, size: 0x8, addend: 0x0, symName: __RNvXs19_NtCsieiGu2EXtoJ_4core3fmtRNtNtCs8QreBtO1sIU_4witx3ast18InterfaceFuncParamNtB6_5Debug3fmtCsfMaSMcsiNJc_15wiggle_generate, symObjAddr: 0x6AD0, symBinAddr: 0x5B880, symSize: 0x20 }
  - { offset: 0xFED86, size: 0x8, addend: 0x0, symName: __RNvXs19_NtCsieiGu2EXtoJ_4core3fmtRNtNtCs8QreBtO1sIU_4witx3ast4CaseNtB6_5Debug3fmtCsfMaSMcsiNJc_15wiggle_generate, symObjAddr: 0x6AF0, symBinAddr: 0x5B8A0, symSize: 0x20 }
  - { offset: 0xFEDCC, size: 0x8, addend: 0x0, symName: __RNvXs19_NtCsieiGu2EXtoJ_4core3fmtRNtNtCs8QreBtO1sIU_4witx3ast7IntReprNtB6_5Debug3fmtCsfMaSMcsiNJc_15wiggle_generate, symObjAddr: 0x6B10, symBinAddr: 0x5B8C0, symSize: 0x20 }
  - { offset: 0xFEE12, size: 0x8, addend: 0x0, symName: __RNvXs19_NtCsieiGu2EXtoJ_4core3fmtRNtNtCs8QreBtO1sIU_4witx3ast7TypeRefNtB6_5Debug3fmtCsfMaSMcsiNJc_15wiggle_generate, symObjAddr: 0x6B30, symBinAddr: 0x5B8E0, symSize: 0x20 }
  - { offset: 0xFEE58, size: 0x8, addend: 0x0, symName: __RNvXs19_NtCsieiGu2EXtoJ_4core3fmtRNtNtCs8QreBtO1sIU_4witx3ast7VariantNtB6_5Debug3fmtCsfMaSMcsiNJc_15wiggle_generate, symObjAddr: 0x6B50, symBinAddr: 0x5B900, symSize: 0x20 }
  - { offset: 0xFEE9E, size: 0x8, addend: 0x0, symName: __RNvXs19_NtCsieiGu2EXtoJ_4core3fmtRNtNtCs8QreBtO1sIU_4witx3ast9NamedTypeNtB6_5Debug3fmtCsfMaSMcsiNJc_15wiggle_generate, symObjAddr: 0x6B70, symBinAddr: 0x5B920, symSize: 0x20 }
  - { offset: 0xFEEE4, size: 0x8, addend: 0x0, symName: __RNvXs19_NtCsieiGu2EXtoJ_4core3fmtRRNtNtCs8QreBtO1sIU_4witx3ast13InterfaceFuncNtB6_5Debug3fmtCsfMaSMcsiNJc_15wiggle_generate, symObjAddr: 0x6B90, symBinAddr: 0x5B940, symSize: 0x20 }
  - { offset: 0xFEF2A, size: 0x8, addend: 0x0, symName: __RNvXs19_NtCsieiGu2EXtoJ_4core3fmtRRNtNtCs8QreBtO1sIU_4witx3ast7TypeRefNtB6_5Debug3fmtCsfMaSMcsiNJc_15wiggle_generate, symObjAddr: 0x6BB0, symBinAddr: 0x5B960, symSize: 0x20 }
  - { offset: 0xFEF70, size: 0x8, addend: 0x0, symName: __RNvXs19_NtCsieiGu2EXtoJ_4core3fmtRRNtNtCs8QreBtO1sIU_4witx3ast9NamedTypeNtB6_5Debug3fmtCsfMaSMcsiNJc_15wiggle_generate, symObjAddr: 0x6BD0, symBinAddr: 0x5B980, symSize: 0x20 }
  - { offset: 0xFEFC1, size: 0x8, addend: 0x0, symName: __RNvXsZ_NtNtCsieiGu2EXtoJ_4core3fmt3numjNtB7_5Debug3fmtCsfMaSMcsiNJc_15wiggle_generate, symObjAddr: 0x7830, symBinAddr: 0x5C560, symSize: 0x80 }
  - { offset: 0xFF03C, size: 0x8, addend: 0x0, symName: __RNvXsq_NtCsieiGu2EXtoJ_4core3fmtSNtNtCs8QreBtO1sIU_4witx3ast12RecordMemberNtB5_5Debug3fmtCsfMaSMcsiNJc_15wiggle_generate, symObjAddr: 0x7AF0, symBinAddr: 0x5C770, symSize: 0x80 }
  - { offset: 0xFF189, size: 0x8, addend: 0x0, symName: __RNvXsq_NtCsieiGu2EXtoJ_4core3fmtSNtNtCs8QreBtO1sIU_4witx3ast18InterfaceFuncParamNtB5_5Debug3fmtCsfMaSMcsiNJc_15wiggle_generate, symObjAddr: 0x7B70, symBinAddr: 0x5C7F0, symSize: 0x80 }
  - { offset: 0xFF2D6, size: 0x8, addend: 0x0, symName: __RNvXsq_NtCsieiGu2EXtoJ_4core3fmtSNtNtCs8QreBtO1sIU_4witx3ast4CaseNtB5_5Debug3fmtCsfMaSMcsiNJc_15wiggle_generate, symObjAddr: 0x7BF0, symBinAddr: 0x5C870, symSize: 0x80 }
  - { offset: 0xFF8DA, size: 0x8, addend: 0x0, symName: __RNvNvNtCsieiGu2EXtoJ_4core9ub_checks23maybe_is_nonoverlapping7runtimeCsfMaSMcsiNJc_15wiggle_generate, symObjAddr: 0x65F0, symBinAddr: 0x5B400, symSize: 0xC0 }
  - { offset: 0xFFA92, size: 0x8, addend: 0x0, symName: __RNvXs1_NtCsieiGu2EXtoJ_4core7convertNtNtCs8QreBtO1sIU_4witx3ast7IntReprINtB5_4IntoNtNtBC_3abi8WasmTypeE4intoCsfMaSMcsiNJc_15wiggle_generate, symObjAddr: 0x6CD0, symBinAddr: 0x5BA40, symSize: 0x20 }
  - { offset: 0xFFAED, size: 0x8, addend: 0x0, symName: __RNvXs3_NtNtCsieiGu2EXtoJ_4core3str7patternNCINvCsi88DhWbSVU_11shellexpand16env_with_contextNtNtCslJiobkLta79_5alloc6string6StringB1r_NCINvBJ_3envB1r_E0NtNtCsHUR1vrdMJt_3std3env8VarErrorE0NtB5_11MultiCharEq7matchesCsfMaSMcsiNJc_15wiggle_generate, symObjAddr: 0x7240, symBinAddr: 0x5BF70, symSize: 0x20 }
  - { offset: 0xFFB39, size: 0x8, addend: 0x0, symName: __RNvXsr_NtNtCsieiGu2EXtoJ_4core3str7patternNCINvCsi88DhWbSVU_11shellexpand16env_with_contextNtNtCslJiobkLta79_5alloc6string6StringB1r_NCINvBJ_3envB1r_E0NtNtCsHUR1vrdMJt_3std3env8VarErrorE0NtB5_7Pattern13into_searcherCsfMaSMcsiNJc_15wiggle_generate, symObjAddr: 0x7C70, symBinAddr: 0x5C8F0, symSize: 0x40 }
  - { offset: 0xFFC21, size: 0x8, addend: 0x0, symName: __RNvXsh_NtNtCsieiGu2EXtoJ_4core3cmp5implsbNtB7_9PartialEq2eqCsfMaSMcsiNJc_15wiggle_generate, symObjAddr: 0x7A60, symBinAddr: 0x5C6E0, symSize: 0x20 }
  - { offset: 0x100C5A, size: 0x8, addend: 0x0, symName: __RINvCsi88DhWbSVU_11shellexpand16env_with_contextNtNtCslJiobkLta79_5alloc6string6StringBK_NCINvB2_3envBK_E0NtNtCsHUR1vrdMJt_3std3env8VarErrorECsfMaSMcsiNJc_15wiggle_generate, symObjAddr: 0x0, symBinAddr: 0x54E90, symSize: 0x1450 }
  - { offset: 0x100E9D, size: 0x8, addend: 0x0, symName: __RINvCsi88DhWbSVU_11shellexpand3envNtNtCslJiobkLta79_5alloc6string6StringECsfMaSMcsiNJc_15wiggle_generate, symObjAddr: 0x1450, symBinAddr: 0x562E0, symSize: 0x30 }
  - { offset: 0x100ED9, size: 0x8, addend: 0x0, symName: __RNCINvCsi88DhWbSVU_11shellexpand16env_with_contextNtNtCslJiobkLta79_5alloc6string6StringBM_NCINvB4_3envBM_E0NtNtCsHUR1vrdMJt_3std3env8VarErrorE0CsfMaSMcsiNJc_15wiggle_generate, symObjAddr: 0x19B0, symBinAddr: 0x56840, symSize: 0x30 }
  - { offset: 0x100F43, size: 0x8, addend: 0x0, symName: __RNCINvCsi88DhWbSVU_11shellexpand3envNtNtCslJiobkLta79_5alloc6string6StringE0CsfMaSMcsiNJc_15wiggle_generate, symObjAddr: 0x19E0, symBinAddr: 0x56870, symSize: 0x60 }
  - { offset: 0x100F92, size: 0x8, addend: 0x0, symName: __RNvXs0_Csi88DhWbSVU_11shellexpandINtB5_11LookupErrorNtNtCsHUR1vrdMJt_3std3env8VarErrorENtNtCsieiGu2EXtoJ_4core3fmt5Debug3fmtCsfMaSMcsiNJc_15wiggle_generate, symObjAddr: 0x6810, symBinAddr: 0x5B5E0, symSize: 0x90 }
  - { offset: 0x1012CE, size: 0x8, addend: 0x0, symName: __RNCNvMs_NtCsfMaSMcsiNJc_15wiggle_generate16codegen_settingsNtB6_14ErrorTransform3new0B8_, symObjAddr: 0x1A40, symBinAddr: 0x568D0, symSize: 0x950 }
  - { offset: 0x1014CE, size: 0x8, addend: 0x0, symName: __RNCNvMs_NtCsfMaSMcsiNJc_15wiggle_generate16codegen_settingsNtB6_14ErrorTransform8for_name0B8_, symObjAddr: 0x2390, symBinAddr: 0x57220, symSize: 0x50 }
  - { offset: 0x1016F6, size: 0x8, addend: 0x0, symName: __RNCNvNtNtCsfMaSMcsiNJc_15wiggle_generate5types6record13define_struct0B7_, symObjAddr: 0x23E0, symBinAddr: 0x57270, symSize: 0x40 }
  - { offset: 0x10172C, size: 0x8, addend: 0x0, symName: __RNCNvNtNtCsfMaSMcsiNJc_15wiggle_generate5types6record13define_structs0_0B7_, symObjAddr: 0x2420, symBinAddr: 0x572B0, symSize: 0x3C0 }
  - { offset: 0x101822, size: 0x8, addend: 0x0, symName: __RNCNvNtNtCsfMaSMcsiNJc_15wiggle_generate5types6record13define_structs1_0B7_, symObjAddr: 0x27E0, symBinAddr: 0x57670, symSize: 0xC20 }
  - { offset: 0x101AA9, size: 0x8, addend: 0x0, symName: __RNCNvNtNtCsfMaSMcsiNJc_15wiggle_generate5types6record13define_structs2_0B7_, symObjAddr: 0x3400, symBinAddr: 0x58290, symSize: 0x430 }
  - { offset: 0x101B4D, size: 0x8, addend: 0x0, symName: __RNCNvNtNtCsfMaSMcsiNJc_15wiggle_generate5types6record13define_structs_0B7_, symObjAddr: 0x3830, symBinAddr: 0x586C0, symSize: 0x530 }
  - { offset: 0x101D73, size: 0x8, addend: 0x0, symName: __RNvNtNtCsfMaSMcsiNJc_15wiggle_generate5types6record13define_struct, symObjAddr: 0x45E0, symBinAddr: 0x593F0, symSize: 0x1EC0 }
  - { offset: 0x1022FD, size: 0x8, addend: 0x0, symName: __RNvXNtNtCsfMaSMcsiNJc_15wiggle_generate5types6recordNtNtCs8QreBtO1sIU_4witx3ast14RecordDatatypeNtB4_10WiggleType13impls_display, symObjAddr: 0x67D0, symBinAddr: 0x5B5A0, symSize: 0x20 }
  - { offset: 0x102330, size: 0x8, addend: 0x0, symName: __RNvXNtCsfMaSMcsiNJc_15wiggle_generate5typesNtNtCs8QreBtO1sIU_4witx3ast7TypeRefNtB2_10WiggleType13impls_display, symObjAddr: 0x66B0, symBinAddr: 0x5B4C0, symSize: 0x80 }
  - { offset: 0x102439, size: 0x8, addend: 0x0, symName: __RNvXNtNtCsfMaSMcsiNJc_15wiggle_generate5types6handleNtNtCs8QreBtO1sIU_4witx3ast14HandleDatatypeNtB4_10WiggleType13impls_display, symObjAddr: 0x67B0, symBinAddr: 0x5B580, symSize: 0x20 }
  - { offset: 0x102471, size: 0x8, addend: 0x0, symName: __RNvXNtNtCsfMaSMcsiNJc_15wiggle_generate5types7variantNtNtCs8QreBtO1sIU_4witx3ast7VariantNtB4_10WiggleType13impls_display, symObjAddr: 0x67F0, symBinAddr: 0x5B5C0, symSize: 0x20 }
  - { offset: 0x1024A4, size: 0x8, addend: 0x0, symName: __RNvXs0_NtCsfMaSMcsiNJc_15wiggle_generate5typesNtNtCs8QreBtO1sIU_4witx3ast4TypeNtB5_10WiggleType13impls_display, symObjAddr: 0x68A0, symBinAddr: 0x5B670, symSize: 0xE0 }
  - { offset: 0x10254A, size: 0x8, addend: 0x0, symName: __RNvXs1_NtCsfMaSMcsiNJc_15wiggle_generate5typesNtNtCs8QreBtO1sIU_4witx3ast11BuiltinTypeNtB5_10WiggleType13impls_display, symObjAddr: 0x6C30, symBinAddr: 0x5B9E0, symSize: 0x20 }
  - { offset: 0x10257C, size: 0x8, addend: 0x0, symName: __RNvXs2_NtCsfMaSMcsiNJc_15wiggle_generate5typesNtNtCs8QreBtO1sIU_4witx3ast18InterfaceFuncParamNtB5_10WiggleType13impls_display, symObjAddr: 0x71B0, symBinAddr: 0x5BF00, symSize: 0x30 }
  - { offset: 0x1025AE, size: 0x8, addend: 0x0, symName: __RNvXs_NtCsfMaSMcsiNJc_15wiggle_generate5typesNtNtCs8QreBtO1sIU_4witx3ast9NamedTypeNtB4_10WiggleType13impls_display, symObjAddr: 0x78B0, symBinAddr: 0x5C5E0, symSize: 0x30 }
  - { offset: 0x1025E6, size: 0x8, addend: 0x0, symName: __RNvXNtCsfMaSMcsiNJc_15wiggle_generate9lifetimesNtNtCs8QreBtO1sIU_4witx3ast7TypeRefNtB2_11LifetimeExt14needs_lifetime, symObjAddr: 0x6770, symBinAddr: 0x5B540, symSize: 0x40 }
  - { offset: 0x102668, size: 0x8, addend: 0x0, symName: __RNvXs0_NtCsfMaSMcsiNJc_15wiggle_generate9lifetimesNtNtCs8QreBtO1sIU_4witx3ast11BuiltinTypeNtB5_11LifetimeExt14needs_lifetime, symObjAddr: 0x69A0, symBinAddr: 0x5B750, symSize: 0x20 }
  - { offset: 0x10269A, size: 0x8, addend: 0x0, symName: __RNvXs1_NtCsfMaSMcsiNJc_15wiggle_generate9lifetimesNtNtCs8QreBtO1sIU_4witx3ast14RecordDatatypeNtB5_11LifetimeExt14needs_lifetime, symObjAddr: 0x6C90, symBinAddr: 0x5BA00, symSize: 0x40 }
  - { offset: 0x1026CC, size: 0x8, addend: 0x0, symName: __RNvXs2_NtCsfMaSMcsiNJc_15wiggle_generate9lifetimesNtNtCs8QreBtO1sIU_4witx3ast7VariantNtB5_11LifetimeExt14needs_lifetime, symObjAddr: 0x7200, symBinAddr: 0x5BF30, symSize: 0x40 }
  - { offset: 0x1026FE, size: 0x8, addend: 0x0, symName: __RNvXs_NtCsfMaSMcsiNJc_15wiggle_generate9lifetimesNtNtCs8QreBtO1sIU_4witx3ast4TypeNtB4_11LifetimeExt14needs_lifetime, symObjAddr: 0x7990, symBinAddr: 0x5C610, symSize: 0xD0 }
  - { offset: 0x107C9D, size: 0x8, addend: 0x0, symName: __RINvMs0_NtCs8QreBtO1sIU_4witx3abiNtNtB8_3ast13InterfaceFunc14call_interfaceNtNtCsfMaSMcsiNJc_15wiggle_generate5funcs4RustEB1f_, symObjAddr: 0x14B0, symBinAddr: 0x56340, symSize: 0x1C0 }
  - { offset: 0x107DA1, size: 0x8, addend: 0x0, symName: __RINvMs5_NtNtCsieiGu2EXtoJ_4core3fmt8buildersNtB6_9DebugList7entriesRNtNtCs8QreBtO1sIU_4witx3abi8WasmTypeINtNtNtBa_5slice4iter4IterB14_EECsfMaSMcsiNJc_15wiggle_generate, symObjAddr: 0x1670, symBinAddr: 0x56500, symSize: 0xD0 }
  - { offset: 0x107E27, size: 0x8, addend: 0x0, symName: __RINvMs5_NtNtCsieiGu2EXtoJ_4core3fmt8buildersNtB6_9DebugList7entriesRNtNtCs8QreBtO1sIU_4witx3ast12RecordMemberINtNtNtBa_5slice4iter4IterB14_EECsfMaSMcsiNJc_15wiggle_generate, symObjAddr: 0x1740, symBinAddr: 0x565D0, symSize: 0xD0 }
  - { offset: 0x107EAD, size: 0x8, addend: 0x0, symName: __RINvMs5_NtNtCsieiGu2EXtoJ_4core3fmt8buildersNtB6_9DebugList7entriesRNtNtCs8QreBtO1sIU_4witx3ast18InterfaceFuncParamINtNtNtBa_5slice4iter4IterB14_EECsfMaSMcsiNJc_15wiggle_generate, symObjAddr: 0x1810, symBinAddr: 0x566A0, symSize: 0xD0 }
  - { offset: 0x107F33, size: 0x8, addend: 0x0, symName: __RINvMs5_NtNtCsieiGu2EXtoJ_4core3fmt8buildersNtB6_9DebugList7entriesRNtNtCs8QreBtO1sIU_4witx3ast4CaseINtNtNtBa_5slice4iter4IterB14_EECsfMaSMcsiNJc_15wiggle_generate, symObjAddr: 0x18E0, symBinAddr: 0x56770, symSize: 0xD0 }
  - { offset: 0x1083B5, size: 0x8, addend: 0x0, symName: __RNvMNtCsfMaSMcsiNJc_15wiggle_generate16codegen_settingsNtB2_15CodegenSettings3new, symObjAddr: 0x3D60, symBinAddr: 0x58BF0, symSize: 0x2B0 }
  - { offset: 0x108477, size: 0x8, addend: 0x0, symName: __RNvMNtCsfMaSMcsiNJc_15wiggle_generate16codegen_settingsNtB2_15CodegenSettings9get_async, symObjAddr: 0x4010, symBinAddr: 0x58EA0, symSize: 0x80 }
  - { offset: 0x1084C2, size: 0x8, addend: 0x0, symName: __RNvMs0_NtCsfMaSMcsiNJc_15wiggle_generate16codegen_settingsNtB5_9ErrorType8abi_type, symObjAddr: 0x40B0, symBinAddr: 0x58F40, symSize: 0x90 }
  - { offset: 0x1085C3, size: 0x8, addend: 0x0, symName: __RNvMs1_NtCsfMaSMcsiNJc_15wiggle_generate16codegen_settingsNtB5_18TrappableErrorType8typename, symObjAddr: 0x4170, symBinAddr: 0x58FD0, symSize: 0xA0 }
  - { offset: 0x10861C, size: 0x8, addend: 0x0, symName: __RNvMs2_NtCsfMaSMcsiNJc_15wiggle_generate16codegen_settingsNtB5_13UserErrorType15method_fragment, symObjAddr: 0x4210, symBinAddr: 0x59070, symSize: 0x30 }
  - { offset: 0x10863E, size: 0x8, addend: 0x0, symName: __RNvMs2_NtCsfMaSMcsiNJc_15wiggle_generate16codegen_settingsNtB5_13UserErrorType8abi_type, symObjAddr: 0x4240, symBinAddr: 0x590A0, symSize: 0x30 }
  - { offset: 0x108660, size: 0x8, addend: 0x0, symName: __RNvMs2_NtCsfMaSMcsiNJc_15wiggle_generate16codegen_settingsNtB5_13UserErrorType8typename, symObjAddr: 0x4270, symBinAddr: 0x590D0, symSize: 0x90 }
  - { offset: 0x1086B9, size: 0x8, addend: 0x0, symName: __RNvMs_NtCsfMaSMcsiNJc_15wiggle_generate16codegen_settingsNtB4_14ErrorTransform13for_abi_error, symObjAddr: 0x4300, symBinAddr: 0x59160, symSize: 0x70 }
  - { offset: 0x108756, size: 0x8, addend: 0x0, symName: __RNvMs_NtCsfMaSMcsiNJc_15wiggle_generate16codegen_settingsNtB4_14ErrorTransform3new, symObjAddr: 0x4370, symBinAddr: 0x591D0, symSize: 0x1A0 }
  - { offset: 0x1087E4, size: 0x8, addend: 0x0, symName: __RNvMs_NtCsfMaSMcsiNJc_15wiggle_generate16codegen_settingsNtB4_14ErrorTransform4iter, symObjAddr: 0x4510, symBinAddr: 0x59370, symSize: 0x30 }
  - { offset: 0x108806, size: 0x8, addend: 0x0, symName: __RNvMs_NtCsfMaSMcsiNJc_15wiggle_generate16codegen_settingsNtB4_14ErrorTransform8for_name, symObjAddr: 0x4590, symBinAddr: 0x593A0, symSize: 0x50 }
  - { offset: 0x108FDA, size: 0x8, addend: 0x0, symName: __RINvMs1_NtCsjK30CmJ87bX_9hashbrown3mapINtB6_7HashMapNtNtCslJiobkLta79_5alloc6string6StringINtNtBS_3vec3VecBO_ENtNtNtCsHUR1vrdMJt_3std4hash6random11RandomStateE9get_innereECsfMaSMcsiNJc_15wiggle_generate, symObjAddr: 0x0, symBinAddr: 0x5C930, symSize: 0x120 }
  - { offset: 0x10D036, size: 0x8, addend: 0x0, symName: __RINvNtCsieiGu2EXtoJ_4core3mem7replaceNtCsaKzlTDPUHDb_11proc_macro211TokenStreamECsfMaSMcsiNJc_15wiggle_generate, symObjAddr: 0x120, symBinAddr: 0x5CA50, symSize: 0x50 }
  - { offset: 0x10D12F, size: 0x8, addend: 0x0, symName: __RINvNtNtCsieiGu2EXtoJ_4core4iter8adapters11try_processINtNtB2_3map3MapINtNtNtNtCsHUR1vrdMJt_3std11collections4hash3map4IterNtCsaKzlTDPUHDb_11proc_macro25IdentNtNtCsfMaSMcsiNJc_15wiggle_generate6config14ErrorConfFieldENCNvMs_NtB2A_16codegen_settingsNtB3A_14ErrorTransform3new0ENtB3A_9ErrorTypeINtNtB6_6result6ResultNtNtB6_7convert10InfallibleNtCs5LsBMV3VaIp_6anyhow5ErrorENCINvXso_B4J_IB4H_INtNtCslJiobkLta79_5alloc3vec3VecB4q_EB5t_EINtNtNtB4_6traits7collect12FromIteratorIB4H_B4q_B5t_EE9from_iterBQ_E0B6f_EB2A_, symObjAddr: 0x170, symBinAddr: 0x5CAA0, symSize: 0x210 }
  - { offset: 0x10D1FC, size: 0x8, addend: 0x0, symName: __RINvXNtNtCsieiGu2EXtoJ_4core4iter8adaptersINtB3_12GenericShuntINtNtB3_3map3MapINtNtNtNtCsHUR1vrdMJt_3std11collections4hash3map4IterNtCsaKzlTDPUHDb_11proc_macro25IdentNtNtCsfMaSMcsiNJc_15wiggle_generate6config14ErrorConfFieldENCNvMs_NtB2I_16codegen_settingsNtB3I_14ErrorTransform3new0EINtNtB7_6result6ResultNtNtB7_7convert10InfallibleNtCs5LsBMV3VaIp_6anyhow5ErrorEENtNtNtB5_6traits8iterator8Iterator8try_folduNCINvNvB5Q_12try_for_each4callNtB3I_9ErrorTypeINtNtNtB7_3ops12control_flow11ControlFlowB72_ENcNtB7i_5Break0E0B7i_EB2I_, symObjAddr: 0x380, symBinAddr: 0x5CCB0, symSize: 0xC0 }
  - { offset: 0x10D2CA, size: 0x8, addend: 0x0, symName: __RNCINvXNtNtCsieiGu2EXtoJ_4core4iter8adaptersINtB5_12GenericShuntINtNtB5_3map3MapINtNtNtNtCsHUR1vrdMJt_3std11collections4hash3map4IterNtCsaKzlTDPUHDb_11proc_macro25IdentNtNtCsfMaSMcsiNJc_15wiggle_generate6config14ErrorConfFieldENCNvMs_NtB2K_16codegen_settingsNtB3K_14ErrorTransform3new0EINtNtB9_6result6ResultNtNtB9_7convert10InfallibleNtCs5LsBMV3VaIp_6anyhow5ErrorEENtNtNtB7_6traits8iterator8Iterator8try_folduNCINvNvB5S_12try_for_each4callNtB3K_9ErrorTypeINtNtNtB9_3ops12control_flow11ControlFlowB74_ENcNtB7k_5Break0E0B7k_E0B2K_, symObjAddr: 0x680, symBinAddr: 0x5CFB0, symSize: 0x240 }
  - { offset: 0x10D3C6, size: 0x8, addend: 0x0, symName: __RNvXNtNtCsieiGu2EXtoJ_4core4iter8adaptersINtB2_12GenericShuntINtNtB2_3map3MapINtNtNtNtCsHUR1vrdMJt_3std11collections4hash3map4IterNtCsaKzlTDPUHDb_11proc_macro25IdentNtNtCsfMaSMcsiNJc_15wiggle_generate6config14ErrorConfFieldENCNvMs_NtB2H_16codegen_settingsNtB3H_14ErrorTransform3new0EINtNtB6_6result6ResultNtNtB6_7convert10InfallibleNtCs5LsBMV3VaIp_6anyhow5ErrorEENtNtNtB4_6traits8iterator8Iterator4nextB2H_, symObjAddr: 0x4E00, symBinAddr: 0x61730, symSize: 0xD0 }
  - { offset: 0x10D45A, size: 0x8, addend: 0x0, symName: __RNvXNtNtCsieiGu2EXtoJ_4core4iter8adaptersINtB2_12GenericShuntINtNtB2_3map3MapINtNtNtNtCsHUR1vrdMJt_3std11collections4hash3map4IterNtCsaKzlTDPUHDb_11proc_macro25IdentNtNtCsfMaSMcsiNJc_15wiggle_generate6config14ErrorConfFieldENCNvMs_NtB2H_16codegen_settingsNtB3H_14ErrorTransform3new0EINtNtB6_6result6ResultNtNtB6_7convert10InfallibleNtCs5LsBMV3VaIp_6anyhow5ErrorEENtNtNtB4_6traits8iterator8Iterator9size_hintB2H_, symObjAddr: 0x4ED0, symBinAddr: 0x61800, symSize: 0xA0 }
  - { offset: 0x10D5DE, size: 0x8, addend: 0x0, symName: __RINvYINtNtNtCsieiGu2EXtoJ_4core4iter8adapters12GenericShuntINtNtB6_3map3MapINtNtNtNtCsHUR1vrdMJt_3std11collections4hash3map4IterNtCsaKzlTDPUHDb_11proc_macro25IdentNtNtCsfMaSMcsiNJc_15wiggle_generate6config14ErrorConfFieldENCNvMs_NtB2F_16codegen_settingsNtB3F_14ErrorTransform3new0EINtNtBa_6result6ResultNtNtBa_7convert10InfallibleNtCs5LsBMV3VaIp_6anyhow5ErrorEENtNtNtB8_6traits8iterator8Iterator7collectINtNtCslJiobkLta79_5alloc3vec3VecNtB3F_9ErrorTypeEEB2F_, symObjAddr: 0x440, symBinAddr: 0x5CD70, symSize: 0xA0 }
  - { offset: 0x10D674, size: 0x8, addend: 0x0, symName: __RINvYINtNtNtNtCsHUR1vrdMJt_3std11collections4hash3set8IntoIterNtCsaKzlTDPUHDb_11proc_macro25IdentENtNtNtNtCsieiGu2EXtoJ_4core4iter6traits8iterator8Iterator3mapNtB10_11TokenStreamNCNvNtCsfMaSMcsiNJc_15wiggle_generate8wasmtime11link_module0EB2W_, symObjAddr: 0x4E0, symBinAddr: 0x5CE10, symSize: 0x50 }
  - { offset: 0x10D753, size: 0x8, addend: 0x0, symName: __RNvXNtNtNtCsieiGu2EXtoJ_4core4iter6traits7collectINtNtB6_8adapters12GenericShuntINtNtBO_3map3MapINtNtNtNtCsHUR1vrdMJt_3std11collections4hash3map4IterNtCsaKzlTDPUHDb_11proc_macro25IdentNtNtCsfMaSMcsiNJc_15wiggle_generate6config14ErrorConfFieldENCNvMs_NtB30_16codegen_settingsNtB40_14ErrorTransform3new0EINtNtB8_6result6ResultNtNtB8_7convert10InfallibleNtCs5LsBMV3VaIp_6anyhow5ErrorEENtB2_12IntoIterator9into_iterB30_, symObjAddr: 0x4F70, symBinAddr: 0x618A0, symSize: 0x30 }
  - { offset: 0x10DC01, size: 0x8, addend: 0x0, symName: __RNvXs19_NtCsieiGu2EXtoJ_4core3fmtRINtNtCslJiobkLta79_5alloc2rc2RcNtNtCs8QreBtO1sIU_4witx3ast4TypeENtB6_5Debug3fmtCsfMaSMcsiNJc_15wiggle_generate, symObjAddr: 0x4FA0, symBinAddr: 0x618D0, symSize: 0x20 }
  - { offset: 0x10DC47, size: 0x8, addend: 0x0, symName: __RNvXs19_NtCsieiGu2EXtoJ_4core3fmtRINtNtCslJiobkLta79_5alloc2rc2RcNtNtCs8QreBtO1sIU_4witx3ast9NamedTypeENtB6_5Debug3fmtCsfMaSMcsiNJc_15wiggle_generate, symObjAddr: 0x4FC0, symBinAddr: 0x618F0, symSize: 0x20 }
  - { offset: 0x10DC8D, size: 0x8, addend: 0x0, symName: __RNvXs19_NtCsieiGu2EXtoJ_4core3fmtRNtNtNtCsHUR1vrdMJt_3std2io5error5ErrorNtB6_5Debug3fmtCsfMaSMcsiNJc_15wiggle_generate, symObjAddr: 0x4FE0, symBinAddr: 0x61910, symSize: 0x20 }
  - { offset: 0x10E20D, size: 0x8, addend: 0x0, symName: __RNvXs7_NtNtCsieiGu2EXtoJ_4core3str7patternINtB5_18MultiCharEqPatternNCINvCsi88DhWbSVU_11shellexpand16env_with_contextNtNtCslJiobkLta79_5alloc6string6StringB1R_NCINvB19_3envB1R_E0NtNtCsHUR1vrdMJt_3std3env8VarErrorE0ENtB5_7Pattern13into_searcherCsfMaSMcsiNJc_15wiggle_generate, symObjAddr: 0x5210, symBinAddr: 0x61B40, symSize: 0xB0 }
  - { offset: 0x10E26F, size: 0x8, addend: 0x0, symName: __RNvXs8_NtNtCsieiGu2EXtoJ_4core3str7patternINtB5_19MultiCharEqSearcherNCINvCsi88DhWbSVU_11shellexpand16env_with_contextNtNtCslJiobkLta79_5alloc6string6StringB1S_NCINvB1a_3envB1S_E0NtNtCsHUR1vrdMJt_3std3env8VarErrorE0ENtB5_8Searcher4nextCsfMaSMcsiNJc_15wiggle_generate, symObjAddr: 0x52C0, symBinAddr: 0x61BF0, symSize: 0x160 }
  - { offset: 0x10E39D, size: 0x8, addend: 0x0, symName: __RNvXso_NtNtCsieiGu2EXtoJ_4core3str7patternINtB5_21CharPredicateSearcherNCINvCsi88DhWbSVU_11shellexpand16env_with_contextNtNtCslJiobkLta79_5alloc6string6StringB1U_NCINvB1c_3envB1U_E0NtNtCsHUR1vrdMJt_3std3env8VarErrorE0ENtB5_8Searcher10next_matchCsfMaSMcsiNJc_15wiggle_generate, symObjAddr: 0x56F0, symBinAddr: 0x62020, symSize: 0x30 }
  - { offset: 0x10E3DA, size: 0x8, addend: 0x0, symName: __RNvXst_NtNtCsieiGu2EXtoJ_4core3str7patternReNtB5_7Pattern13into_searcherCsfMaSMcsiNJc_15wiggle_generate, symObjAddr: 0x5720, symBinAddr: 0x62050, symSize: 0x50 }
  - { offset: 0x10E41D, size: 0x8, addend: 0x0, symName: __RNvXsv_NtNtCsieiGu2EXtoJ_4core3str7patternNtB5_11StrSearcherNtB5_8Searcher10next_matchCsfMaSMcsiNJc_15wiggle_generate, symObjAddr: 0x5770, symBinAddr: 0x620A0, symSize: 0x170 }
  - { offset: 0x10E4AA, size: 0x8, addend: 0x0, symName: __RNvXsv_NtNtCsieiGu2EXtoJ_4core3str7patternNtB5_11StrSearcherNtB5_8Searcher4nextCsfMaSMcsiNJc_15wiggle_generate, symObjAddr: 0x58E0, symBinAddr: 0x62210, symSize: 0x500 }
  - { offset: 0x10E7BC, size: 0x8, addend: 0x0, symName: __RNvYINtNtNtCsieiGu2EXtoJ_4core3str7pattern19MultiCharEqSearcherNCINvCsi88DhWbSVU_11shellexpand16env_with_contextNtNtCslJiobkLta79_5alloc6string6StringB1M_NCINvB14_3envB1M_E0NtNtCsHUR1vrdMJt_3std3env8VarErrorE0ENtB5_8Searcher10next_matchCsfMaSMcsiNJc_15wiggle_generate, symObjAddr: 0x5DF0, symBinAddr: 0x62720, symSize: 0x90 }
  - { offset: 0x10F090, size: 0x8, addend: 0x0, symName: __RNvXsh_NtNtNtCsHUR1vrdMJt_3std11collections4hash3setINtB5_7HashSetNtCsaKzlTDPUHDb_11proc_macro25IdentENtNtNtNtCsieiGu2EXtoJ_4core4iter6traits7collect12IntoIterator9into_iterCsfMaSMcsiNJc_15wiggle_generate, symObjAddr: 0x55E0, symBinAddr: 0x61F10, symSize: 0x80 }
  - { offset: 0x10F0F5, size: 0x8, addend: 0x0, symName: __RNvXsn_NtNtNtCsHUR1vrdMJt_3std11collections4hash3setINtB5_8IntoIterNtCsaKzlTDPUHDb_11proc_macro25IdentENtNtNtNtCsieiGu2EXtoJ_4core4iter6traits8iterator8Iterator4nextCsfMaSMcsiNJc_15wiggle_generate, symObjAddr: 0x5660, symBinAddr: 0x61F90, symSize: 0x90 }
  - { offset: 0x110A8C, size: 0x8, addend: 0x0, symName: __RNvXsK_NtCslJiobkLta79_5alloc2rcINtB5_2RcNtNtCs8QreBtO1sIU_4witx3ast4TypeENtNtCsieiGu2EXtoJ_4core3fmt5Debug3fmtCsfMaSMcsiNJc_15wiggle_generate, symObjAddr: 0x5580, symBinAddr: 0x61EB0, symSize: 0x30 }
  - { offset: 0x110B2C, size: 0x8, addend: 0x0, symName: __RNvXsK_NtCslJiobkLta79_5alloc2rcINtB5_2RcNtNtCs8QreBtO1sIU_4witx3ast9NamedTypeENtNtCsieiGu2EXtoJ_4core3fmt5Debug3fmtCsfMaSMcsiNJc_15wiggle_generate, symObjAddr: 0x55B0, symBinAddr: 0x61EE0, symSize: 0x30 }
  - { offset: 0x1111C5, size: 0x8, addend: 0x0, symName: __RNCINvNtCsjK30CmJ87bX_9hashbrown3map14equivalent_keyNtCsaKzlTDPUHDb_11proc_macro25IdentBO_NtBQ_4SpanE0CsfMaSMcsiNJc_15wiggle_generate, symObjAddr: 0x5F0, symBinAddr: 0x5CF20, symSize: 0x20 }
  - { offset: 0x11121C, size: 0x8, addend: 0x0, symName: __RNCINvNtCsjK30CmJ87bX_9hashbrown3map14equivalent_keyNtCsaKzlTDPUHDb_11proc_macro25IdentBO_NtNtCsfMaSMcsiNJc_15wiggle_generate6config14ErrorConfFieldE0B1u_, symObjAddr: 0x610, symBinAddr: 0x5CF40, symSize: 0x20 }
  - { offset: 0x111273, size: 0x8, addend: 0x0, symName: __RNCINvNtCsjK30CmJ87bX_9hashbrown3map14equivalent_keyNtCsaKzlTDPUHDb_11proc_macro25IdentBO_uE0CsfMaSMcsiNJc_15wiggle_generate, symObjAddr: 0x630, symBinAddr: 0x5CF60, symSize: 0x20 }
  - { offset: 0x1112CA, size: 0x8, addend: 0x0, symName: __RNCINvNtCsjK30CmJ87bX_9hashbrown3map14equivalent_keyeNtNtCslJiobkLta79_5alloc6string6StringINtNtBT_3vec3VecBP_EE0CsfMaSMcsiNJc_15wiggle_generate, symObjAddr: 0x650, symBinAddr: 0x5CF80, symSize: 0x30 }
  - { offset: 0x111506, size: 0x8, addend: 0x0, symName: __RNCINvNtCsjK30CmJ87bX_9hashbrown3map11make_hasherNtCsaKzlTDPUHDb_11proc_macro25IdentNtBN_4SpanNtNtNtCsHUR1vrdMJt_3std4hash6random11RandomStateE0CsfMaSMcsiNJc_15wiggle_generate, symObjAddr: 0x530, symBinAddr: 0x5CE60, symSize: 0x30 }
  - { offset: 0x111582, size: 0x8, addend: 0x0, symName: __RNCINvNtCsjK30CmJ87bX_9hashbrown3map11make_hasherNtCsaKzlTDPUHDb_11proc_macro25IdentNtNtCsfMaSMcsiNJc_15wiggle_generate6config14ErrorConfFieldNtNtNtCsHUR1vrdMJt_3std4hash6random11RandomStateE0B1o_, symObjAddr: 0x560, symBinAddr: 0x5CE90, symSize: 0x30 }
  - { offset: 0x1115FE, size: 0x8, addend: 0x0, symName: __RNCINvNtCsjK30CmJ87bX_9hashbrown3map11make_hasherNtCsaKzlTDPUHDb_11proc_macro25IdentuNtNtNtCsHUR1vrdMJt_3std4hash6random11RandomStateE0CsfMaSMcsiNJc_15wiggle_generate, symObjAddr: 0x590, symBinAddr: 0x5CEC0, symSize: 0x30 }
  - { offset: 0x11167A, size: 0x8, addend: 0x0, symName: __RNCINvNtCsjK30CmJ87bX_9hashbrown3map11make_hasherNtNtCslJiobkLta79_5alloc6string6StringINtNtBP_3vec3VecBL_ENtNtNtCsHUR1vrdMJt_3std4hash6random11RandomStateE0CsfMaSMcsiNJc_15wiggle_generate, symObjAddr: 0x5C0, symBinAddr: 0x5CEF0, symSize: 0x30 }
  - { offset: 0x111BB9, size: 0x8, addend: 0x0, symName: __RNvXNtCsjK30CmJ87bX_9hashbrown3mapINtB2_7HashMapNtNtCslJiobkLta79_5alloc6string6StringINtNtBO_3vec3VecBK_ENtNtNtCsHUR1vrdMJt_3std4hash6random11RandomStateENtNtCsieiGu2EXtoJ_4core5clone5Clone5cloneCsfMaSMcsiNJc_15wiggle_generate, symObjAddr: 0x4D60, symBinAddr: 0x61690, symSize: 0xA0 }
  - { offset: 0x111C99, size: 0x8, addend: 0x0, symName: __RNvXs5_NtCsjK30CmJ87bX_9hashbrown3mapINtB5_7HashMapNtCsaKzlTDPUHDb_11proc_macro25IdentuNtNtNtCsHUR1vrdMJt_3std4hash6random11RandomStateENtNtCsieiGu2EXtoJ_4core7default7Default7defaultCsfMaSMcsiNJc_15wiggle_generate, symObjAddr: 0x50F0, symBinAddr: 0x61A20, symSize: 0xC0 }
  - { offset: 0x111D1D, size: 0x8, addend: 0x0, symName: __RNvXsE_NtCsjK30CmJ87bX_9hashbrown3mapINtB5_7HashMapNtCsaKzlTDPUHDb_11proc_macro25IdentuNtNtNtCsHUR1vrdMJt_3std4hash6random11RandomStateENtNtNtNtCsieiGu2EXtoJ_4core4iter6traits7collect12IntoIterator9into_iterCsfMaSMcsiNJc_15wiggle_generate, symObjAddr: 0x5420, symBinAddr: 0x61D50, symSize: 0x80 }
  - { offset: 0x111D76, size: 0x8, addend: 0x0, symName: __RNvXsG_NtCsjK30CmJ87bX_9hashbrown3mapINtB5_4IterNtCsaKzlTDPUHDb_11proc_macro25IdentNtNtCsfMaSMcsiNJc_15wiggle_generate6config14ErrorConfFieldENtNtNtNtCsieiGu2EXtoJ_4core4iter6traits8iterator8Iterator4nextB1n_, symObjAddr: 0x54A0, symBinAddr: 0x61DD0, symSize: 0xE0 }
  - { offset: 0x1122B2, size: 0x8, addend: 0x0, symName: __RINvMs1_NtCsjK30CmJ87bX_9hashbrown3mapINtB6_7HashMapNtNtCslJiobkLta79_5alloc6string6StringINtNtBS_3vec3VecBO_ENtNtNtCsHUR1vrdMJt_3std4hash6random11RandomStateE9get_innereECsfMaSMcsiNJc_15wiggle_generate, symObjAddr: 0x0, symBinAddr: 0x5C930, symSize: 0x120 }
  - { offset: 0x1125EC, size: 0x8, addend: 0x0, symName: __RNvNtNtCsfMaSMcsiNJc_15wiggle_generate5types5flags12define_flags, symObjAddr: 0x1390, symBinAddr: 0x5DCC0, symSize: 0x39D0 }
  - { offset: 0x11804C, size: 0x8, addend: 0x0, symName: __RNvMNtCsjK30CmJ87bX_9hashbrown11rustc_entryINtNtB4_3map7HashMapNtNtCslJiobkLta79_5alloc6string6StringINtNtB13_3vec3VecBZ_ENtNtNtCsHUR1vrdMJt_3std4hash6random11RandomStateE11rustc_entryCsfMaSMcsiNJc_15wiggle_generate, symObjAddr: 0x8C0, symBinAddr: 0x5D1F0, symSize: 0x1C0 }
  - { offset: 0x118110, size: 0x8, addend: 0x0, symName: __RNvMNtNtNtCsHUR1vrdMJt_3std11collections4hash3setINtB2_7HashSetNtCsaKzlTDPUHDb_11proc_macro25IdentE3newCsfMaSMcsiNJc_15wiggle_generate, symObjAddr: 0xA80, symBinAddr: 0x5D3B0, symSize: 0x50 }
  - { offset: 0x1182CF, size: 0x8, addend: 0x0, symName: __RNvMs0_NtCsjK30CmJ87bX_9hashbrown3mapINtB5_7HashMapNtCsaKzlTDPUHDb_11proc_macro25IdentNtNtCsfMaSMcsiNJc_15wiggle_generate6config14ErrorConfFieldNtNtNtCsHUR1vrdMJt_3std4hash6random11RandomStateE4iterB1q_, symObjAddr: 0xAD0, symBinAddr: 0x5D400, symSize: 0x100 }
  - { offset: 0x1184DC, size: 0x8, addend: 0x0, symName: __RNvMs0_NtNtNtCsHUR1vrdMJt_3std11collections4hash3setINtB5_7HashSetNtCsaKzlTDPUHDb_11proc_macro25IdentE6insertCsfMaSMcsiNJc_15wiggle_generate, symObjAddr: 0xBD0, symBinAddr: 0x5D500, symSize: 0x40 }
  - { offset: 0x11869C, size: 0x8, addend: 0x0, symName: __RNvMs1_NtCsjK30CmJ87bX_9hashbrown3mapINtB5_7HashMapNtCsaKzlTDPUHDb_11proc_macro25IdentNtBP_4SpanNtNtNtCsHUR1vrdMJt_3std4hash6random11RandomStateE6insertCsfMaSMcsiNJc_15wiggle_generate, symObjAddr: 0xC10, symBinAddr: 0x5D540, symSize: 0x250 }
  - { offset: 0x118907, size: 0x8, addend: 0x0, symName: __RNvMs1_NtCsjK30CmJ87bX_9hashbrown3mapINtB5_7HashMapNtCsaKzlTDPUHDb_11proc_macro25IdentNtNtCsfMaSMcsiNJc_15wiggle_generate6config14ErrorConfFieldNtNtNtCsHUR1vrdMJt_3std4hash6random11RandomStateE6insertB1q_, symObjAddr: 0xE60, symBinAddr: 0x5D790, symSize: 0x2E0 }
  - { offset: 0x118B72, size: 0x8, addend: 0x0, symName: __RNvMs1_NtCsjK30CmJ87bX_9hashbrown3mapINtB5_7HashMapNtCsaKzlTDPUHDb_11proc_macro25IdentuNtNtNtCsHUR1vrdMJt_3std4hash6random11RandomStateE6insertCsfMaSMcsiNJc_15wiggle_generate, symObjAddr: 0x1140, symBinAddr: 0x5DA70, symSize: 0x210 }
  - { offset: 0x118D5E, size: 0x8, addend: 0x0, symName: __RNvXs5_NtCs9OU1sGv5X54_5quote9___privateINtB5_9RepInterpNtCsaKzlTDPUHDb_11proc_macro211TokenStreamENtNtB7_9to_tokens8ToTokens9to_tokensCsfMaSMcsiNJc_15wiggle_generate, symObjAddr: 0x5000, symBinAddr: 0x61930, symSize: 0x30 }
  - { offset: 0x118D9D, size: 0x8, addend: 0x0, symName: __RNvXs5_NtCs9OU1sGv5X54_5quote9___privateINtB5_9RepInterpNtCsaKzlTDPUHDb_11proc_macro25IdentENtNtB7_9to_tokens8ToTokens9to_tokensCsfMaSMcsiNJc_15wiggle_generate, symObjAddr: 0x5030, symBinAddr: 0x61960, symSize: 0x30 }
  - { offset: 0x118DDC, size: 0x8, addend: 0x0, symName: __RNvXs5_NtCs9OU1sGv5X54_5quote9___privateINtB5_9RepInterpRNtCsaKzlTDPUHDb_11proc_macro211TokenStreamENtNtB7_9to_tokens8ToTokens9to_tokensCsfMaSMcsiNJc_15wiggle_generate, symObjAddr: 0x5060, symBinAddr: 0x61990, symSize: 0x30 }
  - { offset: 0x118E1B, size: 0x8, addend: 0x0, symName: __RNvXs5_NtCs9OU1sGv5X54_5quote9___privateINtB5_9RepInterpRNtCsaKzlTDPUHDb_11proc_macro25IdentENtNtB7_9to_tokens8ToTokens9to_tokensCsfMaSMcsiNJc_15wiggle_generate, symObjAddr: 0x5090, symBinAddr: 0x619C0, symSize: 0x30 }
  - { offset: 0x118E5A, size: 0x8, addend: 0x0, symName: __RNvXs5_NtCs9OU1sGv5X54_5quote9___privateINtB5_9RepInterpRNtCsaKzlTDPUHDb_11proc_macro27LiteralENtNtB7_9to_tokens8ToTokens9to_tokensCsfMaSMcsiNJc_15wiggle_generate, symObjAddr: 0x50C0, symBinAddr: 0x619F0, symSize: 0x30 }
  - { offset: 0x118E9F, size: 0x8, addend: 0x0, symName: __RNvXs7_NtCs9OU1sGv5X54_5quote9___privateINtB5_20IdentFragmentAdapterRNtCsaKzlTDPUHDb_11proc_macro25IdentENtNtCsieiGu2EXtoJ_4core3fmt7Display3fmtCsfMaSMcsiNJc_15wiggle_generate, symObjAddr: 0x51B0, symBinAddr: 0x61AE0, symSize: 0x30 }
  - { offset: 0x118EE5, size: 0x8, addend: 0x0, symName: __RNvXs7_NtCs9OU1sGv5X54_5quote9___privateINtB5_20IdentFragmentAdapterRNtNtCslJiobkLta79_5alloc6string6StringENtNtCsieiGu2EXtoJ_4core3fmt7Display3fmtCsfMaSMcsiNJc_15wiggle_generate, symObjAddr: 0x51E0, symBinAddr: 0x61B10, symSize: 0x30 }
  - { offset: 0x118F31, size: 0x8, addend: 0x0, symName: __RNvYINtNtCs9OU1sGv5X54_5quote9___private11HasIteratorKb1_EINtB5_16CheckHasIteratorKBQ_E5checkCsfMaSMcsiNJc_15wiggle_generate, symObjAddr: 0x5DE0, symBinAddr: 0x62710, symSize: 0x10 }
  - { offset: 0x118F6D, size: 0x8, addend: 0x0, symName: __RNvYINtNtNtNtCsHUR1vrdMJt_3std11collections4hash3set8IntoIterNtCsaKzlTDPUHDb_11proc_macro25IdentENtNtNtCs9OU1sGv5X54_5quote9___private3ext14RepIteratorExt15quote_into_iterCsfMaSMcsiNJc_15wiggle_generate, symObjAddr: 0x5E80, symBinAddr: 0x627B0, symSize: 0x30 }
  - { offset: 0x11905A, size: 0x8, addend: 0x0, symName: __RNvMs6_NtCs9OU1sGv5X54_5quote9___privateINtB5_20IdentFragmentAdapterRNtCsaKzlTDPUHDb_11proc_macro25IdentE4spanCsfMaSMcsiNJc_15wiggle_generate, symObjAddr: 0x1350, symBinAddr: 0x5DC80, symSize: 0x20 }
  - { offset: 0x119093, size: 0x8, addend: 0x0, symName: __RNvMs6_NtCs9OU1sGv5X54_5quote9___privateINtB5_20IdentFragmentAdapterRNtNtCslJiobkLta79_5alloc6string6StringE4spanCsfMaSMcsiNJc_15wiggle_generate, symObjAddr: 0x1370, symBinAddr: 0x5DCA0, symSize: 0x20 }
  - { offset: 0x119917, size: 0x8, addend: 0x0, symName: __RINvMNtNtCsieiGu2EXtoJ_4core3fmt2rtNtB3_8Argument11new_displayINtNtCs9OU1sGv5X54_5quote9___private20IdentFragmentAdapterRNtCsaKzlTDPUHDb_11proc_macro25IdentEECsfMaSMcsiNJc_15wiggle_generate, symObjAddr: 0x0, symBinAddr: 0x627E0, symSize: 0x30 }
  - { offset: 0x11A042, size: 0x8, addend: 0x0, symName: __RINvXsa_NtCsaKzlTDPUHDb_11proc_macro28fallbackNtB6_11TokenStreamINtNtNtNtCsieiGu2EXtoJ_4core4iter6traits7collect6ExtendNtB8_9TokenTreeE6extendNtB8_11TokenStreamECsfMaSMcsiNJc_15wiggle_generate, symObjAddr: 0x400, symBinAddr: 0x62BB0, symSize: 0xC0 }
  - { offset: 0x11A0A9, size: 0x8, addend: 0x0, symName: __RNCINvXsa_NtCsaKzlTDPUHDb_11proc_macro28fallbackNtB8_11TokenStreamINtNtNtNtCsieiGu2EXtoJ_4core4iter6traits7collect6ExtendNtBa_9TokenTreeE6extendNtBa_11TokenStreamE0CsfMaSMcsiNJc_15wiggle_generate, symObjAddr: 0x500, symBinAddr: 0x62CB0, symSize: 0xA0 }
  - { offset: 0x11A0F6, size: 0x8, addend: 0x0, symName: __RNvXsA_NtCsaKzlTDPUHDb_11proc_macro28fallbackNtB5_5IdentNtNtCsieiGu2EXtoJ_4core5clone5Clone5cloneCsfMaSMcsiNJc_15wiggle_generate, symObjAddr: 0x5920, symBinAddr: 0x680D0, symSize: 0x90 }
  - { offset: 0x11A12A, size: 0x8, addend: 0x0, symName: __RNvXss_NtCsaKzlTDPUHDb_11proc_macro28fallbackNtB5_11TokenStreamNtNtCsieiGu2EXtoJ_4core5clone5Clone5cloneCsfMaSMcsiNJc_15wiggle_generate, symObjAddr: 0x5A50, symBinAddr: 0x68200, symSize: 0x20 }
  - { offset: 0x11A15C, size: 0x8, addend: 0x0, symName: __RNvXsu_NtCsaKzlTDPUHDb_11proc_macro28fallbackNtB5_4SpanNtNtCsieiGu2EXtoJ_4core5clone5Clone5cloneCsfMaSMcsiNJc_15wiggle_generate, symObjAddr: 0x5A70, symBinAddr: 0x68220, symSize: 0x10 }
  - { offset: 0x11B488, size: 0x8, addend: 0x0, symName: __RNvXse_NtCsieiGu2EXtoJ_4core3fmtbNtB5_5Debug3fmtCsfMaSMcsiNJc_15wiggle_generate, symObjAddr: 0x59B0, symBinAddr: 0x68160, symSize: 0x20 }
  - { offset: 0x11BB98, size: 0x8, addend: 0x0, symName: __RNvNvMs1_NtNtCsieiGu2EXtoJ_4core3ptr8non_nullINtB7_7NonNullpE13new_unchecked18precondition_checkCsfMaSMcsiNJc_15wiggle_generate, symObjAddr: 0x5860, symBinAddr: 0x68010, symSize: 0x90 }
  - { offset: 0x11E4CC, size: 0x8, addend: 0x0, symName: __RINvXs_NtNtNtCsieiGu2EXtoJ_4core4iter8adapters5chainINtB5_5ChainINtNtNtBb_5slice4iter4IterReEB10_ENtNtNtB9_6traits8iterator8Iterator8try_folduNCINvNvB1y_3any5checkRB1q_NCNvNtNtCsfMaSMcsiNJc_15wiggle_generate5names8escaping9escape_id0E0INtNtNtBb_3ops12control_flow11ControlFlowuEEB2O_, symObjAddr: 0x240, symBinAddr: 0x629F0, symSize: 0x1C0 }
  - { offset: 0x11E5DA, size: 0x8, addend: 0x0, symName: __RINvYINtNtNtNtCsieiGu2EXtoJ_4core4iter8adapters5chain5ChainINtNtNtBc_5slice4iter4IterReEBV_ENtNtNtBa_6traits8iterator8Iterator3anyNCNvNtNtCsfMaSMcsiNJc_15wiggle_generate5names8escaping9escape_id0EB2c_, symObjAddr: 0x4C0, symBinAddr: 0x62C70, symSize: 0x40 }
  - { offset: 0x11FD6A, size: 0x8, addend: 0x0, symName: __RNvXNvXNvMNtCslJiobkLta79_5alloc5sliceSp9to_vec_inpNtB5_10ConvertVec6to_vecINtB2_9DropGuardNtNtBa_6string6StringNtNtBa_5alloc6GlobalENtNtNtCsieiGu2EXtoJ_4core3ops4drop4Drop4dropCsfMaSMcsiNJc_15wiggle_generate, symObjAddr: 0x58F0, symBinAddr: 0x680A0, symSize: 0x30 }
  - { offset: 0x11FEA8, size: 0x8, addend: 0x0, symName: __RNvXse_NtCslJiobkLta79_5alloc6borrowINtB5_3CoweEINtNtCsieiGu2EXtoJ_4core7convert5AsRefeE6as_refCsfMaSMcsiNJc_15wiggle_generate, symObjAddr: 0x59D0, symBinAddr: 0x68180, symSize: 0x80 }
  - { offset: 0x11FF4E, size: 0x8, addend: 0x0, symName: __RINvMNtNtCsieiGu2EXtoJ_4core3fmt2rtNtB3_8Argument11new_displayINtNtCs9OU1sGv5X54_5quote9___private20IdentFragmentAdapterRNtCsaKzlTDPUHDb_11proc_macro25IdentEECsfMaSMcsiNJc_15wiggle_generate, symObjAddr: 0x0, symBinAddr: 0x627E0, symSize: 0x30 }
  - { offset: 0x11FFA0, size: 0x8, addend: 0x0, symName: __RINvMNtNtCsieiGu2EXtoJ_4core3fmt2rtNtB3_8Argument11new_displayINtNtCs9OU1sGv5X54_5quote9___private20IdentFragmentAdapterRNtNtCslJiobkLta79_5alloc6string6StringEECsfMaSMcsiNJc_15wiggle_generate, symObjAddr: 0x30, symBinAddr: 0x62810, symSize: 0x30 }
  - { offset: 0x11FFEC, size: 0x8, addend: 0x0, symName: __RINvMNtNtCsieiGu2EXtoJ_4core3fmt2rtNtB3_8Argument11new_displayNtCsaKzlTDPUHDb_11proc_macro211TokenStreamECsfMaSMcsiNJc_15wiggle_generate, symObjAddr: 0x60, symBinAddr: 0x62840, symSize: 0x30 }
  - { offset: 0x12047E, size: 0x8, addend: 0x0, symName: __RINvMNtNtCsieiGu2EXtoJ_4core3fmt2rtNtB3_8Argument9new_debugNtCsaKzlTDPUHDb_11proc_macro24SpanECsfMaSMcsiNJc_15wiggle_generate, symObjAddr: 0xC0, symBinAddr: 0x62870, symSize: 0x30 }
  - { offset: 0x1204B6, size: 0x8, addend: 0x0, symName: __RINvMNtNtCsieiGu2EXtoJ_4core3fmt2rtNtB3_8Argument9new_debugNtNtCs8QreBtO1sIU_4witx3ast7TypeRefECsfMaSMcsiNJc_15wiggle_generate, symObjAddr: 0xF0, symBinAddr: 0x628A0, symSize: 0x30 }
  - { offset: 0x1204FB, size: 0x8, addend: 0x0, symName: __RINvMNtNtCsieiGu2EXtoJ_4core3fmt2rtNtB3_8Argument9new_debugRINtNtCslJiobkLta79_5alloc2rc2RcNtNtCs8QreBtO1sIU_4witx3ast4TypeEECsfMaSMcsiNJc_15wiggle_generate, symObjAddr: 0x120, symBinAddr: 0x628D0, symSize: 0x30 }
  - { offset: 0x120533, size: 0x8, addend: 0x0, symName: __RINvMNtNtCsieiGu2EXtoJ_4core3fmt2rtNtB3_8Argument9new_debugRNtCsaKzlTDPUHDb_11proc_macro24SpanECsfMaSMcsiNJc_15wiggle_generate, symObjAddr: 0x150, symBinAddr: 0x62900, symSize: 0x30 }
  - { offset: 0x12056B, size: 0x8, addend: 0x0, symName: __RINvMNtNtCsieiGu2EXtoJ_4core3fmt2rtNtB3_8Argument9new_debugRNtCsaKzlTDPUHDb_11proc_macro25IdentECsfMaSMcsiNJc_15wiggle_generate, symObjAddr: 0x180, symBinAddr: 0x62930, symSize: 0x30 }
  - { offset: 0x12060F, size: 0x8, addend: 0x0, symName: __RINvMNtNtCsieiGu2EXtoJ_4core3fmt2rtNtB3_8Argument9new_debugRNtNtCs8QreBtO1sIU_4witx3abi11InstructionECsfMaSMcsiNJc_15wiggle_generate, symObjAddr: 0x1B0, symBinAddr: 0x62960, symSize: 0x30 }
  - { offset: 0x120647, size: 0x8, addend: 0x0, symName: __RINvMNtNtCsieiGu2EXtoJ_4core3fmt2rtNtB3_8Argument9new_debugRNtNtCs8QreBtO1sIU_4witx3ast7TypeRefECsfMaSMcsiNJc_15wiggle_generate, symObjAddr: 0x1E0, symBinAddr: 0x62990, symSize: 0x30 }
  - { offset: 0x12068C, size: 0x8, addend: 0x0, symName: __RINvMNtNtCsieiGu2EXtoJ_4core3fmt2rtNtB3_8Argument9new_debugRNtNtCs8QreBtO1sIU_4witx3ast7VariantECsfMaSMcsiNJc_15wiggle_generate, symObjAddr: 0x210, symBinAddr: 0x629C0, symSize: 0x30 }
  - { offset: 0x1206ED, size: 0x8, addend: 0x0, symName: __RNvMs1_NtNtCsieiGu2EXtoJ_4core3ptr8non_nullINtB5_7NonNullNtCsaKzlTDPUHDb_11proc_macro211TokenStreamE20offset_from_unsignedCsfMaSMcsiNJc_15wiggle_generate, symObjAddr: 0x5A0, symBinAddr: 0x62D50, symSize: 0x60 }
  - { offset: 0x1207F7, size: 0x8, addend: 0x0, symName: __RNvMs1_NtNtCsieiGu2EXtoJ_4core3ptr8non_nullINtB5_7NonNullNtCsaKzlTDPUHDb_11proc_macro25IdentE20offset_from_unsignedCsfMaSMcsiNJc_15wiggle_generate, symObjAddr: 0x600, symBinAddr: 0x62DB0, symSize: 0x70 }
  - { offset: 0x120901, size: 0x8, addend: 0x0, symName: __RNvMs1_NtNtCsieiGu2EXtoJ_4core3ptr8non_nullINtB5_7NonNullNtNtCs8QreBtO1sIU_4witx3abi8WasmTypeE20offset_from_unsignedCsfMaSMcsiNJc_15wiggle_generate, symObjAddr: 0x670, symBinAddr: 0x62E20, symSize: 0x60 }
  - { offset: 0x120A18, size: 0x8, addend: 0x0, symName: __RNvMs1_NtNtCsieiGu2EXtoJ_4core3ptr8non_nullINtB5_7NonNullNtNtCs8QreBtO1sIU_4witx6layout18RecordMemberLayoutE20offset_from_unsignedCsfMaSMcsiNJc_15wiggle_generate, symObjAddr: 0x6D0, symBinAddr: 0x62E80, symSize: 0x60 }
  - { offset: 0x120B22, size: 0x8, addend: 0x0, symName: __RNvMs1_NtNtCsieiGu2EXtoJ_4core3ptr8non_nullINtB5_7NonNullNtNtCsHUR1vrdMJt_3std4path7PathBufE20offset_from_unsignedCsfMaSMcsiNJc_15wiggle_generate, symObjAddr: 0x730, symBinAddr: 0x62EE0, symSize: 0x70 }
  - { offset: 0x120F8B, size: 0x8, addend: 0x0, symName: __RNvNtNtCsfMaSMcsiNJc_15wiggle_generate5types5error12define_error, symObjAddr: 0xBD0, symBinAddr: 0x63380, symSize: 0x1DF0 }
  - { offset: 0x121283, size: 0x8, addend: 0x0, symName: __RNvNtNtCsfMaSMcsiNJc_15wiggle_generate5types6handle13define_handle, symObjAddr: 0x29C0, symBinAddr: 0x65170, symSize: 0x2EA0 }
  - { offset: 0x1268D1, size: 0x8, addend: 0x0, symName: __RNvMs1_NtNtCsieiGu2EXtoJ_4core3ptr8non_nullINtB5_7NonNullNtNtCsfMaSMcsiNJc_15wiggle_generate6config11ConfigFieldE20offset_from_unsignedBX_, symObjAddr: 0x7A0, symBinAddr: 0x62F50, symSize: 0x70 }
  - { offset: 0x1269DB, size: 0x8, addend: 0x0, symName: __RNvMs1_NtNtCsieiGu2EXtoJ_4core3ptr8non_nullINtB5_7NonNullNtNtCsfMaSMcsiNJc_15wiggle_generate6config13FunctionFieldE20offset_from_unsignedBX_, symObjAddr: 0x810, symBinAddr: 0x62FC0, symSize: 0x70 }
  - { offset: 0x126AE5, size: 0x8, addend: 0x0, symName: __RNvMs1_NtNtCsieiGu2EXtoJ_4core3ptr8non_nullINtB5_7NonNullNtNtCsfMaSMcsiNJc_15wiggle_generate6config14ErrorConfFieldE20offset_from_unsignedBX_, symObjAddr: 0x880, symBinAddr: 0x63030, symSize: 0x70 }
  - { offset: 0x126BEF, size: 0x8, addend: 0x0, symName: __RNvMs1_NtNtCsieiGu2EXtoJ_4core3ptr8non_nullINtB5_7NonNullNtNtCsfMaSMcsiNJc_15wiggle_generate6config19WasmtimeConfigFieldE20offset_from_unsignedBX_, symObjAddr: 0x8F0, symBinAddr: 0x630A0, symSize: 0x70 }
  - { offset: 0x126D17, size: 0x8, addend: 0x0, symName: __RNvMs1_NtNtCsieiGu2EXtoJ_4core3ptr8non_nullINtB5_7NonNullTNtCsaKzlTDPUHDb_11proc_macro25IdentNtNtCsdGrGZaRBwMb_3syn5token5CommaEE20offset_from_unsignedCsfMaSMcsiNJc_15wiggle_generate, symObjAddr: 0x960, symBinAddr: 0x63110, symSize: 0x60 }
  - { offset: 0x126E3F, size: 0x8, addend: 0x0, symName: __RNvMs1_NtNtCsieiGu2EXtoJ_4core3ptr8non_nullINtB5_7NonNullTNtNtCsdGrGZaRBwMb_3syn3lit6LitStrNtNtBY_5token5CommaEE20offset_from_unsignedCsfMaSMcsiNJc_15wiggle_generate, symObjAddr: 0x9C0, symBinAddr: 0x63170, symSize: 0x60 }
  - { offset: 0x126F67, size: 0x8, addend: 0x0, symName: __RNvMs1_NtNtCsieiGu2EXtoJ_4core3ptr8non_nullINtB5_7NonNullTNtNtCsfMaSMcsiNJc_15wiggle_generate6config11ConfigFieldNtNtCsdGrGZaRBwMb_3syn5token5CommaEE20offset_from_unsignedBY_, symObjAddr: 0xA20, symBinAddr: 0x631D0, symSize: 0x70 }
  - { offset: 0x12708F, size: 0x8, addend: 0x0, symName: __RNvMs1_NtNtCsieiGu2EXtoJ_4core3ptr8non_nullINtB5_7NonNullTNtNtCsfMaSMcsiNJc_15wiggle_generate6config13FunctionFieldNtNtCsdGrGZaRBwMb_3syn5token5CommaEE20offset_from_unsignedBY_, symObjAddr: 0xA90, symBinAddr: 0x63240, symSize: 0x60 }
  - { offset: 0x1271B7, size: 0x8, addend: 0x0, symName: __RNvMs1_NtNtCsieiGu2EXtoJ_4core3ptr8non_nullINtB5_7NonNullTNtNtCsfMaSMcsiNJc_15wiggle_generate6config14ErrorConfFieldNtNtCsdGrGZaRBwMb_3syn5token5CommaEE20offset_from_unsignedBY_, symObjAddr: 0xAF0, symBinAddr: 0x632A0, symSize: 0x70 }
  - { offset: 0x1272DF, size: 0x8, addend: 0x0, symName: __RNvMs1_NtNtCsieiGu2EXtoJ_4core3ptr8non_nullINtB5_7NonNullTNtNtCsfMaSMcsiNJc_15wiggle_generate6config19WasmtimeConfigFieldNtNtCsdGrGZaRBwMb_3syn5token5CommaEE20offset_from_unsignedBY_, symObjAddr: 0xB60, symBinAddr: 0x63310, symSize: 0x70 }
  - { offset: 0x127542, size: 0x8, addend: 0x0, symName: __RINvXs2E_NtNtCsieiGu2EXtoJ_4core5slice4iterINtB7_4IterNtCsaKzlTDPUHDb_11proc_macro25IdentENtNtNtNtBb_4iter6traits8iterator8Iterator3anyNCNvXsf_NtB9_3cmpBQ_NtB2h_13SliceContains14slice_contains0ECsfMaSMcsiNJc_15wiggle_generate, symObjAddr: 0x0, symBinAddr: 0x68230, symSize: 0xA0 }
  - { offset: 0x12830B, size: 0x8, addend: 0x0, symName: __RINvXs2E_NtNtCsieiGu2EXtoJ_4core5slice4iterINtB7_4IterNtCsaKzlTDPUHDb_11proc_macro25IdentENtNtNtNtBb_4iter6traits8iterator8Iterator3anyNCNvXsf_NtB9_3cmpBQ_NtB2h_13SliceContains14slice_contains0ECsfMaSMcsiNJc_15wiggle_generate, symObjAddr: 0x0, symBinAddr: 0x68230, symSize: 0xA0 }
  - { offset: 0x128370, size: 0x8, addend: 0x0, symName: __RINvXs2E_NtNtCsieiGu2EXtoJ_4core5slice4iterINtB7_4IterNtCsaKzlTDPUHDb_11proc_macro25IdentENtNtNtNtBb_4iter6traits8iterator8Iterator4folduNCINvNtNtB1w_8adapters3map8map_foldRBQ_NtBS_11TokenStreamuNCNvXs_NtCsfMaSMcsiNJc_15wiggle_generate5funcsNtB3e_4RustNtNtCs8QreBtO1sIU_4witx3abi7Bindgen4emits2_0NCINvNvB1q_8for_each4callB2O_NCINvMsi_NtCslJiobkLta79_5alloc3vecINtB5m_3VecB2O_E14extend_trustedINtB2g_3MapBF_B37_EE0E0E0EB3g_, symObjAddr: 0xA0, symBinAddr: 0x682D0, symSize: 0x190 }
  - { offset: 0x1284B1, size: 0x8, addend: 0x0, symName: __RINvXs2E_NtNtCsieiGu2EXtoJ_4core5slice4iterINtB7_4IterNtCsaKzlTDPUHDb_11proc_macro25IdentENtNtNtNtBb_4iter6traits8iterator8Iterator4folduNCINvNtNtB1w_8adapters3map8map_foldRBQ_NtNtCslJiobkLta79_5alloc6string6StringuNCNvXsi_NtCsfMaSMcsiNJc_15wiggle_generate6configNtB3z_14AsyncFunctionsNtNtCsdGrGZaRBwMb_3syn5parse5Parse5parse0NCINvNvB1q_8for_each4callB2O_NCINvMsi_NtB2S_3vecINtB5Q_3VecB2O_E14extend_trustedINtB2g_3MapBF_B3r_EE0E0E0EB3B_, symObjAddr: 0x230, symBinAddr: 0x68460, symSize: 0x190 }
  - { offset: 0x1285F2, size: 0x8, addend: 0x0, symName: __RINvXs2E_NtNtCsieiGu2EXtoJ_4core5slice4iterINtB7_4IterNtCsaKzlTDPUHDb_11proc_macro25IdentENtNtNtNtBb_4iter6traits8iterator8Iterator4folduNCINvNtNtB1w_8adapters3map8map_foldRBQ_NtNtCslJiobkLta79_5alloc6string6StringuNCNvXsp_NtCsfMaSMcsiNJc_15wiggle_generate6configNtB3z_11TracingConfNtNtCsdGrGZaRBwMb_3syn5parse5Parse5parse0NCINvNvB1q_8for_each4callB2O_NCINvMsi_NtB2S_3vecINtB5N_3VecB2O_E14extend_trustedINtB2g_3MapBF_B3r_EE0E0E0EB3B_, symObjAddr: 0x3C0, symBinAddr: 0x685F0, symSize: 0x190 }
  - { offset: 0x128733, size: 0x8, addend: 0x0, symName: __RINvXs2E_NtNtCsieiGu2EXtoJ_4core5slice4iterINtB7_4IterNtNtCs8QreBtO1sIU_4witx3abi8WasmTypeENtNtNtNtBb_4iter6traits8iterator8Iterator4folduNCINvNtNtB1x_8adapters3map8map_foldRBQ_NtCsaKzlTDPUHDb_11proc_macro211TokenStreamuNCNvNtCsfMaSMcsiNJc_15wiggle_generate8wasmtime13generate_funcs_0NCINvNvB1r_8for_each4callB2P_NCINvMsi_NtCslJiobkLta79_5alloc3vecINtB5a_3VecB2P_E14extend_trustedINtB2h_3MapBF_B3w_EE0E0E0EB3C_, symObjAddr: 0x550, symBinAddr: 0x68780, symSize: 0x190 }
  - { offset: 0x128874, size: 0x8, addend: 0x0, symName: __RINvXs2E_NtNtCsieiGu2EXtoJ_4core5slice4iterINtB7_4IterNtNtCs8QreBtO1sIU_4witx3ast12RecordMemberENtNtNtNtBb_4iter6traits8iterator8Iterator3anyNCNvXs1_NtCsfMaSMcsiNJc_15wiggle_generate9lifetimesNtBS_14RecordDatatypeNtB2n_11LifetimeExt14needs_lifetime0EB2p_, symObjAddr: 0x780, symBinAddr: 0x68910, symSize: 0x90 }
  - { offset: 0x1288D9, size: 0x8, addend: 0x0, symName: __RINvXs2E_NtNtCsieiGu2EXtoJ_4core5slice4iterINtB7_4IterNtNtCs8QreBtO1sIU_4witx3ast12RecordMemberENtNtNtNtBb_4iter6traits8iterator8Iterator4folduNCINvNtNtB1C_8adapters3map8map_foldRBQ_NtCsaKzlTDPUHDb_11proc_macro211TokenStreamuNCNvNtCsfMaSMcsiNJc_15wiggle_generate5names8type_ref0NCINvNvB1w_8for_each4callB2U_NCINvMsi_NtCslJiobkLta79_5alloc3vecINtB54_3VecB2U_E14extend_trustedINtB2m_3MapBF_B3B_EE0E0E0EB3H_, symObjAddr: 0x810, symBinAddr: 0x689A0, symSize: 0x190 }
  - { offset: 0x128A1A, size: 0x8, addend: 0x0, symName: __RINvXs2E_NtNtCsieiGu2EXtoJ_4core5slice4iterINtB7_4IterNtNtCs8QreBtO1sIU_4witx3ast18InterfaceFuncParamENtNtNtNtBb_4iter6traits8iterator8Iterator4folduNCINvNtNtB1I_8adapters3map8map_foldRBQ_NtCsaKzlTDPUHDb_11proc_macro211TokenStreamuNCNvXs_NtCsfMaSMcsiNJc_15wiggle_generate5funcsNtB3O_4RustNtNtBU_3abi7Bindgen4emits0_0NCINvNvB1C_8for_each4callB30_NCINvMsi_NtCslJiobkLta79_5alloc3vecINtB5G_3VecB30_E14extend_trustedINtB2s_3MapBF_B3H_EE0E0E0EB3Q_, symObjAddr: 0x9A0, symBinAddr: 0x68B30, symSize: 0x190 }
  - { offset: 0x128B5B, size: 0x8, addend: 0x0, symName: __RINvXs2E_NtNtCsieiGu2EXtoJ_4core5slice4iterINtB7_4IterNtNtCs8QreBtO1sIU_4witx3ast4CaseENtNtNtNtBb_4iter6traits8iterator8Iterator3allNCNvNtNtCsfMaSMcsiNJc_15wiggle_generate5types7variant14define_variants1_0EB2e_, symObjAddr: 0xB30, symBinAddr: 0x68CC0, symSize: 0xA0 }
  - { offset: 0x128BC0, size: 0x8, addend: 0x0, symName: __RINvXs2E_NtNtCsieiGu2EXtoJ_4core5slice4iterINtB7_4IterNtNtCs8QreBtO1sIU_4witx3ast4CaseENtNtNtNtBb_4iter6traits8iterator8Iterator3allNCNvNtNtCsfMaSMcsiNJc_15wiggle_generate5types7variant14define_variants3_0EB2e_, symObjAddr: 0xBD0, symBinAddr: 0x68D60, symSize: 0xA0 }
  - { offset: 0x128C25, size: 0x8, addend: 0x0, symName: __RINvXs2E_NtNtCsieiGu2EXtoJ_4core5slice4iterINtB7_4IterNtNtCs8QreBtO1sIU_4witx3ast4CaseENtNtNtNtBb_4iter6traits8iterator8Iterator3anyNCNvXs2_NtCsfMaSMcsiNJc_15wiggle_generate9lifetimesNtBS_7VariantNtB2e_11LifetimeExt14needs_lifetime0EB2g_, symObjAddr: 0xC70, symBinAddr: 0x68E00, symSize: 0x90 }
  - { offset: 0x128C8A, size: 0x8, addend: 0x0, symName: __RINvXs2E_NtNtCsieiGu2EXtoJ_4core5slice4iterINtB7_4IterNtNtCsHUR1vrdMJt_3std4path7PathBufENtNtNtNtBb_4iter6traits8iterator8Iterator4folduNCINvNtNtB1v_8adapters3map8map_foldRBQ_RNtBS_4PathuNCINvNtCs8QreBtO1sIU_4witx8toplevel10parse_witxBQ_E0NCINvNvB1p_8for_each4callB2N_NCINvMsi_NtCslJiobkLta79_5alloc3vecINtB4r_3VecB2N_E14extend_trustedINtB2f_3MapBF_B2Z_EE0E0E0ECsfMaSMcsiNJc_15wiggle_generate, symObjAddr: 0xD00, symBinAddr: 0x68E90, symSize: 0x190 }
  - { offset: 0x128DCB, size: 0x8, addend: 0x0, symName: __RINvXs2E_NtNtCsieiGu2EXtoJ_4core5slice4iterINtB7_4IterNtNtCsfMaSMcsiNJc_15wiggle_generate16codegen_settings9ErrorTypeENtNtNtNtBb_4iter6traits8iterator8Iterator4findNCNvMs_BS_NtBS_14ErrorTransform8for_name0EBU_, symObjAddr: 0xE90, symBinAddr: 0x69020, symSize: 0xA0 }
  - { offset: 0x128E30, size: 0x8, addend: 0x0, symName: __RINvXs2E_NtNtCsieiGu2EXtoJ_4core5slice4iterINtB7_4IterNtNtCsfMaSMcsiNJc_15wiggle_generate16codegen_settings9ErrorTypeENtNtNtNtBb_4iter6traits8iterator8Iterator8find_mapNtCsaKzlTDPUHDb_11proc_macro211TokenStreamQNCNvBU_8generates0_0EBU_, symObjAddr: 0xF30, symBinAddr: 0x690C0, symSize: 0x120 }
  - { offset: 0x128EB5, size: 0x8, addend: 0x0, symName: __RINvXs2E_NtNtCsieiGu2EXtoJ_4core5slice4iterINtB7_4IterNtNtCslJiobkLta79_5alloc6string6StringENtNtNtNtBb_4iter6traits8iterator8Iterator4findNCNCNvMsh_NtCsfMaSMcsiNJc_15wiggle_generate6configNtB2n_9AsyncConf3get00EB2p_, symObjAddr: 0x1050, symBinAddr: 0x691E0, symSize: 0xA0 }
  - { offset: 0x128F1A, size: 0x8, addend: 0x0, symName: __RINvXs2E_NtNtCsieiGu2EXtoJ_4core5slice4iterINtB7_4IterNtNtCslJiobkLta79_5alloc6string6StringENtNtNtNtBb_4iter6traits8iterator8Iterator4findNCNCNvMsn_NtCsfMaSMcsiNJc_15wiggle_generate6configNtB2n_11TracingConf11enabled_for00EB2p_, symObjAddr: 0x10F0, symBinAddr: 0x69280, symSize: 0xA0 }
  - { offset: 0x128F7F, size: 0x8, addend: 0x0, symName: __RNvXs2E_NtNtCsieiGu2EXtoJ_4core5slice4iterINtB6_4IterNtCsaKzlTDPUHDb_11proc_macro211TokenStreamENtNtNtNtBa_4iter6traits8iterator8Iterator24___iterator_get_uncheckedCsfMaSMcsiNJc_15wiggle_generate, symObjAddr: 0x1DC0, symBinAddr: 0x69F40, symSize: 0x20 }
  - { offset: 0x128FDA, size: 0x8, addend: 0x0, symName: __RNvXs2E_NtNtCsieiGu2EXtoJ_4core5slice4iterINtB6_4IterNtCsaKzlTDPUHDb_11proc_macro211TokenStreamENtNtNtNtBa_4iter6traits8iterator8Iterator4nextCsfMaSMcsiNJc_15wiggle_generate, symObjAddr: 0x1DE0, symBinAddr: 0x69F60, symSize: 0x90 }
  - { offset: 0x1290FB, size: 0x8, addend: 0x0, symName: __RNvXs2E_NtNtCsieiGu2EXtoJ_4core5slice4iterINtB6_4IterNtCsaKzlTDPUHDb_11proc_macro211TokenStreamENtNtNtNtBa_4iter6traits8iterator8Iterator9size_hintCsfMaSMcsiNJc_15wiggle_generate, symObjAddr: 0x1E70, symBinAddr: 0x69FF0, symSize: 0x60 }
  - { offset: 0x12916A, size: 0x8, addend: 0x0, symName: __RNvXs2E_NtNtCsieiGu2EXtoJ_4core5slice4iterINtB6_4IterNtCsaKzlTDPUHDb_11proc_macro25IdentENtNtNtNtBa_4iter6traits8iterator8Iterator24___iterator_get_uncheckedCsfMaSMcsiNJc_15wiggle_generate, symObjAddr: 0x1ED0, symBinAddr: 0x6A050, symSize: 0x20 }
  - { offset: 0x1291C5, size: 0x8, addend: 0x0, symName: __RNvXs2E_NtNtCsieiGu2EXtoJ_4core5slice4iterINtB6_4IterNtCsaKzlTDPUHDb_11proc_macro25IdentENtNtNtNtBa_4iter6traits8iterator8Iterator4nextCsfMaSMcsiNJc_15wiggle_generate, symObjAddr: 0x1EF0, symBinAddr: 0x6A070, symSize: 0x90 }
  - { offset: 0x1292E6, size: 0x8, addend: 0x0, symName: __RNvXs2E_NtNtCsieiGu2EXtoJ_4core5slice4iterINtB6_4IterNtCsaKzlTDPUHDb_11proc_macro25IdentENtNtNtNtBa_4iter6traits8iterator8Iterator9size_hintCsfMaSMcsiNJc_15wiggle_generate, symObjAddr: 0x1F80, symBinAddr: 0x6A100, symSize: 0x60 }
  - { offset: 0x129355, size: 0x8, addend: 0x0, symName: __RNvXs2E_NtNtCsieiGu2EXtoJ_4core5slice4iterINtB6_4IterNtCsaKzlTDPUHDb_11proc_macro27LiteralENtNtNtNtBa_4iter6traits8iterator8Iterator4nextCsfMaSMcsiNJc_15wiggle_generate, symObjAddr: 0x1FE0, symBinAddr: 0x6A160, symSize: 0x90 }
  - { offset: 0x129476, size: 0x8, addend: 0x0, symName: __RNvXs2E_NtNtCsieiGu2EXtoJ_4core5slice4iterINtB6_4IterNtNtCs8QreBtO1sIU_4witx3abi8WasmTypeENtNtNtNtBa_4iter6traits8iterator8Iterator24___iterator_get_uncheckedCsfMaSMcsiNJc_15wiggle_generate, symObjAddr: 0x2070, symBinAddr: 0x6A1F0, symSize: 0x20 }
  - { offset: 0x1294D1, size: 0x8, addend: 0x0, symName: __RNvXs2E_NtNtCsieiGu2EXtoJ_4core5slice4iterINtB6_4IterNtNtCs8QreBtO1sIU_4witx3abi8WasmTypeENtNtNtNtBa_4iter6traits8iterator8Iterator4nextCsfMaSMcsiNJc_15wiggle_generate, symObjAddr: 0x2090, symBinAddr: 0x6A210, symSize: 0x90 }
  - { offset: 0x1295F2, size: 0x8, addend: 0x0, symName: __RNvXs2E_NtNtCsieiGu2EXtoJ_4core5slice4iterINtB6_4IterNtNtCs8QreBtO1sIU_4witx3abi8WasmTypeENtNtNtNtBa_4iter6traits8iterator8Iterator9size_hintCsfMaSMcsiNJc_15wiggle_generate, symObjAddr: 0x2120, symBinAddr: 0x6A2A0, symSize: 0x60 }
  - { offset: 0x129661, size: 0x8, addend: 0x0, symName: __RNvXs2E_NtNtCsieiGu2EXtoJ_4core5slice4iterINtB6_4IterNtNtCsHUR1vrdMJt_3std4path7PathBufENtNtNtNtBa_4iter6traits8iterator8Iterator9size_hintCsfMaSMcsiNJc_15wiggle_generate, symObjAddr: 0x2180, symBinAddr: 0x6A300, symSize: 0x60 }
  - { offset: 0x1296D0, size: 0x8, addend: 0x0, symName: __RNvXs2E_NtNtCsieiGu2EXtoJ_4core5slice4iterINtB6_4IterNtNtCsfMaSMcsiNJc_15wiggle_generate16codegen_settings9ErrorTypeENtNtNtNtBa_4iter6traits8iterator8Iterator4nextBT_, symObjAddr: 0x21E0, symBinAddr: 0x6A360, symSize: 0x90 }
  - { offset: 0x1297F1, size: 0x8, addend: 0x0, symName: __RNvXs2E_NtNtCsieiGu2EXtoJ_4core5slice4iterINtB6_4IterTNtCsaKzlTDPUHDb_11proc_macro25IdentNtNtCsdGrGZaRBwMb_3syn5token5CommaEENtNtNtNtBa_4iter6traits8iterator8Iterator4nextCsfMaSMcsiNJc_15wiggle_generate, symObjAddr: 0x2270, symBinAddr: 0x6A3F0, symSize: 0x90 }
  - { offset: 0x129912, size: 0x8, addend: 0x0, symName: __RNvXs2E_NtNtCsieiGu2EXtoJ_4core5slice4iterINtB6_4IterTNtNtCsdGrGZaRBwMb_3syn3lit6LitStrNtNtBU_5token5CommaEENtNtNtNtBa_4iter6traits8iterator8Iterator4nextCsfMaSMcsiNJc_15wiggle_generate, symObjAddr: 0x2300, symBinAddr: 0x6A480, symSize: 0x90 }
  - { offset: 0x129DEA, size: 0x8, addend: 0x0, symName: __RNvXs2F_NtNtCsieiGu2EXtoJ_4core5slice4iterINtB6_4IterNtNtCs8QreBtO1sIU_4witx3ast12RecordMemberENtNtNtNtBa_4iter6traits12double_ended19DoubleEndedIterator9next_backCsfMaSMcsiNJc_15wiggle_generate, symObjAddr: 0x2390, symBinAddr: 0x6A510, symSize: 0x100 }
  - { offset: 0x129F39, size: 0x8, addend: 0x0, symName: __RNvXs2F_NtNtCsieiGu2EXtoJ_4core5slice4iterINtB6_4IterTNtCsaKzlTDPUHDb_11proc_macro25IdentNtNtCsdGrGZaRBwMb_3syn5token5CommaEENtNtNtNtBa_4iter6traits12double_ended19DoubleEndedIterator9next_backCsfMaSMcsiNJc_15wiggle_generate, symObjAddr: 0x2490, symBinAddr: 0x6A610, symSize: 0x100 }
  - { offset: 0x12A088, size: 0x8, addend: 0x0, symName: __RNvXs2F_NtNtCsieiGu2EXtoJ_4core5slice4iterINtB6_4IterTNtNtCsdGrGZaRBwMb_3syn3lit6LitStrNtNtBU_5token5CommaEENtNtNtNtBa_4iter6traits12double_ended19DoubleEndedIterator9next_backCsfMaSMcsiNJc_15wiggle_generate, symObjAddr: 0x2590, symBinAddr: 0x6A710, symSize: 0x100 }
  - { offset: 0x12A1DD, size: 0x8, addend: 0x0, symName: __RNvXs5_NtNtCsieiGu2EXtoJ_4core5slice4iterINtB5_4IterTNtCsaKzlTDPUHDb_11proc_macro25IdentNtNtCsdGrGZaRBwMb_3syn5token5CommaEENtNtB9_5clone5Clone5cloneCsfMaSMcsiNJc_15wiggle_generate, symObjAddr: 0x26E0, symBinAddr: 0x6A860, symSize: 0x20 }
  - { offset: 0x12A212, size: 0x8, addend: 0x0, symName: __RNvXs5_NtNtCsieiGu2EXtoJ_4core5slice4iterINtB5_4IterTNtNtCsdGrGZaRBwMb_3syn3lit6LitStrNtNtBT_5token5CommaEENtNtB9_5clone5Clone5cloneCsfMaSMcsiNJc_15wiggle_generate, symObjAddr: 0x2700, symBinAddr: 0x6A880, symSize: 0x20 }
  - { offset: 0x12DA85, size: 0x8, addend: 0x0, symName: __RINvYINtNtNtCsieiGu2EXtoJ_4core5slice4iter4IterNtCsaKzlTDPUHDb_11proc_macro25IdentENtNtNtNtBa_4iter6traits8iterator8Iterator3mapNtBL_11TokenStreamNCNvXs_NtCsfMaSMcsiNJc_15wiggle_generate5funcsNtB2r_4RustNtNtCs8QreBtO1sIU_4witx3abi7Bindgen4emits2_0EB2t_, symObjAddr: 0x1190, symBinAddr: 0x69320, symSize: 0x20 }
  - { offset: 0x12DADD, size: 0x8, addend: 0x0, symName: __RINvYINtNtNtCsieiGu2EXtoJ_4core5slice4iter4IterNtCsaKzlTDPUHDb_11proc_macro25IdentENtNtNtNtBa_4iter6traits8iterator8Iterator3mapNtNtCslJiobkLta79_5alloc6string6StringNCNvXsi_NtCsfMaSMcsiNJc_15wiggle_generate6configNtB2M_14AsyncFunctionsNtNtCsdGrGZaRBwMb_3syn5parse5Parse5parse0EB2O_, symObjAddr: 0x11B0, symBinAddr: 0x69340, symSize: 0x20 }
  - { offset: 0x12DB35, size: 0x8, addend: 0x0, symName: __RINvYINtNtNtCsieiGu2EXtoJ_4core5slice4iter4IterNtCsaKzlTDPUHDb_11proc_macro25IdentENtNtNtNtBa_4iter6traits8iterator8Iterator3mapNtNtCslJiobkLta79_5alloc6string6StringNCNvXsp_NtCsfMaSMcsiNJc_15wiggle_generate6configNtB2M_11TracingConfNtNtCsdGrGZaRBwMb_3syn5parse5Parse5parse0EB2O_, symObjAddr: 0x11D0, symBinAddr: 0x69360, symSize: 0x20 }
  - { offset: 0x12DB8D, size: 0x8, addend: 0x0, symName: __RINvYINtNtNtCsieiGu2EXtoJ_4core5slice4iter4IterNtCsaKzlTDPUHDb_11proc_macro25IdentENtNtNtNtBa_4iter6traits8iterator8Iterator3zipIB4_NtBL_11TokenStreamEECsfMaSMcsiNJc_15wiggle_generate, symObjAddr: 0x11F0, symBinAddr: 0x69380, symSize: 0xD0 }
  - { offset: 0x12DC03, size: 0x8, addend: 0x0, symName: __RINvYINtNtNtCsieiGu2EXtoJ_4core5slice4iter4IterNtNtCs8QreBtO1sIU_4witx3abi8WasmTypeENtNtNtNtBa_4iter6traits8iterator8Iterator3mapNtCsaKzlTDPUHDb_11proc_macro211TokenStreamNCNvNtCsfMaSMcsiNJc_15wiggle_generate8wasmtime13generate_funcs_0EB2P_, symObjAddr: 0x12C0, symBinAddr: 0x69450, symSize: 0x20 }
  - { offset: 0x12DC5B, size: 0x8, addend: 0x0, symName: __RINvYINtNtNtCsieiGu2EXtoJ_4core5slice4iter4IterNtNtCs8QreBtO1sIU_4witx3abi8WasmTypeENtNtNtNtBa_4iter6traits8iterator8Iterator3zipRINtNtCslJiobkLta79_5alloc3vec3VecNtCsaKzlTDPUHDb_11proc_macro25IdentEECsfMaSMcsiNJc_15wiggle_generate, symObjAddr: 0x12E0, symBinAddr: 0x69470, symSize: 0xB0 }
  - { offset: 0x12DCD1, size: 0x8, addend: 0x0, symName: __RINvYINtNtNtCsieiGu2EXtoJ_4core5slice4iter4IterNtNtCs8QreBtO1sIU_4witx3ast12RecordMemberENtNtNtNtBa_4iter6traits8iterator8Iterator3mapNtCsaKzlTDPUHDb_11proc_macro211TokenStreamNCNvNtCsfMaSMcsiNJc_15wiggle_generate5names8type_ref0EB2U_, symObjAddr: 0x1390, symBinAddr: 0x69520, symSize: 0x20 }
  - { offset: 0x12DD3E, size: 0x8, addend: 0x0, symName: __RINvYINtNtNtCsieiGu2EXtoJ_4core5slice4iter4IterNtNtCs8QreBtO1sIU_4witx3ast12RecordMemberENtNtNtNtBa_4iter6traits8iterator8Iterator3mapNtCsaKzlTDPUHDb_11proc_macro211TokenStreamNCNvNtNtCsfMaSMcsiNJc_15wiggle_generate5types6record13define_structs_0EB2W_, symObjAddr: 0x13B0, symBinAddr: 0x69540, symSize: 0x20 }
  - { offset: 0x12DD96, size: 0x8, addend: 0x0, symName: __RINvYINtNtNtCsieiGu2EXtoJ_4core5slice4iter4IterNtNtCs8QreBtO1sIU_4witx3ast12RecordMemberENtNtNtNtBa_4iter6traits8iterator8Iterator3mapNtCsaKzlTDPUHDb_11proc_macro25IdentNCNvNtNtCsfMaSMcsiNJc_15wiggle_generate5types6record13define_struct0EB2P_, symObjAddr: 0x13D0, symBinAddr: 0x69560, symSize: 0x20 }
  - { offset: 0x12DDEE, size: 0x8, addend: 0x0, symName: __RINvYINtNtNtCsieiGu2EXtoJ_4core5slice4iter4IterNtNtCs8QreBtO1sIU_4witx3ast18InterfaceFuncParamENtNtNtNtBa_4iter6traits8iterator8Iterator3mapNtCsaKzlTDPUHDb_11proc_macro211TokenStreamNCNCNvNtCsfMaSMcsiNJc_15wiggle_generate12module_trait19define_module_trait00EB32_, symObjAddr: 0x13F0, symBinAddr: 0x69580, symSize: 0x20 }
  - { offset: 0x12DE46, size: 0x8, addend: 0x0, symName: __RINvYINtNtNtCsieiGu2EXtoJ_4core5slice4iter4IterNtNtCs8QreBtO1sIU_4witx3ast18InterfaceFuncParamENtNtNtNtBa_4iter6traits8iterator8Iterator3mapNtCsaKzlTDPUHDb_11proc_macro211TokenStreamNCNvXs_NtCsfMaSMcsiNJc_15wiggle_generate5funcsNtB31_4RustNtNtBN_3abi7Bindgen4emits0_0EB33_, symObjAddr: 0x1410, symBinAddr: 0x695A0, symSize: 0x20 }
  - { offset: 0x12DE9E, size: 0x8, addend: 0x0, symName: __RINvYINtNtNtCsieiGu2EXtoJ_4core5slice4iter4IterNtNtCs8QreBtO1sIU_4witx3ast4CaseENtNtNtNtBa_4iter6traits8iterator8Iterator3mapNtCsaKzlTDPUHDb_11proc_macro211TokenStreamNCNvNtNtCsfMaSMcsiNJc_15wiggle_generate5types7variant14define_variant0EB2N_, symObjAddr: 0x1430, symBinAddr: 0x695C0, symSize: 0x20 }
  - { offset: 0x12DF0B, size: 0x8, addend: 0x0, symName: __RINvYINtNtNtCsieiGu2EXtoJ_4core5slice4iter4IterNtNtCsHUR1vrdMJt_3std4path7PathBufENtNtNtNtBa_4iter6traits8iterator8Iterator3mapRNtBL_4PathNCINvNtCs8QreBtO1sIU_4witx8toplevel10parse_witxBJ_E0ECsfMaSMcsiNJc_15wiggle_generate, symObjAddr: 0x1450, symBinAddr: 0x695E0, symSize: 0x20 }
  - { offset: 0x12DF63, size: 0x8, addend: 0x0, symName: __RINvYINtNtNtCsieiGu2EXtoJ_4core5slice4iter4IterNtNtCsfMaSMcsiNJc_15wiggle_generate16codegen_settings9ErrorTypeENtNtNtNtBa_4iter6traits8iterator8Iterator10filter_mapNtCsaKzlTDPUHDb_11proc_macro211TokenStreamNCNvBN_8generates0_0EBN_, symObjAddr: 0x1470, symBinAddr: 0x69600, symSize: 0x20 }
  - { offset: 0x12DFBB, size: 0x8, addend: 0x0, symName: __RINvYINtNtNtCsieiGu2EXtoJ_4core5slice4iter4IterReENtNtNtNtBa_4iter6traits8iterator8Iterator5chainRSBJ_ECsfMaSMcsiNJc_15wiggle_generate, symObjAddr: 0x1490, symBinAddr: 0x69620, symSize: 0xC0 }
  - { offset: 0x12E031, size: 0x8, addend: 0x0, symName: __RINvYINtNtNtCsieiGu2EXtoJ_4core5slice4iter4IterReENtNtNtNtBa_4iter6traits8iterator8Iterator8try_folduNCINvNvBM_3any5checkRBJ_NCNvNtNtCsfMaSMcsiNJc_15wiggle_generate5names8escaping9escape_id0E0INtNtNtBa_3ops12control_flow11ControlFlowuEEB27_, symObjAddr: 0x1550, symBinAddr: 0x696E0, symSize: 0x100 }
  - { offset: 0x12E0E4, size: 0x8, addend: 0x0, symName: __RINvYINtNtNtCsieiGu2EXtoJ_4core5slice4iter4IterReENtNtNtNtBa_4iter6traits8iterator8Iterator8try_folduQNCINvNvBM_3any5checkRBJ_NCNvNtNtCsfMaSMcsiNJc_15wiggle_generate5names8escaping9escape_id0E0INtNtNtBa_3ops12control_flow11ControlFlowuEEB28_, symObjAddr: 0x1650, symBinAddr: 0x697E0, symSize: 0x100 }
  - { offset: 0x12E197, size: 0x8, addend: 0x0, symName: __RNvYINtNtNtCsieiGu2EXtoJ_4core5slice4iter4IterNtNtCs8QreBtO1sIU_4witx3ast18InterfaceFuncParamENtNtNtNtB9_4iter6traits8iterator8Iterator9enumerateCsfMaSMcsiNJc_15wiggle_generate, symObjAddr: 0x2810, symBinAddr: 0x6A990, symSize: 0x20 }
  - { offset: 0x12E29F, size: 0x8, addend: 0x0, symName: __RNvXNtNtNtCsieiGu2EXtoJ_4core4iter6traits7collectINtNtNtB8_5slice4iter4IterNtCsaKzlTDPUHDb_11proc_macro211TokenStreamENtB2_12IntoIterator9into_iterCsfMaSMcsiNJc_15wiggle_generate, symObjAddr: 0x1CF0, symBinAddr: 0x69E70, symSize: 0x20 }
  - { offset: 0x12E2D6, size: 0x8, addend: 0x0, symName: __RNvXNtNtNtCsieiGu2EXtoJ_4core4iter6traits7collectINtNtNtB8_5slice4iter4IterNtNtCs8QreBtO1sIU_4witx3abi8WasmTypeENtB2_12IntoIterator9into_iterCsfMaSMcsiNJc_15wiggle_generate, symObjAddr: 0x1D10, symBinAddr: 0x69E90, symSize: 0x20 }
  - { offset: 0x12E40D, size: 0x8, addend: 0x0, symName: __RNvYINtNtNtCsieiGu2EXtoJ_4core5slice4iter4IterNtCsaKzlTDPUHDb_11proc_macro211TokenStreamENtNtNtNtB9_4iter8adapters3zip27TrustedRandomAccessNoCoerce4sizeCsfMaSMcsiNJc_15wiggle_generate, symObjAddr: 0x2780, symBinAddr: 0x6A900, symSize: 0x30 }
  - { offset: 0x12E444, size: 0x8, addend: 0x0, symName: __RNvYINtNtNtCsieiGu2EXtoJ_4core5slice4iter4IterNtCsaKzlTDPUHDb_11proc_macro25IdentENtNtNtNtB9_4iter8adapters3zip27TrustedRandomAccessNoCoerce4sizeCsfMaSMcsiNJc_15wiggle_generate, symObjAddr: 0x27B0, symBinAddr: 0x6A930, symSize: 0x30 }
  - { offset: 0x12E47B, size: 0x8, addend: 0x0, symName: __RNvYINtNtNtCsieiGu2EXtoJ_4core5slice4iter4IterNtNtCs8QreBtO1sIU_4witx3abi8WasmTypeENtNtNtNtB9_4iter8adapters3zip27TrustedRandomAccessNoCoerce4sizeCsfMaSMcsiNJc_15wiggle_generate, symObjAddr: 0x27E0, symBinAddr: 0x6A960, symSize: 0x30 }
  - { offset: 0x12E9D8, size: 0x8, addend: 0x0, symName: __RNvNtNtNtCsieiGu2EXtoJ_4core9core_arch3x864sse212__mm_or_si128CsfMaSMcsiNJc_15wiggle_generate, symObjAddr: 0x1A10, symBinAddr: 0x69B90, symSize: 0x20 }
  - { offset: 0x12EAE7, size: 0x8, addend: 0x0, symName: __RNvNtNtNtCsieiGu2EXtoJ_4core9core_arch3x864sse213__mm_set1_epi8CsfMaSMcsiNJc_15wiggle_generate, symObjAddr: 0x1A30, symBinAddr: 0x69BB0, symSize: 0x90 }
  - { offset: 0x12EC41, size: 0x8, addend: 0x0, symName: __RNvNtNtNtCsieiGu2EXtoJ_4core9core_arch3x864sse214__mm_cmpeq_epi8CsfMaSMcsiNJc_15wiggle_generate, symObjAddr: 0x1AC0, symBinAddr: 0x69C40, symSize: 0x80 }
  - { offset: 0x12EC81, size: 0x8, addend: 0x0, symName: __RNvNtNtNtCsieiGu2EXtoJ_4core9core_arch3x864sse214__mm_cmpgt_epi8CsfMaSMcsiNJc_15wiggle_generate, symObjAddr: 0x1B40, symBinAddr: 0x69CC0, symSize: 0x80 }
  - { offset: 0x12ECC1, size: 0x8, addend: 0x0, symName: __RNvNtNtNtCsieiGu2EXtoJ_4core9core_arch3x864sse214__mm_load_si128CsfMaSMcsiNJc_15wiggle_generate, symObjAddr: 0x1BC0, symBinAddr: 0x69D40, symSize: 0x20 }
  - { offset: 0x12ED00, size: 0x8, addend: 0x0, symName: __RNvNtNtNtCsieiGu2EXtoJ_4core9core_arch3x864sse215__mm_loadu_si128CsfMaSMcsiNJc_15wiggle_generate, symObjAddr: 0x1BE0, symBinAddr: 0x69D60, symSize: 0x90 }
  - { offset: 0x12ED8F, size: 0x8, addend: 0x0, symName: __RNvNtNtNtCsieiGu2EXtoJ_4core9core_arch3x864sse215__mm_store_si128CsfMaSMcsiNJc_15wiggle_generate, symObjAddr: 0x1C70, symBinAddr: 0x69DF0, symSize: 0x20 }
  - { offset: 0x12EDC8, size: 0x8, addend: 0x0, symName: __RNvNtNtNtCsieiGu2EXtoJ_4core9core_arch3x864sse217__mm_movemask_epi8CsfMaSMcsiNJc_15wiggle_generate, symObjAddr: 0x1C90, symBinAddr: 0x69E10, symSize: 0x50 }
  - { offset: 0x12EE34, size: 0x8, addend: 0x0, symName: __RNvNtNtNtCsieiGu2EXtoJ_4core9core_arch3x864sse217__mm_setzero_si128CsfMaSMcsiNJc_15wiggle_generate, symObjAddr: 0x1CE0, symBinAddr: 0x69E60, symSize: 0x10 }
  - { offset: 0x1300D5, size: 0x8, addend: 0x0, symName: __RNvXs2_NtCslJiobkLta79_5alloc3streNtNtB7_6borrow7ToOwned8to_ownedCsfMaSMcsiNJc_15wiggle_generate, symObjAddr: 0x2690, symBinAddr: 0x6A810, symSize: 0x50 }
  - { offset: 0x1303AE, size: 0x8, addend: 0x0, symName: __RNvXs1r_NtCsHUR1vrdMJt_3std4pathNtB6_7PathBufINtNtCsieiGu2EXtoJ_4core7convert5AsRefNtB6_4PathE6as_refCsfMaSMcsiNJc_15wiggle_generate, symObjAddr: 0x1D90, symBinAddr: 0x69F10, symSize: 0x30 }
  - { offset: 0x1314E1, size: 0x8, addend: 0x0, symName: __RNvXs0_NtCsdGrGZaRBwMb_3syn5dropsINtB5_6NoDropDINtNtB7_10punctuated9IterTraitNtCsaKzlTDPUHDb_11proc_macro25IdentEp4ItemRB1d_EL_ENtNtNtCsieiGu2EXtoJ_4core3ops5deref8DerefMut9deref_mutCsfMaSMcsiNJc_15wiggle_generate, symObjAddr: 0x1D30, symBinAddr: 0x69EB0, symSize: 0x30 }
  - { offset: 0x131516, size: 0x8, addend: 0x0, symName: __RNvXs0_NtCsdGrGZaRBwMb_3syn5dropsINtB5_6NoDropDINtNtB7_10punctuated9IterTraitNtNtB7_3lit6LitStrEp4ItemRB1d_EL_ENtNtNtCsieiGu2EXtoJ_4core3ops5deref8DerefMut9deref_mutCsfMaSMcsiNJc_15wiggle_generate, symObjAddr: 0x1D60, symBinAddr: 0x69EE0, symSize: 0x30 }
  - { offset: 0x131551, size: 0x8, addend: 0x0, symName: __RNvXs_NtCsdGrGZaRBwMb_3syn5dropsINtB4_6NoDropDINtNtB6_10punctuated9IterTraitNtCsaKzlTDPUHDb_11proc_macro25IdentEp4ItemRB1c_EL_ENtNtNtCsieiGu2EXtoJ_4core3ops5deref5Deref5derefCsfMaSMcsiNJc_15wiggle_generate, symObjAddr: 0x2720, symBinAddr: 0x6A8A0, symSize: 0x30 }
  - { offset: 0x131586, size: 0x8, addend: 0x0, symName: __RNvXs_NtCsdGrGZaRBwMb_3syn5dropsINtB4_6NoDropDINtNtB6_10punctuated9IterTraitNtNtB6_3lit6LitStrEp4ItemRB1c_EL_ENtNtNtCsieiGu2EXtoJ_4core3ops5deref5Deref5derefCsfMaSMcsiNJc_15wiggle_generate, symObjAddr: 0x2750, symBinAddr: 0x6A8D0, symSize: 0x30 }
  - { offset: 0x1357A0, size: 0x8, addend: 0x0, symName: __RNvMNtCsdGrGZaRBwMb_3syn5dropsINtB2_6NoDropINtNtB4_10punctuated11PrivateIterNtCsaKzlTDPUHDb_11proc_macro25IdentNtNtB4_5token5CommaEE3newCsfMaSMcsiNJc_15wiggle_generate, symObjAddr: 0x1750, symBinAddr: 0x698E0, symSize: 0x40 }
  - { offset: 0x135855, size: 0x8, addend: 0x0, symName: __RNvMNtCsdGrGZaRBwMb_3syn5dropsINtB2_6NoDropINtNtB4_10punctuated11PrivateIterNtNtB4_3lit6LitStrNtNtB4_5token5CommaEE3newCsfMaSMcsiNJc_15wiggle_generate, symObjAddr: 0x1790, symBinAddr: 0x69920, symSize: 0x40 }
  - { offset: 0x13594C, size: 0x8, addend: 0x0, symName: __RNvMs4_NtNtCsieiGu2EXtoJ_4core5slice4iterINtB5_4IterNtCsaKzlTDPUHDb_11proc_macro211TokenStreamE3newCsfMaSMcsiNJc_15wiggle_generate, symObjAddr: 0x17D0, symBinAddr: 0x69960, symSize: 0x50 }
  - { offset: 0x135AF9, size: 0x8, addend: 0x0, symName: __RNvMs4_NtNtCsieiGu2EXtoJ_4core5slice4iterINtB5_4IterNtCsaKzlTDPUHDb_11proc_macro25IdentE3newCsfMaSMcsiNJc_15wiggle_generate, symObjAddr: 0x1820, symBinAddr: 0x699B0, symSize: 0x50 }
  - { offset: 0x135CC0, size: 0x8, addend: 0x0, symName: __RNvMs4_NtNtCsieiGu2EXtoJ_4core5slice4iterINtB5_4IterNtCsaKzlTDPUHDb_11proc_macro27LiteralE3newCsfMaSMcsiNJc_15wiggle_generate, symObjAddr: 0x1870, symBinAddr: 0x69A00, symSize: 0x50 }
  - { offset: 0x135E6D, size: 0x8, addend: 0x0, symName: __RNvMs4_NtNtCsieiGu2EXtoJ_4core5slice4iterINtB5_4IterNtNtCs8QreBtO1sIU_4witx3abi8WasmTypeE3newCsfMaSMcsiNJc_15wiggle_generate, symObjAddr: 0x18C0, symBinAddr: 0x69A50, symSize: 0x50 }
  - { offset: 0x1364DC, size: 0x8, addend: 0x0, symName: __RNvMs4_NtNtCsieiGu2EXtoJ_4core5slice4iterINtB5_4IterNtNtCsfMaSMcsiNJc_15wiggle_generate16codegen_settings9ErrorTypeE3newBS_, symObjAddr: 0x1910, symBinAddr: 0x69AA0, symSize: 0x50 }
  - { offset: 0x136689, size: 0x8, addend: 0x0, symName: __RNvMs4_NtNtCsieiGu2EXtoJ_4core5slice4iterINtB5_4IterTNtCsaKzlTDPUHDb_11proc_macro25IdentNtNtCsdGrGZaRBwMb_3syn5token5CommaEE3newCsfMaSMcsiNJc_15wiggle_generate, symObjAddr: 0x1960, symBinAddr: 0x69AF0, symSize: 0x50 }
  - { offset: 0x136836, size: 0x8, addend: 0x0, symName: __RNvMs4_NtNtCsieiGu2EXtoJ_4core5slice4iterINtB5_4IterTNtNtCsdGrGZaRBwMb_3syn3lit6LitStrNtNtBT_5token5CommaEE3newCsfMaSMcsiNJc_15wiggle_generate, symObjAddr: 0x19B0, symBinAddr: 0x69B40, symSize: 0x50 }
  - { offset: 0x13735E, size: 0x8, addend: 0x0, symName: __RINvNtNtCsieiGu2EXtoJ_4core5slice5index5rangeINtNtNtB6_3ops5range9RangeFromjEECsfMaSMcsiNJc_15wiggle_generate, symObjAddr: 0x0, symBinAddr: 0x6A9B0, symSize: 0x280 }
  - { offset: 0x137AA4, size: 0x8, addend: 0x0, symName: __RNvXs1_NtCsaKzlTDPUHDb_11proc_macro26markerNtB5_19ProcMacroAutoTraitsNtNtCsieiGu2EXtoJ_4core5clone5Clone5cloneCsfMaSMcsiNJc_15wiggle_generate, symObjAddr: 0x57D0, symBinAddr: 0x6FC00, symSize: 0x10 }
  - { offset: 0x138AF9, size: 0x8, addend: 0x0, symName: __RINvNtNtCsieiGu2EXtoJ_4core5slice5index5rangeINtNtNtB6_3ops5range9RangeFromjEECsfMaSMcsiNJc_15wiggle_generate, symObjAddr: 0x0, symBinAddr: 0x6A9B0, symSize: 0x280 }
  - { offset: 0x138CC3, size: 0x8, addend: 0x0, symName: __RNvXs0_NtNtCsieiGu2EXtoJ_4core5slice5indexjINtB5_10SliceIndexSNtCsaKzlTDPUHDb_11proc_macro211TokenStreamE5indexCsfMaSMcsiNJc_15wiggle_generate, symObjAddr: 0x4610, symBinAddr: 0x6EA40, symSize: 0x50 }
  - { offset: 0x138D09, size: 0x8, addend: 0x0, symName: __RNvXs0_NtNtCsieiGu2EXtoJ_4core5slice5indexjINtB5_10SliceIndexSNtNtCs8QreBtO1sIU_4witx3abi8WasmTypeE5indexCsfMaSMcsiNJc_15wiggle_generate, symObjAddr: 0x4660, symBinAddr: 0x6EA90, symSize: 0x50 }
  - { offset: 0x138D4F, size: 0x8, addend: 0x0, symName: __RNvXs0_NtNtCsieiGu2EXtoJ_4core5slice5indexjINtB5_10SliceIndexSNtNtCs8QreBtO1sIU_4witx3ast18InterfaceFuncParamE3getCsfMaSMcsiNJc_15wiggle_generate, symObjAddr: 0x46B0, symBinAddr: 0x6EAE0, symSize: 0x40 }
  - { offset: 0x139169, size: 0x8, addend: 0x0, symName: __RNCINvNtNtNtCsieiGu2EXtoJ_4core4iter8adapters3map8map_foldRNtCsaKzlTDPUHDb_11proc_macro25IdentNtBX_11TokenStreamuNCNvXs_NtCsfMaSMcsiNJc_15wiggle_generate5funcsNtB1U_4RustNtNtCs8QreBtO1sIU_4witx3abi7Bindgen4emits2_0NCINvNvNtNtNtB8_6traits8iterator8Iterator8for_each4callB1u_NCINvMsi_NtCslJiobkLta79_5alloc3vecINtB4w_3VecB1u_E14extend_trustedINtB4_3MapINtNtNtBa_5slice4iter4IterBV_EB1N_EE0E0E0B1W_, symObjAddr: 0xF10, symBinAddr: 0x6B8C0, symSize: 0x90 }
  - { offset: 0x1391EE, size: 0x8, addend: 0x0, symName: __RNCINvNtNtNtCsieiGu2EXtoJ_4core4iter8adapters3map8map_foldRNtCsaKzlTDPUHDb_11proc_macro25IdentNtNtCslJiobkLta79_5alloc6string6StringuNCNvXsi_NtCsfMaSMcsiNJc_15wiggle_generate6configNtB2f_14AsyncFunctionsNtNtCsdGrGZaRBwMb_3syn5parse5Parse5parse0NCINvNvNtNtNtB8_6traits8iterator8Iterator8for_each4callB1u_NCINvMsi_NtB1y_3vecINtB50_3VecB1u_E14extend_trustedINtB4_3MapINtNtNtBa_5slice4iter4IterBV_EB27_EE0E0E0B2h_, symObjAddr: 0xFA0, symBinAddr: 0x6B950, symSize: 0x80 }
  - { offset: 0x139273, size: 0x8, addend: 0x0, symName: __RNCINvNtNtNtCsieiGu2EXtoJ_4core4iter8adapters3map8map_foldRNtCsaKzlTDPUHDb_11proc_macro25IdentNtNtCslJiobkLta79_5alloc6string6StringuNCNvXsp_NtCsfMaSMcsiNJc_15wiggle_generate6configNtB2f_11TracingConfNtNtCsdGrGZaRBwMb_3syn5parse5Parse5parse0NCINvNvNtNtNtB8_6traits8iterator8Iterator8for_each4callB1u_NCINvMsi_NtB1y_3vecINtB4X_3VecB1u_E14extend_trustedINtB4_3MapINtNtNtBa_5slice4iter4IterBV_EB27_EE0E0E0B2h_, symObjAddr: 0x1020, symBinAddr: 0x6B9D0, symSize: 0x80 }
  - { offset: 0x1392F8, size: 0x8, addend: 0x0, symName: __RNCINvNtNtNtCsieiGu2EXtoJ_4core4iter8adapters3map8map_foldRNtNtCs8QreBtO1sIU_4witx3abi8WasmTypeNtCsaKzlTDPUHDb_11proc_macro211TokenStreamuNCNvNtCsfMaSMcsiNJc_15wiggle_generate8wasmtime13generate_funcs_0NCINvNvNtNtNtB8_6traits8iterator8Iterator8for_each4callB1v_NCINvMsi_NtCslJiobkLta79_5alloc3vecINtB4k_3VecB1v_E14extend_trustedINtB4_3MapINtNtNtBa_5slice4iter4IterBV_EB2c_EE0E0E0B2i_, symObjAddr: 0x10A0, symBinAddr: 0x6BA50, symSize: 0x90 }
  - { offset: 0x13937D, size: 0x8, addend: 0x0, symName: __RNCINvNtNtNtCsieiGu2EXtoJ_4core4iter8adapters3map8map_foldRNtNtCs8QreBtO1sIU_4witx3ast12RecordMemberNtCsaKzlTDPUHDb_11proc_macro211TokenStreamuNCNvNtCsfMaSMcsiNJc_15wiggle_generate5names8type_ref0NCINvNvNtNtNtB8_6traits8iterator8Iterator8for_each4callB1A_NCINvMsi_NtCslJiobkLta79_5alloc3vecINtB4e_3VecB1A_E14extend_trustedINtB4_3MapINtNtNtBa_5slice4iter4IterBV_EB2h_EE0E0E0B2n_, symObjAddr: 0x1130, symBinAddr: 0x6BAE0, symSize: 0x90 }
  - { offset: 0x139402, size: 0x8, addend: 0x0, symName: __RNCINvNtNtNtCsieiGu2EXtoJ_4core4iter8adapters3map8map_foldRNtNtCs8QreBtO1sIU_4witx3ast18InterfaceFuncParamNtCsaKzlTDPUHDb_11proc_macro211TokenStreamuNCNvXs_NtCsfMaSMcsiNJc_15wiggle_generate5funcsNtB2u_4RustNtNtBZ_3abi7Bindgen4emits0_0NCINvNvNtNtNtB8_6traits8iterator8Iterator8for_each4callB1G_NCINvMsi_NtCslJiobkLta79_5alloc3vecINtB4Q_3VecB1G_E14extend_trustedINtB4_3MapINtNtNtBa_5slice4iter4IterBV_EB2n_EE0E0E0B2w_, symObjAddr: 0x11C0, symBinAddr: 0x6BB70, symSize: 0x90 }
  - { offset: 0x139487, size: 0x8, addend: 0x0, symName: __RNCINvNtNtNtCsieiGu2EXtoJ_4core4iter8adapters3map8map_foldRNtNtCsHUR1vrdMJt_3std4path7PathBufRNtBX_4PathuNCINvNtCs8QreBtO1sIU_4witx8toplevel10parse_witxBV_E0NCINvNvNtNtNtB8_6traits8iterator8Iterator8for_each4callB1t_NCINvMsi_NtCslJiobkLta79_5alloc3vecINtB3B_3VecB1t_E14extend_trustedINtB4_3MapINtNtNtBa_5slice4iter4IterBV_EB1F_EE0E0E0CsfMaSMcsiNJc_15wiggle_generate, symObjAddr: 0x1250, symBinAddr: 0x6BC00, symSize: 0x70 }
  - { offset: 0x13950C, size: 0x8, addend: 0x0, symName: __RNCINvNtNtNtCsieiGu2EXtoJ_4core4iter8adapters3map8map_foldTRNtCsaKzlTDPUHDb_11proc_macro25IdentRNtBY_11TokenStreamEB1w_uNCNvNtCsfMaSMcsiNJc_15wiggle_generate8wasmtime13generate_funcs0_0NCINvNvNtNtNtB8_6traits8iterator8Iterator8for_each4callB1w_NCINvMsi_NtCslJiobkLta79_5alloc3vecINtB43_3VecB1w_E14extend_trustedINtB4_3MapINtNtB6_3zip3ZipINtNtNtBa_5slice4iter4IterBW_EIB5q_B1w_EEB1U_EE0E0E0B20_, symObjAddr: 0x12C0, symBinAddr: 0x6BC70, symSize: 0xA0 }
  - { offset: 0x139591, size: 0x8, addend: 0x0, symName: __RNCINvNtNtNtCsieiGu2EXtoJ_4core4iter8adapters3map8map_foldjNtCsaKzlTDPUHDb_11proc_macro25IdentuNCNvNtCsfMaSMcsiNJc_15wiggle_generate5funcs12__define_func0NCINvNvNtNtNtB8_6traits8iterator8Iterator8for_each4callBV_NCINvMsi_NtCslJiobkLta79_5alloc3vecINtB3x_3VecBV_E14extend_trustedINtB4_3MapINtNtNtBa_3ops5range5RangejEB1v_EE0E0E0B1B_, symObjAddr: 0x1360, symBinAddr: 0x6BD10, symSize: 0x80 }
  - { offset: 0x139616, size: 0x8, addend: 0x0, symName: __RNCINvNtNtNtCsieiGu2EXtoJ_4core4iter8adapters3map8map_foldjNtCsaKzlTDPUHDb_11proc_macro25IdentuNCNvNtCsfMaSMcsiNJc_15wiggle_generate8wasmtime13generate_func0NCINvNvNtNtNtB8_6traits8iterator8Iterator8for_each4callBV_NCINvMsi_NtCslJiobkLta79_5alloc3vecINtB3A_3VecBV_E14extend_trustedINtB4_3MapINtNtNtBa_3ops5range5RangejEB1v_EE0E0E0B1B_, symObjAddr: 0x13E0, symBinAddr: 0x6BD90, symSize: 0x80 }
  - { offset: 0x13969B, size: 0x8, addend: 0x0, symName: __RNCINvNtNtNtCsieiGu2EXtoJ_4core4iter8adapters3map8map_foldjNtCsaKzlTDPUHDb_11proc_macro25IdentuNCNvXs_NtCsfMaSMcsiNJc_15wiggle_generate5funcsNtB1C_4RustNtNtCs8QreBtO1sIU_4witx3abi7Bindgen4emits1_0NCINvNvNtNtNtB8_6traits8iterator8Iterator8for_each4callBV_NCINvMsi_NtCslJiobkLta79_5alloc3vecINtB4d_3VecBV_E14extend_trustedINtB4_3MapINtNtNtBa_3ops5range5RangejEB1v_EE0E0E0B1E_, symObjAddr: 0x1460, symBinAddr: 0x6BE10, symSize: 0x80 }
  - { offset: 0x139726, size: 0x8, addend: 0x0, symName: __RINvXs0_NtNtNtCsieiGu2EXtoJ_4core4iter8adapters3mapINtB6_3MapINtNtB8_3zip3ZipINtNtNtBc_5slice4iter4IterNtCsaKzlTDPUHDb_11proc_macro25IdentEIB1e_NtB1F_11TokenStreamEENCNvNtCsfMaSMcsiNJc_15wiggle_generate8wasmtime13generate_funcs0_0ENtNtNtBa_6traits8iterator8Iterator4folduNCINvNvB3H_8for_each4callB2i_NCINvMsi_NtCslJiobkLta79_5alloc3vecINtB4X_3VecB2i_E14extend_trustedBN_E0E0EB2J_, symObjAddr: 0x280, symBinAddr: 0x6AC30, symSize: 0x50 }
  - { offset: 0x1397C1, size: 0x8, addend: 0x0, symName: __RINvXs0_NtNtNtCsieiGu2EXtoJ_4core4iter8adapters3mapINtB6_3MapINtNtNtBc_3ops5range5RangejENCNvNtCsfMaSMcsiNJc_15wiggle_generate5funcs12__define_func0ENtNtNtBa_6traits8iterator8Iterator4folduNCINvNvB2n_8for_each4callNtCsaKzlTDPUHDb_11proc_macro25IdentNCINvMsi_NtCslJiobkLta79_5alloc3vecINtB48_3VecB3q_E14extend_trustedBN_E0E0EB1v_, symObjAddr: 0x2D0, symBinAddr: 0x6AC80, symSize: 0x40 }
  - { offset: 0x139858, size: 0x8, addend: 0x0, symName: __RINvXs0_NtNtNtCsieiGu2EXtoJ_4core4iter8adapters3mapINtB6_3MapINtNtNtBc_3ops5range5RangejENCNvNtCsfMaSMcsiNJc_15wiggle_generate8wasmtime13generate_func0ENtNtNtBa_6traits8iterator8Iterator4folduNCINvNvB2q_8for_each4callNtCsaKzlTDPUHDb_11proc_macro25IdentNCINvMsi_NtCslJiobkLta79_5alloc3vecINtB4b_3VecB3t_E14extend_trustedBN_E0E0EB1v_, symObjAddr: 0x310, symBinAddr: 0x6ACC0, symSize: 0x40 }
  - { offset: 0x1398EF, size: 0x8, addend: 0x0, symName: __RINvXs0_NtNtNtCsieiGu2EXtoJ_4core4iter8adapters3mapINtB6_3MapINtNtNtBc_3ops5range5RangejENCNvXs_NtCsfMaSMcsiNJc_15wiggle_generate5funcsNtB1w_4RustNtNtCs8QreBtO1sIU_4witx3abi7Bindgen4emits1_0ENtNtNtBa_6traits8iterator8Iterator4folduNCINvNvB33_8for_each4callNtCsaKzlTDPUHDb_11proc_macro25IdentNCINvMsi_NtCslJiobkLta79_5alloc3vecINtB4O_3VecB46_E14extend_trustedBN_E0E0EB1y_, symObjAddr: 0x350, symBinAddr: 0x6AD00, symSize: 0x40 }
  - { offset: 0x139986, size: 0x8, addend: 0x0, symName: __RINvXs0_NtNtNtCsieiGu2EXtoJ_4core4iter8adapters3mapINtB6_3MapINtNtNtBc_5slice4iter4IterNtCsaKzlTDPUHDb_11proc_macro25IdentENCNvXs_NtCsfMaSMcsiNJc_15wiggle_generate5funcsNtB24_4RustNtNtCs8QreBtO1sIU_4witx3abi7Bindgen4emits2_0ENtNtNtBa_6traits8iterator8Iterator4folduNCINvNvB3B_8for_each4callNtB1p_11TokenStreamNCINvMsi_NtCslJiobkLta79_5alloc3vecINtB56_3VecB4E_E14extend_trustedBN_E0E0EB26_, symObjAddr: 0x390, symBinAddr: 0x6AD40, symSize: 0x40 }
  - { offset: 0x139A1D, size: 0x8, addend: 0x0, symName: __RINvXs0_NtNtNtCsieiGu2EXtoJ_4core4iter8adapters3mapINtB6_3MapINtNtNtBc_5slice4iter4IterNtCsaKzlTDPUHDb_11proc_macro25IdentENCNvXsi_NtCsfMaSMcsiNJc_15wiggle_generate6configNtB25_14AsyncFunctionsNtNtCsdGrGZaRBwMb_3syn5parse5Parse5parse0ENtNtNtBa_6traits8iterator8Iterator4folduNCINvNvB3L_8for_each4callNtNtCslJiobkLta79_5alloc6string6StringNCINvMsi_NtB4S_3vecINtB5z_3VecB4O_E14extend_trustedBN_E0E0EB27_, symObjAddr: 0x3D0, symBinAddr: 0x6AD80, symSize: 0x40 }
  - { offset: 0x139AB4, size: 0x8, addend: 0x0, symName: __RINvXs0_NtNtNtCsieiGu2EXtoJ_4core4iter8adapters3mapINtB6_3MapINtNtNtBc_5slice4iter4IterNtCsaKzlTDPUHDb_11proc_macro25IdentENCNvXsp_NtCsfMaSMcsiNJc_15wiggle_generate6configNtB25_11TracingConfNtNtCsdGrGZaRBwMb_3syn5parse5Parse5parse0ENtNtNtBa_6traits8iterator8Iterator4folduNCINvNvB3I_8for_each4callNtNtCslJiobkLta79_5alloc6string6StringNCINvMsi_NtB4P_3vecINtB5w_3VecB4L_E14extend_trustedBN_E0E0EB27_, symObjAddr: 0x410, symBinAddr: 0x6ADC0, symSize: 0x40 }
  - { offset: 0x139B4B, size: 0x8, addend: 0x0, symName: __RINvXs0_NtNtNtCsieiGu2EXtoJ_4core4iter8adapters3mapINtB6_3MapINtNtNtBc_5slice4iter4IterNtNtCs8QreBtO1sIU_4witx3abi8WasmTypeENCNvNtCsfMaSMcsiNJc_15wiggle_generate8wasmtime13generate_funcs_0ENtNtNtBa_6traits8iterator8Iterator4folduNCINvNvB31_8for_each4callNtCsaKzlTDPUHDb_11proc_macro211TokenStreamNCINvMsi_NtCslJiobkLta79_5alloc3vecINtB4T_3VecB44_E14extend_trustedBN_E0E0EB24_, symObjAddr: 0x450, symBinAddr: 0x6AE00, symSize: 0x40 }
