---
triple:          'x86_64-apple-darwin'
binary-path:     '/Users/kema/git/rust-serv/target/debug/deps/libyoke_derive-5d5b717f8af4cdf6.dylib'
relocations:
  - { offset: 0x1E, size: 0x8, addend: 0x0, symName: __RINvMs3_NtNtCslJiobkLta79_5alloc11collections9vec_dequeINtB6_8VecDequeTNtNtCsdGrGZaRBwMb_3syn2ty4TypeNtNtB1b_5token5CommaEE12slice_rangesNtNtNtCsieiGu2EXtoJ_4core3ops5range9RangeFullECs9jpTMRK2ijq_11yoke_derive, symObjAddr: 0x0, symBinAddr: 0xBD0, symSize: 0x260 }
  - { offset: 0x551A, size: 0x8, addend: 0x0, symName: __RNvXNvXs_NtNtCslJiobkLta79_5alloc11collections9vec_dequeINtB7_8VecDequeppENtNtNtCsieiGu2EXtoJ_4core3ops4drop4Drop4dropINtB2_7DropperTNtNtCsdGrGZaRBwMb_3syn2ty4TypeNtNtB2b_5token5CommaEEB1a_4dropCs9jpTMRK2ijq_11yoke_derive, symObjAddr: 0x13F40, symBinAddr: 0x14B10, symSize: 0x30 }
  - { offset: 0x554B, size: 0x8, addend: 0x0, symName: __RNvXNvXs_NtNtCslJiobkLta79_5alloc11collections9vec_dequeINtB7_8VecDequeppENtNtNtCsieiGu2EXtoJ_4core3ops4drop4Drop4dropINtB2_7DropperTNtNtCsdGrGZaRBwMb_3syn2ty9BareFnArgNtNtB2b_5token5CommaEEB1a_4dropCs9jpTMRK2ijq_11yoke_derive, symObjAddr: 0x13F70, symBinAddr: 0x14B40, symSize: 0x30 }
  - { offset: 0x557C, size: 0x8, addend: 0x0, symName: __RNvXNvXs_NtNtCslJiobkLta79_5alloc11collections9vec_dequeINtB7_8VecDequeppENtNtNtCsieiGu2EXtoJ_4core3ops4drop4Drop4dropINtB2_7DropperTNtNtCsdGrGZaRBwMb_3syn3pat3PatNtNtB2b_5token2OrEEB1a_4dropCs9jpTMRK2ijq_11yoke_derive, symObjAddr: 0x13FA0, symBinAddr: 0x14B70, symSize: 0x30 }
  - { offset: 0x55AD, size: 0x8, addend: 0x0, symName: __RNvXNvXs_NtNtCslJiobkLta79_5alloc11collections9vec_dequeINtB7_8VecDequeppENtNtNtCsieiGu2EXtoJ_4core3ops4drop4Drop4dropINtB2_7DropperTNtNtCsdGrGZaRBwMb_3syn3pat3PatNtNtB2b_5token5CommaEEB1a_4dropCs9jpTMRK2ijq_11yoke_derive, symObjAddr: 0x13FD0, symBinAddr: 0x14BA0, symSize: 0x30 }
  - { offset: 0x55DE, size: 0x8, addend: 0x0, symName: __RNvXNvXs_NtNtCslJiobkLta79_5alloc11collections9vec_dequeINtB7_8VecDequeppENtNtNtCsieiGu2EXtoJ_4core3ops4drop4Drop4dropINtB2_7DropperTNtNtCsdGrGZaRBwMb_3syn3pat8FieldPatNtNtB2b_5token5CommaEEB1a_4dropCs9jpTMRK2ijq_11yoke_derive, symObjAddr: 0x14000, symBinAddr: 0x14BD0, symSize: 0x30 }
  - { offset: 0x560F, size: 0x8, addend: 0x0, symName: __RNvXNvXs_NtNtCslJiobkLta79_5alloc11collections9vec_dequeINtB7_8VecDequeppENtNtNtCsieiGu2EXtoJ_4core3ops4drop4Drop4dropINtB2_7DropperTNtNtCsdGrGZaRBwMb_3syn4data5FieldNtNtB2b_5token5CommaEEB1a_4dropCs9jpTMRK2ijq_11yoke_derive, symObjAddr: 0x14030, symBinAddr: 0x14C00, symSize: 0x30 }
  - { offset: 0x5640, size: 0x8, addend: 0x0, symName: __RNvXNvXs_NtNtCslJiobkLta79_5alloc11collections9vec_dequeINtB7_8VecDequeppENtNtNtCsieiGu2EXtoJ_4core3ops4drop4Drop4dropINtB2_7DropperTNtNtCsdGrGZaRBwMb_3syn4data7VariantNtNtB2b_5token5CommaEEB1a_4dropCs9jpTMRK2ijq_11yoke_derive, symObjAddr: 0x14060, symBinAddr: 0x14C30, symSize: 0x30 }
  - { offset: 0x5671, size: 0x8, addend: 0x0, symName: __RNvXNvXs_NtNtCslJiobkLta79_5alloc11collections9vec_dequeINtB7_8VecDequeppENtNtNtCsieiGu2EXtoJ_4core3ops4drop4Drop4dropINtB2_7DropperTNtNtCsdGrGZaRBwMb_3syn4expr10FieldValueNtNtB2b_5token5CommaEEB1a_4dropCs9jpTMRK2ijq_11yoke_derive, symObjAddr: 0x14090, symBinAddr: 0x14C60, symSize: 0x30 }
  - { offset: 0x56A2, size: 0x8, addend: 0x0, symName: __RNvXNvXs_NtNtCslJiobkLta79_5alloc11collections9vec_dequeINtB7_8VecDequeppENtNtNtCsieiGu2EXtoJ_4core3ops4drop4Drop4dropINtB2_7DropperTNtNtCsdGrGZaRBwMb_3syn4expr4ExprNtNtB2b_5token5CommaEEB1a_4dropCs9jpTMRK2ijq_11yoke_derive, symObjAddr: 0x140C0, symBinAddr: 0x14C90, symSize: 0x30 }
  - { offset: 0x56D3, size: 0x8, addend: 0x0, symName: __RNvXNvXs_NtNtCslJiobkLta79_5alloc11collections9vec_dequeINtB7_8VecDequeppENtNtNtCsieiGu2EXtoJ_4core3ops4drop4Drop4dropINtB2_7DropperTNtNtCsdGrGZaRBwMb_3syn4item5FnArgNtNtB2b_5token5CommaEEB1a_4dropCs9jpTMRK2ijq_11yoke_derive, symObjAddr: 0x140F0, symBinAddr: 0x14CC0, symSize: 0x30 }
  - { offset: 0x5704, size: 0x8, addend: 0x0, symName: __RNvXNvXs_NtNtCslJiobkLta79_5alloc11collections9vec_dequeINtB7_8VecDequeppENtNtNtCsieiGu2EXtoJ_4core3ops4drop4Drop4dropINtB2_7DropperTNtNtCsdGrGZaRBwMb_3syn4item7UseTreeNtNtB2b_5token5CommaEEB1a_4dropCs9jpTMRK2ijq_11yoke_derive, symObjAddr: 0x14120, symBinAddr: 0x14CF0, symSize: 0x30 }
  - { offset: 0x5735, size: 0x8, addend: 0x0, symName: __RNvXNvXs_NtNtCslJiobkLta79_5alloc11collections9vec_dequeINtB7_8VecDequeppENtNtNtCsieiGu2EXtoJ_4core3ops4drop4Drop4dropINtB2_7DropperTNtNtCsdGrGZaRBwMb_3syn4path11PathSegmentNtNtB2b_5token7PathSepEEB1a_4dropCs9jpTMRK2ijq_11yoke_derive, symObjAddr: 0x14150, symBinAddr: 0x14D20, symSize: 0x30 }
  - { offset: 0x5766, size: 0x8, addend: 0x0, symName: __RNvXNvXs_NtNtCslJiobkLta79_5alloc11collections9vec_dequeINtB7_8VecDequeppENtNtNtCsieiGu2EXtoJ_4core3ops4drop4Drop4dropINtB2_7DropperTNtNtCsdGrGZaRBwMb_3syn4path15GenericArgumentNtNtB2b_5token5CommaEEB1a_4dropCs9jpTMRK2ijq_11yoke_derive, symObjAddr: 0x14180, symBinAddr: 0x14D50, symSize: 0x30 }
  - { offset: 0x5797, size: 0x8, addend: 0x0, symName: __RNvXNvXs_NtNtCslJiobkLta79_5alloc11collections9vec_dequeINtB7_8VecDequeppENtNtNtCsieiGu2EXtoJ_4core3ops4drop4Drop4dropINtB2_7DropperTNtNtCsdGrGZaRBwMb_3syn8generics12GenericParamNtNtB2b_5token5CommaEEB1a_4dropCs9jpTMRK2ijq_11yoke_derive, symObjAddr: 0x141B0, symBinAddr: 0x14D80, symSize: 0x30 }
  - { offset: 0x57C8, size: 0x8, addend: 0x0, symName: __RNvXNvXs_NtNtCslJiobkLta79_5alloc11collections9vec_dequeINtB7_8VecDequeppENtNtNtCsieiGu2EXtoJ_4core3ops4drop4Drop4dropINtB2_7DropperTNtNtCsdGrGZaRBwMb_3syn8generics13CapturedParamNtNtB2b_5token5CommaEEB1a_4dropCs9jpTMRK2ijq_11yoke_derive, symObjAddr: 0x141E0, symBinAddr: 0x14DB0, symSize: 0x30 }
  - { offset: 0x57F9, size: 0x8, addend: 0x0, symName: __RNvXNvXs_NtNtCslJiobkLta79_5alloc11collections9vec_dequeINtB7_8VecDequeppENtNtNtCsieiGu2EXtoJ_4core3ops4drop4Drop4dropINtB2_7DropperTNtNtCsdGrGZaRBwMb_3syn8generics14TypeParamBoundNtNtB2b_5token4PlusEEB1a_4dropCs9jpTMRK2ijq_11yoke_derive, symObjAddr: 0x14210, symBinAddr: 0x14DE0, symSize: 0x30 }
  - { offset: 0x582A, size: 0x8, addend: 0x0, symName: __RNvXNvXs_NtNtCslJiobkLta79_5alloc11collections9vec_dequeINtB7_8VecDequeppENtNtNtCsieiGu2EXtoJ_4core3ops4drop4Drop4dropINtB2_7DropperTNtNtCsdGrGZaRBwMb_3syn8generics14WherePredicateNtNtB2b_5token5CommaEEB1a_4dropCs9jpTMRK2ijq_11yoke_derive, symObjAddr: 0x14240, symBinAddr: 0x14E10, symSize: 0x30 }
  - { offset: 0x585B, size: 0x8, addend: 0x0, symName: __RNvXNvXs_NtNtCslJiobkLta79_5alloc11collections9vec_dequeINtB7_8VecDequeppENtNtNtCsieiGu2EXtoJ_4core3ops4drop4Drop4dropINtB2_7DropperTNtNtCsdGrGZaRBwMb_3syn8lifetime8LifetimeNtNtB2b_5token4PlusEEB1a_4dropCs9jpTMRK2ijq_11yoke_derive, symObjAddr: 0x14270, symBinAddr: 0x14E40, symSize: 0x30 }
  - { offset: 0x5AAA, size: 0x8, addend: 0x0, symName: __RNvXs_NtNtCslJiobkLta79_5alloc11collections9vec_dequeINtB4_8VecDequeTNtNtCsdGrGZaRBwMb_3syn2ty4TypeNtNtB19_5token5CommaEENtNtNtCsieiGu2EXtoJ_4core3ops4drop4Drop4dropCs9jpTMRK2ijq_11yoke_derive, symObjAddr: 0x142A0, symBinAddr: 0x14E70, symSize: 0xD0 }
  - { offset: 0x5CC2, size: 0x8, addend: 0x0, symName: __RNvXs_NtNtCslJiobkLta79_5alloc11collections9vec_dequeINtB4_8VecDequeTNtNtCsdGrGZaRBwMb_3syn2ty9BareFnArgNtNtB19_5token5CommaEENtNtNtCsieiGu2EXtoJ_4core3ops4drop4Drop4dropCs9jpTMRK2ijq_11yoke_derive, symObjAddr: 0x14370, symBinAddr: 0x14F40, symSize: 0xE0 }
  - { offset: 0x5EDA, size: 0x8, addend: 0x0, symName: __RNvXs_NtNtCslJiobkLta79_5alloc11collections9vec_dequeINtB4_8VecDequeTNtNtCsdGrGZaRBwMb_3syn3pat3PatNtNtB19_5token2OrEENtNtNtCsieiGu2EXtoJ_4core3ops4drop4Drop4dropCs9jpTMRK2ijq_11yoke_derive, symObjAddr: 0x14450, symBinAddr: 0x15020, symSize: 0xE0 }
  - { offset: 0x60F2, size: 0x8, addend: 0x0, symName: __RNvXs_NtNtCslJiobkLta79_5alloc11collections9vec_dequeINtB4_8VecDequeTNtNtCsdGrGZaRBwMb_3syn3pat3PatNtNtB19_5token5CommaEENtNtNtCsieiGu2EXtoJ_4core3ops4drop4Drop4dropCs9jpTMRK2ijq_11yoke_derive, symObjAddr: 0x14530, symBinAddr: 0x15100, symSize: 0xE0 }
  - { offset: 0x630A, size: 0x8, addend: 0x0, symName: __RNvXs_NtNtCslJiobkLta79_5alloc11collections9vec_dequeINtB4_8VecDequeTNtNtCsdGrGZaRBwMb_3syn3pat8FieldPatNtNtB19_5token5CommaEENtNtNtCsieiGu2EXtoJ_4core3ops4drop4Drop4dropCs9jpTMRK2ijq_11yoke_derive, symObjAddr: 0x14610, symBinAddr: 0x151E0, symSize: 0xD0 }
  - { offset: 0x6522, size: 0x8, addend: 0x0, symName: __RNvXs_NtNtCslJiobkLta79_5alloc11collections9vec_dequeINtB4_8VecDequeTNtNtCsdGrGZaRBwMb_3syn4data5FieldNtNtB19_5token5CommaEENtNtNtCsieiGu2EXtoJ_4core3ops4drop4Drop4dropCs9jpTMRK2ijq_11yoke_derive, symObjAddr: 0x146E0, symBinAddr: 0x152B0, symSize: 0xE0 }
  - { offset: 0x673A, size: 0x8, addend: 0x0, symName: __RNvXs_NtNtCslJiobkLta79_5alloc11collections9vec_dequeINtB4_8VecDequeTNtNtCsdGrGZaRBwMb_3syn4data7VariantNtNtB19_5token5CommaEENtNtNtCsieiGu2EXtoJ_4core3ops4drop4Drop4dropCs9jpTMRK2ijq_11yoke_derive, symObjAddr: 0x147C0, symBinAddr: 0x15390, symSize: 0xD0 }
  - { offset: 0x6952, size: 0x8, addend: 0x0, symName: __RNvXs_NtNtCslJiobkLta79_5alloc11collections9vec_dequeINtB4_8VecDequeTNtNtCsdGrGZaRBwMb_3syn4expr10FieldValueNtNtB19_5token5CommaEENtNtNtCsieiGu2EXtoJ_4core3ops4drop4Drop4dropCs9jpTMRK2ijq_11yoke_derive, symObjAddr: 0x14890, symBinAddr: 0x15460, symSize: 0xD0 }
  - { offset: 0x6B6A, size: 0x8, addend: 0x0, symName: __RNvXs_NtNtCslJiobkLta79_5alloc11collections9vec_dequeINtB4_8VecDequeTNtNtCsdGrGZaRBwMb_3syn4expr4ExprNtNtB19_5token5CommaEENtNtNtCsieiGu2EXtoJ_4core3ops4drop4Drop4dropCs9jpTMRK2ijq_11yoke_derive, symObjAddr: 0x14960, symBinAddr: 0x15530, symSize: 0xD0 }
  - { offset: 0x6D82, size: 0x8, addend: 0x0, symName: __RNvXs_NtNtCslJiobkLta79_5alloc11collections9vec_dequeINtB4_8VecDequeTNtNtCsdGrGZaRBwMb_3syn4item5FnArgNtNtB19_5token5CommaEENtNtNtCsieiGu2EXtoJ_4core3ops4drop4Drop4dropCs9jpTMRK2ijq_11yoke_derive, symObjAddr: 0x14A30, symBinAddr: 0x15600, symSize: 0xD0 }
  - { offset: 0x6F9A, size: 0x8, addend: 0x0, symName: __RNvXs_NtNtCslJiobkLta79_5alloc11collections9vec_dequeINtB4_8VecDequeTNtNtCsdGrGZaRBwMb_3syn4item7UseTreeNtNtB19_5token5CommaEENtNtNtCsieiGu2EXtoJ_4core3ops4drop4Drop4dropCs9jpTMRK2ijq_11yoke_derive, symObjAddr: 0x14B00, symBinAddr: 0x156D0, symSize: 0xD0 }
  - { offset: 0x71B2, size: 0x8, addend: 0x0, symName: __RNvXs_NtNtCslJiobkLta79_5alloc11collections9vec_dequeINtB4_8VecDequeTNtNtCsdGrGZaRBwMb_3syn4path11PathSegmentNtNtB19_5token7PathSepEENtNtNtCsieiGu2EXtoJ_4core3ops4drop4Drop4dropCs9jpTMRK2ijq_11yoke_derive, symObjAddr: 0x14BD0, symBinAddr: 0x157A0, symSize: 0xE0 }
  - { offset: 0x73CA, size: 0x8, addend: 0x0, symName: __RNvXs_NtNtCslJiobkLta79_5alloc11collections9vec_dequeINtB4_8VecDequeTNtNtCsdGrGZaRBwMb_3syn4path15GenericArgumentNtNtB19_5token5CommaEENtNtNtCsieiGu2EXtoJ_4core3ops4drop4Drop4dropCs9jpTMRK2ijq_11yoke_derive, symObjAddr: 0x14CB0, symBinAddr: 0x15880, symSize: 0xE0 }
  - { offset: 0x75E2, size: 0x8, addend: 0x0, symName: __RNvXs_NtNtCslJiobkLta79_5alloc11collections9vec_dequeINtB4_8VecDequeTNtNtCsdGrGZaRBwMb_3syn8generics12GenericParamNtNtB19_5token5CommaEENtNtNtCsieiGu2EXtoJ_4core3ops4drop4Drop4dropCs9jpTMRK2ijq_11yoke_derive, symObjAddr: 0x14D90, symBinAddr: 0x15960, symSize: 0xD0 }
  - { offset: 0x77FA, size: 0x8, addend: 0x0, symName: __RNvXs_NtNtCslJiobkLta79_5alloc11collections9vec_dequeINtB4_8VecDequeTNtNtCsdGrGZaRBwMb_3syn8generics13CapturedParamNtNtB19_5token5CommaEENtNtNtCsieiGu2EXtoJ_4core3ops4drop4Drop4dropCs9jpTMRK2ijq_11yoke_derive, symObjAddr: 0x14E60, symBinAddr: 0x15A30, symSize: 0xE0 }
  - { offset: 0x7A12, size: 0x8, addend: 0x0, symName: __RNvXs_NtNtCslJiobkLta79_5alloc11collections9vec_dequeINtB4_8VecDequeTNtNtCsdGrGZaRBwMb_3syn8generics14TypeParamBoundNtNtB19_5token4PlusEENtNtNtCsieiGu2EXtoJ_4core3ops4drop4Drop4dropCs9jpTMRK2ijq_11yoke_derive, symObjAddr: 0x14F40, symBinAddr: 0x15B10, symSize: 0xD0 }
  - { offset: 0x7C2A, size: 0x8, addend: 0x0, symName: __RNvXs_NtNtCslJiobkLta79_5alloc11collections9vec_dequeINtB4_8VecDequeTNtNtCsdGrGZaRBwMb_3syn8generics14WherePredicateNtNtB19_5token5CommaEENtNtNtCsieiGu2EXtoJ_4core3ops4drop4Drop4dropCs9jpTMRK2ijq_11yoke_derive, symObjAddr: 0x15010, symBinAddr: 0x15BE0, symSize: 0xE0 }
  - { offset: 0x7E42, size: 0x8, addend: 0x0, symName: __RNvXs_NtNtCslJiobkLta79_5alloc11collections9vec_dequeINtB4_8VecDequeTNtNtCsdGrGZaRBwMb_3syn8lifetime8LifetimeNtNtB19_5token4PlusEENtNtNtCsieiGu2EXtoJ_4core3ops4drop4Drop4dropCs9jpTMRK2ijq_11yoke_derive, symObjAddr: 0x150F0, symBinAddr: 0x15CC0, symSize: 0xD0 }
  - { offset: 0x8060, size: 0x8, addend: 0x0, symName: __RNvXsj_NtNtCslJiobkLta79_5alloc11collections9vec_dequeINtB5_8VecDequeTNtNtCsdGrGZaRBwMb_3syn2ty4TypeNtNtB1a_5token5CommaEEINtNtCsieiGu2EXtoJ_4core7convert4FromINtNtB9_3vec3VecB15_EE4fromCs9jpTMRK2ijq_11yoke_derive, symObjAddr: 0x151C0, symBinAddr: 0x15D90, symSize: 0xA0 }
  - { offset: 0x8213, size: 0x8, addend: 0x0, symName: __RNvXsj_NtNtCslJiobkLta79_5alloc11collections9vec_dequeINtB5_8VecDequeTNtNtCsdGrGZaRBwMb_3syn2ty9BareFnArgNtNtB1a_5token5CommaEEINtNtCsieiGu2EXtoJ_4core7convert4FromINtNtB9_3vec3VecB15_EE4fromCs9jpTMRK2ijq_11yoke_derive, symObjAddr: 0x15260, symBinAddr: 0x15E30, symSize: 0xA0 }
  - { offset: 0x83C6, size: 0x8, addend: 0x0, symName: __RNvXsj_NtNtCslJiobkLta79_5alloc11collections9vec_dequeINtB5_8VecDequeTNtNtCsdGrGZaRBwMb_3syn3pat3PatNtNtB1a_5token2OrEEINtNtCsieiGu2EXtoJ_4core7convert4FromINtNtB9_3vec3VecB15_EE4fromCs9jpTMRK2ijq_11yoke_derive, symObjAddr: 0x15300, symBinAddr: 0x15ED0, symSize: 0xA0 }
  - { offset: 0x8579, size: 0x8, addend: 0x0, symName: __RNvXsj_NtNtCslJiobkLta79_5alloc11collections9vec_dequeINtB5_8VecDequeTNtNtCsdGrGZaRBwMb_3syn3pat3PatNtNtB1a_5token5CommaEEINtNtCsieiGu2EXtoJ_4core7convert4FromINtNtB9_3vec3VecB15_EE4fromCs9jpTMRK2ijq_11yoke_derive, symObjAddr: 0x153A0, symBinAddr: 0x15F70, symSize: 0xA0 }
  - { offset: 0x872C, size: 0x8, addend: 0x0, symName: __RNvXsj_NtNtCslJiobkLta79_5alloc11collections9vec_dequeINtB5_8VecDequeTNtNtCsdGrGZaRBwMb_3syn3pat8FieldPatNtNtB1a_5token5CommaEEINtNtCsieiGu2EXtoJ_4core7convert4FromINtNtB9_3vec3VecB15_EE4fromCs9jpTMRK2ijq_11yoke_derive, symObjAddr: 0x15440, symBinAddr: 0x16010, symSize: 0xA0 }
  - { offset: 0x88DF, size: 0x8, addend: 0x0, symName: __RNvXsj_NtNtCslJiobkLta79_5alloc11collections9vec_dequeINtB5_8VecDequeTNtNtCsdGrGZaRBwMb_3syn4data5FieldNtNtB1a_5token5CommaEEINtNtCsieiGu2EXtoJ_4core7convert4FromINtNtB9_3vec3VecB15_EE4fromCs9jpTMRK2ijq_11yoke_derive, symObjAddr: 0x154E0, symBinAddr: 0x160B0, symSize: 0xA0 }
  - { offset: 0x8A92, size: 0x8, addend: 0x0, symName: __RNvXsj_NtNtCslJiobkLta79_5alloc11collections9vec_dequeINtB5_8VecDequeTNtNtCsdGrGZaRBwMb_3syn4data7VariantNtNtB1a_5token5CommaEEINtNtCsieiGu2EXtoJ_4core7convert4FromINtNtB9_3vec3VecB15_EE4fromCs9jpTMRK2ijq_11yoke_derive, symObjAddr: 0x15580, symBinAddr: 0x16150, symSize: 0xA0 }
  - { offset: 0x8C45, size: 0x8, addend: 0x0, symName: __RNvXsj_NtNtCslJiobkLta79_5alloc11collections9vec_dequeINtB5_8VecDequeTNtNtCsdGrGZaRBwMb_3syn4expr10FieldValueNtNtB1a_5token5CommaEEINtNtCsieiGu2EXtoJ_4core7convert4FromINtNtB9_3vec3VecB15_EE4fromCs9jpTMRK2ijq_11yoke_derive, symObjAddr: 0x15620, symBinAddr: 0x161F0, symSize: 0xA0 }
  - { offset: 0x8DF8, size: 0x8, addend: 0x0, symName: __RNvXsj_NtNtCslJiobkLta79_5alloc11collections9vec_dequeINtB5_8VecDequeTNtNtCsdGrGZaRBwMb_3syn4expr4ExprNtNtB1a_5token5CommaEEINtNtCsieiGu2EXtoJ_4core7convert4FromINtNtB9_3vec3VecB15_EE4fromCs9jpTMRK2ijq_11yoke_derive, symObjAddr: 0x156C0, symBinAddr: 0x16290, symSize: 0xA0 }
  - { offset: 0x8FAB, size: 0x8, addend: 0x0, symName: __RNvXsj_NtNtCslJiobkLta79_5alloc11collections9vec_dequeINtB5_8VecDequeTNtNtCsdGrGZaRBwMb_3syn4item5FnArgNtNtB1a_5token5CommaEEINtNtCsieiGu2EXtoJ_4core7convert4FromINtNtB9_3vec3VecB15_EE4fromCs9jpTMRK2ijq_11yoke_derive, symObjAddr: 0x15760, symBinAddr: 0x16330, symSize: 0xA0 }
  - { offset: 0x915E, size: 0x8, addend: 0x0, symName: __RNvXsj_NtNtCslJiobkLta79_5alloc11collections9vec_dequeINtB5_8VecDequeTNtNtCsdGrGZaRBwMb_3syn4item7UseTreeNtNtB1a_5token5CommaEEINtNtCsieiGu2EXtoJ_4core7convert4FromINtNtB9_3vec3VecB15_EE4fromCs9jpTMRK2ijq_11yoke_derive, symObjAddr: 0x15800, symBinAddr: 0x163D0, symSize: 0xA0 }
  - { offset: 0x9311, size: 0x8, addend: 0x0, symName: __RNvXsj_NtNtCslJiobkLta79_5alloc11collections9vec_dequeINtB5_8VecDequeTNtNtCsdGrGZaRBwMb_3syn4path11PathSegmentNtNtB1a_5token7PathSepEEINtNtCsieiGu2EXtoJ_4core7convert4FromINtNtB9_3vec3VecB15_EE4fromCs9jpTMRK2ijq_11yoke_derive, symObjAddr: 0x158A0, symBinAddr: 0x16470, symSize: 0xA0 }
  - { offset: 0x94C4, size: 0x8, addend: 0x0, symName: __RNvXsj_NtNtCslJiobkLta79_5alloc11collections9vec_dequeINtB5_8VecDequeTNtNtCsdGrGZaRBwMb_3syn4path15GenericArgumentNtNtB1a_5token5CommaEEINtNtCsieiGu2EXtoJ_4core7convert4FromINtNtB9_3vec3VecB15_EE4fromCs9jpTMRK2ijq_11yoke_derive, symObjAddr: 0x15940, symBinAddr: 0x16510, symSize: 0xA0 }
  - { offset: 0x9677, size: 0x8, addend: 0x0, symName: __RNvXsj_NtNtCslJiobkLta79_5alloc11collections9vec_dequeINtB5_8VecDequeTNtNtCsdGrGZaRBwMb_3syn8generics12GenericParamNtNtB1a_5token5CommaEEINtNtCsieiGu2EXtoJ_4core7convert4FromINtNtB9_3vec3VecB15_EE4fromCs9jpTMRK2ijq_11yoke_derive, symObjAddr: 0x159E0, symBinAddr: 0x165B0, symSize: 0xA0 }
  - { offset: 0x982A, size: 0x8, addend: 0x0, symName: __RNvXsj_NtNtCslJiobkLta79_5alloc11collections9vec_dequeINtB5_8VecDequeTNtNtCsdGrGZaRBwMb_3syn8generics13CapturedParamNtNtB1a_5token5CommaEEINtNtCsieiGu2EXtoJ_4core7convert4FromINtNtB9_3vec3VecB15_EE4fromCs9jpTMRK2ijq_11yoke_derive, symObjAddr: 0x15A80, symBinAddr: 0x16650, symSize: 0xA0 }
  - { offset: 0x99DD, size: 0x8, addend: 0x0, symName: __RNvXsj_NtNtCslJiobkLta79_5alloc11collections9vec_dequeINtB5_8VecDequeTNtNtCsdGrGZaRBwMb_3syn8generics14TypeParamBoundNtNtB1a_5token4PlusEEINtNtCsieiGu2EXtoJ_4core7convert4FromINtNtB9_3vec3VecB15_EE4fromCs9jpTMRK2ijq_11yoke_derive, symObjAddr: 0x15B20, symBinAddr: 0x166F0, symSize: 0xA0 }
  - { offset: 0x9B90, size: 0x8, addend: 0x0, symName: __RNvXsj_NtNtCslJiobkLta79_5alloc11collections9vec_dequeINtB5_8VecDequeTNtNtCsdGrGZaRBwMb_3syn8generics14WherePredicateNtNtB1a_5token5CommaEEINtNtCsieiGu2EXtoJ_4core7convert4FromINtNtB9_3vec3VecB15_EE4fromCs9jpTMRK2ijq_11yoke_derive, symObjAddr: 0x15BC0, symBinAddr: 0x16790, symSize: 0xA0 }
  - { offset: 0x9D43, size: 0x8, addend: 0x0, symName: __RNvXsj_NtNtCslJiobkLta79_5alloc11collections9vec_dequeINtB5_8VecDequeTNtNtCsdGrGZaRBwMb_3syn8lifetime8LifetimeNtNtB1a_5token4PlusEEINtNtCsieiGu2EXtoJ_4core7convert4FromINtNtB9_3vec3VecB15_EE4fromCs9jpTMRK2ijq_11yoke_derive, symObjAddr: 0x15C60, symBinAddr: 0x16830, symSize: 0xA0 }
  - { offset: 0x17D09, size: 0x8, addend: 0x0, symName: __RINvMs3_NtNtCslJiobkLta79_5alloc11collections9vec_dequeINtB6_8VecDequeTNtNtCsdGrGZaRBwMb_3syn2ty4TypeNtNtB1b_5token5CommaEE12slice_rangesNtNtNtCsieiGu2EXtoJ_4core3ops5range9RangeFullECs9jpTMRK2ijq_11yoke_derive, symObjAddr: 0x0, symBinAddr: 0xBD0, symSize: 0x260 }
  - { offset: 0x18156, size: 0x8, addend: 0x0, symName: __RINvMs3_NtNtCslJiobkLta79_5alloc11collections9vec_dequeINtB6_8VecDequeTNtNtCsdGrGZaRBwMb_3syn2ty9BareFnArgNtNtB1b_5token5CommaEE12slice_rangesNtNtNtCsieiGu2EXtoJ_4core3ops5range9RangeFullECs9jpTMRK2ijq_11yoke_derive, symObjAddr: 0x260, symBinAddr: 0xE30, symSize: 0x260 }
  - { offset: 0x185A3, size: 0x8, addend: 0x0, symName: __RINvMs3_NtNtCslJiobkLta79_5alloc11collections9vec_dequeINtB6_8VecDequeTNtNtCsdGrGZaRBwMb_3syn3pat3PatNtNtB1b_5token2OrEE12slice_rangesNtNtNtCsieiGu2EXtoJ_4core3ops5range9RangeFullECs9jpTMRK2ijq_11yoke_derive, symObjAddr: 0x4C0, symBinAddr: 0x1090, symSize: 0x260 }
  - { offset: 0x189F0, size: 0x8, addend: 0x0, symName: __RINvMs3_NtNtCslJiobkLta79_5alloc11collections9vec_dequeINtB6_8VecDequeTNtNtCsdGrGZaRBwMb_3syn3pat3PatNtNtB1b_5token5CommaEE12slice_rangesNtNtNtCsieiGu2EXtoJ_4core3ops5range9RangeFullECs9jpTMRK2ijq_11yoke_derive, symObjAddr: 0x720, symBinAddr: 0x12F0, symSize: 0x260 }
  - { offset: 0x18E3D, size: 0x8, addend: 0x0, symName: __RINvMs3_NtNtCslJiobkLta79_5alloc11collections9vec_dequeINtB6_8VecDequeTNtNtCsdGrGZaRBwMb_3syn3pat8FieldPatNtNtB1b_5token5CommaEE12slice_rangesNtNtNtCsieiGu2EXtoJ_4core3ops5range9RangeFullECs9jpTMRK2ijq_11yoke_derive, symObjAddr: 0x980, symBinAddr: 0x1550, symSize: 0x260 }
  - { offset: 0x1928A, size: 0x8, addend: 0x0, symName: __RINvMs3_NtNtCslJiobkLta79_5alloc11collections9vec_dequeINtB6_8VecDequeTNtNtCsdGrGZaRBwMb_3syn4data5FieldNtNtB1b_5token5CommaEE12slice_rangesNtNtNtCsieiGu2EXtoJ_4core3ops5range9RangeFullECs9jpTMRK2ijq_11yoke_derive, symObjAddr: 0xBE0, symBinAddr: 0x17B0, symSize: 0x260 }
  - { offset: 0x196D7, size: 0x8, addend: 0x0, symName: __RINvMs3_NtNtCslJiobkLta79_5alloc11collections9vec_dequeINtB6_8VecDequeTNtNtCsdGrGZaRBwMb_3syn4data7VariantNtNtB1b_5token5CommaEE12slice_rangesNtNtNtCsieiGu2EXtoJ_4core3ops5range9RangeFullECs9jpTMRK2ijq_11yoke_derive, symObjAddr: 0xE40, symBinAddr: 0x1A10, symSize: 0x260 }
  - { offset: 0x19B24, size: 0x8, addend: 0x0, symName: __RINvMs3_NtNtCslJiobkLta79_5alloc11collections9vec_dequeINtB6_8VecDequeTNtNtCsdGrGZaRBwMb_3syn4expr10FieldValueNtNtB1b_5token5CommaEE12slice_rangesNtNtNtCsieiGu2EXtoJ_4core3ops5range9RangeFullECs9jpTMRK2ijq_11yoke_derive, symObjAddr: 0x10A0, symBinAddr: 0x1C70, symSize: 0x260 }
  - { offset: 0x19F71, size: 0x8, addend: 0x0, symName: __RINvMs3_NtNtCslJiobkLta79_5alloc11collections9vec_dequeINtB6_8VecDequeTNtNtCsdGrGZaRBwMb_3syn4expr4ExprNtNtB1b_5token5CommaEE12slice_rangesNtNtNtCsieiGu2EXtoJ_4core3ops5range9RangeFullECs9jpTMRK2ijq_11yoke_derive, symObjAddr: 0x1300, symBinAddr: 0x1ED0, symSize: 0x260 }
  - { offset: 0x1A3BE, size: 0x8, addend: 0x0, symName: __RINvMs3_NtNtCslJiobkLta79_5alloc11collections9vec_dequeINtB6_8VecDequeTNtNtCsdGrGZaRBwMb_3syn4item5FnArgNtNtB1b_5token5CommaEE12slice_rangesNtNtNtCsieiGu2EXtoJ_4core3ops5range9RangeFullECs9jpTMRK2ijq_11yoke_derive, symObjAddr: 0x1560, symBinAddr: 0x2130, symSize: 0x260 }
  - { offset: 0x1A80B, size: 0x8, addend: 0x0, symName: __RINvMs3_NtNtCslJiobkLta79_5alloc11collections9vec_dequeINtB6_8VecDequeTNtNtCsdGrGZaRBwMb_3syn4item7UseTreeNtNtB1b_5token5CommaEE12slice_rangesNtNtNtCsieiGu2EXtoJ_4core3ops5range9RangeFullECs9jpTMRK2ijq_11yoke_derive, symObjAddr: 0x17C0, symBinAddr: 0x2390, symSize: 0x260 }
  - { offset: 0x1AC58, size: 0x8, addend: 0x0, symName: __RINvMs3_NtNtCslJiobkLta79_5alloc11collections9vec_dequeINtB6_8VecDequeTNtNtCsdGrGZaRBwMb_3syn4path11PathSegmentNtNtB1b_5token7PathSepEE12slice_rangesNtNtNtCsieiGu2EXtoJ_4core3ops5range9RangeFullECs9jpTMRK2ijq_11yoke_derive, symObjAddr: 0x1A20, symBinAddr: 0x25F0, symSize: 0x260 }
  - { offset: 0x1B0A5, size: 0x8, addend: 0x0, symName: __RINvMs3_NtNtCslJiobkLta79_5alloc11collections9vec_dequeINtB6_8VecDequeTNtNtCsdGrGZaRBwMb_3syn4path15GenericArgumentNtNtB1b_5token5CommaEE12slice_rangesNtNtNtCsieiGu2EXtoJ_4core3ops5range9RangeFullECs9jpTMRK2ijq_11yoke_derive, symObjAddr: 0x1C80, symBinAddr: 0x2850, symSize: 0x260 }
  - { offset: 0x1B4F2, size: 0x8, addend: 0x0, symName: __RINvMs3_NtNtCslJiobkLta79_5alloc11collections9vec_dequeINtB6_8VecDequeTNtNtCsdGrGZaRBwMb_3syn8generics12GenericParamNtNtB1b_5token5CommaEE12slice_rangesNtNtNtCsieiGu2EXtoJ_4core3ops5range9RangeFullECs9jpTMRK2ijq_11yoke_derive, symObjAddr: 0x1EE0, symBinAddr: 0x2AB0, symSize: 0x260 }
  - { offset: 0x1B93F, size: 0x8, addend: 0x0, symName: __RINvMs3_NtNtCslJiobkLta79_5alloc11collections9vec_dequeINtB6_8VecDequeTNtNtCsdGrGZaRBwMb_3syn8generics13CapturedParamNtNtB1b_5token5CommaEE12slice_rangesNtNtNtCsieiGu2EXtoJ_4core3ops5range9RangeFullECs9jpTMRK2ijq_11yoke_derive, symObjAddr: 0x2140, symBinAddr: 0x2D10, symSize: 0x260 }
  - { offset: 0x1BD8C, size: 0x8, addend: 0x0, symName: __RINvMs3_NtNtCslJiobkLta79_5alloc11collections9vec_dequeINtB6_8VecDequeTNtNtCsdGrGZaRBwMb_3syn8generics14TypeParamBoundNtNtB1b_5token4PlusEE12slice_rangesNtNtNtCsieiGu2EXtoJ_4core3ops5range9RangeFullECs9jpTMRK2ijq_11yoke_derive, symObjAddr: 0x23A0, symBinAddr: 0x2F70, symSize: 0x260 }
  - { offset: 0x1C1D9, size: 0x8, addend: 0x0, symName: __RINvMs3_NtNtCslJiobkLta79_5alloc11collections9vec_dequeINtB6_8VecDequeTNtNtCsdGrGZaRBwMb_3syn8generics14WherePredicateNtNtB1b_5token5CommaEE12slice_rangesNtNtNtCsieiGu2EXtoJ_4core3ops5range9RangeFullECs9jpTMRK2ijq_11yoke_derive, symObjAddr: 0x2600, symBinAddr: 0x31D0, symSize: 0x260 }
  - { offset: 0x1C626, size: 0x8, addend: 0x0, symName: __RINvMs3_NtNtCslJiobkLta79_5alloc11collections9vec_dequeINtB6_8VecDequeTNtNtCsdGrGZaRBwMb_3syn8lifetime8LifetimeNtNtB1b_5token4PlusEE12slice_rangesNtNtNtCsieiGu2EXtoJ_4core3ops5range9RangeFullECs9jpTMRK2ijq_11yoke_derive, symObjAddr: 0x2860, symBinAddr: 0x3430, symSize: 0x260 }
  - { offset: 0x1CD5E, size: 0x8, addend: 0x0, symName: __RNvMs1_NtNtCslJiobkLta79_5alloc11collections9vec_dequeINtB5_8VecDequeTNtNtCsdGrGZaRBwMb_3syn2ty4TypeNtNtB1a_5token5CommaEE24handle_capacity_increaseCs9jpTMRK2ijq_11yoke_derive, symObjAddr: 0x2AC0, symBinAddr: 0x3690, symSize: 0x290 }
  - { offset: 0x1D494, size: 0x8, addend: 0x0, symName: __RNvMs1_NtNtCslJiobkLta79_5alloc11collections9vec_dequeINtB5_8VecDequeTNtNtCsdGrGZaRBwMb_3syn2ty9BareFnArgNtNtB1a_5token5CommaEE24handle_capacity_increaseCs9jpTMRK2ijq_11yoke_derive, symObjAddr: 0x2D50, symBinAddr: 0x3920, symSize: 0x290 }
  - { offset: 0x1DBCA, size: 0x8, addend: 0x0, symName: __RNvMs1_NtNtCslJiobkLta79_5alloc11collections9vec_dequeINtB5_8VecDequeTNtNtCsdGrGZaRBwMb_3syn3pat3PatNtNtB1a_5token2OrEE24handle_capacity_increaseCs9jpTMRK2ijq_11yoke_derive, symObjAddr: 0x2FE0, symBinAddr: 0x3BB0, symSize: 0x290 }
  - { offset: 0x1E300, size: 0x8, addend: 0x0, symName: __RNvMs1_NtNtCslJiobkLta79_5alloc11collections9vec_dequeINtB5_8VecDequeTNtNtCsdGrGZaRBwMb_3syn3pat3PatNtNtB1a_5token5CommaEE24handle_capacity_increaseCs9jpTMRK2ijq_11yoke_derive, symObjAddr: 0x3270, symBinAddr: 0x3E40, symSize: 0x290 }
  - { offset: 0x1EA36, size: 0x8, addend: 0x0, symName: __RNvMs1_NtNtCslJiobkLta79_5alloc11collections9vec_dequeINtB5_8VecDequeTNtNtCsdGrGZaRBwMb_3syn3pat8FieldPatNtNtB1a_5token5CommaEE24handle_capacity_increaseCs9jpTMRK2ijq_11yoke_derive, symObjAddr: 0x3500, symBinAddr: 0x40D0, symSize: 0x280 }
  - { offset: 0x1F16C, size: 0x8, addend: 0x0, symName: __RNvMs1_NtNtCslJiobkLta79_5alloc11collections9vec_dequeINtB5_8VecDequeTNtNtCsdGrGZaRBwMb_3syn4data5FieldNtNtB1a_5token5CommaEE24handle_capacity_increaseCs9jpTMRK2ijq_11yoke_derive, symObjAddr: 0x3780, symBinAddr: 0x4350, symSize: 0x290 }
  - { offset: 0x1F8A2, size: 0x8, addend: 0x0, symName: __RNvMs1_NtNtCslJiobkLta79_5alloc11collections9vec_dequeINtB5_8VecDequeTNtNtCsdGrGZaRBwMb_3syn4data7VariantNtNtB1a_5token5CommaEE24handle_capacity_increaseCs9jpTMRK2ijq_11yoke_derive, symObjAddr: 0x3A10, symBinAddr: 0x45E0, symSize: 0x290 }
  - { offset: 0x1FFD8, size: 0x8, addend: 0x0, symName: __RNvMs1_NtNtCslJiobkLta79_5alloc11collections9vec_dequeINtB5_8VecDequeTNtNtCsdGrGZaRBwMb_3syn4expr10FieldValueNtNtB1a_5token5CommaEE24handle_capacity_increaseCs9jpTMRK2ijq_11yoke_derive, symObjAddr: 0x3CA0, symBinAddr: 0x4870, symSize: 0x290 }
  - { offset: 0x2070E, size: 0x8, addend: 0x0, symName: __RNvMs1_NtNtCslJiobkLta79_5alloc11collections9vec_dequeINtB5_8VecDequeTNtNtCsdGrGZaRBwMb_3syn4expr4ExprNtNtB1a_5token5CommaEE24handle_capacity_increaseCs9jpTMRK2ijq_11yoke_derive, symObjAddr: 0x3F30, symBinAddr: 0x4B00, symSize: 0x290 }
  - { offset: 0x20E44, size: 0x8, addend: 0x0, symName: __RNvMs1_NtNtCslJiobkLta79_5alloc11collections9vec_dequeINtB5_8VecDequeTNtNtCsdGrGZaRBwMb_3syn4item5FnArgNtNtB1a_5token5CommaEE24handle_capacity_increaseCs9jpTMRK2ijq_11yoke_derive, symObjAddr: 0x41C0, symBinAddr: 0x4D90, symSize: 0x280 }
  - { offset: 0x2157A, size: 0x8, addend: 0x0, symName: __RNvMs1_NtNtCslJiobkLta79_5alloc11collections9vec_dequeINtB5_8VecDequeTNtNtCsdGrGZaRBwMb_3syn4item7UseTreeNtNtB1a_5token5CommaEE24handle_capacity_increaseCs9jpTMRK2ijq_11yoke_derive, symObjAddr: 0x4440, symBinAddr: 0x5010, symSize: 0x280 }
  - { offset: 0x21CB0, size: 0x8, addend: 0x0, symName: __RNvMs1_NtNtCslJiobkLta79_5alloc11collections9vec_dequeINtB5_8VecDequeTNtNtCsdGrGZaRBwMb_3syn4path11PathSegmentNtNtB1a_5token7PathSepEE24handle_capacity_increaseCs9jpTMRK2ijq_11yoke_derive, symObjAddr: 0x46C0, symBinAddr: 0x5290, symSize: 0x280 }
  - { offset: 0x223E6, size: 0x8, addend: 0x0, symName: __RNvMs1_NtNtCslJiobkLta79_5alloc11collections9vec_dequeINtB5_8VecDequeTNtNtCsdGrGZaRBwMb_3syn4path15GenericArgumentNtNtB1a_5token5CommaEE24handle_capacity_increaseCs9jpTMRK2ijq_11yoke_derive, symObjAddr: 0x4940, symBinAddr: 0x5510, symSize: 0x290 }
  - { offset: 0x22B1C, size: 0x8, addend: 0x0, symName: __RNvMs1_NtNtCslJiobkLta79_5alloc11collections9vec_dequeINtB5_8VecDequeTNtNtCsdGrGZaRBwMb_3syn8generics12GenericParamNtNtB1a_5token5CommaEE24handle_capacity_increaseCs9jpTMRK2ijq_11yoke_derive, symObjAddr: 0x4BD0, symBinAddr: 0x57A0, symSize: 0x290 }
  - { offset: 0x23252, size: 0x8, addend: 0x0, symName: __RNvMs1_NtNtCslJiobkLta79_5alloc11collections9vec_dequeINtB5_8VecDequeTNtNtCsdGrGZaRBwMb_3syn8generics13CapturedParamNtNtB1a_5token5CommaEE24handle_capacity_increaseCs9jpTMRK2ijq_11yoke_derive, symObjAddr: 0x4E60, symBinAddr: 0x5A30, symSize: 0x280 }
  - { offset: 0x23988, size: 0x8, addend: 0x0, symName: __RNvMs1_NtNtCslJiobkLta79_5alloc11collections9vec_dequeINtB5_8VecDequeTNtNtCsdGrGZaRBwMb_3syn8generics14TypeParamBoundNtNtB1a_5token4PlusEE24handle_capacity_increaseCs9jpTMRK2ijq_11yoke_derive, symObjAddr: 0x50E0, symBinAddr: 0x5CB0, symSize: 0x280 }
  - { offset: 0x240BE, size: 0x8, addend: 0x0, symName: __RNvMs1_NtNtCslJiobkLta79_5alloc11collections9vec_dequeINtB5_8VecDequeTNtNtCsdGrGZaRBwMb_3syn8generics14WherePredicateNtNtB1a_5token5CommaEE24handle_capacity_increaseCs9jpTMRK2ijq_11yoke_derive, symObjAddr: 0x5360, symBinAddr: 0x5F30, symSize: 0x290 }
  - { offset: 0x247F4, size: 0x8, addend: 0x0, symName: __RNvMs1_NtNtCslJiobkLta79_5alloc11collections9vec_dequeINtB5_8VecDequeTNtNtCsdGrGZaRBwMb_3syn8lifetime8LifetimeNtNtB1a_5token4PlusEE24handle_capacity_increaseCs9jpTMRK2ijq_11yoke_derive, symObjAddr: 0x55F0, symBinAddr: 0x61C0, symSize: 0x280 }
  - { offset: 0x24EC5, size: 0x8, addend: 0x0, symName: __RNvMs3_NtNtCslJiobkLta79_5alloc11collections9vec_dequeINtB5_8VecDequeTNtNtCsdGrGZaRBwMb_3syn2ty4TypeNtNtB1a_5token5CommaEE13push_back_mutCs9jpTMRK2ijq_11yoke_derive, symObjAddr: 0x5870, symBinAddr: 0x6440, symSize: 0x1A0 }
  - { offset: 0x25584, size: 0x8, addend: 0x0, symName: __RNvMs3_NtNtCslJiobkLta79_5alloc11collections9vec_dequeINtB5_8VecDequeTNtNtCsdGrGZaRBwMb_3syn2ty4TypeNtNtB1a_5token5CommaEE15make_contiguousCs9jpTMRK2ijq_11yoke_derive, symObjAddr: 0x5A10, symBinAddr: 0x65E0, symSize: 0x8F0 }
  - { offset: 0x26608, size: 0x8, addend: 0x0, symName: __RNvMs3_NtNtCslJiobkLta79_5alloc11collections9vec_dequeINtB5_8VecDequeTNtNtCsdGrGZaRBwMb_3syn2ty4TypeNtNtB1a_5token5CommaEE3lenCs9jpTMRK2ijq_11yoke_derive, symObjAddr: 0x6300, symBinAddr: 0x6ED0, symSize: 0x10 }
  - { offset: 0x266C1, size: 0x8, addend: 0x0, symName: __RNvMs3_NtNtCslJiobkLta79_5alloc11collections9vec_dequeINtB5_8VecDequeTNtNtCsdGrGZaRBwMb_3syn2ty4TypeNtNtB1a_5token5CommaEE4growCs9jpTMRK2ijq_11yoke_derive, symObjAddr: 0x6310, symBinAddr: 0x6EE0, symSize: 0x60 }
  - { offset: 0x268CB, size: 0x8, addend: 0x0, symName: __RNvMs3_NtNtCslJiobkLta79_5alloc11collections9vec_dequeINtB5_8VecDequeTNtNtCsdGrGZaRBwMb_3syn2ty4TypeNtNtB1a_5token5CommaEE9pop_frontCs9jpTMRK2ijq_11yoke_derive, symObjAddr: 0x6370, symBinAddr: 0x6F40, symSize: 0x1D0 }
  - { offset: 0x26B3C, size: 0x8, addend: 0x0, symName: __RNvMs3_NtNtCslJiobkLta79_5alloc11collections9vec_dequeINtB5_8VecDequeTNtNtCsdGrGZaRBwMb_3syn2ty4TypeNtNtB1a_5token5CommaEE9push_backCs9jpTMRK2ijq_11yoke_derive, symObjAddr: 0x6540, symBinAddr: 0x7110, symSize: 0x20 }
  - { offset: 0x26D48, size: 0x8, addend: 0x0, symName: __RNvMs3_NtNtCslJiobkLta79_5alloc11collections9vec_dequeINtB5_8VecDequeTNtNtCsdGrGZaRBwMb_3syn2ty9BareFnArgNtNtB1a_5token5CommaEE13push_back_mutCs9jpTMRK2ijq_11yoke_derive, symObjAddr: 0x6560, symBinAddr: 0x7130, symSize: 0x1A0 }
  - { offset: 0x27407, size: 0x8, addend: 0x0, symName: __RNvMs3_NtNtCslJiobkLta79_5alloc11collections9vec_dequeINtB5_8VecDequeTNtNtCsdGrGZaRBwMb_3syn2ty9BareFnArgNtNtB1a_5token5CommaEE15make_contiguousCs9jpTMRK2ijq_11yoke_derive, symObjAddr: 0x6700, symBinAddr: 0x72D0, symSize: 0x8F0 }
  - { offset: 0x2848B, size: 0x8, addend: 0x0, symName: __RNvMs3_NtNtCslJiobkLta79_5alloc11collections9vec_dequeINtB5_8VecDequeTNtNtCsdGrGZaRBwMb_3syn2ty9BareFnArgNtNtB1a_5token5CommaEE3lenCs9jpTMRK2ijq_11yoke_derive, symObjAddr: 0x6FF0, symBinAddr: 0x7BC0, symSize: 0x10 }
  - { offset: 0x28544, size: 0x8, addend: 0x0, symName: __RNvMs3_NtNtCslJiobkLta79_5alloc11collections9vec_dequeINtB5_8VecDequeTNtNtCsdGrGZaRBwMb_3syn2ty9BareFnArgNtNtB1a_5token5CommaEE4growCs9jpTMRK2ijq_11yoke_derive, symObjAddr: 0x7000, symBinAddr: 0x7BD0, symSize: 0x60 }
  - { offset: 0x2874E, size: 0x8, addend: 0x0, symName: __RNvMs3_NtNtCslJiobkLta79_5alloc11collections9vec_dequeINtB5_8VecDequeTNtNtCsdGrGZaRBwMb_3syn2ty9BareFnArgNtNtB1a_5token5CommaEE9pop_frontCs9jpTMRK2ijq_11yoke_derive, symObjAddr: 0x7060, symBinAddr: 0x7C30, symSize: 0x1D0 }
  - { offset: 0x289BF, size: 0x8, addend: 0x0, symName: __RNvMs3_NtNtCslJiobkLta79_5alloc11collections9vec_dequeINtB5_8VecDequeTNtNtCsdGrGZaRBwMb_3syn2ty9BareFnArgNtNtB1a_5token5CommaEE9push_backCs9jpTMRK2ijq_11yoke_derive, symObjAddr: 0x7230, symBinAddr: 0x7E00, symSize: 0x20 }
  - { offset: 0x28BCB, size: 0x8, addend: 0x0, symName: __RNvMs3_NtNtCslJiobkLta79_5alloc11collections9vec_dequeINtB5_8VecDequeTNtNtCsdGrGZaRBwMb_3syn3pat3PatNtNtB1a_5token2OrEE13push_back_mutCs9jpTMRK2ijq_11yoke_derive, symObjAddr: 0x7250, symBinAddr: 0x7E20, symSize: 0x1A0 }
  - { offset: 0x2928A, size: 0x8, addend: 0x0, symName: __RNvMs3_NtNtCslJiobkLta79_5alloc11collections9vec_dequeINtB5_8VecDequeTNtNtCsdGrGZaRBwMb_3syn3pat3PatNtNtB1a_5token2OrEE15make_contiguousCs9jpTMRK2ijq_11yoke_derive, symObjAddr: 0x73F0, symBinAddr: 0x7FC0, symSize: 0x8F0 }
  - { offset: 0x2A30E, size: 0x8, addend: 0x0, symName: __RNvMs3_NtNtCslJiobkLta79_5alloc11collections9vec_dequeINtB5_8VecDequeTNtNtCsdGrGZaRBwMb_3syn3pat3PatNtNtB1a_5token2OrEE3lenCs9jpTMRK2ijq_11yoke_derive, symObjAddr: 0x7CE0, symBinAddr: 0x88B0, symSize: 0x10 }
  - { offset: 0x2A3C7, size: 0x8, addend: 0x0, symName: __RNvMs3_NtNtCslJiobkLta79_5alloc11collections9vec_dequeINtB5_8VecDequeTNtNtCsdGrGZaRBwMb_3syn3pat3PatNtNtB1a_5token2OrEE4growCs9jpTMRK2ijq_11yoke_derive, symObjAddr: 0x7CF0, symBinAddr: 0x88C0, symSize: 0x60 }
  - { offset: 0x2A5D1, size: 0x8, addend: 0x0, symName: __RNvMs3_NtNtCslJiobkLta79_5alloc11collections9vec_dequeINtB5_8VecDequeTNtNtCsdGrGZaRBwMb_3syn3pat3PatNtNtB1a_5token2OrEE9pop_frontCs9jpTMRK2ijq_11yoke_derive, symObjAddr: 0x7D50, symBinAddr: 0x8920, symSize: 0x1D0 }
  - { offset: 0x2A842, size: 0x8, addend: 0x0, symName: __RNvMs3_NtNtCslJiobkLta79_5alloc11collections9vec_dequeINtB5_8VecDequeTNtNtCsdGrGZaRBwMb_3syn3pat3PatNtNtB1a_5token2OrEE9push_backCs9jpTMRK2ijq_11yoke_derive, symObjAddr: 0x7F20, symBinAddr: 0x8AF0, symSize: 0x20 }
  - { offset: 0x2AA4E, size: 0x8, addend: 0x0, symName: __RNvMs3_NtNtCslJiobkLta79_5alloc11collections9vec_dequeINtB5_8VecDequeTNtNtCsdGrGZaRBwMb_3syn3pat3PatNtNtB1a_5token5CommaEE13push_back_mutCs9jpTMRK2ijq_11yoke_derive, symObjAddr: 0x7F40, symBinAddr: 0x8B10, symSize: 0x1A0 }
  - { offset: 0x2B10D, size: 0x8, addend: 0x0, symName: __RNvMs3_NtNtCslJiobkLta79_5alloc11collections9vec_dequeINtB5_8VecDequeTNtNtCsdGrGZaRBwMb_3syn3pat3PatNtNtB1a_5token5CommaEE15make_contiguousCs9jpTMRK2ijq_11yoke_derive, symObjAddr: 0x80E0, symBinAddr: 0x8CB0, symSize: 0x8F0 }
  - { offset: 0x2C191, size: 0x8, addend: 0x0, symName: __RNvMs3_NtNtCslJiobkLta79_5alloc11collections9vec_dequeINtB5_8VecDequeTNtNtCsdGrGZaRBwMb_3syn3pat3PatNtNtB1a_5token5CommaEE3lenCs9jpTMRK2ijq_11yoke_derive, symObjAddr: 0x89D0, symBinAddr: 0x95A0, symSize: 0x10 }
  - { offset: 0x2C24A, size: 0x8, addend: 0x0, symName: __RNvMs3_NtNtCslJiobkLta79_5alloc11collections9vec_dequeINtB5_8VecDequeTNtNtCsdGrGZaRBwMb_3syn3pat3PatNtNtB1a_5token5CommaEE4growCs9jpTMRK2ijq_11yoke_derive, symObjAddr: 0x89E0, symBinAddr: 0x95B0, symSize: 0x60 }
  - { offset: 0x2C454, size: 0x8, addend: 0x0, symName: __RNvMs3_NtNtCslJiobkLta79_5alloc11collections9vec_dequeINtB5_8VecDequeTNtNtCsdGrGZaRBwMb_3syn3pat3PatNtNtB1a_5token5CommaEE9pop_frontCs9jpTMRK2ijq_11yoke_derive, symObjAddr: 0x8A40, symBinAddr: 0x9610, symSize: 0x1D0 }
  - { offset: 0x2C6C5, size: 0x8, addend: 0x0, symName: __RNvMs3_NtNtCslJiobkLta79_5alloc11collections9vec_dequeINtB5_8VecDequeTNtNtCsdGrGZaRBwMb_3syn3pat3PatNtNtB1a_5token5CommaEE9push_backCs9jpTMRK2ijq_11yoke_derive, symObjAddr: 0x8C10, symBinAddr: 0x97E0, symSize: 0x20 }
  - { offset: 0x2C8D1, size: 0x8, addend: 0x0, symName: __RNvMs3_NtNtCslJiobkLta79_5alloc11collections9vec_dequeINtB5_8VecDequeTNtNtCsdGrGZaRBwMb_3syn3pat8FieldPatNtNtB1a_5token5CommaEE13push_back_mutCs9jpTMRK2ijq_11yoke_derive, symObjAddr: 0x8C30, symBinAddr: 0x9800, symSize: 0x190 }
  - { offset: 0x2CF90, size: 0x8, addend: 0x0, symName: __RNvMs3_NtNtCslJiobkLta79_5alloc11collections9vec_dequeINtB5_8VecDequeTNtNtCsdGrGZaRBwMb_3syn3pat8FieldPatNtNtB1a_5token5CommaEE15make_contiguousCs9jpTMRK2ijq_11yoke_derive, symObjAddr: 0x8DC0, symBinAddr: 0x9990, symSize: 0x8B0 }
  - { offset: 0x2E014, size: 0x8, addend: 0x0, symName: __RNvMs3_NtNtCslJiobkLta79_5alloc11collections9vec_dequeINtB5_8VecDequeTNtNtCsdGrGZaRBwMb_3syn3pat8FieldPatNtNtB1a_5token5CommaEE3lenCs9jpTMRK2ijq_11yoke_derive, symObjAddr: 0x9670, symBinAddr: 0xA240, symSize: 0x10 }
  - { offset: 0x2E0CD, size: 0x8, addend: 0x0, symName: __RNvMs3_NtNtCslJiobkLta79_5alloc11collections9vec_dequeINtB5_8VecDequeTNtNtCsdGrGZaRBwMb_3syn3pat8FieldPatNtNtB1a_5token5CommaEE4growCs9jpTMRK2ijq_11yoke_derive, symObjAddr: 0x9680, symBinAddr: 0xA250, symSize: 0x60 }
  - { offset: 0x2E2D7, size: 0x8, addend: 0x0, symName: __RNvMs3_NtNtCslJiobkLta79_5alloc11collections9vec_dequeINtB5_8VecDequeTNtNtCsdGrGZaRBwMb_3syn3pat8FieldPatNtNtB1a_5token5CommaEE9pop_frontCs9jpTMRK2ijq_11yoke_derive, symObjAddr: 0x96E0, symBinAddr: 0xA2B0, symSize: 0x1D0 }
  - { offset: 0x2E548, size: 0x8, addend: 0x0, symName: __RNvMs3_NtNtCslJiobkLta79_5alloc11collections9vec_dequeINtB5_8VecDequeTNtNtCsdGrGZaRBwMb_3syn3pat8FieldPatNtNtB1a_5token5CommaEE9push_backCs9jpTMRK2ijq_11yoke_derive, symObjAddr: 0x98B0, symBinAddr: 0xA480, symSize: 0x20 }
  - { offset: 0x2E754, size: 0x8, addend: 0x0, symName: __RNvMs3_NtNtCslJiobkLta79_5alloc11collections9vec_dequeINtB5_8VecDequeTNtNtCsdGrGZaRBwMb_3syn4data5FieldNtNtB1a_5token5CommaEE13push_back_mutCs9jpTMRK2ijq_11yoke_derive, symObjAddr: 0x98D0, symBinAddr: 0xA4A0, symSize: 0x1A0 }
  - { offset: 0x2EE13, size: 0x8, addend: 0x0, symName: __RNvMs3_NtNtCslJiobkLta79_5alloc11collections9vec_dequeINtB5_8VecDequeTNtNtCsdGrGZaRBwMb_3syn4data5FieldNtNtB1a_5token5CommaEE15make_contiguousCs9jpTMRK2ijq_11yoke_derive, symObjAddr: 0x9A70, symBinAddr: 0xA640, symSize: 0x8F0 }
  - { offset: 0x2FE97, size: 0x8, addend: 0x0, symName: __RNvMs3_NtNtCslJiobkLta79_5alloc11collections9vec_dequeINtB5_8VecDequeTNtNtCsdGrGZaRBwMb_3syn4data5FieldNtNtB1a_5token5CommaEE3lenCs9jpTMRK2ijq_11yoke_derive, symObjAddr: 0xA360, symBinAddr: 0xAF30, symSize: 0x10 }
  - { offset: 0x2FF50, size: 0x8, addend: 0x0, symName: __RNvMs3_NtNtCslJiobkLta79_5alloc11collections9vec_dequeINtB5_8VecDequeTNtNtCsdGrGZaRBwMb_3syn4data5FieldNtNtB1a_5token5CommaEE4growCs9jpTMRK2ijq_11yoke_derive, symObjAddr: 0xA370, symBinAddr: 0xAF40, symSize: 0x60 }
  - { offset: 0x3015A, size: 0x8, addend: 0x0, symName: __RNvMs3_NtNtCslJiobkLta79_5alloc11collections9vec_dequeINtB5_8VecDequeTNtNtCsdGrGZaRBwMb_3syn4data5FieldNtNtB1a_5token5CommaEE9pop_frontCs9jpTMRK2ijq_11yoke_derive, symObjAddr: 0xA3D0, symBinAddr: 0xAFA0, symSize: 0x1D0 }
  - { offset: 0x303CB, size: 0x8, addend: 0x0, symName: __RNvMs3_NtNtCslJiobkLta79_5alloc11collections9vec_dequeINtB5_8VecDequeTNtNtCsdGrGZaRBwMb_3syn4data5FieldNtNtB1a_5token5CommaEE9push_backCs9jpTMRK2ijq_11yoke_derive, symObjAddr: 0xA5A0, symBinAddr: 0xB170, symSize: 0x20 }
  - { offset: 0x305D7, size: 0x8, addend: 0x0, symName: __RNvMs3_NtNtCslJiobkLta79_5alloc11collections9vec_dequeINtB5_8VecDequeTNtNtCsdGrGZaRBwMb_3syn4data7VariantNtNtB1a_5token5CommaEE13push_back_mutCs9jpTMRK2ijq_11yoke_derive, symObjAddr: 0xA5C0, symBinAddr: 0xB190, symSize: 0x1A0 }
  - { offset: 0x30C96, size: 0x8, addend: 0x0, symName: __RNvMs3_NtNtCslJiobkLta79_5alloc11collections9vec_dequeINtB5_8VecDequeTNtNtCsdGrGZaRBwMb_3syn4data7VariantNtNtB1a_5token5CommaEE15make_contiguousCs9jpTMRK2ijq_11yoke_derive, symObjAddr: 0xA760, symBinAddr: 0xB330, symSize: 0x8F0 }
  - { offset: 0x31D1A, size: 0x8, addend: 0x0, symName: __RNvMs3_NtNtCslJiobkLta79_5alloc11collections9vec_dequeINtB5_8VecDequeTNtNtCsdGrGZaRBwMb_3syn4data7VariantNtNtB1a_5token5CommaEE3lenCs9jpTMRK2ijq_11yoke_derive, symObjAddr: 0xB050, symBinAddr: 0xBC20, symSize: 0x10 }
  - { offset: 0x31DD3, size: 0x8, addend: 0x0, symName: __RNvMs3_NtNtCslJiobkLta79_5alloc11collections9vec_dequeINtB5_8VecDequeTNtNtCsdGrGZaRBwMb_3syn4data7VariantNtNtB1a_5token5CommaEE4growCs9jpTMRK2ijq_11yoke_derive, symObjAddr: 0xB060, symBinAddr: 0xBC30, symSize: 0x60 }
  - { offset: 0x31FDD, size: 0x8, addend: 0x0, symName: __RNvMs3_NtNtCslJiobkLta79_5alloc11collections9vec_dequeINtB5_8VecDequeTNtNtCsdGrGZaRBwMb_3syn4data7VariantNtNtB1a_5token5CommaEE9pop_frontCs9jpTMRK2ijq_11yoke_derive, symObjAddr: 0xB0C0, symBinAddr: 0xBC90, symSize: 0x1D0 }
  - { offset: 0x3224E, size: 0x8, addend: 0x0, symName: __RNvMs3_NtNtCslJiobkLta79_5alloc11collections9vec_dequeINtB5_8VecDequeTNtNtCsdGrGZaRBwMb_3syn4data7VariantNtNtB1a_5token5CommaEE9push_backCs9jpTMRK2ijq_11yoke_derive, symObjAddr: 0xB290, symBinAddr: 0xBE60, symSize: 0x20 }
  - { offset: 0x3245A, size: 0x8, addend: 0x0, symName: __RNvMs3_NtNtCslJiobkLta79_5alloc11collections9vec_dequeINtB5_8VecDequeTNtNtCsdGrGZaRBwMb_3syn4expr10FieldValueNtNtB1a_5token5CommaEE13push_back_mutCs9jpTMRK2ijq_11yoke_derive, symObjAddr: 0xB2B0, symBinAddr: 0xBE80, symSize: 0x1A0 }
  - { offset: 0x32B19, size: 0x8, addend: 0x0, symName: __RNvMs3_NtNtCslJiobkLta79_5alloc11collections9vec_dequeINtB5_8VecDequeTNtNtCsdGrGZaRBwMb_3syn4expr10FieldValueNtNtB1a_5token5CommaEE15make_contiguousCs9jpTMRK2ijq_11yoke_derive, symObjAddr: 0xB450, symBinAddr: 0xC020, symSize: 0x8F0 }
  - { offset: 0x33B9D, size: 0x8, addend: 0x0, symName: __RNvMs3_NtNtCslJiobkLta79_5alloc11collections9vec_dequeINtB5_8VecDequeTNtNtCsdGrGZaRBwMb_3syn4expr10FieldValueNtNtB1a_5token5CommaEE3lenCs9jpTMRK2ijq_11yoke_derive, symObjAddr: 0xBD40, symBinAddr: 0xC910, symSize: 0x10 }
  - { offset: 0x33C56, size: 0x8, addend: 0x0, symName: __RNvMs3_NtNtCslJiobkLta79_5alloc11collections9vec_dequeINtB5_8VecDequeTNtNtCsdGrGZaRBwMb_3syn4expr10FieldValueNtNtB1a_5token5CommaEE4growCs9jpTMRK2ijq_11yoke_derive, symObjAddr: 0xBD50, symBinAddr: 0xC920, symSize: 0x60 }
  - { offset: 0x33E60, size: 0x8, addend: 0x0, symName: __RNvMs3_NtNtCslJiobkLta79_5alloc11collections9vec_dequeINtB5_8VecDequeTNtNtCsdGrGZaRBwMb_3syn4expr10FieldValueNtNtB1a_5token5CommaEE9pop_frontCs9jpTMRK2ijq_11yoke_derive, symObjAddr: 0xBDB0, symBinAddr: 0xC980, symSize: 0x1D0 }
  - { offset: 0x340D1, size: 0x8, addend: 0x0, symName: __RNvMs3_NtNtCslJiobkLta79_5alloc11collections9vec_dequeINtB5_8VecDequeTNtNtCsdGrGZaRBwMb_3syn4expr10FieldValueNtNtB1a_5token5CommaEE9push_backCs9jpTMRK2ijq_11yoke_derive, symObjAddr: 0xBF80, symBinAddr: 0xCB50, symSize: 0x20 }
  - { offset: 0x342DD, size: 0x8, addend: 0x0, symName: __RNvMs3_NtNtCslJiobkLta79_5alloc11collections9vec_dequeINtB5_8VecDequeTNtNtCsdGrGZaRBwMb_3syn4expr4ExprNtNtB1a_5token5CommaEE13push_back_mutCs9jpTMRK2ijq_11yoke_derive, symObjAddr: 0xBFA0, symBinAddr: 0xCB70, symSize: 0x1A0 }
  - { offset: 0x3499C, size: 0x8, addend: 0x0, symName: __RNvMs3_NtNtCslJiobkLta79_5alloc11collections9vec_dequeINtB5_8VecDequeTNtNtCsdGrGZaRBwMb_3syn4expr4ExprNtNtB1a_5token5CommaEE15make_contiguousCs9jpTMRK2ijq_11yoke_derive, symObjAddr: 0xC140, symBinAddr: 0xCD10, symSize: 0x8F0 }
  - { offset: 0x35A20, size: 0x8, addend: 0x0, symName: __RNvMs3_NtNtCslJiobkLta79_5alloc11collections9vec_dequeINtB5_8VecDequeTNtNtCsdGrGZaRBwMb_3syn4expr4ExprNtNtB1a_5token5CommaEE3lenCs9jpTMRK2ijq_11yoke_derive, symObjAddr: 0xCA30, symBinAddr: 0xD600, symSize: 0x10 }
  - { offset: 0x35AD9, size: 0x8, addend: 0x0, symName: __RNvMs3_NtNtCslJiobkLta79_5alloc11collections9vec_dequeINtB5_8VecDequeTNtNtCsdGrGZaRBwMb_3syn4expr4ExprNtNtB1a_5token5CommaEE4growCs9jpTMRK2ijq_11yoke_derive, symObjAddr: 0xCA40, symBinAddr: 0xD610, symSize: 0x60 }
  - { offset: 0x35CE3, size: 0x8, addend: 0x0, symName: __RNvMs3_NtNtCslJiobkLta79_5alloc11collections9vec_dequeINtB5_8VecDequeTNtNtCsdGrGZaRBwMb_3syn4expr4ExprNtNtB1a_5token5CommaEE9pop_frontCs9jpTMRK2ijq_11yoke_derive, symObjAddr: 0xCAA0, symBinAddr: 0xD670, symSize: 0x1D0 }
  - { offset: 0x35F54, size: 0x8, addend: 0x0, symName: __RNvMs3_NtNtCslJiobkLta79_5alloc11collections9vec_dequeINtB5_8VecDequeTNtNtCsdGrGZaRBwMb_3syn4expr4ExprNtNtB1a_5token5CommaEE9push_backCs9jpTMRK2ijq_11yoke_derive, symObjAddr: 0xCC70, symBinAddr: 0xD840, symSize: 0x20 }
  - { offset: 0x36160, size: 0x8, addend: 0x0, symName: __RNvMs3_NtNtCslJiobkLta79_5alloc11collections9vec_dequeINtB5_8VecDequeTNtNtCsdGrGZaRBwMb_3syn4item5FnArgNtNtB1a_5token5CommaEE13push_back_mutCs9jpTMRK2ijq_11yoke_derive, symObjAddr: 0xCC90, symBinAddr: 0xD860, symSize: 0x190 }
  - { offset: 0x3681F, size: 0x8, addend: 0x0, symName: __RNvMs3_NtNtCslJiobkLta79_5alloc11collections9vec_dequeINtB5_8VecDequeTNtNtCsdGrGZaRBwMb_3syn4item5FnArgNtNtB1a_5token5CommaEE15make_contiguousCs9jpTMRK2ijq_11yoke_derive, symObjAddr: 0xCE20, symBinAddr: 0xD9F0, symSize: 0x8B0 }
  - { offset: 0x378A3, size: 0x8, addend: 0x0, symName: __RNvMs3_NtNtCslJiobkLta79_5alloc11collections9vec_dequeINtB5_8VecDequeTNtNtCsdGrGZaRBwMb_3syn4item5FnArgNtNtB1a_5token5CommaEE3lenCs9jpTMRK2ijq_11yoke_derive, symObjAddr: 0xD6D0, symBinAddr: 0xE2A0, symSize: 0x10 }
  - { offset: 0x3795C, size: 0x8, addend: 0x0, symName: __RNvMs3_NtNtCslJiobkLta79_5alloc11collections9vec_dequeINtB5_8VecDequeTNtNtCsdGrGZaRBwMb_3syn4item5FnArgNtNtB1a_5token5CommaEE4growCs9jpTMRK2ijq_11yoke_derive, symObjAddr: 0xD6E0, symBinAddr: 0xE2B0, symSize: 0x60 }
  - { offset: 0x37B66, size: 0x8, addend: 0x0, symName: __RNvMs3_NtNtCslJiobkLta79_5alloc11collections9vec_dequeINtB5_8VecDequeTNtNtCsdGrGZaRBwMb_3syn4item5FnArgNtNtB1a_5token5CommaEE9pop_frontCs9jpTMRK2ijq_11yoke_derive, symObjAddr: 0xD740, symBinAddr: 0xE310, symSize: 0x1D0 }
  - { offset: 0x37DD7, size: 0x8, addend: 0x0, symName: __RNvMs3_NtNtCslJiobkLta79_5alloc11collections9vec_dequeINtB5_8VecDequeTNtNtCsdGrGZaRBwMb_3syn4item5FnArgNtNtB1a_5token5CommaEE9push_backCs9jpTMRK2ijq_11yoke_derive, symObjAddr: 0xD910, symBinAddr: 0xE4E0, symSize: 0x20 }
  - { offset: 0x37FE3, size: 0x8, addend: 0x0, symName: __RNvMs3_NtNtCslJiobkLta79_5alloc11collections9vec_dequeINtB5_8VecDequeTNtNtCsdGrGZaRBwMb_3syn4item7UseTreeNtNtB1a_5token5CommaEE13push_back_mutCs9jpTMRK2ijq_11yoke_derive, symObjAddr: 0xD930, symBinAddr: 0xE500, symSize: 0x190 }
  - { offset: 0x386A2, size: 0x8, addend: 0x0, symName: __RNvMs3_NtNtCslJiobkLta79_5alloc11collections9vec_dequeINtB5_8VecDequeTNtNtCsdGrGZaRBwMb_3syn4item7UseTreeNtNtB1a_5token5CommaEE15make_contiguousCs9jpTMRK2ijq_11yoke_derive, symObjAddr: 0xDAC0, symBinAddr: 0xE690, symSize: 0x8B0 }
  - { offset: 0x39726, size: 0x8, addend: 0x0, symName: __RNvMs3_NtNtCslJiobkLta79_5alloc11collections9vec_dequeINtB5_8VecDequeTNtNtCsdGrGZaRBwMb_3syn4item7UseTreeNtNtB1a_5token5CommaEE3lenCs9jpTMRK2ijq_11yoke_derive, symObjAddr: 0xE370, symBinAddr: 0xEF40, symSize: 0x10 }
  - { offset: 0x397DF, size: 0x8, addend: 0x0, symName: __RNvMs3_NtNtCslJiobkLta79_5alloc11collections9vec_dequeINtB5_8VecDequeTNtNtCsdGrGZaRBwMb_3syn4item7UseTreeNtNtB1a_5token5CommaEE4growCs9jpTMRK2ijq_11yoke_derive, symObjAddr: 0xE380, symBinAddr: 0xEF50, symSize: 0x60 }
  - { offset: 0x399E9, size: 0x8, addend: 0x0, symName: __RNvMs3_NtNtCslJiobkLta79_5alloc11collections9vec_dequeINtB5_8VecDequeTNtNtCsdGrGZaRBwMb_3syn4item7UseTreeNtNtB1a_5token5CommaEE9pop_frontCs9jpTMRK2ijq_11yoke_derive, symObjAddr: 0xE3E0, symBinAddr: 0xEFB0, symSize: 0x1D0 }
  - { offset: 0x39C5A, size: 0x8, addend: 0x0, symName: __RNvMs3_NtNtCslJiobkLta79_5alloc11collections9vec_dequeINtB5_8VecDequeTNtNtCsdGrGZaRBwMb_3syn4item7UseTreeNtNtB1a_5token5CommaEE9push_backCs9jpTMRK2ijq_11yoke_derive, symObjAddr: 0xE5B0, symBinAddr: 0xF180, symSize: 0x20 }
  - { offset: 0x39E66, size: 0x8, addend: 0x0, symName: __RNvMs3_NtNtCslJiobkLta79_5alloc11collections9vec_dequeINtB5_8VecDequeTNtNtCsdGrGZaRBwMb_3syn4path11PathSegmentNtNtB1a_5token7PathSepEE13push_back_mutCs9jpTMRK2ijq_11yoke_derive, symObjAddr: 0xE5D0, symBinAddr: 0xF1A0, symSize: 0x190 }
  - { offset: 0x3A525, size: 0x8, addend: 0x0, symName: __RNvMs3_NtNtCslJiobkLta79_5alloc11collections9vec_dequeINtB5_8VecDequeTNtNtCsdGrGZaRBwMb_3syn4path11PathSegmentNtNtB1a_5token7PathSepEE15make_contiguousCs9jpTMRK2ijq_11yoke_derive, symObjAddr: 0xE760, symBinAddr: 0xF330, symSize: 0x8B0 }
  - { offset: 0x3B5A9, size: 0x8, addend: 0x0, symName: __RNvMs3_NtNtCslJiobkLta79_5alloc11collections9vec_dequeINtB5_8VecDequeTNtNtCsdGrGZaRBwMb_3syn4path11PathSegmentNtNtB1a_5token7PathSepEE3lenCs9jpTMRK2ijq_11yoke_derive, symObjAddr: 0xF010, symBinAddr: 0xFBE0, symSize: 0x10 }
  - { offset: 0x3B662, size: 0x8, addend: 0x0, symName: __RNvMs3_NtNtCslJiobkLta79_5alloc11collections9vec_dequeINtB5_8VecDequeTNtNtCsdGrGZaRBwMb_3syn4path11PathSegmentNtNtB1a_5token7PathSepEE4growCs9jpTMRK2ijq_11yoke_derive, symObjAddr: 0xF020, symBinAddr: 0xFBF0, symSize: 0x60 }
  - { offset: 0x3B86C, size: 0x8, addend: 0x0, symName: __RNvMs3_NtNtCslJiobkLta79_5alloc11collections9vec_dequeINtB5_8VecDequeTNtNtCsdGrGZaRBwMb_3syn4path11PathSegmentNtNtB1a_5token7PathSepEE9pop_frontCs9jpTMRK2ijq_11yoke_derive, symObjAddr: 0xF080, symBinAddr: 0xFC50, symSize: 0x1D0 }
  - { offset: 0x3BADD, size: 0x8, addend: 0x0, symName: __RNvMs3_NtNtCslJiobkLta79_5alloc11collections9vec_dequeINtB5_8VecDequeTNtNtCsdGrGZaRBwMb_3syn4path11PathSegmentNtNtB1a_5token7PathSepEE9push_backCs9jpTMRK2ijq_11yoke_derive, symObjAddr: 0xF250, symBinAddr: 0xFE20, symSize: 0x20 }
  - { offset: 0x3BCE9, size: 0x8, addend: 0x0, symName: __RNvMs3_NtNtCslJiobkLta79_5alloc11collections9vec_dequeINtB5_8VecDequeTNtNtCsdGrGZaRBwMb_3syn4path15GenericArgumentNtNtB1a_5token5CommaEE13push_back_mutCs9jpTMRK2ijq_11yoke_derive, symObjAddr: 0xF270, symBinAddr: 0xFE40, symSize: 0x1A0 }
  - { offset: 0x3C3A8, size: 0x8, addend: 0x0, symName: __RNvMs3_NtNtCslJiobkLta79_5alloc11collections9vec_dequeINtB5_8VecDequeTNtNtCsdGrGZaRBwMb_3syn4path15GenericArgumentNtNtB1a_5token5CommaEE15make_contiguousCs9jpTMRK2ijq_11yoke_derive, symObjAddr: 0xF410, symBinAddr: 0xFFE0, symSize: 0x8F0 }
  - { offset: 0x3D42C, size: 0x8, addend: 0x0, symName: __RNvMs3_NtNtCslJiobkLta79_5alloc11collections9vec_dequeINtB5_8VecDequeTNtNtCsdGrGZaRBwMb_3syn4path15GenericArgumentNtNtB1a_5token5CommaEE3lenCs9jpTMRK2ijq_11yoke_derive, symObjAddr: 0xFD00, symBinAddr: 0x108D0, symSize: 0x10 }
  - { offset: 0x3D4E5, size: 0x8, addend: 0x0, symName: __RNvMs3_NtNtCslJiobkLta79_5alloc11collections9vec_dequeINtB5_8VecDequeTNtNtCsdGrGZaRBwMb_3syn4path15GenericArgumentNtNtB1a_5token5CommaEE4growCs9jpTMRK2ijq_11yoke_derive, symObjAddr: 0xFD10, symBinAddr: 0x108E0, symSize: 0x60 }
  - { offset: 0x3D6EF, size: 0x8, addend: 0x0, symName: __RNvMs3_NtNtCslJiobkLta79_5alloc11collections9vec_dequeINtB5_8VecDequeTNtNtCsdGrGZaRBwMb_3syn4path15GenericArgumentNtNtB1a_5token5CommaEE9pop_frontCs9jpTMRK2ijq_11yoke_derive, symObjAddr: 0xFD70, symBinAddr: 0x10940, symSize: 0x1D0 }
  - { offset: 0x3D960, size: 0x8, addend: 0x0, symName: __RNvMs3_NtNtCslJiobkLta79_5alloc11collections9vec_dequeINtB5_8VecDequeTNtNtCsdGrGZaRBwMb_3syn4path15GenericArgumentNtNtB1a_5token5CommaEE9push_backCs9jpTMRK2ijq_11yoke_derive, symObjAddr: 0xFF40, symBinAddr: 0x10B10, symSize: 0x20 }
  - { offset: 0x3DB6C, size: 0x8, addend: 0x0, symName: __RNvMs3_NtNtCslJiobkLta79_5alloc11collections9vec_dequeINtB5_8VecDequeTNtNtCsdGrGZaRBwMb_3syn8generics12GenericParamNtNtB1a_5token5CommaEE13push_back_mutCs9jpTMRK2ijq_11yoke_derive, symObjAddr: 0xFF60, symBinAddr: 0x10B30, symSize: 0x1A0 }
  - { offset: 0x3E22B, size: 0x8, addend: 0x0, symName: __RNvMs3_NtNtCslJiobkLta79_5alloc11collections9vec_dequeINtB5_8VecDequeTNtNtCsdGrGZaRBwMb_3syn8generics12GenericParamNtNtB1a_5token5CommaEE15make_contiguousCs9jpTMRK2ijq_11yoke_derive, symObjAddr: 0x10100, symBinAddr: 0x10CD0, symSize: 0x8F0 }
  - { offset: 0x3F2AF, size: 0x8, addend: 0x0, symName: __RNvMs3_NtNtCslJiobkLta79_5alloc11collections9vec_dequeINtB5_8VecDequeTNtNtCsdGrGZaRBwMb_3syn8generics12GenericParamNtNtB1a_5token5CommaEE3lenCs9jpTMRK2ijq_11yoke_derive, symObjAddr: 0x109F0, symBinAddr: 0x115C0, symSize: 0x10 }
  - { offset: 0x3F368, size: 0x8, addend: 0x0, symName: __RNvMs3_NtNtCslJiobkLta79_5alloc11collections9vec_dequeINtB5_8VecDequeTNtNtCsdGrGZaRBwMb_3syn8generics12GenericParamNtNtB1a_5token5CommaEE4growCs9jpTMRK2ijq_11yoke_derive, symObjAddr: 0x10A00, symBinAddr: 0x115D0, symSize: 0x60 }
  - { offset: 0x3F572, size: 0x8, addend: 0x0, symName: __RNvMs3_NtNtCslJiobkLta79_5alloc11collections9vec_dequeINtB5_8VecDequeTNtNtCsdGrGZaRBwMb_3syn8generics12GenericParamNtNtB1a_5token5CommaEE9pop_frontCs9jpTMRK2ijq_11yoke_derive, symObjAddr: 0x10A60, symBinAddr: 0x11630, symSize: 0x1D0 }
  - { offset: 0x3F7E3, size: 0x8, addend: 0x0, symName: __RNvMs3_NtNtCslJiobkLta79_5alloc11collections9vec_dequeINtB5_8VecDequeTNtNtCsdGrGZaRBwMb_3syn8generics12GenericParamNtNtB1a_5token5CommaEE9push_backCs9jpTMRK2ijq_11yoke_derive, symObjAddr: 0x10C30, symBinAddr: 0x11800, symSize: 0x20 }
  - { offset: 0x3F9EF, size: 0x8, addend: 0x0, symName: __RNvMs3_NtNtCslJiobkLta79_5alloc11collections9vec_dequeINtB5_8VecDequeTNtNtCsdGrGZaRBwMb_3syn8generics13CapturedParamNtNtB1a_5token5CommaEE13push_back_mutCs9jpTMRK2ijq_11yoke_derive, symObjAddr: 0x10C50, symBinAddr: 0x11820, symSize: 0x190 }
  - { offset: 0x400AE, size: 0x8, addend: 0x0, symName: __RNvMs3_NtNtCslJiobkLta79_5alloc11collections9vec_dequeINtB5_8VecDequeTNtNtCsdGrGZaRBwMb_3syn8generics13CapturedParamNtNtB1a_5token5CommaEE15make_contiguousCs9jpTMRK2ijq_11yoke_derive, symObjAddr: 0x10DE0, symBinAddr: 0x119B0, symSize: 0x8B0 }
  - { offset: 0x41132, size: 0x8, addend: 0x0, symName: __RNvMs3_NtNtCslJiobkLta79_5alloc11collections9vec_dequeINtB5_8VecDequeTNtNtCsdGrGZaRBwMb_3syn8generics13CapturedParamNtNtB1a_5token5CommaEE3lenCs9jpTMRK2ijq_11yoke_derive, symObjAddr: 0x11690, symBinAddr: 0x12260, symSize: 0x10 }
  - { offset: 0x411EB, size: 0x8, addend: 0x0, symName: __RNvMs3_NtNtCslJiobkLta79_5alloc11collections9vec_dequeINtB5_8VecDequeTNtNtCsdGrGZaRBwMb_3syn8generics13CapturedParamNtNtB1a_5token5CommaEE4growCs9jpTMRK2ijq_11yoke_derive, symObjAddr: 0x116A0, symBinAddr: 0x12270, symSize: 0x60 }
  - { offset: 0x413F5, size: 0x8, addend: 0x0, symName: __RNvMs3_NtNtCslJiobkLta79_5alloc11collections9vec_dequeINtB5_8VecDequeTNtNtCsdGrGZaRBwMb_3syn8generics13CapturedParamNtNtB1a_5token5CommaEE9pop_frontCs9jpTMRK2ijq_11yoke_derive, symObjAddr: 0x11700, symBinAddr: 0x122D0, symSize: 0x1D0 }
  - { offset: 0x41666, size: 0x8, addend: 0x0, symName: __RNvMs3_NtNtCslJiobkLta79_5alloc11collections9vec_dequeINtB5_8VecDequeTNtNtCsdGrGZaRBwMb_3syn8generics13CapturedParamNtNtB1a_5token5CommaEE9push_backCs9jpTMRK2ijq_11yoke_derive, symObjAddr: 0x118D0, symBinAddr: 0x124A0, symSize: 0x20 }
  - { offset: 0x41872, size: 0x8, addend: 0x0, symName: __RNvMs3_NtNtCslJiobkLta79_5alloc11collections9vec_dequeINtB5_8VecDequeTNtNtCsdGrGZaRBwMb_3syn8generics14TypeParamBoundNtNtB1a_5token4PlusEE13push_back_mutCs9jpTMRK2ijq_11yoke_derive, symObjAddr: 0x118F0, symBinAddr: 0x124C0, symSize: 0x1A0 }
  - { offset: 0x41F31, size: 0x8, addend: 0x0, symName: __RNvMs3_NtNtCslJiobkLta79_5alloc11collections9vec_dequeINtB5_8VecDequeTNtNtCsdGrGZaRBwMb_3syn8generics14TypeParamBoundNtNtB1a_5token4PlusEE15make_contiguousCs9jpTMRK2ijq_11yoke_derive, symObjAddr: 0x11A90, symBinAddr: 0x12660, symSize: 0x8C0 }
  - { offset: 0x42FB5, size: 0x8, addend: 0x0, symName: __RNvMs3_NtNtCslJiobkLta79_5alloc11collections9vec_dequeINtB5_8VecDequeTNtNtCsdGrGZaRBwMb_3syn8generics14TypeParamBoundNtNtB1a_5token4PlusEE3lenCs9jpTMRK2ijq_11yoke_derive, symObjAddr: 0x12350, symBinAddr: 0x12F20, symSize: 0x10 }
  - { offset: 0x4306E, size: 0x8, addend: 0x0, symName: __RNvMs3_NtNtCslJiobkLta79_5alloc11collections9vec_dequeINtB5_8VecDequeTNtNtCsdGrGZaRBwMb_3syn8generics14TypeParamBoundNtNtB1a_5token4PlusEE4growCs9jpTMRK2ijq_11yoke_derive, symObjAddr: 0x12360, symBinAddr: 0x12F30, symSize: 0x60 }
  - { offset: 0x43278, size: 0x8, addend: 0x0, symName: __RNvMs3_NtNtCslJiobkLta79_5alloc11collections9vec_dequeINtB5_8VecDequeTNtNtCsdGrGZaRBwMb_3syn8generics14TypeParamBoundNtNtB1a_5token4PlusEE9pop_frontCs9jpTMRK2ijq_11yoke_derive, symObjAddr: 0x123C0, symBinAddr: 0x12F90, symSize: 0x1D0 }
  - { offset: 0x434E9, size: 0x8, addend: 0x0, symName: __RNvMs3_NtNtCslJiobkLta79_5alloc11collections9vec_dequeINtB5_8VecDequeTNtNtCsdGrGZaRBwMb_3syn8generics14TypeParamBoundNtNtB1a_5token4PlusEE9push_backCs9jpTMRK2ijq_11yoke_derive, symObjAddr: 0x12590, symBinAddr: 0x13160, symSize: 0x20 }
  - { offset: 0x436F5, size: 0x8, addend: 0x0, symName: __RNvMs3_NtNtCslJiobkLta79_5alloc11collections9vec_dequeINtB5_8VecDequeTNtNtCsdGrGZaRBwMb_3syn8generics14WherePredicateNtNtB1a_5token5CommaEE13push_back_mutCs9jpTMRK2ijq_11yoke_derive, symObjAddr: 0x125B0, symBinAddr: 0x13180, symSize: 0x1A0 }
  - { offset: 0x43DB4, size: 0x8, addend: 0x0, symName: __RNvMs3_NtNtCslJiobkLta79_5alloc11collections9vec_dequeINtB5_8VecDequeTNtNtCsdGrGZaRBwMb_3syn8generics14WherePredicateNtNtB1a_5token5CommaEE15make_contiguousCs9jpTMRK2ijq_11yoke_derive, symObjAddr: 0x12750, symBinAddr: 0x13320, symSize: 0x8F0 }
  - { offset: 0x44E38, size: 0x8, addend: 0x0, symName: __RNvMs3_NtNtCslJiobkLta79_5alloc11collections9vec_dequeINtB5_8VecDequeTNtNtCsdGrGZaRBwMb_3syn8generics14WherePredicateNtNtB1a_5token5CommaEE3lenCs9jpTMRK2ijq_11yoke_derive, symObjAddr: 0x13040, symBinAddr: 0x13C10, symSize: 0x10 }
  - { offset: 0x44EF1, size: 0x8, addend: 0x0, symName: __RNvMs3_NtNtCslJiobkLta79_5alloc11collections9vec_dequeINtB5_8VecDequeTNtNtCsdGrGZaRBwMb_3syn8generics14WherePredicateNtNtB1a_5token5CommaEE4growCs9jpTMRK2ijq_11yoke_derive, symObjAddr: 0x13050, symBinAddr: 0x13C20, symSize: 0x60 }
  - { offset: 0x450FB, size: 0x8, addend: 0x0, symName: __RNvMs3_NtNtCslJiobkLta79_5alloc11collections9vec_dequeINtB5_8VecDequeTNtNtCsdGrGZaRBwMb_3syn8generics14WherePredicateNtNtB1a_5token5CommaEE9pop_frontCs9jpTMRK2ijq_11yoke_derive, symObjAddr: 0x130B0, symBinAddr: 0x13C80, symSize: 0x1D0 }
  - { offset: 0x4536C, size: 0x8, addend: 0x0, symName: __RNvMs3_NtNtCslJiobkLta79_5alloc11collections9vec_dequeINtB5_8VecDequeTNtNtCsdGrGZaRBwMb_3syn8generics14WherePredicateNtNtB1a_5token5CommaEE9push_backCs9jpTMRK2ijq_11yoke_derive, symObjAddr: 0x13280, symBinAddr: 0x13E50, symSize: 0x20 }
  - { offset: 0x45578, size: 0x8, addend: 0x0, symName: __RNvMs3_NtNtCslJiobkLta79_5alloc11collections9vec_dequeINtB5_8VecDequeTNtNtCsdGrGZaRBwMb_3syn8lifetime8LifetimeNtNtB1a_5token4PlusEE13push_back_mutCs9jpTMRK2ijq_11yoke_derive, symObjAddr: 0x132A0, symBinAddr: 0x13E70, symSize: 0x190 }
  - { offset: 0x45C37, size: 0x8, addend: 0x0, symName: __RNvMs3_NtNtCslJiobkLta79_5alloc11collections9vec_dequeINtB5_8VecDequeTNtNtCsdGrGZaRBwMb_3syn8lifetime8LifetimeNtNtB1a_5token4PlusEE15make_contiguousCs9jpTMRK2ijq_11yoke_derive, symObjAddr: 0x13430, symBinAddr: 0x14000, symSize: 0x8B0 }
  - { offset: 0x46CBB, size: 0x8, addend: 0x0, symName: __RNvMs3_NtNtCslJiobkLta79_5alloc11collections9vec_dequeINtB5_8VecDequeTNtNtCsdGrGZaRBwMb_3syn8lifetime8LifetimeNtNtB1a_5token4PlusEE3lenCs9jpTMRK2ijq_11yoke_derive, symObjAddr: 0x13CE0, symBinAddr: 0x148B0, symSize: 0x10 }
  - { offset: 0x46D74, size: 0x8, addend: 0x0, symName: __RNvMs3_NtNtCslJiobkLta79_5alloc11collections9vec_dequeINtB5_8VecDequeTNtNtCsdGrGZaRBwMb_3syn8lifetime8LifetimeNtNtB1a_5token4PlusEE4growCs9jpTMRK2ijq_11yoke_derive, symObjAddr: 0x13CF0, symBinAddr: 0x148C0, symSize: 0x60 }
  - { offset: 0x46F7E, size: 0x8, addend: 0x0, symName: __RNvMs3_NtNtCslJiobkLta79_5alloc11collections9vec_dequeINtB5_8VecDequeTNtNtCsdGrGZaRBwMb_3syn8lifetime8LifetimeNtNtB1a_5token4PlusEE9pop_frontCs9jpTMRK2ijq_11yoke_derive, symObjAddr: 0x13D50, symBinAddr: 0x14920, symSize: 0x1D0 }
  - { offset: 0x471EF, size: 0x8, addend: 0x0, symName: __RNvMs3_NtNtCslJiobkLta79_5alloc11collections9vec_dequeINtB5_8VecDequeTNtNtCsdGrGZaRBwMb_3syn8lifetime8LifetimeNtNtB1a_5token4PlusEE9push_backCs9jpTMRK2ijq_11yoke_derive, symObjAddr: 0x13F20, symBinAddr: 0x14AF0, symSize: 0x20 }
  - { offset: 0x4940D, size: 0x8, addend: 0x0, symName: __RINvNtNtCsieiGu2EXtoJ_4core5slice6rotate10ptr_rotateTNtNtCsdGrGZaRBwMb_3syn2ty4TypeNtNtBT_5token5CommaEECs9jpTMRK2ijq_11yoke_derive, symObjAddr: 0x0, symBinAddr: 0x168D0, symSize: 0xB0 }
  - { offset: 0x49D8E, size: 0x8, addend: 0x0, symName: __RINvNtNtCsieiGu2EXtoJ_4core5slice6rotate10ptr_rotateTNtNtCsdGrGZaRBwMb_3syn2ty4TypeNtNtBT_5token5CommaEECs9jpTMRK2ijq_11yoke_derive, symObjAddr: 0x0, symBinAddr: 0x168D0, symSize: 0xB0 }
  - { offset: 0x49E22, size: 0x8, addend: 0x0, symName: __RINvNtNtCsieiGu2EXtoJ_4core5slice6rotate10ptr_rotateTNtNtCsdGrGZaRBwMb_3syn2ty9BareFnArgNtNtBT_5token5CommaEECs9jpTMRK2ijq_11yoke_derive, symObjAddr: 0xB0, symBinAddr: 0x16980, symSize: 0xB0 }
  - { offset: 0x49EB6, size: 0x8, addend: 0x0, symName: __RINvNtNtCsieiGu2EXtoJ_4core5slice6rotate10ptr_rotateTNtNtCsdGrGZaRBwMb_3syn3pat3PatNtNtBT_5token2OrEECs9jpTMRK2ijq_11yoke_derive, symObjAddr: 0x160, symBinAddr: 0x16A30, symSize: 0xB0 }
  - { offset: 0x49F4A, size: 0x8, addend: 0x0, symName: __RINvNtNtCsieiGu2EXtoJ_4core5slice6rotate10ptr_rotateTNtNtCsdGrGZaRBwMb_3syn3pat3PatNtNtBT_5token5CommaEECs9jpTMRK2ijq_11yoke_derive, symObjAddr: 0x210, symBinAddr: 0x16AE0, symSize: 0xB0 }
  - { offset: 0x49FDE, size: 0x8, addend: 0x0, symName: __RINvNtNtCsieiGu2EXtoJ_4core5slice6rotate10ptr_rotateTNtNtCsdGrGZaRBwMb_3syn3pat8FieldPatNtNtBT_5token5CommaEECs9jpTMRK2ijq_11yoke_derive, symObjAddr: 0x2C0, symBinAddr: 0x16B90, symSize: 0xB0 }
  - { offset: 0x4A072, size: 0x8, addend: 0x0, symName: __RINvNtNtCsieiGu2EXtoJ_4core5slice6rotate10ptr_rotateTNtNtCsdGrGZaRBwMb_3syn4data5FieldNtNtBT_5token5CommaEECs9jpTMRK2ijq_11yoke_derive, symObjAddr: 0x370, symBinAddr: 0x16C40, symSize: 0xB0 }
  - { offset: 0x4A106, size: 0x8, addend: 0x0, symName: __RINvNtNtCsieiGu2EXtoJ_4core5slice6rotate10ptr_rotateTNtNtCsdGrGZaRBwMb_3syn4data7VariantNtNtBT_5token5CommaEECs9jpTMRK2ijq_11yoke_derive, symObjAddr: 0x420, symBinAddr: 0x16CF0, symSize: 0xB0 }
  - { offset: 0x4A19A, size: 0x8, addend: 0x0, symName: __RINvNtNtCsieiGu2EXtoJ_4core5slice6rotate10ptr_rotateTNtNtCsdGrGZaRBwMb_3syn4expr10FieldValueNtNtBT_5token5CommaEECs9jpTMRK2ijq_11yoke_derive, symObjAddr: 0x4D0, symBinAddr: 0x16DA0, symSize: 0xB0 }
  - { offset: 0x4A22E, size: 0x8, addend: 0x0, symName: __RINvNtNtCsieiGu2EXtoJ_4core5slice6rotate10ptr_rotateTNtNtCsdGrGZaRBwMb_3syn4expr4ExprNtNtBT_5token5CommaEECs9jpTMRK2ijq_11yoke_derive, symObjAddr: 0x580, symBinAddr: 0x16E50, symSize: 0xB0 }
  - { offset: 0x4A2C2, size: 0x8, addend: 0x0, symName: __RINvNtNtCsieiGu2EXtoJ_4core5slice6rotate10ptr_rotateTNtNtCsdGrGZaRBwMb_3syn4item5FnArgNtNtBT_5token5CommaEECs9jpTMRK2ijq_11yoke_derive, symObjAddr: 0x630, symBinAddr: 0x16F00, symSize: 0xB0 }
  - { offset: 0x4A356, size: 0x8, addend: 0x0, symName: __RINvNtNtCsieiGu2EXtoJ_4core5slice6rotate10ptr_rotateTNtNtCsdGrGZaRBwMb_3syn4item7UseTreeNtNtBT_5token5CommaEECs9jpTMRK2ijq_11yoke_derive, symObjAddr: 0x6E0, symBinAddr: 0x16FB0, symSize: 0xB0 }
  - { offset: 0x4A3EA, size: 0x8, addend: 0x0, symName: __RINvNtNtCsieiGu2EXtoJ_4core5slice6rotate10ptr_rotateTNtNtCsdGrGZaRBwMb_3syn4path11PathSegmentNtNtBT_5token7PathSepEECs9jpTMRK2ijq_11yoke_derive, symObjAddr: 0x790, symBinAddr: 0x17060, symSize: 0xB0 }
  - { offset: 0x4A47E, size: 0x8, addend: 0x0, symName: __RINvNtNtCsieiGu2EXtoJ_4core5slice6rotate10ptr_rotateTNtNtCsdGrGZaRBwMb_3syn4path15GenericArgumentNtNtBT_5token5CommaEECs9jpTMRK2ijq_11yoke_derive, symObjAddr: 0x840, symBinAddr: 0x17110, symSize: 0xB0 }
  - { offset: 0x4A512, size: 0x8, addend: 0x0, symName: __RINvNtNtCsieiGu2EXtoJ_4core5slice6rotate10ptr_rotateTNtNtCsdGrGZaRBwMb_3syn8generics12GenericParamNtNtBT_5token5CommaEECs9jpTMRK2ijq_11yoke_derive, symObjAddr: 0x8F0, symBinAddr: 0x171C0, symSize: 0xB0 }
  - { offset: 0x4A5A6, size: 0x8, addend: 0x0, symName: __RINvNtNtCsieiGu2EXtoJ_4core5slice6rotate10ptr_rotateTNtNtCsdGrGZaRBwMb_3syn8generics13CapturedParamNtNtBT_5token5CommaEECs9jpTMRK2ijq_11yoke_derive, symObjAddr: 0x9A0, symBinAddr: 0x17270, symSize: 0xB0 }
  - { offset: 0x4A63A, size: 0x8, addend: 0x0, symName: __RINvNtNtCsieiGu2EXtoJ_4core5slice6rotate10ptr_rotateTNtNtCsdGrGZaRBwMb_3syn8generics14TypeParamBoundNtNtBT_5token4PlusEECs9jpTMRK2ijq_11yoke_derive, symObjAddr: 0xA50, symBinAddr: 0x17320, symSize: 0xB0 }
  - { offset: 0x4A6CE, size: 0x8, addend: 0x0, symName: __RINvNtNtCsieiGu2EXtoJ_4core5slice6rotate10ptr_rotateTNtNtCsdGrGZaRBwMb_3syn8generics14WherePredicateNtNtBT_5token5CommaEECs9jpTMRK2ijq_11yoke_derive, symObjAddr: 0xB00, symBinAddr: 0x173D0, symSize: 0xB0 }
  - { offset: 0x4A762, size: 0x8, addend: 0x0, symName: __RINvNtNtCsieiGu2EXtoJ_4core5slice6rotate10ptr_rotateTNtNtCsdGrGZaRBwMb_3syn8lifetime8LifetimeNtNtBT_5token4PlusEECs9jpTMRK2ijq_11yoke_derive, symObjAddr: 0xBB0, symBinAddr: 0x17480, symSize: 0xB0 }
  - { offset: 0x4A7CC, size: 0x8, addend: 0x0, symName: __RINvNtNtCsieiGu2EXtoJ_4core5slice6rotate14ptr_rotate_gcdTNtNtCsdGrGZaRBwMb_3syn2ty4TypeNtNtBX_5token5CommaEECs9jpTMRK2ijq_11yoke_derive, symObjAddr: 0xC60, symBinAddr: 0x17530, symSize: 0x3E0 }
  - { offset: 0x4AB26, size: 0x8, addend: 0x0, symName: __RINvNtNtCsieiGu2EXtoJ_4core5slice6rotate14ptr_rotate_gcdTNtNtCsdGrGZaRBwMb_3syn2ty9BareFnArgNtNtBX_5token5CommaEECs9jpTMRK2ijq_11yoke_derive, symObjAddr: 0x1040, symBinAddr: 0x17910, symSize: 0x3E0 }
  - { offset: 0x4AE80, size: 0x8, addend: 0x0, symName: __RINvNtNtCsieiGu2EXtoJ_4core5slice6rotate14ptr_rotate_gcdTNtNtCsdGrGZaRBwMb_3syn3pat3PatNtNtBX_5token2OrEECs9jpTMRK2ijq_11yoke_derive, symObjAddr: 0x1420, symBinAddr: 0x17CF0, symSize: 0x3E0 }
  - { offset: 0x4B1DA, size: 0x8, addend: 0x0, symName: __RINvNtNtCsieiGu2EXtoJ_4core5slice6rotate14ptr_rotate_gcdTNtNtCsdGrGZaRBwMb_3syn3pat3PatNtNtBX_5token5CommaEECs9jpTMRK2ijq_11yoke_derive, symObjAddr: 0x1800, symBinAddr: 0x180D0, symSize: 0x3E0 }
  - { offset: 0x4B534, size: 0x8, addend: 0x0, symName: __RINvNtNtCsieiGu2EXtoJ_4core5slice6rotate14ptr_rotate_gcdTNtNtCsdGrGZaRBwMb_3syn3pat8FieldPatNtNtBX_5token5CommaEECs9jpTMRK2ijq_11yoke_derive, symObjAddr: 0x1BE0, symBinAddr: 0x184B0, symSize: 0x3E0 }
  - { offset: 0x4B88E, size: 0x8, addend: 0x0, symName: __RINvNtNtCsieiGu2EXtoJ_4core5slice6rotate14ptr_rotate_gcdTNtNtCsdGrGZaRBwMb_3syn4data5FieldNtNtBX_5token5CommaEECs9jpTMRK2ijq_11yoke_derive, symObjAddr: 0x1FC0, symBinAddr: 0x18890, symSize: 0x3E0 }
  - { offset: 0x4BBE8, size: 0x8, addend: 0x0, symName: __RINvNtNtCsieiGu2EXtoJ_4core5slice6rotate14ptr_rotate_gcdTNtNtCsdGrGZaRBwMb_3syn4data7VariantNtNtBX_5token5CommaEECs9jpTMRK2ijq_11yoke_derive, symObjAddr: 0x23A0, symBinAddr: 0x18C70, symSize: 0x3E0 }
  - { offset: 0x4BF42, size: 0x8, addend: 0x0, symName: __RINvNtNtCsieiGu2EXtoJ_4core5slice6rotate14ptr_rotate_gcdTNtNtCsdGrGZaRBwMb_3syn4expr10FieldValueNtNtBX_5token5CommaEECs9jpTMRK2ijq_11yoke_derive, symObjAddr: 0x2780, symBinAddr: 0x19050, symSize: 0x3E0 }
  - { offset: 0x4C29C, size: 0x8, addend: 0x0, symName: __RINvNtNtCsieiGu2EXtoJ_4core5slice6rotate14ptr_rotate_gcdTNtNtCsdGrGZaRBwMb_3syn4expr4ExprNtNtBX_5token5CommaEECs9jpTMRK2ijq_11yoke_derive, symObjAddr: 0x2B60, symBinAddr: 0x19430, symSize: 0x3E0 }
  - { offset: 0x4C5F6, size: 0x8, addend: 0x0, symName: __RINvNtNtCsieiGu2EXtoJ_4core5slice6rotate14ptr_rotate_gcdTNtNtCsdGrGZaRBwMb_3syn4item5FnArgNtNtBX_5token5CommaEECs9jpTMRK2ijq_11yoke_derive, symObjAddr: 0x2F40, symBinAddr: 0x19810, symSize: 0x3E0 }
  - { offset: 0x4C950, size: 0x8, addend: 0x0, symName: __RINvNtNtCsieiGu2EXtoJ_4core5slice6rotate14ptr_rotate_gcdTNtNtCsdGrGZaRBwMb_3syn4item7UseTreeNtNtBX_5token5CommaEECs9jpTMRK2ijq_11yoke_derive, symObjAddr: 0x3320, symBinAddr: 0x19BF0, symSize: 0x3E0 }
  - { offset: 0x4CCAA, size: 0x8, addend: 0x0, symName: __RINvNtNtCsieiGu2EXtoJ_4core5slice6rotate14ptr_rotate_gcdTNtNtCsdGrGZaRBwMb_3syn4path11PathSegmentNtNtBX_5token7PathSepEECs9jpTMRK2ijq_11yoke_derive, symObjAddr: 0x3700, symBinAddr: 0x19FD0, symSize: 0x3E0 }
  - { offset: 0x4D004, size: 0x8, addend: 0x0, symName: __RINvNtNtCsieiGu2EXtoJ_4core5slice6rotate14ptr_rotate_gcdTNtNtCsdGrGZaRBwMb_3syn4path15GenericArgumentNtNtBX_5token5CommaEECs9jpTMRK2ijq_11yoke_derive, symObjAddr: 0x3AE0, symBinAddr: 0x1A3B0, symSize: 0x3E0 }
  - { offset: 0x4D35E, size: 0x8, addend: 0x0, symName: __RINvNtNtCsieiGu2EXtoJ_4core5slice6rotate14ptr_rotate_gcdTNtNtCsdGrGZaRBwMb_3syn8generics12GenericParamNtNtBX_5token5CommaEECs9jpTMRK2ijq_11yoke_derive, symObjAddr: 0x3EC0, symBinAddr: 0x1A790, symSize: 0x3E0 }
  - { offset: 0x4D6B8, size: 0x8, addend: 0x0, symName: __RINvNtNtCsieiGu2EXtoJ_4core5slice6rotate14ptr_rotate_gcdTNtNtCsdGrGZaRBwMb_3syn8generics13CapturedParamNtNtBX_5token5CommaEECs9jpTMRK2ijq_11yoke_derive, symObjAddr: 0x42A0, symBinAddr: 0x1AB70, symSize: 0x3E0 }
  - { offset: 0x4DA12, size: 0x8, addend: 0x0, symName: __RINvNtNtCsieiGu2EXtoJ_4core5slice6rotate14ptr_rotate_gcdTNtNtCsdGrGZaRBwMb_3syn8generics14TypeParamBoundNtNtBX_5token4PlusEECs9jpTMRK2ijq_11yoke_derive, symObjAddr: 0x4680, symBinAddr: 0x1AF50, symSize: 0x3E0 }
  - { offset: 0x4DD6C, size: 0x8, addend: 0x0, symName: __RINvNtNtCsieiGu2EXtoJ_4core5slice6rotate14ptr_rotate_gcdTNtNtCsdGrGZaRBwMb_3syn8generics14WherePredicateNtNtBX_5token5CommaEECs9jpTMRK2ijq_11yoke_derive, symObjAddr: 0x4A60, symBinAddr: 0x1B330, symSize: 0x3E0 }
  - { offset: 0x4E0C6, size: 0x8, addend: 0x0, symName: __RINvNtNtCsieiGu2EXtoJ_4core5slice6rotate14ptr_rotate_gcdTNtNtCsdGrGZaRBwMb_3syn8lifetime8LifetimeNtNtBX_5token4PlusEECs9jpTMRK2ijq_11yoke_derive, symObjAddr: 0x4E40, symBinAddr: 0x1B710, symSize: 0x3E0 }
  - { offset: 0x4E420, size: 0x8, addend: 0x0, symName: __RINvNtNtCsieiGu2EXtoJ_4core5slice6rotate18ptr_rotate_memmoveTNtNtCsdGrGZaRBwMb_3syn2ty4TypeNtNtB11_5token5CommaEECs9jpTMRK2ijq_11yoke_derive, symObjAddr: 0x6EF0, symBinAddr: 0x1BAF0, symSize: 0x3D0 }
  - { offset: 0x4E6A4, size: 0x8, addend: 0x0, symName: __RINvNtNtCsieiGu2EXtoJ_4core5slice6rotate18ptr_rotate_memmoveTNtNtCsdGrGZaRBwMb_3syn2ty9BareFnArgNtNtB11_5token5CommaEECs9jpTMRK2ijq_11yoke_derive, symObjAddr: 0x72C0, symBinAddr: 0x1BEC0, symSize: 0x3D0 }
  - { offset: 0x4E928, size: 0x8, addend: 0x0, symName: __RINvNtNtCsieiGu2EXtoJ_4core5slice6rotate18ptr_rotate_memmoveTNtNtCsdGrGZaRBwMb_3syn3pat3PatNtNtB11_5token2OrEECs9jpTMRK2ijq_11yoke_derive, symObjAddr: 0x7690, symBinAddr: 0x1C290, symSize: 0x3D0 }
  - { offset: 0x4EBAC, size: 0x8, addend: 0x0, symName: __RINvNtNtCsieiGu2EXtoJ_4core5slice6rotate18ptr_rotate_memmoveTNtNtCsdGrGZaRBwMb_3syn3pat3PatNtNtB11_5token5CommaEECs9jpTMRK2ijq_11yoke_derive, symObjAddr: 0x7A60, symBinAddr: 0x1C660, symSize: 0x3D0 }
  - { offset: 0x4EE30, size: 0x8, addend: 0x0, symName: __RINvNtNtCsieiGu2EXtoJ_4core5slice6rotate18ptr_rotate_memmoveTNtNtCsdGrGZaRBwMb_3syn3pat8FieldPatNtNtB11_5token5CommaEECs9jpTMRK2ijq_11yoke_derive, symObjAddr: 0x7E30, symBinAddr: 0x1CA30, symSize: 0x3B0 }
  - { offset: 0x4F0B4, size: 0x8, addend: 0x0, symName: __RINvNtNtCsieiGu2EXtoJ_4core5slice6rotate18ptr_rotate_memmoveTNtNtCsdGrGZaRBwMb_3syn4data5FieldNtNtB11_5token5CommaEECs9jpTMRK2ijq_11yoke_derive, symObjAddr: 0x81E0, symBinAddr: 0x1CDE0, symSize: 0x3D0 }
  - { offset: 0x4F338, size: 0x8, addend: 0x0, symName: __RINvNtNtCsieiGu2EXtoJ_4core5slice6rotate18ptr_rotate_memmoveTNtNtCsdGrGZaRBwMb_3syn4data7VariantNtNtB11_5token5CommaEECs9jpTMRK2ijq_11yoke_derive, symObjAddr: 0x85B0, symBinAddr: 0x1D1B0, symSize: 0x3D0 }
  - { offset: 0x4F5BC, size: 0x8, addend: 0x0, symName: __RINvNtNtCsieiGu2EXtoJ_4core5slice6rotate18ptr_rotate_memmoveTNtNtCsdGrGZaRBwMb_3syn4expr10FieldValueNtNtB11_5token5CommaEECs9jpTMRK2ijq_11yoke_derive, symObjAddr: 0x8980, symBinAddr: 0x1D580, symSize: 0x3D0 }
  - { offset: 0x4F840, size: 0x8, addend: 0x0, symName: __RINvNtNtCsieiGu2EXtoJ_4core5slice6rotate18ptr_rotate_memmoveTNtNtCsdGrGZaRBwMb_3syn4expr4ExprNtNtB11_5token5CommaEECs9jpTMRK2ijq_11yoke_derive, symObjAddr: 0x8D50, symBinAddr: 0x1D950, symSize: 0x3D0 }
  - { offset: 0x4FAC4, size: 0x8, addend: 0x0, symName: __RINvNtNtCsieiGu2EXtoJ_4core5slice6rotate18ptr_rotate_memmoveTNtNtCsdGrGZaRBwMb_3syn4item5FnArgNtNtB11_5token5CommaEECs9jpTMRK2ijq_11yoke_derive, symObjAddr: 0x9120, symBinAddr: 0x1DD20, symSize: 0x3B0 }
  - { offset: 0x4FD48, size: 0x8, addend: 0x0, symName: __RINvNtNtCsieiGu2EXtoJ_4core5slice6rotate18ptr_rotate_memmoveTNtNtCsdGrGZaRBwMb_3syn4item7UseTreeNtNtB11_5token5CommaEECs9jpTMRK2ijq_11yoke_derive, symObjAddr: 0x94D0, symBinAddr: 0x1E0D0, symSize: 0x3B0 }
  - { offset: 0x4FFCC, size: 0x8, addend: 0x0, symName: __RINvNtNtCsieiGu2EXtoJ_4core5slice6rotate18ptr_rotate_memmoveTNtNtCsdGrGZaRBwMb_3syn4path11PathSegmentNtNtB11_5token7PathSepEECs9jpTMRK2ijq_11yoke_derive, symObjAddr: 0x9880, symBinAddr: 0x1E480, symSize: 0x3B0 }
  - { offset: 0x50250, size: 0x8, addend: 0x0, symName: __RINvNtNtCsieiGu2EXtoJ_4core5slice6rotate18ptr_rotate_memmoveTNtNtCsdGrGZaRBwMb_3syn4path15GenericArgumentNtNtB11_5token5CommaEECs9jpTMRK2ijq_11yoke_derive, symObjAddr: 0x9C30, symBinAddr: 0x1E830, symSize: 0x3D0 }
  - { offset: 0x504D4, size: 0x8, addend: 0x0, symName: __RINvNtNtCsieiGu2EXtoJ_4core5slice6rotate18ptr_rotate_memmoveTNtNtCsdGrGZaRBwMb_3syn8generics12GenericParamNtNtB11_5token5CommaEECs9jpTMRK2ijq_11yoke_derive, symObjAddr: 0xA000, symBinAddr: 0x1EC00, symSize: 0x3D0 }
  - { offset: 0x50758, size: 0x8, addend: 0x0, symName: __RINvNtNtCsieiGu2EXtoJ_4core5slice6rotate18ptr_rotate_memmoveTNtNtCsdGrGZaRBwMb_3syn8generics13CapturedParamNtNtB11_5token5CommaEECs9jpTMRK2ijq_11yoke_derive, symObjAddr: 0xA3D0, symBinAddr: 0x1EFD0, symSize: 0x3B0 }
  - { offset: 0x509DC, size: 0x8, addend: 0x0, symName: __RINvNtNtCsieiGu2EXtoJ_4core5slice6rotate18ptr_rotate_memmoveTNtNtCsdGrGZaRBwMb_3syn8generics14TypeParamBoundNtNtB11_5token4PlusEECs9jpTMRK2ijq_11yoke_derive, symObjAddr: 0xA780, symBinAddr: 0x1F380, symSize: 0x3B0 }
  - { offset: 0x50C60, size: 0x8, addend: 0x0, symName: __RINvNtNtCsieiGu2EXtoJ_4core5slice6rotate18ptr_rotate_memmoveTNtNtCsdGrGZaRBwMb_3syn8generics14WherePredicateNtNtB11_5token5CommaEECs9jpTMRK2ijq_11yoke_derive, symObjAddr: 0xAB30, symBinAddr: 0x1F730, symSize: 0x3D0 }
  - { offset: 0x50EE4, size: 0x8, addend: 0x0, symName: __RINvNtNtCsieiGu2EXtoJ_4core5slice6rotate18ptr_rotate_memmoveTNtNtCsdGrGZaRBwMb_3syn8lifetime8LifetimeNtNtB11_5token4PlusEECs9jpTMRK2ijq_11yoke_derive, symObjAddr: 0xAF00, symBinAddr: 0x1FB00, symSize: 0x3B0 }
  - { offset: 0x5C3C3, size: 0x8, addend: 0x0, symName: __RINvNtNtCsdGrGZaRBwMb_3syn3gen4fold10fold_blockNtNvCs9jpTMRK2ijq_11yoke_derive16replace_lifetime15ReplaceLifetimeEBN_, symObjAddr: 0x0, symBinAddr: 0x1FEB0, symSize: 0x90 }
  - { offset: 0x5CD1A, size: 0x8, addend: 0x0, symName: __RINvNtNtCsdGrGZaRBwMb_3syn3gen4fold10fold_blockNtNvCs9jpTMRK2ijq_11yoke_derive16replace_lifetime15ReplaceLifetimeEBN_, symObjAddr: 0x0, symBinAddr: 0x1FEB0, symSize: 0x90 }
  - { offset: 0x5CD61, size: 0x8, addend: 0x0, symName: __RINvNtNtCsdGrGZaRBwMb_3syn3gen4fold10fold_fieldNtNvCs9jpTMRK2ijq_11yoke_derive16replace_lifetime15ReplaceLifetimeEBN_, symObjAddr: 0x90, symBinAddr: 0x1FF40, symSize: 0x330 }
  - { offset: 0x5CDA8, size: 0x8, addend: 0x0, symName: __RINvNtNtCsdGrGZaRBwMb_3syn3gen4fold10fold_identNtNvCs9jpTMRK2ijq_11yoke_derive16replace_lifetime15ReplaceLifetimeEBN_, symObjAddr: 0x3C0, symBinAddr: 0x20270, symSize: 0xC0 }
  - { offset: 0x5CE23, size: 0x8, addend: 0x0, symName: __RINvNtNtCsdGrGZaRBwMb_3syn3gen4fold10fold_indexNtNvCs9jpTMRK2ijq_11yoke_derive16replace_lifetime15ReplaceLifetimeEBN_, symObjAddr: 0x480, symBinAddr: 0x20330, symSize: 0x40 }
  - { offset: 0x5CE69, size: 0x8, addend: 0x0, symName: __RINvNtNtCsdGrGZaRBwMb_3syn3gen4fold10fold_labelNtNvCs9jpTMRK2ijq_11yoke_derive16replace_lifetime15ReplaceLifetimeEBN_, symObjAddr: 0x4C0, symBinAddr: 0x20370, symSize: 0x90 }
  - { offset: 0x5CEB1, size: 0x8, addend: 0x0, symName: __RINvNtNtCsdGrGZaRBwMb_3syn3gen4fold10fold_localNtNvCs9jpTMRK2ijq_11yoke_derive16replace_lifetime15ReplaceLifetimeEBN_, symObjAddr: 0x550, symBinAddr: 0x20400, symSize: 0x250 }
  - { offset: 0x5CEF8, size: 0x8, addend: 0x0, symName: __RINvNtNtCsdGrGZaRBwMb_3syn3gen4fold10fold_macroNtNvCs9jpTMRK2ijq_11yoke_derive16replace_lifetime15ReplaceLifetimeEBN_, symObjAddr: 0x7A0, symBinAddr: 0x20650, symSize: 0x1D0 }
  - { offset: 0x5CF3F, size: 0x8, addend: 0x0, symName: __RINvNtNtCsdGrGZaRBwMb_3syn3gen4fold10fold_qselfNtNvCs9jpTMRK2ijq_11yoke_derive16replace_lifetime15ReplaceLifetimeEBN_, symObjAddr: 0x970, symBinAddr: 0x20820, symSize: 0x1E0 }
  - { offset: 0x5CFA5, size: 0x8, addend: 0x0, symName: __RINvNtNtCsdGrGZaRBwMb_3syn3gen4fold10fold_un_opNtNvCs9jpTMRK2ijq_11yoke_derive16replace_lifetime15ReplaceLifetimeEBN_, symObjAddr: 0xB50, symBinAddr: 0x20A00, symSize: 0x90 }
  - { offset: 0x5D045, size: 0x8, addend: 0x0, symName: __RINvNtNtCsdGrGZaRBwMb_3syn3gen4fold11fold_bin_opNtNvCs9jpTMRK2ijq_11yoke_derive16replace_lifetime15ReplaceLifetimeEBO_, symObjAddr: 0xBE0, symBinAddr: 0x20A90, symSize: 0x650 }
  - { offset: 0x5D3EA, size: 0x8, addend: 0x0, symName: __RINvNtNtCsdGrGZaRBwMb_3syn3gen4fold11fold_fieldsNtNvCs9jpTMRK2ijq_11yoke_derive16replace_lifetime15ReplaceLifetimeEBO_, symObjAddr: 0x1230, symBinAddr: 0x210E0, symSize: 0x140 }
  - { offset: 0x5D46F, size: 0x8, addend: 0x0, symName: __RINvNtNtCsdGrGZaRBwMb_3syn3gen4fold11fold_fn_argNtNvCs9jpTMRK2ijq_11yoke_derive16replace_lifetime15ReplaceLifetimeEBO_, symObjAddr: 0x1370, symBinAddr: 0x21220, symSize: 0x120 }
  - { offset: 0x5D4EC, size: 0x8, addend: 0x0, symName: __RINvNtNtCsdGrGZaRBwMb_3syn3gen4fold11fold_memberNtNvCs9jpTMRK2ijq_11yoke_derive16replace_lifetime15ReplaceLifetimeEBO_, symObjAddr: 0x1490, symBinAddr: 0x21340, symSize: 0xC0 }
  - { offset: 0x5D567, size: 0x8, addend: 0x0, symName: __RINvNtNtCsdGrGZaRBwMb_3syn3gen4fold11fold_pat_orNtNvCs9jpTMRK2ijq_11yoke_derive16replace_lifetime15ReplaceLifetimeEBO_, symObjAddr: 0x1550, symBinAddr: 0x21400, symSize: 0x170 }
  - { offset: 0x5D5AE, size: 0x8, addend: 0x0, symName: __RINvNtNtCsdGrGZaRBwMb_3syn3gen4fold12fold_expr_ifNtNvCs9jpTMRK2ijq_11yoke_derive16replace_lifetime15ReplaceLifetimeEBP_, symObjAddr: 0x16C0, symBinAddr: 0x21570, symSize: 0x3A0 }
  - { offset: 0x5D614, size: 0x8, addend: 0x0, symName: __RINvNtNtCsdGrGZaRBwMb_3syn3gen4fold12fold_item_fnNtNvCs9jpTMRK2ijq_11yoke_derive16replace_lifetime15ReplaceLifetimeEBP_, symObjAddr: 0x1A60, symBinAddr: 0x21910, symSize: 0x3F0 }
  - { offset: 0x5D67A, size: 0x8, addend: 0x0, symName: __RINvNtNtCsdGrGZaRBwMb_3syn3gen4fold12fold_lit_intNtNvCs9jpTMRK2ijq_11yoke_derive16replace_lifetime15ReplaceLifetimeEBP_, symObjAddr: 0x1E50, symBinAddr: 0x21D00, symSize: 0xC0 }
  - { offset: 0x5D6F4, size: 0x8, addend: 0x0, symName: __RINvNtNtCsdGrGZaRBwMb_3syn3gen4fold12fold_lit_strNtNvCs9jpTMRK2ijq_11yoke_derive16replace_lifetime15ReplaceLifetimeEBP_, symObjAddr: 0x1F10, symBinAddr: 0x21DC0, symSize: 0xC0 }
  - { offset: 0x5D76E, size: 0x8, addend: 0x0, symName: __RINvNtNtCsdGrGZaRBwMb_3syn3gen4fold12fold_variantNtNvCs9jpTMRK2ijq_11yoke_derive16replace_lifetime15ReplaceLifetimeEBP_, symObjAddr: 0x1FD0, symBinAddr: 0x21E80, symSize: 0x2F0 }
  - { offset: 0x5D7B5, size: 0x8, addend: 0x0, symName: __RINvNtNtCsdGrGZaRBwMb_3syn3gen4fold13fold_expr_letNtNvCs9jpTMRK2ijq_11yoke_derive16replace_lifetime15ReplaceLifetimeEBQ_, symObjAddr: 0x22C0, symBinAddr: 0x22170, symSize: 0x440 }
  - { offset: 0x5D83A, size: 0x8, addend: 0x0, symName: __RINvNtNtCsdGrGZaRBwMb_3syn3gen4fold13fold_expr_litNtNvCs9jpTMRK2ijq_11yoke_derive16replace_lifetime15ReplaceLifetimeEBQ_, symObjAddr: 0x2700, symBinAddr: 0x225B0, symSize: 0x140 }
  - { offset: 0x5D881, size: 0x8, addend: 0x0, symName: __RINvNtNtCsdGrGZaRBwMb_3syn3gen4fold13fold_expr_tryNtNvCs9jpTMRK2ijq_11yoke_derive16replace_lifetime15ReplaceLifetimeEBQ_, symObjAddr: 0x2840, symBinAddr: 0x226F0, symSize: 0x270 }
  - { offset: 0x5D8E7, size: 0x8, addend: 0x0, symName: __RINvNtNtCsdGrGZaRBwMb_3syn3gen4fold13fold_genericsNtNvCs9jpTMRK2ijq_11yoke_derive16replace_lifetime15ReplaceLifetimeEBQ_, symObjAddr: 0x2AB0, symBinAddr: 0x22960, symSize: 0x1A0 }
  - { offset: 0x5D92E, size: 0x8, addend: 0x0, symName: __RINvNtNtCsdGrGZaRBwMb_3syn3gen4fold13fold_item_modNtNvCs9jpTMRK2ijq_11yoke_derive16replace_lifetime15ReplaceLifetimeEBQ_, symObjAddr: 0x2C50, symBinAddr: 0x22B00, symSize: 0x320 }
  - { offset: 0x5D975, size: 0x8, addend: 0x0, symName: __RINvNtNtCsdGrGZaRBwMb_3syn3gen4fold13fold_item_useNtNvCs9jpTMRK2ijq_11yoke_derive16replace_lifetime15ReplaceLifetimeEBQ_, symObjAddr: 0x2F70, symBinAddr: 0x22E20, symSize: 0x2A0 }
  - { offset: 0x5D9BC, size: 0x8, addend: 0x0, symName: __RINvNtNtCsdGrGZaRBwMb_3syn3gen4fold13fold_lit_boolNtNvCs9jpTMRK2ijq_11yoke_derive16replace_lifetime15ReplaceLifetimeEBQ_, symObjAddr: 0x3210, symBinAddr: 0x230C0, symSize: 0x30 }
  - { offset: 0x5DA02, size: 0x8, addend: 0x0, symName: __RINvNtNtCsdGrGZaRBwMb_3syn3gen4fold13fold_lit_byteNtNvCs9jpTMRK2ijq_11yoke_derive16replace_lifetime15ReplaceLifetimeEBQ_, symObjAddr: 0x3240, symBinAddr: 0x230F0, symSize: 0xC0 }
  - { offset: 0x5DA7C, size: 0x8, addend: 0x0, symName: __RINvNtNtCsdGrGZaRBwMb_3syn3gen4fold13fold_lit_charNtNvCs9jpTMRK2ijq_11yoke_derive16replace_lifetime15ReplaceLifetimeEBQ_, symObjAddr: 0x3300, symBinAddr: 0x231B0, symSize: 0xC0 }
  - { offset: 0x5DAF6, size: 0x8, addend: 0x0, symName: __RINvNtNtCsdGrGZaRBwMb_3syn3gen4fold13fold_lit_cstrNtNvCs9jpTMRK2ijq_11yoke_derive16replace_lifetime15ReplaceLifetimeEBQ_, symObjAddr: 0x33C0, symBinAddr: 0x23270, symSize: 0xC0 }
  - { offset: 0x5DB70, size: 0x8, addend: 0x0, symName: __RINvNtNtCsdGrGZaRBwMb_3syn3gen4fold13fold_pat_restNtNvCs9jpTMRK2ijq_11yoke_derive16replace_lifetime15ReplaceLifetimeEBQ_, symObjAddr: 0x3480, symBinAddr: 0x23330, symSize: 0x80 }
  - { offset: 0x5DBB8, size: 0x8, addend: 0x0, symName: __RINvNtNtCsdGrGZaRBwMb_3syn3gen4fold13fold_pat_typeNtNvCs9jpTMRK2ijq_11yoke_derive16replace_lifetime15ReplaceLifetimeEBQ_, symObjAddr: 0x3500, symBinAddr: 0x233B0, symSize: 0x430 }
  - { offset: 0x5DC3D, size: 0x8, addend: 0x0, symName: __RINvNtNtCsdGrGZaRBwMb_3syn3gen4fold13fold_pat_wildNtNvCs9jpTMRK2ijq_11yoke_derive16replace_lifetime15ReplaceLifetimeEBQ_, symObjAddr: 0x3930, symBinAddr: 0x237E0, symSize: 0x80 }
  - { offset: 0x5DC85, size: 0x8, addend: 0x0, symName: __RINvNtNtCsdGrGZaRBwMb_3syn3gen4fold13fold_receiverNtNvCs9jpTMRK2ijq_11yoke_derive16replace_lifetime15ReplaceLifetimeEBQ_, symObjAddr: 0x39B0, symBinAddr: 0x23860, symSize: 0x360 }
  - { offset: 0x5DCEB, size: 0x8, addend: 0x0, symName: __RINvNtNtCsdGrGZaRBwMb_3syn3gen4fold13fold_type_ptrNtNvCs9jpTMRK2ijq_11yoke_derive16replace_lifetime15ReplaceLifetimeEBQ_, symObjAddr: 0x3D10, symBinAddr: 0x23BC0, symSize: 0x210 }
  - { offset: 0x5DD51, size: 0x8, addend: 0x0, symName: __RINvNtNtCsdGrGZaRBwMb_3syn3gen4fold13fold_use_globNtNvCs9jpTMRK2ijq_11yoke_derive16replace_lifetime15ReplaceLifetimeEBQ_, symObjAddr: 0x3F20, symBinAddr: 0x23DD0, symSize: 0x30 }
  - { offset: 0x5DD97, size: 0x8, addend: 0x0, symName: __RINvNtNtCsdGrGZaRBwMb_3syn3gen4fold13fold_use_nameNtNvCs9jpTMRK2ijq_11yoke_derive16replace_lifetime15ReplaceLifetimeEBQ_, symObjAddr: 0x3F50, symBinAddr: 0x23E00, symSize: 0x70 }
  - { offset: 0x5DDDE, size: 0x8, addend: 0x0, symName: __RINvNtNtCsdGrGZaRBwMb_3syn3gen4fold13fold_use_pathNtNvCs9jpTMRK2ijq_11yoke_derive16replace_lifetime15ReplaceLifetimeEBQ_, symObjAddr: 0x3FC0, symBinAddr: 0x23E70, symSize: 0x290 }
  - { offset: 0x5DE44, size: 0x8, addend: 0x0, symName: __RINvNtNtCsdGrGZaRBwMb_3syn3gen4fold13fold_use_treeNtNvCs9jpTMRK2ijq_11yoke_derive16replace_lifetime15ReplaceLifetimeEBQ_, symObjAddr: 0x4250, symBinAddr: 0x24100, symSize: 0x270 }
  - { offset: 0x5DF1E, size: 0x8, addend: 0x0, symName: __RINvNtNtCsdGrGZaRBwMb_3syn3gen4fold13fold_variadicNtNvCs9jpTMRK2ijq_11yoke_derive16replace_lifetime15ReplaceLifetimeEBQ_, symObjAddr: 0x44C0, symBinAddr: 0x24370, symSize: 0x160 }
  - { offset: 0x5DF65, size: 0x8, addend: 0x0, symName: __RINvNtNtCsdGrGZaRBwMb_3syn3gen4fold14fold_attributeNtNvCs9jpTMRK2ijq_11yoke_derive16replace_lifetime15ReplaceLifetimeEBR_, symObjAddr: 0x4620, symBinAddr: 0x244D0, symSize: 0x180 }
  - { offset: 0x5DFAC, size: 0x8, addend: 0x0, symName: __RINvNtNtCsdGrGZaRBwMb_3syn3gen4fold14fold_expr_callNtNvCs9jpTMRK2ijq_11yoke_derive16replace_lifetime15ReplaceLifetimeEBR_, symObjAddr: 0x47A0, symBinAddr: 0x24650, symSize: 0x320 }
  - { offset: 0x5E012, size: 0x8, addend: 0x0, symName: __RINvNtNtCsdGrGZaRBwMb_3syn3gen4fold14fold_expr_castNtNvCs9jpTMRK2ijq_11yoke_derive16replace_lifetime15ReplaceLifetimeEBR_, symObjAddr: 0x4AC0, symBinAddr: 0x24970, symSize: 0x430 }
  - { offset: 0x5E097, size: 0x8, addend: 0x0, symName: __RINvNtNtCsdGrGZaRBwMb_3syn3gen4fold14fold_expr_loopNtNvCs9jpTMRK2ijq_11yoke_derive16replace_lifetime15ReplaceLifetimeEBR_, symObjAddr: 0x4EF0, symBinAddr: 0x24DA0, symSize: 0x230 }
  - { offset: 0x5E0DE, size: 0x8, addend: 0x0, symName: __RINvNtNtCsdGrGZaRBwMb_3syn3gen4fold14fold_expr_pathNtNvCs9jpTMRK2ijq_11yoke_derive16replace_lifetime15ReplaceLifetimeEBR_, symObjAddr: 0x5120, symBinAddr: 0x24FD0, symSize: 0x220 }
  - { offset: 0x5E125, size: 0x8, addend: 0x0, symName: __RINvNtNtCsdGrGZaRBwMb_3syn3gen4fold14fold_field_patNtNvCs9jpTMRK2ijq_11yoke_derive16replace_lifetime15ReplaceLifetimeEBR_, symObjAddr: 0x5340, symBinAddr: 0x251F0, symSize: 0x320 }
  - { offset: 0x5E18B, size: 0x8, addend: 0x0, symName: __RINvNtNtCsdGrGZaRBwMb_3syn3gen4fold14fold_impl_itemNtNvCs9jpTMRK2ijq_11yoke_derive16replace_lifetime15ReplaceLifetimeEBR_, symObjAddr: 0x5660, symBinAddr: 0x25510, symSize: 0x290 }
  - { offset: 0x5E265, size: 0x8, addend: 0x0, symName: __RINvNtNtCsdGrGZaRBwMb_3syn3gen4fold14fold_item_enumNtNvCs9jpTMRK2ijq_11yoke_derive16replace_lifetime15ReplaceLifetimeEBR_, symObjAddr: 0x58F0, symBinAddr: 0x257A0, symSize: 0x3E0 }
  - { offset: 0x5E2AC, size: 0x8, addend: 0x0, symName: __RINvNtNtCsdGrGZaRBwMb_3syn3gen4fold14fold_item_implNtNvCs9jpTMRK2ijq_11yoke_derive16replace_lifetime15ReplaceLifetimeEBR_, symObjAddr: 0x5CD0, symBinAddr: 0x25B80, symSize: 0x540 }
  - { offset: 0x5E312, size: 0x8, addend: 0x0, symName: __RINvNtNtCsdGrGZaRBwMb_3syn3gen4fold14fold_item_typeNtNvCs9jpTMRK2ijq_11yoke_derive16replace_lifetime15ReplaceLifetimeEBR_, symObjAddr: 0x6210, symBinAddr: 0x260C0, symSize: 0x4D0 }
  - { offset: 0x5E378, size: 0x8, addend: 0x0, symName: __RINvNtNtCsdGrGZaRBwMb_3syn3gen4fold14fold_lit_floatNtNvCs9jpTMRK2ijq_11yoke_derive16replace_lifetime15ReplaceLifetimeEBR_, symObjAddr: 0x66E0, symBinAddr: 0x26590, symSize: 0xC0 }
  - { offset: 0x5E3F2, size: 0x8, addend: 0x0, symName: __RINvNtNtCsdGrGZaRBwMb_3syn3gen4fold14fold_meta_listNtNvCs9jpTMRK2ijq_11yoke_derive16replace_lifetime15ReplaceLifetimeEBR_, symObjAddr: 0x67A0, symBinAddr: 0x26650, symSize: 0x1C0 }
  - { offset: 0x5E439, size: 0x8, addend: 0x0, symName: __RINvNtNtCsdGrGZaRBwMb_3syn3gen4fold14fold_pat_identNtNvCs9jpTMRK2ijq_11yoke_derive16replace_lifetime15ReplaceLifetimeEBR_, symObjAddr: 0x6960, symBinAddr: 0x26810, symSize: 0x220 }
  - { offset: 0x5E480, size: 0x8, addend: 0x0, symName: __RINvNtNtCsdGrGZaRBwMb_3syn3gen4fold14fold_pat_parenNtNvCs9jpTMRK2ijq_11yoke_derive16replace_lifetime15ReplaceLifetimeEBR_, symObjAddr: 0x6B80, symBinAddr: 0x26A30, symSize: 0x280 }
  - { offset: 0x5E4E6, size: 0x8, addend: 0x0, symName: __RINvNtNtCsdGrGZaRBwMb_3syn3gen4fold14fold_pat_sliceNtNvCs9jpTMRK2ijq_11yoke_derive16replace_lifetime15ReplaceLifetimeEBR_, symObjAddr: 0x6E00, symBinAddr: 0x26CB0, symSize: 0x180 }
  - { offset: 0x5E52D, size: 0x8, addend: 0x0, symName: __RINvNtNtCsdGrGZaRBwMb_3syn3gen4fold14fold_pat_tupleNtNvCs9jpTMRK2ijq_11yoke_derive16replace_lifetime15ReplaceLifetimeEBR_, symObjAddr: 0x6F80, symBinAddr: 0x26E30, symSize: 0x180 }
  - { offset: 0x5E574, size: 0x8, addend: 0x0, symName: __RINvNtNtCsdGrGZaRBwMb_3syn3gen4fold14fold_signatureNtNvCs9jpTMRK2ijq_11yoke_derive16replace_lifetime15ReplaceLifetimeEBR_, symObjAddr: 0x7100, symBinAddr: 0x26FB0, symSize: 0x540 }
  - { offset: 0x5E5BB, size: 0x8, addend: 0x0, symName: __RINvNtNtCsdGrGZaRBwMb_3syn3gen4fold14fold_type_pathNtNvCs9jpTMRK2ijq_11yoke_derive16replace_lifetime15ReplaceLifetimeEBR_, symObjAddr: 0x7640, symBinAddr: 0x274F0, symSize: 0x180 }
  - { offset: 0x5E602, size: 0x8, addend: 0x0, symName: __RINvNtNtCsdGrGZaRBwMb_3syn3gen4fold14fold_use_groupNtNvCs9jpTMRK2ijq_11yoke_derive16replace_lifetime15ReplaceLifetimeEBR_, symObjAddr: 0x77C0, symBinAddr: 0x27670, symSize: 0xA0 }
  - { offset: 0x5E649, size: 0x8, addend: 0x0, symName: __RINvNtNtCsdGrGZaRBwMb_3syn3gen4fold15fold_assoc_typeNtNvCs9jpTMRK2ijq_11yoke_derive16replace_lifetime15ReplaceLifetimeEBS_, symObjAddr: 0x7860, symBinAddr: 0x27710, symSize: 0x270 }
  - { offset: 0x5E690, size: 0x8, addend: 0x0, symName: __RINvNtNtCsdGrGZaRBwMb_3syn3gen4fold15fold_attr_styleNtNvCs9jpTMRK2ijq_11yoke_derive16replace_lifetime15ReplaceLifetimeEBS_, symObjAddr: 0x7AD0, symBinAddr: 0x27980, symSize: 0x60 }
  - { offset: 0x5E6F4, size: 0x8, addend: 0x0, symName: __RINvNtNtCsdGrGZaRBwMb_3syn3gen4fold15fold_constraintNtNvCs9jpTMRK2ijq_11yoke_derive16replace_lifetime15ReplaceLifetimeEBS_, symObjAddr: 0x7B30, symBinAddr: 0x279E0, symSize: 0x240 }
  - { offset: 0x5E73B, size: 0x8, addend: 0x0, symName: __RINvNtNtCsdGrGZaRBwMb_3syn3gen4fold15fold_expr_arrayNtNvCs9jpTMRK2ijq_11yoke_derive16replace_lifetime15ReplaceLifetimeEBS_, symObjAddr: 0x7D70, symBinAddr: 0x27C20, symSize: 0x180 }
  - { offset: 0x5E782, size: 0x8, addend: 0x0, symName: __RINvNtNtCsdGrGZaRBwMb_3syn3gen4fold15fold_expr_asyncNtNvCs9jpTMRK2ijq_11yoke_derive16replace_lifetime15ReplaceLifetimeEBS_, symObjAddr: 0x7EF0, symBinAddr: 0x27DA0, symSize: 0x190 }
  - { offset: 0x5E7C9, size: 0x8, addend: 0x0, symName: __RINvNtNtCsdGrGZaRBwMb_3syn3gen4fold15fold_expr_awaitNtNvCs9jpTMRK2ijq_11yoke_derive16replace_lifetime15ReplaceLifetimeEBS_, symObjAddr: 0x8080, symBinAddr: 0x27F30, symSize: 0x270 }
  - { offset: 0x5E82F, size: 0x8, addend: 0x0, symName: __RINvNtNtCsdGrGZaRBwMb_3syn3gen4fold15fold_expr_blockNtNvCs9jpTMRK2ijq_11yoke_derive16replace_lifetime15ReplaceLifetimeEBS_, symObjAddr: 0x82F0, symBinAddr: 0x281A0, symSize: 0x210 }
  - { offset: 0x5E876, size: 0x8, addend: 0x0, symName: __RINvNtNtCsdGrGZaRBwMb_3syn3gen4fold15fold_expr_breakNtNvCs9jpTMRK2ijq_11yoke_derive16replace_lifetime15ReplaceLifetimeEBS_, symObjAddr: 0x8500, symBinAddr: 0x283B0, symSize: 0x1D0 }
  - { offset: 0x5E8BD, size: 0x8, addend: 0x0, symName: __RINvNtNtCsdGrGZaRBwMb_3syn3gen4fold15fold_expr_constNtNvCs9jpTMRK2ijq_11yoke_derive16replace_lifetime15ReplaceLifetimeEBS_, symObjAddr: 0x86D0, symBinAddr: 0x28580, symSize: 0x170 }
  - { offset: 0x5E904, size: 0x8, addend: 0x0, symName: __RINvNtNtCsdGrGZaRBwMb_3syn3gen4fold15fold_expr_fieldNtNvCs9jpTMRK2ijq_11yoke_derive16replace_lifetime15ReplaceLifetimeEBS_, symObjAddr: 0x8840, symBinAddr: 0x286F0, symSize: 0x300 }
  - { offset: 0x5E96A, size: 0x8, addend: 0x0, symName: __RINvNtNtCsdGrGZaRBwMb_3syn3gen4fold15fold_expr_groupNtNvCs9jpTMRK2ijq_11yoke_derive16replace_lifetime15ReplaceLifetimeEBS_, symObjAddr: 0x8B40, symBinAddr: 0x289F0, symSize: 0x270 }
  - { offset: 0x5E9D0, size: 0x8, addend: 0x0, symName: __RINvNtNtCsdGrGZaRBwMb_3syn3gen4fold15fold_expr_indexNtNvCs9jpTMRK2ijq_11yoke_derive16replace_lifetime15ReplaceLifetimeEBS_, symObjAddr: 0x8DB0, symBinAddr: 0x28C60, symSize: 0x450 }
  - { offset: 0x5EA55, size: 0x8, addend: 0x0, symName: __RINvNtNtCsdGrGZaRBwMb_3syn3gen4fold15fold_expr_inferNtNvCs9jpTMRK2ijq_11yoke_derive16replace_lifetime15ReplaceLifetimeEBS_, symObjAddr: 0x9200, symBinAddr: 0x290B0, symSize: 0x80 }
  - { offset: 0x5EA9D, size: 0x8, addend: 0x0, symName: __RINvNtNtCsdGrGZaRBwMb_3syn3gen4fold15fold_expr_macroNtNvCs9jpTMRK2ijq_11yoke_derive16replace_lifetime15ReplaceLifetimeEBS_, symObjAddr: 0x9280, symBinAddr: 0x29130, symSize: 0x150 }
  - { offset: 0x5EAE4, size: 0x8, addend: 0x0, symName: __RINvNtNtCsdGrGZaRBwMb_3syn3gen4fold15fold_expr_matchNtNvCs9jpTMRK2ijq_11yoke_derive16replace_lifetime15ReplaceLifetimeEBS_, symObjAddr: 0x93D0, symBinAddr: 0x29280, symSize: 0x330 }
  - { offset: 0x5EB4A, size: 0x8, addend: 0x0, symName: __RINvNtNtCsdGrGZaRBwMb_3syn3gen4fold15fold_expr_parenNtNvCs9jpTMRK2ijq_11yoke_derive16replace_lifetime15ReplaceLifetimeEBS_, symObjAddr: 0x9700, symBinAddr: 0x295B0, symSize: 0x280 }
  - { offset: 0x5EBB0, size: 0x8, addend: 0x0, symName: __RINvNtNtCsdGrGZaRBwMb_3syn3gen4fold15fold_expr_rangeNtNvCs9jpTMRK2ijq_11yoke_derive16replace_lifetime15ReplaceLifetimeEBS_, symObjAddr: 0x9980, symBinAddr: 0x29830, symSize: 0x1C0 }
  - { offset: 0x5EBF7, size: 0x8, addend: 0x0, symName: __RINvNtNtCsdGrGZaRBwMb_3syn3gen4fold15fold_expr_tupleNtNvCs9jpTMRK2ijq_11yoke_derive16replace_lifetime15ReplaceLifetimeEBS_, symObjAddr: 0x9B40, symBinAddr: 0x299F0, symSize: 0x180 }
  - { offset: 0x5EC3E, size: 0x8, addend: 0x0, symName: __RINvNtNtCsdGrGZaRBwMb_3syn3gen4fold15fold_expr_unaryNtNvCs9jpTMRK2ijq_11yoke_derive16replace_lifetime15ReplaceLifetimeEBS_, symObjAddr: 0x9CC0, symBinAddr: 0x29B70, symSize: 0x2B0 }
  - { offset: 0x5ECA4, size: 0x8, addend: 0x0, symName: __RINvNtNtCsdGrGZaRBwMb_3syn3gen4fold15fold_expr_whileNtNvCs9jpTMRK2ijq_11yoke_derive16replace_lifetime15ReplaceLifetimeEBS_, symObjAddr: 0x9F70, symBinAddr: 0x29E20, symSize: 0x3D0 }
  - { offset: 0x5ED0A, size: 0x8, addend: 0x0, symName: __RINvNtNtCsdGrGZaRBwMb_3syn3gen4fold15fold_expr_yieldNtNvCs9jpTMRK2ijq_11yoke_derive16replace_lifetime15ReplaceLifetimeEBS_, symObjAddr: 0xA340, symBinAddr: 0x2A1F0, symSize: 0x100 }
  - { offset: 0x5ED51, size: 0x8, addend: 0x0, symName: __RINvNtNtCsdGrGZaRBwMb_3syn3gen4fold15fold_item_constNtNvCs9jpTMRK2ijq_11yoke_derive16replace_lifetime15ReplaceLifetimeEBS_, symObjAddr: 0xA440, symBinAddr: 0x2A2F0, symSize: 0x6C0 }
  - { offset: 0x5EDD6, size: 0x8, addend: 0x0, symName: __RINvNtNtCsdGrGZaRBwMb_3syn3gen4fold15fold_item_macroNtNvCs9jpTMRK2ijq_11yoke_derive16replace_lifetime15ReplaceLifetimeEBS_, symObjAddr: 0xAB00, symBinAddr: 0x2A9B0, symSize: 0x230 }
  - { offset: 0x5EE1D, size: 0x8, addend: 0x0, symName: __RINvNtNtCsdGrGZaRBwMb_3syn3gen4fold15fold_item_traitNtNvCs9jpTMRK2ijq_11yoke_derive16replace_lifetime15ReplaceLifetimeEBS_, symObjAddr: 0xAD30, symBinAddr: 0x2ABE0, symSize: 0x530 }
  - { offset: 0x5EE64, size: 0x8, addend: 0x0, symName: __RINvNtNtCsdGrGZaRBwMb_3syn3gen4fold15fold_item_unionNtNvCs9jpTMRK2ijq_11yoke_derive16replace_lifetime15ReplaceLifetimeEBS_, symObjAddr: 0xB260, symBinAddr: 0x2B110, symSize: 0x3C0 }
  - { offset: 0x5EEAB, size: 0x8, addend: 0x0, symName: __RINvNtNtCsdGrGZaRBwMb_3syn3gen4fold15fold_local_initNtNvCs9jpTMRK2ijq_11yoke_derive16replace_lifetime15ReplaceLifetimeEBS_, symObjAddr: 0xB620, symBinAddr: 0x2B4D0, symSize: 0x240 }
  - { offset: 0x5EF11, size: 0x8, addend: 0x0, symName: __RINvNtNtCsdGrGZaRBwMb_3syn3gen4fold15fold_pat_structNtNvCs9jpTMRK2ijq_11yoke_derive16replace_lifetime15ReplaceLifetimeEBS_, symObjAddr: 0xB860, symBinAddr: 0x2B710, symSize: 0x3F0 }
  - { offset: 0x5EF58, size: 0x8, addend: 0x0, symName: __RINvNtNtCsdGrGZaRBwMb_3syn3gen4fold15fold_stmt_macroNtNvCs9jpTMRK2ijq_11yoke_derive16replace_lifetime15ReplaceLifetimeEBS_, symObjAddr: 0xBC50, symBinAddr: 0x2BB00, symSize: 0x170 }
  - { offset: 0x5EF9F, size: 0x8, addend: 0x0, symName: __RINvNtNtCsdGrGZaRBwMb_3syn3gen4fold15fold_trait_itemNtNvCs9jpTMRK2ijq_11yoke_derive16replace_lifetime15ReplaceLifetimeEBS_, symObjAddr: 0xBDC0, symBinAddr: 0x2BC70, symSize: 0x290 }
  - { offset: 0x5F079, size: 0x8, addend: 0x0, symName: __RINvNtNtCsdGrGZaRBwMb_3syn3gen4fold15fold_type_arrayNtNvCs9jpTMRK2ijq_11yoke_derive16replace_lifetime15ReplaceLifetimeEBS_, symObjAddr: 0xC050, symBinAddr: 0x2BF00, symSize: 0x2A0 }
  - { offset: 0x5F0DF, size: 0x8, addend: 0x0, symName: __RINvNtNtCsdGrGZaRBwMb_3syn3gen4fold15fold_type_groupNtNvCs9jpTMRK2ijq_11yoke_derive16replace_lifetime15ReplaceLifetimeEBS_, symObjAddr: 0xC2F0, symBinAddr: 0x2C1A0, symSize: 0x1A0 }
  - { offset: 0x5F145, size: 0x8, addend: 0x0, symName: __RINvNtNtCsdGrGZaRBwMb_3syn3gen4fold15fold_type_inferNtNvCs9jpTMRK2ijq_11yoke_derive16replace_lifetime15ReplaceLifetimeEBS_, symObjAddr: 0xC490, symBinAddr: 0x2C340, symSize: 0x30 }
  - { offset: 0x5F18B, size: 0x8, addend: 0x0, symName: __RINvNtNtCsdGrGZaRBwMb_3syn3gen4fold15fold_type_macroNtNvCs9jpTMRK2ijq_11yoke_derive16replace_lifetime15ReplaceLifetimeEBS_, symObjAddr: 0xC4C0, symBinAddr: 0x2C370, symSize: 0x90 }
  - { offset: 0x5F1D3, size: 0x8, addend: 0x0, symName: __RINvNtNtCsdGrGZaRBwMb_3syn3gen4fold15fold_type_neverNtNvCs9jpTMRK2ijq_11yoke_derive16replace_lifetime15ReplaceLifetimeEBS_, symObjAddr: 0xC550, symBinAddr: 0x2C400, symSize: 0x30 }
  - { offset: 0x5F219, size: 0x8, addend: 0x0, symName: __RINvNtNtCsdGrGZaRBwMb_3syn3gen4fold15fold_type_paramNtNvCs9jpTMRK2ijq_11yoke_derive16replace_lifetime15ReplaceLifetimeEBS_, symObjAddr: 0xC580, symBinAddr: 0x2C430, symSize: 0x330 }
  - { offset: 0x5F260, size: 0x8, addend: 0x0, symName: __RINvNtNtCsdGrGZaRBwMb_3syn3gen4fold15fold_type_parenNtNvCs9jpTMRK2ijq_11yoke_derive16replace_lifetime15ReplaceLifetimeEBS_, symObjAddr: 0xC8B0, symBinAddr: 0x2C760, symSize: 0x1D0 }
  - { offset: 0x5F2C6, size: 0x8, addend: 0x0, symName: __RINvNtNtCsdGrGZaRBwMb_3syn3gen4fold15fold_type_sliceNtNvCs9jpTMRK2ijq_11yoke_derive16replace_lifetime15ReplaceLifetimeEBS_, symObjAddr: 0xCA80, symBinAddr: 0x2C930, symSize: 0x1D0 }
  - { offset: 0x5F32C, size: 0x8, addend: 0x0, symName: __RINvNtNtCsdGrGZaRBwMb_3syn3gen4fold15fold_type_tupleNtNvCs9jpTMRK2ijq_11yoke_derive16replace_lifetime15ReplaceLifetimeEBS_, symObjAddr: 0xCC50, symBinAddr: 0x2CB00, symSize: 0xA0 }
  - { offset: 0x5F373, size: 0x8, addend: 0x0, symName: __RINvNtNtCsdGrGZaRBwMb_3syn3gen4fold15fold_use_renameNtNvCs9jpTMRK2ijq_11yoke_derive16replace_lifetime15ReplaceLifetimeEBS_, symObjAddr: 0xCCF0, symBinAddr: 0x2CBA0, symSize: 0x150 }
  - { offset: 0x5F3BA, size: 0x8, addend: 0x0, symName: __RINvNtNtCsdGrGZaRBwMb_3syn3gen4fold15fold_visibilityNtNvCs9jpTMRK2ijq_11yoke_derive16replace_lifetime15ReplaceLifetimeEBS_, symObjAddr: 0xCE40, symBinAddr: 0x2CCF0, symSize: 0xF0 }
  - { offset: 0x5F43E, size: 0x8, addend: 0x0, symName: __RINvNtNtCsdGrGZaRBwMb_3syn3gen4fold16fold_assoc_constNtNvCs9jpTMRK2ijq_11yoke_derive16replace_lifetime15ReplaceLifetimeEBT_, symObjAddr: 0xCF30, symBinAddr: 0x2CDE0, symSize: 0x270 }
  - { offset: 0x5F485, size: 0x8, addend: 0x0, symName: __RINvNtNtCsdGrGZaRBwMb_3syn3gen4fold16fold_bare_fn_argNtNvCs9jpTMRK2ijq_11yoke_derive16replace_lifetime15ReplaceLifetimeEBT_, symObjAddr: 0xD1A0, symBinAddr: 0x2D050, symSize: 0x240 }
  - { offset: 0x5F4CC, size: 0x8, addend: 0x0, symName: __RINvNtNtCsdGrGZaRBwMb_3syn3gen4fold16fold_const_paramNtNvCs9jpTMRK2ijq_11yoke_derive16replace_lifetime15ReplaceLifetimeEBT_, symObjAddr: 0xD3E0, symBinAddr: 0x2D290, symSize: 0x320 }
  - { offset: 0x5F513, size: 0x8, addend: 0x0, symName: __RINvNtNtCsdGrGZaRBwMb_3syn3gen4fold16fold_expr_assignNtNvCs9jpTMRK2ijq_11yoke_derive16replace_lifetime15ReplaceLifetimeEBT_, symObjAddr: 0xD700, symBinAddr: 0x2D5B0, symSize: 0x430 }
  - { offset: 0x5F598, size: 0x8, addend: 0x0, symName: __RINvNtNtCsdGrGZaRBwMb_3syn3gen4fold16fold_expr_binaryNtNvCs9jpTMRK2ijq_11yoke_derive16replace_lifetime15ReplaceLifetimeEBT_, symObjAddr: 0xDB30, symBinAddr: 0x2D9E0, symSize: 0x470 }
  - { offset: 0x5F61D, size: 0x8, addend: 0x0, symName: __RINvNtNtCsdGrGZaRBwMb_3syn3gen4fold16fold_expr_repeatNtNvCs9jpTMRK2ijq_11yoke_derive16replace_lifetime15ReplaceLifetimeEBT_, symObjAddr: 0xDFA0, symBinAddr: 0x2DE50, symSize: 0x460 }
  - { offset: 0x5F6A2, size: 0x8, addend: 0x0, symName: __RINvNtNtCsdGrGZaRBwMb_3syn3gen4fold16fold_expr_returnNtNvCs9jpTMRK2ijq_11yoke_derive16replace_lifetime15ReplaceLifetimeEBT_, symObjAddr: 0xE400, symBinAddr: 0x2E2B0, symSize: 0x100 }
  - { offset: 0x5F6E9, size: 0x8, addend: 0x0, symName: __RINvNtNtCsdGrGZaRBwMb_3syn3gen4fold16fold_expr_structNtNvCs9jpTMRK2ijq_11yoke_derive16replace_lifetime15ReplaceLifetimeEBT_, symObjAddr: 0xE500, symBinAddr: 0x2E3B0, symSize: 0x3B0 }
  - { offset: 0x5F730, size: 0x8, addend: 0x0, symName: __RINvNtNtCsdGrGZaRBwMb_3syn3gen4fold16fold_expr_unsafeNtNvCs9jpTMRK2ijq_11yoke_derive16replace_lifetime15ReplaceLifetimeEBT_, symObjAddr: 0xE8B0, symBinAddr: 0x2E760, symSize: 0x170 }
  - { offset: 0x5F777, size: 0x8, addend: 0x0, symName: __RINvNtNtCsdGrGZaRBwMb_3syn3gen4fold16fold_field_valueNtNvCs9jpTMRK2ijq_11yoke_derive16replace_lifetime15ReplaceLifetimeEBT_, symObjAddr: 0xEA20, symBinAddr: 0x2E8D0, symSize: 0x240 }
  - { offset: 0x5F7BE, size: 0x8, addend: 0x0, symName: __RINvNtNtCsdGrGZaRBwMb_3syn3gen4fold16fold_item_staticNtNvCs9jpTMRK2ijq_11yoke_derive16replace_lifetime15ReplaceLifetimeEBT_, symObjAddr: 0xEC60, symBinAddr: 0x2EB10, symSize: 0x620 }
  - { offset: 0x5F843, size: 0x8, addend: 0x0, symName: __RINvNtNtCsdGrGZaRBwMb_3syn3gen4fold16fold_item_structNtNvCs9jpTMRK2ijq_11yoke_derive16replace_lifetime15ReplaceLifetimeEBT_, symObjAddr: 0xF280, symBinAddr: 0x2F130, symSize: 0x3E0 }
  - { offset: 0x5F88A, size: 0x8, addend: 0x0, symName: __RINvNtNtCsdGrGZaRBwMb_3syn3gen4fold16fold_return_typeNtNvCs9jpTMRK2ijq_11yoke_derive16replace_lifetime15ReplaceLifetimeEBT_, symObjAddr: 0xF660, symBinAddr: 0x2F510, symSize: 0x200 }
  - { offset: 0x5F918, size: 0x8, addend: 0x0, symName: __RINvNtNtCsdGrGZaRBwMb_3syn3gen4fold16fold_trait_boundNtNvCs9jpTMRK2ijq_11yoke_derive16replace_lifetime15ReplaceLifetimeEBT_, symObjAddr: 0xF860, symBinAddr: 0x2F710, symSize: 0x240 }
  - { offset: 0x5F95F, size: 0x8, addend: 0x0, symName: __RINvNtNtCsdGrGZaRBwMb_3syn3gen4fold17fold_expr_closureNtNvCs9jpTMRK2ijq_11yoke_derive16replace_lifetime15ReplaceLifetimeEBU_, symObjAddr: 0xFAA0, symBinAddr: 0x2F950, symSize: 0x570 }
  - { offset: 0x5F9C5, size: 0x8, addend: 0x0, symName: __RINvNtNtCsdGrGZaRBwMb_3syn3gen4fold17fold_fields_namedNtNvCs9jpTMRK2ijq_11yoke_derive16replace_lifetime15ReplaceLifetimeEBU_, symObjAddr: 0x10010, symBinAddr: 0x2FEC0, symSize: 0xA0 }
  - { offset: 0x5FA0C, size: 0x8, addend: 0x0, symName: __RINvNtNtCsdGrGZaRBwMb_3syn3gen4fold17fold_foreign_itemNtNvCs9jpTMRK2ijq_11yoke_derive16replace_lifetime15ReplaceLifetimeEBU_, symObjAddr: 0x100B0, symBinAddr: 0x2FF60, symSize: 0x290 }
  - { offset: 0x5FAE6, size: 0x8, addend: 0x0, symName: __RINvNtNtCsdGrGZaRBwMb_3syn3gen4fold17fold_impl_item_fnNtNvCs9jpTMRK2ijq_11yoke_derive16replace_lifetime15ReplaceLifetimeEBU_, symObjAddr: 0x10340, symBinAddr: 0x301F0, symSize: 0x330 }
  - { offset: 0x5FB2D, size: 0x8, addend: 0x0, symName: __RINvNtNtCsdGrGZaRBwMb_3syn3gen4fold17fold_lit_byte_strNtNvCs9jpTMRK2ijq_11yoke_derive16replace_lifetime15ReplaceLifetimeEBU_, symObjAddr: 0x10670, symBinAddr: 0x30520, symSize: 0xC0 }
  - { offset: 0x5FBA7, size: 0x8, addend: 0x0, symName: __RINvNtNtCsdGrGZaRBwMb_3syn3gen4fold17fold_path_segmentNtNvCs9jpTMRK2ijq_11yoke_derive16replace_lifetime15ReplaceLifetimeEBU_, symObjAddr: 0x10730, symBinAddr: 0x305E0, symSize: 0x180 }
  - { offset: 0x5FBEE, size: 0x8, addend: 0x0, symName: __RINvNtNtCsdGrGZaRBwMb_3syn3gen4fold17fold_range_limitsNtNvCs9jpTMRK2ijq_11yoke_derive16replace_lifetime15ReplaceLifetimeEBU_, symObjAddr: 0x108B0, symBinAddr: 0x30760, symSize: 0x80 }
  - { offset: 0x5FC71, size: 0x8, addend: 0x0, symName: __RINvNtNtCsdGrGZaRBwMb_3syn3gen4fold17fold_type_bare_fnNtNvCs9jpTMRK2ijq_11yoke_derive16replace_lifetime15ReplaceLifetimeEBU_, symObjAddr: 0x10930, symBinAddr: 0x307E0, symSize: 0x3F0 }
  - { offset: 0x5FCB8, size: 0x8, addend: 0x0, symName: __RINvNtNtCsdGrGZaRBwMb_3syn3gen4fold17fold_where_clauseNtNvCs9jpTMRK2ijq_11yoke_derive16replace_lifetime15ReplaceLifetimeEBU_, symObjAddr: 0x10D20, symBinAddr: 0x30BD0, symSize: 0x90 }
  - { offset: 0x5FCFF, size: 0x8, addend: 0x0, symName: __RINvNtNtCsdGrGZaRBwMb_3syn3gen4fold18fold_bare_variadicNtNvCs9jpTMRK2ijq_11yoke_derive16replace_lifetime15ReplaceLifetimeEBV_, symObjAddr: 0x10DB0, symBinAddr: 0x30C60, symSize: 0x190 }
  - { offset: 0x5FD46, size: 0x8, addend: 0x0, symName: __RINvNtNtCsdGrGZaRBwMb_3syn3gen4fold18fold_expr_continueNtNvCs9jpTMRK2ijq_11yoke_derive16replace_lifetime15ReplaceLifetimeEBV_, symObjAddr: 0x10F40, symBinAddr: 0x30DF0, symSize: 0x170 }
  - { offset: 0x5FD8D, size: 0x8, addend: 0x0, symName: __RINvNtNtCsdGrGZaRBwMb_3syn3gen4fold18fold_expr_for_loopNtNvCs9jpTMRK2ijq_11yoke_derive16replace_lifetime15ReplaceLifetimeEBV_, symObjAddr: 0x110B0, symBinAddr: 0x30F60, symSize: 0x5F0 }
  - { offset: 0x5FE12, size: 0x8, addend: 0x0, symName: __RINvNtNtCsdGrGZaRBwMb_3syn3gen4fold18fold_expr_raw_addrNtNvCs9jpTMRK2ijq_11yoke_derive16replace_lifetime15ReplaceLifetimeEBV_, symObjAddr: 0x116A0, symBinAddr: 0x31550, symSize: 0x2C0 }
  - { offset: 0x5FE78, size: 0x8, addend: 0x0, symName: __RINvNtNtCsdGrGZaRBwMb_3syn3gen4fold18fold_generic_paramNtNvCs9jpTMRK2ijq_11yoke_derive16replace_lifetime15ReplaceLifetimeEBV_, symObjAddr: 0x11960, symBinAddr: 0x31810, symSize: 0x1A0 }
  - { offset: 0x5FF14, size: 0x8, addend: 0x0, symName: __RINvNtNtCsdGrGZaRBwMb_3syn3gen4fold18fold_pat_referenceNtNvCs9jpTMRK2ijq_11yoke_derive16replace_lifetime15ReplaceLifetimeEBV_, symObjAddr: 0x11B00, symBinAddr: 0x319B0, symSize: 0x290 }
  - { offset: 0x5FF7A, size: 0x8, addend: 0x0, symName: __RINvNtNtCsdGrGZaRBwMb_3syn3gen4fold18fold_trait_item_fnNtNvCs9jpTMRK2ijq_11yoke_derive16replace_lifetime15ReplaceLifetimeEBV_, symObjAddr: 0x11D90, symBinAddr: 0x31C40, symSize: 0x240 }
  - { offset: 0x5FFC1, size: 0x8, addend: 0x0, symName: __RINvNtNtCsdGrGZaRBwMb_3syn3gen4fold19fold_captured_paramNtNvCs9jpTMRK2ijq_11yoke_derive16replace_lifetime15ReplaceLifetimeEBW_, symObjAddr: 0x11FD0, symBinAddr: 0x31E80, symSize: 0x120 }
  - { offset: 0x6003D, size: 0x8, addend: 0x0, symName: __RINvNtNtCsdGrGZaRBwMb_3syn3gen4fold19fold_expr_referenceNtNvCs9jpTMRK2ijq_11yoke_derive16replace_lifetime15ReplaceLifetimeEBW_, symObjAddr: 0x120F0, symBinAddr: 0x31FA0, symSize: 0x290 }
  - { offset: 0x600A3, size: 0x8, addend: 0x0, symName: __RINvNtNtCsdGrGZaRBwMb_3syn3gen4fold19fold_expr_try_blockNtNvCs9jpTMRK2ijq_11yoke_derive16replace_lifetime15ReplaceLifetimeEBW_, symObjAddr: 0x12380, symBinAddr: 0x32230, symSize: 0x170 }
  - { offset: 0x600EA, size: 0x8, addend: 0x0, symName: __RINvNtNtCsdGrGZaRBwMb_3syn3gen4fold19fold_fields_unnamedNtNvCs9jpTMRK2ijq_11yoke_derive16replace_lifetime15ReplaceLifetimeEBW_, symObjAddr: 0x124F0, symBinAddr: 0x323A0, symSize: 0xA0 }
  - { offset: 0x60131, size: 0x8, addend: 0x0, symName: __RINvNtNtCsdGrGZaRBwMb_3syn3gen4fold19fold_impl_item_typeNtNvCs9jpTMRK2ijq_11yoke_derive16replace_lifetime15ReplaceLifetimeEBW_, symObjAddr: 0x12590, symBinAddr: 0x32440, symSize: 0x420 }
  - { offset: 0x60178, size: 0x8, addend: 0x0, symName: __RINvNtNtCsdGrGZaRBwMb_3syn3gen4fold19fold_lifetime_paramNtNvCs9jpTMRK2ijq_11yoke_derive16replace_lifetime15ReplaceLifetimeEBW_, symObjAddr: 0x129B0, symBinAddr: 0x32860, symSize: 0x230 }
  - { offset: 0x601BF, size: 0x8, addend: 0x0, symName: __RINvNtNtCsdGrGZaRBwMb_3syn3gen4fold19fold_path_argumentsNtNvCs9jpTMRK2ijq_11yoke_derive16replace_lifetime15ReplaceLifetimeEBW_, symObjAddr: 0x12BE0, symBinAddr: 0x32A90, symSize: 0x160 }
  - { offset: 0x6023C, size: 0x8, addend: 0x0, symName: __RINvNtNtCsdGrGZaRBwMb_3syn3gen4fold19fold_predicate_typeNtNvCs9jpTMRK2ijq_11yoke_derive16replace_lifetime15ReplaceLifetimeEBW_, symObjAddr: 0x12D40, symBinAddr: 0x32BF0, symSize: 0x260 }
  - { offset: 0x60283, size: 0x8, addend: 0x0, symName: __RINvNtNtCsdGrGZaRBwMb_3syn3gen4fold19fold_type_referenceNtNvCs9jpTMRK2ijq_11yoke_derive16replace_lifetime15ReplaceLifetimeEBW_, symObjAddr: 0x12FA0, symBinAddr: 0x32E50, symSize: 0x2B0 }
  - { offset: 0x602E9, size: 0x8, addend: 0x0, symName: __RINvNtNtCsdGrGZaRBwMb_3syn3gen4fold19fold_vis_restrictedNtNvCs9jpTMRK2ijq_11yoke_derive16replace_lifetime15ReplaceLifetimeEBW_, symObjAddr: 0x13250, symBinAddr: 0x33100, symSize: 0x220 }
  - { offset: 0x6034F, size: 0x8, addend: 0x0, symName: __RINvNtNtCsdGrGZaRBwMb_3syn3gen4fold20fold_bound_lifetimesNtNvCs9jpTMRK2ijq_11yoke_derive16replace_lifetime15ReplaceLifetimeEBX_, symObjAddr: 0x13470, symBinAddr: 0x33320, symSize: 0xB0 }
  - { offset: 0x60397, size: 0x8, addend: 0x0, symName: __RINvNtNtCsdGrGZaRBwMb_3syn3gen4fold20fold_foreign_item_fnNtNvCs9jpTMRK2ijq_11yoke_derive16replace_lifetime15ReplaceLifetimeEBX_, symObjAddr: 0x13520, symBinAddr: 0x333D0, symSize: 0x260 }
  - { offset: 0x603DE, size: 0x8, addend: 0x0, symName: __RINvNtNtCsdGrGZaRBwMb_3syn3gen4fold20fold_impl_item_constNtNvCs9jpTMRK2ijq_11yoke_derive16replace_lifetime15ReplaceLifetimeEBX_, symObjAddr: 0x13780, symBinAddr: 0x33630, symSize: 0x4E0 }
  - { offset: 0x60425, size: 0x8, addend: 0x0, symName: __RINvNtNtCsdGrGZaRBwMb_3syn3gen4fold20fold_impl_item_macroNtNvCs9jpTMRK2ijq_11yoke_derive16replace_lifetime15ReplaceLifetimeEBX_, symObjAddr: 0x13C60, symBinAddr: 0x33B10, symSize: 0x170 }
  - { offset: 0x6046C, size: 0x8, addend: 0x0, symName: __RINvNtNtCsdGrGZaRBwMb_3syn3gen4fold20fold_macro_delimiterNtNvCs9jpTMRK2ijq_11yoke_derive16replace_lifetime15ReplaceLifetimeEBX_, symObjAddr: 0x13DD0, symBinAddr: 0x33C80, symSize: 0xE0 }
  - { offset: 0x6050D, size: 0x8, addend: 0x0, symName: __RINvNtNtCsdGrGZaRBwMb_3syn3gen4fold20fold_meta_name_valueNtNvCs9jpTMRK2ijq_11yoke_derive16replace_lifetime15ReplaceLifetimeEBX_, symObjAddr: 0x13EB0, symBinAddr: 0x33D60, symSize: 0x1A0 }
  - { offset: 0x60554, size: 0x8, addend: 0x0, symName: __RINvNtNtCsdGrGZaRBwMb_3syn3gen4fold20fold_precise_captureNtNvCs9jpTMRK2ijq_11yoke_derive16replace_lifetime15ReplaceLifetimeEBX_, symObjAddr: 0x14050, symBinAddr: 0x33F00, symSize: 0xB0 }
  - { offset: 0x6059C, size: 0x8, addend: 0x0, symName: __RINvNtNtCsdGrGZaRBwMb_3syn3gen4fold20fold_trait_item_typeNtNvCs9jpTMRK2ijq_11yoke_derive16replace_lifetime15ReplaceLifetimeEBX_, symObjAddr: 0x14100, symBinAddr: 0x33FB0, symSize: 0x3F0 }
  - { offset: 0x605E3, size: 0x8, addend: 0x0, symName: __RINvNtNtCsdGrGZaRBwMb_3syn3gen4fold20fold_type_impl_traitNtNvCs9jpTMRK2ijq_11yoke_derive16replace_lifetime15ReplaceLifetimeEBX_, symObjAddr: 0x144F0, symBinAddr: 0x343A0, symSize: 0x90 }
  - { offset: 0x6062A, size: 0x8, addend: 0x0, symName: __RINvNtNtCsdGrGZaRBwMb_3syn3gen4fold20fold_where_predicateNtNvCs9jpTMRK2ijq_11yoke_derive16replace_lifetime15ReplaceLifetimeEBX_, symObjAddr: 0x14580, symBinAddr: 0x34430, symSize: 0x110 }
  - { offset: 0x606A7, size: 0x8, addend: 0x0, symName: __RINvNtNtCsdGrGZaRBwMb_3syn3gen4fold21fold_expr_method_callNtNvCs9jpTMRK2ijq_11yoke_derive16replace_lifetime15ReplaceLifetimeEBY_, symObjAddr: 0x14690, symBinAddr: 0x34540, symSize: 0x4E0 }
  - { offset: 0x6070D, size: 0x8, addend: 0x0, symName: __RINvNtNtCsdGrGZaRBwMb_3syn3gen4fold21fold_field_mutabilityNtNvCs9jpTMRK2ijq_11yoke_derive16replace_lifetime15ReplaceLifetimeEBY_, symObjAddr: 0x14B70, symBinAddr: 0x34A20, symSize: 0x20 }
  - { offset: 0x6075B, size: 0x8, addend: 0x0, symName: __RINvNtNtCsdGrGZaRBwMb_3syn3gen4fold21fold_generic_argumentNtNvCs9jpTMRK2ijq_11yoke_derive16replace_lifetime15ReplaceLifetimeEBY_, symObjAddr: 0x14B90, symBinAddr: 0x34A40, symSize: 0x320 }
  - { offset: 0x60854, size: 0x8, addend: 0x0, symName: __RINvNtNtCsdGrGZaRBwMb_3syn3gen4fold21fold_item_foreign_modNtNvCs9jpTMRK2ijq_11yoke_derive16replace_lifetime15ReplaceLifetimeEBY_, symObjAddr: 0x14EC0, symBinAddr: 0x34D60, symSize: 0x220 }
  - { offset: 0x6089B, size: 0x8, addend: 0x0, symName: __RINvNtNtCsdGrGZaRBwMb_3syn3gen4fold21fold_item_trait_aliasNtNvCs9jpTMRK2ijq_11yoke_derive16replace_lifetime15ReplaceLifetimeEBY_, symObjAddr: 0x150E0, symBinAddr: 0x34F80, symSize: 0x3E0 }
  - { offset: 0x608E2, size: 0x8, addend: 0x0, symName: __RINvNtNtCsdGrGZaRBwMb_3syn3gen4fold21fold_pat_tuple_structNtNvCs9jpTMRK2ijq_11yoke_derive16replace_lifetime15ReplaceLifetimeEBY_, symObjAddr: 0x154C0, symBinAddr: 0x35360, symSize: 0x320 }
  - { offset: 0x60929, size: 0x8, addend: 0x0, symName: __RINvNtNtCsdGrGZaRBwMb_3syn3gen4fold21fold_trait_item_constNtNvCs9jpTMRK2ijq_11yoke_derive16replace_lifetime15ReplaceLifetimeEBY_, symObjAddr: 0x157E0, symBinAddr: 0x35680, symSize: 0x3B0 }
  - { offset: 0x60970, size: 0x8, addend: 0x0, symName: __RINvNtNtCsdGrGZaRBwMb_3syn3gen4fold21fold_trait_item_macroNtNvCs9jpTMRK2ijq_11yoke_derive16replace_lifetime15ReplaceLifetimeEBY_, symObjAddr: 0x15B90, symBinAddr: 0x35A30, symSize: 0x170 }
  - { offset: 0x609B7, size: 0x8, addend: 0x0, symName: __RINvNtNtCsdGrGZaRBwMb_3syn3gen4fold21fold_type_param_boundNtNvCs9jpTMRK2ijq_11yoke_derive16replace_lifetime15ReplaceLifetimeEBY_, symObjAddr: 0x15D00, symBinAddr: 0x35BA0, symSize: 0x260 }
  - { offset: 0x60A72, size: 0x8, addend: 0x0, symName: __RINvNtNtCsdGrGZaRBwMb_3syn3gen4fold22fold_foreign_item_typeNtNvCs9jpTMRK2ijq_11yoke_derive16replace_lifetime15ReplaceLifetimeEBZ_, symObjAddr: 0x15F60, symBinAddr: 0x35E00, symSize: 0x310 }
  - { offset: 0x60AB9, size: 0x8, addend: 0x0, symName: __RINvNtNtCsdGrGZaRBwMb_3syn3gen4fold22fold_item_extern_crateNtNvCs9jpTMRK2ijq_11yoke_derive16replace_lifetime15ReplaceLifetimeEBZ_, symObjAddr: 0x16270, symBinAddr: 0x36110, symSize: 0x2F0 }
  - { offset: 0x60B00, size: 0x8, addend: 0x0, symName: __RINvNtNtCsdGrGZaRBwMb_3syn3gen4fold22fold_static_mutabilityNtNvCs9jpTMRK2ijq_11yoke_derive16replace_lifetime15ReplaceLifetimeEBZ_, symObjAddr: 0x16560, symBinAddr: 0x36400, symSize: 0x50 }
  - { offset: 0x60B64, size: 0x8, addend: 0x0, symName: __RINvNtNtCsdGrGZaRBwMb_3syn3gen4fold22fold_type_trait_objectNtNvCs9jpTMRK2ijq_11yoke_derive16replace_lifetime15ReplaceLifetimeEBZ_, symObjAddr: 0x165B0, symBinAddr: 0x36450, symSize: 0xA0 }
  - { offset: 0x60BAB, size: 0x8, addend: 0x0, symName: __RINvNtNtCsdGrGZaRBwMb_3syn3gen4fold23fold_foreign_item_macroNtNvCs9jpTMRK2ijq_11yoke_derive16replace_lifetime15ReplaceLifetimeEB10_, symObjAddr: 0x16650, symBinAddr: 0x364F0, symSize: 0x170 }
  - { offset: 0x60BF2, size: 0x8, addend: 0x0, symName: __RINvNtNtCsdGrGZaRBwMb_3syn3gen4fold23fold_pointer_mutabilityNtNvCs9jpTMRK2ijq_11yoke_derive16replace_lifetime15ReplaceLifetimeEB10_, symObjAddr: 0x167C0, symBinAddr: 0x36660, symSize: 0x60 }
  - { offset: 0x60C74, size: 0x8, addend: 0x0, symName: __RINvNtNtCsdGrGZaRBwMb_3syn3gen4fold23fold_predicate_lifetimeNtNvCs9jpTMRK2ijq_11yoke_derive16replace_lifetime15ReplaceLifetimeEB10_, symObjAddr: 0x16820, symBinAddr: 0x366C0, symSize: 0x180 }
  - { offset: 0x60CBB, size: 0x8, addend: 0x0, symName: __RINvNtNtCsdGrGZaRBwMb_3syn3gen4fold24fold_foreign_item_staticNtNvCs9jpTMRK2ijq_11yoke_derive16replace_lifetime15ReplaceLifetimeEB11_, symObjAddr: 0x169A0, symBinAddr: 0x36840, symSize: 0x440 }
  - { offset: 0x60D21, size: 0x8, addend: 0x0, symName: __RINvNtNtCsdGrGZaRBwMb_3syn3gen4fold25fold_trait_bound_modifierNtNvCs9jpTMRK2ijq_11yoke_derive16replace_lifetime15ReplaceLifetimeEB12_, symObjAddr: 0x16DE0, symBinAddr: 0x36C80, symSize: 0x60 }
  - { offset: 0x60D85, size: 0x8, addend: 0x0, symName: __RINvNtNtCsdGrGZaRBwMb_3syn3gen4fold36fold_parenthesized_generic_argumentsNtNvCs9jpTMRK2ijq_11yoke_derive16replace_lifetime15ReplaceLifetimeEB1d_, symObjAddr: 0x16E40, symBinAddr: 0x36CE0, symSize: 0x170 }
  - { offset: 0x60DCC, size: 0x8, addend: 0x0, symName: __RINvNtNtCsdGrGZaRBwMb_3syn3gen4fold38fold_angle_bracketed_generic_argumentsNtNvCs9jpTMRK2ijq_11yoke_derive16replace_lifetime15ReplaceLifetimeEB1f_, symObjAddr: 0x16FB0, symBinAddr: 0x36E50, symSize: 0xC0 }
  - { offset: 0x60E14, size: 0x8, addend: 0x0, symName: __RINvNtNtCsdGrGZaRBwMb_3syn3gen4fold8fold_abiNtNvCs9jpTMRK2ijq_11yoke_derive16replace_lifetime15ReplaceLifetimeEBK_, symObjAddr: 0x17070, symBinAddr: 0x36F10, symSize: 0x40 }
  - { offset: 0x60E5A, size: 0x8, addend: 0x0, symName: __RINvNtNtCsdGrGZaRBwMb_3syn3gen4fold8fold_armNtNvCs9jpTMRK2ijq_11yoke_derive16replace_lifetime15ReplaceLifetimeEBK_, symObjAddr: 0x170B0, symBinAddr: 0x36F50, symSize: 0x3F0 }
  - { offset: 0x60EC0, size: 0x8, addend: 0x0, symName: __RINvNtNtCsdGrGZaRBwMb_3syn3gen4fold8fold_litNtNvCs9jpTMRK2ijq_11yoke_derive16replace_lifetime15ReplaceLifetimeEBK_, symObjAddr: 0x174A0, symBinAddr: 0x37340, symSize: 0x2D0 }
  - { offset: 0x6100F, size: 0x8, addend: 0x0, symName: __RINvNtNtCsdGrGZaRBwMb_3syn3gen4fold8fold_patNtNvCs9jpTMRK2ijq_11yoke_derive16replace_lifetime15ReplaceLifetimeEBK_, symObjAddr: 0x17770, symBinAddr: 0x37610, symSize: 0x880 }
  - { offset: 0x6125D, size: 0x8, addend: 0x0, symName: __RINvNtNtCsdGrGZaRBwMb_3syn3gen4fold8fold_vecNtNtB6_4attr9AttributeNtNvCs9jpTMRK2ijq_11yoke_derive16replace_lifetime15ReplaceLifetimeNvYB12_NtB2_4Fold14fold_attributeEB16_, symObjAddr: 0x17FF0, symBinAddr: 0x37E90, symSize: 0x80 }
  - { offset: 0x612C6, size: 0x8, addend: 0x0, symName: __RINvNtNtCsdGrGZaRBwMb_3syn3gen4fold8fold_vecNtNtB6_4expr3ArmNtNvCs9jpTMRK2ijq_11yoke_derive16replace_lifetime15ReplaceLifetimeNvYBW_NtB2_4Fold8fold_armEB10_, symObjAddr: 0x18070, symBinAddr: 0x37F10, symSize: 0x80 }
  - { offset: 0x6132F, size: 0x8, addend: 0x0, symName: __RINvNtNtCsdGrGZaRBwMb_3syn3gen4fold8fold_vecNtNtB6_4item11ForeignItemNtNvCs9jpTMRK2ijq_11yoke_derive16replace_lifetime15ReplaceLifetimeNvYB15_NtB2_4Fold17fold_foreign_itemEB19_, symObjAddr: 0x180F0, symBinAddr: 0x37F90, symSize: 0x80 }
  - { offset: 0x61398, size: 0x8, addend: 0x0, symName: __RINvNtNtCsdGrGZaRBwMb_3syn3gen4fold8fold_vecNtNtB6_4item4ItemNtNvCs9jpTMRK2ijq_11yoke_derive16replace_lifetime15ReplaceLifetimeNvYBX_NtB2_4Fold9fold_itemEB11_, symObjAddr: 0x18170, symBinAddr: 0x38010, symSize: 0x80 }
  - { offset: 0x61401, size: 0x8, addend: 0x0, symName: __RINvNtNtCsdGrGZaRBwMb_3syn3gen4fold8fold_vecNtNtB6_4item8ImplItemNtNvCs9jpTMRK2ijq_11yoke_derive16replace_lifetime15ReplaceLifetimeNvYB11_NtB2_4Fold14fold_impl_itemEB15_, symObjAddr: 0x181F0, symBinAddr: 0x38090, symSize: 0x80 }
  - { offset: 0x6146A, size: 0x8, addend: 0x0, symName: __RINvNtNtCsdGrGZaRBwMb_3syn3gen4fold8fold_vecNtNtB6_4item9TraitItemNtNvCs9jpTMRK2ijq_11yoke_derive16replace_lifetime15ReplaceLifetimeNvYB12_NtB2_4Fold15fold_trait_itemEB16_, symObjAddr: 0x18270, symBinAddr: 0x38110, symSize: 0x80 }
  - { offset: 0x614D3, size: 0x8, addend: 0x0, symName: __RINvNtNtCsdGrGZaRBwMb_3syn3gen4fold8fold_vecNtNtB6_4stmt4StmtNtNvCs9jpTMRK2ijq_11yoke_derive16replace_lifetime15ReplaceLifetimeNvYBX_NtB2_4Fold9fold_stmtEB11_, symObjAddr: 0x182F0, symBinAddr: 0x38190, symSize: 0x80 }
  - { offset: 0x6153C, size: 0x8, addend: 0x0, symName: __RINvNtNtCsdGrGZaRBwMb_3syn3gen4fold9fold_exprNtNvCs9jpTMRK2ijq_11yoke_derive16replace_lifetime15ReplaceLifetimeEBL_, symObjAddr: 0x18370, symBinAddr: 0x38210, symSize: 0x1250 }
  - { offset: 0x61A53, size: 0x8, addend: 0x0, symName: __RINvNtNtCsdGrGZaRBwMb_3syn3gen4fold9fold_itemNtNvCs9jpTMRK2ijq_11yoke_derive16replace_lifetime15ReplaceLifetimeEBL_, symObjAddr: 0x195C0, symBinAddr: 0x39460, symSize: 0x780 }
  - { offset: 0x61C82, size: 0x8, addend: 0x0, symName: __RINvNtNtCsdGrGZaRBwMb_3syn3gen4fold9fold_metaNtNvCs9jpTMRK2ijq_11yoke_derive16replace_lifetime15ReplaceLifetimeEBL_, symObjAddr: 0x19D40, symBinAddr: 0x39BE0, symSize: 0x1A0 }
  - { offset: 0x61D1E, size: 0x8, addend: 0x0, symName: __RINvNtNtCsdGrGZaRBwMb_3syn3gen4fold9fold_pathNtNvCs9jpTMRK2ijq_11yoke_derive16replace_lifetime15ReplaceLifetimeEBL_, symObjAddr: 0x19EE0, symBinAddr: 0x39D80, symSize: 0xA0 }
  - { offset: 0x61D65, size: 0x8, addend: 0x0, symName: __RINvNtNtCsdGrGZaRBwMb_3syn3gen4fold9fold_stmtNtNvCs9jpTMRK2ijq_11yoke_derive16replace_lifetime15ReplaceLifetimeEBL_, symObjAddr: 0x19F80, symBinAddr: 0x39E20, symSize: 0x240 }
  - { offset: 0x61E31, size: 0x8, addend: 0x0, symName: __RINvNtNtCsdGrGZaRBwMb_3syn3gen4fold9fold_typeNtNvCs9jpTMRK2ijq_11yoke_derive16replace_lifetime15ReplaceLifetimeEBL_, symObjAddr: 0x1A1C0, symBinAddr: 0x3A060, symSize: 0x700 }
  - { offset: 0x62045, size: 0x8, addend: 0x0, symName: __RNCINvNtNtCsdGrGZaRBwMb_3syn3gen4fold10fold_fieldNtNvCs9jpTMRK2ijq_11yoke_derive16replace_lifetime15ReplaceLifetimeE0BP_, symObjAddr: 0x1A8C0, symBinAddr: 0x3A760, symSize: 0x30 }
  - { offset: 0x62094, size: 0x8, addend: 0x0, symName: __RNCINvNtNtCsdGrGZaRBwMb_3syn3gen4fold10fold_localNtNvCs9jpTMRK2ijq_11yoke_derive16replace_lifetime15ReplaceLifetimeE0BP_, symObjAddr: 0x1A8F0, symBinAddr: 0x3A790, symSize: 0x30 }
  - { offset: 0x620E3, size: 0x8, addend: 0x0, symName: __RNCINvNtNtCsdGrGZaRBwMb_3syn3gen4fold12fold_expr_ifNtNvCs9jpTMRK2ijq_11yoke_derive16replace_lifetime15ReplaceLifetimeE0BR_, symObjAddr: 0x1A920, symBinAddr: 0x3A7C0, symSize: 0x1A0 }
  - { offset: 0x62151, size: 0x8, addend: 0x0, symName: __RNCINvNtNtCsdGrGZaRBwMb_3syn3gen4fold12fold_variantNtNvCs9jpTMRK2ijq_11yoke_derive16replace_lifetime15ReplaceLifetimeE0BR_, symObjAddr: 0x1AAC0, symBinAddr: 0x3A960, symSize: 0xB0 }
  - { offset: 0x621A1, size: 0x8, addend: 0x0, symName: __RNCINvNtNtCsdGrGZaRBwMb_3syn3gen4fold13fold_genericsNtNvCs9jpTMRK2ijq_11yoke_derive16replace_lifetime15ReplaceLifetimeE0BS_, symObjAddr: 0x1AB70, symBinAddr: 0x3AA10, symSize: 0x30 }
  - { offset: 0x621F0, size: 0x8, addend: 0x0, symName: __RNCINvNtNtCsdGrGZaRBwMb_3syn3gen4fold13fold_item_modNtNvCs9jpTMRK2ijq_11yoke_derive16replace_lifetime15ReplaceLifetimeE0BS_, symObjAddr: 0x1ABA0, symBinAddr: 0x3AA40, symSize: 0x90 }
  - { offset: 0x6223F, size: 0x8, addend: 0x0, symName: __RNCINvNtNtCsdGrGZaRBwMb_3syn3gen4fold13fold_receiverNtNvCs9jpTMRK2ijq_11yoke_derive16replace_lifetime15ReplaceLifetimeE0BS_, symObjAddr: 0x1AC30, symBinAddr: 0x3AAD0, symSize: 0x90 }
  - { offset: 0x6228D, size: 0x8, addend: 0x0, symName: __RNCNCINvNtNtCsdGrGZaRBwMb_3syn3gen4fold13fold_receiverNtNvCs9jpTMRK2ijq_11yoke_derive16replace_lifetime15ReplaceLifetimeE00BU_, symObjAddr: 0x1CA20, symBinAddr: 0x3C8A0, symSize: 0x30 }
  - { offset: 0x622DD, size: 0x8, addend: 0x0, symName: __RNCINvNtNtCsdGrGZaRBwMb_3syn3gen4fold13fold_variadicNtNvCs9jpTMRK2ijq_11yoke_derive16replace_lifetime15ReplaceLifetimeE0BS_, symObjAddr: 0x1ACC0, symBinAddr: 0x3AB60, symSize: 0x1B0 }
  - { offset: 0x6234B, size: 0x8, addend: 0x0, symName: __RNCINvNtNtCsdGrGZaRBwMb_3syn3gen4fold14fold_expr_loopNtNvCs9jpTMRK2ijq_11yoke_derive16replace_lifetime15ReplaceLifetimeE0BT_, symObjAddr: 0x1AE70, symBinAddr: 0x3AD10, symSize: 0x30 }
  - { offset: 0x6239A, size: 0x8, addend: 0x0, symName: __RNCINvNtNtCsdGrGZaRBwMb_3syn3gen4fold14fold_expr_pathNtNvCs9jpTMRK2ijq_11yoke_derive16replace_lifetime15ReplaceLifetimeE0BT_, symObjAddr: 0x1AEA0, symBinAddr: 0x3AD40, symSize: 0x30 }
  - { offset: 0x623E9, size: 0x8, addend: 0x0, symName: __RNCINvNtNtCsdGrGZaRBwMb_3syn3gen4fold14fold_item_implNtNvCs9jpTMRK2ijq_11yoke_derive16replace_lifetime15ReplaceLifetimeE0BT_, symObjAddr: 0x1AED0, symBinAddr: 0x3AD70, symSize: 0xB0 }
  - { offset: 0x62439, size: 0x8, addend: 0x0, symName: __RNCINvNtNtCsdGrGZaRBwMb_3syn3gen4fold14fold_pat_identNtNvCs9jpTMRK2ijq_11yoke_derive16replace_lifetime15ReplaceLifetimeE0BT_, symObjAddr: 0x1AF80, symBinAddr: 0x3AE20, symSize: 0x1C0 }
  - { offset: 0x624A7, size: 0x8, addend: 0x0, symName: __RNCINvNtNtCsdGrGZaRBwMb_3syn3gen4fold14fold_signatureNtNvCs9jpTMRK2ijq_11yoke_derive16replace_lifetime15ReplaceLifetimeE0BT_, symObjAddr: 0x1B140, symBinAddr: 0x3AFE0, symSize: 0x30 }
  - { offset: 0x624EF, size: 0x8, addend: 0x0, symName: __RNCINvNtNtCsdGrGZaRBwMb_3syn3gen4fold14fold_signatureNtNvCs9jpTMRK2ijq_11yoke_derive16replace_lifetime15ReplaceLifetimeEs_0BT_, symObjAddr: 0x1B170, symBinAddr: 0x3B010, symSize: 0x30 }
  - { offset: 0x6253E, size: 0x8, addend: 0x0, symName: __RNCINvNtNtCsdGrGZaRBwMb_3syn3gen4fold14fold_type_pathNtNvCs9jpTMRK2ijq_11yoke_derive16replace_lifetime15ReplaceLifetimeE0BT_, symObjAddr: 0x1B1A0, symBinAddr: 0x3B040, symSize: 0x30 }
  - { offset: 0x6258D, size: 0x8, addend: 0x0, symName: __RNCINvNtNtCsdGrGZaRBwMb_3syn3gen4fold15fold_assoc_typeNtNvCs9jpTMRK2ijq_11yoke_derive16replace_lifetime15ReplaceLifetimeE0BU_, symObjAddr: 0x1B1D0, symBinAddr: 0x3B070, symSize: 0x30 }
  - { offset: 0x625DC, size: 0x8, addend: 0x0, symName: __RNCINvNtNtCsdGrGZaRBwMb_3syn3gen4fold15fold_constraintNtNvCs9jpTMRK2ijq_11yoke_derive16replace_lifetime15ReplaceLifetimeE0BU_, symObjAddr: 0x1B200, symBinAddr: 0x3B0A0, symSize: 0x30 }
  - { offset: 0x6262B, size: 0x8, addend: 0x0, symName: __RNCINvNtNtCsdGrGZaRBwMb_3syn3gen4fold15fold_expr_blockNtNvCs9jpTMRK2ijq_11yoke_derive16replace_lifetime15ReplaceLifetimeE0BU_, symObjAddr: 0x1B230, symBinAddr: 0x3B0D0, symSize: 0x30 }
  - { offset: 0x6267A, size: 0x8, addend: 0x0, symName: __RNCINvNtNtCsdGrGZaRBwMb_3syn3gen4fold15fold_expr_breakNtNvCs9jpTMRK2ijq_11yoke_derive16replace_lifetime15ReplaceLifetimeE0BU_, symObjAddr: 0x1B260, symBinAddr: 0x3B100, symSize: 0x30 }
  - { offset: 0x626C3, size: 0x8, addend: 0x0, symName: __RNCINvNtNtCsdGrGZaRBwMb_3syn3gen4fold15fold_expr_breakNtNvCs9jpTMRK2ijq_11yoke_derive16replace_lifetime15ReplaceLifetimeEs_0BU_, symObjAddr: 0x1B290, symBinAddr: 0x3B130, symSize: 0x180 }
  - { offset: 0x62731, size: 0x8, addend: 0x0, symName: __RNCINvNtNtCsdGrGZaRBwMb_3syn3gen4fold15fold_expr_rangeNtNvCs9jpTMRK2ijq_11yoke_derive16replace_lifetime15ReplaceLifetimeE0BU_, symObjAddr: 0x1B410, symBinAddr: 0x3B2B0, symSize: 0x180 }
  - { offset: 0x62799, size: 0x8, addend: 0x0, symName: __RNCINvNtNtCsdGrGZaRBwMb_3syn3gen4fold15fold_expr_rangeNtNvCs9jpTMRK2ijq_11yoke_derive16replace_lifetime15ReplaceLifetimeEs_0BU_, symObjAddr: 0x1B590, symBinAddr: 0x3B430, symSize: 0x180 }
  - { offset: 0x62807, size: 0x8, addend: 0x0, symName: __RNCINvNtNtCsdGrGZaRBwMb_3syn3gen4fold15fold_expr_whileNtNvCs9jpTMRK2ijq_11yoke_derive16replace_lifetime15ReplaceLifetimeE0BU_, symObjAddr: 0x1B710, symBinAddr: 0x3B5B0, symSize: 0x30 }
  - { offset: 0x62856, size: 0x8, addend: 0x0, symName: __RNCINvNtNtCsdGrGZaRBwMb_3syn3gen4fold15fold_expr_yieldNtNvCs9jpTMRK2ijq_11yoke_derive16replace_lifetime15ReplaceLifetimeE0BU_, symObjAddr: 0x1B740, symBinAddr: 0x3B5E0, symSize: 0x180 }
  - { offset: 0x628C4, size: 0x8, addend: 0x0, symName: __RNCINvNtNtCsdGrGZaRBwMb_3syn3gen4fold15fold_item_macroNtNvCs9jpTMRK2ijq_11yoke_derive16replace_lifetime15ReplaceLifetimeE0BU_, symObjAddr: 0x1B8C0, symBinAddr: 0x3B760, symSize: 0x30 }
  - { offset: 0x62913, size: 0x8, addend: 0x0, symName: __RNCINvNtNtCsdGrGZaRBwMb_3syn3gen4fold15fold_local_initNtNvCs9jpTMRK2ijq_11yoke_derive16replace_lifetime15ReplaceLifetimeE0BU_, symObjAddr: 0x1B910, symBinAddr: 0x3B790, symSize: 0x1A0 }
  - { offset: 0x62981, size: 0x8, addend: 0x0, symName: __RNCINvNtNtCsdGrGZaRBwMb_3syn3gen4fold15fold_pat_structNtNvCs9jpTMRK2ijq_11yoke_derive16replace_lifetime15ReplaceLifetimeE0BU_, symObjAddr: 0x1BAB0, symBinAddr: 0x3B930, symSize: 0x30 }
  - { offset: 0x629CA, size: 0x8, addend: 0x0, symName: __RNCINvNtNtCsdGrGZaRBwMb_3syn3gen4fold15fold_pat_structNtNvCs9jpTMRK2ijq_11yoke_derive16replace_lifetime15ReplaceLifetimeEs_0BU_, symObjAddr: 0x1BAE0, symBinAddr: 0x3B960, symSize: 0x30 }
  - { offset: 0x62A19, size: 0x8, addend: 0x0, symName: __RNCINvNtNtCsdGrGZaRBwMb_3syn3gen4fold15fold_type_paramNtNvCs9jpTMRK2ijq_11yoke_derive16replace_lifetime15ReplaceLifetimeE0BU_, symObjAddr: 0x1BB10, symBinAddr: 0x3B990, symSize: 0x30 }
  - { offset: 0x62A68, size: 0x8, addend: 0x0, symName: __RNCINvNtNtCsdGrGZaRBwMb_3syn3gen4fold16fold_assoc_constNtNvCs9jpTMRK2ijq_11yoke_derive16replace_lifetime15ReplaceLifetimeE0BV_, symObjAddr: 0x1BB40, symBinAddr: 0x3B9C0, symSize: 0x30 }
  - { offset: 0x62AB7, size: 0x8, addend: 0x0, symName: __RNCINvNtNtCsdGrGZaRBwMb_3syn3gen4fold16fold_bare_fn_argNtNvCs9jpTMRK2ijq_11yoke_derive16replace_lifetime15ReplaceLifetimeE0BV_, symObjAddr: 0x1BB70, symBinAddr: 0x3B9F0, symSize: 0x80 }
  - { offset: 0x62B07, size: 0x8, addend: 0x0, symName: __RNCINvNtNtCsdGrGZaRBwMb_3syn3gen4fold16fold_const_paramNtNvCs9jpTMRK2ijq_11yoke_derive16replace_lifetime15ReplaceLifetimeE0BV_, symObjAddr: 0x1BBF0, symBinAddr: 0x3BA70, symSize: 0x30 }
  - { offset: 0x62B56, size: 0x8, addend: 0x0, symName: __RNCINvNtNtCsdGrGZaRBwMb_3syn3gen4fold16fold_expr_returnNtNvCs9jpTMRK2ijq_11yoke_derive16replace_lifetime15ReplaceLifetimeE0BV_, symObjAddr: 0x1BC20, symBinAddr: 0x3BAA0, symSize: 0x180 }
  - { offset: 0x62BC4, size: 0x8, addend: 0x0, symName: __RNCINvNtNtCsdGrGZaRBwMb_3syn3gen4fold16fold_expr_structNtNvCs9jpTMRK2ijq_11yoke_derive16replace_lifetime15ReplaceLifetimeE0BV_, symObjAddr: 0x1BDA0, symBinAddr: 0x3BC20, symSize: 0x30 }
  - { offset: 0x62C0D, size: 0x8, addend: 0x0, symName: __RNCINvNtNtCsdGrGZaRBwMb_3syn3gen4fold16fold_expr_structNtNvCs9jpTMRK2ijq_11yoke_derive16replace_lifetime15ReplaceLifetimeEs_0BV_, symObjAddr: 0x1BDD0, symBinAddr: 0x3BC50, symSize: 0x180 }
  - { offset: 0x62C7B, size: 0x8, addend: 0x0, symName: __RNCINvNtNtCsdGrGZaRBwMb_3syn3gen4fold16fold_trait_boundNtNvCs9jpTMRK2ijq_11yoke_derive16replace_lifetime15ReplaceLifetimeE0BV_, symObjAddr: 0x1BF50, symBinAddr: 0x3BDD0, symSize: 0x30 }
  - { offset: 0x62CCA, size: 0x8, addend: 0x0, symName: __RNCINvNtNtCsdGrGZaRBwMb_3syn3gen4fold17fold_expr_closureNtNvCs9jpTMRK2ijq_11yoke_derive16replace_lifetime15ReplaceLifetimeE0BW_, symObjAddr: 0x1BF80, symBinAddr: 0x3BE00, symSize: 0x30 }
  - { offset: 0x62D19, size: 0x8, addend: 0x0, symName: __RNCINvNtNtCsdGrGZaRBwMb_3syn3gen4fold17fold_type_bare_fnNtNvCs9jpTMRK2ijq_11yoke_derive16replace_lifetime15ReplaceLifetimeE0BW_, symObjAddr: 0x1BFB0, symBinAddr: 0x3BE30, symSize: 0x30 }
  - { offset: 0x62D62, size: 0x8, addend: 0x0, symName: __RNCINvNtNtCsdGrGZaRBwMb_3syn3gen4fold17fold_type_bare_fnNtNvCs9jpTMRK2ijq_11yoke_derive16replace_lifetime15ReplaceLifetimeEs0_0BW_, symObjAddr: 0x1BFE0, symBinAddr: 0x3BE60, symSize: 0x30 }
  - { offset: 0x62DAB, size: 0x8, addend: 0x0, symName: __RNCINvNtNtCsdGrGZaRBwMb_3syn3gen4fold17fold_type_bare_fnNtNvCs9jpTMRK2ijq_11yoke_derive16replace_lifetime15ReplaceLifetimeEs_0BW_, symObjAddr: 0x1C010, symBinAddr: 0x3BE90, symSize: 0x30 }
  - { offset: 0x62DF9, size: 0x8, addend: 0x0, symName: __RNCINvNtNtCsdGrGZaRBwMb_3syn3gen4fold18fold_bare_variadicNtNvCs9jpTMRK2ijq_11yoke_derive16replace_lifetime15ReplaceLifetimeE0BX_, symObjAddr: 0x1C040, symBinAddr: 0x3BEC0, symSize: 0x80 }
  - { offset: 0x62E49, size: 0x8, addend: 0x0, symName: __RNCINvNtNtCsdGrGZaRBwMb_3syn3gen4fold18fold_expr_continueNtNvCs9jpTMRK2ijq_11yoke_derive16replace_lifetime15ReplaceLifetimeE0BX_, symObjAddr: 0x1C0C0, symBinAddr: 0x3BF40, symSize: 0x30 }
  - { offset: 0x62E98, size: 0x8, addend: 0x0, symName: __RNCINvNtNtCsdGrGZaRBwMb_3syn3gen4fold18fold_expr_for_loopNtNvCs9jpTMRK2ijq_11yoke_derive16replace_lifetime15ReplaceLifetimeE0BX_, symObjAddr: 0x1C0F0, symBinAddr: 0x3BF70, symSize: 0x30 }
  - { offset: 0x62EE7, size: 0x8, addend: 0x0, symName: __RNCINvNtNtCsdGrGZaRBwMb_3syn3gen4fold18fold_trait_item_fnNtNvCs9jpTMRK2ijq_11yoke_derive16replace_lifetime15ReplaceLifetimeE0BX_, symObjAddr: 0x1C120, symBinAddr: 0x3BFA0, symSize: 0x30 }
  - { offset: 0x62F36, size: 0x8, addend: 0x0, symName: __RNCINvNtNtCsdGrGZaRBwMb_3syn3gen4fold19fold_predicate_typeNtNvCs9jpTMRK2ijq_11yoke_derive16replace_lifetime15ReplaceLifetimeE0BY_, symObjAddr: 0x1C150, symBinAddr: 0x3BFD0, symSize: 0x30 }
  - { offset: 0x62F85, size: 0x8, addend: 0x0, symName: __RNCINvNtNtCsdGrGZaRBwMb_3syn3gen4fold19fold_type_referenceNtNvCs9jpTMRK2ijq_11yoke_derive16replace_lifetime15ReplaceLifetimeE0BY_, symObjAddr: 0x1C180, symBinAddr: 0x3C000, symSize: 0x30 }
  - { offset: 0x62FD4, size: 0x8, addend: 0x0, symName: __RNCINvNtNtCsdGrGZaRBwMb_3syn3gen4fold20fold_trait_item_typeNtNvCs9jpTMRK2ijq_11yoke_derive16replace_lifetime15ReplaceLifetimeE0BZ_, symObjAddr: 0x1C1B0, symBinAddr: 0x3C030, symSize: 0xB0 }
  - { offset: 0x63024, size: 0x8, addend: 0x0, symName: __RNCINvNtNtCsdGrGZaRBwMb_3syn3gen4fold21fold_expr_method_callNtNvCs9jpTMRK2ijq_11yoke_derive16replace_lifetime15ReplaceLifetimeE0B10_, symObjAddr: 0x1C260, symBinAddr: 0x3C0E0, symSize: 0x30 }
  - { offset: 0x63073, size: 0x8, addend: 0x0, symName: __RNCINvNtNtCsdGrGZaRBwMb_3syn3gen4fold21fold_pat_tuple_structNtNvCs9jpTMRK2ijq_11yoke_derive16replace_lifetime15ReplaceLifetimeE0B10_, symObjAddr: 0x1C290, symBinAddr: 0x3C110, symSize: 0x30 }
  - { offset: 0x630C2, size: 0x8, addend: 0x0, symName: __RNCINvNtNtCsdGrGZaRBwMb_3syn3gen4fold21fold_trait_item_constNtNvCs9jpTMRK2ijq_11yoke_derive16replace_lifetime15ReplaceLifetimeE0B10_, symObjAddr: 0x1C2C0, symBinAddr: 0x3C140, symSize: 0xB0 }
  - { offset: 0x63112, size: 0x8, addend: 0x0, symName: __RNCINvNtNtCsdGrGZaRBwMb_3syn3gen4fold22fold_item_extern_crateNtNvCs9jpTMRK2ijq_11yoke_derive16replace_lifetime15ReplaceLifetimeE0B11_, symObjAddr: 0x1C370, symBinAddr: 0x3C1F0, symSize: 0x80 }
  - { offset: 0x63161, size: 0x8, addend: 0x0, symName: __RNCINvNtNtCsdGrGZaRBwMb_3syn3gen4fold8fold_abiNtNvCs9jpTMRK2ijq_11yoke_derive16replace_lifetime15ReplaceLifetimeE0BM_, symObjAddr: 0x1C3F0, symBinAddr: 0x3C270, symSize: 0x30 }
  - { offset: 0x631AF, size: 0x8, addend: 0x0, symName: __RNCINvNtNtCsdGrGZaRBwMb_3syn3gen4fold8fold_armNtNvCs9jpTMRK2ijq_11yoke_derive16replace_lifetime15ReplaceLifetimeE0BM_, symObjAddr: 0x1C420, symBinAddr: 0x3C2A0, symSize: 0x1A0 }
  - { offset: 0x6321D, size: 0x8, addend: 0x0, symName: __RNCINvNtNtCsdGrGZaRBwMb_3syn3gen4fold8fold_vecNtNtB8_4attr9AttributeNtNvCs9jpTMRK2ijq_11yoke_derive16replace_lifetime15ReplaceLifetimeNvYB14_NtB4_4Fold14fold_attributeE0B18_, symObjAddr: 0x1C5C0, symBinAddr: 0x3C440, symSize: 0xA0 }
  - { offset: 0x6328E, size: 0x8, addend: 0x0, symName: __RNCINvNtNtCsdGrGZaRBwMb_3syn3gen4fold8fold_vecNtNtB8_4expr3ArmNtNvCs9jpTMRK2ijq_11yoke_derive16replace_lifetime15ReplaceLifetimeNvYBY_NtB4_4Fold8fold_armE0B12_, symObjAddr: 0x1C660, symBinAddr: 0x3C4E0, symSize: 0xA0 }
  - { offset: 0x632FF, size: 0x8, addend: 0x0, symName: __RNCINvNtNtCsdGrGZaRBwMb_3syn3gen4fold8fold_vecNtNtB8_4item11ForeignItemNtNvCs9jpTMRK2ijq_11yoke_derive16replace_lifetime15ReplaceLifetimeNvYB17_NtB4_4Fold17fold_foreign_itemE0B1b_, symObjAddr: 0x1C700, symBinAddr: 0x3C580, symSize: 0xA0 }
  - { offset: 0x63370, size: 0x8, addend: 0x0, symName: __RNCINvNtNtCsdGrGZaRBwMb_3syn3gen4fold8fold_vecNtNtB8_4item4ItemNtNvCs9jpTMRK2ijq_11yoke_derive16replace_lifetime15ReplaceLifetimeNvYBZ_NtB4_4Fold9fold_itemE0B13_, symObjAddr: 0x1C7A0, symBinAddr: 0x3C620, symSize: 0xA0 }
  - { offset: 0x633E1, size: 0x8, addend: 0x0, symName: __RNCINvNtNtCsdGrGZaRBwMb_3syn3gen4fold8fold_vecNtNtB8_4item8ImplItemNtNvCs9jpTMRK2ijq_11yoke_derive16replace_lifetime15ReplaceLifetimeNvYB13_NtB4_4Fold14fold_impl_itemE0B17_, symObjAddr: 0x1C840, symBinAddr: 0x3C6C0, symSize: 0xA0 }
  - { offset: 0x63452, size: 0x8, addend: 0x0, symName: __RNCINvNtNtCsdGrGZaRBwMb_3syn3gen4fold8fold_vecNtNtB8_4item9TraitItemNtNvCs9jpTMRK2ijq_11yoke_derive16replace_lifetime15ReplaceLifetimeNvYB14_NtB4_4Fold15fold_trait_itemE0B18_, symObjAddr: 0x1C8E0, symBinAddr: 0x3C760, symSize: 0xA0 }
  - { offset: 0x634C3, size: 0x8, addend: 0x0, symName: __RNCINvNtNtCsdGrGZaRBwMb_3syn3gen4fold8fold_vecNtNtB8_4stmt4StmtNtNvCs9jpTMRK2ijq_11yoke_derive16replace_lifetime15ReplaceLifetimeNvYBZ_NtB4_4Fold9fold_stmtE0B13_, symObjAddr: 0x1C980, symBinAddr: 0x3C800, symSize: 0xA0 }
  - { offset: 0x6B38A, size: 0x8, addend: 0x0, symName: __RINvMsi_NtCslJiobkLta79_5alloc3vecINtB6_3VecNtCsaKzlTDPUHDb_11proc_macro25IdentE14extend_trustedINtNtNtNtCsieiGu2EXtoJ_4core4iter8adapters3map3MapINtNtNtB1F_5slice4iter4IterNtNtCsdGrGZaRBwMb_3syn8generics9TypeParamENCNvCs9jpTMRK2ijq_11yoke_derive20yokeable_derive_impls_0EEB3v_, symObjAddr: 0x0, symBinAddr: 0x3C8D0, symSize: 0x1A0 }
  - { offset: 0x757A0, size: 0x8, addend: 0x0, symName: __RINvXsd_NtCslJiobkLta79_5alloc3vecINtB6_3VecNtCsaKzlTDPUHDb_11proc_macro25IdentEINtNtNtNtCsieiGu2EXtoJ_4core4iter6traits7collect12FromIteratorBG_E9from_iterINtNtNtB1n_8adapters3map3MapINtNtNtB1p_5slice4iter4IterNtNtCsdGrGZaRBwMb_3syn8generics9TypeParamENCNvCs9jpTMRK2ijq_11yoke_derive20yokeable_derive_impls_0EEB47_, symObjAddr: 0x730, symBinAddr: 0x3D000, symSize: 0x60 }
  - { offset: 0x757E0, size: 0x8, addend: 0x0, symName: __RINvXsd_NtCslJiobkLta79_5alloc3vecINtB6_3VecNtNtCsdGrGZaRBwMb_3syn4attr9AttributeEINtNtNtNtCsieiGu2EXtoJ_4core4iter6traits7collect12FromIteratorBG_E9from_iterINtNtNtB1p_8adapters3map3MapINtNtB6_9into_iter8IntoIterBG_ENCINvNtNtBK_3gen4fold8fold_vecBG_NtNvCs9jpTMRK2ijq_11yoke_derive16replace_lifetime15ReplaceLifetimeNvYB40_NtB3y_4Fold14fold_attributeE0EEB44_, symObjAddr: 0x790, symBinAddr: 0x3D060, symSize: 0x40 }
  - { offset: 0x75821, size: 0x8, addend: 0x0, symName: __RINvXsd_NtCslJiobkLta79_5alloc3vecINtB6_3VecNtNtCsdGrGZaRBwMb_3syn4expr3ArmEINtNtNtNtCsieiGu2EXtoJ_4core4iter6traits7collect12FromIteratorBG_E9from_iterINtNtNtB1j_8adapters3map3MapINtNtB6_9into_iter8IntoIterBG_ENCINvNtNtBK_3gen4fold8fold_vecBG_NtNvCs9jpTMRK2ijq_11yoke_derive16replace_lifetime15ReplaceLifetimeNvYB3U_NtB3s_4Fold8fold_armE0EEB3Y_, symObjAddr: 0x7D0, symBinAddr: 0x3D0A0, symSize: 0x40 }
  - { offset: 0x75862, size: 0x8, addend: 0x0, symName: __RINvXsd_NtCslJiobkLta79_5alloc3vecINtB6_3VecNtNtCsdGrGZaRBwMb_3syn4item11ForeignItemEINtNtNtNtCsieiGu2EXtoJ_4core4iter6traits7collect12FromIteratorBG_E9from_iterINtNtNtB1s_8adapters3map3MapINtNtB6_9into_iter8IntoIterBG_ENCINvNtNtBK_3gen4fold8fold_vecBG_NtNvCs9jpTMRK2ijq_11yoke_derive16replace_lifetime15ReplaceLifetimeNvYB43_NtB3B_4Fold17fold_foreign_itemE0EEB47_, symObjAddr: 0x810, symBinAddr: 0x3D0E0, symSize: 0x40 }
  - { offset: 0x758A3, size: 0x8, addend: 0x0, symName: __RINvXsd_NtCslJiobkLta79_5alloc3vecINtB6_3VecNtNtCsdGrGZaRBwMb_3syn4item4ItemEINtNtNtNtCsieiGu2EXtoJ_4core4iter6traits7collect12FromIteratorBG_E9from_iterINtNtNtB1k_8adapters3map3MapINtNtB6_9into_iter8IntoIterBG_ENCINvNtNtBK_3gen4fold8fold_vecBG_NtNvCs9jpTMRK2ijq_11yoke_derive16replace_lifetime15ReplaceLifetimeNvYB3V_NtB3t_4Fold9fold_itemE0EEB3Z_, symObjAddr: 0x850, symBinAddr: 0x3D120, symSize: 0x40 }
  - { offset: 0x758E4, size: 0x8, addend: 0x0, symName: __RINvXsd_NtCslJiobkLta79_5alloc3vecINtB6_3VecNtNtCsdGrGZaRBwMb_3syn4item8ImplItemEINtNtNtNtCsieiGu2EXtoJ_4core4iter6traits7collect12FromIteratorBG_E9from_iterINtNtNtB1o_8adapters3map3MapINtNtB6_9into_iter8IntoIterBG_ENCINvNtNtBK_3gen4fold8fold_vecBG_NtNvCs9jpTMRK2ijq_11yoke_derive16replace_lifetime15ReplaceLifetimeNvYB3Z_NtB3x_4Fold14fold_impl_itemE0EEB43_, symObjAddr: 0x890, symBinAddr: 0x3D160, symSize: 0x40 }
  - { offset: 0x75925, size: 0x8, addend: 0x0, symName: __RINvXsd_NtCslJiobkLta79_5alloc3vecINtB6_3VecNtNtCsdGrGZaRBwMb_3syn4item9TraitItemEINtNtNtNtCsieiGu2EXtoJ_4core4iter6traits7collect12FromIteratorBG_E9from_iterINtNtNtB1p_8adapters3map3MapINtNtB6_9into_iter8IntoIterBG_ENCINvNtNtBK_3gen4fold8fold_vecBG_NtNvCs9jpTMRK2ijq_11yoke_derive16replace_lifetime15ReplaceLifetimeNvYB40_NtB3y_4Fold15fold_trait_itemE0EEB44_, symObjAddr: 0x8D0, symBinAddr: 0x3D1A0, symSize: 0x40 }
  - { offset: 0x75966, size: 0x8, addend: 0x0, symName: __RINvXsd_NtCslJiobkLta79_5alloc3vecINtB6_3VecNtNtCsdGrGZaRBwMb_3syn4stmt4StmtEINtNtNtNtCsieiGu2EXtoJ_4core4iter6traits7collect12FromIteratorBG_E9from_iterINtNtNtB1k_8adapters3map3MapINtNtB6_9into_iter8IntoIterBG_ENCINvNtNtBK_3gen4fold8fold_vecBG_NtNvCs9jpTMRK2ijq_11yoke_derive16replace_lifetime15ReplaceLifetimeNvYB3V_NtB3t_4Fold9fold_stmtE0EEB3Z_, symObjAddr: 0x910, symBinAddr: 0x3D1E0, symSize: 0x40 }
  - { offset: 0x759A7, size: 0x8, addend: 0x0, symName: __RINvXsd_NtCslJiobkLta79_5alloc3vecINtB6_3VecNtNtCsdGrGZaRBwMb_3syn8generics14WherePredicateEINtNtNtNtCsieiGu2EXtoJ_4core4iter6traits7collect12FromIteratorBG_E9from_iterINtNtNtB1z_8adapters3map3MapINtNtNtB1B_5slice4iter4IterNtCsaKzlTDPUHDb_11proc_macro25IdentENCNvCs9jpTMRK2ijq_11yoke_derive20yokeable_derive_impls0_0EEB4d_, symObjAddr: 0x950, symBinAddr: 0x3D220, symSize: 0x60 }
  - { offset: 0x759E7, size: 0x8, addend: 0x0, symName: __RINvXsd_NtCslJiobkLta79_5alloc3vecINtB6_3VecNtNtCsdGrGZaRBwMb_3syn8generics14WherePredicateEINtNtNtNtCsieiGu2EXtoJ_4core4iter6traits7collect12FromIteratorBG_E9from_iterINtNtNtB1z_8adapters3map3MapINtNtNtB1B_5slice4iter4IterNtCsaKzlTDPUHDb_11proc_macro25IdentENCNvCs9jpTMRK2ijq_11yoke_derive20yokeable_derive_impls2_0EEB4d_, symObjAddr: 0x9B0, symBinAddr: 0x3D280, symSize: 0x60 }
  - { offset: 0x75A27, size: 0x8, addend: 0x0, symName: __RINvXsd_NtCslJiobkLta79_5alloc3vecINtB6_3VecNtNtCsdGrGZaRBwMb_3syn8generics9TypeParamEINtNtNtNtCsieiGu2EXtoJ_4core4iter6traits7collect12FromIteratorBG_E9from_iterINtNtNtB1t_8adapters3map3MapNtBI_10TypeParamsNCNvCs9jpTMRK2ijq_11yoke_derive20yokeable_derive_impl0EEB3n_, symObjAddr: 0xA10, symBinAddr: 0x3D2E0, symSize: 0x60 }
  - { offset: 0x75A72, size: 0x8, addend: 0x0, symName: __RNCINvMsi_NtCslJiobkLta79_5alloc3vecINtB8_3VecNtCsaKzlTDPUHDb_11proc_macro25IdentE14extend_trustedINtNtNtNtCsieiGu2EXtoJ_4core4iter8adapters3map3MapINtNtNtB1H_5slice4iter4IterNtNtCsdGrGZaRBwMb_3syn8generics9TypeParamENCNvCs9jpTMRK2ijq_11yoke_derive20yokeable_derive_impls_0EE0B3x_, symObjAddr: 0xA70, symBinAddr: 0x3D340, symSize: 0x40 }
  - { offset: 0x75B1A, size: 0x8, addend: 0x0, symName: __RNCINvMsi_NtCslJiobkLta79_5alloc3vecINtB8_3VecNtNtCsdGrGZaRBwMb_3syn8generics14WherePredicateE14extend_trustedINtNtNtNtCsieiGu2EXtoJ_4core4iter8adapters3map3MapINtNtNtB1T_5slice4iter4IterNtCsaKzlTDPUHDb_11proc_macro25IdentENCNvCs9jpTMRK2ijq_11yoke_derive20yokeable_derive_impls0_0EE0B3D_, symObjAddr: 0xAB0, symBinAddr: 0x3D380, symSize: 0x50 }
  - { offset: 0x75BC3, size: 0x8, addend: 0x0, symName: __RNCINvMsi_NtCslJiobkLta79_5alloc3vecINtB8_3VecNtNtCsdGrGZaRBwMb_3syn8generics14WherePredicateE14extend_trustedINtNtNtNtCsieiGu2EXtoJ_4core4iter8adapters3map3MapINtNtNtB1T_5slice4iter4IterNtCsaKzlTDPUHDb_11proc_macro25IdentENCNvCs9jpTMRK2ijq_11yoke_derive20yokeable_derive_impls2_0EE0B3D_, symObjAddr: 0xB00, symBinAddr: 0x3D3D0, symSize: 0x50 }
  - { offset: 0x75C78, size: 0x8, addend: 0x0, symName: __RNvNvMs_NtCslJiobkLta79_5alloc3vecINtB6_3VecppE13from_parts_in18precondition_checkCs9jpTMRK2ijq_11yoke_derive, symObjAddr: 0x2D80, symBinAddr: 0x3F650, symSize: 0xA0 }
  - { offset: 0x75CE6, size: 0x8, addend: 0x0, symName: __RNvNvMs_NtCslJiobkLta79_5alloc3vecINtB6_3VecppE17from_raw_parts_in18precondition_checkCs9jpTMRK2ijq_11yoke_derive, symObjAddr: 0x2E20, symBinAddr: 0x3F6F0, symSize: 0xA0 }
  - { offset: 0x75D54, size: 0x8, addend: 0x0, symName: __RNvNvMs_NtCslJiobkLta79_5alloc3vecINtB6_3VecppE7set_len18precondition_checkCs9jpTMRK2ijq_11yoke_derive, symObjAddr: 0x2EC0, symBinAddr: 0x3F790, symSize: 0xA0 }
  - { offset: 0x75DC8, size: 0x8, addend: 0x0, symName: __RNvXNtNtCslJiobkLta79_5alloc3vec11spec_extendINtB4_3VecNtNtCsdGrGZaRBwMb_3syn8generics9TypeParamEINtB2_10SpecExtendBR_INtNtNtNtCsieiGu2EXtoJ_4core4iter8adapters3map3MapNtBT_10TypeParamsNCNvCs9jpTMRK2ijq_11yoke_derive20yokeable_derive_impl0EE11spec_extendB31_, symObjAddr: 0x2F60, symBinAddr: 0x3F830, symSize: 0x20 }
  - { offset: 0x75E1F, size: 0x8, addend: 0x0, symName: __RNvXs_NtNtCslJiobkLta79_5alloc3vec11spec_extendINtB6_3VecNtCsaKzlTDPUHDb_11proc_macro25IdentEINtB4_10SpecExtendBT_INtNtNtNtCsieiGu2EXtoJ_4core4iter8adapters3map3MapINtNtNtB1X_5slice4iter4IterNtNtCsdGrGZaRBwMb_3syn8generics9TypeParamENCNvCs9jpTMRK2ijq_11yoke_derive20yokeable_derive_impls_0EE11spec_extendB3N_, symObjAddr: 0x3430, symBinAddr: 0x3FD00, symSize: 0x20 }
  - { offset: 0x75E70, size: 0x8, addend: 0x0, symName: __RNvXs_NtNtCslJiobkLta79_5alloc3vec11spec_extendINtB6_3VecNtNtCsdGrGZaRBwMb_3syn8generics14WherePredicateEINtB4_10SpecExtendBT_INtNtNtNtCsieiGu2EXtoJ_4core4iter8adapters3map3MapINtNtNtB29_5slice4iter4IterNtCsaKzlTDPUHDb_11proc_macro25IdentENCNvCs9jpTMRK2ijq_11yoke_derive20yokeable_derive_impls0_0EE11spec_extendB3T_, symObjAddr: 0x3450, symBinAddr: 0x3FD20, symSize: 0x20 }
  - { offset: 0x75EC1, size: 0x8, addend: 0x0, symName: __RNvXs_NtNtCslJiobkLta79_5alloc3vec11spec_extendINtB6_3VecNtNtCsdGrGZaRBwMb_3syn8generics14WherePredicateEINtB4_10SpecExtendBT_INtNtNtNtCsieiGu2EXtoJ_4core4iter8adapters3map3MapINtNtNtB29_5slice4iter4IterNtCsaKzlTDPUHDb_11proc_macro25IdentENCNvCs9jpTMRK2ijq_11yoke_derive20yokeable_derive_impls2_0EE11spec_extendB3T_, symObjAddr: 0x3470, symBinAddr: 0x3FD40, symSize: 0x20 }
  - { offset: 0x75F1E, size: 0x8, addend: 0x0, symName: __RNvXNtNtCslJiobkLta79_5alloc3vec14spec_from_iterINtB4_3VecNtCsaKzlTDPUHDb_11proc_macro25IdentEINtB2_12SpecFromIterBU_INtNtNtNtCsieiGu2EXtoJ_4core4iter8adapters3map3MapINtNtNtB20_5slice4iter4IterNtNtCsdGrGZaRBwMb_3syn8generics9TypeParamENCNvCs9jpTMRK2ijq_11yoke_derive20yokeable_derive_impls_0EE9from_iterB3Q_, symObjAddr: 0x2F80, symBinAddr: 0x3F850, symSize: 0x30 }
  - { offset: 0x75F5C, size: 0x8, addend: 0x0, symName: __RNvXNtNtCslJiobkLta79_5alloc3vec14spec_from_iterINtB4_3VecNtNtCsdGrGZaRBwMb_3syn8generics14WherePredicateEINtB2_12SpecFromIterBU_INtNtNtNtCsieiGu2EXtoJ_4core4iter8adapters3map3MapINtNtNtB2c_5slice4iter4IterNtCsaKzlTDPUHDb_11proc_macro25IdentENCNvCs9jpTMRK2ijq_11yoke_derive20yokeable_derive_impls0_0EE9from_iterB3W_, symObjAddr: 0x2FB0, symBinAddr: 0x3F880, symSize: 0x30 }
  - { offset: 0x75F9A, size: 0x8, addend: 0x0, symName: __RNvXNtNtCslJiobkLta79_5alloc3vec14spec_from_iterINtB4_3VecNtNtCsdGrGZaRBwMb_3syn8generics14WherePredicateEINtB2_12SpecFromIterBU_INtNtNtNtCsieiGu2EXtoJ_4core4iter8adapters3map3MapINtNtNtB2c_5slice4iter4IterNtCsaKzlTDPUHDb_11proc_macro25IdentENCNvCs9jpTMRK2ijq_11yoke_derive20yokeable_derive_impls2_0EE9from_iterB3W_, symObjAddr: 0x2FE0, symBinAddr: 0x3F8B0, symSize: 0x30 }
  - { offset: 0x75FD8, size: 0x8, addend: 0x0, symName: __RNvXNtNtCslJiobkLta79_5alloc3vec14spec_from_iterINtB4_3VecNtNtCsdGrGZaRBwMb_3syn8generics9TypeParamEINtB2_12SpecFromIterBU_INtNtNtNtCsieiGu2EXtoJ_4core4iter8adapters3map3MapNtBW_10TypeParamsNCNvCs9jpTMRK2ijq_11yoke_derive20yokeable_derive_impl0EE9from_iterB36_, symObjAddr: 0x3010, symBinAddr: 0x3F8E0, symSize: 0x30 }
  - { offset: 0x76022, size: 0x8, addend: 0x0, symName: __RNvXNtNtCslJiobkLta79_5alloc3vec21spec_from_iter_nestedINtB4_3VecNtNtCsdGrGZaRBwMb_3syn8generics9TypeParamEINtB2_18SpecFromIterNestedB11_INtNtNtNtCsieiGu2EXtoJ_4core4iter8adapters3map3MapNtB13_10TypeParamsNCNvCs9jpTMRK2ijq_11yoke_derive20yokeable_derive_impl0EE9from_iterB3l_, symObjAddr: 0x3040, symBinAddr: 0x3F910, symSize: 0x320 }
  - { offset: 0x762DD, size: 0x8, addend: 0x0, symName: __RNvXs_NtNtCslJiobkLta79_5alloc3vec21spec_from_iter_nestedINtB6_3VecNtCsaKzlTDPUHDb_11proc_macro25IdentEINtB4_18SpecFromIterNestedB13_INtNtNtNtCsieiGu2EXtoJ_4core4iter8adapters3map3MapINtNtNtB2g_5slice4iter4IterNtNtCsdGrGZaRBwMb_3syn8generics9TypeParamENCNvCs9jpTMRK2ijq_11yoke_derive20yokeable_derive_impls_0EE9from_iterB46_, symObjAddr: 0x35E0, symBinAddr: 0x3FEB0, symSize: 0x1B0 }
  - { offset: 0x763B5, size: 0x8, addend: 0x0, symName: __RNvXs_NtNtCslJiobkLta79_5alloc3vec21spec_from_iter_nestedINtB6_3VecNtNtCsdGrGZaRBwMb_3syn8generics14WherePredicateEINtB4_18SpecFromIterNestedB13_INtNtNtNtCsieiGu2EXtoJ_4core4iter8adapters3map3MapINtNtNtB2s_5slice4iter4IterNtCsaKzlTDPUHDb_11proc_macro25IdentENCNvCs9jpTMRK2ijq_11yoke_derive20yokeable_derive_impls0_0EE9from_iterB4c_, symObjAddr: 0x3790, symBinAddr: 0x40060, symSize: 0x1B0 }
  - { offset: 0x7648D, size: 0x8, addend: 0x0, symName: __RNvXs_NtNtCslJiobkLta79_5alloc3vec21spec_from_iter_nestedINtB6_3VecNtNtCsdGrGZaRBwMb_3syn8generics14WherePredicateEINtB4_18SpecFromIterNestedB13_INtNtNtNtCsieiGu2EXtoJ_4core4iter8adapters3map3MapINtNtNtB2s_5slice4iter4IterNtCsaKzlTDPUHDb_11proc_macro25IdentENCNvCs9jpTMRK2ijq_11yoke_derive20yokeable_derive_impls2_0EE9from_iterB4c_, symObjAddr: 0x3940, symBinAddr: 0x40210, symSize: 0x1B0 }
  - { offset: 0x7656C, size: 0x8, addend: 0x0, symName: __RNvXs6_NtCslJiobkLta79_5alloc3vecINtB5_3VecNtCsaKzlTDPUHDb_11proc_macro25IdentENtNtNtCsieiGu2EXtoJ_4core3ops5deref5Deref5derefCs9jpTMRK2ijq_11yoke_derive, symObjAddr: 0x33F0, symBinAddr: 0x3FCC0, symSize: 0x20 }
  - { offset: 0x765AC, size: 0x8, addend: 0x0, symName: __RNvXs6_NtCslJiobkLta79_5alloc3vecINtB5_3VecNtNtCsdGrGZaRBwMb_3syn8generics9TypeParamENtNtNtCsieiGu2EXtoJ_4core3ops5deref5Deref5derefCs9jpTMRK2ijq_11yoke_derive, symObjAddr: 0x3410, symBinAddr: 0x3FCE0, symSize: 0x20 }
  - { offset: 0x765F7, size: 0x8, addend: 0x0, symName: __RNvXs_NtNtCslJiobkLta79_5alloc3vec16in_place_collectINtB6_3VecNtNtCsdGrGZaRBwMb_3syn4attr9AttributeEINtNtB6_14spec_from_iter12SpecFromIterBY_INtNtNtNtCsieiGu2EXtoJ_4core4iter8adapters3map3MapINtNtB6_9into_iter8IntoIterBY_ENCINvNtNtB12_3gen4fold8fold_vecBY_NtNvCs9jpTMRK2ijq_11yoke_derive16replace_lifetime15ReplaceLifetimeNvYB46_NtB3D_4Fold14fold_attributeE0EE9from_iterB4a_, symObjAddr: 0x3490, symBinAddr: 0x3FD60, symSize: 0x30 }
  - { offset: 0x76653, size: 0x8, addend: 0x0, symName: __RNvXs_NtNtCslJiobkLta79_5alloc3vec16in_place_collectINtB6_3VecNtNtCsdGrGZaRBwMb_3syn4expr3ArmEINtNtB6_14spec_from_iter12SpecFromIterBY_INtNtNtNtCsieiGu2EXtoJ_4core4iter8adapters3map3MapINtNtB6_9into_iter8IntoIterBY_ENCINvNtNtB12_3gen4fold8fold_vecBY_NtNvCs9jpTMRK2ijq_11yoke_derive16replace_lifetime15ReplaceLifetimeNvYB40_NtB3x_4Fold8fold_armE0EE9from_iterB44_, symObjAddr: 0x34C0, symBinAddr: 0x3FD90, symSize: 0x30 }
  - { offset: 0x766AF, size: 0x8, addend: 0x0, symName: __RNvXs_NtNtCslJiobkLta79_5alloc3vec16in_place_collectINtB6_3VecNtNtCsdGrGZaRBwMb_3syn4item11ForeignItemEINtNtB6_14spec_from_iter12SpecFromIterBY_INtNtNtNtCsieiGu2EXtoJ_4core4iter8adapters3map3MapINtNtB6_9into_iter8IntoIterBY_ENCINvNtNtB12_3gen4fold8fold_vecBY_NtNvCs9jpTMRK2ijq_11yoke_derive16replace_lifetime15ReplaceLifetimeNvYB49_NtB3G_4Fold17fold_foreign_itemE0EE9from_iterB4d_, symObjAddr: 0x34F0, symBinAddr: 0x3FDC0, symSize: 0x30 }
  - { offset: 0x7670B, size: 0x8, addend: 0x0, symName: __RNvXs_NtNtCslJiobkLta79_5alloc3vec16in_place_collectINtB6_3VecNtNtCsdGrGZaRBwMb_3syn4item4ItemEINtNtB6_14spec_from_iter12SpecFromIterBY_INtNtNtNtCsieiGu2EXtoJ_4core4iter8adapters3map3MapINtNtB6_9into_iter8IntoIterBY_ENCINvNtNtB12_3gen4fold8fold_vecBY_NtNvCs9jpTMRK2ijq_11yoke_derive16replace_lifetime15ReplaceLifetimeNvYB41_NtB3y_4Fold9fold_itemE0EE9from_iterB45_, symObjAddr: 0x3520, symBinAddr: 0x3FDF0, symSize: 0x30 }
  - { offset: 0x76767, size: 0x8, addend: 0x0, symName: __RNvXs_NtNtCslJiobkLta79_5alloc3vec16in_place_collectINtB6_3VecNtNtCsdGrGZaRBwMb_3syn4item8ImplItemEINtNtB6_14spec_from_iter12SpecFromIterBY_INtNtNtNtCsieiGu2EXtoJ_4core4iter8adapters3map3MapINtNtB6_9into_iter8IntoIterBY_ENCINvNtNtB12_3gen4fold8fold_vecBY_NtNvCs9jpTMRK2ijq_11yoke_derive16replace_lifetime15ReplaceLifetimeNvYB45_NtB3C_4Fold14fold_impl_itemE0EE9from_iterB49_, symObjAddr: 0x3550, symBinAddr: 0x3FE20, symSize: 0x30 }
  - { offset: 0x767C3, size: 0x8, addend: 0x0, symName: __RNvXs_NtNtCslJiobkLta79_5alloc3vec16in_place_collectINtB6_3VecNtNtCsdGrGZaRBwMb_3syn4item9TraitItemEINtNtB6_14spec_from_iter12SpecFromIterBY_INtNtNtNtCsieiGu2EXtoJ_4core4iter8adapters3map3MapINtNtB6_9into_iter8IntoIterBY_ENCINvNtNtB12_3gen4fold8fold_vecBY_NtNvCs9jpTMRK2ijq_11yoke_derive16replace_lifetime15ReplaceLifetimeNvYB46_NtB3D_4Fold15fold_trait_itemE0EE9from_iterB4a_, symObjAddr: 0x3580, symBinAddr: 0x3FE50, symSize: 0x30 }
  - { offset: 0x7681F, size: 0x8, addend: 0x0, symName: __RNvXs_NtNtCslJiobkLta79_5alloc3vec16in_place_collectINtB6_3VecNtNtCsdGrGZaRBwMb_3syn4stmt4StmtEINtNtB6_14spec_from_iter12SpecFromIterBY_INtNtNtNtCsieiGu2EXtoJ_4core4iter8adapters3map3MapINtNtB6_9into_iter8IntoIterBY_ENCINvNtNtB12_3gen4fold8fold_vecBY_NtNvCs9jpTMRK2ijq_11yoke_derive16replace_lifetime15ReplaceLifetimeNvYB41_NtB3y_4Fold9fold_stmtE0EE9from_iterB45_, symObjAddr: 0x35B0, symBinAddr: 0x3FE80, symSize: 0x30 }
  - { offset: 0x76882, size: 0x8, addend: 0x0, symName: __RNvXse_NtCslJiobkLta79_5alloc3vecINtB5_3VecNtNtCsdGrGZaRBwMb_3syn4expr3ArmENtNtNtNtCsieiGu2EXtoJ_4core4iter6traits7collect12IntoIterator9into_iterCs9jpTMRK2ijq_11yoke_derive, symObjAddr: 0x3AF0, symBinAddr: 0x403C0, symSize: 0x140 }
  - { offset: 0x76B12, size: 0x8, addend: 0x0, symName: __RNvXse_NtCslJiobkLta79_5alloc3vecINtB5_3VecNtNtCsdGrGZaRBwMb_3syn4item11ForeignItemENtNtNtNtCsieiGu2EXtoJ_4core4iter6traits7collect12IntoIterator9into_iterCs9jpTMRK2ijq_11yoke_derive, symObjAddr: 0x3C30, symBinAddr: 0x40500, symSize: 0x140 }
  - { offset: 0x76DA2, size: 0x8, addend: 0x0, symName: __RNvXse_NtCslJiobkLta79_5alloc3vecINtB5_3VecNtNtCsdGrGZaRBwMb_3syn4item4ItemENtNtNtNtCsieiGu2EXtoJ_4core4iter6traits7collect12IntoIterator9into_iterCs9jpTMRK2ijq_11yoke_derive, symObjAddr: 0x3D70, symBinAddr: 0x40640, symSize: 0x140 }
  - { offset: 0x77032, size: 0x8, addend: 0x0, symName: __RNvXse_NtCslJiobkLta79_5alloc3vecINtB5_3VecNtNtCsdGrGZaRBwMb_3syn4item8ImplItemENtNtNtNtCsieiGu2EXtoJ_4core4iter6traits7collect12IntoIterator9into_iterCs9jpTMRK2ijq_11yoke_derive, symObjAddr: 0x3EB0, symBinAddr: 0x40780, symSize: 0x140 }
  - { offset: 0x772C2, size: 0x8, addend: 0x0, symName: __RNvXse_NtCslJiobkLta79_5alloc3vecINtB5_3VecNtNtCsdGrGZaRBwMb_3syn4item9TraitItemENtNtNtNtCsieiGu2EXtoJ_4core4iter6traits7collect12IntoIterator9into_iterCs9jpTMRK2ijq_11yoke_derive, symObjAddr: 0x3FF0, symBinAddr: 0x408C0, symSize: 0x140 }
  - { offset: 0x77552, size: 0x8, addend: 0x0, symName: __RNvXse_NtCslJiobkLta79_5alloc3vecINtB5_3VecNtNtCsdGrGZaRBwMb_3syn4stmt4StmtENtNtNtNtCsieiGu2EXtoJ_4core4iter6traits7collect12IntoIterator9into_iterCs9jpTMRK2ijq_11yoke_derive, symObjAddr: 0x4130, symBinAddr: 0x40A00, symSize: 0x140 }
  - { offset: 0x77904, size: 0x8, addend: 0x0, symName: __RNvXsg_NtCslJiobkLta79_5alloc3vecQINtB5_3VecNtCs4L8YLU89NU9_12synstructure11BindingInfoENtNtNtNtCsieiGu2EXtoJ_4core4iter6traits7collect12IntoIterator9into_iterCs9jpTMRK2ijq_11yoke_derive, symObjAddr: 0x4270, symBinAddr: 0x40B40, symSize: 0x90 }
  - { offset: 0x77B25, size: 0x8, addend: 0x0, symName: __RNvXsg_NtCslJiobkLta79_5alloc3vecQINtB5_3VecNtCs4L8YLU89NU9_12synstructure11VariantInfoENtNtNtNtCsieiGu2EXtoJ_4core4iter6traits7collect12IntoIterator9into_iterCs9jpTMRK2ijq_11yoke_derive, symObjAddr: 0x4300, symBinAddr: 0x40BD0, symSize: 0x90 }
  - { offset: 0x77DCF, size: 0x8, addend: 0x0, symName: __RNvXsn_NtCslJiobkLta79_5alloc3vecINtB5_3VecNtCsaKzlTDPUHDb_11proc_macro25IdentENtNtNtCsieiGu2EXtoJ_4core3ops4drop4Drop4dropCs9jpTMRK2ijq_11yoke_derive, symObjAddr: 0x72D0, symBinAddr: 0x43BA0, symSize: 0x30 }
  - { offset: 0x77E7F, size: 0x8, addend: 0x0, symName: __RNvXsn_NtCslJiobkLta79_5alloc3vecINtB5_3VecNtNtCsdGrGZaRBwMb_3syn8generics14WherePredicateENtNtNtCsieiGu2EXtoJ_4core3ops4drop4Drop4dropCs9jpTMRK2ijq_11yoke_derive, symObjAddr: 0x7300, symBinAddr: 0x43BD0, symSize: 0x30 }
  - { offset: 0x77F2F, size: 0x8, addend: 0x0, symName: __RNvXsn_NtCslJiobkLta79_5alloc3vecINtB5_3VecNtNtCsdGrGZaRBwMb_3syn8generics9TypeParamENtNtNtCsieiGu2EXtoJ_4core3ops4drop4Drop4dropCs9jpTMRK2ijq_11yoke_derive, symObjAddr: 0x7330, symBinAddr: 0x43C00, symSize: 0x30 }
  - { offset: 0x78355, size: 0x8, addend: 0x0, symName: __RNvXsk_NtNtCslJiobkLta79_5alloc11collections9vec_dequeINtNtB9_3vec3VecTNtNtCsdGrGZaRBwMb_3syn2ty4TypeNtNtB1b_5token5CommaEEINtNtCsieiGu2EXtoJ_4core7convert4FromINtB5_8VecDequeB16_EE4fromCs9jpTMRK2ijq_11yoke_derive, symObjAddr: 0x4390, symBinAddr: 0x40C60, symSize: 0x2A0 }
  - { offset: 0x78613, size: 0x8, addend: 0x0, symName: __RNvXsk_NtNtCslJiobkLta79_5alloc11collections9vec_dequeINtNtB9_3vec3VecTNtNtCsdGrGZaRBwMb_3syn2ty9BareFnArgNtNtB1b_5token5CommaEEINtNtCsieiGu2EXtoJ_4core7convert4FromINtB5_8VecDequeB16_EE4fromCs9jpTMRK2ijq_11yoke_derive, symObjAddr: 0x4630, symBinAddr: 0x40F00, symSize: 0x2A0 }
  - { offset: 0x788D1, size: 0x8, addend: 0x0, symName: __RNvXsk_NtNtCslJiobkLta79_5alloc11collections9vec_dequeINtNtB9_3vec3VecTNtNtCsdGrGZaRBwMb_3syn3pat3PatNtNtB1b_5token2OrEEINtNtCsieiGu2EXtoJ_4core7convert4FromINtB5_8VecDequeB16_EE4fromCs9jpTMRK2ijq_11yoke_derive, symObjAddr: 0x48D0, symBinAddr: 0x411A0, symSize: 0x2A0 }
  - { offset: 0x78B8F, size: 0x8, addend: 0x0, symName: __RNvXsk_NtNtCslJiobkLta79_5alloc11collections9vec_dequeINtNtB9_3vec3VecTNtNtCsdGrGZaRBwMb_3syn3pat3PatNtNtB1b_5token5CommaEEINtNtCsieiGu2EXtoJ_4core7convert4FromINtB5_8VecDequeB16_EE4fromCs9jpTMRK2ijq_11yoke_derive, symObjAddr: 0x4B70, symBinAddr: 0x41440, symSize: 0x2A0 }
  - { offset: 0x78E4D, size: 0x8, addend: 0x0, symName: __RNvXsk_NtNtCslJiobkLta79_5alloc11collections9vec_dequeINtNtB9_3vec3VecTNtNtCsdGrGZaRBwMb_3syn3pat8FieldPatNtNtB1b_5token5CommaEEINtNtCsieiGu2EXtoJ_4core7convert4FromINtB5_8VecDequeB16_EE4fromCs9jpTMRK2ijq_11yoke_derive, symObjAddr: 0x4E10, symBinAddr: 0x416E0, symSize: 0x2A0 }
  - { offset: 0x7910B, size: 0x8, addend: 0x0, symName: __RNvXsk_NtNtCslJiobkLta79_5alloc11collections9vec_dequeINtNtB9_3vec3VecTNtNtCsdGrGZaRBwMb_3syn4data5FieldNtNtB1b_5token5CommaEEINtNtCsieiGu2EXtoJ_4core7convert4FromINtB5_8VecDequeB16_EE4fromCs9jpTMRK2ijq_11yoke_derive, symObjAddr: 0x50B0, symBinAddr: 0x41980, symSize: 0x2A0 }
  - { offset: 0x793C9, size: 0x8, addend: 0x0, symName: __RNvXsk_NtNtCslJiobkLta79_5alloc11collections9vec_dequeINtNtB9_3vec3VecTNtNtCsdGrGZaRBwMb_3syn4data7VariantNtNtB1b_5token5CommaEEINtNtCsieiGu2EXtoJ_4core7convert4FromINtB5_8VecDequeB16_EE4fromCs9jpTMRK2ijq_11yoke_derive, symObjAddr: 0x5350, symBinAddr: 0x41C20, symSize: 0x2A0 }
  - { offset: 0x79687, size: 0x8, addend: 0x0, symName: __RNvXsk_NtNtCslJiobkLta79_5alloc11collections9vec_dequeINtNtB9_3vec3VecTNtNtCsdGrGZaRBwMb_3syn4expr10FieldValueNtNtB1b_5token5CommaEEINtNtCsieiGu2EXtoJ_4core7convert4FromINtB5_8VecDequeB16_EE4fromCs9jpTMRK2ijq_11yoke_derive, symObjAddr: 0x55F0, symBinAddr: 0x41EC0, symSize: 0x2A0 }
  - { offset: 0x79945, size: 0x8, addend: 0x0, symName: __RNvXsk_NtNtCslJiobkLta79_5alloc11collections9vec_dequeINtNtB9_3vec3VecTNtNtCsdGrGZaRBwMb_3syn4expr4ExprNtNtB1b_5token5CommaEEINtNtCsieiGu2EXtoJ_4core7convert4FromINtB5_8VecDequeB16_EE4fromCs9jpTMRK2ijq_11yoke_derive, symObjAddr: 0x5890, symBinAddr: 0x42160, symSize: 0x2A0 }
  - { offset: 0x79C03, size: 0x8, addend: 0x0, symName: __RNvXsk_NtNtCslJiobkLta79_5alloc11collections9vec_dequeINtNtB9_3vec3VecTNtNtCsdGrGZaRBwMb_3syn4item5FnArgNtNtB1b_5token5CommaEEINtNtCsieiGu2EXtoJ_4core7convert4FromINtB5_8VecDequeB16_EE4fromCs9jpTMRK2ijq_11yoke_derive, symObjAddr: 0x5B30, symBinAddr: 0x42400, symSize: 0x2A0 }
  - { offset: 0x79EC1, size: 0x8, addend: 0x0, symName: __RNvXsk_NtNtCslJiobkLta79_5alloc11collections9vec_dequeINtNtB9_3vec3VecTNtNtCsdGrGZaRBwMb_3syn4item7UseTreeNtNtB1b_5token5CommaEEINtNtCsieiGu2EXtoJ_4core7convert4FromINtB5_8VecDequeB16_EE4fromCs9jpTMRK2ijq_11yoke_derive, symObjAddr: 0x5DD0, symBinAddr: 0x426A0, symSize: 0x2A0 }
  - { offset: 0x7A17F, size: 0x8, addend: 0x0, symName: __RNvXsk_NtNtCslJiobkLta79_5alloc11collections9vec_dequeINtNtB9_3vec3VecTNtNtCsdGrGZaRBwMb_3syn4path11PathSegmentNtNtB1b_5token7PathSepEEINtNtCsieiGu2EXtoJ_4core7convert4FromINtB5_8VecDequeB16_EE4fromCs9jpTMRK2ijq_11yoke_derive, symObjAddr: 0x6070, symBinAddr: 0x42940, symSize: 0x2A0 }
  - { offset: 0x7A43D, size: 0x8, addend: 0x0, symName: __RNvXsk_NtNtCslJiobkLta79_5alloc11collections9vec_dequeINtNtB9_3vec3VecTNtNtCsdGrGZaRBwMb_3syn4path15GenericArgumentNtNtB1b_5token5CommaEEINtNtCsieiGu2EXtoJ_4core7convert4FromINtB5_8VecDequeB16_EE4fromCs9jpTMRK2ijq_11yoke_derive, symObjAddr: 0x6310, symBinAddr: 0x42BE0, symSize: 0x2A0 }
  - { offset: 0x7A6FB, size: 0x8, addend: 0x0, symName: __RNvXsk_NtNtCslJiobkLta79_5alloc11collections9vec_dequeINtNtB9_3vec3VecTNtNtCsdGrGZaRBwMb_3syn8generics12GenericParamNtNtB1b_5token5CommaEEINtNtCsieiGu2EXtoJ_4core7convert4FromINtB5_8VecDequeB16_EE4fromCs9jpTMRK2ijq_11yoke_derive, symObjAddr: 0x65B0, symBinAddr: 0x42E80, symSize: 0x2A0 }
  - { offset: 0x7A9B9, size: 0x8, addend: 0x0, symName: __RNvXsk_NtNtCslJiobkLta79_5alloc11collections9vec_dequeINtNtB9_3vec3VecTNtNtCsdGrGZaRBwMb_3syn8generics13CapturedParamNtNtB1b_5token5CommaEEINtNtCsieiGu2EXtoJ_4core7convert4FromINtB5_8VecDequeB16_EE4fromCs9jpTMRK2ijq_11yoke_derive, symObjAddr: 0x6850, symBinAddr: 0x43120, symSize: 0x2A0 }
  - { offset: 0x7AC77, size: 0x8, addend: 0x0, symName: __RNvXsk_NtNtCslJiobkLta79_5alloc11collections9vec_dequeINtNtB9_3vec3VecTNtNtCsdGrGZaRBwMb_3syn8generics14TypeParamBoundNtNtB1b_5token4PlusEEINtNtCsieiGu2EXtoJ_4core7convert4FromINtB5_8VecDequeB16_EE4fromCs9jpTMRK2ijq_11yoke_derive, symObjAddr: 0x6AF0, symBinAddr: 0x433C0, symSize: 0x2A0 }
  - { offset: 0x7AF35, size: 0x8, addend: 0x0, symName: __RNvXsk_NtNtCslJiobkLta79_5alloc11collections9vec_dequeINtNtB9_3vec3VecTNtNtCsdGrGZaRBwMb_3syn8generics14WherePredicateNtNtB1b_5token5CommaEEINtNtCsieiGu2EXtoJ_4core7convert4FromINtB5_8VecDequeB16_EE4fromCs9jpTMRK2ijq_11yoke_derive, symObjAddr: 0x6D90, symBinAddr: 0x43660, symSize: 0x2A0 }
  - { offset: 0x7B1F3, size: 0x8, addend: 0x0, symName: __RNvXsk_NtNtCslJiobkLta79_5alloc11collections9vec_dequeINtNtB9_3vec3VecTNtNtCsdGrGZaRBwMb_3syn8lifetime8LifetimeNtNtB1b_5token4PlusEEINtNtCsieiGu2EXtoJ_4core7convert4FromINtB5_8VecDequeB16_EE4fromCs9jpTMRK2ijq_11yoke_derive, symObjAddr: 0x7030, symBinAddr: 0x43900, symSize: 0x2A0 }
  - { offset: 0x81218, size: 0x8, addend: 0x0, symName: __RINvMsi_NtCslJiobkLta79_5alloc3vecINtB6_3VecNtCsaKzlTDPUHDb_11proc_macro25IdentE14extend_trustedINtNtNtNtCsieiGu2EXtoJ_4core4iter8adapters3map3MapINtNtNtB1F_5slice4iter4IterNtNtCsdGrGZaRBwMb_3syn8generics9TypeParamENCNvCs9jpTMRK2ijq_11yoke_derive20yokeable_derive_impls_0EEB3v_, symObjAddr: 0x0, symBinAddr: 0x3C8D0, symSize: 0x1A0 }
  - { offset: 0x81510, size: 0x8, addend: 0x0, symName: __RINvMsi_NtCslJiobkLta79_5alloc3vecINtB6_3VecNtNtCsdGrGZaRBwMb_3syn8generics14WherePredicateE14extend_trustedINtNtNtNtCsieiGu2EXtoJ_4core4iter8adapters3map3MapINtNtNtB1R_5slice4iter4IterNtCsaKzlTDPUHDb_11proc_macro25IdentENCNvCs9jpTMRK2ijq_11yoke_derive20yokeable_derive_impls0_0EEB3B_, symObjAddr: 0x1A0, symBinAddr: 0x3CA70, symSize: 0x1A0 }
  - { offset: 0x817C7, size: 0x8, addend: 0x0, symName: __RINvMsi_NtCslJiobkLta79_5alloc3vecINtB6_3VecNtNtCsdGrGZaRBwMb_3syn8generics14WherePredicateE14extend_trustedINtNtNtNtCsieiGu2EXtoJ_4core4iter8adapters3map3MapINtNtNtB1R_5slice4iter4IterNtCsaKzlTDPUHDb_11proc_macro25IdentENCNvCs9jpTMRK2ijq_11yoke_derive20yokeable_derive_impls2_0EEB3B_, symObjAddr: 0x340, symBinAddr: 0x3CC10, symSize: 0x1A0 }
  - { offset: 0x81B91, size: 0x8, addend: 0x0, symName: __RINvMsi_NtCslJiobkLta79_5alloc3vecINtB6_3VecNtNtCsdGrGZaRBwMb_3syn8generics9TypeParamE16extend_desugaredINtNtNtNtCsieiGu2EXtoJ_4core4iter8adapters3map3MapNtBI_10TypeParamsNCNvCs9jpTMRK2ijq_11yoke_derive20yokeable_derive_impl0EEB2N_, symObjAddr: 0x4E0, symBinAddr: 0x3CDB0, symSize: 0x250 }
  - { offset: 0x81F9A, size: 0x8, addend: 0x0, symName: __RNvMs_NtCslJiobkLta79_5alloc3vecINtB4_3VecNtCsaKzlTDPUHDb_11proc_macro25IdentE7reserveCs9jpTMRK2ijq_11yoke_derive, symObjAddr: 0xB50, symBinAddr: 0x3D420, symSize: 0xB0 }
  - { offset: 0x821AB, size: 0x8, addend: 0x0, symName: __RNvMs_NtCslJiobkLta79_5alloc3vecINtB4_3VecNtCsaKzlTDPUHDb_11proc_macro25IdentE8as_sliceCs9jpTMRK2ijq_11yoke_derive, symObjAddr: 0xC00, symBinAddr: 0x3D4D0, symSize: 0x50 }
  - { offset: 0x8237B, size: 0x8, addend: 0x0, symName: __RNvMs_NtCslJiobkLta79_5alloc3vecINtB4_3VecNtNtCsdGrGZaRBwMb_3syn8generics14WherePredicateE7reserveCs9jpTMRK2ijq_11yoke_derive, symObjAddr: 0xC50, symBinAddr: 0x3D520, symSize: 0xB0 }
  - { offset: 0x825FE, size: 0x8, addend: 0x0, symName: __RNvMs_NtCslJiobkLta79_5alloc3vecINtB4_3VecNtNtCsdGrGZaRBwMb_3syn8generics9TypeParamE7reserveCs9jpTMRK2ijq_11yoke_derive, symObjAddr: 0xD00, symBinAddr: 0x3D5D0, symSize: 0xB0 }
  - { offset: 0x82802, size: 0x8, addend: 0x0, symName: __RNvMs_NtCslJiobkLta79_5alloc3vecINtB4_3VecNtNtCsdGrGZaRBwMb_3syn8generics9TypeParamE8as_sliceCs9jpTMRK2ijq_11yoke_derive, symObjAddr: 0xDB0, symBinAddr: 0x3D680, symSize: 0x50 }
  - { offset: 0x829AA, size: 0x8, addend: 0x0, symName: __RNvMs_NtCslJiobkLta79_5alloc3vecINtB4_3VecTNtNtCsdGrGZaRBwMb_3syn2ty4TypeNtNtBJ_5token5CommaEE17from_raw_parts_inCs9jpTMRK2ijq_11yoke_derive, symObjAddr: 0xE00, symBinAddr: 0x3D6D0, symSize: 0xA0 }
  - { offset: 0x82CF7, size: 0x8, addend: 0x0, symName: __RNvMs_NtCslJiobkLta79_5alloc3vecINtB4_3VecTNtNtCsdGrGZaRBwMb_3syn2ty4TypeNtNtBJ_5token5CommaEE25into_raw_parts_with_allocCs9jpTMRK2ijq_11yoke_derive, symObjAddr: 0xEA0, symBinAddr: 0x3D770, symSize: 0x120 }
  - { offset: 0x8306B, size: 0x8, addend: 0x0, symName: __RNvMs_NtCslJiobkLta79_5alloc3vecINtB4_3VecTNtNtCsdGrGZaRBwMb_3syn2ty9BareFnArgNtNtBJ_5token5CommaEE17from_raw_parts_inCs9jpTMRK2ijq_11yoke_derive, symObjAddr: 0xFC0, symBinAddr: 0x3D890, symSize: 0xA0 }
  - { offset: 0x833B8, size: 0x8, addend: 0x0, symName: __RNvMs_NtCslJiobkLta79_5alloc3vecINtB4_3VecTNtNtCsdGrGZaRBwMb_3syn2ty9BareFnArgNtNtBJ_5token5CommaEE25into_raw_parts_with_allocCs9jpTMRK2ijq_11yoke_derive, symObjAddr: 0x1060, symBinAddr: 0x3D930, symSize: 0x120 }
  - { offset: 0x8372C, size: 0x8, addend: 0x0, symName: __RNvMs_NtCslJiobkLta79_5alloc3vecINtB4_3VecTNtNtCsdGrGZaRBwMb_3syn3pat3PatNtNtBJ_5token2OrEE17from_raw_parts_inCs9jpTMRK2ijq_11yoke_derive, symObjAddr: 0x1180, symBinAddr: 0x3DA50, symSize: 0xA0 }
  - { offset: 0x83A79, size: 0x8, addend: 0x0, symName: __RNvMs_NtCslJiobkLta79_5alloc3vecINtB4_3VecTNtNtCsdGrGZaRBwMb_3syn3pat3PatNtNtBJ_5token2OrEE25into_raw_parts_with_allocCs9jpTMRK2ijq_11yoke_derive, symObjAddr: 0x1220, symBinAddr: 0x3DAF0, symSize: 0x120 }
  - { offset: 0x83DED, size: 0x8, addend: 0x0, symName: __RNvMs_NtCslJiobkLta79_5alloc3vecINtB4_3VecTNtNtCsdGrGZaRBwMb_3syn3pat3PatNtNtBJ_5token5CommaEE17from_raw_parts_inCs9jpTMRK2ijq_11yoke_derive, symObjAddr: 0x1340, symBinAddr: 0x3DC10, symSize: 0xA0 }
  - { offset: 0x8413A, size: 0x8, addend: 0x0, symName: __RNvMs_NtCslJiobkLta79_5alloc3vecINtB4_3VecTNtNtCsdGrGZaRBwMb_3syn3pat3PatNtNtBJ_5token5CommaEE25into_raw_parts_with_allocCs9jpTMRK2ijq_11yoke_derive, symObjAddr: 0x13E0, symBinAddr: 0x3DCB0, symSize: 0x120 }
  - { offset: 0x844AE, size: 0x8, addend: 0x0, symName: __RNvMs_NtCslJiobkLta79_5alloc3vecINtB4_3VecTNtNtCsdGrGZaRBwMb_3syn3pat8FieldPatNtNtBJ_5token5CommaEE17from_raw_parts_inCs9jpTMRK2ijq_11yoke_derive, symObjAddr: 0x1500, symBinAddr: 0x3DDD0, symSize: 0xA0 }
  - { offset: 0x847FB, size: 0x8, addend: 0x0, symName: __RNvMs_NtCslJiobkLta79_5alloc3vecINtB4_3VecTNtNtCsdGrGZaRBwMb_3syn3pat8FieldPatNtNtBJ_5token5CommaEE25into_raw_parts_with_allocCs9jpTMRK2ijq_11yoke_derive, symObjAddr: 0x15A0, symBinAddr: 0x3DE70, symSize: 0x120 }
  - { offset: 0x84B6F, size: 0x8, addend: 0x0, symName: __RNvMs_NtCslJiobkLta79_5alloc3vecINtB4_3VecTNtNtCsdGrGZaRBwMb_3syn4data5FieldNtNtBJ_5token5CommaEE17from_raw_parts_inCs9jpTMRK2ijq_11yoke_derive, symObjAddr: 0x16C0, symBinAddr: 0x3DF90, symSize: 0xA0 }
  - { offset: 0x84EBC, size: 0x8, addend: 0x0, symName: __RNvMs_NtCslJiobkLta79_5alloc3vecINtB4_3VecTNtNtCsdGrGZaRBwMb_3syn4data5FieldNtNtBJ_5token5CommaEE25into_raw_parts_with_allocCs9jpTMRK2ijq_11yoke_derive, symObjAddr: 0x1760, symBinAddr: 0x3E030, symSize: 0x120 }
  - { offset: 0x85230, size: 0x8, addend: 0x0, symName: __RNvMs_NtCslJiobkLta79_5alloc3vecINtB4_3VecTNtNtCsdGrGZaRBwMb_3syn4data7VariantNtNtBJ_5token5CommaEE17from_raw_parts_inCs9jpTMRK2ijq_11yoke_derive, symObjAddr: 0x1880, symBinAddr: 0x3E150, symSize: 0xA0 }
  - { offset: 0x8557D, size: 0x8, addend: 0x0, symName: __RNvMs_NtCslJiobkLta79_5alloc3vecINtB4_3VecTNtNtCsdGrGZaRBwMb_3syn4data7VariantNtNtBJ_5token5CommaEE25into_raw_parts_with_allocCs9jpTMRK2ijq_11yoke_derive, symObjAddr: 0x1920, symBinAddr: 0x3E1F0, symSize: 0x120 }
  - { offset: 0x858F1, size: 0x8, addend: 0x0, symName: __RNvMs_NtCslJiobkLta79_5alloc3vecINtB4_3VecTNtNtCsdGrGZaRBwMb_3syn4expr10FieldValueNtNtBJ_5token5CommaEE17from_raw_parts_inCs9jpTMRK2ijq_11yoke_derive, symObjAddr: 0x1A40, symBinAddr: 0x3E310, symSize: 0xA0 }
  - { offset: 0x85C3E, size: 0x8, addend: 0x0, symName: __RNvMs_NtCslJiobkLta79_5alloc3vecINtB4_3VecTNtNtCsdGrGZaRBwMb_3syn4expr10FieldValueNtNtBJ_5token5CommaEE25into_raw_parts_with_allocCs9jpTMRK2ijq_11yoke_derive, symObjAddr: 0x1AE0, symBinAddr: 0x3E3B0, symSize: 0x120 }
  - { offset: 0x85FB2, size: 0x8, addend: 0x0, symName: __RNvMs_NtCslJiobkLta79_5alloc3vecINtB4_3VecTNtNtCsdGrGZaRBwMb_3syn4expr4ExprNtNtBJ_5token5CommaEE17from_raw_parts_inCs9jpTMRK2ijq_11yoke_derive, symObjAddr: 0x1C00, symBinAddr: 0x3E4D0, symSize: 0xA0 }
  - { offset: 0x862FF, size: 0x8, addend: 0x0, symName: __RNvMs_NtCslJiobkLta79_5alloc3vecINtB4_3VecTNtNtCsdGrGZaRBwMb_3syn4expr4ExprNtNtBJ_5token5CommaEE25into_raw_parts_with_allocCs9jpTMRK2ijq_11yoke_derive, symObjAddr: 0x1CA0, symBinAddr: 0x3E570, symSize: 0x120 }
  - { offset: 0x86673, size: 0x8, addend: 0x0, symName: __RNvMs_NtCslJiobkLta79_5alloc3vecINtB4_3VecTNtNtCsdGrGZaRBwMb_3syn4item5FnArgNtNtBJ_5token5CommaEE17from_raw_parts_inCs9jpTMRK2ijq_11yoke_derive, symObjAddr: 0x1DC0, symBinAddr: 0x3E690, symSize: 0xA0 }
  - { offset: 0x869C0, size: 0x8, addend: 0x0, symName: __RNvMs_NtCslJiobkLta79_5alloc3vecINtB4_3VecTNtNtCsdGrGZaRBwMb_3syn4item5FnArgNtNtBJ_5token5CommaEE25into_raw_parts_with_allocCs9jpTMRK2ijq_11yoke_derive, symObjAddr: 0x1E60, symBinAddr: 0x3E730, symSize: 0x120 }
  - { offset: 0x86D34, size: 0x8, addend: 0x0, symName: __RNvMs_NtCslJiobkLta79_5alloc3vecINtB4_3VecTNtNtCsdGrGZaRBwMb_3syn4item7UseTreeNtNtBJ_5token5CommaEE17from_raw_parts_inCs9jpTMRK2ijq_11yoke_derive, symObjAddr: 0x1F80, symBinAddr: 0x3E850, symSize: 0xA0 }
  - { offset: 0x87081, size: 0x8, addend: 0x0, symName: __RNvMs_NtCslJiobkLta79_5alloc3vecINtB4_3VecTNtNtCsdGrGZaRBwMb_3syn4item7UseTreeNtNtBJ_5token5CommaEE25into_raw_parts_with_allocCs9jpTMRK2ijq_11yoke_derive, symObjAddr: 0x2020, symBinAddr: 0x3E8F0, symSize: 0x120 }
  - { offset: 0x873F5, size: 0x8, addend: 0x0, symName: __RNvMs_NtCslJiobkLta79_5alloc3vecINtB4_3VecTNtNtCsdGrGZaRBwMb_3syn4path11PathSegmentNtNtBJ_5token7PathSepEE17from_raw_parts_inCs9jpTMRK2ijq_11yoke_derive, symObjAddr: 0x2140, symBinAddr: 0x3EA10, symSize: 0xA0 }
  - { offset: 0x87742, size: 0x8, addend: 0x0, symName: __RNvMs_NtCslJiobkLta79_5alloc3vecINtB4_3VecTNtNtCsdGrGZaRBwMb_3syn4path11PathSegmentNtNtBJ_5token7PathSepEE25into_raw_parts_with_allocCs9jpTMRK2ijq_11yoke_derive, symObjAddr: 0x21E0, symBinAddr: 0x3EAB0, symSize: 0x120 }
  - { offset: 0x87AB6, size: 0x8, addend: 0x0, symName: __RNvMs_NtCslJiobkLta79_5alloc3vecINtB4_3VecTNtNtCsdGrGZaRBwMb_3syn4path15GenericArgumentNtNtBJ_5token5CommaEE17from_raw_parts_inCs9jpTMRK2ijq_11yoke_derive, symObjAddr: 0x2300, symBinAddr: 0x3EBD0, symSize: 0xA0 }
  - { offset: 0x87E03, size: 0x8, addend: 0x0, symName: __RNvMs_NtCslJiobkLta79_5alloc3vecINtB4_3VecTNtNtCsdGrGZaRBwMb_3syn4path15GenericArgumentNtNtBJ_5token5CommaEE25into_raw_parts_with_allocCs9jpTMRK2ijq_11yoke_derive, symObjAddr: 0x23A0, symBinAddr: 0x3EC70, symSize: 0x120 }
  - { offset: 0x88177, size: 0x8, addend: 0x0, symName: __RNvMs_NtCslJiobkLta79_5alloc3vecINtB4_3VecTNtNtCsdGrGZaRBwMb_3syn8generics12GenericParamNtNtBJ_5token5CommaEE17from_raw_parts_inCs9jpTMRK2ijq_11yoke_derive, symObjAddr: 0x24C0, symBinAddr: 0x3ED90, symSize: 0xA0 }
  - { offset: 0x884C4, size: 0x8, addend: 0x0, symName: __RNvMs_NtCslJiobkLta79_5alloc3vecINtB4_3VecTNtNtCsdGrGZaRBwMb_3syn8generics12GenericParamNtNtBJ_5token5CommaEE25into_raw_parts_with_allocCs9jpTMRK2ijq_11yoke_derive, symObjAddr: 0x2560, symBinAddr: 0x3EE30, symSize: 0x120 }
  - { offset: 0x88838, size: 0x8, addend: 0x0, symName: __RNvMs_NtCslJiobkLta79_5alloc3vecINtB4_3VecTNtNtCsdGrGZaRBwMb_3syn8generics13CapturedParamNtNtBJ_5token5CommaEE17from_raw_parts_inCs9jpTMRK2ijq_11yoke_derive, symObjAddr: 0x2680, symBinAddr: 0x3EF50, symSize: 0xA0 }
  - { offset: 0x88B85, size: 0x8, addend: 0x0, symName: __RNvMs_NtCslJiobkLta79_5alloc3vecINtB4_3VecTNtNtCsdGrGZaRBwMb_3syn8generics13CapturedParamNtNtBJ_5token5CommaEE25into_raw_parts_with_allocCs9jpTMRK2ijq_11yoke_derive, symObjAddr: 0x2720, symBinAddr: 0x3EFF0, symSize: 0x120 }
  - { offset: 0x88EF9, size: 0x8, addend: 0x0, symName: __RNvMs_NtCslJiobkLta79_5alloc3vecINtB4_3VecTNtNtCsdGrGZaRBwMb_3syn8generics14TypeParamBoundNtNtBJ_5token4PlusEE17from_raw_parts_inCs9jpTMRK2ijq_11yoke_derive, symObjAddr: 0x2840, symBinAddr: 0x3F110, symSize: 0xA0 }
  - { offset: 0x89246, size: 0x8, addend: 0x0, symName: __RNvMs_NtCslJiobkLta79_5alloc3vecINtB4_3VecTNtNtCsdGrGZaRBwMb_3syn8generics14TypeParamBoundNtNtBJ_5token4PlusEE25into_raw_parts_with_allocCs9jpTMRK2ijq_11yoke_derive, symObjAddr: 0x28E0, symBinAddr: 0x3F1B0, symSize: 0x120 }
  - { offset: 0x895BA, size: 0x8, addend: 0x0, symName: __RNvMs_NtCslJiobkLta79_5alloc3vecINtB4_3VecTNtNtCsdGrGZaRBwMb_3syn8generics14WherePredicateNtNtBJ_5token5CommaEE17from_raw_parts_inCs9jpTMRK2ijq_11yoke_derive, symObjAddr: 0x2A00, symBinAddr: 0x3F2D0, symSize: 0xA0 }
  - { offset: 0x89907, size: 0x8, addend: 0x0, symName: __RNvMs_NtCslJiobkLta79_5alloc3vecINtB4_3VecTNtNtCsdGrGZaRBwMb_3syn8generics14WherePredicateNtNtBJ_5token5CommaEE25into_raw_parts_with_allocCs9jpTMRK2ijq_11yoke_derive, symObjAddr: 0x2AA0, symBinAddr: 0x3F370, symSize: 0x120 }
  - { offset: 0x89C7B, size: 0x8, addend: 0x0, symName: __RNvMs_NtCslJiobkLta79_5alloc3vecINtB4_3VecTNtNtCsdGrGZaRBwMb_3syn8lifetime8LifetimeNtNtBJ_5token4PlusEE17from_raw_parts_inCs9jpTMRK2ijq_11yoke_derive, symObjAddr: 0x2BC0, symBinAddr: 0x3F490, symSize: 0xA0 }
  - { offset: 0x89FC8, size: 0x8, addend: 0x0, symName: __RNvMs_NtCslJiobkLta79_5alloc3vecINtB4_3VecTNtNtCsdGrGZaRBwMb_3syn8lifetime8LifetimeNtNtBJ_5token4PlusEE25into_raw_parts_with_allocCs9jpTMRK2ijq_11yoke_derive, symObjAddr: 0x2C60, symBinAddr: 0x3F530, symSize: 0x120 }
  - { offset: 0x8A469, size: 0x8, addend: 0x0, symName: __RNvXs4_NtNtCs9OU1sGv5X54_5quote9___private3extINtNtCslJiobkLta79_5alloc3vec3VecNtCsaKzlTDPUHDb_11proc_macro25IdentENtB5_16RepAsIteratorExt15quote_into_iterCs9jpTMRK2ijq_11yoke_derive, symObjAddr: 0x3360, symBinAddr: 0x3FC30, symSize: 0x30 }
  - { offset: 0x8A49E, size: 0x8, addend: 0x0, symName: __RNvXs4_NtNtCs9OU1sGv5X54_5quote9___private3extINtNtCslJiobkLta79_5alloc3vec3VecNtNtCsdGrGZaRBwMb_3syn8generics14WherePredicateENtB5_16RepAsIteratorExt15quote_into_iterCs9jpTMRK2ijq_11yoke_derive, symObjAddr: 0x3390, symBinAddr: 0x3FC60, symSize: 0x30 }
  - { offset: 0x8A4D3, size: 0x8, addend: 0x0, symName: __RNvXs4_NtNtCs9OU1sGv5X54_5quote9___private3extINtNtCslJiobkLta79_5alloc3vec3VecNtNtCsdGrGZaRBwMb_3syn8generics9TypeParamENtB5_16RepAsIteratorExt15quote_into_iterCs9jpTMRK2ijq_11yoke_derive, symObjAddr: 0x33C0, symBinAddr: 0x3FC90, symSize: 0x30 }
  - { offset: 0x8CE07, size: 0x8, addend: 0x0, symName: __RINvNtNtCsdGrGZaRBwMb_3syn3gen5visit10visit_exprNtNtCs9jpTMRK2ijq_11yoke_derive7visitor11TypeVisitorEBO_, symObjAddr: 0x0, symBinAddr: 0x43C30, symSize: 0x770 }
  - { offset: 0x8D75E, size: 0x8, addend: 0x0, symName: __RINvNtNtCsdGrGZaRBwMb_3syn3gen5visit10visit_exprNtNtCs9jpTMRK2ijq_11yoke_derive7visitor11TypeVisitorEBO_, symObjAddr: 0x0, symBinAddr: 0x43C30, symSize: 0x770 }
  - { offset: 0x8DC6A, size: 0x8, addend: 0x0, symName: __RINvNtNtCsdGrGZaRBwMb_3syn3gen5visit10visit_itemNtNtCs9jpTMRK2ijq_11yoke_derive7visitor11TypeVisitorEBO_, symObjAddr: 0x770, symBinAddr: 0x443A0, symSize: 0x320 }
  - { offset: 0x8DE8E, size: 0x8, addend: 0x0, symName: __RINvNtNtCsdGrGZaRBwMb_3syn3gen5visit10visit_metaNtNtCs9jpTMRK2ijq_11yoke_derive7visitor11TypeVisitorEBO_, symObjAddr: 0xA90, symBinAddr: 0x446C0, symSize: 0xB0 }
  - { offset: 0x8DF22, size: 0x8, addend: 0x0, symName: __RINvNtNtCsdGrGZaRBwMb_3syn3gen5visit10visit_pathNtNtCs9jpTMRK2ijq_11yoke_derive7visitor11TypeVisitorEBO_, symObjAddr: 0xB40, symBinAddr: 0x44770, symSize: 0xB0 }
  - { offset: 0x8DFBF, size: 0x8, addend: 0x0, symName: __RINvNtNtCsdGrGZaRBwMb_3syn3gen5visit10visit_stmtNtNtCs9jpTMRK2ijq_11yoke_derive7visitor11TypeVisitorEBO_, symObjAddr: 0xBF0, symBinAddr: 0x44820, symSize: 0xF0 }
  - { offset: 0x8E081, size: 0x8, addend: 0x0, symName: __RINvNtNtCsdGrGZaRBwMb_3syn3gen5visit10visit_typeNtNtCs9jpTMRK2ijq_11yoke_derive7visitor11TypeVisitorEBO_, symObjAddr: 0xCE0, symBinAddr: 0x44910, symSize: 0x2F0 }
  - { offset: 0x8E286, size: 0x8, addend: 0x0, symName: __RINvNtNtCsdGrGZaRBwMb_3syn3gen5visit11visit_blockNtNtCs9jpTMRK2ijq_11yoke_derive7visitor11TypeVisitorEBP_, symObjAddr: 0xFD0, symBinAddr: 0x44C00, symSize: 0x80 }
  - { offset: 0x8E304, size: 0x8, addend: 0x0, symName: __RINvNtNtCsdGrGZaRBwMb_3syn3gen5visit11visit_fieldNtNtCs9jpTMRK2ijq_11yoke_derive7visitor11TypeVisitorEBP_, symObjAddr: 0x1050, symBinAddr: 0x44C80, symSize: 0x110 }
  - { offset: 0x8E3A0, size: 0x8, addend: 0x0, symName: __RINvNtNtCsdGrGZaRBwMb_3syn3gen5visit11visit_identNtNtCs9jpTMRK2ijq_11yoke_derive7visitor11TypeVisitorEBP_, symObjAddr: 0x1160, symBinAddr: 0x44D90, symSize: 0x50 }
  - { offset: 0x8E3E2, size: 0x8, addend: 0x0, symName: __RINvNtNtCsdGrGZaRBwMb_3syn3gen5visit11visit_indexNtNtCs9jpTMRK2ijq_11yoke_derive7visitor11TypeVisitorEBP_, symObjAddr: 0x11B0, symBinAddr: 0x44DE0, symSize: 0x30 }
  - { offset: 0x8E424, size: 0x8, addend: 0x0, symName: __RINvNtNtCsdGrGZaRBwMb_3syn3gen5visit11visit_labelNtNtCs9jpTMRK2ijq_11yoke_derive7visitor11TypeVisitorEBP_, symObjAddr: 0x11E0, symBinAddr: 0x44E10, symSize: 0x30 }
  - { offset: 0x8E466, size: 0x8, addend: 0x0, symName: __RINvNtNtCsdGrGZaRBwMb_3syn3gen5visit11visit_localNtNtCs9jpTMRK2ijq_11yoke_derive7visitor11TypeVisitorEBP_, symObjAddr: 0x1210, symBinAddr: 0x44E40, symSize: 0xE0 }
  - { offset: 0x8E502, size: 0x8, addend: 0x0, symName: __RINvNtNtCsdGrGZaRBwMb_3syn3gen5visit11visit_macroNtNtCs9jpTMRK2ijq_11yoke_derive7visitor11TypeVisitorEBP_, symObjAddr: 0x12F0, symBinAddr: 0x44F20, symSize: 0x50 }
  - { offset: 0x8E544, size: 0x8, addend: 0x0, symName: __RINvNtNtCsdGrGZaRBwMb_3syn3gen5visit11visit_qselfNtNtCs9jpTMRK2ijq_11yoke_derive7visitor11TypeVisitorEBP_, symObjAddr: 0x1340, symBinAddr: 0x44F70, symSize: 0x80 }
  - { offset: 0x8E586, size: 0x8, addend: 0x0, symName: __RINvNtNtCsdGrGZaRBwMb_3syn3gen5visit11visit_un_opNtNtCs9jpTMRK2ijq_11yoke_derive7visitor11TypeVisitorEBP_, symObjAddr: 0x13C0, symBinAddr: 0x44FF0, symSize: 0x70 }
  - { offset: 0x8E5C8, size: 0x8, addend: 0x0, symName: __RINvNtNtCsdGrGZaRBwMb_3syn3gen5visit12visit_bin_opNtNtCs9jpTMRK2ijq_11yoke_derive7visitor11TypeVisitorEBQ_, symObjAddr: 0x1430, symBinAddr: 0x45060, symSize: 0x3E0 }
  - { offset: 0x8E60C, size: 0x8, addend: 0x0, symName: __RINvNtNtCsdGrGZaRBwMb_3syn3gen5visit12visit_fieldsNtNtCs9jpTMRK2ijq_11yoke_derive7visitor11TypeVisitorEBQ_, symObjAddr: 0x1810, symBinAddr: 0x45440, symSize: 0x90 }
  - { offset: 0x8E68A, size: 0x8, addend: 0x0, symName: __RINvNtNtCsdGrGZaRBwMb_3syn3gen5visit12visit_fn_argNtNtCs9jpTMRK2ijq_11yoke_derive7visitor11TypeVisitorEBQ_, symObjAddr: 0x18A0, symBinAddr: 0x454D0, symSize: 0x80 }
  - { offset: 0x8E700, size: 0x8, addend: 0x0, symName: __RINvNtNtCsdGrGZaRBwMb_3syn3gen5visit12visit_memberNtNtCs9jpTMRK2ijq_11yoke_derive7visitor11TypeVisitorEBQ_, symObjAddr: 0x1920, symBinAddr: 0x45550, symSize: 0x70 }
  - { offset: 0x8E776, size: 0x8, addend: 0x0, symName: __RINvNtNtCsdGrGZaRBwMb_3syn3gen5visit12visit_pat_orNtNtCs9jpTMRK2ijq_11yoke_derive7visitor11TypeVisitorEBQ_, symObjAddr: 0x1990, symBinAddr: 0x455C0, symSize: 0x140 }
  - { offset: 0x8E850, size: 0x8, addend: 0x0, symName: __RINvNtNtCsdGrGZaRBwMb_3syn3gen5visit13visit_expr_ifNtNtCs9jpTMRK2ijq_11yoke_derive7visitor11TypeVisitorEBR_, symObjAddr: 0x1AD0, symBinAddr: 0x45700, symSize: 0x190 }
  - { offset: 0x8E8E4, size: 0x8, addend: 0x0, symName: __RINvNtNtCsdGrGZaRBwMb_3syn3gen5visit13visit_item_fnNtNtCs9jpTMRK2ijq_11yoke_derive7visitor11TypeVisitorEBR_, symObjAddr: 0x1C60, symBinAddr: 0x45890, symSize: 0x110 }
  - { offset: 0x8E962, size: 0x8, addend: 0x0, symName: __RINvNtNtCsdGrGZaRBwMb_3syn3gen5visit13visit_lit_intNtNtCs9jpTMRK2ijq_11yoke_derive7visitor11TypeVisitorEBR_, symObjAddr: 0x1D70, symBinAddr: 0x459A0, symSize: 0x20 }
  - { offset: 0x8E9A4, size: 0x8, addend: 0x0, symName: __RINvNtNtCsdGrGZaRBwMb_3syn3gen5visit13visit_lit_strNtNtCs9jpTMRK2ijq_11yoke_derive7visitor11TypeVisitorEBR_, symObjAddr: 0x1D90, symBinAddr: 0x459C0, symSize: 0x20 }
  - { offset: 0x8E9E6, size: 0x8, addend: 0x0, symName: __RINvNtNtCsdGrGZaRBwMb_3syn3gen5visit13visit_variantNtNtCs9jpTMRK2ijq_11yoke_derive7visitor11TypeVisitorEBR_, symObjAddr: 0x1DB0, symBinAddr: 0x459E0, symSize: 0xF0 }
  - { offset: 0x8EA82, size: 0x8, addend: 0x0, symName: __RINvNtNtCsdGrGZaRBwMb_3syn3gen5visit14visit_expr_letNtNtCs9jpTMRK2ijq_11yoke_derive7visitor11TypeVisitorEBS_, symObjAddr: 0x1EA0, symBinAddr: 0x45AD0, symSize: 0x140 }
  - { offset: 0x8EB00, size: 0x8, addend: 0x0, symName: __RINvNtNtCsdGrGZaRBwMb_3syn3gen5visit14visit_expr_litNtNtCs9jpTMRK2ijq_11yoke_derive7visitor11TypeVisitorEBS_, symObjAddr: 0x1FE0, symBinAddr: 0x45C10, symSize: 0xA0 }
  - { offset: 0x8EB7E, size: 0x8, addend: 0x0, symName: __RINvNtNtCsdGrGZaRBwMb_3syn3gen5visit14visit_expr_tryNtNtCs9jpTMRK2ijq_11yoke_derive7visitor11TypeVisitorEBS_, symObjAddr: 0x2080, symBinAddr: 0x45CB0, symSize: 0xE0 }
  - { offset: 0x8EBFC, size: 0x8, addend: 0x0, symName: __RINvNtNtCsdGrGZaRBwMb_3syn3gen5visit14visit_genericsNtNtCs9jpTMRK2ijq_11yoke_derive7visitor11TypeVisitorEBS_, symObjAddr: 0x2160, symBinAddr: 0x45D90, symSize: 0x110 }
  - { offset: 0x8ECB7, size: 0x8, addend: 0x0, symName: __RINvNtNtCsdGrGZaRBwMb_3syn3gen5visit14visit_item_modNtNtCs9jpTMRK2ijq_11yoke_derive7visitor11TypeVisitorEBS_, symObjAddr: 0x2270, symBinAddr: 0x45EA0, symSize: 0x150 }
  - { offset: 0x8ED80, size: 0x8, addend: 0x0, symName: __RINvNtNtCsdGrGZaRBwMb_3syn3gen5visit14visit_item_useNtNtCs9jpTMRK2ijq_11yoke_derive7visitor11TypeVisitorEBS_, symObjAddr: 0x23C0, symBinAddr: 0x45FF0, symSize: 0xB0 }
  - { offset: 0x8EDFE, size: 0x8, addend: 0x0, symName: __RINvNtNtCsdGrGZaRBwMb_3syn3gen5visit14visit_lifetimeNtNtCs9jpTMRK2ijq_11yoke_derive7visitor11TypeVisitorEBS_, symObjAddr: 0x2470, symBinAddr: 0x460A0, symSize: 0x40 }
  - { offset: 0x8EE40, size: 0x8, addend: 0x0, symName: __RINvNtNtCsdGrGZaRBwMb_3syn3gen5visit14visit_lit_boolNtNtCs9jpTMRK2ijq_11yoke_derive7visitor11TypeVisitorEBS_, symObjAddr: 0x24B0, symBinAddr: 0x460E0, symSize: 0x30 }
  - { offset: 0x8EE82, size: 0x8, addend: 0x0, symName: __RINvNtNtCsdGrGZaRBwMb_3syn3gen5visit14visit_lit_byteNtNtCs9jpTMRK2ijq_11yoke_derive7visitor11TypeVisitorEBS_, symObjAddr: 0x24E0, symBinAddr: 0x46110, symSize: 0x20 }
  - { offset: 0x8EEC4, size: 0x8, addend: 0x0, symName: __RINvNtNtCsdGrGZaRBwMb_3syn3gen5visit14visit_lit_charNtNtCs9jpTMRK2ijq_11yoke_derive7visitor11TypeVisitorEBS_, symObjAddr: 0x2500, symBinAddr: 0x46130, symSize: 0x20 }
  - { offset: 0x8EF06, size: 0x8, addend: 0x0, symName: __RINvNtNtCsdGrGZaRBwMb_3syn3gen5visit14visit_lit_cstrNtNtCs9jpTMRK2ijq_11yoke_derive7visitor11TypeVisitorEBS_, symObjAddr: 0x2520, symBinAddr: 0x46150, symSize: 0x20 }
  - { offset: 0x8EF48, size: 0x8, addend: 0x0, symName: __RINvNtNtCsdGrGZaRBwMb_3syn3gen5visit14visit_pat_restNtNtCs9jpTMRK2ijq_11yoke_derive7visitor11TypeVisitorEBS_, symObjAddr: 0x2540, symBinAddr: 0x46170, symSize: 0x80 }
  - { offset: 0x8EFC6, size: 0x8, addend: 0x0, symName: __RINvNtNtCsdGrGZaRBwMb_3syn3gen5visit14visit_pat_typeNtNtCs9jpTMRK2ijq_11yoke_derive7visitor11TypeVisitorEBS_, symObjAddr: 0x25C0, symBinAddr: 0x461F0, symSize: 0x140 }
  - { offset: 0x8F044, size: 0x8, addend: 0x0, symName: __RINvNtNtCsdGrGZaRBwMb_3syn3gen5visit14visit_pat_wildNtNtCs9jpTMRK2ijq_11yoke_derive7visitor11TypeVisitorEBS_, symObjAddr: 0x2700, symBinAddr: 0x46330, symSize: 0x80 }
  - { offset: 0x8F0C2, size: 0x8, addend: 0x0, symName: __RINvNtNtCsdGrGZaRBwMb_3syn3gen5visit14visit_receiverNtNtCs9jpTMRK2ijq_11yoke_derive7visitor11TypeVisitorEBS_, symObjAddr: 0x2780, symBinAddr: 0x463B0, symSize: 0x160 }
  - { offset: 0x8F16C, size: 0x8, addend: 0x0, symName: __RINvNtNtCsdGrGZaRBwMb_3syn3gen5visit14visit_type_ptrNtNtCs9jpTMRK2ijq_11yoke_derive7visitor11TypeVisitorEBS_, symObjAddr: 0x28E0, symBinAddr: 0x46510, symSize: 0x80 }
  - { offset: 0x8F1AE, size: 0x8, addend: 0x0, symName: __RINvNtNtCsdGrGZaRBwMb_3syn3gen5visit14visit_use_globNtNtCs9jpTMRK2ijq_11yoke_derive7visitor11TypeVisitorEBS_, symObjAddr: 0x2960, symBinAddr: 0x46590, symSize: 0x20 }
  - { offset: 0x8F1F0, size: 0x8, addend: 0x0, symName: __RINvNtNtCsdGrGZaRBwMb_3syn3gen5visit14visit_use_nameNtNtCs9jpTMRK2ijq_11yoke_derive7visitor11TypeVisitorEBS_, symObjAddr: 0x2980, symBinAddr: 0x465B0, symSize: 0x30 }
  - { offset: 0x8F232, size: 0x8, addend: 0x0, symName: __RINvNtNtCsdGrGZaRBwMb_3syn3gen5visit14visit_use_pathNtNtCs9jpTMRK2ijq_11yoke_derive7visitor11TypeVisitorEBS_, symObjAddr: 0x29B0, symBinAddr: 0x465E0, symSize: 0x90 }
  - { offset: 0x8F274, size: 0x8, addend: 0x0, symName: __RINvNtNtCsdGrGZaRBwMb_3syn3gen5visit14visit_use_treeNtNtCs9jpTMRK2ijq_11yoke_derive7visitor11TypeVisitorEBS_, symObjAddr: 0x2A40, symBinAddr: 0x46670, symSize: 0xF0 }
  - { offset: 0x8F344, size: 0x8, addend: 0x0, symName: __RINvNtNtCsdGrGZaRBwMb_3syn3gen5visit14visit_variadicNtNtCs9jpTMRK2ijq_11yoke_derive7visitor11TypeVisitorEBS_, symObjAddr: 0x2B30, symBinAddr: 0x46760, symSize: 0x120 }
  - { offset: 0x8F3D8, size: 0x8, addend: 0x0, symName: __RINvNtNtCsdGrGZaRBwMb_3syn3gen5visit15visit_attributeNtNtCs9jpTMRK2ijq_11yoke_derive7visitor11TypeVisitorEBT_, symObjAddr: 0x2C50, symBinAddr: 0x46880, symSize: 0x40 }
  - { offset: 0x8F41A, size: 0x8, addend: 0x0, symName: __RINvNtNtCsdGrGZaRBwMb_3syn3gen5visit15visit_expr_callNtNtCs9jpTMRK2ijq_11yoke_derive7visitor11TypeVisitorEBT_, symObjAddr: 0x2C90, symBinAddr: 0x468C0, symSize: 0x1B0 }
  - { offset: 0x8F4EC, size: 0x8, addend: 0x0, symName: __RINvNtNtCsdGrGZaRBwMb_3syn3gen5visit15visit_expr_castNtNtCs9jpTMRK2ijq_11yoke_derive7visitor11TypeVisitorEBT_, symObjAddr: 0x2E40, symBinAddr: 0x46A70, symSize: 0x140 }
  - { offset: 0x8F56A, size: 0x8, addend: 0x0, symName: __RINvNtNtCsdGrGZaRBwMb_3syn3gen5visit15visit_expr_loopNtNtCs9jpTMRK2ijq_11yoke_derive7visitor11TypeVisitorEBT_, symObjAddr: 0x2F80, symBinAddr: 0x46BB0, symSize: 0xE0 }
  - { offset: 0x8F606, size: 0x8, addend: 0x0, symName: __RINvNtNtCsdGrGZaRBwMb_3syn3gen5visit15visit_expr_pathNtNtCs9jpTMRK2ijq_11yoke_derive7visitor11TypeVisitorEBT_, symObjAddr: 0x3060, symBinAddr: 0x46C90, symSize: 0xE0 }
  - { offset: 0x8F6A2, size: 0x8, addend: 0x0, symName: __RINvNtNtCsdGrGZaRBwMb_3syn3gen5visit15visit_field_patNtNtCs9jpTMRK2ijq_11yoke_derive7visitor11TypeVisitorEBT_, symObjAddr: 0x3140, symBinAddr: 0x46D70, symSize: 0xF0 }
  - { offset: 0x8F720, size: 0x8, addend: 0x0, symName: __RINvNtNtCsdGrGZaRBwMb_3syn3gen5visit15visit_impl_itemNtNtCs9jpTMRK2ijq_11yoke_derive7visitor11TypeVisitorEBT_, symObjAddr: 0x3230, symBinAddr: 0x46E60, symSize: 0x100 }
  - { offset: 0x8F7F0, size: 0x8, addend: 0x0, symName: __RINvNtNtCsdGrGZaRBwMb_3syn3gen5visit15visit_item_enumNtNtCs9jpTMRK2ijq_11yoke_derive7visitor11TypeVisitorEBT_, symObjAddr: 0x3330, symBinAddr: 0x46F60, symSize: 0x190 }
  - { offset: 0x8F8CA, size: 0x8, addend: 0x0, symName: __RINvNtNtCsdGrGZaRBwMb_3syn3gen5visit15visit_item_implNtNtCs9jpTMRK2ijq_11yoke_derive7visitor11TypeVisitorEBT_, symObjAddr: 0x34C0, symBinAddr: 0x470F0, symSize: 0x1A0 }
  - { offset: 0x8F99B, size: 0x8, addend: 0x0, symName: __RINvNtNtCsdGrGZaRBwMb_3syn3gen5visit15visit_item_typeNtNtCs9jpTMRK2ijq_11yoke_derive7visitor11TypeVisitorEBT_, symObjAddr: 0x3660, symBinAddr: 0x47290, symSize: 0x120 }
  - { offset: 0x8FA19, size: 0x8, addend: 0x0, symName: __RINvNtNtCsdGrGZaRBwMb_3syn3gen5visit15visit_lit_floatNtNtCs9jpTMRK2ijq_11yoke_derive7visitor11TypeVisitorEBT_, symObjAddr: 0x3780, symBinAddr: 0x473B0, symSize: 0x20 }
  - { offset: 0x8FA5B, size: 0x8, addend: 0x0, symName: __RINvNtNtCsdGrGZaRBwMb_3syn3gen5visit15visit_meta_listNtNtCs9jpTMRK2ijq_11yoke_derive7visitor11TypeVisitorEBT_, symObjAddr: 0x37A0, symBinAddr: 0x473D0, symSize: 0x50 }
  - { offset: 0x8FA9D, size: 0x8, addend: 0x0, symName: __RINvNtNtCsdGrGZaRBwMb_3syn3gen5visit15visit_pat_identNtNtCs9jpTMRK2ijq_11yoke_derive7visitor11TypeVisitorEBT_, symObjAddr: 0x37F0, symBinAddr: 0x47420, symSize: 0x130 }
  - { offset: 0x8FB31, size: 0x8, addend: 0x0, symName: __RINvNtNtCsdGrGZaRBwMb_3syn3gen5visit15visit_pat_parenNtNtCs9jpTMRK2ijq_11yoke_derive7visitor11TypeVisitorEBT_, symObjAddr: 0x3920, symBinAddr: 0x47550, symSize: 0xE0 }
  - { offset: 0x8FBAF, size: 0x8, addend: 0x0, symName: __RINvNtNtCsdGrGZaRBwMb_3syn3gen5visit15visit_pat_sliceNtNtCs9jpTMRK2ijq_11yoke_derive7visitor11TypeVisitorEBT_, symObjAddr: 0x3A00, symBinAddr: 0x47630, symSize: 0x140 }
  - { offset: 0x8FC89, size: 0x8, addend: 0x0, symName: __RINvNtNtCsdGrGZaRBwMb_3syn3gen5visit15visit_pat_tupleNtNtCs9jpTMRK2ijq_11yoke_derive7visitor11TypeVisitorEBT_, symObjAddr: 0x3B40, symBinAddr: 0x47770, symSize: 0x140 }
  - { offset: 0x8FD63, size: 0x8, addend: 0x0, symName: __RINvNtNtCsdGrGZaRBwMb_3syn3gen5visit15visit_signatureNtNtCs9jpTMRK2ijq_11yoke_derive7visitor11TypeVisitorEBT_, symObjAddr: 0x3C80, symBinAddr: 0x478B0, symSize: 0x1A0 }
  - { offset: 0x8FE3C, size: 0x8, addend: 0x0, symName: __RINvNtNtCsdGrGZaRBwMb_3syn3gen5visit15visit_type_pathNtNtCs9jpTMRK2ijq_11yoke_derive7visitor11TypeVisitorEBT_, symObjAddr: 0x3E20, symBinAddr: 0x47A50, symSize: 0x70 }
  - { offset: 0x8FE9C, size: 0x8, addend: 0x0, symName: __RINvNtNtCsdGrGZaRBwMb_3syn3gen5visit15visit_use_groupNtNtCs9jpTMRK2ijq_11yoke_derive7visitor11TypeVisitorEBT_, symObjAddr: 0x3E90, symBinAddr: 0x47AC0, symSize: 0xB0 }
  - { offset: 0x8FF39, size: 0x8, addend: 0x0, symName: __RINvNtNtCsdGrGZaRBwMb_3syn3gen5visit16visit_assoc_typeNtNtCs9jpTMRK2ijq_11yoke_derive7visitor11TypeVisitorEBU_, symObjAddr: 0x3F40, symBinAddr: 0x47B70, symSize: 0x90 }
  - { offset: 0x8FF99, size: 0x8, addend: 0x0, symName: __RINvNtNtCsdGrGZaRBwMb_3syn3gen5visit16visit_attr_styleNtNtCs9jpTMRK2ijq_11yoke_derive7visitor11TypeVisitorEBU_, symObjAddr: 0x3FD0, symBinAddr: 0x47C00, symSize: 0x40 }
  - { offset: 0x8FFDB, size: 0x8, addend: 0x0, symName: __RINvNtNtCsdGrGZaRBwMb_3syn3gen5visit16visit_constraintNtNtCs9jpTMRK2ijq_11yoke_derive7visitor11TypeVisitorEBU_, symObjAddr: 0x4010, symBinAddr: 0x47C40, symSize: 0x120 }
  - { offset: 0x90096, size: 0x8, addend: 0x0, symName: __RINvNtNtCsdGrGZaRBwMb_3syn3gen5visit16visit_expr_arrayNtNtCs9jpTMRK2ijq_11yoke_derive7visitor11TypeVisitorEBU_, symObjAddr: 0x4130, symBinAddr: 0x47D60, symSize: 0x140 }
  - { offset: 0x90170, size: 0x8, addend: 0x0, symName: __RINvNtNtCsdGrGZaRBwMb_3syn3gen5visit16visit_expr_asyncNtNtCs9jpTMRK2ijq_11yoke_derive7visitor11TypeVisitorEBU_, symObjAddr: 0x4270, symBinAddr: 0x47EA0, symSize: 0xA0 }
  - { offset: 0x901EE, size: 0x8, addend: 0x0, symName: __RINvNtNtCsdGrGZaRBwMb_3syn3gen5visit16visit_expr_awaitNtNtCs9jpTMRK2ijq_11yoke_derive7visitor11TypeVisitorEBU_, symObjAddr: 0x4310, symBinAddr: 0x47F40, symSize: 0xE0 }
  - { offset: 0x9026C, size: 0x8, addend: 0x0, symName: __RINvNtNtCsdGrGZaRBwMb_3syn3gen5visit16visit_expr_blockNtNtCs9jpTMRK2ijq_11yoke_derive7visitor11TypeVisitorEBU_, symObjAddr: 0x43F0, symBinAddr: 0x48020, symSize: 0xE0 }
  - { offset: 0x90308, size: 0x8, addend: 0x0, symName: __RINvNtNtCsdGrGZaRBwMb_3syn3gen5visit16visit_expr_breakNtNtCs9jpTMRK2ijq_11yoke_derive7visitor11TypeVisitorEBU_, symObjAddr: 0x44D0, symBinAddr: 0x48100, symSize: 0x160 }
  - { offset: 0x903BA, size: 0x8, addend: 0x0, symName: __RINvNtNtCsdGrGZaRBwMb_3syn3gen5visit16visit_expr_constNtNtCs9jpTMRK2ijq_11yoke_derive7visitor11TypeVisitorEBU_, symObjAddr: 0x4630, symBinAddr: 0x48260, symSize: 0xA0 }
  - { offset: 0x90438, size: 0x8, addend: 0x0, symName: __RINvNtNtCsdGrGZaRBwMb_3syn3gen5visit16visit_expr_fieldNtNtCs9jpTMRK2ijq_11yoke_derive7visitor11TypeVisitorEBU_, symObjAddr: 0x46D0, symBinAddr: 0x48300, symSize: 0xF0 }
  - { offset: 0x904B6, size: 0x8, addend: 0x0, symName: __RINvNtNtCsdGrGZaRBwMb_3syn3gen5visit16visit_expr_groupNtNtCs9jpTMRK2ijq_11yoke_derive7visitor11TypeVisitorEBU_, symObjAddr: 0x47C0, symBinAddr: 0x483F0, symSize: 0xE0 }
  - { offset: 0x90534, size: 0x8, addend: 0x0, symName: __RINvNtNtCsdGrGZaRBwMb_3syn3gen5visit16visit_expr_indexNtNtCs9jpTMRK2ijq_11yoke_derive7visitor11TypeVisitorEBU_, symObjAddr: 0x48A0, symBinAddr: 0x484D0, symSize: 0x140 }
  - { offset: 0x905B2, size: 0x8, addend: 0x0, symName: __RINvNtNtCsdGrGZaRBwMb_3syn3gen5visit16visit_expr_inferNtNtCs9jpTMRK2ijq_11yoke_derive7visitor11TypeVisitorEBU_, symObjAddr: 0x49E0, symBinAddr: 0x48610, symSize: 0x80 }
  - { offset: 0x90630, size: 0x8, addend: 0x0, symName: __RINvNtNtCsdGrGZaRBwMb_3syn3gen5visit16visit_expr_macroNtNtCs9jpTMRK2ijq_11yoke_derive7visitor11TypeVisitorEBU_, symObjAddr: 0x4A60, symBinAddr: 0x48690, symSize: 0xA0 }
  - { offset: 0x906AE, size: 0x8, addend: 0x0, symName: __RINvNtNtCsdGrGZaRBwMb_3syn3gen5visit16visit_expr_matchNtNtCs9jpTMRK2ijq_11yoke_derive7visitor11TypeVisitorEBU_, symObjAddr: 0x4B00, symBinAddr: 0x48730, symSize: 0x140 }
  - { offset: 0x90761, size: 0x8, addend: 0x0, symName: __RINvNtNtCsdGrGZaRBwMb_3syn3gen5visit16visit_expr_parenNtNtCs9jpTMRK2ijq_11yoke_derive7visitor11TypeVisitorEBU_, symObjAddr: 0x4C40, symBinAddr: 0x48870, symSize: 0xE0 }
  - { offset: 0x907DF, size: 0x8, addend: 0x0, symName: __RINvNtNtCsdGrGZaRBwMb_3syn3gen5visit16visit_expr_rangeNtNtCs9jpTMRK2ijq_11yoke_derive7visitor11TypeVisitorEBU_, symObjAddr: 0x4D20, symBinAddr: 0x48950, symSize: 0x1C0 }
  - { offset: 0x90889, size: 0x8, addend: 0x0, symName: __RINvNtNtCsdGrGZaRBwMb_3syn3gen5visit16visit_expr_tupleNtNtCs9jpTMRK2ijq_11yoke_derive7visitor11TypeVisitorEBU_, symObjAddr: 0x4EE0, symBinAddr: 0x48B10, symSize: 0x140 }
  - { offset: 0x90963, size: 0x8, addend: 0x0, symName: __RINvNtNtCsdGrGZaRBwMb_3syn3gen5visit16visit_expr_unaryNtNtCs9jpTMRK2ijq_11yoke_derive7visitor11TypeVisitorEBU_, symObjAddr: 0x5020, symBinAddr: 0x48C50, symSize: 0xF0 }
  - { offset: 0x909E1, size: 0x8, addend: 0x0, symName: __RINvNtNtCsdGrGZaRBwMb_3syn3gen5visit16visit_expr_whileNtNtCs9jpTMRK2ijq_11yoke_derive7visitor11TypeVisitorEBU_, symObjAddr: 0x5110, symBinAddr: 0x48D40, symSize: 0x130 }
  - { offset: 0x90A7D, size: 0x8, addend: 0x0, symName: __RINvNtNtCsdGrGZaRBwMb_3syn3gen5visit16visit_expr_yieldNtNtCs9jpTMRK2ijq_11yoke_derive7visitor11TypeVisitorEBU_, symObjAddr: 0x5240, symBinAddr: 0x48E70, symSize: 0x120 }
  - { offset: 0x90B11, size: 0x8, addend: 0x0, symName: __RINvNtNtCsdGrGZaRBwMb_3syn3gen5visit16visit_item_constNtNtCs9jpTMRK2ijq_11yoke_derive7visitor11TypeVisitorEBU_, symObjAddr: 0x5360, symBinAddr: 0x48F90, symSize: 0x180 }
  - { offset: 0x90B8F, size: 0x8, addend: 0x0, symName: __RINvNtNtCsdGrGZaRBwMb_3syn3gen5visit16visit_item_macroNtNtCs9jpTMRK2ijq_11yoke_derive7visitor11TypeVisitorEBU_, symObjAddr: 0x54E0, symBinAddr: 0x49110, symSize: 0xE0 }
  - { offset: 0x90C2B, size: 0x8, addend: 0x0, symName: __RINvNtNtCsdGrGZaRBwMb_3syn3gen5visit16visit_item_traitNtNtCs9jpTMRK2ijq_11yoke_derive7visitor11TypeVisitorEBU_, symObjAddr: 0x55C0, symBinAddr: 0x491F0, symSize: 0x1F0 }
  - { offset: 0x90D42, size: 0x8, addend: 0x0, symName: __RINvNtNtCsdGrGZaRBwMb_3syn3gen5visit16visit_item_unionNtNtCs9jpTMRK2ijq_11yoke_derive7visitor11TypeVisitorEBU_, symObjAddr: 0x57B0, symBinAddr: 0x493E0, symSize: 0xD0 }
  - { offset: 0x90DC0, size: 0x8, addend: 0x0, symName: __RINvNtNtCsdGrGZaRBwMb_3syn3gen5visit16visit_local_initNtNtCs9jpTMRK2ijq_11yoke_derive7visitor11TypeVisitorEBU_, symObjAddr: 0x5880, symBinAddr: 0x494B0, symSize: 0x120 }
  - { offset: 0x90E18, size: 0x8, addend: 0x0, symName: __RINvNtNtCsdGrGZaRBwMb_3syn3gen5visit16visit_pat_structNtNtCs9jpTMRK2ijq_11yoke_derive7visitor11TypeVisitorEBU_, symObjAddr: 0x59A0, symBinAddr: 0x495D0, symSize: 0x200 }
  - { offset: 0x90F2E, size: 0x8, addend: 0x0, symName: __RINvNtNtCsdGrGZaRBwMb_3syn3gen5visit16visit_stmt_macroNtNtCs9jpTMRK2ijq_11yoke_derive7visitor11TypeVisitorEBU_, symObjAddr: 0x5BA0, symBinAddr: 0x497D0, symSize: 0xA0 }
  - { offset: 0x90FAC, size: 0x8, addend: 0x0, symName: __RINvNtNtCsdGrGZaRBwMb_3syn3gen5visit16visit_trait_itemNtNtCs9jpTMRK2ijq_11yoke_derive7visitor11TypeVisitorEBU_, symObjAddr: 0x5C40, symBinAddr: 0x49870, symSize: 0x100 }
  - { offset: 0x9107C, size: 0x8, addend: 0x0, symName: __RINvNtNtCsdGrGZaRBwMb_3syn3gen5visit16visit_type_arrayNtNtCs9jpTMRK2ijq_11yoke_derive7visitor11TypeVisitorEBU_, symObjAddr: 0x5D40, symBinAddr: 0x49970, symSize: 0x90 }
  - { offset: 0x910BE, size: 0x8, addend: 0x0, symName: __RINvNtNtCsdGrGZaRBwMb_3syn3gen5visit16visit_type_groupNtNtCs9jpTMRK2ijq_11yoke_derive7visitor11TypeVisitorEBU_, symObjAddr: 0x5DD0, symBinAddr: 0x49A00, symSize: 0x80 }
  - { offset: 0x91100, size: 0x8, addend: 0x0, symName: __RINvNtNtCsdGrGZaRBwMb_3syn3gen5visit16visit_type_inferNtNtCs9jpTMRK2ijq_11yoke_derive7visitor11TypeVisitorEBU_, symObjAddr: 0x5E50, symBinAddr: 0x49A80, symSize: 0x20 }
  - { offset: 0x91142, size: 0x8, addend: 0x0, symName: __RINvNtNtCsdGrGZaRBwMb_3syn3gen5visit16visit_type_macroNtNtCs9jpTMRK2ijq_11yoke_derive7visitor11TypeVisitorEBU_, symObjAddr: 0x5E70, symBinAddr: 0x49AA0, symSize: 0x30 }
  - { offset: 0x91184, size: 0x8, addend: 0x0, symName: __RINvNtNtCsdGrGZaRBwMb_3syn3gen5visit16visit_type_neverNtNtCs9jpTMRK2ijq_11yoke_derive7visitor11TypeVisitorEBU_, symObjAddr: 0x5EA0, symBinAddr: 0x49AD0, symSize: 0x20 }
  - { offset: 0x911C6, size: 0x8, addend: 0x0, symName: __RINvNtNtCsdGrGZaRBwMb_3syn3gen5visit16visit_type_paramNtNtCs9jpTMRK2ijq_11yoke_derive7visitor11TypeVisitorEBU_, symObjAddr: 0x5EC0, symBinAddr: 0x49AF0, symSize: 0x1A0 }
  - { offset: 0x912BE, size: 0x8, addend: 0x0, symName: __RINvNtNtCsdGrGZaRBwMb_3syn3gen5visit16visit_type_parenNtNtCs9jpTMRK2ijq_11yoke_derive7visitor11TypeVisitorEBU_, symObjAddr: 0x6060, symBinAddr: 0x49C90, symSize: 0x80 }
  - { offset: 0x91300, size: 0x8, addend: 0x0, symName: __RINvNtNtCsdGrGZaRBwMb_3syn3gen5visit16visit_type_sliceNtNtCs9jpTMRK2ijq_11yoke_derive7visitor11TypeVisitorEBU_, symObjAddr: 0x60E0, symBinAddr: 0x49D10, symSize: 0x80 }
  - { offset: 0x91342, size: 0x8, addend: 0x0, symName: __RINvNtNtCsdGrGZaRBwMb_3syn3gen5visit16visit_type_tupleNtNtCs9jpTMRK2ijq_11yoke_derive7visitor11TypeVisitorEBU_, symObjAddr: 0x6160, symBinAddr: 0x49D90, symSize: 0xB0 }
  - { offset: 0x913DF, size: 0x8, addend: 0x0, symName: __RINvNtNtCsdGrGZaRBwMb_3syn3gen5visit16visit_use_renameNtNtCs9jpTMRK2ijq_11yoke_derive7visitor11TypeVisitorEBU_, symObjAddr: 0x6210, symBinAddr: 0x49E40, symSize: 0x40 }
  - { offset: 0x91421, size: 0x8, addend: 0x0, symName: __RINvNtNtCsdGrGZaRBwMb_3syn3gen5visit16visit_visibilityNtNtCs9jpTMRK2ijq_11yoke_derive7visitor11TypeVisitorEBU_, symObjAddr: 0x6250, symBinAddr: 0x49E80, symSize: 0x90 }
  - { offset: 0x91481, size: 0x8, addend: 0x0, symName: __RINvNtNtCsdGrGZaRBwMb_3syn3gen5visit17visit_assoc_constNtNtCs9jpTMRK2ijq_11yoke_derive7visitor11TypeVisitorEBV_, symObjAddr: 0x62E0, symBinAddr: 0x49F10, symSize: 0x90 }
  - { offset: 0x914E1, size: 0x8, addend: 0x0, symName: __RINvNtNtCsdGrGZaRBwMb_3syn3gen5visit17visit_bare_fn_argNtNtCs9jpTMRK2ijq_11yoke_derive7visitor11TypeVisitorEBV_, symObjAddr: 0x6370, symBinAddr: 0x49FA0, symSize: 0xE0 }
  - { offset: 0x9157D, size: 0x8, addend: 0x0, symName: __RINvNtNtCsdGrGZaRBwMb_3syn3gen5visit17visit_const_paramNtNtCs9jpTMRK2ijq_11yoke_derive7visitor11TypeVisitorEBV_, symObjAddr: 0x6450, symBinAddr: 0x4A080, symSize: 0xF0 }
  - { offset: 0x91619, size: 0x8, addend: 0x0, symName: __RINvNtNtCsdGrGZaRBwMb_3syn3gen5visit17visit_expr_assignNtNtCs9jpTMRK2ijq_11yoke_derive7visitor11TypeVisitorEBV_, symObjAddr: 0x6540, symBinAddr: 0x4A170, symSize: 0x140 }
  - { offset: 0x91697, size: 0x8, addend: 0x0, symName: __RINvNtNtCsdGrGZaRBwMb_3syn3gen5visit17visit_expr_binaryNtNtCs9jpTMRK2ijq_11yoke_derive7visitor11TypeVisitorEBV_, symObjAddr: 0x6680, symBinAddr: 0x4A2B0, symSize: 0x150 }
  - { offset: 0x91715, size: 0x8, addend: 0x0, symName: __RINvNtNtCsdGrGZaRBwMb_3syn3gen5visit17visit_expr_repeatNtNtCs9jpTMRK2ijq_11yoke_derive7visitor11TypeVisitorEBV_, symObjAddr: 0x67D0, symBinAddr: 0x4A400, symSize: 0x140 }
  - { offset: 0x91793, size: 0x8, addend: 0x0, symName: __RINvNtNtCsdGrGZaRBwMb_3syn3gen5visit17visit_expr_returnNtNtCs9jpTMRK2ijq_11yoke_derive7visitor11TypeVisitorEBV_, symObjAddr: 0x6910, symBinAddr: 0x4A540, symSize: 0x120 }
  - { offset: 0x91827, size: 0x8, addend: 0x0, symName: __RINvNtNtCsdGrGZaRBwMb_3syn3gen5visit17visit_expr_structNtNtCs9jpTMRK2ijq_11yoke_derive7visitor11TypeVisitorEBV_, symObjAddr: 0x6A30, symBinAddr: 0x4A660, symSize: 0x260 }
  - { offset: 0x91935, size: 0x8, addend: 0x0, symName: __RINvNtNtCsdGrGZaRBwMb_3syn3gen5visit17visit_expr_unsafeNtNtCs9jpTMRK2ijq_11yoke_derive7visitor11TypeVisitorEBV_, symObjAddr: 0x6C90, symBinAddr: 0x4A8C0, symSize: 0xA0 }
  - { offset: 0x919B3, size: 0x8, addend: 0x0, symName: __RINvNtNtCsdGrGZaRBwMb_3syn3gen5visit17visit_field_valueNtNtCs9jpTMRK2ijq_11yoke_derive7visitor11TypeVisitorEBV_, symObjAddr: 0x6D30, symBinAddr: 0x4A960, symSize: 0xB0 }
  - { offset: 0x91A31, size: 0x8, addend: 0x0, symName: __RINvNtNtCsdGrGZaRBwMb_3syn3gen5visit17visit_item_staticNtNtCs9jpTMRK2ijq_11yoke_derive7visitor11TypeVisitorEBV_, symObjAddr: 0x6DE0, symBinAddr: 0x4AA10, symSize: 0x170 }
  - { offset: 0x91AAF, size: 0x8, addend: 0x0, symName: __RINvNtNtCsdGrGZaRBwMb_3syn3gen5visit17visit_item_structNtNtCs9jpTMRK2ijq_11yoke_derive7visitor11TypeVisitorEBV_, symObjAddr: 0x6F50, symBinAddr: 0x4AB80, symSize: 0xD0 }
  - { offset: 0x91B2D, size: 0x8, addend: 0x0, symName: __RINvNtNtCsdGrGZaRBwMb_3syn3gen5visit17visit_return_typeNtNtCs9jpTMRK2ijq_11yoke_derive7visitor11TypeVisitorEBV_, symObjAddr: 0x7020, symBinAddr: 0x4AC50, symSize: 0xC0 }
  - { offset: 0x91B95, size: 0x8, addend: 0x0, symName: __RINvNtNtCsdGrGZaRBwMb_3syn3gen5visit17visit_trait_boundNtNtCs9jpTMRK2ijq_11yoke_derive7visitor11TypeVisitorEBV_, symObjAddr: 0x70E0, symBinAddr: 0x4AD10, symSize: 0x90 }
  - { offset: 0x91BF5, size: 0x8, addend: 0x0, symName: __RINvNtNtCsdGrGZaRBwMb_3syn3gen5visit18visit_expr_closureNtNtCs9jpTMRK2ijq_11yoke_derive7visitor11TypeVisitorEBW_, symObjAddr: 0x7170, symBinAddr: 0x4ADA0, symSize: 0x220 }
  - { offset: 0x91CED, size: 0x8, addend: 0x0, symName: __RINvNtNtCsdGrGZaRBwMb_3syn3gen5visit18visit_fields_namedNtNtCs9jpTMRK2ijq_11yoke_derive7visitor11TypeVisitorEBW_, symObjAddr: 0x7390, symBinAddr: 0x4AFC0, symSize: 0xB0 }
  - { offset: 0x91D8A, size: 0x8, addend: 0x0, symName: __RINvNtNtCsdGrGZaRBwMb_3syn3gen5visit18visit_foreign_itemNtNtCs9jpTMRK2ijq_11yoke_derive7visitor11TypeVisitorEBW_, symObjAddr: 0x7440, symBinAddr: 0x4B070, symSize: 0x100 }
  - { offset: 0x91E5A, size: 0x8, addend: 0x0, symName: __RINvNtNtCsdGrGZaRBwMb_3syn3gen5visit18visit_impl_item_fnNtNtCs9jpTMRK2ijq_11yoke_derive7visitor11TypeVisitorEBW_, symObjAddr: 0x7540, symBinAddr: 0x4B170, symSize: 0xC0 }
  - { offset: 0x91ED8, size: 0x8, addend: 0x0, symName: __RINvNtNtCsdGrGZaRBwMb_3syn3gen5visit18visit_lit_byte_strNtNtCs9jpTMRK2ijq_11yoke_derive7visitor11TypeVisitorEBW_, symObjAddr: 0x7600, symBinAddr: 0x4B230, symSize: 0x20 }
  - { offset: 0x91F1A, size: 0x8, addend: 0x0, symName: __RINvNtNtCsdGrGZaRBwMb_3syn3gen5visit18visit_path_segmentNtNtCs9jpTMRK2ijq_11yoke_derive7visitor11TypeVisitorEBW_, symObjAddr: 0x7620, symBinAddr: 0x4B250, symSize: 0x40 }
  - { offset: 0x91F5C, size: 0x8, addend: 0x0, symName: __RINvNtNtCsdGrGZaRBwMb_3syn3gen5visit18visit_range_limitsNtNtCs9jpTMRK2ijq_11yoke_derive7visitor11TypeVisitorEBW_, symObjAddr: 0x7660, symBinAddr: 0x4B290, symSize: 0x50 }
  - { offset: 0x91F9E, size: 0x8, addend: 0x0, symName: __RINvNtNtCsdGrGZaRBwMb_3syn3gen5visit18visit_type_bare_fnNtNtCs9jpTMRK2ijq_11yoke_derive7visitor11TypeVisitorEBW_, symObjAddr: 0x76B0, symBinAddr: 0x4B2E0, symSize: 0x1C0 }
  - { offset: 0x92095, size: 0x8, addend: 0x0, symName: __RINvNtNtCsdGrGZaRBwMb_3syn3gen5visit18visit_where_clauseNtNtCs9jpTMRK2ijq_11yoke_derive7visitor11TypeVisitorEBW_, symObjAddr: 0x7870, symBinAddr: 0x4B4A0, symSize: 0xB0 }
  - { offset: 0x92132, size: 0x8, addend: 0x0, symName: __RINvNtNtCsdGrGZaRBwMb_3syn3gen5visit19visit_bare_variadicNtNtCs9jpTMRK2ijq_11yoke_derive7visitor11TypeVisitorEBX_, symObjAddr: 0x7920, symBinAddr: 0x4B550, symSize: 0xD0 }
  - { offset: 0x921CE, size: 0x8, addend: 0x0, symName: __RINvNtNtCsdGrGZaRBwMb_3syn3gen5visit19visit_expr_continueNtNtCs9jpTMRK2ijq_11yoke_derive7visitor11TypeVisitorEBX_, symObjAddr: 0x79F0, symBinAddr: 0x4B620, symSize: 0xD0 }
  - { offset: 0x9226A, size: 0x8, addend: 0x0, symName: __RINvNtNtCsdGrGZaRBwMb_3syn3gen5visit19visit_expr_for_loopNtNtCs9jpTMRK2ijq_11yoke_derive7visitor11TypeVisitorEBX_, symObjAddr: 0x7AC0, symBinAddr: 0x4B6F0, symSize: 0x190 }
  - { offset: 0x92306, size: 0x8, addend: 0x0, symName: __RINvNtNtCsdGrGZaRBwMb_3syn3gen5visit19visit_expr_raw_addrNtNtCs9jpTMRK2ijq_11yoke_derive7visitor11TypeVisitorEBX_, symObjAddr: 0x7C50, symBinAddr: 0x4B880, symSize: 0xF0 }
  - { offset: 0x92384, size: 0x8, addend: 0x0, symName: __RINvNtNtCsdGrGZaRBwMb_3syn3gen5visit19visit_generic_paramNtNtCs9jpTMRK2ijq_11yoke_derive7visitor11TypeVisitorEBX_, symObjAddr: 0x7D40, symBinAddr: 0x4B970, symSize: 0xB0 }
  - { offset: 0x92418, size: 0x8, addend: 0x0, symName: __RINvNtNtCsdGrGZaRBwMb_3syn3gen5visit19visit_pat_referenceNtNtCs9jpTMRK2ijq_11yoke_derive7visitor11TypeVisitorEBX_, symObjAddr: 0x7DF0, symBinAddr: 0x4BA20, symSize: 0xE0 }
  - { offset: 0x92496, size: 0x8, addend: 0x0, symName: __RINvNtNtCsdGrGZaRBwMb_3syn3gen5visit19visit_trait_item_fnNtNtCs9jpTMRK2ijq_11yoke_derive7visitor11TypeVisitorEBX_, symObjAddr: 0x7ED0, symBinAddr: 0x4BB00, symSize: 0xF0 }
  - { offset: 0x92532, size: 0x8, addend: 0x0, symName: __RINvNtNtCsdGrGZaRBwMb_3syn3gen5visit20visit_captured_paramNtNtCs9jpTMRK2ijq_11yoke_derive7visitor11TypeVisitorEBY_, symObjAddr: 0x7FC0, symBinAddr: 0x4BBF0, symSize: 0x70 }
  - { offset: 0x925A8, size: 0x8, addend: 0x0, symName: __RINvNtNtCsdGrGZaRBwMb_3syn3gen5visit20visit_expr_referenceNtNtCs9jpTMRK2ijq_11yoke_derive7visitor11TypeVisitorEBY_, symObjAddr: 0x8030, symBinAddr: 0x4BC60, symSize: 0xE0 }
  - { offset: 0x92626, size: 0x8, addend: 0x0, symName: __RINvNtNtCsdGrGZaRBwMb_3syn3gen5visit20visit_expr_try_blockNtNtCs9jpTMRK2ijq_11yoke_derive7visitor11TypeVisitorEBY_, symObjAddr: 0x8110, symBinAddr: 0x4BD40, symSize: 0xA0 }
  - { offset: 0x926A4, size: 0x8, addend: 0x0, symName: __RINvNtNtCsdGrGZaRBwMb_3syn3gen5visit20visit_fields_unnamedNtNtCs9jpTMRK2ijq_11yoke_derive7visitor11TypeVisitorEBY_, symObjAddr: 0x81B0, symBinAddr: 0x4BDE0, symSize: 0xB0 }
  - { offset: 0x92741, size: 0x8, addend: 0x0, symName: __RINvNtNtCsdGrGZaRBwMb_3syn3gen5visit20visit_impl_item_typeNtNtCs9jpTMRK2ijq_11yoke_derive7visitor11TypeVisitorEBY_, symObjAddr: 0x8260, symBinAddr: 0x4BE90, symSize: 0xE0 }
  - { offset: 0x927BF, size: 0x8, addend: 0x0, symName: __RINvNtNtCsdGrGZaRBwMb_3syn3gen5visit20visit_lifetime_paramNtNtCs9jpTMRK2ijq_11yoke_derive7visitor11TypeVisitorEBY_, symObjAddr: 0x8340, symBinAddr: 0x4BF70, symSize: 0x150 }
  - { offset: 0x92899, size: 0x8, addend: 0x0, symName: __RINvNtNtCsdGrGZaRBwMb_3syn3gen5visit20visit_path_argumentsNtNtCs9jpTMRK2ijq_11yoke_derive7visitor11TypeVisitorEBY_, symObjAddr: 0x8490, symBinAddr: 0x4C0C0, symSize: 0xA0 }
  - { offset: 0x9290F, size: 0x8, addend: 0x0, symName: __RINvNtNtCsdGrGZaRBwMb_3syn3gen5visit20visit_predicate_typeNtNtCs9jpTMRK2ijq_11yoke_derive7visitor11TypeVisitorEBY_, symObjAddr: 0x8530, symBinAddr: 0x4C160, symSize: 0x130 }
  - { offset: 0x929CA, size: 0x8, addend: 0x0, symName: __RINvNtNtCsdGrGZaRBwMb_3syn3gen5visit20visit_type_referenceNtNtCs9jpTMRK2ijq_11yoke_derive7visitor11TypeVisitorEBY_, symObjAddr: 0x8660, symBinAddr: 0x4C290, symSize: 0xC0 }
  - { offset: 0x92A2A, size: 0x8, addend: 0x0, symName: __RINvNtNtCsdGrGZaRBwMb_3syn3gen5visit20visit_vis_restrictedNtNtCs9jpTMRK2ijq_11yoke_derive7visitor11TypeVisitorEBY_, symObjAddr: 0x8720, symBinAddr: 0x4C350, symSize: 0x80 }
  - { offset: 0x92A6C, size: 0x8, addend: 0x0, symName: __RINvNtNtCsdGrGZaRBwMb_3syn3gen5visit21visit_bound_lifetimesNtNtCs9jpTMRK2ijq_11yoke_derive7visitor11TypeVisitorEBZ_, symObjAddr: 0x87A0, symBinAddr: 0x4C3D0, symSize: 0xB0 }
  - { offset: 0x92B09, size: 0x8, addend: 0x0, symName: __RINvNtNtCsdGrGZaRBwMb_3syn3gen5visit21visit_foreign_item_fnNtNtCs9jpTMRK2ijq_11yoke_derive7visitor11TypeVisitorEBZ_, symObjAddr: 0x8850, symBinAddr: 0x4C480, symSize: 0xB0 }
  - { offset: 0x92B87, size: 0x8, addend: 0x0, symName: __RINvNtNtCsdGrGZaRBwMb_3syn3gen5visit21visit_impl_item_constNtNtCs9jpTMRK2ijq_11yoke_derive7visitor11TypeVisitorEBZ_, symObjAddr: 0x8900, symBinAddr: 0x4C530, symSize: 0xF0 }
  - { offset: 0x92C05, size: 0x8, addend: 0x0, symName: __RINvNtNtCsdGrGZaRBwMb_3syn3gen5visit21visit_impl_item_macroNtNtCs9jpTMRK2ijq_11yoke_derive7visitor11TypeVisitorEBZ_, symObjAddr: 0x89F0, symBinAddr: 0x4C620, symSize: 0xA0 }
  - { offset: 0x92C83, size: 0x8, addend: 0x0, symName: __RINvNtNtCsdGrGZaRBwMb_3syn3gen5visit21visit_macro_delimiterNtNtCs9jpTMRK2ijq_11yoke_derive7visitor11TypeVisitorEBZ_, symObjAddr: 0x8A90, symBinAddr: 0x4C6C0, symSize: 0x70 }
  - { offset: 0x92CC5, size: 0x8, addend: 0x0, symName: __RINvNtNtCsdGrGZaRBwMb_3syn3gen5visit21visit_meta_name_valueNtNtCs9jpTMRK2ijq_11yoke_derive7visitor11TypeVisitorEBZ_, symObjAddr: 0x8B00, symBinAddr: 0x4C730, symSize: 0x40 }
  - { offset: 0x92D07, size: 0x8, addend: 0x0, symName: __RINvNtNtCsdGrGZaRBwMb_3syn3gen5visit21visit_precise_captureNtNtCs9jpTMRK2ijq_11yoke_derive7visitor11TypeVisitorEBZ_, symObjAddr: 0x8B40, symBinAddr: 0x4C770, symSize: 0xB0 }
  - { offset: 0x92DA4, size: 0x8, addend: 0x0, symName: __RINvNtNtCsdGrGZaRBwMb_3syn3gen5visit21visit_trait_item_typeNtNtCs9jpTMRK2ijq_11yoke_derive7visitor11TypeVisitorEBZ_, symObjAddr: 0x8BF0, symBinAddr: 0x4C820, symSize: 0x1C0 }
  - { offset: 0x92E9C, size: 0x8, addend: 0x0, symName: __RINvNtNtCsdGrGZaRBwMb_3syn3gen5visit21visit_type_impl_traitNtNtCs9jpTMRK2ijq_11yoke_derive7visitor11TypeVisitorEBZ_, symObjAddr: 0x8DB0, symBinAddr: 0x4C9E0, symSize: 0xB0 }
  - { offset: 0x92F39, size: 0x8, addend: 0x0, symName: __RINvNtNtCsdGrGZaRBwMb_3syn3gen5visit21visit_where_predicateNtNtCs9jpTMRK2ijq_11yoke_derive7visitor11TypeVisitorEBZ_, symObjAddr: 0x8E60, symBinAddr: 0x4CA90, symSize: 0x70 }
  - { offset: 0x92FAF, size: 0x8, addend: 0x0, symName: __RINvNtNtCsdGrGZaRBwMb_3syn3gen5visit22visit_expr_method_callNtNtCs9jpTMRK2ijq_11yoke_derive7visitor11TypeVisitorEB10_, symObjAddr: 0x8ED0, symBinAddr: 0x4CB00, symSize: 0x220 }
  - { offset: 0x9309F, size: 0x8, addend: 0x0, symName: __RINvNtNtCsdGrGZaRBwMb_3syn3gen5visit22visit_field_mutabilityNtNtCs9jpTMRK2ijq_11yoke_derive7visitor11TypeVisitorEB10_, symObjAddr: 0x90F0, symBinAddr: 0x4CD20, symSize: 0x20 }
  - { offset: 0x930E1, size: 0x8, addend: 0x0, symName: __RINvNtNtCsdGrGZaRBwMb_3syn3gen5visit22visit_generic_argumentNtNtCs9jpTMRK2ijq_11yoke_derive7visitor11TypeVisitorEB10_, symObjAddr: 0x9110, symBinAddr: 0x4CD40, symSize: 0x120 }
  - { offset: 0x931CF, size: 0x8, addend: 0x0, symName: __RINvNtNtCsdGrGZaRBwMb_3syn3gen5visit22visit_item_foreign_modNtNtCs9jpTMRK2ijq_11yoke_derive7visitor11TypeVisitorEB10_, symObjAddr: 0x9230, symBinAddr: 0x4CE60, symSize: 0xF0 }
  - { offset: 0x9328A, size: 0x8, addend: 0x0, symName: __RINvNtNtCsdGrGZaRBwMb_3syn3gen5visit22visit_item_trait_aliasNtNtCs9jpTMRK2ijq_11yoke_derive7visitor11TypeVisitorEB10_, symObjAddr: 0x9320, symBinAddr: 0x4CF50, symSize: 0x190 }
  - { offset: 0x93364, size: 0x8, addend: 0x0, symName: __RINvNtNtCsdGrGZaRBwMb_3syn3gen5visit22visit_pat_tuple_structNtNtCs9jpTMRK2ijq_11yoke_derive7visitor11TypeVisitorEB10_, symObjAddr: 0x94B0, symBinAddr: 0x4D0E0, symSize: 0x1A0 }
  - { offset: 0x9345C, size: 0x8, addend: 0x0, symName: __RINvNtNtCsdGrGZaRBwMb_3syn3gen5visit22visit_trait_item_constNtNtCs9jpTMRK2ijq_11yoke_derive7visitor11TypeVisitorEB10_, symObjAddr: 0x9650, symBinAddr: 0x4D280, symSize: 0x110 }
  - { offset: 0x934F8, size: 0x8, addend: 0x0, symName: __RINvNtNtCsdGrGZaRBwMb_3syn3gen5visit22visit_trait_item_macroNtNtCs9jpTMRK2ijq_11yoke_derive7visitor11TypeVisitorEB10_, symObjAddr: 0x9760, symBinAddr: 0x4D390, symSize: 0xA0 }
  - { offset: 0x93576, size: 0x8, addend: 0x0, symName: __RINvNtNtCsdGrGZaRBwMb_3syn3gen5visit22visit_type_param_boundNtNtCs9jpTMRK2ijq_11yoke_derive7visitor11TypeVisitorEB10_, symObjAddr: 0x9800, symBinAddr: 0x4D430, symSize: 0xE0 }
  - { offset: 0x93628, size: 0x8, addend: 0x0, symName: __RINvNtNtCsdGrGZaRBwMb_3syn3gen5visit23visit_foreign_item_typeNtNtCs9jpTMRK2ijq_11yoke_derive7visitor11TypeVisitorEB11_, symObjAddr: 0x98E0, symBinAddr: 0x4D510, symSize: 0xC0 }
  - { offset: 0x936A6, size: 0x8, addend: 0x0, symName: __RINvNtNtCsdGrGZaRBwMb_3syn3gen5visit23visit_item_extern_crateNtNtCs9jpTMRK2ijq_11yoke_derive7visitor11TypeVisitorEB11_, symObjAddr: 0x99A0, symBinAddr: 0x4D5D0, symSize: 0xF0 }
  - { offset: 0x93742, size: 0x8, addend: 0x0, symName: __RINvNtNtCsdGrGZaRBwMb_3syn3gen5visit23visit_static_mutabilityNtNtCs9jpTMRK2ijq_11yoke_derive7visitor11TypeVisitorEB11_, symObjAddr: 0x9A90, symBinAddr: 0x4D6C0, symSize: 0x40 }
  - { offset: 0x93784, size: 0x8, addend: 0x0, symName: __RINvNtNtCsdGrGZaRBwMb_3syn3gen5visit23visit_type_trait_objectNtNtCs9jpTMRK2ijq_11yoke_derive7visitor11TypeVisitorEB11_, symObjAddr: 0x9AD0, symBinAddr: 0x4D700, symSize: 0xB0 }
  - { offset: 0x93821, size: 0x8, addend: 0x0, symName: __RINvNtNtCsdGrGZaRBwMb_3syn3gen5visit24visit_foreign_item_macroNtNtCs9jpTMRK2ijq_11yoke_derive7visitor11TypeVisitorEB12_, symObjAddr: 0x9B80, symBinAddr: 0x4D7B0, symSize: 0xA0 }
  - { offset: 0x9389F, size: 0x8, addend: 0x0, symName: __RINvNtNtCsdGrGZaRBwMb_3syn3gen5visit24visit_pointer_mutabilityNtNtCs9jpTMRK2ijq_11yoke_derive7visitor11TypeVisitorEB12_, symObjAddr: 0x9C20, symBinAddr: 0x4D850, symSize: 0x50 }
  - { offset: 0x938E1, size: 0x8, addend: 0x0, symName: __RINvNtNtCsdGrGZaRBwMb_3syn3gen5visit24visit_predicate_lifetimeNtNtCs9jpTMRK2ijq_11yoke_derive7visitor11TypeVisitorEB12_, symObjAddr: 0x9C70, symBinAddr: 0x4D8A0, symSize: 0xD0 }
  - { offset: 0x9397E, size: 0x8, addend: 0x0, symName: __RINvNtNtCsdGrGZaRBwMb_3syn3gen5visit25visit_foreign_item_staticNtNtCs9jpTMRK2ijq_11yoke_derive7visitor11TypeVisitorEB13_, symObjAddr: 0x9D40, symBinAddr: 0x4D970, symSize: 0x110 }
  - { offset: 0x939FC, size: 0x8, addend: 0x0, symName: __RINvNtNtCsdGrGZaRBwMb_3syn3gen5visit26visit_trait_bound_modifierNtNtCs9jpTMRK2ijq_11yoke_derive7visitor11TypeVisitorEB14_, symObjAddr: 0x9E50, symBinAddr: 0x4DA80, symSize: 0x40 }
  - { offset: 0x93A3E, size: 0x8, addend: 0x0, symName: __RINvNtNtCsdGrGZaRBwMb_3syn3gen5visit37visit_parenthesized_generic_argumentsNtNtCs9jpTMRK2ijq_11yoke_derive7visitor11TypeVisitorEB1f_, symObjAddr: 0x9E90, symBinAddr: 0x4DAC0, symSize: 0xD0 }
  - { offset: 0x93ADB, size: 0x8, addend: 0x0, symName: __RINvNtNtCsdGrGZaRBwMb_3syn3gen5visit39visit_angle_bracketed_generic_argumentsNtNtCs9jpTMRK2ijq_11yoke_derive7visitor11TypeVisitorEB1h_, symObjAddr: 0x9F60, symBinAddr: 0x4DB90, symSize: 0xB0 }
  - { offset: 0x93B78, size: 0x8, addend: 0x0, symName: __RINvNtNtCsdGrGZaRBwMb_3syn3gen5visit9visit_abiNtNtCs9jpTMRK2ijq_11yoke_derive7visitor11TypeVisitorEBM_, symObjAddr: 0xA010, symBinAddr: 0x4DC40, symSize: 0x60 }
  - { offset: 0x93BD8, size: 0x8, addend: 0x0, symName: __RINvNtNtCsdGrGZaRBwMb_3syn3gen5visit9visit_armNtNtCs9jpTMRK2ijq_11yoke_derive7visitor11TypeVisitorEBM_, symObjAddr: 0xA070, symBinAddr: 0x4DCA0, symSize: 0x190 }
  - { offset: 0x93C6C, size: 0x8, addend: 0x0, symName: __RINvNtNtCsdGrGZaRBwMb_3syn3gen5visit9visit_litNtNtCs9jpTMRK2ijq_11yoke_derive7visitor11TypeVisitorEBM_, symObjAddr: 0xA200, symBinAddr: 0x4DE30, symSize: 0x1A0 }
  - { offset: 0x93DA1, size: 0x8, addend: 0x0, symName: __RINvNtNtCsdGrGZaRBwMb_3syn3gen5visit9visit_patNtNtCs9jpTMRK2ijq_11yoke_derive7visitor11TypeVisitorEBM_, symObjAddr: 0xA3A0, symBinAddr: 0x4DFD0, symSize: 0x350 }
  - { offset: 0x9ED30, size: 0x8, addend: 0x0, symName: __RNCNCNvCs9jpTMRK2ijq_11yoke_derive20yokeable_derive_impls4_00B5_, symObjAddr: 0x0, symBinAddr: 0x4E320, symSize: 0x840 }
  - { offset: 0x9ED52, size: 0x8, addend: 0x0, symName: ___rustc_proc_macro_decls_6c79fa5cb084e0ae__, symObjAddr: 0x9E58, symBinAddr: 0x255240, symSize: 0x0 }
  - { offset: 0x9ED6A, size: 0x8, addend: 0x0, symName: __RNCNCNvCs9jpTMRK2ijq_11yoke_derive20yokeable_derive_impls4_00B5_, symObjAddr: 0x0, symBinAddr: 0x4E320, symSize: 0x840 }
  - { offset: 0x9EEF0, size: 0x8, addend: 0x0, symName: __RNCNvCs9jpTMRK2ijq_11yoke_derive20yokeable_derive_impl0B3_, symObjAddr: 0x840, symBinAddr: 0x4EB60, symSize: 0x110 }
  - { offset: 0x9EF3C, size: 0x8, addend: 0x0, symName: __RNCNvCs9jpTMRK2ijq_11yoke_derive20yokeable_derive_impls0_0B3_, symObjAddr: 0x950, symBinAddr: 0x4EC70, symSize: 0xD0 }
  - { offset: 0x9EF88, size: 0x8, addend: 0x0, symName: __RNCNvCs9jpTMRK2ijq_11yoke_derive20yokeable_derive_impls1_0B3_, symObjAddr: 0xA20, symBinAddr: 0x4ED40, symSize: 0x120 }
  - { offset: 0x9EFD3, size: 0x8, addend: 0x0, symName: __RNCNvCs9jpTMRK2ijq_11yoke_derive20yokeable_derive_impls2_0B3_, symObjAddr: 0xB40, symBinAddr: 0x4EE60, symSize: 0xD0 }
  - { offset: 0x9F01F, size: 0x8, addend: 0x0, symName: __RNCNvCs9jpTMRK2ijq_11yoke_derive20yokeable_derive_impls3_0B3_, symObjAddr: 0xC10, symBinAddr: 0x4EF30, symSize: 0x10 }
  - { offset: 0x9F051, size: 0x8, addend: 0x0, symName: __RNCNvCs9jpTMRK2ijq_11yoke_derive20yokeable_derive_impls4_0B3_, symObjAddr: 0xC20, symBinAddr: 0x4EF40, symSize: 0x40 }
  - { offset: 0x9F0A1, size: 0x8, addend: 0x0, symName: __RNCNvCs9jpTMRK2ijq_11yoke_derive20yokeable_derive_impls5_0B3_, symObjAddr: 0xC60, symBinAddr: 0x4EF80, symSize: 0x3C0 }
  - { offset: 0x9F185, size: 0x8, addend: 0x0, symName: __RNCNvCs9jpTMRK2ijq_11yoke_derive20yokeable_derive_impls_0B3_, symObjAddr: 0x1020, symBinAddr: 0x4F340, symSize: 0x40 }
  - { offset: 0x9F1F9, size: 0x8, addend: 0x0, symName: __RNvCs9jpTMRK2ijq_11yoke_derive15yokeable_derive, symObjAddr: 0x1060, symBinAddr: 0x4F380, symSize: 0x180 }
  - { offset: 0x9F26F, size: 0x8, addend: 0x0, symName: __RNvCs9jpTMRK2ijq_11yoke_derive16replace_lifetime, symObjAddr: 0x11E0, symBinAddr: 0x4F500, symSize: 0xC0 }
  - { offset: 0x9F2AD, size: 0x8, addend: 0x0, symName: __RNvCs9jpTMRK2ijq_11yoke_derive20yokeable_derive_impl, symObjAddr: 0x12A0, symBinAddr: 0x4F5C0, symSize: 0x5B20 }
  - { offset: 0xA0102, size: 0x8, addend: 0x0, symName: __RNvCs9jpTMRK2ijq_11yoke_derive9custom_lt, symObjAddr: 0x6DC0, symBinAddr: 0x550E0, symSize: 0x50 }
  - { offset: 0xA0130, size: 0x8, addend: 0x0, symName: __RNvCs9jpTMRK2ijq_11yoke_derive9static_lt, symObjAddr: 0x6E10, symBinAddr: 0x55130, symSize: 0x40 }
  - { offset: 0xA0158, size: 0x8, addend: 0x0, symName: __RNvXNvCs9jpTMRK2ijq_11yoke_derive16replace_lifetimeNtB2_15ReplaceLifetimeNtNtNtCsdGrGZaRBwMb_3syn3gen4fold4Fold13fold_lifetime, symObjAddr: 0x6E50, symBinAddr: 0x55170, symSize: 0x60 }
  - { offset: 0xA2975, size: 0x8, addend: 0x0, symName: __RNvXs1_NtNtNtCsieiGu2EXtoJ_4core3ops8function5implsQNCNvCs9jpTMRK2ijq_11yoke_derive20yokeable_derive_impls3_0INtB7_5FnMutTRNtCs4L8YLU89NU9_12synstructure11BindingInfoEE8call_mutBS_, symObjAddr: 0x6EB0, symBinAddr: 0x551D0, symSize: 0x30 }
  - { offset: 0xA29C4, size: 0x8, addend: 0x0, symName: __RNvXs1_NtNtNtCsieiGu2EXtoJ_4core3ops8function5implsQNCNvCs9jpTMRK2ijq_11yoke_derive20yokeable_derive_impls5_0INtB7_5FnMutTRNtCs4L8YLU89NU9_12synstructure11BindingInfoEE8call_mutBS_, symObjAddr: 0x6EE0, symBinAddr: 0x55200, symSize: 0x30 }
  - { offset: 0xA43B2, size: 0x8, addend: 0x0, symName: __RNvYNtNvCs9jpTMRK2ijq_11yoke_derive16replace_lifetime15ReplaceLifetimeNtNtNtCsdGrGZaRBwMb_3syn3gen4fold4Fold10fold_blockB6_, symObjAddr: 0x6F10, symBinAddr: 0x55230, symSize: 0x30 }
  - { offset: 0xA43F6, size: 0x8, addend: 0x0, symName: __RNvYNtNvCs9jpTMRK2ijq_11yoke_derive16replace_lifetime15ReplaceLifetimeNtNtNtCsdGrGZaRBwMb_3syn3gen4fold4Fold10fold_fieldB6_, symObjAddr: 0x6F40, symBinAddr: 0x55260, symSize: 0x30 }
  - { offset: 0xA443D, size: 0x8, addend: 0x0, symName: __RNvYNtNvCs9jpTMRK2ijq_11yoke_derive16replace_lifetime15ReplaceLifetimeNtNtNtCsdGrGZaRBwMb_3syn3gen4fold4Fold10fold_identB6_, symObjAddr: 0x6F70, symBinAddr: 0x55290, symSize: 0x30 }
  - { offset: 0xA4484, size: 0x8, addend: 0x0, symName: __RNvYNtNvCs9jpTMRK2ijq_11yoke_derive16replace_lifetime15ReplaceLifetimeNtNtNtCsdGrGZaRBwMb_3syn3gen4fold4Fold10fold_indexB6_, symObjAddr: 0x6FA0, symBinAddr: 0x552C0, symSize: 0x30 }
  - { offset: 0xA44CA, size: 0x8, addend: 0x0, symName: __RNvYNtNvCs9jpTMRK2ijq_11yoke_derive16replace_lifetime15ReplaceLifetimeNtNtNtCsdGrGZaRBwMb_3syn3gen4fold4Fold10fold_labelB6_, symObjAddr: 0x6FD0, symBinAddr: 0x552F0, symSize: 0x30 }
  - { offset: 0xA4511, size: 0x8, addend: 0x0, symName: __RNvYNtNvCs9jpTMRK2ijq_11yoke_derive16replace_lifetime15ReplaceLifetimeNtNtNtCsdGrGZaRBwMb_3syn3gen4fold4Fold10fold_localB6_, symObjAddr: 0x7000, symBinAddr: 0x55320, symSize: 0x30 }
  - { offset: 0xA4558, size: 0x8, addend: 0x0, symName: __RNvYNtNvCs9jpTMRK2ijq_11yoke_derive16replace_lifetime15ReplaceLifetimeNtNtNtCsdGrGZaRBwMb_3syn3gen4fold4Fold10fold_macroB6_, symObjAddr: 0x7030, symBinAddr: 0x55350, symSize: 0x30 }
  - { offset: 0xA459F, size: 0x8, addend: 0x0, symName: __RNvYNtNvCs9jpTMRK2ijq_11yoke_derive16replace_lifetime15ReplaceLifetimeNtNtNtCsdGrGZaRBwMb_3syn3gen4fold4Fold10fold_qselfB6_, symObjAddr: 0x7060, symBinAddr: 0x55380, symSize: 0x30 }
  - { offset: 0xA45E6, size: 0x8, addend: 0x0, symName: __RNvYNtNvCs9jpTMRK2ijq_11yoke_derive16replace_lifetime15ReplaceLifetimeNtNtNtCsdGrGZaRBwMb_3syn3gen4fold4Fold10fold_un_opB6_, symObjAddr: 0x7090, symBinAddr: 0x553B0, symSize: 0x50 }
  - { offset: 0xA462C, size: 0x8, addend: 0x0, symName: __RNvYNtNvCs9jpTMRK2ijq_11yoke_derive16replace_lifetime15ReplaceLifetimeNtNtNtCsdGrGZaRBwMb_3syn3gen4fold4Fold11fold_bin_opB6_, symObjAddr: 0x70E0, symBinAddr: 0x55400, symSize: 0x40 }
  - { offset: 0xA4670, size: 0x8, addend: 0x0, symName: __RNvYNtNvCs9jpTMRK2ijq_11yoke_derive16replace_lifetime15ReplaceLifetimeNtNtNtCsdGrGZaRBwMb_3syn3gen4fold4Fold11fold_fieldsB6_, symObjAddr: 0x7120, symBinAddr: 0x55440, symSize: 0x30 }
  - { offset: 0xA46B7, size: 0x8, addend: 0x0, symName: __RNvYNtNvCs9jpTMRK2ijq_11yoke_derive16replace_lifetime15ReplaceLifetimeNtNtNtCsdGrGZaRBwMb_3syn3gen4fold4Fold11fold_fn_argB6_, symObjAddr: 0x7150, symBinAddr: 0x55470, symSize: 0x30 }
  - { offset: 0xA46FE, size: 0x8, addend: 0x0, symName: __RNvYNtNvCs9jpTMRK2ijq_11yoke_derive16replace_lifetime15ReplaceLifetimeNtNtNtCsdGrGZaRBwMb_3syn3gen4fold4Fold11fold_memberB6_, symObjAddr: 0x7180, symBinAddr: 0x554A0, symSize: 0x30 }
  - { offset: 0xA4745, size: 0x8, addend: 0x0, symName: __RNvYNtNvCs9jpTMRK2ijq_11yoke_derive16replace_lifetime15ReplaceLifetimeNtNtNtCsdGrGZaRBwMb_3syn3gen4fold4Fold11fold_pat_orB6_, symObjAddr: 0x71B0, symBinAddr: 0x554D0, symSize: 0x30 }
  - { offset: 0xA478C, size: 0x8, addend: 0x0, symName: __RNvYNtNvCs9jpTMRK2ijq_11yoke_derive16replace_lifetime15ReplaceLifetimeNtNtNtCsdGrGZaRBwMb_3syn3gen4fold4Fold12fold_expr_ifB6_, symObjAddr: 0x71E0, symBinAddr: 0x55500, symSize: 0x30 }
  - { offset: 0xA47D0, size: 0x8, addend: 0x0, symName: __RNvYNtNvCs9jpTMRK2ijq_11yoke_derive16replace_lifetime15ReplaceLifetimeNtNtNtCsdGrGZaRBwMb_3syn3gen4fold4Fold12fold_item_fnB6_, symObjAddr: 0x7210, symBinAddr: 0x55530, symSize: 0x30 }
  - { offset: 0xA4817, size: 0x8, addend: 0x0, symName: __RNvYNtNvCs9jpTMRK2ijq_11yoke_derive16replace_lifetime15ReplaceLifetimeNtNtNtCsdGrGZaRBwMb_3syn3gen4fold4Fold12fold_lit_intB6_, symObjAddr: 0x7240, symBinAddr: 0x55560, symSize: 0x30 }
  - { offset: 0xA485D, size: 0x8, addend: 0x0, symName: __RNvYNtNvCs9jpTMRK2ijq_11yoke_derive16replace_lifetime15ReplaceLifetimeNtNtNtCsdGrGZaRBwMb_3syn3gen4fold4Fold12fold_lit_strB6_, symObjAddr: 0x7270, symBinAddr: 0x55590, symSize: 0x30 }
  - { offset: 0xA48A3, size: 0x8, addend: 0x0, symName: __RNvYNtNvCs9jpTMRK2ijq_11yoke_derive16replace_lifetime15ReplaceLifetimeNtNtNtCsdGrGZaRBwMb_3syn3gen4fold4Fold12fold_variantB6_, symObjAddr: 0x72A0, symBinAddr: 0x555C0, symSize: 0x30 }
  - { offset: 0xA48EA, size: 0x8, addend: 0x0, symName: __RNvYNtNvCs9jpTMRK2ijq_11yoke_derive16replace_lifetime15ReplaceLifetimeNtNtNtCsdGrGZaRBwMb_3syn3gen4fold4Fold13fold_expr_letB6_, symObjAddr: 0x72D0, symBinAddr: 0x555F0, symSize: 0x30 }
  - { offset: 0xA492E, size: 0x8, addend: 0x0, symName: __RNvYNtNvCs9jpTMRK2ijq_11yoke_derive16replace_lifetime15ReplaceLifetimeNtNtNtCsdGrGZaRBwMb_3syn3gen4fold4Fold13fold_expr_litB6_, symObjAddr: 0x7300, symBinAddr: 0x55620, symSize: 0x30 }
  - { offset: 0xA4972, size: 0x8, addend: 0x0, symName: __RNvYNtNvCs9jpTMRK2ijq_11yoke_derive16replace_lifetime15ReplaceLifetimeNtNtNtCsdGrGZaRBwMb_3syn3gen4fold4Fold13fold_expr_tryB6_, symObjAddr: 0x7330, symBinAddr: 0x55650, symSize: 0x30 }
  - { offset: 0xA49B9, size: 0x8, addend: 0x0, symName: __RNvYNtNvCs9jpTMRK2ijq_11yoke_derive16replace_lifetime15ReplaceLifetimeNtNtNtCsdGrGZaRBwMb_3syn3gen4fold4Fold13fold_genericsB6_, symObjAddr: 0x7360, symBinAddr: 0x55680, symSize: 0x30 }
  - { offset: 0xA4A00, size: 0x8, addend: 0x0, symName: __RNvYNtNvCs9jpTMRK2ijq_11yoke_derive16replace_lifetime15ReplaceLifetimeNtNtNtCsdGrGZaRBwMb_3syn3gen4fold4Fold13fold_item_modB6_, symObjAddr: 0x7390, symBinAddr: 0x556B0, symSize: 0x30 }
  - { offset: 0xA4A47, size: 0x8, addend: 0x0, symName: __RNvYNtNvCs9jpTMRK2ijq_11yoke_derive16replace_lifetime15ReplaceLifetimeNtNtNtCsdGrGZaRBwMb_3syn3gen4fold4Fold13fold_item_useB6_, symObjAddr: 0x73C0, symBinAddr: 0x556E0, symSize: 0x30 }
  - { offset: 0xA4A8E, size: 0x8, addend: 0x0, symName: __RNvYNtNvCs9jpTMRK2ijq_11yoke_derive16replace_lifetime15ReplaceLifetimeNtNtNtCsdGrGZaRBwMb_3syn3gen4fold4Fold13fold_lit_boolB6_, symObjAddr: 0x73F0, symBinAddr: 0x55710, symSize: 0x40 }
  - { offset: 0xA4AD4, size: 0x8, addend: 0x0, symName: __RNvYNtNvCs9jpTMRK2ijq_11yoke_derive16replace_lifetime15ReplaceLifetimeNtNtNtCsdGrGZaRBwMb_3syn3gen4fold4Fold13fold_lit_byteB6_, symObjAddr: 0x7430, symBinAddr: 0x55750, symSize: 0x30 }
  - { offset: 0xA4B1A, size: 0x8, addend: 0x0, symName: __RNvYNtNvCs9jpTMRK2ijq_11yoke_derive16replace_lifetime15ReplaceLifetimeNtNtNtCsdGrGZaRBwMb_3syn3gen4fold4Fold13fold_lit_charB6_, symObjAddr: 0x7460, symBinAddr: 0x55780, symSize: 0x30 }
  - { offset: 0xA4B60, size: 0x8, addend: 0x0, symName: __RNvYNtNvCs9jpTMRK2ijq_11yoke_derive16replace_lifetime15ReplaceLifetimeNtNtNtCsdGrGZaRBwMb_3syn3gen4fold4Fold13fold_lit_cstrB6_, symObjAddr: 0x7490, symBinAddr: 0x557B0, symSize: 0x30 }
  - { offset: 0xA4BA6, size: 0x8, addend: 0x0, symName: __RNvYNtNvCs9jpTMRK2ijq_11yoke_derive16replace_lifetime15ReplaceLifetimeNtNtNtCsdGrGZaRBwMb_3syn3gen4fold4Fold13fold_pat_restB6_, symObjAddr: 0x74C0, symBinAddr: 0x557E0, symSize: 0x30 }
  - { offset: 0xA4BED, size: 0x8, addend: 0x0, symName: __RNvYNtNvCs9jpTMRK2ijq_11yoke_derive16replace_lifetime15ReplaceLifetimeNtNtNtCsdGrGZaRBwMb_3syn3gen4fold4Fold13fold_pat_typeB6_, symObjAddr: 0x74F0, symBinAddr: 0x55810, symSize: 0x30 }
  - { offset: 0xA4C34, size: 0x8, addend: 0x0, symName: __RNvYNtNvCs9jpTMRK2ijq_11yoke_derive16replace_lifetime15ReplaceLifetimeNtNtNtCsdGrGZaRBwMb_3syn3gen4fold4Fold13fold_pat_wildB6_, symObjAddr: 0x7520, symBinAddr: 0x55840, symSize: 0x30 }
  - { offset: 0xA4C7B, size: 0x8, addend: 0x0, symName: __RNvYNtNvCs9jpTMRK2ijq_11yoke_derive16replace_lifetime15ReplaceLifetimeNtNtNtCsdGrGZaRBwMb_3syn3gen4fold4Fold13fold_receiverB6_, symObjAddr: 0x7550, symBinAddr: 0x55870, symSize: 0x30 }
  - { offset: 0xA4CC2, size: 0x8, addend: 0x0, symName: __RNvYNtNvCs9jpTMRK2ijq_11yoke_derive16replace_lifetime15ReplaceLifetimeNtNtNtCsdGrGZaRBwMb_3syn3gen4fold4Fold13fold_type_ptrB6_, symObjAddr: 0x7580, symBinAddr: 0x558A0, symSize: 0x30 }
  - { offset: 0xA4D09, size: 0x8, addend: 0x0, symName: __RNvYNtNvCs9jpTMRK2ijq_11yoke_derive16replace_lifetime15ReplaceLifetimeNtNtNtCsdGrGZaRBwMb_3syn3gen4fold4Fold13fold_use_globB6_, symObjAddr: 0x75B0, symBinAddr: 0x558D0, symSize: 0x40 }
  - { offset: 0xA4D4F, size: 0x8, addend: 0x0, symName: __RNvYNtNvCs9jpTMRK2ijq_11yoke_derive16replace_lifetime15ReplaceLifetimeNtNtNtCsdGrGZaRBwMb_3syn3gen4fold4Fold13fold_use_nameB6_, symObjAddr: 0x75F0, symBinAddr: 0x55910, symSize: 0x30 }
  - { offset: 0xA4D96, size: 0x8, addend: 0x0, symName: __RNvYNtNvCs9jpTMRK2ijq_11yoke_derive16replace_lifetime15ReplaceLifetimeNtNtNtCsdGrGZaRBwMb_3syn3gen4fold4Fold13fold_use_pathB6_, symObjAddr: 0x7620, symBinAddr: 0x55940, symSize: 0x30 }
  - { offset: 0xA4DDD, size: 0x8, addend: 0x0, symName: __RNvYNtNvCs9jpTMRK2ijq_11yoke_derive16replace_lifetime15ReplaceLifetimeNtNtNtCsdGrGZaRBwMb_3syn3gen4fold4Fold13fold_use_treeB6_, symObjAddr: 0x7650, symBinAddr: 0x55970, symSize: 0x30 }
  - { offset: 0xA4E24, size: 0x8, addend: 0x0, symName: __RNvYNtNvCs9jpTMRK2ijq_11yoke_derive16replace_lifetime15ReplaceLifetimeNtNtNtCsdGrGZaRBwMb_3syn3gen4fold4Fold13fold_variadicB6_, symObjAddr: 0x7680, symBinAddr: 0x559A0, symSize: 0x30 }
  - { offset: 0xA4E6B, size: 0x8, addend: 0x0, symName: __RNvYNtNvCs9jpTMRK2ijq_11yoke_derive16replace_lifetime15ReplaceLifetimeNtNtNtCsdGrGZaRBwMb_3syn3gen4fold4Fold14fold_attributeB6_, symObjAddr: 0x76B0, symBinAddr: 0x559D0, symSize: 0x30 }
  - { offset: 0xA4EAF, size: 0x8, addend: 0x0, symName: __RNvYNtNvCs9jpTMRK2ijq_11yoke_derive16replace_lifetime15ReplaceLifetimeNtNtNtCsdGrGZaRBwMb_3syn3gen4fold4Fold14fold_expr_callB6_, symObjAddr: 0x76E0, symBinAddr: 0x55A00, symSize: 0x30 }
  - { offset: 0xA4EF3, size: 0x8, addend: 0x0, symName: __RNvYNtNvCs9jpTMRK2ijq_11yoke_derive16replace_lifetime15ReplaceLifetimeNtNtNtCsdGrGZaRBwMb_3syn3gen4fold4Fold14fold_expr_castB6_, symObjAddr: 0x7710, symBinAddr: 0x55A30, symSize: 0x30 }
  - { offset: 0xA4F37, size: 0x8, addend: 0x0, symName: __RNvYNtNvCs9jpTMRK2ijq_11yoke_derive16replace_lifetime15ReplaceLifetimeNtNtNtCsdGrGZaRBwMb_3syn3gen4fold4Fold14fold_expr_loopB6_, symObjAddr: 0x7740, symBinAddr: 0x55A60, symSize: 0x30 }
  - { offset: 0xA4F7B, size: 0x8, addend: 0x0, symName: __RNvYNtNvCs9jpTMRK2ijq_11yoke_derive16replace_lifetime15ReplaceLifetimeNtNtNtCsdGrGZaRBwMb_3syn3gen4fold4Fold14fold_expr_pathB6_, symObjAddr: 0x7770, symBinAddr: 0x55A90, symSize: 0x30 }
  - { offset: 0xA4FC2, size: 0x8, addend: 0x0, symName: __RNvYNtNvCs9jpTMRK2ijq_11yoke_derive16replace_lifetime15ReplaceLifetimeNtNtNtCsdGrGZaRBwMb_3syn3gen4fold4Fold14fold_field_patB6_, symObjAddr: 0x77A0, symBinAddr: 0x55AC0, symSize: 0x30 }
  - { offset: 0xA5009, size: 0x8, addend: 0x0, symName: __RNvYNtNvCs9jpTMRK2ijq_11yoke_derive16replace_lifetime15ReplaceLifetimeNtNtNtCsdGrGZaRBwMb_3syn3gen4fold4Fold14fold_impl_itemB6_, symObjAddr: 0x77D0, symBinAddr: 0x55AF0, symSize: 0x30 }
  - { offset: 0xA5050, size: 0x8, addend: 0x0, symName: __RNvYNtNvCs9jpTMRK2ijq_11yoke_derive16replace_lifetime15ReplaceLifetimeNtNtNtCsdGrGZaRBwMb_3syn3gen4fold4Fold14fold_item_enumB6_, symObjAddr: 0x7800, symBinAddr: 0x55B20, symSize: 0x30 }
  - { offset: 0xA5097, size: 0x8, addend: 0x0, symName: __RNvYNtNvCs9jpTMRK2ijq_11yoke_derive16replace_lifetime15ReplaceLifetimeNtNtNtCsdGrGZaRBwMb_3syn3gen4fold4Fold14fold_item_implB6_, symObjAddr: 0x7830, symBinAddr: 0x55B50, symSize: 0x30 }
  - { offset: 0xA50DE, size: 0x8, addend: 0x0, symName: __RNvYNtNvCs9jpTMRK2ijq_11yoke_derive16replace_lifetime15ReplaceLifetimeNtNtNtCsdGrGZaRBwMb_3syn3gen4fold4Fold14fold_item_typeB6_, symObjAddr: 0x7860, symBinAddr: 0x55B80, symSize: 0x30 }
  - { offset: 0xA5125, size: 0x8, addend: 0x0, symName: __RNvYNtNvCs9jpTMRK2ijq_11yoke_derive16replace_lifetime15ReplaceLifetimeNtNtNtCsdGrGZaRBwMb_3syn3gen4fold4Fold14fold_lit_floatB6_, symObjAddr: 0x7890, symBinAddr: 0x55BB0, symSize: 0x30 }
  - { offset: 0xA516B, size: 0x8, addend: 0x0, symName: __RNvYNtNvCs9jpTMRK2ijq_11yoke_derive16replace_lifetime15ReplaceLifetimeNtNtNtCsdGrGZaRBwMb_3syn3gen4fold4Fold14fold_meta_listB6_, symObjAddr: 0x78C0, symBinAddr: 0x55BE0, symSize: 0x30 }
  - { offset: 0xA51B2, size: 0x8, addend: 0x0, symName: __RNvYNtNvCs9jpTMRK2ijq_11yoke_derive16replace_lifetime15ReplaceLifetimeNtNtNtCsdGrGZaRBwMb_3syn3gen4fold4Fold14fold_pat_identB6_, symObjAddr: 0x78F0, symBinAddr: 0x55C10, symSize: 0x30 }
  - { offset: 0xA51F9, size: 0x8, addend: 0x0, symName: __RNvYNtNvCs9jpTMRK2ijq_11yoke_derive16replace_lifetime15ReplaceLifetimeNtNtNtCsdGrGZaRBwMb_3syn3gen4fold4Fold14fold_pat_parenB6_, symObjAddr: 0x7920, symBinAddr: 0x55C40, symSize: 0x30 }
  - { offset: 0xA5240, size: 0x8, addend: 0x0, symName: __RNvYNtNvCs9jpTMRK2ijq_11yoke_derive16replace_lifetime15ReplaceLifetimeNtNtNtCsdGrGZaRBwMb_3syn3gen4fold4Fold14fold_pat_sliceB6_, symObjAddr: 0x7950, symBinAddr: 0x55C70, symSize: 0x30 }
  - { offset: 0xA5287, size: 0x8, addend: 0x0, symName: __RNvYNtNvCs9jpTMRK2ijq_11yoke_derive16replace_lifetime15ReplaceLifetimeNtNtNtCsdGrGZaRBwMb_3syn3gen4fold4Fold14fold_pat_tupleB6_, symObjAddr: 0x7980, symBinAddr: 0x55CA0, symSize: 0x30 }
  - { offset: 0xA52CE, size: 0x8, addend: 0x0, symName: __RNvYNtNvCs9jpTMRK2ijq_11yoke_derive16replace_lifetime15ReplaceLifetimeNtNtNtCsdGrGZaRBwMb_3syn3gen4fold4Fold14fold_signatureB6_, symObjAddr: 0x79B0, symBinAddr: 0x55CD0, symSize: 0x30 }
  - { offset: 0xA5315, size: 0x8, addend: 0x0, symName: __RNvYNtNvCs9jpTMRK2ijq_11yoke_derive16replace_lifetime15ReplaceLifetimeNtNtNtCsdGrGZaRBwMb_3syn3gen4fold4Fold14fold_type_pathB6_, symObjAddr: 0x79E0, symBinAddr: 0x55D00, symSize: 0x30 }
  - { offset: 0xA535C, size: 0x8, addend: 0x0, symName: __RNvYNtNvCs9jpTMRK2ijq_11yoke_derive16replace_lifetime15ReplaceLifetimeNtNtNtCsdGrGZaRBwMb_3syn3gen4fold4Fold14fold_use_groupB6_, symObjAddr: 0x7A10, symBinAddr: 0x55D30, symSize: 0x30 }
  - { offset: 0xA53A3, size: 0x8, addend: 0x0, symName: __RNvYNtNvCs9jpTMRK2ijq_11yoke_derive16replace_lifetime15ReplaceLifetimeNtNtNtCsdGrGZaRBwMb_3syn3gen4fold4Fold15fold_assoc_typeB6_, symObjAddr: 0x7A40, symBinAddr: 0x55D60, symSize: 0x30 }
  - { offset: 0xA53E7, size: 0x8, addend: 0x0, symName: __RNvYNtNvCs9jpTMRK2ijq_11yoke_derive16replace_lifetime15ReplaceLifetimeNtNtNtCsdGrGZaRBwMb_3syn3gen4fold4Fold15fold_attr_styleB6_, symObjAddr: 0x7A70, symBinAddr: 0x55D90, symSize: 0x50 }
  - { offset: 0xA542A, size: 0x8, addend: 0x0, symName: __RNvYNtNvCs9jpTMRK2ijq_11yoke_derive16replace_lifetime15ReplaceLifetimeNtNtNtCsdGrGZaRBwMb_3syn3gen4fold4Fold15fold_attributesB6_, symObjAddr: 0x7AC0, symBinAddr: 0x55DE0, symSize: 0x40 }
  - { offset: 0xA546E, size: 0x8, addend: 0x0, symName: __RNvYNtNvCs9jpTMRK2ijq_11yoke_derive16replace_lifetime15ReplaceLifetimeNtNtNtCsdGrGZaRBwMb_3syn3gen4fold4Fold15fold_constraintB6_, symObjAddr: 0x7B00, symBinAddr: 0x55E20, symSize: 0x30 }
  - { offset: 0xA54B2, size: 0x8, addend: 0x0, symName: __RNvYNtNvCs9jpTMRK2ijq_11yoke_derive16replace_lifetime15ReplaceLifetimeNtNtNtCsdGrGZaRBwMb_3syn3gen4fold4Fold15fold_expr_arrayB6_, symObjAddr: 0x7B30, symBinAddr: 0x55E50, symSize: 0x30 }
  - { offset: 0xA54F6, size: 0x8, addend: 0x0, symName: __RNvYNtNvCs9jpTMRK2ijq_11yoke_derive16replace_lifetime15ReplaceLifetimeNtNtNtCsdGrGZaRBwMb_3syn3gen4fold4Fold15fold_expr_asyncB6_, symObjAddr: 0x7B60, symBinAddr: 0x55E80, symSize: 0x30 }
  - { offset: 0xA553A, size: 0x8, addend: 0x0, symName: __RNvYNtNvCs9jpTMRK2ijq_11yoke_derive16replace_lifetime15ReplaceLifetimeNtNtNtCsdGrGZaRBwMb_3syn3gen4fold4Fold15fold_expr_awaitB6_, symObjAddr: 0x7B90, symBinAddr: 0x55EB0, symSize: 0x30 }
  - { offset: 0xA557E, size: 0x8, addend: 0x0, symName: __RNvYNtNvCs9jpTMRK2ijq_11yoke_derive16replace_lifetime15ReplaceLifetimeNtNtNtCsdGrGZaRBwMb_3syn3gen4fold4Fold15fold_expr_blockB6_, symObjAddr: 0x7BC0, symBinAddr: 0x55EE0, symSize: 0x30 }
  - { offset: 0xA55C2, size: 0x8, addend: 0x0, symName: __RNvYNtNvCs9jpTMRK2ijq_11yoke_derive16replace_lifetime15ReplaceLifetimeNtNtNtCsdGrGZaRBwMb_3syn3gen4fold4Fold15fold_expr_breakB6_, symObjAddr: 0x7BF0, symBinAddr: 0x55F10, symSize: 0x30 }
  - { offset: 0xA5606, size: 0x8, addend: 0x0, symName: __RNvYNtNvCs9jpTMRK2ijq_11yoke_derive16replace_lifetime15ReplaceLifetimeNtNtNtCsdGrGZaRBwMb_3syn3gen4fold4Fold15fold_expr_constB6_, symObjAddr: 0x7C20, symBinAddr: 0x55F40, symSize: 0x30 }
  - { offset: 0xA564A, size: 0x8, addend: 0x0, symName: __RNvYNtNvCs9jpTMRK2ijq_11yoke_derive16replace_lifetime15ReplaceLifetimeNtNtNtCsdGrGZaRBwMb_3syn3gen4fold4Fold15fold_expr_fieldB6_, symObjAddr: 0x7C50, symBinAddr: 0x55F70, symSize: 0x30 }
  - { offset: 0xA568E, size: 0x8, addend: 0x0, symName: __RNvYNtNvCs9jpTMRK2ijq_11yoke_derive16replace_lifetime15ReplaceLifetimeNtNtNtCsdGrGZaRBwMb_3syn3gen4fold4Fold15fold_expr_groupB6_, symObjAddr: 0x7C80, symBinAddr: 0x55FA0, symSize: 0x30 }
  - { offset: 0xA56D2, size: 0x8, addend: 0x0, symName: __RNvYNtNvCs9jpTMRK2ijq_11yoke_derive16replace_lifetime15ReplaceLifetimeNtNtNtCsdGrGZaRBwMb_3syn3gen4fold4Fold15fold_expr_indexB6_, symObjAddr: 0x7CB0, symBinAddr: 0x55FD0, symSize: 0x30 }
  - { offset: 0xA5716, size: 0x8, addend: 0x0, symName: __RNvYNtNvCs9jpTMRK2ijq_11yoke_derive16replace_lifetime15ReplaceLifetimeNtNtNtCsdGrGZaRBwMb_3syn3gen4fold4Fold15fold_expr_inferB6_, symObjAddr: 0x7CE0, symBinAddr: 0x56000, symSize: 0x30 }
  - { offset: 0xA575A, size: 0x8, addend: 0x0, symName: __RNvYNtNvCs9jpTMRK2ijq_11yoke_derive16replace_lifetime15ReplaceLifetimeNtNtNtCsdGrGZaRBwMb_3syn3gen4fold4Fold15fold_expr_macroB6_, symObjAddr: 0x7D10, symBinAddr: 0x56030, symSize: 0x30 }
  - { offset: 0xA579E, size: 0x8, addend: 0x0, symName: __RNvYNtNvCs9jpTMRK2ijq_11yoke_derive16replace_lifetime15ReplaceLifetimeNtNtNtCsdGrGZaRBwMb_3syn3gen4fold4Fold15fold_expr_matchB6_, symObjAddr: 0x7D40, symBinAddr: 0x56060, symSize: 0x30 }
  - { offset: 0xA57E5, size: 0x8, addend: 0x0, symName: __RNvYNtNvCs9jpTMRK2ijq_11yoke_derive16replace_lifetime15ReplaceLifetimeNtNtNtCsdGrGZaRBwMb_3syn3gen4fold4Fold15fold_expr_parenB6_, symObjAddr: 0x7D70, symBinAddr: 0x56090, symSize: 0x30 }
  - { offset: 0xA582C, size: 0x8, addend: 0x0, symName: __RNvYNtNvCs9jpTMRK2ijq_11yoke_derive16replace_lifetime15ReplaceLifetimeNtNtNtCsdGrGZaRBwMb_3syn3gen4fold4Fold15fold_expr_rangeB6_, symObjAddr: 0x7DA0, symBinAddr: 0x560C0, symSize: 0x30 }
  - { offset: 0xA5873, size: 0x8, addend: 0x0, symName: __RNvYNtNvCs9jpTMRK2ijq_11yoke_derive16replace_lifetime15ReplaceLifetimeNtNtNtCsdGrGZaRBwMb_3syn3gen4fold4Fold15fold_expr_tupleB6_, symObjAddr: 0x7DD0, symBinAddr: 0x560F0, symSize: 0x30 }
  - { offset: 0xA58BA, size: 0x8, addend: 0x0, symName: __RNvYNtNvCs9jpTMRK2ijq_11yoke_derive16replace_lifetime15ReplaceLifetimeNtNtNtCsdGrGZaRBwMb_3syn3gen4fold4Fold15fold_expr_unaryB6_, symObjAddr: 0x7E00, symBinAddr: 0x56120, symSize: 0x30 }
  - { offset: 0xA5901, size: 0x8, addend: 0x0, symName: __RNvYNtNvCs9jpTMRK2ijq_11yoke_derive16replace_lifetime15ReplaceLifetimeNtNtNtCsdGrGZaRBwMb_3syn3gen4fold4Fold15fold_expr_whileB6_, symObjAddr: 0x7E30, symBinAddr: 0x56150, symSize: 0x30 }
  - { offset: 0xA5948, size: 0x8, addend: 0x0, symName: __RNvYNtNvCs9jpTMRK2ijq_11yoke_derive16replace_lifetime15ReplaceLifetimeNtNtNtCsdGrGZaRBwMb_3syn3gen4fold4Fold15fold_expr_yieldB6_, symObjAddr: 0x7E60, symBinAddr: 0x56180, symSize: 0x30 }
  - { offset: 0xA598F, size: 0x8, addend: 0x0, symName: __RNvYNtNvCs9jpTMRK2ijq_11yoke_derive16replace_lifetime15ReplaceLifetimeNtNtNtCsdGrGZaRBwMb_3syn3gen4fold4Fold15fold_item_constB6_, symObjAddr: 0x7E90, symBinAddr: 0x561B0, symSize: 0x30 }
  - { offset: 0xA59D6, size: 0x8, addend: 0x0, symName: __RNvYNtNvCs9jpTMRK2ijq_11yoke_derive16replace_lifetime15ReplaceLifetimeNtNtNtCsdGrGZaRBwMb_3syn3gen4fold4Fold15fold_item_macroB6_, symObjAddr: 0x7EC0, symBinAddr: 0x561E0, symSize: 0x30 }
  - { offset: 0xA5A1D, size: 0x8, addend: 0x0, symName: __RNvYNtNvCs9jpTMRK2ijq_11yoke_derive16replace_lifetime15ReplaceLifetimeNtNtNtCsdGrGZaRBwMb_3syn3gen4fold4Fold15fold_item_traitB6_, symObjAddr: 0x7EF0, symBinAddr: 0x56210, symSize: 0x30 }
  - { offset: 0xA5A64, size: 0x8, addend: 0x0, symName: __RNvYNtNvCs9jpTMRK2ijq_11yoke_derive16replace_lifetime15ReplaceLifetimeNtNtNtCsdGrGZaRBwMb_3syn3gen4fold4Fold15fold_item_unionB6_, symObjAddr: 0x7F20, symBinAddr: 0x56240, symSize: 0x30 }
  - { offset: 0xA5AAB, size: 0x8, addend: 0x0, symName: __RNvYNtNvCs9jpTMRK2ijq_11yoke_derive16replace_lifetime15ReplaceLifetimeNtNtNtCsdGrGZaRBwMb_3syn3gen4fold4Fold15fold_local_initB6_, symObjAddr: 0x7F50, symBinAddr: 0x56270, symSize: 0x30 }
  - { offset: 0xA5AF2, size: 0x8, addend: 0x0, symName: __RNvYNtNvCs9jpTMRK2ijq_11yoke_derive16replace_lifetime15ReplaceLifetimeNtNtNtCsdGrGZaRBwMb_3syn3gen4fold4Fold15fold_pat_structB6_, symObjAddr: 0x7F80, symBinAddr: 0x562A0, symSize: 0x30 }
  - { offset: 0xA5B39, size: 0x8, addend: 0x0, symName: __RNvYNtNvCs9jpTMRK2ijq_11yoke_derive16replace_lifetime15ReplaceLifetimeNtNtNtCsdGrGZaRBwMb_3syn3gen4fold4Fold15fold_stmt_macroB6_, symObjAddr: 0x7FB0, symBinAddr: 0x562D0, symSize: 0x30 }
  - { offset: 0xA5B80, size: 0x8, addend: 0x0, symName: __RNvYNtNvCs9jpTMRK2ijq_11yoke_derive16replace_lifetime15ReplaceLifetimeNtNtNtCsdGrGZaRBwMb_3syn3gen4fold4Fold15fold_trait_itemB6_, symObjAddr: 0x7FE0, symBinAddr: 0x56300, symSize: 0x30 }
  - { offset: 0xA5BC7, size: 0x8, addend: 0x0, symName: __RNvYNtNvCs9jpTMRK2ijq_11yoke_derive16replace_lifetime15ReplaceLifetimeNtNtNtCsdGrGZaRBwMb_3syn3gen4fold4Fold15fold_type_arrayB6_, symObjAddr: 0x8010, symBinAddr: 0x56330, symSize: 0x30 }
  - { offset: 0xA5C0E, size: 0x8, addend: 0x0, symName: __RNvYNtNvCs9jpTMRK2ijq_11yoke_derive16replace_lifetime15ReplaceLifetimeNtNtNtCsdGrGZaRBwMb_3syn3gen4fold4Fold15fold_type_groupB6_, symObjAddr: 0x8040, symBinAddr: 0x56360, symSize: 0x30 }
  - { offset: 0xA5C54, size: 0x8, addend: 0x0, symName: __RNvYNtNvCs9jpTMRK2ijq_11yoke_derive16replace_lifetime15ReplaceLifetimeNtNtNtCsdGrGZaRBwMb_3syn3gen4fold4Fold15fold_type_inferB6_, symObjAddr: 0x8070, symBinAddr: 0x56390, symSize: 0x40 }
  - { offset: 0xA5C9A, size: 0x8, addend: 0x0, symName: __RNvYNtNvCs9jpTMRK2ijq_11yoke_derive16replace_lifetime15ReplaceLifetimeNtNtNtCsdGrGZaRBwMb_3syn3gen4fold4Fold15fold_type_macroB6_, symObjAddr: 0x80B0, symBinAddr: 0x563D0, symSize: 0x30 }
  - { offset: 0xA5CE1, size: 0x8, addend: 0x0, symName: __RNvYNtNvCs9jpTMRK2ijq_11yoke_derive16replace_lifetime15ReplaceLifetimeNtNtNtCsdGrGZaRBwMb_3syn3gen4fold4Fold15fold_type_neverB6_, symObjAddr: 0x80E0, symBinAddr: 0x56400, symSize: 0x40 }
  - { offset: 0xA5D27, size: 0x8, addend: 0x0, symName: __RNvYNtNvCs9jpTMRK2ijq_11yoke_derive16replace_lifetime15ReplaceLifetimeNtNtNtCsdGrGZaRBwMb_3syn3gen4fold4Fold15fold_type_paramB6_, symObjAddr: 0x8120, symBinAddr: 0x56440, symSize: 0x30 }
  - { offset: 0xA5D6E, size: 0x8, addend: 0x0, symName: __RNvYNtNvCs9jpTMRK2ijq_11yoke_derive16replace_lifetime15ReplaceLifetimeNtNtNtCsdGrGZaRBwMb_3syn3gen4fold4Fold15fold_type_parenB6_, symObjAddr: 0x8150, symBinAddr: 0x56470, symSize: 0x30 }
  - { offset: 0xA5DB5, size: 0x8, addend: 0x0, symName: __RNvYNtNvCs9jpTMRK2ijq_11yoke_derive16replace_lifetime15ReplaceLifetimeNtNtNtCsdGrGZaRBwMb_3syn3gen4fold4Fold15fold_type_sliceB6_, symObjAddr: 0x8180, symBinAddr: 0x564A0, symSize: 0x30 }
  - { offset: 0xA5DFC, size: 0x8, addend: 0x0, symName: __RNvYNtNvCs9jpTMRK2ijq_11yoke_derive16replace_lifetime15ReplaceLifetimeNtNtNtCsdGrGZaRBwMb_3syn3gen4fold4Fold15fold_type_tupleB6_, symObjAddr: 0x81B0, symBinAddr: 0x564D0, symSize: 0x30 }
  - { offset: 0xA5E43, size: 0x8, addend: 0x0, symName: __RNvYNtNvCs9jpTMRK2ijq_11yoke_derive16replace_lifetime15ReplaceLifetimeNtNtNtCsdGrGZaRBwMb_3syn3gen4fold4Fold15fold_use_renameB6_, symObjAddr: 0x81E0, symBinAddr: 0x56500, symSize: 0x30 }
  - { offset: 0xA5E8A, size: 0x8, addend: 0x0, symName: __RNvYNtNvCs9jpTMRK2ijq_11yoke_derive16replace_lifetime15ReplaceLifetimeNtNtNtCsdGrGZaRBwMb_3syn3gen4fold4Fold15fold_visibilityB6_, symObjAddr: 0x8210, symBinAddr: 0x56530, symSize: 0x30 }
  - { offset: 0xA5ED1, size: 0x8, addend: 0x0, symName: __RNvYNtNvCs9jpTMRK2ijq_11yoke_derive16replace_lifetime15ReplaceLifetimeNtNtNtCsdGrGZaRBwMb_3syn3gen4fold4Fold16fold_assoc_constB6_, symObjAddr: 0x8240, symBinAddr: 0x56560, symSize: 0x30 }
  - { offset: 0xA5F15, size: 0x8, addend: 0x0, symName: __RNvYNtNvCs9jpTMRK2ijq_11yoke_derive16replace_lifetime15ReplaceLifetimeNtNtNtCsdGrGZaRBwMb_3syn3gen4fold4Fold16fold_bare_fn_argB6_, symObjAddr: 0x8270, symBinAddr: 0x56590, symSize: 0x30 }
  - { offset: 0xA5F59, size: 0x8, addend: 0x0, symName: __RNvYNtNvCs9jpTMRK2ijq_11yoke_derive16replace_lifetime15ReplaceLifetimeNtNtNtCsdGrGZaRBwMb_3syn3gen4fold4Fold16fold_const_paramB6_, symObjAddr: 0x82A0, symBinAddr: 0x565C0, symSize: 0x30 }
  - { offset: 0xA5F9D, size: 0x8, addend: 0x0, symName: __RNvYNtNvCs9jpTMRK2ijq_11yoke_derive16replace_lifetime15ReplaceLifetimeNtNtNtCsdGrGZaRBwMb_3syn3gen4fold4Fold16fold_expr_assignB6_, symObjAddr: 0x82D0, symBinAddr: 0x565F0, symSize: 0x30 }
  - { offset: 0xA5FE1, size: 0x8, addend: 0x0, symName: __RNvYNtNvCs9jpTMRK2ijq_11yoke_derive16replace_lifetime15ReplaceLifetimeNtNtNtCsdGrGZaRBwMb_3syn3gen4fold4Fold16fold_expr_binaryB6_, symObjAddr: 0x8300, symBinAddr: 0x56620, symSize: 0x30 }
  - { offset: 0xA6025, size: 0x8, addend: 0x0, symName: __RNvYNtNvCs9jpTMRK2ijq_11yoke_derive16replace_lifetime15ReplaceLifetimeNtNtNtCsdGrGZaRBwMb_3syn3gen4fold4Fold16fold_expr_repeatB6_, symObjAddr: 0x8330, symBinAddr: 0x56650, symSize: 0x30 }
  - { offset: 0xA606C, size: 0x8, addend: 0x0, symName: __RNvYNtNvCs9jpTMRK2ijq_11yoke_derive16replace_lifetime15ReplaceLifetimeNtNtNtCsdGrGZaRBwMb_3syn3gen4fold4Fold16fold_expr_returnB6_, symObjAddr: 0x8360, symBinAddr: 0x56680, symSize: 0x30 }
  - { offset: 0xA60B3, size: 0x8, addend: 0x0, symName: __RNvYNtNvCs9jpTMRK2ijq_11yoke_derive16replace_lifetime15ReplaceLifetimeNtNtNtCsdGrGZaRBwMb_3syn3gen4fold4Fold16fold_expr_structB6_, symObjAddr: 0x8390, symBinAddr: 0x566B0, symSize: 0x30 }
  - { offset: 0xA60FA, size: 0x8, addend: 0x0, symName: __RNvYNtNvCs9jpTMRK2ijq_11yoke_derive16replace_lifetime15ReplaceLifetimeNtNtNtCsdGrGZaRBwMb_3syn3gen4fold4Fold16fold_expr_unsafeB6_, symObjAddr: 0x83C0, symBinAddr: 0x566E0, symSize: 0x30 }
  - { offset: 0xA6141, size: 0x8, addend: 0x0, symName: __RNvYNtNvCs9jpTMRK2ijq_11yoke_derive16replace_lifetime15ReplaceLifetimeNtNtNtCsdGrGZaRBwMb_3syn3gen4fold4Fold16fold_field_valueB6_, symObjAddr: 0x83F0, symBinAddr: 0x56710, symSize: 0x30 }
  - { offset: 0xA6188, size: 0x8, addend: 0x0, symName: __RNvYNtNvCs9jpTMRK2ijq_11yoke_derive16replace_lifetime15ReplaceLifetimeNtNtNtCsdGrGZaRBwMb_3syn3gen4fold4Fold16fold_item_staticB6_, symObjAddr: 0x8420, symBinAddr: 0x56740, symSize: 0x30 }
  - { offset: 0xA61CF, size: 0x8, addend: 0x0, symName: __RNvYNtNvCs9jpTMRK2ijq_11yoke_derive16replace_lifetime15ReplaceLifetimeNtNtNtCsdGrGZaRBwMb_3syn3gen4fold4Fold16fold_item_structB6_, symObjAddr: 0x8450, symBinAddr: 0x56770, symSize: 0x30 }
  - { offset: 0xA6216, size: 0x8, addend: 0x0, symName: __RNvYNtNvCs9jpTMRK2ijq_11yoke_derive16replace_lifetime15ReplaceLifetimeNtNtNtCsdGrGZaRBwMb_3syn3gen4fold4Fold16fold_return_typeB6_, symObjAddr: 0x8480, symBinAddr: 0x567A0, symSize: 0x30 }
  - { offset: 0xA625D, size: 0x8, addend: 0x0, symName: __RNvYNtNvCs9jpTMRK2ijq_11yoke_derive16replace_lifetime15ReplaceLifetimeNtNtNtCsdGrGZaRBwMb_3syn3gen4fold4Fold16fold_trait_boundB6_, symObjAddr: 0x84B0, symBinAddr: 0x567D0, symSize: 0x30 }
  - { offset: 0xA62A4, size: 0x8, addend: 0x0, symName: __RNvYNtNvCs9jpTMRK2ijq_11yoke_derive16replace_lifetime15ReplaceLifetimeNtNtNtCsdGrGZaRBwMb_3syn3gen4fold4Fold17fold_expr_closureB6_, symObjAddr: 0x84E0, symBinAddr: 0x56800, symSize: 0x30 }
  - { offset: 0xA62E8, size: 0x8, addend: 0x0, symName: __RNvYNtNvCs9jpTMRK2ijq_11yoke_derive16replace_lifetime15ReplaceLifetimeNtNtNtCsdGrGZaRBwMb_3syn3gen4fold4Fold17fold_fields_namedB6_, symObjAddr: 0x8510, symBinAddr: 0x56830, symSize: 0x30 }
  - { offset: 0xA632F, size: 0x8, addend: 0x0, symName: __RNvYNtNvCs9jpTMRK2ijq_11yoke_derive16replace_lifetime15ReplaceLifetimeNtNtNtCsdGrGZaRBwMb_3syn3gen4fold4Fold17fold_foreign_itemB6_, symObjAddr: 0x8540, symBinAddr: 0x56860, symSize: 0x30 }
  - { offset: 0xA6376, size: 0x8, addend: 0x0, symName: __RNvYNtNvCs9jpTMRK2ijq_11yoke_derive16replace_lifetime15ReplaceLifetimeNtNtNtCsdGrGZaRBwMb_3syn3gen4fold4Fold17fold_impl_item_fnB6_, symObjAddr: 0x8570, symBinAddr: 0x56890, symSize: 0x30 }
  - { offset: 0xA63BD, size: 0x8, addend: 0x0, symName: __RNvYNtNvCs9jpTMRK2ijq_11yoke_derive16replace_lifetime15ReplaceLifetimeNtNtNtCsdGrGZaRBwMb_3syn3gen4fold4Fold17fold_lit_byte_strB6_, symObjAddr: 0x85A0, symBinAddr: 0x568C0, symSize: 0x30 }
  - { offset: 0xA6403, size: 0x8, addend: 0x0, symName: __RNvYNtNvCs9jpTMRK2ijq_11yoke_derive16replace_lifetime15ReplaceLifetimeNtNtNtCsdGrGZaRBwMb_3syn3gen4fold4Fold17fold_path_segmentB6_, symObjAddr: 0x85D0, symBinAddr: 0x568F0, symSize: 0x30 }
  - { offset: 0xA644A, size: 0x8, addend: 0x0, symName: __RNvYNtNvCs9jpTMRK2ijq_11yoke_derive16replace_lifetime15ReplaceLifetimeNtNtNtCsdGrGZaRBwMb_3syn3gen4fold4Fold17fold_range_limitsB6_, symObjAddr: 0x8600, symBinAddr: 0x56920, symSize: 0x40 }
  - { offset: 0xA6491, size: 0x8, addend: 0x0, symName: __RNvYNtNvCs9jpTMRK2ijq_11yoke_derive16replace_lifetime15ReplaceLifetimeNtNtNtCsdGrGZaRBwMb_3syn3gen4fold4Fold17fold_token_streamB6_, symObjAddr: 0x8640, symBinAddr: 0x56960, symSize: 0x40 }
  - { offset: 0xA64D7, size: 0x8, addend: 0x0, symName: __RNvYNtNvCs9jpTMRK2ijq_11yoke_derive16replace_lifetime15ReplaceLifetimeNtNtNtCsdGrGZaRBwMb_3syn3gen4fold4Fold17fold_type_bare_fnB6_, symObjAddr: 0x8680, symBinAddr: 0x569A0, symSize: 0x30 }
  - { offset: 0xA651E, size: 0x8, addend: 0x0, symName: __RNvYNtNvCs9jpTMRK2ijq_11yoke_derive16replace_lifetime15ReplaceLifetimeNtNtNtCsdGrGZaRBwMb_3syn3gen4fold4Fold17fold_where_clauseB6_, symObjAddr: 0x86B0, symBinAddr: 0x569D0, symSize: 0x30 }
  - { offset: 0xA6565, size: 0x8, addend: 0x0, symName: __RNvYNtNvCs9jpTMRK2ijq_11yoke_derive16replace_lifetime15ReplaceLifetimeNtNtNtCsdGrGZaRBwMb_3syn3gen4fold4Fold18fold_bare_variadicB6_, symObjAddr: 0x86E0, symBinAddr: 0x56A00, symSize: 0x30 }
  - { offset: 0xA65A9, size: 0x8, addend: 0x0, symName: __RNvYNtNvCs9jpTMRK2ijq_11yoke_derive16replace_lifetime15ReplaceLifetimeNtNtNtCsdGrGZaRBwMb_3syn3gen4fold4Fold18fold_expr_continueB6_, symObjAddr: 0x8710, symBinAddr: 0x56A30, symSize: 0x30 }
  - { offset: 0xA65ED, size: 0x8, addend: 0x0, symName: __RNvYNtNvCs9jpTMRK2ijq_11yoke_derive16replace_lifetime15ReplaceLifetimeNtNtNtCsdGrGZaRBwMb_3syn3gen4fold4Fold18fold_expr_for_loopB6_, symObjAddr: 0x8740, symBinAddr: 0x56A60, symSize: 0x30 }
  - { offset: 0xA6631, size: 0x8, addend: 0x0, symName: __RNvYNtNvCs9jpTMRK2ijq_11yoke_derive16replace_lifetime15ReplaceLifetimeNtNtNtCsdGrGZaRBwMb_3syn3gen4fold4Fold18fold_expr_raw_addrB6_, symObjAddr: 0x8770, symBinAddr: 0x56A90, symSize: 0x30 }
  - { offset: 0xA6678, size: 0x8, addend: 0x0, symName: __RNvYNtNvCs9jpTMRK2ijq_11yoke_derive16replace_lifetime15ReplaceLifetimeNtNtNtCsdGrGZaRBwMb_3syn3gen4fold4Fold18fold_generic_paramB6_, symObjAddr: 0x87A0, symBinAddr: 0x56AC0, symSize: 0x30 }
  - { offset: 0xA66BF, size: 0x8, addend: 0x0, symName: __RNvYNtNvCs9jpTMRK2ijq_11yoke_derive16replace_lifetime15ReplaceLifetimeNtNtNtCsdGrGZaRBwMb_3syn3gen4fold4Fold18fold_pat_referenceB6_, symObjAddr: 0x87D0, symBinAddr: 0x56AF0, symSize: 0x30 }
  - { offset: 0xA6706, size: 0x8, addend: 0x0, symName: __RNvYNtNvCs9jpTMRK2ijq_11yoke_derive16replace_lifetime15ReplaceLifetimeNtNtNtCsdGrGZaRBwMb_3syn3gen4fold4Fold18fold_trait_item_fnB6_, symObjAddr: 0x8800, symBinAddr: 0x56B20, symSize: 0x30 }
  - { offset: 0xA674D, size: 0x8, addend: 0x0, symName: __RNvYNtNvCs9jpTMRK2ijq_11yoke_derive16replace_lifetime15ReplaceLifetimeNtNtNtCsdGrGZaRBwMb_3syn3gen4fold4Fold19fold_captured_paramB6_, symObjAddr: 0x8830, symBinAddr: 0x56B50, symSize: 0x30 }
  - { offset: 0xA6791, size: 0x8, addend: 0x0, symName: __RNvYNtNvCs9jpTMRK2ijq_11yoke_derive16replace_lifetime15ReplaceLifetimeNtNtNtCsdGrGZaRBwMb_3syn3gen4fold4Fold19fold_expr_referenceB6_, symObjAddr: 0x8860, symBinAddr: 0x56B80, symSize: 0x30 }
  - { offset: 0xA67D8, size: 0x8, addend: 0x0, symName: __RNvYNtNvCs9jpTMRK2ijq_11yoke_derive16replace_lifetime15ReplaceLifetimeNtNtNtCsdGrGZaRBwMb_3syn3gen4fold4Fold19fold_expr_try_blockB6_, symObjAddr: 0x8890, symBinAddr: 0x56BB0, symSize: 0x30 }
  - { offset: 0xA681F, size: 0x8, addend: 0x0, symName: __RNvYNtNvCs9jpTMRK2ijq_11yoke_derive16replace_lifetime15ReplaceLifetimeNtNtNtCsdGrGZaRBwMb_3syn3gen4fold4Fold19fold_fields_unnamedB6_, symObjAddr: 0x88C0, symBinAddr: 0x56BE0, symSize: 0x30 }
  - { offset: 0xA6866, size: 0x8, addend: 0x0, symName: __RNvYNtNvCs9jpTMRK2ijq_11yoke_derive16replace_lifetime15ReplaceLifetimeNtNtNtCsdGrGZaRBwMb_3syn3gen4fold4Fold19fold_impl_item_typeB6_, symObjAddr: 0x88F0, symBinAddr: 0x56C10, symSize: 0x30 }
  - { offset: 0xA68AD, size: 0x8, addend: 0x0, symName: __RNvYNtNvCs9jpTMRK2ijq_11yoke_derive16replace_lifetime15ReplaceLifetimeNtNtNtCsdGrGZaRBwMb_3syn3gen4fold4Fold19fold_lifetime_paramB6_, symObjAddr: 0x8920, symBinAddr: 0x56C40, symSize: 0x30 }
  - { offset: 0xA68F4, size: 0x8, addend: 0x0, symName: __RNvYNtNvCs9jpTMRK2ijq_11yoke_derive16replace_lifetime15ReplaceLifetimeNtNtNtCsdGrGZaRBwMb_3syn3gen4fold4Fold19fold_path_argumentsB6_, symObjAddr: 0x8950, symBinAddr: 0x56C70, symSize: 0x30 }
  - { offset: 0xA693B, size: 0x8, addend: 0x0, symName: __RNvYNtNvCs9jpTMRK2ijq_11yoke_derive16replace_lifetime15ReplaceLifetimeNtNtNtCsdGrGZaRBwMb_3syn3gen4fold4Fold19fold_predicate_typeB6_, symObjAddr: 0x8980, symBinAddr: 0x56CA0, symSize: 0x30 }
  - { offset: 0xA6982, size: 0x8, addend: 0x0, symName: __RNvYNtNvCs9jpTMRK2ijq_11yoke_derive16replace_lifetime15ReplaceLifetimeNtNtNtCsdGrGZaRBwMb_3syn3gen4fold4Fold19fold_type_referenceB6_, symObjAddr: 0x89B0, symBinAddr: 0x56CD0, symSize: 0x30 }
  - { offset: 0xA69C9, size: 0x8, addend: 0x0, symName: __RNvYNtNvCs9jpTMRK2ijq_11yoke_derive16replace_lifetime15ReplaceLifetimeNtNtNtCsdGrGZaRBwMb_3syn3gen4fold4Fold19fold_vis_restrictedB6_, symObjAddr: 0x89E0, symBinAddr: 0x56D00, symSize: 0x30 }
  - { offset: 0xA6A10, size: 0x8, addend: 0x0, symName: __RNvYNtNvCs9jpTMRK2ijq_11yoke_derive16replace_lifetime15ReplaceLifetimeNtNtNtCsdGrGZaRBwMb_3syn3gen4fold4Fold20fold_bound_lifetimesB6_, symObjAddr: 0x8A10, symBinAddr: 0x56D30, symSize: 0x30 }
  - { offset: 0xA6A54, size: 0x8, addend: 0x0, symName: __RNvYNtNvCs9jpTMRK2ijq_11yoke_derive16replace_lifetime15ReplaceLifetimeNtNtNtCsdGrGZaRBwMb_3syn3gen4fold4Fold20fold_foreign_item_fnB6_, symObjAddr: 0x8A40, symBinAddr: 0x56D60, symSize: 0x30 }
  - { offset: 0xA6A9B, size: 0x8, addend: 0x0, symName: __RNvYNtNvCs9jpTMRK2ijq_11yoke_derive16replace_lifetime15ReplaceLifetimeNtNtNtCsdGrGZaRBwMb_3syn3gen4fold4Fold20fold_impl_item_constB6_, symObjAddr: 0x8A70, symBinAddr: 0x56D90, symSize: 0x30 }
  - { offset: 0xA6AE2, size: 0x8, addend: 0x0, symName: __RNvYNtNvCs9jpTMRK2ijq_11yoke_derive16replace_lifetime15ReplaceLifetimeNtNtNtCsdGrGZaRBwMb_3syn3gen4fold4Fold20fold_impl_item_macroB6_, symObjAddr: 0x8AA0, symBinAddr: 0x56DC0, symSize: 0x30 }
  - { offset: 0xA6B29, size: 0x8, addend: 0x0, symName: __RNvYNtNvCs9jpTMRK2ijq_11yoke_derive16replace_lifetime15ReplaceLifetimeNtNtNtCsdGrGZaRBwMb_3syn3gen4fold4Fold20fold_macro_delimiterB6_, symObjAddr: 0x8AD0, symBinAddr: 0x56DF0, symSize: 0x30 }
  - { offset: 0xA6B70, size: 0x8, addend: 0x0, symName: __RNvYNtNvCs9jpTMRK2ijq_11yoke_derive16replace_lifetime15ReplaceLifetimeNtNtNtCsdGrGZaRBwMb_3syn3gen4fold4Fold20fold_meta_name_valueB6_, symObjAddr: 0x8B00, symBinAddr: 0x56E20, symSize: 0x30 }
  - { offset: 0xA6BB7, size: 0x8, addend: 0x0, symName: __RNvYNtNvCs9jpTMRK2ijq_11yoke_derive16replace_lifetime15ReplaceLifetimeNtNtNtCsdGrGZaRBwMb_3syn3gen4fold4Fold20fold_precise_captureB6_, symObjAddr: 0x8B30, symBinAddr: 0x56E50, symSize: 0x30 }
  - { offset: 0xA6BFE, size: 0x8, addend: 0x0, symName: __RNvYNtNvCs9jpTMRK2ijq_11yoke_derive16replace_lifetime15ReplaceLifetimeNtNtNtCsdGrGZaRBwMb_3syn3gen4fold4Fold20fold_trait_item_typeB6_, symObjAddr: 0x8B60, symBinAddr: 0x56E80, symSize: 0x30 }
  - { offset: 0xA6C45, size: 0x8, addend: 0x0, symName: __RNvYNtNvCs9jpTMRK2ijq_11yoke_derive16replace_lifetime15ReplaceLifetimeNtNtNtCsdGrGZaRBwMb_3syn3gen4fold4Fold20fold_type_impl_traitB6_, symObjAddr: 0x8B90, symBinAddr: 0x56EB0, symSize: 0x30 }
  - { offset: 0xA6C8C, size: 0x8, addend: 0x0, symName: __RNvYNtNvCs9jpTMRK2ijq_11yoke_derive16replace_lifetime15ReplaceLifetimeNtNtNtCsdGrGZaRBwMb_3syn3gen4fold4Fold20fold_where_predicateB6_, symObjAddr: 0x8BC0, symBinAddr: 0x56EE0, symSize: 0x30 }
  - { offset: 0xA6CD3, size: 0x8, addend: 0x0, symName: __RNvYNtNvCs9jpTMRK2ijq_11yoke_derive16replace_lifetime15ReplaceLifetimeNtNtNtCsdGrGZaRBwMb_3syn3gen4fold4Fold21fold_expr_method_callB6_, symObjAddr: 0x8BF0, symBinAddr: 0x56F10, symSize: 0x30 }
  - { offset: 0xA6D1A, size: 0x8, addend: 0x0, symName: __RNvYNtNvCs9jpTMRK2ijq_11yoke_derive16replace_lifetime15ReplaceLifetimeNtNtNtCsdGrGZaRBwMb_3syn3gen4fold4Fold21fold_field_mutabilityB6_, symObjAddr: 0x8C20, symBinAddr: 0x56F40, symSize: 0x20 }
  - { offset: 0xA6D68, size: 0x8, addend: 0x0, symName: __RNvYNtNvCs9jpTMRK2ijq_11yoke_derive16replace_lifetime15ReplaceLifetimeNtNtNtCsdGrGZaRBwMb_3syn3gen4fold4Fold21fold_generic_argumentB6_, symObjAddr: 0x8C40, symBinAddr: 0x56F60, symSize: 0x30 }
  - { offset: 0xA6DAF, size: 0x8, addend: 0x0, symName: __RNvYNtNvCs9jpTMRK2ijq_11yoke_derive16replace_lifetime15ReplaceLifetimeNtNtNtCsdGrGZaRBwMb_3syn3gen4fold4Fold21fold_item_foreign_modB6_, symObjAddr: 0x8C90, symBinAddr: 0x56F90, symSize: 0x30 }
  - { offset: 0xA6DF6, size: 0x8, addend: 0x0, symName: __RNvYNtNvCs9jpTMRK2ijq_11yoke_derive16replace_lifetime15ReplaceLifetimeNtNtNtCsdGrGZaRBwMb_3syn3gen4fold4Fold21fold_item_trait_aliasB6_, symObjAddr: 0x8CC0, symBinAddr: 0x56FC0, symSize: 0x30 }
  - { offset: 0xA6E3D, size: 0x8, addend: 0x0, symName: __RNvYNtNvCs9jpTMRK2ijq_11yoke_derive16replace_lifetime15ReplaceLifetimeNtNtNtCsdGrGZaRBwMb_3syn3gen4fold4Fold21fold_pat_tuple_structB6_, symObjAddr: 0x8CF0, symBinAddr: 0x56FF0, symSize: 0x30 }
  - { offset: 0xA6E84, size: 0x8, addend: 0x0, symName: __RNvYNtNvCs9jpTMRK2ijq_11yoke_derive16replace_lifetime15ReplaceLifetimeNtNtNtCsdGrGZaRBwMb_3syn3gen4fold4Fold21fold_trait_item_constB6_, symObjAddr: 0x8D20, symBinAddr: 0x57020, symSize: 0x30 }
  - { offset: 0xA6ECB, size: 0x8, addend: 0x0, symName: __RNvYNtNvCs9jpTMRK2ijq_11yoke_derive16replace_lifetime15ReplaceLifetimeNtNtNtCsdGrGZaRBwMb_3syn3gen4fold4Fold21fold_trait_item_macroB6_, symObjAddr: 0x8D50, symBinAddr: 0x57050, symSize: 0x30 }
  - { offset: 0xA6F12, size: 0x8, addend: 0x0, symName: __RNvYNtNvCs9jpTMRK2ijq_11yoke_derive16replace_lifetime15ReplaceLifetimeNtNtNtCsdGrGZaRBwMb_3syn3gen4fold4Fold21fold_type_param_boundB6_, symObjAddr: 0x8D80, symBinAddr: 0x57080, symSize: 0x30 }
  - { offset: 0xA6F59, size: 0x8, addend: 0x0, symName: __RNvYNtNvCs9jpTMRK2ijq_11yoke_derive16replace_lifetime15ReplaceLifetimeNtNtNtCsdGrGZaRBwMb_3syn3gen4fold4Fold22fold_foreign_item_typeB6_, symObjAddr: 0x8DB0, symBinAddr: 0x570B0, symSize: 0x30 }
  - { offset: 0xA6FA0, size: 0x8, addend: 0x0, symName: __RNvYNtNvCs9jpTMRK2ijq_11yoke_derive16replace_lifetime15ReplaceLifetimeNtNtNtCsdGrGZaRBwMb_3syn3gen4fold4Fold22fold_item_extern_crateB6_, symObjAddr: 0x8DE0, symBinAddr: 0x570E0, symSize: 0x30 }
  - { offset: 0xA6FE7, size: 0x8, addend: 0x0, symName: __RNvYNtNvCs9jpTMRK2ijq_11yoke_derive16replace_lifetime15ReplaceLifetimeNtNtNtCsdGrGZaRBwMb_3syn3gen4fold4Fold22fold_static_mutabilityB6_, symObjAddr: 0x8E10, symBinAddr: 0x57110, symSize: 0x30 }
  - { offset: 0xA702D, size: 0x8, addend: 0x0, symName: __RNvYNtNvCs9jpTMRK2ijq_11yoke_derive16replace_lifetime15ReplaceLifetimeNtNtNtCsdGrGZaRBwMb_3syn3gen4fold4Fold22fold_type_trait_objectB6_, symObjAddr: 0x8E40, symBinAddr: 0x57140, symSize: 0x30 }
  - { offset: 0xA7074, size: 0x8, addend: 0x0, symName: __RNvYNtNvCs9jpTMRK2ijq_11yoke_derive16replace_lifetime15ReplaceLifetimeNtNtNtCsdGrGZaRBwMb_3syn3gen4fold4Fold23fold_foreign_item_macroB6_, symObjAddr: 0x8E70, symBinAddr: 0x57170, symSize: 0x30 }
  - { offset: 0xA70BB, size: 0x8, addend: 0x0, symName: __RNvYNtNvCs9jpTMRK2ijq_11yoke_derive16replace_lifetime15ReplaceLifetimeNtNtNtCsdGrGZaRBwMb_3syn3gen4fold4Fold23fold_pointer_mutabilityB6_, symObjAddr: 0x8EA0, symBinAddr: 0x571A0, symSize: 0x30 }
  - { offset: 0xA7101, size: 0x8, addend: 0x0, symName: __RNvYNtNvCs9jpTMRK2ijq_11yoke_derive16replace_lifetime15ReplaceLifetimeNtNtNtCsdGrGZaRBwMb_3syn3gen4fold4Fold23fold_predicate_lifetimeB6_, symObjAddr: 0x8ED0, symBinAddr: 0x571D0, symSize: 0x30 }
  - { offset: 0xA7148, size: 0x8, addend: 0x0, symName: __RNvYNtNvCs9jpTMRK2ijq_11yoke_derive16replace_lifetime15ReplaceLifetimeNtNtNtCsdGrGZaRBwMb_3syn3gen4fold4Fold24fold_foreign_item_staticB6_, symObjAddr: 0x8F00, symBinAddr: 0x57200, symSize: 0x30 }
  - { offset: 0xA718F, size: 0x8, addend: 0x0, symName: __RNvYNtNvCs9jpTMRK2ijq_11yoke_derive16replace_lifetime15ReplaceLifetimeNtNtNtCsdGrGZaRBwMb_3syn3gen4fold4Fold25fold_trait_bound_modifierB6_, symObjAddr: 0x8F30, symBinAddr: 0x57230, symSize: 0x50 }
  - { offset: 0xA71D5, size: 0x8, addend: 0x0, symName: __RNvYNtNvCs9jpTMRK2ijq_11yoke_derive16replace_lifetime15ReplaceLifetimeNtNtNtCsdGrGZaRBwMb_3syn3gen4fold4Fold36fold_parenthesized_generic_argumentsB6_, symObjAddr: 0x8F80, symBinAddr: 0x57280, symSize: 0x30 }
  - { offset: 0xA721C, size: 0x8, addend: 0x0, symName: __RNvYNtNvCs9jpTMRK2ijq_11yoke_derive16replace_lifetime15ReplaceLifetimeNtNtNtCsdGrGZaRBwMb_3syn3gen4fold4Fold38fold_angle_bracketed_generic_argumentsB6_, symObjAddr: 0x8FB0, symBinAddr: 0x572B0, symSize: 0x30 }
  - { offset: 0xA7260, size: 0x8, addend: 0x0, symName: __RNvYNtNvCs9jpTMRK2ijq_11yoke_derive16replace_lifetime15ReplaceLifetimeNtNtNtCsdGrGZaRBwMb_3syn3gen4fold4Fold8fold_abiB6_, symObjAddr: 0x8FE0, symBinAddr: 0x572E0, symSize: 0x30 }
  - { offset: 0xA72A3, size: 0x8, addend: 0x0, symName: __RNvYNtNvCs9jpTMRK2ijq_11yoke_derive16replace_lifetime15ReplaceLifetimeNtNtNtCsdGrGZaRBwMb_3syn3gen4fold4Fold8fold_armB6_, symObjAddr: 0x9010, symBinAddr: 0x57310, symSize: 0x30 }
  - { offset: 0xA72E7, size: 0x8, addend: 0x0, symName: __RNvYNtNvCs9jpTMRK2ijq_11yoke_derive16replace_lifetime15ReplaceLifetimeNtNtNtCsdGrGZaRBwMb_3syn3gen4fold4Fold8fold_litB6_, symObjAddr: 0x9040, symBinAddr: 0x57340, symSize: 0x30 }
  - { offset: 0xA732E, size: 0x8, addend: 0x0, symName: __RNvYNtNvCs9jpTMRK2ijq_11yoke_derive16replace_lifetime15ReplaceLifetimeNtNtNtCsdGrGZaRBwMb_3syn3gen4fold4Fold8fold_patB6_, symObjAddr: 0x9070, symBinAddr: 0x57370, symSize: 0x30 }
  - { offset: 0xA7375, size: 0x8, addend: 0x0, symName: __RNvYNtNvCs9jpTMRK2ijq_11yoke_derive16replace_lifetime15ReplaceLifetimeNtNtNtCsdGrGZaRBwMb_3syn3gen4fold4Fold9fold_exprB6_, symObjAddr: 0x90A0, symBinAddr: 0x573A0, symSize: 0x30 }
  - { offset: 0xA73B9, size: 0x8, addend: 0x0, symName: __RNvYNtNvCs9jpTMRK2ijq_11yoke_derive16replace_lifetime15ReplaceLifetimeNtNtNtCsdGrGZaRBwMb_3syn3gen4fold4Fold9fold_itemB6_, symObjAddr: 0x90D0, symBinAddr: 0x573D0, symSize: 0x30 }
  - { offset: 0xA7400, size: 0x8, addend: 0x0, symName: __RNvYNtNvCs9jpTMRK2ijq_11yoke_derive16replace_lifetime15ReplaceLifetimeNtNtNtCsdGrGZaRBwMb_3syn3gen4fold4Fold9fold_metaB6_, symObjAddr: 0x9100, symBinAddr: 0x57400, symSize: 0x30 }
  - { offset: 0xA7447, size: 0x8, addend: 0x0, symName: __RNvYNtNvCs9jpTMRK2ijq_11yoke_derive16replace_lifetime15ReplaceLifetimeNtNtNtCsdGrGZaRBwMb_3syn3gen4fold4Fold9fold_pathB6_, symObjAddr: 0x9130, symBinAddr: 0x57430, symSize: 0x30 }
  - { offset: 0xA748E, size: 0x8, addend: 0x0, symName: __RNvYNtNvCs9jpTMRK2ijq_11yoke_derive16replace_lifetime15ReplaceLifetimeNtNtNtCsdGrGZaRBwMb_3syn3gen4fold4Fold9fold_spanB6_, symObjAddr: 0x9160, symBinAddr: 0x57460, symSize: 0x20 }
  - { offset: 0xA74D4, size: 0x8, addend: 0x0, symName: __RNvYNtNvCs9jpTMRK2ijq_11yoke_derive16replace_lifetime15ReplaceLifetimeNtNtNtCsdGrGZaRBwMb_3syn3gen4fold4Fold9fold_stmtB6_, symObjAddr: 0x9180, symBinAddr: 0x57480, symSize: 0x30 }
  - { offset: 0xA751B, size: 0x8, addend: 0x0, symName: __RNvYNtNvCs9jpTMRK2ijq_11yoke_derive16replace_lifetime15ReplaceLifetimeNtNtNtCsdGrGZaRBwMb_3syn3gen4fold4Fold9fold_typeB6_, symObjAddr: 0x91B0, symBinAddr: 0x574B0, symSize: 0x30 }
  - { offset: 0xACCC9, size: 0x8, addend: 0x0, symName: __RINvMs6_NtCsjK30CmJ87bX_9hashbrown3rawINtB6_8RawTableTNtCsaKzlTDPUHDb_11proc_macro25IdentuEE14reserve_rehashNCINvNtB8_3map11make_hasherBQ_uNtNtNtCsHUR1vrdMJt_3std4hash6random11RandomStateE0ECs9jpTMRK2ijq_11yoke_derive, symObjAddr: 0x0, symBinAddr: 0x209640, symSize: 0xD70 }
  - { offset: 0xACD05, size: 0x8, addend: 0x0, symName: __RNCINvMs6_NtCsjK30CmJ87bX_9hashbrown3rawINtB8_8RawTableTNtCsaKzlTDPUHDb_11proc_macro25IdentuEE14reserve_rehashNCINvNtBa_3map11make_hasherBS_uNtNtNtCsHUR1vrdMJt_3std4hash6random11RandomStateE0E0Cs9jpTMRK2ijq_11yoke_derive, symObjAddr: 0x1940, symBinAddr: 0x580B0, symSize: 0xB0 }
  - { offset: 0xACECB, size: 0x8, addend: 0x0, symName: __RNCINvMs6_NtCsjK30CmJ87bX_9hashbrown3rawINtB8_8RawTableTNtCsaKzlTDPUHDb_11proc_macro25IdentuEE14reserve_rehashNCINvNtBa_3map11make_hasherBS_uNtNtNtCsHUR1vrdMJt_3std4hash6random11RandomStateE0Es_0Cs9jpTMRK2ijq_11yoke_derive, symObjAddr: 0x19F0, symBinAddr: 0x58160, symSize: 0x30 }
  - { offset: 0xACF28, size: 0x8, addend: 0x0, symName: __RNCINvMs6_NtCsjK30CmJ87bX_9hashbrown3rawINtB8_8RawTableTNtCsaKzlTDPUHDb_11proc_macro25IdentuEE24find_or_find_insert_slotNCINvNtBa_3map14equivalent_keyBS_BS_uE0NCINvB1Z_11make_hasherBS_uNtNtNtCsHUR1vrdMJt_3std4hash6random11RandomStateE0E0Cs9jpTMRK2ijq_11yoke_derive, symObjAddr: 0x1A20, symBinAddr: 0x58190, symSize: 0xB0 }
  - { offset: 0xAD104, size: 0x8, addend: 0x0, symName: __RNCINvMs6_NtCsjK30CmJ87bX_9hashbrown3rawINtB8_8RawTableTNtCsaKzlTDPUHDb_11proc_macro25IdentuEE4findNCINvNtBa_3map14equivalent_keyBS_BS_uE0E0Cs9jpTMRK2ijq_11yoke_derive, symObjAddr: 0x1AD0, symBinAddr: 0x58240, symSize: 0xB0 }
  - { offset: 0xADC35, size: 0x8, addend: 0x0, symName: __RNvXsg_NtCsjK30CmJ87bX_9hashbrown3rawINtB5_8RawTableTNtCsaKzlTDPUHDb_11proc_macro25IdentuEENtNtNtCsieiGu2EXtoJ_4core3ops4drop4Drop4dropCs9jpTMRK2ijq_11yoke_derive, symObjAddr: 0x3210, symBinAddr: 0x59980, symSize: 0x30 }
  - { offset: 0xB0E7A, size: 0x8, addend: 0x0, symName: __RINvMs6_NtCsjK30CmJ87bX_9hashbrown3rawINtB6_8RawTableTNtCsaKzlTDPUHDb_11proc_macro25IdentuEE14reserve_rehashNCINvNtB8_3map11make_hasherBQ_uNtNtNtCsHUR1vrdMJt_3std4hash6random11RandomStateE0ECs9jpTMRK2ijq_11yoke_derive, symObjAddr: 0x0, symBinAddr: 0x209640, symSize: 0xD70 }
  - { offset: 0xB194D, size: 0x8, addend: 0x0, symName: __RINvMs6_NtCsjK30CmJ87bX_9hashbrown3rawINtB6_8RawTableTNtCsaKzlTDPUHDb_11proc_macro25IdentuEE24find_or_find_insert_slotNCINvNtB8_3map14equivalent_keyBQ_BQ_uE0NCINvB1X_11make_hasherBQ_uNtNtNtCsHUR1vrdMJt_3std4hash6random11RandomStateE0ECs9jpTMRK2ijq_11yoke_derive, symObjAddr: 0xD70, symBinAddr: 0x574E0, symSize: 0x160 }
  - { offset: 0xB1E17, size: 0x8, addend: 0x0, symName: __RINvMs6_NtCsjK30CmJ87bX_9hashbrown3rawINtB6_8RawTableTNtCsaKzlTDPUHDb_11proc_macro25IdentuEE4findNCINvNtB8_3map14equivalent_keyBQ_BQ_uE0ECs9jpTMRK2ijq_11yoke_derive, symObjAddr: 0xED0, symBinAddr: 0x57640, symSize: 0x480 }
  - { offset: 0xB2330, size: 0x8, addend: 0x0, symName: __RINvMs6_NtCsjK30CmJ87bX_9hashbrown3rawINtB6_8RawTableTNtCsaKzlTDPUHDb_11proc_macro25IdentuEE7reserveNCINvNtB8_3map11make_hasherBQ_uNtNtNtCsHUR1vrdMJt_3std4hash6random11RandomStateE0ECs9jpTMRK2ijq_11yoke_derive, symObjAddr: 0x1350, symBinAddr: 0x57AC0, symSize: 0xC0 }
  - { offset: 0xB2522, size: 0x8, addend: 0x0, symName: __RINvMsa_NtCsjK30CmJ87bX_9hashbrown3rawNtB6_13RawTableInner13drop_elementsTNtCsaKzlTDPUHDb_11proc_macro25IdentuEECs9jpTMRK2ijq_11yoke_derive, symObjAddr: 0x1410, symBinAddr: 0x57B80, symSize: 0x1D0 }
  - { offset: 0xB2885, size: 0x8, addend: 0x0, symName: __RINvMsa_NtCsjK30CmJ87bX_9hashbrown3rawNtB6_13RawTableInner16drop_inner_tableTNtCsaKzlTDPUHDb_11proc_macro25IdentuENtNtCslJiobkLta79_5alloc5alloc6GlobalECs9jpTMRK2ijq_11yoke_derive, symObjAddr: 0x15E0, symBinAddr: 0x57D50, symSize: 0xD0 }
  - { offset: 0xB2B8B, size: 0x8, addend: 0x0, symName: __RINvMsi_NtCsjK30CmJ87bX_9hashbrown3rawINtB6_12RawIterRangeTNtCsaKzlTDPUHDb_11proc_macro25IdentuEE9next_implKb0_ECs9jpTMRK2ijq_11yoke_derive, symObjAddr: 0x16B0, symBinAddr: 0x57E20, symSize: 0x290 }
  - { offset: 0xB3314, size: 0x8, addend: 0x0, symName: __RNvMs1_NtCsjK30CmJ87bX_9hashbrown3rawNtB5_11TableLayout20calculate_layout_forCs9jpTMRK2ijq_11yoke_derive, symObjAddr: 0x1B80, symBinAddr: 0x582F0, symSize: 0x2F0 }
  - { offset: 0xB37B7, size: 0x8, addend: 0x0, symName: __RNvMs6_NtCsjK30CmJ87bX_9hashbrown3rawINtB5_8RawTableTNtCsaKzlTDPUHDb_11proc_macro25IdentuEE14insert_in_slotCs9jpTMRK2ijq_11yoke_derive, symObjAddr: 0x1E70, symBinAddr: 0x585E0, symSize: 0x150 }
  - { offset: 0xB3C57, size: 0x8, addend: 0x0, symName: __RNvMsa_NtCsjK30CmJ87bX_9hashbrown3rawNtB5_13RawTableInner15fix_insert_slotCs9jpTMRK2ijq_11yoke_derive, symObjAddr: 0x1FC0, symBinAddr: 0x58730, symSize: 0x140 }
  - { offset: 0xB400A, size: 0x8, addend: 0x0, symName: __RNvMsa_NtCsjK30CmJ87bX_9hashbrown3rawNtB5_13RawTableInner15rehash_in_placeCs9jpTMRK2ijq_11yoke_derive, symObjAddr: 0x2100, symBinAddr: 0x58870, symSize: 0x5B0 }
  - { offset: 0xB47D6, size: 0x8, addend: 0x0, symName: __RNvMsa_NtCsjK30CmJ87bX_9hashbrown3rawNtB5_13RawTableInner16find_insert_slotCs9jpTMRK2ijq_11yoke_derive, symObjAddr: 0x26B0, symBinAddr: 0x58E20, symSize: 0x130 }
  - { offset: 0xB49D5, size: 0x8, addend: 0x0, symName: __RNvMsa_NtCsjK30CmJ87bX_9hashbrown3rawNtB5_13RawTableInner19prepare_insert_slotCs9jpTMRK2ijq_11yoke_derive, symObjAddr: 0x27E0, symBinAddr: 0x58F50, symSize: 0x60 }
  - { offset: 0xB4CC6, size: 0x8, addend: 0x0, symName: __RNvMsa_NtCsjK30CmJ87bX_9hashbrown3rawNtB5_13RawTableInner23prepare_rehash_in_placeCs9jpTMRK2ijq_11yoke_derive, symObjAddr: 0x2840, symBinAddr: 0x58FB0, symSize: 0x340 }
  - { offset: 0xB53ED, size: 0x8, addend: 0x0, symName: __RNvMsa_NtCsjK30CmJ87bX_9hashbrown3rawNtB5_13RawTableInner25find_insert_slot_in_groupCs9jpTMRK2ijq_11yoke_derive, symObjAddr: 0x2B80, symBinAddr: 0x592F0, symSize: 0x160 }
  - { offset: 0xB56EB, size: 0x8, addend: 0x0, symName: __RNvMsa_NtCsjK30CmJ87bX_9hashbrown3rawNtB5_13RawTableInner30find_or_find_insert_slot_innerCs9jpTMRK2ijq_11yoke_derive, symObjAddr: 0x2CE0, symBinAddr: 0x59450, symSize: 0x410 }
  - { offset: 0xB5B7A, size: 0x8, addend: 0x0, symName: __RNvMsi_NtCsjK30CmJ87bX_9hashbrown3rawINtB5_12RawIterRangeTNtCsaKzlTDPUHDb_11proc_macro25IdentuEE3newCs9jpTMRK2ijq_11yoke_derive, symObjAddr: 0x30F0, symBinAddr: 0x59860, symSize: 0x120 }
  - { offset: 0xB5E40, size: 0x8, addend: 0x0, symName: __RINvNtNtCslJiobkLta79_5alloc3vec16in_place_collect18from_iter_in_placeINtNtNtNtCsieiGu2EXtoJ_4core4iter8adapters3map3MapINtNtB4_9into_iter8IntoIterNtNtCsdGrGZaRBwMb_3syn4attr9AttributeENCINvNtNtB2p_3gen4fold8fold_vecB2l_NtNvCs9jpTMRK2ijq_11yoke_derive16replace_lifetime15ReplaceLifetimeNvYB3w_NtB32_4Fold14fold_attributeE0EB2l_EB3A_, symObjAddr: 0x0, symBinAddr: 0x599B0, symSize: 0x350 }
  - { offset: 0xB97F0, size: 0x8, addend: 0x0, symName: __RINvNtNtCslJiobkLta79_5alloc3vec16in_place_collect18from_iter_in_placeINtNtNtNtCsieiGu2EXtoJ_4core4iter8adapters3map3MapINtNtB4_9into_iter8IntoIterNtNtCsdGrGZaRBwMb_3syn4attr9AttributeENCINvNtNtB2p_3gen4fold8fold_vecB2l_NtNvCs9jpTMRK2ijq_11yoke_derive16replace_lifetime15ReplaceLifetimeNvYB3w_NtB32_4Fold14fold_attributeE0EB2l_EB3A_, symObjAddr: 0x0, symBinAddr: 0x599B0, symSize: 0x350 }
  - { offset: 0xB9C82, size: 0x8, addend: 0x0, symName: __RINvNtNtCslJiobkLta79_5alloc3vec16in_place_collect18from_iter_in_placeINtNtNtNtCsieiGu2EXtoJ_4core4iter8adapters3map3MapINtNtB4_9into_iter8IntoIterNtNtCsdGrGZaRBwMb_3syn4expr3ArmENCINvNtNtB2p_3gen4fold8fold_vecB2l_NtNvCs9jpTMRK2ijq_11yoke_derive16replace_lifetime15ReplaceLifetimeNvYB3q_NtB2W_4Fold8fold_armE0EB2l_EB3u_, symObjAddr: 0x350, symBinAddr: 0x59D00, symSize: 0x360 }
  - { offset: 0xBA114, size: 0x8, addend: 0x0, symName: __RINvNtNtCslJiobkLta79_5alloc3vec16in_place_collect18from_iter_in_placeINtNtNtNtCsieiGu2EXtoJ_4core4iter8adapters3map3MapINtNtB4_9into_iter8IntoIterNtNtCsdGrGZaRBwMb_3syn4item11ForeignItemENCINvNtNtB2p_3gen4fold8fold_vecB2l_NtNvCs9jpTMRK2ijq_11yoke_derive16replace_lifetime15ReplaceLifetimeNvYB3z_NtB35_4Fold17fold_foreign_itemE0EB2l_EB3D_, symObjAddr: 0x6B0, symBinAddr: 0x5A060, symSize: 0x360 }
  - { offset: 0xBA5A6, size: 0x8, addend: 0x0, symName: __RINvNtNtCslJiobkLta79_5alloc3vec16in_place_collect18from_iter_in_placeINtNtNtNtCsieiGu2EXtoJ_4core4iter8adapters3map3MapINtNtB4_9into_iter8IntoIterNtNtCsdGrGZaRBwMb_3syn4item4ItemENCINvNtNtB2p_3gen4fold8fold_vecB2l_NtNvCs9jpTMRK2ijq_11yoke_derive16replace_lifetime15ReplaceLifetimeNvYB3r_NtB2X_4Fold9fold_itemE0EB2l_EB3v_, symObjAddr: 0xA10, symBinAddr: 0x5A3C0, symSize: 0x360 }
  - { offset: 0xBAA38, size: 0x8, addend: 0x0, symName: __RINvNtNtCslJiobkLta79_5alloc3vec16in_place_collect18from_iter_in_placeINtNtNtNtCsieiGu2EXtoJ_4core4iter8adapters3map3MapINtNtB4_9into_iter8IntoIterNtNtCsdGrGZaRBwMb_3syn4item8ImplItemENCINvNtNtB2p_3gen4fold8fold_vecB2l_NtNvCs9jpTMRK2ijq_11yoke_derive16replace_lifetime15ReplaceLifetimeNvYB3v_NtB31_4Fold14fold_impl_itemE0EB2l_EB3z_, symObjAddr: 0xD70, symBinAddr: 0x5A720, symSize: 0x360 }
  - { offset: 0xBAECA, size: 0x8, addend: 0x0, symName: __RINvNtNtCslJiobkLta79_5alloc3vec16in_place_collect18from_iter_in_placeINtNtNtNtCsieiGu2EXtoJ_4core4iter8adapters3map3MapINtNtB4_9into_iter8IntoIterNtNtCsdGrGZaRBwMb_3syn4item9TraitItemENCINvNtNtB2p_3gen4fold8fold_vecB2l_NtNvCs9jpTMRK2ijq_11yoke_derive16replace_lifetime15ReplaceLifetimeNvYB3w_NtB32_4Fold15fold_trait_itemE0EB2l_EB3A_, symObjAddr: 0x10D0, symBinAddr: 0x5AA80, symSize: 0x360 }
  - { offset: 0xBB35C, size: 0x8, addend: 0x0, symName: __RINvNtNtCslJiobkLta79_5alloc3vec16in_place_collect18from_iter_in_placeINtNtNtNtCsieiGu2EXtoJ_4core4iter8adapters3map3MapINtNtB4_9into_iter8IntoIterNtNtCsdGrGZaRBwMb_3syn4stmt4StmtENCINvNtNtB2p_3gen4fold8fold_vecB2l_NtNvCs9jpTMRK2ijq_11yoke_derive16replace_lifetime15ReplaceLifetimeNvYB3r_NtB2X_4Fold9fold_stmtE0EB2l_EB3v_, symObjAddr: 0x1430, symBinAddr: 0x5ADE0, symSize: 0x360 }
  - { offset: 0xBB7BA, size: 0x8, addend: 0x0, symName: __RNCINvNtNtCslJiobkLta79_5alloc3vec16in_place_collect24write_in_place_with_dropNtNtCsdGrGZaRBwMb_3syn4attr9AttributeE0Cs9jpTMRK2ijq_11yoke_derive, symObjAddr: 0x1790, symBinAddr: 0x5B140, symSize: 0x50 }
  - { offset: 0xBB83C, size: 0x8, addend: 0x0, symName: __RNCINvNtNtCslJiobkLta79_5alloc3vec16in_place_collect24write_in_place_with_dropNtNtCsdGrGZaRBwMb_3syn4expr3ArmE0Cs9jpTMRK2ijq_11yoke_derive, symObjAddr: 0x17E0, symBinAddr: 0x5B190, symSize: 0x50 }
  - { offset: 0xBB8BE, size: 0x8, addend: 0x0, symName: __RNCINvNtNtCslJiobkLta79_5alloc3vec16in_place_collect24write_in_place_with_dropNtNtCsdGrGZaRBwMb_3syn4item11ForeignItemE0Cs9jpTMRK2ijq_11yoke_derive, symObjAddr: 0x1830, symBinAddr: 0x5B1E0, symSize: 0x50 }
  - { offset: 0xBB940, size: 0x8, addend: 0x0, symName: __RNCINvNtNtCslJiobkLta79_5alloc3vec16in_place_collect24write_in_place_with_dropNtNtCsdGrGZaRBwMb_3syn4item4ItemE0Cs9jpTMRK2ijq_11yoke_derive, symObjAddr: 0x1880, symBinAddr: 0x5B230, symSize: 0x50 }
  - { offset: 0xBB9C2, size: 0x8, addend: 0x0, symName: __RNCINvNtNtCslJiobkLta79_5alloc3vec16in_place_collect24write_in_place_with_dropNtNtCsdGrGZaRBwMb_3syn4item8ImplItemE0Cs9jpTMRK2ijq_11yoke_derive, symObjAddr: 0x18D0, symBinAddr: 0x5B280, symSize: 0x50 }
  - { offset: 0xBBA44, size: 0x8, addend: 0x0, symName: __RNCINvNtNtCslJiobkLta79_5alloc3vec16in_place_collect24write_in_place_with_dropNtNtCsdGrGZaRBwMb_3syn4item9TraitItemE0Cs9jpTMRK2ijq_11yoke_derive, symObjAddr: 0x1920, symBinAddr: 0x5B2D0, symSize: 0x50 }
  - { offset: 0xBBAC6, size: 0x8, addend: 0x0, symName: __RNCINvNtNtCslJiobkLta79_5alloc3vec16in_place_collect24write_in_place_with_dropNtNtCsdGrGZaRBwMb_3syn4stmt4StmtE0Cs9jpTMRK2ijq_11yoke_derive, symObjAddr: 0x1970, symBinAddr: 0x5B320, symSize: 0x50 }
  - { offset: 0xC2FBE, size: 0x8, addend: 0x0, symName: __RINvXs3_NtNtCslJiobkLta79_5alloc3vec9into_iterINtB6_8IntoIterNtNtCsdGrGZaRBwMb_3syn4attr9AttributeENtNtNtNtCsieiGu2EXtoJ_4core4iter6traits8iterator8Iterator8try_foldINtNtB8_13in_place_drop11InPlaceDropBX_ENCINvNtNtB1F_8adapters3map12map_try_foldBX_BX_B2D_INtNtB1H_6result6ResultB2D_zENCINvNtNtB11_3gen4fold8fold_vecBX_NtNvCs9jpTMRK2ijq_11yoke_derive16replace_lifetime15ReplaceLifetimeNvYB56_NtB4D_4Fold14fold_attributeE0NCINvNtB8_16in_place_collect24write_in_place_with_dropBX_E0E0B45_EB5a_, symObjAddr: 0x0, symBinAddr: 0x5B370, symSize: 0x250 }
  - { offset: 0xC6E45, size: 0x8, addend: 0x0, symName: __RINvYINtNtNtCslJiobkLta79_5alloc3vec9into_iter8IntoIterNtNtCsdGrGZaRBwMb_3syn4attr9AttributeENtNtNtNtCsieiGu2EXtoJ_4core4iter6traits8iterator8Iterator3mapBR_NCINvNtNtBV_3gen4fold8fold_vecBR_NtNvCs9jpTMRK2ijq_11yoke_derive16replace_lifetime15ReplaceLifetimeNvYB32_NtB2A_4Fold14fold_attributeE0EB36_, symObjAddr: 0x1030, symBinAddr: 0x5C3A0, symSize: 0x40 }
  - { offset: 0xC6EB3, size: 0x8, addend: 0x0, symName: __RINvYINtNtNtCslJiobkLta79_5alloc3vec9into_iter8IntoIterNtNtCsdGrGZaRBwMb_3syn4expr3ArmENtNtNtNtCsieiGu2EXtoJ_4core4iter6traits8iterator8Iterator3mapBR_NCINvNtNtBV_3gen4fold8fold_vecBR_NtNvCs9jpTMRK2ijq_11yoke_derive16replace_lifetime15ReplaceLifetimeNvYB2W_NtB2u_4Fold8fold_armE0EB30_, symObjAddr: 0x1070, symBinAddr: 0x5C3E0, symSize: 0x40 }
  - { offset: 0xC6F21, size: 0x8, addend: 0x0, symName: __RINvYINtNtNtCslJiobkLta79_5alloc3vec9into_iter8IntoIterNtNtCsdGrGZaRBwMb_3syn4item11ForeignItemENtNtNtNtCsieiGu2EXtoJ_4core4iter6traits8iterator8Iterator3mapBR_NCINvNtNtBV_3gen4fold8fold_vecBR_NtNvCs9jpTMRK2ijq_11yoke_derive16replace_lifetime15ReplaceLifetimeNvYB35_NtB2D_4Fold17fold_foreign_itemE0EB39_, symObjAddr: 0x10B0, symBinAddr: 0x5C420, symSize: 0x40 }
  - { offset: 0xC6F8F, size: 0x8, addend: 0x0, symName: __RINvYINtNtNtCslJiobkLta79_5alloc3vec9into_iter8IntoIterNtNtCsdGrGZaRBwMb_3syn4item4ItemENtNtNtNtCsieiGu2EXtoJ_4core4iter6traits8iterator8Iterator3mapBR_NCINvNtNtBV_3gen4fold8fold_vecBR_NtNvCs9jpTMRK2ijq_11yoke_derive16replace_lifetime15ReplaceLifetimeNvYB2X_NtB2v_4Fold9fold_itemE0EB31_, symObjAddr: 0x10F0, symBinAddr: 0x5C460, symSize: 0x40 }
  - { offset: 0xC6FFD, size: 0x8, addend: 0x0, symName: __RINvYINtNtNtCslJiobkLta79_5alloc3vec9into_iter8IntoIterNtNtCsdGrGZaRBwMb_3syn4item8ImplItemENtNtNtNtCsieiGu2EXtoJ_4core4iter6traits8iterator8Iterator3mapBR_NCINvNtNtBV_3gen4fold8fold_vecBR_NtNvCs9jpTMRK2ijq_11yoke_derive16replace_lifetime15ReplaceLifetimeNvYB31_NtB2z_4Fold14fold_impl_itemE0EB35_, symObjAddr: 0x1130, symBinAddr: 0x5C4A0, symSize: 0x40 }
  - { offset: 0xC706B, size: 0x8, addend: 0x0, symName: __RINvYINtNtNtCslJiobkLta79_5alloc3vec9into_iter8IntoIterNtNtCsdGrGZaRBwMb_3syn4item9TraitItemENtNtNtNtCsieiGu2EXtoJ_4core4iter6traits8iterator8Iterator3mapBR_NCINvNtNtBV_3gen4fold8fold_vecBR_NtNvCs9jpTMRK2ijq_11yoke_derive16replace_lifetime15ReplaceLifetimeNvYB32_NtB2A_4Fold15fold_trait_itemE0EB36_, symObjAddr: 0x1170, symBinAddr: 0x5C4E0, symSize: 0x40 }
  - { offset: 0xC70D9, size: 0x8, addend: 0x0, symName: __RINvYINtNtNtCslJiobkLta79_5alloc3vec9into_iter8IntoIterNtNtCsdGrGZaRBwMb_3syn4stmt4StmtENtNtNtNtCsieiGu2EXtoJ_4core4iter6traits8iterator8Iterator3mapBR_NCINvNtNtBV_3gen4fold8fold_vecBR_NtNvCs9jpTMRK2ijq_11yoke_derive16replace_lifetime15ReplaceLifetimeNvYB2X_NtB2v_4Fold9fold_stmtE0EB31_, symObjAddr: 0x11B0, symBinAddr: 0x5C520, symSize: 0x40 }
  - { offset: 0xC733A, size: 0x8, addend: 0x0, symName: __RNvYINtNtNtCslJiobkLta79_5alloc3vec9into_iter8IntoIterNtNtCsdGrGZaRBwMb_3syn4expr3ArmENtNtNtNtCsieiGu2EXtoJ_4core4iter6traits10exact_size17ExactSizeIterator3lenCs9jpTMRK2ijq_11yoke_derive, symObjAddr: 0x1FE0, symBinAddr: 0x5D350, symSize: 0xE0 }
  - { offset: 0xC743A, size: 0x8, addend: 0x0, symName: __RNvYINtNtNtCslJiobkLta79_5alloc3vec9into_iter8IntoIterNtNtCsdGrGZaRBwMb_3syn4item11ForeignItemENtNtNtNtCsieiGu2EXtoJ_4core4iter6traits10exact_size17ExactSizeIterator3lenCs9jpTMRK2ijq_11yoke_derive, symObjAddr: 0x20C0, symBinAddr: 0x5D430, symSize: 0xE0 }
  - { offset: 0xC753A, size: 0x8, addend: 0x0, symName: __RNvYINtNtNtCslJiobkLta79_5alloc3vec9into_iter8IntoIterNtNtCsdGrGZaRBwMb_3syn4item4ItemENtNtNtNtCsieiGu2EXtoJ_4core4iter6traits10exact_size17ExactSizeIterator3lenCs9jpTMRK2ijq_11yoke_derive, symObjAddr: 0x21A0, symBinAddr: 0x5D510, symSize: 0xE0 }
  - { offset: 0xC763A, size: 0x8, addend: 0x0, symName: __RNvYINtNtNtCslJiobkLta79_5alloc3vec9into_iter8IntoIterNtNtCsdGrGZaRBwMb_3syn4item8ImplItemENtNtNtNtCsieiGu2EXtoJ_4core4iter6traits10exact_size17ExactSizeIterator3lenCs9jpTMRK2ijq_11yoke_derive, symObjAddr: 0x2280, symBinAddr: 0x5D5F0, symSize: 0xE0 }
  - { offset: 0xC773A, size: 0x8, addend: 0x0, symName: __RNvYINtNtNtCslJiobkLta79_5alloc3vec9into_iter8IntoIterNtNtCsdGrGZaRBwMb_3syn4item9TraitItemENtNtNtNtCsieiGu2EXtoJ_4core4iter6traits10exact_size17ExactSizeIterator3lenCs9jpTMRK2ijq_11yoke_derive, symObjAddr: 0x2360, symBinAddr: 0x5D6D0, symSize: 0xE0 }
  - { offset: 0xC783A, size: 0x8, addend: 0x0, symName: __RNvYINtNtNtCslJiobkLta79_5alloc3vec9into_iter8IntoIterNtNtCsdGrGZaRBwMb_3syn4stmt4StmtENtNtNtNtCsieiGu2EXtoJ_4core4iter6traits10exact_size17ExactSizeIterator3lenCs9jpTMRK2ijq_11yoke_derive, symObjAddr: 0x2440, symBinAddr: 0x5D7B0, symSize: 0xE0 }
  - { offset: 0xCD06C, size: 0x8, addend: 0x0, symName: __RINvXs3_NtNtCslJiobkLta79_5alloc3vec9into_iterINtB6_8IntoIterNtNtCsdGrGZaRBwMb_3syn4attr9AttributeENtNtNtNtCsieiGu2EXtoJ_4core4iter6traits8iterator8Iterator8try_foldINtNtB8_13in_place_drop11InPlaceDropBX_ENCINvNtNtB1F_8adapters3map12map_try_foldBX_BX_B2D_INtNtB1H_6result6ResultB2D_zENCINvNtNtB11_3gen4fold8fold_vecBX_NtNvCs9jpTMRK2ijq_11yoke_derive16replace_lifetime15ReplaceLifetimeNvYB56_NtB4D_4Fold14fold_attributeE0NCINvNtB8_16in_place_collect24write_in_place_with_dropBX_E0E0B45_EB5a_, symObjAddr: 0x0, symBinAddr: 0x5B370, symSize: 0x250 }
  - { offset: 0xCD235, size: 0x8, addend: 0x0, symName: __RINvXs3_NtNtCslJiobkLta79_5alloc3vec9into_iterINtB6_8IntoIterNtNtCsdGrGZaRBwMb_3syn4expr3ArmENtNtNtNtCsieiGu2EXtoJ_4core4iter6traits8iterator8Iterator8try_foldINtNtB8_13in_place_drop11InPlaceDropBX_ENCINvNtNtB1z_8adapters3map12map_try_foldBX_BX_B2x_INtNtB1B_6result6ResultB2x_zENCINvNtNtB11_3gen4fold8fold_vecBX_NtNvCs9jpTMRK2ijq_11yoke_derive16replace_lifetime15ReplaceLifetimeNvYB50_NtB4x_4Fold8fold_armE0NCINvNtB8_16in_place_collect24write_in_place_with_dropBX_E0E0B3Z_EB54_, symObjAddr: 0x250, symBinAddr: 0x5B5C0, symSize: 0x250 }
  - { offset: 0xCD3FE, size: 0x8, addend: 0x0, symName: __RINvXs3_NtNtCslJiobkLta79_5alloc3vec9into_iterINtB6_8IntoIterNtNtCsdGrGZaRBwMb_3syn4item11ForeignItemENtNtNtNtCsieiGu2EXtoJ_4core4iter6traits8iterator8Iterator8try_foldINtNtB8_13in_place_drop11InPlaceDropBX_ENCINvNtNtB1I_8adapters3map12map_try_foldBX_BX_B2G_INtNtB1K_6result6ResultB2G_zENCINvNtNtB11_3gen4fold8fold_vecBX_NtNvCs9jpTMRK2ijq_11yoke_derive16replace_lifetime15ReplaceLifetimeNvYB59_NtB4G_4Fold17fold_foreign_itemE0NCINvNtB8_16in_place_collect24write_in_place_with_dropBX_E0E0B48_EB5d_, symObjAddr: 0x4A0, symBinAddr: 0x5B810, symSize: 0x250 }
  - { offset: 0xCD5C7, size: 0x8, addend: 0x0, symName: __RINvXs3_NtNtCslJiobkLta79_5alloc3vec9into_iterINtB6_8IntoIterNtNtCsdGrGZaRBwMb_3syn4item4ItemENtNtNtNtCsieiGu2EXtoJ_4core4iter6traits8iterator8Iterator8try_foldINtNtB8_13in_place_drop11InPlaceDropBX_ENCINvNtNtB1A_8adapters3map12map_try_foldBX_BX_B2y_INtNtB1C_6result6ResultB2y_zENCINvNtNtB11_3gen4fold8fold_vecBX_NtNvCs9jpTMRK2ijq_11yoke_derive16replace_lifetime15ReplaceLifetimeNvYB51_NtB4y_4Fold9fold_itemE0NCINvNtB8_16in_place_collect24write_in_place_with_dropBX_E0E0B40_EB55_, symObjAddr: 0x6F0, symBinAddr: 0x5BA60, symSize: 0x250 }
  - { offset: 0xCD790, size: 0x8, addend: 0x0, symName: __RINvXs3_NtNtCslJiobkLta79_5alloc3vec9into_iterINtB6_8IntoIterNtNtCsdGrGZaRBwMb_3syn4item8ImplItemENtNtNtNtCsieiGu2EXtoJ_4core4iter6traits8iterator8Iterator8try_foldINtNtB8_13in_place_drop11InPlaceDropBX_ENCINvNtNtB1E_8adapters3map12map_try_foldBX_BX_B2C_INtNtB1G_6result6ResultB2C_zENCINvNtNtB11_3gen4fold8fold_vecBX_NtNvCs9jpTMRK2ijq_11yoke_derive16replace_lifetime15ReplaceLifetimeNvYB55_NtB4C_4Fold14fold_impl_itemE0NCINvNtB8_16in_place_collect24write_in_place_with_dropBX_E0E0B44_EB59_, symObjAddr: 0x940, symBinAddr: 0x5BCB0, symSize: 0x250 }
  - { offset: 0xCD959, size: 0x8, addend: 0x0, symName: __RINvXs3_NtNtCslJiobkLta79_5alloc3vec9into_iterINtB6_8IntoIterNtNtCsdGrGZaRBwMb_3syn4item9TraitItemENtNtNtNtCsieiGu2EXtoJ_4core4iter6traits8iterator8Iterator8try_foldINtNtB8_13in_place_drop11InPlaceDropBX_ENCINvNtNtB1F_8adapters3map12map_try_foldBX_BX_B2D_INtNtB1H_6result6ResultB2D_zENCINvNtNtB11_3gen4fold8fold_vecBX_NtNvCs9jpTMRK2ijq_11yoke_derive16replace_lifetime15ReplaceLifetimeNvYB56_NtB4D_4Fold15fold_trait_itemE0NCINvNtB8_16in_place_collect24write_in_place_with_dropBX_E0E0B45_EB5a_, symObjAddr: 0xB90, symBinAddr: 0x5BF00, symSize: 0x250 }
  - { offset: 0xCDB22, size: 0x8, addend: 0x0, symName: __RINvXs3_NtNtCslJiobkLta79_5alloc3vec9into_iterINtB6_8IntoIterNtNtCsdGrGZaRBwMb_3syn4stmt4StmtENtNtNtNtCsieiGu2EXtoJ_4core4iter6traits8iterator8Iterator8try_foldINtNtB8_13in_place_drop11InPlaceDropBX_ENCINvNtNtB1A_8adapters3map12map_try_foldBX_BX_B2y_INtNtB1C_6result6ResultB2y_zENCINvNtNtB11_3gen4fold8fold_vecBX_NtNvCs9jpTMRK2ijq_11yoke_derive16replace_lifetime15ReplaceLifetimeNvYB51_NtB4y_4Fold9fold_stmtE0NCINvNtB8_16in_place_collect24write_in_place_with_dropBX_E0E0B40_EB55_, symObjAddr: 0xDE0, symBinAddr: 0x5C150, symSize: 0x250 }
  - { offset: 0xCDCEB, size: 0x8, addend: 0x0, symName: __RNvXs3_NtNtCslJiobkLta79_5alloc3vec9into_iterINtB5_8IntoIterNtNtCsdGrGZaRBwMb_3syn4expr3ArmENtNtNtNtCsieiGu2EXtoJ_4core4iter6traits8iterator8Iterator9size_hintCs9jpTMRK2ijq_11yoke_derive, symObjAddr: 0x1960, symBinAddr: 0x5CCD0, symSize: 0x60 }
  - { offset: 0xCDD46, size: 0x8, addend: 0x0, symName: __RNvXs3_NtNtCslJiobkLta79_5alloc3vec9into_iterINtB5_8IntoIterNtNtCsdGrGZaRBwMb_3syn4item11ForeignItemENtNtNtNtCsieiGu2EXtoJ_4core4iter6traits8iterator8Iterator9size_hintCs9jpTMRK2ijq_11yoke_derive, symObjAddr: 0x19C0, symBinAddr: 0x5CD30, symSize: 0x60 }
  - { offset: 0xCDDA1, size: 0x8, addend: 0x0, symName: __RNvXs3_NtNtCslJiobkLta79_5alloc3vec9into_iterINtB5_8IntoIterNtNtCsdGrGZaRBwMb_3syn4item4ItemENtNtNtNtCsieiGu2EXtoJ_4core4iter6traits8iterator8Iterator9size_hintCs9jpTMRK2ijq_11yoke_derive, symObjAddr: 0x1A20, symBinAddr: 0x5CD90, symSize: 0x60 }
  - { offset: 0xCDDFC, size: 0x8, addend: 0x0, symName: __RNvXs3_NtNtCslJiobkLta79_5alloc3vec9into_iterINtB5_8IntoIterNtNtCsdGrGZaRBwMb_3syn4item8ImplItemENtNtNtNtCsieiGu2EXtoJ_4core4iter6traits8iterator8Iterator9size_hintCs9jpTMRK2ijq_11yoke_derive, symObjAddr: 0x1A80, symBinAddr: 0x5CDF0, symSize: 0x60 }
  - { offset: 0xCDE57, size: 0x8, addend: 0x0, symName: __RNvXs3_NtNtCslJiobkLta79_5alloc3vec9into_iterINtB5_8IntoIterNtNtCsdGrGZaRBwMb_3syn4item9TraitItemENtNtNtNtCsieiGu2EXtoJ_4core4iter6traits8iterator8Iterator9size_hintCs9jpTMRK2ijq_11yoke_derive, symObjAddr: 0x1AE0, symBinAddr: 0x5CE50, symSize: 0x60 }
  - { offset: 0xCDEB2, size: 0x8, addend: 0x0, symName: __RNvXs3_NtNtCslJiobkLta79_5alloc3vec9into_iterINtB5_8IntoIterNtNtCsdGrGZaRBwMb_3syn4stmt4StmtENtNtNtNtCsieiGu2EXtoJ_4core4iter6traits8iterator8Iterator9size_hintCs9jpTMRK2ijq_11yoke_derive, symObjAddr: 0x1B40, symBinAddr: 0x5CEB0, symSize: 0x60 }
  - { offset: 0xCE3D8, size: 0x8, addend: 0x0, symName: __RNvXNvXsd_NtNtCslJiobkLta79_5alloc3vec9into_iterINtB8_8IntoIterppENtNtNtCsieiGu2EXtoJ_4core3ops4drop4Drop4dropINtB2_9DropGuardNtNtCsdGrGZaRBwMb_3syn4expr3ArmNtNtBc_5alloc6GlobalEB12_4dropCs9jpTMRK2ijq_11yoke_derive, symObjAddr: 0x16C0, symBinAddr: 0x5CA30, symSize: 0x70 }
  - { offset: 0xCE4ED, size: 0x8, addend: 0x0, symName: __RNvXNvXsd_NtNtCslJiobkLta79_5alloc3vec9into_iterINtB8_8IntoIterppENtNtNtCsieiGu2EXtoJ_4core3ops4drop4Drop4dropINtB2_9DropGuardNtNtCsdGrGZaRBwMb_3syn4item11ForeignItemNtNtBc_5alloc6GlobalEB12_4dropCs9jpTMRK2ijq_11yoke_derive, symObjAddr: 0x1730, symBinAddr: 0x5CAA0, symSize: 0x70 }
  - { offset: 0xCE602, size: 0x8, addend: 0x0, symName: __RNvXNvXsd_NtNtCslJiobkLta79_5alloc3vec9into_iterINtB8_8IntoIterppENtNtNtCsieiGu2EXtoJ_4core3ops4drop4Drop4dropINtB2_9DropGuardNtNtCsdGrGZaRBwMb_3syn4item4ItemNtNtBc_5alloc6GlobalEB12_4dropCs9jpTMRK2ijq_11yoke_derive, symObjAddr: 0x17A0, symBinAddr: 0x5CB10, symSize: 0x70 }
  - { offset: 0xCE717, size: 0x8, addend: 0x0, symName: __RNvXNvXsd_NtNtCslJiobkLta79_5alloc3vec9into_iterINtB8_8IntoIterppENtNtNtCsieiGu2EXtoJ_4core3ops4drop4Drop4dropINtB2_9DropGuardNtNtCsdGrGZaRBwMb_3syn4item8ImplItemNtNtBc_5alloc6GlobalEB12_4dropCs9jpTMRK2ijq_11yoke_derive, symObjAddr: 0x1810, symBinAddr: 0x5CB80, symSize: 0x70 }
  - { offset: 0xCE82C, size: 0x8, addend: 0x0, symName: __RNvXNvXsd_NtNtCslJiobkLta79_5alloc3vec9into_iterINtB8_8IntoIterppENtNtNtCsieiGu2EXtoJ_4core3ops4drop4Drop4dropINtB2_9DropGuardNtNtCsdGrGZaRBwMb_3syn4item9TraitItemNtNtBc_5alloc6GlobalEB12_4dropCs9jpTMRK2ijq_11yoke_derive, symObjAddr: 0x1880, symBinAddr: 0x5CBF0, symSize: 0x70 }
  - { offset: 0xCE941, size: 0x8, addend: 0x0, symName: __RNvXNvXsd_NtNtCslJiobkLta79_5alloc3vec9into_iterINtB8_8IntoIterppENtNtNtCsieiGu2EXtoJ_4core3ops4drop4Drop4dropINtB2_9DropGuardNtNtCsdGrGZaRBwMb_3syn4stmt4StmtNtNtBc_5alloc6GlobalEB12_4dropCs9jpTMRK2ijq_11yoke_derive, symObjAddr: 0x18F0, symBinAddr: 0x5CC60, symSize: 0x70 }
  - { offset: 0xCEB42, size: 0x8, addend: 0x0, symName: __RNvXsd_NtNtCslJiobkLta79_5alloc3vec9into_iterINtB5_8IntoIterNtNtCsdGrGZaRBwMb_3syn4expr3ArmENtNtNtCsieiGu2EXtoJ_4core3ops4drop4Drop4dropCs9jpTMRK2ijq_11yoke_derive, symObjAddr: 0x1BA0, symBinAddr: 0x5CF10, symSize: 0x90 }
  - { offset: 0xCEBDD, size: 0x8, addend: 0x0, symName: __RNvXsd_NtNtCslJiobkLta79_5alloc3vec9into_iterINtB5_8IntoIterNtNtCsdGrGZaRBwMb_3syn4item11ForeignItemENtNtNtCsieiGu2EXtoJ_4core3ops4drop4Drop4dropCs9jpTMRK2ijq_11yoke_derive, symObjAddr: 0x1C30, symBinAddr: 0x5CFA0, symSize: 0x90 }
  - { offset: 0xCEC78, size: 0x8, addend: 0x0, symName: __RNvXsd_NtNtCslJiobkLta79_5alloc3vec9into_iterINtB5_8IntoIterNtNtCsdGrGZaRBwMb_3syn4item4ItemENtNtNtCsieiGu2EXtoJ_4core3ops4drop4Drop4dropCs9jpTMRK2ijq_11yoke_derive, symObjAddr: 0x1CC0, symBinAddr: 0x5D030, symSize: 0x90 }
  - { offset: 0xCED13, size: 0x8, addend: 0x0, symName: __RNvXsd_NtNtCslJiobkLta79_5alloc3vec9into_iterINtB5_8IntoIterNtNtCsdGrGZaRBwMb_3syn4item8ImplItemENtNtNtCsieiGu2EXtoJ_4core3ops4drop4Drop4dropCs9jpTMRK2ijq_11yoke_derive, symObjAddr: 0x1D50, symBinAddr: 0x5D0C0, symSize: 0x90 }
  - { offset: 0xCEDAE, size: 0x8, addend: 0x0, symName: __RNvXsd_NtNtCslJiobkLta79_5alloc3vec9into_iterINtB5_8IntoIterNtNtCsdGrGZaRBwMb_3syn4item9TraitItemENtNtNtCsieiGu2EXtoJ_4core3ops4drop4Drop4dropCs9jpTMRK2ijq_11yoke_derive, symObjAddr: 0x1DE0, symBinAddr: 0x5D150, symSize: 0x90 }
  - { offset: 0xCEE49, size: 0x8, addend: 0x0, symName: __RNvXsd_NtNtCslJiobkLta79_5alloc3vec9into_iterINtB5_8IntoIterNtNtCsdGrGZaRBwMb_3syn4stmt4StmtENtNtNtCsieiGu2EXtoJ_4core3ops4drop4Drop4dropCs9jpTMRK2ijq_11yoke_derive, symObjAddr: 0x1E70, symBinAddr: 0x5D1E0, symSize: 0x90 }
  - { offset: 0xCEEEA, size: 0x8, addend: 0x0, symName: __RNvXsf_NtNtCslJiobkLta79_5alloc3vec9into_iterINtB5_8IntoIterNtNtCsdGrGZaRBwMb_3syn4attr9AttributeENtNtNtCsieiGu2EXtoJ_4core4iter8adapters10SourceIter8as_innerCs9jpTMRK2ijq_11yoke_derive, symObjAddr: 0x1F00, symBinAddr: 0x5D270, symSize: 0x10 }
  - { offset: 0xCEF2A, size: 0x8, addend: 0x0, symName: __RNvXsf_NtNtCslJiobkLta79_5alloc3vec9into_iterINtB5_8IntoIterNtNtCsdGrGZaRBwMb_3syn4expr3ArmENtNtNtCsieiGu2EXtoJ_4core4iter8adapters10SourceIter8as_innerCs9jpTMRK2ijq_11yoke_derive, symObjAddr: 0x1F10, symBinAddr: 0x5D280, symSize: 0x10 }
  - { offset: 0xCEF6A, size: 0x8, addend: 0x0, symName: __RNvXsf_NtNtCslJiobkLta79_5alloc3vec9into_iterINtB5_8IntoIterNtNtCsdGrGZaRBwMb_3syn4item11ForeignItemENtNtNtCsieiGu2EXtoJ_4core4iter8adapters10SourceIter8as_innerCs9jpTMRK2ijq_11yoke_derive, symObjAddr: 0x1F20, symBinAddr: 0x5D290, symSize: 0x10 }
  - { offset: 0xCEFAA, size: 0x8, addend: 0x0, symName: __RNvXsf_NtNtCslJiobkLta79_5alloc3vec9into_iterINtB5_8IntoIterNtNtCsdGrGZaRBwMb_3syn4item4ItemENtNtNtCsieiGu2EXtoJ_4core4iter8adapters10SourceIter8as_innerCs9jpTMRK2ijq_11yoke_derive, symObjAddr: 0x1F30, symBinAddr: 0x5D2A0, symSize: 0x10 }
  - { offset: 0xCEFEA, size: 0x8, addend: 0x0, symName: __RNvXsf_NtNtCslJiobkLta79_5alloc3vec9into_iterINtB5_8IntoIterNtNtCsdGrGZaRBwMb_3syn4item8ImplItemENtNtNtCsieiGu2EXtoJ_4core4iter8adapters10SourceIter8as_innerCs9jpTMRK2ijq_11yoke_derive, symObjAddr: 0x1F40, symBinAddr: 0x5D2B0, symSize: 0x10 }
  - { offset: 0xCF02A, size: 0x8, addend: 0x0, symName: __RNvXsf_NtNtCslJiobkLta79_5alloc3vec9into_iterINtB5_8IntoIterNtNtCsdGrGZaRBwMb_3syn4item9TraitItemENtNtNtCsieiGu2EXtoJ_4core4iter8adapters10SourceIter8as_innerCs9jpTMRK2ijq_11yoke_derive, symObjAddr: 0x1F50, symBinAddr: 0x5D2C0, symSize: 0x10 }
  - { offset: 0xCF06A, size: 0x8, addend: 0x0, symName: __RNvXsf_NtNtCslJiobkLta79_5alloc3vec9into_iterINtB5_8IntoIterNtNtCsdGrGZaRBwMb_3syn4stmt4StmtENtNtNtCsieiGu2EXtoJ_4core4iter8adapters10SourceIter8as_innerCs9jpTMRK2ijq_11yoke_derive, symObjAddr: 0x1F60, symBinAddr: 0x5D2D0, symSize: 0x10 }
  - { offset: 0xCF0B0, size: 0x8, addend: 0x0, symName: __RNvXsg_NtNtCslJiobkLta79_5alloc3vec9into_iterINtB5_8IntoIterNtNtCsdGrGZaRBwMb_3syn4attr9AttributeENtNtB7_16in_place_collect13AsVecIntoIter12as_into_iterCs9jpTMRK2ijq_11yoke_derive, symObjAddr: 0x1F70, symBinAddr: 0x5D2E0, symSize: 0x10 }
  - { offset: 0xCF0E7, size: 0x8, addend: 0x0, symName: __RNvXsg_NtNtCslJiobkLta79_5alloc3vec9into_iterINtB5_8IntoIterNtNtCsdGrGZaRBwMb_3syn4expr3ArmENtNtB7_16in_place_collect13AsVecIntoIter12as_into_iterCs9jpTMRK2ijq_11yoke_derive, symObjAddr: 0x1F80, symBinAddr: 0x5D2F0, symSize: 0x10 }
  - { offset: 0xCF11E, size: 0x8, addend: 0x0, symName: __RNvXsg_NtNtCslJiobkLta79_5alloc3vec9into_iterINtB5_8IntoIterNtNtCsdGrGZaRBwMb_3syn4item11ForeignItemENtNtB7_16in_place_collect13AsVecIntoIter12as_into_iterCs9jpTMRK2ijq_11yoke_derive, symObjAddr: 0x1F90, symBinAddr: 0x5D300, symSize: 0x10 }
  - { offset: 0xCF155, size: 0x8, addend: 0x0, symName: __RNvXsg_NtNtCslJiobkLta79_5alloc3vec9into_iterINtB5_8IntoIterNtNtCsdGrGZaRBwMb_3syn4item4ItemENtNtB7_16in_place_collect13AsVecIntoIter12as_into_iterCs9jpTMRK2ijq_11yoke_derive, symObjAddr: 0x1FA0, symBinAddr: 0x5D310, symSize: 0x10 }
  - { offset: 0xCF18C, size: 0x8, addend: 0x0, symName: __RNvXsg_NtNtCslJiobkLta79_5alloc3vec9into_iterINtB5_8IntoIterNtNtCsdGrGZaRBwMb_3syn4item8ImplItemENtNtB7_16in_place_collect13AsVecIntoIter12as_into_iterCs9jpTMRK2ijq_11yoke_derive, symObjAddr: 0x1FB0, symBinAddr: 0x5D320, symSize: 0x10 }
  - { offset: 0xCF1C3, size: 0x8, addend: 0x0, symName: __RNvXsg_NtNtCslJiobkLta79_5alloc3vec9into_iterINtB5_8IntoIterNtNtCsdGrGZaRBwMb_3syn4item9TraitItemENtNtB7_16in_place_collect13AsVecIntoIter12as_into_iterCs9jpTMRK2ijq_11yoke_derive, symObjAddr: 0x1FC0, symBinAddr: 0x5D330, symSize: 0x10 }
  - { offset: 0xCF1FA, size: 0x8, addend: 0x0, symName: __RNvXsg_NtNtCslJiobkLta79_5alloc3vec9into_iterINtB5_8IntoIterNtNtCsdGrGZaRBwMb_3syn4stmt4StmtENtNtB7_16in_place_collect13AsVecIntoIter12as_into_iterCs9jpTMRK2ijq_11yoke_derive, symObjAddr: 0x1FD0, symBinAddr: 0x5D340, symSize: 0x10 }
  - { offset: 0xD0AA8, size: 0x8, addend: 0x0, symName: __RNvMs_NtNtCslJiobkLta79_5alloc3vec9into_iterINtB4_8IntoIterNtNtCsdGrGZaRBwMb_3syn4attr9AttributeE32forget_allocation_drop_remainingCs9jpTMRK2ijq_11yoke_derive, symObjAddr: 0x11F0, symBinAddr: 0x5C560, symSize: 0xB0 }
  - { offset: 0xD0CE9, size: 0x8, addend: 0x0, symName: __RNvMs_NtNtCslJiobkLta79_5alloc3vec9into_iterINtB4_8IntoIterNtNtCsdGrGZaRBwMb_3syn4expr3ArmE32forget_allocation_drop_remainingCs9jpTMRK2ijq_11yoke_derive, symObjAddr: 0x12A0, symBinAddr: 0x5C610, symSize: 0xB0 }
  - { offset: 0xD0F2A, size: 0x8, addend: 0x0, symName: __RNvMs_NtNtCslJiobkLta79_5alloc3vec9into_iterINtB4_8IntoIterNtNtCsdGrGZaRBwMb_3syn4item11ForeignItemE32forget_allocation_drop_remainingCs9jpTMRK2ijq_11yoke_derive, symObjAddr: 0x1350, symBinAddr: 0x5C6C0, symSize: 0xB0 }
  - { offset: 0xD116B, size: 0x8, addend: 0x0, symName: __RNvMs_NtNtCslJiobkLta79_5alloc3vec9into_iterINtB4_8IntoIterNtNtCsdGrGZaRBwMb_3syn4item4ItemE32forget_allocation_drop_remainingCs9jpTMRK2ijq_11yoke_derive, symObjAddr: 0x1400, symBinAddr: 0x5C770, symSize: 0xB0 }
  - { offset: 0xD13AC, size: 0x8, addend: 0x0, symName: __RNvMs_NtNtCslJiobkLta79_5alloc3vec9into_iterINtB4_8IntoIterNtNtCsdGrGZaRBwMb_3syn4item8ImplItemE32forget_allocation_drop_remainingCs9jpTMRK2ijq_11yoke_derive, symObjAddr: 0x14B0, symBinAddr: 0x5C820, symSize: 0xB0 }
  - { offset: 0xD15ED, size: 0x8, addend: 0x0, symName: __RNvMs_NtNtCslJiobkLta79_5alloc3vec9into_iterINtB4_8IntoIterNtNtCsdGrGZaRBwMb_3syn4item9TraitItemE32forget_allocation_drop_remainingCs9jpTMRK2ijq_11yoke_derive, symObjAddr: 0x1560, symBinAddr: 0x5C8D0, symSize: 0xB0 }
  - { offset: 0xD182E, size: 0x8, addend: 0x0, symName: __RNvMs_NtNtCslJiobkLta79_5alloc3vec9into_iterINtB4_8IntoIterNtNtCsdGrGZaRBwMb_3syn4stmt4StmtE32forget_allocation_drop_remainingCs9jpTMRK2ijq_11yoke_derive, symObjAddr: 0x1610, symBinAddr: 0x5C980, symSize: 0xB0 }
  - { offset: 0xD1FAD, size: 0x8, addend: 0x0, symName: __RINvNtCsdGrGZaRBwMb_3syn10punctuated4foldNtNtB4_2ty4TypeNtNtB4_5token5CommaNtNvCs9jpTMRK2ijq_11yoke_derive16replace_lifetime15ReplaceLifetimeNvYB1b_NtNtNtB4_3gen4fold4Fold9fold_typeEB1f_, symObjAddr: 0x0, symBinAddr: 0x5D890, symSize: 0x580 }
  - { offset: 0xD616E, size: 0x8, addend: 0x0, symName: __RINvNtCsdGrGZaRBwMb_3syn10punctuated4foldNtNtB4_2ty4TypeNtNtB4_5token5CommaNtNvCs9jpTMRK2ijq_11yoke_derive16replace_lifetime15ReplaceLifetimeNvYB1b_NtNtNtB4_3gen4fold4Fold9fold_typeEB1f_, symObjAddr: 0x0, symBinAddr: 0x5D890, symSize: 0x580 }
  - { offset: 0xD6294, size: 0x8, addend: 0x0, symName: __RINvNtCsdGrGZaRBwMb_3syn10punctuated4foldNtNtB4_2ty9BareFnArgNtNtB4_5token5CommaNtNvCs9jpTMRK2ijq_11yoke_derive16replace_lifetime15ReplaceLifetimeNvYB1g_NtNtNtB4_3gen4fold4Fold16fold_bare_fn_argEB1k_, symObjAddr: 0x580, symBinAddr: 0x5DE10, symSize: 0x580 }
  - { offset: 0xD63BA, size: 0x8, addend: 0x0, symName: __RINvNtCsdGrGZaRBwMb_3syn10punctuated4foldNtNtB4_3pat3PatNtNtB4_5token2OrNtNvCs9jpTMRK2ijq_11yoke_derive16replace_lifetime15ReplaceLifetimeNvYB18_NtNtNtB4_3gen4fold4Fold8fold_patEB1c_, symObjAddr: 0xB00, symBinAddr: 0x5E390, symSize: 0x590 }
  - { offset: 0xD64E0, size: 0x8, addend: 0x0, symName: __RINvNtCsdGrGZaRBwMb_3syn10punctuated4foldNtNtB4_3pat3PatNtNtB4_5token5CommaNtNvCs9jpTMRK2ijq_11yoke_derive16replace_lifetime15ReplaceLifetimeNvYB1b_NtNtNtB4_3gen4fold4Fold8fold_patEB1f_, symObjAddr: 0x1090, symBinAddr: 0x5E920, symSize: 0x590 }
  - { offset: 0xD6606, size: 0x8, addend: 0x0, symName: __RINvNtCsdGrGZaRBwMb_3syn10punctuated4foldNtNtB4_3pat8FieldPatNtNtB4_5token5CommaNtNvCs9jpTMRK2ijq_11yoke_derive16replace_lifetime15ReplaceLifetimeNvYB1g_NtNtNtB4_3gen4fold4Fold14fold_field_patEB1k_, symObjAddr: 0x1620, symBinAddr: 0x5EEB0, symSize: 0x6D0 }
  - { offset: 0xD672C, size: 0x8, addend: 0x0, symName: __RINvNtCsdGrGZaRBwMb_3syn10punctuated4foldNtNtB4_4data5FieldNtNtB4_5token5CommaNtNvCs9jpTMRK2ijq_11yoke_derive16replace_lifetime15ReplaceLifetimeNvYB1e_NtNtNtB4_3gen4fold4Fold10fold_fieldEB1i_, symObjAddr: 0x1CF0, symBinAddr: 0x5F580, symSize: 0x580 }
  - { offset: 0xD6852, size: 0x8, addend: 0x0, symName: __RINvNtCsdGrGZaRBwMb_3syn10punctuated4foldNtNtB4_4data7VariantNtNtB4_5token5CommaNtNvCs9jpTMRK2ijq_11yoke_derive16replace_lifetime15ReplaceLifetimeNvYB1g_NtNtNtB4_3gen4fold4Fold12fold_variantEB1k_, symObjAddr: 0x2270, symBinAddr: 0x5FB00, symSize: 0x580 }
  - { offset: 0xD6978, size: 0x8, addend: 0x0, symName: __RINvNtCsdGrGZaRBwMb_3syn10punctuated4foldNtNtB4_4expr10FieldValueNtNtB4_5token5CommaNtNvCs9jpTMRK2ijq_11yoke_derive16replace_lifetime15ReplaceLifetimeNvYB1k_NtNtNtB4_3gen4fold4Fold16fold_field_valueEB1o_, symObjAddr: 0x27F0, symBinAddr: 0x60080, symSize: 0x580 }
  - { offset: 0xD6A9E, size: 0x8, addend: 0x0, symName: __RINvNtCsdGrGZaRBwMb_3syn10punctuated4foldNtNtB4_4expr4ExprNtNtB4_5token5CommaNtNvCs9jpTMRK2ijq_11yoke_derive16replace_lifetime15ReplaceLifetimeNvYB1d_NtNtNtB4_3gen4fold4Fold9fold_exprEB1h_, symObjAddr: 0x2D70, symBinAddr: 0x60600, symSize: 0x580 }
  - { offset: 0xD6BC4, size: 0x8, addend: 0x0, symName: __RINvNtCsdGrGZaRBwMb_3syn10punctuated4foldNtNtB4_4item5FnArgNtNtB4_5token5CommaNtNvCs9jpTMRK2ijq_11yoke_derive16replace_lifetime15ReplaceLifetimeNvYB1e_NtNtNtB4_3gen4fold4Fold11fold_fn_argEB1i_, symObjAddr: 0x32F0, symBinAddr: 0x60B80, symSize: 0x580 }
  - { offset: 0xD6CEA, size: 0x8, addend: 0x0, symName: __RINvNtCsdGrGZaRBwMb_3syn10punctuated4foldNtNtB4_4item7UseTreeNtNtB4_5token5CommaNtNvCs9jpTMRK2ijq_11yoke_derive16replace_lifetime15ReplaceLifetimeNvYB1g_NtNtNtB4_3gen4fold4Fold13fold_use_treeEB1k_, symObjAddr: 0x3870, symBinAddr: 0x61100, symSize: 0x6C0 }
  - { offset: 0xD6E10, size: 0x8, addend: 0x0, symName: __RINvNtCsdGrGZaRBwMb_3syn10punctuated4foldNtNtB4_4path11PathSegmentNtNtB4_5token7PathSepNtNvCs9jpTMRK2ijq_11yoke_derive16replace_lifetime15ReplaceLifetimeNvYB1n_NtNtNtB4_3gen4fold4Fold17fold_path_segmentEB1r_, symObjAddr: 0x3F30, symBinAddr: 0x617C0, symSize: 0x590 }
  - { offset: 0xD6F36, size: 0x8, addend: 0x0, symName: __RINvNtCsdGrGZaRBwMb_3syn10punctuated4foldNtNtB4_4path15GenericArgumentNtNtB4_5token5CommaNtNvCs9jpTMRK2ijq_11yoke_derive16replace_lifetime15ReplaceLifetimeNvYB1p_NtNtNtB4_3gen4fold4Fold21fold_generic_argumentEB1t_, symObjAddr: 0x44C0, symBinAddr: 0x61D50, symSize: 0x580 }
  - { offset: 0xD705C, size: 0x8, addend: 0x0, symName: __RINvNtCsdGrGZaRBwMb_3syn10punctuated4foldNtNtB4_8generics12GenericParamNtNtB4_5token5CommaNtNvCs9jpTMRK2ijq_11yoke_derive16replace_lifetime15ReplaceLifetimeNvYB1q_NtNtNtB4_3gen4fold4Fold18fold_generic_paramEB1u_, symObjAddr: 0x4A40, symBinAddr: 0x622D0, symSize: 0x590 }
  - { offset: 0xD7182, size: 0x8, addend: 0x0, symName: __RINvNtCsdGrGZaRBwMb_3syn10punctuated4foldNtNtB4_8generics13CapturedParamNtNtB4_5token5CommaNtNvCs9jpTMRK2ijq_11yoke_derive16replace_lifetime15ReplaceLifetimeNvYB1r_NtNtNtB4_3gen4fold4Fold19fold_captured_paramEB1v_, symObjAddr: 0x4FD0, symBinAddr: 0x62860, symSize: 0x600 }
  - { offset: 0xD72A8, size: 0x8, addend: 0x0, symName: __RINvNtCsdGrGZaRBwMb_3syn10punctuated4foldNtNtB4_8generics14TypeParamBoundNtNtB4_5token4PlusNtNvCs9jpTMRK2ijq_11yoke_derive16replace_lifetime15ReplaceLifetimeNvYB1r_NtNtNtB4_3gen4fold4Fold21fold_type_param_boundEB1v_, symObjAddr: 0x55D0, symBinAddr: 0x62E60, symSize: 0x580 }
  - { offset: 0xD73CE, size: 0x8, addend: 0x0, symName: __RINvNtCsdGrGZaRBwMb_3syn10punctuated4foldNtNtB4_8generics14WherePredicateNtNtB4_5token5CommaNtNvCs9jpTMRK2ijq_11yoke_derive16replace_lifetime15ReplaceLifetimeNvYB1s_NtNtNtB4_3gen4fold4Fold20fold_where_predicateEB1w_, symObjAddr: 0x5B50, symBinAddr: 0x633E0, symSize: 0x580 }
  - { offset: 0xD74F4, size: 0x8, addend: 0x0, symName: __RINvNtCsdGrGZaRBwMb_3syn10punctuated4foldNtNtB4_8lifetime8LifetimeNtNtB4_5token4PlusNtNvCs9jpTMRK2ijq_11yoke_derive16replace_lifetime15ReplaceLifetimeNvYB1k_NtNtNtB4_3gen4fold4Fold13fold_lifetimeEB1o_, symObjAddr: 0x60D0, symBinAddr: 0x63960, symSize: 0x5D0 }
  - { offset: 0xDC378, size: 0x8, addend: 0x0, symName: __RINvMsiX_NtCsdGrGZaRBwMb_3syn5tokenNtB7_5Brace8surroundNCINvMs1_Cs4L8YLU89NU9_12synstructureNtB10_11VariantInfo4eachQNCNvCs9jpTMRK2ijq_11yoke_derive20yokeable_derive_impls5_0NtCsaKzlTDPUHDb_11proc_macro211TokenStreamE0EB1V_, symObjAddr: 0x0, symBinAddr: 0x63F30, symSize: 0x130 }
  - { offset: 0xDCDBB, size: 0x8, addend: 0x0, symName: __RNvXs12_CsaKzlTDPUHDb_11proc_macro2NtB6_5IdentNtNtCsieiGu2EXtoJ_4core5clone5Clone5cloneCs9jpTMRK2ijq_11yoke_derive, symObjAddr: 0x2980, symBinAddr: 0x65540, symSize: 0x80 }
  - { offset: 0xDCDEF, size: 0x8, addend: 0x0, symName: __RNvXsK_CsaKzlTDPUHDb_11proc_macro2NtB5_11TokenStreamNtNtCsieiGu2EXtoJ_4core5clone5Clone5cloneCs9jpTMRK2ijq_11yoke_derive, symObjAddr: 0x2B20, symBinAddr: 0x656E0, symSize: 0x90 }
  - { offset: 0xDD76E, size: 0x8, addend: 0x0, symName: __RNvNvNtCsieiGu2EXtoJ_4core3ptr19copy_nonoverlapping18precondition_checkCs9jpTMRK2ijq_11yoke_derive, symObjAddr: 0x1440, symBinAddr: 0x64640, symSize: 0x4B0 }
  - { offset: 0xDDA7F, size: 0x8, addend: 0x0, symName: __RNvNvNtCsieiGu2EXtoJ_4core3ptr4copy18precondition_checkCs9jpTMRK2ijq_11yoke_derive, symObjAddr: 0x1F30, symBinAddr: 0x64AF0, symSize: 0x330 }
  - { offset: 0xDDD2D, size: 0x8, addend: 0x0, symName: __RNvNvNtCsieiGu2EXtoJ_4core3ptr7replace18precondition_checkCs9jpTMRK2ijq_11yoke_derive, symObjAddr: 0x2260, symBinAddr: 0x64E20, symSize: 0x1E0 }
  - { offset: 0xDFC37, size: 0x8, addend: 0x0, symName: __RINvXs_NtNtNtCsieiGu2EXtoJ_4core4iter8adapters6clonedINtB5_6ClonedINtNtNtBb_5slice4iter4IterNtCsaKzlTDPUHDb_11proc_macro25IdentEENtNtNtB9_6traits8iterator8Iterator4folduNCINvNtB7_3map8map_foldB1s_TB1s_uEuNCINvXs8_NtCsjK30CmJ87bX_9hashbrown3setINtB3p_7HashSetB1s_NtNtNtCsHUR1vrdMJt_3std4hash6random11RandomStateEINtNtB27_7collect6ExtendB1s_E6extendBP_E0NCINvNvB23_8for_each4callB38_NCINvXs1i_NtB3r_3mapINtB6h_7HashMapB1s_uB4c_EIB50_B38_E6extendINtB2M_3MapBP_B3g_EE0E0E0ECs9jpTMRK2ijq_11yoke_derive, symObjAddr: 0x1090, symBinAddr: 0x64360, symSize: 0x90 }
  - { offset: 0xDFCCD, size: 0x8, addend: 0x0, symName: __RNvXs_NtNtNtCsieiGu2EXtoJ_4core4iter8adapters6clonedINtB4_6ClonedINtNtNtBa_5slice4iter4IterNtCsaKzlTDPUHDb_11proc_macro25IdentEENtNtNtB8_6traits8iterator8Iterator9size_hintCs9jpTMRK2ijq_11yoke_derive, symObjAddr: 0x2BB0, symBinAddr: 0x65770, symSize: 0x30 }
  - { offset: 0xDFD5A, size: 0x8, addend: 0x0, symName: __RINvYINtNtNtNtCsieiGu2EXtoJ_4core4iter8adapters6cloned6ClonedINtNtNtBc_5slice4iter4IterNtCsaKzlTDPUHDb_11proc_macro25IdentEENtNtNtBa_6traits8iterator8Iterator3mapTB1n_uENCINvXs8_NtCsjK30CmJ87bX_9hashbrown3setINtB2Q_7HashSetB1n_NtNtNtCsHUR1vrdMJt_3std4hash6random11RandomStateEINtNtB22_7collect6ExtendB1n_E6extendB3_E0ECs9jpTMRK2ijq_11yoke_derive, symObjAddr: 0x1120, symBinAddr: 0x643F0, symSize: 0x20 }
  - { offset: 0xDFDB2, size: 0x8, addend: 0x0, symName: __RINvYINtNtNtNtCsieiGu2EXtoJ_4core4iter8adapters6cloned6ClonedINtNtNtBc_5slice4iter4IterNtCsaKzlTDPUHDb_11proc_macro25IdentEENtNtNtBa_6traits8iterator8Iterator7collectINtNtNtNtCsHUR1vrdMJt_3std11collections4hash3set7HashSetB1n_EECs9jpTMRK2ijq_11yoke_derive, symObjAddr: 0x1140, symBinAddr: 0x64410, symSize: 0x50 }
  - { offset: 0xDFE53, size: 0x8, addend: 0x0, symName: __RNvXNtNtNtCsieiGu2EXtoJ_4core4iter6traits7collectINtNtNtB6_8adapters6cloned6ClonedINtNtNtB8_5slice4iter4IterNtCsaKzlTDPUHDb_11proc_macro25IdentEENtB2_12IntoIterator9into_iterCs9jpTMRK2ijq_11yoke_derive, symObjAddr: 0x2960, symBinAddr: 0x65520, symSize: 0x20 }
  - { offset: 0xDFED4, size: 0x8, addend: 0x0, symName: __RNvMNtCsieiGu2EXtoJ_4core5sliceSNtCsaKzlTDPUHDb_11proc_macro25Ident4iterCs9jpTMRK2ijq_11yoke_derive, symObjAddr: 0x1190, symBinAddr: 0x64460, symSize: 0x20 }
  - { offset: 0xDFF32, size: 0x8, addend: 0x0, symName: __RNvMNtCsieiGu2EXtoJ_4core5sliceSTNtNtCsdGrGZaRBwMb_3syn4path11PathSegmentNtNtBz_5token7PathSepE11rotate_leftCs9jpTMRK2ijq_11yoke_derive, symObjAddr: 0x11B0, symBinAddr: 0x64480, symSize: 0x70 }
  - { offset: 0xE001B, size: 0x8, addend: 0x0, symName: __RNvMNtCsieiGu2EXtoJ_4core5sliceSTNtNtCsdGrGZaRBwMb_3syn4path11PathSegmentNtNtBz_5token7PathSepE12rotate_rightCs9jpTMRK2ijq_11yoke_derive, symObjAddr: 0x1220, symBinAddr: 0x644F0, symSize: 0x70 }
  - { offset: 0xE0104, size: 0x8, addend: 0x0, symName: __RNvMNtCsieiGu2EXtoJ_4core5sliceSTNtNtCsdGrGZaRBwMb_3syn4path15GenericArgumentNtNtBz_5token5CommaE11rotate_leftCs9jpTMRK2ijq_11yoke_derive, symObjAddr: 0x1290, symBinAddr: 0x64560, symSize: 0x70 }
  - { offset: 0xE01ED, size: 0x8, addend: 0x0, symName: __RNvMNtCsieiGu2EXtoJ_4core5sliceSTNtNtCsdGrGZaRBwMb_3syn4path15GenericArgumentNtNtBz_5token5CommaE12rotate_rightCs9jpTMRK2ijq_11yoke_derive, symObjAddr: 0x1300, symBinAddr: 0x645D0, symSize: 0x70 }
  - { offset: 0xE02BA, size: 0x8, addend: 0x0, symName: __RNvNvNtNtCsieiGu2EXtoJ_4core5slice3raw14from_raw_parts18precondition_checkCs9jpTMRK2ijq_11yoke_derive, symObjAddr: 0x2440, symBinAddr: 0x65000, symSize: 0x260 }
  - { offset: 0xE0488, size: 0x8, addend: 0x0, symName: __RNvNvNtNtCsieiGu2EXtoJ_4core5slice3raw18from_raw_parts_mut18precondition_checkCs9jpTMRK2ijq_11yoke_derive, symObjAddr: 0x26A0, symBinAddr: 0x65260, symSize: 0x260 }
  - { offset: 0xE0C66, size: 0x8, addend: 0x0, symName: __RNvXNtCsieiGu2EXtoJ_4core6borrowNtCsaKzlTDPUHDb_11proc_macro25IdentINtB2_6BorrowBu_E6borrowCs9jpTMRK2ijq_11yoke_derive, symObjAddr: 0x2950, symBinAddr: 0x65510, symSize: 0x10 }
  - { offset: 0xE6684, size: 0x8, addend: 0x0, symName: __RNvXs1_NtCslJiobkLta79_5alloc7raw_vecINtB5_6RawVecNtCsaKzlTDPUHDb_11proc_macro25IdentENtNtNtCsieiGu2EXtoJ_4core3ops4drop4Drop4dropCs9jpTMRK2ijq_11yoke_derive, symObjAddr: 0x2A00, symBinAddr: 0x655C0, symSize: 0x30 }
  - { offset: 0xE66C0, size: 0x8, addend: 0x0, symName: __RNvXs1_NtCslJiobkLta79_5alloc7raw_vecINtB5_6RawVecNtNtCsdGrGZaRBwMb_3syn8generics14WherePredicateENtNtNtCsieiGu2EXtoJ_4core3ops4drop4Drop4dropCs9jpTMRK2ijq_11yoke_derive, symObjAddr: 0x2A30, symBinAddr: 0x655F0, symSize: 0x30 }
  - { offset: 0xE66FC, size: 0x8, addend: 0x0, symName: __RNvXs1_NtCslJiobkLta79_5alloc7raw_vecINtB5_6RawVecNtNtCsdGrGZaRBwMb_3syn8generics9TypeParamENtNtNtCsieiGu2EXtoJ_4core3ops4drop4Drop4dropCs9jpTMRK2ijq_11yoke_derive, symObjAddr: 0x2A60, symBinAddr: 0x65620, symSize: 0x30 }
  - { offset: 0xE68AF, size: 0x8, addend: 0x0, symName: __RINvNvNtCsHUR1vrdMJt_3std9panicking12catch_unwind7do_callINtNtNtCsieiGu2EXtoJ_4core5panic11unwind_safe16AssertUnwindSafeNCINvNtNtCscKtU6MdFI5n_10proc_macro6bridge6client10run_clientNtB1Z_11TokenStreamINtNtB10_6option6OptionB2T_ENCNCINvMs6_B1Z_INtB1Z_6ClientNtB23_11TokenStreamB47_E7expand1NvCs9jpTMRK2ijq_11yoke_derive15yokeable_deriveE00E0EuEB4F_, symObjAddr: 0xFF0, symBinAddr: 0x642C0, symSize: 0x40 }
  - { offset: 0xE6978, size: 0x8, addend: 0x0, symName: __RINvNvNtCsHUR1vrdMJt_3std9panicking12catch_unwind8do_catchINtNtNtCsieiGu2EXtoJ_4core5panic11unwind_safe16AssertUnwindSafeNCINvNtNtCscKtU6MdFI5n_10proc_macro6bridge6client10run_clientNtB20_11TokenStreamINtNtB11_6option6OptionB2U_ENCNCINvMs6_B20_INtB20_6ClientNtB24_11TokenStreamB48_E7expand1NvCs9jpTMRK2ijq_11yoke_derive15yokeable_deriveE00E0EuEB4G_, symObjAddr: 0x1030, symBinAddr: 0x64300, symSize: 0x60 }
  - { offset: 0xE6BBB, size: 0x8, addend: 0x0, symName: __RNvXCsjK30CmJ87bX_9hashbrownNtCsaKzlTDPUHDb_11proc_macro25IdentINtB2_10EquivalentBq_E10equivalentCs9jpTMRK2ijq_11yoke_derive, symObjAddr: 0x2900, symBinAddr: 0x654C0, symSize: 0x50 }
  - { offset: 0xE7184, size: 0x8, addend: 0x0, symName: __RINvMsiX_NtCsdGrGZaRBwMb_3syn5tokenNtB7_5Brace8surroundNCINvMs1_Cs4L8YLU89NU9_12synstructureNtB10_11VariantInfo4eachQNCNvCs9jpTMRK2ijq_11yoke_derive20yokeable_derive_impls5_0NtCsaKzlTDPUHDb_11proc_macro211TokenStreamE0EB1V_, symObjAddr: 0x0, symBinAddr: 0x63F30, symSize: 0x130 }
  - { offset: 0xE7219, size: 0x8, addend: 0x0, symName: __RINvMsiX_NtCsdGrGZaRBwMb_3syn5tokenNtB7_5Brace8surroundNCINvMs1_Cs4L8YLU89NU9_12synstructureNtB10_11VariantInfo9constructNCNCNvCs9jpTMRK2ijq_11yoke_derive20yokeable_derive_impls4_00NtCsaKzlTDPUHDb_11proc_macro211TokenStreamEs_0EB21_, symObjAddr: 0x130, symBinAddr: 0x64060, symSize: 0x130 }
  - { offset: 0xE7287, size: 0x8, addend: 0x0, symName: __RINvMsjf_NtCsdGrGZaRBwMb_3syn5tokenNtB7_5Paren8surroundNCINvMs1_Cs4L8YLU89NU9_12synstructureNtB10_11VariantInfo9constructNCNCNvCs9jpTMRK2ijq_11yoke_derive20yokeable_derive_impls4_00NtCsaKzlTDPUHDb_11proc_macro211TokenStreamE0EB21_, symObjAddr: 0x260, symBinAddr: 0x64190, symSize: 0x130 }
  - { offset: 0xE76A2, size: 0x8, addend: 0x0, symName: __RNvXs5_NtCs9OU1sGv5X54_5quote9___privateINtB5_9RepInterpRNtCsaKzlTDPUHDb_11proc_macro25IdentENtNtB7_9to_tokens8ToTokens9to_tokensCs9jpTMRK2ijq_11yoke_derive, symObjAddr: 0x2A90, symBinAddr: 0x65650, symSize: 0x30 }
  - { offset: 0xE76E1, size: 0x8, addend: 0x0, symName: __RNvXs5_NtCs9OU1sGv5X54_5quote9___privateINtB5_9RepInterpRNtNtCsdGrGZaRBwMb_3syn8generics14WherePredicateENtNtB7_9to_tokens8ToTokens9to_tokensCs9jpTMRK2ijq_11yoke_derive, symObjAddr: 0x2AC0, symBinAddr: 0x65680, symSize: 0x30 }
  - { offset: 0xE7720, size: 0x8, addend: 0x0, symName: __RNvXs5_NtCs9OU1sGv5X54_5quote9___privateINtB5_9RepInterpRNtNtCsdGrGZaRBwMb_3syn8generics9TypeParamENtNtB7_9to_tokens8ToTokens9to_tokensCs9jpTMRK2ijq_11yoke_derive, symObjAddr: 0x2AF0, symBinAddr: 0x656B0, symSize: 0x30 }
  - { offset: 0xE78F6, size: 0x8, addend: 0x0, symName: __RINvMs1_Cs4L8YLU89NU9_12synstructureNtB6_11VariantInfo4eachQNCNvCs9jpTMRK2ijq_11yoke_derive20yokeable_derive_impls5_0NtCsaKzlTDPUHDb_11proc_macro211TokenStreamEB10_, symObjAddr: 0x0, symBinAddr: 0x657A0, symSize: 0x270 }
  - { offset: 0xE7B7C, size: 0x8, addend: 0x0, symName: __RNCINvMs1_Cs4L8YLU89NU9_12synstructureNtB8_11VariantInfo4eachQNCNvCs9jpTMRK2ijq_11yoke_derive20yokeable_derive_impls5_0NtCsaKzlTDPUHDb_11proc_macro211TokenStreamE0B12_, symObjAddr: 0x15E0, symBinAddr: 0x66D80, symSize: 0x80 }
  - { offset: 0xE7BE2, size: 0x8, addend: 0x0, symName: __RNCINvMs1_Cs4L8YLU89NU9_12synstructureNtB8_11VariantInfo9constructNCNCNvCs9jpTMRK2ijq_11yoke_derive20yokeable_derive_impls4_00NtCsaKzlTDPUHDb_11proc_macro211TokenStreamE0B18_, symObjAddr: 0x1660, symBinAddr: 0x66E00, symSize: 0x220 }
  - { offset: 0xE7C96, size: 0x8, addend: 0x0, symName: __RNCINvMs1_Cs4L8YLU89NU9_12synstructureNtB8_11VariantInfo9constructNCNCNvCs9jpTMRK2ijq_11yoke_derive20yokeable_derive_impls4_00NtCsaKzlTDPUHDb_11proc_macro211TokenStreamEs_0B18_, symObjAddr: 0x1880, symBinAddr: 0x67020, symSize: 0x310 }
  - { offset: 0xE83E4, size: 0x8, addend: 0x0, symName: __RNvXsA_NtCsaKzlTDPUHDb_11proc_macro23impNtB5_19DeferredTokenStreamNtNtCsieiGu2EXtoJ_4core5clone5Clone5cloneCs9jpTMRK2ijq_11yoke_derive, symObjAddr: 0x25A0, symBinAddr: 0x67D40, symSize: 0xA0 }
  - { offset: 0xE8416, size: 0x8, addend: 0x0, symName: __RNvXsF_NtCsaKzlTDPUHDb_11proc_macro23impNtB5_5IdentNtNtCsieiGu2EXtoJ_4core5clone5Clone5cloneCs9jpTMRK2ijq_11yoke_derive, symObjAddr: 0x26D0, symBinAddr: 0x67E70, symSize: 0x90 }
  - { offset: 0xE8486, size: 0x8, addend: 0x0, symName: __RNvXsz_NtCsaKzlTDPUHDb_11proc_macro23impNtB5_11TokenStreamNtNtCsieiGu2EXtoJ_4core5clone5Clone5cloneCs9jpTMRK2ijq_11yoke_derive, symObjAddr: 0x2CF0, symBinAddr: 0x68490, symSize: 0xB0 }
  - { offset: 0xE8590, size: 0x8, addend: 0x0, symName: __RNvXsA_NtCsaKzlTDPUHDb_11proc_macro28fallbackNtB5_5IdentNtNtCsieiGu2EXtoJ_4core5clone5Clone5cloneCs9jpTMRK2ijq_11yoke_derive, symObjAddr: 0x2640, symBinAddr: 0x67DE0, symSize: 0x90 }
  - { offset: 0xE85C4, size: 0x8, addend: 0x0, symName: __RNvXss_NtCsaKzlTDPUHDb_11proc_macro28fallbackNtB5_11TokenStreamNtNtCsieiGu2EXtoJ_4core5clone5Clone5cloneCs9jpTMRK2ijq_11yoke_derive, symObjAddr: 0x2CC0, symBinAddr: 0x68460, symSize: 0x20 }
  - { offset: 0xE85F6, size: 0x8, addend: 0x0, symName: __RNvXsu_NtCsaKzlTDPUHDb_11proc_macro28fallbackNtB5_4SpanNtNtCsieiGu2EXtoJ_4core5clone5Clone5cloneCs9jpTMRK2ijq_11yoke_derive, symObjAddr: 0x2CE0, symBinAddr: 0x68480, symSize: 0x10 }
  - { offset: 0xE93B3, size: 0x8, addend: 0x0, symName: __RNvNvMNtNtCsieiGu2EXtoJ_4core3ptr9const_ptrPp20offset_from_unsigned18precondition_checkCs9jpTMRK2ijq_11yoke_derive, symObjAddr: 0x21C0, symBinAddr: 0x67960, symSize: 0xA0 }
  - { offset: 0xEBEB8, size: 0x8, addend: 0x0, symName: __RINvXs2E_NtNtCsieiGu2EXtoJ_4core5slice4iterINtB7_4IterNtCsaKzlTDPUHDb_11proc_macro25IdentENtNtNtNtBb_4iter6traits8iterator8Iterator4folduNCINvNtNtB1w_8adapters3map8map_foldRBQ_BQ_uNvYBQ_NtNtBb_5clone5Clone5cloneNCIB2e_BQ_TBQ_uEuNCINvXs8_NtCsjK30CmJ87bX_9hashbrown3setINtB3N_7HashSetBQ_NtNtNtCsHUR1vrdMJt_3std4hash6random11RandomStateEINtNtB1u_7collect6ExtendBQ_E6extendINtNtB2i_6cloned6ClonedBF_EE0NCINvNvB1q_8for_each4callB3x_NCINvXs1i_NtB3P_3mapINtB71_7HashMapBQ_uB4z_EIB5n_B3x_E6extendINtB2g_3MapB5V_B3E_EE0E0E0E0ECs9jpTMRK2ijq_11yoke_derive, symObjAddr: 0xE20, symBinAddr: 0x665C0, symSize: 0x160 }
  - { offset: 0xEBFF9, size: 0x8, addend: 0x0, symName: __RINvXs2E_NtNtCsieiGu2EXtoJ_4core5slice4iterINtB7_4IterNtCsaKzlTDPUHDb_11proc_macro25IdentENtNtNtNtBb_4iter6traits8iterator8Iterator4folduNCINvNtNtB1w_8adapters3map8map_foldRBQ_NtNtCsdGrGZaRBwMb_3syn8generics14WherePredicateuNCNvCs9jpTMRK2ijq_11yoke_derive20yokeable_derive_impls0_0NCINvNvB1q_8for_each4callB2O_NCINvMsi_NtCslJiobkLta79_5alloc3vecINtB57_3VecB2O_E14extend_trustedINtB2g_3MapBF_B3A_EE0E0E0EB3E_, symObjAddr: 0xF80, symBinAddr: 0x66720, symSize: 0x190 }
  - { offset: 0xEC13A, size: 0x8, addend: 0x0, symName: __RINvXs2E_NtNtCsieiGu2EXtoJ_4core5slice4iterINtB7_4IterNtCsaKzlTDPUHDb_11proc_macro25IdentENtNtNtNtBb_4iter6traits8iterator8Iterator4folduNCINvNtNtB1w_8adapters3map8map_foldRBQ_NtNtCsdGrGZaRBwMb_3syn8generics14WherePredicateuNCNvCs9jpTMRK2ijq_11yoke_derive20yokeable_derive_impls2_0NCINvNvB1q_8for_each4callB2O_NCINvMsi_NtCslJiobkLta79_5alloc3vecINtB57_3VecB2O_E14extend_trustedINtB2g_3MapBF_B3A_EE0E0E0EB3E_, symObjAddr: 0x1110, symBinAddr: 0x668B0, symSize: 0x190 }
  - { offset: 0xEC27B, size: 0x8, addend: 0x0, symName: __RINvXs2E_NtNtCsieiGu2EXtoJ_4core5slice4iterINtB7_4IterNtNtCsdGrGZaRBwMb_3syn4attr9AttributeENtNtNtNtBb_4iter6traits8iterator8Iterator3anyNCNvCs9jpTMRK2ijq_11yoke_derive20yokeable_derive_impls1_0EB2f_, symObjAddr: 0x12A0, symBinAddr: 0x66A40, symSize: 0x90 }
  - { offset: 0xEC2E0, size: 0x8, addend: 0x0, symName: __RINvXs2E_NtNtCsieiGu2EXtoJ_4core5slice4iterINtB7_4IterNtNtCsdGrGZaRBwMb_3syn8generics9TypeParamENtNtNtNtBb_4iter6traits8iterator8Iterator4folduNCINvNtNtB1C_8adapters3map8map_foldRBQ_NtCsaKzlTDPUHDb_11proc_macro25IdentuNCNvCs9jpTMRK2ijq_11yoke_derive20yokeable_derive_impls_0NCINvNvB1w_8for_each4callB2U_NCINvMsi_NtCslJiobkLta79_5alloc3vecINtB50_3VecB2U_E14extend_trustedINtB2m_3MapBF_B3u_EE0E0E0EB3y_, symObjAddr: 0x1330, symBinAddr: 0x66AD0, symSize: 0x190 }
  - { offset: 0xEC421, size: 0x8, addend: 0x0, symName: __RNvXs2E_NtNtCsieiGu2EXtoJ_4core5slice4iterINtB6_4IterNtCsaKzlTDPUHDb_11proc_macro25IdentENtNtNtNtBa_4iter6traits8iterator8Iterator4nextCs9jpTMRK2ijq_11yoke_derive, symObjAddr: 0x2260, symBinAddr: 0x67A00, symSize: 0x90 }
  - { offset: 0xEC542, size: 0x8, addend: 0x0, symName: __RNvXs2E_NtNtCsieiGu2EXtoJ_4core5slice4iterINtB6_4IterNtCsaKzlTDPUHDb_11proc_macro25IdentENtNtNtNtBa_4iter6traits8iterator8Iterator9size_hintCs9jpTMRK2ijq_11yoke_derive, symObjAddr: 0x22F0, symBinAddr: 0x67A90, symSize: 0x60 }
  - { offset: 0xEC5B1, size: 0x8, addend: 0x0, symName: __RNvXs2E_NtNtCsieiGu2EXtoJ_4core5slice4iterINtB6_4IterNtNtCsdGrGZaRBwMb_3syn8generics9TypeParamENtNtNtNtBa_4iter6traits8iterator8Iterator4nextCs9jpTMRK2ijq_11yoke_derive, symObjAddr: 0x2350, symBinAddr: 0x67AF0, symSize: 0x90 }
  - { offset: 0xEC6D2, size: 0x8, addend: 0x0, symName: __RNvXs2E_NtNtCsieiGu2EXtoJ_4core5slice4iterINtB6_4IterNtNtCsdGrGZaRBwMb_3syn8generics9TypeParamENtNtNtNtBa_4iter6traits8iterator8Iterator9size_hintCs9jpTMRK2ijq_11yoke_derive, symObjAddr: 0x23E0, symBinAddr: 0x67B80, symSize: 0x60 }
  - { offset: 0xEC7EF, size: 0x8, addend: 0x0, symName: __RNvXs2M_NtNtCsieiGu2EXtoJ_4core5slice4iterINtB6_7IterMutNtCs4L8YLU89NU9_12synstructure11BindingInfoENtNtNtNtBa_4iter6traits8iterator8Iterator4nextCs9jpTMRK2ijq_11yoke_derive, symObjAddr: 0x2440, symBinAddr: 0x67BE0, symSize: 0x90 }
  - { offset: 0xEC8FB, size: 0x8, addend: 0x0, symName: __RNvXs2M_NtNtCsieiGu2EXtoJ_4core5slice4iterINtB6_7IterMutNtCs4L8YLU89NU9_12synstructure11VariantInfoENtNtNtNtBa_4iter6traits8iterator8Iterator4nextCs9jpTMRK2ijq_11yoke_derive, symObjAddr: 0x24D0, symBinAddr: 0x67C70, symSize: 0x90 }
  - { offset: 0xECB43, size: 0x8, addend: 0x0, symName: __RNvMNtCsieiGu2EXtoJ_4core5sliceSTNtNtCsdGrGZaRBwMb_3syn4item5FnArgNtNtBz_5token5CommaE11rotate_leftCs9jpTMRK2ijq_11yoke_derive, symObjAddr: 0x1B90, symBinAddr: 0x67330, symSize: 0x70 }
  - { offset: 0xECC2C, size: 0x8, addend: 0x0, symName: __RNvMNtCsieiGu2EXtoJ_4core5sliceSTNtNtCsdGrGZaRBwMb_3syn4item5FnArgNtNtBz_5token5CommaE12rotate_rightCs9jpTMRK2ijq_11yoke_derive, symObjAddr: 0x1C00, symBinAddr: 0x673A0, symSize: 0x70 }
  - { offset: 0xECD15, size: 0x8, addend: 0x0, symName: __RNvMNtCsieiGu2EXtoJ_4core5sliceSTNtNtCsdGrGZaRBwMb_3syn4item7UseTreeNtNtBz_5token5CommaE11rotate_leftCs9jpTMRK2ijq_11yoke_derive, symObjAddr: 0x1C70, symBinAddr: 0x67410, symSize: 0x70 }
  - { offset: 0xECDFE, size: 0x8, addend: 0x0, symName: __RNvMNtCsieiGu2EXtoJ_4core5sliceSTNtNtCsdGrGZaRBwMb_3syn4item7UseTreeNtNtBz_5token5CommaE12rotate_rightCs9jpTMRK2ijq_11yoke_derive, symObjAddr: 0x1CE0, symBinAddr: 0x67480, symSize: 0x70 }
  - { offset: 0xECF0E, size: 0x8, addend: 0x0, symName: __RNvMNtCsieiGu2EXtoJ_4core5sliceSh15copy_from_sliceCs9jpTMRK2ijq_11yoke_derive, symObjAddr: 0x1D50, symBinAddr: 0x674F0, symSize: 0xA0 }
  - { offset: 0xECFC8, size: 0x8, addend: 0x0, symName: __RINvYINtNtNtCsieiGu2EXtoJ_4core5slice4iter4IterNtCsaKzlTDPUHDb_11proc_macro25IdentENtNtNtNtBa_4iter6traits8iterator8Iterator3mapBJ_NvYBJ_NtNtBa_5clone5Clone5cloneECs9jpTMRK2ijq_11yoke_derive, symObjAddr: 0x14C0, symBinAddr: 0x66C60, symSize: 0x20 }
  - { offset: 0xED020, size: 0x8, addend: 0x0, symName: __RINvYINtNtNtCsieiGu2EXtoJ_4core5slice4iter4IterNtCsaKzlTDPUHDb_11proc_macro25IdentENtNtNtNtBa_4iter6traits8iterator8Iterator3mapNtNtCsdGrGZaRBwMb_3syn8generics14WherePredicateNCNvCs9jpTMRK2ijq_11yoke_derive20yokeable_derive_impls0_0EB2R_, symObjAddr: 0x14E0, symBinAddr: 0x66C80, symSize: 0x20 }
  - { offset: 0xED078, size: 0x8, addend: 0x0, symName: __RINvYINtNtNtCsieiGu2EXtoJ_4core5slice4iter4IterNtCsaKzlTDPUHDb_11proc_macro25IdentENtNtNtNtBa_4iter6traits8iterator8Iterator3mapNtNtCsdGrGZaRBwMb_3syn8generics14WherePredicateNCNvCs9jpTMRK2ijq_11yoke_derive20yokeable_derive_impls2_0EB2R_, symObjAddr: 0x1500, symBinAddr: 0x66CA0, symSize: 0x20 }
  - { offset: 0xED0D0, size: 0x8, addend: 0x0, symName: __RINvYINtNtNtCsieiGu2EXtoJ_4core5slice4iter4IterNtCsaKzlTDPUHDb_11proc_macro25IdentENtNtNtNtBa_4iter6traits8iterator8Iterator6clonedBJ_ECs9jpTMRK2ijq_11yoke_derive, symObjAddr: 0x1520, symBinAddr: 0x66CC0, symSize: 0x20 }
  - { offset: 0xED110, size: 0x8, addend: 0x0, symName: __RINvYINtNtNtCsieiGu2EXtoJ_4core5slice4iter4IterNtNtCsdGrGZaRBwMb_3syn8generics9TypeParamENtNtNtNtBa_4iter6traits8iterator8Iterator3mapNtCsaKzlTDPUHDb_11proc_macro25IdentNCNvCs9jpTMRK2ijq_11yoke_derive20yokeable_derive_impls_0EB2L_, symObjAddr: 0x1540, symBinAddr: 0x66CE0, symSize: 0x20 }
  - { offset: 0xED396, size: 0x8, addend: 0x0, symName: __RINvYNtNtNtCsHUR1vrdMJt_3std4hash6random11RandomStateNtNtCsieiGu2EXtoJ_4core4hash11BuildHasher8hash_oneRNtCsaKzlTDPUHDb_11proc_macro25IdentECs9jpTMRK2ijq_11yoke_derive, symObjAddr: 0x1560, symBinAddr: 0x66D00, symSize: 0x80 }
  - { offset: 0xED91E, size: 0x8, addend: 0x0, symName: __RNvXs_NtCslJiobkLta79_5alloc5allocNtB4_6GlobalNtNtCsieiGu2EXtoJ_4core5alloc9Allocator10deallocateCs9jpTMRK2ijq_11yoke_derive, symObjAddr: 0x2760, symBinAddr: 0x67F00, symSize: 0x70 }
  - { offset: 0xED9E7, size: 0x8, addend: 0x0, symName: __RNvNtCslJiobkLta79_5alloc5alloc15exchange_mallocCs9jpTMRK2ijq_11yoke_derive, symObjAddr: 0x2120, symBinAddr: 0x678C0, symSize: 0xA0 }
  - { offset: 0xF36B8, size: 0x8, addend: 0x0, symName: __RINvNtCsdGrGZaRBwMb_3syn11parse_quote5parseNtNtB4_8generics14WherePredicateECs9jpTMRK2ijq_11yoke_derive, symObjAddr: 0xD40, symBinAddr: 0x664E0, symSize: 0xE0 }
  - { offset: 0xF3723, size: 0x8, addend: 0x0, symName: __RNvXsh_NtCsdGrGZaRBwMb_3syn5parseNvYNtNtB7_8generics14WherePredicateNtNtB7_11parse_quote10ParseQuote5parseNtB5_6Parser6parse2Cs9jpTMRK2ijq_11yoke_derive, symObjAddr: 0x28C0, symBinAddr: 0x68060, symSize: 0x400 }
  - { offset: 0xF4116, size: 0x8, addend: 0x0, symName: __RNvXs2_NtNtCsHUR1vrdMJt_3std4hash6randomNtB5_13DefaultHasherNtNtCsieiGu2EXtoJ_4core4hash6Hasher6finishCs9jpTMRK2ijq_11yoke_derive, symObjAddr: 0x2560, symBinAddr: 0x67D00, symSize: 0x20 }
  - { offset: 0xF4165, size: 0x8, addend: 0x0, symName: __RNvXs3_NtNtCsHUR1vrdMJt_3std4hash6randomNtB5_11RandomStateNtNtCsieiGu2EXtoJ_4core7default7Default7defaultCs9jpTMRK2ijq_11yoke_derive, symObjAddr: 0x2580, symBinAddr: 0x67D20, symSize: 0x20 }
  - { offset: 0xF419D, size: 0x8, addend: 0x0, symName: __RNvXs_NtNtCsHUR1vrdMJt_3std4hash6randomNtB4_11RandomStateNtNtCsieiGu2EXtoJ_4core4hash11BuildHasher12build_hasherCs9jpTMRK2ijq_11yoke_derive, symObjAddr: 0x27D0, symBinAddr: 0x67F70, symSize: 0xF0 }
  - { offset: 0xF43C4, size: 0x8, addend: 0x0, symName: __RINvMs1_Cs4L8YLU89NU9_12synstructureNtB6_11VariantInfo4eachQNCNvCs9jpTMRK2ijq_11yoke_derive20yokeable_derive_impls5_0NtCsaKzlTDPUHDb_11proc_macro211TokenStreamEB10_, symObjAddr: 0x0, symBinAddr: 0x657A0, symSize: 0x270 }
  - { offset: 0xF44AC, size: 0x8, addend: 0x0, symName: __RINvMs1_Cs4L8YLU89NU9_12synstructureNtB6_11VariantInfo9bind_withQNCNvCs9jpTMRK2ijq_11yoke_derive20yokeable_derive_impls3_0EB15_, symObjAddr: 0x270, symBinAddr: 0x65A10, symSize: 0xC0 }
  - { offset: 0xF4520, size: 0x8, addend: 0x0, symName: __RINvMs1_Cs4L8YLU89NU9_12synstructureNtB6_11VariantInfo9constructNCNCNvCs9jpTMRK2ijq_11yoke_derive20yokeable_derive_impls4_00NtCsaKzlTDPUHDb_11proc_macro211TokenStreamEB16_, symObjAddr: 0x330, symBinAddr: 0x65AD0, symSize: 0x290 }
  - { offset: 0xF45F1, size: 0x8, addend: 0x0, symName: __RINvMs2_Cs4L8YLU89NU9_12synstructureNtB6_9Structure12each_variantNCNvCs9jpTMRK2ijq_11yoke_derive20yokeable_derive_impls4_0NtCsaKzlTDPUHDb_11proc_macro211TokenStreamEB15_, symObjAddr: 0x5C0, symBinAddr: 0x65D60, symSize: 0x410 }
  - { offset: 0xF46ED, size: 0x8, addend: 0x0, symName: __RINvMs2_Cs4L8YLU89NU9_12synstructureNtB6_9Structure4eachNCNvCs9jpTMRK2ijq_11yoke_derive20yokeable_derive_impls5_0NtCsaKzlTDPUHDb_11proc_macro211TokenStreamEBW_, symObjAddr: 0x9D0, symBinAddr: 0x66170, symSize: 0x280 }
  - { offset: 0xF479A, size: 0x8, addend: 0x0, symName: __RINvMs2_Cs4L8YLU89NU9_12synstructureNtB6_9Structure9bind_withNCNvCs9jpTMRK2ijq_11yoke_derive20yokeable_derive_impls3_0EB11_, symObjAddr: 0xC50, symBinAddr: 0x663F0, symSize: 0xB0 }
  - { offset: 0xF495B, size: 0x8, addend: 0x0, symName: __RINvMs_NtNtCsieiGu2EXtoJ_4core3fmt2rtNtB7_9Arguments6new_v1Kj3_Kj2_ECs9jpTMRK2ijq_11yoke_derive, symObjAddr: 0xD00, symBinAddr: 0x664A0, symSize: 0x40 }
  - { offset: 0xF4CBB, size: 0x8, addend: 0x0, symName: __RNvMNtCslJiobkLta79_5alloc5allocNtB2_6Global10alloc_implCs9jpTMRK2ijq_11yoke_derive, symObjAddr: 0x1DF0, symBinAddr: 0x67590, symSize: 0x290 }
  - { offset: 0xF50E4, size: 0x8, addend: 0x0, symName: __RNvMs4_NtNtCsieiGu2EXtoJ_4core5slice4iterINtB5_4IterNtCsaKzlTDPUHDb_11proc_macro25IdentE3newCs9jpTMRK2ijq_11yoke_derive, symObjAddr: 0x2080, symBinAddr: 0x67820, symSize: 0x50 }
  - { offset: 0xF529E, size: 0x8, addend: 0x0, symName: __RNvMs4_NtNtCsieiGu2EXtoJ_4core5slice4iterINtB5_4IterNtNtCsdGrGZaRBwMb_3syn8generics9TypeParamE3newCs9jpTMRK2ijq_11yoke_derive, symObjAddr: 0x20D0, symBinAddr: 0x67870, symSize: 0x50 }
  - { offset: 0xF58A0, size: 0x8, addend: 0x0, symName: __RINvMNtNtCsieiGu2EXtoJ_4core3fmt2rtNtB3_8Argument11new_displayNtNtNtCsdGrGZaRBwMb_3syn4attr7parsing16DisplayAttrStyleECs9jpTMRK2ijq_11yoke_derive, symObjAddr: 0x0, symBinAddr: 0x68540, symSize: 0x30 }
  - { offset: 0xF5CEC, size: 0x8, addend: 0x0, symName: __RNvXsV_NtCscKtU6MdFI5n_10proc_macro6bridgeINtNtCsieiGu2EXtoJ_4core6result6ResultINtNtBJ_6option6OptionNtNtB5_6client11TokenStreamEuEINtNtB5_3rpc6EncodeuE6encodeCs9jpTMRK2ijq_11yoke_derive, symObjAddr: 0x2CA0, symBinAddr: 0x6B1E0, symSize: 0xE0 }
  - { offset: 0xF5DB0, size: 0x8, addend: 0x0, symName: __RNvXsV_NtCscKtU6MdFI5n_10proc_macro6bridgeINtNtCsieiGu2EXtoJ_4core6result6ResultuNtNtB5_3rpc12PanicMessageEINtB1j_6EncodeuE6encodeCs9jpTMRK2ijq_11yoke_derive, symObjAddr: 0x2D80, symBinAddr: 0x6B2C0, symSize: 0x120 }
  - { offset: 0xF6A50, size: 0x8, addend: 0x0, symName: __RNvNvMs1_NtNtCsieiGu2EXtoJ_4core3ptr8non_nullINtB7_7NonNullpE13new_unchecked18precondition_checkCs9jpTMRK2ijq_11yoke_derive, symObjAddr: 0x20D0, symBinAddr: 0x6A610, symSize: 0x90 }
  - { offset: 0xF7823, size: 0x8, addend: 0x0, symName: __RNvXsp_NtCsieiGu2EXtoJ_4core6resultINtB5_6ResultINtNtNtCslJiobkLta79_5alloc3vec13in_place_drop11InPlaceDropNtNtCsdGrGZaRBwMb_3syn4attr9AttributeEzENtNtNtB7_3ops9try_trait3Try11from_outputCs9jpTMRK2ijq_11yoke_derive, symObjAddr: 0x2EA0, symBinAddr: 0x6B3E0, symSize: 0x20 }
  - { offset: 0xF7863, size: 0x8, addend: 0x0, symName: __RNvXsp_NtCsieiGu2EXtoJ_4core6resultINtB5_6ResultINtNtNtCslJiobkLta79_5alloc3vec13in_place_drop11InPlaceDropNtNtCsdGrGZaRBwMb_3syn4attr9AttributeEzENtNtNtB7_3ops9try_trait3Try6branchCs9jpTMRK2ijq_11yoke_derive, symObjAddr: 0x2EC0, symBinAddr: 0x6B400, symSize: 0x30 }
  - { offset: 0xF78C1, size: 0x8, addend: 0x0, symName: __RNvXsp_NtCsieiGu2EXtoJ_4core6resultINtB5_6ResultINtNtNtCslJiobkLta79_5alloc3vec13in_place_drop11InPlaceDropNtNtCsdGrGZaRBwMb_3syn4expr3ArmEzENtNtNtB7_3ops9try_trait3Try11from_outputCs9jpTMRK2ijq_11yoke_derive, symObjAddr: 0x2EF0, symBinAddr: 0x6B430, symSize: 0x20 }
  - { offset: 0xF7901, size: 0x8, addend: 0x0, symName: __RNvXsp_NtCsieiGu2EXtoJ_4core6resultINtB5_6ResultINtNtNtCslJiobkLta79_5alloc3vec13in_place_drop11InPlaceDropNtNtCsdGrGZaRBwMb_3syn4expr3ArmEzENtNtNtB7_3ops9try_trait3Try6branchCs9jpTMRK2ijq_11yoke_derive, symObjAddr: 0x2F10, symBinAddr: 0x6B450, symSize: 0x30 }
  - { offset: 0xF795F, size: 0x8, addend: 0x0, symName: __RNvXsp_NtCsieiGu2EXtoJ_4core6resultINtB5_6ResultINtNtNtCslJiobkLta79_5alloc3vec13in_place_drop11InPlaceDropNtNtCsdGrGZaRBwMb_3syn4item11ForeignItemEzENtNtNtB7_3ops9try_trait3Try11from_outputCs9jpTMRK2ijq_11yoke_derive, symObjAddr: 0x2F40, symBinAddr: 0x6B480, symSize: 0x20 }
  - { offset: 0xF799F, size: 0x8, addend: 0x0, symName: __RNvXsp_NtCsieiGu2EXtoJ_4core6resultINtB5_6ResultINtNtNtCslJiobkLta79_5alloc3vec13in_place_drop11InPlaceDropNtNtCsdGrGZaRBwMb_3syn4item11ForeignItemEzENtNtNtB7_3ops9try_trait3Try6branchCs9jpTMRK2ijq_11yoke_derive, symObjAddr: 0x2F60, symBinAddr: 0x6B4A0, symSize: 0x30 }
  - { offset: 0xF79FD, size: 0x8, addend: 0x0, symName: __RNvXsp_NtCsieiGu2EXtoJ_4core6resultINtB5_6ResultINtNtNtCslJiobkLta79_5alloc3vec13in_place_drop11InPlaceDropNtNtCsdGrGZaRBwMb_3syn4item4ItemEzENtNtNtB7_3ops9try_trait3Try11from_outputCs9jpTMRK2ijq_11yoke_derive, symObjAddr: 0x2F90, symBinAddr: 0x6B4D0, symSize: 0x20 }
  - { offset: 0xF7A3D, size: 0x8, addend: 0x0, symName: __RNvXsp_NtCsieiGu2EXtoJ_4core6resultINtB5_6ResultINtNtNtCslJiobkLta79_5alloc3vec13in_place_drop11InPlaceDropNtNtCsdGrGZaRBwMb_3syn4item4ItemEzENtNtNtB7_3ops9try_trait3Try6branchCs9jpTMRK2ijq_11yoke_derive, symObjAddr: 0x2FB0, symBinAddr: 0x6B4F0, symSize: 0x30 }
  - { offset: 0xF7A9B, size: 0x8, addend: 0x0, symName: __RNvXsp_NtCsieiGu2EXtoJ_4core6resultINtB5_6ResultINtNtNtCslJiobkLta79_5alloc3vec13in_place_drop11InPlaceDropNtNtCsdGrGZaRBwMb_3syn4item8ImplItemEzENtNtNtB7_3ops9try_trait3Try11from_outputCs9jpTMRK2ijq_11yoke_derive, symObjAddr: 0x2FE0, symBinAddr: 0x6B520, symSize: 0x20 }
  - { offset: 0xF7ADB, size: 0x8, addend: 0x0, symName: __RNvXsp_NtCsieiGu2EXtoJ_4core6resultINtB5_6ResultINtNtNtCslJiobkLta79_5alloc3vec13in_place_drop11InPlaceDropNtNtCsdGrGZaRBwMb_3syn4item8ImplItemEzENtNtNtB7_3ops9try_trait3Try6branchCs9jpTMRK2ijq_11yoke_derive, symObjAddr: 0x3000, symBinAddr: 0x6B540, symSize: 0x30 }
  - { offset: 0xF7B39, size: 0x8, addend: 0x0, symName: __RNvXsp_NtCsieiGu2EXtoJ_4core6resultINtB5_6ResultINtNtNtCslJiobkLta79_5alloc3vec13in_place_drop11InPlaceDropNtNtCsdGrGZaRBwMb_3syn4item9TraitItemEzENtNtNtB7_3ops9try_trait3Try11from_outputCs9jpTMRK2ijq_11yoke_derive, symObjAddr: 0x3030, symBinAddr: 0x6B570, symSize: 0x20 }
  - { offset: 0xF7B79, size: 0x8, addend: 0x0, symName: __RNvXsp_NtCsieiGu2EXtoJ_4core6resultINtB5_6ResultINtNtNtCslJiobkLta79_5alloc3vec13in_place_drop11InPlaceDropNtNtCsdGrGZaRBwMb_3syn4item9TraitItemEzENtNtNtB7_3ops9try_trait3Try6branchCs9jpTMRK2ijq_11yoke_derive, symObjAddr: 0x3050, symBinAddr: 0x6B590, symSize: 0x30 }
  - { offset: 0xF7BD7, size: 0x8, addend: 0x0, symName: __RNvXsp_NtCsieiGu2EXtoJ_4core6resultINtB5_6ResultINtNtNtCslJiobkLta79_5alloc3vec13in_place_drop11InPlaceDropNtNtCsdGrGZaRBwMb_3syn4stmt4StmtEzENtNtNtB7_3ops9try_trait3Try11from_outputCs9jpTMRK2ijq_11yoke_derive, symObjAddr: 0x3080, symBinAddr: 0x6B5C0, symSize: 0x20 }
  - { offset: 0xF7C17, size: 0x8, addend: 0x0, symName: __RNvXsp_NtCsieiGu2EXtoJ_4core6resultINtB5_6ResultINtNtNtCslJiobkLta79_5alloc3vec13in_place_drop11InPlaceDropNtNtCsdGrGZaRBwMb_3syn4stmt4StmtEzENtNtNtB7_3ops9try_trait3Try6branchCs9jpTMRK2ijq_11yoke_derive, symObjAddr: 0x30A0, symBinAddr: 0x6B5E0, symSize: 0x30 }
  - { offset: 0xF7C75, size: 0x8, addend: 0x0, symName: __RNvXsp_NtCsieiGu2EXtoJ_4core6resultINtB5_6ResultNtNtCsdGrGZaRBwMb_3syn6derive11DeriveInputNtNtBO_5error5ErrorENtNtNtB7_3ops9try_trait3Try6branchCs9jpTMRK2ijq_11yoke_derive, symObjAddr: 0x30D0, symBinAddr: 0x6B610, symSize: 0xE0 }
  - { offset: 0xFA05E, size: 0x8, addend: 0x0, symName: __RINvXs0_NtNtNtCsieiGu2EXtoJ_4core4iter8adapters3mapINtB6_3MapINtNtB8_6cloned6ClonedINtNtNtBc_5slice4iter4IterNtCsaKzlTDPUHDb_11proc_macro25IdentEENCINvXs8_NtCsjK30CmJ87bX_9hashbrown3setINtB2t_7HashSetB1J_NtNtNtCsHUR1vrdMJt_3std4hash6random11RandomStateEINtNtNtBa_6traits7collect6ExtendB1J_E6extendBX_E0ENtNtB48_8iterator8Iterator4folduNCINvNvB4R_8for_each4callTB1J_uENCINvXs1i_NtB2v_3mapINtB63_7HashMapB1J_uB3g_EIB44_B5M_E6extendBN_E0E0ECs9jpTMRK2ijq_11yoke_derive, symObjAddr: 0x80, symBinAddr: 0x685C0, symSize: 0x20 }
  - { offset: 0xFA0CF, size: 0x8, addend: 0x0, symName: __RINvXs0_NtNtNtCsieiGu2EXtoJ_4core4iter8adapters3mapINtB6_3MapINtNtNtBc_5slice4iter4IterNtCsaKzlTDPUHDb_11proc_macro25IdentENCNvCs9jpTMRK2ijq_11yoke_derive20yokeable_derive_impls0_0ENtNtNtBa_6traits8iterator8Iterator4folduNCINvNvB2T_8for_each4callNtNtCsdGrGZaRBwMb_3syn8generics14WherePredicateNCINvMsi_NtCslJiobkLta79_5alloc3vecINtB4Q_3VecB3W_E14extend_trustedBN_E0E0EB21_, symObjAddr: 0xA0, symBinAddr: 0x685E0, symSize: 0x40 }
  - { offset: 0xFA166, size: 0x8, addend: 0x0, symName: __RINvXs0_NtNtNtCsieiGu2EXtoJ_4core4iter8adapters3mapINtB6_3MapINtNtNtBc_5slice4iter4IterNtCsaKzlTDPUHDb_11proc_macro25IdentENCNvCs9jpTMRK2ijq_11yoke_derive20yokeable_derive_impls2_0ENtNtNtBa_6traits8iterator8Iterator4folduNCINvNvB2T_8for_each4callNtNtCsdGrGZaRBwMb_3syn8generics14WherePredicateNCINvMsi_NtCslJiobkLta79_5alloc3vecINtB4Q_3VecB3W_E14extend_trustedBN_E0E0EB21_, symObjAddr: 0xE0, symBinAddr: 0x68620, symSize: 0x40 }
  - { offset: 0xFA1FD, size: 0x8, addend: 0x0, symName: __RINvXs0_NtNtNtCsieiGu2EXtoJ_4core4iter8adapters3mapINtB6_3MapINtNtNtBc_5slice4iter4IterNtNtCsdGrGZaRBwMb_3syn8generics9TypeParamENCNvCs9jpTMRK2ijq_11yoke_derive20yokeable_derive_impls_0ENtNtNtBa_6traits8iterator8Iterator4folduNCINvNvB2Y_8for_each4callNtCsaKzlTDPUHDb_11proc_macro25IdentNCINvMsi_NtCslJiobkLta79_5alloc3vecINtB4J_3VecB41_E14extend_trustedBN_E0E0EB27_, symObjAddr: 0x120, symBinAddr: 0x68660, symSize: 0x40 }
  - { offset: 0xFA294, size: 0x8, addend: 0x0, symName: __RINvXs0_NtNtNtCsieiGu2EXtoJ_4core4iter8adapters3mapINtB6_3MapINtNtNtCslJiobkLta79_5alloc3vec9into_iter8IntoIterNtNtCsdGrGZaRBwMb_3syn4attr9AttributeENCINvNtNtB1P_3gen4fold8fold_vecB1L_NtNvCs9jpTMRK2ijq_11yoke_derive16replace_lifetime15ReplaceLifetimeNvYB2W_NtB2s_4Fold14fold_attributeE0ENtNtNtBa_6traits8iterator8Iterator8try_foldINtNtB12_13in_place_drop11InPlaceDropB1L_ENCINvNtB12_16in_place_collect24write_in_place_with_dropB1L_E0INtNtBc_6result6ResultB5i_zEEB30_, symObjAddr: 0x160, symBinAddr: 0x686A0, symSize: 0x40 }
  - { offset: 0xFA312, size: 0x8, addend: 0x0, symName: __RINvXs0_NtNtNtCsieiGu2EXtoJ_4core4iter8adapters3mapINtB6_3MapINtNtNtCslJiobkLta79_5alloc3vec9into_iter8IntoIterNtNtCsdGrGZaRBwMb_3syn4expr3ArmENCINvNtNtB1P_3gen4fold8fold_vecB1L_NtNvCs9jpTMRK2ijq_11yoke_derive16replace_lifetime15ReplaceLifetimeNvYB2Q_NtB2m_4Fold8fold_armE0ENtNtNtBa_6traits8iterator8Iterator8try_foldINtNtB12_13in_place_drop11InPlaceDropB1L_ENCINvNtB12_16in_place_collect24write_in_place_with_dropB1L_E0INtNtBc_6result6ResultB55_zEEB2U_, symObjAddr: 0x1A0, symBinAddr: 0x686E0, symSize: 0x40 }
  - { offset: 0xFA390, size: 0x8, addend: 0x0, symName: __RINvXs0_NtNtNtCsieiGu2EXtoJ_4core4iter8adapters3mapINtB6_3MapINtNtNtCslJiobkLta79_5alloc3vec9into_iter8IntoIterNtNtCsdGrGZaRBwMb_3syn4item11ForeignItemENCINvNtNtB1P_3gen4fold8fold_vecB1L_NtNvCs9jpTMRK2ijq_11yoke_derive16replace_lifetime15ReplaceLifetimeNvYB2Z_NtB2v_4Fold17fold_foreign_itemE0ENtNtNtBa_6traits8iterator8Iterator8try_foldINtNtB12_13in_place_drop11InPlaceDropB1L_ENCINvNtB12_16in_place_collect24write_in_place_with_dropB1L_E0INtNtBc_6result6ResultB5o_zEEB33_, symObjAddr: 0x1E0, symBinAddr: 0x68720, symSize: 0x40 }
  - { offset: 0xFA40E, size: 0x8, addend: 0x0, symName: __RINvXs0_NtNtNtCsieiGu2EXtoJ_4core4iter8adapters3mapINtB6_3MapINtNtNtCslJiobkLta79_5alloc3vec9into_iter8IntoIterNtNtCsdGrGZaRBwMb_3syn4item4ItemENCINvNtNtB1P_3gen4fold8fold_vecB1L_NtNvCs9jpTMRK2ijq_11yoke_derive16replace_lifetime15ReplaceLifetimeNvYB2R_NtB2n_4Fold9fold_itemE0ENtNtNtBa_6traits8iterator8Iterator8try_foldINtNtB12_13in_place_drop11InPlaceDropB1L_ENCINvNtB12_16in_place_collect24write_in_place_with_dropB1L_E0INtNtBc_6result6ResultB57_zEEB2V_, symObjAddr: 0x220, symBinAddr: 0x68760, symSize: 0x40 }
  - { offset: 0xFA48C, size: 0x8, addend: 0x0, symName: __RINvXs0_NtNtNtCsieiGu2EXtoJ_4core4iter8adapters3mapINtB6_3MapINtNtNtCslJiobkLta79_5alloc3vec9into_iter8IntoIterNtNtCsdGrGZaRBwMb_3syn4item8ImplItemENCINvNtNtB1P_3gen4fold8fold_vecB1L_NtNvCs9jpTMRK2ijq_11yoke_derive16replace_lifetime15ReplaceLifetimeNvYB2V_NtB2r_4Fold14fold_impl_itemE0ENtNtNtBa_6traits8iterator8Iterator8try_foldINtNtB12_13in_place_drop11InPlaceDropB1L_ENCINvNtB12_16in_place_collect24write_in_place_with_dropB1L_E0INtNtBc_6result6ResultB5h_zEEB2Z_, symObjAddr: 0x260, symBinAddr: 0x687A0, symSize: 0x40 }
  - { offset: 0xFA50A, size: 0x8, addend: 0x0, symName: __RINvXs0_NtNtNtCsieiGu2EXtoJ_4core4iter8adapters3mapINtB6_3MapINtNtNtCslJiobkLta79_5alloc3vec9into_iter8IntoIterNtNtCsdGrGZaRBwMb_3syn4item9TraitItemENCINvNtNtB1P_3gen4fold8fold_vecB1L_NtNvCs9jpTMRK2ijq_11yoke_derive16replace_lifetime15ReplaceLifetimeNvYB2W_NtB2s_4Fold15fold_trait_itemE0ENtNtNtBa_6traits8iterator8Iterator8try_foldINtNtB12_13in_place_drop11InPlaceDropB1L_ENCINvNtB12_16in_place_collect24write_in_place_with_dropB1L_E0INtNtBc_6result6ResultB5j_zEEB30_, symObjAddr: 0x2A0, symBinAddr: 0x687E0, symSize: 0x40 }
  - { offset: 0xFA588, size: 0x8, addend: 0x0, symName: __RINvXs0_NtNtNtCsieiGu2EXtoJ_4core4iter8adapters3mapINtB6_3MapINtNtNtCslJiobkLta79_5alloc3vec9into_iter8IntoIterNtNtCsdGrGZaRBwMb_3syn4stmt4StmtENCINvNtNtB1P_3gen4fold8fold_vecB1L_NtNvCs9jpTMRK2ijq_11yoke_derive16replace_lifetime15ReplaceLifetimeNvYB2R_NtB2n_4Fold9fold_stmtE0ENtNtNtBa_6traits8iterator8Iterator8try_foldINtNtB12_13in_place_drop11InPlaceDropB1L_ENCINvNtB12_16in_place_collect24write_in_place_with_dropB1L_E0INtNtBc_6result6ResultB57_zEEB2V_, symObjAddr: 0x2E0, symBinAddr: 0x68820, symSize: 0x40 }
  - { offset: 0xFA606, size: 0x8, addend: 0x0, symName: __RNvXs0_NtNtNtCsieiGu2EXtoJ_4core4iter8adapters3mapINtB5_3MapINtNtB7_6cloned6ClonedINtNtNtBb_5slice4iter4IterNtCsaKzlTDPUHDb_11proc_macro25IdentEENCINvXs8_NtCsjK30CmJ87bX_9hashbrown3setINtB2s_7HashSetB1I_NtNtNtCsHUR1vrdMJt_3std4hash6random11RandomStateEINtNtNtB9_6traits7collect6ExtendB1I_E6extendBW_E0ENtNtB47_8iterator8Iterator9size_hintCs9jpTMRK2ijq_11yoke_derive, symObjAddr: 0x2920, symBinAddr: 0x6AE60, symSize: 0x30 }
  - { offset: 0xFA64D, size: 0x8, addend: 0x0, symName: __RNvXs0_NtNtNtCsieiGu2EXtoJ_4core4iter8adapters3mapINtB5_3MapINtNtNtBb_5slice4iter4IterNtCsaKzlTDPUHDb_11proc_macro25IdentENCNvCs9jpTMRK2ijq_11yoke_derive20yokeable_derive_impls0_0ENtNtNtB9_6traits8iterator8Iterator9size_hintB20_, symObjAddr: 0x2950, symBinAddr: 0x6AE90, symSize: 0x30 }
  - { offset: 0xFA694, size: 0x8, addend: 0x0, symName: __RNvXs0_NtNtNtCsieiGu2EXtoJ_4core4iter8adapters3mapINtB5_3MapINtNtNtBb_5slice4iter4IterNtCsaKzlTDPUHDb_11proc_macro25IdentENCNvCs9jpTMRK2ijq_11yoke_derive20yokeable_derive_impls2_0ENtNtNtB9_6traits8iterator8Iterator9size_hintB20_, symObjAddr: 0x2980, symBinAddr: 0x6AEC0, symSize: 0x30 }
  - { offset: 0xFA6DB, size: 0x8, addend: 0x0, symName: __RNvXs0_NtNtNtCsieiGu2EXtoJ_4core4iter8adapters3mapINtB5_3MapINtNtNtBb_5slice4iter4IterNtNtCsdGrGZaRBwMb_3syn8generics9TypeParamENCNvCs9jpTMRK2ijq_11yoke_derive20yokeable_derive_impls_0ENtNtNtB9_6traits8iterator8Iterator9size_hintB26_, symObjAddr: 0x29B0, symBinAddr: 0x6AEF0, symSize: 0x30 }
  - { offset: 0xFA722, size: 0x8, addend: 0x0, symName: __RNvXs0_NtNtNtCsieiGu2EXtoJ_4core4iter8adapters3mapINtB5_3MapNtNtCsdGrGZaRBwMb_3syn8generics10TypeParamsNCNvCs9jpTMRK2ijq_11yoke_derive20yokeable_derive_impl0ENtNtNtB9_6traits8iterator8Iterator4nextB1H_, symObjAddr: 0x29E0, symBinAddr: 0x6AF20, symSize: 0xD0 }
  - { offset: 0xFA7CF, size: 0x8, addend: 0x0, symName: __RNvXs0_NtNtNtCsieiGu2EXtoJ_4core4iter8adapters3mapINtB5_3MapNtNtCsdGrGZaRBwMb_3syn8generics10TypeParamsNCNvCs9jpTMRK2ijq_11yoke_derive20yokeable_derive_impl0ENtNtNtB9_6traits8iterator8Iterator9size_hintB1H_, symObjAddr: 0x2AB0, symBinAddr: 0x6AFF0, symSize: 0x30 }
  - { offset: 0xFA8CA, size: 0x8, addend: 0x0, symName: __RNCINvNtNtNtCsieiGu2EXtoJ_4core4iter8adapters3map8map_foldNtCsaKzlTDPUHDb_11proc_macro25IdentTBU_uEuNCINvXs8_NtCsjK30CmJ87bX_9hashbrown3setINtB1J_7HashSetBU_NtNtNtCsHUR1vrdMJt_3std4hash6random11RandomStateEINtNtNtB8_6traits7collect6ExtendBU_E6extendINtNtB6_6cloned6ClonedINtNtNtBa_5slice4iter4IterBU_EEE0NCINvNvNtNtB3n_8iterator8Iterator8for_each4callB1t_NCINvXs1i_NtB1L_3mapINtB5R_7HashMapBU_uB2v_EIB3j_B1t_E6extendINtB4_3MapB3Z_B1A_EE0E0E0Cs9jpTMRK2ijq_11yoke_derive, symObjAddr: 0x1440, symBinAddr: 0x69980, symSize: 0xA0 }
  - { offset: 0xFA950, size: 0x8, addend: 0x0, symName: __RNCINvNtNtNtCsieiGu2EXtoJ_4core4iter8adapters3map8map_foldRNtCsaKzlTDPUHDb_11proc_macro25IdentBV_uNvYBV_NtNtBa_5clone5Clone5cloneNCIB2_BV_TBV_uEuNCINvXs8_NtCsjK30CmJ87bX_9hashbrown3setINtB2s_7HashSetBV_NtNtNtCsHUR1vrdMJt_3std4hash6random11RandomStateEINtNtNtB8_6traits7collect6ExtendBV_E6extendINtNtB6_6cloned6ClonedINtNtNtBa_5slice4iter4IterBV_EEE0NCINvNvNtNtB46_8iterator8Iterator8for_each4callB2c_NCINvXs1i_NtB2u_3mapINtB6A_7HashMapBV_uB3e_EIB42_B2c_E6extendINtB4_3MapB4I_B2j_EE0E0E0E0Cs9jpTMRK2ijq_11yoke_derive, symObjAddr: 0x14E0, symBinAddr: 0x69A20, symSize: 0x80 }
  - { offset: 0xFA9D5, size: 0x8, addend: 0x0, symName: __RNCINvNtNtNtCsieiGu2EXtoJ_4core4iter8adapters3map8map_foldRNtCsaKzlTDPUHDb_11proc_macro25IdentNtNtCsdGrGZaRBwMb_3syn8generics14WherePredicateuNCNvCs9jpTMRK2ijq_11yoke_derive20yokeable_derive_impls0_0NCINvNvNtNtNtB8_6traits8iterator8Iterator8for_each4callB1u_NCINvMsi_NtCslJiobkLta79_5alloc3vecINtB4h_3VecB1u_E14extend_trustedINtB4_3MapINtNtNtBa_5slice4iter4IterBV_EB2g_EE0E0E0B2k_, symObjAddr: 0x1560, symBinAddr: 0x69AA0, symSize: 0xA0 }
  - { offset: 0xFAA5A, size: 0x8, addend: 0x0, symName: __RNCINvNtNtNtCsieiGu2EXtoJ_4core4iter8adapters3map8map_foldRNtCsaKzlTDPUHDb_11proc_macro25IdentNtNtCsdGrGZaRBwMb_3syn8generics14WherePredicateuNCNvCs9jpTMRK2ijq_11yoke_derive20yokeable_derive_impls2_0NCINvNvNtNtNtB8_6traits8iterator8Iterator8for_each4callB1u_NCINvMsi_NtCslJiobkLta79_5alloc3vecINtB4h_3VecB1u_E14extend_trustedINtB4_3MapINtNtNtBa_5slice4iter4IterBV_EB2g_EE0E0E0B2k_, symObjAddr: 0x1600, symBinAddr: 0x69B40, symSize: 0xA0 }
  - { offset: 0xFAADF, size: 0x8, addend: 0x0, symName: __RNCINvNtNtNtCsieiGu2EXtoJ_4core4iter8adapters3map8map_foldRNtNtCsdGrGZaRBwMb_3syn8generics9TypeParamNtCsaKzlTDPUHDb_11proc_macro25IdentuNCNvCs9jpTMRK2ijq_11yoke_derive20yokeable_derive_impls_0NCINvNvNtNtNtB8_6traits8iterator8Iterator8for_each4callB1A_NCINvMsi_NtCslJiobkLta79_5alloc3vecINtB4a_3VecB1A_E14extend_trustedINtB4_3MapINtNtNtBa_5slice4iter4IterBV_EB2a_EE0E0E0B2e_, symObjAddr: 0x16A0, symBinAddr: 0x69BE0, symSize: 0x80 }
  - { offset: 0xFAC30, size: 0x8, addend: 0x0, symName: __RNCINvNtNtNtCsieiGu2EXtoJ_4core4iter8adapters3map12map_try_foldNtNtCsdGrGZaRBwMb_3syn4attr9AttributeBZ_INtNtNtCslJiobkLta79_5alloc3vec13in_place_drop11InPlaceDropBZ_EINtNtBa_6result6ResultB1D_zENCINvNtNtB13_3gen4fold8fold_vecBZ_NtNvCs9jpTMRK2ijq_11yoke_derive16replace_lifetime15ReplaceLifetimeNvYB3E_NtB3b_4Fold14fold_attributeE0NCINvNtB1I_16in_place_collect24write_in_place_with_dropBZ_E0E0B3I_, symObjAddr: 0xB10, symBinAddr: 0x69050, symSize: 0x150 }
  - { offset: 0xFACC3, size: 0x8, addend: 0x0, symName: __RNCINvNtNtNtCsieiGu2EXtoJ_4core4iter8adapters3map12map_try_foldNtNtCsdGrGZaRBwMb_3syn4expr3ArmBZ_INtNtNtCslJiobkLta79_5alloc3vec13in_place_drop11InPlaceDropBZ_EINtNtBa_6result6ResultB1x_zENCINvNtNtB13_3gen4fold8fold_vecBZ_NtNvCs9jpTMRK2ijq_11yoke_derive16replace_lifetime15ReplaceLifetimeNvYB3y_NtB35_4Fold8fold_armE0NCINvNtB1C_16in_place_collect24write_in_place_with_dropBZ_E0E0B3C_, symObjAddr: 0xC60, symBinAddr: 0x691A0, symSize: 0x150 }
  - { offset: 0xFAD56, size: 0x8, addend: 0x0, symName: __RNCINvNtNtNtCsieiGu2EXtoJ_4core4iter8adapters3map12map_try_foldNtNtCsdGrGZaRBwMb_3syn4item11ForeignItemBZ_INtNtNtCslJiobkLta79_5alloc3vec13in_place_drop11InPlaceDropBZ_EINtNtBa_6result6ResultB1G_zENCINvNtNtB13_3gen4fold8fold_vecBZ_NtNvCs9jpTMRK2ijq_11yoke_derive16replace_lifetime15ReplaceLifetimeNvYB3H_NtB3e_4Fold17fold_foreign_itemE0NCINvNtB1L_16in_place_collect24write_in_place_with_dropBZ_E0E0B3L_, symObjAddr: 0xDB0, symBinAddr: 0x692F0, symSize: 0x150 }
  - { offset: 0xFADE9, size: 0x8, addend: 0x0, symName: __RNCINvNtNtNtCsieiGu2EXtoJ_4core4iter8adapters3map12map_try_foldNtNtCsdGrGZaRBwMb_3syn4item4ItemBZ_INtNtNtCslJiobkLta79_5alloc3vec13in_place_drop11InPlaceDropBZ_EINtNtBa_6result6ResultB1y_zENCINvNtNtB13_3gen4fold8fold_vecBZ_NtNvCs9jpTMRK2ijq_11yoke_derive16replace_lifetime15ReplaceLifetimeNvYB3z_NtB36_4Fold9fold_itemE0NCINvNtB1D_16in_place_collect24write_in_place_with_dropBZ_E0E0B3D_, symObjAddr: 0xF00, symBinAddr: 0x69440, symSize: 0x150 }
  - { offset: 0xFAE7C, size: 0x8, addend: 0x0, symName: __RNCINvNtNtNtCsieiGu2EXtoJ_4core4iter8adapters3map12map_try_foldNtNtCsdGrGZaRBwMb_3syn4item8ImplItemBZ_INtNtNtCslJiobkLta79_5alloc3vec13in_place_drop11InPlaceDropBZ_EINtNtBa_6result6ResultB1C_zENCINvNtNtB13_3gen4fold8fold_vecBZ_NtNvCs9jpTMRK2ijq_11yoke_derive16replace_lifetime15ReplaceLifetimeNvYB3D_NtB3a_4Fold14fold_impl_itemE0NCINvNtB1H_16in_place_collect24write_in_place_with_dropBZ_E0E0B3H_, symObjAddr: 0x1050, symBinAddr: 0x69590, symSize: 0x150 }
  - { offset: 0xFAF0F, size: 0x8, addend: 0x0, symName: __RNCINvNtNtNtCsieiGu2EXtoJ_4core4iter8adapters3map12map_try_foldNtNtCsdGrGZaRBwMb_3syn4item9TraitItemBZ_INtNtNtCslJiobkLta79_5alloc3vec13in_place_drop11InPlaceDropBZ_EINtNtBa_6result6ResultB1D_zENCINvNtNtB13_3gen4fold8fold_vecBZ_NtNvCs9jpTMRK2ijq_11yoke_derive16replace_lifetime15ReplaceLifetimeNvYB3E_NtB3b_4Fold15fold_trait_itemE0NCINvNtB1I_16in_place_collect24write_in_place_with_dropBZ_E0E0B3I_, symObjAddr: 0x11A0, symBinAddr: 0x696E0, symSize: 0x150 }
  - { offset: 0xFAFA2, size: 0x8, addend: 0x0, symName: __RNCINvNtNtNtCsieiGu2EXtoJ_4core4iter8adapters3map12map_try_foldNtNtCsdGrGZaRBwMb_3syn4stmt4StmtBZ_INtNtNtCslJiobkLta79_5alloc3vec13in_place_drop11InPlaceDropBZ_EINtNtBa_6result6ResultB1y_zENCINvNtNtB13_3gen4fold8fold_vecBZ_NtNvCs9jpTMRK2ijq_11yoke_derive16replace_lifetime15ReplaceLifetimeNvYB3z_NtB36_4Fold9fold_stmtE0NCINvNtB1D_16in_place_collect24write_in_place_with_dropBZ_E0E0B3D_, symObjAddr: 0x12F0, symBinAddr: 0x69830, symSize: 0x150 }
  - { offset: 0xFB03B, size: 0x8, addend: 0x0, symName: __RNvXs9_NtNtNtCsieiGu2EXtoJ_4core4iter8adapters3mapINtB5_3MapINtNtNtCslJiobkLta79_5alloc3vec9into_iter8IntoIterNtNtCsdGrGZaRBwMb_3syn4attr9AttributeENCINvNtNtB1O_3gen4fold8fold_vecB1K_NtNvCs9jpTMRK2ijq_11yoke_derive16replace_lifetime15ReplaceLifetimeNvYB2V_NtB2r_4Fold14fold_attributeE0ENtB7_10SourceIter8as_innerB2Z_, symObjAddr: 0x2B80, symBinAddr: 0x6B0C0, symSize: 0x20 }
  - { offset: 0xFB079, size: 0x8, addend: 0x0, symName: __RNvXs9_NtNtNtCsieiGu2EXtoJ_4core4iter8adapters3mapINtB5_3MapINtNtNtCslJiobkLta79_5alloc3vec9into_iter8IntoIterNtNtCsdGrGZaRBwMb_3syn4expr3ArmENCINvNtNtB1O_3gen4fold8fold_vecB1K_NtNvCs9jpTMRK2ijq_11yoke_derive16replace_lifetime15ReplaceLifetimeNvYB2P_NtB2l_4Fold8fold_armE0ENtB7_10SourceIter8as_innerB2T_, symObjAddr: 0x2BA0, symBinAddr: 0x6B0E0, symSize: 0x20 }
  - { offset: 0xFB0B7, size: 0x8, addend: 0x0, symName: __RNvXs9_NtNtNtCsieiGu2EXtoJ_4core4iter8adapters3mapINtB5_3MapINtNtNtCslJiobkLta79_5alloc3vec9into_iter8IntoIterNtNtCsdGrGZaRBwMb_3syn4item11ForeignItemENCINvNtNtB1O_3gen4fold8fold_vecB1K_NtNvCs9jpTMRK2ijq_11yoke_derive16replace_lifetime15ReplaceLifetimeNvYB2Y_NtB2u_4Fold17fold_foreign_itemE0ENtB7_10SourceIter8as_innerB32_, symObjAddr: 0x2BC0, symBinAddr: 0x6B100, symSize: 0x20 }
  - { offset: 0xFB0F5, size: 0x8, addend: 0x0, symName: __RNvXs9_NtNtNtCsieiGu2EXtoJ_4core4iter8adapters3mapINtB5_3MapINtNtNtCslJiobkLta79_5alloc3vec9into_iter8IntoIterNtNtCsdGrGZaRBwMb_3syn4item4ItemENCINvNtNtB1O_3gen4fold8fold_vecB1K_NtNvCs9jpTMRK2ijq_11yoke_derive16replace_lifetime15ReplaceLifetimeNvYB2Q_NtB2m_4Fold9fold_itemE0ENtB7_10SourceIter8as_innerB2U_, symObjAddr: 0x2BE0, symBinAddr: 0x6B120, symSize: 0x20 }
  - { offset: 0xFB133, size: 0x8, addend: 0x0, symName: __RNvXs9_NtNtNtCsieiGu2EXtoJ_4core4iter8adapters3mapINtB5_3MapINtNtNtCslJiobkLta79_5alloc3vec9into_iter8IntoIterNtNtCsdGrGZaRBwMb_3syn4item8ImplItemENCINvNtNtB1O_3gen4fold8fold_vecB1K_NtNvCs9jpTMRK2ijq_11yoke_derive16replace_lifetime15ReplaceLifetimeNvYB2U_NtB2q_4Fold14fold_impl_itemE0ENtB7_10SourceIter8as_innerB2Y_, symObjAddr: 0x2C00, symBinAddr: 0x6B140, symSize: 0x20 }
  - { offset: 0xFB171, size: 0x8, addend: 0x0, symName: __RNvXs9_NtNtNtCsieiGu2EXtoJ_4core4iter8adapters3mapINtB5_3MapINtNtNtCslJiobkLta79_5alloc3vec9into_iter8IntoIterNtNtCsdGrGZaRBwMb_3syn4item9TraitItemENCINvNtNtB1O_3gen4fold8fold_vecB1K_NtNvCs9jpTMRK2ijq_11yoke_derive16replace_lifetime15ReplaceLifetimeNvYB2V_NtB2r_4Fold15fold_trait_itemE0ENtB7_10SourceIter8as_innerB2Z_, symObjAddr: 0x2C20, symBinAddr: 0x6B160, symSize: 0x20 }
  - { offset: 0xFB1AF, size: 0x8, addend: 0x0, symName: __RNvXs9_NtNtNtCsieiGu2EXtoJ_4core4iter8adapters3mapINtB5_3MapINtNtNtCslJiobkLta79_5alloc3vec9into_iter8IntoIterNtNtCsdGrGZaRBwMb_3syn4stmt4StmtENCINvNtNtB1O_3gen4fold8fold_vecB1K_NtNvCs9jpTMRK2ijq_11yoke_derive16replace_lifetime15ReplaceLifetimeNvYB2Q_NtB2m_4Fold9fold_stmtE0ENtB7_10SourceIter8as_innerB2U_, symObjAddr: 0x2C40, symBinAddr: 0x6B180, symSize: 0x20 }
  - { offset: 0xFB56F, size: 0x8, addend: 0x0, symName: __RINvYINtNtNtNtCsieiGu2EXtoJ_4core4iter8adapters3map3MapINtNtB8_6cloned6ClonedINtNtNtBc_5slice4iter4IterNtCsaKzlTDPUHDb_11proc_macro25IdentEENCINvXs8_NtCsjK30CmJ87bX_9hashbrown3setINtB2n_7HashSetB1D_NtNtNtCsHUR1vrdMJt_3std4hash6random11RandomStateEINtNtNtBa_6traits7collect6ExtendB1D_E6extendBR_E0ENtNtB42_8iterator8Iterator8for_eachNCINvXs1i_NtB2p_3mapINtB5u_7HashMapB1D_uB3a_EIB3Y_TB1D_uEE6extendB3_E0ECs9jpTMRK2ijq_11yoke_derive, symObjAddr: 0x530, symBinAddr: 0x68A70, symSize: 0x20 }
  - { offset: 0xFB5BA, size: 0x8, addend: 0x0, symName: __RINvYINtNtNtNtCsieiGu2EXtoJ_4core4iter8adapters3map3MapINtNtNtBc_5slice4iter4IterNtCsaKzlTDPUHDb_11proc_macro25IdentENCNvCs9jpTMRK2ijq_11yoke_derive20yokeable_derive_impls0_0ENtNtNtBa_6traits8iterator8Iterator7collectINtNtCslJiobkLta79_5alloc3vec3VecNtNtCsdGrGZaRBwMb_3syn8generics14WherePredicateEEB1V_, symObjAddr: 0x550, symBinAddr: 0x68A90, symSize: 0x60 }
  - { offset: 0xFB64F, size: 0x8, addend: 0x0, symName: __RINvYINtNtNtNtCsieiGu2EXtoJ_4core4iter8adapters3map3MapINtNtNtBc_5slice4iter4IterNtCsaKzlTDPUHDb_11proc_macro25IdentENCNvCs9jpTMRK2ijq_11yoke_derive20yokeable_derive_impls0_0ENtNtNtBa_6traits8iterator8Iterator8for_eachNCINvMsi_NtCslJiobkLta79_5alloc3vecINtB3D_3VecNtNtCsdGrGZaRBwMb_3syn8generics14WherePredicateE14extend_trustedB3_E0EB1V_, symObjAddr: 0x5B0, symBinAddr: 0x68AF0, symSize: 0x40 }
  - { offset: 0xFB6B9, size: 0x8, addend: 0x0, symName: __RINvYINtNtNtNtCsieiGu2EXtoJ_4core4iter8adapters3map3MapINtNtNtBc_5slice4iter4IterNtCsaKzlTDPUHDb_11proc_macro25IdentENCNvCs9jpTMRK2ijq_11yoke_derive20yokeable_derive_impls2_0ENtNtNtBa_6traits8iterator8Iterator7collectINtNtCslJiobkLta79_5alloc3vec3VecNtNtCsdGrGZaRBwMb_3syn8generics14WherePredicateEEB1V_, symObjAddr: 0x5F0, symBinAddr: 0x68B30, symSize: 0x60 }
  - { offset: 0xFB74E, size: 0x8, addend: 0x0, symName: __RINvYINtNtNtNtCsieiGu2EXtoJ_4core4iter8adapters3map3MapINtNtNtBc_5slice4iter4IterNtCsaKzlTDPUHDb_11proc_macro25IdentENCNvCs9jpTMRK2ijq_11yoke_derive20yokeable_derive_impls2_0ENtNtNtBa_6traits8iterator8Iterator8for_eachNCINvMsi_NtCslJiobkLta79_5alloc3vecINtB3D_3VecNtNtCsdGrGZaRBwMb_3syn8generics14WherePredicateE14extend_trustedB3_E0EB1V_, symObjAddr: 0x650, symBinAddr: 0x68B90, symSize: 0x40 }
  - { offset: 0xFB7B8, size: 0x8, addend: 0x0, symName: __RINvYINtNtNtNtCsieiGu2EXtoJ_4core4iter8adapters3map3MapINtNtNtBc_5slice4iter4IterNtNtCsdGrGZaRBwMb_3syn8generics9TypeParamENCNvCs9jpTMRK2ijq_11yoke_derive20yokeable_derive_impls_0ENtNtNtBa_6traits8iterator8Iterator7collectINtNtCslJiobkLta79_5alloc3vec3VecNtCsaKzlTDPUHDb_11proc_macro25IdentEEB21_, symObjAddr: 0x690, symBinAddr: 0x68BD0, symSize: 0x60 }
  - { offset: 0xFB84D, size: 0x8, addend: 0x0, symName: __RINvYINtNtNtNtCsieiGu2EXtoJ_4core4iter8adapters3map3MapINtNtNtBc_5slice4iter4IterNtNtCsdGrGZaRBwMb_3syn8generics9TypeParamENCNvCs9jpTMRK2ijq_11yoke_derive20yokeable_derive_impls_0ENtNtNtBa_6traits8iterator8Iterator8for_eachNCINvMsi_NtCslJiobkLta79_5alloc3vecINtB3I_3VecNtCsaKzlTDPUHDb_11proc_macro25IdentE14extend_trustedB3_E0EB21_, symObjAddr: 0x6F0, symBinAddr: 0x68C30, symSize: 0x40 }
  - { offset: 0xFB8B7, size: 0x8, addend: 0x0, symName: __RINvYINtNtNtNtCsieiGu2EXtoJ_4core4iter8adapters3map3MapINtNtNtCslJiobkLta79_5alloc3vec9into_iter8IntoIterNtNtCsdGrGZaRBwMb_3syn4attr9AttributeENCINvNtNtB1J_3gen4fold8fold_vecB1F_NtNvCs9jpTMRK2ijq_11yoke_derive16replace_lifetime15ReplaceLifetimeNvYB2Q_NtB2m_4Fold14fold_attributeE0ENtNtNtBa_6traits8iterator8Iterator7collectINtBW_3VecB1F_EEB2U_, symObjAddr: 0x730, symBinAddr: 0x68C70, symSize: 0x80 }
  - { offset: 0xFB94D, size: 0x8, addend: 0x0, symName: __RINvYINtNtNtNtCsieiGu2EXtoJ_4core4iter8adapters3map3MapINtNtNtCslJiobkLta79_5alloc3vec9into_iter8IntoIterNtNtCsdGrGZaRBwMb_3syn4expr3ArmENCINvNtNtB1J_3gen4fold8fold_vecB1F_NtNvCs9jpTMRK2ijq_11yoke_derive16replace_lifetime15ReplaceLifetimeNvYB2K_NtB2g_4Fold8fold_armE0ENtNtNtBa_6traits8iterator8Iterator7collectINtBW_3VecB1F_EEB2O_, symObjAddr: 0x7B0, symBinAddr: 0x68CF0, symSize: 0x80 }
  - { offset: 0xFB9E3, size: 0x8, addend: 0x0, symName: __RINvYINtNtNtNtCsieiGu2EXtoJ_4core4iter8adapters3map3MapINtNtNtCslJiobkLta79_5alloc3vec9into_iter8IntoIterNtNtCsdGrGZaRBwMb_3syn4item11ForeignItemENCINvNtNtB1J_3gen4fold8fold_vecB1F_NtNvCs9jpTMRK2ijq_11yoke_derive16replace_lifetime15ReplaceLifetimeNvYB2T_NtB2p_4Fold17fold_foreign_itemE0ENtNtNtBa_6traits8iterator8Iterator7collectINtBW_3VecB1F_EEB2X_, symObjAddr: 0x830, symBinAddr: 0x68D70, symSize: 0x80 }
  - { offset: 0xFBA79, size: 0x8, addend: 0x0, symName: __RINvYINtNtNtNtCsieiGu2EXtoJ_4core4iter8adapters3map3MapINtNtNtCslJiobkLta79_5alloc3vec9into_iter8IntoIterNtNtCsdGrGZaRBwMb_3syn4item4ItemENCINvNtNtB1J_3gen4fold8fold_vecB1F_NtNvCs9jpTMRK2ijq_11yoke_derive16replace_lifetime15ReplaceLifetimeNvYB2L_NtB2h_4Fold9fold_itemE0ENtNtNtBa_6traits8iterator8Iterator7collectINtBW_3VecB1F_EEB2P_, symObjAddr: 0x8B0, symBinAddr: 0x68DF0, symSize: 0x80 }
  - { offset: 0xFBB0F, size: 0x8, addend: 0x0, symName: __RINvYINtNtNtNtCsieiGu2EXtoJ_4core4iter8adapters3map3MapINtNtNtCslJiobkLta79_5alloc3vec9into_iter8IntoIterNtNtCsdGrGZaRBwMb_3syn4item8ImplItemENCINvNtNtB1J_3gen4fold8fold_vecB1F_NtNvCs9jpTMRK2ijq_11yoke_derive16replace_lifetime15ReplaceLifetimeNvYB2P_NtB2l_4Fold14fold_impl_itemE0ENtNtNtBa_6traits8iterator8Iterator7collectINtBW_3VecB1F_EEB2T_, symObjAddr: 0x930, symBinAddr: 0x68E70, symSize: 0x80 }
  - { offset: 0xFBBA5, size: 0x8, addend: 0x0, symName: __RINvYINtNtNtNtCsieiGu2EXtoJ_4core4iter8adapters3map3MapINtNtNtCslJiobkLta79_5alloc3vec9into_iter8IntoIterNtNtCsdGrGZaRBwMb_3syn4item9TraitItemENCINvNtNtB1J_3gen4fold8fold_vecB1F_NtNvCs9jpTMRK2ijq_11yoke_derive16replace_lifetime15ReplaceLifetimeNvYB2Q_NtB2m_4Fold15fold_trait_itemE0ENtNtNtBa_6traits8iterator8Iterator7collectINtBW_3VecB1F_EEB2U_, symObjAddr: 0x9B0, symBinAddr: 0x68EF0, symSize: 0x80 }
  - { offset: 0xFBC3B, size: 0x8, addend: 0x0, symName: __RINvYINtNtNtNtCsieiGu2EXtoJ_4core4iter8adapters3map3MapINtNtNtCslJiobkLta79_5alloc3vec9into_iter8IntoIterNtNtCsdGrGZaRBwMb_3syn4stmt4StmtENCINvNtNtB1J_3gen4fold8fold_vecB1F_NtNvCs9jpTMRK2ijq_11yoke_derive16replace_lifetime15ReplaceLifetimeNvYB2L_NtB2h_4Fold9fold_stmtE0ENtNtNtBa_6traits8iterator8Iterator7collectINtBW_3VecB1F_EEB2P_, symObjAddr: 0xA30, symBinAddr: 0x68F70, symSize: 0x80 }
  - { offset: 0xFBCD1, size: 0x8, addend: 0x0, symName: __RINvYINtNtNtNtCsieiGu2EXtoJ_4core4iter8adapters3map3MapNtNtCsdGrGZaRBwMb_3syn8generics10TypeParamsNCNvCs9jpTMRK2ijq_11yoke_derive20yokeable_derive_impl0ENtNtNtBa_6traits8iterator8Iterator7collectINtNtCslJiobkLta79_5alloc3vec3VecNtBT_9TypeParamEEB1C_, symObjAddr: 0xAB0, symBinAddr: 0x68FF0, symSize: 0x60 }
  - { offset: 0xFBD72, size: 0x8, addend: 0x0, symName: __RNvXNtNtNtCsieiGu2EXtoJ_4core4iter6traits7collectINtNtNtB6_8adapters3map3MapINtNtBQ_6cloned6ClonedINtNtNtB8_5slice4iter4IterNtCsaKzlTDPUHDb_11proc_macro25IdentEENCINvXs8_NtCsjK30CmJ87bX_9hashbrown3setINtB2I_7HashSetB1Y_NtNtNtCsHUR1vrdMJt_3std4hash6random11RandomStateEINtB2_6ExtendB1Y_E6extendB1c_E0ENtB2_12IntoIterator9into_iterCs9jpTMRK2ijq_11yoke_derive, symObjAddr: 0x2160, symBinAddr: 0x6A6A0, symSize: 0x20 }
  - { offset: 0xFBDA9, size: 0x8, addend: 0x0, symName: __RNvXNtNtNtCsieiGu2EXtoJ_4core4iter6traits7collectINtNtNtB6_8adapters3map3MapINtNtNtB8_5slice4iter4IterNtCsaKzlTDPUHDb_11proc_macro25IdentENCNvCs9jpTMRK2ijq_11yoke_derive20yokeable_derive_impls0_0ENtB2_12IntoIterator9into_iterB2g_, symObjAddr: 0x2180, symBinAddr: 0x6A6C0, symSize: 0x20 }
  - { offset: 0xFBDE0, size: 0x8, addend: 0x0, symName: __RNvXNtNtNtCsieiGu2EXtoJ_4core4iter6traits7collectINtNtNtB6_8adapters3map3MapINtNtNtB8_5slice4iter4IterNtCsaKzlTDPUHDb_11proc_macro25IdentENCNvCs9jpTMRK2ijq_11yoke_derive20yokeable_derive_impls2_0ENtB2_12IntoIterator9into_iterB2g_, symObjAddr: 0x21A0, symBinAddr: 0x6A6E0, symSize: 0x20 }
  - { offset: 0xFBE17, size: 0x8, addend: 0x0, symName: __RNvXNtNtNtCsieiGu2EXtoJ_4core4iter6traits7collectINtNtNtB6_8adapters3map3MapINtNtNtB8_5slice4iter4IterNtNtCsdGrGZaRBwMb_3syn8generics9TypeParamENCNvCs9jpTMRK2ijq_11yoke_derive20yokeable_derive_impls_0ENtB2_12IntoIterator9into_iterB2m_, symObjAddr: 0x21C0, symBinAddr: 0x6A700, symSize: 0x20 }
  - { offset: 0xFBE4E, size: 0x8, addend: 0x0, symName: __RNvXNtNtNtCsieiGu2EXtoJ_4core4iter6traits7collectINtNtNtB6_8adapters3map3MapINtNtNtCslJiobkLta79_5alloc3vec9into_iter8IntoIterNtNtCsdGrGZaRBwMb_3syn4attr9AttributeENCINvNtNtB24_3gen4fold8fold_vecB20_NtNvCs9jpTMRK2ijq_11yoke_derive16replace_lifetime15ReplaceLifetimeNvYB3b_NtB2H_4Fold14fold_attributeE0ENtB2_12IntoIterator9into_iterB3f_, symObjAddr: 0x21E0, symBinAddr: 0x6A720, symSize: 0x30 }
  - { offset: 0xFBE86, size: 0x8, addend: 0x0, symName: __RNvXNtNtNtCsieiGu2EXtoJ_4core4iter6traits7collectINtNtNtB6_8adapters3map3MapINtNtNtCslJiobkLta79_5alloc3vec9into_iter8IntoIterNtNtCsdGrGZaRBwMb_3syn4expr3ArmENCINvNtNtB24_3gen4fold8fold_vecB20_NtNvCs9jpTMRK2ijq_11yoke_derive16replace_lifetime15ReplaceLifetimeNvYB35_NtB2B_4Fold8fold_armE0ENtB2_12IntoIterator9into_iterB39_, symObjAddr: 0x2210, symBinAddr: 0x6A750, symSize: 0x30 }
  - { offset: 0xFBEBE, size: 0x8, addend: 0x0, symName: __RNvXNtNtNtCsieiGu2EXtoJ_4core4iter6traits7collectINtNtNtB6_8adapters3map3MapINtNtNtCslJiobkLta79_5alloc3vec9into_iter8IntoIterNtNtCsdGrGZaRBwMb_3syn4item11ForeignItemENCINvNtNtB24_3gen4fold8fold_vecB20_NtNvCs9jpTMRK2ijq_11yoke_derive16replace_lifetime15ReplaceLifetimeNvYB3e_NtB2K_4Fold17fold_foreign_itemE0ENtB2_12IntoIterator9into_iterB3i_, symObjAddr: 0x2240, symBinAddr: 0x6A780, symSize: 0x30 }
  - { offset: 0xFBEF6, size: 0x8, addend: 0x0, symName: __RNvXNtNtNtCsieiGu2EXtoJ_4core4iter6traits7collectINtNtNtB6_8adapters3map3MapINtNtNtCslJiobkLta79_5alloc3vec9into_iter8IntoIterNtNtCsdGrGZaRBwMb_3syn4item4ItemENCINvNtNtB24_3gen4fold8fold_vecB20_NtNvCs9jpTMRK2ijq_11yoke_derive16replace_lifetime15ReplaceLifetimeNvYB36_NtB2C_4Fold9fold_itemE0ENtB2_12IntoIterator9into_iterB3a_, symObjAddr: 0x2270, symBinAddr: 0x6A7B0, symSize: 0x30 }
  - { offset: 0xFBF2E, size: 0x8, addend: 0x0, symName: __RNvXNtNtNtCsieiGu2EXtoJ_4core4iter6traits7collectINtNtNtB6_8adapters3map3MapINtNtNtCslJiobkLta79_5alloc3vec9into_iter8IntoIterNtNtCsdGrGZaRBwMb_3syn4item8ImplItemENCINvNtNtB24_3gen4fold8fold_vecB20_NtNvCs9jpTMRK2ijq_11yoke_derive16replace_lifetime15ReplaceLifetimeNvYB3a_NtB2G_4Fold14fold_impl_itemE0ENtB2_12IntoIterator9into_iterB3e_, symObjAddr: 0x22A0, symBinAddr: 0x6A7E0, symSize: 0x30 }
  - { offset: 0xFBF66, size: 0x8, addend: 0x0, symName: __RNvXNtNtNtCsieiGu2EXtoJ_4core4iter6traits7collectINtNtNtB6_8adapters3map3MapINtNtNtCslJiobkLta79_5alloc3vec9into_iter8IntoIterNtNtCsdGrGZaRBwMb_3syn4item9TraitItemENCINvNtNtB24_3gen4fold8fold_vecB20_NtNvCs9jpTMRK2ijq_11yoke_derive16replace_lifetime15ReplaceLifetimeNvYB3b_NtB2H_4Fold15fold_trait_itemE0ENtB2_12IntoIterator9into_iterB3f_, symObjAddr: 0x22D0, symBinAddr: 0x6A810, symSize: 0x30 }
  - { offset: 0xFBF9E, size: 0x8, addend: 0x0, symName: __RNvXNtNtNtCsieiGu2EXtoJ_4core4iter6traits7collectINtNtNtB6_8adapters3map3MapINtNtNtCslJiobkLta79_5alloc3vec9into_iter8IntoIterNtNtCsdGrGZaRBwMb_3syn4stmt4StmtENCINvNtNtB24_3gen4fold8fold_vecB20_NtNvCs9jpTMRK2ijq_11yoke_derive16replace_lifetime15ReplaceLifetimeNvYB36_NtB2C_4Fold9fold_stmtE0ENtB2_12IntoIterator9into_iterB3a_, symObjAddr: 0x2300, symBinAddr: 0x6A840, symSize: 0x30 }
  - { offset: 0xFBFD6, size: 0x8, addend: 0x0, symName: __RNvXNtNtNtCsieiGu2EXtoJ_4core4iter6traits7collectINtNtNtB6_8adapters3map3MapNtNtCsdGrGZaRBwMb_3syn8generics10TypeParamsNCNvCs9jpTMRK2ijq_11yoke_derive20yokeable_derive_impl0ENtB2_12IntoIterator9into_iterB1X_, symObjAddr: 0x2330, symBinAddr: 0x6A870, symSize: 0x20 }
  - { offset: 0xFC00D, size: 0x8, addend: 0x0, symName: __RNvXNtNtNtCsieiGu2EXtoJ_4core4iter6traits7collectINtNtNtB8_3ops5range5RangejENtB2_12IntoIterator9into_iterCs9jpTMRK2ijq_11yoke_derive, symObjAddr: 0x2350, symBinAddr: 0x6A890, symSize: 0x20 }
  - { offset: 0xFC051, size: 0x8, addend: 0x0, symName: __RNvXs3_NtNtCsieiGu2EXtoJ_4core4iter5rangeINtNtNtB9_3ops5range5RangejENtB5_17RangeIteratorImpl9spec_nextCs9jpTMRK2ijq_11yoke_derive, symObjAddr: 0x2AE0, symBinAddr: 0x6B020, symSize: 0x80 }
  - { offset: 0xFC0D2, size: 0x8, addend: 0x0, symName: __RNvXs4_NtNtCsieiGu2EXtoJ_4core4iter5rangeINtNtNtB9_3ops5range5RangejENtNtNtB7_6traits8iterator8Iterator4nextCs9jpTMRK2ijq_11yoke_derive, symObjAddr: 0x2B60, symBinAddr: 0x6B0A0, symSize: 0x20 }
  - { offset: 0xFC10F, size: 0x8, addend: 0x0, symName: __RNvXsF_NtNtCsieiGu2EXtoJ_4core4iter5rangejNtB5_4Step17forward_uncheckedCs9jpTMRK2ijq_11yoke_derive, symObjAddr: 0x2C60, symBinAddr: 0x6B1A0, symSize: 0x40 }
  - { offset: 0xFC214, size: 0x8, addend: 0x0, symName: __RNvMNtCsieiGu2EXtoJ_4core5sliceSTNtNtCsdGrGZaRBwMb_3syn4expr10FieldValueNtNtBz_5token5CommaE11rotate_leftCs9jpTMRK2ijq_11yoke_derive, symObjAddr: 0x1720, symBinAddr: 0x69C60, symSize: 0x70 }
  - { offset: 0xFC2FD, size: 0x8, addend: 0x0, symName: __RNvMNtCsieiGu2EXtoJ_4core5sliceSTNtNtCsdGrGZaRBwMb_3syn4expr10FieldValueNtNtBz_5token5CommaE12rotate_rightCs9jpTMRK2ijq_11yoke_derive, symObjAddr: 0x1790, symBinAddr: 0x69CD0, symSize: 0x70 }
  - { offset: 0xFC3E6, size: 0x8, addend: 0x0, symName: __RNvMNtCsieiGu2EXtoJ_4core5sliceSTNtNtCsdGrGZaRBwMb_3syn4expr4ExprNtNtBz_5token5CommaE11rotate_leftCs9jpTMRK2ijq_11yoke_derive, symObjAddr: 0x1800, symBinAddr: 0x69D40, symSize: 0x70 }
  - { offset: 0xFC4CF, size: 0x8, addend: 0x0, symName: __RNvMNtCsieiGu2EXtoJ_4core5sliceSTNtNtCsdGrGZaRBwMb_3syn4expr4ExprNtNtBz_5token5CommaE12rotate_rightCs9jpTMRK2ijq_11yoke_derive, symObjAddr: 0x1870, symBinAddr: 0x69DB0, symSize: 0x70 }
  - { offset: 0xFC5B8, size: 0x8, addend: 0x0, symName: __RNvMNtCsieiGu2EXtoJ_4core5sliceSTNtNtCsdGrGZaRBwMb_3syn8lifetime8LifetimeNtNtBz_5token4PlusE11rotate_leftCs9jpTMRK2ijq_11yoke_derive, symObjAddr: 0x18E0, symBinAddr: 0x69E20, symSize: 0x70 }
  - { offset: 0xFC6A1, size: 0x8, addend: 0x0, symName: __RNvMNtCsieiGu2EXtoJ_4core5sliceSTNtNtCsdGrGZaRBwMb_3syn8lifetime8LifetimeNtNtBz_5token4PlusE12rotate_rightCs9jpTMRK2ijq_11yoke_derive, symObjAddr: 0x1950, symBinAddr: 0x69E90, symSize: 0x70 }
  - { offset: 0xFCAF5, size: 0x8, addend: 0x0, symName: __RNvNtNtNtCsieiGu2EXtoJ_4core9core_arch3x864sse212__mm_or_si128Cs9jpTMRK2ijq_11yoke_derive, symObjAddr: 0x1D40, symBinAddr: 0x6A280, symSize: 0x20 }
  - { offset: 0xFCC04, size: 0x8, addend: 0x0, symName: __RNvNtNtNtCsieiGu2EXtoJ_4core9core_arch3x864sse213__mm_set1_epi8Cs9jpTMRK2ijq_11yoke_derive, symObjAddr: 0x1D60, symBinAddr: 0x6A2A0, symSize: 0x90 }
  - { offset: 0xFCD5E, size: 0x8, addend: 0x0, symName: __RNvNtNtNtCsieiGu2EXtoJ_4core9core_arch3x864sse214__mm_cmpeq_epi8Cs9jpTMRK2ijq_11yoke_derive, symObjAddr: 0x1DF0, symBinAddr: 0x6A330, symSize: 0x80 }
  - { offset: 0xFCD9E, size: 0x8, addend: 0x0, symName: __RNvNtNtNtCsieiGu2EXtoJ_4core9core_arch3x864sse214__mm_cmpgt_epi8Cs9jpTMRK2ijq_11yoke_derive, symObjAddr: 0x1E70, symBinAddr: 0x6A3B0, symSize: 0x80 }
  - { offset: 0xFCDDE, size: 0x8, addend: 0x0, symName: __RNvNtNtNtCsieiGu2EXtoJ_4core9core_arch3x864sse214__mm_load_si128Cs9jpTMRK2ijq_11yoke_derive, symObjAddr: 0x1EF0, symBinAddr: 0x6A430, symSize: 0x20 }
  - { offset: 0xFCE1D, size: 0x8, addend: 0x0, symName: __RNvNtNtNtCsieiGu2EXtoJ_4core9core_arch3x864sse215__mm_loadu_si128Cs9jpTMRK2ijq_11yoke_derive, symObjAddr: 0x1F10, symBinAddr: 0x6A450, symSize: 0x90 }
  - { offset: 0xFCEAC, size: 0x8, addend: 0x0, symName: __RNvNtNtNtCsieiGu2EXtoJ_4core9core_arch3x864sse215__mm_store_si128Cs9jpTMRK2ijq_11yoke_derive, symObjAddr: 0x1FA0, symBinAddr: 0x6A4E0, symSize: 0x20 }
  - { offset: 0xFCEE5, size: 0x8, addend: 0x0, symName: __RNvNtNtNtCsieiGu2EXtoJ_4core9core_arch3x864sse217__mm_movemask_epi8Cs9jpTMRK2ijq_11yoke_derive, symObjAddr: 0x1FC0, symBinAddr: 0x6A500, symSize: 0x50 }
  - { offset: 0xFCF51, size: 0x8, addend: 0x0, symName: __RNvNtNtNtCsieiGu2EXtoJ_4core9core_arch3x864sse217__mm_setzero_si128Cs9jpTMRK2ijq_11yoke_derive, symObjAddr: 0x2010, symBinAddr: 0x6A550, symSize: 0x10 }
  - { offset: 0xFD016, size: 0x8, addend: 0x0, symName: __RNvNvMNtNtCsieiGu2EXtoJ_4core5alloc6layoutNtB4_6Layout25from_size_align_unchecked18precondition_checkCs9jpTMRK2ijq_11yoke_derive, symObjAddr: 0x2020, symBinAddr: 0x6A560, symSize: 0xB0 }
  - { offset: 0x102D7F, size: 0x8, addend: 0x0, symName: __RNvXs0_NtNtCslJiobkLta79_5alloc3vec16in_place_collectINtNtNtNtCsieiGu2EXtoJ_4core4iter8adapters3map3MapINtNtB7_9into_iter8IntoIterNtNtCsdGrGZaRBwMb_3syn4attr9AttributeENCINvNtNtB28_3gen4fold8fold_vecB24_NtNvCs9jpTMRK2ijq_11yoke_derive16replace_lifetime15ReplaceLifetimeNvYB3f_NtB2L_4Fold14fold_attributeE0EINtB5_18SpecInPlaceCollectB24_BP_E16collect_in_placeB3j_, symObjAddr: 0x2370, symBinAddr: 0x6A8B0, symSize: 0xD0 }
  - { offset: 0x102ED5, size: 0x8, addend: 0x0, symName: __RNvXs0_NtNtCslJiobkLta79_5alloc3vec16in_place_collectINtNtNtNtCsieiGu2EXtoJ_4core4iter8adapters3map3MapINtNtB7_9into_iter8IntoIterNtNtCsdGrGZaRBwMb_3syn4expr3ArmENCINvNtNtB28_3gen4fold8fold_vecB24_NtNvCs9jpTMRK2ijq_11yoke_derive16replace_lifetime15ReplaceLifetimeNvYB39_NtB2F_4Fold8fold_armE0EINtB5_18SpecInPlaceCollectB24_BP_E16collect_in_placeB3d_, symObjAddr: 0x2440, symBinAddr: 0x6A980, symSize: 0xD0 }
  - { offset: 0x10302B, size: 0x8, addend: 0x0, symName: __RNvXs0_NtNtCslJiobkLta79_5alloc3vec16in_place_collectINtNtNtNtCsieiGu2EXtoJ_4core4iter8adapters3map3MapINtNtB7_9into_iter8IntoIterNtNtCsdGrGZaRBwMb_3syn4item11ForeignItemENCINvNtNtB28_3gen4fold8fold_vecB24_NtNvCs9jpTMRK2ijq_11yoke_derive16replace_lifetime15ReplaceLifetimeNvYB3i_NtB2O_4Fold17fold_foreign_itemE0EINtB5_18SpecInPlaceCollectB24_BP_E16collect_in_placeB3m_, symObjAddr: 0x2510, symBinAddr: 0x6AA50, symSize: 0xD0 }
  - { offset: 0x103181, size: 0x8, addend: 0x0, symName: __RNvXs0_NtNtCslJiobkLta79_5alloc3vec16in_place_collectINtNtNtNtCsieiGu2EXtoJ_4core4iter8adapters3map3MapINtNtB7_9into_iter8IntoIterNtNtCsdGrGZaRBwMb_3syn4item4ItemENCINvNtNtB28_3gen4fold8fold_vecB24_NtNvCs9jpTMRK2ijq_11yoke_derive16replace_lifetime15ReplaceLifetimeNvYB3a_NtB2G_4Fold9fold_itemE0EINtB5_18SpecInPlaceCollectB24_BP_E16collect_in_placeB3e_, symObjAddr: 0x25E0, symBinAddr: 0x6AB20, symSize: 0xD0 }
  - { offset: 0x1032D7, size: 0x8, addend: 0x0, symName: __RNvXs0_NtNtCslJiobkLta79_5alloc3vec16in_place_collectINtNtNtNtCsieiGu2EXtoJ_4core4iter8adapters3map3MapINtNtB7_9into_iter8IntoIterNtNtCsdGrGZaRBwMb_3syn4item8ImplItemENCINvNtNtB28_3gen4fold8fold_vecB24_NtNvCs9jpTMRK2ijq_11yoke_derive16replace_lifetime15ReplaceLifetimeNvYB3e_NtB2K_4Fold14fold_impl_itemE0EINtB5_18SpecInPlaceCollectB24_BP_E16collect_in_placeB3i_, symObjAddr: 0x26B0, symBinAddr: 0x6ABF0, symSize: 0xD0 }
  - { offset: 0x10342D, size: 0x8, addend: 0x0, symName: __RNvXs0_NtNtCslJiobkLta79_5alloc3vec16in_place_collectINtNtNtNtCsieiGu2EXtoJ_4core4iter8adapters3map3MapINtNtB7_9into_iter8IntoIterNtNtCsdGrGZaRBwMb_3syn4item9TraitItemENCINvNtNtB28_3gen4fold8fold_vecB24_NtNvCs9jpTMRK2ijq_11yoke_derive16replace_lifetime15ReplaceLifetimeNvYB3f_NtB2L_4Fold15fold_trait_itemE0EINtB5_18SpecInPlaceCollectB24_BP_E16collect_in_placeB3j_, symObjAddr: 0x2780, symBinAddr: 0x6ACC0, symSize: 0xD0 }
  - { offset: 0x103583, size: 0x8, addend: 0x0, symName: __RNvXs0_NtNtCslJiobkLta79_5alloc3vec16in_place_collectINtNtNtNtCsieiGu2EXtoJ_4core4iter8adapters3map3MapINtNtB7_9into_iter8IntoIterNtNtCsdGrGZaRBwMb_3syn4stmt4StmtENCINvNtNtB28_3gen4fold8fold_vecB24_NtNvCs9jpTMRK2ijq_11yoke_derive16replace_lifetime15ReplaceLifetimeNvYB3a_NtB2G_4Fold9fold_stmtE0EINtB5_18SpecInPlaceCollectB24_BP_E16collect_in_placeB3e_, symObjAddr: 0x2850, symBinAddr: 0x6AD90, symSize: 0xD0 }
  - { offset: 0x1041C0, size: 0x8, addend: 0x0, symName: __RINvMNtNtCsieiGu2EXtoJ_4core3fmt2rtNtB3_8Argument11new_displayNtNtNtCsdGrGZaRBwMb_3syn4attr7parsing16DisplayAttrStyleECs9jpTMRK2ijq_11yoke_derive, symObjAddr: 0x0, symBinAddr: 0x68540, symSize: 0x30 }
  - { offset: 0x10455C, size: 0x8, addend: 0x0, symName: __RINvXs5_NtNtNtCsHUR1vrdMJt_3std11collections4hash3setINtB6_7HashSetNtCsaKzlTDPUHDb_11proc_macro25IdentEINtNtNtNtCsieiGu2EXtoJ_4core4iter6traits7collect12FromIteratorB13_E9from_iterINtNtNtB1K_8adapters6cloned6ClonedINtNtNtB1M_5slice4iter4IterB13_EEECs9jpTMRK2ijq_11yoke_derive, symObjAddr: 0x320, symBinAddr: 0x68860, symSize: 0x210 }
  - { offset: 0x104786, size: 0x8, addend: 0x0, symName: __RINvMs0_NtNtNtCsHUR1vrdMJt_3std11collections4hash3setINtB6_7HashSetNtCsaKzlTDPUHDb_11proc_macro25IdentE8containsB13_ECs9jpTMRK2ijq_11yoke_derive, symObjAddr: 0x30, symBinAddr: 0x68570, symSize: 0x50 }
  - { offset: 0x1050D0, size: 0x8, addend: 0x0, symName: __RNvMs1_NtNtCsieiGu2EXtoJ_4core3ptr8non_nullINtB5_7NonNullNtCsaKzlTDPUHDb_11proc_macro25IdentE20offset_from_unsignedCs9jpTMRK2ijq_11yoke_derive, symObjAddr: 0x19C0, symBinAddr: 0x69F00, symSize: 0x70 }
  - { offset: 0x1051DA, size: 0x8, addend: 0x0, symName: __RNvMs1_NtNtCsieiGu2EXtoJ_4core3ptr8non_nullINtB5_7NonNullNtNtCsdGrGZaRBwMb_3syn4expr3ArmE20offset_from_unsignedCs9jpTMRK2ijq_11yoke_derive, symObjAddr: 0x1A30, symBinAddr: 0x69F70, symSize: 0x70 }
  - { offset: 0x1052E4, size: 0x8, addend: 0x0, symName: __RNvMs1_NtNtCsieiGu2EXtoJ_4core3ptr8non_nullINtB5_7NonNullNtNtCsdGrGZaRBwMb_3syn4item11ForeignItemE20offset_from_unsignedCs9jpTMRK2ijq_11yoke_derive, symObjAddr: 0x1AA0, symBinAddr: 0x69FE0, symSize: 0x70 }
  - { offset: 0x1053EE, size: 0x8, addend: 0x0, symName: __RNvMs1_NtNtCsieiGu2EXtoJ_4core3ptr8non_nullINtB5_7NonNullNtNtCsdGrGZaRBwMb_3syn4item4ItemE20offset_from_unsignedCs9jpTMRK2ijq_11yoke_derive, symObjAddr: 0x1B10, symBinAddr: 0x6A050, symSize: 0x70 }
  - { offset: 0x1054F8, size: 0x8, addend: 0x0, symName: __RNvMs1_NtNtCsieiGu2EXtoJ_4core3ptr8non_nullINtB5_7NonNullNtNtCsdGrGZaRBwMb_3syn4item8ImplItemE20offset_from_unsignedCs9jpTMRK2ijq_11yoke_derive, symObjAddr: 0x1B80, symBinAddr: 0x6A0C0, symSize: 0x70 }
  - { offset: 0x105602, size: 0x8, addend: 0x0, symName: __RNvMs1_NtNtCsieiGu2EXtoJ_4core3ptr8non_nullINtB5_7NonNullNtNtCsdGrGZaRBwMb_3syn4item9TraitItemE20offset_from_unsignedCs9jpTMRK2ijq_11yoke_derive, symObjAddr: 0x1BF0, symBinAddr: 0x6A130, symSize: 0x70 }
  - { offset: 0x10570C, size: 0x8, addend: 0x0, symName: __RNvMs1_NtNtCsieiGu2EXtoJ_4core3ptr8non_nullINtB5_7NonNullNtNtCsdGrGZaRBwMb_3syn4stmt4StmtE20offset_from_unsignedCs9jpTMRK2ijq_11yoke_derive, symObjAddr: 0x1C60, symBinAddr: 0x6A1A0, symSize: 0x70 }
  - { offset: 0x105816, size: 0x8, addend: 0x0, symName: __RNvMs1_NtNtCsieiGu2EXtoJ_4core3ptr8non_nullINtB5_7NonNullNtNtCsdGrGZaRBwMb_3syn8generics9TypeParamE20offset_from_unsignedCs9jpTMRK2ijq_11yoke_derive, symObjAddr: 0x1CD0, symBinAddr: 0x6A210, symSize: 0x70 }
  - { offset: 0x1060D7, size: 0x8, addend: 0x0, symName: __RINvMs1_NtCsjK30CmJ87bX_9hashbrown3mapINtB6_7HashMapNtCsaKzlTDPUHDb_11proc_macro25IdentuNtNtNtCsHUR1vrdMJt_3std4hash6random11RandomStateE9get_innerBO_ECs9jpTMRK2ijq_11yoke_derive, symObjAddr: 0x0, symBinAddr: 0x6B6F0, symSize: 0xF0 }
  - { offset: 0x1061B3, size: 0x8, addend: 0x0, symName: __RNCNvXs1_NtNtNtCsHUR1vrdMJt_3std2io5error14repr_bitpackedNtB7_4ReprNtNtNtCsieiGu2EXtoJ_4core3ops4drop4Drop4drop0Cs9jpTMRK2ijq_11yoke_derive, symObjAddr: 0x670, symBinAddr: 0x6BD60, symSize: 0x30 }
  - { offset: 0x106268, size: 0x8, addend: 0x0, symName: __RNvXs1_NtNtNtCsHUR1vrdMJt_3std2io5error14repr_bitpackedNtB5_4ReprNtNtNtCsieiGu2EXtoJ_4core3ops4drop4Drop4dropCs9jpTMRK2ijq_11yoke_derive, symObjAddr: 0x1AA0, symBinAddr: 0x6D190, symSize: 0x30 }
  - { offset: 0x106291, size: 0x8, addend: 0x0, symName: __RINvNtNtNtCsHUR1vrdMJt_3std2io5error14repr_bitpacked11decode_reprINtNtCslJiobkLta79_5alloc5boxed3BoxNtB4_6CustomENCNvXs1_B2_NtB2_4ReprNtNtNtCsieiGu2EXtoJ_4core3ops4drop4Drop4drop0ECs9jpTMRK2ijq_11yoke_derive, symObjAddr: 0x230, symBinAddr: 0x6B920, symSize: 0x200 }
  - { offset: 0x1064F2, size: 0x8, addend: 0x0, symName: __RNvNtNtNtCsHUR1vrdMJt_3std2io5error14repr_bitpacked14kind_from_primCs9jpTMRK2ijq_11yoke_derive, symObjAddr: 0xE60, symBinAddr: 0x6C550, symSize: 0x5B0 }
  - { offset: 0x106FEA, size: 0x8, addend: 0x0, symName: __RNCNvMs3_NtNtCsHUR1vrdMJt_3std6thread5localINtB7_8LocalKeyINtNtCsieiGu2EXtoJ_4core4cell4CellPuEE7replace0Cs9jpTMRK2ijq_11yoke_derive, symObjAddr: 0x650, symBinAddr: 0x6BD40, symSize: 0x20 }
  - { offset: 0x10A550, size: 0x8, addend: 0x0, symName: __RNvNvNtCsieiGu2EXtoJ_4core4hint16assert_unchecked18precondition_checkCs9jpTMRK2ijq_11yoke_derive, symObjAddr: 0x1410, symBinAddr: 0x6CB00, symSize: 0xA0 }
  - { offset: 0x10A5B0, size: 0x8, addend: 0x0, symName: __RNvNvNtCsieiGu2EXtoJ_4core4hint21unreachable_unchecked18precondition_checkCs9jpTMRK2ijq_11yoke_derive, symObjAddr: 0x14B0, symBinAddr: 0x6CBA0, symSize: 0x80 }
  - { offset: 0x10A926, size: 0x8, addend: 0x0, symName: __RNvMNtCsieiGu2EXtoJ_4core5sliceSTNtNtCsdGrGZaRBwMb_3syn2ty4TypeNtNtBz_5token5CommaE11rotate_leftCs9jpTMRK2ijq_11yoke_derive, symObjAddr: 0x6A0, symBinAddr: 0x6BD90, symSize: 0x70 }
  - { offset: 0x10AA0F, size: 0x8, addend: 0x0, symName: __RNvMNtCsieiGu2EXtoJ_4core5sliceSTNtNtCsdGrGZaRBwMb_3syn2ty4TypeNtNtBz_5token5CommaE12rotate_rightCs9jpTMRK2ijq_11yoke_derive, symObjAddr: 0x710, symBinAddr: 0x6BE00, symSize: 0x70 }
  - { offset: 0x10AAF8, size: 0x8, addend: 0x0, symName: __RNvMNtCsieiGu2EXtoJ_4core5sliceSTNtNtCsdGrGZaRBwMb_3syn2ty9BareFnArgNtNtBz_5token5CommaE11rotate_leftCs9jpTMRK2ijq_11yoke_derive, symObjAddr: 0x780, symBinAddr: 0x6BE70, symSize: 0x70 }
  - { offset: 0x10ABE1, size: 0x8, addend: 0x0, symName: __RNvMNtCsieiGu2EXtoJ_4core5sliceSTNtNtCsdGrGZaRBwMb_3syn2ty9BareFnArgNtNtBz_5token5CommaE12rotate_rightCs9jpTMRK2ijq_11yoke_derive, symObjAddr: 0x7F0, symBinAddr: 0x6BEE0, symSize: 0x70 }
  - { offset: 0x10B00B, size: 0x8, addend: 0x0, symName: __RNvXNtNtNtCsieiGu2EXtoJ_4core4iter6traits7collectINtNtNtB6_8adapters9enumerate9EnumerateINtNtCsdGrGZaRBwMb_3syn10punctuated4IterNtNtB1t_4data5FieldEENtB2_12IntoIterator9into_iterCs9jpTMRK2ijq_11yoke_derive, symObjAddr: 0x1540, symBinAddr: 0x6CC30, symSize: 0x20 }
  - { offset: 0x10B48C, size: 0x8, addend: 0x0, symName: __RNvXNtNtCscKtU6MdFI5n_10proc_macro6bridge3rpcuINtB2_6EncodeuE6encodeCs9jpTMRK2ijq_11yoke_derive, symObjAddr: 0x1530, symBinAddr: 0x6CC20, symSize: 0x10 }
  - { offset: 0x10B505, size: 0x8, addend: 0x0, symName: __RNvXsa_NtNtCscKtU6MdFI5n_10proc_macro6bridge3rpcRShINtB5_6EncodeuE6encodeCs9jpTMRK2ijq_11yoke_derive, symObjAddr: 0x1E00, symBinAddr: 0x6D4F0, symSize: 0xD0 }
  - { offset: 0x10B60D, size: 0x8, addend: 0x0, symName: __RNvXsc_NtNtCscKtU6MdFI5n_10proc_macro6bridge3rpcReINtB5_6EncodeuE6encodeCs9jpTMRK2ijq_11yoke_derive, symObjAddr: 0x1ED0, symBinAddr: 0x6D5C0, symSize: 0x30 }
  - { offset: 0x10B6F5, size: 0x8, addend: 0x0, symName: __RNvXsl_NtNtCscKtU6MdFI5n_10proc_macro6bridge3rpcNtB5_12PanicMessageINtB5_6EncodeuE6encodeCs9jpTMRK2ijq_11yoke_derive, symObjAddr: 0x1F00, symBinAddr: 0x6D5F0, symSize: 0x130 }
  - { offset: 0x10B8C5, size: 0x8, addend: 0x0, symName: __RNvXso_NtNtCscKtU6MdFI5n_10proc_macro6bridge3rpcmINtB5_9DecodeMutuE6decodeCs9jpTMRK2ijq_11yoke_derive, symObjAddr: 0x2030, symBinAddr: 0x6D720, symSize: 0x140 }
  - { offset: 0x10BBB6, size: 0x8, addend: 0x0, symName: __RNvXs1e_CscKtU6MdFI5n_10proc_macroNtB6_5IdentNtNtCsieiGu2EXtoJ_4core5clone5Clone5cloneCs9jpTMRK2ijq_11yoke_derive, symObjAddr: 0x1AD0, symBinAddr: 0x6D1C0, symSize: 0x40 }
  - { offset: 0x10BBEA, size: 0x8, addend: 0x0, symName: __RNvXsU_CscKtU6MdFI5n_10proc_macroNtB5_11TokenStreamNtNtCsieiGu2EXtoJ_4core5clone5Clone5cloneCs9jpTMRK2ijq_11yoke_derive, symObjAddr: 0x1B10, symBinAddr: 0x6D200, symSize: 0x50 }
  - { offset: 0x10CB28, size: 0x8, addend: 0x0, symName: __RNvXs0_NtNtCslJiobkLta79_5alloc3vec13in_place_dropINtB5_24InPlaceDstDataSrcBufDropNtNtCsdGrGZaRBwMb_3syn4attr9AttributeB1i_ENtNtNtCsieiGu2EXtoJ_4core3ops4drop4Drop4dropCs9jpTMRK2ijq_11yoke_derive, symObjAddr: 0x1560, symBinAddr: 0x6CC50, symSize: 0xC0 }
  - { offset: 0x10CC7A, size: 0x8, addend: 0x0, symName: __RNvXs0_NtNtCslJiobkLta79_5alloc3vec13in_place_dropINtB5_24InPlaceDstDataSrcBufDropNtNtCsdGrGZaRBwMb_3syn4expr3ArmB1i_ENtNtNtCsieiGu2EXtoJ_4core3ops4drop4Drop4dropCs9jpTMRK2ijq_11yoke_derive, symObjAddr: 0x1620, symBinAddr: 0x6CD10, symSize: 0xC0 }
  - { offset: 0x10CDCC, size: 0x8, addend: 0x0, symName: __RNvXs0_NtNtCslJiobkLta79_5alloc3vec13in_place_dropINtB5_24InPlaceDstDataSrcBufDropNtNtCsdGrGZaRBwMb_3syn4item11ForeignItemB1i_ENtNtNtCsieiGu2EXtoJ_4core3ops4drop4Drop4dropCs9jpTMRK2ijq_11yoke_derive, symObjAddr: 0x16E0, symBinAddr: 0x6CDD0, symSize: 0xC0 }
  - { offset: 0x10CF1E, size: 0x8, addend: 0x0, symName: __RNvXs0_NtNtCslJiobkLta79_5alloc3vec13in_place_dropINtB5_24InPlaceDstDataSrcBufDropNtNtCsdGrGZaRBwMb_3syn4item4ItemB1i_ENtNtNtCsieiGu2EXtoJ_4core3ops4drop4Drop4dropCs9jpTMRK2ijq_11yoke_derive, symObjAddr: 0x17A0, symBinAddr: 0x6CE90, symSize: 0xC0 }
  - { offset: 0x10D070, size: 0x8, addend: 0x0, symName: __RNvXs0_NtNtCslJiobkLta79_5alloc3vec13in_place_dropINtB5_24InPlaceDstDataSrcBufDropNtNtCsdGrGZaRBwMb_3syn4item8ImplItemB1i_ENtNtNtCsieiGu2EXtoJ_4core3ops4drop4Drop4dropCs9jpTMRK2ijq_11yoke_derive, symObjAddr: 0x1860, symBinAddr: 0x6CF50, symSize: 0xC0 }
  - { offset: 0x10D1C2, size: 0x8, addend: 0x0, symName: __RNvXs0_NtNtCslJiobkLta79_5alloc3vec13in_place_dropINtB5_24InPlaceDstDataSrcBufDropNtNtCsdGrGZaRBwMb_3syn4item9TraitItemB1i_ENtNtNtCsieiGu2EXtoJ_4core3ops4drop4Drop4dropCs9jpTMRK2ijq_11yoke_derive, symObjAddr: 0x1920, symBinAddr: 0x6D010, symSize: 0xC0 }
  - { offset: 0x10D314, size: 0x8, addend: 0x0, symName: __RNvXs0_NtNtCslJiobkLta79_5alloc3vec13in_place_dropINtB5_24InPlaceDstDataSrcBufDropNtNtCsdGrGZaRBwMb_3syn4stmt4StmtB1i_ENtNtNtCsieiGu2EXtoJ_4core3ops4drop4Drop4dropCs9jpTMRK2ijq_11yoke_derive, symObjAddr: 0x19E0, symBinAddr: 0x6D0D0, symSize: 0xC0 }
  - { offset: 0x10D46C, size: 0x8, addend: 0x0, symName: __RNvXs_NtNtCslJiobkLta79_5alloc3vec13in_place_dropINtB4_11InPlaceDropNtNtCsdGrGZaRBwMb_3syn4attr9AttributeENtNtNtCsieiGu2EXtoJ_4core3ops4drop4Drop4dropCs9jpTMRK2ijq_11yoke_derive, symObjAddr: 0x1B60, symBinAddr: 0x6D250, symSize: 0x60 }
  - { offset: 0x10D4C2, size: 0x8, addend: 0x0, symName: __RNvXs_NtNtCslJiobkLta79_5alloc3vec13in_place_dropINtB4_11InPlaceDropNtNtCsdGrGZaRBwMb_3syn4expr3ArmENtNtNtCsieiGu2EXtoJ_4core3ops4drop4Drop4dropCs9jpTMRK2ijq_11yoke_derive, symObjAddr: 0x1BC0, symBinAddr: 0x6D2B0, symSize: 0x60 }
  - { offset: 0x10D518, size: 0x8, addend: 0x0, symName: __RNvXs_NtNtCslJiobkLta79_5alloc3vec13in_place_dropINtB4_11InPlaceDropNtNtCsdGrGZaRBwMb_3syn4item11ForeignItemENtNtNtCsieiGu2EXtoJ_4core3ops4drop4Drop4dropCs9jpTMRK2ijq_11yoke_derive, symObjAddr: 0x1C20, symBinAddr: 0x6D310, symSize: 0x60 }
  - { offset: 0x10D56E, size: 0x8, addend: 0x0, symName: __RNvXs_NtNtCslJiobkLta79_5alloc3vec13in_place_dropINtB4_11InPlaceDropNtNtCsdGrGZaRBwMb_3syn4item4ItemENtNtNtCsieiGu2EXtoJ_4core3ops4drop4Drop4dropCs9jpTMRK2ijq_11yoke_derive, symObjAddr: 0x1C80, symBinAddr: 0x6D370, symSize: 0x60 }
  - { offset: 0x10D5C4, size: 0x8, addend: 0x0, symName: __RNvXs_NtNtCslJiobkLta79_5alloc3vec13in_place_dropINtB4_11InPlaceDropNtNtCsdGrGZaRBwMb_3syn4item8ImplItemENtNtNtCsieiGu2EXtoJ_4core3ops4drop4Drop4dropCs9jpTMRK2ijq_11yoke_derive, symObjAddr: 0x1CE0, symBinAddr: 0x6D3D0, symSize: 0x60 }
  - { offset: 0x10D61A, size: 0x8, addend: 0x0, symName: __RNvXs_NtNtCslJiobkLta79_5alloc3vec13in_place_dropINtB4_11InPlaceDropNtNtCsdGrGZaRBwMb_3syn4item9TraitItemENtNtNtCsieiGu2EXtoJ_4core3ops4drop4Drop4dropCs9jpTMRK2ijq_11yoke_derive, symObjAddr: 0x1D40, symBinAddr: 0x6D430, symSize: 0x60 }
  - { offset: 0x10D670, size: 0x8, addend: 0x0, symName: __RNvXs_NtNtCslJiobkLta79_5alloc3vec13in_place_dropINtB4_11InPlaceDropNtNtCsdGrGZaRBwMb_3syn4stmt4StmtENtNtNtCsieiGu2EXtoJ_4core3ops4drop4Drop4dropCs9jpTMRK2ijq_11yoke_derive, symObjAddr: 0x1DA0, symBinAddr: 0x6D490, symSize: 0x60 }
  - { offset: 0x10E1D9, size: 0x8, addend: 0x0, symName: __RNvNtCslJiobkLta79_5alloc3fmt6formatCs9jpTMRK2ijq_11yoke_derive, symObjAddr: 0xDA0, symBinAddr: 0x6C490, symSize: 0xC0 }
  - { offset: 0x10E3BF, size: 0x8, addend: 0x0, symName: __RNCINvNtCsjK30CmJ87bX_9hashbrown3map14equivalent_keyNtCsaKzlTDPUHDb_11proc_macro25IdentBO_uE0Cs9jpTMRK2ijq_11yoke_derive, symObjAddr: 0x5C0, symBinAddr: 0x6BCB0, symSize: 0x20 }
  - { offset: 0x10E5E5, size: 0x8, addend: 0x0, symName: __RINvXs1i_NtCsjK30CmJ87bX_9hashbrown3mapINtB7_7HashMapNtCsaKzlTDPUHDb_11proc_macro25IdentuNtNtNtCsHUR1vrdMJt_3std4hash6random11RandomStateEINtNtNtNtCsieiGu2EXtoJ_4core4iter6traits7collect6ExtendTBP_uEE6extendINtNtNtB2j_8adapters3map3MapINtNtB3o_6cloned6ClonedINtNtNtB2l_5slice4iter4IterBP_EENCINvXs8_NtB9_3setINtB4N_7HashSetBP_B1p_EIB2d_BP_E6extendB3L_E0EECs9jpTMRK2ijq_11yoke_derive, symObjAddr: 0x430, symBinAddr: 0x6BB20, symSize: 0x110 }
  - { offset: 0x10E6A4, size: 0x8, addend: 0x0, symName: __RNCINvXs1i_NtCsjK30CmJ87bX_9hashbrown3mapINtB9_7HashMapNtCsaKzlTDPUHDb_11proc_macro25IdentuNtNtNtCsHUR1vrdMJt_3std4hash6random11RandomStateEINtNtNtNtCsieiGu2EXtoJ_4core4iter6traits7collect6ExtendTBR_uEE6extendINtNtNtB2l_8adapters3map3MapINtNtB3q_6cloned6ClonedINtNtNtB2n_5slice4iter4IterBR_EENCINvXs8_NtBb_3setINtB4P_7HashSetBR_B1r_EIB2f_BR_E6extendB3N_E0EE0Cs9jpTMRK2ijq_11yoke_derive, symObjAddr: 0x5E0, symBinAddr: 0x6BCD0, symSize: 0x40 }
  - { offset: 0x10E777, size: 0x8, addend: 0x0, symName: __RNCINvNtCsjK30CmJ87bX_9hashbrown3map11make_hasherNtCsaKzlTDPUHDb_11proc_macro25IdentuNtNtNtCsHUR1vrdMJt_3std4hash6random11RandomStateE0Cs9jpTMRK2ijq_11yoke_derive, symObjAddr: 0x590, symBinAddr: 0x6BC80, symSize: 0x30 }
  - { offset: 0x10E838, size: 0x8, addend: 0x0, symName: __RINvXs8_NtCsjK30CmJ87bX_9hashbrown3setINtB6_7HashSetNtCsaKzlTDPUHDb_11proc_macro25IdentNtNtNtCsHUR1vrdMJt_3std4hash6random11RandomStateEINtNtNtNtCsieiGu2EXtoJ_4core4iter6traits7collect6ExtendBO_E6extendINtNtNtB2h_8adapters6cloned6ClonedINtNtNtB2j_5slice4iter4IterBO_EEECs9jpTMRK2ijq_11yoke_derive, symObjAddr: 0x540, symBinAddr: 0x6BC30, symSize: 0x50 }
  - { offset: 0x10E89A, size: 0x8, addend: 0x0, symName: __RNCINvXs8_NtCsjK30CmJ87bX_9hashbrown3setINtB8_7HashSetNtCsaKzlTDPUHDb_11proc_macro25IdentNtNtNtCsHUR1vrdMJt_3std4hash6random11RandomStateEINtNtNtNtCsieiGu2EXtoJ_4core4iter6traits7collect6ExtendBQ_E6extendINtNtNtB2j_8adapters6cloned6ClonedINtNtNtB2l_5slice4iter4IterBQ_EEE0Cs9jpTMRK2ijq_11yoke_derive, symObjAddr: 0x620, symBinAddr: 0x6BD10, symSize: 0x30 }
  - { offset: 0x10EA4A, size: 0x8, addend: 0x0, symName: __RINvMs1_NtCsjK30CmJ87bX_9hashbrown3mapINtB6_7HashMapNtCsaKzlTDPUHDb_11proc_macro25IdentuNtNtNtCsHUR1vrdMJt_3std4hash6random11RandomStateE9get_innerBO_ECs9jpTMRK2ijq_11yoke_derive, symObjAddr: 0x0, symBinAddr: 0x6B6F0, symSize: 0xF0 }
  - { offset: 0x10EBE8, size: 0x8, addend: 0x0, symName: __RINvMs2_NtNtCsHUR1vrdMJt_3std6thread5localINtB6_8LocalKeyINtNtCsieiGu2EXtoJ_4core4cell4CellPuEE4withNCNvMs3_B6_BE_7replace0B1r_ECs9jpTMRK2ijq_11yoke_derive, symObjAddr: 0xF0, symBinAddr: 0x6B7E0, symSize: 0x50 }
  - { offset: 0x10ECA1, size: 0x8, addend: 0x0, symName: __RINvMs2_NtNtCsHUR1vrdMJt_3std6thread5localINtB6_8LocalKeyINtNtCsieiGu2EXtoJ_4core4cell4CellPuEE8try_withNCNvMs3_B6_BE_7replace0B1r_ECs9jpTMRK2ijq_11yoke_derive, symObjAddr: 0x140, symBinAddr: 0x6B830, symSize: 0xF0 }
  - { offset: 0x1141D4, size: 0x8, addend: 0x0, symName: __RNvMNtNtCslJiobkLta79_5alloc3vec13in_place_dropINtB2_11InPlaceDropNtNtCsdGrGZaRBwMb_3syn4attr9AttributeE3lenCs9jpTMRK2ijq_11yoke_derive, symObjAddr: 0x860, symBinAddr: 0x6BF50, symSize: 0x70 }
  - { offset: 0x1142A0, size: 0x8, addend: 0x0, symName: __RNvMNtNtCslJiobkLta79_5alloc3vec13in_place_dropINtB2_11InPlaceDropNtNtCsdGrGZaRBwMb_3syn4expr3ArmE3lenCs9jpTMRK2ijq_11yoke_derive, symObjAddr: 0x8D0, symBinAddr: 0x6BFC0, symSize: 0x70 }
  - { offset: 0x11436C, size: 0x8, addend: 0x0, symName: __RNvMNtNtCslJiobkLta79_5alloc3vec13in_place_dropINtB2_11InPlaceDropNtNtCsdGrGZaRBwMb_3syn4item11ForeignItemE3lenCs9jpTMRK2ijq_11yoke_derive, symObjAddr: 0x940, symBinAddr: 0x6C030, symSize: 0x70 }
  - { offset: 0x114438, size: 0x8, addend: 0x0, symName: __RNvMNtNtCslJiobkLta79_5alloc3vec13in_place_dropINtB2_11InPlaceDropNtNtCsdGrGZaRBwMb_3syn4item4ItemE3lenCs9jpTMRK2ijq_11yoke_derive, symObjAddr: 0x9B0, symBinAddr: 0x6C0A0, symSize: 0x70 }
  - { offset: 0x114504, size: 0x8, addend: 0x0, symName: __RNvMNtNtCslJiobkLta79_5alloc3vec13in_place_dropINtB2_11InPlaceDropNtNtCsdGrGZaRBwMb_3syn4item8ImplItemE3lenCs9jpTMRK2ijq_11yoke_derive, symObjAddr: 0xA20, symBinAddr: 0x6C110, symSize: 0x70 }
  - { offset: 0x1145D0, size: 0x8, addend: 0x0, symName: __RNvMNtNtCslJiobkLta79_5alloc3vec13in_place_dropINtB2_11InPlaceDropNtNtCsdGrGZaRBwMb_3syn4item9TraitItemE3lenCs9jpTMRK2ijq_11yoke_derive, symObjAddr: 0xA90, symBinAddr: 0x6C180, symSize: 0x70 }
  - { offset: 0x11469C, size: 0x8, addend: 0x0, symName: __RNvMNtNtCslJiobkLta79_5alloc3vec13in_place_dropINtB2_11InPlaceDropNtNtCsdGrGZaRBwMb_3syn4stmt4StmtE3lenCs9jpTMRK2ijq_11yoke_derive, symObjAddr: 0xB00, symBinAddr: 0x6C1F0, symSize: 0x70 }
  - { offset: 0x114769, size: 0x8, addend: 0x0, symName: __RNvMs10_NtNtCsieiGu2EXtoJ_4core9core_arch3x86NtB6_7___m128i8as_i8x16Cs9jpTMRK2ijq_11yoke_derive, symObjAddr: 0xB70, symBinAddr: 0x6C260, symSize: 0x20 }
  - { offset: 0x114845, size: 0x8, addend: 0x0, symName: __RNvMs1_NtCsjK30CmJ87bX_9hashbrown3mapINtB5_7HashMapNtCsaKzlTDPUHDb_11proc_macro25IdentuNtNtNtCsHUR1vrdMJt_3std4hash6random11RandomStateE6insertCs9jpTMRK2ijq_11yoke_derive, symObjAddr: 0xB90, symBinAddr: 0x6C280, symSize: 0x210 }
  - { offset: 0x115510, size: 0x8, addend: 0x0, symName: __RINvCsdGrGZaRBwMb_3syn5parseNtNtB2_6derive11DeriveInputECs9jpTMRK2ijq_11yoke_derive, symObjAddr: 0x0, symBinAddr: 0x6D860, symSize: 0x30 }
  - { offset: 0x115635, size: 0x8, addend: 0x0, symName: __RNCINvNtNtCscKtU6MdFI5n_10proc_macro6bridge6client10run_clientNtB4_11TokenStreamINtNtCsieiGu2EXtoJ_4core6option6OptionBY_ENCNCINvMs6_B4_INtB4_6ClientNtB8_11TokenStreamB2n_E7expand1NvCs9jpTMRK2ijq_11yoke_derive15yokeable_deriveE00E0B2U_, symObjAddr: 0x2F60, symBinAddr: 0x707C0, symSize: 0x420 }
  - { offset: 0x11585B, size: 0x8, addend: 0x0, symName: __RNCNCINvNtNtCscKtU6MdFI5n_10proc_macro6bridge6client10run_clientNtB6_11TokenStreamINtNtCsieiGu2EXtoJ_4core6option6OptionB10_ENCNCINvMs6_B6_INtB6_6ClientNtBa_11TokenStreamB2q_E7expand1NvCs9jpTMRK2ijq_11yoke_derive15yokeable_deriveE00E00B2X_, symObjAddr: 0x34C0, symBinAddr: 0x70D20, symSize: 0x20 }
  - { offset: 0x1158F9, size: 0x8, addend: 0x0, symName: __RNCNCINvMs6_NtNtCscKtU6MdFI5n_10proc_macro6bridge6clientINtBa_6ClientNtBe_11TokenStreamB15_E7expand1NvCs9jpTMRK2ijq_11yoke_derive15yokeable_deriveE00B1C_, symObjAddr: 0x34A0, symBinAddr: 0x70D00, symSize: 0x20 }
  - { offset: 0x115942, size: 0x8, addend: 0x0, symName: __RNCINvMs6_NtNtCscKtU6MdFI5n_10proc_macro6bridge6clientINtB8_6ClientNtBc_11TokenStreamB13_E7expand1NvCs9jpTMRK2ijq_11yoke_derive15yokeable_deriveE0B1A_, symObjAddr: 0x2F30, symBinAddr: 0x70790, symSize: 0x30 }
  - { offset: 0x11598D, size: 0x8, addend: 0x0, symName: __RINvNtNtCscKtU6MdFI5n_10proc_macro6bridge6client10run_clientNtB2_11TokenStreamINtNtCsieiGu2EXtoJ_4core6option6OptionBW_ENCNCINvMs6_B2_INtB2_6ClientNtB6_11TokenStreamB2l_E7expand1NvCs9jpTMRK2ijq_11yoke_derive15yokeable_deriveE00EB2S_, symObjAddr: 0x2B90, symBinAddr: 0x703F0, symSize: 0x2E0 }
  - { offset: 0x115BA9, size: 0x8, addend: 0x0, symName: __RINvNtNtNtCscKtU6MdFI5n_10proc_macro6bridge6client5state3setINtNtCsieiGu2EXtoJ_4core6option6OptionNtB4_11TokenStreamENCNCINvB4_10run_clientB1y_BW_NCNCINvMs6_B4_INtB4_6ClientNtB8_11TokenStreamB2L_E7expand1NvCs9jpTMRK2ijq_11yoke_derive15yokeable_deriveE00E00EB3i_, symObjAddr: 0x2E70, symBinAddr: 0x706D0, symSize: 0xC0 }
  - { offset: 0x115C89, size: 0x8, addend: 0x0, symName: __RNCNkNvNtNtNtCscKtU6MdFI5n_10proc_macro6bridge6client5state12BRIDGE_STATE0s_0Cs9jpTMRK2ijq_11yoke_derive, symObjAddr: 0x34E0, symBinAddr: 0x70D40, symSize: 0x20 }
  - { offset: 0x115CE5, size: 0x8, addend: 0x0, symName: __RNvXsf_NtNtCscKtU6MdFI5n_10proc_macro6bridge6clientNtB5_11TokenStreamINtNtB7_3rpc6EncodeuE6encodeCs9jpTMRK2ijq_11yoke_derive, symObjAddr: 0x3B10, symBinAddr: 0x71360, symSize: 0x40 }
  - { offset: 0x115DF6, size: 0x8, addend: 0x0, symName: __RNvXsi_NtNtCscKtU6MdFI5n_10proc_macro6bridge6clientNtB5_11TokenStreamINtNtB7_3rpc9DecodeMutuE6decodeCs9jpTMRK2ijq_11yoke_derive, symObjAddr: 0x43F0, symBinAddr: 0x71C40, symSize: 0x20 }
  - { offset: 0x115E3F, size: 0x8, addend: 0x0, symName: __RNvXsk_NtNtCscKtU6MdFI5n_10proc_macro6bridge6clientNtB5_4SpanINtNtB7_3rpc9DecodeMutuE6decodeCs9jpTMRK2ijq_11yoke_derive, symObjAddr: 0x4410, symBinAddr: 0x71C60, symSize: 0x20 }
  - { offset: 0x116298, size: 0x8, addend: 0x0, symName: __RNvXs9_NtNtCscKtU6MdFI5n_10proc_macro6bridge3rpcTINtB7_11ExpnGlobalsNtNtB7_6client4SpanENtB16_11TokenStreamEINtB5_9DecodeMutuE6decodeCs9jpTMRK2ijq_11yoke_derive, symObjAddr: 0x3920, symBinAddr: 0x71170, symSize: 0x80 }
  - { offset: 0x1163F9, size: 0x8, addend: 0x0, symName: __RNvXs1J_NtCscKtU6MdFI5n_10proc_macro6bridgeINtB6_11ExpnGlobalsNtNtB6_6client4SpanEINtNtB6_3rpc9DecodeMutuE6decodeCs9jpTMRK2ijq_11yoke_derive, symObjAddr: 0x3700, symBinAddr: 0x70F50, symSize: 0xA0 }
  - { offset: 0x11644B, size: 0x8, addend: 0x0, symName: __RNvXsR_NtCscKtU6MdFI5n_10proc_macro6bridgeINtNtCsieiGu2EXtoJ_4core6option6OptionNtNtB5_6client11TokenStreamEINtNtB5_3rpc6EncodeuE6encodeCs9jpTMRK2ijq_11yoke_derive, symObjAddr: 0x39A0, symBinAddr: 0x711F0, symSize: 0xB0 }
  - { offset: 0x1164F1, size: 0x8, addend: 0x0, symName: __RNvXsR_NtCscKtU6MdFI5n_10proc_macro6bridgeINtNtCsieiGu2EXtoJ_4core6option6OptionReEINtNtB5_3rpc6EncodeuE6encodeCs9jpTMRK2ijq_11yoke_derive, symObjAddr: 0x3A50, symBinAddr: 0x712A0, symSize: 0xC0 }
  - { offset: 0x116A01, size: 0x8, addend: 0x0, symName: __RNvXs1_NtCsaKzlTDPUHDb_11proc_macro26markerNtB5_19ProcMacroAutoTraitsNtNtCsieiGu2EXtoJ_4core5clone5Clone5cloneCs9jpTMRK2ijq_11yoke_derive, symObjAddr: 0x37A0, symBinAddr: 0x70FF0, symSize: 0x10 }
  - { offset: 0x11A735, size: 0x8, addend: 0x0, symName: __RNCINvNvNtNtNtNtCsieiGu2EXtoJ_4core4iter6traits8iterator8Iterator8for_each4callNtCsaKzlTDPUHDb_11proc_macro25IdentNCINvMsi_NtCslJiobkLta79_5alloc3vecINtB1X_3VecB1f_E14extend_trustedINtNtNtBc_8adapters3map3MapINtNtNtBe_5slice4iter4IterNtNtCsdGrGZaRBwMb_3syn8generics9TypeParamENCNvCs9jpTMRK2ijq_11yoke_derive20yokeable_derive_impls_0EE0E0B4u_, symObjAddr: 0x3380, symBinAddr: 0x70BE0, symSize: 0x40 }
  - { offset: 0x11A78E, size: 0x8, addend: 0x0, symName: __RNCINvNvNtNtNtNtCsieiGu2EXtoJ_4core4iter6traits8iterator8Iterator8for_each4callNtNtCsdGrGZaRBwMb_3syn8generics14WherePredicateNCINvMsi_NtCslJiobkLta79_5alloc3vecINtB29_3VecB1f_E14extend_trustedINtNtNtBc_8adapters3map3MapINtNtNtBe_5slice4iter4IterNtCsaKzlTDPUHDb_11proc_macro25IdentENCNvCs9jpTMRK2ijq_11yoke_derive20yokeable_derive_impls0_0EE0E0B4A_, symObjAddr: 0x33C0, symBinAddr: 0x70C20, symSize: 0x50 }
  - { offset: 0x11A7E7, size: 0x8, addend: 0x0, symName: __RNCINvNvNtNtNtNtCsieiGu2EXtoJ_4core4iter6traits8iterator8Iterator8for_each4callNtNtCsdGrGZaRBwMb_3syn8generics14WherePredicateNCINvMsi_NtCslJiobkLta79_5alloc3vecINtB29_3VecB1f_E14extend_trustedINtNtNtBc_8adapters3map3MapINtNtNtBe_5slice4iter4IterNtCsaKzlTDPUHDb_11proc_macro25IdentENCNvCs9jpTMRK2ijq_11yoke_derive20yokeable_derive_impls2_0EE0E0B4A_, symObjAddr: 0x3410, symBinAddr: 0x70C70, symSize: 0x50 }
  - { offset: 0x11A840, size: 0x8, addend: 0x0, symName: __RNCINvNvNtNtNtNtCsieiGu2EXtoJ_4core4iter6traits8iterator8Iterator8for_each4callTNtCsaKzlTDPUHDb_11proc_macro25IdentuENCINvXs1i_NtCsjK30CmJ87bX_9hashbrown3mapINtB21_7HashMapB1g_uNtNtNtCsHUR1vrdMJt_3std4hash6random11RandomStateEINtNtBa_7collect6ExtendB1f_E6extendINtNtNtBc_8adapters3map3MapINtNtB4g_6cloned6ClonedINtNtNtBe_5slice4iter4IterB1g_EENCINvXs8_NtB23_3setINtB5E_7HashSetB1g_B2P_EIB3D_B1g_E6extendB4C_E0EE0E0Cs9jpTMRK2ijq_11yoke_derive, symObjAddr: 0x3460, symBinAddr: 0x70CC0, symSize: 0x40 }
  - { offset: 0x11A8A0, size: 0x8, addend: 0x0, symName: __RNCNvYNtNtCsdGrGZaRBwMb_3syn8generics9LifetimesNtNtNtNtCsieiGu2EXtoJ_4core4iter6traits8iterator8Iterator5count0Cs9jpTMRK2ijq_11yoke_derive, symObjAddr: 0x3500, symBinAddr: 0x70D60, symSize: 0x60 }
  - { offset: 0x11A944, size: 0x8, addend: 0x0, symName: __RNvNvNtCsieiGu2EXtoJ_4core9ub_checks23maybe_is_nonoverlapping7runtimeCs9jpTMRK2ijq_11yoke_derive, symObjAddr: 0x3640, symBinAddr: 0x70E90, symSize: 0xC0 }
  - { offset: 0x11AF17, size: 0x8, addend: 0x0, symName: __RINvCsdGrGZaRBwMb_3syn5parseNtNtB2_6derive11DeriveInputECs9jpTMRK2ijq_11yoke_derive, symObjAddr: 0x0, symBinAddr: 0x6D860, symSize: 0x30 }
  - { offset: 0x11FD78, size: 0x8, addend: 0x0, symName: __RINvNtCsdGrGZaRBwMb_3syn5parse12parse_scopedNvYNtCsaKzlTDPUHDb_11proc_macro25IdentNtB2_5Parse5parseECs9jpTMRK2ijq_11yoke_derive, symObjAddr: 0x2B60, symBinAddr: 0x703C0, symSize: 0x30 }
  - { offset: 0x11FDD3, size: 0x8, addend: 0x0, symName: __RNvXsh_NtCsdGrGZaRBwMb_3syn5parseNvYNtCsaKzlTDPUHDb_11proc_macro25IdentNtB5_5Parse5parseNtB5_6Parser14___parse_scopedCs9jpTMRK2ijq_11yoke_derive, symObjAddr: 0x3B50, symBinAddr: 0x713A0, symSize: 0x4A0 }
  - { offset: 0x11FF1F, size: 0x8, addend: 0x0, symName: __RNvXsh_NtCsdGrGZaRBwMb_3syn5parseNvYNtNtB7_6derive11DeriveInputNtB5_5Parse5parseNtB5_6Parser6parse2Cs9jpTMRK2ijq_11yoke_derive, symObjAddr: 0x3FF0, symBinAddr: 0x71840, symSize: 0x400 }
  - { offset: 0x120036, size: 0x8, addend: 0x0, symName: __RNvYNvYNtNtCsdGrGZaRBwMb_3syn6derive11DeriveInputNtNtB9_5parse5Parse5parseNtBN_6Parser5parseCs9jpTMRK2ijq_11yoke_derive, symObjAddr: 0x4430, symBinAddr: 0x71C80, symSize: 0x70 }
  - { offset: 0x12166E, size: 0x8, addend: 0x0, symName: __RNvXs6_NtCslJiobkLta79_5alloc5boxedINtB5_3BoxDNtNtCsieiGu2EXtoJ_4core5error5ErrorNtNtBM_6marker4SyncNtB1j_4SendEL_ENtNtNtBM_3ops4drop4Drop4dropCs9jpTMRK2ijq_11yoke_derive, symObjAddr: 0x37B0, symBinAddr: 0x71000, symSize: 0xC0 }
  - { offset: 0x1217AB, size: 0x8, addend: 0x0, symName: __RNvXs6_NtCslJiobkLta79_5alloc5boxedINtB5_3BoxNtNtNtCsHUR1vrdMJt_3std2io5error6CustomENtNtNtCsieiGu2EXtoJ_4core3ops4drop4Drop4dropCs9jpTMRK2ijq_11yoke_derive, symObjAddr: 0x3870, symBinAddr: 0x710C0, symSize: 0xB0 }
  - { offset: 0x121E15, size: 0x8, addend: 0x0, symName: __RINvMNtCsdGrGZaRBwMb_3syn4attrNtB3_9Attribute10parse_argsNtCsaKzlTDPUHDb_11proc_macro25IdentECs9jpTMRK2ijq_11yoke_derive, symObjAddr: 0x30, symBinAddr: 0x6D890, symSize: 0x30 }
  - { offset: 0x121F14, size: 0x8, addend: 0x0, symName: __RINvMNtCsdGrGZaRBwMb_3syn4attrNtB3_9Attribute15parse_args_withNvYNtCsaKzlTDPUHDb_11proc_macro25IdentNtNtB5_5parse5Parse5parseECs9jpTMRK2ijq_11yoke_derive, symObjAddr: 0x60, symBinAddr: 0x6D8C0, symSize: 0x450 }
  - { offset: 0x122090, size: 0x8, addend: 0x0, symName: __RINvMNtCsieiGu2EXtoJ_4core6optionINtB3_6OptionINtNtCslJiobkLta79_5alloc5boxed3BoxNtNtCsdGrGZaRBwMb_3syn4expr4ExprEE3mapBI_NCINvNtNtB1l_3gen4fold15fold_expr_breakNtNvCs9jpTMRK2ijq_11yoke_derive16replace_lifetime15ReplaceLifetimeEs_0EB2D_, symObjAddr: 0x4B0, symBinAddr: 0x6DD10, symSize: 0x60 }
  - { offset: 0x1220FB, size: 0x8, addend: 0x0, symName: __RINvMNtCsieiGu2EXtoJ_4core6optionINtB3_6OptionINtNtCslJiobkLta79_5alloc5boxed3BoxNtNtCsdGrGZaRBwMb_3syn4expr4ExprEE3mapBI_NCINvNtNtB1l_3gen4fold15fold_expr_rangeNtNvCs9jpTMRK2ijq_11yoke_derive16replace_lifetime15ReplaceLifetimeE0EB2D_, symObjAddr: 0x510, symBinAddr: 0x6DD70, symSize: 0x60 }
  - { offset: 0x122166, size: 0x8, addend: 0x0, symName: __RINvMNtCsieiGu2EXtoJ_4core6optionINtB3_6OptionINtNtCslJiobkLta79_5alloc5boxed3BoxNtNtCsdGrGZaRBwMb_3syn4expr4ExprEE3mapBI_NCINvNtNtB1l_3gen4fold15fold_expr_rangeNtNvCs9jpTMRK2ijq_11yoke_derive16replace_lifetime15ReplaceLifetimeEs_0EB2D_, symObjAddr: 0x570, symBinAddr: 0x6DDD0, symSize: 0x60 }
  - { offset: 0x1221D1, size: 0x8, addend: 0x0, symName: __RINvMNtCsieiGu2EXtoJ_4core6optionINtB3_6OptionINtNtCslJiobkLta79_5alloc5boxed3BoxNtNtCsdGrGZaRBwMb_3syn4expr4ExprEE3mapBI_NCINvNtNtB1l_3gen4fold15fold_expr_yieldNtNvCs9jpTMRK2ijq_11yoke_derive16replace_lifetime15ReplaceLifetimeE0EB2D_, symObjAddr: 0x5D0, symBinAddr: 0x6DE30, symSize: 0x60 }
  - { offset: 0x12223C, size: 0x8, addend: 0x0, symName: __RINvMNtCsieiGu2EXtoJ_4core6optionINtB3_6OptionINtNtCslJiobkLta79_5alloc5boxed3BoxNtNtCsdGrGZaRBwMb_3syn4expr4ExprEE3mapBI_NCINvNtNtB1l_3gen4fold16fold_expr_returnNtNvCs9jpTMRK2ijq_11yoke_derive16replace_lifetime15ReplaceLifetimeE0EB2E_, symObjAddr: 0x630, symBinAddr: 0x6DE90, symSize: 0x60 }
  - { offset: 0x1222A7, size: 0x8, addend: 0x0, symName: __RINvMNtCsieiGu2EXtoJ_4core6optionINtB3_6OptionINtNtCslJiobkLta79_5alloc5boxed3BoxNtNtCsdGrGZaRBwMb_3syn4expr4ExprEE3mapBI_NCINvNtNtB1l_3gen4fold16fold_expr_structNtNvCs9jpTMRK2ijq_11yoke_derive16replace_lifetime15ReplaceLifetimeEs_0EB2E_, symObjAddr: 0x690, symBinAddr: 0x6DEF0, symSize: 0x60 }
  - { offset: 0x122312, size: 0x8, addend: 0x0, symName: __RINvMNtCsieiGu2EXtoJ_4core6optionINtB3_6OptionNtCsaKzlTDPUHDb_11proc_macro25IdentE3mapBI_NCINvNtNtCsdGrGZaRBwMb_3syn3gen4fold10fold_fieldNtNvCs9jpTMRK2ijq_11yoke_derive16replace_lifetime15ReplaceLifetimeE0EB2f_, symObjAddr: 0x6F0, symBinAddr: 0x6DF50, symSize: 0xB0 }
  - { offset: 0x12237F, size: 0x8, addend: 0x0, symName: __RINvMNtCsieiGu2EXtoJ_4core6optionINtB3_6OptionNtCsaKzlTDPUHDb_11proc_macro25IdentE3mapBI_NCINvNtNtCsdGrGZaRBwMb_3syn3gen4fold15fold_item_macroNtNvCs9jpTMRK2ijq_11yoke_derive16replace_lifetime15ReplaceLifetimeE0EB2k_, symObjAddr: 0x7A0, symBinAddr: 0x6E000, symSize: 0xB0 }
  - { offset: 0x1223EC, size: 0x8, addend: 0x0, symName: __RINvMNtCsieiGu2EXtoJ_4core6optionINtB3_6OptionNtNtCsdGrGZaRBwMb_3syn2ty12BareVariadicE3mapBI_NCINvNtNtBM_3gen4fold17fold_type_bare_fnNtNvCs9jpTMRK2ijq_11yoke_derive16replace_lifetime15ReplaceLifetimeEs0_0EB2b_, symObjAddr: 0x850, symBinAddr: 0x6E0B0, symSize: 0xD0 }
  - { offset: 0x122459, size: 0x8, addend: 0x0, symName: __RINvMNtCsieiGu2EXtoJ_4core6optionINtB3_6OptionNtNtCsdGrGZaRBwMb_3syn2ty3AbiE3mapBI_NCINvNtNtBM_3gen4fold14fold_signatureNtNvCs9jpTMRK2ijq_11yoke_derive16replace_lifetime15ReplaceLifetimeE0EB1Y_, symObjAddr: 0x920, symBinAddr: 0x6E180, symSize: 0x70 }
  - { offset: 0x1224C5, size: 0x8, addend: 0x0, symName: __RINvMNtCsieiGu2EXtoJ_4core6optionINtB3_6OptionNtNtCsdGrGZaRBwMb_3syn2ty3AbiE3mapBI_NCINvNtNtBM_3gen4fold17fold_type_bare_fnNtNvCs9jpTMRK2ijq_11yoke_derive16replace_lifetime15ReplaceLifetimeEs_0EB21_, symObjAddr: 0x990, symBinAddr: 0x6E1F0, symSize: 0x70 }
  - { offset: 0x122531, size: 0x8, addend: 0x0, symName: __RINvMNtCsieiGu2EXtoJ_4core6optionINtB3_6OptionNtNtCsdGrGZaRBwMb_3syn2ty4TypeE3mapBI_NCINvNtNtBM_3gen4fold15fold_type_paramNtNvCs9jpTMRK2ijq_11yoke_derive16replace_lifetime15ReplaceLifetimeE0EB20_, symObjAddr: 0xA00, symBinAddr: 0x6E260, symSize: 0xD0 }
  - { offset: 0x12259E, size: 0x8, addend: 0x0, symName: __RINvMNtCsieiGu2EXtoJ_4core6optionINtB3_6OptionNtNtCsdGrGZaRBwMb_3syn3lit6LitStrE3mapBI_NCINvNtNtBM_3gen4fold8fold_abiNtNvCs9jpTMRK2ijq_11yoke_derive16replace_lifetime15ReplaceLifetimeE0EB1V_, symObjAddr: 0xAD0, symBinAddr: 0x6E330, symSize: 0x60 }
  - { offset: 0x122609, size: 0x8, addend: 0x0, symName: __RINvMNtCsieiGu2EXtoJ_4core6optionINtB3_6OptionNtNtCsdGrGZaRBwMb_3syn3pat7PatRestE3mapBI_NCINvNtNtBM_3gen4fold15fold_pat_structNtNvCs9jpTMRK2ijq_11yoke_derive16replace_lifetime15ReplaceLifetimeEs_0EB24_, symObjAddr: 0xB30, symBinAddr: 0x6E390, symSize: 0xE0 }
  - { offset: 0x122676, size: 0x8, addend: 0x0, symName: __RINvMNtCsieiGu2EXtoJ_4core6optionINtB3_6OptionNtNtCsdGrGZaRBwMb_3syn4expr4ExprE3mapBI_NCINvNtNtBM_3gen4fold16fold_const_paramNtNvCs9jpTMRK2ijq_11yoke_derive16replace_lifetime15ReplaceLifetimeE0EB23_, symObjAddr: 0xC10, symBinAddr: 0x6E470, symSize: 0xD0 }
  - { offset: 0x1226E3, size: 0x8, addend: 0x0, symName: __RINvMNtCsieiGu2EXtoJ_4core6optionINtB3_6OptionNtNtCsdGrGZaRBwMb_3syn4expr5LabelE3mapBI_NCINvNtNtBM_3gen4fold14fold_expr_loopNtNvCs9jpTMRK2ijq_11yoke_derive16replace_lifetime15ReplaceLifetimeE0EB22_, symObjAddr: 0xCE0, symBinAddr: 0x6E540, symSize: 0xB0 }
  - { offset: 0x122750, size: 0x8, addend: 0x0, symName: __RINvMNtCsieiGu2EXtoJ_4core6optionINtB3_6OptionNtNtCsdGrGZaRBwMb_3syn4expr5LabelE3mapBI_NCINvNtNtBM_3gen4fold15fold_expr_blockNtNvCs9jpTMRK2ijq_11yoke_derive16replace_lifetime15ReplaceLifetimeE0EB23_, symObjAddr: 0xD90, symBinAddr: 0x6E5F0, symSize: 0xB0 }
  - { offset: 0x1227BD, size: 0x8, addend: 0x0, symName: __RINvMNtCsieiGu2EXtoJ_4core6optionINtB3_6OptionNtNtCsdGrGZaRBwMb_3syn4expr5LabelE3mapBI_NCINvNtNtBM_3gen4fold15fold_expr_whileNtNvCs9jpTMRK2ijq_11yoke_derive16replace_lifetime15ReplaceLifetimeE0EB23_, symObjAddr: 0xE40, symBinAddr: 0x6E6A0, symSize: 0xB0 }
  - { offset: 0x12282A, size: 0x8, addend: 0x0, symName: __RINvMNtCsieiGu2EXtoJ_4core6optionINtB3_6OptionNtNtCsdGrGZaRBwMb_3syn4expr5LabelE3mapBI_NCINvNtNtBM_3gen4fold18fold_expr_for_loopNtNvCs9jpTMRK2ijq_11yoke_derive16replace_lifetime15ReplaceLifetimeE0EB26_, symObjAddr: 0xEF0, symBinAddr: 0x6E750, symSize: 0xB0 }
  - { offset: 0x122897, size: 0x8, addend: 0x0, symName: __RINvMNtCsieiGu2EXtoJ_4core6optionINtB3_6OptionNtNtCsdGrGZaRBwMb_3syn4item15ImplRestrictionE3mapBI_NCINvNtNtBM_3gen4fold15fold_item_traitNtNvCs9jpTMRK2ijq_11yoke_derive16replace_lifetime15ReplaceLifetimeE0EB2e_, symObjAddr: 0xFA0, symBinAddr: 0x6E800, symSize: 0x10 }
  - { offset: 0x1228E4, size: 0x8, addend: 0x0, symName: __RINvMNtCsieiGu2EXtoJ_4core6optionINtB3_6OptionNtNtCsdGrGZaRBwMb_3syn4item8VariadicE3mapBI_NCINvNtNtBM_3gen4fold14fold_signatureNtNvCs9jpTMRK2ijq_11yoke_derive16replace_lifetime15ReplaceLifetimeEs_0EB25_, symObjAddr: 0xFB0, symBinAddr: 0x6E810, symSize: 0xD0 }
  - { offset: 0x122951, size: 0x8, addend: 0x0, symName: __RINvMNtCsieiGu2EXtoJ_4core6optionINtB3_6OptionNtNtCsdGrGZaRBwMb_3syn4path30AngleBracketedGenericArgumentsE3mapBI_NCINvNtNtBM_3gen4fold15fold_assoc_typeNtNvCs9jpTMRK2ijq_11yoke_derive16replace_lifetime15ReplaceLifetimeE0EB2t_, symObjAddr: 0x1080, symBinAddr: 0x6E8E0, symSize: 0xD0 }
  - { offset: 0x1229BE, size: 0x8, addend: 0x0, symName: __RINvMNtCsieiGu2EXtoJ_4core6optionINtB3_6OptionNtNtCsdGrGZaRBwMb_3syn4path30AngleBracketedGenericArgumentsE3mapBI_NCINvNtNtBM_3gen4fold15fold_constraintNtNvCs9jpTMRK2ijq_11yoke_derive16replace_lifetime15ReplaceLifetimeE0EB2t_, symObjAddr: 0x1150, symBinAddr: 0x6E9B0, symSize: 0xD0 }
  - { offset: 0x122A2B, size: 0x8, addend: 0x0, symName: __RINvMNtCsieiGu2EXtoJ_4core6optionINtB3_6OptionNtNtCsdGrGZaRBwMb_3syn4path30AngleBracketedGenericArgumentsE3mapBI_NCINvNtNtBM_3gen4fold16fold_assoc_constNtNvCs9jpTMRK2ijq_11yoke_derive16replace_lifetime15ReplaceLifetimeE0EB2u_, symObjAddr: 0x1220, symBinAddr: 0x6EA80, symSize: 0xD0 }
  - { offset: 0x122A98, size: 0x8, addend: 0x0, symName: __RINvMNtCsieiGu2EXtoJ_4core6optionINtB3_6OptionNtNtCsdGrGZaRBwMb_3syn4path30AngleBracketedGenericArgumentsE3mapBI_NCINvNtNtBM_3gen4fold21fold_expr_method_callNtNvCs9jpTMRK2ijq_11yoke_derive16replace_lifetime15ReplaceLifetimeE0EB2z_, symObjAddr: 0x12F0, symBinAddr: 0x6EB50, symSize: 0xD0 }
  - { offset: 0x122B05, size: 0x8, addend: 0x0, symName: __RINvMNtCsieiGu2EXtoJ_4core6optionINtB3_6OptionNtNtCsdGrGZaRBwMb_3syn4path5QSelfE3mapBI_NCINvNtNtBM_3gen4fold14fold_expr_pathNtNvCs9jpTMRK2ijq_11yoke_derive16replace_lifetime15ReplaceLifetimeE0EB22_, symObjAddr: 0x13C0, symBinAddr: 0x6EC20, symSize: 0xD0 }
  - { offset: 0x122B72, size: 0x8, addend: 0x0, symName: __RINvMNtCsieiGu2EXtoJ_4core6optionINtB3_6OptionNtNtCsdGrGZaRBwMb_3syn4path5QSelfE3mapBI_NCINvNtNtBM_3gen4fold14fold_type_pathNtNvCs9jpTMRK2ijq_11yoke_derive16replace_lifetime15ReplaceLifetimeE0EB22_, symObjAddr: 0x1490, symBinAddr: 0x6ECF0, symSize: 0xD0 }
  - { offset: 0x122BDF, size: 0x8, addend: 0x0, symName: __RINvMNtCsieiGu2EXtoJ_4core6optionINtB3_6OptionNtNtCsdGrGZaRBwMb_3syn4path5QSelfE3mapBI_NCINvNtNtBM_3gen4fold15fold_pat_structNtNvCs9jpTMRK2ijq_11yoke_derive16replace_lifetime15ReplaceLifetimeE0EB23_, symObjAddr: 0x1560, symBinAddr: 0x6EDC0, symSize: 0xD0 }
  - { offset: 0x122C4C, size: 0x8, addend: 0x0, symName: __RINvMNtCsieiGu2EXtoJ_4core6optionINtB3_6OptionNtNtCsdGrGZaRBwMb_3syn4path5QSelfE3mapBI_NCINvNtNtBM_3gen4fold16fold_expr_structNtNvCs9jpTMRK2ijq_11yoke_derive16replace_lifetime15ReplaceLifetimeE0EB24_, symObjAddr: 0x1630, symBinAddr: 0x6EE90, symSize: 0xD0 }
  - { offset: 0x122CB9, size: 0x8, addend: 0x0, symName: __RINvMNtCsieiGu2EXtoJ_4core6optionINtB3_6OptionNtNtCsdGrGZaRBwMb_3syn4path5QSelfE3mapBI_NCINvNtNtBM_3gen4fold21fold_pat_tuple_structNtNvCs9jpTMRK2ijq_11yoke_derive16replace_lifetime15ReplaceLifetimeE0EB29_, symObjAddr: 0x1700, symBinAddr: 0x6EF60, symSize: 0xD0 }
  - { offset: 0x122D26, size: 0x8, addend: 0x0, symName: __RINvMNtCsieiGu2EXtoJ_4core6optionINtB3_6OptionNtNtCsdGrGZaRBwMb_3syn4stmt5BlockE3mapBI_NCINvNtNtBM_3gen4fold18fold_trait_item_fnNtNvCs9jpTMRK2ijq_11yoke_derive16replace_lifetime15ReplaceLifetimeE0EB26_, symObjAddr: 0x17D0, symBinAddr: 0x6F030, symSize: 0xD0 }
  - { offset: 0x122D93, size: 0x8, addend: 0x0, symName: __RINvMNtCsieiGu2EXtoJ_4core6optionINtB3_6OptionNtNtCsdGrGZaRBwMb_3syn4stmt9LocalInitE3mapBI_NCINvNtNtBM_3gen4fold10fold_localNtNvCs9jpTMRK2ijq_11yoke_derive16replace_lifetime15ReplaceLifetimeE0EB22_, symObjAddr: 0x18A0, symBinAddr: 0x6F100, symSize: 0xD0 }
  - { offset: 0x122E00, size: 0x8, addend: 0x0, symName: __RINvMNtCsieiGu2EXtoJ_4core6optionINtB3_6OptionNtNtCsdGrGZaRBwMb_3syn8generics11WhereClauseE3mapBI_NCINvNtNtBM_3gen4fold13fold_genericsNtNvCs9jpTMRK2ijq_11yoke_derive16replace_lifetime15ReplaceLifetimeE0EB2c_, symObjAddr: 0x1970, symBinAddr: 0x6F1D0, symSize: 0xD0 }
  - { offset: 0x122E6D, size: 0x8, addend: 0x0, symName: __RINvMNtCsieiGu2EXtoJ_4core6optionINtB3_6OptionNtNtCsdGrGZaRBwMb_3syn8generics14BoundLifetimesE3mapBI_NCINvNtNtBM_3gen4fold16fold_trait_boundNtNvCs9jpTMRK2ijq_11yoke_derive16replace_lifetime15ReplaceLifetimeE0EB2i_, symObjAddr: 0x1A40, symBinAddr: 0x6F2A0, symSize: 0xD0 }
  - { offset: 0x122EDA, size: 0x8, addend: 0x0, symName: __RINvMNtCsieiGu2EXtoJ_4core6optionINtB3_6OptionNtNtCsdGrGZaRBwMb_3syn8generics14BoundLifetimesE3mapBI_NCINvNtNtBM_3gen4fold17fold_expr_closureNtNvCs9jpTMRK2ijq_11yoke_derive16replace_lifetime15ReplaceLifetimeE0EB2j_, symObjAddr: 0x1B10, symBinAddr: 0x6F370, symSize: 0xD0 }
  - { offset: 0x122F47, size: 0x8, addend: 0x0, symName: __RINvMNtCsieiGu2EXtoJ_4core6optionINtB3_6OptionNtNtCsdGrGZaRBwMb_3syn8generics14BoundLifetimesE3mapBI_NCINvNtNtBM_3gen4fold17fold_type_bare_fnNtNvCs9jpTMRK2ijq_11yoke_derive16replace_lifetime15ReplaceLifetimeE0EB2j_, symObjAddr: 0x1BE0, symBinAddr: 0x6F440, symSize: 0xD0 }
  - { offset: 0x122FB4, size: 0x8, addend: 0x0, symName: __RINvMNtCsieiGu2EXtoJ_4core6optionINtB3_6OptionNtNtCsdGrGZaRBwMb_3syn8generics14BoundLifetimesE3mapBI_NCINvNtNtBM_3gen4fold19fold_predicate_typeNtNvCs9jpTMRK2ijq_11yoke_derive16replace_lifetime15ReplaceLifetimeE0EB2l_, symObjAddr: 0x1CB0, symBinAddr: 0x6F510, symSize: 0xD0 }
  - { offset: 0x123021, size: 0x8, addend: 0x0, symName: __RINvMNtCsieiGu2EXtoJ_4core6optionINtB3_6OptionNtNtCsdGrGZaRBwMb_3syn8lifetime8LifetimeE3mapBI_NCINvNtNtBM_3gen4fold15fold_expr_breakNtNvCs9jpTMRK2ijq_11yoke_derive16replace_lifetime15ReplaceLifetimeE0EB2a_, symObjAddr: 0x1D80, symBinAddr: 0x6F5E0, symSize: 0xD0 }
  - { offset: 0x12308E, size: 0x8, addend: 0x0, symName: __RINvMNtCsieiGu2EXtoJ_4core6optionINtB3_6OptionNtNtCsdGrGZaRBwMb_3syn8lifetime8LifetimeE3mapBI_NCINvNtNtBM_3gen4fold18fold_expr_continueNtNvCs9jpTMRK2ijq_11yoke_derive16replace_lifetime15ReplaceLifetimeE0EB2d_, symObjAddr: 0x1E50, symBinAddr: 0x6F6B0, symSize: 0xD0 }
  - { offset: 0x1230FB, size: 0x8, addend: 0x0, symName: __RINvMNtCsieiGu2EXtoJ_4core6optionINtB3_6OptionNtNtCsdGrGZaRBwMb_3syn8lifetime8LifetimeE3mapBI_NCINvNtNtBM_3gen4fold19fold_type_referenceNtNvCs9jpTMRK2ijq_11yoke_derive16replace_lifetime15ReplaceLifetimeE0EB2e_, symObjAddr: 0x1F20, symBinAddr: 0x6F780, symSize: 0xD0 }
  - { offset: 0x123168, size: 0x8, addend: 0x0, symName: __RINvMNtCsieiGu2EXtoJ_4core6optionINtB3_6OptionNtNtCsdGrGZaRBwMb_3syn8lifetime8LifetimeE3mapBI_NCNCINvNtNtBM_3gen4fold13fold_receiverNtNvCs9jpTMRK2ijq_11yoke_derive16replace_lifetime15ReplaceLifetimeE00EB2a_, symObjAddr: 0x1FF0, symBinAddr: 0x6F850, symSize: 0xD0 }
  - { offset: 0x1231D5, size: 0x8, addend: 0x0, symName: __RINvMNtCsieiGu2EXtoJ_4core6optionINtB3_6OptionTIBw_NtNtCsdGrGZaRBwMb_3syn5token3NotENtNtBR_4path4PathNtBP_3ForEE3mapBI_NCINvNtNtBR_3gen4fold14fold_item_implNtNvCs9jpTMRK2ijq_11yoke_derive16replace_lifetime15ReplaceLifetimeE0EB2y_, symObjAddr: 0x20C0, symBinAddr: 0x6F920, symSize: 0xD0 }
  - { offset: 0x123242, size: 0x8, addend: 0x0, symName: __RINvMNtCsieiGu2EXtoJ_4core6optionINtB3_6OptionTINtNtCslJiobkLta79_5alloc5boxed3BoxNtNtCsdGrGZaRBwMb_3syn3pat3PatENtNtB1m_5token5ColonEE3mapBI_NCINvNtNtB1m_3gen4fold13fold_variadicNtNvCs9jpTMRK2ijq_11yoke_derive16replace_lifetime15ReplaceLifetimeE0EB2V_, symObjAddr: 0x2190, symBinAddr: 0x6F9F0, symSize: 0xA0 }
  - { offset: 0x1232AE, size: 0x8, addend: 0x0, symName: __RINvMNtCsieiGu2EXtoJ_4core6optionINtB3_6OptionTNtCsaKzlTDPUHDb_11proc_macro25IdentNtNtCsdGrGZaRBwMb_3syn5token5ColonEE3mapBI_NCINvNtNtB1m_3gen4fold16fold_bare_fn_argNtNvCs9jpTMRK2ijq_11yoke_derive16replace_lifetime15ReplaceLifetimeE0EB2H_, symObjAddr: 0x2230, symBinAddr: 0x6FA90, symSize: 0xD0 }
  - { offset: 0x12331B, size: 0x8, addend: 0x0, symName: __RINvMNtCsieiGu2EXtoJ_4core6optionINtB3_6OptionTNtCsaKzlTDPUHDb_11proc_macro25IdentNtNtCsdGrGZaRBwMb_3syn5token5ColonEE3mapBI_NCINvNtNtB1m_3gen4fold18fold_bare_variadicNtNvCs9jpTMRK2ijq_11yoke_derive16replace_lifetime15ReplaceLifetimeE0EB2J_, symObjAddr: 0x2300, symBinAddr: 0x6FB60, symSize: 0xD0 }
  - { offset: 0x123388, size: 0x8, addend: 0x0, symName: __RINvMNtCsieiGu2EXtoJ_4core6optionINtB3_6OptionTNtNtCsdGrGZaRBwMb_3syn5token2AsNtCsaKzlTDPUHDb_11proc_macro25IdentEE3mapBI_NCINvNtNtBN_3gen4fold22fold_item_extern_crateNtNvCs9jpTMRK2ijq_11yoke_derive16replace_lifetime15ReplaceLifetimeE0EB2J_, symObjAddr: 0x23D0, symBinAddr: 0x6FC30, symSize: 0xD0 }
  - { offset: 0x1233F5, size: 0x8, addend: 0x0, symName: __RINvMNtCsieiGu2EXtoJ_4core6optionINtB3_6OptionTNtNtCsdGrGZaRBwMb_3syn5token2AtINtNtCslJiobkLta79_5alloc5boxed3BoxNtNtBN_3pat3PatEEE3mapBI_NCINvNtNtBN_3gen4fold14fold_pat_identNtNvCs9jpTMRK2ijq_11yoke_derive16replace_lifetime15ReplaceLifetimeE0EB2R_, symObjAddr: 0x24A0, symBinAddr: 0x6FD00, symSize: 0xA0 }
  - { offset: 0x123461, size: 0x8, addend: 0x0, symName: __RINvMNtCsieiGu2EXtoJ_4core6optionINtB3_6OptionTNtNtCsdGrGZaRBwMb_3syn5token2EqNtNtBN_2ty4TypeEE3mapBI_NCINvNtNtBN_3gen4fold20fold_trait_item_typeNtNvCs9jpTMRK2ijq_11yoke_derive16replace_lifetime15ReplaceLifetimeE0EB2n_, symObjAddr: 0x2540, symBinAddr: 0x6FDA0, symSize: 0xD0 }
  - { offset: 0x1234CE, size: 0x8, addend: 0x0, symName: __RINvMNtCsieiGu2EXtoJ_4core6optionINtB3_6OptionTNtNtCsdGrGZaRBwMb_3syn5token2EqNtNtBN_4expr4ExprEE3mapBI_NCINvNtNtBN_3gen4fold12fold_variantNtNvCs9jpTMRK2ijq_11yoke_derive16replace_lifetime15ReplaceLifetimeE0EB2h_, symObjAddr: 0x2610, symBinAddr: 0x6FE70, symSize: 0xD0 }
  - { offset: 0x12353B, size: 0x8, addend: 0x0, symName: __RINvMNtCsieiGu2EXtoJ_4core6optionINtB3_6OptionTNtNtCsdGrGZaRBwMb_3syn5token2EqNtNtBN_4expr4ExprEE3mapBI_NCINvNtNtBN_3gen4fold21fold_trait_item_constNtNvCs9jpTMRK2ijq_11yoke_derive16replace_lifetime15ReplaceLifetimeE0EB2q_, symObjAddr: 0x26E0, symBinAddr: 0x6FF40, symSize: 0xD0 }
  - { offset: 0x1235A8, size: 0x8, addend: 0x0, symName: __RINvMNtCsieiGu2EXtoJ_4core6optionINtB3_6OptionTNtNtCsdGrGZaRBwMb_3syn5token2IfINtNtCslJiobkLta79_5alloc5boxed3BoxNtNtBN_4expr4ExprEEE3mapBI_NCINvNtNtBN_3gen4fold8fold_armNtNvCs9jpTMRK2ijq_11yoke_derive16replace_lifetime15ReplaceLifetimeE0EB2M_, symObjAddr: 0x27B0, symBinAddr: 0x70010, symSize: 0x70 }
  - { offset: 0x123613, size: 0x8, addend: 0x0, symName: __RINvMNtCsieiGu2EXtoJ_4core6optionINtB3_6OptionTNtNtCsdGrGZaRBwMb_3syn5token3AndIBw_NtNtBN_8lifetime8LifetimeEEE3mapBI_NCINvNtNtBN_3gen4fold13fold_receiverNtNvCs9jpTMRK2ijq_11yoke_derive16replace_lifetime15ReplaceLifetimeE0EB2w_, symObjAddr: 0x2820, symBinAddr: 0x70080, symSize: 0xB0 }
  - { offset: 0x123680, size: 0x8, addend: 0x0, symName: __RINvMNtCsieiGu2EXtoJ_4core6optionINtB3_6OptionTNtNtCsdGrGZaRBwMb_3syn5token4ElseINtNtCslJiobkLta79_5alloc5boxed3BoxNtNtBN_4expr4ExprEEE3mapBI_NCINvNtNtBN_3gen4fold12fold_expr_ifNtNvCs9jpTMRK2ijq_11yoke_derive16replace_lifetime15ReplaceLifetimeE0EB2T_, symObjAddr: 0x28D0, symBinAddr: 0x70130, symSize: 0x70 }
  - { offset: 0x1236EB, size: 0x8, addend: 0x0, symName: __RINvMNtCsieiGu2EXtoJ_4core6optionINtB3_6OptionTNtNtCsdGrGZaRBwMb_3syn5token4ElseINtNtCslJiobkLta79_5alloc5boxed3BoxNtNtBN_4expr4ExprEEE3mapBI_NCINvNtNtBN_3gen4fold15fold_local_initNtNvCs9jpTMRK2ijq_11yoke_derive16replace_lifetime15ReplaceLifetimeE0EB2W_, symObjAddr: 0x2940, symBinAddr: 0x701A0, symSize: 0x70 }
  - { offset: 0x123756, size: 0x8, addend: 0x0, symName: __RINvMNtCsieiGu2EXtoJ_4core6optionINtB3_6OptionTNtNtCsdGrGZaRBwMb_3syn5token5BraceINtNtCslJiobkLta79_5alloc3vec3VecNtNtBN_4item4ItemEEE3mapBI_NCINvNtNtBN_3gen4fold13fold_item_modNtNvCs9jpTMRK2ijq_11yoke_derive16replace_lifetime15ReplaceLifetimeE0EB2T_, symObjAddr: 0x29B0, symBinAddr: 0x70210, symSize: 0xD0 }
  - { offset: 0x1237D0, size: 0x8, addend: 0x0, symName: __RINvMs0_NtCsdGrGZaRBwMb_3syn4attrNtB6_8MetaList15parse_args_withNvYNtCsaKzlTDPUHDb_11proc_macro25IdentNtNtB8_5parse5Parse5parseECs9jpTMRK2ijq_11yoke_derive, symObjAddr: 0x2A80, symBinAddr: 0x702E0, symSize: 0xE0 }
  - { offset: 0x123C89, size: 0x8, addend: 0x0, symName: __RNvMNtNtNtCsjK30CmJ87bX_9hashbrown7control5group4sse2NtB2_5Group44convert_special_to_empty_and_full_to_deletedCs9jpTMRK2ijq_11yoke_derive, symObjAddr: 0x3560, symBinAddr: 0x70DC0, symSize: 0xD0 }
  - { offset: 0x12414D, size: 0x8, addend: 0x0, symName: __RINvMs3_NtNtCscKtU6MdFI5n_10proc_macro6bridge6bufferNtB6_6Buffer17extend_from_arrayKj4_ECs9jpTMRK2ijq_11yoke_derive, symObjAddr: 0x0, symBinAddr: 0x71D30, symSize: 0x1E0 }
  - { offset: 0x124704, size: 0x8, addend: 0x0, symName: __RINvNtCsieiGu2EXtoJ_4core3ptr13drop_in_placeINtNtB4_4cell10UnsafeCellNtNtNtCscKtU6MdFI5n_10proc_macro6bridge6client6BridgeEECs9jpTMRK2ijq_11yoke_derive, symObjAddr: 0x400, symBinAddr: 0x720F0, symSize: 0x20 }
  - { offset: 0x124733, size: 0x8, addend: 0x0, symName: __RINvNtCsieiGu2EXtoJ_4core3ptr13drop_in_placeINtNtB4_4cell7RefCellNtNtNtCscKtU6MdFI5n_10proc_macro6bridge6client6BridgeEECs9jpTMRK2ijq_11yoke_derive, symObjAddr: 0x420, symBinAddr: 0x72110, symSize: 0x20 }
  - { offset: 0x124762, size: 0x8, addend: 0x0, symName: __RINvNtCsieiGu2EXtoJ_4core3ptr13drop_in_placeINtNtB4_6result6ResultNtCsaKzlTDPUHDb_11proc_macro25IdentNtNtCsdGrGZaRBwMb_3syn5error5ErrorEECs9jpTMRK2ijq_11yoke_derive, symObjAddr: 0x440, symBinAddr: 0x72130, symSize: 0x40 }
  - { offset: 0x124791, size: 0x8, addend: 0x0, symName: __RINvNtCsieiGu2EXtoJ_4core3ptr13drop_in_placeINtNtCsjK30CmJ87bX_9hashbrown3map7HashMapNtCsaKzlTDPUHDb_11proc_macro25IdentuNtNtNtCsHUR1vrdMJt_3std4hash6random11RandomStateEECs9jpTMRK2ijq_11yoke_derive, symObjAddr: 0x480, symBinAddr: 0x72170, symSize: 0x20 }
  - { offset: 0x1247C0, size: 0x8, addend: 0x0, symName: __RINvNtCsieiGu2EXtoJ_4core3ptr13drop_in_placeINtNtCsjK30CmJ87bX_9hashbrown3raw8RawTableTNtCsaKzlTDPUHDb_11proc_macro25IdentuEEECs9jpTMRK2ijq_11yoke_derive, symObjAddr: 0x4A0, symBinAddr: 0x72190, symSize: 0x20 }
  - { offset: 0x1247EF, size: 0x8, addend: 0x0, symName: __RINvNtCsieiGu2EXtoJ_4core3ptr13drop_in_placeINtNtCsjK30CmJ87bX_9hashbrown3set7HashSetNtCsaKzlTDPUHDb_11proc_macro25IdentNtNtNtCsHUR1vrdMJt_3std4hash6random11RandomStateEECs9jpTMRK2ijq_11yoke_derive, symObjAddr: 0x4C0, symBinAddr: 0x721B0, symSize: 0x20 }
  - { offset: 0x12481E, size: 0x8, addend: 0x0, symName: __RINvNtCsieiGu2EXtoJ_4core3ptr13drop_in_placeINtNtCslJiobkLta79_5alloc3vec3VecNtCsaKzlTDPUHDb_11proc_macro25IdentEECs9jpTMRK2ijq_11yoke_derive, symObjAddr: 0x4E0, symBinAddr: 0x721D0, symSize: 0x50 }
  - { offset: 0x12484D, size: 0x8, addend: 0x0, symName: __RINvNtCsieiGu2EXtoJ_4core3ptr13drop_in_placeINtNtCslJiobkLta79_5alloc3vec3VecNtNtCsdGrGZaRBwMb_3syn8generics14WherePredicateEECs9jpTMRK2ijq_11yoke_derive, symObjAddr: 0x530, symBinAddr: 0x72220, symSize: 0x50 }
  - { offset: 0x12487C, size: 0x8, addend: 0x0, symName: __RINvNtCsieiGu2EXtoJ_4core3ptr13drop_in_placeINtNtCslJiobkLta79_5alloc3vec3VecNtNtCsdGrGZaRBwMb_3syn8generics9TypeParamEECs9jpTMRK2ijq_11yoke_derive, symObjAddr: 0x580, symBinAddr: 0x72270, symSize: 0x50 }
  - { offset: 0x1248AB, size: 0x8, addend: 0x0, symName: __RINvNtCsieiGu2EXtoJ_4core3ptr13drop_in_placeINtNtCslJiobkLta79_5alloc5boxed3BoxDNtNtB4_5error5ErrorNtNtB4_6marker4SyncNtB1B_4SendEL_EECs9jpTMRK2ijq_11yoke_derive, symObjAddr: 0x5D0, symBinAddr: 0x722C0, symSize: 0x70 }
  - { offset: 0x1248DA, size: 0x8, addend: 0x0, symName: __RINvNtCsieiGu2EXtoJ_4core3ptr13drop_in_placeINtNtCslJiobkLta79_5alloc5boxed3BoxNtNtNtCsHUR1vrdMJt_3std2io5error6CustomEECs9jpTMRK2ijq_11yoke_derive, symObjAddr: 0x640, symBinAddr: 0x72330, symSize: 0x50 }
  - { offset: 0x124909, size: 0x8, addend: 0x0, symName: __RINvNtCsieiGu2EXtoJ_4core3ptr13drop_in_placeINtNtCslJiobkLta79_5alloc7raw_vec6RawVecNtCsaKzlTDPUHDb_11proc_macro25IdentEECs9jpTMRK2ijq_11yoke_derive, symObjAddr: 0x690, symBinAddr: 0x72380, symSize: 0x20 }
  - { offset: 0x124938, size: 0x8, addend: 0x0, symName: __RINvNtCsieiGu2EXtoJ_4core3ptr13drop_in_placeINtNtCslJiobkLta79_5alloc7raw_vec6RawVecNtNtCsdGrGZaRBwMb_3syn8generics14WherePredicateEECs9jpTMRK2ijq_11yoke_derive, symObjAddr: 0x6B0, symBinAddr: 0x723A0, symSize: 0x20 }
  - { offset: 0x124967, size: 0x8, addend: 0x0, symName: __RINvNtCsieiGu2EXtoJ_4core3ptr13drop_in_placeINtNtCslJiobkLta79_5alloc7raw_vec6RawVecNtNtCsdGrGZaRBwMb_3syn8generics9TypeParamEECs9jpTMRK2ijq_11yoke_derive, symObjAddr: 0x6D0, symBinAddr: 0x723C0, symSize: 0x20 }
  - { offset: 0x124996, size: 0x8, addend: 0x0, symName: __RINvNtCsieiGu2EXtoJ_4core3ptr13drop_in_placeINtNtNtCsHUR1vrdMJt_3std2io5error9ErrorDataINtNtCslJiobkLta79_5alloc5boxed3BoxNtBJ_6CustomEEECs9jpTMRK2ijq_11yoke_derive, symObjAddr: 0x6F0, symBinAddr: 0x723E0, symSize: 0x30 }
  - { offset: 0x1249C5, size: 0x8, addend: 0x0, symName: __RINvNtCsieiGu2EXtoJ_4core3ptr13drop_in_placeINtNtNtCslJiobkLta79_5alloc11collections9vec_deque8VecDequeTNtNtCsdGrGZaRBwMb_3syn2ty4TypeNtNtB1I_5token5CommaEEECs9jpTMRK2ijq_11yoke_derive, symObjAddr: 0x720, symBinAddr: 0x72410, symSize: 0x50 }
  - { offset: 0x1249F4, size: 0x8, addend: 0x0, symName: __RINvNtCsieiGu2EXtoJ_4core3ptr13drop_in_placeINtNtNtCslJiobkLta79_5alloc11collections9vec_deque8VecDequeTNtNtCsdGrGZaRBwMb_3syn2ty9BareFnArgNtNtB1I_5token5CommaEEECs9jpTMRK2ijq_11yoke_derive, symObjAddr: 0x770, symBinAddr: 0x72460, symSize: 0x50 }
  - { offset: 0x124A23, size: 0x8, addend: 0x0, symName: __RINvNtCsieiGu2EXtoJ_4core3ptr13drop_in_placeINtNtNtCslJiobkLta79_5alloc11collections9vec_deque8VecDequeTNtNtCsdGrGZaRBwMb_3syn3pat3PatNtNtB1I_5token2OrEEECs9jpTMRK2ijq_11yoke_derive, symObjAddr: 0x7C0, symBinAddr: 0x724B0, symSize: 0x50 }
  - { offset: 0x124A52, size: 0x8, addend: 0x0, symName: __RINvNtCsieiGu2EXtoJ_4core3ptr13drop_in_placeINtNtNtCslJiobkLta79_5alloc11collections9vec_deque8VecDequeTNtNtCsdGrGZaRBwMb_3syn3pat3PatNtNtB1I_5token5CommaEEECs9jpTMRK2ijq_11yoke_derive, symObjAddr: 0x810, symBinAddr: 0x72500, symSize: 0x50 }
  - { offset: 0x124A81, size: 0x8, addend: 0x0, symName: __RINvNtCsieiGu2EXtoJ_4core3ptr13drop_in_placeINtNtNtCslJiobkLta79_5alloc11collections9vec_deque8VecDequeTNtNtCsdGrGZaRBwMb_3syn3pat8FieldPatNtNtB1I_5token5CommaEEECs9jpTMRK2ijq_11yoke_derive, symObjAddr: 0x860, symBinAddr: 0x72550, symSize: 0x50 }
  - { offset: 0x124AB0, size: 0x8, addend: 0x0, symName: __RINvNtCsieiGu2EXtoJ_4core3ptr13drop_in_placeINtNtNtCslJiobkLta79_5alloc11collections9vec_deque8VecDequeTNtNtCsdGrGZaRBwMb_3syn4data5FieldNtNtB1I_5token5CommaEEECs9jpTMRK2ijq_11yoke_derive, symObjAddr: 0x8B0, symBinAddr: 0x725A0, symSize: 0x50 }
  - { offset: 0x124ADF, size: 0x8, addend: 0x0, symName: __RINvNtCsieiGu2EXtoJ_4core3ptr13drop_in_placeINtNtNtCslJiobkLta79_5alloc11collections9vec_deque8VecDequeTNtNtCsdGrGZaRBwMb_3syn4data7VariantNtNtB1I_5token5CommaEEECs9jpTMRK2ijq_11yoke_derive, symObjAddr: 0x900, symBinAddr: 0x725F0, symSize: 0x50 }
  - { offset: 0x124B0E, size: 0x8, addend: 0x0, symName: __RINvNtCsieiGu2EXtoJ_4core3ptr13drop_in_placeINtNtNtCslJiobkLta79_5alloc11collections9vec_deque8VecDequeTNtNtCsdGrGZaRBwMb_3syn4expr10FieldValueNtNtB1I_5token5CommaEEECs9jpTMRK2ijq_11yoke_derive, symObjAddr: 0x950, symBinAddr: 0x72640, symSize: 0x50 }
  - { offset: 0x124B3D, size: 0x8, addend: 0x0, symName: __RINvNtCsieiGu2EXtoJ_4core3ptr13drop_in_placeINtNtNtCslJiobkLta79_5alloc11collections9vec_deque8VecDequeTNtNtCsdGrGZaRBwMb_3syn4expr4ExprNtNtB1I_5token5CommaEEECs9jpTMRK2ijq_11yoke_derive, symObjAddr: 0x9A0, symBinAddr: 0x72690, symSize: 0x50 }
  - { offset: 0x124B6C, size: 0x8, addend: 0x0, symName: __RINvNtCsieiGu2EXtoJ_4core3ptr13drop_in_placeINtNtNtCslJiobkLta79_5alloc11collections9vec_deque8VecDequeTNtNtCsdGrGZaRBwMb_3syn4item5FnArgNtNtB1I_5token5CommaEEECs9jpTMRK2ijq_11yoke_derive, symObjAddr: 0x9F0, symBinAddr: 0x726E0, symSize: 0x50 }
  - { offset: 0x124B9B, size: 0x8, addend: 0x0, symName: __RINvNtCsieiGu2EXtoJ_4core3ptr13drop_in_placeINtNtNtCslJiobkLta79_5alloc11collections9vec_deque8VecDequeTNtNtCsdGrGZaRBwMb_3syn4item7UseTreeNtNtB1I_5token5CommaEEECs9jpTMRK2ijq_11yoke_derive, symObjAddr: 0xA40, symBinAddr: 0x72730, symSize: 0x50 }
  - { offset: 0x124BCA, size: 0x8, addend: 0x0, symName: __RINvNtCsieiGu2EXtoJ_4core3ptr13drop_in_placeINtNtNtCslJiobkLta79_5alloc11collections9vec_deque8VecDequeTNtNtCsdGrGZaRBwMb_3syn4path11PathSegmentNtNtB1I_5token7PathSepEEECs9jpTMRK2ijq_11yoke_derive, symObjAddr: 0xA90, symBinAddr: 0x72780, symSize: 0x50 }
  - { offset: 0x124BF9, size: 0x8, addend: 0x0, symName: __RINvNtCsieiGu2EXtoJ_4core3ptr13drop_in_placeINtNtNtCslJiobkLta79_5alloc11collections9vec_deque8VecDequeTNtNtCsdGrGZaRBwMb_3syn4path15GenericArgumentNtNtB1I_5token5CommaEEECs9jpTMRK2ijq_11yoke_derive, symObjAddr: 0xAE0, symBinAddr: 0x727D0, symSize: 0x50 }
  - { offset: 0x124C28, size: 0x8, addend: 0x0, symName: __RINvNtCsieiGu2EXtoJ_4core3ptr13drop_in_placeINtNtNtCslJiobkLta79_5alloc11collections9vec_deque8VecDequeTNtNtCsdGrGZaRBwMb_3syn8generics12GenericParamNtNtB1I_5token5CommaEEECs9jpTMRK2ijq_11yoke_derive, symObjAddr: 0xB30, symBinAddr: 0x72820, symSize: 0x50 }
  - { offset: 0x124C57, size: 0x8, addend: 0x0, symName: __RINvNtCsieiGu2EXtoJ_4core3ptr13drop_in_placeINtNtNtCslJiobkLta79_5alloc11collections9vec_deque8VecDequeTNtNtCsdGrGZaRBwMb_3syn8generics13CapturedParamNtNtB1I_5token5CommaEEECs9jpTMRK2ijq_11yoke_derive, symObjAddr: 0xB80, symBinAddr: 0x72870, symSize: 0x50 }
  - { offset: 0x124C86, size: 0x8, addend: 0x0, symName: __RINvNtCsieiGu2EXtoJ_4core3ptr13drop_in_placeINtNtNtCslJiobkLta79_5alloc11collections9vec_deque8VecDequeTNtNtCsdGrGZaRBwMb_3syn8generics14TypeParamBoundNtNtB1I_5token4PlusEEECs9jpTMRK2ijq_11yoke_derive, symObjAddr: 0xBD0, symBinAddr: 0x728C0, symSize: 0x50 }
  - { offset: 0x124CB5, size: 0x8, addend: 0x0, symName: __RINvNtCsieiGu2EXtoJ_4core3ptr13drop_in_placeINtNtNtCslJiobkLta79_5alloc11collections9vec_deque8VecDequeTNtNtCsdGrGZaRBwMb_3syn8generics14WherePredicateNtNtB1I_5token5CommaEEECs9jpTMRK2ijq_11yoke_derive, symObjAddr: 0xC20, symBinAddr: 0x72910, symSize: 0x50 }
  - { offset: 0x124CE4, size: 0x8, addend: 0x0, symName: __RINvNtCsieiGu2EXtoJ_4core3ptr13drop_in_placeINtNtNtCslJiobkLta79_5alloc11collections9vec_deque8VecDequeTNtNtCsdGrGZaRBwMb_3syn8lifetime8LifetimeNtNtB1I_5token4PlusEEECs9jpTMRK2ijq_11yoke_derive, symObjAddr: 0xC70, symBinAddr: 0x72960, symSize: 0x50 }
  - { offset: 0x124D13, size: 0x8, addend: 0x0, symName: __RINvNtCsieiGu2EXtoJ_4core3ptr13drop_in_placeINtNtNtCslJiobkLta79_5alloc3vec13in_place_drop11InPlaceDropNtNtCsdGrGZaRBwMb_3syn4attr9AttributeEECs9jpTMRK2ijq_11yoke_derive, symObjAddr: 0xCC0, symBinAddr: 0x729B0, symSize: 0x20 }
  - { offset: 0x124D42, size: 0x8, addend: 0x0, symName: __RINvNtCsieiGu2EXtoJ_4core3ptr13drop_in_placeINtNtNtCslJiobkLta79_5alloc3vec13in_place_drop11InPlaceDropNtNtCsdGrGZaRBwMb_3syn4expr3ArmEECs9jpTMRK2ijq_11yoke_derive, symObjAddr: 0xCE0, symBinAddr: 0x729D0, symSize: 0x20 }
  - { offset: 0x124D71, size: 0x8, addend: 0x0, symName: __RINvNtCsieiGu2EXtoJ_4core3ptr13drop_in_placeINtNtNtCslJiobkLta79_5alloc3vec13in_place_drop11InPlaceDropNtNtCsdGrGZaRBwMb_3syn4item11ForeignItemEECs9jpTMRK2ijq_11yoke_derive, symObjAddr: 0xD00, symBinAddr: 0x729F0, symSize: 0x20 }
  - { offset: 0x124DA0, size: 0x8, addend: 0x0, symName: __RINvNtCsieiGu2EXtoJ_4core3ptr13drop_in_placeINtNtNtCslJiobkLta79_5alloc3vec13in_place_drop11InPlaceDropNtNtCsdGrGZaRBwMb_3syn4item4ItemEECs9jpTMRK2ijq_11yoke_derive, symObjAddr: 0xD20, symBinAddr: 0x72A10, symSize: 0x20 }
  - { offset: 0x124DCF, size: 0x8, addend: 0x0, symName: __RINvNtCsieiGu2EXtoJ_4core3ptr13drop_in_placeINtNtNtCslJiobkLta79_5alloc3vec13in_place_drop11InPlaceDropNtNtCsdGrGZaRBwMb_3syn4item8ImplItemEECs9jpTMRK2ijq_11yoke_derive, symObjAddr: 0xD40, symBinAddr: 0x72A30, symSize: 0x20 }
  - { offset: 0x124DFE, size: 0x8, addend: 0x0, symName: __RINvNtCsieiGu2EXtoJ_4core3ptr13drop_in_placeINtNtNtCslJiobkLta79_5alloc3vec13in_place_drop11InPlaceDropNtNtCsdGrGZaRBwMb_3syn4item9TraitItemEECs9jpTMRK2ijq_11yoke_derive, symObjAddr: 0xD60, symBinAddr: 0x72A50, symSize: 0x20 }
  - { offset: 0x124E2D, size: 0x8, addend: 0x0, symName: __RINvNtCsieiGu2EXtoJ_4core3ptr13drop_in_placeINtNtNtCslJiobkLta79_5alloc3vec13in_place_drop11InPlaceDropNtNtCsdGrGZaRBwMb_3syn4stmt4StmtEECs9jpTMRK2ijq_11yoke_derive, symObjAddr: 0xD80, symBinAddr: 0x72A70, symSize: 0x20 }
  - { offset: 0x124E5C, size: 0x8, addend: 0x0, symName: __RINvNtCsieiGu2EXtoJ_4core3ptr13drop_in_placeINtNtNtCslJiobkLta79_5alloc3vec13in_place_drop24InPlaceDstDataSrcBufDropNtNtCsdGrGZaRBwMb_3syn4attr9AttributeB1Q_EECs9jpTMRK2ijq_11yoke_derive, symObjAddr: 0xDA0, symBinAddr: 0x72A90, symSize: 0x20 }
  - { offset: 0x124E8B, size: 0x8, addend: 0x0, symName: __RINvNtCsieiGu2EXtoJ_4core3ptr13drop_in_placeINtNtNtCslJiobkLta79_5alloc3vec13in_place_drop24InPlaceDstDataSrcBufDropNtNtCsdGrGZaRBwMb_3syn4expr3ArmB1Q_EECs9jpTMRK2ijq_11yoke_derive, symObjAddr: 0xDC0, symBinAddr: 0x72AB0, symSize: 0x20 }
  - { offset: 0x124EBA, size: 0x8, addend: 0x0, symName: __RINvNtCsieiGu2EXtoJ_4core3ptr13drop_in_placeINtNtNtCslJiobkLta79_5alloc3vec13in_place_drop24InPlaceDstDataSrcBufDropNtNtCsdGrGZaRBwMb_3syn4item11ForeignItemB1Q_EECs9jpTMRK2ijq_11yoke_derive, symObjAddr: 0xDE0, symBinAddr: 0x72AD0, symSize: 0x20 }
  - { offset: 0x124EE9, size: 0x8, addend: 0x0, symName: __RINvNtCsieiGu2EXtoJ_4core3ptr13drop_in_placeINtNtNtCslJiobkLta79_5alloc3vec13in_place_drop24InPlaceDstDataSrcBufDropNtNtCsdGrGZaRBwMb_3syn4item4ItemB1Q_EECs9jpTMRK2ijq_11yoke_derive, symObjAddr: 0xE00, symBinAddr: 0x72AF0, symSize: 0x20 }
  - { offset: 0x124F18, size: 0x8, addend: 0x0, symName: __RINvNtCsieiGu2EXtoJ_4core3ptr13drop_in_placeINtNtNtCslJiobkLta79_5alloc3vec13in_place_drop24InPlaceDstDataSrcBufDropNtNtCsdGrGZaRBwMb_3syn4item8ImplItemB1Q_EECs9jpTMRK2ijq_11yoke_derive, symObjAddr: 0xE20, symBinAddr: 0x72B10, symSize: 0x20 }
  - { offset: 0x124F47, size: 0x8, addend: 0x0, symName: __RINvNtCsieiGu2EXtoJ_4core3ptr13drop_in_placeINtNtNtCslJiobkLta79_5alloc3vec13in_place_drop24InPlaceDstDataSrcBufDropNtNtCsdGrGZaRBwMb_3syn4item9TraitItemB1Q_EECs9jpTMRK2ijq_11yoke_derive, symObjAddr: 0xE40, symBinAddr: 0x72B30, symSize: 0x20 }
  - { offset: 0x124F76, size: 0x8, addend: 0x0, symName: __RINvNtCsieiGu2EXtoJ_4core3ptr13drop_in_placeINtNtNtCslJiobkLta79_5alloc3vec13in_place_drop24InPlaceDstDataSrcBufDropNtNtCsdGrGZaRBwMb_3syn4stmt4StmtB1Q_EECs9jpTMRK2ijq_11yoke_derive, symObjAddr: 0xE60, symBinAddr: 0x72B50, symSize: 0x20 }
  - { offset: 0x124FA5, size: 0x8, addend: 0x0, symName: __RINvNtCsieiGu2EXtoJ_4core3ptr13drop_in_placeINtNtNtCslJiobkLta79_5alloc3vec9into_iter8IntoIterNtNtCsdGrGZaRBwMb_3syn4expr3ArmEECs9jpTMRK2ijq_11yoke_derive, symObjAddr: 0xE80, symBinAddr: 0x72B70, symSize: 0x20 }
  - { offset: 0x124FD4, size: 0x8, addend: 0x0, symName: __RINvNtCsieiGu2EXtoJ_4core3ptr13drop_in_placeINtNtNtCslJiobkLta79_5alloc3vec9into_iter8IntoIterNtNtCsdGrGZaRBwMb_3syn4item11ForeignItemEECs9jpTMRK2ijq_11yoke_derive, symObjAddr: 0xEA0, symBinAddr: 0x72B90, symSize: 0x20 }
  - { offset: 0x125003, size: 0x8, addend: 0x0, symName: __RINvNtCsieiGu2EXtoJ_4core3ptr13drop_in_placeINtNtNtCslJiobkLta79_5alloc3vec9into_iter8IntoIterNtNtCsdGrGZaRBwMb_3syn4item4ItemEECs9jpTMRK2ijq_11yoke_derive, symObjAddr: 0xEC0, symBinAddr: 0x72BB0, symSize: 0x20 }
  - { offset: 0x125032, size: 0x8, addend: 0x0, symName: __RINvNtCsieiGu2EXtoJ_4core3ptr13drop_in_placeINtNtNtCslJiobkLta79_5alloc3vec9into_iter8IntoIterNtNtCsdGrGZaRBwMb_3syn4item8ImplItemEECs9jpTMRK2ijq_11yoke_derive, symObjAddr: 0xEE0, symBinAddr: 0x72BD0, symSize: 0x20 }
  - { offset: 0x125061, size: 0x8, addend: 0x0, symName: __RINvNtCsieiGu2EXtoJ_4core3ptr13drop_in_placeINtNtNtCslJiobkLta79_5alloc3vec9into_iter8IntoIterNtNtCsdGrGZaRBwMb_3syn4item9TraitItemEECs9jpTMRK2ijq_11yoke_derive, symObjAddr: 0xF00, symBinAddr: 0x72BF0, symSize: 0x20 }
  - { offset: 0x125090, size: 0x8, addend: 0x0, symName: __RINvNtCsieiGu2EXtoJ_4core3ptr13drop_in_placeINtNtNtCslJiobkLta79_5alloc3vec9into_iter8IntoIterNtNtCsdGrGZaRBwMb_3syn4stmt4StmtEECs9jpTMRK2ijq_11yoke_derive, symObjAddr: 0xF20, symBinAddr: 0x72C10, symSize: 0x20 }
  - { offset: 0x1250BF, size: 0x8, addend: 0x0, symName: __RINvNtCsieiGu2EXtoJ_4core3ptr13drop_in_placeINtNtNtNtB4_4iter8adapters3map3MapINtNtNtCslJiobkLta79_5alloc3vec9into_iter8IntoIterNtNtCsdGrGZaRBwMb_3syn4attr9AttributeENCINvNtNtB26_3gen4fold8fold_vecB22_NtNvCs9jpTMRK2ijq_11yoke_derive16replace_lifetime15ReplaceLifetimeNvYB3d_NtB2J_4Fold14fold_attributeE0EEB3h_, symObjAddr: 0xF40, symBinAddr: 0x72C30, symSize: 0x20 }
  - { offset: 0x1250EE, size: 0x8, addend: 0x0, symName: __RINvNtCsieiGu2EXtoJ_4core3ptr13drop_in_placeINtNtNtNtB4_4iter8adapters3map3MapINtNtNtCslJiobkLta79_5alloc3vec9into_iter8IntoIterNtNtCsdGrGZaRBwMb_3syn4expr3ArmENCINvNtNtB26_3gen4fold8fold_vecB22_NtNvCs9jpTMRK2ijq_11yoke_derive16replace_lifetime15ReplaceLifetimeNvYB37_NtB2D_4Fold8fold_armE0EEB3b_, symObjAddr: 0xF60, symBinAddr: 0x72C50, symSize: 0x20 }
  - { offset: 0x12511D, size: 0x8, addend: 0x0, symName: __RINvNtCsieiGu2EXtoJ_4core3ptr13drop_in_placeINtNtNtNtB4_4iter8adapters3map3MapINtNtNtCslJiobkLta79_5alloc3vec9into_iter8IntoIterNtNtCsdGrGZaRBwMb_3syn4item11ForeignItemENCINvNtNtB26_3gen4fold8fold_vecB22_NtNvCs9jpTMRK2ijq_11yoke_derive16replace_lifetime15ReplaceLifetimeNvYB3g_NtB2M_4Fold17fold_foreign_itemE0EEB3k_, symObjAddr: 0xF80, symBinAddr: 0x72C70, symSize: 0x20 }
  - { offset: 0x12514C, size: 0x8, addend: 0x0, symName: __RINvNtCsieiGu2EXtoJ_4core3ptr13drop_in_placeINtNtNtNtB4_4iter8adapters3map3MapINtNtNtCslJiobkLta79_5alloc3vec9into_iter8IntoIterNtNtCsdGrGZaRBwMb_3syn4item4ItemENCINvNtNtB26_3gen4fold8fold_vecB22_NtNvCs9jpTMRK2ijq_11yoke_derive16replace_lifetime15ReplaceLifetimeNvYB38_NtB2E_4Fold9fold_itemE0EEB3c_, symObjAddr: 0xFA0, symBinAddr: 0x72C90, symSize: 0x20 }
  - { offset: 0x12517B, size: 0x8, addend: 0x0, symName: __RINvNtCsieiGu2EXtoJ_4core3ptr13drop_in_placeINtNtNtNtB4_4iter8adapters3map3MapINtNtNtCslJiobkLta79_5alloc3vec9into_iter8IntoIterNtNtCsdGrGZaRBwMb_3syn4item8ImplItemENCINvNtNtB26_3gen4fold8fold_vecB22_NtNvCs9jpTMRK2ijq_11yoke_derive16replace_lifetime15ReplaceLifetimeNvYB3c_NtB2I_4Fold14fold_impl_itemE0EEB3g_, symObjAddr: 0xFC0, symBinAddr: 0x72CB0, symSize: 0x20 }
  - { offset: 0x1251AA, size: 0x8, addend: 0x0, symName: __RINvNtCsieiGu2EXtoJ_4core3ptr13drop_in_placeINtNtNtNtB4_4iter8adapters3map3MapINtNtNtCslJiobkLta79_5alloc3vec9into_iter8IntoIterNtNtCsdGrGZaRBwMb_3syn4item9TraitItemENCINvNtNtB26_3gen4fold8fold_vecB22_NtNvCs9jpTMRK2ijq_11yoke_derive16replace_lifetime15ReplaceLifetimeNvYB3d_NtB2J_4Fold15fold_trait_itemE0EEB3h_, symObjAddr: 0xFE0, symBinAddr: 0x72CD0, symSize: 0x20 }
  - { offset: 0x1251D9, size: 0x8, addend: 0x0, symName: __RINvNtCsieiGu2EXtoJ_4core3ptr13drop_in_placeINtNtNtNtB4_4iter8adapters3map3MapINtNtNtCslJiobkLta79_5alloc3vec9into_iter8IntoIterNtNtCsdGrGZaRBwMb_3syn4stmt4StmtENCINvNtNtB26_3gen4fold8fold_vecB22_NtNvCs9jpTMRK2ijq_11yoke_derive16replace_lifetime15ReplaceLifetimeNvYB38_NtB2E_4Fold9fold_stmtE0EEB3c_, symObjAddr: 0x1000, symBinAddr: 0x72CF0, symSize: 0x20 }
  - { offset: 0x125208, size: 0x8, addend: 0x0, symName: __RINvNtCsieiGu2EXtoJ_4core3ptr13drop_in_placeINtNtNtNtB4_4iter8adapters3map3MapNtNtCsdGrGZaRBwMb_3syn8generics10TypeParamsNCNvCs9jpTMRK2ijq_11yoke_derive20yokeable_derive_impl0EEB1Z_, symObjAddr: 0x1020, symBinAddr: 0x72D10, symSize: 0x20 }
  - { offset: 0x125237, size: 0x8, addend: 0x0, symName: __RINvNtCsieiGu2EXtoJ_4core3ptr13drop_in_placeINtNtNtNtCsHUR1vrdMJt_3std11collections4hash3set7HashSetNtCsaKzlTDPUHDb_11proc_macro25IdentEECs9jpTMRK2ijq_11yoke_derive, symObjAddr: 0x1040, symBinAddr: 0x72D30, symSize: 0x20 }
  - { offset: 0x125266, size: 0x8, addend: 0x0, symName: __RINvNtCsieiGu2EXtoJ_4core3ptr13drop_in_placeINtNvXs_NtNtCslJiobkLta79_5alloc11collections9vec_dequeINtBO_8VecDequeppENtNtNtB4_3ops4drop4Drop4drop7DropperTNtNtCsdGrGZaRBwMb_3syn2ty4TypeNtNtB2w_5token5CommaEEECs9jpTMRK2ijq_11yoke_derive, symObjAddr: 0x1060, symBinAddr: 0x72D50, symSize: 0x20 }
  - { offset: 0x125295, size: 0x8, addend: 0x0, symName: __RINvNtCsieiGu2EXtoJ_4core3ptr13drop_in_placeINtNvXs_NtNtCslJiobkLta79_5alloc11collections9vec_dequeINtBO_8VecDequeppENtNtNtB4_3ops4drop4Drop4drop7DropperTNtNtCsdGrGZaRBwMb_3syn2ty9BareFnArgNtNtB2w_5token5CommaEEECs9jpTMRK2ijq_11yoke_derive, symObjAddr: 0x1080, symBinAddr: 0x72D70, symSize: 0x20 }
  - { offset: 0x1252C4, size: 0x8, addend: 0x0, symName: __RINvNtCsieiGu2EXtoJ_4core3ptr13drop_in_placeINtNvXs_NtNtCslJiobkLta79_5alloc11collections9vec_dequeINtBO_8VecDequeppENtNtNtB4_3ops4drop4Drop4drop7DropperTNtNtCsdGrGZaRBwMb_3syn3pat3PatNtNtB2w_5token2OrEEECs9jpTMRK2ijq_11yoke_derive, symObjAddr: 0x10A0, symBinAddr: 0x72D90, symSize: 0x20 }
  - { offset: 0x1252F3, size: 0x8, addend: 0x0, symName: __RINvNtCsieiGu2EXtoJ_4core3ptr13drop_in_placeINtNvXs_NtNtCslJiobkLta79_5alloc11collections9vec_dequeINtBO_8VecDequeppENtNtNtB4_3ops4drop4Drop4drop7DropperTNtNtCsdGrGZaRBwMb_3syn3pat3PatNtNtB2w_5token5CommaEEECs9jpTMRK2ijq_11yoke_derive, symObjAddr: 0x10C0, symBinAddr: 0x72DB0, symSize: 0x20 }
  - { offset: 0x125322, size: 0x8, addend: 0x0, symName: __RINvNtCsieiGu2EXtoJ_4core3ptr13drop_in_placeINtNvXs_NtNtCslJiobkLta79_5alloc11collections9vec_dequeINtBO_8VecDequeppENtNtNtB4_3ops4drop4Drop4drop7DropperTNtNtCsdGrGZaRBwMb_3syn3pat8FieldPatNtNtB2w_5token5CommaEEECs9jpTMRK2ijq_11yoke_derive, symObjAddr: 0x10E0, symBinAddr: 0x72DD0, symSize: 0x20 }
  - { offset: 0x125351, size: 0x8, addend: 0x0, symName: __RINvNtCsieiGu2EXtoJ_4core3ptr13drop_in_placeINtNvXs_NtNtCslJiobkLta79_5alloc11collections9vec_dequeINtBO_8VecDequeppENtNtNtB4_3ops4drop4Drop4drop7DropperTNtNtCsdGrGZaRBwMb_3syn4data5FieldNtNtB2w_5token5CommaEEECs9jpTMRK2ijq_11yoke_derive, symObjAddr: 0x1100, symBinAddr: 0x72DF0, symSize: 0x20 }
  - { offset: 0x125380, size: 0x8, addend: 0x0, symName: __RINvNtCsieiGu2EXtoJ_4core3ptr13drop_in_placeINtNvXs_NtNtCslJiobkLta79_5alloc11collections9vec_dequeINtBO_8VecDequeppENtNtNtB4_3ops4drop4Drop4drop7DropperTNtNtCsdGrGZaRBwMb_3syn4data7VariantNtNtB2w_5token5CommaEEECs9jpTMRK2ijq_11yoke_derive, symObjAddr: 0x1120, symBinAddr: 0x72E10, symSize: 0x20 }
  - { offset: 0x1253AF, size: 0x8, addend: 0x0, symName: __RINvNtCsieiGu2EXtoJ_4core3ptr13drop_in_placeINtNvXs_NtNtCslJiobkLta79_5alloc11collections9vec_dequeINtBO_8VecDequeppENtNtNtB4_3ops4drop4Drop4drop7DropperTNtNtCsdGrGZaRBwMb_3syn4expr10FieldValueNtNtB2w_5token5CommaEEECs9jpTMRK2ijq_11yoke_derive, symObjAddr: 0x1140, symBinAddr: 0x72E30, symSize: 0x20 }
  - { offset: 0x1253DE, size: 0x8, addend: 0x0, symName: __RINvNtCsieiGu2EXtoJ_4core3ptr13drop_in_placeINtNvXs_NtNtCslJiobkLta79_5alloc11collections9vec_dequeINtBO_8VecDequeppENtNtNtB4_3ops4drop4Drop4drop7DropperTNtNtCsdGrGZaRBwMb_3syn4expr4ExprNtNtB2w_5token5CommaEEECs9jpTMRK2ijq_11yoke_derive, symObjAddr: 0x1160, symBinAddr: 0x72E50, symSize: 0x20 }
  - { offset: 0x12540D, size: 0x8, addend: 0x0, symName: __RINvNtCsieiGu2EXtoJ_4core3ptr13drop_in_placeINtNvXs_NtNtCslJiobkLta79_5alloc11collections9vec_dequeINtBO_8VecDequeppENtNtNtB4_3ops4drop4Drop4drop7DropperTNtNtCsdGrGZaRBwMb_3syn4item5FnArgNtNtB2w_5token5CommaEEECs9jpTMRK2ijq_11yoke_derive, symObjAddr: 0x1180, symBinAddr: 0x72E70, symSize: 0x20 }
  - { offset: 0x12543C, size: 0x8, addend: 0x0, symName: __RINvNtCsieiGu2EXtoJ_4core3ptr13drop_in_placeINtNvXs_NtNtCslJiobkLta79_5alloc11collections9vec_dequeINtBO_8VecDequeppENtNtNtB4_3ops4drop4Drop4drop7DropperTNtNtCsdGrGZaRBwMb_3syn4item7UseTreeNtNtB2w_5token5CommaEEECs9jpTMRK2ijq_11yoke_derive, symObjAddr: 0x11A0, symBinAddr: 0x72E90, symSize: 0x20 }
  - { offset: 0x12546B, size: 0x8, addend: 0x0, symName: __RINvNtCsieiGu2EXtoJ_4core3ptr13drop_in_placeINtNvXs_NtNtCslJiobkLta79_5alloc11collections9vec_dequeINtBO_8VecDequeppENtNtNtB4_3ops4drop4Drop4drop7DropperTNtNtCsdGrGZaRBwMb_3syn4path11PathSegmentNtNtB2w_5token7PathSepEEECs9jpTMRK2ijq_11yoke_derive, symObjAddr: 0x11C0, symBinAddr: 0x72EB0, symSize: 0x20 }
  - { offset: 0x12549A, size: 0x8, addend: 0x0, symName: __RINvNtCsieiGu2EXtoJ_4core3ptr13drop_in_placeINtNvXs_NtNtCslJiobkLta79_5alloc11collections9vec_dequeINtBO_8VecDequeppENtNtNtB4_3ops4drop4Drop4drop7DropperTNtNtCsdGrGZaRBwMb_3syn4path15GenericArgumentNtNtB2w_5token5CommaEEECs9jpTMRK2ijq_11yoke_derive, symObjAddr: 0x11E0, symBinAddr: 0x72ED0, symSize: 0x20 }
  - { offset: 0x1254C9, size: 0x8, addend: 0x0, symName: __RINvNtCsieiGu2EXtoJ_4core3ptr13drop_in_placeINtNvXs_NtNtCslJiobkLta79_5alloc11collections9vec_dequeINtBO_8VecDequeppENtNtNtB4_3ops4drop4Drop4drop7DropperTNtNtCsdGrGZaRBwMb_3syn8generics12GenericParamNtNtB2w_5token5CommaEEECs9jpTMRK2ijq_11yoke_derive, symObjAddr: 0x1200, symBinAddr: 0x72EF0, symSize: 0x20 }
  - { offset: 0x1254F8, size: 0x8, addend: 0x0, symName: __RINvNtCsieiGu2EXtoJ_4core3ptr13drop_in_placeINtNvXs_NtNtCslJiobkLta79_5alloc11collections9vec_dequeINtBO_8VecDequeppENtNtNtB4_3ops4drop4Drop4drop7DropperTNtNtCsdGrGZaRBwMb_3syn8generics13CapturedParamNtNtB2w_5token5CommaEEECs9jpTMRK2ijq_11yoke_derive, symObjAddr: 0x1220, symBinAddr: 0x72F10, symSize: 0x20 }
  - { offset: 0x125527, size: 0x8, addend: 0x0, symName: __RINvNtCsieiGu2EXtoJ_4core3ptr13drop_in_placeINtNvXs_NtNtCslJiobkLta79_5alloc11collections9vec_dequeINtBO_8VecDequeppENtNtNtB4_3ops4drop4Drop4drop7DropperTNtNtCsdGrGZaRBwMb_3syn8generics14TypeParamBoundNtNtB2w_5token4PlusEEECs9jpTMRK2ijq_11yoke_derive, symObjAddr: 0x1240, symBinAddr: 0x72F30, symSize: 0x20 }
  - { offset: 0x125556, size: 0x8, addend: 0x0, symName: __RINvNtCsieiGu2EXtoJ_4core3ptr13drop_in_placeINtNvXs_NtNtCslJiobkLta79_5alloc11collections9vec_dequeINtBO_8VecDequeppENtNtNtB4_3ops4drop4Drop4drop7DropperTNtNtCsdGrGZaRBwMb_3syn8generics14WherePredicateNtNtB2w_5token5CommaEEECs9jpTMRK2ijq_11yoke_derive, symObjAddr: 0x1260, symBinAddr: 0x72F50, symSize: 0x20 }
  - { offset: 0x125585, size: 0x8, addend: 0x0, symName: __RINvNtCsieiGu2EXtoJ_4core3ptr13drop_in_placeINtNvXs_NtNtCslJiobkLta79_5alloc11collections9vec_dequeINtBO_8VecDequeppENtNtNtB4_3ops4drop4Drop4drop7DropperTNtNtCsdGrGZaRBwMb_3syn8lifetime8LifetimeNtNtB2w_5token4PlusEEECs9jpTMRK2ijq_11yoke_derive, symObjAddr: 0x1280, symBinAddr: 0x72F70, symSize: 0x20 }
  - { offset: 0x1255B4, size: 0x8, addend: 0x0, symName: __RINvNtCsieiGu2EXtoJ_4core3ptr13drop_in_placeINtNvXsd_NtNtCslJiobkLta79_5alloc3vec9into_iterINtBP_8IntoIterppENtNtNtB4_3ops4drop4Drop4drop9DropGuardNtNtCsdGrGZaRBwMb_3syn4expr3ArmNtNtBT_5alloc6GlobalEECs9jpTMRK2ijq_11yoke_derive, symObjAddr: 0x12A0, symBinAddr: 0x72F90, symSize: 0x20 }
  - { offset: 0x1255E3, size: 0x8, addend: 0x0, symName: __RINvNtCsieiGu2EXtoJ_4core3ptr13drop_in_placeINtNvXsd_NtNtCslJiobkLta79_5alloc3vec9into_iterINtBP_8IntoIterppENtNtNtB4_3ops4drop4Drop4drop9DropGuardNtNtCsdGrGZaRBwMb_3syn4item11ForeignItemNtNtBT_5alloc6GlobalEECs9jpTMRK2ijq_11yoke_derive, symObjAddr: 0x12C0, symBinAddr: 0x72FB0, symSize: 0x20 }
  - { offset: 0x125612, size: 0x8, addend: 0x0, symName: __RINvNtCsieiGu2EXtoJ_4core3ptr13drop_in_placeINtNvXsd_NtNtCslJiobkLta79_5alloc3vec9into_iterINtBP_8IntoIterppENtNtNtB4_3ops4drop4Drop4drop9DropGuardNtNtCsdGrGZaRBwMb_3syn4item4ItemNtNtBT_5alloc6GlobalEECs9jpTMRK2ijq_11yoke_derive, symObjAddr: 0x12E0, symBinAddr: 0x72FD0, symSize: 0x20 }
  - { offset: 0x125641, size: 0x8, addend: 0x0, symName: __RINvNtCsieiGu2EXtoJ_4core3ptr13drop_in_placeINtNvXsd_NtNtCslJiobkLta79_5alloc3vec9into_iterINtBP_8IntoIterppENtNtNtB4_3ops4drop4Drop4drop9DropGuardNtNtCsdGrGZaRBwMb_3syn4item8ImplItemNtNtBT_5alloc6GlobalEECs9jpTMRK2ijq_11yoke_derive, symObjAddr: 0x1300, symBinAddr: 0x72FF0, symSize: 0x20 }
  - { offset: 0x125670, size: 0x8, addend: 0x0, symName: __RINvNtCsieiGu2EXtoJ_4core3ptr13drop_in_placeINtNvXsd_NtNtCslJiobkLta79_5alloc3vec9into_iterINtBP_8IntoIterppENtNtNtB4_3ops4drop4Drop4drop9DropGuardNtNtCsdGrGZaRBwMb_3syn4item9TraitItemNtNtBT_5alloc6GlobalEECs9jpTMRK2ijq_11yoke_derive, symObjAddr: 0x1320, symBinAddr: 0x73010, symSize: 0x20 }
  - { offset: 0x12569F, size: 0x8, addend: 0x0, symName: __RINvNtCsieiGu2EXtoJ_4core3ptr13drop_in_placeINtNvXsd_NtNtCslJiobkLta79_5alloc3vec9into_iterINtBP_8IntoIterppENtNtNtB4_3ops4drop4Drop4drop9DropGuardNtNtCsdGrGZaRBwMb_3syn4stmt4StmtNtNtBT_5alloc6GlobalEECs9jpTMRK2ijq_11yoke_derive, symObjAddr: 0x1340, symBinAddr: 0x73030, symSize: 0x20 }
  - { offset: 0x1256CE, size: 0x8, addend: 0x0, symName: __RINvNtCsieiGu2EXtoJ_4core3ptr13drop_in_placeNCINvMsi_NtCslJiobkLta79_5alloc3vecINtBP_3VecNtCsaKzlTDPUHDb_11proc_macro25IdentE14extend_trustedINtNtNtNtB4_4iter8adapters3map3MapINtNtNtB4_5slice4iter4IterNtNtCsdGrGZaRBwMb_3syn8generics9TypeParamENCNvCs9jpTMRK2ijq_11yoke_derive20yokeable_derive_impls_0EE0EB3X_, symObjAddr: 0x1360, symBinAddr: 0x73050, symSize: 0x20 }
  - { offset: 0x1256FD, size: 0x8, addend: 0x0, symName: __RINvNtCsieiGu2EXtoJ_4core3ptr13drop_in_placeNCINvMsi_NtCslJiobkLta79_5alloc3vecINtBP_3VecNtNtCsdGrGZaRBwMb_3syn8generics14WherePredicateE14extend_trustedINtNtNtNtB4_4iter8adapters3map3MapINtNtNtB4_5slice4iter4IterNtCsaKzlTDPUHDb_11proc_macro25IdentENCNvCs9jpTMRK2ijq_11yoke_derive20yokeable_derive_impls0_0EE0EB43_, symObjAddr: 0x1380, symBinAddr: 0x73070, symSize: 0x20 }
  - { offset: 0x12572C, size: 0x8, addend: 0x0, symName: __RINvNtCsieiGu2EXtoJ_4core3ptr13drop_in_placeNCINvMsi_NtCslJiobkLta79_5alloc3vecINtBP_3VecNtNtCsdGrGZaRBwMb_3syn8generics14WherePredicateE14extend_trustedINtNtNtNtB4_4iter8adapters3map3MapINtNtNtB4_5slice4iter4IterNtCsaKzlTDPUHDb_11proc_macro25IdentENCNvCs9jpTMRK2ijq_11yoke_derive20yokeable_derive_impls2_0EE0EB43_, symObjAddr: 0x13A0, symBinAddr: 0x73090, symSize: 0x20 }
  - { offset: 0x12575B, size: 0x8, addend: 0x0, symName: __RINvNtCsieiGu2EXtoJ_4core3ptr13drop_in_placeNCINvNtNtNtB4_4iter8adapters3map8map_foldRNtCsaKzlTDPUHDb_11proc_macro25IdentNtNtCsdGrGZaRBwMb_3syn8generics14WherePredicateuNCNvCs9jpTMRK2ijq_11yoke_derive20yokeable_derive_impls0_0NCINvNvNtNtNtBP_6traits8iterator8Iterator8for_each4callB1V_NCINvMsi_NtCslJiobkLta79_5alloc3vecINtB4I_3VecB1V_E14extend_trustedINtBL_3MapINtNtNtB4_5slice4iter4IterB1m_EB2H_EE0E0E0EB2L_, symObjAddr: 0x13C0, symBinAddr: 0x730B0, symSize: 0x20 }
  - { offset: 0x12578A, size: 0x8, addend: 0x0, symName: __RINvNtCsieiGu2EXtoJ_4core3ptr13drop_in_placeNCINvNtNtNtB4_4iter8adapters3map8map_foldRNtCsaKzlTDPUHDb_11proc_macro25IdentNtNtCsdGrGZaRBwMb_3syn8generics14WherePredicateuNCNvCs9jpTMRK2ijq_11yoke_derive20yokeable_derive_impls2_0NCINvNvNtNtNtBP_6traits8iterator8Iterator8for_each4callB1V_NCINvMsi_NtCslJiobkLta79_5alloc3vecINtB4I_3VecB1V_E14extend_trustedINtBL_3MapINtNtNtB4_5slice4iter4IterB1m_EB2H_EE0E0E0EB2L_, symObjAddr: 0x13E0, symBinAddr: 0x730D0, symSize: 0x20 }
  - { offset: 0x1257B9, size: 0x8, addend: 0x0, symName: __RINvNtCsieiGu2EXtoJ_4core3ptr13drop_in_placeNCINvNtNtNtB4_4iter8adapters3map8map_foldRNtNtCsdGrGZaRBwMb_3syn8generics9TypeParamNtCsaKzlTDPUHDb_11proc_macro25IdentuNCNvCs9jpTMRK2ijq_11yoke_derive20yokeable_derive_impls_0NCINvNvNtNtNtBP_6traits8iterator8Iterator8for_each4callB21_NCINvMsi_NtCslJiobkLta79_5alloc3vecINtB4B_3VecB21_E14extend_trustedINtBL_3MapINtNtNtB4_5slice4iter4IterB1m_EB2B_EE0E0E0EB2F_, symObjAddr: 0x1400, symBinAddr: 0x730F0, symSize: 0x20 }
  - { offset: 0x1257E8, size: 0x8, addend: 0x0, symName: __RINvNtCsieiGu2EXtoJ_4core3ptr13drop_in_placeNCINvNvNtNtNtNtB4_4iter6traits8iterator8Iterator8for_each4callNtCsaKzlTDPUHDb_11proc_macro25IdentNCINvMsi_NtCslJiobkLta79_5alloc3vecINtB2o_3VecB1G_E14extend_trustedINtNtNtBT_8adapters3map3MapINtNtNtB4_5slice4iter4IterNtNtCsdGrGZaRBwMb_3syn8generics9TypeParamENCNvCs9jpTMRK2ijq_11yoke_derive20yokeable_derive_impls_0EE0E0EB4V_, symObjAddr: 0x1420, symBinAddr: 0x73110, symSize: 0x20 }
  - { offset: 0x125817, size: 0x8, addend: 0x0, symName: __RINvNtCsieiGu2EXtoJ_4core3ptr13drop_in_placeNCINvNvNtNtNtNtB4_4iter6traits8iterator8Iterator8for_each4callNtNtCsdGrGZaRBwMb_3syn8generics14WherePredicateNCINvMsi_NtCslJiobkLta79_5alloc3vecINtB2A_3VecB1G_E14extend_trustedINtNtNtBT_8adapters3map3MapINtNtNtB4_5slice4iter4IterNtCsaKzlTDPUHDb_11proc_macro25IdentENCNvCs9jpTMRK2ijq_11yoke_derive20yokeable_derive_impls0_0EE0E0EB51_, symObjAddr: 0x1440, symBinAddr: 0x73130, symSize: 0x20 }
  - { offset: 0x125846, size: 0x8, addend: 0x0, symName: __RINvNtCsieiGu2EXtoJ_4core3ptr13drop_in_placeNCINvNvNtNtNtNtB4_4iter6traits8iterator8Iterator8for_each4callNtNtCsdGrGZaRBwMb_3syn8generics14WherePredicateNCINvMsi_NtCslJiobkLta79_5alloc3vecINtB2A_3VecB1G_E14extend_trustedINtNtNtBT_8adapters3map3MapINtNtNtB4_5slice4iter4IterNtCsaKzlTDPUHDb_11proc_macro25IdentENCNvCs9jpTMRK2ijq_11yoke_derive20yokeable_derive_impls2_0EE0E0EB51_, symObjAddr: 0x1460, symBinAddr: 0x73150, symSize: 0x20 }
  - { offset: 0x125875, size: 0x8, addend: 0x0, symName: __RINvNtCsieiGu2EXtoJ_4core3ptr13drop_in_placeNCNCINvNtNtCscKtU6MdFI5n_10proc_macro6bridge6client10run_clientNtBN_11TokenStreamINtNtB4_6option6OptionB1H_ENCNCINvMs6_BN_INtBN_6ClientNtBR_11TokenStreamB2R_E7expand1NvCs9jpTMRK2ijq_11yoke_derive15yokeable_deriveE00E00EB3o_, symObjAddr: 0x1480, symBinAddr: 0x73170, symSize: 0x20 }
  - { offset: 0x1258A4, size: 0x8, addend: 0x0, symName: __RINvNtCsieiGu2EXtoJ_4core3ptr13drop_in_placeNtCs4L8YLU89NU9_12synstructure9StructureECs9jpTMRK2ijq_11yoke_derive, symObjAddr: 0x14A0, symBinAddr: 0x73190, symSize: 0x90 }
  - { offset: 0x1258D3, size: 0x8, addend: 0x0, symName: __RINvNtCsieiGu2EXtoJ_4core3ptr13drop_in_placeNtNtCsdGrGZaRBwMb_3syn6derive11DeriveInputECs9jpTMRK2ijq_11yoke_derive, symObjAddr: 0x1530, symBinAddr: 0x73220, symSize: 0xF0 }
  - { offset: 0x125902, size: 0x8, addend: 0x0, symName: __RINvNtCsieiGu2EXtoJ_4core3ptr13drop_in_placeNtNtCsdGrGZaRBwMb_3syn8generics10TypeParamsECs9jpTMRK2ijq_11yoke_derive, symObjAddr: 0x1620, symBinAddr: 0x73310, symSize: 0x20 }
  - { offset: 0x125931, size: 0x8, addend: 0x0, symName: __RINvNtCsieiGu2EXtoJ_4core3ptr13drop_in_placeNtNtCsdGrGZaRBwMb_3syn8generics9LifetimesECs9jpTMRK2ijq_11yoke_derive, symObjAddr: 0x1640, symBinAddr: 0x73330, symSize: 0x20 }
  - { offset: 0x125960, size: 0x8, addend: 0x0, symName: __RINvNtCsieiGu2EXtoJ_4core3ptr13drop_in_placeNtNtNtCsHUR1vrdMJt_3std2io5error5ErrorECs9jpTMRK2ijq_11yoke_derive, symObjAddr: 0x1660, symBinAddr: 0x73350, symSize: 0x20 }
  - { offset: 0x12598F, size: 0x8, addend: 0x0, symName: __RINvNtCsieiGu2EXtoJ_4core3ptr13drop_in_placeNtNtNtCsHUR1vrdMJt_3std2io5error6CustomECs9jpTMRK2ijq_11yoke_derive, symObjAddr: 0x1680, symBinAddr: 0x73370, symSize: 0x20 }
  - { offset: 0x1259BE, size: 0x8, addend: 0x0, symName: __RINvNtCsieiGu2EXtoJ_4core3ptr13drop_in_placeNtNtNtCscKtU6MdFI5n_10proc_macro6bridge3rpc12PanicMessageECs9jpTMRK2ijq_11yoke_derive, symObjAddr: 0x16A0, symBinAddr: 0x73390, symSize: 0x50 }
  - { offset: 0x1259ED, size: 0x8, addend: 0x0, symName: __RINvNtCsieiGu2EXtoJ_4core3ptr13drop_in_placeNtNtNtCscKtU6MdFI5n_10proc_macro6bridge6buffer6BufferECs9jpTMRK2ijq_11yoke_derive, symObjAddr: 0x16F0, symBinAddr: 0x733E0, symSize: 0x20 }
  - { offset: 0x125A1C, size: 0x8, addend: 0x0, symName: __RINvNtCsieiGu2EXtoJ_4core3ptr13drop_in_placeNtNtNtCscKtU6MdFI5n_10proc_macro6bridge6client6BridgeECs9jpTMRK2ijq_11yoke_derive, symObjAddr: 0x1710, symBinAddr: 0x73400, symSize: 0x20 }
  - { offset: 0x125A4B, size: 0x8, addend: 0x0, symName: __RINvNtCsieiGu2EXtoJ_4core3ptr13drop_in_placeNtNtNtNtCsHUR1vrdMJt_3std2io5error14repr_bitpacked4ReprECs9jpTMRK2ijq_11yoke_derive, symObjAddr: 0x1730, symBinAddr: 0x73420, symSize: 0x20 }
  - { offset: 0x125A7A, size: 0x8, addend: 0x0, symName: __RINvNtCsieiGu2EXtoJ_4core3ptr13drop_in_placeNtNvCs9jpTMRK2ijq_11yoke_derive16replace_lifetime15ReplaceLifetimeEBK_, symObjAddr: 0x1750, symBinAddr: 0x73440, symSize: 0x20 }
  - { offset: 0x125AA9, size: 0x8, addend: 0x0, symName: __RINvNtCsieiGu2EXtoJ_4core3ptr13drop_in_placeNtNvNtNtNtCscKtU6MdFI5n_10proc_macro6bridge6client5state3set13RestoreOnDropECs9jpTMRK2ijq_11yoke_derive, symObjAddr: 0x1770, symBinAddr: 0x73460, symSize: 0x20 }
  - { offset: 0x125AD8, size: 0x8, addend: 0x0, symName: __RINvNtCsieiGu2EXtoJ_4core3ptr13drop_in_placeSNtCsaKzlTDPUHDb_11proc_macro25IdentECs9jpTMRK2ijq_11yoke_derive, symObjAddr: 0x1790, symBinAddr: 0x73480, symSize: 0xA0 }
  - { offset: 0x125B07, size: 0x8, addend: 0x0, symName: __RINvNtCsieiGu2EXtoJ_4core3ptr13drop_in_placeSNtNtCsdGrGZaRBwMb_3syn8generics14WherePredicateECs9jpTMRK2ijq_11yoke_derive, symObjAddr: 0x1830, symBinAddr: 0x73520, symSize: 0xA0 }
  - { offset: 0x125B36, size: 0x8, addend: 0x0, symName: __RINvNtCsieiGu2EXtoJ_4core3ptr13drop_in_placeSNtNtCsdGrGZaRBwMb_3syn8generics9TypeParamECs9jpTMRK2ijq_11yoke_derive, symObjAddr: 0x18D0, symBinAddr: 0x735C0, symSize: 0xA0 }
  - { offset: 0x125B65, size: 0x8, addend: 0x0, symName: __RINvNtCsieiGu2EXtoJ_4core3ptr13drop_in_placeTNtCsaKzlTDPUHDb_11proc_macro25IdentuEECs9jpTMRK2ijq_11yoke_derive, symObjAddr: 0x1970, symBinAddr: 0x73660, symSize: 0x20 }
  - { offset: 0x1260A2, size: 0x8, addend: 0x0, symName: __RNvMNtCsieiGu2EXtoJ_4core5sliceSNtNtCsdGrGZaRBwMb_3syn8generics9TypeParam4iterCs9jpTMRK2ijq_11yoke_derive, symObjAddr: 0x1DA0, symBinAddr: 0x73A90, symSize: 0x20 }
  - { offset: 0x126100, size: 0x8, addend: 0x0, symName: __RNvMNtCsieiGu2EXtoJ_4core5sliceSTNtNtCsdGrGZaRBwMb_3syn3pat3PatNtNtBz_5token2OrE11rotate_leftCs9jpTMRK2ijq_11yoke_derive, symObjAddr: 0x1DC0, symBinAddr: 0x73AB0, symSize: 0x70 }
  - { offset: 0x1261E9, size: 0x8, addend: 0x0, symName: __RNvMNtCsieiGu2EXtoJ_4core5sliceSTNtNtCsdGrGZaRBwMb_3syn3pat3PatNtNtBz_5token2OrE12rotate_rightCs9jpTMRK2ijq_11yoke_derive, symObjAddr: 0x1E30, symBinAddr: 0x73B20, symSize: 0x70 }
  - { offset: 0x1262D2, size: 0x8, addend: 0x0, symName: __RNvMNtCsieiGu2EXtoJ_4core5sliceSTNtNtCsdGrGZaRBwMb_3syn3pat3PatNtNtBz_5token5CommaE11rotate_leftCs9jpTMRK2ijq_11yoke_derive, symObjAddr: 0x1EA0, symBinAddr: 0x73B90, symSize: 0x70 }
  - { offset: 0x1263BB, size: 0x8, addend: 0x0, symName: __RNvMNtCsieiGu2EXtoJ_4core5sliceSTNtNtCsdGrGZaRBwMb_3syn3pat3PatNtNtBz_5token5CommaE12rotate_rightCs9jpTMRK2ijq_11yoke_derive, symObjAddr: 0x1F10, symBinAddr: 0x73C00, symSize: 0x70 }
  - { offset: 0x1264A4, size: 0x8, addend: 0x0, symName: __RNvMNtCsieiGu2EXtoJ_4core5sliceSTNtNtCsdGrGZaRBwMb_3syn3pat8FieldPatNtNtBz_5token5CommaE11rotate_leftCs9jpTMRK2ijq_11yoke_derive, symObjAddr: 0x1F80, symBinAddr: 0x73C70, symSize: 0x70 }
  - { offset: 0x12658D, size: 0x8, addend: 0x0, symName: __RNvMNtCsieiGu2EXtoJ_4core5sliceSTNtNtCsdGrGZaRBwMb_3syn3pat8FieldPatNtNtBz_5token5CommaE12rotate_rightCs9jpTMRK2ijq_11yoke_derive, symObjAddr: 0x1FF0, symBinAddr: 0x73CE0, symSize: 0x70 }
  - { offset: 0x126676, size: 0x8, addend: 0x0, symName: __RNvMNtCsieiGu2EXtoJ_4core5sliceSTNtNtCsdGrGZaRBwMb_3syn4data5FieldNtNtBz_5token5CommaE11rotate_leftCs9jpTMRK2ijq_11yoke_derive, symObjAddr: 0x2060, symBinAddr: 0x73D50, symSize: 0x70 }
  - { offset: 0x12675F, size: 0x8, addend: 0x0, symName: __RNvMNtCsieiGu2EXtoJ_4core5sliceSTNtNtCsdGrGZaRBwMb_3syn4data5FieldNtNtBz_5token5CommaE12rotate_rightCs9jpTMRK2ijq_11yoke_derive, symObjAddr: 0x20D0, symBinAddr: 0x73DC0, symSize: 0x70 }
  - { offset: 0x126848, size: 0x8, addend: 0x0, symName: __RNvMNtCsieiGu2EXtoJ_4core5sliceSTNtNtCsdGrGZaRBwMb_3syn4data7VariantNtNtBz_5token5CommaE11rotate_leftCs9jpTMRK2ijq_11yoke_derive, symObjAddr: 0x2140, symBinAddr: 0x73E30, symSize: 0x70 }
  - { offset: 0x126931, size: 0x8, addend: 0x0, symName: __RNvMNtCsieiGu2EXtoJ_4core5sliceSTNtNtCsdGrGZaRBwMb_3syn4data7VariantNtNtBz_5token5CommaE12rotate_rightCs9jpTMRK2ijq_11yoke_derive, symObjAddr: 0x21B0, symBinAddr: 0x73EA0, symSize: 0x70 }
  - { offset: 0x126A1A, size: 0x8, addend: 0x0, symName: __RNvMNtCsieiGu2EXtoJ_4core5sliceSTNtNtCsdGrGZaRBwMb_3syn8generics12GenericParamNtNtBz_5token5CommaE11rotate_leftCs9jpTMRK2ijq_11yoke_derive, symObjAddr: 0x2220, symBinAddr: 0x73F10, symSize: 0x70 }
  - { offset: 0x126B03, size: 0x8, addend: 0x0, symName: __RNvMNtCsieiGu2EXtoJ_4core5sliceSTNtNtCsdGrGZaRBwMb_3syn8generics12GenericParamNtNtBz_5token5CommaE12rotate_rightCs9jpTMRK2ijq_11yoke_derive, symObjAddr: 0x2290, symBinAddr: 0x73F80, symSize: 0x70 }
  - { offset: 0x126BEC, size: 0x8, addend: 0x0, symName: __RNvMNtCsieiGu2EXtoJ_4core5sliceSTNtNtCsdGrGZaRBwMb_3syn8generics13CapturedParamNtNtBz_5token5CommaE11rotate_leftCs9jpTMRK2ijq_11yoke_derive, symObjAddr: 0x2300, symBinAddr: 0x73FF0, symSize: 0x70 }
  - { offset: 0x126CD5, size: 0x8, addend: 0x0, symName: __RNvMNtCsieiGu2EXtoJ_4core5sliceSTNtNtCsdGrGZaRBwMb_3syn8generics13CapturedParamNtNtBz_5token5CommaE12rotate_rightCs9jpTMRK2ijq_11yoke_derive, symObjAddr: 0x2370, symBinAddr: 0x74060, symSize: 0x70 }
  - { offset: 0x126DBE, size: 0x8, addend: 0x0, symName: __RNvMNtCsieiGu2EXtoJ_4core5sliceSTNtNtCsdGrGZaRBwMb_3syn8generics14TypeParamBoundNtNtBz_5token4PlusE11rotate_leftCs9jpTMRK2ijq_11yoke_derive, symObjAddr: 0x23E0, symBinAddr: 0x740D0, symSize: 0x70 }
  - { offset: 0x126EA7, size: 0x8, addend: 0x0, symName: __RNvMNtCsieiGu2EXtoJ_4core5sliceSTNtNtCsdGrGZaRBwMb_3syn8generics14TypeParamBoundNtNtBz_5token4PlusE12rotate_rightCs9jpTMRK2ijq_11yoke_derive, symObjAddr: 0x2450, symBinAddr: 0x74140, symSize: 0x70 }
  - { offset: 0x126F90, size: 0x8, addend: 0x0, symName: __RNvMNtCsieiGu2EXtoJ_4core5sliceSTNtNtCsdGrGZaRBwMb_3syn8generics14WherePredicateNtNtBz_5token5CommaE11rotate_leftCs9jpTMRK2ijq_11yoke_derive, symObjAddr: 0x24C0, symBinAddr: 0x741B0, symSize: 0x70 }
  - { offset: 0x127079, size: 0x8, addend: 0x0, symName: __RNvMNtCsieiGu2EXtoJ_4core5sliceSTNtNtCsdGrGZaRBwMb_3syn8generics14WherePredicateNtNtBz_5token5CommaE12rotate_rightCs9jpTMRK2ijq_11yoke_derive, symObjAddr: 0x2530, symBinAddr: 0x74220, symSize: 0x70 }
  - { offset: 0x1298AA, size: 0x8, addend: 0x0, symName: __RNvNvMs9_NtCsieiGu2EXtoJ_4core3numj13unchecked_add18precondition_checkCs9jpTMRK2ijq_11yoke_derive, symObjAddr: 0x29C0, symBinAddr: 0x746B0, symSize: 0xA0 }
  - { offset: 0x129968, size: 0x8, addend: 0x0, symName: __RNvNvMs9_NtCsieiGu2EXtoJ_4core3numj13unchecked_mul18precondition_checkCs9jpTMRK2ijq_11yoke_derive, symObjAddr: 0x2A60, symBinAddr: 0x74750, symSize: 0xA0 }
  - { offset: 0x129BF0, size: 0x8, addend: 0x0, symName: __RINvNtCsieiGu2EXtoJ_4core9panicking13panic_displayNtNtCsdGrGZaRBwMb_3syn5error5ErrorECs9jpTMRK2ijq_11yoke_derive, symObjAddr: 0x1990, symBinAddr: 0x73680, symSize: 0xA0 }
  - { offset: 0x129CC6, size: 0x8, addend: 0x0, symName: __RNvXsn_NtNtCsieiGu2EXtoJ_4core5panic11unwind_safeINtB5_16AssertUnwindSafeNCINvNtNtCscKtU6MdFI5n_10proc_macro6bridge6client10run_clientNtB1e_11TokenStreamINtNtB9_6option6OptionB28_ENCNCINvMs6_B1e_INtB1e_6ClientNtB1i_11TokenStreamB3l_E7expand1NvCs9jpTMRK2ijq_11yoke_derive15yokeable_deriveE00E0EINtNtNtB9_3ops8function6FnOnceuE9call_onceB3T_, symObjAddr: 0x2DD0, symBinAddr: 0x74AC0, symSize: 0x30 }
  - { offset: 0x129D53, size: 0x8, addend: 0x0, symName: __RINvYNtNtCsdGrGZaRBwMb_3syn8generics10TypeParamsNtNtNtNtCsieiGu2EXtoJ_4core4iter6traits8iterator8Iterator3mapNtB5_9TypeParamNCNvCs9jpTMRK2ijq_11yoke_derive20yokeable_derive_impl0EB22_, symObjAddr: 0x1AD0, symBinAddr: 0x737C0, symSize: 0x20 }
  - { offset: 0x129DAB, size: 0x8, addend: 0x0, symName: __RINvYNtNtCsdGrGZaRBwMb_3syn8generics9LifetimesNtNtNtNtCsieiGu2EXtoJ_4core4iter6traits8iterator8Iterator4foldjNCNvYB3_BI_5count0ECs9jpTMRK2ijq_11yoke_derive, symObjAddr: 0x1AF0, symBinAddr: 0x737E0, symSize: 0xD0 }
  - { offset: 0x129E3F, size: 0x8, addend: 0x0, symName: __RNvYNtNtCsdGrGZaRBwMb_3syn8generics10TypeParamsNtNtNtNtCsieiGu2EXtoJ_4core4iter6traits8iterator8Iterator9size_hintCs9jpTMRK2ijq_11yoke_derive, symObjAddr: 0x5140, symBinAddr: 0x76E30, symSize: 0x30 }
  - { offset: 0x129E74, size: 0x8, addend: 0x0, symName: __RNvYNtNtCsdGrGZaRBwMb_3syn8generics9LifetimesNtNtNtNtCsieiGu2EXtoJ_4core4iter6traits8iterator8Iterator5countCs9jpTMRK2ijq_11yoke_derive, symObjAddr: 0x5170, symBinAddr: 0x76E60, symSize: 0x20 }
  - { offset: 0x12A112, size: 0x8, addend: 0x0, symName: __RNSNvYNCINvMs6_NtCsjK30CmJ87bX_9hashbrown3rawINtBd_8RawTableTNtCsaKzlTDPUHDb_11proc_macro25IdentuEE14reserve_rehashNCINvNtBf_3map11make_hasherBX_uNtNtNtCsHUR1vrdMJt_3std4hash6random11RandomStateE0E0INtNtNtCsieiGu2EXtoJ_4core3ops8function6FnOnceTQNtBd_13RawTableInnerjEE9call_once6vtableCs9jpTMRK2ijq_11yoke_derive, symObjAddr: 0x1D10, symBinAddr: 0x73A00, symSize: 0x30 }
  - { offset: 0x12A156, size: 0x8, addend: 0x0, symName: __RNSNvYNCINvMs6_NtCsjK30CmJ87bX_9hashbrown3rawINtBd_8RawTableTNtCsaKzlTDPUHDb_11proc_macro25IdentuEE24find_or_find_insert_slotNCINvNtBf_3map14equivalent_keyBX_BX_uE0NCINvB24_11make_hasherBX_uNtNtNtCsHUR1vrdMJt_3std4hash6random11RandomStateE0E0INtNtNtCsieiGu2EXtoJ_4core3ops8function6FnOnceTjEE9call_once6vtableCs9jpTMRK2ijq_11yoke_derive, symObjAddr: 0x1D40, symBinAddr: 0x73A30, symSize: 0x30 }
  - { offset: 0x12A19A, size: 0x8, addend: 0x0, symName: __RNSNvYNCINvMs6_NtCsjK30CmJ87bX_9hashbrown3rawINtBd_8RawTableTNtCsaKzlTDPUHDb_11proc_macro25IdentuEE4findNCINvNtBf_3map14equivalent_keyBX_BX_uE0E0INtNtNtCsieiGu2EXtoJ_4core3ops8function6FnOnceTjEE9call_once6vtableCs9jpTMRK2ijq_11yoke_derive, symObjAddr: 0x1D70, symBinAddr: 0x73A60, symSize: 0x30 }
  - { offset: 0x12A1DE, size: 0x8, addend: 0x0, symName: __RNvYNCINvMs6_NtCsjK30CmJ87bX_9hashbrown3rawINtBb_8RawTableTNtCsaKzlTDPUHDb_11proc_macro25IdentuEE14reserve_rehashNCINvNtBd_3map11make_hasherBV_uNtNtNtCsHUR1vrdMJt_3std4hash6random11RandomStateE0E0INtNtNtCsieiGu2EXtoJ_4core3ops8function6FnOnceTQNtBb_13RawTableInnerjEE9call_onceCs9jpTMRK2ijq_11yoke_derive, symObjAddr: 0x2E20, symBinAddr: 0x74B10, symSize: 0x50 }
  - { offset: 0x12A222, size: 0x8, addend: 0x0, symName: __RNvYNCINvMs6_NtCsjK30CmJ87bX_9hashbrown3rawINtBb_8RawTableTNtCsaKzlTDPUHDb_11proc_macro25IdentuEE14reserve_rehashNCINvNtBd_3map11make_hasherBV_uNtNtNtCsHUR1vrdMJt_3std4hash6random11RandomStateE0Es_0INtNtNtCsieiGu2EXtoJ_4core3ops8function6FnOnceTOhEE9call_onceCs9jpTMRK2ijq_11yoke_derive, symObjAddr: 0x2E70, symBinAddr: 0x74B60, symSize: 0x40 }
  - { offset: 0x12A262, size: 0x8, addend: 0x0, symName: __RNvYNCINvMs6_NtCsjK30CmJ87bX_9hashbrown3rawINtBb_8RawTableTNtCsaKzlTDPUHDb_11proc_macro25IdentuEE24find_or_find_insert_slotNCINvNtBd_3map14equivalent_keyBV_BV_uE0NCINvB22_11make_hasherBV_uNtNtNtCsHUR1vrdMJt_3std4hash6random11RandomStateE0E0INtNtNtCsieiGu2EXtoJ_4core3ops8function6FnOnceTjEE9call_onceCs9jpTMRK2ijq_11yoke_derive, symObjAddr: 0x2EB0, symBinAddr: 0x74BA0, symSize: 0x50 }
  - { offset: 0x12A2A6, size: 0x8, addend: 0x0, symName: __RNvYNCINvMs6_NtCsjK30CmJ87bX_9hashbrown3rawINtBb_8RawTableTNtCsaKzlTDPUHDb_11proc_macro25IdentuEE4findNCINvNtBd_3map14equivalent_keyBV_BV_uE0E0INtNtNtCsieiGu2EXtoJ_4core3ops8function6FnOnceTjEE9call_onceCs9jpTMRK2ijq_11yoke_derive, symObjAddr: 0x2F00, symBinAddr: 0x74BF0, symSize: 0x50 }
  - { offset: 0x12A2EA, size: 0x8, addend: 0x0, symName: __RNvYNCNkNvNtNtNtCscKtU6MdFI5n_10proc_macro6bridge6client5state12BRIDGE_STATE0s_0INtNtNtCsieiGu2EXtoJ_4core3ops8function6FnOnceTINtNtB1n_6option6OptionQIB22_INtNtB1n_4cell4CellPuEEEEE9call_onceCs9jpTMRK2ijq_11yoke_derive, symObjAddr: 0x2F50, symBinAddr: 0x74C40, symSize: 0x40 }
  - { offset: 0x12A32E, size: 0x8, addend: 0x0, symName: __RNvYNCNkNvNvMNtNtCsHUR1vrdMJt_3std4hash6randomNtBb_11RandomState3new4KEYS0s_0INtNtNtCsieiGu2EXtoJ_4core3ops8function6FnOnceTINtNtB1k_6option6OptionQIB1Z_INtNtB1k_4cell4CellTyyEEEEEE9call_onceCs9jpTMRK2ijq_11yoke_derive, symObjAddr: 0x2F90, symBinAddr: 0x74C80, symSize: 0x40 }
  - { offset: 0x12A372, size: 0x8, addend: 0x0, symName: __RNvYNvYNtCsaKzlTDPUHDb_11proc_macro25IdentNtNtCsdGrGZaRBwMb_3syn5parse5Parse5parseINtNtNtCsieiGu2EXtoJ_4core3ops8function6FnOnceTRNtBG_11ParseBufferEE9call_onceCs9jpTMRK2ijq_11yoke_derive, symObjAddr: 0x51B0, symBinAddr: 0x76EA0, symSize: 0x30 }
  - { offset: 0x12A3B6, size: 0x8, addend: 0x0, symName: __RNvYNvYNtNtCsdGrGZaRBwMb_3syn6derive11DeriveInputNtNtB9_5parse5Parse5parseINtNtNtCsieiGu2EXtoJ_4core3ops8function6FnOnceTRNtBN_11ParseBufferEE9call_onceCs9jpTMRK2ijq_11yoke_derive, symObjAddr: 0x5210, symBinAddr: 0x76F00, symSize: 0x30 }
  - { offset: 0x12A3FA, size: 0x8, addend: 0x0, symName: __RNvYNvYNtNtCsdGrGZaRBwMb_3syn8generics14WherePredicateNtNtB9_11parse_quote10ParseQuote5parseINtNtNtCsieiGu2EXtoJ_4core3ops8function6FnOnceTRNtNtB9_5parse11ParseBufferEE9call_onceCs9jpTMRK2ijq_11yoke_derive, symObjAddr: 0x5240, symBinAddr: 0x76F30, symSize: 0x30 }
  - { offset: 0x12A444, size: 0x8, addend: 0x0, symName: __RNvYNvCs9jpTMRK2ijq_11yoke_derive15yokeable_deriveINtNtNtCsieiGu2EXtoJ_4core3ops8function2FnTNtCscKtU6MdFI5n_10proc_macro11TokenStreamEE4callB4_, symObjAddr: 0x5190, symBinAddr: 0x76E80, symSize: 0x20 }
  - { offset: 0x12A48E, size: 0x8, addend: 0x0, symName: __RNvYNvYNtCsaKzlTDPUHDb_11proc_macro25IdentNtNtCsieiGu2EXtoJ_4core5clone5Clone5cloneINtNtNtBI_3ops8function5FnMutTRB5_EE8call_mutCs9jpTMRK2ijq_11yoke_derive, symObjAddr: 0x51E0, symBinAddr: 0x76ED0, symSize: 0x30 }
  - { offset: 0x12A4D2, size: 0x8, addend: 0x0, symName: __RNvYNvYNtNvCs9jpTMRK2ijq_11yoke_derive16replace_lifetime15ReplaceLifetimeNtNtNtCsdGrGZaRBwMb_3syn3gen4fold4Fold10fold_fieldINtNtNtCsieiGu2EXtoJ_4core3ops8function5FnMutTQB5_NtNtB1f_4data5FieldEE8call_mutB9_, symObjAddr: 0x5270, symBinAddr: 0x76F60, symSize: 0x90 }
  - { offset: 0x12A517, size: 0x8, addend: 0x0, symName: __RNvYNvYNtNvCs9jpTMRK2ijq_11yoke_derive16replace_lifetime15ReplaceLifetimeNtNtNtCsdGrGZaRBwMb_3syn3gen4fold4Fold11fold_fn_argINtNtNtCsieiGu2EXtoJ_4core3ops8function5FnMutTQB5_NtNtB1f_4item5FnArgEE8call_mutB9_, symObjAddr: 0x5300, symBinAddr: 0x76FF0, symSize: 0x70 }
  - { offset: 0x12A55C, size: 0x8, addend: 0x0, symName: __RNvYNvYNtNvCs9jpTMRK2ijq_11yoke_derive16replace_lifetime15ReplaceLifetimeNtNtNtCsdGrGZaRBwMb_3syn3gen4fold4Fold12fold_variantINtNtNtCsieiGu2EXtoJ_4core3ops8function5FnMutTQB5_NtNtB1f_4data7VariantEE8call_mutB9_, symObjAddr: 0x5370, symBinAddr: 0x77060, symSize: 0x90 }
  - { offset: 0x12A5A1, size: 0x8, addend: 0x0, symName: __RNvYNvYNtNvCs9jpTMRK2ijq_11yoke_derive16replace_lifetime15ReplaceLifetimeNtNtNtCsdGrGZaRBwMb_3syn3gen4fold4Fold13fold_lifetimeINtNtNtCsieiGu2EXtoJ_4core3ops8function5FnMutTQB5_NtNtB1f_8lifetime8LifetimeEE8call_mutB9_, symObjAddr: 0x5400, symBinAddr: 0x770F0, symSize: 0x60 }
  - { offset: 0x12A5E5, size: 0x8, addend: 0x0, symName: __RNvYNvYNtNvCs9jpTMRK2ijq_11yoke_derive16replace_lifetime15ReplaceLifetimeNtNtNtCsdGrGZaRBwMb_3syn3gen4fold4Fold13fold_use_treeINtNtNtCsieiGu2EXtoJ_4core3ops8function5FnMutTQB5_NtNtB1f_4item7UseTreeEE8call_mutB9_, symObjAddr: 0x5460, symBinAddr: 0x77150, symSize: 0x60 }
  - { offset: 0x12A62A, size: 0x8, addend: 0x0, symName: __RNvYNvYNtNvCs9jpTMRK2ijq_11yoke_derive16replace_lifetime15ReplaceLifetimeNtNtNtCsdGrGZaRBwMb_3syn3gen4fold4Fold14fold_attributeINtNtNtCsieiGu2EXtoJ_4core3ops8function5FnMutTQB5_NtNtB1f_4attr9AttributeEE8call_mutB9_, symObjAddr: 0x54C0, symBinAddr: 0x771B0, symSize: 0x90 }
  - { offset: 0x12A66F, size: 0x8, addend: 0x0, symName: __RNvYNvYNtNvCs9jpTMRK2ijq_11yoke_derive16replace_lifetime15ReplaceLifetimeNtNtNtCsdGrGZaRBwMb_3syn3gen4fold4Fold14fold_field_patINtNtNtCsieiGu2EXtoJ_4core3ops8function5FnMutTQB5_NtNtB1f_3pat8FieldPatEE8call_mutB9_, symObjAddr: 0x5550, symBinAddr: 0x77240, symSize: 0x60 }
  - { offset: 0x12A6B4, size: 0x8, addend: 0x0, symName: __RNvYNvYNtNvCs9jpTMRK2ijq_11yoke_derive16replace_lifetime15ReplaceLifetimeNtNtNtCsdGrGZaRBwMb_3syn3gen4fold4Fold14fold_impl_itemINtNtNtCsieiGu2EXtoJ_4core3ops8function5FnMutTQB5_NtNtB1f_4item8ImplItemEE8call_mutB9_, symObjAddr: 0x55B0, symBinAddr: 0x772A0, symSize: 0x90 }
  - { offset: 0x12A6F9, size: 0x8, addend: 0x0, symName: __RNvYNvYNtNvCs9jpTMRK2ijq_11yoke_derive16replace_lifetime15ReplaceLifetimeNtNtNtCsdGrGZaRBwMb_3syn3gen4fold4Fold15fold_trait_itemINtNtNtCsieiGu2EXtoJ_4core3ops8function5FnMutTQB5_NtNtB1f_4item9TraitItemEE8call_mutB9_, symObjAddr: 0x5640, symBinAddr: 0x77330, symSize: 0x90 }
  - { offset: 0x12A73E, size: 0x8, addend: 0x0, symName: __RNvYNvYNtNvCs9jpTMRK2ijq_11yoke_derive16replace_lifetime15ReplaceLifetimeNtNtNtCsdGrGZaRBwMb_3syn3gen4fold4Fold16fold_bare_fn_argINtNtNtCsieiGu2EXtoJ_4core3ops8function5FnMutTQB5_NtNtB1f_2ty9BareFnArgEE8call_mutB9_, symObjAddr: 0x56D0, symBinAddr: 0x773C0, symSize: 0x90 }
  - { offset: 0x12A783, size: 0x8, addend: 0x0, symName: __RNvYNvYNtNvCs9jpTMRK2ijq_11yoke_derive16replace_lifetime15ReplaceLifetimeNtNtNtCsdGrGZaRBwMb_3syn3gen4fold4Fold16fold_field_valueINtNtNtCsieiGu2EXtoJ_4core3ops8function5FnMutTQB5_NtNtB1f_4expr10FieldValueEE8call_mutB9_, symObjAddr: 0x5760, symBinAddr: 0x77450, symSize: 0x90 }
  - { offset: 0x12A7C8, size: 0x8, addend: 0x0, symName: __RNvYNvYNtNvCs9jpTMRK2ijq_11yoke_derive16replace_lifetime15ReplaceLifetimeNtNtNtCsdGrGZaRBwMb_3syn3gen4fold4Fold17fold_foreign_itemINtNtNtCsieiGu2EXtoJ_4core3ops8function5FnMutTQB5_NtNtB1f_4item11ForeignItemEE8call_mutB9_, symObjAddr: 0x57F0, symBinAddr: 0x774E0, symSize: 0x90 }
  - { offset: 0x12A80D, size: 0x8, addend: 0x0, symName: __RNvYNvYNtNvCs9jpTMRK2ijq_11yoke_derive16replace_lifetime15ReplaceLifetimeNtNtNtCsdGrGZaRBwMb_3syn3gen4fold4Fold17fold_path_segmentINtNtNtCsieiGu2EXtoJ_4core3ops8function5FnMutTQB5_NtNtB1f_4path11PathSegmentEE8call_mutB9_, symObjAddr: 0x5880, symBinAddr: 0x77570, symSize: 0x70 }
  - { offset: 0x12A852, size: 0x8, addend: 0x0, symName: __RNvYNvYNtNvCs9jpTMRK2ijq_11yoke_derive16replace_lifetime15ReplaceLifetimeNtNtNtCsdGrGZaRBwMb_3syn3gen4fold4Fold18fold_generic_paramINtNtNtCsieiGu2EXtoJ_4core3ops8function5FnMutTQB5_NtNtB1f_8generics12GenericParamEE8call_mutB9_, symObjAddr: 0x58F0, symBinAddr: 0x775E0, symSize: 0x90 }
  - { offset: 0x12A897, size: 0x8, addend: 0x0, symName: __RNvYNvYNtNvCs9jpTMRK2ijq_11yoke_derive16replace_lifetime15ReplaceLifetimeNtNtNtCsdGrGZaRBwMb_3syn3gen4fold4Fold19fold_captured_paramINtNtNtCsieiGu2EXtoJ_4core3ops8function5FnMutTQB5_NtNtB1f_8generics13CapturedParamEE8call_mutB9_, symObjAddr: 0x5980, symBinAddr: 0x77670, symSize: 0x60 }
  - { offset: 0x12A8DB, size: 0x8, addend: 0x0, symName: __RNvYNvYNtNvCs9jpTMRK2ijq_11yoke_derive16replace_lifetime15ReplaceLifetimeNtNtNtCsdGrGZaRBwMb_3syn3gen4fold4Fold20fold_where_predicateINtNtNtCsieiGu2EXtoJ_4core3ops8function5FnMutTQB5_NtNtB1f_8generics14WherePredicateEE8call_mutB9_, symObjAddr: 0x59E0, symBinAddr: 0x776D0, symSize: 0x90 }
  - { offset: 0x12A920, size: 0x8, addend: 0x0, symName: __RNvYNvYNtNvCs9jpTMRK2ijq_11yoke_derive16replace_lifetime15ReplaceLifetimeNtNtNtCsdGrGZaRBwMb_3syn3gen4fold4Fold21fold_generic_argumentINtNtNtCsieiGu2EXtoJ_4core3ops8function5FnMutTQB5_NtNtB1f_4path15GenericArgumentEE8call_mutB9_, symObjAddr: 0x5A70, symBinAddr: 0x77760, symSize: 0x90 }
  - { offset: 0x12A965, size: 0x8, addend: 0x0, symName: __RNvYNvYNtNvCs9jpTMRK2ijq_11yoke_derive16replace_lifetime15ReplaceLifetimeNtNtNtCsdGrGZaRBwMb_3syn3gen4fold4Fold21fold_type_param_boundINtNtNtCsieiGu2EXtoJ_4core3ops8function5FnMutTQB5_NtNtB1f_8generics14TypeParamBoundEE8call_mutB9_, symObjAddr: 0x5B00, symBinAddr: 0x777F0, symSize: 0x90 }
  - { offset: 0x12A9AA, size: 0x8, addend: 0x0, symName: __RNvYNvYNtNvCs9jpTMRK2ijq_11yoke_derive16replace_lifetime15ReplaceLifetimeNtNtNtCsdGrGZaRBwMb_3syn3gen4fold4Fold8fold_armINtNtNtCsieiGu2EXtoJ_4core3ops8function5FnMutTQB5_NtNtB1f_4expr3ArmEE8call_mutB9_, symObjAddr: 0x5B90, symBinAddr: 0x77880, symSize: 0x90 }
  - { offset: 0x12A9EF, size: 0x8, addend: 0x0, symName: __RNvYNvYNtNvCs9jpTMRK2ijq_11yoke_derive16replace_lifetime15ReplaceLifetimeNtNtNtCsdGrGZaRBwMb_3syn3gen4fold4Fold8fold_patINtNtNtCsieiGu2EXtoJ_4core3ops8function5FnMutTQB5_NtNtB1f_3pat3PatEE8call_mutB9_, symObjAddr: 0x5C20, symBinAddr: 0x77910, symSize: 0x90 }
  - { offset: 0x12AA34, size: 0x8, addend: 0x0, symName: __RNvYNvYNtNvCs9jpTMRK2ijq_11yoke_derive16replace_lifetime15ReplaceLifetimeNtNtNtCsdGrGZaRBwMb_3syn3gen4fold4Fold9fold_exprINtNtNtCsieiGu2EXtoJ_4core3ops8function5FnMutTQB5_NtNtB1f_4expr4ExprEE8call_mutB9_, symObjAddr: 0x5CB0, symBinAddr: 0x779A0, symSize: 0x90 }
  - { offset: 0x12AA79, size: 0x8, addend: 0x0, symName: __RNvYNvYNtNvCs9jpTMRK2ijq_11yoke_derive16replace_lifetime15ReplaceLifetimeNtNtNtCsdGrGZaRBwMb_3syn3gen4fold4Fold9fold_itemINtNtNtCsieiGu2EXtoJ_4core3ops8function5FnMutTQB5_NtNtB1f_4item4ItemEE8call_mutB9_, symObjAddr: 0x5D40, symBinAddr: 0x77A30, symSize: 0x90 }
  - { offset: 0x12AABE, size: 0x8, addend: 0x0, symName: __RNvYNvYNtNvCs9jpTMRK2ijq_11yoke_derive16replace_lifetime15ReplaceLifetimeNtNtNtCsdGrGZaRBwMb_3syn3gen4fold4Fold9fold_stmtINtNtNtCsieiGu2EXtoJ_4core3ops8function5FnMutTQB5_NtNtB1f_4stmt4StmtEE8call_mutB9_, symObjAddr: 0x5DD0, symBinAddr: 0x77AC0, symSize: 0x90 }
  - { offset: 0x12AB03, size: 0x8, addend: 0x0, symName: __RNvYNvYNtNvCs9jpTMRK2ijq_11yoke_derive16replace_lifetime15ReplaceLifetimeNtNtNtCsdGrGZaRBwMb_3syn3gen4fold4Fold9fold_typeINtNtNtCsieiGu2EXtoJ_4core3ops8function5FnMutTQB5_NtNtB1f_2ty4TypeEE8call_mutB9_, symObjAddr: 0x5E60, symBinAddr: 0x77B50, symSize: 0x90 }
  - { offset: 0x12ACE9, size: 0x8, addend: 0x0, symName: __RNvXs5_NtNtCscKtU6MdFI5n_10proc_macro6bridge6bufferNtB5_6BufferNtNtNtCsieiGu2EXtoJ_4core3ops4drop4Drop4dropCs9jpTMRK2ijq_11yoke_derive, symObjAddr: 0x2CE0, symBinAddr: 0x749D0, symSize: 0xA0 }
  - { offset: 0x12AEFC, size: 0x8, addend: 0x0, symName: __RINvNvNtNtCscKtU6MdFI5n_10proc_macro6bridge14selfless_reify31reify_to_extern_c_fn_hrt_bridge7wrapperNtNtB6_6buffer6BufferNCINvMs6_NtB6_6clientINtB24_6ClientNtB8_11TokenStreamB2u_E7expand1NvCs9jpTMRK2ijq_11yoke_derive15yokeable_deriveE0EB31_, symObjAddr: 0x1A30, symBinAddr: 0x73720, symSize: 0xA0 }
  - { offset: 0x12B21F, size: 0x8, addend: 0x0, symName: __RNvXs7_NtNtCscKtU6MdFI5n_10proc_macro6bridge3rpcINtNtNtCsieiGu2EXtoJ_4core3num7nonzero7NonZeromEINtB5_9DecodeMutuE6decodeCs9jpTMRK2ijq_11yoke_derive, symObjAddr: 0x2D80, symBinAddr: 0x74A70, symSize: 0x50 }
  - { offset: 0x12BF42, size: 0x8, addend: 0x0, symName: __RINvMs3_NtNtCscKtU6MdFI5n_10proc_macro6bridge6bufferNtB6_6Buffer17extend_from_arrayKj4_ECs9jpTMRK2ijq_11yoke_derive, symObjAddr: 0x0, symBinAddr: 0x71D30, symSize: 0x1E0 }
  - { offset: 0x12C0CA, size: 0x8, addend: 0x0, symName: __RINvMs3_NtNtCscKtU6MdFI5n_10proc_macro6bridge6bufferNtB6_6Buffer17extend_from_arrayKj8_ECs9jpTMRK2ijq_11yoke_derive, symObjAddr: 0x1E0, symBinAddr: 0x71F10, symSize: 0x1E0 }
  - { offset: 0x1310A9, size: 0x8, addend: 0x0, symName: __RNvXNtCsdGrGZaRBwMb_3syn11parse_quoteNtNtB4_8generics14WherePredicateNtB2_10ParseQuote5parseCs9jpTMRK2ijq_11yoke_derive, symObjAddr: 0x2C60, symBinAddr: 0x74950, symSize: 0x30 }
  - { offset: 0x1310EA, size: 0x8, addend: 0x0, symName: __RNvXNtCsdGrGZaRBwMb_3syn7spannedNtNtB4_8generics8GenericsNtB2_7Spanned4spanCs9jpTMRK2ijq_11yoke_derive, symObjAddr: 0x2C90, symBinAddr: 0x74980, symSize: 0x20 }
  - { offset: 0x131130, size: 0x8, addend: 0x0, symName: __RNvYNtNtCs9jpTMRK2ijq_11yoke_derive7visitor11TypeVisitorNtNtNtCsdGrGZaRBwMb_3syn3gen5visit5Visit10visit_exprB6_, symObjAddr: 0x2FD0, symBinAddr: 0x74CC0, symSize: 0x30 }
  - { offset: 0x13116F, size: 0x8, addend: 0x0, symName: __RNvYNtNtCs9jpTMRK2ijq_11yoke_derive7visitor11TypeVisitorNtNtNtCsdGrGZaRBwMb_3syn3gen5visit5Visit10visit_itemB6_, symObjAddr: 0x3000, symBinAddr: 0x74CF0, symSize: 0x30 }
  - { offset: 0x1311B1, size: 0x8, addend: 0x0, symName: __RNvYNtNtCs9jpTMRK2ijq_11yoke_derive7visitor11TypeVisitorNtNtNtCsdGrGZaRBwMb_3syn3gen5visit5Visit10visit_metaB6_, symObjAddr: 0x3030, symBinAddr: 0x74D20, symSize: 0x30 }
  - { offset: 0x1311F3, size: 0x8, addend: 0x0, symName: __RNvYNtNtCs9jpTMRK2ijq_11yoke_derive7visitor11TypeVisitorNtNtNtCsdGrGZaRBwMb_3syn3gen5visit5Visit10visit_pathB6_, symObjAddr: 0x3060, symBinAddr: 0x74D50, symSize: 0x30 }
  - { offset: 0x131235, size: 0x8, addend: 0x0, symName: __RNvYNtNtCs9jpTMRK2ijq_11yoke_derive7visitor11TypeVisitorNtNtNtCsdGrGZaRBwMb_3syn3gen5visit5Visit10visit_spanB6_, symObjAddr: 0x3090, symBinAddr: 0x74D80, symSize: 0x20 }
  - { offset: 0x131277, size: 0x8, addend: 0x0, symName: __RNvYNtNtCs9jpTMRK2ijq_11yoke_derive7visitor11TypeVisitorNtNtNtCsdGrGZaRBwMb_3syn3gen5visit5Visit10visit_stmtB6_, symObjAddr: 0x30B0, symBinAddr: 0x74DA0, symSize: 0x30 }
  - { offset: 0x1312B9, size: 0x8, addend: 0x0, symName: __RNvYNtNtCs9jpTMRK2ijq_11yoke_derive7visitor11TypeVisitorNtNtNtCsdGrGZaRBwMb_3syn3gen5visit5Visit10visit_typeB6_, symObjAddr: 0x30E0, symBinAddr: 0x74DD0, symSize: 0x30 }
  - { offset: 0x1312FB, size: 0x8, addend: 0x0, symName: __RNvYNtNtCs9jpTMRK2ijq_11yoke_derive7visitor11TypeVisitorNtNtNtCsdGrGZaRBwMb_3syn3gen5visit5Visit11visit_blockB6_, symObjAddr: 0x3110, symBinAddr: 0x74E00, symSize: 0x30 }
  - { offset: 0x13133A, size: 0x8, addend: 0x0, symName: __RNvYNtNtCs9jpTMRK2ijq_11yoke_derive7visitor11TypeVisitorNtNtNtCsdGrGZaRBwMb_3syn3gen5visit5Visit11visit_fieldB6_, symObjAddr: 0x3140, symBinAddr: 0x74E30, symSize: 0x30 }
  - { offset: 0x13137C, size: 0x8, addend: 0x0, symName: __RNvYNtNtCs9jpTMRK2ijq_11yoke_derive7visitor11TypeVisitorNtNtNtCsdGrGZaRBwMb_3syn3gen5visit5Visit11visit_identB6_, symObjAddr: 0x3170, symBinAddr: 0x74E60, symSize: 0x30 }
  - { offset: 0x1313BE, size: 0x8, addend: 0x0, symName: __RNvYNtNtCs9jpTMRK2ijq_11yoke_derive7visitor11TypeVisitorNtNtNtCsdGrGZaRBwMb_3syn3gen5visit5Visit11visit_indexB6_, symObjAddr: 0x31A0, symBinAddr: 0x74E90, symSize: 0x30 }
  - { offset: 0x131400, size: 0x8, addend: 0x0, symName: __RNvYNtNtCs9jpTMRK2ijq_11yoke_derive7visitor11TypeVisitorNtNtNtCsdGrGZaRBwMb_3syn3gen5visit5Visit11visit_labelB6_, symObjAddr: 0x31D0, symBinAddr: 0x74EC0, symSize: 0x30 }
  - { offset: 0x131442, size: 0x8, addend: 0x0, symName: __RNvYNtNtCs9jpTMRK2ijq_11yoke_derive7visitor11TypeVisitorNtNtNtCsdGrGZaRBwMb_3syn3gen5visit5Visit11visit_localB6_, symObjAddr: 0x3200, symBinAddr: 0x74EF0, symSize: 0x30 }
  - { offset: 0x131484, size: 0x8, addend: 0x0, symName: __RNvYNtNtCs9jpTMRK2ijq_11yoke_derive7visitor11TypeVisitorNtNtNtCsdGrGZaRBwMb_3syn3gen5visit5Visit11visit_macroB6_, symObjAddr: 0x3230, symBinAddr: 0x74F20, symSize: 0x30 }
  - { offset: 0x1314C6, size: 0x8, addend: 0x0, symName: __RNvYNtNtCs9jpTMRK2ijq_11yoke_derive7visitor11TypeVisitorNtNtNtCsdGrGZaRBwMb_3syn3gen5visit5Visit11visit_qselfB6_, symObjAddr: 0x3260, symBinAddr: 0x74F50, symSize: 0x30 }
  - { offset: 0x131508, size: 0x8, addend: 0x0, symName: __RNvYNtNtCs9jpTMRK2ijq_11yoke_derive7visitor11TypeVisitorNtNtNtCsdGrGZaRBwMb_3syn3gen5visit5Visit11visit_un_opB6_, symObjAddr: 0x3290, symBinAddr: 0x74F80, symSize: 0x30 }
  - { offset: 0x13154A, size: 0x8, addend: 0x0, symName: __RNvYNtNtCs9jpTMRK2ijq_11yoke_derive7visitor11TypeVisitorNtNtNtCsdGrGZaRBwMb_3syn3gen5visit5Visit12visit_bin_opB6_, symObjAddr: 0x32C0, symBinAddr: 0x74FB0, symSize: 0x30 }
  - { offset: 0x131589, size: 0x8, addend: 0x0, symName: __RNvYNtNtCs9jpTMRK2ijq_11yoke_derive7visitor11TypeVisitorNtNtNtCsdGrGZaRBwMb_3syn3gen5visit5Visit12visit_fieldsB6_, symObjAddr: 0x32F0, symBinAddr: 0x74FE0, symSize: 0x30 }
  - { offset: 0x1315CB, size: 0x8, addend: 0x0, symName: __RNvYNtNtCs9jpTMRK2ijq_11yoke_derive7visitor11TypeVisitorNtNtNtCsdGrGZaRBwMb_3syn3gen5visit5Visit12visit_fn_argB6_, symObjAddr: 0x3320, symBinAddr: 0x75010, symSize: 0x30 }
  - { offset: 0x13160D, size: 0x8, addend: 0x0, symName: __RNvYNtNtCs9jpTMRK2ijq_11yoke_derive7visitor11TypeVisitorNtNtNtCsdGrGZaRBwMb_3syn3gen5visit5Visit12visit_memberB6_, symObjAddr: 0x3350, symBinAddr: 0x75040, symSize: 0x30 }
  - { offset: 0x13164F, size: 0x8, addend: 0x0, symName: __RNvYNtNtCs9jpTMRK2ijq_11yoke_derive7visitor11TypeVisitorNtNtNtCsdGrGZaRBwMb_3syn3gen5visit5Visit12visit_pat_orB6_, symObjAddr: 0x3380, symBinAddr: 0x75070, symSize: 0x30 }
  - { offset: 0x131691, size: 0x8, addend: 0x0, symName: __RNvYNtNtCs9jpTMRK2ijq_11yoke_derive7visitor11TypeVisitorNtNtNtCsdGrGZaRBwMb_3syn3gen5visit5Visit13visit_expr_ifB6_, symObjAddr: 0x33B0, symBinAddr: 0x750A0, symSize: 0x30 }
  - { offset: 0x1316D0, size: 0x8, addend: 0x0, symName: __RNvYNtNtCs9jpTMRK2ijq_11yoke_derive7visitor11TypeVisitorNtNtNtCsdGrGZaRBwMb_3syn3gen5visit5Visit13visit_item_fnB6_, symObjAddr: 0x33E0, symBinAddr: 0x750D0, symSize: 0x30 }
  - { offset: 0x131712, size: 0x8, addend: 0x0, symName: __RNvYNtNtCs9jpTMRK2ijq_11yoke_derive7visitor11TypeVisitorNtNtNtCsdGrGZaRBwMb_3syn3gen5visit5Visit13visit_lit_intB6_, symObjAddr: 0x3410, symBinAddr: 0x75100, symSize: 0x30 }
  - { offset: 0x131754, size: 0x8, addend: 0x0, symName: __RNvYNtNtCs9jpTMRK2ijq_11yoke_derive7visitor11TypeVisitorNtNtNtCsdGrGZaRBwMb_3syn3gen5visit5Visit13visit_lit_strB6_, symObjAddr: 0x3440, symBinAddr: 0x75130, symSize: 0x30 }
  - { offset: 0x131796, size: 0x8, addend: 0x0, symName: __RNvYNtNtCs9jpTMRK2ijq_11yoke_derive7visitor11TypeVisitorNtNtNtCsdGrGZaRBwMb_3syn3gen5visit5Visit13visit_variantB6_, symObjAddr: 0x3470, symBinAddr: 0x75160, symSize: 0x30 }
  - { offset: 0x1317D8, size: 0x8, addend: 0x0, symName: __RNvYNtNtCs9jpTMRK2ijq_11yoke_derive7visitor11TypeVisitorNtNtNtCsdGrGZaRBwMb_3syn3gen5visit5Visit14visit_expr_letB6_, symObjAddr: 0x34A0, symBinAddr: 0x75190, symSize: 0x30 }
  - { offset: 0x131817, size: 0x8, addend: 0x0, symName: __RNvYNtNtCs9jpTMRK2ijq_11yoke_derive7visitor11TypeVisitorNtNtNtCsdGrGZaRBwMb_3syn3gen5visit5Visit14visit_expr_litB6_, symObjAddr: 0x34D0, symBinAddr: 0x751C0, symSize: 0x30 }
  - { offset: 0x131856, size: 0x8, addend: 0x0, symName: __RNvYNtNtCs9jpTMRK2ijq_11yoke_derive7visitor11TypeVisitorNtNtNtCsdGrGZaRBwMb_3syn3gen5visit5Visit14visit_expr_tryB6_, symObjAddr: 0x3500, symBinAddr: 0x751F0, symSize: 0x30 }
  - { offset: 0x131898, size: 0x8, addend: 0x0, symName: __RNvYNtNtCs9jpTMRK2ijq_11yoke_derive7visitor11TypeVisitorNtNtNtCsdGrGZaRBwMb_3syn3gen5visit5Visit14visit_genericsB6_, symObjAddr: 0x3530, symBinAddr: 0x75220, symSize: 0x30 }
  - { offset: 0x1318DA, size: 0x8, addend: 0x0, symName: __RNvYNtNtCs9jpTMRK2ijq_11yoke_derive7visitor11TypeVisitorNtNtNtCsdGrGZaRBwMb_3syn3gen5visit5Visit14visit_item_modB6_, symObjAddr: 0x3560, symBinAddr: 0x75250, symSize: 0x30 }
  - { offset: 0x13191C, size: 0x8, addend: 0x0, symName: __RNvYNtNtCs9jpTMRK2ijq_11yoke_derive7visitor11TypeVisitorNtNtNtCsdGrGZaRBwMb_3syn3gen5visit5Visit14visit_item_useB6_, symObjAddr: 0x3590, symBinAddr: 0x75280, symSize: 0x30 }
  - { offset: 0x13195E, size: 0x8, addend: 0x0, symName: __RNvYNtNtCs9jpTMRK2ijq_11yoke_derive7visitor11TypeVisitorNtNtNtCsdGrGZaRBwMb_3syn3gen5visit5Visit14visit_lit_boolB6_, symObjAddr: 0x35C0, symBinAddr: 0x752B0, symSize: 0x30 }
  - { offset: 0x1319A0, size: 0x8, addend: 0x0, symName: __RNvYNtNtCs9jpTMRK2ijq_11yoke_derive7visitor11TypeVisitorNtNtNtCsdGrGZaRBwMb_3syn3gen5visit5Visit14visit_lit_byteB6_, symObjAddr: 0x35F0, symBinAddr: 0x752E0, symSize: 0x30 }
  - { offset: 0x1319E2, size: 0x8, addend: 0x0, symName: __RNvYNtNtCs9jpTMRK2ijq_11yoke_derive7visitor11TypeVisitorNtNtNtCsdGrGZaRBwMb_3syn3gen5visit5Visit14visit_lit_charB6_, symObjAddr: 0x3620, symBinAddr: 0x75310, symSize: 0x30 }
  - { offset: 0x131A24, size: 0x8, addend: 0x0, symName: __RNvYNtNtCs9jpTMRK2ijq_11yoke_derive7visitor11TypeVisitorNtNtNtCsdGrGZaRBwMb_3syn3gen5visit5Visit14visit_lit_cstrB6_, symObjAddr: 0x3650, symBinAddr: 0x75340, symSize: 0x30 }
  - { offset: 0x131A66, size: 0x8, addend: 0x0, symName: __RNvYNtNtCs9jpTMRK2ijq_11yoke_derive7visitor11TypeVisitorNtNtNtCsdGrGZaRBwMb_3syn3gen5visit5Visit14visit_pat_restB6_, symObjAddr: 0x3680, symBinAddr: 0x75370, symSize: 0x30 }
  - { offset: 0x131AA8, size: 0x8, addend: 0x0, symName: __RNvYNtNtCs9jpTMRK2ijq_11yoke_derive7visitor11TypeVisitorNtNtNtCsdGrGZaRBwMb_3syn3gen5visit5Visit14visit_pat_typeB6_, symObjAddr: 0x36B0, symBinAddr: 0x753A0, symSize: 0x30 }
  - { offset: 0x131AEA, size: 0x8, addend: 0x0, symName: __RNvYNtNtCs9jpTMRK2ijq_11yoke_derive7visitor11TypeVisitorNtNtNtCsdGrGZaRBwMb_3syn3gen5visit5Visit14visit_pat_wildB6_, symObjAddr: 0x36E0, symBinAddr: 0x753D0, symSize: 0x30 }
  - { offset: 0x131B2C, size: 0x8, addend: 0x0, symName: __RNvYNtNtCs9jpTMRK2ijq_11yoke_derive7visitor11TypeVisitorNtNtNtCsdGrGZaRBwMb_3syn3gen5visit5Visit14visit_receiverB6_, symObjAddr: 0x3710, symBinAddr: 0x75400, symSize: 0x30 }
  - { offset: 0x131B6E, size: 0x8, addend: 0x0, symName: __RNvYNtNtCs9jpTMRK2ijq_11yoke_derive7visitor11TypeVisitorNtNtNtCsdGrGZaRBwMb_3syn3gen5visit5Visit14visit_type_ptrB6_, symObjAddr: 0x3740, symBinAddr: 0x75430, symSize: 0x30 }
  - { offset: 0x131BB0, size: 0x8, addend: 0x0, symName: __RNvYNtNtCs9jpTMRK2ijq_11yoke_derive7visitor11TypeVisitorNtNtNtCsdGrGZaRBwMb_3syn3gen5visit5Visit14visit_use_globB6_, symObjAddr: 0x3770, symBinAddr: 0x75460, symSize: 0x30 }
  - { offset: 0x131BF2, size: 0x8, addend: 0x0, symName: __RNvYNtNtCs9jpTMRK2ijq_11yoke_derive7visitor11TypeVisitorNtNtNtCsdGrGZaRBwMb_3syn3gen5visit5Visit14visit_use_nameB6_, symObjAddr: 0x37A0, symBinAddr: 0x75490, symSize: 0x30 }
  - { offset: 0x131C34, size: 0x8, addend: 0x0, symName: __RNvYNtNtCs9jpTMRK2ijq_11yoke_derive7visitor11TypeVisitorNtNtNtCsdGrGZaRBwMb_3syn3gen5visit5Visit14visit_use_pathB6_, symObjAddr: 0x37D0, symBinAddr: 0x754C0, symSize: 0x30 }
  - { offset: 0x131C76, size: 0x8, addend: 0x0, symName: __RNvYNtNtCs9jpTMRK2ijq_11yoke_derive7visitor11TypeVisitorNtNtNtCsdGrGZaRBwMb_3syn3gen5visit5Visit14visit_use_treeB6_, symObjAddr: 0x3800, symBinAddr: 0x754F0, symSize: 0x30 }
  - { offset: 0x131CB8, size: 0x8, addend: 0x0, symName: __RNvYNtNtCs9jpTMRK2ijq_11yoke_derive7visitor11TypeVisitorNtNtNtCsdGrGZaRBwMb_3syn3gen5visit5Visit14visit_variadicB6_, symObjAddr: 0x3830, symBinAddr: 0x75520, symSize: 0x30 }
  - { offset: 0x131CFA, size: 0x8, addend: 0x0, symName: __RNvYNtNtCs9jpTMRK2ijq_11yoke_derive7visitor11TypeVisitorNtNtNtCsdGrGZaRBwMb_3syn3gen5visit5Visit15visit_attributeB6_, symObjAddr: 0x3860, symBinAddr: 0x75550, symSize: 0x30 }
  - { offset: 0x131D39, size: 0x8, addend: 0x0, symName: __RNvYNtNtCs9jpTMRK2ijq_11yoke_derive7visitor11TypeVisitorNtNtNtCsdGrGZaRBwMb_3syn3gen5visit5Visit15visit_expr_callB6_, symObjAddr: 0x3890, symBinAddr: 0x75580, symSize: 0x30 }
  - { offset: 0x131D78, size: 0x8, addend: 0x0, symName: __RNvYNtNtCs9jpTMRK2ijq_11yoke_derive7visitor11TypeVisitorNtNtNtCsdGrGZaRBwMb_3syn3gen5visit5Visit15visit_expr_castB6_, symObjAddr: 0x38C0, symBinAddr: 0x755B0, symSize: 0x30 }
  - { offset: 0x131DB7, size: 0x8, addend: 0x0, symName: __RNvYNtNtCs9jpTMRK2ijq_11yoke_derive7visitor11TypeVisitorNtNtNtCsdGrGZaRBwMb_3syn3gen5visit5Visit15visit_expr_loopB6_, symObjAddr: 0x38F0, symBinAddr: 0x755E0, symSize: 0x30 }
  - { offset: 0x131DF6, size: 0x8, addend: 0x0, symName: __RNvYNtNtCs9jpTMRK2ijq_11yoke_derive7visitor11TypeVisitorNtNtNtCsdGrGZaRBwMb_3syn3gen5visit5Visit15visit_expr_pathB6_, symObjAddr: 0x3920, symBinAddr: 0x75610, symSize: 0x30 }
  - { offset: 0x131E38, size: 0x8, addend: 0x0, symName: __RNvYNtNtCs9jpTMRK2ijq_11yoke_derive7visitor11TypeVisitorNtNtNtCsdGrGZaRBwMb_3syn3gen5visit5Visit15visit_field_patB6_, symObjAddr: 0x3950, symBinAddr: 0x75640, symSize: 0x30 }
  - { offset: 0x131E7A, size: 0x8, addend: 0x0, symName: __RNvYNtNtCs9jpTMRK2ijq_11yoke_derive7visitor11TypeVisitorNtNtNtCsdGrGZaRBwMb_3syn3gen5visit5Visit15visit_impl_itemB6_, symObjAddr: 0x3980, symBinAddr: 0x75670, symSize: 0x30 }
  - { offset: 0x131EBC, size: 0x8, addend: 0x0, symName: __RNvYNtNtCs9jpTMRK2ijq_11yoke_derive7visitor11TypeVisitorNtNtNtCsdGrGZaRBwMb_3syn3gen5visit5Visit15visit_item_enumB6_, symObjAddr: 0x39B0, symBinAddr: 0x756A0, symSize: 0x30 }
  - { offset: 0x131EFE, size: 0x8, addend: 0x0, symName: __RNvYNtNtCs9jpTMRK2ijq_11yoke_derive7visitor11TypeVisitorNtNtNtCsdGrGZaRBwMb_3syn3gen5visit5Visit15visit_item_implB6_, symObjAddr: 0x39E0, symBinAddr: 0x756D0, symSize: 0x30 }
  - { offset: 0x131F40, size: 0x8, addend: 0x0, symName: __RNvYNtNtCs9jpTMRK2ijq_11yoke_derive7visitor11TypeVisitorNtNtNtCsdGrGZaRBwMb_3syn3gen5visit5Visit15visit_item_typeB6_, symObjAddr: 0x3A10, symBinAddr: 0x75700, symSize: 0x30 }
  - { offset: 0x131F82, size: 0x8, addend: 0x0, symName: __RNvYNtNtCs9jpTMRK2ijq_11yoke_derive7visitor11TypeVisitorNtNtNtCsdGrGZaRBwMb_3syn3gen5visit5Visit15visit_lit_floatB6_, symObjAddr: 0x3A40, symBinAddr: 0x75730, symSize: 0x30 }
  - { offset: 0x131FC4, size: 0x8, addend: 0x0, symName: __RNvYNtNtCs9jpTMRK2ijq_11yoke_derive7visitor11TypeVisitorNtNtNtCsdGrGZaRBwMb_3syn3gen5visit5Visit15visit_meta_listB6_, symObjAddr: 0x3A70, symBinAddr: 0x75760, symSize: 0x30 }
  - { offset: 0x132006, size: 0x8, addend: 0x0, symName: __RNvYNtNtCs9jpTMRK2ijq_11yoke_derive7visitor11TypeVisitorNtNtNtCsdGrGZaRBwMb_3syn3gen5visit5Visit15visit_pat_identB6_, symObjAddr: 0x3AA0, symBinAddr: 0x75790, symSize: 0x30 }
  - { offset: 0x132048, size: 0x8, addend: 0x0, symName: __RNvYNtNtCs9jpTMRK2ijq_11yoke_derive7visitor11TypeVisitorNtNtNtCsdGrGZaRBwMb_3syn3gen5visit5Visit15visit_pat_parenB6_, symObjAddr: 0x3AD0, symBinAddr: 0x757C0, symSize: 0x30 }
  - { offset: 0x13208A, size: 0x8, addend: 0x0, symName: __RNvYNtNtCs9jpTMRK2ijq_11yoke_derive7visitor11TypeVisitorNtNtNtCsdGrGZaRBwMb_3syn3gen5visit5Visit15visit_pat_sliceB6_, symObjAddr: 0x3B00, symBinAddr: 0x757F0, symSize: 0x30 }
  - { offset: 0x1320CC, size: 0x8, addend: 0x0, symName: __RNvYNtNtCs9jpTMRK2ijq_11yoke_derive7visitor11TypeVisitorNtNtNtCsdGrGZaRBwMb_3syn3gen5visit5Visit15visit_pat_tupleB6_, symObjAddr: 0x3B30, symBinAddr: 0x75820, symSize: 0x30 }
  - { offset: 0x13210E, size: 0x8, addend: 0x0, symName: __RNvYNtNtCs9jpTMRK2ijq_11yoke_derive7visitor11TypeVisitorNtNtNtCsdGrGZaRBwMb_3syn3gen5visit5Visit15visit_signatureB6_, symObjAddr: 0x3B60, symBinAddr: 0x75850, symSize: 0x30 }
  - { offset: 0x132150, size: 0x8, addend: 0x0, symName: __RNvYNtNtCs9jpTMRK2ijq_11yoke_derive7visitor11TypeVisitorNtNtNtCsdGrGZaRBwMb_3syn3gen5visit5Visit15visit_use_groupB6_, symObjAddr: 0x3B90, symBinAddr: 0x75880, symSize: 0x30 }
  - { offset: 0x132192, size: 0x8, addend: 0x0, symName: __RNvYNtNtCs9jpTMRK2ijq_11yoke_derive7visitor11TypeVisitorNtNtNtCsdGrGZaRBwMb_3syn3gen5visit5Visit16visit_assoc_typeB6_, symObjAddr: 0x3BC0, symBinAddr: 0x758B0, symSize: 0x30 }
  - { offset: 0x1321D1, size: 0x8, addend: 0x0, symName: __RNvYNtNtCs9jpTMRK2ijq_11yoke_derive7visitor11TypeVisitorNtNtNtCsdGrGZaRBwMb_3syn3gen5visit5Visit16visit_attr_styleB6_, symObjAddr: 0x3BF0, symBinAddr: 0x758E0, symSize: 0x30 }
  - { offset: 0x132210, size: 0x8, addend: 0x0, symName: __RNvYNtNtCs9jpTMRK2ijq_11yoke_derive7visitor11TypeVisitorNtNtNtCsdGrGZaRBwMb_3syn3gen5visit5Visit16visit_constraintB6_, symObjAddr: 0x3C20, symBinAddr: 0x75910, symSize: 0x30 }
  - { offset: 0x13224F, size: 0x8, addend: 0x0, symName: __RNvYNtNtCs9jpTMRK2ijq_11yoke_derive7visitor11TypeVisitorNtNtNtCsdGrGZaRBwMb_3syn3gen5visit5Visit16visit_expr_arrayB6_, symObjAddr: 0x3C50, symBinAddr: 0x75940, symSize: 0x30 }
  - { offset: 0x13228E, size: 0x8, addend: 0x0, symName: __RNvYNtNtCs9jpTMRK2ijq_11yoke_derive7visitor11TypeVisitorNtNtNtCsdGrGZaRBwMb_3syn3gen5visit5Visit16visit_expr_asyncB6_, symObjAddr: 0x3C80, symBinAddr: 0x75970, symSize: 0x30 }
  - { offset: 0x1322CD, size: 0x8, addend: 0x0, symName: __RNvYNtNtCs9jpTMRK2ijq_11yoke_derive7visitor11TypeVisitorNtNtNtCsdGrGZaRBwMb_3syn3gen5visit5Visit16visit_expr_awaitB6_, symObjAddr: 0x3CB0, symBinAddr: 0x759A0, symSize: 0x30 }
  - { offset: 0x13230C, size: 0x8, addend: 0x0, symName: __RNvYNtNtCs9jpTMRK2ijq_11yoke_derive7visitor11TypeVisitorNtNtNtCsdGrGZaRBwMb_3syn3gen5visit5Visit16visit_expr_blockB6_, symObjAddr: 0x3CE0, symBinAddr: 0x759D0, symSize: 0x30 }
  - { offset: 0x13234B, size: 0x8, addend: 0x0, symName: __RNvYNtNtCs9jpTMRK2ijq_11yoke_derive7visitor11TypeVisitorNtNtNtCsdGrGZaRBwMb_3syn3gen5visit5Visit16visit_expr_breakB6_, symObjAddr: 0x3D10, symBinAddr: 0x75A00, symSize: 0x30 }
  - { offset: 0x13238A, size: 0x8, addend: 0x0, symName: __RNvYNtNtCs9jpTMRK2ijq_11yoke_derive7visitor11TypeVisitorNtNtNtCsdGrGZaRBwMb_3syn3gen5visit5Visit16visit_expr_constB6_, symObjAddr: 0x3D40, symBinAddr: 0x75A30, symSize: 0x30 }
  - { offset: 0x1323C9, size: 0x8, addend: 0x0, symName: __RNvYNtNtCs9jpTMRK2ijq_11yoke_derive7visitor11TypeVisitorNtNtNtCsdGrGZaRBwMb_3syn3gen5visit5Visit16visit_expr_fieldB6_, symObjAddr: 0x3D70, symBinAddr: 0x75A60, symSize: 0x30 }
  - { offset: 0x132408, size: 0x8, addend: 0x0, symName: __RNvYNtNtCs9jpTMRK2ijq_11yoke_derive7visitor11TypeVisitorNtNtNtCsdGrGZaRBwMb_3syn3gen5visit5Visit16visit_expr_groupB6_, symObjAddr: 0x3DA0, symBinAddr: 0x75A90, symSize: 0x30 }
  - { offset: 0x132447, size: 0x8, addend: 0x0, symName: __RNvYNtNtCs9jpTMRK2ijq_11yoke_derive7visitor11TypeVisitorNtNtNtCsdGrGZaRBwMb_3syn3gen5visit5Visit16visit_expr_indexB6_, symObjAddr: 0x3DD0, symBinAddr: 0x75AC0, symSize: 0x30 }
  - { offset: 0x132486, size: 0x8, addend: 0x0, symName: __RNvYNtNtCs9jpTMRK2ijq_11yoke_derive7visitor11TypeVisitorNtNtNtCsdGrGZaRBwMb_3syn3gen5visit5Visit16visit_expr_inferB6_, symObjAddr: 0x3E00, symBinAddr: 0x75AF0, symSize: 0x30 }
  - { offset: 0x1324C5, size: 0x8, addend: 0x0, symName: __RNvYNtNtCs9jpTMRK2ijq_11yoke_derive7visitor11TypeVisitorNtNtNtCsdGrGZaRBwMb_3syn3gen5visit5Visit16visit_expr_macroB6_, symObjAddr: 0x3E30, symBinAddr: 0x75B20, symSize: 0x30 }
  - { offset: 0x132504, size: 0x8, addend: 0x0, symName: __RNvYNtNtCs9jpTMRK2ijq_11yoke_derive7visitor11TypeVisitorNtNtNtCsdGrGZaRBwMb_3syn3gen5visit5Visit16visit_expr_matchB6_, symObjAddr: 0x3E60, symBinAddr: 0x75B50, symSize: 0x30 }
  - { offset: 0x132543, size: 0x8, addend: 0x0, symName: __RNvYNtNtCs9jpTMRK2ijq_11yoke_derive7visitor11TypeVisitorNtNtNtCsdGrGZaRBwMb_3syn3gen5visit5Visit16visit_expr_parenB6_, symObjAddr: 0x3E90, symBinAddr: 0x75B80, symSize: 0x30 }
  - { offset: 0x132585, size: 0x8, addend: 0x0, symName: __RNvYNtNtCs9jpTMRK2ijq_11yoke_derive7visitor11TypeVisitorNtNtNtCsdGrGZaRBwMb_3syn3gen5visit5Visit16visit_expr_rangeB6_, symObjAddr: 0x3EC0, symBinAddr: 0x75BB0, symSize: 0x30 }
  - { offset: 0x1325C7, size: 0x8, addend: 0x0, symName: __RNvYNtNtCs9jpTMRK2ijq_11yoke_derive7visitor11TypeVisitorNtNtNtCsdGrGZaRBwMb_3syn3gen5visit5Visit16visit_expr_tupleB6_, symObjAddr: 0x3EF0, symBinAddr: 0x75BE0, symSize: 0x30 }
  - { offset: 0x132609, size: 0x8, addend: 0x0, symName: __RNvYNtNtCs9jpTMRK2ijq_11yoke_derive7visitor11TypeVisitorNtNtNtCsdGrGZaRBwMb_3syn3gen5visit5Visit16visit_expr_unaryB6_, symObjAddr: 0x3F20, symBinAddr: 0x75C10, symSize: 0x30 }
  - { offset: 0x13264B, size: 0x8, addend: 0x0, symName: __RNvYNtNtCs9jpTMRK2ijq_11yoke_derive7visitor11TypeVisitorNtNtNtCsdGrGZaRBwMb_3syn3gen5visit5Visit16visit_expr_whileB6_, symObjAddr: 0x3F50, symBinAddr: 0x75C40, symSize: 0x30 }
  - { offset: 0x13268D, size: 0x8, addend: 0x0, symName: __RNvYNtNtCs9jpTMRK2ijq_11yoke_derive7visitor11TypeVisitorNtNtNtCsdGrGZaRBwMb_3syn3gen5visit5Visit16visit_expr_yieldB6_, symObjAddr: 0x3F80, symBinAddr: 0x75C70, symSize: 0x30 }
  - { offset: 0x1326CF, size: 0x8, addend: 0x0, symName: __RNvYNtNtCs9jpTMRK2ijq_11yoke_derive7visitor11TypeVisitorNtNtNtCsdGrGZaRBwMb_3syn3gen5visit5Visit16visit_item_constB6_, symObjAddr: 0x3FB0, symBinAddr: 0x75CA0, symSize: 0x30 }
  - { offset: 0x132711, size: 0x8, addend: 0x0, symName: __RNvYNtNtCs9jpTMRK2ijq_11yoke_derive7visitor11TypeVisitorNtNtNtCsdGrGZaRBwMb_3syn3gen5visit5Visit16visit_item_macroB6_, symObjAddr: 0x3FE0, symBinAddr: 0x75CD0, symSize: 0x30 }
  - { offset: 0x132753, size: 0x8, addend: 0x0, symName: __RNvYNtNtCs9jpTMRK2ijq_11yoke_derive7visitor11TypeVisitorNtNtNtCsdGrGZaRBwMb_3syn3gen5visit5Visit16visit_item_traitB6_, symObjAddr: 0x4010, symBinAddr: 0x75D00, symSize: 0x30 }
  - { offset: 0x132795, size: 0x8, addend: 0x0, symName: __RNvYNtNtCs9jpTMRK2ijq_11yoke_derive7visitor11TypeVisitorNtNtNtCsdGrGZaRBwMb_3syn3gen5visit5Visit16visit_item_unionB6_, symObjAddr: 0x4040, symBinAddr: 0x75D30, symSize: 0x30 }
  - { offset: 0x1327D7, size: 0x8, addend: 0x0, symName: __RNvYNtNtCs9jpTMRK2ijq_11yoke_derive7visitor11TypeVisitorNtNtNtCsdGrGZaRBwMb_3syn3gen5visit5Visit16visit_local_initB6_, symObjAddr: 0x4070, symBinAddr: 0x75D60, symSize: 0x30 }
  - { offset: 0x132819, size: 0x8, addend: 0x0, symName: __RNvYNtNtCs9jpTMRK2ijq_11yoke_derive7visitor11TypeVisitorNtNtNtCsdGrGZaRBwMb_3syn3gen5visit5Visit16visit_pat_structB6_, symObjAddr: 0x40A0, symBinAddr: 0x75D90, symSize: 0x30 }
  - { offset: 0x13285B, size: 0x8, addend: 0x0, symName: __RNvYNtNtCs9jpTMRK2ijq_11yoke_derive7visitor11TypeVisitorNtNtNtCsdGrGZaRBwMb_3syn3gen5visit5Visit16visit_stmt_macroB6_, symObjAddr: 0x40D0, symBinAddr: 0x75DC0, symSize: 0x30 }
  - { offset: 0x13289D, size: 0x8, addend: 0x0, symName: __RNvYNtNtCs9jpTMRK2ijq_11yoke_derive7visitor11TypeVisitorNtNtNtCsdGrGZaRBwMb_3syn3gen5visit5Visit16visit_trait_itemB6_, symObjAddr: 0x4100, symBinAddr: 0x75DF0, symSize: 0x30 }
  - { offset: 0x1328DF, size: 0x8, addend: 0x0, symName: __RNvYNtNtCs9jpTMRK2ijq_11yoke_derive7visitor11TypeVisitorNtNtNtCsdGrGZaRBwMb_3syn3gen5visit5Visit16visit_type_arrayB6_, symObjAddr: 0x4130, symBinAddr: 0x75E20, symSize: 0x30 }
  - { offset: 0x132921, size: 0x8, addend: 0x0, symName: __RNvYNtNtCs9jpTMRK2ijq_11yoke_derive7visitor11TypeVisitorNtNtNtCsdGrGZaRBwMb_3syn3gen5visit5Visit16visit_type_groupB6_, symObjAddr: 0x4160, symBinAddr: 0x75E50, symSize: 0x30 }
  - { offset: 0x132963, size: 0x8, addend: 0x0, symName: __RNvYNtNtCs9jpTMRK2ijq_11yoke_derive7visitor11TypeVisitorNtNtNtCsdGrGZaRBwMb_3syn3gen5visit5Visit16visit_type_inferB6_, symObjAddr: 0x4190, symBinAddr: 0x75E80, symSize: 0x30 }
  - { offset: 0x1329A5, size: 0x8, addend: 0x0, symName: __RNvYNtNtCs9jpTMRK2ijq_11yoke_derive7visitor11TypeVisitorNtNtNtCsdGrGZaRBwMb_3syn3gen5visit5Visit16visit_type_macroB6_, symObjAddr: 0x41C0, symBinAddr: 0x75EB0, symSize: 0x30 }
  - { offset: 0x1329E7, size: 0x8, addend: 0x0, symName: __RNvYNtNtCs9jpTMRK2ijq_11yoke_derive7visitor11TypeVisitorNtNtNtCsdGrGZaRBwMb_3syn3gen5visit5Visit16visit_type_neverB6_, symObjAddr: 0x41F0, symBinAddr: 0x75EE0, symSize: 0x30 }
  - { offset: 0x132A29, size: 0x8, addend: 0x0, symName: __RNvYNtNtCs9jpTMRK2ijq_11yoke_derive7visitor11TypeVisitorNtNtNtCsdGrGZaRBwMb_3syn3gen5visit5Visit16visit_type_paramB6_, symObjAddr: 0x4220, symBinAddr: 0x75F10, symSize: 0x30 }
  - { offset: 0x132A6B, size: 0x8, addend: 0x0, symName: __RNvYNtNtCs9jpTMRK2ijq_11yoke_derive7visitor11TypeVisitorNtNtNtCsdGrGZaRBwMb_3syn3gen5visit5Visit16visit_type_parenB6_, symObjAddr: 0x4250, symBinAddr: 0x75F40, symSize: 0x30 }
  - { offset: 0x132AAD, size: 0x8, addend: 0x0, symName: __RNvYNtNtCs9jpTMRK2ijq_11yoke_derive7visitor11TypeVisitorNtNtNtCsdGrGZaRBwMb_3syn3gen5visit5Visit16visit_type_sliceB6_, symObjAddr: 0x4280, symBinAddr: 0x75F70, symSize: 0x30 }
  - { offset: 0x132AEF, size: 0x8, addend: 0x0, symName: __RNvYNtNtCs9jpTMRK2ijq_11yoke_derive7visitor11TypeVisitorNtNtNtCsdGrGZaRBwMb_3syn3gen5visit5Visit16visit_type_tupleB6_, symObjAddr: 0x42B0, symBinAddr: 0x75FA0, symSize: 0x30 }
  - { offset: 0x132B31, size: 0x8, addend: 0x0, symName: __RNvYNtNtCs9jpTMRK2ijq_11yoke_derive7visitor11TypeVisitorNtNtNtCsdGrGZaRBwMb_3syn3gen5visit5Visit16visit_use_renameB6_, symObjAddr: 0x42E0, symBinAddr: 0x75FD0, symSize: 0x30 }
  - { offset: 0x132B73, size: 0x8, addend: 0x0, symName: __RNvYNtNtCs9jpTMRK2ijq_11yoke_derive7visitor11TypeVisitorNtNtNtCsdGrGZaRBwMb_3syn3gen5visit5Visit16visit_visibilityB6_, symObjAddr: 0x4310, symBinAddr: 0x76000, symSize: 0x30 }
  - { offset: 0x132BB5, size: 0x8, addend: 0x0, symName: __RNvYNtNtCs9jpTMRK2ijq_11yoke_derive7visitor11TypeVisitorNtNtNtCsdGrGZaRBwMb_3syn3gen5visit5Visit17visit_assoc_constB6_, symObjAddr: 0x4340, symBinAddr: 0x76030, symSize: 0x30 }
  - { offset: 0x132BF4, size: 0x8, addend: 0x0, symName: __RNvYNtNtCs9jpTMRK2ijq_11yoke_derive7visitor11TypeVisitorNtNtNtCsdGrGZaRBwMb_3syn3gen5visit5Visit17visit_bare_fn_argB6_, symObjAddr: 0x4370, symBinAddr: 0x76060, symSize: 0x30 }
  - { offset: 0x132C33, size: 0x8, addend: 0x0, symName: __RNvYNtNtCs9jpTMRK2ijq_11yoke_derive7visitor11TypeVisitorNtNtNtCsdGrGZaRBwMb_3syn3gen5visit5Visit17visit_const_paramB6_, symObjAddr: 0x43A0, symBinAddr: 0x76090, symSize: 0x30 }
  - { offset: 0x132C72, size: 0x8, addend: 0x0, symName: __RNvYNtNtCs9jpTMRK2ijq_11yoke_derive7visitor11TypeVisitorNtNtNtCsdGrGZaRBwMb_3syn3gen5visit5Visit17visit_expr_assignB6_, symObjAddr: 0x43D0, symBinAddr: 0x760C0, symSize: 0x30 }
  - { offset: 0x132CB1, size: 0x8, addend: 0x0, symName: __RNvYNtNtCs9jpTMRK2ijq_11yoke_derive7visitor11TypeVisitorNtNtNtCsdGrGZaRBwMb_3syn3gen5visit5Visit17visit_expr_binaryB6_, symObjAddr: 0x4400, symBinAddr: 0x760F0, symSize: 0x30 }
  - { offset: 0x132CF0, size: 0x8, addend: 0x0, symName: __RNvYNtNtCs9jpTMRK2ijq_11yoke_derive7visitor11TypeVisitorNtNtNtCsdGrGZaRBwMb_3syn3gen5visit5Visit17visit_expr_repeatB6_, symObjAddr: 0x4430, symBinAddr: 0x76120, symSize: 0x30 }
  - { offset: 0x132D32, size: 0x8, addend: 0x0, symName: __RNvYNtNtCs9jpTMRK2ijq_11yoke_derive7visitor11TypeVisitorNtNtNtCsdGrGZaRBwMb_3syn3gen5visit5Visit17visit_expr_returnB6_, symObjAddr: 0x4460, symBinAddr: 0x76150, symSize: 0x30 }
  - { offset: 0x132D74, size: 0x8, addend: 0x0, symName: __RNvYNtNtCs9jpTMRK2ijq_11yoke_derive7visitor11TypeVisitorNtNtNtCsdGrGZaRBwMb_3syn3gen5visit5Visit17visit_expr_structB6_, symObjAddr: 0x4490, symBinAddr: 0x76180, symSize: 0x30 }
  - { offset: 0x132DB6, size: 0x8, addend: 0x0, symName: __RNvYNtNtCs9jpTMRK2ijq_11yoke_derive7visitor11TypeVisitorNtNtNtCsdGrGZaRBwMb_3syn3gen5visit5Visit17visit_expr_unsafeB6_, symObjAddr: 0x44C0, symBinAddr: 0x761B0, symSize: 0x30 }
  - { offset: 0x132DF8, size: 0x8, addend: 0x0, symName: __RNvYNtNtCs9jpTMRK2ijq_11yoke_derive7visitor11TypeVisitorNtNtNtCsdGrGZaRBwMb_3syn3gen5visit5Visit17visit_field_valueB6_, symObjAddr: 0x44F0, symBinAddr: 0x761E0, symSize: 0x30 }
  - { offset: 0x132E3A, size: 0x8, addend: 0x0, symName: __RNvYNtNtCs9jpTMRK2ijq_11yoke_derive7visitor11TypeVisitorNtNtNtCsdGrGZaRBwMb_3syn3gen5visit5Visit17visit_item_staticB6_, symObjAddr: 0x4520, symBinAddr: 0x76210, symSize: 0x30 }
  - { offset: 0x132E7C, size: 0x8, addend: 0x0, symName: __RNvYNtNtCs9jpTMRK2ijq_11yoke_derive7visitor11TypeVisitorNtNtNtCsdGrGZaRBwMb_3syn3gen5visit5Visit17visit_item_structB6_, symObjAddr: 0x4550, symBinAddr: 0x76240, symSize: 0x30 }
  - { offset: 0x132EBE, size: 0x8, addend: 0x0, symName: __RNvYNtNtCs9jpTMRK2ijq_11yoke_derive7visitor11TypeVisitorNtNtNtCsdGrGZaRBwMb_3syn3gen5visit5Visit17visit_return_typeB6_, symObjAddr: 0x4580, symBinAddr: 0x76270, symSize: 0x30 }
  - { offset: 0x132F00, size: 0x8, addend: 0x0, symName: __RNvYNtNtCs9jpTMRK2ijq_11yoke_derive7visitor11TypeVisitorNtNtNtCsdGrGZaRBwMb_3syn3gen5visit5Visit17visit_trait_boundB6_, symObjAddr: 0x45B0, symBinAddr: 0x762A0, symSize: 0x30 }
