---
triple:          'x86_64-apple-darwin'
binary-path:     '/Users/kema/git/rust-serv/target/debug/deps/libasn1_rs_derive-c5b47d8ef545766f.dylib'
relocations:
  - { offset: 0x1E, size: 0x8, addend: 0x0, symName: __RNCNvMs1_NtCs2h5czzbW9XJ_14asn1_rs_derive9containerNtB7_9Container11gen_fromder0B9_, symObjAddr: 0x0, symBinAddr: 0xBD0, symSize: 0x20 }
  - { offset: 0x4E32, size: 0x8, addend: 0x0, symName: __RNvXsh_NtCsdGrGZaRBwMb_3syn5parseNvNtCs2h5czzbW9XJ_14asn1_rs_derive9container14parse_tag_argsNtB5_6Parser14___parse_scopedBz_, symObjAddr: 0x9E90, symBinAddr: 0xAA60, symSize: 0x430 }
  - { offset: 0x7076, size: 0x8, addend: 0x0, symName: __RNvMNtCsieiGu2EXtoJ_4core5sliceSNtNtCs2h5czzbW9XJ_14asn1_rs_derive9container9FieldInfo4iterBy_, symObjAddr: 0x770, symBinAddr: 0x1340, symSize: 0x20 }
  - { offset: 0x9142, size: 0x8, addend: 0x0, symName: __RNCNvMs1_NtCs2h5czzbW9XJ_14asn1_rs_derive9containerNtB7_9Container11gen_fromder0B9_, symObjAddr: 0x0, symBinAddr: 0xBD0, symSize: 0x20 }
  - { offset: 0x9188, size: 0x8, addend: 0x0, symName: __RNCNvMs1_NtCs2h5czzbW9XJ_14asn1_rs_derive9containerNtB7_9Container11gen_tryfrom0B9_, symObjAddr: 0x20, symBinAddr: 0xBF0, symSize: 0x20 }
  - { offset: 0x91CB, size: 0x8, addend: 0x0, symName: __RNCNvMs1_NtCs2h5czzbW9XJ_14asn1_rs_derive9containerNtB7_9Container15from_datastruct0B9_, symObjAddr: 0x40, symBinAddr: 0xC10, symSize: 0xA0 }
  - { offset: 0x920E, size: 0x8, addend: 0x0, symName: __RNCNvMs1_NtCs2h5czzbW9XJ_14asn1_rs_derive9containerNtB7_9Container20gen_checkconstraints0B9_, symObjAddr: 0xE0, symBinAddr: 0xCB0, symSize: 0x3A0 }
  - { offset: 0x92BF, size: 0x8, addend: 0x0, symName: __RNCNvNtCs2h5czzbW9XJ_14asn1_rs_derive9container16get_field_parser0B5_, symObjAddr: 0x480, symBinAddr: 0x1050, symSize: 0x220 }
  - { offset: 0x9332, size: 0x8, addend: 0x0, symName: __RNCNvNtCs2h5czzbW9XJ_14asn1_rs_derive9container27derive_ber_sequence_content0B5_, symObjAddr: 0x6A0, symBinAddr: 0x1270, symSize: 0x50 }
  - { offset: 0x9391, size: 0x8, addend: 0x0, symName: __RNCNvXs2_NtCs2h5czzbW9XJ_14asn1_rs_derive9containerNtB7_9FieldInfoINtNtCsieiGu2EXtoJ_4core7convert4FromRNtNtCsdGrGZaRBwMb_3syn4data5FieldE4from0B9_, symObjAddr: 0x6F0, symBinAddr: 0x12C0, symSize: 0x50 }
  - { offset: 0x93BB, size: 0x8, addend: 0x0, symName: __RNCNvXs2_NtCs2h5czzbW9XJ_14asn1_rs_derive9containerNtB7_9FieldInfoINtNtCsieiGu2EXtoJ_4core7convert4FromRNtNtCsdGrGZaRBwMb_3syn4data5FieldE4froms_0B9_, symObjAddr: 0x740, symBinAddr: 0x1310, symSize: 0x30 }
  - { offset: 0x9403, size: 0x8, addend: 0x0, symName: __RNvXs2_NtCs2h5czzbW9XJ_14asn1_rs_derive9containerNtB5_9FieldInfoINtNtCsieiGu2EXtoJ_4core7convert4FromRNtNtCsdGrGZaRBwMb_3syn4data5FieldE4from, symObjAddr: 0x9090, symBinAddr: 0x9C60, symSize: 0xC00 }
  - { offset: 0x974D, size: 0x8, addend: 0x0, symName: __RNvNtCs2h5czzbW9XJ_14asn1_rs_derive9container14parse_tag_args, symObjAddr: 0x5B70, symBinAddr: 0x6740, symSize: 0x600 }
  - { offset: 0x98A6, size: 0x8, addend: 0x0, symName: __RNvNtCs2h5czzbW9XJ_14asn1_rs_derive9container16get_field_parser, symObjAddr: 0x6170, symBinAddr: 0x6D40, symSize: 0x2600 }
  - { offset: 0x9D7B, size: 0x8, addend: 0x0, symName: __RNvNtCs2h5czzbW9XJ_14asn1_rs_derive9container18get_attribute_meta, symObjAddr: 0x8770, symBinAddr: 0x9340, symSize: 0x160 }
  - { offset: 0x9DED, size: 0x8, addend: 0x0, symName: __RNvNtCs2h5czzbW9XJ_14asn1_rs_derive9container27derive_ber_sequence_content, symObjAddr: 0x88D0, symBinAddr: 0x94A0, symSize: 0x1D0 }
  - { offset: 0x9EF5, size: 0x8, addend: 0x0, symName: __RNvXNtCs2h5czzbW9XJ_14asn1_rs_derive9containerNtB2_13ContainerTypeNtNtCs9OU1sGv5X54_5quote9to_tokens8ToTokens9to_tokens, symObjAddr: 0x8AA0, symBinAddr: 0x9670, symSize: 0x210 }
  - { offset: 0x9F7A, size: 0x8, addend: 0x0, symName: __RNvXs0_NtCs2h5czzbW9XJ_14asn1_rs_derive9containerNtB5_12Asn1TagClassNtNtCs9OU1sGv5X54_5quote9to_tokens8ToTokens9to_tokens, symObjAddr: 0x8CB0, symBinAddr: 0x9880, symSize: 0x3E0 }
  - { offset: 0xA02B, size: 0x8, addend: 0x0, symName: __RNvXs7_NtCs2h5czzbW9XJ_14asn1_rs_derive9containerNtB5_13ContainerTypeNtNtCsieiGu2EXtoJ_4core3cmp9PartialEq2eqB7_, symObjAddr: 0x9C90, symBinAddr: 0xA860, symSize: 0x30 }
  - { offset: 0xA0A5, size: 0x8, addend: 0x0, symName: __RNvXs_NtCs2h5czzbW9XJ_14asn1_rs_derive9containerNtB4_11Asn1TagKindNtNtCs9OU1sGv5X54_5quote9to_tokens8ToTokens9to_tokens, symObjAddr: 0x9CC0, symBinAddr: 0xA890, symSize: 0x1A0 }
  - { offset: 0xA12A, size: 0x8, addend: 0x0, symName: __RNvXsc_NtCs2h5czzbW9XJ_14asn1_rs_derive9containerNtB5_8Asn1TypeNtNtCsieiGu2EXtoJ_4core3cmp9PartialEq2eqB7_, symObjAddr: 0x9E60, symBinAddr: 0xAA30, symSize: 0x30 }
  - { offset: 0xA6E9, size: 0x8, addend: 0x0, symName: __RNvMs1_NtCs2h5czzbW9XJ_14asn1_rs_derive9containerNtB5_9Container10gen_tagged, symObjAddr: 0x790, symBinAddr: 0x1360, symSize: 0x4B0 }
  - { offset: 0xA7A4, size: 0x8, addend: 0x0, symName: __RNvMs1_NtCs2h5czzbW9XJ_14asn1_rs_derive9containerNtB5_9Container11gen_fromder, symObjAddr: 0xC40, symBinAddr: 0x1810, symSize: 0x24A0 }
  - { offset: 0xACB2, size: 0x8, addend: 0x0, symName: __RNvMs1_NtCs2h5czzbW9XJ_14asn1_rs_derive9containerNtB5_9Container11gen_tryfrom, symObjAddr: 0x30E0, symBinAddr: 0x3CB0, symSize: 0x14F0 }
  - { offset: 0xB02C, size: 0x8, addend: 0x0, symName: __RNvMs1_NtCs2h5czzbW9XJ_14asn1_rs_derive9containerNtB5_9Container15from_datastruct, symObjAddr: 0x45D0, symBinAddr: 0x51A0, symSize: 0x720 }
  - { offset: 0xB204, size: 0x8, addend: 0x0, symName: __RNvMs1_NtCs2h5czzbW9XJ_14asn1_rs_derive9containerNtB5_9Container20gen_checkconstraints, symObjAddr: 0x4CF0, symBinAddr: 0x58C0, symSize: 0xE80 }
  - { offset: 0xB844, size: 0x8, addend: 0x0, symName: __RINvMNtCsieiGu2EXtoJ_4core6optionINtB3_6OptionRNtCsaKzlTDPUHDb_11proc_macro211TokenStreamE3mapBJ_NCNvNtCs2h5czzbW9XJ_14asn1_rs_derive9container16get_field_parser0EB1D_, symObjAddr: 0x0, symBinAddr: 0xAE90, symSize: 0x90 }
  - { offset: 0xC9EB, size: 0x8, addend: 0x0, symName: __RNvXsN_NtCsdGrGZaRBwMb_3syn10punctuatedINtB5_10PunctuatedNtNtB7_4data5FieldNtNtB7_5token5CommaEINtNtNtCsieiGu2EXtoJ_4core3ops5index5IndexjE5indexCs2h5czzbW9XJ_14asn1_rs_derive, symObjAddr: 0x5420, symBinAddr: 0x102B0, symSize: 0x140 }
  - { offset: 0x1061A, size: 0x8, addend: 0x0, symName: __RINvNtCsdGrGZaRBwMb_3syn11parse_quote5parseNtNtB4_8generics14WherePredicateECs2h5czzbW9XJ_14asn1_rs_derive, symObjAddr: 0x5F0, symBinAddr: 0xB480, symSize: 0xE0 }
  - { offset: 0x1067F, size: 0x8, addend: 0x0, symName: __RNvXNtCsdGrGZaRBwMb_3syn11parse_quoteNtNtB4_8generics14WherePredicateNtB2_10ParseQuote5parseCs2h5czzbW9XJ_14asn1_rs_derive, symObjAddr: 0x4D60, symBinAddr: 0xFBF0, symSize: 0x30 }
  - { offset: 0x106BB, size: 0x8, addend: 0x0, symName: __RINvNtCsdGrGZaRBwMb_3syn5parse12parse_scopedNvNtCs2h5czzbW9XJ_14asn1_rs_derive9container14parse_tag_argsEBK_, symObjAddr: 0x6D0, symBinAddr: 0xB560, symSize: 0x30 }
  - { offset: 0x10711, size: 0x8, addend: 0x0, symName: __RINvNtCsdGrGZaRBwMb_3syn5parse12parse_scopedNvYNtNtB4_4expr4ExprNtB2_5Parse5parseECs2h5czzbW9XJ_14asn1_rs_derive, symObjAddr: 0x700, symBinAddr: 0xB590, symSize: 0x30 }
  - { offset: 0x1076C, size: 0x8, addend: 0x0, symName: __RNvXsh_NtCsdGrGZaRBwMb_3syn5parseNvYNtNtB7_4expr4ExprNtB5_5Parse5parseNtB5_6Parser14___parse_scopedCs2h5czzbW9XJ_14asn1_rs_derive, symObjAddr: 0x5A80, symBinAddr: 0x10910, symSize: 0x4A0 }
  - { offset: 0x108B8, size: 0x8, addend: 0x0, symName: __RNvXsh_NtCsdGrGZaRBwMb_3syn5parseNvYNtNtB7_6derive11DeriveInputNtB5_5Parse5parseNtB5_6Parser6parse2Cs2h5czzbW9XJ_14asn1_rs_derive, symObjAddr: 0x5F20, symBinAddr: 0x10DB0, symSize: 0x400 }
  - { offset: 0x109C9, size: 0x8, addend: 0x0, symName: __RNvXsh_NtCsdGrGZaRBwMb_3syn5parseNvYNtNtB7_8generics14WherePredicateNtNtB7_11parse_quote10ParseQuote5parseNtB5_6Parser6parse2Cs2h5czzbW9XJ_14asn1_rs_derive, symObjAddr: 0x6320, symBinAddr: 0x111B0, symSize: 0x400 }
  - { offset: 0x10AE0, size: 0x8, addend: 0x0, symName: __RNvYNvYNtNtCsdGrGZaRBwMb_3syn6derive11DeriveInputNtNtB9_5parse5Parse5parseNtBN_6Parser5parseCs2h5czzbW9XJ_14asn1_rs_derive, symObjAddr: 0x6EF0, symBinAddr: 0x11D80, symSize: 0x70 }
  - { offset: 0x1193F, size: 0x8, addend: 0x0, symName: __RNvXs_NtCslJiobkLta79_5alloc5allocNtB4_6GlobalNtNtCsieiGu2EXtoJ_4core5alloc9Allocator10deallocateCs2h5czzbW9XJ_14asn1_rs_derive, symObjAddr: 0x5980, symBinAddr: 0x10810, symSize: 0x70 }
  - { offset: 0x11AB8, size: 0x8, addend: 0x0, symName: __RNvXsT_NtCslJiobkLta79_5alloc6stringNtB5_6StringNtNtCsieiGu2EXtoJ_4core3fmt5Write10write_charCs2h5czzbW9XJ_14asn1_rs_derive, symObjAddr: 0x56D0, symBinAddr: 0x10560, symSize: 0x30 }
  - { offset: 0x11AF5, size: 0x8, addend: 0x0, symName: __RNvXsT_NtCslJiobkLta79_5alloc6stringNtB5_6StringNtNtCsieiGu2EXtoJ_4core3fmt5Write9write_strCs2h5czzbW9XJ_14asn1_rs_derive, symObjAddr: 0x5700, symBinAddr: 0x10590, symSize: 0x30 }
  - { offset: 0x11B38, size: 0x8, addend: 0x0, symName: __RNvXss_NtCslJiobkLta79_5alloc6stringNtB5_6StringNtNtNtCsieiGu2EXtoJ_4core3ops5deref5Deref5derefCs2h5czzbW9XJ_14asn1_rs_derive, symObjAddr: 0x6AF0, symBinAddr: 0x11980, symSize: 0x20 }
  - { offset: 0x11B6C, size: 0x8, addend: 0x0, symName: __RNvXsw_NtCslJiobkLta79_5alloc6stringNtCsaKzlTDPUHDb_11proc_macro211TokenStreamNtB5_8ToString9to_stringCs2h5czzbW9XJ_14asn1_rs_derive, symObjAddr: 0x6B20, symBinAddr: 0x119B0, symSize: 0x30 }
  - { offset: 0x11BA9, size: 0x8, addend: 0x0, symName: __RNvXsx_NtCslJiobkLta79_5alloc6stringNtCsaKzlTDPUHDb_11proc_macro211TokenStreamNtB5_12SpecToString14spec_to_stringCs2h5czzbW9XJ_14asn1_rs_derive, symObjAddr: 0x6B90, symBinAddr: 0x11A20, symSize: 0x120 }
  - { offset: 0x1251D, size: 0x8, addend: 0x0, symName: __RNvXs6_NtCslJiobkLta79_5alloc5boxedINtB5_3BoxDNtNtCsieiGu2EXtoJ_4core5error5ErrorNtNtBM_6marker4SyncNtB1j_4SendEL_ENtNtNtBM_3ops4drop4Drop4dropCs2h5czzbW9XJ_14asn1_rs_derive, symObjAddr: 0x5140, symBinAddr: 0xFFD0, symSize: 0xC0 }
  - { offset: 0x1265A, size: 0x8, addend: 0x0, symName: __RNvXs6_NtCslJiobkLta79_5alloc5boxedINtB5_3BoxNtNtNtCsHUR1vrdMJt_3std2io5error6CustomENtNtNtCsieiGu2EXtoJ_4core3ops4drop4Drop4dropCs2h5czzbW9XJ_14asn1_rs_derive, symObjAddr: 0x5200, symBinAddr: 0x10090, symSize: 0xB0 }
  - { offset: 0x12A5D, size: 0x8, addend: 0x0, symName: __RNvXsA_NtCsaKzlTDPUHDb_11proc_macro28fallbackNtB5_5IdentNtNtCsieiGu2EXtoJ_4core5clone5Clone5cloneCs2h5czzbW9XJ_14asn1_rs_derive, symObjAddr: 0x5300, symBinAddr: 0x10190, symSize: 0x90 }
  - { offset: 0x12A91, size: 0x8, addend: 0x0, symName: __RNvXss_NtCsaKzlTDPUHDb_11proc_macro28fallbackNtB5_11TokenStreamNtNtCsieiGu2EXtoJ_4core5clone5Clone5cloneCs2h5czzbW9XJ_14asn1_rs_derive, symObjAddr: 0x6AD0, symBinAddr: 0x11960, symSize: 0x20 }
  - { offset: 0x12AC3, size: 0x8, addend: 0x0, symName: __RNvXsu_NtCsaKzlTDPUHDb_11proc_macro28fallbackNtB5_4SpanNtNtCsieiGu2EXtoJ_4core5clone5Clone5cloneCs2h5czzbW9XJ_14asn1_rs_derive, symObjAddr: 0x6B10, symBinAddr: 0x119A0, symSize: 0x10 }
  - { offset: 0x12D50, size: 0x8, addend: 0x0, symName: __RNvXs12_CsaKzlTDPUHDb_11proc_macro2NtB6_5IdentNtNtCsieiGu2EXtoJ_4core5clone5Clone5cloneCs2h5czzbW9XJ_14asn1_rs_derive, symObjAddr: 0x4E70, symBinAddr: 0xFD00, symSize: 0x80 }
  - { offset: 0x12D84, size: 0x8, addend: 0x0, symName: __RNvXsK_CsaKzlTDPUHDb_11proc_macro2NtB5_11TokenStreamNtNtCsieiGu2EXtoJ_4core5clone5Clone5cloneCs2h5czzbW9XJ_14asn1_rs_derive, symObjAddr: 0x5390, symBinAddr: 0x10220, symSize: 0x90 }
  - { offset: 0x12E51, size: 0x8, addend: 0x0, symName: __RINvNtNtNtCscKtU6MdFI5n_10proc_macro6bridge6client5state3setINtNtCsieiGu2EXtoJ_4core6option6OptionNtB4_11TokenStreamENCNCINvB4_10run_clientB1y_BW_NCNCINvMs6_B4_INtB4_6ClientNtB8_11TokenStreamB2L_E7expand1NvCs2h5czzbW9XJ_14asn1_rs_derive11BerSequenceE00E00EB3i_, symObjAddr: 0x930, symBinAddr: 0xB7C0, symSize: 0xC0 }
  - { offset: 0x12F27, size: 0x8, addend: 0x0, symName: __RINvNtNtNtCscKtU6MdFI5n_10proc_macro6bridge6client5state3setINtNtCsieiGu2EXtoJ_4core6option6OptionNtB4_11TokenStreamENCNCINvB4_10run_clientB1y_BW_NCNCINvMs6_B4_INtB4_6ClientNtB8_11TokenStreamB2L_E7expand1NvCs2h5czzbW9XJ_14asn1_rs_derive11DerSequenceE00E00EB3i_, symObjAddr: 0x9F0, symBinAddr: 0xB880, symSize: 0xC0 }
  - { offset: 0x12FFD, size: 0x8, addend: 0x0, symName: __RINvNtNtNtCscKtU6MdFI5n_10proc_macro6bridge6client5state3setINtNtCsieiGu2EXtoJ_4core6option6OptionNtB4_11TokenStreamENCNCINvB4_10run_clientB1y_BW_NCNCINvMs6_B4_INtB4_6ClientNtB8_11TokenStreamB2L_E7expand1NvCs2h5czzbW9XJ_14asn1_rs_derive6BerSetE00E00EB3i_, symObjAddr: 0xAB0, symBinAddr: 0xB940, symSize: 0xC0 }
  - { offset: 0x130D3, size: 0x8, addend: 0x0, symName: __RINvNtNtNtCscKtU6MdFI5n_10proc_macro6bridge6client5state3setINtNtCsieiGu2EXtoJ_4core6option6OptionNtB4_11TokenStreamENCNCINvB4_10run_clientB1y_BW_NCNCINvMs6_B4_INtB4_6ClientNtB8_11TokenStreamB2L_E7expand1NvCs2h5czzbW9XJ_14asn1_rs_derive6DerSetE00E00EB3i_, symObjAddr: 0xB70, symBinAddr: 0xBA00, symSize: 0xC0 }
  - { offset: 0x131A9, size: 0x8, addend: 0x0, symName: __RINvNtNtNtCscKtU6MdFI5n_10proc_macro6bridge6client5state3setINtNtCsieiGu2EXtoJ_4core6option6OptionNtB4_11TokenStreamENCNCINvB4_10run_clientB1y_BW_NCNCINvMs6_B4_INtB4_6ClientNtB8_11TokenStreamB2L_E7expand1NvCs2h5czzbW9XJ_14asn1_rs_derive8BerAliasE00E00EB3i_, symObjAddr: 0xC30, symBinAddr: 0xBAC0, symSize: 0xC0 }
  - { offset: 0x1327F, size: 0x8, addend: 0x0, symName: __RINvNtNtNtCscKtU6MdFI5n_10proc_macro6bridge6client5state3setINtNtCsieiGu2EXtoJ_4core6option6OptionNtB4_11TokenStreamENCNCINvB4_10run_clientB1y_BW_NCNCINvMs6_B4_INtB4_6ClientNtB8_11TokenStreamB2L_E7expand1NvCs2h5czzbW9XJ_14asn1_rs_derive8DerAliasE00E00EB3i_, symObjAddr: 0xCF0, symBinAddr: 0xBB80, symSize: 0xC0 }
  - { offset: 0x1335F, size: 0x8, addend: 0x0, symName: __RNCNkNvNtNtNtCscKtU6MdFI5n_10proc_macro6bridge6client5state12BRIDGE_STATE0s_0Cs2h5czzbW9XJ_14asn1_rs_derive, symObjAddr: 0x12B0, symBinAddr: 0xC140, symSize: 0x20 }
  - { offset: 0x13A8C, size: 0x8, addend: 0x0, symName: __RNvXs5_NtNtCscKtU6MdFI5n_10proc_macro6bridge6bufferNtB5_6BufferNtNtNtCsieiGu2EXtoJ_4core3ops4drop4Drop4dropCs2h5czzbW9XJ_14asn1_rs_derive, symObjAddr: 0x50A0, symBinAddr: 0xFF30, symSize: 0xA0 }
  - { offset: 0x13BE3, size: 0x8, addend: 0x0, symName: __RINvNvNtNtCscKtU6MdFI5n_10proc_macro6bridge14selfless_reify31reify_to_extern_c_fn_hrt_bridge7wrapperNtNtB6_6buffer6BufferNCINvMs6_NtB6_6clientINtB24_6ClientNtB8_11TokenStreamB2u_E7expand1NvCs2h5czzbW9XJ_14asn1_rs_derive11BerSequenceE0EB31_, symObjAddr: 0xDB0, symBinAddr: 0xBC40, symSize: 0xA0 }
  - { offset: 0x13C7B, size: 0x8, addend: 0x0, symName: __RINvNvNtNtCscKtU6MdFI5n_10proc_macro6bridge14selfless_reify31reify_to_extern_c_fn_hrt_bridge7wrapperNtNtB6_6buffer6BufferNCINvMs6_NtB6_6clientINtB24_6ClientNtB8_11TokenStreamB2u_E7expand1NvCs2h5czzbW9XJ_14asn1_rs_derive11DerSequenceE0EB31_, symObjAddr: 0xE50, symBinAddr: 0xBCE0, symSize: 0xA0 }
  - { offset: 0x13D13, size: 0x8, addend: 0x0, symName: __RINvNvNtNtCscKtU6MdFI5n_10proc_macro6bridge14selfless_reify31reify_to_extern_c_fn_hrt_bridge7wrapperNtNtB6_6buffer6BufferNCINvMs6_NtB6_6clientINtB24_6ClientNtB8_11TokenStreamB2u_E7expand1NvCs2h5czzbW9XJ_14asn1_rs_derive6BerSetE0EB31_, symObjAddr: 0xEF0, symBinAddr: 0xBD80, symSize: 0xA0 }
  - { offset: 0x13DAB, size: 0x8, addend: 0x0, symName: __RINvNvNtNtCscKtU6MdFI5n_10proc_macro6bridge14selfless_reify31reify_to_extern_c_fn_hrt_bridge7wrapperNtNtB6_6buffer6BufferNCINvMs6_NtB6_6clientINtB24_6ClientNtB8_11TokenStreamB2u_E7expand1NvCs2h5czzbW9XJ_14asn1_rs_derive6DerSetE0EB31_, symObjAddr: 0xF90, symBinAddr: 0xBE20, symSize: 0xA0 }
  - { offset: 0x13E43, size: 0x8, addend: 0x0, symName: __RINvNvNtNtCscKtU6MdFI5n_10proc_macro6bridge14selfless_reify31reify_to_extern_c_fn_hrt_bridge7wrapperNtNtB6_6buffer6BufferNCINvMs6_NtB6_6clientINtB24_6ClientNtB8_11TokenStreamB2u_E7expand1NvCs2h5czzbW9XJ_14asn1_rs_derive8BerAliasE0EB31_, symObjAddr: 0x1030, symBinAddr: 0xBEC0, symSize: 0xA0 }
  - { offset: 0x13EDB, size: 0x8, addend: 0x0, symName: __RINvNvNtNtCscKtU6MdFI5n_10proc_macro6bridge14selfless_reify31reify_to_extern_c_fn_hrt_bridge7wrapperNtNtB6_6buffer6BufferNCINvMs6_NtB6_6clientINtB24_6ClientNtB8_11TokenStreamB2u_E7expand1NvCs2h5czzbW9XJ_14asn1_rs_derive8DerAliasE0EB31_, symObjAddr: 0x10D0, symBinAddr: 0xBF60, symSize: 0xA0 }
  - { offset: 0x13F7F, size: 0x8, addend: 0x0, symName: __RNvXs7_NtNtCscKtU6MdFI5n_10proc_macro6bridge3rpcINtNtNtCsieiGu2EXtoJ_4core3num7nonzero7NonZeromEINtB5_9DecodeMutuE6decodeCs2h5czzbW9XJ_14asn1_rs_derive, symObjAddr: 0x52B0, symBinAddr: 0x10140, symSize: 0x50 }
  - { offset: 0x14134, size: 0x8, addend: 0x0, symName: __RNvXsR_NtCscKtU6MdFI5n_10proc_macro6bridgeINtNtCsieiGu2EXtoJ_4core6option6OptionNtNtB5_6client11TokenStreamEINtNtB5_3rpc6EncodeuE6encodeCs2h5czzbW9XJ_14asn1_rs_derive, symObjAddr: 0x5560, symBinAddr: 0x103F0, symSize: 0xB0 }
  - { offset: 0x141DA, size: 0x8, addend: 0x0, symName: __RNvXsR_NtCscKtU6MdFI5n_10proc_macro6bridgeINtNtCsieiGu2EXtoJ_4core6option6OptionReEINtNtB5_3rpc6EncodeuE6encodeCs2h5czzbW9XJ_14asn1_rs_derive, symObjAddr: 0x5610, symBinAddr: 0x104A0, symSize: 0xC0 }
  - { offset: 0x14287, size: 0x8, addend: 0x0, symName: __RNvXsV_NtCscKtU6MdFI5n_10proc_macro6bridgeINtNtCsieiGu2EXtoJ_4core6result6ResultINtNtBJ_6option6OptionNtNtB5_6client11TokenStreamEuEINtNtB5_3rpc6EncodeuE6encodeCs2h5czzbW9XJ_14asn1_rs_derive, symObjAddr: 0x5780, symBinAddr: 0x10610, symSize: 0xE0 }
  - { offset: 0x1434B, size: 0x8, addend: 0x0, symName: __RNvXsV_NtCscKtU6MdFI5n_10proc_macro6bridgeINtNtCsieiGu2EXtoJ_4core6result6ResultuNtNtB5_3rpc12PanicMessageEINtB1j_6EncodeuE6encodeCs2h5czzbW9XJ_14asn1_rs_derive, symObjAddr: 0x5860, symBinAddr: 0x106F0, symSize: 0x120 }
  - { offset: 0x1457F, size: 0x8, addend: 0x0, symName: __RNvXs1e_CscKtU6MdFI5n_10proc_macroNtB6_5IdentNtNtCsieiGu2EXtoJ_4core5clone5Clone5cloneCs2h5czzbW9XJ_14asn1_rs_derive, symObjAddr: 0x4F30, symBinAddr: 0xFDC0, symSize: 0x40 }
  - { offset: 0x145B3, size: 0x8, addend: 0x0, symName: __RNvXsU_CscKtU6MdFI5n_10proc_macroNtB5_11TokenStreamNtNtCsieiGu2EXtoJ_4core5clone5Clone5cloneCs2h5czzbW9XJ_14asn1_rs_derive, symObjAddr: 0x5730, symBinAddr: 0x105C0, symSize: 0x50 }
  - { offset: 0x14768, size: 0x8, addend: 0x0, symName: __RNvMs9_NtCsieiGu2EXtoJ_4core3numj11checked_addCs2h5czzbW9XJ_14asn1_rs_derive, symObjAddr: 0x2020, symBinAddr: 0xCEB0, symSize: 0x70 }
  - { offset: 0x147F2, size: 0x8, addend: 0x0, symName: __RNvNvMs9_NtCsieiGu2EXtoJ_4core3numj13unchecked_add18precondition_checkCs2h5czzbW9XJ_14asn1_rs_derive, symObjAddr: 0x4860, symBinAddr: 0xF6F0, symSize: 0xA0 }
  - { offset: 0x14A57, size: 0x8, addend: 0x0, symName: __RNvMsy_NtCsieiGu2EXtoJ_4core3numt16from_ascii_radixCs2h5czzbW9XJ_14asn1_rs_derive, symObjAddr: 0x2090, symBinAddr: 0xCF20, symSize: 0x5E0 }
  - { offset: 0x14CC6, size: 0x8, addend: 0x0, symName: __RNvXsx_NtCsieiGu2EXtoJ_4core3numtNtNtNtB7_3str6traits7FromStr8from_strCs2h5czzbW9XJ_14asn1_rs_derive, symObjAddr: 0x6B50, symBinAddr: 0x119E0, symSize: 0x40 }
  - { offset: 0x1531A, size: 0x8, addend: 0x0, symName: __RNvNvMs1_NtNtCsieiGu2EXtoJ_4core3ptr8non_nullINtB7_7NonNullpE13new_unchecked18precondition_checkCs2h5czzbW9XJ_14asn1_rs_derive, symObjAddr: 0x47D0, symBinAddr: 0xF660, symSize: 0x90 }
  - { offset: 0x15B3E, size: 0x8, addend: 0x0, symName: __RNvNvMNtNtCsieiGu2EXtoJ_4core3ptr9const_ptrPp20offset_from_unsigned18precondition_checkCs2h5czzbW9XJ_14asn1_rs_derive, symObjAddr: 0x4680, symBinAddr: 0xF510, symSize: 0xA0 }
  - { offset: 0x1872D, size: 0x8, addend: 0x0, symName: __RNvXsp_NtCsieiGu2EXtoJ_4core6resultINtB5_6ResultNtNtCsdGrGZaRBwMb_3syn6derive11DeriveInputNtNtBO_5error5ErrorENtNtNtB7_3ops9try_trait3Try6branchCs2h5czzbW9XJ_14asn1_rs_derive, symObjAddr: 0x6840, symBinAddr: 0x116D0, symSize: 0xE0 }
  - { offset: 0x187AB, size: 0x8, addend: 0x0, symName: __RNvXsp_NtCsieiGu2EXtoJ_4core6resultINtB5_6ResultTNtNtCs2h5czzbW9XJ_14asn1_rs_derive9container12Asn1TagClasstENtNtCsdGrGZaRBwMb_3syn5error5ErrorENtNtNtB7_3ops9try_trait3Try6branchBP_, symObjAddr: 0x6920, symBinAddr: 0x117B0, symSize: 0xB0 }
  - { offset: 0x18828, size: 0x8, addend: 0x0, symName: __RNvXsp_NtCsieiGu2EXtoJ_4core6resultINtB5_6ResulttNtNtCsdGrGZaRBwMb_3syn5error5ErrorENtNtNtB7_3ops9try_trait3Try6branchCs2h5czzbW9XJ_14asn1_rs_derive, symObjAddr: 0x69D0, symBinAddr: 0x11860, symSize: 0xB0 }
  - { offset: 0x188AB, size: 0x8, addend: 0x0, symName: __RNvXsq_NtCsieiGu2EXtoJ_4core6resultINtB5_6ResultTNtNtCs2h5czzbW9XJ_14asn1_rs_derive9container12Asn1TagClasstENtNtCsdGrGZaRBwMb_3syn5error5ErrorEINtNtNtB7_3ops9try_trait12FromResidualIBy_NtNtB7_7convert10InfallibleB1J_EE13from_residualBP_, symObjAddr: 0x6A80, symBinAddr: 0x11910, symSize: 0x50 }
  - { offset: 0x1919A, size: 0x8, addend: 0x0, symName: __RNvMNtCsieiGu2EXtoJ_4core5sliceSNtCsaKzlTDPUHDb_11proc_macro211TokenStream4iterCs2h5czzbW9XJ_14asn1_rs_derive, symObjAddr: 0x16C0, symBinAddr: 0xC550, symSize: 0x20 }
  - { offset: 0x191D1, size: 0x8, addend: 0x0, symName: __RNvMNtCsieiGu2EXtoJ_4core5sliceSRNtCsaKzlTDPUHDb_11proc_macro25Ident4iterCs2h5czzbW9XJ_14asn1_rs_derive, symObjAddr: 0x16E0, symBinAddr: 0xC570, symSize: 0x20 }
  - { offset: 0x19208, size: 0x8, addend: 0x0, symName: __RNvMNtCsieiGu2EXtoJ_4core5sliceSRNtNtCsdGrGZaRBwMb_3syn8generics13LifetimeParam4iterCs2h5czzbW9XJ_14asn1_rs_derive, symObjAddr: 0x1700, symBinAddr: 0xC590, symSize: 0x20 }
  - { offset: 0x192EF, size: 0x8, addend: 0x0, symName: __RNvNvNtNtCsieiGu2EXtoJ_4core5slice3raw14from_raw_parts18precondition_checkCs2h5czzbW9XJ_14asn1_rs_derive, symObjAddr: 0x4A40, symBinAddr: 0xF8D0, symSize: 0x260 }
  - { offset: 0x195BF, size: 0x8, addend: 0x0, symName: __RNvXs0_NtNtCsieiGu2EXtoJ_4core5slice5indexjINtB5_10SliceIndexSNtNtCs2h5czzbW9XJ_14asn1_rs_derive9container9FieldInfoE5indexB12_, symObjAddr: 0x4DB0, symBinAddr: 0xFC40, symSize: 0x60 }
  - { offset: 0x19605, size: 0x8, addend: 0x0, symName: __RNvXs0_NtNtCsieiGu2EXtoJ_4core5slice5indexjINtB5_10SliceIndexSTNtNtCsdGrGZaRBwMb_3syn4data5FieldNtNtB13_5token5CommaEE5indexCs2h5czzbW9XJ_14asn1_rs_derive, symObjAddr: 0x4E10, symBinAddr: 0xFCA0, symSize: 0x60 }
  - { offset: 0x1972E, size: 0x8, addend: 0x0, symName: __RNvXsn_NtNtCsieiGu2EXtoJ_4core5panic11unwind_safeINtB5_16AssertUnwindSafeNCINvNtNtCscKtU6MdFI5n_10proc_macro6bridge6client10run_clientNtB1e_11TokenStreamINtNtB9_6option6OptionB28_ENCNCINvMs6_B1e_INtB1e_6ClientNtB1i_11TokenStreamB3l_E7expand1NvCs2h5czzbW9XJ_14asn1_rs_derive11BerSequenceE00E0EINtNtNtB9_3ops8function6FnOnceuE9call_onceB3T_, symObjAddr: 0x6720, symBinAddr: 0x115B0, symSize: 0x30 }
  - { offset: 0x19786, size: 0x8, addend: 0x0, symName: __RNvXsn_NtNtCsieiGu2EXtoJ_4core5panic11unwind_safeINtB5_16AssertUnwindSafeNCINvNtNtCscKtU6MdFI5n_10proc_macro6bridge6client10run_clientNtB1e_11TokenStreamINtNtB9_6option6OptionB28_ENCNCINvMs6_B1e_INtB1e_6ClientNtB1i_11TokenStreamB3l_E7expand1NvCs2h5czzbW9XJ_14asn1_rs_derive11DerSequenceE00E0EINtNtNtB9_3ops8function6FnOnceuE9call_onceB3T_, symObjAddr: 0x6750, symBinAddr: 0x115E0, symSize: 0x30 }
  - { offset: 0x197DE, size: 0x8, addend: 0x0, symName: __RNvXsn_NtNtCsieiGu2EXtoJ_4core5panic11unwind_safeINtB5_16AssertUnwindSafeNCINvNtNtCscKtU6MdFI5n_10proc_macro6bridge6client10run_clientNtB1e_11TokenStreamINtNtB9_6option6OptionB28_ENCNCINvMs6_B1e_INtB1e_6ClientNtB1i_11TokenStreamB3l_E7expand1NvCs2h5czzbW9XJ_14asn1_rs_derive6BerSetE00E0EINtNtNtB9_3ops8function6FnOnceuE9call_onceB3T_, symObjAddr: 0x6780, symBinAddr: 0x11610, symSize: 0x30 }
  - { offset: 0x19836, size: 0x8, addend: 0x0, symName: __RNvXsn_NtNtCsieiGu2EXtoJ_4core5panic11unwind_safeINtB5_16AssertUnwindSafeNCINvNtNtCscKtU6MdFI5n_10proc_macro6bridge6client10run_clientNtB1e_11TokenStreamINtNtB9_6option6OptionB28_ENCNCINvMs6_B1e_INtB1e_6ClientNtB1i_11TokenStreamB3l_E7expand1NvCs2h5czzbW9XJ_14asn1_rs_derive6DerSetE00E0EINtNtNtB9_3ops8function6FnOnceuE9call_onceB3T_, symObjAddr: 0x67B0, symBinAddr: 0x11640, symSize: 0x30 }
  - { offset: 0x1988E, size: 0x8, addend: 0x0, symName: __RNvXsn_NtNtCsieiGu2EXtoJ_4core5panic11unwind_safeINtB5_16AssertUnwindSafeNCINvNtNtCscKtU6MdFI5n_10proc_macro6bridge6client10run_clientNtB1e_11TokenStreamINtNtB9_6option6OptionB28_ENCNCINvMs6_B1e_INtB1e_6ClientNtB1i_11TokenStreamB3l_E7expand1NvCs2h5czzbW9XJ_14asn1_rs_derive8BerAliasE00E0EINtNtNtB9_3ops8function6FnOnceuE9call_onceB3T_, symObjAddr: 0x67E0, symBinAddr: 0x11670, symSize: 0x30 }
  - { offset: 0x198E6, size: 0x8, addend: 0x0, symName: __RNvXsn_NtNtCsieiGu2EXtoJ_4core5panic11unwind_safeINtB5_16AssertUnwindSafeNCINvNtNtCscKtU6MdFI5n_10proc_macro6bridge6client10run_clientNtB1e_11TokenStreamINtNtB9_6option6OptionB28_ENCNCINvMs6_B1e_INtB1e_6ClientNtB1i_11TokenStreamB3l_E7expand1NvCs2h5czzbW9XJ_14asn1_rs_derive8DerAliasE00E0EINtNtNtB9_3ops8function6FnOnceuE9call_onceB3T_, symObjAddr: 0x6810, symBinAddr: 0x116A0, symSize: 0x30 }
  - { offset: 0x19A0B, size: 0x8, addend: 0x0, symName: __RNvNvNtCsieiGu2EXtoJ_4core4hint21unreachable_unchecked18precondition_checkCs2h5czzbW9XJ_14asn1_rs_derive, symObjAddr: 0x4900, symBinAddr: 0xF790, symSize: 0x80 }
  - { offset: 0x19C91, size: 0x8, addend: 0x0, symName: __RINvYINtNtCsdGrGZaRBwMb_3syn10punctuated4IterNtNtB8_4data5FieldENtNtNtNtCsieiGu2EXtoJ_4core4iter6traits8iterator8Iterator3mapNtNtCs2h5czzbW9XJ_14asn1_rs_derive9container9FieldInfoNvYB1Z_INtNtB18_7convert4FromRBH_E4fromEB23_, symObjAddr: 0x1170, symBinAddr: 0xC000, symSize: 0x20 }
  - { offset: 0x19CE9, size: 0x8, addend: 0x0, symName: __RINvYNtNtCsdGrGZaRBwMb_3syn8generics9LifetimesNtNtNtNtCsieiGu2EXtoJ_4core4iter6traits8iterator8Iterator7collectINtNtCslJiobkLta79_5alloc3vec3VecRNtB5_13LifetimeParamEECs2h5czzbW9XJ_14asn1_rs_derive, symObjAddr: 0x1190, symBinAddr: 0xC020, symSize: 0x60 }
  - { offset: 0x19D88, size: 0x8, addend: 0x0, symName: __RNCINvNvNtNtNtNtCsieiGu2EXtoJ_4core4iter6traits8iterator8Iterator8for_each4callNtCsaKzlTDPUHDb_11proc_macro211TokenStreamNCINvMsi_NtCslJiobkLta79_5alloc3vecINtB24_3VecB1f_E14extend_trustedINtNtNtBc_8adapters3map3MapINtNtNtBe_5slice4iter4IterNtNtCs2h5czzbW9XJ_14asn1_rs_derive9container9FieldInfoENCNvB3T_27derive_ber_sequence_content0EE0E0B3V_, symObjAddr: 0x11F0, symBinAddr: 0xC080, symSize: 0x40 }
  - { offset: 0x19DE1, size: 0x8, addend: 0x0, symName: __RNCINvNvNtNtNtNtCsieiGu2EXtoJ_4core4iter6traits8iterator8Iterator8for_each4callNtCsaKzlTDPUHDb_11proc_macro211TokenStreamNCINvMsi_NtCslJiobkLta79_5alloc3vecINtB24_3VecB1f_E14extend_trustedINtNtNtBc_8adapters3map3MapINtNtNtBe_5slice4iter4IterNtNtCs2h5czzbW9XJ_14asn1_rs_derive9container9FieldInfoENCNvMs1_B3T_NtB3T_9Container20gen_checkconstraints0EE0E0B3V_, symObjAddr: 0x1230, symBinAddr: 0xC0C0, symSize: 0x40 }
  - { offset: 0x19E3A, size: 0x8, addend: 0x0, symName: __RNCINvNvNtNtNtNtCsieiGu2EXtoJ_4core4iter6traits8iterator8Iterator8for_each4callRNtCsaKzlTDPUHDb_11proc_macro25IdentNCINvMsi_NtCslJiobkLta79_5alloc3vecINtB1Y_3VecB1f_E14extend_trustedINtNtNtBc_8adapters3map3MapINtNtNtBe_5slice4iter4IterNtNtCs2h5czzbW9XJ_14asn1_rs_derive9container9FieldInfoENCNvMs1_B3N_NtB3N_9Container11gen_fromder0EE0E0B3P_, symObjAddr: 0x1270, symBinAddr: 0xC100, symSize: 0x20 }
  - { offset: 0x19E92, size: 0x8, addend: 0x0, symName: __RNCINvNvNtNtNtNtCsieiGu2EXtoJ_4core4iter6traits8iterator8Iterator8for_each4callRNtCsaKzlTDPUHDb_11proc_macro25IdentNCINvMsi_NtCslJiobkLta79_5alloc3vecINtB1Y_3VecB1f_E14extend_trustedINtNtNtBc_8adapters3map3MapINtNtNtBe_5slice4iter4IterNtNtCs2h5czzbW9XJ_14asn1_rs_derive9container9FieldInfoENCNvMs1_B3N_NtB3N_9Container11gen_tryfrom0EE0E0B3P_, symObjAddr: 0x1290, symBinAddr: 0xC120, symSize: 0x20 }
  - { offset: 0x19EEC, size: 0x8, addend: 0x0, symName: __RNvYNtNtCsdGrGZaRBwMb_3syn8generics9LifetimesNtNtNtNtCsieiGu2EXtoJ_4core4iter6traits8iterator8Iterator9size_hintCs2h5czzbW9XJ_14asn1_rs_derive, symObjAddr: 0x6EC0, symBinAddr: 0x11D50, symSize: 0x30 }
  - { offset: 0x19F2D, size: 0x8, addend: 0x0, symName: __RNvXNtNtNtCsieiGu2EXtoJ_4core4iter6traits7collectNtNtCsdGrGZaRBwMb_3syn8generics9LifetimesNtB2_12IntoIterator9into_iterCs2h5czzbW9XJ_14asn1_rs_derive, symObjAddr: 0x4D90, symBinAddr: 0xFC20, symSize: 0x20 }
  - { offset: 0x19FD4, size: 0x8, addend: 0x0, symName: __RNvMNtNtCsieiGu2EXtoJ_4core4char7methodsc8to_digitCs2h5czzbW9XJ_14asn1_rs_derive, symObjAddr: 0x1AB0, symBinAddr: 0xC940, symSize: 0xF0 }
  - { offset: 0x1A0BE, size: 0x8, addend: 0x0, symName: __RNvNtNtCsieiGu2EXtoJ_4core4char7methods25encode_utf8_raw_uncheckedCs2h5czzbW9XJ_14asn1_rs_derive, symObjAddr: 0x3F90, symBinAddr: 0xEE20, symSize: 0x140 }
  - { offset: 0x1A2B5, size: 0x8, addend: 0x0, symName: __RNvXs_NtNtCsieiGu2EXtoJ_4core3str6traitseNtNtB8_3cmp9PartialEq2eqCs2h5czzbW9XJ_14asn1_rs_derive, symObjAddr: 0x59F0, symBinAddr: 0x10880, symSize: 0x90 }
  - { offset: 0x1A48A, size: 0x8, addend: 0x0, symName: __RNvNvMNtNtCsieiGu2EXtoJ_4core5alloc6layoutNtB4_6Layout25from_size_align_unchecked18precondition_checkCs2h5czzbW9XJ_14asn1_rs_derive, symObjAddr: 0x4720, symBinAddr: 0xF5B0, symSize: 0xB0 }
  - { offset: 0x1A5A6, size: 0x8, addend: 0x0, symName: __RNvNvNtCsieiGu2EXtoJ_4core9ub_checks23maybe_is_nonoverlapping7runtimeCs2h5czzbW9XJ_14asn1_rs_derive, symObjAddr: 0x4980, symBinAddr: 0xF810, symSize: 0xC0 }
  - { offset: 0x1A81D, size: 0x8, addend: 0x0, symName: __RNvXs1_NtCsieiGu2EXtoJ_4core7convertNtCsaKzlTDPUHDb_11proc_macro211TokenStreamINtB5_4IntoNtCscKtU6MdFI5n_10proc_macro11TokenStreamE4intoCs2h5czzbW9XJ_14asn1_rs_derive, symObjAddr: 0x4EF0, symBinAddr: 0xFD80, symSize: 0x10 }
  - { offset: 0x1ACC2, size: 0x8, addend: 0x0, symName: __RNCNvXs1_NtNtNtCsHUR1vrdMJt_3std2io5error14repr_bitpackedNtB7_4ReprNtNtNtCsieiGu2EXtoJ_4core3ops4drop4Drop4drop0Cs2h5czzbW9XJ_14asn1_rs_derive, symObjAddr: 0x1690, symBinAddr: 0xC520, symSize: 0x30 }
  - { offset: 0x1AD77, size: 0x8, addend: 0x0, symName: __RNvXs1_NtNtNtCsHUR1vrdMJt_3std2io5error14repr_bitpackedNtB5_4ReprNtNtNtCsieiGu2EXtoJ_4core3ops4drop4Drop4dropCs2h5czzbW9XJ_14asn1_rs_derive, symObjAddr: 0x4F00, symBinAddr: 0xFD90, symSize: 0x30 }
  - { offset: 0x1ADA0, size: 0x8, addend: 0x0, symName: __RINvNtNtNtCsHUR1vrdMJt_3std2io5error14repr_bitpacked11decode_reprINtNtCslJiobkLta79_5alloc5boxed3BoxNtB4_6CustomENCNvXs1_B2_NtB2_4ReprNtNtNtCsieiGu2EXtoJ_4core3ops4drop4Drop4drop0ECs2h5czzbW9XJ_14asn1_rs_derive, symObjAddr: 0x730, symBinAddr: 0xB5C0, symSize: 0x200 }
  - { offset: 0x1B001, size: 0x8, addend: 0x0, symName: __RNvNtNtNtCsHUR1vrdMJt_3std2io5error14repr_bitpacked14kind_from_primCs2h5czzbW9XJ_14asn1_rs_derive, symObjAddr: 0x40D0, symBinAddr: 0xEF60, symSize: 0x5B0 }
  - { offset: 0x1BA50, size: 0x8, addend: 0x0, symName: __RNCNvNtCs2h5czzbW9XJ_14asn1_rs_derive3set14derive_ber_set0B5_, symObjAddr: 0x12D0, symBinAddr: 0xC160, symSize: 0xA0 }
  - { offset: 0x1BA93, size: 0x8, addend: 0x0, symName: __RNCNvNtCs2h5czzbW9XJ_14asn1_rs_derive3set14derive_der_set0B5_, symObjAddr: 0x1370, symBinAddr: 0xC200, symSize: 0xA0 }
  - { offset: 0x1BAD1, size: 0x8, addend: 0x0, symName: __RNvNtCs2h5czzbW9XJ_14asn1_rs_derive3set14derive_ber_set, symObjAddr: 0x2670, symBinAddr: 0xD500, symSize: 0x3E0 }
  - { offset: 0x1BBE2, size: 0x8, addend: 0x0, symName: __RNvNtCs2h5czzbW9XJ_14asn1_rs_derive3set14derive_der_set, symObjAddr: 0x2A50, symBinAddr: 0xD8E0, symSize: 0x480 }
  - { offset: 0x1BD2A, size: 0x8, addend: 0x0, symName: __RNCNvNtCs2h5czzbW9XJ_14asn1_rs_derive5alias16derive_ber_alias0B5_, symObjAddr: 0x1410, symBinAddr: 0xC2A0, symSize: 0xA0 }
  - { offset: 0x1BD6D, size: 0x8, addend: 0x0, symName: __RNCNvNtCs2h5czzbW9XJ_14asn1_rs_derive5alias16derive_der_alias0B5_, symObjAddr: 0x14B0, symBinAddr: 0xC340, symSize: 0xA0 }
  - { offset: 0x1BDAB, size: 0x8, addend: 0x0, symName: __RNvNtCs2h5czzbW9XJ_14asn1_rs_derive5alias16derive_ber_alias, symObjAddr: 0x2ED0, symBinAddr: 0xDD60, symSize: 0x3E0 }
  - { offset: 0x1BEBC, size: 0x8, addend: 0x0, symName: __RNvNtCs2h5czzbW9XJ_14asn1_rs_derive5alias16derive_der_alias, symObjAddr: 0x32B0, symBinAddr: 0xE140, symSize: 0x480 }
  - { offset: 0x1C004, size: 0x8, addend: 0x0, symName: __RNCNvNtCs2h5czzbW9XJ_14asn1_rs_derive8sequence19derive_ber_sequence0B5_, symObjAddr: 0x1550, symBinAddr: 0xC3E0, symSize: 0xA0 }
  - { offset: 0x1C047, size: 0x8, addend: 0x0, symName: __RNCNvNtCs2h5czzbW9XJ_14asn1_rs_derive8sequence19derive_der_sequence0B5_, symObjAddr: 0x15F0, symBinAddr: 0xC480, symSize: 0xA0 }
  - { offset: 0x1C085, size: 0x8, addend: 0x0, symName: __RNvNtCs2h5czzbW9XJ_14asn1_rs_derive8sequence19derive_ber_sequence, symObjAddr: 0x3730, symBinAddr: 0xE5C0, symSize: 0x3E0 }
  - { offset: 0x1C196, size: 0x8, addend: 0x0, symName: __RNvNtCs2h5czzbW9XJ_14asn1_rs_derive8sequence19derive_der_sequence, symObjAddr: 0x3B10, symBinAddr: 0xE9A0, symSize: 0x480 }
  - { offset: 0x1C32D, size: 0x8, addend: 0x0, symName: __RNvYNtCsaKzlTDPUHDb_11proc_macro211TokenStreamNtCs4L8YLU89NU9_12synstructure11MacroResult11into_streamCs2h5czzbW9XJ_14asn1_rs_derive, symObjAddr: 0x6CB0, symBinAddr: 0x11B40, symSize: 0x120 }
  - { offset: 0x1C526, size: 0x8, addend: 0x0, symName: __RINvMNtCsieiGu2EXtoJ_4core6optionINtB3_6OptionRNtCsaKzlTDPUHDb_11proc_macro211TokenStreamE3mapBJ_NCNvNtCs2h5czzbW9XJ_14asn1_rs_derive9container16get_field_parser0EB1D_, symObjAddr: 0x0, symBinAddr: 0xAE90, symSize: 0x90 }
  - { offset: 0x1C591, size: 0x8, addend: 0x0, symName: __RINvMNtCsieiGu2EXtoJ_4core6optionINtB3_6OptionRNtCsaKzlTDPUHDb_11proc_macro25IdentE11map_or_elseBJ_NCNvXs2_NtCs2h5czzbW9XJ_14asn1_rs_derive9containerNtB1H_9FieldInfoINtNtB5_7convert4FromRNtNtCsdGrGZaRBwMb_3syn4data5FieldE4from0NCB1B_s_0EB1J_, symObjAddr: 0x90, symBinAddr: 0xAF20, symSize: 0xA0 }
  - { offset: 0x1C635, size: 0x8, addend: 0x0, symName: __RINvMNtCsieiGu2EXtoJ_4core6resultINtB3_6ResulttNtNtNtB5_3num5error13ParseIntErrorE7map_errNtNtCsdGrGZaRBwMb_3syn5error5ErrorNCINvMs3_NtB1u_3litNtB27_6LitInt12base10_parsetE0ECs2h5czzbW9XJ_14asn1_rs_derive, symObjAddr: 0x130, symBinAddr: 0xAFC0, symSize: 0x90 }
  - { offset: 0x1C763, size: 0x8, addend: 0x0, symName: __RINvMs3_NtNtCscKtU6MdFI5n_10proc_macro6bridge6bufferNtB6_6Buffer17extend_from_arrayKj4_ECs2h5czzbW9XJ_14asn1_rs_derive, symObjAddr: 0x1C0, symBinAddr: 0xB050, symSize: 0x1E0 }
  - { offset: 0x1C8EB, size: 0x8, addend: 0x0, symName: __RINvMs3_NtNtCscKtU6MdFI5n_10proc_macro6bridge6bufferNtB6_6Buffer17extend_from_arrayKj8_ECs2h5czzbW9XJ_14asn1_rs_derive, symObjAddr: 0x3A0, symBinAddr: 0xB230, symSize: 0x1E0 }
  - { offset: 0x1CF09, size: 0x8, addend: 0x0, symName: __RINvMs_NtCsdGrGZaRBwMb_3syn4pathNtB5_4Path8is_identNtCsaKzlTDPUHDb_11proc_macro25IdentECs2h5czzbW9XJ_14asn1_rs_derive, symObjAddr: 0x580, symBinAddr: 0xB410, symSize: 0x70 }
  - { offset: 0x1D525, size: 0x8, addend: 0x0, symName: __RNvMNtCsieiGu2EXtoJ_4core6optionINtB2_6OptionNtCsaKzlTDPUHDb_11proc_macro211TokenStreamE6as_refCs2h5czzbW9XJ_14asn1_rs_derive, symObjAddr: 0x1720, symBinAddr: 0xC5B0, symSize: 0x50 }
  - { offset: 0x1D57C, size: 0x8, addend: 0x0, symName: __RNvMNtCsieiGu2EXtoJ_4core6optionINtB2_6OptionNtCsaKzlTDPUHDb_11proc_macro25IdentE6as_refCs2h5czzbW9XJ_14asn1_rs_derive, symObjAddr: 0x1770, symBinAddr: 0xC600, symSize: 0x40 }
  - { offset: 0x1D5D3, size: 0x8, addend: 0x0, symName: __RNvMNtCsieiGu2EXtoJ_4core6optionINtB2_6OptionNtNtCsdGrGZaRBwMb_3syn4attr9AttributeE7is_someCs2h5czzbW9XJ_14asn1_rs_derive, symObjAddr: 0x17B0, symBinAddr: 0xC640, symSize: 0x30 }
  - { offset: 0x1D635, size: 0x8, addend: 0x0, symName: __RNvMNtCsieiGu2EXtoJ_4core6optionINtB2_6OptionTNtNtCs2h5czzbW9XJ_14asn1_rs_derive9container11Asn1TagKindNtBK_12Asn1TagClasstEE7is_someBM_, symObjAddr: 0x17E0, symBinAddr: 0xC670, symSize: 0x30 }
  - { offset: 0x1D661, size: 0x8, addend: 0x0, symName: __RNvMNtCsieiGu2EXtoJ_4core6resultINtB2_6ResultNtNtCsdGrGZaRBwMb_3syn4expr4ExprNtNtBL_5error5ErrorE6expectCs2h5czzbW9XJ_14asn1_rs_derive, symObjAddr: 0x1810, symBinAddr: 0xC6A0, symSize: 0xC0 }
  - { offset: 0x1D881, size: 0x8, addend: 0x0, symName: __RNvMNtCslJiobkLta79_5alloc6stringNtB2_6String4pushCs2h5czzbW9XJ_14asn1_rs_derive, symObjAddr: 0x18D0, symBinAddr: 0xC760, symSize: 0x130 }
  - { offset: 0x1DB68, size: 0x8, addend: 0x0, symName: __RNvMNtCslJiobkLta79_5alloc6stringNtB2_6String6as_strCs2h5czzbW9XJ_14asn1_rs_derive, symObjAddr: 0x1A00, symBinAddr: 0xC890, symSize: 0x60 }
  - { offset: 0x1DD36, size: 0x8, addend: 0x0, symName: __RNvMNtCslJiobkLta79_5alloc6stringNtB2_6String8push_strCs2h5czzbW9XJ_14asn1_rs_derive, symObjAddr: 0x1A60, symBinAddr: 0xC8F0, symSize: 0x50 }
  - { offset: 0x1DE9E, size: 0x8, addend: 0x0, symName: __RNvMs0_NtCsieiGu2EXtoJ_4core6optionINtB5_6OptionRNtNtCsdGrGZaRBwMb_3syn4attr9AttributeE6clonedCs2h5czzbW9XJ_14asn1_rs_derive, symObjAddr: 0x1BA0, symBinAddr: 0xCA30, symSize: 0x90 }
  - { offset: 0x1DF1F, size: 0x8, addend: 0x0, symName: __RNvMs1_NtNtCsieiGu2EXtoJ_4core3ptr8non_nullINtB5_7NonNullNtNtCs2h5czzbW9XJ_14asn1_rs_derive9container9FieldInfoE20offset_from_unsignedBX_, symObjAddr: 0x1C30, symBinAddr: 0xCAC0, symSize: 0x70 }
  - { offset: 0x1E005, size: 0x8, addend: 0x0, symName: __RNvMs3_NtNtCscKtU6MdFI5n_10proc_macro6bridge6bufferNtB5_6Buffer17extend_from_sliceCs2h5czzbW9XJ_14asn1_rs_derive, symObjAddr: 0x1CA0, symBinAddr: 0xCB30, symSize: 0x1E0 }
  - { offset: 0x1E182, size: 0x8, addend: 0x0, symName: __RNvMs3_NtNtCscKtU6MdFI5n_10proc_macro6bridge6bufferNtB5_6Buffer4pushCs2h5czzbW9XJ_14asn1_rs_derive, symObjAddr: 0x1E80, symBinAddr: 0xCD10, symSize: 0x1A0 }
  - { offset: 0x1E30D, size: 0x8, addend: 0x0, symName: __RNvXNtCs9OU1sGv5X54_5quote9to_tokensRNtCsaKzlTDPUHDb_11proc_macro211TokenStreamNtB2_8ToTokens9to_tokensCs2h5czzbW9XJ_14asn1_rs_derive, symObjAddr: 0x4CA0, symBinAddr: 0xFB30, symSize: 0x30 }
  - { offset: 0x1E34C, size: 0x8, addend: 0x0, symName: __RNvXNtCs9OU1sGv5X54_5quote9to_tokensRNtNtCsdGrGZaRBwMb_3syn8generics13LifetimeParamNtB2_8ToTokens9to_tokensCs2h5czzbW9XJ_14asn1_rs_derive, symObjAddr: 0x4CD0, symBinAddr: 0xFB60, symSize: 0x30 }
  - { offset: 0x1E38B, size: 0x8, addend: 0x0, symName: __RNvXNtCs9OU1sGv5X54_5quote9to_tokensRRNtCsaKzlTDPUHDb_11proc_macro25IdentNtB2_8ToTokens9to_tokensCs2h5czzbW9XJ_14asn1_rs_derive, symObjAddr: 0x4D00, symBinAddr: 0xFB90, symSize: 0x30 }
  - { offset: 0x1E3CA, size: 0x8, addend: 0x0, symName: __RNvXNtCs9OU1sGv5X54_5quote9to_tokensRRNtNtCsdGrGZaRBwMb_3syn8generics13LifetimeParamNtB2_8ToTokens9to_tokensCs2h5czzbW9XJ_14asn1_rs_derive, symObjAddr: 0x4D30, symBinAddr: 0xFBC0, symSize: 0x30 }
  - { offset: 0x1E40F, size: 0x8, addend: 0x0, symName: __RNvXs3_NtCs9OU1sGv5X54_5quote9to_tokensINtNtCsieiGu2EXtoJ_4core6option6OptionNtCsaKzlTDPUHDb_11proc_macro211TokenStreamENtB5_8ToTokens9to_tokensCs2h5czzbW9XJ_14asn1_rs_derive, symObjAddr: 0x4F70, symBinAddr: 0xFE00, symSize: 0x70 }
  - { offset: 0x1E471, size: 0x8, addend: 0x0, symName: __RNvYNtNtCsdGrGZaRBwMb_3syn2ty8TypePathNtNtCs9OU1sGv5X54_5quote9to_tokens8ToTokens15to_token_streamCs2h5czzbW9XJ_14asn1_rs_derive, symObjAddr: 0x6DD0, symBinAddr: 0x11C60, symSize: 0x90 }
  - { offset: 0x1E4BB, size: 0x8, addend: 0x0, symName: __RNvYNtNtCsdGrGZaRBwMb_3syn2ty8TypePathNtNtCs9OU1sGv5X54_5quote9to_tokens8ToTokens17into_token_streamCs2h5czzbW9XJ_14asn1_rs_derive, symObjAddr: 0x6E60, symBinAddr: 0x11CF0, symSize: 0x60 }
  - { offset: 0x1E4FD, size: 0x8, addend: 0x0, symName: __RNvXs5_NtCs9OU1sGv5X54_5quote9___privateINtB5_9RepInterpRNtCsaKzlTDPUHDb_11proc_macro211TokenStreamENtNtB7_9to_tokens8ToTokens9to_tokensCs2h5czzbW9XJ_14asn1_rs_derive, symObjAddr: 0x4FE0, symBinAddr: 0xFE70, symSize: 0x30 }
  - { offset: 0x1E53C, size: 0x8, addend: 0x0, symName: __RNvXs5_NtCs9OU1sGv5X54_5quote9___privateINtB5_9RepInterpRNtNtCsdGrGZaRBwMb_3syn8generics14WherePredicateENtNtB7_9to_tokens8ToTokens9to_tokensCs2h5czzbW9XJ_14asn1_rs_derive, symObjAddr: 0x5010, symBinAddr: 0xFEA0, symSize: 0x30 }
  - { offset: 0x1E57B, size: 0x8, addend: 0x0, symName: __RNvXs5_NtCs9OU1sGv5X54_5quote9___privateINtB5_9RepInterpRRNtCsaKzlTDPUHDb_11proc_macro25IdentENtNtB7_9to_tokens8ToTokens9to_tokensCs2h5czzbW9XJ_14asn1_rs_derive, symObjAddr: 0x5040, symBinAddr: 0xFED0, symSize: 0x30 }
  - { offset: 0x1E5BA, size: 0x8, addend: 0x0, symName: __RNvXs5_NtCs9OU1sGv5X54_5quote9___privateINtB5_9RepInterpRRNtNtCsdGrGZaRBwMb_3syn8generics13LifetimeParamENtNtB7_9to_tokens8ToTokens9to_tokensCs2h5czzbW9XJ_14asn1_rs_derive, symObjAddr: 0x5070, symBinAddr: 0xFF00, symSize: 0x30 }
  - { offset: 0x1EDD8, size: 0x8, addend: 0x0, symName: __RINvCsdGrGZaRBwMb_3syn5parseNtNtB2_6derive11DeriveInputECs2h5czzbW9XJ_14asn1_rs_derive, symObjAddr: 0x0, symBinAddr: 0x11DF0, symSize: 0x30 }
  - { offset: 0x1F123, size: 0x8, addend: 0x0, symName: __RNCNvMs3_NtNtCsHUR1vrdMJt_3std6thread5localINtB7_8LocalKeyINtNtCsieiGu2EXtoJ_4core4cell4CellPuEE7replace0Cs2h5czzbW9XJ_14asn1_rs_derive, symObjAddr: 0x5030, symBinAddr: 0x16DE0, symSize: 0x20 }
  - { offset: 0x1F363, size: 0x8, addend: 0x0, symName: __RINvNvNtCsHUR1vrdMJt_3std9panicking12catch_unwind7do_callINtNtNtCsieiGu2EXtoJ_4core5panic11unwind_safe16AssertUnwindSafeNCINvNtNtCscKtU6MdFI5n_10proc_macro6bridge6client10run_clientNtB1Z_11TokenStreamINtNtB10_6option6OptionB2T_ENCNCINvMs6_B1Z_INtB1Z_6ClientNtB23_11TokenStreamB47_E7expand1NvCs2h5czzbW9XJ_14asn1_rs_derive11BerSequenceE00E0EuEB4F_, symObjAddr: 0x2A80, symBinAddr: 0x14830, symSize: 0x40 }
  - { offset: 0x1F42C, size: 0x8, addend: 0x0, symName: __RINvNvNtCsHUR1vrdMJt_3std9panicking12catch_unwind7do_callINtNtNtCsieiGu2EXtoJ_4core5panic11unwind_safe16AssertUnwindSafeNCINvNtNtCscKtU6MdFI5n_10proc_macro6bridge6client10run_clientNtB1Z_11TokenStreamINtNtB10_6option6OptionB2T_ENCNCINvMs6_B1Z_INtB1Z_6ClientNtB23_11TokenStreamB47_E7expand1NvCs2h5czzbW9XJ_14asn1_rs_derive11DerSequenceE00E0EuEB4F_, symObjAddr: 0x2AC0, symBinAddr: 0x14870, symSize: 0x40 }
  - { offset: 0x1F4F5, size: 0x8, addend: 0x0, symName: __RINvNvNtCsHUR1vrdMJt_3std9panicking12catch_unwind7do_callINtNtNtCsieiGu2EXtoJ_4core5panic11unwind_safe16AssertUnwindSafeNCINvNtNtCscKtU6MdFI5n_10proc_macro6bridge6client10run_clientNtB1Z_11TokenStreamINtNtB10_6option6OptionB2T_ENCNCINvMs6_B1Z_INtB1Z_6ClientNtB23_11TokenStreamB47_E7expand1NvCs2h5czzbW9XJ_14asn1_rs_derive6BerSetE00E0EuEB4F_, symObjAddr: 0x2B00, symBinAddr: 0x148B0, symSize: 0x40 }
  - { offset: 0x1F5BE, size: 0x8, addend: 0x0, symName: __RINvNvNtCsHUR1vrdMJt_3std9panicking12catch_unwind7do_callINtNtNtCsieiGu2EXtoJ_4core5panic11unwind_safe16AssertUnwindSafeNCINvNtNtCscKtU6MdFI5n_10proc_macro6bridge6client10run_clientNtB1Z_11TokenStreamINtNtB10_6option6OptionB2T_ENCNCINvMs6_B1Z_INtB1Z_6ClientNtB23_11TokenStreamB47_E7expand1NvCs2h5czzbW9XJ_14asn1_rs_derive6DerSetE00E0EuEB4F_, symObjAddr: 0x2B40, symBinAddr: 0x148F0, symSize: 0x40 }
  - { offset: 0x1F687, size: 0x8, addend: 0x0, symName: __RINvNvNtCsHUR1vrdMJt_3std9panicking12catch_unwind7do_callINtNtNtCsieiGu2EXtoJ_4core5panic11unwind_safe16AssertUnwindSafeNCINvNtNtCscKtU6MdFI5n_10proc_macro6bridge6client10run_clientNtB1Z_11TokenStreamINtNtB10_6option6OptionB2T_ENCNCINvMs6_B1Z_INtB1Z_6ClientNtB23_11TokenStreamB47_E7expand1NvCs2h5czzbW9XJ_14asn1_rs_derive8BerAliasE00E0EuEB4F_, symObjAddr: 0x2B80, symBinAddr: 0x14930, symSize: 0x40 }
  - { offset: 0x1F750, size: 0x8, addend: 0x0, symName: __RINvNvNtCsHUR1vrdMJt_3std9panicking12catch_unwind7do_callINtNtNtCsieiGu2EXtoJ_4core5panic11unwind_safe16AssertUnwindSafeNCINvNtNtCscKtU6MdFI5n_10proc_macro6bridge6client10run_clientNtB1Z_11TokenStreamINtNtB10_6option6OptionB2T_ENCNCINvMs6_B1Z_INtB1Z_6ClientNtB23_11TokenStreamB47_E7expand1NvCs2h5czzbW9XJ_14asn1_rs_derive8DerAliasE00E0EuEB4F_, symObjAddr: 0x2BC0, symBinAddr: 0x14970, symSize: 0x40 }
  - { offset: 0x1F819, size: 0x8, addend: 0x0, symName: __RINvNvNtCsHUR1vrdMJt_3std9panicking12catch_unwind8do_catchINtNtNtCsieiGu2EXtoJ_4core5panic11unwind_safe16AssertUnwindSafeNCINvNtNtCscKtU6MdFI5n_10proc_macro6bridge6client10run_clientNtB20_11TokenStreamINtNtB11_6option6OptionB2U_ENCNCINvMs6_B20_INtB20_6ClientNtB24_11TokenStreamB48_E7expand1NvCs2h5czzbW9XJ_14asn1_rs_derive11BerSequenceE00E0EuEB4G_, symObjAddr: 0x2C00, symBinAddr: 0x149B0, symSize: 0x60 }
  - { offset: 0x1F8AE, size: 0x8, addend: 0x0, symName: __RINvNvNtCsHUR1vrdMJt_3std9panicking12catch_unwind8do_catchINtNtNtCsieiGu2EXtoJ_4core5panic11unwind_safe16AssertUnwindSafeNCINvNtNtCscKtU6MdFI5n_10proc_macro6bridge6client10run_clientNtB20_11TokenStreamINtNtB11_6option6OptionB2U_ENCNCINvMs6_B20_INtB20_6ClientNtB24_11TokenStreamB48_E7expand1NvCs2h5czzbW9XJ_14asn1_rs_derive11DerSequenceE00E0EuEB4G_, symObjAddr: 0x2C60, symBinAddr: 0x14A10, symSize: 0x60 }
  - { offset: 0x1F943, size: 0x8, addend: 0x0, symName: __RINvNvNtCsHUR1vrdMJt_3std9panicking12catch_unwind8do_catchINtNtNtCsieiGu2EXtoJ_4core5panic11unwind_safe16AssertUnwindSafeNCINvNtNtCscKtU6MdFI5n_10proc_macro6bridge6client10run_clientNtB20_11TokenStreamINtNtB11_6option6OptionB2U_ENCNCINvMs6_B20_INtB20_6ClientNtB24_11TokenStreamB48_E7expand1NvCs2h5czzbW9XJ_14asn1_rs_derive6BerSetE00E0EuEB4G_, symObjAddr: 0x2CC0, symBinAddr: 0x14A70, symSize: 0x60 }
  - { offset: 0x1F9D8, size: 0x8, addend: 0x0, symName: __RINvNvNtCsHUR1vrdMJt_3std9panicking12catch_unwind8do_catchINtNtNtCsieiGu2EXtoJ_4core5panic11unwind_safe16AssertUnwindSafeNCINvNtNtCscKtU6MdFI5n_10proc_macro6bridge6client10run_clientNtB20_11TokenStreamINtNtB11_6option6OptionB2U_ENCNCINvMs6_B20_INtB20_6ClientNtB24_11TokenStreamB48_E7expand1NvCs2h5czzbW9XJ_14asn1_rs_derive6DerSetE00E0EuEB4G_, symObjAddr: 0x2D20, symBinAddr: 0x14AD0, symSize: 0x60 }
  - { offset: 0x1FA6D, size: 0x8, addend: 0x0, symName: __RINvNvNtCsHUR1vrdMJt_3std9panicking12catch_unwind8do_catchINtNtNtCsieiGu2EXtoJ_4core5panic11unwind_safe16AssertUnwindSafeNCINvNtNtCscKtU6MdFI5n_10proc_macro6bridge6client10run_clientNtB20_11TokenStreamINtNtB11_6option6OptionB2U_ENCNCINvMs6_B20_INtB20_6ClientNtB24_11TokenStreamB48_E7expand1NvCs2h5czzbW9XJ_14asn1_rs_derive8BerAliasE00E0EuEB4G_, symObjAddr: 0x2D80, symBinAddr: 0x14B30, symSize: 0x60 }
  - { offset: 0x1FB02, size: 0x8, addend: 0x0, symName: __RINvNvNtCsHUR1vrdMJt_3std9panicking12catch_unwind8do_catchINtNtNtCsieiGu2EXtoJ_4core5panic11unwind_safe16AssertUnwindSafeNCINvNtNtCscKtU6MdFI5n_10proc_macro6bridge6client10run_clientNtB20_11TokenStreamINtNtB11_6option6OptionB2U_ENCNCINvMs6_B20_INtB20_6ClientNtB24_11TokenStreamB48_E7expand1NvCs2h5czzbW9XJ_14asn1_rs_derive8DerAliasE00E0EuEB4G_, symObjAddr: 0x2DE0, symBinAddr: 0x14B90, symSize: 0x60 }
  - { offset: 0x2001F, size: 0x8, addend: 0x0, symName: __RINvNtCsieiGu2EXtoJ_4core3ptr13drop_in_placeINtNtB4_4cell10UnsafeCellNtNtNtCscKtU6MdFI5n_10proc_macro6bridge6client6BridgeEECs2h5czzbW9XJ_14asn1_rs_derive, symObjAddr: 0xD30, symBinAddr: 0x12AE0, symSize: 0x20 }
  - { offset: 0x2004E, size: 0x8, addend: 0x0, symName: __RINvNtCsieiGu2EXtoJ_4core3ptr13drop_in_placeINtNtB4_4cell7RefCellNtNtNtCscKtU6MdFI5n_10proc_macro6bridge6client6BridgeEECs2h5czzbW9XJ_14asn1_rs_derive, symObjAddr: 0xD50, symBinAddr: 0x12B00, symSize: 0x20 }
  - { offset: 0x2007D, size: 0x8, addend: 0x0, symName: __RINvNtCsieiGu2EXtoJ_4core3ptr13drop_in_placeINtNtB4_6option6OptionNtNtCsdGrGZaRBwMb_3syn4attr9AttributeEECs2h5czzbW9XJ_14asn1_rs_derive, symObjAddr: 0xD70, symBinAddr: 0x12B20, symSize: 0x40 }
  - { offset: 0x200AC, size: 0x8, addend: 0x0, symName: __RINvNtCsieiGu2EXtoJ_4core3ptr13drop_in_placeINtNtCslJiobkLta79_5alloc3vec3VecNtCsaKzlTDPUHDb_11proc_macro211TokenStreamEECs2h5czzbW9XJ_14asn1_rs_derive, symObjAddr: 0xDB0, symBinAddr: 0x12B60, symSize: 0x50 }
  - { offset: 0x200DB, size: 0x8, addend: 0x0, symName: __RINvNtCsieiGu2EXtoJ_4core3ptr13drop_in_placeINtNtCslJiobkLta79_5alloc3vec3VecNtNtCs2h5czzbW9XJ_14asn1_rs_derive9container9FieldInfoEEB1h_, symObjAddr: 0xE00, symBinAddr: 0x12BB0, symSize: 0x50 }
  - { offset: 0x2010A, size: 0x8, addend: 0x0, symName: __RINvNtCsieiGu2EXtoJ_4core3ptr13drop_in_placeINtNtCslJiobkLta79_5alloc3vec3VecNtNtCsdGrGZaRBwMb_3syn8generics14WherePredicateEECs2h5czzbW9XJ_14asn1_rs_derive, symObjAddr: 0xE50, symBinAddr: 0x12C00, symSize: 0x50 }
  - { offset: 0x20139, size: 0x8, addend: 0x0, symName: __RINvNtCsieiGu2EXtoJ_4core3ptr13drop_in_placeINtNtCslJiobkLta79_5alloc3vec3VecRNtNtCsdGrGZaRBwMb_3syn8generics13LifetimeParamEECs2h5czzbW9XJ_14asn1_rs_derive, symObjAddr: 0xEA0, symBinAddr: 0x12C50, symSize: 0x50 }
  - { offset: 0x20168, size: 0x8, addend: 0x0, symName: __RINvNtCsieiGu2EXtoJ_4core3ptr13drop_in_placeINtNtCslJiobkLta79_5alloc5boxed3BoxDNtNtB4_5error5ErrorNtNtB4_6marker4SyncNtB1B_4SendEL_EECs2h5czzbW9XJ_14asn1_rs_derive, symObjAddr: 0xEF0, symBinAddr: 0x12CA0, symSize: 0x70 }
  - { offset: 0x20197, size: 0x8, addend: 0x0, symName: __RINvNtCsieiGu2EXtoJ_4core3ptr13drop_in_placeINtNtCslJiobkLta79_5alloc5boxed3BoxNtNtNtCsHUR1vrdMJt_3std2io5error6CustomEECs2h5czzbW9XJ_14asn1_rs_derive, symObjAddr: 0xF60, symBinAddr: 0x12D10, symSize: 0x50 }
  - { offset: 0x201C6, size: 0x8, addend: 0x0, symName: __RINvNtCsieiGu2EXtoJ_4core3ptr13drop_in_placeINtNtCslJiobkLta79_5alloc7raw_vec6RawVecNtCsaKzlTDPUHDb_11proc_macro211TokenStreamEECs2h5czzbW9XJ_14asn1_rs_derive, symObjAddr: 0xFB0, symBinAddr: 0x12D60, symSize: 0x20 }
  - { offset: 0x201F5, size: 0x8, addend: 0x0, symName: __RINvNtCsieiGu2EXtoJ_4core3ptr13drop_in_placeINtNtCslJiobkLta79_5alloc7raw_vec6RawVecNtNtCs2h5czzbW9XJ_14asn1_rs_derive9container9FieldInfoEEB1o_, symObjAddr: 0xFD0, symBinAddr: 0x12D80, symSize: 0x20 }
  - { offset: 0x20224, size: 0x8, addend: 0x0, symName: __RINvNtCsieiGu2EXtoJ_4core3ptr13drop_in_placeINtNtCslJiobkLta79_5alloc7raw_vec6RawVecNtNtCsdGrGZaRBwMb_3syn8generics14WherePredicateEECs2h5czzbW9XJ_14asn1_rs_derive, symObjAddr: 0xFF0, symBinAddr: 0x12DA0, symSize: 0x20 }
  - { offset: 0x20253, size: 0x8, addend: 0x0, symName: __RINvNtCsieiGu2EXtoJ_4core3ptr13drop_in_placeINtNtCslJiobkLta79_5alloc7raw_vec6RawVecRNtNtCsdGrGZaRBwMb_3syn8generics13LifetimeParamEECs2h5czzbW9XJ_14asn1_rs_derive, symObjAddr: 0x1010, symBinAddr: 0x12DC0, symSize: 0x20 }
  - { offset: 0x20282, size: 0x8, addend: 0x0, symName: __RINvNtCsieiGu2EXtoJ_4core3ptr13drop_in_placeINtNtNtCsHUR1vrdMJt_3std2io5error9ErrorDataINtNtCslJiobkLta79_5alloc5boxed3BoxNtBJ_6CustomEEECs2h5czzbW9XJ_14asn1_rs_derive, symObjAddr: 0x1030, symBinAddr: 0x12DE0, symSize: 0x30 }
  - { offset: 0x202B1, size: 0x8, addend: 0x0, symName: __RINvNtCsieiGu2EXtoJ_4core3ptr13drop_in_placeINtNtNtNtB4_4iter8adapters3map3MapINtNtCsdGrGZaRBwMb_3syn10punctuated4IterNtNtB1j_4data5FieldENvYNtNtCs2h5czzbW9XJ_14asn1_rs_derive9container9FieldInfoINtNtB4_7convert4FromRB1S_E4fromEEB2j_, symObjAddr: 0x1060, symBinAddr: 0x12E10, symSize: 0x20 }
  - { offset: 0x202E0, size: 0x8, addend: 0x0, symName: __RINvNtCsieiGu2EXtoJ_4core3ptr13drop_in_placeNCINvMsi_NtCslJiobkLta79_5alloc3vecINtBP_3VecNtCsaKzlTDPUHDb_11proc_macro211TokenStreamE14extend_trustedINtNtNtNtB4_4iter8adapters3map3MapINtNtNtB4_5slice4iter4IterNtNtCs2h5czzbW9XJ_14asn1_rs_derive9container9FieldInfoENCNvB3m_27derive_ber_sequence_content0EE0EB3o_, symObjAddr: 0x1080, symBinAddr: 0x12E30, symSize: 0x20 }
  - { offset: 0x2030F, size: 0x8, addend: 0x0, symName: __RINvNtCsieiGu2EXtoJ_4core3ptr13drop_in_placeNCINvMsi_NtCslJiobkLta79_5alloc3vecINtBP_3VecNtCsaKzlTDPUHDb_11proc_macro211TokenStreamE14extend_trustedINtNtNtNtB4_4iter8adapters3map3MapINtNtNtB4_5slice4iter4IterNtNtCs2h5czzbW9XJ_14asn1_rs_derive9container9FieldInfoENCNvMs1_B3m_NtB3m_9Container20gen_checkconstraints0EE0EB3o_, symObjAddr: 0x10A0, symBinAddr: 0x12E50, symSize: 0x20 }
  - { offset: 0x2033E, size: 0x8, addend: 0x0, symName: __RINvNtCsieiGu2EXtoJ_4core3ptr13drop_in_placeNCINvMsi_NtCslJiobkLta79_5alloc3vecINtBP_3VecRNtCsaKzlTDPUHDb_11proc_macro25IdentE14extend_trustedINtNtNtNtB4_4iter8adapters3map3MapINtNtNtB4_5slice4iter4IterNtNtCs2h5czzbW9XJ_14asn1_rs_derive9container9FieldInfoENCNvMs1_B3g_NtB3g_9Container11gen_fromder0EE0EB3i_, symObjAddr: 0x10C0, symBinAddr: 0x12E70, symSize: 0x20 }
  - { offset: 0x2036D, size: 0x8, addend: 0x0, symName: __RINvNtCsieiGu2EXtoJ_4core3ptr13drop_in_placeNCINvMsi_NtCslJiobkLta79_5alloc3vecINtBP_3VecRNtCsaKzlTDPUHDb_11proc_macro25IdentE14extend_trustedINtNtNtNtB4_4iter8adapters3map3MapINtNtNtB4_5slice4iter4IterNtNtCs2h5czzbW9XJ_14asn1_rs_derive9container9FieldInfoENCNvMs1_B3g_NtB3g_9Container11gen_tryfrom0EE0EB3i_, symObjAddr: 0x10E0, symBinAddr: 0x12E90, symSize: 0x20 }
  - { offset: 0x2039C, size: 0x8, addend: 0x0, symName: __RINvNtCsieiGu2EXtoJ_4core3ptr13drop_in_placeNCINvNtNtNtB4_4iter8adapters3map8map_foldRNtNtCs2h5czzbW9XJ_14asn1_rs_derive9container9FieldInfoNtCsaKzlTDPUHDb_11proc_macro211TokenStreamuNCNvB1o_27derive_ber_sequence_content0NCINvNvNtNtNtBP_6traits8iterator8Iterator8for_each4callB2e_NCINvMsi_NtCslJiobkLta79_5alloc3vecINtB4D_3VecB2e_E14extend_trustedINtBL_3MapINtNtNtB4_5slice4iter4IterB1m_EB2V_EE0E0E0EB1q_, symObjAddr: 0x1100, symBinAddr: 0x12EB0, symSize: 0x20 }
  - { offset: 0x203CB, size: 0x8, addend: 0x0, symName: __RINvNtCsieiGu2EXtoJ_4core3ptr13drop_in_placeNCINvNtNtNtB4_4iter8adapters3map8map_foldRNtNtCs2h5czzbW9XJ_14asn1_rs_derive9container9FieldInfoNtCsaKzlTDPUHDb_11proc_macro211TokenStreamuNCNvMs1_B1o_NtB1o_9Container20gen_checkconstraints0NCINvNvNtNtNtBP_6traits8iterator8Iterator8for_each4callB2e_NCINvMsi_NtCslJiobkLta79_5alloc3vecINtB4Q_3VecB2e_E14extend_trustedINtBL_3MapINtNtNtB4_5slice4iter4IterB1m_EB2V_EE0E0E0EB1q_, symObjAddr: 0x1120, symBinAddr: 0x12ED0, symSize: 0x20 }
  - { offset: 0x203FA, size: 0x8, addend: 0x0, symName: __RINvNtCsieiGu2EXtoJ_4core3ptr13drop_in_placeNCINvNtNtNtB4_4iter8adapters3map8map_foldRNtNtCs2h5czzbW9XJ_14asn1_rs_derive9container9FieldInfoRNtCsaKzlTDPUHDb_11proc_macro25IdentuNCNvMs1_B1o_NtB1o_9Container11gen_fromder0NCINvNvNtNtNtBP_6traits8iterator8Iterator8for_each4callB2e_NCINvMsi_NtCslJiobkLta79_5alloc3vecINtB4B_3VecB2e_E14extend_trustedINtBL_3MapINtNtNtB4_5slice4iter4IterB1m_EB2P_EE0E0E0EB1q_, symObjAddr: 0x1140, symBinAddr: 0x12EF0, symSize: 0x20 }
  - { offset: 0x20429, size: 0x8, addend: 0x0, symName: __RINvNtCsieiGu2EXtoJ_4core3ptr13drop_in_placeNCINvNtNtNtB4_4iter8adapters3map8map_foldRNtNtCs2h5czzbW9XJ_14asn1_rs_derive9container9FieldInfoRNtCsaKzlTDPUHDb_11proc_macro25IdentuNCNvMs1_B1o_NtB1o_9Container11gen_tryfrom0NCINvNvNtNtNtBP_6traits8iterator8Iterator8for_each4callB2e_NCINvMsi_NtCslJiobkLta79_5alloc3vecINtB4B_3VecB2e_E14extend_trustedINtBL_3MapINtNtNtB4_5slice4iter4IterB1m_EB2P_EE0E0E0EB1q_, symObjAddr: 0x1160, symBinAddr: 0x12F10, symSize: 0x20 }
  - { offset: 0x20458, size: 0x8, addend: 0x0, symName: __RINvNtCsieiGu2EXtoJ_4core3ptr13drop_in_placeNCINvNvNtNtNtNtB4_4iter6traits8iterator8Iterator8for_each4callNtCsaKzlTDPUHDb_11proc_macro211TokenStreamNCINvMsi_NtCslJiobkLta79_5alloc3vecINtB2v_3VecB1G_E14extend_trustedINtNtNtBT_8adapters3map3MapINtNtNtB4_5slice4iter4IterNtNtCs2h5czzbW9XJ_14asn1_rs_derive9container9FieldInfoENCNvB4k_27derive_ber_sequence_content0EE0E0EB4m_, symObjAddr: 0x1180, symBinAddr: 0x12F30, symSize: 0x20 }
  - { offset: 0x20487, size: 0x8, addend: 0x0, symName: __RINvNtCsieiGu2EXtoJ_4core3ptr13drop_in_placeNCINvNvNtNtNtNtB4_4iter6traits8iterator8Iterator8for_each4callNtCsaKzlTDPUHDb_11proc_macro211TokenStreamNCINvMsi_NtCslJiobkLta79_5alloc3vecINtB2v_3VecB1G_E14extend_trustedINtNtNtBT_8adapters3map3MapINtNtNtB4_5slice4iter4IterNtNtCs2h5czzbW9XJ_14asn1_rs_derive9container9FieldInfoENCNvMs1_B4k_NtB4k_9Container20gen_checkconstraints0EE0E0EB4m_, symObjAddr: 0x11A0, symBinAddr: 0x12F50, symSize: 0x20 }
  - { offset: 0x204B6, size: 0x8, addend: 0x0, symName: __RINvNtCsieiGu2EXtoJ_4core3ptr13drop_in_placeNCINvNvNtNtNtNtB4_4iter6traits8iterator8Iterator8for_each4callRNtCsaKzlTDPUHDb_11proc_macro25IdentNCINvMsi_NtCslJiobkLta79_5alloc3vecINtB2p_3VecB1G_E14extend_trustedINtNtNtBT_8adapters3map3MapINtNtNtB4_5slice4iter4IterNtNtCs2h5czzbW9XJ_14asn1_rs_derive9container9FieldInfoENCNvMs1_B4e_NtB4e_9Container11gen_fromder0EE0E0EB4g_, symObjAddr: 0x11C0, symBinAddr: 0x12F70, symSize: 0x20 }
  - { offset: 0x204E5, size: 0x8, addend: 0x0, symName: __RINvNtCsieiGu2EXtoJ_4core3ptr13drop_in_placeNCINvNvNtNtNtNtB4_4iter6traits8iterator8Iterator8for_each4callRNtCsaKzlTDPUHDb_11proc_macro25IdentNCINvMsi_NtCslJiobkLta79_5alloc3vecINtB2p_3VecB1G_E14extend_trustedINtNtNtBT_8adapters3map3MapINtNtNtB4_5slice4iter4IterNtNtCs2h5czzbW9XJ_14asn1_rs_derive9container9FieldInfoENCNvMs1_B4e_NtB4e_9Container11gen_tryfrom0EE0E0EB4g_, symObjAddr: 0x11E0, symBinAddr: 0x12F90, symSize: 0x20 }
  - { offset: 0x20514, size: 0x8, addend: 0x0, symName: __RINvNtCsieiGu2EXtoJ_4core3ptr13drop_in_placeNCNCINvNtNtCscKtU6MdFI5n_10proc_macro6bridge6client10run_clientNtBN_11TokenStreamINtNtB4_6option6OptionB1H_ENCNCINvMs6_BN_INtBN_6ClientNtBR_11TokenStreamB2R_E7expand1NvCs2h5czzbW9XJ_14asn1_rs_derive11BerSequenceE00E00EB3o_, symObjAddr: 0x1200, symBinAddr: 0x12FB0, symSize: 0x20 }
  - { offset: 0x20543, size: 0x8, addend: 0x0, symName: __RINvNtCsieiGu2EXtoJ_4core3ptr13drop_in_placeNCNCINvNtNtCscKtU6MdFI5n_10proc_macro6bridge6client10run_clientNtBN_11TokenStreamINtNtB4_6option6OptionB1H_ENCNCINvMs6_BN_INtBN_6ClientNtBR_11TokenStreamB2R_E7expand1NvCs2h5czzbW9XJ_14asn1_rs_derive11DerSequenceE00E00EB3o_, symObjAddr: 0x1220, symBinAddr: 0x12FD0, symSize: 0x20 }
  - { offset: 0x20572, size: 0x8, addend: 0x0, symName: __RINvNtCsieiGu2EXtoJ_4core3ptr13drop_in_placeNCNCINvNtNtCscKtU6MdFI5n_10proc_macro6bridge6client10run_clientNtBN_11TokenStreamINtNtB4_6option6OptionB1H_ENCNCINvMs6_BN_INtBN_6ClientNtBR_11TokenStreamB2R_E7expand1NvCs2h5czzbW9XJ_14asn1_rs_derive6BerSetE00E00EB3o_, symObjAddr: 0x1240, symBinAddr: 0x12FF0, symSize: 0x20 }
  - { offset: 0x205A1, size: 0x8, addend: 0x0, symName: __RINvNtCsieiGu2EXtoJ_4core3ptr13drop_in_placeNCNCINvNtNtCscKtU6MdFI5n_10proc_macro6bridge6client10run_clientNtBN_11TokenStreamINtNtB4_6option6OptionB1H_ENCNCINvMs6_BN_INtBN_6ClientNtBR_11TokenStreamB2R_E7expand1NvCs2h5czzbW9XJ_14asn1_rs_derive6DerSetE00E00EB3o_, symObjAddr: 0x1260, symBinAddr: 0x13010, symSize: 0x20 }
  - { offset: 0x205D0, size: 0x8, addend: 0x0, symName: __RINvNtCsieiGu2EXtoJ_4core3ptr13drop_in_placeNCNCINvNtNtCscKtU6MdFI5n_10proc_macro6bridge6client10run_clientNtBN_11TokenStreamINtNtB4_6option6OptionB1H_ENCNCINvMs6_BN_INtBN_6ClientNtBR_11TokenStreamB2R_E7expand1NvCs2h5czzbW9XJ_14asn1_rs_derive8BerAliasE00E00EB3o_, symObjAddr: 0x1280, symBinAddr: 0x13030, symSize: 0x20 }
  - { offset: 0x205FF, size: 0x8, addend: 0x0, symName: __RINvNtCsieiGu2EXtoJ_4core3ptr13drop_in_placeNCNCINvNtNtCscKtU6MdFI5n_10proc_macro6bridge6client10run_clientNtBN_11TokenStreamINtNtB4_6option6OptionB1H_ENCNCINvMs6_BN_INtBN_6ClientNtBR_11TokenStreamB2R_E7expand1NvCs2h5czzbW9XJ_14asn1_rs_derive8DerAliasE00E00EB3o_, symObjAddr: 0x12A0, symBinAddr: 0x13050, symSize: 0x20 }
  - { offset: 0x2062E, size: 0x8, addend: 0x0, symName: __RINvNtCsieiGu2EXtoJ_4core3ptr13drop_in_placeNtCs4L8YLU89NU9_12synstructure9StructureECs2h5czzbW9XJ_14asn1_rs_derive, symObjAddr: 0x12C0, symBinAddr: 0x13070, symSize: 0x90 }
  - { offset: 0x2065D, size: 0x8, addend: 0x0, symName: __RINvNtCsieiGu2EXtoJ_4core3ptr13drop_in_placeNtNtCs2h5czzbW9XJ_14asn1_rs_derive9container9ContainerEBK_, symObjAddr: 0x1350, symBinAddr: 0x13100, symSize: 0x90 }
  - { offset: 0x2068C, size: 0x8, addend: 0x0, symName: __RINvNtCsieiGu2EXtoJ_4core3ptr13drop_in_placeNtNtCs2h5czzbW9XJ_14asn1_rs_derive9container9FieldInfoEBK_, symObjAddr: 0x13E0, symBinAddr: 0x13190, symSize: 0xC0 }
  - { offset: 0x206BB, size: 0x8, addend: 0x0, symName: __RINvNtCsieiGu2EXtoJ_4core3ptr13drop_in_placeNtNtCsdGrGZaRBwMb_3syn6derive11DeriveInputECs2h5czzbW9XJ_14asn1_rs_derive, symObjAddr: 0x14A0, symBinAddr: 0x13250, symSize: 0xF0 }
  - { offset: 0x206EA, size: 0x8, addend: 0x0, symName: __RINvNtCsieiGu2EXtoJ_4core3ptr13drop_in_placeNtNtCsdGrGZaRBwMb_3syn8generics9LifetimesECs2h5czzbW9XJ_14asn1_rs_derive, symObjAddr: 0x1590, symBinAddr: 0x13340, symSize: 0x20 }
  - { offset: 0x20719, size: 0x8, addend: 0x0, symName: __RINvNtCsieiGu2EXtoJ_4core3ptr13drop_in_placeNtNtNtCsHUR1vrdMJt_3std2io5error5ErrorECs2h5czzbW9XJ_14asn1_rs_derive, symObjAddr: 0x15B0, symBinAddr: 0x13360, symSize: 0x20 }
  - { offset: 0x20748, size: 0x8, addend: 0x0, symName: __RINvNtCsieiGu2EXtoJ_4core3ptr13drop_in_placeNtNtNtCsHUR1vrdMJt_3std2io5error6CustomECs2h5czzbW9XJ_14asn1_rs_derive, symObjAddr: 0x15D0, symBinAddr: 0x13380, symSize: 0x20 }
  - { offset: 0x20777, size: 0x8, addend: 0x0, symName: __RINvNtCsieiGu2EXtoJ_4core3ptr13drop_in_placeNtNtNtCscKtU6MdFI5n_10proc_macro6bridge3rpc12PanicMessageECs2h5czzbW9XJ_14asn1_rs_derive, symObjAddr: 0x15F0, symBinAddr: 0x133A0, symSize: 0x50 }
  - { offset: 0x207A6, size: 0x8, addend: 0x0, symName: __RINvNtCsieiGu2EXtoJ_4core3ptr13drop_in_placeNtNtNtCscKtU6MdFI5n_10proc_macro6bridge6buffer6BufferECs2h5czzbW9XJ_14asn1_rs_derive, symObjAddr: 0x1640, symBinAddr: 0x133F0, symSize: 0x20 }
  - { offset: 0x207D5, size: 0x8, addend: 0x0, symName: __RINvNtCsieiGu2EXtoJ_4core3ptr13drop_in_placeNtNtNtCscKtU6MdFI5n_10proc_macro6bridge6client6BridgeECs2h5czzbW9XJ_14asn1_rs_derive, symObjAddr: 0x1660, symBinAddr: 0x13410, symSize: 0x20 }
  - { offset: 0x20804, size: 0x8, addend: 0x0, symName: __RINvNtCsieiGu2EXtoJ_4core3ptr13drop_in_placeNtNtNtNtCsHUR1vrdMJt_3std2io5error14repr_bitpacked4ReprECs2h5czzbW9XJ_14asn1_rs_derive, symObjAddr: 0x1680, symBinAddr: 0x13430, symSize: 0x20 }
  - { offset: 0x20833, size: 0x8, addend: 0x0, symName: __RINvNtCsieiGu2EXtoJ_4core3ptr13drop_in_placeNtNvNtNtNtCscKtU6MdFI5n_10proc_macro6bridge6client5state3set13RestoreOnDropECs2h5czzbW9XJ_14asn1_rs_derive, symObjAddr: 0x16A0, symBinAddr: 0x13450, symSize: 0x20 }
  - { offset: 0x20862, size: 0x8, addend: 0x0, symName: __RINvNtCsieiGu2EXtoJ_4core3ptr13drop_in_placeSNtCsaKzlTDPUHDb_11proc_macro211TokenStreamECs2h5czzbW9XJ_14asn1_rs_derive, symObjAddr: 0x16C0, symBinAddr: 0x13470, symSize: 0xA0 }
  - { offset: 0x20891, size: 0x8, addend: 0x0, symName: __RINvNtCsieiGu2EXtoJ_4core3ptr13drop_in_placeSNtNtCs2h5czzbW9XJ_14asn1_rs_derive9container9FieldInfoEBL_, symObjAddr: 0x1760, symBinAddr: 0x13510, symSize: 0xA0 }
  - { offset: 0x208C0, size: 0x8, addend: 0x0, symName: __RINvNtCsieiGu2EXtoJ_4core3ptr13drop_in_placeSNtNtCsdGrGZaRBwMb_3syn8generics14WherePredicateECs2h5czzbW9XJ_14asn1_rs_derive, symObjAddr: 0x1800, symBinAddr: 0x135B0, symSize: 0xA0 }
  - { offset: 0x20B79, size: 0x8, addend: 0x0, symName: __RNvNvNtCsieiGu2EXtoJ_4core3ptr19copy_nonoverlapping18precondition_checkCs2h5czzbW9XJ_14asn1_rs_derive, symObjAddr: 0x5FA0, symBinAddr: 0x17D40, symSize: 0x4B0 }
  - { offset: 0x2417C, size: 0x8, addend: 0x0, symName: __RINvMNtCsieiGu2EXtoJ_4core3stre5parsetECs2h5czzbW9XJ_14asn1_rs_derive, symObjAddr: 0x8F0, symBinAddr: 0x126E0, symSize: 0x30 }
  - { offset: 0x24588, size: 0x8, addend: 0x0, symName: __RNvYNCNkNvNtNtNtCscKtU6MdFI5n_10proc_macro6bridge6client5state12BRIDGE_STATE0s_0INtNtNtCsieiGu2EXtoJ_4core3ops8function6FnOnceTINtNtB1n_6option6OptionQIB22_INtNtB1n_4cell4CellPuEEEEE9call_onceCs2h5czzbW9XJ_14asn1_rs_derive, symObjAddr: 0x6ED0, symBinAddr: 0x18C70, symSize: 0x40 }
  - { offset: 0x245CC, size: 0x8, addend: 0x0, symName: __RNvYNvNtCs2h5czzbW9XJ_14asn1_rs_derive9container14parse_tag_argsINtNtNtCsieiGu2EXtoJ_4core3ops8function6FnOnceTRNtNtCsdGrGZaRBwMb_3syn5parse11ParseBufferEE9call_onceB6_, symObjAddr: 0x6FD0, symBinAddr: 0x18D70, symSize: 0x30 }
  - { offset: 0x24610, size: 0x8, addend: 0x0, symName: __RNvYNvYNtNtCsdGrGZaRBwMb_3syn4expr4ExprNtNtB9_5parse5Parse5parseINtNtNtCsieiGu2EXtoJ_4core3ops8function6FnOnceTRNtBD_11ParseBufferEE9call_onceCs2h5czzbW9XJ_14asn1_rs_derive, symObjAddr: 0x7030, symBinAddr: 0x18DD0, symSize: 0x30 }
  - { offset: 0x24654, size: 0x8, addend: 0x0, symName: __RNvYNvYNtNtCsdGrGZaRBwMb_3syn6derive11DeriveInputNtNtB9_5parse5Parse5parseINtNtNtCsieiGu2EXtoJ_4core3ops8function6FnOnceTRNtBN_11ParseBufferEE9call_onceCs2h5czzbW9XJ_14asn1_rs_derive, symObjAddr: 0x7060, symBinAddr: 0x18E00, symSize: 0x30 }
  - { offset: 0x24698, size: 0x8, addend: 0x0, symName: __RNvYNvYNtNtCsdGrGZaRBwMb_3syn8generics14WherePredicateNtNtB9_11parse_quote10ParseQuote5parseINtNtNtCsieiGu2EXtoJ_4core3ops8function6FnOnceTRNtNtB9_5parse11ParseBufferEE9call_onceCs2h5czzbW9XJ_14asn1_rs_derive, symObjAddr: 0x7090, symBinAddr: 0x18E30, symSize: 0x30 }
  - { offset: 0x2472A, size: 0x8, addend: 0x0, symName: __RNvYNvCs2h5czzbW9XJ_14asn1_rs_derive11BerSequenceINtNtNtCsieiGu2EXtoJ_4core3ops8function2FnTNtCscKtU6MdFI5n_10proc_macro11TokenStreamEE4callB4_, symObjAddr: 0x6F10, symBinAddr: 0x18CB0, symSize: 0x20 }
  - { offset: 0x2476E, size: 0x8, addend: 0x0, symName: __RNvYNvCs2h5czzbW9XJ_14asn1_rs_derive11DerSequenceINtNtNtCsieiGu2EXtoJ_4core3ops8function2FnTNtCscKtU6MdFI5n_10proc_macro11TokenStreamEE4callB4_, symObjAddr: 0x6F30, symBinAddr: 0x18CD0, symSize: 0x20 }
  - { offset: 0x247B2, size: 0x8, addend: 0x0, symName: __RNvYNvCs2h5czzbW9XJ_14asn1_rs_derive6BerSetINtNtNtCsieiGu2EXtoJ_4core3ops8function2FnTNtCscKtU6MdFI5n_10proc_macro11TokenStreamEE4callB4_, symObjAddr: 0x6F50, symBinAddr: 0x18CF0, symSize: 0x20 }
  - { offset: 0x247F6, size: 0x8, addend: 0x0, symName: __RNvYNvCs2h5czzbW9XJ_14asn1_rs_derive6DerSetINtNtNtCsieiGu2EXtoJ_4core3ops8function2FnTNtCscKtU6MdFI5n_10proc_macro11TokenStreamEE4callB4_, symObjAddr: 0x6F70, symBinAddr: 0x18D10, symSize: 0x20 }
  - { offset: 0x2483A, size: 0x8, addend: 0x0, symName: __RNvYNvCs2h5czzbW9XJ_14asn1_rs_derive8BerAliasINtNtNtCsieiGu2EXtoJ_4core3ops8function2FnTNtCscKtU6MdFI5n_10proc_macro11TokenStreamEE4callB4_, symObjAddr: 0x6F90, symBinAddr: 0x18D30, symSize: 0x20 }
  - { offset: 0x2487E, size: 0x8, addend: 0x0, symName: __RNvYNvCs2h5czzbW9XJ_14asn1_rs_derive8DerAliasINtNtNtCsieiGu2EXtoJ_4core3ops8function2FnTNtCscKtU6MdFI5n_10proc_macro11TokenStreamEE4callB4_, symObjAddr: 0x6FB0, symBinAddr: 0x18D50, symSize: 0x20 }
  - { offset: 0x248C8, size: 0x8, addend: 0x0, symName: __RNvYNvYNtNtCs2h5czzbW9XJ_14asn1_rs_derive9container9FieldInfoINtNtCsieiGu2EXtoJ_4core7convert4FromRNtNtCsdGrGZaRBwMb_3syn4data5FieldE4fromINtNtNtB12_3ops8function5FnMutTB1y_EE8call_mutB9_, symObjAddr: 0x7000, symBinAddr: 0x18DA0, symSize: 0x30 }
  - { offset: 0x24980, size: 0x8, addend: 0x0, symName: __RINvNtCsieiGu2EXtoJ_4core9panicking13panic_displayNtNtCsdGrGZaRBwMb_3syn5error5ErrorECs2h5czzbW9XJ_14asn1_rs_derive, symObjAddr: 0x18A0, symBinAddr: 0x13650, symSize: 0xA0 }
  - { offset: 0x24FB3, size: 0x8, addend: 0x0, symName: __RNCINvNtNtNtCsieiGu2EXtoJ_4core4iter8adapters3map8map_foldRNtNtCs2h5czzbW9XJ_14asn1_rs_derive9container9FieldInfoNtCsaKzlTDPUHDb_11proc_macro211TokenStreamuNCNvBX_27derive_ber_sequence_content0NCINvNvNtNtNtB8_6traits8iterator8Iterator8for_each4callB1N_NCINvMsi_NtCslJiobkLta79_5alloc3vecINtB4b_3VecB1N_E14extend_trustedINtB4_3MapINtNtNtBa_5slice4iter4IterBV_EB2u_EE0E0E0BZ_, symObjAddr: 0x4CB0, symBinAddr: 0x16A60, symSize: 0x90 }
  - { offset: 0x25038, size: 0x8, addend: 0x0, symName: __RNCINvNtNtNtCsieiGu2EXtoJ_4core4iter8adapters3map8map_foldRNtNtCs2h5czzbW9XJ_14asn1_rs_derive9container9FieldInfoNtCsaKzlTDPUHDb_11proc_macro211TokenStreamuNCNvMs1_BX_NtBX_9Container20gen_checkconstraints0NCINvNvNtNtNtB8_6traits8iterator8Iterator8for_each4callB1N_NCINvMsi_NtCslJiobkLta79_5alloc3vecINtB4n_3VecB1N_E14extend_trustedINtB4_3MapINtNtNtBa_5slice4iter4IterBV_EB2u_EE0E0E0BZ_, symObjAddr: 0x4D40, symBinAddr: 0x16AF0, symSize: 0x90 }
  - { offset: 0x250BD, size: 0x8, addend: 0x0, symName: __RNCINvNtNtNtCsieiGu2EXtoJ_4core4iter8adapters3map8map_foldRNtNtCs2h5czzbW9XJ_14asn1_rs_derive9container9FieldInfoRNtCsaKzlTDPUHDb_11proc_macro25IdentuNCNvMs1_BX_NtBX_9Container11gen_fromder0NCINvNvNtNtNtB8_6traits8iterator8Iterator8for_each4callB1N_NCINvMsi_NtCslJiobkLta79_5alloc3vecINtB48_3VecB1N_E14extend_trustedINtB4_3MapINtNtNtBa_5slice4iter4IterBV_EB2o_EE0E0E0BZ_, symObjAddr: 0x4DD0, symBinAddr: 0x16B80, symSize: 0x70 }
  - { offset: 0x25142, size: 0x8, addend: 0x0, symName: __RNCINvNtNtNtCsieiGu2EXtoJ_4core4iter8adapters3map8map_foldRNtNtCs2h5czzbW9XJ_14asn1_rs_derive9container9FieldInfoRNtCsaKzlTDPUHDb_11proc_macro25IdentuNCNvMs1_BX_NtBX_9Container11gen_tryfrom0NCINvNvNtNtNtB8_6traits8iterator8Iterator8for_each4callB1N_NCINvMsi_NtCslJiobkLta79_5alloc3vecINtB48_3VecB1N_E14extend_trustedINtB4_3MapINtNtNtBa_5slice4iter4IterBV_EB2o_EE0E0E0BZ_, symObjAddr: 0x4E40, symBinAddr: 0x16BF0, symSize: 0x70 }
  - { offset: 0x251CD, size: 0x8, addend: 0x0, symName: __RINvXs0_NtNtNtCsieiGu2EXtoJ_4core4iter8adapters3mapINtB6_3MapINtNtNtBc_5slice4iter4IterNtNtCs2h5czzbW9XJ_14asn1_rs_derive9container9FieldInfoENCNvB1p_27derive_ber_sequence_content0ENtNtNtBa_6traits8iterator8Iterator4folduNCINvNvB2T_8for_each4callNtCsaKzlTDPUHDb_11proc_macro211TokenStreamNCINvMsi_NtCslJiobkLta79_5alloc3vecINtB4L_3VecB3W_E14extend_trustedBN_E0E0EB1r_, symObjAddr: 0x2E40, symBinAddr: 0x14BF0, symSize: 0x60 }
  - { offset: 0x25266, size: 0x8, addend: 0x0, symName: __RINvXs0_NtNtNtCsieiGu2EXtoJ_4core4iter8adapters3mapINtB6_3MapINtNtNtBc_5slice4iter4IterNtNtCs2h5czzbW9XJ_14asn1_rs_derive9container9FieldInfoENCNvMs1_B1p_NtB1p_9Container11gen_fromder0ENtNtNtBa_6traits8iterator8Iterator4folduNCINvNvB2X_8for_each4callRNtCsaKzlTDPUHDb_11proc_macro25IdentNCINvMsi_NtCslJiobkLta79_5alloc3vecINtB4J_3VecB40_E14extend_trustedBN_E0E0EB1r_, symObjAddr: 0x2EA0, symBinAddr: 0x14C50, symSize: 0x40 }
  - { offset: 0x252FD, size: 0x8, addend: 0x0, symName: __RINvXs0_NtNtNtCsieiGu2EXtoJ_4core4iter8adapters3mapINtB6_3MapINtNtNtBc_5slice4iter4IterNtNtCs2h5czzbW9XJ_14asn1_rs_derive9container9FieldInfoENCNvMs1_B1p_NtB1p_9Container11gen_tryfrom0ENtNtNtBa_6traits8iterator8Iterator4folduNCINvNvB2X_8for_each4callRNtCsaKzlTDPUHDb_11proc_macro25IdentNCINvMsi_NtCslJiobkLta79_5alloc3vecINtB4J_3VecB40_E14extend_trustedBN_E0E0EB1r_, symObjAddr: 0x2EE0, symBinAddr: 0x14C90, symSize: 0x40 }
  - { offset: 0x25394, size: 0x8, addend: 0x0, symName: __RINvXs0_NtNtNtCsieiGu2EXtoJ_4core4iter8adapters3mapINtB6_3MapINtNtNtBc_5slice4iter4IterNtNtCs2h5czzbW9XJ_14asn1_rs_derive9container9FieldInfoENCNvMs1_B1p_NtB1p_9Container20gen_checkconstraints0ENtNtNtBa_6traits8iterator8Iterator4folduNCINvNvB36_8for_each4callNtCsaKzlTDPUHDb_11proc_macro211TokenStreamNCINvMsi_NtCslJiobkLta79_5alloc3vecINtB4Y_3VecB49_E14extend_trustedBN_E0E0EB1r_, symObjAddr: 0x2F20, symBinAddr: 0x14CD0, symSize: 0x40 }
  - { offset: 0x2542B, size: 0x8, addend: 0x0, symName: __RNvXs0_NtNtNtCsieiGu2EXtoJ_4core4iter8adapters3mapINtB5_3MapINtNtCsdGrGZaRBwMb_3syn10punctuated4IterNtNtB11_4data5FieldENvYNtNtCs2h5czzbW9XJ_14asn1_rs_derive9container9FieldInfoINtNtBb_7convert4FromRB1A_E4fromENtNtNtB9_6traits8iterator8Iterator4nextB21_, symObjAddr: 0x6560, symBinAddr: 0x18300, symSize: 0xD0 }
  - { offset: 0x254D8, size: 0x8, addend: 0x0, symName: __RNvXs0_NtNtNtCsieiGu2EXtoJ_4core4iter8adapters3mapINtB5_3MapINtNtCsdGrGZaRBwMb_3syn10punctuated4IterNtNtB11_4data5FieldENvYNtNtCs2h5czzbW9XJ_14asn1_rs_derive9container9FieldInfoINtNtBb_7convert4FromRB1A_E4fromENtNtNtB9_6traits8iterator8Iterator9size_hintB21_, symObjAddr: 0x6630, symBinAddr: 0x183D0, symSize: 0x30 }
  - { offset: 0x2551F, size: 0x8, addend: 0x0, symName: __RNvXs0_NtNtNtCsieiGu2EXtoJ_4core4iter8adapters3mapINtB5_3MapINtNtNtBb_5slice4iter4IterNtNtCs2h5czzbW9XJ_14asn1_rs_derive9container9FieldInfoENCNvB1o_27derive_ber_sequence_content0ENtNtNtB9_6traits8iterator8Iterator9size_hintB1q_, symObjAddr: 0x6660, symBinAddr: 0x18400, symSize: 0x30 }
  - { offset: 0x25566, size: 0x8, addend: 0x0, symName: __RNvXs0_NtNtNtCsieiGu2EXtoJ_4core4iter8adapters3mapINtB5_3MapINtNtNtBb_5slice4iter4IterNtNtCs2h5czzbW9XJ_14asn1_rs_derive9container9FieldInfoENCNvMs1_B1o_NtB1o_9Container11gen_fromder0ENtNtNtB9_6traits8iterator8Iterator9size_hintB1q_, symObjAddr: 0x6690, symBinAddr: 0x18430, symSize: 0x30 }
  - { offset: 0x255AD, size: 0x8, addend: 0x0, symName: __RNvXs0_NtNtNtCsieiGu2EXtoJ_4core4iter8adapters3mapINtB5_3MapINtNtNtBb_5slice4iter4IterNtNtCs2h5czzbW9XJ_14asn1_rs_derive9container9FieldInfoENCNvMs1_B1o_NtB1o_9Container11gen_tryfrom0ENtNtNtB9_6traits8iterator8Iterator9size_hintB1q_, symObjAddr: 0x66C0, symBinAddr: 0x18460, symSize: 0x30 }
  - { offset: 0x255F4, size: 0x8, addend: 0x0, symName: __RNvXs0_NtNtNtCsieiGu2EXtoJ_4core4iter8adapters3mapINtB5_3MapINtNtNtBb_5slice4iter4IterNtNtCs2h5czzbW9XJ_14asn1_rs_derive9container9FieldInfoENCNvMs1_B1o_NtB1o_9Container20gen_checkconstraints0ENtNtNtB9_6traits8iterator8Iterator9size_hintB1q_, symObjAddr: 0x66F0, symBinAddr: 0x18490, symSize: 0x30 }
  - { offset: 0x25960, size: 0x8, addend: 0x0, symName: __RINvYINtNtNtNtCsieiGu2EXtoJ_4core4iter8adapters3map3MapINtNtCsdGrGZaRBwMb_3syn10punctuated4IterNtNtBW_4data5FieldENvYNtNtCs2h5czzbW9XJ_14asn1_rs_derive9container9FieldInfoINtNtBc_7convert4FromRB1v_E4fromENtNtNtBa_6traits8iterator8Iterator7collectINtNtCslJiobkLta79_5alloc3vec3VecB1R_EEB1V_, symObjAddr: 0x2F60, symBinAddr: 0x14D10, symSize: 0x60 }
  - { offset: 0x259F5, size: 0x8, addend: 0x0, symName: __RINvYINtNtNtNtCsieiGu2EXtoJ_4core4iter8adapters3map3MapINtNtNtBc_5slice4iter4IterNtNtCs2h5czzbW9XJ_14asn1_rs_derive9container9FieldInfoENCNvB1j_27derive_ber_sequence_content0ENtNtNtBa_6traits8iterator8Iterator7collectINtNtCslJiobkLta79_5alloc3vec3VecNtCsaKzlTDPUHDb_11proc_macro211TokenStreamEEB1l_, symObjAddr: 0x2FC0, symBinAddr: 0x14D70, symSize: 0x70 }
  - { offset: 0x25A8B, size: 0x8, addend: 0x0, symName: __RINvYINtNtNtNtCsieiGu2EXtoJ_4core4iter8adapters3map3MapINtNtNtBc_5slice4iter4IterNtNtCs2h5czzbW9XJ_14asn1_rs_derive9container9FieldInfoENCNvB1j_27derive_ber_sequence_content0ENtNtNtBa_6traits8iterator8Iterator8for_eachNCINvMsi_NtCslJiobkLta79_5alloc3vecINtB3D_3VecNtCsaKzlTDPUHDb_11proc_macro211TokenStreamE14extend_trustedB3_E0EB1l_, symObjAddr: 0x3030, symBinAddr: 0x14DE0, symSize: 0x30 }
  - { offset: 0x25AF6, size: 0x8, addend: 0x0, symName: __RINvYINtNtNtNtCsieiGu2EXtoJ_4core4iter8adapters3map3MapINtNtNtBc_5slice4iter4IterNtNtCs2h5czzbW9XJ_14asn1_rs_derive9container9FieldInfoENCNvMs1_B1j_NtB1j_9Container11gen_fromder0ENtNtNtBa_6traits8iterator8Iterator7collectINtNtCslJiobkLta79_5alloc3vec3VecRNtCsaKzlTDPUHDb_11proc_macro25IdentEEB1l_, symObjAddr: 0x3060, symBinAddr: 0x14E10, symSize: 0x60 }
  - { offset: 0x25B8B, size: 0x8, addend: 0x0, symName: __RINvYINtNtNtNtCsieiGu2EXtoJ_4core4iter8adapters3map3MapINtNtNtBc_5slice4iter4IterNtNtCs2h5czzbW9XJ_14asn1_rs_derive9container9FieldInfoENCNvMs1_B1j_NtB1j_9Container11gen_fromder0ENtNtNtBa_6traits8iterator8Iterator8for_eachNCINvMsi_NtCslJiobkLta79_5alloc3vecINtB3H_3VecRNtCsaKzlTDPUHDb_11proc_macro25IdentE14extend_trustedB3_E0EB1l_, symObjAddr: 0x30C0, symBinAddr: 0x14E70, symSize: 0x40 }
  - { offset: 0x25BF5, size: 0x8, addend: 0x0, symName: __RINvYINtNtNtNtCsieiGu2EXtoJ_4core4iter8adapters3map3MapINtNtNtBc_5slice4iter4IterNtNtCs2h5czzbW9XJ_14asn1_rs_derive9container9FieldInfoENCNvMs1_B1j_NtB1j_9Container11gen_tryfrom0ENtNtNtBa_6traits8iterator8Iterator7collectINtNtCslJiobkLta79_5alloc3vec3VecRNtCsaKzlTDPUHDb_11proc_macro25IdentEEB1l_, symObjAddr: 0x3100, symBinAddr: 0x14EB0, symSize: 0x60 }
  - { offset: 0x25C8A, size: 0x8, addend: 0x0, symName: __RINvYINtNtNtNtCsieiGu2EXtoJ_4core4iter8adapters3map3MapINtNtNtBc_5slice4iter4IterNtNtCs2h5czzbW9XJ_14asn1_rs_derive9container9FieldInfoENCNvMs1_B1j_NtB1j_9Container11gen_tryfrom0ENtNtNtBa_6traits8iterator8Iterator8for_eachNCINvMsi_NtCslJiobkLta79_5alloc3vecINtB3H_3VecRNtCsaKzlTDPUHDb_11proc_macro25IdentE14extend_trustedB3_E0EB1l_, symObjAddr: 0x3160, symBinAddr: 0x14F10, symSize: 0x40 }
  - { offset: 0x25CF4, size: 0x8, addend: 0x0, symName: __RINvYINtNtNtNtCsieiGu2EXtoJ_4core4iter8adapters3map3MapINtNtNtBc_5slice4iter4IterNtNtCs2h5czzbW9XJ_14asn1_rs_derive9container9FieldInfoENCNvMs1_B1j_NtB1j_9Container20gen_checkconstraints0ENtNtNtBa_6traits8iterator8Iterator7collectINtNtCslJiobkLta79_5alloc3vec3VecNtCsaKzlTDPUHDb_11proc_macro211TokenStreamEEB1l_, symObjAddr: 0x31A0, symBinAddr: 0x14F50, symSize: 0x60 }
  - { offset: 0x25D89, size: 0x8, addend: 0x0, symName: __RINvYINtNtNtNtCsieiGu2EXtoJ_4core4iter8adapters3map3MapINtNtNtBc_5slice4iter4IterNtNtCs2h5czzbW9XJ_14asn1_rs_derive9container9FieldInfoENCNvMs1_B1j_NtB1j_9Container20gen_checkconstraints0ENtNtNtBa_6traits8iterator8Iterator8for_eachNCINvMsi_NtCslJiobkLta79_5alloc3vecINtB3Q_3VecNtCsaKzlTDPUHDb_11proc_macro211TokenStreamE14extend_trustedB3_E0EB1l_, symObjAddr: 0x3200, symBinAddr: 0x14FB0, symSize: 0x40 }
  - { offset: 0x25DFF, size: 0x8, addend: 0x0, symName: __RNvXNtNtNtCsieiGu2EXtoJ_4core4iter6traits7collectINtNtNtB6_8adapters3map3MapINtNtCsdGrGZaRBwMb_3syn10punctuated4IterNtNtB1h_4data5FieldENvYNtNtCs2h5czzbW9XJ_14asn1_rs_derive9container9FieldInfoINtNtB8_7convert4FromRB1Q_E4fromENtB2_12IntoIterator9into_iterB2h_, symObjAddr: 0x6480, symBinAddr: 0x18220, symSize: 0x20 }
  - { offset: 0x25E36, size: 0x8, addend: 0x0, symName: __RNvXNtNtNtCsieiGu2EXtoJ_4core4iter6traits7collectINtNtNtB6_8adapters3map3MapINtNtNtB8_5slice4iter4IterNtNtCs2h5czzbW9XJ_14asn1_rs_derive9container9FieldInfoENCNvB1E_27derive_ber_sequence_content0ENtB2_12IntoIterator9into_iterB1G_, symObjAddr: 0x64A0, symBinAddr: 0x18240, symSize: 0x30 }
  - { offset: 0x25E6D, size: 0x8, addend: 0x0, symName: __RNvXNtNtNtCsieiGu2EXtoJ_4core4iter6traits7collectINtNtNtB6_8adapters3map3MapINtNtNtB8_5slice4iter4IterNtNtCs2h5czzbW9XJ_14asn1_rs_derive9container9FieldInfoENCNvMs1_B1E_NtB1E_9Container11gen_fromder0ENtB2_12IntoIterator9into_iterB1G_, symObjAddr: 0x64D0, symBinAddr: 0x18270, symSize: 0x20 }
  - { offset: 0x25EA4, size: 0x8, addend: 0x0, symName: __RNvXNtNtNtCsieiGu2EXtoJ_4core4iter6traits7collectINtNtNtB6_8adapters3map3MapINtNtNtB8_5slice4iter4IterNtNtCs2h5czzbW9XJ_14asn1_rs_derive9container9FieldInfoENCNvMs1_B1E_NtB1E_9Container11gen_tryfrom0ENtB2_12IntoIterator9into_iterB1G_, symObjAddr: 0x64F0, symBinAddr: 0x18290, symSize: 0x20 }
  - { offset: 0x25EDB, size: 0x8, addend: 0x0, symName: __RNvXNtNtNtCsieiGu2EXtoJ_4core4iter6traits7collectINtNtNtB6_8adapters3map3MapINtNtNtB8_5slice4iter4IterNtNtCs2h5czzbW9XJ_14asn1_rs_derive9container9FieldInfoENCNvMs1_B1E_NtB1E_9Container20gen_checkconstraints0ENtB2_12IntoIterator9into_iterB1G_, symObjAddr: 0x6510, symBinAddr: 0x182B0, symSize: 0x20 }
  - { offset: 0x26040, size: 0x8, addend: 0x0, symName: __RNvMNtCsieiGu2EXtoJ_4core5sliceSh15copy_from_sliceCs2h5czzbW9XJ_14asn1_rs_derive, symObjAddr: 0x5E30, symBinAddr: 0x17BE0, symSize: 0xA0 }
  - { offset: 0x263E0, size: 0x8, addend: 0x0, symName: ___rustc_proc_macro_decls_1a813443e4123fdd__, symObjAddr: 0x8108, symBinAddr: 0x224CC8, symSize: 0x0 }
  - { offset: 0x26557, size: 0x8, addend: 0x0, symName: __RNvCs2h5czzbW9XJ_14asn1_rs_derive11BerSequence, symObjAddr: 0x5050, symBinAddr: 0x16E00, symSize: 0x250 }
  - { offset: 0x265E3, size: 0x8, addend: 0x0, symName: __RNvCs2h5czzbW9XJ_14asn1_rs_derive11DerSequence, symObjAddr: 0x52A0, symBinAddr: 0x17050, symSize: 0x250 }
  - { offset: 0x2666F, size: 0x8, addend: 0x0, symName: __RNvCs2h5czzbW9XJ_14asn1_rs_derive6BerSet, symObjAddr: 0x54F0, symBinAddr: 0x172A0, symSize: 0x250 }
  - { offset: 0x266FB, size: 0x8, addend: 0x0, symName: __RNvCs2h5czzbW9XJ_14asn1_rs_derive6DerSet, symObjAddr: 0x5740, symBinAddr: 0x174F0, symSize: 0x250 }
  - { offset: 0x26787, size: 0x8, addend: 0x0, symName: __RNvCs2h5czzbW9XJ_14asn1_rs_derive8BerAlias, symObjAddr: 0x5990, symBinAddr: 0x17740, symSize: 0x250 }
  - { offset: 0x26813, size: 0x8, addend: 0x0, symName: __RNvCs2h5czzbW9XJ_14asn1_rs_derive8DerAlias, symObjAddr: 0x5BE0, symBinAddr: 0x17990, symSize: 0x250 }
  - { offset: 0x26DAD, size: 0x8, addend: 0x0, symName: __RNCINvNtNtCscKtU6MdFI5n_10proc_macro6bridge6client10run_clientNtB4_11TokenStreamINtNtCsieiGu2EXtoJ_4core6option6OptionBY_ENCNCINvMs6_B4_INtB4_6ClientNtB8_11TokenStreamB2n_E7expand1NvCs2h5czzbW9XJ_14asn1_rs_derive11BerSequenceE00E0B2U_, symObjAddr: 0x33F0, symBinAddr: 0x151A0, symSize: 0x420 }
  - { offset: 0x26FCE, size: 0x8, addend: 0x0, symName: __RNCINvNtNtCscKtU6MdFI5n_10proc_macro6bridge6client10run_clientNtB4_11TokenStreamINtNtCsieiGu2EXtoJ_4core6option6OptionBY_ENCNCINvMs6_B4_INtB4_6ClientNtB8_11TokenStreamB2n_E7expand1NvCs2h5czzbW9XJ_14asn1_rs_derive11DerSequenceE00E0B2U_, symObjAddr: 0x3810, symBinAddr: 0x155C0, symSize: 0x420 }
  - { offset: 0x271EF, size: 0x8, addend: 0x0, symName: __RNCINvNtNtCscKtU6MdFI5n_10proc_macro6bridge6client10run_clientNtB4_11TokenStreamINtNtCsieiGu2EXtoJ_4core6option6OptionBY_ENCNCINvMs6_B4_INtB4_6ClientNtB8_11TokenStreamB2n_E7expand1NvCs2h5czzbW9XJ_14asn1_rs_derive6BerSetE00E0B2U_, symObjAddr: 0x3C30, symBinAddr: 0x159E0, symSize: 0x420 }
  - { offset: 0x27410, size: 0x8, addend: 0x0, symName: __RNCINvNtNtCscKtU6MdFI5n_10proc_macro6bridge6client10run_clientNtB4_11TokenStreamINtNtCsieiGu2EXtoJ_4core6option6OptionBY_ENCNCINvMs6_B4_INtB4_6ClientNtB8_11TokenStreamB2n_E7expand1NvCs2h5czzbW9XJ_14asn1_rs_derive6DerSetE00E0B2U_, symObjAddr: 0x4050, symBinAddr: 0x15E00, symSize: 0x420 }
  - { offset: 0x27631, size: 0x8, addend: 0x0, symName: __RNCINvNtNtCscKtU6MdFI5n_10proc_macro6bridge6client10run_clientNtB4_11TokenStreamINtNtCsieiGu2EXtoJ_4core6option6OptionBY_ENCNCINvMs6_B4_INtB4_6ClientNtB8_11TokenStreamB2n_E7expand1NvCs2h5czzbW9XJ_14asn1_rs_derive8BerAliasE00E0B2U_, symObjAddr: 0x4470, symBinAddr: 0x16220, symSize: 0x420 }
  - { offset: 0x27852, size: 0x8, addend: 0x0, symName: __RNCINvNtNtCscKtU6MdFI5n_10proc_macro6bridge6client10run_clientNtB4_11TokenStreamINtNtCsieiGu2EXtoJ_4core6option6OptionBY_ENCNCINvMs6_B4_INtB4_6ClientNtB8_11TokenStreamB2n_E7expand1NvCs2h5czzbW9XJ_14asn1_rs_derive8DerAliasE00E0B2U_, symObjAddr: 0x4890, symBinAddr: 0x16640, symSize: 0x420 }
  - { offset: 0x27A78, size: 0x8, addend: 0x0, symName: __RNCNCINvNtNtCscKtU6MdFI5n_10proc_macro6bridge6client10run_clientNtB6_11TokenStreamINtNtCsieiGu2EXtoJ_4core6option6OptionB10_ENCNCINvMs6_B6_INtB6_6ClientNtBa_11TokenStreamB2q_E7expand1NvCs2h5czzbW9XJ_14asn1_rs_derive11BerSequenceE00E00B2X_, symObjAddr: 0x4F70, symBinAddr: 0x16D20, symSize: 0x20 }
  - { offset: 0x27AD4, size: 0x8, addend: 0x0, symName: __RNCNCINvNtNtCscKtU6MdFI5n_10proc_macro6bridge6client10run_clientNtB6_11TokenStreamINtNtCsieiGu2EXtoJ_4core6option6OptionB10_ENCNCINvMs6_B6_INtB6_6ClientNtBa_11TokenStreamB2q_E7expand1NvCs2h5czzbW9XJ_14asn1_rs_derive11DerSequenceE00E00B2X_, symObjAddr: 0x4F90, symBinAddr: 0x16D40, symSize: 0x20 }
  - { offset: 0x27B30, size: 0x8, addend: 0x0, symName: __RNCNCINvNtNtCscKtU6MdFI5n_10proc_macro6bridge6client10run_clientNtB6_11TokenStreamINtNtCsieiGu2EXtoJ_4core6option6OptionB10_ENCNCINvMs6_B6_INtB6_6ClientNtBa_11TokenStreamB2q_E7expand1NvCs2h5czzbW9XJ_14asn1_rs_derive6BerSetE00E00B2X_, symObjAddr: 0x4FB0, symBinAddr: 0x16D60, symSize: 0x20 }
  - { offset: 0x27B8C, size: 0x8, addend: 0x0, symName: __RNCNCINvNtNtCscKtU6MdFI5n_10proc_macro6bridge6client10run_clientNtB6_11TokenStreamINtNtCsieiGu2EXtoJ_4core6option6OptionB10_ENCNCINvMs6_B6_INtB6_6ClientNtBa_11TokenStreamB2q_E7expand1NvCs2h5czzbW9XJ_14asn1_rs_derive6DerSetE00E00B2X_, symObjAddr: 0x4FD0, symBinAddr: 0x16D80, symSize: 0x20 }
  - { offset: 0x27BE8, size: 0x8, addend: 0x0, symName: __RNCNCINvNtNtCscKtU6MdFI5n_10proc_macro6bridge6client10run_clientNtB6_11TokenStreamINtNtCsieiGu2EXtoJ_4core6option6OptionB10_ENCNCINvMs6_B6_INtB6_6ClientNtBa_11TokenStreamB2q_E7expand1NvCs2h5czzbW9XJ_14asn1_rs_derive8BerAliasE00E00B2X_, symObjAddr: 0x4FF0, symBinAddr: 0x16DA0, symSize: 0x20 }
  - { offset: 0x27C44, size: 0x8, addend: 0x0, symName: __RNCNCINvNtNtCscKtU6MdFI5n_10proc_macro6bridge6client10run_clientNtB6_11TokenStreamINtNtCsieiGu2EXtoJ_4core6option6OptionB10_ENCNCINvMs6_B6_INtB6_6ClientNtBa_11TokenStreamB2q_E7expand1NvCs2h5czzbW9XJ_14asn1_rs_derive8DerAliasE00E00B2X_, symObjAddr: 0x5010, symBinAddr: 0x16DC0, symSize: 0x20 }
  - { offset: 0x27DD7, size: 0x8, addend: 0x0, symName: __RNCNCINvMs6_NtNtCscKtU6MdFI5n_10proc_macro6bridge6clientINtBa_6ClientNtBe_11TokenStreamB15_E7expand1NvCs2h5czzbW9XJ_14asn1_rs_derive11BerSequenceE00B1C_, symObjAddr: 0x4EB0, symBinAddr: 0x16C60, symSize: 0x20 }
  - { offset: 0x27E1F, size: 0x8, addend: 0x0, symName: __RNCNCINvMs6_NtNtCscKtU6MdFI5n_10proc_macro6bridge6clientINtBa_6ClientNtBe_11TokenStreamB15_E7expand1NvCs2h5czzbW9XJ_14asn1_rs_derive11DerSequenceE00B1C_, symObjAddr: 0x4ED0, symBinAddr: 0x16C80, symSize: 0x20 }
  - { offset: 0x27E67, size: 0x8, addend: 0x0, symName: __RNCNCINvMs6_NtNtCscKtU6MdFI5n_10proc_macro6bridge6clientINtBa_6ClientNtBe_11TokenStreamB15_E7expand1NvCs2h5czzbW9XJ_14asn1_rs_derive6BerSetE00B1C_, symObjAddr: 0x4EF0, symBinAddr: 0x16CA0, symSize: 0x20 }
  - { offset: 0x27EAF, size: 0x8, addend: 0x0, symName: __RNCNCINvMs6_NtNtCscKtU6MdFI5n_10proc_macro6bridge6clientINtBa_6ClientNtBe_11TokenStreamB15_E7expand1NvCs2h5czzbW9XJ_14asn1_rs_derive6DerSetE00B1C_, symObjAddr: 0x4F10, symBinAddr: 0x16CC0, symSize: 0x20 }
  - { offset: 0x27EF7, size: 0x8, addend: 0x0, symName: __RNCNCINvMs6_NtNtCscKtU6MdFI5n_10proc_macro6bridge6clientINtBa_6ClientNtBe_11TokenStreamB15_E7expand1NvCs2h5czzbW9XJ_14asn1_rs_derive8BerAliasE00B1C_, symObjAddr: 0x4F30, symBinAddr: 0x16CE0, symSize: 0x20 }
  - { offset: 0x27F3F, size: 0x8, addend: 0x0, symName: __RNCNCINvMs6_NtNtCscKtU6MdFI5n_10proc_macro6bridge6clientINtBa_6ClientNtBe_11TokenStreamB15_E7expand1NvCs2h5czzbW9XJ_14asn1_rs_derive8DerAliasE00B1C_, symObjAddr: 0x4F50, symBinAddr: 0x16D00, symSize: 0x20 }
  - { offset: 0x27F88, size: 0x8, addend: 0x0, symName: __RNCINvMs6_NtNtCscKtU6MdFI5n_10proc_macro6bridge6clientINtB8_6ClientNtBc_11TokenStreamB13_E7expand1NvCs2h5czzbW9XJ_14asn1_rs_derive11BerSequenceE0B1A_, symObjAddr: 0x32D0, symBinAddr: 0x15080, symSize: 0x30 }
  - { offset: 0x27FD1, size: 0x8, addend: 0x0, symName: __RNCINvMs6_NtNtCscKtU6MdFI5n_10proc_macro6bridge6clientINtB8_6ClientNtBc_11TokenStreamB13_E7expand1NvCs2h5czzbW9XJ_14asn1_rs_derive11DerSequenceE0B1A_, symObjAddr: 0x3300, symBinAddr: 0x150B0, symSize: 0x30 }
  - { offset: 0x2801A, size: 0x8, addend: 0x0, symName: __RNCINvMs6_NtNtCscKtU6MdFI5n_10proc_macro6bridge6clientINtB8_6ClientNtBc_11TokenStreamB13_E7expand1NvCs2h5czzbW9XJ_14asn1_rs_derive6BerSetE0B1A_, symObjAddr: 0x3330, symBinAddr: 0x150E0, symSize: 0x30 }
  - { offset: 0x28063, size: 0x8, addend: 0x0, symName: __RNCINvMs6_NtNtCscKtU6MdFI5n_10proc_macro6bridge6clientINtB8_6ClientNtBc_11TokenStreamB13_E7expand1NvCs2h5czzbW9XJ_14asn1_rs_derive6DerSetE0B1A_, symObjAddr: 0x3360, symBinAddr: 0x15110, symSize: 0x30 }
  - { offset: 0x280AC, size: 0x8, addend: 0x0, symName: __RNCINvMs6_NtNtCscKtU6MdFI5n_10proc_macro6bridge6clientINtB8_6ClientNtBc_11TokenStreamB13_E7expand1NvCs2h5czzbW9XJ_14asn1_rs_derive8BerAliasE0B1A_, symObjAddr: 0x3390, symBinAddr: 0x15140, symSize: 0x30 }
  - { offset: 0x280F5, size: 0x8, addend: 0x0, symName: __RNCINvMs6_NtNtCscKtU6MdFI5n_10proc_macro6bridge6clientINtB8_6ClientNtBc_11TokenStreamB13_E7expand1NvCs2h5czzbW9XJ_14asn1_rs_derive8DerAliasE0B1A_, symObjAddr: 0x33C0, symBinAddr: 0x15170, symSize: 0x30 }
  - { offset: 0x28140, size: 0x8, addend: 0x0, symName: __RINvNtNtCscKtU6MdFI5n_10proc_macro6bridge6client10run_clientNtB2_11TokenStreamINtNtCsieiGu2EXtoJ_4core6option6OptionBW_ENCNCINvMs6_B2_INtB2_6ClientNtB6_11TokenStreamB2l_E7expand1NvCs2h5czzbW9XJ_14asn1_rs_derive11BerSequenceE00EB2S_, symObjAddr: 0x1940, symBinAddr: 0x136F0, symSize: 0x2E0 }
  - { offset: 0x2832A, size: 0x8, addend: 0x0, symName: __RINvNtNtCscKtU6MdFI5n_10proc_macro6bridge6client10run_clientNtB2_11TokenStreamINtNtCsieiGu2EXtoJ_4core6option6OptionBW_ENCNCINvMs6_B2_INtB2_6ClientNtB6_11TokenStreamB2l_E7expand1NvCs2h5czzbW9XJ_14asn1_rs_derive11DerSequenceE00EB2S_, symObjAddr: 0x1C20, symBinAddr: 0x139D0, symSize: 0x2E0 }
  - { offset: 0x28514, size: 0x8, addend: 0x0, symName: __RINvNtNtCscKtU6MdFI5n_10proc_macro6bridge6client10run_clientNtB2_11TokenStreamINtNtCsieiGu2EXtoJ_4core6option6OptionBW_ENCNCINvMs6_B2_INtB2_6ClientNtB6_11TokenStreamB2l_E7expand1NvCs2h5czzbW9XJ_14asn1_rs_derive6BerSetE00EB2S_, symObjAddr: 0x1F00, symBinAddr: 0x13CB0, symSize: 0x2E0 }
  - { offset: 0x286FE, size: 0x8, addend: 0x0, symName: __RINvNtNtCscKtU6MdFI5n_10proc_macro6bridge6client10run_clientNtB2_11TokenStreamINtNtCsieiGu2EXtoJ_4core6option6OptionBW_ENCNCINvMs6_B2_INtB2_6ClientNtB6_11TokenStreamB2l_E7expand1NvCs2h5czzbW9XJ_14asn1_rs_derive6DerSetE00EB2S_, symObjAddr: 0x21E0, symBinAddr: 0x13F90, symSize: 0x2E0 }
  - { offset: 0x288E8, size: 0x8, addend: 0x0, symName: __RINvNtNtCscKtU6MdFI5n_10proc_macro6bridge6client10run_clientNtB2_11TokenStreamINtNtCsieiGu2EXtoJ_4core6option6OptionBW_ENCNCINvMs6_B2_INtB2_6ClientNtB6_11TokenStreamB2l_E7expand1NvCs2h5czzbW9XJ_14asn1_rs_derive8BerAliasE00EB2S_, symObjAddr: 0x24C0, symBinAddr: 0x14270, symSize: 0x2E0 }
  - { offset: 0x28AD2, size: 0x8, addend: 0x0, symName: __RINvNtNtCscKtU6MdFI5n_10proc_macro6bridge6client10run_clientNtB2_11TokenStreamINtNtCsieiGu2EXtoJ_4core6option6OptionBW_ENCNCINvMs6_B2_INtB2_6ClientNtB6_11TokenStreamB2l_E7expand1NvCs2h5czzbW9XJ_14asn1_rs_derive8DerAliasE00EB2S_, symObjAddr: 0x27A0, symBinAddr: 0x14550, symSize: 0x2E0 }
  - { offset: 0x28CEE, size: 0x8, addend: 0x0, symName: __RNvXsf_NtNtCscKtU6MdFI5n_10proc_macro6bridge6clientNtB5_11TokenStreamINtNtB7_3rpc6EncodeuE6encodeCs2h5czzbW9XJ_14asn1_rs_derive, symObjAddr: 0x6B30, symBinAddr: 0x188D0, symSize: 0x40 }
  - { offset: 0x28DFF, size: 0x8, addend: 0x0, symName: __RNvXsi_NtNtCscKtU6MdFI5n_10proc_macro6bridge6clientNtB5_11TokenStreamINtNtB7_3rpc9DecodeMutuE6decodeCs2h5czzbW9XJ_14asn1_rs_derive, symObjAddr: 0x6B70, symBinAddr: 0x18910, symSize: 0x20 }
  - { offset: 0x28E48, size: 0x8, addend: 0x0, symName: __RNvXsk_NtNtCscKtU6MdFI5n_10proc_macro6bridge6clientNtB5_4SpanINtNtB7_3rpc9DecodeMutuE6decodeCs2h5czzbW9XJ_14asn1_rs_derive, symObjAddr: 0x6B90, symBinAddr: 0x18930, symSize: 0x20 }
  - { offset: 0x2947D, size: 0x8, addend: 0x0, symName: __RNvXNtNtCscKtU6MdFI5n_10proc_macro6bridge3rpcuINtB2_6EncodeuE6encodeCs2h5czzbW9XJ_14asn1_rs_derive, symObjAddr: 0x6470, symBinAddr: 0x18210, symSize: 0x10 }
  - { offset: 0x294C4, size: 0x8, addend: 0x0, symName: __RNvXs9_NtNtCscKtU6MdFI5n_10proc_macro6bridge3rpcTINtB7_11ExpnGlobalsNtNtB7_6client4SpanENtB16_11TokenStreamEINtB5_9DecodeMutuE6decodeCs2h5czzbW9XJ_14asn1_rs_derive, symObjAddr: 0x6880, symBinAddr: 0x18620, symSize: 0x80 }
  - { offset: 0x29551, size: 0x8, addend: 0x0, symName: __RNvXsa_NtNtCscKtU6MdFI5n_10proc_macro6bridge3rpcRShINtB5_6EncodeuE6encodeCs2h5czzbW9XJ_14asn1_rs_derive, symObjAddr: 0x6A30, symBinAddr: 0x187D0, symSize: 0xD0 }
  - { offset: 0x29659, size: 0x8, addend: 0x0, symName: __RNvXsc_NtNtCscKtU6MdFI5n_10proc_macro6bridge3rpcReINtB5_6EncodeuE6encodeCs2h5czzbW9XJ_14asn1_rs_derive, symObjAddr: 0x6B00, symBinAddr: 0x188A0, symSize: 0x30 }
  - { offset: 0x2971B, size: 0x8, addend: 0x0, symName: __RNvXsl_NtNtCscKtU6MdFI5n_10proc_macro6bridge3rpcNtB5_12PanicMessageINtB5_6EncodeuE6encodeCs2h5czzbW9XJ_14asn1_rs_derive, symObjAddr: 0x6BB0, symBinAddr: 0x18950, symSize: 0x130 }
  - { offset: 0x298EB, size: 0x8, addend: 0x0, symName: __RNvXso_NtNtCscKtU6MdFI5n_10proc_macro6bridge3rpcmINtB5_9DecodeMutuE6decodeCs2h5czzbW9XJ_14asn1_rs_derive, symObjAddr: 0x6CE0, symBinAddr: 0x18A80, symSize: 0x140 }
  - { offset: 0x29A8F, size: 0x8, addend: 0x0, symName: __RNvXs1J_NtCscKtU6MdFI5n_10proc_macro6bridgeINtB6_11ExpnGlobalsNtNtB6_6client4SpanEINtNtB6_3rpc9DecodeMutuE6decodeCs2h5czzbW9XJ_14asn1_rs_derive, symObjAddr: 0x6720, symBinAddr: 0x184C0, symSize: 0xA0 }
  - { offset: 0x29FBB, size: 0x8, addend: 0x0, symName: __RNvXsA_NtCsaKzlTDPUHDb_11proc_macro23impNtB5_19DeferredTokenStreamNtNtCsieiGu2EXtoJ_4core5clone5Clone5cloneCs2h5czzbW9XJ_14asn1_rs_derive, symObjAddr: 0x6900, symBinAddr: 0x186A0, symSize: 0xA0 }
  - { offset: 0x29FED, size: 0x8, addend: 0x0, symName: __RNvXsF_NtCsaKzlTDPUHDb_11proc_macro23impNtB5_5IdentNtNtCsieiGu2EXtoJ_4core5clone5Clone5cloneCs2h5czzbW9XJ_14asn1_rs_derive, symObjAddr: 0x69A0, symBinAddr: 0x18740, symSize: 0x90 }
  - { offset: 0x2A05D, size: 0x8, addend: 0x0, symName: __RNvXsz_NtCsaKzlTDPUHDb_11proc_macro23impNtB5_11TokenStreamNtNtCsieiGu2EXtoJ_4core5clone5Clone5cloneCs2h5czzbW9XJ_14asn1_rs_derive, symObjAddr: 0x6E20, symBinAddr: 0x18BC0, symSize: 0xB0 }
  - { offset: 0x2A182, size: 0x8, addend: 0x0, symName: __RNvXs1_NtCsaKzlTDPUHDb_11proc_macro26markerNtB5_19ProcMacroAutoTraitsNtNtCsieiGu2EXtoJ_4core5clone5Clone5cloneCs2h5czzbW9XJ_14asn1_rs_derive, symObjAddr: 0x67C0, symBinAddr: 0x18560, symSize: 0x10 }
  - { offset: 0x2A532, size: 0x8, addend: 0x0, symName: __RINvCsdGrGZaRBwMb_3syn5parseNtNtB2_6derive11DeriveInputECs2h5czzbW9XJ_14asn1_rs_derive, symObjAddr: 0x0, symBinAddr: 0x11DF0, symSize: 0x30 }
  - { offset: 0x2D52E, size: 0x8, addend: 0x0, symName: __RNCINvMs3_NtCsdGrGZaRBwMb_3syn3litNtB8_6LitInt12base10_parsetE0Cs2h5czzbW9XJ_14asn1_rs_derive, symObjAddr: 0x3240, symBinAddr: 0x14FF0, symSize: 0x90 }
  - { offset: 0x2F585, size: 0x8, addend: 0x0, symName: __RNvXNtCsdGrGZaRBwMb_3syn7spannedNtNtB4_4attr9AttributeNtB2_7Spanned4spanCs2h5czzbW9XJ_14asn1_rs_derive, symObjAddr: 0x6450, symBinAddr: 0x181F0, symSize: 0x20 }
  - { offset: 0x307DA, size: 0x8, addend: 0x0, symName: __RNvXs1_NtCslJiobkLta79_5alloc7raw_vecINtB5_6RawVecNtCsaKzlTDPUHDb_11proc_macro211TokenStreamENtNtNtCsieiGu2EXtoJ_4core3ops4drop4Drop4dropCs2h5czzbW9XJ_14asn1_rs_derive, symObjAddr: 0x67D0, symBinAddr: 0x18570, symSize: 0x30 }
  - { offset: 0x30816, size: 0x8, addend: 0x0, symName: __RNvXs1_NtCslJiobkLta79_5alloc7raw_vecINtB5_6RawVecNtNtCs2h5czzbW9XJ_14asn1_rs_derive9container9FieldInfoENtNtNtCsieiGu2EXtoJ_4core3ops4drop4Drop4dropBQ_, symObjAddr: 0x6800, symBinAddr: 0x185A0, symSize: 0x30 }
  - { offset: 0x30852, size: 0x8, addend: 0x0, symName: __RNvXs1_NtCslJiobkLta79_5alloc7raw_vecINtB5_6RawVecNtNtCsdGrGZaRBwMb_3syn8generics14WherePredicateENtNtNtCsieiGu2EXtoJ_4core3ops4drop4Drop4dropCs2h5czzbW9XJ_14asn1_rs_derive, symObjAddr: 0x6830, symBinAddr: 0x185D0, symSize: 0x30 }
  - { offset: 0x3088E, size: 0x8, addend: 0x0, symName: __RNvXs1_NtCslJiobkLta79_5alloc7raw_vecINtB5_6RawVecRNtNtCsdGrGZaRBwMb_3syn8generics13LifetimeParamENtNtNtCsieiGu2EXtoJ_4core3ops4drop4Drop4dropCs2h5czzbW9XJ_14asn1_rs_derive, symObjAddr: 0x6860, symBinAddr: 0x18600, symSize: 0x20 }
  - { offset: 0x30AF1, size: 0x8, addend: 0x0, symName: __RNvNtCslJiobkLta79_5alloc3fmt6formatCs2h5czzbW9XJ_14asn1_rs_derive, symObjAddr: 0x5EE0, symBinAddr: 0x17C80, symSize: 0xC0 }
  - { offset: 0x31060, size: 0x8, addend: 0x0, symName: __RINvMNtCsdGrGZaRBwMb_3syn4attrNtB3_9Attribute10parse_argsNtNtB5_4expr4ExprECs2h5czzbW9XJ_14asn1_rs_derive, symObjAddr: 0x30, symBinAddr: 0x11E20, symSize: 0x30 }
  - { offset: 0x31166, size: 0x8, addend: 0x0, symName: __RINvMNtCsdGrGZaRBwMb_3syn4attrNtB3_9Attribute15parse_args_withNvNtCs2h5czzbW9XJ_14asn1_rs_derive9container14parse_tag_argsEB12_, symObjAddr: 0x60, symBinAddr: 0x11E50, symSize: 0x440 }
  - { offset: 0x312CC, size: 0x8, addend: 0x0, symName: __RINvMNtCsdGrGZaRBwMb_3syn4attrNtB3_9Attribute15parse_args_withNvYNtNtB5_4expr4ExprNtNtB5_5parse5Parse5parseECs2h5czzbW9XJ_14asn1_rs_derive, symObjAddr: 0x4A0, symBinAddr: 0x12290, symSize: 0x450 }
  - { offset: 0x314B3, size: 0x8, addend: 0x0, symName: __RINvMNtNtCsieiGu2EXtoJ_4core3fmt2rtNtB3_8Argument11new_displayNtNtNtCsdGrGZaRBwMb_3syn4attr7parsing16DisplayAttrStyleECs2h5czzbW9XJ_14asn1_rs_derive, symObjAddr: 0x920, symBinAddr: 0x12710, symSize: 0x30 }
  - { offset: 0x314EB, size: 0x8, addend: 0x0, symName: __RINvMs0_NtCsdGrGZaRBwMb_3syn4attrNtB6_8MetaList15parse_args_withNvNtCs2h5czzbW9XJ_14asn1_rs_derive9container14parse_tag_argsEB14_, symObjAddr: 0x950, symBinAddr: 0x12740, symSize: 0xE0 }
  - { offset: 0x3153C, size: 0x8, addend: 0x0, symName: __RINvMs0_NtCsdGrGZaRBwMb_3syn4attrNtB6_8MetaList15parse_args_withNvYNtNtB8_4expr4ExprNtNtB8_5parse5Parse5parseECs2h5czzbW9XJ_14asn1_rs_derive, symObjAddr: 0xA30, symBinAddr: 0x12820, symSize: 0xE0 }
  - { offset: 0x315CC, size: 0x8, addend: 0x0, symName: __RINvMs2_NtNtCsHUR1vrdMJt_3std6thread5localINtB6_8LocalKeyINtNtCsieiGu2EXtoJ_4core4cell4CellPuEE4withNCNvMs3_B6_BE_7replace0B1r_ECs2h5czzbW9XJ_14asn1_rs_derive, symObjAddr: 0xB10, symBinAddr: 0x12900, symSize: 0x50 }
  - { offset: 0x31685, size: 0x8, addend: 0x0, symName: __RINvMs2_NtNtCsHUR1vrdMJt_3std6thread5localINtB6_8LocalKeyINtNtCsieiGu2EXtoJ_4core4cell4CellPuEE8try_withNCNvMs3_B6_BE_7replace0B1r_ECs2h5czzbW9XJ_14asn1_rs_derive, symObjAddr: 0xB60, symBinAddr: 0x12950, symSize: 0xF0 }
  - { offset: 0x317D5, size: 0x8, addend: 0x0, symName: __RINvMs3_NtCsdGrGZaRBwMb_3syn3litNtB6_6LitInt12base10_parsetECs2h5czzbW9XJ_14asn1_rs_derive, symObjAddr: 0xC50, symBinAddr: 0x12A40, symSize: 0x60 }
  - { offset: 0x31883, size: 0x8, addend: 0x0, symName: __RINvMs_NtNtCsieiGu2EXtoJ_4core3fmt2rtNtB7_9Arguments6new_v1Kj3_Kj2_ECs2h5czzbW9XJ_14asn1_rs_derive, symObjAddr: 0xCB0, symBinAddr: 0x12AA0, symSize: 0x40 }
  - { offset: 0x32400, size: 0x8, addend: 0x0, symName: __RNvXs0_NtCs9OU1sGv5X54_5quote7spannedNtNtCsdGrGZaRBwMb_3syn4attr9AttributeNtB5_7Spanned6___spanCs2h5czzbW9XJ_14asn1_rs_derive, symObjAddr: 0x6530, symBinAddr: 0x182D0, symSize: 0x30 }
  - { offset: 0x32441, size: 0x8, addend: 0x0, symName: __RNvYRNtNtCsdGrGZaRBwMb_3syn4attr9AttributeNtNtCs9OU1sGv5X54_5quote9to_tokens8ToTokens15to_token_streamCs2h5czzbW9XJ_14asn1_rs_derive, symObjAddr: 0x70C0, symBinAddr: 0x18E60, symSize: 0x90 }
  - { offset: 0x3248B, size: 0x8, addend: 0x0, symName: __RNvYRNtNtCsdGrGZaRBwMb_3syn4attr9AttributeNtNtCs9OU1sGv5X54_5quote9to_tokens8ToTokens17into_token_streamCs2h5czzbW9XJ_14asn1_rs_derive, symObjAddr: 0x7150, symBinAddr: 0x18EF0, symSize: 0x50 }
  - { offset: 0x32CF5, size: 0x8, addend: 0x0, symName: __RINvMsi_NtCslJiobkLta79_5alloc3vecINtB6_3VecNtCsaKzlTDPUHDb_11proc_macro211TokenStreamE14extend_trustedINtNtNtNtCsieiGu2EXtoJ_4core4iter8adapters3map3MapINtNtNtB1M_5slice4iter4IterNtNtCs2h5czzbW9XJ_14asn1_rs_derive9container9FieldInfoENCNvB2U_27derive_ber_sequence_content0EEB2W_, symObjAddr: 0x0, symBinAddr: 0x18F80, symSize: 0x1C0 }
  - { offset: 0x36CE2, size: 0x8, addend: 0x0, symName: __RINvYINtNtNtCsieiGu2EXtoJ_4core5slice4iter4IterNtNtCs2h5czzbW9XJ_14asn1_rs_derive9container9FieldInfoENtNtNtNtBa_4iter6traits8iterator8Iterator3mapNtCsaKzlTDPUHDb_11proc_macro211TokenStreamNCNvBL_27derive_ber_sequence_content0EBN_, symObjAddr: 0x1780, symBinAddr: 0x1A700, symSize: 0x30 }
  - { offset: 0x36D4F, size: 0x8, addend: 0x0, symName: __RINvYINtNtNtCsieiGu2EXtoJ_4core5slice4iter4IterNtNtCs2h5czzbW9XJ_14asn1_rs_derive9container9FieldInfoENtNtNtNtBa_4iter6traits8iterator8Iterator3mapNtCsaKzlTDPUHDb_11proc_macro211TokenStreamNCNvMs1_BL_NtBL_9Container20gen_checkconstraints0EBN_, symObjAddr: 0x17B0, symBinAddr: 0x1A730, symSize: 0x20 }
  - { offset: 0x36DA7, size: 0x8, addend: 0x0, symName: __RINvYINtNtNtCsieiGu2EXtoJ_4core5slice4iter4IterNtNtCs2h5czzbW9XJ_14asn1_rs_derive9container9FieldInfoENtNtNtNtBa_4iter6traits8iterator8Iterator3mapRNtCsaKzlTDPUHDb_11proc_macro25IdentNCNvMs1_BL_NtBL_9Container11gen_fromder0EBN_, symObjAddr: 0x17D0, symBinAddr: 0x1A750, symSize: 0x20 }
  - { offset: 0x36DFF, size: 0x8, addend: 0x0, symName: __RINvYINtNtNtCsieiGu2EXtoJ_4core5slice4iter4IterNtNtCs2h5czzbW9XJ_14asn1_rs_derive9container9FieldInfoENtNtNtNtBa_4iter6traits8iterator8Iterator3mapRNtCsaKzlTDPUHDb_11proc_macro25IdentNCNvMs1_BL_NtBL_9Container11gen_tryfrom0EBN_, symObjAddr: 0x17F0, symBinAddr: 0x1A770, symSize: 0x20 }
  - { offset: 0x36F16, size: 0x8, addend: 0x0, symName: __RINvXs2E_NtNtCsieiGu2EXtoJ_4core5slice4iterINtB7_4IterNtNtCs2h5czzbW9XJ_14asn1_rs_derive9container9FieldInfoENtNtNtNtBb_4iter6traits8iterator8Iterator4folduNCINvNtNtB1P_8adapters3map8map_foldRBQ_NtCsaKzlTDPUHDb_11proc_macro211TokenStreamuNCNvBS_27derive_ber_sequence_content0NCINvNvB1J_8for_each4callB37_NCINvMsi_NtCslJiobkLta79_5alloc3vecINtB51_3VecB37_E14extend_trustedINtB2z_3MapBF_B3O_EE0E0E0EBU_, symObjAddr: 0xB20, symBinAddr: 0x19AA0, symSize: 0x190 }
  - { offset: 0x37057, size: 0x8, addend: 0x0, symName: __RINvXs2E_NtNtCsieiGu2EXtoJ_4core5slice4iterINtB7_4IterNtNtCs2h5czzbW9XJ_14asn1_rs_derive9container9FieldInfoENtNtNtNtBb_4iter6traits8iterator8Iterator4folduNCINvNtNtB1P_8adapters3map8map_foldRBQ_NtCsaKzlTDPUHDb_11proc_macro211TokenStreamuNCNvMs1_BS_NtBS_9Container20gen_checkconstraints0NCINvNvB1J_8for_each4callB37_NCINvMsi_NtCslJiobkLta79_5alloc3vecINtB5d_3VecB37_E14extend_trustedINtB2z_3MapBF_B3O_EE0E0E0EBU_, symObjAddr: 0xCB0, symBinAddr: 0x19C30, symSize: 0x190 }
  - { offset: 0x37198, size: 0x8, addend: 0x0, symName: __RINvXs2E_NtNtCsieiGu2EXtoJ_4core5slice4iterINtB7_4IterNtNtCs2h5czzbW9XJ_14asn1_rs_derive9container9FieldInfoENtNtNtNtBb_4iter6traits8iterator8Iterator4folduNCINvNtNtB1P_8adapters3map8map_foldRBQ_RNtCsaKzlTDPUHDb_11proc_macro25IdentuNCNvMs1_BS_NtBS_9Container11gen_fromder0NCINvNvB1J_8for_each4callB37_NCINvMsi_NtCslJiobkLta79_5alloc3vecINtB4Y_3VecB37_E14extend_trustedINtB2z_3MapBF_B3I_EE0E0E0EBU_, symObjAddr: 0xE40, symBinAddr: 0x19DC0, symSize: 0x190 }
  - { offset: 0x372D9, size: 0x8, addend: 0x0, symName: __RINvXs2E_NtNtCsieiGu2EXtoJ_4core5slice4iterINtB7_4IterNtNtCs2h5czzbW9XJ_14asn1_rs_derive9container9FieldInfoENtNtNtNtBb_4iter6traits8iterator8Iterator4folduNCINvNtNtB1P_8adapters3map8map_foldRBQ_RNtCsaKzlTDPUHDb_11proc_macro25IdentuNCNvMs1_BS_NtBS_9Container11gen_tryfrom0NCINvNvB1J_8for_each4callB37_NCINvMsi_NtCslJiobkLta79_5alloc3vecINtB4Y_3VecB37_E14extend_trustedINtB2z_3MapBF_B3I_EE0E0E0EBU_, symObjAddr: 0xFD0, symBinAddr: 0x19F50, symSize: 0x190 }
  - { offset: 0x3741A, size: 0x8, addend: 0x0, symName: __RINvXs2E_NtNtCsieiGu2EXtoJ_4core5slice4iterINtB7_4IterNtNtCsdGrGZaRBwMb_3syn4attr9AttributeENtNtNtNtBb_4iter6traits8iterator8Iterator3anyNCNvNtCs2h5czzbW9XJ_14asn1_rs_derive3set14derive_ber_set0EB2h_, symObjAddr: 0x1160, symBinAddr: 0x1A0E0, symSize: 0x90 }
  - { offset: 0x3747F, size: 0x8, addend: 0x0, symName: __RINvXs2E_NtNtCsieiGu2EXtoJ_4core5slice4iterINtB7_4IterNtNtCsdGrGZaRBwMb_3syn4attr9AttributeENtNtNtNtBb_4iter6traits8iterator8Iterator3anyNCNvNtCs2h5czzbW9XJ_14asn1_rs_derive3set14derive_der_set0EB2h_, symObjAddr: 0x11F0, symBinAddr: 0x1A170, symSize: 0x90 }
  - { offset: 0x374E4, size: 0x8, addend: 0x0, symName: __RINvXs2E_NtNtCsieiGu2EXtoJ_4core5slice4iterINtB7_4IterNtNtCsdGrGZaRBwMb_3syn4attr9AttributeENtNtNtNtBb_4iter6traits8iterator8Iterator3anyNCNvNtCs2h5czzbW9XJ_14asn1_rs_derive5alias16derive_ber_alias0EB2h_, symObjAddr: 0x1280, symBinAddr: 0x1A200, symSize: 0x90 }
  - { offset: 0x37549, size: 0x8, addend: 0x0, symName: __RINvXs2E_NtNtCsieiGu2EXtoJ_4core5slice4iterINtB7_4IterNtNtCsdGrGZaRBwMb_3syn4attr9AttributeENtNtNtNtBb_4iter6traits8iterator8Iterator3anyNCNvNtCs2h5czzbW9XJ_14asn1_rs_derive5alias16derive_der_alias0EB2h_, symObjAddr: 0x1310, symBinAddr: 0x1A290, symSize: 0x90 }
  - { offset: 0x375AE, size: 0x8, addend: 0x0, symName: __RINvXs2E_NtNtCsieiGu2EXtoJ_4core5slice4iterINtB7_4IterNtNtCsdGrGZaRBwMb_3syn4attr9AttributeENtNtNtNtBb_4iter6traits8iterator8Iterator3anyNCNvNtCs2h5czzbW9XJ_14asn1_rs_derive8sequence19derive_ber_sequence0EB2h_, symObjAddr: 0x13A0, symBinAddr: 0x1A320, symSize: 0x90 }
  - { offset: 0x37613, size: 0x8, addend: 0x0, symName: __RINvXs2E_NtNtCsieiGu2EXtoJ_4core5slice4iterINtB7_4IterNtNtCsdGrGZaRBwMb_3syn4attr9AttributeENtNtNtNtBb_4iter6traits8iterator8Iterator3anyNCNvNtCs2h5czzbW9XJ_14asn1_rs_derive8sequence19derive_der_sequence0EB2h_, symObjAddr: 0x1430, symBinAddr: 0x1A3B0, symSize: 0x90 }
  - { offset: 0x37678, size: 0x8, addend: 0x0, symName: __RINvXs2E_NtNtCsieiGu2EXtoJ_4core5slice4iterINtB7_4IterNtNtCsdGrGZaRBwMb_3syn4attr9AttributeENtNtNtNtBb_4iter6traits8iterator8Iterator4findNCNvMs1_NtCs2h5czzbW9XJ_14asn1_rs_derive9containerNtB2k_9Container15from_datastruct0EB2m_, symObjAddr: 0x14C0, symBinAddr: 0x1A440, symSize: 0xA0 }
  - { offset: 0x376DD, size: 0x8, addend: 0x0, symName: __RNvXs2E_NtNtCsieiGu2EXtoJ_4core5slice4iterINtB6_4IterNtCsaKzlTDPUHDb_11proc_macro211TokenStreamENtNtNtNtBa_4iter6traits8iterator8Iterator4nextCs2h5czzbW9XJ_14asn1_rs_derive, symObjAddr: 0x2680, symBinAddr: 0x1B600, symSize: 0x90 }
  - { offset: 0x377FE, size: 0x8, addend: 0x0, symName: __RNvXs2E_NtNtCsieiGu2EXtoJ_4core5slice4iterINtB6_4IterNtNtCs2h5czzbW9XJ_14asn1_rs_derive9container9FieldInfoENtNtNtNtBa_4iter6traits8iterator8Iterator9size_hintBT_, symObjAddr: 0x2710, symBinAddr: 0x1B690, symSize: 0x60 }
  - { offset: 0x3786D, size: 0x8, addend: 0x0, symName: __RNvXs2E_NtNtCsieiGu2EXtoJ_4core5slice4iterINtB6_4IterRNtCsaKzlTDPUHDb_11proc_macro25IdentENtNtNtNtBa_4iter6traits8iterator8Iterator4nextCs2h5czzbW9XJ_14asn1_rs_derive, symObjAddr: 0x2770, symBinAddr: 0x1B6F0, symSize: 0x90 }
  - { offset: 0x3798E, size: 0x8, addend: 0x0, symName: __RNvXs2E_NtNtCsieiGu2EXtoJ_4core5slice4iterINtB6_4IterRNtNtCsdGrGZaRBwMb_3syn8generics13LifetimeParamENtNtNtNtBa_4iter6traits8iterator8Iterator4nextCs2h5czzbW9XJ_14asn1_rs_derive, symObjAddr: 0x2800, symBinAddr: 0x1B780, symSize: 0x90 }
  - { offset: 0x39ADB, size: 0x8, addend: 0x0, symName: __RINvXsd_NtCslJiobkLta79_5alloc3vecINtB6_3VecNtCsaKzlTDPUHDb_11proc_macro211TokenStreamEINtNtNtNtCsieiGu2EXtoJ_4core4iter6traits7collect12FromIteratorBG_E9from_iterINtNtNtB1u_8adapters3map3MapINtNtNtB1w_5slice4iter4IterNtNtCs2h5czzbW9XJ_14asn1_rs_derive9container9FieldInfoENCNvB3w_27derive_ber_sequence_content0EEB3y_, symObjAddr: 0x1560, symBinAddr: 0x1A4E0, symSize: 0x40 }
  - { offset: 0x39B1C, size: 0x8, addend: 0x0, symName: __RINvXsd_NtCslJiobkLta79_5alloc3vecINtB6_3VecNtCsaKzlTDPUHDb_11proc_macro211TokenStreamEINtNtNtNtCsieiGu2EXtoJ_4core4iter6traits7collect12FromIteratorBG_E9from_iterINtNtNtB1u_8adapters3map3MapINtNtNtB1w_5slice4iter4IterNtNtCs2h5czzbW9XJ_14asn1_rs_derive9container9FieldInfoENCNvMs1_B3w_NtB3w_9Container20gen_checkconstraints0EEB3y_, symObjAddr: 0x15A0, symBinAddr: 0x1A520, symSize: 0x60 }
  - { offset: 0x39B5C, size: 0x8, addend: 0x0, symName: __RINvXsd_NtCslJiobkLta79_5alloc3vecINtB6_3VecNtNtCs2h5czzbW9XJ_14asn1_rs_derive9container9FieldInfoEINtNtNtNtCsieiGu2EXtoJ_4core4iter6traits7collect12FromIteratorBG_E9from_iterINtNtNtB1G_8adapters3map3MapINtNtCsdGrGZaRBwMb_3syn10punctuated4IterNtNtB3k_4data5FieldENvYBG_INtNtB1I_7convert4FromRB3T_E4fromEEBK_, symObjAddr: 0x1600, symBinAddr: 0x1A580, symSize: 0x60 }
  - { offset: 0x39B9C, size: 0x8, addend: 0x0, symName: __RINvXsd_NtCslJiobkLta79_5alloc3vecINtB6_3VecRNtCsaKzlTDPUHDb_11proc_macro25IdentEINtNtNtNtCsieiGu2EXtoJ_4core4iter6traits7collect12FromIteratorBG_E9from_iterINtNtNtB1o_8adapters3map3MapINtNtNtB1q_5slice4iter4IterNtNtCs2h5czzbW9XJ_14asn1_rs_derive9container9FieldInfoENCNvMs1_B3q_NtB3q_9Container11gen_fromder0EEB3s_, symObjAddr: 0x1660, symBinAddr: 0x1A5E0, symSize: 0x60 }
  - { offset: 0x39BDC, size: 0x8, addend: 0x0, symName: __RINvXsd_NtCslJiobkLta79_5alloc3vecINtB6_3VecRNtCsaKzlTDPUHDb_11proc_macro25IdentEINtNtNtNtCsieiGu2EXtoJ_4core4iter6traits7collect12FromIteratorBG_E9from_iterINtNtNtB1o_8adapters3map3MapINtNtNtB1q_5slice4iter4IterNtNtCs2h5czzbW9XJ_14asn1_rs_derive9container9FieldInfoENCNvMs1_B3q_NtB3q_9Container11gen_tryfrom0EEB3s_, symObjAddr: 0x16C0, symBinAddr: 0x1A640, symSize: 0x60 }
  - { offset: 0x39C1C, size: 0x8, addend: 0x0, symName: __RINvXsd_NtCslJiobkLta79_5alloc3vecINtB6_3VecRNtNtCsdGrGZaRBwMb_3syn8generics13LifetimeParamEINtNtNtNtCsieiGu2EXtoJ_4core4iter6traits7collect12FromIteratorBG_E9from_iterNtBJ_9LifetimesECs2h5czzbW9XJ_14asn1_rs_derive, symObjAddr: 0x1720, symBinAddr: 0x1A6A0, symSize: 0x60 }
  - { offset: 0x39C67, size: 0x8, addend: 0x0, symName: __RNCINvMsi_NtCslJiobkLta79_5alloc3vecINtB8_3VecNtCsaKzlTDPUHDb_11proc_macro211TokenStreamE14extend_trustedINtNtNtNtCsieiGu2EXtoJ_4core4iter8adapters3map3MapINtNtNtB1O_5slice4iter4IterNtNtCs2h5czzbW9XJ_14asn1_rs_derive9container9FieldInfoENCNvB2W_27derive_ber_sequence_content0EE0B2Y_, symObjAddr: 0x1810, symBinAddr: 0x1A790, symSize: 0x50 }
  - { offset: 0x39D24, size: 0x8, addend: 0x0, symName: __RNCINvMsi_NtCslJiobkLta79_5alloc3vecINtB8_3VecNtCsaKzlTDPUHDb_11proc_macro211TokenStreamE14extend_trustedINtNtNtNtCsieiGu2EXtoJ_4core4iter8adapters3map3MapINtNtNtB1O_5slice4iter4IterNtNtCs2h5czzbW9XJ_14asn1_rs_derive9container9FieldInfoENCNvMs1_B2W_NtB2W_9Container20gen_checkconstraints0EE0B2Y_, symObjAddr: 0x1860, symBinAddr: 0x1A7E0, symSize: 0x50 }
  - { offset: 0x39DE1, size: 0x8, addend: 0x0, symName: __RNCINvMsi_NtCslJiobkLta79_5alloc3vecINtB8_3VecRNtCsaKzlTDPUHDb_11proc_macro25IdentE14extend_trustedINtNtNtNtCsieiGu2EXtoJ_4core4iter8adapters3map3MapINtNtNtB1I_5slice4iter4IterNtNtCs2h5czzbW9XJ_14asn1_rs_derive9container9FieldInfoENCNvMs1_B2Q_NtB2Q_9Container11gen_fromder0EE0B2S_, symObjAddr: 0x18B0, symBinAddr: 0x1A830, symSize: 0x30 }
  - { offset: 0x39E89, size: 0x8, addend: 0x0, symName: __RNCINvMsi_NtCslJiobkLta79_5alloc3vecINtB8_3VecRNtCsaKzlTDPUHDb_11proc_macro25IdentE14extend_trustedINtNtNtNtCsieiGu2EXtoJ_4core4iter8adapters3map3MapINtNtNtB1I_5slice4iter4IterNtNtCs2h5czzbW9XJ_14asn1_rs_derive9container9FieldInfoENCNvMs1_B2Q_NtB2Q_9Container11gen_tryfrom0EE0B2S_, symObjAddr: 0x18E0, symBinAddr: 0x1A860, symSize: 0x30 }
  - { offset: 0x39FB5, size: 0x8, addend: 0x0, symName: __RNvNvMs_NtCslJiobkLta79_5alloc3vecINtB6_3VecppE7set_len18precondition_checkCs2h5czzbW9XJ_14asn1_rs_derive, symObjAddr: 0x1E70, symBinAddr: 0x1ADF0, symSize: 0xA0 }
  - { offset: 0x3A029, size: 0x8, addend: 0x0, symName: __RNvXNtNtCslJiobkLta79_5alloc3vec11spec_extendINtB4_3VecNtNtCs2h5czzbW9XJ_14asn1_rs_derive9container9FieldInfoEINtB2_10SpecExtendBR_INtNtNtNtCsieiGu2EXtoJ_4core4iter8adapters3map3MapINtNtCsdGrGZaRBwMb_3syn10punctuated4IterNtNtB2Y_4data5FieldENvYBR_INtNtB2e_7convert4FromRB3x_E4fromEE11spec_extendBV_, symObjAddr: 0x1F10, symBinAddr: 0x1AE90, symSize: 0x20 }
  - { offset: 0x3A07A, size: 0x8, addend: 0x0, symName: __RNvXNtNtCslJiobkLta79_5alloc3vec11spec_extendINtB4_3VecRNtNtCsdGrGZaRBwMb_3syn8generics13LifetimeParamEINtB2_10SpecExtendBR_NtBU_9LifetimesE11spec_extendCs2h5czzbW9XJ_14asn1_rs_derive, symObjAddr: 0x1F30, symBinAddr: 0x1AEB0, symSize: 0x20 }
  - { offset: 0x3A0D1, size: 0x8, addend: 0x0, symName: __RNvXs_NtNtCslJiobkLta79_5alloc3vec11spec_extendINtB6_3VecNtCsaKzlTDPUHDb_11proc_macro211TokenStreamEINtB4_10SpecExtendBT_INtNtNtNtCsieiGu2EXtoJ_4core4iter8adapters3map3MapINtNtNtB24_5slice4iter4IterNtNtCs2h5czzbW9XJ_14asn1_rs_derive9container9FieldInfoENCNvB3c_27derive_ber_sequence_content0EE11spec_extendB3e_, symObjAddr: 0x29D0, symBinAddr: 0x1B950, symSize: 0x20 }
  - { offset: 0x3A123, size: 0x8, addend: 0x0, symName: __RNvXs_NtNtCslJiobkLta79_5alloc3vec11spec_extendINtB6_3VecNtCsaKzlTDPUHDb_11proc_macro211TokenStreamEINtB4_10SpecExtendBT_INtNtNtNtCsieiGu2EXtoJ_4core4iter8adapters3map3MapINtNtNtB24_5slice4iter4IterNtNtCs2h5czzbW9XJ_14asn1_rs_derive9container9FieldInfoENCNvMs1_B3c_NtB3c_9Container20gen_checkconstraints0EE11spec_extendB3e_, symObjAddr: 0x29F0, symBinAddr: 0x1B970, symSize: 0x20 }
  - { offset: 0x3A174, size: 0x8, addend: 0x0, symName: __RNvXs_NtNtCslJiobkLta79_5alloc3vec11spec_extendINtB6_3VecRNtCsaKzlTDPUHDb_11proc_macro25IdentEINtB4_10SpecExtendBT_INtNtNtNtCsieiGu2EXtoJ_4core4iter8adapters3map3MapINtNtNtB1Y_5slice4iter4IterNtNtCs2h5czzbW9XJ_14asn1_rs_derive9container9FieldInfoENCNvMs1_B36_NtB36_9Container11gen_fromder0EE11spec_extendB38_, symObjAddr: 0x2A10, symBinAddr: 0x1B990, symSize: 0x20 }
  - { offset: 0x3A1C5, size: 0x8, addend: 0x0, symName: __RNvXs_NtNtCslJiobkLta79_5alloc3vec11spec_extendINtB6_3VecRNtCsaKzlTDPUHDb_11proc_macro25IdentEINtB4_10SpecExtendBT_INtNtNtNtCsieiGu2EXtoJ_4core4iter8adapters3map3MapINtNtNtB1Y_5slice4iter4IterNtNtCs2h5czzbW9XJ_14asn1_rs_derive9container9FieldInfoENCNvMs1_B36_NtB36_9Container11gen_tryfrom0EE11spec_extendB38_, symObjAddr: 0x2A30, symBinAddr: 0x1B9B0, symSize: 0x20 }
  - { offset: 0x3A222, size: 0x8, addend: 0x0, symName: __RNvXNtNtCslJiobkLta79_5alloc3vec14spec_from_iterINtB4_3VecNtCsaKzlTDPUHDb_11proc_macro211TokenStreamEINtB2_12SpecFromIterBU_INtNtNtNtCsieiGu2EXtoJ_4core4iter8adapters3map3MapINtNtNtB27_5slice4iter4IterNtNtCs2h5czzbW9XJ_14asn1_rs_derive9container9FieldInfoENCNvB3f_27derive_ber_sequence_content0EE9from_iterB3h_, symObjAddr: 0x1F50, symBinAddr: 0x1AED0, symSize: 0x20 }
  - { offset: 0x3A261, size: 0x8, addend: 0x0, symName: __RNvXNtNtCslJiobkLta79_5alloc3vec14spec_from_iterINtB4_3VecNtCsaKzlTDPUHDb_11proc_macro211TokenStreamEINtB2_12SpecFromIterBU_INtNtNtNtCsieiGu2EXtoJ_4core4iter8adapters3map3MapINtNtNtB27_5slice4iter4IterNtNtCs2h5czzbW9XJ_14asn1_rs_derive9container9FieldInfoENCNvMs1_B3f_NtB3f_9Container20gen_checkconstraints0EE9from_iterB3h_, symObjAddr: 0x1F70, symBinAddr: 0x1AEF0, symSize: 0x30 }
  - { offset: 0x3A29F, size: 0x8, addend: 0x0, symName: __RNvXNtNtCslJiobkLta79_5alloc3vec14spec_from_iterINtB4_3VecNtNtCs2h5czzbW9XJ_14asn1_rs_derive9container9FieldInfoEINtB2_12SpecFromIterBU_INtNtNtNtCsieiGu2EXtoJ_4core4iter8adapters3map3MapINtNtCsdGrGZaRBwMb_3syn10punctuated4IterNtNtB33_4data5FieldENvYBU_INtNtB2j_7convert4FromRB3C_E4fromEE9from_iterBY_, symObjAddr: 0x1FA0, symBinAddr: 0x1AF20, symSize: 0x30 }
  - { offset: 0x3A2DD, size: 0x8, addend: 0x0, symName: __RNvXNtNtCslJiobkLta79_5alloc3vec14spec_from_iterINtB4_3VecRNtCsaKzlTDPUHDb_11proc_macro25IdentEINtB2_12SpecFromIterBU_INtNtNtNtCsieiGu2EXtoJ_4core4iter8adapters3map3MapINtNtNtB21_5slice4iter4IterNtNtCs2h5czzbW9XJ_14asn1_rs_derive9container9FieldInfoENCNvMs1_B39_NtB39_9Container11gen_fromder0EE9from_iterB3b_, symObjAddr: 0x1FD0, symBinAddr: 0x1AF50, symSize: 0x30 }
  - { offset: 0x3A31B, size: 0x8, addend: 0x0, symName: __RNvXNtNtCslJiobkLta79_5alloc3vec14spec_from_iterINtB4_3VecRNtCsaKzlTDPUHDb_11proc_macro25IdentEINtB2_12SpecFromIterBU_INtNtNtNtCsieiGu2EXtoJ_4core4iter8adapters3map3MapINtNtNtB21_5slice4iter4IterNtNtCs2h5czzbW9XJ_14asn1_rs_derive9container9FieldInfoENCNvMs1_B39_NtB39_9Container11gen_tryfrom0EE9from_iterB3b_, symObjAddr: 0x2000, symBinAddr: 0x1AF80, symSize: 0x30 }
  - { offset: 0x3A359, size: 0x8, addend: 0x0, symName: __RNvXNtNtCslJiobkLta79_5alloc3vec14spec_from_iterINtB4_3VecRNtNtCsdGrGZaRBwMb_3syn8generics13LifetimeParamEINtB2_12SpecFromIterBU_NtBX_9LifetimesE9from_iterCs2h5czzbW9XJ_14asn1_rs_derive, symObjAddr: 0x2030, symBinAddr: 0x1AFB0, symSize: 0x30 }
  - { offset: 0x3A3A3, size: 0x8, addend: 0x0, symName: __RNvXNtNtCslJiobkLta79_5alloc3vec21spec_from_iter_nestedINtB4_3VecNtNtCs2h5czzbW9XJ_14asn1_rs_derive9container9FieldInfoEINtB2_18SpecFromIterNestedB11_INtNtNtNtCsieiGu2EXtoJ_4core4iter8adapters3map3MapINtNtCsdGrGZaRBwMb_3syn10punctuated4IterNtNtB3h_4data5FieldENvYB11_INtNtB2x_7convert4FromRB3Q_E4fromEE9from_iterB15_, symObjAddr: 0x2060, symBinAddr: 0x1AFE0, symSize: 0x320 }
  - { offset: 0x3A658, size: 0x8, addend: 0x0, symName: __RNvXNtNtCslJiobkLta79_5alloc3vec21spec_from_iter_nestedINtB4_3VecRNtNtCsdGrGZaRBwMb_3syn8generics13LifetimeParamEINtB2_18SpecFromIterNestedB11_NtB14_9LifetimesE9from_iterCs2h5czzbW9XJ_14asn1_rs_derive, symObjAddr: 0x2380, symBinAddr: 0x1B300, symSize: 0x300 }
  - { offset: 0x3A916, size: 0x8, addend: 0x0, symName: __RNvXs_NtNtCslJiobkLta79_5alloc3vec21spec_from_iter_nestedINtB6_3VecNtCsaKzlTDPUHDb_11proc_macro211TokenStreamEINtB4_18SpecFromIterNestedB13_INtNtNtNtCsieiGu2EXtoJ_4core4iter8adapters3map3MapINtNtNtB2n_5slice4iter4IterNtNtCs2h5czzbW9XJ_14asn1_rs_derive9container9FieldInfoENCNvB3v_27derive_ber_sequence_content0EE9from_iterB3x_, symObjAddr: 0x2A50, symBinAddr: 0x1B9D0, symSize: 0x1C0 }
  - { offset: 0x3A9EE, size: 0x8, addend: 0x0, symName: __RNvXs_NtNtCslJiobkLta79_5alloc3vec21spec_from_iter_nestedINtB6_3VecNtCsaKzlTDPUHDb_11proc_macro211TokenStreamEINtB4_18SpecFromIterNestedB13_INtNtNtNtCsieiGu2EXtoJ_4core4iter8adapters3map3MapINtNtNtB2n_5slice4iter4IterNtNtCs2h5czzbW9XJ_14asn1_rs_derive9container9FieldInfoENCNvMs1_B3v_NtB3v_9Container20gen_checkconstraints0EE9from_iterB3x_, symObjAddr: 0x2C10, symBinAddr: 0x1BB90, symSize: 0x1B0 }
  - { offset: 0x3AAC6, size: 0x8, addend: 0x0, symName: __RNvXs_NtNtCslJiobkLta79_5alloc3vec21spec_from_iter_nestedINtB6_3VecRNtCsaKzlTDPUHDb_11proc_macro25IdentEINtB4_18SpecFromIterNestedB13_INtNtNtNtCsieiGu2EXtoJ_4core4iter8adapters3map3MapINtNtNtB2h_5slice4iter4IterNtNtCs2h5czzbW9XJ_14asn1_rs_derive9container9FieldInfoENCNvMs1_B3p_NtB3p_9Container11gen_fromder0EE9from_iterB3r_, symObjAddr: 0x2DC0, symBinAddr: 0x1BD40, symSize: 0x1A0 }
  - { offset: 0x3AB9E, size: 0x8, addend: 0x0, symName: __RNvXs_NtNtCslJiobkLta79_5alloc3vec21spec_from_iter_nestedINtB6_3VecRNtCsaKzlTDPUHDb_11proc_macro25IdentEINtB4_18SpecFromIterNestedB13_INtNtNtNtCsieiGu2EXtoJ_4core4iter8adapters3map3MapINtNtNtB2h_5slice4iter4IterNtNtCs2h5czzbW9XJ_14asn1_rs_derive9container9FieldInfoENCNvMs1_B3p_NtB3p_9Container11gen_tryfrom0EE9from_iterB3r_, symObjAddr: 0x2F60, symBinAddr: 0x1BEE0, symSize: 0x1A0 }
  - { offset: 0x3AC7D, size: 0x8, addend: 0x0, symName: __RNvXs6_NtCslJiobkLta79_5alloc3vecINtB5_3VecNtCsaKzlTDPUHDb_11proc_macro211TokenStreamENtNtNtCsieiGu2EXtoJ_4core3ops5deref5Deref5derefCs2h5czzbW9XJ_14asn1_rs_derive, symObjAddr: 0x2950, symBinAddr: 0x1B8D0, symSize: 0x20 }
  - { offset: 0x3ACBD, size: 0x8, addend: 0x0, symName: __RNvXs6_NtCslJiobkLta79_5alloc3vecINtB5_3VecNtNtCs2h5czzbW9XJ_14asn1_rs_derive9container9FieldInfoENtNtNtCsieiGu2EXtoJ_4core3ops5deref5Deref5derefBJ_, symObjAddr: 0x2970, symBinAddr: 0x1B8F0, symSize: 0x20 }
  - { offset: 0x3ACFD, size: 0x8, addend: 0x0, symName: __RNvXs6_NtCslJiobkLta79_5alloc3vecINtB5_3VecRNtCsaKzlTDPUHDb_11proc_macro25IdentENtNtNtCsieiGu2EXtoJ_4core3ops5deref5Deref5derefCs2h5czzbW9XJ_14asn1_rs_derive, symObjAddr: 0x2990, symBinAddr: 0x1B910, symSize: 0x20 }
  - { offset: 0x3AD3D, size: 0x8, addend: 0x0, symName: __RNvXs6_NtCslJiobkLta79_5alloc3vecINtB5_3VecRNtNtCsdGrGZaRBwMb_3syn8generics13LifetimeParamENtNtNtCsieiGu2EXtoJ_4core3ops5deref5Deref5derefCs2h5czzbW9XJ_14asn1_rs_derive, symObjAddr: 0x29B0, symBinAddr: 0x1B930, symSize: 0x20 }
  - { offset: 0x3ADE3, size: 0x8, addend: 0x0, symName: __RNvXsb_NtCslJiobkLta79_5alloc3vecINtB5_3VecNtNtCs2h5czzbW9XJ_14asn1_rs_derive9container9FieldInfoEINtNtNtCsieiGu2EXtoJ_4core3ops5index5IndexjE5indexBJ_, symObjAddr: 0x3100, symBinAddr: 0x1C080, symSize: 0x80 }
  - { offset: 0x3AF65, size: 0x8, addend: 0x0, symName: __RNvXsb_NtCslJiobkLta79_5alloc3vecINtB5_3VecTNtNtCsdGrGZaRBwMb_3syn4data5FieldNtNtBK_5token5CommaEEINtNtNtCsieiGu2EXtoJ_4core3ops5index5IndexjE5indexCs2h5czzbW9XJ_14asn1_rs_derive, symObjAddr: 0x3180, symBinAddr: 0x1C100, symSize: 0x80 }
  - { offset: 0x3B0ED, size: 0x8, addend: 0x0, symName: __RNvXsn_NtCslJiobkLta79_5alloc3vecINtB5_3VecNtCsaKzlTDPUHDb_11proc_macro211TokenStreamENtNtNtCsieiGu2EXtoJ_4core3ops4drop4Drop4dropCs2h5czzbW9XJ_14asn1_rs_derive, symObjAddr: 0x3200, symBinAddr: 0x1C180, symSize: 0x30 }
  - { offset: 0x3B19D, size: 0x8, addend: 0x0, symName: __RNvXsn_NtCslJiobkLta79_5alloc3vecINtB5_3VecNtNtCs2h5czzbW9XJ_14asn1_rs_derive9container9FieldInfoENtNtNtCsieiGu2EXtoJ_4core3ops4drop4Drop4dropBJ_, symObjAddr: 0x3230, symBinAddr: 0x1C1B0, symSize: 0x30 }
  - { offset: 0x3B24D, size: 0x8, addend: 0x0, symName: __RNvXsn_NtCslJiobkLta79_5alloc3vecINtB5_3VecNtNtCsdGrGZaRBwMb_3syn8generics14WherePredicateENtNtNtCsieiGu2EXtoJ_4core3ops4drop4Drop4dropCs2h5czzbW9XJ_14asn1_rs_derive, symObjAddr: 0x3260, symBinAddr: 0x1C1E0, symSize: 0x30 }
  - { offset: 0x3B2FD, size: 0x8, addend: 0x0, symName: __RNvXsn_NtCslJiobkLta79_5alloc3vecINtB5_3VecRNtNtCsdGrGZaRBwMb_3syn8generics13LifetimeParamENtNtNtCsieiGu2EXtoJ_4core3ops4drop4Drop4dropCs2h5czzbW9XJ_14asn1_rs_derive, symObjAddr: 0x3290, symBinAddr: 0x1C210, symSize: 0x20 }
  - { offset: 0x40852, size: 0x8, addend: 0x0, symName: __RINvMsi_NtCslJiobkLta79_5alloc3vecINtB6_3VecNtCsaKzlTDPUHDb_11proc_macro211TokenStreamE14extend_trustedINtNtNtNtCsieiGu2EXtoJ_4core4iter8adapters3map3MapINtNtNtB1M_5slice4iter4IterNtNtCs2h5czzbW9XJ_14asn1_rs_derive9container9FieldInfoENCNvB2U_27derive_ber_sequence_content0EEB2W_, symObjAddr: 0x0, symBinAddr: 0x18F80, symSize: 0x1C0 }
  - { offset: 0x40B09, size: 0x8, addend: 0x0, symName: __RINvMsi_NtCslJiobkLta79_5alloc3vecINtB6_3VecNtCsaKzlTDPUHDb_11proc_macro211TokenStreamE14extend_trustedINtNtNtNtCsieiGu2EXtoJ_4core4iter8adapters3map3MapINtNtNtB1M_5slice4iter4IterNtNtCs2h5czzbW9XJ_14asn1_rs_derive9container9FieldInfoENCNvMs1_B2U_NtB2U_9Container20gen_checkconstraints0EEB2W_, symObjAddr: 0x1C0, symBinAddr: 0x19140, symSize: 0x1A0 }
  - { offset: 0x40EF8, size: 0x8, addend: 0x0, symName: __RINvMsi_NtCslJiobkLta79_5alloc3vecINtB6_3VecNtNtCs2h5czzbW9XJ_14asn1_rs_derive9container9FieldInfoE16extend_desugaredINtNtNtNtCsieiGu2EXtoJ_4core4iter8adapters3map3MapINtNtCsdGrGZaRBwMb_3syn10punctuated4IterNtNtB2K_4data5FieldENvYBG_INtNtB20_7convert4FromRB3j_E4fromEEBK_, symObjAddr: 0x360, symBinAddr: 0x192E0, symSize: 0x250 }
  - { offset: 0x412B6, size: 0x8, addend: 0x0, symName: __RINvMsi_NtCslJiobkLta79_5alloc3vecINtB6_3VecRNtCsaKzlTDPUHDb_11proc_macro25IdentE14extend_trustedINtNtNtNtCsieiGu2EXtoJ_4core4iter8adapters3map3MapINtNtNtB1G_5slice4iter4IterNtNtCs2h5czzbW9XJ_14asn1_rs_derive9container9FieldInfoENCNvMs1_B2O_NtB2O_9Container11gen_fromder0EEB2Q_, symObjAddr: 0x5B0, symBinAddr: 0x19530, symSize: 0x1A0 }
  - { offset: 0x4156D, size: 0x8, addend: 0x0, symName: __RINvMsi_NtCslJiobkLta79_5alloc3vecINtB6_3VecRNtCsaKzlTDPUHDb_11proc_macro25IdentE14extend_trustedINtNtNtNtCsieiGu2EXtoJ_4core4iter8adapters3map3MapINtNtNtB1G_5slice4iter4IterNtNtCs2h5czzbW9XJ_14asn1_rs_derive9container9FieldInfoENCNvMs1_B2O_NtB2O_9Container11gen_tryfrom0EEB2Q_, symObjAddr: 0x750, symBinAddr: 0x196D0, symSize: 0x1A0 }
  - { offset: 0x41937, size: 0x8, addend: 0x0, symName: __RINvMsi_NtCslJiobkLta79_5alloc3vecINtB6_3VecRNtNtCsdGrGZaRBwMb_3syn8generics13LifetimeParamE16extend_desugaredNtBJ_9LifetimesECs2h5czzbW9XJ_14asn1_rs_derive, symObjAddr: 0x8F0, symBinAddr: 0x19870, symSize: 0x230 }
  - { offset: 0x41DB1, size: 0x8, addend: 0x0, symName: __RNvMs4_NtNtCsieiGu2EXtoJ_4core5slice4iterINtB5_4IterNtCsaKzlTDPUHDb_11proc_macro211TokenStreamE3newCs2h5czzbW9XJ_14asn1_rs_derive, symObjAddr: 0x1910, symBinAddr: 0x1A890, symSize: 0x50 }
  - { offset: 0x41F51, size: 0x8, addend: 0x0, symName: __RNvMs4_NtNtCsieiGu2EXtoJ_4core5slice4iterINtB5_4IterNtNtCs2h5czzbW9XJ_14asn1_rs_derive9container9FieldInfoE3newBS_, symObjAddr: 0x1960, symBinAddr: 0x1A8E0, symSize: 0x50 }
  - { offset: 0x420FE, size: 0x8, addend: 0x0, symName: __RNvMs4_NtNtCsieiGu2EXtoJ_4core5slice4iterINtB5_4IterRNtCsaKzlTDPUHDb_11proc_macro25IdentE3newCs2h5czzbW9XJ_14asn1_rs_derive, symObjAddr: 0x19B0, symBinAddr: 0x1A930, symSize: 0x50 }
  - { offset: 0x422AB, size: 0x8, addend: 0x0, symName: __RNvMs4_NtNtCsieiGu2EXtoJ_4core5slice4iterINtB5_4IterRNtNtCsdGrGZaRBwMb_3syn8generics13LifetimeParamE3newCs2h5czzbW9XJ_14asn1_rs_derive, symObjAddr: 0x1A00, symBinAddr: 0x1A980, symSize: 0x50 }
  - { offset: 0x424D9, size: 0x8, addend: 0x0, symName: __RNvMs_NtCslJiobkLta79_5alloc3vecINtB4_3VecNtCsaKzlTDPUHDb_11proc_macro211TokenStreamE7reserveCs2h5czzbW9XJ_14asn1_rs_derive, symObjAddr: 0x1A50, symBinAddr: 0x1A9D0, symSize: 0xB0 }
  - { offset: 0x426C3, size: 0x8, addend: 0x0, symName: __RNvMs_NtCslJiobkLta79_5alloc3vecINtB4_3VecNtCsaKzlTDPUHDb_11proc_macro211TokenStreamE8as_sliceCs2h5czzbW9XJ_14asn1_rs_derive, symObjAddr: 0x1B00, symBinAddr: 0x1AA80, symSize: 0x50 }
  - { offset: 0x42893, size: 0x8, addend: 0x0, symName: __RNvMs_NtCslJiobkLta79_5alloc3vecINtB4_3VecNtNtCs2h5czzbW9XJ_14asn1_rs_derive9container9FieldInfoE7reserveBI_, symObjAddr: 0x1B50, symBinAddr: 0x1AAD0, symSize: 0xB0 }
  - { offset: 0x42A70, size: 0x8, addend: 0x0, symName: __RNvMs_NtCslJiobkLta79_5alloc3vecINtB4_3VecNtNtCs2h5czzbW9XJ_14asn1_rs_derive9container9FieldInfoE8as_sliceBI_, symObjAddr: 0x1C00, symBinAddr: 0x1AB80, symSize: 0x50 }
  - { offset: 0x42C40, size: 0x8, addend: 0x0, symName: __RNvMs_NtCslJiobkLta79_5alloc3vecINtB4_3VecRNtCsaKzlTDPUHDb_11proc_macro25IdentE7reserveCs2h5czzbW9XJ_14asn1_rs_derive, symObjAddr: 0x1C50, symBinAddr: 0x1ABD0, symSize: 0xB0 }
  - { offset: 0x42E2A, size: 0x8, addend: 0x0, symName: __RNvMs_NtCslJiobkLta79_5alloc3vecINtB4_3VecRNtCsaKzlTDPUHDb_11proc_macro25IdentE8as_sliceCs2h5czzbW9XJ_14asn1_rs_derive, symObjAddr: 0x1D00, symBinAddr: 0x1AC80, symSize: 0x50 }
  - { offset: 0x42FFA, size: 0x8, addend: 0x0, symName: __RNvMs_NtCslJiobkLta79_5alloc3vecINtB4_3VecRNtNtCsdGrGZaRBwMb_3syn8generics13LifetimeParamE7reserveCs2h5czzbW9XJ_14asn1_rs_derive, symObjAddr: 0x1D50, symBinAddr: 0x1ACD0, symSize: 0xB0 }
  - { offset: 0x431D7, size: 0x8, addend: 0x0, symName: __RNvMs_NtCslJiobkLta79_5alloc3vecINtB4_3VecRNtNtCsdGrGZaRBwMb_3syn8generics13LifetimeParamE8as_sliceCs2h5czzbW9XJ_14asn1_rs_derive, symObjAddr: 0x1E00, symBinAddr: 0x1AD80, symSize: 0x50 }
  - { offset: 0x432B6, size: 0x8, addend: 0x0, symName: __RNvMs_NtCslJiobkLta79_5alloc3vecINtB4_3VecRNtNtCsdGrGZaRBwMb_3syn8generics13LifetimeParamE8is_emptyCs2h5czzbW9XJ_14asn1_rs_derive, symObjAddr: 0x1E50, symBinAddr: 0x1ADD0, symSize: 0x20 }
  - { offset: 0x437DD, size: 0x8, addend: 0x0, symName: __RNvXs4_NtNtCs9OU1sGv5X54_5quote9___private3extINtNtCslJiobkLta79_5alloc3vec3VecNtCsaKzlTDPUHDb_11proc_macro211TokenStreamENtB5_16RepAsIteratorExt15quote_into_iterCs2h5czzbW9XJ_14asn1_rs_derive, symObjAddr: 0x2890, symBinAddr: 0x1B810, symSize: 0x30 }
  - { offset: 0x43812, size: 0x8, addend: 0x0, symName: __RNvXs4_NtNtCs9OU1sGv5X54_5quote9___private3extINtNtCslJiobkLta79_5alloc3vec3VecNtNtCsdGrGZaRBwMb_3syn8generics14WherePredicateENtB5_16RepAsIteratorExt15quote_into_iterCs2h5czzbW9XJ_14asn1_rs_derive, symObjAddr: 0x28C0, symBinAddr: 0x1B840, symSize: 0x30 }
  - { offset: 0x43847, size: 0x8, addend: 0x0, symName: __RNvXs4_NtNtCs9OU1sGv5X54_5quote9___private3extINtNtCslJiobkLta79_5alloc3vec3VecRNtCsaKzlTDPUHDb_11proc_macro25IdentENtB5_16RepAsIteratorExt15quote_into_iterCs2h5czzbW9XJ_14asn1_rs_derive, symObjAddr: 0x28F0, symBinAddr: 0x1B870, symSize: 0x30 }
  - { offset: 0x4387C, size: 0x8, addend: 0x0, symName: __RNvXs4_NtNtCs9OU1sGv5X54_5quote9___private3extINtNtCslJiobkLta79_5alloc3vec3VecRNtNtCsdGrGZaRBwMb_3syn8generics13LifetimeParamENtB5_16RepAsIteratorExt15quote_into_iterCs2h5czzbW9XJ_14asn1_rs_derive, symObjAddr: 0x2920, symBinAddr: 0x1B8A0, symSize: 0x30 }
  - { offset: 0x4401B, size: 0x8, addend: 0x0, symName: __RINvNtNtCsdGrGZaRBwMb_3syn3gen5visit10visit_exprNtNvCs4L8YLU89NU9_12synstructure13get_ty_params16BoundTypeLocatorEBO_, symObjAddr: 0x0, symBinAddr: 0x1C2A0, symSize: 0x770 }
  - { offset: 0x44972, size: 0x8, addend: 0x0, symName: __RINvNtNtCsdGrGZaRBwMb_3syn3gen5visit10visit_exprNtNvCs4L8YLU89NU9_12synstructure13get_ty_params16BoundTypeLocatorEBO_, symObjAddr: 0x0, symBinAddr: 0x1C2A0, symSize: 0x770 }
  - { offset: 0x44E7E, size: 0x8, addend: 0x0, symName: __RINvNtNtCsdGrGZaRBwMb_3syn3gen5visit10visit_itemNtNvCs4L8YLU89NU9_12synstructure13get_ty_params16BoundTypeLocatorEBO_, symObjAddr: 0x770, symBinAddr: 0x1CA10, symSize: 0x320 }
  - { offset: 0x450A2, size: 0x8, addend: 0x0, symName: __RINvNtNtCsdGrGZaRBwMb_3syn3gen5visit10visit_metaNtNvCs4L8YLU89NU9_12synstructure13get_ty_params16BoundTypeLocatorEBO_, symObjAddr: 0xA90, symBinAddr: 0x1CD30, symSize: 0xB0 }
  - { offset: 0x45136, size: 0x8, addend: 0x0, symName: __RINvNtNtCsdGrGZaRBwMb_3syn3gen5visit10visit_pathNtNvCs4L8YLU89NU9_12synstructure13get_ty_params16BoundTypeLocatorEBO_, symObjAddr: 0xB40, symBinAddr: 0x1CDE0, symSize: 0xB0 }
  - { offset: 0x451D3, size: 0x8, addend: 0x0, symName: __RINvNtNtCsdGrGZaRBwMb_3syn3gen5visit10visit_stmtNtNvCs4L8YLU89NU9_12synstructure13get_ty_params16BoundTypeLocatorEBO_, symObjAddr: 0xBF0, symBinAddr: 0x1CE90, symSize: 0xF0 }
  - { offset: 0x45295, size: 0x8, addend: 0x0, symName: __RINvNtNtCsdGrGZaRBwMb_3syn3gen5visit10visit_typeNtNvCs4L8YLU89NU9_12synstructure13get_ty_params16BoundTypeLocatorEBO_, symObjAddr: 0xCE0, symBinAddr: 0x1CF80, symSize: 0x2F0 }
  - { offset: 0x4549A, size: 0x8, addend: 0x0, symName: __RINvNtNtCsdGrGZaRBwMb_3syn3gen5visit11visit_blockNtNvCs4L8YLU89NU9_12synstructure13get_ty_params16BoundTypeLocatorEBP_, symObjAddr: 0xFD0, symBinAddr: 0x1D270, symSize: 0x80 }
  - { offset: 0x45518, size: 0x8, addend: 0x0, symName: __RINvNtNtCsdGrGZaRBwMb_3syn3gen5visit11visit_fieldNtNvCs4L8YLU89NU9_12synstructure13get_ty_params16BoundTypeLocatorEBP_, symObjAddr: 0x1050, symBinAddr: 0x1D2F0, symSize: 0x110 }
  - { offset: 0x455B4, size: 0x8, addend: 0x0, symName: __RINvNtNtCsdGrGZaRBwMb_3syn3gen5visit11visit_indexNtNvCs4L8YLU89NU9_12synstructure13get_ty_params16BoundTypeLocatorEBP_, symObjAddr: 0x1160, symBinAddr: 0x1D400, symSize: 0x30 }
  - { offset: 0x455F6, size: 0x8, addend: 0x0, symName: __RINvNtNtCsdGrGZaRBwMb_3syn3gen5visit11visit_labelNtNvCs4L8YLU89NU9_12synstructure13get_ty_params16BoundTypeLocatorEBP_, symObjAddr: 0x1190, symBinAddr: 0x1D430, symSize: 0x30 }
  - { offset: 0x45638, size: 0x8, addend: 0x0, symName: __RINvNtNtCsdGrGZaRBwMb_3syn3gen5visit11visit_localNtNvCs4L8YLU89NU9_12synstructure13get_ty_params16BoundTypeLocatorEBP_, symObjAddr: 0x11C0, symBinAddr: 0x1D460, symSize: 0xE0 }
  - { offset: 0x456D4, size: 0x8, addend: 0x0, symName: __RINvNtNtCsdGrGZaRBwMb_3syn3gen5visit11visit_macroNtNvCs4L8YLU89NU9_12synstructure13get_ty_params16BoundTypeLocatorEBP_, symObjAddr: 0x12A0, symBinAddr: 0x1D540, symSize: 0x50 }
  - { offset: 0x45716, size: 0x8, addend: 0x0, symName: __RINvNtNtCsdGrGZaRBwMb_3syn3gen5visit11visit_qselfNtNvCs4L8YLU89NU9_12synstructure13get_ty_params16BoundTypeLocatorEBP_, symObjAddr: 0x12F0, symBinAddr: 0x1D590, symSize: 0x80 }
  - { offset: 0x45758, size: 0x8, addend: 0x0, symName: __RINvNtNtCsdGrGZaRBwMb_3syn3gen5visit11visit_un_opNtNvCs4L8YLU89NU9_12synstructure13get_ty_params16BoundTypeLocatorEBP_, symObjAddr: 0x1370, symBinAddr: 0x1D610, symSize: 0x70 }
  - { offset: 0x4579A, size: 0x8, addend: 0x0, symName: __RINvNtNtCsdGrGZaRBwMb_3syn3gen5visit12visit_bin_opNtNvCs4L8YLU89NU9_12synstructure13get_ty_params16BoundTypeLocatorEBQ_, symObjAddr: 0x13E0, symBinAddr: 0x1D680, symSize: 0x3E0 }
  - { offset: 0x457DE, size: 0x8, addend: 0x0, symName: __RINvNtNtCsdGrGZaRBwMb_3syn3gen5visit12visit_fieldsNtNvCs4L8YLU89NU9_12synstructure13get_ty_params16BoundTypeLocatorEBQ_, symObjAddr: 0x17C0, symBinAddr: 0x1DA60, symSize: 0x90 }
  - { offset: 0x4585C, size: 0x8, addend: 0x0, symName: __RINvNtNtCsdGrGZaRBwMb_3syn3gen5visit12visit_fn_argNtNvCs4L8YLU89NU9_12synstructure13get_ty_params16BoundTypeLocatorEBQ_, symObjAddr: 0x1850, symBinAddr: 0x1DAF0, symSize: 0x80 }
  - { offset: 0x458D2, size: 0x8, addend: 0x0, symName: __RINvNtNtCsdGrGZaRBwMb_3syn3gen5visit12visit_memberNtNvCs4L8YLU89NU9_12synstructure13get_ty_params16BoundTypeLocatorEBQ_, symObjAddr: 0x18D0, symBinAddr: 0x1DB70, symSize: 0x70 }
  - { offset: 0x45948, size: 0x8, addend: 0x0, symName: __RINvNtNtCsdGrGZaRBwMb_3syn3gen5visit12visit_pat_orNtNvCs4L8YLU89NU9_12synstructure13get_ty_params16BoundTypeLocatorEBQ_, symObjAddr: 0x1940, symBinAddr: 0x1DBE0, symSize: 0x140 }
  - { offset: 0x45A22, size: 0x8, addend: 0x0, symName: __RINvNtNtCsdGrGZaRBwMb_3syn3gen5visit13visit_expr_ifNtNvCs4L8YLU89NU9_12synstructure13get_ty_params16BoundTypeLocatorEBR_, symObjAddr: 0x1A80, symBinAddr: 0x1DD20, symSize: 0x190 }
  - { offset: 0x45AB6, size: 0x8, addend: 0x0, symName: __RINvNtNtCsdGrGZaRBwMb_3syn3gen5visit13visit_item_fnNtNvCs4L8YLU89NU9_12synstructure13get_ty_params16BoundTypeLocatorEBR_, symObjAddr: 0x1C10, symBinAddr: 0x1DEB0, symSize: 0x110 }
  - { offset: 0x45B34, size: 0x8, addend: 0x0, symName: __RINvNtNtCsdGrGZaRBwMb_3syn3gen5visit13visit_lit_intNtNvCs4L8YLU89NU9_12synstructure13get_ty_params16BoundTypeLocatorEBR_, symObjAddr: 0x1D20, symBinAddr: 0x1DFC0, symSize: 0x20 }
  - { offset: 0x45B76, size: 0x8, addend: 0x0, symName: __RINvNtNtCsdGrGZaRBwMb_3syn3gen5visit13visit_lit_strNtNvCs4L8YLU89NU9_12synstructure13get_ty_params16BoundTypeLocatorEBR_, symObjAddr: 0x1D40, symBinAddr: 0x1DFE0, symSize: 0x20 }
  - { offset: 0x45BB8, size: 0x8, addend: 0x0, symName: __RINvNtNtCsdGrGZaRBwMb_3syn3gen5visit13visit_variantNtNvCs4L8YLU89NU9_12synstructure13get_ty_params16BoundTypeLocatorEBR_, symObjAddr: 0x1D60, symBinAddr: 0x1E000, symSize: 0xF0 }
  - { offset: 0x45C54, size: 0x8, addend: 0x0, symName: __RINvNtNtCsdGrGZaRBwMb_3syn3gen5visit14visit_expr_letNtNvCs4L8YLU89NU9_12synstructure13get_ty_params16BoundTypeLocatorEBS_, symObjAddr: 0x1E50, symBinAddr: 0x1E0F0, symSize: 0x140 }
  - { offset: 0x45CD2, size: 0x8, addend: 0x0, symName: __RINvNtNtCsdGrGZaRBwMb_3syn3gen5visit14visit_expr_litNtNvCs4L8YLU89NU9_12synstructure13get_ty_params16BoundTypeLocatorEBS_, symObjAddr: 0x1F90, symBinAddr: 0x1E230, symSize: 0xA0 }
  - { offset: 0x45D50, size: 0x8, addend: 0x0, symName: __RINvNtNtCsdGrGZaRBwMb_3syn3gen5visit14visit_expr_tryNtNvCs4L8YLU89NU9_12synstructure13get_ty_params16BoundTypeLocatorEBS_, symObjAddr: 0x2030, symBinAddr: 0x1E2D0, symSize: 0xE0 }
  - { offset: 0x45DCE, size: 0x8, addend: 0x0, symName: __RINvNtNtCsdGrGZaRBwMb_3syn3gen5visit14visit_genericsNtNvCs4L8YLU89NU9_12synstructure13get_ty_params16BoundTypeLocatorEBS_, symObjAddr: 0x2110, symBinAddr: 0x1E3B0, symSize: 0x110 }
  - { offset: 0x45E89, size: 0x8, addend: 0x0, symName: __RINvNtNtCsdGrGZaRBwMb_3syn3gen5visit14visit_item_modNtNvCs4L8YLU89NU9_12synstructure13get_ty_params16BoundTypeLocatorEBS_, symObjAddr: 0x2220, symBinAddr: 0x1E4C0, symSize: 0x150 }
  - { offset: 0x45F52, size: 0x8, addend: 0x0, symName: __RINvNtNtCsdGrGZaRBwMb_3syn3gen5visit14visit_item_useNtNvCs4L8YLU89NU9_12synstructure13get_ty_params16BoundTypeLocatorEBS_, symObjAddr: 0x2370, symBinAddr: 0x1E610, symSize: 0xB0 }
  - { offset: 0x45FD0, size: 0x8, addend: 0x0, symName: __RINvNtNtCsdGrGZaRBwMb_3syn3gen5visit14visit_lifetimeNtNvCs4L8YLU89NU9_12synstructure13get_ty_params16BoundTypeLocatorEBS_, symObjAddr: 0x2420, symBinAddr: 0x1E6C0, symSize: 0x40 }
  - { offset: 0x46012, size: 0x8, addend: 0x0, symName: __RINvNtNtCsdGrGZaRBwMb_3syn3gen5visit14visit_lit_boolNtNvCs4L8YLU89NU9_12synstructure13get_ty_params16BoundTypeLocatorEBS_, symObjAddr: 0x2460, symBinAddr: 0x1E700, symSize: 0x30 }
  - { offset: 0x46054, size: 0x8, addend: 0x0, symName: __RINvNtNtCsdGrGZaRBwMb_3syn3gen5visit14visit_lit_byteNtNvCs4L8YLU89NU9_12synstructure13get_ty_params16BoundTypeLocatorEBS_, symObjAddr: 0x2490, symBinAddr: 0x1E730, symSize: 0x20 }
  - { offset: 0x46096, size: 0x8, addend: 0x0, symName: __RINvNtNtCsdGrGZaRBwMb_3syn3gen5visit14visit_lit_charNtNvCs4L8YLU89NU9_12synstructure13get_ty_params16BoundTypeLocatorEBS_, symObjAddr: 0x24B0, symBinAddr: 0x1E750, symSize: 0x20 }
  - { offset: 0x460D8, size: 0x8, addend: 0x0, symName: __RINvNtNtCsdGrGZaRBwMb_3syn3gen5visit14visit_lit_cstrNtNvCs4L8YLU89NU9_12synstructure13get_ty_params16BoundTypeLocatorEBS_, symObjAddr: 0x24D0, symBinAddr: 0x1E770, symSize: 0x20 }
  - { offset: 0x4611A, size: 0x8, addend: 0x0, symName: __RINvNtNtCsdGrGZaRBwMb_3syn3gen5visit14visit_pat_restNtNvCs4L8YLU89NU9_12synstructure13get_ty_params16BoundTypeLocatorEBS_, symObjAddr: 0x24F0, symBinAddr: 0x1E790, symSize: 0x80 }
  - { offset: 0x46198, size: 0x8, addend: 0x0, symName: __RINvNtNtCsdGrGZaRBwMb_3syn3gen5visit14visit_pat_typeNtNvCs4L8YLU89NU9_12synstructure13get_ty_params16BoundTypeLocatorEBS_, symObjAddr: 0x2570, symBinAddr: 0x1E810, symSize: 0x140 }
  - { offset: 0x46216, size: 0x8, addend: 0x0, symName: __RINvNtNtCsdGrGZaRBwMb_3syn3gen5visit14visit_pat_wildNtNvCs4L8YLU89NU9_12synstructure13get_ty_params16BoundTypeLocatorEBS_, symObjAddr: 0x26B0, symBinAddr: 0x1E950, symSize: 0x80 }
  - { offset: 0x46294, size: 0x8, addend: 0x0, symName: __RINvNtNtCsdGrGZaRBwMb_3syn3gen5visit14visit_receiverNtNvCs4L8YLU89NU9_12synstructure13get_ty_params16BoundTypeLocatorEBS_, symObjAddr: 0x2730, symBinAddr: 0x1E9D0, symSize: 0x160 }
  - { offset: 0x4633E, size: 0x8, addend: 0x0, symName: __RINvNtNtCsdGrGZaRBwMb_3syn3gen5visit14visit_type_ptrNtNvCs4L8YLU89NU9_12synstructure13get_ty_params16BoundTypeLocatorEBS_, symObjAddr: 0x2890, symBinAddr: 0x1EB30, symSize: 0x80 }
  - { offset: 0x46380, size: 0x8, addend: 0x0, symName: __RINvNtNtCsdGrGZaRBwMb_3syn3gen5visit14visit_use_globNtNvCs4L8YLU89NU9_12synstructure13get_ty_params16BoundTypeLocatorEBS_, symObjAddr: 0x2910, symBinAddr: 0x1EBB0, symSize: 0x20 }
  - { offset: 0x463C2, size: 0x8, addend: 0x0, symName: __RINvNtNtCsdGrGZaRBwMb_3syn3gen5visit14visit_use_nameNtNvCs4L8YLU89NU9_12synstructure13get_ty_params16BoundTypeLocatorEBS_, symObjAddr: 0x2930, symBinAddr: 0x1EBD0, symSize: 0x30 }
  - { offset: 0x46404, size: 0x8, addend: 0x0, symName: __RINvNtNtCsdGrGZaRBwMb_3syn3gen5visit14visit_use_pathNtNvCs4L8YLU89NU9_12synstructure13get_ty_params16BoundTypeLocatorEBS_, symObjAddr: 0x2960, symBinAddr: 0x1EC00, symSize: 0x90 }
  - { offset: 0x46446, size: 0x8, addend: 0x0, symName: __RINvNtNtCsdGrGZaRBwMb_3syn3gen5visit14visit_use_treeNtNvCs4L8YLU89NU9_12synstructure13get_ty_params16BoundTypeLocatorEBS_, symObjAddr: 0x29F0, symBinAddr: 0x1EC90, symSize: 0xF0 }
  - { offset: 0x46516, size: 0x8, addend: 0x0, symName: __RINvNtNtCsdGrGZaRBwMb_3syn3gen5visit14visit_variadicNtNvCs4L8YLU89NU9_12synstructure13get_ty_params16BoundTypeLocatorEBS_, symObjAddr: 0x2AE0, symBinAddr: 0x1ED80, symSize: 0x120 }
  - { offset: 0x465AA, size: 0x8, addend: 0x0, symName: __RINvNtNtCsdGrGZaRBwMb_3syn3gen5visit15visit_attributeNtNvCs4L8YLU89NU9_12synstructure13get_ty_params16BoundTypeLocatorEBT_, symObjAddr: 0x2C00, symBinAddr: 0x1EEA0, symSize: 0x40 }
  - { offset: 0x465EC, size: 0x8, addend: 0x0, symName: __RINvNtNtCsdGrGZaRBwMb_3syn3gen5visit15visit_expr_callNtNvCs4L8YLU89NU9_12synstructure13get_ty_params16BoundTypeLocatorEBT_, symObjAddr: 0x2C40, symBinAddr: 0x1EEE0, symSize: 0x1B0 }
  - { offset: 0x466BE, size: 0x8, addend: 0x0, symName: __RINvNtNtCsdGrGZaRBwMb_3syn3gen5visit15visit_expr_castNtNvCs4L8YLU89NU9_12synstructure13get_ty_params16BoundTypeLocatorEBT_, symObjAddr: 0x2DF0, symBinAddr: 0x1F090, symSize: 0x140 }
  - { offset: 0x4673C, size: 0x8, addend: 0x0, symName: __RINvNtNtCsdGrGZaRBwMb_3syn3gen5visit15visit_expr_loopNtNvCs4L8YLU89NU9_12synstructure13get_ty_params16BoundTypeLocatorEBT_, symObjAddr: 0x2F30, symBinAddr: 0x1F1D0, symSize: 0xE0 }
  - { offset: 0x467D8, size: 0x8, addend: 0x0, symName: __RINvNtNtCsdGrGZaRBwMb_3syn3gen5visit15visit_expr_pathNtNvCs4L8YLU89NU9_12synstructure13get_ty_params16BoundTypeLocatorEBT_, symObjAddr: 0x3010, symBinAddr: 0x1F2B0, symSize: 0xE0 }
  - { offset: 0x46874, size: 0x8, addend: 0x0, symName: __RINvNtNtCsdGrGZaRBwMb_3syn3gen5visit15visit_field_patNtNvCs4L8YLU89NU9_12synstructure13get_ty_params16BoundTypeLocatorEBT_, symObjAddr: 0x30F0, symBinAddr: 0x1F390, symSize: 0xF0 }
  - { offset: 0x468F2, size: 0x8, addend: 0x0, symName: __RINvNtNtCsdGrGZaRBwMb_3syn3gen5visit15visit_impl_itemNtNvCs4L8YLU89NU9_12synstructure13get_ty_params16BoundTypeLocatorEBT_, symObjAddr: 0x31E0, symBinAddr: 0x1F480, symSize: 0x100 }
  - { offset: 0x469C2, size: 0x8, addend: 0x0, symName: __RINvNtNtCsdGrGZaRBwMb_3syn3gen5visit15visit_item_enumNtNvCs4L8YLU89NU9_12synstructure13get_ty_params16BoundTypeLocatorEBT_, symObjAddr: 0x32E0, symBinAddr: 0x1F580, symSize: 0x190 }
  - { offset: 0x46A9C, size: 0x8, addend: 0x0, symName: __RINvNtNtCsdGrGZaRBwMb_3syn3gen5visit15visit_item_implNtNvCs4L8YLU89NU9_12synstructure13get_ty_params16BoundTypeLocatorEBT_, symObjAddr: 0x3470, symBinAddr: 0x1F710, symSize: 0x1A0 }
  - { offset: 0x46B6D, size: 0x8, addend: 0x0, symName: __RINvNtNtCsdGrGZaRBwMb_3syn3gen5visit15visit_item_typeNtNvCs4L8YLU89NU9_12synstructure13get_ty_params16BoundTypeLocatorEBT_, symObjAddr: 0x3610, symBinAddr: 0x1F8B0, symSize: 0x120 }
  - { offset: 0x46BEB, size: 0x8, addend: 0x0, symName: __RINvNtNtCsdGrGZaRBwMb_3syn3gen5visit15visit_lit_floatNtNvCs4L8YLU89NU9_12synstructure13get_ty_params16BoundTypeLocatorEBT_, symObjAddr: 0x3730, symBinAddr: 0x1F9D0, symSize: 0x20 }
  - { offset: 0x46C2D, size: 0x8, addend: 0x0, symName: __RINvNtNtCsdGrGZaRBwMb_3syn3gen5visit15visit_meta_listNtNvCs4L8YLU89NU9_12synstructure13get_ty_params16BoundTypeLocatorEBT_, symObjAddr: 0x3750, symBinAddr: 0x1F9F0, symSize: 0x50 }
  - { offset: 0x46C6F, size: 0x8, addend: 0x0, symName: __RINvNtNtCsdGrGZaRBwMb_3syn3gen5visit15visit_pat_identNtNvCs4L8YLU89NU9_12synstructure13get_ty_params16BoundTypeLocatorEBT_, symObjAddr: 0x37A0, symBinAddr: 0x1FA40, symSize: 0x130 }
  - { offset: 0x46D03, size: 0x8, addend: 0x0, symName: __RINvNtNtCsdGrGZaRBwMb_3syn3gen5visit15visit_pat_parenNtNvCs4L8YLU89NU9_12synstructure13get_ty_params16BoundTypeLocatorEBT_, symObjAddr: 0x38D0, symBinAddr: 0x1FB70, symSize: 0xE0 }
  - { offset: 0x46D81, size: 0x8, addend: 0x0, symName: __RINvNtNtCsdGrGZaRBwMb_3syn3gen5visit15visit_pat_sliceNtNvCs4L8YLU89NU9_12synstructure13get_ty_params16BoundTypeLocatorEBT_, symObjAddr: 0x39B0, symBinAddr: 0x1FC50, symSize: 0x140 }
  - { offset: 0x46E5B, size: 0x8, addend: 0x0, symName: __RINvNtNtCsdGrGZaRBwMb_3syn3gen5visit15visit_pat_tupleNtNvCs4L8YLU89NU9_12synstructure13get_ty_params16BoundTypeLocatorEBT_, symObjAddr: 0x3AF0, symBinAddr: 0x1FD90, symSize: 0x140 }
  - { offset: 0x46F35, size: 0x8, addend: 0x0, symName: __RINvNtNtCsdGrGZaRBwMb_3syn3gen5visit15visit_signatureNtNvCs4L8YLU89NU9_12synstructure13get_ty_params16BoundTypeLocatorEBT_, symObjAddr: 0x3C30, symBinAddr: 0x1FED0, symSize: 0x1A0 }
  - { offset: 0x4700E, size: 0x8, addend: 0x0, symName: __RINvNtNtCsdGrGZaRBwMb_3syn3gen5visit15visit_type_pathNtNvCs4L8YLU89NU9_12synstructure13get_ty_params16BoundTypeLocatorEBT_, symObjAddr: 0x3DD0, symBinAddr: 0x20070, symSize: 0x70 }
  - { offset: 0x4706E, size: 0x8, addend: 0x0, symName: __RINvNtNtCsdGrGZaRBwMb_3syn3gen5visit15visit_use_groupNtNvCs4L8YLU89NU9_12synstructure13get_ty_params16BoundTypeLocatorEBT_, symObjAddr: 0x3E40, symBinAddr: 0x200E0, symSize: 0xB0 }
  - { offset: 0x4710B, size: 0x8, addend: 0x0, symName: __RINvNtNtCsdGrGZaRBwMb_3syn3gen5visit16visit_assoc_typeNtNvCs4L8YLU89NU9_12synstructure13get_ty_params16BoundTypeLocatorEBU_, symObjAddr: 0x3EF0, symBinAddr: 0x20190, symSize: 0x90 }
  - { offset: 0x4716B, size: 0x8, addend: 0x0, symName: __RINvNtNtCsdGrGZaRBwMb_3syn3gen5visit16visit_attr_styleNtNvCs4L8YLU89NU9_12synstructure13get_ty_params16BoundTypeLocatorEBU_, symObjAddr: 0x3F80, symBinAddr: 0x20220, symSize: 0x40 }
  - { offset: 0x471AD, size: 0x8, addend: 0x0, symName: __RINvNtNtCsdGrGZaRBwMb_3syn3gen5visit16visit_constraintNtNvCs4L8YLU89NU9_12synstructure13get_ty_params16BoundTypeLocatorEBU_, symObjAddr: 0x3FC0, symBinAddr: 0x20260, symSize: 0x120 }
  - { offset: 0x47268, size: 0x8, addend: 0x0, symName: __RINvNtNtCsdGrGZaRBwMb_3syn3gen5visit16visit_expr_arrayNtNvCs4L8YLU89NU9_12synstructure13get_ty_params16BoundTypeLocatorEBU_, symObjAddr: 0x40E0, symBinAddr: 0x20380, symSize: 0x140 }
  - { offset: 0x47342, size: 0x8, addend: 0x0, symName: __RINvNtNtCsdGrGZaRBwMb_3syn3gen5visit16visit_expr_asyncNtNvCs4L8YLU89NU9_12synstructure13get_ty_params16BoundTypeLocatorEBU_, symObjAddr: 0x4220, symBinAddr: 0x204C0, symSize: 0xA0 }
  - { offset: 0x473C0, size: 0x8, addend: 0x0, symName: __RINvNtNtCsdGrGZaRBwMb_3syn3gen5visit16visit_expr_awaitNtNvCs4L8YLU89NU9_12synstructure13get_ty_params16BoundTypeLocatorEBU_, symObjAddr: 0x42C0, symBinAddr: 0x20560, symSize: 0xE0 }
  - { offset: 0x4743E, size: 0x8, addend: 0x0, symName: __RINvNtNtCsdGrGZaRBwMb_3syn3gen5visit16visit_expr_blockNtNvCs4L8YLU89NU9_12synstructure13get_ty_params16BoundTypeLocatorEBU_, symObjAddr: 0x43A0, symBinAddr: 0x20640, symSize: 0xE0 }
  - { offset: 0x474DA, size: 0x8, addend: 0x0, symName: __RINvNtNtCsdGrGZaRBwMb_3syn3gen5visit16visit_expr_breakNtNvCs4L8YLU89NU9_12synstructure13get_ty_params16BoundTypeLocatorEBU_, symObjAddr: 0x4480, symBinAddr: 0x20720, symSize: 0x160 }
  - { offset: 0x4758C, size: 0x8, addend: 0x0, symName: __RINvNtNtCsdGrGZaRBwMb_3syn3gen5visit16visit_expr_constNtNvCs4L8YLU89NU9_12synstructure13get_ty_params16BoundTypeLocatorEBU_, symObjAddr: 0x45E0, symBinAddr: 0x20880, symSize: 0xA0 }
  - { offset: 0x4760A, size: 0x8, addend: 0x0, symName: __RINvNtNtCsdGrGZaRBwMb_3syn3gen5visit16visit_expr_fieldNtNvCs4L8YLU89NU9_12synstructure13get_ty_params16BoundTypeLocatorEBU_, symObjAddr: 0x4680, symBinAddr: 0x20920, symSize: 0xF0 }
  - { offset: 0x47688, size: 0x8, addend: 0x0, symName: __RINvNtNtCsdGrGZaRBwMb_3syn3gen5visit16visit_expr_groupNtNvCs4L8YLU89NU9_12synstructure13get_ty_params16BoundTypeLocatorEBU_, symObjAddr: 0x4770, symBinAddr: 0x20A10, symSize: 0xE0 }
  - { offset: 0x47706, size: 0x8, addend: 0x0, symName: __RINvNtNtCsdGrGZaRBwMb_3syn3gen5visit16visit_expr_indexNtNvCs4L8YLU89NU9_12synstructure13get_ty_params16BoundTypeLocatorEBU_, symObjAddr: 0x4850, symBinAddr: 0x20AF0, symSize: 0x140 }
  - { offset: 0x47784, size: 0x8, addend: 0x0, symName: __RINvNtNtCsdGrGZaRBwMb_3syn3gen5visit16visit_expr_inferNtNvCs4L8YLU89NU9_12synstructure13get_ty_params16BoundTypeLocatorEBU_, symObjAddr: 0x4990, symBinAddr: 0x20C30, symSize: 0x80 }
  - { offset: 0x47802, size: 0x8, addend: 0x0, symName: __RINvNtNtCsdGrGZaRBwMb_3syn3gen5visit16visit_expr_macroNtNvCs4L8YLU89NU9_12synstructure13get_ty_params16BoundTypeLocatorEBU_, symObjAddr: 0x4A10, symBinAddr: 0x20CB0, symSize: 0xA0 }
  - { offset: 0x47880, size: 0x8, addend: 0x0, symName: __RINvNtNtCsdGrGZaRBwMb_3syn3gen5visit16visit_expr_matchNtNvCs4L8YLU89NU9_12synstructure13get_ty_params16BoundTypeLocatorEBU_, symObjAddr: 0x4AB0, symBinAddr: 0x20D50, symSize: 0x140 }
  - { offset: 0x47933, size: 0x8, addend: 0x0, symName: __RINvNtNtCsdGrGZaRBwMb_3syn3gen5visit16visit_expr_parenNtNvCs4L8YLU89NU9_12synstructure13get_ty_params16BoundTypeLocatorEBU_, symObjAddr: 0x4BF0, symBinAddr: 0x20E90, symSize: 0xE0 }
  - { offset: 0x479B1, size: 0x8, addend: 0x0, symName: __RINvNtNtCsdGrGZaRBwMb_3syn3gen5visit16visit_expr_rangeNtNvCs4L8YLU89NU9_12synstructure13get_ty_params16BoundTypeLocatorEBU_, symObjAddr: 0x4CD0, symBinAddr: 0x20F70, symSize: 0x1C0 }
  - { offset: 0x47A5B, size: 0x8, addend: 0x0, symName: __RINvNtNtCsdGrGZaRBwMb_3syn3gen5visit16visit_expr_tupleNtNvCs4L8YLU89NU9_12synstructure13get_ty_params16BoundTypeLocatorEBU_, symObjAddr: 0x4E90, symBinAddr: 0x21130, symSize: 0x140 }
  - { offset: 0x47B35, size: 0x8, addend: 0x0, symName: __RINvNtNtCsdGrGZaRBwMb_3syn3gen5visit16visit_expr_unaryNtNvCs4L8YLU89NU9_12synstructure13get_ty_params16BoundTypeLocatorEBU_, symObjAddr: 0x4FD0, symBinAddr: 0x21270, symSize: 0xF0 }
  - { offset: 0x47BB3, size: 0x8, addend: 0x0, symName: __RINvNtNtCsdGrGZaRBwMb_3syn3gen5visit16visit_expr_whileNtNvCs4L8YLU89NU9_12synstructure13get_ty_params16BoundTypeLocatorEBU_, symObjAddr: 0x50C0, symBinAddr: 0x21360, symSize: 0x130 }
  - { offset: 0x47C4F, size: 0x8, addend: 0x0, symName: __RINvNtNtCsdGrGZaRBwMb_3syn3gen5visit16visit_expr_yieldNtNvCs4L8YLU89NU9_12synstructure13get_ty_params16BoundTypeLocatorEBU_, symObjAddr: 0x51F0, symBinAddr: 0x21490, symSize: 0x120 }
  - { offset: 0x47CE3, size: 0x8, addend: 0x0, symName: __RINvNtNtCsdGrGZaRBwMb_3syn3gen5visit16visit_item_constNtNvCs4L8YLU89NU9_12synstructure13get_ty_params16BoundTypeLocatorEBU_, symObjAddr: 0x5310, symBinAddr: 0x215B0, symSize: 0x180 }
  - { offset: 0x47D61, size: 0x8, addend: 0x0, symName: __RINvNtNtCsdGrGZaRBwMb_3syn3gen5visit16visit_item_macroNtNvCs4L8YLU89NU9_12synstructure13get_ty_params16BoundTypeLocatorEBU_, symObjAddr: 0x5490, symBinAddr: 0x21730, symSize: 0xE0 }
  - { offset: 0x47DFD, size: 0x8, addend: 0x0, symName: __RINvNtNtCsdGrGZaRBwMb_3syn3gen5visit16visit_item_traitNtNvCs4L8YLU89NU9_12synstructure13get_ty_params16BoundTypeLocatorEBU_, symObjAddr: 0x5570, symBinAddr: 0x21810, symSize: 0x1F0 }
  - { offset: 0x47F14, size: 0x8, addend: 0x0, symName: __RINvNtNtCsdGrGZaRBwMb_3syn3gen5visit16visit_item_unionNtNvCs4L8YLU89NU9_12synstructure13get_ty_params16BoundTypeLocatorEBU_, symObjAddr: 0x5760, symBinAddr: 0x21A00, symSize: 0xD0 }
  - { offset: 0x47F92, size: 0x8, addend: 0x0, symName: __RINvNtNtCsdGrGZaRBwMb_3syn3gen5visit16visit_local_initNtNvCs4L8YLU89NU9_12synstructure13get_ty_params16BoundTypeLocatorEBU_, symObjAddr: 0x5830, symBinAddr: 0x21AD0, symSize: 0x120 }
  - { offset: 0x47FEA, size: 0x8, addend: 0x0, symName: __RINvNtNtCsdGrGZaRBwMb_3syn3gen5visit16visit_pat_structNtNvCs4L8YLU89NU9_12synstructure13get_ty_params16BoundTypeLocatorEBU_, symObjAddr: 0x5950, symBinAddr: 0x21BF0, symSize: 0x200 }
  - { offset: 0x48100, size: 0x8, addend: 0x0, symName: __RINvNtNtCsdGrGZaRBwMb_3syn3gen5visit16visit_stmt_macroNtNvCs4L8YLU89NU9_12synstructure13get_ty_params16BoundTypeLocatorEBU_, symObjAddr: 0x5B50, symBinAddr: 0x21DF0, symSize: 0xA0 }
  - { offset: 0x4817E, size: 0x8, addend: 0x0, symName: __RINvNtNtCsdGrGZaRBwMb_3syn3gen5visit16visit_trait_itemNtNvCs4L8YLU89NU9_12synstructure13get_ty_params16BoundTypeLocatorEBU_, symObjAddr: 0x5BF0, symBinAddr: 0x21E90, symSize: 0x100 }
  - { offset: 0x4824E, size: 0x8, addend: 0x0, symName: __RINvNtNtCsdGrGZaRBwMb_3syn3gen5visit16visit_type_arrayNtNvCs4L8YLU89NU9_12synstructure13get_ty_params16BoundTypeLocatorEBU_, symObjAddr: 0x5CF0, symBinAddr: 0x21F90, symSize: 0x90 }
  - { offset: 0x48290, size: 0x8, addend: 0x0, symName: __RINvNtNtCsdGrGZaRBwMb_3syn3gen5visit16visit_type_groupNtNvCs4L8YLU89NU9_12synstructure13get_ty_params16BoundTypeLocatorEBU_, symObjAddr: 0x5D80, symBinAddr: 0x22020, symSize: 0x80 }
  - { offset: 0x482D2, size: 0x8, addend: 0x0, symName: __RINvNtNtCsdGrGZaRBwMb_3syn3gen5visit16visit_type_inferNtNvCs4L8YLU89NU9_12synstructure13get_ty_params16BoundTypeLocatorEBU_, symObjAddr: 0x5E00, symBinAddr: 0x220A0, symSize: 0x20 }
  - { offset: 0x48314, size: 0x8, addend: 0x0, symName: __RINvNtNtCsdGrGZaRBwMb_3syn3gen5visit16visit_type_macroNtNvCs4L8YLU89NU9_12synstructure13get_ty_params16BoundTypeLocatorEBU_, symObjAddr: 0x5E20, symBinAddr: 0x220C0, symSize: 0x30 }
  - { offset: 0x48356, size: 0x8, addend: 0x0, symName: __RINvNtNtCsdGrGZaRBwMb_3syn3gen5visit16visit_type_neverNtNvCs4L8YLU89NU9_12synstructure13get_ty_params16BoundTypeLocatorEBU_, symObjAddr: 0x5E50, symBinAddr: 0x220F0, symSize: 0x20 }
  - { offset: 0x48398, size: 0x8, addend: 0x0, symName: __RINvNtNtCsdGrGZaRBwMb_3syn3gen5visit16visit_type_paramNtNvCs4L8YLU89NU9_12synstructure13get_ty_params16BoundTypeLocatorEBU_, symObjAddr: 0x5E70, symBinAddr: 0x22110, symSize: 0x1A0 }
  - { offset: 0x48490, size: 0x8, addend: 0x0, symName: __RINvNtNtCsdGrGZaRBwMb_3syn3gen5visit16visit_type_parenNtNvCs4L8YLU89NU9_12synstructure13get_ty_params16BoundTypeLocatorEBU_, symObjAddr: 0x6010, symBinAddr: 0x222B0, symSize: 0x80 }
  - { offset: 0x484D2, size: 0x8, addend: 0x0, symName: __RINvNtNtCsdGrGZaRBwMb_3syn3gen5visit16visit_type_sliceNtNvCs4L8YLU89NU9_12synstructure13get_ty_params16BoundTypeLocatorEBU_, symObjAddr: 0x6090, symBinAddr: 0x22330, symSize: 0x80 }
  - { offset: 0x48514, size: 0x8, addend: 0x0, symName: __RINvNtNtCsdGrGZaRBwMb_3syn3gen5visit16visit_type_tupleNtNvCs4L8YLU89NU9_12synstructure13get_ty_params16BoundTypeLocatorEBU_, symObjAddr: 0x6110, symBinAddr: 0x223B0, symSize: 0xB0 }
  - { offset: 0x485B1, size: 0x8, addend: 0x0, symName: __RINvNtNtCsdGrGZaRBwMb_3syn3gen5visit16visit_use_renameNtNvCs4L8YLU89NU9_12synstructure13get_ty_params16BoundTypeLocatorEBU_, symObjAddr: 0x61C0, symBinAddr: 0x22460, symSize: 0x40 }
  - { offset: 0x485F3, size: 0x8, addend: 0x0, symName: __RINvNtNtCsdGrGZaRBwMb_3syn3gen5visit16visit_visibilityNtNvCs4L8YLU89NU9_12synstructure13get_ty_params16BoundTypeLocatorEBU_, symObjAddr: 0x6200, symBinAddr: 0x224A0, symSize: 0x90 }
  - { offset: 0x48653, size: 0x8, addend: 0x0, symName: __RINvNtNtCsdGrGZaRBwMb_3syn3gen5visit17visit_assoc_constNtNvCs4L8YLU89NU9_12synstructure13get_ty_params16BoundTypeLocatorEBV_, symObjAddr: 0x6290, symBinAddr: 0x22530, symSize: 0x90 }
  - { offset: 0x486B3, size: 0x8, addend: 0x0, symName: __RINvNtNtCsdGrGZaRBwMb_3syn3gen5visit17visit_bare_fn_argNtNvCs4L8YLU89NU9_12synstructure13get_ty_params16BoundTypeLocatorEBV_, symObjAddr: 0x6320, symBinAddr: 0x225C0, symSize: 0xE0 }
  - { offset: 0x4874F, size: 0x8, addend: 0x0, symName: __RINvNtNtCsdGrGZaRBwMb_3syn3gen5visit17visit_const_paramNtNvCs4L8YLU89NU9_12synstructure13get_ty_params16BoundTypeLocatorEBV_, symObjAddr: 0x6400, symBinAddr: 0x226A0, symSize: 0xF0 }
  - { offset: 0x487EB, size: 0x8, addend: 0x0, symName: __RINvNtNtCsdGrGZaRBwMb_3syn3gen5visit17visit_expr_assignNtNvCs4L8YLU89NU9_12synstructure13get_ty_params16BoundTypeLocatorEBV_, symObjAddr: 0x64F0, symBinAddr: 0x22790, symSize: 0x140 }
  - { offset: 0x48869, size: 0x8, addend: 0x0, symName: __RINvNtNtCsdGrGZaRBwMb_3syn3gen5visit17visit_expr_binaryNtNvCs4L8YLU89NU9_12synstructure13get_ty_params16BoundTypeLocatorEBV_, symObjAddr: 0x6630, symBinAddr: 0x228D0, symSize: 0x150 }
  - { offset: 0x488E7, size: 0x8, addend: 0x0, symName: __RINvNtNtCsdGrGZaRBwMb_3syn3gen5visit17visit_expr_repeatNtNvCs4L8YLU89NU9_12synstructure13get_ty_params16BoundTypeLocatorEBV_, symObjAddr: 0x6780, symBinAddr: 0x22A20, symSize: 0x140 }
  - { offset: 0x48965, size: 0x8, addend: 0x0, symName: __RINvNtNtCsdGrGZaRBwMb_3syn3gen5visit17visit_expr_returnNtNvCs4L8YLU89NU9_12synstructure13get_ty_params16BoundTypeLocatorEBV_, symObjAddr: 0x68C0, symBinAddr: 0x22B60, symSize: 0x120 }
  - { offset: 0x489F9, size: 0x8, addend: 0x0, symName: __RINvNtNtCsdGrGZaRBwMb_3syn3gen5visit17visit_expr_structNtNvCs4L8YLU89NU9_12synstructure13get_ty_params16BoundTypeLocatorEBV_, symObjAddr: 0x69E0, symBinAddr: 0x22C80, symSize: 0x260 }
  - { offset: 0x48B07, size: 0x8, addend: 0x0, symName: __RINvNtNtCsdGrGZaRBwMb_3syn3gen5visit17visit_expr_unsafeNtNvCs4L8YLU89NU9_12synstructure13get_ty_params16BoundTypeLocatorEBV_, symObjAddr: 0x6C40, symBinAddr: 0x22EE0, symSize: 0xA0 }
  - { offset: 0x48B85, size: 0x8, addend: 0x0, symName: __RINvNtNtCsdGrGZaRBwMb_3syn3gen5visit17visit_field_valueNtNvCs4L8YLU89NU9_12synstructure13get_ty_params16BoundTypeLocatorEBV_, symObjAddr: 0x6CE0, symBinAddr: 0x22F80, symSize: 0xB0 }
  - { offset: 0x48C03, size: 0x8, addend: 0x0, symName: __RINvNtNtCsdGrGZaRBwMb_3syn3gen5visit17visit_item_staticNtNvCs4L8YLU89NU9_12synstructure13get_ty_params16BoundTypeLocatorEBV_, symObjAddr: 0x6D90, symBinAddr: 0x23030, symSize: 0x170 }
  - { offset: 0x48C81, size: 0x8, addend: 0x0, symName: __RINvNtNtCsdGrGZaRBwMb_3syn3gen5visit17visit_item_structNtNvCs4L8YLU89NU9_12synstructure13get_ty_params16BoundTypeLocatorEBV_, symObjAddr: 0x6F00, symBinAddr: 0x231A0, symSize: 0xD0 }
  - { offset: 0x48CFF, size: 0x8, addend: 0x0, symName: __RINvNtNtCsdGrGZaRBwMb_3syn3gen5visit17visit_return_typeNtNvCs4L8YLU89NU9_12synstructure13get_ty_params16BoundTypeLocatorEBV_, symObjAddr: 0x6FD0, symBinAddr: 0x23270, symSize: 0xC0 }
  - { offset: 0x48D67, size: 0x8, addend: 0x0, symName: __RINvNtNtCsdGrGZaRBwMb_3syn3gen5visit17visit_trait_boundNtNvCs4L8YLU89NU9_12synstructure13get_ty_params16BoundTypeLocatorEBV_, symObjAddr: 0x7090, symBinAddr: 0x23330, symSize: 0x90 }
  - { offset: 0x48DC7, size: 0x8, addend: 0x0, symName: __RINvNtNtCsdGrGZaRBwMb_3syn3gen5visit18visit_expr_closureNtNvCs4L8YLU89NU9_12synstructure13get_ty_params16BoundTypeLocatorEBW_, symObjAddr: 0x7120, symBinAddr: 0x233C0, symSize: 0x220 }
  - { offset: 0x48EBF, size: 0x8, addend: 0x0, symName: __RINvNtNtCsdGrGZaRBwMb_3syn3gen5visit18visit_fields_namedNtNvCs4L8YLU89NU9_12synstructure13get_ty_params16BoundTypeLocatorEBW_, symObjAddr: 0x7340, symBinAddr: 0x235E0, symSize: 0xB0 }
  - { offset: 0x48F5C, size: 0x8, addend: 0x0, symName: __RINvNtNtCsdGrGZaRBwMb_3syn3gen5visit18visit_foreign_itemNtNvCs4L8YLU89NU9_12synstructure13get_ty_params16BoundTypeLocatorEBW_, symObjAddr: 0x73F0, symBinAddr: 0x23690, symSize: 0x100 }
  - { offset: 0x4902C, size: 0x8, addend: 0x0, symName: __RINvNtNtCsdGrGZaRBwMb_3syn3gen5visit18visit_impl_item_fnNtNvCs4L8YLU89NU9_12synstructure13get_ty_params16BoundTypeLocatorEBW_, symObjAddr: 0x74F0, symBinAddr: 0x23790, symSize: 0xC0 }
  - { offset: 0x490AA, size: 0x8, addend: 0x0, symName: __RINvNtNtCsdGrGZaRBwMb_3syn3gen5visit18visit_lit_byte_strNtNvCs4L8YLU89NU9_12synstructure13get_ty_params16BoundTypeLocatorEBW_, symObjAddr: 0x75B0, symBinAddr: 0x23850, symSize: 0x20 }
  - { offset: 0x490EC, size: 0x8, addend: 0x0, symName: __RINvNtNtCsdGrGZaRBwMb_3syn3gen5visit18visit_path_segmentNtNvCs4L8YLU89NU9_12synstructure13get_ty_params16BoundTypeLocatorEBW_, symObjAddr: 0x75D0, symBinAddr: 0x23870, symSize: 0x40 }
  - { offset: 0x4912E, size: 0x8, addend: 0x0, symName: __RINvNtNtCsdGrGZaRBwMb_3syn3gen5visit18visit_range_limitsNtNvCs4L8YLU89NU9_12synstructure13get_ty_params16BoundTypeLocatorEBW_, symObjAddr: 0x7610, symBinAddr: 0x238B0, symSize: 0x50 }
  - { offset: 0x49170, size: 0x8, addend: 0x0, symName: __RINvNtNtCsdGrGZaRBwMb_3syn3gen5visit18visit_type_bare_fnNtNvCs4L8YLU89NU9_12synstructure13get_ty_params16BoundTypeLocatorEBW_, symObjAddr: 0x7660, symBinAddr: 0x23900, symSize: 0x1C0 }
  - { offset: 0x49267, size: 0x8, addend: 0x0, symName: __RINvNtNtCsdGrGZaRBwMb_3syn3gen5visit18visit_where_clauseNtNvCs4L8YLU89NU9_12synstructure13get_ty_params16BoundTypeLocatorEBW_, symObjAddr: 0x7820, symBinAddr: 0x23AC0, symSize: 0xB0 }
  - { offset: 0x49304, size: 0x8, addend: 0x0, symName: __RINvNtNtCsdGrGZaRBwMb_3syn3gen5visit19visit_bare_variadicNtNvCs4L8YLU89NU9_12synstructure13get_ty_params16BoundTypeLocatorEBX_, symObjAddr: 0x78D0, symBinAddr: 0x23B70, symSize: 0xD0 }
  - { offset: 0x493A0, size: 0x8, addend: 0x0, symName: __RINvNtNtCsdGrGZaRBwMb_3syn3gen5visit19visit_expr_continueNtNvCs4L8YLU89NU9_12synstructure13get_ty_params16BoundTypeLocatorEBX_, symObjAddr: 0x79A0, symBinAddr: 0x23C40, symSize: 0xD0 }
  - { offset: 0x4943C, size: 0x8, addend: 0x0, symName: __RINvNtNtCsdGrGZaRBwMb_3syn3gen5visit19visit_expr_for_loopNtNvCs4L8YLU89NU9_12synstructure13get_ty_params16BoundTypeLocatorEBX_, symObjAddr: 0x7A70, symBinAddr: 0x23D10, symSize: 0x190 }
  - { offset: 0x494D8, size: 0x8, addend: 0x0, symName: __RINvNtNtCsdGrGZaRBwMb_3syn3gen5visit19visit_expr_raw_addrNtNvCs4L8YLU89NU9_12synstructure13get_ty_params16BoundTypeLocatorEBX_, symObjAddr: 0x7C00, symBinAddr: 0x23EA0, symSize: 0xF0 }
  - { offset: 0x49556, size: 0x8, addend: 0x0, symName: __RINvNtNtCsdGrGZaRBwMb_3syn3gen5visit19visit_generic_paramNtNvCs4L8YLU89NU9_12synstructure13get_ty_params16BoundTypeLocatorEBX_, symObjAddr: 0x7CF0, symBinAddr: 0x23F90, symSize: 0xB0 }
  - { offset: 0x495EA, size: 0x8, addend: 0x0, symName: __RINvNtNtCsdGrGZaRBwMb_3syn3gen5visit19visit_pat_referenceNtNvCs4L8YLU89NU9_12synstructure13get_ty_params16BoundTypeLocatorEBX_, symObjAddr: 0x7DA0, symBinAddr: 0x24040, symSize: 0xE0 }
  - { offset: 0x49668, size: 0x8, addend: 0x0, symName: __RINvNtNtCsdGrGZaRBwMb_3syn3gen5visit19visit_trait_item_fnNtNvCs4L8YLU89NU9_12synstructure13get_ty_params16BoundTypeLocatorEBX_, symObjAddr: 0x7E80, symBinAddr: 0x24120, symSize: 0xF0 }
  - { offset: 0x49704, size: 0x8, addend: 0x0, symName: __RINvNtNtCsdGrGZaRBwMb_3syn3gen5visit20visit_captured_paramNtNvCs4L8YLU89NU9_12synstructure13get_ty_params16BoundTypeLocatorEBY_, symObjAddr: 0x7F70, symBinAddr: 0x24210, symSize: 0x70 }
  - { offset: 0x4977A, size: 0x8, addend: 0x0, symName: __RINvNtNtCsdGrGZaRBwMb_3syn3gen5visit20visit_expr_referenceNtNvCs4L8YLU89NU9_12synstructure13get_ty_params16BoundTypeLocatorEBY_, symObjAddr: 0x7FE0, symBinAddr: 0x24280, symSize: 0xE0 }
  - { offset: 0x497F8, size: 0x8, addend: 0x0, symName: __RINvNtNtCsdGrGZaRBwMb_3syn3gen5visit20visit_expr_try_blockNtNvCs4L8YLU89NU9_12synstructure13get_ty_params16BoundTypeLocatorEBY_, symObjAddr: 0x80C0, symBinAddr: 0x24360, symSize: 0xA0 }
  - { offset: 0x49876, size: 0x8, addend: 0x0, symName: __RINvNtNtCsdGrGZaRBwMb_3syn3gen5visit20visit_fields_unnamedNtNvCs4L8YLU89NU9_12synstructure13get_ty_params16BoundTypeLocatorEBY_, symObjAddr: 0x8160, symBinAddr: 0x24400, symSize: 0xB0 }
  - { offset: 0x49913, size: 0x8, addend: 0x0, symName: __RINvNtNtCsdGrGZaRBwMb_3syn3gen5visit20visit_impl_item_typeNtNvCs4L8YLU89NU9_12synstructure13get_ty_params16BoundTypeLocatorEBY_, symObjAddr: 0x8210, symBinAddr: 0x244B0, symSize: 0xE0 }
  - { offset: 0x49991, size: 0x8, addend: 0x0, symName: __RINvNtNtCsdGrGZaRBwMb_3syn3gen5visit20visit_lifetime_paramNtNvCs4L8YLU89NU9_12synstructure13get_ty_params16BoundTypeLocatorEBY_, symObjAddr: 0x82F0, symBinAddr: 0x24590, symSize: 0x150 }
  - { offset: 0x49A6B, size: 0x8, addend: 0x0, symName: __RINvNtNtCsdGrGZaRBwMb_3syn3gen5visit20visit_path_argumentsNtNvCs4L8YLU89NU9_12synstructure13get_ty_params16BoundTypeLocatorEBY_, symObjAddr: 0x8440, symBinAddr: 0x246E0, symSize: 0xA0 }
  - { offset: 0x49AE1, size: 0x8, addend: 0x0, symName: __RINvNtNtCsdGrGZaRBwMb_3syn3gen5visit20visit_predicate_typeNtNvCs4L8YLU89NU9_12synstructure13get_ty_params16BoundTypeLocatorEBY_, symObjAddr: 0x84E0, symBinAddr: 0x24780, symSize: 0x130 }
  - { offset: 0x49B9C, size: 0x8, addend: 0x0, symName: __RINvNtNtCsdGrGZaRBwMb_3syn3gen5visit20visit_type_referenceNtNvCs4L8YLU89NU9_12synstructure13get_ty_params16BoundTypeLocatorEBY_, symObjAddr: 0x8610, symBinAddr: 0x248B0, symSize: 0xC0 }
  - { offset: 0x49BFC, size: 0x8, addend: 0x0, symName: __RINvNtNtCsdGrGZaRBwMb_3syn3gen5visit20visit_vis_restrictedNtNvCs4L8YLU89NU9_12synstructure13get_ty_params16BoundTypeLocatorEBY_, symObjAddr: 0x86D0, symBinAddr: 0x24970, symSize: 0x80 }
  - { offset: 0x49C3E, size: 0x8, addend: 0x0, symName: __RINvNtNtCsdGrGZaRBwMb_3syn3gen5visit21visit_bound_lifetimesNtNvCs4L8YLU89NU9_12synstructure13get_ty_params16BoundTypeLocatorEBZ_, symObjAddr: 0x8750, symBinAddr: 0x249F0, symSize: 0xB0 }
  - { offset: 0x49CDB, size: 0x8, addend: 0x0, symName: __RINvNtNtCsdGrGZaRBwMb_3syn3gen5visit21visit_foreign_item_fnNtNvCs4L8YLU89NU9_12synstructure13get_ty_params16BoundTypeLocatorEBZ_, symObjAddr: 0x8800, symBinAddr: 0x24AA0, symSize: 0xB0 }
  - { offset: 0x49D59, size: 0x8, addend: 0x0, symName: __RINvNtNtCsdGrGZaRBwMb_3syn3gen5visit21visit_impl_item_constNtNvCs4L8YLU89NU9_12synstructure13get_ty_params16BoundTypeLocatorEBZ_, symObjAddr: 0x88B0, symBinAddr: 0x24B50, symSize: 0xF0 }
  - { offset: 0x49DD7, size: 0x8, addend: 0x0, symName: __RINvNtNtCsdGrGZaRBwMb_3syn3gen5visit21visit_impl_item_macroNtNvCs4L8YLU89NU9_12synstructure13get_ty_params16BoundTypeLocatorEBZ_, symObjAddr: 0x89A0, symBinAddr: 0x24C40, symSize: 0xA0 }
  - { offset: 0x49E55, size: 0x8, addend: 0x0, symName: __RINvNtNtCsdGrGZaRBwMb_3syn3gen5visit21visit_macro_delimiterNtNvCs4L8YLU89NU9_12synstructure13get_ty_params16BoundTypeLocatorEBZ_, symObjAddr: 0x8A40, symBinAddr: 0x24CE0, symSize: 0x70 }
  - { offset: 0x49E97, size: 0x8, addend: 0x0, symName: __RINvNtNtCsdGrGZaRBwMb_3syn3gen5visit21visit_meta_name_valueNtNvCs4L8YLU89NU9_12synstructure13get_ty_params16BoundTypeLocatorEBZ_, symObjAddr: 0x8AB0, symBinAddr: 0x24D50, symSize: 0x40 }
  - { offset: 0x49ED9, size: 0x8, addend: 0x0, symName: __RINvNtNtCsdGrGZaRBwMb_3syn3gen5visit21visit_precise_captureNtNvCs4L8YLU89NU9_12synstructure13get_ty_params16BoundTypeLocatorEBZ_, symObjAddr: 0x8AF0, symBinAddr: 0x24D90, symSize: 0xB0 }
  - { offset: 0x49F76, size: 0x8, addend: 0x0, symName: __RINvNtNtCsdGrGZaRBwMb_3syn3gen5visit21visit_trait_item_typeNtNvCs4L8YLU89NU9_12synstructure13get_ty_params16BoundTypeLocatorEBZ_, symObjAddr: 0x8BA0, symBinAddr: 0x24E40, symSize: 0x1C0 }
  - { offset: 0x4A06E, size: 0x8, addend: 0x0, symName: __RINvNtNtCsdGrGZaRBwMb_3syn3gen5visit21visit_type_impl_traitNtNvCs4L8YLU89NU9_12synstructure13get_ty_params16BoundTypeLocatorEBZ_, symObjAddr: 0x8D60, symBinAddr: 0x25000, symSize: 0xB0 }
  - { offset: 0x4A10B, size: 0x8, addend: 0x0, symName: __RINvNtNtCsdGrGZaRBwMb_3syn3gen5visit21visit_where_predicateNtNvCs4L8YLU89NU9_12synstructure13get_ty_params16BoundTypeLocatorEBZ_, symObjAddr: 0x8E10, symBinAddr: 0x250B0, symSize: 0x70 }
  - { offset: 0x4A181, size: 0x8, addend: 0x0, symName: __RINvNtNtCsdGrGZaRBwMb_3syn3gen5visit22visit_expr_method_callNtNvCs4L8YLU89NU9_12synstructure13get_ty_params16BoundTypeLocatorEB10_, symObjAddr: 0x8E80, symBinAddr: 0x25120, symSize: 0x220 }
  - { offset: 0x4A271, size: 0x8, addend: 0x0, symName: __RINvNtNtCsdGrGZaRBwMb_3syn3gen5visit22visit_field_mutabilityNtNvCs4L8YLU89NU9_12synstructure13get_ty_params16BoundTypeLocatorEB10_, symObjAddr: 0x90A0, symBinAddr: 0x25340, symSize: 0x20 }
  - { offset: 0x4A2B3, size: 0x8, addend: 0x0, symName: __RINvNtNtCsdGrGZaRBwMb_3syn3gen5visit22visit_generic_argumentNtNvCs4L8YLU89NU9_12synstructure13get_ty_params16BoundTypeLocatorEB10_, symObjAddr: 0x90C0, symBinAddr: 0x25360, symSize: 0x120 }
  - { offset: 0x4A3A1, size: 0x8, addend: 0x0, symName: __RINvNtNtCsdGrGZaRBwMb_3syn3gen5visit22visit_item_foreign_modNtNvCs4L8YLU89NU9_12synstructure13get_ty_params16BoundTypeLocatorEB10_, symObjAddr: 0x91E0, symBinAddr: 0x25480, symSize: 0xF0 }
  - { offset: 0x4A45C, size: 0x8, addend: 0x0, symName: __RINvNtNtCsdGrGZaRBwMb_3syn3gen5visit22visit_item_trait_aliasNtNvCs4L8YLU89NU9_12synstructure13get_ty_params16BoundTypeLocatorEB10_, symObjAddr: 0x92D0, symBinAddr: 0x25570, symSize: 0x190 }
  - { offset: 0x4A536, size: 0x8, addend: 0x0, symName: __RINvNtNtCsdGrGZaRBwMb_3syn3gen5visit22visit_pat_tuple_structNtNvCs4L8YLU89NU9_12synstructure13get_ty_params16BoundTypeLocatorEB10_, symObjAddr: 0x9460, symBinAddr: 0x25700, symSize: 0x1A0 }
  - { offset: 0x4A62E, size: 0x8, addend: 0x0, symName: __RINvNtNtCsdGrGZaRBwMb_3syn3gen5visit22visit_trait_item_constNtNvCs4L8YLU89NU9_12synstructure13get_ty_params16BoundTypeLocatorEB10_, symObjAddr: 0x9600, symBinAddr: 0x258A0, symSize: 0x110 }
  - { offset: 0x4A6CA, size: 0x8, addend: 0x0, symName: __RINvNtNtCsdGrGZaRBwMb_3syn3gen5visit22visit_trait_item_macroNtNvCs4L8YLU89NU9_12synstructure13get_ty_params16BoundTypeLocatorEB10_, symObjAddr: 0x9710, symBinAddr: 0x259B0, symSize: 0xA0 }
  - { offset: 0x4A748, size: 0x8, addend: 0x0, symName: __RINvNtNtCsdGrGZaRBwMb_3syn3gen5visit22visit_type_param_boundNtNvCs4L8YLU89NU9_12synstructure13get_ty_params16BoundTypeLocatorEB10_, symObjAddr: 0x97B0, symBinAddr: 0x25A50, symSize: 0xE0 }
  - { offset: 0x4A7FA, size: 0x8, addend: 0x0, symName: __RINvNtNtCsdGrGZaRBwMb_3syn3gen5visit23visit_foreign_item_typeNtNvCs4L8YLU89NU9_12synstructure13get_ty_params16BoundTypeLocatorEB11_, symObjAddr: 0x9890, symBinAddr: 0x25B30, symSize: 0xC0 }
  - { offset: 0x4A878, size: 0x8, addend: 0x0, symName: __RINvNtNtCsdGrGZaRBwMb_3syn3gen5visit23visit_item_extern_crateNtNvCs4L8YLU89NU9_12synstructure13get_ty_params16BoundTypeLocatorEB11_, symObjAddr: 0x9950, symBinAddr: 0x25BF0, symSize: 0xF0 }
  - { offset: 0x4A914, size: 0x8, addend: 0x0, symName: __RINvNtNtCsdGrGZaRBwMb_3syn3gen5visit23visit_static_mutabilityNtNvCs4L8YLU89NU9_12synstructure13get_ty_params16BoundTypeLocatorEB11_, symObjAddr: 0x9A40, symBinAddr: 0x25CE0, symSize: 0x40 }
  - { offset: 0x4A956, size: 0x8, addend: 0x0, symName: __RINvNtNtCsdGrGZaRBwMb_3syn3gen5visit23visit_type_trait_objectNtNvCs4L8YLU89NU9_12synstructure13get_ty_params16BoundTypeLocatorEB11_, symObjAddr: 0x9A80, symBinAddr: 0x25D20, symSize: 0xB0 }
  - { offset: 0x4A9F3, size: 0x8, addend: 0x0, symName: __RINvNtNtCsdGrGZaRBwMb_3syn3gen5visit24visit_foreign_item_macroNtNvCs4L8YLU89NU9_12synstructure13get_ty_params16BoundTypeLocatorEB12_, symObjAddr: 0x9B30, symBinAddr: 0x25DD0, symSize: 0xA0 }
  - { offset: 0x4AA71, size: 0x8, addend: 0x0, symName: __RINvNtNtCsdGrGZaRBwMb_3syn3gen5visit24visit_pointer_mutabilityNtNvCs4L8YLU89NU9_12synstructure13get_ty_params16BoundTypeLocatorEB12_, symObjAddr: 0x9BD0, symBinAddr: 0x25E70, symSize: 0x50 }
  - { offset: 0x4AAB3, size: 0x8, addend: 0x0, symName: __RINvNtNtCsdGrGZaRBwMb_3syn3gen5visit24visit_predicate_lifetimeNtNvCs4L8YLU89NU9_12synstructure13get_ty_params16BoundTypeLocatorEB12_, symObjAddr: 0x9C20, symBinAddr: 0x25EC0, symSize: 0xD0 }
  - { offset: 0x4AB50, size: 0x8, addend: 0x0, symName: __RINvNtNtCsdGrGZaRBwMb_3syn3gen5visit25visit_foreign_item_staticNtNvCs4L8YLU89NU9_12synstructure13get_ty_params16BoundTypeLocatorEB13_, symObjAddr: 0x9CF0, symBinAddr: 0x25F90, symSize: 0x110 }
  - { offset: 0x4ABCE, size: 0x8, addend: 0x0, symName: __RINvNtNtCsdGrGZaRBwMb_3syn3gen5visit26visit_trait_bound_modifierNtNvCs4L8YLU89NU9_12synstructure13get_ty_params16BoundTypeLocatorEB14_, symObjAddr: 0x9E00, symBinAddr: 0x260A0, symSize: 0x40 }
  - { offset: 0x4AC10, size: 0x8, addend: 0x0, symName: __RINvNtNtCsdGrGZaRBwMb_3syn3gen5visit37visit_parenthesized_generic_argumentsNtNvCs4L8YLU89NU9_12synstructure13get_ty_params16BoundTypeLocatorEB1f_, symObjAddr: 0x9E40, symBinAddr: 0x260E0, symSize: 0xD0 }
  - { offset: 0x4ACAD, size: 0x8, addend: 0x0, symName: __RINvNtNtCsdGrGZaRBwMb_3syn3gen5visit39visit_angle_bracketed_generic_argumentsNtNvCs4L8YLU89NU9_12synstructure13get_ty_params16BoundTypeLocatorEB1h_, symObjAddr: 0x9F10, symBinAddr: 0x261B0, symSize: 0xB0 }
  - { offset: 0x4AD4A, size: 0x8, addend: 0x0, symName: __RINvNtNtCsdGrGZaRBwMb_3syn3gen5visit9visit_abiNtNvCs4L8YLU89NU9_12synstructure13get_ty_params16BoundTypeLocatorEBM_, symObjAddr: 0x9FC0, symBinAddr: 0x26260, symSize: 0x60 }
  - { offset: 0x4ADAA, size: 0x8, addend: 0x0, symName: __RINvNtNtCsdGrGZaRBwMb_3syn3gen5visit9visit_armNtNvCs4L8YLU89NU9_12synstructure13get_ty_params16BoundTypeLocatorEBM_, symObjAddr: 0xA020, symBinAddr: 0x262C0, symSize: 0x190 }
  - { offset: 0x4AE3E, size: 0x8, addend: 0x0, symName: __RINvNtNtCsdGrGZaRBwMb_3syn3gen5visit9visit_litNtNvCs4L8YLU89NU9_12synstructure13get_ty_params16BoundTypeLocatorEBM_, symObjAddr: 0xA1B0, symBinAddr: 0x26450, symSize: 0x1A0 }
  - { offset: 0x4AF73, size: 0x8, addend: 0x0, symName: __RINvNtNtCsdGrGZaRBwMb_3syn3gen5visit9visit_patNtNvCs4L8YLU89NU9_12synstructure13get_ty_params16BoundTypeLocatorEBM_, symObjAddr: 0xA350, symBinAddr: 0x265F0, symSize: 0x350 }
  - { offset: 0x55DC0, size: 0x8, addend: 0x0, symName: __RINvMs6_NtCsjK30CmJ87bX_9hashbrown3rawINtB6_8RawTableTNtNtCsdGrGZaRBwMb_3syn2ty4TypeuEE14reserve_rehashNCINvNtB8_3map11make_hasherBQ_uNtNtNtCsHUR1vrdMJt_3std4hash6random11RandomStateE0ECs4L8YLU89NU9_12synstructure, symObjAddr: 0x0, symBinAddr: 0x1DA540, symSize: 0xD50 }
  - { offset: 0x55DFC, size: 0x8, addend: 0x0, symName: __RNCINvMs6_NtCsjK30CmJ87bX_9hashbrown3rawINtB8_8RawTableTNtNtCsdGrGZaRBwMb_3syn2ty4TypeuEE14reserve_rehashNCINvNtBa_3map11make_hasherBS_uNtNtNtCsHUR1vrdMJt_3std4hash6random11RandomStateE0E0Cs4L8YLU89NU9_12synstructure, symObjAddr: 0x1FF0, symBinAddr: 0x27BE0, symSize: 0xB0 }
  - { offset: 0x55FC2, size: 0x8, addend: 0x0, symName: __RNCINvMs6_NtCsjK30CmJ87bX_9hashbrown3rawINtB8_8RawTableTNtNtCsdGrGZaRBwMb_3syn2ty4TypeuEE14reserve_rehashNCINvNtBa_3map11make_hasherBS_uNtNtNtCsHUR1vrdMJt_3std4hash6random11RandomStateE0Es_0Cs4L8YLU89NU9_12synstructure, symObjAddr: 0x20A0, symBinAddr: 0x27C90, symSize: 0x30 }
  - { offset: 0x5601F, size: 0x8, addend: 0x0, symName: __RNCINvMs6_NtCsjK30CmJ87bX_9hashbrown3rawINtB8_8RawTableTNtNtCsdGrGZaRBwMb_3syn2ty4TypeuEE24find_or_find_insert_slotNCINvNtBa_3map14equivalent_keyBS_BS_uE0NCINvB1U_11make_hasherBS_uNtNtNtCsHUR1vrdMJt_3std4hash6random11RandomStateE0E0Cs4L8YLU89NU9_12synstructure, symObjAddr: 0x20D0, symBinAddr: 0x27CC0, symSize: 0xB0 }
  - { offset: 0x561FB, size: 0x8, addend: 0x0, symName: __RNCINvMs6_NtCsjK30CmJ87bX_9hashbrown3rawINtB8_8RawTableTNtNtCsdGrGZaRBwMb_3syn2ty4TypeuEE4findNCINvNtBa_3map14equivalent_keyBS_BS_uE0E0Cs4L8YLU89NU9_12synstructure, symObjAddr: 0x2180, symBinAddr: 0x27D70, symSize: 0xB0 }
  - { offset: 0x56B08, size: 0x8, addend: 0x0, symName: __RNCINvMsa_NtCsjK30CmJ87bX_9hashbrown3rawNtB8_13RawTableInner14prepare_resizeNtNtCslJiobkLta79_5alloc5alloc6GlobalE0Cs4L8YLU89NU9_12synstructure, symObjAddr: 0x2230, symBinAddr: 0x27E20, symSize: 0xD0 }
  - { offset: 0x56CD6, size: 0x8, addend: 0x0, symName: __RNCNvMsa_NtCsjK30CmJ87bX_9hashbrown3rawNtB7_13RawTableInner15rehash_in_place0Cs4L8YLU89NU9_12synstructure, symObjAddr: 0x2300, symBinAddr: 0x27EF0, symSize: 0x250 }
  - { offset: 0x572B9, size: 0x8, addend: 0x0, symName: __RNvNtCsjK30CmJ87bX_9hashbrown3raw19capacity_to_bucketsCs4L8YLU89NU9_12synstructure, symObjAddr: 0x3BE0, symBinAddr: 0x297D0, symSize: 0x280 }
  - { offset: 0x574CF, size: 0x8, addend: 0x0, symName: __RNvXsg_NtCsjK30CmJ87bX_9hashbrown3rawINtB5_8RawTableTNtNtCsdGrGZaRBwMb_3syn2ty4TypeuEENtNtNtCsieiGu2EXtoJ_4core3ops4drop4Drop4dropCs4L8YLU89NU9_12synstructure, symObjAddr: 0x3E60, symBinAddr: 0x29A50, symSize: 0x30 }
  - { offset: 0x63018, size: 0x8, addend: 0x0, symName: __RINvMs6_NtCsjK30CmJ87bX_9hashbrown3rawINtB6_8RawTableTNtNtCsdGrGZaRBwMb_3syn2ty4TypeuEE14reserve_rehashNCINvNtB8_3map11make_hasherBQ_uNtNtNtCsHUR1vrdMJt_3std4hash6random11RandomStateE0ECs4L8YLU89NU9_12synstructure, symObjAddr: 0x0, symBinAddr: 0x1DA540, symSize: 0xD50 }
  - { offset: 0x63AEB, size: 0x8, addend: 0x0, symName: __RINvMs6_NtCsjK30CmJ87bX_9hashbrown3rawINtB6_8RawTableTNtNtCsdGrGZaRBwMb_3syn2ty4TypeuEE24find_or_find_insert_slotNCINvNtB8_3map14equivalent_keyBQ_BQ_uE0NCINvB1S_11make_hasherBQ_uNtNtNtCsHUR1vrdMJt_3std4hash6random11RandomStateE0ECs4L8YLU89NU9_12synstructure, symObjAddr: 0xD50, symBinAddr: 0x26940, symSize: 0x160 }
  - { offset: 0x63FB5, size: 0x8, addend: 0x0, symName: __RINvMs6_NtCsjK30CmJ87bX_9hashbrown3rawINtB6_8RawTableTNtNtCsdGrGZaRBwMb_3syn2ty4TypeuEE4findNCINvNtB8_3map14equivalent_keyBQ_BQ_uE0ECs4L8YLU89NU9_12synstructure, symObjAddr: 0xEB0, symBinAddr: 0x26AA0, symSize: 0x490 }
  - { offset: 0x644CE, size: 0x8, addend: 0x0, symName: __RINvMs6_NtCsjK30CmJ87bX_9hashbrown3rawINtB6_8RawTableTNtNtCsdGrGZaRBwMb_3syn2ty4TypeuEE7reserveNCINvNtB8_3map11make_hasherBQ_uNtNtNtCsHUR1vrdMJt_3std4hash6random11RandomStateE0ECs4L8YLU89NU9_12synstructure, symObjAddr: 0x1340, symBinAddr: 0x26F30, symSize: 0xC0 }
  - { offset: 0x646C0, size: 0x8, addend: 0x0, symName: __RINvMsa_NtCsjK30CmJ87bX_9hashbrown3rawNtB6_13RawTableInner13drop_elementsTNtNtCsdGrGZaRBwMb_3syn2ty4TypeuEECs4L8YLU89NU9_12synstructure, symObjAddr: 0x1400, symBinAddr: 0x26FF0, symSize: 0x1D0 }
  - { offset: 0x64A23, size: 0x8, addend: 0x0, symName: __RINvMsa_NtCsjK30CmJ87bX_9hashbrown3rawNtB6_13RawTableInner16drop_inner_tableTNtNtCsdGrGZaRBwMb_3syn2ty4TypeuENtNtCslJiobkLta79_5alloc5alloc6GlobalECs4L8YLU89NU9_12synstructure, symObjAddr: 0x15D0, symBinAddr: 0x271C0, symSize: 0xD0 }
  - { offset: 0x64C1F, size: 0x8, addend: 0x0, symName: __RINvMsa_NtCsjK30CmJ87bX_9hashbrown3rawNtB6_13RawTableInner17new_uninitializedNtNtCslJiobkLta79_5alloc5alloc6GlobalECs4L8YLU89NU9_12synstructure, symObjAddr: 0x16A0, symBinAddr: 0x27290, symSize: 0x290 }
  - { offset: 0x64E73, size: 0x8, addend: 0x0, symName: __RINvMsa_NtCsjK30CmJ87bX_9hashbrown3rawNtB6_13RawTableInner22fallible_with_capacityNtNtCslJiobkLta79_5alloc5alloc6GlobalECs4L8YLU89NU9_12synstructure, symObjAddr: 0x1930, symBinAddr: 0x27520, symSize: 0x430 }
  - { offset: 0x6533C, size: 0x8, addend: 0x0, symName: __RINvMsi_NtCsjK30CmJ87bX_9hashbrown3rawINtB6_12RawIterRangeTNtNtCsdGrGZaRBwMb_3syn2ty4TypeuEE9next_implKb0_ECs4L8YLU89NU9_12synstructure, symObjAddr: 0x1D60, symBinAddr: 0x27950, symSize: 0x290 }
  - { offset: 0x65C7B, size: 0x8, addend: 0x0, symName: __RNvMs1_NtCsjK30CmJ87bX_9hashbrown3rawNtB5_11TableLayout20calculate_layout_forCs4L8YLU89NU9_12synstructure, symObjAddr: 0x2550, symBinAddr: 0x28140, symSize: 0x2F0 }
  - { offset: 0x6611E, size: 0x8, addend: 0x0, symName: __RNvMs6_NtCsjK30CmJ87bX_9hashbrown3rawINtB5_8RawTableTNtNtCsdGrGZaRBwMb_3syn2ty4TypeuEE14insert_in_slotCs4L8YLU89NU9_12synstructure, symObjAddr: 0x2840, symBinAddr: 0x28430, symSize: 0x150 }
  - { offset: 0x665BE, size: 0x8, addend: 0x0, symName: __RNvMsa_NtCsjK30CmJ87bX_9hashbrown3rawNtB5_13RawTableInner15fix_insert_slotCs4L8YLU89NU9_12synstructure, symObjAddr: 0x2990, symBinAddr: 0x28580, symSize: 0x140 }
  - { offset: 0x66957, size: 0x8, addend: 0x0, symName: __RNvMsa_NtCsjK30CmJ87bX_9hashbrown3rawNtB5_13RawTableInner15rehash_in_placeCs4L8YLU89NU9_12synstructure, symObjAddr: 0x2AD0, symBinAddr: 0x286C0, symSize: 0x5B0 }
  - { offset: 0x67123, size: 0x8, addend: 0x0, symName: __RNvMsa_NtCsjK30CmJ87bX_9hashbrown3rawNtB5_13RawTableInner16find_insert_slotCs4L8YLU89NU9_12synstructure, symObjAddr: 0x3080, symBinAddr: 0x28C70, symSize: 0x130 }
  - { offset: 0x67322, size: 0x8, addend: 0x0, symName: __RNvMsa_NtCsjK30CmJ87bX_9hashbrown3rawNtB5_13RawTableInner19prepare_insert_slotCs4L8YLU89NU9_12synstructure, symObjAddr: 0x31B0, symBinAddr: 0x28DA0, symSize: 0x60 }
  - { offset: 0x67613, size: 0x8, addend: 0x0, symName: __RNvMsa_NtCsjK30CmJ87bX_9hashbrown3rawNtB5_13RawTableInner23prepare_rehash_in_placeCs4L8YLU89NU9_12synstructure, symObjAddr: 0x3210, symBinAddr: 0x28E00, symSize: 0x340 }
  - { offset: 0x67D3A, size: 0x8, addend: 0x0, symName: __RNvMsa_NtCsjK30CmJ87bX_9hashbrown3rawNtB5_13RawTableInner25find_insert_slot_in_groupCs4L8YLU89NU9_12synstructure, symObjAddr: 0x3550, symBinAddr: 0x29140, symSize: 0x160 }
  - { offset: 0x68038, size: 0x8, addend: 0x0, symName: __RNvMsa_NtCsjK30CmJ87bX_9hashbrown3rawNtB5_13RawTableInner30find_or_find_insert_slot_innerCs4L8YLU89NU9_12synstructure, symObjAddr: 0x36B0, symBinAddr: 0x292A0, symSize: 0x410 }
  - { offset: 0x684C7, size: 0x8, addend: 0x0, symName: __RNvMsi_NtCsjK30CmJ87bX_9hashbrown3rawINtB5_12RawIterRangeTNtNtCsdGrGZaRBwMb_3syn2ty4TypeuEE3newCs4L8YLU89NU9_12synstructure, symObjAddr: 0x3AC0, symBinAddr: 0x296B0, symSize: 0x120 }
  - { offset: 0x6879A, size: 0x8, addend: 0x0, symName: __RINvMsi_NtCslJiobkLta79_5alloc3vecINtB6_3VecNtCs4L8YLU89NU9_12synstructure11BindingInfoE16extend_desugaredINtNtNtNtCsieiGu2EXtoJ_4core4iter8adapters3map3MapINtNtB1L_9enumerate9EnumerateINtNtCsdGrGZaRBwMb_3syn10punctuated4IterNtNtB32_4data5FieldEENCNvMs1_BI_NtBI_11VariantInfo3new0EEBI_, symObjAddr: 0x0, symBinAddr: 0x29A80, symSize: 0x250 }
  - { offset: 0x6F6E7, size: 0x8, addend: 0x0, symName: __RINvNtCslJiobkLta79_5alloc3vec9from_elembECs4L8YLU89NU9_12synstructure, symObjAddr: 0x4A0, symBinAddr: 0x29F20, symSize: 0x40 }
  - { offset: 0x6FBE2, size: 0x8, addend: 0x0, symName: __RNvXs6_NtCslJiobkLta79_5alloc3vecINtB5_3VecNtNtCsdGrGZaRBwMb_3syn8generics14WherePredicateENtNtNtCsieiGu2EXtoJ_4core3ops5deref5Deref5derefCs4L8YLU89NU9_12synstructure, symObjAddr: 0x2BA0, symBinAddr: 0x2BDF0, symSize: 0x20 }
  - { offset: 0x6FC22, size: 0x8, addend: 0x0, symName: __RNvXs6_NtCslJiobkLta79_5alloc3vecINtB5_3VecbENtNtNtCsieiGu2EXtoJ_4core3ops5deref5Deref5derefCs4L8YLU89NU9_12synstructure, symObjAddr: 0x2BC0, symBinAddr: 0x2BE10, symSize: 0x20 }
  - { offset: 0x6FD28, size: 0x8, addend: 0x0, symName: __RINvXsa_NtCslJiobkLta79_5alloc3vecINtB6_3VecNtNtCsdGrGZaRBwMb_3syn4attr9AttributeENtNtCsieiGu2EXtoJ_4core4hash4Hash4hashNtNtNtCsHUR1vrdMJt_3std4hash6random13DefaultHasherECs4L8YLU89NU9_12synstructure, symObjAddr: 0x4E0, symBinAddr: 0x29F60, symSize: 0x80 }
  - { offset: 0x6FEA6, size: 0x8, addend: 0x0, symName: __RINvXsa_NtCslJiobkLta79_5alloc3vecINtB6_3VecNtNtCsdGrGZaRBwMb_3syn4expr3ArmENtNtCsieiGu2EXtoJ_4core4hash4Hash4hashNtNtNtCsHUR1vrdMJt_3std4hash6random13DefaultHasherECs4L8YLU89NU9_12synstructure, symObjAddr: 0x560, symBinAddr: 0x29FE0, symSize: 0x80 }
  - { offset: 0x70024, size: 0x8, addend: 0x0, symName: __RINvXsa_NtCslJiobkLta79_5alloc3vecINtB6_3VecNtNtCsdGrGZaRBwMb_3syn4item11ForeignItemENtNtCsieiGu2EXtoJ_4core4hash4Hash4hashNtNtNtCsHUR1vrdMJt_3std4hash6random13DefaultHasherECs4L8YLU89NU9_12synstructure, symObjAddr: 0x5E0, symBinAddr: 0x2A060, symSize: 0x80 }
  - { offset: 0x701A2, size: 0x8, addend: 0x0, symName: __RINvXsa_NtCslJiobkLta79_5alloc3vecINtB6_3VecNtNtCsdGrGZaRBwMb_3syn4item4ItemENtNtCsieiGu2EXtoJ_4core4hash4Hash4hashNtNtNtCsHUR1vrdMJt_3std4hash6random13DefaultHasherECs4L8YLU89NU9_12synstructure, symObjAddr: 0x660, symBinAddr: 0x2A0E0, symSize: 0x80 }
  - { offset: 0x70320, size: 0x8, addend: 0x0, symName: __RINvXsa_NtCslJiobkLta79_5alloc3vecINtB6_3VecNtNtCsdGrGZaRBwMb_3syn4item8ImplItemENtNtCsieiGu2EXtoJ_4core4hash4Hash4hashNtNtNtCsHUR1vrdMJt_3std4hash6random13DefaultHasherECs4L8YLU89NU9_12synstructure, symObjAddr: 0x6E0, symBinAddr: 0x2A160, symSize: 0x80 }
  - { offset: 0x7049E, size: 0x8, addend: 0x0, symName: __RINvXsa_NtCslJiobkLta79_5alloc3vecINtB6_3VecNtNtCsdGrGZaRBwMb_3syn4item9TraitItemENtNtCsieiGu2EXtoJ_4core4hash4Hash4hashNtNtNtCsHUR1vrdMJt_3std4hash6random13DefaultHasherECs4L8YLU89NU9_12synstructure, symObjAddr: 0x760, symBinAddr: 0x2A1E0, symSize: 0x80 }
  - { offset: 0x7061C, size: 0x8, addend: 0x0, symName: __RINvXsa_NtCslJiobkLta79_5alloc3vecINtB6_3VecNtNtCsdGrGZaRBwMb_3syn4stmt4StmtENtNtCsieiGu2EXtoJ_4core4hash4Hash4hashNtNtNtCsHUR1vrdMJt_3std4hash6random13DefaultHasherECs4L8YLU89NU9_12synstructure, symObjAddr: 0x7E0, symBinAddr: 0x2A260, symSize: 0x80 }
  - { offset: 0x7079A, size: 0x8, addend: 0x0, symName: __RINvXsa_NtCslJiobkLta79_5alloc3vecINtB6_3VecTNtNtCsdGrGZaRBwMb_3syn2ty4TypeNtNtBL_5token5CommaEENtNtCsieiGu2EXtoJ_4core4hash4Hash4hashNtNtNtCsHUR1vrdMJt_3std4hash6random13DefaultHasherECs4L8YLU89NU9_12synstructure, symObjAddr: 0x860, symBinAddr: 0x2A2E0, symSize: 0x80 }
  - { offset: 0x70918, size: 0x8, addend: 0x0, symName: __RINvXsa_NtCslJiobkLta79_5alloc3vecINtB6_3VecTNtNtCsdGrGZaRBwMb_3syn2ty9BareFnArgNtNtBL_5token5CommaEENtNtCsieiGu2EXtoJ_4core4hash4Hash4hashNtNtNtCsHUR1vrdMJt_3std4hash6random13DefaultHasherECs4L8YLU89NU9_12synstructure, symObjAddr: 0x8E0, symBinAddr: 0x2A360, symSize: 0x80 }
  - { offset: 0x70A96, size: 0x8, addend: 0x0, symName: __RINvXsa_NtCslJiobkLta79_5alloc3vecINtB6_3VecTNtNtCsdGrGZaRBwMb_3syn3pat3PatNtNtBL_5token2OrEENtNtCsieiGu2EXtoJ_4core4hash4Hash4hashNtNtNtCsHUR1vrdMJt_3std4hash6random13DefaultHasherECs4L8YLU89NU9_12synstructure, symObjAddr: 0x960, symBinAddr: 0x2A3E0, symSize: 0x80 }
  - { offset: 0x70C14, size: 0x8, addend: 0x0, symName: __RINvXsa_NtCslJiobkLta79_5alloc3vecINtB6_3VecTNtNtCsdGrGZaRBwMb_3syn3pat3PatNtNtBL_5token5CommaEENtNtCsieiGu2EXtoJ_4core4hash4Hash4hashNtNtNtCsHUR1vrdMJt_3std4hash6random13DefaultHasherECs4L8YLU89NU9_12synstructure, symObjAddr: 0x9E0, symBinAddr: 0x2A460, symSize: 0x80 }
  - { offset: 0x70D92, size: 0x8, addend: 0x0, symName: __RINvXsa_NtCslJiobkLta79_5alloc3vecINtB6_3VecTNtNtCsdGrGZaRBwMb_3syn3pat8FieldPatNtNtBL_5token5CommaEENtNtCsieiGu2EXtoJ_4core4hash4Hash4hashNtNtNtCsHUR1vrdMJt_3std4hash6random13DefaultHasherECs4L8YLU89NU9_12synstructure, symObjAddr: 0xA60, symBinAddr: 0x2A4E0, symSize: 0x80 }
  - { offset: 0x70F10, size: 0x8, addend: 0x0, symName: __RINvXsa_NtCslJiobkLta79_5alloc3vecINtB6_3VecTNtNtCsdGrGZaRBwMb_3syn4data5FieldNtNtBL_5token5CommaEENtNtCsieiGu2EXtoJ_4core4hash4Hash4hashNtNtNtCsHUR1vrdMJt_3std4hash6random13DefaultHasherECs4L8YLU89NU9_12synstructure, symObjAddr: 0xAE0, symBinAddr: 0x2A560, symSize: 0x80 }
  - { offset: 0x7108E, size: 0x8, addend: 0x0, symName: __RINvXsa_NtCslJiobkLta79_5alloc3vecINtB6_3VecTNtNtCsdGrGZaRBwMb_3syn4data7VariantNtNtBL_5token5CommaEENtNtCsieiGu2EXtoJ_4core4hash4Hash4hashNtNtNtCsHUR1vrdMJt_3std4hash6random13DefaultHasherECs4L8YLU89NU9_12synstructure, symObjAddr: 0xB60, symBinAddr: 0x2A5E0, symSize: 0x80 }
  - { offset: 0x7120C, size: 0x8, addend: 0x0, symName: __RINvXsa_NtCslJiobkLta79_5alloc3vecINtB6_3VecTNtNtCsdGrGZaRBwMb_3syn4expr10FieldValueNtNtBL_5token5CommaEENtNtCsieiGu2EXtoJ_4core4hash4Hash4hashNtNtNtCsHUR1vrdMJt_3std4hash6random13DefaultHasherECs4L8YLU89NU9_12synstructure, symObjAddr: 0xBE0, symBinAddr: 0x2A660, symSize: 0x80 }
  - { offset: 0x7138A, size: 0x8, addend: 0x0, symName: __RINvXsa_NtCslJiobkLta79_5alloc3vecINtB6_3VecTNtNtCsdGrGZaRBwMb_3syn4expr4ExprNtNtBL_5token5CommaEENtNtCsieiGu2EXtoJ_4core4hash4Hash4hashNtNtNtCsHUR1vrdMJt_3std4hash6random13DefaultHasherECs4L8YLU89NU9_12synstructure, symObjAddr: 0xC60, symBinAddr: 0x2A6E0, symSize: 0x80 }
  - { offset: 0x71508, size: 0x8, addend: 0x0, symName: __RINvXsa_NtCslJiobkLta79_5alloc3vecINtB6_3VecTNtNtCsdGrGZaRBwMb_3syn4item5FnArgNtNtBL_5token5CommaEENtNtCsieiGu2EXtoJ_4core4hash4Hash4hashNtNtNtCsHUR1vrdMJt_3std4hash6random13DefaultHasherECs4L8YLU89NU9_12synstructure, symObjAddr: 0xCE0, symBinAddr: 0x2A760, symSize: 0x80 }
  - { offset: 0x71686, size: 0x8, addend: 0x0, symName: __RINvXsa_NtCslJiobkLta79_5alloc3vecINtB6_3VecTNtNtCsdGrGZaRBwMb_3syn4item7UseTreeNtNtBL_5token5CommaEENtNtCsieiGu2EXtoJ_4core4hash4Hash4hashNtNtNtCsHUR1vrdMJt_3std4hash6random13DefaultHasherECs4L8YLU89NU9_12synstructure, symObjAddr: 0xD60, symBinAddr: 0x2A7E0, symSize: 0x80 }
  - { offset: 0x71804, size: 0x8, addend: 0x0, symName: __RINvXsa_NtCslJiobkLta79_5alloc3vecINtB6_3VecTNtNtCsdGrGZaRBwMb_3syn4path11PathSegmentNtNtBL_5token7PathSepEENtNtCsieiGu2EXtoJ_4core4hash4Hash4hashNtNtNtCsHUR1vrdMJt_3std4hash6random13DefaultHasherECs4L8YLU89NU9_12synstructure, symObjAddr: 0xDE0, symBinAddr: 0x2A860, symSize: 0x80 }
  - { offset: 0x71982, size: 0x8, addend: 0x0, symName: __RINvXsa_NtCslJiobkLta79_5alloc3vecINtB6_3VecTNtNtCsdGrGZaRBwMb_3syn4path15GenericArgumentNtNtBL_5token5CommaEENtNtCsieiGu2EXtoJ_4core4hash4Hash4hashNtNtNtCsHUR1vrdMJt_3std4hash6random13DefaultHasherECs4L8YLU89NU9_12synstructure, symObjAddr: 0xE60, symBinAddr: 0x2A8E0, symSize: 0x80 }
  - { offset: 0x71B00, size: 0x8, addend: 0x0, symName: __RINvXsa_NtCslJiobkLta79_5alloc3vecINtB6_3VecTNtNtCsdGrGZaRBwMb_3syn8generics12GenericParamNtNtBL_5token5CommaEENtNtCsieiGu2EXtoJ_4core4hash4Hash4hashNtNtNtCsHUR1vrdMJt_3std4hash6random13DefaultHasherECs4L8YLU89NU9_12synstructure, symObjAddr: 0xEE0, symBinAddr: 0x2A960, symSize: 0x80 }
  - { offset: 0x71C7E, size: 0x8, addend: 0x0, symName: __RINvXsa_NtCslJiobkLta79_5alloc3vecINtB6_3VecTNtNtCsdGrGZaRBwMb_3syn8generics13CapturedParamNtNtBL_5token5CommaEENtNtCsieiGu2EXtoJ_4core4hash4Hash4hashNtNtNtCsHUR1vrdMJt_3std4hash6random13DefaultHasherECs4L8YLU89NU9_12synstructure, symObjAddr: 0xF60, symBinAddr: 0x2A9E0, symSize: 0x80 }
  - { offset: 0x71DFC, size: 0x8, addend: 0x0, symName: __RINvXsa_NtCslJiobkLta79_5alloc3vecINtB6_3VecTNtNtCsdGrGZaRBwMb_3syn8generics14TypeParamBoundNtNtBL_5token4PlusEENtNtCsieiGu2EXtoJ_4core4hash4Hash4hashNtNtNtCsHUR1vrdMJt_3std4hash6random13DefaultHasherECs4L8YLU89NU9_12synstructure, symObjAddr: 0xFE0, symBinAddr: 0x2AA60, symSize: 0x80 }
  - { offset: 0x71F7A, size: 0x8, addend: 0x0, symName: __RINvXsa_NtCslJiobkLta79_5alloc3vecINtB6_3VecTNtNtCsdGrGZaRBwMb_3syn8generics14WherePredicateNtNtBL_5token5CommaEENtNtCsieiGu2EXtoJ_4core4hash4Hash4hashNtNtNtCsHUR1vrdMJt_3std4hash6random13DefaultHasherECs4L8YLU89NU9_12synstructure, symObjAddr: 0x1060, symBinAddr: 0x2AAE0, symSize: 0x80 }
  - { offset: 0x720F8, size: 0x8, addend: 0x0, symName: __RINvXsa_NtCslJiobkLta79_5alloc3vecINtB6_3VecTNtNtCsdGrGZaRBwMb_3syn8lifetime8LifetimeNtNtBL_5token4PlusEENtNtCsieiGu2EXtoJ_4core4hash4Hash4hashNtNtNtCsHUR1vrdMJt_3std4hash6random13DefaultHasherECs4L8YLU89NU9_12synstructure, symObjAddr: 0x10E0, symBinAddr: 0x2AB60, symSize: 0x80 }
  - { offset: 0x7227C, size: 0x8, addend: 0x0, symName: __RINvXsd_NtCslJiobkLta79_5alloc3vecINtB6_3VecNtCs4L8YLU89NU9_12synstructure11BindingInfoEINtNtNtNtCsieiGu2EXtoJ_4core4iter6traits7collect12FromIteratorBG_E9from_iterINtNtNtB1v_8adapters3map3MapINtNtB2H_9enumerate9EnumerateINtNtCsdGrGZaRBwMb_3syn10punctuated4IterNtNtB3C_4data5FieldEENCNvMs1_BI_NtBI_11VariantInfo3new0EEBI_, symObjAddr: 0x1160, symBinAddr: 0x2ABE0, symSize: 0x40 }
  - { offset: 0x722BD, size: 0x8, addend: 0x0, symName: __RINvXsd_NtCslJiobkLta79_5alloc3vecINtB6_3VecNtCs4L8YLU89NU9_12synstructure11VariantInfoEINtNtNtNtCsieiGu2EXtoJ_4core4iter6traits7collect12FromIteratorBG_E9from_iterINtNtNtB1v_8adapters3map3MapINtNtCsdGrGZaRBwMb_3syn10punctuated4IterNtNtB39_4data7VariantENCNvMs2_BI_NtBI_9Structure7try_new0EEBI_, symObjAddr: 0x11A0, symBinAddr: 0x2AC20, symSize: 0x40 }
  - { offset: 0x726F2, size: 0x8, addend: 0x0, symName: __RNvNvMs_NtCslJiobkLta79_5alloc3vecINtB6_3VecppE17from_raw_parts_in18precondition_checkCs4L8YLU89NU9_12synstructure, symObjAddr: 0x22C0, symBinAddr: 0x2B570, symSize: 0xA0 }
  - { offset: 0x72760, size: 0x8, addend: 0x0, symName: __RNvNvMs_NtCslJiobkLta79_5alloc3vecINtB6_3VecppE7set_len18precondition_checkCs4L8YLU89NU9_12synstructure, symObjAddr: 0x2360, symBinAddr: 0x2B610, symSize: 0xA0 }
  - { offset: 0x727D4, size: 0x8, addend: 0x0, symName: __RNvXNtNtCslJiobkLta79_5alloc3vec11spec_extendINtB4_3VecNtCs4L8YLU89NU9_12synstructure11BindingInfoEINtB2_10SpecExtendBR_INtNtNtNtCsieiGu2EXtoJ_4core4iter8adapters3map3MapINtNtB1Z_9enumerate9EnumerateINtNtCsdGrGZaRBwMb_3syn10punctuated4IterNtNtB3g_4data5FieldEENCNvMs1_BT_NtBT_11VariantInfo3new0EE11spec_extendBT_, symObjAddr: 0x2400, symBinAddr: 0x2B6B0, symSize: 0x20 }
  - { offset: 0x72826, size: 0x8, addend: 0x0, symName: __RNvXNtNtCslJiobkLta79_5alloc3vec11spec_extendINtB4_3VecNtCs4L8YLU89NU9_12synstructure11VariantInfoEINtB2_10SpecExtendBR_INtNtNtNtCsieiGu2EXtoJ_4core4iter8adapters3map3MapINtNtCsdGrGZaRBwMb_3syn10punctuated4IterNtNtB2N_4data7VariantENCNvMs2_BT_NtBT_9Structure7try_new0EE11spec_extendBT_, symObjAddr: 0x2420, symBinAddr: 0x2B6D0, symSize: 0x20 }
  - { offset: 0x72884, size: 0x8, addend: 0x0, symName: __RNvXNtNtCslJiobkLta79_5alloc3vec14spec_from_iterINtB4_3VecNtCs4L8YLU89NU9_12synstructure11BindingInfoEINtB2_12SpecFromIterBU_INtNtNtNtCsieiGu2EXtoJ_4core4iter8adapters3map3MapINtNtB24_9enumerate9EnumerateINtNtCsdGrGZaRBwMb_3syn10punctuated4IterNtNtB3l_4data5FieldEENCNvMs1_BW_NtBW_11VariantInfo3new0EE9from_iterBW_, symObjAddr: 0x2440, symBinAddr: 0x2B6F0, symSize: 0x20 }
  - { offset: 0x728C3, size: 0x8, addend: 0x0, symName: __RNvXNtNtCslJiobkLta79_5alloc3vec14spec_from_iterINtB4_3VecNtCs4L8YLU89NU9_12synstructure11VariantInfoEINtB2_12SpecFromIterBU_INtNtNtNtCsieiGu2EXtoJ_4core4iter8adapters3map3MapINtNtCsdGrGZaRBwMb_3syn10punctuated4IterNtNtB2S_4data7VariantENCNvMs2_BW_NtBW_9Structure7try_new0EE9from_iterBW_, symObjAddr: 0x2460, symBinAddr: 0x2B710, symSize: 0x20 }
  - { offset: 0x7290E, size: 0x8, addend: 0x0, symName: __RNvXNtNtCslJiobkLta79_5alloc3vec21spec_from_iter_nestedINtB4_3VecNtCs4L8YLU89NU9_12synstructure11BindingInfoEINtB2_18SpecFromIterNestedB11_INtNtNtNtCsieiGu2EXtoJ_4core4iter8adapters3map3MapINtNtB2i_9enumerate9EnumerateINtNtCsdGrGZaRBwMb_3syn10punctuated4IterNtNtB3z_4data5FieldEENCNvMs1_B13_NtB13_11VariantInfo3new0EE9from_iterB13_, symObjAddr: 0x2480, symBinAddr: 0x2B730, symSize: 0x350 }
  - { offset: 0x72BC3, size: 0x8, addend: 0x0, symName: __RNvXNtNtCslJiobkLta79_5alloc3vec21spec_from_iter_nestedINtB4_3VecNtCs4L8YLU89NU9_12synstructure11VariantInfoEINtB2_18SpecFromIterNestedB11_INtNtNtNtCsieiGu2EXtoJ_4core4iter8adapters3map3MapINtNtCsdGrGZaRBwMb_3syn10punctuated4IterNtNtB36_4data7VariantENCNvMs2_B13_NtB13_9Structure7try_new0EE9from_iterB13_, symObjAddr: 0x27D0, symBinAddr: 0x2BA80, symSize: 0x340 }
  - { offset: 0x72EE5, size: 0x8, addend: 0x0, symName: __RNvXsc_NtCslJiobkLta79_5alloc3vecINtB5_3VecbEINtNtNtCsieiGu2EXtoJ_4core3ops5index8IndexMutjE9index_mutCs4L8YLU89NU9_12synstructure, symObjAddr: 0x2C20, symBinAddr: 0x2BE30, symSize: 0x70 }
  - { offset: 0x7303F, size: 0x8, addend: 0x0, symName: __RNvXse_NtCslJiobkLta79_5alloc3vecINtB5_3VecRNtCsaKzlTDPUHDb_11proc_macro25IdentENtNtNtNtCsieiGu2EXtoJ_4core4iter6traits7collect12IntoIterator9into_iterCs4L8YLU89NU9_12synstructure, symObjAddr: 0x2C90, symBinAddr: 0x2BEA0, symSize: 0x140 }
  - { offset: 0x732D5, size: 0x8, addend: 0x0, symName: __RNvXsf_NtCslJiobkLta79_5alloc3vecRINtB5_3VecNtCs4L8YLU89NU9_12synstructure11BindingInfoENtNtNtNtCsieiGu2EXtoJ_4core4iter6traits7collect12IntoIterator9into_iterBI_, symObjAddr: 0x2DD0, symBinAddr: 0x2BFE0, symSize: 0x80 }
  - { offset: 0x73502, size: 0x8, addend: 0x0, symName: __RNvXsf_NtCslJiobkLta79_5alloc3vecRINtB5_3VecNtCs4L8YLU89NU9_12synstructure11VariantInfoENtNtNtNtCsieiGu2EXtoJ_4core4iter6traits7collect12IntoIterator9into_iterBI_, symObjAddr: 0x2E50, symBinAddr: 0x2C060, symSize: 0x80 }
  - { offset: 0x7372F, size: 0x8, addend: 0x0, symName: __RNvXsf_NtCslJiobkLta79_5alloc3vecRINtB5_3VecNtNtCsdGrGZaRBwMb_3syn4expr3ArmENtNtNtNtCsieiGu2EXtoJ_4core4iter6traits7collect12IntoIterator9into_iterCs4L8YLU89NU9_12synstructure, symObjAddr: 0x2ED0, symBinAddr: 0x2C0E0, symSize: 0x80 }
  - { offset: 0x7395C, size: 0x8, addend: 0x0, symName: __RNvXsf_NtCslJiobkLta79_5alloc3vecRINtB5_3VecbENtNtNtNtCsieiGu2EXtoJ_4core4iter6traits7collect12IntoIterator9into_iterCs4L8YLU89NU9_12synstructure, symObjAddr: 0x2F50, symBinAddr: 0x2C160, symSize: 0x80 }
  - { offset: 0x73B8F, size: 0x8, addend: 0x0, symName: __RNvXsg_NtCslJiobkLta79_5alloc3vecQINtB5_3VecbENtNtNtNtCsieiGu2EXtoJ_4core4iter6traits7collect12IntoIterator9into_iterCs4L8YLU89NU9_12synstructure, symObjAddr: 0x2FD0, symBinAddr: 0x2C1E0, symSize: 0x80 }
  - { offset: 0x73DB6, size: 0x8, addend: 0x0, symName: __RNvXsn_NtCslJiobkLta79_5alloc3vecINtB5_3VecNtCs4L8YLU89NU9_12synstructure11BindingInfoENtNtNtCsieiGu2EXtoJ_4core3ops4drop4Drop4dropBH_, symObjAddr: 0x3050, symBinAddr: 0x2C260, symSize: 0x30 }
  - { offset: 0x73E66, size: 0x8, addend: 0x0, symName: __RNvXsn_NtCslJiobkLta79_5alloc3vecINtB5_3VecNtCs4L8YLU89NU9_12synstructure11VariantInfoENtNtNtCsieiGu2EXtoJ_4core3ops4drop4Drop4dropBH_, symObjAddr: 0x3080, symBinAddr: 0x2C290, symSize: 0x30 }
  - { offset: 0x73F16, size: 0x8, addend: 0x0, symName: __RNvXsn_NtCslJiobkLta79_5alloc3vecINtB5_3VecNtNtCsdGrGZaRBwMb_3syn8generics12GenericParamENtNtNtCsieiGu2EXtoJ_4core3ops4drop4Drop4dropCs4L8YLU89NU9_12synstructure, symObjAddr: 0x30B0, symBinAddr: 0x2C2C0, symSize: 0x30 }
  - { offset: 0x73FC6, size: 0x8, addend: 0x0, symName: __RNvXsn_NtCslJiobkLta79_5alloc3vecINtB5_3VecRNtCsaKzlTDPUHDb_11proc_macro25IdentENtNtNtCsieiGu2EXtoJ_4core3ops4drop4Drop4dropCs4L8YLU89NU9_12synstructure, symObjAddr: 0x30E0, symBinAddr: 0x2C2F0, symSize: 0x20 }
  - { offset: 0x74076, size: 0x8, addend: 0x0, symName: __RNvXsn_NtCslJiobkLta79_5alloc3vecINtB5_3VecbENtNtNtCsieiGu2EXtoJ_4core3ops4drop4Drop4dropCs4L8YLU89NU9_12synstructure, symObjAddr: 0x3100, symBinAddr: 0x2C310, symSize: 0x20 }
  - { offset: 0x7B0C9, size: 0x8, addend: 0x0, symName: __RINvMsi_NtCslJiobkLta79_5alloc3vecINtB6_3VecNtCs4L8YLU89NU9_12synstructure11BindingInfoE16extend_desugaredINtNtNtNtCsieiGu2EXtoJ_4core4iter8adapters3map3MapINtNtB1L_9enumerate9EnumerateINtNtCsdGrGZaRBwMb_3syn10punctuated4IterNtNtB32_4data5FieldEENCNvMs1_BI_NtBI_11VariantInfo3new0EEBI_, symObjAddr: 0x0, symBinAddr: 0x29A80, symSize: 0x250 }
  - { offset: 0x7B5B4, size: 0x8, addend: 0x0, symName: __RINvMsi_NtCslJiobkLta79_5alloc3vecINtB6_3VecNtCs4L8YLU89NU9_12synstructure11VariantInfoE16extend_desugaredINtNtNtNtCsieiGu2EXtoJ_4core4iter8adapters3map3MapINtNtCsdGrGZaRBwMb_3syn10punctuated4IterNtNtB2z_4data7VariantENCNvMs2_BI_NtBI_9Structure7try_new0EEBI_, symObjAddr: 0x250, symBinAddr: 0x29CD0, symSize: 0x250 }
  - { offset: 0x7D2D9, size: 0x8, addend: 0x0, symName: __RNvMNtCslJiobkLta79_5alloc3vecINtB2_3VecNtCs4L8YLU89NU9_12synstructure11BindingInfoE3newBE_, symObjAddr: 0x11E0, symBinAddr: 0x2AC60, symSize: 0x30 }
  - { offset: 0x7D2F6, size: 0x8, addend: 0x0, symName: __RNvMNtCslJiobkLta79_5alloc3vecINtB2_3VecNtNtCsdGrGZaRBwMb_3syn8generics12GenericParamE3newCs4L8YLU89NU9_12synstructure, symObjAddr: 0x1210, symBinAddr: 0x2AC90, symSize: 0x30 }
  - { offset: 0x7D313, size: 0x8, addend: 0x0, symName: __RNvMNtCslJiobkLta79_5alloc3vecINtB2_3VecNtNtCsdGrGZaRBwMb_3syn8generics14WherePredicateE3newCs4L8YLU89NU9_12synstructure, symObjAddr: 0x1240, symBinAddr: 0x2ACC0, symSize: 0x30 }
  - { offset: 0x7D330, size: 0x8, addend: 0x0, symName: __RNvMNtCslJiobkLta79_5alloc3vecINtB2_3VecRNtCsaKzlTDPUHDb_11proc_macro25IdentE3newCs4L8YLU89NU9_12synstructure, symObjAddr: 0x1270, symBinAddr: 0x2ACF0, symSize: 0x30 }
  - { offset: 0x7D4A4, size: 0x8, addend: 0x0, symName: __RNvMs2_NtCslJiobkLta79_5alloc3vecINtB5_3VecbE11extend_withCs4L8YLU89NU9_12synstructure, symObjAddr: 0x12D0, symBinAddr: 0x2AD20, symSize: 0x280 }
  - { offset: 0x7D7AF, size: 0x8, addend: 0x0, symName: __RNvMs_NtCslJiobkLta79_5alloc3vecINtB4_3VecNtCs4L8YLU89NU9_12synstructure11BindingInfoE3lenBG_, symObjAddr: 0x15A0, symBinAddr: 0x2AFA0, symSize: 0x10 }
  - { offset: 0x7D914, size: 0x8, addend: 0x0, symName: __RNvMs_NtCslJiobkLta79_5alloc3vecINtB4_3VecNtCs4L8YLU89NU9_12synstructure11BindingInfoE7reserveBG_, symObjAddr: 0x1770, symBinAddr: 0x2AFB0, symSize: 0xB0 }
  - { offset: 0x7DBA7, size: 0x8, addend: 0x0, symName: __RNvMs_NtCslJiobkLta79_5alloc3vecINtB4_3VecNtCs4L8YLU89NU9_12synstructure11VariantInfoE17from_raw_parts_inBG_, symObjAddr: 0x18E0, symBinAddr: 0x2B060, symSize: 0xA0 }
  - { offset: 0x7DE44, size: 0x8, addend: 0x0, symName: __RNvMs_NtCslJiobkLta79_5alloc3vecINtB4_3VecNtCs4L8YLU89NU9_12synstructure11VariantInfoE7reserveBG_, symObjAddr: 0x1B40, symBinAddr: 0x2B100, symSize: 0xB0 }
  - { offset: 0x7E051, size: 0x8, addend: 0x0, symName: __RNvMs_NtCslJiobkLta79_5alloc3vecINtB4_3VecNtNtCsdGrGZaRBwMb_3syn8generics14WherePredicateE4pushCs4L8YLU89NU9_12synstructure, symObjAddr: 0x1DF0, symBinAddr: 0x2B1B0, symSize: 0x20 }
  - { offset: 0x7E161, size: 0x8, addend: 0x0, symName: __RNvMs_NtCslJiobkLta79_5alloc3vecINtB4_3VecNtNtCsdGrGZaRBwMb_3syn8generics14WherePredicateE8as_sliceCs4L8YLU89NU9_12synstructure, symObjAddr: 0x1E10, symBinAddr: 0x2B1D0, symSize: 0x50 }
  - { offset: 0x7E240, size: 0x8, addend: 0x0, symName: __RNvMs_NtCslJiobkLta79_5alloc3vecINtB4_3VecNtNtCsdGrGZaRBwMb_3syn8generics14WherePredicateE8is_emptyCs4L8YLU89NU9_12synstructure, symObjAddr: 0x1E60, symBinAddr: 0x2B220, symSize: 0x20 }
  - { offset: 0x7E37F, size: 0x8, addend: 0x0, symName: __RNvMs_NtCslJiobkLta79_5alloc3vecINtB4_3VecNtNtCsdGrGZaRBwMb_3syn8generics14WherePredicateE8push_mutCs4L8YLU89NU9_12synstructure, symObjAddr: 0x1E80, symBinAddr: 0x2B240, symSize: 0x140 }
  - { offset: 0x7E541, size: 0x8, addend: 0x0, symName: __RNvMs_NtCslJiobkLta79_5alloc3vecINtB4_3VecRNtCsaKzlTDPUHDb_11proc_macro25IdentE4pushCs4L8YLU89NU9_12synstructure, symObjAddr: 0x1FC0, symBinAddr: 0x2B380, symSize: 0x20 }
  - { offset: 0x7E698, size: 0x8, addend: 0x0, symName: __RNvMs_NtCslJiobkLta79_5alloc3vecINtB4_3VecRNtCsaKzlTDPUHDb_11proc_macro25IdentE8push_mutCs4L8YLU89NU9_12synstructure, symObjAddr: 0x1FE0, symBinAddr: 0x2B3A0, symSize: 0xD0 }
  - { offset: 0x7E963, size: 0x8, addend: 0x0, symName: __RNvMs_NtCslJiobkLta79_5alloc3vecINtB4_3VecbE7reserveCs4L8YLU89NU9_12synstructure, symObjAddr: 0x20F0, symBinAddr: 0x2B470, symSize: 0xB0 }
  - { offset: 0x7EB67, size: 0x8, addend: 0x0, symName: __RNvMs_NtCslJiobkLta79_5alloc3vecINtB4_3VecbE8as_sliceCs4L8YLU89NU9_12synstructure, symObjAddr: 0x21A0, symBinAddr: 0x2B520, symSize: 0x50 }
  - { offset: 0x7F110, size: 0x8, addend: 0x0, symName: __RNvXs4_NtNtCs9OU1sGv5X54_5quote9___private3extINtNtCslJiobkLta79_5alloc3vec3VecNtCsaKzlTDPUHDb_11proc_macro29TokenTreeENtB5_16RepAsIteratorExt15quote_into_iterCs4L8YLU89NU9_12synstructure, symObjAddr: 0x2B10, symBinAddr: 0x2BDC0, symSize: 0x30 }
  - { offset: 0x7FC65, size: 0x8, addend: 0x0, symName: __RINvCs4L8YLU89NU9_12synstructure18get_or_insert_withNtNtCsdGrGZaRBwMb_3syn8generics11WhereClauseNCNCNvMs2_B2_NtB2_9Structure16add_trait_boundss_00EB2_, symObjAddr: 0x0, symBinAddr: 0x2C330, symSize: 0x170 }
  - { offset: 0x80600, size: 0x8, addend: 0x0, symName: __RINvCs4L8YLU89NU9_12synstructure18get_or_insert_withNtNtCsdGrGZaRBwMb_3syn8generics11WhereClauseNCNCNvMs2_B2_NtB2_9Structure16add_trait_boundss_00EB2_, symObjAddr: 0x0, symBinAddr: 0x2C330, symSize: 0x170 }
  - { offset: 0x8064F, size: 0x8, addend: 0x0, symName: __RINvCs4L8YLU89NU9_12synstructure18get_or_insert_withNtNtCsdGrGZaRBwMb_3syn8generics11WhereClauseNCNvMs2_B2_NtB2_9Structure16add_trait_bounds0EB2_, symObjAddr: 0x170, symBinAddr: 0x2C4A0, symSize: 0x170 }
  - { offset: 0x8087D, size: 0x8, addend: 0x0, symName: __RNCNCNvMs2_Cs4L8YLU89NU9_12synstructureNtB9_9Structure16add_trait_boundss_00B9_, symObjAddr: 0x320, symBinAddr: 0x2C650, symSize: 0x60 }
  - { offset: 0x808AF, size: 0x8, addend: 0x0, symName: __RNCNvMs2_Cs4L8YLU89NU9_12synstructureNtB7_9Structure16add_trait_bounds0B7_, symObjAddr: 0xCB0, symBinAddr: 0x2C8F0, symSize: 0x60 }
  - { offset: 0x808D9, size: 0x8, addend: 0x0, symName: __RNCNvMs2_Cs4L8YLU89NU9_12synstructureNtB7_9Structure16add_trait_boundss_0B7_, symObjAddr: 0xD10, symBinAddr: 0x2C950, symSize: 0x330 }
  - { offset: 0x8098A, size: 0x8, addend: 0x0, symName: __RNCNvMs2_Cs4L8YLU89NU9_12synstructureNtB7_9Structure7try_new0B7_, symObjAddr: 0x1040, symBinAddr: 0x2CC80, symSize: 0xA0 }
  - { offset: 0x809D0, size: 0x8, addend: 0x0, symName: __RNCNvMs2_Cs4L8YLU89NU9_12synstructureNtB7_9Structure8gen_impl0B7_, symObjAddr: 0x10E0, symBinAddr: 0x2CD20, symSize: 0x40 }
  - { offset: 0x80A29, size: 0x8, addend: 0x0, symName: __RNvNvMs2_Cs4L8YLU89NU9_12synstructureNtB7_9Structure14gen_impl_parse12parse_prefix, symObjAddr: 0x5230, symBinAddr: 0x2FB20, symSize: 0x330 }
  - { offset: 0x80AFC, size: 0x8, addend: 0x0, symName: __RNCNvMs1_Cs4L8YLU89NU9_12synstructureNtB7_11VariantInfo3new0B7_, symObjAddr: 0x380, symBinAddr: 0x2C6B0, symSize: 0x240 }
  - { offset: 0x80BD4, size: 0x8, addend: 0x0, symName: __RNvCs4L8YLU89NU9_12synstructure13get_ty_params, symObjAddr: 0x1270, symBinAddr: 0x2CD60, symSize: 0xD0 }
  - { offset: 0x80C28, size: 0x8, addend: 0x0, symName: __RNvCs4L8YLU89NU9_12synstructure14fetch_generics, symObjAddr: 0x1340, symBinAddr: 0x2CE30, symSize: 0x270 }
  - { offset: 0x80CC7, size: 0x8, addend: 0x0, symName: __RNvCs4L8YLU89NU9_12synstructure14merge_generics, symObjAddr: 0x15B0, symBinAddr: 0x2D0A0, symSize: 0x8C0 }
  - { offset: 0x810D0, size: 0x8, addend: 0x0, symName: __RNvXNvCs4L8YLU89NU9_12synstructure13get_ty_paramsNtB2_16BoundTypeLocatorNtNtNtCsdGrGZaRBwMb_3syn3gen5visit5Visit11visit_ident, symObjAddr: 0x5900, symBinAddr: 0x2FE50, symSize: 0x1C0 }
  - { offset: 0x8115C, size: 0x8, addend: 0x0, symName: __RNvXNvCs4L8YLU89NU9_12synstructure13get_ty_paramsNtB2_16BoundTypeLocatorNtNtNtCsdGrGZaRBwMb_3syn3gen5visit5Visit16visit_type_macro, symObjAddr: 0x5AC0, symBinAddr: 0x30010, symSize: 0x80 }
  - { offset: 0x8226C, size: 0x8, addend: 0x0, symName: __RINvMNtCslJiobkLta79_5alloc5sliceSNtCs4L8YLU89NU9_12synstructure11VariantInfo8into_vecNtNtB5_5alloc6GlobalEBy_, symObjAddr: 0x2E0, symBinAddr: 0x2C610, symSize: 0x40 }
  - { offset: 0x89B7A, size: 0x8, addend: 0x0, symName: __RNvXsh_NtCsdGrGZaRBwMb_3syn5parseNCNvMs2_Cs4L8YLU89NU9_12synstructureNtBD_9Structure8gen_impl0NtB5_6Parser6parse2BD_, symObjAddr: 0x5B70, symBinAddr: 0x30090, symSize: 0x450 }
  - { offset: 0x89DC0, size: 0x8, addend: 0x0, symName: __RNvYNtNvCs4L8YLU89NU9_12synstructure13get_ty_params16BoundTypeLocatorNtNtNtCsdGrGZaRBwMb_3syn3gen5visit5Visit10visit_exprB6_, symObjAddr: 0x5FC0, symBinAddr: 0x304E0, symSize: 0x30 }
  - { offset: 0x89DFF, size: 0x8, addend: 0x0, symName: __RNvYNtNvCs4L8YLU89NU9_12synstructure13get_ty_params16BoundTypeLocatorNtNtNtCsdGrGZaRBwMb_3syn3gen5visit5Visit10visit_itemB6_, symObjAddr: 0x5FF0, symBinAddr: 0x30510, symSize: 0x30 }
  - { offset: 0x89E41, size: 0x8, addend: 0x0, symName: __RNvYNtNvCs4L8YLU89NU9_12synstructure13get_ty_params16BoundTypeLocatorNtNtNtCsdGrGZaRBwMb_3syn3gen5visit5Visit10visit_metaB6_, symObjAddr: 0x6020, symBinAddr: 0x30540, symSize: 0x30 }
  - { offset: 0x89E83, size: 0x8, addend: 0x0, symName: __RNvYNtNvCs4L8YLU89NU9_12synstructure13get_ty_params16BoundTypeLocatorNtNtNtCsdGrGZaRBwMb_3syn3gen5visit5Visit10visit_pathB6_, symObjAddr: 0x6050, symBinAddr: 0x30570, symSize: 0x30 }
  - { offset: 0x89EC5, size: 0x8, addend: 0x0, symName: __RNvYNtNvCs4L8YLU89NU9_12synstructure13get_ty_params16BoundTypeLocatorNtNtNtCsdGrGZaRBwMb_3syn3gen5visit5Visit10visit_spanB6_, symObjAddr: 0x6080, symBinAddr: 0x305A0, symSize: 0x20 }
  - { offset: 0x89F07, size: 0x8, addend: 0x0, symName: __RNvYNtNvCs4L8YLU89NU9_12synstructure13get_ty_params16BoundTypeLocatorNtNtNtCsdGrGZaRBwMb_3syn3gen5visit5Visit10visit_stmtB6_, symObjAddr: 0x60A0, symBinAddr: 0x305C0, symSize: 0x30 }
  - { offset: 0x89F49, size: 0x8, addend: 0x0, symName: __RNvYNtNvCs4L8YLU89NU9_12synstructure13get_ty_params16BoundTypeLocatorNtNtNtCsdGrGZaRBwMb_3syn3gen5visit5Visit10visit_typeB6_, symObjAddr: 0x60D0, symBinAddr: 0x305F0, symSize: 0x30 }
  - { offset: 0x89F8B, size: 0x8, addend: 0x0, symName: __RNvYNtNvCs4L8YLU89NU9_12synstructure13get_ty_params16BoundTypeLocatorNtNtNtCsdGrGZaRBwMb_3syn3gen5visit5Visit11visit_blockB6_, symObjAddr: 0x6100, symBinAddr: 0x30620, symSize: 0x30 }
  - { offset: 0x89FCA, size: 0x8, addend: 0x0, symName: __RNvYNtNvCs4L8YLU89NU9_12synstructure13get_ty_params16BoundTypeLocatorNtNtNtCsdGrGZaRBwMb_3syn3gen5visit5Visit11visit_fieldB6_, symObjAddr: 0x6130, symBinAddr: 0x30650, symSize: 0x30 }
  - { offset: 0x8A00C, size: 0x8, addend: 0x0, symName: __RNvYNtNvCs4L8YLU89NU9_12synstructure13get_ty_params16BoundTypeLocatorNtNtNtCsdGrGZaRBwMb_3syn3gen5visit5Visit11visit_indexB6_, symObjAddr: 0x6160, symBinAddr: 0x30680, symSize: 0x30 }
  - { offset: 0x8A04E, size: 0x8, addend: 0x0, symName: __RNvYNtNvCs4L8YLU89NU9_12synstructure13get_ty_params16BoundTypeLocatorNtNtNtCsdGrGZaRBwMb_3syn3gen5visit5Visit11visit_labelB6_, symObjAddr: 0x6190, symBinAddr: 0x306B0, symSize: 0x30 }
  - { offset: 0x8A090, size: 0x8, addend: 0x0, symName: __RNvYNtNvCs4L8YLU89NU9_12synstructure13get_ty_params16BoundTypeLocatorNtNtNtCsdGrGZaRBwMb_3syn3gen5visit5Visit11visit_localB6_, symObjAddr: 0x61C0, symBinAddr: 0x306E0, symSize: 0x30 }
  - { offset: 0x8A0D2, size: 0x8, addend: 0x0, symName: __RNvYNtNvCs4L8YLU89NU9_12synstructure13get_ty_params16BoundTypeLocatorNtNtNtCsdGrGZaRBwMb_3syn3gen5visit5Visit11visit_macroB6_, symObjAddr: 0x61F0, symBinAddr: 0x30710, symSize: 0x30 }
  - { offset: 0x8A114, size: 0x8, addend: 0x0, symName: __RNvYNtNvCs4L8YLU89NU9_12synstructure13get_ty_params16BoundTypeLocatorNtNtNtCsdGrGZaRBwMb_3syn3gen5visit5Visit11visit_qselfB6_, symObjAddr: 0x6220, symBinAddr: 0x30740, symSize: 0x30 }
  - { offset: 0x8A156, size: 0x8, addend: 0x0, symName: __RNvYNtNvCs4L8YLU89NU9_12synstructure13get_ty_params16BoundTypeLocatorNtNtNtCsdGrGZaRBwMb_3syn3gen5visit5Visit11visit_un_opB6_, symObjAddr: 0x6250, symBinAddr: 0x30770, symSize: 0x30 }
  - { offset: 0x8A198, size: 0x8, addend: 0x0, symName: __RNvYNtNvCs4L8YLU89NU9_12synstructure13get_ty_params16BoundTypeLocatorNtNtNtCsdGrGZaRBwMb_3syn3gen5visit5Visit12visit_bin_opB6_, symObjAddr: 0x6280, symBinAddr: 0x307A0, symSize: 0x30 }
  - { offset: 0x8A1D7, size: 0x8, addend: 0x0, symName: __RNvYNtNvCs4L8YLU89NU9_12synstructure13get_ty_params16BoundTypeLocatorNtNtNtCsdGrGZaRBwMb_3syn3gen5visit5Visit12visit_fieldsB6_, symObjAddr: 0x62B0, symBinAddr: 0x307D0, symSize: 0x30 }
  - { offset: 0x8A219, size: 0x8, addend: 0x0, symName: __RNvYNtNvCs4L8YLU89NU9_12synstructure13get_ty_params16BoundTypeLocatorNtNtNtCsdGrGZaRBwMb_3syn3gen5visit5Visit12visit_fn_argB6_, symObjAddr: 0x62E0, symBinAddr: 0x30800, symSize: 0x30 }
  - { offset: 0x8A25B, size: 0x8, addend: 0x0, symName: __RNvYNtNvCs4L8YLU89NU9_12synstructure13get_ty_params16BoundTypeLocatorNtNtNtCsdGrGZaRBwMb_3syn3gen5visit5Visit12visit_memberB6_, symObjAddr: 0x6310, symBinAddr: 0x30830, symSize: 0x30 }
  - { offset: 0x8A29D, size: 0x8, addend: 0x0, symName: __RNvYNtNvCs4L8YLU89NU9_12synstructure13get_ty_params16BoundTypeLocatorNtNtNtCsdGrGZaRBwMb_3syn3gen5visit5Visit12visit_pat_orB6_, symObjAddr: 0x6340, symBinAddr: 0x30860, symSize: 0x30 }
  - { offset: 0x8A2DF, size: 0x8, addend: 0x0, symName: __RNvYNtNvCs4L8YLU89NU9_12synstructure13get_ty_params16BoundTypeLocatorNtNtNtCsdGrGZaRBwMb_3syn3gen5visit5Visit13visit_expr_ifB6_, symObjAddr: 0x6370, symBinAddr: 0x30890, symSize: 0x30 }
  - { offset: 0x8A31E, size: 0x8, addend: 0x0, symName: __RNvYNtNvCs4L8YLU89NU9_12synstructure13get_ty_params16BoundTypeLocatorNtNtNtCsdGrGZaRBwMb_3syn3gen5visit5Visit13visit_item_fnB6_, symObjAddr: 0x63A0, symBinAddr: 0x308C0, symSize: 0x30 }
  - { offset: 0x8A360, size: 0x8, addend: 0x0, symName: __RNvYNtNvCs4L8YLU89NU9_12synstructure13get_ty_params16BoundTypeLocatorNtNtNtCsdGrGZaRBwMb_3syn3gen5visit5Visit13visit_lit_intB6_, symObjAddr: 0x63D0, symBinAddr: 0x308F0, symSize: 0x30 }
  - { offset: 0x8A3A2, size: 0x8, addend: 0x0, symName: __RNvYNtNvCs4L8YLU89NU9_12synstructure13get_ty_params16BoundTypeLocatorNtNtNtCsdGrGZaRBwMb_3syn3gen5visit5Visit13visit_lit_strB6_, symObjAddr: 0x6400, symBinAddr: 0x30920, symSize: 0x30 }
  - { offset: 0x8A3E4, size: 0x8, addend: 0x0, symName: __RNvYNtNvCs4L8YLU89NU9_12synstructure13get_ty_params16BoundTypeLocatorNtNtNtCsdGrGZaRBwMb_3syn3gen5visit5Visit13visit_variantB6_, symObjAddr: 0x6430, symBinAddr: 0x30950, symSize: 0x30 }
  - { offset: 0x8A426, size: 0x8, addend: 0x0, symName: __RNvYNtNvCs4L8YLU89NU9_12synstructure13get_ty_params16BoundTypeLocatorNtNtNtCsdGrGZaRBwMb_3syn3gen5visit5Visit14visit_expr_letB6_, symObjAddr: 0x6460, symBinAddr: 0x30980, symSize: 0x30 }
  - { offset: 0x8A465, size: 0x8, addend: 0x0, symName: __RNvYNtNvCs4L8YLU89NU9_12synstructure13get_ty_params16BoundTypeLocatorNtNtNtCsdGrGZaRBwMb_3syn3gen5visit5Visit14visit_expr_litB6_, symObjAddr: 0x6490, symBinAddr: 0x309B0, symSize: 0x30 }
  - { offset: 0x8A4A4, size: 0x8, addend: 0x0, symName: __RNvYNtNvCs4L8YLU89NU9_12synstructure13get_ty_params16BoundTypeLocatorNtNtNtCsdGrGZaRBwMb_3syn3gen5visit5Visit14visit_expr_tryB6_, symObjAddr: 0x64C0, symBinAddr: 0x309E0, symSize: 0x30 }
  - { offset: 0x8A4E6, size: 0x8, addend: 0x0, symName: __RNvYNtNvCs4L8YLU89NU9_12synstructure13get_ty_params16BoundTypeLocatorNtNtNtCsdGrGZaRBwMb_3syn3gen5visit5Visit14visit_genericsB6_, symObjAddr: 0x64F0, symBinAddr: 0x30A10, symSize: 0x30 }
  - { offset: 0x8A528, size: 0x8, addend: 0x0, symName: __RNvYNtNvCs4L8YLU89NU9_12synstructure13get_ty_params16BoundTypeLocatorNtNtNtCsdGrGZaRBwMb_3syn3gen5visit5Visit14visit_item_modB6_, symObjAddr: 0x6520, symBinAddr: 0x30A40, symSize: 0x30 }
  - { offset: 0x8A56A, size: 0x8, addend: 0x0, symName: __RNvYNtNvCs4L8YLU89NU9_12synstructure13get_ty_params16BoundTypeLocatorNtNtNtCsdGrGZaRBwMb_3syn3gen5visit5Visit14visit_item_useB6_, symObjAddr: 0x6550, symBinAddr: 0x30A70, symSize: 0x30 }
  - { offset: 0x8A5AC, size: 0x8, addend: 0x0, symName: __RNvYNtNvCs4L8YLU89NU9_12synstructure13get_ty_params16BoundTypeLocatorNtNtNtCsdGrGZaRBwMb_3syn3gen5visit5Visit14visit_lifetimeB6_, symObjAddr: 0x6580, symBinAddr: 0x30AA0, symSize: 0x30 }
  - { offset: 0x8A5EE, size: 0x8, addend: 0x0, symName: __RNvYNtNvCs4L8YLU89NU9_12synstructure13get_ty_params16BoundTypeLocatorNtNtNtCsdGrGZaRBwMb_3syn3gen5visit5Visit14visit_lit_boolB6_, symObjAddr: 0x65B0, symBinAddr: 0x30AD0, symSize: 0x30 }
  - { offset: 0x8A630, size: 0x8, addend: 0x0, symName: __RNvYNtNvCs4L8YLU89NU9_12synstructure13get_ty_params16BoundTypeLocatorNtNtNtCsdGrGZaRBwMb_3syn3gen5visit5Visit14visit_lit_byteB6_, symObjAddr: 0x65E0, symBinAddr: 0x30B00, symSize: 0x30 }
  - { offset: 0x8A672, size: 0x8, addend: 0x0, symName: __RNvYNtNvCs4L8YLU89NU9_12synstructure13get_ty_params16BoundTypeLocatorNtNtNtCsdGrGZaRBwMb_3syn3gen5visit5Visit14visit_lit_charB6_, symObjAddr: 0x6610, symBinAddr: 0x30B30, symSize: 0x30 }
  - { offset: 0x8A6B4, size: 0x8, addend: 0x0, symName: __RNvYNtNvCs4L8YLU89NU9_12synstructure13get_ty_params16BoundTypeLocatorNtNtNtCsdGrGZaRBwMb_3syn3gen5visit5Visit14visit_lit_cstrB6_, symObjAddr: 0x6640, symBinAddr: 0x30B60, symSize: 0x30 }
  - { offset: 0x8A6F6, size: 0x8, addend: 0x0, symName: __RNvYNtNvCs4L8YLU89NU9_12synstructure13get_ty_params16BoundTypeLocatorNtNtNtCsdGrGZaRBwMb_3syn3gen5visit5Visit14visit_pat_restB6_, symObjAddr: 0x6670, symBinAddr: 0x30B90, symSize: 0x30 }
  - { offset: 0x8A738, size: 0x8, addend: 0x0, symName: __RNvYNtNvCs4L8YLU89NU9_12synstructure13get_ty_params16BoundTypeLocatorNtNtNtCsdGrGZaRBwMb_3syn3gen5visit5Visit14visit_pat_typeB6_, symObjAddr: 0x66A0, symBinAddr: 0x30BC0, symSize: 0x30 }
  - { offset: 0x8A77A, size: 0x8, addend: 0x0, symName: __RNvYNtNvCs4L8YLU89NU9_12synstructure13get_ty_params16BoundTypeLocatorNtNtNtCsdGrGZaRBwMb_3syn3gen5visit5Visit14visit_pat_wildB6_, symObjAddr: 0x66D0, symBinAddr: 0x30BF0, symSize: 0x30 }
  - { offset: 0x8A7BC, size: 0x8, addend: 0x0, symName: __RNvYNtNvCs4L8YLU89NU9_12synstructure13get_ty_params16BoundTypeLocatorNtNtNtCsdGrGZaRBwMb_3syn3gen5visit5Visit14visit_receiverB6_, symObjAddr: 0x6700, symBinAddr: 0x30C20, symSize: 0x30 }
  - { offset: 0x8A7FE, size: 0x8, addend: 0x0, symName: __RNvYNtNvCs4L8YLU89NU9_12synstructure13get_ty_params16BoundTypeLocatorNtNtNtCsdGrGZaRBwMb_3syn3gen5visit5Visit14visit_type_ptrB6_, symObjAddr: 0x6730, symBinAddr: 0x30C50, symSize: 0x30 }
  - { offset: 0x8A840, size: 0x8, addend: 0x0, symName: __RNvYNtNvCs4L8YLU89NU9_12synstructure13get_ty_params16BoundTypeLocatorNtNtNtCsdGrGZaRBwMb_3syn3gen5visit5Visit14visit_use_globB6_, symObjAddr: 0x6760, symBinAddr: 0x30C80, symSize: 0x30 }
  - { offset: 0x8A882, size: 0x8, addend: 0x0, symName: __RNvYNtNvCs4L8YLU89NU9_12synstructure13get_ty_params16BoundTypeLocatorNtNtNtCsdGrGZaRBwMb_3syn3gen5visit5Visit14visit_use_nameB6_, symObjAddr: 0x6790, symBinAddr: 0x30CB0, symSize: 0x30 }
  - { offset: 0x8A8C4, size: 0x8, addend: 0x0, symName: __RNvYNtNvCs4L8YLU89NU9_12synstructure13get_ty_params16BoundTypeLocatorNtNtNtCsdGrGZaRBwMb_3syn3gen5visit5Visit14visit_use_pathB6_, symObjAddr: 0x67C0, symBinAddr: 0x30CE0, symSize: 0x30 }
  - { offset: 0x8A906, size: 0x8, addend: 0x0, symName: __RNvYNtNvCs4L8YLU89NU9_12synstructure13get_ty_params16BoundTypeLocatorNtNtNtCsdGrGZaRBwMb_3syn3gen5visit5Visit14visit_use_treeB6_, symObjAddr: 0x67F0, symBinAddr: 0x30D10, symSize: 0x30 }
  - { offset: 0x8A948, size: 0x8, addend: 0x0, symName: __RNvYNtNvCs4L8YLU89NU9_12synstructure13get_ty_params16BoundTypeLocatorNtNtNtCsdGrGZaRBwMb_3syn3gen5visit5Visit14visit_variadicB6_, symObjAddr: 0x6820, symBinAddr: 0x30D40, symSize: 0x30 }
  - { offset: 0x8A98A, size: 0x8, addend: 0x0, symName: __RNvYNtNvCs4L8YLU89NU9_12synstructure13get_ty_params16BoundTypeLocatorNtNtNtCsdGrGZaRBwMb_3syn3gen5visit5Visit15visit_attributeB6_, symObjAddr: 0x6850, symBinAddr: 0x30D70, symSize: 0x30 }
  - { offset: 0x8A9C9, size: 0x8, addend: 0x0, symName: __RNvYNtNvCs4L8YLU89NU9_12synstructure13get_ty_params16BoundTypeLocatorNtNtNtCsdGrGZaRBwMb_3syn3gen5visit5Visit15visit_expr_callB6_, symObjAddr: 0x6880, symBinAddr: 0x30DA0, symSize: 0x30 }
  - { offset: 0x8AA08, size: 0x8, addend: 0x0, symName: __RNvYNtNvCs4L8YLU89NU9_12synstructure13get_ty_params16BoundTypeLocatorNtNtNtCsdGrGZaRBwMb_3syn3gen5visit5Visit15visit_expr_castB6_, symObjAddr: 0x68B0, symBinAddr: 0x30DD0, symSize: 0x30 }
  - { offset: 0x8AA47, size: 0x8, addend: 0x0, symName: __RNvYNtNvCs4L8YLU89NU9_12synstructure13get_ty_params16BoundTypeLocatorNtNtNtCsdGrGZaRBwMb_3syn3gen5visit5Visit15visit_expr_loopB6_, symObjAddr: 0x68E0, symBinAddr: 0x30E00, symSize: 0x30 }
  - { offset: 0x8AA86, size: 0x8, addend: 0x0, symName: __RNvYNtNvCs4L8YLU89NU9_12synstructure13get_ty_params16BoundTypeLocatorNtNtNtCsdGrGZaRBwMb_3syn3gen5visit5Visit15visit_expr_pathB6_, symObjAddr: 0x6910, symBinAddr: 0x30E30, symSize: 0x30 }
  - { offset: 0x8AAC8, size: 0x8, addend: 0x0, symName: __RNvYNtNvCs4L8YLU89NU9_12synstructure13get_ty_params16BoundTypeLocatorNtNtNtCsdGrGZaRBwMb_3syn3gen5visit5Visit15visit_field_patB6_, symObjAddr: 0x6940, symBinAddr: 0x30E60, symSize: 0x30 }
  - { offset: 0x8AB0A, size: 0x8, addend: 0x0, symName: __RNvYNtNvCs4L8YLU89NU9_12synstructure13get_ty_params16BoundTypeLocatorNtNtNtCsdGrGZaRBwMb_3syn3gen5visit5Visit15visit_impl_itemB6_, symObjAddr: 0x6970, symBinAddr: 0x30E90, symSize: 0x30 }
  - { offset: 0x8AB4C, size: 0x8, addend: 0x0, symName: __RNvYNtNvCs4L8YLU89NU9_12synstructure13get_ty_params16BoundTypeLocatorNtNtNtCsdGrGZaRBwMb_3syn3gen5visit5Visit15visit_item_enumB6_, symObjAddr: 0x69A0, symBinAddr: 0x30EC0, symSize: 0x30 }
  - { offset: 0x8AB8E, size: 0x8, addend: 0x0, symName: __RNvYNtNvCs4L8YLU89NU9_12synstructure13get_ty_params16BoundTypeLocatorNtNtNtCsdGrGZaRBwMb_3syn3gen5visit5Visit15visit_item_implB6_, symObjAddr: 0x69D0, symBinAddr: 0x30EF0, symSize: 0x30 }
  - { offset: 0x8ABD0, size: 0x8, addend: 0x0, symName: __RNvYNtNvCs4L8YLU89NU9_12synstructure13get_ty_params16BoundTypeLocatorNtNtNtCsdGrGZaRBwMb_3syn3gen5visit5Visit15visit_item_typeB6_, symObjAddr: 0x6A00, symBinAddr: 0x30F20, symSize: 0x30 }
  - { offset: 0x8AC12, size: 0x8, addend: 0x0, symName: __RNvYNtNvCs4L8YLU89NU9_12synstructure13get_ty_params16BoundTypeLocatorNtNtNtCsdGrGZaRBwMb_3syn3gen5visit5Visit15visit_lit_floatB6_, symObjAddr: 0x6A30, symBinAddr: 0x30F50, symSize: 0x30 }
  - { offset: 0x8AC54, size: 0x8, addend: 0x0, symName: __RNvYNtNvCs4L8YLU89NU9_12synstructure13get_ty_params16BoundTypeLocatorNtNtNtCsdGrGZaRBwMb_3syn3gen5visit5Visit15visit_meta_listB6_, symObjAddr: 0x6A60, symBinAddr: 0x30F80, symSize: 0x30 }
  - { offset: 0x8AC96, size: 0x8, addend: 0x0, symName: __RNvYNtNvCs4L8YLU89NU9_12synstructure13get_ty_params16BoundTypeLocatorNtNtNtCsdGrGZaRBwMb_3syn3gen5visit5Visit15visit_pat_identB6_, symObjAddr: 0x6A90, symBinAddr: 0x30FB0, symSize: 0x30 }
  - { offset: 0x8ACD8, size: 0x8, addend: 0x0, symName: __RNvYNtNvCs4L8YLU89NU9_12synstructure13get_ty_params16BoundTypeLocatorNtNtNtCsdGrGZaRBwMb_3syn3gen5visit5Visit15visit_pat_parenB6_, symObjAddr: 0x6AC0, symBinAddr: 0x30FE0, symSize: 0x30 }
  - { offset: 0x8AD1A, size: 0x8, addend: 0x0, symName: __RNvYNtNvCs4L8YLU89NU9_12synstructure13get_ty_params16BoundTypeLocatorNtNtNtCsdGrGZaRBwMb_3syn3gen5visit5Visit15visit_pat_sliceB6_, symObjAddr: 0x6AF0, symBinAddr: 0x31010, symSize: 0x30 }
  - { offset: 0x8AD5C, size: 0x8, addend: 0x0, symName: __RNvYNtNvCs4L8YLU89NU9_12synstructure13get_ty_params16BoundTypeLocatorNtNtNtCsdGrGZaRBwMb_3syn3gen5visit5Visit15visit_pat_tupleB6_, symObjAddr: 0x6B20, symBinAddr: 0x31040, symSize: 0x30 }
  - { offset: 0x8AD9E, size: 0x8, addend: 0x0, symName: __RNvYNtNvCs4L8YLU89NU9_12synstructure13get_ty_params16BoundTypeLocatorNtNtNtCsdGrGZaRBwMb_3syn3gen5visit5Visit15visit_signatureB6_, symObjAddr: 0x6B50, symBinAddr: 0x31070, symSize: 0x30 }
  - { offset: 0x8ADE0, size: 0x8, addend: 0x0, symName: __RNvYNtNvCs4L8YLU89NU9_12synstructure13get_ty_params16BoundTypeLocatorNtNtNtCsdGrGZaRBwMb_3syn3gen5visit5Visit15visit_type_pathB6_, symObjAddr: 0x6B80, symBinAddr: 0x310A0, symSize: 0x30 }
  - { offset: 0x8AE22, size: 0x8, addend: 0x0, symName: __RNvYNtNvCs4L8YLU89NU9_12synstructure13get_ty_params16BoundTypeLocatorNtNtNtCsdGrGZaRBwMb_3syn3gen5visit5Visit15visit_use_groupB6_, symObjAddr: 0x6BB0, symBinAddr: 0x310D0, symSize: 0x30 }
  - { offset: 0x8AE64, size: 0x8, addend: 0x0, symName: __RNvYNtNvCs4L8YLU89NU9_12synstructure13get_ty_params16BoundTypeLocatorNtNtNtCsdGrGZaRBwMb_3syn3gen5visit5Visit16visit_assoc_typeB6_, symObjAddr: 0x6BE0, symBinAddr: 0x31100, symSize: 0x30 }
  - { offset: 0x8AEA3, size: 0x8, addend: 0x0, symName: __RNvYNtNvCs4L8YLU89NU9_12synstructure13get_ty_params16BoundTypeLocatorNtNtNtCsdGrGZaRBwMb_3syn3gen5visit5Visit16visit_attr_styleB6_, symObjAddr: 0x6C10, symBinAddr: 0x31130, symSize: 0x30 }
  - { offset: 0x8AEE2, size: 0x8, addend: 0x0, symName: __RNvYNtNvCs4L8YLU89NU9_12synstructure13get_ty_params16BoundTypeLocatorNtNtNtCsdGrGZaRBwMb_3syn3gen5visit5Visit16visit_constraintB6_, symObjAddr: 0x6C40, symBinAddr: 0x31160, symSize: 0x30 }
  - { offset: 0x8AF21, size: 0x8, addend: 0x0, symName: __RNvYNtNvCs4L8YLU89NU9_12synstructure13get_ty_params16BoundTypeLocatorNtNtNtCsdGrGZaRBwMb_3syn3gen5visit5Visit16visit_expr_arrayB6_, symObjAddr: 0x6C70, symBinAddr: 0x31190, symSize: 0x30 }
  - { offset: 0x8AF60, size: 0x8, addend: 0x0, symName: __RNvYNtNvCs4L8YLU89NU9_12synstructure13get_ty_params16BoundTypeLocatorNtNtNtCsdGrGZaRBwMb_3syn3gen5visit5Visit16visit_expr_asyncB6_, symObjAddr: 0x6CA0, symBinAddr: 0x311C0, symSize: 0x30 }
  - { offset: 0x8AF9F, size: 0x8, addend: 0x0, symName: __RNvYNtNvCs4L8YLU89NU9_12synstructure13get_ty_params16BoundTypeLocatorNtNtNtCsdGrGZaRBwMb_3syn3gen5visit5Visit16visit_expr_awaitB6_, symObjAddr: 0x6CD0, symBinAddr: 0x311F0, symSize: 0x30 }
  - { offset: 0x8AFDE, size: 0x8, addend: 0x0, symName: __RNvYNtNvCs4L8YLU89NU9_12synstructure13get_ty_params16BoundTypeLocatorNtNtNtCsdGrGZaRBwMb_3syn3gen5visit5Visit16visit_expr_blockB6_, symObjAddr: 0x6D00, symBinAddr: 0x31220, symSize: 0x30 }
  - { offset: 0x8B01D, size: 0x8, addend: 0x0, symName: __RNvYNtNvCs4L8YLU89NU9_12synstructure13get_ty_params16BoundTypeLocatorNtNtNtCsdGrGZaRBwMb_3syn3gen5visit5Visit16visit_expr_breakB6_, symObjAddr: 0x6D30, symBinAddr: 0x31250, symSize: 0x30 }
  - { offset: 0x8B05C, size: 0x8, addend: 0x0, symName: __RNvYNtNvCs4L8YLU89NU9_12synstructure13get_ty_params16BoundTypeLocatorNtNtNtCsdGrGZaRBwMb_3syn3gen5visit5Visit16visit_expr_constB6_, symObjAddr: 0x6D60, symBinAddr: 0x31280, symSize: 0x30 }
  - { offset: 0x8B09B, size: 0x8, addend: 0x0, symName: __RNvYNtNvCs4L8YLU89NU9_12synstructure13get_ty_params16BoundTypeLocatorNtNtNtCsdGrGZaRBwMb_3syn3gen5visit5Visit16visit_expr_fieldB6_, symObjAddr: 0x6D90, symBinAddr: 0x312B0, symSize: 0x30 }
  - { offset: 0x8B0DA, size: 0x8, addend: 0x0, symName: __RNvYNtNvCs4L8YLU89NU9_12synstructure13get_ty_params16BoundTypeLocatorNtNtNtCsdGrGZaRBwMb_3syn3gen5visit5Visit16visit_expr_groupB6_, symObjAddr: 0x6DC0, symBinAddr: 0x312E0, symSize: 0x30 }
  - { offset: 0x8B119, size: 0x8, addend: 0x0, symName: __RNvYNtNvCs4L8YLU89NU9_12synstructure13get_ty_params16BoundTypeLocatorNtNtNtCsdGrGZaRBwMb_3syn3gen5visit5Visit16visit_expr_indexB6_, symObjAddr: 0x6DF0, symBinAddr: 0x31310, symSize: 0x30 }
  - { offset: 0x8B158, size: 0x8, addend: 0x0, symName: __RNvYNtNvCs4L8YLU89NU9_12synstructure13get_ty_params16BoundTypeLocatorNtNtNtCsdGrGZaRBwMb_3syn3gen5visit5Visit16visit_expr_inferB6_, symObjAddr: 0x6E20, symBinAddr: 0x31340, symSize: 0x30 }
  - { offset: 0x8B197, size: 0x8, addend: 0x0, symName: __RNvYNtNvCs4L8YLU89NU9_12synstructure13get_ty_params16BoundTypeLocatorNtNtNtCsdGrGZaRBwMb_3syn3gen5visit5Visit16visit_expr_macroB6_, symObjAddr: 0x6E50, symBinAddr: 0x31370, symSize: 0x30 }
  - { offset: 0x8B1D6, size: 0x8, addend: 0x0, symName: __RNvYNtNvCs4L8YLU89NU9_12synstructure13get_ty_params16BoundTypeLocatorNtNtNtCsdGrGZaRBwMb_3syn3gen5visit5Visit16visit_expr_matchB6_, symObjAddr: 0x6E80, symBinAddr: 0x313A0, symSize: 0x30 }
  - { offset: 0x8B215, size: 0x8, addend: 0x0, symName: __RNvYNtNvCs4L8YLU89NU9_12synstructure13get_ty_params16BoundTypeLocatorNtNtNtCsdGrGZaRBwMb_3syn3gen5visit5Visit16visit_expr_parenB6_, symObjAddr: 0x6EB0, symBinAddr: 0x313D0, symSize: 0x30 }
  - { offset: 0x8B257, size: 0x8, addend: 0x0, symName: __RNvYNtNvCs4L8YLU89NU9_12synstructure13get_ty_params16BoundTypeLocatorNtNtNtCsdGrGZaRBwMb_3syn3gen5visit5Visit16visit_expr_rangeB6_, symObjAddr: 0x6EE0, symBinAddr: 0x31400, symSize: 0x30 }
  - { offset: 0x8B299, size: 0x8, addend: 0x0, symName: __RNvYNtNvCs4L8YLU89NU9_12synstructure13get_ty_params16BoundTypeLocatorNtNtNtCsdGrGZaRBwMb_3syn3gen5visit5Visit16visit_expr_tupleB6_, symObjAddr: 0x6F10, symBinAddr: 0x31430, symSize: 0x30 }
  - { offset: 0x8B2DB, size: 0x8, addend: 0x0, symName: __RNvYNtNvCs4L8YLU89NU9_12synstructure13get_ty_params16BoundTypeLocatorNtNtNtCsdGrGZaRBwMb_3syn3gen5visit5Visit16visit_expr_unaryB6_, symObjAddr: 0x6F40, symBinAddr: 0x31460, symSize: 0x30 }
  - { offset: 0x8B31D, size: 0x8, addend: 0x0, symName: __RNvYNtNvCs4L8YLU89NU9_12synstructure13get_ty_params16BoundTypeLocatorNtNtNtCsdGrGZaRBwMb_3syn3gen5visit5Visit16visit_expr_whileB6_, symObjAddr: 0x6F70, symBinAddr: 0x31490, symSize: 0x30 }
  - { offset: 0x8B35F, size: 0x8, addend: 0x0, symName: __RNvYNtNvCs4L8YLU89NU9_12synstructure13get_ty_params16BoundTypeLocatorNtNtNtCsdGrGZaRBwMb_3syn3gen5visit5Visit16visit_expr_yieldB6_, symObjAddr: 0x6FA0, symBinAddr: 0x314C0, symSize: 0x30 }
  - { offset: 0x8B3A1, size: 0x8, addend: 0x0, symName: __RNvYNtNvCs4L8YLU89NU9_12synstructure13get_ty_params16BoundTypeLocatorNtNtNtCsdGrGZaRBwMb_3syn3gen5visit5Visit16visit_item_constB6_, symObjAddr: 0x6FD0, symBinAddr: 0x314F0, symSize: 0x30 }
  - { offset: 0x8B3E3, size: 0x8, addend: 0x0, symName: __RNvYNtNvCs4L8YLU89NU9_12synstructure13get_ty_params16BoundTypeLocatorNtNtNtCsdGrGZaRBwMb_3syn3gen5visit5Visit16visit_item_macroB6_, symObjAddr: 0x7000, symBinAddr: 0x31520, symSize: 0x30 }
  - { offset: 0x8B425, size: 0x8, addend: 0x0, symName: __RNvYNtNvCs4L8YLU89NU9_12synstructure13get_ty_params16BoundTypeLocatorNtNtNtCsdGrGZaRBwMb_3syn3gen5visit5Visit16visit_item_traitB6_, symObjAddr: 0x7030, symBinAddr: 0x31550, symSize: 0x30 }
  - { offset: 0x8B467, size: 0x8, addend: 0x0, symName: __RNvYNtNvCs4L8YLU89NU9_12synstructure13get_ty_params16BoundTypeLocatorNtNtNtCsdGrGZaRBwMb_3syn3gen5visit5Visit16visit_item_unionB6_, symObjAddr: 0x7060, symBinAddr: 0x31580, symSize: 0x30 }
  - { offset: 0x8B4A9, size: 0x8, addend: 0x0, symName: __RNvYNtNvCs4L8YLU89NU9_12synstructure13get_ty_params16BoundTypeLocatorNtNtNtCsdGrGZaRBwMb_3syn3gen5visit5Visit16visit_local_initB6_, symObjAddr: 0x7090, symBinAddr: 0x315B0, symSize: 0x30 }
  - { offset: 0x8B4EB, size: 0x8, addend: 0x0, symName: __RNvYNtNvCs4L8YLU89NU9_12synstructure13get_ty_params16BoundTypeLocatorNtNtNtCsdGrGZaRBwMb_3syn3gen5visit5Visit16visit_pat_structB6_, symObjAddr: 0x70C0, symBinAddr: 0x315E0, symSize: 0x30 }
  - { offset: 0x8B52D, size: 0x8, addend: 0x0, symName: __RNvYNtNvCs4L8YLU89NU9_12synstructure13get_ty_params16BoundTypeLocatorNtNtNtCsdGrGZaRBwMb_3syn3gen5visit5Visit16visit_stmt_macroB6_, symObjAddr: 0x70F0, symBinAddr: 0x31610, symSize: 0x30 }
  - { offset: 0x8B56F, size: 0x8, addend: 0x0, symName: __RNvYNtNvCs4L8YLU89NU9_12synstructure13get_ty_params16BoundTypeLocatorNtNtNtCsdGrGZaRBwMb_3syn3gen5visit5Visit16visit_trait_itemB6_, symObjAddr: 0x7120, symBinAddr: 0x31640, symSize: 0x30 }
  - { offset: 0x8B5B1, size: 0x8, addend: 0x0, symName: __RNvYNtNvCs4L8YLU89NU9_12synstructure13get_ty_params16BoundTypeLocatorNtNtNtCsdGrGZaRBwMb_3syn3gen5visit5Visit16visit_type_arrayB6_, symObjAddr: 0x7150, symBinAddr: 0x31670, symSize: 0x30 }
  - { offset: 0x8B5F3, size: 0x8, addend: 0x0, symName: __RNvYNtNvCs4L8YLU89NU9_12synstructure13get_ty_params16BoundTypeLocatorNtNtNtCsdGrGZaRBwMb_3syn3gen5visit5Visit16visit_type_groupB6_, symObjAddr: 0x7180, symBinAddr: 0x316A0, symSize: 0x30 }
  - { offset: 0x8B635, size: 0x8, addend: 0x0, symName: __RNvYNtNvCs4L8YLU89NU9_12synstructure13get_ty_params16BoundTypeLocatorNtNtNtCsdGrGZaRBwMb_3syn3gen5visit5Visit16visit_type_inferB6_, symObjAddr: 0x71B0, symBinAddr: 0x316D0, symSize: 0x30 }
  - { offset: 0x8B677, size: 0x8, addend: 0x0, symName: __RNvYNtNvCs4L8YLU89NU9_12synstructure13get_ty_params16BoundTypeLocatorNtNtNtCsdGrGZaRBwMb_3syn3gen5visit5Visit16visit_type_neverB6_, symObjAddr: 0x71E0, symBinAddr: 0x31700, symSize: 0x30 }
  - { offset: 0x8B6B9, size: 0x8, addend: 0x0, symName: __RNvYNtNvCs4L8YLU89NU9_12synstructure13get_ty_params16BoundTypeLocatorNtNtNtCsdGrGZaRBwMb_3syn3gen5visit5Visit16visit_type_paramB6_, symObjAddr: 0x7210, symBinAddr: 0x31730, symSize: 0x30 }
  - { offset: 0x8B6FB, size: 0x8, addend: 0x0, symName: __RNvYNtNvCs4L8YLU89NU9_12synstructure13get_ty_params16BoundTypeLocatorNtNtNtCsdGrGZaRBwMb_3syn3gen5visit5Visit16visit_type_parenB6_, symObjAddr: 0x7240, symBinAddr: 0x31760, symSize: 0x30 }
  - { offset: 0x8B73D, size: 0x8, addend: 0x0, symName: __RNvYNtNvCs4L8YLU89NU9_12synstructure13get_ty_params16BoundTypeLocatorNtNtNtCsdGrGZaRBwMb_3syn3gen5visit5Visit16visit_type_sliceB6_, symObjAddr: 0x7270, symBinAddr: 0x31790, symSize: 0x30 }
  - { offset: 0x8B77F, size: 0x8, addend: 0x0, symName: __RNvYNtNvCs4L8YLU89NU9_12synstructure13get_ty_params16BoundTypeLocatorNtNtNtCsdGrGZaRBwMb_3syn3gen5visit5Visit16visit_type_tupleB6_, symObjAddr: 0x72A0, symBinAddr: 0x317C0, symSize: 0x30 }
  - { offset: 0x8B7C1, size: 0x8, addend: 0x0, symName: __RNvYNtNvCs4L8YLU89NU9_12synstructure13get_ty_params16BoundTypeLocatorNtNtNtCsdGrGZaRBwMb_3syn3gen5visit5Visit16visit_use_renameB6_, symObjAddr: 0x72D0, symBinAddr: 0x317F0, symSize: 0x30 }
  - { offset: 0x8B803, size: 0x8, addend: 0x0, symName: __RNvYNtNvCs4L8YLU89NU9_12synstructure13get_ty_params16BoundTypeLocatorNtNtNtCsdGrGZaRBwMb_3syn3gen5visit5Visit16visit_visibilityB6_, symObjAddr: 0x7300, symBinAddr: 0x31820, symSize: 0x30 }
  - { offset: 0x8B845, size: 0x8, addend: 0x0, symName: __RNvYNtNvCs4L8YLU89NU9_12synstructure13get_ty_params16BoundTypeLocatorNtNtNtCsdGrGZaRBwMb_3syn3gen5visit5Visit17visit_assoc_constB6_, symObjAddr: 0x7330, symBinAddr: 0x31850, symSize: 0x30 }
  - { offset: 0x8B884, size: 0x8, addend: 0x0, symName: __RNvYNtNvCs4L8YLU89NU9_12synstructure13get_ty_params16BoundTypeLocatorNtNtNtCsdGrGZaRBwMb_3syn3gen5visit5Visit17visit_bare_fn_argB6_, symObjAddr: 0x7360, symBinAddr: 0x31880, symSize: 0x30 }
  - { offset: 0x8B8C3, size: 0x8, addend: 0x0, symName: __RNvYNtNvCs4L8YLU89NU9_12synstructure13get_ty_params16BoundTypeLocatorNtNtNtCsdGrGZaRBwMb_3syn3gen5visit5Visit17visit_const_paramB6_, symObjAddr: 0x7390, symBinAddr: 0x318B0, symSize: 0x30 }
  - { offset: 0x8B902, size: 0x8, addend: 0x0, symName: __RNvYNtNvCs4L8YLU89NU9_12synstructure13get_ty_params16BoundTypeLocatorNtNtNtCsdGrGZaRBwMb_3syn3gen5visit5Visit17visit_expr_assignB6_, symObjAddr: 0x73C0, symBinAddr: 0x318E0, symSize: 0x30 }
  - { offset: 0x8B941, size: 0x8, addend: 0x0, symName: __RNvYNtNvCs4L8YLU89NU9_12synstructure13get_ty_params16BoundTypeLocatorNtNtNtCsdGrGZaRBwMb_3syn3gen5visit5Visit17visit_expr_binaryB6_, symObjAddr: 0x73F0, symBinAddr: 0x31910, symSize: 0x30 }
  - { offset: 0x8B980, size: 0x8, addend: 0x0, symName: __RNvYNtNvCs4L8YLU89NU9_12synstructure13get_ty_params16BoundTypeLocatorNtNtNtCsdGrGZaRBwMb_3syn3gen5visit5Visit17visit_expr_repeatB6_, symObjAddr: 0x7420, symBinAddr: 0x31940, symSize: 0x30 }
  - { offset: 0x8B9C2, size: 0x8, addend: 0x0, symName: __RNvYNtNvCs4L8YLU89NU9_12synstructure13get_ty_params16BoundTypeLocatorNtNtNtCsdGrGZaRBwMb_3syn3gen5visit5Visit17visit_expr_returnB6_, symObjAddr: 0x7450, symBinAddr: 0x31970, symSize: 0x30 }
  - { offset: 0x8BA04, size: 0x8, addend: 0x0, symName: __RNvYNtNvCs4L8YLU89NU9_12synstructure13get_ty_params16BoundTypeLocatorNtNtNtCsdGrGZaRBwMb_3syn3gen5visit5Visit17visit_expr_structB6_, symObjAddr: 0x7480, symBinAddr: 0x319A0, symSize: 0x30 }
  - { offset: 0x8BA46, size: 0x8, addend: 0x0, symName: __RNvYNtNvCs4L8YLU89NU9_12synstructure13get_ty_params16BoundTypeLocatorNtNtNtCsdGrGZaRBwMb_3syn3gen5visit5Visit17visit_expr_unsafeB6_, symObjAddr: 0x74B0, symBinAddr: 0x319D0, symSize: 0x30 }
  - { offset: 0x8BA88, size: 0x8, addend: 0x0, symName: __RNvYNtNvCs4L8YLU89NU9_12synstructure13get_ty_params16BoundTypeLocatorNtNtNtCsdGrGZaRBwMb_3syn3gen5visit5Visit17visit_field_valueB6_, symObjAddr: 0x74E0, symBinAddr: 0x31A00, symSize: 0x30 }
  - { offset: 0x8BACA, size: 0x8, addend: 0x0, symName: __RNvYNtNvCs4L8YLU89NU9_12synstructure13get_ty_params16BoundTypeLocatorNtNtNtCsdGrGZaRBwMb_3syn3gen5visit5Visit17visit_item_staticB6_, symObjAddr: 0x7510, symBinAddr: 0x31A30, symSize: 0x30 }
  - { offset: 0x8BB0C, size: 0x8, addend: 0x0, symName: __RNvYNtNvCs4L8YLU89NU9_12synstructure13get_ty_params16BoundTypeLocatorNtNtNtCsdGrGZaRBwMb_3syn3gen5visit5Visit17visit_item_structB6_, symObjAddr: 0x7540, symBinAddr: 0x31A60, symSize: 0x30 }
  - { offset: 0x8BB4E, size: 0x8, addend: 0x0, symName: __RNvYNtNvCs4L8YLU89NU9_12synstructure13get_ty_params16BoundTypeLocatorNtNtNtCsdGrGZaRBwMb_3syn3gen5visit5Visit17visit_return_typeB6_, symObjAddr: 0x7570, symBinAddr: 0x31A90, symSize: 0x30 }
  - { offset: 0x8BB90, size: 0x8, addend: 0x0, symName: __RNvYNtNvCs4L8YLU89NU9_12synstructure13get_ty_params16BoundTypeLocatorNtNtNtCsdGrGZaRBwMb_3syn3gen5visit5Visit17visit_trait_boundB6_, symObjAddr: 0x75A0, symBinAddr: 0x31AC0, symSize: 0x30 }
  - { offset: 0x8BBD2, size: 0x8, addend: 0x0, symName: __RNvYNtNvCs4L8YLU89NU9_12synstructure13get_ty_params16BoundTypeLocatorNtNtNtCsdGrGZaRBwMb_3syn3gen5visit5Visit18visit_expr_closureB6_, symObjAddr: 0x75D0, symBinAddr: 0x31AF0, symSize: 0x30 }
  - { offset: 0x8BC11, size: 0x8, addend: 0x0, symName: __RNvYNtNvCs4L8YLU89NU9_12synstructure13get_ty_params16BoundTypeLocatorNtNtNtCsdGrGZaRBwMb_3syn3gen5visit5Visit18visit_fields_namedB6_, symObjAddr: 0x7600, symBinAddr: 0x31B20, symSize: 0x30 }
  - { offset: 0x8BC53, size: 0x8, addend: 0x0, symName: __RNvYNtNvCs4L8YLU89NU9_12synstructure13get_ty_params16BoundTypeLocatorNtNtNtCsdGrGZaRBwMb_3syn3gen5visit5Visit18visit_foreign_itemB6_, symObjAddr: 0x7630, symBinAddr: 0x31B50, symSize: 0x30 }
  - { offset: 0x8BC95, size: 0x8, addend: 0x0, symName: __RNvYNtNvCs4L8YLU89NU9_12synstructure13get_ty_params16BoundTypeLocatorNtNtNtCsdGrGZaRBwMb_3syn3gen5visit5Visit18visit_impl_item_fnB6_, symObjAddr: 0x7660, symBinAddr: 0x31B80, symSize: 0x30 }
  - { offset: 0x8BCD7, size: 0x8, addend: 0x0, symName: __RNvYNtNvCs4L8YLU89NU9_12synstructure13get_ty_params16BoundTypeLocatorNtNtNtCsdGrGZaRBwMb_3syn3gen5visit5Visit18visit_lit_byte_strB6_, symObjAddr: 0x7690, symBinAddr: 0x31BB0, symSize: 0x30 }
  - { offset: 0x8BD19, size: 0x8, addend: 0x0, symName: __RNvYNtNvCs4L8YLU89NU9_12synstructure13get_ty_params16BoundTypeLocatorNtNtNtCsdGrGZaRBwMb_3syn3gen5visit5Visit18visit_path_segmentB6_, symObjAddr: 0x76C0, symBinAddr: 0x31BE0, symSize: 0x30 }
  - { offset: 0x8BD5B, size: 0x8, addend: 0x0, symName: __RNvYNtNvCs4L8YLU89NU9_12synstructure13get_ty_params16BoundTypeLocatorNtNtNtCsdGrGZaRBwMb_3syn3gen5visit5Visit18visit_range_limitsB6_, symObjAddr: 0x76F0, symBinAddr: 0x31C10, symSize: 0x30 }
  - { offset: 0x8BD9D, size: 0x8, addend: 0x0, symName: __RNvYNtNvCs4L8YLU89NU9_12synstructure13get_ty_params16BoundTypeLocatorNtNtNtCsdGrGZaRBwMb_3syn3gen5visit5Visit18visit_token_streamB6_, symObjAddr: 0x7720, symBinAddr: 0x31C40, symSize: 0x20 }
  - { offset: 0x8BDDF, size: 0x8, addend: 0x0, symName: __RNvYNtNvCs4L8YLU89NU9_12synstructure13get_ty_params16BoundTypeLocatorNtNtNtCsdGrGZaRBwMb_3syn3gen5visit5Visit18visit_type_bare_fnB6_, symObjAddr: 0x7740, symBinAddr: 0x31C60, symSize: 0x30 }
  - { offset: 0x8BE21, size: 0x8, addend: 0x0, symName: __RNvYNtNvCs4L8YLU89NU9_12synstructure13get_ty_params16BoundTypeLocatorNtNtNtCsdGrGZaRBwMb_3syn3gen5visit5Visit18visit_where_clauseB6_, symObjAddr: 0x7770, symBinAddr: 0x31C90, symSize: 0x30 }
  - { offset: 0x8BE63, size: 0x8, addend: 0x0, symName: __RNvYNtNvCs4L8YLU89NU9_12synstructure13get_ty_params16BoundTypeLocatorNtNtNtCsdGrGZaRBwMb_3syn3gen5visit5Visit19visit_bare_variadicB6_, symObjAddr: 0x77A0, symBinAddr: 0x31CC0, symSize: 0x30 }
  - { offset: 0x8BEA2, size: 0x8, addend: 0x0, symName: __RNvYNtNvCs4L8YLU89NU9_12synstructure13get_ty_params16BoundTypeLocatorNtNtNtCsdGrGZaRBwMb_3syn3gen5visit5Visit19visit_expr_continueB6_, symObjAddr: 0x77D0, symBinAddr: 0x31CF0, symSize: 0x30 }
  - { offset: 0x8BEE1, size: 0x8, addend: 0x0, symName: __RNvYNtNvCs4L8YLU89NU9_12synstructure13get_ty_params16BoundTypeLocatorNtNtNtCsdGrGZaRBwMb_3syn3gen5visit5Visit19visit_expr_for_loopB6_, symObjAddr: 0x7800, symBinAddr: 0x31D20, symSize: 0x30 }
  - { offset: 0x8BF20, size: 0x8, addend: 0x0, symName: __RNvYNtNvCs4L8YLU89NU9_12synstructure13get_ty_params16BoundTypeLocatorNtNtNtCsdGrGZaRBwMb_3syn3gen5visit5Visit19visit_expr_raw_addrB6_, symObjAddr: 0x7830, symBinAddr: 0x31D50, symSize: 0x30 }
  - { offset: 0x8BF62, size: 0x8, addend: 0x0, symName: __RNvYNtNvCs4L8YLU89NU9_12synstructure13get_ty_params16BoundTypeLocatorNtNtNtCsdGrGZaRBwMb_3syn3gen5visit5Visit19visit_generic_paramB6_, symObjAddr: 0x7860, symBinAddr: 0x31D80, symSize: 0x30 }
  - { offset: 0x8BFA4, size: 0x8, addend: 0x0, symName: __RNvYNtNvCs4L8YLU89NU9_12synstructure13get_ty_params16BoundTypeLocatorNtNtNtCsdGrGZaRBwMb_3syn3gen5visit5Visit19visit_pat_referenceB6_, symObjAddr: 0x7890, symBinAddr: 0x31DB0, symSize: 0x30 }
  - { offset: 0x8BFE6, size: 0x8, addend: 0x0, symName: __RNvYNtNvCs4L8YLU89NU9_12synstructure13get_ty_params16BoundTypeLocatorNtNtNtCsdGrGZaRBwMb_3syn3gen5visit5Visit19visit_trait_item_fnB6_, symObjAddr: 0x78C0, symBinAddr: 0x31DE0, symSize: 0x30 }
  - { offset: 0x8C028, size: 0x8, addend: 0x0, symName: __RNvYNtNvCs4L8YLU89NU9_12synstructure13get_ty_params16BoundTypeLocatorNtNtNtCsdGrGZaRBwMb_3syn3gen5visit5Visit20visit_captured_paramB6_, symObjAddr: 0x78F0, symBinAddr: 0x31E10, symSize: 0x30 }
  - { offset: 0x8C067, size: 0x8, addend: 0x0, symName: __RNvYNtNvCs4L8YLU89NU9_12synstructure13get_ty_params16BoundTypeLocatorNtNtNtCsdGrGZaRBwMb_3syn3gen5visit5Visit20visit_expr_referenceB6_, symObjAddr: 0x7920, symBinAddr: 0x31E40, symSize: 0x30 }
  - { offset: 0x8C0A9, size: 0x8, addend: 0x0, symName: __RNvYNtNvCs4L8YLU89NU9_12synstructure13get_ty_params16BoundTypeLocatorNtNtNtCsdGrGZaRBwMb_3syn3gen5visit5Visit20visit_expr_try_blockB6_, symObjAddr: 0x7950, symBinAddr: 0x31E70, symSize: 0x30 }
  - { offset: 0x8C0EB, size: 0x8, addend: 0x0, symName: __RNvYNtNvCs4L8YLU89NU9_12synstructure13get_ty_params16BoundTypeLocatorNtNtNtCsdGrGZaRBwMb_3syn3gen5visit5Visit20visit_fields_unnamedB6_, symObjAddr: 0x7980, symBinAddr: 0x31EA0, symSize: 0x30 }
  - { offset: 0x8C12D, size: 0x8, addend: 0x0, symName: __RNvYNtNvCs4L8YLU89NU9_12synstructure13get_ty_params16BoundTypeLocatorNtNtNtCsdGrGZaRBwMb_3syn3gen5visit5Visit20visit_impl_item_typeB6_, symObjAddr: 0x79B0, symBinAddr: 0x31ED0, symSize: 0x30 }
  - { offset: 0x8C16F, size: 0x8, addend: 0x0, symName: __RNvYNtNvCs4L8YLU89NU9_12synstructure13get_ty_params16BoundTypeLocatorNtNtNtCsdGrGZaRBwMb_3syn3gen5visit5Visit20visit_lifetime_paramB6_, symObjAddr: 0x79E0, symBinAddr: 0x31F00, symSize: 0x30 }
  - { offset: 0x8C1B1, size: 0x8, addend: 0x0, symName: __RNvYNtNvCs4L8YLU89NU9_12synstructure13get_ty_params16BoundTypeLocatorNtNtNtCsdGrGZaRBwMb_3syn3gen5visit5Visit20visit_path_argumentsB6_, symObjAddr: 0x7A10, symBinAddr: 0x31F30, symSize: 0x30 }
  - { offset: 0x8C1F3, size: 0x8, addend: 0x0, symName: __RNvYNtNvCs4L8YLU89NU9_12synstructure13get_ty_params16BoundTypeLocatorNtNtNtCsdGrGZaRBwMb_3syn3gen5visit5Visit20visit_predicate_typeB6_, symObjAddr: 0x7A40, symBinAddr: 0x31F60, symSize: 0x30 }
  - { offset: 0x8C235, size: 0x8, addend: 0x0, symName: __RNvYNtNvCs4L8YLU89NU9_12synstructure13get_ty_params16BoundTypeLocatorNtNtNtCsdGrGZaRBwMb_3syn3gen5visit5Visit20visit_type_referenceB6_, symObjAddr: 0x7A70, symBinAddr: 0x31F90, symSize: 0x30 }
  - { offset: 0x8C277, size: 0x8, addend: 0x0, symName: __RNvYNtNvCs4L8YLU89NU9_12synstructure13get_ty_params16BoundTypeLocatorNtNtNtCsdGrGZaRBwMb_3syn3gen5visit5Visit20visit_vis_restrictedB6_, symObjAddr: 0x7AA0, symBinAddr: 0x31FC0, symSize: 0x30 }
  - { offset: 0x8C2B9, size: 0x8, addend: 0x0, symName: __RNvYNtNvCs4L8YLU89NU9_12synstructure13get_ty_params16BoundTypeLocatorNtNtNtCsdGrGZaRBwMb_3syn3gen5visit5Visit21visit_bound_lifetimesB6_, symObjAddr: 0x7AD0, symBinAddr: 0x31FF0, symSize: 0x30 }
  - { offset: 0x8C2F8, size: 0x8, addend: 0x0, symName: __RNvYNtNvCs4L8YLU89NU9_12synstructure13get_ty_params16BoundTypeLocatorNtNtNtCsdGrGZaRBwMb_3syn3gen5visit5Visit21visit_foreign_item_fnB6_, symObjAddr: 0x7B00, symBinAddr: 0x32020, symSize: 0x30 }
  - { offset: 0x8C33A, size: 0x8, addend: 0x0, symName: __RNvYNtNvCs4L8YLU89NU9_12synstructure13get_ty_params16BoundTypeLocatorNtNtNtCsdGrGZaRBwMb_3syn3gen5visit5Visit21visit_impl_item_constB6_, symObjAddr: 0x7B30, symBinAddr: 0x32050, symSize: 0x30 }
  - { offset: 0x8C37C, size: 0x8, addend: 0x0, symName: __RNvYNtNvCs4L8YLU89NU9_12synstructure13get_ty_params16BoundTypeLocatorNtNtNtCsdGrGZaRBwMb_3syn3gen5visit5Visit21visit_impl_item_macroB6_, symObjAddr: 0x7B60, symBinAddr: 0x32080, symSize: 0x30 }
  - { offset: 0x8C3BE, size: 0x8, addend: 0x0, symName: __RNvYNtNvCs4L8YLU89NU9_12synstructure13get_ty_params16BoundTypeLocatorNtNtNtCsdGrGZaRBwMb_3syn3gen5visit5Visit21visit_macro_delimiterB6_, symObjAddr: 0x7B90, symBinAddr: 0x320B0, symSize: 0x30 }
  - { offset: 0x8C400, size: 0x8, addend: 0x0, symName: __RNvYNtNvCs4L8YLU89NU9_12synstructure13get_ty_params16BoundTypeLocatorNtNtNtCsdGrGZaRBwMb_3syn3gen5visit5Visit21visit_meta_name_valueB6_, symObjAddr: 0x7BC0, symBinAddr: 0x320E0, symSize: 0x30 }
  - { offset: 0x8C442, size: 0x8, addend: 0x0, symName: __RNvYNtNvCs4L8YLU89NU9_12synstructure13get_ty_params16BoundTypeLocatorNtNtNtCsdGrGZaRBwMb_3syn3gen5visit5Visit21visit_precise_captureB6_, symObjAddr: 0x7BF0, symBinAddr: 0x32110, symSize: 0x30 }
  - { offset: 0x8C484, size: 0x8, addend: 0x0, symName: __RNvYNtNvCs4L8YLU89NU9_12synstructure13get_ty_params16BoundTypeLocatorNtNtNtCsdGrGZaRBwMb_3syn3gen5visit5Visit21visit_trait_item_typeB6_, symObjAddr: 0x7C20, symBinAddr: 0x32140, symSize: 0x30 }
  - { offset: 0x8C4C6, size: 0x8, addend: 0x0, symName: __RNvYNtNvCs4L8YLU89NU9_12synstructure13get_ty_params16BoundTypeLocatorNtNtNtCsdGrGZaRBwMb_3syn3gen5visit5Visit21visit_type_impl_traitB6_, symObjAddr: 0x7C50, symBinAddr: 0x32170, symSize: 0x30 }
  - { offset: 0x8C508, size: 0x8, addend: 0x0, symName: __RNvYNtNvCs4L8YLU89NU9_12synstructure13get_ty_params16BoundTypeLocatorNtNtNtCsdGrGZaRBwMb_3syn3gen5visit5Visit21visit_where_predicateB6_, symObjAddr: 0x7C80, symBinAddr: 0x321A0, symSize: 0x30 }
  - { offset: 0x8C54A, size: 0x8, addend: 0x0, symName: __RNvYNtNvCs4L8YLU89NU9_12synstructure13get_ty_params16BoundTypeLocatorNtNtNtCsdGrGZaRBwMb_3syn3gen5visit5Visit22visit_expr_method_callB6_, symObjAddr: 0x7CB0, symBinAddr: 0x321D0, symSize: 0x30 }
  - { offset: 0x8C589, size: 0x8, addend: 0x0, symName: __RNvYNtNvCs4L8YLU89NU9_12synstructure13get_ty_params16BoundTypeLocatorNtNtNtCsdGrGZaRBwMb_3syn3gen5visit5Visit22visit_field_mutabilityB6_, symObjAddr: 0x7CE0, symBinAddr: 0x32200, symSize: 0x30 }
  - { offset: 0x8C5CB, size: 0x8, addend: 0x0, symName: __RNvYNtNvCs4L8YLU89NU9_12synstructure13get_ty_params16BoundTypeLocatorNtNtNtCsdGrGZaRBwMb_3syn3gen5visit5Visit22visit_generic_argumentB6_, symObjAddr: 0x7D10, symBinAddr: 0x32230, symSize: 0x30 }
  - { offset: 0x8C60D, size: 0x8, addend: 0x0, symName: __RNvYNtNvCs4L8YLU89NU9_12synstructure13get_ty_params16BoundTypeLocatorNtNtNtCsdGrGZaRBwMb_3syn3gen5visit5Visit22visit_item_foreign_modB6_, symObjAddr: 0x7D40, symBinAddr: 0x32260, symSize: 0x30 }
  - { offset: 0x8C64F, size: 0x8, addend: 0x0, symName: __RNvYNtNvCs4L8YLU89NU9_12synstructure13get_ty_params16BoundTypeLocatorNtNtNtCsdGrGZaRBwMb_3syn3gen5visit5Visit22visit_item_trait_aliasB6_, symObjAddr: 0x7D70, symBinAddr: 0x32290, symSize: 0x30 }
  - { offset: 0x8C691, size: 0x8, addend: 0x0, symName: __RNvYNtNvCs4L8YLU89NU9_12synstructure13get_ty_params16BoundTypeLocatorNtNtNtCsdGrGZaRBwMb_3syn3gen5visit5Visit22visit_pat_tuple_structB6_, symObjAddr: 0x7DA0, symBinAddr: 0x322C0, symSize: 0x30 }
  - { offset: 0x8C6D3, size: 0x8, addend: 0x0, symName: __RNvYNtNvCs4L8YLU89NU9_12synstructure13get_ty_params16BoundTypeLocatorNtNtNtCsdGrGZaRBwMb_3syn3gen5visit5Visit22visit_trait_item_constB6_, symObjAddr: 0x7DD0, symBinAddr: 0x322F0, symSize: 0x30 }
  - { offset: 0x8C715, size: 0x8, addend: 0x0, symName: __RNvYNtNvCs4L8YLU89NU9_12synstructure13get_ty_params16BoundTypeLocatorNtNtNtCsdGrGZaRBwMb_3syn3gen5visit5Visit22visit_trait_item_macroB6_, symObjAddr: 0x7E00, symBinAddr: 0x32320, symSize: 0x30 }
  - { offset: 0x8C757, size: 0x8, addend: 0x0, symName: __RNvYNtNvCs4L8YLU89NU9_12synstructure13get_ty_params16BoundTypeLocatorNtNtNtCsdGrGZaRBwMb_3syn3gen5visit5Visit22visit_type_param_boundB6_, symObjAddr: 0x7E30, symBinAddr: 0x32350, symSize: 0x30 }
  - { offset: 0x8C799, size: 0x8, addend: 0x0, symName: __RNvYNtNvCs4L8YLU89NU9_12synstructure13get_ty_params16BoundTypeLocatorNtNtNtCsdGrGZaRBwMb_3syn3gen5visit5Visit23visit_foreign_item_typeB6_, symObjAddr: 0x7E60, symBinAddr: 0x32380, symSize: 0x30 }
  - { offset: 0x8C7DB, size: 0x8, addend: 0x0, symName: __RNvYNtNvCs4L8YLU89NU9_12synstructure13get_ty_params16BoundTypeLocatorNtNtNtCsdGrGZaRBwMb_3syn3gen5visit5Visit23visit_item_extern_crateB6_, symObjAddr: 0x7E90, symBinAddr: 0x323B0, symSize: 0x30 }
  - { offset: 0x8C81D, size: 0x8, addend: 0x0, symName: __RNvYNtNvCs4L8YLU89NU9_12synstructure13get_ty_params16BoundTypeLocatorNtNtNtCsdGrGZaRBwMb_3syn3gen5visit5Visit23visit_static_mutabilityB6_, symObjAddr: 0x7EC0, symBinAddr: 0x323E0, symSize: 0x30 }
  - { offset: 0x8C85F, size: 0x8, addend: 0x0, symName: __RNvYNtNvCs4L8YLU89NU9_12synstructure13get_ty_params16BoundTypeLocatorNtNtNtCsdGrGZaRBwMb_3syn3gen5visit5Visit23visit_type_trait_objectB6_, symObjAddr: 0x7EF0, symBinAddr: 0x32410, symSize: 0x30 }
  - { offset: 0x8C8A1, size: 0x8, addend: 0x0, symName: __RNvYNtNvCs4L8YLU89NU9_12synstructure13get_ty_params16BoundTypeLocatorNtNtNtCsdGrGZaRBwMb_3syn3gen5visit5Visit24visit_foreign_item_macroB6_, symObjAddr: 0x7F20, symBinAddr: 0x32440, symSize: 0x30 }
  - { offset: 0x8C8E3, size: 0x8, addend: 0x0, symName: __RNvYNtNvCs4L8YLU89NU9_12synstructure13get_ty_params16BoundTypeLocatorNtNtNtCsdGrGZaRBwMb_3syn3gen5visit5Visit24visit_pointer_mutabilityB6_, symObjAddr: 0x7F50, symBinAddr: 0x32470, symSize: 0x30 }
  - { offset: 0x8C925, size: 0x8, addend: 0x0, symName: __RNvYNtNvCs4L8YLU89NU9_12synstructure13get_ty_params16BoundTypeLocatorNtNtNtCsdGrGZaRBwMb_3syn3gen5visit5Visit24visit_predicate_lifetimeB6_, symObjAddr: 0x7F80, symBinAddr: 0x324A0, symSize: 0x30 }
  - { offset: 0x8C967, size: 0x8, addend: 0x0, symName: __RNvYNtNvCs4L8YLU89NU9_12synstructure13get_ty_params16BoundTypeLocatorNtNtNtCsdGrGZaRBwMb_3syn3gen5visit5Visit25visit_foreign_item_staticB6_, symObjAddr: 0x7FB0, symBinAddr: 0x324D0, symSize: 0x30 }
  - { offset: 0x8C9A9, size: 0x8, addend: 0x0, symName: __RNvYNtNvCs4L8YLU89NU9_12synstructure13get_ty_params16BoundTypeLocatorNtNtNtCsdGrGZaRBwMb_3syn3gen5visit5Visit26visit_trait_bound_modifierB6_, symObjAddr: 0x7FE0, symBinAddr: 0x32500, symSize: 0x30 }
  - { offset: 0x8C9EB, size: 0x8, addend: 0x0, symName: __RNvYNtNvCs4L8YLU89NU9_12synstructure13get_ty_params16BoundTypeLocatorNtNtNtCsdGrGZaRBwMb_3syn3gen5visit5Visit37visit_parenthesized_generic_argumentsB6_, symObjAddr: 0x8010, symBinAddr: 0x32530, symSize: 0x30 }
  - { offset: 0x8CA2D, size: 0x8, addend: 0x0, symName: __RNvYNtNvCs4L8YLU89NU9_12synstructure13get_ty_params16BoundTypeLocatorNtNtNtCsdGrGZaRBwMb_3syn3gen5visit5Visit39visit_angle_bracketed_generic_argumentsB6_, symObjAddr: 0x8040, symBinAddr: 0x32560, symSize: 0x30 }
  - { offset: 0x8CA6C, size: 0x8, addend: 0x0, symName: __RNvYNtNvCs4L8YLU89NU9_12synstructure13get_ty_params16BoundTypeLocatorNtNtNtCsdGrGZaRBwMb_3syn3gen5visit5Visit9visit_abiB6_, symObjAddr: 0x8070, symBinAddr: 0x32590, symSize: 0x30 }
  - { offset: 0x8CAAB, size: 0x8, addend: 0x0, symName: __RNvYNtNvCs4L8YLU89NU9_12synstructure13get_ty_params16BoundTypeLocatorNtNtNtCsdGrGZaRBwMb_3syn3gen5visit5Visit9visit_armB6_, symObjAddr: 0x80A0, symBinAddr: 0x325C0, symSize: 0x30 }
  - { offset: 0x8CAEA, size: 0x8, addend: 0x0, symName: __RNvYNtNvCs4L8YLU89NU9_12synstructure13get_ty_params16BoundTypeLocatorNtNtNtCsdGrGZaRBwMb_3syn3gen5visit5Visit9visit_litB6_, symObjAddr: 0x80D0, symBinAddr: 0x325F0, symSize: 0x30 }
  - { offset: 0x8CB2C, size: 0x8, addend: 0x0, symName: __RNvYNtNvCs4L8YLU89NU9_12synstructure13get_ty_params16BoundTypeLocatorNtNtNtCsdGrGZaRBwMb_3syn3gen5visit5Visit9visit_patB6_, symObjAddr: 0x8100, symBinAddr: 0x32620, symSize: 0x30 }
  - { offset: 0x8D165, size: 0x8, addend: 0x0, symName: __RNvMs0_Cs4L8YLU89NU9_12synstructureNtB5_11BindingInfo20referenced_ty_params, symObjAddr: 0x1EA0, symBinAddr: 0x2D960, symSize: 0x50 }
  - { offset: 0x8D188, size: 0x8, addend: 0x0, symName: __RNvMs0_Cs4L8YLU89NU9_12synstructureNtB5_11BindingInfo3ast, symObjAddr: 0x1EF0, symBinAddr: 0x2D9B0, symSize: 0x20 }
  - { offset: 0x8D1EC, size: 0x8, addend: 0x0, symName: __RNvMs1_Cs4L8YLU89NU9_12synstructureNtB5_11VariantInfo3new, symObjAddr: 0x21F0, symBinAddr: 0x2D9D0, symSize: 0x1C0 }
  - { offset: 0x8D3A8, size: 0x8, addend: 0x0, symName: __RNvMs2_Cs4L8YLU89NU9_12synstructureNtB5_9Structure14gen_impl_parse, symObjAddr: 0x2F40, symBinAddr: 0x2DB90, symSize: 0x15E0 }
  - { offset: 0x8D7F1, size: 0x8, addend: 0x0, symName: __RNvMs2_Cs4L8YLU89NU9_12synstructureNtB5_9Structure16add_trait_bounds, symObjAddr: 0x45B0, symBinAddr: 0x2F170, symSize: 0x580 }
  - { offset: 0x8D944, size: 0x8, addend: 0x0, symName: __RNvMs2_Cs4L8YLU89NU9_12synstructureNtB5_9Structure3ast, symObjAddr: 0x4D90, symBinAddr: 0x2F6F0, symSize: 0x20 }
  - { offset: 0x8D967, size: 0x8, addend: 0x0, symName: __RNvMs2_Cs4L8YLU89NU9_12synstructureNtB5_9Structure7try_new, symObjAddr: 0x4E00, symBinAddr: 0x2F710, symSize: 0x3B0 }
  - { offset: 0x8D9D6, size: 0x8, addend: 0x0, symName: __RNvMs2_Cs4L8YLU89NU9_12synstructureNtB5_9Structure8gen_impl, symObjAddr: 0x51B0, symBinAddr: 0x2FAC0, symSize: 0x60 }
  - { offset: 0x8E733, size: 0x8, addend: 0x0, symName: __RINvMNtCsieiGu2EXtoJ_4core6optionINtB3_6OptionRNtNtCsdGrGZaRBwMb_3syn4data7VariantE7or_elseNCNvXsw_NtBN_10punctuatedINtB1z_11PrivateIterBJ_NtNtBN_5token5CommaENtNtNtNtB5_4iter6traits8iterator8Iterator4nexts_0ECs4L8YLU89NU9_12synstructure, symObjAddr: 0x0, symBinAddr: 0x32650, symSize: 0x90 }
  - { offset: 0x8EC64, size: 0x8, addend: 0x0, symName: __RNCNvXsw_NtCsdGrGZaRBwMb_3syn10punctuatedINtB7_11PrivateIterNtNtB9_4data7VariantNtNtB9_5token5CommaENtNtNtNtCsieiGu2EXtoJ_4core4iter6traits8iterator8Iterator4next0Cs4L8YLU89NU9_12synstructure, symObjAddr: 0x3550, symBinAddr: 0x35AB0, symSize: 0x10 }
  - { offset: 0x8ECAF, size: 0x8, addend: 0x0, symName: __RNCNvXsw_NtCsdGrGZaRBwMb_3syn10punctuatedINtB7_11PrivateIterNtNtB9_4data7VariantNtNtB9_5token5CommaENtNtNtNtCsieiGu2EXtoJ_4core4iter6traits8iterator8Iterator4nexts_0Cs4L8YLU89NU9_12synstructure, symObjAddr: 0x3560, symBinAddr: 0x35AC0, symSize: 0x20 }
  - { offset: 0x8ECF1, size: 0x8, addend: 0x0, symName: __RNCNvXsw_NtCsdGrGZaRBwMb_3syn10punctuatedINtB7_11PrivateIterNtNtB9_8generics14WherePredicateNtNtB9_5token5CommaENtNtNtNtCsieiGu2EXtoJ_4core4iter6traits8iterator8Iterator4next0Cs4L8YLU89NU9_12synstructure, symObjAddr: 0x3580, symBinAddr: 0x35AE0, symSize: 0x10 }
  - { offset: 0x8ED3C, size: 0x8, addend: 0x0, symName: __RNCNvXsw_NtCsdGrGZaRBwMb_3syn10punctuatedINtB7_11PrivateIterNtNtB9_8generics14WherePredicateNtNtB9_5token5CommaENtNtNtNtCsieiGu2EXtoJ_4core4iter6traits8iterator8Iterator4nexts_0Cs4L8YLU89NU9_12synstructure, symObjAddr: 0x3590, symBinAddr: 0x35AF0, symSize: 0x20 }
  - { offset: 0x8ED7F, size: 0x8, addend: 0x0, symName: __RNvXsw_NtCsdGrGZaRBwMb_3syn10punctuatedINtB5_11PrivateIterNtNtB7_4data7VariantNtNtB7_5token5CommaENtNtNtNtCsieiGu2EXtoJ_4core4iter6traits8iterator8Iterator4nextCs4L8YLU89NU9_12synstructure, symObjAddr: 0x46D0, symBinAddr: 0x36B80, symSize: 0x40 }
  - { offset: 0x8EDBF, size: 0x8, addend: 0x0, symName: __RNvXsw_NtCsdGrGZaRBwMb_3syn10punctuatedINtB5_11PrivateIterNtNtB7_8generics14WherePredicateNtNtB7_5token5CommaENtNtNtNtCsieiGu2EXtoJ_4core4iter6traits8iterator8Iterator4nextCs4L8YLU89NU9_12synstructure, symObjAddr: 0x4710, symBinAddr: 0x36BC0, symSize: 0x40 }
  - { offset: 0x8EE43, size: 0x8, addend: 0x0, symName: __RNCNCNvXsx_NtCsdGrGZaRBwMb_3syn10punctuatedINtB9_11PrivateIterNtNtBb_4data7VariantNtNtBb_5token5CommaENtNtNtNtCsieiGu2EXtoJ_4core4iter6traits12double_ended19DoubleEndedIterator9next_back00Cs4L8YLU89NU9_12synstructure, symObjAddr: 0x3530, symBinAddr: 0x35A90, symSize: 0x10 }
  - { offset: 0x8EE8E, size: 0x8, addend: 0x0, symName: __RNCNCNvXsx_NtCsdGrGZaRBwMb_3syn10punctuatedINtB9_11PrivateIterNtNtBb_8generics14WherePredicateNtNtBb_5token5CommaENtNtNtNtCsieiGu2EXtoJ_4core4iter6traits12double_ended19DoubleEndedIterator9next_back00Cs4L8YLU89NU9_12synstructure, symObjAddr: 0x3540, symBinAddr: 0x35AA0, symSize: 0x10 }
  - { offset: 0x8EEDA, size: 0x8, addend: 0x0, symName: __RNCNvXsx_NtCsdGrGZaRBwMb_3syn10punctuatedINtB7_11PrivateIterNtNtB9_4data7VariantNtNtB9_5token5CommaENtNtNtNtCsieiGu2EXtoJ_4core4iter6traits12double_ended19DoubleEndedIterator9next_back0Cs4L8YLU89NU9_12synstructure, symObjAddr: 0x35B0, symBinAddr: 0x35B10, symSize: 0x30 }
  - { offset: 0x8EF1C, size: 0x8, addend: 0x0, symName: __RNCNvXsx_NtCsdGrGZaRBwMb_3syn10punctuatedINtB7_11PrivateIterNtNtB9_8generics14WherePredicateNtNtB9_5token5CommaENtNtNtNtCsieiGu2EXtoJ_4core4iter6traits12double_ended19DoubleEndedIterator9next_back0Cs4L8YLU89NU9_12synstructure, symObjAddr: 0x35E0, symBinAddr: 0x35B40, symSize: 0x30 }
  - { offset: 0x8EF5F, size: 0x8, addend: 0x0, symName: __RNvXsx_NtCsdGrGZaRBwMb_3syn10punctuatedINtB5_11PrivateIterNtNtB7_4data7VariantNtNtB7_5token5CommaENtNtNtNtCsieiGu2EXtoJ_4core4iter6traits12double_ended19DoubleEndedIterator9next_backCs4L8YLU89NU9_12synstructure, symObjAddr: 0x4820, symBinAddr: 0x36CD0, symSize: 0x40 }
  - { offset: 0x8EF9F, size: 0x8, addend: 0x0, symName: __RNvXsx_NtCsdGrGZaRBwMb_3syn10punctuatedINtB5_11PrivateIterNtNtB7_8generics14WherePredicateNtNtB7_5token5CommaENtNtNtNtCsieiGu2EXtoJ_4core4iter6traits12double_ended19DoubleEndedIterator9next_backCs4L8YLU89NU9_12synstructure, symObjAddr: 0x4860, symBinAddr: 0x36D10, symSize: 0x40 }
  - { offset: 0x8EFE0, size: 0x8, addend: 0x0, symName: __RINvNtCsdGrGZaRBwMb_3syn10punctuated9do_extendNtNtB4_8generics14TypeParamBoundNtNtB4_5token4PlusINtNtCsieiGu2EXtoJ_4core6option8IntoIterINtB2_4PairBI_B1e_EEECs4L8YLU89NU9_12synstructure, symObjAddr: 0x380, symBinAddr: 0x329D0, symSize: 0x380 }
  - { offset: 0x8F0DD, size: 0x8, addend: 0x0, symName: __RINvXs2_NtCsdGrGZaRBwMb_3syn10punctuatedINtB6_10PunctuatedNtNtB8_2ty4TypeNtNtB8_5token5CommaENtNtCsieiGu2EXtoJ_4core4hash4Hash4hashNtNtNtCsHUR1vrdMJt_3std4hash6random13DefaultHasherECs4L8YLU89NU9_12synstructure, symObjAddr: 0x700, symBinAddr: 0x32D50, symSize: 0x50 }
  - { offset: 0x8F157, size: 0x8, addend: 0x0, symName: __RINvXs2_NtCsdGrGZaRBwMb_3syn10punctuatedINtB6_10PunctuatedNtNtB8_2ty9BareFnArgNtNtB8_5token5CommaENtNtCsieiGu2EXtoJ_4core4hash4Hash4hashNtNtNtCsHUR1vrdMJt_3std4hash6random13DefaultHasherECs4L8YLU89NU9_12synstructure, symObjAddr: 0x750, symBinAddr: 0x32DA0, symSize: 0x50 }
  - { offset: 0x8F1D1, size: 0x8, addend: 0x0, symName: __RINvXs2_NtCsdGrGZaRBwMb_3syn10punctuatedINtB6_10PunctuatedNtNtB8_3pat3PatNtNtB8_5token2OrENtNtCsieiGu2EXtoJ_4core4hash4Hash4hashNtNtNtCsHUR1vrdMJt_3std4hash6random13DefaultHasherECs4L8YLU89NU9_12synstructure, symObjAddr: 0x7A0, symBinAddr: 0x32DF0, symSize: 0x50 }
  - { offset: 0x8F24B, size: 0x8, addend: 0x0, symName: __RINvXs2_NtCsdGrGZaRBwMb_3syn10punctuatedINtB6_10PunctuatedNtNtB8_3pat3PatNtNtB8_5token5CommaENtNtCsieiGu2EXtoJ_4core4hash4Hash4hashNtNtNtCsHUR1vrdMJt_3std4hash6random13DefaultHasherECs4L8YLU89NU9_12synstructure, symObjAddr: 0x7F0, symBinAddr: 0x32E40, symSize: 0x50 }
  - { offset: 0x8F2C5, size: 0x8, addend: 0x0, symName: __RINvXs2_NtCsdGrGZaRBwMb_3syn10punctuatedINtB6_10PunctuatedNtNtB8_3pat8FieldPatNtNtB8_5token5CommaENtNtCsieiGu2EXtoJ_4core4hash4Hash4hashNtNtNtCsHUR1vrdMJt_3std4hash6random13DefaultHasherECs4L8YLU89NU9_12synstructure, symObjAddr: 0x840, symBinAddr: 0x32E90, symSize: 0x50 }
  - { offset: 0x8F33F, size: 0x8, addend: 0x0, symName: __RINvXs2_NtCsdGrGZaRBwMb_3syn10punctuatedINtB6_10PunctuatedNtNtB8_4data5FieldNtNtB8_5token5CommaENtNtCsieiGu2EXtoJ_4core4hash4Hash4hashNtNtNtCsHUR1vrdMJt_3std4hash6random13DefaultHasherECs4L8YLU89NU9_12synstructure, symObjAddr: 0x890, symBinAddr: 0x32EE0, symSize: 0x50 }
  - { offset: 0x8F3B9, size: 0x8, addend: 0x0, symName: __RINvXs2_NtCsdGrGZaRBwMb_3syn10punctuatedINtB6_10PunctuatedNtNtB8_4data7VariantNtNtB8_5token5CommaENtNtCsieiGu2EXtoJ_4core4hash4Hash4hashNtNtNtCsHUR1vrdMJt_3std4hash6random13DefaultHasherECs4L8YLU89NU9_12synstructure, symObjAddr: 0x8E0, symBinAddr: 0x32F30, symSize: 0x50 }
  - { offset: 0x8F433, size: 0x8, addend: 0x0, symName: __RINvXs2_NtCsdGrGZaRBwMb_3syn10punctuatedINtB6_10PunctuatedNtNtB8_4expr10FieldValueNtNtB8_5token5CommaENtNtCsieiGu2EXtoJ_4core4hash4Hash4hashNtNtNtCsHUR1vrdMJt_3std4hash6random13DefaultHasherECs4L8YLU89NU9_12synstructure, symObjAddr: 0x930, symBinAddr: 0x32F80, symSize: 0x50 }
  - { offset: 0x8F4AD, size: 0x8, addend: 0x0, symName: __RINvXs2_NtCsdGrGZaRBwMb_3syn10punctuatedINtB6_10PunctuatedNtNtB8_4expr4ExprNtNtB8_5token5CommaENtNtCsieiGu2EXtoJ_4core4hash4Hash4hashNtNtNtCsHUR1vrdMJt_3std4hash6random13DefaultHasherECs4L8YLU89NU9_12synstructure, symObjAddr: 0x980, symBinAddr: 0x32FD0, symSize: 0x50 }
  - { offset: 0x8F527, size: 0x8, addend: 0x0, symName: __RINvXs2_NtCsdGrGZaRBwMb_3syn10punctuatedINtB6_10PunctuatedNtNtB8_4item5FnArgNtNtB8_5token5CommaENtNtCsieiGu2EXtoJ_4core4hash4Hash4hashNtNtNtCsHUR1vrdMJt_3std4hash6random13DefaultHasherECs4L8YLU89NU9_12synstructure, symObjAddr: 0x9D0, symBinAddr: 0x33020, symSize: 0x50 }
  - { offset: 0x8F5A1, size: 0x8, addend: 0x0, symName: __RINvXs2_NtCsdGrGZaRBwMb_3syn10punctuatedINtB6_10PunctuatedNtNtB8_4item7UseTreeNtNtB8_5token5CommaENtNtCsieiGu2EXtoJ_4core4hash4Hash4hashNtNtNtCsHUR1vrdMJt_3std4hash6random13DefaultHasherECs4L8YLU89NU9_12synstructure, symObjAddr: 0xA20, symBinAddr: 0x33070, symSize: 0x50 }
  - { offset: 0x8F61B, size: 0x8, addend: 0x0, symName: __RINvXs2_NtCsdGrGZaRBwMb_3syn10punctuatedINtB6_10PunctuatedNtNtB8_4path11PathSegmentNtNtB8_5token7PathSepENtNtCsieiGu2EXtoJ_4core4hash4Hash4hashNtNtNtCsHUR1vrdMJt_3std4hash6random13DefaultHasherECs4L8YLU89NU9_12synstructure, symObjAddr: 0xA70, symBinAddr: 0x330C0, symSize: 0x50 }
  - { offset: 0x8F695, size: 0x8, addend: 0x0, symName: __RINvXs2_NtCsdGrGZaRBwMb_3syn10punctuatedINtB6_10PunctuatedNtNtB8_4path15GenericArgumentNtNtB8_5token5CommaENtNtCsieiGu2EXtoJ_4core4hash4Hash4hashNtNtNtCsHUR1vrdMJt_3std4hash6random13DefaultHasherECs4L8YLU89NU9_12synstructure, symObjAddr: 0xAC0, symBinAddr: 0x33110, symSize: 0x50 }
  - { offset: 0x8F70F, size: 0x8, addend: 0x0, symName: __RINvXs2_NtCsdGrGZaRBwMb_3syn10punctuatedINtB6_10PunctuatedNtNtB8_8generics12GenericParamNtNtB8_5token5CommaENtNtCsieiGu2EXtoJ_4core4hash4Hash4hashNtNtNtCsHUR1vrdMJt_3std4hash6random13DefaultHasherECs4L8YLU89NU9_12synstructure, symObjAddr: 0xB10, symBinAddr: 0x33160, symSize: 0x50 }
  - { offset: 0x8F789, size: 0x8, addend: 0x0, symName: __RINvXs2_NtCsdGrGZaRBwMb_3syn10punctuatedINtB6_10PunctuatedNtNtB8_8generics13CapturedParamNtNtB8_5token5CommaENtNtCsieiGu2EXtoJ_4core4hash4Hash4hashNtNtNtCsHUR1vrdMJt_3std4hash6random13DefaultHasherECs4L8YLU89NU9_12synstructure, symObjAddr: 0xB60, symBinAddr: 0x331B0, symSize: 0x50 }
  - { offset: 0x8F803, size: 0x8, addend: 0x0, symName: __RINvXs2_NtCsdGrGZaRBwMb_3syn10punctuatedINtB6_10PunctuatedNtNtB8_8generics14TypeParamBoundNtNtB8_5token4PlusENtNtCsieiGu2EXtoJ_4core4hash4Hash4hashNtNtNtCsHUR1vrdMJt_3std4hash6random13DefaultHasherECs4L8YLU89NU9_12synstructure, symObjAddr: 0xBB0, symBinAddr: 0x33200, symSize: 0x50 }
  - { offset: 0x8F87D, size: 0x8, addend: 0x0, symName: __RINvXs2_NtCsdGrGZaRBwMb_3syn10punctuatedINtB6_10PunctuatedNtNtB8_8generics14WherePredicateNtNtB8_5token5CommaENtNtCsieiGu2EXtoJ_4core4hash4Hash4hashNtNtNtCsHUR1vrdMJt_3std4hash6random13DefaultHasherECs4L8YLU89NU9_12synstructure, symObjAddr: 0xC00, symBinAddr: 0x33250, symSize: 0x50 }
  - { offset: 0x8F8F7, size: 0x8, addend: 0x0, symName: __RINvXs2_NtCsdGrGZaRBwMb_3syn10punctuatedINtB6_10PunctuatedNtNtB8_8lifetime8LifetimeNtNtB8_5token4PlusENtNtCsieiGu2EXtoJ_4core4hash4Hash4hashNtNtNtCsHUR1vrdMJt_3std4hash6random13DefaultHasherECs4L8YLU89NU9_12synstructure, symObjAddr: 0xC50, symBinAddr: 0x332A0, symSize: 0x50 }
  - { offset: 0x8F977, size: 0x8, addend: 0x0, symName: __RINvXs5_NtCsdGrGZaRBwMb_3syn10punctuatedINtB6_10PunctuatedNtNtB8_8generics14WherePredicateNtNtB8_5token5CommaEINtNtNtNtCsieiGu2EXtoJ_4core4iter6traits7collect6ExtendBU_E6extendINtNtNtB1R_8adapters6cloned6ClonedINtB6_4IterBU_EEECs4L8YLU89NU9_12synstructure, symObjAddr: 0xD90, symBinAddr: 0x332F0, symSize: 0x110 }
  - { offset: 0x8F9F9, size: 0x8, addend: 0x0, symName: __RINvXs5_NtCsdGrGZaRBwMb_3syn10punctuatedINtB6_10PunctuatedNtNtB8_8generics14WherePredicateNtNtB8_5token5CommaEINtNtNtNtCsieiGu2EXtoJ_4core4iter6traits7collect6ExtendBU_E6extendINtNtNtB1R_8adapters6cloned6ClonedINtNtNtB1T_5slice4iter4IterBU_EEECs4L8YLU89NU9_12synstructure, symObjAddr: 0xEA0, symBinAddr: 0x33400, symSize: 0xF0 }
  - { offset: 0x8FA81, size: 0x8, addend: 0x0, symName: __RINvXs6_NtCsdGrGZaRBwMb_3syn10punctuatedINtB6_10PunctuatedNtNtB8_8generics14TypeParamBoundNtNtB8_5token4PlusEINtNtNtNtCsieiGu2EXtoJ_4core4iter6traits7collect12FromIteratorINtB6_4PairBU_B1q_EE9from_iterINtNtB1S_6option8IntoIterB2J_EECs4L8YLU89NU9_12synstructure, symObjAddr: 0xF90, symBinAddr: 0x334F0, symSize: 0x120 }
  - { offset: 0x904EE, size: 0x8, addend: 0x0, symName: __RNvXs9_NtCsdGrGZaRBwMb_3syn10punctuatedRINtB5_10PunctuatedNtNtB7_4data5FieldNtNtB7_5token5CommaENtNtNtNtCsieiGu2EXtoJ_4core4iter6traits7collect12IntoIterator9into_iterCs4L8YLU89NU9_12synstructure, symObjAddr: 0x41F0, symBinAddr: 0x366A0, symSize: 0x20 }
  - { offset: 0x9052E, size: 0x8, addend: 0x0, symName: __RNvXs9_NtCsdGrGZaRBwMb_3syn10punctuatedRINtB5_10PunctuatedNtNtB7_4data7VariantNtNtB7_5token5CommaENtNtNtNtCsieiGu2EXtoJ_4core4iter6traits7collect12IntoIterator9into_iterCs4L8YLU89NU9_12synstructure, symObjAddr: 0x4210, symBinAddr: 0x366C0, symSize: 0x20 }
  - { offset: 0x9056E, size: 0x8, addend: 0x0, symName: __RNvXs9_NtCsdGrGZaRBwMb_3syn10punctuatedRINtB5_10PunctuatedNtNtB7_8generics12GenericParamNtNtB7_5token5CommaENtNtNtNtCsieiGu2EXtoJ_4core4iter6traits7collect12IntoIterator9into_iterCs4L8YLU89NU9_12synstructure, symObjAddr: 0x4230, symBinAddr: 0x366E0, symSize: 0x20 }
  - { offset: 0x905B4, size: 0x8, addend: 0x0, symName: __RNvXsA_NtCsdGrGZaRBwMb_3syn10punctuatedINtB5_11PrivateIterNtNtB7_4data7VariantNtNtB7_5token5CommaEINtB5_9IterTraitBU_E9clone_boxCs4L8YLU89NU9_12synstructure, symObjAddr: 0x4250, symBinAddr: 0x36700, symSize: 0x90 }
  - { offset: 0x90613, size: 0x8, addend: 0x0, symName: __RNvXsA_NtCsdGrGZaRBwMb_3syn10punctuatedINtB5_11PrivateIterNtNtB7_8generics14WherePredicateNtNtB7_5token5CommaEINtB5_9IterTraitBU_E9clone_boxCs4L8YLU89NU9_12synstructure, symObjAddr: 0x42E0, symBinAddr: 0x36790, symSize: 0x90 }
  - { offset: 0x90678, size: 0x8, addend: 0x0, symName: __RNvXst_NtCsdGrGZaRBwMb_3syn10punctuatedINtB5_4IterNtNtB7_4data5FieldENtNtNtNtCsieiGu2EXtoJ_4core4iter6traits8iterator8Iterator9size_hintCs4L8YLU89NU9_12synstructure, symObjAddr: 0x4550, symBinAddr: 0x36A00, symSize: 0x60 }
  - { offset: 0x906AF, size: 0x8, addend: 0x0, symName: __RNvXst_NtCsdGrGZaRBwMb_3syn10punctuatedINtB5_4IterNtNtB7_4data7VariantENtNtNtNtCsieiGu2EXtoJ_4core4iter6traits8iterator8Iterator4nextCs4L8YLU89NU9_12synstructure, symObjAddr: 0x45B0, symBinAddr: 0x36A60, symSize: 0x30 }
  - { offset: 0x906E6, size: 0x8, addend: 0x0, symName: __RNvXst_NtCsdGrGZaRBwMb_3syn10punctuatedINtB5_4IterNtNtB7_4data7VariantENtNtNtNtCsieiGu2EXtoJ_4core4iter6traits8iterator8Iterator9size_hintCs4L8YLU89NU9_12synstructure, symObjAddr: 0x45E0, symBinAddr: 0x36A90, symSize: 0x60 }
  - { offset: 0x9071D, size: 0x8, addend: 0x0, symName: __RNvXst_NtCsdGrGZaRBwMb_3syn10punctuatedINtB5_4IterNtNtB7_8generics14WherePredicateENtNtNtNtCsieiGu2EXtoJ_4core4iter6traits8iterator8Iterator4nextCs4L8YLU89NU9_12synstructure, symObjAddr: 0x4640, symBinAddr: 0x36AF0, symSize: 0x30 }
  - { offset: 0x9075A, size: 0x8, addend: 0x0, symName: __RNvXsv_NtCsdGrGZaRBwMb_3syn10punctuatedINtB5_4IterNtNtB7_4data5FieldENtNtNtNtCsieiGu2EXtoJ_4core4iter6traits10exact_size17ExactSizeIterator3lenCs4L8YLU89NU9_12synstructure, symObjAddr: 0x4670, symBinAddr: 0x36B20, symSize: 0x30 }
  - { offset: 0x90791, size: 0x8, addend: 0x0, symName: __RNvXsv_NtCsdGrGZaRBwMb_3syn10punctuatedINtB5_4IterNtNtB7_4data7VariantENtNtNtNtCsieiGu2EXtoJ_4core4iter6traits10exact_size17ExactSizeIterator3lenCs4L8YLU89NU9_12synstructure, symObjAddr: 0x46A0, symBinAddr: 0x36B50, symSize: 0x30 }
  - { offset: 0x90860, size: 0x8, addend: 0x0, symName: __RNvXsy_NtCsdGrGZaRBwMb_3syn10punctuatedINtB5_11PrivateIterNtNtB7_4data7VariantNtNtB7_5token5CommaENtNtNtNtCsieiGu2EXtoJ_4core4iter6traits10exact_size17ExactSizeIterator3lenCs4L8YLU89NU9_12synstructure, symObjAddr: 0x48A0, symBinAddr: 0x36D50, symSize: 0x80 }
  - { offset: 0x908D8, size: 0x8, addend: 0x0, symName: __RNvXsy_NtCsdGrGZaRBwMb_3syn10punctuatedINtB5_11PrivateIterNtNtB7_8generics14WherePredicateNtNtB7_5token5CommaENtNtNtNtCsieiGu2EXtoJ_4core4iter6traits10exact_size17ExactSizeIterator3lenCs4L8YLU89NU9_12synstructure, symObjAddr: 0x4920, symBinAddr: 0x36DD0, symSize: 0x80 }
  - { offset: 0x90956, size: 0x8, addend: 0x0, symName: __RNvXsz_NtCsdGrGZaRBwMb_3syn10punctuatedINtB5_11PrivateIterNtNtB7_4data7VariantNtNtB7_5token5CommaENtNtCsieiGu2EXtoJ_4core5clone5Clone5cloneCs4L8YLU89NU9_12synstructure, symObjAddr: 0x49A0, symBinAddr: 0x36E50, symSize: 0x70 }
  - { offset: 0x90996, size: 0x8, addend: 0x0, symName: __RNvXsz_NtCsdGrGZaRBwMb_3syn10punctuatedINtB5_11PrivateIterNtNtB7_8generics14WherePredicateNtNtB7_5token5CommaENtNtCsieiGu2EXtoJ_4core5clone5Clone5cloneCs4L8YLU89NU9_12synstructure, symObjAddr: 0x4A10, symBinAddr: 0x36EC0, symSize: 0x70 }
  - { offset: 0x96D2D, size: 0x8, addend: 0x0, symName: __RNvXs0_NtCscKtU6MdFI5n_10proc_macro12token_streamNtB5_8IntoIterNtNtCsieiGu2EXtoJ_4core5clone5Clone5cloneCs4L8YLU89NU9_12synstructure, symObjAddr: 0x40F0, symBinAddr: 0x365A0, symSize: 0x50 }
  - { offset: 0x96DAA, size: 0x8, addend: 0x0, symName: __RNvNvMsd_NtNtCsieiGu2EXtoJ_4core3num7nonzeroINtB7_7NonZeropE13new_unchecked18precondition_checkCs4L8YLU89NU9_12synstructure, symObjAddr: 0x4020, symBinAddr: 0x364D0, symSize: 0x80 }
  - { offset: 0x99295, size: 0x8, addend: 0x0, symName: __RINvXsJ_NtCsieiGu2EXtoJ_4core6optionINtB6_6OptionINtNtCslJiobkLta79_5alloc5boxed3BoxNtNtCsdGrGZaRBwMb_3syn2ty4TypeEENtNtB8_4hash4Hash4hashNtNtNtCsHUR1vrdMJt_3std4hash6random13DefaultHasherECs4L8YLU89NU9_12synstructure, symObjAddr: 0x10B0, symBinAddr: 0x33610, symSize: 0x80 }
  - { offset: 0x99342, size: 0x8, addend: 0x0, symName: __RINvXsJ_NtCsieiGu2EXtoJ_4core6optionINtB6_6OptionINtNtCslJiobkLta79_5alloc5boxed3BoxNtNtCsdGrGZaRBwMb_3syn2ty9BareFnArgEENtNtB8_4hash4Hash4hashNtNtNtCsHUR1vrdMJt_3std4hash6random13DefaultHasherECs4L8YLU89NU9_12synstructure, symObjAddr: 0x1130, symBinAddr: 0x33690, symSize: 0x80 }
  - { offset: 0x993EF, size: 0x8, addend: 0x0, symName: __RINvXsJ_NtCsieiGu2EXtoJ_4core6optionINtB6_6OptionINtNtCslJiobkLta79_5alloc5boxed3BoxNtNtCsdGrGZaRBwMb_3syn3pat3PatEENtNtB8_4hash4Hash4hashNtNtNtCsHUR1vrdMJt_3std4hash6random13DefaultHasherECs4L8YLU89NU9_12synstructure, symObjAddr: 0x11B0, symBinAddr: 0x33710, symSize: 0x80 }
  - { offset: 0x9949C, size: 0x8, addend: 0x0, symName: __RINvXsJ_NtCsieiGu2EXtoJ_4core6optionINtB6_6OptionINtNtCslJiobkLta79_5alloc5boxed3BoxNtNtCsdGrGZaRBwMb_3syn3pat8FieldPatEENtNtB8_4hash4Hash4hashNtNtNtCsHUR1vrdMJt_3std4hash6random13DefaultHasherECs4L8YLU89NU9_12synstructure, symObjAddr: 0x1230, symBinAddr: 0x33790, symSize: 0x80 }
  - { offset: 0x99549, size: 0x8, addend: 0x0, symName: __RINvXsJ_NtCsieiGu2EXtoJ_4core6optionINtB6_6OptionINtNtCslJiobkLta79_5alloc5boxed3BoxNtNtCsdGrGZaRBwMb_3syn4data5FieldEENtNtB8_4hash4Hash4hashNtNtNtCsHUR1vrdMJt_3std4hash6random13DefaultHasherECs4L8YLU89NU9_12synstructure, symObjAddr: 0x12B0, symBinAddr: 0x33810, symSize: 0x80 }
  - { offset: 0x995F6, size: 0x8, addend: 0x0, symName: __RINvXsJ_NtCsieiGu2EXtoJ_4core6optionINtB6_6OptionINtNtCslJiobkLta79_5alloc5boxed3BoxNtNtCsdGrGZaRBwMb_3syn4data7VariantEENtNtB8_4hash4Hash4hashNtNtNtCsHUR1vrdMJt_3std4hash6random13DefaultHasherECs4L8YLU89NU9_12synstructure, symObjAddr: 0x1330, symBinAddr: 0x33890, symSize: 0x80 }
  - { offset: 0x996A3, size: 0x8, addend: 0x0, symName: __RINvXsJ_NtCsieiGu2EXtoJ_4core6optionINtB6_6OptionINtNtCslJiobkLta79_5alloc5boxed3BoxNtNtCsdGrGZaRBwMb_3syn4expr10FieldValueEENtNtB8_4hash4Hash4hashNtNtNtCsHUR1vrdMJt_3std4hash6random13DefaultHasherECs4L8YLU89NU9_12synstructure, symObjAddr: 0x13B0, symBinAddr: 0x33910, symSize: 0x80 }
  - { offset: 0x99750, size: 0x8, addend: 0x0, symName: __RINvXsJ_NtCsieiGu2EXtoJ_4core6optionINtB6_6OptionINtNtCslJiobkLta79_5alloc5boxed3BoxNtNtCsdGrGZaRBwMb_3syn4expr4ExprEENtNtB8_4hash4Hash4hashNtNtNtCsHUR1vrdMJt_3std4hash6random13DefaultHasherECs4L8YLU89NU9_12synstructure, symObjAddr: 0x1430, symBinAddr: 0x33990, symSize: 0x80 }
  - { offset: 0x997FD, size: 0x8, addend: 0x0, symName: __RINvXsJ_NtCsieiGu2EXtoJ_4core6optionINtB6_6OptionINtNtCslJiobkLta79_5alloc5boxed3BoxNtNtCsdGrGZaRBwMb_3syn4item5FnArgEENtNtB8_4hash4Hash4hashNtNtNtCsHUR1vrdMJt_3std4hash6random13DefaultHasherECs4L8YLU89NU9_12synstructure, symObjAddr: 0x14B0, symBinAddr: 0x33A10, symSize: 0x80 }
  - { offset: 0x998AA, size: 0x8, addend: 0x0, symName: __RINvXsJ_NtCsieiGu2EXtoJ_4core6optionINtB6_6OptionINtNtCslJiobkLta79_5alloc5boxed3BoxNtNtCsdGrGZaRBwMb_3syn4item7UseTreeEENtNtB8_4hash4Hash4hashNtNtNtCsHUR1vrdMJt_3std4hash6random13DefaultHasherECs4L8YLU89NU9_12synstructure, symObjAddr: 0x1530, symBinAddr: 0x33A90, symSize: 0x80 }
  - { offset: 0x99957, size: 0x8, addend: 0x0, symName: __RINvXsJ_NtCsieiGu2EXtoJ_4core6optionINtB6_6OptionINtNtCslJiobkLta79_5alloc5boxed3BoxNtNtCsdGrGZaRBwMb_3syn4path11PathSegmentEENtNtB8_4hash4Hash4hashNtNtNtCsHUR1vrdMJt_3std4hash6random13DefaultHasherECs4L8YLU89NU9_12synstructure, symObjAddr: 0x15B0, symBinAddr: 0x33B10, symSize: 0x80 }
  - { offset: 0x99A04, size: 0x8, addend: 0x0, symName: __RINvXsJ_NtCsieiGu2EXtoJ_4core6optionINtB6_6OptionINtNtCslJiobkLta79_5alloc5boxed3BoxNtNtCsdGrGZaRBwMb_3syn4path15GenericArgumentEENtNtB8_4hash4Hash4hashNtNtNtCsHUR1vrdMJt_3std4hash6random13DefaultHasherECs4L8YLU89NU9_12synstructure, symObjAddr: 0x1630, symBinAddr: 0x33B90, symSize: 0x80 }
  - { offset: 0x99AB1, size: 0x8, addend: 0x0, symName: __RINvXsJ_NtCsieiGu2EXtoJ_4core6optionINtB6_6OptionINtNtCslJiobkLta79_5alloc5boxed3BoxNtNtCsdGrGZaRBwMb_3syn8generics12GenericParamEENtNtB8_4hash4Hash4hashNtNtNtCsHUR1vrdMJt_3std4hash6random13DefaultHasherECs4L8YLU89NU9_12synstructure, symObjAddr: 0x16B0, symBinAddr: 0x33C10, symSize: 0x80 }
  - { offset: 0x99B5E, size: 0x8, addend: 0x0, symName: __RINvXsJ_NtCsieiGu2EXtoJ_4core6optionINtB6_6OptionINtNtCslJiobkLta79_5alloc5boxed3BoxNtNtCsdGrGZaRBwMb_3syn8generics13CapturedParamEENtNtB8_4hash4Hash4hashNtNtNtCsHUR1vrdMJt_3std4hash6random13DefaultHasherECs4L8YLU89NU9_12synstructure, symObjAddr: 0x1730, symBinAddr: 0x33C90, symSize: 0x80 }
  - { offset: 0x99C0B, size: 0x8, addend: 0x0, symName: __RINvXsJ_NtCsieiGu2EXtoJ_4core6optionINtB6_6OptionINtNtCslJiobkLta79_5alloc5boxed3BoxNtNtCsdGrGZaRBwMb_3syn8generics14TypeParamBoundEENtNtB8_4hash4Hash4hashNtNtNtCsHUR1vrdMJt_3std4hash6random13DefaultHasherECs4L8YLU89NU9_12synstructure, symObjAddr: 0x17B0, symBinAddr: 0x33D10, symSize: 0x80 }
  - { offset: 0x99CB8, size: 0x8, addend: 0x0, symName: __RINvXsJ_NtCsieiGu2EXtoJ_4core6optionINtB6_6OptionINtNtCslJiobkLta79_5alloc5boxed3BoxNtNtCsdGrGZaRBwMb_3syn8generics14WherePredicateEENtNtB8_4hash4Hash4hashNtNtNtCsHUR1vrdMJt_3std4hash6random13DefaultHasherECs4L8YLU89NU9_12synstructure, symObjAddr: 0x1830, symBinAddr: 0x33D90, symSize: 0x80 }
  - { offset: 0x99D65, size: 0x8, addend: 0x0, symName: __RINvXsJ_NtCsieiGu2EXtoJ_4core6optionINtB6_6OptionINtNtCslJiobkLta79_5alloc5boxed3BoxNtNtCsdGrGZaRBwMb_3syn8lifetime8LifetimeEENtNtB8_4hash4Hash4hashNtNtNtCsHUR1vrdMJt_3std4hash6random13DefaultHasherECs4L8YLU89NU9_12synstructure, symObjAddr: 0x18B0, symBinAddr: 0x33E10, symSize: 0x80 }
  - { offset: 0x99E12, size: 0x8, addend: 0x0, symName: __RINvXsJ_NtCsieiGu2EXtoJ_4core6optionINtB6_6OptionNtCsaKzlTDPUHDb_11proc_macro25IdentENtNtB8_4hash4Hash4hashNtNtNtCsHUR1vrdMJt_3std4hash6random13DefaultHasherECs4L8YLU89NU9_12synstructure, symObjAddr: 0x1930, symBinAddr: 0x33E90, symSize: 0x80 }
  - { offset: 0x99EBF, size: 0x8, addend: 0x0, symName: __RINvXsJ_NtCsieiGu2EXtoJ_4core6optionINtB6_6OptionNtNtCsdGrGZaRBwMb_3syn2ty12BareVariadicENtNtB8_4hash4Hash4hashNtNtNtCsHUR1vrdMJt_3std4hash6random13DefaultHasherECs4L8YLU89NU9_12synstructure, symObjAddr: 0x19B0, symBinAddr: 0x33F10, symSize: 0x90 }
  - { offset: 0x99F6C, size: 0x8, addend: 0x0, symName: __RINvXsJ_NtCsieiGu2EXtoJ_4core6optionINtB6_6OptionNtNtCsdGrGZaRBwMb_3syn2ty3AbiENtNtB8_4hash4Hash4hashNtNtNtCsHUR1vrdMJt_3std4hash6random13DefaultHasherECs4L8YLU89NU9_12synstructure, symObjAddr: 0x1A40, symBinAddr: 0x33FA0, symSize: 0x70 }
  - { offset: 0x9A019, size: 0x8, addend: 0x0, symName: __RINvXsJ_NtCsieiGu2EXtoJ_4core6optionINtB6_6OptionNtNtCsdGrGZaRBwMb_3syn2ty4TypeENtNtB8_4hash4Hash4hashNtNtNtCsHUR1vrdMJt_3std4hash6random13DefaultHasherECs4L8YLU89NU9_12synstructure, symObjAddr: 0x1AB0, symBinAddr: 0x34010, symSize: 0x80 }
  - { offset: 0x9A0C6, size: 0x8, addend: 0x0, symName: __RINvXsJ_NtCsieiGu2EXtoJ_4core6optionINtB6_6OptionNtNtCsdGrGZaRBwMb_3syn3lit6LitStrENtNtB8_4hash4Hash4hashNtNtNtCsHUR1vrdMJt_3std4hash6random13DefaultHasherECs4L8YLU89NU9_12synstructure, symObjAddr: 0x1B30, symBinAddr: 0x34090, symSize: 0x80 }
  - { offset: 0x9A173, size: 0x8, addend: 0x0, symName: __RINvXsJ_NtCsieiGu2EXtoJ_4core6optionINtB6_6OptionNtNtCsdGrGZaRBwMb_3syn3pat7PatRestENtNtB8_4hash4Hash4hashNtNtNtCsHUR1vrdMJt_3std4hash6random13DefaultHasherECs4L8YLU89NU9_12synstructure, symObjAddr: 0x1BB0, symBinAddr: 0x34110, symSize: 0x90 }
  - { offset: 0x9A220, size: 0x8, addend: 0x0, symName: __RINvXsJ_NtCsieiGu2EXtoJ_4core6optionINtB6_6OptionNtNtCsdGrGZaRBwMb_3syn4expr4ExprENtNtB8_4hash4Hash4hashNtNtNtCsHUR1vrdMJt_3std4hash6random13DefaultHasherECs4L8YLU89NU9_12synstructure, symObjAddr: 0x1C40, symBinAddr: 0x341A0, symSize: 0x80 }
  - { offset: 0x9A2CD, size: 0x8, addend: 0x0, symName: __RINvXsJ_NtCsieiGu2EXtoJ_4core6optionINtB6_6OptionNtNtCsdGrGZaRBwMb_3syn4expr5LabelENtNtB8_4hash4Hash4hashNtNtNtCsHUR1vrdMJt_3std4hash6random13DefaultHasherECs4L8YLU89NU9_12synstructure, symObjAddr: 0x1CC0, symBinAddr: 0x34220, symSize: 0x80 }
  - { offset: 0x9A37A, size: 0x8, addend: 0x0, symName: __RINvXsJ_NtCsieiGu2EXtoJ_4core6optionINtB6_6OptionNtNtCsdGrGZaRBwMb_3syn4item15ImplRestrictionENtNtB8_4hash4Hash4hashNtNtNtCsHUR1vrdMJt_3std4hash6random13DefaultHasherECs4L8YLU89NU9_12synstructure, symObjAddr: 0x1D40, symBinAddr: 0x342A0, symSize: 0x40 }
  - { offset: 0x9A409, size: 0x8, addend: 0x0, symName: __RINvXsJ_NtCsieiGu2EXtoJ_4core6optionINtB6_6OptionNtNtCsdGrGZaRBwMb_3syn4item8VariadicENtNtB8_4hash4Hash4hashNtNtNtCsHUR1vrdMJt_3std4hash6random13DefaultHasherECs4L8YLU89NU9_12synstructure, symObjAddr: 0x1D80, symBinAddr: 0x342E0, symSize: 0x90 }
  - { offset: 0x9A4B6, size: 0x8, addend: 0x0, symName: __RINvXsJ_NtCsieiGu2EXtoJ_4core6optionINtB6_6OptionNtNtCsdGrGZaRBwMb_3syn4path30AngleBracketedGenericArgumentsENtNtB8_4hash4Hash4hashNtNtNtCsHUR1vrdMJt_3std4hash6random13DefaultHasherECs4L8YLU89NU9_12synstructure, symObjAddr: 0x1E10, symBinAddr: 0x34370, symSize: 0x90 }
  - { offset: 0x9A563, size: 0x8, addend: 0x0, symName: __RINvXsJ_NtCsieiGu2EXtoJ_4core6optionINtB6_6OptionNtNtCsdGrGZaRBwMb_3syn4path5QSelfENtNtB8_4hash4Hash4hashNtNtNtCsHUR1vrdMJt_3std4hash6random13DefaultHasherECs4L8YLU89NU9_12synstructure, symObjAddr: 0x1EA0, symBinAddr: 0x34400, symSize: 0x80 }
  - { offset: 0x9A610, size: 0x8, addend: 0x0, symName: __RINvXsJ_NtCsieiGu2EXtoJ_4core6optionINtB6_6OptionNtNtCsdGrGZaRBwMb_3syn4stmt5BlockENtNtB8_4hash4Hash4hashNtNtNtCsHUR1vrdMJt_3std4hash6random13DefaultHasherECs4L8YLU89NU9_12synstructure, symObjAddr: 0x1F20, symBinAddr: 0x34480, symSize: 0x90 }
  - { offset: 0x9A6BD, size: 0x8, addend: 0x0, symName: __RINvXsJ_NtCsieiGu2EXtoJ_4core6optionINtB6_6OptionNtNtCsdGrGZaRBwMb_3syn4stmt9LocalInitENtNtB8_4hash4Hash4hashNtNtNtCsHUR1vrdMJt_3std4hash6random13DefaultHasherECs4L8YLU89NU9_12synstructure, symObjAddr: 0x1FB0, symBinAddr: 0x34510, symSize: 0x80 }
  - { offset: 0x9A76A, size: 0x8, addend: 0x0, symName: __RINvXsJ_NtCsieiGu2EXtoJ_4core6optionINtB6_6OptionNtNtCsdGrGZaRBwMb_3syn5token2AsENtNtB8_4hash4Hash4hashNtNtNtCsHUR1vrdMJt_3std4hash6random13DefaultHasherECs4L8YLU89NU9_12synstructure, symObjAddr: 0x2030, symBinAddr: 0x34590, symSize: 0x70 }
  - { offset: 0x9A817, size: 0x8, addend: 0x0, symName: __RINvXsJ_NtCsieiGu2EXtoJ_4core6optionINtB6_6OptionNtNtCsdGrGZaRBwMb_3syn5token2EqENtNtB8_4hash4Hash4hashNtNtNtCsHUR1vrdMJt_3std4hash6random13DefaultHasherECs4L8YLU89NU9_12synstructure, symObjAddr: 0x20A0, symBinAddr: 0x34600, symSize: 0x70 }
  - { offset: 0x9A8C4, size: 0x8, addend: 0x0, symName: __RINvXsJ_NtCsieiGu2EXtoJ_4core6optionINtB6_6OptionNtNtCsdGrGZaRBwMb_3syn5token2GtENtNtB8_4hash4Hash4hashNtNtNtCsHUR1vrdMJt_3std4hash6random13DefaultHasherECs4L8YLU89NU9_12synstructure, symObjAddr: 0x2110, symBinAddr: 0x34670, symSize: 0x70 }
  - { offset: 0x9A971, size: 0x8, addend: 0x0, symName: __RINvXsJ_NtCsieiGu2EXtoJ_4core6optionINtB6_6OptionNtNtCsdGrGZaRBwMb_3syn5token2InENtNtB8_4hash4Hash4hashNtNtNtCsHUR1vrdMJt_3std4hash6random13DefaultHasherECs4L8YLU89NU9_12synstructure, symObjAddr: 0x2180, symBinAddr: 0x346E0, symSize: 0x70 }
  - { offset: 0x9AA1E, size: 0x8, addend: 0x0, symName: __RINvXsJ_NtCsieiGu2EXtoJ_4core6optionINtB6_6OptionNtNtCsdGrGZaRBwMb_3syn5token2LtENtNtB8_4hash4Hash4hashNtNtNtCsHUR1vrdMJt_3std4hash6random13DefaultHasherECs4L8YLU89NU9_12synstructure, symObjAddr: 0x21F0, symBinAddr: 0x34750, symSize: 0x70 }
  - { offset: 0x9AACB, size: 0x8, addend: 0x0, symName: __RINvXsJ_NtCsieiGu2EXtoJ_4core6optionINtB6_6OptionNtNtCsdGrGZaRBwMb_3syn5token2OrENtNtB8_4hash4Hash4hashNtNtNtCsHUR1vrdMJt_3std4hash6random13DefaultHasherECs4L8YLU89NU9_12synstructure, symObjAddr: 0x2260, symBinAddr: 0x347C0, symSize: 0x70 }
  - { offset: 0x9AB78, size: 0x8, addend: 0x0, symName: __RINvXsJ_NtCsieiGu2EXtoJ_4core6optionINtB6_6OptionNtNtCsdGrGZaRBwMb_3syn5token3DynENtNtB8_4hash4Hash4hashNtNtNtCsHUR1vrdMJt_3std4hash6random13DefaultHasherECs4L8YLU89NU9_12synstructure, symObjAddr: 0x22D0, symBinAddr: 0x34830, symSize: 0x70 }
  - { offset: 0x9AC25, size: 0x8, addend: 0x0, symName: __RINvXsJ_NtCsieiGu2EXtoJ_4core6optionINtB6_6OptionNtNtCsdGrGZaRBwMb_3syn5token3MutENtNtB8_4hash4Hash4hashNtNtNtCsHUR1vrdMJt_3std4hash6random13DefaultHasherECs4L8YLU89NU9_12synstructure, symObjAddr: 0x2340, symBinAddr: 0x348A0, symSize: 0x70 }
  - { offset: 0x9ACD2, size: 0x8, addend: 0x0, symName: __RINvXsJ_NtCsieiGu2EXtoJ_4core6optionINtB6_6OptionNtNtCsdGrGZaRBwMb_3syn5token3NotENtNtB8_4hash4Hash4hashNtNtNtCsHUR1vrdMJt_3std4hash6random13DefaultHasherECs4L8YLU89NU9_12synstructure, symObjAddr: 0x23B0, symBinAddr: 0x34910, symSize: 0x70 }
  - { offset: 0x9AD7F, size: 0x8, addend: 0x0, symName: __RINvXsJ_NtCsieiGu2EXtoJ_4core6optionINtB6_6OptionNtNtCsdGrGZaRBwMb_3syn5token3RefENtNtB8_4hash4Hash4hashNtNtNtCsHUR1vrdMJt_3std4hash6random13DefaultHasherECs4L8YLU89NU9_12synstructure, symObjAddr: 0x2420, symBinAddr: 0x34980, symSize: 0x70 }
  - { offset: 0x9AE2C, size: 0x8, addend: 0x0, symName: __RINvXsJ_NtCsieiGu2EXtoJ_4core6optionINtB6_6OptionNtNtCsdGrGZaRBwMb_3syn5token4AutoENtNtB8_4hash4Hash4hashNtNtNtCsHUR1vrdMJt_3std4hash6random13DefaultHasherECs4L8YLU89NU9_12synstructure, symObjAddr: 0x2490, symBinAddr: 0x349F0, symSize: 0x70 }
  - { offset: 0x9AED9, size: 0x8, addend: 0x0, symName: __RINvXsJ_NtCsieiGu2EXtoJ_4core6optionINtB6_6OptionNtNtCsdGrGZaRBwMb_3syn5token4MoveENtNtB8_4hash4Hash4hashNtNtNtCsHUR1vrdMJt_3std4hash6random13DefaultHasherECs4L8YLU89NU9_12synstructure, symObjAddr: 0x2500, symBinAddr: 0x34A60, symSize: 0x70 }
  - { offset: 0x9AF86, size: 0x8, addend: 0x0, symName: __RINvXsJ_NtCsieiGu2EXtoJ_4core6optionINtB6_6OptionNtNtCsdGrGZaRBwMb_3syn5token4SemiENtNtB8_4hash4Hash4hashNtNtNtCsHUR1vrdMJt_3std4hash6random13DefaultHasherECs4L8YLU89NU9_12synstructure, symObjAddr: 0x2570, symBinAddr: 0x34AD0, symSize: 0x70 }
  - { offset: 0x9B033, size: 0x8, addend: 0x0, symName: __RINvXsJ_NtCsieiGu2EXtoJ_4core6optionINtB6_6OptionNtNtCsdGrGZaRBwMb_3syn5token5AsyncENtNtB8_4hash4Hash4hashNtNtNtCsHUR1vrdMJt_3std4hash6random13DefaultHasherECs4L8YLU89NU9_12synstructure, symObjAddr: 0x25E0, symBinAddr: 0x34B40, symSize: 0x70 }
  - { offset: 0x9B0E0, size: 0x8, addend: 0x0, symName: __RINvXsJ_NtCsieiGu2EXtoJ_4core6optionINtB6_6OptionNtNtCsdGrGZaRBwMb_3syn5token5ColonENtNtB8_4hash4Hash4hashNtNtNtCsHUR1vrdMJt_3std4hash6random13DefaultHasherECs4L8YLU89NU9_12synstructure, symObjAddr: 0x2650, symBinAddr: 0x34BB0, symSize: 0x70 }
  - { offset: 0x9B18D, size: 0x8, addend: 0x0, symName: __RINvXsJ_NtCsieiGu2EXtoJ_4core6optionINtB6_6OptionNtNtCsdGrGZaRBwMb_3syn5token5CommaENtNtB8_4hash4Hash4hashNtNtNtCsHUR1vrdMJt_3std4hash6random13DefaultHasherECs4L8YLU89NU9_12synstructure, symObjAddr: 0x26C0, symBinAddr: 0x34C20, symSize: 0x70 }
  - { offset: 0x9B23A, size: 0x8, addend: 0x0, symName: __RINvXsJ_NtCsieiGu2EXtoJ_4core6optionINtB6_6OptionNtNtCsdGrGZaRBwMb_3syn5token5ConstENtNtB8_4hash4Hash4hashNtNtNtCsHUR1vrdMJt_3std4hash6random13DefaultHasherECs4L8YLU89NU9_12synstructure, symObjAddr: 0x2730, symBinAddr: 0x34C90, symSize: 0x70 }
  - { offset: 0x9B2E7, size: 0x8, addend: 0x0, symName: __RINvXsJ_NtCsieiGu2EXtoJ_4core6optionINtB6_6OptionNtNtCsdGrGZaRBwMb_3syn5token5ParenENtNtB8_4hash4Hash4hashNtNtNtCsHUR1vrdMJt_3std4hash6random13DefaultHasherECs4L8YLU89NU9_12synstructure, symObjAddr: 0x27A0, symBinAddr: 0x34D00, symSize: 0x70 }
  - { offset: 0x9B394, size: 0x8, addend: 0x0, symName: __RINvXsJ_NtCsieiGu2EXtoJ_4core6optionINtB6_6OptionNtNtCsdGrGZaRBwMb_3syn5token6DotDotENtNtB8_4hash4Hash4hashNtNtNtCsHUR1vrdMJt_3std4hash6random13DefaultHasherECs4L8YLU89NU9_12synstructure, symObjAddr: 0x2810, symBinAddr: 0x34D70, symSize: 0x70 }
  - { offset: 0x9B441, size: 0x8, addend: 0x0, symName: __RINvXsJ_NtCsieiGu2EXtoJ_4core6optionINtB6_6OptionNtNtCsdGrGZaRBwMb_3syn5token6StaticENtNtB8_4hash4Hash4hashNtNtNtCsHUR1vrdMJt_3std4hash6random13DefaultHasherECs4L8YLU89NU9_12synstructure, symObjAddr: 0x2880, symBinAddr: 0x34DE0, symSize: 0x70 }
  - { offset: 0x9B4EE, size: 0x8, addend: 0x0, symName: __RINvXsJ_NtCsieiGu2EXtoJ_4core6optionINtB6_6OptionNtNtCsdGrGZaRBwMb_3syn5token6UnsafeENtNtB8_4hash4Hash4hashNtNtNtCsHUR1vrdMJt_3std4hash6random13DefaultHasherECs4L8YLU89NU9_12synstructure, symObjAddr: 0x28F0, symBinAddr: 0x34E50, symSize: 0x70 }
  - { offset: 0x9B59B, size: 0x8, addend: 0x0, symName: __RINvXsJ_NtCsieiGu2EXtoJ_4core6optionINtB6_6OptionNtNtCsdGrGZaRBwMb_3syn5token7DefaultENtNtB8_4hash4Hash4hashNtNtNtCsHUR1vrdMJt_3std4hash6random13DefaultHasherECs4L8YLU89NU9_12synstructure, symObjAddr: 0x2960, symBinAddr: 0x34EC0, symSize: 0x70 }
  - { offset: 0x9B648, size: 0x8, addend: 0x0, symName: __RINvXsJ_NtCsieiGu2EXtoJ_4core6optionINtB6_6OptionNtNtCsdGrGZaRBwMb_3syn5token7PathSepENtNtB8_4hash4Hash4hashNtNtNtCsHUR1vrdMJt_3std4hash6random13DefaultHasherECs4L8YLU89NU9_12synstructure, symObjAddr: 0x29D0, symBinAddr: 0x34F30, symSize: 0x70 }
  - { offset: 0x9B6F5, size: 0x8, addend: 0x0, symName: __RINvXsJ_NtCsieiGu2EXtoJ_4core6optionINtB6_6OptionNtNtCsdGrGZaRBwMb_3syn8generics11WhereClauseENtNtB8_4hash4Hash4hashNtNtNtCsHUR1vrdMJt_3std4hash6random13DefaultHasherECs4L8YLU89NU9_12synstructure, symObjAddr: 0x2A40, symBinAddr: 0x34FA0, symSize: 0x90 }
  - { offset: 0x9B7A2, size: 0x8, addend: 0x0, symName: __RINvXsJ_NtCsieiGu2EXtoJ_4core6optionINtB6_6OptionNtNtCsdGrGZaRBwMb_3syn8generics14BoundLifetimesENtNtB8_4hash4Hash4hashNtNtNtCsHUR1vrdMJt_3std4hash6random13DefaultHasherECs4L8YLU89NU9_12synstructure, symObjAddr: 0x2AD0, symBinAddr: 0x35030, symSize: 0x90 }
  - { offset: 0x9B84F, size: 0x8, addend: 0x0, symName: __RINvXsJ_NtCsieiGu2EXtoJ_4core6optionINtB6_6OptionNtNtCsdGrGZaRBwMb_3syn8lifetime8LifetimeENtNtB8_4hash4Hash4hashNtNtNtCsHUR1vrdMJt_3std4hash6random13DefaultHasherECs4L8YLU89NU9_12synstructure, symObjAddr: 0x2B60, symBinAddr: 0x350C0, symSize: 0x80 }
  - { offset: 0x9B8FC, size: 0x8, addend: 0x0, symName: __RINvXsJ_NtCsieiGu2EXtoJ_4core6optionINtB6_6OptionTIBz_NtNtCsdGrGZaRBwMb_3syn5token3NotENtNtBU_4path4PathNtBS_3ForEENtNtB8_4hash4Hash4hashNtNtNtCsHUR1vrdMJt_3std4hash6random13DefaultHasherECs4L8YLU89NU9_12synstructure, symObjAddr: 0x2BE0, symBinAddr: 0x35140, symSize: 0x90 }
  - { offset: 0x9B9A9, size: 0x8, addend: 0x0, symName: __RINvXsJ_NtCsieiGu2EXtoJ_4core6optionINtB6_6OptionTINtNtCslJiobkLta79_5alloc5boxed3BoxNtNtCsdGrGZaRBwMb_3syn3pat3PatENtNtB1p_5token5ColonEENtNtB8_4hash4Hash4hashNtNtNtCsHUR1vrdMJt_3std4hash6random13DefaultHasherECs4L8YLU89NU9_12synstructure, symObjAddr: 0x2C70, symBinAddr: 0x351D0, symSize: 0x80 }
  - { offset: 0x9BA56, size: 0x8, addend: 0x0, symName: __RINvXsJ_NtCsieiGu2EXtoJ_4core6optionINtB6_6OptionTNtCsaKzlTDPUHDb_11proc_macro25IdentNtNtCsdGrGZaRBwMb_3syn5token5ColonEENtNtB8_4hash4Hash4hashNtNtNtCsHUR1vrdMJt_3std4hash6random13DefaultHasherECs4L8YLU89NU9_12synstructure, symObjAddr: 0x2CF0, symBinAddr: 0x35250, symSize: 0x80 }
  - { offset: 0x9BB03, size: 0x8, addend: 0x0, symName: __RINvXsJ_NtCsieiGu2EXtoJ_4core6optionINtB6_6OptionTNtNtCsdGrGZaRBwMb_3syn5token2AsNtCsaKzlTDPUHDb_11proc_macro25IdentEENtNtB8_4hash4Hash4hashNtNtNtCsHUR1vrdMJt_3std4hash6random13DefaultHasherECs4L8YLU89NU9_12synstructure, symObjAddr: 0x2D70, symBinAddr: 0x352D0, symSize: 0x80 }
  - { offset: 0x9BBB0, size: 0x8, addend: 0x0, symName: __RINvXsJ_NtCsieiGu2EXtoJ_4core6optionINtB6_6OptionTNtNtCsdGrGZaRBwMb_3syn5token2AtINtNtCslJiobkLta79_5alloc5boxed3BoxNtNtBQ_3pat3PatEEENtNtB8_4hash4Hash4hashNtNtNtCsHUR1vrdMJt_3std4hash6random13DefaultHasherECs4L8YLU89NU9_12synstructure, symObjAddr: 0x2DF0, symBinAddr: 0x35350, symSize: 0x90 }
  - { offset: 0x9BC5D, size: 0x8, addend: 0x0, symName: __RINvXsJ_NtCsieiGu2EXtoJ_4core6optionINtB6_6OptionTNtNtCsdGrGZaRBwMb_3syn5token2EqNtNtBQ_2ty4TypeEENtNtB8_4hash4Hash4hashNtNtNtCsHUR1vrdMJt_3std4hash6random13DefaultHasherECs4L8YLU89NU9_12synstructure, symObjAddr: 0x2E80, symBinAddr: 0x353E0, symSize: 0x80 }
  - { offset: 0x9BD0A, size: 0x8, addend: 0x0, symName: __RINvXsJ_NtCsieiGu2EXtoJ_4core6optionINtB6_6OptionTNtNtCsdGrGZaRBwMb_3syn5token2EqNtNtBQ_4expr4ExprEENtNtB8_4hash4Hash4hashNtNtNtCsHUR1vrdMJt_3std4hash6random13DefaultHasherECs4L8YLU89NU9_12synstructure, symObjAddr: 0x2F00, symBinAddr: 0x35460, symSize: 0x80 }
  - { offset: 0x9BDB7, size: 0x8, addend: 0x0, symName: __RINvXsJ_NtCsieiGu2EXtoJ_4core6optionINtB6_6OptionTNtNtCsdGrGZaRBwMb_3syn5token2IfINtNtCslJiobkLta79_5alloc5boxed3BoxNtNtBQ_4expr4ExprEEENtNtB8_4hash4Hash4hashNtNtNtCsHUR1vrdMJt_3std4hash6random13DefaultHasherECs4L8YLU89NU9_12synstructure, symObjAddr: 0x2F80, symBinAddr: 0x354E0, symSize: 0x90 }
  - { offset: 0x9BE64, size: 0x8, addend: 0x0, symName: __RINvXsJ_NtCsieiGu2EXtoJ_4core6optionINtB6_6OptionTNtNtCsdGrGZaRBwMb_3syn5token3AndIBz_NtNtBQ_8lifetime8LifetimeEEENtNtB8_4hash4Hash4hashNtNtNtCsHUR1vrdMJt_3std4hash6random13DefaultHasherECs4L8YLU89NU9_12synstructure, symObjAddr: 0x3010, symBinAddr: 0x35570, symSize: 0x80 }
  - { offset: 0x9BF11, size: 0x8, addend: 0x0, symName: __RINvXsJ_NtCsieiGu2EXtoJ_4core6optionINtB6_6OptionTNtNtCsdGrGZaRBwMb_3syn5token4ElseINtNtCslJiobkLta79_5alloc5boxed3BoxNtNtBQ_4expr4ExprEEENtNtB8_4hash4Hash4hashNtNtNtCsHUR1vrdMJt_3std4hash6random13DefaultHasherECs4L8YLU89NU9_12synstructure, symObjAddr: 0x3090, symBinAddr: 0x355F0, symSize: 0x90 }
  - { offset: 0x9BFBE, size: 0x8, addend: 0x0, symName: __RINvXsJ_NtCsieiGu2EXtoJ_4core6optionINtB6_6OptionTNtNtCsdGrGZaRBwMb_3syn5token5BraceINtNtCslJiobkLta79_5alloc3vec3VecNtNtBQ_4item4ItemEEENtNtB8_4hash4Hash4hashNtNtNtCsHUR1vrdMJt_3std4hash6random13DefaultHasherECs4L8YLU89NU9_12synstructure, symObjAddr: 0x3120, symBinAddr: 0x35680, symSize: 0x90 }
  - { offset: 0x9C152, size: 0x8, addend: 0x0, symName: __RNvXs6_NtCsieiGu2EXtoJ_4core6optionINtB5_6OptionINtNtCsdGrGZaRBwMb_3syn10punctuated4PairNtNtBP_8generics14TypeParamBoundNtNtBP_5token4PlusEENtNtNtNtB7_4iter6traits7collect12IntoIterator9into_iterCs4L8YLU89NU9_12synstructure, symObjAddr: 0x41A0, symBinAddr: 0x36650, symSize: 0x50 }
  - { offset: 0x9C256, size: 0x8, addend: 0x0, symName: __RNvXsP_NtCsieiGu2EXtoJ_4core6optionINtB5_8IntoIterRNtNtCsdGrGZaRBwMb_3syn4data7VariantENtNtB7_5clone5Clone5cloneCs4L8YLU89NU9_12synstructure, symObjAddr: 0x4370, symBinAddr: 0x36820, symSize: 0x60 }
  - { offset: 0x9C301, size: 0x8, addend: 0x0, symName: __RNvXsP_NtCsieiGu2EXtoJ_4core6optionINtB5_8IntoIterRNtNtCsdGrGZaRBwMb_3syn8generics14WherePredicateENtNtB7_5clone5Clone5cloneCs4L8YLU89NU9_12synstructure, symObjAddr: 0x43D0, symBinAddr: 0x36880, symSize: 0x60 }
  - { offset: 0x9C4F1, size: 0x8, addend: 0x0, symName: __RNvXsw_NtCsieiGu2EXtoJ_4core6optionINtB5_8IntoIterINtNtCsdGrGZaRBwMb_3syn10punctuated4PairNtNtBR_8generics14TypeParamBoundNtNtBR_5token4PlusEENtNtNtNtB7_4iter6traits8iterator8Iterator4nextCs4L8YLU89NU9_12synstructure, symObjAddr: 0x4750, symBinAddr: 0x36C00, symSize: 0x70 }
  - { offset: 0x9C569, size: 0x8, addend: 0x0, symName: __RNvXsw_NtCsieiGu2EXtoJ_4core6optionINtB5_8IntoIterRNtNtCsdGrGZaRBwMb_3syn4data7VariantENtNtNtNtB7_4iter6traits8iterator8Iterator9size_hintCs4L8YLU89NU9_12synstructure, symObjAddr: 0x47C0, symBinAddr: 0x36C70, symSize: 0x30 }
  - { offset: 0x9C5E1, size: 0x8, addend: 0x0, symName: __RNvXsw_NtCsieiGu2EXtoJ_4core6optionINtB5_8IntoIterRNtNtCsdGrGZaRBwMb_3syn8generics14WherePredicateENtNtNtNtB7_4iter6traits8iterator8Iterator9size_hintCs4L8YLU89NU9_12synstructure, symObjAddr: 0x47F0, symBinAddr: 0x36CA0, symSize: 0x30 }
  - { offset: 0x9D78A, size: 0x8, addend: 0x0, symName: __RINvXsm_NtNtCsieiGu2EXtoJ_4core4hash5implsTINtNtBa_6option6OptionNtNtCsdGrGZaRBwMb_3syn5token3NotENtNtB15_4path4PathNtB13_3ForENtB8_4Hash4hashNtNtNtCsHUR1vrdMJt_3std4hash6random13DefaultHasherECs4L8YLU89NU9_12synstructure, symObjAddr: 0x31B0, symBinAddr: 0x35710, symSize: 0x60 }
  - { offset: 0x9D8FE, size: 0x8, addend: 0x0, symName: __RINvYINtNtCsdGrGZaRBwMb_3syn10punctuated11PrivateIterNtNtB8_4data7VariantNtNtB8_5token5CommaENtNtNtNtCsieiGu2EXtoJ_4core4iter6traits8iterator8Iterator8try_foldINtNtNtB1B_3num7nonzero7NonZerojENCNvXs_NvB1t_10advance_byB3_NtB3b_13SpecAdvanceBy15spec_advance_by0INtNtB1B_6option6OptionB2x_EECs4L8YLU89NU9_12synstructure, symObjAddr: 0x3210, symBinAddr: 0x35770, symSize: 0x130 }
  - { offset: 0x9D9B2, size: 0x8, addend: 0x0, symName: __RINvYINtNtCsdGrGZaRBwMb_3syn10punctuated11PrivateIterNtNtB8_8generics14WherePredicateNtNtB8_5token5CommaENtNtNtNtCsieiGu2EXtoJ_4core4iter6traits8iterator8Iterator8try_foldINtNtNtB1N_3num7nonzero7NonZerojENCNvXs_NvB1F_10advance_byB3_NtB3n_13SpecAdvanceBy15spec_advance_by0INtNtB1N_6option6OptionB2J_EECs4L8YLU89NU9_12synstructure, symObjAddr: 0x3340, symBinAddr: 0x358A0, symSize: 0x130 }
  - { offset: 0x9DA66, size: 0x8, addend: 0x0, symName: __RINvYINtNtCsdGrGZaRBwMb_3syn10punctuated4IterNtNtB8_4data7VariantENtNtNtNtCsieiGu2EXtoJ_4core4iter6traits8iterator8Iterator3mapNtCs4L8YLU89NU9_12synstructure11VariantInfoNCNvMs2_B23_NtB23_9Structure7try_new0EB23_, symObjAddr: 0x3470, symBinAddr: 0x359D0, symSize: 0x20 }
  - { offset: 0x9DAD3, size: 0x8, addend: 0x0, symName: __RINvYINtNtCsdGrGZaRBwMb_3syn10punctuated4IterNtNtB8_8generics14WherePredicateENtNtNtNtCsieiGu2EXtoJ_4core4iter6traits8iterator8Iterator6clonedBH_ECs4L8YLU89NU9_12synstructure, symObjAddr: 0x3490, symBinAddr: 0x359F0, symSize: 0x20 }
  - { offset: 0x9DB13, size: 0x8, addend: 0x0, symName: __RINvYINtNtCsieiGu2EXtoJ_4core6option8IntoIterINtNtCsdGrGZaRBwMb_3syn10punctuated4PairNtNtBM_8generics14TypeParamBoundNtNtBM_5token4PlusEENtNtNtNtB8_4iter6traits8iterator8Iterator7collectINtBK_10PunctuatedB1l_B1R_EECs4L8YLU89NU9_12synstructure, symObjAddr: 0x34B0, symBinAddr: 0x35A10, symSize: 0x80 }
  - { offset: 0x9DBB3, size: 0x8, addend: 0x0, symName: __RNvXs_NvNtNtNtNtCsieiGu2EXtoJ_4core4iter6traits8iterator8Iterator10advance_byINtNtCsdGrGZaRBwMb_3syn10punctuated11PrivateIterNtNtB1i_4data7VariantNtNtB1i_5token5CommaENtB4_13SpecAdvanceBy15spec_advance_byCs4L8YLU89NU9_12synstructure, symObjAddr: 0x4430, symBinAddr: 0x368E0, symSize: 0x90 }
  - { offset: 0x9DC61, size: 0x8, addend: 0x0, symName: __RNvXs_NvNtNtNtNtCsieiGu2EXtoJ_4core4iter6traits8iterator8Iterator10advance_byINtNtCsdGrGZaRBwMb_3syn10punctuated11PrivateIterNtNtB1i_8generics14WherePredicateNtNtB1i_5token5CommaENtB4_13SpecAdvanceBy15spec_advance_byCs4L8YLU89NU9_12synstructure, symObjAddr: 0x44C0, symBinAddr: 0x36970, symSize: 0x90 }
  - { offset: 0x9DD25, size: 0x8, addend: 0x0, symName: __RNvYINtNtCsdGrGZaRBwMb_3syn10punctuated11PrivateIterNtNtB7_4data7VariantNtNtB7_5token5CommaENtNtNtNtCsieiGu2EXtoJ_4core4iter6traits8iterator8Iterator10advance_byCs4L8YLU89NU9_12synstructure, symObjAddr: 0x4CB0, symBinAddr: 0x37160, symSize: 0x20 }
  - { offset: 0x9DD6B, size: 0x8, addend: 0x0, symName: __RNvYINtNtCsdGrGZaRBwMb_3syn10punctuated11PrivateIterNtNtB7_4data7VariantNtNtB7_5token5CommaENtNtNtNtCsieiGu2EXtoJ_4core4iter6traits8iterator8Iterator3nthCs4L8YLU89NU9_12synstructure, symObjAddr: 0x4CD0, symBinAddr: 0x37180, symSize: 0x80 }
  - { offset: 0x9DE3B, size: 0x8, addend: 0x0, symName: __RNvYINtNtCsdGrGZaRBwMb_3syn10punctuated11PrivateIterNtNtB7_4data7VariantNtNtB7_5token5CommaENtNtNtNtCsieiGu2EXtoJ_4core4iter6traits8iterator8Iterator9size_hintCs4L8YLU89NU9_12synstructure, symObjAddr: 0x4D50, symBinAddr: 0x37200, symSize: 0x30 }
  - { offset: 0x9DE70, size: 0x8, addend: 0x0, symName: __RNvYINtNtCsdGrGZaRBwMb_3syn10punctuated11PrivateIterNtNtB7_8generics14WherePredicateNtNtB7_5token5CommaENtNtNtNtCsieiGu2EXtoJ_4core4iter6traits8iterator8Iterator10advance_byCs4L8YLU89NU9_12synstructure, symObjAddr: 0x4FB0, symBinAddr: 0x37460, symSize: 0x20 }
  - { offset: 0x9DEB6, size: 0x8, addend: 0x0, symName: __RNvYINtNtCsdGrGZaRBwMb_3syn10punctuated11PrivateIterNtNtB7_8generics14WherePredicateNtNtB7_5token5CommaENtNtNtNtCsieiGu2EXtoJ_4core4iter6traits8iterator8Iterator3nthCs4L8YLU89NU9_12synstructure, symObjAddr: 0x4FD0, symBinAddr: 0x37480, symSize: 0x80 }
  - { offset: 0x9DF86, size: 0x8, addend: 0x0, symName: __RNvYINtNtCsdGrGZaRBwMb_3syn10punctuated11PrivateIterNtNtB7_8generics14WherePredicateNtNtB7_5token5CommaENtNtNtNtCsieiGu2EXtoJ_4core4iter6traits8iterator8Iterator9size_hintCs4L8YLU89NU9_12synstructure, symObjAddr: 0x5050, symBinAddr: 0x37500, symSize: 0x30 }
  - { offset: 0x9DFBB, size: 0x8, addend: 0x0, symName: __RNvYINtNtCsdGrGZaRBwMb_3syn10punctuated4IterNtNtB7_4data5FieldENtNtNtNtCsieiGu2EXtoJ_4core4iter6traits8iterator8Iterator9enumerateCs4L8YLU89NU9_12synstructure, symObjAddr: 0x5080, symBinAddr: 0x37530, symSize: 0x20 }
  - { offset: 0x9E007, size: 0x8, addend: 0x0, symName: __RNvYINtNtCsdGrGZaRBwMb_3syn10punctuated4IterNtNtB7_8generics12GenericParamENtNtNtNtCsieiGu2EXtoJ_4core4iter6traits8iterator8Iterator9enumerateCs4L8YLU89NU9_12synstructure, symObjAddr: 0x50A0, symBinAddr: 0x37550, symSize: 0x20 }
  - { offset: 0x9E05F, size: 0x8, addend: 0x0, symName: __RNvXNtNtNtCsieiGu2EXtoJ_4core4iter6traits7collectINtNtB8_6option8IntoIterINtNtCsdGrGZaRBwMb_3syn10punctuated4PairNtNtB1e_8generics14TypeParamBoundNtNtB1e_5token4PlusEENtB2_12IntoIterator9into_iterCs4L8YLU89NU9_12synstructure, symObjAddr: 0x40A0, symBinAddr: 0x36550, symSize: 0x30 }
  - { offset: 0x9E097, size: 0x8, addend: 0x0, symName: __RNvXNtNtNtCsieiGu2EXtoJ_4core4iter6traits7collectINtNtCsdGrGZaRBwMb_3syn10punctuated4IterNtNtBQ_8generics12GenericParamENtB2_12IntoIterator9into_iterCs4L8YLU89NU9_12synstructure, symObjAddr: 0x40D0, symBinAddr: 0x36580, symSize: 0x20 }
  - { offset: 0x9E0DA, size: 0x8, addend: 0x0, symName: __RNvYINtNtCsdGrGZaRBwMb_3syn10punctuated11PrivateIterNtNtB7_4data7VariantNtNtB7_5token5CommaENtNtNtNtCsieiGu2EXtoJ_4core4iter6traits10exact_size17ExactSizeIterator8is_emptyCs4L8YLU89NU9_12synstructure, symObjAddr: 0x4A80, symBinAddr: 0x36F30, symSize: 0x20 }
  - { offset: 0x9E10F, size: 0x8, addend: 0x0, symName: __RNvYINtNtCsdGrGZaRBwMb_3syn10punctuated11PrivateIterNtNtB7_8generics14WherePredicateNtNtB7_5token5CommaENtNtNtNtCsieiGu2EXtoJ_4core4iter6traits10exact_size17ExactSizeIterator8is_emptyCs4L8YLU89NU9_12synstructure, symObjAddr: 0x4D80, symBinAddr: 0x37230, symSize: 0x20 }
  - { offset: 0x9E144, size: 0x8, addend: 0x0, symName: __RNvYINtNtCsieiGu2EXtoJ_4core6option8IntoIterRNtNtCsdGrGZaRBwMb_3syn4data7VariantENtNtNtNtB7_4iter6traits10exact_size17ExactSizeIterator3lenCs4L8YLU89NU9_12synstructure, symObjAddr: 0x50C0, symBinAddr: 0x37570, symSize: 0xE0 }
  - { offset: 0x9E244, size: 0x8, addend: 0x0, symName: __RNvYINtNtCsieiGu2EXtoJ_4core6option8IntoIterRNtNtCsdGrGZaRBwMb_3syn8generics14WherePredicateENtNtNtNtB7_4iter6traits10exact_size17ExactSizeIterator3lenCs4L8YLU89NU9_12synstructure, symObjAddr: 0x51A0, symBinAddr: 0x37650, symSize: 0xE0 }
  - { offset: 0x9E350, size: 0x8, addend: 0x0, symName: __RNvYINtNtCsdGrGZaRBwMb_3syn10punctuated11PrivateIterNtNtB7_4data7VariantNtNtB7_5token5CommaENtNtNtNtCsieiGu2EXtoJ_4core4iter6traits12double_ended19DoubleEndedIterator15advance_back_byCs4L8YLU89NU9_12synstructure, symObjAddr: 0x4AA0, symBinAddr: 0x36F50, symSize: 0x1A0 }
  - { offset: 0x9E4CF, size: 0x8, addend: 0x0, symName: __RNvYINtNtCsdGrGZaRBwMb_3syn10punctuated11PrivateIterNtNtB7_4data7VariantNtNtB7_5token5CommaENtNtNtNtCsieiGu2EXtoJ_4core4iter6traits12double_ended19DoubleEndedIterator8nth_backCs4L8YLU89NU9_12synstructure, symObjAddr: 0x4C40, symBinAddr: 0x370F0, symSize: 0x70 }
  - { offset: 0x9E54D, size: 0x8, addend: 0x0, symName: __RNvYINtNtCsdGrGZaRBwMb_3syn10punctuated11PrivateIterNtNtB7_8generics14WherePredicateNtNtB7_5token5CommaENtNtNtNtCsieiGu2EXtoJ_4core4iter6traits12double_ended19DoubleEndedIterator15advance_back_byCs4L8YLU89NU9_12synstructure, symObjAddr: 0x4DA0, symBinAddr: 0x37250, symSize: 0x1A0 }
  - { offset: 0x9E6CC, size: 0x8, addend: 0x0, symName: __RNvYINtNtCsdGrGZaRBwMb_3syn10punctuated11PrivateIterNtNtB7_8generics14WherePredicateNtNtB7_5token5CommaENtNtNtNtCsieiGu2EXtoJ_4core4iter6traits12double_ended19DoubleEndedIterator8nth_backCs4L8YLU89NU9_12synstructure, symObjAddr: 0x4F40, symBinAddr: 0x373F0, symSize: 0x70 }
  - { offset: 0x9F6F2, size: 0x8, addend: 0x0, symName: __RINvMNtCsieiGu2EXtoJ_4core6optionINtB3_6OptionRNtNtCsdGrGZaRBwMb_3syn4data7VariantE7or_elseNCNvXsw_NtBN_10punctuatedINtB1z_11PrivateIterBJ_NtNtBN_5token5CommaENtNtNtNtB5_4iter6traits8iterator8Iterator4nexts_0ECs4L8YLU89NU9_12synstructure, symObjAddr: 0x0, symBinAddr: 0x32650, symSize: 0x90 }
  - { offset: 0x9F761, size: 0x8, addend: 0x0, symName: __RINvMNtCsieiGu2EXtoJ_4core6optionINtB3_6OptionRNtNtCsdGrGZaRBwMb_3syn4data7VariantE7or_elseNCNvXsx_NtBN_10punctuatedINtB1z_11PrivateIterBJ_NtNtBN_5token5CommaENtNtNtNtB5_4iter6traits12double_ended19DoubleEndedIterator9next_back0ECs4L8YLU89NU9_12synstructure, symObjAddr: 0x90, symBinAddr: 0x326E0, symSize: 0x90 }
  - { offset: 0x9F7D0, size: 0x8, addend: 0x0, symName: __RINvMNtCsieiGu2EXtoJ_4core6optionINtB3_6OptionRNtNtCsdGrGZaRBwMb_3syn8generics14WherePredicateE7or_elseNCNvXsw_NtBN_10punctuatedINtB1L_11PrivateIterBJ_NtNtBN_5token5CommaENtNtNtNtB5_4iter6traits8iterator8Iterator4nexts_0ECs4L8YLU89NU9_12synstructure, symObjAddr: 0x120, symBinAddr: 0x32770, symSize: 0x90 }
  - { offset: 0x9F83F, size: 0x8, addend: 0x0, symName: __RINvMNtCsieiGu2EXtoJ_4core6optionINtB3_6OptionRNtNtCsdGrGZaRBwMb_3syn8generics14WherePredicateE7or_elseNCNvXsx_NtBN_10punctuatedINtB1L_11PrivateIterBJ_NtNtBN_5token5CommaENtNtNtNtB5_4iter6traits12double_ended19DoubleEndedIterator9next_back0ECs4L8YLU89NU9_12synstructure, symObjAddr: 0x1B0, symBinAddr: 0x32800, symSize: 0x90 }
  - { offset: 0x9F8A1, size: 0x8, addend: 0x0, symName: __RINvMNtCsieiGu2EXtoJ_4core6optionINtB3_6OptionRTNtNtCsdGrGZaRBwMb_3syn4data7VariantNtNtBO_5token5CommaEE3mapRBK_NCNCNvXsx_NtBO_10punctuatedINtB1W_11PrivateIterBK_B1j_ENtNtNtNtB5_4iter6traits12double_ended19DoubleEndedIterator9next_back00ECs4L8YLU89NU9_12synstructure, symObjAddr: 0x240, symBinAddr: 0x32890, symSize: 0x50 }
  - { offset: 0x9F90C, size: 0x8, addend: 0x0, symName: __RINvMNtCsieiGu2EXtoJ_4core6optionINtB3_6OptionRTNtNtCsdGrGZaRBwMb_3syn4data7VariantNtNtBO_5token5CommaEE3mapRBK_NCNvXsw_NtBO_10punctuatedINtB1U_11PrivateIterBK_B1j_ENtNtNtNtB5_4iter6traits8iterator8Iterator4next0ECs4L8YLU89NU9_12synstructure, symObjAddr: 0x290, symBinAddr: 0x328E0, symSize: 0x50 }
  - { offset: 0x9F977, size: 0x8, addend: 0x0, symName: __RINvMNtCsieiGu2EXtoJ_4core6optionINtB3_6OptionRTNtNtCsdGrGZaRBwMb_3syn8generics14WherePredicateNtNtBO_5token5CommaEE3mapRBK_NCNCNvXsx_NtBO_10punctuatedINtB28_11PrivateIterBK_B1v_ENtNtNtNtB5_4iter6traits12double_ended19DoubleEndedIterator9next_back00ECs4L8YLU89NU9_12synstructure, symObjAddr: 0x2E0, symBinAddr: 0x32930, symSize: 0x50 }
  - { offset: 0x9F9E2, size: 0x8, addend: 0x0, symName: __RINvMNtCsieiGu2EXtoJ_4core6optionINtB3_6OptionRTNtNtCsdGrGZaRBwMb_3syn8generics14WherePredicateNtNtBO_5token5CommaEE3mapRBK_NCNvXsw_NtBO_10punctuatedINtB26_11PrivateIterBK_B1v_ENtNtNtNtB5_4iter6traits8iterator8Iterator4next0ECs4L8YLU89NU9_12synstructure, symObjAddr: 0x330, symBinAddr: 0x32980, symSize: 0x50 }
  - { offset: 0x9FC95, size: 0x8, addend: 0x0, symName: __RNvMNtCsdGrGZaRBwMb_3syn10punctuatedINtB2_10PunctuatedNtNtB4_4data7VariantNtNtB4_5token5CommaE4iterCs4L8YLU89NU9_12synstructure, symObjAddr: 0x3610, symBinAddr: 0x35B70, symSize: 0xC0 }
  - { offset: 0x9FCF4, size: 0x8, addend: 0x0, symName: __RNvMNtCsdGrGZaRBwMb_3syn10punctuatedINtB2_10PunctuatedNtNtB4_8generics12GenericParamNtNtB4_5token5CommaE3lenCs4L8YLU89NU9_12synstructure, symObjAddr: 0x36D0, symBinAddr: 0x35C30, symSize: 0x80 }
  - { offset: 0x9FD35, size: 0x8, addend: 0x0, symName: __RNvMNtCsdGrGZaRBwMb_3syn10punctuatedINtB2_10PunctuatedNtNtB4_8generics12GenericParamNtNtB4_5token5CommaE4pushCs4L8YLU89NU9_12synstructure, symObjAddr: 0x3750, symBinAddr: 0x35CB0, symSize: 0x110 }
  - { offset: 0x9FDC0, size: 0x8, addend: 0x0, symName: __RNvMNtCsdGrGZaRBwMb_3syn10punctuatedINtB2_10PunctuatedNtNtB4_8generics14WherePredicateNtNtB4_5token5CommaE4iterCs4L8YLU89NU9_12synstructure, symObjAddr: 0x3860, symBinAddr: 0x35DC0, symSize: 0xC0 }
  - { offset: 0x9FE1F, size: 0x8, addend: 0x0, symName: __RNvMNtCsdGrGZaRBwMb_3syn10punctuatedINtB2_10PunctuatedNtNtB4_8generics14WherePredicateNtNtB4_5token5CommaE4pushCs4L8YLU89NU9_12synstructure, symObjAddr: 0x3920, symBinAddr: 0x35E80, symSize: 0x110 }
  - { offset: 0x9FEA3, size: 0x8, addend: 0x0, symName: __RNvMsJ_NtCsdGrGZaRBwMb_3syn10punctuatedINtB5_4PairRNtNtB7_2ty4TypeRNtNtB7_5token5CommaE5valueCs4L8YLU89NU9_12synstructure, symObjAddr: 0x3AE0, symBinAddr: 0x35F90, symSize: 0x60 }
  - { offset: 0x9FF1D, size: 0x8, addend: 0x0, symName: __RNvMsJ_NtCsdGrGZaRBwMb_3syn10punctuatedINtB5_4PairRNtNtB7_2ty9BareFnArgRNtNtB7_5token5CommaE5valueCs4L8YLU89NU9_12synstructure, symObjAddr: 0x3B40, symBinAddr: 0x35FF0, symSize: 0x60 }
  - { offset: 0x9FFA4, size: 0x8, addend: 0x0, symName: __RNvMsJ_NtCsdGrGZaRBwMb_3syn10punctuatedINtB5_4PairRNtNtB7_3pat3PatRNtNtB7_5token2OrE5valueCs4L8YLU89NU9_12synstructure, symObjAddr: 0x3BA0, symBinAddr: 0x36050, symSize: 0x60 }
  - { offset: 0xA0004, size: 0x8, addend: 0x0, symName: __RNvMsJ_NtCsdGrGZaRBwMb_3syn10punctuatedINtB5_4PairRNtNtB7_3pat3PatRNtNtB7_5token5CommaE5valueCs4L8YLU89NU9_12synstructure, symObjAddr: 0x3C00, symBinAddr: 0x360B0, symSize: 0x60 }
  - { offset: 0xA007E, size: 0x8, addend: 0x0, symName: __RNvMsJ_NtCsdGrGZaRBwMb_3syn10punctuatedINtB5_4PairRNtNtB7_3pat8FieldPatRNtNtB7_5token5CommaE5valueCs4L8YLU89NU9_12synstructure, symObjAddr: 0x3C60, symBinAddr: 0x36110, symSize: 0x60 }
  - { offset: 0xA00F8, size: 0x8, addend: 0x0, symName: __RNvMsJ_NtCsdGrGZaRBwMb_3syn10punctuatedINtB5_4PairRNtNtB7_4data5FieldRNtNtB7_5token5CommaE5valueCs4L8YLU89NU9_12synstructure, symObjAddr: 0x3CC0, symBinAddr: 0x36170, symSize: 0x60 }
  - { offset: 0xA0165, size: 0x8, addend: 0x0, symName: __RNvMsJ_NtCsdGrGZaRBwMb_3syn10punctuatedINtB5_4PairRNtNtB7_4data7VariantRNtNtB7_5token5CommaE5valueCs4L8YLU89NU9_12synstructure, symObjAddr: 0x3D20, symBinAddr: 0x361D0, symSize: 0x60 }
  - { offset: 0xA01DF, size: 0x8, addend: 0x0, symName: __RNvMsJ_NtCsdGrGZaRBwMb_3syn10punctuatedINtB5_4PairRNtNtB7_4expr10FieldValueRNtNtB7_5token5CommaE5valueCs4L8YLU89NU9_12synstructure, symObjAddr: 0x3D80, symBinAddr: 0x36230, symSize: 0x60 }
  - { offset: 0xA0259, size: 0x8, addend: 0x0, symName: __RNvMsJ_NtCsdGrGZaRBwMb_3syn10punctuatedINtB5_4PairRNtNtB7_4expr4ExprRNtNtB7_5token5CommaE5valueCs4L8YLU89NU9_12synstructure, symObjAddr: 0x3DE0, symBinAddr: 0x36290, symSize: 0x60 }
  - { offset: 0xA02D3, size: 0x8, addend: 0x0, symName: __RNvMsJ_NtCsdGrGZaRBwMb_3syn10punctuatedINtB5_4PairRNtNtB7_4item5FnArgRNtNtB7_5token5CommaE5valueCs4L8YLU89NU9_12synstructure, symObjAddr: 0x3E40, symBinAddr: 0x362F0, symSize: 0x60 }
  - { offset: 0xA034D, size: 0x8, addend: 0x0, symName: __RNvMsJ_NtCsdGrGZaRBwMb_3syn10punctuatedINtB5_4PairRNtNtB7_4item7UseTreeRNtNtB7_5token5CommaE5valueCs4L8YLU89NU9_12synstructure, symObjAddr: 0x3EA0, symBinAddr: 0x36350, symSize: 0x60 }
  - { offset: 0xA03D4, size: 0x8, addend: 0x0, symName: __RNvMsJ_NtCsdGrGZaRBwMb_3syn10punctuatedINtB5_4PairRNtNtB7_8generics14TypeParamBoundRNtNtB7_5token4PlusE5valueCs4L8YLU89NU9_12synstructure, symObjAddr: 0x3F00, symBinAddr: 0x363B0, symSize: 0x60 }
  - { offset: 0xA0441, size: 0x8, addend: 0x0, symName: __RNvMsJ_NtCsdGrGZaRBwMb_3syn10punctuatedINtB5_4PairRNtNtB7_8generics14WherePredicateRNtNtB7_5token5CommaE5valueCs4L8YLU89NU9_12synstructure, symObjAddr: 0x3F60, symBinAddr: 0x36410, symSize: 0x60 }
  - { offset: 0xA04BB, size: 0x8, addend: 0x0, symName: __RNvMsJ_NtCsdGrGZaRBwMb_3syn10punctuatedINtB5_4PairRNtNtB7_8lifetime8LifetimeRNtNtB7_5token4PlusE5valueCs4L8YLU89NU9_12synstructure, symObjAddr: 0x3FC0, symBinAddr: 0x36470, symSize: 0x60 }
  - { offset: 0xA052F, size: 0x8, addend: 0x0, symName: __RNvXs3_NtCs9OU1sGv5X54_5quote9to_tokensINtNtCsieiGu2EXtoJ_4core6option6OptionRNtNtCsdGrGZaRBwMb_3syn8generics11WhereClauseENtB5_8ToTokens9to_tokensCs4L8YLU89NU9_12synstructure, symObjAddr: 0x4140, symBinAddr: 0x365F0, symSize: 0x60 }
  - { offset: 0xA12E1, size: 0x8, addend: 0x0, symName: __RINvMs2_NtNtCsHUR1vrdMJt_3std6thread5localINtB6_8LocalKeyINtNtCsieiGu2EXtoJ_4core4cell4CellTyyEEE4withNCNvMNtNtBa_4hash6randomNtB1H_11RandomState3new0B20_ECs4L8YLU89NU9_12synstructure, symObjAddr: 0x0, symBinAddr: 0x37730, symSize: 0x50 }
  - { offset: 0xA1888, size: 0x8, addend: 0x0, symName: __RNvXsA_NtCsaKzlTDPUHDb_11proc_macro28fallbackNtB5_5IdentNtNtCsieiGu2EXtoJ_4core5clone5Clone5cloneCs4L8YLU89NU9_12synstructure, symObjAddr: 0x2780, symBinAddr: 0x39800, symSize: 0x90 }
  - { offset: 0xA18BC, size: 0x8, addend: 0x0, symName: __RNvXss_NtCsaKzlTDPUHDb_11proc_macro28fallbackNtB5_11TokenStreamNtNtCsieiGu2EXtoJ_4core5clone5Clone5cloneCs4L8YLU89NU9_12synstructure, symObjAddr: 0x2E30, symBinAddr: 0x39BA0, symSize: 0x20 }
  - { offset: 0xA18EE, size: 0x8, addend: 0x0, symName: __RNvXsu_NtCsaKzlTDPUHDb_11proc_macro28fallbackNtB5_4SpanNtNtCsieiGu2EXtoJ_4core5clone5Clone5cloneCs4L8YLU89NU9_12synstructure, symObjAddr: 0x2E70, symBinAddr: 0x39BE0, symSize: 0x10 }
  - { offset: 0xA57D8, size: 0x8, addend: 0x0, symName: __RINvXsl_NtNtCsieiGu2EXtoJ_4core4hash5implsTNtNtCsdGrGZaRBwMb_3syn5token2AsNtCsaKzlTDPUHDb_11proc_macro25IdentENtB8_4Hash4hashNtNtNtCsHUR1vrdMJt_3std4hash6random13DefaultHasherECs4L8YLU89NU9_12synstructure, symObjAddr: 0x1170, symBinAddr: 0x38680, symSize: 0x40 }
  - { offset: 0xA585A, size: 0x8, addend: 0x0, symName: __RINvXsl_NtNtCsieiGu2EXtoJ_4core4hash5implsTNtNtCsdGrGZaRBwMb_3syn5token2AtINtNtCslJiobkLta79_5alloc5boxed3BoxNtNtBJ_3pat3PatEENtB8_4Hash4hashNtNtNtCsHUR1vrdMJt_3std4hash6random13DefaultHasherECs4L8YLU89NU9_12synstructure, symObjAddr: 0x11B0, symBinAddr: 0x386C0, symSize: 0x40 }
  - { offset: 0xA58DC, size: 0x8, addend: 0x0, symName: __RINvXsl_NtNtCsieiGu2EXtoJ_4core4hash5implsTNtNtCsdGrGZaRBwMb_3syn5token2EqNtNtBJ_2ty4TypeENtB8_4Hash4hashNtNtNtCsHUR1vrdMJt_3std4hash6random13DefaultHasherECs4L8YLU89NU9_12synstructure, symObjAddr: 0x11F0, symBinAddr: 0x38700, symSize: 0x40 }
  - { offset: 0xA595E, size: 0x8, addend: 0x0, symName: __RINvXsl_NtNtCsieiGu2EXtoJ_4core4hash5implsTNtNtCsdGrGZaRBwMb_3syn5token2EqNtNtBJ_4expr4ExprENtB8_4Hash4hashNtNtNtCsHUR1vrdMJt_3std4hash6random13DefaultHasherECs4L8YLU89NU9_12synstructure, symObjAddr: 0x1230, symBinAddr: 0x38740, symSize: 0x40 }
  - { offset: 0xA59E0, size: 0x8, addend: 0x0, symName: __RINvXsl_NtNtCsieiGu2EXtoJ_4core4hash5implsTNtNtCsdGrGZaRBwMb_3syn5token2IfINtNtCslJiobkLta79_5alloc5boxed3BoxNtNtBJ_4expr4ExprEENtB8_4Hash4hashNtNtNtCsHUR1vrdMJt_3std4hash6random13DefaultHasherECs4L8YLU89NU9_12synstructure, symObjAddr: 0x1270, symBinAddr: 0x38780, symSize: 0x40 }
  - { offset: 0xA5A62, size: 0x8, addend: 0x0, symName: __RINvXsl_NtNtCsieiGu2EXtoJ_4core4hash5implsTNtNtCsdGrGZaRBwMb_3syn5token3AndINtNtBa_6option6OptionNtNtBJ_8lifetime8LifetimeEENtB8_4Hash4hashNtNtNtCsHUR1vrdMJt_3std4hash6random13DefaultHasherECs4L8YLU89NU9_12synstructure, symObjAddr: 0x12B0, symBinAddr: 0x387C0, symSize: 0x40 }
  - { offset: 0xA5AE4, size: 0x8, addend: 0x0, symName: __RINvXsl_NtNtCsieiGu2EXtoJ_4core4hash5implsTNtNtCsdGrGZaRBwMb_3syn5token4ElseINtNtCslJiobkLta79_5alloc5boxed3BoxNtNtBJ_4expr4ExprEENtB8_4Hash4hashNtNtNtCsHUR1vrdMJt_3std4hash6random13DefaultHasherECs4L8YLU89NU9_12synstructure, symObjAddr: 0x12F0, symBinAddr: 0x38800, symSize: 0x40 }
  - { offset: 0xA5B66, size: 0x8, addend: 0x0, symName: __RINvXsl_NtNtCsieiGu2EXtoJ_4core4hash5implsTNtNtCsdGrGZaRBwMb_3syn5token5BraceINtNtCslJiobkLta79_5alloc3vec3VecNtNtBJ_4item4ItemEENtB8_4Hash4hashNtNtNtCsHUR1vrdMJt_3std4hash6random13DefaultHasherECs4L8YLU89NU9_12synstructure, symObjAddr: 0x1330, symBinAddr: 0x38840, symSize: 0x40 }
  - { offset: 0xA5BE8, size: 0x8, addend: 0x0, symName: __RINvXsl_NtNtCsieiGu2EXtoJ_4core4hash5implsTNtNtCsdGrGZaRBwMb_3syn8generics12GenericParamNtNtBJ_5token5CommaENtB8_4Hash4hashNtNtNtCsHUR1vrdMJt_3std4hash6random13DefaultHasherECs4L8YLU89NU9_12synstructure, symObjAddr: 0x1370, symBinAddr: 0x38880, symSize: 0x50 }
  - { offset: 0xA5C6A, size: 0x8, addend: 0x0, symName: __RINvXsl_NtNtCsieiGu2EXtoJ_4core4hash5implsTNtNtCsdGrGZaRBwMb_3syn8generics13CapturedParamNtNtBJ_5token5CommaENtB8_4Hash4hashNtNtNtCsHUR1vrdMJt_3std4hash6random13DefaultHasherECs4L8YLU89NU9_12synstructure, symObjAddr: 0x13C0, symBinAddr: 0x388D0, symSize: 0x40 }
  - { offset: 0xA5CEC, size: 0x8, addend: 0x0, symName: __RINvXsl_NtNtCsieiGu2EXtoJ_4core4hash5implsTNtNtCsdGrGZaRBwMb_3syn8generics14TypeParamBoundNtNtBJ_5token4PlusENtB8_4Hash4hashNtNtNtCsHUR1vrdMJt_3std4hash6random13DefaultHasherECs4L8YLU89NU9_12synstructure, symObjAddr: 0x1400, symBinAddr: 0x38910, symSize: 0x40 }
  - { offset: 0xA5D6E, size: 0x8, addend: 0x0, symName: __RINvXsl_NtNtCsieiGu2EXtoJ_4core4hash5implsTNtNtCsdGrGZaRBwMb_3syn8generics14WherePredicateNtNtBJ_5token5CommaENtB8_4Hash4hashNtNtNtCsHUR1vrdMJt_3std4hash6random13DefaultHasherECs4L8YLU89NU9_12synstructure, symObjAddr: 0x1440, symBinAddr: 0x38950, symSize: 0x50 }
  - { offset: 0xA5DF0, size: 0x8, addend: 0x0, symName: __RINvXsl_NtNtCsieiGu2EXtoJ_4core4hash5implsThNtNtCslJiobkLta79_5alloc6string6StringENtB8_4Hash4hashNtNtNtCsHUR1vrdMJt_3std4hash6random13DefaultHasherECs4L8YLU89NU9_12synstructure, symObjAddr: 0x1490, symBinAddr: 0x389A0, symSize: 0x40 }
  - { offset: 0xA5F70, size: 0x8, addend: 0x0, symName: __RINvYNtNtCsdGrGZaRBwMb_3syn4stmt4StmtNtNtCsieiGu2EXtoJ_4core4hash4Hash10hash_sliceNtNtNtCsHUR1vrdMJt_3std4hash6random13DefaultHasherECs4L8YLU89NU9_12synstructure, symObjAddr: 0x1660, symBinAddr: 0x38B70, symSize: 0xA0 }
  - { offset: 0xA60F8, size: 0x8, addend: 0x0, symName: __RINvYTNtNtCsdGrGZaRBwMb_3syn8generics12GenericParamNtNtB8_5token5CommaENtNtCsieiGu2EXtoJ_4core4hash4Hash10hash_sliceNtNtNtCsHUR1vrdMJt_3std4hash6random13DefaultHasherECs4L8YLU89NU9_12synstructure, symObjAddr: 0x1700, symBinAddr: 0x38C10, symSize: 0xA0 }
  - { offset: 0xA6280, size: 0x8, addend: 0x0, symName: __RINvYTNtNtCsdGrGZaRBwMb_3syn8generics13CapturedParamNtNtB8_5token5CommaENtNtCsieiGu2EXtoJ_4core4hash4Hash10hash_sliceNtNtNtCsHUR1vrdMJt_3std4hash6random13DefaultHasherECs4L8YLU89NU9_12synstructure, symObjAddr: 0x17A0, symBinAddr: 0x38CB0, symSize: 0x90 }
  - { offset: 0xA6408, size: 0x8, addend: 0x0, symName: __RINvYTNtNtCsdGrGZaRBwMb_3syn8generics14TypeParamBoundNtNtB8_5token4PlusENtNtCsieiGu2EXtoJ_4core4hash4Hash10hash_sliceNtNtNtCsHUR1vrdMJt_3std4hash6random13DefaultHasherECs4L8YLU89NU9_12synstructure, symObjAddr: 0x1830, symBinAddr: 0x38D40, symSize: 0x90 }
  - { offset: 0xA6590, size: 0x8, addend: 0x0, symName: __RINvYTNtNtCsdGrGZaRBwMb_3syn8generics14WherePredicateNtNtB8_5token5CommaENtNtCsieiGu2EXtoJ_4core4hash4Hash10hash_sliceNtNtNtCsHUR1vrdMJt_3std4hash6random13DefaultHasherECs4L8YLU89NU9_12synstructure, symObjAddr: 0x18C0, symBinAddr: 0x38DD0, symSize: 0xA0 }
  - { offset: 0xA6AEC, size: 0x8, addend: 0x0, symName: __RNvMNtCsieiGu2EXtoJ_4core5sliceSNtNtCsdGrGZaRBwMb_3syn8generics14WherePredicate4iterCs4L8YLU89NU9_12synstructure, symObjAddr: 0x1980, symBinAddr: 0x38E70, symSize: 0x20 }
  - { offset: 0xA6D68, size: 0x8, addend: 0x0, symName: __RINvYINtNtNtNtCsieiGu2EXtoJ_4core4iter8adapters3map3MapINtNtB8_9enumerate9EnumerateINtNtCsdGrGZaRBwMb_3syn10punctuated4IterNtNtB1o_4data5FieldEENCNvMs1_Cs4L8YLU89NU9_12synstructureNtB2q_11VariantInfo3new0ENtNtNtBa_6traits8iterator8Iterator7collectINtNtCslJiobkLta79_5alloc3vec3VecNtB2q_11BindingInfoEEB2q_, symObjAddr: 0x1550, symBinAddr: 0x38A60, symSize: 0x70 }
  - { offset: 0xA6DFE, size: 0x8, addend: 0x0, symName: __RINvYINtNtNtNtCsieiGu2EXtoJ_4core4iter8adapters3map3MapINtNtCsdGrGZaRBwMb_3syn10punctuated4IterNtNtBW_4data7VariantENCNvMs2_Cs4L8YLU89NU9_12synstructureNtB1Y_9Structure7try_new0ENtNtNtBa_6traits8iterator8Iterator7collectINtNtCslJiobkLta79_5alloc3vec3VecNtB1Y_11VariantInfoEEB1Y_, symObjAddr: 0x15C0, symBinAddr: 0x38AD0, symSize: 0x70 }
  - { offset: 0xA6E94, size: 0x8, addend: 0x0, symName: __RINvYINtNtNtNtCsieiGu2EXtoJ_4core4iter8adapters9enumerate9EnumerateINtNtCsdGrGZaRBwMb_3syn10punctuated4IterNtNtB18_4data5FieldEENtNtNtBa_6traits8iterator8Iterator3mapNtCs4L8YLU89NU9_12synstructure11BindingInfoNCNvMs1_B2G_NtB2G_11VariantInfo3new0EB2G_, symObjAddr: 0x1630, symBinAddr: 0x38B40, symSize: 0x30 }
  - { offset: 0xA6F0D, size: 0x8, addend: 0x0, symName: __RNvXNtNtNtCsieiGu2EXtoJ_4core4iter6traits7collectINtNtNtB6_8adapters3map3MapINtNtBQ_9enumerate9EnumerateINtNtCsdGrGZaRBwMb_3syn10punctuated4IterNtNtB1J_4data5FieldEENCNvMs1_Cs4L8YLU89NU9_12synstructureNtB2L_11VariantInfo3new0ENtB2_12IntoIterator9into_iterB2L_, symObjAddr: 0x2250, symBinAddr: 0x39410, symSize: 0x30 }
  - { offset: 0xA6F44, size: 0x8, addend: 0x0, symName: __RNvXNtNtNtCsieiGu2EXtoJ_4core4iter6traits7collectINtNtNtB6_8adapters3map3MapINtNtCsdGrGZaRBwMb_3syn10punctuated4IterNtNtB1h_4data7VariantENCNvMs2_Cs4L8YLU89NU9_12synstructureNtB2k_9Structure7try_new0ENtB2_12IntoIterator9into_iterB2k_, symObjAddr: 0x2280, symBinAddr: 0x39440, symSize: 0x20 }
  - { offset: 0xA6F7B, size: 0x8, addend: 0x0, symName: __RNvXNtNtNtCsieiGu2EXtoJ_4core4iter6traits7collectINtNtNtB6_8adapters9enumerate9EnumerateINtNtCsdGrGZaRBwMb_3syn10punctuated4IterNtNtB1t_8generics12GenericParamEENtB2_12IntoIterator9into_iterCs4L8YLU89NU9_12synstructure, symObjAddr: 0x22A0, symBinAddr: 0x39460, symSize: 0x20 }
  - { offset: 0xA6FE9, size: 0x8, addend: 0x0, symName: __RNvYINtNtNtCslJiobkLta79_5alloc3vec9into_iter8IntoIterRNtCsaKzlTDPUHDb_11proc_macro25IdentENtNtNtNtCsieiGu2EXtoJ_4core4iter6traits10exact_size17ExactSizeIterator3lenCs4L8YLU89NU9_12synstructure, symObjAddr: 0x2E80, symBinAddr: 0x39BF0, symSize: 0xE0 }
  - { offset: 0xA715A, size: 0x8, addend: 0x0, symName: __RNvXs0_NtNtNtCsieiGu2EXtoJ_4core4iter8adapters3mapINtB5_3MapINtNtB7_9enumerate9EnumerateINtNtCsdGrGZaRBwMb_3syn10punctuated4IterNtNtB1t_4data5FieldEENCNvMs1_Cs4L8YLU89NU9_12synstructureNtB2v_11VariantInfo3new0ENtNtNtB9_6traits8iterator8Iterator4nextB2v_, symObjAddr: 0x2350, symBinAddr: 0x394F0, symSize: 0xE0 }
  - { offset: 0xA7207, size: 0x8, addend: 0x0, symName: __RNvXs0_NtNtNtCsieiGu2EXtoJ_4core4iter8adapters3mapINtB5_3MapINtNtB7_9enumerate9EnumerateINtNtCsdGrGZaRBwMb_3syn10punctuated4IterNtNtB1t_4data5FieldEENCNvMs1_Cs4L8YLU89NU9_12synstructureNtB2v_11VariantInfo3new0ENtNtNtB9_6traits8iterator8Iterator9size_hintB2v_, symObjAddr: 0x2430, symBinAddr: 0x395D0, symSize: 0x30 }
  - { offset: 0xA724E, size: 0x8, addend: 0x0, symName: __RNvXs0_NtNtNtCsieiGu2EXtoJ_4core4iter8adapters3mapINtB5_3MapINtNtCsdGrGZaRBwMb_3syn10punctuated4IterNtNtB11_4data7VariantENCNvMs2_Cs4L8YLU89NU9_12synstructureNtB24_9Structure7try_new0ENtNtNtB9_6traits8iterator8Iterator4nextB24_, symObjAddr: 0x2460, symBinAddr: 0x39600, symSize: 0xC0 }
  - { offset: 0xA72FB, size: 0x8, addend: 0x0, symName: __RNvXs0_NtNtNtCsieiGu2EXtoJ_4core4iter8adapters3mapINtB5_3MapINtNtCsdGrGZaRBwMb_3syn10punctuated4IterNtNtB11_4data7VariantENCNvMs2_Cs4L8YLU89NU9_12synstructureNtB24_9Structure7try_new0ENtNtNtB9_6traits8iterator8Iterator9size_hintB24_, symObjAddr: 0x2520, symBinAddr: 0x396C0, symSize: 0x30 }
  - { offset: 0xA73AB, size: 0x8, addend: 0x0, symName: __RNvXs_NtNtNtCsieiGu2EXtoJ_4core4iter8adapters9enumerateINtB4_9EnumerateINtNtCsdGrGZaRBwMb_3syn10punctuated4IterNtNtB1c_4data5FieldEENtNtNtB8_6traits8iterator8Iterator4nextCs4L8YLU89NU9_12synstructure, symObjAddr: 0x2AE0, symBinAddr: 0x39930, symSize: 0xE0 }
  - { offset: 0xA7491, size: 0x8, addend: 0x0, symName: __RNvXs_NtNtNtCsieiGu2EXtoJ_4core4iter8adapters9enumerateINtB4_9EnumerateINtNtCsdGrGZaRBwMb_3syn10punctuated4IterNtNtB1c_4data5FieldEENtNtNtB8_6traits8iterator8Iterator9size_hintCs4L8YLU89NU9_12synstructure, symObjAddr: 0x2BC0, symBinAddr: 0x39A10, symSize: 0x30 }
  - { offset: 0xA74C6, size: 0x8, addend: 0x0, symName: __RNvXs_NtNtNtCsieiGu2EXtoJ_4core4iter8adapters9enumerateINtB4_9EnumerateINtNtCsdGrGZaRBwMb_3syn10punctuated4IterNtNtB1c_8generics12GenericParamEENtNtNtB8_6traits8iterator8Iterator4nextCs4L8YLU89NU9_12synstructure, symObjAddr: 0x2BF0, symBinAddr: 0x39A40, symSize: 0xE0 }
  - { offset: 0xA78F1, size: 0x8, addend: 0x0, symName: __RINvMs2_NtNtCsHUR1vrdMJt_3std6thread5localINtB6_8LocalKeyINtNtCsieiGu2EXtoJ_4core4cell4CellTyyEEE4withNCNvMNtNtBa_4hash6randomNtB1H_11RandomState3new0B20_ECs4L8YLU89NU9_12synstructure, symObjAddr: 0x0, symBinAddr: 0x37730, symSize: 0x50 }
  - { offset: 0xA79AA, size: 0x8, addend: 0x0, symName: __RINvMs2_NtNtCsHUR1vrdMJt_3std6thread5localINtB6_8LocalKeyINtNtCsieiGu2EXtoJ_4core4cell4CellTyyEEE8try_withNCNvMNtNtBa_4hash6randomNtB1L_11RandomState3new0B24_ECs4L8YLU89NU9_12synstructure, symObjAddr: 0x50, symBinAddr: 0x37780, symSize: 0xF0 }
  - { offset: 0xA827D, size: 0x8, addend: 0x0, symName: __RINvXs13_NtCsdGrGZaRBwMb_3syn5tokenNtB7_5AsyncNtNtCsieiGu2EXtoJ_4core4hash4Hash4hashNtNtNtCsHUR1vrdMJt_3std4hash6random13DefaultHasherECs4L8YLU89NU9_12synstructure, symObjAddr: 0x360, symBinAddr: 0x37870, symSize: 0x20 }
  - { offset: 0xA82C5, size: 0x8, addend: 0x0, symName: __RINvXs1e_NtCsdGrGZaRBwMb_3syn5tokenNtB7_4AutoNtNtCsieiGu2EXtoJ_4core4hash4Hash4hashNtNtNtCsHUR1vrdMJt_3std4hash6random13DefaultHasherECs4L8YLU89NU9_12synstructure, symObjAddr: 0x6A0, symBinAddr: 0x37BB0, symSize: 0x20 }
  - { offset: 0xA830D, size: 0x8, addend: 0x0, symName: __RINvXs27_NtCsdGrGZaRBwMb_3syn5tokenNtB7_5ConstNtNtCsieiGu2EXtoJ_4core4hash4Hash4hashNtNtNtCsHUR1vrdMJt_3std4hash6random13DefaultHasherECs4L8YLU89NU9_12synstructure, symObjAddr: 0x790, symBinAddr: 0x37CA0, symSize: 0x20 }
  - { offset: 0xA8355, size: 0x8, addend: 0x0, symName: __RINvXs2E_NtCsdGrGZaRBwMb_3syn5tokenNtB7_7DefaultNtNtCsieiGu2EXtoJ_4core4hash4Hash4hashNtNtNtCsHUR1vrdMJt_3std4hash6random13DefaultHasherECs4L8YLU89NU9_12synstructure, symObjAddr: 0x7B0, symBinAddr: 0x37CC0, symSize: 0x20 }
  - { offset: 0xA839D, size: 0x8, addend: 0x0, symName: __RINvXs30_NtCsdGrGZaRBwMb_3syn5tokenNtB7_3DynNtNtCsieiGu2EXtoJ_4core4hash4Hash4hashNtNtNtCsHUR1vrdMJt_3std4hash6random13DefaultHasherECs4L8YLU89NU9_12synstructure, symObjAddr: 0xCC0, symBinAddr: 0x381D0, symSize: 0x20 }
  - { offset: 0xA83E5, size: 0x8, addend: 0x0, symName: __RINvXs3b_NtCsdGrGZaRBwMb_3syn5tokenNtB7_4ElseNtNtCsieiGu2EXtoJ_4core4hash4Hash4hashNtNtNtCsHUR1vrdMJt_3std4hash6random13DefaultHasherECs4L8YLU89NU9_12synstructure, symObjAddr: 0xCE0, symBinAddr: 0x381F0, symSize: 0x20 }
  - { offset: 0xA842D, size: 0x8, addend: 0x0, symName: __RINvXs44_NtCsdGrGZaRBwMb_3syn5tokenNtB7_3ForNtNtCsieiGu2EXtoJ_4core4hash4Hash4hashNtNtNtCsHUR1vrdMJt_3std4hash6random13DefaultHasherECs4L8YLU89NU9_12synstructure, symObjAddr: 0xD00, symBinAddr: 0x38210, symSize: 0x20 }
  - { offset: 0xA8475, size: 0x8, addend: 0x0, symName: __RINvXs4B_NtCsdGrGZaRBwMb_3syn5tokenNtB7_2InNtNtCsieiGu2EXtoJ_4core4hash4Hash4hashNtNtNtCsHUR1vrdMJt_3std4hash6random13DefaultHasherECs4L8YLU89NU9_12synstructure, symObjAddr: 0xD20, symBinAddr: 0x38230, symSize: 0x20 }
  - { offset: 0xA84BD, size: 0x8, addend: 0x0, symName: __RINvXs4f_NtCsdGrGZaRBwMb_3syn5tokenNtB7_2IfNtNtCsieiGu2EXtoJ_4core4hash4Hash4hashNtNtNtCsHUR1vrdMJt_3std4hash6random13DefaultHasherECs4L8YLU89NU9_12synstructure, symObjAddr: 0xD40, symBinAddr: 0x38250, symSize: 0x20 }
  - { offset: 0xA8505, size: 0x8, addend: 0x0, symName: __RINvXs5F_NtCsdGrGZaRBwMb_3syn5tokenNtB7_4MoveNtNtCsieiGu2EXtoJ_4core4hash4Hash4hashNtNtNtCsHUR1vrdMJt_3std4hash6random13DefaultHasherECs4L8YLU89NU9_12synstructure, symObjAddr: 0xD60, symBinAddr: 0x38270, symSize: 0x20 }
  - { offset: 0xA854D, size: 0x8, addend: 0x0, symName: __RINvXs5Q_NtCsdGrGZaRBwMb_3syn5tokenNtB7_3MutNtNtCsieiGu2EXtoJ_4core4hash4Hash4hashNtNtNtCsHUR1vrdMJt_3std4hash6random13DefaultHasherECs4L8YLU89NU9_12synstructure, symObjAddr: 0xD80, symBinAddr: 0x38290, symSize: 0x20 }
  - { offset: 0xA8595, size: 0x8, addend: 0x0, symName: __RINvXs6J_NtCsdGrGZaRBwMb_3syn5tokenNtB7_3RefNtNtCsieiGu2EXtoJ_4core4hash4Hash4hashNtNtNtCsHUR1vrdMJt_3std4hash6random13DefaultHasherECs4L8YLU89NU9_12synstructure, symObjAddr: 0xDA0, symBinAddr: 0x382B0, symSize: 0x20 }
  - { offset: 0xA85DD, size: 0x8, addend: 0x0, symName: __RINvXs7r_NtCsdGrGZaRBwMb_3syn5tokenNtB7_6StaticNtNtCsieiGu2EXtoJ_4core4hash4Hash4hashNtNtNtCsHUR1vrdMJt_3std4hash6random13DefaultHasherECs4L8YLU89NU9_12synstructure, symObjAddr: 0xDC0, symBinAddr: 0x382D0, symSize: 0x20 }
  - { offset: 0xA8625, size: 0x8, addend: 0x0, symName: __RINvXs8R_NtCsdGrGZaRBwMb_3syn5tokenNtB7_6UnsafeNtNtCsieiGu2EXtoJ_4core4hash4Hash4hashNtNtNtCsHUR1vrdMJt_3std4hash6random13DefaultHasherECs4L8YLU89NU9_12synstructure, symObjAddr: 0xDE0, symBinAddr: 0x382F0, symSize: 0x20 }
  - { offset: 0xA866D, size: 0x8, addend: 0x0, symName: __RINvXsS_NtCsdGrGZaRBwMb_3syn5tokenNtB6_2AsNtNtCsieiGu2EXtoJ_4core4hash4Hash4hashNtNtNtCsHUR1vrdMJt_3std4hash6random13DefaultHasherECs4L8YLU89NU9_12synstructure, symObjAddr: 0xE60, symBinAddr: 0x38370, symSize: 0x20 }
  - { offset: 0xA86B5, size: 0x8, addend: 0x0, symName: __RINvXsd4_NtCsdGrGZaRBwMb_3syn5tokenNtB7_3AndNtNtCsieiGu2EXtoJ_4core4hash4Hash4hashNtNtNtCsHUR1vrdMJt_3std4hash6random13DefaultHasherECs4L8YLU89NU9_12synstructure, symObjAddr: 0xF90, symBinAddr: 0x384A0, symSize: 0x20 }
  - { offset: 0xA86FD, size: 0x8, addend: 0x0, symName: __RINvXsdQ_NtCsdGrGZaRBwMb_3syn5tokenNtB7_5ColonNtNtCsieiGu2EXtoJ_4core4hash4Hash4hashNtNtNtCsHUR1vrdMJt_3std4hash6random13DefaultHasherECs4L8YLU89NU9_12synstructure, symObjAddr: 0xFB0, symBinAddr: 0x384C0, symSize: 0x20 }
  - { offset: 0xA8745, size: 0x8, addend: 0x0, symName: __RINvXsdZ_NtCsdGrGZaRBwMb_3syn5tokenNtB7_5CommaNtNtCsieiGu2EXtoJ_4core4hash4Hash4hashNtNtNtCsHUR1vrdMJt_3std4hash6random13DefaultHasherECs4L8YLU89NU9_12synstructure, symObjAddr: 0xFD0, symBinAddr: 0x384E0, symSize: 0x20 }
  - { offset: 0xA878D, size: 0x8, addend: 0x0, symName: __RINvXsdr_NtCsdGrGZaRBwMb_3syn5tokenNtB7_2AtNtNtCsieiGu2EXtoJ_4core4hash4Hash4hashNtNtNtCsHUR1vrdMJt_3std4hash6random13DefaultHasherECs4L8YLU89NU9_12synstructure, symObjAddr: 0xFF0, symBinAddr: 0x38500, symSize: 0x20 }
  - { offset: 0xA87D5, size: 0x8, addend: 0x0, symName: __RINvXseL_NtCsdGrGZaRBwMb_3syn5tokenNtB7_2EqNtNtCsieiGu2EXtoJ_4core4hash4Hash4hashNtNtNtCsHUR1vrdMJt_3std4hash6random13DefaultHasherECs4L8YLU89NU9_12synstructure, symObjAddr: 0x1010, symBinAddr: 0x38520, symSize: 0x20 }
  - { offset: 0xA881D, size: 0x8, addend: 0x0, symName: __RINvXseq_NtCsdGrGZaRBwMb_3syn5tokenNtB7_6DotDotNtNtCsieiGu2EXtoJ_4core4hash4Hash4hashNtNtNtCsHUR1vrdMJt_3std4hash6random13DefaultHasherECs4L8YLU89NU9_12synstructure, symObjAddr: 0x1030, symBinAddr: 0x38540, symSize: 0x20 }
  - { offset: 0xA8865, size: 0x8, addend: 0x0, symName: __RINvXsfC_NtCsdGrGZaRBwMb_3syn5tokenNtB7_2LtNtNtCsieiGu2EXtoJ_4core4hash4Hash4hashNtNtNtCsHUR1vrdMJt_3std4hash6random13DefaultHasherECs4L8YLU89NU9_12synstructure, symObjAddr: 0x1050, symBinAddr: 0x38560, symSize: 0x20 }
  - { offset: 0xA88AD, size: 0x8, addend: 0x0, symName: __RINvXsff_NtCsdGrGZaRBwMb_3syn5tokenNtB7_2GtNtNtCsieiGu2EXtoJ_4core4hash4Hash4hashNtNtNtCsHUR1vrdMJt_3std4hash6random13DefaultHasherECs4L8YLU89NU9_12synstructure, symObjAddr: 0x1070, symBinAddr: 0x38580, symSize: 0x20 }
  - { offset: 0xA88F5, size: 0x8, addend: 0x0, symName: __RINvXsg8_NtCsdGrGZaRBwMb_3syn5tokenNtB7_3NotNtNtCsieiGu2EXtoJ_4core4hash4Hash4hashNtNtNtCsHUR1vrdMJt_3std4hash6random13DefaultHasherECs4L8YLU89NU9_12synstructure, symObjAddr: 0x1090, symBinAddr: 0x385A0, symSize: 0x20 }
  - { offset: 0xA893D, size: 0x8, addend: 0x0, symName: __RINvXsgE_NtCsdGrGZaRBwMb_3syn5tokenNtB7_7PathSepNtNtCsieiGu2EXtoJ_4core4hash4Hash4hashNtNtNtCsHUR1vrdMJt_3std4hash6random13DefaultHasherECs4L8YLU89NU9_12synstructure, symObjAddr: 0x10B0, symBinAddr: 0x385C0, symSize: 0x20 }
  - { offset: 0xA8985, size: 0x8, addend: 0x0, symName: __RINvXsgh_NtCsdGrGZaRBwMb_3syn5tokenNtB7_2OrNtNtCsieiGu2EXtoJ_4core4hash4Hash4hashNtNtNtCsHUR1vrdMJt_3std4hash6random13DefaultHasherECs4L8YLU89NU9_12synstructure, symObjAddr: 0x10D0, symBinAddr: 0x385E0, symSize: 0x20 }
  - { offset: 0xA89CD, size: 0x8, addend: 0x0, symName: __RINvXsh1_NtCsdGrGZaRBwMb_3syn5tokenNtB7_4PlusNtNtCsieiGu2EXtoJ_4core4hash4Hash4hashNtNtNtCsHUR1vrdMJt_3std4hash6random13DefaultHasherECs4L8YLU89NU9_12synstructure, symObjAddr: 0x10F0, symBinAddr: 0x38600, symSize: 0x20 }
  - { offset: 0xA8A15, size: 0x8, addend: 0x0, symName: __RINvXshG_NtCsdGrGZaRBwMb_3syn5tokenNtB7_4SemiNtNtCsieiGu2EXtoJ_4core4hash4Hash4hashNtNtNtCsHUR1vrdMJt_3std4hash6random13DefaultHasherECs4L8YLU89NU9_12synstructure, symObjAddr: 0x1110, symBinAddr: 0x38620, symSize: 0x20 }
  - { offset: 0xA8A5D, size: 0x8, addend: 0x0, symName: __RINvXsiW_NtCsdGrGZaRBwMb_3syn5tokenNtB7_5BraceNtNtCsieiGu2EXtoJ_4core4hash4Hash4hashNtNtNtCsHUR1vrdMJt_3std4hash6random13DefaultHasherECs4L8YLU89NU9_12synstructure, symObjAddr: 0x1130, symBinAddr: 0x38640, symSize: 0x20 }
  - { offset: 0xA8AA5, size: 0x8, addend: 0x0, symName: __RINvXsje_NtCsdGrGZaRBwMb_3syn5tokenNtB7_5ParenNtNtCsieiGu2EXtoJ_4core4hash4Hash4hashNtNtNtCsHUR1vrdMJt_3std4hash6random13DefaultHasherECs4L8YLU89NU9_12synstructure, symObjAddr: 0x1150, symBinAddr: 0x38660, symSize: 0x20 }
  - { offset: 0xAD02D, size: 0x8, addend: 0x0, symName: __RINvXs1A_NtNtCsdGrGZaRBwMb_3syn3gen4hashNtNtBb_8generics13LifetimeParamNtNtCsieiGu2EXtoJ_4core4hash4Hash4hashNtNtNtCsHUR1vrdMJt_3std4hash6random13DefaultHasherECs4L8YLU89NU9_12synstructure, symObjAddr: 0x380, symBinAddr: 0x37890, symSize: 0x60 }
  - { offset: 0xAD075, size: 0x8, addend: 0x0, symName: __RINvXs1D_NtNtCsdGrGZaRBwMb_3syn3gen4hashNtNtBb_4stmt5LocalNtNtCsieiGu2EXtoJ_4core4hash4Hash4hashNtNtNtCsHUR1vrdMJt_3std4hash6random13DefaultHasherECs4L8YLU89NU9_12synstructure, symObjAddr: 0x3E0, symBinAddr: 0x378F0, symSize: 0x50 }
  - { offset: 0xAD0BD, size: 0x8, addend: 0x0, symName: __RINvXs1E_NtNtCsdGrGZaRBwMb_3syn3gen4hashNtNtBb_4stmt9LocalInitNtNtCsieiGu2EXtoJ_4core4hash4Hash4hashNtNtNtCsHUR1vrdMJt_3std4hash6random13DefaultHasherECs4L8YLU89NU9_12synstructure, symObjAddr: 0x430, symBinAddr: 0x37940, symSize: 0x40 }
  - { offset: 0xAD105, size: 0x8, addend: 0x0, symName: __RINvXs1F_NtNtCsdGrGZaRBwMb_3syn3gen4hashNtNtBb_3mac5MacroNtNtCsieiGu2EXtoJ_4core4hash4Hash4hashNtNtNtCsHUR1vrdMJt_3std4hash6random13DefaultHasherECs4L8YLU89NU9_12synstructure, symObjAddr: 0x470, symBinAddr: 0x37980, symSize: 0x60 }
  - { offset: 0xAD14D, size: 0x8, addend: 0x0, symName: __RINvXs1G_NtNtCsdGrGZaRBwMb_3syn3gen4hashNtNtBb_3mac14MacroDelimiterNtNtCsieiGu2EXtoJ_4core4hash4Hash4hashNtNtNtCsHUR1vrdMJt_3std4hash6random13DefaultHasherECs4L8YLU89NU9_12synstructure, symObjAddr: 0x4D0, symBinAddr: 0x379E0, symSize: 0x80 }
  - { offset: 0xAD195, size: 0x8, addend: 0x0, symName: __RINvXs1b_NtNtCsdGrGZaRBwMb_3syn3gen4hashNtNtBb_8generics12GenericParamNtNtCsieiGu2EXtoJ_4core4hash4Hash4hashNtNtNtCsHUR1vrdMJt_3std4hash6random13DefaultHasherECs4L8YLU89NU9_12synstructure, symObjAddr: 0x550, symBinAddr: 0x37A60, symSize: 0xF0 }
  - { offset: 0xAD22F, size: 0x8, addend: 0x0, symName: __RINvXs1c_NtNtCsdGrGZaRBwMb_3syn3gen4hashNtNtBb_8generics8GenericsNtNtCsieiGu2EXtoJ_4core4hash4Hash4hashNtNtNtCsHUR1vrdMJt_3std4hash6random13DefaultHasherECs4L8YLU89NU9_12synstructure, symObjAddr: 0x640, symBinAddr: 0x37B50, symSize: 0x60 }
  - { offset: 0xAD277, size: 0x8, addend: 0x0, symName: __RINvXs21_NtNtCsdGrGZaRBwMb_3syn3gen4hashNtNtBb_8generics14PreciseCaptureNtNtCsieiGu2EXtoJ_4core4hash4Hash4hashNtNtNtCsHUR1vrdMJt_3std4hash6random13DefaultHasherECs4L8YLU89NU9_12synstructure, symObjAddr: 0x6C0, symBinAddr: 0x37BD0, symSize: 0x30 }
  - { offset: 0xAD2BF, size: 0x8, addend: 0x0, symName: __RINvXs22_NtNtCsdGrGZaRBwMb_3syn3gen4hashNtNtBb_8generics17PredicateLifetimeNtNtCsieiGu2EXtoJ_4core4hash4Hash4hashNtNtNtCsHUR1vrdMJt_3std4hash6random13DefaultHasherECs4L8YLU89NU9_12synstructure, symObjAddr: 0x6F0, symBinAddr: 0x37C00, symSize: 0x40 }
  - { offset: 0xAD307, size: 0x8, addend: 0x0, symName: __RINvXs23_NtNtCsdGrGZaRBwMb_3syn3gen4hashNtNtBb_8generics13PredicateTypeNtNtCsieiGu2EXtoJ_4core4hash4Hash4hashNtNtNtCsHUR1vrdMJt_3std4hash6random13DefaultHasherECs4L8YLU89NU9_12synstructure, symObjAddr: 0x730, symBinAddr: 0x37C40, symSize: 0x60 }
  - { offset: 0xAD34F, size: 0x8, addend: 0x0, symName: __RINvXs2L_NtNtCsdGrGZaRBwMb_3syn3gen4hashNtNtBb_8generics11WhereClauseNtNtCsieiGu2EXtoJ_4core4hash4Hash4hashNtNtNtCsHUR1vrdMJt_3std4hash6random13DefaultHasherECs4L8YLU89NU9_12synstructure, symObjAddr: 0x7D0, symBinAddr: 0x37CE0, symSize: 0x30 }
  - { offset: 0xAD397, size: 0x8, addend: 0x0, symName: __RINvXs2M_NtNtCsdGrGZaRBwMb_3syn3gen4hashNtNtBb_8generics14WherePredicateNtNtCsieiGu2EXtoJ_4core4hash4Hash4hashNtNtNtCsHUR1vrdMJt_3std4hash6random13DefaultHasherECs4L8YLU89NU9_12synstructure, symObjAddr: 0x800, symBinAddr: 0x37D10, symSize: 0xA0 }
  - { offset: 0xAD413, size: 0x8, addend: 0x0, symName: __RINvXs2a_NtNtCsdGrGZaRBwMb_3syn3gen4hashNtNtBb_4stmt4StmtNtNtCsieiGu2EXtoJ_4core4hash4Hash4hashNtNtNtCsHUR1vrdMJt_3std4hash6random13DefaultHasherECs4L8YLU89NU9_12synstructure, symObjAddr: 0x8A0, symBinAddr: 0x37DB0, symSize: 0x150 }
  - { offset: 0xAD4DB, size: 0x8, addend: 0x0, symName: __RINvXs2b_NtNtCsdGrGZaRBwMb_3syn3gen4hashNtNtBb_4stmt9StmtMacroNtNtCsieiGu2EXtoJ_4core4hash4Hash4hashNtNtNtCsHUR1vrdMJt_3std4hash6random13DefaultHasherECs4L8YLU89NU9_12synstructure, symObjAddr: 0x9F0, symBinAddr: 0x37F00, symSize: 0x50 }
  - { offset: 0xAD523, size: 0x8, addend: 0x0, symName: __RINvXs2c_NtNtCsdGrGZaRBwMb_3syn3gen4hashNtNtBb_8generics10TraitBoundNtNtCsieiGu2EXtoJ_4core4hash4Hash4hashNtNtNtCsHUR1vrdMJt_3std4hash6random13DefaultHasherECs4L8YLU89NU9_12synstructure, symObjAddr: 0xA40, symBinAddr: 0x37F50, symSize: 0x60 }
  - { offset: 0xAD56B, size: 0x8, addend: 0x0, symName: __RINvXs2d_NtNtCsdGrGZaRBwMb_3syn3gen4hashNtNtBb_8generics18TraitBoundModifierNtNtCsieiGu2EXtoJ_4core4hash4Hash4hashNtNtNtCsHUR1vrdMJt_3std4hash6random13DefaultHasherECs4L8YLU89NU9_12synstructure, symObjAddr: 0xAA0, symBinAddr: 0x37FB0, symSize: 0x50 }
  - { offset: 0xAD5B3, size: 0x8, addend: 0x0, symName: __RINvXs2r_NtNtCsdGrGZaRBwMb_3syn3gen4hashNtNtBb_8generics9TypeParamNtNtCsieiGu2EXtoJ_4core4hash4Hash4hashNtNtNtCsHUR1vrdMJt_3std4hash6random13DefaultHasherECs4L8YLU89NU9_12synstructure, symObjAddr: 0xAF0, symBinAddr: 0x38000, symSize: 0x90 }
  - { offset: 0xAD5FB, size: 0x8, addend: 0x0, symName: __RINvXs2s_NtNtCsdGrGZaRBwMb_3syn3gen4hashNtNtBb_8generics14TypeParamBoundNtNtCsieiGu2EXtoJ_4core4hash4Hash4hashNtNtNtCsHUR1vrdMJt_3std4hash6random13DefaultHasherECs4L8YLU89NU9_12synstructure, symObjAddr: 0xB80, symBinAddr: 0x38090, symSize: 0x140 }
  - { offset: 0xAD6B3, size: 0x8, addend: 0x0, symName: __RINvXs8_NtNtCsdGrGZaRBwMb_3syn3gen4hashNtNtBa_4stmt5BlockNtNtCsieiGu2EXtoJ_4core4hash4Hash4hashNtNtNtCsHUR1vrdMJt_3std4hash6random13DefaultHasherECs4L8YLU89NU9_12synstructure, symObjAddr: 0xE00, symBinAddr: 0x38310, symSize: 0x30 }
  - { offset: 0xAD6F8, size: 0x8, addend: 0x0, symName: __RINvXs9_NtNtCsdGrGZaRBwMb_3syn3gen4hashNtNtBa_8generics14BoundLifetimesNtNtCsieiGu2EXtoJ_4core4hash4Hash4hashNtNtNtCsHUR1vrdMJt_3std4hash6random13DefaultHasherECs4L8YLU89NU9_12synstructure, symObjAddr: 0xE30, symBinAddr: 0x38340, symSize: 0x30 }
  - { offset: 0xAD73D, size: 0x8, addend: 0x0, symName: __RINvXsa_NtNtCsdGrGZaRBwMb_3syn3gen4hashNtNtBa_8generics13CapturedParamNtNtCsieiGu2EXtoJ_4core4hash4Hash4hashNtNtNtCsHUR1vrdMJt_3std4hash6random13DefaultHasherECs4L8YLU89NU9_12synstructure, symObjAddr: 0xE80, symBinAddr: 0x38390, symSize: 0x90 }
  - { offset: 0xAD7B4, size: 0x8, addend: 0x0, symName: __RINvXsb_NtNtCsdGrGZaRBwMb_3syn3gen4hashNtNtBa_8generics10ConstParamNtNtCsieiGu2EXtoJ_4core4hash4Hash4hashNtNtNtCsHUR1vrdMJt_3std4hash6random13DefaultHasherECs4L8YLU89NU9_12synstructure, symObjAddr: 0xF10, symBinAddr: 0x38420, symSize: 0x80 }
  - { offset: 0xADB40, size: 0x8, addend: 0x0, symName: __RNvXs_NtCslJiobkLta79_5alloc5allocNtB4_6GlobalNtNtCsieiGu2EXtoJ_4core5alloc9Allocator10deallocateCs4L8YLU89NU9_12synstructure, symObjAddr: 0x2810, symBinAddr: 0x39890, symSize: 0x70 }
  - { offset: 0xADC08, size: 0x8, addend: 0x0, symName: __RNvXs_NtCslJiobkLta79_5alloc5allocNtB4_6GlobalNtNtCsieiGu2EXtoJ_4core5alloc9Allocator8allocateCs4L8YLU89NU9_12synstructure, symObjAddr: 0x2880, symBinAddr: 0x39900, symSize: 0x30 }
  - { offset: 0xADC43, size: 0x8, addend: 0x0, symName: __RNvNtCslJiobkLta79_5alloc5alloc15exchange_mallocCs4L8YLU89NU9_12synstructure, symObjAddr: 0x1E40, symBinAddr: 0x39310, symSize: 0xA0 }
  - { offset: 0xADCDF, size: 0x8, addend: 0x0, symName: __RNvXs2_NtCslJiobkLta79_5alloc5allocNtB5_6GlobalNtNtCsieiGu2EXtoJ_4core7default7Default7defaultCs4L8YLU89NU9_12synstructure, symObjAddr: 0x2550, symBinAddr: 0x396F0, symSize: 0x10 }
  - { offset: 0xAE380, size: 0x8, addend: 0x0, symName: __RNvXNvXsd_NtNtCslJiobkLta79_5alloc3vec9into_iterINtB8_8IntoIterppENtNtNtCsieiGu2EXtoJ_4core3ops4drop4Drop4dropINtB2_9DropGuardRNtCsaKzlTDPUHDb_11proc_macro25IdentNtNtBc_5alloc6GlobalEB12_4dropCs4L8YLU89NU9_12synstructure, symObjAddr: 0x22E0, symBinAddr: 0x39480, symSize: 0x70 }
  - { offset: 0xAE4BE, size: 0x8, addend: 0x0, symName: __RNvXsd_NtNtCslJiobkLta79_5alloc3vec9into_iterINtB5_8IntoIterRNtCsaKzlTDPUHDb_11proc_macro25IdentENtNtNtCsieiGu2EXtoJ_4core3ops4drop4Drop4dropCs4L8YLU89NU9_12synstructure, symObjAddr: 0x2DB0, symBinAddr: 0x39B20, symSize: 0x80 }
  - { offset: 0xAE55F, size: 0x8, addend: 0x0, symName: __RNvXs3_NtNtCslJiobkLta79_5alloc3vec9into_iterINtB5_8IntoIterRNtCsaKzlTDPUHDb_11proc_macro25IdentENtNtNtNtCsieiGu2EXtoJ_4core4iter6traits8iterator8Iterator4nextCs4L8YLU89NU9_12synstructure, symObjAddr: 0x2680, symBinAddr: 0x39700, symSize: 0xA0 }
  - { offset: 0xAE6BD, size: 0x8, addend: 0x0, symName: __RNvXs3_NtNtCslJiobkLta79_5alloc3vec9into_iterINtB5_8IntoIterRNtCsaKzlTDPUHDb_11proc_macro25IdentENtNtNtNtCsieiGu2EXtoJ_4core4iter6traits8iterator8Iterator9size_hintCs4L8YLU89NU9_12synstructure, symObjAddr: 0x2720, symBinAddr: 0x397A0, symSize: 0x60 }
  - { offset: 0xAEF96, size: 0x8, addend: 0x0, symName: __RNvXss_NtCslJiobkLta79_5alloc6stringNtB5_6StringNtNtNtCsieiGu2EXtoJ_4core3ops5deref5Deref5derefCs4L8YLU89NU9_12synstructure, symObjAddr: 0x2E50, symBinAddr: 0x39BC0, symSize: 0x20 }
  - { offset: 0xAEFCA, size: 0x8, addend: 0x0, symName: __RINvXsn_NtCslJiobkLta79_5alloc6stringNtB6_6StringNtNtCsieiGu2EXtoJ_4core4hash4Hash4hashNtNtNtCsHUR1vrdMJt_3std4hash6random13DefaultHasherECs4L8YLU89NU9_12synstructure, symObjAddr: 0x14D0, symBinAddr: 0x389E0, symSize: 0x80 }
  - { offset: 0xAF17C, size: 0x8, addend: 0x0, symName: __RNvNtCslJiobkLta79_5alloc3fmt6formatCs4L8YLU89NU9_12synstructure, symObjAddr: 0x1D80, symBinAddr: 0x39250, symSize: 0xC0 }
  - { offset: 0xB0134, size: 0x8, addend: 0x0, symName: __RNvMNtCslJiobkLta79_5alloc5allocNtB2_6Global10alloc_implCs4L8YLU89NU9_12synstructure, symObjAddr: 0x19A0, symBinAddr: 0x38E90, symSize: 0x290 }
  - { offset: 0xB0543, size: 0x8, addend: 0x0, symName: __RNvMNtCslJiobkLta79_5alloc6stringNtB2_6String6as_strCs4L8YLU89NU9_12synstructure, symObjAddr: 0x1C30, symBinAddr: 0x39120, symSize: 0x60 }
  - { offset: 0xB065B, size: 0x8, addend: 0x0, symName: __RNvXNtCs9OU1sGv5X54_5quote14ident_fragmentRjNtB2_13IdentFragment3fmtCs4L8YLU89NU9_12synstructure, symObjAddr: 0x21F0, symBinAddr: 0x393B0, symSize: 0x30 }
  - { offset: 0xB06AA, size: 0x8, addend: 0x0, symName: __RNvXNtCs9OU1sGv5X54_5quote9to_tokensRNtNtCsdGrGZaRBwMb_3syn8generics11WhereClauseNtB2_8ToTokens9to_tokensCs4L8YLU89NU9_12synstructure, symObjAddr: 0x2220, symBinAddr: 0x393E0, symSize: 0x30 }
  - { offset: 0xB06EF, size: 0x8, addend: 0x0, symName: __RNvYRNtNtCsdGrGZaRBwMb_3syn8generics12GenericParamNtNtCs9OU1sGv5X54_5quote9to_tokens8ToTokens15to_token_streamCs4L8YLU89NU9_12synstructure, symObjAddr: 0x2FF0, symBinAddr: 0x39CD0, symSize: 0x90 }
  - { offset: 0xB0739, size: 0x8, addend: 0x0, symName: __RNvYRNtNtCsdGrGZaRBwMb_3syn8generics12GenericParamNtNtCs9OU1sGv5X54_5quote9to_tokens8ToTokens17into_token_streamCs4L8YLU89NU9_12synstructure, symObjAddr: 0x3080, symBinAddr: 0x39D60, symSize: 0x50 }
  - { offset: 0xB07C7, size: 0x8, addend: 0x0, symName: __RNvMNtNtNtCsjK30CmJ87bX_9hashbrown7control5group4sse2NtB2_5Group44convert_special_to_empty_and_full_to_deletedCs4L8YLU89NU9_12synstructure, symObjAddr: 0x1CB0, symBinAddr: 0x39180, symSize: 0xD0 }
  - { offset: 0xB1526, size: 0x8, addend: 0x0, symName: __RINvXsD_CsaKzlTDPUHDb_11proc_macro2NtB6_5IdentNtNtCsieiGu2EXtoJ_4core4hash4Hash4hashNtNtNtCsHUR1vrdMJt_3std4hash6random13DefaultHasherECs4L8YLU89NU9_12synstructure, symObjAddr: 0x1BD0, symBinAddr: 0x3B920, symSize: 0x80 }
  - { offset: 0xB1A4A, size: 0x8, addend: 0x0, symName: __RNvXs12_CsaKzlTDPUHDb_11proc_macro2NtB6_5IdentNtNtCsieiGu2EXtoJ_4core5clone5Clone5cloneCs4L8YLU89NU9_12synstructure, symObjAddr: 0x2B90, symBinAddr: 0x3C8D0, symSize: 0x80 }
  - { offset: 0xB1A7E, size: 0x8, addend: 0x0, symName: __RNvXsK_CsaKzlTDPUHDb_11proc_macro2NtB5_11TokenStreamNtNtCsieiGu2EXtoJ_4core5clone5Clone5cloneCs4L8YLU89NU9_12synstructure, symObjAddr: 0x3630, symBinAddr: 0x3D370, symSize: 0x90 }
  - { offset: 0xB2413, size: 0x8, addend: 0x0, symName: __RINvXs3_NtNtCsieiGu2EXtoJ_4core4hash5implsRNtCsaKzlTDPUHDb_11proc_macro25IdentNtB8_4Hash4hashNtNtNtCsHUR1vrdMJt_3std4hash6random13DefaultHasherECs4L8YLU89NU9_12synstructure, symObjAddr: 0x1BB0, symBinAddr: 0x3B900, symSize: 0x20 }
  - { offset: 0xB2464, size: 0x8, addend: 0x0, symName: __RINvXsl_NtNtCsieiGu2EXtoJ_4core4hash5implsTNtCsaKzlTDPUHDb_11proc_macro25IdentNtNtCsdGrGZaRBwMb_3syn5token5ColonENtB8_4Hash4hashNtNtNtCsHUR1vrdMJt_3std4hash6random13DefaultHasherECs4L8YLU89NU9_12synstructure, symObjAddr: 0x1E40, symBinAddr: 0x3BB90, symSize: 0x40 }
  - { offset: 0xB24E6, size: 0x8, addend: 0x0, symName: __RINvXsl_NtNtCsieiGu2EXtoJ_4core4hash5implsTNtNtCsdGrGZaRBwMb_3syn4item5FnArgNtNtBJ_5token5CommaENtB8_4Hash4hashNtNtNtCsHUR1vrdMJt_3std4hash6random13DefaultHasherECs4L8YLU89NU9_12synstructure, symObjAddr: 0x1E80, symBinAddr: 0x3BBD0, symSize: 0x40 }
  - { offset: 0xB2568, size: 0x8, addend: 0x0, symName: __RINvXsl_NtNtCsieiGu2EXtoJ_4core4hash5implsTNtNtCsdGrGZaRBwMb_3syn4item7UseTreeNtNtBJ_5token5CommaENtB8_4Hash4hashNtNtNtCsHUR1vrdMJt_3std4hash6random13DefaultHasherECs4L8YLU89NU9_12synstructure, symObjAddr: 0x1EC0, symBinAddr: 0x3BC10, symSize: 0x40 }
  - { offset: 0xB25EA, size: 0x8, addend: 0x0, symName: __RINvXsl_NtNtCsieiGu2EXtoJ_4core4hash5implsThRNtCsaKzlTDPUHDb_11proc_macro25IdentENtB8_4Hash4hashNtNtNtCsHUR1vrdMJt_3std4hash6random13DefaultHasherECs4L8YLU89NU9_12synstructure, symObjAddr: 0x1F00, symBinAddr: 0x3BC50, symSize: 0x40 }
  - { offset: 0xB2673, size: 0x8, addend: 0x0, symName: __RINvYNtNtCsdGrGZaRBwMb_3syn4item11ForeignItemNtNtCsieiGu2EXtoJ_4core4hash4Hash10hash_sliceNtNtNtCsHUR1vrdMJt_3std4hash6random13DefaultHasherECs4L8YLU89NU9_12synstructure, symObjAddr: 0x1F40, symBinAddr: 0x3BC90, symSize: 0xA0 }
  - { offset: 0xB27FB, size: 0x8, addend: 0x0, symName: __RINvYNtNtCsdGrGZaRBwMb_3syn4item4ItemNtNtCsieiGu2EXtoJ_4core4hash4Hash10hash_sliceNtNtNtCsHUR1vrdMJt_3std4hash6random13DefaultHasherECs4L8YLU89NU9_12synstructure, symObjAddr: 0x1FE0, symBinAddr: 0x3BD30, symSize: 0xA0 }
  - { offset: 0xB2983, size: 0x8, addend: 0x0, symName: __RINvYNtNtCsdGrGZaRBwMb_3syn4item8ImplItemNtNtCsieiGu2EXtoJ_4core4hash4Hash10hash_sliceNtNtNtCsHUR1vrdMJt_3std4hash6random13DefaultHasherECs4L8YLU89NU9_12synstructure, symObjAddr: 0x2080, symBinAddr: 0x3BDD0, symSize: 0xA0 }
  - { offset: 0xB2B0B, size: 0x8, addend: 0x0, symName: __RINvYNtNtCsdGrGZaRBwMb_3syn4item9TraitItemNtNtCsieiGu2EXtoJ_4core4hash4Hash10hash_sliceNtNtNtCsHUR1vrdMJt_3std4hash6random13DefaultHasherECs4L8YLU89NU9_12synstructure, symObjAddr: 0x2120, symBinAddr: 0x3BE70, symSize: 0xA0 }
  - { offset: 0xB2C93, size: 0x8, addend: 0x0, symName: __RINvYTNtNtCsdGrGZaRBwMb_3syn4item5FnArgNtNtB8_5token5CommaENtNtCsieiGu2EXtoJ_4core4hash4Hash10hash_sliceNtNtNtCsHUR1vrdMJt_3std4hash6random13DefaultHasherECs4L8YLU89NU9_12synstructure, symObjAddr: 0x21C0, symBinAddr: 0x3BF10, symSize: 0x90 }
  - { offset: 0xB2E1B, size: 0x8, addend: 0x0, symName: __RINvYTNtNtCsdGrGZaRBwMb_3syn4item7UseTreeNtNtB8_5token5CommaENtNtCsieiGu2EXtoJ_4core4hash4Hash10hash_sliceNtNtNtCsHUR1vrdMJt_3std4hash6random13DefaultHasherECs4L8YLU89NU9_12synstructure, symObjAddr: 0x2250, symBinAddr: 0x3BFA0, symSize: 0x90 }
  - { offset: 0xB306A, size: 0x8, addend: 0x0, symName: __RNvNtNtCsieiGu2EXtoJ_4core4hash3sip9u8to64_leCs4L8YLU89NU9_12synstructure, symObjAddr: 0x23E0, symBinAddr: 0x3C120, symSize: 0x290 }
  - { offset: 0xB3227, size: 0x8, addend: 0x0, symName: __RNvXs3_NtNtCsieiGu2EXtoJ_4core4hash3sipINtB5_6HasherNtB5_11Sip13RoundsENtB7_6Hasher5writeCs4L8YLU89NU9_12synstructure, symObjAddr: 0x2C30, symBinAddr: 0x3C970, symSize: 0x260 }
  - { offset: 0xB339D, size: 0x8, addend: 0x0, symName: __RNvXs3_NtNtCsieiGu2EXtoJ_4core4hash3sipINtB5_6HasherNtB5_11Sip13RoundsENtB7_6Hasher6finishCs4L8YLU89NU9_12synstructure, symObjAddr: 0x2E90, symBinAddr: 0x3CBD0, symSize: 0x90 }
  - { offset: 0xB3410, size: 0x8, addend: 0x0, symName: __RNvXs3_NtNtCsieiGu2EXtoJ_4core4hash3sipINtB5_6HasherNtB5_11Sip13RoundsENtB7_6Hasher9write_strCs4L8YLU89NU9_12synstructure, symObjAddr: 0x2F20, symBinAddr: 0x3CC60, symSize: 0x40 }
  - { offset: 0xB3476, size: 0x8, addend: 0x0, symName: __RNvXs6_NtNtCsieiGu2EXtoJ_4core4hash3sipNtB5_11Sip13RoundsNtB5_3Sip8c_roundsCs4L8YLU89NU9_12synstructure, symObjAddr: 0x2FC0, symBinAddr: 0x3CD00, symSize: 0x180 }
  - { offset: 0xB35F2, size: 0x8, addend: 0x0, symName: __RNvXs6_NtNtCsieiGu2EXtoJ_4core4hash3sipNtB5_11Sip13RoundsNtB5_3Sip8d_roundsCs4L8YLU89NU9_12synstructure, symObjAddr: 0x3140, symBinAddr: 0x3CE80, symSize: 0x4C0 }
  - { offset: 0xB3E60, size: 0x8, addend: 0x0, symName: __RNvNvMs3_NtCsieiGu2EXtoJ_4core3numi13unchecked_neg18precondition_checkCs4L8YLU89NU9_12synstructure, symObjAddr: 0x2950, symBinAddr: 0x3C690, symSize: 0xB0 }
  - { offset: 0xB3F2C, size: 0x8, addend: 0x0, symName: __RNvNvMs9_NtCsieiGu2EXtoJ_4core3numj13unchecked_add18precondition_checkCs4L8YLU89NU9_12synstructure, symObjAddr: 0x2A00, symBinAddr: 0x3C740, symSize: 0xA0 }
  - { offset: 0xB636C, size: 0x8, addend: 0x0, symName: __RNvNtNtNtCsieiGu2EXtoJ_4core9core_arch3x864sse212__mm_or_si128Cs4L8YLU89NU9_12synstructure, symObjAddr: 0x2670, symBinAddr: 0x3C3B0, symSize: 0x20 }
  - { offset: 0xB647B, size: 0x8, addend: 0x0, symName: __RNvNtNtNtCsieiGu2EXtoJ_4core9core_arch3x864sse213__mm_set1_epi8Cs4L8YLU89NU9_12synstructure, symObjAddr: 0x2690, symBinAddr: 0x3C3D0, symSize: 0x90 }
  - { offset: 0xB65D5, size: 0x8, addend: 0x0, symName: __RNvNtNtNtCsieiGu2EXtoJ_4core9core_arch3x864sse214__mm_cmpeq_epi8Cs4L8YLU89NU9_12synstructure, symObjAddr: 0x2720, symBinAddr: 0x3C460, symSize: 0x80 }
  - { offset: 0xB6615, size: 0x8, addend: 0x0, symName: __RNvNtNtNtCsieiGu2EXtoJ_4core9core_arch3x864sse214__mm_cmpgt_epi8Cs4L8YLU89NU9_12synstructure, symObjAddr: 0x27A0, symBinAddr: 0x3C4E0, symSize: 0x80 }
  - { offset: 0xB6655, size: 0x8, addend: 0x0, symName: __RNvNtNtNtCsieiGu2EXtoJ_4core9core_arch3x864sse214__mm_load_si128Cs4L8YLU89NU9_12synstructure, symObjAddr: 0x2820, symBinAddr: 0x3C560, symSize: 0x20 }
  - { offset: 0xB6694, size: 0x8, addend: 0x0, symName: __RNvNtNtNtCsieiGu2EXtoJ_4core9core_arch3x864sse215__mm_loadu_si128Cs4L8YLU89NU9_12synstructure, symObjAddr: 0x2840, symBinAddr: 0x3C580, symSize: 0x90 }
  - { offset: 0xB6723, size: 0x8, addend: 0x0, symName: __RNvNtNtNtCsieiGu2EXtoJ_4core9core_arch3x864sse215__mm_store_si128Cs4L8YLU89NU9_12synstructure, symObjAddr: 0x28D0, symBinAddr: 0x3C610, symSize: 0x20 }
  - { offset: 0xB675C, size: 0x8, addend: 0x0, symName: __RNvNtNtNtCsieiGu2EXtoJ_4core9core_arch3x864sse217__mm_movemask_epi8Cs4L8YLU89NU9_12synstructure, symObjAddr: 0x28F0, symBinAddr: 0x3C630, symSize: 0x50 }
  - { offset: 0xB67C8, size: 0x8, addend: 0x0, symName: __RNvNtNtNtCsieiGu2EXtoJ_4core9core_arch3x864sse217__mm_setzero_si128Cs4L8YLU89NU9_12synstructure, symObjAddr: 0x2940, symBinAddr: 0x3C680, symSize: 0x10 }
  - { offset: 0xB6B66, size: 0x8, addend: 0x0, symName: __RNvXs1_NtCsieiGu2EXtoJ_4core7convertNtCsaKzlTDPUHDb_11proc_macro25IdentINtB5_4IntoNtNtCsdGrGZaRBwMb_3syn4path4PathE4intoCs4L8YLU89NU9_12synstructure, symObjAddr: 0x2C10, symBinAddr: 0x3C950, symSize: 0x20 }
  - { offset: 0xB6BE6, size: 0x8, addend: 0x0, symName: __RNvYNtCsaKzlTDPUHDb_11proc_macro25IdentINtNtCsieiGu2EXtoJ_4core3cmp9PartialEqReE2neCs4L8YLU89NU9_12synstructure, symObjAddr: 0x3700, symBinAddr: 0x3D440, symSize: 0x20 }
  - { offset: 0xB6C4E, size: 0x8, addend: 0x0, symName: __RNvXs5_NtCs9OU1sGv5X54_5quote9___privateINtB5_9RepInterpRNtCsaKzlTDPUHDb_11proc_macro29TokenTreeENtNtB7_9to_tokens8ToTokens9to_tokensCs4L8YLU89NU9_12synstructure, symObjAddr: 0x2F90, symBinAddr: 0x3CCD0, symSize: 0x30 }
  - { offset: 0xB6C93, size: 0x8, addend: 0x0, symName: __RNvXs7_NtCs9OU1sGv5X54_5quote9___privateINtB5_20IdentFragmentAdapterRjENtNtCsieiGu2EXtoJ_4core3fmt7Display3fmtCs4L8YLU89NU9_12synstructure, symObjAddr: 0x3600, symBinAddr: 0x3D340, symSize: 0x30 }
  - { offset: 0xB6CDF, size: 0x8, addend: 0x0, symName: __RNvYINtNtCs9OU1sGv5X54_5quote9___private11HasIteratorKb1_EINtB5_16CheckHasIteratorKBQ_E5checkCs4L8YLU89NU9_12synstructure, symObjAddr: 0x36F0, symBinAddr: 0x3D430, symSize: 0x10 }
  - { offset: 0xB6D60, size: 0x8, addend: 0x0, symName: __RNvXNtCs9OU1sGv5X54_5quote9to_tokensRNtCsaKzlTDPUHDb_11proc_macro25IdentNtB2_8ToTokens9to_tokensCs4L8YLU89NU9_12synstructure, symObjAddr: 0x2AA0, symBinAddr: 0x3C7E0, symSize: 0x30 }
  - { offset: 0xB6D9F, size: 0x8, addend: 0x0, symName: __RNvXNtCs9OU1sGv5X54_5quote9to_tokensRNtCsaKzlTDPUHDb_11proc_macro29TokenTreeNtB2_8ToTokens9to_tokensCs4L8YLU89NU9_12synstructure, symObjAddr: 0x2AD0, symBinAddr: 0x3C810, symSize: 0x30 }
  - { offset: 0xB6DDE, size: 0x8, addend: 0x0, symName: __RNvXNtCs9OU1sGv5X54_5quote9to_tokensRNtNtCsdGrGZaRBwMb_3syn6derive11DeriveInputNtB2_8ToTokens9to_tokensCs4L8YLU89NU9_12synstructure, symObjAddr: 0x2B00, symBinAddr: 0x3C840, symSize: 0x30 }
  - { offset: 0xB6E23, size: 0x8, addend: 0x0, symName: __RNvYRNtNtCsdGrGZaRBwMb_3syn6derive11DeriveInputNtNtCs9OU1sGv5X54_5quote9to_tokens8ToTokens15to_token_streamCs4L8YLU89NU9_12synstructure, symObjAddr: 0x3720, symBinAddr: 0x3D460, symSize: 0x90 }
  - { offset: 0xB6E6D, size: 0x8, addend: 0x0, symName: __RNvYRNtNtCsdGrGZaRBwMb_3syn6derive11DeriveInputNtNtCs9OU1sGv5X54_5quote9to_tokens8ToTokens17into_token_streamCs4L8YLU89NU9_12synstructure, symObjAddr: 0x37B0, symBinAddr: 0x3D4F0, symSize: 0x50 }
  - { offset: 0xB6EB9, size: 0x8, addend: 0x0, symName: __RINvXs14_NtNtCsdGrGZaRBwMb_3syn3gen4hashNtNtBb_4item5FnArgNtNtCsieiGu2EXtoJ_4core4hash4Hash4hashNtNtNtCsHUR1vrdMJt_3std4hash6random13DefaultHasherECs4L8YLU89NU9_12synstructure, symObjAddr: 0x50, symBinAddr: 0x39DB0, symSize: 0xA0 }
  - { offset: 0xB6F35, size: 0x8, addend: 0x0, symName: __RINvXs15_NtNtCsdGrGZaRBwMb_3syn3gen4hashNtNtBb_4item11ForeignItemNtNtCsieiGu2EXtoJ_4core4hash4Hash4hashNtNtNtCsHUR1vrdMJt_3std4hash6random13DefaultHasherECs4L8YLU89NU9_12synstructure, symObjAddr: 0xF0, symBinAddr: 0x39E50, symSize: 0x170 }
  - { offset: 0xB700B, size: 0x8, addend: 0x0, symName: __RINvXs16_NtNtCsdGrGZaRBwMb_3syn3gen4hashNtNtBb_4item13ForeignItemFnNtNtCsieiGu2EXtoJ_4core4hash4Hash4hashNtNtNtCsHUR1vrdMJt_3std4hash6random13DefaultHasherECs4L8YLU89NU9_12synstructure, symObjAddr: 0x260, symBinAddr: 0x39FC0, symSize: 0x60 }
  - { offset: 0xB7053, size: 0x8, addend: 0x0, symName: __RINvXs17_NtNtCsdGrGZaRBwMb_3syn3gen4hashNtNtBb_4item16ForeignItemMacroNtNtCsieiGu2EXtoJ_4core4hash4Hash4hashNtNtNtCsHUR1vrdMJt_3std4hash6random13DefaultHasherECs4L8YLU89NU9_12synstructure, symObjAddr: 0x2C0, symBinAddr: 0x3A020, symSize: 0x50 }
  - { offset: 0xB709B, size: 0x8, addend: 0x0, symName: __RINvXs18_NtNtCsdGrGZaRBwMb_3syn3gen4hashNtNtBb_4item17ForeignItemStaticNtNtCsieiGu2EXtoJ_4core4hash4Hash4hashNtNtNtCsHUR1vrdMJt_3std4hash6random13DefaultHasherECs4L8YLU89NU9_12synstructure, symObjAddr: 0x310, symBinAddr: 0x3A070, symSize: 0x70 }
  - { offset: 0xB70E3, size: 0x8, addend: 0x0, symName: __RINvXs19_NtNtCsdGrGZaRBwMb_3syn3gen4hashNtNtBb_4item15ForeignItemTypeNtNtCsieiGu2EXtoJ_4core4hash4Hash4hashNtNtNtCsHUR1vrdMJt_3std4hash6random13DefaultHasherECs4L8YLU89NU9_12synstructure, symObjAddr: 0x380, symBinAddr: 0x3A0E0, symSize: 0x70 }
  - { offset: 0xB712B, size: 0x8, addend: 0x0, symName: __RINvXs1d_NtNtCsdGrGZaRBwMb_3syn3gen4hashNtNtBb_4item8ImplItemNtNtCsieiGu2EXtoJ_4core4hash4Hash4hashNtNtNtCsHUR1vrdMJt_3std4hash6random13DefaultHasherECs4L8YLU89NU9_12synstructure, symObjAddr: 0x3F0, symBinAddr: 0x3A150, symSize: 0x170 }
  - { offset: 0xB7201, size: 0x8, addend: 0x0, symName: __RINvXs1e_NtNtCsdGrGZaRBwMb_3syn3gen4hashNtNtBb_4item13ImplItemConstNtNtCsieiGu2EXtoJ_4core4hash4Hash4hashNtNtNtCsHUR1vrdMJt_3std4hash6random13DefaultHasherECs4L8YLU89NU9_12synstructure, symObjAddr: 0x560, symBinAddr: 0x3A2C0, symSize: 0xB0 }
  - { offset: 0xB7249, size: 0x8, addend: 0x0, symName: __RINvXs1f_NtNtCsdGrGZaRBwMb_3syn3gen4hashNtNtBb_4item10ImplItemFnNtNtCsieiGu2EXtoJ_4core4hash4Hash4hashNtNtNtCsHUR1vrdMJt_3std4hash6random13DefaultHasherECs4L8YLU89NU9_12synstructure, symObjAddr: 0x610, symBinAddr: 0x3A370, symSize: 0x80 }
  - { offset: 0xB7291, size: 0x8, addend: 0x0, symName: __RINvXs1g_NtNtCsdGrGZaRBwMb_3syn3gen4hashNtNtBb_4item13ImplItemMacroNtNtCsieiGu2EXtoJ_4core4hash4Hash4hashNtNtNtCsHUR1vrdMJt_3std4hash6random13DefaultHasherECs4L8YLU89NU9_12synstructure, symObjAddr: 0x690, symBinAddr: 0x3A3F0, symSize: 0x50 }
  - { offset: 0xB72D9, size: 0x8, addend: 0x0, symName: __RINvXs1h_NtNtCsdGrGZaRBwMb_3syn3gen4hashNtNtBb_4item12ImplItemTypeNtNtCsieiGu2EXtoJ_4core4hash4Hash4hashNtNtNtCsHUR1vrdMJt_3std4hash6random13DefaultHasherECs4L8YLU89NU9_12synstructure, symObjAddr: 0x6E0, symBinAddr: 0x3A440, symSize: 0x90 }
  - { offset: 0xB7321, size: 0x8, addend: 0x0, symName: __RINvXs1j_NtNtCsdGrGZaRBwMb_3syn3gen4hashNtNtBb_4item4ItemNtNtCsieiGu2EXtoJ_4core4hash4Hash4hashNtNtNtCsHUR1vrdMJt_3std4hash6random13DefaultHasherECs4L8YLU89NU9_12synstructure, symObjAddr: 0x780, symBinAddr: 0x3A4D0, symSize: 0x510 }
  - { offset: 0xB754B, size: 0x8, addend: 0x0, symName: __RINvXs1k_NtNtCsdGrGZaRBwMb_3syn3gen4hashNtNtBb_4item9ItemConstNtNtCsieiGu2EXtoJ_4core4hash4Hash4hashNtNtNtCsHUR1vrdMJt_3std4hash6random13DefaultHasherECs4L8YLU89NU9_12synstructure, symObjAddr: 0xC90, symBinAddr: 0x3A9E0, symSize: 0x90 }
  - { offset: 0xB7593, size: 0x8, addend: 0x0, symName: __RINvXs1l_NtNtCsdGrGZaRBwMb_3syn3gen4hashNtNtBb_4item8ItemEnumNtNtCsieiGu2EXtoJ_4core4hash4Hash4hashNtNtNtCsHUR1vrdMJt_3std4hash6random13DefaultHasherECs4L8YLU89NU9_12synstructure, symObjAddr: 0xD20, symBinAddr: 0x3AA70, symSize: 0x80 }
  - { offset: 0xB75DB, size: 0x8, addend: 0x0, symName: __RINvXs1m_NtNtCsdGrGZaRBwMb_3syn3gen4hashNtNtBb_4item15ItemExternCrateNtNtCsieiGu2EXtoJ_4core4hash4Hash4hashNtNtNtCsHUR1vrdMJt_3std4hash6random13DefaultHasherECs4L8YLU89NU9_12synstructure, symObjAddr: 0xDA0, symBinAddr: 0x3AAF0, symSize: 0x60 }
  - { offset: 0xB7623, size: 0x8, addend: 0x0, symName: __RINvXs1n_NtNtCsdGrGZaRBwMb_3syn3gen4hashNtNtBb_4item6ItemFnNtNtCsieiGu2EXtoJ_4core4hash4Hash4hashNtNtNtCsHUR1vrdMJt_3std4hash6random13DefaultHasherECs4L8YLU89NU9_12synstructure, symObjAddr: 0xE00, symBinAddr: 0x3AB50, symSize: 0x70 }
  - { offset: 0xB766B, size: 0x8, addend: 0x0, symName: __RINvXs1o_NtNtCsdGrGZaRBwMb_3syn3gen4hashNtNtBb_4item14ItemForeignModNtNtCsieiGu2EXtoJ_4core4hash4Hash4hashNtNtNtCsHUR1vrdMJt_3std4hash6random13DefaultHasherECs4L8YLU89NU9_12synstructure, symObjAddr: 0xE70, symBinAddr: 0x3ABC0, symSize: 0x60 }
  - { offset: 0xB76B3, size: 0x8, addend: 0x0, symName: __RINvXs1p_NtNtCsdGrGZaRBwMb_3syn3gen4hashNtNtBb_4item8ItemImplNtNtCsieiGu2EXtoJ_4core4hash4Hash4hashNtNtNtCsHUR1vrdMJt_3std4hash6random13DefaultHasherECs4L8YLU89NU9_12synstructure, symObjAddr: 0xED0, symBinAddr: 0x3AC20, symSize: 0xA0 }
  - { offset: 0xB76FB, size: 0x8, addend: 0x0, symName: __RINvXs1q_NtNtCsdGrGZaRBwMb_3syn3gen4hashNtNtBb_4item9ItemMacroNtNtCsieiGu2EXtoJ_4core4hash4Hash4hashNtNtNtCsHUR1vrdMJt_3std4hash6random13DefaultHasherECs4L8YLU89NU9_12synstructure, symObjAddr: 0xF70, symBinAddr: 0x3ACC0, symSize: 0x70 }
  - { offset: 0xB7743, size: 0x8, addend: 0x0, symName: __RINvXs1r_NtNtCsdGrGZaRBwMb_3syn3gen4hashNtNtBb_4item7ItemModNtNtCsieiGu2EXtoJ_4core4hash4Hash4hashNtNtNtCsHUR1vrdMJt_3std4hash6random13DefaultHasherECs4L8YLU89NU9_12synstructure, symObjAddr: 0xFE0, symBinAddr: 0x3AD30, symSize: 0x80 }
  - { offset: 0xB778B, size: 0x8, addend: 0x0, symName: __RINvXs1s_NtNtCsdGrGZaRBwMb_3syn3gen4hashNtNtBb_4item10ItemStaticNtNtCsieiGu2EXtoJ_4core4hash4Hash4hashNtNtNtCsHUR1vrdMJt_3std4hash6random13DefaultHasherECs4L8YLU89NU9_12synstructure, symObjAddr: 0x1060, symBinAddr: 0x3ADB0, symSize: 0x80 }
  - { offset: 0xB77D3, size: 0x8, addend: 0x0, symName: __RINvXs1t_NtNtCsdGrGZaRBwMb_3syn3gen4hashNtNtBb_4item10ItemStructNtNtCsieiGu2EXtoJ_4core4hash4Hash4hashNtNtNtCsHUR1vrdMJt_3std4hash6random13DefaultHasherECs4L8YLU89NU9_12synstructure, symObjAddr: 0x10E0, symBinAddr: 0x3AE30, symSize: 0x90 }
  - { offset: 0xB781B, size: 0x8, addend: 0x0, symName: __RINvXs1u_NtNtCsdGrGZaRBwMb_3syn3gen4hashNtNtBb_4item9ItemTraitNtNtCsieiGu2EXtoJ_4core4hash4Hash4hashNtNtNtCsHUR1vrdMJt_3std4hash6random13DefaultHasherECs4L8YLU89NU9_12synstructure, symObjAddr: 0x1170, symBinAddr: 0x3AEC0, symSize: 0xE0 }
  - { offset: 0xB7863, size: 0x8, addend: 0x0, symName: __RINvXs1v_NtNtCsdGrGZaRBwMb_3syn3gen4hashNtNtBb_4item14ItemTraitAliasNtNtCsieiGu2EXtoJ_4core4hash4Hash4hashNtNtNtCsHUR1vrdMJt_3std4hash6random13DefaultHasherECs4L8YLU89NU9_12synstructure, symObjAddr: 0x1250, symBinAddr: 0x3AFA0, symSize: 0x80 }
  - { offset: 0xB78AB, size: 0x8, addend: 0x0, symName: __RINvXs1w_NtNtCsdGrGZaRBwMb_3syn3gen4hashNtNtBb_4item8ItemTypeNtNtCsieiGu2EXtoJ_4core4hash4Hash4hashNtNtNtCsHUR1vrdMJt_3std4hash6random13DefaultHasherECs4L8YLU89NU9_12synstructure, symObjAddr: 0x12D0, symBinAddr: 0x3B020, symSize: 0x80 }
  - { offset: 0xB78F3, size: 0x8, addend: 0x0, symName: __RINvXs1x_NtNtCsdGrGZaRBwMb_3syn3gen4hashNtNtBb_4item9ItemUnionNtNtCsieiGu2EXtoJ_4core4hash4Hash4hashNtNtNtCsHUR1vrdMJt_3std4hash6random13DefaultHasherECs4L8YLU89NU9_12synstructure, symObjAddr: 0x1350, symBinAddr: 0x3B0A0, symSize: 0x80 }
  - { offset: 0xB793B, size: 0x8, addend: 0x0, symName: __RINvXs1y_NtNtCsdGrGZaRBwMb_3syn3gen4hashNtNtBb_4item7ItemUseNtNtCsieiGu2EXtoJ_4core4hash4Hash4hashNtNtNtCsHUR1vrdMJt_3std4hash6random13DefaultHasherECs4L8YLU89NU9_12synstructure, symObjAddr: 0x13D0, symBinAddr: 0x3B120, symSize: 0x60 }
  - { offset: 0xB7983, size: 0x8, addend: 0x0, symName: __RINvXs26_NtNtCsdGrGZaRBwMb_3syn3gen4hashNtNtBb_4item8ReceiverNtNtCsieiGu2EXtoJ_4core4hash4Hash4hashNtNtNtCsHUR1vrdMJt_3std4hash6random13DefaultHasherECs4L8YLU89NU9_12synstructure, symObjAddr: 0x1430, symBinAddr: 0x3B180, symSize: 0x70 }
  - { offset: 0xB79CB, size: 0x8, addend: 0x0, symName: __RINvXs28_NtNtCsdGrGZaRBwMb_3syn3gen4hashNtNtBb_4item9SignatureNtNtCsieiGu2EXtoJ_4core4hash4Hash4hashNtNtNtCsHUR1vrdMJt_3std4hash6random13DefaultHasherECs4L8YLU89NU9_12synstructure, symObjAddr: 0x14A0, symBinAddr: 0x3B1F0, symSize: 0xD0 }
  - { offset: 0xB7A13, size: 0x8, addend: 0x0, symName: __RINvXs29_NtNtCsdGrGZaRBwMb_3syn3gen4hashNtNtBb_4item16StaticMutabilityNtNtCsieiGu2EXtoJ_4core4hash4Hash4hashNtNtNtCsHUR1vrdMJt_3std4hash6random13DefaultHasherECs4L8YLU89NU9_12synstructure, symObjAddr: 0x1570, symBinAddr: 0x3B2C0, symSize: 0x50 }
  - { offset: 0xB7A5B, size: 0x8, addend: 0x0, symName: __RINvXs2B_NtNtCsdGrGZaRBwMb_3syn3gen4hashNtNtBb_4item7UseGlobNtNtCsieiGu2EXtoJ_4core4hash4Hash4hashNtNtNtCsHUR1vrdMJt_3std4hash6random13DefaultHasherECs4L8YLU89NU9_12synstructure, symObjAddr: 0x15C0, symBinAddr: 0x3B310, symSize: 0x20 }
  - { offset: 0xB7AA3, size: 0x8, addend: 0x0, symName: __RINvXs2C_NtNtCsdGrGZaRBwMb_3syn3gen4hashNtNtBb_4item8UseGroupNtNtCsieiGu2EXtoJ_4core4hash4Hash4hashNtNtNtCsHUR1vrdMJt_3std4hash6random13DefaultHasherECs4L8YLU89NU9_12synstructure, symObjAddr: 0x15E0, symBinAddr: 0x3B330, symSize: 0x30 }
  - { offset: 0xB7AEB, size: 0x8, addend: 0x0, symName: __RINvXs2D_NtNtCsdGrGZaRBwMb_3syn3gen4hashNtNtBb_4item7UseNameNtNtCsieiGu2EXtoJ_4core4hash4Hash4hashNtNtNtCsHUR1vrdMJt_3std4hash6random13DefaultHasherECs4L8YLU89NU9_12synstructure, symObjAddr: 0x1610, symBinAddr: 0x3B360, symSize: 0x30 }
  - { offset: 0xB7B33, size: 0x8, addend: 0x0, symName: __RINvXs2E_NtNtCsdGrGZaRBwMb_3syn3gen4hashNtNtBb_4item7UsePathNtNtCsieiGu2EXtoJ_4core4hash4Hash4hashNtNtNtCsHUR1vrdMJt_3std4hash6random13DefaultHasherECs4L8YLU89NU9_12synstructure, symObjAddr: 0x1640, symBinAddr: 0x3B390, symSize: 0x40 }
  - { offset: 0xB7B7B, size: 0x8, addend: 0x0, symName: __RINvXs2F_NtNtCsdGrGZaRBwMb_3syn3gen4hashNtNtBb_4item9UseRenameNtNtCsieiGu2EXtoJ_4core4hash4Hash4hashNtNtNtCsHUR1vrdMJt_3std4hash6random13DefaultHasherECs4L8YLU89NU9_12synstructure, symObjAddr: 0x1680, symBinAddr: 0x3B3D0, symSize: 0x40 }
  - { offset: 0xB7BC3, size: 0x8, addend: 0x0, symName: __RINvXs2G_NtNtCsdGrGZaRBwMb_3syn3gen4hashNtNtBb_4item7UseTreeNtNtCsieiGu2EXtoJ_4core4hash4Hash4hashNtNtNtCsHUR1vrdMJt_3std4hash6random13DefaultHasherECs4L8YLU89NU9_12synstructure, symObjAddr: 0x16C0, symBinAddr: 0x3B410, symSize: 0x160 }
  - { offset: 0xB7C99, size: 0x8, addend: 0x0, symName: __RINvXs2H_NtNtCsdGrGZaRBwMb_3syn3gen4hashNtNtBb_4item8VariadicNtNtCsieiGu2EXtoJ_4core4hash4Hash4hashNtNtNtCsHUR1vrdMJt_3std4hash6random13DefaultHasherECs4L8YLU89NU9_12synstructure, symObjAddr: 0x1820, symBinAddr: 0x3B570, symSize: 0x50 }
  - { offset: 0xB7CE1, size: 0x8, addend: 0x0, symName: __RINvXs2e_NtNtCsdGrGZaRBwMb_3syn3gen4hashNtNtBb_4item9TraitItemNtNtCsieiGu2EXtoJ_4core4hash4Hash4hashNtNtNtCsHUR1vrdMJt_3std4hash6random13DefaultHasherECs4L8YLU89NU9_12synstructure, symObjAddr: 0x1870, symBinAddr: 0x3B5C0, symSize: 0x170 }
  - { offset: 0xB7DB7, size: 0x8, addend: 0x0, symName: __RINvXs2f_NtNtCsdGrGZaRBwMb_3syn3gen4hashNtNtBb_4item14TraitItemConstNtNtCsieiGu2EXtoJ_4core4hash4Hash4hashNtNtNtCsHUR1vrdMJt_3std4hash6random13DefaultHasherECs4L8YLU89NU9_12synstructure, symObjAddr: 0x19E0, symBinAddr: 0x3B730, symSize: 0x80 }
  - { offset: 0xB7DFF, size: 0x8, addend: 0x0, symName: __RINvXs2g_NtNtCsdGrGZaRBwMb_3syn3gen4hashNtNtBb_4item11TraitItemFnNtNtCsieiGu2EXtoJ_4core4hash4Hash4hashNtNtNtCsHUR1vrdMJt_3std4hash6random13DefaultHasherECs4L8YLU89NU9_12synstructure, symObjAddr: 0x1A60, symBinAddr: 0x3B7B0, symSize: 0x70 }
  - { offset: 0xB7E47, size: 0x8, addend: 0x0, symName: __RINvXs2h_NtNtCsdGrGZaRBwMb_3syn3gen4hashNtNtBb_4item14TraitItemMacroNtNtCsieiGu2EXtoJ_4core4hash4Hash4hashNtNtNtCsHUR1vrdMJt_3std4hash6random13DefaultHasherECs4L8YLU89NU9_12synstructure, symObjAddr: 0x1AD0, symBinAddr: 0x3B820, symSize: 0x50 }
  - { offset: 0xB7E8F, size: 0x8, addend: 0x0, symName: __RINvXs2i_NtNtCsdGrGZaRBwMb_3syn3gen4hashNtNtBb_4item13TraitItemTypeNtNtCsieiGu2EXtoJ_4core4hash4Hash4hashNtNtNtCsHUR1vrdMJt_3std4hash6random13DefaultHasherECs4L8YLU89NU9_12synstructure, symObjAddr: 0x1B20, symBinAddr: 0x3B870, symSize: 0x90 }
  - { offset: 0xBCBD5, size: 0x8, addend: 0x0, symName: __RNvXs0_NtCsdGrGZaRBwMb_3syn5dropsINtB5_6NoDropDINtNtB7_10punctuated9IterTraitNtNtB7_4data7VariantEp4ItemRB1d_EL_ENtNtNtCsieiGu2EXtoJ_4core3ops5deref8DerefMut9deref_mutCs4L8YLU89NU9_12synstructure, symObjAddr: 0x2B30, symBinAddr: 0x3C870, symSize: 0x30 }
  - { offset: 0xBCC0A, size: 0x8, addend: 0x0, symName: __RNvXs0_NtCsdGrGZaRBwMb_3syn5dropsINtB5_6NoDropDINtNtB7_10punctuated9IterTraitNtNtB7_8generics14WherePredicateEp4ItemRB1d_EL_ENtNtNtCsieiGu2EXtoJ_4core3ops5deref8DerefMut9deref_mutCs4L8YLU89NU9_12synstructure, symObjAddr: 0x2B60, symBinAddr: 0x3C8A0, symSize: 0x30 }
  - { offset: 0xBCC45, size: 0x8, addend: 0x0, symName: __RNvXs_NtCsdGrGZaRBwMb_3syn5dropsINtB4_6NoDropDINtNtB6_10punctuated9IterTraitNtNtB6_4data7VariantEp4ItemRB1c_EL_ENtNtNtCsieiGu2EXtoJ_4core3ops5deref5Deref5derefCs4L8YLU89NU9_12synstructure, symObjAddr: 0x36C0, symBinAddr: 0x3D400, symSize: 0x30 }
  - { offset: 0xBD64C, size: 0x8, addend: 0x0, symName: __RINvXs_NtNtCslJiobkLta79_5alloc3vec14spec_from_elembNtB5_12SpecFromElem9from_elemNtNtB9_5alloc6GlobalECs4L8YLU89NU9_12synstructure, symObjAddr: 0x1C50, symBinAddr: 0x3B9A0, symSize: 0x1F0 }
  - { offset: 0xBEAA2, size: 0x8, addend: 0x0, symName: __RNvMNtCsdGrGZaRBwMb_3syn5dropsINtB2_6NoDropINtNtB4_10punctuated11PrivateIterNtNtB4_4data7VariantNtNtB4_5token5CommaEE3newCs4L8YLU89NU9_12synstructure, symObjAddr: 0x22E0, symBinAddr: 0x3C030, symSize: 0x40 }
  - { offset: 0xBEB2C, size: 0x8, addend: 0x0, symName: __RNvMNtCsdGrGZaRBwMb_3syn5dropsINtB2_6NoDropINtNtB4_10punctuated11PrivateIterNtNtB4_8generics14WherePredicateNtNtB4_5token5CommaEE3newCs4L8YLU89NU9_12synstructure, symObjAddr: 0x2320, symBinAddr: 0x3C070, symSize: 0x40 }
  - { offset: 0xBEB81, size: 0x8, addend: 0x0, symName: __RNvMs0_NtNtCsieiGu2EXtoJ_4core4hash3sipINtB5_6HasherNtB5_11Sip13RoundsE5resetCs4L8YLU89NU9_12synstructure, symObjAddr: 0x2360, symBinAddr: 0x3C0B0, symSize: 0x70 }
  - { offset: 0xBEE56, size: 0x8, addend: 0x0, symName: __RNvXs4_Cs4L8YLU89NU9_12synstructureNtCsaKzlTDPUHDb_11proc_macro211TokenStreamNtB5_11MacroResult11into_result, symObjAddr: 0x2F60, symBinAddr: 0x3CCA0, symSize: 0x30 }
  - { offset: 0xBF317, size: 0x8, addend: 0x0, symName: __RINvMNtNtCsieiGu2EXtoJ_4core3fmt2rtNtB3_8Argument11new_displayINtNtCs9OU1sGv5X54_5quote9___private20IdentFragmentAdapterRjEECs4L8YLU89NU9_12synstructure, symObjAddr: 0x0, symBinAddr: 0x3D540, symSize: 0x30 }
  - { offset: 0xBFACC, size: 0x8, addend: 0x0, symName: __RNvXsA_NtCsaKzlTDPUHDb_11proc_macro23impNtB5_19DeferredTokenStreamNtNtCsieiGu2EXtoJ_4core5clone5Clone5cloneCs4L8YLU89NU9_12synstructure, symObjAddr: 0x2C70, symBinAddr: 0x40090, symSize: 0xA0 }
  - { offset: 0xBFAFE, size: 0x8, addend: 0x0, symName: __RNvXsB_NtCsaKzlTDPUHDb_11proc_macro23impNtB5_13TokenTreeIterNtNtCsieiGu2EXtoJ_4core5clone5Clone5cloneCs4L8YLU89NU9_12synstructure, symObjAddr: 0x2D10, symBinAddr: 0x40130, symSize: 0xB0 }
  - { offset: 0xBFB6E, size: 0x8, addend: 0x0, symName: __RNvXsF_NtCsaKzlTDPUHDb_11proc_macro23impNtB5_5IdentNtNtCsieiGu2EXtoJ_4core5clone5Clone5cloneCs4L8YLU89NU9_12synstructure, symObjAddr: 0x2DC0, symBinAddr: 0x401E0, symSize: 0x90 }
  - { offset: 0xBFBDE, size: 0x8, addend: 0x0, symName: __RNvXsz_NtCsaKzlTDPUHDb_11proc_macro23impNtB5_11TokenStreamNtNtCsieiGu2EXtoJ_4core5clone5Clone5cloneCs4L8YLU89NU9_12synstructure, symObjAddr: 0x3170, symBinAddr: 0x404E0, symSize: 0xB0 }
  - { offset: 0xC0D1D, size: 0x8, addend: 0x0, symName: __RNvNvMNtNtCsieiGu2EXtoJ_4core3ptr9const_ptrPp20offset_from_unsigned18precondition_checkCs4L8YLU89NU9_12synstructure, symObjAddr: 0x1D80, symBinAddr: 0x3F250, symSize: 0xA0 }
  - { offset: 0xC3893, size: 0x8, addend: 0x0, symName: __RINvXNtNtCsieiGu2EXtoJ_4core4hash5implsbNtB5_4Hash4hashNtNtNtCsHUR1vrdMJt_3std4hash6random13DefaultHasherECs4L8YLU89NU9_12synstructure, symObjAddr: 0xE0, symBinAddr: 0x3D620, symSize: 0x30 }
  - { offset: 0xC38DB, size: 0x8, addend: 0x0, symName: __RINvXs3_NtNtCsieiGu2EXtoJ_4core4hash5implsRNtNtCsdGrGZaRBwMb_3syn2ty4TypeNtB8_4Hash4hashNtNtNtCsHUR1vrdMJt_3std4hash6random13DefaultHasherECs4L8YLU89NU9_12synstructure, symObjAddr: 0xEC0, symBinAddr: 0x3E400, symSize: 0x20 }
  - { offset: 0xC392C, size: 0x8, addend: 0x0, symName: __RINvXs7_NtNtCsieiGu2EXtoJ_4core4hash5implshNtB8_4Hash4hashNtNtNtCsHUR1vrdMJt_3std4hash6random13DefaultHasherECs4L8YLU89NU9_12synstructure, symObjAddr: 0xF90, symBinAddr: 0x3E4D0, symSize: 0x30 }
  - { offset: 0xC3974, size: 0x8, addend: 0x0, symName: __RINvXs9_NtNtCsieiGu2EXtoJ_4core4hash5implsmNtB8_4Hash4hashNtNtNtCsHUR1vrdMJt_3std4hash6random13DefaultHasherECs4L8YLU89NU9_12synstructure, symObjAddr: 0xFC0, symBinAddr: 0x3E500, symSize: 0x30 }
  - { offset: 0xC39BC, size: 0x8, addend: 0x0, symName: __RINvXs_NtNtCsieiGu2EXtoJ_4core4hash5implscNtB7_4Hash4hashNtNtNtCsHUR1vrdMJt_3std4hash6random13DefaultHasherECs4L8YLU89NU9_12synstructure, symObjAddr: 0x12C0, symBinAddr: 0x3E800, symSize: 0x30 }
  - { offset: 0xC3A04, size: 0x8, addend: 0x0, symName: __RINvXsb_NtNtCsieiGu2EXtoJ_4core4hash5implsjNtB8_4Hash4hashNtNtNtCsHUR1vrdMJt_3std4hash6random13DefaultHasherECs4L8YLU89NU9_12synstructure, symObjAddr: 0x12F0, symBinAddr: 0x3E830, symSize: 0x30 }
  - { offset: 0xC3A4C, size: 0x8, addend: 0x0, symName: __RINvXsl_NtNtCsieiGu2EXtoJ_4core4hash5implsTNtNtCsdGrGZaRBwMb_3syn2ty4TypeNtNtBJ_5token5CommaENtB8_4Hash4hashNtNtNtCsHUR1vrdMJt_3std4hash6random13DefaultHasherECs4L8YLU89NU9_12synstructure, symObjAddr: 0x1320, symBinAddr: 0x3E860, symSize: 0x50 }
  - { offset: 0xC3ACE, size: 0x8, addend: 0x0, symName: __RINvXsl_NtNtCsieiGu2EXtoJ_4core4hash5implsTNtNtCsdGrGZaRBwMb_3syn2ty9BareFnArgNtNtBJ_5token5CommaENtB8_4Hash4hashNtNtNtCsHUR1vrdMJt_3std4hash6random13DefaultHasherECs4L8YLU89NU9_12synstructure, symObjAddr: 0x1370, symBinAddr: 0x3E8B0, symSize: 0x50 }
  - { offset: 0xC3B50, size: 0x8, addend: 0x0, symName: __RINvXsl_NtNtCsieiGu2EXtoJ_4core4hash5implsTNtNtCsdGrGZaRBwMb_3syn4data5FieldNtNtBJ_5token5CommaENtB8_4Hash4hashNtNtNtCsHUR1vrdMJt_3std4hash6random13DefaultHasherECs4L8YLU89NU9_12synstructure, symObjAddr: 0x13C0, symBinAddr: 0x3E900, symSize: 0x50 }
  - { offset: 0xC3BD2, size: 0x8, addend: 0x0, symName: __RINvXsl_NtNtCsieiGu2EXtoJ_4core4hash5implsTNtNtCsdGrGZaRBwMb_3syn4data7VariantNtNtBJ_5token5CommaENtB8_4Hash4hashNtNtNtCsHUR1vrdMJt_3std4hash6random13DefaultHasherECs4L8YLU89NU9_12synstructure, symObjAddr: 0x1410, symBinAddr: 0x3E950, symSize: 0x50 }
  - { offset: 0xC3C5B, size: 0x8, addend: 0x0, symName: __RINvYNtNtNtCsHUR1vrdMJt_3std4hash6random11RandomStateNtNtCsieiGu2EXtoJ_4core4hash11BuildHasher8hash_oneRNtNtCsdGrGZaRBwMb_3syn2ty4TypeECs4L8YLU89NU9_12synstructure, symObjAddr: 0x1870, symBinAddr: 0x3ED90, symSize: 0x80 }
  - { offset: 0xC3CC8, size: 0x8, addend: 0x0, symName: __RINvYTNtNtCsdGrGZaRBwMb_3syn2ty4TypeNtNtB8_5token5CommaENtNtCsieiGu2EXtoJ_4core4hash4Hash10hash_sliceNtNtNtCsHUR1vrdMJt_3std4hash6random13DefaultHasherECs4L8YLU89NU9_12synstructure, symObjAddr: 0x18F0, symBinAddr: 0x3EE10, symSize: 0xA0 }
  - { offset: 0xC3E50, size: 0x8, addend: 0x0, symName: __RINvYTNtNtCsdGrGZaRBwMb_3syn2ty9BareFnArgNtNtB8_5token5CommaENtNtCsieiGu2EXtoJ_4core4hash4Hash10hash_sliceNtNtNtCsHUR1vrdMJt_3std4hash6random13DefaultHasherECs4L8YLU89NU9_12synstructure, symObjAddr: 0x1990, symBinAddr: 0x3EEB0, symSize: 0xA0 }
  - { offset: 0xC3FD8, size: 0x8, addend: 0x0, symName: __RINvYTNtNtCsdGrGZaRBwMb_3syn4data5FieldNtNtB8_5token5CommaENtNtCsieiGu2EXtoJ_4core4hash4Hash10hash_sliceNtNtNtCsHUR1vrdMJt_3std4hash6random13DefaultHasherECs4L8YLU89NU9_12synstructure, symObjAddr: 0x1A30, symBinAddr: 0x3EF50, symSize: 0xA0 }
  - { offset: 0xC4160, size: 0x8, addend: 0x0, symName: __RINvYTNtNtCsdGrGZaRBwMb_3syn4data7VariantNtNtB8_5token5CommaENtNtCsieiGu2EXtoJ_4core4hash4Hash10hash_sliceNtNtNtCsHUR1vrdMJt_3std4hash6random13DefaultHasherECs4L8YLU89NU9_12synstructure, symObjAddr: 0x1AD0, symBinAddr: 0x3EFF0, symSize: 0xA0 }
  - { offset: 0xC4455, size: 0x8, addend: 0x0, symName: __RNvYNtNtNtCsHUR1vrdMJt_3std4hash6random13DefaultHasherNtNtCsieiGu2EXtoJ_4core4hash6Hasher11write_isizeCs4L8YLU89NU9_12synstructure, symObjAddr: 0x3240, symBinAddr: 0x40590, symSize: 0x20 }
  - { offset: 0xC4497, size: 0x8, addend: 0x0, symName: __RNvYNtNtNtCsHUR1vrdMJt_3std4hash6random13DefaultHasherNtNtCsieiGu2EXtoJ_4core4hash6Hasher11write_usizeCs4L8YLU89NU9_12synstructure, symObjAddr: 0x3260, symBinAddr: 0x405B0, symSize: 0x30 }
  - { offset: 0xC44F7, size: 0x8, addend: 0x0, symName: __RNvYNtNtNtCsHUR1vrdMJt_3std4hash6random13DefaultHasherNtNtCsieiGu2EXtoJ_4core4hash6Hasher19write_length_prefixCs4L8YLU89NU9_12synstructure, symObjAddr: 0x3290, symBinAddr: 0x405E0, symSize: 0x20 }
  - { offset: 0xC4539, size: 0x8, addend: 0x0, symName: __RNvYNtNtNtCsHUR1vrdMJt_3std4hash6random13DefaultHasherNtNtCsieiGu2EXtoJ_4core4hash6Hasher8write_u8Cs4L8YLU89NU9_12synstructure, symObjAddr: 0x32B0, symBinAddr: 0x40600, symSize: 0x30 }
  - { offset: 0xC457B, size: 0x8, addend: 0x0, symName: __RNvYNtNtNtCsHUR1vrdMJt_3std4hash6random13DefaultHasherNtNtCsieiGu2EXtoJ_4core4hash6Hasher9write_u32Cs4L8YLU89NU9_12synstructure, symObjAddr: 0x32E0, symBinAddr: 0x40630, symSize: 0x30 }
  - { offset: 0xC45F1, size: 0x8, addend: 0x0, symName: __RINvYINtNtNtCsieiGu2EXtoJ_4core5slice4iter4IterNtNtCsdGrGZaRBwMb_3syn8generics14WherePredicateENtNtNtNtBa_4iter6traits8iterator8Iterator6clonedBJ_ECs4L8YLU89NU9_12synstructure, symObjAddr: 0x1780, symBinAddr: 0x3ECA0, symSize: 0x20 }
  - { offset: 0xC4631, size: 0x8, addend: 0x0, symName: __RINvYINtNtNtCsieiGu2EXtoJ_4core5slice4iter4IterbENtNtNtNtBa_4iter6traits8iterator8Iterator3zipINtNtCsdGrGZaRBwMb_3syn10punctuated4IterNtNtB1z_8generics12GenericParamEECs4L8YLU89NU9_12synstructure, symObjAddr: 0x17A0, symBinAddr: 0x3ECC0, symSize: 0xD0 }
  - { offset: 0xC46B3, size: 0x8, addend: 0x0, symName: __RNvXNtNtNtCsieiGu2EXtoJ_4core4iter6traits7collectINtNtNtB6_8adapters3zip3ZipINtNtNtB8_5slice4iter4IterbEINtNtCsdGrGZaRBwMb_3syn10punctuated4IterNtNtB1J_8generics12GenericParamEENtB2_12IntoIterator9into_iterCs4L8YLU89NU9_12synstructure, symObjAddr: 0x2430, symBinAddr: 0x3F900, symSize: 0x30 }
  - { offset: 0xC46EB, size: 0x8, addend: 0x0, symName: __RNvXNtNtNtCsieiGu2EXtoJ_4core4iter6traits7collectINtNtNtB6_8adapters6cloned6ClonedINtNtCsdGrGZaRBwMb_3syn10punctuated4IterNtNtB1n_8generics14WherePredicateEENtB2_12IntoIterator9into_iterCs4L8YLU89NU9_12synstructure, symObjAddr: 0x2460, symBinAddr: 0x3F930, symSize: 0x20 }
  - { offset: 0xC4722, size: 0x8, addend: 0x0, symName: __RNvXNtNtNtCsieiGu2EXtoJ_4core4iter6traits7collectINtNtNtB6_8adapters6cloned6ClonedINtNtNtB8_5slice4iter4IterNtNtCsdGrGZaRBwMb_3syn8generics14WherePredicateEENtB2_12IntoIterator9into_iterCs4L8YLU89NU9_12synstructure, symObjAddr: 0x24A0, symBinAddr: 0x3F950, symSize: 0x20 }
  - { offset: 0xC47E2, size: 0x8, addend: 0x0, symName: __RNvXs1_NtNtNtCsieiGu2EXtoJ_4core4iter8adapters3zipINtB5_3ZipINtNtNtBb_5slice4iter4IterbEINtNtCsdGrGZaRBwMb_3syn10punctuated4IterNtNtB1t_8generics12GenericParamEEINtB5_7ZipImplBW_B1o_E3newCs4L8YLU89NU9_12synstructure, symObjAddr: 0x24F0, symBinAddr: 0x3F9A0, symSize: 0x40 }
  - { offset: 0xC482E, size: 0x8, addend: 0x0, symName: __RNvXs1_NtNtNtCsieiGu2EXtoJ_4core4iter8adapters3zipINtB5_3ZipINtNtNtBb_5slice4iter4IterbEINtNtCsdGrGZaRBwMb_3syn10punctuated4IterNtNtB1t_8generics12GenericParamEEINtB5_7ZipImplBW_B1o_E4nextCs4L8YLU89NU9_12synstructure, symObjAddr: 0x2530, symBinAddr: 0x3F9E0, symSize: 0x100 }
  - { offset: 0xC4996, size: 0x8, addend: 0x0, symName: __RNvXs_NtNtNtCsieiGu2EXtoJ_4core4iter8adapters3zipINtB4_3ZipINtNtNtBa_5slice4iter4IterbEINtNtCsdGrGZaRBwMb_3syn10punctuated4IterNtNtB1s_8generics12GenericParamEENtNtNtB8_6traits8iterator8Iterator4nextCs4L8YLU89NU9_12synstructure, symObjAddr: 0x2F40, symBinAddr: 0x40360, symSize: 0x20 }
  - { offset: 0xC49E0, size: 0x8, addend: 0x0, symName: __RNvXs_NtNtNtCsieiGu2EXtoJ_4core4iter8adapters6clonedINtB4_6ClonedINtNtCsdGrGZaRBwMb_3syn10punctuated4IterNtNtB16_8generics14WherePredicateEENtNtNtB8_6traits8iterator8Iterator4nextCs4L8YLU89NU9_12synstructure, symObjAddr: 0x2F60, symBinAddr: 0x40380, symSize: 0xB0 }
  - { offset: 0xC4A56, size: 0x8, addend: 0x0, symName: __RNvXs_NtNtNtCsieiGu2EXtoJ_4core4iter8adapters6clonedINtB4_6ClonedINtNtNtBa_5slice4iter4IterNtNtCsdGrGZaRBwMb_3syn8generics14WherePredicateEENtNtNtB8_6traits8iterator8Iterator4nextCs4L8YLU89NU9_12synstructure, symObjAddr: 0x30C0, symBinAddr: 0x40430, symSize: 0xB0 }
  - { offset: 0xC4DEE, size: 0x8, addend: 0x0, symName: __RNvXs2E_NtNtCsieiGu2EXtoJ_4core5slice4iterINtB6_4IterNtCs4L8YLU89NU9_12synstructure11BindingInfoENtNtNtNtBa_4iter6traits8iterator8Iterator4nextBR_, symObjAddr: 0x2630, symBinAddr: 0x3FAE0, symSize: 0x90 }
  - { offset: 0xC4F0F, size: 0x8, addend: 0x0, symName: __RNvXs2E_NtNtCsieiGu2EXtoJ_4core5slice4iterINtB6_4IterNtCs4L8YLU89NU9_12synstructure11VariantInfoENtNtNtNtBa_4iter6traits8iterator8Iterator4nextBR_, symObjAddr: 0x26C0, symBinAddr: 0x3FB70, symSize: 0x90 }
  - { offset: 0xC5030, size: 0x8, addend: 0x0, symName: __RNvXs2E_NtNtCsieiGu2EXtoJ_4core5slice4iterINtB6_4IterNtNtCsdGrGZaRBwMb_3syn8generics14WherePredicateENtNtNtNtBa_4iter6traits8iterator8Iterator4nextCs4L8YLU89NU9_12synstructure, symObjAddr: 0x27E0, symBinAddr: 0x3FC00, symSize: 0x90 }
  - { offset: 0xC5151, size: 0x8, addend: 0x0, symName: __RNvXs2E_NtNtCsieiGu2EXtoJ_4core5slice4iterINtB6_4IterbENtNtNtNtBa_4iter6traits8iterator8Iterator4nextCs4L8YLU89NU9_12synstructure, symObjAddr: 0x2870, symBinAddr: 0x3FC90, symSize: 0x90 }
  - { offset: 0xC5278, size: 0x8, addend: 0x0, symName: __RNvXs2F_NtNtCsieiGu2EXtoJ_4core5slice4iterINtB6_4IterTNtNtCsdGrGZaRBwMb_3syn4data7VariantNtNtBU_5token5CommaEENtNtNtNtBa_4iter6traits12double_ended19DoubleEndedIterator9next_backCs4L8YLU89NU9_12synstructure, symObjAddr: 0x2900, symBinAddr: 0x3FD20, symSize: 0x100 }
  - { offset: 0xC53C7, size: 0x8, addend: 0x0, symName: __RNvXs2F_NtNtCsieiGu2EXtoJ_4core5slice4iterINtB6_4IterTNtNtCsdGrGZaRBwMb_3syn8generics14WherePredicateNtNtBU_5token5CommaEENtNtNtNtBa_4iter6traits12double_ended19DoubleEndedIterator9next_backCs4L8YLU89NU9_12synstructure, symObjAddr: 0x2A00, symBinAddr: 0x3FE20, symSize: 0x100 }
  - { offset: 0xC5593, size: 0x8, addend: 0x0, symName: __RNvXs2M_NtNtCsieiGu2EXtoJ_4core5slice4iterINtB6_7IterMutbENtNtNtNtBa_4iter6traits8iterator8Iterator4nextCs4L8YLU89NU9_12synstructure, symObjAddr: 0x2B00, symBinAddr: 0x3FF20, symSize: 0x90 }
  - { offset: 0xC56A5, size: 0x8, addend: 0x0, symName: __RNvXs5_NtNtCsieiGu2EXtoJ_4core5slice4iterINtB5_4IterTNtNtCsdGrGZaRBwMb_3syn4data7VariantNtNtBT_5token5CommaEENtNtB9_5clone5Clone5cloneCs4L8YLU89NU9_12synstructure, symObjAddr: 0x2C30, symBinAddr: 0x40050, symSize: 0x20 }
  - { offset: 0xC56DA, size: 0x8, addend: 0x0, symName: __RNvXs5_NtNtCsieiGu2EXtoJ_4core5slice4iterINtB5_4IterTNtNtCsdGrGZaRBwMb_3syn8generics14WherePredicateNtNtBT_5token5CommaEENtNtB9_5clone5Clone5cloneCs4L8YLU89NU9_12synstructure, symObjAddr: 0x2C50, symBinAddr: 0x40070, symSize: 0x20 }
  - { offset: 0xC5854, size: 0x8, addend: 0x0, symName: __RNvMNtCsieiGu2EXtoJ_4core5sliceSb4iterCs4L8YLU89NU9_12synstructure, symObjAddr: 0x1BC0, symBinAddr: 0x3F0E0, symSize: 0x20 }
  - { offset: 0xC5896, size: 0x8, addend: 0x0, symName: __RNvNvNtNtCsieiGu2EXtoJ_4core5slice3raw14from_raw_parts18precondition_checkCs4L8YLU89NU9_12synstructure, symObjAddr: 0x1ED0, symBinAddr: 0x3F3A0, symSize: 0x260 }
  - { offset: 0xC5A64, size: 0x8, addend: 0x0, symName: __RNvNvNtNtCsieiGu2EXtoJ_4core5slice3raw18from_raw_parts_mut18precondition_checkCs4L8YLU89NU9_12synstructure, symObjAddr: 0x2130, symBinAddr: 0x3F600, symSize: 0x260 }
  - { offset: 0xC5D16, size: 0x8, addend: 0x0, symName: __RNvNvMNtNtCsieiGu2EXtoJ_4core5alloc6layoutNtB4_6Layout25from_size_align_unchecked18precondition_checkCs4L8YLU89NU9_12synstructure, symObjAddr: 0x1E20, symBinAddr: 0x3F2F0, symSize: 0xB0 }
  - { offset: 0xC5F58, size: 0x8, addend: 0x0, symName: __RNvXNtCsieiGu2EXtoJ_4core6borrowNtNtCsdGrGZaRBwMb_3syn2ty4TypeINtB2_6BorrowBu_E6borrowCs4L8YLU89NU9_12synstructure, symObjAddr: 0x2420, symBinAddr: 0x3F8F0, symSize: 0x10 }
  - { offset: 0xC6193, size: 0x8, addend: 0x0, symName: __RNvXs0_NtCs9OU1sGv5X54_5quote7spannedNtNtCsdGrGZaRBwMb_3syn4data5FieldNtB5_7Spanned6___spanCs4L8YLU89NU9_12synstructure, symObjAddr: 0x24C0, symBinAddr: 0x3F970, symSize: 0x30 }
  - { offset: 0xC61D4, size: 0x8, addend: 0x0, symName: __RNvYRNtNtCsdGrGZaRBwMb_3syn4data5FieldNtNtCs9OU1sGv5X54_5quote9to_tokens8ToTokens15to_token_streamCs4L8YLU89NU9_12synstructure, symObjAddr: 0x3310, symBinAddr: 0x40660, symSize: 0x90 }
  - { offset: 0xC621E, size: 0x8, addend: 0x0, symName: __RNvYRNtNtCsdGrGZaRBwMb_3syn4data5FieldNtNtCs9OU1sGv5X54_5quote9to_tokens8ToTokens17into_token_streamCs4L8YLU89NU9_12synstructure, symObjAddr: 0x33A0, symBinAddr: 0x406F0, symSize: 0x50 }
  - { offset: 0xC6270, size: 0x8, addend: 0x0, symName: __RINvMNtNtCsieiGu2EXtoJ_4core3fmt2rtNtB3_8Argument11new_displayINtNtCs9OU1sGv5X54_5quote9___private20IdentFragmentAdapterRjEECs4L8YLU89NU9_12synstructure, symObjAddr: 0x0, symBinAddr: 0x3D540, symSize: 0x30 }
  - { offset: 0xC7132, size: 0x8, addend: 0x0, symName: __RINvMNtNtCsieiGu2EXtoJ_4core3fmt2rtNtB3_8Argument11new_displayNtCsaKzlTDPUHDb_11proc_macro211TokenStreamECs4L8YLU89NU9_12synstructure, symObjAddr: 0x30, symBinAddr: 0x3D570, symSize: 0x30 }
  - { offset: 0xC7356, size: 0x8, addend: 0x0, symName: __RNvXCsjK30CmJ87bX_9hashbrownNtNtCsdGrGZaRBwMb_3syn2ty4TypeINtB2_10EquivalentBq_E10equivalentCs4L8YLU89NU9_12synstructure, symObjAddr: 0x23B0, symBinAddr: 0x3F880, symSize: 0x50 }
  - { offset: 0xCA7F7, size: 0x8, addend: 0x0, symName: __RINvXsA_NtCsdGrGZaRBwMb_3syn3litNtB6_7LitCharNtNtCsieiGu2EXtoJ_4core4hash4Hash4hashNtNtNtCsHUR1vrdMJt_3std4hash6random13DefaultHasherECs4L8YLU89NU9_12synstructure, symObjAddr: 0xFF0, symBinAddr: 0x3E530, symSize: 0xC0 }
  - { offset: 0xCA83F, size: 0x8, addend: 0x0, symName: __RINvXsD_NtCsdGrGZaRBwMb_3syn3litNtB6_6LitIntNtNtCsieiGu2EXtoJ_4core4hash4Hash4hashNtNtNtCsHUR1vrdMJt_3std4hash6random13DefaultHasherECs4L8YLU89NU9_12synstructure, symObjAddr: 0x10B0, symBinAddr: 0x3E5F0, symSize: 0xC0 }
  - { offset: 0xCA887, size: 0x8, addend: 0x0, symName: __RINvXsG_NtCsdGrGZaRBwMb_3syn3litNtB6_8LitFloatNtNtCsieiGu2EXtoJ_4core4hash4Hash4hashNtNtNtCsHUR1vrdMJt_3std4hash6random13DefaultHasherECs4L8YLU89NU9_12synstructure, symObjAddr: 0x1170, symBinAddr: 0x3E6B0, symSize: 0xC0 }
  - { offset: 0xCA8CF, size: 0x8, addend: 0x0, symName: __RINvXso_NtCsdGrGZaRBwMb_3syn3litNtB6_6LitStrNtNtCsieiGu2EXtoJ_4core4hash4Hash4hashNtNtNtCsHUR1vrdMJt_3std4hash6random13DefaultHasherECs4L8YLU89NU9_12synstructure, symObjAddr: 0x1460, symBinAddr: 0x3E9A0, symSize: 0xC0 }
  - { offset: 0xCA917, size: 0x8, addend: 0x0, symName: __RINvXsr_NtCsdGrGZaRBwMb_3syn3litNtB6_10LitByteStrNtNtCsieiGu2EXtoJ_4core4hash4Hash4hashNtNtNtCsHUR1vrdMJt_3std4hash6random13DefaultHasherECs4L8YLU89NU9_12synstructure, symObjAddr: 0x1520, symBinAddr: 0x3EA60, symSize: 0xC0 }
  - { offset: 0xCA95F, size: 0x8, addend: 0x0, symName: __RINvXsu_NtCsdGrGZaRBwMb_3syn3litNtB6_7LitCStrNtNtCsieiGu2EXtoJ_4core4hash4Hash4hashNtNtNtCsHUR1vrdMJt_3std4hash6random13DefaultHasherECs4L8YLU89NU9_12synstructure, symObjAddr: 0x15E0, symBinAddr: 0x3EB20, symSize: 0xC0 }
  - { offset: 0xCA9A7, size: 0x8, addend: 0x0, symName: __RINvXsx_NtCsdGrGZaRBwMb_3syn3litNtB6_7LitByteNtNtCsieiGu2EXtoJ_4core4hash4Hash4hashNtNtNtCsHUR1vrdMJt_3std4hash6random13DefaultHasherECs4L8YLU89NU9_12synstructure, symObjAddr: 0x16A0, symBinAddr: 0x3EBE0, symSize: 0xC0 }
  - { offset: 0xCC22A, size: 0x8, addend: 0x0, symName: __RINvXNtNtCsdGrGZaRBwMb_3syn3gen4hashNtNtB7_2ty3AbiNtNtCsieiGu2EXtoJ_4core4hash4Hash4hashNtNtNtCsHUR1vrdMJt_3std4hash6random13DefaultHasherECs4L8YLU89NU9_12synstructure, symObjAddr: 0xB0, symBinAddr: 0x3D5F0, symSize: 0x30 }
  - { offset: 0xCC26F, size: 0x8, addend: 0x0, symName: __RINvXs10_NtNtCsdGrGZaRBwMb_3syn3gen4hashNtNtBb_4data6FieldsNtNtCsieiGu2EXtoJ_4core4hash4Hash4hashNtNtNtCsHUR1vrdMJt_3std4hash6random13DefaultHasherECs4L8YLU89NU9_12synstructure, symObjAddr: 0x110, symBinAddr: 0x3D650, symSize: 0xC0 }
  - { offset: 0xCC2F3, size: 0x8, addend: 0x0, symName: __RINvXs11_NtNtCsdGrGZaRBwMb_3syn3gen4hashNtNtBb_4data11FieldsNamedNtNtCsieiGu2EXtoJ_4core4hash4Hash4hashNtNtNtCsHUR1vrdMJt_3std4hash6random13DefaultHasherECs4L8YLU89NU9_12synstructure, symObjAddr: 0x1D0, symBinAddr: 0x3D710, symSize: 0x30 }
  - { offset: 0xCC33B, size: 0x8, addend: 0x0, symName: __RINvXs12_NtNtCsdGrGZaRBwMb_3syn3gen4hashNtNtBb_4data13FieldsUnnamedNtNtCsieiGu2EXtoJ_4core4hash4Hash4hashNtNtNtCsHUR1vrdMJt_3std4hash6random13DefaultHasherECs4L8YLU89NU9_12synstructure, symObjAddr: 0x200, symBinAddr: 0x3D740, symSize: 0x30 }
  - { offset: 0xCC383, size: 0x8, addend: 0x0, symName: __RINvXs1B_NtNtCsdGrGZaRBwMb_3syn3gen4hashNtNtBb_3lit3LitNtNtCsieiGu2EXtoJ_4core4hash4Hash4hashNtNtNtCsHUR1vrdMJt_3std4hash6random13DefaultHasherECs4L8YLU89NU9_12synstructure, symObjAddr: 0x230, symBinAddr: 0x3D770, symSize: 0x350 }
  - { offset: 0xCC4D6, size: 0x8, addend: 0x0, symName: __RINvXs1C_NtNtCsdGrGZaRBwMb_3syn3gen4hashNtNtBb_3lit7LitBoolNtNtCsieiGu2EXtoJ_4core4hash4Hash4hashNtNtNtCsHUR1vrdMJt_3std4hash6random13DefaultHasherECs4L8YLU89NU9_12synstructure, symObjAddr: 0x580, symBinAddr: 0x3DAC0, symSize: 0x30 }
  - { offset: 0xCC51E, size: 0x8, addend: 0x0, symName: __RINvXs27_NtNtCsdGrGZaRBwMb_3syn3gen4hashNtNtBb_2ty10ReturnTypeNtNtCsieiGu2EXtoJ_4core4hash4Hash4hashNtNtNtCsHUR1vrdMJt_3std4hash6random13DefaultHasherECs4L8YLU89NU9_12synstructure, symObjAddr: 0x5B0, symBinAddr: 0x3DAF0, symSize: 0x80 }
  - { offset: 0xCC57C, size: 0x8, addend: 0x0, symName: __RINvXs2I_NtNtCsdGrGZaRBwMb_3syn3gen4hashNtNtBb_4data7VariantNtNtCsieiGu2EXtoJ_4core4hash4Hash4hashNtNtNtCsHUR1vrdMJt_3std4hash6random13DefaultHasherECs4L8YLU89NU9_12synstructure, symObjAddr: 0x630, symBinAddr: 0x3DB70, symSize: 0x70 }
  - { offset: 0xCC5C4, size: 0x8, addend: 0x0, symName: __RINvXs2j_NtNtCsdGrGZaRBwMb_3syn3gen4hashNtNtBb_2ty4TypeNtNtCsieiGu2EXtoJ_4core4hash4Hash4hashNtNtNtCsHUR1vrdMJt_3std4hash6random13DefaultHasherECs4L8YLU89NU9_12synstructure, symObjAddr: 0x6A0, symBinAddr: 0x3DBE0, symSize: 0x4D0 }
  - { offset: 0xCC7CF, size: 0x8, addend: 0x0, symName: __RINvXs2k_NtNtCsdGrGZaRBwMb_3syn3gen4hashNtNtBb_2ty9TypeArrayNtNtCsieiGu2EXtoJ_4core4hash4Hash4hashNtNtNtCsHUR1vrdMJt_3std4hash6random13DefaultHasherECs4L8YLU89NU9_12synstructure, symObjAddr: 0xB70, symBinAddr: 0x3E0B0, symSize: 0x40 }
  - { offset: 0xCC817, size: 0x8, addend: 0x0, symName: __RINvXs2l_NtNtCsdGrGZaRBwMb_3syn3gen4hashNtNtBb_2ty10TypeBareFnNtNtCsieiGu2EXtoJ_4core4hash4Hash4hashNtNtNtCsHUR1vrdMJt_3std4hash6random13DefaultHasherECs4L8YLU89NU9_12synstructure, symObjAddr: 0xBB0, symBinAddr: 0x3E0F0, symSize: 0x90 }
  - { offset: 0xCC85F, size: 0x8, addend: 0x0, symName: __RINvXs2m_NtNtCsdGrGZaRBwMb_3syn3gen4hashNtNtBb_2ty9TypeGroupNtNtCsieiGu2EXtoJ_4core4hash4Hash4hashNtNtNtCsHUR1vrdMJt_3std4hash6random13DefaultHasherECs4L8YLU89NU9_12synstructure, symObjAddr: 0xC40, symBinAddr: 0x3E180, symSize: 0x30 }
  - { offset: 0xCC8A7, size: 0x8, addend: 0x0, symName: __RINvXs2n_NtNtCsdGrGZaRBwMb_3syn3gen4hashNtNtBb_2ty13TypeImplTraitNtNtCsieiGu2EXtoJ_4core4hash4Hash4hashNtNtNtCsHUR1vrdMJt_3std4hash6random13DefaultHasherECs4L8YLU89NU9_12synstructure, symObjAddr: 0xC70, symBinAddr: 0x3E1B0, symSize: 0x30 }
  - { offset: 0xCC8EF, size: 0x8, addend: 0x0, symName: __RINvXs2o_NtNtCsdGrGZaRBwMb_3syn3gen4hashNtNtBb_2ty9TypeInferNtNtCsieiGu2EXtoJ_4core4hash4Hash4hashNtNtNtCsHUR1vrdMJt_3std4hash6random13DefaultHasherECs4L8YLU89NU9_12synstructure, symObjAddr: 0xCA0, symBinAddr: 0x3E1E0, symSize: 0x20 }
  - { offset: 0xCC937, size: 0x8, addend: 0x0, symName: __RINvXs2p_NtNtCsdGrGZaRBwMb_3syn3gen4hashNtNtBb_2ty9TypeMacroNtNtCsieiGu2EXtoJ_4core4hash4Hash4hashNtNtNtCsHUR1vrdMJt_3std4hash6random13DefaultHasherECs4L8YLU89NU9_12synstructure, symObjAddr: 0xCC0, symBinAddr: 0x3E200, symSize: 0x30 }
  - { offset: 0xCC97F, size: 0x8, addend: 0x0, symName: __RINvXs2q_NtNtCsdGrGZaRBwMb_3syn3gen4hashNtNtBb_2ty9TypeNeverNtNtCsieiGu2EXtoJ_4core4hash4Hash4hashNtNtNtCsHUR1vrdMJt_3std4hash6random13DefaultHasherECs4L8YLU89NU9_12synstructure, symObjAddr: 0xCF0, symBinAddr: 0x3E230, symSize: 0x20 }
  - { offset: 0xCC9C7, size: 0x8, addend: 0x0, symName: __RINvXs2t_NtNtCsdGrGZaRBwMb_3syn3gen4hashNtNtBb_2ty9TypeParenNtNtCsieiGu2EXtoJ_4core4hash4Hash4hashNtNtNtCsHUR1vrdMJt_3std4hash6random13DefaultHasherECs4L8YLU89NU9_12synstructure, symObjAddr: 0xD10, symBinAddr: 0x3E250, symSize: 0x30 }
  - { offset: 0xCCA0F, size: 0x8, addend: 0x0, symName: __RINvXs2u_NtNtCsdGrGZaRBwMb_3syn3gen4hashNtNtBb_2ty8TypePathNtNtCsieiGu2EXtoJ_4core4hash4Hash4hashNtNtNtCsHUR1vrdMJt_3std4hash6random13DefaultHasherECs4L8YLU89NU9_12synstructure, symObjAddr: 0xD40, symBinAddr: 0x3E280, symSize: 0x40 }
  - { offset: 0xCCA57, size: 0x8, addend: 0x0, symName: __RINvXs2v_NtNtCsdGrGZaRBwMb_3syn3gen4hashNtNtBb_2ty7TypePtrNtNtCsieiGu2EXtoJ_4core4hash4Hash4hashNtNtNtCsHUR1vrdMJt_3std4hash6random13DefaultHasherECs4L8YLU89NU9_12synstructure, symObjAddr: 0xD80, symBinAddr: 0x3E2C0, symSize: 0x50 }
  - { offset: 0xCCA9F, size: 0x8, addend: 0x0, symName: __RINvXs2w_NtNtCsdGrGZaRBwMb_3syn3gen4hashNtNtBb_2ty13TypeReferenceNtNtCsieiGu2EXtoJ_4core4hash4Hash4hashNtNtNtCsHUR1vrdMJt_3std4hash6random13DefaultHasherECs4L8YLU89NU9_12synstructure, symObjAddr: 0xDD0, symBinAddr: 0x3E310, symSize: 0x50 }
  - { offset: 0xCCAE7, size: 0x8, addend: 0x0, symName: __RINvXs2x_NtNtCsdGrGZaRBwMb_3syn3gen4hashNtNtBb_2ty9TypeSliceNtNtCsieiGu2EXtoJ_4core4hash4Hash4hashNtNtNtCsHUR1vrdMJt_3std4hash6random13DefaultHasherECs4L8YLU89NU9_12synstructure, symObjAddr: 0xE20, symBinAddr: 0x3E360, symSize: 0x30 }
  - { offset: 0xCCB2F, size: 0x8, addend: 0x0, symName: __RINvXs2y_NtNtCsdGrGZaRBwMb_3syn3gen4hashNtNtBb_2ty15TypeTraitObjectNtNtCsieiGu2EXtoJ_4core4hash4Hash4hashNtNtNtCsHUR1vrdMJt_3std4hash6random13DefaultHasherECs4L8YLU89NU9_12synstructure, symObjAddr: 0xE50, symBinAddr: 0x3E390, symSize: 0x40 }
  - { offset: 0xCCB77, size: 0x8, addend: 0x0, symName: __RINvXs2z_NtNtCsdGrGZaRBwMb_3syn3gen4hashNtNtBb_2ty9TypeTupleNtNtCsieiGu2EXtoJ_4core4hash4Hash4hashNtNtNtCsHUR1vrdMJt_3std4hash6random13DefaultHasherECs4L8YLU89NU9_12synstructure, symObjAddr: 0xE90, symBinAddr: 0x3E3D0, symSize: 0x30 }
  - { offset: 0xCCBBF, size: 0x8, addend: 0x0, symName: __RINvXs5_NtNtCsdGrGZaRBwMb_3syn3gen4hashNtNtBa_2ty9BareFnArgNtNtCsieiGu2EXtoJ_4core4hash4Hash4hashNtNtNtCsHUR1vrdMJt_3std4hash6random13DefaultHasherECs4L8YLU89NU9_12synstructure, symObjAddr: 0xEE0, symBinAddr: 0x3E420, symSize: 0x60 }
  - { offset: 0xCCC04, size: 0x8, addend: 0x0, symName: __RINvXs6_NtNtCsdGrGZaRBwMb_3syn3gen4hashNtNtBa_2ty12BareVariadicNtNtCsieiGu2EXtoJ_4core4hash4Hash4hashNtNtNtCsHUR1vrdMJt_3std4hash6random13DefaultHasherECs4L8YLU89NU9_12synstructure, symObjAddr: 0xF40, symBinAddr: 0x3E480, symSize: 0x50 }
  - { offset: 0xCCC49, size: 0x8, addend: 0x0, symName: __RINvXsW_NtNtCsdGrGZaRBwMb_3syn3gen4hashNtNtBa_4data5FieldNtNtCsieiGu2EXtoJ_4core4hash4Hash4hashNtNtNtCsHUR1vrdMJt_3std4hash6random13DefaultHasherECs4L8YLU89NU9_12synstructure, symObjAddr: 0x1230, symBinAddr: 0x3E770, symSize: 0x90 }
  - { offset: 0xCCCDA, size: 0x8, addend: 0x0, symName: __RNvXNtCsdGrGZaRBwMb_3syn7spannedNtNtB4_4data5FieldNtB2_7Spanned4spanCs4L8YLU89NU9_12synstructure, symObjAddr: 0x2400, symBinAddr: 0x3F8D0, symSize: 0x20 }
  - { offset: 0xCD227, size: 0x8, addend: 0x0, symName: __RNCNkNvNvMNtNtCsHUR1vrdMJt_3std4hash6randomNtB8_11RandomState3new4KEYS0s_0Cs4L8YLU89NU9_12synstructure, symObjAddr: 0x1B70, symBinAddr: 0x3F090, symSize: 0x30 }
  - { offset: 0xCD265, size: 0x8, addend: 0x0, symName: __RNvNvNvMNtNtCsHUR1vrdMJt_3std4hash6randomNtB6_11RandomState3new4KEYS6___initCs4L8YLU89NU9_12synstructure, symObjAddr: 0x2390, symBinAddr: 0x3F860, symSize: 0x20 }
  - { offset: 0xCD283, size: 0x8, addend: 0x0, symName: __RNCNvMNtNtCsHUR1vrdMJt_3std4hash6randomNtB4_11RandomState3new0Cs4L8YLU89NU9_12synstructure, symObjAddr: 0x1BA0, symBinAddr: 0x3F0C0, symSize: 0x20 }
  - { offset: 0xCD348, size: 0x8, addend: 0x0, symName: __RNvXs2_NtNtCsHUR1vrdMJt_3std4hash6randomNtB5_13DefaultHasherNtNtCsieiGu2EXtoJ_4core4hash6Hasher5writeCs4L8YLU89NU9_12synstructure, symObjAddr: 0x2B90, symBinAddr: 0x3FFB0, symSize: 0x30 }
  - { offset: 0xCD3A3, size: 0x8, addend: 0x0, symName: __RNvXs2_NtNtCsHUR1vrdMJt_3std4hash6randomNtB5_13DefaultHasherNtNtCsieiGu2EXtoJ_4core4hash6Hasher6finishCs4L8YLU89NU9_12synstructure, symObjAddr: 0x2BC0, symBinAddr: 0x3FFE0, symSize: 0x20 }
  - { offset: 0xCD3EC, size: 0x8, addend: 0x0, symName: __RNvXs2_NtNtCsHUR1vrdMJt_3std4hash6randomNtB5_13DefaultHasherNtNtCsieiGu2EXtoJ_4core4hash6Hasher9write_strCs4L8YLU89NU9_12synstructure, symObjAddr: 0x2BE0, symBinAddr: 0x40000, symSize: 0x30 }
  - { offset: 0xCD44D, size: 0x8, addend: 0x0, symName: __RNvXs3_NtNtCsHUR1vrdMJt_3std4hash6randomNtB5_11RandomStateNtNtCsieiGu2EXtoJ_4core7default7Default7defaultCs4L8YLU89NU9_12synstructure, symObjAddr: 0x2C10, symBinAddr: 0x40030, symSize: 0x20 }
  - { offset: 0xCD485, size: 0x8, addend: 0x0, symName: __RNvXs_NtNtCsHUR1vrdMJt_3std4hash6randomNtB4_11RandomStateNtNtCsieiGu2EXtoJ_4core4hash11BuildHasher12build_hasherCs4L8YLU89NU9_12synstructure, symObjAddr: 0x2E50, symBinAddr: 0x40270, symSize: 0xF0 }
  - { offset: 0xCD725, size: 0x8, addend: 0x0, symName: __RINvMs0_NtNtNtCsHUR1vrdMJt_3std11collections4hash3setINtB6_7HashSetNtNtCsdGrGZaRBwMb_3syn2ty4TypeE8containsB13_ECs4L8YLU89NU9_12synstructure, symObjAddr: 0x60, symBinAddr: 0x3D5A0, symSize: 0x50 }
  - { offset: 0xCDCB8, size: 0x8, addend: 0x0, symName: __RNvMNtNtNtCsHUR1vrdMJt_3std11collections4hash3setINtB2_7HashSetNtNtCsdGrGZaRBwMb_3syn2ty4TypeE3newCs4L8YLU89NU9_12synstructure, symObjAddr: 0x1BE0, symBinAddr: 0x3F100, symSize: 0x50 }
  - { offset: 0xCDD98, size: 0x8, addend: 0x0, symName: __RNvMs0_NtNtNtCsHUR1vrdMJt_3std11collections4hash3setINtB5_7HashSetNtNtCsdGrGZaRBwMb_3syn2ty4TypeE6insertCs4L8YLU89NU9_12synstructure, symObjAddr: 0x1C30, symBinAddr: 0x3F150, symSize: 0x40 }
  - { offset: 0xCDE68, size: 0x8, addend: 0x0, symName: __RNvMs10_NtNtCsieiGu2EXtoJ_4core9core_arch3x86NtB6_7___m128i8as_i8x16Cs4L8YLU89NU9_12synstructure, symObjAddr: 0x1C70, symBinAddr: 0x3F190, symSize: 0x20 }
  - { offset: 0xCDF61, size: 0x8, addend: 0x0, symName: __RNvMs4_NtNtCsieiGu2EXtoJ_4core5slice4iterINtB5_4IterNtNtCsdGrGZaRBwMb_3syn8generics14WherePredicateE3newCs4L8YLU89NU9_12synstructure, symObjAddr: 0x1CE0, symBinAddr: 0x3F1B0, symSize: 0x50 }
  - { offset: 0xCE10E, size: 0x8, addend: 0x0, symName: __RNvMs4_NtNtCsieiGu2EXtoJ_4core5slice4iterINtB5_4IterbE3newCs4L8YLU89NU9_12synstructure, symObjAddr: 0x1D30, symBinAddr: 0x3F200, symSize: 0x50 }
  - { offset: 0xCF1DE, size: 0x8, addend: 0x0, symName: __RNvXs1e_CscKtU6MdFI5n_10proc_macroNtB6_5IdentNtNtCsieiGu2EXtoJ_4core5clone5Clone5cloneCs4L8YLU89NU9_12synstructure, symObjAddr: 0x3B20, symBinAddr: 0x43B40, symSize: 0x40 }
  - { offset: 0xCF212, size: 0x8, addend: 0x0, symName: __RNvXsU_CscKtU6MdFI5n_10proc_macroNtB5_11TokenStreamNtNtCsieiGu2EXtoJ_4core5clone5Clone5cloneCs4L8YLU89NU9_12synstructure, symObjAddr: 0x3CA0, symBinAddr: 0x43C40, symSize: 0x50 }
  - { offset: 0xD050D, size: 0x8, addend: 0x0, symName: __RINvNtCsieiGu2EXtoJ_4core3ptr10swap_chunkKj1_ECs4L8YLU89NU9_12synstructure, symObjAddr: 0x250, symBinAddr: 0x40830, symSize: 0x30 }
  - { offset: 0xD0546, size: 0x8, addend: 0x0, symName: __RINvNtCsieiGu2EXtoJ_4core3ptr10swap_chunkKj2_ECs4L8YLU89NU9_12synstructure, symObjAddr: 0x280, symBinAddr: 0x40860, symSize: 0x30 }
  - { offset: 0xD057F, size: 0x8, addend: 0x0, symName: __RINvNtCsieiGu2EXtoJ_4core3ptr10swap_chunkKj4_ECs4L8YLU89NU9_12synstructure, symObjAddr: 0x2B0, symBinAddr: 0x40890, symSize: 0x30 }
  - { offset: 0xD05B8, size: 0x8, addend: 0x0, symName: __RINvNtCsieiGu2EXtoJ_4core3ptr10swap_chunkKj8_ECs4L8YLU89NU9_12synstructure, symObjAddr: 0x2E0, symBinAddr: 0x408C0, symSize: 0x30 }
  - { offset: 0xD05F1, size: 0x8, addend: 0x0, symName: __RINvNtCsieiGu2EXtoJ_4core3ptr13drop_in_placeINtNtB4_6option4ItemINtNtCsdGrGZaRBwMb_3syn10punctuated4PairNtNtB15_8generics14TypeParamBoundNtNtB15_5token4PlusEEECs4L8YLU89NU9_12synstructure, symObjAddr: 0x310, symBinAddr: 0x408F0, symSize: 0x20 }
  - { offset: 0xD0620, size: 0x8, addend: 0x0, symName: __RINvNtCsieiGu2EXtoJ_4core3ptr13drop_in_placeINtNtB4_6option6OptionINtNtCsdGrGZaRBwMb_3syn10punctuated4PairNtNtB17_8generics14TypeParamBoundNtNtB17_5token4PlusEEECs4L8YLU89NU9_12synstructure, symObjAddr: 0x330, symBinAddr: 0x40910, symSize: 0x40 }
  - { offset: 0xD064F, size: 0x8, addend: 0x0, symName: __RINvNtCsieiGu2EXtoJ_4core3ptr13drop_in_placeINtNtB4_6option8IntoIterINtNtCsdGrGZaRBwMb_3syn10punctuated4PairNtNtB19_8generics14TypeParamBoundNtNtB19_5token4PlusEEECs4L8YLU89NU9_12synstructure, symObjAddr: 0x370, symBinAddr: 0x40950, symSize: 0x20 }
  - { offset: 0xD067E, size: 0x8, addend: 0x0, symName: __RINvNtCsieiGu2EXtoJ_4core3ptr13drop_in_placeINtNtB4_6result6ResultNtCsaKzlTDPUHDb_11proc_macro211TokenStreamNtNtCsdGrGZaRBwMb_3syn5error5ErrorEECs4L8YLU89NU9_12synstructure, symObjAddr: 0x390, symBinAddr: 0x40970, symSize: 0x50 }
  - { offset: 0xD06AD, size: 0x8, addend: 0x0, symName: __RINvNtCsieiGu2EXtoJ_4core3ptr13drop_in_placeINtNtCsdGrGZaRBwMb_3syn10punctuated4IterNtNtBL_4data5FieldEECs4L8YLU89NU9_12synstructure, symObjAddr: 0x3E0, symBinAddr: 0x409C0, symSize: 0x20 }
  - { offset: 0xD06DC, size: 0x8, addend: 0x0, symName: __RINvNtCsieiGu2EXtoJ_4core3ptr13drop_in_placeINtNtCsdGrGZaRBwMb_3syn10punctuated4IterNtNtBL_4data7VariantEECs4L8YLU89NU9_12synstructure, symObjAddr: 0x400, symBinAddr: 0x409E0, symSize: 0x20 }
  - { offset: 0xD070B, size: 0x8, addend: 0x0, symName: __RINvNtCsieiGu2EXtoJ_4core3ptr13drop_in_placeINtNtCsdGrGZaRBwMb_3syn10punctuated4IterNtNtBL_8generics12GenericParamEECs4L8YLU89NU9_12synstructure, symObjAddr: 0x420, symBinAddr: 0x40A00, symSize: 0x20 }
  - { offset: 0xD073A, size: 0x8, addend: 0x0, symName: __RINvNtCsieiGu2EXtoJ_4core3ptr13drop_in_placeINtNtCsdGrGZaRBwMb_3syn10punctuated4IterNtNtBL_8generics14WherePredicateEECs4L8YLU89NU9_12synstructure, symObjAddr: 0x440, symBinAddr: 0x40A20, symSize: 0x20 }
  - { offset: 0xD0769, size: 0x8, addend: 0x0, symName: __RINvNtCsieiGu2EXtoJ_4core3ptr13drop_in_placeINtNtCsdGrGZaRBwMb_3syn10punctuated4PairNtNtBL_8generics14TypeParamBoundNtNtBL_5token4PlusEECs4L8YLU89NU9_12synstructure, symObjAddr: 0x460, symBinAddr: 0x40A40, symSize: 0x50 }
  - { offset: 0xD0798, size: 0x8, addend: 0x0, symName: __RINvNtCsieiGu2EXtoJ_4core3ptr13drop_in_placeINtNtCsjK30CmJ87bX_9hashbrown10scopeguard10ScopeGuardNtNtBL_3raw13RawTableInnerNCINvMsa_B1z_B1x_14prepare_resizeNtNtCslJiobkLta79_5alloc5alloc6GlobalE0EECs4L8YLU89NU9_12synstructure, symObjAddr: 0x4B0, symBinAddr: 0x40A90, symSize: 0x20 }
  - { offset: 0xD07C7, size: 0x8, addend: 0x0, symName: __RINvNtCsieiGu2EXtoJ_4core3ptr13drop_in_placeINtNtCsjK30CmJ87bX_9hashbrown10scopeguard10ScopeGuardQNtNtBL_3raw13RawTableInnerNCNvMsa_B1A_B1y_15rehash_in_place0EECs4L8YLU89NU9_12synstructure, symObjAddr: 0x4D0, symBinAddr: 0x40AB0, symSize: 0x20 }
  - { offset: 0xD07F6, size: 0x8, addend: 0x0, symName: __RINvNtCsieiGu2EXtoJ_4core3ptr13drop_in_placeINtNtCsjK30CmJ87bX_9hashbrown3map7HashMapNtNtCsdGrGZaRBwMb_3syn2ty4TypeuNtNtNtCsHUR1vrdMJt_3std4hash6random11RandomStateEECs4L8YLU89NU9_12synstructure, symObjAddr: 0x4F0, symBinAddr: 0x40AD0, symSize: 0x20 }
  - { offset: 0xD0825, size: 0x8, addend: 0x0, symName: __RINvNtCsieiGu2EXtoJ_4core3ptr13drop_in_placeINtNtCsjK30CmJ87bX_9hashbrown3raw8RawTableTNtNtCsdGrGZaRBwMb_3syn2ty4TypeuEEECs4L8YLU89NU9_12synstructure, symObjAddr: 0x510, symBinAddr: 0x40AF0, symSize: 0x20 }
  - { offset: 0xD0854, size: 0x8, addend: 0x0, symName: __RINvNtCsieiGu2EXtoJ_4core3ptr13drop_in_placeINtNtCsjK30CmJ87bX_9hashbrown3set7HashSetNtNtCsdGrGZaRBwMb_3syn2ty4TypeNtNtNtCsHUR1vrdMJt_3std4hash6random11RandomStateEECs4L8YLU89NU9_12synstructure, symObjAddr: 0x530, symBinAddr: 0x40B10, symSize: 0x20 }
  - { offset: 0xD0883, size: 0x8, addend: 0x0, symName: __RINvNtCsieiGu2EXtoJ_4core3ptr13drop_in_placeINtNtCslJiobkLta79_5alloc3vec3VecNtCs4L8YLU89NU9_12synstructure11BindingInfoEEB1f_, symObjAddr: 0x550, symBinAddr: 0x40B30, symSize: 0x50 }
  - { offset: 0xD08B2, size: 0x8, addend: 0x0, symName: __RINvNtCsieiGu2EXtoJ_4core3ptr13drop_in_placeINtNtCslJiobkLta79_5alloc3vec3VecNtCs4L8YLU89NU9_12synstructure11VariantInfoEEB1f_, symObjAddr: 0x5A0, symBinAddr: 0x40B80, symSize: 0x50 }
  - { offset: 0xD08E1, size: 0x8, addend: 0x0, symName: __RINvNtCsieiGu2EXtoJ_4core3ptr13drop_in_placeINtNtCslJiobkLta79_5alloc3vec3VecNtNtCsdGrGZaRBwMb_3syn8generics12GenericParamEECs4L8YLU89NU9_12synstructure, symObjAddr: 0x5F0, symBinAddr: 0x40BD0, symSize: 0x50 }
  - { offset: 0xD0910, size: 0x8, addend: 0x0, symName: __RINvNtCsieiGu2EXtoJ_4core3ptr13drop_in_placeINtNtCslJiobkLta79_5alloc3vec3VecRNtCsaKzlTDPUHDb_11proc_macro25IdentEECs4L8YLU89NU9_12synstructure, symObjAddr: 0x640, symBinAddr: 0x40C20, symSize: 0x50 }
  - { offset: 0xD093F, size: 0x8, addend: 0x0, symName: __RINvNtCsieiGu2EXtoJ_4core3ptr13drop_in_placeINtNtCslJiobkLta79_5alloc3vec3VecbEECs4L8YLU89NU9_12synstructure, symObjAddr: 0x690, symBinAddr: 0x40C70, symSize: 0x50 }
  - { offset: 0xD096E, size: 0x8, addend: 0x0, symName: __RINvNtCsieiGu2EXtoJ_4core3ptr13drop_in_placeINtNtCslJiobkLta79_5alloc5boxed3BoxINtNtCsdGrGZaRBwMb_3syn5drops6NoDropDINtNtB1k_10punctuated9IterTraitNtNtB1k_4data5FieldEp4ItemRB2l_EL_EEECs4L8YLU89NU9_12synstructure, symObjAddr: 0x6E0, symBinAddr: 0x40CC0, symSize: 0x20 }
  - { offset: 0xD099D, size: 0x8, addend: 0x0, symName: __RINvNtCsieiGu2EXtoJ_4core3ptr13drop_in_placeINtNtCslJiobkLta79_5alloc5boxed3BoxINtNtCsdGrGZaRBwMb_3syn5drops6NoDropDINtNtB1k_10punctuated9IterTraitNtNtB1k_4data7VariantEp4ItemRB2l_EL_EEECs4L8YLU89NU9_12synstructure, symObjAddr: 0x700, symBinAddr: 0x40CE0, symSize: 0x20 }
  - { offset: 0xD09CC, size: 0x8, addend: 0x0, symName: __RINvNtCsieiGu2EXtoJ_4core3ptr13drop_in_placeINtNtCslJiobkLta79_5alloc5boxed3BoxINtNtCsdGrGZaRBwMb_3syn5drops6NoDropDINtNtB1k_10punctuated9IterTraitNtNtB1k_8generics12GenericParamEp4ItemRB2l_EL_EEECs4L8YLU89NU9_12synstructure, symObjAddr: 0x720, symBinAddr: 0x40D00, symSize: 0x20 }
  - { offset: 0xD09FB, size: 0x8, addend: 0x0, symName: __RINvNtCsieiGu2EXtoJ_4core3ptr13drop_in_placeINtNtCslJiobkLta79_5alloc5boxed3BoxINtNtCsdGrGZaRBwMb_3syn5drops6NoDropDINtNtB1k_10punctuated9IterTraitNtNtB1k_8generics14WherePredicateEp4ItemRB2l_EL_EEECs4L8YLU89NU9_12synstructure, symObjAddr: 0x740, symBinAddr: 0x40D20, symSize: 0x20 }
  - { offset: 0xD0A2A, size: 0x8, addend: 0x0, symName: __RINvNtCsieiGu2EXtoJ_4core3ptr13drop_in_placeINtNtCslJiobkLta79_5alloc7raw_vec6RawVecNtCs4L8YLU89NU9_12synstructure11BindingInfoEEB1m_, symObjAddr: 0x760, symBinAddr: 0x40D40, symSize: 0x20 }
  - { offset: 0xD0A59, size: 0x8, addend: 0x0, symName: __RINvNtCsieiGu2EXtoJ_4core3ptr13drop_in_placeINtNtCslJiobkLta79_5alloc7raw_vec6RawVecNtCs4L8YLU89NU9_12synstructure11VariantInfoEEB1m_, symObjAddr: 0x780, symBinAddr: 0x40D60, symSize: 0x20 }
  - { offset: 0xD0A88, size: 0x8, addend: 0x0, symName: __RINvNtCsieiGu2EXtoJ_4core3ptr13drop_in_placeINtNtCslJiobkLta79_5alloc7raw_vec6RawVecNtNtCsdGrGZaRBwMb_3syn8generics12GenericParamEECs4L8YLU89NU9_12synstructure, symObjAddr: 0x7A0, symBinAddr: 0x40D80, symSize: 0x20 }
  - { offset: 0xD0AB7, size: 0x8, addend: 0x0, symName: __RINvNtCsieiGu2EXtoJ_4core3ptr13drop_in_placeINtNtCslJiobkLta79_5alloc7raw_vec6RawVecRNtCsaKzlTDPUHDb_11proc_macro25IdentEECs4L8YLU89NU9_12synstructure, symObjAddr: 0x7C0, symBinAddr: 0x40DA0, symSize: 0x20 }
  - { offset: 0xD0AE6, size: 0x8, addend: 0x0, symName: __RINvNtCsieiGu2EXtoJ_4core3ptr13drop_in_placeINtNtCslJiobkLta79_5alloc7raw_vec6RawVecbEECs4L8YLU89NU9_12synstructure, symObjAddr: 0x7E0, symBinAddr: 0x40DC0, symSize: 0x20 }
  - { offset: 0xD0B15, size: 0x8, addend: 0x0, symName: __RINvNtCsieiGu2EXtoJ_4core3ptr13drop_in_placeINtNtNtCslJiobkLta79_5alloc3vec9into_iter8IntoIterRNtCsaKzlTDPUHDb_11proc_macro25IdentEECs4L8YLU89NU9_12synstructure, symObjAddr: 0x800, symBinAddr: 0x40DE0, symSize: 0x20 }
  - { offset: 0xD0B44, size: 0x8, addend: 0x0, symName: __RINvNtCsieiGu2EXtoJ_4core3ptr13drop_in_placeINtNtNtNtB4_4iter8adapters3map3MapINtNtBL_9enumerate9EnumerateINtNtCsdGrGZaRBwMb_3syn10punctuated4IterNtNtB1L_4data5FieldEENCNvMs1_Cs4L8YLU89NU9_12synstructureNtB2N_11VariantInfo3new0EEB2N_, symObjAddr: 0x820, symBinAddr: 0x40E00, symSize: 0x20 }
  - { offset: 0xD0B73, size: 0x8, addend: 0x0, symName: __RINvNtCsieiGu2EXtoJ_4core3ptr13drop_in_placeINtNtNtNtB4_4iter8adapters3map3MapINtNtCsdGrGZaRBwMb_3syn10punctuated4IterNtNtB1j_4data7VariantENCNvMs2_Cs4L8YLU89NU9_12synstructureNtB2m_9Structure7try_new0EEB2m_, symObjAddr: 0x840, symBinAddr: 0x40E20, symSize: 0x20 }
  - { offset: 0xD0BA2, size: 0x8, addend: 0x0, symName: __RINvNtCsieiGu2EXtoJ_4core3ptr13drop_in_placeINtNtNtNtB4_4iter8adapters3zip3ZipINtNtNtB4_5slice4iter4IterbEINtNtCsdGrGZaRBwMb_3syn10punctuated4IterNtNtB1L_8generics12GenericParamEEECs4L8YLU89NU9_12synstructure, symObjAddr: 0x860, symBinAddr: 0x40E40, symSize: 0x20 }
  - { offset: 0xD0BD1, size: 0x8, addend: 0x0, symName: __RINvNtCsieiGu2EXtoJ_4core3ptr13drop_in_placeINtNtNtNtB4_4iter8adapters6cloned6ClonedINtNtCsdGrGZaRBwMb_3syn10punctuated4IterNtNtB1p_8generics14WherePredicateEEECs4L8YLU89NU9_12synstructure, symObjAddr: 0x880, symBinAddr: 0x40E60, symSize: 0x20 }
  - { offset: 0xD0C00, size: 0x8, addend: 0x0, symName: __RINvNtCsieiGu2EXtoJ_4core3ptr13drop_in_placeINtNtNtNtB4_4iter8adapters9enumerate9EnumerateINtNtCsdGrGZaRBwMb_3syn10punctuated4IterNtNtB1v_4data5FieldEEECs4L8YLU89NU9_12synstructure, symObjAddr: 0x8A0, symBinAddr: 0x40E80, symSize: 0x20 }
  - { offset: 0xD0C2F, size: 0x8, addend: 0x0, symName: __RINvNtCsieiGu2EXtoJ_4core3ptr13drop_in_placeINtNtNtNtB4_4iter8adapters9enumerate9EnumerateINtNtCsdGrGZaRBwMb_3syn10punctuated4IterNtNtB1v_8generics12GenericParamEEECs4L8YLU89NU9_12synstructure, symObjAddr: 0x8C0, symBinAddr: 0x40EA0, symSize: 0x20 }
  - { offset: 0xD0C5E, size: 0x8, addend: 0x0, symName: __RINvNtCsieiGu2EXtoJ_4core3ptr13drop_in_placeINtNtNtNtCsHUR1vrdMJt_3std11collections4hash3set7HashSetNtNtCsdGrGZaRBwMb_3syn2ty4TypeEECs4L8YLU89NU9_12synstructure, symObjAddr: 0x8E0, symBinAddr: 0x40EC0, symSize: 0x20 }
  - { offset: 0xD0C8D, size: 0x8, addend: 0x0, symName: __RINvNtCsieiGu2EXtoJ_4core3ptr13drop_in_placeINtNvXsd_NtNtCslJiobkLta79_5alloc3vec9into_iterINtBP_8IntoIterppENtNtNtB4_3ops4drop4Drop4drop9DropGuardRNtCsaKzlTDPUHDb_11proc_macro25IdentNtNtBT_5alloc6GlobalEECs4L8YLU89NU9_12synstructure, symObjAddr: 0x900, symBinAddr: 0x40EE0, symSize: 0x20 }
  - { offset: 0xD0CBC, size: 0x8, addend: 0x0, symName: __RINvNtCsieiGu2EXtoJ_4core3ptr13drop_in_placeNtCs4L8YLU89NU9_12synstructure11BindingInfoEBI_, symObjAddr: 0x920, symBinAddr: 0x40F00, symSize: 0x60 }
  - { offset: 0xD0CEB, size: 0x8, addend: 0x0, symName: __RINvNtCsieiGu2EXtoJ_4core3ptr13drop_in_placeNtCs4L8YLU89NU9_12synstructure11VariantInfoEBI_, symObjAddr: 0x980, symBinAddr: 0x40F60, symSize: 0x20 }
  - { offset: 0xD0D1A, size: 0x8, addend: 0x0, symName: __RINvNtCsieiGu2EXtoJ_4core3ptr13drop_in_placeNtNvCs4L8YLU89NU9_12synstructure13get_ty_params16BoundTypeLocatorEBK_, symObjAddr: 0x9A0, symBinAddr: 0x40F80, symSize: 0x20 }
  - { offset: 0xD0D49, size: 0x8, addend: 0x0, symName: __RINvNtCsieiGu2EXtoJ_4core3ptr13drop_in_placeSNtCs4L8YLU89NU9_12synstructure11BindingInfoEBJ_, symObjAddr: 0x9C0, symBinAddr: 0x40FA0, symSize: 0xA0 }
  - { offset: 0xD0D78, size: 0x8, addend: 0x0, symName: __RINvNtCsieiGu2EXtoJ_4core3ptr13drop_in_placeSNtCs4L8YLU89NU9_12synstructure11VariantInfoEBJ_, symObjAddr: 0xA60, symBinAddr: 0x41040, symSize: 0xA0 }
  - { offset: 0xD0DA7, size: 0x8, addend: 0x0, symName: __RINvNtCsieiGu2EXtoJ_4core3ptr13drop_in_placeSNtNtCsdGrGZaRBwMb_3syn8generics12GenericParamECs4L8YLU89NU9_12synstructure, symObjAddr: 0xB00, symBinAddr: 0x410E0, symSize: 0xA0 }
  - { offset: 0xD0DD6, size: 0x8, addend: 0x0, symName: __RINvNtCsieiGu2EXtoJ_4core3ptr13drop_in_placeTNtNtCsdGrGZaRBwMb_3syn2ty4TypeuEECs4L8YLU89NU9_12synstructure, symObjAddr: 0xBA0, symBinAddr: 0x41180, symSize: 0x20 }
  - { offset: 0xD0E05, size: 0x8, addend: 0x0, symName: __RINvNtCsieiGu2EXtoJ_4core3ptr13drop_in_placeThNtNtCslJiobkLta79_5alloc6string6StringEECs4L8YLU89NU9_12synstructure, symObjAddr: 0xBC0, symBinAddr: 0x411A0, symSize: 0x20 }
  - { offset: 0xD0ECA, size: 0x8, addend: 0x0, symName: __RNvNvNtCsieiGu2EXtoJ_4core3ptr19swap_nonoverlapping18precondition_checkCs4L8YLU89NU9_12synstructure, symObjAddr: 0x2E40, symBinAddr: 0x43250, symSize: 0x4E0 }
  - { offset: 0xD120A, size: 0x8, addend: 0x0, symName: __RINvNtCsieiGu2EXtoJ_4core3ptr19swap_nonoverlappinghECs4L8YLU89NU9_12synstructure, symObjAddr: 0xC90, symBinAddr: 0x411C0, symSize: 0xB0 }
  - { offset: 0xD1358, size: 0x8, addend: 0x0, symName: __RINvNvNtCsieiGu2EXtoJ_4core3ptr25swap_nonoverlapping_bytes26swap_nonoverlapping_chunksKj8_ECs4L8YLU89NU9_12synstructure, symObjAddr: 0xD40, symBinAddr: 0x41270, symSize: 0x110 }
  - { offset: 0xD14FD, size: 0x8, addend: 0x0, symName: __RNvNvNtCsieiGu2EXtoJ_4core3ptr25swap_nonoverlapping_bytes25swap_nonoverlapping_shortCs4L8YLU89NU9_12synstructure, symObjAddr: 0x3320, symBinAddr: 0x43730, symSize: 0x160 }
  - { offset: 0xD16CA, size: 0x8, addend: 0x0, symName: __RNvNtCsieiGu2EXtoJ_4core3ptr25swap_nonoverlapping_bytesCs4L8YLU89NU9_12synstructure, symObjAddr: 0x28C0, symBinAddr: 0x42CD0, symSize: 0xD0 }
  - { offset: 0xD1873, size: 0x8, addend: 0x0, symName: __RNvNvNtCsieiGu2EXtoJ_4core3ptr19copy_nonoverlapping18precondition_checkCs4L8YLU89NU9_12synstructure, symObjAddr: 0x2990, symBinAddr: 0x42DA0, symSize: 0x4B0 }
  - { offset: 0xD1B84, size: 0x8, addend: 0x0, symName: __RNvNvNtCsieiGu2EXtoJ_4core3ptr7replace18precondition_checkCs4L8YLU89NU9_12synstructure, symObjAddr: 0x37B0, symBinAddr: 0x43890, symSize: 0x1E0 }
  - { offset: 0xD1D62, size: 0x8, addend: 0x0, symName: __RNSNvYNCINvMs6_NtCsjK30CmJ87bX_9hashbrown3rawINtBd_8RawTableTNtNtCsdGrGZaRBwMb_3syn2ty4TypeuEE14reserve_rehashNCINvNtBf_3map11make_hasherBX_uNtNtNtCsHUR1vrdMJt_3std4hash6random11RandomStateE0E0INtNtNtCsieiGu2EXtoJ_4core3ops8function6FnOnceTQNtBd_13RawTableInnerjEE9call_once6vtableCs4L8YLU89NU9_12synstructure, symObjAddr: 0x2300, symBinAddr: 0x42830, symSize: 0x30 }
  - { offset: 0xD1DA6, size: 0x8, addend: 0x0, symName: __RNSNvYNCINvMs6_NtCsjK30CmJ87bX_9hashbrown3rawINtBd_8RawTableTNtNtCsdGrGZaRBwMb_3syn2ty4TypeuEE24find_or_find_insert_slotNCINvNtBf_3map14equivalent_keyBX_BX_uE0NCINvB1Z_11make_hasherBX_uNtNtNtCsHUR1vrdMJt_3std4hash6random11RandomStateE0E0INtNtNtCsieiGu2EXtoJ_4core3ops8function6FnOnceTjEE9call_once6vtableCs4L8YLU89NU9_12synstructure, symObjAddr: 0x2330, symBinAddr: 0x42860, symSize: 0x30 }
  - { offset: 0xD1DEA, size: 0x8, addend: 0x0, symName: __RNSNvYNCINvMs6_NtCsjK30CmJ87bX_9hashbrown3rawINtBd_8RawTableTNtNtCsdGrGZaRBwMb_3syn2ty4TypeuEE4findNCINvNtBf_3map14equivalent_keyBX_BX_uE0E0INtNtNtCsieiGu2EXtoJ_4core3ops8function6FnOnceTjEE9call_once6vtableCs4L8YLU89NU9_12synstructure, symObjAddr: 0x2360, symBinAddr: 0x42890, symSize: 0x30 }
  - { offset: 0xD1E2E, size: 0x8, addend: 0x0, symName: __RNvYNCINvMs6_NtCsjK30CmJ87bX_9hashbrown3rawINtBb_8RawTableTNtNtCsdGrGZaRBwMb_3syn2ty4TypeuEE14reserve_rehashNCINvNtBd_3map11make_hasherBV_uNtNtNtCsHUR1vrdMJt_3std4hash6random11RandomStateE0E0INtNtNtCsieiGu2EXtoJ_4core3ops8function6FnOnceTQNtBb_13RawTableInnerjEE9call_onceCs4L8YLU89NU9_12synstructure, symObjAddr: 0x3E60, symBinAddr: 0x43E00, symSize: 0x50 }
  - { offset: 0xD1E72, size: 0x8, addend: 0x0, symName: __RNvYNCINvMs6_NtCsjK30CmJ87bX_9hashbrown3rawINtBb_8RawTableTNtNtCsdGrGZaRBwMb_3syn2ty4TypeuEE14reserve_rehashNCINvNtBd_3map11make_hasherBV_uNtNtNtCsHUR1vrdMJt_3std4hash6random11RandomStateE0Es_0INtNtNtCsieiGu2EXtoJ_4core3ops8function6FnOnceTOhEE9call_onceCs4L8YLU89NU9_12synstructure, symObjAddr: 0x3EB0, symBinAddr: 0x43E50, symSize: 0x40 }
  - { offset: 0xD1EB2, size: 0x8, addend: 0x0, symName: __RNvYNCINvMs6_NtCsjK30CmJ87bX_9hashbrown3rawINtBb_8RawTableTNtNtCsdGrGZaRBwMb_3syn2ty4TypeuEE24find_or_find_insert_slotNCINvNtBd_3map14equivalent_keyBV_BV_uE0NCINvB1X_11make_hasherBV_uNtNtNtCsHUR1vrdMJt_3std4hash6random11RandomStateE0E0INtNtNtCsieiGu2EXtoJ_4core3ops8function6FnOnceTjEE9call_onceCs4L8YLU89NU9_12synstructure, symObjAddr: 0x3EF0, symBinAddr: 0x43E90, symSize: 0x50 }
  - { offset: 0xD1EF6, size: 0x8, addend: 0x0, symName: __RNvYNCINvMs6_NtCsjK30CmJ87bX_9hashbrown3rawINtBb_8RawTableTNtNtCsdGrGZaRBwMb_3syn2ty4TypeuEE4findNCINvNtBd_3map14equivalent_keyBV_BV_uE0E0INtNtNtCsieiGu2EXtoJ_4core3ops8function6FnOnceTjEE9call_onceCs4L8YLU89NU9_12synstructure, symObjAddr: 0x3F40, symBinAddr: 0x43EE0, symSize: 0x50 }
  - { offset: 0xD1F3A, size: 0x8, addend: 0x0, symName: __RNvYNCNkNvNvMNtNtCsHUR1vrdMJt_3std4hash6randomNtBb_11RandomState3new4KEYS0s_0INtNtNtCsieiGu2EXtoJ_4core3ops8function6FnOnceTINtNtB1k_6option6OptionQIB1Z_INtNtB1k_4cell4CellTyyEEEEEE9call_onceCs4L8YLU89NU9_12synstructure, symObjAddr: 0x3F90, symBinAddr: 0x43F30, symSize: 0x40 }
  - { offset: 0xD1F7E, size: 0x8, addend: 0x0, symName: __RNvYNCNvMs2_Cs4L8YLU89NU9_12synstructureNtBa_9Structure8gen_impl0INtNtNtCsieiGu2EXtoJ_4core3ops8function6FnOnceTRNtNtCsdGrGZaRBwMb_3syn5parse11ParseBufferEE9call_onceBa_, symObjAddr: 0x3FD0, symBinAddr: 0x43F70, symSize: 0x50 }
  - { offset: 0xD1FC2, size: 0x8, addend: 0x0, symName: __RNvYNvNvNvMNtNtCsHUR1vrdMJt_3std4hash6randomNtB9_11RandomState3new4KEYS6___initINtNtNtCsieiGu2EXtoJ_4core3ops8function6FnOnceuE9call_onceCs4L8YLU89NU9_12synstructure, symObjAddr: 0x4020, symBinAddr: 0x43FC0, symSize: 0x20 }
  - { offset: 0xD4B05, size: 0x8, addend: 0x0, symName: __RNCNvXs_NvNtNtNtNtCsieiGu2EXtoJ_4core4iter6traits8iterator8Iterator10advance_byINtNtCsdGrGZaRBwMb_3syn10punctuated11PrivateIterNtNtB1k_4data7VariantNtNtB1k_5token5CommaENtB6_13SpecAdvanceBy15spec_advance_by0Cs4L8YLU89NU9_12synstructure, symObjAddr: 0x2240, symBinAddr: 0x42770, symSize: 0x20 }
  - { offset: 0xD4B52, size: 0x8, addend: 0x0, symName: __RNCNvXs_NvNtNtNtNtCsieiGu2EXtoJ_4core4iter6traits8iterator8Iterator10advance_byINtNtCsdGrGZaRBwMb_3syn10punctuated11PrivateIterNtNtB1k_8generics14WherePredicateNtNtB1k_5token5CommaENtB6_13SpecAdvanceBy15spec_advance_by0Cs4L8YLU89NU9_12synstructure, symObjAddr: 0x2260, symBinAddr: 0x42790, symSize: 0x20 }
  - { offset: 0xD4BB5, size: 0x8, addend: 0x0, symName: __RNCNvYNtNtCsaKzlTDPUHDb_11proc_macro212token_stream8IntoIterNtNtNtNtCsieiGu2EXtoJ_4core4iter6traits8iterator8Iterator5count0Cs4L8YLU89NU9_12synstructure, symObjAddr: 0x2280, symBinAddr: 0x427B0, symSize: 0x80 }
  - { offset: 0xD4C72, size: 0x8, addend: 0x0, symName: __RNvXsh_NtNtNtCsieiGu2EXtoJ_4core4iter8adapters7step_byINtNtNtBb_3ops5range5RangejEINtB5_14SpecRangeSetupBQ_E5setupCs4L8YLU89NU9_12synstructure, symObjAddr: 0x3D00, symBinAddr: 0x43CA0, symSize: 0x160 }
  - { offset: 0xD4F52, size: 0x8, addend: 0x0, symName: __RINvXsl_NtNtCsieiGu2EXtoJ_4core4hash5implsTNtNtCsdGrGZaRBwMb_3syn3pat3PatNtNtBJ_5token2OrENtB8_4Hash4hashNtNtNtCsHUR1vrdMJt_3std4hash6random13DefaultHasherECs4L8YLU89NU9_12synstructure, symObjAddr: 0x1DE0, symBinAddr: 0x42310, symSize: 0x50 }
  - { offset: 0xD4FD4, size: 0x8, addend: 0x0, symName: __RINvXsl_NtNtCsieiGu2EXtoJ_4core4hash5implsTNtNtCsdGrGZaRBwMb_3syn3pat3PatNtNtBJ_5token5CommaENtB8_4Hash4hashNtNtNtCsHUR1vrdMJt_3std4hash6random13DefaultHasherECs4L8YLU89NU9_12synstructure, symObjAddr: 0x1E30, symBinAddr: 0x42360, symSize: 0x50 }
  - { offset: 0xD5056, size: 0x8, addend: 0x0, symName: __RINvXsl_NtNtCsieiGu2EXtoJ_4core4hash5implsTNtNtCsdGrGZaRBwMb_3syn3pat8FieldPatNtNtBJ_5token5CommaENtB8_4Hash4hashNtNtNtCsHUR1vrdMJt_3std4hash6random13DefaultHasherECs4L8YLU89NU9_12synstructure, symObjAddr: 0x1E80, symBinAddr: 0x423B0, symSize: 0x40 }
  - { offset: 0xD50D8, size: 0x8, addend: 0x0, symName: __RINvXsl_NtNtCsieiGu2EXtoJ_4core4hash5implsTNtNtCsdGrGZaRBwMb_3syn8lifetime8LifetimeNtNtBJ_5token4PlusENtB8_4Hash4hashNtNtNtCsHUR1vrdMJt_3std4hash6random13DefaultHasherECs4L8YLU89NU9_12synstructure, symObjAddr: 0x1EC0, symBinAddr: 0x423F0, symSize: 0x40 }
  - { offset: 0xD5161, size: 0x8, addend: 0x0, symName: __RINvYNtNtCsdGrGZaRBwMb_3syn4attr9AttributeNtNtCsieiGu2EXtoJ_4core4hash4Hash10hash_sliceNtNtNtCsHUR1vrdMJt_3std4hash6random13DefaultHasherECs4L8YLU89NU9_12synstructure, symObjAddr: 0x1F00, symBinAddr: 0x42430, symSize: 0x90 }
  - { offset: 0xD52E9, size: 0x8, addend: 0x0, symName: __RINvYTNtNtCsdGrGZaRBwMb_3syn3pat3PatNtNtB8_5token2OrENtNtCsieiGu2EXtoJ_4core4hash4Hash10hash_sliceNtNtNtCsHUR1vrdMJt_3std4hash6random13DefaultHasherECs4L8YLU89NU9_12synstructure, symObjAddr: 0x1F90, symBinAddr: 0x424C0, symSize: 0xA0 }
  - { offset: 0xD5471, size: 0x8, addend: 0x0, symName: __RINvYTNtNtCsdGrGZaRBwMb_3syn3pat3PatNtNtB8_5token5CommaENtNtCsieiGu2EXtoJ_4core4hash4Hash10hash_sliceNtNtNtCsHUR1vrdMJt_3std4hash6random13DefaultHasherECs4L8YLU89NU9_12synstructure, symObjAddr: 0x2030, symBinAddr: 0x42560, symSize: 0xA0 }
  - { offset: 0xD55F9, size: 0x8, addend: 0x0, symName: __RINvYTNtNtCsdGrGZaRBwMb_3syn3pat8FieldPatNtNtB8_5token5CommaENtNtCsieiGu2EXtoJ_4core4hash4Hash10hash_sliceNtNtNtCsHUR1vrdMJt_3std4hash6random13DefaultHasherECs4L8YLU89NU9_12synstructure, symObjAddr: 0x20D0, symBinAddr: 0x42600, symSize: 0x90 }
  - { offset: 0xD5781, size: 0x8, addend: 0x0, symName: __RINvYTNtNtCsdGrGZaRBwMb_3syn8lifetime8LifetimeNtNtB8_5token4PlusENtNtCsieiGu2EXtoJ_4core4hash4Hash10hash_sliceNtNtNtCsHUR1vrdMJt_3std4hash6random13DefaultHasherECs4L8YLU89NU9_12synstructure, symObjAddr: 0x2160, symBinAddr: 0x42690, symSize: 0x90 }
  - { offset: 0xD8A02, size: 0x8, addend: 0x0, symName: __RINvXs5_NtCsdGrGZaRBwMb_3syn8lifetimeNtB6_8LifetimeNtNtCsieiGu2EXtoJ_4core4hash4Hash4hashNtNtNtCsHUR1vrdMJt_3std4hash6random13DefaultHasherECs4L8YLU89NU9_12synstructure, symObjAddr: 0x19C0, symBinAddr: 0x41EF0, symSize: 0x30 }
  - { offset: 0xDB175, size: 0x8, addend: 0x0, symName: __RINvXs1H_NtNtCsdGrGZaRBwMb_3syn3gen4hashNtNtBb_4attr4MetaNtNtCsieiGu2EXtoJ_4core4hash4Hash4hashNtNtNtCsHUR1vrdMJt_3std4hash6random13DefaultHasherECs4L8YLU89NU9_12synstructure, symObjAddr: 0xE50, symBinAddr: 0x41380, symSize: 0xF0 }
  - { offset: 0xDB20F, size: 0x8, addend: 0x0, symName: __RINvXs1I_NtNtCsdGrGZaRBwMb_3syn3gen4hashNtNtBb_4attr8MetaListNtNtCsieiGu2EXtoJ_4core4hash4Hash4hashNtNtNtCsHUR1vrdMJt_3std4hash6random13DefaultHasherECs4L8YLU89NU9_12synstructure, symObjAddr: 0xF40, symBinAddr: 0x41470, symSize: 0x60 }
  - { offset: 0xDB257, size: 0x8, addend: 0x0, symName: __RINvXs1J_NtNtCsdGrGZaRBwMb_3syn3gen4hashNtNtBb_4attr13MetaNameValueNtNtCsieiGu2EXtoJ_4core4hash4Hash4hashNtNtNtCsHUR1vrdMJt_3std4hash6random13DefaultHasherECs4L8YLU89NU9_12synstructure, symObjAddr: 0xFA0, symBinAddr: 0x414D0, symSize: 0x40 }
  - { offset: 0xDB29F, size: 0x8, addend: 0x0, symName: __RINvXs1L_NtNtCsdGrGZaRBwMb_3syn3gen4hashNtNtBb_3pat3PatNtNtCsieiGu2EXtoJ_4core4hash4Hash4hashNtNtNtCsHUR1vrdMJt_3std4hash6random13DefaultHasherECs4L8YLU89NU9_12synstructure, symObjAddr: 0xFE0, symBinAddr: 0x41510, symSize: 0x570 }
  - { offset: 0xDB4E8, size: 0x8, addend: 0x0, symName: __RINvXs1M_NtNtCsdGrGZaRBwMb_3syn3gen4hashNtNtBb_3pat8PatIdentNtNtCsieiGu2EXtoJ_4core4hash4Hash4hashNtNtNtCsHUR1vrdMJt_3std4hash6random13DefaultHasherECs4L8YLU89NU9_12synstructure, symObjAddr: 0x1550, symBinAddr: 0x41A80, symSize: 0x70 }
  - { offset: 0xDB530, size: 0x8, addend: 0x0, symName: __RINvXs1N_NtNtCsdGrGZaRBwMb_3syn3gen4hashNtNtBb_3pat5PatOrNtNtCsieiGu2EXtoJ_4core4hash4Hash4hashNtNtNtCsHUR1vrdMJt_3std4hash6random13DefaultHasherECs4L8YLU89NU9_12synstructure, symObjAddr: 0x15C0, symBinAddr: 0x41AF0, symSize: 0x50 }
  - { offset: 0xDB578, size: 0x8, addend: 0x0, symName: __RINvXs1O_NtNtCsdGrGZaRBwMb_3syn3gen4hashNtNtBb_3pat8PatParenNtNtCsieiGu2EXtoJ_4core4hash4Hash4hashNtNtNtCsHUR1vrdMJt_3std4hash6random13DefaultHasherECs4L8YLU89NU9_12synstructure, symObjAddr: 0x1610, symBinAddr: 0x41B40, symSize: 0x40 }
  - { offset: 0xDB5C0, size: 0x8, addend: 0x0, symName: __RINvXs1P_NtNtCsdGrGZaRBwMb_3syn3gen4hashNtNtBb_3pat12PatReferenceNtNtCsieiGu2EXtoJ_4core4hash4Hash4hashNtNtNtCsHUR1vrdMJt_3std4hash6random13DefaultHasherECs4L8YLU89NU9_12synstructure, symObjAddr: 0x1650, symBinAddr: 0x41B80, symSize: 0x50 }
  - { offset: 0xDB608, size: 0x8, addend: 0x0, symName: __RINvXs1Q_NtNtCsdGrGZaRBwMb_3syn3gen4hashNtNtBb_3pat7PatRestNtNtCsieiGu2EXtoJ_4core4hash4Hash4hashNtNtNtCsHUR1vrdMJt_3std4hash6random13DefaultHasherECs4L8YLU89NU9_12synstructure, symObjAddr: 0x16A0, symBinAddr: 0x41BD0, symSize: 0x30 }
  - { offset: 0xDB650, size: 0x8, addend: 0x0, symName: __RINvXs1R_NtNtCsdGrGZaRBwMb_3syn3gen4hashNtNtBb_3pat8PatSliceNtNtCsieiGu2EXtoJ_4core4hash4Hash4hashNtNtNtCsHUR1vrdMJt_3std4hash6random13DefaultHasherECs4L8YLU89NU9_12synstructure, symObjAddr: 0x16D0, symBinAddr: 0x41C00, symSize: 0x40 }
  - { offset: 0xDB698, size: 0x8, addend: 0x0, symName: __RINvXs1S_NtNtCsdGrGZaRBwMb_3syn3gen4hashNtNtBb_3pat9PatStructNtNtCsieiGu2EXtoJ_4core4hash4Hash4hashNtNtNtCsHUR1vrdMJt_3std4hash6random13DefaultHasherECs4L8YLU89NU9_12synstructure, symObjAddr: 0x1710, symBinAddr: 0x41C40, symSize: 0x80 }
  - { offset: 0xDB6E0, size: 0x8, addend: 0x0, symName: __RINvXs1T_NtNtCsdGrGZaRBwMb_3syn3gen4hashNtNtBb_3pat8PatTupleNtNtCsieiGu2EXtoJ_4core4hash4Hash4hashNtNtNtCsHUR1vrdMJt_3std4hash6random13DefaultHasherECs4L8YLU89NU9_12synstructure, symObjAddr: 0x1790, symBinAddr: 0x41CC0, symSize: 0x40 }
  - { offset: 0xDB728, size: 0x8, addend: 0x0, symName: __RINvXs1U_NtNtCsdGrGZaRBwMb_3syn3gen4hashNtNtBb_3pat14PatTupleStructNtNtCsieiGu2EXtoJ_4core4hash4Hash4hashNtNtNtCsHUR1vrdMJt_3std4hash6random13DefaultHasherECs4L8YLU89NU9_12synstructure, symObjAddr: 0x17D0, symBinAddr: 0x41D00, symSize: 0x60 }
  - { offset: 0xDB770, size: 0x8, addend: 0x0, symName: __RINvXs1V_NtNtCsdGrGZaRBwMb_3syn3gen4hashNtNtBb_3pat7PatTypeNtNtCsieiGu2EXtoJ_4core4hash4Hash4hashNtNtNtCsHUR1vrdMJt_3std4hash6random13DefaultHasherECs4L8YLU89NU9_12synstructure, symObjAddr: 0x1830, symBinAddr: 0x41D60, symSize: 0x50 }
  - { offset: 0xDB7B8, size: 0x8, addend: 0x0, symName: __RINvXs1W_NtNtCsdGrGZaRBwMb_3syn3gen4hashNtNtBb_3pat7PatWildNtNtCsieiGu2EXtoJ_4core4hash4Hash4hashNtNtNtCsHUR1vrdMJt_3std4hash6random13DefaultHasherECs4L8YLU89NU9_12synstructure, symObjAddr: 0x1880, symBinAddr: 0x41DB0, symSize: 0x30 }
  - { offset: 0xDB800, size: 0x8, addend: 0x0, symName: __RINvXs2A_NtNtCsdGrGZaRBwMb_3syn3gen4hashNtNtBb_2op4UnOpNtNtCsieiGu2EXtoJ_4core4hash4Hash4hashNtNtNtCsHUR1vrdMJt_3std4hash6random13DefaultHasherECs4L8YLU89NU9_12synstructure, symObjAddr: 0x18B0, symBinAddr: 0x41DE0, symSize: 0x80 }
  - { offset: 0xDB848, size: 0x8, addend: 0x0, symName: __RINvXs3_NtNtCsdGrGZaRBwMb_3syn3gen4hashNtNtBa_4attr9AttrStyleNtNtCsieiGu2EXtoJ_4core4hash4Hash4hashNtNtNtCsHUR1vrdMJt_3std4hash6random13DefaultHasherECs4L8YLU89NU9_12synstructure, symObjAddr: 0x1930, symBinAddr: 0x41E60, symSize: 0x50 }
  - { offset: 0xDB88D, size: 0x8, addend: 0x0, symName: __RINvXs4_NtNtCsdGrGZaRBwMb_3syn3gen4hashNtNtBa_4attr9AttributeNtNtCsieiGu2EXtoJ_4core4hash4Hash4hashNtNtNtCsHUR1vrdMJt_3std4hash6random13DefaultHasherECs4L8YLU89NU9_12synstructure, symObjAddr: 0x1980, symBinAddr: 0x41EB0, symSize: 0x40 }
  - { offset: 0xDB8D2, size: 0x8, addend: 0x0, symName: __RINvXs7_NtNtCsdGrGZaRBwMb_3syn3gen4hashNtNtBa_2op5BinOpNtNtCsieiGu2EXtoJ_4core4hash4Hash4hashNtNtNtCsHUR1vrdMJt_3std4hash6random13DefaultHasherECs4L8YLU89NU9_12synstructure, symObjAddr: 0x19F0, symBinAddr: 0x41F20, symSize: 0x390 }
  - { offset: 0xDB917, size: 0x8, addend: 0x0, symName: __RINvXsY_NtNtCsdGrGZaRBwMb_3syn3gen4hashNtNtBa_3pat8FieldPatNtNtCsieiGu2EXtoJ_4core4hash4Hash4hashNtNtNtCsHUR1vrdMJt_3std4hash6random13DefaultHasherECs4L8YLU89NU9_12synstructure, symObjAddr: 0x1D80, symBinAddr: 0x422B0, symSize: 0x60 }
  - { offset: 0xDC559, size: 0x8, addend: 0x0, symName: __RNvXsf_NtNtCslJiobkLta79_5alloc3vec7is_zerobNtB5_6IsZero7is_zeroCs4L8YLU89NU9_12synstructure, symObjAddr: 0x3CF0, symBinAddr: 0x43C90, symSize: 0x10 }
  - { offset: 0xDCFCC, size: 0x8, addend: 0x0, symName: __RNvXs1_NtCslJiobkLta79_5alloc7raw_vecINtB5_6RawVecNtCs4L8YLU89NU9_12synstructure11BindingInfoENtNtNtCsieiGu2EXtoJ_4core3ops4drop4Drop4dropBO_, symObjAddr: 0x3A50, symBinAddr: 0x43A70, symSize: 0x30 }
  - { offset: 0xDD008, size: 0x8, addend: 0x0, symName: __RNvXs1_NtCslJiobkLta79_5alloc7raw_vecINtB5_6RawVecNtCs4L8YLU89NU9_12synstructure11VariantInfoENtNtNtCsieiGu2EXtoJ_4core3ops4drop4Drop4dropBO_, symObjAddr: 0x3A80, symBinAddr: 0x43AA0, symSize: 0x30 }
  - { offset: 0xDD044, size: 0x8, addend: 0x0, symName: __RNvXs1_NtCslJiobkLta79_5alloc7raw_vecINtB5_6RawVecNtNtCsdGrGZaRBwMb_3syn8generics12GenericParamENtNtNtCsieiGu2EXtoJ_4core3ops4drop4Drop4dropCs4L8YLU89NU9_12synstructure, symObjAddr: 0x3AB0, symBinAddr: 0x43AD0, symSize: 0x30 }
  - { offset: 0xDD080, size: 0x8, addend: 0x0, symName: __RNvXs1_NtCslJiobkLta79_5alloc7raw_vecINtB5_6RawVecRNtCsaKzlTDPUHDb_11proc_macro25IdentENtNtNtCsieiGu2EXtoJ_4core3ops4drop4Drop4dropCs4L8YLU89NU9_12synstructure, symObjAddr: 0x3AE0, symBinAddr: 0x43B00, symSize: 0x20 }
  - { offset: 0xDD0BC, size: 0x8, addend: 0x0, symName: __RNvXs1_NtCslJiobkLta79_5alloc7raw_vecINtB5_6RawVecbENtNtNtCsieiGu2EXtoJ_4core3ops4drop4Drop4dropCs4L8YLU89NU9_12synstructure, symObjAddr: 0x3B00, symBinAddr: 0x43B20, symSize: 0x20 }
  - { offset: 0xDD9B0, size: 0x8, addend: 0x0, symName: __RNCINvNtCsjK30CmJ87bX_9hashbrown3map14equivalent_keyNtNtCsdGrGZaRBwMb_3syn2ty4TypeBO_uE0Cs4L8YLU89NU9_12synstructure, symObjAddr: 0x2220, symBinAddr: 0x42750, symSize: 0x20 }
  - { offset: 0xDDC13, size: 0x8, addend: 0x0, symName: __RNCINvNtCsjK30CmJ87bX_9hashbrown3map11make_hasherNtNtCsdGrGZaRBwMb_3syn2ty4TypeuNtNtNtCsHUR1vrdMJt_3std4hash6random11RandomStateE0Cs4L8YLU89NU9_12synstructure, symObjAddr: 0x21F0, symBinAddr: 0x42720, symSize: 0x30 }
  - { offset: 0xDDCE1, size: 0x8, addend: 0x0, symName: __RNvXs5_NtCsjK30CmJ87bX_9hashbrown3mapINtB5_7HashMapNtNtCsdGrGZaRBwMb_3syn2ty4TypeuNtNtNtCsHUR1vrdMJt_3std4hash6random11RandomStateENtNtCsieiGu2EXtoJ_4core7default7Default7defaultCs4L8YLU89NU9_12synstructure, symObjAddr: 0x3BE0, symBinAddr: 0x43B80, symSize: 0xC0 }
  - { offset: 0xDDFC3, size: 0x8, addend: 0x0, symName: __RINvMs1_NtCsjK30CmJ87bX_9hashbrown3mapINtB6_7HashMapNtNtCsdGrGZaRBwMb_3syn2ty4TypeuNtNtNtCsHUR1vrdMJt_3std4hash6random11RandomStateE9get_innerBO_ECs4L8YLU89NU9_12synstructure, symObjAddr: 0x160, symBinAddr: 0x40740, symSize: 0xF0 }
  - { offset: 0xDE678, size: 0x8, addend: 0x0, symName: __RNvMNtNtNtCsieiGu2EXtoJ_4core4iter8adapters7step_byINtB2_6StepByINtNtNtB8_3ops5range5RangejEE3newCs4L8YLU89NU9_12synstructure, symObjAddr: 0x2390, symBinAddr: 0x428C0, symSize: 0xD0 }
  - { offset: 0xDE73A, size: 0x8, addend: 0x0, symName: __RNvMs0_NtCslJiobkLta79_5alloc7raw_vecINtB5_6RawVecNtNtCsdGrGZaRBwMb_3syn8generics14WherePredicateE8grow_oneCs4L8YLU89NU9_12synstructure, symObjAddr: 0x24F0, symBinAddr: 0x42990, symSize: 0x90 }
  - { offset: 0xDE7F9, size: 0x8, addend: 0x0, symName: __RNvMs0_NtCslJiobkLta79_5alloc7raw_vecINtB5_6RawVecRNtCsaKzlTDPUHDb_11proc_macro25IdentE8grow_oneCs4L8YLU89NU9_12synstructure, symObjAddr: 0x2580, symBinAddr: 0x42A20, symSize: 0x90 }
  - { offset: 0xDE939, size: 0x8, addend: 0x0, symName: __RNvMs1_NtCsjK30CmJ87bX_9hashbrown3mapINtB5_7HashMapNtNtCsdGrGZaRBwMb_3syn2ty4TypeuNtNtNtCsHUR1vrdMJt_3std4hash6random11RandomStateE6insertCs4L8YLU89NU9_12synstructure, symObjAddr: 0x26A0, symBinAddr: 0x42AB0, symSize: 0x220 }
  - { offset: 0xDF55D, size: 0x8, addend: 0x0, symName: __RINvMNtCsdGrGZaRBwMb_3syn5errorNtB3_5Error11new_spannedRNtNtB5_6derive11DeriveInputReECs4L8YLU89NU9_12synstructure, symObjAddr: 0x0, symBinAddr: 0x43FE0, symSize: 0xB0 }
  - { offset: 0xE1CC2, size: 0x8, addend: 0x0, symName: __RINvXs4_NtCsdGrGZaRBwMb_3syn4exprNtB6_6MemberNtNtCsieiGu2EXtoJ_4core4hash4Hash4hashNtNtNtCsHUR1vrdMJt_3std4hash6random13DefaultHasherECs4L8YLU89NU9_12synstructure, symObjAddr: 0xD90, symBinAddr: 0x44B10, symSize: 0x70 }
  - { offset: 0xE1D3E, size: 0x8, addend: 0x0, symName: __RINvXsa_NtCsdGrGZaRBwMb_3syn4exprNtB6_5IndexNtNtCsieiGu2EXtoJ_4core4hash4Hash4hashNtNtNtCsHUR1vrdMJt_3std4hash6random13DefaultHasherECs4L8YLU89NU9_12synstructure, symObjAddr: 0x19A0, symBinAddr: 0x45720, symSize: 0x30 }
  - { offset: 0xE46BE, size: 0x8, addend: 0x0, symName: __RINvXs0_NtNtCsdGrGZaRBwMb_3syn3gen4hashNtNtBa_4expr3ArmNtNtCsieiGu2EXtoJ_4core4hash4Hash4hashNtNtNtCsHUR1vrdMJt_3std4hash6random13DefaultHasherECs4L8YLU89NU9_12synstructure, symObjAddr: 0x4D0, symBinAddr: 0x44250, symSize: 0x80 }
  - { offset: 0xE4703, size: 0x8, addend: 0x0, symName: __RINvXs1K_NtNtCsdGrGZaRBwMb_3syn3gen4hashNtNtBb_4path29ParenthesizedGenericArgumentsNtNtCsieiGu2EXtoJ_4core4hash4Hash4hashNtNtNtCsHUR1vrdMJt_3std4hash6random13DefaultHasherECs4L8YLU89NU9_12synstructure, symObjAddr: 0x550, symBinAddr: 0x442D0, symSize: 0x40 }
  - { offset: 0xE474B, size: 0x8, addend: 0x0, symName: __RINvXs1X_NtNtCsdGrGZaRBwMb_3syn3gen4hashNtNtBb_4path4PathNtNtCsieiGu2EXtoJ_4core4hash4Hash4hashNtNtNtCsHUR1vrdMJt_3std4hash6random13DefaultHasherECs4L8YLU89NU9_12synstructure, symObjAddr: 0x590, symBinAddr: 0x44310, symSize: 0x40 }
  - { offset: 0xE4793, size: 0x8, addend: 0x0, symName: __RINvXs1Y_NtNtCsdGrGZaRBwMb_3syn3gen4hashNtNtBb_4path13PathArgumentsNtNtCsieiGu2EXtoJ_4core4hash4Hash4hashNtNtNtCsHUR1vrdMJt_3std4hash6random13DefaultHasherECs4L8YLU89NU9_12synstructure, symObjAddr: 0x5D0, symBinAddr: 0x44350, symSize: 0xD0 }
  - { offset: 0xE480F, size: 0x8, addend: 0x0, symName: __RINvXs1Z_NtNtCsdGrGZaRBwMb_3syn3gen4hashNtNtBb_4path11PathSegmentNtNtCsieiGu2EXtoJ_4core4hash4Hash4hashNtNtNtCsHUR1vrdMJt_3std4hash6random13DefaultHasherECs4L8YLU89NU9_12synstructure, symObjAddr: 0x6A0, symBinAddr: 0x44420, symSize: 0x40 }
  - { offset: 0xE4857, size: 0x8, addend: 0x0, symName: __RINvXs1_NtNtCsdGrGZaRBwMb_3syn3gen4hashNtNtBa_4path10AssocConstNtNtCsieiGu2EXtoJ_4core4hash4Hash4hashNtNtNtCsHUR1vrdMJt_3std4hash6random13DefaultHasherECs4L8YLU89NU9_12synstructure, symObjAddr: 0x910, symBinAddr: 0x44690, symSize: 0x60 }
  - { offset: 0xE489C, size: 0x8, addend: 0x0, symName: __RINvXs1a_NtNtCsdGrGZaRBwMb_3syn3gen4hashNtNtBb_4path15GenericArgumentNtNtCsieiGu2EXtoJ_4core4hash4Hash4hashNtNtNtCsHUR1vrdMJt_3std4hash6random13DefaultHasherECs4L8YLU89NU9_12synstructure, symObjAddr: 0x970, symBinAddr: 0x446F0, symSize: 0x1B0 }
  - { offset: 0xE4990, size: 0x8, addend: 0x0, symName: __RINvXs1z_NtNtCsdGrGZaRBwMb_3syn3gen4hashNtNtBb_4expr5LabelNtNtCsieiGu2EXtoJ_4core4hash4Hash4hashNtNtNtCsHUR1vrdMJt_3std4hash6random13DefaultHasherECs4L8YLU89NU9_12synstructure, symObjAddr: 0xB20, symBinAddr: 0x448A0, symSize: 0x30 }
  - { offset: 0xE49D8, size: 0x8, addend: 0x0, symName: __RINvXs20_NtNtCsdGrGZaRBwMb_3syn3gen4hashNtNtBb_4expr17PointerMutabilityNtNtCsieiGu2EXtoJ_4core4hash4Hash4hashNtNtNtCsHUR1vrdMJt_3std4hash6random13DefaultHasherECs4L8YLU89NU9_12synstructure, symObjAddr: 0xB50, symBinAddr: 0x448D0, symSize: 0x50 }
  - { offset: 0xE4A20, size: 0x8, addend: 0x0, symName: __RINvXs24_NtNtCsdGrGZaRBwMb_3syn3gen4hashNtNtBb_4path5QSelfNtNtCsieiGu2EXtoJ_4core4hash4Hash4hashNtNtNtCsHUR1vrdMJt_3std4hash6random13DefaultHasherECs4L8YLU89NU9_12synstructure, symObjAddr: 0xBA0, symBinAddr: 0x44920, symSize: 0x50 }
  - { offset: 0xE4A68, size: 0x8, addend: 0x0, symName: __RINvXs25_NtNtCsdGrGZaRBwMb_3syn3gen4hashNtNtBb_4expr11RangeLimitsNtNtCsieiGu2EXtoJ_4core4hash4Hash4hashNtNtNtCsHUR1vrdMJt_3std4hash6random13DefaultHasherECs4L8YLU89NU9_12synstructure, symObjAddr: 0xBF0, symBinAddr: 0x44970, symSize: 0x50 }
  - { offset: 0xE4AB0, size: 0x8, addend: 0x0, symName: __RINvXs2J_NtNtCsdGrGZaRBwMb_3syn3gen4hashNtNtBb_11restriction13VisRestrictedNtNtCsieiGu2EXtoJ_4core4hash4Hash4hashNtNtNtCsHUR1vrdMJt_3std4hash6random13DefaultHasherECs4L8YLU89NU9_12synstructure, symObjAddr: 0xC40, symBinAddr: 0x449C0, symSize: 0x40 }
  - { offset: 0xE4AF8, size: 0x8, addend: 0x0, symName: __RINvXs2K_NtNtCsdGrGZaRBwMb_3syn3gen4hashNtNtBb_11restriction10VisibilityNtNtCsieiGu2EXtoJ_4core4hash4Hash4hashNtNtNtCsHUR1vrdMJt_3std4hash6random13DefaultHasherECs4L8YLU89NU9_12synstructure, symObjAddr: 0xC80, symBinAddr: 0x44A00, symSize: 0xB0 }
  - { offset: 0xE4B5E, size: 0x8, addend: 0x0, symName: __RINvXs2_NtNtCsdGrGZaRBwMb_3syn3gen4hashNtNtBa_4path9AssocTypeNtNtCsieiGu2EXtoJ_4core4hash4Hash4hashNtNtNtCsHUR1vrdMJt_3std4hash6random13DefaultHasherECs4L8YLU89NU9_12synstructure, symObjAddr: 0xD30, symBinAddr: 0x44AB0, symSize: 0x60 }
  - { offset: 0xE4BA3, size: 0x8, addend: 0x0, symName: __RINvXsA_NtNtCsdGrGZaRBwMb_3syn3gen4hashNtNtBa_4expr9ExprInferNtNtCsieiGu2EXtoJ_4core4hash4Hash4hashNtNtNtCsHUR1vrdMJt_3std4hash6random13DefaultHasherECs4L8YLU89NU9_12synstructure, symObjAddr: 0xE00, symBinAddr: 0x44B80, symSize: 0x30 }
  - { offset: 0xE4BEB, size: 0x8, addend: 0x0, symName: __RINvXsB_NtNtCsdGrGZaRBwMb_3syn3gen4hashNtNtBa_4expr7ExprLetNtNtCsieiGu2EXtoJ_4core4hash4Hash4hashNtNtNtCsHUR1vrdMJt_3std4hash6random13DefaultHasherECs4L8YLU89NU9_12synstructure, symObjAddr: 0xE30, symBinAddr: 0x44BB0, symSize: 0x50 }
  - { offset: 0xE4C33, size: 0x8, addend: 0x0, symName: __RINvXsC_NtNtCsdGrGZaRBwMb_3syn3gen4hashNtNtBa_4expr7ExprLitNtNtCsieiGu2EXtoJ_4core4hash4Hash4hashNtNtNtCsHUR1vrdMJt_3std4hash6random13DefaultHasherECs4L8YLU89NU9_12synstructure, symObjAddr: 0xE80, symBinAddr: 0x44C00, symSize: 0x40 }
  - { offset: 0xE4C7B, size: 0x8, addend: 0x0, symName: __RINvXsD_NtNtCsdGrGZaRBwMb_3syn3gen4hashNtNtBa_4expr8ExprLoopNtNtCsieiGu2EXtoJ_4core4hash4Hash4hashNtNtNtCsHUR1vrdMJt_3std4hash6random13DefaultHasherECs4L8YLU89NU9_12synstructure, symObjAddr: 0xEC0, symBinAddr: 0x44C40, symSize: 0x50 }
  - { offset: 0xE4CC3, size: 0x8, addend: 0x0, symName: __RINvXsE_NtNtCsdGrGZaRBwMb_3syn3gen4hashNtNtBa_4expr9ExprMacroNtNtCsieiGu2EXtoJ_4core4hash4Hash4hashNtNtNtCsHUR1vrdMJt_3std4hash6random13DefaultHasherECs4L8YLU89NU9_12synstructure, symObjAddr: 0xF10, symBinAddr: 0x44C90, symSize: 0x40 }
  - { offset: 0xE4D0B, size: 0x8, addend: 0x0, symName: __RINvXsF_NtNtCsdGrGZaRBwMb_3syn3gen4hashNtNtBa_4expr9ExprMatchNtNtCsieiGu2EXtoJ_4core4hash4Hash4hashNtNtNtCsHUR1vrdMJt_3std4hash6random13DefaultHasherECs4L8YLU89NU9_12synstructure, symObjAddr: 0xF50, symBinAddr: 0x44CD0, symSize: 0x50 }
  - { offset: 0xE4D53, size: 0x8, addend: 0x0, symName: __RINvXsG_NtNtCsdGrGZaRBwMb_3syn3gen4hashNtNtBa_4expr14ExprMethodCallNtNtCsieiGu2EXtoJ_4core4hash4Hash4hashNtNtNtCsHUR1vrdMJt_3std4hash6random13DefaultHasherECs4L8YLU89NU9_12synstructure, symObjAddr: 0xFA0, symBinAddr: 0x44D20, symSize: 0x80 }
  - { offset: 0xE4D9B, size: 0x8, addend: 0x0, symName: __RINvXsH_NtNtCsdGrGZaRBwMb_3syn3gen4hashNtNtBa_4expr9ExprParenNtNtCsieiGu2EXtoJ_4core4hash4Hash4hashNtNtNtCsHUR1vrdMJt_3std4hash6random13DefaultHasherECs4L8YLU89NU9_12synstructure, symObjAddr: 0x1020, symBinAddr: 0x44DA0, symSize: 0x40 }
  - { offset: 0xE4DE3, size: 0x8, addend: 0x0, symName: __RINvXsI_NtNtCsdGrGZaRBwMb_3syn3gen4hashNtNtBa_4expr8ExprPathNtNtCsieiGu2EXtoJ_4core4hash4Hash4hashNtNtNtCsHUR1vrdMJt_3std4hash6random13DefaultHasherECs4L8YLU89NU9_12synstructure, symObjAddr: 0x1060, symBinAddr: 0x44DE0, symSize: 0x50 }
  - { offset: 0xE4E2B, size: 0x8, addend: 0x0, symName: __RINvXsJ_NtNtCsdGrGZaRBwMb_3syn3gen4hashNtNtBa_4expr9ExprRangeNtNtCsieiGu2EXtoJ_4core4hash4Hash4hashNtNtNtCsHUR1vrdMJt_3std4hash6random13DefaultHasherECs4L8YLU89NU9_12synstructure, symObjAddr: 0x10B0, symBinAddr: 0x44E30, symSize: 0x60 }
  - { offset: 0xE4E73, size: 0x8, addend: 0x0, symName: __RINvXsK_NtNtCsdGrGZaRBwMb_3syn3gen4hashNtNtBa_4expr11ExprRawAddrNtNtCsieiGu2EXtoJ_4core4hash4Hash4hashNtNtNtCsHUR1vrdMJt_3std4hash6random13DefaultHasherECs4L8YLU89NU9_12synstructure, symObjAddr: 0x1110, symBinAddr: 0x44E90, symSize: 0x50 }
  - { offset: 0xE4EBB, size: 0x8, addend: 0x0, symName: __RINvXsL_NtNtCsdGrGZaRBwMb_3syn3gen4hashNtNtBa_4expr13ExprReferenceNtNtCsieiGu2EXtoJ_4core4hash4Hash4hashNtNtNtCsHUR1vrdMJt_3std4hash6random13DefaultHasherECs4L8YLU89NU9_12synstructure, symObjAddr: 0x1160, symBinAddr: 0x44EE0, symSize: 0x50 }
  - { offset: 0xE4F03, size: 0x8, addend: 0x0, symName: __RINvXsM_NtNtCsdGrGZaRBwMb_3syn3gen4hashNtNtBa_4expr10ExprRepeatNtNtCsieiGu2EXtoJ_4core4hash4Hash4hashNtNtNtCsHUR1vrdMJt_3std4hash6random13DefaultHasherECs4L8YLU89NU9_12synstructure, symObjAddr: 0x11B0, symBinAddr: 0x44F30, symSize: 0x50 }
  - { offset: 0xE4F4B, size: 0x8, addend: 0x0, symName: __RINvXsN_NtNtCsdGrGZaRBwMb_3syn3gen4hashNtNtBa_4expr10ExprReturnNtNtCsieiGu2EXtoJ_4core4hash4Hash4hashNtNtNtCsHUR1vrdMJt_3std4hash6random13DefaultHasherECs4L8YLU89NU9_12synstructure, symObjAddr: 0x1200, symBinAddr: 0x44F80, symSize: 0x40 }
  - { offset: 0xE4F93, size: 0x8, addend: 0x0, symName: __RINvXsO_NtNtCsdGrGZaRBwMb_3syn3gen4hashNtNtBa_4expr10ExprStructNtNtCsieiGu2EXtoJ_4core4hash4Hash4hashNtNtNtCsHUR1vrdMJt_3std4hash6random13DefaultHasherECs4L8YLU89NU9_12synstructure, symObjAddr: 0x1240, symBinAddr: 0x44FC0, symSize: 0x90 }
  - { offset: 0xE4FDB, size: 0x8, addend: 0x0, symName: __RINvXsP_NtNtCsdGrGZaRBwMb_3syn3gen4hashNtNtBa_4expr7ExprTryNtNtCsieiGu2EXtoJ_4core4hash4Hash4hashNtNtNtCsHUR1vrdMJt_3std4hash6random13DefaultHasherECs4L8YLU89NU9_12synstructure, symObjAddr: 0x12D0, symBinAddr: 0x45050, symSize: 0x40 }
  - { offset: 0xE5023, size: 0x8, addend: 0x0, symName: __RINvXsQ_NtNtCsdGrGZaRBwMb_3syn3gen4hashNtNtBa_4expr12ExprTryBlockNtNtCsieiGu2EXtoJ_4core4hash4Hash4hashNtNtNtCsHUR1vrdMJt_3std4hash6random13DefaultHasherECs4L8YLU89NU9_12synstructure, symObjAddr: 0x1310, symBinAddr: 0x45090, symSize: 0x40 }
  - { offset: 0xE506B, size: 0x8, addend: 0x0, symName: __RINvXsR_NtNtCsdGrGZaRBwMb_3syn3gen4hashNtNtBa_4expr9ExprTupleNtNtCsieiGu2EXtoJ_4core4hash4Hash4hashNtNtNtCsHUR1vrdMJt_3std4hash6random13DefaultHasherECs4L8YLU89NU9_12synstructure, symObjAddr: 0x1350, symBinAddr: 0x450D0, symSize: 0x40 }
  - { offset: 0xE50B3, size: 0x8, addend: 0x0, symName: __RINvXsS_NtNtCsdGrGZaRBwMb_3syn3gen4hashNtNtBa_4expr9ExprUnaryNtNtCsieiGu2EXtoJ_4core4hash4Hash4hashNtNtNtCsHUR1vrdMJt_3std4hash6random13DefaultHasherECs4L8YLU89NU9_12synstructure, symObjAddr: 0x1390, symBinAddr: 0x45110, symSize: 0x50 }
  - { offset: 0xE50FB, size: 0x8, addend: 0x0, symName: __RINvXsT_NtNtCsdGrGZaRBwMb_3syn3gen4hashNtNtBa_4expr10ExprUnsafeNtNtCsieiGu2EXtoJ_4core4hash4Hash4hashNtNtNtCsHUR1vrdMJt_3std4hash6random13DefaultHasherECs4L8YLU89NU9_12synstructure, symObjAddr: 0x13E0, symBinAddr: 0x45160, symSize: 0x40 }
  - { offset: 0xE5143, size: 0x8, addend: 0x0, symName: __RINvXsU_NtNtCsdGrGZaRBwMb_3syn3gen4hashNtNtBa_4expr9ExprWhileNtNtCsieiGu2EXtoJ_4core4hash4Hash4hashNtNtNtCsHUR1vrdMJt_3std4hash6random13DefaultHasherECs4L8YLU89NU9_12synstructure, symObjAddr: 0x1420, symBinAddr: 0x451A0, symSize: 0x60 }
  - { offset: 0xE518B, size: 0x8, addend: 0x0, symName: __RINvXsV_NtNtCsdGrGZaRBwMb_3syn3gen4hashNtNtBa_4expr9ExprYieldNtNtCsieiGu2EXtoJ_4core4hash4Hash4hashNtNtNtCsHUR1vrdMJt_3std4hash6random13DefaultHasherECs4L8YLU89NU9_12synstructure, symObjAddr: 0x1480, symBinAddr: 0x45200, symSize: 0x40 }
  - { offset: 0xE51D3, size: 0x8, addend: 0x0, symName: __RINvXsX_NtNtCsdGrGZaRBwMb_3syn3gen4hashNtNtBa_11restriction15FieldMutabilityNtNtCsieiGu2EXtoJ_4core4hash4Hash4hashNtNtNtCsHUR1vrdMJt_3std4hash6random13DefaultHasherECs4L8YLU89NU9_12synstructure, symObjAddr: 0x14C0, symBinAddr: 0x45240, symSize: 0x30 }
  - { offset: 0xE521B, size: 0x8, addend: 0x0, symName: __RINvXsZ_NtNtCsdGrGZaRBwMb_3syn3gen4hashNtNtBa_4expr10FieldValueNtNtCsieiGu2EXtoJ_4core4hash4Hash4hashNtNtNtCsHUR1vrdMJt_3std4hash6random13DefaultHasherECs4L8YLU89NU9_12synstructure, symObjAddr: 0x14F0, symBinAddr: 0x45270, symSize: 0x70 }
  - { offset: 0xE5263, size: 0x8, addend: 0x0, symName: __RINvXs_NtNtCsdGrGZaRBwMb_3syn3gen4hashNtNtB9_4path30AngleBracketedGenericArgumentsNtNtCsieiGu2EXtoJ_4core4hash4Hash4hashNtNtNtCsHUR1vrdMJt_3std4hash6random13DefaultHasherECs4L8YLU89NU9_12synstructure, symObjAddr: 0x1960, symBinAddr: 0x456E0, symSize: 0x40 }
  - { offset: 0xE52A8, size: 0x8, addend: 0x0, symName: __RINvXsc_NtNtCsdGrGZaRBwMb_3syn3gen4hashNtNtBa_4path10ConstraintNtNtCsieiGu2EXtoJ_4core4hash4Hash4hashNtNtNtCsHUR1vrdMJt_3std4hash6random13DefaultHasherECs4L8YLU89NU9_12synstructure, symObjAddr: 0x19D0, symBinAddr: 0x45750, symSize: 0x50 }
  - { offset: 0xE52F0, size: 0x8, addend: 0x0, symName: __RINvXsi_NtNtCsdGrGZaRBwMb_3syn3gen4hashNtNtBa_4expr4ExprNtNtCsieiGu2EXtoJ_4core4hash4Hash4hashNtNtNtCsHUR1vrdMJt_3std4hash6random13DefaultHasherECs4L8YLU89NU9_12synstructure, symObjAddr: 0x1C80, symBinAddr: 0x45A00, symSize: 0xC60 }
  - { offset: 0xE5802, size: 0x8, addend: 0x0, symName: __RINvXsj_NtNtCsdGrGZaRBwMb_3syn3gen4hashNtNtBa_4expr9ExprArrayNtNtCsieiGu2EXtoJ_4core4hash4Hash4hashNtNtNtCsHUR1vrdMJt_3std4hash6random13DefaultHasherECs4L8YLU89NU9_12synstructure, symObjAddr: 0x28E0, symBinAddr: 0x46660, symSize: 0x40 }
  - { offset: 0xE584A, size: 0x8, addend: 0x0, symName: __RINvXsk_NtNtCsdGrGZaRBwMb_3syn3gen4hashNtNtBa_4expr10ExprAssignNtNtCsieiGu2EXtoJ_4core4hash4Hash4hashNtNtNtCsHUR1vrdMJt_3std4hash6random13DefaultHasherECs4L8YLU89NU9_12synstructure, symObjAddr: 0x2920, symBinAddr: 0x466A0, symSize: 0x50 }
  - { offset: 0xE5892, size: 0x8, addend: 0x0, symName: __RINvXsl_NtNtCsdGrGZaRBwMb_3syn3gen4hashNtNtBa_4expr9ExprAsyncNtNtCsieiGu2EXtoJ_4core4hash4Hash4hashNtNtNtCsHUR1vrdMJt_3std4hash6random13DefaultHasherECs4L8YLU89NU9_12synstructure, symObjAddr: 0x2970, symBinAddr: 0x466F0, symSize: 0x50 }
  - { offset: 0xE58DA, size: 0x8, addend: 0x0, symName: __RINvXsm_NtNtCsdGrGZaRBwMb_3syn3gen4hashNtNtBa_4expr9ExprAwaitNtNtCsieiGu2EXtoJ_4core4hash4Hash4hashNtNtNtCsHUR1vrdMJt_3std4hash6random13DefaultHasherECs4L8YLU89NU9_12synstructure, symObjAddr: 0x2B30, symBinAddr: 0x468B0, symSize: 0x40 }
  - { offset: 0xE5922, size: 0x8, addend: 0x0, symName: __RINvXsn_NtNtCsdGrGZaRBwMb_3syn3gen4hashNtNtBa_4expr10ExprBinaryNtNtCsieiGu2EXtoJ_4core4hash4Hash4hashNtNtNtCsHUR1vrdMJt_3std4hash6random13DefaultHasherECs4L8YLU89NU9_12synstructure, symObjAddr: 0x2B70, symBinAddr: 0x468F0, symSize: 0x60 }
  - { offset: 0xE596A, size: 0x8, addend: 0x0, symName: __RINvXso_NtNtCsdGrGZaRBwMb_3syn3gen4hashNtNtBa_4expr9ExprBlockNtNtCsieiGu2EXtoJ_4core4hash4Hash4hashNtNtNtCsHUR1vrdMJt_3std4hash6random13DefaultHasherECs4L8YLU89NU9_12synstructure, symObjAddr: 0x2BD0, symBinAddr: 0x46950, symSize: 0x50 }
  - { offset: 0xE59B2, size: 0x8, addend: 0x0, symName: __RINvXsp_NtNtCsdGrGZaRBwMb_3syn3gen4hashNtNtBa_4expr9ExprBreakNtNtCsieiGu2EXtoJ_4core4hash4Hash4hashNtNtNtCsHUR1vrdMJt_3std4hash6random13DefaultHasherECs4L8YLU89NU9_12synstructure, symObjAddr: 0x2C20, symBinAddr: 0x469A0, symSize: 0x50 }
  - { offset: 0xE59FA, size: 0x8, addend: 0x0, symName: __RINvXsq_NtNtCsdGrGZaRBwMb_3syn3gen4hashNtNtBa_4expr8ExprCallNtNtCsieiGu2EXtoJ_4core4hash4Hash4hashNtNtNtCsHUR1vrdMJt_3std4hash6random13DefaultHasherECs4L8YLU89NU9_12synstructure, symObjAddr: 0x2C70, symBinAddr: 0x469F0, symSize: 0x50 }
  - { offset: 0xE5A42, size: 0x8, addend: 0x0, symName: __RINvXsr_NtNtCsdGrGZaRBwMb_3syn3gen4hashNtNtBa_4expr8ExprCastNtNtCsieiGu2EXtoJ_4core4hash4Hash4hashNtNtNtCsHUR1vrdMJt_3std4hash6random13DefaultHasherECs4L8YLU89NU9_12synstructure, symObjAddr: 0x2CC0, symBinAddr: 0x46A40, symSize: 0x50 }
  - { offset: 0xE5A8A, size: 0x8, addend: 0x0, symName: __RINvXss_NtNtCsdGrGZaRBwMb_3syn3gen4hashNtNtBa_4expr11ExprClosureNtNtCsieiGu2EXtoJ_4core4hash4Hash4hashNtNtNtCsHUR1vrdMJt_3std4hash6random13DefaultHasherECs4L8YLU89NU9_12synstructure, symObjAddr: 0x2D10, symBinAddr: 0x46A90, symSize: 0xC0 }
  - { offset: 0xE5AD2, size: 0x8, addend: 0x0, symName: __RINvXst_NtNtCsdGrGZaRBwMb_3syn3gen4hashNtNtBa_4expr9ExprConstNtNtCsieiGu2EXtoJ_4core4hash4Hash4hashNtNtNtCsHUR1vrdMJt_3std4hash6random13DefaultHasherECs4L8YLU89NU9_12synstructure, symObjAddr: 0x2DD0, symBinAddr: 0x46B50, symSize: 0x40 }
  - { offset: 0xE5B1A, size: 0x8, addend: 0x0, symName: __RINvXsu_NtNtCsdGrGZaRBwMb_3syn3gen4hashNtNtBa_4expr12ExprContinueNtNtCsieiGu2EXtoJ_4core4hash4Hash4hashNtNtNtCsHUR1vrdMJt_3std4hash6random13DefaultHasherECs4L8YLU89NU9_12synstructure, symObjAddr: 0x2E10, symBinAddr: 0x46B90, symSize: 0x40 }
  - { offset: 0xE5B62, size: 0x8, addend: 0x0, symName: __RINvXsv_NtNtCsdGrGZaRBwMb_3syn3gen4hashNtNtBa_4expr9ExprFieldNtNtCsieiGu2EXtoJ_4core4hash4Hash4hashNtNtNtCsHUR1vrdMJt_3std4hash6random13DefaultHasherECs4L8YLU89NU9_12synstructure, symObjAddr: 0x2E50, symBinAddr: 0x46BD0, symSize: 0x50 }
  - { offset: 0xE5BAA, size: 0x8, addend: 0x0, symName: __RINvXsw_NtNtCsdGrGZaRBwMb_3syn3gen4hashNtNtBa_4expr11ExprForLoopNtNtCsieiGu2EXtoJ_4core4hash4Hash4hashNtNtNtCsHUR1vrdMJt_3std4hash6random13DefaultHasherECs4L8YLU89NU9_12synstructure, symObjAddr: 0x2EA0, symBinAddr: 0x46C20, symSize: 0x70 }
  - { offset: 0xE5BF2, size: 0x8, addend: 0x0, symName: __RINvXsx_NtNtCsdGrGZaRBwMb_3syn3gen4hashNtNtBa_4expr9ExprGroupNtNtCsieiGu2EXtoJ_4core4hash4Hash4hashNtNtNtCsHUR1vrdMJt_3std4hash6random13DefaultHasherECs4L8YLU89NU9_12synstructure, symObjAddr: 0x2F10, symBinAddr: 0x46C90, symSize: 0x40 }
  - { offset: 0xE5C3A, size: 0x8, addend: 0x0, symName: __RINvXsy_NtNtCsdGrGZaRBwMb_3syn3gen4hashNtNtBa_4expr6ExprIfNtNtCsieiGu2EXtoJ_4core4hash4Hash4hashNtNtNtCsHUR1vrdMJt_3std4hash6random13DefaultHasherECs4L8YLU89NU9_12synstructure, symObjAddr: 0x2F50, symBinAddr: 0x46CD0, symSize: 0x60 }
  - { offset: 0xE5C82, size: 0x8, addend: 0x0, symName: __RINvXsz_NtNtCsdGrGZaRBwMb_3syn3gen4hashNtNtBa_4expr9ExprIndexNtNtCsieiGu2EXtoJ_4core4hash4Hash4hashNtNtNtCsHUR1vrdMJt_3std4hash6random13DefaultHasherECs4L8YLU89NU9_12synstructure, symObjAddr: 0x2FB0, symBinAddr: 0x46D30, symSize: 0x50 }
  - { offset: 0xE5CD1, size: 0x8, addend: 0x0, symName: __RINvXs1_NtCsdGrGZaRBwMb_3syn2ttNtB6_17TokenStreamHelperNtNtCsieiGu2EXtoJ_4core4hash4Hash4hashNtNtNtCsHUR1vrdMJt_3std4hash6random13DefaultHasherECs4L8YLU89NU9_12synstructure, symObjAddr: 0x6E0, symBinAddr: 0x44460, symSize: 0x230 }
  - { offset: 0xE5D60, size: 0x8, addend: 0x0, symName: __RINvXs_NtCsdGrGZaRBwMb_3syn2ttNtB5_15TokenTreeHelperNtNtCsieiGu2EXtoJ_4core4hash4Hash4hashNtNtNtCsHUR1vrdMJt_3std4hash6random13DefaultHasherECs4L8YLU89NU9_12synstructure, symObjAddr: 0x1560, symBinAddr: 0x452E0, symSize: 0x400 }
  - { offset: 0xE6DDF, size: 0x8, addend: 0x0, symName: __RINvXsi_NtCslJiobkLta79_5alloc5boxedINtB6_3BoxNtNtCsdGrGZaRBwMb_3syn2ty4TypeENtNtCsieiGu2EXtoJ_4core4hash4Hash4hashNtNtNtCsHUR1vrdMJt_3std4hash6random13DefaultHasherECs4L8YLU89NU9_12synstructure, symObjAddr: 0x1A20, symBinAddr: 0x457A0, symSize: 0x20 }
  - { offset: 0xE6E33, size: 0x8, addend: 0x0, symName: __RINvXsi_NtCslJiobkLta79_5alloc5boxedINtB6_3BoxNtNtCsdGrGZaRBwMb_3syn2ty9BareFnArgENtNtCsieiGu2EXtoJ_4core4hash4Hash4hashNtNtNtCsHUR1vrdMJt_3std4hash6random13DefaultHasherECs4L8YLU89NU9_12synstructure, symObjAddr: 0x1A40, symBinAddr: 0x457C0, symSize: 0x20 }
  - { offset: 0xE6E87, size: 0x8, addend: 0x0, symName: __RINvXsi_NtCslJiobkLta79_5alloc5boxedINtB6_3BoxNtNtCsdGrGZaRBwMb_3syn3pat3PatENtNtCsieiGu2EXtoJ_4core4hash4Hash4hashNtNtNtCsHUR1vrdMJt_3std4hash6random13DefaultHasherECs4L8YLU89NU9_12synstructure, symObjAddr: 0x1A60, symBinAddr: 0x457E0, symSize: 0x20 }
  - { offset: 0xE6EDB, size: 0x8, addend: 0x0, symName: __RINvXsi_NtCslJiobkLta79_5alloc5boxedINtB6_3BoxNtNtCsdGrGZaRBwMb_3syn3pat8FieldPatENtNtCsieiGu2EXtoJ_4core4hash4Hash4hashNtNtNtCsHUR1vrdMJt_3std4hash6random13DefaultHasherECs4L8YLU89NU9_12synstructure, symObjAddr: 0x1A80, symBinAddr: 0x45800, symSize: 0x20 }
  - { offset: 0xE6F2F, size: 0x8, addend: 0x0, symName: __RINvXsi_NtCslJiobkLta79_5alloc5boxedINtB6_3BoxNtNtCsdGrGZaRBwMb_3syn4data5FieldENtNtCsieiGu2EXtoJ_4core4hash4Hash4hashNtNtNtCsHUR1vrdMJt_3std4hash6random13DefaultHasherECs4L8YLU89NU9_12synstructure, symObjAddr: 0x1AA0, symBinAddr: 0x45820, symSize: 0x20 }
  - { offset: 0xE6F83, size: 0x8, addend: 0x0, symName: __RINvXsi_NtCslJiobkLta79_5alloc5boxedINtB6_3BoxNtNtCsdGrGZaRBwMb_3syn4data7VariantENtNtCsieiGu2EXtoJ_4core4hash4Hash4hashNtNtNtCsHUR1vrdMJt_3std4hash6random13DefaultHasherECs4L8YLU89NU9_12synstructure, symObjAddr: 0x1AC0, symBinAddr: 0x45840, symSize: 0x20 }
  - { offset: 0xE6FD7, size: 0x8, addend: 0x0, symName: __RINvXsi_NtCslJiobkLta79_5alloc5boxedINtB6_3BoxNtNtCsdGrGZaRBwMb_3syn4expr10FieldValueENtNtCsieiGu2EXtoJ_4core4hash4Hash4hashNtNtNtCsHUR1vrdMJt_3std4hash6random13DefaultHasherECs4L8YLU89NU9_12synstructure, symObjAddr: 0x1AE0, symBinAddr: 0x45860, symSize: 0x20 }
  - { offset: 0xE702B, size: 0x8, addend: 0x0, symName: __RINvXsi_NtCslJiobkLta79_5alloc5boxedINtB6_3BoxNtNtCsdGrGZaRBwMb_3syn4expr4ExprENtNtCsieiGu2EXtoJ_4core4hash4Hash4hashNtNtNtCsHUR1vrdMJt_3std4hash6random13DefaultHasherECs4L8YLU89NU9_12synstructure, symObjAddr: 0x1B00, symBinAddr: 0x45880, symSize: 0x20 }
  - { offset: 0xE707F, size: 0x8, addend: 0x0, symName: __RINvXsi_NtCslJiobkLta79_5alloc5boxedINtB6_3BoxNtNtCsdGrGZaRBwMb_3syn4item5FnArgENtNtCsieiGu2EXtoJ_4core4hash4Hash4hashNtNtNtCsHUR1vrdMJt_3std4hash6random13DefaultHasherECs4L8YLU89NU9_12synstructure, symObjAddr: 0x1B20, symBinAddr: 0x458A0, symSize: 0x20 }
  - { offset: 0xE70D3, size: 0x8, addend: 0x0, symName: __RINvXsi_NtCslJiobkLta79_5alloc5boxedINtB6_3BoxNtNtCsdGrGZaRBwMb_3syn4item7UseTreeENtNtCsieiGu2EXtoJ_4core4hash4Hash4hashNtNtNtCsHUR1vrdMJt_3std4hash6random13DefaultHasherECs4L8YLU89NU9_12synstructure, symObjAddr: 0x1B40, symBinAddr: 0x458C0, symSize: 0x20 }
  - { offset: 0xE7127, size: 0x8, addend: 0x0, symName: __RINvXsi_NtCslJiobkLta79_5alloc5boxedINtB6_3BoxNtNtCsdGrGZaRBwMb_3syn4path11PathSegmentENtNtCsieiGu2EXtoJ_4core4hash4Hash4hashNtNtNtCsHUR1vrdMJt_3std4hash6random13DefaultHasherECs4L8YLU89NU9_12synstructure, symObjAddr: 0x1B60, symBinAddr: 0x458E0, symSize: 0x20 }
  - { offset: 0xE717B, size: 0x8, addend: 0x0, symName: __RINvXsi_NtCslJiobkLta79_5alloc5boxedINtB6_3BoxNtNtCsdGrGZaRBwMb_3syn4path15GenericArgumentENtNtCsieiGu2EXtoJ_4core4hash4Hash4hashNtNtNtCsHUR1vrdMJt_3std4hash6random13DefaultHasherECs4L8YLU89NU9_12synstructure, symObjAddr: 0x1B80, symBinAddr: 0x45900, symSize: 0x20 }
  - { offset: 0xE71CF, size: 0x8, addend: 0x0, symName: __RINvXsi_NtCslJiobkLta79_5alloc5boxedINtB6_3BoxNtNtCsdGrGZaRBwMb_3syn4path4PathENtNtCsieiGu2EXtoJ_4core4hash4Hash4hashNtNtNtCsHUR1vrdMJt_3std4hash6random13DefaultHasherECs4L8YLU89NU9_12synstructure, symObjAddr: 0x1BA0, symBinAddr: 0x45920, symSize: 0x20 }
  - { offset: 0xE7223, size: 0x8, addend: 0x0, symName: __RINvXsi_NtCslJiobkLta79_5alloc5boxedINtB6_3BoxNtNtCsdGrGZaRBwMb_3syn4stmt5BlockENtNtCsieiGu2EXtoJ_4core4hash4Hash4hashNtNtNtCsHUR1vrdMJt_3std4hash6random13DefaultHasherECs4L8YLU89NU9_12synstructure, symObjAddr: 0x1BC0, symBinAddr: 0x45940, symSize: 0x20 }
  - { offset: 0xE7277, size: 0x8, addend: 0x0, symName: __RINvXsi_NtCslJiobkLta79_5alloc5boxedINtB6_3BoxNtNtCsdGrGZaRBwMb_3syn8generics12GenericParamENtNtCsieiGu2EXtoJ_4core4hash4Hash4hashNtNtNtCsHUR1vrdMJt_3std4hash6random13DefaultHasherECs4L8YLU89NU9_12synstructure, symObjAddr: 0x1BE0, symBinAddr: 0x45960, symSize: 0x20 }
  - { offset: 0xE72CB, size: 0x8, addend: 0x0, symName: __RINvXsi_NtCslJiobkLta79_5alloc5boxedINtB6_3BoxNtNtCsdGrGZaRBwMb_3syn8generics13CapturedParamENtNtCsieiGu2EXtoJ_4core4hash4Hash4hashNtNtNtCsHUR1vrdMJt_3std4hash6random13DefaultHasherECs4L8YLU89NU9_12synstructure, symObjAddr: 0x1C00, symBinAddr: 0x45980, symSize: 0x20 }
  - { offset: 0xE731F, size: 0x8, addend: 0x0, symName: __RINvXsi_NtCslJiobkLta79_5alloc5boxedINtB6_3BoxNtNtCsdGrGZaRBwMb_3syn8generics14TypeParamBoundENtNtCsieiGu2EXtoJ_4core4hash4Hash4hashNtNtNtCsHUR1vrdMJt_3std4hash6random13DefaultHasherECs4L8YLU89NU9_12synstructure, symObjAddr: 0x1C20, symBinAddr: 0x459A0, symSize: 0x20 }
  - { offset: 0xE7373, size: 0x8, addend: 0x0, symName: __RINvXsi_NtCslJiobkLta79_5alloc5boxedINtB6_3BoxNtNtCsdGrGZaRBwMb_3syn8generics14WherePredicateENtNtCsieiGu2EXtoJ_4core4hash4Hash4hashNtNtNtCsHUR1vrdMJt_3std4hash6random13DefaultHasherECs4L8YLU89NU9_12synstructure, symObjAddr: 0x1C40, symBinAddr: 0x459C0, symSize: 0x20 }
  - { offset: 0xE73C7, size: 0x8, addend: 0x0, symName: __RINvXsi_NtCslJiobkLta79_5alloc5boxedINtB6_3BoxNtNtCsdGrGZaRBwMb_3syn8lifetime8LifetimeENtNtCsieiGu2EXtoJ_4core4hash4Hash4hashNtNtNtCsHUR1vrdMJt_3std4hash6random13DefaultHasherECs4L8YLU89NU9_12synstructure, symObjAddr: 0x1C60, symBinAddr: 0x459E0, symSize: 0x20 }
  - { offset: 0xE7421, size: 0x8, addend: 0x0, symName: __RNvXs6_NtCslJiobkLta79_5alloc5boxedINtB5_3BoxANtCs4L8YLU89NU9_12synstructure11VariantInfoj1_ENtNtNtCsieiGu2EXtoJ_4core3ops4drop4Drop4dropBK_, symObjAddr: 0x3B30, symBinAddr: 0x47710, symSize: 0xB0 }
  - { offset: 0xE755C, size: 0x8, addend: 0x0, symName: __RNvXs6_NtCslJiobkLta79_5alloc5boxedINtB5_3BoxINtNtCsdGrGZaRBwMb_3syn5drops6NoDropDINtNtBM_10punctuated9IterTraitNtNtBM_4data5FieldEp4ItemRB1M_EL_EENtNtNtCsieiGu2EXtoJ_4core3ops4drop4Drop4dropCs4L8YLU89NU9_12synstructure, symObjAddr: 0x3BE0, symBinAddr: 0x477C0, symSize: 0x120 }
  - { offset: 0xE7699, size: 0x8, addend: 0x0, symName: __RNvXs6_NtCslJiobkLta79_5alloc5boxedINtB5_3BoxINtNtCsdGrGZaRBwMb_3syn5drops6NoDropDINtNtBM_10punctuated9IterTraitNtNtBM_4data7VariantEp4ItemRB1M_EL_EENtNtNtCsieiGu2EXtoJ_4core3ops4drop4Drop4dropCs4L8YLU89NU9_12synstructure, symObjAddr: 0x3D00, symBinAddr: 0x478E0, symSize: 0x120 }
  - { offset: 0xE77D6, size: 0x8, addend: 0x0, symName: __RNvXs6_NtCslJiobkLta79_5alloc5boxedINtB5_3BoxINtNtCsdGrGZaRBwMb_3syn5drops6NoDropDINtNtBM_10punctuated9IterTraitNtNtBM_8generics12GenericParamEp4ItemRB1M_EL_EENtNtNtCsieiGu2EXtoJ_4core3ops4drop4Drop4dropCs4L8YLU89NU9_12synstructure, symObjAddr: 0x3E20, symBinAddr: 0x47A00, symSize: 0x120 }
  - { offset: 0xE7913, size: 0x8, addend: 0x0, symName: __RNvXs6_NtCslJiobkLta79_5alloc5boxedINtB5_3BoxINtNtCsdGrGZaRBwMb_3syn5drops6NoDropDINtNtBM_10punctuated9IterTraitNtNtBM_8generics14WherePredicateEp4ItemRB1M_EL_EENtNtNtCsieiGu2EXtoJ_4core3ops4drop4Drop4dropCs4L8YLU89NU9_12synstructure, symObjAddr: 0x3F40, symBinAddr: 0x47B20, symSize: 0x120 }
  - { offset: 0xE7D8F, size: 0x8, addend: 0x0, symName: __RNvXs1_NtCsaKzlTDPUHDb_11proc_macro26markerNtB5_19ProcMacroAutoTraitsNtNtCsieiGu2EXtoJ_4core5clone5Clone5cloneCs4L8YLU89NU9_12synstructure, symObjAddr: 0x3AD0, symBinAddr: 0x476B0, symSize: 0x10 }
  - { offset: 0xE8022, size: 0x8, addend: 0x0, symName: __RNvXs1_NtCsaKzlTDPUHDb_11proc_macro212token_streamNtB5_8IntoIterNtNtCsieiGu2EXtoJ_4core5clone5Clone5cloneCs4L8YLU89NU9_12synstructure, symObjAddr: 0x3A50, symBinAddr: 0x47630, symSize: 0x80 }
  - { offset: 0xE8F13, size: 0x8, addend: 0x0, symName: __RNvNvMs1_NtNtCsieiGu2EXtoJ_4core3ptr8non_nullINtB7_7NonNullpE13new_unchecked18precondition_checkCs4L8YLU89NU9_12synstructure, symObjAddr: 0x3810, symBinAddr: 0x473F0, symSize: 0x90 }
  - { offset: 0xEBFDA, size: 0x8, addend: 0x0, symName: __RNvXsp_NtCsieiGu2EXtoJ_4core6resultINtB5_6ResultNtCsaKzlTDPUHDb_11proc_macro29TokenTreeNtNtCsdGrGZaRBwMb_3syn5error5ErrorENtNtNtB7_3ops9try_trait3Try6branchCs4L8YLU89NU9_12synstructure, symObjAddr: 0x4470, symBinAddr: 0x47C40, symSize: 0xD0 }
  - { offset: 0xEC058, size: 0x8, addend: 0x0, symName: __RNvXsp_NtCsieiGu2EXtoJ_4core6resultINtB5_6ResultNtNtCsdGrGZaRBwMb_3syn5token8SelfTypeNtNtBO_5error5ErrorENtNtNtB7_3ops9try_trait3Try6branchCs4L8YLU89NU9_12synstructure, symObjAddr: 0x4540, symBinAddr: 0x47D10, symSize: 0xB0 }
  - { offset: 0xEC159, size: 0x8, addend: 0x0, symName: __RINvXsl_NtNtCsieiGu2EXtoJ_4core4hash5implsTINtNtCslJiobkLta79_5alloc5boxed3BoxNtNtCsdGrGZaRBwMb_3syn3pat3PatENtNtB1i_5token5ColonENtB8_4Hash4hashNtNtNtCsHUR1vrdMJt_3std4hash6random13DefaultHasherECs4L8YLU89NU9_12synstructure, symObjAddr: 0x29C0, symBinAddr: 0x46740, symSize: 0x40 }
  - { offset: 0xEC1DB, size: 0x8, addend: 0x0, symName: __RINvXsl_NtNtCsieiGu2EXtoJ_4core4hash5implsTNtNtCsdGrGZaRBwMb_3syn4expr10FieldValueNtNtBJ_5token5CommaENtB8_4Hash4hashNtNtNtCsHUR1vrdMJt_3std4hash6random13DefaultHasherECs4L8YLU89NU9_12synstructure, symObjAddr: 0x2A00, symBinAddr: 0x46780, symSize: 0x50 }
  - { offset: 0xEC25D, size: 0x8, addend: 0x0, symName: __RINvXsl_NtNtCsieiGu2EXtoJ_4core4hash5implsTNtNtCsdGrGZaRBwMb_3syn4expr4ExprNtNtBJ_5token5CommaENtB8_4Hash4hashNtNtNtCsHUR1vrdMJt_3std4hash6random13DefaultHasherECs4L8YLU89NU9_12synstructure, symObjAddr: 0x2A50, symBinAddr: 0x467D0, symSize: 0x50 }
  - { offset: 0xEC2DF, size: 0x8, addend: 0x0, symName: __RINvXsl_NtNtCsieiGu2EXtoJ_4core4hash5implsTNtNtCsdGrGZaRBwMb_3syn4path11PathSegmentNtNtBJ_5token7PathSepENtB8_4Hash4hashNtNtNtCsHUR1vrdMJt_3std4hash6random13DefaultHasherECs4L8YLU89NU9_12synstructure, symObjAddr: 0x2AA0, symBinAddr: 0x46820, symSize: 0x40 }
  - { offset: 0xEC361, size: 0x8, addend: 0x0, symName: __RINvXsl_NtNtCsieiGu2EXtoJ_4core4hash5implsTNtNtCsdGrGZaRBwMb_3syn4path15GenericArgumentNtNtBJ_5token5CommaENtB8_4Hash4hashNtNtNtCsHUR1vrdMJt_3std4hash6random13DefaultHasherECs4L8YLU89NU9_12synstructure, symObjAddr: 0x2AE0, symBinAddr: 0x46860, symSize: 0x50 }
  - { offset: 0xEC3EA, size: 0x8, addend: 0x0, symName: __RINvYNtNtCsdGrGZaRBwMb_3syn4expr3ArmNtNtCsieiGu2EXtoJ_4core4hash4Hash10hash_sliceNtNtNtCsHUR1vrdMJt_3std4hash6random13DefaultHasherECs4L8YLU89NU9_12synstructure, symObjAddr: 0x3140, symBinAddr: 0x46EC0, symSize: 0xA0 }
  - { offset: 0xEC572, size: 0x8, addend: 0x0, symName: __RINvYTNtNtCsdGrGZaRBwMb_3syn4expr10FieldValueNtNtB8_5token5CommaENtNtCsieiGu2EXtoJ_4core4hash4Hash10hash_sliceNtNtNtCsHUR1vrdMJt_3std4hash6random13DefaultHasherECs4L8YLU89NU9_12synstructure, symObjAddr: 0x31E0, symBinAddr: 0x46F60, symSize: 0xA0 }
  - { offset: 0xEC6FA, size: 0x8, addend: 0x0, symName: __RINvYTNtNtCsdGrGZaRBwMb_3syn4expr4ExprNtNtB8_5token5CommaENtNtCsieiGu2EXtoJ_4core4hash4Hash10hash_sliceNtNtNtCsHUR1vrdMJt_3std4hash6random13DefaultHasherECs4L8YLU89NU9_12synstructure, symObjAddr: 0x3280, symBinAddr: 0x47000, symSize: 0xA0 }
  - { offset: 0xEC882, size: 0x8, addend: 0x0, symName: __RINvYTNtNtCsdGrGZaRBwMb_3syn4path11PathSegmentNtNtB8_5token7PathSepENtNtCsieiGu2EXtoJ_4core4hash4Hash10hash_sliceNtNtNtCsHUR1vrdMJt_3std4hash6random13DefaultHasherECs4L8YLU89NU9_12synstructure, symObjAddr: 0x3320, symBinAddr: 0x470A0, symSize: 0x90 }
  - { offset: 0xECA0A, size: 0x8, addend: 0x0, symName: __RINvYTNtNtCsdGrGZaRBwMb_3syn4path15GenericArgumentNtNtB8_5token5CommaENtNtCsieiGu2EXtoJ_4core4hash4Hash10hash_sliceNtNtNtCsHUR1vrdMJt_3std4hash6random13DefaultHasherECs4L8YLU89NU9_12synstructure, symObjAddr: 0x33B0, symBinAddr: 0x47130, symSize: 0xA0 }
  - { offset: 0xECC6A, size: 0x8, addend: 0x0, symName: __RINvYNtNtCsaKzlTDPUHDb_11proc_macro212token_stream8IntoIterNtNtNtNtCsieiGu2EXtoJ_4core4iter6traits8iterator8Iterator4foldjNCNvYB3_BV_5count0ECs4L8YLU89NU9_12synstructure, symObjAddr: 0x3000, symBinAddr: 0x46D80, symSize: 0x140 }
  - { offset: 0xECD01, size: 0x8, addend: 0x0, symName: __RNvYNtNtCsaKzlTDPUHDb_11proc_macro212token_stream8IntoIterNtNtNtNtCsieiGu2EXtoJ_4core4iter6traits8iterator8Iterator5countCs4L8YLU89NU9_12synstructure, symObjAddr: 0x4650, symBinAddr: 0x47DC0, symSize: 0x10 }
  - { offset: 0xED08E, size: 0x8, addend: 0x0, symName: __RNvNvXs0_NtNtCsieiGu2EXtoJ_4core5slice5indexjINtB7_10SliceIndexSpE13get_unchecked18precondition_checkCs4L8YLU89NU9_12synstructure, symObjAddr: 0x3960, symBinAddr: 0x47540, symSize: 0xA0 }
  - { offset: 0xED0F7, size: 0x8, addend: 0x0, symName: __RNvXs0_NtNtCsieiGu2EXtoJ_4core5slice5indexjINtB5_10SliceIndexSbE9index_mutCs4L8YLU89NU9_12synstructure, symObjAddr: 0x3A00, symBinAddr: 0x475E0, symSize: 0x50 }
  - { offset: 0xED345, size: 0x8, addend: 0x0, symName: __RNvNvNtCsieiGu2EXtoJ_4core9ub_checks23maybe_is_nonoverlapping7runtimeCs4L8YLU89NU9_12synstructure, symObjAddr: 0x38A0, symBinAddr: 0x47480, symSize: 0xC0 }
  - { offset: 0xED762, size: 0x8, addend: 0x0, symName: __RINvXNtNtNtNtCsHUR1vrdMJt_3std3sys12thread_local6native4lazyzNtB3_14DestroyedState13register_dtorINtNtCsieiGu2EXtoJ_4core4cell4CellTyyEEECs4L8YLU89NU9_12synstructure, symObjAddr: 0x4C0, symBinAddr: 0x44240, symSize: 0x10 }
  - { offset: 0xEDE00, size: 0x8, addend: 0x0, symName: __RINvMNtCsdGrGZaRBwMb_3syn5errorNtB3_5Error11new_spannedRNtNtB5_6derive11DeriveInputReECs4L8YLU89NU9_12synstructure, symObjAddr: 0x0, symBinAddr: 0x43FE0, symSize: 0xB0 }
  - { offset: 0xEDE50, size: 0x8, addend: 0x0, symName: __RINvMNtCsdGrGZaRBwMb_3syn5errorNtB3_5Error11new_spannedRNtNtB5_8generics12GenericParamNtNtCslJiobkLta79_5alloc6string6StringECs4L8YLU89NU9_12synstructure, symObjAddr: 0xB0, symBinAddr: 0x44090, symSize: 0xC0 }
  - { offset: 0xEDF50, size: 0x8, addend: 0x0, symName: __RINvMs0_NtNtNtNtCsHUR1vrdMJt_3std3sys12thread_local6native4lazyINtB6_7StorageINtNtCsieiGu2EXtoJ_4core4cell4CellTyyEEzE11get_or_initNvNvNvMNtNtBe_4hash6randomNtB2c_11RandomState3new4KEYS6___initECs4L8YLU89NU9_12synstructure, symObjAddr: 0x170, symBinAddr: 0x44150, symSize: 0x90 }
  - { offset: 0xEE15B, size: 0x8, addend: 0x0, symName: __RINvMs0_NtNtNtNtCsHUR1vrdMJt_3std3sys12thread_local6native4lazyINtB6_7StorageINtNtCsieiGu2EXtoJ_4core4cell4CellTyyEEzE16get_or_init_slowNvNvNvMNtNtBe_4hash6randomNtB2h_11RandomState3new4KEYS6___initECs4L8YLU89NU9_12synstructure, symObjAddr: 0x200, symBinAddr: 0x1DB290, symSize: 0x260 }
  - { offset: 0xEE464, size: 0x8, addend: 0x0, symName: __RINvMs9_NtCsdGrGZaRBwMb_3syn5parseNtB6_11ParseBuffer5parseNtCsaKzlTDPUHDb_11proc_macro29TokenTreeECs4L8YLU89NU9_12synstructure, symObjAddr: 0x460, symBinAddr: 0x441E0, symSize: 0x30 }
  - { offset: 0xEE490, size: 0x8, addend: 0x0, symName: __RINvMs9_NtCsdGrGZaRBwMb_3syn5parseNtB6_11ParseBuffer5parseNtNtB8_5token8SelfTypeECs4L8YLU89NU9_12synstructure, symObjAddr: 0x490, symBinAddr: 0x44210, symSize: 0x30 }
  - { offset: 0xEE9E3, size: 0x8, addend: 0x0, symName: __RNvMNtCsieiGu2EXtoJ_4core6resultINtB2_6ResultNtCsaKzlTDPUHDb_11proc_macro211TokenStreamNtNtCsdGrGZaRBwMb_3syn5error5ErrorE6expectCs4L8YLU89NU9_12synstructure, symObjAddr: 0x3520, symBinAddr: 0x471D0, symSize: 0xE0 }
  - { offset: 0xEEA7C, size: 0x8, addend: 0x0, symName: __RNvMs1_NtNtCsieiGu2EXtoJ_4core3ptr8non_nullINtB5_7NonNullRNtCsaKzlTDPUHDb_11proc_macro25IdentE20offset_from_unsignedCs4L8YLU89NU9_12synstructure, symObjAddr: 0x36D0, symBinAddr: 0x472B0, symSize: 0x60 }
  - { offset: 0xEEB86, size: 0x8, addend: 0x0, symName: __RNvMs1_NtNtCsieiGu2EXtoJ_4core3ptr8non_nullINtB5_7NonNullTNtNtCsdGrGZaRBwMb_3syn4data7VariantNtNtBY_5token5CommaEE20offset_from_unsignedCs4L8YLU89NU9_12synstructure, symObjAddr: 0x3730, symBinAddr: 0x47310, symSize: 0x70 }
  - { offset: 0xEEC90, size: 0x8, addend: 0x0, symName: __RNvMs1_NtNtCsieiGu2EXtoJ_4core3ptr8non_nullINtB5_7NonNullTNtNtCsdGrGZaRBwMb_3syn8generics14WherePredicateNtNtBY_5token5CommaEE20offset_from_unsignedCs4L8YLU89NU9_12synstructure, symObjAddr: 0x37A0, symBinAddr: 0x47380, symSize: 0x70 }
  - { offset: 0xEEECA, size: 0x8, addend: 0x0, symName: __RNvXs1_NtCsjK30CmJ87bX_9hashbrown10scopeguardINtB5_10ScopeGuardNtNtB7_3raw13RawTableInnerNCINvMsa_B11_BZ_14prepare_resizeNtNtCslJiobkLta79_5alloc5alloc6GlobalE0ENtNtNtCsieiGu2EXtoJ_4core3ops4drop4Drop4dropCs4L8YLU89NU9_12synstructure, symObjAddr: 0x3AE0, symBinAddr: 0x476C0, symSize: 0x20 }
  - { offset: 0xEEF04, size: 0x8, addend: 0x0, symName: __RNvXs1_NtCsjK30CmJ87bX_9hashbrown10scopeguardINtB5_10ScopeGuardQNtNtB7_3raw13RawTableInnerNCNvMsa_B12_B10_15rehash_in_place0ENtNtNtCsieiGu2EXtoJ_4core3ops4drop4Drop4dropCs4L8YLU89NU9_12synstructure, symObjAddr: 0x3B00, symBinAddr: 0x476E0, symSize: 0x30 }
  - { offset: 0xEFA5E, size: 0x8, addend: 0x0, symName: __RINvXNvMNtCslJiobkLta79_5alloc5sliceSp9to_vec_inNtNtCsdGrGZaRBwMb_3syn4item11ForeignItemNtB3_10ConvertVec6to_vecNtNtB8_5alloc6GlobalEBO_, symObjAddr: 0x0, symBinAddr: 0x47DD0, symSize: 0x490 }
  - { offset: 0xF1252, size: 0x8, addend: 0x0, symName: __RINvXNvMNtCslJiobkLta79_5alloc5sliceSp9to_vec_inNtNtCsdGrGZaRBwMb_3syn4item11ForeignItemNtB3_10ConvertVec6to_vecNtNtB8_5alloc6GlobalEBO_, symObjAddr: 0x0, symBinAddr: 0x47DD0, symSize: 0x490 }
  - { offset: 0xF17A6, size: 0x8, addend: 0x0, symName: __RINvXNvMNtCslJiobkLta79_5alloc5sliceSp9to_vec_inNtNtCsdGrGZaRBwMb_3syn4item4ItemNtB3_10ConvertVec6to_vecNtNtB8_5alloc6GlobalEBO_, symObjAddr: 0x490, symBinAddr: 0x48260, symSize: 0x490 }
  - { offset: 0xF1CFA, size: 0x8, addend: 0x0, symName: __RINvXNvMNtCslJiobkLta79_5alloc5sliceSp9to_vec_inNtNtCsdGrGZaRBwMb_3syn4item8ImplItemNtB3_10ConvertVec6to_vecNtNtB8_5alloc6GlobalEBO_, symObjAddr: 0x920, symBinAddr: 0x486F0, symSize: 0x490 }
  - { offset: 0xF224E, size: 0x8, addend: 0x0, symName: __RINvXNvMNtCslJiobkLta79_5alloc5sliceSp9to_vec_inNtNtCsdGrGZaRBwMb_3syn4item9TraitItemNtB3_10ConvertVec6to_vecNtNtB8_5alloc6GlobalEBO_, symObjAddr: 0xDB0, symBinAddr: 0x48B80, symSize: 0x490 }
  - { offset: 0xF27A2, size: 0x8, addend: 0x0, symName: __RINvXNvMNtCslJiobkLta79_5alloc5sliceSp9to_vec_inTNtNtCsdGrGZaRBwMb_3syn4item5FnArgNtNtBP_5token5CommaENtB3_10ConvertVec6to_vecNtNtB8_5alloc6GlobalEBP_, symObjAddr: 0x1240, symBinAddr: 0x49010, symSize: 0x490 }
  - { offset: 0xF2CF6, size: 0x8, addend: 0x0, symName: __RINvXNvMNtCslJiobkLta79_5alloc5sliceSp9to_vec_inTNtNtCsdGrGZaRBwMb_3syn4item7UseTreeNtNtBP_5token5CommaENtB3_10ConvertVec6to_vecNtNtB8_5alloc6GlobalEBP_, symObjAddr: 0x16D0, symBinAddr: 0x494A0, symSize: 0x490 }
  - { offset: 0xF7826, size: 0x8, addend: 0x0, symName: __RNcNtNtNtCsdGrGZaRBwMb_3syn4item11ForeignItem5Macro0B7_, symObjAddr: 0x1B60, symBinAddr: 0x49930, symSize: 0x40 }
  - { offset: 0xF785D, size: 0x8, addend: 0x0, symName: __RNcNtNtNtCsdGrGZaRBwMb_3syn4item16StaticMutability3Mut0B7_, symObjAddr: 0x1BA0, symBinAddr: 0x49970, symSize: 0x10 }
  - { offset: 0xF7893, size: 0x8, addend: 0x0, symName: __RNcNtNtNtCsdGrGZaRBwMb_3syn4item4Item10ForeignMod0B7_, symObjAddr: 0x1BB0, symBinAddr: 0x49980, symSize: 0x40 }
  - { offset: 0xF78C2, size: 0x8, addend: 0x0, symName: __RNcNtNtNtCsdGrGZaRBwMb_3syn4item4Item10TraitAlias0B7_, symObjAddr: 0x1BF0, symBinAddr: 0x499C0, symSize: 0x40 }
  - { offset: 0xF78F1, size: 0x8, addend: 0x0, symName: __RNcNtNtNtCsdGrGZaRBwMb_3syn4item4Item11ExternCrate0B7_, symObjAddr: 0x1C30, symBinAddr: 0x49A00, symSize: 0x40 }
  - { offset: 0xF7920, size: 0x8, addend: 0x0, symName: __RNcNtNtNtCsdGrGZaRBwMb_3syn4item4Item2Fn0B7_, symObjAddr: 0x1C70, symBinAddr: 0x49A40, symSize: 0x30 }
  - { offset: 0xF794F, size: 0x8, addend: 0x0, symName: __RNcNtNtNtCsdGrGZaRBwMb_3syn4item4Item3Mod0B7_, symObjAddr: 0x1CA0, symBinAddr: 0x49A70, symSize: 0x40 }
  - { offset: 0xF797E, size: 0x8, addend: 0x0, symName: __RNcNtNtNtCsdGrGZaRBwMb_3syn4item4Item4Enum0B7_, symObjAddr: 0x1CE0, symBinAddr: 0x49AB0, symSize: 0x40 }
  - { offset: 0xF79AD, size: 0x8, addend: 0x0, symName: __RNcNtNtNtCsdGrGZaRBwMb_3syn4item4Item5Macro0B7_, symObjAddr: 0x1D20, symBinAddr: 0x49AF0, symSize: 0x40 }
  - { offset: 0xF79DC, size: 0x8, addend: 0x0, symName: __RNcNtNtNtCsdGrGZaRBwMb_3syn4item4Item5Trait0B7_, symObjAddr: 0x1D60, symBinAddr: 0x49B30, symSize: 0x40 }
  - { offset: 0xF7A0B, size: 0x8, addend: 0x0, symName: __RNcNtNtNtCsdGrGZaRBwMb_3syn4item4Item5Union0B7_, symObjAddr: 0x1DA0, symBinAddr: 0x49B70, symSize: 0x40 }
  - { offset: 0xF7A3A, size: 0x8, addend: 0x0, symName: __RNcNtNtNtCsdGrGZaRBwMb_3syn4item4Item6Struct0B7_, symObjAddr: 0x1DE0, symBinAddr: 0x49BB0, symSize: 0x40 }
  - { offset: 0xF7A6F, size: 0x8, addend: 0x0, symName: __RNcNtNtNtCsdGrGZaRBwMb_3syn4item8ImplItem5Macro0B7_, symObjAddr: 0x1E20, symBinAddr: 0x49BF0, symSize: 0x40 }
  - { offset: 0xF7AA6, size: 0x8, addend: 0x0, symName: __RNcNtNtNtCsdGrGZaRBwMb_3syn4item9TraitItem2Fn0B7_, symObjAddr: 0x1E60, symBinAddr: 0x49C30, symSize: 0x40 }
  - { offset: 0xF7AD7, size: 0x8, addend: 0x0, symName: __RNcNtNtNtCsdGrGZaRBwMb_3syn4item9TraitItem5Macro0B7_, symObjAddr: 0x1EA0, symBinAddr: 0x49C70, symSize: 0x40 }
  - { offset: 0xF7B0E, size: 0x8, addend: 0x0, symName: __RNvXNtNtCsdGrGZaRBwMb_3syn4item7parsingNtB4_4ItemNtNtB6_5parse5Parse5parse, symObjAddr: 0x45C0, symBinAddr: 0x4A0B0, symSize: 0x220 }
  - { offset: 0xF7BB6, size: 0x8, addend: 0x0, symName: __RNvXs0_NtNtCsdGrGZaRBwMb_3syn4item7parsingNtB7_9ItemMacroNtNtB9_5parse5Parse5parse, symObjAddr: 0x4970, symBinAddr: 0x4A460, symSize: 0x900 }
  - { offset: 0xF7D84, size: 0x8, addend: 0x0, symName: __RNvXs1_NtNtCsdGrGZaRBwMb_3syn4item7parsingNtB7_15ItemExternCrateNtNtB9_5parse5Parse5parse, symObjAddr: 0x61D0, symBinAddr: 0x4B7E0, symSize: 0xC80 }
  - { offset: 0xF7F8E, size: 0x8, addend: 0x0, symName: __RNvXs3_NtNtCsdGrGZaRBwMb_3syn4item7parsingNtB7_7UseTreeNtNtB9_5parse5Parse5parse, symObjAddr: 0xF1E0, symBinAddr: 0x538E0, symSize: 0x50 }
  - { offset: 0xF7FE0, size: 0x8, addend: 0x0, symName: __RNvXs6_NtNtCsdGrGZaRBwMb_3syn4item7parsingNtB7_9SignatureNtNtB9_5parse5Parse5parse, symObjAddr: 0x127D0, symBinAddr: 0x54800, symSize: 0x60 }
  - { offset: 0xF8032, size: 0x8, addend: 0x0, symName: __RNvXsa_NtNtCsdGrGZaRBwMb_3syn4item7parsingNtB7_7ItemModNtNtB9_5parse5Parse5parse, symObjAddr: 0x14920, symBinAddr: 0x55660, symSize: 0x10F0 }
  - { offset: 0xF8295, size: 0x8, addend: 0x0, symName: __RNvXsb_NtNtCsdGrGZaRBwMb_3syn4item7parsingNtB7_14ItemForeignModNtNtB9_5parse5Parse5parse, symObjAddr: 0x15B30, symBinAddr: 0x56830, symSize: 0x7D0 }
  - { offset: 0xF8447, size: 0x8, addend: 0x0, symName: __RNvXsc_NtNtCsdGrGZaRBwMb_3syn4item7parsingNtB7_11ForeignItemNtNtB9_5parse5Parse5parse, symObjAddr: 0x164A0, symBinAddr: 0x57160, symSize: 0x22C0 }
  - { offset: 0xF8AC1, size: 0x8, addend: 0x0, symName: __RNvXsg_NtNtCsdGrGZaRBwMb_3syn4item7parsingNtB7_16ForeignItemMacroNtNtB9_5parse5Parse5parse, symObjAddr: 0x1A410, symBinAddr: 0x59620, symSize: 0x410 }
  - { offset: 0xF8BD5, size: 0x8, addend: 0x0, symName: __RNvXsi_NtNtCsdGrGZaRBwMb_3syn4item7parsingNtB7_10ItemStructNtNtB9_5parse5Parse5parse, symObjAddr: 0x1B5E0, symBinAddr: 0x59A90, symSize: 0x960 }
  - { offset: 0xF8DD2, size: 0x8, addend: 0x0, symName: __RNvXsj_NtNtCsdGrGZaRBwMb_3syn4item7parsingNtB7_8ItemEnumNtNtB9_5parse5Parse5parse, symObjAddr: 0x1C090, symBinAddr: 0x5A500, symSize: 0x940 }
  - { offset: 0xF8FCF, size: 0x8, addend: 0x0, symName: __RNvXsk_NtNtCsdGrGZaRBwMb_3syn4item7parsingNtB7_9ItemUnionNtNtB9_5parse5Parse5parse, symObjAddr: 0x1CD40, symBinAddr: 0x5B1B0, symSize: 0x940 }
  - { offset: 0xF91BB, size: 0x8, addend: 0x0, symName: __RNvXsl_NtNtCsdGrGZaRBwMb_3syn4item7parsingNtB7_9ItemTraitNtNtB9_5parse5Parse5parse, symObjAddr: 0x1D820, symBinAddr: 0x5BC50, symSize: 0x860 }
  - { offset: 0xF93C2, size: 0x8, addend: 0x0, symName: __RNvXsn_NtNtCsdGrGZaRBwMb_3syn4item7parsingNtB7_9TraitItemNtNtB9_5parse5Parse5parse, symObjAddr: 0x1E5A0, symBinAddr: 0x5C620, symSize: 0x19C0 }
  - { offset: 0xF9842, size: 0x8, addend: 0x0, symName: __RNvXsp_NtNtCsdGrGZaRBwMb_3syn4item7parsingNtB7_11TraitItemFnNtNtB9_5parse5Parse5parse, symObjAddr: 0x20C80, symBinAddr: 0x5E180, symSize: 0xAF0 }
  - { offset: 0xF9A4E, size: 0x8, addend: 0x0, symName: __RNvXsr_NtNtCsdGrGZaRBwMb_3syn4item7parsingNtB7_14TraitItemMacroNtNtB9_5parse5Parse5parse, symObjAddr: 0x225F0, symBinAddr: 0x5EE30, symSize: 0x410 }
  - { offset: 0xF9B62, size: 0x8, addend: 0x0, symName: __RNvXst_NtNtCsdGrGZaRBwMb_3syn4item7parsingNtB7_8ImplItemNtNtB9_5parse5Parse5parse, symObjAddr: 0x22C60, symBinAddr: 0x5F3C0, symSize: 0x1CB0 }
  - { offset: 0xFA069, size: 0x8, addend: 0x0, symName: __RNvXsx_NtNtCsdGrGZaRBwMb_3syn4item7parsingNtB7_13ImplItemMacroNtNtB9_5parse5Parse5parse, symObjAddr: 0x26A90, symBinAddr: 0x617C0, symSize: 0x410 }
  - { offset: 0xFA17D, size: 0x8, addend: 0x0, symName: __RNvXsz_NtNtCsdGrGZaRBwMb_3syn4item7parsingNtB7_16StaticMutabilityNtNtB9_5parse5Parse5parse, symObjAddr: 0x26F70, symBinAddr: 0x61C20, symSize: 0xD0 }
  - { offset: 0xFA1F3, size: 0x8, addend: 0x0, symName: __RNvXNtNtCsdGrGZaRBwMb_3syn4item8printingNtB4_15ItemExternCrateNtNtCs9OU1sGv5X54_5quote9to_tokens8ToTokens9to_tokens, symObjAddr: 0x47E0, symBinAddr: 0x4A2D0, symSize: 0x100 }
  - { offset: 0xFA260, size: 0x8, addend: 0x0, symName: __RNvXs0_NtNtCsdGrGZaRBwMb_3syn4item8printingNtB7_10ItemStaticNtNtCs9OU1sGv5X54_5quote9to_tokens8ToTokens9to_tokens, symObjAddr: 0x5270, symBinAddr: 0x4AD60, symSize: 0xE0 }
  - { offset: 0xFA29F, size: 0x8, addend: 0x0, symName: __RNvXs1_NtNtCsdGrGZaRBwMb_3syn4item8printingNtB7_9ItemConstNtNtCs9OU1sGv5X54_5quote9to_tokens8ToTokens9to_tokens, symObjAddr: 0x6E50, symBinAddr: 0x4C460, symSize: 0xF0 }
  - { offset: 0xFA2DE, size: 0x8, addend: 0x0, symName: __RNvXs2_NtNtCsdGrGZaRBwMb_3syn4item8printingNtB7_6ItemFnNtNtCs9OU1sGv5X54_5quote9to_tokens8ToTokens9to_tokens, symObjAddr: 0xC060, symBinAddr: 0x51240, symSize: 0xD0 }
  - { offset: 0xFA31D, size: 0x8, addend: 0x0, symName: __RNvXs3_NtNtCsdGrGZaRBwMb_3syn4item8printingNtB7_7ItemModNtNtCs9OU1sGv5X54_5quote9to_tokens8ToTokens9to_tokens, symObjAddr: 0xF230, symBinAddr: 0x53930, symSize: 0x110 }
  - { offset: 0xFA38A, size: 0x8, addend: 0x0, symName: __RNvXs4_NtNtCsdGrGZaRBwMb_3syn4item8printingNtB7_14ItemForeignModNtNtCs9OU1sGv5X54_5quote9to_tokens8ToTokens9to_tokens, symObjAddr: 0x10B10, symBinAddr: 0x54020, symSize: 0x80 }
  - { offset: 0xFA3C9, size: 0x8, addend: 0x0, symName: __RNvXs5_NtNtCsdGrGZaRBwMb_3syn4item8printingNtB7_8ItemTypeNtNtCs9OU1sGv5X54_5quote9to_tokens8ToTokens9to_tokens, symObjAddr: 0x12300, symBinAddr: 0x54370, symSize: 0xE0 }
  - { offset: 0xFA408, size: 0x8, addend: 0x0, symName: __RNvXs6_NtNtCsdGrGZaRBwMb_3syn4item8printingNtB7_8ItemEnumNtNtCs9OU1sGv5X54_5quote9to_tokens8ToTokens9to_tokens, symObjAddr: 0x12830, symBinAddr: 0x54860, symSize: 0xC0 }
  - { offset: 0xFA447, size: 0x8, addend: 0x0, symName: __RNvXs7_NtNtCsdGrGZaRBwMb_3syn4item8printingNtB7_10ItemStructNtNtCs9OU1sGv5X54_5quote9to_tokens8ToTokens9to_tokens, symObjAddr: 0x12DC0, symBinAddr: 0x54920, symSize: 0x180 }
  - { offset: 0xFA4C2, size: 0x8, addend: 0x0, symName: __RNvXs8_NtNtCsdGrGZaRBwMb_3syn4item8printingNtB7_9ItemUnionNtNtCs9OU1sGv5X54_5quote9to_tokens8ToTokens9to_tokens, symObjAddr: 0x139D0, symBinAddr: 0x551A0, symSize: 0xC0 }
  - { offset: 0xFA501, size: 0x8, addend: 0x0, symName: __RNvXs9_NtNtCsdGrGZaRBwMb_3syn4item8printingNtB7_9ItemTraitNtNtCs9OU1sGv5X54_5quote9to_tokens8ToTokens9to_tokens, symObjAddr: 0x13CD0, symBinAddr: 0x55260, symSize: 0x130 }
  - { offset: 0xFA540, size: 0x8, addend: 0x0, symName: __RNvXs_NtNtCsdGrGZaRBwMb_3syn4item8printingNtB6_7ItemUseNtNtCs9OU1sGv5X54_5quote9to_tokens8ToTokens9to_tokens, symObjAddr: 0x14840, symBinAddr: 0x555C0, symSize: 0xA0 }
  - { offset: 0xFA57F, size: 0x8, addend: 0x0, symName: __RNvXsa_NtNtCsdGrGZaRBwMb_3syn4item8printingNtB7_14ItemTraitAliasNtNtCs9OU1sGv5X54_5quote9to_tokens8ToTokens9to_tokens, symObjAddr: 0x15A10, symBinAddr: 0x56750, symSize: 0xE0 }
  - { offset: 0xFA5BE, size: 0x8, addend: 0x0, symName: __RNvXsb_NtNtCsdGrGZaRBwMb_3syn4item8printingNtB7_8ItemImplNtNtCs9OU1sGv5X54_5quote9to_tokens8ToTokens9to_tokens, symObjAddr: 0x16300, symBinAddr: 0x57000, symSize: 0x160 }
  - { offset: 0xFA63B, size: 0x8, addend: 0x0, symName: __RNvXsc_NtNtCsdGrGZaRBwMb_3syn4item8printingNtB7_9ItemMacroNtNtCs9OU1sGv5X54_5quote9to_tokens8ToTokens9to_tokens, symObjAddr: 0x18760, symBinAddr: 0x59420, symSize: 0x130 }
  - { offset: 0xFA6CC, size: 0x8, addend: 0x0, symName: __RNvXsd_NtNtCsdGrGZaRBwMb_3syn4item8printingNtB7_7UsePathNtNtCs9OU1sGv5X54_5quote9to_tokens8ToTokens9to_tokens, symObjAddr: 0x18E20, symBinAddr: 0x59550, symSize: 0x50 }
  - { offset: 0xFA70B, size: 0x8, addend: 0x0, symName: __RNvXse_NtNtCsdGrGZaRBwMb_3syn4item8printingNtB7_7UseNameNtNtCs9OU1sGv5X54_5quote9to_tokens8ToTokens9to_tokens, symObjAddr: 0x19960, symBinAddr: 0x595A0, symSize: 0x30 }
  - { offset: 0xFA74A, size: 0x8, addend: 0x0, symName: __RNvXsf_NtNtCsdGrGZaRBwMb_3syn4item8printingNtB7_9UseRenameNtNtCs9OU1sGv5X54_5quote9to_tokens8ToTokens9to_tokens, symObjAddr: 0x1A380, symBinAddr: 0x595D0, symSize: 0x50 }
  - { offset: 0xFA789, size: 0x8, addend: 0x0, symName: __RNvXsg_NtNtCsdGrGZaRBwMb_3syn4item8printingNtB7_7UseGlobNtNtCs9OU1sGv5X54_5quote9to_tokens8ToTokens9to_tokens, symObjAddr: 0x1A820, symBinAddr: 0x59A30, symSize: 0x30 }
  - { offset: 0xFA7C8, size: 0x8, addend: 0x0, symName: __RNvXsh_NtNtCsdGrGZaRBwMb_3syn4item8printingNtB7_8UseGroupNtNtCs9OU1sGv5X54_5quote9to_tokens8ToTokens9to_tokens, symObjAddr: 0x1B570, symBinAddr: 0x59A60, symSize: 0x30 }
  - { offset: 0xFA807, size: 0x8, addend: 0x0, symName: __RNvXsi_NtNtCsdGrGZaRBwMb_3syn4item8printingNtB7_14TraitItemConstNtNtCs9OU1sGv5X54_5quote9to_tokens8ToTokens9to_tokens, symObjAddr: 0x1BF40, symBinAddr: 0x5A3F0, symSize: 0x110 }
  - { offset: 0xFA874, size: 0x8, addend: 0x0, symName: __RNvXsj_NtNtCsdGrGZaRBwMb_3syn4item8printingNtB7_11TraitItemFnNtNtCs9OU1sGv5X54_5quote9to_tokens8ToTokens9to_tokens, symObjAddr: 0x1C9D0, symBinAddr: 0x5AE40, symSize: 0xD0 }
  - { offset: 0xFA8D1, size: 0x8, addend: 0x0, symName: __RNvXsk_NtNtCsdGrGZaRBwMb_3syn4item8printingNtB7_13TraitItemTypeNtNtCs9OU1sGv5X54_5quote9to_tokens8ToTokens9to_tokens, symObjAddr: 0x1D680, symBinAddr: 0x5BAF0, symSize: 0x160 }
  - { offset: 0xFA93E, size: 0x8, addend: 0x0, symName: __RNvXsl_NtNtCsdGrGZaRBwMb_3syn4item8printingNtB7_14TraitItemMacroNtNtCs9OU1sGv5X54_5quote9to_tokens8ToTokens9to_tokens, symObjAddr: 0x1E080, symBinAddr: 0x5C4B0, symSize: 0x70 }
  - { offset: 0xFA97D, size: 0x8, addend: 0x0, symName: __RNvXsm_NtNtCsdGrGZaRBwMb_3syn4item8printingNtB7_13ImplItemConstNtNtCs9OU1sGv5X54_5quote9to_tokens8ToTokens9to_tokens, symObjAddr: 0x1E460, symBinAddr: 0x5C520, symSize: 0x100 }
  - { offset: 0xFA9BC, size: 0x8, addend: 0x0, symName: __RNvXsn_NtNtCsdGrGZaRBwMb_3syn4item8printingNtB7_10ImplItemFnNtNtCs9OU1sGv5X54_5quote9to_tokens8ToTokens9to_tokens, symObjAddr: 0x1FF60, symBinAddr: 0x5DFE0, symSize: 0xA0 }
  - { offset: 0xFA9FB, size: 0x8, addend: 0x0, symName: __RNvXso_NtNtCsdGrGZaRBwMb_3syn4item8printingNtB7_12ImplItemTypeNtNtCs9OU1sGv5X54_5quote9to_tokens8ToTokens9to_tokens, symObjAddr: 0x20B40, symBinAddr: 0x5E080, symSize: 0x100 }
  - { offset: 0xFAA3A, size: 0x8, addend: 0x0, symName: __RNvXsp_NtNtCsdGrGZaRBwMb_3syn4item8printingNtB7_13ImplItemMacroNtNtCs9OU1sGv5X54_5quote9to_tokens8ToTokens9to_tokens, symObjAddr: 0x21770, symBinAddr: 0x5EC70, symSize: 0x70 }
  - { offset: 0xFAA79, size: 0x8, addend: 0x0, symName: __RNvXsq_NtNtCsdGrGZaRBwMb_3syn4item8printingNtB7_13ForeignItemFnNtNtCs9OU1sGv5X54_5quote9to_tokens8ToTokens9to_tokens, symObjAddr: 0x22540, symBinAddr: 0x5EDB0, symSize: 0x80 }
  - { offset: 0xFAAB8, size: 0x8, addend: 0x0, symName: __RNvXsr_NtNtCsdGrGZaRBwMb_3syn4item8printingNtB7_17ForeignItemStaticNtNtCs9OU1sGv5X54_5quote9to_tokens8ToTokens9to_tokens, symObjAddr: 0x22A00, symBinAddr: 0x5F240, symSize: 0xC0 }
  - { offset: 0xFAAF7, size: 0x8, addend: 0x0, symName: __RNvXss_NtNtCsdGrGZaRBwMb_3syn4item8printingNtB7_15ForeignItemTypeNtNtCs9OU1sGv5X54_5quote9to_tokens8ToTokens9to_tokens, symObjAddr: 0x22B60, symBinAddr: 0x5F300, symSize: 0xC0 }
  - { offset: 0xFAB36, size: 0x8, addend: 0x0, symName: __RNvXst_NtNtCsdGrGZaRBwMb_3syn4item8printingNtB7_16ForeignItemMacroNtNtCs9OU1sGv5X54_5quote9to_tokens8ToTokens9to_tokens, symObjAddr: 0x24910, symBinAddr: 0x61070, symSize: 0x70 }
  - { offset: 0xFAB75, size: 0x8, addend: 0x0, symName: __RNvXsu_NtNtCsdGrGZaRBwMb_3syn4item8printingNtB7_9SignatureNtNtCs9OU1sGv5X54_5quote9to_tokens8ToTokens9to_tokens, symObjAddr: 0x25730, symBinAddr: 0x610E0, symSize: 0xE0 }
  - { offset: 0xFABB4, size: 0x8, addend: 0x0, symName: __RNvXsv_NtNtCsdGrGZaRBwMb_3syn4item8printingNtB7_8ReceiverNtNtCs9OU1sGv5X54_5quote9to_tokens8ToTokens9to_tokens, symObjAddr: 0x25950, symBinAddr: 0x612A0, symSize: 0x450 }
  - { offset: 0xFACAA, size: 0x8, addend: 0x0, symName: __RNvXsw_NtNtCsdGrGZaRBwMb_3syn4item8printingNtB7_8VariadicNtNtCs9OU1sGv5X54_5quote9to_tokens8ToTokens9to_tokens, symObjAddr: 0x26980, symBinAddr: 0x616F0, symSize: 0xD0 }
  - { offset: 0xFAD17, size: 0x8, addend: 0x0, symName: __RNvXsx_NtNtCsdGrGZaRBwMb_3syn4item8printingNtB7_16StaticMutabilityNtNtCs9OU1sGv5X54_5quote9to_tokens8ToTokens9to_tokens, symObjAddr: 0x26EA0, symBinAddr: 0x61BD0, symSize: 0x50 }
  - { offset: 0xFAD75, size: 0x8, addend: 0x0, symName: __RNvXsA_NtCsdGrGZaRBwMb_3syn4itemNtB5_9TraitItemNtNtCs9OU1sGv5X54_5quote9to_tokens8ToTokens9to_tokens, symObjAddr: 0x13E00, symBinAddr: 0x55390, symSize: 0xE0 }
  - { offset: 0xFAE42, size: 0x8, addend: 0x0, symName: __RNvXsF_NtCsdGrGZaRBwMb_3syn4itemNtB5_8ImplItemNtNtCs9OU1sGv5X54_5quote9to_tokens8ToTokens9to_tokens, symObjAddr: 0x13FD0, symBinAddr: 0x55470, symSize: 0xE0 }
  - { offset: 0xFAF0F, size: 0x8, addend: 0x0, symName: __RNvXsI_NtCsdGrGZaRBwMb_3syn4itemNtB5_5FnArgNtNtCs9OU1sGv5X54_5quote9to_tokens8ToTokens9to_tokens, symObjAddr: 0x14130, symBinAddr: 0x55550, symSize: 0x70 }
  - { offset: 0xFAF85, size: 0x8, addend: 0x0, symName: __RNvXsk_NtCsdGrGZaRBwMb_3syn4itemNtB5_4ItemNtNtCs9OU1sGv5X54_5quote9to_tokens8ToTokens9to_tokens, symObjAddr: 0x1CAA0, symBinAddr: 0x5AF10, symSize: 0x2A0 }
  - { offset: 0xFB19B, size: 0x8, addend: 0x0, symName: __RNvXsq_NtCsdGrGZaRBwMb_3syn4itemNtB5_7UseTreeNtNtCs9OU1sGv5X54_5quote9to_tokens8ToTokens9to_tokens, symObjAddr: 0x217E0, symBinAddr: 0x5ECE0, symSize: 0xD0 }
  - { offset: 0xFB268, size: 0x8, addend: 0x0, symName: __RNvXsv_NtCsdGrGZaRBwMb_3syn4itemNtB5_11ForeignItemNtNtCs9OU1sGv5X54_5quote9to_tokens8ToTokens9to_tokens, symObjAddr: 0x25810, symBinAddr: 0x611C0, symSize: 0xE0 }
  - { offset: 0xFBE6F, size: 0x8, addend: 0x0, symName: __RNvXs16_NtNtCsdGrGZaRBwMb_3syn3gen5cloneNtNtBa_4item5FnArgNtNtCsieiGu2EXtoJ_4core5clone5Clone5clone, symObjAddr: 0x5350, symBinAddr: 0x4AE40, symSize: 0xE0 }
  - { offset: 0xFBED7, size: 0x8, addend: 0x0, symName: __RNvXs17_NtNtCsdGrGZaRBwMb_3syn3gen5cloneNtNtBa_4item11ForeignItemNtNtCsieiGu2EXtoJ_4core5clone5Clone5clone, symObjAddr: 0x5430, symBinAddr: 0x4AF20, symSize: 0x200 }
  - { offset: 0xFBF99, size: 0x8, addend: 0x0, symName: __RNvXs18_NtNtCsdGrGZaRBwMb_3syn3gen5cloneNtNtBa_4item13ForeignItemFnNtNtCsieiGu2EXtoJ_4core5clone5Clone5clone, symObjAddr: 0x5630, symBinAddr: 0x4B120, symSize: 0x1A0 }
  - { offset: 0xFBFCD, size: 0x8, addend: 0x0, symName: __RNvXs19_NtNtCsdGrGZaRBwMb_3syn3gen5cloneNtNtBa_4item16ForeignItemMacroNtNtCsieiGu2EXtoJ_4core5clone5Clone5clone, symObjAddr: 0x5890, symBinAddr: 0x4B2C0, symSize: 0x130 }
  - { offset: 0xFC001, size: 0x8, addend: 0x0, symName: __RNvXs1A_NtNtCsdGrGZaRBwMb_3syn3gen5cloneNtNtBa_4item9ItemUnionNtNtCsieiGu2EXtoJ_4core5clone5Clone5clone, symObjAddr: 0x59C0, symBinAddr: 0x4B3F0, symSize: 0x220 }
  - { offset: 0xFC035, size: 0x8, addend: 0x0, symName: __RNvXs1B_NtNtCsdGrGZaRBwMb_3syn3gen5cloneNtNtBa_4item7ItemUseNtNtCsieiGu2EXtoJ_4core5clone5Clone5clone, symObjAddr: 0x5BE0, symBinAddr: 0x4B610, symSize: 0x1D0 }
  - { offset: 0xFC069, size: 0x8, addend: 0x0, symName: __RNvXs1a_NtNtCsdGrGZaRBwMb_3syn3gen5cloneNtNtBa_4item17ForeignItemStaticNtNtCsieiGu2EXtoJ_4core5clone5Clone5clone, symObjAddr: 0x6F40, symBinAddr: 0x4C550, symSize: 0x250 }
  - { offset: 0xFC09D, size: 0x8, addend: 0x0, symName: __RNvXs1b_NtNtCsdGrGZaRBwMb_3syn3gen5cloneNtNtBa_4item15ForeignItemTypeNtNtCsieiGu2EXtoJ_4core5clone5Clone5clone, symObjAddr: 0x7190, symBinAddr: 0x4C7A0, symSize: 0x210 }
  - { offset: 0xFC0D1, size: 0x8, addend: 0x0, symName: __RNvXs1f_NtNtCsdGrGZaRBwMb_3syn3gen5cloneNtNtBa_4item8ImplItemNtNtCsieiGu2EXtoJ_4core5clone5Clone5clone, symObjAddr: 0x73A0, symBinAddr: 0x4C9B0, symSize: 0x200 }
  - { offset: 0xFC193, size: 0x8, addend: 0x0, symName: __RNvXs1g_NtNtCsdGrGZaRBwMb_3syn3gen5cloneNtNtBa_4item13ImplItemConstNtNtCsieiGu2EXtoJ_4core5clone5Clone5clone, symObjAddr: 0x75A0, symBinAddr: 0x4CBB0, symSize: 0x3A0 }
  - { offset: 0xFC1C7, size: 0x8, addend: 0x0, symName: __RNvXs1h_NtNtCsdGrGZaRBwMb_3syn3gen5cloneNtNtBa_4item10ImplItemFnNtNtCsieiGu2EXtoJ_4core5clone5Clone5clone, symObjAddr: 0x7940, symBinAddr: 0x4CF50, symSize: 0x1F0 }
  - { offset: 0xFC1FB, size: 0x8, addend: 0x0, symName: __RNvXs1i_NtNtCsdGrGZaRBwMb_3syn3gen5cloneNtNtBa_4item13ImplItemMacroNtNtCsieiGu2EXtoJ_4core5clone5Clone5clone, symObjAddr: 0x7B30, symBinAddr: 0x4D140, symSize: 0x130 }
  - { offset: 0xFC22F, size: 0x8, addend: 0x0, symName: __RNvXs1j_NtNtCsdGrGZaRBwMb_3syn3gen5cloneNtNtBa_4item12ImplItemTypeNtNtCsieiGu2EXtoJ_4core5clone5Clone5clone, symObjAddr: 0x7C60, symBinAddr: 0x4D270, symSize: 0x310 }
  - { offset: 0xFC263, size: 0x8, addend: 0x0, symName: __RNvXs1m_NtNtCsdGrGZaRBwMb_3syn3gen5cloneNtNtBa_4item4ItemNtNtCsieiGu2EXtoJ_4core5clone5Clone5clone, symObjAddr: 0x7F80, symBinAddr: 0x4D580, symSize: 0x5C0 }
  - { offset: 0xFC478, size: 0x8, addend: 0x0, symName: __RNvXs1n_NtNtCsdGrGZaRBwMb_3syn3gen5cloneNtNtBa_4item9ItemConstNtNtCsieiGu2EXtoJ_4core5clone5Clone5clone, symObjAddr: 0x8540, symBinAddr: 0x4DB40, symSize: 0x320 }
  - { offset: 0xFC4AC, size: 0x8, addend: 0x0, symName: __RNvXs1o_NtNtCsdGrGZaRBwMb_3syn3gen5cloneNtNtBa_4item8ItemEnumNtNtCsieiGu2EXtoJ_4core5clone5Clone5clone, symObjAddr: 0x8860, symBinAddr: 0x4DE60, symSize: 0x260 }
  - { offset: 0xFC4E0, size: 0x8, addend: 0x0, symName: __RNvXs1p_NtNtCsdGrGZaRBwMb_3syn3gen5cloneNtNtBa_4item15ItemExternCrateNtNtCsieiGu2EXtoJ_4core5clone5Clone5clone, symObjAddr: 0x8AC0, symBinAddr: 0x4E0C0, symSize: 0x200 }
  - { offset: 0xFC514, size: 0x8, addend: 0x0, symName: __RNvXs1q_NtNtCsdGrGZaRBwMb_3syn3gen5cloneNtNtBa_4item6ItemFnNtNtCsieiGu2EXtoJ_4core5clone5Clone5clone, symObjAddr: 0x8CC0, symBinAddr: 0x4E2C0, symSize: 0x1A0 }
  - { offset: 0xFC548, size: 0x8, addend: 0x0, symName: __RNvXs1r_NtNtCsdGrGZaRBwMb_3syn3gen5cloneNtNtBa_4item14ItemForeignModNtNtCsieiGu2EXtoJ_4core5clone5Clone5clone, symObjAddr: 0x8E60, symBinAddr: 0x4E460, symSize: 0x170 }
  - { offset: 0xFC57C, size: 0x8, addend: 0x0, symName: __RNvXs1s_NtNtCsdGrGZaRBwMb_3syn3gen5cloneNtNtBa_4item8ItemImplNtNtCsieiGu2EXtoJ_4core5clone5Clone5clone, symObjAddr: 0x8FD0, symBinAddr: 0x4E5D0, symSize: 0x2D0 }
  - { offset: 0xFC5B0, size: 0x8, addend: 0x0, symName: __RNvXs1t_NtNtCsdGrGZaRBwMb_3syn3gen5cloneNtNtBa_4item9ItemMacroNtNtCsieiGu2EXtoJ_4core5clone5Clone5clone, symObjAddr: 0x92A0, symBinAddr: 0x4E8A0, symSize: 0x190 }
  - { offset: 0xFC5E4, size: 0x8, addend: 0x0, symName: __RNvXs1u_NtNtCsdGrGZaRBwMb_3syn3gen5cloneNtNtBa_4item7ItemModNtNtCsieiGu2EXtoJ_4core5clone5Clone5clone, symObjAddr: 0x9430, symBinAddr: 0x4EA30, symSize: 0x240 }
  - { offset: 0xFC618, size: 0x8, addend: 0x0, symName: __RNvXs1v_NtNtCsdGrGZaRBwMb_3syn3gen5cloneNtNtBa_4item10ItemStaticNtNtCsieiGu2EXtoJ_4core5clone5Clone5clone, symObjAddr: 0x9670, symBinAddr: 0x4EC70, symSize: 0x2D0 }
  - { offset: 0xFC64C, size: 0x8, addend: 0x0, symName: __RNvXs1w_NtNtCsdGrGZaRBwMb_3syn3gen5cloneNtNtBa_4item10ItemStructNtNtCsieiGu2EXtoJ_4core5clone5Clone5clone, symObjAddr: 0x9940, symBinAddr: 0x4EF40, symSize: 0x270 }
  - { offset: 0xFC680, size: 0x8, addend: 0x0, symName: __RNvXs1x_NtNtCsdGrGZaRBwMb_3syn3gen5cloneNtNtBa_4item9ItemTraitNtNtCsieiGu2EXtoJ_4core5clone5Clone5clone, symObjAddr: 0x9BB0, symBinAddr: 0x4F1B0, symSize: 0x3B0 }
  - { offset: 0xFC6B4, size: 0x8, addend: 0x0, symName: __RNvXs1y_NtNtCsdGrGZaRBwMb_3syn3gen5cloneNtNtBa_4item14ItemTraitAliasNtNtCsieiGu2EXtoJ_4core5clone5Clone5clone, symObjAddr: 0x9F60, symBinAddr: 0x4F560, symSize: 0x2B0 }
  - { offset: 0xFC6E8, size: 0x8, addend: 0x0, symName: __RNvXs1z_NtNtCsdGrGZaRBwMb_3syn3gen5cloneNtNtBa_4item8ItemTypeNtNtCsieiGu2EXtoJ_4core5clone5Clone5clone, symObjAddr: 0xA210, symBinAddr: 0x4F810, symSize: 0x2A0 }
  - { offset: 0xFC71C, size: 0x8, addend: 0x0, symName: __RNvXs2I_NtNtCsdGrGZaRBwMb_3syn3gen5cloneNtNtBa_4item7UseGlobNtNtCsieiGu2EXtoJ_4core5clone5Clone5clone, symObjAddr: 0xB290, symBinAddr: 0x504D0, symSize: 0x40 }
  - { offset: 0xFC750, size: 0x8, addend: 0x0, symName: __RNvXs2J_NtNtCsdGrGZaRBwMb_3syn3gen5cloneNtNtBa_4item8UseGroupNtNtCsieiGu2EXtoJ_4core5clone5Clone5clone, symObjAddr: 0xB3B0, symBinAddr: 0x505F0, symSize: 0x80 }
  - { offset: 0xFC784, size: 0x8, addend: 0x0, symName: __RNvXs2K_NtNtCsdGrGZaRBwMb_3syn3gen5cloneNtNtBa_4item7UseNameNtNtCsieiGu2EXtoJ_4core5clone5Clone5clone, symObjAddr: 0xB430, symBinAddr: 0x50670, symSize: 0x50 }
  - { offset: 0xFC7B8, size: 0x8, addend: 0x0, symName: __RNvXs2L_NtNtCsdGrGZaRBwMb_3syn3gen5cloneNtNtBa_4item7UsePathNtNtCsieiGu2EXtoJ_4core5clone5Clone5clone, symObjAddr: 0xB530, symBinAddr: 0x50770, symSize: 0xC0 }
  - { offset: 0xFC7EC, size: 0x8, addend: 0x0, symName: __RNvXs2M_NtNtCsdGrGZaRBwMb_3syn3gen5cloneNtNtBa_4item9UseRenameNtNtCsieiGu2EXtoJ_4core5clone5Clone5clone, symObjAddr: 0xB5F0, symBinAddr: 0x50830, symSize: 0xC0 }
  - { offset: 0xFC820, size: 0x8, addend: 0x0, symName: __RNvXs2N_NtNtCsdGrGZaRBwMb_3syn3gen5cloneNtNtBa_4item7UseTreeNtNtCsieiGu2EXtoJ_4core5clone5Clone5clone, symObjAddr: 0xB770, symBinAddr: 0x509B0, symSize: 0x1F0 }
  - { offset: 0xFC8E2, size: 0x8, addend: 0x0, symName: __RNvXs2O_NtNtCsdGrGZaRBwMb_3syn3gen5cloneNtNtBa_4item8VariadicNtNtCsieiGu2EXtoJ_4core5clone5Clone5clone, symObjAddr: 0xB960, symBinAddr: 0x50BA0, symSize: 0x110 }
  - { offset: 0xFC916, size: 0x8, addend: 0x0, symName: __RNvXs2b_NtNtCsdGrGZaRBwMb_3syn3gen5cloneNtNtBa_4item8ReceiverNtNtCsieiGu2EXtoJ_4core5clone5Clone5clone, symObjAddr: 0xC830, symBinAddr: 0x51A10, symSize: 0x180 }
  - { offset: 0xFC94A, size: 0x8, addend: 0x0, symName: __RNvXs2d_NtNtCsdGrGZaRBwMb_3syn3gen5cloneNtNtBa_4item9SignatureNtNtCsieiGu2EXtoJ_4core5clone5Clone5clone, symObjAddr: 0xD180, symBinAddr: 0x51E20, symSize: 0x340 }
  - { offset: 0xFC97E, size: 0x8, addend: 0x0, symName: __RNvXs2e_NtNtCsdGrGZaRBwMb_3syn3gen5cloneNtNtBa_4item16StaticMutabilityNtNtCsieiGu2EXtoJ_4core5clone5Clone5clone, symObjAddr: 0xD4C0, symBinAddr: 0x52160, symSize: 0x60 }
  - { offset: 0xFC9D0, size: 0x8, addend: 0x0, symName: __RNvXs2k_NtNtCsdGrGZaRBwMb_3syn3gen5cloneNtNtBa_4item9TraitItemNtNtCsieiGu2EXtoJ_4core5clone5Clone5clone, symObjAddr: 0xD7D0, symBinAddr: 0x523B0, symSize: 0x200 }
  - { offset: 0xFCA92, size: 0x8, addend: 0x0, symName: __RNvXs2l_NtNtCsdGrGZaRBwMb_3syn3gen5cloneNtNtBa_4item14TraitItemConstNtNtCsieiGu2EXtoJ_4core5clone5Clone5clone, symObjAddr: 0xDAC0, symBinAddr: 0x52660, symSize: 0x2A0 }
  - { offset: 0xFCAC6, size: 0x8, addend: 0x0, symName: __RNvXs2m_NtNtCsdGrGZaRBwMb_3syn3gen5cloneNtNtBa_4item11TraitItemFnNtNtCsieiGu2EXtoJ_4core5clone5Clone5clone, symObjAddr: 0xDD60, symBinAddr: 0x52900, symSize: 0x190 }
  - { offset: 0xFCAFA, size: 0x8, addend: 0x0, symName: __RNvXs2n_NtNtCsdGrGZaRBwMb_3syn3gen5cloneNtNtBa_4item14TraitItemMacroNtNtCsieiGu2EXtoJ_4core5clone5Clone5clone, symObjAddr: 0xDF30, symBinAddr: 0x52A90, symSize: 0x130 }
  - { offset: 0xFCB2E, size: 0x8, addend: 0x0, symName: __RNvXs2o_NtNtCsdGrGZaRBwMb_3syn3gen5cloneNtNtBa_4item13TraitItemTypeNtNtCsieiGu2EXtoJ_4core5clone5Clone5clone, symObjAddr: 0xE060, symBinAddr: 0x52BC0, symSize: 0x2C0 }
  - { offset: 0xFCB68, size: 0x8, addend: 0x0, symName: __RNvXs2B_NtNtCsdGrGZaRBwMb_3syn3gen2eqNtNtBa_4item12ImplItemTypeNtNtCsieiGu2EXtoJ_4core3cmp9PartialEq2eq, symObjAddr: 0xA7E0, symBinAddr: 0x4FAB0, symSize: 0x110 }
  - { offset: 0xFCBAB, size: 0x8, addend: 0x0, symName: __RNvXs2F_NtNtCsdGrGZaRBwMb_3syn3gen2eqNtNtBa_4item4ItemNtNtCsieiGu2EXtoJ_4core3cmp9PartialEq2eq, symObjAddr: 0xA980, symBinAddr: 0x4FBC0, symSize: 0x800 }
  - { offset: 0xFCEEA, size: 0x8, addend: 0x0, symName: __RNvXs2H_NtNtCsdGrGZaRBwMb_3syn3gen2eqNtNtBa_4item9ItemConstNtNtCsieiGu2EXtoJ_4core3cmp9PartialEq2eq, symObjAddr: 0xB180, symBinAddr: 0x503C0, symSize: 0x110 }
  - { offset: 0xFCF2D, size: 0x8, addend: 0x0, symName: __RNvXs2J_NtNtCsdGrGZaRBwMb_3syn3gen2eqNtNtBa_4item8ItemEnumNtNtCsieiGu2EXtoJ_4core3cmp9PartialEq2eq, symObjAddr: 0xB2D0, symBinAddr: 0x50510, symSize: 0xE0 }
  - { offset: 0xFCF70, size: 0x8, addend: 0x0, symName: __RNvXs2L_NtNtCsdGrGZaRBwMb_3syn3gen2eqNtNtBa_4item15ItemExternCrateNtNtCsieiGu2EXtoJ_4core3cmp9PartialEq2eq, symObjAddr: 0xB480, symBinAddr: 0x506C0, symSize: 0xB0 }
  - { offset: 0xFCFB3, size: 0x8, addend: 0x0, symName: __RNvXs2N_NtNtCsdGrGZaRBwMb_3syn3gen2eqNtNtBa_4item6ItemFnNtNtCsieiGu2EXtoJ_4core3cmp9PartialEq2eq, symObjAddr: 0xB6B0, symBinAddr: 0x508F0, symSize: 0xC0 }
  - { offset: 0xFCFF6, size: 0x8, addend: 0x0, symName: __RNvXs2P_NtNtCsdGrGZaRBwMb_3syn3gen2eqNtNtBa_4item14ItemForeignModNtNtCsieiGu2EXtoJ_4core3cmp9PartialEq2eq, symObjAddr: 0xBA70, symBinAddr: 0x50CB0, symSize: 0xB0 }
  - { offset: 0xFD039, size: 0x8, addend: 0x0, symName: __RNvXs2R_NtNtCsdGrGZaRBwMb_3syn3gen2eqNtNtBa_4item8ItemImplNtNtCsieiGu2EXtoJ_4core3cmp9PartialEq2eq, symObjAddr: 0xBB20, symBinAddr: 0x50D60, symSize: 0x130 }
  - { offset: 0xFD07C, size: 0x8, addend: 0x0, symName: __RNvXs2T_NtNtCsdGrGZaRBwMb_3syn3gen2eqNtNtBa_4item9ItemMacroNtNtCsieiGu2EXtoJ_4core3cmp9PartialEq2eq, symObjAddr: 0xBC50, symBinAddr: 0x50E90, symSize: 0xC0 }
  - { offset: 0xFD0BF, size: 0x8, addend: 0x0, symName: __RNvXs2V_NtNtCsdGrGZaRBwMb_3syn3gen2eqNtNtBa_4item7ItemModNtNtCsieiGu2EXtoJ_4core3cmp9PartialEq2eq, symObjAddr: 0xBD10, symBinAddr: 0x50F50, symSize: 0xF0 }
  - { offset: 0xFD102, size: 0x8, addend: 0x0, symName: __RNvXs2X_NtNtCsdGrGZaRBwMb_3syn3gen2eqNtNtBa_4item10ItemStaticNtNtCsieiGu2EXtoJ_4core3cmp9PartialEq2eq, symObjAddr: 0xBE00, symBinAddr: 0x51040, symSize: 0xF0 }
  - { offset: 0xFD145, size: 0x8, addend: 0x0, symName: __RNvXs2Z_NtNtCsdGrGZaRBwMb_3syn3gen2eqNtNtBa_4item10ItemStructNtNtCsieiGu2EXtoJ_4core3cmp9PartialEq2eq, symObjAddr: 0xBEF0, symBinAddr: 0x51130, symSize: 0x110 }
  - { offset: 0xFD188, size: 0x8, addend: 0x0, symName: __RNvXs2b_NtNtCsdGrGZaRBwMb_3syn3gen2eqNtNtBa_4item5FnArgNtNtCsieiGu2EXtoJ_4core3cmp9PartialEq2eq, symObjAddr: 0xC730, symBinAddr: 0x51910, symSize: 0x100 }
  - { offset: 0xFD227, size: 0x8, addend: 0x0, symName: __RNvXs2d_NtNtCsdGrGZaRBwMb_3syn3gen2eqNtNtBa_4item11ForeignItemNtNtCsieiGu2EXtoJ_4core3cmp9PartialEq2eq, symObjAddr: 0xCEF0, symBinAddr: 0x51B90, symSize: 0x290 }
  - { offset: 0xFD356, size: 0x8, addend: 0x0, symName: __RNvXs2f_NtNtCsdGrGZaRBwMb_3syn3gen2eqNtNtBa_4item13ForeignItemFnNtNtCsieiGu2EXtoJ_4core3cmp9PartialEq2eq, symObjAddr: 0xD560, symBinAddr: 0x521C0, symSize: 0x90 }
  - { offset: 0xFD399, size: 0x8, addend: 0x0, symName: __RNvXs2h_NtNtCsdGrGZaRBwMb_3syn3gen2eqNtNtBa_4item16ForeignItemMacroNtNtCsieiGu2EXtoJ_4core3cmp9PartialEq2eq, symObjAddr: 0xD630, symBinAddr: 0x52250, symSize: 0x90 }
  - { offset: 0xFD3DC, size: 0x8, addend: 0x0, symName: __RNvXs2j_NtNtCsdGrGZaRBwMb_3syn3gen2eqNtNtBa_4item17ForeignItemStaticNtNtCsieiGu2EXtoJ_4core3cmp9PartialEq2eq, symObjAddr: 0xD700, symBinAddr: 0x522E0, symSize: 0xD0 }
  - { offset: 0xFD41F, size: 0x8, addend: 0x0, symName: __RNvXs2l_NtNtCsdGrGZaRBwMb_3syn3gen2eqNtNtBa_4item15ForeignItemTypeNtNtCsieiGu2EXtoJ_4core3cmp9PartialEq2eq, symObjAddr: 0xDA10, symBinAddr: 0x525B0, symSize: 0xB0 }
  - { offset: 0xFD462, size: 0x8, addend: 0x0, symName: __RNvXs2t_NtNtCsdGrGZaRBwMb_3syn3gen2eqNtNtBa_4item8ImplItemNtNtCsieiGu2EXtoJ_4core3cmp9PartialEq2eq, symObjAddr: 0xE3E0, symBinAddr: 0x52E80, symSize: 0x290 }
  - { offset: 0xFD591, size: 0x8, addend: 0x0, symName: __RNvXs2v_NtNtCsdGrGZaRBwMb_3syn3gen2eqNtNtBa_4item13ImplItemConstNtNtCsieiGu2EXtoJ_4core3cmp9PartialEq2eq, symObjAddr: 0xE6B0, symBinAddr: 0x53110, symSize: 0x140 }
  - { offset: 0xFD5D4, size: 0x8, addend: 0x0, symName: __RNvXs2x_NtNtCsdGrGZaRBwMb_3syn3gen2eqNtNtBa_4item10ImplItemFnNtNtCsieiGu2EXtoJ_4core3cmp9PartialEq2eq, symObjAddr: 0xE830, symBinAddr: 0x53250, symSize: 0xF0 }
  - { offset: 0xFD617, size: 0x8, addend: 0x0, symName: __RNvXs2z_NtNtCsdGrGZaRBwMb_3syn3gen2eqNtNtBa_4item13ImplItemMacroNtNtCsieiGu2EXtoJ_4core3cmp9PartialEq2eq, symObjAddr: 0xE960, symBinAddr: 0x53340, symSize: 0x90 }
  - { offset: 0xFD65A, size: 0x8, addend: 0x0, symName: __RNvXs31_NtNtCsdGrGZaRBwMb_3syn3gen2eqNtNtBa_4item9ItemTraitNtNtCsieiGu2EXtoJ_4core3cmp9PartialEq2eq, symObjAddr: 0xE9F0, symBinAddr: 0x533D0, symSize: 0x1C0 }
  - { offset: 0xFD69D, size: 0x8, addend: 0x0, symName: __RNvXs33_NtNtCsdGrGZaRBwMb_3syn3gen2eqNtNtBa_4item14ItemTraitAliasNtNtCsieiGu2EXtoJ_4core3cmp9PartialEq2eq, symObjAddr: 0xEBB0, symBinAddr: 0x53590, symSize: 0xE0 }
  - { offset: 0xFD6E0, size: 0x8, addend: 0x0, symName: __RNvXs35_NtNtCsdGrGZaRBwMb_3syn3gen2eqNtNtBa_4item8ItemTypeNtNtCsieiGu2EXtoJ_4core3cmp9PartialEq2eq, symObjAddr: 0xEC90, symBinAddr: 0x53670, symSize: 0xE0 }
  - { offset: 0xFD723, size: 0x8, addend: 0x0, symName: __RNvXs37_NtNtCsdGrGZaRBwMb_3syn3gen2eqNtNtBa_4item9ItemUnionNtNtCsieiGu2EXtoJ_4core3cmp9PartialEq2eq, symObjAddr: 0xED70, symBinAddr: 0x53750, symSize: 0xE0 }
  - { offset: 0xFD766, size: 0x8, addend: 0x0, symName: __RNvXs39_NtNtCsdGrGZaRBwMb_3syn3gen2eqNtNtBa_4item7ItemUseNtNtCsieiGu2EXtoJ_4core3cmp9PartialEq2eq, symObjAddr: 0xEE50, symBinAddr: 0x53830, symSize: 0xB0 }
  - { offset: 0xFD7A9, size: 0x8, addend: 0x0, symName: __RNvXs4C_NtNtCsdGrGZaRBwMb_3syn3gen2eqNtNtBa_4item9TraitItemNtNtCsieiGu2EXtoJ_4core3cmp9PartialEq2eq, symObjAddr: 0xF750, symBinAddr: 0x53A40, symSize: 0x290 }
  - { offset: 0xFD8D8, size: 0x8, addend: 0x0, symName: __RNvXs4E_NtNtCsdGrGZaRBwMb_3syn3gen2eqNtNtBa_4item14TraitItemConstNtNtCsieiGu2EXtoJ_4core3cmp9PartialEq2eq, symObjAddr: 0xF9E0, symBinAddr: 0x53CD0, symSize: 0xF0 }
  - { offset: 0xFD91B, size: 0x8, addend: 0x0, symName: __RNvXs4G_NtNtCsdGrGZaRBwMb_3syn3gen2eqNtNtBa_4item11TraitItemFnNtNtCsieiGu2EXtoJ_4core3cmp9PartialEq2eq, symObjAddr: 0xFAD0, symBinAddr: 0x53DC0, symSize: 0xC0 }
  - { offset: 0xFD95E, size: 0x8, addend: 0x0, symName: __RNvXs4I_NtNtCsdGrGZaRBwMb_3syn3gen2eqNtNtBa_4item14TraitItemMacroNtNtCsieiGu2EXtoJ_4core3cmp9PartialEq2eq, symObjAddr: 0xFB90, symBinAddr: 0x53E80, symSize: 0x90 }
  - { offset: 0xFD9A1, size: 0x8, addend: 0x0, symName: __RNvXs4K_NtNtCsdGrGZaRBwMb_3syn3gen2eqNtNtBa_4item13TraitItemTypeNtNtCsieiGu2EXtoJ_4core3cmp9PartialEq2eq, symObjAddr: 0xFC20, symBinAddr: 0x53F10, symSize: 0x110 }
  - { offset: 0xFD9E4, size: 0x8, addend: 0x0, symName: __RNvXs4m_NtNtCsdGrGZaRBwMb_3syn3gen2eqNtNtBa_4item8ReceiverNtNtCsieiGu2EXtoJ_4core3cmp9PartialEq2eq, symObjAddr: 0x10D00, symBinAddr: 0x540A0, symSize: 0xD0 }
  - { offset: 0xFDA27, size: 0x8, addend: 0x0, symName: __RNvXs4q_NtNtCsdGrGZaRBwMb_3syn3gen2eqNtNtBa_4item9SignatureNtNtCsieiGu2EXtoJ_4core3cmp9PartialEq2eq, symObjAddr: 0x112E0, symBinAddr: 0x54170, symSize: 0x190 }
  - { offset: 0xFDA6A, size: 0x8, addend: 0x0, symName: __RNvXs4s_NtNtCsdGrGZaRBwMb_3syn3gen2eqNtNtBa_4item16StaticMutabilityNtNtCsieiGu2EXtoJ_4core3cmp9PartialEq2eq, symObjAddr: 0x11470, symBinAddr: 0x54300, symSize: 0x70 }
  - { offset: 0xFDAAD, size: 0x8, addend: 0x0, symName: __RNvXs5m_NtNtCsdGrGZaRBwMb_3syn3gen2eqNtNtBa_4item7UseGlobNtNtCsieiGu2EXtoJ_4core3cmp9PartialEq2eq, symObjAddr: 0x123E0, symBinAddr: 0x54450, symSize: 0x20 }
  - { offset: 0xFDAF0, size: 0x8, addend: 0x0, symName: __RNvXs5o_NtNtCsdGrGZaRBwMb_3syn3gen2eqNtNtBa_4item8UseGroupNtNtCsieiGu2EXtoJ_4core3cmp9PartialEq2eq, symObjAddr: 0x12400, symBinAddr: 0x54470, symSize: 0x30 }
  - { offset: 0xFDB33, size: 0x8, addend: 0x0, symName: __RNvXs5q_NtNtCsdGrGZaRBwMb_3syn3gen2eqNtNtBa_4item7UseNameNtNtCsieiGu2EXtoJ_4core3cmp9PartialEq2eq, symObjAddr: 0x12430, symBinAddr: 0x544A0, symSize: 0x30 }
  - { offset: 0xFDB76, size: 0x8, addend: 0x0, symName: __RNvXs5s_NtNtCsdGrGZaRBwMb_3syn3gen2eqNtNtBa_4item7UsePathNtNtCsieiGu2EXtoJ_4core3cmp9PartialEq2eq, symObjAddr: 0x12460, symBinAddr: 0x544D0, symSize: 0x70 }
  - { offset: 0xFDBB9, size: 0x8, addend: 0x0, symName: __RNvXs5u_NtNtCsdGrGZaRBwMb_3syn3gen2eqNtNtBa_4item9UseRenameNtNtCsieiGu2EXtoJ_4core3cmp9PartialEq2eq, symObjAddr: 0x124D0, symBinAddr: 0x54540, symSize: 0x60 }
  - { offset: 0xFDBFC, size: 0x8, addend: 0x0, symName: __RNvXs5w_NtNtCsdGrGZaRBwMb_3syn3gen2eqNtNtBa_4item7UseTreeNtNtCsieiGu2EXtoJ_4core3cmp9PartialEq2eq, symObjAddr: 0x12530, symBinAddr: 0x545A0, symSize: 0x1D0 }
  - { offset: 0xFDD29, size: 0x8, addend: 0x0, symName: __RNvXs5y_NtNtCsdGrGZaRBwMb_3syn3gen2eqNtNtBa_4item8VariadicNtNtCsieiGu2EXtoJ_4core3cmp9PartialEq2eq, symObjAddr: 0x12700, symBinAddr: 0x54770, symSize: 0x90 }
  - { offset: 0x101F21, size: 0x8, addend: 0x0, symName: __RNvMNtCsieiGu2EXtoJ_4core5sliceSTNtNtCsdGrGZaRBwMb_3syn4item5FnArgNtNtBz_5token5CommaE4iterBz_, symObjAddr: 0x2180, symBinAddr: 0x49F50, symSize: 0x20 }
  - { offset: 0x101F58, size: 0x8, addend: 0x0, symName: __RNvMNtCsieiGu2EXtoJ_4core5sliceSTNtNtCsdGrGZaRBwMb_3syn4item7UseTreeNtNtBz_5token5CommaE4iterBz_, symObjAddr: 0x21A0, symBinAddr: 0x49F70, symSize: 0x20 }
  - { offset: 0x101F9A, size: 0x8, addend: 0x0, symName: __RNvXs2_NtNtCsieiGu2EXtoJ_4core5slice3cmpSNtNtCsdGrGZaRBwMb_3syn4item11ForeignItemINtB5_14SlicePartialEqBD_E5equalBH_, symObjAddr: 0xC130, symBinAddr: 0x51310, symSize: 0x100 }
  - { offset: 0x101FFB, size: 0x8, addend: 0x0, symName: __RNvXs2_NtNtCsieiGu2EXtoJ_4core5slice3cmpSNtNtCsdGrGZaRBwMb_3syn4item4ItemINtB5_14SlicePartialEqBD_E5equalBH_, symObjAddr: 0xC230, symBinAddr: 0x51410, symSize: 0x100 }
  - { offset: 0x10205C, size: 0x8, addend: 0x0, symName: __RNvXs2_NtNtCsieiGu2EXtoJ_4core5slice3cmpSNtNtCsdGrGZaRBwMb_3syn4item8ImplItemINtB5_14SlicePartialEqBD_E5equalBH_, symObjAddr: 0xC330, symBinAddr: 0x51510, symSize: 0x100 }
  - { offset: 0x1020BD, size: 0x8, addend: 0x0, symName: __RNvXs2_NtNtCsieiGu2EXtoJ_4core5slice3cmpSNtNtCsdGrGZaRBwMb_3syn4item9TraitItemINtB5_14SlicePartialEqBD_E5equalBH_, symObjAddr: 0xC430, symBinAddr: 0x51610, symSize: 0x100 }
  - { offset: 0x10211E, size: 0x8, addend: 0x0, symName: __RNvXs2_NtNtCsieiGu2EXtoJ_4core5slice3cmpSTNtNtCsdGrGZaRBwMb_3syn4item5FnArgNtNtBI_5token5CommaEINtB5_14SlicePartialEqBD_E5equalBI_, symObjAddr: 0xC530, symBinAddr: 0x51710, symSize: 0x100 }
  - { offset: 0x10217F, size: 0x8, addend: 0x0, symName: __RNvXs2_NtNtCsieiGu2EXtoJ_4core5slice3cmpSTNtNtCsdGrGZaRBwMb_3syn4item7UseTreeNtNtBI_5token5CommaEINtB5_14SlicePartialEqBD_E5equalBI_, symObjAddr: 0xC630, symBinAddr: 0x51810, symSize: 0x100 }
  - { offset: 0x1033BE, size: 0x8, addend: 0x0, symName: __RNvXNtNtCsieiGu2EXtoJ_4core5clone6uninitNtNtCsdGrGZaRBwMb_3syn4item5FnArgNtB2_8CopySpec9clone_oneBG_, symObjAddr: 0x48E0, symBinAddr: 0x4A3D0, symSize: 0x50 }
  - { offset: 0x103423, size: 0x8, addend: 0x0, symName: __RNvXNtNtCsieiGu2EXtoJ_4core5clone6uninitNtNtCsdGrGZaRBwMb_3syn4item7UseTreeNtB2_8CopySpec9clone_oneBG_, symObjAddr: 0x4930, symBinAddr: 0x4A420, symSize: 0x40 }
  - { offset: 0x10349A, size: 0x8, addend: 0x0, symName: __RNvXs7_NtNtCsieiGu2EXtoJ_4core3cmp5implsRNtNtCsdGrGZaRBwMb_3syn4item10ImplItemFnNtB7_9PartialEq2eqBH_, symObjAddr: 0x12F40, symBinAddr: 0x54AA0, symSize: 0x30 }
  - { offset: 0x1034E9, size: 0x8, addend: 0x0, symName: __RNvXs7_NtNtCsieiGu2EXtoJ_4core3cmp5implsRNtNtCsdGrGZaRBwMb_3syn4item10ItemStaticNtB7_9PartialEq2eqBH_, symObjAddr: 0x12F70, symBinAddr: 0x54AD0, symSize: 0x30 }
  - { offset: 0x103538, size: 0x8, addend: 0x0, symName: __RNvXs7_NtNtCsieiGu2EXtoJ_4core3cmp5implsRNtNtCsdGrGZaRBwMb_3syn4item10ItemStructNtB7_9PartialEq2eqBH_, symObjAddr: 0x12FA0, symBinAddr: 0x54B00, symSize: 0x30 }
  - { offset: 0x103587, size: 0x8, addend: 0x0, symName: __RNvXs7_NtNtCsieiGu2EXtoJ_4core3cmp5implsRNtNtCsdGrGZaRBwMb_3syn4item11TraitItemFnNtB7_9PartialEq2eqBH_, symObjAddr: 0x12FD0, symBinAddr: 0x54B30, symSize: 0x30 }
  - { offset: 0x1035D6, size: 0x8, addend: 0x0, symName: __RNvXs7_NtNtCsieiGu2EXtoJ_4core3cmp5implsRNtNtCsdGrGZaRBwMb_3syn4item12ImplItemTypeNtB7_9PartialEq2eqBH_, symObjAddr: 0x13000, symBinAddr: 0x54B60, symSize: 0x30 }
  - { offset: 0x103625, size: 0x8, addend: 0x0, symName: __RNvXs7_NtNtCsieiGu2EXtoJ_4core3cmp5implsRNtNtCsdGrGZaRBwMb_3syn4item13ForeignItemFnNtB7_9PartialEq2eqBH_, symObjAddr: 0x13030, symBinAddr: 0x54B90, symSize: 0x30 }
  - { offset: 0x103674, size: 0x8, addend: 0x0, symName: __RNvXs7_NtNtCsieiGu2EXtoJ_4core3cmp5implsRNtNtCsdGrGZaRBwMb_3syn4item13ImplItemConstNtB7_9PartialEq2eqBH_, symObjAddr: 0x13060, symBinAddr: 0x54BC0, symSize: 0x30 }
  - { offset: 0x1036C3, size: 0x8, addend: 0x0, symName: __RNvXs7_NtNtCsieiGu2EXtoJ_4core3cmp5implsRNtNtCsdGrGZaRBwMb_3syn4item13ImplItemMacroNtB7_9PartialEq2eqBH_, symObjAddr: 0x13090, symBinAddr: 0x54BF0, symSize: 0x30 }
  - { offset: 0x103712, size: 0x8, addend: 0x0, symName: __RNvXs7_NtNtCsieiGu2EXtoJ_4core3cmp5implsRNtNtCsdGrGZaRBwMb_3syn4item13TraitItemTypeNtB7_9PartialEq2eqBH_, symObjAddr: 0x130C0, symBinAddr: 0x54C20, symSize: 0x30 }
  - { offset: 0x103761, size: 0x8, addend: 0x0, symName: __RNvXs7_NtNtCsieiGu2EXtoJ_4core3cmp5implsRNtNtCsdGrGZaRBwMb_3syn4item14ItemForeignModNtB7_9PartialEq2eqBH_, symObjAddr: 0x130F0, symBinAddr: 0x54C50, symSize: 0x30 }
  - { offset: 0x1037B0, size: 0x8, addend: 0x0, symName: __RNvXs7_NtNtCsieiGu2EXtoJ_4core3cmp5implsRNtNtCsdGrGZaRBwMb_3syn4item14ItemTraitAliasNtB7_9PartialEq2eqBH_, symObjAddr: 0x13120, symBinAddr: 0x54C80, symSize: 0x30 }
  - { offset: 0x1037FF, size: 0x8, addend: 0x0, symName: __RNvXs7_NtNtCsieiGu2EXtoJ_4core3cmp5implsRNtNtCsdGrGZaRBwMb_3syn4item14TraitItemConstNtB7_9PartialEq2eqBH_, symObjAddr: 0x13150, symBinAddr: 0x54CB0, symSize: 0x30 }
  - { offset: 0x10384E, size: 0x8, addend: 0x0, symName: __RNvXs7_NtNtCsieiGu2EXtoJ_4core3cmp5implsRNtNtCsdGrGZaRBwMb_3syn4item14TraitItemMacroNtB7_9PartialEq2eqBH_, symObjAddr: 0x13180, symBinAddr: 0x54CE0, symSize: 0x30 }
  - { offset: 0x10389D, size: 0x8, addend: 0x0, symName: __RNvXs7_NtNtCsieiGu2EXtoJ_4core3cmp5implsRNtNtCsdGrGZaRBwMb_3syn4item15ForeignItemTypeNtB7_9PartialEq2eqBH_, symObjAddr: 0x131B0, symBinAddr: 0x54D10, symSize: 0x30 }
  - { offset: 0x1038EC, size: 0x8, addend: 0x0, symName: __RNvXs7_NtNtCsieiGu2EXtoJ_4core3cmp5implsRNtNtCsdGrGZaRBwMb_3syn4item15ItemExternCrateNtB7_9PartialEq2eqBH_, symObjAddr: 0x131E0, symBinAddr: 0x54D40, symSize: 0x30 }
  - { offset: 0x10393B, size: 0x8, addend: 0x0, symName: __RNvXs7_NtNtCsieiGu2EXtoJ_4core3cmp5implsRNtNtCsdGrGZaRBwMb_3syn4item16ForeignItemMacroNtB7_9PartialEq2eqBH_, symObjAddr: 0x13210, symBinAddr: 0x54D70, symSize: 0x30 }
  - { offset: 0x10398A, size: 0x8, addend: 0x0, symName: __RNvXs7_NtNtCsieiGu2EXtoJ_4core3cmp5implsRNtNtCsdGrGZaRBwMb_3syn4item17ForeignItemStaticNtB7_9PartialEq2eqBH_, symObjAddr: 0x13240, symBinAddr: 0x54DA0, symSize: 0x30 }
  - { offset: 0x1039D9, size: 0x8, addend: 0x0, symName: __RNvXs7_NtNtCsieiGu2EXtoJ_4core3cmp5implsRNtNtCsdGrGZaRBwMb_3syn4item4ItemNtB7_9PartialEq2eqBH_, symObjAddr: 0x13270, symBinAddr: 0x54DD0, symSize: 0x30 }
  - { offset: 0x103A28, size: 0x8, addend: 0x0, symName: __RNvXs7_NtNtCsieiGu2EXtoJ_4core3cmp5implsRNtNtCsdGrGZaRBwMb_3syn4item6ItemFnNtB7_9PartialEq2eqBH_, symObjAddr: 0x132A0, symBinAddr: 0x54E00, symSize: 0x30 }
  - { offset: 0x103A77, size: 0x8, addend: 0x0, symName: __RNvXs7_NtNtCsieiGu2EXtoJ_4core3cmp5implsRNtNtCsdGrGZaRBwMb_3syn4item7ItemModNtB7_9PartialEq2eqBH_, symObjAddr: 0x132D0, symBinAddr: 0x54E30, symSize: 0x30 }
  - { offset: 0x103AC6, size: 0x8, addend: 0x0, symName: __RNvXs7_NtNtCsieiGu2EXtoJ_4core3cmp5implsRNtNtCsdGrGZaRBwMb_3syn4item7ItemUseNtB7_9PartialEq2eqBH_, symObjAddr: 0x13300, symBinAddr: 0x54E60, symSize: 0x30 }
  - { offset: 0x103B15, size: 0x8, addend: 0x0, symName: __RNvXs7_NtNtCsieiGu2EXtoJ_4core3cmp5implsRNtNtCsdGrGZaRBwMb_3syn4item7UseGlobNtB7_9PartialEq2eqBH_, symObjAddr: 0x13330, symBinAddr: 0x54E90, symSize: 0x30 }
