---
triple:          'x86_64-apple-darwin'
binary-path:     '/Users/kema/git/rust-serv/target/debug/build/ring-962410075c4c2ebc/build_script_build-962410075c4c2ebc'
relocations:
  - { offset: 0x1E, size: 0x8, addend: 0x0, symName: __RINvCsg5rknyf1sHS_18build_script_build13build_libraryINtNtNtNtCsieiGu2EXtoJ_4core4iter8adapters5chain5ChainINtNtNtBY_5slice4iter4IterNtNtCsHUR1vrdMJt_3std4path7PathBufEB1H_EEB2_, symObjAddr: 0x0, symBinAddr: 0x100000BC0, symSize: 0x450 }
  - { offset: 0x3027, size: 0x8, addend: 0x0, symName: __RNvMNtCsieiGu2EXtoJ_4core5sliceSNtCsg5rknyf1sHS_18build_script_build9AsmTarget4iterBw_, symObjAddr: 0x7F60, symBinAddr: 0x100008B20, symSize: 0x20 }
  - { offset: 0x3592, size: 0x8, addend: 0x0, symName: __RNvXs1_NtNtNtCsieiGu2EXtoJ_4core3ops8function5implsQNCNvCsg5rknyf1sHS_18build_script_build16perlasm_src_dsts0INtB7_5FnMutTRRNtNtCsHUR1vrdMJt_3std4path7PathBufEE8call_mutBS_, symObjAddr: 0x94B0, symBinAddr: 0x10000A070, symSize: 0x30 }
  - { offset: 0x35E1, size: 0x8, addend: 0x0, symName: __RNvXs1_NtNtNtCsieiGu2EXtoJ_4core3ops8function5implsQNCNvCsg5rknyf1sHS_18build_script_build16sources_for_arch0INtB7_5FnMutTRRTRSReB21_EEE8call_mutBS_, symObjAddr: 0x94E0, symBinAddr: 0x10000A0A0, symSize: 0x30 }
  - { offset: 0x379D, size: 0x8, addend: 0x0, symName: __RNvNvCsg5rknyf1sHS_18build_script_build18prefix_all_symbols17SYMBOLS_TO_PREFIX, symObjAddr: 0xE580, symBinAddr: 0x100156290, symSize: 0x0 }
  - { offset: 0x37B8, size: 0x8, addend: 0x0, symName: __RNvNvCsg5rknyf1sHS_18build_script_build18prefix_all_symbols17SYMBOLS_TO_RENAME, symObjAddr: 0xE670, symBinAddr: 0x100156380, symSize: 0x0 }
  - { offset: 0x37D8, size: 0x8, addend: 0x0, symName: __RNvNvCsg5rknyf1sHS_18build_script_build9cpp_flags10MSVC_FLAGS, symObjAddr: 0xE740, symBinAddr: 0x100156450, symSize: 0x0 }
  - { offset: 0x37F2, size: 0x8, addend: 0x0, symName: __RNvNvCsg5rknyf1sHS_18build_script_build9cpp_flags14NON_MSVC_FLAGS, symObjAddr: 0xE860, symBinAddr: 0x100156570, symSize: 0x0 }
  - { offset: 0x3800, size: 0x8, addend: 0x0, symName: __RINvCsg5rknyf1sHS_18build_script_build13build_libraryINtNtNtNtCsieiGu2EXtoJ_4core4iter8adapters5chain5ChainINtNtNtBY_5slice4iter4IterNtNtCsHUR1vrdMJt_3std4path7PathBufEB1H_EEB2_, symObjAddr: 0x0, symBinAddr: 0x100000BC0, symSize: 0x450 }
  - { offset: 0x3925, size: 0x8, addend: 0x0, symName: __RINvCsg5rknyf1sHS_18build_script_build32generate_sources_and_preassembleINtNtCsieiGu2EXtoJ_4core6option8IntoIterRNtB2_9AsmTargetEEB2_, symObjAddr: 0x450, symBinAddr: 0x100001010, symSize: 0x530 }
  - { offset: 0x3A61, size: 0x8, addend: 0x0, symName: __RINvCsg5rknyf1sHS_18build_script_build32generate_sources_and_preassembleINtNtNtCsieiGu2EXtoJ_4core5slice4iter4IterNtB2_9AsmTargetEEB2_, symObjAddr: 0x980, symBinAddr: 0x100001540, symSize: 0x550 }
  - { offset: 0x3B9D, size: 0x8, addend: 0x0, symName: __RINvCsg5rknyf1sHS_18build_script_build8walk_dirNCNvB2_21emit_rerun_if_changed0EB2_, symObjAddr: 0xED0, symBinAddr: 0x100001A90, symSize: 0x370 }
  - { offset: 0x3CC7, size: 0x8, addend: 0x0, symName: __RNCNvCsg5rknyf1sHS_18build_script_build12build_c_code0B3_, symObjAddr: 0x20B0, symBinAddr: 0x100002C70, symSize: 0x60 }
  - { offset: 0x3D07, size: 0x8, addend: 0x0, symName: __RNCNvCsg5rknyf1sHS_18build_script_build12build_c_codes0_0B3_, symObjAddr: 0x2110, symBinAddr: 0x100002CD0, symSize: 0x120 }
  - { offset: 0x3D5D, size: 0x8, addend: 0x0, symName: __RNCNvCsg5rknyf1sHS_18build_script_build12build_c_codes1_0B3_, symObjAddr: 0x2230, symBinAddr: 0x100002DF0, symSize: 0x120 }
  - { offset: 0x3E3D, size: 0x8, addend: 0x0, symName: __RNCNvCsg5rknyf1sHS_18build_script_build12build_c_codes_0B3_, symObjAddr: 0x2350, symBinAddr: 0x100002F10, symSize: 0x40 }
  - { offset: 0x3EB0, size: 0x8, addend: 0x0, symName: __RNCNvCsg5rknyf1sHS_18build_script_build16sources_for_arch0B3_, symObjAddr: 0x2740, symBinAddr: 0x100003300, symSize: 0x80 }
  - { offset: 0x3F02, size: 0x8, addend: 0x0, symName: __RNCNvCsg5rknyf1sHS_18build_script_build16sources_for_archs_0B3_, symObjAddr: 0x27C0, symBinAddr: 0x100003380, symSize: 0x40 }
  - { offset: 0x3F5A, size: 0x8, addend: 0x0, symName: __RNCNvCsg5rknyf1sHS_18build_script_build36join_components_with_forward_slashes0B3_, symObjAddr: 0x2BE0, symBinAddr: 0x1000037A0, symSize: 0x60 }
  - { offset: 0x3FBF, size: 0x8, addend: 0x0, symName: __RNCNvCsg5rknyf1sHS_18build_script_build16perlasm_src_dsts0B3_, symObjAddr: 0x2390, symBinAddr: 0x100002F50, symSize: 0x40 }
  - { offset: 0x3FF8, size: 0x8, addend: 0x0, symName: __RNCNvCsg5rknyf1sHS_18build_script_build16perlasm_src_dstss0_0B3_, symObjAddr: 0x23D0, symBinAddr: 0x100002F90, symSize: 0x270 }
  - { offset: 0x40B5, size: 0x8, addend: 0x0, symName: __RNCNvCsg5rknyf1sHS_18build_script_build16perlasm_src_dstss_0B3_, symObjAddr: 0x2640, symBinAddr: 0x100003200, symSize: 0x100 }
  - { offset: 0x4185, size: 0x8, addend: 0x0, symName: __RNCINvCsg5rknyf1sHS_18build_script_build13build_libraryINtNtNtNtCsieiGu2EXtoJ_4core4iter8adapters5chain5ChainINtNtNtB10_5slice4iter4IterNtNtCsHUR1vrdMJt_3std4path7PathBufEB1J_EE0B4_, symObjAddr: 0x1E40, symBinAddr: 0x100002A00, symSize: 0x50 }
  - { offset: 0x41DE, size: 0x8, addend: 0x0, symName: __RNCINvCsg5rknyf1sHS_18build_script_build13build_libraryINtNtNtNtCsieiGu2EXtoJ_4core4iter8adapters5chain5ChainINtNtNtB10_5slice4iter4IterNtNtCsHUR1vrdMJt_3std4path7PathBufEB1J_EEs0_0B4_, symObjAddr: 0x1E90, symBinAddr: 0x100002A50, symSize: 0x30 }
  - { offset: 0x4220, size: 0x8, addend: 0x0, symName: __RNCINvCsg5rknyf1sHS_18build_script_build13build_libraryINtNtNtNtCsieiGu2EXtoJ_4core4iter8adapters5chain5ChainINtNtNtB10_5slice4iter4IterNtNtCsHUR1vrdMJt_3std4path7PathBufEB1J_EEs_0B4_, symObjAddr: 0x1EC0, symBinAddr: 0x100002A80, symSize: 0x30 }
  - { offset: 0x4277, size: 0x8, addend: 0x0, symName: __RNCNCNvCsg5rknyf1sHS_18build_script_build21emit_rerun_if_changed00B5_, symObjAddr: 0x1F70, symBinAddr: 0x100002B30, symSize: 0x30 }
  - { offset: 0x42B8, size: 0x8, addend: 0x0, symName: __RNCNvCsg5rknyf1sHS_18build_script_build21emit_rerun_if_changed0B3_, symObjAddr: 0x2890, symBinAddr: 0x100003450, symSize: 0x350 }
  - { offset: 0x434E, size: 0x8, addend: 0x0, symName: __RNCNvCsg5rknyf1sHS_18build_script_build11get_command0B3_, symObjAddr: 0x1FA0, symBinAddr: 0x100002B60, symSize: 0x40 }
  - { offset: 0x4384, size: 0x8, addend: 0x0, symName: __RNCNvCsg5rknyf1sHS_18build_script_build11run_command0B3_, symObjAddr: 0x1FE0, symBinAddr: 0x100002BA0, symSize: 0xD0 }
  - { offset: 0x43FF, size: 0x8, addend: 0x0, symName: __RNCNvCsg5rknyf1sHS_18build_script_build18ring_build_rs_main0B3_, symObjAddr: 0x2800, symBinAddr: 0x1000033C0, symSize: 0x90 }
  - { offset: 0x4459, size: 0x8, addend: 0x0, symName: __RNCNvCsg5rknyf1sHS_18build_script_build8asm_srcs0B3_, symObjAddr: 0x2C40, symBinAddr: 0x100003800, symSize: 0x60 }
  - { offset: 0x4497, size: 0x8, addend: 0x0, symName: __RNvCsg5rknyf1sHS_18build_script_build10is_perlasm, symObjAddr: 0x2CA0, symBinAddr: 0x100003860, symSize: 0xC0 }
  - { offset: 0x4502, size: 0x8, addend: 0x0, symName: __RNvCsg5rknyf1sHS_18build_script_build11get_command, symObjAddr: 0x2D60, symBinAddr: 0x100003920, symSize: 0x70 }
  - { offset: 0x453F, size: 0x8, addend: 0x0, symName: __RNvCsg5rknyf1sHS_18build_script_build11run_command, symObjAddr: 0x2DD0, symBinAddr: 0x100003990, symSize: 0x160 }
  - { offset: 0x45A0, size: 0x8, addend: 0x0, symName: __RNvCsg5rknyf1sHS_18build_script_build12build_c_code, symObjAddr: 0x2F30, symBinAddr: 0x100003AF0, symSize: 0xA80 }
  - { offset: 0x4708, size: 0x8, addend: 0x0, symName: __RNvCsg5rknyf1sHS_18build_script_build12configure_cc, symObjAddr: 0x39B0, symBinAddr: 0x100004570, symSize: 0x610 }
  - { offset: 0x47D2, size: 0x8, addend: 0x0, symName: __RNvCsg5rknyf1sHS_18build_script_build12get_perl_exe, symObjAddr: 0x3FC0, symBinAddr: 0x100004B80, symSize: 0x40 }
  - { offset: 0x47F0, size: 0x8, addend: 0x0, symName: __RNvCsg5rknyf1sHS_18build_script_build16perlasm_src_dsts, symObjAddr: 0x4000, symBinAddr: 0x100004BC0, symSize: 0x280 }
  - { offset: 0x4872, size: 0x8, addend: 0x0, symName: __RNvCsg5rknyf1sHS_18build_script_build16sources_for_arch, symObjAddr: 0x4280, symBinAddr: 0x100004E40, symSize: 0x70 }
  - { offset: 0x48A0, size: 0x8, addend: 0x0, symName: __RNvCsg5rknyf1sHS_18build_script_build18prefix_all_symbols, symObjAddr: 0x42F0, symBinAddr: 0x100004EB0, symSize: 0x580 }
  - { offset: 0x4A4B, size: 0x8, addend: 0x0, symName: __RNvCsg5rknyf1sHS_18build_script_build18ring_build_rs_main, symObjAddr: 0x4870, symBinAddr: 0x100005430, symSize: 0x910 }
  - { offset: 0x4C76, size: 0x8, addend: 0x0, symName: __RNvCsg5rknyf1sHS_18build_script_build20pregenerate_asm_main, symObjAddr: 0x5180, symBinAddr: 0x100005D40, symSize: 0x1F0 }
  - { offset: 0x4CFF, size: 0x8, addend: 0x0, symName: __RNvCsg5rknyf1sHS_18build_script_build21emit_rerun_if_changed, symObjAddr: 0x5370, symBinAddr: 0x100005F30, symSize: 0xD0 }
  - { offset: 0x4D47, size: 0x8, addend: 0x0, symName: __RNvCsg5rknyf1sHS_18build_script_build21run_command_with_args, symObjAddr: 0x5440, symBinAddr: 0x100006000, symSize: 0xF0 }
  - { offset: 0x4D97, size: 0x8, addend: 0x0, symName: __RNvCsg5rknyf1sHS_18build_script_build30generate_prefix_symbols_header, symObjAddr: 0x5530, symBinAddr: 0x1000060F0, symSize: 0xB70 }
  - { offset: 0x5057, size: 0x8, addend: 0x0, symName: __RNvCsg5rknyf1sHS_18build_script_build31generate_prefix_symbols_headers, symObjAddr: 0x60A0, symBinAddr: 0x100006C60, symSize: 0x390 }
  - { offset: 0x50EE, size: 0x8, addend: 0x0, symName: __RNvCsg5rknyf1sHS_18build_script_build36join_components_with_forward_slashes, symObjAddr: 0x6430, symBinAddr: 0x100006FF0, symSize: 0x140 }
  - { offset: 0x5133, size: 0x8, addend: 0x0, symName: __RNvCsg5rknyf1sHS_18build_script_build4main, symObjAddr: 0x6570, symBinAddr: 0x100007130, symSize: 0xA00 }
  - { offset: 0x52BF, size: 0x8, addend: 0x0, symName: __RNvCsg5rknyf1sHS_18build_script_build4nasm, symObjAddr: 0x6F70, symBinAddr: 0x100007B30, symSize: 0x550 }
  - { offset: 0x5402, size: 0x8, addend: 0x0, symName: __RNvCsg5rknyf1sHS_18build_script_build7perlasm, symObjAddr: 0x74C0, symBinAddr: 0x100008080, symSize: 0x410 }
  - { offset: 0x54B7, size: 0x8, addend: 0x0, symName: __RNvCsg5rknyf1sHS_18build_script_build8asm_path, symObjAddr: 0x78D0, symBinAddr: 0x100008490, symSize: 0x340 }
  - { offset: 0x55DC, size: 0x8, addend: 0x0, symName: __RNvCsg5rknyf1sHS_18build_script_build8asm_srcs, symObjAddr: 0x7C10, symBinAddr: 0x1000087D0, symSize: 0x50 }
  - { offset: 0x560B, size: 0x8, addend: 0x0, symName: __RNvCsg5rknyf1sHS_18build_script_build8obj_path, symObjAddr: 0x7C60, symBinAddr: 0x100008820, symSize: 0x160 }
  - { offset: 0x567E, size: 0x8, addend: 0x0, symName: __RNvCsg5rknyf1sHS_18build_script_build9cpp_flags, symObjAddr: 0x7DC0, symBinAddr: 0x100008980, symSize: 0x70 }
  - { offset: 0x56AA, size: 0x8, addend: 0x0, symName: __RNvCsg5rknyf1sHS_18build_script_build9new_build, symObjAddr: 0x7E30, symBinAddr: 0x1000089F0, symSize: 0xF0 }
  - { offset: 0x648D, size: 0x8, addend: 0x0, symName: __RINvXsd_NtCslJiobkLta79_5alloc3vecINtB6_3VecNtNtCsHUR1vrdMJt_3std4path7PathBufEINtNtNtNtCsieiGu2EXtoJ_4core4iter6traits7collect12FromIteratorBG_E9from_iterINtNtNtB1m_8adapters3map3MapINtNtB2y_6filter6FilterINtNtNtB1o_5slice4iter4IterTRSReB3M_EENCNvCsg5rknyf1sHS_18build_script_build16sources_for_arch0ENCB3W_s_0EEB3Y_, symObjAddr: 0x1C60, symBinAddr: 0x100002820, symSize: 0x40 }
  - { offset: 0x64CE, size: 0x8, addend: 0x0, symName: __RINvXsd_NtCslJiobkLta79_5alloc3vecINtB6_3VecNtNtCsHUR1vrdMJt_3std4path7PathBufEINtNtNtNtCsieiGu2EXtoJ_4core4iter6traits7collect12FromIteratorBG_E9from_iterINtNtNtB1m_8adapters3map3MapINtNtB6_9into_iter8IntoIterTBG_BG_EENCNvCsg5rknyf1sHS_18build_script_build8asm_srcs0EEB3z_, symObjAddr: 0x1CA0, symBinAddr: 0x100002860, symSize: 0x40 }
  - { offset: 0x650F, size: 0x8, addend: 0x0, symName: __RINvXsd_NtCslJiobkLta79_5alloc3vecINtB6_3VecNtNtCsHUR1vrdMJt_3std4path7PathBufEINtNtNtNtCsieiGu2EXtoJ_4core4iter6traits7collect12FromIteratorBG_E9from_iterINtNtNtB1m_8adapters3map3MapINtNtNtB1o_5slice4iter4IterBG_ENCNvCsg5rknyf1sHS_18build_script_build12build_c_code0EEB3u_, symObjAddr: 0x1CE0, symBinAddr: 0x1000028A0, symSize: 0x40 }
  - { offset: 0x6550, size: 0x8, addend: 0x0, symName: __RINvXsd_NtCslJiobkLta79_5alloc3vecINtB6_3VecNtNtCsHUR1vrdMJt_3std4path7PathBufEINtNtNtNtCsieiGu2EXtoJ_4core4iter6traits7collect12FromIteratorBG_E9from_iterINtNtNtB1m_8adapters3map3MapINtNtNtB1o_5slice4iter4IterReENvYBG_INtNtB1o_7convert4FromRB3m_E4fromEECsg5rknyf1sHS_18build_script_build, symObjAddr: 0x1D20, symBinAddr: 0x1000028E0, symSize: 0x60 }
  - { offset: 0x6590, size: 0x8, addend: 0x0, symName: __RINvXsd_NtCslJiobkLta79_5alloc3vecINtB6_3VecNtNtCsHUR1vrdMJt_3std4path7PathBufEINtNtNtNtCsieiGu2EXtoJ_4core4iter6traits7collect12FromIteratorBG_E9from_iterINtNtNtB1m_8adapters6filter6FilterIB2u_INtNtB6_9into_iter8IntoIterBG_ENCNvCsg5rknyf1sHS_18build_script_build12build_c_codes_0ENCB3D_s0_0EEB3F_, symObjAddr: 0x1D80, symBinAddr: 0x100002940, symSize: 0x40 }
  - { offset: 0x65D1, size: 0x8, addend: 0x0, symName: __RINvXsd_NtCslJiobkLta79_5alloc3vecINtB6_3VecRNtNtNtCsHUR1vrdMJt_3std3ffi6os_str5OsStrEINtNtNtNtCsieiGu2EXtoJ_4core4iter6traits7collect12FromIteratorBG_E9from_iterINtNtNtB1t_8adapters3map3MapNtNtBN_4path10ComponentsNCNvCsg5rknyf1sHS_18build_script_build36join_components_with_forward_slashes0EEB3u_, symObjAddr: 0x1DC0, symBinAddr: 0x100002980, symSize: 0x40 }
  - { offset: 0x6612, size: 0x8, addend: 0x0, symName: __RINvXsd_NtCslJiobkLta79_5alloc3vecINtB6_3VecTNtNtCsHUR1vrdMJt_3std4path7PathBufBH_EEINtNtNtNtCsieiGu2EXtoJ_4core4iter6traits7collect12FromIteratorBG_E9from_iterINtNtNtB1r_8adapters3map3MapINtNtB2D_6filter6FilterINtNtNtB1t_5slice4iter4IterBH_ENCNvCsg5rknyf1sHS_18build_script_build16perlasm_src_dsts0ENCB3U_s_0EEB3W_, symObjAddr: 0x1E00, symBinAddr: 0x1000029C0, symSize: 0x40 }
  - { offset: 0x665E, size: 0x8, addend: 0x0, symName: __RNCINvMsi_NtCslJiobkLta79_5alloc3vecINtB8_3VecNtNtCsHUR1vrdMJt_3std4path7PathBufE14extend_trustedINtNtNtNtCsieiGu2EXtoJ_4core4iter8adapters3map3MapINtNtNtB1G_5slice4iter4IterBI_ENCNvCsg5rknyf1sHS_18build_script_build12build_c_code0EE0B2U_, symObjAddr: 0x1EF0, symBinAddr: 0x100002AB0, symSize: 0x40 }
  - { offset: 0x6706, size: 0x8, addend: 0x0, symName: __RNCINvMsi_NtCslJiobkLta79_5alloc3vecINtB8_3VecNtNtCsHUR1vrdMJt_3std4path7PathBufE14extend_trustedINtNtNtNtCsieiGu2EXtoJ_4core4iter8adapters3map3MapINtNtNtB1G_5slice4iter4IterReENvYBI_INtNtB1G_7convert4FromRB2M_E4fromEE0Csg5rknyf1sHS_18build_script_build, symObjAddr: 0x1F30, symBinAddr: 0x100002AF0, symSize: 0x40 }
  - { offset: 0x699A, size: 0x8, addend: 0x0, symName: __RNvNvMs_NtCslJiobkLta79_5alloc3vecINtB6_3VecppE13from_parts_in18precondition_checkCsg5rknyf1sHS_18build_script_build, symObjAddr: 0x86A0, symBinAddr: 0x100009260, symSize: 0xA0 }
  - { offset: 0x6A08, size: 0x8, addend: 0x0, symName: __RNvNvMs_NtCslJiobkLta79_5alloc3vecINtB6_3VecppE17from_raw_parts_in18precondition_checkCsg5rknyf1sHS_18build_script_build, symObjAddr: 0x8740, symBinAddr: 0x100009300, symSize: 0xA0 }
  - { offset: 0x6A76, size: 0x8, addend: 0x0, symName: __RNvNvMs_NtCslJiobkLta79_5alloc3vecINtB6_3VecppE7set_len18precondition_checkCsg5rknyf1sHS_18build_script_build, symObjAddr: 0x87E0, symBinAddr: 0x1000093A0, symSize: 0xA0 }
  - { offset: 0x6B15, size: 0x8, addend: 0x0, symName: __RNvXs6_NtCslJiobkLta79_5alloc3vecINtB5_3VecRNtNtNtCsHUR1vrdMJt_3std3ffi6os_str5OsStrENtNtNtCsieiGu2EXtoJ_4core3ops5deref5Deref5derefCsg5rknyf1sHS_18build_script_build, symObjAddr: 0x9510, symBinAddr: 0x10000A0D0, symSize: 0x20 }
  - { offset: 0x6B55, size: 0x8, addend: 0x0, symName: __RNvXs6_NtCslJiobkLta79_5alloc3vecINtB5_3VecTNtNtCsHUR1vrdMJt_3std4path7PathBufBG_EENtNtNtCsieiGu2EXtoJ_4core3ops5deref5Deref5derefCsg5rknyf1sHS_18build_script_build, symObjAddr: 0x9530, symBinAddr: 0x10000A0F0, symSize: 0x20 }
  - { offset: 0x6C11, size: 0x8, addend: 0x0, symName: __RNvXsb_NtCslJiobkLta79_5alloc3vecINtB5_3VecNtNtCsHUR1vrdMJt_3std4path7PathBufEINtNtNtCsieiGu2EXtoJ_4core3ops5index5IndexNtNtB1j_5range9RangeFullE5indexCsg5rknyf1sHS_18build_script_build, symObjAddr: 0x9960, symBinAddr: 0x10000A520, symSize: 0x70 }
  - { offset: 0x6D9E, size: 0x8, addend: 0x0, symName: __RNvXNtNtCslJiobkLta79_5alloc3vec10partial_eqINtB4_3VechENtNtCsieiGu2EXtoJ_4core3cmp9PartialEq2eqCsg5rknyf1sHS_18build_script_build, symObjAddr: 0x8880, symBinAddr: 0x100009440, symSize: 0xD0 }
  - { offset: 0x7092, size: 0x8, addend: 0x0, symName: __RNvXNtNtCslJiobkLta79_5alloc3vec11spec_extendINtB4_3VecNtNtCsHUR1vrdMJt_3std4path7PathBufEINtB2_10SpecExtendBR_INtNtNtNtCsieiGu2EXtoJ_4core4iter8adapters3map3MapINtNtB1Q_6filter6FilterINtNtNtB1U_5slice4iter4IterTRSReB3q_EENCNvCsg5rknyf1sHS_18build_script_build16sources_for_arch0ENCB3A_s_0EE11spec_extendB3C_, symObjAddr: 0x8950, symBinAddr: 0x100009510, symSize: 0x20 }
  - { offset: 0x70E4, size: 0x8, addend: 0x0, symName: __RNvXNtNtCslJiobkLta79_5alloc3vec11spec_extendINtB4_3VecRNtNtNtCsHUR1vrdMJt_3std3ffi6os_str5OsStrEINtB2_10SpecExtendBR_INtNtNtNtCsieiGu2EXtoJ_4core4iter8adapters3map3MapNtNtBY_4path10ComponentsNCNvCsg5rknyf1sHS_18build_script_build36join_components_with_forward_slashes0EE11spec_extendB38_, symObjAddr: 0x8970, symBinAddr: 0x100009530, symSize: 0x20 }
  - { offset: 0x7136, size: 0x8, addend: 0x0, symName: __RNvXNtNtCslJiobkLta79_5alloc3vec11spec_extendINtB4_3VecTNtNtCsHUR1vrdMJt_3std4path7PathBufBS_EEINtB2_10SpecExtendBR_INtNtNtNtCsieiGu2EXtoJ_4core4iter8adapters3map3MapINtNtB1V_6filter6FilterINtNtNtB1Z_5slice4iter4IterBS_ENCNvCsg5rknyf1sHS_18build_script_build16perlasm_src_dsts0ENCB3y_s_0EE11spec_extendB3A_, symObjAddr: 0x8990, symBinAddr: 0x100009550, symSize: 0x20 }
  - { offset: 0x718E, size: 0x8, addend: 0x0, symName: __RNvXs_NtNtCslJiobkLta79_5alloc3vec11spec_extendINtB6_3VecNtNtCsHUR1vrdMJt_3std4path7PathBufEINtB4_10SpecExtendBT_INtNtNtNtCsieiGu2EXtoJ_4core4iter8adapters3map3MapINtNtNtB1W_5slice4iter4IterBT_ENCNvCsg5rknyf1sHS_18build_script_build12build_c_code0EE11spec_extendB3a_, symObjAddr: 0x9550, symBinAddr: 0x10000A110, symSize: 0x20 }
  - { offset: 0x71E0, size: 0x8, addend: 0x0, symName: __RNvXs_NtNtCslJiobkLta79_5alloc3vec11spec_extendINtB6_3VecNtNtCsHUR1vrdMJt_3std4path7PathBufEINtB4_10SpecExtendBT_INtNtNtNtCsieiGu2EXtoJ_4core4iter8adapters3map3MapINtNtNtB1W_5slice4iter4IterReENvYBT_INtNtB1W_7convert4FromRB32_E4fromEE11spec_extendCsg5rknyf1sHS_18build_script_build, symObjAddr: 0x9570, symBinAddr: 0x10000A130, symSize: 0x20 }
  - { offset: 0x723D, size: 0x8, addend: 0x0, symName: __RNvXNtNtCslJiobkLta79_5alloc3vec14spec_from_iterINtB4_3VecNtNtCsHUR1vrdMJt_3std4path7PathBufEINtB2_12SpecFromIterBU_INtNtNtNtCsieiGu2EXtoJ_4core4iter8adapters3map3MapINtNtB1V_6filter6FilterINtNtNtB1Z_5slice4iter4IterTRSReB3v_EENCNvCsg5rknyf1sHS_18build_script_build16sources_for_arch0ENCB3F_s_0EE9from_iterB3H_, symObjAddr: 0x89B0, symBinAddr: 0x100009570, symSize: 0x20 }
  - { offset: 0x727C, size: 0x8, addend: 0x0, symName: __RNvXNtNtCslJiobkLta79_5alloc3vec14spec_from_iterINtB4_3VecNtNtCsHUR1vrdMJt_3std4path7PathBufEINtB2_12SpecFromIterBU_INtNtNtNtCsieiGu2EXtoJ_4core4iter8adapters3map3MapINtNtNtB1Z_5slice4iter4IterBU_ENCNvCsg5rknyf1sHS_18build_script_build12build_c_code0EE9from_iterB3d_, symObjAddr: 0x89D0, symBinAddr: 0x100009590, symSize: 0x20 }
  - { offset: 0x72BB, size: 0x8, addend: 0x0, symName: __RNvXNtNtCslJiobkLta79_5alloc3vec14spec_from_iterINtB4_3VecNtNtCsHUR1vrdMJt_3std4path7PathBufEINtB2_12SpecFromIterBU_INtNtNtNtCsieiGu2EXtoJ_4core4iter8adapters3map3MapINtNtNtB1Z_5slice4iter4IterReENvYBU_INtNtB1Z_7convert4FromRB35_E4fromEE9from_iterCsg5rknyf1sHS_18build_script_build, symObjAddr: 0x89F0, symBinAddr: 0x1000095B0, symSize: 0x30 }
  - { offset: 0x72F9, size: 0x8, addend: 0x0, symName: __RNvXNtNtCslJiobkLta79_5alloc3vec14spec_from_iterINtB4_3VecRNtNtNtCsHUR1vrdMJt_3std3ffi6os_str5OsStrEINtB2_12SpecFromIterBU_INtNtNtNtCsieiGu2EXtoJ_4core4iter8adapters3map3MapNtNtB11_4path10ComponentsNCNvCsg5rknyf1sHS_18build_script_build36join_components_with_forward_slashes0EE9from_iterB3e_, symObjAddr: 0x8A20, symBinAddr: 0x1000095E0, symSize: 0x20 }
  - { offset: 0x7338, size: 0x8, addend: 0x0, symName: __RNvXNtNtCslJiobkLta79_5alloc3vec14spec_from_iterINtB4_3VecTNtNtCsHUR1vrdMJt_3std4path7PathBufBV_EEINtB2_12SpecFromIterBU_INtNtNtNtCsieiGu2EXtoJ_4core4iter8adapters3map3MapINtNtB20_6filter6FilterINtNtNtB24_5slice4iter4IterBV_ENCNvCsg5rknyf1sHS_18build_script_build16perlasm_src_dsts0ENCB3D_s_0EE9from_iterB3F_, symObjAddr: 0x8A40, symBinAddr: 0x100009600, symSize: 0x20 }
  - { offset: 0x7383, size: 0x8, addend: 0x0, symName: __RNvXNtNtCslJiobkLta79_5alloc3vec21spec_from_iter_nestedINtB4_3VecNtNtCsHUR1vrdMJt_3std4path7PathBufEINtB2_18SpecFromIterNestedB11_INtNtNtNtCsieiGu2EXtoJ_4core4iter8adapters3map3MapINtNtB29_6filter6FilterINtNtNtB2d_5slice4iter4IterTRSReB3J_EENCNvCsg5rknyf1sHS_18build_script_build16sources_for_arch0ENCB3T_s_0EE9from_iterB3V_, symObjAddr: 0x8A60, symBinAddr: 0x100009620, symSize: 0x350 }
  - { offset: 0x7638, size: 0x8, addend: 0x0, symName: __RNvXNtNtCslJiobkLta79_5alloc3vec21spec_from_iter_nestedINtB4_3VecRNtNtNtCsHUR1vrdMJt_3std3ffi6os_str5OsStrEINtB2_18SpecFromIterNestedB11_INtNtNtNtCsieiGu2EXtoJ_4core4iter8adapters3map3MapNtNtB18_4path10ComponentsNCNvCsg5rknyf1sHS_18build_script_build36join_components_with_forward_slashes0EE9from_iterB3s_, symObjAddr: 0x8DB0, symBinAddr: 0x100009970, symSize: 0x380 }
  - { offset: 0x78F2, size: 0x8, addend: 0x0, symName: __RNvXNtNtCslJiobkLta79_5alloc3vec21spec_from_iter_nestedINtB4_3VecTNtNtCsHUR1vrdMJt_3std4path7PathBufB12_EEINtB2_18SpecFromIterNestedB11_INtNtNtNtCsieiGu2EXtoJ_4core4iter8adapters3map3MapINtNtB2f_6filter6FilterINtNtNtB2j_5slice4iter4IterB12_ENCNvCsg5rknyf1sHS_18build_script_build16perlasm_src_dsts0ENCB3T_s_0EE9from_iterB3V_, symObjAddr: 0x9130, symBinAddr: 0x100009CF0, symSize: 0x380 }
  - { offset: 0x7BAD, size: 0x8, addend: 0x0, symName: __RNvXs_NtNtCslJiobkLta79_5alloc3vec21spec_from_iter_nestedINtB6_3VecNtNtCsHUR1vrdMJt_3std4path7PathBufEINtB4_18SpecFromIterNestedB13_INtNtNtNtCsieiGu2EXtoJ_4core4iter8adapters3map3MapINtNtNtB2f_5slice4iter4IterB13_ENCNvCsg5rknyf1sHS_18build_script_build12build_c_code0EE9from_iterB3u_, symObjAddr: 0x95F0, symBinAddr: 0x10000A1B0, symSize: 0x1C0 }
  - { offset: 0x7C85, size: 0x8, addend: 0x0, symName: __RNvXs_NtNtCslJiobkLta79_5alloc3vec21spec_from_iter_nestedINtB6_3VecNtNtCsHUR1vrdMJt_3std4path7PathBufEINtB4_18SpecFromIterNestedB13_INtNtNtNtCsieiGu2EXtoJ_4core4iter8adapters3map3MapINtNtNtB2f_5slice4iter4IterReENvYB13_INtNtB2f_7convert4FromRB3l_E4fromEE9from_iterCsg5rknyf1sHS_18build_script_build, symObjAddr: 0x97B0, symBinAddr: 0x10000A370, symSize: 0x1B0 }
  - { offset: 0x7D69, size: 0x8, addend: 0x0, symName: __RNvXs_NtNtCslJiobkLta79_5alloc3vec16in_place_collectINtB6_3VecNtNtCsHUR1vrdMJt_3std4path7PathBufEINtNtB6_14spec_from_iter12SpecFromIterBY_INtNtNtNtCsieiGu2EXtoJ_4core4iter8adapters3map3MapINtNtB6_9into_iter8IntoIterTBY_BY_EENCNvCsg5rknyf1sHS_18build_script_build8asm_srcs0EE9from_iterB3E_, symObjAddr: 0x9590, symBinAddr: 0x10000A150, symSize: 0x30 }
  - { offset: 0x7DC5, size: 0x8, addend: 0x0, symName: __RNvXs_NtNtCslJiobkLta79_5alloc3vec16in_place_collectINtB6_3VecNtNtCsHUR1vrdMJt_3std4path7PathBufEINtNtB6_14spec_from_iter12SpecFromIterBY_INtNtNtNtCsieiGu2EXtoJ_4core4iter8adapters6filter6FilterIB2d_INtNtB6_9into_iter8IntoIterBY_ENCNvCsg5rknyf1sHS_18build_script_build12build_c_codes_0ENCB3I_s0_0EE9from_iterB3K_, symObjAddr: 0x95C0, symBinAddr: 0x10000A180, symSize: 0x30 }
  - { offset: 0x7E28, size: 0x8, addend: 0x0, symName: __RNvXse_NtCslJiobkLta79_5alloc3vecINtB5_3VecNtNtCsHUR1vrdMJt_3std4path7PathBufENtNtNtNtCsieiGu2EXtoJ_4core4iter6traits7collect12IntoIterator9into_iterCsg5rknyf1sHS_18build_script_build, symObjAddr: 0x99D0, symBinAddr: 0x10000A590, symSize: 0x140 }
  - { offset: 0x80B8, size: 0x8, addend: 0x0, symName: __RNvXse_NtCslJiobkLta79_5alloc3vecINtB5_3VecTNtNtCsHUR1vrdMJt_3std4path7PathBufBG_EENtNtNtNtCsieiGu2EXtoJ_4core4iter6traits7collect12IntoIterator9into_iterCsg5rknyf1sHS_18build_script_build, symObjAddr: 0x9B10, symBinAddr: 0x10000A6D0, symSize: 0x140 }
  - { offset: 0x834E, size: 0x8, addend: 0x0, symName: __RNvXsn_NtCslJiobkLta79_5alloc3vecINtB5_3VecNtNtCsHUR1vrdMJt_3std4path7PathBufENtNtNtCsieiGu2EXtoJ_4core3ops4drop4Drop4dropCsg5rknyf1sHS_18build_script_build, symObjAddr: 0x9C50, symBinAddr: 0x10000A810, symSize: 0x30 }
  - { offset: 0x83FE, size: 0x8, addend: 0x0, symName: __RNvXsn_NtCslJiobkLta79_5alloc3vecINtB5_3VecRNtNtNtCsHUR1vrdMJt_3std3ffi6os_str5OsStrENtNtNtCsieiGu2EXtoJ_4core3ops4drop4Drop4dropCsg5rknyf1sHS_18build_script_build, symObjAddr: 0x9C80, symBinAddr: 0x10000A840, symSize: 0x20 }
  - { offset: 0x84AE, size: 0x8, addend: 0x0, symName: __RNvXsn_NtCslJiobkLta79_5alloc3vecINtB5_3VecTNtNtCsHUR1vrdMJt_3std4path7PathBufBG_EENtNtNtCsieiGu2EXtoJ_4core3ops4drop4Drop4dropCsg5rknyf1sHS_18build_script_build, symObjAddr: 0x9CA0, symBinAddr: 0x10000A860, symSize: 0x30 }
  - { offset: 0x98B4, size: 0x8, addend: 0x0, symName: __RINvMsi_NtCslJiobkLta79_5alloc3vecINtB6_3VecNtNtCsHUR1vrdMJt_3std4path7PathBufE14extend_trustedINtNtNtNtCsieiGu2EXtoJ_4core4iter8adapters3map3MapINtNtNtB1E_5slice4iter4IterBG_ENCNvCsg5rknyf1sHS_18build_script_build12build_c_code0EEB2S_, symObjAddr: 0x1240, symBinAddr: 0x100001E00, symSize: 0x1C0 }
  - { offset: 0x9B9D, size: 0x8, addend: 0x0, symName: __RINvMsi_NtCslJiobkLta79_5alloc3vecINtB6_3VecNtNtCsHUR1vrdMJt_3std4path7PathBufE14extend_trustedINtNtNtNtCsieiGu2EXtoJ_4core4iter8adapters3map3MapINtNtNtB1E_5slice4iter4IterReENvYBG_INtNtB1E_7convert4FromRB2K_E4fromEECsg5rknyf1sHS_18build_script_build, symObjAddr: 0x1400, symBinAddr: 0x100001FC0, symSize: 0x1A0 }
  - { offset: 0x9F30, size: 0x8, addend: 0x0, symName: __RINvMsi_NtCslJiobkLta79_5alloc3vecINtB6_3VecNtNtCsHUR1vrdMJt_3std4path7PathBufE16extend_desugaredINtNtNtNtCsieiGu2EXtoJ_4core4iter8adapters3map3MapINtNtB1C_6filter6FilterINtNtNtB1G_5slice4iter4IterTRSReB3c_EENCNvCsg5rknyf1sHS_18build_script_build16sources_for_arch0ENCB3m_s_0EEB3o_, symObjAddr: 0x15A0, symBinAddr: 0x100002160, symSize: 0x250 }
  - { offset: 0xA3CA, size: 0x8, addend: 0x0, symName: __RINvMsi_NtCslJiobkLta79_5alloc3vecINtB6_3VecRNtNtNtCsHUR1vrdMJt_3std3ffi6os_str5OsStrE16extend_desugaredINtNtNtNtCsieiGu2EXtoJ_4core4iter8adapters3map3MapNtNtBN_4path10ComponentsNCNvCsg5rknyf1sHS_18build_script_build36join_components_with_forward_slashes0EEB2U_, symObjAddr: 0x17F0, symBinAddr: 0x1000023B0, symSize: 0x240 }
  - { offset: 0xA84B, size: 0x8, addend: 0x0, symName: __RINvMsi_NtCslJiobkLta79_5alloc3vecINtB6_3VecTNtNtCsHUR1vrdMJt_3std4path7PathBufBH_EE16extend_desugaredINtNtNtNtCsieiGu2EXtoJ_4core4iter8adapters3map3MapINtNtB1H_6filter6FilterINtNtNtB1L_5slice4iter4IterBH_ENCNvCsg5rknyf1sHS_18build_script_build16perlasm_src_dsts0ENCB3k_s_0EEB3m_, symObjAddr: 0x1A30, symBinAddr: 0x1000025F0, symSize: 0x230 }
  - { offset: 0xABCA, size: 0x8, addend: 0x0, symName: __RNvMCsg5rknyf1sHS_18build_script_buildNtB2_9AsmTarget8use_nasm, symObjAddr: 0x7F20, symBinAddr: 0x100008AE0, symSize: 0x40 }
  - { offset: 0xABEC, size: 0x8, addend: 0x0, symName: __RNvMNtCslJiobkLta79_5alloc3vecINtB2_3VecNtNtCsHUR1vrdMJt_3std4path7PathBufE3newCsg5rknyf1sHS_18build_script_build, symObjAddr: 0x7F80, symBinAddr: 0x100008B40, symSize: 0x30 }
  - { offset: 0xAC3D, size: 0x8, addend: 0x0, symName: __RNvMs_NtCslJiobkLta79_5alloc3vecINtB4_3VecINtNtB6_4sync3ArcNtNtCsHUR1vrdMJt_3std4path4PathEE4pushCsg5rknyf1sHS_18build_script_build, symObjAddr: 0x7FB0, symBinAddr: 0x100008B70, symSize: 0x20 }
  - { offset: 0xAD94, size: 0x8, addend: 0x0, symName: __RNvMs_NtCslJiobkLta79_5alloc3vecINtB4_3VecINtNtB6_4sync3ArcNtNtCsHUR1vrdMJt_3std4path4PathEE8push_mutCsg5rknyf1sHS_18build_script_build, symObjAddr: 0x7FD0, symBinAddr: 0x100008B90, symSize: 0xF0 }
  - { offset: 0xB07A, size: 0x8, addend: 0x0, symName: __RNvMs_NtCslJiobkLta79_5alloc3vecINtB4_3VecNtNtCsHUR1vrdMJt_3std4path7PathBufE7reserveCsg5rknyf1sHS_18build_script_build, symObjAddr: 0x80C0, symBinAddr: 0x100008C80, symSize: 0xB0 }
  - { offset: 0xB2D5, size: 0x8, addend: 0x0, symName: __RNvMs_NtCslJiobkLta79_5alloc3vecINtB4_3VecNtNtNtCsHUR1vrdMJt_3std3ffi6os_str8OsStringE17from_raw_parts_inCsg5rknyf1sHS_18build_script_build, symObjAddr: 0x8170, symBinAddr: 0x100008D30, symSize: 0xA0 }
  - { offset: 0xB572, size: 0x8, addend: 0x0, symName: __RNvMs_NtCslJiobkLta79_5alloc3vecINtB4_3VecRNtNtNtCsHUR1vrdMJt_3std3ffi6os_str5OsStrE7reserveCsg5rknyf1sHS_18build_script_build, symObjAddr: 0x8210, symBinAddr: 0x100008DD0, symSize: 0xB0 }
  - { offset: 0xB776, size: 0x8, addend: 0x0, symName: __RNvMs_NtCslJiobkLta79_5alloc3vecINtB4_3VecRNtNtNtCsHUR1vrdMJt_3std3ffi6os_str5OsStrE8as_sliceCsg5rknyf1sHS_18build_script_build, symObjAddr: 0x82C0, symBinAddr: 0x100008E80, symSize: 0x50 }
  - { offset: 0xB882, size: 0x8, addend: 0x0, symName: __RNvMs_NtCslJiobkLta79_5alloc3vecINtB4_3VecTINtNtB6_4sync3ArceEINtNtCsieiGu2EXtoJ_4core6option6OptionBF_EEE4pushCsg5rknyf1sHS_18build_script_build, symObjAddr: 0x8310, symBinAddr: 0x100008ED0, symSize: 0x20 }
  - { offset: 0xB9DA, size: 0x8, addend: 0x0, symName: __RNvMs_NtCslJiobkLta79_5alloc3vecINtB4_3VecTINtNtB6_4sync3ArceEINtNtCsieiGu2EXtoJ_4core6option6OptionBF_EEE8push_mutCsg5rknyf1sHS_18build_script_build, symObjAddr: 0x8330, symBinAddr: 0x100008EF0, symSize: 0x120 }
  - { offset: 0xBB8F, size: 0x8, addend: 0x0, symName: __RNvMs_NtCslJiobkLta79_5alloc3vecINtB4_3VecTNtNtCsHUR1vrdMJt_3std4path7PathBufBF_EE4pushCsg5rknyf1sHS_18build_script_build, symObjAddr: 0x8450, symBinAddr: 0x100009010, symSize: 0x20 }
  - { offset: 0xBCEA, size: 0x8, addend: 0x0, symName: __RNvMs_NtCslJiobkLta79_5alloc3vecINtB4_3VecTNtNtCsHUR1vrdMJt_3std4path7PathBufBF_EE7reserveCsg5rknyf1sHS_18build_script_build, symObjAddr: 0x8470, symBinAddr: 0x100009030, symSize: 0xB0 }
  - { offset: 0xBEEE, size: 0x8, addend: 0x0, symName: __RNvMs_NtCslJiobkLta79_5alloc3vecINtB4_3VecTNtNtCsHUR1vrdMJt_3std4path7PathBufBF_EE8as_sliceCsg5rknyf1sHS_18build_script_build, symObjAddr: 0x8520, symBinAddr: 0x1000090E0, symSize: 0x50 }
  - { offset: 0xC094, size: 0x8, addend: 0x0, symName: __RNvMs_NtCslJiobkLta79_5alloc3vecINtB4_3VecTNtNtCsHUR1vrdMJt_3std4path7PathBufBF_EE8push_mutCsg5rknyf1sHS_18build_script_build, symObjAddr: 0x8570, symBinAddr: 0x100009130, symSize: 0x130 }
  - { offset: 0xD794, size: 0x8, addend: 0x0, symName: __RINvMs16_NtCsHUR1vrdMJt_3std4pathNtB7_4Path4joinRNtB7_7PathBufECsg5rknyf1sHS_18build_script_build, symObjAddr: 0x0, symBinAddr: 0x10000A8B0, symSize: 0x80 }
  - { offset: 0xDFDE, size: 0x8, addend: 0x0, symName: __RNvXsH_NtCsHUR1vrdMJt_3std4pathNtB5_7PathBufNtNtNtCsieiGu2EXtoJ_4core3ops5deref5Deref5derefCsg5rknyf1sHS_18build_script_build, symObjAddr: 0x2280, symBinAddr: 0x10000CB30, symSize: 0x30 }
  - { offset: 0xE08A, size: 0x8, addend: 0x0, symName: __RNvXs15_NtCsHUR1vrdMJt_3std4pathNtB6_7PathBufINtNtCsieiGu2EXtoJ_4core7convert5AsRefNtNtNtB8_3ffi6os_str5OsStrE6as_refCsg5rknyf1sHS_18build_script_build, symObjAddr: 0x1BD0, symBinAddr: 0x10000C480, symSize: 0x20 }
  - { offset: 0xE0BE, size: 0x8, addend: 0x0, symName: __RNvXs1r_NtCsHUR1vrdMJt_3std4pathNtB6_7PathBufINtNtCsieiGu2EXtoJ_4core7convert5AsRefNtB6_4PathE6as_refCsg5rknyf1sHS_18build_script_build, symObjAddr: 0x1BF0, symBinAddr: 0x10000C4A0, symSize: 0x30 }
  - { offset: 0xE16A, size: 0x8, addend: 0x0, symName: __RNvXsA_NtCsHUR1vrdMJt_3std4pathNtB5_7PathBufINtNtCsieiGu2EXtoJ_4core7convert4FromNtNtNtB7_3ffi6os_str8OsStringE4fromCsg5rknyf1sHS_18build_script_build, symObjAddr: 0x2260, symBinAddr: 0x10000CB10, symSize: 0x20 }
  - { offset: 0xE1BC, size: 0x8, addend: 0x0, symName: __RNvXsW_NtCsHUR1vrdMJt_3std4pathNtB5_7PathBufNtNtCsieiGu2EXtoJ_4core3cmp9PartialEq2eqCsg5rknyf1sHS_18build_script_build, symObjAddr: 0x22B0, symBinAddr: 0x10000CB60, symSize: 0x130 }
  - { offset: 0xE5A3, size: 0x8, addend: 0x0, symName: __RNvXsl_NtCsHUR1vrdMJt_3std4pathNtB5_10ComponentsNtNtCsieiGu2EXtoJ_4core3cmp9PartialEq2eqCsg5rknyf1sHS_18build_script_build, symObjAddr: 0x26A0, symBinAddr: 0x10000CF50, symSize: 0x580 }
  - { offset: 0xEA67, size: 0x8, addend: 0x0, symName: __RNvXss_NtCsHUR1vrdMJt_3std4pathNtB5_7PathBufNtNtCsieiGu2EXtoJ_4core5clone5Clone5cloneCsg5rknyf1sHS_18build_script_build, symObjAddr: 0x2C20, symBinAddr: 0x10000D4D0, symSize: 0x90 }
  - { offset: 0xEAD7, size: 0x8, addend: 0x0, symName: __RNvXsz_NtCsHUR1vrdMJt_3std4pathNtB5_7PathBufINtNtCsieiGu2EXtoJ_4core7convert4FromRReE4fromCsg5rknyf1sHS_18build_script_build, symObjAddr: 0x2CB0, symBinAddr: 0x10000D560, symSize: 0xC0 }
  - { offset: 0x1054D, size: 0x8, addend: 0x0, symName: __RINvXs2E_NtNtCsieiGu2EXtoJ_4core5slice4iterINtB7_4IterNtCsg5rknyf1sHS_18build_script_build9AsmTargetENtNtNtNtBb_4iter6traits8iterator8Iterator4findNCNvBS_18ring_build_rs_main0EBS_, symObjAddr: 0x100, symBinAddr: 0x10000A9B0, symSize: 0xB0 }
  - { offset: 0x105B2, size: 0x8, addend: 0x0, symName: __RINvXs2E_NtNtCsieiGu2EXtoJ_4core5slice4iterINtB7_4IterNtNtCsHUR1vrdMJt_3std4path7PathBufENtNtNtNtBb_4iter6traits8iterator8Iterator3anyNCNvXsf_NtB9_3cmpBQ_NtB2g_13SliceContains14slice_contains0ECsg5rknyf1sHS_18build_script_build, symObjAddr: 0x1B0, symBinAddr: 0x10000AA60, symSize: 0xA0 }
  - { offset: 0x10617, size: 0x8, addend: 0x0, symName: __RINvXs2E_NtNtCsieiGu2EXtoJ_4core5slice4iterINtB7_4IterNtNtCsHUR1vrdMJt_3std4path7PathBufENtNtNtNtBb_4iter6traits8iterator8Iterator4findQNCNvCsg5rknyf1sHS_18build_script_build16perlasm_src_dsts0EB2e_, symObjAddr: 0x250, symBinAddr: 0x10000AB00, symSize: 0xA0 }
  - { offset: 0x1067C, size: 0x8, addend: 0x0, symName: __RINvXs2E_NtNtCsieiGu2EXtoJ_4core5slice4iterINtB7_4IterNtNtCsHUR1vrdMJt_3std4path7PathBufENtNtNtNtBb_4iter6traits8iterator8Iterator4folduNCINvNtNtB1v_8adapters3map8map_foldRBQ_BQ_uNCNvCsg5rknyf1sHS_18build_script_build12build_c_code0NCINvNvB1p_8for_each4callBQ_NCINvMsi_NtCslJiobkLta79_5alloc3vecINtB4j_3VecBQ_E14extend_trustedINtB2f_3MapBF_B2R_EE0E0E0EB2V_, symObjAddr: 0x2F0, symBinAddr: 0x10000ABA0, symSize: 0x190 }
  - { offset: 0x107BD, size: 0x8, addend: 0x0, symName: __RINvXs2E_NtNtCsieiGu2EXtoJ_4core5slice4iterINtB7_4IterNtNtCsHUR1vrdMJt_3std4path7PathBufENtNtNtNtBb_4iter6traits8iterator8Iterator4folduNCINvNvB1p_8for_each4callRBQ_NCINvCsg5rknyf1sHS_18build_script_build13build_libraryINtNtNtB1v_8adapters5chain5ChainBF_BF_EE0E0EB2I_, symObjAddr: 0x480, symBinAddr: 0x10000AD30, symSize: 0x150 }
  - { offset: 0x108FE, size: 0x8, addend: 0x0, symName: __RINvXs2E_NtNtCsieiGu2EXtoJ_4core5slice4iterINtB7_4IterNtNtCsHUR1vrdMJt_3std4path7PathBufENtNtNtNtBb_4iter6traits8iterator8Iterator4folduQNCINvNvB1p_8for_each4callRBQ_NCINvCsg5rknyf1sHS_18build_script_build13build_libraryINtNtNtB1v_8adapters5chain5ChainBF_BF_EE0E0EB2J_, symObjAddr: 0x5D0, symBinAddr: 0x10000AE80, symSize: 0x160 }
  - { offset: 0x10A3F, size: 0x8, addend: 0x0, symName: __RINvXs2E_NtNtCsieiGu2EXtoJ_4core5slice4iterINtB7_4IterNtNtCsHUR1vrdMJt_3std4path7PathBufENtNtNtNtBb_4iter6traits8iterator8Iterator8for_eachNCINvCsg5rknyf1sHS_18build_script_build13build_libraryINtNtNtB1v_8adapters5chain5ChainBF_BF_EEs_0EB2i_, symObjAddr: 0x730, symBinAddr: 0x10000AFE0, symSize: 0x80 }
  - { offset: 0x10AA0, size: 0x8, addend: 0x0, symName: __RINvXs2E_NtNtCsieiGu2EXtoJ_4core5slice4iterINtB7_4IterRNtNtNtCsHUR1vrdMJt_3std3ffi6os_str5OsStrENtNtNtNtBb_4iter6traits8iterator8Iterator4foldNtBT_8OsStringNCNvXsR_BT_SBQ_INtNtCslJiobkLta79_5alloc5slice4JoinBQ_E4join0ECsg5rknyf1sHS_18build_script_build, symObjAddr: 0x7B0, symBinAddr: 0x10000B060, symSize: 0x2B0 }
  - { offset: 0x10BE5, size: 0x8, addend: 0x0, symName: __RINvXs2E_NtNtCsieiGu2EXtoJ_4core5slice4iterINtB7_4IterReENtNtNtNtBb_4iter6traits8iterator8Iterator4folduNCINvNtNtBZ_8adapters3map8map_foldRBQ_NtNtCsHUR1vrdMJt_3std4path7PathBufuNvYB2g_INtNtBb_7convert4FromB2c_E4fromNCINvNvBT_8for_each4callB2g_NCINvMsi_NtCslJiobkLta79_5alloc3vecINtB42_3VecB2g_E14extend_trustedINtB1J_3MapBF_B2P_EE0E0E0ECsg5rknyf1sHS_18build_script_build, symObjAddr: 0xA60, symBinAddr: 0x10000B310, symSize: 0x190 }
  - { offset: 0x10D26, size: 0x8, addend: 0x0, symName: __RINvXs2E_NtNtCsieiGu2EXtoJ_4core5slice4iterINtB7_4IterTRSReBT_EENtNtNtNtBb_4iter6traits8iterator8Iterator4findQNCNvCsg5rknyf1sHS_18build_script_build16sources_for_arch0EB1P_, symObjAddr: 0xBF0, symBinAddr: 0x10000B4A0, symSize: 0xA0 }
  - { offset: 0x10D8B, size: 0x8, addend: 0x0, symName: __RINvXs2E_NtNtCsieiGu2EXtoJ_4core5slice4iterINtB7_4IterTReRSNtNtCsHUR1vrdMJt_3std4path7PathBufBT_BT_EENtNtNtNtBb_4iter6traits8iterator8Iterator8for_eachNCNvCsg5rknyf1sHS_18build_script_build12build_c_codes1_0EB2t_, symObjAddr: 0xC90, symBinAddr: 0x10000B540, symSize: 0x80 }
  - { offset: 0x10DED, size: 0x8, addend: 0x0, symName: __RNvXs2E_NtNtCsieiGu2EXtoJ_4core5slice4iterINtB6_4IterNtCsg5rknyf1sHS_18build_script_build9AsmTargetENtNtNtNtBa_4iter6traits8iterator8Iterator4nextBR_, symObjAddr: 0x1C20, symBinAddr: 0x10000C4D0, symSize: 0x90 }
  - { offset: 0x10F0E, size: 0x8, addend: 0x0, symName: __RNvXs2E_NtNtCsieiGu2EXtoJ_4core5slice4iterINtB6_4IterNtNtCsHUR1vrdMJt_3std4path7PathBufENtNtNtNtBa_4iter6traits8iterator8Iterator4nextCsg5rknyf1sHS_18build_script_build, symObjAddr: 0x1CB0, symBinAddr: 0x10000C560, symSize: 0x90 }
  - { offset: 0x1102F, size: 0x8, addend: 0x0, symName: __RNvXs2E_NtNtCsieiGu2EXtoJ_4core5slice4iterINtB6_4IterNtNtCsHUR1vrdMJt_3std4path7PathBufENtNtNtNtBa_4iter6traits8iterator8Iterator9size_hintCsg5rknyf1sHS_18build_script_build, symObjAddr: 0x1D40, symBinAddr: 0x10000C5F0, symSize: 0x60 }
  - { offset: 0x1109E, size: 0x8, addend: 0x0, symName: __RNvXs2E_NtNtCsieiGu2EXtoJ_4core5slice4iterINtB6_4IterReENtNtNtNtBa_4iter6traits8iterator8Iterator9size_hintCsg5rknyf1sHS_18build_script_build, symObjAddr: 0x1DA0, symBinAddr: 0x10000C650, symSize: 0x60 }
  - { offset: 0x1110D, size: 0x8, addend: 0x0, symName: __RNvXs2E_NtNtCsieiGu2EXtoJ_4core5slice4iterINtB6_4IterTNtNtCsHUR1vrdMJt_3std4path7PathBufBQ_EENtNtNtNtBa_4iter6traits8iterator8Iterator4nextCsg5rknyf1sHS_18build_script_build, symObjAddr: 0x1E00, symBinAddr: 0x10000C6B0, symSize: 0x90 }
  - { offset: 0x1122E, size: 0x8, addend: 0x0, symName: __RNvXs2E_NtNtCsieiGu2EXtoJ_4core5slice4iterINtB6_4IterTRSReBS_EENtNtNtNtBa_4iter6traits8iterator8Iterator4nextCsg5rknyf1sHS_18build_script_build, symObjAddr: 0x1E90, symBinAddr: 0x10000C740, symSize: 0x90 }
  - { offset: 0x1134F, size: 0x8, addend: 0x0, symName: __RNvXs2E_NtNtCsieiGu2EXtoJ_4core5slice4iterINtB6_4IterTRSReBS_EENtNtNtNtBa_4iter6traits8iterator8Iterator9size_hintCsg5rknyf1sHS_18build_script_build, symObjAddr: 0x1F20, symBinAddr: 0x10000C7D0, symSize: 0x60 }
  - { offset: 0x113BE, size: 0x8, addend: 0x0, symName: __RNvXs2E_NtNtCsieiGu2EXtoJ_4core5slice4iterINtB6_4IterTReBQ_EENtNtNtNtBa_4iter6traits8iterator8Iterator4nextCsg5rknyf1sHS_18build_script_build, symObjAddr: 0x1F80, symBinAddr: 0x10000C830, symSize: 0x90 }
  - { offset: 0x114DF, size: 0x8, addend: 0x0, symName: __RNvXs2E_NtNtCsieiGu2EXtoJ_4core5slice4iterINtB6_4IterTReRSNtNtCsHUR1vrdMJt_3std4path7PathBufBS_BS_EENtNtNtNtBa_4iter6traits8iterator8Iterator4nextCsg5rknyf1sHS_18build_script_build, symObjAddr: 0x2010, symBinAddr: 0x10000C8C0, symSize: 0x90 }
  - { offset: 0x11756, size: 0x8, addend: 0x0, symName: __RNvXs_NtNtCsieiGu2EXtoJ_4core5slice4iterRSNtNtCsHUR1vrdMJt_3std4path7PathBufNtNtNtNtB8_4iter6traits7collect12IntoIterator9into_iterCsg5rknyf1sHS_18build_script_build, symObjAddr: 0x23E0, symBinAddr: 0x10000CC90, symSize: 0x50 }
  - { offset: 0x11890, size: 0x8, addend: 0x0, symName: __RNvXs_NtNtCsieiGu2EXtoJ_4core5slice4iterRSTNtNtCsHUR1vrdMJt_3std4path7PathBufBF_ENtNtNtNtB8_4iter6traits7collect12IntoIterator9into_iterCsg5rknyf1sHS_18build_script_build, symObjAddr: 0x2430, symBinAddr: 0x10000CCE0, symSize: 0x50 }
  - { offset: 0x119CA, size: 0x8, addend: 0x0, symName: __RNvXs_NtNtCsieiGu2EXtoJ_4core5slice4iterRSTReBF_ENtNtNtNtB8_4iter6traits7collect12IntoIterator9into_iterCsg5rknyf1sHS_18build_script_build, symObjAddr: 0x2480, symBinAddr: 0x10000CD30, symSize: 0x50 }
  - { offset: 0x11C1F, size: 0x8, addend: 0x0, symName: __RNvMNtCsieiGu2EXtoJ_4core5sliceSNtNtCsHUR1vrdMJt_3std4path7PathBuf8containsCsg5rknyf1sHS_18build_script_build, symObjAddr: 0x1560, symBinAddr: 0x10000BE10, symSize: 0x30 }
  - { offset: 0x11C65, size: 0x8, addend: 0x0, symName: __RNvMNtCsieiGu2EXtoJ_4core5sliceSTReRSNtNtCsHUR1vrdMJt_3std4path7PathBufBx_Bx_E4iterCsg5rknyf1sHS_18build_script_build, symObjAddr: 0x1590, symBinAddr: 0x10000BE40, symSize: 0x20 }
  - { offset: 0x11D79, size: 0x8, addend: 0x0, symName: __RNvXsf_NtNtCsieiGu2EXtoJ_4core5slice3cmpNtNtCsHUR1vrdMJt_3std4path7PathBufNtB5_13SliceContains14slice_containsCsg5rknyf1sHS_18build_script_build, symObjAddr: 0x25F0, symBinAddr: 0x10000CEA0, symSize: 0x70 }
  - { offset: 0x12468, size: 0x8, addend: 0x0, symName: __RINvYINtNtNtCsieiGu2EXtoJ_4core5slice4iter4IterNtNtCsHUR1vrdMJt_3std4path7PathBufENtNtNtNtBa_4iter6traits8iterator8Iterator3mapBJ_NCNvCsg5rknyf1sHS_18build_script_build12build_c_code0EB28_, symObjAddr: 0x1200, symBinAddr: 0x10000BAB0, symSize: 0x30 }
  - { offset: 0x124D5, size: 0x8, addend: 0x0, symName: __RINvYINtNtNtCsieiGu2EXtoJ_4core5slice4iter4IterNtNtCsHUR1vrdMJt_3std4path7PathBufENtNtNtNtBa_4iter6traits8iterator8Iterator5chainRSBJ_ECsg5rknyf1sHS_18build_script_build, symObjAddr: 0x1230, symBinAddr: 0x10000BAE0, symSize: 0xC0 }
  - { offset: 0x1254B, size: 0x8, addend: 0x0, symName: __RINvYINtNtNtCsieiGu2EXtoJ_4core5slice4iter4IterNtNtCsHUR1vrdMJt_3std4path7PathBufENtNtNtNtBa_4iter6traits8iterator8Iterator6filterNCNvCsg5rknyf1sHS_18build_script_build16perlasm_src_dsts0EB28_, symObjAddr: 0x12F0, symBinAddr: 0x10000BBA0, symSize: 0x20 }
  - { offset: 0x1259A, size: 0x8, addend: 0x0, symName: __RINvYINtNtNtCsieiGu2EXtoJ_4core5slice4iter4IterReENtNtNtNtBa_4iter6traits8iterator8Iterator3mapNtNtCsHUR1vrdMJt_3std4path7PathBufNvYB1v_INtNtBa_7convert4FromRBJ_E4fromECsg5rknyf1sHS_18build_script_build, symObjAddr: 0x1310, symBinAddr: 0x10000BBC0, symSize: 0x20 }
  - { offset: 0x125F2, size: 0x8, addend: 0x0, symName: __RINvYINtNtNtCsieiGu2EXtoJ_4core5slice4iter4IterReENtNtNtNtBa_4iter6traits8iterator8Iterator8try_foldjNCINvNtNtBS_8adapters3map12map_try_foldRBJ_jjINtNtBa_6option6OptionjENCNCINvNtCslJiobkLta79_5alloc3str17join_generic_copyehBJ_E00NvMs9_NtBa_3numj11checked_addE0B2k_ECsg5rknyf1sHS_18build_script_build, symObjAddr: 0x1330, symBinAddr: 0x10000BBE0, symSize: 0x180 }
  - { offset: 0x126A6, size: 0x8, addend: 0x0, symName: __RINvYINtNtNtCsieiGu2EXtoJ_4core5slice4iter4IterTRSReBM_EENtNtNtNtBa_4iter6traits8iterator8Iterator6filterNCNvCsg5rknyf1sHS_18build_script_build16sources_for_arch0EB1J_, symObjAddr: 0x14B0, symBinAddr: 0x10000BD60, symSize: 0x20 }
  - { offset: 0x1270A, size: 0x8, addend: 0x0, symName: __RINvYINtNtNtCslJiobkLta79_5alloc3vec9into_iter8IntoIterNtNtCsHUR1vrdMJt_3std4path7PathBufENtNtNtNtCsieiGu2EXtoJ_4core4iter6traits8iterator8Iterator6filterNCNvCsg5rknyf1sHS_18build_script_build12build_c_codes_0EB2w_, symObjAddr: 0x14D0, symBinAddr: 0x10000BD80, symSize: 0x30 }
  - { offset: 0x1276E, size: 0x8, addend: 0x0, symName: __RINvYINtNtNtCslJiobkLta79_5alloc3vec9into_iter8IntoIterTNtNtCsHUR1vrdMJt_3std4path7PathBufBS_EENtNtNtNtCsieiGu2EXtoJ_4core4iter6traits8iterator8Iterator3mapBS_NCNvCsg5rknyf1sHS_18build_script_build8asm_srcs0EB2B_, symObjAddr: 0x1500, symBinAddr: 0x10000BDB0, symSize: 0x30 }
  - { offset: 0x127DB, size: 0x8, addend: 0x0, symName: __RINvYNtNtCsHUR1vrdMJt_3std4path10ComponentsNtNtNtNtCsieiGu2EXtoJ_4core4iter6traits8iterator8Iterator3mapRNtNtNtB7_3ffi6os_str5OsStrNCNvCsg5rknyf1sHS_18build_script_build36join_components_with_forward_slashes0EB29_, symObjAddr: 0x1530, symBinAddr: 0x10000BDE0, symSize: 0x30 }
  - { offset: 0x128AC, size: 0x8, addend: 0x0, symName: __RNvYNtNtCsHUR1vrdMJt_3std4path10ComponentsNtNtNtNtCsieiGu2EXtoJ_4core4iter6traits8iterator8Iterator9size_hintCsg5rknyf1sHS_18build_script_build, symObjAddr: 0x2F30, symBinAddr: 0x10000D7E0, symSize: 0x30 }
  - { offset: 0x129CC, size: 0x8, addend: 0x0, symName: __RNvYINtNtNtCslJiobkLta79_5alloc3vec9into_iter8IntoIterNtNtCsHUR1vrdMJt_3std4path7PathBufENtNtNtNtCsieiGu2EXtoJ_4core4iter6traits10exact_size17ExactSizeIterator3lenCsg5rknyf1sHS_18build_script_build, symObjAddr: 0x2D70, symBinAddr: 0x10000D620, symSize: 0xE0 }
  - { offset: 0x12ACC, size: 0x8, addend: 0x0, symName: __RNvYINtNtNtCslJiobkLta79_5alloc3vec9into_iter8IntoIterTNtNtCsHUR1vrdMJt_3std4path7PathBufBR_EENtNtNtNtCsieiGu2EXtoJ_4core4iter6traits10exact_size17ExactSizeIterator3lenCsg5rknyf1sHS_18build_script_build, symObjAddr: 0x2E50, symBinAddr: 0x10000D700, symSize: 0xE0 }
  - { offset: 0x12BD8, size: 0x8, addend: 0x0, symName: __RNvXNtNtNtCsieiGu2EXtoJ_4core4iter6traits7collectINtNtNtB8_5slice4iter4IterNtCsg5rknyf1sHS_18build_script_build9AsmTargetENtB2_12IntoIterator9into_iterB1d_, symObjAddr: 0x1AD0, symBinAddr: 0x10000C380, symSize: 0x20 }
  - { offset: 0x139A7, size: 0x8, addend: 0x0, symName: __RINvXs3_NtNtCslJiobkLta79_5alloc3vec9into_iterINtB6_8IntoIterNtNtCsHUR1vrdMJt_3std4path7PathBufENtNtNtNtCsieiGu2EXtoJ_4core4iter6traits8iterator8Iterator8try_foldINtNtB8_13in_place_drop11InPlaceDropBX_ENCINvNtNtB1C_8adapters6filter15filter_try_foldBX_B2A_INtNtB1E_6result6ResultB2A_zENCNvCsg5rknyf1sHS_18build_script_build12build_c_codes_0NCIB3h_BX_B2A_B45_NCB4A_s0_0NCINvNtB8_16in_place_collect24write_in_place_with_dropBX_E0E0E0B45_EB4C_, symObjAddr: 0xD10, symBinAddr: 0x10000B5C0, symSize: 0x250 }
  - { offset: 0x13B70, size: 0x8, addend: 0x0, symName: __RINvXs3_NtNtCslJiobkLta79_5alloc3vec9into_iterINtB6_8IntoIterTNtNtCsHUR1vrdMJt_3std4path7PathBufBY_EENtNtNtNtCsieiGu2EXtoJ_4core4iter6traits8iterator8Iterator8try_foldINtNtB8_13in_place_drop11InPlaceDropBY_ENCINvNtNtB1H_8adapters3map12map_try_foldBX_BY_B2F_INtNtB1J_6result6ResultB2F_zENCNvCsg5rknyf1sHS_18build_script_build8asm_srcs0NCINvNtB8_16in_place_collect24write_in_place_with_dropBY_E0E0B47_EB4E_, symObjAddr: 0xF60, symBinAddr: 0x10000B810, symSize: 0x2A0 }
  - { offset: 0x13D39, size: 0x8, addend: 0x0, symName: __RNvXs3_NtNtCslJiobkLta79_5alloc3vec9into_iterINtB5_8IntoIterNtNtCsHUR1vrdMJt_3std4path7PathBufENtNtNtNtCsieiGu2EXtoJ_4core4iter6traits8iterator8Iterator4nextCsg5rknyf1sHS_18build_script_build, symObjAddr: 0x20A0, symBinAddr: 0x10000C950, symSize: 0x100 }
  - { offset: 0x13E97, size: 0x8, addend: 0x0, symName: __RNvXs3_NtNtCslJiobkLta79_5alloc3vec9into_iterINtB5_8IntoIterNtNtCsHUR1vrdMJt_3std4path7PathBufENtNtNtNtCsieiGu2EXtoJ_4core4iter6traits8iterator8Iterator9size_hintCsg5rknyf1sHS_18build_script_build, symObjAddr: 0x21A0, symBinAddr: 0x10000CA50, symSize: 0x60 }
  - { offset: 0x13EF2, size: 0x8, addend: 0x0, symName: __RNvXs3_NtNtCslJiobkLta79_5alloc3vec9into_iterINtB5_8IntoIterTNtNtCsHUR1vrdMJt_3std4path7PathBufBX_EENtNtNtNtCsieiGu2EXtoJ_4core4iter6traits8iterator8Iterator9size_hintCsg5rknyf1sHS_18build_script_build, symObjAddr: 0x2200, symBinAddr: 0x10000CAB0, symSize: 0x60 }
  - { offset: 0x140B7, size: 0x8, addend: 0x0, symName: __RNvXNvXsd_NtNtCslJiobkLta79_5alloc3vec9into_iterINtB8_8IntoIterppENtNtNtCsieiGu2EXtoJ_4core3ops4drop4Drop4dropINtB2_9DropGuardNtNtCsHUR1vrdMJt_3std4path7PathBufNtNtBc_5alloc6GlobalEB12_4dropCsg5rknyf1sHS_18build_script_build, symObjAddr: 0x1AF0, symBinAddr: 0x10000C3A0, symSize: 0x70 }
  - { offset: 0x141CC, size: 0x8, addend: 0x0, symName: __RNvXNvXsd_NtNtCslJiobkLta79_5alloc3vec9into_iterINtB8_8IntoIterppENtNtNtCsieiGu2EXtoJ_4core3ops4drop4Drop4dropINtB2_9DropGuardTNtNtCsHUR1vrdMJt_3std4path7PathBufB21_ENtNtBc_5alloc6GlobalEB12_4dropCsg5rknyf1sHS_18build_script_build, symObjAddr: 0x1B60, symBinAddr: 0x10000C410, symSize: 0x70 }
  - { offset: 0x14331, size: 0x8, addend: 0x0, symName: __RNvXsd_NtNtCslJiobkLta79_5alloc3vec9into_iterINtB5_8IntoIterNtNtCsHUR1vrdMJt_3std4path7PathBufENtNtNtCsieiGu2EXtoJ_4core3ops4drop4Drop4dropCsg5rknyf1sHS_18build_script_build, symObjAddr: 0x24D0, symBinAddr: 0x10000CD80, symSize: 0x90 }
  - { offset: 0x143CC, size: 0x8, addend: 0x0, symName: __RNvXsd_NtNtCslJiobkLta79_5alloc3vec9into_iterINtB5_8IntoIterTNtNtCsHUR1vrdMJt_3std4path7PathBufBX_EENtNtNtCsieiGu2EXtoJ_4core3ops4drop4Drop4dropCsg5rknyf1sHS_18build_script_build, symObjAddr: 0x2560, symBinAddr: 0x10000CE10, symSize: 0x90 }
  - { offset: 0x1446D, size: 0x8, addend: 0x0, symName: __RNvXsf_NtNtCslJiobkLta79_5alloc3vec9into_iterINtB5_8IntoIterNtNtCsHUR1vrdMJt_3std4path7PathBufENtNtNtCsieiGu2EXtoJ_4core4iter8adapters10SourceIter8as_innerCsg5rknyf1sHS_18build_script_build, symObjAddr: 0x2660, symBinAddr: 0x10000CF10, symSize: 0x10 }
  - { offset: 0x144AD, size: 0x8, addend: 0x0, symName: __RNvXsf_NtNtCslJiobkLta79_5alloc3vec9into_iterINtB5_8IntoIterTNtNtCsHUR1vrdMJt_3std4path7PathBufBX_EENtNtNtCsieiGu2EXtoJ_4core4iter8adapters10SourceIter8as_innerCsg5rknyf1sHS_18build_script_build, symObjAddr: 0x2670, symBinAddr: 0x10000CF20, symSize: 0x10 }
  - { offset: 0x144F3, size: 0x8, addend: 0x0, symName: __RNvXsg_NtNtCslJiobkLta79_5alloc3vec9into_iterINtB5_8IntoIterNtNtCsHUR1vrdMJt_3std4path7PathBufENtNtB7_16in_place_collect13AsVecIntoIter12as_into_iterCsg5rknyf1sHS_18build_script_build, symObjAddr: 0x2680, symBinAddr: 0x10000CF30, symSize: 0x10 }
  - { offset: 0x1452A, size: 0x8, addend: 0x0, symName: __RNvXsg_NtNtCslJiobkLta79_5alloc3vec9into_iterINtB5_8IntoIterTNtNtCsHUR1vrdMJt_3std4path7PathBufBX_EENtNtB7_16in_place_collect13AsVecIntoIter12as_into_iterCsg5rknyf1sHS_18build_script_build, symObjAddr: 0x2690, symBinAddr: 0x10000CF40, symSize: 0x10 }
  - { offset: 0x14E8D, size: 0x8, addend: 0x0, symName: __RINvMs16_NtCsHUR1vrdMJt_3std4pathNtB7_4Path4joinRNtB7_7PathBufECsg5rknyf1sHS_18build_script_build, symObjAddr: 0x0, symBinAddr: 0x10000A8B0, symSize: 0x80 }
  - { offset: 0x14EEF, size: 0x8, addend: 0x0, symName: __RINvMs16_NtCsHUR1vrdMJt_3std4pathNtB7_4Path4joinRNtNtNtB9_3ffi6os_str5OsStrECsg5rknyf1sHS_18build_script_build, symObjAddr: 0x80, symBinAddr: 0x10000A930, symSize: 0x80 }
  - { offset: 0x15468, size: 0x8, addend: 0x0, symName: __RNvMs16_NtCsHUR1vrdMJt_3std4pathNtB6_4Path6to_strCsg5rknyf1sHS_18build_script_build, symObjAddr: 0x15B0, symBinAddr: 0x10000BE60, symSize: 0x80 }
  - { offset: 0x15500, size: 0x8, addend: 0x0, symName: __RNvMs16_NtCsHUR1vrdMJt_3std4pathNtB6_4Path9as_os_strCsg5rknyf1sHS_18build_script_build, symObjAddr: 0x1630, symBinAddr: 0x10000BEE0, symSize: 0x20 }
  - { offset: 0x15574, size: 0x8, addend: 0x0, symName: __RNvMs4_NtCsHUR1vrdMJt_3std4pathNtB5_9Component9as_os_strCsg5rknyf1sHS_18build_script_build, symObjAddr: 0x1650, symBinAddr: 0x10000BF00, symSize: 0x200 }
  - { offset: 0x15834, size: 0x8, addend: 0x0, symName: __RNvMs4_NtNtCsieiGu2EXtoJ_4core5slice4iterINtB5_4IterNtCsg5rknyf1sHS_18build_script_build9AsmTargetE3newBQ_, symObjAddr: 0x1850, symBinAddr: 0x10000C100, symSize: 0x50 }
  - { offset: 0x159E1, size: 0x8, addend: 0x0, symName: __RNvMs4_NtNtCsieiGu2EXtoJ_4core5slice4iterINtB5_4IterTRSReBR_EE3newCsg5rknyf1sHS_18build_script_build, symObjAddr: 0x18A0, symBinAddr: 0x10000C150, symSize: 0x50 }
  - { offset: 0x15C03, size: 0x8, addend: 0x0, symName: __RNvMs4_NtNtCsieiGu2EXtoJ_4core5slice4iterINtB5_4IterTReRSNtNtCsHUR1vrdMJt_3std4path7PathBufBR_BR_EE3newCsg5rknyf1sHS_18build_script_build, symObjAddr: 0x18F0, symBinAddr: 0x10000C1A0, symSize: 0x50 }
  - { offset: 0x15E07, size: 0x8, addend: 0x0, symName: __RNvMs_NtNtCslJiobkLta79_5alloc3vec9into_iterINtB4_8IntoIterNtNtCsHUR1vrdMJt_3std4path7PathBufE32forget_allocation_drop_remainingCsg5rknyf1sHS_18build_script_build, symObjAddr: 0x1940, symBinAddr: 0x10000C1F0, symSize: 0xB0 }
  - { offset: 0x16048, size: 0x8, addend: 0x0, symName: __RNvMs_NtNtCslJiobkLta79_5alloc3vec9into_iterINtB4_8IntoIterTNtNtCsHUR1vrdMJt_3std4path7PathBufBW_EE32forget_allocation_drop_remainingCsg5rknyf1sHS_18build_script_build, symObjAddr: 0x19F0, symBinAddr: 0x10000C2A0, symSize: 0xB0 }
  - { offset: 0x161B0, size: 0x8, addend: 0x0, symName: __RNvMsr_NtCsHUR1vrdMJt_3std4pathNtB5_7PathBuf7as_pathCsg5rknyf1sHS_18build_script_build, symObjAddr: 0x1AA0, symBinAddr: 0x10000C350, symSize: 0x30 }
  - { offset: 0x1738A, size: 0x8, addend: 0x0, symName: __RINvMs3_NtCslJiobkLta79_5alloc3stre7replacecECsg5rknyf1sHS_18build_script_build, symObjAddr: 0x0, symBinAddr: 0x10000D810, symSize: 0x900 }
  - { offset: 0x17F13, size: 0x8, addend: 0x0, symName: __RNvXs7_NtNtCsieiGu2EXtoJ_4core3cmp5implsRNtNtCslJiobkLta79_5alloc6string6StringNtB7_9PartialEq2eqCsg5rknyf1sHS_18build_script_build, symObjAddr: 0x35F0, symBinAddr: 0x100010E00, symSize: 0x30 }
  - { offset: 0x19997, size: 0x8, addend: 0x0, symName: __RNvXs19_NtCsieiGu2EXtoJ_4core3fmtRNtNtCslJiobkLta79_5alloc6string6StringNtB6_5Debug3fmtCsg5rknyf1sHS_18build_script_build, symObjAddr: 0x31C0, symBinAddr: 0x1000109D0, symSize: 0x20 }
  - { offset: 0x199DD, size: 0x8, addend: 0x0, symName: __RNvXs19_NtCsieiGu2EXtoJ_4core3fmtRRNtNtCslJiobkLta79_5alloc6string6StringNtB6_5Debug3fmtCsg5rknyf1sHS_18build_script_build, symObjAddr: 0x31E0, symBinAddr: 0x1000109F0, symSize: 0x20 }
  - { offset: 0x19BA2, size: 0x8, addend: 0x0, symName: __RINvMs3_NtCslJiobkLta79_5alloc3stre7replacecECsg5rknyf1sHS_18build_script_build, symObjAddr: 0x0, symBinAddr: 0x10000D810, symSize: 0x900 }
  - { offset: 0x1A736, size: 0x8, addend: 0x0, symName: __RNCNCINvNtCslJiobkLta79_5alloc3str17join_generic_copyehReE00Csg5rknyf1sHS_18build_script_build, symObjAddr: 0x2ED0, symBinAddr: 0x1000106E0, symSize: 0x40 }
  - { offset: 0x1A78F, size: 0x8, addend: 0x0, symName: __RNCINvNtCslJiobkLta79_5alloc3str17join_generic_copyehReEs_0Csg5rknyf1sHS_18build_script_build, symObjAddr: 0x2E50, symBinAddr: 0x100010660, symSize: 0x80 }
  - { offset: 0x1A85D, size: 0x8, addend: 0x0, symName: __RINvNtCslJiobkLta79_5alloc3str17join_generic_copyehReECsg5rknyf1sHS_18build_script_build, symObjAddr: 0x900, symBinAddr: 0x10000E110, symSize: 0x1E90 }
  - { offset: 0x1BEA7, size: 0x8, addend: 0x0, symName: __RNvXs_NtCslJiobkLta79_5alloc3strSReINtNtB6_5slice4JoinBv_E4joinCsg5rknyf1sHS_18build_script_build, symObjAddr: 0x3690, symBinAddr: 0x100010EA0, symSize: 0x50 }
  - { offset: 0x1BFFA, size: 0x8, addend: 0x0, symName: __RNvXs19_NtCslJiobkLta79_5alloc6stringNtB6_6StringINtNtCsieiGu2EXtoJ_4core7convert4FromcE4fromCsg5rknyf1sHS_18build_script_build, symObjAddr: 0x3200, symBinAddr: 0x100010A10, symSize: 0x30 }
  - { offset: 0x1C04C, size: 0x8, addend: 0x0, symName: __RNvXs1b_NtCslJiobkLta79_5alloc6stringNtB6_6StringNtNtCsieiGu2EXtoJ_4core3cmp9PartialEq2eqCsg5rknyf1sHS_18build_script_build, symObjAddr: 0x3230, symBinAddr: 0x100010A40, symSize: 0x20 }
  - { offset: 0x1C131, size: 0x8, addend: 0x0, symName: __RNvXs1n_NtCslJiobkLta79_5alloc6stringNtB6_6StringINtNtCsieiGu2EXtoJ_4core3cmp9PartialEqReE2eqCsg5rknyf1sHS_18build_script_build, symObjAddr: 0x3250, symBinAddr: 0x100010A60, symSize: 0x130 }
  - { offset: 0x1C40D, size: 0x8, addend: 0x0, symName: __RNvXs1n_NtCslJiobkLta79_5alloc6stringNtB6_6StringINtNtCsieiGu2EXtoJ_4core3cmp9PartialEqReE2neCsg5rknyf1sHS_18build_script_build, symObjAddr: 0x3380, symBinAddr: 0x100010B90, symSize: 0x130 }
  - { offset: 0x1C716, size: 0x8, addend: 0x0, symName: __RNvXs1o_NtCslJiobkLta79_5alloc6stringReINtNtCsieiGu2EXtoJ_4core3cmp9PartialEqNtB6_6StringE2eqCsg5rknyf1sHS_18build_script_build, symObjAddr: 0x34B0, symBinAddr: 0x100010CC0, symSize: 0x140 }
  - { offset: 0x1CA34, size: 0x8, addend: 0x0, symName: __RNvXss_NtCslJiobkLta79_5alloc6stringNtB5_6StringNtNtNtCsieiGu2EXtoJ_4core3ops5deref5Deref5derefCsg5rknyf1sHS_18build_script_build, symObjAddr: 0x3840, symBinAddr: 0x100011050, symSize: 0x20 }
  - { offset: 0x1CA68, size: 0x8, addend: 0x0, symName: __RNvXsC_NtCslJiobkLta79_5alloc6stringNtB5_6StringINtNtCsieiGu2EXtoJ_4core7convert5AsRefeE6as_refCsg5rknyf1sHS_18build_script_build, symObjAddr: 0x3620, symBinAddr: 0x100010E30, symSize: 0x20 }
  - { offset: 0x1CABA, size: 0x8, addend: 0x0, symName: __RNvXsF_NtCslJiobkLta79_5alloc6stringNtB5_6StringINtNtCsieiGu2EXtoJ_4core7convert4FromReE4fromCsg5rknyf1sHS_18build_script_build, symObjAddr: 0x3640, symBinAddr: 0x100010E50, symSize: 0x50 }
  - { offset: 0x1CBA7, size: 0x8, addend: 0x0, symName: __RNvXsm_NtCslJiobkLta79_5alloc6stringNtB5_6StringNtNtCsieiGu2EXtoJ_4core3fmt5Debug3fmtCsg5rknyf1sHS_18build_script_build, symObjAddr: 0x36E0, symBinAddr: 0x100010EF0, symSize: 0x70 }
  - { offset: 0x1CD0C, size: 0x8, addend: 0x0, symName: __RNvXso_NtCslJiobkLta79_5alloc6stringNtB5_6StringINtNtNtCsieiGu2EXtoJ_4core3ops5arith3AddReE3addCsg5rknyf1sHS_18build_script_build, symObjAddr: 0x3750, symBinAddr: 0x100010F60, symSize: 0xC0 }
  - { offset: 0x1CE8F, size: 0x8, addend: 0x0, symName: __RNvXsp_NtCslJiobkLta79_5alloc6stringNtB5_6StringINtNtNtCsieiGu2EXtoJ_4core3ops5arith9AddAssignReE10add_assignCsg5rknyf1sHS_18build_script_build, symObjAddr: 0x3810, symBinAddr: 0x100011020, symSize: 0x30 }
  - { offset: 0x1CEF2, size: 0x8, addend: 0x0, symName: __RNvXsz_NtCslJiobkLta79_5alloc6stringcNtB5_12SpecToString14spec_to_stringCsg5rknyf1sHS_18build_script_build, symObjAddr: 0x3860, symBinAddr: 0x100011070, symSize: 0xB0 }
  - { offset: 0x1D26E, size: 0x8, addend: 0x0, symName: __RINvNtNtCslJiobkLta79_5alloc3vec16in_place_collect18from_iter_in_placeINtNtNtNtCsieiGu2EXtoJ_4core4iter8adapters3map3MapINtNtB4_9into_iter8IntoIterTNtNtCsHUR1vrdMJt_3std4path7PathBufB2m_EENCNvCsg5rknyf1sHS_18build_script_build8asm_srcs0EB2m_EB34_, symObjAddr: 0x2790, symBinAddr: 0x10000FFA0, symSize: 0x360 }
  - { offset: 0x1D700, size: 0x8, addend: 0x0, symName: __RINvNtNtCslJiobkLta79_5alloc3vec16in_place_collect18from_iter_in_placeINtNtNtNtCsieiGu2EXtoJ_4core4iter8adapters6filter6FilterIB17_INtNtB4_9into_iter8IntoIterNtNtCsHUR1vrdMJt_3std4path7PathBufENCNvCsg5rknyf1sHS_18build_script_build12build_c_codes_0ENCB37_s0_0EB2w_EB39_, symObjAddr: 0x2AF0, symBinAddr: 0x100010300, symSize: 0x360 }
  - { offset: 0x1EFAB, size: 0x8, addend: 0x0, symName: __RNvMNtCslJiobkLta79_5alloc6stringNtB2_6String3newCsg5rknyf1sHS_18build_script_build, symObjAddr: 0x2F10, symBinAddr: 0x100010720, symSize: 0x40 }
  - { offset: 0x1F076, size: 0x8, addend: 0x0, symName: __RNvMNtCslJiobkLta79_5alloc6stringNtB2_6String6as_strCsg5rknyf1sHS_18build_script_build, symObjAddr: 0x2F50, symBinAddr: 0x100010760, symSize: 0x60 }
  - { offset: 0x1F237, size: 0x8, addend: 0x0, symName: __RNvMNtCslJiobkLta79_5alloc6stringNtB2_6String8push_strCsg5rknyf1sHS_18build_script_build, symObjAddr: 0x2FB0, symBinAddr: 0x1000107C0, symSize: 0x50 }
  - { offset: 0x1F414, size: 0x8, addend: 0x0, symName: __RNvMNtCslJiobkLta79_5alloc6stringNtB2_6String9from_utf8Csg5rknyf1sHS_18build_script_build, symObjAddr: 0x3000, symBinAddr: 0x100010810, symSize: 0x1C0 }
  - { offset: 0x1FA20, size: 0x8, addend: 0x0, symName: __RINvMNtCsieiGu2EXtoJ_4core6resultINtB3_6ResultNtNtCsHUR1vrdMJt_3std7process10ExitStatusNtNtNtBM_2io5error5ErrorE14unwrap_or_elseNCNvCsg5rknyf1sHS_18build_script_build11run_command0EB26_, symObjAddr: 0x0, symBinAddr: 0x100011120, symSize: 0x50 }
  - { offset: 0x20166, size: 0x8, addend: 0x0, symName: __RINvNtNtCsHUR1vrdMJt_3std3sys9backtrace28___rust_begin_short_backtraceFEuuECsg5rknyf1sHS_18build_script_build, symObjAddr: 0x1230, symBinAddr: 0x100012350, symSize: 0x20 }
  - { offset: 0x202BA, size: 0x8, addend: 0x0, symName: __RNCNvXsR_NtNtCsHUR1vrdMJt_3std3ffi6os_strSRNtB7_5OsStrINtNtCslJiobkLta79_5alloc5slice4JoinBE_E4join0Csg5rknyf1sHS_18build_script_build, symObjAddr: 0x1400, symBinAddr: 0x100012520, symSize: 0xB0 }
  - { offset: 0x20314, size: 0x8, addend: 0x0, symName: __RNvXsR_NtNtCsHUR1vrdMJt_3std3ffi6os_strSRNtB5_5OsStrINtNtCslJiobkLta79_5alloc5slice4JoinBC_E4joinCsg5rknyf1sHS_18build_script_build, symObjAddr: 0x2E40, symBinAddr: 0x100013F60, symSize: 0x260 }
  - { offset: 0x205E7, size: 0x8, addend: 0x0, symName: __RNvXNvMs0_NtNtCsHUR1vrdMJt_3std3ffi6os_strNtB8_8OsString4pushRNtB8_5OsStrNtB2_10SpecPushTo12spec_push_toCsg5rknyf1sHS_18build_script_build, symObjAddr: 0x29F0, symBinAddr: 0x100013B10, symSize: 0x80 }
  - { offset: 0x2076D, size: 0x8, addend: 0x0, symName: __RNvXs1_NtNtCsHUR1vrdMJt_3std3ffi6os_strNtB5_8OsStringINtNtCsieiGu2EXtoJ_4core7convert4FromNtNtCslJiobkLta79_5alloc6string6StringE4fromCsg5rknyf1sHS_18build_script_build, symObjAddr: 0x2C50, symBinAddr: 0x100013D70, symSize: 0x50 }
  - { offset: 0x207B6, size: 0x8, addend: 0x0, symName: __RNvXs3_NtNtCsHUR1vrdMJt_3std3ffi6os_strNtB5_8OsStringINtNtNtCsieiGu2EXtoJ_4core3ops5index5IndexNtNtBU_5range9RangeFullE5indexCsg5rknyf1sHS_18build_script_build, symObjAddr: 0x2CF0, symBinAddr: 0x100013E10, symSize: 0x60 }
  - { offset: 0x208C5, size: 0x8, addend: 0x0, symName: __RNvXs5_NtNtCsHUR1vrdMJt_3std3ffi6os_strNtB5_8OsStringNtNtNtCsieiGu2EXtoJ_4core3ops5deref5Deref5derefCsg5rknyf1sHS_18build_script_build, symObjAddr: 0x2D50, symBinAddr: 0x100013E70, symSize: 0x20 }
  - { offset: 0x20A5D, size: 0x8, addend: 0x0, symName: __RINvNtCsHUR1vrdMJt_3std2fs10create_dirRNtNtB4_4path7PathBufECsg5rknyf1sHS_18build_script_build, symObjAddr: 0x9C0, symBinAddr: 0x100011AE0, symSize: 0x70 }
  - { offset: 0x20AA9, size: 0x8, addend: 0x0, symName: __RINvNtCsHUR1vrdMJt_3std2fs14create_dir_allRNtNtB4_4path7PathBufECsg5rknyf1sHS_18build_script_build, symObjAddr: 0xA30, symBinAddr: 0x100011B50, symSize: 0x80 }
  - { offset: 0x20B3E, size: 0x8, addend: 0x0, symName: __RINvNtCsHUR1vrdMJt_3std2fs8metadataNtNtB4_4path7PathBufECsg5rknyf1sHS_18build_script_build, symObjAddr: 0xAB0, symBinAddr: 0x100011BD0, symSize: 0x130 }
  - { offset: 0x20C12, size: 0x8, addend: 0x0, symName: __RINvNtCsHUR1vrdMJt_3std2fs8read_dirRNtNtB4_4path4PathECsg5rknyf1sHS_18build_script_build, symObjAddr: 0xBE0, symBinAddr: 0x100011D00, symSize: 0xB0 }
  - { offset: 0x20CEF, size: 0x8, addend: 0x0, symName: __RNvXs1m_NtCsHUR1vrdMJt_3std4pathNtNtNtB8_3ffi6os_str5OsStrINtNtCsieiGu2EXtoJ_4core7convert5AsRefNtB6_4PathE6as_refCsg5rknyf1sHS_18build_script_build, symObjAddr: 0x2CD0, symBinAddr: 0x100013DF0, symSize: 0x20 }
  - { offset: 0x21D0B, size: 0x8, addend: 0x0, symName: __RNvNvMs1_NtNtCsieiGu2EXtoJ_4core3ptr8non_nullINtB7_7NonNullpE13new_unchecked18precondition_checkCsg5rknyf1sHS_18build_script_build, symObjAddr: 0x22E0, symBinAddr: 0x100013400, symSize: 0x90 }
  - { offset: 0x21F73, size: 0x8, addend: 0x0, symName: __RINvNtCsieiGu2EXtoJ_4core3ptr13drop_in_placeINtNtB4_6result6ResultNtNtCslJiobkLta79_5alloc6string6StringNtNtNtCsHUR1vrdMJt_3std3ffi6os_str8OsStringEECsg5rknyf1sHS_18build_script_build, symObjAddr: 0xC90, symBinAddr: 0x100011DB0, symSize: 0x40 }
  - { offset: 0x21FA2, size: 0x8, addend: 0x0, symName: __RINvNtCsieiGu2EXtoJ_4core3ptr13drop_in_placeINtNtCslJiobkLta79_5alloc3vec3VecNtNtCsHUR1vrdMJt_3std4path7PathBufEECsg5rknyf1sHS_18build_script_build, symObjAddr: 0xCD0, symBinAddr: 0x100011DF0, symSize: 0x50 }
  - { offset: 0x21FD1, size: 0x8, addend: 0x0, symName: __RINvNtCsieiGu2EXtoJ_4core3ptr13drop_in_placeINtNtCslJiobkLta79_5alloc3vec3VecRNtNtNtCsHUR1vrdMJt_3std3ffi6os_str5OsStrEECsg5rknyf1sHS_18build_script_build, symObjAddr: 0xD20, symBinAddr: 0x100011E40, symSize: 0x50 }
  - { offset: 0x22000, size: 0x8, addend: 0x0, symName: __RINvNtCsieiGu2EXtoJ_4core3ptr13drop_in_placeINtNtCslJiobkLta79_5alloc3vec3VecTNtNtCsHUR1vrdMJt_3std4path7PathBufB1e_EEECsg5rknyf1sHS_18build_script_build, symObjAddr: 0xD70, symBinAddr: 0x100011E90, symSize: 0x50 }
  - { offset: 0x2202F, size: 0x8, addend: 0x0, symName: __RINvNtCsieiGu2EXtoJ_4core3ptr13drop_in_placeINtNtCslJiobkLta79_5alloc4sync3ArcNtNtNtNtCsHUR1vrdMJt_3std3sys2fs4unix12InnerReadDirEECsg5rknyf1sHS_18build_script_build, symObjAddr: 0xDC0, symBinAddr: 0x100011EE0, symSize: 0x20 }
  - { offset: 0x2205E, size: 0x8, addend: 0x0, symName: __RINvNtCsieiGu2EXtoJ_4core3ptr13drop_in_placeINtNtCslJiobkLta79_5alloc7raw_vec6RawVecNtNtCsHUR1vrdMJt_3std4path7PathBufEECsg5rknyf1sHS_18build_script_build, symObjAddr: 0xDE0, symBinAddr: 0x100011F00, symSize: 0x20 }
  - { offset: 0x2208D, size: 0x8, addend: 0x0, symName: __RINvNtCsieiGu2EXtoJ_4core3ptr13drop_in_placeINtNtCslJiobkLta79_5alloc7raw_vec6RawVecRNtNtNtCsHUR1vrdMJt_3std3ffi6os_str5OsStrEECsg5rknyf1sHS_18build_script_build, symObjAddr: 0xE00, symBinAddr: 0x100011F20, symSize: 0x20 }
  - { offset: 0x220BC, size: 0x8, addend: 0x0, symName: __RINvNtCsieiGu2EXtoJ_4core3ptr13drop_in_placeINtNtCslJiobkLta79_5alloc7raw_vec6RawVecTNtNtCsHUR1vrdMJt_3std4path7PathBufB1l_EEECsg5rknyf1sHS_18build_script_build, symObjAddr: 0xE20, symBinAddr: 0x100011F40, symSize: 0x20 }
  - { offset: 0x220EB, size: 0x8, addend: 0x0, symName: __RINvNtCsieiGu2EXtoJ_4core3ptr13drop_in_placeINtNtNtCslJiobkLta79_5alloc3vec13in_place_drop24InPlaceDstDataSrcBufDropNtNtCsHUR1vrdMJt_3std4path7PathBufB1Q_EECsg5rknyf1sHS_18build_script_build, symObjAddr: 0xE40, symBinAddr: 0x100011F60, symSize: 0x20 }
  - { offset: 0x2211A, size: 0x8, addend: 0x0, symName: __RINvNtCsieiGu2EXtoJ_4core3ptr13drop_in_placeINtNtNtCslJiobkLta79_5alloc3vec13in_place_drop24InPlaceDstDataSrcBufDropTNtNtCsHUR1vrdMJt_3std4path7PathBufB1R_EB1R_EECsg5rknyf1sHS_18build_script_build, symObjAddr: 0xE60, symBinAddr: 0x100011F80, symSize: 0x20 }
  - { offset: 0x22149, size: 0x8, addend: 0x0, symName: __RINvNtCsieiGu2EXtoJ_4core3ptr13drop_in_placeINtNtNtCslJiobkLta79_5alloc3vec9into_iter8IntoIterNtNtCsHUR1vrdMJt_3std4path7PathBufEECsg5rknyf1sHS_18build_script_build, symObjAddr: 0xE80, symBinAddr: 0x100011FA0, symSize: 0x20 }
  - { offset: 0x22178, size: 0x8, addend: 0x0, symName: __RINvNtCsieiGu2EXtoJ_4core3ptr13drop_in_placeINtNtNtCslJiobkLta79_5alloc3vec9into_iter8IntoIterTNtNtCsHUR1vrdMJt_3std4path7PathBufB1v_EEECsg5rknyf1sHS_18build_script_build, symObjAddr: 0xEA0, symBinAddr: 0x100011FC0, symSize: 0x20 }
  - { offset: 0x221A7, size: 0x8, addend: 0x0, symName: __RINvNtCsieiGu2EXtoJ_4core3ptr13drop_in_placeINtNtNtNtB4_4iter8adapters3map3MapINtNtNtCslJiobkLta79_5alloc3vec9into_iter8IntoIterTNtNtCsHUR1vrdMJt_3std4path7PathBufB23_EENCNvCsg5rknyf1sHS_18build_script_build8asm_srcs0EEB2L_, symObjAddr: 0xEC0, symBinAddr: 0x100011FE0, symSize: 0x20 }
  - { offset: 0x221D6, size: 0x8, addend: 0x0, symName: __RINvNtCsieiGu2EXtoJ_4core3ptr13drop_in_placeINtNtNtNtB4_4iter8adapters6filter6FilterIBH_INtNtNtCslJiobkLta79_5alloc3vec9into_iter8IntoIterNtNtCsHUR1vrdMJt_3std4path7PathBufENCNvCsg5rknyf1sHS_18build_script_build12build_c_codes_0ENCB2N_s0_0EEB2P_, symObjAddr: 0xEE0, symBinAddr: 0x100012000, symSize: 0x20 }
  - { offset: 0x22205, size: 0x8, addend: 0x0, symName: __RINvNtCsieiGu2EXtoJ_4core3ptr13drop_in_placeINtNtNtNtB4_4iter8adapters6filter6FilterINtNtNtCslJiobkLta79_5alloc3vec9into_iter8IntoIterNtNtCsHUR1vrdMJt_3std4path7PathBufENCNvCsg5rknyf1sHS_18build_script_build12build_c_codes_0EEB2L_, symObjAddr: 0xF00, symBinAddr: 0x100012020, symSize: 0x20 }
  - { offset: 0x22234, size: 0x8, addend: 0x0, symName: __RINvNtCsieiGu2EXtoJ_4core3ptr13drop_in_placeINtNvXsd_NtNtCslJiobkLta79_5alloc3vec9into_iterINtBP_8IntoIterppENtNtNtB4_3ops4drop4Drop4drop9DropGuardNtNtCsHUR1vrdMJt_3std4path7PathBufNtNtBT_5alloc6GlobalEECsg5rknyf1sHS_18build_script_build, symObjAddr: 0xF20, symBinAddr: 0x100012040, symSize: 0x20 }
  - { offset: 0x22263, size: 0x8, addend: 0x0, symName: __RINvNtCsieiGu2EXtoJ_4core3ptr13drop_in_placeINtNvXsd_NtNtCslJiobkLta79_5alloc3vec9into_iterINtBP_8IntoIterppENtNtNtB4_3ops4drop4Drop4drop9DropGuardTNtNtCsHUR1vrdMJt_3std4path7PathBufB2m_ENtNtBT_5alloc6GlobalEECsg5rknyf1sHS_18build_script_build, symObjAddr: 0xF40, symBinAddr: 0x100012060, symSize: 0x20 }
  - { offset: 0x22292, size: 0x8, addend: 0x0, symName: __RINvNtCsieiGu2EXtoJ_4core3ptr13drop_in_placeNCINvMsi_NtCslJiobkLta79_5alloc3vecINtBP_3VecNtNtCsHUR1vrdMJt_3std4path7PathBufE14extend_trustedINtNtNtNtB4_4iter8adapters3map3MapINtNtNtB4_5slice4iter4IterB1p_ENCNvCsg5rknyf1sHS_18build_script_build12build_c_code0EE0EB3l_, symObjAddr: 0xF60, symBinAddr: 0x100012080, symSize: 0x20 }
  - { offset: 0x222C1, size: 0x8, addend: 0x0, symName: __RINvNtCsieiGu2EXtoJ_4core3ptr13drop_in_placeNCINvMsi_NtCslJiobkLta79_5alloc3vecINtBP_3VecNtNtCsHUR1vrdMJt_3std4path7PathBufE14extend_trustedINtNtNtNtB4_4iter8adapters3map3MapINtNtNtB4_5slice4iter4IterReENvYB1p_INtNtB4_7convert4FromRB3c_E4fromEE0ECsg5rknyf1sHS_18build_script_build, symObjAddr: 0xF80, symBinAddr: 0x1000120A0, symSize: 0x20 }
  - { offset: 0x222F0, size: 0x8, addend: 0x0, symName: __RINvNtCsieiGu2EXtoJ_4core3ptr13drop_in_placeNCINvNtNtNtB4_4iter8adapters3map8map_foldRNtNtCsHUR1vrdMJt_3std4path7PathBufB1m_uNCNvCsg5rknyf1sHS_18build_script_build12build_c_code0NCINvNvNtNtNtBP_6traits8iterator8Iterator8for_each4callB1m_NCINvMsi_NtCslJiobkLta79_5alloc3vecINtB3W_3VecB1m_E14extend_trustedINtBL_3MapINtNtNtB4_5slice4iter4IterB1m_EB1Z_EE0E0E0EB23_, symObjAddr: 0xFA0, symBinAddr: 0x1000120C0, symSize: 0x20 }
  - { offset: 0x2231F, size: 0x8, addend: 0x0, symName: __RINvNtCsieiGu2EXtoJ_4core3ptr13drop_in_placeNCINvNtNtNtB4_4iter8adapters3map8map_foldRReNtNtCsHUR1vrdMJt_3std4path7PathBufuNvYB1o_INtNtB4_7convert4FromB1l_E4fromNCINvNvNtNtNtBP_6traits8iterator8Iterator8for_each4callB1o_NCINvMsi_NtCslJiobkLta79_5alloc3vecINtB3F_3VecB1o_E14extend_trustedINtBL_3MapINtNtNtB4_5slice4iter4IterB1m_EB1X_EE0E0E0ECsg5rknyf1sHS_18build_script_build, symObjAddr: 0xFC0, symBinAddr: 0x1000120E0, symSize: 0x20 }
  - { offset: 0x2234E, size: 0x8, addend: 0x0, symName: __RINvNtCsieiGu2EXtoJ_4core3ptr13drop_in_placeNCINvNvNtNtNtNtB4_4iter6traits8iterator8Iterator8for_each4callNtNtCsHUR1vrdMJt_3std4path7PathBufNCINvMsi_NtCslJiobkLta79_5alloc3vecINtB2n_3VecB1G_E14extend_trustedINtNtNtBT_8adapters3map3MapINtNtNtB4_5slice4iter4IterB1G_ENCNvCsg5rknyf1sHS_18build_script_build12build_c_code0EE0E0EB4j_, symObjAddr: 0xFE0, symBinAddr: 0x100012100, symSize: 0x20 }
  - { offset: 0x2237D, size: 0x8, addend: 0x0, symName: __RINvNtCsieiGu2EXtoJ_4core3ptr13drop_in_placeNCINvNvNtNtNtNtB4_4iter6traits8iterator8Iterator8for_each4callNtNtCsHUR1vrdMJt_3std4path7PathBufNCINvMsi_NtCslJiobkLta79_5alloc3vecINtB2n_3VecB1G_E14extend_trustedINtNtNtBT_8adapters3map3MapINtNtNtB4_5slice4iter4IterReENvYB1G_INtNtB4_7convert4FromRB4a_E4fromEE0E0ECsg5rknyf1sHS_18build_script_build, symObjAddr: 0x1000, symBinAddr: 0x100012120, symSize: 0x20 }
  - { offset: 0x223AC, size: 0x8, addend: 0x0, symName: __RINvNtCsieiGu2EXtoJ_4core3ptr13drop_in_placeNtCsg5rknyf1sHS_18build_script_build6TargetEBI_, symObjAddr: 0x1020, symBinAddr: 0x100012140, symSize: 0x90 }
  - { offset: 0x223DB, size: 0x8, addend: 0x0, symName: __RINvNtCsieiGu2EXtoJ_4core3ptr13drop_in_placeNtNtCsHUR1vrdMJt_3std2fs7ReadDirECsg5rknyf1sHS_18build_script_build, symObjAddr: 0x10B0, symBinAddr: 0x1000121D0, symSize: 0x20 }
  - { offset: 0x2240A, size: 0x8, addend: 0x0, symName: __RINvNtCsieiGu2EXtoJ_4core3ptr13drop_in_placeNtNtCsHUR1vrdMJt_3std2fs8DirEntryECsg5rknyf1sHS_18build_script_build, symObjAddr: 0x10D0, symBinAddr: 0x1000121F0, symSize: 0x20 }
  - { offset: 0x22439, size: 0x8, addend: 0x0, symName: __RINvNtCsieiGu2EXtoJ_4core3ptr13drop_in_placeNtNtNtNtCsHUR1vrdMJt_3std3sys2fs4unix7ReadDirECsg5rknyf1sHS_18build_script_build, symObjAddr: 0x10F0, symBinAddr: 0x100012210, symSize: 0x20 }
  - { offset: 0x22468, size: 0x8, addend: 0x0, symName: __RINvNtCsieiGu2EXtoJ_4core3ptr13drop_in_placeNtNtNtNtCsHUR1vrdMJt_3std3sys2fs4unix8DirEntryECsg5rknyf1sHS_18build_script_build, symObjAddr: 0x1110, symBinAddr: 0x100012230, symSize: 0x20 }
  - { offset: 0x22497, size: 0x8, addend: 0x0, symName: __RINvNtCsieiGu2EXtoJ_4core3ptr13drop_in_placeSTNtNtCsHUR1vrdMJt_3std4path7PathBufBI_EECsg5rknyf1sHS_18build_script_build, symObjAddr: 0x1130, symBinAddr: 0x100012250, symSize: 0xA0 }
  - { offset: 0x224C6, size: 0x8, addend: 0x0, symName: __RINvNtCsieiGu2EXtoJ_4core3ptr13drop_in_placeTNtNtCsHUR1vrdMJt_3std4path7PathBufBH_EECsg5rknyf1sHS_18build_script_build, symObjAddr: 0x11D0, symBinAddr: 0x1000122F0, symSize: 0x60 }
  - { offset: 0x226AD, size: 0x8, addend: 0x0, symName: __RNvNvMNtNtCsieiGu2EXtoJ_4core3ptr9const_ptrPp20offset_from_unsigned18precondition_checkCsg5rknyf1sHS_18build_script_build, symObjAddr: 0x2190, symBinAddr: 0x1000132B0, symSize: 0xA0 }
  - { offset: 0x22A1F, size: 0x8, addend: 0x0, symName: __RNvNvNtCsieiGu2EXtoJ_4core3ptr19copy_nonoverlapping18precondition_checkCsg5rknyf1sHS_18build_script_build, symObjAddr: 0x2370, symBinAddr: 0x100013490, symSize: 0x4B0 }
  - { offset: 0x24750, size: 0x8, addend: 0x0, symName: __RNSNvYNCINvNtCsHUR1vrdMJt_3std2rt10lang_startuE0INtNtNtCsieiGu2EXtoJ_4core3ops8function6FnOnceuE9call_once6vtableCsg5rknyf1sHS_18build_script_build, symObjAddr: 0x1510, symBinAddr: 0x100012630, symSize: 0x20 }
  - { offset: 0x24794, size: 0x8, addend: 0x0, symName: __RNvYFEuINtNtNtCsieiGu2EXtoJ_4core3ops8function6FnOnceuE9call_onceCsg5rknyf1sHS_18build_script_build, symObjAddr: 0x3210, symBinAddr: 0x100014330, symSize: 0x20 }
  - { offset: 0x247D4, size: 0x8, addend: 0x0, symName: __RNvYNCINvNtCsHUR1vrdMJt_3std2rt10lang_startuE0INtNtNtCsieiGu2EXtoJ_4core3ops8function6FnOnceuE9call_onceCsg5rknyf1sHS_18build_script_build, symObjAddr: 0x3230, symBinAddr: 0x100014350, symSize: 0x40 }
  - { offset: 0x24818, size: 0x8, addend: 0x0, symName: __RNvYNvYReINtNtCsieiGu2EXtoJ_4core7convert4IntoINtNtCslJiobkLta79_5alloc4sync3ArceEE4intoINtNtNtBc_3ops8function6FnOnceTB5_EE9call_onceCsg5rknyf1sHS_18build_script_build, symObjAddr: 0x32D0, symBinAddr: 0x1000143F0, symSize: 0x30 }
  - { offset: 0x24867, size: 0x8, addend: 0x0, symName: __RNvXs1_NtNtNtCsieiGu2EXtoJ_4core3ops8function5implsQNCINvNvNtNtNtNtBb_4iter6traits8iterator8Iterator8for_each4callRNtNtCsHUR1vrdMJt_3std4path7PathBufNCINvCsg5rknyf1sHS_18build_script_build13build_libraryINtNtNtB11_8adapters5chain5ChainINtNtNtBb_5slice4iter4IterB1P_EB3L_EE0E0INtB7_5FnMutTuB1O_EE8call_mutB2s_, symObjAddr: 0x2CA0, symBinAddr: 0x100013DC0, symSize: 0x30 }
  - { offset: 0x248B9, size: 0x8, addend: 0x0, symName: __RNvYNvMs9_NtCsieiGu2EXtoJ_4core3numj11checked_addINtNtNtBa_3ops8function5FnMutTjjEE8call_mutCsg5rknyf1sHS_18build_script_build, symObjAddr: 0x3270, symBinAddr: 0x100014390, symSize: 0x30 }
  - { offset: 0x248FD, size: 0x8, addend: 0x0, symName: __RNvYNvYNtNtCsHUR1vrdMJt_3std4path7PathBufINtNtCsieiGu2EXtoJ_4core7convert4FromRReE4fromINtNtNtBI_3ops8function5FnMutTB1e_EE8call_mutCsg5rknyf1sHS_18build_script_build, symObjAddr: 0x32A0, symBinAddr: 0x1000143C0, symSize: 0x30 }
  - { offset: 0x24A49, size: 0x8, addend: 0x0, symName: __RNCINvNvNtNtNtNtCsieiGu2EXtoJ_4core4iter6traits8iterator8Iterator8for_each4callNtNtCsHUR1vrdMJt_3std4path7PathBufNCINvMsi_NtCslJiobkLta79_5alloc3vecINtB1W_3VecB1f_E14extend_trustedINtNtNtBc_8adapters3map3MapINtNtNtBe_5slice4iter4IterB1f_ENCNvCsg5rknyf1sHS_18build_script_build12build_c_code0EE0E0B3S_, symObjAddr: 0x1250, symBinAddr: 0x100012370, symSize: 0x40 }
  - { offset: 0x24AA2, size: 0x8, addend: 0x0, symName: __RNCINvNvNtNtNtNtCsieiGu2EXtoJ_4core4iter6traits8iterator8Iterator8for_each4callNtNtCsHUR1vrdMJt_3std4path7PathBufNCINvMsi_NtCslJiobkLta79_5alloc3vecINtB1W_3VecB1f_E14extend_trustedINtNtNtBc_8adapters3map3MapINtNtNtBe_5slice4iter4IterReENvYB1f_INtNtBe_7convert4FromRB3J_E4fromEE0E0Csg5rknyf1sHS_18build_script_build, symObjAddr: 0x1290, symBinAddr: 0x1000123B0, symSize: 0x40 }
  - { offset: 0x24AFB, size: 0x8, addend: 0x0, symName: __RNCINvNvNtNtNtNtCsieiGu2EXtoJ_4core4iter6traits8iterator8Iterator8for_each4callRNtNtCsHUR1vrdMJt_3std4path7PathBufNCINvCsg5rknyf1sHS_18build_script_build13build_libraryINtNtNtBc_8adapters5chain5ChainINtNtNtBe_5slice4iter4IterB1g_EB3b_EE0E0B1T_, symObjAddr: 0x12D0, symBinAddr: 0x1000123F0, symSize: 0x20 }
  - { offset: 0x24B9A, size: 0x8, addend: 0x0, symName: __RNvXNtNtNtCsieiGu2EXtoJ_4core4iter6traits7collectNtNtCsHUR1vrdMJt_3std2fs7ReadDirNtB2_12IntoIterator9into_iterCsg5rknyf1sHS_18build_script_build, symObjAddr: 0x29D0, symBinAddr: 0x100013AF0, symSize: 0x20 }
  - { offset: 0x24D1A, size: 0x8, addend: 0x0, symName: __RNvNvXs5_NtNtCsieiGu2EXtoJ_4core3str6traitsINtNtNtBb_3ops5range5RangejEINtNtNtBb_5slice5index10SliceIndexeE13get_unchecked18precondition_checkCsg5rknyf1sHS_18build_script_build, symObjAddr: 0x28E0, symBinAddr: 0x100013A00, symSize: 0xC0 }
  - { offset: 0x24D97, size: 0x8, addend: 0x0, symName: __RNvXs_NtNtCsieiGu2EXtoJ_4core3str6traitseNtNtB8_3cmp9PartialEq2eqCsg5rknyf1sHS_18build_script_build, symObjAddr: 0x3130, symBinAddr: 0x100014250, symSize: 0x90 }
  - { offset: 0x24F5E, size: 0x8, addend: 0x0, symName: __RNCNvMsp_NtNtCsieiGu2EXtoJ_4core3str4iterINtB7_20MatchIndicesInternalcE4next0Csg5rknyf1sHS_18build_script_build, symObjAddr: 0x12F0, symBinAddr: 0x100012410, symSize: 0xD0 }
  - { offset: 0x250D3, size: 0x8, addend: 0x0, symName: __RNvXs_NtCsieiGu2EXtoJ_4core3streINtNtB6_7convert5AsRefShE6as_refCsg5rknyf1sHS_18build_script_build, symObjAddr: 0x30A0, symBinAddr: 0x1000141C0, symSize: 0x20 }
  - { offset: 0x2520B, size: 0x8, addend: 0x0, symName: __RNvNvMNtNtCsieiGu2EXtoJ_4core5alloc6layoutNtB4_6Layout25from_size_align_unchecked18precondition_checkCsg5rknyf1sHS_18build_script_build, symObjAddr: 0x2230, symBinAddr: 0x100013350, symSize: 0xB0 }
  - { offset: 0x25293, size: 0x8, addend: 0x0, symName: __RNvXNtCsieiGu2EXtoJ_4core7convertRNtNtNtCsHUR1vrdMJt_3std3ffi6os_str5OsStrINtB2_5AsRefNtNtBC_4path4PathE6as_refCsg5rknyf1sHS_18build_script_build, symObjAddr: 0x29A0, symBinAddr: 0x100013AC0, symSize: 0x30 }
  - { offset: 0x252D9, size: 0x8, addend: 0x0, symName: __RNvXs1_NtCsieiGu2EXtoJ_4core7convertReINtB5_4IntoINtNtB7_6option6OptionBy_EE4intoCsg5rknyf1sHS_18build_script_build, symObjAddr: 0x2C30, symBinAddr: 0x100013D50, symSize: 0x20 }
  - { offset: 0x25377, size: 0x8, addend: 0x0, symName: __RNvNtNtCsieiGu2EXtoJ_4core4char7methods15encode_utf8_rawCsg5rknyf1sHS_18build_script_build, symObjAddr: 0x1E90, symBinAddr: 0x100012FB0, symSize: 0xE0 }
  - { offset: 0x25477, size: 0x8, addend: 0x0, symName: __RNvNtNtCsieiGu2EXtoJ_4core4char7methods25encode_utf8_raw_uncheckedCsg5rknyf1sHS_18build_script_build, symObjAddr: 0x1F70, symBinAddr: 0x100013090, symSize: 0x140 }
  - { offset: 0x257CA, size: 0x8, addend: 0x0, symName: __RNvNtNtCsieiGu2EXtoJ_4core5slice6memchr6memchrCsg5rknyf1sHS_18build_script_build, symObjAddr: 0x20B0, symBinAddr: 0x1000131D0, symSize: 0xE0 }
  - { offset: 0x2593A, size: 0x8, addend: 0x0, symName: __RNvXs_NtNtCsieiGu2EXtoJ_4core5slice4iterRSNtNtNtCsHUR1vrdMJt_3std3ffi6os_str8OsStringNtNtNtNtB8_4iter6traits7collect12IntoIterator9into_iterCsg5rknyf1sHS_18build_script_build, symObjAddr: 0x31C0, symBinAddr: 0x1000142E0, symSize: 0x50 }
  - { offset: 0x25A80, size: 0x8, addend: 0x0, symName: __RNvXs7_NtNtCsieiGu2EXtoJ_4core5slice5indexNtNtNtB9_3ops5range9RangeFullINtB5_10SliceIndexSNtNtCsHUR1vrdMJt_3std4path7PathBufE5indexCsg5rknyf1sHS_18build_script_build, symObjAddr: 0x2E20, symBinAddr: 0x100013F40, symSize: 0x20 }
  - { offset: 0x25DFE, size: 0x8, addend: 0x0, symName: __RNvNvNtCsieiGu2EXtoJ_4core9ub_checks23maybe_is_nonoverlapping7runtimeCsg5rknyf1sHS_18build_script_build, symObjAddr: 0x2820, symBinAddr: 0x100013940, symSize: 0xC0 }
  - { offset: 0x25FDA, size: 0x8, addend: 0x0, symName: __RNvXs0_NtCsieiGu2EXtoJ_4core6borrowRNtNtNtCsHUR1vrdMJt_3std3ffi6os_str5OsStrINtB5_6BorrowBy_E6borrowCsg5rknyf1sHS_18build_script_build, symObjAddr: 0x2A70, symBinAddr: 0x100013B90, symSize: 0x20 }
  - { offset: 0x2600F, size: 0x8, addend: 0x0, symName: __RNvXs0_NtCsieiGu2EXtoJ_4core6borrowReINtB5_6BorroweE6borrowCsg5rknyf1sHS_18build_script_build, symObjAddr: 0x2A90, symBinAddr: 0x100013BB0, symSize: 0x20 }
  - { offset: 0x2617D, size: 0x8, addend: 0x0, symName: __RNCNvNtCsg5rknyf1sHS_18build_script_build3env3var0B5_, symObjAddr: 0x13C0, symBinAddr: 0x1000124E0, symSize: 0x40 }
  - { offset: 0x261BC, size: 0x8, addend: 0x0, symName: __RNvNtCsg5rknyf1sHS_18build_script_build3env3var, symObjAddr: 0x1D30, symBinAddr: 0x100012E50, symSize: 0x40 }
  - { offset: 0x261E8, size: 0x8, addend: 0x0, symName: __RNvNtCsg5rknyf1sHS_18build_script_build3env6var_os, symObjAddr: 0x1D70, symBinAddr: 0x100012E90, symSize: 0x80 }
  - { offset: 0x26517, size: 0x8, addend: 0x0, symName: __RNSINvNtNtCslJiobkLta79_5alloc3vec16in_place_collect18from_iter_in_placeINtNtNtNtCsieiGu2EXtoJ_4core4iter8adapters3map3MapINtNtB6_9into_iter8IntoIterTNtNtCsHUR1vrdMJt_3std4path7PathBufB2o_EENCNvCsg5rknyf1sHS_18build_script_build8asm_srcs0EB2o_E5reifyB36_, symObjAddr: 0x14B0, symBinAddr: 0x1000125D0, symSize: 0x30 }
  - { offset: 0x26552, size: 0x8, addend: 0x0, symName: __RNSINvNtNtCslJiobkLta79_5alloc3vec16in_place_collect18from_iter_in_placeINtNtNtNtCsieiGu2EXtoJ_4core4iter8adapters6filter6FilterIB19_INtNtB6_9into_iter8IntoIterNtNtCsHUR1vrdMJt_3std4path7PathBufENCNvCsg5rknyf1sHS_18build_script_build12build_c_codes_0ENCB39_s0_0EB2y_E5reifyB3b_, symObjAddr: 0x14E0, symBinAddr: 0x100012600, symSize: 0x30 }
  - { offset: 0x26598, size: 0x8, addend: 0x0, symName: __RNvXs0_NtNtCslJiobkLta79_5alloc3vec13in_place_dropINtB5_24InPlaceDstDataSrcBufDropNtNtCsHUR1vrdMJt_3std4path7PathBufB1i_ENtNtNtCsieiGu2EXtoJ_4core3ops4drop4Drop4dropCsg5rknyf1sHS_18build_script_build, symObjAddr: 0x2AB0, symBinAddr: 0x100013BD0, symSize: 0xC0 }
  - { offset: 0x266EA, size: 0x8, addend: 0x0, symName: __RNvXs0_NtNtCslJiobkLta79_5alloc3vec13in_place_dropINtB5_24InPlaceDstDataSrcBufDropTNtNtCsHUR1vrdMJt_3std4path7PathBufB1j_EB1j_ENtNtNtCsieiGu2EXtoJ_4core3ops4drop4Drop4dropCsg5rknyf1sHS_18build_script_build, symObjAddr: 0x2B70, symBinAddr: 0x100013C90, symSize: 0xC0 }
  - { offset: 0x26BC8, size: 0x8, addend: 0x0, symName: __RNvXs_NtCslJiobkLta79_5alloc5allocNtB4_6GlobalNtNtCsieiGu2EXtoJ_4core5alloc9Allocator10deallocateCsg5rknyf1sHS_18build_script_build, symObjAddr: 0x30C0, symBinAddr: 0x1000141E0, symSize: 0x70 }
  - { offset: 0x26C91, size: 0x8, addend: 0x0, symName: __RNvNtCslJiobkLta79_5alloc5alloc15exchange_mallocCsg5rknyf1sHS_18build_script_build, symObjAddr: 0x1DF0, symBinAddr: 0x100012F10, symSize: 0xA0 }
  - { offset: 0x27287, size: 0x8, addend: 0x0, symName: __RNvXs6_NtCslJiobkLta79_5alloc5boxedINtB5_3BoxANtNtNtCsHUR1vrdMJt_3std3ffi6os_str8OsStringj2_ENtNtNtCsieiGu2EXtoJ_4core3ops4drop4Drop4dropCsg5rknyf1sHS_18build_script_build, symObjAddr: 0x2D70, symBinAddr: 0x100013E90, symSize: 0xB0 }
  - { offset: 0x273CE, size: 0x8, addend: 0x0, symName: __RINvMNtCslJiobkLta79_5alloc5sliceSNtNtNtCsHUR1vrdMJt_3std3ffi6os_str8OsString8into_vecNtNtB5_5alloc6GlobalECsg5rknyf1sHS_18build_script_build, symObjAddr: 0x50, symBinAddr: 0x100011170, symSize: 0x40 }
  - { offset: 0x27478, size: 0x8, addend: 0x0, symName: __RINvMNtCslJiobkLta79_5alloc5sliceSRNtNtNtCsHUR1vrdMJt_3std3ffi6os_str5OsStr4joinBw_ECsg5rknyf1sHS_18build_script_build, symObjAddr: 0x90, symBinAddr: 0x1000111B0, symSize: 0x30 }
  - { offset: 0x274C7, size: 0x8, addend: 0x0, symName: __RINvMNtCslJiobkLta79_5alloc5sliceSRe4joinBw_ECsg5rknyf1sHS_18build_script_build, symObjAddr: 0xC0, symBinAddr: 0x1000111E0, symSize: 0x30 }
  - { offset: 0x27AEA, size: 0x8, addend: 0x0, symName: __RINvMNtCsieiGu2EXtoJ_4core6resultINtB3_6ResultNtNtCsHUR1vrdMJt_3std7process10ExitStatusNtNtNtBM_2io5error5ErrorE14unwrap_or_elseNCNvCsg5rknyf1sHS_18build_script_build11run_command0EB26_, symObjAddr: 0x0, symBinAddr: 0x100011120, symSize: 0x50 }
  - { offset: 0x27C0B, size: 0x8, addend: 0x0, symName: __RINvMs0_NtNtCsHUR1vrdMJt_3std3ffi6os_strNtB6_8OsString4pushRNtB6_5OsStrECsg5rknyf1sHS_18build_script_build, symObjAddr: 0xF0, symBinAddr: 0x100011210, symSize: 0x50 }
  - { offset: 0x27CDE, size: 0x8, addend: 0x0, symName: __RINvMs2_NtCsHUR1vrdMJt_3std2fsNtB6_4File6createNtNtB8_4path7PathBufECsg5rknyf1sHS_18build_script_build, symObjAddr: 0x140, symBinAddr: 0x100011260, symSize: 0xD0 }
  - { offset: 0x282B4, size: 0x8, addend: 0x0, symName: __RINvMs3_CseYC8vFNOjrM_2ccNtB6_5Build4fileNtNtCsHUR1vrdMJt_3std4path7PathBufECsg5rknyf1sHS_18build_script_build, symObjAddr: 0x210, symBinAddr: 0x100011330, symSize: 0xC0 }
  - { offset: 0x282FD, size: 0x8, addend: 0x0, symName: __RINvMs3_CseYC8vFNOjrM_2ccNtB6_5Build4flagRReECsg5rknyf1sHS_18build_script_build, symObjAddr: 0x2D0, symBinAddr: 0x1000113F0, symSize: 0x90 }
  - { offset: 0x28338, size: 0x8, addend: 0x0, symName: __RINvMs3_CseYC8vFNOjrM_2ccNtB6_5Build4flagReECsg5rknyf1sHS_18build_script_build, symObjAddr: 0x360, symBinAddr: 0x100011480, symSize: 0xA0 }
  - { offset: 0x28373, size: 0x8, addend: 0x0, symName: __RINvMs3_CseYC8vFNOjrM_2ccNtB6_5Build6defineINtNtCsieiGu2EXtoJ_4core6option6OptionReEECsg5rknyf1sHS_18build_script_build, symObjAddr: 0x400, symBinAddr: 0x100011520, symSize: 0x180 }
  - { offset: 0x283BD, size: 0x8, addend: 0x0, symName: __RINvMs3_CseYC8vFNOjrM_2ccNtB6_5Build6defineReECsg5rknyf1sHS_18build_script_build, symObjAddr: 0x580, symBinAddr: 0x1000116A0, symSize: 0x180 }
  - { offset: 0x28414, size: 0x8, addend: 0x0, symName: __RINvMs3_CseYC8vFNOjrM_2ccNtB6_5Build6objectRNtNtCsHUR1vrdMJt_3std4path7PathBufECsg5rknyf1sHS_18build_script_build, symObjAddr: 0x700, symBinAddr: 0x100011820, symSize: 0x90 }
  - { offset: 0x2844F, size: 0x8, addend: 0x0, symName: __RINvMs3_CseYC8vFNOjrM_2ccNtB6_5Build7includeNtNtCsHUR1vrdMJt_3std4path7PathBufECsg5rknyf1sHS_18build_script_build, symObjAddr: 0x790, symBinAddr: 0x1000118B0, symSize: 0xB0 }
  - { offset: 0x284A9, size: 0x8, addend: 0x0, symName: __RINvMs3_CseYC8vFNOjrM_2ccNtB6_5Build7includeRNtNtCsHUR1vrdMJt_3std4path4PathECsg5rknyf1sHS_18build_script_build, symObjAddr: 0x840, symBinAddr: 0x100011960, symSize: 0xA0 }
  - { offset: 0x284E4, size: 0x8, addend: 0x0, symName: __RINvMs3_CseYC8vFNOjrM_2ccNtB6_5Build8compilerReECsg5rknyf1sHS_18build_script_build, symObjAddr: 0x8E0, symBinAddr: 0x100011A00, symSize: 0xE0 }
  - { offset: 0x2883D, size: 0x8, addend: 0x0, symName: __RNvMNtCsieiGu2EXtoJ_4core6resultINtB2_6ResultNtNtCsHUR1vrdMJt_3std2fs8MetadataNtNtNtBL_2io5error5ErrorE5is_okCsg5rknyf1sHS_18build_script_build, symObjAddr: 0x1530, symBinAddr: 0x100012650, symSize: 0x20 }
  - { offset: 0x28872, size: 0x8, addend: 0x0, symName: __RNvMNtCsieiGu2EXtoJ_4core6resultINtB2_6ResultNtNtCslJiobkLta79_5alloc6string6StringNtNtNtCsHUR1vrdMJt_3std3ffi6os_str8OsStringE2okCsg5rknyf1sHS_18build_script_build, symObjAddr: 0x1550, symBinAddr: 0x100012670, symSize: 0x90 }
  - { offset: 0x28A35, size: 0x8, addend: 0x0, symName: __RNvMNtCslJiobkLta79_5alloc5allocNtB2_6Global10alloc_implCsg5rknyf1sHS_18build_script_build, symObjAddr: 0x15E0, symBinAddr: 0x100012700, symSize: 0x290 }
  - { offset: 0x28E86, size: 0x8, addend: 0x0, symName: __RNvMs0_NtNtCsHUR1vrdMJt_3std3ffi6os_strNtB5_8OsString11into_stringCsg5rknyf1sHS_18build_script_build, symObjAddr: 0x1870, symBinAddr: 0x100012990, symSize: 0x230 }
  - { offset: 0x28FEF, size: 0x8, addend: 0x0, symName: __RNvMs1_NtNtCsieiGu2EXtoJ_4core3ptr8non_nullINtB5_7NonNullNtNtCsHUR1vrdMJt_3std4path7PathBufE20offset_from_unsignedCsg5rknyf1sHS_18build_script_build, symObjAddr: 0x1AA0, symBinAddr: 0x100012BC0, symSize: 0x70 }
  - { offset: 0x290F9, size: 0x8, addend: 0x0, symName: __RNvMs1_NtNtCsieiGu2EXtoJ_4core3ptr8non_nullINtB5_7NonNullReE20offset_from_unsignedCsg5rknyf1sHS_18build_script_build, symObjAddr: 0x1B10, symBinAddr: 0x100012C30, symSize: 0x60 }
  - { offset: 0x29221, size: 0x8, addend: 0x0, symName: __RNvMs1_NtNtCsieiGu2EXtoJ_4core3ptr8non_nullINtB5_7NonNullTNtNtCsHUR1vrdMJt_3std4path7PathBufBU_EE20offset_from_unsignedCsg5rknyf1sHS_18build_script_build, symObjAddr: 0x1B70, symBinAddr: 0x100012C90, symSize: 0x70 }
  - { offset: 0x29370, size: 0x8, addend: 0x0, symName: __RNvMs1_NtNtCsieiGu2EXtoJ_4core3ptr8non_nullINtB5_7NonNullTRSReBW_EE20offset_from_unsignedCsg5rknyf1sHS_18build_script_build, symObjAddr: 0x1BE0, symBinAddr: 0x100012D00, symSize: 0x60 }
  - { offset: 0x2949C, size: 0x8, addend: 0x0, symName: __RNvMsl_NtNtCsHUR1vrdMJt_3std3ffi6os_strNtB5_5OsStr12to_os_stringCsg5rknyf1sHS_18build_script_build, symObjAddr: 0x1C40, symBinAddr: 0x100012D60, symSize: 0x80 }
  - { offset: 0x29568, size: 0x8, addend: 0x0, symName: __RNvMsl_NtNtCsHUR1vrdMJt_3std3ffi6os_strNtB5_5OsStr6to_strCsg5rknyf1sHS_18build_script_build, symObjAddr: 0x1CC0, symBinAddr: 0x100012DE0, symSize: 0x70 }
  - { offset: 0x2A226, size: 0x8, addend: 0x0, symName: __RINvMNtCsieiGu2EXtoJ_4core6optionINtB3_6OptionNtNtNtCsHUR1vrdMJt_3std3ffi6os_str8OsStringE14unwrap_or_elseNCNvCsg5rknyf1sHS_18build_script_build11get_command0EB1K_, symObjAddr: 0x0, symBinAddr: 0x100014420, symSize: 0xA0 }
  - { offset: 0x2A25D, size: 0x8, addend: 0x0, symName: __RNCINvNtCsHUR1vrdMJt_3std2rt10lang_startuE0Csg5rknyf1sHS_18build_script_build, symObjAddr: 0xB40, symBinAddr: 0x100014F20, symSize: 0x30 }
  - { offset: 0x2A2C7, size: 0x8, addend: 0x0, symName: __RINvNtCsHUR1vrdMJt_3std2rt10lang_startuECsg5rknyf1sHS_18build_script_build, symObjAddr: 0x3C0, symBinAddr: 0x1000147E0, symSize: 0x3D }
  - { offset: 0x2A9DC, size: 0x8, addend: 0x0, symName: __RNvXsZ_NtCsHUR1vrdMJt_3std7processuNtB5_11Termination6reportCsg5rknyf1sHS_18build_script_build, symObjAddr: 0x2C50, symBinAddr: 0x100017020, symSize: 0x10 }
  - { offset: 0x2AE78, size: 0x8, addend: 0x0, symName: __RNvXs0_NtNtCslJiobkLta79_5alloc3vec16in_place_collectINtNtNtNtCsieiGu2EXtoJ_4core4iter8adapters3map3MapINtNtB7_9into_iter8IntoIterTNtNtCsHUR1vrdMJt_3std4path7PathBufB25_EENCNvCsg5rknyf1sHS_18build_script_build8asm_srcs0EINtB5_18SpecInPlaceCollectB25_BP_E16collect_in_placeB2N_, symObjAddr: 0x22C0, symBinAddr: 0x100016690, symSize: 0xD0 }
  - { offset: 0x2AFCE, size: 0x8, addend: 0x0, symName: __RNvXs0_NtNtCslJiobkLta79_5alloc3vec16in_place_collectINtNtNtNtCsieiGu2EXtoJ_4core4iter8adapters6filter6FilterIBQ_INtNtB7_9into_iter8IntoIterNtNtCsHUR1vrdMJt_3std4path7PathBufENCNvCsg5rknyf1sHS_18build_script_build12build_c_codes_0ENCB2P_s0_0EINtB5_18SpecInPlaceCollectB2e_BP_E16collect_in_placeB2R_, symObjAddr: 0x2390, symBinAddr: 0x100016760, symSize: 0xD0 }
  - { offset: 0x2B5DE, size: 0x8, addend: 0x0, symName: __RNvXs1_NtCslJiobkLta79_5alloc7raw_vecINtB5_6RawVecNtNtCsHUR1vrdMJt_3std4path7PathBufENtNtNtCsieiGu2EXtoJ_4core3ops4drop4Drop4dropCsg5rknyf1sHS_18build_script_build, symObjAddr: 0x2790, symBinAddr: 0x100016B60, symSize: 0x30 }
  - { offset: 0x2B61A, size: 0x8, addend: 0x0, symName: __RNvXs1_NtCslJiobkLta79_5alloc7raw_vecINtB5_6RawVecRNtNtNtCsHUR1vrdMJt_3std3ffi6os_str5OsStrENtNtNtCsieiGu2EXtoJ_4core3ops4drop4Drop4dropCsg5rknyf1sHS_18build_script_build, symObjAddr: 0x27C0, symBinAddr: 0x100016B90, symSize: 0x30 }
  - { offset: 0x2B656, size: 0x8, addend: 0x0, symName: __RNvXs1_NtCslJiobkLta79_5alloc7raw_vecINtB5_6RawVecTNtNtCsHUR1vrdMJt_3std4path7PathBufBN_EENtNtNtCsieiGu2EXtoJ_4core3ops4drop4Drop4dropCsg5rknyf1sHS_18build_script_build, symObjAddr: 0x27F0, symBinAddr: 0x100016BC0, symSize: 0x30 }
  - { offset: 0x2B9EB, size: 0x8, addend: 0x0, symName: __RNvXsA_NtCslJiobkLta79_5alloc4syncINtB5_3ArcNtNtNtNtCsHUR1vrdMJt_3std3sys2fs4unix12InnerReadDirENtNtNtCsieiGu2EXtoJ_4core3ops4drop4Drop4dropCsg5rknyf1sHS_18build_script_build, symObjAddr: 0x2B60, symBinAddr: 0x100016F30, symSize: 0x80 }
  - { offset: 0x2BD99, size: 0x8, addend: 0x0, symName: __RNvNtCslJiobkLta79_5alloc3fmt6formatCsg5rknyf1sHS_18build_script_build, symObjAddr: 0x18C0, symBinAddr: 0x100015C90, symSize: 0xC0 }
  - { offset: 0x2C90D, size: 0x8, addend: 0x0, symName: __RNvMs9_NtCsieiGu2EXtoJ_4core3numj11checked_addCsg5rknyf1sHS_18build_script_build, symObjAddr: 0x1770, symBinAddr: 0x100015B50, symSize: 0x70 }
  - { offset: 0x2C997, size: 0x8, addend: 0x0, symName: __RNvNvMs9_NtCsieiGu2EXtoJ_4core3numj13unchecked_add18precondition_checkCsg5rknyf1sHS_18build_script_build, symObjAddr: 0x1A20, symBinAddr: 0x100015DF0, symSize: 0xA0 }
  - { offset: 0x2CA55, size: 0x8, addend: 0x0, symName: __RNvNvMs9_NtCsieiGu2EXtoJ_4core3numj13unchecked_mul18precondition_checkCsg5rknyf1sHS_18build_script_build, symObjAddr: 0x1AC0, symBinAddr: 0x100015E90, symSize: 0xA0 }
  - { offset: 0x2CC12, size: 0x8, addend: 0x0, symName: __RINvNtCsieiGu2EXtoJ_4core9panicking13assert_failedRNtNtCslJiobkLta79_5alloc6string6StringBM_ECsg5rknyf1sHS_18build_script_build, symObjAddr: 0x3FD, symBinAddr: 0x10011196D, symSize: 0x43 }
  - { offset: 0x2D9A7, size: 0x8, addend: 0x0, symName: __RNvXs6_NtCsieiGu2EXtoJ_4core6optionINtB5_6OptionRNtCsg5rknyf1sHS_18build_script_build9AsmTargetENtNtNtNtB7_4iter6traits7collect12IntoIterator9into_iterBN_, symObjAddr: 0x2B10, symBinAddr: 0x100016EE0, symSize: 0x10 }
  - { offset: 0x2D9E4, size: 0x8, addend: 0x0, symName: __RNvXs9_NtCsieiGu2EXtoJ_4core6optionINtB5_6OptionReEINtNtB7_7convert4FromBK_E4fromCsg5rknyf1sHS_18build_script_build, symObjAddr: 0x2B20, symBinAddr: 0x100016EF0, symSize: 0x20 }
  - { offset: 0x2DA21, size: 0x8, addend: 0x0, symName: __RNvXsC_NtCsieiGu2EXtoJ_4core6optionINtB5_6OptionjENtNtNtB7_3ops9try_trait3Try11from_outputCsg5rknyf1sHS_18build_script_build, symObjAddr: 0x2BE0, symBinAddr: 0x100016FB0, symSize: 0x20 }
  - { offset: 0x2DA58, size: 0x8, addend: 0x0, symName: __RNvXsC_NtCsieiGu2EXtoJ_4core6optionINtB5_6OptionjENtNtNtB7_3ops9try_trait3Try6branchCsg5rknyf1sHS_18build_script_build, symObjAddr: 0x2C00, symBinAddr: 0x100016FD0, symSize: 0x40 }
  - { offset: 0x2DAE9, size: 0x8, addend: 0x0, symName: __RNvXsD_NtCsieiGu2EXtoJ_4core6optionINtB5_6OptionjEINtNtNtB7_3ops9try_trait12FromResidualIBy_NtNtB7_7convert10InfallibleEE13from_residualCsg5rknyf1sHS_18build_script_build, symObjAddr: 0x2C40, symBinAddr: 0x100017010, symSize: 0x10 }
  - { offset: 0x2DD58, size: 0x8, addend: 0x0, symName: __RNvXsw_NtCsieiGu2EXtoJ_4core6optionINtB5_8IntoIterRNtCsg5rknyf1sHS_18build_script_build9AsmTargetENtNtNtNtB7_4iter6traits8iterator8Iterator4nextBP_, symObjAddr: 0x3180, symBinAddr: 0x100017550, symSize: 0x20 }
  - { offset: 0x2E458, size: 0x8, addend: 0x0, symName: __RNCINvNtNtNtCsieiGu2EXtoJ_4core4iter8adapters3map8map_foldRNtNtCsHUR1vrdMJt_3std4path7PathBufBV_uNCNvCsg5rknyf1sHS_18build_script_build12build_c_code0NCINvNvNtNtNtB8_6traits8iterator8Iterator8for_each4callBV_NCINvMsi_NtCslJiobkLta79_5alloc3vecINtB3t_3VecBV_E14extend_trustedINtB4_3MapINtNtNtBa_5slice4iter4IterBV_EB1x_EE0E0E0B1B_, symObjAddr: 0xD40, symBinAddr: 0x100015120, symSize: 0x80 }
  - { offset: 0x2E4DD, size: 0x8, addend: 0x0, symName: __RNCINvNtNtNtCsieiGu2EXtoJ_4core4iter8adapters3map8map_foldRReNtNtCsHUR1vrdMJt_3std4path7PathBufuNvYBX_INtNtBa_7convert4FromBU_E4fromNCINvNvNtNtNtB8_6traits8iterator8Iterator8for_each4callBX_NCINvMsi_NtCslJiobkLta79_5alloc3vecINtB3b_3VecBX_E14extend_trustedINtB4_3MapINtNtNtBa_5slice4iter4IterBV_EB1w_EE0E0E0Csg5rknyf1sHS_18build_script_build, symObjAddr: 0xDC0, symBinAddr: 0x1000151A0, symSize: 0x80 }
  - { offset: 0x2E568, size: 0x8, addend: 0x0, symName: __RINvXs0_NtNtNtCsieiGu2EXtoJ_4core4iter8adapters3mapINtB6_3MapINtNtNtBc_5slice4iter4IterNtNtCsHUR1vrdMJt_3std4path7PathBufENCNvCsg5rknyf1sHS_18build_script_build12build_c_code0ENtNtNtBa_6traits8iterator8Iterator4folduNCINvNvB2O_8for_each4callB1n_NCINvMsi_NtCslJiobkLta79_5alloc3vecINtB44_3VecB1n_E14extend_trustedBN_E0E0EB20_, symObjAddr: 0x440, symBinAddr: 0x100014820, symSize: 0x60 }
  - { offset: 0x2E601, size: 0x8, addend: 0x0, symName: __RINvXs0_NtNtNtCsieiGu2EXtoJ_4core4iter8adapters3mapINtB6_3MapINtNtNtBc_5slice4iter4IterReENvYNtNtCsHUR1vrdMJt_3std4path7PathBufINtNtBc_7convert4FromRB1n_E4fromENtNtNtBa_6traits8iterator8Iterator4folduNCINvNvB2y_8for_each4callB1t_NCINvMsi_NtCslJiobkLta79_5alloc3vecINtB3O_3VecB1t_E14extend_trustedBN_E0E0ECsg5rknyf1sHS_18build_script_build, symObjAddr: 0x4A0, symBinAddr: 0x100014880, symSize: 0x40 }
  - { offset: 0x2E698, size: 0x8, addend: 0x0, symName: __RINvXs0_NtNtNtCsieiGu2EXtoJ_4core4iter8adapters3mapINtB6_3MapINtNtNtCslJiobkLta79_5alloc3vec9into_iter8IntoIterTNtNtCsHUR1vrdMJt_3std4path7PathBufB1M_EENCNvCsg5rknyf1sHS_18build_script_build8asm_srcs0ENtNtNtBa_6traits8iterator8Iterator8try_foldINtNtB12_13in_place_drop11InPlaceDropB1M_ENCINvNtB12_16in_place_collect24write_in_place_with_dropB1M_E0INtNtBc_6result6ResultB3U_zEEB2u_, symObjAddr: 0x4E0, symBinAddr: 0x1000148C0, symSize: 0x40 }
  - { offset: 0x2E716, size: 0x8, addend: 0x0, symName: __RNvXs0_NtNtNtCsieiGu2EXtoJ_4core4iter8adapters3mapINtB5_3MapINtNtB7_6filter6FilterINtNtNtBb_5slice4iter4IterNtNtCsHUR1vrdMJt_3std4path7PathBufENCNvCsg5rknyf1sHS_18build_script_build16perlasm_src_dsts0ENCB2j_s_0ENtNtNtB9_6traits8iterator8Iterator4nextB2l_, symObjAddr: 0x2460, symBinAddr: 0x100016830, symSize: 0xB0 }
  - { offset: 0x2E7C3, size: 0x8, addend: 0x0, symName: __RNvXs0_NtNtNtCsieiGu2EXtoJ_4core4iter8adapters3mapINtB5_3MapINtNtB7_6filter6FilterINtNtNtBb_5slice4iter4IterNtNtCsHUR1vrdMJt_3std4path7PathBufENCNvCsg5rknyf1sHS_18build_script_build16perlasm_src_dsts0ENCB2j_s_0ENtNtNtB9_6traits8iterator8Iterator9size_hintB2l_, symObjAddr: 0x2510, symBinAddr: 0x1000168E0, symSize: 0x30 }
  - { offset: 0x2E80A, size: 0x8, addend: 0x0, symName: __RNvXs0_NtNtNtCsieiGu2EXtoJ_4core4iter8adapters3mapINtB5_3MapINtNtB7_6filter6FilterINtNtNtBb_5slice4iter4IterTRSReB1L_EENCNvCsg5rknyf1sHS_18build_script_build16sources_for_arch0ENCB1V_s_0ENtNtNtB9_6traits8iterator8Iterator4nextB1X_, symObjAddr: 0x2540, symBinAddr: 0x100016910, symSize: 0xB0 }
  - { offset: 0x2E8B6, size: 0x8, addend: 0x0, symName: __RNvXs0_NtNtNtCsieiGu2EXtoJ_4core4iter8adapters3mapINtB5_3MapINtNtB7_6filter6FilterINtNtNtBb_5slice4iter4IterTRSReB1L_EENCNvCsg5rknyf1sHS_18build_script_build16sources_for_arch0ENCB1V_s_0ENtNtNtB9_6traits8iterator8Iterator9size_hintB1X_, symObjAddr: 0x25F0, symBinAddr: 0x1000169C0, symSize: 0x30 }
  - { offset: 0x2E8FD, size: 0x8, addend: 0x0, symName: __RNvXs0_NtNtNtCsieiGu2EXtoJ_4core4iter8adapters3mapINtB5_3MapINtNtNtBb_5slice4iter4IterNtNtCsHUR1vrdMJt_3std4path7PathBufENCNvCsg5rknyf1sHS_18build_script_build12build_c_code0ENtNtNtB9_6traits8iterator8Iterator9size_hintB1Z_, symObjAddr: 0x2620, symBinAddr: 0x1000169F0, symSize: 0x30 }
  - { offset: 0x2E944, size: 0x8, addend: 0x0, symName: __RNvXs0_NtNtNtCsieiGu2EXtoJ_4core4iter8adapters3mapINtB5_3MapINtNtNtBb_5slice4iter4IterReENvYNtNtCsHUR1vrdMJt_3std4path7PathBufINtNtBb_7convert4FromRB1m_E4fromENtNtNtB9_6traits8iterator8Iterator9size_hintCsg5rknyf1sHS_18build_script_build, symObjAddr: 0x2650, symBinAddr: 0x100016A20, symSize: 0x30 }
  - { offset: 0x2E98B, size: 0x8, addend: 0x0, symName: __RNvXs0_NtNtNtCsieiGu2EXtoJ_4core4iter8adapters3mapINtB5_3MapNtNtCsHUR1vrdMJt_3std4path10ComponentsNCNvCsg5rknyf1sHS_18build_script_build36join_components_with_forward_slashes0ENtNtNtB9_6traits8iterator8Iterator4nextB1C_, symObjAddr: 0x2680, symBinAddr: 0x100016A50, symSize: 0xC0 }
  - { offset: 0x2EA3A, size: 0x8, addend: 0x0, symName: __RNvXs0_NtNtNtCsieiGu2EXtoJ_4core4iter8adapters3mapINtB5_3MapNtNtCsHUR1vrdMJt_3std4path10ComponentsNCNvCsg5rknyf1sHS_18build_script_build36join_components_with_forward_slashes0ENtNtNtB9_6traits8iterator8Iterator9size_hintB1C_, symObjAddr: 0x2740, symBinAddr: 0x100016B10, symSize: 0x30 }
  - { offset: 0x2EB99, size: 0x8, addend: 0x0, symName: __RNCINvNtNtNtCsieiGu2EXtoJ_4core4iter8adapters3map12map_try_foldRRejjINtNtBa_6option6OptionjENCNCINvNtCslJiobkLta79_5alloc3str17join_generic_copyehB10_E00NvMs9_NtBa_3numj11checked_addE0Csg5rknyf1sHS_18build_script_build, symObjAddr: 0xB70, symBinAddr: 0x100014F50, symSize: 0x90 }
  - { offset: 0x2EC2B, size: 0x8, addend: 0x0, symName: __RNCINvNtNtNtCsieiGu2EXtoJ_4core4iter8adapters3map12map_try_foldTNtNtCsHUR1vrdMJt_3std4path7PathBufB10_EB10_INtNtNtCslJiobkLta79_5alloc3vec13in_place_drop11InPlaceDropB10_EINtNtBa_6result6ResultB1H_zENCNvCsg5rknyf1sHS_18build_script_build8asm_srcs0NCINvNtB1M_16in_place_collect24write_in_place_with_dropB10_E0E0B3f_, symObjAddr: 0xC00, symBinAddr: 0x100014FE0, symSize: 0x140 }
  - { offset: 0x2ECC4, size: 0x8, addend: 0x0, symName: __RNvXs9_NtNtNtCsieiGu2EXtoJ_4core4iter8adapters3mapINtB5_3MapINtNtNtCslJiobkLta79_5alloc3vec9into_iter8IntoIterTNtNtCsHUR1vrdMJt_3std4path7PathBufB1L_EENCNvCsg5rknyf1sHS_18build_script_build8asm_srcs0ENtB7_10SourceIter8as_innerB2t_, symObjAddr: 0x2B40, symBinAddr: 0x100016F10, symSize: 0x20 }
  - { offset: 0x2EDDA, size: 0x8, addend: 0x0, symName: __RINvXs1_NtNtNtCsieiGu2EXtoJ_4core4iter8adapters6filterINtB6_6FilterIBR_INtNtNtCslJiobkLta79_5alloc3vec9into_iter8IntoIterNtNtCsHUR1vrdMJt_3std4path7PathBufENCNvCsg5rknyf1sHS_18build_script_build12build_c_codes_0ENCB2w_s0_0ENtNtNtBa_6traits8iterator8Iterator8try_foldINtNtB1c_13in_place_drop11InPlaceDropB1V_ENCINvNtB1c_16in_place_collect24write_in_place_with_dropB1V_E0INtNtBc_6result6ResultB4g_zEEB2y_, symObjAddr: 0x520, symBinAddr: 0x100014900, symSize: 0x40 }
  - { offset: 0x2EE4F, size: 0x8, addend: 0x0, symName: __RINvXs1_NtNtNtCsieiGu2EXtoJ_4core4iter8adapters6filterINtB6_6FilterINtNtNtCslJiobkLta79_5alloc3vec9into_iter8IntoIterNtNtCsHUR1vrdMJt_3std4path7PathBufENCNvCsg5rknyf1sHS_18build_script_build12build_c_codes_0ENtNtNtBa_6traits8iterator8Iterator8try_foldINtNtB18_13in_place_drop11InPlaceDropB1R_ENCINvB6_15filter_try_foldB1R_B41_INtNtBc_6result6ResultB41_zENCB2s_s0_0NCINvNtB18_16in_place_collect24write_in_place_with_dropB1R_E0E0B5e_EB2u_, symObjAddr: 0x560, symBinAddr: 0x100014940, symSize: 0x50 }
  - { offset: 0x2EEE9, size: 0x8, addend: 0x0, symName: __RNvXs1_NtNtNtCsieiGu2EXtoJ_4core4iter8adapters6filterINtB5_6FilterINtNtNtBb_5slice4iter4IterNtNtCsHUR1vrdMJt_3std4path7PathBufENCNvCsg5rknyf1sHS_18build_script_build16perlasm_src_dsts0ENtNtNtB9_6traits8iterator8Iterator4nextB25_, symObjAddr: 0x2820, symBinAddr: 0x100016BF0, symSize: 0x20 }
  - { offset: 0x2EF27, size: 0x8, addend: 0x0, symName: __RNvXs1_NtNtNtCsieiGu2EXtoJ_4core4iter8adapters6filterINtB5_6FilterINtNtNtBb_5slice4iter4IterNtNtCsHUR1vrdMJt_3std4path7PathBufENCNvCsg5rknyf1sHS_18build_script_build16perlasm_src_dsts0ENtNtNtB9_6traits8iterator8Iterator9size_hintB25_, symObjAddr: 0x2840, symBinAddr: 0x100016C10, symSize: 0x50 }
  - { offset: 0x2EF82, size: 0x8, addend: 0x0, symName: __RNvXs1_NtNtNtCsieiGu2EXtoJ_4core4iter8adapters6filterINtB5_6FilterINtNtNtBb_5slice4iter4IterTRSReB1v_EENCNvCsg5rknyf1sHS_18build_script_build16sources_for_arch0ENtNtNtB9_6traits8iterator8Iterator4nextB1H_, symObjAddr: 0x2890, symBinAddr: 0x100016C60, symSize: 0x20 }
  - { offset: 0x2EFC0, size: 0x8, addend: 0x0, symName: __RNvXs1_NtNtNtCsieiGu2EXtoJ_4core4iter8adapters6filterINtB5_6FilterINtNtNtBb_5slice4iter4IterTRSReB1v_EENCNvCsg5rknyf1sHS_18build_script_build16sources_for_arch0ENtNtNtB9_6traits8iterator8Iterator9size_hintB1H_, symObjAddr: 0x28B0, symBinAddr: 0x100016C80, symSize: 0x50 }
  - { offset: 0x2F0B1, size: 0x8, addend: 0x0, symName: __RNCINvNtNtNtCsieiGu2EXtoJ_4core4iter8adapters6filter15filter_try_foldNtNtCsHUR1vrdMJt_3std4path7PathBufINtNtNtCslJiobkLta79_5alloc3vec13in_place_drop11InPlaceDropB15_EINtNtBa_6result6ResultB1D_zENCNvCsg5rknyf1sHS_18build_script_build12build_c_codes0_0NCINvNtB1I_16in_place_collect24write_in_place_with_dropB15_E0E0B3b_, symObjAddr: 0xE40, symBinAddr: 0x100015220, symSize: 0x1A0 }
  - { offset: 0x2F13C, size: 0x8, addend: 0x0, symName: __RNCINvNtNtNtCsieiGu2EXtoJ_4core4iter8adapters6filter15filter_try_foldNtNtCsHUR1vrdMJt_3std4path7PathBufINtNtNtCslJiobkLta79_5alloc3vec13in_place_drop11InPlaceDropB15_EINtNtBa_6result6ResultB1D_zENCNvCsg5rknyf1sHS_18build_script_build12build_c_codes_0NCIB2_B15_B1D_B2F_NCB39_s0_0NCINvNtB1I_16in_place_collect24write_in_place_with_dropB15_E0E0E0B3b_, symObjAddr: 0xFE0, symBinAddr: 0x1000153C0, symSize: 0x1A0 }
  - { offset: 0x2F2C5, size: 0x8, addend: 0x0, symName: __RNvXs5_NtNtNtCsieiGu2EXtoJ_4core4iter8adapters6filterINtB5_6FilterIBQ_INtNtNtCslJiobkLta79_5alloc3vec9into_iter8IntoIterNtNtCsHUR1vrdMJt_3std4path7PathBufENCNvCsg5rknyf1sHS_18build_script_build12build_c_codes_0ENCB2v_s0_0ENtB7_10SourceIter8as_innerB2x_, symObjAddr: 0x2AD0, symBinAddr: 0x100016EA0, symSize: 0x20 }
  - { offset: 0x2F303, size: 0x8, addend: 0x0, symName: __RNvXs5_NtNtNtCsieiGu2EXtoJ_4core4iter8adapters6filterINtB5_6FilterINtNtNtCslJiobkLta79_5alloc3vec9into_iter8IntoIterNtNtCsHUR1vrdMJt_3std4path7PathBufENCNvCsg5rknyf1sHS_18build_script_build12build_c_codes_0ENtB7_10SourceIter8as_innerB2t_, symObjAddr: 0x2AF0, symBinAddr: 0x100016EC0, symSize: 0x20 }
  - { offset: 0x2F34D, size: 0x8, addend: 0x0, symName: __RINvXs_NtNtNtCsieiGu2EXtoJ_4core4iter8adapters5chainINtB5_5ChainINtNtNtBb_5slice4iter4IterNtNtCsHUR1vrdMJt_3std4path7PathBufEB10_ENtNtNtB9_6traits8iterator8Iterator4folduNCINvNvB24_8for_each4callRB1q_NCINvCsg5rknyf1sHS_18build_script_build13build_libraryBO_E0E0EB3h_, symObjAddr: 0x5B0, symBinAddr: 0x100014990, symSize: 0x120 }
  - { offset: 0x2F503, size: 0x8, addend: 0x0, symName: __RINvYINtNtNtNtCsieiGu2EXtoJ_4core4iter8adapters3map3MapINtNtB8_6filter6FilterINtNtNtBc_5slice4iter4IterNtNtCsHUR1vrdMJt_3std4path7PathBufENCNvCsg5rknyf1sHS_18build_script_build16perlasm_src_dsts0ENCB2e_s_0ENtNtNtBa_6traits8iterator8Iterator7collectINtNtCslJiobkLta79_5alloc3vec3VecTB1D_B1D_EEEB2g_, symObjAddr: 0x6D0, symBinAddr: 0x100014AB0, symSize: 0x80 }
  - { offset: 0x2F599, size: 0x8, addend: 0x0, symName: __RINvYINtNtNtNtCsieiGu2EXtoJ_4core4iter8adapters3map3MapINtNtB8_6filter6FilterINtNtNtBc_5slice4iter4IterTRSReB1G_EENCNvCsg5rknyf1sHS_18build_script_build16sources_for_arch0ENCB1Q_s_0ENtNtNtBa_6traits8iterator8Iterator7collectINtNtCslJiobkLta79_5alloc3vec3VecNtNtCsHUR1vrdMJt_3std4path7PathBufEEB1S_, symObjAddr: 0x750, symBinAddr: 0x100014B30, symSize: 0x70 }
  - { offset: 0x2F62F, size: 0x8, addend: 0x0, symName: __RINvYINtNtNtNtCsieiGu2EXtoJ_4core4iter8adapters3map3MapINtNtNtBc_5slice4iter4IterNtNtCsHUR1vrdMJt_3std4path7PathBufENCNvCsg5rknyf1sHS_18build_script_build12build_c_code0ENtNtNtBa_6traits8iterator8Iterator7collectINtNtCslJiobkLta79_5alloc3vec3VecB1h_EEB1U_, symObjAddr: 0x7C0, symBinAddr: 0x100014BA0, symSize: 0x70 }
  - { offset: 0x2F6C5, size: 0x8, addend: 0x0, symName: __RINvYINtNtNtNtCsieiGu2EXtoJ_4core4iter8adapters3map3MapINtNtNtBc_5slice4iter4IterNtNtCsHUR1vrdMJt_3std4path7PathBufENCNvCsg5rknyf1sHS_18build_script_build12build_c_code0ENtNtNtBa_6traits8iterator8Iterator8for_eachNCINvMsi_NtCslJiobkLta79_5alloc3vecINtB3y_3VecB1h_E14extend_trustedB3_E0EB1U_, symObjAddr: 0x830, symBinAddr: 0x100014C10, symSize: 0x30 }
  - { offset: 0x2F730, size: 0x8, addend: 0x0, symName: __RINvYINtNtNtNtCsieiGu2EXtoJ_4core4iter8adapters3map3MapINtNtNtBc_5slice4iter4IterReENvYNtNtCsHUR1vrdMJt_3std4path7PathBufINtNtBc_7convert4FromRB1h_E4fromENtNtNtBa_6traits8iterator8Iterator7collectINtNtCslJiobkLta79_5alloc3vec3VecB1n_EECsg5rknyf1sHS_18build_script_build, symObjAddr: 0x860, symBinAddr: 0x100014C40, symSize: 0x60 }
  - { offset: 0x2F7C5, size: 0x8, addend: 0x0, symName: __RINvYINtNtNtNtCsieiGu2EXtoJ_4core4iter8adapters3map3MapINtNtNtBc_5slice4iter4IterReENvYNtNtCsHUR1vrdMJt_3std4path7PathBufINtNtBc_7convert4FromRB1h_E4fromENtNtNtBa_6traits8iterator8Iterator8for_eachNCINvMsi_NtCslJiobkLta79_5alloc3vecINtB3i_3VecB1n_E14extend_trustedB3_E0ECsg5rknyf1sHS_18build_script_build, symObjAddr: 0x8C0, symBinAddr: 0x100014CA0, symSize: 0x40 }
  - { offset: 0x2F82F, size: 0x8, addend: 0x0, symName: __RINvYINtNtNtNtCsieiGu2EXtoJ_4core4iter8adapters3map3MapINtNtNtCslJiobkLta79_5alloc3vec9into_iter8IntoIterTNtNtCsHUR1vrdMJt_3std4path7PathBufB1G_EENCNvCsg5rknyf1sHS_18build_script_build8asm_srcs0ENtNtNtBa_6traits8iterator8Iterator7collectINtBW_3VecB1G_EEB2o_, symObjAddr: 0x900, symBinAddr: 0x100014CE0, symSize: 0x70 }
  - { offset: 0x2F8C5, size: 0x8, addend: 0x0, symName: __RINvYINtNtNtNtCsieiGu2EXtoJ_4core4iter8adapters3map3MapNtNtCsHUR1vrdMJt_3std4path10ComponentsNCNvCsg5rknyf1sHS_18build_script_build36join_components_with_forward_slashes0ENtNtNtBa_6traits8iterator8Iterator7collectINtNtCslJiobkLta79_5alloc3vec3VecRNtNtNtBV_3ffi6os_str5OsStrEEB1x_, symObjAddr: 0x970, symBinAddr: 0x100014D50, symSize: 0xA0 }
  - { offset: 0x2F95B, size: 0x8, addend: 0x0, symName: __RINvYINtNtNtNtCsieiGu2EXtoJ_4core4iter8adapters5chain5ChainINtNtNtBc_5slice4iter4IterNtNtCsHUR1vrdMJt_3std4path7PathBufEBV_ENtNtNtBa_6traits8iterator8Iterator8for_eachNCINvCsg5rknyf1sHS_18build_script_build13build_libraryB3_E0EB2K_, symObjAddr: 0xA10, symBinAddr: 0x100014DF0, symSize: 0x30 }
  - { offset: 0x2F9C6, size: 0x8, addend: 0x0, symName: __RINvYINtNtNtNtCsieiGu2EXtoJ_4core4iter8adapters6filter6FilterIB4_INtNtNtCslJiobkLta79_5alloc3vec9into_iter8IntoIterNtNtCsHUR1vrdMJt_3std4path7PathBufENCNvCsg5rknyf1sHS_18build_script_build12build_c_codes_0ENCB2q_s0_0ENtNtNtBa_6traits8iterator8Iterator7collectINtB16_3VecB1P_EEB2s_, symObjAddr: 0xA40, symBinAddr: 0x100014E20, symSize: 0x80 }
  - { offset: 0x2FA5C, size: 0x8, addend: 0x0, symName: __RINvYINtNtNtNtCsieiGu2EXtoJ_4core4iter8adapters6filter6FilterINtNtNtBc_5slice4iter4IterNtNtCsHUR1vrdMJt_3std4path7PathBufENCNvCsg5rknyf1sHS_18build_script_build16perlasm_src_dsts0ENtNtNtBa_6traits8iterator8Iterator3mapTB1n_B1n_ENCB1Y_s_0EB20_, symObjAddr: 0xAC0, symBinAddr: 0x100014EA0, symSize: 0x30 }
  - { offset: 0x2FACA, size: 0x8, addend: 0x0, symName: __RINvYINtNtNtNtCsieiGu2EXtoJ_4core4iter8adapters6filter6FilterINtNtNtBc_5slice4iter4IterTRSReB1q_EENCNvCsg5rknyf1sHS_18build_script_build16sources_for_arch0ENtNtNtBa_6traits8iterator8Iterator3mapNtNtCsHUR1vrdMJt_3std4path7PathBufNCB1A_s_0EB1C_, symObjAddr: 0xAF0, symBinAddr: 0x100014ED0, symSize: 0x20 }
  - { offset: 0x2FB37, size: 0x8, addend: 0x0, symName: __RINvYINtNtNtNtCsieiGu2EXtoJ_4core4iter8adapters6filter6FilterINtNtNtCslJiobkLta79_5alloc3vec9into_iter8IntoIterNtNtCsHUR1vrdMJt_3std4path7PathBufENCNvCsg5rknyf1sHS_18build_script_build12build_c_codes_0ENtNtNtBa_6traits8iterator8Iterator6filterNCB2m_s0_0EB2o_, symObjAddr: 0xB10, symBinAddr: 0x100014EF0, symSize: 0x30 }
  - { offset: 0x2FBA7, size: 0x8, addend: 0x0, symName: __RNvXNtNtNtCsieiGu2EXtoJ_4core4iter6traits7collectINtNtB8_6option8IntoIterRNtCsg5rknyf1sHS_18build_script_build9AsmTargetENtB2_12IntoIterator9into_iterB1c_, symObjAddr: 0x2180, symBinAddr: 0x100016550, symSize: 0x10 }
  - { offset: 0x2FBDE, size: 0x8, addend: 0x0, symName: __RNvXNtNtNtCsieiGu2EXtoJ_4core4iter6traits7collectINtNtNtB6_8adapters3map3MapINtNtBQ_6filter6FilterINtNtNtB8_5slice4iter4IterNtNtCsHUR1vrdMJt_3std4path7PathBufENCNvCsg5rknyf1sHS_18build_script_build16perlasm_src_dsts0ENCB2z_s_0ENtB2_12IntoIterator9into_iterB2B_, symObjAddr: 0x2190, symBinAddr: 0x100016560, symSize: 0x30 }
  - { offset: 0x2FC16, size: 0x8, addend: 0x0, symName: __RNvXNtNtNtCsieiGu2EXtoJ_4core4iter6traits7collectINtNtNtB6_8adapters3map3MapINtNtBQ_6filter6FilterINtNtNtB8_5slice4iter4IterTRSReB21_EENCNvCsg5rknyf1sHS_18build_script_build16sources_for_arch0ENCB2b_s_0ENtB2_12IntoIterator9into_iterB2d_, symObjAddr: 0x21C0, symBinAddr: 0x100016590, symSize: 0x20 }
  - { offset: 0x2FC4D, size: 0x8, addend: 0x0, symName: __RNvXNtNtNtCsieiGu2EXtoJ_4core4iter6traits7collectINtNtNtB6_8adapters3map3MapINtNtNtB8_5slice4iter4IterNtNtCsHUR1vrdMJt_3std4path7PathBufENCNvCsg5rknyf1sHS_18build_script_build12build_c_code0ENtB2_12IntoIterator9into_iterB2f_, symObjAddr: 0x21E0, symBinAddr: 0x1000165B0, symSize: 0x30 }
  - { offset: 0x2FC84, size: 0x8, addend: 0x0, symName: __RNvXNtNtNtCsieiGu2EXtoJ_4core4iter6traits7collectINtNtNtB6_8adapters3map3MapINtNtNtB8_5slice4iter4IterReENvYNtNtCsHUR1vrdMJt_3std4path7PathBufINtNtB8_7convert4FromRB1C_E4fromENtB2_12IntoIterator9into_iterCsg5rknyf1sHS_18build_script_build, symObjAddr: 0x2210, symBinAddr: 0x1000165E0, symSize: 0x20 }
  - { offset: 0x2FCBB, size: 0x8, addend: 0x0, symName: __RNvXNtNtNtCsieiGu2EXtoJ_4core4iter6traits7collectINtNtNtB6_8adapters3map3MapINtNtNtCslJiobkLta79_5alloc3vec9into_iter8IntoIterTNtNtCsHUR1vrdMJt_3std4path7PathBufB21_EENCNvCsg5rknyf1sHS_18build_script_build8asm_srcs0ENtB2_12IntoIterator9into_iterB2J_, symObjAddr: 0x2230, symBinAddr: 0x100016600, symSize: 0x30 }
  - { offset: 0x2FCF2, size: 0x8, addend: 0x0, symName: __RNvXNtNtNtCsieiGu2EXtoJ_4core4iter6traits7collectINtNtNtB6_8adapters3map3MapNtNtCsHUR1vrdMJt_3std4path10ComponentsNCNvCsg5rknyf1sHS_18build_script_build36join_components_with_forward_slashes0ENtB2_12IntoIterator9into_iterB1S_, symObjAddr: 0x2260, symBinAddr: 0x100016630, symSize: 0x30 }
  - { offset: 0x2FD2A, size: 0x8, addend: 0x0, symName: __RNvXNtNtNtCsieiGu2EXtoJ_4core4iter6traits7collectINtNtNtB6_8adapters6filter6FilterIBM_INtNtNtCslJiobkLta79_5alloc3vec9into_iter8IntoIterNtNtCsHUR1vrdMJt_3std4path7PathBufENCNvCsg5rknyf1sHS_18build_script_build12build_c_codes_0ENCB2L_s0_0ENtB2_12IntoIterator9into_iterB2N_, symObjAddr: 0x2290, symBinAddr: 0x100016660, symSize: 0x30 }
  - { offset: 0x303E2, size: 0x8, addend: 0x0, symName: __RNCNvXsf_NtNtCsieiGu2EXtoJ_4core5slice3cmpNtNtCsHUR1vrdMJt_3std4path7PathBufNtB7_13SliceContains14slice_contains0Csg5rknyf1sHS_18build_script_build, symObjAddr: 0x1180, symBinAddr: 0x100015560, symSize: 0x30 }
  - { offset: 0x30432, size: 0x8, addend: 0x0, symName: __RNvXs3_NtNtCsieiGu2EXtoJ_4core5slice3cmpShINtB5_14SlicePartialEqhE5equalCsg5rknyf1sHS_18build_script_build, symObjAddr: 0x2A60, symBinAddr: 0x100016E30, symSize: 0x70 }
  - { offset: 0x30593, size: 0x8, addend: 0x0, symName: __RNvMNtCsieiGu2EXtoJ_4core5sliceSINtNtNtB4_3mem12maybe_uninit11MaybeUninithE15copy_from_sliceCsg5rknyf1sHS_18build_script_build, symObjAddr: 0x11B0, symBinAddr: 0x100015590, symSize: 0xA0 }
  - { offset: 0x3065E, size: 0x8, addend: 0x0, symName: __RNvMNtCsieiGu2EXtoJ_4core5sliceSINtNtNtB4_3mem12maybe_uninit11MaybeUninithE22split_at_mut_uncheckedCsg5rknyf1sHS_18build_script_build, symObjAddr: 0x1250, symBinAddr: 0x100015630, symSize: 0x110 }
  - { offset: 0x307B2, size: 0x8, addend: 0x0, symName: __RNvMNtCsieiGu2EXtoJ_4core5sliceSRe8is_emptyCsg5rknyf1sHS_18build_script_build, symObjAddr: 0x1360, symBinAddr: 0x100015740, symSize: 0x20 }
  - { offset: 0x307E7, size: 0x8, addend: 0x0, symName: __RNvMNtCsieiGu2EXtoJ_4core5sliceSTRSReBx_E4iterCsg5rknyf1sHS_18build_script_build, symObjAddr: 0x1380, symBinAddr: 0x100015760, symSize: 0x20 }
  - { offset: 0x30823, size: 0x8, addend: 0x0, symName: __RNvNvMNtCsieiGu2EXtoJ_4core5sliceSp22split_at_mut_unchecked18precondition_checkCsg5rknyf1sHS_18build_script_build, symObjAddr: 0x1980, symBinAddr: 0x100015D50, symSize: 0xA0 }
  - { offset: 0x3098E, size: 0x8, addend: 0x0, symName: __RNvNvNtNtCsieiGu2EXtoJ_4core5slice3raw14from_raw_parts18precondition_checkCsg5rknyf1sHS_18build_script_build, symObjAddr: 0x1B60, symBinAddr: 0x100015F30, symSize: 0x260 }
  - { offset: 0x30B5C, size: 0x8, addend: 0x0, symName: __RNvNvNtNtCsieiGu2EXtoJ_4core5slice3raw18from_raw_parts_mut18precondition_checkCsg5rknyf1sHS_18build_script_build, symObjAddr: 0x1DC0, symBinAddr: 0x100016190, symSize: 0x260 }
  - { offset: 0x30D35, size: 0x8, addend: 0x0, symName: __RNvNvXs0_NtNtCsieiGu2EXtoJ_4core5slice5indexjINtB7_10SliceIndexSpE13get_unchecked18precondition_checkCsg5rknyf1sHS_18build_script_build, symObjAddr: 0x2020, symBinAddr: 0x1000163F0, symSize: 0xA0 }
  - { offset: 0x30DD9, size: 0x8, addend: 0x0, symName: __RNvNvXs2_NtNtCsieiGu2EXtoJ_4core5slice5indexINtNtNtBb_3ops5range5RangejEINtB7_10SliceIndexSpE17get_unchecked_mut18precondition_checkCsg5rknyf1sHS_18build_script_build, symObjAddr: 0x20C0, symBinAddr: 0x100016490, symSize: 0xC0 }
  - { offset: 0x3124B, size: 0x8, addend: 0x0, symName: __RNvXs1_NtCsieiGu2EXtoJ_4core7convertINtNtB7_6option6OptionReEINtB5_4IntoBy_E4intoCsg5rknyf1sHS_18build_script_build, symObjAddr: 0x2770, symBinAddr: 0x100016B40, symSize: 0x20 }
  - { offset: 0x3151C, size: 0x8, addend: 0x0, symName: __RNvXs2_NtNtCsieiGu2EXtoJ_4core3str7patterncNtB5_7Pattern13into_searcherCsg5rknyf1sHS_18build_script_build, symObjAddr: 0x2900, symBinAddr: 0x100016CD0, symSize: 0x120 }
  - { offset: 0x31637, size: 0x8, addend: 0x0, symName: __RNvXs2_NtNtCsieiGu2EXtoJ_4core3str7patterncNtB5_7Pattern15as_utf8_patternCsg5rknyf1sHS_18build_script_build, symObjAddr: 0x2A20, symBinAddr: 0x100016DF0, symSize: 0x40 }
  - { offset: 0x316D2, size: 0x8, addend: 0x0, symName: __RNvXs_NtNtCsieiGu2EXtoJ_4core3str7patternNtB4_12CharSearcherNtB4_8Searcher10next_matchCsg5rknyf1sHS_18build_script_build, symObjAddr: 0x2C60, symBinAddr: 0x100017030, symSize: 0x4A0 }
  - { offset: 0x31C77, size: 0x8, addend: 0x0, symName: __RNvXs_NtNtCsieiGu2EXtoJ_4core3str7patternNtB4_12CharSearcherNtB4_8Searcher8haystackCsg5rknyf1sHS_18build_script_build, symObjAddr: 0x3100, symBinAddr: 0x1000174D0, symSize: 0x20 }
  - { offset: 0x31D50, size: 0x8, addend: 0x0, symName: __RNvXsb_NtCsieiGu2EXtoJ_4core5arrayRARej3_NtNtNtNtB7_4iter6traits7collect12IntoIterator9into_iterCsg5rknyf1sHS_18build_script_build, symObjAddr: 0x3120, symBinAddr: 0x1000174F0, symSize: 0x60 }
  - { offset: 0x32557, size: 0x8, addend: 0x0, symName: __RINvMNtCsieiGu2EXtoJ_4core6optionINtB3_6OptionNtNtNtCsHUR1vrdMJt_3std3ffi6os_str8OsStringE14unwrap_or_elseNCNvCsg5rknyf1sHS_18build_script_build11get_command0EB1K_, symObjAddr: 0x0, symBinAddr: 0x100014420, symSize: 0xA0 }
  - { offset: 0x325BA, size: 0x8, addend: 0x0, symName: __RINvMNtCsieiGu2EXtoJ_4core6optionINtB3_6OptionNtNtNtCsHUR1vrdMJt_3std3ffi6os_str8OsStringE8and_thenNtNtCslJiobkLta79_5alloc6string6StringNCNvNtCsg5rknyf1sHS_18build_script_build3env3var0EB2h_, symObjAddr: 0xA0, symBinAddr: 0x1000144C0, symSize: 0xA0 }
  - { offset: 0x3264D, size: 0x8, addend: 0x0, symName: __RINvMNtCsieiGu2EXtoJ_4core6optionINtB3_6OptionRNtNtNtCsHUR1vrdMJt_3std3ffi6os_str5OsStrE8and_thenReNCINvCsg5rknyf1sHS_18build_script_build13build_libraryINtNtNtNtB5_4iter8adapters5chain5ChainINtNtNtB5_5slice4iter4IterNtNtBP_4path7PathBufEB33_EEs0_0EB1E_, symObjAddr: 0x140, symBinAddr: 0x100014560, symSize: 0x60 }
  - { offset: 0x326B8, size: 0x8, addend: 0x0, symName: __RINvMNtCsieiGu2EXtoJ_4core6optionINtB3_6OptionRNtNtNtCsHUR1vrdMJt_3std3ffi6os_str5OsStrE8and_thenReNCNCNvCsg5rknyf1sHS_18build_script_build21emit_rerun_if_changed00EB1F_, symObjAddr: 0x1A0, symBinAddr: 0x1000145C0, symSize: 0x60 }
  - { offset: 0x32762, size: 0x8, addend: 0x0, symName: __RINvMNtCsieiGu2EXtoJ_4core6optionINtB3_6OptionReE3mapINtNtCslJiobkLta79_5alloc4sync3ArceENvYBI_INtNtB5_7convert4IntoBP_E4intoECsg5rknyf1sHS_18build_script_build, symObjAddr: 0x200, symBinAddr: 0x100014620, symSize: 0x60 }
  - { offset: 0x3292E, size: 0x8, addend: 0x0, symName: __RINvMsk_NtCsHUR1vrdMJt_3std7processNtB6_7Command3argNtNtB8_4path7PathBufECsg5rknyf1sHS_18build_script_build, symObjAddr: 0x260, symBinAddr: 0x100014680, symSize: 0x80 }
  - { offset: 0x3299E, size: 0x8, addend: 0x0, symName: __RINvMsk_NtCsHUR1vrdMJt_3std7processNtB6_7Command4argsRSNtNtNtB8_3ffi6os_str8OsStringRBR_ECsg5rknyf1sHS_18build_script_build, symObjAddr: 0x2E0, symBinAddr: 0x100014700, symSize: 0xE0 }
  - { offset: 0x3329E, size: 0x8, addend: 0x0, symName: __RNvMNtCsieiGu2EXtoJ_4core6optionINtB2_6OptionNtNtNtCsHUR1vrdMJt_3std3ffi6os_str8OsStringE6expectCsg5rknyf1sHS_18build_script_build, symObjAddr: 0x13A0, symBinAddr: 0x100015780, symSize: 0x90 }
  - { offset: 0x33387, size: 0x8, addend: 0x0, symName: __RNvMNtCsieiGu2EXtoJ_4core6optionINtB2_6OptionNtNtNtCsHUR1vrdMJt_3std3ffi6os_str8OsStringE8as_derefCsg5rknyf1sHS_18build_script_build, symObjAddr: 0x1430, symBinAddr: 0x100015810, symSize: 0x80 }
  - { offset: 0x33430, size: 0x8, addend: 0x0, symName: __RNvMNtCsieiGu2EXtoJ_4core6optionINtB2_6OptionRNtNtNtCsHUR1vrdMJt_3std3ffi6os_str5OsStrE6expectCsg5rknyf1sHS_18build_script_build, symObjAddr: 0x14B0, symBinAddr: 0x100015890, symSize: 0x70 }
  - { offset: 0x3346B, size: 0x8, addend: 0x0, symName: __RNvMNtCsieiGu2EXtoJ_4core6optionINtB2_6OptionReE6expectCsg5rknyf1sHS_18build_script_build, symObjAddr: 0x1520, symBinAddr: 0x100015900, symSize: 0x70 }
  - { offset: 0x334B3, size: 0x8, addend: 0x0, symName: __RNvMNtCsieiGu2EXtoJ_4core6optionINtB2_6OptionReE7is_someCsg5rknyf1sHS_18build_script_build, symObjAddr: 0x1590, symBinAddr: 0x100015970, symSize: 0x30 }
  - { offset: 0x33531, size: 0x8, addend: 0x0, symName: __RNvMs0_NtCslJiobkLta79_5alloc7raw_vecINtB5_6RawVecINtNtB7_4sync3ArcNtNtCsHUR1vrdMJt_3std4path4PathEE8grow_oneCsg5rknyf1sHS_18build_script_build, symObjAddr: 0x15C0, symBinAddr: 0x1000159A0, symSize: 0x90 }
  - { offset: 0x335E3, size: 0x8, addend: 0x0, symName: __RNvMs0_NtCslJiobkLta79_5alloc7raw_vecINtB5_6RawVecTINtNtB7_4sync3ArceEINtNtCsieiGu2EXtoJ_4core6option6OptionBN_EEE8grow_oneCsg5rknyf1sHS_18build_script_build, symObjAddr: 0x1650, symBinAddr: 0x100015A30, symSize: 0x90 }
  - { offset: 0x336B3, size: 0x8, addend: 0x0, symName: __RNvMs0_NtCslJiobkLta79_5alloc7raw_vecINtB5_6RawVecTNtNtCsHUR1vrdMJt_3std4path7PathBufBN_EE8grow_oneCsg5rknyf1sHS_18build_script_build, symObjAddr: 0x16E0, symBinAddr: 0x100015AC0, symSize: 0x90 }
  - { offset: 0x337EB, size: 0x8, addend: 0x0, symName: __RNvMsI_NtCsHUR1vrdMJt_3std7processNtB5_10ExitStatus7successCsg5rknyf1sHS_18build_script_build, symObjAddr: 0x17E0, symBinAddr: 0x100015BC0, symSize: 0x60 }
  - { offset: 0x338C6, size: 0x8, addend: 0x0, symName: __RNvMs_NtNtCsieiGu2EXtoJ_4core3fmt2rtNtB6_9Arguments16new_v1_formattedCsg5rknyf1sHS_18build_script_build, symObjAddr: 0x1840, symBinAddr: 0x100015C20, symSize: 0x50 }
  - { offset: 0x33904, size: 0x8, addend: 0x0, symName: __RNvMsv_NtCsHUR1vrdMJt_3std7processNtB5_5Stdio7inheritCsg5rknyf1sHS_18build_script_build, symObjAddr: 0x1890, symBinAddr: 0x100015C70, symSize: 0x20 }
  - { offset: 0x34132, size: 0x8, addend: 0x0, symName: __RINvMCseYC8vFNOjrM_2ccNtB3_5Error3newNtNtCslJiobkLta79_5alloc6string6StringEB3_, symObjAddr: 0x0, symBinAddr: 0x1000175E0, symSize: 0x70 }
  - { offset: 0x365CF, size: 0x8, addend: 0x0, symName: __RNvXs_NtNtCsieiGu2EXtoJ_4core5slice4iterRSNtCseYC8vFNOjrM_2cc6ObjectNtNtNtNtB8_4iter6traits7collect12IntoIterator9into_iterBG_, symObjAddr: 0x220D0, symBinAddr: 0x100037900, symSize: 0x50 }
  - { offset: 0x368B4, size: 0x8, addend: 0x0, symName: __RNvMNtCsieiGu2EXtoJ_4core5sliceSNtCseYC8vFNOjrM_2cc6Object4iterBw_, symObjAddr: 0x68E0, symBinAddr: 0x10001DCE0, symSize: 0x20 }
  - { offset: 0x36AAC, size: 0x8, addend: 0x0, symName: __RINvXs3_NtNtCsieiGu2EXtoJ_4core4hash5implsRNtCseYC8vFNOjrM_2cc12CompilerFlagNtB8_4Hash4hashNtNtNtCsHUR1vrdMJt_3std4hash6random13DefaultHasherEBH_, symObjAddr: 0x8D0, symBinAddr: 0x100017EB0, symSize: 0x20 }
  - { offset: 0x36C86, size: 0x8, addend: 0x0, symName: __RNvXNtCsieiGu2EXtoJ_4core6borrowNtCseYC8vFNOjrM_2cc12CompilerFlagINtB2_6BorrowBu_E6borrowBw_, symObjAddr: 0x21E30, symBinAddr: 0x100037690, symSize: 0x10 }
  - { offset: 0x36CD1, size: 0x8, addend: 0x0, symName: __RNvXs1_NtNtNtCsieiGu2EXtoJ_4core3ops8function5implsQNCNvMs4_CseYC8vFNOjrM_2ccNtBW_5Build25get_base_archiver_variants1_0INtB7_5FnMutTRReEE8call_mutBW_, symObjAddr: 0x21F50, symBinAddr: 0x1000377B0, symSize: 0x30 }
  - { offset: 0x36D20, size: 0x8, addend: 0x0, symName: __RNvXs1_NtNtNtCsieiGu2EXtoJ_4core3ops8function5implsQNCNvMs4_CseYC8vFNOjrM_2ccNtBW_5Build27getenv_with_target_prefixes0INtB7_5FnMutTRNtNtCslJiobkLta79_5alloc6string6StringEE8call_mutBW_, symObjAddr: 0x21F80, symBinAddr: 0x1000377E0, symSize: 0x30 }
  - { offset: 0x37128, size: 0x8, addend: 0x0, symName: __RNvCseYC8vFNOjrM_2cc32NEW_STANDALONE_ANDROID_COMPILERS, symObjAddr: 0x247C0, symBinAddr: 0x100156FE0, symSize: 0x0 }
  - { offset: 0x37253, size: 0x8, addend: 0x0, symName: __RNCNvMs4_CseYC8vFNOjrM_2ccNtB7_5Build15compile_objects0B7_, symObjAddr: 0x13E0, symBinAddr: 0x100018830, symSize: 0x40 }
  - { offset: 0x372B3, size: 0x8, addend: 0x0, symName: __RNvXNvMs4_CseYC8vFNOjrM_2ccNtB8_5Build25find_msvc_tools_find_toolNtB2_14BuildEnvGetterNtNtCsj2uhnLB4L8S_15find_msvc_tools10find_tools9EnvGetter7get_env, symObjAddr: 0x21E40, symBinAddr: 0x1000376A0, symSize: 0x60 }
  - { offset: 0x37301, size: 0x8, addend: 0x0, symName: __RNCNCNCNvMs4_CseYC8vFNOjrM_2ccNtBb_5Build11try_compiles_000Bb_, symObjAddr: 0x930, symBinAddr: 0x100017F10, symSize: 0x50 }
  - { offset: 0x37341, size: 0x8, addend: 0x0, symName: __RNCNCNvMs4_CseYC8vFNOjrM_2ccNtB9_5Build11try_compiles_00B9_, symObjAddr: 0x9C0, symBinAddr: 0x100017FA0, symSize: 0xA0 }
  - { offset: 0x373A0, size: 0x8, addend: 0x0, symName: __RNCNvMs4_CseYC8vFNOjrM_2ccNtB7_5Build11try_compile0B7_, symObjAddr: 0x1330, symBinAddr: 0x100018780, symSize: 0x60 }
  - { offset: 0x373EB, size: 0x8, addend: 0x0, symName: __RNCNvMs4_CseYC8vFNOjrM_2ccNtB7_5Build11try_compiles_0B7_, symObjAddr: 0x1390, symBinAddr: 0x1000187E0, symSize: 0x50 }
  - { offset: 0x3744F, size: 0x8, addend: 0x0, symName: __RNCNCNvMs4_CseYC8vFNOjrM_2ccNtB9_5Build17prefix_for_targets_00B9_, symObjAddr: 0xA60, symBinAddr: 0x100018040, symSize: 0x120 }
  - { offset: 0x37491, size: 0x8, addend: 0x0, symName: __RNCNvMs4_CseYC8vFNOjrM_2ccNtB7_5Build17prefix_for_target0B7_, symObjAddr: 0x1C10, symBinAddr: 0x100019060, symSize: 0xB0 }
  - { offset: 0x374CA, size: 0x8, addend: 0x0, symName: __RNCNvMs4_CseYC8vFNOjrM_2ccNtB7_5Build17prefix_for_targets0_0B7_, symObjAddr: 0x1CC0, symBinAddr: 0x100019110, symSize: 0x1AF0 }
  - { offset: 0x3750D, size: 0x8, addend: 0x0, symName: __RNCNvMs4_CseYC8vFNOjrM_2ccNtB7_5Build17prefix_for_targets_0B7_, symObjAddr: 0x37B0, symBinAddr: 0x10001AC00, symSize: 0x50 }
  - { offset: 0x3754F, size: 0x8, addend: 0x0, symName: __RNCNCNvMs4_CseYC8vFNOjrM_2ccNtB9_5Build20apple_sdk_root_inner00B9_, symObjAddr: 0xB80, symBinAddr: 0x100018160, symSize: 0x40 }
  - { offset: 0x37590, size: 0x8, addend: 0x0, symName: __RNCNvMs4_CseYC8vFNOjrM_2ccNtB7_5Build20apple_sdk_root_inner0B7_, symObjAddr: 0x3800, symBinAddr: 0x10001AC50, symSize: 0xC0 }
  - { offset: 0x37605, size: 0x8, addend: 0x0, symName: __RNCNCNvMs4_CseYC8vFNOjrM_2ccNtB9_5Build23apple_deployment_targets0_00B9_, symObjAddr: 0xBC0, symBinAddr: 0x1000181A0, symSize: 0x70 }
  - { offset: 0x3764B, size: 0x8, addend: 0x0, symName: __RNCNCNvMs4_CseYC8vFNOjrM_2ccNtB9_5Build23apple_deployment_targets_00B9_, symObjAddr: 0xC30, symBinAddr: 0x100018210, symSize: 0x60 }
  - { offset: 0x3769D, size: 0x8, addend: 0x0, symName: __RNCNCNvMs4_CseYC8vFNOjrM_2ccNtB9_5Build23apple_deployment_targets_0s0_0B9_, symObjAddr: 0xC90, symBinAddr: 0x100018270, symSize: 0x30 }
  - { offset: 0x376E0, size: 0x8, addend: 0x0, symName: __RNCNCNvMs4_CseYC8vFNOjrM_2ccNtB9_5Build23apple_deployment_targets_0s_0B9_, symObjAddr: 0xCC0, symBinAddr: 0x1000182A0, symSize: 0x20 }
  - { offset: 0x3771D, size: 0x8, addend: 0x0, symName: __RNCNvMs4_CseYC8vFNOjrM_2ccNtB7_5Build23apple_deployment_target0B7_, symObjAddr: 0x3960, symBinAddr: 0x10001ADB0, symSize: 0x380 }
  - { offset: 0x377C4, size: 0x8, addend: 0x0, symName: __RNCNvMs4_CseYC8vFNOjrM_2ccNtB7_5Build23apple_deployment_targets0_0B7_, symObjAddr: 0x3CE0, symBinAddr: 0x10001B130, symSize: 0x3E0 }
  - { offset: 0x378B0, size: 0x8, addend: 0x0, symName: __RNCNvMs4_CseYC8vFNOjrM_2ccNtB7_5Build23apple_deployment_targets1_0B7_, symObjAddr: 0x40C0, symBinAddr: 0x10001B510, symSize: 0x130 }
  - { offset: 0x37909, size: 0x8, addend: 0x0, symName: __RNCNvMs4_CseYC8vFNOjrM_2ccNtB7_5Build23apple_deployment_targets2_0B7_, symObjAddr: 0x41F0, symBinAddr: 0x10001B640, symSize: 0x30 }
  - { offset: 0x37933, size: 0x8, addend: 0x0, symName: __RNCNvMs4_CseYC8vFNOjrM_2ccNtB7_5Build23apple_deployment_targets3_0B7_, symObjAddr: 0x4220, symBinAddr: 0x10001B670, symSize: 0x30 }
  - { offset: 0x3795D, size: 0x8, addend: 0x0, symName: __RNCNvMs4_CseYC8vFNOjrM_2ccNtB7_5Build23apple_deployment_targets4_0B7_, symObjAddr: 0x4250, symBinAddr: 0x10001B6A0, symSize: 0x30 }
  - { offset: 0x37987, size: 0x8, addend: 0x0, symName: __RNCNvMs4_CseYC8vFNOjrM_2ccNtB7_5Build23apple_deployment_targets5_0B7_, symObjAddr: 0x4280, symBinAddr: 0x10001B6D0, symSize: 0x30 }
  - { offset: 0x379B1, size: 0x8, addend: 0x0, symName: __RNCNvMs4_CseYC8vFNOjrM_2ccNtB7_5Build23apple_deployment_targets_0B7_, symObjAddr: 0x42B0, symBinAddr: 0x10001B700, symSize: 0x1A0 }
  - { offset: 0x37AA4, size: 0x8, addend: 0x0, symName: __RNCNCNvMs4_CseYC8vFNOjrM_2ccNtB9_5Build23find_working_gnu_prefix00B9_, symObjAddr: 0xCE0, symBinAddr: 0x1000182C0, symSize: 0x310 }
  - { offset: 0x37BA8, size: 0x8, addend: 0x0, symName: __RNCNvMs4_CseYC8vFNOjrM_2ccNtB7_5Build23find_working_gnu_prefix0B7_, symObjAddr: 0x4450, symBinAddr: 0x10001B8A0, symSize: 0x50 }
  - { offset: 0x37C10, size: 0x8, addend: 0x0, symName: __RNCNvMs4_CseYC8vFNOjrM_2ccNtB7_5Build23find_working_gnu_prefixs_0B7_, symObjAddr: 0x44A0, symBinAddr: 0x10001B8F0, symSize: 0x40 }
  - { offset: 0x37C4B, size: 0x8, addend: 0x0, symName: __RNCNCNvMs4_CseYC8vFNOjrM_2ccNtB9_5Build25get_base_archiver_variants_00B9_, symObjAddr: 0xFF0, symBinAddr: 0x1000185D0, symSize: 0x30 }
  - { offset: 0x37C8C, size: 0x8, addend: 0x0, symName: __RNCNvMs4_CseYC8vFNOjrM_2ccNtB7_5Build25get_base_archiver_variant0B7_, symObjAddr: 0x4540, symBinAddr: 0x10001B990, symSize: 0x200 }
  - { offset: 0x37D2B, size: 0x8, addend: 0x0, symName: __RNCNvMs4_CseYC8vFNOjrM_2ccNtB7_5Build25get_base_archiver_variants0_0B7_, symObjAddr: 0x4740, symBinAddr: 0x10001BB90, symSize: 0x160 }
  - { offset: 0x37D84, size: 0x8, addend: 0x0, symName: __RNCNvMs4_CseYC8vFNOjrM_2ccNtB7_5Build25get_base_archiver_variants1_0B7_, symObjAddr: 0x48A0, symBinAddr: 0x10001BCF0, symSize: 0x3A0 }
  - { offset: 0x37EA0, size: 0x8, addend: 0x0, symName: __RNCNvMs4_CseYC8vFNOjrM_2ccNtB7_5Build25get_base_archiver_variants2_0B7_, symObjAddr: 0x4C40, symBinAddr: 0x10001C090, symSize: 0x40 }
  - { offset: 0x37ED0, size: 0x8, addend: 0x0, symName: __RNCNvMs4_CseYC8vFNOjrM_2ccNtB7_5Build25get_base_archiver_variants_0B7_, symObjAddr: 0x4C80, symBinAddr: 0x10001C0D0, symSize: 0x550 }
  - { offset: 0x3802C, size: 0x8, addend: 0x0, symName: __RNCNCNvMs4_CseYC8vFNOjrM_2ccNtB9_5Build5which00B9_, symObjAddr: 0x1020, symBinAddr: 0x100018600, symSize: 0xB0 }
  - { offset: 0x3806F, size: 0x8, addend: 0x0, symName: __RNCNvMs4_CseYC8vFNOjrM_2ccNtB7_5Build5which0B7_, symObjAddr: 0x5270, symBinAddr: 0x10001C670, symSize: 0x70 }
  - { offset: 0x380AF, size: 0x8, addend: 0x0, symName: __RNCNvMs4_CseYC8vFNOjrM_2ccNtB7_5Build5whichs_0B7_, symObjAddr: 0x52E0, symBinAddr: 0x10001C6E0, symSize: 0x100 }
  - { offset: 0x3814C, size: 0x8, addend: 0x0, symName: __RNCNCNvMs4_CseYC8vFNOjrM_2ccNtB9_5Build8assembles_00B9_, symObjAddr: 0x10D0, symBinAddr: 0x1000186B0, symSize: 0x10 }
  - { offset: 0x38185, size: 0x8, addend: 0x0, symName: __RNCNvMs4_CseYC8vFNOjrM_2ccNtB7_5Build8assemble0B7_, symObjAddr: 0x54A0, symBinAddr: 0x10001C8A0, symSize: 0x40 }
  - { offset: 0x381BE, size: 0x8, addend: 0x0, symName: __RNCNvMs4_CseYC8vFNOjrM_2ccNtB7_5Build8assembles_0B7_, symObjAddr: 0x54E0, symBinAddr: 0x10001C8E0, symSize: 0x90 }
  - { offset: 0x38219, size: 0x8, addend: 0x0, symName: __RNCNvMs4_CseYC8vFNOjrM_2ccNtB7_5Build11get_out_dir0B7_, symObjAddr: 0x12F0, symBinAddr: 0x100018740, symSize: 0x40 }
  - { offset: 0x38250, size: 0x8, addend: 0x0, symName: __RNCNvMs4_CseYC8vFNOjrM_2ccNtB7_5Build15cuda_file_count0B7_, symObjAddr: 0x1420, symBinAddr: 0x100018870, symSize: 0x70 }
  - { offset: 0x38296, size: 0x8, addend: 0x0, symName: __RNCNvMs4_CseYC8vFNOjrM_2ccNtB7_5Build17get_base_compiler0B7_, symObjAddr: 0x1490, symBinAddr: 0x1000188E0, symSize: 0x500 }
  - { offset: 0x3837A, size: 0x8, addend: 0x0, symName: __RNCNvMs4_CseYC8vFNOjrM_2ccNtB7_5Build17get_base_compilers0_0B7_, symObjAddr: 0x1990, symBinAddr: 0x100018DE0, symSize: 0x30 }
  - { offset: 0x383AA, size: 0x8, addend: 0x0, symName: __RNCNvMs4_CseYC8vFNOjrM_2ccNtB7_5Build17get_base_compilers_0B7_, symObjAddr: 0x19C0, symBinAddr: 0x100018E10, symSize: 0x1A0 }
  - { offset: 0x38419, size: 0x8, addend: 0x0, symName: __RNCNvMs4_CseYC8vFNOjrM_2ccNtB7_5Build17getenv_unwrap_str0B7_, symObjAddr: 0x1B60, symBinAddr: 0x100018FB0, symSize: 0xB0 }
  - { offset: 0x3848C, size: 0x8, addend: 0x0, symName: __RNCNvMs4_CseYC8vFNOjrM_2ccNtB7_5Build20find_msvc_tools_find0B7_, symObjAddr: 0x38C0, symBinAddr: 0x10001AD10, symSize: 0x60 }
  - { offset: 0x384D3, size: 0x8, addend: 0x0, symName: __RNCNvMs4_CseYC8vFNOjrM_2ccNtB7_5Build20msvc_macro_assembler0B7_, symObjAddr: 0x3920, symBinAddr: 0x10001AD70, symSize: 0x40 }
  - { offset: 0x3851C, size: 0x8, addend: 0x0, symName: __RNCNvMs4_CseYC8vFNOjrM_2ccNtB7_5Build23get_force_frame_pointer0B7_, symObjAddr: 0x44E0, symBinAddr: 0x10001B930, symSize: 0x30 }
  - { offset: 0x38552, size: 0x8, addend: 0x0, symName: __RNCNvMs4_CseYC8vFNOjrM_2ccNtB7_5Build23get_shell_escaped_flags0B7_, symObjAddr: 0x4510, symBinAddr: 0x10001B960, symSize: 0x30 }
  - { offset: 0x38588, size: 0x8, addend: 0x0, symName: __RNCNvMs4_CseYC8vFNOjrM_2ccNtB7_5Build27getenv_with_target_prefixes0B7_, symObjAddr: 0x5220, symBinAddr: 0x10001C620, symSize: 0x50 }
  - { offset: 0x385E1, size: 0x8, addend: 0x0, symName: __RNCNvMs4_CseYC8vFNOjrM_2ccNtB7_5Build6getenv0B7_, symObjAddr: 0x53E0, symBinAddr: 0x10001C7E0, symSize: 0x50 }
  - { offset: 0x38633, size: 0x8, addend: 0x0, symName: __RNCNvMs4_CseYC8vFNOjrM_2ccNtB7_5Build6getenvs0_0B7_, symObjAddr: 0x5430, symBinAddr: 0x10001C830, symSize: 0x40 }
  - { offset: 0x38663, size: 0x8, addend: 0x0, symName: __RNCNvMs4_CseYC8vFNOjrM_2ccNtB7_5Build6getenvs_0B7_, symObjAddr: 0x5470, symBinAddr: 0x10001C870, symSize: 0x30 }
  - { offset: 0x386AE, size: 0x8, addend: 0x0, symName: __RNvNvMs4_CseYC8vFNOjrM_2ccNtB7_5Build6getenv17provided_by_cargo, symObjAddr: 0x21BE0, symBinAddr: 0x100037440, symSize: 0x200 }
  - { offset: 0x38717, size: 0x8, addend: 0x0, symName: __RNCNvMs4_CseYC8vFNOjrM_2ccNtB7_5Build8env_tool0B7_, symObjAddr: 0x5570, symBinAddr: 0x10001C970, symSize: 0x50 }
  - { offset: 0x38750, size: 0x8, addend: 0x0, symName: __RNCNvMs4_CseYC8vFNOjrM_2ccNtB7_5Build8env_tools_0B7_, symObjAddr: 0x55C0, symBinAddr: 0x10001C9C0, symSize: 0x50 }
  - { offset: 0x3974D, size: 0x8, addend: 0x0, symName: __RNvNvCseYC8vFNOjrM_2cc11is_disabled5CACHE, symObjAddr: 0x7312D, symBinAddr: 0x100170DA0, symSize: 0x0 }
  - { offset: 0x3975A, size: 0x8, addend: 0x0, symName: __RNvNvCseYC8vFNOjrM_2cc11is_disabled19compute_is_disabled, symObjAddr: 0x21A10, symBinAddr: 0x100037270, symSize: 0x1D0 }
  - { offset: 0x397C4, size: 0x8, addend: 0x0, symName: __RINvXsb_CseYC8vFNOjrM_2ccNtB6_12CompilerFlagNtNtCsieiGu2EXtoJ_4core4hash4Hash4hashNtNtNtCsHUR1vrdMJt_3std4hash6random13DefaultHasherEB6_, symObjAddr: 0x8F0, symBinAddr: 0x100017ED0, symSize: 0x40 }
  - { offset: 0x39811, size: 0x8, addend: 0x0, symName: __RNCNCNvCseYC8vFNOjrM_2cc27autodetect_android_compiler00B5_, symObjAddr: 0x980, symBinAddr: 0x100017F60, symSize: 0x40 }
  - { offset: 0x39852, size: 0x8, addend: 0x0, symName: __RNCNvCseYC8vFNOjrM_2cc27autodetect_android_compiler0B3_, symObjAddr: 0x1110, symBinAddr: 0x1000186F0, symSize: 0x50 }
  - { offset: 0x39898, size: 0x8, addend: 0x0, symName: __RNCNvCseYC8vFNOjrM_2cc21is_llvm_mingw_wrapper0B3_, symObjAddr: 0x10E0, symBinAddr: 0x1000186C0, symSize: 0x30 }
  - { offset: 0x398D9, size: 0x8, addend: 0x0, symName: __RNvCseYC8vFNOjrM_2cc11is_disabled, symObjAddr: 0x5610, symBinAddr: 0x10001CA10, symSize: 0xD0 }
  - { offset: 0x39942, size: 0x8, addend: 0x0, symName: __RNvCseYC8vFNOjrM_2cc14check_disabled, symObjAddr: 0x56E0, symBinAddr: 0x10001CAE0, symSize: 0x90 }
  - { offset: 0x39960, size: 0x8, addend: 0x0, symName: __RNvCseYC8vFNOjrM_2cc21is_llvm_mingw_wrapper, symObjAddr: 0x5770, symBinAddr: 0x10001CB70, symSize: 0xD0 }
  - { offset: 0x399A4, size: 0x8, addend: 0x0, symName: __RNvCseYC8vFNOjrM_2cc27autodetect_android_compiler, symObjAddr: 0x5840, symBinAddr: 0x10001CC40, symSize: 0x9B0 }
  - { offset: 0x39B98, size: 0x8, addend: 0x0, symName: __RNvCseYC8vFNOjrM_2cc49android_clang_compiler_uses_target_arg_internally, symObjAddr: 0x61F0, symBinAddr: 0x10001D5F0, symSize: 0x150 }
  - { offset: 0x39C08, size: 0x8, addend: 0x0, symName: __RNvCseYC8vFNOjrM_2cc4fail, symObjAddr: 0x6340, symBinAddr: 0x10001D740, symSize: 0x60 }
  - { offset: 0x39C51, size: 0x8, addend: 0x0, symName: __RNvCseYC8vFNOjrM_2cc52map_darwin_target_from_rust_to_compiler_architecture, symObjAddr: 0x63A0, symBinAddr: 0x10001D7A0, symSize: 0x310 }
  - { offset: 0x39C9D, size: 0x8, addend: 0x0, symName: __RNvCseYC8vFNOjrM_2cc6is_arm, symObjAddr: 0x66B0, symBinAddr: 0x10001DAB0, symSize: 0xB0 }
  - { offset: 0x39CCB, size: 0x8, addend: 0x0, symName: __RNvCseYC8vFNOjrM_2cc9check_exe, symObjAddr: 0x6760, symBinAddr: 0x10001DB60, symSize: 0x180 }
  - { offset: 0x39D35, size: 0x8, addend: 0x0, symName: __RNvXs0_CseYC8vFNOjrM_2ccNtB5_5ErrorNtNtCsieiGu2EXtoJ_4core3fmt7Display3fmt, symObjAddr: 0x21EA0, symBinAddr: 0x100037700, symSize: 0xB0 }
  - { offset: 0x39DAD, size: 0x8, addend: 0x0, symName: __RNvXs_CseYC8vFNOjrM_2ccNtB4_5ErrorINtNtCsieiGu2EXtoJ_4core7convert4FromNtNtNtCsHUR1vrdMJt_3std2io5error5ErrorE4from, symObjAddr: 0x21FE0, symBinAddr: 0x100037810, symSize: 0xF0 }
  - { offset: 0x39E1F, size: 0x8, addend: 0x0, symName: __RNvXsa_CseYC8vFNOjrM_2ccNtB5_12CompilerFlagNtNtCsieiGu2EXtoJ_4core3cmp9PartialEq2eqB5_, symObjAddr: 0x22120, symBinAddr: 0x100037950, symSize: 0x50 }
  - { offset: 0x39E62, size: 0x8, addend: 0x0, symName: __RNvXsd_CseYC8vFNOjrM_2ccNtB5_10BuildCacheNtNtCsieiGu2EXtoJ_4core7default7Default7defaultB5_, symObjAddr: 0x22170, symBinAddr: 0x1000379A0, symSize: 0x1D0 }
  - { offset: 0x39E86, size: 0x8, addend: 0x0, symName: __RNvXsg_CseYC8vFNOjrM_2ccNtB5_9ErrorKindNtNtCsieiGu2EXtoJ_4core5clone5Clone5cloneB5_, symObjAddr: 0x22340, symBinAddr: 0x100037B70, symSize: 0xA0 }
  - { offset: 0x39EBA, size: 0x8, addend: 0x0, symName: __RNvXsh_CseYC8vFNOjrM_2ccNtB5_9ErrorKindNtNtCsieiGu2EXtoJ_4core3fmt5Debug3fmtB5_, symObjAddr: 0x223E0, symBinAddr: 0x100037C10, symSize: 0x170 }
  - { offset: 0x39EFD, size: 0x8, addend: 0x0, symName: __RNvXsi_CseYC8vFNOjrM_2ccNtB5_5ErrorNtNtCsieiGu2EXtoJ_4core5clone5Clone5cloneB5_, symObjAddr: 0x22550, symBinAddr: 0x100037D80, symSize: 0x70 }
  - { offset: 0x39F31, size: 0x8, addend: 0x0, symName: __RNvXsj_CseYC8vFNOjrM_2ccNtB5_5ErrorNtNtCsieiGu2EXtoJ_4core3fmt5Debug3fmtB5_, symObjAddr: 0x225C0, symBinAddr: 0x100037DF0, symSize: 0x90 }
  - { offset: 0x39F74, size: 0x8, addend: 0x0, symName: __RNvXsp_CseYC8vFNOjrM_2ccNtB5_10AsmFileExtNtNtCsieiGu2EXtoJ_4core3cmp9PartialEq2eqB5_, symObjAddr: 0x22650, symBinAddr: 0x100037E80, symSize: 0x30 }
  - { offset: 0x3BADA, size: 0x8, addend: 0x0, symName: __RNvXCsjK30CmJ87bX_9hashbrownNtCseYC8vFNOjrM_2cc12CompilerFlagINtB2_10EquivalentBq_E10equivalentBs_, symObjAddr: 0x21DE0, symBinAddr: 0x100037640, symSize: 0x50 }
  - { offset: 0x3BD92, size: 0x8, addend: 0x0, symName: __RINvMCseYC8vFNOjrM_2ccNtB3_5Error3newNtNtCslJiobkLta79_5alloc6string6StringEB3_, symObjAddr: 0x0, symBinAddr: 0x1000175E0, symSize: 0x70 }
  - { offset: 0x3BDCE, size: 0x8, addend: 0x0, symName: __RINvMCseYC8vFNOjrM_2ccNtB3_5Error3newReEB3_, symObjAddr: 0x70, symBinAddr: 0x100017650, symSize: 0x80 }
  - { offset: 0x3BE34, size: 0x8, addend: 0x0, symName: __RINvMs3_CseYC8vFNOjrM_2ccNtB6_5Build4flagRNtNtNtCsHUR1vrdMJt_3std3ffi6os_str5OsStrEB6_, symObjAddr: 0xF0, symBinAddr: 0x1000176D0, symSize: 0xA0 }
  - { offset: 0x3BE8D, size: 0x8, addend: 0x0, symName: __RINvMs3_CseYC8vFNOjrM_2ccNtB6_5Build8compilerRNtNtCsHUR1vrdMJt_3std4path4PathEB6_, symObjAddr: 0x190, symBinAddr: 0x100017770, symSize: 0xE0 }
  - { offset: 0x3C007, size: 0x8, addend: 0x0, symName: __RINvMs4_CseYC8vFNOjrM_2ccNtB6_5Build3cmdNtNtCsHUR1vrdMJt_3std4path7PathBufEB6_, symObjAddr: 0x270, symBinAddr: 0x100017850, symSize: 0x190 }
  - { offset: 0x3C097, size: 0x8, addend: 0x0, symName: __RINvMs4_CseYC8vFNOjrM_2ccNtB6_5Build3cmdRNtNtCsHUR1vrdMJt_3std4path4PathEB6_, symObjAddr: 0x400, symBinAddr: 0x1000179E0, symSize: 0x1A0 }
  - { offset: 0x3C133, size: 0x8, addend: 0x0, symName: __RINvMs4_CseYC8vFNOjrM_2ccNtB6_5Build3cmdRNtNtCsHUR1vrdMJt_3std4path7PathBufEB6_, symObjAddr: 0x5A0, symBinAddr: 0x100017B80, symSize: 0x190 }
  - { offset: 0x3C1C2, size: 0x8, addend: 0x0, symName: __RINvMs4_CseYC8vFNOjrM_2ccNtB6_5Build3cmdReEB6_, symObjAddr: 0x730, symBinAddr: 0x100017D10, symSize: 0x1A0 }
  - { offset: 0x3C251, size: 0x8, addend: 0x0, symName: __RNvMs2_CseYC8vFNOjrM_2ccNtB5_6Object3new, symObjAddr: 0x6900, symBinAddr: 0x10001DD00, symSize: 0x40 }
  - { offset: 0x3C283, size: 0x8, addend: 0x0, symName: __RNvMs3_CseYC8vFNOjrM_2ccNtB5_5Build14cargo_metadata, symObjAddr: 0x6B40, symBinAddr: 0x10001DD40, symSize: 0x30 }
  - { offset: 0x3C2B5, size: 0x8, addend: 0x0, symName: __RNvMs3_CseYC8vFNOjrM_2ccNtB5_5Build17inherit_rustflags, symObjAddr: 0x6C00, symBinAddr: 0x10001DD70, symSize: 0x30 }
  - { offset: 0x3C2E7, size: 0x8, addend: 0x0, symName: __RNvMs3_CseYC8vFNOjrM_2ccNtB5_5Build20warnings_into_errors, symObjAddr: 0x6C90, symBinAddr: 0x10001DDA0, symSize: 0x30 }
  - { offset: 0x3C319, size: 0x8, addend: 0x0, symName: __RNvMs3_CseYC8vFNOjrM_2ccNtB5_5Build25emit_rerun_if_env_changed, symObjAddr: 0x6CF0, symBinAddr: 0x10001DDD0, symSize: 0x30 }
  - { offset: 0x3C34B, size: 0x8, addend: 0x0, symName: __RNvMs3_CseYC8vFNOjrM_2ccNtB5_5Build3cpp, symObjAddr: 0x7050, symBinAddr: 0x10001DE00, symSize: 0x30 }
  - { offset: 0x3C37D, size: 0x8, addend: 0x0, symName: __RNvMs3_CseYC8vFNOjrM_2ccNtB5_5Build3new, symObjAddr: 0x7080, symBinAddr: 0x10001DE30, symSize: 0x690 }
  - { offset: 0x3C390, size: 0x8, addend: 0x0, symName: __RNvMs3_CseYC8vFNOjrM_2ccNtB5_5Build4cuda, symObjAddr: 0x77F0, symBinAddr: 0x10001E4C0, symSize: 0xD0 }
  - { offset: 0x3C3C2, size: 0x8, addend: 0x0, symName: __RNvMs3_CseYC8vFNOjrM_2ccNtB5_5Build4host, symObjAddr: 0x78C0, symBinAddr: 0x10001E590, symSize: 0xB0 }
  - { offset: 0x3C3F4, size: 0x8, addend: 0x0, symName: __RNvMs3_CseYC8vFNOjrM_2ccNtB5_5Build5debug, symObjAddr: 0x79A0, symBinAddr: 0x10001E640, symSize: 0xB0 }
  - { offset: 0x3C426, size: 0x8, addend: 0x0, symName: __RNvMs3_CseYC8vFNOjrM_2ccNtB5_5Build6target, symObjAddr: 0x7B10, symBinAddr: 0x10001E6F0, symSize: 0xB0 }
  - { offset: 0x3C48A, size: 0x8, addend: 0x0, symName: __RNvMs3_CseYC8vFNOjrM_2ccNtB5_5Build9opt_level, symObjAddr: 0x7D20, symBinAddr: 0x10001E7A0, symSize: 0xB0 }
  - { offset: 0x3C4BC, size: 0x8, addend: 0x0, symName: __RNvMs4_CseYC8vFNOjrM_2ccNtB5_5Build10get_target, symObjAddr: 0x7EE0, symBinAddr: 0x10001E850, symSize: 0x1C0 }
  - { offset: 0x3C539, size: 0x8, addend: 0x0, symName: __RNvMs4_CseYC8vFNOjrM_2ccNtB5_5Build11apple_flags, symObjAddr: 0x8550, symBinAddr: 0x10001EA10, symSize: 0xC00 }
  - { offset: 0x3C6CD, size: 0x8, addend: 0x0, symName: __RNvMs4_CseYC8vFNOjrM_2ccNtB5_5Build11get_out_dir, symObjAddr: 0x9150, symBinAddr: 0x10001F610, symSize: 0x170 }
  - { offset: 0x3C71B, size: 0x8, addend: 0x0, symName: __RNvMs4_CseYC8vFNOjrM_2ccNtB5_5Build11target_envs, symObjAddr: 0x92C0, symBinAddr: 0x10001F780, symSize: 0x6A0 }
  - { offset: 0x3C963, size: 0x8, addend: 0x0, symName: __RNvMs4_CseYC8vFNOjrM_2ccNtB5_5Build11try_compile, symObjAddr: 0x9960, symBinAddr: 0x10001FE20, symSize: 0x1F50 }
  - { offset: 0x3CE75, size: 0x8, addend: 0x0, symName: __RNvMs4_CseYC8vFNOjrM_2ccNtB5_5Build12get_compiler, symObjAddr: 0xB9C0, symBinAddr: 0x100021D70, symSize: 0x110 }
  - { offset: 0x3CEAE, size: 0x8, addend: 0x0, symName: __RNvMs4_CseYC8vFNOjrM_2ccNtB5_5Build12prefer_clang, symObjAddr: 0xBAD0, symBinAddr: 0x100021E80, symSize: 0x130 }
  - { offset: 0x3CEE7, size: 0x8, addend: 0x0, symName: __RNvMs4_CseYC8vFNOjrM_2ccNtB5_5Build12wasi_sysroot, symObjAddr: 0xBC00, symBinAddr: 0x100021FB0, symSize: 0xE0 }
  - { offset: 0x3CF28, size: 0x8, addend: 0x0, symName: __RNvMs4_CseYC8vFNOjrM_2ccNtB5_5Build13get_debug_str, symObjAddr: 0xBCE0, symBinAddr: 0x100022090, symSize: 0xE0 }
  - { offset: 0x3CF69, size: 0x8, addend: 0x0, symName: __RNvMs4_CseYC8vFNOjrM_2ccNtB5_5Build13get_opt_level, symObjAddr: 0xBDC0, symBinAddr: 0x100022170, symSize: 0xE0 }
  - { offset: 0x3CFAA, size: 0x8, addend: 0x0, symName: __RNvMs4_CseYC8vFNOjrM_2ccNtB5_5Build13getenv_unwrap, symObjAddr: 0xBEA0, symBinAddr: 0x100022250, symSize: 0x180 }
  - { offset: 0x3D045, size: 0x8, addend: 0x0, symName: __RNvMs4_CseYC8vFNOjrM_2ccNtB5_5Build14apple_sdk_root, symObjAddr: 0xC020, symBinAddr: 0x1000223D0, symSize: 0x4C0 }
  - { offset: 0x3D0F9, size: 0x8, addend: 0x0, symName: __RNvMs4_CseYC8vFNOjrM_2ccNtB5_5Build14get_raw_target, symObjAddr: 0xC4E0, symBinAddr: 0x100022890, symSize: 0xE0 }
  - { offset: 0x3D13A, size: 0x8, addend: 0x0, symName: __RNvMs4_CseYC8vFNOjrM_2ccNtB5_5Build14getenv_boolean, symObjAddr: 0xC5C0, symBinAddr: 0x100022970, symSize: 0x1A0 }
  - { offset: 0x3D1AA, size: 0x8, addend: 0x0, symName: __RNvMs4_CseYC8vFNOjrM_2ccNtB5_5Build15compile_objects, symObjAddr: 0xCA40, symBinAddr: 0x100022B10, symSize: 0x3D0 }
  - { offset: 0x3D29D, size: 0x8, addend: 0x0, symName: __RNvMs4_CseYC8vFNOjrM_2ccNtB5_5Build15cuda_file_count, symObjAddr: 0xCE10, symBinAddr: 0x100022EE0, symSize: 0x50 }
  - { offset: 0x3D2CD, size: 0x8, addend: 0x0, symName: __RNvMs4_CseYC8vFNOjrM_2ccNtB5_5Build15search_programs, symObjAddr: 0xD050, symBinAddr: 0x100022F30, symSize: 0x480 }
  - { offset: 0x3D3E5, size: 0x8, addend: 0x0, symName: __RNvMs4_CseYC8vFNOjrM_2ccNtB5_5Build16try_get_archiver, symObjAddr: 0xD4D0, symBinAddr: 0x1000233B0, symSize: 0x150 }
  - { offset: 0x3D446, size: 0x8, addend: 0x0, symName: __RNvMs4_CseYC8vFNOjrM_2ccNtB5_5Build16try_get_compiler, symObjAddr: 0xD620, symBinAddr: 0x100023500, symSize: 0x1700 }
  - { offset: 0x3D8CA, size: 0x8, addend: 0x0, symName: __RNvMs4_CseYC8vFNOjrM_2ccNtB5_5Build17add_default_flags, symObjAddr: 0xED20, symBinAddr: 0x100024C00, symSize: 0x4910 }
  - { offset: 0x3DE51, size: 0x8, addend: 0x0, symName: __RNvMs4_CseYC8vFNOjrM_2ccNtB5_5Build17ensure_check_file, symObjAddr: 0x13630, symBinAddr: 0x100029510, symSize: 0x4E0 }
  - { offset: 0x3DF67, size: 0x8, addend: 0x0, symName: __RNvMs4_CseYC8vFNOjrM_2ccNtB5_5Build17get_base_archiver, symObjAddr: 0x13B10, symBinAddr: 0x1000299F0, symSize: 0x180 }
  - { offset: 0x3DFB6, size: 0x8, addend: 0x0, symName: __RNvMs4_CseYC8vFNOjrM_2ccNtB5_5Build17get_base_compiler, symObjAddr: 0x13C90, symBinAddr: 0x100029B70, symSize: 0x22B0 }
  - { offset: 0x3E48E, size: 0x8, addend: 0x0, symName: __RNvMs4_CseYC8vFNOjrM_2ccNtB5_5Build17get_dwarf_version, symObjAddr: 0x15F40, symBinAddr: 0x10002BE20, symSize: 0x2A0 }
  - { offset: 0x3E50D, size: 0x8, addend: 0x0, symName: __RNvMs4_CseYC8vFNOjrM_2ccNtB5_5Build17getenv_unwrap_str, symObjAddr: 0x161E0, symBinAddr: 0x10002C0C0, symSize: 0x1B0 }
  - { offset: 0x3E594, size: 0x8, addend: 0x0, symName: __RNvMs4_CseYC8vFNOjrM_2ccNtB5_5Build17prefix_for_target, symObjAddr: 0x16390, symBinAddr: 0x10002C270, symSize: 0x100 }
  - { offset: 0x3E5C8, size: 0x8, addend: 0x0, symName: __RNvMs4_CseYC8vFNOjrM_2ccNtB5_5Build17wasm_musl_sysroot, symObjAddr: 0x16490, symBinAddr: 0x10002C370, symSize: 0xE0 }
  - { offset: 0x3E609, size: 0x8, addend: 0x0, symName: __RNvMs4_CseYC8vFNOjrM_2ccNtB5_5Build19get_cpp_link_stdlib, symObjAddr: 0x16570, symBinAddr: 0x10002C450, symSize: 0x830 }
  - { offset: 0x3E6BE, size: 0x8, addend: 0x0, symName: __RNvMs4_CseYC8vFNOjrM_2ccNtB5_5Build20apple_sdk_root_inner, symObjAddr: 0x16DA0, symBinAddr: 0x10002CC80, symSize: 0xB10 }
  - { offset: 0x3E7E7, size: 0x8, addend: 0x0, symName: __RNvMs4_CseYC8vFNOjrM_2ccNtB5_5Build20assemble_progressive, symObjAddr: 0x178B0, symBinAddr: 0x10002D790, symSize: 0x740 }
  - { offset: 0x3E921, size: 0x8, addend: 0x0, symName: __RNvMs4_CseYC8vFNOjrM_2ccNtB5_5Build20find_msvc_tools_find, symObjAddr: 0x17FF0, symBinAddr: 0x10002DED0, symSize: 0x60 }
  - { offset: 0x3E96F, size: 0x8, addend: 0x0, symName: __RNvMs4_CseYC8vFNOjrM_2ccNtB5_5Build20fix_env_for_apple_os, symObjAddr: 0x18050, symBinAddr: 0x10002DF30, symSize: 0x170 }
  - { offset: 0x3E9FE, size: 0x8, addend: 0x0, symName: __RNvMs4_CseYC8vFNOjrM_2ccNtB5_5Build20get_is_cross_compile, symObjAddr: 0x181C0, symBinAddr: 0x10002E0A0, symSize: 0x360 }
  - { offset: 0x3EAC2, size: 0x8, addend: 0x0, symName: __RNvMs4_CseYC8vFNOjrM_2ccNtB5_5Build20msvc_macro_assembler, symObjAddr: 0x18520, symBinAddr: 0x10002E400, symSize: 0xE40 }
  - { offset: 0x3EE2E, size: 0x8, addend: 0x0, symName: __RNvMs4_CseYC8vFNOjrM_2ccNtB5_5Build22rustc_wrapper_fallback, symObjAddr: 0x19450, symBinAddr: 0x10002F240, symSize: 0x340 }
  - { offset: 0x3EF1F, size: 0x8, addend: 0x0, symName: __RNvMs4_CseYC8vFNOjrM_2ccNtB5_5Build23add_inherited_rustflags, symObjAddr: 0x19790, symBinAddr: 0x10002F580, symSize: 0x2E0 }
  - { offset: 0x3F009, size: 0x8, addend: 0x0, symName: __RNvMs4_CseYC8vFNOjrM_2ccNtB5_5Build23apple_deployment_target, symObjAddr: 0x19A70, symBinAddr: 0x10002F860, symSize: 0x720 }
  - { offset: 0x3F103, size: 0x8, addend: 0x0, symName: __RNvMs4_CseYC8vFNOjrM_2ccNtB5_5Build23find_working_gnu_prefix, symObjAddr: 0x1A190, symBinAddr: 0x10002FF80, symSize: 0x160 }
  - { offset: 0x3F164, size: 0x8, addend: 0x0, symName: __RNvMs4_CseYC8vFNOjrM_2ccNtB5_5Build23get_force_frame_pointer, symObjAddr: 0x1A2F0, symBinAddr: 0x1000300E0, symSize: 0x40 }
  - { offset: 0x3F187, size: 0x8, addend: 0x0, symName: __RNvMs4_CseYC8vFNOjrM_2ccNtB5_5Build23get_shell_escaped_flags, symObjAddr: 0x1A330, symBinAddr: 0x100030120, symSize: 0x40 }
  - { offset: 0x3F23D, size: 0x8, addend: 0x0, symName: __RNvMs4_CseYC8vFNOjrM_2ccNtB5_5Build23is_flag_supported_inner, symObjAddr: 0x1A370, symBinAddr: 0x100030160, symSize: 0x1280 }
  - { offset: 0x3F53F, size: 0x8, addend: 0x0, symName: __RNvMs4_CseYC8vFNOjrM_2ccNtB5_5Build24autodetect_wasi_compiler, symObjAddr: 0x1B5F0, symBinAddr: 0x1000313E0, symSize: 0x360 }
  - { offset: 0x3F613, size: 0x8, addend: 0x0, symName: __RNvMs4_CseYC8vFNOjrM_2ccNtB5_5Build25create_compile_object_cmd, symObjAddr: 0x1B950, symBinAddr: 0x100031740, symSize: 0x960 }
  - { offset: 0x3F828, size: 0x8, addend: 0x0, symName: __RNvMs4_CseYC8vFNOjrM_2ccNtB5_5Build25find_msvc_tools_find_tool, symObjAddr: 0x1C2B0, symBinAddr: 0x1000320A0, symSize: 0xD0 }
  - { offset: 0x3F869, size: 0x8, addend: 0x0, symName: __RNvMs4_CseYC8vFNOjrM_2ccNtB5_5Build25get_base_archiver_variant, symObjAddr: 0x1C380, symBinAddr: 0x100032170, symSize: 0x1AE0 }
  - { offset: 0x3FCFE, size: 0x8, addend: 0x0, symName: __RNvMs4_CseYC8vFNOjrM_2ccNtB5_5Build26try_get_archiver_and_flags, symObjAddr: 0x1E300, symBinAddr: 0x100033C50, symSize: 0x480 }
  - { offset: 0x3FDE2, size: 0x8, addend: 0x0, symName: __RNvMs4_CseYC8vFNOjrM_2ccNtB5_5Build27getenv_with_target_prefixes, symObjAddr: 0x1E780, symBinAddr: 0x1000340D0, symSize: 0x370 }
  - { offset: 0x3FECF, size: 0x8, addend: 0x0, symName: __RNvMs4_CseYC8vFNOjrM_2ccNtB5_5Build5which, symObjAddr: 0x1EAF0, symBinAddr: 0x100034440, symSize: 0x100 }
  - { offset: 0x3FFAF, size: 0x8, addend: 0x0, symName: __RNvMs4_CseYC8vFNOjrM_2ccNtB5_5Build6getenv, symObjAddr: 0x1ECE0, symBinAddr: 0x100034540, symSize: 0x6B0 }
  - { offset: 0x400E1, size: 0x8, addend: 0x0, symName: __RNvMs4_CseYC8vFNOjrM_2ccNtB5_5Build7compile, symObjAddr: 0x1F390, symBinAddr: 0x100034BF0, symSize: 0xD0 }
  - { offset: 0x4012A, size: 0x8, addend: 0x0, symName: __RNvMs4_CseYC8vFNOjrM_2ccNtB5_5Build8assemble, symObjAddr: 0x1F460, symBinAddr: 0x100034CC0, symSize: 0xDF0 }
  - { offset: 0x4040D, size: 0x8, addend: 0x0, symName: __RNvMs4_CseYC8vFNOjrM_2ccNtB5_5Build8env_tool, symObjAddr: 0x20250, symBinAddr: 0x100035AB0, symSize: 0xE70 }
  - { offset: 0x40624, size: 0x8, addend: 0x0, symName: __RNvMs4_CseYC8vFNOjrM_2ccNtB5_5Build8envflags, symObjAddr: 0x210C0, symBinAddr: 0x100036920, symSize: 0x580 }
  - { offset: 0x4071D, size: 0x8, addend: 0x0, symName: __RNvMs4_CseYC8vFNOjrM_2ccNtB5_5Build9get_debug, symObjAddr: 0x21640, symBinAddr: 0x100036EA0, symSize: 0x210 }
  - { offset: 0x40756, size: 0x8, addend: 0x0, symName: __RNvMs6_CseYC8vFNOjrM_2ccNtB5_10AsmFileExt9from_path, symObjAddr: 0x21850, symBinAddr: 0x1000370B0, symSize: 0x1C0 }
  - { offset: 0x40E90, size: 0x8, addend: 0x0, symName: __RINvMs6_NtCsjK30CmJ87bX_9hashbrown3rawINtB6_8RawTableTINtNtCslJiobkLta79_5alloc5boxed3BoxSIBR_NtNtNtCsHUR1vrdMJt_3std3ffi6os_str5OsStrEENtNtCseYC8vFNOjrM_2cc4tool10ToolFamilyEE14reserve_rehashNCINvNtB8_3map11make_hasherBQ_B2a_NtNtNtB1A_4hash6random11RandomStateE0EB2e_, symObjAddr: 0x0, symBinAddr: 0x1001119B0, symSize: 0xD70 }
  - { offset: 0x40ECC, size: 0x8, addend: 0x0, symName: __RNCINvMs6_NtCsjK30CmJ87bX_9hashbrown3rawINtB8_8RawTableTINtNtCslJiobkLta79_5alloc5boxed3BoxSIBT_NtNtNtCsHUR1vrdMJt_3std3ffi6os_str5OsStrEENtNtCseYC8vFNOjrM_2cc4tool10ToolFamilyEE14reserve_rehashNCINvNtBa_3map11make_hasherBS_B2c_NtNtNtB1C_4hash6random11RandomStateE0E0B2g_, symObjAddr: 0x8510, symBinAddr: 0x10003C0B0, symSize: 0xB0 }
  - { offset: 0x41092, size: 0x8, addend: 0x0, symName: __RNCINvMs6_NtCsjK30CmJ87bX_9hashbrown3rawINtB8_8RawTableTINtNtCslJiobkLta79_5alloc5boxed3BoxSIBT_NtNtNtCsHUR1vrdMJt_3std3ffi6os_str5OsStrEENtNtCseYC8vFNOjrM_2cc4tool10ToolFamilyEE14reserve_rehashNCINvNtBa_3map11make_hasherBS_B2c_NtNtNtB1C_4hash6random11RandomStateE0Es_0B2g_, symObjAddr: 0x85C0, symBinAddr: 0x10003C160, symSize: 0x30 }
  - { offset: 0x410E2, size: 0x8, addend: 0x0, symName: __RNCINvMs6_NtCsjK30CmJ87bX_9hashbrown3rawINtB8_8RawTableTINtNtCslJiobkLta79_5alloc5boxed3BoxeEINtNtBX_4sync3ArcNtNtNtCsHUR1vrdMJt_3std3ffi6os_str5OsStrEEE14reserve_rehashNCINvNtBa_3map11make_hasherBS_B1t_NtNtNtB1Q_4hash6random11RandomStateE0E0CseYC8vFNOjrM_2cc, symObjAddr: 0x8750, symBinAddr: 0x10003C2F0, symSize: 0xB0 }
  - { offset: 0x412A8, size: 0x8, addend: 0x0, symName: __RNCINvMs6_NtCsjK30CmJ87bX_9hashbrown3rawINtB8_8RawTableTINtNtCslJiobkLta79_5alloc5boxed3BoxeEINtNtBX_4sync3ArcNtNtNtCsHUR1vrdMJt_3std3ffi6os_str5OsStrEEE14reserve_rehashNCINvNtBa_3map11make_hasherBS_B1t_NtNtNtB1Q_4hash6random11RandomStateE0Es_0CseYC8vFNOjrM_2cc, symObjAddr: 0x8800, symBinAddr: 0x10003C3A0, symSize: 0x30 }
  - { offset: 0x412F8, size: 0x8, addend: 0x0, symName: __RNCINvMs6_NtCsjK30CmJ87bX_9hashbrown3rawINtB8_8RawTableTINtNtCslJiobkLta79_5alloc5boxed3BoxeEINtNtBX_4sync3ArceEEE14reserve_rehashNCINvNtBa_3map11make_hasherBS_B1t_NtNtNtCsHUR1vrdMJt_3std4hash6random11RandomStateE0E0CseYC8vFNOjrM_2cc, symObjAddr: 0x8990, symBinAddr: 0x10003C530, symSize: 0xB0 }
  - { offset: 0x414BE, size: 0x8, addend: 0x0, symName: __RNCINvMs6_NtCsjK30CmJ87bX_9hashbrown3rawINtB8_8RawTableTINtNtCslJiobkLta79_5alloc5boxed3BoxeEINtNtBX_4sync3ArceEEE14reserve_rehashNCINvNtBa_3map11make_hasherBS_B1t_NtNtNtCsHUR1vrdMJt_3std4hash6random11RandomStateE0Es_0CseYC8vFNOjrM_2cc, symObjAddr: 0x8A40, symBinAddr: 0x10003C5E0, symSize: 0x30 }
  - { offset: 0x4150E, size: 0x8, addend: 0x0, symName: __RNCINvMs6_NtCsjK30CmJ87bX_9hashbrown3rawINtB8_8RawTableTINtNtCslJiobkLta79_5alloc5boxed3BoxeEINtNtCsieiGu2EXtoJ_4core6option6OptionINtNtBX_4sync3ArcNtNtNtCsHUR1vrdMJt_3std3ffi6os_str5OsStrEEEE14reserve_rehashNCINvNtBa_3map11make_hasherBS_B1t_NtNtNtB2s_4hash6random11RandomStateE0E0CseYC8vFNOjrM_2cc, symObjAddr: 0x8BD0, symBinAddr: 0x10003C770, symSize: 0xB0 }
  - { offset: 0x416D4, size: 0x8, addend: 0x0, symName: __RNCINvMs6_NtCsjK30CmJ87bX_9hashbrown3rawINtB8_8RawTableTINtNtCslJiobkLta79_5alloc5boxed3BoxeEINtNtCsieiGu2EXtoJ_4core6option6OptionINtNtBX_4sync3ArcNtNtNtCsHUR1vrdMJt_3std3ffi6os_str5OsStrEEEE14reserve_rehashNCINvNtBa_3map11make_hasherBS_B1t_NtNtNtB2s_4hash6random11RandomStateE0Es_0CseYC8vFNOjrM_2cc, symObjAddr: 0x8C80, symBinAddr: 0x10003C820, symSize: 0x30 }
  - { offset: 0x41724, size: 0x8, addend: 0x0, symName: __RNCINvMs6_NtCsjK30CmJ87bX_9hashbrown3rawINtB8_8RawTableTNtCseYC8vFNOjrM_2cc12CompilerFlagbEE14reserve_rehashNCINvNtBa_3map11make_hasherBS_bNtNtNtCsHUR1vrdMJt_3std4hash6random11RandomStateE0E0BU_, symObjAddr: 0x8E10, symBinAddr: 0x10003C9B0, symSize: 0xB0 }
  - { offset: 0x418EA, size: 0x8, addend: 0x0, symName: __RNCINvMs6_NtCsjK30CmJ87bX_9hashbrown3rawINtB8_8RawTableTNtCseYC8vFNOjrM_2cc12CompilerFlagbEE14reserve_rehashNCINvNtBa_3map11make_hasherBS_bNtNtNtCsHUR1vrdMJt_3std4hash6random11RandomStateE0Es_0BU_, symObjAddr: 0x8EC0, symBinAddr: 0x10003CA60, symSize: 0x30 }
  - { offset: 0x41963, size: 0x8, addend: 0x0, symName: __RNCINvMs6_NtCsjK30CmJ87bX_9hashbrown3rawINtB8_8RawTableTINtNtCslJiobkLta79_5alloc5boxed3BoxSIBT_NtNtNtCsHUR1vrdMJt_3std3ffi6os_str5OsStrEENtNtCseYC8vFNOjrM_2cc4tool10ToolFamilyEE24find_or_find_insert_slotNCINvNtBa_3map14equivalent_keyBS_BS_B2c_E0NCINvB3l_11make_hasherBS_B2c_NtNtNtB1C_4hash6random11RandomStateE0E0B2g_, symObjAddr: 0x85F0, symBinAddr: 0x10003C190, symSize: 0xB0 }
  - { offset: 0x41B39, size: 0x8, addend: 0x0, symName: __RNCINvMs6_NtCsjK30CmJ87bX_9hashbrown3rawINtB8_8RawTableTINtNtCslJiobkLta79_5alloc5boxed3BoxeEINtNtBX_4sync3ArcNtNtNtCsHUR1vrdMJt_3std3ffi6os_str5OsStrEEE24find_or_find_insert_slotNCINvNtBa_3map14equivalent_keyBS_BS_B1t_E0NCINvB2W_11make_hasherBS_B1t_NtNtNtB1Q_4hash6random11RandomStateE0E0CseYC8vFNOjrM_2cc, symObjAddr: 0x8830, symBinAddr: 0x10003C3D0, symSize: 0xB0 }
  - { offset: 0x41D0F, size: 0x8, addend: 0x0, symName: __RNCINvMs6_NtCsjK30CmJ87bX_9hashbrown3rawINtB8_8RawTableTINtNtCslJiobkLta79_5alloc5boxed3BoxeEINtNtBX_4sync3ArceEEE24find_or_find_insert_slotNCINvNtBa_3map14equivalent_keyBS_BS_B1t_E0NCINvB2j_11make_hasherBS_B1t_NtNtNtCsHUR1vrdMJt_3std4hash6random11RandomStateE0E0CseYC8vFNOjrM_2cc, symObjAddr: 0x8A70, symBinAddr: 0x10003C610, symSize: 0xB0 }
  - { offset: 0x41EE5, size: 0x8, addend: 0x0, symName: __RNCINvMs6_NtCsjK30CmJ87bX_9hashbrown3rawINtB8_8RawTableTINtNtCslJiobkLta79_5alloc5boxed3BoxeEINtNtCsieiGu2EXtoJ_4core6option6OptionINtNtBX_4sync3ArcNtNtNtCsHUR1vrdMJt_3std3ffi6os_str5OsStrEEEE24find_or_find_insert_slotNCINvNtBa_3map14equivalent_keyBS_BS_B1t_E0NCINvB3z_11make_hasherBS_B1t_NtNtNtB2s_4hash6random11RandomStateE0E0CseYC8vFNOjrM_2cc, symObjAddr: 0x8CB0, symBinAddr: 0x10003C850, symSize: 0xB0 }
  - { offset: 0x420BB, size: 0x8, addend: 0x0, symName: __RNCINvMs6_NtCsjK30CmJ87bX_9hashbrown3rawINtB8_8RawTableTNtCseYC8vFNOjrM_2cc12CompilerFlagbEE24find_or_find_insert_slotNCINvNtBa_3map14equivalent_keyBS_BS_bE0NCINvB1X_11make_hasherBS_bNtNtNtCsHUR1vrdMJt_3std4hash6random11RandomStateE0E0BU_, symObjAddr: 0x8EF0, symBinAddr: 0x10003CA90, symSize: 0xB0 }
  - { offset: 0x42297, size: 0x8, addend: 0x0, symName: __RNCINvMs6_NtCsjK30CmJ87bX_9hashbrown3rawINtB8_8RawTableTINtNtCslJiobkLta79_5alloc5boxed3BoxSIBT_NtNtNtCsHUR1vrdMJt_3std3ffi6os_str5OsStrEENtNtCseYC8vFNOjrM_2cc4tool10ToolFamilyEE4findNCINvNtBa_3map14equivalent_keyBS_BS_B2c_E0E0B2g_, symObjAddr: 0x86A0, symBinAddr: 0x10003C240, symSize: 0xB0 }
  - { offset: 0x42464, size: 0x8, addend: 0x0, symName: __RNCINvMs6_NtCsjK30CmJ87bX_9hashbrown3rawINtB8_8RawTableTINtNtCslJiobkLta79_5alloc5boxed3BoxeEINtNtBX_4sync3ArcNtNtNtCsHUR1vrdMJt_3std3ffi6os_str5OsStrEEE4findNCINvNtBa_3map14equivalent_keyeBS_B1t_E0E0CseYC8vFNOjrM_2cc, symObjAddr: 0x88E0, symBinAddr: 0x10003C480, symSize: 0xB0 }
  - { offset: 0x42631, size: 0x8, addend: 0x0, symName: __RNCINvMs6_NtCsjK30CmJ87bX_9hashbrown3rawINtB8_8RawTableTINtNtCslJiobkLta79_5alloc5boxed3BoxeEINtNtBX_4sync3ArceEEE4findNCINvNtBa_3map14equivalent_keyeBS_B1t_E0E0CseYC8vFNOjrM_2cc, symObjAddr: 0x8B20, symBinAddr: 0x10003C6C0, symSize: 0xB0 }
  - { offset: 0x427FE, size: 0x8, addend: 0x0, symName: __RNCINvMs6_NtCsjK30CmJ87bX_9hashbrown3rawINtB8_8RawTableTINtNtCslJiobkLta79_5alloc5boxed3BoxeEINtNtCsieiGu2EXtoJ_4core6option6OptionINtNtBX_4sync3ArcNtNtNtCsHUR1vrdMJt_3std3ffi6os_str5OsStrEEEE4findNCINvNtBa_3map14equivalent_keyeBS_B1t_E0E0CseYC8vFNOjrM_2cc, symObjAddr: 0x8D60, symBinAddr: 0x10003C900, symSize: 0xB0 }
  - { offset: 0x429CB, size: 0x8, addend: 0x0, symName: __RNCINvMs6_NtCsjK30CmJ87bX_9hashbrown3rawINtB8_8RawTableTNtCseYC8vFNOjrM_2cc12CompilerFlagbEE4findNCINvNtBa_3map14equivalent_keyBS_BS_bE0E0BU_, symObjAddr: 0x8FA0, symBinAddr: 0x10003CB40, symSize: 0xB0 }
  - { offset: 0x43C9C, size: 0x8, addend: 0x0, symName: __RNCINvMsa_NtCsjK30CmJ87bX_9hashbrown3rawNtB8_13RawTableInner14prepare_resizeNtNtCslJiobkLta79_5alloc5alloc6GlobalE0CseYC8vFNOjrM_2cc, symObjAddr: 0x9050, symBinAddr: 0x10003CBF0, symSize: 0xD0 }
  - { offset: 0x43E6A, size: 0x8, addend: 0x0, symName: __RNCNvMsa_NtCsjK30CmJ87bX_9hashbrown3rawNtB7_13RawTableInner15rehash_in_place0CseYC8vFNOjrM_2cc, symObjAddr: 0x9120, symBinAddr: 0x10003CCC0, symSize: 0x250 }
  - { offset: 0x44B71, size: 0x8, addend: 0x0, symName: __RNvNtCsjK30CmJ87bX_9hashbrown3raw19capacity_to_bucketsCseYC8vFNOjrM_2cc, symObjAddr: 0xB3B0, symBinAddr: 0x10003EF50, symSize: 0x280 }
  - { offset: 0x44D87, size: 0x8, addend: 0x0, symName: __RNvXsg_NtCsjK30CmJ87bX_9hashbrown3rawINtB5_8RawTableTINtNtCslJiobkLta79_5alloc5boxed3BoxSIBQ_NtNtNtCsHUR1vrdMJt_3std3ffi6os_str5OsStrEENtNtCseYC8vFNOjrM_2cc4tool10ToolFamilyEENtNtNtCsieiGu2EXtoJ_4core3ops4drop4Drop4dropB2d_, symObjAddr: 0xB630, symBinAddr: 0x10003F1D0, symSize: 0x30 }
  - { offset: 0x44DC3, size: 0x8, addend: 0x0, symName: __RNvXsg_NtCsjK30CmJ87bX_9hashbrown3rawINtB5_8RawTableTINtNtCslJiobkLta79_5alloc5boxed3BoxeEINtNtBU_4sync3ArcNtNtNtCsHUR1vrdMJt_3std3ffi6os_str5OsStrEEENtNtNtCsieiGu2EXtoJ_4core3ops4drop4Drop4dropCseYC8vFNOjrM_2cc, symObjAddr: 0xB660, symBinAddr: 0x10003F200, symSize: 0x30 }
  - { offset: 0x44DFF, size: 0x8, addend: 0x0, symName: __RNvXsg_NtCsjK30CmJ87bX_9hashbrown3rawINtB5_8RawTableTINtNtCslJiobkLta79_5alloc5boxed3BoxeEINtNtBU_4sync3ArceEEENtNtNtCsieiGu2EXtoJ_4core3ops4drop4Drop4dropCseYC8vFNOjrM_2cc, symObjAddr: 0xB690, symBinAddr: 0x10003F230, symSize: 0x30 }
  - { offset: 0x44E3B, size: 0x8, addend: 0x0, symName: __RNvXsg_NtCsjK30CmJ87bX_9hashbrown3rawINtB5_8RawTableTINtNtCslJiobkLta79_5alloc5boxed3BoxeEINtNtCsieiGu2EXtoJ_4core6option6OptionINtNtBU_4sync3ArcNtNtNtCsHUR1vrdMJt_3std3ffi6os_str5OsStrEEEENtNtNtB1v_3ops4drop4Drop4dropCseYC8vFNOjrM_2cc, symObjAddr: 0xB6C0, symBinAddr: 0x10003F260, symSize: 0x30 }
  - { offset: 0x44E77, size: 0x8, addend: 0x0, symName: __RNvXsg_NtCsjK30CmJ87bX_9hashbrown3rawINtB5_8RawTableTNtCseYC8vFNOjrM_2cc12CompilerFlagbEENtNtNtCsieiGu2EXtoJ_4core3ops4drop4Drop4dropBR_, symObjAddr: 0xB6F0, symBinAddr: 0x10003F290, symSize: 0x30 }
  - { offset: 0x4A55F, size: 0x8, addend: 0x0, symName: __RINvMs6_NtCsjK30CmJ87bX_9hashbrown3rawINtB6_8RawTableTINtNtCslJiobkLta79_5alloc5boxed3BoxSIBR_NtNtNtCsHUR1vrdMJt_3std3ffi6os_str5OsStrEENtNtCseYC8vFNOjrM_2cc4tool10ToolFamilyEE14reserve_rehashNCINvNtB8_3map11make_hasherBQ_B2a_NtNtNtB1A_4hash6random11RandomStateE0EB2e_, symObjAddr: 0x0, symBinAddr: 0x1001119B0, symSize: 0xD70 }
  - { offset: 0x4B032, size: 0x8, addend: 0x0, symName: __RINvMs6_NtCsjK30CmJ87bX_9hashbrown3rawINtB6_8RawTableTINtNtCslJiobkLta79_5alloc5boxed3BoxSIBR_NtNtNtCsHUR1vrdMJt_3std3ffi6os_str5OsStrEENtNtCseYC8vFNOjrM_2cc4tool10ToolFamilyEE24find_or_find_insert_slotNCINvNtB8_3map14equivalent_keyBQ_BQ_B2a_E0NCINvB3j_11make_hasherBQ_B2a_NtNtNtB1A_4hash6random11RandomStateE0EB2e_, symObjAddr: 0xD70, symBinAddr: 0x100037EB0, symSize: 0x160 }
  - { offset: 0x4B4FC, size: 0x8, addend: 0x0, symName: __RINvMs6_NtCsjK30CmJ87bX_9hashbrown3rawINtB6_8RawTableTINtNtCslJiobkLta79_5alloc5boxed3BoxSIBR_NtNtNtCsHUR1vrdMJt_3std3ffi6os_str5OsStrEENtNtCseYC8vFNOjrM_2cc4tool10ToolFamilyEE4findNCINvNtB8_3map14equivalent_keyBQ_BQ_B2a_E0EB2e_, symObjAddr: 0xED0, symBinAddr: 0x100038010, symSize: 0x480 }
  - { offset: 0x4BA15, size: 0x8, addend: 0x0, symName: __RINvMs6_NtCsjK30CmJ87bX_9hashbrown3rawINtB6_8RawTableTINtNtCslJiobkLta79_5alloc5boxed3BoxSIBR_NtNtNtCsHUR1vrdMJt_3std3ffi6os_str5OsStrEENtNtCseYC8vFNOjrM_2cc4tool10ToolFamilyEE7reserveNCINvNtB8_3map11make_hasherBQ_B2a_NtNtNtB1A_4hash6random11RandomStateE0EB2e_, symObjAddr: 0x1350, symBinAddr: 0x100038490, symSize: 0xC0 }
  - { offset: 0x4BAED, size: 0x8, addend: 0x0, symName: __RINvMs6_NtCsjK30CmJ87bX_9hashbrown3rawINtB6_8RawTableTINtNtCslJiobkLta79_5alloc5boxed3BoxeEINtNtBV_4sync3ArcNtNtNtCsHUR1vrdMJt_3std3ffi6os_str5OsStrEEE14reserve_rehashNCINvNtB8_3map11make_hasherBQ_B1r_NtNtNtB1O_4hash6random11RandomStateE0ECseYC8vFNOjrM_2cc, symObjAddr: 0x1410, symBinAddr: 0x100112720, symSize: 0xD70 }
  - { offset: 0x4C5C0, size: 0x8, addend: 0x0, symName: __RINvMs6_NtCsjK30CmJ87bX_9hashbrown3rawINtB6_8RawTableTINtNtCslJiobkLta79_5alloc5boxed3BoxeEINtNtBV_4sync3ArcNtNtNtCsHUR1vrdMJt_3std3ffi6os_str5OsStrEEE24find_or_find_insert_slotNCINvNtB8_3map14equivalent_keyBQ_BQ_B1r_E0NCINvB2U_11make_hasherBQ_B1r_NtNtNtB1O_4hash6random11RandomStateE0ECseYC8vFNOjrM_2cc, symObjAddr: 0x2180, symBinAddr: 0x100038550, symSize: 0x160 }
  - { offset: 0x4C84D, size: 0x8, addend: 0x0, symName: __RINvMs6_NtCsjK30CmJ87bX_9hashbrown3rawINtB6_8RawTableTINtNtCslJiobkLta79_5alloc5boxed3BoxeEINtNtBV_4sync3ArcNtNtNtCsHUR1vrdMJt_3std3ffi6os_str5OsStrEEE4findNCINvNtB8_3map14equivalent_keyeBQ_B1r_E0ECseYC8vFNOjrM_2cc, symObjAddr: 0x22E0, symBinAddr: 0x1000386B0, symSize: 0x490 }
  - { offset: 0x4CD59, size: 0x8, addend: 0x0, symName: __RINvMs6_NtCsjK30CmJ87bX_9hashbrown3rawINtB6_8RawTableTINtNtCslJiobkLta79_5alloc5boxed3BoxeEINtNtBV_4sync3ArcNtNtNtCsHUR1vrdMJt_3std3ffi6os_str5OsStrEEE7reserveNCINvNtB8_3map11make_hasherBQ_B1r_NtNtNtB1O_4hash6random11RandomStateE0ECseYC8vFNOjrM_2cc, symObjAddr: 0x2770, symBinAddr: 0x100038B40, symSize: 0xC0 }
  - { offset: 0x4CE31, size: 0x8, addend: 0x0, symName: __RINvMs6_NtCsjK30CmJ87bX_9hashbrown3rawINtB6_8RawTableTINtNtCslJiobkLta79_5alloc5boxed3BoxeEINtNtBV_4sync3ArceEEE14reserve_rehashNCINvNtB8_3map11make_hasherBQ_B1r_NtNtNtCsHUR1vrdMJt_3std4hash6random11RandomStateE0ECseYC8vFNOjrM_2cc, symObjAddr: 0x2830, symBinAddr: 0x100113490, symSize: 0xD70 }
  - { offset: 0x4D904, size: 0x8, addend: 0x0, symName: __RINvMs6_NtCsjK30CmJ87bX_9hashbrown3rawINtB6_8RawTableTINtNtCslJiobkLta79_5alloc5boxed3BoxeEINtNtBV_4sync3ArceEEE24find_or_find_insert_slotNCINvNtB8_3map14equivalent_keyBQ_BQ_B1r_E0NCINvB2h_11make_hasherBQ_B1r_NtNtNtCsHUR1vrdMJt_3std4hash6random11RandomStateE0ECseYC8vFNOjrM_2cc, symObjAddr: 0x35A0, symBinAddr: 0x100038C00, symSize: 0x160 }
  - { offset: 0x4DB91, size: 0x8, addend: 0x0, symName: __RINvMs6_NtCsjK30CmJ87bX_9hashbrown3rawINtB6_8RawTableTINtNtCslJiobkLta79_5alloc5boxed3BoxeEINtNtBV_4sync3ArceEEE4findNCINvNtB8_3map14equivalent_keyeBQ_B1r_E0ECseYC8vFNOjrM_2cc, symObjAddr: 0x3700, symBinAddr: 0x100038D60, symSize: 0x490 }
  - { offset: 0x4E09D, size: 0x8, addend: 0x0, symName: __RINvMs6_NtCsjK30CmJ87bX_9hashbrown3rawINtB6_8RawTableTINtNtCslJiobkLta79_5alloc5boxed3BoxeEINtNtBV_4sync3ArceEEE7reserveNCINvNtB8_3map11make_hasherBQ_B1r_NtNtNtCsHUR1vrdMJt_3std4hash6random11RandomStateE0ECseYC8vFNOjrM_2cc, symObjAddr: 0x3B90, symBinAddr: 0x1000391F0, symSize: 0xC0 }
  - { offset: 0x4E175, size: 0x8, addend: 0x0, symName: __RINvMs6_NtCsjK30CmJ87bX_9hashbrown3rawINtB6_8RawTableTINtNtCslJiobkLta79_5alloc5boxed3BoxeEINtNtCsieiGu2EXtoJ_4core6option6OptionINtNtBV_4sync3ArcNtNtNtCsHUR1vrdMJt_3std3ffi6os_str5OsStrEEEE14reserve_rehashNCINvNtB8_3map11make_hasherBQ_B1r_NtNtNtB2q_4hash6random11RandomStateE0ECseYC8vFNOjrM_2cc, symObjAddr: 0x3C50, symBinAddr: 0x100114200, symSize: 0xD70 }
  - { offset: 0x4EC48, size: 0x8, addend: 0x0, symName: __RINvMs6_NtCsjK30CmJ87bX_9hashbrown3rawINtB6_8RawTableTINtNtCslJiobkLta79_5alloc5boxed3BoxeEINtNtCsieiGu2EXtoJ_4core6option6OptionINtNtBV_4sync3ArcNtNtNtCsHUR1vrdMJt_3std3ffi6os_str5OsStrEEEE24find_or_find_insert_slotNCINvNtB8_3map14equivalent_keyBQ_BQ_B1r_E0NCINvB3x_11make_hasherBQ_B1r_NtNtNtB2q_4hash6random11RandomStateE0ECseYC8vFNOjrM_2cc, symObjAddr: 0x49C0, symBinAddr: 0x1000392B0, symSize: 0x160 }
  - { offset: 0x4EED5, size: 0x8, addend: 0x0, symName: __RINvMs6_NtCsjK30CmJ87bX_9hashbrown3rawINtB6_8RawTableTINtNtCslJiobkLta79_5alloc5boxed3BoxeEINtNtCsieiGu2EXtoJ_4core6option6OptionINtNtBV_4sync3ArcNtNtNtCsHUR1vrdMJt_3std3ffi6os_str5OsStrEEEE4findNCINvNtB8_3map14equivalent_keyeBQ_B1r_E0ECseYC8vFNOjrM_2cc, symObjAddr: 0x4B20, symBinAddr: 0x100039410, symSize: 0x490 }
  - { offset: 0x4F3E1, size: 0x8, addend: 0x0, symName: __RINvMs6_NtCsjK30CmJ87bX_9hashbrown3rawINtB6_8RawTableTINtNtCslJiobkLta79_5alloc5boxed3BoxeEINtNtCsieiGu2EXtoJ_4core6option6OptionINtNtBV_4sync3ArcNtNtNtCsHUR1vrdMJt_3std3ffi6os_str5OsStrEEEE7reserveNCINvNtB8_3map11make_hasherBQ_B1r_NtNtNtB2q_4hash6random11RandomStateE0ECseYC8vFNOjrM_2cc, symObjAddr: 0x4FB0, symBinAddr: 0x1000398A0, symSize: 0xC0 }
  - { offset: 0x4F4B9, size: 0x8, addend: 0x0, symName: __RINvMs6_NtCsjK30CmJ87bX_9hashbrown3rawINtB6_8RawTableTNtCseYC8vFNOjrM_2cc12CompilerFlagbEE14reserve_rehashNCINvNtB8_3map11make_hasherBQ_bNtNtNtCsHUR1vrdMJt_3std4hash6random11RandomStateE0EBS_, symObjAddr: 0x5070, symBinAddr: 0x100114F70, symSize: 0xD50 }
  - { offset: 0x4FF8C, size: 0x8, addend: 0x0, symName: __RINvMs6_NtCsjK30CmJ87bX_9hashbrown3rawINtB6_8RawTableTNtCseYC8vFNOjrM_2cc12CompilerFlagbEE24find_or_find_insert_slotNCINvNtB8_3map14equivalent_keyBQ_BQ_bE0NCINvB1V_11make_hasherBQ_bNtNtNtCsHUR1vrdMJt_3std4hash6random11RandomStateE0EBS_, symObjAddr: 0x5DC0, symBinAddr: 0x100039960, symSize: 0x160 }
  - { offset: 0x50219, size: 0x8, addend: 0x0, symName: __RINvMs6_NtCsjK30CmJ87bX_9hashbrown3rawINtB6_8RawTableTNtCseYC8vFNOjrM_2cc12CompilerFlagbEE4findNCINvNtB8_3map14equivalent_keyBQ_BQ_bE0EBS_, symObjAddr: 0x5F20, symBinAddr: 0x100039AC0, symSize: 0x480 }
  - { offset: 0x50725, size: 0x8, addend: 0x0, symName: __RINvMs6_NtCsjK30CmJ87bX_9hashbrown3rawINtB6_8RawTableTNtCseYC8vFNOjrM_2cc12CompilerFlagbEE7reserveNCINvNtB8_3map11make_hasherBQ_bNtNtNtCsHUR1vrdMJt_3std4hash6random11RandomStateE0EBS_, symObjAddr: 0x63A0, symBinAddr: 0x100039F40, symSize: 0xC0 }
  - { offset: 0x50917, size: 0x8, addend: 0x0, symName: __RINvMsa_NtCsjK30CmJ87bX_9hashbrown3rawNtB6_13RawTableInner13drop_elementsTINtNtCslJiobkLta79_5alloc5boxed3BoxSIB1b_NtNtNtCsHUR1vrdMJt_3std3ffi6os_str5OsStrEENtNtCseYC8vFNOjrM_2cc4tool10ToolFamilyEEB2z_, symObjAddr: 0x6460, symBinAddr: 0x10003A000, symSize: 0x1D0 }
  - { offset: 0x50C6E, size: 0x8, addend: 0x0, symName: __RINvMsa_NtCsjK30CmJ87bX_9hashbrown3rawNtB6_13RawTableInner13drop_elementsTINtNtCslJiobkLta79_5alloc5boxed3BoxeEINtNtB1f_4sync3ArcNtNtNtCsHUR1vrdMJt_3std3ffi6os_str5OsStrEEECseYC8vFNOjrM_2cc, symObjAddr: 0x6630, symBinAddr: 0x10003A1D0, symSize: 0x1D0 }
  - { offset: 0x50FC5, size: 0x8, addend: 0x0, symName: __RINvMsa_NtCsjK30CmJ87bX_9hashbrown3rawNtB6_13RawTableInner13drop_elementsTINtNtCslJiobkLta79_5alloc5boxed3BoxeEINtNtB1f_4sync3ArceEEECseYC8vFNOjrM_2cc, symObjAddr: 0x6800, symBinAddr: 0x10003A3A0, symSize: 0x1D0 }
  - { offset: 0x5131C, size: 0x8, addend: 0x0, symName: __RINvMsa_NtCsjK30CmJ87bX_9hashbrown3rawNtB6_13RawTableInner13drop_elementsTINtNtCslJiobkLta79_5alloc5boxed3BoxeEINtNtCsieiGu2EXtoJ_4core6option6OptionINtNtB1f_4sync3ArcNtNtNtCsHUR1vrdMJt_3std3ffi6os_str5OsStrEEEECseYC8vFNOjrM_2cc, symObjAddr: 0x69D0, symBinAddr: 0x10003A570, symSize: 0x1D0 }
  - { offset: 0x51673, size: 0x8, addend: 0x0, symName: __RINvMsa_NtCsjK30CmJ87bX_9hashbrown3rawNtB6_13RawTableInner13drop_elementsTNtCseYC8vFNOjrM_2cc12CompilerFlagbEEB1c_, symObjAddr: 0x6BA0, symBinAddr: 0x10003A740, symSize: 0x1D0 }
  - { offset: 0x519D6, size: 0x8, addend: 0x0, symName: __RINvMsa_NtCsjK30CmJ87bX_9hashbrown3rawNtB6_13RawTableInner16drop_inner_tableTINtNtCslJiobkLta79_5alloc5boxed3BoxSIB1e_NtNtNtCsHUR1vrdMJt_3std3ffi6os_str5OsStrEENtNtCseYC8vFNOjrM_2cc4tool10ToolFamilyENtNtB1i_5alloc6GlobalEB2C_, symObjAddr: 0x6D70, symBinAddr: 0x10003A910, symSize: 0xD0 }
  - { offset: 0x51C4F, size: 0x8, addend: 0x0, symName: __RINvMsa_NtCsjK30CmJ87bX_9hashbrown3rawNtB6_13RawTableInner16drop_inner_tableTINtNtCslJiobkLta79_5alloc5boxed3BoxeEINtNtB1i_4sync3ArcNtNtNtCsHUR1vrdMJt_3std3ffi6os_str5OsStrEENtNtB1i_5alloc6GlobalECseYC8vFNOjrM_2cc, symObjAddr: 0x6E40, symBinAddr: 0x10003A9E0, symSize: 0xD0 }
  - { offset: 0x51EC8, size: 0x8, addend: 0x0, symName: __RINvMsa_NtCsjK30CmJ87bX_9hashbrown3rawNtB6_13RawTableInner16drop_inner_tableTINtNtCslJiobkLta79_5alloc5boxed3BoxeEINtNtB1i_4sync3ArceEENtNtB1i_5alloc6GlobalECseYC8vFNOjrM_2cc, symObjAddr: 0x6F10, symBinAddr: 0x10003AAB0, symSize: 0xD0 }
  - { offset: 0x52141, size: 0x8, addend: 0x0, symName: __RINvMsa_NtCsjK30CmJ87bX_9hashbrown3rawNtB6_13RawTableInner16drop_inner_tableTINtNtCslJiobkLta79_5alloc5boxed3BoxeEINtNtCsieiGu2EXtoJ_4core6option6OptionINtNtB1i_4sync3ArcNtNtNtCsHUR1vrdMJt_3std3ffi6os_str5OsStrEEENtNtB1i_5alloc6GlobalECseYC8vFNOjrM_2cc, symObjAddr: 0x6FE0, symBinAddr: 0x10003AB80, symSize: 0xD0 }
  - { offset: 0x523BA, size: 0x8, addend: 0x0, symName: __RINvMsa_NtCsjK30CmJ87bX_9hashbrown3rawNtB6_13RawTableInner16drop_inner_tableTNtCseYC8vFNOjrM_2cc12CompilerFlagbENtNtCslJiobkLta79_5alloc5alloc6GlobalEB1f_, symObjAddr: 0x70B0, symBinAddr: 0x10003AC50, symSize: 0xD0 }
  - { offset: 0x525B6, size: 0x8, addend: 0x0, symName: __RINvMsa_NtCsjK30CmJ87bX_9hashbrown3rawNtB6_13RawTableInner17new_uninitializedNtNtCslJiobkLta79_5alloc5alloc6GlobalECseYC8vFNOjrM_2cc, symObjAddr: 0x7180, symBinAddr: 0x10003AD20, symSize: 0x290 }
  - { offset: 0x5280A, size: 0x8, addend: 0x0, symName: __RINvMsa_NtCsjK30CmJ87bX_9hashbrown3rawNtB6_13RawTableInner22fallible_with_capacityNtNtCslJiobkLta79_5alloc5alloc6GlobalECseYC8vFNOjrM_2cc, symObjAddr: 0x7410, symBinAddr: 0x10003AFB0, symSize: 0x430 }
  - { offset: 0x52CD3, size: 0x8, addend: 0x0, symName: __RINvMsi_NtCsjK30CmJ87bX_9hashbrown3rawINtB6_12RawIterRangeTINtNtCslJiobkLta79_5alloc5boxed3BoxSIBW_NtNtNtCsHUR1vrdMJt_3std3ffi6os_str5OsStrEENtNtCseYC8vFNOjrM_2cc4tool10ToolFamilyEE9next_implKb0_EB2j_, symObjAddr: 0x7840, symBinAddr: 0x10003B3E0, symSize: 0x290 }
  - { offset: 0x531DD, size: 0x8, addend: 0x0, symName: __RINvMsi_NtCsjK30CmJ87bX_9hashbrown3rawINtB6_12RawIterRangeTINtNtCslJiobkLta79_5alloc5boxed3BoxeEINtNtB10_4sync3ArcNtNtNtCsHUR1vrdMJt_3std3ffi6os_str5OsStrEEE9next_implKb0_ECseYC8vFNOjrM_2cc, symObjAddr: 0x7AD0, symBinAddr: 0x10003B670, symSize: 0x290 }
  - { offset: 0x536E7, size: 0x8, addend: 0x0, symName: __RINvMsi_NtCsjK30CmJ87bX_9hashbrown3rawINtB6_12RawIterRangeTINtNtCslJiobkLta79_5alloc5boxed3BoxeEINtNtB10_4sync3ArceEEE9next_implKb0_ECseYC8vFNOjrM_2cc, symObjAddr: 0x7D60, symBinAddr: 0x10003B900, symSize: 0x290 }
  - { offset: 0x53BF1, size: 0x8, addend: 0x0, symName: __RINvMsi_NtCsjK30CmJ87bX_9hashbrown3rawINtB6_12RawIterRangeTINtNtCslJiobkLta79_5alloc5boxed3BoxeEINtNtCsieiGu2EXtoJ_4core6option6OptionINtNtB10_4sync3ArcNtNtNtCsHUR1vrdMJt_3std3ffi6os_str5OsStrEEEE9next_implKb0_ECseYC8vFNOjrM_2cc, symObjAddr: 0x7FF0, symBinAddr: 0x10003BB90, symSize: 0x290 }
  - { offset: 0x540FB, size: 0x8, addend: 0x0, symName: __RINvMsi_NtCsjK30CmJ87bX_9hashbrown3rawINtB6_12RawIterRangeTNtCseYC8vFNOjrM_2cc12CompilerFlagbEE9next_implKb0_EBX_, symObjAddr: 0x8280, symBinAddr: 0x10003BE20, symSize: 0x290 }
  - { offset: 0x559CE, size: 0x8, addend: 0x0, symName: __RNvMs1_NtCsjK30CmJ87bX_9hashbrown3rawNtB5_11TableLayout20calculate_layout_forCseYC8vFNOjrM_2cc, symObjAddr: 0x9370, symBinAddr: 0x10003CF10, symSize: 0x2F0 }
  - { offset: 0x55E71, size: 0x8, addend: 0x0, symName: __RNvMs6_NtCsjK30CmJ87bX_9hashbrown3rawINtB5_8RawTableTINtNtCslJiobkLta79_5alloc5boxed3BoxSIBQ_NtNtNtCsHUR1vrdMJt_3std3ffi6os_str5OsStrEENtNtCseYC8vFNOjrM_2cc4tool10ToolFamilyEE14insert_in_slotB2d_, symObjAddr: 0x9660, symBinAddr: 0x10003D200, symSize: 0x150 }
  - { offset: 0x563B4, size: 0x8, addend: 0x0, symName: __RNvMs6_NtCsjK30CmJ87bX_9hashbrown3rawINtB5_8RawTableTINtNtCslJiobkLta79_5alloc5boxed3BoxeEINtNtBU_4sync3ArcNtNtNtCsHUR1vrdMJt_3std3ffi6os_str5OsStrEEE14insert_in_slotCseYC8vFNOjrM_2cc, symObjAddr: 0x97B0, symBinAddr: 0x10003D350, symSize: 0x150 }
  - { offset: 0x568F7, size: 0x8, addend: 0x0, symName: __RNvMs6_NtCsjK30CmJ87bX_9hashbrown3rawINtB5_8RawTableTINtNtCslJiobkLta79_5alloc5boxed3BoxeEINtNtBU_4sync3ArceEEE14insert_in_slotCseYC8vFNOjrM_2cc, symObjAddr: 0x9900, symBinAddr: 0x10003D4A0, symSize: 0x150 }
  - { offset: 0x56E3A, size: 0x8, addend: 0x0, symName: __RNvMs6_NtCsjK30CmJ87bX_9hashbrown3rawINtB5_8RawTableTINtNtCslJiobkLta79_5alloc5boxed3BoxeEINtNtCsieiGu2EXtoJ_4core6option6OptionINtNtBU_4sync3ArcNtNtNtCsHUR1vrdMJt_3std3ffi6os_str5OsStrEEEE14insert_in_slotCseYC8vFNOjrM_2cc, symObjAddr: 0x9A50, symBinAddr: 0x10003D5F0, symSize: 0x150 }
  - { offset: 0x5737D, size: 0x8, addend: 0x0, symName: __RNvMs6_NtCsjK30CmJ87bX_9hashbrown3rawINtB5_8RawTableTNtCseYC8vFNOjrM_2cc12CompilerFlagbEE14insert_in_slotBR_, symObjAddr: 0x9BA0, symBinAddr: 0x10003D740, symSize: 0x140 }
  - { offset: 0x5781D, size: 0x8, addend: 0x0, symName: __RNvMsa_NtCsjK30CmJ87bX_9hashbrown3rawNtB5_13RawTableInner15fix_insert_slotCseYC8vFNOjrM_2cc, symObjAddr: 0x9CE0, symBinAddr: 0x10003D880, symSize: 0x140 }
  - { offset: 0x57BB6, size: 0x8, addend: 0x0, symName: __RNvMsa_NtCsjK30CmJ87bX_9hashbrown3rawNtB5_13RawTableInner15rehash_in_placeCseYC8vFNOjrM_2cc, symObjAddr: 0x9E20, symBinAddr: 0x10003D9C0, symSize: 0x5B0 }
  - { offset: 0x58382, size: 0x8, addend: 0x0, symName: __RNvMsa_NtCsjK30CmJ87bX_9hashbrown3rawNtB5_13RawTableInner16find_insert_slotCseYC8vFNOjrM_2cc, symObjAddr: 0xA3D0, symBinAddr: 0x10003DF70, symSize: 0x130 }
  - { offset: 0x58581, size: 0x8, addend: 0x0, symName: __RNvMsa_NtCsjK30CmJ87bX_9hashbrown3rawNtB5_13RawTableInner19prepare_insert_slotCseYC8vFNOjrM_2cc, symObjAddr: 0xA500, symBinAddr: 0x10003E0A0, symSize: 0x60 }
  - { offset: 0x58872, size: 0x8, addend: 0x0, symName: __RNvMsa_NtCsjK30CmJ87bX_9hashbrown3rawNtB5_13RawTableInner23prepare_rehash_in_placeCseYC8vFNOjrM_2cc, symObjAddr: 0xA560, symBinAddr: 0x10003E100, symSize: 0x340 }
  - { offset: 0x58F99, size: 0x8, addend: 0x0, symName: __RNvMsa_NtCsjK30CmJ87bX_9hashbrown3rawNtB5_13RawTableInner25find_insert_slot_in_groupCseYC8vFNOjrM_2cc, symObjAddr: 0xA8A0, symBinAddr: 0x10003E440, symSize: 0x160 }
  - { offset: 0x59297, size: 0x8, addend: 0x0, symName: __RNvMsa_NtCsjK30CmJ87bX_9hashbrown3rawNtB5_13RawTableInner30find_or_find_insert_slot_innerCseYC8vFNOjrM_2cc, symObjAddr: 0xAA00, symBinAddr: 0x10003E5A0, symSize: 0x410 }
  - { offset: 0x59726, size: 0x8, addend: 0x0, symName: __RNvMsi_NtCsjK30CmJ87bX_9hashbrown3rawINtB5_12RawIterRangeTINtNtCslJiobkLta79_5alloc5boxed3BoxSIBV_NtNtNtCsHUR1vrdMJt_3std3ffi6os_str5OsStrEENtNtCseYC8vFNOjrM_2cc4tool10ToolFamilyEE3newB2i_, symObjAddr: 0xAE10, symBinAddr: 0x10003E9B0, symSize: 0x120 }
  - { offset: 0x59A46, size: 0x8, addend: 0x0, symName: __RNvMsi_NtCsjK30CmJ87bX_9hashbrown3rawINtB5_12RawIterRangeTINtNtCslJiobkLta79_5alloc5boxed3BoxeEINtNtBZ_4sync3ArcNtNtNtCsHUR1vrdMJt_3std3ffi6os_str5OsStrEEE3newCseYC8vFNOjrM_2cc, symObjAddr: 0xAF30, symBinAddr: 0x10003EAD0, symSize: 0x120 }
  - { offset: 0x59D66, size: 0x8, addend: 0x0, symName: __RNvMsi_NtCsjK30CmJ87bX_9hashbrown3rawINtB5_12RawIterRangeTINtNtCslJiobkLta79_5alloc5boxed3BoxeEINtNtBZ_4sync3ArceEEE3newCseYC8vFNOjrM_2cc, symObjAddr: 0xB050, symBinAddr: 0x10003EBF0, symSize: 0x120 }
  - { offset: 0x5A086, size: 0x8, addend: 0x0, symName: __RNvMsi_NtCsjK30CmJ87bX_9hashbrown3rawINtB5_12RawIterRangeTINtNtCslJiobkLta79_5alloc5boxed3BoxeEINtNtCsieiGu2EXtoJ_4core6option6OptionINtNtBZ_4sync3ArcNtNtNtCsHUR1vrdMJt_3std3ffi6os_str5OsStrEEEE3newCseYC8vFNOjrM_2cc, symObjAddr: 0xB170, symBinAddr: 0x10003ED10, symSize: 0x120 }
  - { offset: 0x5A3A6, size: 0x8, addend: 0x0, symName: __RNvMsi_NtCsjK30CmJ87bX_9hashbrown3rawINtB5_12RawIterRangeTNtCseYC8vFNOjrM_2cc12CompilerFlagbEE3newBW_, symObjAddr: 0xB290, symBinAddr: 0x10003EE30, symSize: 0x120 }
  - { offset: 0x5DF65, size: 0x8, addend: 0x0, symName: __RNvMNtCsieiGu2EXtoJ_4core5sliceSRINtNtCslJiobkLta79_5alloc3vec3VechE4iterCseYC8vFNOjrM_2cc, symObjAddr: 0x2370, symBinAddr: 0x100040FF0, symSize: 0x20 }
  - { offset: 0x5F84E, size: 0x8, addend: 0x0, symName: __RINvNvMs_NtCslJiobkLta79_5alloc3vecINtB7_3VecppE10retain_mut12process_loopNCNCNCNvNtNtCseYC8vFNOjrM_2cc8parallel14command_runner24run_commands_in_parallel000TNtNtCsHUR1vrdMJt_3std7process7CommandNtB1i_10KillOnDropNtNtB1k_9job_token8JobTokenENtNtB9_5alloc6GlobalKb0_EB1m_, symObjAddr: 0x1CC0, symBinAddr: 0x100040A20, symSize: 0xC0 }
  - { offset: 0x5F9A2, size: 0x8, addend: 0x0, symName: __RINvNvMs_NtCslJiobkLta79_5alloc3vecINtB7_3VecppE10retain_mut12process_loopNCNCNCNvNtNtCseYC8vFNOjrM_2cc8parallel14command_runner24run_commands_in_parallel000TNtNtCsHUR1vrdMJt_3std7process7CommandNtB1i_10KillOnDropNtNtB1k_9job_token8JobTokenENtNtB9_5alloc6GlobalKb1_EB1m_, symObjAddr: 0x1D80, symBinAddr: 0x100040AE0, symSize: 0x130 }
  - { offset: 0x5FB98, size: 0x8, addend: 0x0, symName: __RNvXNvMs_NtCslJiobkLta79_5alloc3vecINtB7_3VecppE10retain_mutINtB2_15BackshiftOnDropTNtNtCsHUR1vrdMJt_3std7process7CommandNtNtNtCseYC8vFNOjrM_2cc8parallel14command_runner10KillOnDropNtNtB1Z_9job_token8JobTokenENtNtB9_5alloc6GlobalENtNtNtCsieiGu2EXtoJ_4core3ops4drop4Drop4dropB21_, symObjAddr: 0x50F0, symBinAddr: 0x100043A80, symSize: 0x190 }
  - { offset: 0x5FDF7, size: 0x8, addend: 0x0, symName: __RNvNvMs_NtCslJiobkLta79_5alloc3vecINtB6_3VecppE17from_raw_parts_in18precondition_checkCseYC8vFNOjrM_2cc, symObjAddr: 0x4250, symBinAddr: 0x100042D70, symSize: 0xA0 }
  - { offset: 0x5FE65, size: 0x8, addend: 0x0, symName: __RNvNvMs_NtCslJiobkLta79_5alloc3vecINtB6_3VecppE7set_len18precondition_checkCseYC8vFNOjrM_2cc, symObjAddr: 0x42F0, symBinAddr: 0x100042E10, symSize: 0xA0 }
  - { offset: 0x613AA, size: 0x8, addend: 0x0, symName: __RINvXsd_NtCslJiobkLta79_5alloc3vecINtB6_3VecINtNtB8_5boxed3BoxNtNtNtCsHUR1vrdMJt_3std3ffi6os_str5OsStrEEINtNtNtNtCsieiGu2EXtoJ_4core4iter6traits7collect12FromIteratorBG_E9from_iterINtNtNtB1L_8adapters3map3MapINtNtB2X_5chain5ChainINtNtB2X_6cloned6ClonedINtNtNtB1N_5slice4iter4IterRBY_EEIB2T_IB43_NtNtB8_6string6StringEINvMsl_B10_BY_3newB4J_EEENvYB4t_INtNtB1N_7convert4IntoBG_E4intoEECseYC8vFNOjrM_2cc, symObjAddr: 0x1EB0, symBinAddr: 0x100040C10, symSize: 0x40 }
  - { offset: 0x613EB, size: 0x8, addend: 0x0, symName: __RINvXsd_NtCslJiobkLta79_5alloc3vecINtB6_3VecNtNtB8_6string6StringEINtNtNtNtCsieiGu2EXtoJ_4core4iter6traits7collect12FromIteratorBG_E9from_iterINtNtNtB19_8adapters3map3MapNtNtNtB1b_3str4iter15SplitWhitespaceNCNvMs4_CseYC8vFNOjrM_2ccNtB3q_5Build8env_tool0EEB3q_, symObjAddr: 0x1EF0, symBinAddr: 0x100040C50, symSize: 0x40 }
  - { offset: 0x6142C, size: 0x8, addend: 0x0, symName: __RINvXsd_NtCslJiobkLta79_5alloc3vecINtB6_3VecNtNtB8_6string6StringEINtNtNtNtCsieiGu2EXtoJ_4core4iter6traits7collect12FromIteratorBG_E9from_iterINtNtNtB19_8adapters3map3MapNtNtNtB1b_3str4iter15SplitWhitespaceNCNvMs4_CseYC8vFNOjrM_2ccNtB3q_5Build8env_tools_0EEB3q_, symObjAddr: 0x1F30, symBinAddr: 0x100040C90, symSize: 0x40 }
  - { offset: 0x6146D, size: 0x8, addend: 0x0, symName: __RINvXsd_NtCslJiobkLta79_5alloc3vecINtB6_3VecRNtNtCsHUR1vrdMJt_3std4path4PathEINtNtNtNtCsieiGu2EXtoJ_4core4iter6traits7collect12FromIteratorBG_E9from_iterINtNtNtB1k_8adapters5chain5ChainINtNtB2w_3map3MapINtNtNtB1m_5slice4iter4IterNtCseYC8vFNOjrM_2cc6ObjectENCNvMs4_B3H_NtB3H_5Build8assemble0EIB2Y_IB3f_INtNtB8_4sync3ArcBH_EENvYB4P_NtNtNtB1m_3ops5deref5Deref5derefEEEB3H_, symObjAddr: 0x1FB0, symBinAddr: 0x100040CD0, symSize: 0x40 }
  - { offset: 0x614AE, size: 0x8, addend: 0x0, symName: __RINvXsd_NtCslJiobkLta79_5alloc3vecINtB6_3VecReEINtNtNtNtCsieiGu2EXtoJ_4core4iter6traits7collect12FromIteratorBG_E9from_iterINtNtNtBS_3str4iter5SplitcEECseYC8vFNOjrM_2cc, symObjAddr: 0x1FF0, symBinAddr: 0x100040D10, symSize: 0x40 }
  - { offset: 0x614EF, size: 0x8, addend: 0x0, symName: __RINvXsd_NtCslJiobkLta79_5alloc3vecINtB6_3VecTNtNtNtCsHUR1vrdMJt_3std3ffi6os_str8OsStringBH_EEINtNtNtNtCsieiGu2EXtoJ_4core4iter6traits7collect12FromIteratorBG_E9from_iterINtNtNtB1A_8adapters3map3MapINtNtNtB1C_5slice4iter4IterBG_ENCNvMNtCseYC8vFNOjrM_2cc4toolNtB3J_4Tool20from_find_msvc_tools0EEB3L_, symObjAddr: 0x2030, symBinAddr: 0x100040D50, symSize: 0x60 }
  - { offset: 0x6152F, size: 0x8, addend: 0x0, symName: __RINvXsd_NtCslJiobkLta79_5alloc3vecINtB6_3VechEINtNtNtNtCsieiGu2EXtoJ_4core4iter6traits7collect12FromIteratorhE9from_iterINtNtNtBP_8adapters3map3MapINtNtNtBR_5slice4iter4IterhENCNvNtB8_3str13replace_ascii0EECseYC8vFNOjrM_2cc, symObjAddr: 0x2090, symBinAddr: 0x100040DB0, symSize: 0x40 }
  - { offset: 0x61576, size: 0x8, addend: 0x0, symName: __RINvXsh_NtCslJiobkLta79_5alloc3vecINtB6_3VecNtNtB8_6string6StringEINtNtNtNtCsieiGu2EXtoJ_4core4iter6traits7collect6ExtendBG_E6extendINtNtNtB19_8adapters3map3MapNtNtNtB1b_3str4iter20SplitAsciiWhitespaceNvYeNtBI_8ToString9to_stringEECseYC8vFNOjrM_2cc, symObjAddr: 0x2110, symBinAddr: 0x100040DF0, symSize: 0x40 }
  - { offset: 0x615CB, size: 0x8, addend: 0x0, symName: __RINvXsh_NtCslJiobkLta79_5alloc3vecINtB6_3VecNtNtB8_6string6StringEINtNtNtNtCsieiGu2EXtoJ_4core4iter6traits7collect6ExtendBG_E6extendNtCs6EOBT9HYl7a_5shlex5ShlexECseYC8vFNOjrM_2cc, symObjAddr: 0x2150, symBinAddr: 0x100040E30, symSize: 0x40 }
  - { offset: 0x61620, size: 0x8, addend: 0x0, symName: __RINvXsh_NtCslJiobkLta79_5alloc3vecINtB6_3VecNtNtNtCsHUR1vrdMJt_3std3ffi6os_str8OsStringEINtNtNtNtCsieiGu2EXtoJ_4core4iter6traits7collect6ExtendBG_E6extendABG_j6_ECseYC8vFNOjrM_2cc, symObjAddr: 0x2190, symBinAddr: 0x100040E70, symSize: 0x50 }
  - { offset: 0x61680, size: 0x8, addend: 0x0, symName: __RNCINvMsi_NtCslJiobkLta79_5alloc3vecINtB8_3VecINtNtBa_5boxed3BoxNtNtNtCsHUR1vrdMJt_3std3ffi6os_str5OsStrEE14extend_trustedINtNtNtNtCsieiGu2EXtoJ_4core4iter8adapters3map3MapINtNtB21_5chain5ChainINtNtB21_6cloned6ClonedINtNtNtB25_5slice4iter4IterRB10_EEIB1X_IB3t_NtNtBa_6string6StringEINvMsl_B12_B10_3newB4a_EEENvYB3T_INtNtB25_7convert4IntoBI_E4intoEE0CseYC8vFNOjrM_2cc, symObjAddr: 0x2240, symBinAddr: 0x100040EC0, symSize: 0x40 }
  - { offset: 0x6173D, size: 0x8, addend: 0x0, symName: __RNCINvMsi_NtCslJiobkLta79_5alloc3vecINtB8_3VecNtNtNtCsHUR1vrdMJt_3std3ffi6os_str8OsStringE14extend_trustedINtNtNtCsieiGu2EXtoJ_4core5array4iter8IntoIterBI_Kj6_EE0CseYC8vFNOjrM_2cc, symObjAddr: 0x2280, symBinAddr: 0x100040F00, symSize: 0x40 }
  - { offset: 0x617E5, size: 0x8, addend: 0x0, symName: __RNCINvMsi_NtCslJiobkLta79_5alloc3vecINtB8_3VecRNtNtCsHUR1vrdMJt_3std4path4PathE14extend_trustedINtNtNtNtCsieiGu2EXtoJ_4core4iter8adapters5chain5ChainINtNtB1A_3map3MapINtNtNtB1E_5slice4iter4IterNtCseYC8vFNOjrM_2cc6ObjectENCNvMs4_B37_NtB37_5Build8assemble0EIB2o_IB2F_INtNtBa_4sync3ArcBJ_EENvYB4f_NtNtNtB1E_3ops5deref5Deref5derefEEE0B37_, symObjAddr: 0x22C0, symBinAddr: 0x100040F40, symSize: 0x40 }
  - { offset: 0x618A2, size: 0x8, addend: 0x0, symName: __RNCINvMsi_NtCslJiobkLta79_5alloc3vecINtB8_3VecTNtNtNtCsHUR1vrdMJt_3std3ffi6os_str8OsStringBJ_EE14extend_trustedINtNtNtNtCsieiGu2EXtoJ_4core4iter8adapters3map3MapINtNtNtB1U_5slice4iter4IterBI_ENCNvMNtCseYC8vFNOjrM_2cc4toolNtB39_4Tool20from_find_msvc_tools0EE0B3b_, symObjAddr: 0x2300, symBinAddr: 0x100040F80, symSize: 0x40 }
  - { offset: 0x6194B, size: 0x8, addend: 0x0, symName: __RNCINvMsi_NtCslJiobkLta79_5alloc3vecINtB8_3VechE14extend_trustedINtNtNtNtCsieiGu2EXtoJ_4core4iter8adapters3map3MapINtNtNtB19_5slice4iter4IterhENCNvNtBa_3str13replace_ascii0EE0CseYC8vFNOjrM_2cc, symObjAddr: 0x2340, symBinAddr: 0x100040FC0, symSize: 0x30 }
  - { offset: 0x61DFF, size: 0x8, addend: 0x0, symName: __RNvXNtNtCslJiobkLta79_5alloc3vec11spec_extendINtB4_3VecNtNtB6_6string6StringEINtB2_10SpecExtendBR_INtNtNtNtCsieiGu2EXtoJ_4core4iter8adapters3map3MapNtNtNtB1H_3str4iter15SplitWhitespaceNCNvMs4_CseYC8vFNOjrM_2ccNtB34_5Build8env_tool0EE11spec_extendB34_, symObjAddr: 0x4390, symBinAddr: 0x100042EB0, symSize: 0x20 }
  - { offset: 0x61E51, size: 0x8, addend: 0x0, symName: __RNvXNtNtCslJiobkLta79_5alloc3vec11spec_extendINtB4_3VecNtNtB6_6string6StringEINtB2_10SpecExtendBR_INtNtNtNtCsieiGu2EXtoJ_4core4iter8adapters3map3MapNtNtNtB1H_3str4iter15SplitWhitespaceNCNvMs4_CseYC8vFNOjrM_2ccNtB34_5Build8env_tools_0EE11spec_extendB34_, symObjAddr: 0x43B0, symBinAddr: 0x100042ED0, symSize: 0x20 }
  - { offset: 0x61EA3, size: 0x8, addend: 0x0, symName: __RNvXNtNtCslJiobkLta79_5alloc3vec11spec_extendINtB4_3VecNtNtB6_6string6StringEINtB2_10SpecExtendBR_INtNtNtNtCsieiGu2EXtoJ_4core4iter8adapters3map3MapNtNtNtB1H_3str4iter20SplitAsciiWhitespaceNvYeNtBT_8ToString9to_stringEE11spec_extendCseYC8vFNOjrM_2cc, symObjAddr: 0x43D0, symBinAddr: 0x100042EF0, symSize: 0x20 }
  - { offset: 0x61EF5, size: 0x8, addend: 0x0, symName: __RNvXNtNtCslJiobkLta79_5alloc3vec11spec_extendINtB4_3VecNtNtB6_6string6StringEINtB2_10SpecExtendBR_NtCs6EOBT9HYl7a_5shlex5ShlexE11spec_extendCseYC8vFNOjrM_2cc, symObjAddr: 0x43F0, symBinAddr: 0x100042F10, symSize: 0x20 }
  - { offset: 0x61F47, size: 0x8, addend: 0x0, symName: __RNvXNtNtCslJiobkLta79_5alloc3vec11spec_extendINtB4_3VecReEINtB2_10SpecExtendBR_INtNtNtCsieiGu2EXtoJ_4core3str4iter5SplitcEE11spec_extendCseYC8vFNOjrM_2cc, symObjAddr: 0x4410, symBinAddr: 0x100042F30, symSize: 0x20 }
  - { offset: 0x61F9F, size: 0x8, addend: 0x0, symName: __RNvXs_NtNtCslJiobkLta79_5alloc3vec11spec_extendINtB6_3VecINtNtB8_5boxed3BoxNtNtNtCsHUR1vrdMJt_3std3ffi6os_str5OsStrEEINtB4_10SpecExtendBT_INtNtNtNtCsieiGu2EXtoJ_4core4iter8adapters3map3MapINtNtB2h_5chain5ChainINtNtB2h_6cloned6ClonedINtNtNtB2l_5slice4iter4IterRB1b_EEIB2d_IB3J_NtNtB8_6string6StringEINvMsl_B1d_B1b_3newB4q_EEENvYB49_INtNtB2l_7convert4IntoBT_E4intoEE11spec_extendCseYC8vFNOjrM_2cc, symObjAddr: 0x56A0, symBinAddr: 0x100044010, symSize: 0x20 }
  - { offset: 0x61FF1, size: 0x8, addend: 0x0, symName: __RNvXs_NtNtCslJiobkLta79_5alloc3vec11spec_extendINtB6_3VecNtNtNtCsHUR1vrdMJt_3std3ffi6os_str8OsStringEINtB4_10SpecExtendBT_INtNtNtCsieiGu2EXtoJ_4core5array4iter8IntoIterBT_Kj6_EE11spec_extendCseYC8vFNOjrM_2cc, symObjAddr: 0x56C0, symBinAddr: 0x100044030, symSize: 0x20 }
  - { offset: 0x62043, size: 0x8, addend: 0x0, symName: __RNvXs_NtNtCslJiobkLta79_5alloc3vec11spec_extendINtB6_3VecRNtNtCsHUR1vrdMJt_3std4path4PathEINtB4_10SpecExtendBT_INtNtNtNtCsieiGu2EXtoJ_4core4iter8adapters5chain5ChainINtNtB1Q_3map3MapINtNtNtB1U_5slice4iter4IterNtCseYC8vFNOjrM_2cc6ObjectENCNvMs4_B3n_NtB3n_5Build8assemble0EIB2E_IB2V_INtNtB8_4sync3ArcBU_EENvYB4v_NtNtNtB1U_3ops5deref5Deref5derefEEE11spec_extendB3n_, symObjAddr: 0x56E0, symBinAddr: 0x100044050, symSize: 0x20 }
  - { offset: 0x62095, size: 0x8, addend: 0x0, symName: __RNvXs_NtNtCslJiobkLta79_5alloc3vec11spec_extendINtB6_3VecTNtNtNtCsHUR1vrdMJt_3std3ffi6os_str8OsStringBU_EEINtB4_10SpecExtendBT_INtNtNtNtCsieiGu2EXtoJ_4core4iter8adapters3map3MapINtNtNtB2a_5slice4iter4IterBT_ENCNvMNtCseYC8vFNOjrM_2cc4toolNtB3p_4Tool20from_find_msvc_tools0EE11spec_extendB3r_, symObjAddr: 0x5700, symBinAddr: 0x100044070, symSize: 0x20 }
  - { offset: 0x620E6, size: 0x8, addend: 0x0, symName: __RNvXs_NtNtCslJiobkLta79_5alloc3vec11spec_extendINtB6_3VechEINtB4_10SpecExtendhINtNtNtNtCsieiGu2EXtoJ_4core4iter8adapters3map3MapINtNtNtB1n_5slice4iter4IterhENCNvNtB8_3str13replace_ascii0EE11spec_extendCseYC8vFNOjrM_2cc, symObjAddr: 0x5720, symBinAddr: 0x100044090, symSize: 0x20 }
  - { offset: 0x62144, size: 0x8, addend: 0x0, symName: __RNvXNtNtCslJiobkLta79_5alloc3vec14spec_from_iterINtB4_3VecINtNtB6_5boxed3BoxNtNtNtCsHUR1vrdMJt_3std3ffi6os_str5OsStrEEINtB2_12SpecFromIterBU_INtNtNtNtCsieiGu2EXtoJ_4core4iter8adapters3map3MapINtNtB2k_5chain5ChainINtNtB2k_6cloned6ClonedINtNtNtB2o_5slice4iter4IterRB1c_EEIB2g_IB3M_NtNtB6_6string6StringEINvMsl_B1e_B1c_3newB4t_EEENvYB4c_INtNtB2o_7convert4IntoBU_E4intoEE9from_iterCseYC8vFNOjrM_2cc, symObjAddr: 0x4430, symBinAddr: 0x100042F50, symSize: 0x20 }
  - { offset: 0x62183, size: 0x8, addend: 0x0, symName: __RNvXNtNtCslJiobkLta79_5alloc3vec14spec_from_iterINtB4_3VecNtNtB6_6string6StringEINtB2_12SpecFromIterBU_INtNtNtNtCsieiGu2EXtoJ_4core4iter8adapters3map3MapNtNtNtB1M_3str4iter15SplitWhitespaceNCNvMs4_CseYC8vFNOjrM_2ccNtB39_5Build8env_tool0EE9from_iterB39_, symObjAddr: 0x4450, symBinAddr: 0x100042F70, symSize: 0x20 }
  - { offset: 0x621C2, size: 0x8, addend: 0x0, symName: __RNvXNtNtCslJiobkLta79_5alloc3vec14spec_from_iterINtB4_3VecNtNtB6_6string6StringEINtB2_12SpecFromIterBU_INtNtNtNtCsieiGu2EXtoJ_4core4iter8adapters3map3MapNtNtNtB1M_3str4iter15SplitWhitespaceNCNvMs4_CseYC8vFNOjrM_2ccNtB39_5Build8env_tools_0EE9from_iterB39_, symObjAddr: 0x4470, symBinAddr: 0x100042F90, symSize: 0x20 }
  - { offset: 0x62201, size: 0x8, addend: 0x0, symName: __RNvXNtNtCslJiobkLta79_5alloc3vec14spec_from_iterINtB4_3VecRNtNtCsHUR1vrdMJt_3std4path4PathEINtB2_12SpecFromIterBU_INtNtNtNtCsieiGu2EXtoJ_4core4iter8adapters5chain5ChainINtNtB1T_3map3MapINtNtNtB1X_5slice4iter4IterNtCseYC8vFNOjrM_2cc6ObjectENCNvMs4_B3q_NtB3q_5Build8assemble0EIB2H_IB2Y_INtNtB6_4sync3ArcBV_EENvYB4y_NtNtNtB1X_3ops5deref5Deref5derefEEE9from_iterB3q_, symObjAddr: 0x4490, symBinAddr: 0x100042FB0, symSize: 0x20 }
  - { offset: 0x62240, size: 0x8, addend: 0x0, symName: __RNvXNtNtCslJiobkLta79_5alloc3vec14spec_from_iterINtB4_3VecReEINtB2_12SpecFromIterBU_INtNtNtCsieiGu2EXtoJ_4core3str4iter5SplitcEE9from_iterCseYC8vFNOjrM_2cc, symObjAddr: 0x44B0, symBinAddr: 0x100042FD0, symSize: 0x20 }
  - { offset: 0x6227F, size: 0x8, addend: 0x0, symName: __RNvXNtNtCslJiobkLta79_5alloc3vec14spec_from_iterINtB4_3VecTNtNtNtCsHUR1vrdMJt_3std3ffi6os_str8OsStringBV_EEINtB2_12SpecFromIterBU_INtNtNtNtCsieiGu2EXtoJ_4core4iter8adapters3map3MapINtNtNtB2d_5slice4iter4IterBU_ENCNvMNtCseYC8vFNOjrM_2cc4toolNtB3s_4Tool20from_find_msvc_tools0EE9from_iterB3u_, symObjAddr: 0x44D0, symBinAddr: 0x100042FF0, symSize: 0x30 }
  - { offset: 0x622BD, size: 0x8, addend: 0x0, symName: __RNvXNtNtCslJiobkLta79_5alloc3vec14spec_from_iterINtB4_3VechEINtB2_12SpecFromIterhINtNtNtNtCsieiGu2EXtoJ_4core4iter8adapters3map3MapINtNtNtB1q_5slice4iter4IterhENCNvNtB6_3str13replace_ascii0EE9from_iterCseYC8vFNOjrM_2cc, symObjAddr: 0x4500, symBinAddr: 0x100043020, symSize: 0x20 }
  - { offset: 0x62308, size: 0x8, addend: 0x0, symName: __RNvXNtNtCslJiobkLta79_5alloc3vec21spec_from_iter_nestedINtB4_3VecNtNtB6_6string6StringEINtB2_18SpecFromIterNestedB11_INtNtNtNtCsieiGu2EXtoJ_4core4iter8adapters3map3MapNtNtNtB20_3str4iter15SplitWhitespaceNCNvMs4_CseYC8vFNOjrM_2ccNtB3n_5Build8env_tool0EE9from_iterB3n_, symObjAddr: 0x4520, symBinAddr: 0x100043040, symSize: 0x380 }
  - { offset: 0x625BD, size: 0x8, addend: 0x0, symName: __RNvXNtNtCslJiobkLta79_5alloc3vec21spec_from_iter_nestedINtB4_3VecNtNtB6_6string6StringEINtB2_18SpecFromIterNestedB11_INtNtNtNtCsieiGu2EXtoJ_4core4iter8adapters3map3MapNtNtNtB20_3str4iter15SplitWhitespaceNCNvMs4_CseYC8vFNOjrM_2ccNtB3n_5Build8env_tools_0EE9from_iterB3n_, symObjAddr: 0x48A0, symBinAddr: 0x1000433C0, symSize: 0x380 }
  - { offset: 0x62872, size: 0x8, addend: 0x0, symName: __RNvXNtNtCslJiobkLta79_5alloc3vec21spec_from_iter_nestedINtB4_3VecReEINtB2_18SpecFromIterNestedB11_INtNtNtCsieiGu2EXtoJ_4core3str4iter5SplitcEE9from_iterCseYC8vFNOjrM_2cc, symObjAddr: 0x4C20, symBinAddr: 0x100043740, symSize: 0x340 }
  - { offset: 0x62B32, size: 0x8, addend: 0x0, symName: __RNvXs_NtNtCslJiobkLta79_5alloc3vec21spec_from_iter_nestedINtB6_3VecINtNtB8_5boxed3BoxNtNtNtCsHUR1vrdMJt_3std3ffi6os_str5OsStrEEINtB4_18SpecFromIterNestedB13_INtNtNtNtCsieiGu2EXtoJ_4core4iter8adapters3map3MapINtNtB2A_5chain5ChainINtNtB2A_6cloned6ClonedINtNtNtB2E_5slice4iter4IterRB1l_EEIB2w_IB42_NtNtB8_6string6StringEINvMsl_B1n_B1l_3newB4J_EEENvYB4s_INtNtB2E_7convert4IntoB13_E4intoEE9from_iterCseYC8vFNOjrM_2cc, symObjAddr: 0x5770, symBinAddr: 0x1000440B0, symSize: 0x1C0 }
  - { offset: 0x62C0A, size: 0x8, addend: 0x0, symName: __RNvXs_NtNtCslJiobkLta79_5alloc3vec21spec_from_iter_nestedINtB6_3VecRNtNtCsHUR1vrdMJt_3std4path4PathEINtB4_18SpecFromIterNestedB13_INtNtNtNtCsieiGu2EXtoJ_4core4iter8adapters5chain5ChainINtNtB29_3map3MapINtNtNtB2d_5slice4iter4IterNtCseYC8vFNOjrM_2cc6ObjectENCNvMs4_B3G_NtB3G_5Build8assemble0EIB2X_IB3e_INtNtB8_4sync3ArcB14_EENvYB4O_NtNtNtB2d_3ops5deref5Deref5derefEEE9from_iterB3G_, symObjAddr: 0x5930, symBinAddr: 0x100044270, symSize: 0x1C0 }
  - { offset: 0x62CE2, size: 0x8, addend: 0x0, symName: __RNvXs_NtNtCslJiobkLta79_5alloc3vec21spec_from_iter_nestedINtB6_3VecTNtNtNtCsHUR1vrdMJt_3std3ffi6os_str8OsStringB14_EEINtB4_18SpecFromIterNestedB13_INtNtNtNtCsieiGu2EXtoJ_4core4iter8adapters3map3MapINtNtNtB2u_5slice4iter4IterB13_ENCNvMNtCseYC8vFNOjrM_2cc4toolNtB3K_4Tool20from_find_msvc_tools0EE9from_iterB3M_, symObjAddr: 0x5AF0, symBinAddr: 0x100044430, symSize: 0x1B0 }
  - { offset: 0x62DBA, size: 0x8, addend: 0x0, symName: __RNvXs_NtNtCslJiobkLta79_5alloc3vec21spec_from_iter_nestedINtB6_3VechEINtB4_18SpecFromIterNestedhINtNtNtNtCsieiGu2EXtoJ_4core4iter8adapters3map3MapINtNtNtB1F_5slice4iter4IterhENCNvNtB8_3str13replace_ascii0EE9from_iterCseYC8vFNOjrM_2cc, symObjAddr: 0x5CA0, symBinAddr: 0x1000445E0, symSize: 0x1C0 }
  - { offset: 0x62E99, size: 0x8, addend: 0x0, symName: __RNvXs6_NtCslJiobkLta79_5alloc3vecINtB5_3VecINtNtB7_4sync3ArcNtNtCsHUR1vrdMJt_3std4path4PathEENtNtNtCsieiGu2EXtoJ_4core3ops5deref5Deref5derefCseYC8vFNOjrM_2cc, symObjAddr: 0x5280, symBinAddr: 0x100043C10, symSize: 0x20 }
  - { offset: 0x62ED9, size: 0x8, addend: 0x0, symName: __RNvXs6_NtCslJiobkLta79_5alloc3vecINtB5_3VecINtNtB7_4sync3ArcNtNtNtCsHUR1vrdMJt_3std3ffi6os_str5OsStrEENtNtNtCsieiGu2EXtoJ_4core3ops5deref5Deref5derefCseYC8vFNOjrM_2cc, symObjAddr: 0x52A0, symBinAddr: 0x100043C30, symSize: 0x20 }
  - { offset: 0x62F19, size: 0x8, addend: 0x0, symName: __RNvXs6_NtCslJiobkLta79_5alloc3vecINtB5_3VecNtCseYC8vFNOjrM_2cc6ObjectENtNtNtCsieiGu2EXtoJ_4core3ops5deref5Deref5derefBH_, symObjAddr: 0x52C0, symBinAddr: 0x100043C50, symSize: 0x20 }
  - { offset: 0x62F59, size: 0x8, addend: 0x0, symName: __RNvXs6_NtCslJiobkLta79_5alloc3vecINtB5_3VecNtNtB7_6string6StringENtNtNtCsieiGu2EXtoJ_4core3ops5deref5Deref5derefCseYC8vFNOjrM_2cc, symObjAddr: 0x52E0, symBinAddr: 0x100043C70, symSize: 0x20 }
  - { offset: 0x62F99, size: 0x8, addend: 0x0, symName: __RNvXs6_NtCslJiobkLta79_5alloc3vecINtB5_3VecNtNtNtCsHUR1vrdMJt_3std3ffi6os_str8OsStringENtNtNtCsieiGu2EXtoJ_4core3ops5deref5Deref5derefCseYC8vFNOjrM_2cc, symObjAddr: 0x5300, symBinAddr: 0x100043C90, symSize: 0x20 }
  - { offset: 0x62FD9, size: 0x8, addend: 0x0, symName: __RNvXs6_NtCslJiobkLta79_5alloc3vecINtB5_3VecRNtNtCsHUR1vrdMJt_3std4path4PathENtNtNtCsieiGu2EXtoJ_4core3ops5deref5Deref5derefCseYC8vFNOjrM_2cc, symObjAddr: 0x5320, symBinAddr: 0x100043CB0, symSize: 0x20 }
  - { offset: 0x63019, size: 0x8, addend: 0x0, symName: __RNvXs6_NtCslJiobkLta79_5alloc3vecINtB5_3VecReENtNtNtCsieiGu2EXtoJ_4core3ops5deref5Deref5derefCseYC8vFNOjrM_2cc, symObjAddr: 0x5340, symBinAddr: 0x100043CD0, symSize: 0x20 }
  - { offset: 0x63059, size: 0x8, addend: 0x0, symName: __RNvXs6_NtCslJiobkLta79_5alloc3vecINtB5_3VecTINtNtB7_4sync3ArcNtNtNtCsHUR1vrdMJt_3std3ffi6os_str5OsStrEBG_EENtNtNtCsieiGu2EXtoJ_4core3ops5deref5Deref5derefCseYC8vFNOjrM_2cc, symObjAddr: 0x5360, symBinAddr: 0x100043CF0, symSize: 0x20 }
  - { offset: 0x63099, size: 0x8, addend: 0x0, symName: __RNvXs6_NtCslJiobkLta79_5alloc3vecINtB5_3VecTINtNtB7_4sync3ArceEINtNtCsieiGu2EXtoJ_4core6option6OptionBG_EEENtNtNtB14_3ops5deref5Deref5derefCseYC8vFNOjrM_2cc, symObjAddr: 0x5380, symBinAddr: 0x100043D10, symSize: 0x20 }
  - { offset: 0x630D9, size: 0x8, addend: 0x0, symName: __RNvXs6_NtCslJiobkLta79_5alloc3vecINtB5_3VechENtNtNtCsieiGu2EXtoJ_4core3ops5deref5Deref5derefCseYC8vFNOjrM_2cc, symObjAddr: 0x53A0, symBinAddr: 0x100043D30, symSize: 0x20 }
  - { offset: 0x632CF, size: 0x8, addend: 0x0, symName: __RNvXs7_NtCslJiobkLta79_5alloc3vecINtB5_3VechENtNtNtCsieiGu2EXtoJ_4core3ops5deref8DerefMut9deref_mutCseYC8vFNOjrM_2cc, symObjAddr: 0x53C0, symBinAddr: 0x100043D50, symSize: 0x20 }
  - { offset: 0x63345, size: 0x8, addend: 0x0, symName: __RNvXs9_NtCslJiobkLta79_5alloc3vecINtB5_3VecNtNtB7_6string6StringENtNtCsieiGu2EXtoJ_4core5clone5Clone5cloneCseYC8vFNOjrM_2cc, symObjAddr: 0x53E0, symBinAddr: 0x100043D70, symSize: 0x90 }
  - { offset: 0x63516, size: 0x8, addend: 0x0, symName: __RNvXs9_NtCslJiobkLta79_5alloc3vecINtB5_3VecNtNtNtCsHUR1vrdMJt_3std3ffi6os_str8OsStringENtNtCsieiGu2EXtoJ_4core5clone5Clone5cloneCseYC8vFNOjrM_2cc, symObjAddr: 0x5470, symBinAddr: 0x100043E00, symSize: 0x90 }
  - { offset: 0x636E7, size: 0x8, addend: 0x0, symName: __RNvXs9_NtCslJiobkLta79_5alloc3vecINtB5_3VecTNtNtNtCsHUR1vrdMJt_3std3ffi6os_str8OsStringBG_EENtNtCsieiGu2EXtoJ_4core5clone5Clone5cloneCseYC8vFNOjrM_2cc, symObjAddr: 0x5500, symBinAddr: 0x100043E90, symSize: 0x90 }
  - { offset: 0x638B8, size: 0x8, addend: 0x0, symName: __RNvXs9_NtCslJiobkLta79_5alloc3vecINtB5_3VechENtNtCsieiGu2EXtoJ_4core5clone5Clone10clone_fromCseYC8vFNOjrM_2cc, symObjAddr: 0x5590, symBinAddr: 0x100043F20, symSize: 0x60 }
  - { offset: 0x639A6, size: 0x8, addend: 0x0, symName: __RNvXs9_NtCslJiobkLta79_5alloc3vecINtB5_3VechENtNtCsieiGu2EXtoJ_4core5clone5Clone5cloneCseYC8vFNOjrM_2cc, symObjAddr: 0x55F0, symBinAddr: 0x100043F80, symSize: 0x90 }
  - { offset: 0x63B7D, size: 0x8, addend: 0x0, symName: __RNvXsb_NtCslJiobkLta79_5alloc3vecINtB5_3VechEINtNtNtCsieiGu2EXtoJ_4core3ops5index5IndexINtNtBM_5range7RangeTojEE5indexCseYC8vFNOjrM_2cc, symObjAddr: 0x5E60, symBinAddr: 0x1000447A0, symSize: 0x110 }
  - { offset: 0x63D8C, size: 0x8, addend: 0x0, symName: __RNvXsc_NtCslJiobkLta79_5alloc3vecINtB5_3VechEINtNtNtCsieiGu2EXtoJ_4core3ops5index8IndexMutINtNtBM_5range9RangeFromjEE9index_mutCseYC8vFNOjrM_2cc, symObjAddr: 0x5F70, symBinAddr: 0x1000448B0, symSize: 0x70 }
  - { offset: 0x63EE6, size: 0x8, addend: 0x0, symName: __RNvXse_NtCslJiobkLta79_5alloc3vecINtB5_3VecNtNtB7_6string6StringENtNtNtNtCsieiGu2EXtoJ_4core4iter6traits7collect12IntoIterator9into_iterCseYC8vFNOjrM_2cc, symObjAddr: 0x6120, symBinAddr: 0x100044920, symSize: 0x140 }
  - { offset: 0x6417C, size: 0x8, addend: 0x0, symName: __RNvXsf_NtCslJiobkLta79_5alloc3vecRINtB5_3VecINtNtB7_4sync3ArcNtNtNtCsHUR1vrdMJt_3std3ffi6os_str5OsStrEENtNtNtNtCsieiGu2EXtoJ_4core4iter6traits7collect12IntoIterator9into_iterCseYC8vFNOjrM_2cc, symObjAddr: 0x6260, symBinAddr: 0x100044A60, symSize: 0x80 }
  - { offset: 0x643A9, size: 0x8, addend: 0x0, symName: __RNvXsf_NtCslJiobkLta79_5alloc3vecRINtB5_3VecNtNtB7_6string6StringENtNtNtNtCsieiGu2EXtoJ_4core4iter6traits7collect12IntoIterator9into_iterCseYC8vFNOjrM_2cc, symObjAddr: 0x62E0, symBinAddr: 0x100044AE0, symSize: 0x80 }
  - { offset: 0x645D6, size: 0x8, addend: 0x0, symName: __RNvXsf_NtCslJiobkLta79_5alloc3vecRINtB5_3VecNtNtNtCsHUR1vrdMJt_3std3ffi6os_str8OsStringENtNtNtNtCsieiGu2EXtoJ_4core4iter6traits7collect12IntoIterator9into_iterCseYC8vFNOjrM_2cc, symObjAddr: 0x6360, symBinAddr: 0x100044B60, symSize: 0x80 }
  - { offset: 0x64803, size: 0x8, addend: 0x0, symName: __RNvXsf_NtCslJiobkLta79_5alloc3vecRINtB5_3VecTNtNtNtCsHUR1vrdMJt_3std3ffi6os_str8OsStringBH_EENtNtNtNtCsieiGu2EXtoJ_4core4iter6traits7collect12IntoIterator9into_iterCseYC8vFNOjrM_2cc, symObjAddr: 0x63E0, symBinAddr: 0x100044BE0, symSize: 0x80 }
  - { offset: 0x64A36, size: 0x8, addend: 0x0, symName: __RNvXsn_NtCslJiobkLta79_5alloc3vecINtB5_3VecINtNtB7_4sync3ArcNtNtCsHUR1vrdMJt_3std4path4PathEENtNtNtCsieiGu2EXtoJ_4core3ops4drop4Drop4dropCseYC8vFNOjrM_2cc, symObjAddr: 0x6460, symBinAddr: 0x100044C60, symSize: 0x30 }
  - { offset: 0x64AE6, size: 0x8, addend: 0x0, symName: __RNvXsn_NtCslJiobkLta79_5alloc3vecINtB5_3VecINtNtB7_4sync3ArcNtNtNtCsHUR1vrdMJt_3std3ffi6os_str5OsStrEENtNtNtCsieiGu2EXtoJ_4core3ops4drop4Drop4dropCseYC8vFNOjrM_2cc, symObjAddr: 0x6490, symBinAddr: 0x100044C90, symSize: 0x30 }
  - { offset: 0x64B96, size: 0x8, addend: 0x0, symName: __RNvXsn_NtCslJiobkLta79_5alloc3vecINtB5_3VecINtNtB7_5boxed3BoxNtNtNtCsHUR1vrdMJt_3std3ffi6os_str5OsStrEENtNtNtCsieiGu2EXtoJ_4core3ops4drop4Drop4dropCseYC8vFNOjrM_2cc, symObjAddr: 0x64C0, symBinAddr: 0x100044CC0, symSize: 0x30 }
  - { offset: 0x64C46, size: 0x8, addend: 0x0, symName: __RNvXsn_NtCslJiobkLta79_5alloc3vecINtB5_3VecNtCseYC8vFNOjrM_2cc6ObjectENtNtNtCsieiGu2EXtoJ_4core3ops4drop4Drop4dropBH_, symObjAddr: 0x64F0, symBinAddr: 0x100044CF0, symSize: 0x30 }
  - { offset: 0x64CF6, size: 0x8, addend: 0x0, symName: __RNvXsn_NtCslJiobkLta79_5alloc3vecINtB5_3VecNtNtNtCsHUR1vrdMJt_3std3ffi6os_str8OsStringENtNtNtCsieiGu2EXtoJ_4core3ops4drop4Drop4dropCseYC8vFNOjrM_2cc, symObjAddr: 0x6520, symBinAddr: 0x100044D20, symSize: 0x30 }
  - { offset: 0x64DA6, size: 0x8, addend: 0x0, symName: __RNvXsn_NtCslJiobkLta79_5alloc3vecINtB5_3VecNtNtNtNtCsHUR1vrdMJt_3std4sync4mpmc5waker5EntryENtNtNtCsieiGu2EXtoJ_4core3ops4drop4Drop4dropCseYC8vFNOjrM_2cc, symObjAddr: 0x6550, symBinAddr: 0x100044D50, symSize: 0x30 }
  - { offset: 0x64E56, size: 0x8, addend: 0x0, symName: __RNvXsn_NtCslJiobkLta79_5alloc3vecINtB5_3VecRNtNtCsHUR1vrdMJt_3std4path4PathENtNtNtCsieiGu2EXtoJ_4core3ops4drop4Drop4dropCseYC8vFNOjrM_2cc, symObjAddr: 0x6580, symBinAddr: 0x100044D80, symSize: 0x20 }
  - { offset: 0x64F06, size: 0x8, addend: 0x0, symName: __RNvXsn_NtCslJiobkLta79_5alloc3vecINtB5_3VecReENtNtNtCsieiGu2EXtoJ_4core3ops4drop4Drop4dropCseYC8vFNOjrM_2cc, symObjAddr: 0x65A0, symBinAddr: 0x100044DA0, symSize: 0x20 }
  - { offset: 0x64FB6, size: 0x8, addend: 0x0, symName: __RNvXsn_NtCslJiobkLta79_5alloc3vecINtB5_3VecTINtNtB7_4sync3ArcNtNtNtCsHUR1vrdMJt_3std3ffi6os_str5OsStrEBG_EENtNtNtCsieiGu2EXtoJ_4core3ops4drop4Drop4dropCseYC8vFNOjrM_2cc, symObjAddr: 0x65C0, symBinAddr: 0x100044DC0, symSize: 0x30 }
  - { offset: 0x65066, size: 0x8, addend: 0x0, symName: __RNvXsn_NtCslJiobkLta79_5alloc3vecINtB5_3VecTINtNtB7_4sync3ArceEINtNtCsieiGu2EXtoJ_4core6option6OptionBG_EEENtNtNtB14_3ops4drop4Drop4dropCseYC8vFNOjrM_2cc, symObjAddr: 0x65F0, symBinAddr: 0x100044DF0, symSize: 0x30 }
  - { offset: 0x65116, size: 0x8, addend: 0x0, symName: __RNvXsn_NtCslJiobkLta79_5alloc3vecINtB5_3VecTNtNtCsHUR1vrdMJt_3std7process7CommandNtNtNtCseYC8vFNOjrM_2cc8parallel14command_runner10KillOnDropNtNtB1l_9job_token8JobTokenEENtNtNtCsieiGu2EXtoJ_4core3ops4drop4Drop4dropB1n_, symObjAddr: 0x6620, symBinAddr: 0x100044E20, symSize: 0x30 }
  - { offset: 0x651CC, size: 0x8, addend: 0x0, symName: __RNvXso_NtCslJiobkLta79_5alloc3vecINtB5_3VecTNtNtCsHUR1vrdMJt_3std7process7CommandNtNtNtCseYC8vFNOjrM_2cc8parallel14command_runner10KillOnDropNtNtB1l_9job_token8JobTokenEENtNtCsieiGu2EXtoJ_4core7default7Default7defaultB1n_, symObjAddr: 0x6650, symBinAddr: 0x100044E50, symSize: 0x30 }
  - { offset: 0x66E3F, size: 0x8, addend: 0x0, symName: __RINvMs_NtCslJiobkLta79_5alloc3vecINtB5_3VecNtNtNtNtCsHUR1vrdMJt_3std4sync4mpmc5waker5EntryE5drainNtNtNtCsieiGu2EXtoJ_4core3ops5range9RangeFullECseYC8vFNOjrM_2cc, symObjAddr: 0x1A0, symBinAddr: 0x10003F2C0, symSize: 0x1C0 }
  - { offset: 0x674F6, size: 0x8, addend: 0x0, symName: __RINvMs_NtCslJiobkLta79_5alloc3vecINtB5_3VecTNtNtCsHUR1vrdMJt_3std7process7CommandNtNtNtCseYC8vFNOjrM_2cc8parallel14command_runner10KillOnDropNtNtB1l_9job_token8JobTokenEE10retain_mutNCNCNCNvB1j_24run_commands_in_parallel000EB1n_, symObjAddr: 0x360, symBinAddr: 0x10003F480, symSize: 0x160 }
  - { offset: 0x6798C, size: 0x8, addend: 0x0, symName: __RINvMsi_NtCslJiobkLta79_5alloc3vecINtB6_3VecINtNtB8_5boxed3BoxNtNtNtCsHUR1vrdMJt_3std3ffi6os_str5OsStrEE14extend_trustedINtNtNtNtCsieiGu2EXtoJ_4core4iter8adapters3map3MapINtNtB1Z_5chain5ChainINtNtB1Z_6cloned6ClonedINtNtNtB23_5slice4iter4IterRBY_EEIB1V_IB3r_NtNtB8_6string6StringEINvMsl_B10_BY_3newB47_EEENvYB3R_INtNtB23_7convert4IntoBG_E4intoEECseYC8vFNOjrM_2cc, symObjAddr: 0x690, symBinAddr: 0x10003F5E0, symSize: 0x1C0 }
  - { offset: 0x67D1B, size: 0x8, addend: 0x0, symName: __RINvMsi_NtCslJiobkLta79_5alloc3vecINtB6_3VecNtNtB8_6string6StringE16extend_desugaredINtNtNtNtCsieiGu2EXtoJ_4core4iter8adapters3map3MapNtNtNtB1t_3str4iter15SplitWhitespaceNCNvMs4_CseYC8vFNOjrM_2ccNtB2Q_5Build8env_tool0EEB2Q_, symObjAddr: 0x850, symBinAddr: 0x10003F7A0, symSize: 0x250 }
  - { offset: 0x6812F, size: 0x8, addend: 0x0, symName: __RINvMsi_NtCslJiobkLta79_5alloc3vecINtB6_3VecNtNtB8_6string6StringE16extend_desugaredINtNtNtNtCsieiGu2EXtoJ_4core4iter8adapters3map3MapNtNtNtB1t_3str4iter15SplitWhitespaceNCNvMs4_CseYC8vFNOjrM_2ccNtB2Q_5Build8env_tools_0EEB2Q_, symObjAddr: 0xAA0, symBinAddr: 0x10003F9F0, symSize: 0x250 }
  - { offset: 0x68579, size: 0x8, addend: 0x0, symName: __RINvMsi_NtCslJiobkLta79_5alloc3vecINtB6_3VecNtNtB8_6string6StringE16extend_desugaredINtNtNtNtCsieiGu2EXtoJ_4core4iter8adapters3map3MapNtNtNtB1t_3str4iter20SplitAsciiWhitespaceNvYeNtBI_8ToString9to_stringEECseYC8vFNOjrM_2cc, symObjAddr: 0xCF0, symBinAddr: 0x10003FC40, symSize: 0x250 }
  - { offset: 0x689DB, size: 0x8, addend: 0x0, symName: __RINvMsi_NtCslJiobkLta79_5alloc3vecINtB6_3VecNtNtB8_6string6StringE16extend_desugaredNtCs6EOBT9HYl7a_5shlex5ShlexECseYC8vFNOjrM_2cc, symObjAddr: 0xF40, symBinAddr: 0x10003FE90, symSize: 0x250 }
  - { offset: 0x68D99, size: 0x8, addend: 0x0, symName: __RINvMsi_NtCslJiobkLta79_5alloc3vecINtB6_3VecNtNtNtCsHUR1vrdMJt_3std3ffi6os_str8OsStringE14extend_trustedINtNtNtCsieiGu2EXtoJ_4core5array4iter8IntoIterBG_Kj6_EECseYC8vFNOjrM_2cc, symObjAddr: 0x1190, symBinAddr: 0x1000400E0, symSize: 0x1E0 }
  - { offset: 0x6911E, size: 0x8, addend: 0x0, symName: __RINvMsi_NtCslJiobkLta79_5alloc3vecINtB6_3VecRNtNtCsHUR1vrdMJt_3std4path4PathE14extend_trustedINtNtNtNtCsieiGu2EXtoJ_4core4iter8adapters5chain5ChainINtNtB1y_3map3MapINtNtNtB1C_5slice4iter4IterNtCseYC8vFNOjrM_2cc6ObjectENCNvMs4_B35_NtB35_5Build8assemble0EIB2m_IB2D_INtNtB8_4sync3ArcBH_EENvYB4d_NtNtNtB1C_3ops5deref5Deref5derefEEEB35_, symObjAddr: 0x1370, symBinAddr: 0x1000402C0, symSize: 0x1C0 }
  - { offset: 0x694C1, size: 0x8, addend: 0x0, symName: __RINvMsi_NtCslJiobkLta79_5alloc3vecINtB6_3VecReE16extend_desugaredINtNtNtCsieiGu2EXtoJ_4core3str4iter5SplitcEECseYC8vFNOjrM_2cc, symObjAddr: 0x1530, symBinAddr: 0x100040480, symSize: 0x240 }
  - { offset: 0x6989E, size: 0x8, addend: 0x0, symName: __RINvMsi_NtCslJiobkLta79_5alloc3vecINtB6_3VecTNtNtNtCsHUR1vrdMJt_3std3ffi6os_str8OsStringBH_EE14extend_trustedINtNtNtNtCsieiGu2EXtoJ_4core4iter8adapters3map3MapINtNtNtB1S_5slice4iter4IterBG_ENCNvMNtCseYC8vFNOjrM_2cc4toolNtB37_4Tool20from_find_msvc_tools0EEB39_, symObjAddr: 0x1770, symBinAddr: 0x1000406C0, symSize: 0x1A0 }
  - { offset: 0x69B7C, size: 0x8, addend: 0x0, symName: __RINvMsi_NtCslJiobkLta79_5alloc3vecINtB6_3VechE14extend_trustedINtNtNtNtCsieiGu2EXtoJ_4core4iter8adapters3map3MapINtNtNtB17_5slice4iter4IterhENCNvNtB8_3str13replace_ascii0EECseYC8vFNOjrM_2cc, symObjAddr: 0x1910, symBinAddr: 0x100040860, symSize: 0x1C0 }
  - { offset: 0x69EEE, size: 0x8, addend: 0x0, symName: __RNvMNtCslJiobkLta79_5alloc3vecINtB2_3VecINtNtB4_4sync3ArcNtNtCsHUR1vrdMJt_3std4path4PathEE3newCseYC8vFNOjrM_2cc, symObjAddr: 0x2390, symBinAddr: 0x100041010, symSize: 0x30 }
  - { offset: 0x69F0B, size: 0x8, addend: 0x0, symName: __RNvMNtCslJiobkLta79_5alloc3vecINtB2_3VecINtNtB4_4sync3ArcNtNtNtCsHUR1vrdMJt_3std3ffi6os_str5OsStrEE3newCseYC8vFNOjrM_2cc, symObjAddr: 0x23C0, symBinAddr: 0x100041040, symSize: 0x30 }
  - { offset: 0x69F8A, size: 0x8, addend: 0x0, symName: __RNvMNtCslJiobkLta79_5alloc3vecINtB2_3VecNtCseYC8vFNOjrM_2cc6ObjectE13with_capacityBE_, symObjAddr: 0x23F0, symBinAddr: 0x100041070, symSize: 0x60 }
  - { offset: 0x6A002, size: 0x8, addend: 0x0, symName: __RNvMNtCslJiobkLta79_5alloc3vecINtB2_3VecNtNtB4_6string6StringE3newCseYC8vFNOjrM_2cc, symObjAddr: 0x2450, symBinAddr: 0x1000410D0, symSize: 0x30 }
  - { offset: 0x6A01F, size: 0x8, addend: 0x0, symName: __RNvMNtCslJiobkLta79_5alloc3vecINtB2_3VecNtNtNtCsHUR1vrdMJt_3std3ffi6os_str8OsStringE3newCseYC8vFNOjrM_2cc, symObjAddr: 0x2480, symBinAddr: 0x100041100, symSize: 0x30 }
  - { offset: 0x6A05A, size: 0x8, addend: 0x0, symName: __RNvMNtCslJiobkLta79_5alloc3vecINtB2_3VecTINtNtB4_4sync3ArcNtNtNtCsHUR1vrdMJt_3std3ffi6os_str5OsStrEBD_EE3newCseYC8vFNOjrM_2cc, symObjAddr: 0x24B0, symBinAddr: 0x100041130, symSize: 0x30 }
  - { offset: 0x6A0BC, size: 0x8, addend: 0x0, symName: __RNvMNtCslJiobkLta79_5alloc3vecINtB2_3VecTINtNtB4_4sync3ArceEINtNtCsieiGu2EXtoJ_4core6option6OptionBD_EEE3newCseYC8vFNOjrM_2cc, symObjAddr: 0x24E0, symBinAddr: 0x100041160, symSize: 0x30 }
  - { offset: 0x6A0D9, size: 0x8, addend: 0x0, symName: __RNvMNtCslJiobkLta79_5alloc3vecINtB2_3VecTNtNtCsHUR1vrdMJt_3std7process7CommandNtNtNtCseYC8vFNOjrM_2cc8parallel14command_runner10KillOnDropNtNtB1i_9job_token8JobTokenEE3newB1k_, symObjAddr: 0x2510, symBinAddr: 0x100041190, symSize: 0x30 }
  - { offset: 0x6A158, size: 0x8, addend: 0x0, symName: __RNvMNtCslJiobkLta79_5alloc3vecINtB2_3VechE13with_capacityCseYC8vFNOjrM_2cc, symObjAddr: 0x2540, symBinAddr: 0x1000411C0, symSize: 0x50 }
  - { offset: 0x6A2EF, size: 0x8, addend: 0x0, symName: __RNvMs0_NtCslJiobkLta79_5alloc3vecINtB5_3VechE6resizeCseYC8vFNOjrM_2cc, symObjAddr: 0x2590, symBinAddr: 0x100041210, symSize: 0xE0 }
  - { offset: 0x6A59C, size: 0x8, addend: 0x0, symName: __RNvMs2_NtCslJiobkLta79_5alloc3vecINtB5_3VechE11extend_withCseYC8vFNOjrM_2cc, symObjAddr: 0x2670, symBinAddr: 0x1000412F0, symSize: 0x280 }
  - { offset: 0x6A93E, size: 0x8, addend: 0x0, symName: __RNvMs_NtCslJiobkLta79_5alloc3vecINtB4_3VecINtNtB6_4sync3ArcNtNtCsHUR1vrdMJt_3std4path4PathEE8as_sliceCseYC8vFNOjrM_2cc, symObjAddr: 0x2900, symBinAddr: 0x100041570, symSize: 0x50 }
  - { offset: 0x6A9F8, size: 0x8, addend: 0x0, symName: __RNvMs_NtCslJiobkLta79_5alloc3vecINtB4_3VecINtNtB6_4sync3ArcNtNtNtCsHUR1vrdMJt_3std3ffi6os_str5OsStrEE4pushCseYC8vFNOjrM_2cc, symObjAddr: 0x2950, symBinAddr: 0x1000415C0, symSize: 0x20 }
  - { offset: 0x6AAFA, size: 0x8, addend: 0x0, symName: __RNvMs_NtCslJiobkLta79_5alloc3vecINtB4_3VecINtNtB6_4sync3ArcNtNtNtCsHUR1vrdMJt_3std3ffi6os_str5OsStrEE8as_sliceCseYC8vFNOjrM_2cc, symObjAddr: 0x2A20, symBinAddr: 0x1000415E0, symSize: 0x50 }
  - { offset: 0x6ABD9, size: 0x8, addend: 0x0, symName: __RNvMs_NtCslJiobkLta79_5alloc3vecINtB4_3VecINtNtB6_4sync3ArcNtNtNtCsHUR1vrdMJt_3std3ffi6os_str5OsStrEE8is_emptyCseYC8vFNOjrM_2cc, symObjAddr: 0x2A70, symBinAddr: 0x100041630, symSize: 0x20 }
  - { offset: 0x6AD0B, size: 0x8, addend: 0x0, symName: __RNvMs_NtCslJiobkLta79_5alloc3vecINtB4_3VecINtNtB6_4sync3ArcNtNtNtCsHUR1vrdMJt_3std3ffi6os_str5OsStrEE8push_mutCseYC8vFNOjrM_2cc, symObjAddr: 0x2A90, symBinAddr: 0x100041650, symSize: 0xF0 }
  - { offset: 0x6AFD4, size: 0x8, addend: 0x0, symName: __RNvMs_NtCslJiobkLta79_5alloc3vecINtB4_3VecINtNtB6_5boxed3BoxNtNtNtCsHUR1vrdMJt_3std3ffi6os_str5OsStrEE13shrink_to_fitCseYC8vFNOjrM_2cc, symObjAddr: 0x2B80, symBinAddr: 0x100041740, symSize: 0xE0 }
  - { offset: 0x6B24E, size: 0x8, addend: 0x0, symName: __RNvMs_NtCslJiobkLta79_5alloc3vecINtB4_3VecINtNtB6_5boxed3BoxNtNtNtCsHUR1vrdMJt_3std3ffi6os_str5OsStrEE16into_boxed_sliceCseYC8vFNOjrM_2cc, symObjAddr: 0x2C60, symBinAddr: 0x100041820, symSize: 0x160 }
  - { offset: 0x6B527, size: 0x8, addend: 0x0, symName: __RNvMs_NtCslJiobkLta79_5alloc3vecINtB4_3VecINtNtB6_5boxed3BoxNtNtNtCsHUR1vrdMJt_3std3ffi6os_str5OsStrEE7reserveCseYC8vFNOjrM_2cc, symObjAddr: 0x2DC0, symBinAddr: 0x100041980, symSize: 0xB0 }
  - { offset: 0x6B6A1, size: 0x8, addend: 0x0, symName: __RNvMs_NtCslJiobkLta79_5alloc3vecINtB4_3VecNtCseYC8vFNOjrM_2cc6ObjectE4pushBG_, symObjAddr: 0x2E70, symBinAddr: 0x100041A30, symSize: 0x20 }
  - { offset: 0x6B7A4, size: 0x8, addend: 0x0, symName: __RNvMs_NtCslJiobkLta79_5alloc3vecINtB4_3VecNtCseYC8vFNOjrM_2cc6ObjectE8as_sliceBG_, symObjAddr: 0x2E90, symBinAddr: 0x100041A50, symSize: 0x50 }
  - { offset: 0x6B94A, size: 0x8, addend: 0x0, symName: __RNvMs_NtCslJiobkLta79_5alloc3vecINtB4_3VecNtCseYC8vFNOjrM_2cc6ObjectE8push_mutBG_, symObjAddr: 0x2EE0, symBinAddr: 0x100041AA0, symSize: 0x130 }
  - { offset: 0x6BB83, size: 0x8, addend: 0x0, symName: __RNvMs_NtCslJiobkLta79_5alloc3vecINtB4_3VecNtNtB6_6string6StringE7set_lenCseYC8vFNOjrM_2cc, symObjAddr: 0x3010, symBinAddr: 0x100041BD0, symSize: 0x70 }
  - { offset: 0x6BCF3, size: 0x8, addend: 0x0, symName: __RNvMs_NtCslJiobkLta79_5alloc3vecINtB4_3VecNtNtB6_6string6StringE8as_sliceCseYC8vFNOjrM_2cc, symObjAddr: 0x3080, symBinAddr: 0x100041C40, symSize: 0x50 }
  - { offset: 0x6BDAD, size: 0x8, addend: 0x0, symName: __RNvMs_NtCslJiobkLta79_5alloc3vecINtB4_3VecNtNtNtCsHUR1vrdMJt_3std3ffi6os_str8OsStringE4pushCseYC8vFNOjrM_2cc, symObjAddr: 0x30D0, symBinAddr: 0x100041C90, symSize: 0x20 }
  - { offset: 0x6BF08, size: 0x8, addend: 0x0, symName: __RNvMs_NtCslJiobkLta79_5alloc3vecINtB4_3VecNtNtNtCsHUR1vrdMJt_3std3ffi6os_str8OsStringE7reserveCseYC8vFNOjrM_2cc, symObjAddr: 0x30F0, symBinAddr: 0x100041CB0, symSize: 0xB0 }
  - { offset: 0x6C106, size: 0x8, addend: 0x0, symName: __RNvMs_NtCslJiobkLta79_5alloc3vecINtB4_3VecNtNtNtCsHUR1vrdMJt_3std3ffi6os_str8OsStringE7set_lenCseYC8vFNOjrM_2cc, symObjAddr: 0x31A0, symBinAddr: 0x100041D60, symSize: 0x70 }
  - { offset: 0x6C276, size: 0x8, addend: 0x0, symName: __RNvMs_NtCslJiobkLta79_5alloc3vecINtB4_3VecNtNtNtCsHUR1vrdMJt_3std3ffi6os_str8OsStringE8as_sliceCseYC8vFNOjrM_2cc, symObjAddr: 0x3210, symBinAddr: 0x100041DD0, symSize: 0x50 }
  - { offset: 0x6C355, size: 0x8, addend: 0x0, symName: __RNvMs_NtCslJiobkLta79_5alloc3vecINtB4_3VecNtNtNtCsHUR1vrdMJt_3std3ffi6os_str8OsStringE8is_emptyCseYC8vFNOjrM_2cc, symObjAddr: 0x3260, symBinAddr: 0x100041E20, symSize: 0x20 }
  - { offset: 0x6C494, size: 0x8, addend: 0x0, symName: __RNvMs_NtCslJiobkLta79_5alloc3vecINtB4_3VecNtNtNtCsHUR1vrdMJt_3std3ffi6os_str8OsStringE8push_mutCseYC8vFNOjrM_2cc, symObjAddr: 0x3280, symBinAddr: 0x100041E40, symSize: 0x110 }
  - { offset: 0x6C7A3, size: 0x8, addend: 0x0, symName: __RNvMs_NtCslJiobkLta79_5alloc3vecINtB4_3VecNtNtNtNtCsHUR1vrdMJt_3std4sync4mpmc5waker5EntryE6removeCseYC8vFNOjrM_2cc, symObjAddr: 0x3390, symBinAddr: 0x100041F50, symSize: 0x1C0 }
  - { offset: 0x6CAF8, size: 0x8, addend: 0x0, symName: __RNvMs_NtCslJiobkLta79_5alloc3vecINtB4_3VecNtNtNtNtCsHUR1vrdMJt_3std4sync4mpmc5waker5EntryE8push_mutCseYC8vFNOjrM_2cc, symObjAddr: 0x3550, symBinAddr: 0x100042110, symSize: 0x110 }
  - { offset: 0x6CDC3, size: 0x8, addend: 0x0, symName: __RNvMs_NtCslJiobkLta79_5alloc3vecINtB4_3VecRNtNtCsHUR1vrdMJt_3std4path4PathE7reserveCseYC8vFNOjrM_2cc, symObjAddr: 0x3660, symBinAddr: 0x100042220, symSize: 0xB0 }
  - { offset: 0x6CFD4, size: 0x8, addend: 0x0, symName: __RNvMs_NtCslJiobkLta79_5alloc3vecINtB4_3VecRNtNtCsHUR1vrdMJt_3std4path4PathE8as_sliceCseYC8vFNOjrM_2cc, symObjAddr: 0x3710, symBinAddr: 0x1000422D0, symSize: 0x50 }
  - { offset: 0x6D162, size: 0x8, addend: 0x0, symName: __RNvMs_NtCslJiobkLta79_5alloc3vecINtB4_3VecReE17from_raw_parts_inCseYC8vFNOjrM_2cc, symObjAddr: 0x3760, symBinAddr: 0x100042320, symSize: 0xA0 }
  - { offset: 0x6D2E9, size: 0x8, addend: 0x0, symName: __RNvMs_NtCslJiobkLta79_5alloc3vecINtB4_3VecReE4pushCseYC8vFNOjrM_2cc, symObjAddr: 0x3800, symBinAddr: 0x1000423C0, symSize: 0x20 }
  - { offset: 0x6D443, size: 0x8, addend: 0x0, symName: __RNvMs_NtCslJiobkLta79_5alloc3vecINtB4_3VecReE7reserveCseYC8vFNOjrM_2cc, symObjAddr: 0x3820, symBinAddr: 0x1000423E0, symSize: 0xB0 }
  - { offset: 0x6D620, size: 0x8, addend: 0x0, symName: __RNvMs_NtCslJiobkLta79_5alloc3vecINtB4_3VecReE8as_sliceCseYC8vFNOjrM_2cc, symObjAddr: 0x38D0, symBinAddr: 0x100042490, symSize: 0x50 }
  - { offset: 0x6D7C6, size: 0x8, addend: 0x0, symName: __RNvMs_NtCslJiobkLta79_5alloc3vecINtB4_3VecReE8push_mutCseYC8vFNOjrM_2cc, symObjAddr: 0x3920, symBinAddr: 0x1000424E0, symSize: 0xF0 }
  - { offset: 0x6DA47, size: 0x8, addend: 0x0, symName: __RNvMs_NtCslJiobkLta79_5alloc3vecINtB4_3VecTINtNtB6_4sync3ArcNtNtNtCsHUR1vrdMJt_3std3ffi6os_str5OsStrEBF_EE8as_sliceCseYC8vFNOjrM_2cc, symObjAddr: 0x3A10, symBinAddr: 0x1000425D0, symSize: 0x50 }
  - { offset: 0x6DBCC, size: 0x8, addend: 0x0, symName: __RNvMs_NtCslJiobkLta79_5alloc3vecINtB4_3VecTINtNtB6_4sync3ArceEINtNtCsieiGu2EXtoJ_4core6option6OptionBF_EEE8as_sliceCseYC8vFNOjrM_2cc, symObjAddr: 0x3A60, symBinAddr: 0x100042620, symSize: 0x50 }
  - { offset: 0x6DC86, size: 0x8, addend: 0x0, symName: __RNvMs_NtCslJiobkLta79_5alloc3vecINtB4_3VecTNtNtCsHUR1vrdMJt_3std7process7CommandNtNtNtCseYC8vFNOjrM_2cc8parallel14command_runner10KillOnDropNtNtB1k_9job_token8JobTokenEE4pushB1m_, symObjAddr: 0x3AB0, symBinAddr: 0x100042670, symSize: 0x20 }
  - { offset: 0x6DCF0, size: 0x8, addend: 0x0, symName: __RNvMs_NtCslJiobkLta79_5alloc3vecINtB4_3VecTNtNtCsHUR1vrdMJt_3std7process7CommandNtNtNtCseYC8vFNOjrM_2cc8parallel14command_runner10KillOnDropNtNtB1k_9job_token8JobTokenEE8is_emptyB1m_, symObjAddr: 0x3AD0, symBinAddr: 0x100042690, symSize: 0x20 }
  - { offset: 0x6DE22, size: 0x8, addend: 0x0, symName: __RNvMs_NtCslJiobkLta79_5alloc3vecINtB4_3VecTNtNtCsHUR1vrdMJt_3std7process7CommandNtNtNtCseYC8vFNOjrM_2cc8parallel14command_runner10KillOnDropNtNtB1k_9job_token8JobTokenEE8push_mutB1m_, symObjAddr: 0x3AF0, symBinAddr: 0x1000426B0, symSize: 0x140 }
  - { offset: 0x6DFD7, size: 0x8, addend: 0x0, symName: __RNvMs_NtCslJiobkLta79_5alloc3vecINtB4_3VecTNtNtNtCsHUR1vrdMJt_3std3ffi6os_str8OsStringBF_EE4pushCseYC8vFNOjrM_2cc, symObjAddr: 0x3C30, symBinAddr: 0x1000427F0, symSize: 0x20 }
  - { offset: 0x6E132, size: 0x8, addend: 0x0, symName: __RNvMs_NtCslJiobkLta79_5alloc3vecINtB4_3VecTNtNtNtCsHUR1vrdMJt_3std3ffi6os_str8OsStringBF_EE7reserveCseYC8vFNOjrM_2cc, symObjAddr: 0x3C50, symBinAddr: 0x100042810, symSize: 0xB0 }
  - { offset: 0x6E330, size: 0x8, addend: 0x0, symName: __RNvMs_NtCslJiobkLta79_5alloc3vecINtB4_3VecTNtNtNtCsHUR1vrdMJt_3std3ffi6os_str8OsStringBF_EE7set_lenCseYC8vFNOjrM_2cc, symObjAddr: 0x3D00, symBinAddr: 0x1000428C0, symSize: 0x70 }
  - { offset: 0x6E42E, size: 0x8, addend: 0x0, symName: __RNvMs_NtCslJiobkLta79_5alloc3vecINtB4_3VecTNtNtNtCsHUR1vrdMJt_3std3ffi6os_str8OsStringBF_EE8is_emptyCseYC8vFNOjrM_2cc, symObjAddr: 0x3D70, symBinAddr: 0x100042930, symSize: 0x20 }
  - { offset: 0x6E56D, size: 0x8, addend: 0x0, symName: __RNvMs_NtCslJiobkLta79_5alloc3vecINtB4_3VecTNtNtNtCsHUR1vrdMJt_3std3ffi6os_str8OsStringBF_EE8push_mutCseYC8vFNOjrM_2cc, symObjAddr: 0x3D90, symBinAddr: 0x100042950, symSize: 0x130 }
  - { offset: 0x6E7C0, size: 0x8, addend: 0x0, symName: __RNvMs_NtCslJiobkLta79_5alloc3vecINtB4_3VechE12as_mut_sliceCseYC8vFNOjrM_2cc, symObjAddr: 0x3EC0, symBinAddr: 0x100042A80, symSize: 0x50 }
  - { offset: 0x6E995, size: 0x8, addend: 0x0, symName: __RNvMs_NtCslJiobkLta79_5alloc3vecINtB4_3VechE13shrink_to_fitCseYC8vFNOjrM_2cc, symObjAddr: 0x3F10, symBinAddr: 0x100042AD0, symSize: 0xE0 }
  - { offset: 0x6EBCA, size: 0x8, addend: 0x0, symName: __RNvMs_NtCslJiobkLta79_5alloc3vecINtB4_3VechE16into_boxed_sliceCseYC8vFNOjrM_2cc, symObjAddr: 0x3FF0, symBinAddr: 0x100042BB0, symSize: 0x160 }
  - { offset: 0x6ED9A, size: 0x8, addend: 0x0, symName: __RNvMs_NtCslJiobkLta79_5alloc3vecINtB4_3VechE3lenCseYC8vFNOjrM_2cc, symObjAddr: 0x4150, symBinAddr: 0x100042D10, symSize: 0x10 }
  - { offset: 0x6EE3F, size: 0x8, addend: 0x0, symName: __RNvMs_NtCslJiobkLta79_5alloc3vecINtB4_3VechE8as_sliceCseYC8vFNOjrM_2cc, symObjAddr: 0x4160, symBinAddr: 0x100042D20, symSize: 0x50 }
  - { offset: 0x70A0D, size: 0x8, addend: 0x0, symName: __RINvXs2E_NtNtCsieiGu2EXtoJ_4core5slice4iterINtB7_4IterINtNtCslJiobkLta79_5alloc4sync3ArcNtNtCsHUR1vrdMJt_3std4path4PathEENtNtNtNtBb_4iter6traits8iterator8Iterator4foldjNCINvNtNtB21_8adapters3map8map_foldRBQ_jjNCINvNvXs1_NtB2N_6filterINtB3w_6FilterppEB1V_5count8to_usizeB3f_NCNvMs4_CseYC8vFNOjrM_2ccNtB4v_5Build15cuda_file_count0E0NCINvXsK_NtB1Z_5accumjNtB5r_3Sum3sumINtB2L_3MapBF_B3l_EE0E0EB4v_, symObjAddr: 0x0, symBinAddr: 0x100044E80, symSize: 0x1B0 }
  - { offset: 0x7314D, size: 0x8, addend: 0x0, symName: __RINvXs2E_NtNtCsieiGu2EXtoJ_4core5slice4iterINtB7_4IterINtNtCslJiobkLta79_5alloc4sync3ArcNtNtCsHUR1vrdMJt_3std4path4PathEENtNtNtNtBb_4iter6traits8iterator8Iterator4foldjNCINvNtNtB21_8adapters3map8map_foldRBQ_jjNCINvNvXs1_NtB2N_6filterINtB3w_6FilterppEB1V_5count8to_usizeB3f_NCNvMs4_CseYC8vFNOjrM_2ccNtB4v_5Build15cuda_file_count0E0NCINvXsK_NtB1Z_5accumjNtB5r_3Sum3sumINtB2L_3MapBF_B3l_EE0E0EB4v_, symObjAddr: 0x0, symBinAddr: 0x100044E80, symSize: 0x1B0 }
  - { offset: 0x73292, size: 0x8, addend: 0x0, symName: __RINvXs2E_NtNtCsieiGu2EXtoJ_4core5slice4iterINtB7_4IterINtNtCslJiobkLta79_5alloc4sync3ArcNtNtCsHUR1vrdMJt_3std4path4PathEENtNtNtNtBb_4iter6traits8iterator8Iterator4folduNCINvNtNtB21_8adapters3map8map_foldRBQ_RB1o_uNvYBQ_NtNtNtBb_3ops5deref5Deref5derefNCINvNvB1V_8for_each4callB3j_NCINvMsi_NtBV_3vecINtB4C_3VecB3j_E14extend_trustedINtNtB2N_5chain5ChainINtB2L_3MapIBG_NtCseYC8vFNOjrM_2cc6ObjectENCNvMs4_B5T_NtB5T_5Build8assemble0EIB5D_BF_B3p_EEE0E0E0EB5T_, symObjAddr: 0x1B0, symBinAddr: 0x100045030, symSize: 0x190 }
  - { offset: 0x733D3, size: 0x8, addend: 0x0, symName: __RINvXs2E_NtNtCsieiGu2EXtoJ_4core5slice4iterINtB7_4IterNtCseYC8vFNOjrM_2cc6ObjectENtNtNtNtBb_4iter6traits8iterator8Iterator4folduNCINvNtNtB1n_8adapters3map8map_foldRBQ_RNtNtCsHUR1vrdMJt_3std4path4PathuNCNvMs4_BS_NtBS_5Build8assemble0QNCINvNvB1h_8for_each4callB2F_NCINvMsi_NtCslJiobkLta79_5alloc3vecINtB4l_3VecB2F_E14extend_trustedINtNtB29_5chain5ChainINtB27_3MapBF_B3c_EIB5D_IBG_INtNtB4n_4sync3ArcB2G_EENvYB64_NtNtNtBb_3ops5deref5Deref5derefEEE0E0E0EBS_, symObjAddr: 0x340, symBinAddr: 0x1000451C0, symSize: 0x160 }
  - { offset: 0x73514, size: 0x8, addend: 0x0, symName: __RINvXs2E_NtNtCsieiGu2EXtoJ_4core5slice4iterINtB7_4IterNtNtCslJiobkLta79_5alloc6string6StringENtNtNtNtBb_4iter6traits8iterator8Iterator3anyNCNCNvMNtCseYC8vFNOjrM_2cc4toolNtB2j_4Tool13with_featuress_00EB2l_, symObjAddr: 0x4A0, symBinAddr: 0x100045320, symSize: 0x90 }
  - { offset: 0x73579, size: 0x8, addend: 0x0, symName: __RINvXs2E_NtNtCsieiGu2EXtoJ_4core5slice4iterINtB7_4IterNtNtCslJiobkLta79_5alloc6string6StringENtNtNtNtBb_4iter6traits8iterator8Iterator4folduNCINvNtNtB1z_8adapters3map8map_foldRBQ_RNtNtNtCsHUR1vrdMJt_3std3ffi6os_str5OsStruINvMsl_B2U_B2S_3newBQ_ENCIB2h_B2R_INtNtBU_5boxed3BoxB2S_EuNvYB2R_INtNtBb_7convert4IntoB45_E4intoNCINvNvB1t_8for_each4callB45_NCINvMsi_NtBU_3vecINtB5H_3VecB45_E14extend_trustedINtB2j_3MapINtNtB2l_5chain5ChainINtNtB2l_6cloned6ClonedIBG_B2R_EEIB6n_BF_B3x_EEB4t_EE0E0E0E0ECseYC8vFNOjrM_2cc, symObjAddr: 0x530, symBinAddr: 0x1000453B0, symSize: 0x190 }
  - { offset: 0x736BA, size: 0x8, addend: 0x0, symName: __RINvXs2E_NtNtCsieiGu2EXtoJ_4core5slice4iterINtB7_4IterNtNtCslJiobkLta79_5alloc6string6StringENtNtNtNtBb_4iter6traits8iterator8Iterator8find_mapINtNtBU_4sync3ArcNtNtNtCsHUR1vrdMJt_3std3ffi6os_str5OsStrEQNCNvMs4_CseYC8vFNOjrM_2ccNtB3m_5Build27getenv_with_target_prefixes0EB3m_, symObjAddr: 0x6C0, symBinAddr: 0x100045540, symSize: 0xF0 }
  - { offset: 0x7373F, size: 0x8, addend: 0x0, symName: __RINvXs2E_NtNtCsieiGu2EXtoJ_4core5slice4iterINtB7_4IterNtNtNtCsHUR1vrdMJt_3std3ffi6os_str8OsStringENtNtNtNtBb_4iter6traits8iterator8Iterator3anyNCNvMNtCseYC8vFNOjrM_2cc4toolNtB2m_4Tool20is_duplicate_opt_arg0EB2o_, symObjAddr: 0x7B0, symBinAddr: 0x100045630, symSize: 0x90 }
  - { offset: 0x737A4, size: 0x8, addend: 0x0, symName: __RINvXs2E_NtNtCsieiGu2EXtoJ_4core5slice4iterINtB7_4IterNtNtNtCsHUR1vrdMJt_3std3ffi6os_str8OsStringENtNtNtNtBb_4iter6traits8iterator8Iterator3anyNCNvXsf_NtB9_3cmpBQ_NtB2p_13SliceContains14slice_contains0ECseYC8vFNOjrM_2cc, symObjAddr: 0x840, symBinAddr: 0x1000456C0, symSize: 0xA0 }
  - { offset: 0x73809, size: 0x8, addend: 0x0, symName: __RINvXs2E_NtNtCsieiGu2EXtoJ_4core5slice4iterINtB7_4IterNtNtNtCsHUR1vrdMJt_3std3ffi6os_str8OsStringENtNtNtNtBb_4iter6traits8iterator8Iterator4findQNCNvMNtCseYC8vFNOjrM_2cc4toolNtB2o_4Tool10to_command0EB2q_, symObjAddr: 0x8E0, symBinAddr: 0x100045760, symSize: 0xA0 }
  - { offset: 0x7386E, size: 0x8, addend: 0x0, symName: __RINvXs2E_NtNtCsieiGu2EXtoJ_4core5slice4iterINtB7_4IterNtNtNtNtCsHUR1vrdMJt_3std4sync4mpmc5waker5EntryENtNtNtNtBb_4iter6traits8iterator8Iterator8positionNCNvMBS_NtBS_5Waker10try_select0ECseYC8vFNOjrM_2cc, symObjAddr: 0x980, symBinAddr: 0x100045800, symSize: 0x150 }
  - { offset: 0x7392C, size: 0x8, addend: 0x0, symName: __RINvXs2E_NtNtCsieiGu2EXtoJ_4core5slice4iterINtB7_4IterRINtNtCslJiobkLta79_5alloc3vec3VechEENtNtNtNtBb_4iter6traits8iterator8Iterator3anyNCNvNvMNtCseYC8vFNOjrM_2cc4toolNtB2h_4Tool13with_features19detect_family_inners1_0EB2j_, symObjAddr: 0xAD0, symBinAddr: 0x100045950, symSize: 0x90 }
  - { offset: 0x73991, size: 0x8, addend: 0x0, symName: __RINvXs2E_NtNtCsieiGu2EXtoJ_4core5slice4iterINtB7_4IterRNtNtNtCsHUR1vrdMJt_3std3ffi6os_str5OsStrENtNtNtNtBb_4iter6traits8iterator8Iterator4folduNCINvNtNtB1C_8adapters3map8map_foldRBQ_BQ_uNvYBQ_NtNtBb_5clone5Clone5cloneQNCIB2k_BQ_INtNtCslJiobkLta79_5alloc5boxed3BoxBR_EuNvYBQ_INtNtBb_7convert4IntoB3E_E4intoNCINvNvB1w_8for_each4callB3E_NCINvMsi_NtB3J_3vecINtB5v_3VecB3E_E14extend_trustedINtB2m_3MapINtNtB2o_5chain5ChainINtNtB2o_6cloned6ClonedBF_EIB6c_IBG_NtNtB3J_6string6StringEINvMsl_BT_BR_3newB7h_EEEB4i_EE0E0E0E0ECseYC8vFNOjrM_2cc, symObjAddr: 0xB60, symBinAddr: 0x1000459E0, symSize: 0x150 }
  - { offset: 0x73AD2, size: 0x8, addend: 0x0, symName: __RINvXs2E_NtNtCsieiGu2EXtoJ_4core5slice4iterINtB7_4IterReENtNtNtNtBb_4iter6traits8iterator8Iterator3anyNCNCNvMs4_CseYC8vFNOjrM_2ccNtB1M_5Build20apple_sdk_root_inner00EB1M_, symObjAddr: 0xCB0, symBinAddr: 0x100045B30, symSize: 0xA0 }
  - { offset: 0x73B37, size: 0x8, addend: 0x0, symName: __RINvXs2E_NtNtCsieiGu2EXtoJ_4core5slice4iterINtB7_4IterReENtNtNtNtBb_4iter6traits8iterator8Iterator3anyNCNvXsf_NtB9_3cmpBQ_NtB1K_13SliceContains14slice_contains0ECseYC8vFNOjrM_2cc, symObjAddr: 0xD50, symBinAddr: 0x100045BD0, symSize: 0xA0 }
  - { offset: 0x73B9C, size: 0x8, addend: 0x0, symName: __RINvXs2E_NtNtCsieiGu2EXtoJ_4core5slice4iterINtB7_4IterReENtNtNtNtBb_4iter6traits8iterator8Iterator4findNCNCNvCseYC8vFNOjrM_2cc27autodetect_android_compiler00EB1J_, symObjAddr: 0xDF0, symBinAddr: 0x100045C70, symSize: 0xA0 }
  - { offset: 0x73C01, size: 0x8, addend: 0x0, symName: __RINvXs2E_NtNtCsieiGu2EXtoJ_4core5slice4iterINtB7_4IterReENtNtNtNtBb_4iter6traits8iterator8Iterator8find_mapNtNtCslJiobkLta79_5alloc6string6StringQNCNvMs4_CseYC8vFNOjrM_2ccNtB2s_5Build25get_base_archiver_variants1_0EB2s_, symObjAddr: 0xE90, symBinAddr: 0x100045D10, symSize: 0x100 }
  - { offset: 0x73C86, size: 0x8, addend: 0x0, symName: __RINvXs2E_NtNtCsieiGu2EXtoJ_4core5slice4iterINtB7_4IterTINtNtCslJiobkLta79_5alloc4sync3ArcNtNtNtCsHUR1vrdMJt_3std3ffi6os_str5OsStrEBR_EENtNtNtNtBb_4iter6traits8iterator8Iterator4findNCNCNvMs4_CseYC8vFNOjrM_2ccNtB33_5Build23apple_deployment_targets_00EB33_, symObjAddr: 0xF90, symBinAddr: 0x100045E10, symSize: 0xA0 }
  - { offset: 0x73CEB, size: 0x8, addend: 0x0, symName: __RINvXs2E_NtNtCsieiGu2EXtoJ_4core5slice4iterINtB7_4IterTINtNtCslJiobkLta79_5alloc4sync3ArcNtNtNtCsHUR1vrdMJt_3std3ffi6os_str5OsStrEBR_EENtNtNtNtBb_4iter6traits8iterator8Iterator4findNCNvMs4_CseYC8vFNOjrM_2ccNtB31_5Build6getenv0EB31_, symObjAddr: 0x1030, symBinAddr: 0x100045EB0, symSize: 0xA0 }
  - { offset: 0x73D50, size: 0x8, addend: 0x0, symName: __RINvXs2E_NtNtCsieiGu2EXtoJ_4core5slice4iterINtB7_4IterTNtNtNtCsHUR1vrdMJt_3std3ffi6os_str8OsStringBR_EENtNtNtNtBb_4iter6traits8iterator8Iterator4findNCNvMs4_CseYC8vFNOjrM_2ccNtB2v_5Build11try_compile0EB2v_, symObjAddr: 0x10D0, symBinAddr: 0x100045F50, symSize: 0xA0 }
  - { offset: 0x73DB5, size: 0x8, addend: 0x0, symName: __RINvXs2E_NtNtCsieiGu2EXtoJ_4core5slice4iterINtB7_4IterTNtNtNtCsHUR1vrdMJt_3std3ffi6os_str8OsStringBR_EENtNtNtNtBb_4iter6traits8iterator8Iterator4folduNCINvNtNtB1J_8adapters3map8map_foldRBQ_BQ_uNCNvMNtCseYC8vFNOjrM_2cc4toolNtB3a_4Tool20from_find_msvc_tools0NCINvNvB1D_8for_each4callBQ_NCINvMsi_NtCslJiobkLta79_5alloc3vecINtB4H_3VecBQ_E14extend_trustedINtB2t_3MapBF_B35_EE0E0E0EB3c_, symObjAddr: 0x1170, symBinAddr: 0x100045FF0, symSize: 0x190 }
  - { offset: 0x73EF6, size: 0x8, addend: 0x0, symName: __RINvXs2E_NtNtCsieiGu2EXtoJ_4core5slice4iterINtB7_4ItercENtNtNtNtBb_4iter6traits8iterator8Iterator3anyNCNvXsL_NtB9_3cmpcNtB1J_13SliceContains14slice_containss_0ECseYC8vFNOjrM_2cc, symObjAddr: 0x1300, symBinAddr: 0x100046180, symSize: 0xA0 }
  - { offset: 0x73F5B, size: 0x8, addend: 0x0, symName: __RINvXs2E_NtNtCsieiGu2EXtoJ_4core5slice4iterINtB7_4ItercENtNtNtNtBb_4iter6traits8iterator8Iterator4foldbNCNvXsL_NtB9_3cmpcNtB1L_13SliceContains14slice_contains0ECseYC8vFNOjrM_2cc, symObjAddr: 0x13A0, symBinAddr: 0x100046220, symSize: 0x1A0 }
  - { offset: 0x740A0, size: 0x8, addend: 0x0, symName: __RINvXs2E_NtNtCsieiGu2EXtoJ_4core5slice4iterINtB7_4IterhENtNtNtNtBb_4iter6traits8iterator8Iterator4folduNCINvNtNtBY_8adapters3map8map_foldRhhuNCNvNtCslJiobkLta79_5alloc3str13replace_ascii0NCINvNvBS_8for_each4callhNCINvMsi_NtB2l_3vecINtB3x_3VechE14extend_trustedINtB1I_3MapBF_B2f_EE0E0E0ECseYC8vFNOjrM_2cc, symObjAddr: 0x1540, symBinAddr: 0x1000463C0, symSize: 0x190 }
  - { offset: 0x741E1, size: 0x8, addend: 0x0, symName: __RINvXs2E_NtNtCsieiGu2EXtoJ_4core5slice4iterINtB7_4IterhENtNtNtNtBb_4iter6traits8iterator8Iterator8positionNCNvXsf_B7_INtB7_5SplithNCNvNtCseYC8vFNOjrM_2cc15command_helpers10run_output0EBS_4next0EB2a_, symObjAddr: 0x16D0, symBinAddr: 0x100046550, symSize: 0x150 }
  - { offset: 0x7429F, size: 0x8, addend: 0x0, symName: __RINvXs2E_NtNtCsieiGu2EXtoJ_4core5slice4iterINtB7_4IterhENtNtNtNtBb_4iter6traits8iterator8Iterator8positionNCNvXsf_B7_INtB7_5SplithNtNtBb_3str17IsAsciiWhitespaceEBS_4next0ECseYC8vFNOjrM_2cc, symObjAddr: 0x1820, symBinAddr: 0x1000466A0, symSize: 0x150 }
  - { offset: 0x7435D, size: 0x8, addend: 0x0, symName: __RINvXs2E_NtNtCsieiGu2EXtoJ_4core5slice4iterINtB7_4IterhENtNtNtNtBb_4iter6traits8iterator8Iterator8positionNCNvXsm_B7_INtB7_14SplitInclusivehNCNvMs_NtCseYC8vFNOjrM_2cc15command_helpersNtB2l_15StderrForwarder17forward_available0EBS_4next0EB2n_, symObjAddr: 0x1970, symBinAddr: 0x1000467F0, symSize: 0x150 }
  - { offset: 0x7441B, size: 0x8, addend: 0x0, symName: __RNvXs2E_NtNtCsieiGu2EXtoJ_4core5slice4iterINtB6_4IterAhj20_ENtNtNtNtBa_4iter6traits8iterator8Iterator4nextCseYC8vFNOjrM_2cc, symObjAddr: 0x2A40, symBinAddr: 0x100047780, symSize: 0x90 }
  - { offset: 0x7453C, size: 0x8, addend: 0x0, symName: __RNvXs2E_NtNtCsieiGu2EXtoJ_4core5slice4iterINtB6_4IterINtNtCslJiobkLta79_5alloc4sync3ArcNtNtCsHUR1vrdMJt_3std4path4PathEENtNtNtNtBa_4iter6traits8iterator8Iterator4nextCseYC8vFNOjrM_2cc, symObjAddr: 0x2AD0, symBinAddr: 0x100047810, symSize: 0x90 }
  - { offset: 0x7465D, size: 0x8, addend: 0x0, symName: __RNvXs2E_NtNtCsieiGu2EXtoJ_4core5slice4iterINtB6_4IterINtNtCslJiobkLta79_5alloc4sync3ArcNtNtCsHUR1vrdMJt_3std4path4PathEENtNtNtNtBa_4iter6traits8iterator8Iterator9size_hintCseYC8vFNOjrM_2cc, symObjAddr: 0x2B60, symBinAddr: 0x1000478A0, symSize: 0x60 }
  - { offset: 0x746CC, size: 0x8, addend: 0x0, symName: __RNvXs2E_NtNtCsieiGu2EXtoJ_4core5slice4iterINtB6_4IterINtNtCslJiobkLta79_5alloc4sync3ArcNtNtNtCsHUR1vrdMJt_3std3ffi6os_str5OsStrEENtNtNtNtBa_4iter6traits8iterator8Iterator4nextCseYC8vFNOjrM_2cc, symObjAddr: 0x2BC0, symBinAddr: 0x100047900, symSize: 0x90 }
  - { offset: 0x747ED, size: 0x8, addend: 0x0, symName: __RNvXs2E_NtNtCsieiGu2EXtoJ_4core5slice4iterINtB6_4IterINtNtCslJiobkLta79_5alloc5boxed3BoxNtNtNtCsHUR1vrdMJt_3std3ffi6os_str5OsStrEENtNtNtNtBa_4iter6traits8iterator8Iterator4nextCseYC8vFNOjrM_2cc, symObjAddr: 0x2C50, symBinAddr: 0x100047990, symSize: 0x90 }
  - { offset: 0x7490E, size: 0x8, addend: 0x0, symName: __RNvXs2E_NtNtCsieiGu2EXtoJ_4core5slice4iterINtB6_4IterNtCseYC8vFNOjrM_2cc6ObjectENtNtNtNtBa_4iter6traits8iterator8Iterator4nextBR_, symObjAddr: 0x2CE0, symBinAddr: 0x100047A20, symSize: 0x90 }
  - { offset: 0x74A2F, size: 0x8, addend: 0x0, symName: __RNvXs2E_NtNtCsieiGu2EXtoJ_4core5slice4iterINtB6_4IterNtCseYC8vFNOjrM_2cc6ObjectENtNtNtNtBa_4iter6traits8iterator8Iterator9size_hintBR_, symObjAddr: 0x2D70, symBinAddr: 0x100047AB0, symSize: 0x60 }
  - { offset: 0x74A9E, size: 0x8, addend: 0x0, symName: __RNvXs2E_NtNtCsieiGu2EXtoJ_4core5slice4iterINtB6_4IterNtNtCslJiobkLta79_5alloc6string6StringENtNtNtNtBa_4iter6traits8iterator8Iterator4nextCseYC8vFNOjrM_2cc, symObjAddr: 0x2DD0, symBinAddr: 0x100047B10, symSize: 0x90 }
  - { offset: 0x74BBF, size: 0x8, addend: 0x0, symName: __RNvXs2E_NtNtCsieiGu2EXtoJ_4core5slice4iterINtB6_4IterNtNtCslJiobkLta79_5alloc6string6StringENtNtNtNtBa_4iter6traits8iterator8Iterator9size_hintCseYC8vFNOjrM_2cc, symObjAddr: 0x2E60, symBinAddr: 0x100047BA0, symSize: 0x60 }
  - { offset: 0x74C2E, size: 0x8, addend: 0x0, symName: __RNvXs2E_NtNtCsieiGu2EXtoJ_4core5slice4iterINtB6_4IterNtNtNtCsHUR1vrdMJt_3std3ffi6os_str8OsStringENtNtNtNtBa_4iter6traits8iterator8Iterator4nextCseYC8vFNOjrM_2cc, symObjAddr: 0x2EC0, symBinAddr: 0x100047C00, symSize: 0x90 }
  - { offset: 0x74D4F, size: 0x8, addend: 0x0, symName: __RNvXs2E_NtNtCsieiGu2EXtoJ_4core5slice4iterINtB6_4IterNtNtNtNtCsHUR1vrdMJt_3std4sync4mpmc5waker5EntryENtNtNtNtBa_4iter6traits8iterator8Iterator4nextCseYC8vFNOjrM_2cc, symObjAddr: 0x2F50, symBinAddr: 0x100047C90, symSize: 0x90 }
  - { offset: 0x74E70, size: 0x8, addend: 0x0, symName: __RNvXs2E_NtNtCsieiGu2EXtoJ_4core5slice4iterINtB6_4IterRINtNtCslJiobkLta79_5alloc3vec3VechEENtNtNtNtBa_4iter6traits8iterator8Iterator4nextCseYC8vFNOjrM_2cc, symObjAddr: 0x2FE0, symBinAddr: 0x100047D20, symSize: 0x90 }
  - { offset: 0x74F91, size: 0x8, addend: 0x0, symName: __RNvXs2E_NtNtCsieiGu2EXtoJ_4core5slice4iterINtB6_4IterRNtNtCsHUR1vrdMJt_3std4path4PathENtNtNtNtBa_4iter6traits8iterator8Iterator4nextCseYC8vFNOjrM_2cc, symObjAddr: 0x3070, symBinAddr: 0x100047DB0, symSize: 0x90 }
  - { offset: 0x750B2, size: 0x8, addend: 0x0, symName: __RNvXs2E_NtNtCsieiGu2EXtoJ_4core5slice4iterINtB6_4IterRNtNtNtCsHUR1vrdMJt_3std3ffi6os_str5OsStrENtNtNtNtBa_4iter6traits8iterator8Iterator9size_hintCseYC8vFNOjrM_2cc, symObjAddr: 0x3100, symBinAddr: 0x100047E40, symSize: 0x60 }
  - { offset: 0x75121, size: 0x8, addend: 0x0, symName: __RNvXs2E_NtNtCsieiGu2EXtoJ_4core5slice4iterINtB6_4IterTINtNtCslJiobkLta79_5alloc4sync3ArcNtNtNtCsHUR1vrdMJt_3std3ffi6os_str5OsStrEBQ_EENtNtNtNtBa_4iter6traits8iterator8Iterator4nextCseYC8vFNOjrM_2cc, symObjAddr: 0x3160, symBinAddr: 0x100047EA0, symSize: 0x90 }
  - { offset: 0x75242, size: 0x8, addend: 0x0, symName: __RNvXs2E_NtNtCsieiGu2EXtoJ_4core5slice4iterINtB6_4IterTINtNtCslJiobkLta79_5alloc4sync3ArceEINtNtBa_6option6OptionBQ_EEENtNtNtNtBa_4iter6traits8iterator8Iterator4nextCseYC8vFNOjrM_2cc, symObjAddr: 0x31F0, symBinAddr: 0x100047F30, symSize: 0x90 }
  - { offset: 0x75363, size: 0x8, addend: 0x0, symName: __RNvXs2E_NtNtCsieiGu2EXtoJ_4core5slice4iterINtB6_4IterTNtNtNtCsHUR1vrdMJt_3std3ffi6os_str8OsStringBQ_EENtNtNtNtBa_4iter6traits8iterator8Iterator9size_hintCseYC8vFNOjrM_2cc, symObjAddr: 0x3280, symBinAddr: 0x100047FC0, symSize: 0x60 }
  - { offset: 0x753D2, size: 0x8, addend: 0x0, symName: __RNvXs2E_NtNtCsieiGu2EXtoJ_4core5slice4iterINtB6_4ItercENtNtNtNtBa_4iter6traits8iterator8Iterator4nextCseYC8vFNOjrM_2cc, symObjAddr: 0x32E0, symBinAddr: 0x100048020, symSize: 0x90 }
  - { offset: 0x754F3, size: 0x8, addend: 0x0, symName: __RNvXs2E_NtNtCsieiGu2EXtoJ_4core5slice4iterINtB6_4IterhENtNtNtNtBa_4iter6traits8iterator8Iterator10advance_byCseYC8vFNOjrM_2cc, symObjAddr: 0x3370, symBinAddr: 0x1000480B0, symSize: 0xA0 }
  - { offset: 0x7580E, size: 0x8, addend: 0x0, symName: __RNCNvXsf_NtNtCsieiGu2EXtoJ_4core5slice4iterINtB7_5SplithNCNvNtCseYC8vFNOjrM_2cc15command_helpers10run_output0ENtNtNtNtBb_4iter6traits8iterator8Iterator4next0BY_, symObjAddr: 0x2340, symBinAddr: 0x1000470A0, symSize: 0x20 }
  - { offset: 0x75860, size: 0x8, addend: 0x0, symName: __RNCNvXsf_NtNtCsieiGu2EXtoJ_4core5slice4iterINtB7_5SplithNtNtBb_3str17IsAsciiWhitespaceENtNtNtNtBb_4iter6traits8iterator8Iterator4next0CseYC8vFNOjrM_2cc, symObjAddr: 0x2360, symBinAddr: 0x1000470C0, symSize: 0x20 }
  - { offset: 0x758D9, size: 0x8, addend: 0x0, symName: __RNvXsf_NtNtCsieiGu2EXtoJ_4core5slice4iterINtB5_5SplithNCNvNtCseYC8vFNOjrM_2cc15command_helpers10run_output0ENtNtNtNtB9_4iter6traits8iterator8Iterator4nextBW_, symObjAddr: 0x3560, symBinAddr: 0x1000482A0, symSize: 0x2D0 }
  - { offset: 0x75C47, size: 0x8, addend: 0x0, symName: __RNvXsf_NtNtCsieiGu2EXtoJ_4core5slice4iterINtB5_5SplithNtNtB9_3str17IsAsciiWhitespaceENtNtNtNtB9_4iter6traits8iterator8Iterator4nextCseYC8vFNOjrM_2cc, symObjAddr: 0x3830, symBinAddr: 0x100048570, symSize: 0x2D0 }
  - { offset: 0x75FB5, size: 0x8, addend: 0x0, symName: __RNvXsf_NtNtCsieiGu2EXtoJ_4core5slice4iterINtB5_5SplithNtNtB9_3str17IsAsciiWhitespaceENtNtNtNtB9_4iter6traits8iterator8Iterator9size_hintCseYC8vFNOjrM_2cc, symObjAddr: 0x3B00, symBinAddr: 0x100048840, symSize: 0x70 }
  - { offset: 0x76000, size: 0x8, addend: 0x0, symName: __RNCNvXsm_NtNtCsieiGu2EXtoJ_4core5slice4iterINtB7_14SplitInclusivehNCNvMs_NtCseYC8vFNOjrM_2cc15command_helpersNtB19_15StderrForwarder17forward_available0ENtNtNtNtBb_4iter6traits8iterator8Iterator4next0B1b_, symObjAddr: 0x2380, symBinAddr: 0x1000470E0, symSize: 0x20 }
  - { offset: 0x7609D, size: 0x8, addend: 0x0, symName: __RNvXsm_NtNtCsieiGu2EXtoJ_4core5slice4iterINtB5_14SplitInclusivehNCNvMs_NtCseYC8vFNOjrM_2cc15command_helpersNtB17_15StderrForwarder17forward_available0ENtNtNtNtB9_4iter6traits8iterator8Iterator4nextB19_, symObjAddr: 0x3B70, symBinAddr: 0x1000488B0, symSize: 0x2E0 }
  - { offset: 0x76572, size: 0x8, addend: 0x0, symName: __RNvXs17_NtNtCsieiGu2EXtoJ_4core5slice4iterINtB6_6ChunksRNtNtCsHUR1vrdMJt_3std4path4PathENtNtNtNtBa_4iter6traits8iterator8Iterator4nextCseYC8vFNOjrM_2cc, symObjAddr: 0x2750, symBinAddr: 0x100047490, symSize: 0x190 }
  - { offset: 0x7666E, size: 0x8, addend: 0x0, symName: __RNvXs1q_NtNtCsieiGu2EXtoJ_4core5slice4iterINtB6_11ChunksExactcENtNtNtNtBa_4iter6traits8iterator8Iterator4nextCseYC8vFNOjrM_2cc, symObjAddr: 0x28E0, symBinAddr: 0x100047620, symSize: 0x160 }
  - { offset: 0x767A3, size: 0x8, addend: 0x0, symName: __RNvXs2F_NtNtCsieiGu2EXtoJ_4core5slice4iterINtB6_4IterNtNtCslJiobkLta79_5alloc6string6StringENtNtNtNtBa_4iter6traits12double_ended19DoubleEndedIterator9next_backCseYC8vFNOjrM_2cc, symObjAddr: 0x3410, symBinAddr: 0x100048150, symSize: 0x100 }
  - { offset: 0x768F8, size: 0x8, addend: 0x0, symName: __RNvXs_NtNtCsieiGu2EXtoJ_4core5slice4iterRSReNtNtNtNtB8_4iter6traits7collect12IntoIterator9into_iterCseYC8vFNOjrM_2cc, symObjAddr: 0x3510, symBinAddr: 0x100048250, symSize: 0x50 }
  - { offset: 0x77365, size: 0x8, addend: 0x0, symName: __RINvYINtNtNtCsieiGu2EXtoJ_4core5slice4iter4IterINtNtCslJiobkLta79_5alloc4sync3ArcNtNtCsHUR1vrdMJt_3std4path4PathEENtNtNtNtBa_4iter6traits8iterator8Iterator3mapRB1h_NvYBJ_NtNtNtBa_3ops5deref5Deref5derefECseYC8vFNOjrM_2cc, symObjAddr: 0x1AE0, symBinAddr: 0x100046940, symSize: 0x20 }
  - { offset: 0x773BD, size: 0x8, addend: 0x0, symName: __RINvYINtNtNtCsieiGu2EXtoJ_4core5slice4iter4IterINtNtCslJiobkLta79_5alloc4sync3ArcNtNtCsHUR1vrdMJt_3std4path4PathEENtNtNtNtBa_4iter6traits8iterator8Iterator3mapjNCINvNvXs1_NtNtB1U_8adapters6filterINtB2J_6FilterppEB1O_5count8to_usizeRBJ_NCNvMs4_CseYC8vFNOjrM_2ccNtB3T_5Build15cuda_file_count0E0EB3T_, symObjAddr: 0x1B00, symBinAddr: 0x100046960, symSize: 0x20 }
  - { offset: 0x77415, size: 0x8, addend: 0x0, symName: __RINvYINtNtNtCsieiGu2EXtoJ_4core5slice4iter4IterINtNtCslJiobkLta79_5alloc4sync3ArcNtNtCsHUR1vrdMJt_3std4path4PathEENtNtNtNtBa_4iter6traits8iterator8Iterator6filterNCNvMs4_CseYC8vFNOjrM_2ccNtB2I_5Build15cuda_file_count0EB2I_, symObjAddr: 0x1B20, symBinAddr: 0x100046980, symSize: 0x20 }
  - { offset: 0x77464, size: 0x8, addend: 0x0, symName: __RINvYINtNtNtCsieiGu2EXtoJ_4core5slice4iter4IterINtNtCslJiobkLta79_5alloc4sync3ArcNtNtNtCsHUR1vrdMJt_3std3ffi6os_str5OsStrEENtNtNtNtBa_4iter6traits8iterator8Iterator3mapRB1h_NvYBJ_NtNtNtBa_3ops5deref5Deref5derefECseYC8vFNOjrM_2cc, symObjAddr: 0x1C40, symBinAddr: 0x1000469A0, symSize: 0x20 }
  - { offset: 0x774BC, size: 0x8, addend: 0x0, symName: __RINvYINtNtNtCsieiGu2EXtoJ_4core5slice4iter4IterNtCseYC8vFNOjrM_2cc6ObjectENtNtNtNtBa_4iter6traits8iterator8Iterator3mapINtNtBa_6result6ResultNtNtCsHUR1vrdMJt_3std7process7CommandNtBL_5ErrorENCNvMs4_BL_NtBL_5Build15compile_objects0EBL_, symObjAddr: 0x1C60, symBinAddr: 0x1000469C0, symSize: 0x20 }
  - { offset: 0x77529, size: 0x8, addend: 0x0, symName: __RINvYINtNtNtCsieiGu2EXtoJ_4core5slice4iter4IterNtCseYC8vFNOjrM_2cc6ObjectENtNtNtNtBa_4iter6traits8iterator8Iterator3mapRNtNtCsHUR1vrdMJt_3std4path4PathNCNvMs4_BL_NtBL_5Build8assemble0EBL_, symObjAddr: 0x1C80, symBinAddr: 0x1000469E0, symSize: 0x20 }
  - { offset: 0x77581, size: 0x8, addend: 0x0, symName: __RINvYINtNtNtCsieiGu2EXtoJ_4core5slice4iter4IterNtCseYC8vFNOjrM_2cc6ObjectENtNtNtNtBa_4iter6traits8iterator8Iterator8try_foldINtNtNtBa_3num7nonzero7NonZerojENCINvNtNtB1g_8adapters3map12map_try_foldRBJ_INtNtBa_6result6ResultNtNtCsHUR1vrdMJt_3std7process7CommandNtBL_5ErrorEB1Y_INtNtBa_6option6OptionB1Y_ENCNvMs4_BL_NtBL_5Build15compile_objects0NCNvXs_NvB1a_10advance_byINtB2z_3MapB3_B4Q_ENtB5B_13SpecAdvanceBy15spec_advance_by0E0B4p_EBL_, symObjAddr: 0x1CA0, symBinAddr: 0x100046A00, symSize: 0x130 }
  - { offset: 0x77635, size: 0x8, addend: 0x0, symName: __RINvYINtNtNtCsieiGu2EXtoJ_4core5slice4iter4IterNtNtCslJiobkLta79_5alloc6string6StringENtNtNtNtBa_4iter6traits8iterator8Iterator10filter_mapINtNtBN_4sync3ArcNtNtNtCsHUR1vrdMJt_3std3ffi6os_str5OsStrENCNvMs4_CseYC8vFNOjrM_2ccNtB3h_5Build27getenv_with_target_prefixes0EB3h_, symObjAddr: 0x1DD0, symBinAddr: 0x100046B30, symSize: 0x20 }
  - { offset: 0x776A2, size: 0x8, addend: 0x0, symName: __RINvYINtNtNtCsieiGu2EXtoJ_4core5slice4iter4IterNtNtCslJiobkLta79_5alloc6string6StringENtNtNtNtBa_4iter6traits8iterator8Iterator3mapRNtNtNtCsHUR1vrdMJt_3std3ffi6os_str5OsStrINvMsl_B28_B26_3newBJ_EECseYC8vFNOjrM_2cc, symObjAddr: 0x1DF0, symBinAddr: 0x100046B50, symSize: 0x20 }
  - { offset: 0x776FA, size: 0x8, addend: 0x0, symName: __RINvYINtNtNtCsieiGu2EXtoJ_4core5slice4iter4IterNtNtNtCsHUR1vrdMJt_3std3ffi6os_str8OsStringENtNtNtNtBa_4iter6traits8iterator8Iterator6filterNCNvMNtCseYC8vFNOjrM_2cc4toolNtB2i_4Tool10to_command0EB2k_, symObjAddr: 0x1E10, symBinAddr: 0x100046B70, symSize: 0x20 }
  - { offset: 0x7775E, size: 0x8, addend: 0x0, symName: __RINvYINtNtNtCsieiGu2EXtoJ_4core5slice4iter4IterNtNtNtNtCsHUR1vrdMJt_3std4sync4mpmc5waker5EntryENtNtNtNtBa_4iter6traits8iterator8Iterator8try_folduNCINvNvXs_NtNtB1B_8adapters9enumerateINtB2u_9EnumeratepEB1v_8try_fold9enumerateRBJ_uINtNtNtBa_3ops12control_flow11ControlFlowTjB3B_EENCINvNvB1v_4find5checkB4l_NCNvMBL_NtBL_5Waker10unregister0E0E0B3G_ECseYC8vFNOjrM_2cc, symObjAddr: 0x1E30, symBinAddr: 0x100046B90, symSize: 0x190 }
  - { offset: 0x77811, size: 0x8, addend: 0x0, symName: __RINvYINtNtNtCsieiGu2EXtoJ_4core5slice4iter4IterRNtNtNtCsHUR1vrdMJt_3std3ffi6os_str5OsStrENtNtNtNtBa_4iter6traits8iterator8Iterator3mapBJ_NvYBJ_NtNtBa_5clone5Clone5cloneECseYC8vFNOjrM_2cc, symObjAddr: 0x1FC0, symBinAddr: 0x100046D20, symSize: 0x20 }
  - { offset: 0x77869, size: 0x8, addend: 0x0, symName: __RINvYINtNtNtCsieiGu2EXtoJ_4core5slice4iter4IterRNtNtNtCsHUR1vrdMJt_3std3ffi6os_str5OsStrENtNtNtNtBa_4iter6traits8iterator8Iterator6clonedBJ_ECseYC8vFNOjrM_2cc, symObjAddr: 0x1FE0, symBinAddr: 0x100046D40, symSize: 0x20 }
  - { offset: 0x778A9, size: 0x8, addend: 0x0, symName: __RINvYINtNtNtCsieiGu2EXtoJ_4core5slice4iter4IterReENtNtNtNtBa_4iter6traits8iterator8Iterator10filter_mapNtNtCslJiobkLta79_5alloc6string6StringNCNvMs4_CseYC8vFNOjrM_2ccNtB2n_5Build25get_base_archiver_variants1_0EB2n_, symObjAddr: 0x2000, symBinAddr: 0x100046D60, symSize: 0x30 }
  - { offset: 0x77916, size: 0x8, addend: 0x0, symName: __RINvYINtNtNtCsieiGu2EXtoJ_4core5slice4iter4IterTNtNtNtCsHUR1vrdMJt_3std3ffi6os_str8OsStringBK_EENtNtNtNtBa_4iter6traits8iterator8Iterator3mapBJ_NCNvMNtCseYC8vFNOjrM_2cc4toolNtB2n_4Tool20from_find_msvc_tools0EB2p_, symObjAddr: 0x2030, symBinAddr: 0x100046D90, symSize: 0x20 }
  - { offset: 0x7796E, size: 0x8, addend: 0x0, symName: __RINvYINtNtNtCsieiGu2EXtoJ_4core5slice4iter5SplithNCNvNtCseYC8vFNOjrM_2cc15command_helpers10run_output0ENtNtNtNtBa_4iter6traits8iterator8Iterator4folduNCINvNtNtB1J_8adapters6filter11filter_foldRShuNCBN_s_0NCINvNvB1D_8for_each4callB34_NvBP_13write_warningE0E0EBR_, symObjAddr: 0x2050, symBinAddr: 0x100046DB0, symSize: 0xA0 }
  - { offset: 0x779FE, size: 0x8, addend: 0x0, symName: __RINvYINtNtNtCsieiGu2EXtoJ_4core5slice4iter5SplithNCNvNtCseYC8vFNOjrM_2cc15command_helpers10run_output0ENtNtNtNtBa_4iter6traits8iterator8Iterator6filterNCBN_s_0EBR_, symObjAddr: 0x20F0, symBinAddr: 0x100046E50, symSize: 0x20 }
  - { offset: 0x77A62, size: 0x8, addend: 0x0, symName: __RINvYINtNtNtCsieiGu2EXtoJ_4core5slice4iter5SplithNtNtBa_3str17IsAsciiWhitespaceENtNtNtNtBa_4iter6traits8iterator8Iterator4findQNtBN_15BytesIsNotEmptyECseYC8vFNOjrM_2cc, symObjAddr: 0x2110, symBinAddr: 0x100046E70, symSize: 0x90 }
  - { offset: 0x77AE1, size: 0x8, addend: 0x0, symName: __RINvYINtNtNtCsieiGu2EXtoJ_4core5slice4iter5SplithNtNtBa_3str17IsAsciiWhitespaceENtNtNtNtBa_4iter6traits8iterator8Iterator8try_folduNCINvNvB1g_4find5checkRShQNtBN_15BytesIsNotEmptyE0INtNtNtBa_3ops12control_flow11ControlFlowB2r_EECseYC8vFNOjrM_2cc, symObjAddr: 0x21A0, symBinAddr: 0x100046F00, symSize: 0x1A0 }
  - { offset: 0x77B94, size: 0x8, addend: 0x0, symName: __RNvYINtNtNtCsieiGu2EXtoJ_4core5slice4iter4IterINtNtCslJiobkLta79_5alloc4sync3ArcNtNtNtCsHUR1vrdMJt_3std3ffi6os_str5OsStrEENtNtNtNtB9_4iter6traits8iterator8Iterator9enumerateCseYC8vFNOjrM_2cc, symObjAddr: 0x3E50, symBinAddr: 0x100048B90, symSize: 0x20 }
  - { offset: 0x77BE0, size: 0x8, addend: 0x0, symName: __RNvYINtNtNtCsieiGu2EXtoJ_4core5slice4iter4IterNtNtCslJiobkLta79_5alloc6string6StringENtNtNtNtB9_4iter6traits8iterator8Iterator3revCseYC8vFNOjrM_2cc, symObjAddr: 0x3E70, symBinAddr: 0x100048BB0, symSize: 0x20 }
  - { offset: 0x77CD9, size: 0x8, addend: 0x0, symName: __RNvXNtNtNtCsieiGu2EXtoJ_4core4iter6traits7collectINtNtNtB8_5slice4iter14SplitInclusivehNCNvMs_NtCseYC8vFNOjrM_2cc15command_helpersNtB1u_15StderrForwarder17forward_available0ENtB2_12IntoIterator9into_iterB1w_, symObjAddr: 0x2670, symBinAddr: 0x1000473D0, symSize: 0x20 }
  - { offset: 0x77D10, size: 0x8, addend: 0x0, symName: __RNvXNtNtNtCsieiGu2EXtoJ_4core4iter6traits7collectINtNtNtB8_5slice4iter4IterINtNtCslJiobkLta79_5alloc4sync3ArcNtNtCsHUR1vrdMJt_3std4path4PathEENtB2_12IntoIterator9into_iterCseYC8vFNOjrM_2cc, symObjAddr: 0x2690, symBinAddr: 0x1000473F0, symSize: 0x20 }
  - { offset: 0x77D47, size: 0x8, addend: 0x0, symName: __RNvXNtNtNtCsieiGu2EXtoJ_4core4iter6traits7collectINtNtNtB8_5slice4iter4IterINtNtCslJiobkLta79_5alloc4sync3ArcNtNtNtCsHUR1vrdMJt_3std3ffi6os_str5OsStrEENtB2_12IntoIterator9into_iterCseYC8vFNOjrM_2cc, symObjAddr: 0x26B0, symBinAddr: 0x100047410, symSize: 0x20 }
  - { offset: 0x77D7E, size: 0x8, addend: 0x0, symName: __RNvXNtNtNtCsieiGu2EXtoJ_4core4iter6traits7collectINtNtNtB8_5slice4iter4IterTINtNtCslJiobkLta79_5alloc4sync3ArcNtNtNtCsHUR1vrdMJt_3std3ffi6os_str5OsStrEB1c_EENtB2_12IntoIterator9into_iterCseYC8vFNOjrM_2cc, symObjAddr: 0x26F0, symBinAddr: 0x100047430, symSize: 0x20 }
  - { offset: 0x77DB5, size: 0x8, addend: 0x0, symName: __RNvXNtNtNtCsieiGu2EXtoJ_4core4iter6traits7collectINtNtNtB8_5slice4iter4IterTINtNtCslJiobkLta79_5alloc4sync3ArceEINtNtB8_6option6OptionB1c_EEENtB2_12IntoIterator9into_iterCseYC8vFNOjrM_2cc, symObjAddr: 0x2710, symBinAddr: 0x100047450, symSize: 0x20 }
  - { offset: 0x77DEC, size: 0x8, addend: 0x0, symName: __RNvXNtNtNtCsieiGu2EXtoJ_4core4iter6traits7collectINtNtNtB8_5slice4iter6ChunksRNtNtCsHUR1vrdMJt_3std4path4PathENtB2_12IntoIterator9into_iterCseYC8vFNOjrM_2cc, symObjAddr: 0x2730, symBinAddr: 0x100047470, symSize: 0x20 }
  - { offset: 0x7B716, size: 0x8, addend: 0x0, symName: __RNvMs4_NtNtCsieiGu2EXtoJ_4core5slice4iterINtB5_4IterINtNtCslJiobkLta79_5alloc4sync3ArcNtNtCsHUR1vrdMJt_3std4path4PathEE3newCseYC8vFNOjrM_2cc, symObjAddr: 0x23A0, symBinAddr: 0x100047100, symSize: 0x50 }
  - { offset: 0x7B8DD, size: 0x8, addend: 0x0, symName: __RNvMs4_NtNtCsieiGu2EXtoJ_4core5slice4iterINtB5_4IterINtNtCslJiobkLta79_5alloc4sync3ArcNtNtNtCsHUR1vrdMJt_3std3ffi6os_str5OsStrEE3newCseYC8vFNOjrM_2cc, symObjAddr: 0x23F0, symBinAddr: 0x100047150, symSize: 0x50 }
  - { offset: 0x7BA8A, size: 0x8, addend: 0x0, symName: __RNvMs4_NtNtCsieiGu2EXtoJ_4core5slice4iterINtB5_4IterNtCseYC8vFNOjrM_2cc6ObjectE3newBQ_, symObjAddr: 0x2440, symBinAddr: 0x1000471A0, symSize: 0x50 }
  - { offset: 0x7BC37, size: 0x8, addend: 0x0, symName: __RNvMs4_NtNtCsieiGu2EXtoJ_4core5slice4iterINtB5_4IterNtNtCslJiobkLta79_5alloc6string6StringE3newCseYC8vFNOjrM_2cc, symObjAddr: 0x2490, symBinAddr: 0x1000471F0, symSize: 0x50 }
  - { offset: 0x7BDE4, size: 0x8, addend: 0x0, symName: __RNvMs4_NtNtCsieiGu2EXtoJ_4core5slice4iterINtB5_4IterNtNtNtCsHUR1vrdMJt_3std3ffi6os_str8OsStringE3newCseYC8vFNOjrM_2cc, symObjAddr: 0x24E0, symBinAddr: 0x100047240, symSize: 0x50 }
  - { offset: 0x7BFB8, size: 0x8, addend: 0x0, symName: __RNvMs4_NtNtCsieiGu2EXtoJ_4core5slice4iterINtB5_4IterRINtNtCslJiobkLta79_5alloc3vec3VechEE3newCseYC8vFNOjrM_2cc, symObjAddr: 0x2530, symBinAddr: 0x100047290, symSize: 0x50 }
  - { offset: 0x7C172, size: 0x8, addend: 0x0, symName: __RNvMs4_NtNtCsieiGu2EXtoJ_4core5slice4iterINtB5_4IterRNtNtNtCsHUR1vrdMJt_3std3ffi6os_str5OsStrE3newCseYC8vFNOjrM_2cc, symObjAddr: 0x2580, symBinAddr: 0x1000472E0, symSize: 0x50 }
  - { offset: 0x7C339, size: 0x8, addend: 0x0, symName: __RNvMs4_NtNtCsieiGu2EXtoJ_4core5slice4iterINtB5_4IterTINtNtCslJiobkLta79_5alloc4sync3ArcNtNtNtCsHUR1vrdMJt_3std3ffi6os_str5OsStrEBP_EE3newCseYC8vFNOjrM_2cc, symObjAddr: 0x25D0, symBinAddr: 0x100047330, symSize: 0x50 }
  - { offset: 0x7C500, size: 0x8, addend: 0x0, symName: __RNvMs4_NtNtCsieiGu2EXtoJ_4core5slice4iterINtB5_4IterTINtNtCslJiobkLta79_5alloc4sync3ArceEINtNtB9_6option6OptionBP_EEE3newCseYC8vFNOjrM_2cc, symObjAddr: 0x2620, symBinAddr: 0x100047380, symSize: 0x50 }
  - { offset: 0x7D6FF, size: 0x8, addend: 0x0, symName: __RINvMNtCsieiGu2EXtoJ_4core4boolb9then_someNtNtCsHUR1vrdMJt_3std4path7PathBufECseYC8vFNOjrM_2cc, symObjAddr: 0x0, symBinAddr: 0x100048BD0, symSize: 0x80 }
  - { offset: 0x7D78F, size: 0x8, addend: 0x0, symName: __RNvXNvNtCsHUR1vrdMJt_3std2io17default_write_fmtINtB2_7AdapterINtNtNtB4_8buffered9bufwriter9BufWriterNtNtB4_5stdio6StdoutEENtNtCsieiGu2EXtoJ_4core3fmt5Write9write_strCseYC8vFNOjrM_2cc, symObjAddr: 0x64D0, symBinAddr: 0x10004EFE0, symSize: 0xA0 }
  - { offset: 0x7D7EB, size: 0x8, addend: 0x0, symName: __RNvXNvNtCsHUR1vrdMJt_3std2io17default_write_fmtINtB2_7AdapterNtNtB6_2fs4FileENtNtCsieiGu2EXtoJ_4core3fmt5Write9write_strCseYC8vFNOjrM_2cc, symObjAddr: 0x6570, symBinAddr: 0x10004F080, symSize: 0xA0 }
  - { offset: 0x7DB67, size: 0x8, addend: 0x0, symName: __RINvNtCsHUR1vrdMJt_3std2io17default_write_fmtINtNtNtB2_8buffered9bufwriter9BufWriterNtNtB2_5stdio6StdoutEECseYC8vFNOjrM_2cc, symObjAddr: 0x2D60, symBinAddr: 0x10004B870, symSize: 0x120 }
  - { offset: 0x7DC17, size: 0x8, addend: 0x0, symName: __RINvNtCsHUR1vrdMJt_3std2io17default_write_fmtNtNtB4_2fs4FileECseYC8vFNOjrM_2cc, symObjAddr: 0x2E80, symBinAddr: 0x10004B990, symSize: 0x120 }
  - { offset: 0x7E1BE, size: 0x8, addend: 0x0, symName: __RNCNvMs1_NtNtNtCsHUR1vrdMJt_3std4sync4mpmc4zeroINtB7_7ChannelINtNtCsieiGu2EXtoJ_4core6result6ResultNtCslzRnRZxZnvp_9jobserver8AcquiredNtNtNtBd_2io5error5ErrorEE4send0CseYC8vFNOjrM_2cc, symObjAddr: 0x31F0, symBinAddr: 0x10004BD00, symSize: 0x880 }
  - { offset: 0x7F54C, size: 0x8, addend: 0x0, symName: __RNCNkNvNvMNtNtCsHUR1vrdMJt_3std4hash6randomNtB8_11RandomState3new4KEYS0s_0CseYC8vFNOjrM_2cc, symObjAddr: 0x31A0, symBinAddr: 0x10004BCB0, symSize: 0x30 }
  - { offset: 0x7F58A, size: 0x8, addend: 0x0, symName: __RNvNvNvMNtNtCsHUR1vrdMJt_3std4hash6randomNtB6_11RandomState3new4KEYS6___initCseYC8vFNOjrM_2cc, symObjAddr: 0x64B0, symBinAddr: 0x10004EFC0, symSize: 0x20 }
  - { offset: 0x7F5A8, size: 0x8, addend: 0x0, symName: __RNCNvMNtNtCsHUR1vrdMJt_3std4hash6randomNtB4_11RandomState3new0CseYC8vFNOjrM_2cc, symObjAddr: 0x31D0, symBinAddr: 0x10004BCE0, symSize: 0x20 }
  - { offset: 0x7F691, size: 0x8, addend: 0x0, symName: __RNvXs2_NtNtCsHUR1vrdMJt_3std4hash6randomNtB5_13DefaultHasherNtNtCsieiGu2EXtoJ_4core4hash6Hasher5writeCseYC8vFNOjrM_2cc, symObjAddr: 0x68E0, symBinAddr: 0x10004F330, symSize: 0x30 }
  - { offset: 0x7F6EC, size: 0x8, addend: 0x0, symName: __RNvXs2_NtNtCsHUR1vrdMJt_3std4hash6randomNtB5_13DefaultHasherNtNtCsieiGu2EXtoJ_4core4hash6Hasher6finishCseYC8vFNOjrM_2cc, symObjAddr: 0x6910, symBinAddr: 0x10004F360, symSize: 0x20 }
  - { offset: 0x7F735, size: 0x8, addend: 0x0, symName: __RNvXs2_NtNtCsHUR1vrdMJt_3std4hash6randomNtB5_13DefaultHasherNtNtCsieiGu2EXtoJ_4core4hash6Hasher9write_strCseYC8vFNOjrM_2cc, symObjAddr: 0x6930, symBinAddr: 0x10004F380, symSize: 0x30 }
  - { offset: 0x7F796, size: 0x8, addend: 0x0, symName: __RNvXs3_NtNtCsHUR1vrdMJt_3std4hash6randomNtB5_11RandomStateNtNtCsieiGu2EXtoJ_4core7default7Default7defaultCseYC8vFNOjrM_2cc, symObjAddr: 0x6AF0, symBinAddr: 0x10004F540, symSize: 0x20 }
  - { offset: 0x7F7CE, size: 0x8, addend: 0x0, symName: __RNvXs_NtNtCsHUR1vrdMJt_3std4hash6randomNtB4_11RandomStateNtNtCsieiGu2EXtoJ_4core4hash11BuildHasher12build_hasherCseYC8vFNOjrM_2cc, symObjAddr: 0x6F40, symBinAddr: 0x10004F990, symSize: 0xF0 }
  - { offset: 0x8519F, size: 0x8, addend: 0x0, symName: __RNvXs3_NtCsieiGu2EXtoJ_4core6optionINtB5_6OptionINtNtCslJiobkLta79_5alloc4sync3ArcNtNtNtCsHUR1vrdMJt_3std3ffi6os_str5OsStrEENtNtB7_5clone5Clone5cloneCseYC8vFNOjrM_2cc, symObjAddr: 0x6960, symBinAddr: 0x10004F3B0, symSize: 0x60 }
  - { offset: 0x851F4, size: 0x8, addend: 0x0, symName: __RNvXs3_NtCsieiGu2EXtoJ_4core6optionINtB5_6OptionNtNtCsHUR1vrdMJt_3std4path7PathBufENtNtB7_5clone5Clone5cloneCseYC8vFNOjrM_2cc, symObjAddr: 0x69C0, symBinAddr: 0x10004F410, symSize: 0x90 }
  - { offset: 0x85249, size: 0x8, addend: 0x0, symName: __RNvXs3_NtCsieiGu2EXtoJ_4core6optionINtB5_6OptionNtNtCseYC8vFNOjrM_2cc4tool4ToolENtNtB7_5clone5Clone5cloneBO_, symObjAddr: 0x6A50, symBinAddr: 0x10004F4A0, symSize: 0xA0 }
  - { offset: 0x852A4, size: 0x8, addend: 0x0, symName: __RNvXs5_NtCsieiGu2EXtoJ_4core6optionINtB5_6OptionReENtNtB7_7default7Default7defaultCseYC8vFNOjrM_2cc, symObjAddr: 0x6B10, symBinAddr: 0x10004F560, symSize: 0x10 }
  - { offset: 0x852CC, size: 0x8, addend: 0x0, symName: __RNvXs5_NtCsieiGu2EXtoJ_4core6optionINtB5_6OptionbENtNtB7_7default7Default7defaultCseYC8vFNOjrM_2cc, symObjAddr: 0x6B20, symBinAddr: 0x10004F570, symSize: 0x10 }
  - { offset: 0x852F4, size: 0x8, addend: 0x0, symName: __RNvXs5_NtCsieiGu2EXtoJ_4core6optionINtB5_6OptionmENtNtB7_7default7Default7defaultCseYC8vFNOjrM_2cc, symObjAddr: 0x6B30, symBinAddr: 0x10004F580, symSize: 0x10 }
  - { offset: 0x85322, size: 0x8, addend: 0x0, symName: __RNvXsC_NtCsieiGu2EXtoJ_4core6optionINtB5_6OptionINtNtCslJiobkLta79_5alloc3vec3VechEENtNtNtB7_3ops9try_trait3Try6branchCseYC8vFNOjrM_2cc, symObjAddr: 0x6B40, symBinAddr: 0x10004F590, symSize: 0x80 }
  - { offset: 0x85378, size: 0x8, addend: 0x0, symName: __RNvXsC_NtCsieiGu2EXtoJ_4core6optionINtB5_6OptionINtNtCslJiobkLta79_5alloc4sync3ArcNtNtNtCsHUR1vrdMJt_3std3ffi6os_str5OsStrEENtNtNtB7_3ops9try_trait3Try6branchCseYC8vFNOjrM_2cc, symObjAddr: 0x6BC0, symBinAddr: 0x10004F610, symSize: 0x60 }
  - { offset: 0x853CD, size: 0x8, addend: 0x0, symName: __RNvXsC_NtCsieiGu2EXtoJ_4core6optionINtB5_6OptionINtNtNtB7_3num7nonzero7NonZerojEENtNtNtB7_3ops9try_trait3Try11from_outputCseYC8vFNOjrM_2cc, symObjAddr: 0x6C20, symBinAddr: 0x10004F670, symSize: 0x10 }
  - { offset: 0x85404, size: 0x8, addend: 0x0, symName: __RNvXsC_NtCsieiGu2EXtoJ_4core6optionINtB5_6OptionINtNtNtB7_3num7nonzero7NonZerojEENtNtNtB7_3ops9try_trait3Try6branchCseYC8vFNOjrM_2cc, symObjAddr: 0x6C30, symBinAddr: 0x10004F680, symSize: 0x40 }
  - { offset: 0x85459, size: 0x8, addend: 0x0, symName: __RNvXsC_NtCsieiGu2EXtoJ_4core6optionINtB5_6OptionNtNtCsHUR1vrdMJt_3std7process10ExitStatusENtNtNtB7_3ops9try_trait3Try6branchCseYC8vFNOjrM_2cc, symObjAddr: 0x6C70, symBinAddr: 0x10004F6C0, symSize: 0x40 }
  - { offset: 0x854AE, size: 0x8, addend: 0x0, symName: __RNvXsC_NtCsieiGu2EXtoJ_4core6optionINtB5_6OptionNtNtCseYC8vFNOjrM_2cc4tool4ToolENtNtNtB7_3ops9try_trait3Try6branchBO_, symObjAddr: 0x6CB0, symBinAddr: 0x10004F700, symSize: 0xA0 }
  - { offset: 0x85505, size: 0x8, addend: 0x0, symName: __RNvXsC_NtCsieiGu2EXtoJ_4core6optionINtB5_6OptionNtNtCseYC8vFNOjrM_2cc6target10TargetInfoENtNtNtB7_3ops9try_trait3Try6branchBO_, symObjAddr: 0x6D50, symBinAddr: 0x10004F7A0, symSize: 0x70 }
  - { offset: 0x8555C, size: 0x8, addend: 0x0, symName: __RNvXsC_NtCsieiGu2EXtoJ_4core6optionINtB5_6OptionRNtNtNtCsHUR1vrdMJt_3std3ffi6os_str5OsStrENtNtNtB7_3ops9try_trait3Try6branchCseYC8vFNOjrM_2cc, symObjAddr: 0x6DC0, symBinAddr: 0x10004F810, symSize: 0x60 }
  - { offset: 0x855B1, size: 0x8, addend: 0x0, symName: __RNvXsC_NtCsieiGu2EXtoJ_4core6optionINtB5_6OptionReENtNtNtB7_3ops9try_trait3Try6branchCseYC8vFNOjrM_2cc, symObjAddr: 0x6E20, symBinAddr: 0x10004F870, symSize: 0x60 }
  - { offset: 0x8560C, size: 0x8, addend: 0x0, symName: __RNvXsD_NtCsieiGu2EXtoJ_4core6optionINtB5_6OptionINtNtCslJiobkLta79_5alloc4sync3ArcNtNtNtCsHUR1vrdMJt_3std3ffi6os_str5OsStrEEINtNtNtB7_3ops9try_trait12FromResidualIBy_NtNtB7_7convert10InfallibleEE13from_residualCseYC8vFNOjrM_2cc, symObjAddr: 0x6E80, symBinAddr: 0x10004F8D0, symSize: 0x10 }
  - { offset: 0x8563F, size: 0x8, addend: 0x0, symName: __RNvXsD_NtCsieiGu2EXtoJ_4core6optionINtB5_6OptionINtNtCslJiobkLta79_5alloc4sync3ArceEEINtNtNtB7_3ops9try_trait12FromResidualIBy_NtNtB7_7convert10InfallibleEE13from_residualCseYC8vFNOjrM_2cc, symObjAddr: 0x6E90, symBinAddr: 0x10004F8E0, symSize: 0x10 }
  - { offset: 0x85672, size: 0x8, addend: 0x0, symName: __RNvXsD_NtCsieiGu2EXtoJ_4core6optionINtB5_6OptionINtNtNtB7_3num7nonzero7NonZerojEEINtNtNtB7_3ops9try_trait12FromResidualIBy_NtNtB7_7convert10InfallibleEE13from_residualCseYC8vFNOjrM_2cc, symObjAddr: 0x6EA0, symBinAddr: 0x10004F8F0, symSize: 0x10 }
  - { offset: 0x856A5, size: 0x8, addend: 0x0, symName: __RNvXsD_NtCsieiGu2EXtoJ_4core6optionINtB5_6OptionNtNtCsHUR1vrdMJt_3std4path7PathBufEINtNtNtB7_3ops9try_trait12FromResidualIBy_NtNtB7_7convert10InfallibleEE13from_residualCseYC8vFNOjrM_2cc, symObjAddr: 0x6EB0, symBinAddr: 0x10004F900, symSize: 0x20 }
  - { offset: 0x856D8, size: 0x8, addend: 0x0, symName: __RNvXsD_NtCsieiGu2EXtoJ_4core6optionINtB5_6OptionNtNtCsHUR1vrdMJt_3std7process7CommandEINtNtNtB7_3ops9try_trait12FromResidualIBy_NtNtB7_7convert10InfallibleEE13from_residualCseYC8vFNOjrM_2cc, symObjAddr: 0x6ED0, symBinAddr: 0x10004F920, symSize: 0x20 }
  - { offset: 0x8570B, size: 0x8, addend: 0x0, symName: __RNvXsD_NtCsieiGu2EXtoJ_4core6optionINtB5_6OptionNtNtCslJiobkLta79_5alloc6string6StringEINtNtNtB7_3ops9try_trait12FromResidualIBy_NtNtB7_7convert10InfallibleEE13from_residualCseYC8vFNOjrM_2cc, symObjAddr: 0x6EF0, symBinAddr: 0x10004F940, symSize: 0x20 }
  - { offset: 0x8573E, size: 0x8, addend: 0x0, symName: __RNvXsD_NtCsieiGu2EXtoJ_4core6optionINtB5_6OptionTNtNtCsHUR1vrdMJt_3std4path7PathBufIBy_INtNtCslJiobkLta79_5alloc4sync3ArcNtNtNtBP_3ffi6os_str5OsStrEEINtNtB1s_3vec3VecNtNtB1s_6string6StringEEEINtNtNtB7_3ops9try_trait12FromResidualIBy_NtNtB7_7convert10InfallibleEE13from_residualCseYC8vFNOjrM_2cc, symObjAddr: 0x6F10, symBinAddr: 0x10004F960, symSize: 0x20 }
  - { offset: 0x85771, size: 0x8, addend: 0x0, symName: __RNvXsD_NtCsieiGu2EXtoJ_4core6optionINtB5_6OptionmEINtNtNtB7_3ops9try_trait12FromResidualIBy_NtNtB7_7convert10InfallibleEE13from_residualCseYC8vFNOjrM_2cc, symObjAddr: 0x6F30, symBinAddr: 0x10004F980, symSize: 0x10 }
  - { offset: 0x857AA, size: 0x8, addend: 0x0, symName: __RNvXsd_NtCsieiGu2EXtoJ_4core6optionINtB5_6OptionNtCseYC8vFNOjrM_2cc10AsmFileExtENtNtB7_3cmp9PartialEq2eqBM_, symObjAddr: 0x7370, symBinAddr: 0x10004FDC0, symSize: 0xA0 }
  - { offset: 0x8581E, size: 0x8, addend: 0x0, symName: __RNvXsd_NtCsieiGu2EXtoJ_4core6optionINtB5_6OptionRNtNtNtCsHUR1vrdMJt_3std3ffi6os_str5OsStrENtNtB7_3cmp9PartialEq2eqCseYC8vFNOjrM_2cc, symObjAddr: 0x7410, symBinAddr: 0x10004FE60, symSize: 0xB0 }
  - { offset: 0x85892, size: 0x8, addend: 0x0, symName: __RNvXsd_NtCsieiGu2EXtoJ_4core6optionINtB5_6OptionReENtNtB7_3cmp9PartialEq2eqCseYC8vFNOjrM_2cc, symObjAddr: 0x74C0, symBinAddr: 0x10004FF10, symSize: 0xB0 }
  - { offset: 0x85906, size: 0x8, addend: 0x0, symName: __RNvXsd_NtCsieiGu2EXtoJ_4core6optionINtB5_6OptioncENtNtB7_3cmp9PartialEq2eqCseYC8vFNOjrM_2cc, symObjAddr: 0x7570, symBinAddr: 0x10004FFC0, symSize: 0xA0 }
  - { offset: 0x85BEA, size: 0x8, addend: 0x0, symName: __RINvMNtCsieiGu2EXtoJ_4core4boolb9then_someNtNtCsHUR1vrdMJt_3std4path7PathBufECseYC8vFNOjrM_2cc, symObjAddr: 0x0, symBinAddr: 0x100048BD0, symSize: 0x80 }
  - { offset: 0x85C2E, size: 0x8, addend: 0x0, symName: __RINvMNtCsieiGu2EXtoJ_4core4boolb9then_someNtNtCslJiobkLta79_5alloc6string6StringECseYC8vFNOjrM_2cc, symObjAddr: 0x80, symBinAddr: 0x100048C50, symSize: 0x80 }
  - { offset: 0x863B2, size: 0x8, addend: 0x0, symName: __RNvXs_NvNtNtCsieiGu2EXtoJ_4core3fmt5Write9write_fmtQINtNvNtCsHUR1vrdMJt_3std2io17default_write_fmt7AdapterINtNtNtBT_8buffered9bufwriter9BufWriterNtNtBT_5stdio6StdoutEENtB4_12SpecWriteFmt14spec_write_fmtCseYC8vFNOjrM_2cc, symObjAddr: 0x7090, symBinAddr: 0x10004FAE0, symSize: 0x170 }
  - { offset: 0x86467, size: 0x8, addend: 0x0, symName: __RNvXs_NvNtNtCsieiGu2EXtoJ_4core3fmt5Write9write_fmtQINtNvNtCsHUR1vrdMJt_3std2io17default_write_fmt7AdapterNtNtBV_2fs4FileENtB4_12SpecWriteFmt14spec_write_fmtCseYC8vFNOjrM_2cc, symObjAddr: 0x7200, symBinAddr: 0x10004FC50, symSize: 0x170 }
  - { offset: 0x8651E, size: 0x8, addend: 0x0, symName: __RNvYINtNvNtCsHUR1vrdMJt_3std2io17default_write_fmt7AdapterINtNtNtB7_8buffered9bufwriter9BufWriterNtNtB7_5stdio6StdoutEENtNtCsieiGu2EXtoJ_4core3fmt5Write10write_charCseYC8vFNOjrM_2cc, symObjAddr: 0x7650, symBinAddr: 0x1000500A0, symSize: 0x70 }
  - { offset: 0x86586, size: 0x8, addend: 0x0, symName: __RNvYINtNvNtCsHUR1vrdMJt_3std2io17default_write_fmt7AdapterINtNtNtB7_8buffered9bufwriter9BufWriterNtNtB7_5stdio6StdoutEENtNtCsieiGu2EXtoJ_4core3fmt5Write9write_fmtCseYC8vFNOjrM_2cc, symObjAddr: 0x76C0, symBinAddr: 0x100050110, symSize: 0x20 }
  - { offset: 0x865CA, size: 0x8, addend: 0x0, symName: __RNvYINtNvNtCsHUR1vrdMJt_3std2io17default_write_fmt7AdapterNtNtB9_2fs4FileENtNtCsieiGu2EXtoJ_4core3fmt5Write10write_charCseYC8vFNOjrM_2cc, symObjAddr: 0x76E0, symBinAddr: 0x100050130, symSize: 0x70 }
  - { offset: 0x86632, size: 0x8, addend: 0x0, symName: __RNvYINtNvNtCsHUR1vrdMJt_3std2io17default_write_fmt7AdapterNtNtB9_2fs4FileENtNtCsieiGu2EXtoJ_4core3fmt5Write9write_fmtCseYC8vFNOjrM_2cc, symObjAddr: 0x7750, symBinAddr: 0x1000501A0, symSize: 0x20 }
  - { offset: 0x86682, size: 0x8, addend: 0x0, symName: __RINvYNtNtNtCsHUR1vrdMJt_3std4hash6random11RandomStateNtNtCsieiGu2EXtoJ_4core4hash11BuildHasher8hash_oneRINtNtCslJiobkLta79_5alloc5boxed3BoxSIB1F_NtNtNtB9_3ffi6os_str5OsStrEEECseYC8vFNOjrM_2cc, symObjAddr: 0x2FA0, symBinAddr: 0x10004BAB0, symSize: 0x80 }
  - { offset: 0x866E9, size: 0x8, addend: 0x0, symName: __RINvYNtNtNtCsHUR1vrdMJt_3std4hash6random11RandomStateNtNtCsieiGu2EXtoJ_4core4hash11BuildHasher8hash_oneRINtNtCslJiobkLta79_5alloc5boxed3BoxeEECseYC8vFNOjrM_2cc, symObjAddr: 0x3020, symBinAddr: 0x10004BB30, symSize: 0x80 }
  - { offset: 0x86750, size: 0x8, addend: 0x0, symName: __RINvYNtNtNtCsHUR1vrdMJt_3std4hash6random11RandomStateNtNtCsieiGu2EXtoJ_4core4hash11BuildHasher8hash_oneRNtCseYC8vFNOjrM_2cc12CompilerFlagEB1G_, symObjAddr: 0x30A0, symBinAddr: 0x10004BBB0, symSize: 0x80 }
  - { offset: 0x867B7, size: 0x8, addend: 0x0, symName: __RINvYNtNtNtCsHUR1vrdMJt_3std4hash6random11RandomStateNtNtCsieiGu2EXtoJ_4core4hash11BuildHasher8hash_oneReECseYC8vFNOjrM_2cc, symObjAddr: 0x3120, symBinAddr: 0x10004BC30, symSize: 0x80 }
  - { offset: 0x8698B, size: 0x8, addend: 0x0, symName: __RNvYNtNtNtCsHUR1vrdMJt_3std4hash6random13DefaultHasherNtNtCsieiGu2EXtoJ_4core4hash6Hasher11write_usizeCseYC8vFNOjrM_2cc, symObjAddr: 0x7770, symBinAddr: 0x1000501C0, symSize: 0x30 }
  - { offset: 0x869EB, size: 0x8, addend: 0x0, symName: __RNvYNtNtNtCsHUR1vrdMJt_3std4hash6random13DefaultHasherNtNtCsieiGu2EXtoJ_4core4hash6Hasher19write_length_prefixCseYC8vFNOjrM_2cc, symObjAddr: 0x77A0, symBinAddr: 0x1000501F0, symSize: 0x20 }
  - { offset: 0x87075, size: 0x8, addend: 0x0, symName: __RNvNtNtNtCsieiGu2EXtoJ_4core9core_arch3x864sse212__mm_or_si128CseYC8vFNOjrM_2cc, symObjAddr: 0x60E0, symBinAddr: 0x10004EBF0, symSize: 0x20 }
  - { offset: 0x87184, size: 0x8, addend: 0x0, symName: __RNvNtNtNtCsieiGu2EXtoJ_4core9core_arch3x864sse213__mm_set1_epi8CseYC8vFNOjrM_2cc, symObjAddr: 0x6100, symBinAddr: 0x10004EC10, symSize: 0x90 }
  - { offset: 0x872DE, size: 0x8, addend: 0x0, symName: __RNvNtNtNtCsieiGu2EXtoJ_4core9core_arch3x864sse214__mm_cmpeq_epi8CseYC8vFNOjrM_2cc, symObjAddr: 0x6190, symBinAddr: 0x10004ECA0, symSize: 0x80 }
  - { offset: 0x8731E, size: 0x8, addend: 0x0, symName: __RNvNtNtNtCsieiGu2EXtoJ_4core9core_arch3x864sse214__mm_cmpgt_epi8CseYC8vFNOjrM_2cc, symObjAddr: 0x6210, symBinAddr: 0x10004ED20, symSize: 0x80 }
  - { offset: 0x8735E, size: 0x8, addend: 0x0, symName: __RNvNtNtNtCsieiGu2EXtoJ_4core9core_arch3x864sse214__mm_load_si128CseYC8vFNOjrM_2cc, symObjAddr: 0x6290, symBinAddr: 0x10004EDA0, symSize: 0x20 }
  - { offset: 0x8739D, size: 0x8, addend: 0x0, symName: __RNvNtNtNtCsieiGu2EXtoJ_4core9core_arch3x864sse215__mm_loadu_si128CseYC8vFNOjrM_2cc, symObjAddr: 0x62B0, symBinAddr: 0x10004EDC0, symSize: 0x90 }
  - { offset: 0x8742C, size: 0x8, addend: 0x0, symName: __RNvNtNtNtCsieiGu2EXtoJ_4core9core_arch3x864sse215__mm_store_si128CseYC8vFNOjrM_2cc, symObjAddr: 0x6340, symBinAddr: 0x10004EE50, symSize: 0x20 }
  - { offset: 0x87465, size: 0x8, addend: 0x0, symName: __RNvNtNtNtCsieiGu2EXtoJ_4core9core_arch3x864sse217__mm_movemask_epi8CseYC8vFNOjrM_2cc, symObjAddr: 0x6360, symBinAddr: 0x10004EE70, symSize: 0x50 }
  - { offset: 0x874D1, size: 0x8, addend: 0x0, symName: __RNvNtNtNtCsieiGu2EXtoJ_4core9core_arch3x864sse217__mm_setzero_si128CseYC8vFNOjrM_2cc, symObjAddr: 0x63B0, symBinAddr: 0x10004EEC0, symSize: 0x10 }
  - { offset: 0x875C2, size: 0x8, addend: 0x0, symName: __RNvNvNtNtCsieiGu2EXtoJ_4core4char7convert18from_u32_unchecked18precondition_checkCseYC8vFNOjrM_2cc, symObjAddr: 0x63C0, symBinAddr: 0x10004EED0, symSize: 0xF0 }
  - { offset: 0x8771C, size: 0x8, addend: 0x0, symName: __RNvYINtNtCsieiGu2EXtoJ_4core6option6OptionReENtNtB7_3cmp9PartialEq2neCseYC8vFNOjrM_2cc, symObjAddr: 0x7610, symBinAddr: 0x100050060, symSize: 0x20 }
  - { offset: 0x8776B, size: 0x8, addend: 0x0, symName: __RNvYINtNtCsieiGu2EXtoJ_4core6option6OptioncENtNtB7_3cmp9PartialEq2neCseYC8vFNOjrM_2cc, symObjAddr: 0x7630, symBinAddr: 0x100050080, symSize: 0x20 }
  - { offset: 0x87A7D, size: 0x8, addend: 0x0, symName: __RNvXs_NtNtCslJiobkLta79_5alloc3vec13in_place_dropINtB4_11InPlaceDropNtNtCsHUR1vrdMJt_3std4path7PathBufENtNtNtCsieiGu2EXtoJ_4core3ops4drop4Drop4dropCseYC8vFNOjrM_2cc, symObjAddr: 0x7030, symBinAddr: 0x10004FA80, symSize: 0x60 }
  - { offset: 0x88193, size: 0x8, addend: 0x0, symName: __RNvXs1_NtCslJiobkLta79_5alloc7raw_vecINtB5_6RawVecINtNtB7_4sync3ArcNtNtCsHUR1vrdMJt_3std4path4PathEENtNtNtCsieiGu2EXtoJ_4core3ops4drop4Drop4dropCseYC8vFNOjrM_2cc, symObjAddr: 0x66D0, symBinAddr: 0x10004F120, symSize: 0x30 }
  - { offset: 0x881CF, size: 0x8, addend: 0x0, symName: __RNvXs1_NtCslJiobkLta79_5alloc7raw_vecINtB5_6RawVecINtNtB7_4sync3ArcNtNtNtCsHUR1vrdMJt_3std3ffi6os_str5OsStrEENtNtNtCsieiGu2EXtoJ_4core3ops4drop4Drop4dropCseYC8vFNOjrM_2cc, symObjAddr: 0x6700, symBinAddr: 0x10004F150, symSize: 0x30 }
  - { offset: 0x8820B, size: 0x8, addend: 0x0, symName: __RNvXs1_NtCslJiobkLta79_5alloc7raw_vecINtB5_6RawVecINtNtB7_5boxed3BoxNtNtNtCsHUR1vrdMJt_3std3ffi6os_str5OsStrEENtNtNtCsieiGu2EXtoJ_4core3ops4drop4Drop4dropCseYC8vFNOjrM_2cc, symObjAddr: 0x6730, symBinAddr: 0x10004F180, symSize: 0x30 }
  - { offset: 0x88247, size: 0x8, addend: 0x0, symName: __RNvXs1_NtCslJiobkLta79_5alloc7raw_vecINtB5_6RawVecNtCseYC8vFNOjrM_2cc6ObjectENtNtNtCsieiGu2EXtoJ_4core3ops4drop4Drop4dropBO_, symObjAddr: 0x6760, symBinAddr: 0x10004F1B0, symSize: 0x30 }
  - { offset: 0x88283, size: 0x8, addend: 0x0, symName: __RNvXs1_NtCslJiobkLta79_5alloc7raw_vecINtB5_6RawVecNtNtNtCsHUR1vrdMJt_3std3ffi6os_str8OsStringENtNtNtCsieiGu2EXtoJ_4core3ops4drop4Drop4dropCseYC8vFNOjrM_2cc, symObjAddr: 0x6790, symBinAddr: 0x10004F1E0, symSize: 0x30 }
  - { offset: 0x882BF, size: 0x8, addend: 0x0, symName: __RNvXs1_NtCslJiobkLta79_5alloc7raw_vecINtB5_6RawVecNtNtNtNtCsHUR1vrdMJt_3std4sync4mpmc5waker5EntryENtNtNtCsieiGu2EXtoJ_4core3ops4drop4Drop4dropCseYC8vFNOjrM_2cc, symObjAddr: 0x67C0, symBinAddr: 0x10004F210, symSize: 0x30 }
  - { offset: 0x882FB, size: 0x8, addend: 0x0, symName: __RNvXs1_NtCslJiobkLta79_5alloc7raw_vecINtB5_6RawVecRNtNtCsHUR1vrdMJt_3std4path4PathENtNtNtCsieiGu2EXtoJ_4core3ops4drop4Drop4dropCseYC8vFNOjrM_2cc, symObjAddr: 0x67F0, symBinAddr: 0x10004F240, symSize: 0x30 }
  - { offset: 0x88337, size: 0x8, addend: 0x0, symName: __RNvXs1_NtCslJiobkLta79_5alloc7raw_vecINtB5_6RawVecReENtNtNtCsieiGu2EXtoJ_4core3ops4drop4Drop4dropCseYC8vFNOjrM_2cc, symObjAddr: 0x6820, symBinAddr: 0x10004F270, symSize: 0x30 }
  - { offset: 0x88373, size: 0x8, addend: 0x0, symName: __RNvXs1_NtCslJiobkLta79_5alloc7raw_vecINtB5_6RawVecTINtNtB7_4sync3ArcNtNtNtCsHUR1vrdMJt_3std3ffi6os_str5OsStrEBN_EENtNtNtCsieiGu2EXtoJ_4core3ops4drop4Drop4dropCseYC8vFNOjrM_2cc, symObjAddr: 0x6850, symBinAddr: 0x10004F2A0, symSize: 0x30 }
  - { offset: 0x883AF, size: 0x8, addend: 0x0, symName: __RNvXs1_NtCslJiobkLta79_5alloc7raw_vecINtB5_6RawVecTINtNtB7_4sync3ArceEINtNtCsieiGu2EXtoJ_4core6option6OptionBN_EEENtNtNtB1b_3ops4drop4Drop4dropCseYC8vFNOjrM_2cc, symObjAddr: 0x6880, symBinAddr: 0x10004F2D0, symSize: 0x30 }
  - { offset: 0x883EB, size: 0x8, addend: 0x0, symName: __RNvXs1_NtCslJiobkLta79_5alloc7raw_vecINtB5_6RawVecTNtNtCsHUR1vrdMJt_3std7process7CommandNtNtNtCseYC8vFNOjrM_2cc8parallel14command_runner10KillOnDropNtNtB1s_9job_token8JobTokenEENtNtNtCsieiGu2EXtoJ_4core3ops4drop4Drop4dropB1u_, symObjAddr: 0x68B0, symBinAddr: 0x10004F300, symSize: 0x30 }
  - { offset: 0x8A24B, size: 0x8, addend: 0x0, symName: __RINvMNtCsieiGu2EXtoJ_4core6optionINtB3_6OptionINtNtCslJiobkLta79_5alloc4sync3ArcNtNtNtCsHUR1vrdMJt_3std3ffi6os_str5OsStrEE3mapNtNtCsj2uhnLB4L8S_15find_msvc_tools10find_tools3EnvNcNtB20_5Arced0ECseYC8vFNOjrM_2cc, symObjAddr: 0x1C0, symBinAddr: 0x100048CD0, symSize: 0x90 }
  - { offset: 0x8A77C, size: 0x8, addend: 0x0, symName: __RINvMNtCsieiGu2EXtoJ_4core6optionINtB3_6OptionINtNtCslJiobkLta79_5alloc4sync3ArcNtNtNtCsHUR1vrdMJt_3std3ffi6os_str5OsStrEE7or_elseNCNCNvMs4_CseYC8vFNOjrM_2ccNtB2e_5Build23apple_deployment_targets_0s0_0EB2e_, symObjAddr: 0x250, symBinAddr: 0x100048D60, symSize: 0xE0 }
  - { offset: 0x8A7DF, size: 0x8, addend: 0x0, symName: __RINvMNtCsieiGu2EXtoJ_4core6optionINtB3_6OptionINtNtCslJiobkLta79_5alloc4sync3ArcNtNtNtCsHUR1vrdMJt_3std3ffi6os_str5OsStrEE7or_elseNCNvMs4_CseYC8vFNOjrM_2ccNtB2c_5Build6getenvs0_0EB2c_, symObjAddr: 0x330, symBinAddr: 0x100048E40, symSize: 0xD0 }
  - { offset: 0x8A842, size: 0x8, addend: 0x0, symName: __RINvMNtCsieiGu2EXtoJ_4core6optionINtB3_6OptionINtNtCslJiobkLta79_5alloc4sync3ArcNtNtNtCsHUR1vrdMJt_3std3ffi6os_str5OsStrEE8and_thenINtNtBN_6borrow3CoweENCNCNvMs4_CseYC8vFNOjrM_2ccNtB2A_5Build17prefix_for_targets_00EB2A_, symObjAddr: 0x400, symBinAddr: 0x100048F10, symSize: 0x70 }
  - { offset: 0x8A8FF, size: 0x8, addend: 0x0, symName: __RINvMNtCsieiGu2EXtoJ_4core6optionINtB3_6OptionINtNtCslJiobkLta79_5alloc4sync3ArceEE14unwrap_or_elseNCNvMs4_CseYC8vFNOjrM_2ccNtB1H_5Build23apple_deployment_targets1_0EB1H_, symObjAddr: 0x470, symBinAddr: 0x100048F80, symSize: 0x80 }
  - { offset: 0x8A961, size: 0x8, addend: 0x0, symName: __RINvMNtCsieiGu2EXtoJ_4core6optionINtB3_6OptionINtNtCslJiobkLta79_5alloc4sync3ArceEE14unwrap_or_elseNCNvMs4_CseYC8vFNOjrM_2ccNtB1H_5Build23apple_deployment_targets2_0EB1H_, symObjAddr: 0x4F0, symBinAddr: 0x100049000, symSize: 0x60 }
  - { offset: 0x8A9C3, size: 0x8, addend: 0x0, symName: __RINvMNtCsieiGu2EXtoJ_4core6optionINtB3_6OptionINtNtCslJiobkLta79_5alloc4sync3ArceEE14unwrap_or_elseNCNvMs4_CseYC8vFNOjrM_2ccNtB1H_5Build23apple_deployment_targets3_0EB1H_, symObjAddr: 0x550, symBinAddr: 0x100049060, symSize: 0x60 }
  - { offset: 0x8AA25, size: 0x8, addend: 0x0, symName: __RINvMNtCsieiGu2EXtoJ_4core6optionINtB3_6OptionINtNtCslJiobkLta79_5alloc4sync3ArceEE14unwrap_or_elseNCNvMs4_CseYC8vFNOjrM_2ccNtB1H_5Build23apple_deployment_targets4_0EB1H_, symObjAddr: 0x5B0, symBinAddr: 0x1000490C0, symSize: 0x60 }
  - { offset: 0x8AA87, size: 0x8, addend: 0x0, symName: __RINvMNtCsieiGu2EXtoJ_4core6optionINtB3_6OptionINtNtCslJiobkLta79_5alloc4sync3ArceEE14unwrap_or_elseNCNvMs4_CseYC8vFNOjrM_2ccNtB1H_5Build23apple_deployment_targets5_0EB1H_, symObjAddr: 0x610, symBinAddr: 0x100049120, symSize: 0x60 }
  - { offset: 0x8AAE9, size: 0x8, addend: 0x0, symName: __RINvMNtCsieiGu2EXtoJ_4core6optionINtB3_6OptionINtNtCslJiobkLta79_5alloc4sync3ArceEE7or_elseNCNvMs4_CseYC8vFNOjrM_2ccNtB1z_5Build23apple_deployment_target0EB1z_, symObjAddr: 0x670, symBinAddr: 0x100049180, symSize: 0xE0 }
  - { offset: 0x8AB4C, size: 0x8, addend: 0x0, symName: __RINvMNtCsieiGu2EXtoJ_4core6optionINtB3_6OptionINtNtCslJiobkLta79_5alloc4sync3ArceEE8and_thenBI_NCNvMs4_CseYC8vFNOjrM_2ccNtB1D_5Build23apple_deployment_targets0_0EB1D_, symObjAddr: 0x750, symBinAddr: 0x100049260, symSize: 0x80 }
  - { offset: 0x8ABD5, size: 0x8, addend: 0x0, symName: __RINvMNtCsieiGu2EXtoJ_4core6optionINtB3_6OptionINtNtCslJiobkLta79_5alloc6borrow3CowNtNtCsHUR1vrdMJt_3std4path4PathEE10ok_or_elseNtCseYC8vFNOjrM_2cc5ErrorNCNvMs4_B23_NtB23_5Build11get_out_dir0EB23_, symObjAddr: 0x7D0, symBinAddr: 0x1000492E0, symSize: 0xB0 }
  - { offset: 0x8AC41, size: 0x8, addend: 0x0, symName: __RINvMNtCsieiGu2EXtoJ_4core6optionINtB3_6OptionINtNtCslJiobkLta79_5alloc6borrow3CowNtNtCsHUR1vrdMJt_3std4path4PathEE14unwrap_or_elseNCNvNvMNtCseYC8vFNOjrM_2cc4toolNtB2c_4Tool13with_features19detect_family_inner0EB2e_, symObjAddr: 0x880, symBinAddr: 0x100049390, symSize: 0x80 }
  - { offset: 0x8ACA4, size: 0x8, addend: 0x0, symName: __RINvMNtCsieiGu2EXtoJ_4core6optionINtB3_6OptionINtNtCslJiobkLta79_5alloc6borrow3CoweEE7or_elseNCNvMs4_CseYC8vFNOjrM_2ccNtB1B_5Build17prefix_for_targets0_0EB1B_, symObjAddr: 0x900, symBinAddr: 0x100049410, symSize: 0xF0 }
  - { offset: 0x8AD07, size: 0x8, addend: 0x0, symName: __RINvMNtCsieiGu2EXtoJ_4core6optionINtB3_6OptionINtNtCslJiobkLta79_5alloc6borrow3CoweEE7or_elseNCNvMs4_CseYC8vFNOjrM_2ccNtB1B_5Build17prefix_for_targets_0EB1B_, symObjAddr: 0x9F0, symBinAddr: 0x100049500, symSize: 0xE0 }
  - { offset: 0x8AD82, size: 0x8, addend: 0x0, symName: __RINvMNtCsieiGu2EXtoJ_4core6optionINtB3_6OptionINtNtNtB5_3num7nonzero7NonZerojEE6map_orINtNtB5_6result6ResultuBI_ENcNtB1m_3Err0ECseYC8vFNOjrM_2cc, symObjAddr: 0xAD0, symBinAddr: 0x1000495E0, symSize: 0x90 }
  - { offset: 0x8AF94, size: 0x8, addend: 0x0, symName: __RINvMNtCsieiGu2EXtoJ_4core6optionINtB3_6OptionNtCslzRnRZxZnvp_9jobserver6ClientE3mapNtNtNtNtCseYC8vFNOjrM_2cc8parallel9job_token19inherited_jobserver9JobServerNCNvMB1m_B1k_8from_env0EB1s_, symObjAddr: 0xB60, symBinAddr: 0x100049670, symSize: 0x80 }
  - { offset: 0x8B017, size: 0x8, addend: 0x0, symName: __RINvMNtCsieiGu2EXtoJ_4core6optionINtB3_6OptionNtNtCsHUR1vrdMJt_3std4path7PathBufE3mapINtNtCslJiobkLta79_5alloc6borrow3CowNtBK_4PathENcNtB1l_5Owned0ECseYC8vFNOjrM_2cc, symObjAddr: 0xBE0, symBinAddr: 0x1000496F0, symSize: 0xB0 }
  - { offset: 0x8B19E, size: 0x8, addend: 0x0, symName: __RINvMNtCsieiGu2EXtoJ_4core6optionINtB3_6OptionNtNtCsHUR1vrdMJt_3std4path7PathBufE3mapNtNtBM_7process7CommandNCNCNvMs4_CseYC8vFNOjrM_2ccNtB1S_5Build25get_base_archiver_variants_00EB1S_, symObjAddr: 0xC90, symBinAddr: 0x1000497A0, symSize: 0xF0 }
  - { offset: 0x8B236, size: 0x8, addend: 0x0, symName: __RINvMNtCsieiGu2EXtoJ_4core6optionINtB3_6OptionNtNtCsHUR1vrdMJt_3std4path7PathBufE7or_elseNCNvMs4_CseYC8vFNOjrM_2ccNtB1x_5Build25get_base_archiver_variants0_0EB1x_, symObjAddr: 0xD80, symBinAddr: 0x100049890, symSize: 0xF0 }
  - { offset: 0x8B2B3, size: 0x8, addend: 0x0, symName: __RINvMNtCsieiGu2EXtoJ_4core6optionINtB3_6OptionNtNtCsHUR1vrdMJt_3std4path7PathBufE7or_elseNCNvMs4_CseYC8vFNOjrM_2ccNtB1x_5Build5whichs_0EB1x_, symObjAddr: 0xE70, symBinAddr: 0x100049980, symSize: 0xF0 }
  - { offset: 0x8B316, size: 0x8, addend: 0x0, symName: __RINvMNtCsieiGu2EXtoJ_4core6optionINtB3_6OptionNtNtCsHUR1vrdMJt_3std6thread8ThreadIdE6map_oryNCNvMsd_NtNtBM_4sync14reentrant_lockNtB1A_3Tid3set0ECseYC8vFNOjrM_2cc, symObjAddr: 0xF60, symBinAddr: 0x100049A70, symSize: 0x90 }
  - { offset: 0x8B3A6, size: 0x8, addend: 0x0, symName: __RINvMNtCsieiGu2EXtoJ_4core6optionINtB3_6OptionNtNtCsHUR1vrdMJt_3std7process11ChildStderrE3mapTBI_INtNtCslJiobkLta79_5alloc3vec3VechEENCNvMs_NtCseYC8vFNOjrM_2cc15command_helpersNtB2e_15StderrForwarder3new0EB2g_, symObjAddr: 0xFF0, symBinAddr: 0x100049B00, symSize: 0x80 }
  - { offset: 0x8B411, size: 0x8, addend: 0x0, symName: __RINvMNtCsieiGu2EXtoJ_4core6optionINtB3_6OptionNtNtCsHUR1vrdMJt_3std7process7CommandE14unwrap_or_elseNCNvMs4_CseYC8vFNOjrM_2ccNtB1I_5Build20msvc_macro_assembler0EB1I_, symObjAddr: 0x1070, symBinAddr: 0x100049B80, symSize: 0xC0 }
  - { offset: 0x8B482, size: 0x8, addend: 0x0, symName: __RINvMNtCsieiGu2EXtoJ_4core6optionINtB3_6OptionNtNtCsHUR1vrdMJt_3std7process7CommandE7or_elseNCNvMs4_CseYC8vFNOjrM_2ccNtB1A_5Build25get_base_archiver_variants_0EB1A_, symObjAddr: 0x1130, symBinAddr: 0x100049C40, symSize: 0x110 }
  - { offset: 0x8B4E7, size: 0x8, addend: 0x0, symName: __RINvMNtCsieiGu2EXtoJ_4core6optionINtB3_6OptionNtNtCseYC8vFNOjrM_2cc4tool4ToolE3mapNtNtCsHUR1vrdMJt_3std7process7CommandNCNvMs4_BM_NtBM_5Build20find_msvc_tools_find0EBM_, symObjAddr: 0x1240, symBinAddr: 0x100049D50, symSize: 0xD0 }
  - { offset: 0x8B561, size: 0x8, addend: 0x0, symName: __RINvMNtCsieiGu2EXtoJ_4core6optionINtB3_6OptionNtNtCseYC8vFNOjrM_2cc4tool4ToolE7or_elseNCNvMs4_BM_NtBM_5Build17get_base_compilers0_0EBM_, symObjAddr: 0x1310, symBinAddr: 0x100049E20, symSize: 0xF0 }
  - { offset: 0x8B5D2, size: 0x8, addend: 0x0, symName: __RINvMNtCsieiGu2EXtoJ_4core6optionINtB3_6OptionNtNtCseYC8vFNOjrM_2cc4tool4ToolE7or_elseNCNvMs4_BM_NtBM_5Build17get_base_compilers_0EBM_, symObjAddr: 0x1400, symBinAddr: 0x100049F10, symSize: 0x110 }
  - { offset: 0x8B64F, size: 0x8, addend: 0x0, symName: __RINvMNtCsieiGu2EXtoJ_4core6optionINtB3_6OptionNtNtCsj2uhnLB4L8S_15find_msvc_tools4tool4ToolE3mapNtNtCseYC8vFNOjrM_2cc4tool4ToolNvMB1y_B1w_20from_find_msvc_toolsEB1A_, symObjAddr: 0x1510, symBinAddr: 0x10004A020, symSize: 0xC0 }
  - { offset: 0x8B6BC, size: 0x8, addend: 0x0, symName: __RINvMNtCsieiGu2EXtoJ_4core6optionINtB3_6OptionNtNtCslJiobkLta79_5alloc6string6StringE10ok_or_elseNtCseYC8vFNOjrM_2cc5ErrorNCNvMs4_B1z_NtB1z_5Build17getenv_unwrap_str0EB1z_, symObjAddr: 0x15D0, symBinAddr: 0x10004A0E0, symSize: 0xC0 }
  - { offset: 0x8B728, size: 0x8, addend: 0x0, symName: __RINvMNtCsieiGu2EXtoJ_4core6optionINtB3_6OptionNtNtCslJiobkLta79_5alloc6string6StringE14unwrap_or_elseNCNvMs4_CseYC8vFNOjrM_2ccNtB1J_5Build25get_base_archiver_variants2_0EB1J_, symObjAddr: 0x1690, symBinAddr: 0x10004A1A0, symSize: 0x90 }
  - { offset: 0x8B7A3, size: 0x8, addend: 0x0, symName: __RINvMNtCsieiGu2EXtoJ_4core6optionINtB3_6OptionNtNtCslJiobkLta79_5alloc6string6StringE3mapINtNtBM_6borrow3CoweENcNtB1p_5Owned0ECseYC8vFNOjrM_2cc, symObjAddr: 0x1720, symBinAddr: 0x10004A230, symSize: 0xB0 }
  - { offset: 0x8B810, size: 0x8, addend: 0x0, symName: __RINvMNtCsieiGu2EXtoJ_4core6optionINtB3_6OptionNtNtCslJiobkLta79_5alloc6string6StringE8and_thenmNCNvMNtNtNtCseYC8vFNOjrM_2cc8parallel9job_token19inprocess_jobserverNtB1A_9JobServer3new0EB1G_, symObjAddr: 0x17D0, symBinAddr: 0x10004A2E0, symSize: 0x90 }
  - { offset: 0x8B894, size: 0x8, addend: 0x0, symName: __RINvMNtCsieiGu2EXtoJ_4core6optionINtB3_6OptionNtNtNtCsHUR1vrdMJt_3std3ffi6os_str8OsStringE3mapINtNtCslJiobkLta79_5alloc4sync3ArcNtBK_5OsStrENvYB1u_INtNtB5_7convert4FromBI_E4fromECseYC8vFNOjrM_2cc, symObjAddr: 0x1860, symBinAddr: 0x10004A370, symSize: 0x90 }
  - { offset: 0x8B900, size: 0x8, addend: 0x0, symName: __RINvMNtCsieiGu2EXtoJ_4core6optionINtB3_6OptionNtNtNtCseYC8vFNOjrM_2cc8parallel9job_token14JobTokenServerE14unwrap_or_elseNCNCNvMs0_BK_BI_3new00EBO_, symObjAddr: 0x18F0, symBinAddr: 0x10004A400, symSize: 0x70 }
  - { offset: 0x8B97B, size: 0x8, addend: 0x0, symName: __RINvMNtCsieiGu2EXtoJ_4core6optionINtB3_6OptionNtNtNtNtCseYC8vFNOjrM_2cc8parallel9job_token19inherited_jobserver9JobServerE3mapNtBM_14JobTokenServerNcNtB20_9Inherited0EBQ_, symObjAddr: 0x1960, symBinAddr: 0x10004A470, symSize: 0xB0 }
  - { offset: 0x8BA29, size: 0x8, addend: 0x0, symName: __RINvMNtCsieiGu2EXtoJ_4core6optionINtB3_6OptionRINtNtCslJiobkLta79_5alloc4sync3ArcNtNtNtCsHUR1vrdMJt_3std3ffi6os_str5OsStrEE8and_thenRReNCNvMs4_CseYC8vFNOjrM_2ccNtB2h_5Build23find_working_gnu_prefix0EB2h_, symObjAddr: 0x1A10, symBinAddr: 0x10004A520, symSize: 0x70 }
  - { offset: 0x8BA95, size: 0x8, addend: 0x0, symName: __RINvMNtCsieiGu2EXtoJ_4core6optionINtB3_6OptionRNtNtCsHUR1vrdMJt_3std4path4PathE10ok_or_elseNtCseYC8vFNOjrM_2cc5ErrorNCNvNtB1t_15command_helpers18objects_from_filess_0EB1t_, symObjAddr: 0x1A80, symBinAddr: 0x10004A590, symSize: 0xA0 }
  - { offset: 0x8BB19, size: 0x8, addend: 0x0, symName: __RINvMNtCsieiGu2EXtoJ_4core6optionINtB3_6OptionRNtNtCsHUR1vrdMJt_3std4path4PathE3mapINtNtCslJiobkLta79_5alloc6borrow3CowBJ_ENcNtB1j_8Borrowed0ECseYC8vFNOjrM_2cc, symObjAddr: 0x1B20, symBinAddr: 0x10004A630, symSize: 0x90 }
  - { offset: 0x8BB84, size: 0x8, addend: 0x0, symName: __RINvMNtCsieiGu2EXtoJ_4core6optionINtB3_6OptionRNtNtCsHUR1vrdMJt_3std4path4PathE6map_orbNCNCNCNvMs4_CseYC8vFNOjrM_2ccNtB1z_5Build11try_compiles_000EB1z_, symObjAddr: 0x1BB0, symBinAddr: 0x10004A6C0, symSize: 0xB0 }
  - { offset: 0x8BBF6, size: 0x8, addend: 0x0, symName: __RINvMNtCsieiGu2EXtoJ_4core6optionINtB3_6OptionRNtNtCseYC8vFNOjrM_2cc6target10TargetInfoE3mapReNCNvMNtBL_6parserNtB1z_21TargetInfoParserInner32from_cargo_environment_variabless0_0EBN_, symObjAddr: 0x1C60, symBinAddr: 0x10004A770, symSize: 0x60 }
  - { offset: 0x8BC61, size: 0x8, addend: 0x0, symName: __RINvMNtCsieiGu2EXtoJ_4core6optionINtB3_6OptionRNtNtCseYC8vFNOjrM_2cc6target10TargetInfoE3mapReNCNvMNtBL_6parserNtB1z_21TargetInfoParserInner32from_cargo_environment_variabless1_0EBN_, symObjAddr: 0x1CC0, symBinAddr: 0x10004A7D0, symSize: 0x60 }
  - { offset: 0x8BCCC, size: 0x8, addend: 0x0, symName: __RINvMNtCsieiGu2EXtoJ_4core6optionINtB3_6OptionRNtNtCseYC8vFNOjrM_2cc6target10TargetInfoE3mapReNCNvMNtBL_6parserNtB1z_21TargetInfoParserInner32from_cargo_environment_variabless2_0EBN_, symObjAddr: 0x1D20, symBinAddr: 0x10004A830, symSize: 0x60 }
  - { offset: 0x8BD37, size: 0x8, addend: 0x0, symName: __RINvMNtCsieiGu2EXtoJ_4core6optionINtB3_6OptionRNtNtCseYC8vFNOjrM_2cc6target10TargetInfoE3mapReNCNvMNtBL_6parserNtB1z_21TargetInfoParserInner32from_cargo_environment_variabless3_0EBN_, symObjAddr: 0x1D80, symBinAddr: 0x10004A890, symSize: 0x60 }
  - { offset: 0x8BDA2, size: 0x8, addend: 0x0, symName: __RINvMNtCsieiGu2EXtoJ_4core6optionINtB3_6OptionRNtNtCseYC8vFNOjrM_2cc6target10TargetInfoE3mapReNCNvMNtBL_6parserNtB1z_21TargetInfoParserInner32from_cargo_environment_variabless4_0EBN_, symObjAddr: 0x1DE0, symBinAddr: 0x10004A8F0, symSize: 0x60 }
  - { offset: 0x8BE2B, size: 0x8, addend: 0x0, symName: __RINvMNtCsieiGu2EXtoJ_4core6optionINtB3_6OptionRNtNtNtCsHUR1vrdMJt_3std3ffi6os_str5OsStrE10ok_or_elseNtCseYC8vFNOjrM_2cc5ErrorNCNvNtB1C_15command_helpers18objects_from_files0EB1C_, symObjAddr: 0x1E40, symBinAddr: 0x10004A950, symSize: 0xA0 }
  - { offset: 0x8BEAF, size: 0x8, addend: 0x0, symName: __RINvMNtCsieiGu2EXtoJ_4core6optionINtB3_6OptionRNtNtNtCsHUR1vrdMJt_3std3ffi6os_str5OsStrE3mapINtNtCslJiobkLta79_5alloc6borrow3CoweENvMsl_BL_BJ_15to_string_lossyECseYC8vFNOjrM_2cc, symObjAddr: 0x1EE0, symBinAddr: 0x10004A9F0, symSize: 0x90 }
  - { offset: 0x8BF32, size: 0x8, addend: 0x0, symName: __RINvMNtCsieiGu2EXtoJ_4core6optionINtB3_6OptionRNtNtNtCsHUR1vrdMJt_3std3ffi6os_str5OsStrE3mapNtNtBP_4path7PathBufNvYB1s_INtNtB5_7convert4FromBI_E4fromECseYC8vFNOjrM_2cc, symObjAddr: 0x1F70, symBinAddr: 0x10004AA80, symSize: 0x90 }
  - { offset: 0x8BF9D, size: 0x8, addend: 0x0, symName: __RINvMNtCsieiGu2EXtoJ_4core6optionINtB3_6OptionRNtNtNtCsHUR1vrdMJt_3std3ffi6os_str5OsStrE3mapNtNtCslJiobkLta79_5alloc6string6StringNCNvMs4_CseYC8vFNOjrM_2ccNtB2c_5Build17prefix_for_target0EB2c_, symObjAddr: 0x2000, symBinAddr: 0x10004AB10, symSize: 0x90 }
  - { offset: 0x8C008, size: 0x8, addend: 0x0, symName: __RINvMNtCsieiGu2EXtoJ_4core6optionINtB3_6OptionRNtNtNtCsHUR1vrdMJt_3std3ffi6os_str5OsStrE8and_thenNtNtBP_4path7PathBufNCNvMs4_CseYC8vFNOjrM_2ccNtB1Z_5Build5which0EB1Z_, symObjAddr: 0x2090, symBinAddr: 0x10004ABA0, symSize: 0x80 }
  - { offset: 0x8C073, size: 0x8, addend: 0x0, symName: __RINvMNtCsieiGu2EXtoJ_4core6optionINtB3_6OptionRNtNtNtCsHUR1vrdMJt_3std3ffi6os_str5OsStrE8and_thenReNCNvCseYC8vFNOjrM_2cc21is_llvm_mingw_wrapper0EB1D_, symObjAddr: 0x2110, symBinAddr: 0x10004AC20, symSize: 0x60 }
  - { offset: 0x8C0EB, size: 0x8, addend: 0x0, symName: __RINvMNtCsieiGu2EXtoJ_4core6optionINtB3_6OptionRTINtNtCslJiobkLta79_5alloc4sync3ArcNtNtNtCsHUR1vrdMJt_3std3ffi6os_str5OsStrEBK_EE3mapBK_NCNvMs4_CseYC8vFNOjrM_2ccNtB2h_5Build6getenvs_0EB2h_, symObjAddr: 0x2170, symBinAddr: 0x10004AC80, symSize: 0x60 }
  - { offset: 0x8C156, size: 0x8, addend: 0x0, symName: __RINvMNtCsieiGu2EXtoJ_4core6optionINtB3_6OptionRTINtNtCslJiobkLta79_5alloc4sync3ArcNtNtNtCsHUR1vrdMJt_3std3ffi6os_str5OsStrEBK_EE3mapRBK_NCNCNvMs4_CseYC8vFNOjrM_2ccNtB2k_5Build23apple_deployment_targets_0s_0EB2k_, symObjAddr: 0x21D0, symBinAddr: 0x10004ACE0, symSize: 0x50 }
  - { offset: 0x8C1CE, size: 0x8, addend: 0x0, symName: __RINvMNtCsieiGu2EXtoJ_4core6optionINtB3_6OptionRTNtNtNtCsHUR1vrdMJt_3std3ffi6os_str8OsStringBK_EE8and_thenNtNtBQ_4path7PathBufNCNvMs4_CseYC8vFNOjrM_2ccNtB27_5Build11try_compiles_0EB27_, symObjAddr: 0x2220, symBinAddr: 0x10004AD30, symSize: 0x60 }
  - { offset: 0x8C239, size: 0x8, addend: 0x0, symName: __RINvMNtCsieiGu2EXtoJ_4core6optionINtB3_6OptionReE10ok_or_elseNtCseYC8vFNOjrM_2cc5ErrorNCNvMs0_NtNtBZ_6target6parserNtB1w_10TargetInfo17from_rustc_target0EBZ_, symObjAddr: 0x2280, symBinAddr: 0x10004AD90, symSize: 0xA0 }
  - { offset: 0x8C2A5, size: 0x8, addend: 0x0, symName: __RINvMNtCsieiGu2EXtoJ_4core6optionINtB3_6OptionReE3mapIBw_RBI_ENCNvCseYC8vFNOjrM_2cc27autodetect_android_compiler0EB12_, symObjAddr: 0x2320, symBinAddr: 0x10004AE30, symSize: 0x70 }
  - { offset: 0x8C328, size: 0x8, addend: 0x0, symName: __RINvMNtCsieiGu2EXtoJ_4core6optionINtB3_6OptionReE3mapINtNtCslJiobkLta79_5alloc4sync3ArceENvYBP_INtNtB5_7convert4FromBI_E4fromECseYC8vFNOjrM_2cc, symObjAddr: 0x2390, symBinAddr: 0x10004AEA0, symSize: 0x60 }
  - { offset: 0x8C3AB, size: 0x8, addend: 0x0, symName: __RINvMNtCsieiGu2EXtoJ_4core6optionINtB3_6OptionReE3mapINtNtCslJiobkLta79_5alloc6borrow3CoweENcNtBP_8Borrowed0ECseYC8vFNOjrM_2cc, symObjAddr: 0x23F0, symBinAddr: 0x10004AF00, symSize: 0x90 }
  - { offset: 0x8C42E, size: 0x8, addend: 0x0, symName: __RINvMNtCsieiGu2EXtoJ_4core6optionINtB3_6OptionReE3mapNtNtCslJiobkLta79_5alloc6string6StringNvYBP_INtNtB5_7convert4FromBI_E4fromECseYC8vFNOjrM_2cc, symObjAddr: 0x2480, symBinAddr: 0x10004AF90, symSize: 0x90 }
  - { offset: 0x8C499, size: 0x8, addend: 0x0, symName: __RINvMNtCsieiGu2EXtoJ_4core6optionINtB3_6OptionReE3mapNtNtCslJiobkLta79_5alloc6string6StringNvYeNtBR_8ToString9to_stringECseYC8vFNOjrM_2cc, symObjAddr: 0x2510, symBinAddr: 0x10004B020, symSize: 0x90 }
  - { offset: 0x8C51C, size: 0x8, addend: 0x0, symName: __RINvMNtCsieiGu2EXtoJ_4core6optionINtB3_6OptionReE3mapRNtNtCsHUR1vrdMJt_3std4path4PathINvMs16_BS_BQ_3neweEECseYC8vFNOjrM_2cc, symObjAddr: 0x25A0, symBinAddr: 0x10004B0B0, symSize: 0x60 }
  - { offset: 0x8C587, size: 0x8, addend: 0x0, symName: __RINvMNtCsieiGu2EXtoJ_4core6optionINtB3_6OptionReE5ok_orNtCseYC8vFNOjrM_2cc5ErrorEBT_, symObjAddr: 0x2600, symBinAddr: 0x10004B110, symSize: 0xC0 }
  - { offset: 0x8C602, size: 0x8, addend: 0x0, symName: __RINvMNtCsieiGu2EXtoJ_4core6optionINtB3_6OptionReE6map_orIBw_bEINvNvMNtCseYC8vFNOjrM_2cc5flagsNtB14_17RustcCodegenFlags14set_rustc_flag11arg_to_boolBI_EEB16_, symObjAddr: 0x26C0, symBinAddr: 0x10004B1D0, symSize: 0xA0 }
  - { offset: 0x8C674, size: 0x8, addend: 0x0, symName: __RINvMNtCsieiGu2EXtoJ_4core6optionINtB3_6OptionReE7or_elseNCNvMs4_CseYC8vFNOjrM_2ccNtB11_5Build23find_working_gnu_prefixs_0EB11_, symObjAddr: 0x2760, symBinAddr: 0x10004B270, symSize: 0xC0 }
  - { offset: 0x8C6EE, size: 0x8, addend: 0x0, symName: __RINvMNtCsieiGu2EXtoJ_4core6optionINtB3_6OptionReE8and_thenmINvNvMNtCseYC8vFNOjrM_2cc5flagsNtB11_17RustcCodegenFlags14set_rustc_flag10arg_to_u32BI_EEB13_, symObjAddr: 0x2820, symBinAddr: 0x10004B330, symSize: 0x60 }
  - { offset: 0x8C782, size: 0x8, addend: 0x0, symName: __RINvMNtCsieiGu2EXtoJ_4core6optionINtB3_6OptionTNtNtCsHUR1vrdMJt_3std4path7PathBufIBw_INtNtCslJiobkLta79_5alloc4sync3ArcNtNtNtBN_3ffi6os_str5OsStrEEINtNtB1q_3vec3VecNtNtB1q_6string6StringEEE3mapNtNtBN_7process7CommandNCNvMs4_CseYC8vFNOjrM_2ccNtB3A_5Build25get_base_archiver_variant0EB3A_, symObjAddr: 0x2880, symBinAddr: 0x10004B390, symSize: 0xE0 }
  - { offset: 0x8C7EF, size: 0x8, addend: 0x0, symName: __RINvMNtCsieiGu2EXtoJ_4core6optionINtB3_6OptionTNtNtCsHUR1vrdMJt_3std4path7PathBufIBw_INtNtCslJiobkLta79_5alloc4sync3ArcNtNtNtBN_3ffi6os_str5OsStrEEINtNtB1q_3vec3VecNtNtB1q_6string6StringEEE3mapNtNtCseYC8vFNOjrM_2cc4tool4ToolNCNvMs4_B39_NtB39_5Build17get_base_compiler0EB39_, symObjAddr: 0x2960, symBinAddr: 0x10004B470, symSize: 0xE0 }
  - { offset: 0x8C887, size: 0x8, addend: 0x0, symName: __RINvMNtCsieiGu2EXtoJ_4core6optionINtB3_6OptionTReBJ_EE10ok_or_elseNtCseYC8vFNOjrM_2cc5ErrorNCNvMs0_NtNtB14_6target6parserNtB1B_10TargetInfo17from_rustc_targets_0EB14_, symObjAddr: 0x2A40, symBinAddr: 0x10004B550, symSize: 0xE0 }
  - { offset: 0x8C8F4, size: 0x8, addend: 0x0, symName: __RINvMNtCsieiGu2EXtoJ_4core6optionINtB3_6OptionTReBJ_EE5ok_orNtCseYC8vFNOjrM_2cc5ErrorEBY_, symObjAddr: 0x2B20, symBinAddr: 0x10004B630, symSize: 0xF0 }
  - { offset: 0x8C958, size: 0x8, addend: 0x0, symName: __RINvMNtCsieiGu2EXtoJ_4core6optionINtB3_6OptionbE14unwrap_or_elseNCNvMs4_CseYC8vFNOjrM_2ccNtB18_5Build23get_force_frame_pointer0EB18_, symObjAddr: 0x2C10, symBinAddr: 0x10004B720, symSize: 0x60 }
  - { offset: 0x8C9BA, size: 0x8, addend: 0x0, symName: __RINvMNtCsieiGu2EXtoJ_4core6optionINtB3_6OptionbE14unwrap_or_elseNCNvMs4_CseYC8vFNOjrM_2ccNtB18_5Build23get_shell_escaped_flags0EB18_, symObjAddr: 0x2C70, symBinAddr: 0x10004B780, symSize: 0x60 }
  - { offset: 0x8CA1C, size: 0x8, addend: 0x0, symName: __RINvMNtCsieiGu2EXtoJ_4core6optionINtB3_6OptionmE7or_elseNCNvMNtNtNtCseYC8vFNOjrM_2cc8parallel9job_token19inprocess_jobserverNtBX_9JobServer3news_0EB13_, symObjAddr: 0x2CD0, symBinAddr: 0x10004B7E0, symSize: 0x90 }
  - { offset: 0x8CE43, size: 0x8, addend: 0x0, symName: __RNvMNtCsieiGu2EXtoJ_4core4timeNtB2_8Duration11from_millisCseYC8vFNOjrM_2cc, symObjAddr: 0x3A70, symBinAddr: 0x10004C580, symSize: 0x40 }
  - { offset: 0x8CE65, size: 0x8, addend: 0x0, symName: __RNvMNtCsieiGu2EXtoJ_4core6optionINtB2_6OptionIBv_RReEE9unwrap_orCseYC8vFNOjrM_2cc, symObjAddr: 0x3AB0, symBinAddr: 0x10004C5C0, symSize: 0x40 }
  - { offset: 0x8CF44, size: 0x8, addend: 0x0, symName: __RNvMNtCsieiGu2EXtoJ_4core6optionINtB2_6OptionINtNtB4_3pin3PinQNCNvNtNtCseYC8vFNOjrM_2cc8parallel14command_runner24run_commands_in_parallel0EE6as_mutB16_, symObjAddr: 0x3AF0, symBinAddr: 0x10004C600, symSize: 0x50 }
  - { offset: 0x8CFB7, size: 0x8, addend: 0x0, symName: __RNvMNtCsieiGu2EXtoJ_4core6optionINtB2_6OptionINtNtB4_3pin3PinQNCNvNtNtCseYC8vFNOjrM_2cc8parallel14command_runner24run_commands_in_parallel0EE7is_noneB16_, symObjAddr: 0x3B40, symBinAddr: 0x10004C650, symSize: 0x30 }
  - { offset: 0x8D1A2, size: 0x8, addend: 0x0, symName: __RNvMNtCsieiGu2EXtoJ_4core6optionINtB2_6OptionINtNtB4_3pin3PinQNCNvNtNtCseYC8vFNOjrM_2cc8parallel14command_runner24run_commands_in_parallels_0EE6as_mutB16_, symObjAddr: 0x3B70, symBinAddr: 0x10004C680, symSize: 0x50 }
  - { offset: 0x8D215, size: 0x8, addend: 0x0, symName: __RNvMNtCsieiGu2EXtoJ_4core6optionINtB2_6OptionINtNtB4_3pin3PinQNCNvNtNtCseYC8vFNOjrM_2cc8parallel14command_runner24run_commands_in_parallels_0EE7is_noneB16_, symObjAddr: 0x3BC0, symBinAddr: 0x10004C6D0, symSize: 0x30 }
  - { offset: 0x8D288, size: 0x8, addend: 0x0, symName: __RNvMNtCsieiGu2EXtoJ_4core6optionINtB2_6OptionINtNtCslJiobkLta79_5alloc3vec3VecNtNtBM_6string6StringEE7is_noneCseYC8vFNOjrM_2cc, symObjAddr: 0x3BF0, symBinAddr: 0x10004C700, symSize: 0x30 }
  - { offset: 0x8D2DF, size: 0x8, addend: 0x0, symName: __RNvMNtCsieiGu2EXtoJ_4core6optionINtB2_6OptionINtNtCslJiobkLta79_5alloc4sync3ArcNtNtNtCsHUR1vrdMJt_3std3ffi6os_str5OsStrEE6as_refCseYC8vFNOjrM_2cc, symObjAddr: 0x3C20, symBinAddr: 0x10004C730, symSize: 0x50 }
  - { offset: 0x8D329, size: 0x8, addend: 0x0, symName: __RNvMNtCsieiGu2EXtoJ_4core6optionINtB2_6OptionINtNtCslJiobkLta79_5alloc4sync3ArcNtNtNtCsHUR1vrdMJt_3std3ffi6os_str5OsStrEE7is_someCseYC8vFNOjrM_2cc, symObjAddr: 0x3C70, symBinAddr: 0x10004C780, symSize: 0x30 }
  - { offset: 0x8D3F5, size: 0x8, addend: 0x0, symName: __RNvMNtCsieiGu2EXtoJ_4core6optionINtB2_6OptionINtNtCslJiobkLta79_5alloc4sync3ArcNtNtNtCsHUR1vrdMJt_3std3ffi6os_str5OsStrEE8as_derefCseYC8vFNOjrM_2cc, symObjAddr: 0x3CA0, symBinAddr: 0x10004C7B0, symSize: 0x70 }
  - { offset: 0x8D4B8, size: 0x8, addend: 0x0, symName: __RNvMNtCsieiGu2EXtoJ_4core6optionINtB2_6OptionINtNtCslJiobkLta79_5alloc4sync3ArceEE6as_refCseYC8vFNOjrM_2cc, symObjAddr: 0x3D10, symBinAddr: 0x10004C820, symSize: 0x50 }
  - { offset: 0x8D51E, size: 0x8, addend: 0x0, symName: __RNvMNtCsieiGu2EXtoJ_4core6optionINtB2_6OptionINtNtCslJiobkLta79_5alloc4sync3ArceEE7is_noneCseYC8vFNOjrM_2cc, symObjAddr: 0x3D60, symBinAddr: 0x10004C870, symSize: 0x30 }
  - { offset: 0x8D608, size: 0x8, addend: 0x0, symName: __RNvMNtCsieiGu2EXtoJ_4core6optionINtB2_6OptionINtNtCslJiobkLta79_5alloc4sync3ArceEE8as_derefCseYC8vFNOjrM_2cc, symObjAddr: 0x3D90, symBinAddr: 0x10004C8A0, symSize: 0x70 }
  - { offset: 0x8D6B1, size: 0x8, addend: 0x0, symName: __RNvMNtCsieiGu2EXtoJ_4core6optionINtB2_6OptionINtNtCslJiobkLta79_5alloc4sync3ArceEE9unwrap_orCseYC8vFNOjrM_2cc, symObjAddr: 0x3E00, symBinAddr: 0x10004C910, symSize: 0x80 }
  - { offset: 0x8D7C4, size: 0x8, addend: 0x0, symName: __RNvMNtCsieiGu2EXtoJ_4core6optionINtB2_6OptionINtNtCslJiobkLta79_5alloc6borrow3CowNtNtCsHUR1vrdMJt_3std4path4PathEE8as_derefCseYC8vFNOjrM_2cc, symObjAddr: 0x3E80, symBinAddr: 0x10004C990, symSize: 0x80 }
  - { offset: 0x8D86D, size: 0x8, addend: 0x0, symName: __RNvMNtCsieiGu2EXtoJ_4core6optionINtB2_6OptionINtNtCslJiobkLta79_5alloc6borrow3CowNtNtCsHUR1vrdMJt_3std4path4PathEE9unwrap_orCseYC8vFNOjrM_2cc, symObjAddr: 0x3F00, symBinAddr: 0x10004CA10, symSize: 0xB0 }
  - { offset: 0x8D8D5, size: 0x8, addend: 0x0, symName: __RNvMNtCsieiGu2EXtoJ_4core6optionINtB2_6OptionNtCseYC8vFNOjrM_2cc10AsmFileExtE7is_someBJ_, symObjAddr: 0x3FB0, symBinAddr: 0x10004CAC0, symSize: 0x30 }
  - { offset: 0x8D90E, size: 0x8, addend: 0x0, symName: __RNvMNtCsieiGu2EXtoJ_4core6optionINtB2_6OptionNtNtCsHUR1vrdMJt_3std2fs4FileE4takeCseYC8vFNOjrM_2cc, symObjAddr: 0x3FE0, symBinAddr: 0x10004CAF0, symSize: 0x20 }
  - { offset: 0x8D965, size: 0x8, addend: 0x0, symName: __RNvMNtCsieiGu2EXtoJ_4core6optionINtB2_6OptionNtNtCsHUR1vrdMJt_3std7process11ChildStderrE4takeCseYC8vFNOjrM_2cc, symObjAddr: 0x4000, symBinAddr: 0x10004CB10, symSize: 0x20 }
  - { offset: 0x8D9BC, size: 0x8, addend: 0x0, symName: __RNvMNtCsieiGu2EXtoJ_4core6optionINtB2_6OptionNtNtCseYC8vFNOjrM_2cc6target10TargetInfoE6as_refBL_, symObjAddr: 0x4020, symBinAddr: 0x10004CB30, symSize: 0x50 }
  - { offset: 0x8DAC0, size: 0x8, addend: 0x0, symName: __RNvMNtCsieiGu2EXtoJ_4core6optionINtB2_6OptionNtNtCslJiobkLta79_5alloc6string6StringE8as_derefCseYC8vFNOjrM_2cc, symObjAddr: 0x4070, symBinAddr: 0x10004CB80, symSize: 0x80 }
  - { offset: 0x8DB83, size: 0x8, addend: 0x0, symName: __RNvMNtCsieiGu2EXtoJ_4core6optionINtB2_6OptionNtNtNtNtCseYC8vFNOjrM_2cc8parallel9job_token19inherited_jobserver12HelperThreadE6as_refBP_, symObjAddr: 0x40F0, symBinAddr: 0x10004CC00, symSize: 0x40 }
  - { offset: 0x8DC3D, size: 0x8, addend: 0x0, symName: __RNvMNtCsieiGu2EXtoJ_4core6optionINtB2_6OptionNtNtNtNtCseYC8vFNOjrM_2cc8parallel9job_token19inherited_jobserver12HelperThreadE6insertBP_, symObjAddr: 0x4130, symBinAddr: 0x10004CC40, symSize: 0xE0 }
  - { offset: 0x8DCD4, size: 0x8, addend: 0x0, symName: __RNvMNtCsieiGu2EXtoJ_4core6optionINtB2_6OptionRNtNtNtCsHUR1vrdMJt_3std3ffi6os_str5OsStrE17unwrap_or_defaultCseYC8vFNOjrM_2cc, symObjAddr: 0x4210, symBinAddr: 0x10004CD20, symSize: 0x60 }
  - { offset: 0x8DD38, size: 0x8, addend: 0x0, symName: __RNvMNtCsieiGu2EXtoJ_4core6optionINtB2_6OptionRNtNtNtCsHUR1vrdMJt_3std3ffi6os_str5OsStrE6as_refCseYC8vFNOjrM_2cc, symObjAddr: 0x4270, symBinAddr: 0x10004CD80, symSize: 0x50 }
  - { offset: 0x8DD82, size: 0x8, addend: 0x0, symName: __RNvMNtCsieiGu2EXtoJ_4core6optionINtB2_6OptionReE2orCseYC8vFNOjrM_2cc, symObjAddr: 0x42C0, symBinAddr: 0x10004CDD0, symSize: 0x80 }
  - { offset: 0x8DDE8, size: 0x8, addend: 0x0, symName: __RNvMNtCsieiGu2EXtoJ_4core6optionINtB2_6OptionReE4takeCseYC8vFNOjrM_2cc, symObjAddr: 0x4340, symBinAddr: 0x10004CE50, symSize: 0x20 }
  - { offset: 0x8DE5B, size: 0x8, addend: 0x0, symName: __RNvMNtCsieiGu2EXtoJ_4core6optionINtB2_6OptionReE7is_noneCseYC8vFNOjrM_2cc, symObjAddr: 0x4360, symBinAddr: 0x10004CE70, symSize: 0x30 }
  - { offset: 0x8DEA5, size: 0x8, addend: 0x0, symName: __RNvMNtCsieiGu2EXtoJ_4core6optionINtB2_6OptionReE9unwrap_orCseYC8vFNOjrM_2cc, symObjAddr: 0x4390, symBinAddr: 0x10004CEA0, symSize: 0x70 }
  - { offset: 0x8DF0B, size: 0x8, addend: 0x0, symName: __RNvMNtCsieiGu2EXtoJ_4core6optionINtB2_6OptionTNtNtCsHUR1vrdMJt_3std7process11ChildStderrINtNtCslJiobkLta79_5alloc3vec3VechEEE4takeCseYC8vFNOjrM_2cc, symObjAddr: 0x4400, symBinAddr: 0x10004CF10, symSize: 0x60 }
  - { offset: 0x8DF62, size: 0x8, addend: 0x0, symName: __RNvMNtCsieiGu2EXtoJ_4core6optionINtB2_6OptionTNtNtCsHUR1vrdMJt_3std7process11ChildStderrINtNtCslJiobkLta79_5alloc3vec3VechEEE6as_mutCseYC8vFNOjrM_2cc, symObjAddr: 0x4460, symBinAddr: 0x10004CF70, symSize: 0x50 }
  - { offset: 0x8DFC6, size: 0x8, addend: 0x0, symName: __RNvMNtCsieiGu2EXtoJ_4core6optionINtB2_6OptionTNtNtCsHUR1vrdMJt_3std7process11ChildStderrINtNtCslJiobkLta79_5alloc3vec3VechEEE6as_refCseYC8vFNOjrM_2cc, symObjAddr: 0x44B0, symBinAddr: 0x10004CFC0, symSize: 0x50 }
  - { offset: 0x8E039, size: 0x8, addend: 0x0, symName: __RNvMNtCsieiGu2EXtoJ_4core6optionINtB2_6OptionbE7is_noneCseYC8vFNOjrM_2cc, symObjAddr: 0x4500, symBinAddr: 0x10004D010, symSize: 0x30 }
  - { offset: 0x8E083, size: 0x8, addend: 0x0, symName: __RNvMNtCsieiGu2EXtoJ_4core6optionINtB2_6OptionbE9unwrap_orCseYC8vFNOjrM_2cc, symObjAddr: 0x4530, symBinAddr: 0x10004D040, symSize: 0x50 }
  - { offset: 0x8E0DC, size: 0x8, addend: 0x0, symName: __RNvMNtCsieiGu2EXtoJ_4core6optionINtB2_6OptionmE9unwrap_orCseYC8vFNOjrM_2cc, symObjAddr: 0x4580, symBinAddr: 0x10004D090, symSize: 0x40 }
  - { offset: 0x8E135, size: 0x8, addend: 0x0, symName: __RNvMNtNtCsHUR1vrdMJt_3std4hash6randomNtB2_11RandomState3newCseYC8vFNOjrM_2cc, symObjAddr: 0x45C0, symBinAddr: 0x10004D0D0, symSize: 0x20 }
  - { offset: 0x8E16F, size: 0x8, addend: 0x0, symName: __RNvMNtNtCslJiobkLta79_5alloc3vec13in_place_dropINtB2_11InPlaceDropNtNtCsHUR1vrdMJt_3std4path7PathBufE3lenCseYC8vFNOjrM_2cc, symObjAddr: 0x45E0, symBinAddr: 0x10004D0F0, symSize: 0x70 }
  - { offset: 0x8E214, size: 0x8, addend: 0x0, symName: __RNvMs0_NtCsieiGu2EXtoJ_4core6optionINtB5_6OptionRIBy_INtNtCslJiobkLta79_5alloc4sync3ArcNtNtNtCsHUR1vrdMJt_3std3ffi6os_str5OsStrEEE6clonedCseYC8vFNOjrM_2cc, symObjAddr: 0x4650, symBinAddr: 0x10004D160, symSize: 0x70 }
  - { offset: 0x8E25E, size: 0x8, addend: 0x0, symName: __RNvMs0_NtCsieiGu2EXtoJ_4core6optionINtB5_6OptionRINtNtCslJiobkLta79_5alloc4sync3ArcNtNtNtCsHUR1vrdMJt_3std3ffi6os_str5OsStrEE6clonedCseYC8vFNOjrM_2cc, symObjAddr: 0x46C0, symBinAddr: 0x10004D1D0, symSize: 0x60 }
  - { offset: 0x8E2A8, size: 0x8, addend: 0x0, symName: __RNvMs0_NtCsieiGu2EXtoJ_4core6optionINtB5_6OptionRINtNtCslJiobkLta79_5alloc4sync3ArceEE6clonedCseYC8vFNOjrM_2cc, symObjAddr: 0x4720, symBinAddr: 0x10004D230, symSize: 0x60 }
  - { offset: 0x8E2F2, size: 0x8, addend: 0x0, symName: __RNvMs0_NtCsieiGu2EXtoJ_4core6optionINtB5_6OptionRReE6copiedCseYC8vFNOjrM_2cc, symObjAddr: 0x4780, symBinAddr: 0x10004D290, symSize: 0x60 }
  - { offset: 0x8E349, size: 0x8, addend: 0x0, symName: __RNvMs0_NtCsieiGu2EXtoJ_4core6optionINtB5_6OptionRbE6clonedCseYC8vFNOjrM_2cc, symObjAddr: 0x47E0, symBinAddr: 0x10004D2F0, symSize: 0x50 }
  - { offset: 0x8E403, size: 0x8, addend: 0x0, symName: __RNvMs0_NtCslJiobkLta79_5alloc7raw_vecINtB5_6RawVecINtNtB7_4sync3ArcNtNtNtCsHUR1vrdMJt_3std3ffi6os_str5OsStrEE8grow_oneCseYC8vFNOjrM_2cc, symObjAddr: 0x4830, symBinAddr: 0x10004D340, symSize: 0x90 }
  - { offset: 0x8E5DC, size: 0x8, addend: 0x0, symName: __RNvMs0_NtCslJiobkLta79_5alloc7raw_vecINtB5_6RawVecINtNtB7_5boxed3BoxNtNtNtCsHUR1vrdMJt_3std3ffi6os_str5OsStrEE8into_boxCseYC8vFNOjrM_2cc, symObjAddr: 0x48C0, symBinAddr: 0x10004D3D0, symSize: 0x90 }
  - { offset: 0x8E7DC, size: 0x8, addend: 0x0, symName: __RNvMs0_NtCslJiobkLta79_5alloc7raw_vecINtB5_6RawVecNtCseYC8vFNOjrM_2cc6ObjectE8grow_oneBO_, symObjAddr: 0x4950, symBinAddr: 0x10004D460, symSize: 0x90 }
  - { offset: 0x8E88E, size: 0x8, addend: 0x0, symName: __RNvMs0_NtCslJiobkLta79_5alloc7raw_vecINtB5_6RawVecNtNtNtNtCsHUR1vrdMJt_3std4sync4mpmc5waker5EntryE8grow_oneCseYC8vFNOjrM_2cc, symObjAddr: 0x49E0, symBinAddr: 0x10004D4F0, symSize: 0x90 }
  - { offset: 0x8E940, size: 0x8, addend: 0x0, symName: __RNvMs0_NtCslJiobkLta79_5alloc7raw_vecINtB5_6RawVecReE8grow_oneCseYC8vFNOjrM_2cc, symObjAddr: 0x4A70, symBinAddr: 0x10004D580, symSize: 0x90 }
  - { offset: 0x8E9F2, size: 0x8, addend: 0x0, symName: __RNvMs0_NtCslJiobkLta79_5alloc7raw_vecINtB5_6RawVecTNtNtCsHUR1vrdMJt_3std7process7CommandNtNtNtCseYC8vFNOjrM_2cc8parallel14command_runner10KillOnDropNtNtB1s_9job_token8JobTokenEE8grow_oneB1u_, symObjAddr: 0x4B00, symBinAddr: 0x10004D610, symSize: 0x90 }
  - { offset: 0x8EBB1, size: 0x8, addend: 0x0, symName: __RNvMs0_NtCslJiobkLta79_5alloc7raw_vecINtB5_6RawVechE8into_boxCseYC8vFNOjrM_2cc, symObjAddr: 0x4B90, symBinAddr: 0x10004D6A0, symSize: 0x90 }
  - { offset: 0x8EDC1, size: 0x8, addend: 0x0, symName: __RNvMs0_NtNtCsHUR1vrdMJt_3std4hash6randomNtB5_13DefaultHasher3newCseYC8vFNOjrM_2cc, symObjAddr: 0x4C20, symBinAddr: 0x10004D730, symSize: 0x110 }
  - { offset: 0x8EEA3, size: 0x8, addend: 0x0, symName: __RNvMs0_NtNtNtCsHUR1vrdMJt_3std4sync4mpmc4zeroINtB5_6PacketINtNtCsieiGu2EXtoJ_4core6result6ResultNtCslzRnRZxZnvp_9jobserver8AcquiredNtNtNtBb_2io5error5ErrorEE10wait_readyCseYC8vFNOjrM_2cc, symObjAddr: 0x4D30, symBinAddr: 0x10004D840, symSize: 0x60 }
  - { offset: 0x8EF69, size: 0x8, addend: 0x0, symName: __RNvMs1_NtNtNtCsHUR1vrdMJt_3std4sync4mpmc4zeroINtB5_7ChannelINtNtCsieiGu2EXtoJ_4core6result6ResultNtCslzRnRZxZnvp_9jobserver8AcquiredNtNtNtBb_2io5error5ErrorEE10disconnectCseYC8vFNOjrM_2cc, symObjAddr: 0x4D90, symBinAddr: 0x10004D8A0, symSize: 0x170 }
  - { offset: 0x8F157, size: 0x8, addend: 0x0, symName: __RNvMs1_NtNtNtCsHUR1vrdMJt_3std4sync4mpmc4zeroINtB5_7ChannelINtNtCsieiGu2EXtoJ_4core6result6ResultNtCslzRnRZxZnvp_9jobserver8AcquiredNtNtNtBb_2io5error5ErrorEE4readCseYC8vFNOjrM_2cc, symObjAddr: 0x4F00, symBinAddr: 0x10004DA10, symSize: 0x300 }
  - { offset: 0x8F408, size: 0x8, addend: 0x0, symName: __RNvMs1_NtNtNtCsHUR1vrdMJt_3std4sync4mpmc4zeroINtB5_7ChannelINtNtCsieiGu2EXtoJ_4core6result6ResultNtCslzRnRZxZnvp_9jobserver8AcquiredNtNtNtBb_2io5error5ErrorEE4sendCseYC8vFNOjrM_2cc, symObjAddr: 0x5200, symBinAddr: 0x10004DD10, symSize: 0x4E0 }
  - { offset: 0x8F5E4, size: 0x8, addend: 0x0, symName: __RNvMs1_NtNtNtCsHUR1vrdMJt_3std4sync4mpmc4zeroINtB5_7ChannelINtNtCsieiGu2EXtoJ_4core6result6ResultNtCslzRnRZxZnvp_9jobserver8AcquiredNtNtNtBb_2io5error5ErrorEE5writeCseYC8vFNOjrM_2cc, symObjAddr: 0x56E0, symBinAddr: 0x10004E1F0, symSize: 0xD0 }
  - { offset: 0x8F758, size: 0x8, addend: 0x0, symName: __RNvMs1_NtNtNtCsHUR1vrdMJt_3std4sync4mpmc4zeroINtB5_7ChannelINtNtCsieiGu2EXtoJ_4core6result6ResultNtCslzRnRZxZnvp_9jobserver8AcquiredNtNtNtBb_2io5error5ErrorEE8try_recvCseYC8vFNOjrM_2cc, symObjAddr: 0x57B0, symBinAddr: 0x10004E2C0, symSize: 0x300 }
  - { offset: 0x8F961, size: 0x8, addend: 0x0, symName: __RNvMs2_NtCslJiobkLta79_5alloc7raw_vecNtB5_11RawVecInner14current_memoryCseYC8vFNOjrM_2cc, symObjAddr: 0x5AB0, symBinAddr: 0x10004E5C0, symSize: 0x170 }
  - { offset: 0x8FBC1, size: 0x8, addend: 0x0, symName: __RNvMs2_NtCslJiobkLta79_5alloc7raw_vecNtB5_11RawVecInner16shrink_uncheckedCseYC8vFNOjrM_2cc, symObjAddr: 0x5C20, symBinAddr: 0x10004E730, symSize: 0x3E0 }
  - { offset: 0x8FF6A, size: 0x8, addend: 0x0, symName: __RNvMs2_NtCslJiobkLta79_5alloc7raw_vecNtB5_11RawVecInner6shrinkCseYC8vFNOjrM_2cc, symObjAddr: 0x6000, symBinAddr: 0x10004EB10, symSize: 0xE0 }
  - { offset: 0x9045A, size: 0x8, addend: 0x0, symName: __RINvMNtCsieiGu2EXtoJ_4core3stre10split_oncecECseYC8vFNOjrM_2cc, symObjAddr: 0x0, symBinAddr: 0x100050210, symSize: 0x280 }
  - { offset: 0x90C4D, size: 0x8, addend: 0x0, symName: __RINvNtNtCseYC8vFNOjrM_2cc8parallel14async_executor8block_onNCNvNtB4_14command_runner24run_commands_in_parallel0NCBX_s_0EB6_, symObjAddr: 0x2770, symBinAddr: 0x1000528E0, symSize: 0x6A0 }
  - { offset: 0x90E25, size: 0x8, addend: 0x0, symName: __RNCNvNtNtCseYC8vFNOjrM_2cc8parallel14async_executor17NOOP_WAKER_VTABLE0B7_, symObjAddr: 0x3690, symBinAddr: 0x1000534A0, symSize: 0x20 }
  - { offset: 0x90E57, size: 0x8, addend: 0x0, symName: __RNCNvNtNtCseYC8vFNOjrM_2cc8parallel14async_executor17NOOP_WAKER_VTABLEs0_0B7_, symObjAddr: 0x36B0, symBinAddr: 0x1000534C0, symSize: 0x20 }
  - { offset: 0x90E85, size: 0x8, addend: 0x0, symName: __RNCNvNtNtCseYC8vFNOjrM_2cc8parallel14async_executor17NOOP_WAKER_VTABLEs1_0B7_, symObjAddr: 0x36D0, symBinAddr: 0x1000534E0, symSize: 0x20 }
  - { offset: 0x90EB3, size: 0x8, addend: 0x0, symName: __RNCNvNtNtCseYC8vFNOjrM_2cc8parallel14async_executor17NOOP_WAKER_VTABLEs_0B7_, symObjAddr: 0x36F0, symBinAddr: 0x100053500, symSize: 0x20 }
  - { offset: 0x90F03, size: 0x8, addend: 0x0, symName: __RNvXNtNtCseYC8vFNOjrM_2cc8parallel14async_executorNtB2_9YieldOnceNtNtNtCsieiGu2EXtoJ_4core6future6future6Future4poll, symObjAddr: 0x4BE0, symBinAddr: 0x1000549F0, symSize: 0x50 }
  - { offset: 0x90F60, size: 0x8, addend: 0x0, symName: __RNvXs_NtNtCseYC8vFNOjrM_2cc8parallel14async_executorNtB4_9YieldOnceNtNtCsieiGu2EXtoJ_4core7default7Default7defaultB8_, symObjAddr: 0x4EA0, symBinAddr: 0x100054CB0, symSize: 0x10 }
  - { offset: 0x9392B, size: 0x8, addend: 0x0, symName: __RNcNtINtNtCsieiGu2EXtoJ_4core6result6ResultuINtNtNtB8_3num7nonzero7NonZerojEE3Err0CseYC8vFNOjrM_2cc, symObjAddr: 0x3710, symBinAddr: 0x100053520, symSize: 0x10 }
  - { offset: 0x943C7, size: 0x8, addend: 0x0, symName: __RNvXsp_NtCsieiGu2EXtoJ_4core6resultINtB5_6ResultANtNtCslJiobkLta79_5alloc6string6Stringj4_NtCseYC8vFNOjrM_2cc5ErrorENtNtNtB7_3ops9try_trait3Try6branchB1s_, symObjAddr: 0x5580, symBinAddr: 0x100055390, symSize: 0x100 }
  - { offset: 0x94445, size: 0x8, addend: 0x0, symName: __RNvXsp_NtCsieiGu2EXtoJ_4core6resultINtB5_6ResultINtNtB7_6option6OptionINtNtCslJiobkLta79_5alloc3vec3VecNtNtB1b_6string6StringEENtCseYC8vFNOjrM_2cc5ErrorENtNtNtB7_3ops9try_trait3Try6branchB23_, symObjAddr: 0x5680, symBinAddr: 0x100055490, symSize: 0xF0 }
  - { offset: 0x944C3, size: 0x8, addend: 0x0, symName: __RNvXsp_NtCsieiGu2EXtoJ_4core6resultINtB5_6ResultINtNtB7_6option6OptionINtNtCslJiobkLta79_5alloc6borrow3CowNtNtCsHUR1vrdMJt_3std4path4PathEENtCseYC8vFNOjrM_2cc5ErrorENtNtNtB7_3ops9try_trait3Try6branchB2f_, symObjAddr: 0x5770, symBinAddr: 0x100055580, symSize: 0xF0 }
  - { offset: 0x94541, size: 0x8, addend: 0x0, symName: __RNvXsp_NtCsieiGu2EXtoJ_4core6resultINtB5_6ResultINtNtB7_6option6OptionReENtCseYC8vFNOjrM_2cc5ErrorENtNtNtB7_3ops9try_trait3Try6branchB1b_, symObjAddr: 0x5860, symBinAddr: 0x100055670, symSize: 0xD0 }
  - { offset: 0x945BF, size: 0x8, addend: 0x0, symName: __RNvXsp_NtCsieiGu2EXtoJ_4core6resultINtB5_6ResultINtNtB7_6option6OptionmENtCseYC8vFNOjrM_2cc5ErrorENtNtNtB7_3ops9try_trait3Try6branchB1a_, symObjAddr: 0x5930, symBinAddr: 0x100055740, symSize: 0xD0 }
  - { offset: 0x9463D, size: 0x8, addend: 0x0, symName: __RNvXsp_NtCsieiGu2EXtoJ_4core6resultINtB5_6ResultINtNtCslJiobkLta79_5alloc3vec3VecNtCseYC8vFNOjrM_2cc6ObjectENtB1j_5ErrorENtNtNtB7_3ops9try_trait3Try6branchB1j_, symObjAddr: 0x5A00, symBinAddr: 0x100055810, symSize: 0xF0 }
  - { offset: 0x946BB, size: 0x8, addend: 0x0, symName: __RNvXsp_NtCsieiGu2EXtoJ_4core6resultINtB5_6ResultINtNtCslJiobkLta79_5alloc3vec3VechENtCseYC8vFNOjrM_2cc5ErrorENtNtNtB7_3ops9try_trait3Try6branchB1l_, symObjAddr: 0x5BE0, symBinAddr: 0x100055900, symSize: 0xF0 }
  - { offset: 0x94739, size: 0x8, addend: 0x0, symName: __RNvXsp_NtCsieiGu2EXtoJ_4core6resultINtB5_6ResultINtNtCslJiobkLta79_5alloc4sync3ArcNtNtNtCsHUR1vrdMJt_3std3ffi6os_str5OsStrENtCseYC8vFNOjrM_2cc5ErrorENtNtNtB7_3ops9try_trait3Try6branchB1Z_, symObjAddr: 0x5CD0, symBinAddr: 0x1000559F0, symSize: 0xD0 }
  - { offset: 0x947B7, size: 0x8, addend: 0x0, symName: __RNvXsp_NtCsieiGu2EXtoJ_4core6resultINtB5_6ResultINtNtCslJiobkLta79_5alloc5boxed3BoxeENtCseYC8vFNOjrM_2cc5ErrorENtNtNtB7_3ops9try_trait3Try6branchB1n_, symObjAddr: 0x5DA0, symBinAddr: 0x100055AC0, symSize: 0xD0 }
  - { offset: 0x94835, size: 0x8, addend: 0x0, symName: __RNvXsp_NtCsieiGu2EXtoJ_4core6resultINtB5_6ResultINtNtCslJiobkLta79_5alloc6borrow3CowNtNtCsHUR1vrdMJt_3std4path4PathENtCseYC8vFNOjrM_2cc5ErrorENtNtNtB7_3ops9try_trait3Try6branchB1S_, symObjAddr: 0x5E70, symBinAddr: 0x100055B90, symSize: 0xF0 }
  - { offset: 0x948B3, size: 0x8, addend: 0x0, symName: __RNvXsp_NtCsieiGu2EXtoJ_4core6resultINtB5_6ResultINtNtCslJiobkLta79_5alloc6borrow3CoweENtCseYC8vFNOjrM_2cc5ErrorENtNtNtB7_3ops9try_trait3Try6branchB1o_, symObjAddr: 0x5F60, symBinAddr: 0x100055C80, symSize: 0xF0 }
  - { offset: 0x94931, size: 0x8, addend: 0x0, symName: __RNvXsp_NtCsieiGu2EXtoJ_4core6resultINtB5_6ResultINtNtNtCslJiobkLta79_5alloc3vec13in_place_drop11InPlaceDropNtNtCsHUR1vrdMJt_3std4path7PathBufEzENtNtNtB7_3ops9try_trait3Try11from_outputCseYC8vFNOjrM_2cc, symObjAddr: 0x6050, symBinAddr: 0x100055D70, symSize: 0x20 }
  - { offset: 0x94971, size: 0x8, addend: 0x0, symName: __RNvXsp_NtCsieiGu2EXtoJ_4core6resultINtB5_6ResultINtNtNtCslJiobkLta79_5alloc3vec13in_place_drop11InPlaceDropNtNtCsHUR1vrdMJt_3std4path7PathBufEzENtNtNtB7_3ops9try_trait3Try6branchCseYC8vFNOjrM_2cc, symObjAddr: 0x6070, symBinAddr: 0x100055D90, symSize: 0x30 }
  - { offset: 0x949CF, size: 0x8, addend: 0x0, symName: __RNvXsp_NtCsieiGu2EXtoJ_4core6resultINtB5_6ResultNtCslzRnRZxZnvp_9jobserver12HelperThreadNtNtNtCsHUR1vrdMJt_3std2io5error5ErrorENtNtNtB7_3ops9try_trait3Try6branchCseYC8vFNOjrM_2cc, symObjAddr: 0x60A0, symBinAddr: 0x100055DC0, symSize: 0x80 }
  - { offset: 0x94A4C, size: 0x8, addend: 0x0, symName: __RNvXsp_NtCsieiGu2EXtoJ_4core6resultINtB5_6ResultNtCslzRnRZxZnvp_9jobserver8AcquiredNtNtNtCsHUR1vrdMJt_3std2io5error5ErrorENtNtNtB7_3ops9try_trait3Try6branchCseYC8vFNOjrM_2cc, symObjAddr: 0x6120, symBinAddr: 0x100055E40, symSize: 0x70 }
  - { offset: 0x94AC9, size: 0x8, addend: 0x0, symName: __RNvXsp_NtCsieiGu2EXtoJ_4core6resultINtB5_6ResultNtNtCsHUR1vrdMJt_3std2fs4FileNtNtNtBO_2io5error5ErrorENtNtNtB7_3ops9try_trait3Try6branchCseYC8vFNOjrM_2cc, symObjAddr: 0x6190, symBinAddr: 0x100055EB0, symSize: 0x60 }
  - { offset: 0x94B46, size: 0x8, addend: 0x0, symName: __RNvXsp_NtCsieiGu2EXtoJ_4core6resultINtB5_6ResultNtNtCsHUR1vrdMJt_3std4path7PathBufNtCseYC8vFNOjrM_2cc5ErrorENtNtNtB7_3ops9try_trait3Try6branchB1k_, symObjAddr: 0x61F0, symBinAddr: 0x100055F10, symSize: 0xF0 }
  - { offset: 0x94BC4, size: 0x8, addend: 0x0, symName: __RNvXsp_NtCsieiGu2EXtoJ_4core6resultINtB5_6ResultNtNtCsHUR1vrdMJt_3std7process5ChildNtCseYC8vFNOjrM_2cc5ErrorENtNtNtB7_3ops9try_trait3Try6branchB1l_, symObjAddr: 0x62E0, symBinAddr: 0x100056000, symSize: 0xF0 }
  - { offset: 0x94C42, size: 0x8, addend: 0x0, symName: __RNvXsp_NtCsieiGu2EXtoJ_4core6resultINtB5_6ResultNtNtCsHUR1vrdMJt_3std7process6OutputNtCseYC8vFNOjrM_2cc5ErrorENtNtNtB7_3ops9try_trait3Try6branchB1m_, symObjAddr: 0x63D0, symBinAddr: 0x1000560F0, symSize: 0x100 }
  - { offset: 0x94CC0, size: 0x8, addend: 0x0, symName: __RNvXsp_NtCsieiGu2EXtoJ_4core6resultINtB5_6ResultNtNtCsHUR1vrdMJt_3std7process6OutputNtNtNtBO_2io5error5ErrorENtNtNtB7_3ops9try_trait3Try6branchCseYC8vFNOjrM_2cc, symObjAddr: 0x64D0, symBinAddr: 0x1000561F0, symSize: 0x90 }
  - { offset: 0x94D3D, size: 0x8, addend: 0x0, symName: __RNvXsp_NtCsieiGu2EXtoJ_4core6resultINtB5_6ResultNtNtCsHUR1vrdMJt_3std7process7CommandNtCseYC8vFNOjrM_2cc5ErrorENtNtNtB7_3ops9try_trait3Try6branchB1n_, symObjAddr: 0x6560, symBinAddr: 0x100056280, symSize: 0x100 }
  - { offset: 0x94DBB, size: 0x8, addend: 0x0, symName: __RNvXsp_NtCsieiGu2EXtoJ_4core6resultINtB5_6ResultNtNtCseYC8vFNOjrM_2cc4tool10ToolFamilyNtBO_5ErrorENtNtNtB7_3ops9try_trait3Try6branchBO_, symObjAddr: 0x6660, symBinAddr: 0x100056380, symSize: 0xD0 }
  - { offset: 0x94E39, size: 0x8, addend: 0x0, symName: __RNvXsp_NtCsieiGu2EXtoJ_4core6resultINtB5_6ResultNtNtCseYC8vFNOjrM_2cc4tool4ToolNtBO_5ErrorENtNtNtB7_3ops9try_trait3Try6branchBO_, symObjAddr: 0x6730, symBinAddr: 0x100056450, symSize: 0x100 }
  - { offset: 0x94EB7, size: 0x8, addend: 0x0, symName: __RNvXsp_NtCsieiGu2EXtoJ_4core6resultINtB5_6ResultNtNtCseYC8vFNOjrM_2cc5flags17RustcCodegenFlagsNtBO_5ErrorENtNtNtB7_3ops9try_trait3Try6branchBO_, symObjAddr: 0x6830, symBinAddr: 0x100056550, symSize: 0xF0 }
  - { offset: 0x94F35, size: 0x8, addend: 0x0, symName: __RNvXsp_NtCsieiGu2EXtoJ_4core6resultINtB5_6ResultNtNtCseYC8vFNOjrM_2cc6target10TargetInfoNtBO_5ErrorENtNtNtB7_3ops9try_trait3Try6branchBO_, symObjAddr: 0x6920, symBinAddr: 0x100056640, symSize: 0x100 }
  - { offset: 0x94FB3, size: 0x8, addend: 0x0, symName: __RNvXsp_NtCsieiGu2EXtoJ_4core6resultINtB5_6ResultNtNtCseYC8vFNOjrM_2cc8tempfile13NamedTempfileNtBO_5ErrorENtNtNtB7_3ops9try_trait3Try6branchBO_, symObjAddr: 0x6A20, symBinAddr: 0x100056740, symSize: 0xE0 }
  - { offset: 0x95031, size: 0x8, addend: 0x0, symName: __RNvXsp_NtCsieiGu2EXtoJ_4core6resultINtB5_6ResultNtNtCslJiobkLta79_5alloc6string6StringNtCseYC8vFNOjrM_2cc5ErrorENtNtNtB7_3ops9try_trait3Try6branchB1o_, symObjAddr: 0x6B00, symBinAddr: 0x100056820, symSize: 0xF0 }
  - { offset: 0x950AF, size: 0x8, addend: 0x0, symName: __RNvXsp_NtCsieiGu2EXtoJ_4core6resultINtB5_6ResultNtNtCslzRnRZxZnvp_9jobserver3imp6HelperNtNtNtCsHUR1vrdMJt_3std2io5error5ErrorENtNtNtB7_3ops9try_trait3Try6branchCseYC8vFNOjrM_2cc, symObjAddr: 0x6BF0, symBinAddr: 0x100056910, symSize: 0xA0 }
  - { offset: 0x9512C, size: 0x8, addend: 0x0, symName: __RNvXsp_NtCsieiGu2EXtoJ_4core6resultINtB5_6ResultNtNtNtCseYC8vFNOjrM_2cc8parallel9job_token8JobTokenNtBQ_5ErrorENtNtNtB7_3ops9try_trait3Try6branchBQ_, symObjAddr: 0x6C90, symBinAddr: 0x1000569B0, symSize: 0xB0 }
  - { offset: 0x951AA, size: 0x8, addend: 0x0, symName: __RNvXsp_NtCsieiGu2EXtoJ_4core6resultINtB5_6ResultNtNtNtNtCseYC8vFNOjrM_2cc8parallel9job_token19inherited_jobserver12HelperThreadNtBS_5ErrorENtNtNtB7_3ops9try_trait3Try6branchBS_, symObjAddr: 0x6D40, symBinAddr: 0x100056A60, symSize: 0xF0 }
  - { offset: 0x95228, size: 0x8, addend: 0x0, symName: __RNvXsp_NtCsieiGu2EXtoJ_4core6resultINtB5_6ResultRNtNtCsHUR1vrdMJt_3std4path4PathNtCseYC8vFNOjrM_2cc5ErrorENtNtNtB7_3ops9try_trait3Try6branchB1i_, symObjAddr: 0x6E30, symBinAddr: 0x100056B50, symSize: 0xD0 }
  - { offset: 0x952A6, size: 0x8, addend: 0x0, symName: __RNvXsp_NtCsieiGu2EXtoJ_4core6resultINtB5_6ResultRNtNtNtCsHUR1vrdMJt_3std3ffi6os_str5OsStrNtCseYC8vFNOjrM_2cc5ErrorENtNtNtB7_3ops9try_trait3Try6branchB1r_, symObjAddr: 0x6F00, symBinAddr: 0x100056C20, symSize: 0xD0 }
  - { offset: 0x95324, size: 0x8, addend: 0x0, symName: __RNvXsp_NtCsieiGu2EXtoJ_4core6resultINtB5_6ResultReNtCseYC8vFNOjrM_2cc5ErrorENtNtNtB7_3ops9try_trait3Try6branchBO_, symObjAddr: 0x6FD0, symBinAddr: 0x100056CF0, symSize: 0xD0 }
  - { offset: 0x953A2, size: 0x8, addend: 0x0, symName: __RNvXsp_NtCsieiGu2EXtoJ_4core6resultINtB5_6ResultTNtNtCsHUR1vrdMJt_3std7process7CommandNtNtBP_4path7PathBufENtCseYC8vFNOjrM_2cc5ErrorENtNtNtB7_3ops9try_trait3Try6branchB1J_, symObjAddr: 0x70A0, symBinAddr: 0x100056DC0, symSize: 0x100 }
  - { offset: 0x95420, size: 0x8, addend: 0x0, symName: __RNvXsp_NtCsieiGu2EXtoJ_4core6resultINtB5_6ResultTNtNtCsHUR1vrdMJt_3std7process7CommandNtNtBP_4path7PathBufbENtCseYC8vFNOjrM_2cc5ErrorENtNtNtB7_3ops9try_trait3Try6branchB1K_, symObjAddr: 0x71A0, symBinAddr: 0x100056EC0, symSize: 0x100 }
  - { offset: 0x9549E, size: 0x8, addend: 0x0, symName: __RNvXsp_NtCsieiGu2EXtoJ_4core6resultINtB5_6ResultTReBL_ENtCseYC8vFNOjrM_2cc5ErrorENtNtNtB7_3ops9try_trait3Try6branchBT_, symObjAddr: 0x72A0, symBinAddr: 0x100056FC0, symSize: 0xE0 }
  - { offset: 0x9551C, size: 0x8, addend: 0x0, symName: __RNvXsp_NtCsieiGu2EXtoJ_4core6resultINtB5_6ResultbNtCseYC8vFNOjrM_2cc5ErrorENtNtNtB7_3ops9try_trait3Try6branchBN_, symObjAddr: 0x7380, symBinAddr: 0x1000570A0, symSize: 0xD0 }
  - { offset: 0x9559A, size: 0x8, addend: 0x0, symName: __RNvXsp_NtCsieiGu2EXtoJ_4core6resultINtB5_6ResultlNtCseYC8vFNOjrM_2cc5ErrorENtNtNtB7_3ops9try_trait3Try6branchBN_, symObjAddr: 0x7450, symBinAddr: 0x100057170, symSize: 0xC0 }
  - { offset: 0x95618, size: 0x8, addend: 0x0, symName: __RNvXsp_NtCsieiGu2EXtoJ_4core6resultINtB5_6ResultuNtCseYC8vFNOjrM_2cc5ErrorENtNtNtB7_3ops9try_trait3Try6branchBN_, symObjAddr: 0x7510, symBinAddr: 0x100057230, symSize: 0xB0 }
  - { offset: 0x95696, size: 0x8, addend: 0x0, symName: __RNvXsp_NtCsieiGu2EXtoJ_4core6resultINtB5_6ResultuNtNtB7_3fmt5ErrorENtNtNtB7_3ops9try_trait3Try6branchCseYC8vFNOjrM_2cc, symObjAddr: 0x75C0, symBinAddr: 0x1000572E0, symSize: 0x30 }
  - { offset: 0x95718, size: 0x8, addend: 0x0, symName: __RNvXsq_NtCsieiGu2EXtoJ_4core6resultINtB5_6ResultANtNtCslJiobkLta79_5alloc6string6Stringj4_NtCseYC8vFNOjrM_2cc5ErrorEINtNtNtB7_3ops9try_trait12FromResidualIBy_NtNtB7_7convert10InfallibleB1q_EE13from_residualB1s_, symObjAddr: 0x75F0, symBinAddr: 0x100057310, symSize: 0x80 }
  - { offset: 0x9579D, size: 0x8, addend: 0x0, symName: __RNvXsq_NtCsieiGu2EXtoJ_4core6resultINtB5_6ResultINtNtB7_6option6OptionINtNtCslJiobkLta79_5alloc3vec3VecNtNtB1b_6string6StringEENtCseYC8vFNOjrM_2cc5ErrorEINtNtNtB7_3ops9try_trait12FromResidualIBy_NtNtB7_7convert10InfallibleB21_EE13from_residualB23_, symObjAddr: 0x7670, symBinAddr: 0x100057390, symSize: 0x70 }
  - { offset: 0x95822, size: 0x8, addend: 0x0, symName: __RNvXsq_NtCsieiGu2EXtoJ_4core6resultINtB5_6ResultINtNtB7_6option6OptionINtNtCslJiobkLta79_5alloc6borrow3CowNtNtCsHUR1vrdMJt_3std4path4PathEENtCseYC8vFNOjrM_2cc5ErrorEINtNtNtB7_3ops9try_trait12FromResidualIBy_NtNtB7_7convert10InfallibleB2d_EE13from_residualB2f_, symObjAddr: 0x76E0, symBinAddr: 0x100057400, symSize: 0x70 }
  - { offset: 0x958A7, size: 0x8, addend: 0x0, symName: __RNvXsq_NtCsieiGu2EXtoJ_4core6resultINtB5_6ResultINtNtCslJiobkLta79_5alloc3vec3VecNtCseYC8vFNOjrM_2cc6ObjectENtB1j_5ErrorEINtNtNtB7_3ops9try_trait12FromResidualIBy_NtNtB7_7convert10InfallibleB1I_EE13from_residualB1j_, symObjAddr: 0x7750, symBinAddr: 0x100057470, symSize: 0x70 }
  - { offset: 0x9592C, size: 0x8, addend: 0x0, symName: __RNvXsq_NtCsieiGu2EXtoJ_4core6resultINtB5_6ResultINtNtCslJiobkLta79_5alloc3vec3VecNtCseYC8vFNOjrM_2cc6ObjectENtB1j_5ErrorEINtNtNtB7_3ops9try_trait12FromResidualIBy_NtNtB7_7convert10InfallibleNtNtNtCsHUR1vrdMJt_3std2io5error5ErrorEE13from_residualB1j_, symObjAddr: 0x77C0, symBinAddr: 0x1000574E0, symSize: 0x50 }
  - { offset: 0x95993, size: 0x8, addend: 0x0, symName: __RNvXsq_NtCsieiGu2EXtoJ_4core6resultINtB5_6ResultINtNtCslJiobkLta79_5alloc3vec3VechENtCseYC8vFNOjrM_2cc5ErrorEINtNtNtB7_3ops9try_trait12FromResidualIBy_NtNtB7_7convert10InfallibleB1j_EE13from_residualB1l_, symObjAddr: 0x7880, symBinAddr: 0x100057530, symSize: 0x70 }
  - { offset: 0x95A18, size: 0x8, addend: 0x0, symName: __RNvXsq_NtCsieiGu2EXtoJ_4core6resultINtB5_6ResultINtNtCslJiobkLta79_5alloc4sync3ArcNtNtNtCsHUR1vrdMJt_3std3ffi6os_str5OsStrENtCseYC8vFNOjrM_2cc5ErrorEINtNtNtB7_3ops9try_trait12FromResidualIBy_NtNtB7_7convert10InfallibleB1X_EE13from_residualB1Z_, symObjAddr: 0x78F0, symBinAddr: 0x1000575A0, symSize: 0x70 }
  - { offset: 0x95A9D, size: 0x8, addend: 0x0, symName: __RNvXsq_NtCsieiGu2EXtoJ_4core6resultINtB5_6ResultNtCslzRnRZxZnvp_9jobserver12HelperThreadNtNtNtCsHUR1vrdMJt_3std2io5error5ErrorEINtNtNtB7_3ops9try_trait12FromResidualIBy_NtNtB7_7convert10InfallibleB1o_EE13from_residualCseYC8vFNOjrM_2cc, symObjAddr: 0x7970, symBinAddr: 0x100057610, symSize: 0x20 }
  - { offset: 0x95B04, size: 0x8, addend: 0x0, symName: __RNvXsq_NtCsieiGu2EXtoJ_4core6resultINtB5_6ResultNtNtCsHUR1vrdMJt_3std4path7PathBufNtCseYC8vFNOjrM_2cc5ErrorEINtNtNtB7_3ops9try_trait12FromResidualIBy_NtNtB7_7convert10InfallibleB1i_EE13from_residualB1k_, symObjAddr: 0x7990, symBinAddr: 0x100057630, symSize: 0x70 }
  - { offset: 0x95B89, size: 0x8, addend: 0x0, symName: __RNvXsq_NtCsieiGu2EXtoJ_4core6resultINtB5_6ResultNtNtCsHUR1vrdMJt_3std4path7PathBufNtCseYC8vFNOjrM_2cc5ErrorEINtNtNtB7_3ops9try_trait12FromResidualIBy_NtNtB7_7convert10InfallibleNtNtNtBO_2io5error5ErrorEE13from_residualB1k_, symObjAddr: 0x7A00, symBinAddr: 0x1000576A0, symSize: 0x50 }
  - { offset: 0x95BF0, size: 0x8, addend: 0x0, symName: __RNvXsq_NtCsieiGu2EXtoJ_4core6resultINtB5_6ResultNtNtCsHUR1vrdMJt_3std7process6OutputNtCseYC8vFNOjrM_2cc5ErrorEINtNtNtB7_3ops9try_trait12FromResidualIBy_NtNtB7_7convert10InfallibleB1k_EE13from_residualB1m_, symObjAddr: 0x7A50, symBinAddr: 0x1000576F0, symSize: 0x80 }
  - { offset: 0x95C75, size: 0x8, addend: 0x0, symName: __RNvXsq_NtCsieiGu2EXtoJ_4core6resultINtB5_6ResultNtNtCsHUR1vrdMJt_3std7process7CommandNtCseYC8vFNOjrM_2cc5ErrorEINtNtNtB7_3ops9try_trait12FromResidualIBy_NtNtB7_7convert10InfallibleB1l_EE13from_residualB1n_, symObjAddr: 0x7AD0, symBinAddr: 0x100057770, symSize: 0x80 }
  - { offset: 0x95CFA, size: 0x8, addend: 0x0, symName: __RNvXsq_NtCsieiGu2EXtoJ_4core6resultINtB5_6ResultNtNtCseYC8vFNOjrM_2cc4tool10ToolFamilyNtBO_5ErrorEINtNtNtB7_3ops9try_trait12FromResidualIBy_NtNtB7_7convert10InfallibleB1m_EE13from_residualBO_, symObjAddr: 0x7B50, symBinAddr: 0x1000577F0, symSize: 0x70 }
  - { offset: 0x95D7F, size: 0x8, addend: 0x0, symName: __RNvXsq_NtCsieiGu2EXtoJ_4core6resultINtB5_6ResultNtNtCseYC8vFNOjrM_2cc4tool10ToolFamilyNtBO_5ErrorEINtNtNtB7_3ops9try_trait12FromResidualIBy_NtNtB7_7convert10InfallibleNtNtNtCsHUR1vrdMJt_3std2io5error5ErrorEE13from_residualBO_, symObjAddr: 0x7BC0, symBinAddr: 0x100057860, symSize: 0x50 }
  - { offset: 0x95DE6, size: 0x8, addend: 0x0, symName: __RNvXsq_NtCsieiGu2EXtoJ_4core6resultINtB5_6ResultNtNtCseYC8vFNOjrM_2cc4tool4ToolNtBO_5ErrorEINtNtNtB7_3ops9try_trait12FromResidualIBy_NtNtB7_7convert10InfallibleB1f_EE13from_residualBO_, symObjAddr: 0x7C10, symBinAddr: 0x1000578B0, symSize: 0x80 }
  - { offset: 0x95E6B, size: 0x8, addend: 0x0, symName: __RNvXsq_NtCsieiGu2EXtoJ_4core6resultINtB5_6ResultNtNtCseYC8vFNOjrM_2cc5flags17RustcCodegenFlagsNtBO_5ErrorEINtNtNtB7_3ops9try_trait12FromResidualIBy_NtNtB7_7convert10InfallibleB1u_EE13from_residualBO_, symObjAddr: 0x7C90, symBinAddr: 0x100057930, symSize: 0x70 }
  - { offset: 0x95EF0, size: 0x8, addend: 0x0, symName: __RNvXsq_NtCsieiGu2EXtoJ_4core6resultINtB5_6ResultNtNtCseYC8vFNOjrM_2cc6target10TargetInfoNtBO_5ErrorEINtNtNtB7_3ops9try_trait12FromResidualIBy_NtNtB7_7convert10InfallibleB1o_EE13from_residualBO_, symObjAddr: 0x7D00, symBinAddr: 0x1000579A0, symSize: 0x70 }
  - { offset: 0x95F75, size: 0x8, addend: 0x0, symName: __RNvXsq_NtCsieiGu2EXtoJ_4core6resultINtB5_6ResultNtNtCslJiobkLta79_5alloc6string6StringNtCseYC8vFNOjrM_2cc5ErrorEINtNtNtB7_3ops9try_trait12FromResidualIBy_NtNtB7_7convert10InfallibleB1m_EE13from_residualB1o_, symObjAddr: 0x7D70, symBinAddr: 0x100057A10, symSize: 0x70 }
  - { offset: 0x95FFA, size: 0x8, addend: 0x0, symName: __RNvXsq_NtCsieiGu2EXtoJ_4core6resultINtB5_6ResultNtNtNtCseYC8vFNOjrM_2cc6target6parser21TargetInfoParserInnerNtBQ_5ErrorEINtNtNtB7_3ops9try_trait12FromResidualIBy_NtNtB7_7convert10InfallibleB1I_EE13from_residualBQ_, symObjAddr: 0x7DE0, symBinAddr: 0x100057A80, symSize: 0x70 }
  - { offset: 0x9607F, size: 0x8, addend: 0x0, symName: __RNvXsq_NtCsieiGu2EXtoJ_4core6resultINtB5_6ResultNtNtNtCseYC8vFNOjrM_2cc8parallel9job_token8JobTokenNtBQ_5ErrorEINtNtNtB7_3ops9try_trait12FromResidualIBy_NtNtB7_7convert10InfallibleB1z_EE13from_residualBQ_, symObjAddr: 0x7E50, symBinAddr: 0x100057AF0, symSize: 0x70 }
  - { offset: 0x96104, size: 0x8, addend: 0x0, symName: __RNvXsq_NtCsieiGu2EXtoJ_4core6resultINtB5_6ResultNtNtNtCseYC8vFNOjrM_2cc8parallel9job_token8JobTokenNtBQ_5ErrorEINtNtNtB7_3ops9try_trait12FromResidualIBy_NtNtB7_7convert10InfallibleNtNtNtCsHUR1vrdMJt_3std2io5error5ErrorEE13from_residualBQ_, symObjAddr: 0x7EC0, symBinAddr: 0x100057B60, symSize: 0x50 }
  - { offset: 0x9616B, size: 0x8, addend: 0x0, symName: __RNvXsq_NtCsieiGu2EXtoJ_4core6resultINtB5_6ResultNtNtNtNtCseYC8vFNOjrM_2cc8parallel9job_token19inherited_jobserver12HelperThreadNtBS_5ErrorEINtNtNtB7_3ops9try_trait12FromResidualIBy_NtNtB7_7convert10InfallibleNtNtNtCsHUR1vrdMJt_3std2io5error5ErrorEE13from_residualBS_, symObjAddr: 0x7F10, symBinAddr: 0x100057BB0, symSize: 0x60 }
  - { offset: 0x961D2, size: 0x8, addend: 0x0, symName: __RNvXsq_NtCsieiGu2EXtoJ_4core6resultINtB5_6ResultTNtNtCsHUR1vrdMJt_3std7process7CommandNtNtBP_4path7PathBufENtCseYC8vFNOjrM_2cc5ErrorEINtNtNtB7_3ops9try_trait12FromResidualIBy_NtNtB7_7convert10InfallibleB1H_EE13from_residualB1J_, symObjAddr: 0x7FE0, symBinAddr: 0x100057C10, symSize: 0x80 }
  - { offset: 0x96257, size: 0x8, addend: 0x0, symName: __RNvXsq_NtCsieiGu2EXtoJ_4core6resultINtB5_6ResultTNtNtCsHUR1vrdMJt_3std7process7CommandNtNtBP_4path7PathBufbENtCseYC8vFNOjrM_2cc5ErrorEINtNtNtB7_3ops9try_trait12FromResidualIBy_NtNtB7_7convert10InfallibleB1I_EE13from_residualB1K_, symObjAddr: 0x8060, symBinAddr: 0x100057C90, symSize: 0x80 }
  - { offset: 0x962DC, size: 0x8, addend: 0x0, symName: __RNvXsq_NtCsieiGu2EXtoJ_4core6resultINtB5_6ResultbNtCseYC8vFNOjrM_2cc5ErrorEINtNtNtB7_3ops9try_trait12FromResidualIBy_NtNtB7_7convert10InfallibleBL_EE13from_residualBN_, symObjAddr: 0x80E0, symBinAddr: 0x100057D10, symSize: 0x70 }
  - { offset: 0x96361, size: 0x8, addend: 0x0, symName: __RNvXsq_NtCsieiGu2EXtoJ_4core6resultINtB5_6ResultbNtCseYC8vFNOjrM_2cc5ErrorEINtNtNtB7_3ops9try_trait12FromResidualIBy_NtNtB7_7convert10InfallibleNtNtNtCsHUR1vrdMJt_3std2io5error5ErrorEE13from_residualBN_, symObjAddr: 0x8150, symBinAddr: 0x100057D80, symSize: 0x50 }
  - { offset: 0x963C8, size: 0x8, addend: 0x0, symName: __RNvXsq_NtCsieiGu2EXtoJ_4core6resultINtB5_6ResultuNtCseYC8vFNOjrM_2cc5ErrorEINtNtNtB7_3ops9try_trait12FromResidualIBy_NtNtB7_7convert10InfallibleBL_EE13from_residualBN_, symObjAddr: 0x81A0, symBinAddr: 0x100057DD0, symSize: 0x70 }
  - { offset: 0x9644D, size: 0x8, addend: 0x0, symName: __RNvXsq_NtCsieiGu2EXtoJ_4core6resultINtB5_6ResultuNtNtB7_3fmt5ErrorEINtNtNtB7_3ops9try_trait12FromResidualIBy_NtNtB7_7convert10InfallibleBL_EE13from_residualCseYC8vFNOjrM_2cc, symObjAddr: 0x8210, symBinAddr: 0x100057E40, symSize: 0x10 }
  - { offset: 0x9731F, size: 0x8, addend: 0x0, symName: __RNvNvMsd_NtNtCsieiGu2EXtoJ_4core3num7nonzeroINtB7_7NonZeropE13new_unchecked18precondition_checkCseYC8vFNOjrM_2cc, symObjAddr: 0x4B60, symBinAddr: 0x100054970, symSize: 0x80 }
  - { offset: 0x9A596, size: 0x8, addend: 0x0, symName: __RINvMNtCsieiGu2EXtoJ_4core3stre10split_oncecECseYC8vFNOjrM_2cc, symObjAddr: 0x0, symBinAddr: 0x100050210, symSize: 0x280 }
  - { offset: 0x9A88C, size: 0x8, addend: 0x0, symName: __RINvMNtCsieiGu2EXtoJ_4core3stre11starts_withReECseYC8vFNOjrM_2cc, symObjAddr: 0x280, symBinAddr: 0x100050490, symSize: 0x40 }
  - { offset: 0x9A8D2, size: 0x8, addend: 0x0, symName: __RINvMNtCsieiGu2EXtoJ_4core3stre11starts_withcECseYC8vFNOjrM_2cc, symObjAddr: 0x2C0, symBinAddr: 0x1000504D0, symSize: 0x30 }
  - { offset: 0x9A918, size: 0x8, addend: 0x0, symName: __RINvMNtCsieiGu2EXtoJ_4core3stre12strip_prefixReECseYC8vFNOjrM_2cc, symObjAddr: 0x2F0, symBinAddr: 0x100050500, symSize: 0x40 }
  - { offset: 0x9A95E, size: 0x8, addend: 0x0, symName: __RINvMNtCsieiGu2EXtoJ_4core3stre12strip_suffixReECseYC8vFNOjrM_2cc, symObjAddr: 0x330, symBinAddr: 0x100050540, symSize: 0x40 }
  - { offset: 0x9A9D8, size: 0x8, addend: 0x0, symName: __RINvMNtCsieiGu2EXtoJ_4core3stre12trim_matchesNvMNtNtB5_4char7methodsc13is_whitespaceECseYC8vFNOjrM_2cc, symObjAddr: 0x370, symBinAddr: 0x100050580, symSize: 0x180 }
  - { offset: 0x9ABAF, size: 0x8, addend: 0x0, symName: __RINvMNtCsieiGu2EXtoJ_4core3stre16trim_end_matchescECseYC8vFNOjrM_2cc, symObjAddr: 0x4F0, symBinAddr: 0x100050700, symSize: 0x120 }
  - { offset: 0x9ACED, size: 0x8, addend: 0x0, symName: __RINvMNtCsieiGu2EXtoJ_4core3stre5parsemECseYC8vFNOjrM_2cc, symObjAddr: 0x610, symBinAddr: 0x100050820, symSize: 0x30 }
  - { offset: 0x9AD31, size: 0x8, addend: 0x0, symName: __RINvMNtCsieiGu2EXtoJ_4core3stre5rfindcECseYC8vFNOjrM_2cc, symObjAddr: 0x640, symBinAddr: 0x100050850, symSize: 0xD0 }
  - { offset: 0x9ADBE, size: 0x8, addend: 0x0, symName: __RINvMNtCsieiGu2EXtoJ_4core3stre5splitAcj2_ECseYC8vFNOjrM_2cc, symObjAddr: 0x710, symBinAddr: 0x100050920, symSize: 0xC0 }
  - { offset: 0x9AE05, size: 0x8, addend: 0x0, symName: __RINvMNtCsieiGu2EXtoJ_4core3stre5splitReECseYC8vFNOjrM_2cc, symObjAddr: 0x7D0, symBinAddr: 0x1000509E0, symSize: 0xD0 }
  - { offset: 0x9AE4B, size: 0x8, addend: 0x0, symName: __RINvMNtCsieiGu2EXtoJ_4core3stre8containsRReECseYC8vFNOjrM_2cc, symObjAddr: 0x8A0, symBinAddr: 0x100050AB0, symSize: 0x30 }
  - { offset: 0x9AE91, size: 0x8, addend: 0x0, symName: __RINvMNtCsieiGu2EXtoJ_4core3stre9ends_withReECseYC8vFNOjrM_2cc, symObjAddr: 0x8D0, symBinAddr: 0x100050AE0, symSize: 0x40 }
  - { offset: 0x9AED7, size: 0x8, addend: 0x0, symName: __RINvMNtCsieiGu2EXtoJ_4core3stre9ends_withcECseYC8vFNOjrM_2cc, symObjAddr: 0x910, symBinAddr: 0x100050B20, symSize: 0x30 }
  - { offset: 0x9B089, size: 0x8, addend: 0x0, symName: __RNvMNtCsieiGu2EXtoJ_4core3stre16split_at_checkedCseYC8vFNOjrM_2cc, symObjAddr: 0x3720, symBinAddr: 0x100053530, symSize: 0xF0 }
  - { offset: 0x9B136, size: 0x8, addend: 0x0, symName: __RNvMNtCsieiGu2EXtoJ_4core3stre16split_whitespaceCseYC8vFNOjrM_2cc, symObjAddr: 0x3810, symBinAddr: 0x100053620, symSize: 0xE0 }
  - { offset: 0x9B226, size: 0x8, addend: 0x0, symName: __RNvMNtCsieiGu2EXtoJ_4core3stre18split_at_uncheckedCseYC8vFNOjrM_2cc, symObjAddr: 0x38F0, symBinAddr: 0x100053700, symSize: 0xF0 }
  - { offset: 0x9B3FB, size: 0x8, addend: 0x0, symName: __RNvMNtCsieiGu2EXtoJ_4core3stre22split_ascii_whitespaceCseYC8vFNOjrM_2cc, symObjAddr: 0x39E0, symBinAddr: 0x1000537F0, symSize: 0x70 }
  - { offset: 0x9B4AA, size: 0x8, addend: 0x0, symName: __RNvMNtCsieiGu2EXtoJ_4core3stre3lenCseYC8vFNOjrM_2cc, symObjAddr: 0x3A50, symBinAddr: 0x100053860, symSize: 0x20 }
  - { offset: 0x9B4D6, size: 0x8, addend: 0x0, symName: __RNvMNtCsieiGu2EXtoJ_4core3stre4trimCseYC8vFNOjrM_2cc, symObjAddr: 0x3A70, symBinAddr: 0x100053880, symSize: 0x20 }
  - { offset: 0x9B504, size: 0x8, addend: 0x0, symName: __RNvMNtCsieiGu2EXtoJ_4core3stre5charsCseYC8vFNOjrM_2cc, symObjAddr: 0x3A90, symBinAddr: 0x1000538A0, symSize: 0x20 }
  - { offset: 0x9B572, size: 0x8, addend: 0x0, symName: __RNvMNtCsieiGu2EXtoJ_4core3stre8is_emptyCseYC8vFNOjrM_2cc, symObjAddr: 0x3AB0, symBinAddr: 0x1000538C0, symSize: 0x20 }
  - { offset: 0x9B59E, size: 0x8, addend: 0x0, symName: __RNvMNtCsieiGu2EXtoJ_4core3stre8split_atCseYC8vFNOjrM_2cc, symObjAddr: 0x3AD0, symBinAddr: 0x1000538E0, symSize: 0xA0 }
  - { offset: 0x9BB1D, size: 0x8, addend: 0x0, symName: __RNvXs3_NtNtCsieiGu2EXtoJ_4core3str7patternNtB7_12IsWhitespaceNtB5_11MultiCharEq7matchesCseYC8vFNOjrM_2cc, symObjAddr: 0x4DD0, symBinAddr: 0x100054BE0, symSize: 0x20 }
  - { offset: 0x9BC80, size: 0x8, addend: 0x0, symName: __RNvXs0_NtCsieiGu2EXtoJ_4core3strReNtNtB7_7default7Default7defaultCseYC8vFNOjrM_2cc, symObjAddr: 0x4C80, symBinAddr: 0x100054A90, symSize: 0x10 }
  - { offset: 0x9BCD4, size: 0x8, addend: 0x0, symName: __RNvXsg_NtCsieiGu2EXtoJ_4core3strNtB5_12IsWhitespaceINtNtNtB7_3ops8function5FnMutTcEE8call_mutCseYC8vFNOjrM_2cc, symObjAddr: 0x5490, symBinAddr: 0x1000552A0, symSize: 0x30 }
  - { offset: 0x9BD64, size: 0x8, addend: 0x0, symName: __RNvXsi_NtCsieiGu2EXtoJ_4core3strNtB5_17IsAsciiWhitespaceINtNtNtB7_3ops8function2FnTRhEE4callCseYC8vFNOjrM_2cc, symObjAddr: 0x54C0, symBinAddr: 0x1000552D0, symSize: 0x50 }
  - { offset: 0x9BDDB, size: 0x8, addend: 0x0, symName: __RNvXsj_NtCsieiGu2EXtoJ_4core3strNtB5_17IsAsciiWhitespaceINtNtNtB7_3ops8function5FnMutTRhEE8call_mutCseYC8vFNOjrM_2cc, symObjAddr: 0x5510, symBinAddr: 0x100055320, symSize: 0x30 }
  - { offset: 0x9BE56, size: 0x8, addend: 0x0, symName: __RNvXsm_NtCsieiGu2EXtoJ_4core3strNtB5_10IsNotEmptyINtNtNtB7_3ops8function5FnMutTRReEE8call_mutCseYC8vFNOjrM_2cc, symObjAddr: 0x5540, symBinAddr: 0x100055350, symSize: 0x20 }
  - { offset: 0x9BEE6, size: 0x8, addend: 0x0, symName: __RNvXsp_NtCsieiGu2EXtoJ_4core3strNtB5_15BytesIsNotEmptyINtNtNtB7_3ops8function5FnMutTRRShEE8call_mutCseYC8vFNOjrM_2cc, symObjAddr: 0x5560, symBinAddr: 0x100055370, symSize: 0x20 }
  - { offset: 0x9BF54, size: 0x8, addend: 0x0, symName: __RNvXss_NtCsieiGu2EXtoJ_4core3strNtB5_16UnsafeBytesToStrINtNtNtB7_3ops8function5FnMutTRShEE8call_mutCseYC8vFNOjrM_2cc, symObjAddr: 0x8220, symBinAddr: 0x100057E50, symSize: 0x20 }
  - { offset: 0x9D4D0, size: 0x8, addend: 0x0, symName: __RNvXs1_NtNtNtCsieiGu2EXtoJ_4core3ops8function5implsQNtNtBb_3str10IsNotEmptyINtB7_5FnMutTRReEE8call_mutCseYC8vFNOjrM_2cc, symObjAddr: 0x4C90, symBinAddr: 0x100054AA0, symSize: 0x30 }
  - { offset: 0x9D51F, size: 0x8, addend: 0x0, symName: __RNvXs1_NtNtNtCsieiGu2EXtoJ_4core3ops8function5implsQNtNtBb_3str15BytesIsNotEmptyINtB7_5FnMutTRRShEE8call_mutCseYC8vFNOjrM_2cc, symObjAddr: 0x4CC0, symBinAddr: 0x100054AD0, symSize: 0x30 }
  - { offset: 0x9DF08, size: 0x8, addend: 0x0, symName: __RINvXs_NtNtNtCsieiGu2EXtoJ_4core4iter8adapters5chainINtB5_5ChainINtNtB7_3map3MapINtNtNtBb_5slice4iter4IterNtCseYC8vFNOjrM_2cc6ObjectENCNvMs4_B1I_NtB1I_5Build8assemble0EIB11_IB1h_INtNtCslJiobkLta79_5alloc4sync3ArcNtNtCsHUR1vrdMJt_3std4path4PathEENvYB2Q_NtNtNtBb_3ops5deref5Deref5derefEENtNtNtB9_6traits8iterator8Iterator4folduNCINvNvB4z_8for_each4callRB3o_NCINvMsi_NtB2V_3vecINtB5Q_3VecB5C_E14extend_trustedBO_E0E0EB1I_, symObjAddr: 0x3170, symBinAddr: 0x100052F80, symSize: 0x140 }
  - { offset: 0x9DFA4, size: 0x8, addend: 0x0, symName: __RINvXs_NtNtNtCsieiGu2EXtoJ_4core4iter8adapters5chainINtB5_5ChainINtNtB7_6cloned6ClonedINtNtNtBb_5slice4iter4IterRNtNtNtCsHUR1vrdMJt_3std3ffi6os_str5OsStrEEINtNtB7_3map3MapIB1n_NtNtCslJiobkLta79_5alloc6string6StringEINvMsl_B1P_B1N_3newB2O_EEENtNtNtB9_6traits8iterator8Iterator4folduNCINvB2w_8map_foldB1M_INtNtB2S_5boxed3BoxB1N_EuNvYB1M_INtNtBb_7convert4IntoB4R_E4intoNCINvNvB3R_8for_each4callB4R_NCINvMsi_NtB2S_3vecINtB6u_3VecB4R_E14extend_trustedIB2u_BO_B5g_EE0E0E0ECseYC8vFNOjrM_2cc, symObjAddr: 0x32B0, symBinAddr: 0x1000530C0, symSize: 0x140 }
  - { offset: 0x9E040, size: 0x8, addend: 0x0, symName: __RNvXs_NtNtNtCsieiGu2EXtoJ_4core4iter8adapters5chainINtB4_5ChainINtNtB6_3map3MapINtNtNtBa_5slice4iter4IterNtCseYC8vFNOjrM_2cc6ObjectENCNvMs4_B1H_NtB1H_5Build8assemble0EIB10_IB1g_INtNtCslJiobkLta79_5alloc4sync3ArcNtNtCsHUR1vrdMJt_3std4path4PathEENvYB2P_NtNtNtBa_3ops5deref5Deref5derefEENtNtNtB8_6traits8iterator8Iterator9size_hintB1H_, symObjAddr: 0x4EB0, symBinAddr: 0x100054CC0, symSize: 0x280 }
  - { offset: 0x9E1F1, size: 0x8, addend: 0x0, symName: __RNvXs_NtNtNtCsieiGu2EXtoJ_4core4iter8adapters5chainINtB4_5ChainINtNtB6_6cloned6ClonedINtNtNtBa_5slice4iter4IterRNtNtNtCsHUR1vrdMJt_3std3ffi6os_str5OsStrEEINtNtB6_3map3MapIB1m_NtNtCslJiobkLta79_5alloc6string6StringEINvMsl_B1O_B1M_3newB2N_EEENtNtNtB8_6traits8iterator8Iterator9size_hintCseYC8vFNOjrM_2cc, symObjAddr: 0x5130, symBinAddr: 0x100054F40, symSize: 0x280 }
  - { offset: 0x9E58C, size: 0x8, addend: 0x0, symName: __RINvYINtNtNtNtCsieiGu2EXtoJ_4core4iter8adapters5chain5ChainINtNtB8_3map3MapINtNtNtBc_5slice4iter4IterNtCseYC8vFNOjrM_2cc6ObjectENCNvMs4_B1D_NtB1D_5Build8assemble0EIBW_IB1c_INtNtCslJiobkLta79_5alloc4sync3ArcNtNtCsHUR1vrdMJt_3std4path4PathEENvYB2K_NtNtNtBc_3ops5deref5Deref5derefEENtNtNtBa_6traits8iterator8Iterator7collectINtNtB2P_3vec3VecRB3i_EEB1D_, symObjAddr: 0x33F0, symBinAddr: 0x100053200, symSize: 0x70 }
  - { offset: 0x9E697, size: 0x8, addend: 0x0, symName: __RINvYINtNtNtNtCsieiGu2EXtoJ_4core4iter8adapters5chain5ChainINtNtB8_3map3MapINtNtNtBc_5slice4iter4IterNtCseYC8vFNOjrM_2cc6ObjectENCNvMs4_B1D_NtB1D_5Build8assemble0EIBW_IB1c_INtNtCslJiobkLta79_5alloc4sync3ArcNtNtCsHUR1vrdMJt_3std4path4PathEENvYB2K_NtNtNtBc_3ops5deref5Deref5derefEENtNtNtBa_6traits8iterator8Iterator8for_eachNCINvMsi_NtB2P_3vecINtB5j_3VecRB3i_E14extend_trustedB3_E0EB1D_, symObjAddr: 0x3460, symBinAddr: 0x100053270, symSize: 0x30 }
  - { offset: 0x9E702, size: 0x8, addend: 0x0, symName: __RINvYINtNtNtNtCsieiGu2EXtoJ_4core4iter8adapters5chain5ChainINtNtB8_6cloned6ClonedINtNtNtBc_5slice4iter4IterRNtNtNtCsHUR1vrdMJt_3std3ffi6os_str5OsStrEEINtNtB8_3map3MapIB1i_NtNtCslJiobkLta79_5alloc6string6StringEINvMsl_B1K_B1I_3newB2J_EEENtNtNtBa_6traits8iterator8Iterator3mapINtNtB2N_5boxed3BoxB1I_ENvYB1H_INtNtBc_7convert4IntoB4o_E4intoECseYC8vFNOjrM_2cc, symObjAddr: 0x3490, symBinAddr: 0x1000532A0, symSize: 0x30 }
  - { offset: 0x9E83A, size: 0x8, addend: 0x0, symName: __RNvXNtNtNtCsieiGu2EXtoJ_4core4iter6traits7collectINtNtNtB6_8adapters5chain5ChainINtNtBQ_3map3MapINtNtNtB8_5slice4iter4IterNtCseYC8vFNOjrM_2cc6ObjectENCNvMs4_B1Y_NtB1Y_5Build8assemble0EIB1h_IB1x_INtNtCslJiobkLta79_5alloc4sync3ArcNtNtCsHUR1vrdMJt_3std4path4PathEENvYB36_NtNtNtB8_3ops5deref5Deref5derefEENtB2_12IntoIterator9into_iterB1Y_, symObjAddr: 0x4C50, symBinAddr: 0x100054A60, symSize: 0x30 }
  - { offset: 0x9EA98, size: 0x8, addend: 0x0, symName: __RNCINvMs6_NtNtNtCsieiGu2EXtoJ_4core5array4iter10iter_innerINtB8_15PolymorphicIterSINtNtNtBe_3mem12maybe_uninit11MaybeUninitNtNtNtCsHUR1vrdMJt_3std3ffi6os_str8OsStringEE8try_folduNCINvMNtNtBe_3ops9try_traitINtB2W_17NeverShortCircuituE10wrap_mut_2uB1X_NCINvNvNtNtNtNtBe_4iter6traits8iterator8Iterator8for_each4callB1X_NCINvMsi_NtCslJiobkLta79_5alloc3vecINtB5d_3VecB1X_E14extend_trustedINtBa_8IntoIterB1X_Kj6_EE0E0E0B3h_E0CseYC8vFNOjrM_2cc, symObjAddr: 0x34C0, symBinAddr: 0x1000532D0, symSize: 0xB0 }
  - { offset: 0x9EBF4, size: 0x8, addend: 0x0, symName: __RNCINvMs6_NtNtNtCsieiGu2EXtoJ_4core5array4iter10iter_innerINtB8_15PolymorphicIterSINtNtNtBe_3mem12maybe_uninit11MaybeUninitbEE8try_foldhNCINvMNtNtBe_3ops9try_traitINtB2g_17NeverShortCircuithE10wrap_mut_2hbNCINvNtNtNtBe_4iter8adapters3map8map_foldbhhNCNvXNtNtBe_3str4iterNtB44_5CharsNtNtNtB3q_6traits8iterator8Iterator10advance_by0NCINvXsq_NtB4A_5accumhNtB5r_3Sum3sumINtB3m_3MapINtBa_8IntoIterbKj20_EB3Z_EE0E0E0B2B_E0CseYC8vFNOjrM_2cc, symObjAddr: 0x3570, symBinAddr: 0x100053380, symSize: 0x90 }
  - { offset: 0x9EDEC, size: 0x8, addend: 0x0, symName: __RNvXs1_NtNtNtCsieiGu2EXtoJ_4core5array4iter10iter_innerINtB5_15PolymorphicIterAINtNtNtBb_3mem12maybe_uninit11MaybeUninitNtNtNtCsHUR1vrdMJt_3std3ffi6os_str8OsStringEj6_ENtNtNtBb_3ops4drop4Drop4dropCseYC8vFNOjrM_2cc, symObjAddr: 0x4CF0, symBinAddr: 0x100054B00, symSize: 0x30 }
  - { offset: 0x9EE3A, size: 0x8, addend: 0x0, symName: __RNvXs1_NtNtNtCsieiGu2EXtoJ_4core5array4iter10iter_innerINtB5_15PolymorphicIterAINtNtNtBb_3mem12maybe_uninit11MaybeUninitReEj2_ENtNtNtBb_3ops4drop4Drop4dropCseYC8vFNOjrM_2cc, symObjAddr: 0x4D20, symBinAddr: 0x100054B30, symSize: 0x30 }
  - { offset: 0x9EE88, size: 0x8, addend: 0x0, symName: __RNvXs1_NtNtNtCsieiGu2EXtoJ_4core5array4iter10iter_innerINtB5_15PolymorphicIterAINtNtNtBb_3mem12maybe_uninit11MaybeUninitbEj20_ENtNtNtBb_3ops4drop4Drop4dropCseYC8vFNOjrM_2cc, symObjAddr: 0x4D50, symBinAddr: 0x100054B60, symSize: 0x30 }
  - { offset: 0x9EF5C, size: 0x8, addend: 0x0, symName: __RNvXsb_NtCsieiGu2EXtoJ_4core5arrayRARej2_NtNtNtNtB7_4iter6traits7collect12IntoIterator9into_iterCseYC8vFNOjrM_2cc, symObjAddr: 0x53D0, symBinAddr: 0x1000551E0, symSize: 0x60 }
  - { offset: 0x9F091, size: 0x8, addend: 0x0, symName: __RNvXsb_NtCsieiGu2EXtoJ_4core5arrayRARej5_NtNtNtNtB7_4iter6traits7collect12IntoIterator9into_iterCseYC8vFNOjrM_2cc, symObjAddr: 0x5430, symBinAddr: 0x100055240, symSize: 0x60 }
  - { offset: 0x9F1F3, size: 0x8, addend: 0x0, symName: __RNvXNtNtCsieiGu2EXtoJ_4core6future11into_futureNtNtNtCseYC8vFNOjrM_2cc8parallel14async_executor9YieldOnceNtB2_10IntoFuture11into_futureBP_, symObjAddr: 0x4C30, symBinAddr: 0x100054A40, symSize: 0x20 }
  - { offset: 0x9F277, size: 0x8, addend: 0x0, symName: __RNvYNtNvXsh_NtNtCslJiobkLta79_5alloc5boxed7convertINtBc_3BoxDNtNtCsieiGu2EXtoJ_4core5error5ErrorNtNtB11_6marker4SyncNtB1y_4SendEL_EINtNtB11_7convert4FromNtNtBe_6string6StringE4from11StringErrorBX_11descriptionCseYC8vFNOjrM_2cc, symObjAddr: 0x8240, symBinAddr: 0x100057E70, symSize: 0x20 }
  - { offset: 0x9F2AC, size: 0x8, addend: 0x0, symName: __RNvYNtNvXsh_NtNtCslJiobkLta79_5alloc5boxed7convertINtBc_3BoxDNtNtCsieiGu2EXtoJ_4core5error5ErrorNtNtB11_6marker4SyncNtB1y_4SendEL_EINtNtB11_7convert4FromNtNtBe_6string6StringE4from11StringErrorBX_5causeCseYC8vFNOjrM_2cc, symObjAddr: 0x8260, symBinAddr: 0x100057E90, symSize: 0x20 }
  - { offset: 0x9F2E1, size: 0x8, addend: 0x0, symName: __RNvYNtNvXsh_NtNtCslJiobkLta79_5alloc5boxed7convertINtBc_3BoxDNtNtCsieiGu2EXtoJ_4core5error5ErrorNtNtB11_6marker4SyncNtB1y_4SendEL_EINtNtB11_7convert4FromNtNtBe_6string6StringE4from11StringErrorBX_6sourceCseYC8vFNOjrM_2cc, symObjAddr: 0x8280, symBinAddr: 0x100057EB0, symSize: 0x20 }
  - { offset: 0x9F316, size: 0x8, addend: 0x0, symName: __RNvYNtNvXsh_NtNtCslJiobkLta79_5alloc5boxed7convertINtBc_3BoxDNtNtCsieiGu2EXtoJ_4core5error5ErrorNtNtB11_6marker4SyncNtB1y_4SendEL_EINtNtB11_7convert4FromNtNtBe_6string6StringE4from11StringErrorBX_7provideCseYC8vFNOjrM_2cc, symObjAddr: 0x82A0, symBinAddr: 0x100057ED0, symSize: 0x20 }
  - { offset: 0x9F355, size: 0x8, addend: 0x0, symName: __RNvYNtNvXsh_NtNtCslJiobkLta79_5alloc5boxed7convertINtBc_3BoxDNtNtCsieiGu2EXtoJ_4core5error5ErrorNtNtB11_6marker4SyncNtB1y_4SendEL_EINtNtB11_7convert4FromNtNtBe_6string6StringE4from11StringErrorBX_7type_idCseYC8vFNOjrM_2cc, symObjAddr: 0x82C0, symBinAddr: 0x100057EF0, symSize: 0x30 }
  - { offset: 0x9F7AE, size: 0x8, addend: 0x0, symName: __RNvXs5_CslzRnRZxZnvp_9jobserverNtB5_6ClientNtNtCsieiGu2EXtoJ_4core5clone5Clone5cloneCseYC8vFNOjrM_2cc, symObjAddr: 0x4DF0, symBinAddr: 0x100054C00, symSize: 0x20 }
  - { offset: 0x9F7E0, size: 0x8, addend: 0x0, symName: __RNvXs8_CslzRnRZxZnvp_9jobserverNtB5_11HelperStateNtNtCsieiGu2EXtoJ_4core7default7Default7defaultCseYC8vFNOjrM_2cc, symObjAddr: 0x4E10, symBinAddr: 0x100054C20, symSize: 0x90 }
  - { offset: 0x9F803, size: 0x8, addend: 0x0, symName: __RNvXsa_CslzRnRZxZnvp_9jobserverNtB5_11HelperInnerNtNtCsieiGu2EXtoJ_4core7default7Default7defaultCseYC8vFNOjrM_2cc, symObjAddr: 0x53B0, symBinAddr: 0x1000551C0, symSize: 0x20 }
  - { offset: 0x9FE92, size: 0x8, addend: 0x0, symName: __RNCINvNtNtCslJiobkLta79_5alloc3vec16in_place_collect24write_in_place_with_dropNtNtCsHUR1vrdMJt_3std4path7PathBufE0CseYC8vFNOjrM_2cc, symObjAddr: 0x3600, symBinAddr: 0x100053410, symSize: 0x50 }
  - { offset: 0xA065C, size: 0x8, addend: 0x0, symName: __RINvMs3_NtCslJiobkLta79_5alloc3stre7replaceAcj2_ECseYC8vFNOjrM_2cc, symObjAddr: 0x1540, symBinAddr: 0x1000516B0, symSize: 0x920 }
  - { offset: 0xA111F, size: 0x8, addend: 0x0, symName: __RINvMs3_NtCslJiobkLta79_5alloc3stre7replaceReECseYC8vFNOjrM_2cc, symObjAddr: 0x1E60, symBinAddr: 0x100051FD0, symSize: 0x910 }
  - { offset: 0xA1C4B, size: 0x8, addend: 0x0, symName: __RNCNvNtCslJiobkLta79_5alloc3str13replace_ascii0CseYC8vFNOjrM_2cc, symObjAddr: 0x3650, symBinAddr: 0x100053460, symSize: 0x40 }
  - { offset: 0xA1CEA, size: 0x8, addend: 0x0, symName: __RNvXs2_NtCslJiobkLta79_5alloc3streNtNtB7_6borrow7ToOwned8to_ownedCseYC8vFNOjrM_2cc, symObjAddr: 0x4D80, symBinAddr: 0x100054B90, symSize: 0x50 }
  - { offset: 0xA2371, size: 0x8, addend: 0x0, symName: __RINvMNtCsieiGu2EXtoJ_4core6resultINtB3_6ResultINtNtCslJiobkLta79_5alloc3vec3VechENtCseYC8vFNOjrM_2cc5ErrorE3mapbNCNvNvMNtB1j_4toolNtB1T_4Tool13with_features9is_zig_cc0EB1j_, symObjAddr: 0x940, symBinAddr: 0x100050B50, symSize: 0xE0 }
  - { offset: 0xA2419, size: 0x8, addend: 0x0, symName: __RINvMNtCsieiGu2EXtoJ_4core6resultINtB3_6ResultINtNtCslJiobkLta79_5alloc5boxed3BoxeENtCseYC8vFNOjrM_2cc5ErrorE14unwrap_or_elseNCNvMNtNtB1l_6target6parserNtB24_21TargetInfoParserInner32from_cargo_environment_variabless5_0EB1l_, symObjAddr: 0xA20, symBinAddr: 0x100050C30, symSize: 0xB0 }
  - { offset: 0xA24C9, size: 0x8, addend: 0x0, symName: __RINvMNtCsieiGu2EXtoJ_4core6resultINtB3_6ResultINtNtNtNtCsHUR1vrdMJt_3std4sync6poison5mutex10MutexGuardbEINtBN_11PoisonErrorBI_EE14unwrap_or_elseNvMs2_BN_B1E_10into_innerECseYC8vFNOjrM_2cc, symObjAddr: 0xAD0, symBinAddr: 0x100050CE0, symSize: 0x70 }
  - { offset: 0xA2687, size: 0x8, addend: 0x0, symName: __RINvMNtCsieiGu2EXtoJ_4core6resultINtB3_6ResultNtNtCsHUR1vrdMJt_3std7process6OutputNtNtNtBM_2io5error5ErrorE7map_errNtCseYC8vFNOjrM_2cc5ErrorNCNvNtB1R_15command_helpers25spawn_and_wait_for_output0EB1R_, symObjAddr: 0xB40, symBinAddr: 0x100050D50, symSize: 0xD0 }
  - { offset: 0xA275C, size: 0x8, addend: 0x0, symName: __RINvMNtCsieiGu2EXtoJ_4core6resultINtB3_6ResultNtNtCseYC8vFNOjrM_2cc4tool10ToolFamilyNtBM_5ErrorE14unwrap_or_elseNCNvMBK_NtBK_4Tool13with_featuress_0EBM_, symObjAddr: 0xC10, symBinAddr: 0x100050E20, symSize: 0xD0 }
  - { offset: 0xA2813, size: 0x8, addend: 0x0, symName: __RINvMNtCsieiGu2EXtoJ_4core6resultINtB3_6ResultNtNtCseYC8vFNOjrM_2cc8tempfile13NamedTempfileNtNtNtCsHUR1vrdMJt_3std2io5error5ErrorE7map_errNtBM_5ErrorNCNvNvMNtBM_4toolNtB2u_4Tool13with_features19detect_family_inners0_0EBM_, symObjAddr: 0xCE0, symBinAddr: 0x100050EF0, symSize: 0xE0 }
  - { offset: 0xA28BF, size: 0x8, addend: 0x0, symName: __RINvMNtCsieiGu2EXtoJ_4core6resultINtB3_6ResultNtNtCslJiobkLta79_5alloc6string6StringNtCseYC8vFNOjrM_2cc5ErrorE3mapINtNtBM_6borrow3CoweENcNtB1O_5Owned0EB1m_, symObjAddr: 0xE60, symBinAddr: 0x100050FD0, symSize: 0x100 }
  - { offset: 0xA2953, size: 0x8, addend: 0x0, symName: __RINvMNtCsieiGu2EXtoJ_4core6resultINtB3_6ResultNtNtCslJiobkLta79_5alloc6string6StringNtNtCsHUR1vrdMJt_3std3env8VarErrorE7map_errNtCseYC8vFNOjrM_2cc5ErrorNCNvMNtNtB23_6target6parserNtB2v_21TargetInfoParserInner32from_cargo_environment_variables0EB23_, symObjAddr: 0xF60, symBinAddr: 0x1000510D0, symSize: 0xF0 }
  - { offset: 0xA29E8, size: 0x8, addend: 0x0, symName: __RINvMNtCsieiGu2EXtoJ_4core6resultINtB3_6ResultuNtNtNtCsHUR1vrdMJt_3std2io5error5ErrorE7map_errNtCseYC8vFNOjrM_2cc5ErrorNCNvNvMNtB1w_4toolNtB20_4Tool13with_features19detect_family_inners_0EB1w_, symObjAddr: 0x1050, symBinAddr: 0x1000511C0, symSize: 0x90 }
  - { offset: 0xA2A87, size: 0x8, addend: 0x0, symName: __RINvMNtCsieiGu2EXtoJ_4core6resultINtB3_6ResultuNtNtNtCsHUR1vrdMJt_3std2io5error5ErrorE7or_elseBJ_NCNvMs4_CseYC8vFNOjrM_2ccNtB1F_5Build8assembles_0EB1F_, symObjAddr: 0x10E0, symBinAddr: 0x100051250, symSize: 0x70 }
  - { offset: 0xA2B19, size: 0x8, addend: 0x0, symName: __RINvMNtCsieiGu2EXtoJ_4core6resultINtB3_6ResultyNtNtNtCsHUR1vrdMJt_3std2io5error5ErrorE3mapuNCNCNvMs4_CseYC8vFNOjrM_2ccNtB1B_5Build8assembles_00EB1B_, symObjAddr: 0x1150, symBinAddr: 0x1000512C0, symSize: 0x50 }
  - { offset: 0xA2C4E, size: 0x8, addend: 0x0, symName: __RINvMs0_CslzRnRZxZnvp_9jobserverNtB6_6Client18into_helper_threadNCNvMs_NtNtNtCseYC8vFNOjrM_2cc8parallel9job_token19inherited_jobserverNtB17_12HelperThread3new0EB1d_, symObjAddr: 0x11A0, symBinAddr: 0x100051310, symSize: 0x3A0 }
  - { offset: 0xA3883, size: 0x8, addend: 0x0, symName: __RNvMNtCsieiGu2EXtoJ_4core6resultINtB2_6ResultINtNtCslJiobkLta79_5alloc3vec3VechENtCseYC8vFNOjrM_2cc5ErrorE2okB1i_, symObjAddr: 0x3B70, symBinAddr: 0x100053980, symSize: 0xC0 }
  - { offset: 0xA38D7, size: 0x8, addend: 0x0, symName: __RNvMNtCsieiGu2EXtoJ_4core6resultINtB2_6ResultINtNtCslJiobkLta79_5alloc4sync3ArcNtNtNtCsHUR1vrdMJt_3std3ffi6os_str5OsStrENtCseYC8vFNOjrM_2cc5ErrorE2okB1W_, symObjAddr: 0x3C30, symBinAddr: 0x100053A40, symSize: 0x90 }
  - { offset: 0xA392B, size: 0x8, addend: 0x0, symName: __RNvMNtCsieiGu2EXtoJ_4core6resultINtB2_6ResultINtNtCslJiobkLta79_5alloc6borrow3CowNtNtCsHUR1vrdMJt_3std4path4PathENtCseYC8vFNOjrM_2cc5ErrorE2okB1P_, symObjAddr: 0x3CC0, symBinAddr: 0x100053AD0, symSize: 0xC0 }
  - { offset: 0xA3A76, size: 0x8, addend: 0x0, symName: __RNvMNtCsieiGu2EXtoJ_4core6resultINtB2_6ResultINtNtCslJiobkLta79_5alloc6borrow3CoweENtCseYC8vFNOjrM_2cc5ErrorE8as_derefB1l_, symObjAddr: 0x3D80, symBinAddr: 0x100053B90, symSize: 0xB0 }
  - { offset: 0xA3B5C, size: 0x8, addend: 0x0, symName: __RNvMNtCsieiGu2EXtoJ_4core6resultINtB2_6ResultINtNtNtB4_3num7nonzero7NonZerojENtNtNtCsHUR1vrdMJt_3std2io5error5ErrorE2okCseYC8vFNOjrM_2cc, symObjAddr: 0x3E30, symBinAddr: 0x100053C40, symSize: 0x50 }
  - { offset: 0xA3BAF, size: 0x8, addend: 0x0, symName: __RNvMNtCsieiGu2EXtoJ_4core6resultINtB2_6ResultINtNtNtNtCsHUR1vrdMJt_3std4sync6poison6rwlock15RwLockReadGuardINtNtNtNtBQ_11collections4hash3map7HashMapINtNtCslJiobkLta79_5alloc5boxed3BoxeEINtNtB2s_4sync3ArcNtNtNtBQ_3ffi6os_str5OsStrEEEINtBM_11PoisonErrorBH_EE6expectCseYC8vFNOjrM_2cc, symObjAddr: 0x3E80, symBinAddr: 0x100053C90, symSize: 0xA0 }
  - { offset: 0xA3C12, size: 0x8, addend: 0x0, symName: __RNvMNtCsieiGu2EXtoJ_4core6resultINtB2_6ResultINtNtNtNtCsHUR1vrdMJt_3std4sync6poison6rwlock15RwLockReadGuardINtNtNtNtBQ_11collections4hash3map7HashMapINtNtCslJiobkLta79_5alloc5boxed3BoxeEINtNtB2s_4sync3ArceEEEINtBM_11PoisonErrorBH_EE6expectCseYC8vFNOjrM_2cc, symObjAddr: 0x3F20, symBinAddr: 0x100053D30, symSize: 0xA0 }
  - { offset: 0xA3C75, size: 0x8, addend: 0x0, symName: __RNvMNtCsieiGu2EXtoJ_4core6resultINtB2_6ResultINtNtNtNtCsHUR1vrdMJt_3std4sync6poison6rwlock16RwLockWriteGuardINtNtNtNtBQ_11collections4hash3map7HashMapINtNtCslJiobkLta79_5alloc5boxed3BoxeEINtNtB2t_4sync3ArcNtNtNtBQ_3ffi6os_str5OsStrEEEINtBM_11PoisonErrorBH_EE6expectCseYC8vFNOjrM_2cc, symObjAddr: 0x3FC0, symBinAddr: 0x100053DD0, symSize: 0xA0 }
  - { offset: 0xA3CD8, size: 0x8, addend: 0x0, symName: __RNvMNtCsieiGu2EXtoJ_4core6resultINtB2_6ResultINtNtNtNtCsHUR1vrdMJt_3std4sync6poison6rwlock16RwLockWriteGuardINtNtNtNtBQ_11collections4hash3map7HashMapINtNtCslJiobkLta79_5alloc5boxed3BoxeEINtNtB2t_4sync3ArceEEEINtBM_11PoisonErrorBH_EE6expectCseYC8vFNOjrM_2cc, symObjAddr: 0x4060, symBinAddr: 0x100053E70, symSize: 0xA0 }
  - { offset: 0xA3D3B, size: 0x8, addend: 0x0, symName: __RNvMNtCsieiGu2EXtoJ_4core6resultINtB2_6ResultNtNtCsHUR1vrdMJt_3std7process10ExitStatusNtNtNtBL_2io5error5ErrorE2okCseYC8vFNOjrM_2cc, symObjAddr: 0x4100, symBinAddr: 0x100053F10, symSize: 0x60 }
  - { offset: 0xA3D9C, size: 0x8, addend: 0x0, symName: __RNvMNtCsieiGu2EXtoJ_4core6resultINtB2_6ResultNtNtCsHUR1vrdMJt_3std7process6OutputNtNtNtBL_2io5error5ErrorE5is_okCseYC8vFNOjrM_2cc, symObjAddr: 0x4160, symBinAddr: 0x100053F70, symSize: 0x30 }
  - { offset: 0xA3DEF, size: 0x8, addend: 0x0, symName: __RNvMNtCsieiGu2EXtoJ_4core6resultINtB2_6ResultNtNtCseYC8vFNOjrM_2cc4tool4ToolNtBL_5ErrorE2okBL_, symObjAddr: 0x4190, symBinAddr: 0x100053FA0, symSize: 0xD0 }
  - { offset: 0xA3E44, size: 0x8, addend: 0x0, symName: __RNvMNtCsieiGu2EXtoJ_4core6resultINtB2_6ResultNtNtCseYC8vFNOjrM_2cc6target10TargetInfoNtBL_5ErrorE2okBL_, symObjAddr: 0x4260, symBinAddr: 0x100054070, symSize: 0xA0 }
  - { offset: 0xA3E99, size: 0x8, addend: 0x0, symName: __RNvMNtCsieiGu2EXtoJ_4core6resultINtB2_6ResultNtNtCslJiobkLta79_5alloc6string6StringNtCseYC8vFNOjrM_2cc5ErrorE2okB1l_, symObjAddr: 0x4300, symBinAddr: 0x100054110, symSize: 0xC0 }
  - { offset: 0xA3EED, size: 0x8, addend: 0x0, symName: __RNvMNtCsieiGu2EXtoJ_4core6resultINtB2_6ResultNtNtCslJiobkLta79_5alloc6string6StringNtNtCsHUR1vrdMJt_3std3env8VarErrorE2okCseYC8vFNOjrM_2cc, symObjAddr: 0x43C0, symBinAddr: 0x1000541D0, symSize: 0x90 }
  - { offset: 0xA3F41, size: 0x8, addend: 0x0, symName: __RNvMNtCsieiGu2EXtoJ_4core6resultINtB2_6ResultReNtNtNtB4_3str5error9Utf8ErrorE2okCseYC8vFNOjrM_2cc, symObjAddr: 0x4450, symBinAddr: 0x100054260, symSize: 0x50 }
  - { offset: 0xA3F95, size: 0x8, addend: 0x0, symName: __RNvMNtCsieiGu2EXtoJ_4core6resultINtB2_6ResultReRNtCseYC8vFNOjrM_2cc5ErrorE17unwrap_or_defaultBM_, symObjAddr: 0x44A0, symBinAddr: 0x1000542B0, symSize: 0xD0 }
  - { offset: 0xA3FE9, size: 0x8, addend: 0x0, symName: __RNvMNtCsieiGu2EXtoJ_4core6resultINtB2_6ResultbNtCseYC8vFNOjrM_2cc5ErrorE17unwrap_or_defaultBK_, symObjAddr: 0x4570, symBinAddr: 0x100054380, symSize: 0x90 }
  - { offset: 0xA4052, size: 0x8, addend: 0x0, symName: __RNvMNtCsieiGu2EXtoJ_4core6resultINtB2_6ResultbNtCseYC8vFNOjrM_2cc5ErrorE9unwrap_orBK_, symObjAddr: 0x4600, symBinAddr: 0x100054410, symSize: 0x90 }
  - { offset: 0xA40C2, size: 0x8, addend: 0x0, symName: __RNvMNtCsieiGu2EXtoJ_4core6resultINtB2_6ResultbbE5is_okCseYC8vFNOjrM_2cc, symObjAddr: 0x4690, symBinAddr: 0x1000544A0, symSize: 0x20 }
  - { offset: 0xA40F7, size: 0x8, addend: 0x0, symName: __RNvMNtCsieiGu2EXtoJ_4core6resultINtB2_6ResultmNtNtNtB4_3num5error13ParseIntErrorE2okCseYC8vFNOjrM_2cc, symObjAddr: 0x46B0, symBinAddr: 0x1000544C0, symSize: 0x60 }
  - { offset: 0xA414A, size: 0x8, addend: 0x0, symName: __RNvMNtCsieiGu2EXtoJ_4core6resultINtB2_6ResultmNtNtNtB4_3num5error13ParseIntErrorE6expectCseYC8vFNOjrM_2cc, symObjAddr: 0x4710, symBinAddr: 0x100054520, symSize: 0x90 }
  - { offset: 0xA41B9, size: 0x8, addend: 0x0, symName: __RNvMNtCsieiGu2EXtoJ_4core6resultINtB2_6ResultmmE5is_okCseYC8vFNOjrM_2cc, symObjAddr: 0x47A0, symBinAddr: 0x1000545B0, symSize: 0x20 }
  - { offset: 0xA41FB, size: 0x8, addend: 0x0, symName: __RNvMNtCsieiGu2EXtoJ_4core6resultINtB2_6ResultuNtCseYC8vFNOjrM_2cc5ErrorE5is_okBK_, symObjAddr: 0x47C0, symBinAddr: 0x1000545D0, symSize: 0x30 }
  - { offset: 0xA4230, size: 0x8, addend: 0x0, symName: __RNvMNtCsieiGu2EXtoJ_4core6resultINtB2_6ResultuNtNtNtCsHUR1vrdMJt_3std2io5error5ErrorE2okCseYC8vFNOjrM_2cc, symObjAddr: 0x47F0, symBinAddr: 0x100054600, symSize: 0x60 }
  - { offset: 0xA43D3, size: 0x8, addend: 0x0, symName: __RNvMs6_NtNtNtCsieiGu2EXtoJ_4core5array4iter10iter_innerINtB5_15PolymorphicIterSINtNtNtBb_3mem12maybe_uninit11MaybeUninitReEE4nextCseYC8vFNOjrM_2cc, symObjAddr: 0x4850, symBinAddr: 0x100054660, symSize: 0x1C0 }
  - { offset: 0xA4622, size: 0x8, addend: 0x0, symName: __RNvMs7_NtCsieiGu2EXtoJ_4core4cellINtB5_4CellINtNtCslJiobkLta79_5alloc3vec3VecTNtNtCsHUR1vrdMJt_3std7process7CommandNtNtNtCseYC8vFNOjrM_2cc8parallel14command_runner10KillOnDropNtNtB1T_9job_token8JobTokenEEE3newB1V_, symObjAddr: 0x4A10, symBinAddr: 0x100054820, symSize: 0x40 }
  - { offset: 0xA468B, size: 0x8, addend: 0x0, symName: __RNvMs7_NtCsieiGu2EXtoJ_4core4cellINtB5_4CellINtNtCslJiobkLta79_5alloc3vec3VecTNtNtCsHUR1vrdMJt_3std7process7CommandNtNtNtCseYC8vFNOjrM_2cc8parallel14command_runner10KillOnDropNtNtB1T_9job_token8JobTokenEEE3setB1V_, symObjAddr: 0x4A50, symBinAddr: 0x100054860, symSize: 0x50 }
  - { offset: 0xA4712, size: 0x8, addend: 0x0, symName: __RNvMs7_NtCsieiGu2EXtoJ_4core4cellINtB5_4CellbE3newCseYC8vFNOjrM_2cc, symObjAddr: 0x4AA0, symBinAddr: 0x1000548B0, symSize: 0x20 }
  - { offset: 0xA477B, size: 0x8, addend: 0x0, symName: __RNvMs7_NtCsieiGu2EXtoJ_4core4cellINtB5_4CellbE3setCseYC8vFNOjrM_2cc, symObjAddr: 0x4AC0, symBinAddr: 0x1000548D0, symSize: 0x20 }
  - { offset: 0xA47F1, size: 0x8, addend: 0x0, symName: __RNvMs8_NtCsieiGu2EXtoJ_4core4cellINtB5_4CellbE3getCseYC8vFNOjrM_2cc, symObjAddr: 0x4AE0, symBinAddr: 0x1000548F0, symSize: 0x10 }
  - { offset: 0xA4845, size: 0x8, addend: 0x0, symName: __RNvMsa_NtCsieiGu2EXtoJ_4core4cellINtB5_4CellINtNtCslJiobkLta79_5alloc3vec3VecTNtNtCsHUR1vrdMJt_3std7process7CommandNtNtNtCseYC8vFNOjrM_2cc8parallel14command_runner10KillOnDropNtNtB1T_9job_token8JobTokenEEE4takeB1V_, symObjAddr: 0x4AF0, symBinAddr: 0x100054900, symSize: 0x60 }
  - { offset: 0xA48AC, size: 0x8, addend: 0x0, symName: __RNvMsd_NtNtCsieiGu2EXtoJ_4core3num7nonzeroINtB5_7NonZerojE3getCseYC8vFNOjrM_2cc, symObjAddr: 0x4B50, symBinAddr: 0x100054960, symSize: 0x10 }
  - { offset: 0xA4EFC, size: 0x8, addend: 0x0, symName: __RINvMs1_NtCsjK30CmJ87bX_9hashbrown3mapINtB6_7HashMapINtNtCslJiobkLta79_5alloc5boxed3BoxSIBP_NtNtNtCsHUR1vrdMJt_3std3ffi6os_str5OsStrEENtNtCseYC8vFNOjrM_2cc4tool10ToolFamilyNtNtNtB1y_4hash6random11RandomStateE9get_innerBO_EB2c_, symObjAddr: 0x0, symBinAddr: 0x100057F20, symSize: 0xF0 }
  - { offset: 0xA50D7, size: 0x8, addend: 0x0, symName: __RNvXs5_NtNtCsieiGu2EXtoJ_4core3num5errorNtB5_15TryFromIntErrorNtNtB9_3fmt5Debug3fmtCseYC8vFNOjrM_2cc, symObjAddr: 0x4000, symBinAddr: 0x10005BE00, symSize: 0x50 }
  - { offset: 0xA5117, size: 0x8, addend: 0x0, symName: __RNvXsb_NtNtCsieiGu2EXtoJ_4core3num5errorNtB5_13ParseIntErrorNtNtB9_3fmt5Debug3fmtCseYC8vFNOjrM_2cc, symObjAddr: 0x5230, symBinAddr: 0x10005D030, symSize: 0x60 }
  - { offset: 0xA51C7, size: 0x8, addend: 0x0, symName: __RNvMs6_NtCsieiGu2EXtoJ_4core3numm11checked_subCseYC8vFNOjrM_2cc, symObjAddr: 0x28E0, symBinAddr: 0x10005A700, symSize: 0x50 }
  - { offset: 0xA5204, size: 0x8, addend: 0x0, symName: __RNvMs6_NtCsieiGu2EXtoJ_4core3numm3powCseYC8vFNOjrM_2cc, symObjAddr: 0x2930, symBinAddr: 0x10005A750, symSize: 0x140 }
  - { offset: 0xA5352, size: 0x8, addend: 0x0, symName: __RNvNvMs6_NtCsieiGu2EXtoJ_4core3numm13unchecked_add18precondition_checkCseYC8vFNOjrM_2cc, symObjAddr: 0x3B40, symBinAddr: 0x10005B960, symSize: 0xA0 }
  - { offset: 0xA5427, size: 0x8, addend: 0x0, symName: __RNvMsA_NtCsieiGu2EXtoJ_4core3numm16from_ascii_radixCseYC8vFNOjrM_2cc, symObjAddr: 0x2A70, symBinAddr: 0x10005A890, symSize: 0x640 }
  - { offset: 0xA576A, size: 0x8, addend: 0x0, symName: __RNvNvMs9_NtCsieiGu2EXtoJ_4core3numj13unchecked_add18precondition_checkCseYC8vFNOjrM_2cc, symObjAddr: 0x3BE0, symBinAddr: 0x10005BA00, symSize: 0xA0 }
  - { offset: 0xA5828, size: 0x8, addend: 0x0, symName: __RNvNvMs9_NtCsieiGu2EXtoJ_4core3numj13unchecked_mul18precondition_checkCseYC8vFNOjrM_2cc, symObjAddr: 0x3C80, symBinAddr: 0x10005BAA0, symSize: 0xA0 }
  - { offset: 0xA58E0, size: 0x8, addend: 0x0, symName: __RNvNvMs3_NtCsieiGu2EXtoJ_4core3numi13unchecked_neg18precondition_checkCseYC8vFNOjrM_2cc, symObjAddr: 0x3A90, symBinAddr: 0x10005B8B0, symSize: 0xB0 }
  - { offset: 0xA597D, size: 0x8, addend: 0x0, symName: __RNvXsz_NtCsieiGu2EXtoJ_4core3nummNtNtNtB7_3str6traits7FromStr8from_strCseYC8vFNOjrM_2cc, symObjAddr: 0x5730, symBinAddr: 0x10005D530, symSize: 0x40 }
  - { offset: 0xA8C9E, size: 0x8, addend: 0x0, symName: __RNCINvNvXs_NtNtNtCsieiGu2EXtoJ_4core4iter8adapters9enumerateINtB9_9EnumeratepENtNtNtBd_6traits8iterator8Iterator8try_fold9enumerateRNtNtNtNtCsHUR1vrdMJt_3std4sync4mpmc5waker5EntryuINtNtNtBf_3ops12control_flow11ControlFlowTjB25_EENCINvNvB1e_4find5checkB3x_NCNvMB28_NtB28_5Waker10unregister0E0E0CseYC8vFNOjrM_2cc, symObjAddr: 0x1AC0, symBinAddr: 0x1000598E0, symSize: 0xA0 }
  - { offset: 0xA8D35, size: 0x8, addend: 0x0, symName: __RNvXs_NtNtNtCsieiGu2EXtoJ_4core4iter8adapters9enumerateINtB4_9EnumerateINtNtNtBa_5slice4iter4IterINtNtCslJiobkLta79_5alloc4sync3ArcNtNtNtCsHUR1vrdMJt_3std3ffi6os_str5OsStrEEENtNtNtB8_6traits8iterator8Iterator4nextCseYC8vFNOjrM_2cc, symObjAddr: 0x4EB0, symBinAddr: 0x10005CCB0, symSize: 0xE0 }
  - { offset: 0xA8E1B, size: 0x8, addend: 0x0, symName: __RNvXs_NtNtNtCsieiGu2EXtoJ_4core4iter8adapters9enumerateINtB4_9EnumerateINtNtNtBa_5slice4iter4IterNtNtCslJiobkLta79_5alloc6string6StringEENtNtNtB8_6traits8iterator8Iterator4nextCseYC8vFNOjrM_2cc, symObjAddr: 0x4F90, symBinAddr: 0x10005CD90, symSize: 0xE0 }
  - { offset: 0xA8F01, size: 0x8, addend: 0x0, symName: __RNvXs_NtNtNtCsieiGu2EXtoJ_4core4iter8adapters9enumerateINtB4_9EnumerateINtNtNtBa_5slice4iter4IterNtNtNtCsHUR1vrdMJt_3std3ffi6os_str8OsStringEENtNtNtB8_6traits8iterator8Iterator4nextCseYC8vFNOjrM_2cc, symObjAddr: 0x5070, symBinAddr: 0x10005CE70, symSize: 0xE0 }
  - { offset: 0xA8FE7, size: 0x8, addend: 0x0, symName: __RNvXs_NtNtNtCsieiGu2EXtoJ_4core4iter8adapters9enumerateINtB4_9EnumerateINtNtNtBa_5slice4iter4IterTNtNtNtCsHUR1vrdMJt_3std3ffi6os_str8OsStringB1y_EEENtNtNtB8_6traits8iterator8Iterator4nextCseYC8vFNOjrM_2cc, symObjAddr: 0x5150, symBinAddr: 0x10005CF50, symSize: 0xE0 }
  - { offset: 0xA9187, size: 0x8, addend: 0x0, symName: __RNvXNtNtNtCsieiGu2EXtoJ_4core4iter6traits7collectINtNtNtB6_8adapters9enumerate9EnumerateINtNtNtB8_5slice4iter4IterINtNtCslJiobkLta79_5alloc4sync3ArcNtNtNtCsHUR1vrdMJt_3std3ffi6os_str5OsStrEEENtB2_12IntoIterator9into_iterCseYC8vFNOjrM_2cc, symObjAddr: 0x3DA0, symBinAddr: 0x10005BBC0, symSize: 0x20 }
  - { offset: 0xA9392, size: 0x8, addend: 0x0, symName: __RNvXs_NtNtCsieiGu2EXtoJ_4core5slice4iterRSINtNtCslJiobkLta79_5alloc4sync3ArcNtNtCsHUR1vrdMJt_3std4path4PathENtNtNtNtB8_4iter6traits7collect12IntoIterator9into_iterCseYC8vFNOjrM_2cc, symObjAddr: 0x4E60, symBinAddr: 0x10005CC60, symSize: 0x50 }
  - { offset: 0xA963F, size: 0x8, addend: 0x0, symName: __RNCNvXsL_NtNtCsieiGu2EXtoJ_4core5slice3cmpcNtB7_13SliceContains14slice_contains0CseYC8vFNOjrM_2cc, symObjAddr: 0x1BC0, symBinAddr: 0x1000599E0, symSize: 0x30 }
  - { offset: 0xA968E, size: 0x8, addend: 0x0, symName: __RNCNvXsL_NtNtCsieiGu2EXtoJ_4core5slice3cmpcNtB7_13SliceContains14slice_containss_0CseYC8vFNOjrM_2cc, symObjAddr: 0x1BF0, symBinAddr: 0x100059A10, symSize: 0x20 }
  - { offset: 0xA96CF, size: 0x8, addend: 0x0, symName: __RNvXsL_NtNtCsieiGu2EXtoJ_4core5slice3cmpcNtB5_13SliceContains14slice_containsCseYC8vFNOjrM_2cc, symObjAddr: 0x4B00, symBinAddr: 0x10005C900, symSize: 0x190 }
  - { offset: 0xA999D, size: 0x8, addend: 0x0, symName: __RNCNvXsf_NtNtCsieiGu2EXtoJ_4core5slice3cmpNtNtNtCsHUR1vrdMJt_3std3ffi6os_str8OsStringNtB7_13SliceContains14slice_contains0CseYC8vFNOjrM_2cc, symObjAddr: 0x1C10, symBinAddr: 0x100059A30, symSize: 0x30 }
  - { offset: 0xA99E6, size: 0x8, addend: 0x0, symName: __RNCNvXsf_NtNtCsieiGu2EXtoJ_4core5slice3cmpReNtB7_13SliceContains14slice_contains0CseYC8vFNOjrM_2cc, symObjAddr: 0x1C40, symBinAddr: 0x100059A60, symSize: 0x30 }
  - { offset: 0xA9A30, size: 0x8, addend: 0x0, symName: __RNvXsf_NtNtCsieiGu2EXtoJ_4core5slice3cmpReNtB5_13SliceContains14slice_containsCseYC8vFNOjrM_2cc, symObjAddr: 0x5360, symBinAddr: 0x10005D160, symSize: 0x70 }
  - { offset: 0xA9B84, size: 0x8, addend: 0x0, symName: __RNvMNtCsieiGu2EXtoJ_4core5sliceSINtNtCslJiobkLta79_5alloc4sync3ArcNtNtCsHUR1vrdMJt_3std4path4PathE4iterCseYC8vFNOjrM_2cc, symObjAddr: 0x1C70, symBinAddr: 0x100059A90, symSize: 0x20 }
  - { offset: 0xA9BBB, size: 0x8, addend: 0x0, symName: __RNvMNtCsieiGu2EXtoJ_4core5sliceSINtNtCslJiobkLta79_5alloc4sync3ArcNtNtNtCsHUR1vrdMJt_3std3ffi6os_str5OsStrE4iterCseYC8vFNOjrM_2cc, symObjAddr: 0x1C90, symBinAddr: 0x100059AB0, symSize: 0x20 }
  - { offset: 0xA9BF2, size: 0x8, addend: 0x0, symName: __RNvMNtCsieiGu2EXtoJ_4core5sliceSTINtNtCslJiobkLta79_5alloc4sync3ArcNtNtNtCsHUR1vrdMJt_3std3ffi6os_str5OsStrEBv_E4iterCseYC8vFNOjrM_2cc, symObjAddr: 0x1CB0, symBinAddr: 0x100059AD0, symSize: 0x20 }
  - { offset: 0xA9C29, size: 0x8, addend: 0x0, symName: __RNvMNtCsieiGu2EXtoJ_4core5sliceSTINtNtCslJiobkLta79_5alloc4sync3ArceEINtNtB4_6option6OptionBv_EE4iterCseYC8vFNOjrM_2cc, symObjAddr: 0x1CD0, symBinAddr: 0x100059AF0, symSize: 0x20 }
  - { offset: 0xAA4E0, size: 0x8, addend: 0x0, symName: __RNvXs1_NtCsieiGu2EXtoJ_4core7convertNtNtCsHUR1vrdMJt_3std7process5StdioINtB5_4IntoBy_E4intoCseYC8vFNOjrM_2cc, symObjAddr: 0x3F80, symBinAddr: 0x10005BD80, symSize: 0x20 }
  - { offset: 0xAA556, size: 0x8, addend: 0x0, symName: __RNvXNtCsieiGu2EXtoJ_4core7convertRINtNtCslJiobkLta79_5alloc4sync3ArcNtNtNtCsHUR1vrdMJt_3std3ffi6os_str5OsStrEINtB2_5AsRefB14_E6as_refCseYC8vFNOjrM_2cc, symObjAddr: 0x3D80, symBinAddr: 0x10005BBA0, symSize: 0x20 }
  - { offset: 0xAA7D5, size: 0x8, addend: 0x0, symName: __RNvXs19_NtCsieiGu2EXtoJ_4core3fmtRNtNtCsHUR1vrdMJt_3std7process7CommandNtB6_5Debug3fmtCseYC8vFNOjrM_2cc, symObjAddr: 0x3F60, symBinAddr: 0x10005BD60, symSize: 0x20 }
  - { offset: 0xAA821, size: 0x8, addend: 0x0, symName: __RNvXs1a_NtCsieiGu2EXtoJ_4core3fmtQNtNtCsHUR1vrdMJt_3std7process7CommandNtB6_5Debug3fmtCseYC8vFNOjrM_2cc, symObjAddr: 0x3FA0, symBinAddr: 0x10005BDA0, symSize: 0x20 }
  - { offset: 0xAA86D, size: 0x8, addend: 0x0, symName: __RNvXs1b_NtCsieiGu2EXtoJ_4core3fmtRINtNtCslJiobkLta79_5alloc4sync3ArceENtB6_7Display3fmtCseYC8vFNOjrM_2cc, symObjAddr: 0x3FC0, symBinAddr: 0x10005BDC0, symSize: 0x20 }
  - { offset: 0xAB162, size: 0x8, addend: 0x0, symName: __RNvXst_NtNtCsHUR1vrdMJt_3std3ffi6os_strINtNtCslJiobkLta79_5alloc4sync3ArcNtB5_5OsStrEINtNtCsieiGu2EXtoJ_4core7convert4FromNtB5_8OsStringE4fromCseYC8vFNOjrM_2cc, symObjAddr: 0x5610, symBinAddr: 0x10005D410, symSize: 0x90 }
  - { offset: 0xAB206, size: 0x8, addend: 0x0, symName: __RNvXsu_NtNtCsHUR1vrdMJt_3std3ffi6os_strINtNtCslJiobkLta79_5alloc4sync3ArcNtB5_5OsStrEINtNtCsieiGu2EXtoJ_4core7convert4FromRB19_E4fromCseYC8vFNOjrM_2cc, symObjAddr: 0x56A0, symBinAddr: 0x10005D4A0, symSize: 0x90 }
  - { offset: 0xAB3D3, size: 0x8, addend: 0x0, symName: __RNvXsQ_NtCsHUR1vrdMJt_3std4pathINtNtCslJiobkLta79_5alloc4sync3ArcNtB5_4PathEINtNtCsieiGu2EXtoJ_4core7convert4FromRB11_E4fromCseYC8vFNOjrM_2cc, symObjAddr: 0x4C90, symBinAddr: 0x10005CA90, symSize: 0x50 }
  - { offset: 0xAB4DE, size: 0x8, addend: 0x0, symName: __RNvXs6_NtNtNtCsHUR1vrdMJt_3std2os4unix7processNtNtBb_7process11ChildStderrNtNtNtB9_2fd3raw7AsRawFd9as_raw_fdCseYC8vFNOjrM_2cc, symObjAddr: 0x4050, symBinAddr: 0x10005BE50, symSize: 0x10 }
  - { offset: 0xABA29, size: 0x8, addend: 0x0, symName: __RNCNvMsd_NtNtCsHUR1vrdMJt_3std4sync14reentrant_lockNtB7_3Tid3set0CseYC8vFNOjrM_2cc, symObjAddr: 0x1B60, symBinAddr: 0x100059980, symSize: 0x10 }
  - { offset: 0xABA98, size: 0x8, addend: 0x0, symName: __RNvXsc_NtNtCsHUR1vrdMJt_3std4sync14reentrant_lockINtB5_18ReentrantLockGuardINtNtCsieiGu2EXtoJ_4core4cell7RefCellINtNtNtNtB9_2io8buffered10linewriter10LineWriterNtNtB1T_5stdio9StdoutRawEEENtNtNtB1g_3ops4drop4Drop4dropCseYC8vFNOjrM_2cc, symObjAddr: 0x5290, symBinAddr: 0x10005D090, symSize: 0xD0 }
  - { offset: 0xAC90E, size: 0x8, addend: 0x0, symName: __RNCINvNtCsjK30CmJ87bX_9hashbrown3map14equivalent_keyINtNtCslJiobkLta79_5alloc5boxed3BoxSIBP_NtNtNtCsHUR1vrdMJt_3std3ffi6os_str5OsStrEEBO_NtNtCseYC8vFNOjrM_2cc4tool10ToolFamilyE0B2f_, symObjAddr: 0x1990, symBinAddr: 0x1000597B0, symSize: 0x20 }
  - { offset: 0xAC965, size: 0x8, addend: 0x0, symName: __RNCINvNtCsjK30CmJ87bX_9hashbrown3map14equivalent_keyINtNtCslJiobkLta79_5alloc5boxed3BoxeEBO_INtNtBT_4sync3ArcNtNtNtCsHUR1vrdMJt_3std3ffi6os_str5OsStrEE0CseYC8vFNOjrM_2cc, symObjAddr: 0x19B0, symBinAddr: 0x1000597D0, symSize: 0x20 }
  - { offset: 0xAC9BC, size: 0x8, addend: 0x0, symName: __RNCINvNtCsjK30CmJ87bX_9hashbrown3map14equivalent_keyINtNtCslJiobkLta79_5alloc5boxed3BoxeEBO_INtNtBT_4sync3ArceEE0CseYC8vFNOjrM_2cc, symObjAddr: 0x19D0, symBinAddr: 0x1000597F0, symSize: 0x20 }
  - { offset: 0xACA13, size: 0x8, addend: 0x0, symName: __RNCINvNtCsjK30CmJ87bX_9hashbrown3map14equivalent_keyINtNtCslJiobkLta79_5alloc5boxed3BoxeEBO_INtNtCsieiGu2EXtoJ_4core6option6OptionINtNtBT_4sync3ArcNtNtNtCsHUR1vrdMJt_3std3ffi6os_str5OsStrEEE0CseYC8vFNOjrM_2cc, symObjAddr: 0x19F0, symBinAddr: 0x100059810, symSize: 0x20 }
  - { offset: 0xACA6A, size: 0x8, addend: 0x0, symName: __RNCINvNtCsjK30CmJ87bX_9hashbrown3map14equivalent_keyNtCseYC8vFNOjrM_2cc12CompilerFlagBO_bE0BQ_, symObjAddr: 0x1A10, symBinAddr: 0x100059830, symSize: 0x20 }
  - { offset: 0xACAC1, size: 0x8, addend: 0x0, symName: __RNCINvNtCsjK30CmJ87bX_9hashbrown3map14equivalent_keyeINtNtCslJiobkLta79_5alloc5boxed3BoxeEINtNtBU_4sync3ArcNtNtNtCsHUR1vrdMJt_3std3ffi6os_str5OsStrEE0CseYC8vFNOjrM_2cc, symObjAddr: 0x1A30, symBinAddr: 0x100059850, symSize: 0x30 }
  - { offset: 0xACB18, size: 0x8, addend: 0x0, symName: __RNCINvNtCsjK30CmJ87bX_9hashbrown3map14equivalent_keyeINtNtCslJiobkLta79_5alloc5boxed3BoxeEINtNtBU_4sync3ArceEE0CseYC8vFNOjrM_2cc, symObjAddr: 0x1A60, symBinAddr: 0x100059880, symSize: 0x30 }
  - { offset: 0xACB6F, size: 0x8, addend: 0x0, symName: __RNCINvNtCsjK30CmJ87bX_9hashbrown3map14equivalent_keyeINtNtCslJiobkLta79_5alloc5boxed3BoxeEINtNtCsieiGu2EXtoJ_4core6option6OptionINtNtBU_4sync3ArcNtNtNtCsHUR1vrdMJt_3std3ffi6os_str5OsStrEEE0CseYC8vFNOjrM_2cc, symObjAddr: 0x1A90, symBinAddr: 0x1000598B0, symSize: 0x30 }
  - { offset: 0xAD3CB, size: 0x8, addend: 0x0, symName: __RNCINvNtCsjK30CmJ87bX_9hashbrown3map11make_hasherINtNtCslJiobkLta79_5alloc5boxed3BoxSIBM_NtNtNtCsHUR1vrdMJt_3std3ffi6os_str5OsStrEENtNtCseYC8vFNOjrM_2cc4tool10ToolFamilyNtNtNtB1v_4hash6random11RandomStateE0B29_, symObjAddr: 0x18A0, symBinAddr: 0x1000596C0, symSize: 0x30 }
  - { offset: 0xAD447, size: 0x8, addend: 0x0, symName: __RNCINvNtCsjK30CmJ87bX_9hashbrown3map11make_hasherINtNtCslJiobkLta79_5alloc5boxed3BoxeEINtNtBQ_4sync3ArcNtNtNtCsHUR1vrdMJt_3std3ffi6os_str5OsStrENtNtNtB1J_4hash6random11RandomStateE0CseYC8vFNOjrM_2cc, symObjAddr: 0x18D0, symBinAddr: 0x1000596F0, symSize: 0x30 }
  - { offset: 0xAD4C3, size: 0x8, addend: 0x0, symName: __RNCINvNtCsjK30CmJ87bX_9hashbrown3map11make_hasherINtNtCslJiobkLta79_5alloc5boxed3BoxeEINtNtBQ_4sync3ArceENtNtNtCsHUR1vrdMJt_3std4hash6random11RandomStateE0CseYC8vFNOjrM_2cc, symObjAddr: 0x1900, symBinAddr: 0x100059720, symSize: 0x30 }
  - { offset: 0xAD53F, size: 0x8, addend: 0x0, symName: __RNCINvNtCsjK30CmJ87bX_9hashbrown3map11make_hasherINtNtCslJiobkLta79_5alloc5boxed3BoxeEINtNtCsieiGu2EXtoJ_4core6option6OptionINtNtBQ_4sync3ArcNtNtNtCsHUR1vrdMJt_3std3ffi6os_str5OsStrEENtNtNtB2l_4hash6random11RandomStateE0CseYC8vFNOjrM_2cc, symObjAddr: 0x1930, symBinAddr: 0x100059750, symSize: 0x30 }
  - { offset: 0xAD5BB, size: 0x8, addend: 0x0, symName: __RNCINvNtCsjK30CmJ87bX_9hashbrown3map11make_hasherNtCseYC8vFNOjrM_2cc12CompilerFlagbNtNtNtCsHUR1vrdMJt_3std4hash6random11RandomStateE0BN_, symObjAddr: 0x1960, symBinAddr: 0x100059780, symSize: 0x30 }
  - { offset: 0xAD83F, size: 0x8, addend: 0x0, symName: __RNvXCsjK30CmJ87bX_9hashbrowneINtB2_10EquivalentINtNtCslJiobkLta79_5alloc5boxed3BoxeEE10equivalentCseYC8vFNOjrM_2cc, symObjAddr: 0x3D20, symBinAddr: 0x10005BB40, symSize: 0x60 }
  - { offset: 0xADEFF, size: 0x8, addend: 0x0, symName: __RNCNvMsm_NtCslJiobkLta79_5alloc4syncINtB7_3ArcShE18allocate_for_slice0CseYC8vFNOjrM_2cc, symObjAddr: 0x1B70, symBinAddr: 0x100059990, symSize: 0x30 }
  - { offset: 0xADF67, size: 0x8, addend: 0x0, symName: __RNCNvMsm_NtCslJiobkLta79_5alloc4syncINtB7_3ArcShE18allocate_for_slices_0CseYC8vFNOjrM_2cc, symObjAddr: 0x1BA0, symBinAddr: 0x1000599C0, symSize: 0x20 }
  - { offset: 0xAE57D, size: 0x8, addend: 0x0, symName: __RNvNtCslJiobkLta79_5alloc4sync17data_offset_alignCseYC8vFNOjrM_2cc, symObjAddr: 0x3960, symBinAddr: 0x10005B780, symSize: 0x130 }
  - { offset: 0xAE80B, size: 0x8, addend: 0x0, symName: __RNvXs14_NtCslJiobkLta79_5alloc4syncINtB6_3ArceEINtNtCsieiGu2EXtoJ_4core7convert4FromReE4fromCseYC8vFNOjrM_2cc, symObjAddr: 0x3DE0, symBinAddr: 0x10005BBE0, symSize: 0x50 }
  - { offset: 0xAE937, size: 0x8, addend: 0x0, symName: __RNvXs16_NtCslJiobkLta79_5alloc4syncINtB6_3ArceEINtNtCsieiGu2EXtoJ_4core7convert4FromNtNtB8_6string6StringE4fromCseYC8vFNOjrM_2cc, symObjAddr: 0x3E30, symBinAddr: 0x10005BC30, symSize: 0x130 }
  - { offset: 0xAEBEE, size: 0x8, addend: 0x0, symName: __RNvXss_NtCslJiobkLta79_5alloc4syncINtB5_3ArcNtCseYC8vFNOjrM_2cc10BuildCacheENtNtNtCsieiGu2EXtoJ_4core3ops5deref5Deref5derefBI_, symObjAddr: 0x5590, symBinAddr: 0x10005D390, symSize: 0x20 }
  - { offset: 0xAEC61, size: 0x8, addend: 0x0, symName: __RNvXss_NtCslJiobkLta79_5alloc4syncINtB5_3ArcNtNtCsHUR1vrdMJt_3std4path4PathENtNtNtCsieiGu2EXtoJ_4core3ops5deref5Deref5derefCseYC8vFNOjrM_2cc, symObjAddr: 0x55B0, symBinAddr: 0x10005D3B0, symSize: 0x20 }
  - { offset: 0xAECD4, size: 0x8, addend: 0x0, symName: __RNvXss_NtCslJiobkLta79_5alloc4syncINtB5_3ArcNtNtNtCsieiGu2EXtoJ_4core4sync6atomic10AtomicBoolENtNtNtBM_3ops5deref5Deref5derefCseYC8vFNOjrM_2cc, symObjAddr: 0x55D0, symBinAddr: 0x10005D3D0, symSize: 0x20 }
  - { offset: 0xAED47, size: 0x8, addend: 0x0, symName: __RNvXss_NtCslJiobkLta79_5alloc4syncINtB5_3ArceENtNtNtCsieiGu2EXtoJ_4core3ops5deref5Deref5derefCseYC8vFNOjrM_2cc, symObjAddr: 0x55F0, symBinAddr: 0x10005D3F0, symSize: 0x20 }
  - { offset: 0xAEDC0, size: 0x8, addend: 0x0, symName: __RNvXs1g_NtCslJiobkLta79_5alloc4syncINtB6_3ArcNtNtNtCsHUR1vrdMJt_3std3ffi6os_str5OsStrEINtNtCsieiGu2EXtoJ_4core7convert5AsRefBH_E6as_refCseYC8vFNOjrM_2cc, symObjAddr: 0x3FE0, symBinAddr: 0x10005BDE0, symSize: 0x20 }
  - { offset: 0xAEE57, size: 0x8, addend: 0x0, symName: __RNvXsA_NtCslJiobkLta79_5alloc4syncINtB5_3ArcNtCseYC8vFNOjrM_2cc10BuildCacheENtNtNtCsieiGu2EXtoJ_4core3ops4drop4Drop4dropBI_, symObjAddr: 0x4060, symBinAddr: 0x10005BE60, symSize: 0x80 }
  - { offset: 0xAEF8D, size: 0x8, addend: 0x0, symName: __RNvXsA_NtCslJiobkLta79_5alloc4syncINtB5_3ArcNtNtCsHUR1vrdMJt_3std4path4PathENtNtNtCsieiGu2EXtoJ_4core3ops4drop4Drop4dropCseYC8vFNOjrM_2cc, symObjAddr: 0x40E0, symBinAddr: 0x10005BEE0, symSize: 0x80 }
  - { offset: 0xAF0C3, size: 0x8, addend: 0x0, symName: __RNvXsA_NtCslJiobkLta79_5alloc4syncINtB5_3ArcNtNtNtCsieiGu2EXtoJ_4core4sync6atomic10AtomicBoolENtNtNtBM_3ops4drop4Drop4dropCseYC8vFNOjrM_2cc, symObjAddr: 0x4160, symBinAddr: 0x10005BF60, symSize: 0x80 }
  - { offset: 0xAF1F9, size: 0x8, addend: 0x0, symName: __RNvXsA_NtCslJiobkLta79_5alloc4syncINtB5_3ArcNtNtNtNtCsHUR1vrdMJt_3std4sync4mpmc7context5InnerENtNtNtCsieiGu2EXtoJ_4core3ops4drop4Drop4dropCseYC8vFNOjrM_2cc, symObjAddr: 0x41E0, symBinAddr: 0x10005BFE0, symSize: 0x80 }
  - { offset: 0xAF32F, size: 0x8, addend: 0x0, symName: __RNvXsA_NtCslJiobkLta79_5alloc4syncINtB5_3ArceENtNtNtCsieiGu2EXtoJ_4core3ops4drop4Drop4dropCseYC8vFNOjrM_2cc, symObjAddr: 0x4260, symBinAddr: 0x10005C060, symSize: 0x80 }
  - { offset: 0xAF4E7, size: 0x8, addend: 0x0, symName: __RNvXsK_NtCslJiobkLta79_5alloc4syncINtB5_4WeakNtCseYC8vFNOjrM_2cc10BuildCacheRNtNtB7_5alloc6GlobalENtNtNtCsieiGu2EXtoJ_4core3ops4drop4Drop4dropBJ_, symObjAddr: 0x42E0, symBinAddr: 0x10005C0E0, symSize: 0x180 }
  - { offset: 0xAF734, size: 0x8, addend: 0x0, symName: __RNvXsK_NtCslJiobkLta79_5alloc4syncINtB5_4WeakNtNtCsHUR1vrdMJt_3std4path4PathRNtNtB7_5alloc6GlobalENtNtNtCsieiGu2EXtoJ_4core3ops4drop4Drop4dropCseYC8vFNOjrM_2cc, symObjAddr: 0x4460, symBinAddr: 0x10005C260, symSize: 0x1E0 }
  - { offset: 0xAF981, size: 0x8, addend: 0x0, symName: __RNvXsK_NtCslJiobkLta79_5alloc4syncINtB5_4WeakNtNtNtCsieiGu2EXtoJ_4core4sync6atomic10AtomicBoolRNtNtB7_5alloc6GlobalENtNtNtBN_3ops4drop4Drop4dropCseYC8vFNOjrM_2cc, symObjAddr: 0x4640, symBinAddr: 0x10005C440, symSize: 0x180 }
  - { offset: 0xAFBCE, size: 0x8, addend: 0x0, symName: __RNvXsK_NtCslJiobkLta79_5alloc4syncINtB5_4WeakNtNtNtNtCsHUR1vrdMJt_3std4sync4mpmc7context5InnerRNtNtB7_5alloc6GlobalENtNtNtCsieiGu2EXtoJ_4core3ops4drop4Drop4dropCseYC8vFNOjrM_2cc, symObjAddr: 0x47C0, symBinAddr: 0x10005C5C0, symSize: 0x180 }
  - { offset: 0xAFE1B, size: 0x8, addend: 0x0, symName: __RNvXsK_NtCslJiobkLta79_5alloc4syncINtB5_4WeakeRNtNtB7_5alloc6GlobalENtNtNtCsieiGu2EXtoJ_4core3ops4drop4Drop4dropCseYC8vFNOjrM_2cc, symObjAddr: 0x4940, symBinAddr: 0x10005C740, symSize: 0x1C0 }
  - { offset: 0xB01DA, size: 0x8, addend: 0x0, symName: __RNvXsR_NtCslJiobkLta79_5alloc4syncINtB5_3ArceENtNtCsieiGu2EXtoJ_4core3fmt7Display3fmtCseYC8vFNOjrM_2cc, symObjAddr: 0x4CE0, symBinAddr: 0x10005CAE0, symSize: 0x30 }
  - { offset: 0xB0280, size: 0x8, addend: 0x0, symName: __RNvXsU_NtCslJiobkLta79_5alloc4syncINtB5_3ArcNtCseYC8vFNOjrM_2cc10BuildCacheENtNtCsieiGu2EXtoJ_4core7default7Default7defaultBI_, symObjAddr: 0x4D10, symBinAddr: 0x10005CB10, symSize: 0x150 }
  - { offset: 0xB0497, size: 0x8, addend: 0x0, symName: __RNvXsq_NtCslJiobkLta79_5alloc4syncINtB5_3ArcNtNtNtCsHUR1vrdMJt_3std3ffi6os_str5OsStrENtNtCsieiGu2EXtoJ_4core5clone5Clone5cloneCseYC8vFNOjrM_2cc, symObjAddr: 0x53D0, symBinAddr: 0x10005D1D0, symSize: 0xA0 }
  - { offset: 0xB058F, size: 0x8, addend: 0x0, symName: __RNvXsq_NtCslJiobkLta79_5alloc4syncINtB5_3ArcNtNtNtCsieiGu2EXtoJ_4core4sync6atomic10AtomicBoolENtNtBM_5clone5Clone5cloneCseYC8vFNOjrM_2cc, symObjAddr: 0x5470, symBinAddr: 0x10005D270, symSize: 0x80 }
  - { offset: 0xB0686, size: 0x8, addend: 0x0, symName: __RNvXsq_NtCslJiobkLta79_5alloc4syncINtB5_3ArceENtNtCsieiGu2EXtoJ_4core5clone5Clone5cloneCseYC8vFNOjrM_2cc, symObjAddr: 0x54F0, symBinAddr: 0x10005D2F0, symSize: 0xA0 }
  - { offset: 0xB105F, size: 0x8, addend: 0x0, symName: __RNvNtCslJiobkLta79_5alloc3fmt6formatCseYC8vFNOjrM_2cc, symObjAddr: 0x38A0, symBinAddr: 0x10005B6C0, symSize: 0xC0 }
  - { offset: 0xB123B, size: 0x8, addend: 0x0, symName: __RINvMs1_NtCsjK30CmJ87bX_9hashbrown3mapINtB6_7HashMapINtNtCslJiobkLta79_5alloc5boxed3BoxSIBP_NtNtNtCsHUR1vrdMJt_3std3ffi6os_str5OsStrEENtNtCseYC8vFNOjrM_2cc4tool10ToolFamilyNtNtNtB1y_4hash6random11RandomStateE9get_innerBO_EB2c_, symObjAddr: 0x0, symBinAddr: 0x100057F20, symSize: 0xF0 }
  - { offset: 0xB151B, size: 0x8, addend: 0x0, symName: __RINvMs1_NtCsjK30CmJ87bX_9hashbrown3mapINtB6_7HashMapINtNtCslJiobkLta79_5alloc5boxed3BoxeEINtNtBT_4sync3ArcNtNtNtCsHUR1vrdMJt_3std3ffi6os_str5OsStrENtNtNtB1M_4hash6random11RandomStateE9get_innereECseYC8vFNOjrM_2cc, symObjAddr: 0xF0, symBinAddr: 0x100058010, symSize: 0x120 }
  - { offset: 0xB17B6, size: 0x8, addend: 0x0, symName: __RINvMs1_NtCsjK30CmJ87bX_9hashbrown3mapINtB6_7HashMapINtNtCslJiobkLta79_5alloc5boxed3BoxeEINtNtBT_4sync3ArceENtNtNtCsHUR1vrdMJt_3std4hash6random11RandomStateE9get_innereECseYC8vFNOjrM_2cc, symObjAddr: 0x210, symBinAddr: 0x100058130, symSize: 0x120 }
  - { offset: 0xB1A2A, size: 0x8, addend: 0x0, symName: __RINvMs1_NtCsjK30CmJ87bX_9hashbrown3mapINtB6_7HashMapINtNtCslJiobkLta79_5alloc5boxed3BoxeEINtNtCsieiGu2EXtoJ_4core6option6OptionINtNtBT_4sync3ArcNtNtNtCsHUR1vrdMJt_3std3ffi6os_str5OsStrEENtNtNtB2o_4hash6random11RandomStateE9get_innereECseYC8vFNOjrM_2cc, symObjAddr: 0x330, symBinAddr: 0x100058250, symSize: 0x120 }
  - { offset: 0xB1CD2, size: 0x8, addend: 0x0, symName: __RINvMs1_NtCsjK30CmJ87bX_9hashbrown3mapINtB6_7HashMapNtCseYC8vFNOjrM_2cc12CompilerFlagbNtNtNtCsHUR1vrdMJt_3std4hash6random11RandomStateE9get_innerBO_EBQ_, symObjAddr: 0x450, symBinAddr: 0x100058370, symSize: 0xF0 }
  - { offset: 0xB1FBF, size: 0x8, addend: 0x0, symName: __RINvMsk_NtCsHUR1vrdMJt_3std7processNtB6_7Command10env_removeReECseYC8vFNOjrM_2cc, symObjAddr: 0x540, symBinAddr: 0x100058460, symSize: 0x70 }
  - { offset: 0xB2036, size: 0x8, addend: 0x0, symName: __RINvMsk_NtCsHUR1vrdMJt_3std7processNtB6_7Command11current_dirINtNtCslJiobkLta79_5alloc6borrow3CowNtNtB8_4path4PathEECseYC8vFNOjrM_2cc, symObjAddr: 0x5B0, symBinAddr: 0x1000584D0, symSize: 0x90 }
  - { offset: 0xB2072, size: 0x8, addend: 0x0, symName: __RINvMsk_NtCsHUR1vrdMJt_3std7processNtB6_7Command3argNtNtCslJiobkLta79_5alloc6string6StringECseYC8vFNOjrM_2cc, symObjAddr: 0x640, symBinAddr: 0x100058560, symSize: 0x80 }
  - { offset: 0xB20AE, size: 0x8, addend: 0x0, symName: __RINvMsk_NtCsHUR1vrdMJt_3std7processNtB6_7Command3argNtNtNtB8_3ffi6os_str8OsStringECseYC8vFNOjrM_2cc, symObjAddr: 0x6C0, symBinAddr: 0x1000585E0, symSize: 0x80 }
  - { offset: 0xB20EA, size: 0x8, addend: 0x0, symName: __RINvMsk_NtCsHUR1vrdMJt_3std7processNtB6_7Command3argRNtNtB8_4path4PathECseYC8vFNOjrM_2cc, symObjAddr: 0x740, symBinAddr: 0x100058660, symSize: 0x60 }
  - { offset: 0xB2132, size: 0x8, addend: 0x0, symName: __RINvMsk_NtCsHUR1vrdMJt_3std7processNtB6_7Command3argRNtNtB8_4path7PathBufECseYC8vFNOjrM_2cc, symObjAddr: 0x7A0, symBinAddr: 0x1000586C0, symSize: 0x60 }
  - { offset: 0xB218B, size: 0x8, addend: 0x0, symName: __RINvMsk_NtCsHUR1vrdMJt_3std7processNtB6_7Command3argRNtNtNtB8_3ffi6os_str5OsStrECseYC8vFNOjrM_2cc, symObjAddr: 0x800, symBinAddr: 0x100058720, symSize: 0x60 }
  - { offset: 0xB21C6, size: 0x8, addend: 0x0, symName: __RINvMsk_NtCsHUR1vrdMJt_3std7processNtB6_7Command3argReECseYC8vFNOjrM_2cc, symObjAddr: 0x860, symBinAddr: 0x100058780, symSize: 0x60 }
  - { offset: 0xB2221, size: 0x8, addend: 0x0, symName: __RINvMsk_NtCsHUR1vrdMJt_3std7processNtB6_7Command3envRINtNtCslJiobkLta79_5alloc4sync3ArcNtNtNtB8_3ffi6os_str5OsStrEBO_ECseYC8vFNOjrM_2cc, symObjAddr: 0x8C0, symBinAddr: 0x1000587E0, symSize: 0xA0 }
  - { offset: 0xB22A5, size: 0x8, addend: 0x0, symName: __RINvMsk_NtCsHUR1vrdMJt_3std7processNtB6_7Command3envReBO_ECseYC8vFNOjrM_2cc, symObjAddr: 0x960, symBinAddr: 0x100058880, symSize: 0xB0 }
  - { offset: 0xB2336, size: 0x8, addend: 0x0, symName: __RINvMsk_NtCsHUR1vrdMJt_3std7processNtB6_7Command3envReRNtNtNtB8_3ffi6os_str8OsStringECseYC8vFNOjrM_2cc, symObjAddr: 0xA10, symBinAddr: 0x100058930, symSize: 0xB0 }
  - { offset: 0xB23A7, size: 0x8, addend: 0x0, symName: __RINvMsk_NtCsHUR1vrdMJt_3std7processNtB6_7Command3newNtNtB8_4path7PathBufECseYC8vFNOjrM_2cc, symObjAddr: 0xAC0, symBinAddr: 0x1000589E0, symSize: 0xC0 }
  - { offset: 0xB23D5, size: 0x8, addend: 0x0, symName: __RINvMsk_NtCsHUR1vrdMJt_3std7processNtB6_7Command3newRNtNtB8_4path4PathECseYC8vFNOjrM_2cc, symObjAddr: 0xB80, symBinAddr: 0x100058AA0, symSize: 0xA0 }
  - { offset: 0xB240F, size: 0x8, addend: 0x0, symName: __RINvMsk_NtCsHUR1vrdMJt_3std7processNtB6_7Command3newRNtNtCslJiobkLta79_5alloc6string6StringECseYC8vFNOjrM_2cc, symObjAddr: 0xC20, symBinAddr: 0x100058B40, symSize: 0xA0 }
  - { offset: 0xB2449, size: 0x8, addend: 0x0, symName: __RINvMsk_NtCsHUR1vrdMJt_3std7processNtB6_7Command3newRReECseYC8vFNOjrM_2cc, symObjAddr: 0xCC0, symBinAddr: 0x100058BE0, symSize: 0xA0 }
  - { offset: 0xB2476, size: 0x8, addend: 0x0, symName: __RINvMsk_NtCsHUR1vrdMJt_3std7processNtB6_7Command3newReECseYC8vFNOjrM_2cc, symObjAddr: 0xD60, symBinAddr: 0x100058C80, symSize: 0xA0 }
  - { offset: 0xB24B0, size: 0x8, addend: 0x0, symName: __RINvMsk_NtCsHUR1vrdMJt_3std7processNtB6_7Command4argsARej2_BQ_ECseYC8vFNOjrM_2cc, symObjAddr: 0xE00, symBinAddr: 0x100058D20, symSize: 0x130 }
  - { offset: 0xB2522, size: 0x8, addend: 0x0, symName: __RINvMsk_NtCsHUR1vrdMJt_3std7processNtB6_7Command4argsINtNtCslJiobkLta79_5alloc3vec3VecNtNtBU_6string6StringEB1m_ECseYC8vFNOjrM_2cc, symObjAddr: 0xF30, symBinAddr: 0x100058E50, symSize: 0x140 }
  - { offset: 0xB2612, size: 0x8, addend: 0x0, symName: __RINvMsk_NtCsHUR1vrdMJt_3std7processNtB6_7Command4argsINtNtNtNtCsieiGu2EXtoJ_4core4iter8adapters3map3MapINtNtNtBY_5slice4iter4IterINtNtCslJiobkLta79_5alloc4sync3ArcNtNtNtB8_3ffi6os_str5OsStrEENvYB23_NtNtNtBY_3ops5deref5Deref5derefERB2B_ECseYC8vFNOjrM_2cc, symObjAddr: 0x1170, symBinAddr: 0x100058F90, symSize: 0x100 }
  - { offset: 0xB26C8, size: 0x8, addend: 0x0, symName: __RINvMsk_NtCsHUR1vrdMJt_3std7processNtB6_7Command4argsINtNtNtNtCsieiGu2EXtoJ_4core4iter8adapters6filter6FilterINtNtNtBY_5slice4iter4IterNtNtNtB8_3ffi6os_str8OsStringENCNvMNtCseYC8vFNOjrM_2cc4toolNtB2I_4Tool10to_command0ERB29_EB2K_, symObjAddr: 0x1270, symBinAddr: 0x100059090, symSize: 0xD0 }
  - { offset: 0xB2746, size: 0x8, addend: 0x0, symName: __RINvMsk_NtCsHUR1vrdMJt_3std7processNtB6_7Command4argsRINtNtCslJiobkLta79_5alloc3vec3VecNtNtNtB8_3ffi6os_str8OsStringERB1n_ECseYC8vFNOjrM_2cc, symObjAddr: 0x1340, symBinAddr: 0x100059160, symSize: 0xD0 }
  - { offset: 0xB27DD, size: 0x8, addend: 0x0, symName: __RINvMsk_NtCsHUR1vrdMJt_3std7processNtB6_7Command4argsRSNtNtCslJiobkLta79_5alloc6string6StringRBR_ECseYC8vFNOjrM_2cc, symObjAddr: 0x1410, symBinAddr: 0x100059230, symSize: 0xE0 }
  - { offset: 0xB2882, size: 0x8, addend: 0x0, symName: __RINvMsk_NtCsHUR1vrdMJt_3std7processNtB6_7Command4argsRSRNtNtB8_4path4PathRBR_ECseYC8vFNOjrM_2cc, symObjAddr: 0x14F0, symBinAddr: 0x100059310, symSize: 0xE0 }
  - { offset: 0xB28F3, size: 0x8, addend: 0x0, symName: __RINvMsk_NtCsHUR1vrdMJt_3std7processNtB6_7Command5stdinNtB6_5StdioECseYC8vFNOjrM_2cc, symObjAddr: 0x15D0, symBinAddr: 0x1000593F0, symSize: 0x50 }
  - { offset: 0xB292E, size: 0x8, addend: 0x0, symName: __RINvMsk_NtCsHUR1vrdMJt_3std7processNtB6_7Command6stderrNtB6_5StdioECseYC8vFNOjrM_2cc, symObjAddr: 0x1620, symBinAddr: 0x100059440, symSize: 0x50 }
  - { offset: 0xB2969, size: 0x8, addend: 0x0, symName: __RINvMsk_NtCsHUR1vrdMJt_3std7processNtB6_7Command6stdoutNtB6_5StdioECseYC8vFNOjrM_2cc, symObjAddr: 0x1670, symBinAddr: 0x100059490, symSize: 0x50 }
  - { offset: 0xB2B73, size: 0x8, addend: 0x0, symName: __RINvMsk_NtCslJiobkLta79_5alloc4syncINtB6_3ArcShE19allocate_for_layoutNCNvMsm_B6_Bx_18allocate_for_slice0NCB17_s_0ECseYC8vFNOjrM_2cc, symObjAddr: 0x16C0, symBinAddr: 0x1000594E0, symSize: 0x1E0 }
  - { offset: 0xB2E9F, size: 0x8, addend: 0x0, symName: __RNvMs1_NtCsjK30CmJ87bX_9hashbrown3mapINtB5_7HashMapINtNtCslJiobkLta79_5alloc5boxed3BoxSIBO_NtNtNtCsHUR1vrdMJt_3std3ffi6os_str5OsStrEENtNtCseYC8vFNOjrM_2cc4tool10ToolFamilyNtNtNtB1x_4hash6random11RandomStateE6insertB2b_, symObjAddr: 0x1CF0, symBinAddr: 0x100059B10, symSize: 0x250 }
  - { offset: 0xB30FD, size: 0x8, addend: 0x0, symName: __RNvMs1_NtCsjK30CmJ87bX_9hashbrown3mapINtB5_7HashMapINtNtCslJiobkLta79_5alloc5boxed3BoxeEINtNtBS_4sync3ArcNtNtNtCsHUR1vrdMJt_3std3ffi6os_str5OsStrENtNtNtB1L_4hash6random11RandomStateE6insertCseYC8vFNOjrM_2cc, symObjAddr: 0x1F40, symBinAddr: 0x100059D60, symSize: 0x260 }
  - { offset: 0xB335C, size: 0x8, addend: 0x0, symName: __RNvMs1_NtCsjK30CmJ87bX_9hashbrown3mapINtB5_7HashMapINtNtCslJiobkLta79_5alloc5boxed3BoxeEINtNtBS_4sync3ArceENtNtNtCsHUR1vrdMJt_3std4hash6random11RandomStateE6insertCseYC8vFNOjrM_2cc, symObjAddr: 0x21A0, symBinAddr: 0x100059FC0, symSize: 0x260 }
  - { offset: 0xB35BB, size: 0x8, addend: 0x0, symName: __RNvMs1_NtCsjK30CmJ87bX_9hashbrown3mapINtB5_7HashMapINtNtCslJiobkLta79_5alloc5boxed3BoxeEINtNtCsieiGu2EXtoJ_4core6option6OptionINtNtBS_4sync3ArcNtNtNtCsHUR1vrdMJt_3std3ffi6os_str5OsStrEENtNtNtB2n_4hash6random11RandomStateE6insertCseYC8vFNOjrM_2cc, symObjAddr: 0x2400, symBinAddr: 0x10005A220, symSize: 0x280 }
  - { offset: 0xB381A, size: 0x8, addend: 0x0, symName: __RNvMs1_NtCsjK30CmJ87bX_9hashbrown3mapINtB5_7HashMapNtCseYC8vFNOjrM_2cc12CompilerFlagbNtNtNtCsHUR1vrdMJt_3std4hash6random11RandomStateE6insertBP_, symObjAddr: 0x2680, symBinAddr: 0x10005A4A0, symSize: 0x260 }
  - { offset: 0xB3AAC, size: 0x8, addend: 0x0, symName: __RNvMsI_NtCsHUR1vrdMJt_3std7processNtB5_10ExitStatus7successCseYC8vFNOjrM_2cc, symObjAddr: 0x30B0, symBinAddr: 0x10005AED0, symSize: 0x60 }
  - { offset: 0xB3CF2, size: 0x8, addend: 0x0, symName: __RNvMsc_NtCslJiobkLta79_5alloc4syncINtB5_3ArcNtCslzRnRZxZnvp_9jobserver11HelperStateE3newCseYC8vFNOjrM_2cc, symObjAddr: 0x3110, symBinAddr: 0x10005AF30, symSize: 0xE0 }
  - { offset: 0xB3E9F, size: 0x8, addend: 0x0, symName: __RNvMsc_NtCslJiobkLta79_5alloc4syncINtB5_3ArcNtNtNtCsieiGu2EXtoJ_4core4sync6atomic10AtomicBoolE3newCseYC8vFNOjrM_2cc, symObjAddr: 0x31F0, symBinAddr: 0x10005B010, symSize: 0xA0 }
  - { offset: 0xB3FF1, size: 0x8, addend: 0x0, symName: __RNvMsj_NtCslJiobkLta79_5alloc4syncINtB5_3ArcNtCseYC8vFNOjrM_2cc10BuildCacheE9drop_slowBI_, symObjAddr: 0x3290, symBinAddr: 0x10005B0B0, symSize: 0x70 }
  - { offset: 0xB40CC, size: 0x8, addend: 0x0, symName: __RNvMsj_NtCslJiobkLta79_5alloc4syncINtB5_3ArcNtNtCsHUR1vrdMJt_3std4path4PathE11from_raw_inCseYC8vFNOjrM_2cc, symObjAddr: 0x3300, symBinAddr: 0x10005B120, symSize: 0xA0 }
  - { offset: 0xB4212, size: 0x8, addend: 0x0, symName: __RNvMsj_NtCslJiobkLta79_5alloc4syncINtB5_3ArcNtNtCsHUR1vrdMJt_3std4path4PathE9drop_slowCseYC8vFNOjrM_2cc, symObjAddr: 0x33A0, symBinAddr: 0x10005B1C0, symSize: 0x50 }
  - { offset: 0xB42ED, size: 0x8, addend: 0x0, symName: __RNvMsj_NtCslJiobkLta79_5alloc4syncINtB5_3ArcNtNtNtCsHUR1vrdMJt_3std3ffi6os_str5OsStrE11from_raw_inCseYC8vFNOjrM_2cc, symObjAddr: 0x33F0, symBinAddr: 0x10005B210, symSize: 0xA0 }
  - { offset: 0xB4433, size: 0x8, addend: 0x0, symName: __RNvMsj_NtCslJiobkLta79_5alloc4syncINtB5_3ArcNtNtNtCsieiGu2EXtoJ_4core4sync6atomic10AtomicBoolE9drop_slowCseYC8vFNOjrM_2cc, symObjAddr: 0x3490, symBinAddr: 0x10005B2B0, symSize: 0x40 }
  - { offset: 0xB453E, size: 0x8, addend: 0x0, symName: __RNvMsj_NtCslJiobkLta79_5alloc4syncINtB5_3ArcNtNtNtNtCsHUR1vrdMJt_3std3sys6os_str5bytes5SliceE11from_raw_inCseYC8vFNOjrM_2cc, symObjAddr: 0x34D0, symBinAddr: 0x10005B2F0, symSize: 0xA0 }
  - { offset: 0xB46AB, size: 0x8, addend: 0x0, symName: __RNvMsj_NtCslJiobkLta79_5alloc4syncINtB5_3ArcNtNtNtNtCsHUR1vrdMJt_3std4sync4mpmc7context5InnerE9drop_slowCseYC8vFNOjrM_2cc, symObjAddr: 0x3570, symBinAddr: 0x10005B390, symSize: 0x70 }
  - { offset: 0xB4768, size: 0x8, addend: 0x0, symName: __RNvMsj_NtCslJiobkLta79_5alloc4syncINtB5_3ArceE11from_raw_inCseYC8vFNOjrM_2cc, symObjAddr: 0x35E0, symBinAddr: 0x10005B400, symSize: 0xA0 }
  - { offset: 0xB48A1, size: 0x8, addend: 0x0, symName: __RNvMsj_NtCslJiobkLta79_5alloc4syncINtB5_3ArceE9drop_slowCseYC8vFNOjrM_2cc, symObjAddr: 0x3680, symBinAddr: 0x10005B4A0, symSize: 0x50 }
  - { offset: 0xB496A, size: 0x8, addend: 0x0, symName: __RNvMsm_NtCslJiobkLta79_5alloc4syncINtB5_3ArcShE15copy_from_sliceCseYC8vFNOjrM_2cc, symObjAddr: 0x36D0, symBinAddr: 0x10005B4F0, symSize: 0xD0 }
  - { offset: 0xB4AC5, size: 0x8, addend: 0x0, symName: __RNvMsm_NtCslJiobkLta79_5alloc4syncINtB5_3ArcShE18allocate_for_sliceCseYC8vFNOjrM_2cc, symObjAddr: 0x37A0, symBinAddr: 0x10005B5C0, symSize: 0xA0 }
  - { offset: 0xB4B47, size: 0x8, addend: 0x0, symName: __RNvMsv_NtCsHUR1vrdMJt_3std7processNtB5_5Stdio4nullCseYC8vFNOjrM_2cc, symObjAddr: 0x3840, symBinAddr: 0x10005B660, symSize: 0x20 }
  - { offset: 0xB4B5A, size: 0x8, addend: 0x0, symName: __RNvMsv_NtCsHUR1vrdMJt_3std7processNtB5_5Stdio5pipedCseYC8vFNOjrM_2cc, symObjAddr: 0x3860, symBinAddr: 0x10005B680, symSize: 0x20 }
  - { offset: 0xB4B6D, size: 0x8, addend: 0x0, symName: __RNvMsv_NtCsHUR1vrdMJt_3std7processNtB5_5Stdio7inheritCseYC8vFNOjrM_2cc, symObjAddr: 0x3880, symBinAddr: 0x10005B6A0, symSize: 0x20 }
  - { offset: 0xB65EC, size: 0x8, addend: 0x0, symName: __RINvMNtCslJiobkLta79_5alloc5sliceSRe8into_vecNtNtB5_5alloc6GlobalECseYC8vFNOjrM_2cc, symObjAddr: 0x0, symBinAddr: 0x10005D570, symSize: 0x40 }
  - { offset: 0xB77C2, size: 0x8, addend: 0x0, symName: __RINvNtNtCsieiGu2EXtoJ_4core5slice5index5rangeINtNtNtB6_3ops5range9RangeFromjEECseYC8vFNOjrM_2cc, symObjAddr: 0x40, symBinAddr: 0x10005D5B0, symSize: 0x280 }
  - { offset: 0xB7987, size: 0x8, addend: 0x0, symName: __RINvNtNtCsieiGu2EXtoJ_4core5slice5index5rangeNtNtNtB6_3ops5range9RangeFullECseYC8vFNOjrM_2cc, symObjAddr: 0x2C0, symBinAddr: 0x10005D830, symSize: 0x280 }
  - { offset: 0xB7B56, size: 0x8, addend: 0x0, symName: __RNvNvXs0_NtNtCsieiGu2EXtoJ_4core5slice5indexjINtB7_10SliceIndexSpE13get_unchecked18precondition_checkCseYC8vFNOjrM_2cc, symObjAddr: 0x2420, symBinAddr: 0x10005F470, symSize: 0xA0 }
  - { offset: 0xB7BCA, size: 0x8, addend: 0x0, symName: __RNvNvXs1_NtNtCsieiGu2EXtoJ_4core5slice5indexNtNtNtBb_3ops11index_range10IndexRangeINtB7_10SliceIndexSpE17get_unchecked_mut18precondition_checkCseYC8vFNOjrM_2cc, symObjAddr: 0x24C0, symBinAddr: 0x10005F510, symSize: 0xA0 }
  - { offset: 0xB7C3E, size: 0x8, addend: 0x0, symName: __RNvNvXs2_NtNtCsieiGu2EXtoJ_4core5slice5indexINtNtNtBb_3ops5range5RangejEINtB7_10SliceIndexSpE13get_unchecked18precondition_checkCseYC8vFNOjrM_2cc, symObjAddr: 0x2560, symBinAddr: 0x10005F5B0, symSize: 0xC0 }
  - { offset: 0xB7CBA, size: 0x8, addend: 0x0, symName: __RNvNvXs2_NtNtCsieiGu2EXtoJ_4core5slice5indexINtNtNtBb_3ops5range5RangejEINtB7_10SliceIndexSpE17get_unchecked_mut18precondition_checkCseYC8vFNOjrM_2cc, symObjAddr: 0x2620, symBinAddr: 0x10005F670, symSize: 0xC0 }
  - { offset: 0xB80BF, size: 0x8, addend: 0x0, symName: __RNvNtNtCsieiGu2EXtoJ_4core5slice6memchr6memchrCseYC8vFNOjrM_2cc, symObjAddr: 0x2340, symBinAddr: 0x10005F390, symSize: 0xE0 }
  - { offset: 0xB8E66, size: 0x8, addend: 0x0, symName: __RINvYINtNtNtCsieiGu2EXtoJ_4core3str4iter5SplitNtB8_12IsWhitespaceENtNtNtNtBa_4iter6traits8iterator8Iterator4findQNtB8_10IsNotEmptyECseYC8vFNOjrM_2cc, symObjAddr: 0x950, symBinAddr: 0x10005DAB0, symSize: 0x90 }
  - { offset: 0xB8EE5, size: 0x8, addend: 0x0, symName: __RINvYINtNtNtCsieiGu2EXtoJ_4core3str4iter5SplitNtB8_12IsWhitespaceENtNtNtNtBa_4iter6traits8iterator8Iterator8try_folduNCINvNvB12_4find5checkReQNtB8_10IsNotEmptyE0INtNtNtBa_3ops12control_flow11ControlFlowB2d_EECseYC8vFNOjrM_2cc, symObjAddr: 0x9E0, symBinAddr: 0x10005DB40, symSize: 0x1A0 }
  - { offset: 0xB8F98, size: 0x8, addend: 0x0, symName: __RINvYINtNtNtCsieiGu2EXtoJ_4core3str4iter5SplitcENtNtNtNtBa_4iter6traits8iterator8Iterator3mapmNCNCNvMs4_CseYC8vFNOjrM_2ccNtB1E_5Build23apple_deployment_targets0_00EB1E_, symObjAddr: 0xB80, symBinAddr: 0x10005DCE0, symSize: 0x30 }
  - { offset: 0xB9006, size: 0x8, addend: 0x0, symName: __RINvYINtNtNtCsieiGu2EXtoJ_4core3str4iter5SplitcENtNtNtNtBa_4iter6traits8iterator8Iterator7collectINtNtCslJiobkLta79_5alloc3vec3VecReEECseYC8vFNOjrM_2cc, symObjAddr: 0xBB0, symBinAddr: 0x10005DD10, symSize: 0x70 }
  - { offset: 0xB909C, size: 0x8, addend: 0x0, symName: __RINvYNtNtNtCsieiGu2EXtoJ_4core3str4iter15SplitWhitespaceNtNtNtNtB9_4iter6traits8iterator8Iterator3mapNtNtCslJiobkLta79_5alloc6string6StringNCNvMs4_CseYC8vFNOjrM_2ccNtB2l_5Build8env_tool0EB2l_, symObjAddr: 0xC80, symBinAddr: 0x10005DD80, symSize: 0x30 }
  - { offset: 0xB910A, size: 0x8, addend: 0x0, symName: __RINvYNtNtNtCsieiGu2EXtoJ_4core3str4iter15SplitWhitespaceNtNtNtNtB9_4iter6traits8iterator8Iterator3mapNtNtCslJiobkLta79_5alloc6string6StringNCNvMs4_CseYC8vFNOjrM_2ccNtB2l_5Build8env_tools_0EB2l_, symObjAddr: 0xCB0, symBinAddr: 0x10005DDB0, symSize: 0x30 }
  - { offset: 0xB9178, size: 0x8, addend: 0x0, symName: __RINvYNtNtNtCsieiGu2EXtoJ_4core3str4iter20SplitAsciiWhitespaceNtNtNtNtB9_4iter6traits8iterator8Iterator3mapNtNtCslJiobkLta79_5alloc6string6StringNvYeNtB1I_8ToString9to_stringECseYC8vFNOjrM_2cc, symObjAddr: 0xCE0, symBinAddr: 0x10005DDE0, symSize: 0x20 }
  - { offset: 0xB9216, size: 0x8, addend: 0x0, symName: __RNvYINtNtNtCsieiGu2EXtoJ_4core3str4iter5SplitcENtNtNtNtB9_4iter6traits8iterator8Iterator9size_hintCseYC8vFNOjrM_2cc, symObjAddr: 0x47A0, symBinAddr: 0x100061670, symSize: 0x30 }
  - { offset: 0xB924B, size: 0x8, addend: 0x0, symName: __RNvYNtNtNtCsieiGu2EXtoJ_4core3str4iter5CharsNtNtNtNtB8_4iter6traits8iterator8Iterator3nthCseYC8vFNOjrM_2cc, symObjAddr: 0x4990, symBinAddr: 0x100061780, symSize: 0x70 }
  - { offset: 0xB934B, size: 0x8, addend: 0x0, symName: __RNCINvXsK_NtNtNtCsieiGu2EXtoJ_4core4iter6traits5accumjNtB8_3Sum3sumINtNtNtBc_8adapters3map3MapINtNtNtBe_5slice4iter4IterINtNtCslJiobkLta79_5alloc4sync3ArcNtNtCsHUR1vrdMJt_3std4path4PathEENCINvNvXs1_NtB18_6filterINtB3a_6FilterppENtNtBa_8iterator8Iterator5count8to_usizeRB1U_NCNvMs4_CseYC8vFNOjrM_2ccNtB4v_5Build15cuda_file_count0E0EE0B4v_, symObjAddr: 0xD00, symBinAddr: 0x10005DE00, symSize: 0x40 }
  - { offset: 0xB93AB, size: 0x8, addend: 0x0, symName: __RNCINvXsq_NtNtNtCsieiGu2EXtoJ_4core4iter6traits5accumhNtB8_3Sum3sumINtNtNtBc_8adapters3map3MapINtNtNtBe_5array4iter8IntoIterbKj20_ENCNvXNtNtBe_3str4iterNtB2a_5CharsNtNtBa_8iterator8Iterator10advance_by0EE0CseYC8vFNOjrM_2cc, symObjAddr: 0xD40, symBinAddr: 0x10005DE40, symSize: 0x40 }
  - { offset: 0xB945D, size: 0x8, addend: 0x0, symName: __RNvYINtNtNtCslJiobkLta79_5alloc3vec9into_iter8IntoIterNtNtB9_6string6StringENtNtNtNtCsieiGu2EXtoJ_4core4iter6traits10exact_size17ExactSizeIterator3lenCseYC8vFNOjrM_2cc, symObjAddr: 0x48B0, symBinAddr: 0x1000616A0, symSize: 0xE0 }
  - { offset: 0xB9591, size: 0x8, addend: 0x0, symName: __RNvXNtNtNtCsieiGu2EXtoJ_4core4iter6traits7collectINtNtNtB8_3str4iter5SplitAcj2_ENtB2_12IntoIterator9into_iterCseYC8vFNOjrM_2cc, symObjAddr: 0x3030, symBinAddr: 0x100060080, symSize: 0x30 }
  - { offset: 0xB95C9, size: 0x8, addend: 0x0, symName: __RNvXNtNtNtCsieiGu2EXtoJ_4core4iter6traits7collectINtNtNtB8_3str4iter5SplitReENtB2_12IntoIterator9into_iterCseYC8vFNOjrM_2cc, symObjAddr: 0x3060, symBinAddr: 0x1000600B0, symSize: 0x30 }
  - { offset: 0xB9601, size: 0x8, addend: 0x0, symName: __RNvXNtNtNtCsieiGu2EXtoJ_4core4iter6traits7collectINtNtNtB8_3str4iter5SplitcENtB2_12IntoIterator9into_iterCseYC8vFNOjrM_2cc, symObjAddr: 0x3090, symBinAddr: 0x1000600E0, symSize: 0x30 }
  - { offset: 0xB9CA1, size: 0x8, addend: 0x0, symName: __RNCNvMsp_NtNtCsieiGu2EXtoJ_4core3str4iterINtB7_20MatchIndicesInternalAcj2_E4next0CseYC8vFNOjrM_2cc, symObjAddr: 0xFB0, symBinAddr: 0x10005E0B0, symSize: 0xD0 }
  - { offset: 0xB9DE7, size: 0x8, addend: 0x0, symName: __RNCNvMsp_NtNtCsieiGu2EXtoJ_4core3str4iterINtB7_20MatchIndicesInternalReE4next0CseYC8vFNOjrM_2cc, symObjAddr: 0x1080, symBinAddr: 0x10005E180, symSize: 0xD0 }
  - { offset: 0xB9F39, size: 0x8, addend: 0x0, symName: __RNCNvXNtNtCsieiGu2EXtoJ_4core3str4iterNtB4_5CharsNtNtNtNtB8_4iter6traits8iterator8Iterator10advance_by0CseYC8vFNOjrM_2cc, symObjAddr: 0x1150, symBinAddr: 0x10005E250, symSize: 0x20 }
  - { offset: 0xB9F77, size: 0x8, addend: 0x0, symName: __RNvXNtNtCsieiGu2EXtoJ_4core3str4iterNtB2_5CharsNtNtNtNtB6_4iter6traits8iterator8Iterator10advance_byCseYC8vFNOjrM_2cc, symObjAddr: 0x27A0, symBinAddr: 0x10005F7F0, symSize: 0x750 }
  - { offset: 0xBA5A1, size: 0x8, addend: 0x0, symName: __RNvXNtNtCsieiGu2EXtoJ_4core3str4iterNtB2_5CharsNtNtNtNtB6_4iter6traits8iterator8Iterator4nextCseYC8vFNOjrM_2cc, symObjAddr: 0x2EF0, symBinAddr: 0x10005FF40, symSize: 0x60 }
  - { offset: 0xBA776, size: 0x8, addend: 0x0, symName: __RNvXs3_NtNtCsieiGu2EXtoJ_4core3str4iterNtB5_11CharIndicesNtNtNtNtB9_4iter6traits8iterator8Iterator4nextCseYC8vFNOjrM_2cc, symObjAddr: 0x3460, symBinAddr: 0x100060440, symSize: 0x110 }
  - { offset: 0xBA9BB, size: 0x8, addend: 0x0, symName: __RNvXs4_NtNtCsieiGu2EXtoJ_4core3str4iterNtB5_11CharIndicesNtNtNtNtB9_4iter6traits12double_ended19DoubleEndedIterator9next_backCseYC8vFNOjrM_2cc, symObjAddr: 0x3730, symBinAddr: 0x1000606B0, symSize: 0x150 }
  - { offset: 0xBAB1B, size: 0x8, addend: 0x0, symName: __RNvXsD_NtNtCsieiGu2EXtoJ_4core3str4iterNtB5_20SplitAsciiWhitespaceNtNtNtNtB9_4iter6traits8iterator8Iterator4nextCseYC8vFNOjrM_2cc, symObjAddr: 0x3C20, symBinAddr: 0x100060BA0, symSize: 0x20 }
  - { offset: 0xBAB49, size: 0x8, addend: 0x0, symName: __RNvXsD_NtNtCsieiGu2EXtoJ_4core3str4iterNtB5_20SplitAsciiWhitespaceNtNtNtNtB9_4iter6traits8iterator8Iterator9size_hintCseYC8vFNOjrM_2cc, symObjAddr: 0x3C40, symBinAddr: 0x100060BC0, symSize: 0x60 }
  - { offset: 0xBABD2, size: 0x8, addend: 0x0, symName: __RNvXsX_NtNtCsieiGu2EXtoJ_4core3str4iterINtB5_5SplitAcj2_ENtNtNtNtB9_4iter6traits8iterator8Iterator4nextCseYC8vFNOjrM_2cc, symObjAddr: 0x3CA0, symBinAddr: 0x100060C20, symSize: 0x20 }
  - { offset: 0xBAC09, size: 0x8, addend: 0x0, symName: __RNvXsX_NtNtCsieiGu2EXtoJ_4core3str4iterINtB5_5SplitNtB7_12IsWhitespaceENtNtNtNtB9_4iter6traits8iterator8Iterator4nextCseYC8vFNOjrM_2cc, symObjAddr: 0x3CC0, symBinAddr: 0x100060C40, symSize: 0x20 }
  - { offset: 0xBAC40, size: 0x8, addend: 0x0, symName: __RNvXsX_NtNtCsieiGu2EXtoJ_4core3str4iterINtB5_5SplitReENtNtNtNtB9_4iter6traits8iterator8Iterator4nextCseYC8vFNOjrM_2cc, symObjAddr: 0x3CE0, symBinAddr: 0x100060C60, symSize: 0x20 }
  - { offset: 0xBAC7D, size: 0x8, addend: 0x0, symName: __RNvXsz_NtNtCsieiGu2EXtoJ_4core3str4iterNtB5_15SplitWhitespaceNtNtNtNtB9_4iter6traits8iterator8Iterator4nextCseYC8vFNOjrM_2cc, symObjAddr: 0x4740, symBinAddr: 0x100061610, symSize: 0x30 }
  - { offset: 0xBACC9, size: 0x8, addend: 0x0, symName: __RNvXsz_NtNtCsieiGu2EXtoJ_4core3str4iterNtB5_15SplitWhitespaceNtNtNtNtB9_4iter6traits8iterator8Iterator9size_hintCseYC8vFNOjrM_2cc, symObjAddr: 0x4770, symBinAddr: 0x100061640, symSize: 0x30 }
  - { offset: 0xBB1CE, size: 0x8, addend: 0x0, symName: __RNvNvXs5_NtNtCsieiGu2EXtoJ_4core3str6traitsINtNtNtBb_3ops5range5RangejEINtNtNtBb_5slice5index10SliceIndexeE13get_unchecked18precondition_checkCseYC8vFNOjrM_2cc, symObjAddr: 0x26E0, symBinAddr: 0x10005F730, symSize: 0xC0 }
  - { offset: 0xBB24B, size: 0x8, addend: 0x0, symName: __RNvXNtNtCsieiGu2EXtoJ_4core3str6traitseNtNtB6_3cmp3Ord3cmpCseYC8vFNOjrM_2cc, symObjAddr: 0x2F50, symBinAddr: 0x10005FFA0, symSize: 0xE0 }
  - { offset: 0xBB3BD, size: 0x8, addend: 0x0, symName: __RNvXs2_NtNtCsieiGu2EXtoJ_4core3str6traitseINtNtNtB9_3ops5index5IndexINtNtBJ_5range5RangejEE5indexCseYC8vFNOjrM_2cc, symObjAddr: 0x33F0, symBinAddr: 0x1000603D0, symSize: 0x40 }
  - { offset: 0xBB400, size: 0x8, addend: 0x0, symName: __RNvXs2_NtNtCsieiGu2EXtoJ_4core3str6traitseINtNtNtB9_3ops5index5IndexINtNtBJ_5range9RangeFromjEE5indexCseYC8vFNOjrM_2cc, symObjAddr: 0x3430, symBinAddr: 0x100060410, symSize: 0x30 }
  - { offset: 0xBB449, size: 0x8, addend: 0x0, symName: __RNvXs_NtNtCsieiGu2EXtoJ_4core3str6traitseNtNtB8_3cmp9PartialEq2eqCseYC8vFNOjrM_2cc, symObjAddr: 0x3D00, symBinAddr: 0x100060C80, symSize: 0x90 }
  - { offset: 0xBC758, size: 0x8, addend: 0x0, symName: __RINvMNtCslJiobkLta79_5alloc5sliceSRe8into_vecNtNtB5_5alloc6GlobalECseYC8vFNOjrM_2cc, symObjAddr: 0x0, symBinAddr: 0x10005D570, symSize: 0x40 }
  - { offset: 0xBC816, size: 0x8, addend: 0x0, symName: __RNvXNvXNvMNtCslJiobkLta79_5alloc5sliceSp9to_vec_inpNtB5_10ConvertVec6to_vecINtB2_9DropGuardNtNtBa_6string6StringNtNtBa_5alloc6GlobalENtNtNtCsieiGu2EXtoJ_4core3ops4drop4Drop4dropCseYC8vFNOjrM_2cc, symObjAddr: 0x30C0, symBinAddr: 0x100060110, symSize: 0x30 }
  - { offset: 0xBC852, size: 0x8, addend: 0x0, symName: __RNvXNvXNvMNtCslJiobkLta79_5alloc5sliceSp9to_vec_inpNtB5_10ConvertVec6to_vecINtB2_9DropGuardNtNtNtCsHUR1vrdMJt_3std3ffi6os_str8OsStringNtNtBa_5alloc6GlobalENtNtNtCsieiGu2EXtoJ_4core3ops4drop4Drop4dropCseYC8vFNOjrM_2cc, symObjAddr: 0x30F0, symBinAddr: 0x100060140, symSize: 0x30 }
  - { offset: 0xBC88E, size: 0x8, addend: 0x0, symName: __RNvXNvXNvMNtCslJiobkLta79_5alloc5sliceSp9to_vec_inpNtB5_10ConvertVec6to_vecINtB2_9DropGuardTNtNtNtCsHUR1vrdMJt_3std3ffi6os_str8OsStringB1s_ENtNtBa_5alloc6GlobalENtNtNtCsieiGu2EXtoJ_4core3ops4drop4Drop4dropCseYC8vFNOjrM_2cc, symObjAddr: 0x3120, symBinAddr: 0x100060170, symSize: 0x30 }
  - { offset: 0xBC96D, size: 0x8, addend: 0x0, symName: __RNvXs6_NtCslJiobkLta79_5alloc5sliceShINtB5_16SpecCloneIntoVechNtNtB7_5alloc6GlobalE10clone_intoCseYC8vFNOjrM_2cc, symObjAddr: 0x3B60, symBinAddr: 0x100060AE0, symSize: 0xC0 }
  - { offset: 0xBCCDD, size: 0x8, addend: 0x0, symName: __RNvXs3_NtNtCslJiobkLta79_5alloc3vec9into_iterINtB5_8IntoIterNtNtB9_6string6StringENtNtNtNtCsieiGu2EXtoJ_4core4iter6traits8iterator8Iterator4nextCseYC8vFNOjrM_2cc, symObjAddr: 0x35D0, symBinAddr: 0x100060550, symSize: 0x100 }
  - { offset: 0xBCE3B, size: 0x8, addend: 0x0, symName: __RNvXs3_NtNtCslJiobkLta79_5alloc3vec9into_iterINtB5_8IntoIterNtNtB9_6string6StringENtNtNtNtCsieiGu2EXtoJ_4core4iter6traits8iterator8Iterator9size_hintCseYC8vFNOjrM_2cc, symObjAddr: 0x36D0, symBinAddr: 0x100060650, symSize: 0x60 }
  - { offset: 0xBCF30, size: 0x8, addend: 0x0, symName: __RNvXNvXsd_NtNtCslJiobkLta79_5alloc3vec9into_iterINtB8_8IntoIterppENtNtNtCsieiGu2EXtoJ_4core3ops4drop4Drop4dropINtB2_9DropGuardNtNtBc_6string6StringNtNtBc_5alloc6GlobalEB12_4dropCseYC8vFNOjrM_2cc, symObjAddr: 0x3380, symBinAddr: 0x100060360, symSize: 0x70 }
  - { offset: 0xBD06E, size: 0x8, addend: 0x0, symName: __RNvXsd_NtNtCslJiobkLta79_5alloc3vec9into_iterINtB5_8IntoIterNtNtB9_6string6StringENtNtNtCsieiGu2EXtoJ_4core3ops4drop4Drop4dropCseYC8vFNOjrM_2cc, symObjAddr: 0x40F0, symBinAddr: 0x100060FE0, symSize: 0x90 }
  - { offset: 0xBD21B, size: 0x8, addend: 0x0, symName: __RNvXNvXs5_NtNtCslJiobkLta79_5alloc3vec5drainINtB8_5DrainppENtNtNtCsieiGu2EXtoJ_4core3ops4drop4Drop4dropINtB2_9DropGuardNtNtNtNtCsHUR1vrdMJt_3std4sync4mpmc5waker5EntryNtNtBc_5alloc6GlobalEBV_4dropCseYC8vFNOjrM_2cc, symObjAddr: 0x3150, symBinAddr: 0x1000601A0, symSize: 0x1C0 }
  - { offset: 0xBD552, size: 0x8, addend: 0x0, symName: __RNvXs5_NtNtCslJiobkLta79_5alloc3vec5drainINtB5_5DrainNtNtNtNtCsHUR1vrdMJt_3std4sync4mpmc5waker5EntryENtNtNtCsieiGu2EXtoJ_4core3ops4drop4Drop4dropCseYC8vFNOjrM_2cc, symObjAddr: 0x3880, symBinAddr: 0x100060800, symSize: 0x2E0 }
  - { offset: 0xBE534, size: 0x8, addend: 0x0, symName: __RNCNvMsd_NtNtNtCsHUR1vrdMJt_3std4sync6poison6rwlockINtB7_15RwLockReadGuardINtNtNtNtBd_11collections4hash3map7HashMapINtNtCslJiobkLta79_5alloc5boxed3BoxSIB1R_NtNtNtBd_3ffi6os_str5OsStrEENtNtCseYC8vFNOjrM_2cc4tool10ToolFamilyEE3new0B31_, symObjAddr: 0xD80, symBinAddr: 0x10005DE80, symSize: 0x50 }
  - { offset: 0xBE5B4, size: 0x8, addend: 0x0, symName: __RNCNvMsd_NtNtNtCsHUR1vrdMJt_3std4sync6poison6rwlockINtB7_15RwLockReadGuardINtNtNtNtBd_11collections4hash3map7HashMapINtNtCslJiobkLta79_5alloc5boxed3BoxeEINtNtB1V_4sync3ArcNtNtNtBd_3ffi6os_str5OsStrEEE3new0CseYC8vFNOjrM_2cc, symObjAddr: 0xDD0, symBinAddr: 0x10005DED0, symSize: 0x50 }
  - { offset: 0xBE634, size: 0x8, addend: 0x0, symName: __RNCNvMsd_NtNtNtCsHUR1vrdMJt_3std4sync6poison6rwlockINtB7_15RwLockReadGuardINtNtNtNtBd_11collections4hash3map7HashMapINtNtCslJiobkLta79_5alloc5boxed3BoxeEINtNtB1V_4sync3ArceEEE3new0CseYC8vFNOjrM_2cc, symObjAddr: 0xE20, symBinAddr: 0x10005DF20, symSize: 0x50 }
  - { offset: 0xBE6B4, size: 0x8, addend: 0x0, symName: __RNCNvMsd_NtNtNtCsHUR1vrdMJt_3std4sync6poison6rwlockINtB7_15RwLockReadGuardINtNtNtNtBd_11collections4hash3map7HashMapINtNtCslJiobkLta79_5alloc5boxed3BoxeEINtNtCsieiGu2EXtoJ_4core6option6OptionINtNtB1V_4sync3ArcNtNtNtBd_3ffi6os_str5OsStrEEEE3new0CseYC8vFNOjrM_2cc, symObjAddr: 0xE70, symBinAddr: 0x10005DF70, symSize: 0x50 }
  - { offset: 0xBE734, size: 0x8, addend: 0x0, symName: __RNCNvMsd_NtNtNtCsHUR1vrdMJt_3std4sync6poison6rwlockINtB7_15RwLockReadGuardINtNtNtNtBd_11collections4hash3map7HashMapNtCseYC8vFNOjrM_2cc12CompilerFlagbEE3new0B1S_, symObjAddr: 0xEC0, symBinAddr: 0x10005DFC0, symSize: 0x50 }
  - { offset: 0xBE7C0, size: 0x8, addend: 0x0, symName: __RNCNvMse_NtNtNtCsHUR1vrdMJt_3std4sync6poison6rwlockINtB7_16RwLockWriteGuardINtNtNtNtBd_11collections4hash3map7HashMapINtNtCslJiobkLta79_5alloc5boxed3BoxSIB1S_NtNtNtBd_3ffi6os_str5OsStrEENtNtCseYC8vFNOjrM_2cc4tool10ToolFamilyEE3new0B32_, symObjAddr: 0xF10, symBinAddr: 0x10005E010, symSize: 0x20 }
  - { offset: 0xBE808, size: 0x8, addend: 0x0, symName: __RNCNvMse_NtNtNtCsHUR1vrdMJt_3std4sync6poison6rwlockINtB7_16RwLockWriteGuardINtNtNtNtBd_11collections4hash3map7HashMapINtNtCslJiobkLta79_5alloc5boxed3BoxeEINtNtB1W_4sync3ArcNtNtNtBd_3ffi6os_str5OsStrEEE3new0CseYC8vFNOjrM_2cc, symObjAddr: 0xF30, symBinAddr: 0x10005E030, symSize: 0x20 }
  - { offset: 0xBE850, size: 0x8, addend: 0x0, symName: __RNCNvMse_NtNtNtCsHUR1vrdMJt_3std4sync6poison6rwlockINtB7_16RwLockWriteGuardINtNtNtNtBd_11collections4hash3map7HashMapINtNtCslJiobkLta79_5alloc5boxed3BoxeEINtNtB1W_4sync3ArceEEE3new0CseYC8vFNOjrM_2cc, symObjAddr: 0xF50, symBinAddr: 0x10005E050, symSize: 0x20 }
  - { offset: 0xBE898, size: 0x8, addend: 0x0, symName: __RNCNvMse_NtNtNtCsHUR1vrdMJt_3std4sync6poison6rwlockINtB7_16RwLockWriteGuardINtNtNtNtBd_11collections4hash3map7HashMapINtNtCslJiobkLta79_5alloc5boxed3BoxeEINtNtCsieiGu2EXtoJ_4core6option6OptionINtNtB1W_4sync3ArcNtNtNtBd_3ffi6os_str5OsStrEEEE3new0CseYC8vFNOjrM_2cc, symObjAddr: 0xF70, symBinAddr: 0x10005E070, symSize: 0x20 }
  - { offset: 0xBE8E0, size: 0x8, addend: 0x0, symName: __RNCNvMse_NtNtNtCsHUR1vrdMJt_3std4sync6poison6rwlockINtB7_16RwLockWriteGuardINtNtNtNtBd_11collections4hash3map7HashMapNtCseYC8vFNOjrM_2cc12CompilerFlagbEE3new0B1T_, symObjAddr: 0xF90, symBinAddr: 0x10005E090, symSize: 0x20 }
  - { offset: 0xBEEE3, size: 0x8, addend: 0x0, symName: __RNvXsb_NtNtNtCsHUR1vrdMJt_3std4sync6poison6rwlockINtB5_6RwLockINtNtNtNtBb_11collections4hash3map7HashMapINtNtCslJiobkLta79_5alloc5boxed3BoxSIB1F_NtNtNtBb_3ffi6os_str5OsStrEENtNtCseYC8vFNOjrM_2cc4tool10ToolFamilyEENtNtCsieiGu2EXtoJ_4core7default7Default7defaultB2P_, symObjAddr: 0x3D90, symBinAddr: 0x100060D10, symSize: 0x90 }
  - { offset: 0xBEF91, size: 0x8, addend: 0x0, symName: __RNvXsb_NtNtNtCsHUR1vrdMJt_3std4sync6poison6rwlockINtB5_6RwLockINtNtNtNtBb_11collections4hash3map7HashMapINtNtCslJiobkLta79_5alloc5boxed3BoxeEINtNtB1J_4sync3ArcNtNtNtBb_3ffi6os_str5OsStrEEENtNtCsieiGu2EXtoJ_4core7default7Default7defaultCseYC8vFNOjrM_2cc, symObjAddr: 0x3E20, symBinAddr: 0x100060DA0, symSize: 0x90 }
  - { offset: 0xBF03F, size: 0x8, addend: 0x0, symName: __RNvXsb_NtNtNtCsHUR1vrdMJt_3std4sync6poison6rwlockINtB5_6RwLockINtNtNtNtBb_11collections4hash3map7HashMapINtNtCslJiobkLta79_5alloc5boxed3BoxeEINtNtB1J_4sync3ArceEEENtNtCsieiGu2EXtoJ_4core7default7Default7defaultCseYC8vFNOjrM_2cc, symObjAddr: 0x3EB0, symBinAddr: 0x100060E30, symSize: 0x90 }
  - { offset: 0xBF0ED, size: 0x8, addend: 0x0, symName: __RNvXsb_NtNtNtCsHUR1vrdMJt_3std4sync6poison6rwlockINtB5_6RwLockINtNtNtNtBb_11collections4hash3map7HashMapINtNtCslJiobkLta79_5alloc5boxed3BoxeEINtNtCsieiGu2EXtoJ_4core6option6OptionINtNtB1J_4sync3ArcNtNtNtBb_3ffi6os_str5OsStrEEEENtNtB2k_7default7Default7defaultCseYC8vFNOjrM_2cc, symObjAddr: 0x3F40, symBinAddr: 0x100060EC0, symSize: 0x90 }
  - { offset: 0xBF19B, size: 0x8, addend: 0x0, symName: __RNvXsb_NtNtNtCsHUR1vrdMJt_3std4sync6poison6rwlockINtB5_6RwLockINtNtNtNtBb_11collections4hash3map7HashMapNtCseYC8vFNOjrM_2cc12CompilerFlagbEENtNtCsieiGu2EXtoJ_4core7default7Default7defaultB1G_, symObjAddr: 0x3FD0, symBinAddr: 0x100060F50, symSize: 0x90 }
  - { offset: 0xBF24F, size: 0x8, addend: 0x0, symName: __RNvXsh_NtNtNtCsHUR1vrdMJt_3std4sync6poison6rwlockINtB5_15RwLockReadGuardINtNtNtNtBb_11collections4hash3map7HashMapINtNtCslJiobkLta79_5alloc5boxed3BoxSIB1P_NtNtNtBb_3ffi6os_str5OsStrEENtNtCseYC8vFNOjrM_2cc4tool10ToolFamilyEENtNtNtCsieiGu2EXtoJ_4core3ops4drop4Drop4dropB2Z_, symObjAddr: 0x41A0, symBinAddr: 0x100061070, symSize: 0x50 }
  - { offset: 0xBF2BA, size: 0x8, addend: 0x0, symName: __RNvXsh_NtNtNtCsHUR1vrdMJt_3std4sync6poison6rwlockINtB5_15RwLockReadGuardINtNtNtNtBb_11collections4hash3map7HashMapINtNtCslJiobkLta79_5alloc5boxed3BoxeEINtNtB1T_4sync3ArcNtNtNtBb_3ffi6os_str5OsStrEEENtNtNtCsieiGu2EXtoJ_4core3ops4drop4Drop4dropCseYC8vFNOjrM_2cc, symObjAddr: 0x41F0, symBinAddr: 0x1000610C0, symSize: 0x50 }
  - { offset: 0xBF325, size: 0x8, addend: 0x0, symName: __RNvXsh_NtNtNtCsHUR1vrdMJt_3std4sync6poison6rwlockINtB5_15RwLockReadGuardINtNtNtNtBb_11collections4hash3map7HashMapINtNtCslJiobkLta79_5alloc5boxed3BoxeEINtNtB1T_4sync3ArceEEENtNtNtCsieiGu2EXtoJ_4core3ops4drop4Drop4dropCseYC8vFNOjrM_2cc, symObjAddr: 0x4240, symBinAddr: 0x100061110, symSize: 0x50 }
  - { offset: 0xBF390, size: 0x8, addend: 0x0, symName: __RNvXsh_NtNtNtCsHUR1vrdMJt_3std4sync6poison6rwlockINtB5_15RwLockReadGuardINtNtNtNtBb_11collections4hash3map7HashMapINtNtCslJiobkLta79_5alloc5boxed3BoxeEINtNtCsieiGu2EXtoJ_4core6option6OptionINtNtB1T_4sync3ArcNtNtNtBb_3ffi6os_str5OsStrEEEENtNtNtB2u_3ops4drop4Drop4dropCseYC8vFNOjrM_2cc, symObjAddr: 0x4290, symBinAddr: 0x100061160, symSize: 0x50 }
  - { offset: 0xBF3FB, size: 0x8, addend: 0x0, symName: __RNvXsh_NtNtNtCsHUR1vrdMJt_3std4sync6poison6rwlockINtB5_15RwLockReadGuardINtNtNtNtBb_11collections4hash3map7HashMapNtCseYC8vFNOjrM_2cc12CompilerFlagbEENtNtNtCsieiGu2EXtoJ_4core3ops4drop4Drop4dropB1Q_, symObjAddr: 0x42E0, symBinAddr: 0x1000611B0, symSize: 0x50 }
  - { offset: 0xBF46C, size: 0x8, addend: 0x0, symName: __RNvXsi_NtNtNtCsHUR1vrdMJt_3std4sync6poison6rwlockINtB5_16RwLockWriteGuardINtNtNtNtBb_11collections4hash3map7HashMapINtNtCslJiobkLta79_5alloc5boxed3BoxSIB1Q_NtNtNtBb_3ffi6os_str5OsStrEENtNtCseYC8vFNOjrM_2cc4tool10ToolFamilyEENtNtNtCsieiGu2EXtoJ_4core3ops4drop4Drop4dropB30_, symObjAddr: 0x4330, symBinAddr: 0x100061200, symSize: 0xA0 }
  - { offset: 0xBF51C, size: 0x8, addend: 0x0, symName: __RNvXsi_NtNtNtCsHUR1vrdMJt_3std4sync6poison6rwlockINtB5_16RwLockWriteGuardINtNtNtNtBb_11collections4hash3map7HashMapINtNtCslJiobkLta79_5alloc5boxed3BoxeEINtNtB1U_4sync3ArcNtNtNtBb_3ffi6os_str5OsStrEEENtNtNtCsieiGu2EXtoJ_4core3ops4drop4Drop4dropCseYC8vFNOjrM_2cc, symObjAddr: 0x43D0, symBinAddr: 0x1000612A0, symSize: 0xA0 }
  - { offset: 0xBF5CC, size: 0x8, addend: 0x0, symName: __RNvXsi_NtNtNtCsHUR1vrdMJt_3std4sync6poison6rwlockINtB5_16RwLockWriteGuardINtNtNtNtBb_11collections4hash3map7HashMapINtNtCslJiobkLta79_5alloc5boxed3BoxeEINtNtB1U_4sync3ArceEEENtNtNtCsieiGu2EXtoJ_4core3ops4drop4Drop4dropCseYC8vFNOjrM_2cc, symObjAddr: 0x4470, symBinAddr: 0x100061340, symSize: 0xA0 }
  - { offset: 0xBF67C, size: 0x8, addend: 0x0, symName: __RNvXsi_NtNtNtCsHUR1vrdMJt_3std4sync6poison6rwlockINtB5_16RwLockWriteGuardINtNtNtNtBb_11collections4hash3map7HashMapINtNtCslJiobkLta79_5alloc5boxed3BoxeEINtNtCsieiGu2EXtoJ_4core6option6OptionINtNtB1U_4sync3ArcNtNtNtBb_3ffi6os_str5OsStrEEEENtNtNtB2v_3ops4drop4Drop4dropCseYC8vFNOjrM_2cc, symObjAddr: 0x4510, symBinAddr: 0x1000613E0, symSize: 0xA0 }
  - { offset: 0xBF72C, size: 0x8, addend: 0x0, symName: __RNvXsi_NtNtNtCsHUR1vrdMJt_3std4sync6poison6rwlockINtB5_16RwLockWriteGuardINtNtNtNtBb_11collections4hash3map7HashMapNtCseYC8vFNOjrM_2cc12CompilerFlagbEENtNtNtCsieiGu2EXtoJ_4core3ops4drop4Drop4dropB1R_, symObjAddr: 0x45B0, symBinAddr: 0x100061480, symSize: 0xA0 }
  - { offset: 0xBF7E2, size: 0x8, addend: 0x0, symName: __RNvXsl_NtNtNtCsHUR1vrdMJt_3std4sync6poison6rwlockINtB5_15RwLockReadGuardINtNtNtNtBb_11collections4hash3map7HashMapINtNtCslJiobkLta79_5alloc5boxed3BoxSIB1P_NtNtNtBb_3ffi6os_str5OsStrEENtNtCseYC8vFNOjrM_2cc4tool10ToolFamilyEENtNtNtCsieiGu2EXtoJ_4core3ops5deref5Deref5derefB2Z_, symObjAddr: 0x4650, symBinAddr: 0x100061520, symSize: 0x10 }
  - { offset: 0xBF82E, size: 0x8, addend: 0x0, symName: __RNvXsl_NtNtNtCsHUR1vrdMJt_3std4sync6poison6rwlockINtB5_15RwLockReadGuardINtNtNtNtBb_11collections4hash3map7HashMapINtNtCslJiobkLta79_5alloc5boxed3BoxeEINtNtB1T_4sync3ArcNtNtNtBb_3ffi6os_str5OsStrEEENtNtNtCsieiGu2EXtoJ_4core3ops5deref5Deref5derefCseYC8vFNOjrM_2cc, symObjAddr: 0x4660, symBinAddr: 0x100061530, symSize: 0x10 }
  - { offset: 0xBF87A, size: 0x8, addend: 0x0, symName: __RNvXsl_NtNtNtCsHUR1vrdMJt_3std4sync6poison6rwlockINtB5_15RwLockReadGuardINtNtNtNtBb_11collections4hash3map7HashMapINtNtCslJiobkLta79_5alloc5boxed3BoxeEINtNtB1T_4sync3ArceEEENtNtNtCsieiGu2EXtoJ_4core3ops5deref5Deref5derefCseYC8vFNOjrM_2cc, symObjAddr: 0x4670, symBinAddr: 0x100061540, symSize: 0x10 }
  - { offset: 0xBF8C6, size: 0x8, addend: 0x0, symName: __RNvXsl_NtNtNtCsHUR1vrdMJt_3std4sync6poison6rwlockINtB5_15RwLockReadGuardINtNtNtNtBb_11collections4hash3map7HashMapINtNtCslJiobkLta79_5alloc5boxed3BoxeEINtNtCsieiGu2EXtoJ_4core6option6OptionINtNtB1T_4sync3ArcNtNtNtBb_3ffi6os_str5OsStrEEEENtNtNtB2u_3ops5deref5Deref5derefCseYC8vFNOjrM_2cc, symObjAddr: 0x4680, symBinAddr: 0x100061550, symSize: 0x10 }
  - { offset: 0xBF912, size: 0x8, addend: 0x0, symName: __RNvXsl_NtNtNtCsHUR1vrdMJt_3std4sync6poison6rwlockINtB5_15RwLockReadGuardINtNtNtNtBb_11collections4hash3map7HashMapNtCseYC8vFNOjrM_2cc12CompilerFlagbEENtNtNtCsieiGu2EXtoJ_4core3ops5deref5Deref5derefB1Q_, symObjAddr: 0x4690, symBinAddr: 0x100061560, symSize: 0x10 }
  - { offset: 0xBF964, size: 0x8, addend: 0x0, symName: __RNvXsn_NtNtNtCsHUR1vrdMJt_3std4sync6poison6rwlockINtB5_16RwLockWriteGuardINtNtNtNtBb_11collections4hash3map7HashMapINtNtCslJiobkLta79_5alloc5boxed3BoxSIB1Q_NtNtNtBb_3ffi6os_str5OsStrEENtNtCseYC8vFNOjrM_2cc4tool10ToolFamilyEENtNtNtCsieiGu2EXtoJ_4core3ops5deref8DerefMut9deref_mutB30_, symObjAddr: 0x46A0, symBinAddr: 0x100061570, symSize: 0x20 }
  - { offset: 0xBF9B0, size: 0x8, addend: 0x0, symName: __RNvXsn_NtNtNtCsHUR1vrdMJt_3std4sync6poison6rwlockINtB5_16RwLockWriteGuardINtNtNtNtBb_11collections4hash3map7HashMapINtNtCslJiobkLta79_5alloc5boxed3BoxeEINtNtB1U_4sync3ArcNtNtNtBb_3ffi6os_str5OsStrEEENtNtNtCsieiGu2EXtoJ_4core3ops5deref8DerefMut9deref_mutCseYC8vFNOjrM_2cc, symObjAddr: 0x46C0, symBinAddr: 0x100061590, symSize: 0x20 }
  - { offset: 0xBF9FC, size: 0x8, addend: 0x0, symName: __RNvXsn_NtNtNtCsHUR1vrdMJt_3std4sync6poison6rwlockINtB5_16RwLockWriteGuardINtNtNtNtBb_11collections4hash3map7HashMapINtNtCslJiobkLta79_5alloc5boxed3BoxeEINtNtB1U_4sync3ArceEEENtNtNtCsieiGu2EXtoJ_4core3ops5deref8DerefMut9deref_mutCseYC8vFNOjrM_2cc, symObjAddr: 0x46E0, symBinAddr: 0x1000615B0, symSize: 0x20 }
  - { offset: 0xBFA48, size: 0x8, addend: 0x0, symName: __RNvXsn_NtNtNtCsHUR1vrdMJt_3std4sync6poison6rwlockINtB5_16RwLockWriteGuardINtNtNtNtBb_11collections4hash3map7HashMapINtNtCslJiobkLta79_5alloc5boxed3BoxeEINtNtCsieiGu2EXtoJ_4core6option6OptionINtNtB1U_4sync3ArcNtNtNtBb_3ffi6os_str5OsStrEEEENtNtNtB2v_3ops5deref8DerefMut9deref_mutCseYC8vFNOjrM_2cc, symObjAddr: 0x4700, symBinAddr: 0x1000615D0, symSize: 0x20 }
  - { offset: 0xBFA94, size: 0x8, addend: 0x0, symName: __RNvXsn_NtNtNtCsHUR1vrdMJt_3std4sync6poison6rwlockINtB5_16RwLockWriteGuardINtNtNtNtBb_11collections4hash3map7HashMapNtCseYC8vFNOjrM_2cc12CompilerFlagbEENtNtNtCsieiGu2EXtoJ_4core3ops5deref8DerefMut9deref_mutB1R_, symObjAddr: 0x4720, symBinAddr: 0x1000615F0, symSize: 0x20 }
  - { offset: 0xC06BC, size: 0x8, addend: 0x0, symName: __RNvMNtNtNtCsieiGu2EXtoJ_4core4iter8adapters7step_byINtB2_6StepByINtNtNtB8_3ops5range5RangejEE3newCseYC8vFNOjrM_2cc, symObjAddr: 0x1170, symBinAddr: 0x10005E270, symSize: 0xD0 }
  - { offset: 0xC075F, size: 0x8, addend: 0x0, symName: __RNvMs9_NtNtNtCsHUR1vrdMJt_3std4sync6poison6rwlockINtB5_6RwLockINtNtNtNtBb_11collections4hash3map7HashMapINtNtCslJiobkLta79_5alloc5boxed3BoxSIB1F_NtNtNtBb_3ffi6os_str5OsStrEENtNtCseYC8vFNOjrM_2cc4tool10ToolFamilyEE4readB2P_, symObjAddr: 0x1240, symBinAddr: 0x10005E340, symSize: 0x70 }
  - { offset: 0xC0882, size: 0x8, addend: 0x0, symName: __RNvMs9_NtNtNtCsHUR1vrdMJt_3std4sync6poison6rwlockINtB5_6RwLockINtNtNtNtBb_11collections4hash3map7HashMapINtNtCslJiobkLta79_5alloc5boxed3BoxSIB1F_NtNtNtBb_3ffi6os_str5OsStrEENtNtCseYC8vFNOjrM_2cc4tool10ToolFamilyEE5writeB2P_, symObjAddr: 0x12B0, symBinAddr: 0x10005E3B0, symSize: 0xD0 }
  - { offset: 0xC0999, size: 0x8, addend: 0x0, symName: __RNvMs9_NtNtNtCsHUR1vrdMJt_3std4sync6poison6rwlockINtB5_6RwLockINtNtNtNtBb_11collections4hash3map7HashMapINtNtCslJiobkLta79_5alloc5boxed3BoxeEINtNtB1J_4sync3ArcNtNtNtBb_3ffi6os_str5OsStrEEE4readCseYC8vFNOjrM_2cc, symObjAddr: 0x1380, symBinAddr: 0x10005E480, symSize: 0x70 }
  - { offset: 0xC0A95, size: 0x8, addend: 0x0, symName: __RNvMs9_NtNtNtCsHUR1vrdMJt_3std4sync6poison6rwlockINtB5_6RwLockINtNtNtNtBb_11collections4hash3map7HashMapINtNtCslJiobkLta79_5alloc5boxed3BoxeEINtNtB1J_4sync3ArcNtNtNtBb_3ffi6os_str5OsStrEEE5writeCseYC8vFNOjrM_2cc, symObjAddr: 0x13F0, symBinAddr: 0x10005E4F0, symSize: 0xD0 }
  - { offset: 0xC0BAC, size: 0x8, addend: 0x0, symName: __RNvMs9_NtNtNtCsHUR1vrdMJt_3std4sync6poison6rwlockINtB5_6RwLockINtNtNtNtBb_11collections4hash3map7HashMapINtNtCslJiobkLta79_5alloc5boxed3BoxeEINtNtB1J_4sync3ArceEEE4readCseYC8vFNOjrM_2cc, symObjAddr: 0x14C0, symBinAddr: 0x10005E5C0, symSize: 0x70 }
  - { offset: 0xC0CA8, size: 0x8, addend: 0x0, symName: __RNvMs9_NtNtNtCsHUR1vrdMJt_3std4sync6poison6rwlockINtB5_6RwLockINtNtNtNtBb_11collections4hash3map7HashMapINtNtCslJiobkLta79_5alloc5boxed3BoxeEINtNtB1J_4sync3ArceEEE5writeCseYC8vFNOjrM_2cc, symObjAddr: 0x1530, symBinAddr: 0x10005E630, symSize: 0xD0 }
  - { offset: 0xC0DBF, size: 0x8, addend: 0x0, symName: __RNvMs9_NtNtNtCsHUR1vrdMJt_3std4sync6poison6rwlockINtB5_6RwLockINtNtNtNtBb_11collections4hash3map7HashMapINtNtCslJiobkLta79_5alloc5boxed3BoxeEINtNtCsieiGu2EXtoJ_4core6option6OptionINtNtB1J_4sync3ArcNtNtNtBb_3ffi6os_str5OsStrEEEE4readCseYC8vFNOjrM_2cc, symObjAddr: 0x1600, symBinAddr: 0x10005E700, symSize: 0x70 }
  - { offset: 0xC0EBB, size: 0x8, addend: 0x0, symName: __RNvMs9_NtNtNtCsHUR1vrdMJt_3std4sync6poison6rwlockINtB5_6RwLockINtNtNtNtBb_11collections4hash3map7HashMapINtNtCslJiobkLta79_5alloc5boxed3BoxeEINtNtCsieiGu2EXtoJ_4core6option6OptionINtNtB1J_4sync3ArcNtNtNtBb_3ffi6os_str5OsStrEEEE5writeCseYC8vFNOjrM_2cc, symObjAddr: 0x1670, symBinAddr: 0x10005E770, symSize: 0xD0 }
  - { offset: 0xC0FD2, size: 0x8, addend: 0x0, symName: __RNvMs9_NtNtNtCsHUR1vrdMJt_3std4sync6poison6rwlockINtB5_6RwLockINtNtNtNtBb_11collections4hash3map7HashMapNtCseYC8vFNOjrM_2cc12CompilerFlagbEE4readB1G_, symObjAddr: 0x1740, symBinAddr: 0x10005E840, symSize: 0x70 }
  - { offset: 0xC10CE, size: 0x8, addend: 0x0, symName: __RNvMs9_NtNtNtCsHUR1vrdMJt_3std4sync6poison6rwlockINtB5_6RwLockINtNtNtNtBb_11collections4hash3map7HashMapNtCseYC8vFNOjrM_2cc12CompilerFlagbEE5writeB1G_, symObjAddr: 0x17B0, symBinAddr: 0x10005E8B0, symSize: 0xD0 }
  - { offset: 0xC1260, size: 0x8, addend: 0x0, symName: __RNvMsd_NtNtNtCsHUR1vrdMJt_3std4sync6poison6rwlockINtB5_15RwLockReadGuardINtNtNtNtBb_11collections4hash3map7HashMapINtNtCslJiobkLta79_5alloc5boxed3BoxSIB1P_NtNtNtBb_3ffi6os_str5OsStrEENtNtCseYC8vFNOjrM_2cc4tool10ToolFamilyEE3newB2Z_, symObjAddr: 0x1930, symBinAddr: 0x10005E980, symSize: 0x80 }
  - { offset: 0xC1352, size: 0x8, addend: 0x0, symName: __RNvMsd_NtNtNtCsHUR1vrdMJt_3std4sync6poison6rwlockINtB5_15RwLockReadGuardINtNtNtNtBb_11collections4hash3map7HashMapINtNtCslJiobkLta79_5alloc5boxed3BoxeEINtNtB1T_4sync3ArcNtNtNtBb_3ffi6os_str5OsStrEEE3newCseYC8vFNOjrM_2cc, symObjAddr: 0x19B0, symBinAddr: 0x10005EA00, symSize: 0x80 }
  - { offset: 0xC1444, size: 0x8, addend: 0x0, symName: __RNvMsd_NtNtNtCsHUR1vrdMJt_3std4sync6poison6rwlockINtB5_15RwLockReadGuardINtNtNtNtBb_11collections4hash3map7HashMapINtNtCslJiobkLta79_5alloc5boxed3BoxeEINtNtB1T_4sync3ArceEEE3newCseYC8vFNOjrM_2cc, symObjAddr: 0x1A30, symBinAddr: 0x10005EA80, symSize: 0x80 }
  - { offset: 0xC1536, size: 0x8, addend: 0x0, symName: __RNvMsd_NtNtNtCsHUR1vrdMJt_3std4sync6poison6rwlockINtB5_15RwLockReadGuardINtNtNtNtBb_11collections4hash3map7HashMapINtNtCslJiobkLta79_5alloc5boxed3BoxeEINtNtCsieiGu2EXtoJ_4core6option6OptionINtNtB1T_4sync3ArcNtNtNtBb_3ffi6os_str5OsStrEEEE3newCseYC8vFNOjrM_2cc, symObjAddr: 0x1AB0, symBinAddr: 0x10005EB00, symSize: 0x80 }
  - { offset: 0xC1628, size: 0x8, addend: 0x0, symName: __RNvMsd_NtNtNtCsHUR1vrdMJt_3std4sync6poison6rwlockINtB5_15RwLockReadGuardINtNtNtNtBb_11collections4hash3map7HashMapNtCseYC8vFNOjrM_2cc12CompilerFlagbEE3newB1Q_, symObjAddr: 0x1B30, symBinAddr: 0x10005EB80, symSize: 0x80 }
  - { offset: 0xC16D4, size: 0x8, addend: 0x0, symName: __RNvMsf_NtNtCsieiGu2EXtoJ_4core3str4iterINtB5_13SplitInternalAcj2_E4nextCseYC8vFNOjrM_2cc, symObjAddr: 0x1BB0, symBinAddr: 0x10005EC00, symSize: 0x170 }
  - { offset: 0xC1818, size: 0x8, addend: 0x0, symName: __RNvMsf_NtNtCsieiGu2EXtoJ_4core3str4iterINtB5_13SplitInternalAcj2_E7get_endCseYC8vFNOjrM_2cc, symObjAddr: 0x1D20, symBinAddr: 0x10005ED70, symSize: 0x110 }
  - { offset: 0xC192B, size: 0x8, addend: 0x0, symName: __RNvMsf_NtNtCsieiGu2EXtoJ_4core3str4iterINtB5_13SplitInternalNtB7_12IsWhitespaceE4nextCseYC8vFNOjrM_2cc, symObjAddr: 0x1E30, symBinAddr: 0x10005EE80, symSize: 0x180 }
  - { offset: 0xC1A6F, size: 0x8, addend: 0x0, symName: __RNvMsf_NtNtCsieiGu2EXtoJ_4core3str4iterINtB5_13SplitInternalNtB7_12IsWhitespaceE7get_endCseYC8vFNOjrM_2cc, symObjAddr: 0x1FB0, symBinAddr: 0x10005F000, symSize: 0x110 }
  - { offset: 0xC1B82, size: 0x8, addend: 0x0, symName: __RNvMsf_NtNtCsieiGu2EXtoJ_4core3str4iterINtB5_13SplitInternalReE4nextCseYC8vFNOjrM_2cc, symObjAddr: 0x20C0, symBinAddr: 0x10005F110, symSize: 0x170 }
  - { offset: 0xC1CC6, size: 0x8, addend: 0x0, symName: __RNvMsf_NtNtCsieiGu2EXtoJ_4core3str4iterINtB5_13SplitInternalReE7get_endCseYC8vFNOjrM_2cc, symObjAddr: 0x2230, symBinAddr: 0x10005F280, symSize: 0x110 }
  - { offset: 0xC3285, size: 0x8, addend: 0x0, symName: __RINvMNtCsieiGu2EXtoJ_4core5sliceSTReBw_E16binary_search_byNCINvB2_20binary_search_by_keyBw_NCNvMNtNtCseYC8vFNOjrM_2cc6target4llvmNtB1y_10TargetInfo11llvm_target0E0EB1A_, symObjAddr: 0x0, symBinAddr: 0x1000617F0, symSize: 0x3D0 }
  - { offset: 0xC3B0B, size: 0x8, addend: 0x0, symName: __RNvNtNtNtCsHUR1vrdMJt_3std3sys3pal4unix17decode_error_kindCseYC8vFNOjrM_2cc, symObjAddr: 0x68C0, symBinAddr: 0x1000680B0, symSize: 0x310 }
  - { offset: 0xC3DF0, size: 0x8, addend: 0x0, symName: __RNCNvMs_NtNtNtCsHUR1vrdMJt_3std4sync4mpmc5arrayINtB6_7ChannelINtNtCsieiGu2EXtoJ_4core6result6ResultNtCslzRnRZxZnvp_9jobserver8AcquiredNtNtNtBc_2io5error5ErrorEE4send0CseYC8vFNOjrM_2cc, symObjAddr: 0xF40, symBinAddr: 0x100062730, symSize: 0x1F0 }
  - { offset: 0xC495D, size: 0x8, addend: 0x0, symName: __RNvNvMNtNtCsieiGu2EXtoJ_4core3ptr9const_ptrPp20offset_from_unsigned18precondition_checkCseYC8vFNOjrM_2cc, symObjAddr: 0x6D90, symBinAddr: 0x100068580, symSize: 0xA0 }
  - { offset: 0xC5400, size: 0x8, addend: 0x0, symName: __RNvXs19_NtCsieiGu2EXtoJ_4core3fmtRbNtB6_5Debug3fmtCseYC8vFNOjrM_2cc, symObjAddr: 0x6FC0, symBinAddr: 0x1000687B0, symSize: 0x20 }
  - { offset: 0xC544C, size: 0x8, addend: 0x0, symName: __RNvXs1b_NtCsieiGu2EXtoJ_4core3fmtRDNtB6_7DisplayEL_Bx_3fmtCseYC8vFNOjrM_2cc, symObjAddr: 0x6FE0, symBinAddr: 0x1000687D0, symSize: 0x30 }
  - { offset: 0xC5492, size: 0x8, addend: 0x0, symName: __RNvXs1b_NtCsieiGu2EXtoJ_4core3fmtRReNtB6_7Display3fmtCseYC8vFNOjrM_2cc, symObjAddr: 0x7010, symBinAddr: 0x100068800, symSize: 0x20 }
  - { offset: 0xC54DE, size: 0x8, addend: 0x0, symName: __RNvXse_NtCsieiGu2EXtoJ_4core3fmtbNtB5_5Debug3fmtCseYC8vFNOjrM_2cc, symObjAddr: 0x70E0, symBinAddr: 0x1000688D0, symSize: 0x20 }
  - { offset: 0xC6D78, size: 0x8, addend: 0x0, symName: __RINvMNtCsieiGu2EXtoJ_4core5sliceSTReBw_E16binary_search_byNCINvB2_20binary_search_by_keyBw_NCNvMNtNtCseYC8vFNOjrM_2cc6target4llvmNtB1y_10TargetInfo11llvm_target0E0EB1A_, symObjAddr: 0x0, symBinAddr: 0x1000617F0, symSize: 0x3D0 }
  - { offset: 0xC7119, size: 0x8, addend: 0x0, symName: __RINvMNtCsieiGu2EXtoJ_4core5sliceSTReBw_E20binary_search_by_keyBw_NCNvMNtNtCseYC8vFNOjrM_2cc6target4llvmNtB18_10TargetInfo11llvm_target0EB1a_, symObjAddr: 0x3D0, symBinAddr: 0x100061BC0, symSize: 0x50 }
  - { offset: 0xC71A7, size: 0x8, addend: 0x0, symName: __RINvMNtCsieiGu2EXtoJ_4core5sliceSh11copy_withinINtNtNtB5_3ops5range9RangeFromjEECseYC8vFNOjrM_2cc, symObjAddr: 0x420, symBinAddr: 0x100061C10, symSize: 0x1A0 }
  - { offset: 0xC736F, size: 0x8, addend: 0x0, symName: __RINvMNtCsieiGu2EXtoJ_4core5sliceSh15split_inclusiveNCNvMs_NtCseYC8vFNOjrM_2cc15command_helpersNtBU_15StderrForwarder17forward_available0EBW_, symObjAddr: 0x5C0, symBinAddr: 0x100061DB0, symSize: 0x30 }
  - { offset: 0xC7421, size: 0x8, addend: 0x0, symName: __RINvMNtCsieiGu2EXtoJ_4core5sliceSh19as_chunks_uncheckedKj20_ECseYC8vFNOjrM_2cc, symObjAddr: 0x5F0, symBinAddr: 0x100061DE0, symSize: 0x90 }
  - { offset: 0xC751B, size: 0x8, addend: 0x0, symName: __RINvMNtCsieiGu2EXtoJ_4core5sliceSh5splitNCNvNtCseYC8vFNOjrM_2cc15command_helpers10run_output0EBI_, symObjAddr: 0x680, symBinAddr: 0x100061E70, symSize: 0x20 }
  - { offset: 0xC7588, size: 0x8, addend: 0x0, symName: __RINvMNtCsieiGu2EXtoJ_4core5sliceSh9as_chunksKj20_ECseYC8vFNOjrM_2cc, symObjAddr: 0x6A0, symBinAddr: 0x100061E90, symSize: 0xF0 }
  - { offset: 0xC764D, size: 0x8, addend: 0x0, symName: __RNCINvMNtCsieiGu2EXtoJ_4core5sliceSTReBy_E20binary_search_by_keyBy_NCNvMNtNtCseYC8vFNOjrM_2cc6target4llvmNtB1a_10TargetInfo11llvm_target0E0B1c_, symObjAddr: 0xE20, symBinAddr: 0x100062610, symSize: 0x60 }
  - { offset: 0xC76DB, size: 0x8, addend: 0x0, symName: __RNvMNtCsieiGu2EXtoJ_4core5sliceSRe5firstCseYC8vFNOjrM_2cc, symObjAddr: 0x1C20, symBinAddr: 0x100063410, symSize: 0x40 }
  - { offset: 0xC7725, size: 0x8, addend: 0x0, symName: __RNvMNtCsieiGu2EXtoJ_4core5sliceSRe8containsCseYC8vFNOjrM_2cc, symObjAddr: 0x1C60, symBinAddr: 0x100063450, symSize: 0x30 }
  - { offset: 0xC776B, size: 0x8, addend: 0x0, symName: __RNvMNtCsieiGu2EXtoJ_4core5sliceSc12chunks_exactCseYC8vFNOjrM_2cc, symObjAddr: 0x1C90, symBinAddr: 0x100063480, symSize: 0x160 }
  - { offset: 0xC7864, size: 0x8, addend: 0x0, symName: __RNvMNtCsieiGu2EXtoJ_4core5sliceSc18split_at_uncheckedCseYC8vFNOjrM_2cc, symObjAddr: 0x1DF0, symBinAddr: 0x1000635E0, symSize: 0xF0 }
  - { offset: 0xC79BE, size: 0x8, addend: 0x0, symName: __RNvMNtCsieiGu2EXtoJ_4core5sliceSh10split_lastCseYC8vFNOjrM_2cc, symObjAddr: 0x1EE0, symBinAddr: 0x1000636D0, symSize: 0x90 }
  - { offset: 0xC7AF7, size: 0x8, addend: 0x0, symName: __RNvNvMNtCsieiGu2EXtoJ_4core5sliceSp18split_at_unchecked18precondition_checkCseYC8vFNOjrM_2cc, symObjAddr: 0x6BD0, symBinAddr: 0x1000683C0, symSize: 0xA0 }
  - { offset: 0xC7B65, size: 0x8, addend: 0x0, symName: __RNvNvMNtCsieiGu2EXtoJ_4core5sliceSp19as_chunks_unchecked18precondition_checkCseYC8vFNOjrM_2cc, symObjAddr: 0x6C70, symBinAddr: 0x100068460, symSize: 0x120 }
  - { offset: 0xC81E4, size: 0x8, addend: 0x0, symName: __RINvNtCsieiGu2EXtoJ_4core3mem4dropNtNtCsHUR1vrdMJt_3std2fs4FileECseYC8vFNOjrM_2cc, symObjAddr: 0xDB0, symBinAddr: 0x1000625A0, symSize: 0x20 }
  - { offset: 0xC8217, size: 0x8, addend: 0x0, symName: __RINvNtCsieiGu2EXtoJ_4core3mem7replaceINtNtCslJiobkLta79_5alloc5boxed3BoxeEECseYC8vFNOjrM_2cc, symObjAddr: 0xDD0, symBinAddr: 0x1000625C0, symSize: 0x30 }
  - { offset: 0xC825D, size: 0x8, addend: 0x0, symName: __RINvNtCsieiGu2EXtoJ_4core3mem7replacebECseYC8vFNOjrM_2cc, symObjAddr: 0xE00, symBinAddr: 0x1000625F0, symSize: 0x20 }
  - { offset: 0xC87AF, size: 0x8, addend: 0x0, symName: __RNvMNtNtCsieiGu2EXtoJ_4core4char7methodsc13is_whitespaceCseYC8vFNOjrM_2cc, symObjAddr: 0x1F70, symBinAddr: 0x100063760, symSize: 0x60 }
  - { offset: 0xC87F3, size: 0x8, addend: 0x0, symName: __RNvMNtNtCsieiGu2EXtoJ_4core4char7methodsc8to_digitCseYC8vFNOjrM_2cc, symObjAddr: 0x1FD0, symBinAddr: 0x1000637C0, symSize: 0xF0 }
  - { offset: 0xC88F3, size: 0x8, addend: 0x0, symName: __RNvNtNtCsieiGu2EXtoJ_4core4char7methods15encode_utf8_rawCseYC8vFNOjrM_2cc, symObjAddr: 0x66A0, symBinAddr: 0x100067E90, symSize: 0xE0 }
  - { offset: 0xC89F3, size: 0x8, addend: 0x0, symName: __RNvNtNtCsieiGu2EXtoJ_4core4char7methods25encode_utf8_raw_uncheckedCseYC8vFNOjrM_2cc, symObjAddr: 0x6780, symBinAddr: 0x100067F70, symSize: 0x140 }
  - { offset: 0xC8C6D, size: 0x8, addend: 0x0, symName: __RNvNvNtCsieiGu2EXtoJ_4core9ub_checks23maybe_is_nonoverlapping7runtimeCseYC8vFNOjrM_2cc, symObjAddr: 0x6E30, symBinAddr: 0x100068620, symSize: 0xC0 }
  - { offset: 0xC8E2A, size: 0x8, addend: 0x0, symName: __RNvXs3_NtNtCsieiGu2EXtoJ_4core3str7patternNvMNtNtB9_4char7methodsc13is_whitespaceNtB5_11MultiCharEq7matchesCseYC8vFNOjrM_2cc, symObjAddr: 0x7070, symBinAddr: 0x100068860, symSize: 0x20 }
  - { offset: 0xC8E76, size: 0x8, addend: 0x0, symName: __RNvXsr_NtNtCsieiGu2EXtoJ_4core3str7patternNvMNtNtB9_4char7methodsc13is_whitespaceNtB5_7Pattern13into_searcherCseYC8vFNOjrM_2cc, symObjAddr: 0x7100, symBinAddr: 0x1000688F0, symSize: 0x40 }
  - { offset: 0xC925D, size: 0x8, addend: 0x0, symName: __RNCNvMs_NtCseYC8vFNOjrM_2cc15command_helpersNtB6_15StderrForwarder17forward_available0B8_, symObjAddr: 0xE80, symBinAddr: 0x100062670, symSize: 0x30 }
  - { offset: 0xC92B2, size: 0x8, addend: 0x0, symName: __RNCNvMs_NtCseYC8vFNOjrM_2cc15command_helpersNtB6_15StderrForwarder3new0B8_, symObjAddr: 0xEB0, symBinAddr: 0x1000626A0, symSize: 0x90 }
  - { offset: 0xC92FD, size: 0x8, addend: 0x0, symName: __RNCNvNtCseYC8vFNOjrM_2cc15command_helpers10run_output0B5_, symObjAddr: 0x1130, symBinAddr: 0x100062920, symSize: 0x30 }
  - { offset: 0xC9350, size: 0x8, addend: 0x0, symName: __RNCNvNtCseYC8vFNOjrM_2cc15command_helpers10run_outputs_0B5_, symObjAddr: 0x1160, symBinAddr: 0x100062950, symSize: 0x30 }
  - { offset: 0xC9396, size: 0x8, addend: 0x0, symName: __RNCNvNtCseYC8vFNOjrM_2cc15command_helpers18objects_from_files0B5_, symObjAddr: 0x1190, symBinAddr: 0x100062980, symSize: 0x40 }
  - { offset: 0xC93C0, size: 0x8, addend: 0x0, symName: __RNCNvNtCseYC8vFNOjrM_2cc15command_helpers18objects_from_filess_0B5_, symObjAddr: 0x11D0, symBinAddr: 0x1000629C0, symSize: 0x40 }
  - { offset: 0xC93FE, size: 0x8, addend: 0x0, symName: __RNCNvNtCseYC8vFNOjrM_2cc15command_helpers25spawn_and_wait_for_output0B5_, symObjAddr: 0x1210, symBinAddr: 0x100062A00, symSize: 0x140 }
  - { offset: 0xC95DC, size: 0x8, addend: 0x0, symName: __RNvNtCseYC8vFNOjrM_2cc15command_helpers10run_output, symObjAddr: 0x4280, symBinAddr: 0x100065A70, symSize: 0x430 }
  - { offset: 0xC96C6, size: 0x8, addend: 0x0, symName: __RNvNtCseYC8vFNOjrM_2cc15command_helpers13wait_on_child, symObjAddr: 0x46B0, symBinAddr: 0x100065EA0, symSize: 0x390 }
  - { offset: 0xC9814, size: 0x8, addend: 0x0, symName: __RNvNtCseYC8vFNOjrM_2cc15command_helpers13write_warning, symObjAddr: 0x4A40, symBinAddr: 0x100066230, symSize: 0x2F0 }
  - { offset: 0xC9918, size: 0x8, addend: 0x0, symName: __RNvNtCseYC8vFNOjrM_2cc15command_helpers18objects_from_files, symObjAddr: 0x4D30, symBinAddr: 0x100066520, symSize: 0xCF0 }
  - { offset: 0xC9B0B, size: 0x8, addend: 0x0, symName: __RNvNtCseYC8vFNOjrM_2cc15command_helpers23command_add_output_file, symObjAddr: 0x5A20, symBinAddr: 0x100067210, symSize: 0x1A0 }
  - { offset: 0xC9B6B, size: 0x8, addend: 0x0, symName: __RNvNtCseYC8vFNOjrM_2cc15command_helpers25spawn_and_wait_for_output, symObjAddr: 0x5BC0, symBinAddr: 0x1000673B0, symSize: 0x1B0 }
  - { offset: 0xC9BDF, size: 0x8, addend: 0x0, symName: __RNvNtCseYC8vFNOjrM_2cc15command_helpers3run, symObjAddr: 0x5D70, symBinAddr: 0x100067560, symSize: 0x170 }
  - { offset: 0xC9C78, size: 0x8, addend: 0x0, symName: __RNvNtCseYC8vFNOjrM_2cc15command_helpers5spawn, symObjAddr: 0x5EE0, symBinAddr: 0x1000676D0, symSize: 0x600 }
  - { offset: 0xC9E32, size: 0x8, addend: 0x0, symName: __RNvXNvNtCseYC8vFNOjrM_2cc15command_helpers5spawnNtB2_11ResetStderrNtNtNtCsieiGu2EXtoJ_4core3ops4drop4Drop4drop, symObjAddr: 0x6EF0, symBinAddr: 0x1000686E0, symSize: 0x40 }
  - { offset: 0xC9E78, size: 0x8, addend: 0x0, symName: __RNvXs0_NtCseYC8vFNOjrM_2cc15command_helpersNtB5_11CargoOutputNtNtCsieiGu2EXtoJ_4core5clone5Clone5cloneB7_, symObjAddr: 0x6F30, symBinAddr: 0x100068720, symSize: 0x90 }
  - { offset: 0xC9EAA, size: 0x8, addend: 0x0, symName: __RNvXs2_NtCseYC8vFNOjrM_2cc15command_helpersNtB5_10OutputKindNtNtCsieiGu2EXtoJ_4core5clone5Clone5cloneB7_, symObjAddr: 0x7030, symBinAddr: 0x100068820, symSize: 0x40 }
  - { offset: 0xCA086, size: 0x8, addend: 0x0, symName: __RNvNtCseYC8vFNOjrM_2cc8tempfile12create_named, symObjAddr: 0x64E0, symBinAddr: 0x100067CD0, symSize: 0x90 }
  - { offset: 0xCA0CF, size: 0x8, addend: 0x0, symName: __RNvNtCseYC8vFNOjrM_2cc8tempfile4rand, symObjAddr: 0x6570, symBinAddr: 0x100067D60, symSize: 0x40 }
  - { offset: 0xCA0EC, size: 0x8, addend: 0x0, symName: __RNvNtCseYC8vFNOjrM_2cc8tempfile7tmpname, symObjAddr: 0x65B0, symBinAddr: 0x100067DA0, symSize: 0xF0 }
  - { offset: 0xCA177, size: 0x8, addend: 0x0, symName: __RNvXs_NtCseYC8vFNOjrM_2cc8tempfileNtB4_13NamedTempfileNtNtNtCsieiGu2EXtoJ_4core3ops4drop4Drop4drop, symObjAddr: 0x7090, symBinAddr: 0x100068880, symSize: 0x50 }
  - { offset: 0xCAC53, size: 0x8, addend: 0x0, symName: __RINvMNtNtCsieiGu2EXtoJ_4core3fmt2rtNtB3_8Argument11new_displayINtNtCseYC8vFNOjrM_2cc9utilities10JoinOsStrsINtNtCslJiobkLta79_5alloc4sync3ArcNtNtNtCsHUR1vrdMJt_3std3ffi6os_str5OsStrEEEB13_, symObjAddr: 0x790, symBinAddr: 0x100061F80, symSize: 0x30 }
  - { offset: 0xCACB2, size: 0x8, addend: 0x0, symName: __RINvMNtNtCsieiGu2EXtoJ_4core3fmt2rtNtB3_8Argument11new_displayINtNtCseYC8vFNOjrM_2cc9utilities18OptionOsStrDisplayRNtNtNtCsHUR1vrdMJt_3std3ffi6os_str5OsStrEEB13_, symObjAddr: 0x7C0, symBinAddr: 0x100061FB0, symSize: 0x30 }
  - { offset: 0xCAD11, size: 0x8, addend: 0x0, symName: __RINvMNtNtCsieiGu2EXtoJ_4core3fmt2rtNtB3_8Argument11new_displayINtNtCslJiobkLta79_5alloc4sync3ArceEECseYC8vFNOjrM_2cc, symObjAddr: 0x7F0, symBinAddr: 0x100061FE0, symSize: 0x30 }
  - { offset: 0xCAD49, size: 0x8, addend: 0x0, symName: __RINvMNtNtCsieiGu2EXtoJ_4core3fmt2rtNtB3_8Argument11new_displayINtNtCslJiobkLta79_5alloc6borrow3CoweEECseYC8vFNOjrM_2cc, symObjAddr: 0x820, symBinAddr: 0x100062010, symSize: 0x30 }
  - { offset: 0xCAD81, size: 0x8, addend: 0x0, symName: __RINvMNtNtCsieiGu2EXtoJ_4core3fmt2rtNtB3_8Argument11new_displayNtCseYC8vFNOjrM_2cc5ErrorEB10_, symObjAddr: 0x850, symBinAddr: 0x100062040, symSize: 0x30 }
  - { offset: 0xCADB9, size: 0x8, addend: 0x0, symName: __RINvMNtNtCsieiGu2EXtoJ_4core3fmt2rtNtB3_8Argument11new_displayNtNtCsHUR1vrdMJt_3std3env8VarErrorECseYC8vFNOjrM_2cc, symObjAddr: 0x880, symBinAddr: 0x100062070, symSize: 0x30 }
  - { offset: 0xCADF1, size: 0x8, addend: 0x0, symName: __RINvMNtNtCsieiGu2EXtoJ_4core3fmt2rtNtB3_8Argument11new_displayNtNtCsHUR1vrdMJt_3std7process10ExitStatusECseYC8vFNOjrM_2cc, symObjAddr: 0x8B0, symBinAddr: 0x1000620A0, symSize: 0x30 }
  - { offset: 0xCAE29, size: 0x8, addend: 0x0, symName: __RINvMNtNtCsieiGu2EXtoJ_4core3fmt2rtNtB3_8Argument11new_displayNtNtNtCsHUR1vrdMJt_3std2io5error5ErrorECseYC8vFNOjrM_2cc, symObjAddr: 0x8E0, symBinAddr: 0x1000620D0, symSize: 0x30 }
  - { offset: 0xCAEA9, size: 0x8, addend: 0x0, symName: __RINvMNtNtCsieiGu2EXtoJ_4core3fmt2rtNtB3_8Argument11new_displayRDNtB5_7DisplayEL_ECseYC8vFNOjrM_2cc, symObjAddr: 0x910, symBinAddr: 0x100062100, symSize: 0x30 }
  - { offset: 0xCAEE1, size: 0x8, addend: 0x0, symName: __RINvMNtNtCsieiGu2EXtoJ_4core3fmt2rtNtB3_8Argument11new_displayRINtNtCslJiobkLta79_5alloc4sync3ArceEECseYC8vFNOjrM_2cc, symObjAddr: 0x940, symBinAddr: 0x100062130, symSize: 0x30 }
  - { offset: 0xCAF26, size: 0x8, addend: 0x0, symName: __RINvMNtNtCsieiGu2EXtoJ_4core3fmt2rtNtB3_8Argument11new_displayRReECseYC8vFNOjrM_2cc, symObjAddr: 0x970, symBinAddr: 0x100062160, symSize: 0x30 }
  - { offset: 0xCAF5E, size: 0x8, addend: 0x0, symName: __RINvMNtNtCsieiGu2EXtoJ_4core3fmt2rtNtB3_8Argument11new_displaycECseYC8vFNOjrM_2cc, symObjAddr: 0x9A0, symBinAddr: 0x100062190, symSize: 0x30 }
  - { offset: 0xCAF96, size: 0x8, addend: 0x0, symName: __RINvMNtNtCsieiGu2EXtoJ_4core3fmt2rtNtB3_8Argument11new_displaylECseYC8vFNOjrM_2cc, symObjAddr: 0x9D0, symBinAddr: 0x1000621C0, symSize: 0x30 }
  - { offset: 0xCAFCE, size: 0x8, addend: 0x0, symName: __RINvMNtNtCsieiGu2EXtoJ_4core3fmt2rtNtB3_8Argument11new_displaymECseYC8vFNOjrM_2cc, symObjAddr: 0xA00, symBinAddr: 0x1000621F0, symSize: 0x30 }
  - { offset: 0xCB006, size: 0x8, addend: 0x0, symName: __RINvMNtNtCsieiGu2EXtoJ_4core3fmt2rtNtB3_8Argument11new_displayyECseYC8vFNOjrM_2cc, symObjAddr: 0xA30, symBinAddr: 0x100062220, symSize: 0x30 }
  - { offset: 0xCB031, size: 0x8, addend: 0x0, symName: __RINvMNtNtCsieiGu2EXtoJ_4core3fmt2rtNtB3_8Argument13new_lower_hexyECseYC8vFNOjrM_2cc, symObjAddr: 0xA60, symBinAddr: 0x100062250, symSize: 0x30 }
  - { offset: 0xCB087, size: 0x8, addend: 0x0, symName: __RINvMNtNtCsieiGu2EXtoJ_4core3fmt2rtNtB3_8Argument9new_debugINtNtCslJiobkLta79_5alloc5boxed3BoxeEECseYC8vFNOjrM_2cc, symObjAddr: 0xA90, symBinAddr: 0x100062280, symSize: 0x30 }
  - { offset: 0xCB0BF, size: 0x8, addend: 0x0, symName: __RINvMNtNtCsieiGu2EXtoJ_4core3fmt2rtNtB3_8Argument9new_debugNtCseYC8vFNOjrM_2cc9ErrorKindEBX_, symObjAddr: 0xAC0, symBinAddr: 0x1000622B0, symSize: 0x30 }
  - { offset: 0xCB228, size: 0x8, addend: 0x0, symName: __RINvMNtNtCsieiGu2EXtoJ_4core3fmt2rtNtB3_8Argument9new_debugNtNtCsHUR1vrdMJt_3std7process7CommandECseYC8vFNOjrM_2cc, symObjAddr: 0xAF0, symBinAddr: 0x1000622E0, symSize: 0x30 }
  - { offset: 0xCB260, size: 0x8, addend: 0x0, symName: __RINvMNtNtCsieiGu2EXtoJ_4core3fmt2rtNtB3_8Argument9new_debugNtNtCseYC8vFNOjrM_2cc4tool10ToolFamilyEBZ_, symObjAddr: 0xB20, symBinAddr: 0x100062310, symSize: 0x30 }
  - { offset: 0xCB298, size: 0x8, addend: 0x0, symName: __RINvMNtNtCsieiGu2EXtoJ_4core3fmt2rtNtB3_8Argument9new_debugNtNtNtCsHUR1vrdMJt_3std3ffi6os_str8OsStringECseYC8vFNOjrM_2cc, symObjAddr: 0xB50, symBinAddr: 0x100062340, symSize: 0x30 }
  - { offset: 0xCB2DD, size: 0x8, addend: 0x0, symName: __RINvMNtNtCsieiGu2EXtoJ_4core3fmt2rtNtB3_8Argument9new_debugQNtNtCsHUR1vrdMJt_3std7process7CommandECseYC8vFNOjrM_2cc, symObjAddr: 0xB80, symBinAddr: 0x100062370, symSize: 0x30 }
  - { offset: 0xCB315, size: 0x8, addend: 0x0, symName: __RINvMNtNtCsieiGu2EXtoJ_4core3fmt2rtNtB3_8Argument9new_debugRNtNtCsHUR1vrdMJt_3std7process7CommandECseYC8vFNOjrM_2cc, symObjAddr: 0xBB0, symBinAddr: 0x1000623A0, symSize: 0x30 }
  - { offset: 0xCB34D, size: 0x8, addend: 0x0, symName: __RINvMNtNtCsieiGu2EXtoJ_4core3fmt2rtNtB3_8Argument9new_debugRNtNtNtCsHUR1vrdMJt_3std3ffi6os_str5OsStrECseYC8vFNOjrM_2cc, symObjAddr: 0xBE0, symBinAddr: 0x1000623D0, symSize: 0x30 }
  - { offset: 0xCB385, size: 0x8, addend: 0x0, symName: __RINvMNtNtCsieiGu2EXtoJ_4core3fmt2rtNtB3_8Argument9new_debugRNtNtNtCsHUR1vrdMJt_3std3ffi6os_str8OsStringECseYC8vFNOjrM_2cc, symObjAddr: 0xC10, symBinAddr: 0x100062400, symSize: 0x30 }
  - { offset: 0xCB3B0, size: 0x8, addend: 0x0, symName: __RINvMNtNtCsieiGu2EXtoJ_4core3fmt2rtNtB3_8Argument9new_debugReECseYC8vFNOjrM_2cc, symObjAddr: 0xC40, symBinAddr: 0x100062430, symSize: 0x30 }
  - { offset: 0xCB40F, size: 0x8, addend: 0x0, symName: __RINvMs_NtNtCsieiGu2EXtoJ_4core3fmt2rtNtB7_9Arguments6new_v1Kj3_KBW_ECseYC8vFNOjrM_2cc, symObjAddr: 0xC70, symBinAddr: 0x100062460, symSize: 0x40 }
  - { offset: 0xCB459, size: 0x8, addend: 0x0, symName: __RINvMs_NtNtCsieiGu2EXtoJ_4core3fmt2rtNtB7_9Arguments6new_v1Kj3_Kj2_ECseYC8vFNOjrM_2cc, symObjAddr: 0xCB0, symBinAddr: 0x1000624A0, symSize: 0x40 }
  - { offset: 0xCB4BD, size: 0x8, addend: 0x0, symName: __RINvMs_NtNtCsieiGu2EXtoJ_4core3fmt2rtNtB7_9Arguments6new_v1Kj4_KBW_ECseYC8vFNOjrM_2cc, symObjAddr: 0xCF0, symBinAddr: 0x1000624E0, symSize: 0x40 }
  - { offset: 0xCB521, size: 0x8, addend: 0x0, symName: __RINvMs_NtNtCsieiGu2EXtoJ_4core3fmt2rtNtB7_9Arguments6new_v1Kj5_KBW_ECseYC8vFNOjrM_2cc, symObjAddr: 0xD30, symBinAddr: 0x100062520, symSize: 0x40 }
  - { offset: 0xCB585, size: 0x8, addend: 0x0, symName: __RINvMs_NtNtCsieiGu2EXtoJ_4core3fmt2rtNtB7_9Arguments6new_v1Kj6_KBW_ECseYC8vFNOjrM_2cc, symObjAddr: 0xD70, symBinAddr: 0x100062560, symSize: 0x40 }
  - { offset: 0xCB893, size: 0x8, addend: 0x0, symName: __RNvMNtCseYC8vFNOjrM_2cc15command_helpersNtB2_11CargoOutput11print_debug, symObjAddr: 0x1350, symBinAddr: 0x100062B40, symSize: 0x110 }
  - { offset: 0xCB8E1, size: 0x8, addend: 0x0, symName: __RNvMNtCseYC8vFNOjrM_2cc15command_helpersNtB2_11CargoOutput13print_warning, symObjAddr: 0x1460, symBinAddr: 0x100062C50, symSize: 0x70 }
  - { offset: 0xCB92F, size: 0x8, addend: 0x0, symName: __RNvMNtCseYC8vFNOjrM_2cc15command_helpersNtB2_11CargoOutput14print_metadata, symObjAddr: 0x14D0, symBinAddr: 0x100062CC0, symSize: 0x70 }
  - { offset: 0xCB97D, size: 0x8, addend: 0x0, symName: __RNvMNtCseYC8vFNOjrM_2cc15command_helpersNtB2_11CargoOutput16stdio_for_output, symObjAddr: 0x1540, symBinAddr: 0x100062D30, symSize: 0x80 }
  - { offset: 0xCB99F, size: 0x8, addend: 0x0, symName: __RNvMNtCseYC8vFNOjrM_2cc15command_helpersNtB2_11CargoOutput18stdio_for_warnings, symObjAddr: 0x15C0, symBinAddr: 0x100062DB0, symSize: 0x50 }
  - { offset: 0xCB9C1, size: 0x8, addend: 0x0, symName: __RNvMNtCseYC8vFNOjrM_2cc15command_helpersNtB2_11CargoOutput3new, symObjAddr: 0x1610, symBinAddr: 0x100062E00, symSize: 0x190 }
  - { offset: 0xCBA08, size: 0x8, addend: 0x0, symName: __RNvMNtCseYC8vFNOjrM_2cc8tempfileNtB2_13NamedTempfile3new, symObjAddr: 0x17A0, symBinAddr: 0x100062F90, symSize: 0x430 }
  - { offset: 0xCBB06, size: 0x8, addend: 0x0, symName: __RNvMNtCseYC8vFNOjrM_2cc8tempfileNtB2_13NamedTempfile4path, symObjAddr: 0x1BD0, symBinAddr: 0x1000633C0, symSize: 0x20 }
  - { offset: 0xCBB35, size: 0x8, addend: 0x0, symName: __RNvMNtCseYC8vFNOjrM_2cc8tempfileNtB2_13NamedTempfile9take_file, symObjAddr: 0x1BF0, symBinAddr: 0x1000633E0, symSize: 0x30 }
  - { offset: 0xCBC82, size: 0x8, addend: 0x0, symName: __RNvMs9_NtCsieiGu2EXtoJ_4core3fmtNtB5_9Formatter9write_fmtCseYC8vFNOjrM_2cc, symObjAddr: 0x20C0, symBinAddr: 0x1000638B0, symSize: 0x190 }
  - { offset: 0xCBD53, size: 0x8, addend: 0x0, symName: __RNvMs_NtCseYC8vFNOjrM_2cc15command_helpersNtB4_15StderrForwarder11forward_all, symObjAddr: 0x2250, symBinAddr: 0x100063A40, symSize: 0x40 }
  - { offset: 0xCBD75, size: 0x8, addend: 0x0, symName: __RNvMs_NtCseYC8vFNOjrM_2cc15command_helpersNtB4_15StderrForwarder16set_non_blocking, symObjAddr: 0x2290, symBinAddr: 0x100063A80, symSize: 0x140 }
  - { offset: 0xCBDC9, size: 0x8, addend: 0x0, symName: __RNvMs_NtCseYC8vFNOjrM_2cc15command_helpersNtB4_15StderrForwarder17forward_available, symObjAddr: 0x23D0, symBinAddr: 0x100063BC0, symSize: 0x990 }
  - { offset: 0xCBF5A, size: 0x8, addend: 0x0, symName: __RNvMs_NtCseYC8vFNOjrM_2cc15command_helpersNtB4_15StderrForwarder3new, symObjAddr: 0x2D60, symBinAddr: 0x100064550, symSize: 0x80 }
  - { offset: 0xCBF7C, size: 0x8, addend: 0x0, symName: __RNvMs_NtNtCsieiGu2EXtoJ_4core3fmt2rtNtB6_9Arguments16new_v1_formattedCseYC8vFNOjrM_2cc, symObjAddr: 0x2DE0, symBinAddr: 0x1000645D0, symSize: 0x50 }
  - { offset: 0xCC08C, size: 0x8, addend: 0x0, symName: __RNvMs_NtNtNtCsHUR1vrdMJt_3std4sync4mpmc5arrayINtB4_7ChannelINtNtCsieiGu2EXtoJ_4core6result6ResultNtCslzRnRZxZnvp_9jobserver8AcquiredNtNtNtBa_2io5error5ErrorEE10start_recvCseYC8vFNOjrM_2cc, symObjAddr: 0x2E30, symBinAddr: 0x100064620, symSize: 0x400 }
  - { offset: 0xCC4E3, size: 0x8, addend: 0x0, symName: __RNvMs_NtNtNtCsHUR1vrdMJt_3std4sync4mpmc5arrayINtB4_7ChannelINtNtCsieiGu2EXtoJ_4core6result6ResultNtCslzRnRZxZnvp_9jobserver8AcquiredNtNtNtBa_2io5error5ErrorEE10start_sendCseYC8vFNOjrM_2cc, symObjAddr: 0x3230, symBinAddr: 0x100064A20, symSize: 0x490 }
  - { offset: 0xCC971, size: 0x8, addend: 0x0, symName: __RNvMs_NtNtNtCsHUR1vrdMJt_3std4sync4mpmc5arrayINtB4_7ChannelINtNtCsieiGu2EXtoJ_4core6result6ResultNtCslzRnRZxZnvp_9jobserver8AcquiredNtNtNtBa_2io5error5ErrorEE18disconnect_sendersCseYC8vFNOjrM_2cc, symObjAddr: 0x36C0, symBinAddr: 0x100064EB0, symSize: 0xE0 }
  - { offset: 0xCCB01, size: 0x8, addend: 0x0, symName: __RNvMs_NtNtNtCsHUR1vrdMJt_3std4sync4mpmc5arrayINtB4_7ChannelINtNtCsieiGu2EXtoJ_4core6result6ResultNtCslzRnRZxZnvp_9jobserver8AcquiredNtNtNtBa_2io5error5ErrorEE20discard_all_messagesCseYC8vFNOjrM_2cc, symObjAddr: 0x37A0, symBinAddr: 0x100064F90, symSize: 0x210 }
  - { offset: 0xCCDA8, size: 0x8, addend: 0x0, symName: __RNvMs_NtNtNtCsHUR1vrdMJt_3std4sync4mpmc5arrayINtB4_7ChannelINtNtCsieiGu2EXtoJ_4core6result6ResultNtCslzRnRZxZnvp_9jobserver8AcquiredNtNtNtBa_2io5error5ErrorEE20disconnect_receiversCseYC8vFNOjrM_2cc, symObjAddr: 0x39B0, symBinAddr: 0x1000651A0, symSize: 0xF0 }
  - { offset: 0xCCF18, size: 0x8, addend: 0x0, symName: __RNvMs_NtNtNtCsHUR1vrdMJt_3std4sync4mpmc5arrayINtB4_7ChannelINtNtCsieiGu2EXtoJ_4core6result6ResultNtCslzRnRZxZnvp_9jobserver8AcquiredNtNtNtBa_2io5error5ErrorEE4readCseYC8vFNOjrM_2cc, symObjAddr: 0x3AA0, symBinAddr: 0x100065290, symSize: 0x180 }
  - { offset: 0xCD1D9, size: 0x8, addend: 0x0, symName: __RNvMs_NtNtNtCsHUR1vrdMJt_3std4sync4mpmc5arrayINtB4_7ChannelINtNtCsieiGu2EXtoJ_4core6result6ResultNtCslzRnRZxZnvp_9jobserver8AcquiredNtNtNtBa_2io5error5ErrorEE4sendCseYC8vFNOjrM_2cc, symObjAddr: 0x3C20, symBinAddr: 0x100065410, symSize: 0x3C0 }
  - { offset: 0xCD531, size: 0x8, addend: 0x0, symName: __RNvMs_NtNtNtCsHUR1vrdMJt_3std4sync4mpmc5arrayINtB4_7ChannelINtNtCsieiGu2EXtoJ_4core6result6ResultNtCslzRnRZxZnvp_9jobserver8AcquiredNtNtNtBa_2io5error5ErrorEE5writeCseYC8vFNOjrM_2cc, symObjAddr: 0x3FE0, symBinAddr: 0x1000657D0, symSize: 0x110 }
  - { offset: 0xCD6A4, size: 0x8, addend: 0x0, symName: __RNvMs_NtNtNtCsHUR1vrdMJt_3std4sync4mpmc5arrayINtB4_7ChannelINtNtCsieiGu2EXtoJ_4core6result6ResultNtCslzRnRZxZnvp_9jobserver8AcquiredNtNtNtBa_2io5error5ErrorEE7is_fullCseYC8vFNOjrM_2cc, symObjAddr: 0x40F0, symBinAddr: 0x1000658E0, symSize: 0xB0 }
  - { offset: 0xCD826, size: 0x8, addend: 0x0, symName: __RNvMs_NtNtNtCsHUR1vrdMJt_3std4sync4mpmc5arrayINtB4_7ChannelINtNtCsieiGu2EXtoJ_4core6result6ResultNtCslzRnRZxZnvp_9jobserver8AcquiredNtNtNtBa_2io5error5ErrorEE8try_recvCseYC8vFNOjrM_2cc, symObjAddr: 0x41A0, symBinAddr: 0x100065990, symSize: 0xE0 }
  - { offset: 0xCDC7E, size: 0x8, addend: 0x0, symName: __RINvMs0_NtNtNtNtCsHUR1vrdMJt_3std3sys12thread_local6native4lazyINtB6_7StorageINtNtCsieiGu2EXtoJ_4core4cell4CellINtNtB1i_6option6OptionNtNtNtNtBe_4sync4mpmc7context7ContextEEuE11get_or_initNvNvNvMB2a_B28_4with7CONTEXT6___initECseYC8vFNOjrM_2cc, symObjAddr: 0x0, symBinAddr: 0x100068930, symSize: 0x80 }
  - { offset: 0xCDCD5, size: 0x8, addend: 0x0, symName: __RNvXsh_NtNtCslJiobkLta79_5alloc5boxed7convertINtB7_3BoxDNtNtCsieiGu2EXtoJ_4core5error5ErrorNtNtBW_6marker4SyncNtB1t_4SendEL_EINtNtBW_7convert4FromNtNtB9_6string6StringE4fromCseYC8vFNOjrM_2cc, symObjAddr: 0x4EC0, symBinAddr: 0x10006D240, symSize: 0x90 }
  - { offset: 0xCDD28, size: 0x8, addend: 0x0, symName: __RNvXs1_NtNtCslJiobkLta79_5alloc5boxed7convertINtB7_3BoxShEINtB5_12BoxFromSlicehE10from_sliceCseYC8vFNOjrM_2cc, symObjAddr: 0x3E00, symBinAddr: 0x10006C180, symSize: 0x190 }
  - { offset: 0xCDFA4, size: 0x8, addend: 0x0, symName: __RNvXs5_NtNtCslJiobkLta79_5alloc5boxed7convertINtB7_3BoxeEINtNtCsieiGu2EXtoJ_4core7convert4FromReE4fromCseYC8vFNOjrM_2cc, symObjAddr: 0x4130, symBinAddr: 0x10006C4B0, symSize: 0x60 }
  - { offset: 0xCE0B5, size: 0x8, addend: 0x0, symName: __RINvXsb_NtNtCslJiobkLta79_5alloc5boxed4iterINtB8_3BoxSIBG_NtNtNtCsHUR1vrdMJt_3std3ffi6os_str5OsStrEEINtNtNtNtCsieiGu2EXtoJ_4core4iter6traits7collect12FromIteratorBQ_E9from_iterINtNtNtB1H_8adapters3map3MapINtNtB2T_5chain5ChainINtNtB2T_6cloned6ClonedINtNtNtB1J_5slice4iter4IterRBU_EEIB2P_IB3Z_NtNtBa_6string6StringEINvMsl_BW_BU_3newB4F_EEENvYB4p_INtNtB1J_7convert4IntoBQ_E4intoEECseYC8vFNOjrM_2cc, symObjAddr: 0x12E0, symBinAddr: 0x100069700, symSize: 0x40 }
  - { offset: 0xCE0FB, size: 0x8, addend: 0x0, symName: __RINvXsi_NtCslJiobkLta79_5alloc5boxedINtB6_3BoxNtNtCsHUR1vrdMJt_3std4path4PathENtNtCsieiGu2EXtoJ_4core4hash4Hash4hashNtNtNtBM_4hash6random13DefaultHasherECseYC8vFNOjrM_2cc, symObjAddr: 0x1320, symBinAddr: 0x100069740, symSize: 0x30 }
  - { offset: 0xCE14F, size: 0x8, addend: 0x0, symName: __RINvXsi_NtCslJiobkLta79_5alloc5boxedINtB6_3BoxNtNtNtCsHUR1vrdMJt_3std3ffi6os_str5OsStrENtNtCsieiGu2EXtoJ_4core4hash4Hash4hashNtNtNtBO_4hash6random13DefaultHasherECseYC8vFNOjrM_2cc, symObjAddr: 0x1350, symBinAddr: 0x100069770, symSize: 0x30 }
  - { offset: 0xCE1A3, size: 0x8, addend: 0x0, symName: __RINvXsi_NtCslJiobkLta79_5alloc5boxedINtB6_3BoxSIBz_NtNtNtCsHUR1vrdMJt_3std3ffi6os_str5OsStrEENtNtCsieiGu2EXtoJ_4core4hash4Hash4hashNtNtNtBT_4hash6random13DefaultHasherECseYC8vFNOjrM_2cc, symObjAddr: 0x1380, symBinAddr: 0x1000697A0, symSize: 0x30 }
  - { offset: 0xCE1F7, size: 0x8, addend: 0x0, symName: __RINvXsi_NtCslJiobkLta79_5alloc5boxedINtB6_3BoxeENtNtCsieiGu2EXtoJ_4core4hash4Hash4hashNtNtNtCsHUR1vrdMJt_3std4hash6random13DefaultHasherECseYC8vFNOjrM_2cc, symObjAddr: 0x13B0, symBinAddr: 0x1000697D0, symSize: 0x30 }
  - { offset: 0xCE251, size: 0x8, addend: 0x0, symName: __RNvMs_NtCslJiobkLta79_5alloc5boxedINtB4_3BoxINtNtB6_4sync8ArcInnerNtCseYC8vFNOjrM_2cc10BuildCacheEE13new_uninit_inB14_, symObjAddr: 0x1F50, symBinAddr: 0x10006A2F0, symSize: 0x80 }
  - { offset: 0xCE349, size: 0x8, addend: 0x0, symName: __RNvMs_NtCslJiobkLta79_5alloc5boxedINtB4_3BoxINtNtB6_4sync8ArcInnerNtCseYC8vFNOjrM_2cc10BuildCacheEE17try_new_uninit_inB14_, symObjAddr: 0x1FD0, symBinAddr: 0x10006A370, symSize: 0x140 }
  - { offset: 0xCE587, size: 0x8, addend: 0x0, symName: __RNvMs_NtCslJiobkLta79_5alloc5boxedINtB4_3BoxINtNtNtNtCsHUR1vrdMJt_3std4sync4mpmc4list5BlockINtNtCsieiGu2EXtoJ_4core6result6ResultNtCslzRnRZxZnvp_9jobserver8AcquiredNtNtNtBP_2io5error5ErrorEEE13new_zeroed_inCseYC8vFNOjrM_2cc, symObjAddr: 0x2110, symBinAddr: 0x10006A4B0, symSize: 0x80 }
  - { offset: 0xCE67F, size: 0x8, addend: 0x0, symName: __RNvMs_NtCslJiobkLta79_5alloc5boxedINtB4_3BoxINtNtNtNtCsHUR1vrdMJt_3std4sync4mpmc4list5BlockINtNtCsieiGu2EXtoJ_4core6result6ResultNtCslzRnRZxZnvp_9jobserver8AcquiredNtNtNtBP_2io5error5ErrorEEE17try_new_zeroed_inCseYC8vFNOjrM_2cc, symObjAddr: 0x2190, symBinAddr: 0x10006A530, symSize: 0x140 }
  - { offset: 0xCEACF, size: 0x8, addend: 0x0, symName: __RNvXs6_NtCslJiobkLta79_5alloc5boxedINtB5_3BoxINtNtNtCsieiGu2EXtoJ_4core3mem12maybe_uninit11MaybeUninitINtNtB7_4sync8ArcInnerNtCseYC8vFNOjrM_2cc10BuildCacheEEENtNtNtBO_3ops4drop4Drop4dropB20_, symObjAddr: 0x4190, symBinAddr: 0x10006C510, symSize: 0xB0 }
  - { offset: 0xCEC0A, size: 0x8, addend: 0x0, symName: __RNvXs6_NtCslJiobkLta79_5alloc5boxedINtB5_3BoxINtNtNtNtCsHUR1vrdMJt_3std4sync4mpmc4list5BlockINtNtCsieiGu2EXtoJ_4core6result6ResultNtCslzRnRZxZnvp_9jobserver8AcquiredNtNtNtBQ_2io5error5ErrorEEENtNtNtB1x_3ops4drop4Drop4dropCseYC8vFNOjrM_2cc, symObjAddr: 0x4240, symBinAddr: 0x10006C5C0, symSize: 0xB0 }
  - { offset: 0xCED45, size: 0x8, addend: 0x0, symName: __RNvXs6_NtCslJiobkLta79_5alloc5boxedINtB5_3BoxINtNtNtNtCsHUR1vrdMJt_3std4sync4mpmc4zero6PacketINtNtCsieiGu2EXtoJ_4core6result6ResultNtCslzRnRZxZnvp_9jobserver8AcquiredNtNtNtBQ_2io5error5ErrorEEENtNtNtB1y_3ops4drop4Drop4dropCseYC8vFNOjrM_2cc, symObjAddr: 0x42F0, symBinAddr: 0x10006C670, symSize: 0xB0 }
  - { offset: 0xCEE80, size: 0x8, addend: 0x0, symName: __RNvXs6_NtCslJiobkLta79_5alloc5boxedINtB5_3BoxINtNtNtNtCsHUR1vrdMJt_3std4sync4mpmc7counter7CounterINtNtBM_4list7ChannelINtNtCsieiGu2EXtoJ_4core6result6ResultNtCslzRnRZxZnvp_9jobserver8AcquiredNtNtNtBQ_2io5error5ErrorEEEENtNtNtB1X_3ops4drop4Drop4dropCseYC8vFNOjrM_2cc, symObjAddr: 0x43A0, symBinAddr: 0x10006C720, symSize: 0xB0 }
  - { offset: 0xCEFBB, size: 0x8, addend: 0x0, symName: __RNvXs6_NtCslJiobkLta79_5alloc5boxedINtB5_3BoxINtNtNtNtCsHUR1vrdMJt_3std4sync4mpmc7counter7CounterINtNtBM_4zero7ChannelINtNtCsieiGu2EXtoJ_4core6result6ResultNtCslzRnRZxZnvp_9jobserver8AcquiredNtNtNtBQ_2io5error5ErrorEEEENtNtNtB1X_3ops4drop4Drop4dropCseYC8vFNOjrM_2cc, symObjAddr: 0x4450, symBinAddr: 0x10006C7D0, symSize: 0xB0 }
  - { offset: 0xCF0F6, size: 0x8, addend: 0x0, symName: __RNvXs6_NtCslJiobkLta79_5alloc5boxedINtB5_3BoxINtNtNtNtCsHUR1vrdMJt_3std4sync4mpmc7counter7CounterINtNtBM_5array7ChannelINtNtCsieiGu2EXtoJ_4core6result6ResultNtCslzRnRZxZnvp_9jobserver8AcquiredNtNtNtBQ_2io5error5ErrorEEEENtNtNtB1Y_3ops4drop4Drop4dropCseYC8vFNOjrM_2cc, symObjAddr: 0x4500, symBinAddr: 0x10006C880, symSize: 0xB0 }
  - { offset: 0xCF231, size: 0x8, addend: 0x0, symName: __RNvXs6_NtCslJiobkLta79_5alloc5boxedINtB5_3BoxNtNtNtCsHUR1vrdMJt_3std3ffi6os_str5OsStrENtNtNtCsieiGu2EXtoJ_4core3ops4drop4Drop4dropCseYC8vFNOjrM_2cc, symObjAddr: 0x45B0, symBinAddr: 0x10006C930, symSize: 0xD0 }
  - { offset: 0xCF36E, size: 0x8, addend: 0x0, symName: __RNvXs6_NtCslJiobkLta79_5alloc5boxedINtB5_3BoxSIBy_NtNtNtCsHUR1vrdMJt_3std3ffi6os_str5OsStrEENtNtNtCsieiGu2EXtoJ_4core3ops4drop4Drop4dropCseYC8vFNOjrM_2cc, symObjAddr: 0x4680, symBinAddr: 0x10006CA00, symSize: 0xC0 }
  - { offset: 0xCF4AB, size: 0x8, addend: 0x0, symName: __RNvXs6_NtCslJiobkLta79_5alloc5boxedINtB5_3BoxSINtNtNtNtCsHUR1vrdMJt_3std4sync4mpmc5array4SlotINtNtCsieiGu2EXtoJ_4core6result6ResultNtCslzRnRZxZnvp_9jobserver8AcquiredNtNtNtBR_2io5error5ErrorEEENtNtNtB1y_3ops4drop4Drop4dropCseYC8vFNOjrM_2cc, symObjAddr: 0x4740, symBinAddr: 0x10006CAC0, symSize: 0xC0 }
  - { offset: 0xCF5E8, size: 0x8, addend: 0x0, symName: __RNvXs6_NtCslJiobkLta79_5alloc5boxedINtB5_3BoxeENtNtNtCsieiGu2EXtoJ_4core3ops4drop4Drop4dropCseYC8vFNOjrM_2cc, symObjAddr: 0x4800, symBinAddr: 0x10006CB80, symSize: 0xC0 }
  - { offset: 0xCF72B, size: 0x8, addend: 0x0, symName: __RNvXsA_NtCslJiobkLta79_5alloc5boxedINtB5_3BoxeEINtNtCsieiGu2EXtoJ_4core6borrow6BorroweE6borrowCseYC8vFNOjrM_2cc, symObjAddr: 0x4980, symBinAddr: 0x10006CD00, symSize: 0x20 }
  - { offset: 0xCF771, size: 0x8, addend: 0x0, symName: __RNvXse_NtCslJiobkLta79_5alloc5boxedINtB5_3BoxNtNtCsHUR1vrdMJt_3std4path4PathENtNtCsieiGu2EXtoJ_4core3cmp9PartialEq2eqCseYC8vFNOjrM_2cc, symObjAddr: 0x4D80, symBinAddr: 0x10006D100, symSize: 0x40 }
  - { offset: 0xCF7C0, size: 0x8, addend: 0x0, symName: __RNvXse_NtCslJiobkLta79_5alloc5boxedINtB5_3BoxNtNtNtCsHUR1vrdMJt_3std3ffi6os_str5OsStrENtNtCsieiGu2EXtoJ_4core3cmp9PartialEq2eqCseYC8vFNOjrM_2cc, symObjAddr: 0x4DC0, symBinAddr: 0x10006D140, symSize: 0x40 }
  - { offset: 0xCF80F, size: 0x8, addend: 0x0, symName: __RNvXse_NtCslJiobkLta79_5alloc5boxedINtB5_3BoxNtNtNtCsHUR1vrdMJt_3std3ffi6os_str5OsStrENtNtCsieiGu2EXtoJ_4core3cmp9PartialEq2neCseYC8vFNOjrM_2cc, symObjAddr: 0x4E00, symBinAddr: 0x10006D180, symSize: 0x40 }
  - { offset: 0xCF85E, size: 0x8, addend: 0x0, symName: __RNvXse_NtCslJiobkLta79_5alloc5boxedINtB5_3BoxSIBy_NtNtNtCsHUR1vrdMJt_3std3ffi6os_str5OsStrEENtNtCsieiGu2EXtoJ_4core3cmp9PartialEq2eqCseYC8vFNOjrM_2cc, symObjAddr: 0x4E40, symBinAddr: 0x10006D1C0, symSize: 0x40 }
  - { offset: 0xCF8AD, size: 0x8, addend: 0x0, symName: __RNvXse_NtCslJiobkLta79_5alloc5boxedINtB5_3BoxeENtNtCsieiGu2EXtoJ_4core3cmp9PartialEq2eqCseYC8vFNOjrM_2cc, symObjAddr: 0x4E80, symBinAddr: 0x10006D200, symSize: 0x40 }
  - { offset: 0xCF92F, size: 0x8, addend: 0x0, symName: __RNvXsl_NtCslJiobkLta79_5alloc5boxedINtB5_3BoxeENtNtCsieiGu2EXtoJ_4core3fmt5Debug3fmtCseYC8vFNOjrM_2cc, symObjAddr: 0x54D0, symBinAddr: 0x10006D850, symSize: 0x30 }
  - { offset: 0xCFA80, size: 0x8, addend: 0x0, symName: __RNvXs_NtNtCslJiobkLta79_5alloc3vec15set_len_on_dropNtB4_12SetLenOnDropNtNtNtCsieiGu2EXtoJ_4core3ops4drop4Drop4dropCseYC8vFNOjrM_2cc, symObjAddr: 0x4B90, symBinAddr: 0x10006CF10, symSize: 0x20 }
  - { offset: 0xD157F, size: 0x8, addend: 0x0, symName: __RINvNtCsieiGu2EXtoJ_4core3ptr10swap_chunkKj1_ECseYC8vFNOjrM_2cc, symObjAddr: 0x990, symBinAddr: 0x100068E60, symSize: 0x30 }
  - { offset: 0xD15B8, size: 0x8, addend: 0x0, symName: __RINvNtCsieiGu2EXtoJ_4core3ptr10swap_chunkKj2_ECseYC8vFNOjrM_2cc, symObjAddr: 0x9C0, symBinAddr: 0x100068E90, symSize: 0x30 }
  - { offset: 0xD15F1, size: 0x8, addend: 0x0, symName: __RINvNtCsieiGu2EXtoJ_4core3ptr10swap_chunkKj4_ECseYC8vFNOjrM_2cc, symObjAddr: 0x9F0, symBinAddr: 0x100068EC0, symSize: 0x30 }
  - { offset: 0xD162A, size: 0x8, addend: 0x0, symName: __RINvNtCsieiGu2EXtoJ_4core3ptr10swap_chunkKj8_ECseYC8vFNOjrM_2cc, symObjAddr: 0xA20, symBinAddr: 0x100068EF0, symSize: 0x30 }
  - { offset: 0xD16D0, size: 0x8, addend: 0x0, symName: __RNvNvNtCsieiGu2EXtoJ_4core3ptr19swap_nonoverlapping18precondition_checkCseYC8vFNOjrM_2cc, symObjAddr: 0x2AA0, symBinAddr: 0x10006AE20, symSize: 0x4E0 }
  - { offset: 0xD1A10, size: 0x8, addend: 0x0, symName: __RINvNtCsieiGu2EXtoJ_4core3ptr19swap_nonoverlappinghECseYC8vFNOjrM_2cc, symObjAddr: 0xB00, symBinAddr: 0x100068F20, symSize: 0xB0 }
  - { offset: 0xD1B5E, size: 0x8, addend: 0x0, symName: __RINvNvNtCsieiGu2EXtoJ_4core3ptr25swap_nonoverlapping_bytes26swap_nonoverlapping_chunksKj8_ECseYC8vFNOjrM_2cc, symObjAddr: 0xBE0, symBinAddr: 0x100069000, symSize: 0x110 }
  - { offset: 0xD1D03, size: 0x8, addend: 0x0, symName: __RNvNvNtCsieiGu2EXtoJ_4core3ptr25swap_nonoverlapping_bytes25swap_nonoverlapping_shortCseYC8vFNOjrM_2cc, symObjAddr: 0x2F80, symBinAddr: 0x10006B300, symSize: 0x160 }
  - { offset: 0xD215B, size: 0x8, addend: 0x0, symName: __RNvNtCsieiGu2EXtoJ_4core3ptr25swap_nonoverlapping_bytesCseYC8vFNOjrM_2cc, symObjAddr: 0x2390, symBinAddr: 0x10006A710, symSize: 0xD0 }
  - { offset: 0xD2304, size: 0x8, addend: 0x0, symName: __RNvNvNtCsieiGu2EXtoJ_4core3ptr19copy_nonoverlapping18precondition_checkCseYC8vFNOjrM_2cc, symObjAddr: 0x25F0, symBinAddr: 0x10006A970, symSize: 0x4B0 }
  - { offset: 0xD2615, size: 0x8, addend: 0x0, symName: __RNvNvNtCsieiGu2EXtoJ_4core3ptr4copy18precondition_checkCseYC8vFNOjrM_2cc, symObjAddr: 0x30E0, symBinAddr: 0x10006B460, symSize: 0x330 }
  - { offset: 0xD28C3, size: 0x8, addend: 0x0, symName: __RNvNvNtCsieiGu2EXtoJ_4core3ptr7replace18precondition_checkCseYC8vFNOjrM_2cc, symObjAddr: 0x3410, symBinAddr: 0x10006B790, symSize: 0x1E0 }
  - { offset: 0xD32EB, size: 0x8, addend: 0x0, symName: __RNvXs7_NtNtCsieiGu2EXtoJ_4core3cmp5implsRNtNtCsHUR1vrdMJt_3std4path4PathNtB7_9PartialEq2eqCseYC8vFNOjrM_2cc, symObjAddr: 0x48C0, symBinAddr: 0x10006CC40, symSize: 0x40 }
  - { offset: 0xD54CC, size: 0x8, addend: 0x0, symName: __RINvXs_NtNtNtCsieiGu2EXtoJ_4core4iter8adapters6clonedINtB5_6ClonedINtNtNtBb_5slice4iter4IterRNtNtNtCsHUR1vrdMJt_3std3ffi6os_str5OsStrEENtNtNtB9_6traits8iterator8Iterator4folduQNCINvNtB7_3map8map_foldB1s_INtNtCslJiobkLta79_5alloc5boxed3BoxB1t_EuNvYB1s_INtNtBb_7convert4IntoB3f_E4intoNCINvNvB29_8for_each4callB3f_NCINvMsi_NtB3k_3vecINtB58_3VecB3f_E14extend_trustedINtB2T_3MapINtNtB7_5chain5ChainBP_IB5P_IB13_NtNtB3k_6string6StringEINvMsl_B1v_B1t_3newB6w_EEEB3U_EE0E0E0ECseYC8vFNOjrM_2cc, symObjAddr: 0x1220, symBinAddr: 0x100069640, symSize: 0x90 }
  - { offset: 0xD5562, size: 0x8, addend: 0x0, symName: __RNvXs_NtNtNtCsieiGu2EXtoJ_4core4iter8adapters6clonedINtB4_6ClonedINtNtNtBa_5slice4iter4IterRNtNtNtCsHUR1vrdMJt_3std3ffi6os_str5OsStrEENtNtNtB8_6traits8iterator8Iterator9size_hintCseYC8vFNOjrM_2cc, symObjAddr: 0x4BB0, symBinAddr: 0x10006CF30, symSize: 0x30 }
  - { offset: 0xD562F, size: 0x8, addend: 0x0, symName: __RNvXs0_NtNtNtCsieiGu2EXtoJ_4core4iter8adapters10filter_mapINtB5_9FilterMapINtNtNtBb_5slice4iter4IterNtNtCslJiobkLta79_5alloc6string6StringENCNvMs4_CseYC8vFNOjrM_2ccNtB2l_5Build27getenv_with_target_prefixes0ENtNtNtB9_6traits8iterator8Iterator4nextB2l_, symObjAddr: 0x3850, symBinAddr: 0x10006BBD0, symSize: 0x20 }
  - { offset: 0xD5676, size: 0x8, addend: 0x0, symName: __RNvXs0_NtNtNtCsieiGu2EXtoJ_4core4iter8adapters10filter_mapINtB5_9FilterMapINtNtNtBb_5slice4iter4IterReENCNvMs4_CseYC8vFNOjrM_2ccNtB1L_5Build25get_base_archiver_variants1_0ENtNtNtB9_6traits8iterator8Iterator4nextB1L_, symObjAddr: 0x3870, symBinAddr: 0x10006BBF0, symSize: 0x30 }
  - { offset: 0xD5796, size: 0x8, addend: 0x0, symName: __RINvYINtNtNtNtCsieiGu2EXtoJ_4core4iter8adapters6cloned6ClonedINtNtNtBc_5slice4iter4IterRNtNtNtCsHUR1vrdMJt_3std3ffi6os_str5OsStrEENtNtNtBa_6traits8iterator8Iterator5chainINtNtB8_3map3MapIBY_NtNtCslJiobkLta79_5alloc6string6StringEINvMsl_B1q_B1o_3newB32_EEECseYC8vFNOjrM_2cc, symObjAddr: 0x1470, symBinAddr: 0x100069890, symSize: 0xC0 }
  - { offset: 0xD580C, size: 0x8, addend: 0x0, symName: __RINvYNtNtCsHUR1vrdMJt_3std4path10ComponentsNtNtNtNtCsieiGu2EXtoJ_4core4iter6traits8iterator8Iterator4foldjNCNvYB3_BF_5count0ECseYC8vFNOjrM_2cc, symObjAddr: 0x1700, symBinAddr: 0x100069B20, symSize: 0x180 }
  - { offset: 0xD5906, size: 0x8, addend: 0x0, symName: __RNvYNtNtCsHUR1vrdMJt_3std4path10ComponentsNtNtNtNtCsieiGu2EXtoJ_4core4iter6traits8iterator8Iterator5countCseYC8vFNOjrM_2cc, symObjAddr: 0x5800, symBinAddr: 0x10006DB80, symSize: 0x10 }
  - { offset: 0xD59CA, size: 0x8, addend: 0x0, symName: __RINvYNtNtCsHUR1vrdMJt_3std4path10ComponentsNtNtNtNtCsieiGu2EXtoJ_4core4iter6traits12double_ended19DoubleEndedIterator9try_rfolduNCINvNvNtNtBJ_8iterator8Iterator12try_for_each4callNtB5_9ComponentINtNtNtBN_3ops12control_flow11ControlFlowIB37_uNtNtBN_3cmp8OrderingEENCINvNvB2b_12iter_compare7compareINtNtNtBL_8adapters3rev3RevB3_EB2R_uNCINvNvB29_5eq_by7compareB2R_B2R_NCINvYB4K_B29_2eqB4K_E0E0E0E0B36_ECseYC8vFNOjrM_2cc, symObjAddr: 0x1530, symBinAddr: 0x100069950, symSize: 0x1D0 }
  - { offset: 0xD5C3A, size: 0x8, addend: 0x0, symName: __RNvXs_NtNtCsieiGu2EXtoJ_4core5slice4iterRSRNtNtCsHUR1vrdMJt_3std4path4PathNtNtNtNtB8_4iter6traits7collect12IntoIterator9into_iterCseYC8vFNOjrM_2cc, symObjAddr: 0x4B40, symBinAddr: 0x10006CEC0, symSize: 0x50 }
  - { offset: 0xD5F2B, size: 0x8, addend: 0x0, symName: __RNvMNtCsieiGu2EXtoJ_4core5sliceSRNtNtCsHUR1vrdMJt_3std4path4Path18split_at_uncheckedCseYC8vFNOjrM_2cc, symObjAddr: 0x1940, symBinAddr: 0x100069D60, symSize: 0xF0 }
  - { offset: 0xD6085, size: 0x8, addend: 0x0, symName: __RNvMNtCsieiGu2EXtoJ_4core5sliceSRNtNtCsHUR1vrdMJt_3std4path4Path6chunksCseYC8vFNOjrM_2cc, symObjAddr: 0x1A30, symBinAddr: 0x100069E50, symSize: 0xB0 }
  - { offset: 0xD61E4, size: 0x8, addend: 0x0, symName: __RNvXNtNtCsieiGu2EXtoJ_4core5slice3cmpSINtNtCslJiobkLta79_5alloc5boxed3BoxNtNtNtCsHUR1vrdMJt_3std3ffi6os_str5OsStrENtNtB6_3cmp9PartialEq2eqCseYC8vFNOjrM_2cc, symObjAddr: 0x3720, symBinAddr: 0x10006BAA0, symSize: 0x30 }
  - { offset: 0xD626F, size: 0x8, addend: 0x0, symName: __RNvXs2_NtNtCsieiGu2EXtoJ_4core5slice3cmpSINtNtCslJiobkLta79_5alloc5boxed3BoxNtNtNtCsHUR1vrdMJt_3std3ffi6os_str5OsStrEINtB5_14SlicePartialEqBD_E5equalCseYC8vFNOjrM_2cc, symObjAddr: 0x4030, symBinAddr: 0x10006C3B0, symSize: 0x100 }
  - { offset: 0xD632F, size: 0x8, addend: 0x0, symName: __RINvXs2_NtNtCsieiGu2EXtoJ_4core4hash5implsSINtNtCslJiobkLta79_5alloc5boxed3BoxNtNtNtCsHUR1vrdMJt_3std3ffi6os_str5OsStrENtB8_4Hash4hashNtNtNtB1k_4hash6random13DefaultHasherECseYC8vFNOjrM_2cc, symObjAddr: 0x1190, symBinAddr: 0x1000695B0, symSize: 0x50 }
  - { offset: 0xD6380, size: 0x8, addend: 0x0, symName: __RINvXs3_NtNtCsieiGu2EXtoJ_4core4hash5implsRINtNtCslJiobkLta79_5alloc5boxed3BoxSIBG_NtNtNtCsHUR1vrdMJt_3std3ffi6os_str5OsStrEENtB8_4Hash4hashNtNtNtB1p_4hash6random13DefaultHasherECseYC8vFNOjrM_2cc, symObjAddr: 0x11E0, symBinAddr: 0x100069600, symSize: 0x20 }
  - { offset: 0xD63CB, size: 0x8, addend: 0x0, symName: __RINvXs3_NtNtCsieiGu2EXtoJ_4core4hash5implsRINtNtCslJiobkLta79_5alloc5boxed3BoxeENtB8_4Hash4hashNtNtNtCsHUR1vrdMJt_3std4hash6random13DefaultHasherECseYC8vFNOjrM_2cc, symObjAddr: 0x1200, symBinAddr: 0x100069620, symSize: 0x20 }
  - { offset: 0xD641D, size: 0x8, addend: 0x0, symName: __RINvYINtNtCslJiobkLta79_5alloc5boxed3BoxNtNtNtCsHUR1vrdMJt_3std3ffi6os_str5OsStrENtNtCsieiGu2EXtoJ_4core4hash4Hash10hash_sliceNtNtNtBI_4hash6random13DefaultHasherECseYC8vFNOjrM_2cc, symObjAddr: 0x13E0, symBinAddr: 0x100069800, symSize: 0x90 }
  - { offset: 0xD7307, size: 0x8, addend: 0x0, symName: __RNvNvMNtNtCsieiGu2EXtoJ_4core5alloc6layoutNtB4_6Layout25from_size_align_unchecked18precondition_checkCseYC8vFNOjrM_2cc, symObjAddr: 0x2460, symBinAddr: 0x10006A7E0, symSize: 0xB0 }
  - { offset: 0xD7375, size: 0x8, addend: 0x0, symName: __RNvNvMNtNtCsieiGu2EXtoJ_4core5alloc6layoutNtB4_6Layout5array5innerCseYC8vFNOjrM_2cc, symObjAddr: 0x2510, symBinAddr: 0x10006A890, symSize: 0xE0 }
  - { offset: 0xD744F, size: 0x8, addend: 0x0, symName: __RNvXsc_NtNtCsieiGu2EXtoJ_4core5alloc6layoutNtB5_11LayoutErrorNtNtB9_3fmt5Debug3fmtCseYC8vFNOjrM_2cc, symObjAddr: 0x4C20, symBinAddr: 0x10006CFA0, symSize: 0x40 }
  - { offset: 0xD74B3, size: 0x8, addend: 0x0, symName: __RNvXNtCsieiGu2EXtoJ_4core7convertRNtNtCsHUR1vrdMJt_3std4path4PathINtB2_5AsRefNtNtNtBA_3ffi6os_str5OsStrE6as_refCseYC8vFNOjrM_2cc, symObjAddr: 0x36B0, symBinAddr: 0x10006BA30, symSize: 0x30 }
  - { offset: 0xD74F3, size: 0x8, addend: 0x0, symName: __RNvXNtCsieiGu2EXtoJ_4core7convertRNtNtCsHUR1vrdMJt_3std4path7PathBufINtB2_5AsRefNtBy_4PathE6as_refCseYC8vFNOjrM_2cc, symObjAddr: 0x36E0, symBinAddr: 0x10006BA60, symSize: 0x20 }
  - { offset: 0xD7533, size: 0x8, addend: 0x0, symName: __RNvXNtCsieiGu2EXtoJ_4core7convertRRNtNtCsHUR1vrdMJt_3std4path4PathINtB2_5AsRefNtNtNtBB_3ffi6os_str5OsStrE6as_refCseYC8vFNOjrM_2cc, symObjAddr: 0x3700, symBinAddr: 0x10006BA80, symSize: 0x20 }
  - { offset: 0xD7579, size: 0x8, addend: 0x0, symName: __RNvXs1_NtCsieiGu2EXtoJ_4core7convertNtNtCsHUR1vrdMJt_3std4path7PathBufINtB5_4IntoNtNtNtBC_3ffi6os_str8OsStringE4intoCseYC8vFNOjrM_2cc, symObjAddr: 0x3D90, symBinAddr: 0x10006C110, symSize: 0x20 }
  - { offset: 0xD75BA, size: 0x8, addend: 0x0, symName: __RNvXs1_NtCsieiGu2EXtoJ_4core7convertRNtNtCsHUR1vrdMJt_3std4path4PathINtB5_4IntoINtNtCslJiobkLta79_5alloc4sync3ArcBz_EE4intoCseYC8vFNOjrM_2cc, symObjAddr: 0x3DB0, symBinAddr: 0x10006C130, symSize: 0x20 }
  - { offset: 0xD75FA, size: 0x8, addend: 0x0, symName: __RNvXs1_NtCsieiGu2EXtoJ_4core7convertRNtNtCsHUR1vrdMJt_3std4path4PathINtB5_4IntoNtBB_7PathBufE4intoCseYC8vFNOjrM_2cc, symObjAddr: 0x3DD0, symBinAddr: 0x10006C150, symSize: 0x30 }
  - { offset: 0xD7908, size: 0x8, addend: 0x0, symName: __RNvXNtCsieiGu2EXtoJ_4core6borrowINtNtCslJiobkLta79_5alloc5boxed3BoxSIBv_NtNtNtCsHUR1vrdMJt_3std3ffi6os_str5OsStrEEINtB2_6BorrowBu_E6borrowCseYC8vFNOjrM_2cc, symObjAddr: 0x3690, symBinAddr: 0x10006BA10, symSize: 0x10 }
  - { offset: 0xD793D, size: 0x8, addend: 0x0, symName: __RNvXNtCsieiGu2EXtoJ_4core6borrowINtNtCslJiobkLta79_5alloc5boxed3BoxeEINtB2_6BorrowBu_E6borrowCseYC8vFNOjrM_2cc, symObjAddr: 0x36A0, symBinAddr: 0x10006BA20, symSize: 0x10 }
  - { offset: 0xD7C1F, size: 0x8, addend: 0x0, symName: __RINvXs1h_NtCsHUR1vrdMJt_3std4pathNtB7_4PathNtNtCsieiGu2EXtoJ_4core4hash4Hash4hashNtNtNtB9_4hash6random13DefaultHasherECseYC8vFNOjrM_2cc, symObjAddr: 0xD00, symBinAddr: 0x100069120, symSize: 0x490 }
  - { offset: 0xD80B4, size: 0x8, addend: 0x0, symName: __RNvXsH_NtCsHUR1vrdMJt_3std4pathNtB5_7PathBufNtNtNtCsieiGu2EXtoJ_4core3ops5deref5Deref5derefCseYC8vFNOjrM_2cc, symObjAddr: 0x4A10, symBinAddr: 0x10006CD90, symSize: 0x30 }
  - { offset: 0xD8160, size: 0x8, addend: 0x0, symName: __RNvXs15_NtCsHUR1vrdMJt_3std4pathNtB6_7PathBufINtNtCsieiGu2EXtoJ_4core7convert5AsRefNtNtNtB8_3ffi6os_str5OsStrE6as_refCseYC8vFNOjrM_2cc, symObjAddr: 0x38A0, symBinAddr: 0x10006BC20, symSize: 0x20 }
  - { offset: 0xD8194, size: 0x8, addend: 0x0, symName: __RNvXs18_NtCsHUR1vrdMJt_3std4pathNtB6_4PathINtNtCsieiGu2EXtoJ_4core7convert5AsRefNtNtNtB8_3ffi6os_str5OsStrE6as_refCseYC8vFNOjrM_2cc, symObjAddr: 0x38C0, symBinAddr: 0x10006BC40, symSize: 0x20 }
  - { offset: 0xD81C8, size: 0x8, addend: 0x0, symName: __RNvXs1F_NtCsHUR1vrdMJt_3std4pathNtB6_6PrefixNtNtCsieiGu2EXtoJ_4core3cmp9PartialEq2eqCseYC8vFNOjrM_2cc, symObjAddr: 0x38E0, symBinAddr: 0x10006BC60, symSize: 0x370 }
  - { offset: 0xD8661, size: 0x8, addend: 0x0, symName: __RNvXs1U_NtCsHUR1vrdMJt_3std4pathNtB6_9ComponentNtNtCsieiGu2EXtoJ_4core3cmp9PartialEq2eqCseYC8vFNOjrM_2cc, symObjAddr: 0x3C50, symBinAddr: 0x10006BFD0, symSize: 0x140 }
  - { offset: 0xD87A4, size: 0x8, addend: 0x0, symName: __RNvXs1c_NtCsHUR1vrdMJt_3std4pathNtB6_4PathNtNtCsieiGu2EXtoJ_4core3cmp9PartialEq2eqCseYC8vFNOjrM_2cc, symObjAddr: 0x3F90, symBinAddr: 0x10006C310, symSize: 0x70 }
  - { offset: 0xD87E7, size: 0x8, addend: 0x0, symName: __RNvXs1r_NtCsHUR1vrdMJt_3std4pathNtB6_7PathBufINtNtCsieiGu2EXtoJ_4core7convert5AsRefNtB6_4PathE6as_refCseYC8vFNOjrM_2cc, symObjAddr: 0x4000, symBinAddr: 0x10006C380, symSize: 0x30 }
  - { offset: 0xD88E6, size: 0x8, addend: 0x0, symName: __RNvXsC_NtCsHUR1vrdMJt_3std4pathNtB5_7PathBufINtNtCsieiGu2EXtoJ_4core7convert4FromNtNtCslJiobkLta79_5alloc6string6StringE4fromCseYC8vFNOjrM_2cc, symObjAddr: 0x49A0, symBinAddr: 0x10006CD20, symSize: 0x70 }
  - { offset: 0xD895A, size: 0x8, addend: 0x0, symName: __RNvXsJ_NtCsHUR1vrdMJt_3std4pathNtB5_7PathBufINtNtCsieiGu2EXtoJ_4core6borrow6BorrowNtB5_4PathE6borrowCseYC8vFNOjrM_2cc, symObjAddr: 0x4A40, symBinAddr: 0x10006CDC0, symSize: 0x30 }
  - { offset: 0xD8A24, size: 0x8, addend: 0x0, symName: __RNvXsV_NtCsHUR1vrdMJt_3std4pathNtB5_4PathNtNtCslJiobkLta79_5alloc6borrow7ToOwned8to_ownedCseYC8vFNOjrM_2cc, symObjAddr: 0x4B10, symBinAddr: 0x10006CE90, symSize: 0x30 }
  - { offset: 0xD8A58, size: 0x8, addend: 0x0, symName: __RNvXsO_NtCsHUR1vrdMJt_3std4pathNtB5_7PathBufINtNtCsieiGu2EXtoJ_4core7convert4FromINtNtCslJiobkLta79_5alloc6borrow3CowNtB5_4PathEE4fromCseYC8vFNOjrM_2cc, symObjAddr: 0x4A70, symBinAddr: 0x10006CDF0, symSize: 0xA0 }
  - { offset: 0xD8BDE, size: 0x8, addend: 0x0, symName: __RNvXsl_NtCsHUR1vrdMJt_3std4pathNtB5_10ComponentsNtNtCsieiGu2EXtoJ_4core3cmp9PartialEq2eqCseYC8vFNOjrM_2cc, symObjAddr: 0x4F50, symBinAddr: 0x10006D2D0, symSize: 0x580 }
  - { offset: 0xD90A2, size: 0x8, addend: 0x0, symName: __RNvXss_NtCsHUR1vrdMJt_3std4pathNtB5_7PathBufNtNtCsieiGu2EXtoJ_4core5clone5Clone10clone_fromCseYC8vFNOjrM_2cc, symObjAddr: 0x5570, symBinAddr: 0x10006D8F0, symSize: 0x40 }
  - { offset: 0xD9127, size: 0x8, addend: 0x0, symName: __RNvXss_NtCsHUR1vrdMJt_3std4pathNtB5_7PathBufNtNtCsieiGu2EXtoJ_4core5clone5Clone5cloneCseYC8vFNOjrM_2cc, symObjAddr: 0x55B0, symBinAddr: 0x10006D930, symSize: 0x90 }
  - { offset: 0xD9197, size: 0x8, addend: 0x0, symName: __RNvXsz_NtCsHUR1vrdMJt_3std4pathNtB5_7PathBufINtNtCsieiGu2EXtoJ_4core7convert4FromRNtB5_4PathE4fromCseYC8vFNOjrM_2cc, symObjAddr: 0x5640, symBinAddr: 0x10006D9C0, symSize: 0xE0 }
  - { offset: 0xD926E, size: 0x8, addend: 0x0, symName: __RNvXsz_NtCsHUR1vrdMJt_3std4pathNtB5_7PathBufINtNtCsieiGu2EXtoJ_4core7convert4FromReE4fromCseYC8vFNOjrM_2cc, symObjAddr: 0x5720, symBinAddr: 0x10006DAA0, symSize: 0xE0 }
  - { offset: 0xD9A9E, size: 0x8, addend: 0x0, symName: __RNCNvMs9_NtNtNtCsHUR1vrdMJt_3std4sync6poison5mutexINtB7_10MutexGuardNtNtNtBb_4mpmc4zero5InnerE3new0CseYC8vFNOjrM_2cc, symObjAddr: 0x18E0, symBinAddr: 0x100069D00, symSize: 0x20 }
  - { offset: 0xD9AE6, size: 0x8, addend: 0x0, symName: __RNCNvMs9_NtNtNtCsHUR1vrdMJt_3std4sync6poison5mutexINtB7_10MutexGuardNtNtNtBb_4mpmc5waker5WakerE3new0CseYC8vFNOjrM_2cc, symObjAddr: 0x1900, symBinAddr: 0x100069D20, symSize: 0x20 }
  - { offset: 0xD9B2E, size: 0x8, addend: 0x0, symName: __RNCNvMs9_NtNtNtCsHUR1vrdMJt_3std4sync6poison5mutexINtB7_10MutexGuardbE3new0CseYC8vFNOjrM_2cc, symObjAddr: 0x1920, symBinAddr: 0x100069D40, symSize: 0x20 }
  - { offset: 0xD9DCB, size: 0x8, addend: 0x0, symName: __RNvXs7_NtNtNtCsHUR1vrdMJt_3std4sync6poison5mutexINtB5_5MutexNtCslzRnRZxZnvp_9jobserver11HelperInnerENtNtCsieiGu2EXtoJ_4core7default7Default7defaultCseYC8vFNOjrM_2cc, symObjAddr: 0x4900, symBinAddr: 0x10006CC80, symSize: 0x80 }
  - { offset: 0xD9E96, size: 0x8, addend: 0x0, symName: __RNvXsa_NtNtNtCsHUR1vrdMJt_3std4sync6poison5mutexINtB5_10MutexGuardbENtNtNtCsieiGu2EXtoJ_4core3ops5deref5Deref5derefCseYC8vFNOjrM_2cc, symObjAddr: 0x4BE0, symBinAddr: 0x10006CF60, symSize: 0x20 }
  - { offset: 0xD9EE8, size: 0x8, addend: 0x0, symName: __RNvXsb_NtNtNtCsHUR1vrdMJt_3std4sync6poison5mutexINtB5_10MutexGuardbENtNtNtCsieiGu2EXtoJ_4core3ops5deref8DerefMut9deref_mutCseYC8vFNOjrM_2cc, symObjAddr: 0x4C00, symBinAddr: 0x10006CF80, symSize: 0x20 }
  - { offset: 0xD9F3A, size: 0x8, addend: 0x0, symName: __RNvXsc_NtNtNtCsHUR1vrdMJt_3std4sync6poison5mutexINtB5_10MutexGuardNtNtNtB9_4mpmc4zero5InnerENtNtNtCsieiGu2EXtoJ_4core3ops4drop4Drop4dropCseYC8vFNOjrM_2cc, symObjAddr: 0x4C60, symBinAddr: 0x10006CFE0, symSize: 0x60 }
  - { offset: 0xD9FB5, size: 0x8, addend: 0x0, symName: __RNvXsc_NtNtNtCsHUR1vrdMJt_3std4sync6poison5mutexINtB5_10MutexGuardNtNtNtB9_4mpmc5waker5WakerENtNtNtCsieiGu2EXtoJ_4core3ops4drop4Drop4dropCseYC8vFNOjrM_2cc, symObjAddr: 0x4CC0, symBinAddr: 0x10006D040, symSize: 0x60 }
  - { offset: 0xDA030, size: 0x8, addend: 0x0, symName: __RNvXsc_NtNtNtCsHUR1vrdMJt_3std4sync6poison5mutexINtB5_10MutexGuardbENtNtNtCsieiGu2EXtoJ_4core3ops4drop4Drop4dropCseYC8vFNOjrM_2cc, symObjAddr: 0x4D20, symBinAddr: 0x10006D0A0, symSize: 0x60 }
  - { offset: 0xDA686, size: 0x8, addend: 0x0, symName: __RINvNtNtNtNtCsHUR1vrdMJt_3std3sys12thread_local6native4lazy7destroyINtNtCsieiGu2EXtoJ_4core4cell4CellINtNtB18_6option6OptionNtNtNtNtBa_4sync4mpmc7context7ContextEEECseYC8vFNOjrM_2cc, symObjAddr: 0xBB0, symBinAddr: 0x100068FD0, symSize: 0x30 }
  - { offset: 0xDA6BC, size: 0x8, addend: 0x0, symName: __RINvXNtNtNtNtCsHUR1vrdMJt_3std3sys12thread_local6native4lazyzNtB3_14DestroyedState13register_dtorINtNtCsieiGu2EXtoJ_4core4cell4CellTyyEEECseYC8vFNOjrM_2cc, symObjAddr: 0xCF0, symBinAddr: 0x100069110, symSize: 0x10 }
  - { offset: 0xDA6EF, size: 0x8, addend: 0x0, symName: __RINvXs_NtNtNtNtCsHUR1vrdMJt_3std3sys12thread_local6native4lazyuNtB5_14DestroyedState13register_dtorINtNtCsieiGu2EXtoJ_4core4cell4CellINtNtB1E_6option6OptionNtNtNtNtBd_4sync4mpmc7context7ContextEEECseYC8vFNOjrM_2cc, symObjAddr: 0x12B0, symBinAddr: 0x1000696D0, symSize: 0x30 }
  - { offset: 0xDA743, size: 0x8, addend: 0x0, symName: __RNCINvNtNtNtNtCsHUR1vrdMJt_3std3sys12thread_local6native4lazy7destroyINtNtCsieiGu2EXtoJ_4core4cell4CellINtNtB1a_6option6OptionNtNtNtNtBc_4sync4mpmc7context7ContextEEE0CseYC8vFNOjrM_2cc, symObjAddr: 0x1880, symBinAddr: 0x100069CA0, symSize: 0x60 }
  - { offset: 0xDAB76, size: 0x8, addend: 0x0, symName: __RNvXNvMs0_NtNtCsHUR1vrdMJt_3std3ffi6os_strNtB8_8OsString4pushNtNtBc_4path7PathBufNtB2_10SpecPushTo12spec_push_toCseYC8vFNOjrM_2cc, symObjAddr: 0x3750, symBinAddr: 0x10006BAD0, symSize: 0x80 }
  - { offset: 0xDACF4, size: 0x8, addend: 0x0, symName: __RNvXNvMs0_NtNtCsHUR1vrdMJt_3std3ffi6os_strNtB8_8OsString4pushRNtNtBc_4path4PathNtB2_10SpecPushTo12spec_push_toCseYC8vFNOjrM_2cc, symObjAddr: 0x37D0, symBinAddr: 0x10006BB50, symSize: 0x80 }
  - { offset: 0xDAE91, size: 0x8, addend: 0x0, symName: __RNvXsm_NtNtCsHUR1vrdMJt_3std3ffi6os_strINtNtCslJiobkLta79_5alloc5boxed3BoxNtB5_5OsStrEINtNtCsieiGu2EXtoJ_4core7convert4FromRB1a_E4fromCseYC8vFNOjrM_2cc, symObjAddr: 0x5500, symBinAddr: 0x10006D880, symSize: 0x70 }
  - { offset: 0xDB76A, size: 0x8, addend: 0x0, symName: __RINvMs0_NtNtNtNtCsHUR1vrdMJt_3std3sys12thread_local6native4lazyINtB6_7StorageINtNtCsieiGu2EXtoJ_4core4cell4CellINtNtB1i_6option6OptionNtNtNtNtBe_4sync4mpmc7context7ContextEEuE11get_or_initNvNvNvMB2a_B28_4with7CONTEXT6___initECseYC8vFNOjrM_2cc, symObjAddr: 0x0, symBinAddr: 0x100068930, symSize: 0x80 }
  - { offset: 0xDB9B3, size: 0x8, addend: 0x0, symName: __RINvMs0_NtNtNtNtCsHUR1vrdMJt_3std3sys12thread_local6native4lazyINtB6_7StorageINtNtCsieiGu2EXtoJ_4core4cell4CellINtNtB1i_6option6OptionNtNtNtNtBe_4sync4mpmc7context7ContextEEuE16get_or_init_slowNvNvNvMB2a_B28_4with7CONTEXT6___initECseYC8vFNOjrM_2cc, symObjAddr: 0x80, symBinAddr: 0x100115CC0, symSize: 0x200 }
  - { offset: 0xDBD58, size: 0x8, addend: 0x0, symName: __RINvMs0_NtNtNtNtCsHUR1vrdMJt_3std3sys12thread_local6native4lazyINtB6_7StorageINtNtCsieiGu2EXtoJ_4core4cell4CellTyyEEzE11get_or_initNvNvNvMNtNtBe_4hash6randomNtB2c_11RandomState3new4KEYS6___initECseYC8vFNOjrM_2cc, symObjAddr: 0x280, symBinAddr: 0x1000689B0, symSize: 0x90 }
  - { offset: 0xDBF38, size: 0x8, addend: 0x0, symName: __RINvMs0_NtNtNtNtCsHUR1vrdMJt_3std3sys12thread_local6native4lazyINtB6_7StorageINtNtCsieiGu2EXtoJ_4core4cell4CellTyyEEzE16get_or_init_slowNvNvNvMNtNtBe_4hash6randomNtB2h_11RandomState3new4KEYS6___initECseYC8vFNOjrM_2cc, symObjAddr: 0x310, symBinAddr: 0x100115EC0, symSize: 0x260 }
  - { offset: 0xDC22D, size: 0x8, addend: 0x0, symName: __RINvMs16_NtCsHUR1vrdMJt_3std4pathNtB7_4Path14with_extensionReECseYC8vFNOjrM_2cc, symObjAddr: 0x570, symBinAddr: 0x100068A40, symSize: 0x80 }
  - { offset: 0xDC268, size: 0x8, addend: 0x0, symName: __RINvMs16_NtCsHUR1vrdMJt_3std4pathNtB7_4Path14with_file_nameNtNtCslJiobkLta79_5alloc6string6StringECseYC8vFNOjrM_2cc, symObjAddr: 0x5F0, symBinAddr: 0x100068AC0, symSize: 0x90 }
  - { offset: 0xDC2D9, size: 0x8, addend: 0x0, symName: __RINvMs16_NtCsHUR1vrdMJt_3std4pathNtB7_4Path3newINtNtCslJiobkLta79_5alloc4sync3ArcNtNtNtB9_3ffi6os_str5OsStrEECseYC8vFNOjrM_2cc, symObjAddr: 0x680, symBinAddr: 0x100068B50, symSize: 0x20 }
  - { offset: 0xDC339, size: 0x8, addend: 0x0, symName: __RINvMs16_NtCsHUR1vrdMJt_3std4pathNtB7_4Path3newRNtNtNtB9_3ffi6os_str5OsStrECseYC8vFNOjrM_2cc, symObjAddr: 0x6A0, symBinAddr: 0x100068B70, symSize: 0x20 }
  - { offset: 0xDC365, size: 0x8, addend: 0x0, symName: __RINvMs16_NtCsHUR1vrdMJt_3std4pathNtB7_4Path4joinNtNtCslJiobkLta79_5alloc6string6StringECseYC8vFNOjrM_2cc, symObjAddr: 0x6C0, symBinAddr: 0x100068B90, symSize: 0x90 }
  - { offset: 0xDC3A2, size: 0x8, addend: 0x0, symName: __RINvMs16_NtCsHUR1vrdMJt_3std4pathNtB7_4Path4joinRBv_ECseYC8vFNOjrM_2cc, symObjAddr: 0x750, symBinAddr: 0x100068C20, symSize: 0x80 }
  - { offset: 0xDC3EA, size: 0x8, addend: 0x0, symName: __RINvMs16_NtCsHUR1vrdMJt_3std4pathNtB7_4Path4joinRNtNtCslJiobkLta79_5alloc6string6StringECseYC8vFNOjrM_2cc, symObjAddr: 0x7D0, symBinAddr: 0x100068CA0, symSize: 0x80 }
  - { offset: 0xDC42C, size: 0x8, addend: 0x0, symName: __RINvMs16_NtCsHUR1vrdMJt_3std4pathNtB7_4Path9ends_withRBv_ECseYC8vFNOjrM_2cc, symObjAddr: 0x850, symBinAddr: 0x100068D20, symSize: 0x70 }
  - { offset: 0xDC474, size: 0x8, addend: 0x0, symName: __RINvMsr_NtCsHUR1vrdMJt_3std4pathNtB6_7PathBuf13set_extensionReECseYC8vFNOjrM_2cc, symObjAddr: 0x8C0, symBinAddr: 0x100068D90, symSize: 0x70 }
  - { offset: 0xDC4AF, size: 0x8, addend: 0x0, symName: __RINvMsr_NtCsHUR1vrdMJt_3std4pathNtB6_7PathBuf4pushReECseYC8vFNOjrM_2cc, symObjAddr: 0x930, symBinAddr: 0x100068E00, symSize: 0x60 }
  - { offset: 0xDC7CD, size: 0x8, addend: 0x0, symName: __RNvXCsjK30CmJ87bX_9hashbrownINtNtCslJiobkLta79_5alloc5boxed3BoxSIBr_NtNtNtCsHUR1vrdMJt_3std3ffi6os_str5OsStrEEINtB2_10EquivalentBq_E10equivalentCseYC8vFNOjrM_2cc, symObjAddr: 0x35F0, symBinAddr: 0x10006B970, symSize: 0x50 }
  - { offset: 0xDC83E, size: 0x8, addend: 0x0, symName: __RNvXCsjK30CmJ87bX_9hashbrownINtNtCslJiobkLta79_5alloc5boxed3BoxeEINtB2_10EquivalentBq_E10equivalentCseYC8vFNOjrM_2cc, symObjAddr: 0x3640, symBinAddr: 0x10006B9C0, symSize: 0x50 }
  - { offset: 0xDCDC3, size: 0x8, addend: 0x0, symName: __RNvMs16_NtCsHUR1vrdMJt_3std4pathNtB6_4Path15to_string_lossyCseYC8vFNOjrM_2cc, symObjAddr: 0x1AE0, symBinAddr: 0x100069F00, symSize: 0x40 }
  - { offset: 0xDD01B, size: 0x8, addend: 0x0, symName: __RNvMs16_NtCsHUR1vrdMJt_3std4pathNtB6_4Path6existsCseYC8vFNOjrM_2cc, symObjAddr: 0x1B20, symBinAddr: 0x100069F40, symSize: 0x60 }
  - { offset: 0xDD05C, size: 0x8, addend: 0x0, symName: __RNvMs16_NtCsHUR1vrdMJt_3std4pathNtB6_4Path7displayCseYC8vFNOjrM_2cc, symObjAddr: 0x1C00, symBinAddr: 0x100069FA0, symSize: 0x20 }
  - { offset: 0xDD07F, size: 0x8, addend: 0x0, symName: __RNvMs16_NtCsHUR1vrdMJt_3std4pathNtB6_4Path9as_os_strCseYC8vFNOjrM_2cc, symObjAddr: 0x1C20, symBinAddr: 0x100069FC0, symSize: 0x20 }
  - { offset: 0xDD142, size: 0x8, addend: 0x0, symName: __RNvMs1_NtNtNtCsHUR1vrdMJt_3std4sync4mpmc5utilsNtB5_7Backoff10spin_heavyCseYC8vFNOjrM_2cc, symObjAddr: 0x1C40, symBinAddr: 0x100069FE0, symSize: 0xD0 }
  - { offset: 0xDD34C, size: 0x8, addend: 0x0, symName: __RNvMs1_NtNtNtCsHUR1vrdMJt_3std4sync4mpmc5utilsNtB5_7Backoff10spin_lightCseYC8vFNOjrM_2cc, symObjAddr: 0x1D10, symBinAddr: 0x10006A0B0, symSize: 0xD0 }
  - { offset: 0xDD55C, size: 0x8, addend: 0x0, symName: __RNvMs4_NtNtNtCsHUR1vrdMJt_3std4sync6poison5mutexINtB5_5MutexbE3newCseYC8vFNOjrM_2cc, symObjAddr: 0x1DE0, symBinAddr: 0x10006A180, symSize: 0x50 }
  - { offset: 0xDD66D, size: 0x8, addend: 0x0, symName: __RNvMs5_NtNtNtCsHUR1vrdMJt_3std4sync6poison5mutexINtB5_5MutexNtNtNtB9_4mpmc4zero5InnerE4lockCseYC8vFNOjrM_2cc, symObjAddr: 0x1E30, symBinAddr: 0x10006A1D0, symSize: 0x60 }
  - { offset: 0xDD73F, size: 0x8, addend: 0x0, symName: __RNvMs5_NtNtNtCsHUR1vrdMJt_3std4sync6poison5mutexINtB5_5MutexNtNtNtB9_4mpmc5waker5WakerE4lockCseYC8vFNOjrM_2cc, symObjAddr: 0x1E90, symBinAddr: 0x10006A230, symSize: 0x60 }
  - { offset: 0xDD811, size: 0x8, addend: 0x0, symName: __RNvMs5_NtNtNtCsHUR1vrdMJt_3std4sync6poison5mutexINtB5_5MutexbE4lockCseYC8vFNOjrM_2cc, symObjAddr: 0x1EF0, symBinAddr: 0x10006A290, symSize: 0x60 }
  - { offset: 0xDDD87, size: 0x8, addend: 0x0, symName: __RNvMsr_NtCsHUR1vrdMJt_3std4pathNtB5_7PathBuf3newCseYC8vFNOjrM_2cc, symObjAddr: 0x22F0, symBinAddr: 0x10006A670, symSize: 0x70 }
  - { offset: 0xDDE25, size: 0x8, addend: 0x0, symName: __RNvMsr_NtCsHUR1vrdMJt_3std4pathNtB5_7PathBuf7as_pathCseYC8vFNOjrM_2cc, symObjAddr: 0x2360, symBinAddr: 0x10006A6E0, symSize: 0x30 }
  - { offset: 0xDF314, size: 0x8, addend: 0x0, symName: __RINvMs2_NtCsHUR1vrdMJt_3std2fsNtB6_4File6createRNtNtB8_4path7PathBufECseYC8vFNOjrM_2cc, symObjAddr: 0x0, symBinAddr: 0x10006DB90, symSize: 0xC0 }
  - { offset: 0xE0634, size: 0x8, addend: 0x0, symName: __RNvXs7_NtNtCsieiGu2EXtoJ_4core3cmp5implsRbNtB7_9PartialEq2eqCseYC8vFNOjrM_2cc, symObjAddr: 0xB030, symBinAddr: 0x100078BA0, symSize: 0x30 }
  - { offset: 0xE0683, size: 0x8, addend: 0x0, symName: __RNvXs7_NtNtCsieiGu2EXtoJ_4core3cmp5implsReNtB7_9PartialEq2eqCseYC8vFNOjrM_2cc, symObjAddr: 0xB060, symBinAddr: 0x100078BD0, symSize: 0x40 }
  - { offset: 0xE06D8, size: 0x8, addend: 0x0, symName: __RNvXs9_NtNtCsieiGu2EXtoJ_4core3cmp5implsReNtB7_3Ord3cmpCseYC8vFNOjrM_2cc, symObjAddr: 0xB0A0, symBinAddr: 0x100078C10, symSize: 0x30 }
  - { offset: 0xE0724, size: 0x8, addend: 0x0, symName: __RNvXsh_NtNtCsieiGu2EXtoJ_4core3cmp5implsbNtB7_9PartialEq2eqCseYC8vFNOjrM_2cc, symObjAddr: 0xB1A0, symBinAddr: 0x100078D10, symSize: 0x20 }
  - { offset: 0xE0767, size: 0x8, addend: 0x0, symName: __RNvXsi_NtNtCsieiGu2EXtoJ_4core3cmp5implscNtB7_9PartialEq2eqCseYC8vFNOjrM_2cc, symObjAddr: 0xB230, symBinAddr: 0x100078DA0, symSize: 0x20 }
  - { offset: 0xE080B, size: 0x8, addend: 0x0, symName: __RNvYmNtNtCsieiGu2EXtoJ_4core3cmp3Ord3minCseYC8vFNOjrM_2cc, symObjAddr: 0xB6F0, symBinAddr: 0x100079260, symSize: 0x60 }
  - { offset: 0xE0877, size: 0x8, addend: 0x0, symName: __RNvYyNtNtCsieiGu2EXtoJ_4core3cmp3Ord3minCseYC8vFNOjrM_2cc, symObjAddr: 0xB750, symBinAddr: 0x1000792C0, symSize: 0x60 }
  - { offset: 0xE2B19, size: 0x8, addend: 0x0, symName: __RNvNvNtCsieiGu2EXtoJ_4core4hint16assert_unchecked18precondition_checkCseYC8vFNOjrM_2cc, symObjAddr: 0xA9D0, symBinAddr: 0x100078540, symSize: 0xA0 }
  - { offset: 0xE2B79, size: 0x8, addend: 0x0, symName: __RNvNvNtCsieiGu2EXtoJ_4core4hint21unreachable_unchecked18precondition_checkCseYC8vFNOjrM_2cc, symObjAddr: 0xAA70, symBinAddr: 0x1000785E0, symSize: 0x80 }
  - { offset: 0xE2E9C, size: 0x8, addend: 0x0, symName: __RNvXNtNtCsieiGu2EXtoJ_4core6future11into_futureNCNvMNtNtNtCseYC8vFNOjrM_2cc8parallel9job_token19inprocess_jobserverNtBO_9JobServer7acquire0NtB2_10IntoFuture11into_futureBU_, symObjAddr: 0xAB20, symBinAddr: 0x100078690, symSize: 0x30 }
  - { offset: 0xE2ED1, size: 0x8, addend: 0x0, symName: __RNvXNtNtCsieiGu2EXtoJ_4core6future11into_futureNCNvMs0_NtNtNtCseYC8vFNOjrM_2cc8parallel9job_token19inherited_jobserverNtBR_15ActiveJobServer7acquire0NtB2_10IntoFuture11into_futureBX_, symObjAddr: 0xAB50, symBinAddr: 0x1000786C0, symSize: 0x30 }
  - { offset: 0xE31BF, size: 0x8, addend: 0x0, symName: __RNvXs1_NtNtCsieiGu2EXtoJ_4core3ops5derefQNCNvNtNtCseYC8vFNOjrM_2cc8parallel14command_runner24run_commands_in_parallel0NtB5_8DerefMut9deref_mutBL_, symObjAddr: 0xADE0, symBinAddr: 0x100078950, symSize: 0x10 }
  - { offset: 0xE31F6, size: 0x8, addend: 0x0, symName: __RNvXs1_NtNtCsieiGu2EXtoJ_4core3ops5derefQNCNvNtNtCseYC8vFNOjrM_2cc8parallel14command_runner24run_commands_in_parallels_0NtB5_8DerefMut9deref_mutBL_, symObjAddr: 0xADF0, symBinAddr: 0x100078960, symSize: 0x10 }
  - { offset: 0xE3268, size: 0x8, addend: 0x0, symName: __RNvXNtNtNtCsieiGu2EXtoJ_4core5array4iter10iter_innerSINtNtNtB8_3mem12maybe_uninit11MaybeUninitNtNtNtCsHUR1vrdMJt_3std3ffi6os_str8OsStringENtB2_11PartialDrop12partial_dropCseYC8vFNOjrM_2cc, symObjAddr: 0xAB80, symBinAddr: 0x1000786F0, symSize: 0xE0 }
  - { offset: 0xE3378, size: 0x8, addend: 0x0, symName: __RNvXNtNtNtCsieiGu2EXtoJ_4core5array4iter10iter_innerSINtNtNtB8_3mem12maybe_uninit11MaybeUninitReENtB2_11PartialDrop12partial_dropCseYC8vFNOjrM_2cc, symObjAddr: 0xAC60, symBinAddr: 0x1000787D0, symSize: 0xB0 }
  - { offset: 0xE3488, size: 0x8, addend: 0x0, symName: __RNvXNtNtNtCsieiGu2EXtoJ_4core5array4iter10iter_innerSINtNtNtB8_3mem12maybe_uninit11MaybeUninitbENtB2_11PartialDrop12partial_dropCseYC8vFNOjrM_2cc, symObjAddr: 0xAD10, symBinAddr: 0x100078880, symSize: 0xB0 }
  - { offset: 0xE359E, size: 0x8, addend: 0x0, symName: __RNvXs_NtNtNtCsieiGu2EXtoJ_4core5array4iter10iter_innerAINtNtNtBa_3mem12maybe_uninit11MaybeUninitNtNtNtCsHUR1vrdMJt_3std3ffi6os_str8OsStringEj6_NtB4_11PartialDrop12partial_dropCseYC8vFNOjrM_2cc, symObjAddr: 0xB0D0, symBinAddr: 0x100078C40, symSize: 0x40 }
  - { offset: 0xE35FA, size: 0x8, addend: 0x0, symName: __RNvXs_NtNtNtCsieiGu2EXtoJ_4core5array4iter10iter_innerAINtNtNtBa_3mem12maybe_uninit11MaybeUninitReEj2_NtB4_11PartialDrop12partial_dropCseYC8vFNOjrM_2cc, symObjAddr: 0xB110, symBinAddr: 0x100078C80, symSize: 0x40 }
  - { offset: 0xE3656, size: 0x8, addend: 0x0, symName: __RNvXs_NtNtNtCsieiGu2EXtoJ_4core5array4iter10iter_innerAINtNtNtBa_3mem12maybe_uninit11MaybeUninitbEj20_NtB4_11PartialDrop12partial_dropCseYC8vFNOjrM_2cc, symObjAddr: 0xB150, symBinAddr: 0x100078CC0, symSize: 0x40 }
  - { offset: 0xE36CA, size: 0x8, addend: 0x0, symName: __RNvXsn_NtNtNtCsieiGu2EXtoJ_4core7convert3num18ptr_try_from_implsjINtB9_7TryFromlE8try_fromCseYC8vFNOjrM_2cc, symObjAddr: 0xB250, symBinAddr: 0x100078DC0, symSize: 0x50 }
  - { offset: 0xE3F6E, size: 0x8, addend: 0x0, symName: __RNvYNtNtCsHUR1vrdMJt_3std2fs4FileNtNtB6_2io5Write9write_allCseYC8vFNOjrM_2cc, symObjAddr: 0xB2A0, symBinAddr: 0x100078E10, symSize: 0x2E0 }
  - { offset: 0xE4114, size: 0x8, addend: 0x0, symName: __RNvYNtNtCsHUR1vrdMJt_3std2fs4FileNtNtB6_2io5Write9write_fmtCseYC8vFNOjrM_2cc, symObjAddr: 0xB580, symBinAddr: 0x1000790F0, symSize: 0x170 }
  - { offset: 0xE4E79, size: 0x8, addend: 0x0, symName: __RINvNtNtCsHUR1vrdMJt_3std4sync4mpmc7channelINtNtCsieiGu2EXtoJ_4core6result6ResultNtCslzRnRZxZnvp_9jobserver8AcquiredNtNtNtB6_2io5error5ErrorEECseYC8vFNOjrM_2cc, symObjAddr: 0x410, symBinAddr: 0x10006DFA0, symSize: 0x530 }
  - { offset: 0xE5138, size: 0x8, addend: 0x0, symName: __RNCNvMs2_NtNtCsHUR1vrdMJt_3std4sync4mpmcINtB7_6SenderINtNtCsieiGu2EXtoJ_4core6result6ResultNtCslzRnRZxZnvp_9jobserver8AcquiredNtNtNtBb_2io5error5ErrorEE4send0CseYC8vFNOjrM_2cc, symObjAddr: 0x2AB0, symBinAddr: 0x100070640, symSize: 0xC0 }
  - { offset: 0xE538C, size: 0x8, addend: 0x0, symName: __RNCNvXs4_NtNtCsHUR1vrdMJt_3std4sync4mpmcINtB7_6SenderINtNtCsieiGu2EXtoJ_4core6result6ResultNtCslzRnRZxZnvp_9jobserver8AcquiredNtNtNtBb_2io5error5ErrorEENtNtNtBU_3ops4drop4Drop4drop0CseYC8vFNOjrM_2cc, symObjAddr: 0x38B0, symBinAddr: 0x100071440, symSize: 0x20 }
  - { offset: 0xE53CE, size: 0x8, addend: 0x0, symName: __RNCNvXs4_NtNtCsHUR1vrdMJt_3std4sync4mpmcINtB7_6SenderINtNtCsieiGu2EXtoJ_4core6result6ResultNtCslzRnRZxZnvp_9jobserver8AcquiredNtNtNtBb_2io5error5ErrorEENtNtNtBU_3ops4drop4Drop4drops0_0CseYC8vFNOjrM_2cc, symObjAddr: 0x38D0, symBinAddr: 0x100071460, symSize: 0x20 }
  - { offset: 0xE5410, size: 0x8, addend: 0x0, symName: __RNCNvXs4_NtNtCsHUR1vrdMJt_3std4sync4mpmcINtB7_6SenderINtNtCsieiGu2EXtoJ_4core6result6ResultNtCslzRnRZxZnvp_9jobserver8AcquiredNtNtNtBb_2io5error5ErrorEENtNtNtBU_3ops4drop4Drop4drops_0CseYC8vFNOjrM_2cc, symObjAddr: 0x38F0, symBinAddr: 0x100071480, symSize: 0x20 }
  - { offset: 0xE5468, size: 0x8, addend: 0x0, symName: __RNvXs4_NtNtCsHUR1vrdMJt_3std4sync4mpmcINtB5_6SenderINtNtCsieiGu2EXtoJ_4core6result6ResultNtCslzRnRZxZnvp_9jobserver8AcquiredNtNtNtB9_2io5error5ErrorEENtNtNtBS_3ops4drop4Drop4dropCseYC8vFNOjrM_2cc, symObjAddr: 0xAFC0, symBinAddr: 0x100078B30, symSize: 0x70 }
  - { offset: 0xE5500, size: 0x8, addend: 0x0, symName: __RNCNvXsi_NtNtCsHUR1vrdMJt_3std4sync4mpmcINtB7_8ReceiverINtNtCsieiGu2EXtoJ_4core6result6ResultNtCslzRnRZxZnvp_9jobserver8AcquiredNtNtNtBb_2io5error5ErrorEENtNtNtBW_3ops4drop4Drop4drop0CseYC8vFNOjrM_2cc, symObjAddr: 0x3910, symBinAddr: 0x1000714A0, symSize: 0x20 }
  - { offset: 0xE5542, size: 0x8, addend: 0x0, symName: __RNCNvXsi_NtNtCsHUR1vrdMJt_3std4sync4mpmcINtB7_8ReceiverINtNtCsieiGu2EXtoJ_4core6result6ResultNtCslzRnRZxZnvp_9jobserver8AcquiredNtNtNtBb_2io5error5ErrorEENtNtNtBW_3ops4drop4Drop4drops0_0CseYC8vFNOjrM_2cc, symObjAddr: 0x3930, symBinAddr: 0x1000714C0, symSize: 0x20 }
  - { offset: 0xE5584, size: 0x8, addend: 0x0, symName: __RNCNvXsi_NtNtCsHUR1vrdMJt_3std4sync4mpmcINtB7_8ReceiverINtNtCsieiGu2EXtoJ_4core6result6ResultNtCslzRnRZxZnvp_9jobserver8AcquiredNtNtNtBb_2io5error5ErrorEENtNtNtBW_3ops4drop4Drop4drops_0CseYC8vFNOjrM_2cc, symObjAddr: 0x3950, symBinAddr: 0x1000714E0, symSize: 0x20 }
  - { offset: 0xE55DC, size: 0x8, addend: 0x0, symName: __RNvXsi_NtNtCsHUR1vrdMJt_3std4sync4mpmcINtB5_8ReceiverINtNtCsieiGu2EXtoJ_4core6result6ResultNtCslzRnRZxZnvp_9jobserver8AcquiredNtNtNtB9_2io5error5ErrorEENtNtNtBU_3ops4drop4Drop4dropCseYC8vFNOjrM_2cc, symObjAddr: 0xB1C0, symBinAddr: 0x100078D30, symSize: 0x70 }
  - { offset: 0xE5C1E, size: 0x8, addend: 0x0, symName: __RINvNtCsHUR1vrdMJt_3std2fs11remove_fileRNtNtB4_4path4PathECseYC8vFNOjrM_2cc, symObjAddr: 0x130, symBinAddr: 0x10006DCC0, symSize: 0x60 }
  - { offset: 0xE5C55, size: 0x8, addend: 0x0, symName: __RINvNtCsHUR1vrdMJt_3std2fs11remove_fileRNtNtB4_4path7PathBufECseYC8vFNOjrM_2cc, symObjAddr: 0x190, symBinAddr: 0x10006DD20, symSize: 0x60 }
  - { offset: 0xE5C8C, size: 0x8, addend: 0x0, symName: __RINvNtCsHUR1vrdMJt_3std2fs14create_dir_allRINtNtCslJiobkLta79_5alloc6borrow3CowNtNtB4_4path4PathEECseYC8vFNOjrM_2cc, symObjAddr: 0x1F0, symBinAddr: 0x10006DD80, symSize: 0x80 }
  - { offset: 0xE5CF6, size: 0x8, addend: 0x0, symName: __RINvNtCsHUR1vrdMJt_3std2fs14create_dir_allRNtNtB4_4path4PathECseYC8vFNOjrM_2cc, symObjAddr: 0x270, symBinAddr: 0x10006DE00, symSize: 0x80 }
  - { offset: 0xE5D60, size: 0x8, addend: 0x0, symName: __RINvNtCsHUR1vrdMJt_3std2fs4copyRNtNtB4_4path4PathRNtBw_7PathBufECseYC8vFNOjrM_2cc, symObjAddr: 0x2F0, symBinAddr: 0x10006DE80, symSize: 0x90 }
  - { offset: 0xE5DAF, size: 0x8, addend: 0x0, symName: __RINvNtCsHUR1vrdMJt_3std2fs9hard_linkRNtNtB4_4path4PathRNtBB_7PathBufECseYC8vFNOjrM_2cc, symObjAddr: 0x380, symBinAddr: 0x10006DF10, symSize: 0x90 }
  - { offset: 0xE5E03, size: 0x8, addend: 0x0, symName: __RNvXsb_NtCsHUR1vrdMJt_3std2fsNtB5_4FileNtNtB7_2io5Write5flushCseYC8vFNOjrM_2cc, symObjAddr: 0xB190, symBinAddr: 0x100078D00, symSize: 0x10 }
  - { offset: 0xE5E89, size: 0x8, addend: 0x0, symName: __RNvXs0_NtNtNtCsHUR1vrdMJt_3std2os4unix2fsNtNtBb_2fs11OpenOptionsNtB5_14OpenOptionsExt4modeCseYC8vFNOjrM_2cc, symObjAddr: 0xADC0, symBinAddr: 0x100078930, symSize: 0x20 }
  - { offset: 0xE6358, size: 0x8, addend: 0x0, symName: __RINvNtNtCseYC8vFNOjrM_2cc8parallel14command_runner11cell_updateINtNtCslJiobkLta79_5alloc3vec3VecTNtNtCsHUR1vrdMJt_3std7process7CommandNtB2_10KillOnDropNtNtB4_9job_token8JobTokenEENCNCNvB2_24run_commands_in_parallel00EB6_, symObjAddr: 0x940, symBinAddr: 0x10006E4D0, symSize: 0xF0 }
  - { offset: 0xE63DD, size: 0x8, addend: 0x0, symName: __RINvNtNtCseYC8vFNOjrM_2cc8parallel14command_runner11cell_updateINtNtCslJiobkLta79_5alloc3vec3VecTNtNtCsHUR1vrdMJt_3std7process7CommandNtB2_10KillOnDropNtNtB4_9job_token8JobTokenEENCNCNvB2_24run_commands_in_parallels_00EB6_, symObjAddr: 0xA30, symBinAddr: 0x10006E5C0, symSize: 0x100 }
  - { offset: 0xE6462, size: 0x8, addend: 0x0, symName: __RINvNtNtCseYC8vFNOjrM_2cc8parallel14command_runner17try_wait_on_childQINtNtNtNtCsHUR1vrdMJt_3std2io8buffered9bufwriter9BufWriterNtNtB1d_5stdio6StdoutEEB6_, symObjAddr: 0xB30, symBinAddr: 0x10006E6C0, symSize: 0x430 }
  - { offset: 0xE65C6, size: 0x8, addend: 0x0, symName: __RNCNCNCNvNtNtCseYC8vFNOjrM_2cc8parallel14command_runner24run_commands_in_parallel000Bb_, symObjAddr: 0x1480, symBinAddr: 0x10006F010, symSize: 0x300 }
  - { offset: 0xE66A0, size: 0x8, addend: 0x0, symName: __RNCNCNvNtNtCseYC8vFNOjrM_2cc8parallel14command_runner24run_commands_in_parallel00B9_, symObjAddr: 0x17B0, symBinAddr: 0x10006F340, symSize: 0xD0 }
  - { offset: 0xE6763, size: 0x8, addend: 0x0, symName: __RNCNCNvNtNtCseYC8vFNOjrM_2cc8parallel14command_runner24run_commands_in_parallels_00B9_, symObjAddr: 0x1880, symBinAddr: 0x10006F410, symSize: 0x1C0 }
  - { offset: 0xE6810, size: 0x8, addend: 0x0, symName: __RNCNvNtNtCseYC8vFNOjrM_2cc8parallel14command_runner24run_commands_in_parallel0B7_, symObjAddr: 0x2BB0, symBinAddr: 0x100070740, symSize: 0x3E0 }
  - { offset: 0xE6924, size: 0x8, addend: 0x0, symName: __RNCNvNtNtCseYC8vFNOjrM_2cc8parallel14command_runner24run_commands_in_parallels_0B7_, symObjAddr: 0x2F90, symBinAddr: 0x100070B20, symSize: 0x920 }
  - { offset: 0xE6E7C, size: 0x8, addend: 0x0, symName: __RNvNtNtCseYC8vFNOjrM_2cc8parallel14command_runner24run_commands_in_parallel, symObjAddr: 0xA3D0, symBinAddr: 0x100077F40, symSize: 0x1B0 }
  - { offset: 0xE6F60, size: 0x8, addend: 0x0, symName: __RNvXNtNtCseYC8vFNOjrM_2cc8parallel14command_runnerNtB2_10KillOnDropNtNtNtCsieiGu2EXtoJ_4core3ops4drop4Drop4drop, symObjAddr: 0xAAF0, symBinAddr: 0x100078660, symSize: 0x30 }
  - { offset: 0xE6FD9, size: 0x8, addend: 0x0, symName: __RNCNCNvMNtNtNtCseYC8vFNOjrM_2cc8parallel9job_token19inprocess_jobserverNtB6_9JobServer7acquire00Bc_, symObjAddr: 0x1780, symBinAddr: 0x10006F310, symSize: 0x30 }
  - { offset: 0xE7017, size: 0x8, addend: 0x0, symName: __RNCNvMNtNtNtCseYC8vFNOjrM_2cc8parallel9job_token19inprocess_jobserverNtB4_9JobServer7acquire0Ba_, symObjAddr: 0x1E80, symBinAddr: 0x10006FA10, symSize: 0x1D0 }
  - { offset: 0xE7194, size: 0x8, addend: 0x0, symName: __RNCNvMNtNtNtCseYC8vFNOjrM_2cc8parallel9job_token19inprocess_jobserverNtB4_9JobServer3new0Ba_, symObjAddr: 0x1D60, symBinAddr: 0x10006F8F0, symSize: 0xA0 }
  - { offset: 0xE71CB, size: 0x8, addend: 0x0, symName: __RNCNvMNtNtNtCseYC8vFNOjrM_2cc8parallel9job_token19inprocess_jobserverNtB4_9JobServer3news_0Ba_, symObjAddr: 0x1E00, symBinAddr: 0x10006F990, symSize: 0x80 }
  - { offset: 0xE727B, size: 0x8, addend: 0x0, symName: __RNCNvMNtNtNtCseYC8vFNOjrM_2cc8parallel9job_token19inherited_jobserverNtB4_9JobServer8from_env0Ba_, symObjAddr: 0x1CE0, symBinAddr: 0x10006F870, symSize: 0x80 }
  - { offset: 0xE72C4, size: 0x8, addend: 0x0, symName: __RNCNvMs0_NtNtNtCseYC8vFNOjrM_2cc8parallel9job_token19inherited_jobserverNtB7_15ActiveJobServer7acquire0Bd_, symObjAddr: 0x2050, symBinAddr: 0x10006FBE0, symSize: 0xA60 }
  - { offset: 0xE7617, size: 0x8, addend: 0x0, symName: __RNCNvMs_NtNtNtCseYC8vFNOjrM_2cc8parallel9job_token19inherited_jobserverNtB6_12HelperThread3new0Bc_, symObjAddr: 0x2B70, symBinAddr: 0x100070700, symSize: 0x40 }
  - { offset: 0xE78B0, size: 0x8, addend: 0x0, symName: __RINvNvMNtCseYC8vFNOjrM_2cc5flagsNtB5_17RustcCodegenFlags14set_rustc_flag10arg_to_u32ReEB7_, symObjAddr: 0xF60, symBinAddr: 0x10006EAF0, symSize: 0x90 }
  - { offset: 0xE78E5, size: 0x8, addend: 0x0, symName: __RINvNvMNtCseYC8vFNOjrM_2cc5flagsNtB5_17RustcCodegenFlags14set_rustc_flag11arg_to_boolReEB7_, symObjAddr: 0xFF0, symBinAddr: 0x10006EB80, symSize: 0x1F0 }
  - { offset: 0xE791A, size: 0x8, addend: 0x0, symName: __RINvNvMNtCseYC8vFNOjrM_2cc5flagsNtB5_17RustcCodegenFlags14set_rustc_flag22flag_not_empty_genericReEB7_, symObjAddr: 0x11E0, symBinAddr: 0x10006ED70, symSize: 0x160 }
  - { offset: 0xE79B7, size: 0x8, addend: 0x0, symName: __RINvNvMNtCseYC8vFNOjrM_2cc5flagsNtB5_17RustcCodegenFlags14set_rustc_flag22flag_not_empty_genericmEB7_, symObjAddr: 0x1340, symBinAddr: 0x10006EED0, symSize: 0x140 }
  - { offset: 0xE7A54, size: 0x8, addend: 0x0, symName: __RNCNvMNtCseYC8vFNOjrM_2cc5flagsNtB4_17RustcCodegenFlags14set_rustc_flag0B6_, symObjAddr: 0x1A40, symBinAddr: 0x10006F5D0, symSize: 0x50 }
  - { offset: 0xE7AAA, size: 0x8, addend: 0x0, symName: __RNCNvMNtCseYC8vFNOjrM_2cc5flagsNtB4_17RustcCodegenFlags8cc_flags0B6_, symObjAddr: 0x1A90, symBinAddr: 0x10006F620, symSize: 0x250 }
  - { offset: 0xE7B74, size: 0x8, addend: 0x0, symName: __RNvNvMNtCseYC8vFNOjrM_2cc5flagsNtB4_17RustcCodegenFlags5parse14is_flag_prefix, symObjAddr: 0xA580, symBinAddr: 0x1000780F0, symSize: 0x40 }
  - { offset: 0xE7BA0, size: 0x8, addend: 0x0, symName: __RNvNvMNtCseYC8vFNOjrM_2cc5flagsNtB4_17RustcCodegenFlags5parse18handle_flag_prefix, symObjAddr: 0xA5C0, symBinAddr: 0x100078130, symSize: 0x410 }
  - { offset: 0xE7CFE, size: 0x8, addend: 0x0, symName: __RNvXs2_NtCseYC8vFNOjrM_2cc5flagsNtB5_17RustcCodegenFlagsNtNtCsieiGu2EXtoJ_4core7default7Default7defaultB7_, symObjAddr: 0xAE00, symBinAddr: 0x100078970, symSize: 0x1C0 }
  - { offset: 0xE837D, size: 0x8, addend: 0x0, symName: __RINvMs2_NtCsHUR1vrdMJt_3std2fsNtB6_4File6createRNtNtB8_4path7PathBufECseYC8vFNOjrM_2cc, symObjAddr: 0x0, symBinAddr: 0x10006DB90, symSize: 0xC0 }
  - { offset: 0xE84A1, size: 0x8, addend: 0x0, symName: __RINvMsA_NtCsHUR1vrdMJt_3std2fsNtB6_10DirBuilder6createRNtNtB8_4path4PathECseYC8vFNOjrM_2cc, symObjAddr: 0xC0, symBinAddr: 0x10006DC50, symSize: 0x70 }
  - { offset: 0xE8A3C, size: 0x8, addend: 0x0, symName: __RNvMNtCseYC8vFNOjrM_2cc5flagsNtB2_17RustcCodegenFlags14set_rustc_flag, symObjAddr: 0x3970, symBinAddr: 0x100071500, symSize: 0x1000 }
  - { offset: 0xE8C07, size: 0x8, addend: 0x0, symName: __RNvMNtCseYC8vFNOjrM_2cc5flagsNtB2_17RustcCodegenFlags5parse, symObjAddr: 0x4970, symBinAddr: 0x100072500, symSize: 0x2F0 }
  - { offset: 0xE91D6, size: 0x8, addend: 0x0, symName: __RNvMNtCseYC8vFNOjrM_2cc5flagsNtB2_17RustcCodegenFlags8cc_flags, symObjAddr: 0x4C60, symBinAddr: 0x1000727F0, symSize: 0x1820 }
