---
triple:          'x86_64-apple-darwin'
binary-path:     '/Users/kema/git/rust-serv/target/debug/deps/libzerofrom_derive-0c74ff71207423c3.dylib'
relocations:
  - { offset: 0x1E, size: 0x8, addend: 0x0, symName: __RINvMs3_NtNtCslJiobkLta79_5alloc11collections9vec_dequeINtB6_8VecDequeTNtNtCsdGrGZaRBwMb_3syn2ty4TypeNtNtB1b_5token5CommaEE12slice_rangesNtNtNtCsieiGu2EXtoJ_4core3ops5range9RangeFullECsliPDVd4pfgL_15zerofrom_derive, symObjAddr: 0x0, symBinAddr: 0xBD0, symSize: 0x260 }
  - { offset: 0x551A, size: 0x8, addend: 0x0, symName: __RNvXNvXs_NtNtCslJiobkLta79_5alloc11collections9vec_dequeINtB7_8VecDequeppENtNtNtCsieiGu2EXtoJ_4core3ops4drop4Drop4dropINtB2_7DropperTNtNtCsdGrGZaRBwMb_3syn2ty4TypeNtNtB2b_5token5CommaEEB1a_4dropCsliPDVd4pfgL_15zerofrom_derive, symObjAddr: 0x13F40, symBinAddr: 0x14B10, symSize: 0x30 }
  - { offset: 0x554B, size: 0x8, addend: 0x0, symName: __RNvXNvXs_NtNtCslJiobkLta79_5alloc11collections9vec_dequeINtB7_8VecDequeppENtNtNtCsieiGu2EXtoJ_4core3ops4drop4Drop4dropINtB2_7DropperTNtNtCsdGrGZaRBwMb_3syn2ty9BareFnArgNtNtB2b_5token5CommaEEB1a_4dropCsliPDVd4pfgL_15zerofrom_derive, symObjAddr: 0x13F70, symBinAddr: 0x14B40, symSize: 0x30 }
  - { offset: 0x557C, size: 0x8, addend: 0x0, symName: __RNvXNvXs_NtNtCslJiobkLta79_5alloc11collections9vec_dequeINtB7_8VecDequeppENtNtNtCsieiGu2EXtoJ_4core3ops4drop4Drop4dropINtB2_7DropperTNtNtCsdGrGZaRBwMb_3syn3pat3PatNtNtB2b_5token2OrEEB1a_4dropCsliPDVd4pfgL_15zerofrom_derive, symObjAddr: 0x13FA0, symBinAddr: 0x14B70, symSize: 0x30 }
  - { offset: 0x55AD, size: 0x8, addend: 0x0, symName: __RNvXNvXs_NtNtCslJiobkLta79_5alloc11collections9vec_dequeINtB7_8VecDequeppENtNtNtCsieiGu2EXtoJ_4core3ops4drop4Drop4dropINtB2_7DropperTNtNtCsdGrGZaRBwMb_3syn3pat3PatNtNtB2b_5token5CommaEEB1a_4dropCsliPDVd4pfgL_15zerofrom_derive, symObjAddr: 0x13FD0, symBinAddr: 0x14BA0, symSize: 0x30 }
  - { offset: 0x55DE, size: 0x8, addend: 0x0, symName: __RNvXNvXs_NtNtCslJiobkLta79_5alloc11collections9vec_dequeINtB7_8VecDequeppENtNtNtCsieiGu2EXtoJ_4core3ops4drop4Drop4dropINtB2_7DropperTNtNtCsdGrGZaRBwMb_3syn3pat8FieldPatNtNtB2b_5token5CommaEEB1a_4dropCsliPDVd4pfgL_15zerofrom_derive, symObjAddr: 0x14000, symBinAddr: 0x14BD0, symSize: 0x30 }
  - { offset: 0x560F, size: 0x8, addend: 0x0, symName: __RNvXNvXs_NtNtCslJiobkLta79_5alloc11collections9vec_dequeINtB7_8VecDequeppENtNtNtCsieiGu2EXtoJ_4core3ops4drop4Drop4dropINtB2_7DropperTNtNtCsdGrGZaRBwMb_3syn4data5FieldNtNtB2b_5token5CommaEEB1a_4dropCsliPDVd4pfgL_15zerofrom_derive, symObjAddr: 0x14030, symBinAddr: 0x14C00, symSize: 0x30 }
  - { offset: 0x5640, size: 0x8, addend: 0x0, symName: __RNvXNvXs_NtNtCslJiobkLta79_5alloc11collections9vec_dequeINtB7_8VecDequeppENtNtNtCsieiGu2EXtoJ_4core3ops4drop4Drop4dropINtB2_7DropperTNtNtCsdGrGZaRBwMb_3syn4data7VariantNtNtB2b_5token5CommaEEB1a_4dropCsliPDVd4pfgL_15zerofrom_derive, symObjAddr: 0x14060, symBinAddr: 0x14C30, symSize: 0x30 }
  - { offset: 0x5671, size: 0x8, addend: 0x0, symName: __RNvXNvXs_NtNtCslJiobkLta79_5alloc11collections9vec_dequeINtB7_8VecDequeppENtNtNtCsieiGu2EXtoJ_4core3ops4drop4Drop4dropINtB2_7DropperTNtNtCsdGrGZaRBwMb_3syn4expr10FieldValueNtNtB2b_5token5CommaEEB1a_4dropCsliPDVd4pfgL_15zerofrom_derive, symObjAddr: 0x14090, symBinAddr: 0x14C60, symSize: 0x30 }
  - { offset: 0x56A2, size: 0x8, addend: 0x0, symName: __RNvXNvXs_NtNtCslJiobkLta79_5alloc11collections9vec_dequeINtB7_8VecDequeppENtNtNtCsieiGu2EXtoJ_4core3ops4drop4Drop4dropINtB2_7DropperTNtNtCsdGrGZaRBwMb_3syn4expr4ExprNtNtB2b_5token5CommaEEB1a_4dropCsliPDVd4pfgL_15zerofrom_derive, symObjAddr: 0x140C0, symBinAddr: 0x14C90, symSize: 0x30 }
  - { offset: 0x56D3, size: 0x8, addend: 0x0, symName: __RNvXNvXs_NtNtCslJiobkLta79_5alloc11collections9vec_dequeINtB7_8VecDequeppENtNtNtCsieiGu2EXtoJ_4core3ops4drop4Drop4dropINtB2_7DropperTNtNtCsdGrGZaRBwMb_3syn4item5FnArgNtNtB2b_5token5CommaEEB1a_4dropCsliPDVd4pfgL_15zerofrom_derive, symObjAddr: 0x140F0, symBinAddr: 0x14CC0, symSize: 0x30 }
  - { offset: 0x5704, size: 0x8, addend: 0x0, symName: __RNvXNvXs_NtNtCslJiobkLta79_5alloc11collections9vec_dequeINtB7_8VecDequeppENtNtNtCsieiGu2EXtoJ_4core3ops4drop4Drop4dropINtB2_7DropperTNtNtCsdGrGZaRBwMb_3syn4item7UseTreeNtNtB2b_5token5CommaEEB1a_4dropCsliPDVd4pfgL_15zerofrom_derive, symObjAddr: 0x14120, symBinAddr: 0x14CF0, symSize: 0x30 }
  - { offset: 0x5735, size: 0x8, addend: 0x0, symName: __RNvXNvXs_NtNtCslJiobkLta79_5alloc11collections9vec_dequeINtB7_8VecDequeppENtNtNtCsieiGu2EXtoJ_4core3ops4drop4Drop4dropINtB2_7DropperTNtNtCsdGrGZaRBwMb_3syn4path11PathSegmentNtNtB2b_5token7PathSepEEB1a_4dropCsliPDVd4pfgL_15zerofrom_derive, symObjAddr: 0x14150, symBinAddr: 0x14D20, symSize: 0x30 }
  - { offset: 0x5766, size: 0x8, addend: 0x0, symName: __RNvXNvXs_NtNtCslJiobkLta79_5alloc11collections9vec_dequeINtB7_8VecDequeppENtNtNtCsieiGu2EXtoJ_4core3ops4drop4Drop4dropINtB2_7DropperTNtNtCsdGrGZaRBwMb_3syn4path15GenericArgumentNtNtB2b_5token5CommaEEB1a_4dropCsliPDVd4pfgL_15zerofrom_derive, symObjAddr: 0x14180, symBinAddr: 0x14D50, symSize: 0x30 }
  - { offset: 0x5797, size: 0x8, addend: 0x0, symName: __RNvXNvXs_NtNtCslJiobkLta79_5alloc11collections9vec_dequeINtB7_8VecDequeppENtNtNtCsieiGu2EXtoJ_4core3ops4drop4Drop4dropINtB2_7DropperTNtNtCsdGrGZaRBwMb_3syn8generics12GenericParamNtNtB2b_5token5CommaEEB1a_4dropCsliPDVd4pfgL_15zerofrom_derive, symObjAddr: 0x141B0, symBinAddr: 0x14D80, symSize: 0x30 }
  - { offset: 0x57C8, size: 0x8, addend: 0x0, symName: __RNvXNvXs_NtNtCslJiobkLta79_5alloc11collections9vec_dequeINtB7_8VecDequeppENtNtNtCsieiGu2EXtoJ_4core3ops4drop4Drop4dropINtB2_7DropperTNtNtCsdGrGZaRBwMb_3syn8generics13CapturedParamNtNtB2b_5token5CommaEEB1a_4dropCsliPDVd4pfgL_15zerofrom_derive, symObjAddr: 0x141E0, symBinAddr: 0x14DB0, symSize: 0x30 }
  - { offset: 0x57F9, size: 0x8, addend: 0x0, symName: __RNvXNvXs_NtNtCslJiobkLta79_5alloc11collections9vec_dequeINtB7_8VecDequeppENtNtNtCsieiGu2EXtoJ_4core3ops4drop4Drop4dropINtB2_7DropperTNtNtCsdGrGZaRBwMb_3syn8generics14TypeParamBoundNtNtB2b_5token4PlusEEB1a_4dropCsliPDVd4pfgL_15zerofrom_derive, symObjAddr: 0x14210, symBinAddr: 0x14DE0, symSize: 0x30 }
  - { offset: 0x582A, size: 0x8, addend: 0x0, symName: __RNvXNvXs_NtNtCslJiobkLta79_5alloc11collections9vec_dequeINtB7_8VecDequeppENtNtNtCsieiGu2EXtoJ_4core3ops4drop4Drop4dropINtB2_7DropperTNtNtCsdGrGZaRBwMb_3syn8generics14WherePredicateNtNtB2b_5token5CommaEEB1a_4dropCsliPDVd4pfgL_15zerofrom_derive, symObjAddr: 0x14240, symBinAddr: 0x14E10, symSize: 0x30 }
  - { offset: 0x585B, size: 0x8, addend: 0x0, symName: __RNvXNvXs_NtNtCslJiobkLta79_5alloc11collections9vec_dequeINtB7_8VecDequeppENtNtNtCsieiGu2EXtoJ_4core3ops4drop4Drop4dropINtB2_7DropperTNtNtCsdGrGZaRBwMb_3syn8lifetime8LifetimeNtNtB2b_5token4PlusEEB1a_4dropCsliPDVd4pfgL_15zerofrom_derive, symObjAddr: 0x14270, symBinAddr: 0x14E40, symSize: 0x30 }
  - { offset: 0x5AAA, size: 0x8, addend: 0x0, symName: __RNvXs_NtNtCslJiobkLta79_5alloc11collections9vec_dequeINtB4_8VecDequeTNtNtCsdGrGZaRBwMb_3syn2ty4TypeNtNtB19_5token5CommaEENtNtNtCsieiGu2EXtoJ_4core3ops4drop4Drop4dropCsliPDVd4pfgL_15zerofrom_derive, symObjAddr: 0x142A0, symBinAddr: 0x14E70, symSize: 0xD0 }
  - { offset: 0x5CC2, size: 0x8, addend: 0x0, symName: __RNvXs_NtNtCslJiobkLta79_5alloc11collections9vec_dequeINtB4_8VecDequeTNtNtCsdGrGZaRBwMb_3syn2ty9BareFnArgNtNtB19_5token5CommaEENtNtNtCsieiGu2EXtoJ_4core3ops4drop4Drop4dropCsliPDVd4pfgL_15zerofrom_derive, symObjAddr: 0x14370, symBinAddr: 0x14F40, symSize: 0xE0 }
  - { offset: 0x5EDA, size: 0x8, addend: 0x0, symName: __RNvXs_NtNtCslJiobkLta79_5alloc11collections9vec_dequeINtB4_8VecDequeTNtNtCsdGrGZaRBwMb_3syn3pat3PatNtNtB19_5token2OrEENtNtNtCsieiGu2EXtoJ_4core3ops4drop4Drop4dropCsliPDVd4pfgL_15zerofrom_derive, symObjAddr: 0x14450, symBinAddr: 0x15020, symSize: 0xE0 }
  - { offset: 0x60F2, size: 0x8, addend: 0x0, symName: __RNvXs_NtNtCslJiobkLta79_5alloc11collections9vec_dequeINtB4_8VecDequeTNtNtCsdGrGZaRBwMb_3syn3pat3PatNtNtB19_5token5CommaEENtNtNtCsieiGu2EXtoJ_4core3ops4drop4Drop4dropCsliPDVd4pfgL_15zerofrom_derive, symObjAddr: 0x14530, symBinAddr: 0x15100, symSize: 0xE0 }
  - { offset: 0x630A, size: 0x8, addend: 0x0, symName: __RNvXs_NtNtCslJiobkLta79_5alloc11collections9vec_dequeINtB4_8VecDequeTNtNtCsdGrGZaRBwMb_3syn3pat8FieldPatNtNtB19_5token5CommaEENtNtNtCsieiGu2EXtoJ_4core3ops4drop4Drop4dropCsliPDVd4pfgL_15zerofrom_derive, symObjAddr: 0x14610, symBinAddr: 0x151E0, symSize: 0xD0 }
  - { offset: 0x6522, size: 0x8, addend: 0x0, symName: __RNvXs_NtNtCslJiobkLta79_5alloc11collections9vec_dequeINtB4_8VecDequeTNtNtCsdGrGZaRBwMb_3syn4data5FieldNtNtB19_5token5CommaEENtNtNtCsieiGu2EXtoJ_4core3ops4drop4Drop4dropCsliPDVd4pfgL_15zerofrom_derive, symObjAddr: 0x146E0, symBinAddr: 0x152B0, symSize: 0xE0 }
  - { offset: 0x673A, size: 0x8, addend: 0x0, symName: __RNvXs_NtNtCslJiobkLta79_5alloc11collections9vec_dequeINtB4_8VecDequeTNtNtCsdGrGZaRBwMb_3syn4data7VariantNtNtB19_5token5CommaEENtNtNtCsieiGu2EXtoJ_4core3ops4drop4Drop4dropCsliPDVd4pfgL_15zerofrom_derive, symObjAddr: 0x147C0, symBinAddr: 0x15390, symSize: 0xD0 }
  - { offset: 0x6952, size: 0x8, addend: 0x0, symName: __RNvXs_NtNtCslJiobkLta79_5alloc11collections9vec_dequeINtB4_8VecDequeTNtNtCsdGrGZaRBwMb_3syn4expr10FieldValueNtNtB19_5token5CommaEENtNtNtCsieiGu2EXtoJ_4core3ops4drop4Drop4dropCsliPDVd4pfgL_15zerofrom_derive, symObjAddr: 0x14890, symBinAddr: 0x15460, symSize: 0xD0 }
  - { offset: 0x6B6A, size: 0x8, addend: 0x0, symName: __RNvXs_NtNtCslJiobkLta79_5alloc11collections9vec_dequeINtB4_8VecDequeTNtNtCsdGrGZaRBwMb_3syn4expr4ExprNtNtB19_5token5CommaEENtNtNtCsieiGu2EXtoJ_4core3ops4drop4Drop4dropCsliPDVd4pfgL_15zerofrom_derive, symObjAddr: 0x14960, symBinAddr: 0x15530, symSize: 0xD0 }
  - { offset: 0x6D82, size: 0x8, addend: 0x0, symName: __RNvXs_NtNtCslJiobkLta79_5alloc11collections9vec_dequeINtB4_8VecDequeTNtNtCsdGrGZaRBwMb_3syn4item5FnArgNtNtB19_5token5CommaEENtNtNtCsieiGu2EXtoJ_4core3ops4drop4Drop4dropCsliPDVd4pfgL_15zerofrom_derive, symObjAddr: 0x14A30, symBinAddr: 0x15600, symSize: 0xD0 }
  - { offset: 0x6F9A, size: 0x8, addend: 0x0, symName: __RNvXs_NtNtCslJiobkLta79_5alloc11collections9vec_dequeINtB4_8VecDequeTNtNtCsdGrGZaRBwMb_3syn4item7UseTreeNtNtB19_5token5CommaEENtNtNtCsieiGu2EXtoJ_4core3ops4drop4Drop4dropCsliPDVd4pfgL_15zerofrom_derive, symObjAddr: 0x14B00, symBinAddr: 0x156D0, symSize: 0xD0 }
  - { offset: 0x71B2, size: 0x8, addend: 0x0, symName: __RNvXs_NtNtCslJiobkLta79_5alloc11collections9vec_dequeINtB4_8VecDequeTNtNtCsdGrGZaRBwMb_3syn4path11PathSegmentNtNtB19_5token7PathSepEENtNtNtCsieiGu2EXtoJ_4core3ops4drop4Drop4dropCsliPDVd4pfgL_15zerofrom_derive, symObjAddr: 0x14BD0, symBinAddr: 0x157A0, symSize: 0xE0 }
  - { offset: 0x73CA, size: 0x8, addend: 0x0, symName: __RNvXs_NtNtCslJiobkLta79_5alloc11collections9vec_dequeINtB4_8VecDequeTNtNtCsdGrGZaRBwMb_3syn4path15GenericArgumentNtNtB19_5token5CommaEENtNtNtCsieiGu2EXtoJ_4core3ops4drop4Drop4dropCsliPDVd4pfgL_15zerofrom_derive, symObjAddr: 0x14CB0, symBinAddr: 0x15880, symSize: 0xE0 }
  - { offset: 0x75E2, size: 0x8, addend: 0x0, symName: __RNvXs_NtNtCslJiobkLta79_5alloc11collections9vec_dequeINtB4_8VecDequeTNtNtCsdGrGZaRBwMb_3syn8generics12GenericParamNtNtB19_5token5CommaEENtNtNtCsieiGu2EXtoJ_4core3ops4drop4Drop4dropCsliPDVd4pfgL_15zerofrom_derive, symObjAddr: 0x14D90, symBinAddr: 0x15960, symSize: 0xD0 }
  - { offset: 0x77FA, size: 0x8, addend: 0x0, symName: __RNvXs_NtNtCslJiobkLta79_5alloc11collections9vec_dequeINtB4_8VecDequeTNtNtCsdGrGZaRBwMb_3syn8generics13CapturedParamNtNtB19_5token5CommaEENtNtNtCsieiGu2EXtoJ_4core3ops4drop4Drop4dropCsliPDVd4pfgL_15zerofrom_derive, symObjAddr: 0x14E60, symBinAddr: 0x15A30, symSize: 0xE0 }
  - { offset: 0x7A12, size: 0x8, addend: 0x0, symName: __RNvXs_NtNtCslJiobkLta79_5alloc11collections9vec_dequeINtB4_8VecDequeTNtNtCsdGrGZaRBwMb_3syn8generics14TypeParamBoundNtNtB19_5token4PlusEENtNtNtCsieiGu2EXtoJ_4core3ops4drop4Drop4dropCsliPDVd4pfgL_15zerofrom_derive, symObjAddr: 0x14F40, symBinAddr: 0x15B10, symSize: 0xD0 }
  - { offset: 0x7C2A, size: 0x8, addend: 0x0, symName: __RNvXs_NtNtCslJiobkLta79_5alloc11collections9vec_dequeINtB4_8VecDequeTNtNtCsdGrGZaRBwMb_3syn8generics14WherePredicateNtNtB19_5token5CommaEENtNtNtCsieiGu2EXtoJ_4core3ops4drop4Drop4dropCsliPDVd4pfgL_15zerofrom_derive, symObjAddr: 0x15010, symBinAddr: 0x15BE0, symSize: 0xE0 }
  - { offset: 0x7E42, size: 0x8, addend: 0x0, symName: __RNvXs_NtNtCslJiobkLta79_5alloc11collections9vec_dequeINtB4_8VecDequeTNtNtCsdGrGZaRBwMb_3syn8lifetime8LifetimeNtNtB19_5token4PlusEENtNtNtCsieiGu2EXtoJ_4core3ops4drop4Drop4dropCsliPDVd4pfgL_15zerofrom_derive, symObjAddr: 0x150F0, symBinAddr: 0x15CC0, symSize: 0xD0 }
  - { offset: 0x8060, size: 0x8, addend: 0x0, symName: __RNvXsj_NtNtCslJiobkLta79_5alloc11collections9vec_dequeINtB5_8VecDequeTNtNtCsdGrGZaRBwMb_3syn2ty4TypeNtNtB1a_5token5CommaEEINtNtCsieiGu2EXtoJ_4core7convert4FromINtNtB9_3vec3VecB15_EE4fromCsliPDVd4pfgL_15zerofrom_derive, symObjAddr: 0x151C0, symBinAddr: 0x15D90, symSize: 0xA0 }
  - { offset: 0x8213, size: 0x8, addend: 0x0, symName: __RNvXsj_NtNtCslJiobkLta79_5alloc11collections9vec_dequeINtB5_8VecDequeTNtNtCsdGrGZaRBwMb_3syn2ty9BareFnArgNtNtB1a_5token5CommaEEINtNtCsieiGu2EXtoJ_4core7convert4FromINtNtB9_3vec3VecB15_EE4fromCsliPDVd4pfgL_15zerofrom_derive, symObjAddr: 0x15260, symBinAddr: 0x15E30, symSize: 0xA0 }
  - { offset: 0x83C6, size: 0x8, addend: 0x0, symName: __RNvXsj_NtNtCslJiobkLta79_5alloc11collections9vec_dequeINtB5_8VecDequeTNtNtCsdGrGZaRBwMb_3syn3pat3PatNtNtB1a_5token2OrEEINtNtCsieiGu2EXtoJ_4core7convert4FromINtNtB9_3vec3VecB15_EE4fromCsliPDVd4pfgL_15zerofrom_derive, symObjAddr: 0x15300, symBinAddr: 0x15ED0, symSize: 0xA0 }
  - { offset: 0x8579, size: 0x8, addend: 0x0, symName: __RNvXsj_NtNtCslJiobkLta79_5alloc11collections9vec_dequeINtB5_8VecDequeTNtNtCsdGrGZaRBwMb_3syn3pat3PatNtNtB1a_5token5CommaEEINtNtCsieiGu2EXtoJ_4core7convert4FromINtNtB9_3vec3VecB15_EE4fromCsliPDVd4pfgL_15zerofrom_derive, symObjAddr: 0x153A0, symBinAddr: 0x15F70, symSize: 0xA0 }
  - { offset: 0x872C, size: 0x8, addend: 0x0, symName: __RNvXsj_NtNtCslJiobkLta79_5alloc11collections9vec_dequeINtB5_8VecDequeTNtNtCsdGrGZaRBwMb_3syn3pat8FieldPatNtNtB1a_5token5CommaEEINtNtCsieiGu2EXtoJ_4core7convert4FromINtNtB9_3vec3VecB15_EE4fromCsliPDVd4pfgL_15zerofrom_derive, symObjAddr: 0x15440, symBinAddr: 0x16010, symSize: 0xA0 }
  - { offset: 0x88DF, size: 0x8, addend: 0x0, symName: __RNvXsj_NtNtCslJiobkLta79_5alloc11collections9vec_dequeINtB5_8VecDequeTNtNtCsdGrGZaRBwMb_3syn4data5FieldNtNtB1a_5token5CommaEEINtNtCsieiGu2EXtoJ_4core7convert4FromINtNtB9_3vec3VecB15_EE4fromCsliPDVd4pfgL_15zerofrom_derive, symObjAddr: 0x154E0, symBinAddr: 0x160B0, symSize: 0xA0 }
  - { offset: 0x8A92, size: 0x8, addend: 0x0, symName: __RNvXsj_NtNtCslJiobkLta79_5alloc11collections9vec_dequeINtB5_8VecDequeTNtNtCsdGrGZaRBwMb_3syn4data7VariantNtNtB1a_5token5CommaEEINtNtCsieiGu2EXtoJ_4core7convert4FromINtNtB9_3vec3VecB15_EE4fromCsliPDVd4pfgL_15zerofrom_derive, symObjAddr: 0x15580, symBinAddr: 0x16150, symSize: 0xA0 }
  - { offset: 0x8C45, size: 0x8, addend: 0x0, symName: __RNvXsj_NtNtCslJiobkLta79_5alloc11collections9vec_dequeINtB5_8VecDequeTNtNtCsdGrGZaRBwMb_3syn4expr10FieldValueNtNtB1a_5token5CommaEEINtNtCsieiGu2EXtoJ_4core7convert4FromINtNtB9_3vec3VecB15_EE4fromCsliPDVd4pfgL_15zerofrom_derive, symObjAddr: 0x15620, symBinAddr: 0x161F0, symSize: 0xA0 }
  - { offset: 0x8DF8, size: 0x8, addend: 0x0, symName: __RNvXsj_NtNtCslJiobkLta79_5alloc11collections9vec_dequeINtB5_8VecDequeTNtNtCsdGrGZaRBwMb_3syn4expr4ExprNtNtB1a_5token5CommaEEINtNtCsieiGu2EXtoJ_4core7convert4FromINtNtB9_3vec3VecB15_EE4fromCsliPDVd4pfgL_15zerofrom_derive, symObjAddr: 0x156C0, symBinAddr: 0x16290, symSize: 0xA0 }
  - { offset: 0x8FAB, size: 0x8, addend: 0x0, symName: __RNvXsj_NtNtCslJiobkLta79_5alloc11collections9vec_dequeINtB5_8VecDequeTNtNtCsdGrGZaRBwMb_3syn4item5FnArgNtNtB1a_5token5CommaEEINtNtCsieiGu2EXtoJ_4core7convert4FromINtNtB9_3vec3VecB15_EE4fromCsliPDVd4pfgL_15zerofrom_derive, symObjAddr: 0x15760, symBinAddr: 0x16330, symSize: 0xA0 }
  - { offset: 0x915E, size: 0x8, addend: 0x0, symName: __RNvXsj_NtNtCslJiobkLta79_5alloc11collections9vec_dequeINtB5_8VecDequeTNtNtCsdGrGZaRBwMb_3syn4item7UseTreeNtNtB1a_5token5CommaEEINtNtCsieiGu2EXtoJ_4core7convert4FromINtNtB9_3vec3VecB15_EE4fromCsliPDVd4pfgL_15zerofrom_derive, symObjAddr: 0x15800, symBinAddr: 0x163D0, symSize: 0xA0 }
  - { offset: 0x9311, size: 0x8, addend: 0x0, symName: __RNvXsj_NtNtCslJiobkLta79_5alloc11collections9vec_dequeINtB5_8VecDequeTNtNtCsdGrGZaRBwMb_3syn4path11PathSegmentNtNtB1a_5token7PathSepEEINtNtCsieiGu2EXtoJ_4core7convert4FromINtNtB9_3vec3VecB15_EE4fromCsliPDVd4pfgL_15zerofrom_derive, symObjAddr: 0x158A0, symBinAddr: 0x16470, symSize: 0xA0 }
  - { offset: 0x94C4, size: 0x8, addend: 0x0, symName: __RNvXsj_NtNtCslJiobkLta79_5alloc11collections9vec_dequeINtB5_8VecDequeTNtNtCsdGrGZaRBwMb_3syn4path15GenericArgumentNtNtB1a_5token5CommaEEINtNtCsieiGu2EXtoJ_4core7convert4FromINtNtB9_3vec3VecB15_EE4fromCsliPDVd4pfgL_15zerofrom_derive, symObjAddr: 0x15940, symBinAddr: 0x16510, symSize: 0xA0 }
  - { offset: 0x9677, size: 0x8, addend: 0x0, symName: __RNvXsj_NtNtCslJiobkLta79_5alloc11collections9vec_dequeINtB5_8VecDequeTNtNtCsdGrGZaRBwMb_3syn8generics12GenericParamNtNtB1a_5token5CommaEEINtNtCsieiGu2EXtoJ_4core7convert4FromINtNtB9_3vec3VecB15_EE4fromCsliPDVd4pfgL_15zerofrom_derive, symObjAddr: 0x159E0, symBinAddr: 0x165B0, symSize: 0xA0 }
  - { offset: 0x982A, size: 0x8, addend: 0x0, symName: __RNvXsj_NtNtCslJiobkLta79_5alloc11collections9vec_dequeINtB5_8VecDequeTNtNtCsdGrGZaRBwMb_3syn8generics13CapturedParamNtNtB1a_5token5CommaEEINtNtCsieiGu2EXtoJ_4core7convert4FromINtNtB9_3vec3VecB15_EE4fromCsliPDVd4pfgL_15zerofrom_derive, symObjAddr: 0x15A80, symBinAddr: 0x16650, symSize: 0xA0 }
  - { offset: 0x99DD, size: 0x8, addend: 0x0, symName: __RNvXsj_NtNtCslJiobkLta79_5alloc11collections9vec_dequeINtB5_8VecDequeTNtNtCsdGrGZaRBwMb_3syn8generics14TypeParamBoundNtNtB1a_5token4PlusEEINtNtCsieiGu2EXtoJ_4core7convert4FromINtNtB9_3vec3VecB15_EE4fromCsliPDVd4pfgL_15zerofrom_derive, symObjAddr: 0x15B20, symBinAddr: 0x166F0, symSize: 0xA0 }
  - { offset: 0x9B90, size: 0x8, addend: 0x0, symName: __RNvXsj_NtNtCslJiobkLta79_5alloc11collections9vec_dequeINtB5_8VecDequeTNtNtCsdGrGZaRBwMb_3syn8generics14WherePredicateNtNtB1a_5token5CommaEEINtNtCsieiGu2EXtoJ_4core7convert4FromINtNtB9_3vec3VecB15_EE4fromCsliPDVd4pfgL_15zerofrom_derive, symObjAddr: 0x15BC0, symBinAddr: 0x16790, symSize: 0xA0 }
  - { offset: 0x9D43, size: 0x8, addend: 0x0, symName: __RNvXsj_NtNtCslJiobkLta79_5alloc11collections9vec_dequeINtB5_8VecDequeTNtNtCsdGrGZaRBwMb_3syn8lifetime8LifetimeNtNtB1a_5token4PlusEEINtNtCsieiGu2EXtoJ_4core7convert4FromINtNtB9_3vec3VecB15_EE4fromCsliPDVd4pfgL_15zerofrom_derive, symObjAddr: 0x15C60, symBinAddr: 0x16830, symSize: 0xA0 }
  - { offset: 0x17D09, size: 0x8, addend: 0x0, symName: __RINvMs3_NtNtCslJiobkLta79_5alloc11collections9vec_dequeINtB6_8VecDequeTNtNtCsdGrGZaRBwMb_3syn2ty4TypeNtNtB1b_5token5CommaEE12slice_rangesNtNtNtCsieiGu2EXtoJ_4core3ops5range9RangeFullECsliPDVd4pfgL_15zerofrom_derive, symObjAddr: 0x0, symBinAddr: 0xBD0, symSize: 0x260 }
  - { offset: 0x18156, size: 0x8, addend: 0x0, symName: __RINvMs3_NtNtCslJiobkLta79_5alloc11collections9vec_dequeINtB6_8VecDequeTNtNtCsdGrGZaRBwMb_3syn2ty9BareFnArgNtNtB1b_5token5CommaEE12slice_rangesNtNtNtCsieiGu2EXtoJ_4core3ops5range9RangeFullECsliPDVd4pfgL_15zerofrom_derive, symObjAddr: 0x260, symBinAddr: 0xE30, symSize: 0x260 }
  - { offset: 0x185A3, size: 0x8, addend: 0x0, symName: __RINvMs3_NtNtCslJiobkLta79_5alloc11collections9vec_dequeINtB6_8VecDequeTNtNtCsdGrGZaRBwMb_3syn3pat3PatNtNtB1b_5token2OrEE12slice_rangesNtNtNtCsieiGu2EXtoJ_4core3ops5range9RangeFullECsliPDVd4pfgL_15zerofrom_derive, symObjAddr: 0x4C0, symBinAddr: 0x1090, symSize: 0x260 }
  - { offset: 0x189F0, size: 0x8, addend: 0x0, symName: __RINvMs3_NtNtCslJiobkLta79_5alloc11collections9vec_dequeINtB6_8VecDequeTNtNtCsdGrGZaRBwMb_3syn3pat3PatNtNtB1b_5token5CommaEE12slice_rangesNtNtNtCsieiGu2EXtoJ_4core3ops5range9RangeFullECsliPDVd4pfgL_15zerofrom_derive, symObjAddr: 0x720, symBinAddr: 0x12F0, symSize: 0x260 }
  - { offset: 0x18E3D, size: 0x8, addend: 0x0, symName: __RINvMs3_NtNtCslJiobkLta79_5alloc11collections9vec_dequeINtB6_8VecDequeTNtNtCsdGrGZaRBwMb_3syn3pat8FieldPatNtNtB1b_5token5CommaEE12slice_rangesNtNtNtCsieiGu2EXtoJ_4core3ops5range9RangeFullECsliPDVd4pfgL_15zerofrom_derive, symObjAddr: 0x980, symBinAddr: 0x1550, symSize: 0x260 }
  - { offset: 0x1928A, size: 0x8, addend: 0x0, symName: __RINvMs3_NtNtCslJiobkLta79_5alloc11collections9vec_dequeINtB6_8VecDequeTNtNtCsdGrGZaRBwMb_3syn4data5FieldNtNtB1b_5token5CommaEE12slice_rangesNtNtNtCsieiGu2EXtoJ_4core3ops5range9RangeFullECsliPDVd4pfgL_15zerofrom_derive, symObjAddr: 0xBE0, symBinAddr: 0x17B0, symSize: 0x260 }
  - { offset: 0x196D7, size: 0x8, addend: 0x0, symName: __RINvMs3_NtNtCslJiobkLta79_5alloc11collections9vec_dequeINtB6_8VecDequeTNtNtCsdGrGZaRBwMb_3syn4data7VariantNtNtB1b_5token5CommaEE12slice_rangesNtNtNtCsieiGu2EXtoJ_4core3ops5range9RangeFullECsliPDVd4pfgL_15zerofrom_derive, symObjAddr: 0xE40, symBinAddr: 0x1A10, symSize: 0x260 }
  - { offset: 0x19B24, size: 0x8, addend: 0x0, symName: __RINvMs3_NtNtCslJiobkLta79_5alloc11collections9vec_dequeINtB6_8VecDequeTNtNtCsdGrGZaRBwMb_3syn4expr10FieldValueNtNtB1b_5token5CommaEE12slice_rangesNtNtNtCsieiGu2EXtoJ_4core3ops5range9RangeFullECsliPDVd4pfgL_15zerofrom_derive, symObjAddr: 0x10A0, symBinAddr: 0x1C70, symSize: 0x260 }
  - { offset: 0x19F71, size: 0x8, addend: 0x0, symName: __RINvMs3_NtNtCslJiobkLta79_5alloc11collections9vec_dequeINtB6_8VecDequeTNtNtCsdGrGZaRBwMb_3syn4expr4ExprNtNtB1b_5token5CommaEE12slice_rangesNtNtNtCsieiGu2EXtoJ_4core3ops5range9RangeFullECsliPDVd4pfgL_15zerofrom_derive, symObjAddr: 0x1300, symBinAddr: 0x1ED0, symSize: 0x260 }
  - { offset: 0x1A3BE, size: 0x8, addend: 0x0, symName: __RINvMs3_NtNtCslJiobkLta79_5alloc11collections9vec_dequeINtB6_8VecDequeTNtNtCsdGrGZaRBwMb_3syn4item5FnArgNtNtB1b_5token5CommaEE12slice_rangesNtNtNtCsieiGu2EXtoJ_4core3ops5range9RangeFullECsliPDVd4pfgL_15zerofrom_derive, symObjAddr: 0x1560, symBinAddr: 0x2130, symSize: 0x260 }
  - { offset: 0x1A80B, size: 0x8, addend: 0x0, symName: __RINvMs3_NtNtCslJiobkLta79_5alloc11collections9vec_dequeINtB6_8VecDequeTNtNtCsdGrGZaRBwMb_3syn4item7UseTreeNtNtB1b_5token5CommaEE12slice_rangesNtNtNtCsieiGu2EXtoJ_4core3ops5range9RangeFullECsliPDVd4pfgL_15zerofrom_derive, symObjAddr: 0x17C0, symBinAddr: 0x2390, symSize: 0x260 }
  - { offset: 0x1AC58, size: 0x8, addend: 0x0, symName: __RINvMs3_NtNtCslJiobkLta79_5alloc11collections9vec_dequeINtB6_8VecDequeTNtNtCsdGrGZaRBwMb_3syn4path11PathSegmentNtNtB1b_5token7PathSepEE12slice_rangesNtNtNtCsieiGu2EXtoJ_4core3ops5range9RangeFullECsliPDVd4pfgL_15zerofrom_derive, symObjAddr: 0x1A20, symBinAddr: 0x25F0, symSize: 0x260 }
  - { offset: 0x1B0A5, size: 0x8, addend: 0x0, symName: __RINvMs3_NtNtCslJiobkLta79_5alloc11collections9vec_dequeINtB6_8VecDequeTNtNtCsdGrGZaRBwMb_3syn4path15GenericArgumentNtNtB1b_5token5CommaEE12slice_rangesNtNtNtCsieiGu2EXtoJ_4core3ops5range9RangeFullECsliPDVd4pfgL_15zerofrom_derive, symObjAddr: 0x1C80, symBinAddr: 0x2850, symSize: 0x260 }
  - { offset: 0x1B4F2, size: 0x8, addend: 0x0, symName: __RINvMs3_NtNtCslJiobkLta79_5alloc11collections9vec_dequeINtB6_8VecDequeTNtNtCsdGrGZaRBwMb_3syn8generics12GenericParamNtNtB1b_5token5CommaEE12slice_rangesNtNtNtCsieiGu2EXtoJ_4core3ops5range9RangeFullECsliPDVd4pfgL_15zerofrom_derive, symObjAddr: 0x1EE0, symBinAddr: 0x2AB0, symSize: 0x260 }
  - { offset: 0x1B93F, size: 0x8, addend: 0x0, symName: __RINvMs3_NtNtCslJiobkLta79_5alloc11collections9vec_dequeINtB6_8VecDequeTNtNtCsdGrGZaRBwMb_3syn8generics13CapturedParamNtNtB1b_5token5CommaEE12slice_rangesNtNtNtCsieiGu2EXtoJ_4core3ops5range9RangeFullECsliPDVd4pfgL_15zerofrom_derive, symObjAddr: 0x2140, symBinAddr: 0x2D10, symSize: 0x260 }
  - { offset: 0x1BD8C, size: 0x8, addend: 0x0, symName: __RINvMs3_NtNtCslJiobkLta79_5alloc11collections9vec_dequeINtB6_8VecDequeTNtNtCsdGrGZaRBwMb_3syn8generics14TypeParamBoundNtNtB1b_5token4PlusEE12slice_rangesNtNtNtCsieiGu2EXtoJ_4core3ops5range9RangeFullECsliPDVd4pfgL_15zerofrom_derive, symObjAddr: 0x23A0, symBinAddr: 0x2F70, symSize: 0x260 }
  - { offset: 0x1C1D9, size: 0x8, addend: 0x0, symName: __RINvMs3_NtNtCslJiobkLta79_5alloc11collections9vec_dequeINtB6_8VecDequeTNtNtCsdGrGZaRBwMb_3syn8generics14WherePredicateNtNtB1b_5token5CommaEE12slice_rangesNtNtNtCsieiGu2EXtoJ_4core3ops5range9RangeFullECsliPDVd4pfgL_15zerofrom_derive, symObjAddr: 0x2600, symBinAddr: 0x31D0, symSize: 0x260 }
  - { offset: 0x1C626, size: 0x8, addend: 0x0, symName: __RINvMs3_NtNtCslJiobkLta79_5alloc11collections9vec_dequeINtB6_8VecDequeTNtNtCsdGrGZaRBwMb_3syn8lifetime8LifetimeNtNtB1b_5token4PlusEE12slice_rangesNtNtNtCsieiGu2EXtoJ_4core3ops5range9RangeFullECsliPDVd4pfgL_15zerofrom_derive, symObjAddr: 0x2860, symBinAddr: 0x3430, symSize: 0x260 }
  - { offset: 0x1CD5E, size: 0x8, addend: 0x0, symName: __RNvMs1_NtNtCslJiobkLta79_5alloc11collections9vec_dequeINtB5_8VecDequeTNtNtCsdGrGZaRBwMb_3syn2ty4TypeNtNtB1a_5token5CommaEE24handle_capacity_increaseCsliPDVd4pfgL_15zerofrom_derive, symObjAddr: 0x2AC0, symBinAddr: 0x3690, symSize: 0x290 }
  - { offset: 0x1D494, size: 0x8, addend: 0x0, symName: __RNvMs1_NtNtCslJiobkLta79_5alloc11collections9vec_dequeINtB5_8VecDequeTNtNtCsdGrGZaRBwMb_3syn2ty9BareFnArgNtNtB1a_5token5CommaEE24handle_capacity_increaseCsliPDVd4pfgL_15zerofrom_derive, symObjAddr: 0x2D50, symBinAddr: 0x3920, symSize: 0x290 }
  - { offset: 0x1DBCA, size: 0x8, addend: 0x0, symName: __RNvMs1_NtNtCslJiobkLta79_5alloc11collections9vec_dequeINtB5_8VecDequeTNtNtCsdGrGZaRBwMb_3syn3pat3PatNtNtB1a_5token2OrEE24handle_capacity_increaseCsliPDVd4pfgL_15zerofrom_derive, symObjAddr: 0x2FE0, symBinAddr: 0x3BB0, symSize: 0x290 }
  - { offset: 0x1E300, size: 0x8, addend: 0x0, symName: __RNvMs1_NtNtCslJiobkLta79_5alloc11collections9vec_dequeINtB5_8VecDequeTNtNtCsdGrGZaRBwMb_3syn3pat3PatNtNtB1a_5token5CommaEE24handle_capacity_increaseCsliPDVd4pfgL_15zerofrom_derive, symObjAddr: 0x3270, symBinAddr: 0x3E40, symSize: 0x290 }
  - { offset: 0x1EA36, size: 0x8, addend: 0x0, symName: __RNvMs1_NtNtCslJiobkLta79_5alloc11collections9vec_dequeINtB5_8VecDequeTNtNtCsdGrGZaRBwMb_3syn3pat8FieldPatNtNtB1a_5token5CommaEE24handle_capacity_increaseCsliPDVd4pfgL_15zerofrom_derive, symObjAddr: 0x3500, symBinAddr: 0x40D0, symSize: 0x280 }
  - { offset: 0x1F16C, size: 0x8, addend: 0x0, symName: __RNvMs1_NtNtCslJiobkLta79_5alloc11collections9vec_dequeINtB5_8VecDequeTNtNtCsdGrGZaRBwMb_3syn4data5FieldNtNtB1a_5token5CommaEE24handle_capacity_increaseCsliPDVd4pfgL_15zerofrom_derive, symObjAddr: 0x3780, symBinAddr: 0x4350, symSize: 0x290 }
  - { offset: 0x1F8A2, size: 0x8, addend: 0x0, symName: __RNvMs1_NtNtCslJiobkLta79_5alloc11collections9vec_dequeINtB5_8VecDequeTNtNtCsdGrGZaRBwMb_3syn4data7VariantNtNtB1a_5token5CommaEE24handle_capacity_increaseCsliPDVd4pfgL_15zerofrom_derive, symObjAddr: 0x3A10, symBinAddr: 0x45E0, symSize: 0x290 }
  - { offset: 0x1FFD8, size: 0x8, addend: 0x0, symName: __RNvMs1_NtNtCslJiobkLta79_5alloc11collections9vec_dequeINtB5_8VecDequeTNtNtCsdGrGZaRBwMb_3syn4expr10FieldValueNtNtB1a_5token5CommaEE24handle_capacity_increaseCsliPDVd4pfgL_15zerofrom_derive, symObjAddr: 0x3CA0, symBinAddr: 0x4870, symSize: 0x290 }
  - { offset: 0x2070E, size: 0x8, addend: 0x0, symName: __RNvMs1_NtNtCslJiobkLta79_5alloc11collections9vec_dequeINtB5_8VecDequeTNtNtCsdGrGZaRBwMb_3syn4expr4ExprNtNtB1a_5token5CommaEE24handle_capacity_increaseCsliPDVd4pfgL_15zerofrom_derive, symObjAddr: 0x3F30, symBinAddr: 0x4B00, symSize: 0x290 }
  - { offset: 0x20E44, size: 0x8, addend: 0x0, symName: __RNvMs1_NtNtCslJiobkLta79_5alloc11collections9vec_dequeINtB5_8VecDequeTNtNtCsdGrGZaRBwMb_3syn4item5FnArgNtNtB1a_5token5CommaEE24handle_capacity_increaseCsliPDVd4pfgL_15zerofrom_derive, symObjAddr: 0x41C0, symBinAddr: 0x4D90, symSize: 0x280 }
  - { offset: 0x2157A, size: 0x8, addend: 0x0, symName: __RNvMs1_NtNtCslJiobkLta79_5alloc11collections9vec_dequeINtB5_8VecDequeTNtNtCsdGrGZaRBwMb_3syn4item7UseTreeNtNtB1a_5token5CommaEE24handle_capacity_increaseCsliPDVd4pfgL_15zerofrom_derive, symObjAddr: 0x4440, symBinAddr: 0x5010, symSize: 0x280 }
  - { offset: 0x21CB0, size: 0x8, addend: 0x0, symName: __RNvMs1_NtNtCslJiobkLta79_5alloc11collections9vec_dequeINtB5_8VecDequeTNtNtCsdGrGZaRBwMb_3syn4path11PathSegmentNtNtB1a_5token7PathSepEE24handle_capacity_increaseCsliPDVd4pfgL_15zerofrom_derive, symObjAddr: 0x46C0, symBinAddr: 0x5290, symSize: 0x280 }
  - { offset: 0x223E6, size: 0x8, addend: 0x0, symName: __RNvMs1_NtNtCslJiobkLta79_5alloc11collections9vec_dequeINtB5_8VecDequeTNtNtCsdGrGZaRBwMb_3syn4path15GenericArgumentNtNtB1a_5token5CommaEE24handle_capacity_increaseCsliPDVd4pfgL_15zerofrom_derive, symObjAddr: 0x4940, symBinAddr: 0x5510, symSize: 0x290 }
  - { offset: 0x22B1C, size: 0x8, addend: 0x0, symName: __RNvMs1_NtNtCslJiobkLta79_5alloc11collections9vec_dequeINtB5_8VecDequeTNtNtCsdGrGZaRBwMb_3syn8generics12GenericParamNtNtB1a_5token5CommaEE24handle_capacity_increaseCsliPDVd4pfgL_15zerofrom_derive, symObjAddr: 0x4BD0, symBinAddr: 0x57A0, symSize: 0x290 }
  - { offset: 0x23252, size: 0x8, addend: 0x0, symName: __RNvMs1_NtNtCslJiobkLta79_5alloc11collections9vec_dequeINtB5_8VecDequeTNtNtCsdGrGZaRBwMb_3syn8generics13CapturedParamNtNtB1a_5token5CommaEE24handle_capacity_increaseCsliPDVd4pfgL_15zerofrom_derive, symObjAddr: 0x4E60, symBinAddr: 0x5A30, symSize: 0x280 }
  - { offset: 0x23988, size: 0x8, addend: 0x0, symName: __RNvMs1_NtNtCslJiobkLta79_5alloc11collections9vec_dequeINtB5_8VecDequeTNtNtCsdGrGZaRBwMb_3syn8generics14TypeParamBoundNtNtB1a_5token4PlusEE24handle_capacity_increaseCsliPDVd4pfgL_15zerofrom_derive, symObjAddr: 0x50E0, symBinAddr: 0x5CB0, symSize: 0x280 }
  - { offset: 0x240BE, size: 0x8, addend: 0x0, symName: __RNvMs1_NtNtCslJiobkLta79_5alloc11collections9vec_dequeINtB5_8VecDequeTNtNtCsdGrGZaRBwMb_3syn8generics14WherePredicateNtNtB1a_5token5CommaEE24handle_capacity_increaseCsliPDVd4pfgL_15zerofrom_derive, symObjAddr: 0x5360, symBinAddr: 0x5F30, symSize: 0x290 }
  - { offset: 0x247F4, size: 0x8, addend: 0x0, symName: __RNvMs1_NtNtCslJiobkLta79_5alloc11collections9vec_dequeINtB5_8VecDequeTNtNtCsdGrGZaRBwMb_3syn8lifetime8LifetimeNtNtB1a_5token4PlusEE24handle_capacity_increaseCsliPDVd4pfgL_15zerofrom_derive, symObjAddr: 0x55F0, symBinAddr: 0x61C0, symSize: 0x280 }
  - { offset: 0x24EC5, size: 0x8, addend: 0x0, symName: __RNvMs3_NtNtCslJiobkLta79_5alloc11collections9vec_dequeINtB5_8VecDequeTNtNtCsdGrGZaRBwMb_3syn2ty4TypeNtNtB1a_5token5CommaEE13push_back_mutCsliPDVd4pfgL_15zerofrom_derive, symObjAddr: 0x5870, symBinAddr: 0x6440, symSize: 0x1A0 }
  - { offset: 0x25584, size: 0x8, addend: 0x0, symName: __RNvMs3_NtNtCslJiobkLta79_5alloc11collections9vec_dequeINtB5_8VecDequeTNtNtCsdGrGZaRBwMb_3syn2ty4TypeNtNtB1a_5token5CommaEE15make_contiguousCsliPDVd4pfgL_15zerofrom_derive, symObjAddr: 0x5A10, symBinAddr: 0x65E0, symSize: 0x8F0 }
  - { offset: 0x26608, size: 0x8, addend: 0x0, symName: __RNvMs3_NtNtCslJiobkLta79_5alloc11collections9vec_dequeINtB5_8VecDequeTNtNtCsdGrGZaRBwMb_3syn2ty4TypeNtNtB1a_5token5CommaEE3lenCsliPDVd4pfgL_15zerofrom_derive, symObjAddr: 0x6300, symBinAddr: 0x6ED0, symSize: 0x10 }
  - { offset: 0x266C1, size: 0x8, addend: 0x0, symName: __RNvMs3_NtNtCslJiobkLta79_5alloc11collections9vec_dequeINtB5_8VecDequeTNtNtCsdGrGZaRBwMb_3syn2ty4TypeNtNtB1a_5token5CommaEE4growCsliPDVd4pfgL_15zerofrom_derive, symObjAddr: 0x6310, symBinAddr: 0x6EE0, symSize: 0x60 }
  - { offset: 0x268CB, size: 0x8, addend: 0x0, symName: __RNvMs3_NtNtCslJiobkLta79_5alloc11collections9vec_dequeINtB5_8VecDequeTNtNtCsdGrGZaRBwMb_3syn2ty4TypeNtNtB1a_5token5CommaEE9pop_frontCsliPDVd4pfgL_15zerofrom_derive, symObjAddr: 0x6370, symBinAddr: 0x6F40, symSize: 0x1D0 }
  - { offset: 0x26B3C, size: 0x8, addend: 0x0, symName: __RNvMs3_NtNtCslJiobkLta79_5alloc11collections9vec_dequeINtB5_8VecDequeTNtNtCsdGrGZaRBwMb_3syn2ty4TypeNtNtB1a_5token5CommaEE9push_backCsliPDVd4pfgL_15zerofrom_derive, symObjAddr: 0x6540, symBinAddr: 0x7110, symSize: 0x20 }
  - { offset: 0x26D48, size: 0x8, addend: 0x0, symName: __RNvMs3_NtNtCslJiobkLta79_5alloc11collections9vec_dequeINtB5_8VecDequeTNtNtCsdGrGZaRBwMb_3syn2ty9BareFnArgNtNtB1a_5token5CommaEE13push_back_mutCsliPDVd4pfgL_15zerofrom_derive, symObjAddr: 0x6560, symBinAddr: 0x7130, symSize: 0x1A0 }
  - { offset: 0x27407, size: 0x8, addend: 0x0, symName: __RNvMs3_NtNtCslJiobkLta79_5alloc11collections9vec_dequeINtB5_8VecDequeTNtNtCsdGrGZaRBwMb_3syn2ty9BareFnArgNtNtB1a_5token5CommaEE15make_contiguousCsliPDVd4pfgL_15zerofrom_derive, symObjAddr: 0x6700, symBinAddr: 0x72D0, symSize: 0x8F0 }
  - { offset: 0x2848B, size: 0x8, addend: 0x0, symName: __RNvMs3_NtNtCslJiobkLta79_5alloc11collections9vec_dequeINtB5_8VecDequeTNtNtCsdGrGZaRBwMb_3syn2ty9BareFnArgNtNtB1a_5token5CommaEE3lenCsliPDVd4pfgL_15zerofrom_derive, symObjAddr: 0x6FF0, symBinAddr: 0x7BC0, symSize: 0x10 }
  - { offset: 0x28544, size: 0x8, addend: 0x0, symName: __RNvMs3_NtNtCslJiobkLta79_5alloc11collections9vec_dequeINtB5_8VecDequeTNtNtCsdGrGZaRBwMb_3syn2ty9BareFnArgNtNtB1a_5token5CommaEE4growCsliPDVd4pfgL_15zerofrom_derive, symObjAddr: 0x7000, symBinAddr: 0x7BD0, symSize: 0x60 }
  - { offset: 0x2874E, size: 0x8, addend: 0x0, symName: __RNvMs3_NtNtCslJiobkLta79_5alloc11collections9vec_dequeINtB5_8VecDequeTNtNtCsdGrGZaRBwMb_3syn2ty9BareFnArgNtNtB1a_5token5CommaEE9pop_frontCsliPDVd4pfgL_15zerofrom_derive, symObjAddr: 0x7060, symBinAddr: 0x7C30, symSize: 0x1D0 }
  - { offset: 0x289BF, size: 0x8, addend: 0x0, symName: __RNvMs3_NtNtCslJiobkLta79_5alloc11collections9vec_dequeINtB5_8VecDequeTNtNtCsdGrGZaRBwMb_3syn2ty9BareFnArgNtNtB1a_5token5CommaEE9push_backCsliPDVd4pfgL_15zerofrom_derive, symObjAddr: 0x7230, symBinAddr: 0x7E00, symSize: 0x20 }
  - { offset: 0x28BCB, size: 0x8, addend: 0x0, symName: __RNvMs3_NtNtCslJiobkLta79_5alloc11collections9vec_dequeINtB5_8VecDequeTNtNtCsdGrGZaRBwMb_3syn3pat3PatNtNtB1a_5token2OrEE13push_back_mutCsliPDVd4pfgL_15zerofrom_derive, symObjAddr: 0x7250, symBinAddr: 0x7E20, symSize: 0x1A0 }
  - { offset: 0x2928A, size: 0x8, addend: 0x0, symName: __RNvMs3_NtNtCslJiobkLta79_5alloc11collections9vec_dequeINtB5_8VecDequeTNtNtCsdGrGZaRBwMb_3syn3pat3PatNtNtB1a_5token2OrEE15make_contiguousCsliPDVd4pfgL_15zerofrom_derive, symObjAddr: 0x73F0, symBinAddr: 0x7FC0, symSize: 0x8F0 }
  - { offset: 0x2A30E, size: 0x8, addend: 0x0, symName: __RNvMs3_NtNtCslJiobkLta79_5alloc11collections9vec_dequeINtB5_8VecDequeTNtNtCsdGrGZaRBwMb_3syn3pat3PatNtNtB1a_5token2OrEE3lenCsliPDVd4pfgL_15zerofrom_derive, symObjAddr: 0x7CE0, symBinAddr: 0x88B0, symSize: 0x10 }
  - { offset: 0x2A3C7, size: 0x8, addend: 0x0, symName: __RNvMs3_NtNtCslJiobkLta79_5alloc11collections9vec_dequeINtB5_8VecDequeTNtNtCsdGrGZaRBwMb_3syn3pat3PatNtNtB1a_5token2OrEE4growCsliPDVd4pfgL_15zerofrom_derive, symObjAddr: 0x7CF0, symBinAddr: 0x88C0, symSize: 0x60 }
  - { offset: 0x2A5D1, size: 0x8, addend: 0x0, symName: __RNvMs3_NtNtCslJiobkLta79_5alloc11collections9vec_dequeINtB5_8VecDequeTNtNtCsdGrGZaRBwMb_3syn3pat3PatNtNtB1a_5token2OrEE9pop_frontCsliPDVd4pfgL_15zerofrom_derive, symObjAddr: 0x7D50, symBinAddr: 0x8920, symSize: 0x1D0 }
  - { offset: 0x2A842, size: 0x8, addend: 0x0, symName: __RNvMs3_NtNtCslJiobkLta79_5alloc11collections9vec_dequeINtB5_8VecDequeTNtNtCsdGrGZaRBwMb_3syn3pat3PatNtNtB1a_5token2OrEE9push_backCsliPDVd4pfgL_15zerofrom_derive, symObjAddr: 0x7F20, symBinAddr: 0x8AF0, symSize: 0x20 }
  - { offset: 0x2AA4E, size: 0x8, addend: 0x0, symName: __RNvMs3_NtNtCslJiobkLta79_5alloc11collections9vec_dequeINtB5_8VecDequeTNtNtCsdGrGZaRBwMb_3syn3pat3PatNtNtB1a_5token5CommaEE13push_back_mutCsliPDVd4pfgL_15zerofrom_derive, symObjAddr: 0x7F40, symBinAddr: 0x8B10, symSize: 0x1A0 }
  - { offset: 0x2B10D, size: 0x8, addend: 0x0, symName: __RNvMs3_NtNtCslJiobkLta79_5alloc11collections9vec_dequeINtB5_8VecDequeTNtNtCsdGrGZaRBwMb_3syn3pat3PatNtNtB1a_5token5CommaEE15make_contiguousCsliPDVd4pfgL_15zerofrom_derive, symObjAddr: 0x80E0, symBinAddr: 0x8CB0, symSize: 0x8F0 }
  - { offset: 0x2C191, size: 0x8, addend: 0x0, symName: __RNvMs3_NtNtCslJiobkLta79_5alloc11collections9vec_dequeINtB5_8VecDequeTNtNtCsdGrGZaRBwMb_3syn3pat3PatNtNtB1a_5token5CommaEE3lenCsliPDVd4pfgL_15zerofrom_derive, symObjAddr: 0x89D0, symBinAddr: 0x95A0, symSize: 0x10 }
  - { offset: 0x2C24A, size: 0x8, addend: 0x0, symName: __RNvMs3_NtNtCslJiobkLta79_5alloc11collections9vec_dequeINtB5_8VecDequeTNtNtCsdGrGZaRBwMb_3syn3pat3PatNtNtB1a_5token5CommaEE4growCsliPDVd4pfgL_15zerofrom_derive, symObjAddr: 0x89E0, symBinAddr: 0x95B0, symSize: 0x60 }
  - { offset: 0x2C454, size: 0x8, addend: 0x0, symName: __RNvMs3_NtNtCslJiobkLta79_5alloc11collections9vec_dequeINtB5_8VecDequeTNtNtCsdGrGZaRBwMb_3syn3pat3PatNtNtB1a_5token5CommaEE9pop_frontCsliPDVd4pfgL_15zerofrom_derive, symObjAddr: 0x8A40, symBinAddr: 0x9610, symSize: 0x1D0 }
  - { offset: 0x2C6C5, size: 0x8, addend: 0x0, symName: __RNvMs3_NtNtCslJiobkLta79_5alloc11collections9vec_dequeINtB5_8VecDequeTNtNtCsdGrGZaRBwMb_3syn3pat3PatNtNtB1a_5token5CommaEE9push_backCsliPDVd4pfgL_15zerofrom_derive, symObjAddr: 0x8C10, symBinAddr: 0x97E0, symSize: 0x20 }
  - { offset: 0x2C8D1, size: 0x8, addend: 0x0, symName: __RNvMs3_NtNtCslJiobkLta79_5alloc11collections9vec_dequeINtB5_8VecDequeTNtNtCsdGrGZaRBwMb_3syn3pat8FieldPatNtNtB1a_5token5CommaEE13push_back_mutCsliPDVd4pfgL_15zerofrom_derive, symObjAddr: 0x8C30, symBinAddr: 0x9800, symSize: 0x190 }
  - { offset: 0x2CF90, size: 0x8, addend: 0x0, symName: __RNvMs3_NtNtCslJiobkLta79_5alloc11collections9vec_dequeINtB5_8VecDequeTNtNtCsdGrGZaRBwMb_3syn3pat8FieldPatNtNtB1a_5token5CommaEE15make_contiguousCsliPDVd4pfgL_15zerofrom_derive, symObjAddr: 0x8DC0, symBinAddr: 0x9990, symSize: 0x8B0 }
  - { offset: 0x2E014, size: 0x8, addend: 0x0, symName: __RNvMs3_NtNtCslJiobkLta79_5alloc11collections9vec_dequeINtB5_8VecDequeTNtNtCsdGrGZaRBwMb_3syn3pat8FieldPatNtNtB1a_5token5CommaEE3lenCsliPDVd4pfgL_15zerofrom_derive, symObjAddr: 0x9670, symBinAddr: 0xA240, symSize: 0x10 }
  - { offset: 0x2E0CD, size: 0x8, addend: 0x0, symName: __RNvMs3_NtNtCslJiobkLta79_5alloc11collections9vec_dequeINtB5_8VecDequeTNtNtCsdGrGZaRBwMb_3syn3pat8FieldPatNtNtB1a_5token5CommaEE4growCsliPDVd4pfgL_15zerofrom_derive, symObjAddr: 0x9680, symBinAddr: 0xA250, symSize: 0x60 }
  - { offset: 0x2E2D7, size: 0x8, addend: 0x0, symName: __RNvMs3_NtNtCslJiobkLta79_5alloc11collections9vec_dequeINtB5_8VecDequeTNtNtCsdGrGZaRBwMb_3syn3pat8FieldPatNtNtB1a_5token5CommaEE9pop_frontCsliPDVd4pfgL_15zerofrom_derive, symObjAddr: 0x96E0, symBinAddr: 0xA2B0, symSize: 0x1D0 }
  - { offset: 0x2E548, size: 0x8, addend: 0x0, symName: __RNvMs3_NtNtCslJiobkLta79_5alloc11collections9vec_dequeINtB5_8VecDequeTNtNtCsdGrGZaRBwMb_3syn3pat8FieldPatNtNtB1a_5token5CommaEE9push_backCsliPDVd4pfgL_15zerofrom_derive, symObjAddr: 0x98B0, symBinAddr: 0xA480, symSize: 0x20 }
  - { offset: 0x2E754, size: 0x8, addend: 0x0, symName: __RNvMs3_NtNtCslJiobkLta79_5alloc11collections9vec_dequeINtB5_8VecDequeTNtNtCsdGrGZaRBwMb_3syn4data5FieldNtNtB1a_5token5CommaEE13push_back_mutCsliPDVd4pfgL_15zerofrom_derive, symObjAddr: 0x98D0, symBinAddr: 0xA4A0, symSize: 0x1A0 }
  - { offset: 0x2EE13, size: 0x8, addend: 0x0, symName: __RNvMs3_NtNtCslJiobkLta79_5alloc11collections9vec_dequeINtB5_8VecDequeTNtNtCsdGrGZaRBwMb_3syn4data5FieldNtNtB1a_5token5CommaEE15make_contiguousCsliPDVd4pfgL_15zerofrom_derive, symObjAddr: 0x9A70, symBinAddr: 0xA640, symSize: 0x8F0 }
  - { offset: 0x2FE97, size: 0x8, addend: 0x0, symName: __RNvMs3_NtNtCslJiobkLta79_5alloc11collections9vec_dequeINtB5_8VecDequeTNtNtCsdGrGZaRBwMb_3syn4data5FieldNtNtB1a_5token5CommaEE3lenCsliPDVd4pfgL_15zerofrom_derive, symObjAddr: 0xA360, symBinAddr: 0xAF30, symSize: 0x10 }
  - { offset: 0x2FF50, size: 0x8, addend: 0x0, symName: __RNvMs3_NtNtCslJiobkLta79_5alloc11collections9vec_dequeINtB5_8VecDequeTNtNtCsdGrGZaRBwMb_3syn4data5FieldNtNtB1a_5token5CommaEE4growCsliPDVd4pfgL_15zerofrom_derive, symObjAddr: 0xA370, symBinAddr: 0xAF40, symSize: 0x60 }
  - { offset: 0x3015A, size: 0x8, addend: 0x0, symName: __RNvMs3_NtNtCslJiobkLta79_5alloc11collections9vec_dequeINtB5_8VecDequeTNtNtCsdGrGZaRBwMb_3syn4data5FieldNtNtB1a_5token5CommaEE9pop_frontCsliPDVd4pfgL_15zerofrom_derive, symObjAddr: 0xA3D0, symBinAddr: 0xAFA0, symSize: 0x1D0 }
  - { offset: 0x303CB, size: 0x8, addend: 0x0, symName: __RNvMs3_NtNtCslJiobkLta79_5alloc11collections9vec_dequeINtB5_8VecDequeTNtNtCsdGrGZaRBwMb_3syn4data5FieldNtNtB1a_5token5CommaEE9push_backCsliPDVd4pfgL_15zerofrom_derive, symObjAddr: 0xA5A0, symBinAddr: 0xB170, symSize: 0x20 }
  - { offset: 0x305D7, size: 0x8, addend: 0x0, symName: __RNvMs3_NtNtCslJiobkLta79_5alloc11collections9vec_dequeINtB5_8VecDequeTNtNtCsdGrGZaRBwMb_3syn4data7VariantNtNtB1a_5token5CommaEE13push_back_mutCsliPDVd4pfgL_15zerofrom_derive, symObjAddr: 0xA5C0, symBinAddr: 0xB190, symSize: 0x1A0 }
  - { offset: 0x30C96, size: 0x8, addend: 0x0, symName: __RNvMs3_NtNtCslJiobkLta79_5alloc11collections9vec_dequeINtB5_8VecDequeTNtNtCsdGrGZaRBwMb_3syn4data7VariantNtNtB1a_5token5CommaEE15make_contiguousCsliPDVd4pfgL_15zerofrom_derive, symObjAddr: 0xA760, symBinAddr: 0xB330, symSize: 0x8F0 }
  - { offset: 0x31D1A, size: 0x8, addend: 0x0, symName: __RNvMs3_NtNtCslJiobkLta79_5alloc11collections9vec_dequeINtB5_8VecDequeTNtNtCsdGrGZaRBwMb_3syn4data7VariantNtNtB1a_5token5CommaEE3lenCsliPDVd4pfgL_15zerofrom_derive, symObjAddr: 0xB050, symBinAddr: 0xBC20, symSize: 0x10 }
  - { offset: 0x31DD3, size: 0x8, addend: 0x0, symName: __RNvMs3_NtNtCslJiobkLta79_5alloc11collections9vec_dequeINtB5_8VecDequeTNtNtCsdGrGZaRBwMb_3syn4data7VariantNtNtB1a_5token5CommaEE4growCsliPDVd4pfgL_15zerofrom_derive, symObjAddr: 0xB060, symBinAddr: 0xBC30, symSize: 0x60 }
  - { offset: 0x31FDD, size: 0x8, addend: 0x0, symName: __RNvMs3_NtNtCslJiobkLta79_5alloc11collections9vec_dequeINtB5_8VecDequeTNtNtCsdGrGZaRBwMb_3syn4data7VariantNtNtB1a_5token5CommaEE9pop_frontCsliPDVd4pfgL_15zerofrom_derive, symObjAddr: 0xB0C0, symBinAddr: 0xBC90, symSize: 0x1D0 }
  - { offset: 0x3224E, size: 0x8, addend: 0x0, symName: __RNvMs3_NtNtCslJiobkLta79_5alloc11collections9vec_dequeINtB5_8VecDequeTNtNtCsdGrGZaRBwMb_3syn4data7VariantNtNtB1a_5token5CommaEE9push_backCsliPDVd4pfgL_15zerofrom_derive, symObjAddr: 0xB290, symBinAddr: 0xBE60, symSize: 0x20 }
  - { offset: 0x3245A, size: 0x8, addend: 0x0, symName: __RNvMs3_NtNtCslJiobkLta79_5alloc11collections9vec_dequeINtB5_8VecDequeTNtNtCsdGrGZaRBwMb_3syn4expr10FieldValueNtNtB1a_5token5CommaEE13push_back_mutCsliPDVd4pfgL_15zerofrom_derive, symObjAddr: 0xB2B0, symBinAddr: 0xBE80, symSize: 0x1A0 }
  - { offset: 0x32B19, size: 0x8, addend: 0x0, symName: __RNvMs3_NtNtCslJiobkLta79_5alloc11collections9vec_dequeINtB5_8VecDequeTNtNtCsdGrGZaRBwMb_3syn4expr10FieldValueNtNtB1a_5token5CommaEE15make_contiguousCsliPDVd4pfgL_15zerofrom_derive, symObjAddr: 0xB450, symBinAddr: 0xC020, symSize: 0x8F0 }
  - { offset: 0x33B9D, size: 0x8, addend: 0x0, symName: __RNvMs3_NtNtCslJiobkLta79_5alloc11collections9vec_dequeINtB5_8VecDequeTNtNtCsdGrGZaRBwMb_3syn4expr10FieldValueNtNtB1a_5token5CommaEE3lenCsliPDVd4pfgL_15zerofrom_derive, symObjAddr: 0xBD40, symBinAddr: 0xC910, symSize: 0x10 }
  - { offset: 0x33C56, size: 0x8, addend: 0x0, symName: __RNvMs3_NtNtCslJiobkLta79_5alloc11collections9vec_dequeINtB5_8VecDequeTNtNtCsdGrGZaRBwMb_3syn4expr10FieldValueNtNtB1a_5token5CommaEE4growCsliPDVd4pfgL_15zerofrom_derive, symObjAddr: 0xBD50, symBinAddr: 0xC920, symSize: 0x60 }
  - { offset: 0x33E60, size: 0x8, addend: 0x0, symName: __RNvMs3_NtNtCslJiobkLta79_5alloc11collections9vec_dequeINtB5_8VecDequeTNtNtCsdGrGZaRBwMb_3syn4expr10FieldValueNtNtB1a_5token5CommaEE9pop_frontCsliPDVd4pfgL_15zerofrom_derive, symObjAddr: 0xBDB0, symBinAddr: 0xC980, symSize: 0x1D0 }
  - { offset: 0x340D1, size: 0x8, addend: 0x0, symName: __RNvMs3_NtNtCslJiobkLta79_5alloc11collections9vec_dequeINtB5_8VecDequeTNtNtCsdGrGZaRBwMb_3syn4expr10FieldValueNtNtB1a_5token5CommaEE9push_backCsliPDVd4pfgL_15zerofrom_derive, symObjAddr: 0xBF80, symBinAddr: 0xCB50, symSize: 0x20 }
  - { offset: 0x342DD, size: 0x8, addend: 0x0, symName: __RNvMs3_NtNtCslJiobkLta79_5alloc11collections9vec_dequeINtB5_8VecDequeTNtNtCsdGrGZaRBwMb_3syn4expr4ExprNtNtB1a_5token5CommaEE13push_back_mutCsliPDVd4pfgL_15zerofrom_derive, symObjAddr: 0xBFA0, symBinAddr: 0xCB70, symSize: 0x1A0 }
  - { offset: 0x3499C, size: 0x8, addend: 0x0, symName: __RNvMs3_NtNtCslJiobkLta79_5alloc11collections9vec_dequeINtB5_8VecDequeTNtNtCsdGrGZaRBwMb_3syn4expr4ExprNtNtB1a_5token5CommaEE15make_contiguousCsliPDVd4pfgL_15zerofrom_derive, symObjAddr: 0xC140, symBinAddr: 0xCD10, symSize: 0x8F0 }
  - { offset: 0x35A20, size: 0x8, addend: 0x0, symName: __RNvMs3_NtNtCslJiobkLta79_5alloc11collections9vec_dequeINtB5_8VecDequeTNtNtCsdGrGZaRBwMb_3syn4expr4ExprNtNtB1a_5token5CommaEE3lenCsliPDVd4pfgL_15zerofrom_derive, symObjAddr: 0xCA30, symBinAddr: 0xD600, symSize: 0x10 }
  - { offset: 0x35AD9, size: 0x8, addend: 0x0, symName: __RNvMs3_NtNtCslJiobkLta79_5alloc11collections9vec_dequeINtB5_8VecDequeTNtNtCsdGrGZaRBwMb_3syn4expr4ExprNtNtB1a_5token5CommaEE4growCsliPDVd4pfgL_15zerofrom_derive, symObjAddr: 0xCA40, symBinAddr: 0xD610, symSize: 0x60 }
  - { offset: 0x35CE3, size: 0x8, addend: 0x0, symName: __RNvMs3_NtNtCslJiobkLta79_5alloc11collections9vec_dequeINtB5_8VecDequeTNtNtCsdGrGZaRBwMb_3syn4expr4ExprNtNtB1a_5token5CommaEE9pop_frontCsliPDVd4pfgL_15zerofrom_derive, symObjAddr: 0xCAA0, symBinAddr: 0xD670, symSize: 0x1D0 }
  - { offset: 0x35F54, size: 0x8, addend: 0x0, symName: __RNvMs3_NtNtCslJiobkLta79_5alloc11collections9vec_dequeINtB5_8VecDequeTNtNtCsdGrGZaRBwMb_3syn4expr4ExprNtNtB1a_5token5CommaEE9push_backCsliPDVd4pfgL_15zerofrom_derive, symObjAddr: 0xCC70, symBinAddr: 0xD840, symSize: 0x20 }
  - { offset: 0x36160, size: 0x8, addend: 0x0, symName: __RNvMs3_NtNtCslJiobkLta79_5alloc11collections9vec_dequeINtB5_8VecDequeTNtNtCsdGrGZaRBwMb_3syn4item5FnArgNtNtB1a_5token5CommaEE13push_back_mutCsliPDVd4pfgL_15zerofrom_derive, symObjAddr: 0xCC90, symBinAddr: 0xD860, symSize: 0x190 }
  - { offset: 0x3681F, size: 0x8, addend: 0x0, symName: __RNvMs3_NtNtCslJiobkLta79_5alloc11collections9vec_dequeINtB5_8VecDequeTNtNtCsdGrGZaRBwMb_3syn4item5FnArgNtNtB1a_5token5CommaEE15make_contiguousCsliPDVd4pfgL_15zerofrom_derive, symObjAddr: 0xCE20, symBinAddr: 0xD9F0, symSize: 0x8B0 }
  - { offset: 0x378A3, size: 0x8, addend: 0x0, symName: __RNvMs3_NtNtCslJiobkLta79_5alloc11collections9vec_dequeINtB5_8VecDequeTNtNtCsdGrGZaRBwMb_3syn4item5FnArgNtNtB1a_5token5CommaEE3lenCsliPDVd4pfgL_15zerofrom_derive, symObjAddr: 0xD6D0, symBinAddr: 0xE2A0, symSize: 0x10 }
  - { offset: 0x3795C, size: 0x8, addend: 0x0, symName: __RNvMs3_NtNtCslJiobkLta79_5alloc11collections9vec_dequeINtB5_8VecDequeTNtNtCsdGrGZaRBwMb_3syn4item5FnArgNtNtB1a_5token5CommaEE4growCsliPDVd4pfgL_15zerofrom_derive, symObjAddr: 0xD6E0, symBinAddr: 0xE2B0, symSize: 0x60 }
  - { offset: 0x37B66, size: 0x8, addend: 0x0, symName: __RNvMs3_NtNtCslJiobkLta79_5alloc11collections9vec_dequeINtB5_8VecDequeTNtNtCsdGrGZaRBwMb_3syn4item5FnArgNtNtB1a_5token5CommaEE9pop_frontCsliPDVd4pfgL_15zerofrom_derive, symObjAddr: 0xD740, symBinAddr: 0xE310, symSize: 0x1D0 }
  - { offset: 0x37DD7, size: 0x8, addend: 0x0, symName: __RNvMs3_NtNtCslJiobkLta79_5alloc11collections9vec_dequeINtB5_8VecDequeTNtNtCsdGrGZaRBwMb_3syn4item5FnArgNtNtB1a_5token5CommaEE9push_backCsliPDVd4pfgL_15zerofrom_derive, symObjAddr: 0xD910, symBinAddr: 0xE4E0, symSize: 0x20 }
  - { offset: 0x37FE3, size: 0x8, addend: 0x0, symName: __RNvMs3_NtNtCslJiobkLta79_5alloc11collections9vec_dequeINtB5_8VecDequeTNtNtCsdGrGZaRBwMb_3syn4item7UseTreeNtNtB1a_5token5CommaEE13push_back_mutCsliPDVd4pfgL_15zerofrom_derive, symObjAddr: 0xD930, symBinAddr: 0xE500, symSize: 0x190 }
  - { offset: 0x386A2, size: 0x8, addend: 0x0, symName: __RNvMs3_NtNtCslJiobkLta79_5alloc11collections9vec_dequeINtB5_8VecDequeTNtNtCsdGrGZaRBwMb_3syn4item7UseTreeNtNtB1a_5token5CommaEE15make_contiguousCsliPDVd4pfgL_15zerofrom_derive, symObjAddr: 0xDAC0, symBinAddr: 0xE690, symSize: 0x8B0 }
  - { offset: 0x39726, size: 0x8, addend: 0x0, symName: __RNvMs3_NtNtCslJiobkLta79_5alloc11collections9vec_dequeINtB5_8VecDequeTNtNtCsdGrGZaRBwMb_3syn4item7UseTreeNtNtB1a_5token5CommaEE3lenCsliPDVd4pfgL_15zerofrom_derive, symObjAddr: 0xE370, symBinAddr: 0xEF40, symSize: 0x10 }
  - { offset: 0x397DF, size: 0x8, addend: 0x0, symName: __RNvMs3_NtNtCslJiobkLta79_5alloc11collections9vec_dequeINtB5_8VecDequeTNtNtCsdGrGZaRBwMb_3syn4item7UseTreeNtNtB1a_5token5CommaEE4growCsliPDVd4pfgL_15zerofrom_derive, symObjAddr: 0xE380, symBinAddr: 0xEF50, symSize: 0x60 }
  - { offset: 0x399E9, size: 0x8, addend: 0x0, symName: __RNvMs3_NtNtCslJiobkLta79_5alloc11collections9vec_dequeINtB5_8VecDequeTNtNtCsdGrGZaRBwMb_3syn4item7UseTreeNtNtB1a_5token5CommaEE9pop_frontCsliPDVd4pfgL_15zerofrom_derive, symObjAddr: 0xE3E0, symBinAddr: 0xEFB0, symSize: 0x1D0 }
  - { offset: 0x39C5A, size: 0x8, addend: 0x0, symName: __RNvMs3_NtNtCslJiobkLta79_5alloc11collections9vec_dequeINtB5_8VecDequeTNtNtCsdGrGZaRBwMb_3syn4item7UseTreeNtNtB1a_5token5CommaEE9push_backCsliPDVd4pfgL_15zerofrom_derive, symObjAddr: 0xE5B0, symBinAddr: 0xF180, symSize: 0x20 }
  - { offset: 0x39E66, size: 0x8, addend: 0x0, symName: __RNvMs3_NtNtCslJiobkLta79_5alloc11collections9vec_dequeINtB5_8VecDequeTNtNtCsdGrGZaRBwMb_3syn4path11PathSegmentNtNtB1a_5token7PathSepEE13push_back_mutCsliPDVd4pfgL_15zerofrom_derive, symObjAddr: 0xE5D0, symBinAddr: 0xF1A0, symSize: 0x190 }
  - { offset: 0x3A525, size: 0x8, addend: 0x0, symName: __RNvMs3_NtNtCslJiobkLta79_5alloc11collections9vec_dequeINtB5_8VecDequeTNtNtCsdGrGZaRBwMb_3syn4path11PathSegmentNtNtB1a_5token7PathSepEE15make_contiguousCsliPDVd4pfgL_15zerofrom_derive, symObjAddr: 0xE760, symBinAddr: 0xF330, symSize: 0x8B0 }
  - { offset: 0x3B5A9, size: 0x8, addend: 0x0, symName: __RNvMs3_NtNtCslJiobkLta79_5alloc11collections9vec_dequeINtB5_8VecDequeTNtNtCsdGrGZaRBwMb_3syn4path11PathSegmentNtNtB1a_5token7PathSepEE3lenCsliPDVd4pfgL_15zerofrom_derive, symObjAddr: 0xF010, symBinAddr: 0xFBE0, symSize: 0x10 }
  - { offset: 0x3B662, size: 0x8, addend: 0x0, symName: __RNvMs3_NtNtCslJiobkLta79_5alloc11collections9vec_dequeINtB5_8VecDequeTNtNtCsdGrGZaRBwMb_3syn4path11PathSegmentNtNtB1a_5token7PathSepEE4growCsliPDVd4pfgL_15zerofrom_derive, symObjAddr: 0xF020, symBinAddr: 0xFBF0, symSize: 0x60 }
  - { offset: 0x3B86C, size: 0x8, addend: 0x0, symName: __RNvMs3_NtNtCslJiobkLta79_5alloc11collections9vec_dequeINtB5_8VecDequeTNtNtCsdGrGZaRBwMb_3syn4path11PathSegmentNtNtB1a_5token7PathSepEE9pop_frontCsliPDVd4pfgL_15zerofrom_derive, symObjAddr: 0xF080, symBinAddr: 0xFC50, symSize: 0x1D0 }
  - { offset: 0x3BADD, size: 0x8, addend: 0x0, symName: __RNvMs3_NtNtCslJiobkLta79_5alloc11collections9vec_dequeINtB5_8VecDequeTNtNtCsdGrGZaRBwMb_3syn4path11PathSegmentNtNtB1a_5token7PathSepEE9push_backCsliPDVd4pfgL_15zerofrom_derive, symObjAddr: 0xF250, symBinAddr: 0xFE20, symSize: 0x20 }
  - { offset: 0x3BCE9, size: 0x8, addend: 0x0, symName: __RNvMs3_NtNtCslJiobkLta79_5alloc11collections9vec_dequeINtB5_8VecDequeTNtNtCsdGrGZaRBwMb_3syn4path15GenericArgumentNtNtB1a_5token5CommaEE13push_back_mutCsliPDVd4pfgL_15zerofrom_derive, symObjAddr: 0xF270, symBinAddr: 0xFE40, symSize: 0x1A0 }
  - { offset: 0x3C3A8, size: 0x8, addend: 0x0, symName: __RNvMs3_NtNtCslJiobkLta79_5alloc11collections9vec_dequeINtB5_8VecDequeTNtNtCsdGrGZaRBwMb_3syn4path15GenericArgumentNtNtB1a_5token5CommaEE15make_contiguousCsliPDVd4pfgL_15zerofrom_derive, symObjAddr: 0xF410, symBinAddr: 0xFFE0, symSize: 0x8F0 }
  - { offset: 0x3D42C, size: 0x8, addend: 0x0, symName: __RNvMs3_NtNtCslJiobkLta79_5alloc11collections9vec_dequeINtB5_8VecDequeTNtNtCsdGrGZaRBwMb_3syn4path15GenericArgumentNtNtB1a_5token5CommaEE3lenCsliPDVd4pfgL_15zerofrom_derive, symObjAddr: 0xFD00, symBinAddr: 0x108D0, symSize: 0x10 }
  - { offset: 0x3D4E5, size: 0x8, addend: 0x0, symName: __RNvMs3_NtNtCslJiobkLta79_5alloc11collections9vec_dequeINtB5_8VecDequeTNtNtCsdGrGZaRBwMb_3syn4path15GenericArgumentNtNtB1a_5token5CommaEE4growCsliPDVd4pfgL_15zerofrom_derive, symObjAddr: 0xFD10, symBinAddr: 0x108E0, symSize: 0x60 }
  - { offset: 0x3D6EF, size: 0x8, addend: 0x0, symName: __RNvMs3_NtNtCslJiobkLta79_5alloc11collections9vec_dequeINtB5_8VecDequeTNtNtCsdGrGZaRBwMb_3syn4path15GenericArgumentNtNtB1a_5token5CommaEE9pop_frontCsliPDVd4pfgL_15zerofrom_derive, symObjAddr: 0xFD70, symBinAddr: 0x10940, symSize: 0x1D0 }
  - { offset: 0x3D960, size: 0x8, addend: 0x0, symName: __RNvMs3_NtNtCslJiobkLta79_5alloc11collections9vec_dequeINtB5_8VecDequeTNtNtCsdGrGZaRBwMb_3syn4path15GenericArgumentNtNtB1a_5token5CommaEE9push_backCsliPDVd4pfgL_15zerofrom_derive, symObjAddr: 0xFF40, symBinAddr: 0x10B10, symSize: 0x20 }
  - { offset: 0x3DB6C, size: 0x8, addend: 0x0, symName: __RNvMs3_NtNtCslJiobkLta79_5alloc11collections9vec_dequeINtB5_8VecDequeTNtNtCsdGrGZaRBwMb_3syn8generics12GenericParamNtNtB1a_5token5CommaEE13push_back_mutCsliPDVd4pfgL_15zerofrom_derive, symObjAddr: 0xFF60, symBinAddr: 0x10B30, symSize: 0x1A0 }
  - { offset: 0x3E22B, size: 0x8, addend: 0x0, symName: __RNvMs3_NtNtCslJiobkLta79_5alloc11collections9vec_dequeINtB5_8VecDequeTNtNtCsdGrGZaRBwMb_3syn8generics12GenericParamNtNtB1a_5token5CommaEE15make_contiguousCsliPDVd4pfgL_15zerofrom_derive, symObjAddr: 0x10100, symBinAddr: 0x10CD0, symSize: 0x8F0 }
  - { offset: 0x3F2AF, size: 0x8, addend: 0x0, symName: __RNvMs3_NtNtCslJiobkLta79_5alloc11collections9vec_dequeINtB5_8VecDequeTNtNtCsdGrGZaRBwMb_3syn8generics12GenericParamNtNtB1a_5token5CommaEE3lenCsliPDVd4pfgL_15zerofrom_derive, symObjAddr: 0x109F0, symBinAddr: 0x115C0, symSize: 0x10 }
  - { offset: 0x3F368, size: 0x8, addend: 0x0, symName: __RNvMs3_NtNtCslJiobkLta79_5alloc11collections9vec_dequeINtB5_8VecDequeTNtNtCsdGrGZaRBwMb_3syn8generics12GenericParamNtNtB1a_5token5CommaEE4growCsliPDVd4pfgL_15zerofrom_derive, symObjAddr: 0x10A00, symBinAddr: 0x115D0, symSize: 0x60 }
  - { offset: 0x3F572, size: 0x8, addend: 0x0, symName: __RNvMs3_NtNtCslJiobkLta79_5alloc11collections9vec_dequeINtB5_8VecDequeTNtNtCsdGrGZaRBwMb_3syn8generics12GenericParamNtNtB1a_5token5CommaEE9pop_frontCsliPDVd4pfgL_15zerofrom_derive, symObjAddr: 0x10A60, symBinAddr: 0x11630, symSize: 0x1D0 }
  - { offset: 0x3F7E3, size: 0x8, addend: 0x0, symName: __RNvMs3_NtNtCslJiobkLta79_5alloc11collections9vec_dequeINtB5_8VecDequeTNtNtCsdGrGZaRBwMb_3syn8generics12GenericParamNtNtB1a_5token5CommaEE9push_backCsliPDVd4pfgL_15zerofrom_derive, symObjAddr: 0x10C30, symBinAddr: 0x11800, symSize: 0x20 }
  - { offset: 0x3F9EF, size: 0x8, addend: 0x0, symName: __RNvMs3_NtNtCslJiobkLta79_5alloc11collections9vec_dequeINtB5_8VecDequeTNtNtCsdGrGZaRBwMb_3syn8generics13CapturedParamNtNtB1a_5token5CommaEE13push_back_mutCsliPDVd4pfgL_15zerofrom_derive, symObjAddr: 0x10C50, symBinAddr: 0x11820, symSize: 0x190 }
  - { offset: 0x400AE, size: 0x8, addend: 0x0, symName: __RNvMs3_NtNtCslJiobkLta79_5alloc11collections9vec_dequeINtB5_8VecDequeTNtNtCsdGrGZaRBwMb_3syn8generics13CapturedParamNtNtB1a_5token5CommaEE15make_contiguousCsliPDVd4pfgL_15zerofrom_derive, symObjAddr: 0x10DE0, symBinAddr: 0x119B0, symSize: 0x8B0 }
  - { offset: 0x41132, size: 0x8, addend: 0x0, symName: __RNvMs3_NtNtCslJiobkLta79_5alloc11collections9vec_dequeINtB5_8VecDequeTNtNtCsdGrGZaRBwMb_3syn8generics13CapturedParamNtNtB1a_5token5CommaEE3lenCsliPDVd4pfgL_15zerofrom_derive, symObjAddr: 0x11690, symBinAddr: 0x12260, symSize: 0x10 }
  - { offset: 0x411EB, size: 0x8, addend: 0x0, symName: __RNvMs3_NtNtCslJiobkLta79_5alloc11collections9vec_dequeINtB5_8VecDequeTNtNtCsdGrGZaRBwMb_3syn8generics13CapturedParamNtNtB1a_5token5CommaEE4growCsliPDVd4pfgL_15zerofrom_derive, symObjAddr: 0x116A0, symBinAddr: 0x12270, symSize: 0x60 }
  - { offset: 0x413F5, size: 0x8, addend: 0x0, symName: __RNvMs3_NtNtCslJiobkLta79_5alloc11collections9vec_dequeINtB5_8VecDequeTNtNtCsdGrGZaRBwMb_3syn8generics13CapturedParamNtNtB1a_5token5CommaEE9pop_frontCsliPDVd4pfgL_15zerofrom_derive, symObjAddr: 0x11700, symBinAddr: 0x122D0, symSize: 0x1D0 }
  - { offset: 0x41666, size: 0x8, addend: 0x0, symName: __RNvMs3_NtNtCslJiobkLta79_5alloc11collections9vec_dequeINtB5_8VecDequeTNtNtCsdGrGZaRBwMb_3syn8generics13CapturedParamNtNtB1a_5token5CommaEE9push_backCsliPDVd4pfgL_15zerofrom_derive, symObjAddr: 0x118D0, symBinAddr: 0x124A0, symSize: 0x20 }
  - { offset: 0x41872, size: 0x8, addend: 0x0, symName: __RNvMs3_NtNtCslJiobkLta79_5alloc11collections9vec_dequeINtB5_8VecDequeTNtNtCsdGrGZaRBwMb_3syn8generics14TypeParamBoundNtNtB1a_5token4PlusEE13push_back_mutCsliPDVd4pfgL_15zerofrom_derive, symObjAddr: 0x118F0, symBinAddr: 0x124C0, symSize: 0x1A0 }
  - { offset: 0x41F31, size: 0x8, addend: 0x0, symName: __RNvMs3_NtNtCslJiobkLta79_5alloc11collections9vec_dequeINtB5_8VecDequeTNtNtCsdGrGZaRBwMb_3syn8generics14TypeParamBoundNtNtB1a_5token4PlusEE15make_contiguousCsliPDVd4pfgL_15zerofrom_derive, symObjAddr: 0x11A90, symBinAddr: 0x12660, symSize: 0x8C0 }
  - { offset: 0x42FB5, size: 0x8, addend: 0x0, symName: __RNvMs3_NtNtCslJiobkLta79_5alloc11collections9vec_dequeINtB5_8VecDequeTNtNtCsdGrGZaRBwMb_3syn8generics14TypeParamBoundNtNtB1a_5token4PlusEE3lenCsliPDVd4pfgL_15zerofrom_derive, symObjAddr: 0x12350, symBinAddr: 0x12F20, symSize: 0x10 }
  - { offset: 0x4306E, size: 0x8, addend: 0x0, symName: __RNvMs3_NtNtCslJiobkLta79_5alloc11collections9vec_dequeINtB5_8VecDequeTNtNtCsdGrGZaRBwMb_3syn8generics14TypeParamBoundNtNtB1a_5token4PlusEE4growCsliPDVd4pfgL_15zerofrom_derive, symObjAddr: 0x12360, symBinAddr: 0x12F30, symSize: 0x60 }
  - { offset: 0x43278, size: 0x8, addend: 0x0, symName: __RNvMs3_NtNtCslJiobkLta79_5alloc11collections9vec_dequeINtB5_8VecDequeTNtNtCsdGrGZaRBwMb_3syn8generics14TypeParamBoundNtNtB1a_5token4PlusEE9pop_frontCsliPDVd4pfgL_15zerofrom_derive, symObjAddr: 0x123C0, symBinAddr: 0x12F90, symSize: 0x1D0 }
  - { offset: 0x434E9, size: 0x8, addend: 0x0, symName: __RNvMs3_NtNtCslJiobkLta79_5alloc11collections9vec_dequeINtB5_8VecDequeTNtNtCsdGrGZaRBwMb_3syn8generics14TypeParamBoundNtNtB1a_5token4PlusEE9push_backCsliPDVd4pfgL_15zerofrom_derive, symObjAddr: 0x12590, symBinAddr: 0x13160, symSize: 0x20 }
  - { offset: 0x436F5, size: 0x8, addend: 0x0, symName: __RNvMs3_NtNtCslJiobkLta79_5alloc11collections9vec_dequeINtB5_8VecDequeTNtNtCsdGrGZaRBwMb_3syn8generics14WherePredicateNtNtB1a_5token5CommaEE13push_back_mutCsliPDVd4pfgL_15zerofrom_derive, symObjAddr: 0x125B0, symBinAddr: 0x13180, symSize: 0x1A0 }
  - { offset: 0x43DB4, size: 0x8, addend: 0x0, symName: __RNvMs3_NtNtCslJiobkLta79_5alloc11collections9vec_dequeINtB5_8VecDequeTNtNtCsdGrGZaRBwMb_3syn8generics14WherePredicateNtNtB1a_5token5CommaEE15make_contiguousCsliPDVd4pfgL_15zerofrom_derive, symObjAddr: 0x12750, symBinAddr: 0x13320, symSize: 0x8F0 }
  - { offset: 0x44E38, size: 0x8, addend: 0x0, symName: __RNvMs3_NtNtCslJiobkLta79_5alloc11collections9vec_dequeINtB5_8VecDequeTNtNtCsdGrGZaRBwMb_3syn8generics14WherePredicateNtNtB1a_5token5CommaEE3lenCsliPDVd4pfgL_15zerofrom_derive, symObjAddr: 0x13040, symBinAddr: 0x13C10, symSize: 0x10 }
  - { offset: 0x44EF1, size: 0x8, addend: 0x0, symName: __RNvMs3_NtNtCslJiobkLta79_5alloc11collections9vec_dequeINtB5_8VecDequeTNtNtCsdGrGZaRBwMb_3syn8generics14WherePredicateNtNtB1a_5token5CommaEE4growCsliPDVd4pfgL_15zerofrom_derive, symObjAddr: 0x13050, symBinAddr: 0x13C20, symSize: 0x60 }
  - { offset: 0x450FB, size: 0x8, addend: 0x0, symName: __RNvMs3_NtNtCslJiobkLta79_5alloc11collections9vec_dequeINtB5_8VecDequeTNtNtCsdGrGZaRBwMb_3syn8generics14WherePredicateNtNtB1a_5token5CommaEE9pop_frontCsliPDVd4pfgL_15zerofrom_derive, symObjAddr: 0x130B0, symBinAddr: 0x13C80, symSize: 0x1D0 }
  - { offset: 0x4536C, size: 0x8, addend: 0x0, symName: __RNvMs3_NtNtCslJiobkLta79_5alloc11collections9vec_dequeINtB5_8VecDequeTNtNtCsdGrGZaRBwMb_3syn8generics14WherePredicateNtNtB1a_5token5CommaEE9push_backCsliPDVd4pfgL_15zerofrom_derive, symObjAddr: 0x13280, symBinAddr: 0x13E50, symSize: 0x20 }
  - { offset: 0x45578, size: 0x8, addend: 0x0, symName: __RNvMs3_NtNtCslJiobkLta79_5alloc11collections9vec_dequeINtB5_8VecDequeTNtNtCsdGrGZaRBwMb_3syn8lifetime8LifetimeNtNtB1a_5token4PlusEE13push_back_mutCsliPDVd4pfgL_15zerofrom_derive, symObjAddr: 0x132A0, symBinAddr: 0x13E70, symSize: 0x190 }
  - { offset: 0x45C37, size: 0x8, addend: 0x0, symName: __RNvMs3_NtNtCslJiobkLta79_5alloc11collections9vec_dequeINtB5_8VecDequeTNtNtCsdGrGZaRBwMb_3syn8lifetime8LifetimeNtNtB1a_5token4PlusEE15make_contiguousCsliPDVd4pfgL_15zerofrom_derive, symObjAddr: 0x13430, symBinAddr: 0x14000, symSize: 0x8B0 }
  - { offset: 0x46CBB, size: 0x8, addend: 0x0, symName: __RNvMs3_NtNtCslJiobkLta79_5alloc11collections9vec_dequeINtB5_8VecDequeTNtNtCsdGrGZaRBwMb_3syn8lifetime8LifetimeNtNtB1a_5token4PlusEE3lenCsliPDVd4pfgL_15zerofrom_derive, symObjAddr: 0x13CE0, symBinAddr: 0x148B0, symSize: 0x10 }
  - { offset: 0x46D74, size: 0x8, addend: 0x0, symName: __RNvMs3_NtNtCslJiobkLta79_5alloc11collections9vec_dequeINtB5_8VecDequeTNtNtCsdGrGZaRBwMb_3syn8lifetime8LifetimeNtNtB1a_5token4PlusEE4growCsliPDVd4pfgL_15zerofrom_derive, symObjAddr: 0x13CF0, symBinAddr: 0x148C0, symSize: 0x60 }
  - { offset: 0x46F7E, size: 0x8, addend: 0x0, symName: __RNvMs3_NtNtCslJiobkLta79_5alloc11collections9vec_dequeINtB5_8VecDequeTNtNtCsdGrGZaRBwMb_3syn8lifetime8LifetimeNtNtB1a_5token4PlusEE9pop_frontCsliPDVd4pfgL_15zerofrom_derive, symObjAddr: 0x13D50, symBinAddr: 0x14920, symSize: 0x1D0 }
  - { offset: 0x471EF, size: 0x8, addend: 0x0, symName: __RNvMs3_NtNtCslJiobkLta79_5alloc11collections9vec_dequeINtB5_8VecDequeTNtNtCsdGrGZaRBwMb_3syn8lifetime8LifetimeNtNtB1a_5token4PlusEE9push_backCsliPDVd4pfgL_15zerofrom_derive, symObjAddr: 0x13F20, symBinAddr: 0x14AF0, symSize: 0x20 }
  - { offset: 0x4940D, size: 0x8, addend: 0x0, symName: __RINvNtNtCsieiGu2EXtoJ_4core5slice6rotate10ptr_rotateTNtNtCsdGrGZaRBwMb_3syn2ty4TypeNtNtBT_5token5CommaEECsliPDVd4pfgL_15zerofrom_derive, symObjAddr: 0x0, symBinAddr: 0x168D0, symSize: 0xB0 }
  - { offset: 0x49D8E, size: 0x8, addend: 0x0, symName: __RINvNtNtCsieiGu2EXtoJ_4core5slice6rotate10ptr_rotateTNtNtCsdGrGZaRBwMb_3syn2ty4TypeNtNtBT_5token5CommaEECsliPDVd4pfgL_15zerofrom_derive, symObjAddr: 0x0, symBinAddr: 0x168D0, symSize: 0xB0 }
  - { offset: 0x49E22, size: 0x8, addend: 0x0, symName: __RINvNtNtCsieiGu2EXtoJ_4core5slice6rotate10ptr_rotateTNtNtCsdGrGZaRBwMb_3syn2ty9BareFnArgNtNtBT_5token5CommaEECsliPDVd4pfgL_15zerofrom_derive, symObjAddr: 0xB0, symBinAddr: 0x16980, symSize: 0xB0 }
  - { offset: 0x49EB6, size: 0x8, addend: 0x0, symName: __RINvNtNtCsieiGu2EXtoJ_4core5slice6rotate10ptr_rotateTNtNtCsdGrGZaRBwMb_3syn3pat3PatNtNtBT_5token2OrEECsliPDVd4pfgL_15zerofrom_derive, symObjAddr: 0x160, symBinAddr: 0x16A30, symSize: 0xB0 }
  - { offset: 0x49F4A, size: 0x8, addend: 0x0, symName: __RINvNtNtCsieiGu2EXtoJ_4core5slice6rotate10ptr_rotateTNtNtCsdGrGZaRBwMb_3syn3pat3PatNtNtBT_5token5CommaEECsliPDVd4pfgL_15zerofrom_derive, symObjAddr: 0x210, symBinAddr: 0x16AE0, symSize: 0xB0 }
  - { offset: 0x49FDE, size: 0x8, addend: 0x0, symName: __RINvNtNtCsieiGu2EXtoJ_4core5slice6rotate10ptr_rotateTNtNtCsdGrGZaRBwMb_3syn3pat8FieldPatNtNtBT_5token5CommaEECsliPDVd4pfgL_15zerofrom_derive, symObjAddr: 0x2C0, symBinAddr: 0x16B90, symSize: 0xB0 }
  - { offset: 0x4A072, size: 0x8, addend: 0x0, symName: __RINvNtNtCsieiGu2EXtoJ_4core5slice6rotate10ptr_rotateTNtNtCsdGrGZaRBwMb_3syn4data5FieldNtNtBT_5token5CommaEECsliPDVd4pfgL_15zerofrom_derive, symObjAddr: 0x370, symBinAddr: 0x16C40, symSize: 0xB0 }
  - { offset: 0x4A106, size: 0x8, addend: 0x0, symName: __RINvNtNtCsieiGu2EXtoJ_4core5slice6rotate10ptr_rotateTNtNtCsdGrGZaRBwMb_3syn4data7VariantNtNtBT_5token5CommaEECsliPDVd4pfgL_15zerofrom_derive, symObjAddr: 0x420, symBinAddr: 0x16CF0, symSize: 0xB0 }
  - { offset: 0x4A19A, size: 0x8, addend: 0x0, symName: __RINvNtNtCsieiGu2EXtoJ_4core5slice6rotate10ptr_rotateTNtNtCsdGrGZaRBwMb_3syn4expr10FieldValueNtNtBT_5token5CommaEECsliPDVd4pfgL_15zerofrom_derive, symObjAddr: 0x4D0, symBinAddr: 0x16DA0, symSize: 0xB0 }
  - { offset: 0x4A22E, size: 0x8, addend: 0x0, symName: __RINvNtNtCsieiGu2EXtoJ_4core5slice6rotate10ptr_rotateTNtNtCsdGrGZaRBwMb_3syn4expr4ExprNtNtBT_5token5CommaEECsliPDVd4pfgL_15zerofrom_derive, symObjAddr: 0x580, symBinAddr: 0x16E50, symSize: 0xB0 }
  - { offset: 0x4A2C2, size: 0x8, addend: 0x0, symName: __RINvNtNtCsieiGu2EXtoJ_4core5slice6rotate10ptr_rotateTNtNtCsdGrGZaRBwMb_3syn4item5FnArgNtNtBT_5token5CommaEECsliPDVd4pfgL_15zerofrom_derive, symObjAddr: 0x630, symBinAddr: 0x16F00, symSize: 0xB0 }
  - { offset: 0x4A356, size: 0x8, addend: 0x0, symName: __RINvNtNtCsieiGu2EXtoJ_4core5slice6rotate10ptr_rotateTNtNtCsdGrGZaRBwMb_3syn4item7UseTreeNtNtBT_5token5CommaEECsliPDVd4pfgL_15zerofrom_derive, symObjAddr: 0x6E0, symBinAddr: 0x16FB0, symSize: 0xB0 }
  - { offset: 0x4A3EA, size: 0x8, addend: 0x0, symName: __RINvNtNtCsieiGu2EXtoJ_4core5slice6rotate10ptr_rotateTNtNtCsdGrGZaRBwMb_3syn4path11PathSegmentNtNtBT_5token7PathSepEECsliPDVd4pfgL_15zerofrom_derive, symObjAddr: 0x790, symBinAddr: 0x17060, symSize: 0xB0 }
  - { offset: 0x4A47E, size: 0x8, addend: 0x0, symName: __RINvNtNtCsieiGu2EXtoJ_4core5slice6rotate10ptr_rotateTNtNtCsdGrGZaRBwMb_3syn4path15GenericArgumentNtNtBT_5token5CommaEECsliPDVd4pfgL_15zerofrom_derive, symObjAddr: 0x840, symBinAddr: 0x17110, symSize: 0xB0 }
  - { offset: 0x4A512, size: 0x8, addend: 0x0, symName: __RINvNtNtCsieiGu2EXtoJ_4core5slice6rotate10ptr_rotateTNtNtCsdGrGZaRBwMb_3syn8generics12GenericParamNtNtBT_5token5CommaEECsliPDVd4pfgL_15zerofrom_derive, symObjAddr: 0x8F0, symBinAddr: 0x171C0, symSize: 0xB0 }
  - { offset: 0x4A5A6, size: 0x8, addend: 0x0, symName: __RINvNtNtCsieiGu2EXtoJ_4core5slice6rotate10ptr_rotateTNtNtCsdGrGZaRBwMb_3syn8generics13CapturedParamNtNtBT_5token5CommaEECsliPDVd4pfgL_15zerofrom_derive, symObjAddr: 0x9A0, symBinAddr: 0x17270, symSize: 0xB0 }
  - { offset: 0x4A63A, size: 0x8, addend: 0x0, symName: __RINvNtNtCsieiGu2EXtoJ_4core5slice6rotate10ptr_rotateTNtNtCsdGrGZaRBwMb_3syn8generics14TypeParamBoundNtNtBT_5token4PlusEECsliPDVd4pfgL_15zerofrom_derive, symObjAddr: 0xA50, symBinAddr: 0x17320, symSize: 0xB0 }
  - { offset: 0x4A6CE, size: 0x8, addend: 0x0, symName: __RINvNtNtCsieiGu2EXtoJ_4core5slice6rotate10ptr_rotateTNtNtCsdGrGZaRBwMb_3syn8generics14WherePredicateNtNtBT_5token5CommaEECsliPDVd4pfgL_15zerofrom_derive, symObjAddr: 0xB00, symBinAddr: 0x173D0, symSize: 0xB0 }
  - { offset: 0x4A762, size: 0x8, addend: 0x0, symName: __RINvNtNtCsieiGu2EXtoJ_4core5slice6rotate10ptr_rotateTNtNtCsdGrGZaRBwMb_3syn8lifetime8LifetimeNtNtBT_5token4PlusEECsliPDVd4pfgL_15zerofrom_derive, symObjAddr: 0xBB0, symBinAddr: 0x17480, symSize: 0xB0 }
  - { offset: 0x4A7CC, size: 0x8, addend: 0x0, symName: __RINvNtNtCsieiGu2EXtoJ_4core5slice6rotate14ptr_rotate_gcdTNtNtCsdGrGZaRBwMb_3syn2ty4TypeNtNtBX_5token5CommaEECsliPDVd4pfgL_15zerofrom_derive, symObjAddr: 0xC60, symBinAddr: 0x17530, symSize: 0x3E0 }
  - { offset: 0x4AB26, size: 0x8, addend: 0x0, symName: __RINvNtNtCsieiGu2EXtoJ_4core5slice6rotate14ptr_rotate_gcdTNtNtCsdGrGZaRBwMb_3syn2ty9BareFnArgNtNtBX_5token5CommaEECsliPDVd4pfgL_15zerofrom_derive, symObjAddr: 0x1040, symBinAddr: 0x17910, symSize: 0x3E0 }
  - { offset: 0x4AE80, size: 0x8, addend: 0x0, symName: __RINvNtNtCsieiGu2EXtoJ_4core5slice6rotate14ptr_rotate_gcdTNtNtCsdGrGZaRBwMb_3syn3pat3PatNtNtBX_5token2OrEECsliPDVd4pfgL_15zerofrom_derive, symObjAddr: 0x1420, symBinAddr: 0x17CF0, symSize: 0x3E0 }
  - { offset: 0x4B1DA, size: 0x8, addend: 0x0, symName: __RINvNtNtCsieiGu2EXtoJ_4core5slice6rotate14ptr_rotate_gcdTNtNtCsdGrGZaRBwMb_3syn3pat3PatNtNtBX_5token5CommaEECsliPDVd4pfgL_15zerofrom_derive, symObjAddr: 0x1800, symBinAddr: 0x180D0, symSize: 0x3E0 }
  - { offset: 0x4B534, size: 0x8, addend: 0x0, symName: __RINvNtNtCsieiGu2EXtoJ_4core5slice6rotate14ptr_rotate_gcdTNtNtCsdGrGZaRBwMb_3syn3pat8FieldPatNtNtBX_5token5CommaEECsliPDVd4pfgL_15zerofrom_derive, symObjAddr: 0x1BE0, symBinAddr: 0x184B0, symSize: 0x3E0 }
  - { offset: 0x4B88E, size: 0x8, addend: 0x0, symName: __RINvNtNtCsieiGu2EXtoJ_4core5slice6rotate14ptr_rotate_gcdTNtNtCsdGrGZaRBwMb_3syn4data5FieldNtNtBX_5token5CommaEECsliPDVd4pfgL_15zerofrom_derive, symObjAddr: 0x1FC0, symBinAddr: 0x18890, symSize: 0x3E0 }
  - { offset: 0x4BBE8, size: 0x8, addend: 0x0, symName: __RINvNtNtCsieiGu2EXtoJ_4core5slice6rotate14ptr_rotate_gcdTNtNtCsdGrGZaRBwMb_3syn4data7VariantNtNtBX_5token5CommaEECsliPDVd4pfgL_15zerofrom_derive, symObjAddr: 0x23A0, symBinAddr: 0x18C70, symSize: 0x3E0 }
  - { offset: 0x4BF42, size: 0x8, addend: 0x0, symName: __RINvNtNtCsieiGu2EXtoJ_4core5slice6rotate14ptr_rotate_gcdTNtNtCsdGrGZaRBwMb_3syn4expr10FieldValueNtNtBX_5token5CommaEECsliPDVd4pfgL_15zerofrom_derive, symObjAddr: 0x2780, symBinAddr: 0x19050, symSize: 0x3E0 }
  - { offset: 0x4C29C, size: 0x8, addend: 0x0, symName: __RINvNtNtCsieiGu2EXtoJ_4core5slice6rotate14ptr_rotate_gcdTNtNtCsdGrGZaRBwMb_3syn4expr4ExprNtNtBX_5token5CommaEECsliPDVd4pfgL_15zerofrom_derive, symObjAddr: 0x2B60, symBinAddr: 0x19430, symSize: 0x3E0 }
  - { offset: 0x4C5F6, size: 0x8, addend: 0x0, symName: __RINvNtNtCsieiGu2EXtoJ_4core5slice6rotate14ptr_rotate_gcdTNtNtCsdGrGZaRBwMb_3syn4item5FnArgNtNtBX_5token5CommaEECsliPDVd4pfgL_15zerofrom_derive, symObjAddr: 0x2F40, symBinAddr: 0x19810, symSize: 0x3E0 }
  - { offset: 0x4C950, size: 0x8, addend: 0x0, symName: __RINvNtNtCsieiGu2EXtoJ_4core5slice6rotate14ptr_rotate_gcdTNtNtCsdGrGZaRBwMb_3syn4item7UseTreeNtNtBX_5token5CommaEECsliPDVd4pfgL_15zerofrom_derive, symObjAddr: 0x3320, symBinAddr: 0x19BF0, symSize: 0x3E0 }
  - { offset: 0x4CCAA, size: 0x8, addend: 0x0, symName: __RINvNtNtCsieiGu2EXtoJ_4core5slice6rotate14ptr_rotate_gcdTNtNtCsdGrGZaRBwMb_3syn4path11PathSegmentNtNtBX_5token7PathSepEECsliPDVd4pfgL_15zerofrom_derive, symObjAddr: 0x3700, symBinAddr: 0x19FD0, symSize: 0x3E0 }
  - { offset: 0x4D004, size: 0x8, addend: 0x0, symName: __RINvNtNtCsieiGu2EXtoJ_4core5slice6rotate14ptr_rotate_gcdTNtNtCsdGrGZaRBwMb_3syn4path15GenericArgumentNtNtBX_5token5CommaEECsliPDVd4pfgL_15zerofrom_derive, symObjAddr: 0x3AE0, symBinAddr: 0x1A3B0, symSize: 0x3E0 }
  - { offset: 0x4D35E, size: 0x8, addend: 0x0, symName: __RINvNtNtCsieiGu2EXtoJ_4core5slice6rotate14ptr_rotate_gcdTNtNtCsdGrGZaRBwMb_3syn8generics12GenericParamNtNtBX_5token5CommaEECsliPDVd4pfgL_15zerofrom_derive, symObjAddr: 0x3EC0, symBinAddr: 0x1A790, symSize: 0x3E0 }
  - { offset: 0x4D6B8, size: 0x8, addend: 0x0, symName: __RINvNtNtCsieiGu2EXtoJ_4core5slice6rotate14ptr_rotate_gcdTNtNtCsdGrGZaRBwMb_3syn8generics13CapturedParamNtNtBX_5token5CommaEECsliPDVd4pfgL_15zerofrom_derive, symObjAddr: 0x42A0, symBinAddr: 0x1AB70, symSize: 0x3E0 }
  - { offset: 0x4DA12, size: 0x8, addend: 0x0, symName: __RINvNtNtCsieiGu2EXtoJ_4core5slice6rotate14ptr_rotate_gcdTNtNtCsdGrGZaRBwMb_3syn8generics14TypeParamBoundNtNtBX_5token4PlusEECsliPDVd4pfgL_15zerofrom_derive, symObjAddr: 0x4680, symBinAddr: 0x1AF50, symSize: 0x3E0 }
  - { offset: 0x4DD6C, size: 0x8, addend: 0x0, symName: __RINvNtNtCsieiGu2EXtoJ_4core5slice6rotate14ptr_rotate_gcdTNtNtCsdGrGZaRBwMb_3syn8generics14WherePredicateNtNtBX_5token5CommaEECsliPDVd4pfgL_15zerofrom_derive, symObjAddr: 0x4A60, symBinAddr: 0x1B330, symSize: 0x3E0 }
  - { offset: 0x4E0C6, size: 0x8, addend: 0x0, symName: __RINvNtNtCsieiGu2EXtoJ_4core5slice6rotate14ptr_rotate_gcdTNtNtCsdGrGZaRBwMb_3syn8lifetime8LifetimeNtNtBX_5token4PlusEECsliPDVd4pfgL_15zerofrom_derive, symObjAddr: 0x4E40, symBinAddr: 0x1B710, symSize: 0x3E0 }
  - { offset: 0x4E420, size: 0x8, addend: 0x0, symName: __RINvNtNtCsieiGu2EXtoJ_4core5slice6rotate18ptr_rotate_memmoveTNtNtCsdGrGZaRBwMb_3syn2ty4TypeNtNtB11_5token5CommaEECsliPDVd4pfgL_15zerofrom_derive, symObjAddr: 0x6EF0, symBinAddr: 0x1BAF0, symSize: 0x3D0 }
  - { offset: 0x4E6A4, size: 0x8, addend: 0x0, symName: __RINvNtNtCsieiGu2EXtoJ_4core5slice6rotate18ptr_rotate_memmoveTNtNtCsdGrGZaRBwMb_3syn2ty9BareFnArgNtNtB11_5token5CommaEECsliPDVd4pfgL_15zerofrom_derive, symObjAddr: 0x72C0, symBinAddr: 0x1BEC0, symSize: 0x3D0 }
  - { offset: 0x4E928, size: 0x8, addend: 0x0, symName: __RINvNtNtCsieiGu2EXtoJ_4core5slice6rotate18ptr_rotate_memmoveTNtNtCsdGrGZaRBwMb_3syn3pat3PatNtNtB11_5token2OrEECsliPDVd4pfgL_15zerofrom_derive, symObjAddr: 0x7690, symBinAddr: 0x1C290, symSize: 0x3D0 }
  - { offset: 0x4EBAC, size: 0x8, addend: 0x0, symName: __RINvNtNtCsieiGu2EXtoJ_4core5slice6rotate18ptr_rotate_memmoveTNtNtCsdGrGZaRBwMb_3syn3pat3PatNtNtB11_5token5CommaEECsliPDVd4pfgL_15zerofrom_derive, symObjAddr: 0x7A60, symBinAddr: 0x1C660, symSize: 0x3D0 }
  - { offset: 0x4EE30, size: 0x8, addend: 0x0, symName: __RINvNtNtCsieiGu2EXtoJ_4core5slice6rotate18ptr_rotate_memmoveTNtNtCsdGrGZaRBwMb_3syn3pat8FieldPatNtNtB11_5token5CommaEECsliPDVd4pfgL_15zerofrom_derive, symObjAddr: 0x7E30, symBinAddr: 0x1CA30, symSize: 0x3B0 }
  - { offset: 0x4F0B4, size: 0x8, addend: 0x0, symName: __RINvNtNtCsieiGu2EXtoJ_4core5slice6rotate18ptr_rotate_memmoveTNtNtCsdGrGZaRBwMb_3syn4data5FieldNtNtB11_5token5CommaEECsliPDVd4pfgL_15zerofrom_derive, symObjAddr: 0x81E0, symBinAddr: 0x1CDE0, symSize: 0x3D0 }
  - { offset: 0x4F338, size: 0x8, addend: 0x0, symName: __RINvNtNtCsieiGu2EXtoJ_4core5slice6rotate18ptr_rotate_memmoveTNtNtCsdGrGZaRBwMb_3syn4data7VariantNtNtB11_5token5CommaEECsliPDVd4pfgL_15zerofrom_derive, symObjAddr: 0x85B0, symBinAddr: 0x1D1B0, symSize: 0x3D0 }
  - { offset: 0x4F5BC, size: 0x8, addend: 0x0, symName: __RINvNtNtCsieiGu2EXtoJ_4core5slice6rotate18ptr_rotate_memmoveTNtNtCsdGrGZaRBwMb_3syn4expr10FieldValueNtNtB11_5token5CommaEECsliPDVd4pfgL_15zerofrom_derive, symObjAddr: 0x8980, symBinAddr: 0x1D580, symSize: 0x3D0 }
  - { offset: 0x4F840, size: 0x8, addend: 0x0, symName: __RINvNtNtCsieiGu2EXtoJ_4core5slice6rotate18ptr_rotate_memmoveTNtNtCsdGrGZaRBwMb_3syn4expr4ExprNtNtB11_5token5CommaEECsliPDVd4pfgL_15zerofrom_derive, symObjAddr: 0x8D50, symBinAddr: 0x1D950, symSize: 0x3D0 }
  - { offset: 0x4FAC4, size: 0x8, addend: 0x0, symName: __RINvNtNtCsieiGu2EXtoJ_4core5slice6rotate18ptr_rotate_memmoveTNtNtCsdGrGZaRBwMb_3syn4item5FnArgNtNtB11_5token5CommaEECsliPDVd4pfgL_15zerofrom_derive, symObjAddr: 0x9120, symBinAddr: 0x1DD20, symSize: 0x3B0 }
  - { offset: 0x4FD48, size: 0x8, addend: 0x0, symName: __RINvNtNtCsieiGu2EXtoJ_4core5slice6rotate18ptr_rotate_memmoveTNtNtCsdGrGZaRBwMb_3syn4item7UseTreeNtNtB11_5token5CommaEECsliPDVd4pfgL_15zerofrom_derive, symObjAddr: 0x94D0, symBinAddr: 0x1E0D0, symSize: 0x3B0 }
  - { offset: 0x4FFCC, size: 0x8, addend: 0x0, symName: __RINvNtNtCsieiGu2EXtoJ_4core5slice6rotate18ptr_rotate_memmoveTNtNtCsdGrGZaRBwMb_3syn4path11PathSegmentNtNtB11_5token7PathSepEECsliPDVd4pfgL_15zerofrom_derive, symObjAddr: 0x9880, symBinAddr: 0x1E480, symSize: 0x3B0 }
  - { offset: 0x50250, size: 0x8, addend: 0x0, symName: __RINvNtNtCsieiGu2EXtoJ_4core5slice6rotate18ptr_rotate_memmoveTNtNtCsdGrGZaRBwMb_3syn4path15GenericArgumentNtNtB11_5token5CommaEECsliPDVd4pfgL_15zerofrom_derive, symObjAddr: 0x9C30, symBinAddr: 0x1E830, symSize: 0x3D0 }
  - { offset: 0x504D4, size: 0x8, addend: 0x0, symName: __RINvNtNtCsieiGu2EXtoJ_4core5slice6rotate18ptr_rotate_memmoveTNtNtCsdGrGZaRBwMb_3syn8generics12GenericParamNtNtB11_5token5CommaEECsliPDVd4pfgL_15zerofrom_derive, symObjAddr: 0xA000, symBinAddr: 0x1EC00, symSize: 0x3D0 }
  - { offset: 0x50758, size: 0x8, addend: 0x0, symName: __RINvNtNtCsieiGu2EXtoJ_4core5slice6rotate18ptr_rotate_memmoveTNtNtCsdGrGZaRBwMb_3syn8generics13CapturedParamNtNtB11_5token5CommaEECsliPDVd4pfgL_15zerofrom_derive, symObjAddr: 0xA3D0, symBinAddr: 0x1EFD0, symSize: 0x3B0 }
  - { offset: 0x509DC, size: 0x8, addend: 0x0, symName: __RINvNtNtCsieiGu2EXtoJ_4core5slice6rotate18ptr_rotate_memmoveTNtNtCsdGrGZaRBwMb_3syn8generics14TypeParamBoundNtNtB11_5token4PlusEECsliPDVd4pfgL_15zerofrom_derive, symObjAddr: 0xA780, symBinAddr: 0x1F380, symSize: 0x3B0 }
  - { offset: 0x50C60, size: 0x8, addend: 0x0, symName: __RINvNtNtCsieiGu2EXtoJ_4core5slice6rotate18ptr_rotate_memmoveTNtNtCsdGrGZaRBwMb_3syn8generics14WherePredicateNtNtB11_5token5CommaEECsliPDVd4pfgL_15zerofrom_derive, symObjAddr: 0xAB30, symBinAddr: 0x1F730, symSize: 0x3D0 }
  - { offset: 0x50EE4, size: 0x8, addend: 0x0, symName: __RINvNtNtCsieiGu2EXtoJ_4core5slice6rotate18ptr_rotate_memmoveTNtNtCsdGrGZaRBwMb_3syn8lifetime8LifetimeNtNtB11_5token4PlusEECsliPDVd4pfgL_15zerofrom_derive, symObjAddr: 0xAF00, symBinAddr: 0x1FB00, symSize: 0x3B0 }
  - { offset: 0x5C3C3, size: 0x8, addend: 0x0, symName: __RINvNtNtCsdGrGZaRBwMb_3syn3gen4fold10fold_blockNtNvCsliPDVd4pfgL_15zerofrom_derive16replace_lifetime15ReplaceLifetimeEBN_, symObjAddr: 0x0, symBinAddr: 0x1FEB0, symSize: 0x90 }
  - { offset: 0x5CD1A, size: 0x8, addend: 0x0, symName: __RINvNtNtCsdGrGZaRBwMb_3syn3gen4fold10fold_blockNtNvCsliPDVd4pfgL_15zerofrom_derive16replace_lifetime15ReplaceLifetimeEBN_, symObjAddr: 0x0, symBinAddr: 0x1FEB0, symSize: 0x90 }
  - { offset: 0x5CD61, size: 0x8, addend: 0x0, symName: __RINvNtNtCsdGrGZaRBwMb_3syn3gen4fold10fold_blockNtNvCsliPDVd4pfgL_15zerofrom_derive25replace_lifetime_and_type20ReplaceLifetimeAndTyEBN_, symObjAddr: 0x90, symBinAddr: 0x1FF40, symSize: 0x90 }
  - { offset: 0x5CDA8, size: 0x8, addend: 0x0, symName: __RINvNtNtCsdGrGZaRBwMb_3syn3gen4fold10fold_fieldNtNvCsliPDVd4pfgL_15zerofrom_derive16replace_lifetime15ReplaceLifetimeEBN_, symObjAddr: 0x120, symBinAddr: 0x1FFD0, symSize: 0x330 }
  - { offset: 0x5CDEF, size: 0x8, addend: 0x0, symName: __RINvNtNtCsdGrGZaRBwMb_3syn3gen4fold10fold_fieldNtNvCsliPDVd4pfgL_15zerofrom_derive25replace_lifetime_and_type20ReplaceLifetimeAndTyEBN_, symObjAddr: 0x450, symBinAddr: 0x20300, symSize: 0x330 }
  - { offset: 0x5CE36, size: 0x8, addend: 0x0, symName: __RINvNtNtCsdGrGZaRBwMb_3syn3gen4fold10fold_identNtNvCsliPDVd4pfgL_15zerofrom_derive16replace_lifetime15ReplaceLifetimeEBN_, symObjAddr: 0x780, symBinAddr: 0x20630, symSize: 0xC0 }
  - { offset: 0x5CEB1, size: 0x8, addend: 0x0, symName: __RINvNtNtCsdGrGZaRBwMb_3syn3gen4fold10fold_identNtNvCsliPDVd4pfgL_15zerofrom_derive25replace_lifetime_and_type20ReplaceLifetimeAndTyEBN_, symObjAddr: 0x840, symBinAddr: 0x206F0, symSize: 0xC0 }
  - { offset: 0x5CF2C, size: 0x8, addend: 0x0, symName: __RINvNtNtCsdGrGZaRBwMb_3syn3gen4fold10fold_indexNtNvCsliPDVd4pfgL_15zerofrom_derive16replace_lifetime15ReplaceLifetimeEBN_, symObjAddr: 0x900, symBinAddr: 0x207B0, symSize: 0x40 }
  - { offset: 0x5CF72, size: 0x8, addend: 0x0, symName: __RINvNtNtCsdGrGZaRBwMb_3syn3gen4fold10fold_indexNtNvCsliPDVd4pfgL_15zerofrom_derive25replace_lifetime_and_type20ReplaceLifetimeAndTyEBN_, symObjAddr: 0x940, symBinAddr: 0x207F0, symSize: 0x40 }
  - { offset: 0x5CFB8, size: 0x8, addend: 0x0, symName: __RINvNtNtCsdGrGZaRBwMb_3syn3gen4fold10fold_labelNtNvCsliPDVd4pfgL_15zerofrom_derive16replace_lifetime15ReplaceLifetimeEBN_, symObjAddr: 0x980, symBinAddr: 0x20830, symSize: 0x90 }
  - { offset: 0x5D000, size: 0x8, addend: 0x0, symName: __RINvNtNtCsdGrGZaRBwMb_3syn3gen4fold10fold_labelNtNvCsliPDVd4pfgL_15zerofrom_derive25replace_lifetime_and_type20ReplaceLifetimeAndTyEBN_, symObjAddr: 0xA10, symBinAddr: 0x208C0, symSize: 0x90 }
  - { offset: 0x5D048, size: 0x8, addend: 0x0, symName: __RINvNtNtCsdGrGZaRBwMb_3syn3gen4fold10fold_localNtNvCsliPDVd4pfgL_15zerofrom_derive16replace_lifetime15ReplaceLifetimeEBN_, symObjAddr: 0xAA0, symBinAddr: 0x20950, symSize: 0x250 }
  - { offset: 0x5D08F, size: 0x8, addend: 0x0, symName: __RINvNtNtCsdGrGZaRBwMb_3syn3gen4fold10fold_localNtNvCsliPDVd4pfgL_15zerofrom_derive25replace_lifetime_and_type20ReplaceLifetimeAndTyEBN_, symObjAddr: 0xCF0, symBinAddr: 0x20BA0, symSize: 0x250 }
  - { offset: 0x5D0D6, size: 0x8, addend: 0x0, symName: __RINvNtNtCsdGrGZaRBwMb_3syn3gen4fold10fold_macroNtNvCsliPDVd4pfgL_15zerofrom_derive16replace_lifetime15ReplaceLifetimeEBN_, symObjAddr: 0xF40, symBinAddr: 0x20DF0, symSize: 0x1D0 }
  - { offset: 0x5D11D, size: 0x8, addend: 0x0, symName: __RINvNtNtCsdGrGZaRBwMb_3syn3gen4fold10fold_macroNtNvCsliPDVd4pfgL_15zerofrom_derive25replace_lifetime_and_type20ReplaceLifetimeAndTyEBN_, symObjAddr: 0x1110, symBinAddr: 0x20FC0, symSize: 0x1D0 }
  - { offset: 0x5D164, size: 0x8, addend: 0x0, symName: __RINvNtNtCsdGrGZaRBwMb_3syn3gen4fold10fold_qselfNtNvCsliPDVd4pfgL_15zerofrom_derive16replace_lifetime15ReplaceLifetimeEBN_, symObjAddr: 0x12E0, symBinAddr: 0x21190, symSize: 0x1E0 }
  - { offset: 0x5D1CA, size: 0x8, addend: 0x0, symName: __RINvNtNtCsdGrGZaRBwMb_3syn3gen4fold10fold_qselfNtNvCsliPDVd4pfgL_15zerofrom_derive25replace_lifetime_and_type20ReplaceLifetimeAndTyEBN_, symObjAddr: 0x14C0, symBinAddr: 0x21370, symSize: 0x1E0 }
  - { offset: 0x5D230, size: 0x8, addend: 0x0, symName: __RINvNtNtCsdGrGZaRBwMb_3syn3gen4fold10fold_un_opNtNvCsliPDVd4pfgL_15zerofrom_derive16replace_lifetime15ReplaceLifetimeEBN_, symObjAddr: 0x16A0, symBinAddr: 0x21550, symSize: 0x90 }
  - { offset: 0x5D2D0, size: 0x8, addend: 0x0, symName: __RINvNtNtCsdGrGZaRBwMb_3syn3gen4fold10fold_un_opNtNvCsliPDVd4pfgL_15zerofrom_derive25replace_lifetime_and_type20ReplaceLifetimeAndTyEBN_, symObjAddr: 0x1730, symBinAddr: 0x215E0, symSize: 0x90 }
  - { offset: 0x5D370, size: 0x8, addend: 0x0, symName: __RINvNtNtCsdGrGZaRBwMb_3syn3gen4fold11fold_bin_opNtNvCsliPDVd4pfgL_15zerofrom_derive16replace_lifetime15ReplaceLifetimeEBO_, symObjAddr: 0x17C0, symBinAddr: 0x21670, symSize: 0x650 }
  - { offset: 0x5D715, size: 0x8, addend: 0x0, symName: __RINvNtNtCsdGrGZaRBwMb_3syn3gen4fold11fold_bin_opNtNvCsliPDVd4pfgL_15zerofrom_derive25replace_lifetime_and_type20ReplaceLifetimeAndTyEBO_, symObjAddr: 0x1E10, symBinAddr: 0x21CC0, symSize: 0x650 }
  - { offset: 0x5DABA, size: 0x8, addend: 0x0, symName: __RINvNtNtCsdGrGZaRBwMb_3syn3gen4fold11fold_fieldsNtNvCsliPDVd4pfgL_15zerofrom_derive16replace_lifetime15ReplaceLifetimeEBO_, symObjAddr: 0x2460, symBinAddr: 0x22310, symSize: 0x140 }
  - { offset: 0x5DB3F, size: 0x8, addend: 0x0, symName: __RINvNtNtCsdGrGZaRBwMb_3syn3gen4fold11fold_fieldsNtNvCsliPDVd4pfgL_15zerofrom_derive25replace_lifetime_and_type20ReplaceLifetimeAndTyEBO_, symObjAddr: 0x25A0, symBinAddr: 0x22450, symSize: 0x140 }
  - { offset: 0x5DBC4, size: 0x8, addend: 0x0, symName: __RINvNtNtCsdGrGZaRBwMb_3syn3gen4fold11fold_fn_argNtNvCsliPDVd4pfgL_15zerofrom_derive16replace_lifetime15ReplaceLifetimeEBO_, symObjAddr: 0x26E0, symBinAddr: 0x22590, symSize: 0x120 }
  - { offset: 0x5DC41, size: 0x8, addend: 0x0, symName: __RINvNtNtCsdGrGZaRBwMb_3syn3gen4fold11fold_fn_argNtNvCsliPDVd4pfgL_15zerofrom_derive25replace_lifetime_and_type20ReplaceLifetimeAndTyEBO_, symObjAddr: 0x2800, symBinAddr: 0x226B0, symSize: 0x120 }
  - { offset: 0x5DCBE, size: 0x8, addend: 0x0, symName: __RINvNtNtCsdGrGZaRBwMb_3syn3gen4fold11fold_memberNtNvCsliPDVd4pfgL_15zerofrom_derive16replace_lifetime15ReplaceLifetimeEBO_, symObjAddr: 0x2920, symBinAddr: 0x227D0, symSize: 0xC0 }
  - { offset: 0x5DD39, size: 0x8, addend: 0x0, symName: __RINvNtNtCsdGrGZaRBwMb_3syn3gen4fold11fold_memberNtNvCsliPDVd4pfgL_15zerofrom_derive25replace_lifetime_and_type20ReplaceLifetimeAndTyEBO_, symObjAddr: 0x29E0, symBinAddr: 0x22890, symSize: 0xC0 }
  - { offset: 0x5DDB4, size: 0x8, addend: 0x0, symName: __RINvNtNtCsdGrGZaRBwMb_3syn3gen4fold11fold_pat_orNtNvCsliPDVd4pfgL_15zerofrom_derive16replace_lifetime15ReplaceLifetimeEBO_, symObjAddr: 0x2AA0, symBinAddr: 0x22950, symSize: 0x170 }
  - { offset: 0x5DDFB, size: 0x8, addend: 0x0, symName: __RINvNtNtCsdGrGZaRBwMb_3syn3gen4fold11fold_pat_orNtNvCsliPDVd4pfgL_15zerofrom_derive25replace_lifetime_and_type20ReplaceLifetimeAndTyEBO_, symObjAddr: 0x2C10, symBinAddr: 0x22AC0, symSize: 0x170 }
  - { offset: 0x5DE42, size: 0x8, addend: 0x0, symName: __RINvNtNtCsdGrGZaRBwMb_3syn3gen4fold12fold_expr_ifNtNvCsliPDVd4pfgL_15zerofrom_derive16replace_lifetime15ReplaceLifetimeEBP_, symObjAddr: 0x2D80, symBinAddr: 0x22C30, symSize: 0x3A0 }
  - { offset: 0x5DEA8, size: 0x8, addend: 0x0, symName: __RINvNtNtCsdGrGZaRBwMb_3syn3gen4fold12fold_expr_ifNtNvCsliPDVd4pfgL_15zerofrom_derive25replace_lifetime_and_type20ReplaceLifetimeAndTyEBP_, symObjAddr: 0x3120, symBinAddr: 0x22FD0, symSize: 0x3A0 }
  - { offset: 0x5DF0E, size: 0x8, addend: 0x0, symName: __RINvNtNtCsdGrGZaRBwMb_3syn3gen4fold12fold_item_fnNtNvCsliPDVd4pfgL_15zerofrom_derive16replace_lifetime15ReplaceLifetimeEBP_, symObjAddr: 0x34C0, symBinAddr: 0x23370, symSize: 0x3F0 }
  - { offset: 0x5DF74, size: 0x8, addend: 0x0, symName: __RINvNtNtCsdGrGZaRBwMb_3syn3gen4fold12fold_item_fnNtNvCsliPDVd4pfgL_15zerofrom_derive25replace_lifetime_and_type20ReplaceLifetimeAndTyEBP_, symObjAddr: 0x38B0, symBinAddr: 0x23760, symSize: 0x3F0 }
  - { offset: 0x5DFDA, size: 0x8, addend: 0x0, symName: __RINvNtNtCsdGrGZaRBwMb_3syn3gen4fold12fold_lit_intNtNvCsliPDVd4pfgL_15zerofrom_derive16replace_lifetime15ReplaceLifetimeEBP_, symObjAddr: 0x3CA0, symBinAddr: 0x23B50, symSize: 0xC0 }
  - { offset: 0x5E054, size: 0x8, addend: 0x0, symName: __RINvNtNtCsdGrGZaRBwMb_3syn3gen4fold12fold_lit_intNtNvCsliPDVd4pfgL_15zerofrom_derive25replace_lifetime_and_type20ReplaceLifetimeAndTyEBP_, symObjAddr: 0x3D60, symBinAddr: 0x23C10, symSize: 0xC0 }
  - { offset: 0x5E0CE, size: 0x8, addend: 0x0, symName: __RINvNtNtCsdGrGZaRBwMb_3syn3gen4fold12fold_lit_strNtNvCsliPDVd4pfgL_15zerofrom_derive16replace_lifetime15ReplaceLifetimeEBP_, symObjAddr: 0x3E20, symBinAddr: 0x23CD0, symSize: 0xC0 }
  - { offset: 0x5E148, size: 0x8, addend: 0x0, symName: __RINvNtNtCsdGrGZaRBwMb_3syn3gen4fold12fold_lit_strNtNvCsliPDVd4pfgL_15zerofrom_derive25replace_lifetime_and_type20ReplaceLifetimeAndTyEBP_, symObjAddr: 0x3EE0, symBinAddr: 0x23D90, symSize: 0xC0 }
  - { offset: 0x5E1C2, size: 0x8, addend: 0x0, symName: __RINvNtNtCsdGrGZaRBwMb_3syn3gen4fold12fold_variantNtNvCsliPDVd4pfgL_15zerofrom_derive16replace_lifetime15ReplaceLifetimeEBP_, symObjAddr: 0x3FA0, symBinAddr: 0x23E50, symSize: 0x2F0 }
  - { offset: 0x5E209, size: 0x8, addend: 0x0, symName: __RINvNtNtCsdGrGZaRBwMb_3syn3gen4fold12fold_variantNtNvCsliPDVd4pfgL_15zerofrom_derive25replace_lifetime_and_type20ReplaceLifetimeAndTyEBP_, symObjAddr: 0x4290, symBinAddr: 0x24140, symSize: 0x2F0 }
  - { offset: 0x5E250, size: 0x8, addend: 0x0, symName: __RINvNtNtCsdGrGZaRBwMb_3syn3gen4fold13fold_expr_letNtNvCsliPDVd4pfgL_15zerofrom_derive16replace_lifetime15ReplaceLifetimeEBQ_, symObjAddr: 0x4580, symBinAddr: 0x24430, symSize: 0x440 }
  - { offset: 0x5E2D5, size: 0x8, addend: 0x0, symName: __RINvNtNtCsdGrGZaRBwMb_3syn3gen4fold13fold_expr_letNtNvCsliPDVd4pfgL_15zerofrom_derive25replace_lifetime_and_type20ReplaceLifetimeAndTyEBQ_, symObjAddr: 0x49C0, symBinAddr: 0x24870, symSize: 0x440 }
  - { offset: 0x5E35A, size: 0x8, addend: 0x0, symName: __RINvNtNtCsdGrGZaRBwMb_3syn3gen4fold13fold_expr_litNtNvCsliPDVd4pfgL_15zerofrom_derive16replace_lifetime15ReplaceLifetimeEBQ_, symObjAddr: 0x4E00, symBinAddr: 0x24CB0, symSize: 0x140 }
  - { offset: 0x5E3A1, size: 0x8, addend: 0x0, symName: __RINvNtNtCsdGrGZaRBwMb_3syn3gen4fold13fold_expr_litNtNvCsliPDVd4pfgL_15zerofrom_derive25replace_lifetime_and_type20ReplaceLifetimeAndTyEBQ_, symObjAddr: 0x4F40, symBinAddr: 0x24DF0, symSize: 0x140 }
  - { offset: 0x5E3E8, size: 0x8, addend: 0x0, symName: __RINvNtNtCsdGrGZaRBwMb_3syn3gen4fold13fold_expr_tryNtNvCsliPDVd4pfgL_15zerofrom_derive16replace_lifetime15ReplaceLifetimeEBQ_, symObjAddr: 0x5080, symBinAddr: 0x24F30, symSize: 0x270 }
  - { offset: 0x5E44E, size: 0x8, addend: 0x0, symName: __RINvNtNtCsdGrGZaRBwMb_3syn3gen4fold13fold_expr_tryNtNvCsliPDVd4pfgL_15zerofrom_derive25replace_lifetime_and_type20ReplaceLifetimeAndTyEBQ_, symObjAddr: 0x52F0, symBinAddr: 0x251A0, symSize: 0x270 }
  - { offset: 0x5E4B4, size: 0x8, addend: 0x0, symName: __RINvNtNtCsdGrGZaRBwMb_3syn3gen4fold13fold_genericsNtNvCsliPDVd4pfgL_15zerofrom_derive16replace_lifetime15ReplaceLifetimeEBQ_, symObjAddr: 0x5560, symBinAddr: 0x25410, symSize: 0x1A0 }
  - { offset: 0x5E4FB, size: 0x8, addend: 0x0, symName: __RINvNtNtCsdGrGZaRBwMb_3syn3gen4fold13fold_genericsNtNvCsliPDVd4pfgL_15zerofrom_derive25replace_lifetime_and_type20ReplaceLifetimeAndTyEBQ_, symObjAddr: 0x5700, symBinAddr: 0x255B0, symSize: 0x1A0 }
  - { offset: 0x5E542, size: 0x8, addend: 0x0, symName: __RINvNtNtCsdGrGZaRBwMb_3syn3gen4fold13fold_item_modNtNvCsliPDVd4pfgL_15zerofrom_derive16replace_lifetime15ReplaceLifetimeEBQ_, symObjAddr: 0x58A0, symBinAddr: 0x25750, symSize: 0x320 }
  - { offset: 0x5E589, size: 0x8, addend: 0x0, symName: __RINvNtNtCsdGrGZaRBwMb_3syn3gen4fold13fold_item_modNtNvCsliPDVd4pfgL_15zerofrom_derive25replace_lifetime_and_type20ReplaceLifetimeAndTyEBQ_, symObjAddr: 0x5BC0, symBinAddr: 0x25A70, symSize: 0x320 }
  - { offset: 0x5E5D0, size: 0x8, addend: 0x0, symName: __RINvNtNtCsdGrGZaRBwMb_3syn3gen4fold13fold_item_useNtNvCsliPDVd4pfgL_15zerofrom_derive16replace_lifetime15ReplaceLifetimeEBQ_, symObjAddr: 0x5EE0, symBinAddr: 0x25D90, symSize: 0x2A0 }
  - { offset: 0x5E617, size: 0x8, addend: 0x0, symName: __RINvNtNtCsdGrGZaRBwMb_3syn3gen4fold13fold_item_useNtNvCsliPDVd4pfgL_15zerofrom_derive25replace_lifetime_and_type20ReplaceLifetimeAndTyEBQ_, symObjAddr: 0x6180, symBinAddr: 0x26030, symSize: 0x2A0 }
  - { offset: 0x5E65E, size: 0x8, addend: 0x0, symName: __RINvNtNtCsdGrGZaRBwMb_3syn3gen4fold13fold_lit_boolNtNvCsliPDVd4pfgL_15zerofrom_derive16replace_lifetime15ReplaceLifetimeEBQ_, symObjAddr: 0x6420, symBinAddr: 0x262D0, symSize: 0x30 }
  - { offset: 0x5E6A4, size: 0x8, addend: 0x0, symName: __RINvNtNtCsdGrGZaRBwMb_3syn3gen4fold13fold_lit_boolNtNvCsliPDVd4pfgL_15zerofrom_derive25replace_lifetime_and_type20ReplaceLifetimeAndTyEBQ_, symObjAddr: 0x6450, symBinAddr: 0x26300, symSize: 0x30 }
  - { offset: 0x5E6EA, size: 0x8, addend: 0x0, symName: __RINvNtNtCsdGrGZaRBwMb_3syn3gen4fold13fold_lit_byteNtNvCsliPDVd4pfgL_15zerofrom_derive16replace_lifetime15ReplaceLifetimeEBQ_, symObjAddr: 0x6480, symBinAddr: 0x26330, symSize: 0xC0 }
  - { offset: 0x5E764, size: 0x8, addend: 0x0, symName: __RINvNtNtCsdGrGZaRBwMb_3syn3gen4fold13fold_lit_byteNtNvCsliPDVd4pfgL_15zerofrom_derive25replace_lifetime_and_type20ReplaceLifetimeAndTyEBQ_, symObjAddr: 0x6540, symBinAddr: 0x263F0, symSize: 0xC0 }
  - { offset: 0x5E7DE, size: 0x8, addend: 0x0, symName: __RINvNtNtCsdGrGZaRBwMb_3syn3gen4fold13fold_lit_charNtNvCsliPDVd4pfgL_15zerofrom_derive16replace_lifetime15ReplaceLifetimeEBQ_, symObjAddr: 0x6600, symBinAddr: 0x264B0, symSize: 0xC0 }
  - { offset: 0x5E858, size: 0x8, addend: 0x0, symName: __RINvNtNtCsdGrGZaRBwMb_3syn3gen4fold13fold_lit_charNtNvCsliPDVd4pfgL_15zerofrom_derive25replace_lifetime_and_type20ReplaceLifetimeAndTyEBQ_, symObjAddr: 0x66C0, symBinAddr: 0x26570, symSize: 0xC0 }
  - { offset: 0x5E8D2, size: 0x8, addend: 0x0, symName: __RINvNtNtCsdGrGZaRBwMb_3syn3gen4fold13fold_lit_cstrNtNvCsliPDVd4pfgL_15zerofrom_derive16replace_lifetime15ReplaceLifetimeEBQ_, symObjAddr: 0x6780, symBinAddr: 0x26630, symSize: 0xC0 }
  - { offset: 0x5E94C, size: 0x8, addend: 0x0, symName: __RINvNtNtCsdGrGZaRBwMb_3syn3gen4fold13fold_lit_cstrNtNvCsliPDVd4pfgL_15zerofrom_derive25replace_lifetime_and_type20ReplaceLifetimeAndTyEBQ_, symObjAddr: 0x6840, symBinAddr: 0x266F0, symSize: 0xC0 }
  - { offset: 0x5E9C6, size: 0x8, addend: 0x0, symName: __RINvNtNtCsdGrGZaRBwMb_3syn3gen4fold13fold_pat_restNtNvCsliPDVd4pfgL_15zerofrom_derive16replace_lifetime15ReplaceLifetimeEBQ_, symObjAddr: 0x6900, symBinAddr: 0x267B0, symSize: 0x80 }
  - { offset: 0x5EA0E, size: 0x8, addend: 0x0, symName: __RINvNtNtCsdGrGZaRBwMb_3syn3gen4fold13fold_pat_restNtNvCsliPDVd4pfgL_15zerofrom_derive25replace_lifetime_and_type20ReplaceLifetimeAndTyEBQ_, symObjAddr: 0x6980, symBinAddr: 0x26830, symSize: 0x80 }
  - { offset: 0x5EA56, size: 0x8, addend: 0x0, symName: __RINvNtNtCsdGrGZaRBwMb_3syn3gen4fold13fold_pat_typeNtNvCsliPDVd4pfgL_15zerofrom_derive16replace_lifetime15ReplaceLifetimeEBQ_, symObjAddr: 0x6A00, symBinAddr: 0x268B0, symSize: 0x430 }
  - { offset: 0x5EADB, size: 0x8, addend: 0x0, symName: __RINvNtNtCsdGrGZaRBwMb_3syn3gen4fold13fold_pat_typeNtNvCsliPDVd4pfgL_15zerofrom_derive25replace_lifetime_and_type20ReplaceLifetimeAndTyEBQ_, symObjAddr: 0x6E30, symBinAddr: 0x26CE0, symSize: 0x430 }
  - { offset: 0x5EB60, size: 0x8, addend: 0x0, symName: __RINvNtNtCsdGrGZaRBwMb_3syn3gen4fold13fold_pat_wildNtNvCsliPDVd4pfgL_15zerofrom_derive16replace_lifetime15ReplaceLifetimeEBQ_, symObjAddr: 0x7260, symBinAddr: 0x27110, symSize: 0x80 }
  - { offset: 0x5EBA8, size: 0x8, addend: 0x0, symName: __RINvNtNtCsdGrGZaRBwMb_3syn3gen4fold13fold_pat_wildNtNvCsliPDVd4pfgL_15zerofrom_derive25replace_lifetime_and_type20ReplaceLifetimeAndTyEBQ_, symObjAddr: 0x72E0, symBinAddr: 0x27190, symSize: 0x80 }
  - { offset: 0x5EBF0, size: 0x8, addend: 0x0, symName: __RINvNtNtCsdGrGZaRBwMb_3syn3gen4fold13fold_receiverNtNvCsliPDVd4pfgL_15zerofrom_derive16replace_lifetime15ReplaceLifetimeEBQ_, symObjAddr: 0x7360, symBinAddr: 0x27210, symSize: 0x360 }
  - { offset: 0x5EC56, size: 0x8, addend: 0x0, symName: __RINvNtNtCsdGrGZaRBwMb_3syn3gen4fold13fold_receiverNtNvCsliPDVd4pfgL_15zerofrom_derive25replace_lifetime_and_type20ReplaceLifetimeAndTyEBQ_, symObjAddr: 0x76C0, symBinAddr: 0x27570, symSize: 0x360 }
  - { offset: 0x5ECBC, size: 0x8, addend: 0x0, symName: __RINvNtNtCsdGrGZaRBwMb_3syn3gen4fold13fold_type_ptrNtNvCsliPDVd4pfgL_15zerofrom_derive16replace_lifetime15ReplaceLifetimeEBQ_, symObjAddr: 0x7A20, symBinAddr: 0x278D0, symSize: 0x210 }
  - { offset: 0x5ED22, size: 0x8, addend: 0x0, symName: __RINvNtNtCsdGrGZaRBwMb_3syn3gen4fold13fold_type_ptrNtNvCsliPDVd4pfgL_15zerofrom_derive25replace_lifetime_and_type20ReplaceLifetimeAndTyEBQ_, symObjAddr: 0x7C30, symBinAddr: 0x27AE0, symSize: 0x210 }
  - { offset: 0x5ED88, size: 0x8, addend: 0x0, symName: __RINvNtNtCsdGrGZaRBwMb_3syn3gen4fold13fold_use_globNtNvCsliPDVd4pfgL_15zerofrom_derive16replace_lifetime15ReplaceLifetimeEBQ_, symObjAddr: 0x7E40, symBinAddr: 0x27CF0, symSize: 0x30 }
  - { offset: 0x5EDCE, size: 0x8, addend: 0x0, symName: __RINvNtNtCsdGrGZaRBwMb_3syn3gen4fold13fold_use_globNtNvCsliPDVd4pfgL_15zerofrom_derive25replace_lifetime_and_type20ReplaceLifetimeAndTyEBQ_, symObjAddr: 0x7E70, symBinAddr: 0x27D20, symSize: 0x30 }
  - { offset: 0x5EE14, size: 0x8, addend: 0x0, symName: __RINvNtNtCsdGrGZaRBwMb_3syn3gen4fold13fold_use_nameNtNvCsliPDVd4pfgL_15zerofrom_derive16replace_lifetime15ReplaceLifetimeEBQ_, symObjAddr: 0x7EA0, symBinAddr: 0x27D50, symSize: 0x70 }
  - { offset: 0x5EE5B, size: 0x8, addend: 0x0, symName: __RINvNtNtCsdGrGZaRBwMb_3syn3gen4fold13fold_use_nameNtNvCsliPDVd4pfgL_15zerofrom_derive25replace_lifetime_and_type20ReplaceLifetimeAndTyEBQ_, symObjAddr: 0x7F10, symBinAddr: 0x27DC0, symSize: 0x70 }
  - { offset: 0x5EEA2, size: 0x8, addend: 0x0, symName: __RINvNtNtCsdGrGZaRBwMb_3syn3gen4fold13fold_use_pathNtNvCsliPDVd4pfgL_15zerofrom_derive16replace_lifetime15ReplaceLifetimeEBQ_, symObjAddr: 0x7F80, symBinAddr: 0x27E30, symSize: 0x290 }
  - { offset: 0x5EF08, size: 0x8, addend: 0x0, symName: __RINvNtNtCsdGrGZaRBwMb_3syn3gen4fold13fold_use_pathNtNvCsliPDVd4pfgL_15zerofrom_derive25replace_lifetime_and_type20ReplaceLifetimeAndTyEBQ_, symObjAddr: 0x8210, symBinAddr: 0x280C0, symSize: 0x290 }
  - { offset: 0x5EF6E, size: 0x8, addend: 0x0, symName: __RINvNtNtCsdGrGZaRBwMb_3syn3gen4fold13fold_use_treeNtNvCsliPDVd4pfgL_15zerofrom_derive16replace_lifetime15ReplaceLifetimeEBQ_, symObjAddr: 0x84A0, symBinAddr: 0x28350, symSize: 0x270 }
  - { offset: 0x5F048, size: 0x8, addend: 0x0, symName: __RINvNtNtCsdGrGZaRBwMb_3syn3gen4fold13fold_use_treeNtNvCsliPDVd4pfgL_15zerofrom_derive25replace_lifetime_and_type20ReplaceLifetimeAndTyEBQ_, symObjAddr: 0x8710, symBinAddr: 0x285C0, symSize: 0x270 }
  - { offset: 0x5F122, size: 0x8, addend: 0x0, symName: __RINvNtNtCsdGrGZaRBwMb_3syn3gen4fold13fold_variadicNtNvCsliPDVd4pfgL_15zerofrom_derive16replace_lifetime15ReplaceLifetimeEBQ_, symObjAddr: 0x8980, symBinAddr: 0x28830, symSize: 0x160 }
  - { offset: 0x5F169, size: 0x8, addend: 0x0, symName: __RINvNtNtCsdGrGZaRBwMb_3syn3gen4fold13fold_variadicNtNvCsliPDVd4pfgL_15zerofrom_derive25replace_lifetime_and_type20ReplaceLifetimeAndTyEBQ_, symObjAddr: 0x8AE0, symBinAddr: 0x28990, symSize: 0x160 }
  - { offset: 0x5F1B0, size: 0x8, addend: 0x0, symName: __RINvNtNtCsdGrGZaRBwMb_3syn3gen4fold14fold_attributeNtNvCsliPDVd4pfgL_15zerofrom_derive16replace_lifetime15ReplaceLifetimeEBR_, symObjAddr: 0x8C40, symBinAddr: 0x28AF0, symSize: 0x180 }
  - { offset: 0x5F1F7, size: 0x8, addend: 0x0, symName: __RINvNtNtCsdGrGZaRBwMb_3syn3gen4fold14fold_attributeNtNvCsliPDVd4pfgL_15zerofrom_derive25replace_lifetime_and_type20ReplaceLifetimeAndTyEBR_, symObjAddr: 0x8DC0, symBinAddr: 0x28C70, symSize: 0x180 }
  - { offset: 0x5F23E, size: 0x8, addend: 0x0, symName: __RINvNtNtCsdGrGZaRBwMb_3syn3gen4fold14fold_expr_callNtNvCsliPDVd4pfgL_15zerofrom_derive16replace_lifetime15ReplaceLifetimeEBR_, symObjAddr: 0x8F40, symBinAddr: 0x28DF0, symSize: 0x320 }
  - { offset: 0x5F2A4, size: 0x8, addend: 0x0, symName: __RINvNtNtCsdGrGZaRBwMb_3syn3gen4fold14fold_expr_callNtNvCsliPDVd4pfgL_15zerofrom_derive25replace_lifetime_and_type20ReplaceLifetimeAndTyEBR_, symObjAddr: 0x9260, symBinAddr: 0x29110, symSize: 0x320 }
  - { offset: 0x5F30A, size: 0x8, addend: 0x0, symName: __RINvNtNtCsdGrGZaRBwMb_3syn3gen4fold14fold_expr_castNtNvCsliPDVd4pfgL_15zerofrom_derive16replace_lifetime15ReplaceLifetimeEBR_, symObjAddr: 0x9580, symBinAddr: 0x29430, symSize: 0x430 }
  - { offset: 0x5F38F, size: 0x8, addend: 0x0, symName: __RINvNtNtCsdGrGZaRBwMb_3syn3gen4fold14fold_expr_castNtNvCsliPDVd4pfgL_15zerofrom_derive25replace_lifetime_and_type20ReplaceLifetimeAndTyEBR_, symObjAddr: 0x99B0, symBinAddr: 0x29860, symSize: 0x430 }
  - { offset: 0x5F414, size: 0x8, addend: 0x0, symName: __RINvNtNtCsdGrGZaRBwMb_3syn3gen4fold14fold_expr_loopNtNvCsliPDVd4pfgL_15zerofrom_derive16replace_lifetime15ReplaceLifetimeEBR_, symObjAddr: 0x9DE0, symBinAddr: 0x29C90, symSize: 0x230 }
  - { offset: 0x5F45B, size: 0x8, addend: 0x0, symName: __RINvNtNtCsdGrGZaRBwMb_3syn3gen4fold14fold_expr_loopNtNvCsliPDVd4pfgL_15zerofrom_derive25replace_lifetime_and_type20ReplaceLifetimeAndTyEBR_, symObjAddr: 0xA010, symBinAddr: 0x29EC0, symSize: 0x230 }
  - { offset: 0x5F4A2, size: 0x8, addend: 0x0, symName: __RINvNtNtCsdGrGZaRBwMb_3syn3gen4fold14fold_expr_pathNtNvCsliPDVd4pfgL_15zerofrom_derive16replace_lifetime15ReplaceLifetimeEBR_, symObjAddr: 0xA240, symBinAddr: 0x2A0F0, symSize: 0x220 }
  - { offset: 0x5F4E9, size: 0x8, addend: 0x0, symName: __RINvNtNtCsdGrGZaRBwMb_3syn3gen4fold14fold_expr_pathNtNvCsliPDVd4pfgL_15zerofrom_derive25replace_lifetime_and_type20ReplaceLifetimeAndTyEBR_, symObjAddr: 0xA460, symBinAddr: 0x2A310, symSize: 0x220 }
  - { offset: 0x5F530, size: 0x8, addend: 0x0, symName: __RINvNtNtCsdGrGZaRBwMb_3syn3gen4fold14fold_field_patNtNvCsliPDVd4pfgL_15zerofrom_derive16replace_lifetime15ReplaceLifetimeEBR_, symObjAddr: 0xA680, symBinAddr: 0x2A530, symSize: 0x320 }
  - { offset: 0x5F596, size: 0x8, addend: 0x0, symName: __RINvNtNtCsdGrGZaRBwMb_3syn3gen4fold14fold_field_patNtNvCsliPDVd4pfgL_15zerofrom_derive25replace_lifetime_and_type20ReplaceLifetimeAndTyEBR_, symObjAddr: 0xA9A0, symBinAddr: 0x2A850, symSize: 0x320 }
  - { offset: 0x5F5FC, size: 0x8, addend: 0x0, symName: __RINvNtNtCsdGrGZaRBwMb_3syn3gen4fold14fold_impl_itemNtNvCsliPDVd4pfgL_15zerofrom_derive16replace_lifetime15ReplaceLifetimeEBR_, symObjAddr: 0xACC0, symBinAddr: 0x2AB70, symSize: 0x290 }
  - { offset: 0x5F6D6, size: 0x8, addend: 0x0, symName: __RINvNtNtCsdGrGZaRBwMb_3syn3gen4fold14fold_impl_itemNtNvCsliPDVd4pfgL_15zerofrom_derive25replace_lifetime_and_type20ReplaceLifetimeAndTyEBR_, symObjAddr: 0xAF50, symBinAddr: 0x2AE00, symSize: 0x290 }
  - { offset: 0x5F7B0, size: 0x8, addend: 0x0, symName: __RINvNtNtCsdGrGZaRBwMb_3syn3gen4fold14fold_item_enumNtNvCsliPDVd4pfgL_15zerofrom_derive16replace_lifetime15ReplaceLifetimeEBR_, symObjAddr: 0xB1E0, symBinAddr: 0x2B090, symSize: 0x3E0 }
  - { offset: 0x5F7F7, size: 0x8, addend: 0x0, symName: __RINvNtNtCsdGrGZaRBwMb_3syn3gen4fold14fold_item_enumNtNvCsliPDVd4pfgL_15zerofrom_derive25replace_lifetime_and_type20ReplaceLifetimeAndTyEBR_, symObjAddr: 0xB5C0, symBinAddr: 0x2B470, symSize: 0x3E0 }
  - { offset: 0x5F83E, size: 0x8, addend: 0x0, symName: __RINvNtNtCsdGrGZaRBwMb_3syn3gen4fold14fold_item_implNtNvCsliPDVd4pfgL_15zerofrom_derive16replace_lifetime15ReplaceLifetimeEBR_, symObjAddr: 0xB9A0, symBinAddr: 0x2B850, symSize: 0x540 }
  - { offset: 0x5F8A4, size: 0x8, addend: 0x0, symName: __RINvNtNtCsdGrGZaRBwMb_3syn3gen4fold14fold_item_implNtNvCsliPDVd4pfgL_15zerofrom_derive25replace_lifetime_and_type20ReplaceLifetimeAndTyEBR_, symObjAddr: 0xBEE0, symBinAddr: 0x2BD90, symSize: 0x540 }
  - { offset: 0x5F90A, size: 0x8, addend: 0x0, symName: __RINvNtNtCsdGrGZaRBwMb_3syn3gen4fold14fold_item_typeNtNvCsliPDVd4pfgL_15zerofrom_derive16replace_lifetime15ReplaceLifetimeEBR_, symObjAddr: 0xC420, symBinAddr: 0x2C2D0, symSize: 0x4D0 }
  - { offset: 0x5F970, size: 0x8, addend: 0x0, symName: __RINvNtNtCsdGrGZaRBwMb_3syn3gen4fold14fold_item_typeNtNvCsliPDVd4pfgL_15zerofrom_derive25replace_lifetime_and_type20ReplaceLifetimeAndTyEBR_, symObjAddr: 0xC8F0, symBinAddr: 0x2C7A0, symSize: 0x4D0 }
  - { offset: 0x5F9D6, size: 0x8, addend: 0x0, symName: __RINvNtNtCsdGrGZaRBwMb_3syn3gen4fold14fold_lit_floatNtNvCsliPDVd4pfgL_15zerofrom_derive16replace_lifetime15ReplaceLifetimeEBR_, symObjAddr: 0xCDC0, symBinAddr: 0x2CC70, symSize: 0xC0 }
  - { offset: 0x5FA50, size: 0x8, addend: 0x0, symName: __RINvNtNtCsdGrGZaRBwMb_3syn3gen4fold14fold_lit_floatNtNvCsliPDVd4pfgL_15zerofrom_derive25replace_lifetime_and_type20ReplaceLifetimeAndTyEBR_, symObjAddr: 0xCE80, symBinAddr: 0x2CD30, symSize: 0xC0 }
  - { offset: 0x5FACA, size: 0x8, addend: 0x0, symName: __RINvNtNtCsdGrGZaRBwMb_3syn3gen4fold14fold_meta_listNtNvCsliPDVd4pfgL_15zerofrom_derive16replace_lifetime15ReplaceLifetimeEBR_, symObjAddr: 0xCF40, symBinAddr: 0x2CDF0, symSize: 0x1C0 }
  - { offset: 0x5FB11, size: 0x8, addend: 0x0, symName: __RINvNtNtCsdGrGZaRBwMb_3syn3gen4fold14fold_meta_listNtNvCsliPDVd4pfgL_15zerofrom_derive25replace_lifetime_and_type20ReplaceLifetimeAndTyEBR_, symObjAddr: 0xD100, symBinAddr: 0x2CFB0, symSize: 0x1C0 }
  - { offset: 0x5FB58, size: 0x8, addend: 0x0, symName: __RINvNtNtCsdGrGZaRBwMb_3syn3gen4fold14fold_pat_identNtNvCsliPDVd4pfgL_15zerofrom_derive16replace_lifetime15ReplaceLifetimeEBR_, symObjAddr: 0xD2C0, symBinAddr: 0x2D170, symSize: 0x220 }
  - { offset: 0x5FB9F, size: 0x8, addend: 0x0, symName: __RINvNtNtCsdGrGZaRBwMb_3syn3gen4fold14fold_pat_identNtNvCsliPDVd4pfgL_15zerofrom_derive25replace_lifetime_and_type20ReplaceLifetimeAndTyEBR_, symObjAddr: 0xD4E0, symBinAddr: 0x2D390, symSize: 0x220 }
  - { offset: 0x5FBE6, size: 0x8, addend: 0x0, symName: __RINvNtNtCsdGrGZaRBwMb_3syn3gen4fold14fold_pat_parenNtNvCsliPDVd4pfgL_15zerofrom_derive16replace_lifetime15ReplaceLifetimeEBR_, symObjAddr: 0xD700, symBinAddr: 0x2D5B0, symSize: 0x280 }
  - { offset: 0x5FC4C, size: 0x8, addend: 0x0, symName: __RINvNtNtCsdGrGZaRBwMb_3syn3gen4fold14fold_pat_parenNtNvCsliPDVd4pfgL_15zerofrom_derive25replace_lifetime_and_type20ReplaceLifetimeAndTyEBR_, symObjAddr: 0xD980, symBinAddr: 0x2D830, symSize: 0x280 }
  - { offset: 0x5FCB2, size: 0x8, addend: 0x0, symName: __RINvNtNtCsdGrGZaRBwMb_3syn3gen4fold14fold_pat_sliceNtNvCsliPDVd4pfgL_15zerofrom_derive16replace_lifetime15ReplaceLifetimeEBR_, symObjAddr: 0xDC00, symBinAddr: 0x2DAB0, symSize: 0x180 }
  - { offset: 0x5FCF9, size: 0x8, addend: 0x0, symName: __RINvNtNtCsdGrGZaRBwMb_3syn3gen4fold14fold_pat_sliceNtNvCsliPDVd4pfgL_15zerofrom_derive25replace_lifetime_and_type20ReplaceLifetimeAndTyEBR_, symObjAddr: 0xDD80, symBinAddr: 0x2DC30, symSize: 0x180 }
  - { offset: 0x5FD40, size: 0x8, addend: 0x0, symName: __RINvNtNtCsdGrGZaRBwMb_3syn3gen4fold14fold_pat_tupleNtNvCsliPDVd4pfgL_15zerofrom_derive16replace_lifetime15ReplaceLifetimeEBR_, symObjAddr: 0xDF00, symBinAddr: 0x2DDB0, symSize: 0x180 }
  - { offset: 0x5FD87, size: 0x8, addend: 0x0, symName: __RINvNtNtCsdGrGZaRBwMb_3syn3gen4fold14fold_pat_tupleNtNvCsliPDVd4pfgL_15zerofrom_derive25replace_lifetime_and_type20ReplaceLifetimeAndTyEBR_, symObjAddr: 0xE080, symBinAddr: 0x2DF30, symSize: 0x180 }
  - { offset: 0x5FDCE, size: 0x8, addend: 0x0, symName: __RINvNtNtCsdGrGZaRBwMb_3syn3gen4fold14fold_signatureNtNvCsliPDVd4pfgL_15zerofrom_derive16replace_lifetime15ReplaceLifetimeEBR_, symObjAddr: 0xE200, symBinAddr: 0x2E0B0, symSize: 0x540 }
  - { offset: 0x5FE15, size: 0x8, addend: 0x0, symName: __RINvNtNtCsdGrGZaRBwMb_3syn3gen4fold14fold_signatureNtNvCsliPDVd4pfgL_15zerofrom_derive25replace_lifetime_and_type20ReplaceLifetimeAndTyEBR_, symObjAddr: 0xE740, symBinAddr: 0x2E5F0, symSize: 0x540 }
  - { offset: 0x5FE5C, size: 0x8, addend: 0x0, symName: __RINvNtNtCsdGrGZaRBwMb_3syn3gen4fold14fold_type_pathNtNvCsliPDVd4pfgL_15zerofrom_derive16replace_lifetime15ReplaceLifetimeEBR_, symObjAddr: 0xEC80, symBinAddr: 0x2EB30, symSize: 0x180 }
  - { offset: 0x5FEA3, size: 0x8, addend: 0x0, symName: __RINvNtNtCsdGrGZaRBwMb_3syn3gen4fold14fold_type_pathNtNvCsliPDVd4pfgL_15zerofrom_derive25replace_lifetime_and_type20ReplaceLifetimeAndTyEBR_, symObjAddr: 0xEE00, symBinAddr: 0x2ECB0, symSize: 0x180 }
  - { offset: 0x5FEEA, size: 0x8, addend: 0x0, symName: __RINvNtNtCsdGrGZaRBwMb_3syn3gen4fold14fold_use_groupNtNvCsliPDVd4pfgL_15zerofrom_derive16replace_lifetime15ReplaceLifetimeEBR_, symObjAddr: 0xEF80, symBinAddr: 0x2EE30, symSize: 0xA0 }
  - { offset: 0x5FF31, size: 0x8, addend: 0x0, symName: __RINvNtNtCsdGrGZaRBwMb_3syn3gen4fold14fold_use_groupNtNvCsliPDVd4pfgL_15zerofrom_derive25replace_lifetime_and_type20ReplaceLifetimeAndTyEBR_, symObjAddr: 0xF020, symBinAddr: 0x2EED0, symSize: 0xA0 }
  - { offset: 0x5FF78, size: 0x8, addend: 0x0, symName: __RINvNtNtCsdGrGZaRBwMb_3syn3gen4fold15fold_assoc_typeNtNvCsliPDVd4pfgL_15zerofrom_derive16replace_lifetime15ReplaceLifetimeEBS_, symObjAddr: 0xF0C0, symBinAddr: 0x2EF70, symSize: 0x270 }
  - { offset: 0x5FFBF, size: 0x8, addend: 0x0, symName: __RINvNtNtCsdGrGZaRBwMb_3syn3gen4fold15fold_assoc_typeNtNvCsliPDVd4pfgL_15zerofrom_derive25replace_lifetime_and_type20ReplaceLifetimeAndTyEBS_, symObjAddr: 0xF330, symBinAddr: 0x2F1E0, symSize: 0x270 }
  - { offset: 0x60006, size: 0x8, addend: 0x0, symName: __RINvNtNtCsdGrGZaRBwMb_3syn3gen4fold15fold_attr_styleNtNvCsliPDVd4pfgL_15zerofrom_derive16replace_lifetime15ReplaceLifetimeEBS_, symObjAddr: 0xF5A0, symBinAddr: 0x2F450, symSize: 0x60 }
  - { offset: 0x6006A, size: 0x8, addend: 0x0, symName: __RINvNtNtCsdGrGZaRBwMb_3syn3gen4fold15fold_attr_styleNtNvCsliPDVd4pfgL_15zerofrom_derive25replace_lifetime_and_type20ReplaceLifetimeAndTyEBS_, symObjAddr: 0xF600, symBinAddr: 0x2F4B0, symSize: 0x60 }
  - { offset: 0x600CE, size: 0x8, addend: 0x0, symName: __RINvNtNtCsdGrGZaRBwMb_3syn3gen4fold15fold_constraintNtNvCsliPDVd4pfgL_15zerofrom_derive16replace_lifetime15ReplaceLifetimeEBS_, symObjAddr: 0xF660, symBinAddr: 0x2F510, symSize: 0x240 }
  - { offset: 0x60115, size: 0x8, addend: 0x0, symName: __RINvNtNtCsdGrGZaRBwMb_3syn3gen4fold15fold_constraintNtNvCsliPDVd4pfgL_15zerofrom_derive25replace_lifetime_and_type20ReplaceLifetimeAndTyEBS_, symObjAddr: 0xF8A0, symBinAddr: 0x2F750, symSize: 0x240 }
  - { offset: 0x6015C, size: 0x8, addend: 0x0, symName: __RINvNtNtCsdGrGZaRBwMb_3syn3gen4fold15fold_expr_arrayNtNvCsliPDVd4pfgL_15zerofrom_derive16replace_lifetime15ReplaceLifetimeEBS_, symObjAddr: 0xFAE0, symBinAddr: 0x2F990, symSize: 0x180 }
  - { offset: 0x601A3, size: 0x8, addend: 0x0, symName: __RINvNtNtCsdGrGZaRBwMb_3syn3gen4fold15fold_expr_arrayNtNvCsliPDVd4pfgL_15zerofrom_derive25replace_lifetime_and_type20ReplaceLifetimeAndTyEBS_, symObjAddr: 0xFC60, symBinAddr: 0x2FB10, symSize: 0x180 }
  - { offset: 0x601EA, size: 0x8, addend: 0x0, symName: __RINvNtNtCsdGrGZaRBwMb_3syn3gen4fold15fold_expr_asyncNtNvCsliPDVd4pfgL_15zerofrom_derive16replace_lifetime15ReplaceLifetimeEBS_, symObjAddr: 0xFDE0, symBinAddr: 0x2FC90, symSize: 0x190 }
  - { offset: 0x60231, size: 0x8, addend: 0x0, symName: __RINvNtNtCsdGrGZaRBwMb_3syn3gen4fold15fold_expr_asyncNtNvCsliPDVd4pfgL_15zerofrom_derive25replace_lifetime_and_type20ReplaceLifetimeAndTyEBS_, symObjAddr: 0xFF70, symBinAddr: 0x2FE20, symSize: 0x190 }
  - { offset: 0x60278, size: 0x8, addend: 0x0, symName: __RINvNtNtCsdGrGZaRBwMb_3syn3gen4fold15fold_expr_awaitNtNvCsliPDVd4pfgL_15zerofrom_derive16replace_lifetime15ReplaceLifetimeEBS_, symObjAddr: 0x10100, symBinAddr: 0x2FFB0, symSize: 0x270 }
  - { offset: 0x602DE, size: 0x8, addend: 0x0, symName: __RINvNtNtCsdGrGZaRBwMb_3syn3gen4fold15fold_expr_awaitNtNvCsliPDVd4pfgL_15zerofrom_derive25replace_lifetime_and_type20ReplaceLifetimeAndTyEBS_, symObjAddr: 0x10370, symBinAddr: 0x30220, symSize: 0x270 }
  - { offset: 0x60344, size: 0x8, addend: 0x0, symName: __RINvNtNtCsdGrGZaRBwMb_3syn3gen4fold15fold_expr_blockNtNvCsliPDVd4pfgL_15zerofrom_derive16replace_lifetime15ReplaceLifetimeEBS_, symObjAddr: 0x105E0, symBinAddr: 0x30490, symSize: 0x210 }
  - { offset: 0x6038B, size: 0x8, addend: 0x0, symName: __RINvNtNtCsdGrGZaRBwMb_3syn3gen4fold15fold_expr_blockNtNvCsliPDVd4pfgL_15zerofrom_derive25replace_lifetime_and_type20ReplaceLifetimeAndTyEBS_, symObjAddr: 0x107F0, symBinAddr: 0x306A0, symSize: 0x210 }
  - { offset: 0x603D2, size: 0x8, addend: 0x0, symName: __RINvNtNtCsdGrGZaRBwMb_3syn3gen4fold15fold_expr_breakNtNvCsliPDVd4pfgL_15zerofrom_derive16replace_lifetime15ReplaceLifetimeEBS_, symObjAddr: 0x10A00, symBinAddr: 0x308B0, symSize: 0x1D0 }
  - { offset: 0x60419, size: 0x8, addend: 0x0, symName: __RINvNtNtCsdGrGZaRBwMb_3syn3gen4fold15fold_expr_breakNtNvCsliPDVd4pfgL_15zerofrom_derive25replace_lifetime_and_type20ReplaceLifetimeAndTyEBS_, symObjAddr: 0x10BD0, symBinAddr: 0x30A80, symSize: 0x1D0 }
  - { offset: 0x60460, size: 0x8, addend: 0x0, symName: __RINvNtNtCsdGrGZaRBwMb_3syn3gen4fold15fold_expr_constNtNvCsliPDVd4pfgL_15zerofrom_derive16replace_lifetime15ReplaceLifetimeEBS_, symObjAddr: 0x10DA0, symBinAddr: 0x30C50, symSize: 0x170 }
  - { offset: 0x604A7, size: 0x8, addend: 0x0, symName: __RINvNtNtCsdGrGZaRBwMb_3syn3gen4fold15fold_expr_constNtNvCsliPDVd4pfgL_15zerofrom_derive25replace_lifetime_and_type20ReplaceLifetimeAndTyEBS_, symObjAddr: 0x10F10, symBinAddr: 0x30DC0, symSize: 0x170 }
  - { offset: 0x604EE, size: 0x8, addend: 0x0, symName: __RINvNtNtCsdGrGZaRBwMb_3syn3gen4fold15fold_expr_fieldNtNvCsliPDVd4pfgL_15zerofrom_derive16replace_lifetime15ReplaceLifetimeEBS_, symObjAddr: 0x11080, symBinAddr: 0x30F30, symSize: 0x300 }
  - { offset: 0x60554, size: 0x8, addend: 0x0, symName: __RINvNtNtCsdGrGZaRBwMb_3syn3gen4fold15fold_expr_fieldNtNvCsliPDVd4pfgL_15zerofrom_derive25replace_lifetime_and_type20ReplaceLifetimeAndTyEBS_, symObjAddr: 0x11380, symBinAddr: 0x31230, symSize: 0x300 }
  - { offset: 0x605BA, size: 0x8, addend: 0x0, symName: __RINvNtNtCsdGrGZaRBwMb_3syn3gen4fold15fold_expr_groupNtNvCsliPDVd4pfgL_15zerofrom_derive16replace_lifetime15ReplaceLifetimeEBS_, symObjAddr: 0x11680, symBinAddr: 0x31530, symSize: 0x270 }
  - { offset: 0x60620, size: 0x8, addend: 0x0, symName: __RINvNtNtCsdGrGZaRBwMb_3syn3gen4fold15fold_expr_groupNtNvCsliPDVd4pfgL_15zerofrom_derive25replace_lifetime_and_type20ReplaceLifetimeAndTyEBS_, symObjAddr: 0x118F0, symBinAddr: 0x317A0, symSize: 0x270 }
  - { offset: 0x60686, size: 0x8, addend: 0x0, symName: __RINvNtNtCsdGrGZaRBwMb_3syn3gen4fold15fold_expr_indexNtNvCsliPDVd4pfgL_15zerofrom_derive16replace_lifetime15ReplaceLifetimeEBS_, symObjAddr: 0x11B60, symBinAddr: 0x31A10, symSize: 0x450 }
  - { offset: 0x6070B, size: 0x8, addend: 0x0, symName: __RINvNtNtCsdGrGZaRBwMb_3syn3gen4fold15fold_expr_indexNtNvCsliPDVd4pfgL_15zerofrom_derive25replace_lifetime_and_type20ReplaceLifetimeAndTyEBS_, symObjAddr: 0x11FB0, symBinAddr: 0x31E60, symSize: 0x450 }
  - { offset: 0x60790, size: 0x8, addend: 0x0, symName: __RINvNtNtCsdGrGZaRBwMb_3syn3gen4fold15fold_expr_inferNtNvCsliPDVd4pfgL_15zerofrom_derive16replace_lifetime15ReplaceLifetimeEBS_, symObjAddr: 0x12400, symBinAddr: 0x322B0, symSize: 0x80 }
  - { offset: 0x607D8, size: 0x8, addend: 0x0, symName: __RINvNtNtCsdGrGZaRBwMb_3syn3gen4fold15fold_expr_inferNtNvCsliPDVd4pfgL_15zerofrom_derive25replace_lifetime_and_type20ReplaceLifetimeAndTyEBS_, symObjAddr: 0x12480, symBinAddr: 0x32330, symSize: 0x80 }
  - { offset: 0x60820, size: 0x8, addend: 0x0, symName: __RINvNtNtCsdGrGZaRBwMb_3syn3gen4fold15fold_expr_macroNtNvCsliPDVd4pfgL_15zerofrom_derive16replace_lifetime15ReplaceLifetimeEBS_, symObjAddr: 0x12500, symBinAddr: 0x323B0, symSize: 0x150 }
  - { offset: 0x60867, size: 0x8, addend: 0x0, symName: __RINvNtNtCsdGrGZaRBwMb_3syn3gen4fold15fold_expr_macroNtNvCsliPDVd4pfgL_15zerofrom_derive25replace_lifetime_and_type20ReplaceLifetimeAndTyEBS_, symObjAddr: 0x12650, symBinAddr: 0x32500, symSize: 0x150 }
  - { offset: 0x608AE, size: 0x8, addend: 0x0, symName: __RINvNtNtCsdGrGZaRBwMb_3syn3gen4fold15fold_expr_matchNtNvCsliPDVd4pfgL_15zerofrom_derive16replace_lifetime15ReplaceLifetimeEBS_, symObjAddr: 0x127A0, symBinAddr: 0x32650, symSize: 0x330 }
  - { offset: 0x60914, size: 0x8, addend: 0x0, symName: __RINvNtNtCsdGrGZaRBwMb_3syn3gen4fold15fold_expr_matchNtNvCsliPDVd4pfgL_15zerofrom_derive25replace_lifetime_and_type20ReplaceLifetimeAndTyEBS_, symObjAddr: 0x12AD0, symBinAddr: 0x32980, symSize: 0x330 }
  - { offset: 0x6097A, size: 0x8, addend: 0x0, symName: __RINvNtNtCsdGrGZaRBwMb_3syn3gen4fold15fold_expr_parenNtNvCsliPDVd4pfgL_15zerofrom_derive16replace_lifetime15ReplaceLifetimeEBS_, symObjAddr: 0x12E00, symBinAddr: 0x32CB0, symSize: 0x280 }
  - { offset: 0x609E0, size: 0x8, addend: 0x0, symName: __RINvNtNtCsdGrGZaRBwMb_3syn3gen4fold15fold_expr_parenNtNvCsliPDVd4pfgL_15zerofrom_derive25replace_lifetime_and_type20ReplaceLifetimeAndTyEBS_, symObjAddr: 0x13080, symBinAddr: 0x32F30, symSize: 0x280 }
  - { offset: 0x60A46, size: 0x8, addend: 0x0, symName: __RINvNtNtCsdGrGZaRBwMb_3syn3gen4fold15fold_expr_rangeNtNvCsliPDVd4pfgL_15zerofrom_derive16replace_lifetime15ReplaceLifetimeEBS_, symObjAddr: 0x13300, symBinAddr: 0x331B0, symSize: 0x1C0 }
  - { offset: 0x60A8D, size: 0x8, addend: 0x0, symName: __RINvNtNtCsdGrGZaRBwMb_3syn3gen4fold15fold_expr_rangeNtNvCsliPDVd4pfgL_15zerofrom_derive25replace_lifetime_and_type20ReplaceLifetimeAndTyEBS_, symObjAddr: 0x134C0, symBinAddr: 0x33370, symSize: 0x1C0 }
  - { offset: 0x60AD4, size: 0x8, addend: 0x0, symName: __RINvNtNtCsdGrGZaRBwMb_3syn3gen4fold15fold_expr_tupleNtNvCsliPDVd4pfgL_15zerofrom_derive16replace_lifetime15ReplaceLifetimeEBS_, symObjAddr: 0x13680, symBinAddr: 0x33530, symSize: 0x180 }
  - { offset: 0x60B1B, size: 0x8, addend: 0x0, symName: __RINvNtNtCsdGrGZaRBwMb_3syn3gen4fold15fold_expr_tupleNtNvCsliPDVd4pfgL_15zerofrom_derive25replace_lifetime_and_type20ReplaceLifetimeAndTyEBS_, symObjAddr: 0x13800, symBinAddr: 0x336B0, symSize: 0x180 }
  - { offset: 0x60B62, size: 0x8, addend: 0x0, symName: __RINvNtNtCsdGrGZaRBwMb_3syn3gen4fold15fold_expr_unaryNtNvCsliPDVd4pfgL_15zerofrom_derive16replace_lifetime15ReplaceLifetimeEBS_, symObjAddr: 0x13980, symBinAddr: 0x33830, symSize: 0x2B0 }
  - { offset: 0x60BC8, size: 0x8, addend: 0x0, symName: __RINvNtNtCsdGrGZaRBwMb_3syn3gen4fold15fold_expr_unaryNtNvCsliPDVd4pfgL_15zerofrom_derive25replace_lifetime_and_type20ReplaceLifetimeAndTyEBS_, symObjAddr: 0x13C30, symBinAddr: 0x33AE0, symSize: 0x2B0 }
  - { offset: 0x60C2E, size: 0x8, addend: 0x0, symName: __RINvNtNtCsdGrGZaRBwMb_3syn3gen4fold15fold_expr_whileNtNvCsliPDVd4pfgL_15zerofrom_derive16replace_lifetime15ReplaceLifetimeEBS_, symObjAddr: 0x13EE0, symBinAddr: 0x33D90, symSize: 0x3D0 }
  - { offset: 0x60C94, size: 0x8, addend: 0x0, symName: __RINvNtNtCsdGrGZaRBwMb_3syn3gen4fold15fold_expr_whileNtNvCsliPDVd4pfgL_15zerofrom_derive25replace_lifetime_and_type20ReplaceLifetimeAndTyEBS_, symObjAddr: 0x142B0, symBinAddr: 0x34160, symSize: 0x3D0 }
  - { offset: 0x60CFA, size: 0x8, addend: 0x0, symName: __RINvNtNtCsdGrGZaRBwMb_3syn3gen4fold15fold_expr_yieldNtNvCsliPDVd4pfgL_15zerofrom_derive16replace_lifetime15ReplaceLifetimeEBS_, symObjAddr: 0x14680, symBinAddr: 0x34530, symSize: 0x100 }
  - { offset: 0x60D41, size: 0x8, addend: 0x0, symName: __RINvNtNtCsdGrGZaRBwMb_3syn3gen4fold15fold_expr_yieldNtNvCsliPDVd4pfgL_15zerofrom_derive25replace_lifetime_and_type20ReplaceLifetimeAndTyEBS_, symObjAddr: 0x14780, symBinAddr: 0x34630, symSize: 0x100 }
  - { offset: 0x60D88, size: 0x8, addend: 0x0, symName: __RINvNtNtCsdGrGZaRBwMb_3syn3gen4fold15fold_item_constNtNvCsliPDVd4pfgL_15zerofrom_derive16replace_lifetime15ReplaceLifetimeEBS_, symObjAddr: 0x14880, symBinAddr: 0x34730, symSize: 0x6C0 }
  - { offset: 0x60E0D, size: 0x8, addend: 0x0, symName: __RINvNtNtCsdGrGZaRBwMb_3syn3gen4fold15fold_item_constNtNvCsliPDVd4pfgL_15zerofrom_derive25replace_lifetime_and_type20ReplaceLifetimeAndTyEBS_, symObjAddr: 0x14F40, symBinAddr: 0x34DF0, symSize: 0x6C0 }
  - { offset: 0x60E92, size: 0x8, addend: 0x0, symName: __RINvNtNtCsdGrGZaRBwMb_3syn3gen4fold15fold_item_macroNtNvCsliPDVd4pfgL_15zerofrom_derive16replace_lifetime15ReplaceLifetimeEBS_, symObjAddr: 0x15600, symBinAddr: 0x354B0, symSize: 0x230 }
  - { offset: 0x60ED9, size: 0x8, addend: 0x0, symName: __RINvNtNtCsdGrGZaRBwMb_3syn3gen4fold15fold_item_macroNtNvCsliPDVd4pfgL_15zerofrom_derive25replace_lifetime_and_type20ReplaceLifetimeAndTyEBS_, symObjAddr: 0x15830, symBinAddr: 0x356E0, symSize: 0x230 }
  - { offset: 0x60F20, size: 0x8, addend: 0x0, symName: __RINvNtNtCsdGrGZaRBwMb_3syn3gen4fold15fold_item_traitNtNvCsliPDVd4pfgL_15zerofrom_derive16replace_lifetime15ReplaceLifetimeEBS_, symObjAddr: 0x15A60, symBinAddr: 0x35910, symSize: 0x530 }
  - { offset: 0x60F67, size: 0x8, addend: 0x0, symName: __RINvNtNtCsdGrGZaRBwMb_3syn3gen4fold15fold_item_traitNtNvCsliPDVd4pfgL_15zerofrom_derive25replace_lifetime_and_type20ReplaceLifetimeAndTyEBS_, symObjAddr: 0x15F90, symBinAddr: 0x35E40, symSize: 0x530 }
  - { offset: 0x60FAE, size: 0x8, addend: 0x0, symName: __RINvNtNtCsdGrGZaRBwMb_3syn3gen4fold15fold_item_unionNtNvCsliPDVd4pfgL_15zerofrom_derive16replace_lifetime15ReplaceLifetimeEBS_, symObjAddr: 0x164C0, symBinAddr: 0x36370, symSize: 0x3C0 }
  - { offset: 0x60FF5, size: 0x8, addend: 0x0, symName: __RINvNtNtCsdGrGZaRBwMb_3syn3gen4fold15fold_item_unionNtNvCsliPDVd4pfgL_15zerofrom_derive25replace_lifetime_and_type20ReplaceLifetimeAndTyEBS_, symObjAddr: 0x16880, symBinAddr: 0x36730, symSize: 0x3C0 }
  - { offset: 0x6103C, size: 0x8, addend: 0x0, symName: __RINvNtNtCsdGrGZaRBwMb_3syn3gen4fold15fold_local_initNtNvCsliPDVd4pfgL_15zerofrom_derive16replace_lifetime15ReplaceLifetimeEBS_, symObjAddr: 0x16C40, symBinAddr: 0x36AF0, symSize: 0x240 }
  - { offset: 0x610A2, size: 0x8, addend: 0x0, symName: __RINvNtNtCsdGrGZaRBwMb_3syn3gen4fold15fold_local_initNtNvCsliPDVd4pfgL_15zerofrom_derive25replace_lifetime_and_type20ReplaceLifetimeAndTyEBS_, symObjAddr: 0x16E80, symBinAddr: 0x36D30, symSize: 0x240 }
  - { offset: 0x61108, size: 0x8, addend: 0x0, symName: __RINvNtNtCsdGrGZaRBwMb_3syn3gen4fold15fold_pat_structNtNvCsliPDVd4pfgL_15zerofrom_derive16replace_lifetime15ReplaceLifetimeEBS_, symObjAddr: 0x170C0, symBinAddr: 0x36F70, symSize: 0x3F0 }
  - { offset: 0x6114F, size: 0x8, addend: 0x0, symName: __RINvNtNtCsdGrGZaRBwMb_3syn3gen4fold15fold_pat_structNtNvCsliPDVd4pfgL_15zerofrom_derive25replace_lifetime_and_type20ReplaceLifetimeAndTyEBS_, symObjAddr: 0x174B0, symBinAddr: 0x37360, symSize: 0x3F0 }
  - { offset: 0x61196, size: 0x8, addend: 0x0, symName: __RINvNtNtCsdGrGZaRBwMb_3syn3gen4fold15fold_stmt_macroNtNvCsliPDVd4pfgL_15zerofrom_derive16replace_lifetime15ReplaceLifetimeEBS_, symObjAddr: 0x178A0, symBinAddr: 0x37750, symSize: 0x170 }
  - { offset: 0x611DD, size: 0x8, addend: 0x0, symName: __RINvNtNtCsdGrGZaRBwMb_3syn3gen4fold15fold_stmt_macroNtNvCsliPDVd4pfgL_15zerofrom_derive25replace_lifetime_and_type20ReplaceLifetimeAndTyEBS_, symObjAddr: 0x17A10, symBinAddr: 0x378C0, symSize: 0x170 }
  - { offset: 0x61224, size: 0x8, addend: 0x0, symName: __RINvNtNtCsdGrGZaRBwMb_3syn3gen4fold15fold_trait_itemNtNvCsliPDVd4pfgL_15zerofrom_derive16replace_lifetime15ReplaceLifetimeEBS_, symObjAddr: 0x17B80, symBinAddr: 0x37A30, symSize: 0x290 }
  - { offset: 0x612FE, size: 0x8, addend: 0x0, symName: __RINvNtNtCsdGrGZaRBwMb_3syn3gen4fold15fold_trait_itemNtNvCsliPDVd4pfgL_15zerofrom_derive25replace_lifetime_and_type20ReplaceLifetimeAndTyEBS_, symObjAddr: 0x17E10, symBinAddr: 0x37CC0, symSize: 0x290 }
  - { offset: 0x613D8, size: 0x8, addend: 0x0, symName: __RINvNtNtCsdGrGZaRBwMb_3syn3gen4fold15fold_type_arrayNtNvCsliPDVd4pfgL_15zerofrom_derive16replace_lifetime15ReplaceLifetimeEBS_, symObjAddr: 0x180A0, symBinAddr: 0x37F50, symSize: 0x2A0 }
  - { offset: 0x6143E, size: 0x8, addend: 0x0, symName: __RINvNtNtCsdGrGZaRBwMb_3syn3gen4fold15fold_type_arrayNtNvCsliPDVd4pfgL_15zerofrom_derive25replace_lifetime_and_type20ReplaceLifetimeAndTyEBS_, symObjAddr: 0x18340, symBinAddr: 0x381F0, symSize: 0x2A0 }
  - { offset: 0x614A4, size: 0x8, addend: 0x0, symName: __RINvNtNtCsdGrGZaRBwMb_3syn3gen4fold15fold_type_groupNtNvCsliPDVd4pfgL_15zerofrom_derive16replace_lifetime15ReplaceLifetimeEBS_, symObjAddr: 0x185E0, symBinAddr: 0x38490, symSize: 0x1A0 }
  - { offset: 0x6150A, size: 0x8, addend: 0x0, symName: __RINvNtNtCsdGrGZaRBwMb_3syn3gen4fold15fold_type_groupNtNvCsliPDVd4pfgL_15zerofrom_derive25replace_lifetime_and_type20ReplaceLifetimeAndTyEBS_, symObjAddr: 0x18780, symBinAddr: 0x38630, symSize: 0x1A0 }
  - { offset: 0x61570, size: 0x8, addend: 0x0, symName: __RINvNtNtCsdGrGZaRBwMb_3syn3gen4fold15fold_type_inferNtNvCsliPDVd4pfgL_15zerofrom_derive16replace_lifetime15ReplaceLifetimeEBS_, symObjAddr: 0x18920, symBinAddr: 0x387D0, symSize: 0x30 }
  - { offset: 0x615B6, size: 0x8, addend: 0x0, symName: __RINvNtNtCsdGrGZaRBwMb_3syn3gen4fold15fold_type_inferNtNvCsliPDVd4pfgL_15zerofrom_derive25replace_lifetime_and_type20ReplaceLifetimeAndTyEBS_, symObjAddr: 0x18950, symBinAddr: 0x38800, symSize: 0x30 }
  - { offset: 0x615FC, size: 0x8, addend: 0x0, symName: __RINvNtNtCsdGrGZaRBwMb_3syn3gen4fold15fold_type_macroNtNvCsliPDVd4pfgL_15zerofrom_derive16replace_lifetime15ReplaceLifetimeEBS_, symObjAddr: 0x18980, symBinAddr: 0x38830, symSize: 0x90 }
  - { offset: 0x61644, size: 0x8, addend: 0x0, symName: __RINvNtNtCsdGrGZaRBwMb_3syn3gen4fold15fold_type_macroNtNvCsliPDVd4pfgL_15zerofrom_derive25replace_lifetime_and_type20ReplaceLifetimeAndTyEBS_, symObjAddr: 0x18A10, symBinAddr: 0x388C0, symSize: 0x90 }
  - { offset: 0x6168C, size: 0x8, addend: 0x0, symName: __RINvNtNtCsdGrGZaRBwMb_3syn3gen4fold15fold_type_neverNtNvCsliPDVd4pfgL_15zerofrom_derive16replace_lifetime15ReplaceLifetimeEBS_, symObjAddr: 0x18AA0, symBinAddr: 0x38950, symSize: 0x30 }
  - { offset: 0x616D2, size: 0x8, addend: 0x0, symName: __RINvNtNtCsdGrGZaRBwMb_3syn3gen4fold15fold_type_neverNtNvCsliPDVd4pfgL_15zerofrom_derive25replace_lifetime_and_type20ReplaceLifetimeAndTyEBS_, symObjAddr: 0x18AD0, symBinAddr: 0x38980, symSize: 0x30 }
  - { offset: 0x61718, size: 0x8, addend: 0x0, symName: __RINvNtNtCsdGrGZaRBwMb_3syn3gen4fold15fold_type_paramNtNvCsliPDVd4pfgL_15zerofrom_derive16replace_lifetime15ReplaceLifetimeEBS_, symObjAddr: 0x18B00, symBinAddr: 0x389B0, symSize: 0x330 }
  - { offset: 0x6175F, size: 0x8, addend: 0x0, symName: __RINvNtNtCsdGrGZaRBwMb_3syn3gen4fold15fold_type_paramNtNvCsliPDVd4pfgL_15zerofrom_derive25replace_lifetime_and_type20ReplaceLifetimeAndTyEBS_, symObjAddr: 0x18E30, symBinAddr: 0x38CE0, symSize: 0x330 }
  - { offset: 0x617A6, size: 0x8, addend: 0x0, symName: __RINvNtNtCsdGrGZaRBwMb_3syn3gen4fold15fold_type_parenNtNvCsliPDVd4pfgL_15zerofrom_derive16replace_lifetime15ReplaceLifetimeEBS_, symObjAddr: 0x19160, symBinAddr: 0x39010, symSize: 0x1D0 }
  - { offset: 0x6180C, size: 0x8, addend: 0x0, symName: __RINvNtNtCsdGrGZaRBwMb_3syn3gen4fold15fold_type_parenNtNvCsliPDVd4pfgL_15zerofrom_derive25replace_lifetime_and_type20ReplaceLifetimeAndTyEBS_, symObjAddr: 0x19330, symBinAddr: 0x391E0, symSize: 0x1D0 }
  - { offset: 0x61872, size: 0x8, addend: 0x0, symName: __RINvNtNtCsdGrGZaRBwMb_3syn3gen4fold15fold_type_sliceNtNvCsliPDVd4pfgL_15zerofrom_derive16replace_lifetime15ReplaceLifetimeEBS_, symObjAddr: 0x19500, symBinAddr: 0x393B0, symSize: 0x1D0 }
  - { offset: 0x618D8, size: 0x8, addend: 0x0, symName: __RINvNtNtCsdGrGZaRBwMb_3syn3gen4fold15fold_type_sliceNtNvCsliPDVd4pfgL_15zerofrom_derive25replace_lifetime_and_type20ReplaceLifetimeAndTyEBS_, symObjAddr: 0x196D0, symBinAddr: 0x39580, symSize: 0x1D0 }
  - { offset: 0x6193E, size: 0x8, addend: 0x0, symName: __RINvNtNtCsdGrGZaRBwMb_3syn3gen4fold15fold_type_tupleNtNvCsliPDVd4pfgL_15zerofrom_derive16replace_lifetime15ReplaceLifetimeEBS_, symObjAddr: 0x198A0, symBinAddr: 0x39750, symSize: 0xA0 }
  - { offset: 0x61985, size: 0x8, addend: 0x0, symName: __RINvNtNtCsdGrGZaRBwMb_3syn3gen4fold15fold_type_tupleNtNvCsliPDVd4pfgL_15zerofrom_derive25replace_lifetime_and_type20ReplaceLifetimeAndTyEBS_, symObjAddr: 0x19940, symBinAddr: 0x397F0, symSize: 0xA0 }
  - { offset: 0x619CC, size: 0x8, addend: 0x0, symName: __RINvNtNtCsdGrGZaRBwMb_3syn3gen4fold15fold_use_renameNtNvCsliPDVd4pfgL_15zerofrom_derive16replace_lifetime15ReplaceLifetimeEBS_, symObjAddr: 0x199E0, symBinAddr: 0x39890, symSize: 0x150 }
  - { offset: 0x61A13, size: 0x8, addend: 0x0, symName: __RINvNtNtCsdGrGZaRBwMb_3syn3gen4fold15fold_use_renameNtNvCsliPDVd4pfgL_15zerofrom_derive25replace_lifetime_and_type20ReplaceLifetimeAndTyEBS_, symObjAddr: 0x19B30, symBinAddr: 0x399E0, symSize: 0x150 }
  - { offset: 0x61A5A, size: 0x8, addend: 0x0, symName: __RINvNtNtCsdGrGZaRBwMb_3syn3gen4fold15fold_visibilityNtNvCsliPDVd4pfgL_15zerofrom_derive16replace_lifetime15ReplaceLifetimeEBS_, symObjAddr: 0x19C80, symBinAddr: 0x39B30, symSize: 0xF0 }
  - { offset: 0x61ADE, size: 0x8, addend: 0x0, symName: __RINvNtNtCsdGrGZaRBwMb_3syn3gen4fold15fold_visibilityNtNvCsliPDVd4pfgL_15zerofrom_derive25replace_lifetime_and_type20ReplaceLifetimeAndTyEBS_, symObjAddr: 0x19D70, symBinAddr: 0x39C20, symSize: 0xF0 }
  - { offset: 0x61B62, size: 0x8, addend: 0x0, symName: __RINvNtNtCsdGrGZaRBwMb_3syn3gen4fold16fold_assoc_constNtNvCsliPDVd4pfgL_15zerofrom_derive16replace_lifetime15ReplaceLifetimeEBT_, symObjAddr: 0x19E60, symBinAddr: 0x39D10, symSize: 0x270 }
  - { offset: 0x61BA9, size: 0x8, addend: 0x0, symName: __RINvNtNtCsdGrGZaRBwMb_3syn3gen4fold16fold_assoc_constNtNvCsliPDVd4pfgL_15zerofrom_derive25replace_lifetime_and_type20ReplaceLifetimeAndTyEBT_, symObjAddr: 0x1A0D0, symBinAddr: 0x39F80, symSize: 0x270 }
  - { offset: 0x61BF0, size: 0x8, addend: 0x0, symName: __RINvNtNtCsdGrGZaRBwMb_3syn3gen4fold16fold_bare_fn_argNtNvCsliPDVd4pfgL_15zerofrom_derive16replace_lifetime15ReplaceLifetimeEBT_, symObjAddr: 0x1A340, symBinAddr: 0x3A1F0, symSize: 0x240 }
  - { offset: 0x61C37, size: 0x8, addend: 0x0, symName: __RINvNtNtCsdGrGZaRBwMb_3syn3gen4fold16fold_bare_fn_argNtNvCsliPDVd4pfgL_15zerofrom_derive25replace_lifetime_and_type20ReplaceLifetimeAndTyEBT_, symObjAddr: 0x1A580, symBinAddr: 0x3A430, symSize: 0x240 }
  - { offset: 0x61C7E, size: 0x8, addend: 0x0, symName: __RINvNtNtCsdGrGZaRBwMb_3syn3gen4fold16fold_const_paramNtNvCsliPDVd4pfgL_15zerofrom_derive16replace_lifetime15ReplaceLifetimeEBT_, symObjAddr: 0x1A7C0, symBinAddr: 0x3A670, symSize: 0x320 }
  - { offset: 0x61CC5, size: 0x8, addend: 0x0, symName: __RINvNtNtCsdGrGZaRBwMb_3syn3gen4fold16fold_const_paramNtNvCsliPDVd4pfgL_15zerofrom_derive25replace_lifetime_and_type20ReplaceLifetimeAndTyEBT_, symObjAddr: 0x1AAE0, symBinAddr: 0x3A990, symSize: 0x320 }
  - { offset: 0x61D0C, size: 0x8, addend: 0x0, symName: __RINvNtNtCsdGrGZaRBwMb_3syn3gen4fold16fold_expr_assignNtNvCsliPDVd4pfgL_15zerofrom_derive16replace_lifetime15ReplaceLifetimeEBT_, symObjAddr: 0x1AE00, symBinAddr: 0x3ACB0, symSize: 0x430 }
  - { offset: 0x61D91, size: 0x8, addend: 0x0, symName: __RINvNtNtCsdGrGZaRBwMb_3syn3gen4fold16fold_expr_assignNtNvCsliPDVd4pfgL_15zerofrom_derive25replace_lifetime_and_type20ReplaceLifetimeAndTyEBT_, symObjAddr: 0x1B230, symBinAddr: 0x3B0E0, symSize: 0x430 }
  - { offset: 0x61E16, size: 0x8, addend: 0x0, symName: __RINvNtNtCsdGrGZaRBwMb_3syn3gen4fold16fold_expr_binaryNtNvCsliPDVd4pfgL_15zerofrom_derive16replace_lifetime15ReplaceLifetimeEBT_, symObjAddr: 0x1B660, symBinAddr: 0x3B510, symSize: 0x470 }
  - { offset: 0x61E9B, size: 0x8, addend: 0x0, symName: __RINvNtNtCsdGrGZaRBwMb_3syn3gen4fold16fold_expr_binaryNtNvCsliPDVd4pfgL_15zerofrom_derive25replace_lifetime_and_type20ReplaceLifetimeAndTyEBT_, symObjAddr: 0x1BAD0, symBinAddr: 0x3B980, symSize: 0x470 }
  - { offset: 0x61F20, size: 0x8, addend: 0x0, symName: __RINvNtNtCsdGrGZaRBwMb_3syn3gen4fold16fold_expr_repeatNtNvCsliPDVd4pfgL_15zerofrom_derive16replace_lifetime15ReplaceLifetimeEBT_, symObjAddr: 0x1BF40, symBinAddr: 0x3BDF0, symSize: 0x460 }
  - { offset: 0x61FA5, size: 0x8, addend: 0x0, symName: __RINvNtNtCsdGrGZaRBwMb_3syn3gen4fold16fold_expr_repeatNtNvCsliPDVd4pfgL_15zerofrom_derive25replace_lifetime_and_type20ReplaceLifetimeAndTyEBT_, symObjAddr: 0x1C3A0, symBinAddr: 0x3C250, symSize: 0x460 }
  - { offset: 0x6202A, size: 0x8, addend: 0x0, symName: __RINvNtNtCsdGrGZaRBwMb_3syn3gen4fold16fold_expr_returnNtNvCsliPDVd4pfgL_15zerofrom_derive16replace_lifetime15ReplaceLifetimeEBT_, symObjAddr: 0x1C800, symBinAddr: 0x3C6B0, symSize: 0x100 }
  - { offset: 0x62071, size: 0x8, addend: 0x0, symName: __RINvNtNtCsdGrGZaRBwMb_3syn3gen4fold16fold_expr_returnNtNvCsliPDVd4pfgL_15zerofrom_derive25replace_lifetime_and_type20ReplaceLifetimeAndTyEBT_, symObjAddr: 0x1C900, symBinAddr: 0x3C7B0, symSize: 0x100 }
  - { offset: 0x620B8, size: 0x8, addend: 0x0, symName: __RINvNtNtCsdGrGZaRBwMb_3syn3gen4fold16fold_expr_structNtNvCsliPDVd4pfgL_15zerofrom_derive16replace_lifetime15ReplaceLifetimeEBT_, symObjAddr: 0x1CA00, symBinAddr: 0x3C8B0, symSize: 0x3B0 }
  - { offset: 0x620FF, size: 0x8, addend: 0x0, symName: __RINvNtNtCsdGrGZaRBwMb_3syn3gen4fold16fold_expr_structNtNvCsliPDVd4pfgL_15zerofrom_derive25replace_lifetime_and_type20ReplaceLifetimeAndTyEBT_, symObjAddr: 0x1CDB0, symBinAddr: 0x3CC60, symSize: 0x3B0 }
  - { offset: 0x62146, size: 0x8, addend: 0x0, symName: __RINvNtNtCsdGrGZaRBwMb_3syn3gen4fold16fold_expr_unsafeNtNvCsliPDVd4pfgL_15zerofrom_derive16replace_lifetime15ReplaceLifetimeEBT_, symObjAddr: 0x1D160, symBinAddr: 0x3D010, symSize: 0x170 }
  - { offset: 0x6218D, size: 0x8, addend: 0x0, symName: __RINvNtNtCsdGrGZaRBwMb_3syn3gen4fold16fold_expr_unsafeNtNvCsliPDVd4pfgL_15zerofrom_derive25replace_lifetime_and_type20ReplaceLifetimeAndTyEBT_, symObjAddr: 0x1D2D0, symBinAddr: 0x3D180, symSize: 0x170 }
  - { offset: 0x621D4, size: 0x8, addend: 0x0, symName: __RINvNtNtCsdGrGZaRBwMb_3syn3gen4fold16fold_field_valueNtNvCsliPDVd4pfgL_15zerofrom_derive16replace_lifetime15ReplaceLifetimeEBT_, symObjAddr: 0x1D440, symBinAddr: 0x3D2F0, symSize: 0x240 }
  - { offset: 0x6221B, size: 0x8, addend: 0x0, symName: __RINvNtNtCsdGrGZaRBwMb_3syn3gen4fold16fold_field_valueNtNvCsliPDVd4pfgL_15zerofrom_derive25replace_lifetime_and_type20ReplaceLifetimeAndTyEBT_, symObjAddr: 0x1D680, symBinAddr: 0x3D530, symSize: 0x240 }
  - { offset: 0x62262, size: 0x8, addend: 0x0, symName: __RINvNtNtCsdGrGZaRBwMb_3syn3gen4fold16fold_item_staticNtNvCsliPDVd4pfgL_15zerofrom_derive16replace_lifetime15ReplaceLifetimeEBT_, symObjAddr: 0x1D8C0, symBinAddr: 0x3D770, symSize: 0x620 }
  - { offset: 0x622E7, size: 0x8, addend: 0x0, symName: __RINvNtNtCsdGrGZaRBwMb_3syn3gen4fold16fold_item_staticNtNvCsliPDVd4pfgL_15zerofrom_derive25replace_lifetime_and_type20ReplaceLifetimeAndTyEBT_, symObjAddr: 0x1DEE0, symBinAddr: 0x3DD90, symSize: 0x620 }
  - { offset: 0x6236C, size: 0x8, addend: 0x0, symName: __RINvNtNtCsdGrGZaRBwMb_3syn3gen4fold16fold_item_structNtNvCsliPDVd4pfgL_15zerofrom_derive16replace_lifetime15ReplaceLifetimeEBT_, symObjAddr: 0x1E500, symBinAddr: 0x3E3B0, symSize: 0x3E0 }
  - { offset: 0x623B3, size: 0x8, addend: 0x0, symName: __RINvNtNtCsdGrGZaRBwMb_3syn3gen4fold16fold_item_structNtNvCsliPDVd4pfgL_15zerofrom_derive25replace_lifetime_and_type20ReplaceLifetimeAndTyEBT_, symObjAddr: 0x1E8E0, symBinAddr: 0x3E790, symSize: 0x3E0 }
  - { offset: 0x623FA, size: 0x8, addend: 0x0, symName: __RINvNtNtCsdGrGZaRBwMb_3syn3gen4fold16fold_return_typeNtNvCsliPDVd4pfgL_15zerofrom_derive16replace_lifetime15ReplaceLifetimeEBT_, symObjAddr: 0x1ECC0, symBinAddr: 0x3EB70, symSize: 0x200 }
  - { offset: 0x62488, size: 0x8, addend: 0x0, symName: __RINvNtNtCsdGrGZaRBwMb_3syn3gen4fold16fold_return_typeNtNvCsliPDVd4pfgL_15zerofrom_derive25replace_lifetime_and_type20ReplaceLifetimeAndTyEBT_, symObjAddr: 0x1EEC0, symBinAddr: 0x3ED70, symSize: 0x200 }
  - { offset: 0x62516, size: 0x8, addend: 0x0, symName: __RINvNtNtCsdGrGZaRBwMb_3syn3gen4fold16fold_trait_boundNtNvCsliPDVd4pfgL_15zerofrom_derive16replace_lifetime15ReplaceLifetimeEBT_, symObjAddr: 0x1F0C0, symBinAddr: 0x3EF70, symSize: 0x240 }
  - { offset: 0x6255D, size: 0x8, addend: 0x0, symName: __RINvNtNtCsdGrGZaRBwMb_3syn3gen4fold16fold_trait_boundNtNvCsliPDVd4pfgL_15zerofrom_derive25replace_lifetime_and_type20ReplaceLifetimeAndTyEBT_, symObjAddr: 0x1F300, symBinAddr: 0x3F1B0, symSize: 0x240 }
  - { offset: 0x625A4, size: 0x8, addend: 0x0, symName: __RINvNtNtCsdGrGZaRBwMb_3syn3gen4fold17fold_expr_closureNtNvCsliPDVd4pfgL_15zerofrom_derive16replace_lifetime15ReplaceLifetimeEBU_, symObjAddr: 0x1F540, symBinAddr: 0x3F3F0, symSize: 0x570 }
  - { offset: 0x6260A, size: 0x8, addend: 0x0, symName: __RINvNtNtCsdGrGZaRBwMb_3syn3gen4fold17fold_expr_closureNtNvCsliPDVd4pfgL_15zerofrom_derive25replace_lifetime_and_type20ReplaceLifetimeAndTyEBU_, symObjAddr: 0x1FAB0, symBinAddr: 0x3F960, symSize: 0x570 }
  - { offset: 0x62670, size: 0x8, addend: 0x0, symName: __RINvNtNtCsdGrGZaRBwMb_3syn3gen4fold17fold_fields_namedNtNvCsliPDVd4pfgL_15zerofrom_derive16replace_lifetime15ReplaceLifetimeEBU_, symObjAddr: 0x20020, symBinAddr: 0x3FED0, symSize: 0xA0 }
  - { offset: 0x626B7, size: 0x8, addend: 0x0, symName: __RINvNtNtCsdGrGZaRBwMb_3syn3gen4fold17fold_fields_namedNtNvCsliPDVd4pfgL_15zerofrom_derive25replace_lifetime_and_type20ReplaceLifetimeAndTyEBU_, symObjAddr: 0x200C0, symBinAddr: 0x3FF70, symSize: 0xA0 }
  - { offset: 0x626FE, size: 0x8, addend: 0x0, symName: __RINvNtNtCsdGrGZaRBwMb_3syn3gen4fold17fold_foreign_itemNtNvCsliPDVd4pfgL_15zerofrom_derive16replace_lifetime15ReplaceLifetimeEBU_, symObjAddr: 0x20160, symBinAddr: 0x40010, symSize: 0x290 }
  - { offset: 0x627D8, size: 0x8, addend: 0x0, symName: __RINvNtNtCsdGrGZaRBwMb_3syn3gen4fold17fold_foreign_itemNtNvCsliPDVd4pfgL_15zerofrom_derive25replace_lifetime_and_type20ReplaceLifetimeAndTyEBU_, symObjAddr: 0x203F0, symBinAddr: 0x402A0, symSize: 0x290 }
  - { offset: 0x628B2, size: 0x8, addend: 0x0, symName: __RINvNtNtCsdGrGZaRBwMb_3syn3gen4fold17fold_impl_item_fnNtNvCsliPDVd4pfgL_15zerofrom_derive16replace_lifetime15ReplaceLifetimeEBU_, symObjAddr: 0x20680, symBinAddr: 0x40530, symSize: 0x330 }
  - { offset: 0x628F9, size: 0x8, addend: 0x0, symName: __RINvNtNtCsdGrGZaRBwMb_3syn3gen4fold17fold_impl_item_fnNtNvCsliPDVd4pfgL_15zerofrom_derive25replace_lifetime_and_type20ReplaceLifetimeAndTyEBU_, symObjAddr: 0x209B0, symBinAddr: 0x40860, symSize: 0x330 }
  - { offset: 0x62940, size: 0x8, addend: 0x0, symName: __RINvNtNtCsdGrGZaRBwMb_3syn3gen4fold17fold_lit_byte_strNtNvCsliPDVd4pfgL_15zerofrom_derive16replace_lifetime15ReplaceLifetimeEBU_, symObjAddr: 0x20CE0, symBinAddr: 0x40B90, symSize: 0xC0 }
  - { offset: 0x629BA, size: 0x8, addend: 0x0, symName: __RINvNtNtCsdGrGZaRBwMb_3syn3gen4fold17fold_lit_byte_strNtNvCsliPDVd4pfgL_15zerofrom_derive25replace_lifetime_and_type20ReplaceLifetimeAndTyEBU_, symObjAddr: 0x20DA0, symBinAddr: 0x40C50, symSize: 0xC0 }
  - { offset: 0x62A34, size: 0x8, addend: 0x0, symName: __RINvNtNtCsdGrGZaRBwMb_3syn3gen4fold17fold_path_segmentNtNvCsliPDVd4pfgL_15zerofrom_derive16replace_lifetime15ReplaceLifetimeEBU_, symObjAddr: 0x20E60, symBinAddr: 0x40D10, symSize: 0x180 }
  - { offset: 0x62A7B, size: 0x8, addend: 0x0, symName: __RINvNtNtCsdGrGZaRBwMb_3syn3gen4fold17fold_path_segmentNtNvCsliPDVd4pfgL_15zerofrom_derive25replace_lifetime_and_type20ReplaceLifetimeAndTyEBU_, symObjAddr: 0x20FE0, symBinAddr: 0x40E90, symSize: 0x180 }
  - { offset: 0x62AC2, size: 0x8, addend: 0x0, symName: __RINvNtNtCsdGrGZaRBwMb_3syn3gen4fold17fold_range_limitsNtNvCsliPDVd4pfgL_15zerofrom_derive16replace_lifetime15ReplaceLifetimeEBU_, symObjAddr: 0x21160, symBinAddr: 0x41010, symSize: 0x80 }
  - { offset: 0x62B45, size: 0x8, addend: 0x0, symName: __RINvNtNtCsdGrGZaRBwMb_3syn3gen4fold17fold_range_limitsNtNvCsliPDVd4pfgL_15zerofrom_derive25replace_lifetime_and_type20ReplaceLifetimeAndTyEBU_, symObjAddr: 0x211E0, symBinAddr: 0x41090, symSize: 0x80 }
  - { offset: 0x62BC8, size: 0x8, addend: 0x0, symName: __RINvNtNtCsdGrGZaRBwMb_3syn3gen4fold17fold_type_bare_fnNtNvCsliPDVd4pfgL_15zerofrom_derive16replace_lifetime15ReplaceLifetimeEBU_, symObjAddr: 0x21260, symBinAddr: 0x41110, symSize: 0x3F0 }
  - { offset: 0x62C0F, size: 0x8, addend: 0x0, symName: __RINvNtNtCsdGrGZaRBwMb_3syn3gen4fold17fold_type_bare_fnNtNvCsliPDVd4pfgL_15zerofrom_derive25replace_lifetime_and_type20ReplaceLifetimeAndTyEBU_, symObjAddr: 0x21650, symBinAddr: 0x41500, symSize: 0x3F0 }
  - { offset: 0x62C56, size: 0x8, addend: 0x0, symName: __RINvNtNtCsdGrGZaRBwMb_3syn3gen4fold17fold_where_clauseNtNvCsliPDVd4pfgL_15zerofrom_derive16replace_lifetime15ReplaceLifetimeEBU_, symObjAddr: 0x21A40, symBinAddr: 0x418F0, symSize: 0x90 }
  - { offset: 0x62C9D, size: 0x8, addend: 0x0, symName: __RINvNtNtCsdGrGZaRBwMb_3syn3gen4fold17fold_where_clauseNtNvCsliPDVd4pfgL_15zerofrom_derive25replace_lifetime_and_type20ReplaceLifetimeAndTyEBU_, symObjAddr: 0x21AD0, symBinAddr: 0x41980, symSize: 0x90 }
  - { offset: 0x62CE4, size: 0x8, addend: 0x0, symName: __RINvNtNtCsdGrGZaRBwMb_3syn3gen4fold18fold_bare_variadicNtNvCsliPDVd4pfgL_15zerofrom_derive16replace_lifetime15ReplaceLifetimeEBV_, symObjAddr: 0x21B60, symBinAddr: 0x41A10, symSize: 0x190 }
  - { offset: 0x62D2B, size: 0x8, addend: 0x0, symName: __RINvNtNtCsdGrGZaRBwMb_3syn3gen4fold18fold_bare_variadicNtNvCsliPDVd4pfgL_15zerofrom_derive25replace_lifetime_and_type20ReplaceLifetimeAndTyEBV_, symObjAddr: 0x21CF0, symBinAddr: 0x41BA0, symSize: 0x190 }
  - { offset: 0x62D72, size: 0x8, addend: 0x0, symName: __RINvNtNtCsdGrGZaRBwMb_3syn3gen4fold18fold_expr_continueNtNvCsliPDVd4pfgL_15zerofrom_derive16replace_lifetime15ReplaceLifetimeEBV_, symObjAddr: 0x21E80, symBinAddr: 0x41D30, symSize: 0x170 }
  - { offset: 0x62DB9, size: 0x8, addend: 0x0, symName: __RINvNtNtCsdGrGZaRBwMb_3syn3gen4fold18fold_expr_continueNtNvCsliPDVd4pfgL_15zerofrom_derive25replace_lifetime_and_type20ReplaceLifetimeAndTyEBV_, symObjAddr: 0x21FF0, symBinAddr: 0x41EA0, symSize: 0x170 }
  - { offset: 0x62E00, size: 0x8, addend: 0x0, symName: __RINvNtNtCsdGrGZaRBwMb_3syn3gen4fold18fold_expr_for_loopNtNvCsliPDVd4pfgL_15zerofrom_derive16replace_lifetime15ReplaceLifetimeEBV_, symObjAddr: 0x22160, symBinAddr: 0x42010, symSize: 0x5F0 }
  - { offset: 0x62E85, size: 0x8, addend: 0x0, symName: __RINvNtNtCsdGrGZaRBwMb_3syn3gen4fold18fold_expr_for_loopNtNvCsliPDVd4pfgL_15zerofrom_derive25replace_lifetime_and_type20ReplaceLifetimeAndTyEBV_, symObjAddr: 0x22750, symBinAddr: 0x42600, symSize: 0x5F0 }
  - { offset: 0x62F0A, size: 0x8, addend: 0x0, symName: __RINvNtNtCsdGrGZaRBwMb_3syn3gen4fold18fold_expr_raw_addrNtNvCsliPDVd4pfgL_15zerofrom_derive16replace_lifetime15ReplaceLifetimeEBV_, symObjAddr: 0x22D40, symBinAddr: 0x42BF0, symSize: 0x2C0 }
  - { offset: 0x62F70, size: 0x8, addend: 0x0, symName: __RINvNtNtCsdGrGZaRBwMb_3syn3gen4fold18fold_expr_raw_addrNtNvCsliPDVd4pfgL_15zerofrom_derive25replace_lifetime_and_type20ReplaceLifetimeAndTyEBV_, symObjAddr: 0x23000, symBinAddr: 0x42EB0, symSize: 0x2C0 }
  - { offset: 0x62FD6, size: 0x8, addend: 0x0, symName: __RINvNtNtCsdGrGZaRBwMb_3syn3gen4fold18fold_generic_paramNtNvCsliPDVd4pfgL_15zerofrom_derive16replace_lifetime15ReplaceLifetimeEBV_, symObjAddr: 0x232C0, symBinAddr: 0x43170, symSize: 0x1A0 }
  - { offset: 0x63072, size: 0x8, addend: 0x0, symName: __RINvNtNtCsdGrGZaRBwMb_3syn3gen4fold18fold_generic_paramNtNvCsliPDVd4pfgL_15zerofrom_derive25replace_lifetime_and_type20ReplaceLifetimeAndTyEBV_, symObjAddr: 0x23460, symBinAddr: 0x43310, symSize: 0x1A0 }
  - { offset: 0x6310E, size: 0x8, addend: 0x0, symName: __RINvNtNtCsdGrGZaRBwMb_3syn3gen4fold18fold_pat_referenceNtNvCsliPDVd4pfgL_15zerofrom_derive16replace_lifetime15ReplaceLifetimeEBV_, symObjAddr: 0x23600, symBinAddr: 0x434B0, symSize: 0x290 }
  - { offset: 0x63174, size: 0x8, addend: 0x0, symName: __RINvNtNtCsdGrGZaRBwMb_3syn3gen4fold18fold_pat_referenceNtNvCsliPDVd4pfgL_15zerofrom_derive25replace_lifetime_and_type20ReplaceLifetimeAndTyEBV_, symObjAddr: 0x23890, symBinAddr: 0x43740, symSize: 0x290 }
  - { offset: 0x631DA, size: 0x8, addend: 0x0, symName: __RINvNtNtCsdGrGZaRBwMb_3syn3gen4fold18fold_trait_item_fnNtNvCsliPDVd4pfgL_15zerofrom_derive16replace_lifetime15ReplaceLifetimeEBV_, symObjAddr: 0x23B20, symBinAddr: 0x439D0, symSize: 0x240 }
  - { offset: 0x63221, size: 0x8, addend: 0x0, symName: __RINvNtNtCsdGrGZaRBwMb_3syn3gen4fold18fold_trait_item_fnNtNvCsliPDVd4pfgL_15zerofrom_derive25replace_lifetime_and_type20ReplaceLifetimeAndTyEBV_, symObjAddr: 0x23D60, symBinAddr: 0x43C10, symSize: 0x240 }
  - { offset: 0x63268, size: 0x8, addend: 0x0, symName: __RINvNtNtCsdGrGZaRBwMb_3syn3gen4fold19fold_captured_paramNtNvCsliPDVd4pfgL_15zerofrom_derive16replace_lifetime15ReplaceLifetimeEBW_, symObjAddr: 0x23FA0, symBinAddr: 0x43E50, symSize: 0x120 }
  - { offset: 0x632E4, size: 0x8, addend: 0x0, symName: __RINvNtNtCsdGrGZaRBwMb_3syn3gen4fold19fold_captured_paramNtNvCsliPDVd4pfgL_15zerofrom_derive25replace_lifetime_and_type20ReplaceLifetimeAndTyEBW_, symObjAddr: 0x240C0, symBinAddr: 0x43F70, symSize: 0x120 }
  - { offset: 0x63360, size: 0x8, addend: 0x0, symName: __RINvNtNtCsdGrGZaRBwMb_3syn3gen4fold19fold_expr_referenceNtNvCsliPDVd4pfgL_15zerofrom_derive16replace_lifetime15ReplaceLifetimeEBW_, symObjAddr: 0x241E0, symBinAddr: 0x44090, symSize: 0x290 }
  - { offset: 0x633C6, size: 0x8, addend: 0x0, symName: __RINvNtNtCsdGrGZaRBwMb_3syn3gen4fold19fold_expr_referenceNtNvCsliPDVd4pfgL_15zerofrom_derive25replace_lifetime_and_type20ReplaceLifetimeAndTyEBW_, symObjAddr: 0x24470, symBinAddr: 0x44320, symSize: 0x290 }
  - { offset: 0x6342C, size: 0x8, addend: 0x0, symName: __RINvNtNtCsdGrGZaRBwMb_3syn3gen4fold19fold_expr_try_blockNtNvCsliPDVd4pfgL_15zerofrom_derive16replace_lifetime15ReplaceLifetimeEBW_, symObjAddr: 0x24700, symBinAddr: 0x445B0, symSize: 0x170 }
  - { offset: 0x63473, size: 0x8, addend: 0x0, symName: __RINvNtNtCsdGrGZaRBwMb_3syn3gen4fold19fold_expr_try_blockNtNvCsliPDVd4pfgL_15zerofrom_derive25replace_lifetime_and_type20ReplaceLifetimeAndTyEBW_, symObjAddr: 0x24870, symBinAddr: 0x44720, symSize: 0x170 }
  - { offset: 0x634BA, size: 0x8, addend: 0x0, symName: __RINvNtNtCsdGrGZaRBwMb_3syn3gen4fold19fold_fields_unnamedNtNvCsliPDVd4pfgL_15zerofrom_derive16replace_lifetime15ReplaceLifetimeEBW_, symObjAddr: 0x249E0, symBinAddr: 0x44890, symSize: 0xA0 }
  - { offset: 0x63501, size: 0x8, addend: 0x0, symName: __RINvNtNtCsdGrGZaRBwMb_3syn3gen4fold19fold_fields_unnamedNtNvCsliPDVd4pfgL_15zerofrom_derive25replace_lifetime_and_type20ReplaceLifetimeAndTyEBW_, symObjAddr: 0x24A80, symBinAddr: 0x44930, symSize: 0xA0 }
  - { offset: 0x63548, size: 0x8, addend: 0x0, symName: __RINvNtNtCsdGrGZaRBwMb_3syn3gen4fold19fold_impl_item_typeNtNvCsliPDVd4pfgL_15zerofrom_derive16replace_lifetime15ReplaceLifetimeEBW_, symObjAddr: 0x24B20, symBinAddr: 0x449D0, symSize: 0x420 }
  - { offset: 0x6358F, size: 0x8, addend: 0x0, symName: __RINvNtNtCsdGrGZaRBwMb_3syn3gen4fold19fold_impl_item_typeNtNvCsliPDVd4pfgL_15zerofrom_derive25replace_lifetime_and_type20ReplaceLifetimeAndTyEBW_, symObjAddr: 0x24F40, symBinAddr: 0x44DF0, symSize: 0x420 }
  - { offset: 0x635D6, size: 0x8, addend: 0x0, symName: __RINvNtNtCsdGrGZaRBwMb_3syn3gen4fold19fold_lifetime_paramNtNvCsliPDVd4pfgL_15zerofrom_derive16replace_lifetime15ReplaceLifetimeEBW_, symObjAddr: 0x25360, symBinAddr: 0x45210, symSize: 0x230 }
  - { offset: 0x6361D, size: 0x8, addend: 0x0, symName: __RINvNtNtCsdGrGZaRBwMb_3syn3gen4fold19fold_lifetime_paramNtNvCsliPDVd4pfgL_15zerofrom_derive25replace_lifetime_and_type20ReplaceLifetimeAndTyEBW_, symObjAddr: 0x25590, symBinAddr: 0x45440, symSize: 0x230 }
  - { offset: 0x63664, size: 0x8, addend: 0x0, symName: __RINvNtNtCsdGrGZaRBwMb_3syn3gen4fold19fold_path_argumentsNtNvCsliPDVd4pfgL_15zerofrom_derive16replace_lifetime15ReplaceLifetimeEBW_, symObjAddr: 0x257C0, symBinAddr: 0x45670, symSize: 0x160 }
  - { offset: 0x636E1, size: 0x8, addend: 0x0, symName: __RINvNtNtCsdGrGZaRBwMb_3syn3gen4fold19fold_path_argumentsNtNvCsliPDVd4pfgL_15zerofrom_derive25replace_lifetime_and_type20ReplaceLifetimeAndTyEBW_, symObjAddr: 0x25920, symBinAddr: 0x457D0, symSize: 0x160 }
  - { offset: 0x6375E, size: 0x8, addend: 0x0, symName: __RINvNtNtCsdGrGZaRBwMb_3syn3gen4fold19fold_predicate_typeNtNvCsliPDVd4pfgL_15zerofrom_derive16replace_lifetime15ReplaceLifetimeEBW_, symObjAddr: 0x25A80, symBinAddr: 0x45930, symSize: 0x260 }
  - { offset: 0x637A5, size: 0x8, addend: 0x0, symName: __RINvNtNtCsdGrGZaRBwMb_3syn3gen4fold19fold_predicate_typeNtNvCsliPDVd4pfgL_15zerofrom_derive25replace_lifetime_and_type20ReplaceLifetimeAndTyEBW_, symObjAddr: 0x25CE0, symBinAddr: 0x45B90, symSize: 0x260 }
  - { offset: 0x637EC, size: 0x8, addend: 0x0, symName: __RINvNtNtCsdGrGZaRBwMb_3syn3gen4fold19fold_type_referenceNtNvCsliPDVd4pfgL_15zerofrom_derive16replace_lifetime15ReplaceLifetimeEBW_, symObjAddr: 0x25F40, symBinAddr: 0x45DF0, symSize: 0x2B0 }
  - { offset: 0x63852, size: 0x8, addend: 0x0, symName: __RINvNtNtCsdGrGZaRBwMb_3syn3gen4fold19fold_type_referenceNtNvCsliPDVd4pfgL_15zerofrom_derive25replace_lifetime_and_type20ReplaceLifetimeAndTyEBW_, symObjAddr: 0x261F0, symBinAddr: 0x460A0, symSize: 0x2B0 }
  - { offset: 0x638B8, size: 0x8, addend: 0x0, symName: __RINvNtNtCsdGrGZaRBwMb_3syn3gen4fold19fold_vis_restrictedNtNvCsliPDVd4pfgL_15zerofrom_derive16replace_lifetime15ReplaceLifetimeEBW_, symObjAddr: 0x264A0, symBinAddr: 0x46350, symSize: 0x220 }
  - { offset: 0x6391E, size: 0x8, addend: 0x0, symName: __RINvNtNtCsdGrGZaRBwMb_3syn3gen4fold19fold_vis_restrictedNtNvCsliPDVd4pfgL_15zerofrom_derive25replace_lifetime_and_type20ReplaceLifetimeAndTyEBW_, symObjAddr: 0x266C0, symBinAddr: 0x46570, symSize: 0x220 }
  - { offset: 0x63984, size: 0x8, addend: 0x0, symName: __RINvNtNtCsdGrGZaRBwMb_3syn3gen4fold20fold_bound_lifetimesNtNvCsliPDVd4pfgL_15zerofrom_derive16replace_lifetime15ReplaceLifetimeEBX_, symObjAddr: 0x268E0, symBinAddr: 0x46790, symSize: 0xB0 }
  - { offset: 0x639CC, size: 0x8, addend: 0x0, symName: __RINvNtNtCsdGrGZaRBwMb_3syn3gen4fold20fold_bound_lifetimesNtNvCsliPDVd4pfgL_15zerofrom_derive25replace_lifetime_and_type20ReplaceLifetimeAndTyEBX_, symObjAddr: 0x26990, symBinAddr: 0x46840, symSize: 0xB0 }
  - { offset: 0x63A14, size: 0x8, addend: 0x0, symName: __RINvNtNtCsdGrGZaRBwMb_3syn3gen4fold20fold_foreign_item_fnNtNvCsliPDVd4pfgL_15zerofrom_derive16replace_lifetime15ReplaceLifetimeEBX_, symObjAddr: 0x26A40, symBinAddr: 0x468F0, symSize: 0x260 }
  - { offset: 0x63A5B, size: 0x8, addend: 0x0, symName: __RINvNtNtCsdGrGZaRBwMb_3syn3gen4fold20fold_foreign_item_fnNtNvCsliPDVd4pfgL_15zerofrom_derive25replace_lifetime_and_type20ReplaceLifetimeAndTyEBX_, symObjAddr: 0x26CA0, symBinAddr: 0x46B50, symSize: 0x260 }
  - { offset: 0x63AA2, size: 0x8, addend: 0x0, symName: __RINvNtNtCsdGrGZaRBwMb_3syn3gen4fold20fold_impl_item_constNtNvCsliPDVd4pfgL_15zerofrom_derive16replace_lifetime15ReplaceLifetimeEBX_, symObjAddr: 0x26F00, symBinAddr: 0x46DB0, symSize: 0x4E0 }
  - { offset: 0x63AE9, size: 0x8, addend: 0x0, symName: __RINvNtNtCsdGrGZaRBwMb_3syn3gen4fold20fold_impl_item_constNtNvCsliPDVd4pfgL_15zerofrom_derive25replace_lifetime_and_type20ReplaceLifetimeAndTyEBX_, symObjAddr: 0x273E0, symBinAddr: 0x47290, symSize: 0x4E0 }
  - { offset: 0x63B30, size: 0x8, addend: 0x0, symName: __RINvNtNtCsdGrGZaRBwMb_3syn3gen4fold20fold_impl_item_macroNtNvCsliPDVd4pfgL_15zerofrom_derive16replace_lifetime15ReplaceLifetimeEBX_, symObjAddr: 0x278C0, symBinAddr: 0x47770, symSize: 0x170 }
  - { offset: 0x63B77, size: 0x8, addend: 0x0, symName: __RINvNtNtCsdGrGZaRBwMb_3syn3gen4fold20fold_impl_item_macroNtNvCsliPDVd4pfgL_15zerofrom_derive25replace_lifetime_and_type20ReplaceLifetimeAndTyEBX_, symObjAddr: 0x27A30, symBinAddr: 0x478E0, symSize: 0x170 }
  - { offset: 0x63BBE, size: 0x8, addend: 0x0, symName: __RINvNtNtCsdGrGZaRBwMb_3syn3gen4fold20fold_macro_delimiterNtNvCsliPDVd4pfgL_15zerofrom_derive16replace_lifetime15ReplaceLifetimeEBX_, symObjAddr: 0x27BA0, symBinAddr: 0x47A50, symSize: 0xE0 }
  - { offset: 0x63C5F, size: 0x8, addend: 0x0, symName: __RINvNtNtCsdGrGZaRBwMb_3syn3gen4fold20fold_macro_delimiterNtNvCsliPDVd4pfgL_15zerofrom_derive25replace_lifetime_and_type20ReplaceLifetimeAndTyEBX_, symObjAddr: 0x27C80, symBinAddr: 0x47B30, symSize: 0xE0 }
  - { offset: 0x63D00, size: 0x8, addend: 0x0, symName: __RINvNtNtCsdGrGZaRBwMb_3syn3gen4fold20fold_meta_name_valueNtNvCsliPDVd4pfgL_15zerofrom_derive16replace_lifetime15ReplaceLifetimeEBX_, symObjAddr: 0x27D60, symBinAddr: 0x47C10, symSize: 0x1A0 }
  - { offset: 0x63D47, size: 0x8, addend: 0x0, symName: __RINvNtNtCsdGrGZaRBwMb_3syn3gen4fold20fold_meta_name_valueNtNvCsliPDVd4pfgL_15zerofrom_derive25replace_lifetime_and_type20ReplaceLifetimeAndTyEBX_, symObjAddr: 0x27F00, symBinAddr: 0x47DB0, symSize: 0x1A0 }
  - { offset: 0x63D8E, size: 0x8, addend: 0x0, symName: __RINvNtNtCsdGrGZaRBwMb_3syn3gen4fold20fold_precise_captureNtNvCsliPDVd4pfgL_15zerofrom_derive16replace_lifetime15ReplaceLifetimeEBX_, symObjAddr: 0x280A0, symBinAddr: 0x47F50, symSize: 0xB0 }
  - { offset: 0x63DD6, size: 0x8, addend: 0x0, symName: __RINvNtNtCsdGrGZaRBwMb_3syn3gen4fold20fold_precise_captureNtNvCsliPDVd4pfgL_15zerofrom_derive25replace_lifetime_and_type20ReplaceLifetimeAndTyEBX_, symObjAddr: 0x28150, symBinAddr: 0x48000, symSize: 0xB0 }
  - { offset: 0x63E1E, size: 0x8, addend: 0x0, symName: __RINvNtNtCsdGrGZaRBwMb_3syn3gen4fold20fold_trait_item_typeNtNvCsliPDVd4pfgL_15zerofrom_derive16replace_lifetime15ReplaceLifetimeEBX_, symObjAddr: 0x28200, symBinAddr: 0x480B0, symSize: 0x3F0 }
  - { offset: 0x63E65, size: 0x8, addend: 0x0, symName: __RINvNtNtCsdGrGZaRBwMb_3syn3gen4fold20fold_trait_item_typeNtNvCsliPDVd4pfgL_15zerofrom_derive25replace_lifetime_and_type20ReplaceLifetimeAndTyEBX_, symObjAddr: 0x285F0, symBinAddr: 0x484A0, symSize: 0x3F0 }
  - { offset: 0x63EAC, size: 0x8, addend: 0x0, symName: __RINvNtNtCsdGrGZaRBwMb_3syn3gen4fold20fold_type_impl_traitNtNvCsliPDVd4pfgL_15zerofrom_derive16replace_lifetime15ReplaceLifetimeEBX_, symObjAddr: 0x289E0, symBinAddr: 0x48890, symSize: 0x90 }
  - { offset: 0x63EF3, size: 0x8, addend: 0x0, symName: __RINvNtNtCsdGrGZaRBwMb_3syn3gen4fold20fold_type_impl_traitNtNvCsliPDVd4pfgL_15zerofrom_derive25replace_lifetime_and_type20ReplaceLifetimeAndTyEBX_, symObjAddr: 0x28A70, symBinAddr: 0x48920, symSize: 0x90 }
  - { offset: 0x63F3A, size: 0x8, addend: 0x0, symName: __RINvNtNtCsdGrGZaRBwMb_3syn3gen4fold20fold_where_predicateNtNvCsliPDVd4pfgL_15zerofrom_derive16replace_lifetime15ReplaceLifetimeEBX_, symObjAddr: 0x28B00, symBinAddr: 0x489B0, symSize: 0x110 }
  - { offset: 0x63FB7, size: 0x8, addend: 0x0, symName: __RINvNtNtCsdGrGZaRBwMb_3syn3gen4fold20fold_where_predicateNtNvCsliPDVd4pfgL_15zerofrom_derive25replace_lifetime_and_type20ReplaceLifetimeAndTyEBX_, symObjAddr: 0x28C10, symBinAddr: 0x48AC0, symSize: 0x110 }
  - { offset: 0x64034, size: 0x8, addend: 0x0, symName: __RINvNtNtCsdGrGZaRBwMb_3syn3gen4fold21fold_expr_method_callNtNvCsliPDVd4pfgL_15zerofrom_derive16replace_lifetime15ReplaceLifetimeEBY_, symObjAddr: 0x28D20, symBinAddr: 0x48BD0, symSize: 0x4E0 }
  - { offset: 0x6409A, size: 0x8, addend: 0x0, symName: __RINvNtNtCsdGrGZaRBwMb_3syn3gen4fold21fold_expr_method_callNtNvCsliPDVd4pfgL_15zerofrom_derive25replace_lifetime_and_type20ReplaceLifetimeAndTyEBY_, symObjAddr: 0x29200, symBinAddr: 0x490B0, symSize: 0x4E0 }
  - { offset: 0x64100, size: 0x8, addend: 0x0, symName: __RINvNtNtCsdGrGZaRBwMb_3syn3gen4fold21fold_field_mutabilityNtNvCsliPDVd4pfgL_15zerofrom_derive16replace_lifetime15ReplaceLifetimeEBY_, symObjAddr: 0x296E0, symBinAddr: 0x49590, symSize: 0x20 }
  - { offset: 0x6414E, size: 0x8, addend: 0x0, symName: __RINvNtNtCsdGrGZaRBwMb_3syn3gen4fold21fold_field_mutabilityNtNvCsliPDVd4pfgL_15zerofrom_derive25replace_lifetime_and_type20ReplaceLifetimeAndTyEBY_, symObjAddr: 0x29700, symBinAddr: 0x495B0, symSize: 0x20 }
  - { offset: 0x6419C, size: 0x8, addend: 0x0, symName: __RINvNtNtCsdGrGZaRBwMb_3syn3gen4fold21fold_generic_argumentNtNvCsliPDVd4pfgL_15zerofrom_derive16replace_lifetime15ReplaceLifetimeEBY_, symObjAddr: 0x29720, symBinAddr: 0x495D0, symSize: 0x320 }
  - { offset: 0x64295, size: 0x8, addend: 0x0, symName: __RINvNtNtCsdGrGZaRBwMb_3syn3gen4fold21fold_generic_argumentNtNvCsliPDVd4pfgL_15zerofrom_derive25replace_lifetime_and_type20ReplaceLifetimeAndTyEBY_, symObjAddr: 0x29A40, symBinAddr: 0x498F0, symSize: 0x320 }
  - { offset: 0x6438E, size: 0x8, addend: 0x0, symName: __RINvNtNtCsdGrGZaRBwMb_3syn3gen4fold21fold_item_foreign_modNtNvCsliPDVd4pfgL_15zerofrom_derive16replace_lifetime15ReplaceLifetimeEBY_, symObjAddr: 0x29D80, symBinAddr: 0x49C10, symSize: 0x220 }
  - { offset: 0x643D5, size: 0x8, addend: 0x0, symName: __RINvNtNtCsdGrGZaRBwMb_3syn3gen4fold21fold_item_foreign_modNtNvCsliPDVd4pfgL_15zerofrom_derive25replace_lifetime_and_type20ReplaceLifetimeAndTyEBY_, symObjAddr: 0x29FA0, symBinAddr: 0x49E30, symSize: 0x220 }
  - { offset: 0x6441C, size: 0x8, addend: 0x0, symName: __RINvNtNtCsdGrGZaRBwMb_3syn3gen4fold21fold_item_trait_aliasNtNvCsliPDVd4pfgL_15zerofrom_derive16replace_lifetime15ReplaceLifetimeEBY_, symObjAddr: 0x2A1C0, symBinAddr: 0x4A050, symSize: 0x3E0 }
  - { offset: 0x64463, size: 0x8, addend: 0x0, symName: __RINvNtNtCsdGrGZaRBwMb_3syn3gen4fold21fold_item_trait_aliasNtNvCsliPDVd4pfgL_15zerofrom_derive25replace_lifetime_and_type20ReplaceLifetimeAndTyEBY_, symObjAddr: 0x2A5A0, symBinAddr: 0x4A430, symSize: 0x3E0 }
  - { offset: 0x644AA, size: 0x8, addend: 0x0, symName: __RINvNtNtCsdGrGZaRBwMb_3syn3gen4fold21fold_pat_tuple_structNtNvCsliPDVd4pfgL_15zerofrom_derive16replace_lifetime15ReplaceLifetimeEBY_, symObjAddr: 0x2A980, symBinAddr: 0x4A810, symSize: 0x320 }
  - { offset: 0x644F1, size: 0x8, addend: 0x0, symName: __RINvNtNtCsdGrGZaRBwMb_3syn3gen4fold21fold_pat_tuple_structNtNvCsliPDVd4pfgL_15zerofrom_derive25replace_lifetime_and_type20ReplaceLifetimeAndTyEBY_, symObjAddr: 0x2ACA0, symBinAddr: 0x4AB30, symSize: 0x320 }
  - { offset: 0x64538, size: 0x8, addend: 0x0, symName: __RINvNtNtCsdGrGZaRBwMb_3syn3gen4fold21fold_trait_item_constNtNvCsliPDVd4pfgL_15zerofrom_derive16replace_lifetime15ReplaceLifetimeEBY_, symObjAddr: 0x2AFC0, symBinAddr: 0x4AE50, symSize: 0x3B0 }
  - { offset: 0x6457F, size: 0x8, addend: 0x0, symName: __RINvNtNtCsdGrGZaRBwMb_3syn3gen4fold21fold_trait_item_constNtNvCsliPDVd4pfgL_15zerofrom_derive25replace_lifetime_and_type20ReplaceLifetimeAndTyEBY_, symObjAddr: 0x2B370, symBinAddr: 0x4B200, symSize: 0x3B0 }
  - { offset: 0x645C6, size: 0x8, addend: 0x0, symName: __RINvNtNtCsdGrGZaRBwMb_3syn3gen4fold21fold_trait_item_macroNtNvCsliPDVd4pfgL_15zerofrom_derive16replace_lifetime15ReplaceLifetimeEBY_, symObjAddr: 0x2B720, symBinAddr: 0x4B5B0, symSize: 0x170 }
  - { offset: 0x6460D, size: 0x8, addend: 0x0, symName: __RINvNtNtCsdGrGZaRBwMb_3syn3gen4fold21fold_trait_item_macroNtNvCsliPDVd4pfgL_15zerofrom_derive25replace_lifetime_and_type20ReplaceLifetimeAndTyEBY_, symObjAddr: 0x2B890, symBinAddr: 0x4B720, symSize: 0x170 }
  - { offset: 0x64654, size: 0x8, addend: 0x0, symName: __RINvNtNtCsdGrGZaRBwMb_3syn3gen4fold21fold_type_param_boundNtNvCsliPDVd4pfgL_15zerofrom_derive16replace_lifetime15ReplaceLifetimeEBY_, symObjAddr: 0x2BA00, symBinAddr: 0x4B890, symSize: 0x260 }
  - { offset: 0x6470F, size: 0x8, addend: 0x0, symName: __RINvNtNtCsdGrGZaRBwMb_3syn3gen4fold21fold_type_param_boundNtNvCsliPDVd4pfgL_15zerofrom_derive25replace_lifetime_and_type20ReplaceLifetimeAndTyEBY_, symObjAddr: 0x2BC60, symBinAddr: 0x4BAF0, symSize: 0x260 }
  - { offset: 0x647CA, size: 0x8, addend: 0x0, symName: __RINvNtNtCsdGrGZaRBwMb_3syn3gen4fold22fold_foreign_item_typeNtNvCsliPDVd4pfgL_15zerofrom_derive16replace_lifetime15ReplaceLifetimeEBZ_, symObjAddr: 0x2BEC0, symBinAddr: 0x4BD50, symSize: 0x310 }
  - { offset: 0x64811, size: 0x8, addend: 0x0, symName: __RINvNtNtCsdGrGZaRBwMb_3syn3gen4fold22fold_foreign_item_typeNtNvCsliPDVd4pfgL_15zerofrom_derive25replace_lifetime_and_type20ReplaceLifetimeAndTyEBZ_, symObjAddr: 0x2C1D0, symBinAddr: 0x4C060, symSize: 0x310 }
  - { offset: 0x64858, size: 0x8, addend: 0x0, symName: __RINvNtNtCsdGrGZaRBwMb_3syn3gen4fold22fold_item_extern_crateNtNvCsliPDVd4pfgL_15zerofrom_derive16replace_lifetime15ReplaceLifetimeEBZ_, symObjAddr: 0x2C4E0, symBinAddr: 0x4C370, symSize: 0x2F0 }
  - { offset: 0x6489F, size: 0x8, addend: 0x0, symName: __RINvNtNtCsdGrGZaRBwMb_3syn3gen4fold22fold_item_extern_crateNtNvCsliPDVd4pfgL_15zerofrom_derive25replace_lifetime_and_type20ReplaceLifetimeAndTyEBZ_, symObjAddr: 0x2C7D0, symBinAddr: 0x4C660, symSize: 0x2F0 }
  - { offset: 0x648E6, size: 0x8, addend: 0x0, symName: __RINvNtNtCsdGrGZaRBwMb_3syn3gen4fold22fold_static_mutabilityNtNvCsliPDVd4pfgL_15zerofrom_derive16replace_lifetime15ReplaceLifetimeEBZ_, symObjAddr: 0x2CAC0, symBinAddr: 0x4C950, symSize: 0x50 }
  - { offset: 0x6494A, size: 0x8, addend: 0x0, symName: __RINvNtNtCsdGrGZaRBwMb_3syn3gen4fold22fold_static_mutabilityNtNvCsliPDVd4pfgL_15zerofrom_derive25replace_lifetime_and_type20ReplaceLifetimeAndTyEBZ_, symObjAddr: 0x2CB10, symBinAddr: 0x4C9A0, symSize: 0x50 }
  - { offset: 0x649AE, size: 0x8, addend: 0x0, symName: __RINvNtNtCsdGrGZaRBwMb_3syn3gen4fold22fold_type_trait_objectNtNvCsliPDVd4pfgL_15zerofrom_derive16replace_lifetime15ReplaceLifetimeEBZ_, symObjAddr: 0x2CB60, symBinAddr: 0x4C9F0, symSize: 0xA0 }
  - { offset: 0x649F5, size: 0x8, addend: 0x0, symName: __RINvNtNtCsdGrGZaRBwMb_3syn3gen4fold22fold_type_trait_objectNtNvCsliPDVd4pfgL_15zerofrom_derive25replace_lifetime_and_type20ReplaceLifetimeAndTyEBZ_, symObjAddr: 0x2CC00, symBinAddr: 0x4CA90, symSize: 0xA0 }
  - { offset: 0x64A3C, size: 0x8, addend: 0x0, symName: __RINvNtNtCsdGrGZaRBwMb_3syn3gen4fold23fold_foreign_item_macroNtNvCsliPDVd4pfgL_15zerofrom_derive16replace_lifetime15ReplaceLifetimeEB10_, symObjAddr: 0x2CCA0, symBinAddr: 0x4CB30, symSize: 0x170 }
  - { offset: 0x64A83, size: 0x8, addend: 0x0, symName: __RINvNtNtCsdGrGZaRBwMb_3syn3gen4fold23fold_foreign_item_macroNtNvCsliPDVd4pfgL_15zerofrom_derive25replace_lifetime_and_type20ReplaceLifetimeAndTyEB10_, symObjAddr: 0x2CE10, symBinAddr: 0x4CCA0, symSize: 0x170 }
  - { offset: 0x64ACA, size: 0x8, addend: 0x0, symName: __RINvNtNtCsdGrGZaRBwMb_3syn3gen4fold23fold_pointer_mutabilityNtNvCsliPDVd4pfgL_15zerofrom_derive16replace_lifetime15ReplaceLifetimeEB10_, symObjAddr: 0x2CF80, symBinAddr: 0x4CE10, symSize: 0x60 }
  - { offset: 0x64B4C, size: 0x8, addend: 0x0, symName: __RINvNtNtCsdGrGZaRBwMb_3syn3gen4fold23fold_pointer_mutabilityNtNvCsliPDVd4pfgL_15zerofrom_derive25replace_lifetime_and_type20ReplaceLifetimeAndTyEB10_, symObjAddr: 0x2CFE0, symBinAddr: 0x4CE70, symSize: 0x60 }
  - { offset: 0x64BCE, size: 0x8, addend: 0x0, symName: __RINvNtNtCsdGrGZaRBwMb_3syn3gen4fold23fold_predicate_lifetimeNtNvCsliPDVd4pfgL_15zerofrom_derive16replace_lifetime15ReplaceLifetimeEB10_, symObjAddr: 0x2D040, symBinAddr: 0x4CED0, symSize: 0x180 }
  - { offset: 0x64C15, size: 0x8, addend: 0x0, symName: __RINvNtNtCsdGrGZaRBwMb_3syn3gen4fold23fold_predicate_lifetimeNtNvCsliPDVd4pfgL_15zerofrom_derive25replace_lifetime_and_type20ReplaceLifetimeAndTyEB10_, symObjAddr: 0x2D1C0, symBinAddr: 0x4D050, symSize: 0x180 }
  - { offset: 0x64C5C, size: 0x8, addend: 0x0, symName: __RINvNtNtCsdGrGZaRBwMb_3syn3gen4fold24fold_foreign_item_staticNtNvCsliPDVd4pfgL_15zerofrom_derive16replace_lifetime15ReplaceLifetimeEB11_, symObjAddr: 0x2D340, symBinAddr: 0x4D1D0, symSize: 0x440 }
  - { offset: 0x64CC2, size: 0x8, addend: 0x0, symName: __RINvNtNtCsdGrGZaRBwMb_3syn3gen4fold24fold_foreign_item_staticNtNvCsliPDVd4pfgL_15zerofrom_derive25replace_lifetime_and_type20ReplaceLifetimeAndTyEB11_, symObjAddr: 0x2D780, symBinAddr: 0x4D610, symSize: 0x440 }
  - { offset: 0x64D28, size: 0x8, addend: 0x0, symName: __RINvNtNtCsdGrGZaRBwMb_3syn3gen4fold25fold_trait_bound_modifierNtNvCsliPDVd4pfgL_15zerofrom_derive16replace_lifetime15ReplaceLifetimeEB12_, symObjAddr: 0x2DBC0, symBinAddr: 0x4DA50, symSize: 0x60 }
  - { offset: 0x64D8C, size: 0x8, addend: 0x0, symName: __RINvNtNtCsdGrGZaRBwMb_3syn3gen4fold25fold_trait_bound_modifierNtNvCsliPDVd4pfgL_15zerofrom_derive25replace_lifetime_and_type20ReplaceLifetimeAndTyEB12_, symObjAddr: 0x2DC20, symBinAddr: 0x4DAB0, symSize: 0x60 }
  - { offset: 0x64DF0, size: 0x8, addend: 0x0, symName: __RINvNtNtCsdGrGZaRBwMb_3syn3gen4fold36fold_parenthesized_generic_argumentsNtNvCsliPDVd4pfgL_15zerofrom_derive16replace_lifetime15ReplaceLifetimeEB1d_, symObjAddr: 0x2DC80, symBinAddr: 0x4DB10, symSize: 0x170 }
  - { offset: 0x64E37, size: 0x8, addend: 0x0, symName: __RINvNtNtCsdGrGZaRBwMb_3syn3gen4fold36fold_parenthesized_generic_argumentsNtNvCsliPDVd4pfgL_15zerofrom_derive25replace_lifetime_and_type20ReplaceLifetimeAndTyEB1d_, symObjAddr: 0x2DDF0, symBinAddr: 0x4DC80, symSize: 0x170 }
  - { offset: 0x64E7E, size: 0x8, addend: 0x0, symName: __RINvNtNtCsdGrGZaRBwMb_3syn3gen4fold38fold_angle_bracketed_generic_argumentsNtNvCsliPDVd4pfgL_15zerofrom_derive16replace_lifetime15ReplaceLifetimeEB1f_, symObjAddr: 0x2DF60, symBinAddr: 0x4DDF0, symSize: 0xC0 }
  - { offset: 0x64EC6, size: 0x8, addend: 0x0, symName: __RINvNtNtCsdGrGZaRBwMb_3syn3gen4fold38fold_angle_bracketed_generic_argumentsNtNvCsliPDVd4pfgL_15zerofrom_derive25replace_lifetime_and_type20ReplaceLifetimeAndTyEB1f_, symObjAddr: 0x2E020, symBinAddr: 0x4DEB0, symSize: 0xC0 }
  - { offset: 0x64F0E, size: 0x8, addend: 0x0, symName: __RINvNtNtCsdGrGZaRBwMb_3syn3gen4fold8fold_abiNtNvCsliPDVd4pfgL_15zerofrom_derive16replace_lifetime15ReplaceLifetimeEBK_, symObjAddr: 0x2E0E0, symBinAddr: 0x4DF70, symSize: 0x40 }
  - { offset: 0x64F54, size: 0x8, addend: 0x0, symName: __RINvNtNtCsdGrGZaRBwMb_3syn3gen4fold8fold_abiNtNvCsliPDVd4pfgL_15zerofrom_derive25replace_lifetime_and_type20ReplaceLifetimeAndTyEBK_, symObjAddr: 0x2E120, symBinAddr: 0x4DFB0, symSize: 0x40 }
  - { offset: 0x64F9A, size: 0x8, addend: 0x0, symName: __RINvNtNtCsdGrGZaRBwMb_3syn3gen4fold8fold_armNtNvCsliPDVd4pfgL_15zerofrom_derive16replace_lifetime15ReplaceLifetimeEBK_, symObjAddr: 0x2E160, symBinAddr: 0x4DFF0, symSize: 0x3F0 }
  - { offset: 0x65000, size: 0x8, addend: 0x0, symName: __RINvNtNtCsdGrGZaRBwMb_3syn3gen4fold8fold_armNtNvCsliPDVd4pfgL_15zerofrom_derive25replace_lifetime_and_type20ReplaceLifetimeAndTyEBK_, symObjAddr: 0x2E550, symBinAddr: 0x4E3E0, symSize: 0x3F0 }
  - { offset: 0x65066, size: 0x8, addend: 0x0, symName: __RINvNtNtCsdGrGZaRBwMb_3syn3gen4fold8fold_litNtNvCsliPDVd4pfgL_15zerofrom_derive16replace_lifetime15ReplaceLifetimeEBK_, symObjAddr: 0x2E940, symBinAddr: 0x4E7D0, symSize: 0x2D0 }
  - { offset: 0x651B5, size: 0x8, addend: 0x0, symName: __RINvNtNtCsdGrGZaRBwMb_3syn3gen4fold8fold_litNtNvCsliPDVd4pfgL_15zerofrom_derive25replace_lifetime_and_type20ReplaceLifetimeAndTyEBK_, symObjAddr: 0x2EC10, symBinAddr: 0x4EAA0, symSize: 0x2D0 }
  - { offset: 0x65304, size: 0x8, addend: 0x0, symName: __RINvNtNtCsdGrGZaRBwMb_3syn3gen4fold8fold_patNtNvCsliPDVd4pfgL_15zerofrom_derive16replace_lifetime15ReplaceLifetimeEBK_, symObjAddr: 0x2EEE0, symBinAddr: 0x4ED70, symSize: 0x880 }
  - { offset: 0x65552, size: 0x8, addend: 0x0, symName: __RINvNtNtCsdGrGZaRBwMb_3syn3gen4fold8fold_patNtNvCsliPDVd4pfgL_15zerofrom_derive25replace_lifetime_and_type20ReplaceLifetimeAndTyEBK_, symObjAddr: 0x2F760, symBinAddr: 0x4F5F0, symSize: 0x880 }
  - { offset: 0x657A0, size: 0x8, addend: 0x0, symName: __RINvNtNtCsdGrGZaRBwMb_3syn3gen4fold8fold_vecNtNtB6_4attr9AttributeNtNvCsliPDVd4pfgL_15zerofrom_derive16replace_lifetime15ReplaceLifetimeNvYB12_NtB2_4Fold14fold_attributeEB16_, symObjAddr: 0x2FFE0, symBinAddr: 0x4FE70, symSize: 0x80 }
  - { offset: 0x65809, size: 0x8, addend: 0x0, symName: __RINvNtNtCsdGrGZaRBwMb_3syn3gen4fold8fold_vecNtNtB6_4attr9AttributeNtNvCsliPDVd4pfgL_15zerofrom_derive25replace_lifetime_and_type20ReplaceLifetimeAndTyNvYB12_NtB2_4Fold14fold_attributeEB16_, symObjAddr: 0x30060, symBinAddr: 0x4FEF0, symSize: 0x80 }
  - { offset: 0x65872, size: 0x8, addend: 0x0, symName: __RINvNtNtCsdGrGZaRBwMb_3syn3gen4fold8fold_vecNtNtB6_4expr3ArmNtNvCsliPDVd4pfgL_15zerofrom_derive16replace_lifetime15ReplaceLifetimeNvYBW_NtB2_4Fold8fold_armEB10_, symObjAddr: 0x300E0, symBinAddr: 0x4FF70, symSize: 0x80 }
  - { offset: 0x658DB, size: 0x8, addend: 0x0, symName: __RINvNtNtCsdGrGZaRBwMb_3syn3gen4fold8fold_vecNtNtB6_4expr3ArmNtNvCsliPDVd4pfgL_15zerofrom_derive25replace_lifetime_and_type20ReplaceLifetimeAndTyNvYBW_NtB2_4Fold8fold_armEB10_, symObjAddr: 0x30160, symBinAddr: 0x4FFF0, symSize: 0x80 }
  - { offset: 0x65944, size: 0x8, addend: 0x0, symName: __RINvNtNtCsdGrGZaRBwMb_3syn3gen4fold8fold_vecNtNtB6_4item11ForeignItemNtNvCsliPDVd4pfgL_15zerofrom_derive16replace_lifetime15ReplaceLifetimeNvYB15_NtB2_4Fold17fold_foreign_itemEB19_, symObjAddr: 0x301E0, symBinAddr: 0x50070, symSize: 0x80 }
  - { offset: 0x659AD, size: 0x8, addend: 0x0, symName: __RINvNtNtCsdGrGZaRBwMb_3syn3gen4fold8fold_vecNtNtB6_4item11ForeignItemNtNvCsliPDVd4pfgL_15zerofrom_derive25replace_lifetime_and_type20ReplaceLifetimeAndTyNvYB15_NtB2_4Fold17fold_foreign_itemEB19_, symObjAddr: 0x30260, symBinAddr: 0x500F0, symSize: 0x80 }
  - { offset: 0x65A16, size: 0x8, addend: 0x0, symName: __RINvNtNtCsdGrGZaRBwMb_3syn3gen4fold8fold_vecNtNtB6_4item4ItemNtNvCsliPDVd4pfgL_15zerofrom_derive16replace_lifetime15ReplaceLifetimeNvYBX_NtB2_4Fold9fold_itemEB11_, symObjAddr: 0x302E0, symBinAddr: 0x50170, symSize: 0x80 }
  - { offset: 0x65A7F, size: 0x8, addend: 0x0, symName: __RINvNtNtCsdGrGZaRBwMb_3syn3gen4fold8fold_vecNtNtB6_4item4ItemNtNvCsliPDVd4pfgL_15zerofrom_derive25replace_lifetime_and_type20ReplaceLifetimeAndTyNvYBX_NtB2_4Fold9fold_itemEB11_, symObjAddr: 0x30360, symBinAddr: 0x501F0, symSize: 0x80 }
  - { offset: 0x65AE8, size: 0x8, addend: 0x0, symName: __RINvNtNtCsdGrGZaRBwMb_3syn3gen4fold8fold_vecNtNtB6_4item8ImplItemNtNvCsliPDVd4pfgL_15zerofrom_derive16replace_lifetime15ReplaceLifetimeNvYB11_NtB2_4Fold14fold_impl_itemEB15_, symObjAddr: 0x303E0, symBinAddr: 0x50270, symSize: 0x80 }
  - { offset: 0x65B51, size: 0x8, addend: 0x0, symName: __RINvNtNtCsdGrGZaRBwMb_3syn3gen4fold8fold_vecNtNtB6_4item8ImplItemNtNvCsliPDVd4pfgL_15zerofrom_derive25replace_lifetime_and_type20ReplaceLifetimeAndTyNvYB11_NtB2_4Fold14fold_impl_itemEB15_, symObjAddr: 0x30460, symBinAddr: 0x502F0, symSize: 0x80 }
  - { offset: 0x65BBA, size: 0x8, addend: 0x0, symName: __RINvNtNtCsdGrGZaRBwMb_3syn3gen4fold8fold_vecNtNtB6_4item9TraitItemNtNvCsliPDVd4pfgL_15zerofrom_derive16replace_lifetime15ReplaceLifetimeNvYB12_NtB2_4Fold15fold_trait_itemEB16_, symObjAddr: 0x304E0, symBinAddr: 0x50370, symSize: 0x80 }
  - { offset: 0x65C23, size: 0x8, addend: 0x0, symName: __RINvNtNtCsdGrGZaRBwMb_3syn3gen4fold8fold_vecNtNtB6_4item9TraitItemNtNvCsliPDVd4pfgL_15zerofrom_derive25replace_lifetime_and_type20ReplaceLifetimeAndTyNvYB12_NtB2_4Fold15fold_trait_itemEB16_, symObjAddr: 0x30560, symBinAddr: 0x503F0, symSize: 0x80 }
  - { offset: 0x65C8C, size: 0x8, addend: 0x0, symName: __RINvNtNtCsdGrGZaRBwMb_3syn3gen4fold8fold_vecNtNtB6_4stmt4StmtNtNvCsliPDVd4pfgL_15zerofrom_derive16replace_lifetime15ReplaceLifetimeNvYBX_NtB2_4Fold9fold_stmtEB11_, symObjAddr: 0x305E0, symBinAddr: 0x50470, symSize: 0x80 }
  - { offset: 0x65CF5, size: 0x8, addend: 0x0, symName: __RINvNtNtCsdGrGZaRBwMb_3syn3gen4fold8fold_vecNtNtB6_4stmt4StmtNtNvCsliPDVd4pfgL_15zerofrom_derive25replace_lifetime_and_type20ReplaceLifetimeAndTyNvYBX_NtB2_4Fold9fold_stmtEB11_, symObjAddr: 0x30660, symBinAddr: 0x504F0, symSize: 0x80 }
  - { offset: 0x65D5E, size: 0x8, addend: 0x0, symName: __RINvNtNtCsdGrGZaRBwMb_3syn3gen4fold9fold_exprNtNvCsliPDVd4pfgL_15zerofrom_derive16replace_lifetime15ReplaceLifetimeEBL_, symObjAddr: 0x306E0, symBinAddr: 0x50570, symSize: 0x1250 }
  - { offset: 0x66275, size: 0x8, addend: 0x0, symName: __RINvNtNtCsdGrGZaRBwMb_3syn3gen4fold9fold_exprNtNvCsliPDVd4pfgL_15zerofrom_derive25replace_lifetime_and_type20ReplaceLifetimeAndTyEBL_, symObjAddr: 0x31930, symBinAddr: 0x517C0, symSize: 0x1250 }
  - { offset: 0x6678C, size: 0x8, addend: 0x0, symName: __RINvNtNtCsdGrGZaRBwMb_3syn3gen4fold9fold_itemNtNvCsliPDVd4pfgL_15zerofrom_derive16replace_lifetime15ReplaceLifetimeEBL_, symObjAddr: 0x32B80, symBinAddr: 0x52A10, symSize: 0x780 }
  - { offset: 0x669BB, size: 0x8, addend: 0x0, symName: __RINvNtNtCsdGrGZaRBwMb_3syn3gen4fold9fold_itemNtNvCsliPDVd4pfgL_15zerofrom_derive25replace_lifetime_and_type20ReplaceLifetimeAndTyEBL_, symObjAddr: 0x33300, symBinAddr: 0x53190, symSize: 0x780 }
  - { offset: 0x66BEA, size: 0x8, addend: 0x0, symName: __RINvNtNtCsdGrGZaRBwMb_3syn3gen4fold9fold_metaNtNvCsliPDVd4pfgL_15zerofrom_derive16replace_lifetime15ReplaceLifetimeEBL_, symObjAddr: 0x33A80, symBinAddr: 0x53910, symSize: 0x1A0 }
  - { offset: 0x66C86, size: 0x8, addend: 0x0, symName: __RINvNtNtCsdGrGZaRBwMb_3syn3gen4fold9fold_metaNtNvCsliPDVd4pfgL_15zerofrom_derive25replace_lifetime_and_type20ReplaceLifetimeAndTyEBL_, symObjAddr: 0x33C20, symBinAddr: 0x53AB0, symSize: 0x1A0 }
  - { offset: 0x66D22, size: 0x8, addend: 0x0, symName: __RINvNtNtCsdGrGZaRBwMb_3syn3gen4fold9fold_pathNtNvCsliPDVd4pfgL_15zerofrom_derive16replace_lifetime15ReplaceLifetimeEBL_, symObjAddr: 0x33DC0, symBinAddr: 0x53C50, symSize: 0xA0 }
  - { offset: 0x66D69, size: 0x8, addend: 0x0, symName: __RINvNtNtCsdGrGZaRBwMb_3syn3gen4fold9fold_pathNtNvCsliPDVd4pfgL_15zerofrom_derive25replace_lifetime_and_type20ReplaceLifetimeAndTyEBL_, symObjAddr: 0x33E60, symBinAddr: 0x53CF0, symSize: 0xA0 }
  - { offset: 0x66DB0, size: 0x8, addend: 0x0, symName: __RINvNtNtCsdGrGZaRBwMb_3syn3gen4fold9fold_stmtNtNvCsliPDVd4pfgL_15zerofrom_derive16replace_lifetime15ReplaceLifetimeEBL_, symObjAddr: 0x33F00, symBinAddr: 0x53D90, symSize: 0x240 }
  - { offset: 0x66E7C, size: 0x8, addend: 0x0, symName: __RINvNtNtCsdGrGZaRBwMb_3syn3gen4fold9fold_stmtNtNvCsliPDVd4pfgL_15zerofrom_derive25replace_lifetime_and_type20ReplaceLifetimeAndTyEBL_, symObjAddr: 0x34140, symBinAddr: 0x53FD0, symSize: 0x240 }
  - { offset: 0x66F48, size: 0x8, addend: 0x0, symName: __RINvNtNtCsdGrGZaRBwMb_3syn3gen4fold9fold_typeNtNvCsliPDVd4pfgL_15zerofrom_derive16replace_lifetime15ReplaceLifetimeEBL_, symObjAddr: 0x34380, symBinAddr: 0x54210, symSize: 0x700 }
  - { offset: 0x67157, size: 0x8, addend: 0x0, symName: __RINvNtNtCsdGrGZaRBwMb_3syn3gen4fold9fold_typeNtNvCsliPDVd4pfgL_15zerofrom_derive25replace_lifetime_and_type20ReplaceLifetimeAndTyEBL_, symObjAddr: 0x34A80, symBinAddr: 0x54910, symSize: 0x700 }
  - { offset: 0x6736B, size: 0x8, addend: 0x0, symName: __RNCINvNtNtCsdGrGZaRBwMb_3syn3gen4fold10fold_fieldNtNvCsliPDVd4pfgL_15zerofrom_derive16replace_lifetime15ReplaceLifetimeE0BP_, symObjAddr: 0x35180, symBinAddr: 0x55010, symSize: 0x30 }
  - { offset: 0x673B4, size: 0x8, addend: 0x0, symName: __RNCINvNtNtCsdGrGZaRBwMb_3syn3gen4fold10fold_fieldNtNvCsliPDVd4pfgL_15zerofrom_derive25replace_lifetime_and_type20ReplaceLifetimeAndTyE0BP_, symObjAddr: 0x351B0, symBinAddr: 0x55040, symSize: 0x30 }
  - { offset: 0x67403, size: 0x8, addend: 0x0, symName: __RNCINvNtNtCsdGrGZaRBwMb_3syn3gen4fold10fold_localNtNvCsliPDVd4pfgL_15zerofrom_derive16replace_lifetime15ReplaceLifetimeE0BP_, symObjAddr: 0x351E0, symBinAddr: 0x55070, symSize: 0x30 }
  - { offset: 0x6744C, size: 0x8, addend: 0x0, symName: __RNCINvNtNtCsdGrGZaRBwMb_3syn3gen4fold10fold_localNtNvCsliPDVd4pfgL_15zerofrom_derive25replace_lifetime_and_type20ReplaceLifetimeAndTyE0BP_, symObjAddr: 0x35210, symBinAddr: 0x550A0, symSize: 0x30 }
  - { offset: 0x6749B, size: 0x8, addend: 0x0, symName: __RNCINvNtNtCsdGrGZaRBwMb_3syn3gen4fold12fold_expr_ifNtNvCsliPDVd4pfgL_15zerofrom_derive16replace_lifetime15ReplaceLifetimeE0BR_, symObjAddr: 0x35240, symBinAddr: 0x550D0, symSize: 0x1A0 }
  - { offset: 0x67503, size: 0x8, addend: 0x0, symName: __RNCINvNtNtCsdGrGZaRBwMb_3syn3gen4fold12fold_expr_ifNtNvCsliPDVd4pfgL_15zerofrom_derive25replace_lifetime_and_type20ReplaceLifetimeAndTyE0BR_, symObjAddr: 0x353E0, symBinAddr: 0x55270, symSize: 0x1A0 }
  - { offset: 0x67571, size: 0x8, addend: 0x0, symName: __RNCINvNtNtCsdGrGZaRBwMb_3syn3gen4fold12fold_variantNtNvCsliPDVd4pfgL_15zerofrom_derive16replace_lifetime15ReplaceLifetimeE0BR_, symObjAddr: 0x35580, symBinAddr: 0x55410, symSize: 0xB0 }
  - { offset: 0x675BB, size: 0x8, addend: 0x0, symName: __RNCINvNtNtCsdGrGZaRBwMb_3syn3gen4fold12fold_variantNtNvCsliPDVd4pfgL_15zerofrom_derive25replace_lifetime_and_type20ReplaceLifetimeAndTyE0BR_, symObjAddr: 0x35630, symBinAddr: 0x554C0, symSize: 0xB0 }
  - { offset: 0x6760B, size: 0x8, addend: 0x0, symName: __RNCINvNtNtCsdGrGZaRBwMb_3syn3gen4fold13fold_genericsNtNvCsliPDVd4pfgL_15zerofrom_derive16replace_lifetime15ReplaceLifetimeE0BS_, symObjAddr: 0x356E0, symBinAddr: 0x55570, symSize: 0x30 }
  - { offset: 0x67654, size: 0x8, addend: 0x0, symName: __RNCINvNtNtCsdGrGZaRBwMb_3syn3gen4fold13fold_genericsNtNvCsliPDVd4pfgL_15zerofrom_derive25replace_lifetime_and_type20ReplaceLifetimeAndTyE0BS_, symObjAddr: 0x35710, symBinAddr: 0x555A0, symSize: 0x30 }
  - { offset: 0x676A3, size: 0x8, addend: 0x0, symName: __RNCINvNtNtCsdGrGZaRBwMb_3syn3gen4fold13fold_item_modNtNvCsliPDVd4pfgL_15zerofrom_derive16replace_lifetime15ReplaceLifetimeE0BS_, symObjAddr: 0x35740, symBinAddr: 0x555D0, symSize: 0x90 }
  - { offset: 0x676EC, size: 0x8, addend: 0x0, symName: __RNCINvNtNtCsdGrGZaRBwMb_3syn3gen4fold13fold_item_modNtNvCsliPDVd4pfgL_15zerofrom_derive25replace_lifetime_and_type20ReplaceLifetimeAndTyE0BS_, symObjAddr: 0x357D0, symBinAddr: 0x55660, symSize: 0x90 }
  - { offset: 0x6773B, size: 0x8, addend: 0x0, symName: __RNCINvNtNtCsdGrGZaRBwMb_3syn3gen4fold13fold_receiverNtNvCsliPDVd4pfgL_15zerofrom_derive16replace_lifetime15ReplaceLifetimeE0BS_, symObjAddr: 0x35860, symBinAddr: 0x556F0, symSize: 0x90 }
  - { offset: 0x67784, size: 0x8, addend: 0x0, symName: __RNCINvNtNtCsdGrGZaRBwMb_3syn3gen4fold13fold_receiverNtNvCsliPDVd4pfgL_15zerofrom_derive25replace_lifetime_and_type20ReplaceLifetimeAndTyE0BS_, symObjAddr: 0x358F0, symBinAddr: 0x55780, symSize: 0x90 }
  - { offset: 0x677D2, size: 0x8, addend: 0x0, symName: __RNCNCINvNtNtCsdGrGZaRBwMb_3syn3gen4fold13fold_receiverNtNvCsliPDVd4pfgL_15zerofrom_derive16replace_lifetime15ReplaceLifetimeE00BU_, symObjAddr: 0x39440, symBinAddr: 0x59290, symSize: 0x30 }
  - { offset: 0x6781B, size: 0x8, addend: 0x0, symName: __RNCNCINvNtNtCsdGrGZaRBwMb_3syn3gen4fold13fold_receiverNtNvCsliPDVd4pfgL_15zerofrom_derive25replace_lifetime_and_type20ReplaceLifetimeAndTyE00BU_, symObjAddr: 0x39470, symBinAddr: 0x592C0, symSize: 0x30 }
  - { offset: 0x6786B, size: 0x8, addend: 0x0, symName: __RNCINvNtNtCsdGrGZaRBwMb_3syn3gen4fold13fold_variadicNtNvCsliPDVd4pfgL_15zerofrom_derive16replace_lifetime15ReplaceLifetimeE0BS_, symObjAddr: 0x35980, symBinAddr: 0x55810, symSize: 0x1B0 }
  - { offset: 0x678D3, size: 0x8, addend: 0x0, symName: __RNCINvNtNtCsdGrGZaRBwMb_3syn3gen4fold13fold_variadicNtNvCsliPDVd4pfgL_15zerofrom_derive25replace_lifetime_and_type20ReplaceLifetimeAndTyE0BS_, symObjAddr: 0x35B30, symBinAddr: 0x559C0, symSize: 0x1B0 }
  - { offset: 0x67941, size: 0x8, addend: 0x0, symName: __RNCINvNtNtCsdGrGZaRBwMb_3syn3gen4fold14fold_expr_loopNtNvCsliPDVd4pfgL_15zerofrom_derive16replace_lifetime15ReplaceLifetimeE0BT_, symObjAddr: 0x35CE0, symBinAddr: 0x55B70, symSize: 0x30 }
  - { offset: 0x6798A, size: 0x8, addend: 0x0, symName: __RNCINvNtNtCsdGrGZaRBwMb_3syn3gen4fold14fold_expr_loopNtNvCsliPDVd4pfgL_15zerofrom_derive25replace_lifetime_and_type20ReplaceLifetimeAndTyE0BT_, symObjAddr: 0x35D10, symBinAddr: 0x55BA0, symSize: 0x30 }
  - { offset: 0x679D9, size: 0x8, addend: 0x0, symName: __RNCINvNtNtCsdGrGZaRBwMb_3syn3gen4fold14fold_expr_pathNtNvCsliPDVd4pfgL_15zerofrom_derive16replace_lifetime15ReplaceLifetimeE0BT_, symObjAddr: 0x35D40, symBinAddr: 0x55BD0, symSize: 0x30 }
  - { offset: 0x67A22, size: 0x8, addend: 0x0, symName: __RNCINvNtNtCsdGrGZaRBwMb_3syn3gen4fold14fold_expr_pathNtNvCsliPDVd4pfgL_15zerofrom_derive25replace_lifetime_and_type20ReplaceLifetimeAndTyE0BT_, symObjAddr: 0x35D70, symBinAddr: 0x55C00, symSize: 0x30 }
  - { offset: 0x67A71, size: 0x8, addend: 0x0, symName: __RNCINvNtNtCsdGrGZaRBwMb_3syn3gen4fold14fold_item_implNtNvCsliPDVd4pfgL_15zerofrom_derive16replace_lifetime15ReplaceLifetimeE0BT_, symObjAddr: 0x35DA0, symBinAddr: 0x55C30, symSize: 0xB0 }
  - { offset: 0x67ABB, size: 0x8, addend: 0x0, symName: __RNCINvNtNtCsdGrGZaRBwMb_3syn3gen4fold14fold_item_implNtNvCsliPDVd4pfgL_15zerofrom_derive25replace_lifetime_and_type20ReplaceLifetimeAndTyE0BT_, symObjAddr: 0x35E50, symBinAddr: 0x55CE0, symSize: 0xB0 }
  - { offset: 0x67B0B, size: 0x8, addend: 0x0, symName: __RNCINvNtNtCsdGrGZaRBwMb_3syn3gen4fold14fold_pat_identNtNvCsliPDVd4pfgL_15zerofrom_derive16replace_lifetime15ReplaceLifetimeE0BT_, symObjAddr: 0x35F00, symBinAddr: 0x55D90, symSize: 0x1C0 }
  - { offset: 0x67B73, size: 0x8, addend: 0x0, symName: __RNCINvNtNtCsdGrGZaRBwMb_3syn3gen4fold14fold_pat_identNtNvCsliPDVd4pfgL_15zerofrom_derive25replace_lifetime_and_type20ReplaceLifetimeAndTyE0BT_, symObjAddr: 0x360C0, symBinAddr: 0x55F50, symSize: 0x1C0 }
  - { offset: 0x67BE1, size: 0x8, addend: 0x0, symName: __RNCINvNtNtCsdGrGZaRBwMb_3syn3gen4fold14fold_signatureNtNvCsliPDVd4pfgL_15zerofrom_derive16replace_lifetime15ReplaceLifetimeE0BT_, symObjAddr: 0x36280, symBinAddr: 0x56110, symSize: 0x30 }
  - { offset: 0x67C29, size: 0x8, addend: 0x0, symName: __RNCINvNtNtCsdGrGZaRBwMb_3syn3gen4fold14fold_signatureNtNvCsliPDVd4pfgL_15zerofrom_derive16replace_lifetime15ReplaceLifetimeEs_0BT_, symObjAddr: 0x362B0, symBinAddr: 0x56140, symSize: 0x30 }
  - { offset: 0x67C72, size: 0x8, addend: 0x0, symName: __RNCINvNtNtCsdGrGZaRBwMb_3syn3gen4fold14fold_signatureNtNvCsliPDVd4pfgL_15zerofrom_derive25replace_lifetime_and_type20ReplaceLifetimeAndTyE0BT_, symObjAddr: 0x362E0, symBinAddr: 0x56170, symSize: 0x30 }
  - { offset: 0x67CBA, size: 0x8, addend: 0x0, symName: __RNCINvNtNtCsdGrGZaRBwMb_3syn3gen4fold14fold_signatureNtNvCsliPDVd4pfgL_15zerofrom_derive25replace_lifetime_and_type20ReplaceLifetimeAndTyEs_0BT_, symObjAddr: 0x36310, symBinAddr: 0x561A0, symSize: 0x30 }
  - { offset: 0x67D09, size: 0x8, addend: 0x0, symName: __RNCINvNtNtCsdGrGZaRBwMb_3syn3gen4fold14fold_type_pathNtNvCsliPDVd4pfgL_15zerofrom_derive16replace_lifetime15ReplaceLifetimeE0BT_, symObjAddr: 0x36340, symBinAddr: 0x561D0, symSize: 0x30 }
  - { offset: 0x67D52, size: 0x8, addend: 0x0, symName: __RNCINvNtNtCsdGrGZaRBwMb_3syn3gen4fold14fold_type_pathNtNvCsliPDVd4pfgL_15zerofrom_derive25replace_lifetime_and_type20ReplaceLifetimeAndTyE0BT_, symObjAddr: 0x36370, symBinAddr: 0x56200, symSize: 0x30 }
  - { offset: 0x67DA1, size: 0x8, addend: 0x0, symName: __RNCINvNtNtCsdGrGZaRBwMb_3syn3gen4fold15fold_assoc_typeNtNvCsliPDVd4pfgL_15zerofrom_derive16replace_lifetime15ReplaceLifetimeE0BU_, symObjAddr: 0x363A0, symBinAddr: 0x56230, symSize: 0x30 }
  - { offset: 0x67DEA, size: 0x8, addend: 0x0, symName: __RNCINvNtNtCsdGrGZaRBwMb_3syn3gen4fold15fold_assoc_typeNtNvCsliPDVd4pfgL_15zerofrom_derive25replace_lifetime_and_type20ReplaceLifetimeAndTyE0BU_, symObjAddr: 0x363D0, symBinAddr: 0x56260, symSize: 0x30 }
  - { offset: 0x67E39, size: 0x8, addend: 0x0, symName: __RNCINvNtNtCsdGrGZaRBwMb_3syn3gen4fold15fold_constraintNtNvCsliPDVd4pfgL_15zerofrom_derive16replace_lifetime15ReplaceLifetimeE0BU_, symObjAddr: 0x36400, symBinAddr: 0x56290, symSize: 0x30 }
  - { offset: 0x67E82, size: 0x8, addend: 0x0, symName: __RNCINvNtNtCsdGrGZaRBwMb_3syn3gen4fold15fold_constraintNtNvCsliPDVd4pfgL_15zerofrom_derive25replace_lifetime_and_type20ReplaceLifetimeAndTyE0BU_, symObjAddr: 0x36430, symBinAddr: 0x562C0, symSize: 0x30 }
  - { offset: 0x67ED1, size: 0x8, addend: 0x0, symName: __RNCINvNtNtCsdGrGZaRBwMb_3syn3gen4fold15fold_expr_blockNtNvCsliPDVd4pfgL_15zerofrom_derive16replace_lifetime15ReplaceLifetimeE0BU_, symObjAddr: 0x36460, symBinAddr: 0x562F0, symSize: 0x30 }
  - { offset: 0x67F1A, size: 0x8, addend: 0x0, symName: __RNCINvNtNtCsdGrGZaRBwMb_3syn3gen4fold15fold_expr_blockNtNvCsliPDVd4pfgL_15zerofrom_derive25replace_lifetime_and_type20ReplaceLifetimeAndTyE0BU_, symObjAddr: 0x36490, symBinAddr: 0x56320, symSize: 0x30 }
  - { offset: 0x67F69, size: 0x8, addend: 0x0, symName: __RNCINvNtNtCsdGrGZaRBwMb_3syn3gen4fold15fold_expr_breakNtNvCsliPDVd4pfgL_15zerofrom_derive16replace_lifetime15ReplaceLifetimeE0BU_, symObjAddr: 0x364C0, symBinAddr: 0x56350, symSize: 0x30 }
  - { offset: 0x67FB2, size: 0x8, addend: 0x0, symName: __RNCINvNtNtCsdGrGZaRBwMb_3syn3gen4fold15fold_expr_breakNtNvCsliPDVd4pfgL_15zerofrom_derive16replace_lifetime15ReplaceLifetimeEs_0BU_, symObjAddr: 0x364F0, symBinAddr: 0x56380, symSize: 0x180 }
  - { offset: 0x6801A, size: 0x8, addend: 0x0, symName: __RNCINvNtNtCsdGrGZaRBwMb_3syn3gen4fold15fold_expr_breakNtNvCsliPDVd4pfgL_15zerofrom_derive25replace_lifetime_and_type20ReplaceLifetimeAndTyE0BU_, symObjAddr: 0x36670, symBinAddr: 0x56500, symSize: 0x30 }
  - { offset: 0x68063, size: 0x8, addend: 0x0, symName: __RNCINvNtNtCsdGrGZaRBwMb_3syn3gen4fold15fold_expr_breakNtNvCsliPDVd4pfgL_15zerofrom_derive25replace_lifetime_and_type20ReplaceLifetimeAndTyEs_0BU_, symObjAddr: 0x366A0, symBinAddr: 0x56530, symSize: 0x180 }
  - { offset: 0x680D1, size: 0x8, addend: 0x0, symName: __RNCINvNtNtCsdGrGZaRBwMb_3syn3gen4fold15fold_expr_rangeNtNvCsliPDVd4pfgL_15zerofrom_derive16replace_lifetime15ReplaceLifetimeE0BU_, symObjAddr: 0x36820, symBinAddr: 0x566B0, symSize: 0x180 }
  - { offset: 0x68139, size: 0x8, addend: 0x0, symName: __RNCINvNtNtCsdGrGZaRBwMb_3syn3gen4fold15fold_expr_rangeNtNvCsliPDVd4pfgL_15zerofrom_derive16replace_lifetime15ReplaceLifetimeEs_0BU_, symObjAddr: 0x369A0, symBinAddr: 0x56830, symSize: 0x180 }
  - { offset: 0x681A1, size: 0x8, addend: 0x0, symName: __RNCINvNtNtCsdGrGZaRBwMb_3syn3gen4fold15fold_expr_rangeNtNvCsliPDVd4pfgL_15zerofrom_derive25replace_lifetime_and_type20ReplaceLifetimeAndTyE0BU_, symObjAddr: 0x36B20, symBinAddr: 0x569B0, symSize: 0x180 }
  - { offset: 0x68209, size: 0x8, addend: 0x0, symName: __RNCINvNtNtCsdGrGZaRBwMb_3syn3gen4fold15fold_expr_rangeNtNvCsliPDVd4pfgL_15zerofrom_derive25replace_lifetime_and_type20ReplaceLifetimeAndTyEs_0BU_, symObjAddr: 0x36CA0, symBinAddr: 0x56B30, symSize: 0x180 }
  - { offset: 0x68277, size: 0x8, addend: 0x0, symName: __RNCINvNtNtCsdGrGZaRBwMb_3syn3gen4fold15fold_expr_whileNtNvCsliPDVd4pfgL_15zerofrom_derive16replace_lifetime15ReplaceLifetimeE0BU_, symObjAddr: 0x36E20, symBinAddr: 0x56CB0, symSize: 0x30 }
  - { offset: 0x682C0, size: 0x8, addend: 0x0, symName: __RNCINvNtNtCsdGrGZaRBwMb_3syn3gen4fold15fold_expr_whileNtNvCsliPDVd4pfgL_15zerofrom_derive25replace_lifetime_and_type20ReplaceLifetimeAndTyE0BU_, symObjAddr: 0x36E50, symBinAddr: 0x56CE0, symSize: 0x30 }
  - { offset: 0x6830F, size: 0x8, addend: 0x0, symName: __RNCINvNtNtCsdGrGZaRBwMb_3syn3gen4fold15fold_expr_yieldNtNvCsliPDVd4pfgL_15zerofrom_derive16replace_lifetime15ReplaceLifetimeE0BU_, symObjAddr: 0x36E80, symBinAddr: 0x56D10, symSize: 0x180 }
  - { offset: 0x68377, size: 0x8, addend: 0x0, symName: __RNCINvNtNtCsdGrGZaRBwMb_3syn3gen4fold15fold_expr_yieldNtNvCsliPDVd4pfgL_15zerofrom_derive25replace_lifetime_and_type20ReplaceLifetimeAndTyE0BU_, symObjAddr: 0x37000, symBinAddr: 0x56E90, symSize: 0x180 }
  - { offset: 0x683E5, size: 0x8, addend: 0x0, symName: __RNCINvNtNtCsdGrGZaRBwMb_3syn3gen4fold15fold_item_macroNtNvCsliPDVd4pfgL_15zerofrom_derive16replace_lifetime15ReplaceLifetimeE0BU_, symObjAddr: 0x37180, symBinAddr: 0x57010, symSize: 0x30 }
  - { offset: 0x6842E, size: 0x8, addend: 0x0, symName: __RNCINvNtNtCsdGrGZaRBwMb_3syn3gen4fold15fold_item_macroNtNvCsliPDVd4pfgL_15zerofrom_derive25replace_lifetime_and_type20ReplaceLifetimeAndTyE0BU_, symObjAddr: 0x371B0, symBinAddr: 0x57040, symSize: 0x30 }
  - { offset: 0x6847D, size: 0x8, addend: 0x0, symName: __RNCINvNtNtCsdGrGZaRBwMb_3syn3gen4fold15fold_local_initNtNvCsliPDVd4pfgL_15zerofrom_derive16replace_lifetime15ReplaceLifetimeE0BU_, symObjAddr: 0x37220, symBinAddr: 0x57070, symSize: 0x1A0 }
  - { offset: 0x684E5, size: 0x8, addend: 0x0, symName: __RNCINvNtNtCsdGrGZaRBwMb_3syn3gen4fold15fold_local_initNtNvCsliPDVd4pfgL_15zerofrom_derive25replace_lifetime_and_type20ReplaceLifetimeAndTyE0BU_, symObjAddr: 0x373C0, symBinAddr: 0x57210, symSize: 0x1A0 }
  - { offset: 0x68553, size: 0x8, addend: 0x0, symName: __RNCINvNtNtCsdGrGZaRBwMb_3syn3gen4fold15fold_pat_structNtNvCsliPDVd4pfgL_15zerofrom_derive16replace_lifetime15ReplaceLifetimeE0BU_, symObjAddr: 0x37560, symBinAddr: 0x573B0, symSize: 0x30 }
  - { offset: 0x6859C, size: 0x8, addend: 0x0, symName: __RNCINvNtNtCsdGrGZaRBwMb_3syn3gen4fold15fold_pat_structNtNvCsliPDVd4pfgL_15zerofrom_derive16replace_lifetime15ReplaceLifetimeEs_0BU_, symObjAddr: 0x37590, symBinAddr: 0x573E0, symSize: 0x30 }
  - { offset: 0x685E5, size: 0x8, addend: 0x0, symName: __RNCINvNtNtCsdGrGZaRBwMb_3syn3gen4fold15fold_pat_structNtNvCsliPDVd4pfgL_15zerofrom_derive25replace_lifetime_and_type20ReplaceLifetimeAndTyE0BU_, symObjAddr: 0x375C0, symBinAddr: 0x57410, symSize: 0x30 }
  - { offset: 0x6862E, size: 0x8, addend: 0x0, symName: __RNCINvNtNtCsdGrGZaRBwMb_3syn3gen4fold15fold_pat_structNtNvCsliPDVd4pfgL_15zerofrom_derive25replace_lifetime_and_type20ReplaceLifetimeAndTyEs_0BU_, symObjAddr: 0x375F0, symBinAddr: 0x57440, symSize: 0x30 }
  - { offset: 0x6867D, size: 0x8, addend: 0x0, symName: __RNCINvNtNtCsdGrGZaRBwMb_3syn3gen4fold15fold_type_paramNtNvCsliPDVd4pfgL_15zerofrom_derive16replace_lifetime15ReplaceLifetimeE0BU_, symObjAddr: 0x37620, symBinAddr: 0x57470, symSize: 0x30 }
  - { offset: 0x686C6, size: 0x8, addend: 0x0, symName: __RNCINvNtNtCsdGrGZaRBwMb_3syn3gen4fold15fold_type_paramNtNvCsliPDVd4pfgL_15zerofrom_derive25replace_lifetime_and_type20ReplaceLifetimeAndTyE0BU_, symObjAddr: 0x37650, symBinAddr: 0x574A0, symSize: 0x30 }
  - { offset: 0x68715, size: 0x8, addend: 0x0, symName: __RNCINvNtNtCsdGrGZaRBwMb_3syn3gen4fold16fold_assoc_constNtNvCsliPDVd4pfgL_15zerofrom_derive16replace_lifetime15ReplaceLifetimeE0BV_, symObjAddr: 0x37680, symBinAddr: 0x574D0, symSize: 0x30 }
  - { offset: 0x6875E, size: 0x8, addend: 0x0, symName: __RNCINvNtNtCsdGrGZaRBwMb_3syn3gen4fold16fold_assoc_constNtNvCsliPDVd4pfgL_15zerofrom_derive25replace_lifetime_and_type20ReplaceLifetimeAndTyE0BV_, symObjAddr: 0x376B0, symBinAddr: 0x57500, symSize: 0x30 }
  - { offset: 0x687AD, size: 0x8, addend: 0x0, symName: __RNCINvNtNtCsdGrGZaRBwMb_3syn3gen4fold16fold_bare_fn_argNtNvCsliPDVd4pfgL_15zerofrom_derive16replace_lifetime15ReplaceLifetimeE0BV_, symObjAddr: 0x376E0, symBinAddr: 0x57530, symSize: 0x80 }
  - { offset: 0x687F7, size: 0x8, addend: 0x0, symName: __RNCINvNtNtCsdGrGZaRBwMb_3syn3gen4fold16fold_bare_fn_argNtNvCsliPDVd4pfgL_15zerofrom_derive25replace_lifetime_and_type20ReplaceLifetimeAndTyE0BV_, symObjAddr: 0x37760, symBinAddr: 0x575B0, symSize: 0x80 }
  - { offset: 0x68847, size: 0x8, addend: 0x0, symName: __RNCINvNtNtCsdGrGZaRBwMb_3syn3gen4fold16fold_const_paramNtNvCsliPDVd4pfgL_15zerofrom_derive16replace_lifetime15ReplaceLifetimeE0BV_, symObjAddr: 0x377E0, symBinAddr: 0x57630, symSize: 0x30 }
  - { offset: 0x68890, size: 0x8, addend: 0x0, symName: __RNCINvNtNtCsdGrGZaRBwMb_3syn3gen4fold16fold_const_paramNtNvCsliPDVd4pfgL_15zerofrom_derive25replace_lifetime_and_type20ReplaceLifetimeAndTyE0BV_, symObjAddr: 0x37810, symBinAddr: 0x57660, symSize: 0x30 }
  - { offset: 0x688DF, size: 0x8, addend: 0x0, symName: __RNCINvNtNtCsdGrGZaRBwMb_3syn3gen4fold16fold_expr_returnNtNvCsliPDVd4pfgL_15zerofrom_derive16replace_lifetime15ReplaceLifetimeE0BV_, symObjAddr: 0x37840, symBinAddr: 0x57690, symSize: 0x180 }
  - { offset: 0x68947, size: 0x8, addend: 0x0, symName: __RNCINvNtNtCsdGrGZaRBwMb_3syn3gen4fold16fold_expr_returnNtNvCsliPDVd4pfgL_15zerofrom_derive25replace_lifetime_and_type20ReplaceLifetimeAndTyE0BV_, symObjAddr: 0x379C0, symBinAddr: 0x57810, symSize: 0x180 }
  - { offset: 0x689B5, size: 0x8, addend: 0x0, symName: __RNCINvNtNtCsdGrGZaRBwMb_3syn3gen4fold16fold_expr_structNtNvCsliPDVd4pfgL_15zerofrom_derive16replace_lifetime15ReplaceLifetimeE0BV_, symObjAddr: 0x37B40, symBinAddr: 0x57990, symSize: 0x30 }
  - { offset: 0x689FE, size: 0x8, addend: 0x0, symName: __RNCINvNtNtCsdGrGZaRBwMb_3syn3gen4fold16fold_expr_structNtNvCsliPDVd4pfgL_15zerofrom_derive16replace_lifetime15ReplaceLifetimeEs_0BV_, symObjAddr: 0x37B70, symBinAddr: 0x579C0, symSize: 0x180 }
  - { offset: 0x68A66, size: 0x8, addend: 0x0, symName: __RNCINvNtNtCsdGrGZaRBwMb_3syn3gen4fold16fold_expr_structNtNvCsliPDVd4pfgL_15zerofrom_derive25replace_lifetime_and_type20ReplaceLifetimeAndTyE0BV_, symObjAddr: 0x37CF0, symBinAddr: 0x57B40, symSize: 0x30 }
  - { offset: 0x68AAF, size: 0x8, addend: 0x0, symName: __RNCINvNtNtCsdGrGZaRBwMb_3syn3gen4fold16fold_expr_structNtNvCsliPDVd4pfgL_15zerofrom_derive25replace_lifetime_and_type20ReplaceLifetimeAndTyEs_0BV_, symObjAddr: 0x37D20, symBinAddr: 0x57B70, symSize: 0x180 }
  - { offset: 0x68B1D, size: 0x8, addend: 0x0, symName: __RNCINvNtNtCsdGrGZaRBwMb_3syn3gen4fold16fold_trait_boundNtNvCsliPDVd4pfgL_15zerofrom_derive16replace_lifetime15ReplaceLifetimeE0BV_, symObjAddr: 0x37EA0, symBinAddr: 0x57CF0, symSize: 0x30 }
  - { offset: 0x68B66, size: 0x8, addend: 0x0, symName: __RNCINvNtNtCsdGrGZaRBwMb_3syn3gen4fold16fold_trait_boundNtNvCsliPDVd4pfgL_15zerofrom_derive25replace_lifetime_and_type20ReplaceLifetimeAndTyE0BV_, symObjAddr: 0x37ED0, symBinAddr: 0x57D20, symSize: 0x30 }
  - { offset: 0x68BB5, size: 0x8, addend: 0x0, symName: __RNCINvNtNtCsdGrGZaRBwMb_3syn3gen4fold17fold_expr_closureNtNvCsliPDVd4pfgL_15zerofrom_derive16replace_lifetime15ReplaceLifetimeE0BW_, symObjAddr: 0x37F00, symBinAddr: 0x57D50, symSize: 0x30 }
  - { offset: 0x68BFE, size: 0x8, addend: 0x0, symName: __RNCINvNtNtCsdGrGZaRBwMb_3syn3gen4fold17fold_expr_closureNtNvCsliPDVd4pfgL_15zerofrom_derive25replace_lifetime_and_type20ReplaceLifetimeAndTyE0BW_, symObjAddr: 0x37F30, symBinAddr: 0x57D80, symSize: 0x30 }
  - { offset: 0x68C4D, size: 0x8, addend: 0x0, symName: __RNCINvNtNtCsdGrGZaRBwMb_3syn3gen4fold17fold_type_bare_fnNtNvCsliPDVd4pfgL_15zerofrom_derive16replace_lifetime15ReplaceLifetimeE0BW_, symObjAddr: 0x37F60, symBinAddr: 0x57DB0, symSize: 0x30 }
  - { offset: 0x68C96, size: 0x8, addend: 0x0, symName: __RNCINvNtNtCsdGrGZaRBwMb_3syn3gen4fold17fold_type_bare_fnNtNvCsliPDVd4pfgL_15zerofrom_derive16replace_lifetime15ReplaceLifetimeEs0_0BW_, symObjAddr: 0x37F90, symBinAddr: 0x57DE0, symSize: 0x30 }
  - { offset: 0x68CDF, size: 0x8, addend: 0x0, symName: __RNCINvNtNtCsdGrGZaRBwMb_3syn3gen4fold17fold_type_bare_fnNtNvCsliPDVd4pfgL_15zerofrom_derive16replace_lifetime15ReplaceLifetimeEs_0BW_, symObjAddr: 0x37FC0, symBinAddr: 0x57E10, symSize: 0x30 }
  - { offset: 0x68D27, size: 0x8, addend: 0x0, symName: __RNCINvNtNtCsdGrGZaRBwMb_3syn3gen4fold17fold_type_bare_fnNtNvCsliPDVd4pfgL_15zerofrom_derive25replace_lifetime_and_type20ReplaceLifetimeAndTyE0BW_, symObjAddr: 0x37FF0, symBinAddr: 0x57E40, symSize: 0x30 }
  - { offset: 0x68D70, size: 0x8, addend: 0x0, symName: __RNCINvNtNtCsdGrGZaRBwMb_3syn3gen4fold17fold_type_bare_fnNtNvCsliPDVd4pfgL_15zerofrom_derive25replace_lifetime_and_type20ReplaceLifetimeAndTyEs0_0BW_, symObjAddr: 0x38020, symBinAddr: 0x57E70, symSize: 0x30 }
  - { offset: 0x68DB9, size: 0x8, addend: 0x0, symName: __RNCINvNtNtCsdGrGZaRBwMb_3syn3gen4fold17fold_type_bare_fnNtNvCsliPDVd4pfgL_15zerofrom_derive25replace_lifetime_and_type20ReplaceLifetimeAndTyEs_0BW_, symObjAddr: 0x38050, symBinAddr: 0x57EA0, symSize: 0x30 }
  - { offset: 0x68E07, size: 0x8, addend: 0x0, symName: __RNCINvNtNtCsdGrGZaRBwMb_3syn3gen4fold18fold_bare_variadicNtNvCsliPDVd4pfgL_15zerofrom_derive16replace_lifetime15ReplaceLifetimeE0BX_, symObjAddr: 0x38080, symBinAddr: 0x57ED0, symSize: 0x80 }
  - { offset: 0x68E51, size: 0x8, addend: 0x0, symName: __RNCINvNtNtCsdGrGZaRBwMb_3syn3gen4fold18fold_bare_variadicNtNvCsliPDVd4pfgL_15zerofrom_derive25replace_lifetime_and_type20ReplaceLifetimeAndTyE0BX_, symObjAddr: 0x38100, symBinAddr: 0x57F50, symSize: 0x80 }
  - { offset: 0x68EA1, size: 0x8, addend: 0x0, symName: __RNCINvNtNtCsdGrGZaRBwMb_3syn3gen4fold18fold_expr_continueNtNvCsliPDVd4pfgL_15zerofrom_derive16replace_lifetime15ReplaceLifetimeE0BX_, symObjAddr: 0x38180, symBinAddr: 0x57FD0, symSize: 0x30 }
  - { offset: 0x68EEA, size: 0x8, addend: 0x0, symName: __RNCINvNtNtCsdGrGZaRBwMb_3syn3gen4fold18fold_expr_continueNtNvCsliPDVd4pfgL_15zerofrom_derive25replace_lifetime_and_type20ReplaceLifetimeAndTyE0BX_, symObjAddr: 0x381B0, symBinAddr: 0x58000, symSize: 0x30 }
  - { offset: 0x68F39, size: 0x8, addend: 0x0, symName: __RNCINvNtNtCsdGrGZaRBwMb_3syn3gen4fold18fold_expr_for_loopNtNvCsliPDVd4pfgL_15zerofrom_derive16replace_lifetime15ReplaceLifetimeE0BX_, symObjAddr: 0x381E0, symBinAddr: 0x58030, symSize: 0x30 }
  - { offset: 0x68F82, size: 0x8, addend: 0x0, symName: __RNCINvNtNtCsdGrGZaRBwMb_3syn3gen4fold18fold_expr_for_loopNtNvCsliPDVd4pfgL_15zerofrom_derive25replace_lifetime_and_type20ReplaceLifetimeAndTyE0BX_, symObjAddr: 0x38210, symBinAddr: 0x58060, symSize: 0x30 }
  - { offset: 0x68FD1, size: 0x8, addend: 0x0, symName: __RNCINvNtNtCsdGrGZaRBwMb_3syn3gen4fold18fold_trait_item_fnNtNvCsliPDVd4pfgL_15zerofrom_derive16replace_lifetime15ReplaceLifetimeE0BX_, symObjAddr: 0x38240, symBinAddr: 0x58090, symSize: 0x30 }
  - { offset: 0x6901A, size: 0x8, addend: 0x0, symName: __RNCINvNtNtCsdGrGZaRBwMb_3syn3gen4fold18fold_trait_item_fnNtNvCsliPDVd4pfgL_15zerofrom_derive25replace_lifetime_and_type20ReplaceLifetimeAndTyE0BX_, symObjAddr: 0x38270, symBinAddr: 0x580C0, symSize: 0x30 }
  - { offset: 0x69069, size: 0x8, addend: 0x0, symName: __RNCINvNtNtCsdGrGZaRBwMb_3syn3gen4fold19fold_predicate_typeNtNvCsliPDVd4pfgL_15zerofrom_derive16replace_lifetime15ReplaceLifetimeE0BY_, symObjAddr: 0x382A0, symBinAddr: 0x580F0, symSize: 0x30 }
  - { offset: 0x690B2, size: 0x8, addend: 0x0, symName: __RNCINvNtNtCsdGrGZaRBwMb_3syn3gen4fold19fold_predicate_typeNtNvCsliPDVd4pfgL_15zerofrom_derive25replace_lifetime_and_type20ReplaceLifetimeAndTyE0BY_, symObjAddr: 0x382D0, symBinAddr: 0x58120, symSize: 0x30 }
  - { offset: 0x69101, size: 0x8, addend: 0x0, symName: __RNCINvNtNtCsdGrGZaRBwMb_3syn3gen4fold19fold_type_referenceNtNvCsliPDVd4pfgL_15zerofrom_derive16replace_lifetime15ReplaceLifetimeE0BY_, symObjAddr: 0x38300, symBinAddr: 0x58150, symSize: 0x30 }
  - { offset: 0x6914A, size: 0x8, addend: 0x0, symName: __RNCINvNtNtCsdGrGZaRBwMb_3syn3gen4fold19fold_type_referenceNtNvCsliPDVd4pfgL_15zerofrom_derive25replace_lifetime_and_type20ReplaceLifetimeAndTyE0BY_, symObjAddr: 0x38330, symBinAddr: 0x58180, symSize: 0x30 }
  - { offset: 0x69199, size: 0x8, addend: 0x0, symName: __RNCINvNtNtCsdGrGZaRBwMb_3syn3gen4fold20fold_trait_item_typeNtNvCsliPDVd4pfgL_15zerofrom_derive16replace_lifetime15ReplaceLifetimeE0BZ_, symObjAddr: 0x38360, symBinAddr: 0x581B0, symSize: 0xB0 }
  - { offset: 0x691E3, size: 0x8, addend: 0x0, symName: __RNCINvNtNtCsdGrGZaRBwMb_3syn3gen4fold20fold_trait_item_typeNtNvCsliPDVd4pfgL_15zerofrom_derive25replace_lifetime_and_type20ReplaceLifetimeAndTyE0BZ_, symObjAddr: 0x38410, symBinAddr: 0x58260, symSize: 0xB0 }
  - { offset: 0x69233, size: 0x8, addend: 0x0, symName: __RNCINvNtNtCsdGrGZaRBwMb_3syn3gen4fold21fold_expr_method_callNtNvCsliPDVd4pfgL_15zerofrom_derive16replace_lifetime15ReplaceLifetimeE0B10_, symObjAddr: 0x384C0, symBinAddr: 0x58310, symSize: 0x30 }
  - { offset: 0x6927C, size: 0x8, addend: 0x0, symName: __RNCINvNtNtCsdGrGZaRBwMb_3syn3gen4fold21fold_expr_method_callNtNvCsliPDVd4pfgL_15zerofrom_derive25replace_lifetime_and_type20ReplaceLifetimeAndTyE0B10_, symObjAddr: 0x384F0, symBinAddr: 0x58340, symSize: 0x30 }
  - { offset: 0x692CB, size: 0x8, addend: 0x0, symName: __RNCINvNtNtCsdGrGZaRBwMb_3syn3gen4fold21fold_pat_tuple_structNtNvCsliPDVd4pfgL_15zerofrom_derive16replace_lifetime15ReplaceLifetimeE0B10_, symObjAddr: 0x38520, symBinAddr: 0x58370, symSize: 0x30 }
  - { offset: 0x69314, size: 0x8, addend: 0x0, symName: __RNCINvNtNtCsdGrGZaRBwMb_3syn3gen4fold21fold_pat_tuple_structNtNvCsliPDVd4pfgL_15zerofrom_derive25replace_lifetime_and_type20ReplaceLifetimeAndTyE0B10_, symObjAddr: 0x38550, symBinAddr: 0x583A0, symSize: 0x30 }
  - { offset: 0x69363, size: 0x8, addend: 0x0, symName: __RNCINvNtNtCsdGrGZaRBwMb_3syn3gen4fold21fold_trait_item_constNtNvCsliPDVd4pfgL_15zerofrom_derive16replace_lifetime15ReplaceLifetimeE0B10_, symObjAddr: 0x38580, symBinAddr: 0x583D0, symSize: 0xB0 }
  - { offset: 0x693AD, size: 0x8, addend: 0x0, symName: __RNCINvNtNtCsdGrGZaRBwMb_3syn3gen4fold21fold_trait_item_constNtNvCsliPDVd4pfgL_15zerofrom_derive25replace_lifetime_and_type20ReplaceLifetimeAndTyE0B10_, symObjAddr: 0x38630, symBinAddr: 0x58480, symSize: 0xB0 }
  - { offset: 0x693FD, size: 0x8, addend: 0x0, symName: __RNCINvNtNtCsdGrGZaRBwMb_3syn3gen4fold22fold_item_extern_crateNtNvCsliPDVd4pfgL_15zerofrom_derive16replace_lifetime15ReplaceLifetimeE0B11_, symObjAddr: 0x386E0, symBinAddr: 0x58530, symSize: 0x80 }
  - { offset: 0x69446, size: 0x8, addend: 0x0, symName: __RNCINvNtNtCsdGrGZaRBwMb_3syn3gen4fold22fold_item_extern_crateNtNvCsliPDVd4pfgL_15zerofrom_derive25replace_lifetime_and_type20ReplaceLifetimeAndTyE0B11_, symObjAddr: 0x38760, symBinAddr: 0x585B0, symSize: 0x80 }
  - { offset: 0x69495, size: 0x8, addend: 0x0, symName: __RNCINvNtNtCsdGrGZaRBwMb_3syn3gen4fold8fold_abiNtNvCsliPDVd4pfgL_15zerofrom_derive16replace_lifetime15ReplaceLifetimeE0BM_, symObjAddr: 0x387E0, symBinAddr: 0x58630, symSize: 0x30 }
  - { offset: 0x694DD, size: 0x8, addend: 0x0, symName: __RNCINvNtNtCsdGrGZaRBwMb_3syn3gen4fold8fold_abiNtNvCsliPDVd4pfgL_15zerofrom_derive25replace_lifetime_and_type20ReplaceLifetimeAndTyE0BM_, symObjAddr: 0x38810, symBinAddr: 0x58660, symSize: 0x30 }
  - { offset: 0x6952B, size: 0x8, addend: 0x0, symName: __RNCINvNtNtCsdGrGZaRBwMb_3syn3gen4fold8fold_armNtNvCsliPDVd4pfgL_15zerofrom_derive16replace_lifetime15ReplaceLifetimeE0BM_, symObjAddr: 0x38840, symBinAddr: 0x58690, symSize: 0x1A0 }
  - { offset: 0x69593, size: 0x8, addend: 0x0, symName: __RNCINvNtNtCsdGrGZaRBwMb_3syn3gen4fold8fold_armNtNvCsliPDVd4pfgL_15zerofrom_derive25replace_lifetime_and_type20ReplaceLifetimeAndTyE0BM_, symObjAddr: 0x389E0, symBinAddr: 0x58830, symSize: 0x1A0 }
  - { offset: 0x69601, size: 0x8, addend: 0x0, symName: __RNCINvNtNtCsdGrGZaRBwMb_3syn3gen4fold8fold_vecNtNtB8_4attr9AttributeNtNvCsliPDVd4pfgL_15zerofrom_derive16replace_lifetime15ReplaceLifetimeNvYB14_NtB4_4Fold14fold_attributeE0B18_, symObjAddr: 0x38B80, symBinAddr: 0x589D0, symSize: 0xA0 }
  - { offset: 0x69672, size: 0x8, addend: 0x0, symName: __RNCINvNtNtCsdGrGZaRBwMb_3syn3gen4fold8fold_vecNtNtB8_4attr9AttributeNtNvCsliPDVd4pfgL_15zerofrom_derive25replace_lifetime_and_type20ReplaceLifetimeAndTyNvYB14_NtB4_4Fold14fold_attributeE0B18_, symObjAddr: 0x38C20, symBinAddr: 0x58A70, symSize: 0xA0 }
  - { offset: 0x696E3, size: 0x8, addend: 0x0, symName: __RNCINvNtNtCsdGrGZaRBwMb_3syn3gen4fold8fold_vecNtNtB8_4expr3ArmNtNvCsliPDVd4pfgL_15zerofrom_derive16replace_lifetime15ReplaceLifetimeNvYBY_NtB4_4Fold8fold_armE0B12_, symObjAddr: 0x38CC0, symBinAddr: 0x58B10, symSize: 0xA0 }
  - { offset: 0x69754, size: 0x8, addend: 0x0, symName: __RNCINvNtNtCsdGrGZaRBwMb_3syn3gen4fold8fold_vecNtNtB8_4expr3ArmNtNvCsliPDVd4pfgL_15zerofrom_derive25replace_lifetime_and_type20ReplaceLifetimeAndTyNvYBY_NtB4_4Fold8fold_armE0B12_, symObjAddr: 0x38D60, symBinAddr: 0x58BB0, symSize: 0xA0 }
  - { offset: 0x697C5, size: 0x8, addend: 0x0, symName: __RNCINvNtNtCsdGrGZaRBwMb_3syn3gen4fold8fold_vecNtNtB8_4item11ForeignItemNtNvCsliPDVd4pfgL_15zerofrom_derive16replace_lifetime15ReplaceLifetimeNvYB17_NtB4_4Fold17fold_foreign_itemE0B1b_, symObjAddr: 0x38E00, symBinAddr: 0x58C50, symSize: 0xA0 }
  - { offset: 0x69836, size: 0x8, addend: 0x0, symName: __RNCINvNtNtCsdGrGZaRBwMb_3syn3gen4fold8fold_vecNtNtB8_4item11ForeignItemNtNvCsliPDVd4pfgL_15zerofrom_derive25replace_lifetime_and_type20ReplaceLifetimeAndTyNvYB17_NtB4_4Fold17fold_foreign_itemE0B1b_, symObjAddr: 0x38EA0, symBinAddr: 0x58CF0, symSize: 0xA0 }
  - { offset: 0x698A7, size: 0x8, addend: 0x0, symName: __RNCINvNtNtCsdGrGZaRBwMb_3syn3gen4fold8fold_vecNtNtB8_4item4ItemNtNvCsliPDVd4pfgL_15zerofrom_derive16replace_lifetime15ReplaceLifetimeNvYBZ_NtB4_4Fold9fold_itemE0B13_, symObjAddr: 0x38F40, symBinAddr: 0x58D90, symSize: 0xA0 }
  - { offset: 0x69918, size: 0x8, addend: 0x0, symName: __RNCINvNtNtCsdGrGZaRBwMb_3syn3gen4fold8fold_vecNtNtB8_4item4ItemNtNvCsliPDVd4pfgL_15zerofrom_derive25replace_lifetime_and_type20ReplaceLifetimeAndTyNvYBZ_NtB4_4Fold9fold_itemE0B13_, symObjAddr: 0x38FE0, symBinAddr: 0x58E30, symSize: 0xA0 }
  - { offset: 0x69989, size: 0x8, addend: 0x0, symName: __RNCINvNtNtCsdGrGZaRBwMb_3syn3gen4fold8fold_vecNtNtB8_4item8ImplItemNtNvCsliPDVd4pfgL_15zerofrom_derive16replace_lifetime15ReplaceLifetimeNvYB13_NtB4_4Fold14fold_impl_itemE0B17_, symObjAddr: 0x39080, symBinAddr: 0x58ED0, symSize: 0xA0 }
  - { offset: 0x699FA, size: 0x8, addend: 0x0, symName: __RNCINvNtNtCsdGrGZaRBwMb_3syn3gen4fold8fold_vecNtNtB8_4item8ImplItemNtNvCsliPDVd4pfgL_15zerofrom_derive25replace_lifetime_and_type20ReplaceLifetimeAndTyNvYB13_NtB4_4Fold14fold_impl_itemE0B17_, symObjAddr: 0x39120, symBinAddr: 0x58F70, symSize: 0xA0 }
  - { offset: 0x69A6B, size: 0x8, addend: 0x0, symName: __RNCINvNtNtCsdGrGZaRBwMb_3syn3gen4fold8fold_vecNtNtB8_4item9TraitItemNtNvCsliPDVd4pfgL_15zerofrom_derive16replace_lifetime15ReplaceLifetimeNvYB14_NtB4_4Fold15fold_trait_itemE0B18_, symObjAddr: 0x391C0, symBinAddr: 0x59010, symSize: 0xA0 }
  - { offset: 0x69ADC, size: 0x8, addend: 0x0, symName: __RNCINvNtNtCsdGrGZaRBwMb_3syn3gen4fold8fold_vecNtNtB8_4item9TraitItemNtNvCsliPDVd4pfgL_15zerofrom_derive25replace_lifetime_and_type20ReplaceLifetimeAndTyNvYB14_NtB4_4Fold15fold_trait_itemE0B18_, symObjAddr: 0x39260, symBinAddr: 0x590B0, symSize: 0xA0 }
  - { offset: 0x69B4D, size: 0x8, addend: 0x0, symName: __RNCINvNtNtCsdGrGZaRBwMb_3syn3gen4fold8fold_vecNtNtB8_4stmt4StmtNtNvCsliPDVd4pfgL_15zerofrom_derive16replace_lifetime15ReplaceLifetimeNvYBZ_NtB4_4Fold9fold_stmtE0B13_, symObjAddr: 0x39300, symBinAddr: 0x59150, symSize: 0xA0 }
  - { offset: 0x69BBE, size: 0x8, addend: 0x0, symName: __RNCINvNtNtCsdGrGZaRBwMb_3syn3gen4fold8fold_vecNtNtB8_4stmt4StmtNtNvCsliPDVd4pfgL_15zerofrom_derive25replace_lifetime_and_type20ReplaceLifetimeAndTyNvYBZ_NtB4_4Fold9fold_stmtE0B13_, symObjAddr: 0x393A0, symBinAddr: 0x591F0, symSize: 0xA0 }
  - { offset: 0x71D05, size: 0x8, addend: 0x0, symName: __RINvMsi_NtCslJiobkLta79_5alloc3vecINtB6_3VecNtCsaKzlTDPUHDb_11proc_macro25IdentE14extend_trustedINtNtNtNtCsieiGu2EXtoJ_4core4iter8adapters3map3MapINtNtNtB1F_5slice4iter4IterNtNtCsdGrGZaRBwMb_3syn8generics9TypeParamENCNvCsliPDVd4pfgL_15zerofrom_derive14zf_derive_impls_0EEB3v_, symObjAddr: 0x0, symBinAddr: 0x592F0, symSize: 0x1A0 }
  - { offset: 0x7C6A4, size: 0x8, addend: 0x0, symName: __RINvXsd_NtCslJiobkLta79_5alloc3vecINtB6_3VecNtCsaKzlTDPUHDb_11proc_macro25IdentEINtNtNtNtCsieiGu2EXtoJ_4core4iter6traits7collect12FromIteratorBG_E9from_iterINtNtNtB1n_8adapters3map3MapINtNtNtB1p_5slice4iter4IterNtNtCsdGrGZaRBwMb_3syn8generics9TypeParamENCNvCsliPDVd4pfgL_15zerofrom_derive14zf_derive_impls_0EEB47_, symObjAddr: 0x5A0, symBinAddr: 0x59890, symSize: 0x60 }
  - { offset: 0x7C6E4, size: 0x8, addend: 0x0, symName: __RINvXsd_NtCslJiobkLta79_5alloc3vecINtB6_3VecNtNtCsdGrGZaRBwMb_3syn4attr9AttributeEINtNtNtNtCsieiGu2EXtoJ_4core4iter6traits7collect12FromIteratorBG_E9from_iterINtNtNtB1p_8adapters3map3MapINtNtB6_9into_iter8IntoIterBG_ENCINvNtNtBK_3gen4fold8fold_vecBG_NtNvCsliPDVd4pfgL_15zerofrom_derive16replace_lifetime15ReplaceLifetimeNvYB40_NtB3y_4Fold14fold_attributeE0EEB44_, symObjAddr: 0x600, symBinAddr: 0x598F0, symSize: 0x40 }
  - { offset: 0x7C725, size: 0x8, addend: 0x0, symName: __RINvXsd_NtCslJiobkLta79_5alloc3vecINtB6_3VecNtNtCsdGrGZaRBwMb_3syn4attr9AttributeEINtNtNtNtCsieiGu2EXtoJ_4core4iter6traits7collect12FromIteratorBG_E9from_iterINtNtNtB1p_8adapters3map3MapINtNtB6_9into_iter8IntoIterBG_ENCINvNtNtBK_3gen4fold8fold_vecBG_NtNvCsliPDVd4pfgL_15zerofrom_derive25replace_lifetime_and_type20ReplaceLifetimeAndTyNvYB40_NtB3y_4Fold14fold_attributeE0EEB44_, symObjAddr: 0x640, symBinAddr: 0x59930, symSize: 0x40 }
  - { offset: 0x7C766, size: 0x8, addend: 0x0, symName: __RINvXsd_NtCslJiobkLta79_5alloc3vecINtB6_3VecNtNtCsdGrGZaRBwMb_3syn4expr3ArmEINtNtNtNtCsieiGu2EXtoJ_4core4iter6traits7collect12FromIteratorBG_E9from_iterINtNtNtB1j_8adapters3map3MapINtNtB6_9into_iter8IntoIterBG_ENCINvNtNtBK_3gen4fold8fold_vecBG_NtNvCsliPDVd4pfgL_15zerofrom_derive16replace_lifetime15ReplaceLifetimeNvYB3U_NtB3s_4Fold8fold_armE0EEB3Y_, symObjAddr: 0x680, symBinAddr: 0x59970, symSize: 0x40 }
  - { offset: 0x7C7A7, size: 0x8, addend: 0x0, symName: __RINvXsd_NtCslJiobkLta79_5alloc3vecINtB6_3VecNtNtCsdGrGZaRBwMb_3syn4expr3ArmEINtNtNtNtCsieiGu2EXtoJ_4core4iter6traits7collect12FromIteratorBG_E9from_iterINtNtNtB1j_8adapters3map3MapINtNtB6_9into_iter8IntoIterBG_ENCINvNtNtBK_3gen4fold8fold_vecBG_NtNvCsliPDVd4pfgL_15zerofrom_derive25replace_lifetime_and_type20ReplaceLifetimeAndTyNvYB3U_NtB3s_4Fold8fold_armE0EEB3Y_, symObjAddr: 0x6C0, symBinAddr: 0x599B0, symSize: 0x40 }
  - { offset: 0x7C7E8, size: 0x8, addend: 0x0, symName: __RINvXsd_NtCslJiobkLta79_5alloc3vecINtB6_3VecNtNtCsdGrGZaRBwMb_3syn4item11ForeignItemEINtNtNtNtCsieiGu2EXtoJ_4core4iter6traits7collect12FromIteratorBG_E9from_iterINtNtNtB1s_8adapters3map3MapINtNtB6_9into_iter8IntoIterBG_ENCINvNtNtBK_3gen4fold8fold_vecBG_NtNvCsliPDVd4pfgL_15zerofrom_derive16replace_lifetime15ReplaceLifetimeNvYB43_NtB3B_4Fold17fold_foreign_itemE0EEB47_, symObjAddr: 0x700, symBinAddr: 0x599F0, symSize: 0x40 }
  - { offset: 0x7C829, size: 0x8, addend: 0x0, symName: __RINvXsd_NtCslJiobkLta79_5alloc3vecINtB6_3VecNtNtCsdGrGZaRBwMb_3syn4item11ForeignItemEINtNtNtNtCsieiGu2EXtoJ_4core4iter6traits7collect12FromIteratorBG_E9from_iterINtNtNtB1s_8adapters3map3MapINtNtB6_9into_iter8IntoIterBG_ENCINvNtNtBK_3gen4fold8fold_vecBG_NtNvCsliPDVd4pfgL_15zerofrom_derive25replace_lifetime_and_type20ReplaceLifetimeAndTyNvYB43_NtB3B_4Fold17fold_foreign_itemE0EEB47_, symObjAddr: 0x740, symBinAddr: 0x59A30, symSize: 0x40 }
  - { offset: 0x7C86A, size: 0x8, addend: 0x0, symName: __RINvXsd_NtCslJiobkLta79_5alloc3vecINtB6_3VecNtNtCsdGrGZaRBwMb_3syn4item4ItemEINtNtNtNtCsieiGu2EXtoJ_4core4iter6traits7collect12FromIteratorBG_E9from_iterINtNtNtB1k_8adapters3map3MapINtNtB6_9into_iter8IntoIterBG_ENCINvNtNtBK_3gen4fold8fold_vecBG_NtNvCsliPDVd4pfgL_15zerofrom_derive16replace_lifetime15ReplaceLifetimeNvYB3V_NtB3t_4Fold9fold_itemE0EEB3Z_, symObjAddr: 0x780, symBinAddr: 0x59A70, symSize: 0x40 }
  - { offset: 0x7C8AB, size: 0x8, addend: 0x0, symName: __RINvXsd_NtCslJiobkLta79_5alloc3vecINtB6_3VecNtNtCsdGrGZaRBwMb_3syn4item4ItemEINtNtNtNtCsieiGu2EXtoJ_4core4iter6traits7collect12FromIteratorBG_E9from_iterINtNtNtB1k_8adapters3map3MapINtNtB6_9into_iter8IntoIterBG_ENCINvNtNtBK_3gen4fold8fold_vecBG_NtNvCsliPDVd4pfgL_15zerofrom_derive25replace_lifetime_and_type20ReplaceLifetimeAndTyNvYB3V_NtB3t_4Fold9fold_itemE0EEB3Z_, symObjAddr: 0x7C0, symBinAddr: 0x59AB0, symSize: 0x40 }
  - { offset: 0x7C8EC, size: 0x8, addend: 0x0, symName: __RINvXsd_NtCslJiobkLta79_5alloc3vecINtB6_3VecNtNtCsdGrGZaRBwMb_3syn4item8ImplItemEINtNtNtNtCsieiGu2EXtoJ_4core4iter6traits7collect12FromIteratorBG_E9from_iterINtNtNtB1o_8adapters3map3MapINtNtB6_9into_iter8IntoIterBG_ENCINvNtNtBK_3gen4fold8fold_vecBG_NtNvCsliPDVd4pfgL_15zerofrom_derive16replace_lifetime15ReplaceLifetimeNvYB3Z_NtB3x_4Fold14fold_impl_itemE0EEB43_, symObjAddr: 0x800, symBinAddr: 0x59AF0, symSize: 0x40 }
  - { offset: 0x7C92D, size: 0x8, addend: 0x0, symName: __RINvXsd_NtCslJiobkLta79_5alloc3vecINtB6_3VecNtNtCsdGrGZaRBwMb_3syn4item8ImplItemEINtNtNtNtCsieiGu2EXtoJ_4core4iter6traits7collect12FromIteratorBG_E9from_iterINtNtNtB1o_8adapters3map3MapINtNtB6_9into_iter8IntoIterBG_ENCINvNtNtBK_3gen4fold8fold_vecBG_NtNvCsliPDVd4pfgL_15zerofrom_derive25replace_lifetime_and_type20ReplaceLifetimeAndTyNvYB3Z_NtB3x_4Fold14fold_impl_itemE0EEB43_, symObjAddr: 0x840, symBinAddr: 0x59B30, symSize: 0x40 }
  - { offset: 0x7C96E, size: 0x8, addend: 0x0, symName: __RINvXsd_NtCslJiobkLta79_5alloc3vecINtB6_3VecNtNtCsdGrGZaRBwMb_3syn4item9TraitItemEINtNtNtNtCsieiGu2EXtoJ_4core4iter6traits7collect12FromIteratorBG_E9from_iterINtNtNtB1p_8adapters3map3MapINtNtB6_9into_iter8IntoIterBG_ENCINvNtNtBK_3gen4fold8fold_vecBG_NtNvCsliPDVd4pfgL_15zerofrom_derive16replace_lifetime15ReplaceLifetimeNvYB40_NtB3y_4Fold15fold_trait_itemE0EEB44_, symObjAddr: 0x880, symBinAddr: 0x59B70, symSize: 0x40 }
  - { offset: 0x7C9AF, size: 0x8, addend: 0x0, symName: __RINvXsd_NtCslJiobkLta79_5alloc3vecINtB6_3VecNtNtCsdGrGZaRBwMb_3syn4item9TraitItemEINtNtNtNtCsieiGu2EXtoJ_4core4iter6traits7collect12FromIteratorBG_E9from_iterINtNtNtB1p_8adapters3map3MapINtNtB6_9into_iter8IntoIterBG_ENCINvNtNtBK_3gen4fold8fold_vecBG_NtNvCsliPDVd4pfgL_15zerofrom_derive25replace_lifetime_and_type20ReplaceLifetimeAndTyNvYB40_NtB3y_4Fold15fold_trait_itemE0EEB44_, symObjAddr: 0x8C0, symBinAddr: 0x59BB0, symSize: 0x40 }
  - { offset: 0x7C9F0, size: 0x8, addend: 0x0, symName: __RINvXsd_NtCslJiobkLta79_5alloc3vecINtB6_3VecNtNtCsdGrGZaRBwMb_3syn4stmt4StmtEINtNtNtNtCsieiGu2EXtoJ_4core4iter6traits7collect12FromIteratorBG_E9from_iterINtNtNtB1k_8adapters3map3MapINtNtB6_9into_iter8IntoIterBG_ENCINvNtNtBK_3gen4fold8fold_vecBG_NtNvCsliPDVd4pfgL_15zerofrom_derive16replace_lifetime15ReplaceLifetimeNvYB3V_NtB3t_4Fold9fold_stmtE0EEB3Z_, symObjAddr: 0x900, symBinAddr: 0x59BF0, symSize: 0x40 }
  - { offset: 0x7CA31, size: 0x8, addend: 0x0, symName: __RINvXsd_NtCslJiobkLta79_5alloc3vecINtB6_3VecNtNtCsdGrGZaRBwMb_3syn4stmt4StmtEINtNtNtNtCsieiGu2EXtoJ_4core4iter6traits7collect12FromIteratorBG_E9from_iterINtNtNtB1k_8adapters3map3MapINtNtB6_9into_iter8IntoIterBG_ENCINvNtNtBK_3gen4fold8fold_vecBG_NtNvCsliPDVd4pfgL_15zerofrom_derive25replace_lifetime_and_type20ReplaceLifetimeAndTyNvYB3V_NtB3t_4Fold9fold_stmtE0EEB3Z_, symObjAddr: 0x940, symBinAddr: 0x59C30, symSize: 0x40 }
  - { offset: 0x7CA72, size: 0x8, addend: 0x0, symName: __RINvXsd_NtCslJiobkLta79_5alloc3vecINtB6_3VecNtNtCsdGrGZaRBwMb_3syn8generics14WherePredicateEINtNtNtNtCsieiGu2EXtoJ_4core4iter6traits7collect12FromIteratorBG_E9from_iterINtNtNtB1z_8adapters3map3MapINtNtNtB1B_5slice4iter4IterNtCsaKzlTDPUHDb_11proc_macro25IdentENCNvCsliPDVd4pfgL_15zerofrom_derive14zf_derive_impls4_0EEB4d_, symObjAddr: 0x980, symBinAddr: 0x59C70, symSize: 0x40 }
  - { offset: 0x7CAB3, size: 0x8, addend: 0x0, symName: __RINvXsd_NtCslJiobkLta79_5alloc3vecINtB6_3VecNtNtCsdGrGZaRBwMb_3syn8generics9TypeParamEINtNtNtNtCsieiGu2EXtoJ_4core4iter6traits7collect12FromIteratorBG_E9from_iterINtNtNtB1t_8adapters3map3MapNtBI_10TypeParamsNCNvCsliPDVd4pfgL_15zerofrom_derive14zf_derive_impl0EEB3n_, symObjAddr: 0x9C0, symBinAddr: 0x59CB0, symSize: 0x60 }
  - { offset: 0x7CAFE, size: 0x8, addend: 0x0, symName: __RNCINvMsi_NtCslJiobkLta79_5alloc3vecINtB8_3VecNtCsaKzlTDPUHDb_11proc_macro25IdentE14extend_trustedINtNtNtNtCsieiGu2EXtoJ_4core4iter8adapters3map3MapINtNtNtB1H_5slice4iter4IterNtNtCsdGrGZaRBwMb_3syn8generics9TypeParamENCNvCsliPDVd4pfgL_15zerofrom_derive14zf_derive_impls_0EE0B3x_, symObjAddr: 0xA20, symBinAddr: 0x59D10, symSize: 0x40 }
  - { offset: 0x7CBA6, size: 0x8, addend: 0x0, symName: __RNCINvMsi_NtCslJiobkLta79_5alloc3vecINtB8_3VecNtNtCsdGrGZaRBwMb_3syn8generics14WherePredicateE14extend_trustedINtNtNtNtCsieiGu2EXtoJ_4core4iter8adapters3map3MapINtNtNtB1T_5slice4iter4IterNtCsaKzlTDPUHDb_11proc_macro25IdentENCNvCsliPDVd4pfgL_15zerofrom_derive14zf_derive_impls4_0EE0B3D_, symObjAddr: 0xA60, symBinAddr: 0x59D50, symSize: 0x50 }
  - { offset: 0x7CD58, size: 0x8, addend: 0x0, symName: __RNvNvMs_NtCslJiobkLta79_5alloc3vecINtB6_3VecppE13from_parts_in18precondition_checkCsliPDVd4pfgL_15zerofrom_derive, symObjAddr: 0x3330, symBinAddr: 0x5C620, symSize: 0xA0 }
  - { offset: 0x7CDC6, size: 0x8, addend: 0x0, symName: __RNvNvMs_NtCslJiobkLta79_5alloc3vecINtB6_3VecppE17from_raw_parts_in18precondition_checkCsliPDVd4pfgL_15zerofrom_derive, symObjAddr: 0x33D0, symBinAddr: 0x5C6C0, symSize: 0xA0 }
  - { offset: 0x7CE34, size: 0x8, addend: 0x0, symName: __RNvNvMs_NtCslJiobkLta79_5alloc3vecINtB6_3VecppE7set_len18precondition_checkCsliPDVd4pfgL_15zerofrom_derive, symObjAddr: 0x3470, symBinAddr: 0x5C760, symSize: 0xA0 }
  - { offset: 0x7CEA8, size: 0x8, addend: 0x0, symName: __RNvXNtNtCslJiobkLta79_5alloc3vec11spec_extendINtB4_3VecNtNtCsdGrGZaRBwMb_3syn8generics9TypeParamEINtB2_10SpecExtendBR_INtNtNtNtCsieiGu2EXtoJ_4core4iter8adapters3map3MapNtBT_10TypeParamsNCNvCsliPDVd4pfgL_15zerofrom_derive14zf_derive_impl0EE11spec_extendB31_, symObjAddr: 0x3510, symBinAddr: 0x5C800, symSize: 0x20 }
  - { offset: 0x7CEFF, size: 0x8, addend: 0x0, symName: __RNvXs_NtNtCslJiobkLta79_5alloc3vec11spec_extendINtB6_3VecNtCsaKzlTDPUHDb_11proc_macro25IdentEINtB4_10SpecExtendBT_INtNtNtNtCsieiGu2EXtoJ_4core4iter8adapters3map3MapINtNtNtB1X_5slice4iter4IterNtNtCsdGrGZaRBwMb_3syn8generics9TypeParamENCNvCsliPDVd4pfgL_15zerofrom_derive14zf_derive_impls_0EE11spec_extendB3N_, symObjAddr: 0x3A50, symBinAddr: 0x5CD40, symSize: 0x20 }
  - { offset: 0x7CF50, size: 0x8, addend: 0x0, symName: __RNvXs_NtNtCslJiobkLta79_5alloc3vec11spec_extendINtB6_3VecNtNtCsdGrGZaRBwMb_3syn8generics14WherePredicateEINtB4_10SpecExtendBT_INtNtNtNtCsieiGu2EXtoJ_4core4iter8adapters3map3MapINtNtNtB29_5slice4iter4IterNtCsaKzlTDPUHDb_11proc_macro25IdentENCNvCsliPDVd4pfgL_15zerofrom_derive14zf_derive_impls4_0EE11spec_extendB3T_, symObjAddr: 0x3A70, symBinAddr: 0x5CD60, symSize: 0x20 }
  - { offset: 0x7CFAE, size: 0x8, addend: 0x0, symName: __RNvXNtNtCslJiobkLta79_5alloc3vec14spec_from_iterINtB4_3VecNtCsaKzlTDPUHDb_11proc_macro25IdentEINtB2_12SpecFromIterBU_INtNtNtNtCsieiGu2EXtoJ_4core4iter8adapters3map3MapINtNtNtB20_5slice4iter4IterNtNtCsdGrGZaRBwMb_3syn8generics9TypeParamENCNvCsliPDVd4pfgL_15zerofrom_derive14zf_derive_impls_0EE9from_iterB3Q_, symObjAddr: 0x3530, symBinAddr: 0x5C820, symSize: 0x30 }
  - { offset: 0x7CFEC, size: 0x8, addend: 0x0, symName: __RNvXNtNtCslJiobkLta79_5alloc3vec14spec_from_iterINtB4_3VecNtNtCsdGrGZaRBwMb_3syn8generics14WherePredicateEINtB2_12SpecFromIterBU_INtNtNtNtCsieiGu2EXtoJ_4core4iter8adapters3map3MapINtNtNtB2c_5slice4iter4IterNtCsaKzlTDPUHDb_11proc_macro25IdentENCNvCsliPDVd4pfgL_15zerofrom_derive14zf_derive_impls4_0EE9from_iterB3W_, symObjAddr: 0x3560, symBinAddr: 0x5C850, symSize: 0x20 }
  - { offset: 0x7D02B, size: 0x8, addend: 0x0, symName: __RNvXNtNtCslJiobkLta79_5alloc3vec14spec_from_iterINtB4_3VecNtNtCsdGrGZaRBwMb_3syn8generics9TypeParamEINtB2_12SpecFromIterBU_INtNtNtNtCsieiGu2EXtoJ_4core4iter8adapters3map3MapNtBW_10TypeParamsNCNvCsliPDVd4pfgL_15zerofrom_derive14zf_derive_impl0EE9from_iterB36_, symObjAddr: 0x3580, symBinAddr: 0x5C870, symSize: 0x30 }
  - { offset: 0x7D075, size: 0x8, addend: 0x0, symName: __RNvXNtNtCslJiobkLta79_5alloc3vec21spec_from_iter_nestedINtB4_3VecNtNtCsdGrGZaRBwMb_3syn8generics9TypeParamEINtB2_18SpecFromIterNestedB11_INtNtNtNtCsieiGu2EXtoJ_4core4iter8adapters3map3MapNtB13_10TypeParamsNCNvCsliPDVd4pfgL_15zerofrom_derive14zf_derive_impl0EE9from_iterB3l_, symObjAddr: 0x35B0, symBinAddr: 0x5C8A0, symSize: 0x320 }
  - { offset: 0x7D330, size: 0x8, addend: 0x0, symName: __RNvXs_NtNtCslJiobkLta79_5alloc3vec21spec_from_iter_nestedINtB6_3VecNtCsaKzlTDPUHDb_11proc_macro25IdentEINtB4_18SpecFromIterNestedB13_INtNtNtNtCsieiGu2EXtoJ_4core4iter8adapters3map3MapINtNtNtB2g_5slice4iter4IterNtNtCsdGrGZaRBwMb_3syn8generics9TypeParamENCNvCsliPDVd4pfgL_15zerofrom_derive14zf_derive_impls_0EE9from_iterB46_, symObjAddr: 0x3D30, symBinAddr: 0x5D020, symSize: 0x1B0 }
  - { offset: 0x7D408, size: 0x8, addend: 0x0, symName: __RNvXs_NtNtCslJiobkLta79_5alloc3vec21spec_from_iter_nestedINtB6_3VecNtNtCsdGrGZaRBwMb_3syn8generics14WherePredicateEINtB4_18SpecFromIterNestedB13_INtNtNtNtCsieiGu2EXtoJ_4core4iter8adapters3map3MapINtNtNtB2s_5slice4iter4IterNtCsaKzlTDPUHDb_11proc_macro25IdentENCNvCsliPDVd4pfgL_15zerofrom_derive14zf_derive_impls4_0EE9from_iterB4c_, symObjAddr: 0x3EE0, symBinAddr: 0x5D1D0, symSize: 0x1C0 }
  - { offset: 0x7D4E7, size: 0x8, addend: 0x0, symName: __RNvXs6_NtCslJiobkLta79_5alloc3vecINtB5_3VecNtCsaKzlTDPUHDb_11proc_macro25IdentENtNtNtCsieiGu2EXtoJ_4core3ops5deref5Deref5derefCsliPDVd4pfgL_15zerofrom_derive, symObjAddr: 0x3960, symBinAddr: 0x5CC50, symSize: 0x20 }
  - { offset: 0x7D527, size: 0x8, addend: 0x0, symName: __RNvXs6_NtCslJiobkLta79_5alloc3vecINtB5_3VecNtNtCsdGrGZaRBwMb_3syn8generics9TypeParamENtNtNtCsieiGu2EXtoJ_4core3ops5deref5Deref5derefCsliPDVd4pfgL_15zerofrom_derive, symObjAddr: 0x3980, symBinAddr: 0x5CC70, symSize: 0x20 }
  - { offset: 0x7D59D, size: 0x8, addend: 0x0, symName: __RNvXs7_NtCslJiobkLta79_5alloc3vecINtB5_3VecNtNtCsdGrGZaRBwMb_3syn8generics9TypeParamENtNtNtCsieiGu2EXtoJ_4core3ops5deref8DerefMut9deref_mutCsliPDVd4pfgL_15zerofrom_derive, symObjAddr: 0x39A0, symBinAddr: 0x5CC90, symSize: 0x20 }
  - { offset: 0x7D613, size: 0x8, addend: 0x0, symName: __RNvXs9_NtCslJiobkLta79_5alloc3vecINtB5_3VecNtCsaKzlTDPUHDb_11proc_macro25IdentENtNtCsieiGu2EXtoJ_4core5clone5Clone5cloneCsliPDVd4pfgL_15zerofrom_derive, symObjAddr: 0x39C0, symBinAddr: 0x5CCB0, symSize: 0x90 }
  - { offset: 0x7D7EF, size: 0x8, addend: 0x0, symName: __RNvXs_NtNtCslJiobkLta79_5alloc3vec16in_place_collectINtB6_3VecNtNtCsdGrGZaRBwMb_3syn4attr9AttributeEINtNtB6_14spec_from_iter12SpecFromIterBY_INtNtNtNtCsieiGu2EXtoJ_4core4iter8adapters3map3MapINtNtB6_9into_iter8IntoIterBY_ENCINvNtNtB12_3gen4fold8fold_vecBY_NtNvCsliPDVd4pfgL_15zerofrom_derive16replace_lifetime15ReplaceLifetimeNvYB46_NtB3D_4Fold14fold_attributeE0EE9from_iterB4a_, symObjAddr: 0x3A90, symBinAddr: 0x5CD80, symSize: 0x30 }
  - { offset: 0x7D84B, size: 0x8, addend: 0x0, symName: __RNvXs_NtNtCslJiobkLta79_5alloc3vec16in_place_collectINtB6_3VecNtNtCsdGrGZaRBwMb_3syn4attr9AttributeEINtNtB6_14spec_from_iter12SpecFromIterBY_INtNtNtNtCsieiGu2EXtoJ_4core4iter8adapters3map3MapINtNtB6_9into_iter8IntoIterBY_ENCINvNtNtB12_3gen4fold8fold_vecBY_NtNvCsliPDVd4pfgL_15zerofrom_derive25replace_lifetime_and_type20ReplaceLifetimeAndTyNvYB46_NtB3D_4Fold14fold_attributeE0EE9from_iterB4a_, symObjAddr: 0x3AC0, symBinAddr: 0x5CDB0, symSize: 0x30 }
  - { offset: 0x7D8A7, size: 0x8, addend: 0x0, symName: __RNvXs_NtNtCslJiobkLta79_5alloc3vec16in_place_collectINtB6_3VecNtNtCsdGrGZaRBwMb_3syn4expr3ArmEINtNtB6_14spec_from_iter12SpecFromIterBY_INtNtNtNtCsieiGu2EXtoJ_4core4iter8adapters3map3MapINtNtB6_9into_iter8IntoIterBY_ENCINvNtNtB12_3gen4fold8fold_vecBY_NtNvCsliPDVd4pfgL_15zerofrom_derive16replace_lifetime15ReplaceLifetimeNvYB40_NtB3x_4Fold8fold_armE0EE9from_iterB44_, symObjAddr: 0x3AF0, symBinAddr: 0x5CDE0, symSize: 0x30 }
  - { offset: 0x7D903, size: 0x8, addend: 0x0, symName: __RNvXs_NtNtCslJiobkLta79_5alloc3vec16in_place_collectINtB6_3VecNtNtCsdGrGZaRBwMb_3syn4expr3ArmEINtNtB6_14spec_from_iter12SpecFromIterBY_INtNtNtNtCsieiGu2EXtoJ_4core4iter8adapters3map3MapINtNtB6_9into_iter8IntoIterBY_ENCINvNtNtB12_3gen4fold8fold_vecBY_NtNvCsliPDVd4pfgL_15zerofrom_derive25replace_lifetime_and_type20ReplaceLifetimeAndTyNvYB40_NtB3x_4Fold8fold_armE0EE9from_iterB44_, symObjAddr: 0x3B20, symBinAddr: 0x5CE10, symSize: 0x30 }
  - { offset: 0x7D95F, size: 0x8, addend: 0x0, symName: __RNvXs_NtNtCslJiobkLta79_5alloc3vec16in_place_collectINtB6_3VecNtNtCsdGrGZaRBwMb_3syn4item11ForeignItemEINtNtB6_14spec_from_iter12SpecFromIterBY_INtNtNtNtCsieiGu2EXtoJ_4core4iter8adapters3map3MapINtNtB6_9into_iter8IntoIterBY_ENCINvNtNtB12_3gen4fold8fold_vecBY_NtNvCsliPDVd4pfgL_15zerofrom_derive16replace_lifetime15ReplaceLifetimeNvYB49_NtB3G_4Fold17fold_foreign_itemE0EE9from_iterB4d_, symObjAddr: 0x3B50, symBinAddr: 0x5CE40, symSize: 0x30 }
  - { offset: 0x7D9BB, size: 0x8, addend: 0x0, symName: __RNvXs_NtNtCslJiobkLta79_5alloc3vec16in_place_collectINtB6_3VecNtNtCsdGrGZaRBwMb_3syn4item11ForeignItemEINtNtB6_14spec_from_iter12SpecFromIterBY_INtNtNtNtCsieiGu2EXtoJ_4core4iter8adapters3map3MapINtNtB6_9into_iter8IntoIterBY_ENCINvNtNtB12_3gen4fold8fold_vecBY_NtNvCsliPDVd4pfgL_15zerofrom_derive25replace_lifetime_and_type20ReplaceLifetimeAndTyNvYB49_NtB3G_4Fold17fold_foreign_itemE0EE9from_iterB4d_, symObjAddr: 0x3B80, symBinAddr: 0x5CE70, symSize: 0x30 }
  - { offset: 0x7DA17, size: 0x8, addend: 0x0, symName: __RNvXs_NtNtCslJiobkLta79_5alloc3vec16in_place_collectINtB6_3VecNtNtCsdGrGZaRBwMb_3syn4item4ItemEINtNtB6_14spec_from_iter12SpecFromIterBY_INtNtNtNtCsieiGu2EXtoJ_4core4iter8adapters3map3MapINtNtB6_9into_iter8IntoIterBY_ENCINvNtNtB12_3gen4fold8fold_vecBY_NtNvCsliPDVd4pfgL_15zerofrom_derive16replace_lifetime15ReplaceLifetimeNvYB41_NtB3y_4Fold9fold_itemE0EE9from_iterB45_, symObjAddr: 0x3BB0, symBinAddr: 0x5CEA0, symSize: 0x30 }
  - { offset: 0x7DA73, size: 0x8, addend: 0x0, symName: __RNvXs_NtNtCslJiobkLta79_5alloc3vec16in_place_collectINtB6_3VecNtNtCsdGrGZaRBwMb_3syn4item4ItemEINtNtB6_14spec_from_iter12SpecFromIterBY_INtNtNtNtCsieiGu2EXtoJ_4core4iter8adapters3map3MapINtNtB6_9into_iter8IntoIterBY_ENCINvNtNtB12_3gen4fold8fold_vecBY_NtNvCsliPDVd4pfgL_15zerofrom_derive25replace_lifetime_and_type20ReplaceLifetimeAndTyNvYB41_NtB3y_4Fold9fold_itemE0EE9from_iterB45_, symObjAddr: 0x3BE0, symBinAddr: 0x5CED0, symSize: 0x30 }
  - { offset: 0x7DACF, size: 0x8, addend: 0x0, symName: __RNvXs_NtNtCslJiobkLta79_5alloc3vec16in_place_collectINtB6_3VecNtNtCsdGrGZaRBwMb_3syn4item8ImplItemEINtNtB6_14spec_from_iter12SpecFromIterBY_INtNtNtNtCsieiGu2EXtoJ_4core4iter8adapters3map3MapINtNtB6_9into_iter8IntoIterBY_ENCINvNtNtB12_3gen4fold8fold_vecBY_NtNvCsliPDVd4pfgL_15zerofrom_derive16replace_lifetime15ReplaceLifetimeNvYB45_NtB3C_4Fold14fold_impl_itemE0EE9from_iterB49_, symObjAddr: 0x3C10, symBinAddr: 0x5CF00, symSize: 0x30 }
  - { offset: 0x7DB2B, size: 0x8, addend: 0x0, symName: __RNvXs_NtNtCslJiobkLta79_5alloc3vec16in_place_collectINtB6_3VecNtNtCsdGrGZaRBwMb_3syn4item8ImplItemEINtNtB6_14spec_from_iter12SpecFromIterBY_INtNtNtNtCsieiGu2EXtoJ_4core4iter8adapters3map3MapINtNtB6_9into_iter8IntoIterBY_ENCINvNtNtB12_3gen4fold8fold_vecBY_NtNvCsliPDVd4pfgL_15zerofrom_derive25replace_lifetime_and_type20ReplaceLifetimeAndTyNvYB45_NtB3C_4Fold14fold_impl_itemE0EE9from_iterB49_, symObjAddr: 0x3C40, symBinAddr: 0x5CF30, symSize: 0x30 }
  - { offset: 0x7DB87, size: 0x8, addend: 0x0, symName: __RNvXs_NtNtCslJiobkLta79_5alloc3vec16in_place_collectINtB6_3VecNtNtCsdGrGZaRBwMb_3syn4item9TraitItemEINtNtB6_14spec_from_iter12SpecFromIterBY_INtNtNtNtCsieiGu2EXtoJ_4core4iter8adapters3map3MapINtNtB6_9into_iter8IntoIterBY_ENCINvNtNtB12_3gen4fold8fold_vecBY_NtNvCsliPDVd4pfgL_15zerofrom_derive16replace_lifetime15ReplaceLifetimeNvYB46_NtB3D_4Fold15fold_trait_itemE0EE9from_iterB4a_, symObjAddr: 0x3C70, symBinAddr: 0x5CF60, symSize: 0x30 }
  - { offset: 0x7DBE3, size: 0x8, addend: 0x0, symName: __RNvXs_NtNtCslJiobkLta79_5alloc3vec16in_place_collectINtB6_3VecNtNtCsdGrGZaRBwMb_3syn4item9TraitItemEINtNtB6_14spec_from_iter12SpecFromIterBY_INtNtNtNtCsieiGu2EXtoJ_4core4iter8adapters3map3MapINtNtB6_9into_iter8IntoIterBY_ENCINvNtNtB12_3gen4fold8fold_vecBY_NtNvCsliPDVd4pfgL_15zerofrom_derive25replace_lifetime_and_type20ReplaceLifetimeAndTyNvYB46_NtB3D_4Fold15fold_trait_itemE0EE9from_iterB4a_, symObjAddr: 0x3CA0, symBinAddr: 0x5CF90, symSize: 0x30 }
  - { offset: 0x7DC3F, size: 0x8, addend: 0x0, symName: __RNvXs_NtNtCslJiobkLta79_5alloc3vec16in_place_collectINtB6_3VecNtNtCsdGrGZaRBwMb_3syn4stmt4StmtEINtNtB6_14spec_from_iter12SpecFromIterBY_INtNtNtNtCsieiGu2EXtoJ_4core4iter8adapters3map3MapINtNtB6_9into_iter8IntoIterBY_ENCINvNtNtB12_3gen4fold8fold_vecBY_NtNvCsliPDVd4pfgL_15zerofrom_derive16replace_lifetime15ReplaceLifetimeNvYB41_NtB3y_4Fold9fold_stmtE0EE9from_iterB45_, symObjAddr: 0x3CD0, symBinAddr: 0x5CFC0, symSize: 0x30 }
  - { offset: 0x7DC9B, size: 0x8, addend: 0x0, symName: __RNvXs_NtNtCslJiobkLta79_5alloc3vec16in_place_collectINtB6_3VecNtNtCsdGrGZaRBwMb_3syn4stmt4StmtEINtNtB6_14spec_from_iter12SpecFromIterBY_INtNtNtNtCsieiGu2EXtoJ_4core4iter8adapters3map3MapINtNtB6_9into_iter8IntoIterBY_ENCINvNtNtB12_3gen4fold8fold_vecBY_NtNvCsliPDVd4pfgL_15zerofrom_derive25replace_lifetime_and_type20ReplaceLifetimeAndTyNvYB41_NtB3y_4Fold9fold_stmtE0EE9from_iterB45_, symObjAddr: 0x3D00, symBinAddr: 0x5CFF0, symSize: 0x30 }
  - { offset: 0x7DCFE, size: 0x8, addend: 0x0, symName: __RNvXse_NtCslJiobkLta79_5alloc3vecINtB5_3VecNtCsaKzlTDPUHDb_11proc_macro25IdentENtNtNtNtCsieiGu2EXtoJ_4core4iter6traits7collect12IntoIterator9into_iterCsliPDVd4pfgL_15zerofrom_derive, symObjAddr: 0x40A0, symBinAddr: 0x5D390, symSize: 0x140 }
  - { offset: 0x7DF8E, size: 0x8, addend: 0x0, symName: __RNvXse_NtCslJiobkLta79_5alloc3vecINtB5_3VecNtNtCsdGrGZaRBwMb_3syn4expr3ArmENtNtNtNtCsieiGu2EXtoJ_4core4iter6traits7collect12IntoIterator9into_iterCsliPDVd4pfgL_15zerofrom_derive, symObjAddr: 0x41E0, symBinAddr: 0x5D4D0, symSize: 0x140 }
  - { offset: 0x7E21E, size: 0x8, addend: 0x0, symName: __RNvXse_NtCslJiobkLta79_5alloc3vecINtB5_3VecNtNtCsdGrGZaRBwMb_3syn4item11ForeignItemENtNtNtNtCsieiGu2EXtoJ_4core4iter6traits7collect12IntoIterator9into_iterCsliPDVd4pfgL_15zerofrom_derive, symObjAddr: 0x4320, symBinAddr: 0x5D610, symSize: 0x140 }
  - { offset: 0x7E4AE, size: 0x8, addend: 0x0, symName: __RNvXse_NtCslJiobkLta79_5alloc3vecINtB5_3VecNtNtCsdGrGZaRBwMb_3syn4item4ItemENtNtNtNtCsieiGu2EXtoJ_4core4iter6traits7collect12IntoIterator9into_iterCsliPDVd4pfgL_15zerofrom_derive, symObjAddr: 0x4460, symBinAddr: 0x5D750, symSize: 0x140 }
  - { offset: 0x7E73E, size: 0x8, addend: 0x0, symName: __RNvXse_NtCslJiobkLta79_5alloc3vecINtB5_3VecNtNtCsdGrGZaRBwMb_3syn4item8ImplItemENtNtNtNtCsieiGu2EXtoJ_4core4iter6traits7collect12IntoIterator9into_iterCsliPDVd4pfgL_15zerofrom_derive, symObjAddr: 0x45A0, symBinAddr: 0x5D890, symSize: 0x140 }
  - { offset: 0x7E9CE, size: 0x8, addend: 0x0, symName: __RNvXse_NtCslJiobkLta79_5alloc3vecINtB5_3VecNtNtCsdGrGZaRBwMb_3syn4item9TraitItemENtNtNtNtCsieiGu2EXtoJ_4core4iter6traits7collect12IntoIterator9into_iterCsliPDVd4pfgL_15zerofrom_derive, symObjAddr: 0x46E0, symBinAddr: 0x5D9D0, symSize: 0x140 }
  - { offset: 0x7EC5E, size: 0x8, addend: 0x0, symName: __RNvXse_NtCslJiobkLta79_5alloc3vecINtB5_3VecNtNtCsdGrGZaRBwMb_3syn4stmt4StmtENtNtNtNtCsieiGu2EXtoJ_4core4iter6traits7collect12IntoIterator9into_iterCsliPDVd4pfgL_15zerofrom_derive, symObjAddr: 0x4820, symBinAddr: 0x5DB10, symSize: 0x140 }
  - { offset: 0x7EEEE, size: 0x8, addend: 0x0, symName: __RNvXse_NtCslJiobkLta79_5alloc3vecINtB5_3VecTNtCsaKzlTDPUHDb_11proc_macro25IdentNtNtCsdGrGZaRBwMb_3syn5token5CommaEENtNtNtNtCsieiGu2EXtoJ_4core4iter6traits7collect12IntoIterator9into_iterCsliPDVd4pfgL_15zerofrom_derive, symObjAddr: 0x4960, symBinAddr: 0x5DC50, symSize: 0x140 }
  - { offset: 0x7F184, size: 0x8, addend: 0x0, symName: __RNvXsg_NtCslJiobkLta79_5alloc3vecQINtB5_3VecNtCsaKzlTDPUHDb_11proc_macro25IdentENtNtNtNtCsieiGu2EXtoJ_4core4iter6traits7collect12IntoIterator9into_iterCsliPDVd4pfgL_15zerofrom_derive, symObjAddr: 0x4AA0, symBinAddr: 0x5DD90, symSize: 0x90 }
  - { offset: 0x7F3AB, size: 0x8, addend: 0x0, symName: __RNvXsn_NtCslJiobkLta79_5alloc3vecINtB5_3VecNtCsaKzlTDPUHDb_11proc_macro25IdentENtNtNtCsieiGu2EXtoJ_4core3ops4drop4Drop4dropCsliPDVd4pfgL_15zerofrom_derive, symObjAddr: 0x7A70, symBinAddr: 0x60D60, symSize: 0x30 }
  - { offset: 0x7F45B, size: 0x8, addend: 0x0, symName: __RNvXsn_NtCslJiobkLta79_5alloc3vecINtB5_3VecNtNtCsdGrGZaRBwMb_3syn8generics14WherePredicateENtNtNtCsieiGu2EXtoJ_4core3ops4drop4Drop4dropCsliPDVd4pfgL_15zerofrom_derive, symObjAddr: 0x7AA0, symBinAddr: 0x60D90, symSize: 0x30 }
  - { offset: 0x7F50B, size: 0x8, addend: 0x0, symName: __RNvXsn_NtCslJiobkLta79_5alloc3vecINtB5_3VecNtNtCsdGrGZaRBwMb_3syn8generics9TypeParamENtNtNtCsieiGu2EXtoJ_4core3ops4drop4Drop4dropCsliPDVd4pfgL_15zerofrom_derive, symObjAddr: 0x7AD0, symBinAddr: 0x60DC0, symSize: 0x30 }
  - { offset: 0x7F5BB, size: 0x8, addend: 0x0, symName: __RNvXsn_NtCslJiobkLta79_5alloc3vecINtB5_3VecTNtCsaKzlTDPUHDb_11proc_macro25IdentNtNtCsdGrGZaRBwMb_3syn5token5CommaEENtNtNtCsieiGu2EXtoJ_4core3ops4drop4Drop4dropCsliPDVd4pfgL_15zerofrom_derive, symObjAddr: 0x7B00, symBinAddr: 0x60DF0, symSize: 0x30 }
  - { offset: 0x7FAEF, size: 0x8, addend: 0x0, symName: __RNvXsk_NtNtCslJiobkLta79_5alloc11collections9vec_dequeINtNtB9_3vec3VecTNtNtCsdGrGZaRBwMb_3syn2ty4TypeNtNtB1b_5token5CommaEEINtNtCsieiGu2EXtoJ_4core7convert4FromINtB5_8VecDequeB16_EE4fromCsliPDVd4pfgL_15zerofrom_derive, symObjAddr: 0x4B30, symBinAddr: 0x5DE20, symSize: 0x2A0 }
  - { offset: 0x7FDAD, size: 0x8, addend: 0x0, symName: __RNvXsk_NtNtCslJiobkLta79_5alloc11collections9vec_dequeINtNtB9_3vec3VecTNtNtCsdGrGZaRBwMb_3syn2ty9BareFnArgNtNtB1b_5token5CommaEEINtNtCsieiGu2EXtoJ_4core7convert4FromINtB5_8VecDequeB16_EE4fromCsliPDVd4pfgL_15zerofrom_derive, symObjAddr: 0x4DD0, symBinAddr: 0x5E0C0, symSize: 0x2A0 }
  - { offset: 0x8006B, size: 0x8, addend: 0x0, symName: __RNvXsk_NtNtCslJiobkLta79_5alloc11collections9vec_dequeINtNtB9_3vec3VecTNtNtCsdGrGZaRBwMb_3syn3pat3PatNtNtB1b_5token2OrEEINtNtCsieiGu2EXtoJ_4core7convert4FromINtB5_8VecDequeB16_EE4fromCsliPDVd4pfgL_15zerofrom_derive, symObjAddr: 0x5070, symBinAddr: 0x5E360, symSize: 0x2A0 }
  - { offset: 0x80329, size: 0x8, addend: 0x0, symName: __RNvXsk_NtNtCslJiobkLta79_5alloc11collections9vec_dequeINtNtB9_3vec3VecTNtNtCsdGrGZaRBwMb_3syn3pat3PatNtNtB1b_5token5CommaEEINtNtCsieiGu2EXtoJ_4core7convert4FromINtB5_8VecDequeB16_EE4fromCsliPDVd4pfgL_15zerofrom_derive, symObjAddr: 0x5310, symBinAddr: 0x5E600, symSize: 0x2A0 }
  - { offset: 0x805E7, size: 0x8, addend: 0x0, symName: __RNvXsk_NtNtCslJiobkLta79_5alloc11collections9vec_dequeINtNtB9_3vec3VecTNtNtCsdGrGZaRBwMb_3syn3pat8FieldPatNtNtB1b_5token5CommaEEINtNtCsieiGu2EXtoJ_4core7convert4FromINtB5_8VecDequeB16_EE4fromCsliPDVd4pfgL_15zerofrom_derive, symObjAddr: 0x55B0, symBinAddr: 0x5E8A0, symSize: 0x2A0 }
  - { offset: 0x808A5, size: 0x8, addend: 0x0, symName: __RNvXsk_NtNtCslJiobkLta79_5alloc11collections9vec_dequeINtNtB9_3vec3VecTNtNtCsdGrGZaRBwMb_3syn4data5FieldNtNtB1b_5token5CommaEEINtNtCsieiGu2EXtoJ_4core7convert4FromINtB5_8VecDequeB16_EE4fromCsliPDVd4pfgL_15zerofrom_derive, symObjAddr: 0x5850, symBinAddr: 0x5EB40, symSize: 0x2A0 }
  - { offset: 0x80B63, size: 0x8, addend: 0x0, symName: __RNvXsk_NtNtCslJiobkLta79_5alloc11collections9vec_dequeINtNtB9_3vec3VecTNtNtCsdGrGZaRBwMb_3syn4data7VariantNtNtB1b_5token5CommaEEINtNtCsieiGu2EXtoJ_4core7convert4FromINtB5_8VecDequeB16_EE4fromCsliPDVd4pfgL_15zerofrom_derive, symObjAddr: 0x5AF0, symBinAddr: 0x5EDE0, symSize: 0x2A0 }
  - { offset: 0x80E21, size: 0x8, addend: 0x0, symName: __RNvXsk_NtNtCslJiobkLta79_5alloc11collections9vec_dequeINtNtB9_3vec3VecTNtNtCsdGrGZaRBwMb_3syn4expr10FieldValueNtNtB1b_5token5CommaEEINtNtCsieiGu2EXtoJ_4core7convert4FromINtB5_8VecDequeB16_EE4fromCsliPDVd4pfgL_15zerofrom_derive, symObjAddr: 0x5D90, symBinAddr: 0x5F080, symSize: 0x2A0 }
  - { offset: 0x810DF, size: 0x8, addend: 0x0, symName: __RNvXsk_NtNtCslJiobkLta79_5alloc11collections9vec_dequeINtNtB9_3vec3VecTNtNtCsdGrGZaRBwMb_3syn4expr4ExprNtNtB1b_5token5CommaEEINtNtCsieiGu2EXtoJ_4core7convert4FromINtB5_8VecDequeB16_EE4fromCsliPDVd4pfgL_15zerofrom_derive, symObjAddr: 0x6030, symBinAddr: 0x5F320, symSize: 0x2A0 }
  - { offset: 0x8139D, size: 0x8, addend: 0x0, symName: __RNvXsk_NtNtCslJiobkLta79_5alloc11collections9vec_dequeINtNtB9_3vec3VecTNtNtCsdGrGZaRBwMb_3syn4item5FnArgNtNtB1b_5token5CommaEEINtNtCsieiGu2EXtoJ_4core7convert4FromINtB5_8VecDequeB16_EE4fromCsliPDVd4pfgL_15zerofrom_derive, symObjAddr: 0x62D0, symBinAddr: 0x5F5C0, symSize: 0x2A0 }
  - { offset: 0x8165B, size: 0x8, addend: 0x0, symName: __RNvXsk_NtNtCslJiobkLta79_5alloc11collections9vec_dequeINtNtB9_3vec3VecTNtNtCsdGrGZaRBwMb_3syn4item7UseTreeNtNtB1b_5token5CommaEEINtNtCsieiGu2EXtoJ_4core7convert4FromINtB5_8VecDequeB16_EE4fromCsliPDVd4pfgL_15zerofrom_derive, symObjAddr: 0x6570, symBinAddr: 0x5F860, symSize: 0x2A0 }
  - { offset: 0x81919, size: 0x8, addend: 0x0, symName: __RNvXsk_NtNtCslJiobkLta79_5alloc11collections9vec_dequeINtNtB9_3vec3VecTNtNtCsdGrGZaRBwMb_3syn4path11PathSegmentNtNtB1b_5token7PathSepEEINtNtCsieiGu2EXtoJ_4core7convert4FromINtB5_8VecDequeB16_EE4fromCsliPDVd4pfgL_15zerofrom_derive, symObjAddr: 0x6810, symBinAddr: 0x5FB00, symSize: 0x2A0 }
  - { offset: 0x81BD7, size: 0x8, addend: 0x0, symName: __RNvXsk_NtNtCslJiobkLta79_5alloc11collections9vec_dequeINtNtB9_3vec3VecTNtNtCsdGrGZaRBwMb_3syn4path15GenericArgumentNtNtB1b_5token5CommaEEINtNtCsieiGu2EXtoJ_4core7convert4FromINtB5_8VecDequeB16_EE4fromCsliPDVd4pfgL_15zerofrom_derive, symObjAddr: 0x6AB0, symBinAddr: 0x5FDA0, symSize: 0x2A0 }
  - { offset: 0x81E95, size: 0x8, addend: 0x0, symName: __RNvXsk_NtNtCslJiobkLta79_5alloc11collections9vec_dequeINtNtB9_3vec3VecTNtNtCsdGrGZaRBwMb_3syn8generics12GenericParamNtNtB1b_5token5CommaEEINtNtCsieiGu2EXtoJ_4core7convert4FromINtB5_8VecDequeB16_EE4fromCsliPDVd4pfgL_15zerofrom_derive, symObjAddr: 0x6D50, symBinAddr: 0x60040, symSize: 0x2A0 }
  - { offset: 0x82153, size: 0x8, addend: 0x0, symName: __RNvXsk_NtNtCslJiobkLta79_5alloc11collections9vec_dequeINtNtB9_3vec3VecTNtNtCsdGrGZaRBwMb_3syn8generics13CapturedParamNtNtB1b_5token5CommaEEINtNtCsieiGu2EXtoJ_4core7convert4FromINtB5_8VecDequeB16_EE4fromCsliPDVd4pfgL_15zerofrom_derive, symObjAddr: 0x6FF0, symBinAddr: 0x602E0, symSize: 0x2A0 }
  - { offset: 0x82411, size: 0x8, addend: 0x0, symName: __RNvXsk_NtNtCslJiobkLta79_5alloc11collections9vec_dequeINtNtB9_3vec3VecTNtNtCsdGrGZaRBwMb_3syn8generics14TypeParamBoundNtNtB1b_5token4PlusEEINtNtCsieiGu2EXtoJ_4core7convert4FromINtB5_8VecDequeB16_EE4fromCsliPDVd4pfgL_15zerofrom_derive, symObjAddr: 0x7290, symBinAddr: 0x60580, symSize: 0x2A0 }
  - { offset: 0x826CF, size: 0x8, addend: 0x0, symName: __RNvXsk_NtNtCslJiobkLta79_5alloc11collections9vec_dequeINtNtB9_3vec3VecTNtNtCsdGrGZaRBwMb_3syn8generics14WherePredicateNtNtB1b_5token5CommaEEINtNtCsieiGu2EXtoJ_4core7convert4FromINtB5_8VecDequeB16_EE4fromCsliPDVd4pfgL_15zerofrom_derive, symObjAddr: 0x7530, symBinAddr: 0x60820, symSize: 0x2A0 }
  - { offset: 0x8298D, size: 0x8, addend: 0x0, symName: __RNvXsk_NtNtCslJiobkLta79_5alloc11collections9vec_dequeINtNtB9_3vec3VecTNtNtCsdGrGZaRBwMb_3syn8lifetime8LifetimeNtNtB1b_5token4PlusEEINtNtCsieiGu2EXtoJ_4core7convert4FromINtB5_8VecDequeB16_EE4fromCsliPDVd4pfgL_15zerofrom_derive, symObjAddr: 0x77D0, symBinAddr: 0x60AC0, symSize: 0x2A0 }
  - { offset: 0x88AB0, size: 0x8, addend: 0x0, symName: __RINvMsi_NtCslJiobkLta79_5alloc3vecINtB6_3VecNtCsaKzlTDPUHDb_11proc_macro25IdentE14extend_trustedINtNtNtNtCsieiGu2EXtoJ_4core4iter8adapters3map3MapINtNtNtB1F_5slice4iter4IterNtNtCsdGrGZaRBwMb_3syn8generics9TypeParamENCNvCsliPDVd4pfgL_15zerofrom_derive14zf_derive_impls_0EEB3v_, symObjAddr: 0x0, symBinAddr: 0x592F0, symSize: 0x1A0 }
  - { offset: 0x88DB5, size: 0x8, addend: 0x0, symName: __RINvMsi_NtCslJiobkLta79_5alloc3vecINtB6_3VecNtNtCsdGrGZaRBwMb_3syn8generics14WherePredicateE14extend_trustedINtNtNtNtCsieiGu2EXtoJ_4core4iter8adapters3map3MapINtNtNtB1R_5slice4iter4IterNtCsaKzlTDPUHDb_11proc_macro25IdentENCNvCsliPDVd4pfgL_15zerofrom_derive14zf_derive_impls4_0EEB3B_, symObjAddr: 0x1A0, symBinAddr: 0x59490, symSize: 0x1B0 }
  - { offset: 0x8917F, size: 0x8, addend: 0x0, symName: __RINvMsi_NtCslJiobkLta79_5alloc3vecINtB6_3VecNtNtCsdGrGZaRBwMb_3syn8generics9TypeParamE16extend_desugaredINtNtNtNtCsieiGu2EXtoJ_4core4iter8adapters3map3MapNtBI_10TypeParamsNCNvCsliPDVd4pfgL_15zerofrom_derive14zf_derive_impl0EEB2N_, symObjAddr: 0x350, symBinAddr: 0x59640, symSize: 0x250 }
  - { offset: 0x894B4, size: 0x8, addend: 0x0, symName: __RNvMNtCslJiobkLta79_5alloc3vecINtB2_3VecNtCsaKzlTDPUHDb_11proc_macro25IdentE13with_capacityCsliPDVd4pfgL_15zerofrom_derive, symObjAddr: 0xAB0, symBinAddr: 0x59DA0, symSize: 0x60 }
  - { offset: 0x8954A, size: 0x8, addend: 0x0, symName: __RNvMNtCslJiobkLta79_5alloc3vecINtB2_3VecTNtCsaKzlTDPUHDb_11proc_macro25IdentNtNtCsdGrGZaRBwMb_3syn5token5CommaEE3newCsliPDVd4pfgL_15zerofrom_derive, symObjAddr: 0xB10, symBinAddr: 0x59E00, symSize: 0x30 }
  - { offset: 0x89567, size: 0x8, addend: 0x0, symName: __RNvMs_NtCslJiobkLta79_5alloc3vecINtB4_3VecNtCsaKzlTDPUHDb_11proc_macro25IdentE4pushCsliPDVd4pfgL_15zerofrom_derive, symObjAddr: 0xB40, symBinAddr: 0x59E30, symSize: 0x20 }
  - { offset: 0x896DC, size: 0x8, addend: 0x0, symName: __RNvMs_NtCslJiobkLta79_5alloc3vecINtB4_3VecNtCsaKzlTDPUHDb_11proc_macro25IdentE7reserveCsliPDVd4pfgL_15zerofrom_derive, symObjAddr: 0xB60, symBinAddr: 0x59E50, symSize: 0xB0 }
  - { offset: 0x898DA, size: 0x8, addend: 0x0, symName: __RNvMs_NtCslJiobkLta79_5alloc3vecINtB4_3VecNtCsaKzlTDPUHDb_11proc_macro25IdentE7set_lenCsliPDVd4pfgL_15zerofrom_derive, symObjAddr: 0xC10, symBinAddr: 0x59F00, symSize: 0x70 }
  - { offset: 0x89A4A, size: 0x8, addend: 0x0, symName: __RNvMs_NtCslJiobkLta79_5alloc3vecINtB4_3VecNtCsaKzlTDPUHDb_11proc_macro25IdentE8as_sliceCsliPDVd4pfgL_15zerofrom_derive, symObjAddr: 0xC80, symBinAddr: 0x59F70, symSize: 0x50 }
  - { offset: 0x89BF0, size: 0x8, addend: 0x0, symName: __RNvMs_NtCslJiobkLta79_5alloc3vecINtB4_3VecNtCsaKzlTDPUHDb_11proc_macro25IdentE8push_mutCsliPDVd4pfgL_15zerofrom_derive, symObjAddr: 0xCD0, symBinAddr: 0x59FC0, symSize: 0x110 }
  - { offset: 0x89EBB, size: 0x8, addend: 0x0, symName: __RNvMs_NtCslJiobkLta79_5alloc3vecINtB4_3VecNtNtCsdGrGZaRBwMb_3syn8generics14WherePredicateE7reserveCsliPDVd4pfgL_15zerofrom_derive, symObjAddr: 0xDE0, symBinAddr: 0x5A0D0, symSize: 0xB0 }
  - { offset: 0x8A0CF, size: 0x8, addend: 0x0, symName: __RNvMs_NtCslJiobkLta79_5alloc3vecINtB4_3VecNtNtCsdGrGZaRBwMb_3syn8generics9TypeParamE12as_mut_sliceCsliPDVd4pfgL_15zerofrom_derive, symObjAddr: 0xE90, symBinAddr: 0x5A180, symSize: 0x50 }
  - { offset: 0x8A19E, size: 0x8, addend: 0x0, symName: __RNvMs_NtCslJiobkLta79_5alloc3vecINtB4_3VecNtNtCsdGrGZaRBwMb_3syn8generics9TypeParamE4pushCsliPDVd4pfgL_15zerofrom_derive, symObjAddr: 0xEE0, symBinAddr: 0x5A1D0, symSize: 0x20 }
  - { offset: 0x8A2F9, size: 0x8, addend: 0x0, symName: __RNvMs_NtCslJiobkLta79_5alloc3vecINtB4_3VecNtNtCsdGrGZaRBwMb_3syn8generics9TypeParamE7reserveCsliPDVd4pfgL_15zerofrom_derive, symObjAddr: 0xF00, symBinAddr: 0x5A1F0, symSize: 0xB0 }
  - { offset: 0x8A4F4, size: 0x8, addend: 0x0, symName: __RNvMs_NtCslJiobkLta79_5alloc3vecINtB4_3VecNtNtCsdGrGZaRBwMb_3syn8generics9TypeParamE8as_sliceCsliPDVd4pfgL_15zerofrom_derive, symObjAddr: 0xFB0, symBinAddr: 0x5A2A0, symSize: 0x50 }
  - { offset: 0x8A69A, size: 0x8, addend: 0x0, symName: __RNvMs_NtCslJiobkLta79_5alloc3vecINtB4_3VecNtNtCsdGrGZaRBwMb_3syn8generics9TypeParamE8push_mutCsliPDVd4pfgL_15zerofrom_derive, symObjAddr: 0x1000, symBinAddr: 0x5A2F0, symSize: 0x140 }
  - { offset: 0x8A85C, size: 0x8, addend: 0x0, symName: __RNvMs_NtCslJiobkLta79_5alloc3vecINtB4_3VecTNtCsaKzlTDPUHDb_11proc_macro25IdentNtNtCsdGrGZaRBwMb_3syn5token5CommaEE3lenCsliPDVd4pfgL_15zerofrom_derive, symObjAddr: 0x1140, symBinAddr: 0x5A430, symSize: 0x10 }
  - { offset: 0x8A89E, size: 0x8, addend: 0x0, symName: __RNvMs_NtCslJiobkLta79_5alloc3vecINtB4_3VecTNtCsaKzlTDPUHDb_11proc_macro25IdentNtNtCsdGrGZaRBwMb_3syn5token5CommaEE4pushCsliPDVd4pfgL_15zerofrom_derive, symObjAddr: 0x1150, symBinAddr: 0x5A440, symSize: 0x20 }
  - { offset: 0x8A9F6, size: 0x8, addend: 0x0, symName: __RNvMs_NtCslJiobkLta79_5alloc3vecINtB4_3VecTNtCsaKzlTDPUHDb_11proc_macro25IdentNtNtCsdGrGZaRBwMb_3syn5token5CommaEE8push_mutCsliPDVd4pfgL_15zerofrom_derive, symObjAddr: 0x1170, symBinAddr: 0x5A460, symSize: 0x120 }
  - { offset: 0x8AC99, size: 0x8, addend: 0x0, symName: __RNvMs_NtCslJiobkLta79_5alloc3vecINtB4_3VecTNtNtCsdGrGZaRBwMb_3syn2ty4TypeNtNtBJ_5token5CommaEE17from_raw_parts_inCsliPDVd4pfgL_15zerofrom_derive, symObjAddr: 0x1290, symBinAddr: 0x5A580, symSize: 0xA0 }
  - { offset: 0x8AFE6, size: 0x8, addend: 0x0, symName: __RNvMs_NtCslJiobkLta79_5alloc3vecINtB4_3VecTNtNtCsdGrGZaRBwMb_3syn2ty4TypeNtNtBJ_5token5CommaEE25into_raw_parts_with_allocCsliPDVd4pfgL_15zerofrom_derive, symObjAddr: 0x1330, symBinAddr: 0x5A620, symSize: 0x120 }
  - { offset: 0x8B35A, size: 0x8, addend: 0x0, symName: __RNvMs_NtCslJiobkLta79_5alloc3vecINtB4_3VecTNtNtCsdGrGZaRBwMb_3syn2ty9BareFnArgNtNtBJ_5token5CommaEE17from_raw_parts_inCsliPDVd4pfgL_15zerofrom_derive, symObjAddr: 0x1450, symBinAddr: 0x5A740, symSize: 0xA0 }
  - { offset: 0x8B6A7, size: 0x8, addend: 0x0, symName: __RNvMs_NtCslJiobkLta79_5alloc3vecINtB4_3VecTNtNtCsdGrGZaRBwMb_3syn2ty9BareFnArgNtNtBJ_5token5CommaEE25into_raw_parts_with_allocCsliPDVd4pfgL_15zerofrom_derive, symObjAddr: 0x14F0, symBinAddr: 0x5A7E0, symSize: 0x120 }
  - { offset: 0x8BA1B, size: 0x8, addend: 0x0, symName: __RNvMs_NtCslJiobkLta79_5alloc3vecINtB4_3VecTNtNtCsdGrGZaRBwMb_3syn3pat3PatNtNtBJ_5token2OrEE17from_raw_parts_inCsliPDVd4pfgL_15zerofrom_derive, symObjAddr: 0x1610, symBinAddr: 0x5A900, symSize: 0xA0 }
  - { offset: 0x8BD68, size: 0x8, addend: 0x0, symName: __RNvMs_NtCslJiobkLta79_5alloc3vecINtB4_3VecTNtNtCsdGrGZaRBwMb_3syn3pat3PatNtNtBJ_5token2OrEE25into_raw_parts_with_allocCsliPDVd4pfgL_15zerofrom_derive, symObjAddr: 0x16B0, symBinAddr: 0x5A9A0, symSize: 0x120 }
  - { offset: 0x8C0DC, size: 0x8, addend: 0x0, symName: __RNvMs_NtCslJiobkLta79_5alloc3vecINtB4_3VecTNtNtCsdGrGZaRBwMb_3syn3pat3PatNtNtBJ_5token5CommaEE17from_raw_parts_inCsliPDVd4pfgL_15zerofrom_derive, symObjAddr: 0x17D0, symBinAddr: 0x5AAC0, symSize: 0xA0 }
  - { offset: 0x8C429, size: 0x8, addend: 0x0, symName: __RNvMs_NtCslJiobkLta79_5alloc3vecINtB4_3VecTNtNtCsdGrGZaRBwMb_3syn3pat3PatNtNtBJ_5token5CommaEE25into_raw_parts_with_allocCsliPDVd4pfgL_15zerofrom_derive, symObjAddr: 0x1870, symBinAddr: 0x5AB60, symSize: 0x120 }
  - { offset: 0x8C79D, size: 0x8, addend: 0x0, symName: __RNvMs_NtCslJiobkLta79_5alloc3vecINtB4_3VecTNtNtCsdGrGZaRBwMb_3syn3pat8FieldPatNtNtBJ_5token5CommaEE17from_raw_parts_inCsliPDVd4pfgL_15zerofrom_derive, symObjAddr: 0x1990, symBinAddr: 0x5AC80, symSize: 0xA0 }
  - { offset: 0x8CAEA, size: 0x8, addend: 0x0, symName: __RNvMs_NtCslJiobkLta79_5alloc3vecINtB4_3VecTNtNtCsdGrGZaRBwMb_3syn3pat8FieldPatNtNtBJ_5token5CommaEE25into_raw_parts_with_allocCsliPDVd4pfgL_15zerofrom_derive, symObjAddr: 0x1A30, symBinAddr: 0x5AD20, symSize: 0x120 }
  - { offset: 0x8CE5E, size: 0x8, addend: 0x0, symName: __RNvMs_NtCslJiobkLta79_5alloc3vecINtB4_3VecTNtNtCsdGrGZaRBwMb_3syn4data5FieldNtNtBJ_5token5CommaEE17from_raw_parts_inCsliPDVd4pfgL_15zerofrom_derive, symObjAddr: 0x1B50, symBinAddr: 0x5AE40, symSize: 0xA0 }
  - { offset: 0x8D1AB, size: 0x8, addend: 0x0, symName: __RNvMs_NtCslJiobkLta79_5alloc3vecINtB4_3VecTNtNtCsdGrGZaRBwMb_3syn4data5FieldNtNtBJ_5token5CommaEE25into_raw_parts_with_allocCsliPDVd4pfgL_15zerofrom_derive, symObjAddr: 0x1BF0, symBinAddr: 0x5AEE0, symSize: 0x120 }
  - { offset: 0x8D51F, size: 0x8, addend: 0x0, symName: __RNvMs_NtCslJiobkLta79_5alloc3vecINtB4_3VecTNtNtCsdGrGZaRBwMb_3syn4data7VariantNtNtBJ_5token5CommaEE17from_raw_parts_inCsliPDVd4pfgL_15zerofrom_derive, symObjAddr: 0x1D10, symBinAddr: 0x5B000, symSize: 0xA0 }
  - { offset: 0x8D86C, size: 0x8, addend: 0x0, symName: __RNvMs_NtCslJiobkLta79_5alloc3vecINtB4_3VecTNtNtCsdGrGZaRBwMb_3syn4data7VariantNtNtBJ_5token5CommaEE25into_raw_parts_with_allocCsliPDVd4pfgL_15zerofrom_derive, symObjAddr: 0x1DB0, symBinAddr: 0x5B0A0, symSize: 0x120 }
  - { offset: 0x8DBE0, size: 0x8, addend: 0x0, symName: __RNvMs_NtCslJiobkLta79_5alloc3vecINtB4_3VecTNtNtCsdGrGZaRBwMb_3syn4expr10FieldValueNtNtBJ_5token5CommaEE17from_raw_parts_inCsliPDVd4pfgL_15zerofrom_derive, symObjAddr: 0x1ED0, symBinAddr: 0x5B1C0, symSize: 0xA0 }
  - { offset: 0x8DF2D, size: 0x8, addend: 0x0, symName: __RNvMs_NtCslJiobkLta79_5alloc3vecINtB4_3VecTNtNtCsdGrGZaRBwMb_3syn4expr10FieldValueNtNtBJ_5token5CommaEE25into_raw_parts_with_allocCsliPDVd4pfgL_15zerofrom_derive, symObjAddr: 0x1F70, symBinAddr: 0x5B260, symSize: 0x120 }
  - { offset: 0x8E2A1, size: 0x8, addend: 0x0, symName: __RNvMs_NtCslJiobkLta79_5alloc3vecINtB4_3VecTNtNtCsdGrGZaRBwMb_3syn4expr4ExprNtNtBJ_5token5CommaEE17from_raw_parts_inCsliPDVd4pfgL_15zerofrom_derive, symObjAddr: 0x2090, symBinAddr: 0x5B380, symSize: 0xA0 }
  - { offset: 0x8E5EE, size: 0x8, addend: 0x0, symName: __RNvMs_NtCslJiobkLta79_5alloc3vecINtB4_3VecTNtNtCsdGrGZaRBwMb_3syn4expr4ExprNtNtBJ_5token5CommaEE25into_raw_parts_with_allocCsliPDVd4pfgL_15zerofrom_derive, symObjAddr: 0x2130, symBinAddr: 0x5B420, symSize: 0x120 }
  - { offset: 0x8E962, size: 0x8, addend: 0x0, symName: __RNvMs_NtCslJiobkLta79_5alloc3vecINtB4_3VecTNtNtCsdGrGZaRBwMb_3syn4item5FnArgNtNtBJ_5token5CommaEE17from_raw_parts_inCsliPDVd4pfgL_15zerofrom_derive, symObjAddr: 0x2250, symBinAddr: 0x5B540, symSize: 0xA0 }
  - { offset: 0x8ECAF, size: 0x8, addend: 0x0, symName: __RNvMs_NtCslJiobkLta79_5alloc3vecINtB4_3VecTNtNtCsdGrGZaRBwMb_3syn4item5FnArgNtNtBJ_5token5CommaEE25into_raw_parts_with_allocCsliPDVd4pfgL_15zerofrom_derive, symObjAddr: 0x22F0, symBinAddr: 0x5B5E0, symSize: 0x120 }
  - { offset: 0x8F023, size: 0x8, addend: 0x0, symName: __RNvMs_NtCslJiobkLta79_5alloc3vecINtB4_3VecTNtNtCsdGrGZaRBwMb_3syn4item7UseTreeNtNtBJ_5token5CommaEE17from_raw_parts_inCsliPDVd4pfgL_15zerofrom_derive, symObjAddr: 0x2410, symBinAddr: 0x5B700, symSize: 0xA0 }
  - { offset: 0x8F370, size: 0x8, addend: 0x0, symName: __RNvMs_NtCslJiobkLta79_5alloc3vecINtB4_3VecTNtNtCsdGrGZaRBwMb_3syn4item7UseTreeNtNtBJ_5token5CommaEE25into_raw_parts_with_allocCsliPDVd4pfgL_15zerofrom_derive, symObjAddr: 0x24B0, symBinAddr: 0x5B7A0, symSize: 0x120 }
  - { offset: 0x8F6E4, size: 0x8, addend: 0x0, symName: __RNvMs_NtCslJiobkLta79_5alloc3vecINtB4_3VecTNtNtCsdGrGZaRBwMb_3syn4path11PathSegmentNtNtBJ_5token7PathSepEE17from_raw_parts_inCsliPDVd4pfgL_15zerofrom_derive, symObjAddr: 0x25D0, symBinAddr: 0x5B8C0, symSize: 0xA0 }
  - { offset: 0x8FA31, size: 0x8, addend: 0x0, symName: __RNvMs_NtCslJiobkLta79_5alloc3vecINtB4_3VecTNtNtCsdGrGZaRBwMb_3syn4path11PathSegmentNtNtBJ_5token7PathSepEE25into_raw_parts_with_allocCsliPDVd4pfgL_15zerofrom_derive, symObjAddr: 0x2670, symBinAddr: 0x5B960, symSize: 0x120 }
  - { offset: 0x8FDA5, size: 0x8, addend: 0x0, symName: __RNvMs_NtCslJiobkLta79_5alloc3vecINtB4_3VecTNtNtCsdGrGZaRBwMb_3syn4path15GenericArgumentNtNtBJ_5token5CommaEE17from_raw_parts_inCsliPDVd4pfgL_15zerofrom_derive, symObjAddr: 0x2790, symBinAddr: 0x5BA80, symSize: 0xA0 }
  - { offset: 0x900F2, size: 0x8, addend: 0x0, symName: __RNvMs_NtCslJiobkLta79_5alloc3vecINtB4_3VecTNtNtCsdGrGZaRBwMb_3syn4path15GenericArgumentNtNtBJ_5token5CommaEE25into_raw_parts_with_allocCsliPDVd4pfgL_15zerofrom_derive, symObjAddr: 0x2830, symBinAddr: 0x5BB20, symSize: 0x120 }
  - { offset: 0x90466, size: 0x8, addend: 0x0, symName: __RNvMs_NtCslJiobkLta79_5alloc3vecINtB4_3VecTNtNtCsdGrGZaRBwMb_3syn8generics12GenericParamNtNtBJ_5token5CommaEE17from_raw_parts_inCsliPDVd4pfgL_15zerofrom_derive, symObjAddr: 0x2950, symBinAddr: 0x5BC40, symSize: 0xA0 }
  - { offset: 0x907B3, size: 0x8, addend: 0x0, symName: __RNvMs_NtCslJiobkLta79_5alloc3vecINtB4_3VecTNtNtCsdGrGZaRBwMb_3syn8generics12GenericParamNtNtBJ_5token5CommaEE25into_raw_parts_with_allocCsliPDVd4pfgL_15zerofrom_derive, symObjAddr: 0x29F0, symBinAddr: 0x5BCE0, symSize: 0x120 }
  - { offset: 0x90B27, size: 0x8, addend: 0x0, symName: __RNvMs_NtCslJiobkLta79_5alloc3vecINtB4_3VecTNtNtCsdGrGZaRBwMb_3syn8generics13CapturedParamNtNtBJ_5token5CommaEE17from_raw_parts_inCsliPDVd4pfgL_15zerofrom_derive, symObjAddr: 0x2B10, symBinAddr: 0x5BE00, symSize: 0xA0 }
  - { offset: 0x90E74, size: 0x8, addend: 0x0, symName: __RNvMs_NtCslJiobkLta79_5alloc3vecINtB4_3VecTNtNtCsdGrGZaRBwMb_3syn8generics13CapturedParamNtNtBJ_5token5CommaEE25into_raw_parts_with_allocCsliPDVd4pfgL_15zerofrom_derive, symObjAddr: 0x2BB0, symBinAddr: 0x5BEA0, symSize: 0x120 }
  - { offset: 0x911E8, size: 0x8, addend: 0x0, symName: __RNvMs_NtCslJiobkLta79_5alloc3vecINtB4_3VecTNtNtCsdGrGZaRBwMb_3syn8generics14TypeParamBoundNtNtBJ_5token4PlusEE17from_raw_parts_inCsliPDVd4pfgL_15zerofrom_derive, symObjAddr: 0x2CD0, symBinAddr: 0x5BFC0, symSize: 0xA0 }
  - { offset: 0x91535, size: 0x8, addend: 0x0, symName: __RNvMs_NtCslJiobkLta79_5alloc3vecINtB4_3VecTNtNtCsdGrGZaRBwMb_3syn8generics14TypeParamBoundNtNtBJ_5token4PlusEE25into_raw_parts_with_allocCsliPDVd4pfgL_15zerofrom_derive, symObjAddr: 0x2D70, symBinAddr: 0x5C060, symSize: 0x120 }
  - { offset: 0x918E1, size: 0x8, addend: 0x0, symName: __RNvMs_NtCslJiobkLta79_5alloc3vecINtB4_3VecTNtNtCsdGrGZaRBwMb_3syn8generics14TypeParamBoundNtNtBJ_5token4PlusEE3popCsliPDVd4pfgL_15zerofrom_derive, symObjAddr: 0x2E90, symBinAddr: 0x5C180, symSize: 0x120 }
  - { offset: 0x91B57, size: 0x8, addend: 0x0, symName: __RNvMs_NtCslJiobkLta79_5alloc3vecINtB4_3VecTNtNtCsdGrGZaRBwMb_3syn8generics14WherePredicateNtNtBJ_5token5CommaEE17from_raw_parts_inCsliPDVd4pfgL_15zerofrom_derive, symObjAddr: 0x2FB0, symBinAddr: 0x5C2A0, symSize: 0xA0 }
  - { offset: 0x91EA4, size: 0x8, addend: 0x0, symName: __RNvMs_NtCslJiobkLta79_5alloc3vecINtB4_3VecTNtNtCsdGrGZaRBwMb_3syn8generics14WherePredicateNtNtBJ_5token5CommaEE25into_raw_parts_with_allocCsliPDVd4pfgL_15zerofrom_derive, symObjAddr: 0x3050, symBinAddr: 0x5C340, symSize: 0x120 }
  - { offset: 0x92218, size: 0x8, addend: 0x0, symName: __RNvMs_NtCslJiobkLta79_5alloc3vecINtB4_3VecTNtNtCsdGrGZaRBwMb_3syn8lifetime8LifetimeNtNtBJ_5token4PlusEE17from_raw_parts_inCsliPDVd4pfgL_15zerofrom_derive, symObjAddr: 0x3170, symBinAddr: 0x5C460, symSize: 0xA0 }
  - { offset: 0x92565, size: 0x8, addend: 0x0, symName: __RNvMs_NtCslJiobkLta79_5alloc3vecINtB4_3VecTNtNtCsdGrGZaRBwMb_3syn8lifetime8LifetimeNtNtBJ_5token4PlusEE25into_raw_parts_with_allocCsliPDVd4pfgL_15zerofrom_derive, symObjAddr: 0x3210, symBinAddr: 0x5C500, symSize: 0x120 }
  - { offset: 0x92A06, size: 0x8, addend: 0x0, symName: __RNvXs4_NtNtCs9OU1sGv5X54_5quote9___private3extINtNtCslJiobkLta79_5alloc3vec3VecNtCsaKzlTDPUHDb_11proc_macro25IdentENtB5_16RepAsIteratorExt15quote_into_iterCsliPDVd4pfgL_15zerofrom_derive, symObjAddr: 0x38D0, symBinAddr: 0x5CBC0, symSize: 0x30 }
  - { offset: 0x92A3B, size: 0x8, addend: 0x0, symName: __RNvXs4_NtNtCs9OU1sGv5X54_5quote9___private3extINtNtCslJiobkLta79_5alloc3vec3VecNtNtCsdGrGZaRBwMb_3syn8generics14WherePredicateENtB5_16RepAsIteratorExt15quote_into_iterCsliPDVd4pfgL_15zerofrom_derive, symObjAddr: 0x3900, symBinAddr: 0x5CBF0, symSize: 0x30 }
  - { offset: 0x92A70, size: 0x8, addend: 0x0, symName: __RNvXs4_NtNtCs9OU1sGv5X54_5quote9___private3extINtNtCslJiobkLta79_5alloc3vec3VecNtNtCsdGrGZaRBwMb_3syn8generics9TypeParamENtB5_16RepAsIteratorExt15quote_into_iterCsliPDVd4pfgL_15zerofrom_derive, symObjAddr: 0x3930, symBinAddr: 0x5CC20, symSize: 0x30 }
  - { offset: 0x957DA, size: 0x8, addend: 0x0, symName: __RINvNtNtCsdGrGZaRBwMb_3syn3gen5visit10visit_exprNtNtCsliPDVd4pfgL_15zerofrom_derive7visitor11TypeVisitorEBO_, symObjAddr: 0x0, symBinAddr: 0x60E20, symSize: 0x770 }
  - { offset: 0x96131, size: 0x8, addend: 0x0, symName: __RINvNtNtCsdGrGZaRBwMb_3syn3gen5visit10visit_exprNtNtCsliPDVd4pfgL_15zerofrom_derive7visitor11TypeVisitorEBO_, symObjAddr: 0x0, symBinAddr: 0x60E20, symSize: 0x770 }
  - { offset: 0x9663D, size: 0x8, addend: 0x0, symName: __RINvNtNtCsdGrGZaRBwMb_3syn3gen5visit10visit_itemNtNtCsliPDVd4pfgL_15zerofrom_derive7visitor11TypeVisitorEBO_, symObjAddr: 0x770, symBinAddr: 0x61590, symSize: 0x320 }
  - { offset: 0x96861, size: 0x8, addend: 0x0, symName: __RINvNtNtCsdGrGZaRBwMb_3syn3gen5visit10visit_metaNtNtCsliPDVd4pfgL_15zerofrom_derive7visitor11TypeVisitorEBO_, symObjAddr: 0xA90, symBinAddr: 0x618B0, symSize: 0xB0 }
  - { offset: 0x968F5, size: 0x8, addend: 0x0, symName: __RINvNtNtCsdGrGZaRBwMb_3syn3gen5visit10visit_pathNtNtCsliPDVd4pfgL_15zerofrom_derive7visitor11TypeVisitorEBO_, symObjAddr: 0xB40, symBinAddr: 0x61960, symSize: 0xB0 }
  - { offset: 0x96992, size: 0x8, addend: 0x0, symName: __RINvNtNtCsdGrGZaRBwMb_3syn3gen5visit10visit_stmtNtNtCsliPDVd4pfgL_15zerofrom_derive7visitor11TypeVisitorEBO_, symObjAddr: 0xBF0, symBinAddr: 0x61A10, symSize: 0xF0 }
  - { offset: 0x96A54, size: 0x8, addend: 0x0, symName: __RINvNtNtCsdGrGZaRBwMb_3syn3gen5visit10visit_typeNtNtCsliPDVd4pfgL_15zerofrom_derive7visitor11TypeVisitorEBO_, symObjAddr: 0xCE0, symBinAddr: 0x61B00, symSize: 0x2F0 }
  - { offset: 0x96C59, size: 0x8, addend: 0x0, symName: __RINvNtNtCsdGrGZaRBwMb_3syn3gen5visit11visit_blockNtNtCsliPDVd4pfgL_15zerofrom_derive7visitor11TypeVisitorEBP_, symObjAddr: 0xFD0, symBinAddr: 0x61DF0, symSize: 0x80 }
  - { offset: 0x96CD7, size: 0x8, addend: 0x0, symName: __RINvNtNtCsdGrGZaRBwMb_3syn3gen5visit11visit_fieldNtNtCsliPDVd4pfgL_15zerofrom_derive7visitor11TypeVisitorEBP_, symObjAddr: 0x1050, symBinAddr: 0x61E70, symSize: 0x110 }
  - { offset: 0x96D73, size: 0x8, addend: 0x0, symName: __RINvNtNtCsdGrGZaRBwMb_3syn3gen5visit11visit_identNtNtCsliPDVd4pfgL_15zerofrom_derive7visitor11TypeVisitorEBP_, symObjAddr: 0x1160, symBinAddr: 0x61F80, symSize: 0x50 }
  - { offset: 0x96DB5, size: 0x8, addend: 0x0, symName: __RINvNtNtCsdGrGZaRBwMb_3syn3gen5visit11visit_indexNtNtCsliPDVd4pfgL_15zerofrom_derive7visitor11TypeVisitorEBP_, symObjAddr: 0x11B0, symBinAddr: 0x61FD0, symSize: 0x30 }
  - { offset: 0x96DF7, size: 0x8, addend: 0x0, symName: __RINvNtNtCsdGrGZaRBwMb_3syn3gen5visit11visit_labelNtNtCsliPDVd4pfgL_15zerofrom_derive7visitor11TypeVisitorEBP_, symObjAddr: 0x11E0, symBinAddr: 0x62000, symSize: 0x30 }
  - { offset: 0x96E39, size: 0x8, addend: 0x0, symName: __RINvNtNtCsdGrGZaRBwMb_3syn3gen5visit11visit_localNtNtCsliPDVd4pfgL_15zerofrom_derive7visitor11TypeVisitorEBP_, symObjAddr: 0x1210, symBinAddr: 0x62030, symSize: 0xE0 }
  - { offset: 0x96ED5, size: 0x8, addend: 0x0, symName: __RINvNtNtCsdGrGZaRBwMb_3syn3gen5visit11visit_macroNtNtCsliPDVd4pfgL_15zerofrom_derive7visitor11TypeVisitorEBP_, symObjAddr: 0x12F0, symBinAddr: 0x62110, symSize: 0x50 }
  - { offset: 0x96F17, size: 0x8, addend: 0x0, symName: __RINvNtNtCsdGrGZaRBwMb_3syn3gen5visit11visit_qselfNtNtCsliPDVd4pfgL_15zerofrom_derive7visitor11TypeVisitorEBP_, symObjAddr: 0x1340, symBinAddr: 0x62160, symSize: 0x80 }
  - { offset: 0x96F59, size: 0x8, addend: 0x0, symName: __RINvNtNtCsdGrGZaRBwMb_3syn3gen5visit11visit_un_opNtNtCsliPDVd4pfgL_15zerofrom_derive7visitor11TypeVisitorEBP_, symObjAddr: 0x13C0, symBinAddr: 0x621E0, symSize: 0x70 }
  - { offset: 0x96F9B, size: 0x8, addend: 0x0, symName: __RINvNtNtCsdGrGZaRBwMb_3syn3gen5visit12visit_bin_opNtNtCsliPDVd4pfgL_15zerofrom_derive7visitor11TypeVisitorEBQ_, symObjAddr: 0x1430, symBinAddr: 0x62250, symSize: 0x3E0 }
  - { offset: 0x96FDF, size: 0x8, addend: 0x0, symName: __RINvNtNtCsdGrGZaRBwMb_3syn3gen5visit12visit_fieldsNtNtCsliPDVd4pfgL_15zerofrom_derive7visitor11TypeVisitorEBQ_, symObjAddr: 0x1810, symBinAddr: 0x62630, symSize: 0x90 }
  - { offset: 0x9705D, size: 0x8, addend: 0x0, symName: __RINvNtNtCsdGrGZaRBwMb_3syn3gen5visit12visit_fn_argNtNtCsliPDVd4pfgL_15zerofrom_derive7visitor11TypeVisitorEBQ_, symObjAddr: 0x18A0, symBinAddr: 0x626C0, symSize: 0x80 }
  - { offset: 0x970D3, size: 0x8, addend: 0x0, symName: __RINvNtNtCsdGrGZaRBwMb_3syn3gen5visit12visit_memberNtNtCsliPDVd4pfgL_15zerofrom_derive7visitor11TypeVisitorEBQ_, symObjAddr: 0x1920, symBinAddr: 0x62740, symSize: 0x70 }
  - { offset: 0x97149, size: 0x8, addend: 0x0, symName: __RINvNtNtCsdGrGZaRBwMb_3syn3gen5visit12visit_pat_orNtNtCsliPDVd4pfgL_15zerofrom_derive7visitor11TypeVisitorEBQ_, symObjAddr: 0x1990, symBinAddr: 0x627B0, symSize: 0x140 }
  - { offset: 0x97223, size: 0x8, addend: 0x0, symName: __RINvNtNtCsdGrGZaRBwMb_3syn3gen5visit13visit_expr_ifNtNtCsliPDVd4pfgL_15zerofrom_derive7visitor11TypeVisitorEBR_, symObjAddr: 0x1AD0, symBinAddr: 0x628F0, symSize: 0x190 }
  - { offset: 0x972B7, size: 0x8, addend: 0x0, symName: __RINvNtNtCsdGrGZaRBwMb_3syn3gen5visit13visit_item_fnNtNtCsliPDVd4pfgL_15zerofrom_derive7visitor11TypeVisitorEBR_, symObjAddr: 0x1C60, symBinAddr: 0x62A80, symSize: 0x110 }
  - { offset: 0x97335, size: 0x8, addend: 0x0, symName: __RINvNtNtCsdGrGZaRBwMb_3syn3gen5visit13visit_lit_intNtNtCsliPDVd4pfgL_15zerofrom_derive7visitor11TypeVisitorEBR_, symObjAddr: 0x1D70, symBinAddr: 0x62B90, symSize: 0x20 }
  - { offset: 0x97377, size: 0x8, addend: 0x0, symName: __RINvNtNtCsdGrGZaRBwMb_3syn3gen5visit13visit_lit_strNtNtCsliPDVd4pfgL_15zerofrom_derive7visitor11TypeVisitorEBR_, symObjAddr: 0x1D90, symBinAddr: 0x62BB0, symSize: 0x20 }
  - { offset: 0x973B9, size: 0x8, addend: 0x0, symName: __RINvNtNtCsdGrGZaRBwMb_3syn3gen5visit13visit_variantNtNtCsliPDVd4pfgL_15zerofrom_derive7visitor11TypeVisitorEBR_, symObjAddr: 0x1DB0, symBinAddr: 0x62BD0, symSize: 0xF0 }
  - { offset: 0x97455, size: 0x8, addend: 0x0, symName: __RINvNtNtCsdGrGZaRBwMb_3syn3gen5visit14visit_expr_letNtNtCsliPDVd4pfgL_15zerofrom_derive7visitor11TypeVisitorEBS_, symObjAddr: 0x1EA0, symBinAddr: 0x62CC0, symSize: 0x140 }
  - { offset: 0x974D3, size: 0x8, addend: 0x0, symName: __RINvNtNtCsdGrGZaRBwMb_3syn3gen5visit14visit_expr_litNtNtCsliPDVd4pfgL_15zerofrom_derive7visitor11TypeVisitorEBS_, symObjAddr: 0x1FE0, symBinAddr: 0x62E00, symSize: 0xA0 }
  - { offset: 0x97551, size: 0x8, addend: 0x0, symName: __RINvNtNtCsdGrGZaRBwMb_3syn3gen5visit14visit_expr_tryNtNtCsliPDVd4pfgL_15zerofrom_derive7visitor11TypeVisitorEBS_, symObjAddr: 0x2080, symBinAddr: 0x62EA0, symSize: 0xE0 }
  - { offset: 0x975CF, size: 0x8, addend: 0x0, symName: __RINvNtNtCsdGrGZaRBwMb_3syn3gen5visit14visit_genericsNtNtCsliPDVd4pfgL_15zerofrom_derive7visitor11TypeVisitorEBS_, symObjAddr: 0x2160, symBinAddr: 0x62F80, symSize: 0x110 }
  - { offset: 0x9768A, size: 0x8, addend: 0x0, symName: __RINvNtNtCsdGrGZaRBwMb_3syn3gen5visit14visit_item_modNtNtCsliPDVd4pfgL_15zerofrom_derive7visitor11TypeVisitorEBS_, symObjAddr: 0x2270, symBinAddr: 0x63090, symSize: 0x150 }
  - { offset: 0x97753, size: 0x8, addend: 0x0, symName: __RINvNtNtCsdGrGZaRBwMb_3syn3gen5visit14visit_item_useNtNtCsliPDVd4pfgL_15zerofrom_derive7visitor11TypeVisitorEBS_, symObjAddr: 0x23C0, symBinAddr: 0x631E0, symSize: 0xB0 }
  - { offset: 0x977D1, size: 0x8, addend: 0x0, symName: __RINvNtNtCsdGrGZaRBwMb_3syn3gen5visit14visit_lifetimeNtNtCsliPDVd4pfgL_15zerofrom_derive7visitor11TypeVisitorEBS_, symObjAddr: 0x2470, symBinAddr: 0x63290, symSize: 0x40 }
  - { offset: 0x97813, size: 0x8, addend: 0x0, symName: __RINvNtNtCsdGrGZaRBwMb_3syn3gen5visit14visit_lit_boolNtNtCsliPDVd4pfgL_15zerofrom_derive7visitor11TypeVisitorEBS_, symObjAddr: 0x24B0, symBinAddr: 0x632D0, symSize: 0x30 }
  - { offset: 0x97855, size: 0x8, addend: 0x0, symName: __RINvNtNtCsdGrGZaRBwMb_3syn3gen5visit14visit_lit_byteNtNtCsliPDVd4pfgL_15zerofrom_derive7visitor11TypeVisitorEBS_, symObjAddr: 0x24E0, symBinAddr: 0x63300, symSize: 0x20 }
  - { offset: 0x97897, size: 0x8, addend: 0x0, symName: __RINvNtNtCsdGrGZaRBwMb_3syn3gen5visit14visit_lit_charNtNtCsliPDVd4pfgL_15zerofrom_derive7visitor11TypeVisitorEBS_, symObjAddr: 0x2500, symBinAddr: 0x63320, symSize: 0x20 }
  - { offset: 0x978D9, size: 0x8, addend: 0x0, symName: __RINvNtNtCsdGrGZaRBwMb_3syn3gen5visit14visit_lit_cstrNtNtCsliPDVd4pfgL_15zerofrom_derive7visitor11TypeVisitorEBS_, symObjAddr: 0x2520, symBinAddr: 0x63340, symSize: 0x20 }
  - { offset: 0x9791B, size: 0x8, addend: 0x0, symName: __RINvNtNtCsdGrGZaRBwMb_3syn3gen5visit14visit_pat_restNtNtCsliPDVd4pfgL_15zerofrom_derive7visitor11TypeVisitorEBS_, symObjAddr: 0x2540, symBinAddr: 0x63360, symSize: 0x80 }
  - { offset: 0x97999, size: 0x8, addend: 0x0, symName: __RINvNtNtCsdGrGZaRBwMb_3syn3gen5visit14visit_pat_typeNtNtCsliPDVd4pfgL_15zerofrom_derive7visitor11TypeVisitorEBS_, symObjAddr: 0x25C0, symBinAddr: 0x633E0, symSize: 0x140 }
  - { offset: 0x97A17, size: 0x8, addend: 0x0, symName: __RINvNtNtCsdGrGZaRBwMb_3syn3gen5visit14visit_pat_wildNtNtCsliPDVd4pfgL_15zerofrom_derive7visitor11TypeVisitorEBS_, symObjAddr: 0x2700, symBinAddr: 0x63520, symSize: 0x80 }
  - { offset: 0x97A95, size: 0x8, addend: 0x0, symName: __RINvNtNtCsdGrGZaRBwMb_3syn3gen5visit14visit_receiverNtNtCsliPDVd4pfgL_15zerofrom_derive7visitor11TypeVisitorEBS_, symObjAddr: 0x2780, symBinAddr: 0x635A0, symSize: 0x160 }
  - { offset: 0x97B3F, size: 0x8, addend: 0x0, symName: __RINvNtNtCsdGrGZaRBwMb_3syn3gen5visit14visit_type_ptrNtNtCsliPDVd4pfgL_15zerofrom_derive7visitor11TypeVisitorEBS_, symObjAddr: 0x28E0, symBinAddr: 0x63700, symSize: 0x80 }
  - { offset: 0x97B81, size: 0x8, addend: 0x0, symName: __RINvNtNtCsdGrGZaRBwMb_3syn3gen5visit14visit_use_globNtNtCsliPDVd4pfgL_15zerofrom_derive7visitor11TypeVisitorEBS_, symObjAddr: 0x2960, symBinAddr: 0x63780, symSize: 0x20 }
  - { offset: 0x97BC3, size: 0x8, addend: 0x0, symName: __RINvNtNtCsdGrGZaRBwMb_3syn3gen5visit14visit_use_nameNtNtCsliPDVd4pfgL_15zerofrom_derive7visitor11TypeVisitorEBS_, symObjAddr: 0x2980, symBinAddr: 0x637A0, symSize: 0x30 }
  - { offset: 0x97C05, size: 0x8, addend: 0x0, symName: __RINvNtNtCsdGrGZaRBwMb_3syn3gen5visit14visit_use_pathNtNtCsliPDVd4pfgL_15zerofrom_derive7visitor11TypeVisitorEBS_, symObjAddr: 0x29B0, symBinAddr: 0x637D0, symSize: 0x90 }
  - { offset: 0x97C47, size: 0x8, addend: 0x0, symName: __RINvNtNtCsdGrGZaRBwMb_3syn3gen5visit14visit_use_treeNtNtCsliPDVd4pfgL_15zerofrom_derive7visitor11TypeVisitorEBS_, symObjAddr: 0x2A40, symBinAddr: 0x63860, symSize: 0xF0 }
  - { offset: 0x97D17, size: 0x8, addend: 0x0, symName: __RINvNtNtCsdGrGZaRBwMb_3syn3gen5visit14visit_variadicNtNtCsliPDVd4pfgL_15zerofrom_derive7visitor11TypeVisitorEBS_, symObjAddr: 0x2B30, symBinAddr: 0x63950, symSize: 0x120 }
  - { offset: 0x97DAB, size: 0x8, addend: 0x0, symName: __RINvNtNtCsdGrGZaRBwMb_3syn3gen5visit15visit_attributeNtNtCsliPDVd4pfgL_15zerofrom_derive7visitor11TypeVisitorEBT_, symObjAddr: 0x2C50, symBinAddr: 0x63A70, symSize: 0x40 }
  - { offset: 0x97DED, size: 0x8, addend: 0x0, symName: __RINvNtNtCsdGrGZaRBwMb_3syn3gen5visit15visit_expr_callNtNtCsliPDVd4pfgL_15zerofrom_derive7visitor11TypeVisitorEBT_, symObjAddr: 0x2C90, symBinAddr: 0x63AB0, symSize: 0x1B0 }
  - { offset: 0x97EBF, size: 0x8, addend: 0x0, symName: __RINvNtNtCsdGrGZaRBwMb_3syn3gen5visit15visit_expr_castNtNtCsliPDVd4pfgL_15zerofrom_derive7visitor11TypeVisitorEBT_, symObjAddr: 0x2E40, symBinAddr: 0x63C60, symSize: 0x140 }
  - { offset: 0x97F3D, size: 0x8, addend: 0x0, symName: __RINvNtNtCsdGrGZaRBwMb_3syn3gen5visit15visit_expr_loopNtNtCsliPDVd4pfgL_15zerofrom_derive7visitor11TypeVisitorEBT_, symObjAddr: 0x2F80, symBinAddr: 0x63DA0, symSize: 0xE0 }
  - { offset: 0x97FD9, size: 0x8, addend: 0x0, symName: __RINvNtNtCsdGrGZaRBwMb_3syn3gen5visit15visit_expr_pathNtNtCsliPDVd4pfgL_15zerofrom_derive7visitor11TypeVisitorEBT_, symObjAddr: 0x3060, symBinAddr: 0x63E80, symSize: 0xE0 }
  - { offset: 0x98075, size: 0x8, addend: 0x0, symName: __RINvNtNtCsdGrGZaRBwMb_3syn3gen5visit15visit_field_patNtNtCsliPDVd4pfgL_15zerofrom_derive7visitor11TypeVisitorEBT_, symObjAddr: 0x3140, symBinAddr: 0x63F60, symSize: 0xF0 }
  - { offset: 0x980F3, size: 0x8, addend: 0x0, symName: __RINvNtNtCsdGrGZaRBwMb_3syn3gen5visit15visit_impl_itemNtNtCsliPDVd4pfgL_15zerofrom_derive7visitor11TypeVisitorEBT_, symObjAddr: 0x3230, symBinAddr: 0x64050, symSize: 0x100 }
  - { offset: 0x981C3, size: 0x8, addend: 0x0, symName: __RINvNtNtCsdGrGZaRBwMb_3syn3gen5visit15visit_item_enumNtNtCsliPDVd4pfgL_15zerofrom_derive7visitor11TypeVisitorEBT_, symObjAddr: 0x3330, symBinAddr: 0x64150, symSize: 0x190 }
  - { offset: 0x9829D, size: 0x8, addend: 0x0, symName: __RINvNtNtCsdGrGZaRBwMb_3syn3gen5visit15visit_item_implNtNtCsliPDVd4pfgL_15zerofrom_derive7visitor11TypeVisitorEBT_, symObjAddr: 0x34C0, symBinAddr: 0x642E0, symSize: 0x1A0 }
  - { offset: 0x9836E, size: 0x8, addend: 0x0, symName: __RINvNtNtCsdGrGZaRBwMb_3syn3gen5visit15visit_item_typeNtNtCsliPDVd4pfgL_15zerofrom_derive7visitor11TypeVisitorEBT_, symObjAddr: 0x3660, symBinAddr: 0x64480, symSize: 0x120 }
  - { offset: 0x983EC, size: 0x8, addend: 0x0, symName: __RINvNtNtCsdGrGZaRBwMb_3syn3gen5visit15visit_lit_floatNtNtCsliPDVd4pfgL_15zerofrom_derive7visitor11TypeVisitorEBT_, symObjAddr: 0x3780, symBinAddr: 0x645A0, symSize: 0x20 }
  - { offset: 0x9842E, size: 0x8, addend: 0x0, symName: __RINvNtNtCsdGrGZaRBwMb_3syn3gen5visit15visit_meta_listNtNtCsliPDVd4pfgL_15zerofrom_derive7visitor11TypeVisitorEBT_, symObjAddr: 0x37A0, symBinAddr: 0x645C0, symSize: 0x50 }
  - { offset: 0x98470, size: 0x8, addend: 0x0, symName: __RINvNtNtCsdGrGZaRBwMb_3syn3gen5visit15visit_pat_identNtNtCsliPDVd4pfgL_15zerofrom_derive7visitor11TypeVisitorEBT_, symObjAddr: 0x37F0, symBinAddr: 0x64610, symSize: 0x130 }
  - { offset: 0x98504, size: 0x8, addend: 0x0, symName: __RINvNtNtCsdGrGZaRBwMb_3syn3gen5visit15visit_pat_parenNtNtCsliPDVd4pfgL_15zerofrom_derive7visitor11TypeVisitorEBT_, symObjAddr: 0x3920, symBinAddr: 0x64740, symSize: 0xE0 }
  - { offset: 0x98582, size: 0x8, addend: 0x0, symName: __RINvNtNtCsdGrGZaRBwMb_3syn3gen5visit15visit_pat_sliceNtNtCsliPDVd4pfgL_15zerofrom_derive7visitor11TypeVisitorEBT_, symObjAddr: 0x3A00, symBinAddr: 0x64820, symSize: 0x140 }
  - { offset: 0x9865C, size: 0x8, addend: 0x0, symName: __RINvNtNtCsdGrGZaRBwMb_3syn3gen5visit15visit_pat_tupleNtNtCsliPDVd4pfgL_15zerofrom_derive7visitor11TypeVisitorEBT_, symObjAddr: 0x3B40, symBinAddr: 0x64960, symSize: 0x140 }
  - { offset: 0x98736, size: 0x8, addend: 0x0, symName: __RINvNtNtCsdGrGZaRBwMb_3syn3gen5visit15visit_signatureNtNtCsliPDVd4pfgL_15zerofrom_derive7visitor11TypeVisitorEBT_, symObjAddr: 0x3C80, symBinAddr: 0x64AA0, symSize: 0x1A0 }
  - { offset: 0x9880F, size: 0x8, addend: 0x0, symName: __RINvNtNtCsdGrGZaRBwMb_3syn3gen5visit15visit_type_pathNtNtCsliPDVd4pfgL_15zerofrom_derive7visitor11TypeVisitorEBT_, symObjAddr: 0x3E20, symBinAddr: 0x64C40, symSize: 0x70 }
  - { offset: 0x9886F, size: 0x8, addend: 0x0, symName: __RINvNtNtCsdGrGZaRBwMb_3syn3gen5visit15visit_use_groupNtNtCsliPDVd4pfgL_15zerofrom_derive7visitor11TypeVisitorEBT_, symObjAddr: 0x3E90, symBinAddr: 0x64CB0, symSize: 0xB0 }
  - { offset: 0x9890C, size: 0x8, addend: 0x0, symName: __RINvNtNtCsdGrGZaRBwMb_3syn3gen5visit16visit_assoc_typeNtNtCsliPDVd4pfgL_15zerofrom_derive7visitor11TypeVisitorEBU_, symObjAddr: 0x3F40, symBinAddr: 0x64D60, symSize: 0x90 }
  - { offset: 0x9896C, size: 0x8, addend: 0x0, symName: __RINvNtNtCsdGrGZaRBwMb_3syn3gen5visit16visit_attr_styleNtNtCsliPDVd4pfgL_15zerofrom_derive7visitor11TypeVisitorEBU_, symObjAddr: 0x3FD0, symBinAddr: 0x64DF0, symSize: 0x40 }
  - { offset: 0x989AE, size: 0x8, addend: 0x0, symName: __RINvNtNtCsdGrGZaRBwMb_3syn3gen5visit16visit_constraintNtNtCsliPDVd4pfgL_15zerofrom_derive7visitor11TypeVisitorEBU_, symObjAddr: 0x4010, symBinAddr: 0x64E30, symSize: 0x120 }
  - { offset: 0x98A69, size: 0x8, addend: 0x0, symName: __RINvNtNtCsdGrGZaRBwMb_3syn3gen5visit16visit_expr_arrayNtNtCsliPDVd4pfgL_15zerofrom_derive7visitor11TypeVisitorEBU_, symObjAddr: 0x4130, symBinAddr: 0x64F50, symSize: 0x140 }
  - { offset: 0x98B43, size: 0x8, addend: 0x0, symName: __RINvNtNtCsdGrGZaRBwMb_3syn3gen5visit16visit_expr_asyncNtNtCsliPDVd4pfgL_15zerofrom_derive7visitor11TypeVisitorEBU_, symObjAddr: 0x4270, symBinAddr: 0x65090, symSize: 0xA0 }
  - { offset: 0x98BC1, size: 0x8, addend: 0x0, symName: __RINvNtNtCsdGrGZaRBwMb_3syn3gen5visit16visit_expr_awaitNtNtCsliPDVd4pfgL_15zerofrom_derive7visitor11TypeVisitorEBU_, symObjAddr: 0x4310, symBinAddr: 0x65130, symSize: 0xE0 }
  - { offset: 0x98C3F, size: 0x8, addend: 0x0, symName: __RINvNtNtCsdGrGZaRBwMb_3syn3gen5visit16visit_expr_blockNtNtCsliPDVd4pfgL_15zerofrom_derive7visitor11TypeVisitorEBU_, symObjAddr: 0x43F0, symBinAddr: 0x65210, symSize: 0xE0 }
  - { offset: 0x98CDB, size: 0x8, addend: 0x0, symName: __RINvNtNtCsdGrGZaRBwMb_3syn3gen5visit16visit_expr_breakNtNtCsliPDVd4pfgL_15zerofrom_derive7visitor11TypeVisitorEBU_, symObjAddr: 0x44D0, symBinAddr: 0x652F0, symSize: 0x160 }
  - { offset: 0x98D8D, size: 0x8, addend: 0x0, symName: __RINvNtNtCsdGrGZaRBwMb_3syn3gen5visit16visit_expr_constNtNtCsliPDVd4pfgL_15zerofrom_derive7visitor11TypeVisitorEBU_, symObjAddr: 0x4630, symBinAddr: 0x65450, symSize: 0xA0 }
  - { offset: 0x98E0B, size: 0x8, addend: 0x0, symName: __RINvNtNtCsdGrGZaRBwMb_3syn3gen5visit16visit_expr_fieldNtNtCsliPDVd4pfgL_15zerofrom_derive7visitor11TypeVisitorEBU_, symObjAddr: 0x46D0, symBinAddr: 0x654F0, symSize: 0xF0 }
  - { offset: 0x98E89, size: 0x8, addend: 0x0, symName: __RINvNtNtCsdGrGZaRBwMb_3syn3gen5visit16visit_expr_groupNtNtCsliPDVd4pfgL_15zerofrom_derive7visitor11TypeVisitorEBU_, symObjAddr: 0x47C0, symBinAddr: 0x655E0, symSize: 0xE0 }
  - { offset: 0x98F07, size: 0x8, addend: 0x0, symName: __RINvNtNtCsdGrGZaRBwMb_3syn3gen5visit16visit_expr_indexNtNtCsliPDVd4pfgL_15zerofrom_derive7visitor11TypeVisitorEBU_, symObjAddr: 0x48A0, symBinAddr: 0x656C0, symSize: 0x140 }
  - { offset: 0x98F85, size: 0x8, addend: 0x0, symName: __RINvNtNtCsdGrGZaRBwMb_3syn3gen5visit16visit_expr_inferNtNtCsliPDVd4pfgL_15zerofrom_derive7visitor11TypeVisitorEBU_, symObjAddr: 0x49E0, symBinAddr: 0x65800, symSize: 0x80 }
  - { offset: 0x99003, size: 0x8, addend: 0x0, symName: __RINvNtNtCsdGrGZaRBwMb_3syn3gen5visit16visit_expr_macroNtNtCsliPDVd4pfgL_15zerofrom_derive7visitor11TypeVisitorEBU_, symObjAddr: 0x4A60, symBinAddr: 0x65880, symSize: 0xA0 }
  - { offset: 0x99081, size: 0x8, addend: 0x0, symName: __RINvNtNtCsdGrGZaRBwMb_3syn3gen5visit16visit_expr_matchNtNtCsliPDVd4pfgL_15zerofrom_derive7visitor11TypeVisitorEBU_, symObjAddr: 0x4B00, symBinAddr: 0x65920, symSize: 0x140 }
  - { offset: 0x99134, size: 0x8, addend: 0x0, symName: __RINvNtNtCsdGrGZaRBwMb_3syn3gen5visit16visit_expr_parenNtNtCsliPDVd4pfgL_15zerofrom_derive7visitor11TypeVisitorEBU_, symObjAddr: 0x4C40, symBinAddr: 0x65A60, symSize: 0xE0 }
  - { offset: 0x991B2, size: 0x8, addend: 0x0, symName: __RINvNtNtCsdGrGZaRBwMb_3syn3gen5visit16visit_expr_rangeNtNtCsliPDVd4pfgL_15zerofrom_derive7visitor11TypeVisitorEBU_, symObjAddr: 0x4D20, symBinAddr: 0x65B40, symSize: 0x1C0 }
  - { offset: 0x9925C, size: 0x8, addend: 0x0, symName: __RINvNtNtCsdGrGZaRBwMb_3syn3gen5visit16visit_expr_tupleNtNtCsliPDVd4pfgL_15zerofrom_derive7visitor11TypeVisitorEBU_, symObjAddr: 0x4EE0, symBinAddr: 0x65D00, symSize: 0x140 }
  - { offset: 0x99336, size: 0x8, addend: 0x0, symName: __RINvNtNtCsdGrGZaRBwMb_3syn3gen5visit16visit_expr_unaryNtNtCsliPDVd4pfgL_15zerofrom_derive7visitor11TypeVisitorEBU_, symObjAddr: 0x5020, symBinAddr: 0x65E40, symSize: 0xF0 }
  - { offset: 0x993B4, size: 0x8, addend: 0x0, symName: __RINvNtNtCsdGrGZaRBwMb_3syn3gen5visit16visit_expr_whileNtNtCsliPDVd4pfgL_15zerofrom_derive7visitor11TypeVisitorEBU_, symObjAddr: 0x5110, symBinAddr: 0x65F30, symSize: 0x130 }
  - { offset: 0x99450, size: 0x8, addend: 0x0, symName: __RINvNtNtCsdGrGZaRBwMb_3syn3gen5visit16visit_expr_yieldNtNtCsliPDVd4pfgL_15zerofrom_derive7visitor11TypeVisitorEBU_, symObjAddr: 0x5240, symBinAddr: 0x66060, symSize: 0x120 }
  - { offset: 0x994E4, size: 0x8, addend: 0x0, symName: __RINvNtNtCsdGrGZaRBwMb_3syn3gen5visit16visit_item_constNtNtCsliPDVd4pfgL_15zerofrom_derive7visitor11TypeVisitorEBU_, symObjAddr: 0x5360, symBinAddr: 0x66180, symSize: 0x180 }
  - { offset: 0x99562, size: 0x8, addend: 0x0, symName: __RINvNtNtCsdGrGZaRBwMb_3syn3gen5visit16visit_item_macroNtNtCsliPDVd4pfgL_15zerofrom_derive7visitor11TypeVisitorEBU_, symObjAddr: 0x54E0, symBinAddr: 0x66300, symSize: 0xE0 }
  - { offset: 0x995FE, size: 0x8, addend: 0x0, symName: __RINvNtNtCsdGrGZaRBwMb_3syn3gen5visit16visit_item_traitNtNtCsliPDVd4pfgL_15zerofrom_derive7visitor11TypeVisitorEBU_, symObjAddr: 0x55C0, symBinAddr: 0x663E0, symSize: 0x1F0 }
  - { offset: 0x99715, size: 0x8, addend: 0x0, symName: __RINvNtNtCsdGrGZaRBwMb_3syn3gen5visit16visit_item_unionNtNtCsliPDVd4pfgL_15zerofrom_derive7visitor11TypeVisitorEBU_, symObjAddr: 0x57B0, symBinAddr: 0x665D0, symSize: 0xD0 }
  - { offset: 0x99793, size: 0x8, addend: 0x0, symName: __RINvNtNtCsdGrGZaRBwMb_3syn3gen5visit16visit_local_initNtNtCsliPDVd4pfgL_15zerofrom_derive7visitor11TypeVisitorEBU_, symObjAddr: 0x5880, symBinAddr: 0x666A0, symSize: 0x120 }
  - { offset: 0x997EB, size: 0x8, addend: 0x0, symName: __RINvNtNtCsdGrGZaRBwMb_3syn3gen5visit16visit_pat_structNtNtCsliPDVd4pfgL_15zerofrom_derive7visitor11TypeVisitorEBU_, symObjAddr: 0x59A0, symBinAddr: 0x667C0, symSize: 0x200 }
  - { offset: 0x99901, size: 0x8, addend: 0x0, symName: __RINvNtNtCsdGrGZaRBwMb_3syn3gen5visit16visit_stmt_macroNtNtCsliPDVd4pfgL_15zerofrom_derive7visitor11TypeVisitorEBU_, symObjAddr: 0x5BA0, symBinAddr: 0x669C0, symSize: 0xA0 }
  - { offset: 0x9997F, size: 0x8, addend: 0x0, symName: __RINvNtNtCsdGrGZaRBwMb_3syn3gen5visit16visit_trait_itemNtNtCsliPDVd4pfgL_15zerofrom_derive7visitor11TypeVisitorEBU_, symObjAddr: 0x5C40, symBinAddr: 0x66A60, symSize: 0x100 }
  - { offset: 0x99A4F, size: 0x8, addend: 0x0, symName: __RINvNtNtCsdGrGZaRBwMb_3syn3gen5visit16visit_type_arrayNtNtCsliPDVd4pfgL_15zerofrom_derive7visitor11TypeVisitorEBU_, symObjAddr: 0x5D40, symBinAddr: 0x66B60, symSize: 0x90 }
  - { offset: 0x99A91, size: 0x8, addend: 0x0, symName: __RINvNtNtCsdGrGZaRBwMb_3syn3gen5visit16visit_type_groupNtNtCsliPDVd4pfgL_15zerofrom_derive7visitor11TypeVisitorEBU_, symObjAddr: 0x5DD0, symBinAddr: 0x66BF0, symSize: 0x80 }
  - { offset: 0x99AD3, size: 0x8, addend: 0x0, symName: __RINvNtNtCsdGrGZaRBwMb_3syn3gen5visit16visit_type_inferNtNtCsliPDVd4pfgL_15zerofrom_derive7visitor11TypeVisitorEBU_, symObjAddr: 0x5E50, symBinAddr: 0x66C70, symSize: 0x20 }
  - { offset: 0x99B15, size: 0x8, addend: 0x0, symName: __RINvNtNtCsdGrGZaRBwMb_3syn3gen5visit16visit_type_macroNtNtCsliPDVd4pfgL_15zerofrom_derive7visitor11TypeVisitorEBU_, symObjAddr: 0x5E70, symBinAddr: 0x66C90, symSize: 0x30 }
  - { offset: 0x99B57, size: 0x8, addend: 0x0, symName: __RINvNtNtCsdGrGZaRBwMb_3syn3gen5visit16visit_type_neverNtNtCsliPDVd4pfgL_15zerofrom_derive7visitor11TypeVisitorEBU_, symObjAddr: 0x5EA0, symBinAddr: 0x66CC0, symSize: 0x20 }
  - { offset: 0x99B99, size: 0x8, addend: 0x0, symName: __RINvNtNtCsdGrGZaRBwMb_3syn3gen5visit16visit_type_paramNtNtCsliPDVd4pfgL_15zerofrom_derive7visitor11TypeVisitorEBU_, symObjAddr: 0x5EC0, symBinAddr: 0x66CE0, symSize: 0x1A0 }
  - { offset: 0x99C91, size: 0x8, addend: 0x0, symName: __RINvNtNtCsdGrGZaRBwMb_3syn3gen5visit16visit_type_parenNtNtCsliPDVd4pfgL_15zerofrom_derive7visitor11TypeVisitorEBU_, symObjAddr: 0x6060, symBinAddr: 0x66E80, symSize: 0x80 }
  - { offset: 0x99CD3, size: 0x8, addend: 0x0, symName: __RINvNtNtCsdGrGZaRBwMb_3syn3gen5visit16visit_type_sliceNtNtCsliPDVd4pfgL_15zerofrom_derive7visitor11TypeVisitorEBU_, symObjAddr: 0x60E0, symBinAddr: 0x66F00, symSize: 0x80 }
  - { offset: 0x99D15, size: 0x8, addend: 0x0, symName: __RINvNtNtCsdGrGZaRBwMb_3syn3gen5visit16visit_type_tupleNtNtCsliPDVd4pfgL_15zerofrom_derive7visitor11TypeVisitorEBU_, symObjAddr: 0x6160, symBinAddr: 0x66F80, symSize: 0xB0 }
  - { offset: 0x99DB2, size: 0x8, addend: 0x0, symName: __RINvNtNtCsdGrGZaRBwMb_3syn3gen5visit16visit_use_renameNtNtCsliPDVd4pfgL_15zerofrom_derive7visitor11TypeVisitorEBU_, symObjAddr: 0x6210, symBinAddr: 0x67030, symSize: 0x40 }
  - { offset: 0x99DF4, size: 0x8, addend: 0x0, symName: __RINvNtNtCsdGrGZaRBwMb_3syn3gen5visit16visit_visibilityNtNtCsliPDVd4pfgL_15zerofrom_derive7visitor11TypeVisitorEBU_, symObjAddr: 0x6250, symBinAddr: 0x67070, symSize: 0x90 }
  - { offset: 0x99E54, size: 0x8, addend: 0x0, symName: __RINvNtNtCsdGrGZaRBwMb_3syn3gen5visit17visit_assoc_constNtNtCsliPDVd4pfgL_15zerofrom_derive7visitor11TypeVisitorEBV_, symObjAddr: 0x62E0, symBinAddr: 0x67100, symSize: 0x90 }
  - { offset: 0x99EB4, size: 0x8, addend: 0x0, symName: __RINvNtNtCsdGrGZaRBwMb_3syn3gen5visit17visit_bare_fn_argNtNtCsliPDVd4pfgL_15zerofrom_derive7visitor11TypeVisitorEBV_, symObjAddr: 0x6370, symBinAddr: 0x67190, symSize: 0xE0 }
  - { offset: 0x99F50, size: 0x8, addend: 0x0, symName: __RINvNtNtCsdGrGZaRBwMb_3syn3gen5visit17visit_const_paramNtNtCsliPDVd4pfgL_15zerofrom_derive7visitor11TypeVisitorEBV_, symObjAddr: 0x6450, symBinAddr: 0x67270, symSize: 0xF0 }
  - { offset: 0x99FEC, size: 0x8, addend: 0x0, symName: __RINvNtNtCsdGrGZaRBwMb_3syn3gen5visit17visit_expr_assignNtNtCsliPDVd4pfgL_15zerofrom_derive7visitor11TypeVisitorEBV_, symObjAddr: 0x6540, symBinAddr: 0x67360, symSize: 0x140 }
  - { offset: 0x9A06A, size: 0x8, addend: 0x0, symName: __RINvNtNtCsdGrGZaRBwMb_3syn3gen5visit17visit_expr_binaryNtNtCsliPDVd4pfgL_15zerofrom_derive7visitor11TypeVisitorEBV_, symObjAddr: 0x6680, symBinAddr: 0x674A0, symSize: 0x150 }
  - { offset: 0x9A0E8, size: 0x8, addend: 0x0, symName: __RINvNtNtCsdGrGZaRBwMb_3syn3gen5visit17visit_expr_repeatNtNtCsliPDVd4pfgL_15zerofrom_derive7visitor11TypeVisitorEBV_, symObjAddr: 0x67D0, symBinAddr: 0x675F0, symSize: 0x140 }
  - { offset: 0x9A166, size: 0x8, addend: 0x0, symName: __RINvNtNtCsdGrGZaRBwMb_3syn3gen5visit17visit_expr_returnNtNtCsliPDVd4pfgL_15zerofrom_derive7visitor11TypeVisitorEBV_, symObjAddr: 0x6910, symBinAddr: 0x67730, symSize: 0x120 }
  - { offset: 0x9A1FA, size: 0x8, addend: 0x0, symName: __RINvNtNtCsdGrGZaRBwMb_3syn3gen5visit17visit_expr_structNtNtCsliPDVd4pfgL_15zerofrom_derive7visitor11TypeVisitorEBV_, symObjAddr: 0x6A30, symBinAddr: 0x67850, symSize: 0x260 }
  - { offset: 0x9A308, size: 0x8, addend: 0x0, symName: __RINvNtNtCsdGrGZaRBwMb_3syn3gen5visit17visit_expr_unsafeNtNtCsliPDVd4pfgL_15zerofrom_derive7visitor11TypeVisitorEBV_, symObjAddr: 0x6C90, symBinAddr: 0x67AB0, symSize: 0xA0 }
  - { offset: 0x9A386, size: 0x8, addend: 0x0, symName: __RINvNtNtCsdGrGZaRBwMb_3syn3gen5visit17visit_field_valueNtNtCsliPDVd4pfgL_15zerofrom_derive7visitor11TypeVisitorEBV_, symObjAddr: 0x6D30, symBinAddr: 0x67B50, symSize: 0xB0 }
  - { offset: 0x9A404, size: 0x8, addend: 0x0, symName: __RINvNtNtCsdGrGZaRBwMb_3syn3gen5visit17visit_item_staticNtNtCsliPDVd4pfgL_15zerofrom_derive7visitor11TypeVisitorEBV_, symObjAddr: 0x6DE0, symBinAddr: 0x67C00, symSize: 0x170 }
  - { offset: 0x9A482, size: 0x8, addend: 0x0, symName: __RINvNtNtCsdGrGZaRBwMb_3syn3gen5visit17visit_item_structNtNtCsliPDVd4pfgL_15zerofrom_derive7visitor11TypeVisitorEBV_, symObjAddr: 0x6F50, symBinAddr: 0x67D70, symSize: 0xD0 }
  - { offset: 0x9A500, size: 0x8, addend: 0x0, symName: __RINvNtNtCsdGrGZaRBwMb_3syn3gen5visit17visit_return_typeNtNtCsliPDVd4pfgL_15zerofrom_derive7visitor11TypeVisitorEBV_, symObjAddr: 0x7020, symBinAddr: 0x67E40, symSize: 0xC0 }
  - { offset: 0x9A568, size: 0x8, addend: 0x0, symName: __RINvNtNtCsdGrGZaRBwMb_3syn3gen5visit17visit_trait_boundNtNtCsliPDVd4pfgL_15zerofrom_derive7visitor11TypeVisitorEBV_, symObjAddr: 0x70E0, symBinAddr: 0x67F00, symSize: 0x90 }
  - { offset: 0x9A5C8, size: 0x8, addend: 0x0, symName: __RINvNtNtCsdGrGZaRBwMb_3syn3gen5visit18visit_expr_closureNtNtCsliPDVd4pfgL_15zerofrom_derive7visitor11TypeVisitorEBW_, symObjAddr: 0x7170, symBinAddr: 0x67F90, symSize: 0x220 }
  - { offset: 0x9A6C0, size: 0x8, addend: 0x0, symName: __RINvNtNtCsdGrGZaRBwMb_3syn3gen5visit18visit_fields_namedNtNtCsliPDVd4pfgL_15zerofrom_derive7visitor11TypeVisitorEBW_, symObjAddr: 0x7390, symBinAddr: 0x681B0, symSize: 0xB0 }
  - { offset: 0x9A75D, size: 0x8, addend: 0x0, symName: __RINvNtNtCsdGrGZaRBwMb_3syn3gen5visit18visit_foreign_itemNtNtCsliPDVd4pfgL_15zerofrom_derive7visitor11TypeVisitorEBW_, symObjAddr: 0x7440, symBinAddr: 0x68260, symSize: 0x100 }
  - { offset: 0x9A82D, size: 0x8, addend: 0x0, symName: __RINvNtNtCsdGrGZaRBwMb_3syn3gen5visit18visit_impl_item_fnNtNtCsliPDVd4pfgL_15zerofrom_derive7visitor11TypeVisitorEBW_, symObjAddr: 0x7540, symBinAddr: 0x68360, symSize: 0xC0 }
  - { offset: 0x9A8AB, size: 0x8, addend: 0x0, symName: __RINvNtNtCsdGrGZaRBwMb_3syn3gen5visit18visit_lit_byte_strNtNtCsliPDVd4pfgL_15zerofrom_derive7visitor11TypeVisitorEBW_, symObjAddr: 0x7600, symBinAddr: 0x68420, symSize: 0x20 }
  - { offset: 0x9A8ED, size: 0x8, addend: 0x0, symName: __RINvNtNtCsdGrGZaRBwMb_3syn3gen5visit18visit_path_segmentNtNtCsliPDVd4pfgL_15zerofrom_derive7visitor11TypeVisitorEBW_, symObjAddr: 0x7620, symBinAddr: 0x68440, symSize: 0x40 }
  - { offset: 0x9A92F, size: 0x8, addend: 0x0, symName: __RINvNtNtCsdGrGZaRBwMb_3syn3gen5visit18visit_range_limitsNtNtCsliPDVd4pfgL_15zerofrom_derive7visitor11TypeVisitorEBW_, symObjAddr: 0x7660, symBinAddr: 0x68480, symSize: 0x50 }
  - { offset: 0x9A971, size: 0x8, addend: 0x0, symName: __RINvNtNtCsdGrGZaRBwMb_3syn3gen5visit18visit_type_bare_fnNtNtCsliPDVd4pfgL_15zerofrom_derive7visitor11TypeVisitorEBW_, symObjAddr: 0x76B0, symBinAddr: 0x684D0, symSize: 0x1C0 }
  - { offset: 0x9AA68, size: 0x8, addend: 0x0, symName: __RINvNtNtCsdGrGZaRBwMb_3syn3gen5visit18visit_where_clauseNtNtCsliPDVd4pfgL_15zerofrom_derive7visitor11TypeVisitorEBW_, symObjAddr: 0x7870, symBinAddr: 0x68690, symSize: 0xB0 }
  - { offset: 0x9AB05, size: 0x8, addend: 0x0, symName: __RINvNtNtCsdGrGZaRBwMb_3syn3gen5visit19visit_bare_variadicNtNtCsliPDVd4pfgL_15zerofrom_derive7visitor11TypeVisitorEBX_, symObjAddr: 0x7920, symBinAddr: 0x68740, symSize: 0xD0 }
  - { offset: 0x9ABA1, size: 0x8, addend: 0x0, symName: __RINvNtNtCsdGrGZaRBwMb_3syn3gen5visit19visit_expr_continueNtNtCsliPDVd4pfgL_15zerofrom_derive7visitor11TypeVisitorEBX_, symObjAddr: 0x79F0, symBinAddr: 0x68810, symSize: 0xD0 }
  - { offset: 0x9AC3D, size: 0x8, addend: 0x0, symName: __RINvNtNtCsdGrGZaRBwMb_3syn3gen5visit19visit_expr_for_loopNtNtCsliPDVd4pfgL_15zerofrom_derive7visitor11TypeVisitorEBX_, symObjAddr: 0x7AC0, symBinAddr: 0x688E0, symSize: 0x190 }
  - { offset: 0x9ACD9, size: 0x8, addend: 0x0, symName: __RINvNtNtCsdGrGZaRBwMb_3syn3gen5visit19visit_expr_raw_addrNtNtCsliPDVd4pfgL_15zerofrom_derive7visitor11TypeVisitorEBX_, symObjAddr: 0x7C50, symBinAddr: 0x68A70, symSize: 0xF0 }
  - { offset: 0x9AD57, size: 0x8, addend: 0x0, symName: __RINvNtNtCsdGrGZaRBwMb_3syn3gen5visit19visit_generic_paramNtNtCsliPDVd4pfgL_15zerofrom_derive7visitor11TypeVisitorEBX_, symObjAddr: 0x7D40, symBinAddr: 0x68B60, symSize: 0xB0 }
  - { offset: 0x9ADEB, size: 0x8, addend: 0x0, symName: __RINvNtNtCsdGrGZaRBwMb_3syn3gen5visit19visit_pat_referenceNtNtCsliPDVd4pfgL_15zerofrom_derive7visitor11TypeVisitorEBX_, symObjAddr: 0x7DF0, symBinAddr: 0x68C10, symSize: 0xE0 }
  - { offset: 0x9AE69, size: 0x8, addend: 0x0, symName: __RINvNtNtCsdGrGZaRBwMb_3syn3gen5visit19visit_trait_item_fnNtNtCsliPDVd4pfgL_15zerofrom_derive7visitor11TypeVisitorEBX_, symObjAddr: 0x7ED0, symBinAddr: 0x68CF0, symSize: 0xF0 }
  - { offset: 0x9AF05, size: 0x8, addend: 0x0, symName: __RINvNtNtCsdGrGZaRBwMb_3syn3gen5visit20visit_captured_paramNtNtCsliPDVd4pfgL_15zerofrom_derive7visitor11TypeVisitorEBY_, symObjAddr: 0x7FC0, symBinAddr: 0x68DE0, symSize: 0x70 }
  - { offset: 0x9AF7B, size: 0x8, addend: 0x0, symName: __RINvNtNtCsdGrGZaRBwMb_3syn3gen5visit20visit_expr_referenceNtNtCsliPDVd4pfgL_15zerofrom_derive7visitor11TypeVisitorEBY_, symObjAddr: 0x8030, symBinAddr: 0x68E50, symSize: 0xE0 }
  - { offset: 0x9AFF9, size: 0x8, addend: 0x0, symName: __RINvNtNtCsdGrGZaRBwMb_3syn3gen5visit20visit_expr_try_blockNtNtCsliPDVd4pfgL_15zerofrom_derive7visitor11TypeVisitorEBY_, symObjAddr: 0x8110, symBinAddr: 0x68F30, symSize: 0xA0 }
  - { offset: 0x9B077, size: 0x8, addend: 0x0, symName: __RINvNtNtCsdGrGZaRBwMb_3syn3gen5visit20visit_fields_unnamedNtNtCsliPDVd4pfgL_15zerofrom_derive7visitor11TypeVisitorEBY_, symObjAddr: 0x81B0, symBinAddr: 0x68FD0, symSize: 0xB0 }
  - { offset: 0x9B114, size: 0x8, addend: 0x0, symName: __RINvNtNtCsdGrGZaRBwMb_3syn3gen5visit20visit_impl_item_typeNtNtCsliPDVd4pfgL_15zerofrom_derive7visitor11TypeVisitorEBY_, symObjAddr: 0x8260, symBinAddr: 0x69080, symSize: 0xE0 }
  - { offset: 0x9B192, size: 0x8, addend: 0x0, symName: __RINvNtNtCsdGrGZaRBwMb_3syn3gen5visit20visit_lifetime_paramNtNtCsliPDVd4pfgL_15zerofrom_derive7visitor11TypeVisitorEBY_, symObjAddr: 0x8340, symBinAddr: 0x69160, symSize: 0x150 }
  - { offset: 0x9B26C, size: 0x8, addend: 0x0, symName: __RINvNtNtCsdGrGZaRBwMb_3syn3gen5visit20visit_path_argumentsNtNtCsliPDVd4pfgL_15zerofrom_derive7visitor11TypeVisitorEBY_, symObjAddr: 0x8490, symBinAddr: 0x692B0, symSize: 0xA0 }
  - { offset: 0x9B2E2, size: 0x8, addend: 0x0, symName: __RINvNtNtCsdGrGZaRBwMb_3syn3gen5visit20visit_predicate_typeNtNtCsliPDVd4pfgL_15zerofrom_derive7visitor11TypeVisitorEBY_, symObjAddr: 0x8530, symBinAddr: 0x69350, symSize: 0x130 }
  - { offset: 0x9B39D, size: 0x8, addend: 0x0, symName: __RINvNtNtCsdGrGZaRBwMb_3syn3gen5visit20visit_type_referenceNtNtCsliPDVd4pfgL_15zerofrom_derive7visitor11TypeVisitorEBY_, symObjAddr: 0x8660, symBinAddr: 0x69480, symSize: 0xC0 }
  - { offset: 0x9B3FD, size: 0x8, addend: 0x0, symName: __RINvNtNtCsdGrGZaRBwMb_3syn3gen5visit20visit_vis_restrictedNtNtCsliPDVd4pfgL_15zerofrom_derive7visitor11TypeVisitorEBY_, symObjAddr: 0x8720, symBinAddr: 0x69540, symSize: 0x80 }
  - { offset: 0x9B43F, size: 0x8, addend: 0x0, symName: __RINvNtNtCsdGrGZaRBwMb_3syn3gen5visit21visit_bound_lifetimesNtNtCsliPDVd4pfgL_15zerofrom_derive7visitor11TypeVisitorEBZ_, symObjAddr: 0x87A0, symBinAddr: 0x695C0, symSize: 0xB0 }
  - { offset: 0x9B4DC, size: 0x8, addend: 0x0, symName: __RINvNtNtCsdGrGZaRBwMb_3syn3gen5visit21visit_foreign_item_fnNtNtCsliPDVd4pfgL_15zerofrom_derive7visitor11TypeVisitorEBZ_, symObjAddr: 0x8850, symBinAddr: 0x69670, symSize: 0xB0 }
  - { offset: 0x9B55A, size: 0x8, addend: 0x0, symName: __RINvNtNtCsdGrGZaRBwMb_3syn3gen5visit21visit_impl_item_constNtNtCsliPDVd4pfgL_15zerofrom_derive7visitor11TypeVisitorEBZ_, symObjAddr: 0x8900, symBinAddr: 0x69720, symSize: 0xF0 }
  - { offset: 0x9B5D8, size: 0x8, addend: 0x0, symName: __RINvNtNtCsdGrGZaRBwMb_3syn3gen5visit21visit_impl_item_macroNtNtCsliPDVd4pfgL_15zerofrom_derive7visitor11TypeVisitorEBZ_, symObjAddr: 0x89F0, symBinAddr: 0x69810, symSize: 0xA0 }
  - { offset: 0x9B656, size: 0x8, addend: 0x0, symName: __RINvNtNtCsdGrGZaRBwMb_3syn3gen5visit21visit_macro_delimiterNtNtCsliPDVd4pfgL_15zerofrom_derive7visitor11TypeVisitorEBZ_, symObjAddr: 0x8A90, symBinAddr: 0x698B0, symSize: 0x70 }
  - { offset: 0x9B698, size: 0x8, addend: 0x0, symName: __RINvNtNtCsdGrGZaRBwMb_3syn3gen5visit21visit_meta_name_valueNtNtCsliPDVd4pfgL_15zerofrom_derive7visitor11TypeVisitorEBZ_, symObjAddr: 0x8B00, symBinAddr: 0x69920, symSize: 0x40 }
  - { offset: 0x9B6DA, size: 0x8, addend: 0x0, symName: __RINvNtNtCsdGrGZaRBwMb_3syn3gen5visit21visit_precise_captureNtNtCsliPDVd4pfgL_15zerofrom_derive7visitor11TypeVisitorEBZ_, symObjAddr: 0x8B40, symBinAddr: 0x69960, symSize: 0xB0 }
  - { offset: 0x9B777, size: 0x8, addend: 0x0, symName: __RINvNtNtCsdGrGZaRBwMb_3syn3gen5visit21visit_trait_item_typeNtNtCsliPDVd4pfgL_15zerofrom_derive7visitor11TypeVisitorEBZ_, symObjAddr: 0x8BF0, symBinAddr: 0x69A10, symSize: 0x1C0 }
  - { offset: 0x9B86F, size: 0x8, addend: 0x0, symName: __RINvNtNtCsdGrGZaRBwMb_3syn3gen5visit21visit_type_impl_traitNtNtCsliPDVd4pfgL_15zerofrom_derive7visitor11TypeVisitorEBZ_, symObjAddr: 0x8DB0, symBinAddr: 0x69BD0, symSize: 0xB0 }
  - { offset: 0x9B90C, size: 0x8, addend: 0x0, symName: __RINvNtNtCsdGrGZaRBwMb_3syn3gen5visit21visit_where_predicateNtNtCsliPDVd4pfgL_15zerofrom_derive7visitor11TypeVisitorEBZ_, symObjAddr: 0x8E60, symBinAddr: 0x69C80, symSize: 0x70 }
  - { offset: 0x9B982, size: 0x8, addend: 0x0, symName: __RINvNtNtCsdGrGZaRBwMb_3syn3gen5visit22visit_expr_method_callNtNtCsliPDVd4pfgL_15zerofrom_derive7visitor11TypeVisitorEB10_, symObjAddr: 0x8ED0, symBinAddr: 0x69CF0, symSize: 0x220 }
  - { offset: 0x9BA72, size: 0x8, addend: 0x0, symName: __RINvNtNtCsdGrGZaRBwMb_3syn3gen5visit22visit_field_mutabilityNtNtCsliPDVd4pfgL_15zerofrom_derive7visitor11TypeVisitorEB10_, symObjAddr: 0x90F0, symBinAddr: 0x69F10, symSize: 0x20 }
  - { offset: 0x9BAB4, size: 0x8, addend: 0x0, symName: __RINvNtNtCsdGrGZaRBwMb_3syn3gen5visit22visit_generic_argumentNtNtCsliPDVd4pfgL_15zerofrom_derive7visitor11TypeVisitorEB10_, symObjAddr: 0x9110, symBinAddr: 0x69F30, symSize: 0x120 }
  - { offset: 0x9BBA2, size: 0x8, addend: 0x0, symName: __RINvNtNtCsdGrGZaRBwMb_3syn3gen5visit22visit_item_foreign_modNtNtCsliPDVd4pfgL_15zerofrom_derive7visitor11TypeVisitorEB10_, symObjAddr: 0x9230, symBinAddr: 0x6A050, symSize: 0xF0 }
  - { offset: 0x9BC5D, size: 0x8, addend: 0x0, symName: __RINvNtNtCsdGrGZaRBwMb_3syn3gen5visit22visit_item_trait_aliasNtNtCsliPDVd4pfgL_15zerofrom_derive7visitor11TypeVisitorEB10_, symObjAddr: 0x9320, symBinAddr: 0x6A140, symSize: 0x190 }
  - { offset: 0x9BD37, size: 0x8, addend: 0x0, symName: __RINvNtNtCsdGrGZaRBwMb_3syn3gen5visit22visit_pat_tuple_structNtNtCsliPDVd4pfgL_15zerofrom_derive7visitor11TypeVisitorEB10_, symObjAddr: 0x94B0, symBinAddr: 0x6A2D0, symSize: 0x1A0 }
  - { offset: 0x9BE2F, size: 0x8, addend: 0x0, symName: __RINvNtNtCsdGrGZaRBwMb_3syn3gen5visit22visit_trait_item_constNtNtCsliPDVd4pfgL_15zerofrom_derive7visitor11TypeVisitorEB10_, symObjAddr: 0x9650, symBinAddr: 0x6A470, symSize: 0x110 }
  - { offset: 0x9BECB, size: 0x8, addend: 0x0, symName: __RINvNtNtCsdGrGZaRBwMb_3syn3gen5visit22visit_trait_item_macroNtNtCsliPDVd4pfgL_15zerofrom_derive7visitor11TypeVisitorEB10_, symObjAddr: 0x9760, symBinAddr: 0x6A580, symSize: 0xA0 }
  - { offset: 0x9BF49, size: 0x8, addend: 0x0, symName: __RINvNtNtCsdGrGZaRBwMb_3syn3gen5visit22visit_type_param_boundNtNtCsliPDVd4pfgL_15zerofrom_derive7visitor11TypeVisitorEB10_, symObjAddr: 0x9800, symBinAddr: 0x6A620, symSize: 0xE0 }
  - { offset: 0x9BFFB, size: 0x8, addend: 0x0, symName: __RINvNtNtCsdGrGZaRBwMb_3syn3gen5visit23visit_foreign_item_typeNtNtCsliPDVd4pfgL_15zerofrom_derive7visitor11TypeVisitorEB11_, symObjAddr: 0x98E0, symBinAddr: 0x6A700, symSize: 0xC0 }
  - { offset: 0x9C079, size: 0x8, addend: 0x0, symName: __RINvNtNtCsdGrGZaRBwMb_3syn3gen5visit23visit_item_extern_crateNtNtCsliPDVd4pfgL_15zerofrom_derive7visitor11TypeVisitorEB11_, symObjAddr: 0x99A0, symBinAddr: 0x6A7C0, symSize: 0xF0 }
  - { offset: 0x9C115, size: 0x8, addend: 0x0, symName: __RINvNtNtCsdGrGZaRBwMb_3syn3gen5visit23visit_static_mutabilityNtNtCsliPDVd4pfgL_15zerofrom_derive7visitor11TypeVisitorEB11_, symObjAddr: 0x9A90, symBinAddr: 0x6A8B0, symSize: 0x40 }
  - { offset: 0x9C157, size: 0x8, addend: 0x0, symName: __RINvNtNtCsdGrGZaRBwMb_3syn3gen5visit23visit_type_trait_objectNtNtCsliPDVd4pfgL_15zerofrom_derive7visitor11TypeVisitorEB11_, symObjAddr: 0x9AD0, symBinAddr: 0x6A8F0, symSize: 0xB0 }
  - { offset: 0x9C1F4, size: 0x8, addend: 0x0, symName: __RINvNtNtCsdGrGZaRBwMb_3syn3gen5visit24visit_foreign_item_macroNtNtCsliPDVd4pfgL_15zerofrom_derive7visitor11TypeVisitorEB12_, symObjAddr: 0x9B80, symBinAddr: 0x6A9A0, symSize: 0xA0 }
  - { offset: 0x9C272, size: 0x8, addend: 0x0, symName: __RINvNtNtCsdGrGZaRBwMb_3syn3gen5visit24visit_pointer_mutabilityNtNtCsliPDVd4pfgL_15zerofrom_derive7visitor11TypeVisitorEB12_, symObjAddr: 0x9C20, symBinAddr: 0x6AA40, symSize: 0x50 }
  - { offset: 0x9C2B4, size: 0x8, addend: 0x0, symName: __RINvNtNtCsdGrGZaRBwMb_3syn3gen5visit24visit_predicate_lifetimeNtNtCsliPDVd4pfgL_15zerofrom_derive7visitor11TypeVisitorEB12_, symObjAddr: 0x9C70, symBinAddr: 0x6AA90, symSize: 0xD0 }
  - { offset: 0x9C351, size: 0x8, addend: 0x0, symName: __RINvNtNtCsdGrGZaRBwMb_3syn3gen5visit25visit_foreign_item_staticNtNtCsliPDVd4pfgL_15zerofrom_derive7visitor11TypeVisitorEB13_, symObjAddr: 0x9D40, symBinAddr: 0x6AB60, symSize: 0x110 }
  - { offset: 0x9C3CF, size: 0x8, addend: 0x0, symName: __RINvNtNtCsdGrGZaRBwMb_3syn3gen5visit26visit_trait_bound_modifierNtNtCsliPDVd4pfgL_15zerofrom_derive7visitor11TypeVisitorEB14_, symObjAddr: 0x9E50, symBinAddr: 0x6AC70, symSize: 0x40 }
  - { offset: 0x9C411, size: 0x8, addend: 0x0, symName: __RINvNtNtCsdGrGZaRBwMb_3syn3gen5visit37visit_parenthesized_generic_argumentsNtNtCsliPDVd4pfgL_15zerofrom_derive7visitor11TypeVisitorEB1f_, symObjAddr: 0x9E90, symBinAddr: 0x6ACB0, symSize: 0xD0 }
  - { offset: 0x9C4AE, size: 0x8, addend: 0x0, symName: __RINvNtNtCsdGrGZaRBwMb_3syn3gen5visit39visit_angle_bracketed_generic_argumentsNtNtCsliPDVd4pfgL_15zerofrom_derive7visitor11TypeVisitorEB1h_, symObjAddr: 0x9F60, symBinAddr: 0x6AD80, symSize: 0xB0 }
  - { offset: 0x9C54B, size: 0x8, addend: 0x0, symName: __RINvNtNtCsdGrGZaRBwMb_3syn3gen5visit9visit_abiNtNtCsliPDVd4pfgL_15zerofrom_derive7visitor11TypeVisitorEBM_, symObjAddr: 0xA010, symBinAddr: 0x6AE30, symSize: 0x60 }
  - { offset: 0x9C5AB, size: 0x8, addend: 0x0, symName: __RINvNtNtCsdGrGZaRBwMb_3syn3gen5visit9visit_armNtNtCsliPDVd4pfgL_15zerofrom_derive7visitor11TypeVisitorEBM_, symObjAddr: 0xA070, symBinAddr: 0x6AE90, symSize: 0x190 }
  - { offset: 0x9C63F, size: 0x8, addend: 0x0, symName: __RINvNtNtCsdGrGZaRBwMb_3syn3gen5visit9visit_litNtNtCsliPDVd4pfgL_15zerofrom_derive7visitor11TypeVisitorEBM_, symObjAddr: 0xA200, symBinAddr: 0x6B020, symSize: 0x1A0 }
  - { offset: 0x9C774, size: 0x8, addend: 0x0, symName: __RINvNtNtCsdGrGZaRBwMb_3syn3gen5visit9visit_patNtNtCsliPDVd4pfgL_15zerofrom_derive7visitor11TypeVisitorEBM_, symObjAddr: 0xA3A0, symBinAddr: 0x6B1C0, symSize: 0x350 }
  - { offset: 0xA76D6, size: 0x8, addend: 0x0, symName: __RINvNtNtCslJiobkLta79_5alloc3vec16in_place_collect18from_iter_in_placeINtNtNtNtCsieiGu2EXtoJ_4core4iter8adapters3map3MapINtNtB4_9into_iter8IntoIterNtNtCsdGrGZaRBwMb_3syn4attr9AttributeENCINvNtNtB2p_3gen4fold8fold_vecB2l_NtNvCsliPDVd4pfgL_15zerofrom_derive16replace_lifetime15ReplaceLifetimeNvYB3w_NtB32_4Fold14fold_attributeE0EB2l_EB3A_, symObjAddr: 0x0, symBinAddr: 0x6B510, symSize: 0x350 }
  - { offset: 0xAB6E9, size: 0x8, addend: 0x0, symName: __RINvNtNtCslJiobkLta79_5alloc3vec16in_place_collect18from_iter_in_placeINtNtNtNtCsieiGu2EXtoJ_4core4iter8adapters3map3MapINtNtB4_9into_iter8IntoIterNtNtCsdGrGZaRBwMb_3syn4attr9AttributeENCINvNtNtB2p_3gen4fold8fold_vecB2l_NtNvCsliPDVd4pfgL_15zerofrom_derive16replace_lifetime15ReplaceLifetimeNvYB3w_NtB32_4Fold14fold_attributeE0EB2l_EB3A_, symObjAddr: 0x0, symBinAddr: 0x6B510, symSize: 0x350 }
  - { offset: 0xABB7B, size: 0x8, addend: 0x0, symName: __RINvNtNtCslJiobkLta79_5alloc3vec16in_place_collect18from_iter_in_placeINtNtNtNtCsieiGu2EXtoJ_4core4iter8adapters3map3MapINtNtB4_9into_iter8IntoIterNtNtCsdGrGZaRBwMb_3syn4attr9AttributeENCINvNtNtB2p_3gen4fold8fold_vecB2l_NtNvCsliPDVd4pfgL_15zerofrom_derive25replace_lifetime_and_type20ReplaceLifetimeAndTyNvYB3w_NtB32_4Fold14fold_attributeE0EB2l_EB3A_, symObjAddr: 0x350, symBinAddr: 0x6B860, symSize: 0x350 }
  - { offset: 0xAC00D, size: 0x8, addend: 0x0, symName: __RINvNtNtCslJiobkLta79_5alloc3vec16in_place_collect18from_iter_in_placeINtNtNtNtCsieiGu2EXtoJ_4core4iter8adapters3map3MapINtNtB4_9into_iter8IntoIterNtNtCsdGrGZaRBwMb_3syn4expr3ArmENCINvNtNtB2p_3gen4fold8fold_vecB2l_NtNvCsliPDVd4pfgL_15zerofrom_derive16replace_lifetime15ReplaceLifetimeNvYB3q_NtB2W_4Fold8fold_armE0EB2l_EB3u_, symObjAddr: 0x6A0, symBinAddr: 0x6BBB0, symSize: 0x360 }
  - { offset: 0xAC49F, size: 0x8, addend: 0x0, symName: __RINvNtNtCslJiobkLta79_5alloc3vec16in_place_collect18from_iter_in_placeINtNtNtNtCsieiGu2EXtoJ_4core4iter8adapters3map3MapINtNtB4_9into_iter8IntoIterNtNtCsdGrGZaRBwMb_3syn4expr3ArmENCINvNtNtB2p_3gen4fold8fold_vecB2l_NtNvCsliPDVd4pfgL_15zerofrom_derive25replace_lifetime_and_type20ReplaceLifetimeAndTyNvYB3q_NtB2W_4Fold8fold_armE0EB2l_EB3u_, symObjAddr: 0xA00, symBinAddr: 0x6BF10, symSize: 0x360 }
  - { offset: 0xAC931, size: 0x8, addend: 0x0, symName: __RINvNtNtCslJiobkLta79_5alloc3vec16in_place_collect18from_iter_in_placeINtNtNtNtCsieiGu2EXtoJ_4core4iter8adapters3map3MapINtNtB4_9into_iter8IntoIterNtNtCsdGrGZaRBwMb_3syn4item11ForeignItemENCINvNtNtB2p_3gen4fold8fold_vecB2l_NtNvCsliPDVd4pfgL_15zerofrom_derive16replace_lifetime15ReplaceLifetimeNvYB3z_NtB35_4Fold17fold_foreign_itemE0EB2l_EB3D_, symObjAddr: 0xD60, symBinAddr: 0x6C270, symSize: 0x360 }
  - { offset: 0xACDC3, size: 0x8, addend: 0x0, symName: __RINvNtNtCslJiobkLta79_5alloc3vec16in_place_collect18from_iter_in_placeINtNtNtNtCsieiGu2EXtoJ_4core4iter8adapters3map3MapINtNtB4_9into_iter8IntoIterNtNtCsdGrGZaRBwMb_3syn4item11ForeignItemENCINvNtNtB2p_3gen4fold8fold_vecB2l_NtNvCsliPDVd4pfgL_15zerofrom_derive25replace_lifetime_and_type20ReplaceLifetimeAndTyNvYB3z_NtB35_4Fold17fold_foreign_itemE0EB2l_EB3D_, symObjAddr: 0x10C0, symBinAddr: 0x6C5D0, symSize: 0x360 }
  - { offset: 0xAD255, size: 0x8, addend: 0x0, symName: __RINvNtNtCslJiobkLta79_5alloc3vec16in_place_collect18from_iter_in_placeINtNtNtNtCsieiGu2EXtoJ_4core4iter8adapters3map3MapINtNtB4_9into_iter8IntoIterNtNtCsdGrGZaRBwMb_3syn4item4ItemENCINvNtNtB2p_3gen4fold8fold_vecB2l_NtNvCsliPDVd4pfgL_15zerofrom_derive16replace_lifetime15ReplaceLifetimeNvYB3r_NtB2X_4Fold9fold_itemE0EB2l_EB3v_, symObjAddr: 0x1420, symBinAddr: 0x6C930, symSize: 0x360 }
  - { offset: 0xAD6E7, size: 0x8, addend: 0x0, symName: __RINvNtNtCslJiobkLta79_5alloc3vec16in_place_collect18from_iter_in_placeINtNtNtNtCsieiGu2EXtoJ_4core4iter8adapters3map3MapINtNtB4_9into_iter8IntoIterNtNtCsdGrGZaRBwMb_3syn4item4ItemENCINvNtNtB2p_3gen4fold8fold_vecB2l_NtNvCsliPDVd4pfgL_15zerofrom_derive25replace_lifetime_and_type20ReplaceLifetimeAndTyNvYB3r_NtB2X_4Fold9fold_itemE0EB2l_EB3v_, symObjAddr: 0x1780, symBinAddr: 0x6CC90, symSize: 0x360 }
  - { offset: 0xADB79, size: 0x8, addend: 0x0, symName: __RINvNtNtCslJiobkLta79_5alloc3vec16in_place_collect18from_iter_in_placeINtNtNtNtCsieiGu2EXtoJ_4core4iter8adapters3map3MapINtNtB4_9into_iter8IntoIterNtNtCsdGrGZaRBwMb_3syn4item8ImplItemENCINvNtNtB2p_3gen4fold8fold_vecB2l_NtNvCsliPDVd4pfgL_15zerofrom_derive16replace_lifetime15ReplaceLifetimeNvYB3v_NtB31_4Fold14fold_impl_itemE0EB2l_EB3z_, symObjAddr: 0x1AE0, symBinAddr: 0x6CFF0, symSize: 0x360 }
  - { offset: 0xAE00B, size: 0x8, addend: 0x0, symName: __RINvNtNtCslJiobkLta79_5alloc3vec16in_place_collect18from_iter_in_placeINtNtNtNtCsieiGu2EXtoJ_4core4iter8adapters3map3MapINtNtB4_9into_iter8IntoIterNtNtCsdGrGZaRBwMb_3syn4item8ImplItemENCINvNtNtB2p_3gen4fold8fold_vecB2l_NtNvCsliPDVd4pfgL_15zerofrom_derive25replace_lifetime_and_type20ReplaceLifetimeAndTyNvYB3v_NtB31_4Fold14fold_impl_itemE0EB2l_EB3z_, symObjAddr: 0x1E40, symBinAddr: 0x6D350, symSize: 0x360 }
  - { offset: 0xAE49D, size: 0x8, addend: 0x0, symName: __RINvNtNtCslJiobkLta79_5alloc3vec16in_place_collect18from_iter_in_placeINtNtNtNtCsieiGu2EXtoJ_4core4iter8adapters3map3MapINtNtB4_9into_iter8IntoIterNtNtCsdGrGZaRBwMb_3syn4item9TraitItemENCINvNtNtB2p_3gen4fold8fold_vecB2l_NtNvCsliPDVd4pfgL_15zerofrom_derive16replace_lifetime15ReplaceLifetimeNvYB3w_NtB32_4Fold15fold_trait_itemE0EB2l_EB3A_, symObjAddr: 0x21A0, symBinAddr: 0x6D6B0, symSize: 0x360 }
  - { offset: 0xAE92F, size: 0x8, addend: 0x0, symName: __RINvNtNtCslJiobkLta79_5alloc3vec16in_place_collect18from_iter_in_placeINtNtNtNtCsieiGu2EXtoJ_4core4iter8adapters3map3MapINtNtB4_9into_iter8IntoIterNtNtCsdGrGZaRBwMb_3syn4item9TraitItemENCINvNtNtB2p_3gen4fold8fold_vecB2l_NtNvCsliPDVd4pfgL_15zerofrom_derive25replace_lifetime_and_type20ReplaceLifetimeAndTyNvYB3w_NtB32_4Fold15fold_trait_itemE0EB2l_EB3A_, symObjAddr: 0x2500, symBinAddr: 0x6DA10, symSize: 0x360 }
  - { offset: 0xAEDC1, size: 0x8, addend: 0x0, symName: __RINvNtNtCslJiobkLta79_5alloc3vec16in_place_collect18from_iter_in_placeINtNtNtNtCsieiGu2EXtoJ_4core4iter8adapters3map3MapINtNtB4_9into_iter8IntoIterNtNtCsdGrGZaRBwMb_3syn4stmt4StmtENCINvNtNtB2p_3gen4fold8fold_vecB2l_NtNvCsliPDVd4pfgL_15zerofrom_derive16replace_lifetime15ReplaceLifetimeNvYB3r_NtB2X_4Fold9fold_stmtE0EB2l_EB3v_, symObjAddr: 0x2860, symBinAddr: 0x6DD70, symSize: 0x360 }
  - { offset: 0xAF253, size: 0x8, addend: 0x0, symName: __RINvNtNtCslJiobkLta79_5alloc3vec16in_place_collect18from_iter_in_placeINtNtNtNtCsieiGu2EXtoJ_4core4iter8adapters3map3MapINtNtB4_9into_iter8IntoIterNtNtCsdGrGZaRBwMb_3syn4stmt4StmtENCINvNtNtB2p_3gen4fold8fold_vecB2l_NtNvCsliPDVd4pfgL_15zerofrom_derive25replace_lifetime_and_type20ReplaceLifetimeAndTyNvYB3r_NtB2X_4Fold9fold_stmtE0EB2l_EB3v_, symObjAddr: 0x2BC0, symBinAddr: 0x6E0D0, symSize: 0x360 }
  - { offset: 0xAF6B1, size: 0x8, addend: 0x0, symName: __RNCINvNtNtCslJiobkLta79_5alloc3vec16in_place_collect24write_in_place_with_dropNtNtCsdGrGZaRBwMb_3syn4attr9AttributeE0CsliPDVd4pfgL_15zerofrom_derive, symObjAddr: 0x2F20, symBinAddr: 0x6E430, symSize: 0x50 }
  - { offset: 0xAF733, size: 0x8, addend: 0x0, symName: __RNCINvNtNtCslJiobkLta79_5alloc3vec16in_place_collect24write_in_place_with_dropNtNtCsdGrGZaRBwMb_3syn4expr3ArmE0CsliPDVd4pfgL_15zerofrom_derive, symObjAddr: 0x2F70, symBinAddr: 0x6E480, symSize: 0x50 }
  - { offset: 0xAF7B5, size: 0x8, addend: 0x0, symName: __RNCINvNtNtCslJiobkLta79_5alloc3vec16in_place_collect24write_in_place_with_dropNtNtCsdGrGZaRBwMb_3syn4item11ForeignItemE0CsliPDVd4pfgL_15zerofrom_derive, symObjAddr: 0x2FC0, symBinAddr: 0x6E4D0, symSize: 0x50 }
  - { offset: 0xAF837, size: 0x8, addend: 0x0, symName: __RNCINvNtNtCslJiobkLta79_5alloc3vec16in_place_collect24write_in_place_with_dropNtNtCsdGrGZaRBwMb_3syn4item4ItemE0CsliPDVd4pfgL_15zerofrom_derive, symObjAddr: 0x3010, symBinAddr: 0x6E520, symSize: 0x50 }
  - { offset: 0xAF8B9, size: 0x8, addend: 0x0, symName: __RNCINvNtNtCslJiobkLta79_5alloc3vec16in_place_collect24write_in_place_with_dropNtNtCsdGrGZaRBwMb_3syn4item8ImplItemE0CsliPDVd4pfgL_15zerofrom_derive, symObjAddr: 0x3060, symBinAddr: 0x6E570, symSize: 0x50 }
  - { offset: 0xAF93B, size: 0x8, addend: 0x0, symName: __RNCINvNtNtCslJiobkLta79_5alloc3vec16in_place_collect24write_in_place_with_dropNtNtCsdGrGZaRBwMb_3syn4item9TraitItemE0CsliPDVd4pfgL_15zerofrom_derive, symObjAddr: 0x30B0, symBinAddr: 0x6E5C0, symSize: 0x50 }
  - { offset: 0xAF9BD, size: 0x8, addend: 0x0, symName: __RNCINvNtNtCslJiobkLta79_5alloc3vec16in_place_collect24write_in_place_with_dropNtNtCsdGrGZaRBwMb_3syn4stmt4StmtE0CsliPDVd4pfgL_15zerofrom_derive, symObjAddr: 0x3100, symBinAddr: 0x6E610, symSize: 0x50 }
  - { offset: 0xB7B4F, size: 0x8, addend: 0x0, symName: __RINvNtCsdGrGZaRBwMb_3syn10punctuated4foldNtNtB4_2ty4TypeNtNtB4_5token5CommaNtNvCsliPDVd4pfgL_15zerofrom_derive16replace_lifetime15ReplaceLifetimeNvYB1b_NtNtNtB4_3gen4fold4Fold9fold_typeEB1f_, symObjAddr: 0x0, symBinAddr: 0x6E660, symSize: 0x580 }
  - { offset: 0xBBFF9, size: 0x8, addend: 0x0, symName: __RINvNtCsdGrGZaRBwMb_3syn10punctuated4foldNtNtB4_2ty4TypeNtNtB4_5token5CommaNtNvCsliPDVd4pfgL_15zerofrom_derive16replace_lifetime15ReplaceLifetimeNvYB1b_NtNtNtB4_3gen4fold4Fold9fold_typeEB1f_, symObjAddr: 0x0, symBinAddr: 0x6E660, symSize: 0x580 }
  - { offset: 0xBC11F, size: 0x8, addend: 0x0, symName: __RINvNtCsdGrGZaRBwMb_3syn10punctuated4foldNtNtB4_2ty4TypeNtNtB4_5token5CommaNtNvCsliPDVd4pfgL_15zerofrom_derive25replace_lifetime_and_type20ReplaceLifetimeAndTyNvYB1b_NtNtNtB4_3gen4fold4Fold9fold_typeEB1f_, symObjAddr: 0x580, symBinAddr: 0x6EBE0, symSize: 0x580 }
  - { offset: 0xBC245, size: 0x8, addend: 0x0, symName: __RINvNtCsdGrGZaRBwMb_3syn10punctuated4foldNtNtB4_2ty9BareFnArgNtNtB4_5token5CommaNtNvCsliPDVd4pfgL_15zerofrom_derive16replace_lifetime15ReplaceLifetimeNvYB1g_NtNtNtB4_3gen4fold4Fold16fold_bare_fn_argEB1k_, symObjAddr: 0xB00, symBinAddr: 0x6F160, symSize: 0x580 }
  - { offset: 0xBC36B, size: 0x8, addend: 0x0, symName: __RINvNtCsdGrGZaRBwMb_3syn10punctuated4foldNtNtB4_2ty9BareFnArgNtNtB4_5token5CommaNtNvCsliPDVd4pfgL_15zerofrom_derive25replace_lifetime_and_type20ReplaceLifetimeAndTyNvYB1g_NtNtNtB4_3gen4fold4Fold16fold_bare_fn_argEB1k_, symObjAddr: 0x1080, symBinAddr: 0x6F6E0, symSize: 0x580 }
  - { offset: 0xBC491, size: 0x8, addend: 0x0, symName: __RINvNtCsdGrGZaRBwMb_3syn10punctuated4foldNtNtB4_3pat3PatNtNtB4_5token2OrNtNvCsliPDVd4pfgL_15zerofrom_derive16replace_lifetime15ReplaceLifetimeNvYB18_NtNtNtB4_3gen4fold4Fold8fold_patEB1c_, symObjAddr: 0x1600, symBinAddr: 0x6FC60, symSize: 0x590 }
  - { offset: 0xBC5B7, size: 0x8, addend: 0x0, symName: __RINvNtCsdGrGZaRBwMb_3syn10punctuated4foldNtNtB4_3pat3PatNtNtB4_5token2OrNtNvCsliPDVd4pfgL_15zerofrom_derive25replace_lifetime_and_type20ReplaceLifetimeAndTyNvYB18_NtNtNtB4_3gen4fold4Fold8fold_patEB1c_, symObjAddr: 0x1B90, symBinAddr: 0x701F0, symSize: 0x590 }
  - { offset: 0xBC6DD, size: 0x8, addend: 0x0, symName: __RINvNtCsdGrGZaRBwMb_3syn10punctuated4foldNtNtB4_3pat3PatNtNtB4_5token5CommaNtNvCsliPDVd4pfgL_15zerofrom_derive16replace_lifetime15ReplaceLifetimeNvYB1b_NtNtNtB4_3gen4fold4Fold8fold_patEB1f_, symObjAddr: 0x2120, symBinAddr: 0x70780, symSize: 0x590 }
  - { offset: 0xBC803, size: 0x8, addend: 0x0, symName: __RINvNtCsdGrGZaRBwMb_3syn10punctuated4foldNtNtB4_3pat3PatNtNtB4_5token5CommaNtNvCsliPDVd4pfgL_15zerofrom_derive25replace_lifetime_and_type20ReplaceLifetimeAndTyNvYB1b_NtNtNtB4_3gen4fold4Fold8fold_patEB1f_, symObjAddr: 0x26B0, symBinAddr: 0x70D10, symSize: 0x590 }
  - { offset: 0xBC929, size: 0x8, addend: 0x0, symName: __RINvNtCsdGrGZaRBwMb_3syn10punctuated4foldNtNtB4_3pat8FieldPatNtNtB4_5token5CommaNtNvCsliPDVd4pfgL_15zerofrom_derive16replace_lifetime15ReplaceLifetimeNvYB1g_NtNtNtB4_3gen4fold4Fold14fold_field_patEB1k_, symObjAddr: 0x2C40, symBinAddr: 0x712A0, symSize: 0x6D0 }
  - { offset: 0xBCA4F, size: 0x8, addend: 0x0, symName: __RINvNtCsdGrGZaRBwMb_3syn10punctuated4foldNtNtB4_3pat8FieldPatNtNtB4_5token5CommaNtNvCsliPDVd4pfgL_15zerofrom_derive25replace_lifetime_and_type20ReplaceLifetimeAndTyNvYB1g_NtNtNtB4_3gen4fold4Fold14fold_field_patEB1k_, symObjAddr: 0x3310, symBinAddr: 0x71970, symSize: 0x6D0 }
  - { offset: 0xBCB75, size: 0x8, addend: 0x0, symName: __RINvNtCsdGrGZaRBwMb_3syn10punctuated4foldNtNtB4_4data5FieldNtNtB4_5token5CommaNtNvCsliPDVd4pfgL_15zerofrom_derive16replace_lifetime15ReplaceLifetimeNvYB1e_NtNtNtB4_3gen4fold4Fold10fold_fieldEB1i_, symObjAddr: 0x39E0, symBinAddr: 0x72040, symSize: 0x580 }
  - { offset: 0xBCC9B, size: 0x8, addend: 0x0, symName: __RINvNtCsdGrGZaRBwMb_3syn10punctuated4foldNtNtB4_4data5FieldNtNtB4_5token5CommaNtNvCsliPDVd4pfgL_15zerofrom_derive25replace_lifetime_and_type20ReplaceLifetimeAndTyNvYB1e_NtNtNtB4_3gen4fold4Fold10fold_fieldEB1i_, symObjAddr: 0x3F60, symBinAddr: 0x725C0, symSize: 0x580 }
  - { offset: 0xBCDC1, size: 0x8, addend: 0x0, symName: __RINvNtCsdGrGZaRBwMb_3syn10punctuated4foldNtNtB4_4data7VariantNtNtB4_5token5CommaNtNvCsliPDVd4pfgL_15zerofrom_derive16replace_lifetime15ReplaceLifetimeNvYB1g_NtNtNtB4_3gen4fold4Fold12fold_variantEB1k_, symObjAddr: 0x44E0, symBinAddr: 0x72B40, symSize: 0x580 }
  - { offset: 0xBCEE7, size: 0x8, addend: 0x0, symName: __RINvNtCsdGrGZaRBwMb_3syn10punctuated4foldNtNtB4_4data7VariantNtNtB4_5token5CommaNtNvCsliPDVd4pfgL_15zerofrom_derive25replace_lifetime_and_type20ReplaceLifetimeAndTyNvYB1g_NtNtNtB4_3gen4fold4Fold12fold_variantEB1k_, symObjAddr: 0x4A60, symBinAddr: 0x730C0, symSize: 0x580 }
  - { offset: 0xBD00D, size: 0x8, addend: 0x0, symName: __RINvNtCsdGrGZaRBwMb_3syn10punctuated4foldNtNtB4_4expr10FieldValueNtNtB4_5token5CommaNtNvCsliPDVd4pfgL_15zerofrom_derive16replace_lifetime15ReplaceLifetimeNvYB1k_NtNtNtB4_3gen4fold4Fold16fold_field_valueEB1o_, symObjAddr: 0x4FE0, symBinAddr: 0x73640, symSize: 0x580 }
  - { offset: 0xBD133, size: 0x8, addend: 0x0, symName: __RINvNtCsdGrGZaRBwMb_3syn10punctuated4foldNtNtB4_4expr10FieldValueNtNtB4_5token5CommaNtNvCsliPDVd4pfgL_15zerofrom_derive25replace_lifetime_and_type20ReplaceLifetimeAndTyNvYB1k_NtNtNtB4_3gen4fold4Fold16fold_field_valueEB1o_, symObjAddr: 0x5560, symBinAddr: 0x73BC0, symSize: 0x580 }
  - { offset: 0xBD259, size: 0x8, addend: 0x0, symName: __RINvNtCsdGrGZaRBwMb_3syn10punctuated4foldNtNtB4_4expr4ExprNtNtB4_5token5CommaNtNvCsliPDVd4pfgL_15zerofrom_derive16replace_lifetime15ReplaceLifetimeNvYB1d_NtNtNtB4_3gen4fold4Fold9fold_exprEB1h_, symObjAddr: 0x5AE0, symBinAddr: 0x74140, symSize: 0x580 }
  - { offset: 0xBD37F, size: 0x8, addend: 0x0, symName: __RINvNtCsdGrGZaRBwMb_3syn10punctuated4foldNtNtB4_4expr4ExprNtNtB4_5token5CommaNtNvCsliPDVd4pfgL_15zerofrom_derive25replace_lifetime_and_type20ReplaceLifetimeAndTyNvYB1d_NtNtNtB4_3gen4fold4Fold9fold_exprEB1h_, symObjAddr: 0x6060, symBinAddr: 0x746C0, symSize: 0x580 }
  - { offset: 0xBD4A5, size: 0x8, addend: 0x0, symName: __RINvNtCsdGrGZaRBwMb_3syn10punctuated4foldNtNtB4_4item5FnArgNtNtB4_5token5CommaNtNvCsliPDVd4pfgL_15zerofrom_derive16replace_lifetime15ReplaceLifetimeNvYB1e_NtNtNtB4_3gen4fold4Fold11fold_fn_argEB1i_, symObjAddr: 0x65E0, symBinAddr: 0x74C40, symSize: 0x580 }
  - { offset: 0xBD5CB, size: 0x8, addend: 0x0, symName: __RINvNtCsdGrGZaRBwMb_3syn10punctuated4foldNtNtB4_4item5FnArgNtNtB4_5token5CommaNtNvCsliPDVd4pfgL_15zerofrom_derive25replace_lifetime_and_type20ReplaceLifetimeAndTyNvYB1e_NtNtNtB4_3gen4fold4Fold11fold_fn_argEB1i_, symObjAddr: 0x6B60, symBinAddr: 0x751C0, symSize: 0x580 }
  - { offset: 0xBD6F1, size: 0x8, addend: 0x0, symName: __RINvNtCsdGrGZaRBwMb_3syn10punctuated4foldNtNtB4_4item7UseTreeNtNtB4_5token5CommaNtNvCsliPDVd4pfgL_15zerofrom_derive16replace_lifetime15ReplaceLifetimeNvYB1g_NtNtNtB4_3gen4fold4Fold13fold_use_treeEB1k_, symObjAddr: 0x70E0, symBinAddr: 0x75740, symSize: 0x6C0 }
  - { offset: 0xBD817, size: 0x8, addend: 0x0, symName: __RINvNtCsdGrGZaRBwMb_3syn10punctuated4foldNtNtB4_4item7UseTreeNtNtB4_5token5CommaNtNvCsliPDVd4pfgL_15zerofrom_derive25replace_lifetime_and_type20ReplaceLifetimeAndTyNvYB1g_NtNtNtB4_3gen4fold4Fold13fold_use_treeEB1k_, symObjAddr: 0x77A0, symBinAddr: 0x75E00, symSize: 0x6C0 }
  - { offset: 0xBD93D, size: 0x8, addend: 0x0, symName: __RINvNtCsdGrGZaRBwMb_3syn10punctuated4foldNtNtB4_4path11PathSegmentNtNtB4_5token7PathSepNtNvCsliPDVd4pfgL_15zerofrom_derive16replace_lifetime15ReplaceLifetimeNvYB1n_NtNtNtB4_3gen4fold4Fold17fold_path_segmentEB1r_, symObjAddr: 0x7E60, symBinAddr: 0x764C0, symSize: 0x590 }
  - { offset: 0xBDA63, size: 0x8, addend: 0x0, symName: __RINvNtCsdGrGZaRBwMb_3syn10punctuated4foldNtNtB4_4path11PathSegmentNtNtB4_5token7PathSepNtNvCsliPDVd4pfgL_15zerofrom_derive25replace_lifetime_and_type20ReplaceLifetimeAndTyNvYB1n_NtNtNtB4_3gen4fold4Fold17fold_path_segmentEB1r_, symObjAddr: 0x83F0, symBinAddr: 0x76A50, symSize: 0x590 }
  - { offset: 0xBDB89, size: 0x8, addend: 0x0, symName: __RINvNtCsdGrGZaRBwMb_3syn10punctuated4foldNtNtB4_4path15GenericArgumentNtNtB4_5token5CommaNtNvCsliPDVd4pfgL_15zerofrom_derive16replace_lifetime15ReplaceLifetimeNvYB1p_NtNtNtB4_3gen4fold4Fold21fold_generic_argumentEB1t_, symObjAddr: 0x8980, symBinAddr: 0x76FE0, symSize: 0x580 }
  - { offset: 0xBDCAF, size: 0x8, addend: 0x0, symName: __RINvNtCsdGrGZaRBwMb_3syn10punctuated4foldNtNtB4_4path15GenericArgumentNtNtB4_5token5CommaNtNvCsliPDVd4pfgL_15zerofrom_derive25replace_lifetime_and_type20ReplaceLifetimeAndTyNvYB1p_NtNtNtB4_3gen4fold4Fold21fold_generic_argumentEB1t_, symObjAddr: 0x8F00, symBinAddr: 0x77560, symSize: 0x580 }
  - { offset: 0xBDDD5, size: 0x8, addend: 0x0, symName: __RINvNtCsdGrGZaRBwMb_3syn10punctuated4foldNtNtB4_8generics12GenericParamNtNtB4_5token5CommaNtNvCsliPDVd4pfgL_15zerofrom_derive16replace_lifetime15ReplaceLifetimeNvYB1q_NtNtNtB4_3gen4fold4Fold18fold_generic_paramEB1u_, symObjAddr: 0x9480, symBinAddr: 0x77AE0, symSize: 0x590 }
  - { offset: 0xBDEFB, size: 0x8, addend: 0x0, symName: __RINvNtCsdGrGZaRBwMb_3syn10punctuated4foldNtNtB4_8generics12GenericParamNtNtB4_5token5CommaNtNvCsliPDVd4pfgL_15zerofrom_derive25replace_lifetime_and_type20ReplaceLifetimeAndTyNvYB1q_NtNtNtB4_3gen4fold4Fold18fold_generic_paramEB1u_, symObjAddr: 0x9A10, symBinAddr: 0x78070, symSize: 0x590 }
  - { offset: 0xBE021, size: 0x8, addend: 0x0, symName: __RINvNtCsdGrGZaRBwMb_3syn10punctuated4foldNtNtB4_8generics13CapturedParamNtNtB4_5token5CommaNtNvCsliPDVd4pfgL_15zerofrom_derive16replace_lifetime15ReplaceLifetimeNvYB1r_NtNtNtB4_3gen4fold4Fold19fold_captured_paramEB1v_, symObjAddr: 0x9FA0, symBinAddr: 0x78600, symSize: 0x600 }
  - { offset: 0xBE147, size: 0x8, addend: 0x0, symName: __RINvNtCsdGrGZaRBwMb_3syn10punctuated4foldNtNtB4_8generics13CapturedParamNtNtB4_5token5CommaNtNvCsliPDVd4pfgL_15zerofrom_derive25replace_lifetime_and_type20ReplaceLifetimeAndTyNvYB1r_NtNtNtB4_3gen4fold4Fold19fold_captured_paramEB1v_, symObjAddr: 0xA5A0, symBinAddr: 0x78C00, symSize: 0x600 }
  - { offset: 0xBE26D, size: 0x8, addend: 0x0, symName: __RINvNtCsdGrGZaRBwMb_3syn10punctuated4foldNtNtB4_8generics14TypeParamBoundNtNtB4_5token4PlusNtNvCsliPDVd4pfgL_15zerofrom_derive16replace_lifetime15ReplaceLifetimeNvYB1r_NtNtNtB4_3gen4fold4Fold21fold_type_param_boundEB1v_, symObjAddr: 0xABA0, symBinAddr: 0x79200, symSize: 0x580 }
  - { offset: 0xBE393, size: 0x8, addend: 0x0, symName: __RINvNtCsdGrGZaRBwMb_3syn10punctuated4foldNtNtB4_8generics14TypeParamBoundNtNtB4_5token4PlusNtNvCsliPDVd4pfgL_15zerofrom_derive25replace_lifetime_and_type20ReplaceLifetimeAndTyNvYB1r_NtNtNtB4_3gen4fold4Fold21fold_type_param_boundEB1v_, symObjAddr: 0xB120, symBinAddr: 0x79780, symSize: 0x580 }
  - { offset: 0xBE4B9, size: 0x8, addend: 0x0, symName: __RINvNtCsdGrGZaRBwMb_3syn10punctuated4foldNtNtB4_8generics14WherePredicateNtNtB4_5token5CommaNtNvCsliPDVd4pfgL_15zerofrom_derive16replace_lifetime15ReplaceLifetimeNvYB1s_NtNtNtB4_3gen4fold4Fold20fold_where_predicateEB1w_, symObjAddr: 0xB6A0, symBinAddr: 0x79D00, symSize: 0x580 }
  - { offset: 0xBE5DF, size: 0x8, addend: 0x0, symName: __RINvNtCsdGrGZaRBwMb_3syn10punctuated4foldNtNtB4_8generics14WherePredicateNtNtB4_5token5CommaNtNvCsliPDVd4pfgL_15zerofrom_derive25replace_lifetime_and_type20ReplaceLifetimeAndTyNvYB1s_NtNtNtB4_3gen4fold4Fold20fold_where_predicateEB1w_, symObjAddr: 0xBC20, symBinAddr: 0x7A280, symSize: 0x580 }
  - { offset: 0xBE705, size: 0x8, addend: 0x0, symName: __RINvNtCsdGrGZaRBwMb_3syn10punctuated4foldNtNtB4_8lifetime8LifetimeNtNtB4_5token4PlusNtNvCsliPDVd4pfgL_15zerofrom_derive16replace_lifetime15ReplaceLifetimeNvYB1k_NtNtNtB4_3gen4fold4Fold13fold_lifetimeEB1o_, symObjAddr: 0xC1A0, symBinAddr: 0x7A800, symSize: 0x5D0 }
  - { offset: 0xBE82B, size: 0x8, addend: 0x0, symName: __RINvNtCsdGrGZaRBwMb_3syn10punctuated4foldNtNtB4_8lifetime8LifetimeNtNtB4_5token4PlusNtNvCsliPDVd4pfgL_15zerofrom_derive25replace_lifetime_and_type20ReplaceLifetimeAndTyNvYB1k_NtNtNtB4_3gen4fold4Fold13fold_lifetimeEB1o_, symObjAddr: 0xC770, symBinAddr: 0x7ADD0, symSize: 0x5D0 }
  - { offset: 0xBE979, size: 0x8, addend: 0x0, symName: __RNCNvMNtCsdGrGZaRBwMb_3syn10punctuatedINtB4_10PunctuatedNtNtB6_8generics14TypeParamBoundNtNtB6_5token4PlusE3pop0CsliPDVd4pfgL_15zerofrom_derive, symObjAddr: 0xCE50, symBinAddr: 0x7B4B0, symSize: 0xE0 }
  - { offset: 0xBE9C2, size: 0x8, addend: 0x0, symName: __RNCNvMNtCsdGrGZaRBwMb_3syn10punctuatedINtB4_10PunctuatedNtNtB6_8generics14TypeParamBoundNtNtB6_5token4PlusE3pops_0CsliPDVd4pfgL_15zerofrom_derive, symObjAddr: 0xCF30, symBinAddr: 0x7B590, symSize: 0x80 }
  - { offset: 0xBEC44, size: 0x8, addend: 0x0, symName: __RNvXs8_NtCsdGrGZaRBwMb_3syn10punctuatedINtB5_10PunctuatedNtCsaKzlTDPUHDb_11proc_macro25IdentNtNtB7_5token5CommaENtNtNtNtCsieiGu2EXtoJ_4core4iter6traits7collect12IntoIterator9into_iterCsliPDVd4pfgL_15zerofrom_derive, symObjAddr: 0xDAE0, symBinAddr: 0x7C140, symSize: 0x3F0 }
  - { offset: 0xBECF0, size: 0x8, addend: 0x0, symName: __RNvXsb_NtCsdGrGZaRBwMb_3syn10punctuatedINtB5_10PunctuatedNtNtB7_8generics14TypeParamBoundNtNtB7_5token4PlusENtNtCsieiGu2EXtoJ_4core7default7Default7defaultCsliPDVd4pfgL_15zerofrom_derive, symObjAddr: 0xDED0, symBinAddr: 0x7C530, symSize: 0x30 }
  - { offset: 0xBED27, size: 0x8, addend: 0x0, symName: __RNvXsn_NtCsdGrGZaRBwMb_3syn10punctuatedINtB5_8IntoIterNtCsaKzlTDPUHDb_11proc_macro25IdentENtNtNtNtCsieiGu2EXtoJ_4core4iter6traits8iterator8Iterator4nextCsliPDVd4pfgL_15zerofrom_derive, symObjAddr: 0xE3E0, symBinAddr: 0x7CA40, symSize: 0x30 }
  - { offset: 0xBED5E, size: 0x8, addend: 0x0, symName: __RNvXsn_NtCsdGrGZaRBwMb_3syn10punctuatedINtB5_8IntoIterNtCsaKzlTDPUHDb_11proc_macro25IdentENtNtNtNtCsieiGu2EXtoJ_4core4iter6traits8iterator8Iterator9size_hintCsliPDVd4pfgL_15zerofrom_derive, symObjAddr: 0xE410, symBinAddr: 0x7CA70, symSize: 0x60 }
  - { offset: 0xBED9B, size: 0x8, addend: 0x0, symName: __RNvXsp_NtCsdGrGZaRBwMb_3syn10punctuatedINtB5_8IntoIterNtCsaKzlTDPUHDb_11proc_macro25IdentENtNtNtNtCsieiGu2EXtoJ_4core4iter6traits10exact_size17ExactSizeIterator3lenCsliPDVd4pfgL_15zerofrom_derive, symObjAddr: 0xE470, symBinAddr: 0x7CAD0, symSize: 0x20 }
  - { offset: 0xC166C, size: 0x8, addend: 0x0, symName: __RNvXsh_NtCsdGrGZaRBwMb_3syn5parseNvMNtB7_10punctuatedINtBy_10PunctuatedNtCsaKzlTDPUHDb_11proc_macro25IdentNtNtB7_5token5CommaE16parse_terminatedNtB5_6Parser14___parse_scopedCsliPDVd4pfgL_15zerofrom_derive, symObjAddr: 0xDF00, symBinAddr: 0x7C560, symSize: 0x4E0 }
  - { offset: 0xC3B95, size: 0x8, addend: 0x0, symName: __RINvYINtNtCsdGrGZaRBwMb_3syn10punctuated8IntoIterNtCsaKzlTDPUHDb_11proc_macro25IdentENtNtNtNtCsieiGu2EXtoJ_4core4iter6traits8iterator8Iterator3mapTBL_uENCINvXs8_NtCsjK30CmJ87bX_9hashbrown3setINtB2z_7HashSetBL_NtNtNtCsHUR1vrdMJt_3std4hash6random11RandomStateEINtNtB1p_7collect6ExtendBL_E6extendINtB6_10PunctuatedBL_NtNtB8_5token5CommaEE0ECsliPDVd4pfgL_15zerofrom_derive, symObjAddr: 0xCD40, symBinAddr: 0x7B3A0, symSize: 0x30 }
  - { offset: 0xC3C02, size: 0x8, addend: 0x0, symName: __RINvYINtNtCsdGrGZaRBwMb_3syn10punctuated8IntoIterNtCsaKzlTDPUHDb_11proc_macro25IdentENtNtNtNtCsieiGu2EXtoJ_4core4iter6traits8iterator8Iterator4folduNCINvNtNtB1r_8adapters3map8map_foldBL_TBL_uEuNCINvXs8_NtCsjK30CmJ87bX_9hashbrown3setINtB3e_7HashSetBL_NtNtNtCsHUR1vrdMJt_3std4hash6random11RandomStateEINtNtB1p_7collect6ExtendBL_E6extendINtB6_10PunctuatedBL_NtNtB8_5token5CommaEE0NCINvNvB1l_8for_each4callB2Y_NCINvXs1i_NtB3g_3mapINtB6G_7HashMapBL_uB40_EIB4O_B2Y_E6extendINtB2r_3MapB3_B35_EE0E0E0ECsliPDVd4pfgL_15zerofrom_derive, symObjAddr: 0xCD70, symBinAddr: 0x7B3D0, symSize: 0xE0 }
  - { offset: 0xC4689, size: 0x8, addend: 0x0, symName: __RNvMNtCsdGrGZaRBwMb_3syn10punctuatedINtB2_10PunctuatedNtCsaKzlTDPUHDb_11proc_macro25IdentNtNtB4_5token5CommaE10push_punctCsliPDVd4pfgL_15zerofrom_derive, symObjAddr: 0xCFB0, symBinAddr: 0x7B610, symSize: 0x210 }
  - { offset: 0xC4707, size: 0x8, addend: 0x0, symName: __RNvMNtCsdGrGZaRBwMb_3syn10punctuatedINtB2_10PunctuatedNtCsaKzlTDPUHDb_11proc_macro25IdentNtNtB4_5token5CommaE10push_valueCsliPDVd4pfgL_15zerofrom_derive, symObjAddr: 0xD1C0, symBinAddr: 0x7B820, symSize: 0x1B0 }
  - { offset: 0xC4833, size: 0x8, addend: 0x0, symName: __RNvMNtCsdGrGZaRBwMb_3syn10punctuatedINtB2_10PunctuatedNtCsaKzlTDPUHDb_11proc_macro25IdentNtNtB4_5token5CommaE16parse_terminatedCsliPDVd4pfgL_15zerofrom_derive, symObjAddr: 0xD370, symBinAddr: 0x7B9D0, symSize: 0x40 }
  - { offset: 0xC4875, size: 0x8, addend: 0x0, symName: __RNvMNtCsdGrGZaRBwMb_3syn10punctuatedINtB2_10PunctuatedNtCsaKzlTDPUHDb_11proc_macro25IdentNtNtB4_5token5CommaE17empty_or_trailingCsliPDVd4pfgL_15zerofrom_derive, symObjAddr: 0xD3B0, symBinAddr: 0x7BA10, symSize: 0x30 }
  - { offset: 0xC48C1, size: 0x8, addend: 0x0, symName: __RNvMNtCsdGrGZaRBwMb_3syn10punctuatedINtB2_10PunctuatedNtCsaKzlTDPUHDb_11proc_macro25IdentNtNtB4_5token5CommaE21parse_terminated_withCsliPDVd4pfgL_15zerofrom_derive, symObjAddr: 0xD3E0, symBinAddr: 0x7BA40, symSize: 0x3A0 }
  - { offset: 0xC49C6, size: 0x8, addend: 0x0, symName: __RNvMNtCsdGrGZaRBwMb_3syn10punctuatedINtB2_10PunctuatedNtCsaKzlTDPUHDb_11proc_macro25IdentNtNtB4_5token5CommaE3lenCsliPDVd4pfgL_15zerofrom_derive, symObjAddr: 0xD780, symBinAddr: 0x7BDE0, symSize: 0x80 }
  - { offset: 0xC49FA, size: 0x8, addend: 0x0, symName: __RNvMNtCsdGrGZaRBwMb_3syn10punctuatedINtB2_10PunctuatedNtCsaKzlTDPUHDb_11proc_macro25IdentNtNtB4_5token5CommaE3newCsliPDVd4pfgL_15zerofrom_derive, symObjAddr: 0xD800, symBinAddr: 0x7BE60, symSize: 0x50 }
  - { offset: 0xC4A2D, size: 0x8, addend: 0x0, symName: __RNvMNtCsdGrGZaRBwMb_3syn10punctuatedINtB2_10PunctuatedNtNtB4_8generics14TypeParamBoundNtNtB4_5token4PlusE3popCsliPDVd4pfgL_15zerofrom_derive, symObjAddr: 0xD850, symBinAddr: 0x7BEB0, symSize: 0xB0 }
  - { offset: 0xC4A61, size: 0x8, addend: 0x0, symName: __RNvMNtCsdGrGZaRBwMb_3syn10punctuatedINtB2_10PunctuatedNtNtB4_8generics14TypeParamBoundNtNtB4_5token4PlusE4pushCsliPDVd4pfgL_15zerofrom_derive, symObjAddr: 0xD900, symBinAddr: 0x7BF60, symSize: 0x110 }
  - { offset: 0xC4AA4, size: 0x8, addend: 0x0, symName: __RNvMsJ_NtCsdGrGZaRBwMb_3syn10punctuatedINtB5_4PairNtNtB7_8generics14TypeParamBoundNtNtB7_5token4PlusE10into_valueCsliPDVd4pfgL_15zerofrom_derive, symObjAddr: 0xDA10, symBinAddr: 0x7C070, symSize: 0xD0 }
  - { offset: 0xC502D, size: 0x8, addend: 0x0, symName: __RINvXs3_NtNtCslJiobkLta79_5alloc3vec9into_iterINtB6_8IntoIterNtNtCsdGrGZaRBwMb_3syn4attr9AttributeENtNtNtNtCsieiGu2EXtoJ_4core4iter6traits8iterator8Iterator8try_foldINtNtB8_13in_place_drop11InPlaceDropBX_ENCINvNtNtB1F_8adapters3map12map_try_foldBX_BX_B2D_INtNtB1H_6result6ResultB2D_zENCINvNtNtB11_3gen4fold8fold_vecBX_NtNvCsliPDVd4pfgL_15zerofrom_derive16replace_lifetime15ReplaceLifetimeNvYB56_NtB4D_4Fold14fold_attributeE0NCINvNtB8_16in_place_collect24write_in_place_with_dropBX_E0E0B45_EB5a_, symObjAddr: 0x0, symBinAddr: 0x7CAF0, symSize: 0x250 }
  - { offset: 0xC9FED, size: 0x8, addend: 0x0, symName: __RINvYINtNtNtCslJiobkLta79_5alloc3vec9into_iter8IntoIterNtNtCsdGrGZaRBwMb_3syn4attr9AttributeENtNtNtNtCsieiGu2EXtoJ_4core4iter6traits8iterator8Iterator3mapBR_NCINvNtNtBV_3gen4fold8fold_vecBR_NtNvCsliPDVd4pfgL_15zerofrom_derive16replace_lifetime15ReplaceLifetimeNvYB32_NtB2A_4Fold14fold_attributeE0EB36_, symObjAddr: 0x2060, symBinAddr: 0x7EB50, symSize: 0x40 }
  - { offset: 0xCA05B, size: 0x8, addend: 0x0, symName: __RINvYINtNtNtCslJiobkLta79_5alloc3vec9into_iter8IntoIterNtNtCsdGrGZaRBwMb_3syn4attr9AttributeENtNtNtNtCsieiGu2EXtoJ_4core4iter6traits8iterator8Iterator3mapBR_NCINvNtNtBV_3gen4fold8fold_vecBR_NtNvCsliPDVd4pfgL_15zerofrom_derive25replace_lifetime_and_type20ReplaceLifetimeAndTyNvYB32_NtB2A_4Fold14fold_attributeE0EB36_, symObjAddr: 0x20A0, symBinAddr: 0x7EB90, symSize: 0x40 }
  - { offset: 0xCA0C9, size: 0x8, addend: 0x0, symName: __RINvYINtNtNtCslJiobkLta79_5alloc3vec9into_iter8IntoIterNtNtCsdGrGZaRBwMb_3syn4expr3ArmENtNtNtNtCsieiGu2EXtoJ_4core4iter6traits8iterator8Iterator3mapBR_NCINvNtNtBV_3gen4fold8fold_vecBR_NtNvCsliPDVd4pfgL_15zerofrom_derive16replace_lifetime15ReplaceLifetimeNvYB2W_NtB2u_4Fold8fold_armE0EB30_, symObjAddr: 0x20E0, symBinAddr: 0x7EBD0, symSize: 0x40 }
  - { offset: 0xCA137, size: 0x8, addend: 0x0, symName: __RINvYINtNtNtCslJiobkLta79_5alloc3vec9into_iter8IntoIterNtNtCsdGrGZaRBwMb_3syn4expr3ArmENtNtNtNtCsieiGu2EXtoJ_4core4iter6traits8iterator8Iterator3mapBR_NCINvNtNtBV_3gen4fold8fold_vecBR_NtNvCsliPDVd4pfgL_15zerofrom_derive25replace_lifetime_and_type20ReplaceLifetimeAndTyNvYB2W_NtB2u_4Fold8fold_armE0EB30_, symObjAddr: 0x2120, symBinAddr: 0x7EC10, symSize: 0x40 }
  - { offset: 0xCA1A5, size: 0x8, addend: 0x0, symName: __RINvYINtNtNtCslJiobkLta79_5alloc3vec9into_iter8IntoIterNtNtCsdGrGZaRBwMb_3syn4item11ForeignItemENtNtNtNtCsieiGu2EXtoJ_4core4iter6traits8iterator8Iterator3mapBR_NCINvNtNtBV_3gen4fold8fold_vecBR_NtNvCsliPDVd4pfgL_15zerofrom_derive16replace_lifetime15ReplaceLifetimeNvYB35_NtB2D_4Fold17fold_foreign_itemE0EB39_, symObjAddr: 0x2160, symBinAddr: 0x7EC50, symSize: 0x40 }
  - { offset: 0xCA213, size: 0x8, addend: 0x0, symName: __RINvYINtNtNtCslJiobkLta79_5alloc3vec9into_iter8IntoIterNtNtCsdGrGZaRBwMb_3syn4item11ForeignItemENtNtNtNtCsieiGu2EXtoJ_4core4iter6traits8iterator8Iterator3mapBR_NCINvNtNtBV_3gen4fold8fold_vecBR_NtNvCsliPDVd4pfgL_15zerofrom_derive25replace_lifetime_and_type20ReplaceLifetimeAndTyNvYB35_NtB2D_4Fold17fold_foreign_itemE0EB39_, symObjAddr: 0x21A0, symBinAddr: 0x7EC90, symSize: 0x40 }
  - { offset: 0xCA281, size: 0x8, addend: 0x0, symName: __RINvYINtNtNtCslJiobkLta79_5alloc3vec9into_iter8IntoIterNtNtCsdGrGZaRBwMb_3syn4item4ItemENtNtNtNtCsieiGu2EXtoJ_4core4iter6traits8iterator8Iterator3mapBR_NCINvNtNtBV_3gen4fold8fold_vecBR_NtNvCsliPDVd4pfgL_15zerofrom_derive16replace_lifetime15ReplaceLifetimeNvYB2X_NtB2v_4Fold9fold_itemE0EB31_, symObjAddr: 0x21E0, symBinAddr: 0x7ECD0, symSize: 0x40 }
  - { offset: 0xCA2EF, size: 0x8, addend: 0x0, symName: __RINvYINtNtNtCslJiobkLta79_5alloc3vec9into_iter8IntoIterNtNtCsdGrGZaRBwMb_3syn4item4ItemENtNtNtNtCsieiGu2EXtoJ_4core4iter6traits8iterator8Iterator3mapBR_NCINvNtNtBV_3gen4fold8fold_vecBR_NtNvCsliPDVd4pfgL_15zerofrom_derive25replace_lifetime_and_type20ReplaceLifetimeAndTyNvYB2X_NtB2v_4Fold9fold_itemE0EB31_, symObjAddr: 0x2220, symBinAddr: 0x7ED10, symSize: 0x40 }
  - { offset: 0xCA35D, size: 0x8, addend: 0x0, symName: __RINvYINtNtNtCslJiobkLta79_5alloc3vec9into_iter8IntoIterNtNtCsdGrGZaRBwMb_3syn4item8ImplItemENtNtNtNtCsieiGu2EXtoJ_4core4iter6traits8iterator8Iterator3mapBR_NCINvNtNtBV_3gen4fold8fold_vecBR_NtNvCsliPDVd4pfgL_15zerofrom_derive16replace_lifetime15ReplaceLifetimeNvYB31_NtB2z_4Fold14fold_impl_itemE0EB35_, symObjAddr: 0x2260, symBinAddr: 0x7ED50, symSize: 0x40 }
  - { offset: 0xCA3CB, size: 0x8, addend: 0x0, symName: __RINvYINtNtNtCslJiobkLta79_5alloc3vec9into_iter8IntoIterNtNtCsdGrGZaRBwMb_3syn4item8ImplItemENtNtNtNtCsieiGu2EXtoJ_4core4iter6traits8iterator8Iterator3mapBR_NCINvNtNtBV_3gen4fold8fold_vecBR_NtNvCsliPDVd4pfgL_15zerofrom_derive25replace_lifetime_and_type20ReplaceLifetimeAndTyNvYB31_NtB2z_4Fold14fold_impl_itemE0EB35_, symObjAddr: 0x22A0, symBinAddr: 0x7ED90, symSize: 0x40 }
  - { offset: 0xCA439, size: 0x8, addend: 0x0, symName: __RINvYINtNtNtCslJiobkLta79_5alloc3vec9into_iter8IntoIterNtNtCsdGrGZaRBwMb_3syn4item9TraitItemENtNtNtNtCsieiGu2EXtoJ_4core4iter6traits8iterator8Iterator3mapBR_NCINvNtNtBV_3gen4fold8fold_vecBR_NtNvCsliPDVd4pfgL_15zerofrom_derive16replace_lifetime15ReplaceLifetimeNvYB32_NtB2A_4Fold15fold_trait_itemE0EB36_, symObjAddr: 0x22E0, symBinAddr: 0x7EDD0, symSize: 0x40 }
  - { offset: 0xCA4A7, size: 0x8, addend: 0x0, symName: __RINvYINtNtNtCslJiobkLta79_5alloc3vec9into_iter8IntoIterNtNtCsdGrGZaRBwMb_3syn4item9TraitItemENtNtNtNtCsieiGu2EXtoJ_4core4iter6traits8iterator8Iterator3mapBR_NCINvNtNtBV_3gen4fold8fold_vecBR_NtNvCsliPDVd4pfgL_15zerofrom_derive25replace_lifetime_and_type20ReplaceLifetimeAndTyNvYB32_NtB2A_4Fold15fold_trait_itemE0EB36_, symObjAddr: 0x2320, symBinAddr: 0x7EE10, symSize: 0x40 }
  - { offset: 0xCA515, size: 0x8, addend: 0x0, symName: __RINvYINtNtNtCslJiobkLta79_5alloc3vec9into_iter8IntoIterNtNtCsdGrGZaRBwMb_3syn4stmt4StmtENtNtNtNtCsieiGu2EXtoJ_4core4iter6traits8iterator8Iterator3mapBR_NCINvNtNtBV_3gen4fold8fold_vecBR_NtNvCsliPDVd4pfgL_15zerofrom_derive16replace_lifetime15ReplaceLifetimeNvYB2X_NtB2v_4Fold9fold_stmtE0EB31_, symObjAddr: 0x2360, symBinAddr: 0x7EE50, symSize: 0x40 }
  - { offset: 0xCA583, size: 0x8, addend: 0x0, symName: __RINvYINtNtNtCslJiobkLta79_5alloc3vec9into_iter8IntoIterNtNtCsdGrGZaRBwMb_3syn4stmt4StmtENtNtNtNtCsieiGu2EXtoJ_4core4iter6traits8iterator8Iterator3mapBR_NCINvNtNtBV_3gen4fold8fold_vecBR_NtNvCsliPDVd4pfgL_15zerofrom_derive25replace_lifetime_and_type20ReplaceLifetimeAndTyNvYB2X_NtB2v_4Fold9fold_stmtE0EB31_, symObjAddr: 0x23A0, symBinAddr: 0x7EE90, symSize: 0x40 }
  - { offset: 0xCA82E, size: 0x8, addend: 0x0, symName: __RNvYINtNtNtCslJiobkLta79_5alloc3vec9into_iter8IntoIterNtCsaKzlTDPUHDb_11proc_macro25IdentENtNtNtNtCsieiGu2EXtoJ_4core4iter6traits10exact_size17ExactSizeIterator3lenCsliPDVd4pfgL_15zerofrom_derive, symObjAddr: 0x3680, symBinAddr: 0x80170, symSize: 0xE0 }
  - { offset: 0xCA92E, size: 0x8, addend: 0x0, symName: __RNvYINtNtNtCslJiobkLta79_5alloc3vec9into_iter8IntoIterNtNtCsdGrGZaRBwMb_3syn4expr3ArmENtNtNtNtCsieiGu2EXtoJ_4core4iter6traits10exact_size17ExactSizeIterator3lenCsliPDVd4pfgL_15zerofrom_derive, symObjAddr: 0x3760, symBinAddr: 0x80250, symSize: 0xE0 }
  - { offset: 0xCAA2E, size: 0x8, addend: 0x0, symName: __RNvYINtNtNtCslJiobkLta79_5alloc3vec9into_iter8IntoIterNtNtCsdGrGZaRBwMb_3syn4item11ForeignItemENtNtNtNtCsieiGu2EXtoJ_4core4iter6traits10exact_size17ExactSizeIterator3lenCsliPDVd4pfgL_15zerofrom_derive, symObjAddr: 0x3840, symBinAddr: 0x80330, symSize: 0xE0 }
  - { offset: 0xCAB2E, size: 0x8, addend: 0x0, symName: __RNvYINtNtNtCslJiobkLta79_5alloc3vec9into_iter8IntoIterNtNtCsdGrGZaRBwMb_3syn4item4ItemENtNtNtNtCsieiGu2EXtoJ_4core4iter6traits10exact_size17ExactSizeIterator3lenCsliPDVd4pfgL_15zerofrom_derive, symObjAddr: 0x3920, symBinAddr: 0x80410, symSize: 0xE0 }
  - { offset: 0xCAC2E, size: 0x8, addend: 0x0, symName: __RNvYINtNtNtCslJiobkLta79_5alloc3vec9into_iter8IntoIterNtNtCsdGrGZaRBwMb_3syn4item8ImplItemENtNtNtNtCsieiGu2EXtoJ_4core4iter6traits10exact_size17ExactSizeIterator3lenCsliPDVd4pfgL_15zerofrom_derive, symObjAddr: 0x3A00, symBinAddr: 0x804F0, symSize: 0xE0 }
  - { offset: 0xCAD2E, size: 0x8, addend: 0x0, symName: __RNvYINtNtNtCslJiobkLta79_5alloc3vec9into_iter8IntoIterNtNtCsdGrGZaRBwMb_3syn4item9TraitItemENtNtNtNtCsieiGu2EXtoJ_4core4iter6traits10exact_size17ExactSizeIterator3lenCsliPDVd4pfgL_15zerofrom_derive, symObjAddr: 0x3AE0, symBinAddr: 0x805D0, symSize: 0xE0 }
  - { offset: 0xCAE2E, size: 0x8, addend: 0x0, symName: __RNvYINtNtNtCslJiobkLta79_5alloc3vec9into_iter8IntoIterNtNtCsdGrGZaRBwMb_3syn4stmt4StmtENtNtNtNtCsieiGu2EXtoJ_4core4iter6traits10exact_size17ExactSizeIterator3lenCsliPDVd4pfgL_15zerofrom_derive, symObjAddr: 0x3BC0, symBinAddr: 0x806B0, symSize: 0xE0 }
  - { offset: 0xCAF2E, size: 0x8, addend: 0x0, symName: __RNvYINtNtNtCslJiobkLta79_5alloc3vec9into_iter8IntoIterTNtCsaKzlTDPUHDb_11proc_macro25IdentNtNtCsdGrGZaRBwMb_3syn5token5CommaEENtNtNtNtCsieiGu2EXtoJ_4core4iter6traits10exact_size17ExactSizeIterator3lenCsliPDVd4pfgL_15zerofrom_derive, symObjAddr: 0x3CA0, symBinAddr: 0x80790, symSize: 0xE0 }
  - { offset: 0xD0832, size: 0x8, addend: 0x0, symName: __RINvXs3_NtNtCslJiobkLta79_5alloc3vec9into_iterINtB6_8IntoIterNtNtCsdGrGZaRBwMb_3syn4attr9AttributeENtNtNtNtCsieiGu2EXtoJ_4core4iter6traits8iterator8Iterator8try_foldINtNtB8_13in_place_drop11InPlaceDropBX_ENCINvNtNtB1F_8adapters3map12map_try_foldBX_BX_B2D_INtNtB1H_6result6ResultB2D_zENCINvNtNtB11_3gen4fold8fold_vecBX_NtNvCsliPDVd4pfgL_15zerofrom_derive16replace_lifetime15ReplaceLifetimeNvYB56_NtB4D_4Fold14fold_attributeE0NCINvNtB8_16in_place_collect24write_in_place_with_dropBX_E0E0B45_EB5a_, symObjAddr: 0x0, symBinAddr: 0x7CAF0, symSize: 0x250 }
  - { offset: 0xD09FB, size: 0x8, addend: 0x0, symName: __RINvXs3_NtNtCslJiobkLta79_5alloc3vec9into_iterINtB6_8IntoIterNtNtCsdGrGZaRBwMb_3syn4attr9AttributeENtNtNtNtCsieiGu2EXtoJ_4core4iter6traits8iterator8Iterator8try_foldINtNtB8_13in_place_drop11InPlaceDropBX_ENCINvNtNtB1F_8adapters3map12map_try_foldBX_BX_B2D_INtNtB1H_6result6ResultB2D_zENCINvNtNtB11_3gen4fold8fold_vecBX_NtNvCsliPDVd4pfgL_15zerofrom_derive25replace_lifetime_and_type20ReplaceLifetimeAndTyNvYB56_NtB4D_4Fold14fold_attributeE0NCINvNtB8_16in_place_collect24write_in_place_with_dropBX_E0E0B45_EB5a_, symObjAddr: 0x250, symBinAddr: 0x7CD40, symSize: 0x250 }
  - { offset: 0xD0BC4, size: 0x8, addend: 0x0, symName: __RINvXs3_NtNtCslJiobkLta79_5alloc3vec9into_iterINtB6_8IntoIterNtNtCsdGrGZaRBwMb_3syn4expr3ArmENtNtNtNtCsieiGu2EXtoJ_4core4iter6traits8iterator8Iterator8try_foldINtNtB8_13in_place_drop11InPlaceDropBX_ENCINvNtNtB1z_8adapters3map12map_try_foldBX_BX_B2x_INtNtB1B_6result6ResultB2x_zENCINvNtNtB11_3gen4fold8fold_vecBX_NtNvCsliPDVd4pfgL_15zerofrom_derive16replace_lifetime15ReplaceLifetimeNvYB50_NtB4x_4Fold8fold_armE0NCINvNtB8_16in_place_collect24write_in_place_with_dropBX_E0E0B3Z_EB54_, symObjAddr: 0x4A0, symBinAddr: 0x7CF90, symSize: 0x250 }
  - { offset: 0xD0D8D, size: 0x8, addend: 0x0, symName: __RINvXs3_NtNtCslJiobkLta79_5alloc3vec9into_iterINtB6_8IntoIterNtNtCsdGrGZaRBwMb_3syn4expr3ArmENtNtNtNtCsieiGu2EXtoJ_4core4iter6traits8iterator8Iterator8try_foldINtNtB8_13in_place_drop11InPlaceDropBX_ENCINvNtNtB1z_8adapters3map12map_try_foldBX_BX_B2x_INtNtB1B_6result6ResultB2x_zENCINvNtNtB11_3gen4fold8fold_vecBX_NtNvCsliPDVd4pfgL_15zerofrom_derive25replace_lifetime_and_type20ReplaceLifetimeAndTyNvYB50_NtB4x_4Fold8fold_armE0NCINvNtB8_16in_place_collect24write_in_place_with_dropBX_E0E0B3Z_EB54_, symObjAddr: 0x6F0, symBinAddr: 0x7D1E0, symSize: 0x250 }
  - { offset: 0xD0F56, size: 0x8, addend: 0x0, symName: __RINvXs3_NtNtCslJiobkLta79_5alloc3vec9into_iterINtB6_8IntoIterNtNtCsdGrGZaRBwMb_3syn4item11ForeignItemENtNtNtNtCsieiGu2EXtoJ_4core4iter6traits8iterator8Iterator8try_foldINtNtB8_13in_place_drop11InPlaceDropBX_ENCINvNtNtB1I_8adapters3map12map_try_foldBX_BX_B2G_INtNtB1K_6result6ResultB2G_zENCINvNtNtB11_3gen4fold8fold_vecBX_NtNvCsliPDVd4pfgL_15zerofrom_derive16replace_lifetime15ReplaceLifetimeNvYB59_NtB4G_4Fold17fold_foreign_itemE0NCINvNtB8_16in_place_collect24write_in_place_with_dropBX_E0E0B48_EB5d_, symObjAddr: 0x940, symBinAddr: 0x7D430, symSize: 0x250 }
  - { offset: 0xD111F, size: 0x8, addend: 0x0, symName: __RINvXs3_NtNtCslJiobkLta79_5alloc3vec9into_iterINtB6_8IntoIterNtNtCsdGrGZaRBwMb_3syn4item11ForeignItemENtNtNtNtCsieiGu2EXtoJ_4core4iter6traits8iterator8Iterator8try_foldINtNtB8_13in_place_drop11InPlaceDropBX_ENCINvNtNtB1I_8adapters3map12map_try_foldBX_BX_B2G_INtNtB1K_6result6ResultB2G_zENCINvNtNtB11_3gen4fold8fold_vecBX_NtNvCsliPDVd4pfgL_15zerofrom_derive25replace_lifetime_and_type20ReplaceLifetimeAndTyNvYB59_NtB4G_4Fold17fold_foreign_itemE0NCINvNtB8_16in_place_collect24write_in_place_with_dropBX_E0E0B48_EB5d_, symObjAddr: 0xB90, symBinAddr: 0x7D680, symSize: 0x250 }
  - { offset: 0xD12E8, size: 0x8, addend: 0x0, symName: __RINvXs3_NtNtCslJiobkLta79_5alloc3vec9into_iterINtB6_8IntoIterNtNtCsdGrGZaRBwMb_3syn4item4ItemENtNtNtNtCsieiGu2EXtoJ_4core4iter6traits8iterator8Iterator8try_foldINtNtB8_13in_place_drop11InPlaceDropBX_ENCINvNtNtB1A_8adapters3map12map_try_foldBX_BX_B2y_INtNtB1C_6result6ResultB2y_zENCINvNtNtB11_3gen4fold8fold_vecBX_NtNvCsliPDVd4pfgL_15zerofrom_derive16replace_lifetime15ReplaceLifetimeNvYB51_NtB4y_4Fold9fold_itemE0NCINvNtB8_16in_place_collect24write_in_place_with_dropBX_E0E0B40_EB55_, symObjAddr: 0xDE0, symBinAddr: 0x7D8D0, symSize: 0x250 }
  - { offset: 0xD14B1, size: 0x8, addend: 0x0, symName: __RINvXs3_NtNtCslJiobkLta79_5alloc3vec9into_iterINtB6_8IntoIterNtNtCsdGrGZaRBwMb_3syn4item4ItemENtNtNtNtCsieiGu2EXtoJ_4core4iter6traits8iterator8Iterator8try_foldINtNtB8_13in_place_drop11InPlaceDropBX_ENCINvNtNtB1A_8adapters3map12map_try_foldBX_BX_B2y_INtNtB1C_6result6ResultB2y_zENCINvNtNtB11_3gen4fold8fold_vecBX_NtNvCsliPDVd4pfgL_15zerofrom_derive25replace_lifetime_and_type20ReplaceLifetimeAndTyNvYB51_NtB4y_4Fold9fold_itemE0NCINvNtB8_16in_place_collect24write_in_place_with_dropBX_E0E0B40_EB55_, symObjAddr: 0x1030, symBinAddr: 0x7DB20, symSize: 0x250 }
  - { offset: 0xD167A, size: 0x8, addend: 0x0, symName: __RINvXs3_NtNtCslJiobkLta79_5alloc3vec9into_iterINtB6_8IntoIterNtNtCsdGrGZaRBwMb_3syn4item8ImplItemENtNtNtNtCsieiGu2EXtoJ_4core4iter6traits8iterator8Iterator8try_foldINtNtB8_13in_place_drop11InPlaceDropBX_ENCINvNtNtB1E_8adapters3map12map_try_foldBX_BX_B2C_INtNtB1G_6result6ResultB2C_zENCINvNtNtB11_3gen4fold8fold_vecBX_NtNvCsliPDVd4pfgL_15zerofrom_derive16replace_lifetime15ReplaceLifetimeNvYB55_NtB4C_4Fold14fold_impl_itemE0NCINvNtB8_16in_place_collect24write_in_place_with_dropBX_E0E0B44_EB59_, symObjAddr: 0x1280, symBinAddr: 0x7DD70, symSize: 0x250 }
  - { offset: 0xD1843, size: 0x8, addend: 0x0, symName: __RINvXs3_NtNtCslJiobkLta79_5alloc3vec9into_iterINtB6_8IntoIterNtNtCsdGrGZaRBwMb_3syn4item8ImplItemENtNtNtNtCsieiGu2EXtoJ_4core4iter6traits8iterator8Iterator8try_foldINtNtB8_13in_place_drop11InPlaceDropBX_ENCINvNtNtB1E_8adapters3map12map_try_foldBX_BX_B2C_INtNtB1G_6result6ResultB2C_zENCINvNtNtB11_3gen4fold8fold_vecBX_NtNvCsliPDVd4pfgL_15zerofrom_derive25replace_lifetime_and_type20ReplaceLifetimeAndTyNvYB55_NtB4C_4Fold14fold_impl_itemE0NCINvNtB8_16in_place_collect24write_in_place_with_dropBX_E0E0B44_EB59_, symObjAddr: 0x14D0, symBinAddr: 0x7DFC0, symSize: 0x250 }
  - { offset: 0xD1A0C, size: 0x8, addend: 0x0, symName: __RINvXs3_NtNtCslJiobkLta79_5alloc3vec9into_iterINtB6_8IntoIterNtNtCsdGrGZaRBwMb_3syn4item9TraitItemENtNtNtNtCsieiGu2EXtoJ_4core4iter6traits8iterator8Iterator8try_foldINtNtB8_13in_place_drop11InPlaceDropBX_ENCINvNtNtB1F_8adapters3map12map_try_foldBX_BX_B2D_INtNtB1H_6result6ResultB2D_zENCINvNtNtB11_3gen4fold8fold_vecBX_NtNvCsliPDVd4pfgL_15zerofrom_derive16replace_lifetime15ReplaceLifetimeNvYB56_NtB4D_4Fold15fold_trait_itemE0NCINvNtB8_16in_place_collect24write_in_place_with_dropBX_E0E0B45_EB5a_, symObjAddr: 0x1720, symBinAddr: 0x7E210, symSize: 0x250 }
  - { offset: 0xD1BD5, size: 0x8, addend: 0x0, symName: __RINvXs3_NtNtCslJiobkLta79_5alloc3vec9into_iterINtB6_8IntoIterNtNtCsdGrGZaRBwMb_3syn4item9TraitItemENtNtNtNtCsieiGu2EXtoJ_4core4iter6traits8iterator8Iterator8try_foldINtNtB8_13in_place_drop11InPlaceDropBX_ENCINvNtNtB1F_8adapters3map12map_try_foldBX_BX_B2D_INtNtB1H_6result6ResultB2D_zENCINvNtNtB11_3gen4fold8fold_vecBX_NtNvCsliPDVd4pfgL_15zerofrom_derive25replace_lifetime_and_type20ReplaceLifetimeAndTyNvYB56_NtB4D_4Fold15fold_trait_itemE0NCINvNtB8_16in_place_collect24write_in_place_with_dropBX_E0E0B45_EB5a_, symObjAddr: 0x1970, symBinAddr: 0x7E460, symSize: 0x250 }
  - { offset: 0xD1D9E, size: 0x8, addend: 0x0, symName: __RINvXs3_NtNtCslJiobkLta79_5alloc3vec9into_iterINtB6_8IntoIterNtNtCsdGrGZaRBwMb_3syn4stmt4StmtENtNtNtNtCsieiGu2EXtoJ_4core4iter6traits8iterator8Iterator8try_foldINtNtB8_13in_place_drop11InPlaceDropBX_ENCINvNtNtB1A_8adapters3map12map_try_foldBX_BX_B2y_INtNtB1C_6result6ResultB2y_zENCINvNtNtB11_3gen4fold8fold_vecBX_NtNvCsliPDVd4pfgL_15zerofrom_derive16replace_lifetime15ReplaceLifetimeNvYB51_NtB4y_4Fold9fold_stmtE0NCINvNtB8_16in_place_collect24write_in_place_with_dropBX_E0E0B40_EB55_, symObjAddr: 0x1BC0, symBinAddr: 0x7E6B0, symSize: 0x250 }
  - { offset: 0xD1F67, size: 0x8, addend: 0x0, symName: __RINvXs3_NtNtCslJiobkLta79_5alloc3vec9into_iterINtB6_8IntoIterNtNtCsdGrGZaRBwMb_3syn4stmt4StmtENtNtNtNtCsieiGu2EXtoJ_4core4iter6traits8iterator8Iterator8try_foldINtNtB8_13in_place_drop11InPlaceDropBX_ENCINvNtNtB1A_8adapters3map12map_try_foldBX_BX_B2y_INtNtB1C_6result6ResultB2y_zENCINvNtNtB11_3gen4fold8fold_vecBX_NtNvCsliPDVd4pfgL_15zerofrom_derive25replace_lifetime_and_type20ReplaceLifetimeAndTyNvYB51_NtB4y_4Fold9fold_stmtE0NCINvNtB8_16in_place_collect24write_in_place_with_dropBX_E0E0B40_EB55_, symObjAddr: 0x1E10, symBinAddr: 0x7E900, symSize: 0x250 }
  - { offset: 0xD2130, size: 0x8, addend: 0x0, symName: __RNvXs3_NtNtCslJiobkLta79_5alloc3vec9into_iterINtB5_8IntoIterNtCsaKzlTDPUHDb_11proc_macro25IdentENtNtNtNtCsieiGu2EXtoJ_4core4iter6traits8iterator8Iterator4nextCsliPDVd4pfgL_15zerofrom_derive, symObjAddr: 0x2C30, symBinAddr: 0x7F720, symSize: 0xF0 }
  - { offset: 0xD228E, size: 0x8, addend: 0x0, symName: __RNvXs3_NtNtCslJiobkLta79_5alloc3vec9into_iterINtB5_8IntoIterNtCsaKzlTDPUHDb_11proc_macro25IdentENtNtNtNtCsieiGu2EXtoJ_4core4iter6traits8iterator8Iterator9size_hintCsliPDVd4pfgL_15zerofrom_derive, symObjAddr: 0x2D20, symBinAddr: 0x7F810, symSize: 0x60 }
  - { offset: 0xD22E9, size: 0x8, addend: 0x0, symName: __RNvXs3_NtNtCslJiobkLta79_5alloc3vec9into_iterINtB5_8IntoIterNtNtCsdGrGZaRBwMb_3syn4expr3ArmENtNtNtNtCsieiGu2EXtoJ_4core4iter6traits8iterator8Iterator9size_hintCsliPDVd4pfgL_15zerofrom_derive, symObjAddr: 0x2D80, symBinAddr: 0x7F870, symSize: 0x60 }
  - { offset: 0xD2344, size: 0x8, addend: 0x0, symName: __RNvXs3_NtNtCslJiobkLta79_5alloc3vec9into_iterINtB5_8IntoIterNtNtCsdGrGZaRBwMb_3syn4item11ForeignItemENtNtNtNtCsieiGu2EXtoJ_4core4iter6traits8iterator8Iterator9size_hintCsliPDVd4pfgL_15zerofrom_derive, symObjAddr: 0x2DE0, symBinAddr: 0x7F8D0, symSize: 0x60 }
  - { offset: 0xD239F, size: 0x8, addend: 0x0, symName: __RNvXs3_NtNtCslJiobkLta79_5alloc3vec9into_iterINtB5_8IntoIterNtNtCsdGrGZaRBwMb_3syn4item4ItemENtNtNtNtCsieiGu2EXtoJ_4core4iter6traits8iterator8Iterator9size_hintCsliPDVd4pfgL_15zerofrom_derive, symObjAddr: 0x2E40, symBinAddr: 0x7F930, symSize: 0x60 }
  - { offset: 0xD23FA, size: 0x8, addend: 0x0, symName: __RNvXs3_NtNtCslJiobkLta79_5alloc3vec9into_iterINtB5_8IntoIterNtNtCsdGrGZaRBwMb_3syn4item8ImplItemENtNtNtNtCsieiGu2EXtoJ_4core4iter6traits8iterator8Iterator9size_hintCsliPDVd4pfgL_15zerofrom_derive, symObjAddr: 0x2EA0, symBinAddr: 0x7F990, symSize: 0x60 }
  - { offset: 0xD2455, size: 0x8, addend: 0x0, symName: __RNvXs3_NtNtCslJiobkLta79_5alloc3vec9into_iterINtB5_8IntoIterNtNtCsdGrGZaRBwMb_3syn4item9TraitItemENtNtNtNtCsieiGu2EXtoJ_4core4iter6traits8iterator8Iterator9size_hintCsliPDVd4pfgL_15zerofrom_derive, symObjAddr: 0x2F00, symBinAddr: 0x7F9F0, symSize: 0x60 }
  - { offset: 0xD24B0, size: 0x8, addend: 0x0, symName: __RNvXs3_NtNtCslJiobkLta79_5alloc3vec9into_iterINtB5_8IntoIterNtNtCsdGrGZaRBwMb_3syn4stmt4StmtENtNtNtNtCsieiGu2EXtoJ_4core4iter6traits8iterator8Iterator9size_hintCsliPDVd4pfgL_15zerofrom_derive, symObjAddr: 0x2F60, symBinAddr: 0x7FA50, symSize: 0x60 }
  - { offset: 0xD250B, size: 0x8, addend: 0x0, symName: __RNvXs3_NtNtCslJiobkLta79_5alloc3vec9into_iterINtB5_8IntoIterTNtCsaKzlTDPUHDb_11proc_macro25IdentNtNtCsdGrGZaRBwMb_3syn5token5CommaEENtNtNtNtCsieiGu2EXtoJ_4core4iter6traits8iterator8Iterator4nextCsliPDVd4pfgL_15zerofrom_derive, symObjAddr: 0x2FC0, symBinAddr: 0x7FAB0, symSize: 0x100 }
  - { offset: 0xD2669, size: 0x8, addend: 0x0, symName: __RNvXs3_NtNtCslJiobkLta79_5alloc3vec9into_iterINtB5_8IntoIterTNtCsaKzlTDPUHDb_11proc_macro25IdentNtNtCsdGrGZaRBwMb_3syn5token5CommaEENtNtNtNtCsieiGu2EXtoJ_4core4iter6traits8iterator8Iterator9size_hintCsliPDVd4pfgL_15zerofrom_derive, symObjAddr: 0x30C0, symBinAddr: 0x7FBB0, symSize: 0x60 }
  - { offset: 0xD2B8F, size: 0x8, addend: 0x0, symName: __RNvXNvXsd_NtNtCslJiobkLta79_5alloc3vec9into_iterINtB8_8IntoIterppENtNtNtCsieiGu2EXtoJ_4core3ops4drop4Drop4dropINtB2_9DropGuardNtCsaKzlTDPUHDb_11proc_macro25IdentNtNtBc_5alloc6GlobalEB12_4dropCsliPDVd4pfgL_15zerofrom_derive, symObjAddr: 0x28B0, symBinAddr: 0x7F3A0, symSize: 0x70 }
  - { offset: 0xD2CA4, size: 0x8, addend: 0x0, symName: __RNvXNvXsd_NtNtCslJiobkLta79_5alloc3vec9into_iterINtB8_8IntoIterppENtNtNtCsieiGu2EXtoJ_4core3ops4drop4Drop4dropINtB2_9DropGuardNtNtCsdGrGZaRBwMb_3syn4expr3ArmNtNtBc_5alloc6GlobalEB12_4dropCsliPDVd4pfgL_15zerofrom_derive, symObjAddr: 0x2920, symBinAddr: 0x7F410, symSize: 0x70 }
  - { offset: 0xD2DB9, size: 0x8, addend: 0x0, symName: __RNvXNvXsd_NtNtCslJiobkLta79_5alloc3vec9into_iterINtB8_8IntoIterppENtNtNtCsieiGu2EXtoJ_4core3ops4drop4Drop4dropINtB2_9DropGuardNtNtCsdGrGZaRBwMb_3syn4item11ForeignItemNtNtBc_5alloc6GlobalEB12_4dropCsliPDVd4pfgL_15zerofrom_derive, symObjAddr: 0x2990, symBinAddr: 0x7F480, symSize: 0x70 }
  - { offset: 0xD2ECE, size: 0x8, addend: 0x0, symName: __RNvXNvXsd_NtNtCslJiobkLta79_5alloc3vec9into_iterINtB8_8IntoIterppENtNtNtCsieiGu2EXtoJ_4core3ops4drop4Drop4dropINtB2_9DropGuardNtNtCsdGrGZaRBwMb_3syn4item4ItemNtNtBc_5alloc6GlobalEB12_4dropCsliPDVd4pfgL_15zerofrom_derive, symObjAddr: 0x2A00, symBinAddr: 0x7F4F0, symSize: 0x70 }
  - { offset: 0xD2FE3, size: 0x8, addend: 0x0, symName: __RNvXNvXsd_NtNtCslJiobkLta79_5alloc3vec9into_iterINtB8_8IntoIterppENtNtNtCsieiGu2EXtoJ_4core3ops4drop4Drop4dropINtB2_9DropGuardNtNtCsdGrGZaRBwMb_3syn4item8ImplItemNtNtBc_5alloc6GlobalEB12_4dropCsliPDVd4pfgL_15zerofrom_derive, symObjAddr: 0x2A70, symBinAddr: 0x7F560, symSize: 0x70 }
  - { offset: 0xD30F8, size: 0x8, addend: 0x0, symName: __RNvXNvXsd_NtNtCslJiobkLta79_5alloc3vec9into_iterINtB8_8IntoIterppENtNtNtCsieiGu2EXtoJ_4core3ops4drop4Drop4dropINtB2_9DropGuardNtNtCsdGrGZaRBwMb_3syn4item9TraitItemNtNtBc_5alloc6GlobalEB12_4dropCsliPDVd4pfgL_15zerofrom_derive, symObjAddr: 0x2AE0, symBinAddr: 0x7F5D0, symSize: 0x70 }
  - { offset: 0xD320D, size: 0x8, addend: 0x0, symName: __RNvXNvXsd_NtNtCslJiobkLta79_5alloc3vec9into_iterINtB8_8IntoIterppENtNtNtCsieiGu2EXtoJ_4core3ops4drop4Drop4dropINtB2_9DropGuardNtNtCsdGrGZaRBwMb_3syn4stmt4StmtNtNtBc_5alloc6GlobalEB12_4dropCsliPDVd4pfgL_15zerofrom_derive, symObjAddr: 0x2B50, symBinAddr: 0x7F640, symSize: 0x70 }
  - { offset: 0xD3322, size: 0x8, addend: 0x0, symName: __RNvXNvXsd_NtNtCslJiobkLta79_5alloc3vec9into_iterINtB8_8IntoIterppENtNtNtCsieiGu2EXtoJ_4core3ops4drop4Drop4dropINtB2_9DropGuardTNtCsaKzlTDPUHDb_11proc_macro25IdentNtNtCsdGrGZaRBwMb_3syn5token5CommaENtNtBc_5alloc6GlobalEB12_4dropCsliPDVd4pfgL_15zerofrom_derive, symObjAddr: 0x2BC0, symBinAddr: 0x7F6B0, symSize: 0x70 }
  - { offset: 0xD3571, size: 0x8, addend: 0x0, symName: __RNvXsd_NtNtCslJiobkLta79_5alloc3vec9into_iterINtB5_8IntoIterNtCsaKzlTDPUHDb_11proc_macro25IdentENtNtNtCsieiGu2EXtoJ_4core3ops4drop4Drop4dropCsliPDVd4pfgL_15zerofrom_derive, symObjAddr: 0x3120, symBinAddr: 0x7FC10, symSize: 0x90 }
  - { offset: 0xD360C, size: 0x8, addend: 0x0, symName: __RNvXsd_NtNtCslJiobkLta79_5alloc3vec9into_iterINtB5_8IntoIterNtNtCsdGrGZaRBwMb_3syn4expr3ArmENtNtNtCsieiGu2EXtoJ_4core3ops4drop4Drop4dropCsliPDVd4pfgL_15zerofrom_derive, symObjAddr: 0x31B0, symBinAddr: 0x7FCA0, symSize: 0x90 }
  - { offset: 0xD36A7, size: 0x8, addend: 0x0, symName: __RNvXsd_NtNtCslJiobkLta79_5alloc3vec9into_iterINtB5_8IntoIterNtNtCsdGrGZaRBwMb_3syn4item11ForeignItemENtNtNtCsieiGu2EXtoJ_4core3ops4drop4Drop4dropCsliPDVd4pfgL_15zerofrom_derive, symObjAddr: 0x3240, symBinAddr: 0x7FD30, symSize: 0x90 }
  - { offset: 0xD3742, size: 0x8, addend: 0x0, symName: __RNvXsd_NtNtCslJiobkLta79_5alloc3vec9into_iterINtB5_8IntoIterNtNtCsdGrGZaRBwMb_3syn4item4ItemENtNtNtCsieiGu2EXtoJ_4core3ops4drop4Drop4dropCsliPDVd4pfgL_15zerofrom_derive, symObjAddr: 0x32D0, symBinAddr: 0x7FDC0, symSize: 0x90 }
  - { offset: 0xD37DD, size: 0x8, addend: 0x0, symName: __RNvXsd_NtNtCslJiobkLta79_5alloc3vec9into_iterINtB5_8IntoIterNtNtCsdGrGZaRBwMb_3syn4item8ImplItemENtNtNtCsieiGu2EXtoJ_4core3ops4drop4Drop4dropCsliPDVd4pfgL_15zerofrom_derive, symObjAddr: 0x3360, symBinAddr: 0x7FE50, symSize: 0x90 }
  - { offset: 0xD3878, size: 0x8, addend: 0x0, symName: __RNvXsd_NtNtCslJiobkLta79_5alloc3vec9into_iterINtB5_8IntoIterNtNtCsdGrGZaRBwMb_3syn4item9TraitItemENtNtNtCsieiGu2EXtoJ_4core3ops4drop4Drop4dropCsliPDVd4pfgL_15zerofrom_derive, symObjAddr: 0x33F0, symBinAddr: 0x7FEE0, symSize: 0x90 }
  - { offset: 0xD3913, size: 0x8, addend: 0x0, symName: __RNvXsd_NtNtCslJiobkLta79_5alloc3vec9into_iterINtB5_8IntoIterNtNtCsdGrGZaRBwMb_3syn4stmt4StmtENtNtNtCsieiGu2EXtoJ_4core3ops4drop4Drop4dropCsliPDVd4pfgL_15zerofrom_derive, symObjAddr: 0x3480, symBinAddr: 0x7FF70, symSize: 0x90 }
  - { offset: 0xD39AE, size: 0x8, addend: 0x0, symName: __RNvXsd_NtNtCslJiobkLta79_5alloc3vec9into_iterINtB5_8IntoIterTNtCsaKzlTDPUHDb_11proc_macro25IdentNtNtCsdGrGZaRBwMb_3syn5token5CommaEENtNtNtCsieiGu2EXtoJ_4core3ops4drop4Drop4dropCsliPDVd4pfgL_15zerofrom_derive, symObjAddr: 0x3510, symBinAddr: 0x80000, symSize: 0x90 }
  - { offset: 0xD3B63, size: 0x8, addend: 0x0, symName: __RNvXsf_NtNtCslJiobkLta79_5alloc3vec9into_iterINtB5_8IntoIterNtNtCsdGrGZaRBwMb_3syn4attr9AttributeENtNtNtCsieiGu2EXtoJ_4core4iter8adapters10SourceIter8as_innerCsliPDVd4pfgL_15zerofrom_derive, symObjAddr: 0x35A0, symBinAddr: 0x80090, symSize: 0x10 }
  - { offset: 0xD3BA3, size: 0x8, addend: 0x0, symName: __RNvXsf_NtNtCslJiobkLta79_5alloc3vec9into_iterINtB5_8IntoIterNtNtCsdGrGZaRBwMb_3syn4expr3ArmENtNtNtCsieiGu2EXtoJ_4core4iter8adapters10SourceIter8as_innerCsliPDVd4pfgL_15zerofrom_derive, symObjAddr: 0x35B0, symBinAddr: 0x800A0, symSize: 0x10 }
  - { offset: 0xD3BE3, size: 0x8, addend: 0x0, symName: __RNvXsf_NtNtCslJiobkLta79_5alloc3vec9into_iterINtB5_8IntoIterNtNtCsdGrGZaRBwMb_3syn4item11ForeignItemENtNtNtCsieiGu2EXtoJ_4core4iter8adapters10SourceIter8as_innerCsliPDVd4pfgL_15zerofrom_derive, symObjAddr: 0x35C0, symBinAddr: 0x800B0, symSize: 0x10 }
  - { offset: 0xD3C23, size: 0x8, addend: 0x0, symName: __RNvXsf_NtNtCslJiobkLta79_5alloc3vec9into_iterINtB5_8IntoIterNtNtCsdGrGZaRBwMb_3syn4item4ItemENtNtNtCsieiGu2EXtoJ_4core4iter8adapters10SourceIter8as_innerCsliPDVd4pfgL_15zerofrom_derive, symObjAddr: 0x35D0, symBinAddr: 0x800C0, symSize: 0x10 }
  - { offset: 0xD3C63, size: 0x8, addend: 0x0, symName: __RNvXsf_NtNtCslJiobkLta79_5alloc3vec9into_iterINtB5_8IntoIterNtNtCsdGrGZaRBwMb_3syn4item8ImplItemENtNtNtCsieiGu2EXtoJ_4core4iter8adapters10SourceIter8as_innerCsliPDVd4pfgL_15zerofrom_derive, symObjAddr: 0x35E0, symBinAddr: 0x800D0, symSize: 0x10 }
  - { offset: 0xD3CA3, size: 0x8, addend: 0x0, symName: __RNvXsf_NtNtCslJiobkLta79_5alloc3vec9into_iterINtB5_8IntoIterNtNtCsdGrGZaRBwMb_3syn4item9TraitItemENtNtNtCsieiGu2EXtoJ_4core4iter8adapters10SourceIter8as_innerCsliPDVd4pfgL_15zerofrom_derive, symObjAddr: 0x35F0, symBinAddr: 0x800E0, symSize: 0x10 }
  - { offset: 0xD3CE3, size: 0x8, addend: 0x0, symName: __RNvXsf_NtNtCslJiobkLta79_5alloc3vec9into_iterINtB5_8IntoIterNtNtCsdGrGZaRBwMb_3syn4stmt4StmtENtNtNtCsieiGu2EXtoJ_4core4iter8adapters10SourceIter8as_innerCsliPDVd4pfgL_15zerofrom_derive, symObjAddr: 0x3600, symBinAddr: 0x800F0, symSize: 0x10 }
  - { offset: 0xD3D29, size: 0x8, addend: 0x0, symName: __RNvXsg_NtNtCslJiobkLta79_5alloc3vec9into_iterINtB5_8IntoIterNtNtCsdGrGZaRBwMb_3syn4attr9AttributeENtNtB7_16in_place_collect13AsVecIntoIter12as_into_iterCsliPDVd4pfgL_15zerofrom_derive, symObjAddr: 0x3610, symBinAddr: 0x80100, symSize: 0x10 }
  - { offset: 0xD3D60, size: 0x8, addend: 0x0, symName: __RNvXsg_NtNtCslJiobkLta79_5alloc3vec9into_iterINtB5_8IntoIterNtNtCsdGrGZaRBwMb_3syn4expr3ArmENtNtB7_16in_place_collect13AsVecIntoIter12as_into_iterCsliPDVd4pfgL_15zerofrom_derive, symObjAddr: 0x3620, symBinAddr: 0x80110, symSize: 0x10 }
  - { offset: 0xD3D97, size: 0x8, addend: 0x0, symName: __RNvXsg_NtNtCslJiobkLta79_5alloc3vec9into_iterINtB5_8IntoIterNtNtCsdGrGZaRBwMb_3syn4item11ForeignItemENtNtB7_16in_place_collect13AsVecIntoIter12as_into_iterCsliPDVd4pfgL_15zerofrom_derive, symObjAddr: 0x3630, symBinAddr: 0x80120, symSize: 0x10 }
  - { offset: 0xD3DCE, size: 0x8, addend: 0x0, symName: __RNvXsg_NtNtCslJiobkLta79_5alloc3vec9into_iterINtB5_8IntoIterNtNtCsdGrGZaRBwMb_3syn4item4ItemENtNtB7_16in_place_collect13AsVecIntoIter12as_into_iterCsliPDVd4pfgL_15zerofrom_derive, symObjAddr: 0x3640, symBinAddr: 0x80130, symSize: 0x10 }
  - { offset: 0xD3E05, size: 0x8, addend: 0x0, symName: __RNvXsg_NtNtCslJiobkLta79_5alloc3vec9into_iterINtB5_8IntoIterNtNtCsdGrGZaRBwMb_3syn4item8ImplItemENtNtB7_16in_place_collect13AsVecIntoIter12as_into_iterCsliPDVd4pfgL_15zerofrom_derive, symObjAddr: 0x3650, symBinAddr: 0x80140, symSize: 0x10 }
  - { offset: 0xD3E3C, size: 0x8, addend: 0x0, symName: __RNvXsg_NtNtCslJiobkLta79_5alloc3vec9into_iterINtB5_8IntoIterNtNtCsdGrGZaRBwMb_3syn4item9TraitItemENtNtB7_16in_place_collect13AsVecIntoIter12as_into_iterCsliPDVd4pfgL_15zerofrom_derive, symObjAddr: 0x3660, symBinAddr: 0x80150, symSize: 0x10 }
  - { offset: 0xD3E73, size: 0x8, addend: 0x0, symName: __RNvXsg_NtNtCslJiobkLta79_5alloc3vec9into_iterINtB5_8IntoIterNtNtCsdGrGZaRBwMb_3syn4stmt4StmtENtNtB7_16in_place_collect13AsVecIntoIter12as_into_iterCsliPDVd4pfgL_15zerofrom_derive, symObjAddr: 0x3670, symBinAddr: 0x80160, symSize: 0x10 }
  - { offset: 0xD5D90, size: 0x8, addend: 0x0, symName: __RNvMs_NtNtCslJiobkLta79_5alloc3vec9into_iterINtB4_8IntoIterNtNtCsdGrGZaRBwMb_3syn4attr9AttributeE32forget_allocation_drop_remainingCsliPDVd4pfgL_15zerofrom_derive, symObjAddr: 0x23E0, symBinAddr: 0x7EED0, symSize: 0xB0 }
  - { offset: 0xD5FD1, size: 0x8, addend: 0x0, symName: __RNvMs_NtNtCslJiobkLta79_5alloc3vec9into_iterINtB4_8IntoIterNtNtCsdGrGZaRBwMb_3syn4expr3ArmE32forget_allocation_drop_remainingCsliPDVd4pfgL_15zerofrom_derive, symObjAddr: 0x2490, symBinAddr: 0x7EF80, symSize: 0xB0 }
  - { offset: 0xD6212, size: 0x8, addend: 0x0, symName: __RNvMs_NtNtCslJiobkLta79_5alloc3vec9into_iterINtB4_8IntoIterNtNtCsdGrGZaRBwMb_3syn4item11ForeignItemE32forget_allocation_drop_remainingCsliPDVd4pfgL_15zerofrom_derive, symObjAddr: 0x2540, symBinAddr: 0x7F030, symSize: 0xB0 }
  - { offset: 0xD6453, size: 0x8, addend: 0x0, symName: __RNvMs_NtNtCslJiobkLta79_5alloc3vec9into_iterINtB4_8IntoIterNtNtCsdGrGZaRBwMb_3syn4item4ItemE32forget_allocation_drop_remainingCsliPDVd4pfgL_15zerofrom_derive, symObjAddr: 0x25F0, symBinAddr: 0x7F0E0, symSize: 0xB0 }
  - { offset: 0xD6694, size: 0x8, addend: 0x0, symName: __RNvMs_NtNtCslJiobkLta79_5alloc3vec9into_iterINtB4_8IntoIterNtNtCsdGrGZaRBwMb_3syn4item8ImplItemE32forget_allocation_drop_remainingCsliPDVd4pfgL_15zerofrom_derive, symObjAddr: 0x26A0, symBinAddr: 0x7F190, symSize: 0xB0 }
  - { offset: 0xD68D5, size: 0x8, addend: 0x0, symName: __RNvMs_NtNtCslJiobkLta79_5alloc3vec9into_iterINtB4_8IntoIterNtNtCsdGrGZaRBwMb_3syn4item9TraitItemE32forget_allocation_drop_remainingCsliPDVd4pfgL_15zerofrom_derive, symObjAddr: 0x2750, symBinAddr: 0x7F240, symSize: 0xB0 }
  - { offset: 0xD6B16, size: 0x8, addend: 0x0, symName: __RNvMs_NtNtCslJiobkLta79_5alloc3vec9into_iterINtB4_8IntoIterNtNtCsdGrGZaRBwMb_3syn4stmt4StmtE32forget_allocation_drop_remainingCsliPDVd4pfgL_15zerofrom_derive, symObjAddr: 0x2800, symBinAddr: 0x7F2F0, symSize: 0xB0 }
  - { offset: 0xD7640, size: 0x8, addend: 0x0, symName: __RINvMs6_NtCsjK30CmJ87bX_9hashbrown3rawINtB6_8RawTableTNtCsaKzlTDPUHDb_11proc_macro25IdentINtNtCsieiGu2EXtoJ_4core6option6OptionBQ_EEE14reserve_rehashNCINvNtB8_3map11make_hasherBQ_B1p_NtNtNtCsHUR1vrdMJt_3std4hash6random11RandomStateE0ECsliPDVd4pfgL_15zerofrom_derive, symObjAddr: 0x0, symBinAddr: 0x239EF0, symSize: 0xD50 }
  - { offset: 0xD767C, size: 0x8, addend: 0x0, symName: __RNCINvMs6_NtCsjK30CmJ87bX_9hashbrown3rawINtB8_8RawTableTNtCsaKzlTDPUHDb_11proc_macro25IdentINtNtCsieiGu2EXtoJ_4core6option6OptionBS_EEE14reserve_rehashNCINvNtBa_3map11make_hasherBS_B1r_NtNtNtCsHUR1vrdMJt_3std4hash6random11RandomStateE0E0CsliPDVd4pfgL_15zerofrom_derive, symObjAddr: 0x3260, symBinAddr: 0x82010, symSize: 0xB0 }
  - { offset: 0xD7842, size: 0x8, addend: 0x0, symName: __RNCINvMs6_NtCsjK30CmJ87bX_9hashbrown3rawINtB8_8RawTableTNtCsaKzlTDPUHDb_11proc_macro25IdentINtNtCsieiGu2EXtoJ_4core6option6OptionBS_EEE14reserve_rehashNCINvNtBa_3map11make_hasherBS_B1r_NtNtNtCsHUR1vrdMJt_3std4hash6random11RandomStateE0Es_0CsliPDVd4pfgL_15zerofrom_derive, symObjAddr: 0x3310, symBinAddr: 0x820C0, symSize: 0x30 }
  - { offset: 0xD7892, size: 0x8, addend: 0x0, symName: __RNCINvMs6_NtCsjK30CmJ87bX_9hashbrown3rawINtB8_8RawTableTNtCsaKzlTDPUHDb_11proc_macro25IdentuEE14reserve_rehashNCINvNtBa_3map11make_hasherBS_uNtNtNtCsHUR1vrdMJt_3std4hash6random11RandomStateE0E0CsliPDVd4pfgL_15zerofrom_derive, symObjAddr: 0x34A0, symBinAddr: 0x82250, symSize: 0xB0 }
  - { offset: 0xD7A58, size: 0x8, addend: 0x0, symName: __RNCINvMs6_NtCsjK30CmJ87bX_9hashbrown3rawINtB8_8RawTableTNtCsaKzlTDPUHDb_11proc_macro25IdentuEE14reserve_rehashNCINvNtBa_3map11make_hasherBS_uNtNtNtCsHUR1vrdMJt_3std4hash6random11RandomStateE0Es_0CsliPDVd4pfgL_15zerofrom_derive, symObjAddr: 0x3550, symBinAddr: 0x82300, symSize: 0x30 }
  - { offset: 0xD7ABC, size: 0x8, addend: 0x0, symName: __RNCINvMs6_NtCsjK30CmJ87bX_9hashbrown3rawINtB8_8RawTableTNtCsaKzlTDPUHDb_11proc_macro25IdentINtNtCsieiGu2EXtoJ_4core6option6OptionBS_EEE24find_or_find_insert_slotNCINvNtBa_3map14equivalent_keyBS_BS_B1r_E0NCINvB2E_11make_hasherBS_B1r_NtNtNtCsHUR1vrdMJt_3std4hash6random11RandomStateE0E0CsliPDVd4pfgL_15zerofrom_derive, symObjAddr: 0x3340, symBinAddr: 0x820F0, symSize: 0xB0 }
  - { offset: 0xD7C92, size: 0x8, addend: 0x0, symName: __RNCINvMs6_NtCsjK30CmJ87bX_9hashbrown3rawINtB8_8RawTableTNtCsaKzlTDPUHDb_11proc_macro25IdentuEE24find_or_find_insert_slotNCINvNtBa_3map14equivalent_keyBS_BS_uE0NCINvB1Z_11make_hasherBS_uNtNtNtCsHUR1vrdMJt_3std4hash6random11RandomStateE0E0CsliPDVd4pfgL_15zerofrom_derive, symObjAddr: 0x3580, symBinAddr: 0x82330, symSize: 0xB0 }
  - { offset: 0xD7E6E, size: 0x8, addend: 0x0, symName: __RNCINvMs6_NtCsjK30CmJ87bX_9hashbrown3rawINtB8_8RawTableTNtCsaKzlTDPUHDb_11proc_macro25IdentINtNtCsieiGu2EXtoJ_4core6option6OptionBS_EEE4findNCINvNtBa_3map14equivalent_keyBS_BS_B1r_E0E0CsliPDVd4pfgL_15zerofrom_derive, symObjAddr: 0x33F0, symBinAddr: 0x821A0, symSize: 0xB0 }
  - { offset: 0xD803B, size: 0x8, addend: 0x0, symName: __RNCINvMs6_NtCsjK30CmJ87bX_9hashbrown3rawINtB8_8RawTableTNtCsaKzlTDPUHDb_11proc_macro25IdentuEE4findNCINvNtBa_3map14equivalent_keyBS_BS_uE0E0CsliPDVd4pfgL_15zerofrom_derive, symObjAddr: 0x3630, symBinAddr: 0x823E0, symSize: 0xB0 }
  - { offset: 0xD8FA6, size: 0x8, addend: 0x0, symName: __RNvXsg_NtCsjK30CmJ87bX_9hashbrown3rawINtB5_8RawTableTNtCsaKzlTDPUHDb_11proc_macro25IdentINtNtCsieiGu2EXtoJ_4core6option6OptionBP_EEENtNtNtB1t_3ops4drop4Drop4dropCsliPDVd4pfgL_15zerofrom_derive, symObjAddr: 0x4FD0, symBinAddr: 0x83D80, symSize: 0x30 }
  - { offset: 0xD8FE2, size: 0x8, addend: 0x0, symName: __RNvXsg_NtCsjK30CmJ87bX_9hashbrown3rawINtB5_8RawTableTNtCsaKzlTDPUHDb_11proc_macro25IdentuEENtNtNtCsieiGu2EXtoJ_4core3ops4drop4Drop4dropCsliPDVd4pfgL_15zerofrom_derive, symObjAddr: 0x5000, symBinAddr: 0x83DB0, symSize: 0x30 }
  - { offset: 0xDC99C, size: 0x8, addend: 0x0, symName: __RINvMs6_NtCsjK30CmJ87bX_9hashbrown3rawINtB6_8RawTableTNtCsaKzlTDPUHDb_11proc_macro25IdentINtNtCsieiGu2EXtoJ_4core6option6OptionBQ_EEE14reserve_rehashNCINvNtB8_3map11make_hasherBQ_B1p_NtNtNtCsHUR1vrdMJt_3std4hash6random11RandomStateE0ECsliPDVd4pfgL_15zerofrom_derive, symObjAddr: 0x0, symBinAddr: 0x239EF0, symSize: 0xD50 }
  - { offset: 0xDD46F, size: 0x8, addend: 0x0, symName: __RINvMs6_NtCsjK30CmJ87bX_9hashbrown3rawINtB6_8RawTableTNtCsaKzlTDPUHDb_11proc_macro25IdentINtNtCsieiGu2EXtoJ_4core6option6OptionBQ_EEE24find_or_find_insert_slotNCINvNtB8_3map14equivalent_keyBQ_BQ_B1p_E0NCINvB2C_11make_hasherBQ_B1p_NtNtNtCsHUR1vrdMJt_3std4hash6random11RandomStateE0ECsliPDVd4pfgL_15zerofrom_derive, symObjAddr: 0xD50, symBinAddr: 0x80870, symSize: 0x160 }
  - { offset: 0xDD939, size: 0x8, addend: 0x0, symName: __RINvMs6_NtCsjK30CmJ87bX_9hashbrown3rawINtB6_8RawTableTNtCsaKzlTDPUHDb_11proc_macro25IdentINtNtCsieiGu2EXtoJ_4core6option6OptionBQ_EEE4findNCINvNtB8_3map14equivalent_keyBQ_BQ_B1p_E0ECsliPDVd4pfgL_15zerofrom_derive, symObjAddr: 0xEB0, symBinAddr: 0x809D0, symSize: 0x480 }
  - { offset: 0xDDE52, size: 0x8, addend: 0x0, symName: __RINvMs6_NtCsjK30CmJ87bX_9hashbrown3rawINtB6_8RawTableTNtCsaKzlTDPUHDb_11proc_macro25IdentINtNtCsieiGu2EXtoJ_4core6option6OptionBQ_EEE7reserveNCINvNtB8_3map11make_hasherBQ_B1p_NtNtNtCsHUR1vrdMJt_3std4hash6random11RandomStateE0ECsliPDVd4pfgL_15zerofrom_derive, symObjAddr: 0x1330, symBinAddr: 0x80E50, symSize: 0xC0 }
  - { offset: 0xDDF2A, size: 0x8, addend: 0x0, symName: __RINvMs6_NtCsjK30CmJ87bX_9hashbrown3rawINtB6_8RawTableTNtCsaKzlTDPUHDb_11proc_macro25IdentuEE14reserve_rehashNCINvNtB8_3map11make_hasherBQ_uNtNtNtCsHUR1vrdMJt_3std4hash6random11RandomStateE0ECsliPDVd4pfgL_15zerofrom_derive, symObjAddr: 0x13F0, symBinAddr: 0x23AC40, symSize: 0xD70 }
  - { offset: 0xDE9FD, size: 0x8, addend: 0x0, symName: __RINvMs6_NtCsjK30CmJ87bX_9hashbrown3rawINtB6_8RawTableTNtCsaKzlTDPUHDb_11proc_macro25IdentuEE24find_or_find_insert_slotNCINvNtB8_3map14equivalent_keyBQ_BQ_uE0NCINvB1X_11make_hasherBQ_uNtNtNtCsHUR1vrdMJt_3std4hash6random11RandomStateE0ECsliPDVd4pfgL_15zerofrom_derive, symObjAddr: 0x2160, symBinAddr: 0x80F10, symSize: 0x160 }
  - { offset: 0xDEC8A, size: 0x8, addend: 0x0, symName: __RINvMs6_NtCsjK30CmJ87bX_9hashbrown3rawINtB6_8RawTableTNtCsaKzlTDPUHDb_11proc_macro25IdentuEE4findNCINvNtB8_3map14equivalent_keyBQ_BQ_uE0ECsliPDVd4pfgL_15zerofrom_derive, symObjAddr: 0x22C0, symBinAddr: 0x81070, symSize: 0x480 }
  - { offset: 0xDF196, size: 0x8, addend: 0x0, symName: __RINvMs6_NtCsjK30CmJ87bX_9hashbrown3rawINtB6_8RawTableTNtCsaKzlTDPUHDb_11proc_macro25IdentuEE7reserveNCINvNtB8_3map11make_hasherBQ_uNtNtNtCsHUR1vrdMJt_3std4hash6random11RandomStateE0ECsliPDVd4pfgL_15zerofrom_derive, symObjAddr: 0x2740, symBinAddr: 0x814F0, symSize: 0xC0 }
  - { offset: 0xDF388, size: 0x8, addend: 0x0, symName: __RINvMsa_NtCsjK30CmJ87bX_9hashbrown3rawNtB6_13RawTableInner13drop_elementsTNtCsaKzlTDPUHDb_11proc_macro25IdentINtNtCsieiGu2EXtoJ_4core6option6OptionB1a_EEECsliPDVd4pfgL_15zerofrom_derive, symObjAddr: 0x2800, symBinAddr: 0x815B0, symSize: 0x1D0 }
  - { offset: 0xDF6DF, size: 0x8, addend: 0x0, symName: __RINvMsa_NtCsjK30CmJ87bX_9hashbrown3rawNtB6_13RawTableInner13drop_elementsTNtCsaKzlTDPUHDb_11proc_macro25IdentuEECsliPDVd4pfgL_15zerofrom_derive, symObjAddr: 0x29D0, symBinAddr: 0x81780, symSize: 0x1D0 }
  - { offset: 0xDFA42, size: 0x8, addend: 0x0, symName: __RINvMsa_NtCsjK30CmJ87bX_9hashbrown3rawNtB6_13RawTableInner16drop_inner_tableTNtCsaKzlTDPUHDb_11proc_macro25IdentINtNtCsieiGu2EXtoJ_4core6option6OptionB1d_EENtNtCslJiobkLta79_5alloc5alloc6GlobalECsliPDVd4pfgL_15zerofrom_derive, symObjAddr: 0x2BA0, symBinAddr: 0x81950, symSize: 0xD0 }
  - { offset: 0xDFCBB, size: 0x8, addend: 0x0, symName: __RINvMsa_NtCsjK30CmJ87bX_9hashbrown3rawNtB6_13RawTableInner16drop_inner_tableTNtCsaKzlTDPUHDb_11proc_macro25IdentuENtNtCslJiobkLta79_5alloc5alloc6GlobalECsliPDVd4pfgL_15zerofrom_derive, symObjAddr: 0x2C70, symBinAddr: 0x81A20, symSize: 0xD0 }
  - { offset: 0xDFFC1, size: 0x8, addend: 0x0, symName: __RINvMsi_NtCsjK30CmJ87bX_9hashbrown3rawINtB6_12RawIterRangeTNtCsaKzlTDPUHDb_11proc_macro25IdentINtNtCsieiGu2EXtoJ_4core6option6OptionBV_EEE9next_implKb0_ECsliPDVd4pfgL_15zerofrom_derive, symObjAddr: 0x2D40, symBinAddr: 0x81AF0, symSize: 0x290 }
  - { offset: 0xE04CB, size: 0x8, addend: 0x0, symName: __RINvMsi_NtCsjK30CmJ87bX_9hashbrown3rawINtB6_12RawIterRangeTNtCsaKzlTDPUHDb_11proc_macro25IdentuEE9next_implKb0_ECsliPDVd4pfgL_15zerofrom_derive, symObjAddr: 0x2FD0, symBinAddr: 0x81D80, symSize: 0x290 }
  - { offset: 0xE1039, size: 0x8, addend: 0x0, symName: __RNvMs1_NtCsjK30CmJ87bX_9hashbrown3rawNtB5_11TableLayout20calculate_layout_forCsliPDVd4pfgL_15zerofrom_derive, symObjAddr: 0x36E0, symBinAddr: 0x82490, symSize: 0x2F0 }
  - { offset: 0xE14DC, size: 0x8, addend: 0x0, symName: __RNvMs6_NtCsjK30CmJ87bX_9hashbrown3rawINtB5_8RawTableTNtCsaKzlTDPUHDb_11proc_macro25IdentINtNtCsieiGu2EXtoJ_4core6option6OptionBP_EEE14insert_in_slotCsliPDVd4pfgL_15zerofrom_derive, symObjAddr: 0x39D0, symBinAddr: 0x82780, symSize: 0x140 }
  - { offset: 0xE1A1F, size: 0x8, addend: 0x0, symName: __RNvMs6_NtCsjK30CmJ87bX_9hashbrown3rawINtB5_8RawTableTNtCsaKzlTDPUHDb_11proc_macro25IdentuEE14insert_in_slotCsliPDVd4pfgL_15zerofrom_derive, symObjAddr: 0x3B10, symBinAddr: 0x828C0, symSize: 0x150 }
  - { offset: 0xE1EBF, size: 0x8, addend: 0x0, symName: __RNvMsa_NtCsjK30CmJ87bX_9hashbrown3rawNtB5_13RawTableInner15fix_insert_slotCsliPDVd4pfgL_15zerofrom_derive, symObjAddr: 0x3C60, symBinAddr: 0x82A10, symSize: 0x140 }
  - { offset: 0xE2272, size: 0x8, addend: 0x0, symName: __RNvMsa_NtCsjK30CmJ87bX_9hashbrown3rawNtB5_13RawTableInner15rehash_in_placeCsliPDVd4pfgL_15zerofrom_derive, symObjAddr: 0x3DA0, symBinAddr: 0x82B50, symSize: 0x5B0 }
  - { offset: 0xE2A3E, size: 0x8, addend: 0x0, symName: __RNvMsa_NtCsjK30CmJ87bX_9hashbrown3rawNtB5_13RawTableInner16find_insert_slotCsliPDVd4pfgL_15zerofrom_derive, symObjAddr: 0x4350, symBinAddr: 0x83100, symSize: 0x130 }
  - { offset: 0xE2C3D, size: 0x8, addend: 0x0, symName: __RNvMsa_NtCsjK30CmJ87bX_9hashbrown3rawNtB5_13RawTableInner19prepare_insert_slotCsliPDVd4pfgL_15zerofrom_derive, symObjAddr: 0x4480, symBinAddr: 0x83230, symSize: 0x60 }
  - { offset: 0xE2F2E, size: 0x8, addend: 0x0, symName: __RNvMsa_NtCsjK30CmJ87bX_9hashbrown3rawNtB5_13RawTableInner23prepare_rehash_in_placeCsliPDVd4pfgL_15zerofrom_derive, symObjAddr: 0x44E0, symBinAddr: 0x83290, symSize: 0x340 }
  - { offset: 0xE3655, size: 0x8, addend: 0x0, symName: __RNvMsa_NtCsjK30CmJ87bX_9hashbrown3rawNtB5_13RawTableInner25find_insert_slot_in_groupCsliPDVd4pfgL_15zerofrom_derive, symObjAddr: 0x4820, symBinAddr: 0x835D0, symSize: 0x160 }
  - { offset: 0xE3953, size: 0x8, addend: 0x0, symName: __RNvMsa_NtCsjK30CmJ87bX_9hashbrown3rawNtB5_13RawTableInner30find_or_find_insert_slot_innerCsliPDVd4pfgL_15zerofrom_derive, symObjAddr: 0x4980, symBinAddr: 0x83730, symSize: 0x410 }
  - { offset: 0xE3DE2, size: 0x8, addend: 0x0, symName: __RNvMsi_NtCsjK30CmJ87bX_9hashbrown3rawINtB5_12RawIterRangeTNtCsaKzlTDPUHDb_11proc_macro25IdentINtNtCsieiGu2EXtoJ_4core6option6OptionBU_EEE3newCsliPDVd4pfgL_15zerofrom_derive, symObjAddr: 0x4D90, symBinAddr: 0x83B40, symSize: 0x120 }
  - { offset: 0xE4102, size: 0x8, addend: 0x0, symName: __RNvMsi_NtCsjK30CmJ87bX_9hashbrown3rawINtB5_12RawIterRangeTNtCsaKzlTDPUHDb_11proc_macro25IdentuEE3newCsliPDVd4pfgL_15zerofrom_derive, symObjAddr: 0x4EB0, symBinAddr: 0x83C60, symSize: 0x120 }
  - { offset: 0xE43D5, size: 0x8, addend: 0x0, symName: __RNCNCNvCsliPDVd4pfgL_15zerofrom_derive14zf_derive_impls0_00B5_, symObjAddr: 0x0, symBinAddr: 0x83DE0, symSize: 0x30 }
  - { offset: 0xE43F7, size: 0x8, addend: 0x0, symName: ___rustc_proc_macro_decls_f823569d4225efe5__, symObjAddr: 0x90F8, symBinAddr: 0x28D660, symSize: 0x0 }
  - { offset: 0xE440F, size: 0x8, addend: 0x0, symName: __RNCNCNvCsliPDVd4pfgL_15zerofrom_derive14zf_derive_impls0_00B5_, symObjAddr: 0x0, symBinAddr: 0x83DE0, symSize: 0x30 }
  - { offset: 0xE4452, size: 0x8, addend: 0x0, symName: __RNCNCNvCsliPDVd4pfgL_15zerofrom_derive14zf_derive_impls5_00B5_, symObjAddr: 0x30, symBinAddr: 0x83E10, symSize: 0x970 }
  - { offset: 0xE45EE, size: 0x8, addend: 0x0, symName: __RNCNvCsliPDVd4pfgL_15zerofrom_derive14zf_derive_impl0B3_, symObjAddr: 0x9A0, symBinAddr: 0x84780, symSize: 0x110 }
  - { offset: 0xE463A, size: 0x8, addend: 0x0, symName: __RNCNvCsliPDVd4pfgL_15zerofrom_derive14zf_derive_impls0_0B3_, symObjAddr: 0xAB0, symBinAddr: 0x84890, symSize: 0x510 }
  - { offset: 0xE4720, size: 0x8, addend: 0x0, symName: __RNCNvCsliPDVd4pfgL_15zerofrom_derive14zf_derive_impls1_0B3_, symObjAddr: 0xFC0, symBinAddr: 0x84DA0, symSize: 0x30 }
  - { offset: 0xE4756, size: 0x8, addend: 0x0, symName: __RNCNvCsliPDVd4pfgL_15zerofrom_derive14zf_derive_impls2_0B3_, symObjAddr: 0xFF0, symBinAddr: 0x84DD0, symSize: 0x40 }
  - { offset: 0xE478C, size: 0x8, addend: 0x0, symName: __RNCNvCsliPDVd4pfgL_15zerofrom_derive14zf_derive_impls3_0B3_, symObjAddr: 0x1030, symBinAddr: 0x84E10, symSize: 0x60 }
  - { offset: 0xE47C2, size: 0x8, addend: 0x0, symName: __RNCNvCsliPDVd4pfgL_15zerofrom_derive14zf_derive_impls4_0B3_, symObjAddr: 0x1090, symBinAddr: 0x84E70, symSize: 0xF0 }
  - { offset: 0xE4815, size: 0x8, addend: 0x0, symName: __RNCNvCsliPDVd4pfgL_15zerofrom_derive14zf_derive_impls5_0B3_, symObjAddr: 0x1180, symBinAddr: 0x84F60, symSize: 0x40 }
  - { offset: 0xE4865, size: 0x8, addend: 0x0, symName: __RNCNvCsliPDVd4pfgL_15zerofrom_derive14zf_derive_impls_0B3_, symObjAddr: 0x11C0, symBinAddr: 0x84FA0, symSize: 0x40 }
  - { offset: 0xE48C4, size: 0x8, addend: 0x0, symName: __RNCNvCsliPDVd4pfgL_15zerofrom_derive8has_attr0B3_, symObjAddr: 0x1200, symBinAddr: 0x84FE0, symSize: 0x120 }
  - { offset: 0xE4917, size: 0x8, addend: 0x0, symName: __RNvCsliPDVd4pfgL_15zerofrom_derive14zf_derive_impl, symObjAddr: 0x1320, symBinAddr: 0x85100, symSize: 0x2400 }
  - { offset: 0xE5235, size: 0x8, addend: 0x0, symName: __RNvCsliPDVd4pfgL_15zerofrom_derive16replace_lifetime, symObjAddr: 0x3720, symBinAddr: 0x87500, symSize: 0xC0 }
  - { offset: 0xE5273, size: 0x8, addend: 0x0, symName: __RNvCsliPDVd4pfgL_15zerofrom_derive19get_may_borrow_attr, symObjAddr: 0x37E0, symBinAddr: 0x875C0, symSize: 0x440 }
  - { offset: 0xE530C, size: 0x8, addend: 0x0, symName: __RNvCsliPDVd4pfgL_15zerofrom_derive25replace_lifetime_and_type, symObjAddr: 0x3C20, symBinAddr: 0x87A00, symSize: 0xD0 }
  - { offset: 0xE5359, size: 0x8, addend: 0x0, symName: __RNvCsliPDVd4pfgL_15zerofrom_derive8has_attr, symObjAddr: 0x3CF0, symBinAddr: 0x87AD0, symSize: 0x50 }
  - { offset: 0xE5393, size: 0x8, addend: 0x0, symName: __RNvCsliPDVd4pfgL_15zerofrom_derive9custom_lt, symObjAddr: 0x3D40, symBinAddr: 0x87B20, symSize: 0x50 }
  - { offset: 0xE53C1, size: 0x8, addend: 0x0, symName: __RNvCsliPDVd4pfgL_15zerofrom_derive9zf_derive, symObjAddr: 0x3D90, symBinAddr: 0x87B70, symSize: 0x180 }
  - { offset: 0xE5441, size: 0x8, addend: 0x0, symName: __RNvXNvCsliPDVd4pfgL_15zerofrom_derive16replace_lifetimeNtB2_15ReplaceLifetimeNtNtNtCsdGrGZaRBwMb_3syn3gen4fold4Fold13fold_lifetime, symObjAddr: 0x3F10, symBinAddr: 0x87CF0, symSize: 0x60 }
  - { offset: 0xE549C, size: 0x8, addend: 0x0, symName: __RNvXNvCsliPDVd4pfgL_15zerofrom_derive25replace_lifetime_and_typeNtB2_20ReplaceLifetimeAndTyNtNtNtCsdGrGZaRBwMb_3syn3gen4fold4Fold13fold_lifetime, symObjAddr: 0x3F70, symBinAddr: 0x87D50, symSize: 0x70 }
  - { offset: 0xE54D6, size: 0x8, addend: 0x0, symName: __RNvXNvCsliPDVd4pfgL_15zerofrom_derive25replace_lifetime_and_typeNtB2_20ReplaceLifetimeAndTyNtNtNtCsdGrGZaRBwMb_3syn3gen4fold4Fold14fold_type_path, symObjAddr: 0x3FE0, symBinAddr: 0x87DC0, symSize: 0x270 }
  - { offset: 0xE994D, size: 0x8, addend: 0x0, symName: __RNvYNtNvCsliPDVd4pfgL_15zerofrom_derive16replace_lifetime15ReplaceLifetimeNtNtNtCsdGrGZaRBwMb_3syn3gen4fold4Fold10fold_blockB6_, symObjAddr: 0x4250, symBinAddr: 0x88030, symSize: 0x30 }
  - { offset: 0xE9991, size: 0x8, addend: 0x0, symName: __RNvYNtNvCsliPDVd4pfgL_15zerofrom_derive16replace_lifetime15ReplaceLifetimeNtNtNtCsdGrGZaRBwMb_3syn3gen4fold4Fold10fold_fieldB6_, symObjAddr: 0x4280, symBinAddr: 0x88060, symSize: 0x30 }
  - { offset: 0xE99D8, size: 0x8, addend: 0x0, symName: __RNvYNtNvCsliPDVd4pfgL_15zerofrom_derive16replace_lifetime15ReplaceLifetimeNtNtNtCsdGrGZaRBwMb_3syn3gen4fold4Fold10fold_identB6_, symObjAddr: 0x42B0, symBinAddr: 0x88090, symSize: 0x30 }
  - { offset: 0xE9A1F, size: 0x8, addend: 0x0, symName: __RNvYNtNvCsliPDVd4pfgL_15zerofrom_derive16replace_lifetime15ReplaceLifetimeNtNtNtCsdGrGZaRBwMb_3syn3gen4fold4Fold10fold_indexB6_, symObjAddr: 0x42E0, symBinAddr: 0x880C0, symSize: 0x30 }
  - { offset: 0xE9A65, size: 0x8, addend: 0x0, symName: __RNvYNtNvCsliPDVd4pfgL_15zerofrom_derive16replace_lifetime15ReplaceLifetimeNtNtNtCsdGrGZaRBwMb_3syn3gen4fold4Fold10fold_labelB6_, symObjAddr: 0x4310, symBinAddr: 0x880F0, symSize: 0x30 }
  - { offset: 0xE9AAC, size: 0x8, addend: 0x0, symName: __RNvYNtNvCsliPDVd4pfgL_15zerofrom_derive16replace_lifetime15ReplaceLifetimeNtNtNtCsdGrGZaRBwMb_3syn3gen4fold4Fold10fold_localB6_, symObjAddr: 0x4340, symBinAddr: 0x88120, symSize: 0x30 }
  - { offset: 0xE9AF3, size: 0x8, addend: 0x0, symName: __RNvYNtNvCsliPDVd4pfgL_15zerofrom_derive16replace_lifetime15ReplaceLifetimeNtNtNtCsdGrGZaRBwMb_3syn3gen4fold4Fold10fold_macroB6_, symObjAddr: 0x4370, symBinAddr: 0x88150, symSize: 0x30 }
  - { offset: 0xE9B3A, size: 0x8, addend: 0x0, symName: __RNvYNtNvCsliPDVd4pfgL_15zerofrom_derive16replace_lifetime15ReplaceLifetimeNtNtNtCsdGrGZaRBwMb_3syn3gen4fold4Fold10fold_qselfB6_, symObjAddr: 0x43A0, symBinAddr: 0x88180, symSize: 0x30 }
  - { offset: 0xE9B81, size: 0x8, addend: 0x0, symName: __RNvYNtNvCsliPDVd4pfgL_15zerofrom_derive16replace_lifetime15ReplaceLifetimeNtNtNtCsdGrGZaRBwMb_3syn3gen4fold4Fold10fold_un_opB6_, symObjAddr: 0x43D0, symBinAddr: 0x881B0, symSize: 0x50 }
  - { offset: 0xE9BC7, size: 0x8, addend: 0x0, symName: __RNvYNtNvCsliPDVd4pfgL_15zerofrom_derive16replace_lifetime15ReplaceLifetimeNtNtNtCsdGrGZaRBwMb_3syn3gen4fold4Fold11fold_bin_opB6_, symObjAddr: 0x4420, symBinAddr: 0x88200, symSize: 0x40 }
  - { offset: 0xE9C0B, size: 0x8, addend: 0x0, symName: __RNvYNtNvCsliPDVd4pfgL_15zerofrom_derive16replace_lifetime15ReplaceLifetimeNtNtNtCsdGrGZaRBwMb_3syn3gen4fold4Fold11fold_fieldsB6_, symObjAddr: 0x4460, symBinAddr: 0x88240, symSize: 0x30 }
  - { offset: 0xE9C52, size: 0x8, addend: 0x0, symName: __RNvYNtNvCsliPDVd4pfgL_15zerofrom_derive16replace_lifetime15ReplaceLifetimeNtNtNtCsdGrGZaRBwMb_3syn3gen4fold4Fold11fold_fn_argB6_, symObjAddr: 0x4490, symBinAddr: 0x88270, symSize: 0x30 }
  - { offset: 0xE9C99, size: 0x8, addend: 0x0, symName: __RNvYNtNvCsliPDVd4pfgL_15zerofrom_derive16replace_lifetime15ReplaceLifetimeNtNtNtCsdGrGZaRBwMb_3syn3gen4fold4Fold11fold_memberB6_, symObjAddr: 0x44C0, symBinAddr: 0x882A0, symSize: 0x30 }
  - { offset: 0xE9CE0, size: 0x8, addend: 0x0, symName: __RNvYNtNvCsliPDVd4pfgL_15zerofrom_derive16replace_lifetime15ReplaceLifetimeNtNtNtCsdGrGZaRBwMb_3syn3gen4fold4Fold11fold_pat_orB6_, symObjAddr: 0x44F0, symBinAddr: 0x882D0, symSize: 0x30 }
  - { offset: 0xE9D27, size: 0x8, addend: 0x0, symName: __RNvYNtNvCsliPDVd4pfgL_15zerofrom_derive16replace_lifetime15ReplaceLifetimeNtNtNtCsdGrGZaRBwMb_3syn3gen4fold4Fold12fold_expr_ifB6_, symObjAddr: 0x4520, symBinAddr: 0x88300, symSize: 0x30 }
  - { offset: 0xE9D6B, size: 0x8, addend: 0x0, symName: __RNvYNtNvCsliPDVd4pfgL_15zerofrom_derive16replace_lifetime15ReplaceLifetimeNtNtNtCsdGrGZaRBwMb_3syn3gen4fold4Fold12fold_item_fnB6_, symObjAddr: 0x4550, symBinAddr: 0x88330, symSize: 0x30 }
  - { offset: 0xE9DB2, size: 0x8, addend: 0x0, symName: __RNvYNtNvCsliPDVd4pfgL_15zerofrom_derive16replace_lifetime15ReplaceLifetimeNtNtNtCsdGrGZaRBwMb_3syn3gen4fold4Fold12fold_lit_intB6_, symObjAddr: 0x4580, symBinAddr: 0x88360, symSize: 0x30 }
  - { offset: 0xE9DF8, size: 0x8, addend: 0x0, symName: __RNvYNtNvCsliPDVd4pfgL_15zerofrom_derive16replace_lifetime15ReplaceLifetimeNtNtNtCsdGrGZaRBwMb_3syn3gen4fold4Fold12fold_lit_strB6_, symObjAddr: 0x45B0, symBinAddr: 0x88390, symSize: 0x30 }
  - { offset: 0xE9E3E, size: 0x8, addend: 0x0, symName: __RNvYNtNvCsliPDVd4pfgL_15zerofrom_derive16replace_lifetime15ReplaceLifetimeNtNtNtCsdGrGZaRBwMb_3syn3gen4fold4Fold12fold_variantB6_, symObjAddr: 0x45E0, symBinAddr: 0x883C0, symSize: 0x30 }
  - { offset: 0xE9E85, size: 0x8, addend: 0x0, symName: __RNvYNtNvCsliPDVd4pfgL_15zerofrom_derive16replace_lifetime15ReplaceLifetimeNtNtNtCsdGrGZaRBwMb_3syn3gen4fold4Fold13fold_expr_letB6_, symObjAddr: 0x4610, symBinAddr: 0x883F0, symSize: 0x30 }
  - { offset: 0xE9EC9, size: 0x8, addend: 0x0, symName: __RNvYNtNvCsliPDVd4pfgL_15zerofrom_derive16replace_lifetime15ReplaceLifetimeNtNtNtCsdGrGZaRBwMb_3syn3gen4fold4Fold13fold_expr_litB6_, symObjAddr: 0x4640, symBinAddr: 0x88420, symSize: 0x30 }
  - { offset: 0xE9F0D, size: 0x8, addend: 0x0, symName: __RNvYNtNvCsliPDVd4pfgL_15zerofrom_derive16replace_lifetime15ReplaceLifetimeNtNtNtCsdGrGZaRBwMb_3syn3gen4fold4Fold13fold_expr_tryB6_, symObjAddr: 0x4670, symBinAddr: 0x88450, symSize: 0x30 }
  - { offset: 0xE9F54, size: 0x8, addend: 0x0, symName: __RNvYNtNvCsliPDVd4pfgL_15zerofrom_derive16replace_lifetime15ReplaceLifetimeNtNtNtCsdGrGZaRBwMb_3syn3gen4fold4Fold13fold_genericsB6_, symObjAddr: 0x46A0, symBinAddr: 0x88480, symSize: 0x30 }
  - { offset: 0xE9F9B, size: 0x8, addend: 0x0, symName: __RNvYNtNvCsliPDVd4pfgL_15zerofrom_derive16replace_lifetime15ReplaceLifetimeNtNtNtCsdGrGZaRBwMb_3syn3gen4fold4Fold13fold_item_modB6_, symObjAddr: 0x46D0, symBinAddr: 0x884B0, symSize: 0x30 }
  - { offset: 0xE9FE2, size: 0x8, addend: 0x0, symName: __RNvYNtNvCsliPDVd4pfgL_15zerofrom_derive16replace_lifetime15ReplaceLifetimeNtNtNtCsdGrGZaRBwMb_3syn3gen4fold4Fold13fold_item_useB6_, symObjAddr: 0x4700, symBinAddr: 0x884E0, symSize: 0x30 }
  - { offset: 0xEA029, size: 0x8, addend: 0x0, symName: __RNvYNtNvCsliPDVd4pfgL_15zerofrom_derive16replace_lifetime15ReplaceLifetimeNtNtNtCsdGrGZaRBwMb_3syn3gen4fold4Fold13fold_lit_boolB6_, symObjAddr: 0x4730, symBinAddr: 0x88510, symSize: 0x40 }
  - { offset: 0xEA06F, size: 0x8, addend: 0x0, symName: __RNvYNtNvCsliPDVd4pfgL_15zerofrom_derive16replace_lifetime15ReplaceLifetimeNtNtNtCsdGrGZaRBwMb_3syn3gen4fold4Fold13fold_lit_byteB6_, symObjAddr: 0x4770, symBinAddr: 0x88550, symSize: 0x30 }
  - { offset: 0xEA0B5, size: 0x8, addend: 0x0, symName: __RNvYNtNvCsliPDVd4pfgL_15zerofrom_derive16replace_lifetime15ReplaceLifetimeNtNtNtCsdGrGZaRBwMb_3syn3gen4fold4Fold13fold_lit_charB6_, symObjAddr: 0x47A0, symBinAddr: 0x88580, symSize: 0x30 }
  - { offset: 0xEA0FB, size: 0x8, addend: 0x0, symName: __RNvYNtNvCsliPDVd4pfgL_15zerofrom_derive16replace_lifetime15ReplaceLifetimeNtNtNtCsdGrGZaRBwMb_3syn3gen4fold4Fold13fold_lit_cstrB6_, symObjAddr: 0x47D0, symBinAddr: 0x885B0, symSize: 0x30 }
  - { offset: 0xEA141, size: 0x8, addend: 0x0, symName: __RNvYNtNvCsliPDVd4pfgL_15zerofrom_derive16replace_lifetime15ReplaceLifetimeNtNtNtCsdGrGZaRBwMb_3syn3gen4fold4Fold13fold_pat_restB6_, symObjAddr: 0x4800, symBinAddr: 0x885E0, symSize: 0x30 }
  - { offset: 0xEA188, size: 0x8, addend: 0x0, symName: __RNvYNtNvCsliPDVd4pfgL_15zerofrom_derive16replace_lifetime15ReplaceLifetimeNtNtNtCsdGrGZaRBwMb_3syn3gen4fold4Fold13fold_pat_typeB6_, symObjAddr: 0x4830, symBinAddr: 0x88610, symSize: 0x30 }
  - { offset: 0xEA1CF, size: 0x8, addend: 0x0, symName: __RNvYNtNvCsliPDVd4pfgL_15zerofrom_derive16replace_lifetime15ReplaceLifetimeNtNtNtCsdGrGZaRBwMb_3syn3gen4fold4Fold13fold_pat_wildB6_, symObjAddr: 0x4860, symBinAddr: 0x88640, symSize: 0x30 }
  - { offset: 0xEA216, size: 0x8, addend: 0x0, symName: __RNvYNtNvCsliPDVd4pfgL_15zerofrom_derive16replace_lifetime15ReplaceLifetimeNtNtNtCsdGrGZaRBwMb_3syn3gen4fold4Fold13fold_receiverB6_, symObjAddr: 0x4890, symBinAddr: 0x88670, symSize: 0x30 }
  - { offset: 0xEA25D, size: 0x8, addend: 0x0, symName: __RNvYNtNvCsliPDVd4pfgL_15zerofrom_derive16replace_lifetime15ReplaceLifetimeNtNtNtCsdGrGZaRBwMb_3syn3gen4fold4Fold13fold_type_ptrB6_, symObjAddr: 0x48C0, symBinAddr: 0x886A0, symSize: 0x30 }
  - { offset: 0xEA2A4, size: 0x8, addend: 0x0, symName: __RNvYNtNvCsliPDVd4pfgL_15zerofrom_derive16replace_lifetime15ReplaceLifetimeNtNtNtCsdGrGZaRBwMb_3syn3gen4fold4Fold13fold_use_globB6_, symObjAddr: 0x48F0, symBinAddr: 0x886D0, symSize: 0x40 }
  - { offset: 0xEA2EA, size: 0x8, addend: 0x0, symName: __RNvYNtNvCsliPDVd4pfgL_15zerofrom_derive16replace_lifetime15ReplaceLifetimeNtNtNtCsdGrGZaRBwMb_3syn3gen4fold4Fold13fold_use_nameB6_, symObjAddr: 0x4930, symBinAddr: 0x88710, symSize: 0x30 }
  - { offset: 0xEA331, size: 0x8, addend: 0x0, symName: __RNvYNtNvCsliPDVd4pfgL_15zerofrom_derive16replace_lifetime15ReplaceLifetimeNtNtNtCsdGrGZaRBwMb_3syn3gen4fold4Fold13fold_use_pathB6_, symObjAddr: 0x4960, symBinAddr: 0x88740, symSize: 0x30 }
  - { offset: 0xEA378, size: 0x8, addend: 0x0, symName: __RNvYNtNvCsliPDVd4pfgL_15zerofrom_derive16replace_lifetime15ReplaceLifetimeNtNtNtCsdGrGZaRBwMb_3syn3gen4fold4Fold13fold_use_treeB6_, symObjAddr: 0x4990, symBinAddr: 0x88770, symSize: 0x30 }
  - { offset: 0xEA3BF, size: 0x8, addend: 0x0, symName: __RNvYNtNvCsliPDVd4pfgL_15zerofrom_derive16replace_lifetime15ReplaceLifetimeNtNtNtCsdGrGZaRBwMb_3syn3gen4fold4Fold13fold_variadicB6_, symObjAddr: 0x49C0, symBinAddr: 0x887A0, symSize: 0x30 }
  - { offset: 0xEA406, size: 0x8, addend: 0x0, symName: __RNvYNtNvCsliPDVd4pfgL_15zerofrom_derive16replace_lifetime15ReplaceLifetimeNtNtNtCsdGrGZaRBwMb_3syn3gen4fold4Fold14fold_attributeB6_, symObjAddr: 0x49F0, symBinAddr: 0x887D0, symSize: 0x30 }
  - { offset: 0xEA44A, size: 0x8, addend: 0x0, symName: __RNvYNtNvCsliPDVd4pfgL_15zerofrom_derive16replace_lifetime15ReplaceLifetimeNtNtNtCsdGrGZaRBwMb_3syn3gen4fold4Fold14fold_expr_callB6_, symObjAddr: 0x4A20, symBinAddr: 0x88800, symSize: 0x30 }
  - { offset: 0xEA48E, size: 0x8, addend: 0x0, symName: __RNvYNtNvCsliPDVd4pfgL_15zerofrom_derive16replace_lifetime15ReplaceLifetimeNtNtNtCsdGrGZaRBwMb_3syn3gen4fold4Fold14fold_expr_castB6_, symObjAddr: 0x4A50, symBinAddr: 0x88830, symSize: 0x30 }
  - { offset: 0xEA4D2, size: 0x8, addend: 0x0, symName: __RNvYNtNvCsliPDVd4pfgL_15zerofrom_derive16replace_lifetime15ReplaceLifetimeNtNtNtCsdGrGZaRBwMb_3syn3gen4fold4Fold14fold_expr_loopB6_, symObjAddr: 0x4A80, symBinAddr: 0x88860, symSize: 0x30 }
  - { offset: 0xEA516, size: 0x8, addend: 0x0, symName: __RNvYNtNvCsliPDVd4pfgL_15zerofrom_derive16replace_lifetime15ReplaceLifetimeNtNtNtCsdGrGZaRBwMb_3syn3gen4fold4Fold14fold_expr_pathB6_, symObjAddr: 0x4AB0, symBinAddr: 0x88890, symSize: 0x30 }
  - { offset: 0xEA55D, size: 0x8, addend: 0x0, symName: __RNvYNtNvCsliPDVd4pfgL_15zerofrom_derive16replace_lifetime15ReplaceLifetimeNtNtNtCsdGrGZaRBwMb_3syn3gen4fold4Fold14fold_field_patB6_, symObjAddr: 0x4AE0, symBinAddr: 0x888C0, symSize: 0x30 }
  - { offset: 0xEA5A4, size: 0x8, addend: 0x0, symName: __RNvYNtNvCsliPDVd4pfgL_15zerofrom_derive16replace_lifetime15ReplaceLifetimeNtNtNtCsdGrGZaRBwMb_3syn3gen4fold4Fold14fold_impl_itemB6_, symObjAddr: 0x4B10, symBinAddr: 0x888F0, symSize: 0x30 }
  - { offset: 0xEA5EB, size: 0x8, addend: 0x0, symName: __RNvYNtNvCsliPDVd4pfgL_15zerofrom_derive16replace_lifetime15ReplaceLifetimeNtNtNtCsdGrGZaRBwMb_3syn3gen4fold4Fold14fold_item_enumB6_, symObjAddr: 0x4B40, symBinAddr: 0x88920, symSize: 0x30 }
  - { offset: 0xEA632, size: 0x8, addend: 0x0, symName: __RNvYNtNvCsliPDVd4pfgL_15zerofrom_derive16replace_lifetime15ReplaceLifetimeNtNtNtCsdGrGZaRBwMb_3syn3gen4fold4Fold14fold_item_implB6_, symObjAddr: 0x4B70, symBinAddr: 0x88950, symSize: 0x30 }
  - { offset: 0xEA679, size: 0x8, addend: 0x0, symName: __RNvYNtNvCsliPDVd4pfgL_15zerofrom_derive16replace_lifetime15ReplaceLifetimeNtNtNtCsdGrGZaRBwMb_3syn3gen4fold4Fold14fold_item_typeB6_, symObjAddr: 0x4BA0, symBinAddr: 0x88980, symSize: 0x30 }
  - { offset: 0xEA6C0, size: 0x8, addend: 0x0, symName: __RNvYNtNvCsliPDVd4pfgL_15zerofrom_derive16replace_lifetime15ReplaceLifetimeNtNtNtCsdGrGZaRBwMb_3syn3gen4fold4Fold14fold_lit_floatB6_, symObjAddr: 0x4BD0, symBinAddr: 0x889B0, symSize: 0x30 }
  - { offset: 0xEA706, size: 0x8, addend: 0x0, symName: __RNvYNtNvCsliPDVd4pfgL_15zerofrom_derive16replace_lifetime15ReplaceLifetimeNtNtNtCsdGrGZaRBwMb_3syn3gen4fold4Fold14fold_meta_listB6_, symObjAddr: 0x4C00, symBinAddr: 0x889E0, symSize: 0x30 }
  - { offset: 0xEA74D, size: 0x8, addend: 0x0, symName: __RNvYNtNvCsliPDVd4pfgL_15zerofrom_derive16replace_lifetime15ReplaceLifetimeNtNtNtCsdGrGZaRBwMb_3syn3gen4fold4Fold14fold_pat_identB6_, symObjAddr: 0x4C30, symBinAddr: 0x88A10, symSize: 0x30 }
  - { offset: 0xEA794, size: 0x8, addend: 0x0, symName: __RNvYNtNvCsliPDVd4pfgL_15zerofrom_derive16replace_lifetime15ReplaceLifetimeNtNtNtCsdGrGZaRBwMb_3syn3gen4fold4Fold14fold_pat_parenB6_, symObjAddr: 0x4C60, symBinAddr: 0x88A40, symSize: 0x30 }
  - { offset: 0xEA7DB, size: 0x8, addend: 0x0, symName: __RNvYNtNvCsliPDVd4pfgL_15zerofrom_derive16replace_lifetime15ReplaceLifetimeNtNtNtCsdGrGZaRBwMb_3syn3gen4fold4Fold14fold_pat_sliceB6_, symObjAddr: 0x4C90, symBinAddr: 0x88A70, symSize: 0x30 }
  - { offset: 0xEA822, size: 0x8, addend: 0x0, symName: __RNvYNtNvCsliPDVd4pfgL_15zerofrom_derive16replace_lifetime15ReplaceLifetimeNtNtNtCsdGrGZaRBwMb_3syn3gen4fold4Fold14fold_pat_tupleB6_, symObjAddr: 0x4CC0, symBinAddr: 0x88AA0, symSize: 0x30 }
  - { offset: 0xEA869, size: 0x8, addend: 0x0, symName: __RNvYNtNvCsliPDVd4pfgL_15zerofrom_derive16replace_lifetime15ReplaceLifetimeNtNtNtCsdGrGZaRBwMb_3syn3gen4fold4Fold14fold_signatureB6_, symObjAddr: 0x4CF0, symBinAddr: 0x88AD0, symSize: 0x30 }
  - { offset: 0xEA8B0, size: 0x8, addend: 0x0, symName: __RNvYNtNvCsliPDVd4pfgL_15zerofrom_derive16replace_lifetime15ReplaceLifetimeNtNtNtCsdGrGZaRBwMb_3syn3gen4fold4Fold14fold_type_pathB6_, symObjAddr: 0x4D20, symBinAddr: 0x88B00, symSize: 0x30 }
  - { offset: 0xEA8F7, size: 0x8, addend: 0x0, symName: __RNvYNtNvCsliPDVd4pfgL_15zerofrom_derive16replace_lifetime15ReplaceLifetimeNtNtNtCsdGrGZaRBwMb_3syn3gen4fold4Fold14fold_use_groupB6_, symObjAddr: 0x4D50, symBinAddr: 0x88B30, symSize: 0x30 }
  - { offset: 0xEA93E, size: 0x8, addend: 0x0, symName: __RNvYNtNvCsliPDVd4pfgL_15zerofrom_derive16replace_lifetime15ReplaceLifetimeNtNtNtCsdGrGZaRBwMb_3syn3gen4fold4Fold15fold_assoc_typeB6_, symObjAddr: 0x4D80, symBinAddr: 0x88B60, symSize: 0x30 }
  - { offset: 0xEA982, size: 0x8, addend: 0x0, symName: __RNvYNtNvCsliPDVd4pfgL_15zerofrom_derive16replace_lifetime15ReplaceLifetimeNtNtNtCsdGrGZaRBwMb_3syn3gen4fold4Fold15fold_attr_styleB6_, symObjAddr: 0x4DB0, symBinAddr: 0x88B90, symSize: 0x50 }
  - { offset: 0xEA9C5, size: 0x8, addend: 0x0, symName: __RNvYNtNvCsliPDVd4pfgL_15zerofrom_derive16replace_lifetime15ReplaceLifetimeNtNtNtCsdGrGZaRBwMb_3syn3gen4fold4Fold15fold_attributesB6_, symObjAddr: 0x4E00, symBinAddr: 0x88BE0, symSize: 0x40 }
  - { offset: 0xEAA09, size: 0x8, addend: 0x0, symName: __RNvYNtNvCsliPDVd4pfgL_15zerofrom_derive16replace_lifetime15ReplaceLifetimeNtNtNtCsdGrGZaRBwMb_3syn3gen4fold4Fold15fold_constraintB6_, symObjAddr: 0x4E40, symBinAddr: 0x88C20, symSize: 0x30 }
  - { offset: 0xEAA4D, size: 0x8, addend: 0x0, symName: __RNvYNtNvCsliPDVd4pfgL_15zerofrom_derive16replace_lifetime15ReplaceLifetimeNtNtNtCsdGrGZaRBwMb_3syn3gen4fold4Fold15fold_expr_arrayB6_, symObjAddr: 0x4E70, symBinAddr: 0x88C50, symSize: 0x30 }
  - { offset: 0xEAA91, size: 0x8, addend: 0x0, symName: __RNvYNtNvCsliPDVd4pfgL_15zerofrom_derive16replace_lifetime15ReplaceLifetimeNtNtNtCsdGrGZaRBwMb_3syn3gen4fold4Fold15fold_expr_asyncB6_, symObjAddr: 0x4EA0, symBinAddr: 0x88C80, symSize: 0x30 }
  - { offset: 0xEAAD5, size: 0x8, addend: 0x0, symName: __RNvYNtNvCsliPDVd4pfgL_15zerofrom_derive16replace_lifetime15ReplaceLifetimeNtNtNtCsdGrGZaRBwMb_3syn3gen4fold4Fold15fold_expr_awaitB6_, symObjAddr: 0x4ED0, symBinAddr: 0x88CB0, symSize: 0x30 }
  - { offset: 0xEAB19, size: 0x8, addend: 0x0, symName: __RNvYNtNvCsliPDVd4pfgL_15zerofrom_derive16replace_lifetime15ReplaceLifetimeNtNtNtCsdGrGZaRBwMb_3syn3gen4fold4Fold15fold_expr_blockB6_, symObjAddr: 0x4F00, symBinAddr: 0x88CE0, symSize: 0x30 }
  - { offset: 0xEAB5D, size: 0x8, addend: 0x0, symName: __RNvYNtNvCsliPDVd4pfgL_15zerofrom_derive16replace_lifetime15ReplaceLifetimeNtNtNtCsdGrGZaRBwMb_3syn3gen4fold4Fold15fold_expr_breakB6_, symObjAddr: 0x4F30, symBinAddr: 0x88D10, symSize: 0x30 }
  - { offset: 0xEABA1, size: 0x8, addend: 0x0, symName: __RNvYNtNvCsliPDVd4pfgL_15zerofrom_derive16replace_lifetime15ReplaceLifetimeNtNtNtCsdGrGZaRBwMb_3syn3gen4fold4Fold15fold_expr_constB6_, symObjAddr: 0x4F60, symBinAddr: 0x88D40, symSize: 0x30 }
  - { offset: 0xEABE5, size: 0x8, addend: 0x0, symName: __RNvYNtNvCsliPDVd4pfgL_15zerofrom_derive16replace_lifetime15ReplaceLifetimeNtNtNtCsdGrGZaRBwMb_3syn3gen4fold4Fold15fold_expr_fieldB6_, symObjAddr: 0x4F90, symBinAddr: 0x88D70, symSize: 0x30 }
  - { offset: 0xEAC29, size: 0x8, addend: 0x0, symName: __RNvYNtNvCsliPDVd4pfgL_15zerofrom_derive16replace_lifetime15ReplaceLifetimeNtNtNtCsdGrGZaRBwMb_3syn3gen4fold4Fold15fold_expr_groupB6_, symObjAddr: 0x4FC0, symBinAddr: 0x88DA0, symSize: 0x30 }
  - { offset: 0xEAC6D, size: 0x8, addend: 0x0, symName: __RNvYNtNvCsliPDVd4pfgL_15zerofrom_derive16replace_lifetime15ReplaceLifetimeNtNtNtCsdGrGZaRBwMb_3syn3gen4fold4Fold15fold_expr_indexB6_, symObjAddr: 0x4FF0, symBinAddr: 0x88DD0, symSize: 0x30 }
  - { offset: 0xEACB1, size: 0x8, addend: 0x0, symName: __RNvYNtNvCsliPDVd4pfgL_15zerofrom_derive16replace_lifetime15ReplaceLifetimeNtNtNtCsdGrGZaRBwMb_3syn3gen4fold4Fold15fold_expr_inferB6_, symObjAddr: 0x5020, symBinAddr: 0x88E00, symSize: 0x30 }
  - { offset: 0xEACF5, size: 0x8, addend: 0x0, symName: __RNvYNtNvCsliPDVd4pfgL_15zerofrom_derive16replace_lifetime15ReplaceLifetimeNtNtNtCsdGrGZaRBwMb_3syn3gen4fold4Fold15fold_expr_macroB6_, symObjAddr: 0x5050, symBinAddr: 0x88E30, symSize: 0x30 }
  - { offset: 0xEAD39, size: 0x8, addend: 0x0, symName: __RNvYNtNvCsliPDVd4pfgL_15zerofrom_derive16replace_lifetime15ReplaceLifetimeNtNtNtCsdGrGZaRBwMb_3syn3gen4fold4Fold15fold_expr_matchB6_, symObjAddr: 0x5080, symBinAddr: 0x88E60, symSize: 0x30 }
  - { offset: 0xEAD80, size: 0x8, addend: 0x0, symName: __RNvYNtNvCsliPDVd4pfgL_15zerofrom_derive16replace_lifetime15ReplaceLifetimeNtNtNtCsdGrGZaRBwMb_3syn3gen4fold4Fold15fold_expr_parenB6_, symObjAddr: 0x50B0, symBinAddr: 0x88E90, symSize: 0x30 }
  - { offset: 0xEADC7, size: 0x8, addend: 0x0, symName: __RNvYNtNvCsliPDVd4pfgL_15zerofrom_derive16replace_lifetime15ReplaceLifetimeNtNtNtCsdGrGZaRBwMb_3syn3gen4fold4Fold15fold_expr_rangeB6_, symObjAddr: 0x50E0, symBinAddr: 0x88EC0, symSize: 0x30 }
  - { offset: 0xEAE0E, size: 0x8, addend: 0x0, symName: __RNvYNtNvCsliPDVd4pfgL_15zerofrom_derive16replace_lifetime15ReplaceLifetimeNtNtNtCsdGrGZaRBwMb_3syn3gen4fold4Fold15fold_expr_tupleB6_, symObjAddr: 0x5110, symBinAddr: 0x88EF0, symSize: 0x30 }
  - { offset: 0xEAE55, size: 0x8, addend: 0x0, symName: __RNvYNtNvCsliPDVd4pfgL_15zerofrom_derive16replace_lifetime15ReplaceLifetimeNtNtNtCsdGrGZaRBwMb_3syn3gen4fold4Fold15fold_expr_unaryB6_, symObjAddr: 0x5140, symBinAddr: 0x88F20, symSize: 0x30 }
  - { offset: 0xEAE9C, size: 0x8, addend: 0x0, symName: __RNvYNtNvCsliPDVd4pfgL_15zerofrom_derive16replace_lifetime15ReplaceLifetimeNtNtNtCsdGrGZaRBwMb_3syn3gen4fold4Fold15fold_expr_whileB6_, symObjAddr: 0x5170, symBinAddr: 0x88F50, symSize: 0x30 }
  - { offset: 0xEAEE3, size: 0x8, addend: 0x0, symName: __RNvYNtNvCsliPDVd4pfgL_15zerofrom_derive16replace_lifetime15ReplaceLifetimeNtNtNtCsdGrGZaRBwMb_3syn3gen4fold4Fold15fold_expr_yieldB6_, symObjAddr: 0x51A0, symBinAddr: 0x88F80, symSize: 0x30 }
  - { offset: 0xEAF2A, size: 0x8, addend: 0x0, symName: __RNvYNtNvCsliPDVd4pfgL_15zerofrom_derive16replace_lifetime15ReplaceLifetimeNtNtNtCsdGrGZaRBwMb_3syn3gen4fold4Fold15fold_item_constB6_, symObjAddr: 0x51D0, symBinAddr: 0x88FB0, symSize: 0x30 }
  - { offset: 0xEAF71, size: 0x8, addend: 0x0, symName: __RNvYNtNvCsliPDVd4pfgL_15zerofrom_derive16replace_lifetime15ReplaceLifetimeNtNtNtCsdGrGZaRBwMb_3syn3gen4fold4Fold15fold_item_macroB6_, symObjAddr: 0x5200, symBinAddr: 0x88FE0, symSize: 0x30 }
  - { offset: 0xEAFB8, size: 0x8, addend: 0x0, symName: __RNvYNtNvCsliPDVd4pfgL_15zerofrom_derive16replace_lifetime15ReplaceLifetimeNtNtNtCsdGrGZaRBwMb_3syn3gen4fold4Fold15fold_item_traitB6_, symObjAddr: 0x5230, symBinAddr: 0x89010, symSize: 0x30 }
  - { offset: 0xEAFFF, size: 0x8, addend: 0x0, symName: __RNvYNtNvCsliPDVd4pfgL_15zerofrom_derive16replace_lifetime15ReplaceLifetimeNtNtNtCsdGrGZaRBwMb_3syn3gen4fold4Fold15fold_item_unionB6_, symObjAddr: 0x5260, symBinAddr: 0x89040, symSize: 0x30 }
  - { offset: 0xEB046, size: 0x8, addend: 0x0, symName: __RNvYNtNvCsliPDVd4pfgL_15zerofrom_derive16replace_lifetime15ReplaceLifetimeNtNtNtCsdGrGZaRBwMb_3syn3gen4fold4Fold15fold_local_initB6_, symObjAddr: 0x5290, symBinAddr: 0x89070, symSize: 0x30 }
  - { offset: 0xEB08D, size: 0x8, addend: 0x0, symName: __RNvYNtNvCsliPDVd4pfgL_15zerofrom_derive16replace_lifetime15ReplaceLifetimeNtNtNtCsdGrGZaRBwMb_3syn3gen4fold4Fold15fold_pat_structB6_, symObjAddr: 0x52C0, symBinAddr: 0x890A0, symSize: 0x30 }
  - { offset: 0xEB0D4, size: 0x8, addend: 0x0, symName: __RNvYNtNvCsliPDVd4pfgL_15zerofrom_derive16replace_lifetime15ReplaceLifetimeNtNtNtCsdGrGZaRBwMb_3syn3gen4fold4Fold15fold_stmt_macroB6_, symObjAddr: 0x52F0, symBinAddr: 0x890D0, symSize: 0x30 }
  - { offset: 0xEB11B, size: 0x8, addend: 0x0, symName: __RNvYNtNvCsliPDVd4pfgL_15zerofrom_derive16replace_lifetime15ReplaceLifetimeNtNtNtCsdGrGZaRBwMb_3syn3gen4fold4Fold15fold_trait_itemB6_, symObjAddr: 0x5320, symBinAddr: 0x89100, symSize: 0x30 }
  - { offset: 0xEB162, size: 0x8, addend: 0x0, symName: __RNvYNtNvCsliPDVd4pfgL_15zerofrom_derive16replace_lifetime15ReplaceLifetimeNtNtNtCsdGrGZaRBwMb_3syn3gen4fold4Fold15fold_type_arrayB6_, symObjAddr: 0x5350, symBinAddr: 0x89130, symSize: 0x30 }
  - { offset: 0xEB1A9, size: 0x8, addend: 0x0, symName: __RNvYNtNvCsliPDVd4pfgL_15zerofrom_derive16replace_lifetime15ReplaceLifetimeNtNtNtCsdGrGZaRBwMb_3syn3gen4fold4Fold15fold_type_groupB6_, symObjAddr: 0x5380, symBinAddr: 0x89160, symSize: 0x30 }
  - { offset: 0xEB1EF, size: 0x8, addend: 0x0, symName: __RNvYNtNvCsliPDVd4pfgL_15zerofrom_derive16replace_lifetime15ReplaceLifetimeNtNtNtCsdGrGZaRBwMb_3syn3gen4fold4Fold15fold_type_inferB6_, symObjAddr: 0x53B0, symBinAddr: 0x89190, symSize: 0x40 }
  - { offset: 0xEB235, size: 0x8, addend: 0x0, symName: __RNvYNtNvCsliPDVd4pfgL_15zerofrom_derive16replace_lifetime15ReplaceLifetimeNtNtNtCsdGrGZaRBwMb_3syn3gen4fold4Fold15fold_type_macroB6_, symObjAddr: 0x53F0, symBinAddr: 0x891D0, symSize: 0x30 }
  - { offset: 0xEB27C, size: 0x8, addend: 0x0, symName: __RNvYNtNvCsliPDVd4pfgL_15zerofrom_derive16replace_lifetime15ReplaceLifetimeNtNtNtCsdGrGZaRBwMb_3syn3gen4fold4Fold15fold_type_neverB6_, symObjAddr: 0x5420, symBinAddr: 0x89200, symSize: 0x40 }
  - { offset: 0xEB2C2, size: 0x8, addend: 0x0, symName: __RNvYNtNvCsliPDVd4pfgL_15zerofrom_derive16replace_lifetime15ReplaceLifetimeNtNtNtCsdGrGZaRBwMb_3syn3gen4fold4Fold15fold_type_paramB6_, symObjAddr: 0x5460, symBinAddr: 0x89240, symSize: 0x30 }
  - { offset: 0xEB309, size: 0x8, addend: 0x0, symName: __RNvYNtNvCsliPDVd4pfgL_15zerofrom_derive16replace_lifetime15ReplaceLifetimeNtNtNtCsdGrGZaRBwMb_3syn3gen4fold4Fold15fold_type_parenB6_, symObjAddr: 0x5490, symBinAddr: 0x89270, symSize: 0x30 }
  - { offset: 0xEB350, size: 0x8, addend: 0x0, symName: __RNvYNtNvCsliPDVd4pfgL_15zerofrom_derive16replace_lifetime15ReplaceLifetimeNtNtNtCsdGrGZaRBwMb_3syn3gen4fold4Fold15fold_type_sliceB6_, symObjAddr: 0x54C0, symBinAddr: 0x892A0, symSize: 0x30 }
  - { offset: 0xEB397, size: 0x8, addend: 0x0, symName: __RNvYNtNvCsliPDVd4pfgL_15zerofrom_derive16replace_lifetime15ReplaceLifetimeNtNtNtCsdGrGZaRBwMb_3syn3gen4fold4Fold15fold_type_tupleB6_, symObjAddr: 0x54F0, symBinAddr: 0x892D0, symSize: 0x30 }
  - { offset: 0xEB3DE, size: 0x8, addend: 0x0, symName: __RNvYNtNvCsliPDVd4pfgL_15zerofrom_derive16replace_lifetime15ReplaceLifetimeNtNtNtCsdGrGZaRBwMb_3syn3gen4fold4Fold15fold_use_renameB6_, symObjAddr: 0x5520, symBinAddr: 0x89300, symSize: 0x30 }
  - { offset: 0xEB425, size: 0x8, addend: 0x0, symName: __RNvYNtNvCsliPDVd4pfgL_15zerofrom_derive16replace_lifetime15ReplaceLifetimeNtNtNtCsdGrGZaRBwMb_3syn3gen4fold4Fold15fold_visibilityB6_, symObjAddr: 0x5550, symBinAddr: 0x89330, symSize: 0x30 }
  - { offset: 0xEB46C, size: 0x8, addend: 0x0, symName: __RNvYNtNvCsliPDVd4pfgL_15zerofrom_derive16replace_lifetime15ReplaceLifetimeNtNtNtCsdGrGZaRBwMb_3syn3gen4fold4Fold16fold_assoc_constB6_, symObjAddr: 0x5580, symBinAddr: 0x89360, symSize: 0x30 }
  - { offset: 0xEB4B0, size: 0x8, addend: 0x0, symName: __RNvYNtNvCsliPDVd4pfgL_15zerofrom_derive16replace_lifetime15ReplaceLifetimeNtNtNtCsdGrGZaRBwMb_3syn3gen4fold4Fold16fold_bare_fn_argB6_, symObjAddr: 0x55B0, symBinAddr: 0x89390, symSize: 0x30 }
  - { offset: 0xEB4F4, size: 0x8, addend: 0x0, symName: __RNvYNtNvCsliPDVd4pfgL_15zerofrom_derive16replace_lifetime15ReplaceLifetimeNtNtNtCsdGrGZaRBwMb_3syn3gen4fold4Fold16fold_const_paramB6_, symObjAddr: 0x55E0, symBinAddr: 0x893C0, symSize: 0x30 }
  - { offset: 0xEB538, size: 0x8, addend: 0x0, symName: __RNvYNtNvCsliPDVd4pfgL_15zerofrom_derive16replace_lifetime15ReplaceLifetimeNtNtNtCsdGrGZaRBwMb_3syn3gen4fold4Fold16fold_expr_assignB6_, symObjAddr: 0x5610, symBinAddr: 0x893F0, symSize: 0x30 }
  - { offset: 0xEB57C, size: 0x8, addend: 0x0, symName: __RNvYNtNvCsliPDVd4pfgL_15zerofrom_derive16replace_lifetime15ReplaceLifetimeNtNtNtCsdGrGZaRBwMb_3syn3gen4fold4Fold16fold_expr_binaryB6_, symObjAddr: 0x5640, symBinAddr: 0x89420, symSize: 0x30 }
  - { offset: 0xEB5C0, size: 0x8, addend: 0x0, symName: __RNvYNtNvCsliPDVd4pfgL_15zerofrom_derive16replace_lifetime15ReplaceLifetimeNtNtNtCsdGrGZaRBwMb_3syn3gen4fold4Fold16fold_expr_repeatB6_, symObjAddr: 0x5670, symBinAddr: 0x89450, symSize: 0x30 }
  - { offset: 0xEB607, size: 0x8, addend: 0x0, symName: __RNvYNtNvCsliPDVd4pfgL_15zerofrom_derive16replace_lifetime15ReplaceLifetimeNtNtNtCsdGrGZaRBwMb_3syn3gen4fold4Fold16fold_expr_returnB6_, symObjAddr: 0x56A0, symBinAddr: 0x89480, symSize: 0x30 }
  - { offset: 0xEB64E, size: 0x8, addend: 0x0, symName: __RNvYNtNvCsliPDVd4pfgL_15zerofrom_derive16replace_lifetime15ReplaceLifetimeNtNtNtCsdGrGZaRBwMb_3syn3gen4fold4Fold16fold_expr_structB6_, symObjAddr: 0x56D0, symBinAddr: 0x894B0, symSize: 0x30 }
  - { offset: 0xEB695, size: 0x8, addend: 0x0, symName: __RNvYNtNvCsliPDVd4pfgL_15zerofrom_derive16replace_lifetime15ReplaceLifetimeNtNtNtCsdGrGZaRBwMb_3syn3gen4fold4Fold16fold_expr_unsafeB6_, symObjAddr: 0x5700, symBinAddr: 0x894E0, symSize: 0x30 }
  - { offset: 0xEB6DC, size: 0x8, addend: 0x0, symName: __RNvYNtNvCsliPDVd4pfgL_15zerofrom_derive16replace_lifetime15ReplaceLifetimeNtNtNtCsdGrGZaRBwMb_3syn3gen4fold4Fold16fold_field_valueB6_, symObjAddr: 0x5730, symBinAddr: 0x89510, symSize: 0x30 }
  - { offset: 0xEB723, size: 0x8, addend: 0x0, symName: __RNvYNtNvCsliPDVd4pfgL_15zerofrom_derive16replace_lifetime15ReplaceLifetimeNtNtNtCsdGrGZaRBwMb_3syn3gen4fold4Fold16fold_item_staticB6_, symObjAddr: 0x5760, symBinAddr: 0x89540, symSize: 0x30 }
  - { offset: 0xEB76A, size: 0x8, addend: 0x0, symName: __RNvYNtNvCsliPDVd4pfgL_15zerofrom_derive16replace_lifetime15ReplaceLifetimeNtNtNtCsdGrGZaRBwMb_3syn3gen4fold4Fold16fold_item_structB6_, symObjAddr: 0x5790, symBinAddr: 0x89570, symSize: 0x30 }
  - { offset: 0xEB7B1, size: 0x8, addend: 0x0, symName: __RNvYNtNvCsliPDVd4pfgL_15zerofrom_derive16replace_lifetime15ReplaceLifetimeNtNtNtCsdGrGZaRBwMb_3syn3gen4fold4Fold16fold_return_typeB6_, symObjAddr: 0x57C0, symBinAddr: 0x895A0, symSize: 0x30 }
  - { offset: 0xEB7F8, size: 0x8, addend: 0x0, symName: __RNvYNtNvCsliPDVd4pfgL_15zerofrom_derive16replace_lifetime15ReplaceLifetimeNtNtNtCsdGrGZaRBwMb_3syn3gen4fold4Fold16fold_trait_boundB6_, symObjAddr: 0x57F0, symBinAddr: 0x895D0, symSize: 0x30 }
  - { offset: 0xEB83F, size: 0x8, addend: 0x0, symName: __RNvYNtNvCsliPDVd4pfgL_15zerofrom_derive16replace_lifetime15ReplaceLifetimeNtNtNtCsdGrGZaRBwMb_3syn3gen4fold4Fold17fold_expr_closureB6_, symObjAddr: 0x5820, symBinAddr: 0x89600, symSize: 0x30 }
  - { offset: 0xEB883, size: 0x8, addend: 0x0, symName: __RNvYNtNvCsliPDVd4pfgL_15zerofrom_derive16replace_lifetime15ReplaceLifetimeNtNtNtCsdGrGZaRBwMb_3syn3gen4fold4Fold17fold_fields_namedB6_, symObjAddr: 0x5850, symBinAddr: 0x89630, symSize: 0x30 }
  - { offset: 0xEB8CA, size: 0x8, addend: 0x0, symName: __RNvYNtNvCsliPDVd4pfgL_15zerofrom_derive16replace_lifetime15ReplaceLifetimeNtNtNtCsdGrGZaRBwMb_3syn3gen4fold4Fold17fold_foreign_itemB6_, symObjAddr: 0x5880, symBinAddr: 0x89660, symSize: 0x30 }
  - { offset: 0xEB911, size: 0x8, addend: 0x0, symName: __RNvYNtNvCsliPDVd4pfgL_15zerofrom_derive16replace_lifetime15ReplaceLifetimeNtNtNtCsdGrGZaRBwMb_3syn3gen4fold4Fold17fold_impl_item_fnB6_, symObjAddr: 0x58B0, symBinAddr: 0x89690, symSize: 0x30 }
  - { offset: 0xEB958, size: 0x8, addend: 0x0, symName: __RNvYNtNvCsliPDVd4pfgL_15zerofrom_derive16replace_lifetime15ReplaceLifetimeNtNtNtCsdGrGZaRBwMb_3syn3gen4fold4Fold17fold_lit_byte_strB6_, symObjAddr: 0x58E0, symBinAddr: 0x896C0, symSize: 0x30 }
  - { offset: 0xEB99E, size: 0x8, addend: 0x0, symName: __RNvYNtNvCsliPDVd4pfgL_15zerofrom_derive16replace_lifetime15ReplaceLifetimeNtNtNtCsdGrGZaRBwMb_3syn3gen4fold4Fold17fold_path_segmentB6_, symObjAddr: 0x5910, symBinAddr: 0x896F0, symSize: 0x30 }
  - { offset: 0xEB9E5, size: 0x8, addend: 0x0, symName: __RNvYNtNvCsliPDVd4pfgL_15zerofrom_derive16replace_lifetime15ReplaceLifetimeNtNtNtCsdGrGZaRBwMb_3syn3gen4fold4Fold17fold_range_limitsB6_, symObjAddr: 0x5940, symBinAddr: 0x89720, symSize: 0x40 }
  - { offset: 0xEBA2C, size: 0x8, addend: 0x0, symName: __RNvYNtNvCsliPDVd4pfgL_15zerofrom_derive16replace_lifetime15ReplaceLifetimeNtNtNtCsdGrGZaRBwMb_3syn3gen4fold4Fold17fold_token_streamB6_, symObjAddr: 0x5980, symBinAddr: 0x89760, symSize: 0x40 }
  - { offset: 0xEBA72, size: 0x8, addend: 0x0, symName: __RNvYNtNvCsliPDVd4pfgL_15zerofrom_derive16replace_lifetime15ReplaceLifetimeNtNtNtCsdGrGZaRBwMb_3syn3gen4fold4Fold17fold_type_bare_fnB6_, symObjAddr: 0x59C0, symBinAddr: 0x897A0, symSize: 0x30 }
  - { offset: 0xEBAB9, size: 0x8, addend: 0x0, symName: __RNvYNtNvCsliPDVd4pfgL_15zerofrom_derive16replace_lifetime15ReplaceLifetimeNtNtNtCsdGrGZaRBwMb_3syn3gen4fold4Fold17fold_where_clauseB6_, symObjAddr: 0x59F0, symBinAddr: 0x897D0, symSize: 0x30 }
  - { offset: 0xEBB00, size: 0x8, addend: 0x0, symName: __RNvYNtNvCsliPDVd4pfgL_15zerofrom_derive16replace_lifetime15ReplaceLifetimeNtNtNtCsdGrGZaRBwMb_3syn3gen4fold4Fold18fold_bare_variadicB6_, symObjAddr: 0x5A20, symBinAddr: 0x89800, symSize: 0x30 }
  - { offset: 0xEBB44, size: 0x8, addend: 0x0, symName: __RNvYNtNvCsliPDVd4pfgL_15zerofrom_derive16replace_lifetime15ReplaceLifetimeNtNtNtCsdGrGZaRBwMb_3syn3gen4fold4Fold18fold_expr_continueB6_, symObjAddr: 0x5A50, symBinAddr: 0x89830, symSize: 0x30 }
  - { offset: 0xEBB88, size: 0x8, addend: 0x0, symName: __RNvYNtNvCsliPDVd4pfgL_15zerofrom_derive16replace_lifetime15ReplaceLifetimeNtNtNtCsdGrGZaRBwMb_3syn3gen4fold4Fold18fold_expr_for_loopB6_, symObjAddr: 0x5A80, symBinAddr: 0x89860, symSize: 0x30 }
  - { offset: 0xEBBCC, size: 0x8, addend: 0x0, symName: __RNvYNtNvCsliPDVd4pfgL_15zerofrom_derive16replace_lifetime15ReplaceLifetimeNtNtNtCsdGrGZaRBwMb_3syn3gen4fold4Fold18fold_expr_raw_addrB6_, symObjAddr: 0x5AB0, symBinAddr: 0x89890, symSize: 0x30 }
  - { offset: 0xEBC13, size: 0x8, addend: 0x0, symName: __RNvYNtNvCsliPDVd4pfgL_15zerofrom_derive16replace_lifetime15ReplaceLifetimeNtNtNtCsdGrGZaRBwMb_3syn3gen4fold4Fold18fold_generic_paramB6_, symObjAddr: 0x5AE0, symBinAddr: 0x898C0, symSize: 0x30 }
  - { offset: 0xEBC5A, size: 0x8, addend: 0x0, symName: __RNvYNtNvCsliPDVd4pfgL_15zerofrom_derive16replace_lifetime15ReplaceLifetimeNtNtNtCsdGrGZaRBwMb_3syn3gen4fold4Fold18fold_pat_referenceB6_, symObjAddr: 0x5B10, symBinAddr: 0x898F0, symSize: 0x30 }
  - { offset: 0xEBCA1, size: 0x8, addend: 0x0, symName: __RNvYNtNvCsliPDVd4pfgL_15zerofrom_derive16replace_lifetime15ReplaceLifetimeNtNtNtCsdGrGZaRBwMb_3syn3gen4fold4Fold18fold_trait_item_fnB6_, symObjAddr: 0x5B40, symBinAddr: 0x89920, symSize: 0x30 }
  - { offset: 0xEBCE8, size: 0x8, addend: 0x0, symName: __RNvYNtNvCsliPDVd4pfgL_15zerofrom_derive16replace_lifetime15ReplaceLifetimeNtNtNtCsdGrGZaRBwMb_3syn3gen4fold4Fold19fold_captured_paramB6_, symObjAddr: 0x5B70, symBinAddr: 0x89950, symSize: 0x30 }
  - { offset: 0xEBD2C, size: 0x8, addend: 0x0, symName: __RNvYNtNvCsliPDVd4pfgL_15zerofrom_derive16replace_lifetime15ReplaceLifetimeNtNtNtCsdGrGZaRBwMb_3syn3gen4fold4Fold19fold_expr_referenceB6_, symObjAddr: 0x5BA0, symBinAddr: 0x89980, symSize: 0x30 }
  - { offset: 0xEBD73, size: 0x8, addend: 0x0, symName: __RNvYNtNvCsliPDVd4pfgL_15zerofrom_derive16replace_lifetime15ReplaceLifetimeNtNtNtCsdGrGZaRBwMb_3syn3gen4fold4Fold19fold_expr_try_blockB6_, symObjAddr: 0x5BD0, symBinAddr: 0x899B0, symSize: 0x30 }
  - { offset: 0xEBDBA, size: 0x8, addend: 0x0, symName: __RNvYNtNvCsliPDVd4pfgL_15zerofrom_derive16replace_lifetime15ReplaceLifetimeNtNtNtCsdGrGZaRBwMb_3syn3gen4fold4Fold19fold_fields_unnamedB6_, symObjAddr: 0x5C00, symBinAddr: 0x899E0, symSize: 0x30 }
  - { offset: 0xEBE01, size: 0x8, addend: 0x0, symName: __RNvYNtNvCsliPDVd4pfgL_15zerofrom_derive16replace_lifetime15ReplaceLifetimeNtNtNtCsdGrGZaRBwMb_3syn3gen4fold4Fold19fold_impl_item_typeB6_, symObjAddr: 0x5C30, symBinAddr: 0x89A10, symSize: 0x30 }
  - { offset: 0xEBE48, size: 0x8, addend: 0x0, symName: __RNvYNtNvCsliPDVd4pfgL_15zerofrom_derive16replace_lifetime15ReplaceLifetimeNtNtNtCsdGrGZaRBwMb_3syn3gen4fold4Fold19fold_lifetime_paramB6_, symObjAddr: 0x5C60, symBinAddr: 0x89A40, symSize: 0x30 }
  - { offset: 0xEBE8F, size: 0x8, addend: 0x0, symName: __RNvYNtNvCsliPDVd4pfgL_15zerofrom_derive16replace_lifetime15ReplaceLifetimeNtNtNtCsdGrGZaRBwMb_3syn3gen4fold4Fold19fold_path_argumentsB6_, symObjAddr: 0x5C90, symBinAddr: 0x89A70, symSize: 0x30 }
  - { offset: 0xEBED6, size: 0x8, addend: 0x0, symName: __RNvYNtNvCsliPDVd4pfgL_15zerofrom_derive16replace_lifetime15ReplaceLifetimeNtNtNtCsdGrGZaRBwMb_3syn3gen4fold4Fold19fold_predicate_typeB6_, symObjAddr: 0x5CC0, symBinAddr: 0x89AA0, symSize: 0x30 }
  - { offset: 0xEBF1D, size: 0x8, addend: 0x0, symName: __RNvYNtNvCsliPDVd4pfgL_15zerofrom_derive16replace_lifetime15ReplaceLifetimeNtNtNtCsdGrGZaRBwMb_3syn3gen4fold4Fold19fold_type_referenceB6_, symObjAddr: 0x5CF0, symBinAddr: 0x89AD0, symSize: 0x30 }
  - { offset: 0xEBF64, size: 0x8, addend: 0x0, symName: __RNvYNtNvCsliPDVd4pfgL_15zerofrom_derive16replace_lifetime15ReplaceLifetimeNtNtNtCsdGrGZaRBwMb_3syn3gen4fold4Fold19fold_vis_restrictedB6_, symObjAddr: 0x5D20, symBinAddr: 0x89B00, symSize: 0x30 }
  - { offset: 0xEBFAB, size: 0x8, addend: 0x0, symName: __RNvYNtNvCsliPDVd4pfgL_15zerofrom_derive16replace_lifetime15ReplaceLifetimeNtNtNtCsdGrGZaRBwMb_3syn3gen4fold4Fold20fold_bound_lifetimesB6_, symObjAddr: 0x5D50, symBinAddr: 0x89B30, symSize: 0x30 }
  - { offset: 0xEBFEF, size: 0x8, addend: 0x0, symName: __RNvYNtNvCsliPDVd4pfgL_15zerofrom_derive16replace_lifetime15ReplaceLifetimeNtNtNtCsdGrGZaRBwMb_3syn3gen4fold4Fold20fold_foreign_item_fnB6_, symObjAddr: 0x5D80, symBinAddr: 0x89B60, symSize: 0x30 }
  - { offset: 0xEC036, size: 0x8, addend: 0x0, symName: __RNvYNtNvCsliPDVd4pfgL_15zerofrom_derive16replace_lifetime15ReplaceLifetimeNtNtNtCsdGrGZaRBwMb_3syn3gen4fold4Fold20fold_impl_item_constB6_, symObjAddr: 0x5DB0, symBinAddr: 0x89B90, symSize: 0x30 }
  - { offset: 0xEC07D, size: 0x8, addend: 0x0, symName: __RNvYNtNvCsliPDVd4pfgL_15zerofrom_derive16replace_lifetime15ReplaceLifetimeNtNtNtCsdGrGZaRBwMb_3syn3gen4fold4Fold20fold_impl_item_macroB6_, symObjAddr: 0x5DE0, symBinAddr: 0x89BC0, symSize: 0x30 }
  - { offset: 0xEC0C4, size: 0x8, addend: 0x0, symName: __RNvYNtNvCsliPDVd4pfgL_15zerofrom_derive16replace_lifetime15ReplaceLifetimeNtNtNtCsdGrGZaRBwMb_3syn3gen4fold4Fold20fold_macro_delimiterB6_, symObjAddr: 0x5E10, symBinAddr: 0x89BF0, symSize: 0x30 }
  - { offset: 0xEC10B, size: 0x8, addend: 0x0, symName: __RNvYNtNvCsliPDVd4pfgL_15zerofrom_derive16replace_lifetime15ReplaceLifetimeNtNtNtCsdGrGZaRBwMb_3syn3gen4fold4Fold20fold_meta_name_valueB6_, symObjAddr: 0x5E40, symBinAddr: 0x89C20, symSize: 0x30 }
  - { offset: 0xEC152, size: 0x8, addend: 0x0, symName: __RNvYNtNvCsliPDVd4pfgL_15zerofrom_derive16replace_lifetime15ReplaceLifetimeNtNtNtCsdGrGZaRBwMb_3syn3gen4fold4Fold20fold_precise_captureB6_, symObjAddr: 0x5E70, symBinAddr: 0x89C50, symSize: 0x30 }
  - { offset: 0xEC199, size: 0x8, addend: 0x0, symName: __RNvYNtNvCsliPDVd4pfgL_15zerofrom_derive16replace_lifetime15ReplaceLifetimeNtNtNtCsdGrGZaRBwMb_3syn3gen4fold4Fold20fold_trait_item_typeB6_, symObjAddr: 0x5EA0, symBinAddr: 0x89C80, symSize: 0x30 }
  - { offset: 0xEC1E0, size: 0x8, addend: 0x0, symName: __RNvYNtNvCsliPDVd4pfgL_15zerofrom_derive16replace_lifetime15ReplaceLifetimeNtNtNtCsdGrGZaRBwMb_3syn3gen4fold4Fold20fold_type_impl_traitB6_, symObjAddr: 0x5ED0, symBinAddr: 0x89CB0, symSize: 0x30 }
  - { offset: 0xEC227, size: 0x8, addend: 0x0, symName: __RNvYNtNvCsliPDVd4pfgL_15zerofrom_derive16replace_lifetime15ReplaceLifetimeNtNtNtCsdGrGZaRBwMb_3syn3gen4fold4Fold20fold_where_predicateB6_, symObjAddr: 0x5F00, symBinAddr: 0x89CE0, symSize: 0x30 }
  - { offset: 0xEC26E, size: 0x8, addend: 0x0, symName: __RNvYNtNvCsliPDVd4pfgL_15zerofrom_derive16replace_lifetime15ReplaceLifetimeNtNtNtCsdGrGZaRBwMb_3syn3gen4fold4Fold21fold_expr_method_callB6_, symObjAddr: 0x5F30, symBinAddr: 0x89D10, symSize: 0x30 }
  - { offset: 0xEC2B5, size: 0x8, addend: 0x0, symName: __RNvYNtNvCsliPDVd4pfgL_15zerofrom_derive16replace_lifetime15ReplaceLifetimeNtNtNtCsdGrGZaRBwMb_3syn3gen4fold4Fold21fold_field_mutabilityB6_, symObjAddr: 0x5F60, symBinAddr: 0x89D40, symSize: 0x20 }
  - { offset: 0xEC303, size: 0x8, addend: 0x0, symName: __RNvYNtNvCsliPDVd4pfgL_15zerofrom_derive16replace_lifetime15ReplaceLifetimeNtNtNtCsdGrGZaRBwMb_3syn3gen4fold4Fold21fold_generic_argumentB6_, symObjAddr: 0x5F80, symBinAddr: 0x89D60, symSize: 0x30 }
  - { offset: 0xEC34A, size: 0x8, addend: 0x0, symName: __RNvYNtNvCsliPDVd4pfgL_15zerofrom_derive16replace_lifetime15ReplaceLifetimeNtNtNtCsdGrGZaRBwMb_3syn3gen4fold4Fold21fold_item_foreign_modB6_, symObjAddr: 0x5FD0, symBinAddr: 0x89D90, symSize: 0x30 }
  - { offset: 0xEC391, size: 0x8, addend: 0x0, symName: __RNvYNtNvCsliPDVd4pfgL_15zerofrom_derive16replace_lifetime15ReplaceLifetimeNtNtNtCsdGrGZaRBwMb_3syn3gen4fold4Fold21fold_item_trait_aliasB6_, symObjAddr: 0x6000, symBinAddr: 0x89DC0, symSize: 0x30 }
  - { offset: 0xEC3D8, size: 0x8, addend: 0x0, symName: __RNvYNtNvCsliPDVd4pfgL_15zerofrom_derive16replace_lifetime15ReplaceLifetimeNtNtNtCsdGrGZaRBwMb_3syn3gen4fold4Fold21fold_pat_tuple_structB6_, symObjAddr: 0x6030, symBinAddr: 0x89DF0, symSize: 0x30 }
  - { offset: 0xEC41F, size: 0x8, addend: 0x0, symName: __RNvYNtNvCsliPDVd4pfgL_15zerofrom_derive16replace_lifetime15ReplaceLifetimeNtNtNtCsdGrGZaRBwMb_3syn3gen4fold4Fold21fold_trait_item_constB6_, symObjAddr: 0x6060, symBinAddr: 0x89E20, symSize: 0x30 }
  - { offset: 0xEC466, size: 0x8, addend: 0x0, symName: __RNvYNtNvCsliPDVd4pfgL_15zerofrom_derive16replace_lifetime15ReplaceLifetimeNtNtNtCsdGrGZaRBwMb_3syn3gen4fold4Fold21fold_trait_item_macroB6_, symObjAddr: 0x6090, symBinAddr: 0x89E50, symSize: 0x30 }
  - { offset: 0xEC4AD, size: 0x8, addend: 0x0, symName: __RNvYNtNvCsliPDVd4pfgL_15zerofrom_derive16replace_lifetime15ReplaceLifetimeNtNtNtCsdGrGZaRBwMb_3syn3gen4fold4Fold21fold_type_param_boundB6_, symObjAddr: 0x60C0, symBinAddr: 0x89E80, symSize: 0x30 }
  - { offset: 0xEC4F4, size: 0x8, addend: 0x0, symName: __RNvYNtNvCsliPDVd4pfgL_15zerofrom_derive16replace_lifetime15ReplaceLifetimeNtNtNtCsdGrGZaRBwMb_3syn3gen4fold4Fold22fold_foreign_item_typeB6_, symObjAddr: 0x60F0, symBinAddr: 0x89EB0, symSize: 0x30 }
  - { offset: 0xEC53B, size: 0x8, addend: 0x0, symName: __RNvYNtNvCsliPDVd4pfgL_15zerofrom_derive16replace_lifetime15ReplaceLifetimeNtNtNtCsdGrGZaRBwMb_3syn3gen4fold4Fold22fold_item_extern_crateB6_, symObjAddr: 0x6120, symBinAddr: 0x89EE0, symSize: 0x30 }
  - { offset: 0xEC582, size: 0x8, addend: 0x0, symName: __RNvYNtNvCsliPDVd4pfgL_15zerofrom_derive16replace_lifetime15ReplaceLifetimeNtNtNtCsdGrGZaRBwMb_3syn3gen4fold4Fold22fold_static_mutabilityB6_, symObjAddr: 0x6150, symBinAddr: 0x89F10, symSize: 0x30 }
  - { offset: 0xEC5C8, size: 0x8, addend: 0x0, symName: __RNvYNtNvCsliPDVd4pfgL_15zerofrom_derive16replace_lifetime15ReplaceLifetimeNtNtNtCsdGrGZaRBwMb_3syn3gen4fold4Fold22fold_type_trait_objectB6_, symObjAddr: 0x6180, symBinAddr: 0x89F40, symSize: 0x30 }
  - { offset: 0xEC60F, size: 0x8, addend: 0x0, symName: __RNvYNtNvCsliPDVd4pfgL_15zerofrom_derive16replace_lifetime15ReplaceLifetimeNtNtNtCsdGrGZaRBwMb_3syn3gen4fold4Fold23fold_foreign_item_macroB6_, symObjAddr: 0x61B0, symBinAddr: 0x89F70, symSize: 0x30 }
  - { offset: 0xEC656, size: 0x8, addend: 0x0, symName: __RNvYNtNvCsliPDVd4pfgL_15zerofrom_derive16replace_lifetime15ReplaceLifetimeNtNtNtCsdGrGZaRBwMb_3syn3gen4fold4Fold23fold_pointer_mutabilityB6_, symObjAddr: 0x61E0, symBinAddr: 0x89FA0, symSize: 0x30 }
  - { offset: 0xEC69C, size: 0x8, addend: 0x0, symName: __RNvYNtNvCsliPDVd4pfgL_15zerofrom_derive16replace_lifetime15ReplaceLifetimeNtNtNtCsdGrGZaRBwMb_3syn3gen4fold4Fold23fold_predicate_lifetimeB6_, symObjAddr: 0x6210, symBinAddr: 0x89FD0, symSize: 0x30 }
  - { offset: 0xEC6E3, size: 0x8, addend: 0x0, symName: __RNvYNtNvCsliPDVd4pfgL_15zerofrom_derive16replace_lifetime15ReplaceLifetimeNtNtNtCsdGrGZaRBwMb_3syn3gen4fold4Fold24fold_foreign_item_staticB6_, symObjAddr: 0x6240, symBinAddr: 0x8A000, symSize: 0x30 }
  - { offset: 0xEC72A, size: 0x8, addend: 0x0, symName: __RNvYNtNvCsliPDVd4pfgL_15zerofrom_derive16replace_lifetime15ReplaceLifetimeNtNtNtCsdGrGZaRBwMb_3syn3gen4fold4Fold25fold_trait_bound_modifierB6_, symObjAddr: 0x6270, symBinAddr: 0x8A030, symSize: 0x50 }
  - { offset: 0xEC770, size: 0x8, addend: 0x0, symName: __RNvYNtNvCsliPDVd4pfgL_15zerofrom_derive16replace_lifetime15ReplaceLifetimeNtNtNtCsdGrGZaRBwMb_3syn3gen4fold4Fold36fold_parenthesized_generic_argumentsB6_, symObjAddr: 0x62C0, symBinAddr: 0x8A080, symSize: 0x30 }
  - { offset: 0xEC7B7, size: 0x8, addend: 0x0, symName: __RNvYNtNvCsliPDVd4pfgL_15zerofrom_derive16replace_lifetime15ReplaceLifetimeNtNtNtCsdGrGZaRBwMb_3syn3gen4fold4Fold38fold_angle_bracketed_generic_argumentsB6_, symObjAddr: 0x62F0, symBinAddr: 0x8A0B0, symSize: 0x30 }
  - { offset: 0xEC7FB, size: 0x8, addend: 0x0, symName: __RNvYNtNvCsliPDVd4pfgL_15zerofrom_derive16replace_lifetime15ReplaceLifetimeNtNtNtCsdGrGZaRBwMb_3syn3gen4fold4Fold8fold_abiB6_, symObjAddr: 0x6320, symBinAddr: 0x8A0E0, symSize: 0x30 }
  - { offset: 0xEC83E, size: 0x8, addend: 0x0, symName: __RNvYNtNvCsliPDVd4pfgL_15zerofrom_derive16replace_lifetime15ReplaceLifetimeNtNtNtCsdGrGZaRBwMb_3syn3gen4fold4Fold8fold_armB6_, symObjAddr: 0x6350, symBinAddr: 0x8A110, symSize: 0x30 }
  - { offset: 0xEC882, size: 0x8, addend: 0x0, symName: __RNvYNtNvCsliPDVd4pfgL_15zerofrom_derive16replace_lifetime15ReplaceLifetimeNtNtNtCsdGrGZaRBwMb_3syn3gen4fold4Fold8fold_litB6_, symObjAddr: 0x6380, symBinAddr: 0x8A140, symSize: 0x30 }
  - { offset: 0xEC8C9, size: 0x8, addend: 0x0, symName: __RNvYNtNvCsliPDVd4pfgL_15zerofrom_derive16replace_lifetime15ReplaceLifetimeNtNtNtCsdGrGZaRBwMb_3syn3gen4fold4Fold8fold_patB6_, symObjAddr: 0x63B0, symBinAddr: 0x8A170, symSize: 0x30 }
  - { offset: 0xEC910, size: 0x8, addend: 0x0, symName: __RNvYNtNvCsliPDVd4pfgL_15zerofrom_derive16replace_lifetime15ReplaceLifetimeNtNtNtCsdGrGZaRBwMb_3syn3gen4fold4Fold9fold_exprB6_, symObjAddr: 0x63E0, symBinAddr: 0x8A1A0, symSize: 0x30 }
  - { offset: 0xEC954, size: 0x8, addend: 0x0, symName: __RNvYNtNvCsliPDVd4pfgL_15zerofrom_derive16replace_lifetime15ReplaceLifetimeNtNtNtCsdGrGZaRBwMb_3syn3gen4fold4Fold9fold_itemB6_, symObjAddr: 0x6410, symBinAddr: 0x8A1D0, symSize: 0x30 }
  - { offset: 0xEC99B, size: 0x8, addend: 0x0, symName: __RNvYNtNvCsliPDVd4pfgL_15zerofrom_derive16replace_lifetime15ReplaceLifetimeNtNtNtCsdGrGZaRBwMb_3syn3gen4fold4Fold9fold_metaB6_, symObjAddr: 0x6440, symBinAddr: 0x8A200, symSize: 0x30 }
  - { offset: 0xEC9E2, size: 0x8, addend: 0x0, symName: __RNvYNtNvCsliPDVd4pfgL_15zerofrom_derive16replace_lifetime15ReplaceLifetimeNtNtNtCsdGrGZaRBwMb_3syn3gen4fold4Fold9fold_pathB6_, symObjAddr: 0x6470, symBinAddr: 0x8A230, symSize: 0x30 }
  - { offset: 0xECA29, size: 0x8, addend: 0x0, symName: __RNvYNtNvCsliPDVd4pfgL_15zerofrom_derive16replace_lifetime15ReplaceLifetimeNtNtNtCsdGrGZaRBwMb_3syn3gen4fold4Fold9fold_spanB6_, symObjAddr: 0x64A0, symBinAddr: 0x8A260, symSize: 0x20 }
  - { offset: 0xECA6F, size: 0x8, addend: 0x0, symName: __RNvYNtNvCsliPDVd4pfgL_15zerofrom_derive16replace_lifetime15ReplaceLifetimeNtNtNtCsdGrGZaRBwMb_3syn3gen4fold4Fold9fold_stmtB6_, symObjAddr: 0x64C0, symBinAddr: 0x8A280, symSize: 0x30 }
  - { offset: 0xECAB6, size: 0x8, addend: 0x0, symName: __RNvYNtNvCsliPDVd4pfgL_15zerofrom_derive16replace_lifetime15ReplaceLifetimeNtNtNtCsdGrGZaRBwMb_3syn3gen4fold4Fold9fold_typeB6_, symObjAddr: 0x64F0, symBinAddr: 0x8A2B0, symSize: 0x30 }
  - { offset: 0xECAFD, size: 0x8, addend: 0x0, symName: __RNvYNtNvCsliPDVd4pfgL_15zerofrom_derive25replace_lifetime_and_type20ReplaceLifetimeAndTyNtNtNtCsdGrGZaRBwMb_3syn3gen4fold4Fold10fold_blockB6_, symObjAddr: 0x6520, symBinAddr: 0x8A2E0, symSize: 0x30 }
  - { offset: 0xECB41, size: 0x8, addend: 0x0, symName: __RNvYNtNvCsliPDVd4pfgL_15zerofrom_derive25replace_lifetime_and_type20ReplaceLifetimeAndTyNtNtNtCsdGrGZaRBwMb_3syn3gen4fold4Fold10fold_fieldB6_, symObjAddr: 0x6550, symBinAddr: 0x8A310, symSize: 0x30 }
  - { offset: 0xECB88, size: 0x8, addend: 0x0, symName: __RNvYNtNvCsliPDVd4pfgL_15zerofrom_derive25replace_lifetime_and_type20ReplaceLifetimeAndTyNtNtNtCsdGrGZaRBwMb_3syn3gen4fold4Fold10fold_identB6_, symObjAddr: 0x6580, symBinAddr: 0x8A340, symSize: 0x30 }
  - { offset: 0xECBCF, size: 0x8, addend: 0x0, symName: __RNvYNtNvCsliPDVd4pfgL_15zerofrom_derive25replace_lifetime_and_type20ReplaceLifetimeAndTyNtNtNtCsdGrGZaRBwMb_3syn3gen4fold4Fold10fold_indexB6_, symObjAddr: 0x65B0, symBinAddr: 0x8A370, symSize: 0x30 }
  - { offset: 0xECC15, size: 0x8, addend: 0x0, symName: __RNvYNtNvCsliPDVd4pfgL_15zerofrom_derive25replace_lifetime_and_type20ReplaceLifetimeAndTyNtNtNtCsdGrGZaRBwMb_3syn3gen4fold4Fold10fold_labelB6_, symObjAddr: 0x65E0, symBinAddr: 0x8A3A0, symSize: 0x30 }
  - { offset: 0xECC5C, size: 0x8, addend: 0x0, symName: __RNvYNtNvCsliPDVd4pfgL_15zerofrom_derive25replace_lifetime_and_type20ReplaceLifetimeAndTyNtNtNtCsdGrGZaRBwMb_3syn3gen4fold4Fold10fold_localB6_, symObjAddr: 0x6610, symBinAddr: 0x8A3D0, symSize: 0x30 }
  - { offset: 0xECCA3, size: 0x8, addend: 0x0, symName: __RNvYNtNvCsliPDVd4pfgL_15zerofrom_derive25replace_lifetime_and_type20ReplaceLifetimeAndTyNtNtNtCsdGrGZaRBwMb_3syn3gen4fold4Fold10fold_macroB6_, symObjAddr: 0x6640, symBinAddr: 0x8A400, symSize: 0x30 }
  - { offset: 0xECCEA, size: 0x8, addend: 0x0, symName: __RNvYNtNvCsliPDVd4pfgL_15zerofrom_derive25replace_lifetime_and_type20ReplaceLifetimeAndTyNtNtNtCsdGrGZaRBwMb_3syn3gen4fold4Fold10fold_qselfB6_, symObjAddr: 0x6670, symBinAddr: 0x8A430, symSize: 0x30 }
  - { offset: 0xECD31, size: 0x8, addend: 0x0, symName: __RNvYNtNvCsliPDVd4pfgL_15zerofrom_derive25replace_lifetime_and_type20ReplaceLifetimeAndTyNtNtNtCsdGrGZaRBwMb_3syn3gen4fold4Fold10fold_un_opB6_, symObjAddr: 0x66A0, symBinAddr: 0x8A460, symSize: 0x50 }
  - { offset: 0xECD77, size: 0x8, addend: 0x0, symName: __RNvYNtNvCsliPDVd4pfgL_15zerofrom_derive25replace_lifetime_and_type20ReplaceLifetimeAndTyNtNtNtCsdGrGZaRBwMb_3syn3gen4fold4Fold11fold_bin_opB6_, symObjAddr: 0x66F0, symBinAddr: 0x8A4B0, symSize: 0x40 }
  - { offset: 0xECDBB, size: 0x8, addend: 0x0, symName: __RNvYNtNvCsliPDVd4pfgL_15zerofrom_derive25replace_lifetime_and_type20ReplaceLifetimeAndTyNtNtNtCsdGrGZaRBwMb_3syn3gen4fold4Fold11fold_fieldsB6_, symObjAddr: 0x6730, symBinAddr: 0x8A4F0, symSize: 0x30 }
  - { offset: 0xECE02, size: 0x8, addend: 0x0, symName: __RNvYNtNvCsliPDVd4pfgL_15zerofrom_derive25replace_lifetime_and_type20ReplaceLifetimeAndTyNtNtNtCsdGrGZaRBwMb_3syn3gen4fold4Fold11fold_fn_argB6_, symObjAddr: 0x6760, symBinAddr: 0x8A520, symSize: 0x30 }
  - { offset: 0xECE49, size: 0x8, addend: 0x0, symName: __RNvYNtNvCsliPDVd4pfgL_15zerofrom_derive25replace_lifetime_and_type20ReplaceLifetimeAndTyNtNtNtCsdGrGZaRBwMb_3syn3gen4fold4Fold11fold_memberB6_, symObjAddr: 0x6790, symBinAddr: 0x8A550, symSize: 0x30 }
  - { offset: 0xECE90, size: 0x8, addend: 0x0, symName: __RNvYNtNvCsliPDVd4pfgL_15zerofrom_derive25replace_lifetime_and_type20ReplaceLifetimeAndTyNtNtNtCsdGrGZaRBwMb_3syn3gen4fold4Fold11fold_pat_orB6_, symObjAddr: 0x67C0, symBinAddr: 0x8A580, symSize: 0x30 }
  - { offset: 0xECED7, size: 0x8, addend: 0x0, symName: __RNvYNtNvCsliPDVd4pfgL_15zerofrom_derive25replace_lifetime_and_type20ReplaceLifetimeAndTyNtNtNtCsdGrGZaRBwMb_3syn3gen4fold4Fold12fold_expr_ifB6_, symObjAddr: 0x67F0, symBinAddr: 0x8A5B0, symSize: 0x30 }
  - { offset: 0xECF1B, size: 0x8, addend: 0x0, symName: __RNvYNtNvCsliPDVd4pfgL_15zerofrom_derive25replace_lifetime_and_type20ReplaceLifetimeAndTyNtNtNtCsdGrGZaRBwMb_3syn3gen4fold4Fold12fold_item_fnB6_, symObjAddr: 0x6820, symBinAddr: 0x8A5E0, symSize: 0x30 }
  - { offset: 0xECF62, size: 0x8, addend: 0x0, symName: __RNvYNtNvCsliPDVd4pfgL_15zerofrom_derive25replace_lifetime_and_type20ReplaceLifetimeAndTyNtNtNtCsdGrGZaRBwMb_3syn3gen4fold4Fold12fold_lit_intB6_, symObjAddr: 0x6850, symBinAddr: 0x8A610, symSize: 0x30 }
  - { offset: 0xECFA8, size: 0x8, addend: 0x0, symName: __RNvYNtNvCsliPDVd4pfgL_15zerofrom_derive25replace_lifetime_and_type20ReplaceLifetimeAndTyNtNtNtCsdGrGZaRBwMb_3syn3gen4fold4Fold12fold_lit_strB6_, symObjAddr: 0x6880, symBinAddr: 0x8A640, symSize: 0x30 }
  - { offset: 0xECFEE, size: 0x8, addend: 0x0, symName: __RNvYNtNvCsliPDVd4pfgL_15zerofrom_derive25replace_lifetime_and_type20ReplaceLifetimeAndTyNtNtNtCsdGrGZaRBwMb_3syn3gen4fold4Fold12fold_variantB6_, symObjAddr: 0x68B0, symBinAddr: 0x8A670, symSize: 0x30 }
  - { offset: 0xED035, size: 0x8, addend: 0x0, symName: __RNvYNtNvCsliPDVd4pfgL_15zerofrom_derive25replace_lifetime_and_type20ReplaceLifetimeAndTyNtNtNtCsdGrGZaRBwMb_3syn3gen4fold4Fold13fold_expr_letB6_, symObjAddr: 0x68E0, symBinAddr: 0x8A6A0, symSize: 0x30 }
  - { offset: 0xED079, size: 0x8, addend: 0x0, symName: __RNvYNtNvCsliPDVd4pfgL_15zerofrom_derive25replace_lifetime_and_type20ReplaceLifetimeAndTyNtNtNtCsdGrGZaRBwMb_3syn3gen4fold4Fold13fold_expr_litB6_, symObjAddr: 0x6910, symBinAddr: 0x8A6D0, symSize: 0x30 }
  - { offset: 0xED0BD, size: 0x8, addend: 0x0, symName: __RNvYNtNvCsliPDVd4pfgL_15zerofrom_derive25replace_lifetime_and_type20ReplaceLifetimeAndTyNtNtNtCsdGrGZaRBwMb_3syn3gen4fold4Fold13fold_expr_tryB6_, symObjAddr: 0x6940, symBinAddr: 0x8A700, symSize: 0x30 }
  - { offset: 0xED104, size: 0x8, addend: 0x0, symName: __RNvYNtNvCsliPDVd4pfgL_15zerofrom_derive25replace_lifetime_and_type20ReplaceLifetimeAndTyNtNtNtCsdGrGZaRBwMb_3syn3gen4fold4Fold13fold_genericsB6_, symObjAddr: 0x6970, symBinAddr: 0x8A730, symSize: 0x30 }
  - { offset: 0xED14B, size: 0x8, addend: 0x0, symName: __RNvYNtNvCsliPDVd4pfgL_15zerofrom_derive25replace_lifetime_and_type20ReplaceLifetimeAndTyNtNtNtCsdGrGZaRBwMb_3syn3gen4fold4Fold13fold_item_modB6_, symObjAddr: 0x69A0, symBinAddr: 0x8A760, symSize: 0x30 }
  - { offset: 0xED192, size: 0x8, addend: 0x0, symName: __RNvYNtNvCsliPDVd4pfgL_15zerofrom_derive25replace_lifetime_and_type20ReplaceLifetimeAndTyNtNtNtCsdGrGZaRBwMb_3syn3gen4fold4Fold13fold_item_useB6_, symObjAddr: 0x69D0, symBinAddr: 0x8A790, symSize: 0x30 }
  - { offset: 0xED1D9, size: 0x8, addend: 0x0, symName: __RNvYNtNvCsliPDVd4pfgL_15zerofrom_derive25replace_lifetime_and_type20ReplaceLifetimeAndTyNtNtNtCsdGrGZaRBwMb_3syn3gen4fold4Fold13fold_lit_boolB6_, symObjAddr: 0x6A00, symBinAddr: 0x8A7C0, symSize: 0x40 }
  - { offset: 0xED21F, size: 0x8, addend: 0x0, symName: __RNvYNtNvCsliPDVd4pfgL_15zerofrom_derive25replace_lifetime_and_type20ReplaceLifetimeAndTyNtNtNtCsdGrGZaRBwMb_3syn3gen4fold4Fold13fold_lit_byteB6_, symObjAddr: 0x6A40, symBinAddr: 0x8A800, symSize: 0x30 }
  - { offset: 0xED265, size: 0x8, addend: 0x0, symName: __RNvYNtNvCsliPDVd4pfgL_15zerofrom_derive25replace_lifetime_and_type20ReplaceLifetimeAndTyNtNtNtCsdGrGZaRBwMb_3syn3gen4fold4Fold13fold_lit_charB6_, symObjAddr: 0x6A70, symBinAddr: 0x8A830, symSize: 0x30 }
  - { offset: 0xED2AB, size: 0x8, addend: 0x0, symName: __RNvYNtNvCsliPDVd4pfgL_15zerofrom_derive25replace_lifetime_and_type20ReplaceLifetimeAndTyNtNtNtCsdGrGZaRBwMb_3syn3gen4fold4Fold13fold_lit_cstrB6_, symObjAddr: 0x6AA0, symBinAddr: 0x8A860, symSize: 0x30 }
  - { offset: 0xED2F1, size: 0x8, addend: 0x0, symName: __RNvYNtNvCsliPDVd4pfgL_15zerofrom_derive25replace_lifetime_and_type20ReplaceLifetimeAndTyNtNtNtCsdGrGZaRBwMb_3syn3gen4fold4Fold13fold_pat_restB6_, symObjAddr: 0x6AD0, symBinAddr: 0x8A890, symSize: 0x30 }
  - { offset: 0xED338, size: 0x8, addend: 0x0, symName: __RNvYNtNvCsliPDVd4pfgL_15zerofrom_derive25replace_lifetime_and_type20ReplaceLifetimeAndTyNtNtNtCsdGrGZaRBwMb_3syn3gen4fold4Fold13fold_pat_typeB6_, symObjAddr: 0x6B00, symBinAddr: 0x8A8C0, symSize: 0x30 }
  - { offset: 0xED37F, size: 0x8, addend: 0x0, symName: __RNvYNtNvCsliPDVd4pfgL_15zerofrom_derive25replace_lifetime_and_type20ReplaceLifetimeAndTyNtNtNtCsdGrGZaRBwMb_3syn3gen4fold4Fold13fold_pat_wildB6_, symObjAddr: 0x6B30, symBinAddr: 0x8A8F0, symSize: 0x30 }
  - { offset: 0xED3C6, size: 0x8, addend: 0x0, symName: __RNvYNtNvCsliPDVd4pfgL_15zerofrom_derive25replace_lifetime_and_type20ReplaceLifetimeAndTyNtNtNtCsdGrGZaRBwMb_3syn3gen4fold4Fold13fold_receiverB6_, symObjAddr: 0x6B60, symBinAddr: 0x8A920, symSize: 0x30 }
  - { offset: 0xED40D, size: 0x8, addend: 0x0, symName: __RNvYNtNvCsliPDVd4pfgL_15zerofrom_derive25replace_lifetime_and_type20ReplaceLifetimeAndTyNtNtNtCsdGrGZaRBwMb_3syn3gen4fold4Fold13fold_type_ptrB6_, symObjAddr: 0x6B90, symBinAddr: 0x8A950, symSize: 0x30 }
  - { offset: 0xED454, size: 0x8, addend: 0x0, symName: __RNvYNtNvCsliPDVd4pfgL_15zerofrom_derive25replace_lifetime_and_type20ReplaceLifetimeAndTyNtNtNtCsdGrGZaRBwMb_3syn3gen4fold4Fold13fold_use_globB6_, symObjAddr: 0x6BC0, symBinAddr: 0x8A980, symSize: 0x40 }
  - { offset: 0xED49A, size: 0x8, addend: 0x0, symName: __RNvYNtNvCsliPDVd4pfgL_15zerofrom_derive25replace_lifetime_and_type20ReplaceLifetimeAndTyNtNtNtCsdGrGZaRBwMb_3syn3gen4fold4Fold13fold_use_nameB6_, symObjAddr: 0x6C00, symBinAddr: 0x8A9C0, symSize: 0x30 }
  - { offset: 0xED4E1, size: 0x8, addend: 0x0, symName: __RNvYNtNvCsliPDVd4pfgL_15zerofrom_derive25replace_lifetime_and_type20ReplaceLifetimeAndTyNtNtNtCsdGrGZaRBwMb_3syn3gen4fold4Fold13fold_use_pathB6_, symObjAddr: 0x6C30, symBinAddr: 0x8A9F0, symSize: 0x30 }
  - { offset: 0xED528, size: 0x8, addend: 0x0, symName: __RNvYNtNvCsliPDVd4pfgL_15zerofrom_derive25replace_lifetime_and_type20ReplaceLifetimeAndTyNtNtNtCsdGrGZaRBwMb_3syn3gen4fold4Fold13fold_use_treeB6_, symObjAddr: 0x6C60, symBinAddr: 0x8AA20, symSize: 0x30 }
  - { offset: 0xED56F, size: 0x8, addend: 0x0, symName: __RNvYNtNvCsliPDVd4pfgL_15zerofrom_derive25replace_lifetime_and_type20ReplaceLifetimeAndTyNtNtNtCsdGrGZaRBwMb_3syn3gen4fold4Fold13fold_variadicB6_, symObjAddr: 0x6C90, symBinAddr: 0x8AA50, symSize: 0x30 }
  - { offset: 0xED5B6, size: 0x8, addend: 0x0, symName: __RNvYNtNvCsliPDVd4pfgL_15zerofrom_derive25replace_lifetime_and_type20ReplaceLifetimeAndTyNtNtNtCsdGrGZaRBwMb_3syn3gen4fold4Fold14fold_attributeB6_, symObjAddr: 0x6CC0, symBinAddr: 0x8AA80, symSize: 0x30 }
  - { offset: 0xED5FA, size: 0x8, addend: 0x0, symName: __RNvYNtNvCsliPDVd4pfgL_15zerofrom_derive25replace_lifetime_and_type20ReplaceLifetimeAndTyNtNtNtCsdGrGZaRBwMb_3syn3gen4fold4Fold14fold_expr_callB6_, symObjAddr: 0x6CF0, symBinAddr: 0x8AAB0, symSize: 0x30 }
  - { offset: 0xED63E, size: 0x8, addend: 0x0, symName: __RNvYNtNvCsliPDVd4pfgL_15zerofrom_derive25replace_lifetime_and_type20ReplaceLifetimeAndTyNtNtNtCsdGrGZaRBwMb_3syn3gen4fold4Fold14fold_expr_castB6_, symObjAddr: 0x6D20, symBinAddr: 0x8AAE0, symSize: 0x30 }
  - { offset: 0xED682, size: 0x8, addend: 0x0, symName: __RNvYNtNvCsliPDVd4pfgL_15zerofrom_derive25replace_lifetime_and_type20ReplaceLifetimeAndTyNtNtNtCsdGrGZaRBwMb_3syn3gen4fold4Fold14fold_expr_loopB6_, symObjAddr: 0x6D50, symBinAddr: 0x8AB10, symSize: 0x30 }
  - { offset: 0xED6C6, size: 0x8, addend: 0x0, symName: __RNvYNtNvCsliPDVd4pfgL_15zerofrom_derive25replace_lifetime_and_type20ReplaceLifetimeAndTyNtNtNtCsdGrGZaRBwMb_3syn3gen4fold4Fold14fold_expr_pathB6_, symObjAddr: 0x6D80, symBinAddr: 0x8AB40, symSize: 0x30 }
  - { offset: 0xED70D, size: 0x8, addend: 0x0, symName: __RNvYNtNvCsliPDVd4pfgL_15zerofrom_derive25replace_lifetime_and_type20ReplaceLifetimeAndTyNtNtNtCsdGrGZaRBwMb_3syn3gen4fold4Fold14fold_field_patB6_, symObjAddr: 0x6DB0, symBinAddr: 0x8AB70, symSize: 0x30 }
  - { offset: 0xED754, size: 0x8, addend: 0x0, symName: __RNvYNtNvCsliPDVd4pfgL_15zerofrom_derive25replace_lifetime_and_type20ReplaceLifetimeAndTyNtNtNtCsdGrGZaRBwMb_3syn3gen4fold4Fold14fold_impl_itemB6_, symObjAddr: 0x6DE0, symBinAddr: 0x8ABA0, symSize: 0x30 }
  - { offset: 0xED79B, size: 0x8, addend: 0x0, symName: __RNvYNtNvCsliPDVd4pfgL_15zerofrom_derive25replace_lifetime_and_type20ReplaceLifetimeAndTyNtNtNtCsdGrGZaRBwMb_3syn3gen4fold4Fold14fold_item_enumB6_, symObjAddr: 0x6E10, symBinAddr: 0x8ABD0, symSize: 0x30 }
  - { offset: 0xED7E2, size: 0x8, addend: 0x0, symName: __RNvYNtNvCsliPDVd4pfgL_15zerofrom_derive25replace_lifetime_and_type20ReplaceLifetimeAndTyNtNtNtCsdGrGZaRBwMb_3syn3gen4fold4Fold14fold_item_implB6_, symObjAddr: 0x6E40, symBinAddr: 0x8AC00, symSize: 0x30 }
  - { offset: 0xED829, size: 0x8, addend: 0x0, symName: __RNvYNtNvCsliPDVd4pfgL_15zerofrom_derive25replace_lifetime_and_type20ReplaceLifetimeAndTyNtNtNtCsdGrGZaRBwMb_3syn3gen4fold4Fold14fold_item_typeB6_, symObjAddr: 0x6E70, symBinAddr: 0x8AC30, symSize: 0x30 }
  - { offset: 0xED870, size: 0x8, addend: 0x0, symName: __RNvYNtNvCsliPDVd4pfgL_15zerofrom_derive25replace_lifetime_and_type20ReplaceLifetimeAndTyNtNtNtCsdGrGZaRBwMb_3syn3gen4fold4Fold14fold_lit_floatB6_, symObjAddr: 0x6EA0, symBinAddr: 0x8AC60, symSize: 0x30 }
  - { offset: 0xED8B6, size: 0x8, addend: 0x0, symName: __RNvYNtNvCsliPDVd4pfgL_15zerofrom_derive25replace_lifetime_and_type20ReplaceLifetimeAndTyNtNtNtCsdGrGZaRBwMb_3syn3gen4fold4Fold14fold_meta_listB6_, symObjAddr: 0x6ED0, symBinAddr: 0x8AC90, symSize: 0x30 }
  - { offset: 0xED8FD, size: 0x8, addend: 0x0, symName: __RNvYNtNvCsliPDVd4pfgL_15zerofrom_derive25replace_lifetime_and_type20ReplaceLifetimeAndTyNtNtNtCsdGrGZaRBwMb_3syn3gen4fold4Fold14fold_pat_identB6_, symObjAddr: 0x6F00, symBinAddr: 0x8ACC0, symSize: 0x30 }
  - { offset: 0xED944, size: 0x8, addend: 0x0, symName: __RNvYNtNvCsliPDVd4pfgL_15zerofrom_derive25replace_lifetime_and_type20ReplaceLifetimeAndTyNtNtNtCsdGrGZaRBwMb_3syn3gen4fold4Fold14fold_pat_parenB6_, symObjAddr: 0x6F30, symBinAddr: 0x8ACF0, symSize: 0x30 }
  - { offset: 0xED98B, size: 0x8, addend: 0x0, symName: __RNvYNtNvCsliPDVd4pfgL_15zerofrom_derive25replace_lifetime_and_type20ReplaceLifetimeAndTyNtNtNtCsdGrGZaRBwMb_3syn3gen4fold4Fold14fold_pat_sliceB6_, symObjAddr: 0x6F60, symBinAddr: 0x8AD20, symSize: 0x30 }
  - { offset: 0xED9D2, size: 0x8, addend: 0x0, symName: __RNvYNtNvCsliPDVd4pfgL_15zerofrom_derive25replace_lifetime_and_type20ReplaceLifetimeAndTyNtNtNtCsdGrGZaRBwMb_3syn3gen4fold4Fold14fold_pat_tupleB6_, symObjAddr: 0x6F90, symBinAddr: 0x8AD50, symSize: 0x30 }
  - { offset: 0xEDA19, size: 0x8, addend: 0x0, symName: __RNvYNtNvCsliPDVd4pfgL_15zerofrom_derive25replace_lifetime_and_type20ReplaceLifetimeAndTyNtNtNtCsdGrGZaRBwMb_3syn3gen4fold4Fold14fold_signatureB6_, symObjAddr: 0x6FC0, symBinAddr: 0x8AD80, symSize: 0x30 }
  - { offset: 0xEDA60, size: 0x8, addend: 0x0, symName: __RNvYNtNvCsliPDVd4pfgL_15zerofrom_derive25replace_lifetime_and_type20ReplaceLifetimeAndTyNtNtNtCsdGrGZaRBwMb_3syn3gen4fold4Fold14fold_use_groupB6_, symObjAddr: 0x6FF0, symBinAddr: 0x8ADB0, symSize: 0x30 }
  - { offset: 0xEDAA7, size: 0x8, addend: 0x0, symName: __RNvYNtNvCsliPDVd4pfgL_15zerofrom_derive25replace_lifetime_and_type20ReplaceLifetimeAndTyNtNtNtCsdGrGZaRBwMb_3syn3gen4fold4Fold15fold_assoc_typeB6_, symObjAddr: 0x7020, symBinAddr: 0x8ADE0, symSize: 0x30 }
  - { offset: 0xEDAEB, size: 0x8, addend: 0x0, symName: __RNvYNtNvCsliPDVd4pfgL_15zerofrom_derive25replace_lifetime_and_type20ReplaceLifetimeAndTyNtNtNtCsdGrGZaRBwMb_3syn3gen4fold4Fold15fold_attr_styleB6_, symObjAddr: 0x7050, symBinAddr: 0x8AE10, symSize: 0x50 }
  - { offset: 0xEDB2E, size: 0x8, addend: 0x0, symName: __RNvYNtNvCsliPDVd4pfgL_15zerofrom_derive25replace_lifetime_and_type20ReplaceLifetimeAndTyNtNtNtCsdGrGZaRBwMb_3syn3gen4fold4Fold15fold_attributesB6_, symObjAddr: 0x70A0, symBinAddr: 0x8AE60, symSize: 0x40 }
  - { offset: 0xEDB72, size: 0x8, addend: 0x0, symName: __RNvYNtNvCsliPDVd4pfgL_15zerofrom_derive25replace_lifetime_and_type20ReplaceLifetimeAndTyNtNtNtCsdGrGZaRBwMb_3syn3gen4fold4Fold15fold_constraintB6_, symObjAddr: 0x70E0, symBinAddr: 0x8AEA0, symSize: 0x30 }
  - { offset: 0xEDBB6, size: 0x8, addend: 0x0, symName: __RNvYNtNvCsliPDVd4pfgL_15zerofrom_derive25replace_lifetime_and_type20ReplaceLifetimeAndTyNtNtNtCsdGrGZaRBwMb_3syn3gen4fold4Fold15fold_expr_arrayB6_, symObjAddr: 0x7110, symBinAddr: 0x8AED0, symSize: 0x30 }
  - { offset: 0xEDBFA, size: 0x8, addend: 0x0, symName: __RNvYNtNvCsliPDVd4pfgL_15zerofrom_derive25replace_lifetime_and_type20ReplaceLifetimeAndTyNtNtNtCsdGrGZaRBwMb_3syn3gen4fold4Fold15fold_expr_asyncB6_, symObjAddr: 0x7140, symBinAddr: 0x8AF00, symSize: 0x30 }
  - { offset: 0xEDC3E, size: 0x8, addend: 0x0, symName: __RNvYNtNvCsliPDVd4pfgL_15zerofrom_derive25replace_lifetime_and_type20ReplaceLifetimeAndTyNtNtNtCsdGrGZaRBwMb_3syn3gen4fold4Fold15fold_expr_awaitB6_, symObjAddr: 0x7170, symBinAddr: 0x8AF30, symSize: 0x30 }
  - { offset: 0xEDC82, size: 0x8, addend: 0x0, symName: __RNvYNtNvCsliPDVd4pfgL_15zerofrom_derive25replace_lifetime_and_type20ReplaceLifetimeAndTyNtNtNtCsdGrGZaRBwMb_3syn3gen4fold4Fold15fold_expr_blockB6_, symObjAddr: 0x71A0, symBinAddr: 0x8AF60, symSize: 0x30 }
  - { offset: 0xEDCC6, size: 0x8, addend: 0x0, symName: __RNvYNtNvCsliPDVd4pfgL_15zerofrom_derive25replace_lifetime_and_type20ReplaceLifetimeAndTyNtNtNtCsdGrGZaRBwMb_3syn3gen4fold4Fold15fold_expr_breakB6_, symObjAddr: 0x71D0, symBinAddr: 0x8AF90, symSize: 0x30 }
  - { offset: 0xEDD0A, size: 0x8, addend: 0x0, symName: __RNvYNtNvCsliPDVd4pfgL_15zerofrom_derive25replace_lifetime_and_type20ReplaceLifetimeAndTyNtNtNtCsdGrGZaRBwMb_3syn3gen4fold4Fold15fold_expr_constB6_, symObjAddr: 0x7200, symBinAddr: 0x8AFC0, symSize: 0x30 }
  - { offset: 0xEDD4E, size: 0x8, addend: 0x0, symName: __RNvYNtNvCsliPDVd4pfgL_15zerofrom_derive25replace_lifetime_and_type20ReplaceLifetimeAndTyNtNtNtCsdGrGZaRBwMb_3syn3gen4fold4Fold15fold_expr_fieldB6_, symObjAddr: 0x7230, symBinAddr: 0x8AFF0, symSize: 0x30 }
  - { offset: 0xEDD92, size: 0x8, addend: 0x0, symName: __RNvYNtNvCsliPDVd4pfgL_15zerofrom_derive25replace_lifetime_and_type20ReplaceLifetimeAndTyNtNtNtCsdGrGZaRBwMb_3syn3gen4fold4Fold15fold_expr_groupB6_, symObjAddr: 0x7260, symBinAddr: 0x8B020, symSize: 0x30 }
  - { offset: 0xEDDD6, size: 0x8, addend: 0x0, symName: __RNvYNtNvCsliPDVd4pfgL_15zerofrom_derive25replace_lifetime_and_type20ReplaceLifetimeAndTyNtNtNtCsdGrGZaRBwMb_3syn3gen4fold4Fold15fold_expr_indexB6_, symObjAddr: 0x7290, symBinAddr: 0x8B050, symSize: 0x30 }
  - { offset: 0xEDE1A, size: 0x8, addend: 0x0, symName: __RNvYNtNvCsliPDVd4pfgL_15zerofrom_derive25replace_lifetime_and_type20ReplaceLifetimeAndTyNtNtNtCsdGrGZaRBwMb_3syn3gen4fold4Fold15fold_expr_inferB6_, symObjAddr: 0x72C0, symBinAddr: 0x8B080, symSize: 0x30 }
  - { offset: 0xEDE5E, size: 0x8, addend: 0x0, symName: __RNvYNtNvCsliPDVd4pfgL_15zerofrom_derive25replace_lifetime_and_type20ReplaceLifetimeAndTyNtNtNtCsdGrGZaRBwMb_3syn3gen4fold4Fold15fold_expr_macroB6_, symObjAddr: 0x72F0, symBinAddr: 0x8B0B0, symSize: 0x30 }
  - { offset: 0xEDEA2, size: 0x8, addend: 0x0, symName: __RNvYNtNvCsliPDVd4pfgL_15zerofrom_derive25replace_lifetime_and_type20ReplaceLifetimeAndTyNtNtNtCsdGrGZaRBwMb_3syn3gen4fold4Fold15fold_expr_matchB6_, symObjAddr: 0x7320, symBinAddr: 0x8B0E0, symSize: 0x30 }
  - { offset: 0xEDEE9, size: 0x8, addend: 0x0, symName: __RNvYNtNvCsliPDVd4pfgL_15zerofrom_derive25replace_lifetime_and_type20ReplaceLifetimeAndTyNtNtNtCsdGrGZaRBwMb_3syn3gen4fold4Fold15fold_expr_parenB6_, symObjAddr: 0x7350, symBinAddr: 0x8B110, symSize: 0x30 }
  - { offset: 0xEDF30, size: 0x8, addend: 0x0, symName: __RNvYNtNvCsliPDVd4pfgL_15zerofrom_derive25replace_lifetime_and_type20ReplaceLifetimeAndTyNtNtNtCsdGrGZaRBwMb_3syn3gen4fold4Fold15fold_expr_rangeB6_, symObjAddr: 0x7380, symBinAddr: 0x8B140, symSize: 0x30 }
  - { offset: 0xEDF77, size: 0x8, addend: 0x0, symName: __RNvYNtNvCsliPDVd4pfgL_15zerofrom_derive25replace_lifetime_and_type20ReplaceLifetimeAndTyNtNtNtCsdGrGZaRBwMb_3syn3gen4fold4Fold15fold_expr_tupleB6_, symObjAddr: 0x73B0, symBinAddr: 0x8B170, symSize: 0x30 }
  - { offset: 0xEDFBE, size: 0x8, addend: 0x0, symName: __RNvYNtNvCsliPDVd4pfgL_15zerofrom_derive25replace_lifetime_and_type20ReplaceLifetimeAndTyNtNtNtCsdGrGZaRBwMb_3syn3gen4fold4Fold15fold_expr_unaryB6_, symObjAddr: 0x73E0, symBinAddr: 0x8B1A0, symSize: 0x30 }
  - { offset: 0xEE005, size: 0x8, addend: 0x0, symName: __RNvYNtNvCsliPDVd4pfgL_15zerofrom_derive25replace_lifetime_and_type20ReplaceLifetimeAndTyNtNtNtCsdGrGZaRBwMb_3syn3gen4fold4Fold15fold_expr_whileB6_, symObjAddr: 0x7410, symBinAddr: 0x8B1D0, symSize: 0x30 }
  - { offset: 0xEE04C, size: 0x8, addend: 0x0, symName: __RNvYNtNvCsliPDVd4pfgL_15zerofrom_derive25replace_lifetime_and_type20ReplaceLifetimeAndTyNtNtNtCsdGrGZaRBwMb_3syn3gen4fold4Fold15fold_expr_yieldB6_, symObjAddr: 0x7440, symBinAddr: 0x8B200, symSize: 0x30 }
  - { offset: 0xEE093, size: 0x8, addend: 0x0, symName: __RNvYNtNvCsliPDVd4pfgL_15zerofrom_derive25replace_lifetime_and_type20ReplaceLifetimeAndTyNtNtNtCsdGrGZaRBwMb_3syn3gen4fold4Fold15fold_item_constB6_, symObjAddr: 0x7470, symBinAddr: 0x8B230, symSize: 0x30 }
  - { offset: 0xEE0DA, size: 0x8, addend: 0x0, symName: __RNvYNtNvCsliPDVd4pfgL_15zerofrom_derive25replace_lifetime_and_type20ReplaceLifetimeAndTyNtNtNtCsdGrGZaRBwMb_3syn3gen4fold4Fold15fold_item_macroB6_, symObjAddr: 0x74A0, symBinAddr: 0x8B260, symSize: 0x30 }
  - { offset: 0xEE121, size: 0x8, addend: 0x0, symName: __RNvYNtNvCsliPDVd4pfgL_15zerofrom_derive25replace_lifetime_and_type20ReplaceLifetimeAndTyNtNtNtCsdGrGZaRBwMb_3syn3gen4fold4Fold15fold_item_traitB6_, symObjAddr: 0x74D0, symBinAddr: 0x8B290, symSize: 0x30 }
  - { offset: 0xEE168, size: 0x8, addend: 0x0, symName: __RNvYNtNvCsliPDVd4pfgL_15zerofrom_derive25replace_lifetime_and_type20ReplaceLifetimeAndTyNtNtNtCsdGrGZaRBwMb_3syn3gen4fold4Fold15fold_item_unionB6_, symObjAddr: 0x7500, symBinAddr: 0x8B2C0, symSize: 0x30 }
  - { offset: 0xEE1AF, size: 0x8, addend: 0x0, symName: __RNvYNtNvCsliPDVd4pfgL_15zerofrom_derive25replace_lifetime_and_type20ReplaceLifetimeAndTyNtNtNtCsdGrGZaRBwMb_3syn3gen4fold4Fold15fold_local_initB6_, symObjAddr: 0x7530, symBinAddr: 0x8B2F0, symSize: 0x30 }
  - { offset: 0xEE1F6, size: 0x8, addend: 0x0, symName: __RNvYNtNvCsliPDVd4pfgL_15zerofrom_derive25replace_lifetime_and_type20ReplaceLifetimeAndTyNtNtNtCsdGrGZaRBwMb_3syn3gen4fold4Fold15fold_pat_structB6_, symObjAddr: 0x7560, symBinAddr: 0x8B320, symSize: 0x30 }
  - { offset: 0xEE23D, size: 0x8, addend: 0x0, symName: __RNvYNtNvCsliPDVd4pfgL_15zerofrom_derive25replace_lifetime_and_type20ReplaceLifetimeAndTyNtNtNtCsdGrGZaRBwMb_3syn3gen4fold4Fold15fold_stmt_macroB6_, symObjAddr: 0x7590, symBinAddr: 0x8B350, symSize: 0x30 }
  - { offset: 0xEE284, size: 0x8, addend: 0x0, symName: __RNvYNtNvCsliPDVd4pfgL_15zerofrom_derive25replace_lifetime_and_type20ReplaceLifetimeAndTyNtNtNtCsdGrGZaRBwMb_3syn3gen4fold4Fold15fold_trait_itemB6_, symObjAddr: 0x75C0, symBinAddr: 0x8B380, symSize: 0x30 }
  - { offset: 0xEE2CB, size: 0x8, addend: 0x0, symName: __RNvYNtNvCsliPDVd4pfgL_15zerofrom_derive25replace_lifetime_and_type20ReplaceLifetimeAndTyNtNtNtCsdGrGZaRBwMb_3syn3gen4fold4Fold15fold_type_arrayB6_, symObjAddr: 0x75F0, symBinAddr: 0x8B3B0, symSize: 0x30 }
  - { offset: 0xEE312, size: 0x8, addend: 0x0, symName: __RNvYNtNvCsliPDVd4pfgL_15zerofrom_derive25replace_lifetime_and_type20ReplaceLifetimeAndTyNtNtNtCsdGrGZaRBwMb_3syn3gen4fold4Fold15fold_type_groupB6_, symObjAddr: 0x7620, symBinAddr: 0x8B3E0, symSize: 0x30 }
  - { offset: 0xEE358, size: 0x8, addend: 0x0, symName: __RNvYNtNvCsliPDVd4pfgL_15zerofrom_derive25replace_lifetime_and_type20ReplaceLifetimeAndTyNtNtNtCsdGrGZaRBwMb_3syn3gen4fold4Fold15fold_type_inferB6_, symObjAddr: 0x7650, symBinAddr: 0x8B410, symSize: 0x40 }
  - { offset: 0xEE39E, size: 0x8, addend: 0x0, symName: __RNvYNtNvCsliPDVd4pfgL_15zerofrom_derive25replace_lifetime_and_type20ReplaceLifetimeAndTyNtNtNtCsdGrGZaRBwMb_3syn3gen4fold4Fold15fold_type_macroB6_, symObjAddr: 0x7690, symBinAddr: 0x8B450, symSize: 0x30 }
  - { offset: 0xEE3E5, size: 0x8, addend: 0x0, symName: __RNvYNtNvCsliPDVd4pfgL_15zerofrom_derive25replace_lifetime_and_type20ReplaceLifetimeAndTyNtNtNtCsdGrGZaRBwMb_3syn3gen4fold4Fold15fold_type_neverB6_, symObjAddr: 0x76C0, symBinAddr: 0x8B480, symSize: 0x40 }
  - { offset: 0xEE42B, size: 0x8, addend: 0x0, symName: __RNvYNtNvCsliPDVd4pfgL_15zerofrom_derive25replace_lifetime_and_type20ReplaceLifetimeAndTyNtNtNtCsdGrGZaRBwMb_3syn3gen4fold4Fold15fold_type_paramB6_, symObjAddr: 0x7700, symBinAddr: 0x8B4C0, symSize: 0x30 }
  - { offset: 0xEE472, size: 0x8, addend: 0x0, symName: __RNvYNtNvCsliPDVd4pfgL_15zerofrom_derive25replace_lifetime_and_type20ReplaceLifetimeAndTyNtNtNtCsdGrGZaRBwMb_3syn3gen4fold4Fold15fold_type_parenB6_, symObjAddr: 0x7730, symBinAddr: 0x8B4F0, symSize: 0x30 }
  - { offset: 0xEE4B9, size: 0x8, addend: 0x0, symName: __RNvYNtNvCsliPDVd4pfgL_15zerofrom_derive25replace_lifetime_and_type20ReplaceLifetimeAndTyNtNtNtCsdGrGZaRBwMb_3syn3gen4fold4Fold15fold_type_sliceB6_, symObjAddr: 0x7760, symBinAddr: 0x8B520, symSize: 0x30 }
  - { offset: 0xEE500, size: 0x8, addend: 0x0, symName: __RNvYNtNvCsliPDVd4pfgL_15zerofrom_derive25replace_lifetime_and_type20ReplaceLifetimeAndTyNtNtNtCsdGrGZaRBwMb_3syn3gen4fold4Fold15fold_type_tupleB6_, symObjAddr: 0x7790, symBinAddr: 0x8B550, symSize: 0x30 }
  - { offset: 0xEE547, size: 0x8, addend: 0x0, symName: __RNvYNtNvCsliPDVd4pfgL_15zerofrom_derive25replace_lifetime_and_type20ReplaceLifetimeAndTyNtNtNtCsdGrGZaRBwMb_3syn3gen4fold4Fold15fold_use_renameB6_, symObjAddr: 0x77C0, symBinAddr: 0x8B580, symSize: 0x30 }
  - { offset: 0xEE58E, size: 0x8, addend: 0x0, symName: __RNvYNtNvCsliPDVd4pfgL_15zerofrom_derive25replace_lifetime_and_type20ReplaceLifetimeAndTyNtNtNtCsdGrGZaRBwMb_3syn3gen4fold4Fold15fold_visibilityB6_, symObjAddr: 0x77F0, symBinAddr: 0x8B5B0, symSize: 0x30 }
  - { offset: 0xEE5D5, size: 0x8, addend: 0x0, symName: __RNvYNtNvCsliPDVd4pfgL_15zerofrom_derive25replace_lifetime_and_type20ReplaceLifetimeAndTyNtNtNtCsdGrGZaRBwMb_3syn3gen4fold4Fold16fold_assoc_constB6_, symObjAddr: 0x7820, symBinAddr: 0x8B5E0, symSize: 0x30 }
  - { offset: 0xEE619, size: 0x8, addend: 0x0, symName: __RNvYNtNvCsliPDVd4pfgL_15zerofrom_derive25replace_lifetime_and_type20ReplaceLifetimeAndTyNtNtNtCsdGrGZaRBwMb_3syn3gen4fold4Fold16fold_bare_fn_argB6_, symObjAddr: 0x7850, symBinAddr: 0x8B610, symSize: 0x30 }
  - { offset: 0xEE65D, size: 0x8, addend: 0x0, symName: __RNvYNtNvCsliPDVd4pfgL_15zerofrom_derive25replace_lifetime_and_type20ReplaceLifetimeAndTyNtNtNtCsdGrGZaRBwMb_3syn3gen4fold4Fold16fold_const_paramB6_, symObjAddr: 0x7880, symBinAddr: 0x8B640, symSize: 0x30 }
  - { offset: 0xEE6A1, size: 0x8, addend: 0x0, symName: __RNvYNtNvCsliPDVd4pfgL_15zerofrom_derive25replace_lifetime_and_type20ReplaceLifetimeAndTyNtNtNtCsdGrGZaRBwMb_3syn3gen4fold4Fold16fold_expr_assignB6_, symObjAddr: 0x78B0, symBinAddr: 0x8B670, symSize: 0x30 }
  - { offset: 0xEE6E5, size: 0x8, addend: 0x0, symName: __RNvYNtNvCsliPDVd4pfgL_15zerofrom_derive25replace_lifetime_and_type20ReplaceLifetimeAndTyNtNtNtCsdGrGZaRBwMb_3syn3gen4fold4Fold16fold_expr_binaryB6_, symObjAddr: 0x78E0, symBinAddr: 0x8B6A0, symSize: 0x30 }
  - { offset: 0xEE729, size: 0x8, addend: 0x0, symName: __RNvYNtNvCsliPDVd4pfgL_15zerofrom_derive25replace_lifetime_and_type20ReplaceLifetimeAndTyNtNtNtCsdGrGZaRBwMb_3syn3gen4fold4Fold16fold_expr_repeatB6_, symObjAddr: 0x7910, symBinAddr: 0x8B6D0, symSize: 0x30 }
  - { offset: 0xEE770, size: 0x8, addend: 0x0, symName: __RNvYNtNvCsliPDVd4pfgL_15zerofrom_derive25replace_lifetime_and_type20ReplaceLifetimeAndTyNtNtNtCsdGrGZaRBwMb_3syn3gen4fold4Fold16fold_expr_returnB6_, symObjAddr: 0x7940, symBinAddr: 0x8B700, symSize: 0x30 }
  - { offset: 0xEE7B7, size: 0x8, addend: 0x0, symName: __RNvYNtNvCsliPDVd4pfgL_15zerofrom_derive25replace_lifetime_and_type20ReplaceLifetimeAndTyNtNtNtCsdGrGZaRBwMb_3syn3gen4fold4Fold16fold_expr_structB6_, symObjAddr: 0x7970, symBinAddr: 0x8B730, symSize: 0x30 }
  - { offset: 0xEE7FE, size: 0x8, addend: 0x0, symName: __RNvYNtNvCsliPDVd4pfgL_15zerofrom_derive25replace_lifetime_and_type20ReplaceLifetimeAndTyNtNtNtCsdGrGZaRBwMb_3syn3gen4fold4Fold16fold_expr_unsafeB6_, symObjAddr: 0x79A0, symBinAddr: 0x8B760, symSize: 0x30 }
  - { offset: 0xEE845, size: 0x8, addend: 0x0, symName: __RNvYNtNvCsliPDVd4pfgL_15zerofrom_derive25replace_lifetime_and_type20ReplaceLifetimeAndTyNtNtNtCsdGrGZaRBwMb_3syn3gen4fold4Fold16fold_field_valueB6_, symObjAddr: 0x79D0, symBinAddr: 0x8B790, symSize: 0x30 }
  - { offset: 0xEE88C, size: 0x8, addend: 0x0, symName: __RNvYNtNvCsliPDVd4pfgL_15zerofrom_derive25replace_lifetime_and_type20ReplaceLifetimeAndTyNtNtNtCsdGrGZaRBwMb_3syn3gen4fold4Fold16fold_item_staticB6_, symObjAddr: 0x7A00, symBinAddr: 0x8B7C0, symSize: 0x30 }
  - { offset: 0xEE8D3, size: 0x8, addend: 0x0, symName: __RNvYNtNvCsliPDVd4pfgL_15zerofrom_derive25replace_lifetime_and_type20ReplaceLifetimeAndTyNtNtNtCsdGrGZaRBwMb_3syn3gen4fold4Fold16fold_item_structB6_, symObjAddr: 0x7A30, symBinAddr: 0x8B7F0, symSize: 0x30 }
  - { offset: 0xEE91A, size: 0x8, addend: 0x0, symName: __RNvYNtNvCsliPDVd4pfgL_15zerofrom_derive25replace_lifetime_and_type20ReplaceLifetimeAndTyNtNtNtCsdGrGZaRBwMb_3syn3gen4fold4Fold16fold_return_typeB6_, symObjAddr: 0x7A60, symBinAddr: 0x8B820, symSize: 0x30 }
  - { offset: 0xEE961, size: 0x8, addend: 0x0, symName: __RNvYNtNvCsliPDVd4pfgL_15zerofrom_derive25replace_lifetime_and_type20ReplaceLifetimeAndTyNtNtNtCsdGrGZaRBwMb_3syn3gen4fold4Fold16fold_trait_boundB6_, symObjAddr: 0x7A90, symBinAddr: 0x8B850, symSize: 0x30 }
  - { offset: 0xEE9A8, size: 0x8, addend: 0x0, symName: __RNvYNtNvCsliPDVd4pfgL_15zerofrom_derive25replace_lifetime_and_type20ReplaceLifetimeAndTyNtNtNtCsdGrGZaRBwMb_3syn3gen4fold4Fold17fold_expr_closureB6_, symObjAddr: 0x7AC0, symBinAddr: 0x8B880, symSize: 0x30 }
  - { offset: 0xEE9EC, size: 0x8, addend: 0x0, symName: __RNvYNtNvCsliPDVd4pfgL_15zerofrom_derive25replace_lifetime_and_type20ReplaceLifetimeAndTyNtNtNtCsdGrGZaRBwMb_3syn3gen4fold4Fold17fold_fields_namedB6_, symObjAddr: 0x7AF0, symBinAddr: 0x8B8B0, symSize: 0x30 }
  - { offset: 0xEEA33, size: 0x8, addend: 0x0, symName: __RNvYNtNvCsliPDVd4pfgL_15zerofrom_derive25replace_lifetime_and_type20ReplaceLifetimeAndTyNtNtNtCsdGrGZaRBwMb_3syn3gen4fold4Fold17fold_foreign_itemB6_, symObjAddr: 0x7B20, symBinAddr: 0x8B8E0, symSize: 0x30 }
  - { offset: 0xEEA7A, size: 0x8, addend: 0x0, symName: __RNvYNtNvCsliPDVd4pfgL_15zerofrom_derive25replace_lifetime_and_type20ReplaceLifetimeAndTyNtNtNtCsdGrGZaRBwMb_3syn3gen4fold4Fold17fold_impl_item_fnB6_, symObjAddr: 0x7B50, symBinAddr: 0x8B910, symSize: 0x30 }
  - { offset: 0xEEAC1, size: 0x8, addend: 0x0, symName: __RNvYNtNvCsliPDVd4pfgL_15zerofrom_derive25replace_lifetime_and_type20ReplaceLifetimeAndTyNtNtNtCsdGrGZaRBwMb_3syn3gen4fold4Fold17fold_lit_byte_strB6_, symObjAddr: 0x7B80, symBinAddr: 0x8B940, symSize: 0x30 }
  - { offset: 0xEEB07, size: 0x8, addend: 0x0, symName: __RNvYNtNvCsliPDVd4pfgL_15zerofrom_derive25replace_lifetime_and_type20ReplaceLifetimeAndTyNtNtNtCsdGrGZaRBwMb_3syn3gen4fold4Fold17fold_path_segmentB6_, symObjAddr: 0x7BB0, symBinAddr: 0x8B970, symSize: 0x30 }
  - { offset: 0xEEB4E, size: 0x8, addend: 0x0, symName: __RNvYNtNvCsliPDVd4pfgL_15zerofrom_derive25replace_lifetime_and_type20ReplaceLifetimeAndTyNtNtNtCsdGrGZaRBwMb_3syn3gen4fold4Fold17fold_range_limitsB6_, symObjAddr: 0x7BE0, symBinAddr: 0x8B9A0, symSize: 0x40 }
  - { offset: 0xEEB95, size: 0x8, addend: 0x0, symName: __RNvYNtNvCsliPDVd4pfgL_15zerofrom_derive25replace_lifetime_and_type20ReplaceLifetimeAndTyNtNtNtCsdGrGZaRBwMb_3syn3gen4fold4Fold17fold_token_streamB6_, symObjAddr: 0x7C20, symBinAddr: 0x8B9E0, symSize: 0x40 }
  - { offset: 0xEEBDB, size: 0x8, addend: 0x0, symName: __RNvYNtNvCsliPDVd4pfgL_15zerofrom_derive25replace_lifetime_and_type20ReplaceLifetimeAndTyNtNtNtCsdGrGZaRBwMb_3syn3gen4fold4Fold17fold_type_bare_fnB6_, symObjAddr: 0x7C60, symBinAddr: 0x8BA20, symSize: 0x30 }
  - { offset: 0xEEC22, size: 0x8, addend: 0x0, symName: __RNvYNtNvCsliPDVd4pfgL_15zerofrom_derive25replace_lifetime_and_type20ReplaceLifetimeAndTyNtNtNtCsdGrGZaRBwMb_3syn3gen4fold4Fold17fold_where_clauseB6_, symObjAddr: 0x7C90, symBinAddr: 0x8BA50, symSize: 0x30 }
  - { offset: 0xEEC69, size: 0x8, addend: 0x0, symName: __RNvYNtNvCsliPDVd4pfgL_15zerofrom_derive25replace_lifetime_and_type20ReplaceLifetimeAndTyNtNtNtCsdGrGZaRBwMb_3syn3gen4fold4Fold18fold_bare_variadicB6_, symObjAddr: 0x7CC0, symBinAddr: 0x8BA80, symSize: 0x30 }
  - { offset: 0xEECAD, size: 0x8, addend: 0x0, symName: __RNvYNtNvCsliPDVd4pfgL_15zerofrom_derive25replace_lifetime_and_type20ReplaceLifetimeAndTyNtNtNtCsdGrGZaRBwMb_3syn3gen4fold4Fold18fold_expr_continueB6_, symObjAddr: 0x7CF0, symBinAddr: 0x8BAB0, symSize: 0x30 }
  - { offset: 0xEECF1, size: 0x8, addend: 0x0, symName: __RNvYNtNvCsliPDVd4pfgL_15zerofrom_derive25replace_lifetime_and_type20ReplaceLifetimeAndTyNtNtNtCsdGrGZaRBwMb_3syn3gen4fold4Fold18fold_expr_for_loopB6_, symObjAddr: 0x7D20, symBinAddr: 0x8BAE0, symSize: 0x30 }
  - { offset: 0xEED35, size: 0x8, addend: 0x0, symName: __RNvYNtNvCsliPDVd4pfgL_15zerofrom_derive25replace_lifetime_and_type20ReplaceLifetimeAndTyNtNtNtCsdGrGZaRBwMb_3syn3gen4fold4Fold18fold_expr_raw_addrB6_, symObjAddr: 0x7D50, symBinAddr: 0x8BB10, symSize: 0x30 }
  - { offset: 0xEED7C, size: 0x8, addend: 0x0, symName: __RNvYNtNvCsliPDVd4pfgL_15zerofrom_derive25replace_lifetime_and_type20ReplaceLifetimeAndTyNtNtNtCsdGrGZaRBwMb_3syn3gen4fold4Fold18fold_generic_paramB6_, symObjAddr: 0x7D80, symBinAddr: 0x8BB40, symSize: 0x30 }
  - { offset: 0xEEDC3, size: 0x8, addend: 0x0, symName: __RNvYNtNvCsliPDVd4pfgL_15zerofrom_derive25replace_lifetime_and_type20ReplaceLifetimeAndTyNtNtNtCsdGrGZaRBwMb_3syn3gen4fold4Fold18fold_pat_referenceB6_, symObjAddr: 0x7DB0, symBinAddr: 0x8BB70, symSize: 0x30 }
  - { offset: 0xEEE0A, size: 0x8, addend: 0x0, symName: __RNvYNtNvCsliPDVd4pfgL_15zerofrom_derive25replace_lifetime_and_type20ReplaceLifetimeAndTyNtNtNtCsdGrGZaRBwMb_3syn3gen4fold4Fold18fold_trait_item_fnB6_, symObjAddr: 0x7DE0, symBinAddr: 0x8BBA0, symSize: 0x30 }
  - { offset: 0xEEE51, size: 0x8, addend: 0x0, symName: __RNvYNtNvCsliPDVd4pfgL_15zerofrom_derive25replace_lifetime_and_type20ReplaceLifetimeAndTyNtNtNtCsdGrGZaRBwMb_3syn3gen4fold4Fold19fold_captured_paramB6_, symObjAddr: 0x7E10, symBinAddr: 0x8BBD0, symSize: 0x30 }
  - { offset: 0xEEE95, size: 0x8, addend: 0x0, symName: __RNvYNtNvCsliPDVd4pfgL_15zerofrom_derive25replace_lifetime_and_type20ReplaceLifetimeAndTyNtNtNtCsdGrGZaRBwMb_3syn3gen4fold4Fold19fold_expr_referenceB6_, symObjAddr: 0x7E40, symBinAddr: 0x8BC00, symSize: 0x30 }
  - { offset: 0xEEEDC, size: 0x8, addend: 0x0, symName: __RNvYNtNvCsliPDVd4pfgL_15zerofrom_derive25replace_lifetime_and_type20ReplaceLifetimeAndTyNtNtNtCsdGrGZaRBwMb_3syn3gen4fold4Fold19fold_expr_try_blockB6_, symObjAddr: 0x7E70, symBinAddr: 0x8BC30, symSize: 0x30 }
  - { offset: 0xEEF23, size: 0x8, addend: 0x0, symName: __RNvYNtNvCsliPDVd4pfgL_15zerofrom_derive25replace_lifetime_and_type20ReplaceLifetimeAndTyNtNtNtCsdGrGZaRBwMb_3syn3gen4fold4Fold19fold_fields_unnamedB6_, symObjAddr: 0x7EA0, symBinAddr: 0x8BC60, symSize: 0x30 }
  - { offset: 0xEEF6A, size: 0x8, addend: 0x0, symName: __RNvYNtNvCsliPDVd4pfgL_15zerofrom_derive25replace_lifetime_and_type20ReplaceLifetimeAndTyNtNtNtCsdGrGZaRBwMb_3syn3gen4fold4Fold19fold_impl_item_typeB6_, symObjAddr: 0x7ED0, symBinAddr: 0x8BC90, symSize: 0x30 }
  - { offset: 0xEEFB1, size: 0x8, addend: 0x0, symName: __RNvYNtNvCsliPDVd4pfgL_15zerofrom_derive25replace_lifetime_and_type20ReplaceLifetimeAndTyNtNtNtCsdGrGZaRBwMb_3syn3gen4fold4Fold19fold_lifetime_paramB6_, symObjAddr: 0x7F00, symBinAddr: 0x8BCC0, symSize: 0x30 }
  - { offset: 0xEEFF8, size: 0x8, addend: 0x0, symName: __RNvYNtNvCsliPDVd4pfgL_15zerofrom_derive25replace_lifetime_and_type20ReplaceLifetimeAndTyNtNtNtCsdGrGZaRBwMb_3syn3gen4fold4Fold19fold_path_argumentsB6_, symObjAddr: 0x7F30, symBinAddr: 0x8BCF0, symSize: 0x30 }
  - { offset: 0xEF03F, size: 0x8, addend: 0x0, symName: __RNvYNtNvCsliPDVd4pfgL_15zerofrom_derive25replace_lifetime_and_type20ReplaceLifetimeAndTyNtNtNtCsdGrGZaRBwMb_3syn3gen4fold4Fold19fold_predicate_typeB6_, symObjAddr: 0x7F60, symBinAddr: 0x8BD20, symSize: 0x30 }
  - { offset: 0xEF086, size: 0x8, addend: 0x0, symName: __RNvYNtNvCsliPDVd4pfgL_15zerofrom_derive25replace_lifetime_and_type20ReplaceLifetimeAndTyNtNtNtCsdGrGZaRBwMb_3syn3gen4fold4Fold19fold_type_referenceB6_, symObjAddr: 0x7F90, symBinAddr: 0x8BD50, symSize: 0x30 }
  - { offset: 0xEF0CD, size: 0x8, addend: 0x0, symName: __RNvYNtNvCsliPDVd4pfgL_15zerofrom_derive25replace_lifetime_and_type20ReplaceLifetimeAndTyNtNtNtCsdGrGZaRBwMb_3syn3gen4fold4Fold19fold_vis_restrictedB6_, symObjAddr: 0x7FC0, symBinAddr: 0x8BD80, symSize: 0x30 }
  - { offset: 0xEF114, size: 0x8, addend: 0x0, symName: __RNvYNtNvCsliPDVd4pfgL_15zerofrom_derive25replace_lifetime_and_type20ReplaceLifetimeAndTyNtNtNtCsdGrGZaRBwMb_3syn3gen4fold4Fold20fold_bound_lifetimesB6_, symObjAddr: 0x7FF0, symBinAddr: 0x8BDB0, symSize: 0x30 }
  - { offset: 0xEF158, size: 0x8, addend: 0x0, symName: __RNvYNtNvCsliPDVd4pfgL_15zerofrom_derive25replace_lifetime_and_type20ReplaceLifetimeAndTyNtNtNtCsdGrGZaRBwMb_3syn3gen4fold4Fold20fold_foreign_item_fnB6_, symObjAddr: 0x8020, symBinAddr: 0x8BDE0, symSize: 0x30 }
  - { offset: 0xEF19F, size: 0x8, addend: 0x0, symName: __RNvYNtNvCsliPDVd4pfgL_15zerofrom_derive25replace_lifetime_and_type20ReplaceLifetimeAndTyNtNtNtCsdGrGZaRBwMb_3syn3gen4fold4Fold20fold_impl_item_constB6_, symObjAddr: 0x8050, symBinAddr: 0x8BE10, symSize: 0x30 }
  - { offset: 0xEF1E6, size: 0x8, addend: 0x0, symName: __RNvYNtNvCsliPDVd4pfgL_15zerofrom_derive25replace_lifetime_and_type20ReplaceLifetimeAndTyNtNtNtCsdGrGZaRBwMb_3syn3gen4fold4Fold20fold_impl_item_macroB6_, symObjAddr: 0x8080, symBinAddr: 0x8BE40, symSize: 0x30 }
  - { offset: 0xEF22D, size: 0x8, addend: 0x0, symName: __RNvYNtNvCsliPDVd4pfgL_15zerofrom_derive25replace_lifetime_and_type20ReplaceLifetimeAndTyNtNtNtCsdGrGZaRBwMb_3syn3gen4fold4Fold20fold_macro_delimiterB6_, symObjAddr: 0x80B0, symBinAddr: 0x8BE70, symSize: 0x30 }
  - { offset: 0xEF274, size: 0x8, addend: 0x0, symName: __RNvYNtNvCsliPDVd4pfgL_15zerofrom_derive25replace_lifetime_and_type20ReplaceLifetimeAndTyNtNtNtCsdGrGZaRBwMb_3syn3gen4fold4Fold20fold_meta_name_valueB6_, symObjAddr: 0x80E0, symBinAddr: 0x8BEA0, symSize: 0x30 }
  - { offset: 0xEF2BB, size: 0x8, addend: 0x0, symName: __RNvYNtNvCsliPDVd4pfgL_15zerofrom_derive25replace_lifetime_and_type20ReplaceLifetimeAndTyNtNtNtCsdGrGZaRBwMb_3syn3gen4fold4Fold20fold_precise_captureB6_, symObjAddr: 0x8110, symBinAddr: 0x8BED0, symSize: 0x30 }
  - { offset: 0xEF302, size: 0x8, addend: 0x0, symName: __RNvYNtNvCsliPDVd4pfgL_15zerofrom_derive25replace_lifetime_and_type20ReplaceLifetimeAndTyNtNtNtCsdGrGZaRBwMb_3syn3gen4fold4Fold20fold_trait_item_typeB6_, symObjAddr: 0x8140, symBinAddr: 0x8BF00, symSize: 0x30 }
  - { offset: 0xEF349, size: 0x8, addend: 0x0, symName: __RNvYNtNvCsliPDVd4pfgL_15zerofrom_derive25replace_lifetime_and_type20ReplaceLifetimeAndTyNtNtNtCsdGrGZaRBwMb_3syn3gen4fold4Fold20fold_type_impl_traitB6_, symObjAddr: 0x8170, symBinAddr: 0x8BF30, symSize: 0x30 }
  - { offset: 0xEF390, size: 0x8, addend: 0x0, symName: __RNvYNtNvCsliPDVd4pfgL_15zerofrom_derive25replace_lifetime_and_type20ReplaceLifetimeAndTyNtNtNtCsdGrGZaRBwMb_3syn3gen4fold4Fold20fold_where_predicateB6_, symObjAddr: 0x81A0, symBinAddr: 0x8BF60, symSize: 0x30 }
  - { offset: 0xEF3D7, size: 0x8, addend: 0x0, symName: __RNvYNtNvCsliPDVd4pfgL_15zerofrom_derive25replace_lifetime_and_type20ReplaceLifetimeAndTyNtNtNtCsdGrGZaRBwMb_3syn3gen4fold4Fold21fold_expr_method_callB6_, symObjAddr: 0x81D0, symBinAddr: 0x8BF90, symSize: 0x30 }
  - { offset: 0xEF41E, size: 0x8, addend: 0x0, symName: __RNvYNtNvCsliPDVd4pfgL_15zerofrom_derive25replace_lifetime_and_type20ReplaceLifetimeAndTyNtNtNtCsdGrGZaRBwMb_3syn3gen4fold4Fold21fold_field_mutabilityB6_, symObjAddr: 0x8200, symBinAddr: 0x8BFC0, symSize: 0x20 }
  - { offset: 0xEF46C, size: 0x8, addend: 0x0, symName: __RNvYNtNvCsliPDVd4pfgL_15zerofrom_derive25replace_lifetime_and_type20ReplaceLifetimeAndTyNtNtNtCsdGrGZaRBwMb_3syn3gen4fold4Fold21fold_generic_argumentB6_, symObjAddr: 0x8220, symBinAddr: 0x8BFE0, symSize: 0x30 }
  - { offset: 0xEF4B3, size: 0x8, addend: 0x0, symName: __RNvYNtNvCsliPDVd4pfgL_15zerofrom_derive25replace_lifetime_and_type20ReplaceLifetimeAndTyNtNtNtCsdGrGZaRBwMb_3syn3gen4fold4Fold21fold_item_foreign_modB6_, symObjAddr: 0x8270, symBinAddr: 0x8C010, symSize: 0x30 }
  - { offset: 0xEF4FA, size: 0x8, addend: 0x0, symName: __RNvYNtNvCsliPDVd4pfgL_15zerofrom_derive25replace_lifetime_and_type20ReplaceLifetimeAndTyNtNtNtCsdGrGZaRBwMb_3syn3gen4fold4Fold21fold_item_trait_aliasB6_, symObjAddr: 0x82A0, symBinAddr: 0x8C040, symSize: 0x30 }
  - { offset: 0xEF541, size: 0x8, addend: 0x0, symName: __RNvYNtNvCsliPDVd4pfgL_15zerofrom_derive25replace_lifetime_and_type20ReplaceLifetimeAndTyNtNtNtCsdGrGZaRBwMb_3syn3gen4fold4Fold21fold_pat_tuple_structB6_, symObjAddr: 0x82D0, symBinAddr: 0x8C070, symSize: 0x30 }
  - { offset: 0xEF588, size: 0x8, addend: 0x0, symName: __RNvYNtNvCsliPDVd4pfgL_15zerofrom_derive25replace_lifetime_and_type20ReplaceLifetimeAndTyNtNtNtCsdGrGZaRBwMb_3syn3gen4fold4Fold21fold_trait_item_constB6_, symObjAddr: 0x8300, symBinAddr: 0x8C0A0, symSize: 0x30 }
  - { offset: 0xEF5CF, size: 0x8, addend: 0x0, symName: __RNvYNtNvCsliPDVd4pfgL_15zerofrom_derive25replace_lifetime_and_type20ReplaceLifetimeAndTyNtNtNtCsdGrGZaRBwMb_3syn3gen4fold4Fold21fold_trait_item_macroB6_, symObjAddr: 0x8330, symBinAddr: 0x8C0D0, symSize: 0x30 }
  - { offset: 0xEF616, size: 0x8, addend: 0x0, symName: __RNvYNtNvCsliPDVd4pfgL_15zerofrom_derive25replace_lifetime_and_type20ReplaceLifetimeAndTyNtNtNtCsdGrGZaRBwMb_3syn3gen4fold4Fold21fold_type_param_boundB6_, symObjAddr: 0x8360, symBinAddr: 0x8C100, symSize: 0x30 }
  - { offset: 0xEF65D, size: 0x8, addend: 0x0, symName: __RNvYNtNvCsliPDVd4pfgL_15zerofrom_derive25replace_lifetime_and_type20ReplaceLifetimeAndTyNtNtNtCsdGrGZaRBwMb_3syn3gen4fold4Fold22fold_foreign_item_typeB6_, symObjAddr: 0x8390, symBinAddr: 0x8C130, symSize: 0x30 }
  - { offset: 0xEF6A4, size: 0x8, addend: 0x0, symName: __RNvYNtNvCsliPDVd4pfgL_15zerofrom_derive25replace_lifetime_and_type20ReplaceLifetimeAndTyNtNtNtCsdGrGZaRBwMb_3syn3gen4fold4Fold22fold_item_extern_crateB6_, symObjAddr: 0x83C0, symBinAddr: 0x8C160, symSize: 0x30 }
  - { offset: 0xEF6EB, size: 0x8, addend: 0x0, symName: __RNvYNtNvCsliPDVd4pfgL_15zerofrom_derive25replace_lifetime_and_type20ReplaceLifetimeAndTyNtNtNtCsdGrGZaRBwMb_3syn3gen4fold4Fold22fold_static_mutabilityB6_, symObjAddr: 0x83F0, symBinAddr: 0x8C190, symSize: 0x30 }
  - { offset: 0xEF731, size: 0x8, addend: 0x0, symName: __RNvYNtNvCsliPDVd4pfgL_15zerofrom_derive25replace_lifetime_and_type20ReplaceLifetimeAndTyNtNtNtCsdGrGZaRBwMb_3syn3gen4fold4Fold22fold_type_trait_objectB6_, symObjAddr: 0x8420, symBinAddr: 0x8C1C0, symSize: 0x30 }
  - { offset: 0xEF778, size: 0x8, addend: 0x0, symName: __RNvYNtNvCsliPDVd4pfgL_15zerofrom_derive25replace_lifetime_and_type20ReplaceLifetimeAndTyNtNtNtCsdGrGZaRBwMb_3syn3gen4fold4Fold23fold_foreign_item_macroB6_, symObjAddr: 0x8450, symBinAddr: 0x8C1F0, symSize: 0x30 }
  - { offset: 0xEF7BF, size: 0x8, addend: 0x0, symName: __RNvYNtNvCsliPDVd4pfgL_15zerofrom_derive25replace_lifetime_and_type20ReplaceLifetimeAndTyNtNtNtCsdGrGZaRBwMb_3syn3gen4fold4Fold23fold_pointer_mutabilityB6_, symObjAddr: 0x8480, symBinAddr: 0x8C220, symSize: 0x30 }
  - { offset: 0xEF805, size: 0x8, addend: 0x0, symName: __RNvYNtNvCsliPDVd4pfgL_15zerofrom_derive25replace_lifetime_and_type20ReplaceLifetimeAndTyNtNtNtCsdGrGZaRBwMb_3syn3gen4fold4Fold23fold_predicate_lifetimeB6_, symObjAddr: 0x84B0, symBinAddr: 0x8C250, symSize: 0x30 }
  - { offset: 0xEF84C, size: 0x8, addend: 0x0, symName: __RNvYNtNvCsliPDVd4pfgL_15zerofrom_derive25replace_lifetime_and_type20ReplaceLifetimeAndTyNtNtNtCsdGrGZaRBwMb_3syn3gen4fold4Fold24fold_foreign_item_staticB6_, symObjAddr: 0x84E0, symBinAddr: 0x8C280, symSize: 0x30 }
  - { offset: 0xEF893, size: 0x8, addend: 0x0, symName: __RNvYNtNvCsliPDVd4pfgL_15zerofrom_derive25replace_lifetime_and_type20ReplaceLifetimeAndTyNtNtNtCsdGrGZaRBwMb_3syn3gen4fold4Fold25fold_trait_bound_modifierB6_, symObjAddr: 0x8510, symBinAddr: 0x8C2B0, symSize: 0x50 }
  - { offset: 0xEF8D9, size: 0x8, addend: 0x0, symName: __RNvYNtNvCsliPDVd4pfgL_15zerofrom_derive25replace_lifetime_and_type20ReplaceLifetimeAndTyNtNtNtCsdGrGZaRBwMb_3syn3gen4fold4Fold36fold_parenthesized_generic_argumentsB6_, symObjAddr: 0x8560, symBinAddr: 0x8C300, symSize: 0x30 }
  - { offset: 0xEF920, size: 0x8, addend: 0x0, symName: __RNvYNtNvCsliPDVd4pfgL_15zerofrom_derive25replace_lifetime_and_type20ReplaceLifetimeAndTyNtNtNtCsdGrGZaRBwMb_3syn3gen4fold4Fold38fold_angle_bracketed_generic_argumentsB6_, symObjAddr: 0x8590, symBinAddr: 0x8C330, symSize: 0x30 }
  - { offset: 0xEF964, size: 0x8, addend: 0x0, symName: __RNvYNtNvCsliPDVd4pfgL_15zerofrom_derive25replace_lifetime_and_type20ReplaceLifetimeAndTyNtNtNtCsdGrGZaRBwMb_3syn3gen4fold4Fold8fold_abiB6_, symObjAddr: 0x85C0, symBinAddr: 0x8C360, symSize: 0x30 }
  - { offset: 0xEF9A7, size: 0x8, addend: 0x0, symName: __RNvYNtNvCsliPDVd4pfgL_15zerofrom_derive25replace_lifetime_and_type20ReplaceLifetimeAndTyNtNtNtCsdGrGZaRBwMb_3syn3gen4fold4Fold8fold_armB6_, symObjAddr: 0x85F0, symBinAddr: 0x8C390, symSize: 0x30 }
  - { offset: 0xEF9EB, size: 0x8, addend: 0x0, symName: __RNvYNtNvCsliPDVd4pfgL_15zerofrom_derive25replace_lifetime_and_type20ReplaceLifetimeAndTyNtNtNtCsdGrGZaRBwMb_3syn3gen4fold4Fold8fold_litB6_, symObjAddr: 0x8620, symBinAddr: 0x8C3C0, symSize: 0x30 }
  - { offset: 0xEFA32, size: 0x8, addend: 0x0, symName: __RNvYNtNvCsliPDVd4pfgL_15zerofrom_derive25replace_lifetime_and_type20ReplaceLifetimeAndTyNtNtNtCsdGrGZaRBwMb_3syn3gen4fold4Fold8fold_patB6_, symObjAddr: 0x8650, symBinAddr: 0x8C3F0, symSize: 0x30 }
  - { offset: 0xEFA79, size: 0x8, addend: 0x0, symName: __RNvYNtNvCsliPDVd4pfgL_15zerofrom_derive25replace_lifetime_and_type20ReplaceLifetimeAndTyNtNtNtCsdGrGZaRBwMb_3syn3gen4fold4Fold9fold_exprB6_, symObjAddr: 0x8680, symBinAddr: 0x8C420, symSize: 0x30 }
  - { offset: 0xEFABD, size: 0x8, addend: 0x0, symName: __RNvYNtNvCsliPDVd4pfgL_15zerofrom_derive25replace_lifetime_and_type20ReplaceLifetimeAndTyNtNtNtCsdGrGZaRBwMb_3syn3gen4fold4Fold9fold_itemB6_, symObjAddr: 0x86B0, symBinAddr: 0x8C450, symSize: 0x30 }
  - { offset: 0xEFB04, size: 0x8, addend: 0x0, symName: __RNvYNtNvCsliPDVd4pfgL_15zerofrom_derive25replace_lifetime_and_type20ReplaceLifetimeAndTyNtNtNtCsdGrGZaRBwMb_3syn3gen4fold4Fold9fold_metaB6_, symObjAddr: 0x86E0, symBinAddr: 0x8C480, symSize: 0x30 }
  - { offset: 0xEFB4B, size: 0x8, addend: 0x0, symName: __RNvYNtNvCsliPDVd4pfgL_15zerofrom_derive25replace_lifetime_and_type20ReplaceLifetimeAndTyNtNtNtCsdGrGZaRBwMb_3syn3gen4fold4Fold9fold_pathB6_, symObjAddr: 0x8710, symBinAddr: 0x8C4B0, symSize: 0x30 }
  - { offset: 0xEFB92, size: 0x8, addend: 0x0, symName: __RNvYNtNvCsliPDVd4pfgL_15zerofrom_derive25replace_lifetime_and_type20ReplaceLifetimeAndTyNtNtNtCsdGrGZaRBwMb_3syn3gen4fold4Fold9fold_spanB6_, symObjAddr: 0x8740, symBinAddr: 0x8C4E0, symSize: 0x20 }
  - { offset: 0xEFBD8, size: 0x8, addend: 0x0, symName: __RNvYNtNvCsliPDVd4pfgL_15zerofrom_derive25replace_lifetime_and_type20ReplaceLifetimeAndTyNtNtNtCsdGrGZaRBwMb_3syn3gen4fold4Fold9fold_stmtB6_, symObjAddr: 0x8760, symBinAddr: 0x8C500, symSize: 0x30 }
  - { offset: 0xEFC1F, size: 0x8, addend: 0x0, symName: __RNvYNtNvCsliPDVd4pfgL_15zerofrom_derive25replace_lifetime_and_type20ReplaceLifetimeAndTyNtNtNtCsdGrGZaRBwMb_3syn3gen4fold4Fold9fold_typeB6_, symObjAddr: 0x8790, symBinAddr: 0x8C530, symSize: 0x30 }
  - { offset: 0xF55B6, size: 0x8, addend: 0x0, symName: __RINvMs0_NtNtNtCsHUR1vrdMJt_3std11collections4hash3mapINtB6_7HashMapNtCsaKzlTDPUHDb_11proc_macro25IdentINtNtCsieiGu2EXtoJ_4core6option6OptionB13_EE3getB13_ECsliPDVd4pfgL_15zerofrom_derive, symObjAddr: 0x0, symBinAddr: 0x8C560, symSize: 0x60 }
  - { offset: 0xF59D7, size: 0x8, addend: 0x0, symName: __RNvXs7_NtNtCscKtU6MdFI5n_10proc_macro6bridge3rpcINtNtNtCsieiGu2EXtoJ_4core3num7nonzero7NonZeromEINtB5_9DecodeMutuE6decodeCsliPDVd4pfgL_15zerofrom_derive, symObjAddr: 0x4520, symBinAddr: 0x90A80, symSize: 0x50 }
  - { offset: 0xF9E58, size: 0x8, addend: 0x0, symName: __RINvXs0_NtNtNtCsieiGu2EXtoJ_4core4iter8adapters3mapINtB6_3MapINtNtCsdGrGZaRBwMb_3syn10punctuated8IntoIterNtCsaKzlTDPUHDb_11proc_macro25IdentENCINvXs8_NtCsjK30CmJ87bX_9hashbrown3setINtB2o_7HashSetB1F_NtNtNtCsHUR1vrdMJt_3std4hash6random11RandomStateEINtNtNtBa_6traits7collect6ExtendB1F_E6extendINtB10_10PunctuatedB1F_NtNtB12_5token5CommaEE0ENtNtB43_8iterator8Iterator4folduNCINvNvB5r_8for_each4callTB1F_uENCINvXs1i_NtB2q_3mapINtB6D_7HashMapB1F_uB3b_EIB3Z_B6m_E6extendBN_E0E0ECsliPDVd4pfgL_15zerofrom_derive, symObjAddr: 0xA0, symBinAddr: 0x8C600, symSize: 0x40 }
  - { offset: 0xF9ECA, size: 0x8, addend: 0x0, symName: __RINvXs0_NtNtNtCsieiGu2EXtoJ_4core4iter8adapters3mapINtB6_3MapINtNtNtBc_5slice4iter4IterNtCs4L8YLU89NU9_12synstructure11VariantInfoENCNvCsliPDVd4pfgL_15zerofrom_derive14zf_derive_impls2_0ENtNtNtBa_6traits8iterator8Iterator8try_folduNCINvNvMsg_NtB8_7flattenINtB3S_13FlattenCompatppE13iter_try_fold7flattenIBY_NtB1p_11BindingInfoEuINtNtNtBc_3ops12control_flow11ControlFlowuENCINvNvXsi_B3S_B45_B2Z_8try_fold7flattenB4R_uB5g_NCINvNvB2Z_3any5checkRB4V_NCB27_s3_0E0E0E0B5g_EB29_, symObjAddr: 0xE0, symBinAddr: 0x8C640, symSize: 0x40 }
  - { offset: 0xF9F6D, size: 0x8, addend: 0x0, symName: __RINvXs0_NtNtNtCsieiGu2EXtoJ_4core4iter8adapters3mapINtB6_3MapINtNtNtBc_5slice4iter4IterNtCsaKzlTDPUHDb_11proc_macro25IdentENCNvCsliPDVd4pfgL_15zerofrom_derive14zf_derive_impls4_0ENtNtNtBa_6traits8iterator8Iterator4folduNCINvNvB2R_8for_each4callNtNtCsdGrGZaRBwMb_3syn8generics14WherePredicateNCINvMsi_NtCslJiobkLta79_5alloc3vecINtB4O_3VecB3U_E14extend_trustedBN_E0E0EB21_, symObjAddr: 0x120, symBinAddr: 0x8C680, symSize: 0x50 }
  - { offset: 0xFA006, size: 0x8, addend: 0x0, symName: __RINvXs0_NtNtNtCsieiGu2EXtoJ_4core4iter8adapters3mapINtB6_3MapINtNtNtBc_5slice4iter4IterNtNtCsdGrGZaRBwMb_3syn8generics9TypeParamENCNvCsliPDVd4pfgL_15zerofrom_derive14zf_derive_impls_0ENtNtNtBa_6traits8iterator8Iterator4folduNCINvNvB2W_8for_each4callNtCsaKzlTDPUHDb_11proc_macro25IdentNCINvMsi_NtCslJiobkLta79_5alloc3vecINtB4H_3VecB3Z_E14extend_trustedBN_E0E0EB27_, symObjAddr: 0x170, symBinAddr: 0x8C6D0, symSize: 0x40 }
  - { offset: 0xFA09D, size: 0x8, addend: 0x0, symName: __RINvXs0_NtNtNtCsieiGu2EXtoJ_4core4iter8adapters3mapINtB6_3MapINtNtNtBc_5slice4iter7IterMutNtNtCsdGrGZaRBwMb_3syn8generics9TypeParamENCNvCsliPDVd4pfgL_15zerofrom_derive14zf_derive_impls0_0ENtNtNtBa_6traits8iterator8Iterator4folduNCINvNvB30_8for_each4callTNtCsaKzlTDPUHDb_11proc_macro25IdentINtNtBc_6option6OptionB44_EENCINvXs1i_NtCsjK30CmJ87bX_9hashbrown3mapINtB5f_7HashMapB44_B4D_NtNtNtCsHUR1vrdMJt_3std4hash6random11RandomStateEINtNtB34_7collect6ExtendB43_E6extendBN_E0E0EB2a_, symObjAddr: 0x1B0, symBinAddr: 0x8C710, symSize: 0x30 }
  - { offset: 0xFA10F, size: 0x8, addend: 0x0, symName: __RINvXs0_NtNtNtCsieiGu2EXtoJ_4core4iter8adapters3mapINtB6_3MapINtNtNtCslJiobkLta79_5alloc3vec9into_iter8IntoIterNtNtCsdGrGZaRBwMb_3syn4attr9AttributeENCINvNtNtB1P_3gen4fold8fold_vecB1L_NtNvCsliPDVd4pfgL_15zerofrom_derive16replace_lifetime15ReplaceLifetimeNvYB2W_NtB2s_4Fold14fold_attributeE0ENtNtNtBa_6traits8iterator8Iterator8try_foldINtNtB12_13in_place_drop11InPlaceDropB1L_ENCINvNtB12_16in_place_collect24write_in_place_with_dropB1L_E0INtNtBc_6result6ResultB5m_zEEB30_, symObjAddr: 0x1E0, symBinAddr: 0x8C740, symSize: 0x40 }
  - { offset: 0xFA18D, size: 0x8, addend: 0x0, symName: __RINvXs0_NtNtNtCsieiGu2EXtoJ_4core4iter8adapters3mapINtB6_3MapINtNtNtCslJiobkLta79_5alloc3vec9into_iter8IntoIterNtNtCsdGrGZaRBwMb_3syn4attr9AttributeENCINvNtNtB1P_3gen4fold8fold_vecB1L_NtNvCsliPDVd4pfgL_15zerofrom_derive25replace_lifetime_and_type20ReplaceLifetimeAndTyNvYB2W_NtB2s_4Fold14fold_attributeE0ENtNtNtBa_6traits8iterator8Iterator8try_foldINtNtB12_13in_place_drop11InPlaceDropB1L_ENCINvNtB12_16in_place_collect24write_in_place_with_dropB1L_E0INtNtBc_6result6ResultB5A_zEEB30_, symObjAddr: 0x220, symBinAddr: 0x8C780, symSize: 0x40 }
  - { offset: 0xFA20B, size: 0x8, addend: 0x0, symName: __RINvXs0_NtNtNtCsieiGu2EXtoJ_4core4iter8adapters3mapINtB6_3MapINtNtNtCslJiobkLta79_5alloc3vec9into_iter8IntoIterNtNtCsdGrGZaRBwMb_3syn4expr3ArmENCINvNtNtB1P_3gen4fold8fold_vecB1L_NtNvCsliPDVd4pfgL_15zerofrom_derive16replace_lifetime15ReplaceLifetimeNvYB2Q_NtB2m_4Fold8fold_armE0ENtNtNtBa_6traits8iterator8Iterator8try_foldINtNtB12_13in_place_drop11InPlaceDropB1L_ENCINvNtB12_16in_place_collect24write_in_place_with_dropB1L_E0INtNtBc_6result6ResultB59_zEEB2U_, symObjAddr: 0x260, symBinAddr: 0x8C7C0, symSize: 0x40 }
  - { offset: 0xFA289, size: 0x8, addend: 0x0, symName: __RINvXs0_NtNtNtCsieiGu2EXtoJ_4core4iter8adapters3mapINtB6_3MapINtNtNtCslJiobkLta79_5alloc3vec9into_iter8IntoIterNtNtCsdGrGZaRBwMb_3syn4expr3ArmENCINvNtNtB1P_3gen4fold8fold_vecB1L_NtNvCsliPDVd4pfgL_15zerofrom_derive25replace_lifetime_and_type20ReplaceLifetimeAndTyNvYB2Q_NtB2m_4Fold8fold_armE0ENtNtNtBa_6traits8iterator8Iterator8try_foldINtNtB12_13in_place_drop11InPlaceDropB1L_ENCINvNtB12_16in_place_collect24write_in_place_with_dropB1L_E0INtNtBc_6result6ResultB5n_zEEB2U_, symObjAddr: 0x2A0, symBinAddr: 0x8C800, symSize: 0x40 }
  - { offset: 0xFA307, size: 0x8, addend: 0x0, symName: __RINvXs0_NtNtNtCsieiGu2EXtoJ_4core4iter8adapters3mapINtB6_3MapINtNtNtCslJiobkLta79_5alloc3vec9into_iter8IntoIterNtNtCsdGrGZaRBwMb_3syn4item11ForeignItemENCINvNtNtB1P_3gen4fold8fold_vecB1L_NtNvCsliPDVd4pfgL_15zerofrom_derive16replace_lifetime15ReplaceLifetimeNvYB2Z_NtB2v_4Fold17fold_foreign_itemE0ENtNtNtBa_6traits8iterator8Iterator8try_foldINtNtB12_13in_place_drop11InPlaceDropB1L_ENCINvNtB12_16in_place_collect24write_in_place_with_dropB1L_E0INtNtBc_6result6ResultB5s_zEEB33_, symObjAddr: 0x2E0, symBinAddr: 0x8C840, symSize: 0x40 }
  - { offset: 0xFA385, size: 0x8, addend: 0x0, symName: __RINvXs0_NtNtNtCsieiGu2EXtoJ_4core4iter8adapters3mapINtB6_3MapINtNtNtCslJiobkLta79_5alloc3vec9into_iter8IntoIterNtNtCsdGrGZaRBwMb_3syn4item11ForeignItemENCINvNtNtB1P_3gen4fold8fold_vecB1L_NtNvCsliPDVd4pfgL_15zerofrom_derive25replace_lifetime_and_type20ReplaceLifetimeAndTyNvYB2Z_NtB2v_4Fold17fold_foreign_itemE0ENtNtNtBa_6traits8iterator8Iterator8try_foldINtNtB12_13in_place_drop11InPlaceDropB1L_ENCINvNtB12_16in_place_collect24write_in_place_with_dropB1L_E0INtNtBc_6result6ResultB5G_zEEB33_, symObjAddr: 0x320, symBinAddr: 0x8C880, symSize: 0x40 }
  - { offset: 0xFA403, size: 0x8, addend: 0x0, symName: __RINvXs0_NtNtNtCsieiGu2EXtoJ_4core4iter8adapters3mapINtB6_3MapINtNtNtCslJiobkLta79_5alloc3vec9into_iter8IntoIterNtNtCsdGrGZaRBwMb_3syn4item4ItemENCINvNtNtB1P_3gen4fold8fold_vecB1L_NtNvCsliPDVd4pfgL_15zerofrom_derive16replace_lifetime15ReplaceLifetimeNvYB2R_NtB2n_4Fold9fold_itemE0ENtNtNtBa_6traits8iterator8Iterator8try_foldINtNtB12_13in_place_drop11InPlaceDropB1L_ENCINvNtB12_16in_place_collect24write_in_place_with_dropB1L_E0INtNtBc_6result6ResultB5b_zEEB2V_, symObjAddr: 0x360, symBinAddr: 0x8C8C0, symSize: 0x40 }
  - { offset: 0xFA481, size: 0x8, addend: 0x0, symName: __RINvXs0_NtNtNtCsieiGu2EXtoJ_4core4iter8adapters3mapINtB6_3MapINtNtNtCslJiobkLta79_5alloc3vec9into_iter8IntoIterNtNtCsdGrGZaRBwMb_3syn4item4ItemENCINvNtNtB1P_3gen4fold8fold_vecB1L_NtNvCsliPDVd4pfgL_15zerofrom_derive25replace_lifetime_and_type20ReplaceLifetimeAndTyNvYB2R_NtB2n_4Fold9fold_itemE0ENtNtNtBa_6traits8iterator8Iterator8try_foldINtNtB12_13in_place_drop11InPlaceDropB1L_ENCINvNtB12_16in_place_collect24write_in_place_with_dropB1L_E0INtNtBc_6result6ResultB5p_zEEB2V_, symObjAddr: 0x3A0, symBinAddr: 0x8C900, symSize: 0x40 }
  - { offset: 0xFA4FF, size: 0x8, addend: 0x0, symName: __RINvXs0_NtNtNtCsieiGu2EXtoJ_4core4iter8adapters3mapINtB6_3MapINtNtNtCslJiobkLta79_5alloc3vec9into_iter8IntoIterNtNtCsdGrGZaRBwMb_3syn4item8ImplItemENCINvNtNtB1P_3gen4fold8fold_vecB1L_NtNvCsliPDVd4pfgL_15zerofrom_derive16replace_lifetime15ReplaceLifetimeNvYB2V_NtB2r_4Fold14fold_impl_itemE0ENtNtNtBa_6traits8iterator8Iterator8try_foldINtNtB12_13in_place_drop11InPlaceDropB1L_ENCINvNtB12_16in_place_collect24write_in_place_with_dropB1L_E0INtNtBc_6result6ResultB5l_zEEB2Z_, symObjAddr: 0x3E0, symBinAddr: 0x8C940, symSize: 0x40 }
  - { offset: 0xFA57D, size: 0x8, addend: 0x0, symName: __RINvXs0_NtNtNtCsieiGu2EXtoJ_4core4iter8adapters3mapINtB6_3MapINtNtNtCslJiobkLta79_5alloc3vec9into_iter8IntoIterNtNtCsdGrGZaRBwMb_3syn4item8ImplItemENCINvNtNtB1P_3gen4fold8fold_vecB1L_NtNvCsliPDVd4pfgL_15zerofrom_derive25replace_lifetime_and_type20ReplaceLifetimeAndTyNvYB2V_NtB2r_4Fold14fold_impl_itemE0ENtNtNtBa_6traits8iterator8Iterator8try_foldINtNtB12_13in_place_drop11InPlaceDropB1L_ENCINvNtB12_16in_place_collect24write_in_place_with_dropB1L_E0INtNtBc_6result6ResultB5z_zEEB2Z_, symObjAddr: 0x420, symBinAddr: 0x8C980, symSize: 0x40 }
  - { offset: 0xFA5FB, size: 0x8, addend: 0x0, symName: __RINvXs0_NtNtNtCsieiGu2EXtoJ_4core4iter8adapters3mapINtB6_3MapINtNtNtCslJiobkLta79_5alloc3vec9into_iter8IntoIterNtNtCsdGrGZaRBwMb_3syn4item9TraitItemENCINvNtNtB1P_3gen4fold8fold_vecB1L_NtNvCsliPDVd4pfgL_15zerofrom_derive16replace_lifetime15ReplaceLifetimeNvYB2W_NtB2s_4Fold15fold_trait_itemE0ENtNtNtBa_6traits8iterator8Iterator8try_foldINtNtB12_13in_place_drop11InPlaceDropB1L_ENCINvNtB12_16in_place_collect24write_in_place_with_dropB1L_E0INtNtBc_6result6ResultB5n_zEEB30_, symObjAddr: 0x460, symBinAddr: 0x8C9C0, symSize: 0x40 }
  - { offset: 0xFA679, size: 0x8, addend: 0x0, symName: __RINvXs0_NtNtNtCsieiGu2EXtoJ_4core4iter8adapters3mapINtB6_3MapINtNtNtCslJiobkLta79_5alloc3vec9into_iter8IntoIterNtNtCsdGrGZaRBwMb_3syn4item9TraitItemENCINvNtNtB1P_3gen4fold8fold_vecB1L_NtNvCsliPDVd4pfgL_15zerofrom_derive25replace_lifetime_and_type20ReplaceLifetimeAndTyNvYB2W_NtB2s_4Fold15fold_trait_itemE0ENtNtNtBa_6traits8iterator8Iterator8try_foldINtNtB12_13in_place_drop11InPlaceDropB1L_ENCINvNtB12_16in_place_collect24write_in_place_with_dropB1L_E0INtNtBc_6result6ResultB5B_zEEB30_, symObjAddr: 0x4A0, symBinAddr: 0x8CA00, symSize: 0x40 }
  - { offset: 0xFA6F7, size: 0x8, addend: 0x0, symName: __RINvXs0_NtNtNtCsieiGu2EXtoJ_4core4iter8adapters3mapINtB6_3MapINtNtNtCslJiobkLta79_5alloc3vec9into_iter8IntoIterNtNtCsdGrGZaRBwMb_3syn4stmt4StmtENCINvNtNtB1P_3gen4fold8fold_vecB1L_NtNvCsliPDVd4pfgL_15zerofrom_derive16replace_lifetime15ReplaceLifetimeNvYB2R_NtB2n_4Fold9fold_stmtE0ENtNtNtBa_6traits8iterator8Iterator8try_foldINtNtB12_13in_place_drop11InPlaceDropB1L_ENCINvNtB12_16in_place_collect24write_in_place_with_dropB1L_E0INtNtBc_6result6ResultB5b_zEEB2V_, symObjAddr: 0x4E0, symBinAddr: 0x8CA40, symSize: 0x40 }
  - { offset: 0xFA775, size: 0x8, addend: 0x0, symName: __RINvXs0_NtNtNtCsieiGu2EXtoJ_4core4iter8adapters3mapINtB6_3MapINtNtNtCslJiobkLta79_5alloc3vec9into_iter8IntoIterNtNtCsdGrGZaRBwMb_3syn4stmt4StmtENCINvNtNtB1P_3gen4fold8fold_vecB1L_NtNvCsliPDVd4pfgL_15zerofrom_derive25replace_lifetime_and_type20ReplaceLifetimeAndTyNvYB2R_NtB2n_4Fold9fold_stmtE0ENtNtNtBa_6traits8iterator8Iterator8try_foldINtNtB12_13in_place_drop11InPlaceDropB1L_ENCINvNtB12_16in_place_collect24write_in_place_with_dropB1L_E0INtNtBc_6result6ResultB5p_zEEB2V_, symObjAddr: 0x520, symBinAddr: 0x8CA80, symSize: 0x40 }
  - { offset: 0xFA7F3, size: 0x8, addend: 0x0, symName: __RNvXs0_NtNtNtCsieiGu2EXtoJ_4core4iter8adapters3mapINtB5_3MapINtNtCsdGrGZaRBwMb_3syn10punctuated8IntoIterNtCsaKzlTDPUHDb_11proc_macro25IdentENCINvXs8_NtCsjK30CmJ87bX_9hashbrown3setINtB2n_7HashSetB1E_NtNtNtCsHUR1vrdMJt_3std4hash6random11RandomStateEINtNtNtB9_6traits7collect6ExtendB1E_E6extendINtBZ_10PunctuatedB1E_NtNtB11_5token5CommaEE0ENtNtB42_8iterator8Iterator9size_hintCsliPDVd4pfgL_15zerofrom_derive, symObjAddr: 0x4360, symBinAddr: 0x908C0, symSize: 0x30 }
  - { offset: 0xFA83A, size: 0x8, addend: 0x0, symName: __RNvXs0_NtNtNtCsieiGu2EXtoJ_4core4iter8adapters3mapINtB5_3MapINtNtNtBb_5slice4iter4IterNtCsaKzlTDPUHDb_11proc_macro25IdentENCNvCsliPDVd4pfgL_15zerofrom_derive14zf_derive_impls4_0ENtNtNtB9_6traits8iterator8Iterator9size_hintB20_, symObjAddr: 0x4390, symBinAddr: 0x908F0, symSize: 0x30 }
  - { offset: 0xFA881, size: 0x8, addend: 0x0, symName: __RNvXs0_NtNtNtCsieiGu2EXtoJ_4core4iter8adapters3mapINtB5_3MapINtNtNtBb_5slice4iter4IterNtNtCsdGrGZaRBwMb_3syn8generics9TypeParamENCNvCsliPDVd4pfgL_15zerofrom_derive14zf_derive_impls_0ENtNtNtB9_6traits8iterator8Iterator9size_hintB26_, symObjAddr: 0x43C0, symBinAddr: 0x90920, symSize: 0x30 }
  - { offset: 0xFA8C8, size: 0x8, addend: 0x0, symName: __RNvXs0_NtNtNtCsieiGu2EXtoJ_4core4iter8adapters3mapINtB5_3MapINtNtNtBb_5slice4iter7IterMutNtNtCsdGrGZaRBwMb_3syn8generics9TypeParamENCNvCsliPDVd4pfgL_15zerofrom_derive14zf_derive_impls0_0ENtNtNtB9_6traits8iterator8Iterator9size_hintB29_, symObjAddr: 0x43F0, symBinAddr: 0x90950, symSize: 0x30 }
  - { offset: 0xFA90F, size: 0x8, addend: 0x0, symName: __RNvXs0_NtNtNtCsieiGu2EXtoJ_4core4iter8adapters3mapINtB5_3MapNtNtCsdGrGZaRBwMb_3syn8generics10TypeParamsNCNvCsliPDVd4pfgL_15zerofrom_derive14zf_derive_impl0ENtNtNtB9_6traits8iterator8Iterator4nextB1H_, symObjAddr: 0x4420, symBinAddr: 0x90980, symSize: 0xD0 }
  - { offset: 0xFA9BC, size: 0x8, addend: 0x0, symName: __RNvXs0_NtNtNtCsieiGu2EXtoJ_4core4iter8adapters3mapINtB5_3MapNtNtCsdGrGZaRBwMb_3syn8generics10TypeParamsNCNvCsliPDVd4pfgL_15zerofrom_derive14zf_derive_impl0ENtNtNtB9_6traits8iterator8Iterator9size_hintB1H_, symObjAddr: 0x44F0, symBinAddr: 0x90A50, symSize: 0x30 }
  - { offset: 0xFAA84, size: 0x8, addend: 0x0, symName: __RNCINvNtNtNtCsieiGu2EXtoJ_4core4iter8adapters3map12map_try_foldNtNtCsdGrGZaRBwMb_3syn4attr9AttributeBZ_INtNtNtCslJiobkLta79_5alloc3vec13in_place_drop11InPlaceDropBZ_EINtNtBa_6result6ResultB1D_zENCINvNtNtB13_3gen4fold8fold_vecBZ_NtNvCsliPDVd4pfgL_15zerofrom_derive16replace_lifetime15ReplaceLifetimeNvYB3E_NtB3b_4Fold14fold_attributeE0NCINvNtB1I_16in_place_collect24write_in_place_with_dropBZ_E0E0B3I_, symObjAddr: 0x1260, symBinAddr: 0x8D7C0, symSize: 0x150 }
  - { offset: 0xFAB17, size: 0x8, addend: 0x0, symName: __RNCINvNtNtNtCsieiGu2EXtoJ_4core4iter8adapters3map12map_try_foldNtNtCsdGrGZaRBwMb_3syn4attr9AttributeBZ_INtNtNtCslJiobkLta79_5alloc3vec13in_place_drop11InPlaceDropBZ_EINtNtBa_6result6ResultB1D_zENCINvNtNtB13_3gen4fold8fold_vecBZ_NtNvCsliPDVd4pfgL_15zerofrom_derive25replace_lifetime_and_type20ReplaceLifetimeAndTyNvYB3E_NtB3b_4Fold14fold_attributeE0NCINvNtB1I_16in_place_collect24write_in_place_with_dropBZ_E0E0B3I_, symObjAddr: 0x13B0, symBinAddr: 0x8D910, symSize: 0x150 }
  - { offset: 0xFABAA, size: 0x8, addend: 0x0, symName: __RNCINvNtNtNtCsieiGu2EXtoJ_4core4iter8adapters3map12map_try_foldNtNtCsdGrGZaRBwMb_3syn4expr3ArmBZ_INtNtNtCslJiobkLta79_5alloc3vec13in_place_drop11InPlaceDropBZ_EINtNtBa_6result6ResultB1x_zENCINvNtNtB13_3gen4fold8fold_vecBZ_NtNvCsliPDVd4pfgL_15zerofrom_derive16replace_lifetime15ReplaceLifetimeNvYB3y_NtB35_4Fold8fold_armE0NCINvNtB1C_16in_place_collect24write_in_place_with_dropBZ_E0E0B3C_, symObjAddr: 0x1500, symBinAddr: 0x8DA60, symSize: 0x150 }
  - { offset: 0xFAC3D, size: 0x8, addend: 0x0, symName: __RNCINvNtNtNtCsieiGu2EXtoJ_4core4iter8adapters3map12map_try_foldNtNtCsdGrGZaRBwMb_3syn4expr3ArmBZ_INtNtNtCslJiobkLta79_5alloc3vec13in_place_drop11InPlaceDropBZ_EINtNtBa_6result6ResultB1x_zENCINvNtNtB13_3gen4fold8fold_vecBZ_NtNvCsliPDVd4pfgL_15zerofrom_derive25replace_lifetime_and_type20ReplaceLifetimeAndTyNvYB3y_NtB35_4Fold8fold_armE0NCINvNtB1C_16in_place_collect24write_in_place_with_dropBZ_E0E0B3C_, symObjAddr: 0x1650, symBinAddr: 0x8DBB0, symSize: 0x150 }
  - { offset: 0xFACD0, size: 0x8, addend: 0x0, symName: __RNCINvNtNtNtCsieiGu2EXtoJ_4core4iter8adapters3map12map_try_foldNtNtCsdGrGZaRBwMb_3syn4item11ForeignItemBZ_INtNtNtCslJiobkLta79_5alloc3vec13in_place_drop11InPlaceDropBZ_EINtNtBa_6result6ResultB1G_zENCINvNtNtB13_3gen4fold8fold_vecBZ_NtNvCsliPDVd4pfgL_15zerofrom_derive16replace_lifetime15ReplaceLifetimeNvYB3H_NtB3e_4Fold17fold_foreign_itemE0NCINvNtB1L_16in_place_collect24write_in_place_with_dropBZ_E0E0B3L_, symObjAddr: 0x17A0, symBinAddr: 0x8DD00, symSize: 0x150 }
  - { offset: 0xFAD63, size: 0x8, addend: 0x0, symName: __RNCINvNtNtNtCsieiGu2EXtoJ_4core4iter8adapters3map12map_try_foldNtNtCsdGrGZaRBwMb_3syn4item11ForeignItemBZ_INtNtNtCslJiobkLta79_5alloc3vec13in_place_drop11InPlaceDropBZ_EINtNtBa_6result6ResultB1G_zENCINvNtNtB13_3gen4fold8fold_vecBZ_NtNvCsliPDVd4pfgL_15zerofrom_derive25replace_lifetime_and_type20ReplaceLifetimeAndTyNvYB3H_NtB3e_4Fold17fold_foreign_itemE0NCINvNtB1L_16in_place_collect24write_in_place_with_dropBZ_E0E0B3L_, symObjAddr: 0x18F0, symBinAddr: 0x8DE50, symSize: 0x150 }
  - { offset: 0xFADF6, size: 0x8, addend: 0x0, symName: __RNCINvNtNtNtCsieiGu2EXtoJ_4core4iter8adapters3map12map_try_foldNtNtCsdGrGZaRBwMb_3syn4item4ItemBZ_INtNtNtCslJiobkLta79_5alloc3vec13in_place_drop11InPlaceDropBZ_EINtNtBa_6result6ResultB1y_zENCINvNtNtB13_3gen4fold8fold_vecBZ_NtNvCsliPDVd4pfgL_15zerofrom_derive16replace_lifetime15ReplaceLifetimeNvYB3z_NtB36_4Fold9fold_itemE0NCINvNtB1D_16in_place_collect24write_in_place_with_dropBZ_E0E0B3D_, symObjAddr: 0x1A40, symBinAddr: 0x8DFA0, symSize: 0x150 }
  - { offset: 0xFAE89, size: 0x8, addend: 0x0, symName: __RNCINvNtNtNtCsieiGu2EXtoJ_4core4iter8adapters3map12map_try_foldNtNtCsdGrGZaRBwMb_3syn4item4ItemBZ_INtNtNtCslJiobkLta79_5alloc3vec13in_place_drop11InPlaceDropBZ_EINtNtBa_6result6ResultB1y_zENCINvNtNtB13_3gen4fold8fold_vecBZ_NtNvCsliPDVd4pfgL_15zerofrom_derive25replace_lifetime_and_type20ReplaceLifetimeAndTyNvYB3z_NtB36_4Fold9fold_itemE0NCINvNtB1D_16in_place_collect24write_in_place_with_dropBZ_E0E0B3D_, symObjAddr: 0x1B90, symBinAddr: 0x8E0F0, symSize: 0x150 }
  - { offset: 0xFAF1C, size: 0x8, addend: 0x0, symName: __RNCINvNtNtNtCsieiGu2EXtoJ_4core4iter8adapters3map12map_try_foldNtNtCsdGrGZaRBwMb_3syn4item8ImplItemBZ_INtNtNtCslJiobkLta79_5alloc3vec13in_place_drop11InPlaceDropBZ_EINtNtBa_6result6ResultB1C_zENCINvNtNtB13_3gen4fold8fold_vecBZ_NtNvCsliPDVd4pfgL_15zerofrom_derive16replace_lifetime15ReplaceLifetimeNvYB3D_NtB3a_4Fold14fold_impl_itemE0NCINvNtB1H_16in_place_collect24write_in_place_with_dropBZ_E0E0B3H_, symObjAddr: 0x1CE0, symBinAddr: 0x8E240, symSize: 0x150 }
  - { offset: 0xFAFAF, size: 0x8, addend: 0x0, symName: __RNCINvNtNtNtCsieiGu2EXtoJ_4core4iter8adapters3map12map_try_foldNtNtCsdGrGZaRBwMb_3syn4item8ImplItemBZ_INtNtNtCslJiobkLta79_5alloc3vec13in_place_drop11InPlaceDropBZ_EINtNtBa_6result6ResultB1C_zENCINvNtNtB13_3gen4fold8fold_vecBZ_NtNvCsliPDVd4pfgL_15zerofrom_derive25replace_lifetime_and_type20ReplaceLifetimeAndTyNvYB3D_NtB3a_4Fold14fold_impl_itemE0NCINvNtB1H_16in_place_collect24write_in_place_with_dropBZ_E0E0B3H_, symObjAddr: 0x1E30, symBinAddr: 0x8E390, symSize: 0x150 }
  - { offset: 0xFB042, size: 0x8, addend: 0x0, symName: __RNCINvNtNtNtCsieiGu2EXtoJ_4core4iter8adapters3map12map_try_foldNtNtCsdGrGZaRBwMb_3syn4item9TraitItemBZ_INtNtNtCslJiobkLta79_5alloc3vec13in_place_drop11InPlaceDropBZ_EINtNtBa_6result6ResultB1D_zENCINvNtNtB13_3gen4fold8fold_vecBZ_NtNvCsliPDVd4pfgL_15zerofrom_derive16replace_lifetime15ReplaceLifetimeNvYB3E_NtB3b_4Fold15fold_trait_itemE0NCINvNtB1I_16in_place_collect24write_in_place_with_dropBZ_E0E0B3I_, symObjAddr: 0x1F80, symBinAddr: 0x8E4E0, symSize: 0x150 }
  - { offset: 0xFB0D5, size: 0x8, addend: 0x0, symName: __RNCINvNtNtNtCsieiGu2EXtoJ_4core4iter8adapters3map12map_try_foldNtNtCsdGrGZaRBwMb_3syn4item9TraitItemBZ_INtNtNtCslJiobkLta79_5alloc3vec13in_place_drop11InPlaceDropBZ_EINtNtBa_6result6ResultB1D_zENCINvNtNtB13_3gen4fold8fold_vecBZ_NtNvCsliPDVd4pfgL_15zerofrom_derive25replace_lifetime_and_type20ReplaceLifetimeAndTyNvYB3E_NtB3b_4Fold15fold_trait_itemE0NCINvNtB1I_16in_place_collect24write_in_place_with_dropBZ_E0E0B3I_, symObjAddr: 0x20D0, symBinAddr: 0x8E630, symSize: 0x150 }
  - { offset: 0xFB168, size: 0x8, addend: 0x0, symName: __RNCINvNtNtNtCsieiGu2EXtoJ_4core4iter8adapters3map12map_try_foldNtNtCsdGrGZaRBwMb_3syn4stmt4StmtBZ_INtNtNtCslJiobkLta79_5alloc3vec13in_place_drop11InPlaceDropBZ_EINtNtBa_6result6ResultB1y_zENCINvNtNtB13_3gen4fold8fold_vecBZ_NtNvCsliPDVd4pfgL_15zerofrom_derive16replace_lifetime15ReplaceLifetimeNvYB3z_NtB36_4Fold9fold_stmtE0NCINvNtB1D_16in_place_collect24write_in_place_with_dropBZ_E0E0B3D_, symObjAddr: 0x2220, symBinAddr: 0x8E780, symSize: 0x150 }
  - { offset: 0xFB1FB, size: 0x8, addend: 0x0, symName: __RNCINvNtNtNtCsieiGu2EXtoJ_4core4iter8adapters3map12map_try_foldNtNtCsdGrGZaRBwMb_3syn4stmt4StmtBZ_INtNtNtCslJiobkLta79_5alloc3vec13in_place_drop11InPlaceDropBZ_EINtNtBa_6result6ResultB1y_zENCINvNtNtB13_3gen4fold8fold_vecBZ_NtNvCsliPDVd4pfgL_15zerofrom_derive25replace_lifetime_and_type20ReplaceLifetimeAndTyNvYB3z_NtB36_4Fold9fold_stmtE0NCINvNtB1D_16in_place_collect24write_in_place_with_dropBZ_E0E0B3D_, symObjAddr: 0x2370, symBinAddr: 0x8E8D0, symSize: 0x150 }
  - { offset: 0xFB28E, size: 0x8, addend: 0x0, symName: __RNCINvNtNtNtCsieiGu2EXtoJ_4core4iter8adapters3map12map_try_foldRNtCs4L8YLU89NU9_12synstructure11VariantInfoINtNtNtBa_5slice4iter4IterNtB12_11BindingInfoEuINtNtNtBa_3ops12control_flow11ControlFlowuENCNvCsliPDVd4pfgL_15zerofrom_derive14zf_derive_impls2_0NCINvNvMsg_NtB6_7flattenINtB4d_13FlattenCompatppE13iter_try_fold7flattenB1H_uB2s_NCINvNvXsi_B4d_B4q_NtNtNtB8_6traits8iterator8Iterator8try_fold7flattenB1H_uB2s_NCINvNvB5E_3any5checkRB27_NCB3b_s3_0E0E0E0E0B3d_, symObjAddr: 0x24C0, symBinAddr: 0x8EA20, symSize: 0x80 }
  - { offset: 0xFB3B6, size: 0x8, addend: 0x0, symName: __RNCINvNtNtNtCsieiGu2EXtoJ_4core4iter8adapters3map8map_foldNtCsaKzlTDPUHDb_11proc_macro25IdentTBU_uEuNCINvXs8_NtCsjK30CmJ87bX_9hashbrown3setINtB1J_7HashSetBU_NtNtNtCsHUR1vrdMJt_3std4hash6random11RandomStateEINtNtNtB8_6traits7collect6ExtendBU_E6extendINtNtCsdGrGZaRBwMb_3syn10punctuated10PunctuatedBU_NtNtB44_5token5CommaEE0NCINvNvNtNtB3n_8iterator8Iterator8for_each4callB1t_NCINvXs1i_NtB1L_3mapINtB69_7HashMapBU_uB2v_EIB3j_B1t_E6extendINtB4_3MapINtB42_8IntoIterBU_EB1A_EE0E0E0CsliPDVd4pfgL_15zerofrom_derive, symObjAddr: 0x2540, symBinAddr: 0x8EAA0, symSize: 0xA0 }
  - { offset: 0xFB43C, size: 0x8, addend: 0x0, symName: __RNCINvNtNtNtCsieiGu2EXtoJ_4core4iter8adapters3map8map_foldQNtNtCsdGrGZaRBwMb_3syn8generics9TypeParamTNtCsaKzlTDPUHDb_11proc_macro25IdentINtNtBa_6option6OptionB1B_EEuNCNvCsliPDVd4pfgL_15zerofrom_derive14zf_derive_impls0_0NCINvNvNtNtNtB8_6traits8iterator8Iterator8for_each4callB1A_NCINvXs1i_NtCsjK30CmJ87bX_9hashbrown3mapINtB4D_7HashMapB1B_B2a_NtNtNtCsHUR1vrdMJt_3std4hash6random11RandomStateEINtNtB3H_7collect6ExtendB1A_E6extendINtB4_3MapINtNtNtBa_5slice4iter7IterMutBV_EB2D_EE0E0E0B2H_, symObjAddr: 0x25E0, symBinAddr: 0x8EB40, symSize: 0xB0 }
  - { offset: 0xFB4C1, size: 0x8, addend: 0x0, symName: __RNCINvNtNtNtCsieiGu2EXtoJ_4core4iter8adapters3map8map_foldRNtCsaKzlTDPUHDb_11proc_macro25IdentNtNtCsdGrGZaRBwMb_3syn8generics14WherePredicateuNCNvCsliPDVd4pfgL_15zerofrom_derive14zf_derive_impls4_0NCINvNvNtNtNtB8_6traits8iterator8Iterator8for_each4callB1u_NCINvMsi_NtCslJiobkLta79_5alloc3vecINtB4f_3VecB1u_E14extend_trustedINtB4_3MapINtNtNtBa_5slice4iter4IterBV_EB2g_EE0E0E0B2k_, symObjAddr: 0x2690, symBinAddr: 0x8EBF0, symSize: 0xA0 }
  - { offset: 0xFB546, size: 0x8, addend: 0x0, symName: __RNCINvNtNtNtCsieiGu2EXtoJ_4core4iter8adapters3map8map_foldRNtNtCsdGrGZaRBwMb_3syn8generics9TypeParamNtCsaKzlTDPUHDb_11proc_macro25IdentuNCNvCsliPDVd4pfgL_15zerofrom_derive14zf_derive_impls_0NCINvNvNtNtNtB8_6traits8iterator8Iterator8for_each4callB1A_NCINvMsi_NtCslJiobkLta79_5alloc3vecINtB48_3VecB1A_E14extend_trustedINtB4_3MapINtNtNtBa_5slice4iter4IterBV_EB2a_EE0E0E0B2e_, symObjAddr: 0x2730, symBinAddr: 0x8EC90, symSize: 0x80 }
  - { offset: 0xFB658, size: 0x8, addend: 0x0, symName: __RNvXs9_NtNtNtCsieiGu2EXtoJ_4core4iter8adapters3mapINtB5_3MapINtNtNtCslJiobkLta79_5alloc3vec9into_iter8IntoIterNtNtCsdGrGZaRBwMb_3syn4attr9AttributeENCINvNtNtB1O_3gen4fold8fold_vecB1K_NtNvCsliPDVd4pfgL_15zerofrom_derive16replace_lifetime15ReplaceLifetimeNvYB2V_NtB2r_4Fold14fold_attributeE0ENtB7_10SourceIter8as_innerB2Z_, symObjAddr: 0x4570, symBinAddr: 0x90AD0, symSize: 0x20 }
  - { offset: 0xFB696, size: 0x8, addend: 0x0, symName: __RNvXs9_NtNtNtCsieiGu2EXtoJ_4core4iter8adapters3mapINtB5_3MapINtNtNtCslJiobkLta79_5alloc3vec9into_iter8IntoIterNtNtCsdGrGZaRBwMb_3syn4attr9AttributeENCINvNtNtB1O_3gen4fold8fold_vecB1K_NtNvCsliPDVd4pfgL_15zerofrom_derive25replace_lifetime_and_type20ReplaceLifetimeAndTyNvYB2V_NtB2r_4Fold14fold_attributeE0ENtB7_10SourceIter8as_innerB2Z_, symObjAddr: 0x4590, symBinAddr: 0x90AF0, symSize: 0x20 }
  - { offset: 0xFB6D4, size: 0x8, addend: 0x0, symName: __RNvXs9_NtNtNtCsieiGu2EXtoJ_4core4iter8adapters3mapINtB5_3MapINtNtNtCslJiobkLta79_5alloc3vec9into_iter8IntoIterNtNtCsdGrGZaRBwMb_3syn4expr3ArmENCINvNtNtB1O_3gen4fold8fold_vecB1K_NtNvCsliPDVd4pfgL_15zerofrom_derive16replace_lifetime15ReplaceLifetimeNvYB2P_NtB2l_4Fold8fold_armE0ENtB7_10SourceIter8as_innerB2T_, symObjAddr: 0x45B0, symBinAddr: 0x90B10, symSize: 0x20 }
  - { offset: 0xFB712, size: 0x8, addend: 0x0, symName: __RNvXs9_NtNtNtCsieiGu2EXtoJ_4core4iter8adapters3mapINtB5_3MapINtNtNtCslJiobkLta79_5alloc3vec9into_iter8IntoIterNtNtCsdGrGZaRBwMb_3syn4expr3ArmENCINvNtNtB1O_3gen4fold8fold_vecB1K_NtNvCsliPDVd4pfgL_15zerofrom_derive25replace_lifetime_and_type20ReplaceLifetimeAndTyNvYB2P_NtB2l_4Fold8fold_armE0ENtB7_10SourceIter8as_innerB2T_, symObjAddr: 0x45D0, symBinAddr: 0x90B30, symSize: 0x20 }
  - { offset: 0xFB750, size: 0x8, addend: 0x0, symName: __RNvXs9_NtNtNtCsieiGu2EXtoJ_4core4iter8adapters3mapINtB5_3MapINtNtNtCslJiobkLta79_5alloc3vec9into_iter8IntoIterNtNtCsdGrGZaRBwMb_3syn4item11ForeignItemENCINvNtNtB1O_3gen4fold8fold_vecB1K_NtNvCsliPDVd4pfgL_15zerofrom_derive16replace_lifetime15ReplaceLifetimeNvYB2Y_NtB2u_4Fold17fold_foreign_itemE0ENtB7_10SourceIter8as_innerB32_, symObjAddr: 0x45F0, symBinAddr: 0x90B50, symSize: 0x20 }
  - { offset: 0xFB78E, size: 0x8, addend: 0x0, symName: __RNvXs9_NtNtNtCsieiGu2EXtoJ_4core4iter8adapters3mapINtB5_3MapINtNtNtCslJiobkLta79_5alloc3vec9into_iter8IntoIterNtNtCsdGrGZaRBwMb_3syn4item11ForeignItemENCINvNtNtB1O_3gen4fold8fold_vecB1K_NtNvCsliPDVd4pfgL_15zerofrom_derive25replace_lifetime_and_type20ReplaceLifetimeAndTyNvYB2Y_NtB2u_4Fold17fold_foreign_itemE0ENtB7_10SourceIter8as_innerB32_, symObjAddr: 0x4610, symBinAddr: 0x90B70, symSize: 0x20 }
  - { offset: 0xFB7CC, size: 0x8, addend: 0x0, symName: __RNvXs9_NtNtNtCsieiGu2EXtoJ_4core4iter8adapters3mapINtB5_3MapINtNtNtCslJiobkLta79_5alloc3vec9into_iter8IntoIterNtNtCsdGrGZaRBwMb_3syn4item4ItemENCINvNtNtB1O_3gen4fold8fold_vecB1K_NtNvCsliPDVd4pfgL_15zerofrom_derive16replace_lifetime15ReplaceLifetimeNvYB2Q_NtB2m_4Fold9fold_itemE0ENtB7_10SourceIter8as_innerB2U_, symObjAddr: 0x4630, symBinAddr: 0x90B90, symSize: 0x20 }
  - { offset: 0xFB80A, size: 0x8, addend: 0x0, symName: __RNvXs9_NtNtNtCsieiGu2EXtoJ_4core4iter8adapters3mapINtB5_3MapINtNtNtCslJiobkLta79_5alloc3vec9into_iter8IntoIterNtNtCsdGrGZaRBwMb_3syn4item4ItemENCINvNtNtB1O_3gen4fold8fold_vecB1K_NtNvCsliPDVd4pfgL_15zerofrom_derive25replace_lifetime_and_type20ReplaceLifetimeAndTyNvYB2Q_NtB2m_4Fold9fold_itemE0ENtB7_10SourceIter8as_innerB2U_, symObjAddr: 0x4650, symBinAddr: 0x90BB0, symSize: 0x20 }
  - { offset: 0xFB848, size: 0x8, addend: 0x0, symName: __RNvXs9_NtNtNtCsieiGu2EXtoJ_4core4iter8adapters3mapINtB5_3MapINtNtNtCslJiobkLta79_5alloc3vec9into_iter8IntoIterNtNtCsdGrGZaRBwMb_3syn4item8ImplItemENCINvNtNtB1O_3gen4fold8fold_vecB1K_NtNvCsliPDVd4pfgL_15zerofrom_derive16replace_lifetime15ReplaceLifetimeNvYB2U_NtB2q_4Fold14fold_impl_itemE0ENtB7_10SourceIter8as_innerB2Y_, symObjAddr: 0x4670, symBinAddr: 0x90BD0, symSize: 0x20 }
  - { offset: 0xFB886, size: 0x8, addend: 0x0, symName: __RNvXs9_NtNtNtCsieiGu2EXtoJ_4core4iter8adapters3mapINtB5_3MapINtNtNtCslJiobkLta79_5alloc3vec9into_iter8IntoIterNtNtCsdGrGZaRBwMb_3syn4item8ImplItemENCINvNtNtB1O_3gen4fold8fold_vecB1K_NtNvCsliPDVd4pfgL_15zerofrom_derive25replace_lifetime_and_type20ReplaceLifetimeAndTyNvYB2U_NtB2q_4Fold14fold_impl_itemE0ENtB7_10SourceIter8as_innerB2Y_, symObjAddr: 0x4690, symBinAddr: 0x90BF0, symSize: 0x20 }
  - { offset: 0xFB8C4, size: 0x8, addend: 0x0, symName: __RNvXs9_NtNtNtCsieiGu2EXtoJ_4core4iter8adapters3mapINtB5_3MapINtNtNtCslJiobkLta79_5alloc3vec9into_iter8IntoIterNtNtCsdGrGZaRBwMb_3syn4item9TraitItemENCINvNtNtB1O_3gen4fold8fold_vecB1K_NtNvCsliPDVd4pfgL_15zerofrom_derive16replace_lifetime15ReplaceLifetimeNvYB2V_NtB2r_4Fold15fold_trait_itemE0ENtB7_10SourceIter8as_innerB2Z_, symObjAddr: 0x46B0, symBinAddr: 0x90C10, symSize: 0x20 }
  - { offset: 0xFB902, size: 0x8, addend: 0x0, symName: __RNvXs9_NtNtNtCsieiGu2EXtoJ_4core4iter8adapters3mapINtB5_3MapINtNtNtCslJiobkLta79_5alloc3vec9into_iter8IntoIterNtNtCsdGrGZaRBwMb_3syn4item9TraitItemENCINvNtNtB1O_3gen4fold8fold_vecB1K_NtNvCsliPDVd4pfgL_15zerofrom_derive25replace_lifetime_and_type20ReplaceLifetimeAndTyNvYB2V_NtB2r_4Fold15fold_trait_itemE0ENtB7_10SourceIter8as_innerB2Z_, symObjAddr: 0x46D0, symBinAddr: 0x90C30, symSize: 0x20 }
  - { offset: 0xFB940, size: 0x8, addend: 0x0, symName: __RNvXs9_NtNtNtCsieiGu2EXtoJ_4core4iter8adapters3mapINtB5_3MapINtNtNtCslJiobkLta79_5alloc3vec9into_iter8IntoIterNtNtCsdGrGZaRBwMb_3syn4stmt4StmtENCINvNtNtB1O_3gen4fold8fold_vecB1K_NtNvCsliPDVd4pfgL_15zerofrom_derive16replace_lifetime15ReplaceLifetimeNvYB2Q_NtB2m_4Fold9fold_stmtE0ENtB7_10SourceIter8as_innerB2U_, symObjAddr: 0x46F0, symBinAddr: 0x90C50, symSize: 0x20 }
  - { offset: 0xFB97E, size: 0x8, addend: 0x0, symName: __RNvXs9_NtNtNtCsieiGu2EXtoJ_4core4iter8adapters3mapINtB5_3MapINtNtNtCslJiobkLta79_5alloc3vec9into_iter8IntoIterNtNtCsdGrGZaRBwMb_3syn4stmt4StmtENCINvNtNtB1O_3gen4fold8fold_vecB1K_NtNvCsliPDVd4pfgL_15zerofrom_derive25replace_lifetime_and_type20ReplaceLifetimeAndTyNvYB2Q_NtB2m_4Fold9fold_stmtE0ENtB7_10SourceIter8as_innerB2U_, symObjAddr: 0x4710, symBinAddr: 0x90C70, symSize: 0x20 }
  - { offset: 0xFBEDC, size: 0x8, addend: 0x0, symName: __RINvYINtNtNtNtCsHUR1vrdMJt_3std11collections4hash3map6ValuesNtCsaKzlTDPUHDb_11proc_macro25IdentINtNtCsieiGu2EXtoJ_4core6option6OptionBW_EENtNtNtNtB1A_4iter6traits8iterator8Iterator3anyNCNvCsliPDVd4pfgL_15zerofrom_derive14zf_derive_impls1_0EB30_, symObjAddr: 0x700, symBinAddr: 0x8CC60, symSize: 0x30 }
  - { offset: 0xFBF2B, size: 0x8, addend: 0x0, symName: __RINvYINtNtNtNtCsHUR1vrdMJt_3std11collections4hash3map6ValuesNtCsaKzlTDPUHDb_11proc_macro25IdentINtNtCsieiGu2EXtoJ_4core6option6OptionBW_EENtNtNtNtB1A_4iter6traits8iterator8Iterator8try_folduNCINvNvB2c_3any5checkRB1v_NCNvCsliPDVd4pfgL_15zerofrom_derive14zf_derive_impls1_0E0INtNtNtB1A_3ops12control_flow11ControlFlowuEEB3w_, symObjAddr: 0x730, symBinAddr: 0x8CC90, symSize: 0x100 }
  - { offset: 0xFBFDD, size: 0x8, addend: 0x0, symName: __RINvYINtNtNtNtCsieiGu2EXtoJ_4core4iter8adapters3map3MapINtNtCsdGrGZaRBwMb_3syn10punctuated8IntoIterNtCsaKzlTDPUHDb_11proc_macro25IdentENCINvXs8_NtCsjK30CmJ87bX_9hashbrown3setINtB2i_7HashSetB1z_NtNtNtCsHUR1vrdMJt_3std4hash6random11RandomStateEINtNtNtBa_6traits7collect6ExtendB1z_E6extendINtBU_10PunctuatedB1z_NtNtBW_5token5CommaEE0ENtNtB3X_8iterator8Iterator8for_eachNCINvXs1i_NtB2k_3mapINtB62_7HashMapB1z_uB35_EIB3T_TB1z_uEE6extendB3_E0ECsliPDVd4pfgL_15zerofrom_derive, symObjAddr: 0x830, symBinAddr: 0x8CD90, symSize: 0x20 }
  - { offset: 0xFC029, size: 0x8, addend: 0x0, symName: __RINvYINtNtNtNtCsieiGu2EXtoJ_4core4iter8adapters3map3MapINtNtNtBc_5slice4iter4IterNtCsaKzlTDPUHDb_11proc_macro25IdentENCNvCsliPDVd4pfgL_15zerofrom_derive14zf_derive_impls4_0ENtNtNtBa_6traits8iterator8Iterator7collectINtNtCslJiobkLta79_5alloc3vec3VecNtNtCsdGrGZaRBwMb_3syn8generics14WherePredicateEEB1V_, symObjAddr: 0x850, symBinAddr: 0x8CDB0, symSize: 0x70 }
  - { offset: 0xFC0BF, size: 0x8, addend: 0x0, symName: __RINvYINtNtNtNtCsieiGu2EXtoJ_4core4iter8adapters3map3MapINtNtNtBc_5slice4iter4IterNtCsaKzlTDPUHDb_11proc_macro25IdentENCNvCsliPDVd4pfgL_15zerofrom_derive14zf_derive_impls4_0ENtNtNtBa_6traits8iterator8Iterator8for_eachNCINvMsi_NtCslJiobkLta79_5alloc3vecINtB3B_3VecNtNtCsdGrGZaRBwMb_3syn8generics14WherePredicateE14extend_trustedB3_E0EB1V_, symObjAddr: 0x8C0, symBinAddr: 0x8CE20, symSize: 0x30 }
  - { offset: 0xFC12A, size: 0x8, addend: 0x0, symName: __RINvYINtNtNtNtCsieiGu2EXtoJ_4core4iter8adapters3map3MapINtNtNtBc_5slice4iter4IterNtNtCsdGrGZaRBwMb_3syn8generics9TypeParamENCNvCsliPDVd4pfgL_15zerofrom_derive14zf_derive_impls_0ENtNtNtBa_6traits8iterator8Iterator7collectINtNtCslJiobkLta79_5alloc3vec3VecNtCsaKzlTDPUHDb_11proc_macro25IdentEEB21_, symObjAddr: 0x8F0, symBinAddr: 0x8CE50, symSize: 0x60 }
  - { offset: 0xFC1BF, size: 0x8, addend: 0x0, symName: __RINvYINtNtNtNtCsieiGu2EXtoJ_4core4iter8adapters3map3MapINtNtNtBc_5slice4iter4IterNtNtCsdGrGZaRBwMb_3syn8generics9TypeParamENCNvCsliPDVd4pfgL_15zerofrom_derive14zf_derive_impls_0ENtNtNtBa_6traits8iterator8Iterator8for_eachNCINvMsi_NtCslJiobkLta79_5alloc3vecINtB3G_3VecNtCsaKzlTDPUHDb_11proc_macro25IdentE14extend_trustedB3_E0EB21_, symObjAddr: 0x950, symBinAddr: 0x8CEB0, symSize: 0x40 }
  - { offset: 0xFC229, size: 0x8, addend: 0x0, symName: __RINvYINtNtNtNtCsieiGu2EXtoJ_4core4iter8adapters3map3MapINtNtNtBc_5slice4iter7IterMutNtNtCsdGrGZaRBwMb_3syn8generics9TypeParamENCNvCsliPDVd4pfgL_15zerofrom_derive14zf_derive_impls0_0ENtNtNtBa_6traits8iterator8Iterator7collectINtNtNtNtCsHUR1vrdMJt_3std11collections4hash3map7HashMapNtCsaKzlTDPUHDb_11proc_macro25IdentINtNtBc_6option6OptionB4u_EEEB24_, symObjAddr: 0x990, symBinAddr: 0x8CEF0, symSize: 0x60 }
  - { offset: 0xFC2BF, size: 0x8, addend: 0x0, symName: __RINvYINtNtNtNtCsieiGu2EXtoJ_4core4iter8adapters3map3MapINtNtNtBc_5slice4iter7IterMutNtNtCsdGrGZaRBwMb_3syn8generics9TypeParamENCNvCsliPDVd4pfgL_15zerofrom_derive14zf_derive_impls0_0ENtNtNtBa_6traits8iterator8Iterator8for_eachNCINvXs1i_NtCsjK30CmJ87bX_9hashbrown3mapINtB3L_7HashMapNtCsaKzlTDPUHDb_11proc_macro25IdentINtNtBc_6option6OptionB4u_ENtNtNtCsHUR1vrdMJt_3std4hash6random11RandomStateEINtNtB2Y_7collect6ExtendTB4u_B53_EE6extendB3_E0EB24_, symObjAddr: 0x9F0, symBinAddr: 0x8CF50, symSize: 0x20 }
  - { offset: 0xFC30B, size: 0x8, addend: 0x0, symName: __RINvYINtNtNtNtCsieiGu2EXtoJ_4core4iter8adapters3map3MapINtNtNtCslJiobkLta79_5alloc3vec9into_iter8IntoIterNtNtCsdGrGZaRBwMb_3syn4attr9AttributeENCINvNtNtB1J_3gen4fold8fold_vecB1F_NtNvCsliPDVd4pfgL_15zerofrom_derive16replace_lifetime15ReplaceLifetimeNvYB2Q_NtB2m_4Fold14fold_attributeE0ENtNtNtBa_6traits8iterator8Iterator7collectINtBW_3VecB1F_EEB2U_, symObjAddr: 0xA10, symBinAddr: 0x8CF70, symSize: 0x80 }
  - { offset: 0xFC3A1, size: 0x8, addend: 0x0, symName: __RINvYINtNtNtNtCsieiGu2EXtoJ_4core4iter8adapters3map3MapINtNtNtCslJiobkLta79_5alloc3vec9into_iter8IntoIterNtNtCsdGrGZaRBwMb_3syn4attr9AttributeENCINvNtNtB1J_3gen4fold8fold_vecB1F_NtNvCsliPDVd4pfgL_15zerofrom_derive25replace_lifetime_and_type20ReplaceLifetimeAndTyNvYB2Q_NtB2m_4Fold14fold_attributeE0ENtNtNtBa_6traits8iterator8Iterator7collectINtBW_3VecB1F_EEB2U_, symObjAddr: 0xA90, symBinAddr: 0x8CFF0, symSize: 0x80 }
  - { offset: 0xFC437, size: 0x8, addend: 0x0, symName: __RINvYINtNtNtNtCsieiGu2EXtoJ_4core4iter8adapters3map3MapINtNtNtCslJiobkLta79_5alloc3vec9into_iter8IntoIterNtNtCsdGrGZaRBwMb_3syn4expr3ArmENCINvNtNtB1J_3gen4fold8fold_vecB1F_NtNvCsliPDVd4pfgL_15zerofrom_derive16replace_lifetime15ReplaceLifetimeNvYB2K_NtB2g_4Fold8fold_armE0ENtNtNtBa_6traits8iterator8Iterator7collectINtBW_3VecB1F_EEB2O_, symObjAddr: 0xB10, symBinAddr: 0x8D070, symSize: 0x80 }
  - { offset: 0xFC4CD, size: 0x8, addend: 0x0, symName: __RINvYINtNtNtNtCsieiGu2EXtoJ_4core4iter8adapters3map3MapINtNtNtCslJiobkLta79_5alloc3vec9into_iter8IntoIterNtNtCsdGrGZaRBwMb_3syn4expr3ArmENCINvNtNtB1J_3gen4fold8fold_vecB1F_NtNvCsliPDVd4pfgL_15zerofrom_derive25replace_lifetime_and_type20ReplaceLifetimeAndTyNvYB2K_NtB2g_4Fold8fold_armE0ENtNtNtBa_6traits8iterator8Iterator7collectINtBW_3VecB1F_EEB2O_, symObjAddr: 0xB90, symBinAddr: 0x8D0F0, symSize: 0x80 }
  - { offset: 0xFC563, size: 0x8, addend: 0x0, symName: __RINvYINtNtNtNtCsieiGu2EXtoJ_4core4iter8adapters3map3MapINtNtNtCslJiobkLta79_5alloc3vec9into_iter8IntoIterNtNtCsdGrGZaRBwMb_3syn4item11ForeignItemENCINvNtNtB1J_3gen4fold8fold_vecB1F_NtNvCsliPDVd4pfgL_15zerofrom_derive16replace_lifetime15ReplaceLifetimeNvYB2T_NtB2p_4Fold17fold_foreign_itemE0ENtNtNtBa_6traits8iterator8Iterator7collectINtBW_3VecB1F_EEB2X_, symObjAddr: 0xC10, symBinAddr: 0x8D170, symSize: 0x80 }
  - { offset: 0xFC5F9, size: 0x8, addend: 0x0, symName: __RINvYINtNtNtNtCsieiGu2EXtoJ_4core4iter8adapters3map3MapINtNtNtCslJiobkLta79_5alloc3vec9into_iter8IntoIterNtNtCsdGrGZaRBwMb_3syn4item11ForeignItemENCINvNtNtB1J_3gen4fold8fold_vecB1F_NtNvCsliPDVd4pfgL_15zerofrom_derive25replace_lifetime_and_type20ReplaceLifetimeAndTyNvYB2T_NtB2p_4Fold17fold_foreign_itemE0ENtNtNtBa_6traits8iterator8Iterator7collectINtBW_3VecB1F_EEB2X_, symObjAddr: 0xC90, symBinAddr: 0x8D1F0, symSize: 0x80 }
  - { offset: 0xFC68F, size: 0x8, addend: 0x0, symName: __RINvYINtNtNtNtCsieiGu2EXtoJ_4core4iter8adapters3map3MapINtNtNtCslJiobkLta79_5alloc3vec9into_iter8IntoIterNtNtCsdGrGZaRBwMb_3syn4item4ItemENCINvNtNtB1J_3gen4fold8fold_vecB1F_NtNvCsliPDVd4pfgL_15zerofrom_derive16replace_lifetime15ReplaceLifetimeNvYB2L_NtB2h_4Fold9fold_itemE0ENtNtNtBa_6traits8iterator8Iterator7collectINtBW_3VecB1F_EEB2P_, symObjAddr: 0xD10, symBinAddr: 0x8D270, symSize: 0x80 }
  - { offset: 0xFC725, size: 0x8, addend: 0x0, symName: __RINvYINtNtNtNtCsieiGu2EXtoJ_4core4iter8adapters3map3MapINtNtNtCslJiobkLta79_5alloc3vec9into_iter8IntoIterNtNtCsdGrGZaRBwMb_3syn4item4ItemENCINvNtNtB1J_3gen4fold8fold_vecB1F_NtNvCsliPDVd4pfgL_15zerofrom_derive25replace_lifetime_and_type20ReplaceLifetimeAndTyNvYB2L_NtB2h_4Fold9fold_itemE0ENtNtNtBa_6traits8iterator8Iterator7collectINtBW_3VecB1F_EEB2P_, symObjAddr: 0xD90, symBinAddr: 0x8D2F0, symSize: 0x80 }
  - { offset: 0xFC7BB, size: 0x8, addend: 0x0, symName: __RINvYINtNtNtNtCsieiGu2EXtoJ_4core4iter8adapters3map3MapINtNtNtCslJiobkLta79_5alloc3vec9into_iter8IntoIterNtNtCsdGrGZaRBwMb_3syn4item8ImplItemENCINvNtNtB1J_3gen4fold8fold_vecB1F_NtNvCsliPDVd4pfgL_15zerofrom_derive16replace_lifetime15ReplaceLifetimeNvYB2P_NtB2l_4Fold14fold_impl_itemE0ENtNtNtBa_6traits8iterator8Iterator7collectINtBW_3VecB1F_EEB2T_, symObjAddr: 0xE10, symBinAddr: 0x8D370, symSize: 0x80 }
  - { offset: 0xFC851, size: 0x8, addend: 0x0, symName: __RINvYINtNtNtNtCsieiGu2EXtoJ_4core4iter8adapters3map3MapINtNtNtCslJiobkLta79_5alloc3vec9into_iter8IntoIterNtNtCsdGrGZaRBwMb_3syn4item8ImplItemENCINvNtNtB1J_3gen4fold8fold_vecB1F_NtNvCsliPDVd4pfgL_15zerofrom_derive25replace_lifetime_and_type20ReplaceLifetimeAndTyNvYB2P_NtB2l_4Fold14fold_impl_itemE0ENtNtNtBa_6traits8iterator8Iterator7collectINtBW_3VecB1F_EEB2T_, symObjAddr: 0xE90, symBinAddr: 0x8D3F0, symSize: 0x80 }
  - { offset: 0xFC8E7, size: 0x8, addend: 0x0, symName: __RINvYINtNtNtNtCsieiGu2EXtoJ_4core4iter8adapters3map3MapINtNtNtCslJiobkLta79_5alloc3vec9into_iter8IntoIterNtNtCsdGrGZaRBwMb_3syn4item9TraitItemENCINvNtNtB1J_3gen4fold8fold_vecB1F_NtNvCsliPDVd4pfgL_15zerofrom_derive16replace_lifetime15ReplaceLifetimeNvYB2Q_NtB2m_4Fold15fold_trait_itemE0ENtNtNtBa_6traits8iterator8Iterator7collectINtBW_3VecB1F_EEB2U_, symObjAddr: 0xF10, symBinAddr: 0x8D470, symSize: 0x80 }
  - { offset: 0xFC97D, size: 0x8, addend: 0x0, symName: __RINvYINtNtNtNtCsieiGu2EXtoJ_4core4iter8adapters3map3MapINtNtNtCslJiobkLta79_5alloc3vec9into_iter8IntoIterNtNtCsdGrGZaRBwMb_3syn4item9TraitItemENCINvNtNtB1J_3gen4fold8fold_vecB1F_NtNvCsliPDVd4pfgL_15zerofrom_derive25replace_lifetime_and_type20ReplaceLifetimeAndTyNvYB2Q_NtB2m_4Fold15fold_trait_itemE0ENtNtNtBa_6traits8iterator8Iterator7collectINtBW_3VecB1F_EEB2U_, symObjAddr: 0xF90, symBinAddr: 0x8D4F0, symSize: 0x80 }
  - { offset: 0xFCA13, size: 0x8, addend: 0x0, symName: __RINvYINtNtNtNtCsieiGu2EXtoJ_4core4iter8adapters3map3MapINtNtNtCslJiobkLta79_5alloc3vec9into_iter8IntoIterNtNtCsdGrGZaRBwMb_3syn4stmt4StmtENCINvNtNtB1J_3gen4fold8fold_vecB1F_NtNvCsliPDVd4pfgL_15zerofrom_derive16replace_lifetime15ReplaceLifetimeNvYB2L_NtB2h_4Fold9fold_stmtE0ENtNtNtBa_6traits8iterator8Iterator7collectINtBW_3VecB1F_EEB2P_, symObjAddr: 0x1010, symBinAddr: 0x8D570, symSize: 0x80 }
  - { offset: 0xFCAA9, size: 0x8, addend: 0x0, symName: __RINvYINtNtNtNtCsieiGu2EXtoJ_4core4iter8adapters3map3MapINtNtNtCslJiobkLta79_5alloc3vec9into_iter8IntoIterNtNtCsdGrGZaRBwMb_3syn4stmt4StmtENCINvNtNtB1J_3gen4fold8fold_vecB1F_NtNvCsliPDVd4pfgL_15zerofrom_derive25replace_lifetime_and_type20ReplaceLifetimeAndTyNvYB2L_NtB2h_4Fold9fold_stmtE0ENtNtNtBa_6traits8iterator8Iterator7collectINtBW_3VecB1F_EEB2P_, symObjAddr: 0x1090, symBinAddr: 0x8D5F0, symSize: 0x80 }
  - { offset: 0xFCB3F, size: 0x8, addend: 0x0, symName: __RINvYINtNtNtNtCsieiGu2EXtoJ_4core4iter8adapters3map3MapNtNtCsdGrGZaRBwMb_3syn8generics10TypeParamsNCNvCsliPDVd4pfgL_15zerofrom_derive14zf_derive_impl0ENtNtNtBa_6traits8iterator8Iterator7collectINtNtCslJiobkLta79_5alloc3vec3VecNtBT_9TypeParamEEB1C_, symObjAddr: 0x1110, symBinAddr: 0x8D670, symSize: 0x60 }
  - { offset: 0xFCBD4, size: 0x8, addend: 0x0, symName: __RINvYNtNtCsdGrGZaRBwMb_3syn8generics10TypeParamsNtNtNtNtCsieiGu2EXtoJ_4core4iter6traits8iterator8Iterator3mapNtB5_9TypeParamNCNvCsliPDVd4pfgL_15zerofrom_derive14zf_derive_impl0EB22_, symObjAddr: 0x1170, symBinAddr: 0x8D6D0, symSize: 0x20 }
  - { offset: 0xFCC2C, size: 0x8, addend: 0x0, symName: __RINvYNtNtCsdGrGZaRBwMb_3syn8generics9LifetimesNtNtNtNtCsieiGu2EXtoJ_4core4iter6traits8iterator8Iterator4foldjNCNvYB3_BI_5count0ECsliPDVd4pfgL_15zerofrom_derive, symObjAddr: 0x1190, symBinAddr: 0x8D6F0, symSize: 0xD0 }
