---
triple:          'x86_64-apple-darwin'
binary-path:     '/Users/kema/git/rust-serv/target/debug/build/thiserror-a7bae350110be041/build_script_build-a7bae350110be041'
relocations:
  - { offset: 0x1E, size: 0x8, addend: 0x0, symName: __RINvMNtCsieiGu2EXtoJ_4core6optionINtB3_6OptionNtNtNtCsHUR1vrdMJt_3std3ffi6os_str8OsStringE14unwrap_or_elseNCNvCsidTGod54npE_18build_script_build13cargo_env_var0EB1K_, symObjAddr: 0x0, symBinAddr: 0x100000B90, symSize: 0x90 }
  - { offset: 0x68, size: 0x8, addend: 0x0, symName: __RNCINvNtCsHUR1vrdMJt_3std2rt10lang_startuE0CsidTGod54npE_18build_script_build, symObjAddr: 0x2340, symBinAddr: 0x100002E50, symSize: 0x30 }
  - { offset: 0xD2, size: 0x8, addend: 0x0, symName: __RINvNtCsHUR1vrdMJt_3std2rt10lang_startuECsidTGod54npE_18build_script_build, symObjAddr: 0xC20, symBinAddr: 0x1000017B0, symSize: 0x40 }
  - { offset: 0x33C, size: 0x8, addend: 0x0, symName: __RNCNvXs1_NtNtNtCsHUR1vrdMJt_3std2io5error14repr_bitpackedNtB7_4ReprNtNtNtCsieiGu2EXtoJ_4core3ops4drop4Drop4drop0CsidTGod54npE_18build_script_build, symObjAddr: 0x2440, symBinAddr: 0x100002F50, symSize: 0x30 }
  - { offset: 0x3F1, size: 0x8, addend: 0x0, symName: __RNvXs1_NtNtNtCsHUR1vrdMJt_3std2io5error14repr_bitpackedNtB5_4ReprNtNtNtCsieiGu2EXtoJ_4core3ops4drop4Drop4dropCsidTGod54npE_18build_script_build, symObjAddr: 0x49C0, symBinAddr: 0x1000054D0, symSize: 0x30 }
  - { offset: 0x41A, size: 0x8, addend: 0x0, symName: __RINvNtNtNtCsHUR1vrdMJt_3std2io5error14repr_bitpacked11decode_reprINtNtCslJiobkLta79_5alloc5boxed3BoxNtB4_6CustomENCNvXs1_B2_NtB2_4ReprNtNtNtCsieiGu2EXtoJ_4core3ops4drop4Drop4drop0ECsidTGod54npE_18build_script_build, symObjAddr: 0x19C0, symBinAddr: 0x1000024D0, symSize: 0x200 }
  - { offset: 0x68C, size: 0x8, addend: 0x0, symName: __RNCNvMs0_NtNtNtCsHUR1vrdMJt_3std2io5error14repr_bitpackedNtB7_4Repr4data0CsidTGod54npE_18build_script_build, symObjAddr: 0x2430, symBinAddr: 0x100002F40, symSize: 0x10 }
  - { offset: 0x6C4, size: 0x8, addend: 0x0, symName: __RINvNtNtNtCsHUR1vrdMJt_3std2io5error14repr_bitpacked11decode_reprRNtB4_6CustomNCNvMs0_B2_NtB2_4Repr4data0ECsidTGod54npE_18build_script_build, symObjAddr: 0x1BC0, symBinAddr: 0x1000026D0, symSize: 0x200 }
  - { offset: 0x925, size: 0x8, addend: 0x0, symName: __RNvNtNtNtCsHUR1vrdMJt_3std2io5error14repr_bitpacked14kind_from_primCsidTGod54npE_18build_script_build, symObjAddr: 0x4070, symBinAddr: 0x100004B80, symSize: 0x5B0 }
  - { offset: 0x16D4, size: 0x8, addend: 0x0, symName: __RINvNtCsHUR1vrdMJt_3std2fs10create_dirRNtNtB4_4path7PathBufECsidTGod54npE_18build_script_build, symObjAddr: 0xB50, symBinAddr: 0x1000016E0, symSize: 0x70 }
  - { offset: 0x1720, size: 0x8, addend: 0x0, symName: __RINvNtCsHUR1vrdMJt_3std2fs14remove_dir_allRNtNtB4_4path7PathBufECsidTGod54npE_18build_script_build, symObjAddr: 0xBC0, symBinAddr: 0x100001750, symSize: 0x60 }
  - { offset: 0x175D, size: 0x8, addend: 0x0, symName: __RINvNtCsHUR1vrdMJt_3std3env3varReECsidTGod54npE_18build_script_build, symObjAddr: 0xC60, symBinAddr: 0x1000017F0, symSize: 0x60 }
  - { offset: 0x1792, size: 0x8, addend: 0x0, symName: __RINvNtCsHUR1vrdMJt_3std3env6var_osReECsidTGod54npE_18build_script_build, symObjAddr: 0xCC0, symBinAddr: 0x100001850, symSize: 0x60 }
  - { offset: 0x18FA, size: 0x8, addend: 0x0, symName: __RNvXs5_NtNtCsieiGu2EXtoJ_4core3num5errorNtB5_15TryFromIntErrorNtNtB9_3fmt5Debug3fmtCsidTGod54npE_18build_script_build, symObjAddr: 0x4B10, symBinAddr: 0x100005620, symSize: 0x50 }
  - { offset: 0x1E99, size: 0x8, addend: 0x0, symName: __RINvNtCsieiGu2EXtoJ_4core3ptr13drop_in_placeINtNtB4_6option4ItemNtNtNtCsHUR1vrdMJt_3std3ffi6os_str8OsStringEECsidTGod54npE_18build_script_build, symObjAddr: 0xDA0, symBinAddr: 0x1000018B0, symSize: 0x20 }
  - { offset: 0x1EC8, size: 0x8, addend: 0x0, symName: __RINvNtCsieiGu2EXtoJ_4core3ptr13drop_in_placeINtNtB4_6option6OptionINtBJ_8IntoIterNtNtNtCsHUR1vrdMJt_3std3ffi6os_str8OsStringEEECsidTGod54npE_18build_script_build, symObjAddr: 0xDC0, symBinAddr: 0x1000018D0, symSize: 0x40 }
  - { offset: 0x1EF7, size: 0x8, addend: 0x0, symName: __RINvNtCsieiGu2EXtoJ_4core3ptr13drop_in_placeINtNtB4_6option6OptionINtNtCslJiobkLta79_5alloc5boxed3BoxSmEEECsidTGod54npE_18build_script_build, symObjAddr: 0xE00, symBinAddr: 0x100001910, symSize: 0x40 }
  - { offset: 0x1F26, size: 0x8, addend: 0x0, symName: __RINvNtCsieiGu2EXtoJ_4core3ptr13drop_in_placeINtNtB4_6option6OptionINtNtNtNtB4_4iter7sources4once4OnceNtNtNtCsHUR1vrdMJt_3std3ffi6os_str8OsStringEEECsidTGod54npE_18build_script_build, symObjAddr: 0xE40, symBinAddr: 0x100001950, symSize: 0x40 }
  - { offset: 0x1F55, size: 0x8, addend: 0x0, symName: __RINvNtCsieiGu2EXtoJ_4core3ptr13drop_in_placeINtNtB4_6option6OptionINtNtNtNtB4_4iter8adapters5chain5ChainINtBJ_8IntoIterNtNtNtCsHUR1vrdMJt_3std3ffi6os_str8OsStringEB1E_EEECsidTGod54npE_18build_script_build, symObjAddr: 0xE80, symBinAddr: 0x100001990, symSize: 0x40 }
  - { offset: 0x1F84, size: 0x8, addend: 0x0, symName: __RINvNtCsieiGu2EXtoJ_4core3ptr13drop_in_placeINtNtB4_6option6OptionNtNtNtCsHUR1vrdMJt_3std3ffi6os_str8OsStringEECsidTGod54npE_18build_script_build, symObjAddr: 0xEC0, symBinAddr: 0x1000019D0, symSize: 0x40 }
  - { offset: 0x1FB3, size: 0x8, addend: 0x0, symName: __RINvNtCsieiGu2EXtoJ_4core3ptr13drop_in_placeINtNtB4_6option6OptionNtNtNtCslJiobkLta79_5alloc3ffi5c_str7CStringEECsidTGod54npE_18build_script_build, symObjAddr: 0xF00, symBinAddr: 0x100001A10, symSize: 0x40 }
  - { offset: 0x1FE2, size: 0x8, addend: 0x0, symName: __RINvNtCsieiGu2EXtoJ_4core3ptr13drop_in_placeINtNtB4_6option6OptionNtNtNtNtNtCsHUR1vrdMJt_3std3sys7process4unix6common5StdioEECsidTGod54npE_18build_script_build, symObjAddr: 0xF40, symBinAddr: 0x100001A50, symSize: 0x40 }
  - { offset: 0x2011, size: 0x8, addend: 0x0, symName: __RINvNtCsieiGu2EXtoJ_4core3ptr13drop_in_placeINtNtB4_6option8IntoIterNtNtNtCsHUR1vrdMJt_3std3ffi6os_str8OsStringEECsidTGod54npE_18build_script_build, symObjAddr: 0xF80, symBinAddr: 0x100001A90, symSize: 0x20 }
  - { offset: 0x2040, size: 0x8, addend: 0x0, symName: __RINvNtCsieiGu2EXtoJ_4core3ptr13drop_in_placeINtNtB4_6result6ResultNtNtCsHUR1vrdMJt_3std7process10ExitStatusNtNtNtB16_2io5error5ErrorEECsidTGod54npE_18build_script_build, symObjAddr: 0xFA0, symBinAddr: 0x100001AB0, symSize: 0x30 }
  - { offset: 0x206F, size: 0x8, addend: 0x0, symName: __RINvNtCsieiGu2EXtoJ_4core3ptr13drop_in_placeINtNtB4_6result6ResultNtNtCslJiobkLta79_5alloc6string6StringNtNtCsHUR1vrdMJt_3std3env8VarErrorEECsidTGod54npE_18build_script_build, symObjAddr: 0xFD0, symBinAddr: 0x100001AE0, symSize: 0x40 }
  - { offset: 0x209E, size: 0x8, addend: 0x0, symName: __RINvNtCsieiGu2EXtoJ_4core3ptr13drop_in_placeINtNtB4_6result6ResultuNtNtNtCsHUR1vrdMJt_3std2io5error5ErrorEECsidTGod54npE_18build_script_build, symObjAddr: 0x1010, symBinAddr: 0x100001B20, symSize: 0x40 }
  - { offset: 0x20CD, size: 0x8, addend: 0x0, symName: __RINvNtCsieiGu2EXtoJ_4core3ptr13drop_in_placeINtNtCslJiobkLta79_5alloc3vec3VecINtNtBL_5boxed3BoxDINtNtNtB4_3ops8function5FnMutuEp6OutputINtNtB4_6result6ResultuNtNtNtCsHUR1vrdMJt_3std2io5error5ErrorENtNtB4_6marker4SyncNtB3b_4SendEL_EEECsidTGod54npE_18build_script_build, symObjAddr: 0x1050, symBinAddr: 0x100001B60, symSize: 0x50 }
  - { offset: 0x20FC, size: 0x8, addend: 0x0, symName: __RINvNtCsieiGu2EXtoJ_4core3ptr13drop_in_placeINtNtCslJiobkLta79_5alloc3vec3VecPaEECsidTGod54npE_18build_script_build, symObjAddr: 0x10A0, symBinAddr: 0x100001BB0, symSize: 0x50 }
  - { offset: 0x212B, size: 0x8, addend: 0x0, symName: __RINvNtCsieiGu2EXtoJ_4core3ptr13drop_in_placeINtNtCslJiobkLta79_5alloc3vec3VechEECsidTGod54npE_18build_script_build, symObjAddr: 0x10F0, symBinAddr: 0x100001C00, symSize: 0x50 }
  - { offset: 0x215A, size: 0x8, addend: 0x0, symName: __RINvNtCsieiGu2EXtoJ_4core3ptr13drop_in_placeINtNtCslJiobkLta79_5alloc5boxed3BoxDINtNtNtB4_3ops8function5FnMutuEp6OutputINtNtB4_6result6ResultuNtNtNtCsHUR1vrdMJt_3std2io5error5ErrorENtNtB4_6marker4SyncNtB2V_4SendEL_EECsidTGod54npE_18build_script_build, symObjAddr: 0x1140, symBinAddr: 0x100001C50, symSize: 0x70 }
  - { offset: 0x2189, size: 0x8, addend: 0x0, symName: __RINvNtCsieiGu2EXtoJ_4core3ptr13drop_in_placeINtNtCslJiobkLta79_5alloc5boxed3BoxDNtNtB4_5error5ErrorNtNtB4_6marker4SyncNtB1B_4SendEL_EECsidTGod54npE_18build_script_build, symObjAddr: 0x11B0, symBinAddr: 0x100001CC0, symSize: 0x70 }
  - { offset: 0x21B8, size: 0x8, addend: 0x0, symName: __RINvNtCsieiGu2EXtoJ_4core3ptr13drop_in_placeINtNtCslJiobkLta79_5alloc5boxed3BoxNtNtNtCsHUR1vrdMJt_3std2io5error6CustomEECsidTGod54npE_18build_script_build, symObjAddr: 0x1220, symBinAddr: 0x100001D30, symSize: 0x50 }
  - { offset: 0x21E7, size: 0x8, addend: 0x0, symName: __RINvNtCsieiGu2EXtoJ_4core3ptr13drop_in_placeINtNtCslJiobkLta79_5alloc5boxed3BoxShEECsidTGod54npE_18build_script_build, symObjAddr: 0x1270, symBinAddr: 0x100001D80, symSize: 0x20 }
  - { offset: 0x2216, size: 0x8, addend: 0x0, symName: __RINvNtCsieiGu2EXtoJ_4core3ptr13drop_in_placeINtNtCslJiobkLta79_5alloc5boxed3BoxSmEECsidTGod54npE_18build_script_build, symObjAddr: 0x1290, symBinAddr: 0x100001DA0, symSize: 0x20 }
  - { offset: 0x2245, size: 0x8, addend: 0x0, symName: __RINvNtCsieiGu2EXtoJ_4core3ptr13drop_in_placeINtNtCslJiobkLta79_5alloc7raw_vec6RawVecINtNtBL_5boxed3BoxDINtNtNtB4_3ops8function5FnMutuEp6OutputINtNtB4_6result6ResultuNtNtNtCsHUR1vrdMJt_3std2io5error5ErrorENtNtB4_6marker4SyncNtB3i_4SendEL_EEECsidTGod54npE_18build_script_build, symObjAddr: 0x12B0, symBinAddr: 0x100001DC0, symSize: 0x20 }
  - { offset: 0x2274, size: 0x8, addend: 0x0, symName: __RINvNtCsieiGu2EXtoJ_4core3ptr13drop_in_placeINtNtCslJiobkLta79_5alloc7raw_vec6RawVecPaEECsidTGod54npE_18build_script_build, symObjAddr: 0x12D0, symBinAddr: 0x100001DE0, symSize: 0x20 }
  - { offset: 0x22A3, size: 0x8, addend: 0x0, symName: __RINvNtCsieiGu2EXtoJ_4core3ptr13drop_in_placeINtNtCslJiobkLta79_5alloc7raw_vec6RawVechEECsidTGod54npE_18build_script_build, symObjAddr: 0x12F0, symBinAddr: 0x100001E00, symSize: 0x20 }
  - { offset: 0x22D2, size: 0x8, addend: 0x0, symName: __RINvNtCsieiGu2EXtoJ_4core3ptr13drop_in_placeINtNtNtCsHUR1vrdMJt_3std2io5error9ErrorDataINtNtCslJiobkLta79_5alloc5boxed3BoxNtBJ_6CustomEEECsidTGod54npE_18build_script_build, symObjAddr: 0x1310, symBinAddr: 0x100001E20, symSize: 0x30 }
  - { offset: 0x2301, size: 0x8, addend: 0x0, symName: __RINvNtCsieiGu2EXtoJ_4core3ptr13drop_in_placeINtNtNtNtB4_4iter7sources4once4OnceNtNtNtCsHUR1vrdMJt_3std3ffi6os_str8OsStringEECsidTGod54npE_18build_script_build, symObjAddr: 0x1340, symBinAddr: 0x100001E50, symSize: 0x20 }
  - { offset: 0x2330, size: 0x8, addend: 0x0, symName: __RINvNtCsieiGu2EXtoJ_4core3ptr13drop_in_placeINtNtNtNtB4_4iter8adapters5chain5ChainIBH_INtNtB4_6option8IntoIterNtNtNtCsHUR1vrdMJt_3std3ffi6os_str8OsStringEB1m_EINtNtNtBN_7sources4once4OnceB1K_EEECsidTGod54npE_18build_script_build, symObjAddr: 0x1360, symBinAddr: 0x100001E70, symSize: 0x60 }
  - { offset: 0x235F, size: 0x8, addend: 0x0, symName: __RINvNtCsieiGu2EXtoJ_4core3ptr13drop_in_placeINtNtNtNtB4_4iter8adapters5chain5ChainINtNtB4_6option8IntoIterNtNtNtCsHUR1vrdMJt_3std3ffi6os_str8OsStringEB1i_EECsidTGod54npE_18build_script_build, symObjAddr: 0x13C0, symBinAddr: 0x100001ED0, symSize: 0x60 }
  - { offset: 0x238E, size: 0x8, addend: 0x0, symName: __RINvNtCsieiGu2EXtoJ_4core3ptr13drop_in_placeINtNtNtNtCslJiobkLta79_5alloc11collections5btree3map8BTreeMapNtNtNtCsHUR1vrdMJt_3std3ffi6os_str8OsStringINtNtB4_6option6OptionB1F_EEECsidTGod54npE_18build_script_build, symObjAddr: 0x1420, symBinAddr: 0x100001F30, symSize: 0x20 }
  - { offset: 0x23BD, size: 0x8, addend: 0x0, symName: __RINvNtCsieiGu2EXtoJ_4core3ptr13drop_in_placeINtNtNtNtCslJiobkLta79_5alloc11collections5btree3map8IntoIterNtNtNtCsHUR1vrdMJt_3std3ffi6os_str8OsStringINtNtB4_6option6OptionB1F_EEECsidTGod54npE_18build_script_build, symObjAddr: 0x1440, symBinAddr: 0x100001F50, symSize: 0x20 }
  - { offset: 0x23EC, size: 0x8, addend: 0x0, symName: __RINvNtCsieiGu2EXtoJ_4core3ptr13drop_in_placeINtNvMsT_NtNtNtCslJiobkLta79_5alloc11collections5btree4nodeINtBP_6HandleINtBP_7NodeRefNtNtBP_6marker5DyingpppENtB26_2KVE12drop_key_val7DropperINtNtB4_6option6OptionNtNtNtCsHUR1vrdMJt_3std3ffi6os_str8OsStringEEECsidTGod54npE_18build_script_build, symObjAddr: 0x1460, symBinAddr: 0x100001F70, symSize: 0x20 }
  - { offset: 0x241B, size: 0x8, addend: 0x0, symName: __RINvNtCsieiGu2EXtoJ_4core3ptr13drop_in_placeINtNvNtCsHUR1vrdMJt_3std2io17default_write_fmt7AdapterNtNtNtNtBN_3sys5stdio4unix6StderrEECsidTGod54npE_18build_script_build, symObjAddr: 0x1480, symBinAddr: 0x100001F90, symSize: 0x20 }
  - { offset: 0x244A, size: 0x8, addend: 0x0, symName: __RINvNtCsieiGu2EXtoJ_4core3ptr13drop_in_placeINtNvXsw_NtNtNtCslJiobkLta79_5alloc11collections5btree3mapINtBP_8IntoIterpppENtNtNtB4_3ops4drop4Drop4drop9DropGuardNtNtNtCsHUR1vrdMJt_3std3ffi6os_str8OsStringINtNtB4_6option6OptionB2x_ENtNtBV_5alloc6GlobalEECsidTGod54npE_18build_script_build, symObjAddr: 0x14A0, symBinAddr: 0x100001FB0, symSize: 0x20 }
  - { offset: 0x2479, size: 0x8, addend: 0x0, symName: __RINvNtCsieiGu2EXtoJ_4core3ptr13drop_in_placeNtNtCsHUR1vrdMJt_3std3env8VarErrorECsidTGod54npE_18build_script_build, symObjAddr: 0x14C0, symBinAddr: 0x100001FD0, symSize: 0x40 }
  - { offset: 0x24A8, size: 0x8, addend: 0x0, symName: __RINvNtCsieiGu2EXtoJ_4core3ptr13drop_in_placeNtNtCsHUR1vrdMJt_3std4path7PathBufECsidTGod54npE_18build_script_build, symObjAddr: 0x1500, symBinAddr: 0x100002010, symSize: 0x20 }
  - { offset: 0x24D7, size: 0x8, addend: 0x0, symName: __RINvNtCsieiGu2EXtoJ_4core3ptr13drop_in_placeNtNtCsHUR1vrdMJt_3std7process7CommandECsidTGod54npE_18build_script_build, symObjAddr: 0x1520, symBinAddr: 0x100002030, symSize: 0x20 }
  - { offset: 0x2506, size: 0x8, addend: 0x0, symName: __RINvNtCsieiGu2EXtoJ_4core3ptr13drop_in_placeNtNtCslJiobkLta79_5alloc6string6StringECsidTGod54npE_18build_script_build, symObjAddr: 0x1540, symBinAddr: 0x100002050, symSize: 0x20 }
  - { offset: 0x2535, size: 0x8, addend: 0x0, symName: __RINvNtCsieiGu2EXtoJ_4core3ptr13drop_in_placeNtNtNtCsHUR1vrdMJt_3std2io5error5ErrorECsidTGod54npE_18build_script_build, symObjAddr: 0x1560, symBinAddr: 0x100002070, symSize: 0x20 }
  - { offset: 0x2564, size: 0x8, addend: 0x0, symName: __RINvNtCsieiGu2EXtoJ_4core3ptr13drop_in_placeNtNtNtCsHUR1vrdMJt_3std2io5error6CustomECsidTGod54npE_18build_script_build, symObjAddr: 0x1580, symBinAddr: 0x100002090, symSize: 0x20 }
  - { offset: 0x2593, size: 0x8, addend: 0x0, symName: __RINvNtCsieiGu2EXtoJ_4core3ptr13drop_in_placeNtNtNtCsHUR1vrdMJt_3std3ffi6os_str8OsStringECsidTGod54npE_18build_script_build, symObjAddr: 0x15A0, symBinAddr: 0x1000020B0, symSize: 0x20 }
  - { offset: 0x25C2, size: 0x8, addend: 0x0, symName: __RINvNtCsieiGu2EXtoJ_4core3ptr13drop_in_placeNtNtNtCslJiobkLta79_5alloc3ffi5c_str7CStringECsidTGod54npE_18build_script_build, symObjAddr: 0x15C0, symBinAddr: 0x1000020D0, symSize: 0x50 }
  - { offset: 0x25F1, size: 0x8, addend: 0x0, symName: __RINvNtCsieiGu2EXtoJ_4core3ptr13drop_in_placeNtNtNtNtCsHUR1vrdMJt_3std2io5error14repr_bitpacked4ReprECsidTGod54npE_18build_script_build, symObjAddr: 0x1610, symBinAddr: 0x100002120, symSize: 0x20 }
  - { offset: 0x2620, size: 0x8, addend: 0x0, symName: __RINvNtCsieiGu2EXtoJ_4core3ptr13drop_in_placeNtNtNtNtCsHUR1vrdMJt_3std2os2fd5owned7OwnedFdECsidTGod54npE_18build_script_build, symObjAddr: 0x1630, symBinAddr: 0x100002140, symSize: 0x20 }
  - { offset: 0x264F, size: 0x8, addend: 0x0, symName: __RINvNtCsieiGu2EXtoJ_4core3ptr13drop_in_placeNtNtNtNtCsHUR1vrdMJt_3std3sys2fd4unix8FileDescECsidTGod54npE_18build_script_build, symObjAddr: 0x1650, symBinAddr: 0x100002160, symSize: 0x20 }
  - { offset: 0x267E, size: 0x8, addend: 0x0, symName: __RINvNtCsieiGu2EXtoJ_4core3ptr13drop_in_placeNtNtNtNtCsHUR1vrdMJt_3std3sys6os_str5bytes3BufECsidTGod54npE_18build_script_build, symObjAddr: 0x1670, symBinAddr: 0x100002180, symSize: 0x20 }
  - { offset: 0x26AD, size: 0x8, addend: 0x0, symName: __RINvNtCsieiGu2EXtoJ_4core3ptr13drop_in_placeNtNtNtNtCsHUR1vrdMJt_3std3sys7process3env10CommandEnvECsidTGod54npE_18build_script_build, symObjAddr: 0x1690, symBinAddr: 0x1000021A0, symSize: 0x20 }
  - { offset: 0x26DC, size: 0x8, addend: 0x0, symName: __RINvNtCsieiGu2EXtoJ_4core3ptr13drop_in_placeNtNtNtNtNtCsHUR1vrdMJt_3std3sys7process4unix6common5StdioECsidTGod54npE_18build_script_build, symObjAddr: 0x16B0, symBinAddr: 0x1000021C0, symSize: 0x30 }
  - { offset: 0x270B, size: 0x8, addend: 0x0, symName: __RINvNtCsieiGu2EXtoJ_4core3ptr13drop_in_placeNtNtNtNtNtCsHUR1vrdMJt_3std3sys7process4unix6common7CommandECsidTGod54npE_18build_script_build, symObjAddr: 0x16E0, symBinAddr: 0x1000021F0, symSize: 0x1D0 }
  - { offset: 0x273A, size: 0x8, addend: 0x0, symName: __RINvNtCsieiGu2EXtoJ_4core3ptr13drop_in_placeNtNtNtNtNtNtCsHUR1vrdMJt_3std3sys7process4unix6common13cstring_array12CStringArrayECsidTGod54npE_18build_script_build, symObjAddr: 0x18B0, symBinAddr: 0x1000023C0, symSize: 0x50 }
  - { offset: 0x2769, size: 0x8, addend: 0x0, symName: __RINvNtCsieiGu2EXtoJ_4core3ptr13drop_in_placeNtNvNtNtNtCslJiobkLta79_5alloc11collections5btree3mem7replace10PanicGuardECsidTGod54npE_18build_script_build, symObjAddr: 0x1900, symBinAddr: 0x100002410, symSize: 0x20 }
  - { offset: 0x2798, size: 0x8, addend: 0x0, symName: __RINvNtCsieiGu2EXtoJ_4core3ptr13drop_in_placeSINtNtCslJiobkLta79_5alloc5boxed3BoxDINtNtNtB4_3ops8function5FnMutuEp6OutputINtNtB4_6result6ResultuNtNtNtCsHUR1vrdMJt_3std2io5error5ErrorENtNtB4_6marker4SyncNtB2W_4SendEL_EECsidTGod54npE_18build_script_build, symObjAddr: 0x1920, symBinAddr: 0x100002430, symSize: 0xA0 }
  - { offset: 0x3080, size: 0x8, addend: 0x0, symName: __RNvXs6_NtCsieiGu2EXtoJ_4core6optionINtB5_6OptionNtNtNtCsHUR1vrdMJt_3std3ffi6os_str8OsStringENtNtNtNtB7_4iter6traits7collect12IntoIterator9into_iterCsidTGod54npE_18build_script_build, symObjAddr: 0x4B60, symBinAddr: 0x100005670, symSize: 0x40 }
  - { offset: 0x35AC, size: 0x8, addend: 0x0, symName: __RNvXsw_NtCsieiGu2EXtoJ_4core6optionINtB5_8IntoIterNtNtNtCsHUR1vrdMJt_3std3ffi6os_str8OsStringENtNtNtNtB7_4iter6traits8iterator8Iterator4nextCsidTGod54npE_18build_script_build, symObjAddr: 0x50E0, symBinAddr: 0x100005BF0, symSize: 0x50 }
  - { offset: 0x3B8D, size: 0x8, addend: 0x0, symName: __RNCNvXs_NtNtNtCsieiGu2EXtoJ_4core4iter8adapters5chainINtB6_5ChainIBQ_INtNtBc_6option8IntoIterNtNtNtCsHUR1vrdMJt_3std3ffi6os_str8OsStringEB15_EINtNtNtBa_7sources4once4OnceB1t_EENtNtNtBa_6traits8iterator8Iterator4next0CsidTGod54npE_18build_script_build, symObjAddr: 0x2470, symBinAddr: 0x100002F80, symSize: 0x90 }
  - { offset: 0x3C65, size: 0x8, addend: 0x0, symName: __RNCNvXs_NtNtNtCsieiGu2EXtoJ_4core4iter8adapters5chainINtB6_5ChainINtNtBc_6option8IntoIterNtNtNtCsHUR1vrdMJt_3std3ffi6os_str8OsStringEB11_ENtNtNtBa_6traits8iterator8Iterator4next0CsidTGod54npE_18build_script_build, symObjAddr: 0x2500, symBinAddr: 0x100003010, symSize: 0x90 }
  - { offset: 0x3D3E, size: 0x8, addend: 0x0, symName: __RNvXs_NtNtNtCsieiGu2EXtoJ_4core4iter8adapters5chainINtB4_5ChainIBO_INtNtBa_6option8IntoIterNtNtNtCsHUR1vrdMJt_3std3ffi6os_str8OsStringEB13_EINtNtNtB8_7sources4once4OnceB1r_EENtNtNtB8_6traits8iterator8Iterator4nextCsidTGod54npE_18build_script_build, symObjAddr: 0x5060, symBinAddr: 0x100005B70, symSize: 0x40 }
  - { offset: 0x3D7C, size: 0x8, addend: 0x0, symName: __RNvXs_NtNtNtCsieiGu2EXtoJ_4core4iter8adapters5chainINtB4_5ChainINtNtBa_6option8IntoIterNtNtNtCsHUR1vrdMJt_3std3ffi6os_str8OsStringEBZ_ENtNtNtB8_6traits8iterator8Iterator4nextCsidTGod54npE_18build_script_build, symObjAddr: 0x50A0, symBinAddr: 0x100005BB0, symSize: 0x40 }
  - { offset: 0x3E1A, size: 0x8, addend: 0x0, symName: __RINvNtNtNtCsieiGu2EXtoJ_4core4iter8adapters5chain17and_then_or_clearINtB2_5ChainINtNtB8_6option8IntoIterNtNtNtCsHUR1vrdMJt_3std3ffi6os_str8OsStringEB1g_EB1E_NvYB14_NtNtNtB6_6traits8iterator8Iterator4nextECsidTGod54npE_18build_script_build, symObjAddr: 0x1E30, symBinAddr: 0x100002940, symSize: 0x1A0 }
  - { offset: 0x3F62, size: 0x8, addend: 0x0, symName: __RINvNtNtNtCsieiGu2EXtoJ_4core4iter8adapters5chain17and_then_or_clearINtNtB8_6option8IntoIterNtNtNtCsHUR1vrdMJt_3std3ffi6os_str8OsStringEB1s_NvYB14_NtNtNtB6_6traits8iterator8Iterator4nextECsidTGod54npE_18build_script_build, symObjAddr: 0x1FD0, symBinAddr: 0x100002AE0, symSize: 0x170 }
  - { offset: 0x4133, size: 0x8, addend: 0x0, symName: __RINvNtNtNtCsieiGu2EXtoJ_4core4iter7sources4once4onceNtNtNtCsHUR1vrdMJt_3std3ffi6os_str8OsStringECsidTGod54npE_18build_script_build, symObjAddr: 0x1DC0, symBinAddr: 0x1000028D0, symSize: 0x70 }
  - { offset: 0x4181, size: 0x8, addend: 0x0, symName: __RNvXNtNtNtCsieiGu2EXtoJ_4core4iter7sources4onceINtB2_4OnceNtNtNtCsHUR1vrdMJt_3std3ffi6os_str8OsStringENtNtNtB6_6traits8iterator8Iterator4nextCsidTGod54npE_18build_script_build, symObjAddr: 0x4950, symBinAddr: 0x100005460, symSize: 0x50 }
  - { offset: 0x421E, size: 0x8, addend: 0x0, symName: __RINvYINtNtCsieiGu2EXtoJ_4core6option8IntoIterNtNtNtCsHUR1vrdMJt_3std3ffi6os_str8OsStringENtNtNtNtB8_4iter6traits8iterator8Iterator5chainINtB6_6OptionBH_EECsidTGod54npE_18build_script_build, symObjAddr: 0x2140, symBinAddr: 0x100002C50, symSize: 0xE0 }
  - { offset: 0x4298, size: 0x8, addend: 0x0, symName: __RINvYINtNtNtNtCsieiGu2EXtoJ_4core4iter8adapters5chain5ChainINtNtBc_6option8IntoIterNtNtNtCsHUR1vrdMJt_3std3ffi6os_str8OsStringEBV_ENtNtNtBa_6traits8iterator8Iterator5chainINtNtNtBa_7sources4once4OnceB1j_EECsidTGod54npE_18build_script_build, symObjAddr: 0x2220, symBinAddr: 0x100002D30, symSize: 0x120 }
  - { offset: 0x431E, size: 0x8, addend: 0x0, symName: __RNvXNtNtNtCsieiGu2EXtoJ_4core4iter6traits7collectINtNtNtB6_7sources4once4OnceNtNtNtCsHUR1vrdMJt_3std3ffi6os_str8OsStringENtB2_12IntoIterator9into_iterCsidTGod54npE_18build_script_build, symObjAddr: 0x4900, symBinAddr: 0x100005410, symSize: 0x20 }
  - { offset: 0x4355, size: 0x8, addend: 0x0, symName: __RNvXNtNtNtCsieiGu2EXtoJ_4core4iter6traits7collectINtNtNtB6_8adapters5chain5ChainIBM_INtNtB8_6option8IntoIterNtNtNtCsHUR1vrdMJt_3std3ffi6os_str8OsStringEB1k_EINtNtNtB6_7sources4once4OnceB1I_EENtB2_12IntoIterator9into_iterCsidTGod54npE_18build_script_build, symObjAddr: 0x4920, symBinAddr: 0x100005430, symSize: 0x30 }
  - { offset: 0x4D77, size: 0x8, addend: 0x0, symName: __RNvXNtCsieiGu2EXtoJ_4core7convertReINtB2_5AsRefNtNtCsHUR1vrdMJt_3std4path4PathE6as_refCsidTGod54npE_18build_script_build, symObjAddr: 0x48A0, symBinAddr: 0x1000053B0, symSize: 0x30 }
  - { offset: 0x4DB7, size: 0x8, addend: 0x0, symName: __RNvXNtCsieiGu2EXtoJ_4core7convertReINtB2_5AsRefNtNtNtCsHUR1vrdMJt_3std3ffi6os_str5OsStrE6as_refCsidTGod54npE_18build_script_build, symObjAddr: 0x48D0, symBinAddr: 0x1000053E0, symSize: 0x30 }
  - { offset: 0x4E7B, size: 0x8, addend: 0x0, symName: __RNvNvNtCsieiGu2EXtoJ_4core4hint21unreachable_unchecked18precondition_checkCsidTGod54npE_18build_script_build, symObjAddr: 0x4620, symBinAddr: 0x100005130, symSize: 0x80 }
  - { offset: 0x50E2, size: 0x8, addend: 0x0, symName: __RNSNvYNCINvNtCsHUR1vrdMJt_3std2rt10lang_startuE0INtNtNtCsieiGu2EXtoJ_4core3ops8function6FnOnceuE9call_once6vtableCsidTGod54npE_18build_script_build, symObjAddr: 0x2590, symBinAddr: 0x1000030A0, symSize: 0x20 }
  - { offset: 0x5126, size: 0x8, addend: 0x0, symName: __RNvYFEuINtNtNtCsieiGu2EXtoJ_4core3ops8function6FnOnceuE9call_onceCsidTGod54npE_18build_script_build, symObjAddr: 0x5130, symBinAddr: 0x100005C40, symSize: 0x20 }
  - { offset: 0x5166, size: 0x8, addend: 0x0, symName: __RNvYNCINvNtCsHUR1vrdMJt_3std2rt10lang_startuE0INtNtNtCsieiGu2EXtoJ_4core3ops8function6FnOnceuE9call_onceCsidTGod54npE_18build_script_build, symObjAddr: 0x5150, symBinAddr: 0x100005C60, symSize: 0x40 }
  - { offset: 0x51AA, size: 0x8, addend: 0x0, symName: __RNvYNvYINtNtCsieiGu2EXtoJ_4core6option8IntoIterNtNtNtCsHUR1vrdMJt_3std3ffi6os_str8OsStringENtNtNtNtBa_4iter6traits8iterator8Iterator4nextINtNtNtBa_3ops8function6FnOnceTQB5_EE9call_onceCsidTGod54npE_18build_script_build, symObjAddr: 0x5190, symBinAddr: 0x100005CA0, symSize: 0x30 }
  - { offset: 0x51EE, size: 0x8, addend: 0x0, symName: __RNvYNvYINtNtNtNtCsieiGu2EXtoJ_4core4iter8adapters5chain5ChainINtNtBe_6option8IntoIterNtNtNtCsHUR1vrdMJt_3std3ffi6os_str8OsStringEBX_ENtNtNtBc_6traits8iterator8Iterator4nextINtNtNtBe_3ops8function6FnOnceTQB5_EE9call_onceCsidTGod54npE_18build_script_build, symObjAddr: 0x51C0, symBinAddr: 0x100005CD0, symSize: 0x30 }
  - { offset: 0x5309, size: 0x8, addend: 0x0, symName: __RNvNvXs0_NtNtCsieiGu2EXtoJ_4core5slice5indexjINtB7_10SliceIndexSpE13get_unchecked18precondition_checkCsidTGod54npE_18build_script_build, symObjAddr: 0x46A0, symBinAddr: 0x1000051B0, symSize: 0xA0 }
  - { offset: 0x5377, size: 0x8, addend: 0x0, symName: __RNvNvXs0_NtNtCsieiGu2EXtoJ_4core5slice5indexjINtB7_10SliceIndexSpE17get_unchecked_mut18precondition_checkCsidTGod54npE_18build_script_build, symObjAddr: 0x4740, symBinAddr: 0x100005250, symSize: 0xA0 }
  - { offset: 0x541B, size: 0x8, addend: 0x0, symName: __RNvNvXs2_NtNtCsieiGu2EXtoJ_4core5slice5indexINtNtNtBb_3ops5range5RangejEINtB7_10SliceIndexSpE13get_unchecked18precondition_checkCsidTGod54npE_18build_script_build, symObjAddr: 0x47E0, symBinAddr: 0x1000052F0, symSize: 0xC0 }
  - { offset: 0x5843, size: 0x8, addend: 0x0, symName: __RNvNtNtCsieiGu2EXtoJ_4core4char7methods15encode_utf8_rawCsidTGod54npE_18build_script_build, symObjAddr: 0x3E50, symBinAddr: 0x100004960, symSize: 0xE0 }
  - { offset: 0x5943, size: 0x8, addend: 0x0, symName: __RNvNtNtCsieiGu2EXtoJ_4core4char7methods25encode_utf8_raw_uncheckedCsidTGod54npE_18build_script_build, symObjAddr: 0x3F30, symBinAddr: 0x100004A40, symSize: 0x140 }
  - { offset: 0x5B8A, size: 0x8, addend: 0x0, symName: __RNvXs2_NtNtCsieiGu2EXtoJ_4core3str7patterncNtB5_7Pattern13into_searcherCsidTGod54npE_18build_script_build, symObjAddr: 0x49F0, symBinAddr: 0x100005500, symSize: 0x120 }
  - { offset: 0x5D12, size: 0x8, addend: 0x0, symName: __RNvXs_NtNtCsieiGu2EXtoJ_4core3str7patternNtB4_12CharSearcherNtB4_8Searcher10next_matchCsidTGod54npE_18build_script_build, symObjAddr: 0x4BA0, symBinAddr: 0x1000056B0, symSize: 0x4A0 }
  - { offset: 0x62B7, size: 0x8, addend: 0x0, symName: __RNvXs_NtNtCsieiGu2EXtoJ_4core3str7patternNtB4_12CharSearcherNtB4_8Searcher8haystackCsidTGod54npE_18build_script_build, symObjAddr: 0x5040, symBinAddr: 0x100005B50, symSize: 0x20 }
  - { offset: 0x6FDA, size: 0x8, addend: 0x0, symName: __RNvXNvMsT_NtNtNtCslJiobkLta79_5alloc11collections5btree4nodeINtB8_6HandleINtB8_7NodeRefNtNtB8_6marker5DyingpppENtB1p_2KVE12drop_key_valINtB2_7DropperINtNtCsieiGu2EXtoJ_4core6option6OptionNtNtNtCsHUR1vrdMJt_3std3ffi6os_str8OsStringEENtNtNtB2s_3ops4drop4Drop4dropCsidTGod54npE_18build_script_build, symObjAddr: 0x49A0, symBinAddr: 0x1000054B0, symSize: 0x20 }
  - { offset: 0x7342, size: 0x8, addend: 0x0, symName: __RNCNvCsidTGod54npE_18build_script_build13cargo_env_var0B3_, symObjAddr: 0x2370, symBinAddr: 0x100002E80, symSize: 0x60 }
  - { offset: 0x73A1, size: 0x8, addend: 0x0, symName: __RNCNvCsidTGod54npE_18build_script_build13compile_probe0B3_, symObjAddr: 0x23D0, symBinAddr: 0x100002EE0, symSize: 0x30 }
  - { offset: 0x73D7, size: 0x8, addend: 0x0, symName: __RNCNvCsidTGod54npE_18build_script_build13compile_probes_0B3_, symObjAddr: 0x2400, symBinAddr: 0x100002F10, symSize: 0x30 }
  - { offset: 0x740E, size: 0x8, addend: 0x0, symName: __RNvCsidTGod54npE_18build_script_build13cargo_env_var, symObjAddr: 0x25B0, symBinAddr: 0x1000030C0, symSize: 0x60 }
  - { offset: 0x743A, size: 0x8, addend: 0x0, symName: __RNvCsidTGod54npE_18build_script_build13compile_probe, symObjAddr: 0x2610, symBinAddr: 0x100003120, symSize: 0xE40 }
  - { offset: 0x765A, size: 0x8, addend: 0x0, symName: __RNvCsidTGod54npE_18build_script_build4main, symObjAddr: 0x3450, symBinAddr: 0x100003F60, symSize: 0x240 }
  - { offset: 0x771D, size: 0x8, addend: 0x0, symName: __RINvMNtCsieiGu2EXtoJ_4core6optionINtB3_6OptionNtNtNtCsHUR1vrdMJt_3std3ffi6os_str8OsStringE14unwrap_or_elseNCNvCsidTGod54npE_18build_script_build13cargo_env_var0EB1K_, symObjAddr: 0x0, symBinAddr: 0x100000B90, symSize: 0x90 }
  - { offset: 0x7780, size: 0x8, addend: 0x0, symName: __RINvMNtCsieiGu2EXtoJ_4core6optionINtB3_6OptionNtNtNtCsHUR1vrdMJt_3std3ffi6os_str8OsStringE6filterNCNvCsidTGod54npE_18build_script_build13compile_probe0EB1B_, symObjAddr: 0x90, symBinAddr: 0x100000C20, symSize: 0x100 }
  - { offset: 0x77DC, size: 0x8, addend: 0x0, symName: __RINvMNtCsieiGu2EXtoJ_4core6optionINtB3_6OptionNtNtNtCsHUR1vrdMJt_3std3ffi6os_str8OsStringE6filterNCNvCsidTGod54npE_18build_script_build13compile_probes_0EB1B_, symObjAddr: 0x190, symBinAddr: 0x100000D20, symSize: 0x100 }
  - { offset: 0x7845, size: 0x8, addend: 0x0, symName: __RINvMNtCsieiGu2EXtoJ_4core6optionINtB3_6OptionNtNtNtCsHUR1vrdMJt_3std3ffi6os_str8OsStringE7or_elseNCNvXs_NtNtNtB5_4iter8adapters5chainINtB1F_5ChainIB29_INtB3_8IntoIterBI_EB2q_EINtNtNtB1J_7sources4once4OnceBI_EENtNtNtB1J_6traits8iterator8Iterator4next0ECsidTGod54npE_18build_script_build, symObjAddr: 0x290, symBinAddr: 0x100000E20, symSize: 0xE0 }
  - { offset: 0x78B5, size: 0x8, addend: 0x0, symName: __RINvMNtCsieiGu2EXtoJ_4core6optionINtB3_6OptionNtNtNtCsHUR1vrdMJt_3std3ffi6os_str8OsStringE7or_elseNCNvXs_NtNtNtB5_4iter8adapters5chainINtB1F_5ChainINtB3_8IntoIterBI_EB2l_ENtNtNtB1J_6traits8iterator8Iterator4next0ECsidTGod54npE_18build_script_build, symObjAddr: 0x370, symBinAddr: 0x100000F00, symSize: 0xE0 }
  - { offset: 0x79CC, size: 0x8, addend: 0x0, symName: __RINvMNtNtCsieiGu2EXtoJ_4core3fmt2rtNtB3_8Argument11new_displayNtNtCsHUR1vrdMJt_3std4path7DisplayECsidTGod54npE_18build_script_build, symObjAddr: 0x450, symBinAddr: 0x100000FE0, symSize: 0x30 }
  - { offset: 0x7A6D, size: 0x8, addend: 0x0, symName: __RINvMNtNtCsieiGu2EXtoJ_4core3fmt2rtNtB3_8Argument11new_displayNtNtNtCsHUR1vrdMJt_3std2io5error5ErrorECsidTGod54npE_18build_script_build, symObjAddr: 0x480, symBinAddr: 0x100001010, symSize: 0x30 }
  - { offset: 0x7A98, size: 0x8, addend: 0x0, symName: __RINvMNtNtCsieiGu2EXtoJ_4core3fmt2rtNtB3_8Argument11new_displayReECsidTGod54npE_18build_script_build, symObjAddr: 0x4B0, symBinAddr: 0x100001040, symSize: 0x30 }
  - { offset: 0x7AFE, size: 0x8, addend: 0x0, symName: __RINvMsA_NtCsHUR1vrdMJt_3std2fsNtB6_10DirBuilder6createRNtNtB8_4path4PathECsidTGod54npE_18build_script_build, symObjAddr: 0x4E0, symBinAddr: 0x100001070, symSize: 0x70 }
  - { offset: 0x7C79, size: 0x8, addend: 0x0, symName: __RINvMsh_NtNtNtCslJiobkLta79_5alloc11collections5btree4nodeINtB6_7NodeRefNtNtB6_6marker5DyingNtNtNtCsHUR1vrdMJt_3std3ffi6os_str8OsStringINtNtCsieiGu2EXtoJ_4core6option6OptionB1s_ENtB1a_14LeafOrInternalE21deallocate_and_ascendNtNtBc_5alloc6GlobalECsidTGod54npE_18build_script_build, symObjAddr: 0x550, symBinAddr: 0x1000010E0, symSize: 0x1A0 }
  - { offset: 0x7ECD, size: 0x8, addend: 0x0, symName: __RINvMsj_NtNtNtCslJiobkLta79_5alloc11collections5btree8navigateINtNtB8_4node6HandleINtB11_7NodeRefNtNtB11_6marker5DyingNtNtNtCsHUR1vrdMJt_3std3ffi6os_str8OsStringINtNtCsieiGu2EXtoJ_4core6option6OptionB1S_ENtB1z_4LeafENtB1z_4EdgeE16deallocating_endNtNtBc_5alloc6GlobalECsidTGod54npE_18build_script_build, symObjAddr: 0x6F0, symBinAddr: 0x100001280, symSize: 0xF0 }
  - { offset: 0x8150, size: 0x8, addend: 0x0, symName: __RINvMsj_NtNtNtCslJiobkLta79_5alloc11collections5btree8navigateINtNtB8_4node6HandleINtB11_7NodeRefNtNtB11_6marker5DyingNtNtNtCsHUR1vrdMJt_3std3ffi6os_str8OsStringINtNtCsieiGu2EXtoJ_4core6option6OptionB1S_ENtB1z_4LeafENtB1z_4EdgeE17deallocating_nextNtNtBc_5alloc6GlobalECsidTGod54npE_18build_script_build, symObjAddr: 0x7E0, symBinAddr: 0x100001370, symSize: 0x370 }
  - { offset: 0x86FC, size: 0x8, addend: 0x0, symName: __RNvMNtCsieiGu2EXtoJ_4core6optionINtB2_6OptionNtNtNtCsHUR1vrdMJt_3std3ffi6os_str8OsStringE7is_someCsidTGod54npE_18build_script_build, symObjAddr: 0x3690, symBinAddr: 0x1000041A0, symSize: 0x30 }
  - { offset: 0x8728, size: 0x8, addend: 0x0, symName: __RNvMNtCsieiGu2EXtoJ_4core6resultINtB2_6ResulthNtNtNtB4_3num5error15TryFromIntErrorE6expectCsidTGod54npE_18build_script_build, symObjAddr: 0x36C0, symBinAddr: 0x1000041D0, symSize: 0x80 }
  - { offset: 0x8858, size: 0x8, addend: 0x0, symName: __RNvMsO_NtNtNtCslJiobkLta79_5alloc11collections5btree4nodeINtB5_6HandleINtB5_7NodeRefNtNtB5_6marker5DyingNtNtNtCsHUR1vrdMJt_3std3ffi6os_str8OsStringINtNtCsieiGu2EXtoJ_4core6option6OptionB1E_ENtB1m_8InternalENtB1m_4EdgeE7descendCsidTGod54npE_18build_script_build, symObjAddr: 0x3740, symBinAddr: 0x100004250, symSize: 0x80 }
  - { offset: 0x8B47, size: 0x8, addend: 0x0, symName: __RNvMsT_NtNtNtCslJiobkLta79_5alloc11collections5btree4nodeINtB5_6HandleINtB5_7NodeRefNtNtB5_6marker5DyingNtNtNtCsHUR1vrdMJt_3std3ffi6os_str8OsStringINtNtCsieiGu2EXtoJ_4core6option6OptionB1E_ENtB1m_14LeafOrInternalENtB1m_2KVE12drop_key_valCsidTGod54npE_18build_script_build, symObjAddr: 0x37C0, symBinAddr: 0x1000042D0, symSize: 0x140 }
  - { offset: 0x8E43, size: 0x8, addend: 0x0, symName: __RNvMse_NtNtNtCslJiobkLta79_5alloc11collections5btree4nodeINtB5_7NodeRefNtNtB5_6marker5DyingNtNtNtCsHUR1vrdMJt_3std3ffi6os_str8OsStringINtNtCsieiGu2EXtoJ_4core6option6OptionB1r_ENtB19_14LeafOrInternalE6ascendCsidTGod54npE_18build_script_build, symObjAddr: 0x3900, symBinAddr: 0x100004410, symSize: 0x230 }
  - { offset: 0x91CB, size: 0x8, addend: 0x0, symName: __RNvMsp_NtNtNtCslJiobkLta79_5alloc11collections5btree8navigateINtNtB7_4node6HandleINtB10_7NodeRefNtNtB10_6marker5DyingNtNtNtCsHUR1vrdMJt_3std3ffi6os_str8OsStringINtNtCsieiGu2EXtoJ_4core6option6OptionB1R_ENtB1y_14LeafOrInternalENtB1y_2KVE14next_leaf_edgeCsidTGod54npE_18build_script_build, symObjAddr: 0x3B30, symBinAddr: 0x100004640, symSize: 0x320 }
  - { offset: 0x9B07, size: 0x8, addend: 0x0, symName: __RINvMNtCsieiGu2EXtoJ_4core3stre5splitcECsidTGod54npE_18build_script_build, symObjAddr: 0x0, symBinAddr: 0x100005D20, symSize: 0xB0 }
  - { offset: 0x9B6D, size: 0x8, addend: 0x0, symName: __RNvXNvNtCsHUR1vrdMJt_3std2io17default_write_fmtINtB2_7AdapterNtNtNtNtB6_3sys5stdio4unix6StderrENtNtCsieiGu2EXtoJ_4core3fmt5Write9write_strCsidTGod54npE_18build_script_build, symObjAddr: 0x21D0, symBinAddr: 0x100007ED0, symSize: 0xA0 }
  - { offset: 0x9F28, size: 0x8, addend: 0x0, symName: __RNvXsi_NtNtCsHUR1vrdMJt_3std2io5errorNtB5_9ErrorKindNtNtCsieiGu2EXtoJ_4core3cmp9PartialEq2eqCsidTGod54npE_18build_script_build, symObjAddr: 0x2D00, symBinAddr: 0x100008A00, symSize: 0x20 }
  - { offset: 0x9F8C, size: 0x8, addend: 0x0, symName: __RINvNtCsHUR1vrdMJt_3std2io17default_write_fmtNtNtNtNtB4_3sys5stdio4unix6StderrECsidTGod54npE_18build_script_build, symObjAddr: 0x840, symBinAddr: 0x100006560, symSize: 0x120 }
  - { offset: 0xA041, size: 0x8, addend: 0x0, symName: __RNvYNtNtNtNtCsHUR1vrdMJt_3std3sys5stdio4unix6StderrNtNtBa_2io5Write9write_allCsidTGod54npE_18build_script_build, symObjAddr: 0x3180, symBinAddr: 0x100008E80, symSize: 0x2E0 }
  - { offset: 0xA1E7, size: 0x8, addend: 0x0, symName: __RNvYNtNtNtNtCsHUR1vrdMJt_3std3sys5stdio4unix6StderrNtNtBa_2io5Write9write_fmtCsidTGod54npE_18build_script_build, symObjAddr: 0x3460, symBinAddr: 0x100009160, symSize: 0x170 }
  - { offset: 0xA598, size: 0x8, addend: 0x0, symName: __RINvNtNtCsHUR1vrdMJt_3std3sys9backtrace28___rust_begin_short_backtraceFEuuECsidTGod54npE_18build_script_build, symObjAddr: 0x980, symBinAddr: 0x100006680, symSize: 0x20 }
  - { offset: 0xA62D, size: 0x8, addend: 0x0, symName: __RNvNtNtNtCsHUR1vrdMJt_3std3sys3pal4unix17decode_error_kindCsidTGod54npE_18build_script_build, symObjAddr: 0x16F0, symBinAddr: 0x1000073F0, symSize: 0x310 }
  - { offset: 0xA6AF, size: 0x8, addend: 0x0, symName: __RNvNtNtNtCsHUR1vrdMJt_3std3sys2fs4unix23debug_assert_fd_is_openCsidTGod54npE_18build_script_build, symObjAddr: 0x1640, symBinAddr: 0x100007340, symSize: 0xB0 }
  - { offset: 0xA7E4, size: 0x8, addend: 0x0, symName: __RNvXs15_NtCsHUR1vrdMJt_3std4pathNtB6_7PathBufINtNtCsieiGu2EXtoJ_4core7convert5AsRefNtNtNtB8_3ffi6os_str5OsStrE6as_refCsidTGod54npE_18build_script_build, symObjAddr: 0x2350, symBinAddr: 0x100008050, symSize: 0x20 }
  - { offset: 0xA818, size: 0x8, addend: 0x0, symName: __RNvXs1l_NtCsHUR1vrdMJt_3std4pathNtB6_4PathINtNtCsieiGu2EXtoJ_4core7convert5AsRefBu_E6as_refCsidTGod54npE_18build_script_build, symObjAddr: 0x23F0, symBinAddr: 0x1000080F0, symSize: 0x20 }
  - { offset: 0xA84C, size: 0x8, addend: 0x0, symName: __RNvXs1p_NtCsHUR1vrdMJt_3std4patheINtNtCsieiGu2EXtoJ_4core7convert5AsRefNtB6_4PathE6as_refCsidTGod54npE_18build_script_build, symObjAddr: 0x2410, symBinAddr: 0x100008110, symSize: 0x20 }
  - { offset: 0xA89E, size: 0x8, addend: 0x0, symName: __RNvXsH_NtCsHUR1vrdMJt_3std4pathNtB5_7PathBufNtNtNtCsieiGu2EXtoJ_4core3ops5deref5Deref5derefCsidTGod54npE_18build_script_build, symObjAddr: 0x2940, symBinAddr: 0x100008640, symSize: 0x30 }
  - { offset: 0xA92C, size: 0x8, addend: 0x0, symName: __RNvXs1r_NtCsHUR1vrdMJt_3std4pathNtB6_7PathBufINtNtCsieiGu2EXtoJ_4core7convert5AsRefNtB6_4PathE6as_refCsidTGod54npE_18build_script_build, symObjAddr: 0x2430, symBinAddr: 0x100008130, symSize: 0x30 }
  - { offset: 0xAAA1, size: 0x8, addend: 0x0, symName: __RNvXs5_NtNtCsHUR1vrdMJt_3std3ffi6os_strNtB5_8OsStringNtNtNtCsieiGu2EXtoJ_4core3ops5deref5Deref5derefCsidTGod54npE_18build_script_build, symObjAddr: 0x24C0, symBinAddr: 0x1000081C0, symSize: 0x20 }
  - { offset: 0xAB6B, size: 0x8, addend: 0x0, symName: __RNvXsV_NtNtCsHUR1vrdMJt_3std3ffi6os_strNtB5_8OsStringINtNtCsieiGu2EXtoJ_4core7convert5AsRefNtB5_5OsStrE6as_refCsidTGod54npE_18build_script_build, symObjAddr: 0x2990, symBinAddr: 0x100008690, symSize: 0x20 }
  - { offset: 0xABBD, size: 0x8, addend: 0x0, symName: __RNvXs3_NtNtCsHUR1vrdMJt_3std3ffi6os_strNtB5_8OsStringINtNtNtCsieiGu2EXtoJ_4core3ops5index5IndexNtNtBU_5range9RangeFullE5indexCsidTGod54npE_18build_script_build, symObjAddr: 0x2460, symBinAddr: 0x100008160, symSize: 0x60 }
  - { offset: 0xACF7, size: 0x8, addend: 0x0, symName: __RNvXsU_NtNtCsHUR1vrdMJt_3std3ffi6os_strNtB5_5OsStrINtNtCsieiGu2EXtoJ_4core7convert5AsRefBB_E6as_refCsidTGod54npE_18build_script_build, symObjAddr: 0x2970, symBinAddr: 0x100008670, symSize: 0x20 }
  - { offset: 0xAD2B, size: 0x8, addend: 0x0, symName: __RNvXsW_NtNtCsHUR1vrdMJt_3std3ffi6os_streINtNtCsieiGu2EXtoJ_4core7convert5AsRefNtB5_5OsStrE6as_refCsidTGod54npE_18build_script_build, symObjAddr: 0x29B0, symBinAddr: 0x1000086B0, symSize: 0x20 }
  - { offset: 0xADDD, size: 0x8, addend: 0x0, symName: __RNvXsd_NtNtCsHUR1vrdMJt_3std3ffi6os_strNtB5_8OsStringINtNtCsieiGu2EXtoJ_4core3cmp9PartialEqReE2eqCsidTGod54npE_18build_script_build, symObjAddr: 0x2BE0, symBinAddr: 0x1000088E0, symSize: 0x120 }
  - { offset: 0xB123, size: 0x8, addend: 0x0, symName: __RNvXs5_NtNtNtCsHUR1vrdMJt_3std2os2fd5ownedNtB5_7OwnedFdNtNtNtCsieiGu2EXtoJ_4core3ops4drop4Drop4dropCsidTGod54npE_18build_script_build, symObjAddr: 0x2560, symBinAddr: 0x100008260, symSize: 0x30 }
  - { offset: 0xB306, size: 0x8, addend: 0x0, symName: __RNvXsZ_NtCsHUR1vrdMJt_3std7processuNtB5_11Termination6reportCsidTGod54npE_18build_script_build, symObjAddr: 0x29F0, symBinAddr: 0x1000086F0, symSize: 0x10 }
  - { offset: 0xB69E, size: 0x8, addend: 0x0, symName: __RNvNvMs1_NtNtCsieiGu2EXtoJ_4core3ptr8non_nullINtB7_7NonNullpE13new_unchecked18precondition_checkCsidTGod54npE_18build_script_build, symObjAddr: 0x1AB0, symBinAddr: 0x1000077B0, symSize: 0x90 }
  - { offset: 0xC154, size: 0x8, addend: 0x0, symName: __RINvMNtCsieiGu2EXtoJ_4core3stre5splitcECsidTGod54npE_18build_script_build, symObjAddr: 0x0, symBinAddr: 0x100005D20, symSize: 0xB0 }
  - { offset: 0xC29A, size: 0x8, addend: 0x0, symName: __RNvNvXs5_NtNtCsieiGu2EXtoJ_4core3str6traitsINtNtNtBb_3ops5range5RangejEINtNtNtBb_5slice5index10SliceIndexeE13get_unchecked18precondition_checkCsidTGod54npE_18build_script_build, symObjAddr: 0x2000, symBinAddr: 0x100007D00, symSize: 0xC0 }
  - { offset: 0xC3A9, size: 0x8, addend: 0x0, symName: __RNvXsX_NtNtCsieiGu2EXtoJ_4core3str4iterINtB5_5SplitcENtNtNtNtB9_4iter6traits8iterator8Iterator4nextCsidTGod54npE_18build_script_build, symObjAddr: 0x29D0, symBinAddr: 0x1000086D0, symSize: 0x20 }
  - { offset: 0xC7DA, size: 0x8, addend: 0x0, symName: __RNvXs_NvNtNtCsieiGu2EXtoJ_4core3fmt5Write9write_fmtQINtNvNtCsHUR1vrdMJt_3std2io17default_write_fmt7AdapterNtNtNtNtBV_3sys5stdio4unix6StderrENtB4_12SpecWriteFmt14spec_write_fmtCsidTGod54npE_18build_script_build, symObjAddr: 0x2A70, symBinAddr: 0x100008770, symSize: 0x170 }
  - { offset: 0xC891, size: 0x8, addend: 0x0, symName: __RNvYINtNvNtCsHUR1vrdMJt_3std2io17default_write_fmt7AdapterNtNtNtNtB9_3sys5stdio4unix6StderrENtNtCsieiGu2EXtoJ_4core3fmt5Write10write_charCsidTGod54npE_18build_script_build, symObjAddr: 0x30D0, symBinAddr: 0x100008DD0, symSize: 0x70 }
  - { offset: 0xC8F9, size: 0x8, addend: 0x0, symName: __RNvYINtNvNtCsHUR1vrdMJt_3std2io17default_write_fmt7AdapterNtNtNtNtB9_3sys5stdio4unix6StderrENtNtCsieiGu2EXtoJ_4core3fmt5Write9write_fmtCsidTGod54npE_18build_script_build, symObjAddr: 0x3140, symBinAddr: 0x100008E40, symSize: 0x20 }
  - { offset: 0xD72D, size: 0x8, addend: 0x0, symName: __RNvXNtNtNtCsieiGu2EXtoJ_4core4iter6traits7collectINtNtNtB8_3str4iter5SplitcENtB2_12IntoIterator9into_iterCsidTGod54npE_18build_script_build, symObjAddr: 0x2160, symBinAddr: 0x100007E60, symSize: 0x30 }
  - { offset: 0xD7DE, size: 0x8, addend: 0x0, symName: __RNvNvNtNtCsieiGu2EXtoJ_4core5slice3raw14from_raw_parts18precondition_checkCsidTGod54npE_18build_script_build, symObjAddr: 0x1B40, symBinAddr: 0x100007840, symSize: 0x260 }
  - { offset: 0xD9AC, size: 0x8, addend: 0x0, symName: __RNvNvNtNtCsieiGu2EXtoJ_4core5slice3raw18from_raw_parts_mut18precondition_checkCsidTGod54npE_18build_script_build, symObjAddr: 0x1DA0, symBinAddr: 0x100007AA0, symSize: 0x260 }
  - { offset: 0xDC6D, size: 0x8, addend: 0x0, symName: __RNvNtNtCsieiGu2EXtoJ_4core5slice6memchr6memchrCsidTGod54npE_18build_script_build, symObjAddr: 0x1560, symBinAddr: 0x100007260, symSize: 0xE0 }
  - { offset: 0xDD95, size: 0x8, addend: 0x0, symName: __RNvXs5_NtNtCsieiGu2EXtoJ_4core5slice5indexINtNtNtB9_3ops5range9RangeFromjEINtB5_10SliceIndexShE5indexCsidTGod54npE_18build_script_build, symObjAddr: 0x24E0, symBinAddr: 0x1000081E0, symSize: 0x80 }
  - { offset: 0xDFB2, size: 0x8, addend: 0x0, symName: __RNvXNtCsieiGu2EXtoJ_4core7convertRNtNtCsHUR1vrdMJt_3std4path4PathINtB2_5AsRefBw_E6as_refCsidTGod54npE_18build_script_build, symObjAddr: 0x20C0, symBinAddr: 0x100007DC0, symSize: 0x30 }
  - { offset: 0xDFF2, size: 0x8, addend: 0x0, symName: __RNvXNtCsieiGu2EXtoJ_4core7convertRNtNtCsHUR1vrdMJt_3std4path7PathBufINtB2_5AsRefNtBy_4PathE6as_refCsidTGod54npE_18build_script_build, symObjAddr: 0x20F0, symBinAddr: 0x100007DF0, symSize: 0x20 }
  - { offset: 0xE032, size: 0x8, addend: 0x0, symName: __RNvXNtCsieiGu2EXtoJ_4core7convertRNtNtCsHUR1vrdMJt_3std4path7PathBufINtB2_5AsRefNtNtNtBA_3ffi6os_str5OsStrE6as_refCsidTGod54npE_18build_script_build, symObjAddr: 0x2110, symBinAddr: 0x100007E10, symSize: 0x20 }
  - { offset: 0xE072, size: 0x8, addend: 0x0, symName: __RNvXNtCsieiGu2EXtoJ_4core7convertRNtNtNtCsHUR1vrdMJt_3std3ffi6os_str5OsStrINtB2_5AsRefBw_E6as_refCsidTGod54npE_18build_script_build, symObjAddr: 0x2130, symBinAddr: 0x100007E30, symSize: 0x30 }
  - { offset: 0xE0B8, size: 0x8, addend: 0x0, symName: __RNvXs1_NtCsieiGu2EXtoJ_4core7convertNtNtCsHUR1vrdMJt_3std7process5StdioINtB5_4IntoBy_E4intoCsidTGod54npE_18build_script_build, symObjAddr: 0x2370, symBinAddr: 0x100008070, symSize: 0x20 }
  - { offset: 0xE1F0, size: 0x8, addend: 0x0, symName: __RNvNvMNtNtCsieiGu2EXtoJ_4core5alloc6layoutNtB4_6Layout25from_size_align_unchecked18precondition_checkCsidTGod54npE_18build_script_build, symObjAddr: 0x1A00, symBinAddr: 0x100007700, symSize: 0xB0 }
  - { offset: 0xE520, size: 0x8, addend: 0x0, symName: __RNvYNtNtNtCsHUR1vrdMJt_3std2io5error9ErrorKindNtNtCsieiGu2EXtoJ_4core3cmp9PartialEq2neCsidTGod54npE_18build_script_build, symObjAddr: 0x3160, symBinAddr: 0x100008E60, symSize: 0x20 }
  - { offset: 0xE787, size: 0x8, addend: 0x0, symName: __RNvXsn_NtCslJiobkLta79_5alloc3vecINtB5_3VecINtNtB7_5boxed3BoxDINtNtNtCsieiGu2EXtoJ_4core3ops8function5FnMutuEp6OutputINtNtB15_6result6ResultuNtNtNtCsHUR1vrdMJt_3std2io5error5ErrorENtNtB15_6marker4SyncNtB2U_4SendEL_EENtNtB13_4drop4Drop4dropCsidTGod54npE_18build_script_build, symObjAddr: 0x2D20, symBinAddr: 0x100008A20, symSize: 0x30 }
  - { offset: 0xE837, size: 0x8, addend: 0x0, symName: __RNvXsn_NtCslJiobkLta79_5alloc3vecINtB5_3VecPaENtNtNtCsieiGu2EXtoJ_4core3ops4drop4Drop4dropCsidTGod54npE_18build_script_build, symObjAddr: 0x2D50, symBinAddr: 0x100008A50, symSize: 0x20 }
  - { offset: 0xE8FB, size: 0x8, addend: 0x0, symName: __RNvXs1_NtCslJiobkLta79_5alloc5allocNtB5_6GlobalNtNtCsieiGu2EXtoJ_4core5clone5Clone5cloneCsidTGod54npE_18build_script_build, symObjAddr: 0x2390, symBinAddr: 0x100008090, symSize: 0x10 }
  - { offset: 0xE94C, size: 0x8, addend: 0x0, symName: __RNvXs_NtCslJiobkLta79_5alloc5allocNtB4_6GlobalNtNtCsieiGu2EXtoJ_4core5alloc9Allocator10deallocateCsidTGod54npE_18build_script_build, symObjAddr: 0x2A00, symBinAddr: 0x100008700, symSize: 0x70 }
  - { offset: 0xEC57, size: 0x8, addend: 0x0, symName: __RNvXs1_NtCslJiobkLta79_5alloc7raw_vecINtB5_6RawVecINtNtB7_5boxed3BoxDINtNtNtCsieiGu2EXtoJ_4core3ops8function5FnMutuEp6OutputINtNtB1c_6result6ResultuNtNtNtCsHUR1vrdMJt_3std2io5error5ErrorENtNtB1c_6marker4SyncNtB31_4SendEL_EENtNtB1a_4drop4Drop4dropCsidTGod54npE_18build_script_build, symObjAddr: 0x23A0, symBinAddr: 0x1000080A0, symSize: 0x30 }
  - { offset: 0xEC93, size: 0x8, addend: 0x0, symName: __RNvXs1_NtCslJiobkLta79_5alloc7raw_vecINtB5_6RawVecPaENtNtNtCsieiGu2EXtoJ_4core3ops4drop4Drop4dropCsidTGod54npE_18build_script_build, symObjAddr: 0x23D0, symBinAddr: 0x1000080D0, symSize: 0x20 }
  - { offset: 0xEE9F, size: 0x8, addend: 0x0, symName: __RNCINvMsm_NtNtNtCslJiobkLta79_5alloc11collections5btree8navigateINtNtBa_4node6HandleINtB13_7NodeRefNtNtB13_6marker5DyingNtNtNtCsHUR1vrdMJt_3std3ffi6os_str8OsStringINtNtCsieiGu2EXtoJ_4core6option6OptionB1U_ENtB1B_4LeafENtB1B_4EdgeE27deallocating_next_uncheckedNtNtBe_5alloc6GlobalE0CsidTGod54npE_18build_script_build, symObjAddr: 0xAB0, symBinAddr: 0x1000067B0, symSize: 0x60 }
  - { offset: 0xF56F, size: 0x8, addend: 0x0, symName: __RNvXNtNtNtCslJiobkLta79_5alloc11collections5btree3mapINtB2_8BTreeMapNtNtNtCsHUR1vrdMJt_3std3ffi6os_str8OsStringINtNtCsieiGu2EXtoJ_4core6option6OptionB14_EENtNtNtB1Q_3ops4drop4Drop4dropCsidTGod54npE_18build_script_build, symObjAddr: 0x2190, symBinAddr: 0x100007E90, symSize: 0x40 }
  - { offset: 0xF5FD, size: 0x8, addend: 0x0, symName: __RNvXNvXsw_NtNtNtCslJiobkLta79_5alloc11collections5btree3mapINtB8_8IntoIterpppENtNtNtCsieiGu2EXtoJ_4core3ops4drop4Drop4dropINtB2_9DropGuardNtNtNtCsHUR1vrdMJt_3std3ffi6os_str8OsStringINtNtB1k_6option6OptionB2c_ENtNtBe_5alloc6GlobalEB1e_4dropCsidTGod54npE_18build_script_build, symObjAddr: 0x2280, symBinAddr: 0x100007F80, symSize: 0x70 }
  - { offset: 0xF692, size: 0x8, addend: 0x0, symName: __RNvXsw_NtNtNtCslJiobkLta79_5alloc11collections5btree3mapINtB5_8IntoIterNtNtNtCsHUR1vrdMJt_3std3ffi6os_str8OsStringINtNtCsieiGu2EXtoJ_4core6option6OptionB17_EENtNtNtB1T_3ops4drop4Drop4dropCsidTGod54npE_18build_script_build, symObjAddr: 0x3030, symBinAddr: 0x100008D30, symSize: 0xA0 }
  - { offset: 0xF709, size: 0x8, addend: 0x0, symName: __RNvXsv_NtNtNtCslJiobkLta79_5alloc11collections5btree3mapINtB5_8BTreeMapNtNtNtCsHUR1vrdMJt_3std3ffi6os_str8OsStringINtNtCsieiGu2EXtoJ_4core6option6OptionB17_EENtNtNtNtB1T_4iter6traits7collect12IntoIterator9into_iterCsidTGod54npE_18build_script_build, symObjAddr: 0x2D90, symBinAddr: 0x100008A90, symSize: 0x2A0 }
  - { offset: 0xF886, size: 0x8, addend: 0x0, symName: __RINvNtNtNtCslJiobkLta79_5alloc11collections5btree3mem7replaceINtNtB4_4node6HandleINtB10_7NodeRefNtNtB10_6marker5DyingNtNtNtCsHUR1vrdMJt_3std3ffi6os_str8OsStringINtNtCsieiGu2EXtoJ_4core6option6OptionB1R_ENtB1y_4LeafENtB1y_4EdgeEIBY_IB1i_B1w_B1R_B2y_NtB1y_14LeafOrInternalENtB1y_2KVENCINvMsm_NtB4_8navigateBX_27deallocating_next_uncheckedNtNtB8_5alloc6GlobalE0ECsidTGod54npE_18build_script_build, symObjAddr: 0x9A0, symBinAddr: 0x1000066A0, symSize: 0x110 }
  - { offset: 0xF982, size: 0x8, addend: 0x0, symName: __RNvXNvNtNtNtCslJiobkLta79_5alloc11collections5btree3mem7replaceNtB2_10PanicGuardNtNtNtCsieiGu2EXtoJ_4core3ops4drop4Drop4dropCsidTGod54npE_18build_script_build, symObjAddr: 0x2270, symBinAddr: 0x100007F70, symSize: 0x10 }
  - { offset: 0xF9DB, size: 0x8, addend: 0x0, symName: __RNvXs0_NtNtCslJiobkLta79_5alloc3ffi5c_strNtB5_7CStringNtNtNtCsieiGu2EXtoJ_4core3ops4drop4Drop4dropCsidTGod54npE_18build_script_build, symObjAddr: 0x22F0, symBinAddr: 0x100007FF0, symSize: 0x60 }
  - { offset: 0xFAA5, size: 0x8, addend: 0x0, symName: __RNvXss_NtCslJiobkLta79_5alloc6stringNtB5_6StringNtNtNtCsieiGu2EXtoJ_4core3ops5deref5Deref5derefCsidTGod54npE_18build_script_build, symObjAddr: 0x2D70, symBinAddr: 0x100008A70, symSize: 0x20 }
  - { offset: 0xFADF, size: 0x8, addend: 0x0, symName: __RNvXs6_NtCslJiobkLta79_5alloc5boxedINtB5_3BoxDINtNtNtCsieiGu2EXtoJ_4core3ops8function5FnMutuEp6OutputINtNtBP_6result6ResultuNtNtNtCsHUR1vrdMJt_3std2io5error5ErrorENtNtBP_6marker4SyncNtB2D_4SendEL_ENtNtBN_4drop4Drop4dropCsidTGod54npE_18build_script_build, symObjAddr: 0x2590, symBinAddr: 0x100008290, symSize: 0xC0 }
  - { offset: 0xFC1C, size: 0x8, addend: 0x0, symName: __RNvXs6_NtCslJiobkLta79_5alloc5boxedINtB5_3BoxDNtNtCsieiGu2EXtoJ_4core5error5ErrorNtNtBM_6marker4SyncNtB1j_4SendEL_ENtNtNtBM_3ops4drop4Drop4dropCsidTGod54npE_18build_script_build, symObjAddr: 0x2650, symBinAddr: 0x100008350, symSize: 0xC0 }
  - { offset: 0xFD59, size: 0x8, addend: 0x0, symName: __RNvXs6_NtCslJiobkLta79_5alloc5boxedINtB5_3BoxNtNtNtCsHUR1vrdMJt_3std2io5error6CustomENtNtNtCsieiGu2EXtoJ_4core3ops4drop4Drop4dropCsidTGod54npE_18build_script_build, symObjAddr: 0x2710, symBinAddr: 0x100008410, symSize: 0xB0 }
  - { offset: 0xFE94, size: 0x8, addend: 0x0, symName: __RNvXs6_NtCslJiobkLta79_5alloc5boxedINtB5_3BoxShENtNtNtCsieiGu2EXtoJ_4core3ops4drop4Drop4dropCsidTGod54npE_18build_script_build, symObjAddr: 0x27C0, symBinAddr: 0x1000084C0, symSize: 0xC0 }
  - { offset: 0xFFD1, size: 0x8, addend: 0x0, symName: __RNvXs6_NtCslJiobkLta79_5alloc5boxedINtB5_3BoxSmENtNtNtCsieiGu2EXtoJ_4core3ops4drop4Drop4dropCsidTGod54npE_18build_script_build, symObjAddr: 0x2880, symBinAddr: 0x100008580, symSize: 0xC0 }
  - { offset: 0x10152, size: 0x8, addend: 0x0, symName: __RINvMs16_NtCsHUR1vrdMJt_3std4pathNtB7_4Path3newNtNtNtB9_3ffi6os_str8OsStringECsidTGod54npE_18build_script_build, symObjAddr: 0xB0, symBinAddr: 0x100005DD0, symSize: 0x20 }
  - { offset: 0x1017E, size: 0x8, addend: 0x0, symName: __RINvMs16_NtCsHUR1vrdMJt_3std4pathNtB7_4Path3neweECsidTGod54npE_18build_script_build, symObjAddr: 0xD0, symBinAddr: 0x100005DF0, symSize: 0x20 }
  - { offset: 0x101AA, size: 0x8, addend: 0x0, symName: __RINvMs16_NtCsHUR1vrdMJt_3std4pathNtB7_4Path4joinReECsidTGod54npE_18build_script_build, symObjAddr: 0xF0, symBinAddr: 0x100005E10, symSize: 0x80 }
  - { offset: 0x1031B, size: 0x8, addend: 0x0, symName: __RINvMs_NtNtCsieiGu2EXtoJ_4core3fmt2rtNtB7_9Arguments6new_v1Kj2_Kj1_ECsidTGod54npE_18build_script_build, symObjAddr: 0x170, symBinAddr: 0x100005E90, symSize: 0x40 }
  - { offset: 0x1037F, size: 0x8, addend: 0x0, symName: __RINvMs_NtNtCsieiGu2EXtoJ_4core3fmt2rtNtB7_9Arguments6new_v1Kj3_Kj2_ECsidTGod54npE_18build_script_build, symObjAddr: 0x1B0, symBinAddr: 0x100005ED0, symSize: 0x40 }
  - { offset: 0x103C9, size: 0x8, addend: 0x0, symName: __RINvMs_NtNtCsieiGu2EXtoJ_4core3fmt2rtNtB7_9Arguments9new_constKj1_ECsidTGod54npE_18build_script_build, symObjAddr: 0x1F0, symBinAddr: 0x100005F10, symSize: 0x40 }
  - { offset: 0x10475, size: 0x8, addend: 0x0, symName: __RINvMsb_NtNtNtCslJiobkLta79_5alloc11collections5btree8navigateINtB6_13LazyLeafRangeNtNtNtB8_4node6marker5DyingNtNtNtCsHUR1vrdMJt_3std3ffi6os_str8OsStringINtNtCsieiGu2EXtoJ_4core6option6OptionB1K_EE16deallocating_endNtNtBc_5alloc6GlobalECsidTGod54npE_18build_script_build, symObjAddr: 0x230, symBinAddr: 0x100005F50, symSize: 0x90 }
  - { offset: 0x10572, size: 0x8, addend: 0x0, symName: __RINvMsb_NtNtNtCslJiobkLta79_5alloc11collections5btree8navigateINtB6_13LazyLeafRangeNtNtNtB8_4node6marker5DyingNtNtNtCsHUR1vrdMJt_3std3ffi6os_str8OsStringINtNtCsieiGu2EXtoJ_4core6option6OptionB1K_EE27deallocating_next_uncheckedNtNtBc_5alloc6GlobalECsidTGod54npE_18build_script_build, symObjAddr: 0x2C0, symBinAddr: 0x100005FE0, symSize: 0xB0 }
  - { offset: 0x1074C, size: 0x8, addend: 0x0, symName: __RINvMsk_NtCsHUR1vrdMJt_3std7processNtB6_7Command10env_removeReECsidTGod54npE_18build_script_build, symObjAddr: 0x370, symBinAddr: 0x100006090, symSize: 0x70 }
  - { offset: 0x107A5, size: 0x8, addend: 0x0, symName: __RINvMsk_NtCsHUR1vrdMJt_3std7processNtB6_7Command3argNtNtB8_4path7PathBufECsidTGod54npE_18build_script_build, symObjAddr: 0x3E0, symBinAddr: 0x100006100, symSize: 0x80 }
  - { offset: 0x107E1, size: 0x8, addend: 0x0, symName: __RINvMsk_NtCsHUR1vrdMJt_3std7processNtB6_7Command3argNtNtNtB8_3ffi6os_str8OsStringECsidTGod54npE_18build_script_build, symObjAddr: 0x460, symBinAddr: 0x100006180, symSize: 0x80 }
  - { offset: 0x1082A, size: 0x8, addend: 0x0, symName: __RINvMsk_NtCsHUR1vrdMJt_3std7processNtB6_7Command3argRNtNtB8_4path7PathBufECsidTGod54npE_18build_script_build, symObjAddr: 0x4E0, symBinAddr: 0x100006200, symSize: 0x60 }
  - { offset: 0x1088C, size: 0x8, addend: 0x0, symName: __RINvMsk_NtCsHUR1vrdMJt_3std7processNtB6_7Command3argRNtNtNtB8_3ffi6os_str5OsStrECsidTGod54npE_18build_script_build, symObjAddr: 0x540, symBinAddr: 0x100006260, symSize: 0x60 }
  - { offset: 0x108C7, size: 0x8, addend: 0x0, symName: __RINvMsk_NtCsHUR1vrdMJt_3std7processNtB6_7Command3argReECsidTGod54npE_18build_script_build, symObjAddr: 0x5A0, symBinAddr: 0x1000062C0, symSize: 0x60 }
  - { offset: 0x10902, size: 0x8, addend: 0x0, symName: __RINvMsk_NtCsHUR1vrdMJt_3std7processNtB6_7Command3newNtNtNtB8_3ffi6os_str8OsStringECsidTGod54npE_18build_script_build, symObjAddr: 0x600, symBinAddr: 0x100006320, symSize: 0xC0 }
  - { offset: 0x10930, size: 0x8, addend: 0x0, symName: __RINvMsk_NtCsHUR1vrdMJt_3std7processNtB6_7Command4argsINtNtNtNtCsieiGu2EXtoJ_4core4iter8adapters5chain5ChainIBQ_INtNtBY_6option8IntoIterNtNtNtB8_3ffi6os_str8OsStringEB1L_EINtNtNtBW_7sources4once4OnceB29_EEB29_ECsidTGod54npE_18build_script_build, symObjAddr: 0x6C0, symBinAddr: 0x1000063E0, symSize: 0x130 }
  - { offset: 0x109A2, size: 0x8, addend: 0x0, symName: __RINvMsk_NtCsHUR1vrdMJt_3std7processNtB6_7Command6stderrNtB6_5StdioECsidTGod54npE_18build_script_build, symObjAddr: 0x7F0, symBinAddr: 0x100006510, symSize: 0x50 }
  - { offset: 0x10BA2, size: 0x8, addend: 0x0, symName: __RNvMNtCslJiobkLta79_5alloc6stringNtB2_6String6as_strCsidTGod54npE_18build_script_build, symObjAddr: 0xB10, symBinAddr: 0x100006810, symSize: 0x60 }
  - { offset: 0x10CD7, size: 0x8, addend: 0x0, symName: __RNvMNtCslJiobkLta79_5alloc6stringNtB2_6String8is_emptyCsidTGod54npE_18build_script_build, symObjAddr: 0xB70, symBinAddr: 0x100006870, symSize: 0x20 }
  - { offset: 0x10D2D, size: 0x8, addend: 0x0, symName: __RNvMs16_NtCsHUR1vrdMJt_3std4pathNtB6_4Path7displayCsidTGod54npE_18build_script_build, symObjAddr: 0xB90, symBinAddr: 0x100006890, symSize: 0x20 }
  - { offset: 0x10D89, size: 0x8, addend: 0x0, symName: __RNvMs5_NtNtCsHUR1vrdMJt_3std2io5errorNtB5_5Error4kindCsidTGod54npE_18build_script_build, symObjAddr: 0xBB0, symBinAddr: 0x1000068B0, symSize: 0x90 }
  - { offset: 0x10F0D, size: 0x8, addend: 0x0, symName: __RNvMsI_NtCsHUR1vrdMJt_3std7processNtB5_10ExitStatus7successCsidTGod54npE_18build_script_build, symObjAddr: 0xC40, symBinAddr: 0x100006940, symSize: 0x60 }
  - { offset: 0x1117E, size: 0x8, addend: 0x0, symName: __RNvMsb_NtNtNtCslJiobkLta79_5alloc11collections5btree8navigateINtB5_13LazyLeafRangeNtNtNtB7_4node6marker5DyingNtNtNtCsHUR1vrdMJt_3std3ffi6os_str8OsStringINtNtCsieiGu2EXtoJ_4core6option6OptionB1J_EE10take_frontCsidTGod54npE_18build_script_build, symObjAddr: 0xCA0, symBinAddr: 0x1000069A0, symSize: 0x2E0 }
  - { offset: 0x114DD, size: 0x8, addend: 0x0, symName: __RNvMsc_NtNtNtCslJiobkLta79_5alloc11collections5btree8navigateINtB5_13LazyLeafRangeNtNtNtB7_4node6marker5DyingNtNtNtCsHUR1vrdMJt_3std3ffi6os_str8OsStringINtNtCsieiGu2EXtoJ_4core6option6OptionB1J_EE10init_frontCsidTGod54npE_18build_script_build, symObjAddr: 0xF80, symBinAddr: 0x100006C80, symSize: 0x280 }
  - { offset: 0x1168E, size: 0x8, addend: 0x0, symName: __RNvMsf_NtNtCsieiGu2EXtoJ_4core3str4iterINtB5_13SplitInternalcE4nextCsidTGod54npE_18build_script_build, symObjAddr: 0x1200, symBinAddr: 0x100006F00, symSize: 0x180 }
  - { offset: 0x117D2, size: 0x8, addend: 0x0, symName: __RNvMsf_NtNtCsieiGu2EXtoJ_4core3str4iterINtB5_13SplitInternalcE7get_endCsidTGod54npE_18build_script_build, symObjAddr: 0x1380, symBinAddr: 0x100007080, symSize: 0x110 }
  - { offset: 0x118D8, size: 0x8, addend: 0x0, symName: __RNvMsl_NtNtCsHUR1vrdMJt_3std3ffi6os_strNtB5_5OsStr8is_emptyCsidTGod54npE_18build_script_build, symObjAddr: 0x1490, symBinAddr: 0x100007190, symSize: 0x20 }
  - { offset: 0x11910, size: 0x8, addend: 0x0, symName: __RNvMsv_NtCsHUR1vrdMJt_3std7processNtB5_5Stdio4nullCsidTGod54npE_18build_script_build, symObjAddr: 0x14B0, symBinAddr: 0x1000071B0, symSize: 0x20 }
  - { offset: 0x11930, size: 0x8, addend: 0x0, symName: __RNvMsx_NtNtNtCslJiobkLta79_5alloc11collections5btree3mapINtB5_8IntoIterNtNtNtCsHUR1vrdMJt_3std3ffi6os_str8OsStringINtNtCsieiGu2EXtoJ_4core6option6OptionB17_EE10dying_nextCsidTGod54npE_18build_script_build, symObjAddr: 0x14D0, symBinAddr: 0x1000071D0, symSize: 0x90 }
  - { offset: 0x124C6, size: 0x8, addend: 0x0, symName: ___llvm_profile_get_magic, symObjAddr: 0x20, symBinAddr: 0x100009340, symSize: 0x10 }
  - { offset: 0x124E7, size: 0x8, addend: 0x0, symName: ___llvm_profile_get_num_padding_bytes, symObjAddr: 0x40, symBinAddr: 0x100009350, symSize: 0x10 }
  - { offset: 0x12518, size: 0x8, addend: 0x0, symName: ___llvm_profile_get_version, symObjAddr: 0x50, symBinAddr: 0x100009360, symSize: 0x10 }
  - { offset: 0x1258D, size: 0x8, addend: 0x0, symName: ___llvm_profile_is_continuous_mode_enabled, symObjAddr: 0x0, symBinAddr: 0x100009370, symSize: 0x20 }
  - { offset: 0x125AA, size: 0x8, addend: 0x0, symName: _ContinuouslySyncProfile, symObjAddr: 0x40E0, symBinAddr: 0x10006A020, symSize: 0x0 }
  - { offset: 0x125CC, size: 0x8, addend: 0x0, symName: _PageSize, symObjAddr: 0x40E4, symBinAddr: 0x10006A024, symSize: 0x0 }
  - { offset: 0x125FA, size: 0x8, addend: 0x0, symName: ___llvm_profile_is_continuous_mode_enabled, symObjAddr: 0x0, symBinAddr: 0x100009370, symSize: 0x20 }
  - { offset: 0x1261B, size: 0x8, addend: 0x0, symName: ___llvm_profile_enable_continuous_mode, symObjAddr: 0x20, symBinAddr: 0x100009390, symSize: 0x10 }
  - { offset: 0x12638, size: 0x8, addend: 0x0, symName: ___llvm_profile_disable_continuous_mode, symObjAddr: 0x30, symBinAddr: 0x1000093A0, symSize: 0x10 }
  - { offset: 0x12655, size: 0x8, addend: 0x0, symName: ___llvm_profile_set_page_size, symObjAddr: 0x40, symBinAddr: 0x1000093B0, symSize: 0x10 }
  - { offset: 0x12680, size: 0x8, addend: 0x0, symName: ___llvm_profile_get_size_for_buffer, symObjAddr: 0x50, symBinAddr: 0x1000093C0, symSize: 0xD0 }
  - { offset: 0x12ACE, size: 0x8, addend: 0x0, symName: ___llvm_profile_get_size_for_buffer_internal, symObjAddr: 0x120, symBinAddr: 0x100009490, symSize: 0x210 }
  - { offset: 0x12E72, size: 0x8, addend: 0x0, symName: ___llvm_profile_get_num_data, symObjAddr: 0x330, symBinAddr: 0x1000096A0, symSize: 0x10 }
  - { offset: 0x12EAB, size: 0x8, addend: 0x0, symName: ___llvm_profile_get_data_size, symObjAddr: 0x340, symBinAddr: 0x1000096B0, symSize: 0x10 }
  - { offset: 0x12ED7, size: 0x8, addend: 0x0, symName: ___llvm_profile_get_data_size, symObjAddr: 0x340, symBinAddr: 0x1000096B0, symSize: 0x10 }
  - { offset: 0x12F0D, size: 0x8, addend: 0x0, symName: ___llvm_profile_get_num_vtable, symObjAddr: 0x350, symBinAddr: 0x1000096C0, symSize: 0x20 }
  - { offset: 0x12F63, size: 0x8, addend: 0x0, symName: ___llvm_profile_get_vtable_section_size, symObjAddr: 0x370, symBinAddr: 0x1000096E0, symSize: 0x10 }
  - { offset: 0x12F8A, size: 0x8, addend: 0x0, symName: ___llvm_profile_counter_entry_size, symObjAddr: 0x380, symBinAddr: 0x1000096F0, symSize: 0x20 }
  - { offset: 0x12FA2, size: 0x8, addend: 0x0, symName: ___llvm_profile_get_num_counters, symObjAddr: 0x3A0, symBinAddr: 0x100009710, symSize: 0x50 }
  - { offset: 0x12FF7, size: 0x8, addend: 0x0, symName: ___llvm_profile_get_counters_size, symObjAddr: 0x3F0, symBinAddr: 0x100009760, symSize: 0x60 }
  - { offset: 0x1308B, size: 0x8, addend: 0x0, symName: ___llvm_profile_get_num_bitmap_bytes, symObjAddr: 0x450, symBinAddr: 0x1000097C0, symSize: 0x10 }
  - { offset: 0x130B2, size: 0x8, addend: 0x0, symName: ___llvm_profile_get_name_size, symObjAddr: 0x460, symBinAddr: 0x1000097D0, symSize: 0x10 }
  - { offset: 0x130D9, size: 0x8, addend: 0x0, symName: ___llvm_profile_get_padding_sizes_for_counters, symObjAddr: 0x470, symBinAddr: 0x1000097E0, symSize: 0x1B0 }
  - { offset: 0x131F8, size: 0x8, addend: 0x0, symName: _initBufferWriter, symObjAddr: 0x620, symBinAddr: 0x100009990, symSize: 0x10 }
  - { offset: 0x13362, size: 0x8, addend: 0x0, symName: _lprofCurFilename, symObjAddr: 0xA6F8, symBinAddr: 0x10006A028, symSize: 0x0 }
  - { offset: 0x1348B, size: 0x8, addend: 0x0, symName: _ProfileFile, symObjAddr: 0xA7C8, symBinAddr: 0x10006A0F8, symSize: 0x0 }
  - { offset: 0x136B9, size: 0x8, addend: 0x0, symName: _ProfileMergeRequested, symObjAddr: 0xA7D0, symBinAddr: 0x10006A100, symSize: 0x0 }
  - { offset: 0x13858, size: 0x8, addend: 0x0, symName: _getCurFilenameLength, symObjAddr: 0x180, symBinAddr: 0x1000099A0, symSize: 0xE0 }
  - { offset: 0x138E2, size: 0x8, addend: 0x0, symName: _getCurFilename, symObjAddr: 0x260, symBinAddr: 0x100009A80, symSize: 0x380 }
  - { offset: 0x13B72, size: 0x8, addend: 0x0, symName: _parseAndSetFilename, symObjAddr: 0x6B0, symBinAddr: 0x100009E00, symSize: 0x590 }
  - { offset: 0x13D90, size: 0x8, addend: 0x0, symName: ___llvm_profile_initialize, symObjAddr: 0xC40, symBinAddr: 0x10000A390, symSize: 0x90 }
  - { offset: 0x13E0C, size: 0x8, addend: 0x0, symName: ___llvm_profile_write_file, symObjAddr: 0xD30, symBinAddr: 0x10000A420, symSize: 0x160 }
  - { offset: 0x13FDC, size: 0x8, addend: 0x0, symName: _writeFile, symObjAddr: 0xE90, symBinAddr: 0x10000A580, symSize: 0x2B0 }
  - { offset: 0x14185, size: 0x8, addend: 0x0, symName: _writeFileWithoutReturn, symObjAddr: 0x1190, symBinAddr: 0x10000A830, symSize: 0x10 }
  - { offset: 0x141BA, size: 0x8, addend: 0x0, symName: _getProfileFileSizeForMerging, symObjAddr: 0x13C0, symBinAddr: 0x10000A840, symSize: 0xC0 }
  - { offset: 0x141FF, size: 0x8, addend: 0x0, symName: _mmapForContinuousMode, symObjAddr: 0x1480, symBinAddr: 0x10000A900, symSize: 0x2D0 }
  - { offset: 0x143BD, size: 0x8, addend: 0x0, symName: _fileWriter, symObjAddr: 0x1750, symBinAddr: 0x10000ABD0, symSize: 0x150 }
  - { offset: 0x1448C, size: 0x8, addend: 0x0, symName: _binaryIdsStringWriter, symObjAddr: 0x18A0, symBinAddr: 0x10000AD20, symSize: 0xA0 }
  - { offset: 0x1452D, size: 0x8, addend: 0x0, symName: _truncateCurrentFile, symObjAddr: 0x1940, symBinAddr: 0x10000ADC0, symSize: 0xB0 }
  - { offset: 0x145D3, size: 0x8, addend: 0x0, symName: _initializeProfileForContinuousMode, symObjAddr: 0x19F0, symBinAddr: 0x10000AE70, symSize: 0x2C0 }
  - { offset: 0x147C2, size: 0x8, addend: 0x0, symName: _createProfileDir, symObjAddr: 0x1CB0, symBinAddr: 0x10000B130, symSize: 0x7F }
  - { offset: 0x14933, size: 0x8, addend: 0x0, symName: _lprofProfileDumped, symObjAddr: 0x0, symBinAddr: 0x10000B1B0, symSize: 0x10 }
  - { offset: 0x14950, size: 0x8, addend: 0x0, symName: _ProfileDumped, symObjAddr: 0x4E0, symBinAddr: 0x10006A104, symSize: 0x0 }
  - { offset: 0x14960, size: 0x8, addend: 0x0, symName: _lprofProfileDumped, symObjAddr: 0x0, symBinAddr: 0x10000B1B0, symSize: 0x10 }
  - { offset: 0x149A8, size: 0x8, addend: 0x0, symName: _lprofGetLoadModuleSignature, symObjAddr: 0x0, symBinAddr: 0x10000B1C0, symSize: 0xE0 }
  - { offset: 0x149D5, size: 0x8, addend: 0x0, symName: _VPMergeHook, symObjAddr: 0x2AA0, symBinAddr: 0x10006C2F0, symSize: 0x0 }
  - { offset: 0x14C39, size: 0x8, addend: 0x0, symName: _lprofGetLoadModuleSignature, symObjAddr: 0x0, symBinAddr: 0x10000B1C0, symSize: 0xE0 }
  - { offset: 0x14CAD, size: 0x8, addend: 0x0, symName: ___llvm_profile_check_compatibility, symObjAddr: 0xE0, symBinAddr: 0x10000B2A0, symSize: 0x190 }
  - { offset: 0x14D8D, size: 0x8, addend: 0x0, symName: ___llvm_profile_merge_from_buffer, symObjAddr: 0x270, symBinAddr: 0x10000B430, symSize: 0x4D8 }
  - { offset: 0x14FED, size: 0x8, addend: 0x0, symName: _lprofMergeValueProfData, symObjAddr: 0x0, symBinAddr: 0x10000B910, symSize: 0xF1 }
  - { offset: 0x14FFE, size: 0x8, addend: 0x0, symName: _lprofMergeValueProfData, symObjAddr: 0x0, symBinAddr: 0x10000B910, symSize: 0xF1 }
  - { offset: 0x152BC, size: 0x8, addend: 0x0, symName: ___llvm_profile_begin_data, symObjAddr: 0x0, symBinAddr: 0x10000BA10, symSize: 0x10 }
  - { offset: 0x152DB, size: 0x8, addend: 0x0, symName: _CurrentVNode, symObjAddr: 0xE8, symBinAddr: 0x1000694F8, symSize: 0x0 }
  - { offset: 0x15357, size: 0x8, addend: 0x0, symName: _EndVNode, symObjAddr: 0xF0, symBinAddr: 0x100069500, symSize: 0x0 }
  - { offset: 0x15360, size: 0x8, addend: 0x0, symName: ___llvm_profile_begin_data, symObjAddr: 0x0, symBinAddr: 0x10000BA10, symSize: 0x10 }
  - { offset: 0x15381, size: 0x8, addend: 0x0, symName: ___llvm_profile_end_data, symObjAddr: 0x10, symBinAddr: 0x10000BA20, symSize: 0x10 }
  - { offset: 0x153A2, size: 0x8, addend: 0x0, symName: ___llvm_profile_begin_names, symObjAddr: 0x20, symBinAddr: 0x10000BA30, symSize: 0x10 }
  - { offset: 0x153C3, size: 0x8, addend: 0x0, symName: ___llvm_profile_end_names, symObjAddr: 0x30, symBinAddr: 0x10000BA40, symSize: 0x10 }
  - { offset: 0x153E4, size: 0x8, addend: 0x0, symName: ___llvm_profile_begin_counters, symObjAddr: 0x40, symBinAddr: 0x10000BA50, symSize: 0x10 }
  - { offset: 0x15405, size: 0x8, addend: 0x0, symName: ___llvm_profile_end_counters, symObjAddr: 0x50, symBinAddr: 0x10000BA60, symSize: 0x10 }
  - { offset: 0x15426, size: 0x8, addend: 0x0, symName: ___llvm_profile_begin_bitmap, symObjAddr: 0x60, symBinAddr: 0x10000BA70, symSize: 0x10 }
  - { offset: 0x15447, size: 0x8, addend: 0x0, symName: ___llvm_profile_end_bitmap, symObjAddr: 0x70, symBinAddr: 0x10000BA80, symSize: 0x10 }
  - { offset: 0x15468, size: 0x8, addend: 0x0, symName: ___llvm_profile_begin_vtables, symObjAddr: 0x80, symBinAddr: 0x10000BA90, symSize: 0x10 }
  - { offset: 0x15489, size: 0x8, addend: 0x0, symName: ___llvm_profile_end_vtables, symObjAddr: 0x90, symBinAddr: 0x10000BAA0, symSize: 0x10 }
  - { offset: 0x154AA, size: 0x8, addend: 0x0, symName: ___llvm_profile_begin_vtabnames, symObjAddr: 0xA0, symBinAddr: 0x10000BAB0, symSize: 0x10 }
  - { offset: 0x154CB, size: 0x8, addend: 0x0, symName: ___llvm_profile_end_vtabnames, symObjAddr: 0xB0, symBinAddr: 0x10000BAC0, symSize: 0x10 }
  - { offset: 0x154EC, size: 0x8, addend: 0x0, symName: ___llvm_profile_begin_vnodes, symObjAddr: 0xC0, symBinAddr: 0x10000BAD0, symSize: 0x10 }
  - { offset: 0x1550D, size: 0x8, addend: 0x0, symName: ___llvm_profile_end_vnodes, symObjAddr: 0xD0, symBinAddr: 0x10000BAE0, symSize: 0x10 }
  - { offset: 0x1552E, size: 0x8, addend: 0x0, symName: ___llvm_write_binary_ids, symObjAddr: 0xE0, symBinAddr: 0x10000BAF0, symSize: 0x3 }
  - { offset: 0x157B2, size: 0x8, addend: 0x0, symName: __GLOBAL__sub_I_InstrProfilingRuntime.cpp, symObjAddr: 0x0, symBinAddr: 0x10000BB00, symSize: 0x12 }
  - { offset: 0x157D5, size: 0x8, addend: 0x0, symName: ___llvm_profile_runtime, symObjAddr: 0x580, symBinAddr: 0x10006C2F8, symSize: 0x0 }
  - { offset: 0x15806, size: 0x8, addend: 0x0, symName: __GLOBAL__sub_I_InstrProfilingRuntime.cpp, symObjAddr: 0x0, symBinAddr: 0x10000BB00, symSize: 0x12 }
  - { offset: 0x15882, size: 0x8, addend: 0x0, symName: ___llvm_profile_recursive_mkdir, symObjAddr: 0x0, symBinAddr: 0x10000BB20, symSize: 0x40 }
  - { offset: 0x158A1, size: 0x8, addend: 0x0, symName: _lprofDirMode, symObjAddr: 0x6F8, symBinAddr: 0x100069508, symSize: 0x0 }
  - { offset: 0x1590C, size: 0x8, addend: 0x0, symName: ___llvm_profile_recursive_mkdir, symObjAddr: 0x0, symBinAddr: 0x10000BB20, symSize: 0x40 }
  - { offset: 0x1598B, size: 0x8, addend: 0x0, symName: _lprofGetHostName, symObjAddr: 0x60, symBinAddr: 0x10000BB60, symSize: 0x70 }
  - { offset: 0x15ABA, size: 0x8, addend: 0x0, symName: _lprofLockFileHandle, symObjAddr: 0x1B0, symBinAddr: 0x10000BBD0, symSize: 0x70 }
  - { offset: 0x15B48, size: 0x8, addend: 0x0, symName: _lprofUnlockFileHandle, symObjAddr: 0x220, symBinAddr: 0x10000BC40, symSize: 0x70 }
  - { offset: 0x15BB0, size: 0x8, addend: 0x0, symName: _lprofOpenFileEx, symObjAddr: 0x290, symBinAddr: 0x10000BCB0, symSize: 0xB0 }
  - { offset: 0x15C42, size: 0x8, addend: 0x0, symName: _lprofGetFileContentBuffer, symObjAddr: 0x340, symBinAddr: 0x10000BD60, symSize: 0x1B0 }
  - { offset: 0x15CD1, size: 0x8, addend: 0x0, symName: _lprofReleaseBuffer, symObjAddr: 0x4F0, symBinAddr: 0x10000BF10, symSize: 0x70 }
  - { offset: 0x15D13, size: 0x8, addend: 0x0, symName: _lprofFindFirstDirSeparator, symObjAddr: 0x660, symBinAddr: 0x10000BF80, symSize: 0x10 }
  - { offset: 0x15D53, size: 0x8, addend: 0x0, symName: _lprofSuspendSigKill, symObjAddr: 0x680, symBinAddr: 0x10000BF90, symSize: 0x10 }
  - { offset: 0x15D76, size: 0x8, addend: 0x0, symName: _lprofRestoreSigKill, symObjAddr: 0x690, symBinAddr: 0x10000BFA0, symSize: 0x10 }
  - { offset: 0x15D95, size: 0x8, addend: 0x0, symName: _lprofAtExit, symObjAddr: 0x6F0, symBinAddr: 0x10000BFB0, symSize: 0x5 }
  - { offset: 0x160A6, size: 0x8, addend: 0x0, symName: _getValueProfRecordHeaderSize, symObjAddr: 0x0, symBinAddr: 0x10000BFC0, symSize: 0x10 }
  - { offset: 0x160C5, size: 0x8, addend: 0x0, symName: _VPMaxNumValsPerSite, symObjAddr: 0x1468, symBinAddr: 0x100069510, symSize: 0x0 }
  - { offset: 0x1615A, size: 0x8, addend: 0x0, symName: _hasNonDefaultValsPerSite, symObjAddr: 0xEE78, symBinAddr: 0x10006A108, symSize: 0x0 }
  - { offset: 0x16181, size: 0x8, addend: 0x0, symName: _OutOfNodesWarnings, symObjAddr: 0xEE80, symBinAddr: 0x10006A110, symSize: 0x0 }
  - { offset: 0x16196, size: 0x8, addend: 0x0, symName: _hasStaticCounters, symObjAddr: 0xEE7C, symBinAddr: 0x10006A10C, symSize: 0x0 }
  - { offset: 0x161B3, size: 0x8, addend: 0x0, symName: _TheVPDataReader, symObjAddr: 0x1470, symBinAddr: 0x100069518, symSize: 0x0 }
  - { offset: 0x16449, size: 0x8, addend: 0x0, symName: _RTRecord, symObjAddr: 0xEE88, symBinAddr: 0x10006A118, symSize: 0x0 }
  - { offset: 0x1662B, size: 0x8, addend: 0x0, symName: _getValueProfRecordHeaderSize, symObjAddr: 0x0, symBinAddr: 0x10000BFC0, symSize: 0x10 }
  - { offset: 0x1667F, size: 0x8, addend: 0x0, symName: _getValueProfRecordValueData, symObjAddr: 0x20, symBinAddr: 0x10000BFD0, symSize: 0x10 }
  - { offset: 0x1672B, size: 0x8, addend: 0x0, symName: _getValueProfRecordNext, symObjAddr: 0x130, symBinAddr: 0x10000BFE0, symSize: 0x100 }
  - { offset: 0x16733, size: 0x8, addend: 0x0, symName: _getFirstValueProfRecord, symObjAddr: 0x230, symBinAddr: 0x10000C0E0, symSize: 0x10 }
  - { offset: 0x167B9, size: 0x8, addend: 0x0, symName: _getFirstValueProfRecord, symObjAddr: 0x230, symBinAddr: 0x10000C0E0, symSize: 0x10 }
  - { offset: 0x16899, size: 0x8, addend: 0x0, symName: _lprofSetupValueProfiler, symObjAddr: 0x8C0, symBinAddr: 0x10000C0F0, symSize: 0x50 }
  - { offset: 0x169AB, size: 0x8, addend: 0x0, symName: ___llvm_profile_instrument_target_value, symObjAddr: 0xB90, symBinAddr: 0x10000C140, symSize: 0x240 }
  - { offset: 0x16AC6, size: 0x8, addend: 0x0, symName: _lprofGetVPDataReader, symObjAddr: 0xE20, symBinAddr: 0x10000C380, symSize: 0x10 }
  - { offset: 0x16AE8, size: 0x8, addend: 0x0, symName: _initializeValueProfRuntimeRecord, symObjAddr: 0xE30, symBinAddr: 0x10000C390, symSize: 0x390 }
  - { offset: 0x16C0C, size: 0x8, addend: 0x0, symName: _getNumValueDataForSiteWrapper, symObjAddr: 0x11C0, symBinAddr: 0x10000C720, symSize: 0x20 }
  - { offset: 0x16C50, size: 0x8, addend: 0x0, symName: _getNumValueDataForSiteWrapper, symObjAddr: 0x11C0, symBinAddr: 0x10000C720, symSize: 0x20 }
  - { offset: 0x16C75, size: 0x8, addend: 0x0, symName: _getValueProfDataSizeWrapper, symObjAddr: 0x11E0, symBinAddr: 0x10000C740, symSize: 0xB0 }
  - { offset: 0x16C9B, size: 0x8, addend: 0x0, symName: _getValueProfDataSizeWrapper, symObjAddr: 0x11E0, symBinAddr: 0x10000C740, symSize: 0xB0 }
  - { offset: 0x16CCC, size: 0x8, addend: 0x0, symName: _getValueProfDataSizeWrapper, symObjAddr: 0x11E0, symBinAddr: 0x10000C740, symSize: 0xB0 }
  - { offset: 0x16D28, size: 0x8, addend: 0x0, symName: _getNextNValueData, symObjAddr: 0x1290, symBinAddr: 0x10000C7F0, symSize: 0xC0 }
  - { offset: 0x16DC1, size: 0x8, addend: 0x0, symName: _getNumValueSitesRT, symObjAddr: 0x1350, symBinAddr: 0x10000C8B0, symSize: 0x10 }
  - { offset: 0x16E01, size: 0x8, addend: 0x0, symName: _getNumValueDataRT, symObjAddr: 0x1360, symBinAddr: 0x10000C8C0, symSize: 0x101 }
  - { offset: 0x16EB9, size: 0x8, addend: 0x0, symName: ___llvm_profile_raw_version, symObjAddr: 0x0, symBinAddr: 0x100069548, symSize: 0x0 }
  - { offset: 0x16EFB, size: 0x8, addend: 0x0, symName: _lprofBufferWriter, symObjAddr: 0x0, symBinAddr: 0x10000C9D0, symSize: 0x60 }
  - { offset: 0x16F1A, size: 0x8, addend: 0x0, symName: _FreeHook, symObjAddr: 0x55B0, symBinAddr: 0x10006C300, symSize: 0x0 }
  - { offset: 0x16F40, size: 0x8, addend: 0x0, symName: _DynamicBufferIOBuffer, symObjAddr: 0x55B8, symBinAddr: 0x10006C308, symSize: 0x0 }
  - { offset: 0x16F6E, size: 0x8, addend: 0x0, symName: _VPBufferSize, symObjAddr: 0x55C0, symBinAddr: 0x10006C310, symSize: 0x0 }
  - { offset: 0x16F95, size: 0x8, addend: 0x0, symName: _TheBufferIO, symObjAddr: 0x75D0, symBinAddr: 0x10006C140, symSize: 0x0 }
  - { offset: 0x170DF, size: 0x8, addend: 0x0, symName: _BufferIOBuffer, symObjAddr: 0x55D0, symBinAddr: 0x10006A140, symSize: 0x0 }
  - { offset: 0x17109, size: 0x8, addend: 0x0, symName: _VPDataArray, symObjAddr: 0x75F0, symBinAddr: 0x10006C160, symSize: 0x0 }
  - { offset: 0x1717F, size: 0x8, addend: 0x0, symName: _lprofBufferWriter, symObjAddr: 0x0, symBinAddr: 0x10000C9D0, symSize: 0x60 }
  - { offset: 0x17298, size: 0x8, addend: 0x0, symName: _lprofBufferIOWrite, symObjAddr: 0x100, symBinAddr: 0x10000CA30, symSize: 0x110 }
  - { offset: 0x173B1, size: 0x8, addend: 0x0, symName: _lprofWriteData, symObjAddr: 0x2A0, symBinAddr: 0x10000CB40, symSize: 0x120 }
  - { offset: 0x177E9, size: 0x8, addend: 0x0, symName: _lprofWriteDataImpl, symObjAddr: 0x3C0, symBinAddr: 0x10000CC60, symSize: 0x6E0 }
  - { offset: 0x17B44, size: 0x8, addend: 0x0, symName: _writeOneValueProfData, symObjAddr: 0xB40, symBinAddr: 0x10000D340, symSize: 0x438 }
  - { offset: 0x17DFE, size: 0x8, addend: 0x0, symName: __RNvCskdKJRKLKjqM_7___rustc10rust_panic, symObjAddr: 0x0, symBinAddr: 0x100052680, symSize: 0x70 }
  - { offset: 0x1817A, size: 0x8, addend: 0x0, symName: '__ZN42_$LT$$RF$T$u20$as$u20$core..fmt..Debug$GT$3fmt17h4fdfc8dc92b8280eE', symObjAddr: 0x27870, symBinAddr: 0x100021830, symSize: 0x20 }
  - { offset: 0x181AB, size: 0x8, addend: 0x0, symName: '__ZN42_$LT$$RF$T$u20$as$u20$core..fmt..Debug$GT$3fmt17h611062ea6589b381E', symObjAddr: 0x27920, symBinAddr: 0x100021850, symSize: 0x30 }
  - { offset: 0x181F1, size: 0x8, addend: 0x0, symName: '__ZN42_$LT$$RF$T$u20$as$u20$core..fmt..Debug$GT$3fmt17h67462dcd352e9f70E', symObjAddr: 0x27A20, symBinAddr: 0x100021880, symSize: 0x30 }
  - { offset: 0x18245, size: 0x8, addend: 0x0, symName: '__ZN42_$LT$$RF$T$u20$as$u20$core..fmt..Debug$GT$3fmt17h7225122a94cfb215E', symObjAddr: 0x27AB0, symBinAddr: 0x1000218B0, symSize: 0x80 }
  - { offset: 0x182E0, size: 0x8, addend: 0x0, symName: '__ZN42_$LT$$RF$T$u20$as$u20$core..fmt..Debug$GT$3fmt17h94e75b9b1a04870cE', symObjAddr: 0x27C70, symBinAddr: 0x100021930, symSize: 0xA0 }
  - { offset: 0x1836F, size: 0x8, addend: 0x0, symName: '__ZN42_$LT$$RF$T$u20$as$u20$core..fmt..Debug$GT$3fmt17ha3f9e4fd80ade547E', symObjAddr: 0x27D30, symBinAddr: 0x1000219D0, symSize: 0x20 }
  - { offset: 0x18383, size: 0x8, addend: 0x0, symName: '__ZN42_$LT$$RF$T$u20$as$u20$core..fmt..Debug$GT$3fmt17hd6b383e11abcf534E', symObjAddr: 0x27FB0, symBinAddr: 0x1000219F0, symSize: 0x20 }
  - { offset: 0x183B4, size: 0x8, addend: 0x0, symName: '__ZN42_$LT$$RF$T$u20$as$u20$core..fmt..Debug$GT$3fmt17hedcae28885211270E', symObjAddr: 0x28060, symBinAddr: 0x100021A10, symSize: 0x80 }
  - { offset: 0x184E6, size: 0x8, addend: 0x0, symName: '__ZN44_$LT$$RF$T$u20$as$u20$core..fmt..Display$GT$3fmt17h2befab159451fc05E', symObjAddr: 0x28130, symBinAddr: 0x100021A90, symSize: 0x20 }
  - { offset: 0x18501, size: 0x8, addend: 0x0, symName: '__ZN44_$LT$$RF$T$u20$as$u20$core..fmt..Display$GT$3fmt17had011a6e3beb8b51E', symObjAddr: 0x28150, symBinAddr: 0x100021AB0, symSize: 0x90 }
  - { offset: 0x185BF, size: 0x8, addend: 0x0, symName: '__ZN4core3fmt3num50_$LT$impl$u20$core..fmt..Debug$u20$for$u20$i32$GT$3fmt17h0317b62489790191E', symObjAddr: 0x284D0, symBinAddr: 0x100021B40, symSize: 0x30 }
  - { offset: 0x185EE, size: 0x8, addend: 0x0, symName: '__ZN4core3fmt3num52_$LT$impl$u20$core..fmt..Debug$u20$for$u20$usize$GT$3fmt17h4806199c82f902ceE', symObjAddr: 0x28590, symBinAddr: 0x100021B70, symSize: 0x30 }
  - { offset: 0x1863F, size: 0x8, addend: 0x0, symName: __ZN4core3fmt5Write10write_char17h2203fddc9d642afeE, symObjAddr: 0x285C0, symBinAddr: 0x100021BA0, symSize: 0xF0 }
  - { offset: 0x18786, size: 0x8, addend: 0x0, symName: __ZN4core3fmt5Write10write_char17h80d2a9496aca00b0E, symObjAddr: 0x28810, symBinAddr: 0x100021C90, symSize: 0xE0 }
  - { offset: 0x1880A, size: 0x8, addend: 0x0, symName: __ZN4core3fmt5Write10write_char17hc46b6f7c3c3194cbE, symObjAddr: 0x288F0, symBinAddr: 0x100021D70, symSize: 0x130 }
  - { offset: 0x189AC, size: 0x8, addend: 0x0, symName: __ZN4core3fmt5Write10write_char17hcc4819a43ad01bd6E, symObjAddr: 0x28A20, symBinAddr: 0x100021EA0, symSize: 0xE0 }
  - { offset: 0x18A30, size: 0x8, addend: 0x0, symName: __ZN4core3fmt5Write10write_char17hdac7d1ed87bd809bE, symObjAddr: 0x28B00, symBinAddr: 0x100021F80, symSize: 0x160 }
  - { offset: 0x18BF0, size: 0x8, addend: 0x0, symName: __ZN4core3fmt5Write9write_fmt17hc429ab0415a42d62E, symObjAddr: 0x28CB0, symBinAddr: 0x1000220E0, symSize: 0x50 }
  - { offset: 0x18C1F, size: 0x8, addend: 0x0, symName: __ZN4core3fmt5Write9write_fmt17hd3928726ab1abb27E, symObjAddr: 0x28D00, symBinAddr: 0x100022130, symSize: 0x50 }
  - { offset: 0x18C4E, size: 0x8, addend: 0x0, symName: __ZN4core3fmt5Write9write_fmt17he343009274951ef4E, symObjAddr: 0x28D50, symBinAddr: 0x100022180, symSize: 0x50 }
  - { offset: 0x18C7D, size: 0x8, addend: 0x0, symName: __ZN4core3fmt5Write9write_fmt17he408d8c37cd4c2c5E, symObjAddr: 0x28DA0, symBinAddr: 0x1000221D0, symSize: 0x50 }
  - { offset: 0x18CAC, size: 0x8, addend: 0x0, symName: __ZN4core3fmt5Write9write_fmt17hec70cb0fc9ef19e4E, symObjAddr: 0x28DF0, symBinAddr: 0x100022220, symSize: 0x50 }
  - { offset: 0x18CDB, size: 0x8, addend: 0x0, symName: __ZN4core3fmt5Write9write_fmt17hfbfca6c33e82dca5E, symObjAddr: 0x28E40, symBinAddr: 0x100022270, symSize: 0x50 }
  - { offset: 0x18D38, size: 0x8, addend: 0x0, symName: '__ZN50_$LT$$BP$mut$u20$T$u20$as$u20$core..fmt..Debug$GT$3fmt17h461ef72b23c2334dE', symObjAddr: 0x3AB30, symBinAddr: 0x10002EF20, symSize: 0x10 }
  - { offset: 0x18D85, size: 0x8, addend: 0x0, symName: '__ZN52_$LT$$RF$mut$u20$T$u20$as$u20$core..fmt..Display$GT$3fmt17he99623082ea1fa3dE', symObjAddr: 0x3B1B0, symBinAddr: 0x10002EF30, symSize: 0x20 }
  - { offset: 0x1B58F, size: 0x8, addend: 0x0, symName: '__ZN4core3ptr107drop_in_place$LT$core..pin..Pin$LT$alloc..boxed..Box$LT$std..sys..pal..unix..sync..mutex..Mutex$GT$$GT$$GT$17he4bee0bcfb03f75fE', symObjAddr: 0x294F0, symBinAddr: 0x100022630, symSize: 0x30 }
  - { offset: 0x1B626, size: 0x8, addend: 0x0, symName: '__ZN4core3ptr109drop_in_place$LT$alloc..sync..Arc$LT$std..sync..poison..mutex..Mutex$LT$alloc..vec..Vec$LT$u8$GT$$GT$$GT$$GT$17he5b3c9d5553080edE', symObjAddr: 0x29520, symBinAddr: 0x100022660, symSize: 0x20 }
  - { offset: 0x1B6A7, size: 0x8, addend: 0x0, symName: '__ZN4core3ptr112drop_in_place$LT$$LP$std..ffi..os_str..OsString$C$core..option..Option$LT$std..ffi..os_str..OsString$GT$$RP$$GT$17h54bc20c29a320005E', symObjAddr: 0x29540, symBinAddr: 0x100022680, symSize: 0x50 }
  - { offset: 0x1B81C, size: 0x8, addend: 0x0, symName: '__ZN4core3ptr119drop_in_place$LT$std..io..default_write_fmt..Adapter$LT$std..io..cursor..Cursor$LT$$RF$mut$u20$$u5b$u8$u5d$$GT$$GT$$GT$17h8ef58680b6ede286E', symObjAddr: 0x295C0, symBinAddr: 0x1000226D0, symSize: 0x20 }
  - { offset: 0x1B83F, size: 0x8, addend: 0x0, symName: '__ZN4core3ptr123drop_in_place$LT$addr2line..Context$LT$gimli..read..endian_slice..EndianSlice$LT$gimli..endianity..LittleEndian$GT$$GT$$GT$17h4096ebf47a84add1E', symObjAddr: 0x295E0, symBinAddr: 0x1000226F0, symSize: 0x60 }
  - { offset: 0x1B8E4, size: 0x8, addend: 0x0, symName: '__ZN4core3ptr128drop_in_place$LT$core..result..Result$LT$$RF$std..thread..Thread$C$$LP$$RF$std..thread..Thread$C$std..thread..Thread$RP$$GT$$GT$17h5b35dce14f68d27eE', symObjAddr: 0x29640, symBinAddr: 0x100022750, symSize: 0x20 }
  - { offset: 0x1BA06, size: 0x8, addend: 0x0, symName: '__ZN4core3ptr129drop_in_place$LT$addr2line..unit..ResUnit$LT$gimli..read..endian_slice..EndianSlice$LT$gimli..endianity..LittleEndian$GT$$GT$$GT$17h5b41b59ec8c6acd1E', symObjAddr: 0x29660, symBinAddr: 0x100022770, symSize: 0x100 }
  - { offset: 0x1BC14, size: 0x8, addend: 0x0, symName: '__ZN4core3ptr129drop_in_place$LT$addr2line..unit..SupUnit$LT$gimli..read..endian_slice..EndianSlice$LT$gimli..endianity..LittleEndian$GT$$GT$$GT$17h7745e598093ea497E', symObjAddr: 0x29760, symBinAddr: 0x100022870, symSize: 0x50 }
  - { offset: 0x1BCBF, size: 0x8, addend: 0x0, symName: '__ZN4core3ptr130drop_in_place$LT$addr2line..unit..ResUnits$LT$gimli..read..endian_slice..EndianSlice$LT$gimli..endianity..LittleEndian$GT$$GT$$GT$17h8ac001c378159224E', symObjAddr: 0x297B0, symBinAddr: 0x1000228C0, symSize: 0xE0 }
  - { offset: 0x1BE68, size: 0x8, addend: 0x0, symName: '__ZN4core3ptr130drop_in_place$LT$addr2line..unit..SupUnits$LT$gimli..read..endian_slice..EndianSlice$LT$gimli..endianity..LittleEndian$GT$$GT$$GT$17hf4d4e85b8cf1677eE', symObjAddr: 0x29890, symBinAddr: 0x1000229A0, symSize: 0xE0 }
  - { offset: 0x1C004, size: 0x8, addend: 0x0, symName: '__ZN4core3ptr130drop_in_place$LT$gimli..read..dwarf..Dwarf$LT$gimli..read..endian_slice..EndianSlice$LT$gimli..endianity..LittleEndian$GT$$GT$$GT$17h00351692336cc8a5E', symObjAddr: 0x29970, symBinAddr: 0x100022A80, symSize: 0x60 }
  - { offset: 0x1C06E, size: 0x8, addend: 0x0, symName: '__ZN4core3ptr131drop_in_place$LT$$u5b$core..option..Option$LT$core..option..Option$LT$std..backtrace_rs..symbolize..gimli..Mapping$GT$$GT$$u5d$$GT$17h5e49fcba991e0fefE', symObjAddr: 0x299D0, symBinAddr: 0x100022AE0, symSize: 0xE0 }
  - { offset: 0x1C118, size: 0x8, addend: 0x0, symName: '__ZN4core3ptr131drop_in_place$LT$alloc..boxed..Box$LT$dyn$u20$core..ops..function..FnOnce$LT$$LP$$RP$$GT$$u2b$Output$u20$$u3d$$u20$$LP$$RP$$GT$$GT$17h34dfa6de81a90f60E', symObjAddr: 0x29AB0, symBinAddr: 0x100022BC0, symSize: 0x70 }
  - { offset: 0x1C203, size: 0x8, addend: 0x0, symName: '__ZN4core3ptr137drop_in_place$LT$gimli..read..dwarf..Unit$LT$gimli..read..endian_slice..EndianSlice$LT$gimli..endianity..LittleEndian$GT$$C$usize$GT$$GT$17h8a3dedf63945c7ffE', symObjAddr: 0x29B20, symBinAddr: 0x100022C30, symSize: 0x50 }
  - { offset: 0x1C2EC, size: 0x8, addend: 0x0, symName: '__ZN4core3ptr138drop_in_place$LT$addr2line..function..LazyFunction$LT$gimli..read..endian_slice..EndianSlice$LT$gimli..endianity..LittleEndian$GT$$GT$$GT$17h0f8e66548b648d63E', symObjAddr: 0x29B70, symBinAddr: 0x100022C80, symSize: 0x60 }
  - { offset: 0x1C303, size: 0x8, addend: 0x0, symName: '__ZN4core3ptr138drop_in_place$LT$addr2line..function..LazyFunction$LT$gimli..read..endian_slice..EndianSlice$LT$gimli..endianity..LittleEndian$GT$$GT$$GT$17h0f8e66548b648d63E', symObjAddr: 0x29B70, symBinAddr: 0x100022C80, symSize: 0x60 }
  - { offset: 0x1C318, size: 0x8, addend: 0x0, symName: '__ZN4core3ptr138drop_in_place$LT$addr2line..function..LazyFunction$LT$gimli..read..endian_slice..EndianSlice$LT$gimli..endianity..LittleEndian$GT$$GT$$GT$17h0f8e66548b648d63E', symObjAddr: 0x29B70, symBinAddr: 0x100022C80, symSize: 0x60 }
  - { offset: 0x1C32D, size: 0x8, addend: 0x0, symName: '__ZN4core3ptr138drop_in_place$LT$addr2line..function..LazyFunction$LT$gimli..read..endian_slice..EndianSlice$LT$gimli..endianity..LittleEndian$GT$$GT$$GT$17h0f8e66548b648d63E', symObjAddr: 0x29B70, symBinAddr: 0x100022C80, symSize: 0x60 }
  - { offset: 0x1C461, size: 0x8, addend: 0x0, symName: '__ZN4core3ptr144drop_in_place$LT$alloc..vec..Vec$LT$core..option..Option$LT$core..option..Option$LT$std..backtrace_rs..symbolize..gimli..Mapping$GT$$GT$$GT$$GT$17hd133ee3f082661a3E', symObjAddr: 0x29BD0, symBinAddr: 0x100022CE0, symSize: 0x80 }
  - { offset: 0x1C5BB, size: 0x8, addend: 0x0, symName: '__ZN4core3ptr152drop_in_place$LT$alloc..vec..Vec$LT$addr2line..unit..ResUnit$LT$gimli..read..endian_slice..EndianSlice$LT$gimli..endianity..LittleEndian$GT$$GT$$GT$$GT$17h687eea1ef8e4dccbE', symObjAddr: 0x29D40, symBinAddr: 0x100022D60, symSize: 0xD0 }
  - { offset: 0x1C72A, size: 0x8, addend: 0x0, symName: '__ZN4core3ptr152drop_in_place$LT$alloc..vec..Vec$LT$addr2line..unit..SupUnit$LT$gimli..read..endian_slice..EndianSlice$LT$gimli..endianity..LittleEndian$GT$$GT$$GT$$GT$17h43b55f1c1ec40770E', symObjAddr: 0x29E10, symBinAddr: 0x100022E30, symSize: 0x100 }
  - { offset: 0x1C92E, size: 0x8, addend: 0x0, symName: '__ZN4core3ptr156drop_in_place$LT$alloc..boxed..Box$LT$$u5b$core..option..Option$LT$core..option..Option$LT$std..backtrace_rs..symbolize..gimli..Mapping$GT$$GT$$u5d$$GT$$GT$17h64285ccbe01a68bbE', symObjAddr: 0x29F10, symBinAddr: 0x100022F30, symSize: 0xF0 }
  - { offset: 0x1CA58, size: 0x8, addend: 0x0, symName: '__ZN4core3ptr159drop_in_place$LT$alloc..sync..ArcInner$LT$gimli..read..dwarf..Dwarf$LT$gimli..read..endian_slice..EndianSlice$LT$gimli..endianity..LittleEndian$GT$$GT$$GT$$GT$17ha7d070261ff0f422E', symObjAddr: 0x2A0A0, symBinAddr: 0x100023020, symSize: 0x60 }
  - { offset: 0x1CB09, size: 0x8, addend: 0x0, symName: '__ZN4core3ptr161drop_in_place$LT$alloc..vec..Vec$LT$addr2line..function..LazyFunction$LT$gimli..read..endian_slice..EndianSlice$LT$gimli..endianity..LittleEndian$GT$$GT$$GT$$GT$17h224d020c77f1c5c5E', symObjAddr: 0x2A100, symBinAddr: 0x100023080, symSize: 0xC0 }
  - { offset: 0x1CD46, size: 0x8, addend: 0x0, symName: '__ZN4core3ptr172drop_in_place$LT$core..result..Result$LT$addr2line..Context$LT$gimli..read..endian_slice..EndianSlice$LT$gimli..endianity..LittleEndian$GT$$GT$$C$gimli..read..Error$GT$$GT$17h9689e9d3357a2b29E', symObjAddr: 0x2A270, symBinAddr: 0x100023140, symSize: 0x70 }
  - { offset: 0x1CDC7, size: 0x8, addend: 0x0, symName: '__ZN4core3ptr173drop_in_place$LT$alloc..boxed..Box$LT$$u5b$addr2line..function..LazyFunction$LT$gimli..read..endian_slice..EndianSlice$LT$gimli..endianity..LittleEndian$GT$$GT$$u5d$$GT$$GT$17h854691247aa87af0E', symObjAddr: 0x2A2E0, symBinAddr: 0x1000231B0, symSize: 0xA0 }
  - { offset: 0x1CDDE, size: 0x8, addend: 0x0, symName: '__ZN4core3ptr173drop_in_place$LT$alloc..boxed..Box$LT$$u5b$addr2line..function..LazyFunction$LT$gimli..read..endian_slice..EndianSlice$LT$gimli..endianity..LittleEndian$GT$$GT$$u5d$$GT$$GT$17h854691247aa87af0E', symObjAddr: 0x2A2E0, symBinAddr: 0x1000231B0, symSize: 0xA0 }
  - { offset: 0x1CFB3, size: 0x8, addend: 0x0, symName: '__ZN4core3ptr181drop_in_place$LT$core..option..Option$LT$gimli..read..line..IncompleteLineProgram$LT$gimli..read..endian_slice..EndianSlice$LT$gimli..endianity..LittleEndian$GT$$C$usize$GT$$GT$$GT$17ha2da1af52ac50966E', symObjAddr: 0x2A3F0, symBinAddr: 0x100023250, symSize: 0xA0 }
  - { offset: 0x1D20C, size: 0x8, addend: 0x0, symName: '__ZN4core3ptr181drop_in_place$LT$core..result..Result$LT$addr2line..frame..FrameIter$LT$gimli..read..endian_slice..EndianSlice$LT$gimli..endianity..LittleEndian$GT$$GT$$C$gimli..read..Error$GT$$GT$17hb41a886cf8fb4359E', symObjAddr: 0x2A490, symBinAddr: 0x1000232F0, symSize: 0x40 }
  - { offset: 0x1D34A, size: 0x8, addend: 0x0, symName: '__ZN4core3ptr184drop_in_place$LT$core..result..Result$LT$addr2line..function..Functions$LT$gimli..read..endian_slice..EndianSlice$LT$gimli..endianity..LittleEndian$GT$$GT$$C$gimli..read..Error$GT$$GT$17h16817f6f8b785913E', symObjAddr: 0x2A4D0, symBinAddr: 0x100023330, symSize: 0xE0 }
  - { offset: 0x1D5DA, size: 0x8, addend: 0x0, symName: '__ZN4core3ptr194drop_in_place$LT$core..result..Result$LT$std..sync..poison..mutex..MutexGuard$LT$$LP$$RP$$GT$$C$std..sync..poison..PoisonError$LT$std..sync..poison..mutex..MutexGuard$LT$$LP$$RP$$GT$$GT$$GT$$GT$17h05108be9b923664fE', symObjAddr: 0x2A620, symBinAddr: 0x100023410, symSize: 0x50 }
  - { offset: 0x1D618, size: 0x8, addend: 0x0, symName: '__ZN4core3ptr231drop_in_place$LT$core..result..Result$LT$core..option..Option$LT$alloc..boxed..Box$LT$addr2line..unit..DwoUnit$LT$gimli..read..endian_slice..EndianSlice$LT$gimli..endianity..LittleEndian$GT$$GT$$GT$$GT$$C$gimli..read..Error$GT$$GT$17h77faee68108766d7E', symObjAddr: 0x2A670, symBinAddr: 0x100023460, symSize: 0xB0 }
  - { offset: 0x1D7E2, size: 0x8, addend: 0x0, symName: '__ZN4core3ptr238drop_in_place$LT$alloc..boxed..convert..$LT$impl$u20$core..convert..From$LT$alloc..string..String$GT$$u20$for$u20$alloc..boxed..Box$LT$dyn$u20$core..error..Error$u2b$core..marker..Sync$u2b$core..marker..Send$GT$$GT$..from..StringError$GT$17h77c71369405e109cE', symObjAddr: 0x2A720, symBinAddr: 0x100023510, symSize: 0x20 }
  - { offset: 0x1D88D, size: 0x8, addend: 0x0, symName: '__ZN4core3ptr275drop_in_place$LT$gimli..read..line..LineRows$LT$gimli..read..endian_slice..EndianSlice$LT$gimli..endianity..LittleEndian$GT$$C$gimli..read..line..IncompleteLineProgram$LT$gimli..read..endian_slice..EndianSlice$LT$gimli..endianity..LittleEndian$GT$$C$usize$GT$$C$usize$GT$$GT$17hadd9cd2441f7544fE', symObjAddr: 0x2A740, symBinAddr: 0x100023530, symSize: 0xA0 }
  - { offset: 0x1DB02, size: 0x8, addend: 0x0, symName: '__ZN4core3ptr280drop_in_place$LT$$LT$alloc..collections..btree..map..IntoIter$LT$K$C$V$C$A$GT$$u20$as$u20$core..ops..drop..Drop$GT$..drop..DropGuard$LT$u64$C$core..result..Result$LT$alloc..sync..Arc$LT$gimli..read..abbrev..Abbreviations$GT$$C$gimli..read..Error$GT$$C$alloc..alloc..Global$GT$$GT$17h12b50f4912f8d053E', symObjAddr: 0x2A7E0, symBinAddr: 0x1000235D0, symSize: 0x80 }
  - { offset: 0x1DC2E, size: 0x8, addend: 0x0, symName: '__ZN4core3ptr284drop_in_place$LT$core..result..Result$LT$$RF$core..result..Result$LT$addr2line..line..Lines$C$gimli..read..Error$GT$$C$$LP$$RF$core..result..Result$LT$addr2line..line..Lines$C$gimli..read..Error$GT$$C$core..result..Result$LT$addr2line..line..Lines$C$gimli..read..Error$GT$$RP$$GT$$GT$17h10f406cda706aac9E', symObjAddr: 0x2A860, symBinAddr: 0x100023650, symSize: 0x20 }
  - { offset: 0x1DC5F, size: 0x8, addend: 0x0, symName: '__ZN4core3ptr37drop_in_place$LT$std..env..VarsOs$GT$17h46b78f62b627aed3E', symObjAddr: 0x2A880, symBinAddr: 0x100023670, symSize: 0xB0 }
  - { offset: 0x1DF24, size: 0x8, addend: 0x0, symName: '__ZN4core3ptr42drop_in_place$LT$alloc..string..String$GT$17h13a2c872d6de9b78E', symObjAddr: 0x2AA20, symBinAddr: 0x100023720, symSize: 0x20 }
  - { offset: 0x1DFB9, size: 0x8, addend: 0x0, symName: '__ZN4core3ptr42drop_in_place$LT$std..io..error..Error$GT$17hf3cc5d9531ccf1c0E', symObjAddr: 0x2AA40, symBinAddr: 0x100023740, symSize: 0xA0 }
  - { offset: 0x1E1D7, size: 0x8, addend: 0x0, symName: '__ZN4core3ptr44drop_in_place$LT$object..read..ObjectMap$GT$17h9dfc9bd6f6ee5a53E', symObjAddr: 0x2AAE0, symBinAddr: 0x1000237E0, symSize: 0x50 }
  - { offset: 0x1E306, size: 0x8, addend: 0x0, symName: '__ZN4core3ptr46drop_in_place$LT$alloc..vec..Vec$LT$u8$GT$$GT$17h50cadf63df0efd66E', symObjAddr: 0x2AB90, symBinAddr: 0x100023830, symSize: 0x20 }
  - { offset: 0x1E385, size: 0x8, addend: 0x0, symName: '__ZN4core3ptr46drop_in_place$LT$std..io..stdio..StdinLock$GT$17h859807256c432efeE', symObjAddr: 0x2ABB0, symBinAddr: 0x100023850, symSize: 0x50 }
  - { offset: 0x1E39C, size: 0x8, addend: 0x0, symName: '__ZN4core3ptr46drop_in_place$LT$std..io..stdio..StdinLock$GT$17h859807256c432efeE', symObjAddr: 0x2ABB0, symBinAddr: 0x100023850, symSize: 0x50 }
  - { offset: 0x1E3B1, size: 0x8, addend: 0x0, symName: '__ZN4core3ptr46drop_in_place$LT$std..io..stdio..StdinLock$GT$17h859807256c432efeE', symObjAddr: 0x2ABB0, symBinAddr: 0x100023850, symSize: 0x50 }
  - { offset: 0x1E495, size: 0x8, addend: 0x0, symName: '__ZN4core3ptr48drop_in_place$LT$alloc..ffi..c_str..NulError$GT$17h05fdddfd5dec9957E', symObjAddr: 0x2AD00, symBinAddr: 0x1000238A0, symSize: 0x20 }
  - { offset: 0x1E538, size: 0x8, addend: 0x0, symName: '__ZN4core3ptr557drop_in_place$LT$core..result..Result$LT$$RF$core..result..Result$LT$addr2line..function..Function$LT$gimli..read..endian_slice..EndianSlice$LT$gimli..endianity..LittleEndian$GT$$GT$$C$gimli..read..Error$GT$$C$$LP$$RF$core..result..Result$LT$addr2line..function..Function$LT$gimli..read..endian_slice..EndianSlice$LT$gimli..endianity..LittleEndian$GT$$GT$$C$gimli..read..Error$GT$$C$core..result..Result$LT$addr2line..function..Function$LT$gimli..read..endian_slice..EndianSlice$LT$gimli..endianity..LittleEndian$GT$$GT$$C$gimli..read..Error$GT$$RP$$GT$$GT$17hc44de9d152e84349E', symObjAddr: 0x2AFE0, symBinAddr: 0x1000238C0, symSize: 0x60 }
  - { offset: 0x1E722, size: 0x8, addend: 0x0, symName: '__ZN4core3ptr55drop_in_place$LT$gimli..read..abbrev..Abbreviations$GT$17h650fa2a70ecf9e05E', symObjAddr: 0x2B040, symBinAddr: 0x100023920, symSize: 0x130 }
  - { offset: 0x1EA6B, size: 0x8, addend: 0x0, symName: '__ZN4core3ptr560drop_in_place$LT$core..result..Result$LT$$RF$core..result..Result$LT$addr2line..function..Functions$LT$gimli..read..endian_slice..EndianSlice$LT$gimli..endianity..LittleEndian$GT$$GT$$C$gimli..read..Error$GT$$C$$LP$$RF$core..result..Result$LT$addr2line..function..Functions$LT$gimli..read..endian_slice..EndianSlice$LT$gimli..endianity..LittleEndian$GT$$GT$$C$gimli..read..Error$GT$$C$core..result..Result$LT$addr2line..function..Functions$LT$gimli..read..endian_slice..EndianSlice$LT$gimli..endianity..LittleEndian$GT$$GT$$C$gimli..read..Error$GT$$RP$$GT$$GT$17h6cf82f479787438aE', symObjAddr: 0x2B270, symBinAddr: 0x100023A50, symSize: 0x20 }
  - { offset: 0x1EAC6, size: 0x8, addend: 0x0, symName: '__ZN4core3ptr60drop_in_place$LT$gimli..read..abbrev..AbbreviationsCache$GT$17h8ea9413fce52b0aeE', symObjAddr: 0x2B290, symBinAddr: 0x100023A70, symSize: 0xE0 }
  - { offset: 0x1EC2D, size: 0x8, addend: 0x0, symName: '__ZN4core3ptr64drop_in_place$LT$std..sys..pal..unix..sync..mutex..AttrGuard$GT$17h07975ffc5879c9b3E', symObjAddr: 0x2B3E0, symBinAddr: 0x100023B50, symSize: 0x40 }
  - { offset: 0x1EC50, size: 0x8, addend: 0x0, symName: '__ZN4core3ptr64drop_in_place$LT$std..sys..process..unix..common..ChildPipes$GT$17h8a41ca136ef85558E', symObjAddr: 0x2B420, symBinAddr: 0x100023B90, symSize: 0x50 }
  - { offset: 0x1ED52, size: 0x8, addend: 0x0, symName: '__ZN4core3ptr64drop_in_place$LT$std..sys..process..unix..common..StdioPipes$GT$17h923111f52d7e035aE', symObjAddr: 0x2B470, symBinAddr: 0x100023BE0, symSize: 0x40 }
  - { offset: 0x1EECA, size: 0x8, addend: 0x0, symName: '__ZN4core3ptr65drop_in_place$LT$alloc..vec..Vec$LT$alloc..string..String$GT$$GT$17h7048242ed88ea37eE', symObjAddr: 0x2B4B0, symBinAddr: 0x100023C20, symSize: 0x90 }
  - { offset: 0x1F030, size: 0x8, addend: 0x0, symName: '__ZN4core3ptr65drop_in_place$LT$std..backtrace_rs..symbolize..gimli..Context$GT$17hc7e1db2a9c32a85bE', symObjAddr: 0x2B540, symBinAddr: 0x100023CB0, symSize: 0x100 }
  - { offset: 0x1F2AE, size: 0x8, addend: 0x0, symName: '__ZN4core3ptr66drop_in_place$LT$std..backtrace_rs..backtrace..libunwind..Bomb$GT$17hd5948bcabaf539edE', symObjAddr: 0x2B640, symBinAddr: 0x100023DB0, symSize: 0x50 }
  - { offset: 0x1F2FA, size: 0x8, addend: 0x0, symName: '__ZN4core3ptr701drop_in_place$LT$core..result..Result$LT$$RF$core..result..Result$LT$core..option..Option$LT$alloc..boxed..Box$LT$addr2line..unit..DwoUnit$LT$gimli..read..endian_slice..EndianSlice$LT$gimli..endianity..LittleEndian$GT$$GT$$GT$$GT$$C$gimli..read..Error$GT$$C$$LP$$RF$core..result..Result$LT$core..option..Option$LT$alloc..boxed..Box$LT$addr2line..unit..DwoUnit$LT$gimli..read..endian_slice..EndianSlice$LT$gimli..endianity..LittleEndian$GT$$GT$$GT$$GT$$C$gimli..read..Error$GT$$C$core..result..Result$LT$core..option..Option$LT$alloc..boxed..Box$LT$addr2line..unit..DwoUnit$LT$gimli..read..endian_slice..EndianSlice$LT$gimli..endianity..LittleEndian$GT$$GT$$GT$$GT$$C$gimli..read..Error$GT$$RP$$GT$$GT$17h4c871d662e9baba8E', symObjAddr: 0x2B690, symBinAddr: 0x100023E00, symSize: 0x20 }
  - { offset: 0x1F39B, size: 0x8, addend: 0x0, symName: '__ZN4core3ptr70drop_in_place$LT$std..backtrace_rs..symbolize..gimli..stash..Stash$GT$17h9192affd8a73d22bE', symObjAddr: 0x2B6B0, symBinAddr: 0x100023E20, symSize: 0xE0 }
  - { offset: 0x1F641, size: 0x8, addend: 0x0, symName: '__ZN4core3ptr71drop_in_place$LT$std..backtrace_rs..symbolize..gimli..macho..Object$GT$17he8bfbbbc576ba26bE', symObjAddr: 0x2B790, symBinAddr: 0x100023F00, symSize: 0xD0 }
  - { offset: 0x1F906, size: 0x8, addend: 0x0, symName: '__ZN4core3ptr71drop_in_place$LT$std..panicking..panic_handler..FormatStringPayload$GT$17he2832ae2b85e7af7E', symObjAddr: 0x2B860, symBinAddr: 0x100023FD0, symSize: 0x30 }
  - { offset: 0x1F9C2, size: 0x8, addend: 0x0, symName: '__ZN4core3ptr72drop_in_place$LT$core..option..Option$LT$object..read..ObjectMap$GT$$GT$17hfcefd03af094224dE', symObjAddr: 0x2B890, symBinAddr: 0x100024000, symSize: 0x60 }
  - { offset: 0x1FB3F, size: 0x8, addend: 0x0, symName: '__ZN4core3ptr73drop_in_place$LT$alloc..vec..Vec$LT$addr2line..line..LineSequence$GT$$GT$17ha6ada6d850d6bfd7E', symObjAddr: 0x2B8F0, symBinAddr: 0x100024060, symSize: 0x90 }
  - { offset: 0x1FC97, size: 0x8, addend: 0x0, symName: '__ZN4core3ptr77drop_in_place$LT$alloc..boxed..Box$LT$$u5b$alloc..string..String$u5d$$GT$$GT$17hb3442e265eb8e1dcE', symObjAddr: 0x2B9D0, symBinAddr: 0x1000240F0, symSize: 0x60 }
  - { offset: 0x1FCAE, size: 0x8, addend: 0x0, symName: '__ZN4core3ptr77drop_in_place$LT$alloc..boxed..Box$LT$$u5b$alloc..string..String$u5d$$GT$$GT$17hb3442e265eb8e1dcE', symObjAddr: 0x2B9D0, symBinAddr: 0x1000240F0, symSize: 0x60 }
  - { offset: 0x1FDAC, size: 0x8, addend: 0x0, symName: '__ZN4core3ptr78drop_in_place$LT$core..result..Result$LT$usize$C$std..io..error..Error$GT$$GT$17h5cf9dfd69ab55d35E', symObjAddr: 0x2BA30, symBinAddr: 0x100024150, symSize: 0x20 }
  - { offset: 0x1FDC0, size: 0x8, addend: 0x0, symName: '__ZN4core3ptr79drop_in_place$LT$std..sync..poison..rwlock..RwLockReadGuard$LT$$LP$$RP$$GT$$GT$17h4fa0e4fa5e15bd74E', symObjAddr: 0x2BA50, symBinAddr: 0x100024170, symSize: 0x50 }
  - { offset: 0x1FE5C, size: 0x8, addend: 0x0, symName: '__ZN4core3ptr81drop_in_place$LT$core..result..Result$LT$$LP$$RP$$C$std..io..error..Error$GT$$GT$17h1c1edd567460b3feE', symObjAddr: 0x2BB50, symBinAddr: 0x1000241C0, symSize: 0x20 }
  - { offset: 0x1FE8C, size: 0x8, addend: 0x0, symName: '__ZN4core3ptr81drop_in_place$LT$std..sys..process..unix..common..cstring_array..CStringArray$GT$17h1ce3a250115cbe70E', symObjAddr: 0x2BB70, symBinAddr: 0x1000241E0, symSize: 0xD0 }
  - { offset: 0x201D4, size: 0x8, addend: 0x0, symName: '__ZN4core3ptr82drop_in_place$LT$alloc..sync..ArcInner$LT$std..sys..fs..unix..InnerReadDir$GT$$GT$17ha8fbff3aaada4fb8E', symObjAddr: 0x2BC40, symBinAddr: 0x1000242B0, symSize: 0x60 }
  - { offset: 0x20377, size: 0x8, addend: 0x0, symName: '__ZN4core3ptr84drop_in_place$LT$$LP$std..ffi..os_str..OsString$C$std..ffi..os_str..OsString$RP$$GT$17hbc09269b3e4ede67E', symObjAddr: 0x2BCA0, symBinAddr: 0x100024310, symSize: 0x50 }
  - { offset: 0x204C4, size: 0x8, addend: 0x0, symName: '__ZN4core3ptr90drop_in_place$LT$std..io..buffered..bufwriter..BufWriter$LT$W$GT$..flush_buf..BufGuard$GT$17he4170abc552595a7E', symObjAddr: 0x2BD40, symBinAddr: 0x100024360, symSize: 0x50 }
  - { offset: 0x2064B, size: 0x8, addend: 0x0, symName: '__ZN4core3ptr92drop_in_place$LT$core..result..Result$LT$addr2line..line..Lines$C$gimli..read..Error$GT$$GT$17h2e8e0626d3a84d8eE', symObjAddr: 0x2BDF0, symBinAddr: 0x1000243B0, symSize: 0xE0 }
  - { offset: 0x20891, size: 0x8, addend: 0x0, symName: '__ZN4core3ptr93drop_in_place$LT$core..option..Option$LT$std..backtrace_rs..symbolize..gimli..Mapping$GT$$GT$17h136f8c1ae5619cc2E', symObjAddr: 0x2BED0, symBinAddr: 0x100024490, symSize: 0x70 }
  - { offset: 0x20920, size: 0x8, addend: 0x0, symName: '__ZN4core3ptr95drop_in_place$LT$std..io..buffered..linewriter..LineWriter$LT$std..io..stdio..StdoutRaw$GT$$GT$17h9eac947b14297a02E', symObjAddr: 0x2BF40, symBinAddr: 0x100024500, symSize: 0x100 }
  - { offset: 0x22EB6, size: 0x8, addend: 0x0, symName: __ZN4core5panic12PanicPayload6as_str17h0a0af93859b241b1E, symObjAddr: 0x302B0, symBinAddr: 0x100024760, symSize: 0x10 }
  - { offset: 0x23747, size: 0x8, addend: 0x0, symName: '__ZN70_$LT$core..num..error..TryFromIntError$u20$as$u20$core..fmt..Debug$GT$3fmt17hf51a2ad22619e644E', symObjAddr: 0x54380, symBinAddr: 0x100040D70, symSize: 0x40 }
  - { offset: 0x256F0, size: 0x8, addend: 0x0, symName: __ZN4core5slice4sort8unstable7ipnsort17h2b4a537af7352546E, symObjAddr: 0x39850, symBinAddr: 0x10002DD00, symSize: 0x1A0 }
  - { offset: 0x25998, size: 0x8, addend: 0x0, symName: __ZN4core5slice4sort8unstable7ipnsort17h52ef4485ec8e6977E, symObjAddr: 0x399F0, symBinAddr: 0x10002DEA0, symSize: 0xE0 }
  - { offset: 0x25B5A, size: 0x8, addend: 0x0, symName: __ZN4core5slice4sort8unstable8heapsort8heapsort17h4b4721c6bb82e1c1E, symObjAddr: 0x39AD0, symBinAddr: 0x10002DF80, symSize: 0x120 }
  - { offset: 0x25DA0, size: 0x8, addend: 0x0, symName: __ZN4core5slice4sort8unstable8heapsort8heapsort17hab9566a01254ecddE, symObjAddr: 0x39BF0, symBinAddr: 0x10002E0A0, symSize: 0x1D0 }
  - { offset: 0x26152, size: 0x8, addend: 0x0, symName: __ZN4core5slice4sort8unstable9quicksort9quicksort17h0b8d9e0f156a468cE, symObjAddr: 0x39DC0, symBinAddr: 0x10002E270, symSize: 0x540 }
  - { offset: 0x269F2, size: 0x8, addend: 0x0, symName: __ZN4core5slice4sort8unstable9quicksort9quicksort17h5a50d5c9a636cab4E, symObjAddr: 0x3A300, symBinAddr: 0x10002E7B0, symSize: 0x761 }
  - { offset: 0x27655, size: 0x8, addend: 0x0, symName: __ZN4core5slice4sort6stable14driftsort_main17h3220260173ca707fE, symObjAddr: 0x31FD0, symBinAddr: 0x100026480, symSize: 0x150 }
  - { offset: 0x2792D, size: 0x8, addend: 0x0, symName: __ZN4core5slice4sort6stable14driftsort_main17h4699f0e78e45ec48E, symObjAddr: 0x32120, symBinAddr: 0x1000265D0, symSize: 0x150 }
  - { offset: 0x27C05, size: 0x8, addend: 0x0, symName: __ZN4core5slice4sort6stable14driftsort_main17h9e6c77f5f42fb271E, symObjAddr: 0x32270, symBinAddr: 0x100026720, symSize: 0x160 }
  - { offset: 0x27F33, size: 0x8, addend: 0x0, symName: __ZN4core5slice4sort6stable14driftsort_main17ha76b3f8bfe5161d7E, symObjAddr: 0x323D0, symBinAddr: 0x100026880, symSize: 0x160 }
  - { offset: 0x28261, size: 0x8, addend: 0x0, symName: __ZN4core5slice4sort6stable14driftsort_main17hdb3cc37e344db5cdE, symObjAddr: 0x32530, symBinAddr: 0x1000269E0, symSize: 0x150 }
  - { offset: 0x28539, size: 0x8, addend: 0x0, symName: __ZN4core5slice4sort6stable14driftsort_main17hf9b576397ab84e46E, symObjAddr: 0x32680, symBinAddr: 0x100026B30, symSize: 0x160 }
  - { offset: 0x289A3, size: 0x8, addend: 0x0, symName: __ZN4core5slice4sort6stable5drift4sort17h0344cd1179273fdfE, symObjAddr: 0x327E0, symBinAddr: 0x100026C90, symSize: 0x6E0 }
  - { offset: 0x2914B, size: 0x8, addend: 0x0, symName: __ZN4core5slice4sort6stable5drift4sort17h5d73a28370e736e7E, symObjAddr: 0x32EC0, symBinAddr: 0x100027370, symSize: 0x690 }
  - { offset: 0x29902, size: 0x8, addend: 0x0, symName: __ZN4core5slice4sort6stable5drift4sort17h7d35ffbcc89f38d4E, symObjAddr: 0x33550, symBinAddr: 0x100027A00, symSize: 0x6D0 }
  - { offset: 0x2A0BF, size: 0x8, addend: 0x0, symName: __ZN4core5slice4sort6stable5drift4sort17h8e4dd7b37e0e34b5E, symObjAddr: 0x33C20, symBinAddr: 0x1000280D0, symSize: 0x6E0 }
  - { offset: 0x2A851, size: 0x8, addend: 0x0, symName: __ZN4core5slice4sort6stable5drift4sort17hd3daeb0e07815f37E, symObjAddr: 0x34300, symBinAddr: 0x1000287B0, symSize: 0x690 }
  - { offset: 0x2B008, size: 0x8, addend: 0x0, symName: __ZN4core5slice4sort6stable5drift4sort17hdee5488c31b7bf79E, symObjAddr: 0x34990, symBinAddr: 0x100028E40, symSize: 0x6B0 }
  - { offset: 0x2BA49, size: 0x8, addend: 0x0, symName: __ZN4core5slice4sort6stable9quicksort9quicksort17h49e735213ea776e8E, symObjAddr: 0x35040, symBinAddr: 0x1000294F0, symSize: 0xC20 }
  - { offset: 0x2C7C2, size: 0x8, addend: 0x0, symName: __ZN4core5slice4sort6stable9quicksort9quicksort17h4e0f96bb5e50204eE, symObjAddr: 0x35C60, symBinAddr: 0x10002A110, symSize: 0xD60 }
  - { offset: 0x2D571, size: 0x8, addend: 0x0, symName: __ZN4core5slice4sort6stable9quicksort9quicksort17h5039615b86acfb17E, symObjAddr: 0x369C0, symBinAddr: 0x10002AE70, symSize: 0xB50 }
  - { offset: 0x2E36B, size: 0x8, addend: 0x0, symName: __ZN4core5slice4sort6stable9quicksort9quicksort17h54d5655b54e85608E, symObjAddr: 0x37510, symBinAddr: 0x10002B9C0, symSize: 0xC40 }
  - { offset: 0x2F0F4, size: 0x8, addend: 0x0, symName: __ZN4core5slice4sort6stable9quicksort9quicksort17h563ccb161c809bb9E, symObjAddr: 0x38150, symBinAddr: 0x10002C600, symSize: 0xB50 }
  - { offset: 0x2F9CC, size: 0x8, addend: 0x0, symName: __ZN4core5slice4sort6stable9quicksort9quicksort17ha4eccc1b33417963E, symObjAddr: 0x38CA0, symBinAddr: 0x10002D150, symSize: 0xBB0 }
  - { offset: 0x30EF7, size: 0x8, addend: 0x0, symName: __ZN4core5slice4sort6shared9smallsort12sort4_stable17h429c53b39c3949acE, symObjAddr: 0x30980, symBinAddr: 0x100024E30, symSize: 0x1B0 }
  - { offset: 0x310CE, size: 0x8, addend: 0x0, symName: __ZN4core5slice4sort6shared9smallsort12sort4_stable17h8e40b2e7e5f636d6E, symObjAddr: 0x30B30, symBinAddr: 0x100024FE0, symSize: 0x1F0 }
  - { offset: 0x314D9, size: 0x8, addend: 0x0, symName: __ZN4core5slice4sort6shared9smallsort12sort8_stable17hd86b794b574b633cE, symObjAddr: 0x30D20, symBinAddr: 0x1000251D0, symSize: 0x3E0 }
  - { offset: 0x31B91, size: 0x8, addend: 0x0, symName: __ZN4core5slice4sort6shared9smallsort18small_sort_general17h0ffd90b03ee23f71E, symObjAddr: 0x31100, symBinAddr: 0x1000255B0, symSize: 0x510 }
  - { offset: 0x320AE, size: 0x8, addend: 0x0, symName: __ZN4core5slice4sort6shared9smallsort18small_sort_general17h7a2a4ab0b4034136E, symObjAddr: 0x31610, symBinAddr: 0x100025AC0, symSize: 0x600 }
  - { offset: 0x328B1, size: 0x8, addend: 0x0, symName: __ZN4core5slice4sort6shared9smallsort25insertion_sort_shift_left17h0b99a1dace0461e0E, symObjAddr: 0x31C10, symBinAddr: 0x1000260C0, symSize: 0x120 }
  - { offset: 0x32A76, size: 0x8, addend: 0x0, symName: __ZN4core5slice4sort6shared9smallsort25insertion_sort_shift_left17h1aa889efeb4092c1E, symObjAddr: 0x31D30, symBinAddr: 0x1000261E0, symSize: 0xF0 }
  - { offset: 0x32BA4, size: 0x8, addend: 0x0, symName: __ZN4core5slice4sort6shared9smallsort25insertion_sort_shift_left17h39fda689822c34e3E, symObjAddr: 0x31E20, symBinAddr: 0x1000262D0, symSize: 0xF0 }
  - { offset: 0x32CD3, size: 0x8, addend: 0x0, symName: __ZN4core5slice4sort6shared9smallsort25insertion_sort_shift_left17h519a67896e46d7b4E, symObjAddr: 0x31F10, symBinAddr: 0x1000263C0, symSize: 0xC0 }
  - { offset: 0x32FF3, size: 0x8, addend: 0x0, symName: __ZN4core5slice4sort6shared5pivot11median3_rec17h0bad552e41eb9dc6E, symObjAddr: 0x302C0, symBinAddr: 0x100024770, symSize: 0xC0 }
  - { offset: 0x330FA, size: 0x8, addend: 0x0, symName: __ZN4core5slice4sort6shared5pivot11median3_rec17h69042159816e04f4E, symObjAddr: 0x30380, symBinAddr: 0x100024830, symSize: 0xC0 }
  - { offset: 0x33203, size: 0x8, addend: 0x0, symName: __ZN4core5slice4sort6shared5pivot11median3_rec17h6b39c5ff16384b97E, symObjAddr: 0x30440, symBinAddr: 0x1000248F0, symSize: 0xB0 }
  - { offset: 0x33336, size: 0x8, addend: 0x0, symName: __ZN4core5slice4sort6shared5pivot11median3_rec17h78bc361aba28d375E, symObjAddr: 0x304F0, symBinAddr: 0x1000249A0, symSize: 0x140 }
  - { offset: 0x3356B, size: 0x8, addend: 0x0, symName: __ZN4core5slice4sort6shared5pivot11median3_rec17h864e4c2ed0405f91E, symObjAddr: 0x30630, symBinAddr: 0x100024AE0, symSize: 0xC0 }
  - { offset: 0x33672, size: 0x8, addend: 0x0, symName: __ZN4core5slice4sort6shared5pivot11median3_rec17h9ee77f2cab2d4c5dE, symObjAddr: 0x306F0, symBinAddr: 0x100024BA0, symSize: 0xC0 }
  - { offset: 0x33779, size: 0x8, addend: 0x0, symName: __ZN4core5slice4sort6shared5pivot11median3_rec17ha14fc07cd9e49161E, symObjAddr: 0x307B0, symBinAddr: 0x100024C60, symSize: 0xC0 }
  - { offset: 0x33880, size: 0x8, addend: 0x0, symName: __ZN4core5slice4sort6shared5pivot11median3_rec17hfa048ff775602914E, symObjAddr: 0x30870, symBinAddr: 0x100024D20, symSize: 0x110 }
  - { offset: 0x33A8C, size: 0x8, addend: 0x0, symName: '__ZN55_$LT$$RF$str$u20$as$u20$core..str..pattern..Pattern$GT$15is_contained_in17hc8794a96b582b38aE', symObjAddr: 0x3B790, symBinAddr: 0x10002EF50, symSize: 0x860 }
  - { offset: 0x34227, size: 0x8, addend: 0x0, symName: '__ZN4core3str7pattern13simd_contains28_$u7b$$u7b$closure$u7d$$u7d$17ha6d539c15f4ab7c0E', symObjAddr: 0x2C040, symBinAddr: 0x100053370, symSize: 0x100 }
  - { offset: 0x35D75, size: 0x8, addend: 0x0, symName: '__ZN4core3ops8function6FnOnce40call_once$u7b$$u7b$vtable.shim$u7d$$u7d$17h0d3238feb6ae2c7dE', symObjAddr: 0x29150, symBinAddr: 0x100022420, symSize: 0x10 }
  - { offset: 0x35DB1, size: 0x8, addend: 0x0, symName: '__ZN4core3ops8function6FnOnce40call_once$u7b$$u7b$vtable.shim$u7d$$u7d$17h3292d6654d591370E', symObjAddr: 0x29160, symBinAddr: 0x100022430, symSize: 0x90 }
  - { offset: 0x35E95, size: 0x8, addend: 0x0, symName: '__ZN4core3ops8function6FnOnce40call_once$u7b$$u7b$vtable.shim$u7d$$u7d$17h59b44727da8ea4adE', symObjAddr: 0x29280, symBinAddr: 0x1000224C0, symSize: 0x90 }
  - { offset: 0x35FFF, size: 0x8, addend: 0x0, symName: '__ZN4core3ops8function6FnOnce40call_once$u7b$$u7b$vtable.shim$u7d$$u7d$17h8ff5d8d366cb3dcdE', symObjAddr: 0x29350, symBinAddr: 0x100022550, symSize: 0x90 }
  - { offset: 0x36145, size: 0x8, addend: 0x0, symName: '__ZN4core3ops8function6FnOnce40call_once$u7b$$u7b$vtable.shim$u7d$$u7d$17h994b7e277a3827ddE', symObjAddr: 0x293E0, symBinAddr: 0x1000225E0, symSize: 0x10 }
  - { offset: 0x36196, size: 0x8, addend: 0x0, symName: '__ZN4core3ops8function6FnOnce40call_once$u7b$$u7b$vtable.shim$u7d$$u7d$17h9e6dbb12aa376ac1E', symObjAddr: 0x29400, symBinAddr: 0x1000225F0, symSize: 0x10 }
  - { offset: 0x361D2, size: 0x8, addend: 0x0, symName: '__ZN4core3ops8function6FnOnce40call_once$u7b$$u7b$vtable.shim$u7d$$u7d$17hdb0d13364863d228E', symObjAddr: 0x29420, symBinAddr: 0x100022600, symSize: 0x20 }
  - { offset: 0x3620E, size: 0x8, addend: 0x0, symName: '__ZN4core3ops8function6FnOnce40call_once$u7b$$u7b$vtable.shim$u7d$$u7d$17hf1524fee5c53f54cE', symObjAddr: 0x294E0, symBinAddr: 0x100022620, symSize: 0x10 }
  - { offset: 0x3637D, size: 0x8, addend: 0x0, symName: __ZN4core3ops8function2Fn4call17h338481cfccfcf83dE, symObjAddr: 0x28EA0, symBinAddr: 0x1000222C0, symSize: 0xA0 }
  - { offset: 0x3648D, size: 0x8, addend: 0x0, symName: __ZN4core3ops8function2Fn4call17h79e358cbe1b93b7aE, symObjAddr: 0x28FB0, symBinAddr: 0x100022360, symSize: 0xC0 }
  - { offset: 0x372BE, size: 0x8, addend: 0x0, symName: '__ZN36_$LT$T$u20$as$u20$core..any..Any$GT$7type_id17hf38d30a50d909875E', symObjAddr: 0x1250, symBinAddr: 0x10000DCB0, symSize: 0x30 }
  - { offset: 0x372ED, size: 0x8, addend: 0x0, symName: '__ZN36_$LT$T$u20$as$u20$core..any..Any$GT$7type_id17hfe9fbb449010764eE', symObjAddr: 0x1280, symBinAddr: 0x10000DCE0, symSize: 0x30 }
  - { offset: 0x382CE, size: 0x8, addend: 0x0, symName: '__ZN4core5array69_$LT$impl$u20$core..fmt..Debug$u20$for$u20$$u5b$T$u3b$$u20$N$u5d$$GT$3fmt17h374d7be30a463273E', symObjAddr: 0x300E0, symBinAddr: 0x100024600, symSize: 0xF0 }
  - { offset: 0x38558, size: 0x8, addend: 0x0, symName: '__ZN4core4cell4once17OnceCell$LT$T$GT$8try_init17h164ad122d3fdde11E', symObjAddr: 0x2C140, symBinAddr: 0x100053470, symSize: 0x70 }
  - { offset: 0x38576, size: 0x8, addend: 0x0, symName: '__ZN4core4cell4once17OnceCell$LT$T$GT$8try_init17h164ad122d3fdde11E', symObjAddr: 0x2C140, symBinAddr: 0x100053470, symSize: 0x70 }
  - { offset: 0x3858B, size: 0x8, addend: 0x0, symName: '__ZN4core4cell4once17OnceCell$LT$T$GT$8try_init17h164ad122d3fdde11E', symObjAddr: 0x2C140, symBinAddr: 0x100053470, symSize: 0x70 }
  - { offset: 0x3859F, size: 0x8, addend: 0x0, symName: '__ZN4core4cell4once17OnceCell$LT$T$GT$8try_init17h164ad122d3fdde11E', symObjAddr: 0x2C140, symBinAddr: 0x100053470, symSize: 0x70 }
  - { offset: 0x385F6, size: 0x8, addend: 0x0, symName: '__ZN4core4cell4once17OnceCell$LT$T$GT$8try_init17h5eaa6e42f622c98bE', symObjAddr: 0x2C1B0, symBinAddr: 0x1000534E0, symSize: 0x80 }
  - { offset: 0x386A9, size: 0x8, addend: 0x0, symName: '__ZN4core4cell4once17OnceCell$LT$T$GT$8try_init17h8d9b52977b5ff1b0E', symObjAddr: 0x2C230, symBinAddr: 0x100053560, symSize: 0x8B0 }
  - { offset: 0x39266, size: 0x8, addend: 0x0, symName: '__ZN4core4cell4once17OnceCell$LT$T$GT$8try_init17h963735826f59da1dE', symObjAddr: 0x2CAE0, symBinAddr: 0x100053E10, symSize: 0x110 }
  - { offset: 0x394C6, size: 0x8, addend: 0x0, symName: '__ZN4core4cell4once17OnceCell$LT$T$GT$8try_init17hbb32d690264a29aeE', symObjAddr: 0x2CBF0, symBinAddr: 0x100053F20, symSize: 0x25C0 }
  - { offset: 0x3C672, size: 0x8, addend: 0x0, symName: '__ZN4core4cell4once17OnceCell$LT$T$GT$8try_init17he85fbe2a3a1ae7fbE', symObjAddr: 0x2F1B0, symBinAddr: 0x1000564E0, symSize: 0xF30 }
  - { offset: 0x3E246, size: 0x8, addend: 0x0, symName: __ZN4core5error5Error11description17ha6a6a08fd0b06ebcE, symObjAddr: 0x301F0, symBinAddr: 0x1000246F0, symSize: 0x20 }
  - { offset: 0x3E260, size: 0x8, addend: 0x0, symName: __ZN4core5error5Error5cause17h5b5fd61b0af24bd8E, symObjAddr: 0x30210, symBinAddr: 0x100024710, symSize: 0x10 }
  - { offset: 0x3E27A, size: 0x8, addend: 0x0, symName: __ZN4core5error5Error7provide17hcf50e4f5391fe1b4E, symObjAddr: 0x30240, symBinAddr: 0x100024720, symSize: 0x10 }
  - { offset: 0x3E294, size: 0x8, addend: 0x0, symName: __ZN4core5error5Error7type_id17h1548aa106e60bc02E, symObjAddr: 0x30250, symBinAddr: 0x100024730, symSize: 0x30 }
  - { offset: 0x3E2CA, size: 0x8, addend: 0x0, symName: __ZN4core9panicking13assert_failed17h65a30f1e9a91e300E, symObjAddr: 0x3AA61, symBinAddr: 0x100057411, symSize: 0x33 }
  - { offset: 0x3E2E6, size: 0x8, addend: 0x0, symName: __ZN4core9panicking13assert_failed17hd751ab4adab24333E, symObjAddr: 0x3AAF2, symBinAddr: 0x100057452, symSize: 0x3E }
  - { offset: 0x3E3CB, size: 0x8, addend: 0x0, symName: __RNvCskdKJRKLKjqM_7___rustc10rust_panic, symObjAddr: 0x0, symBinAddr: 0x100052680, symSize: 0x70 }
  - { offset: 0x3E3FC, size: 0x8, addend: 0x0, symName: __RNvCskdKJRKLKjqM_7___rustc17___rust_drop_panic, symObjAddr: 0x1D0, symBinAddr: 0x10000D8D0, symSize: 0xD0 }
  - { offset: 0x3E647, size: 0x8, addend: 0x0, symName: __RNvCskdKJRKLKjqM_7___rustc17rust_begin_unwind, symObjAddr: 0x2A0, symBinAddr: 0x10000D9A0, symSize: 0x30 }
  - { offset: 0x3E68D, size: 0x8, addend: 0x0, symName: __RNvCskdKJRKLKjqM_7___rustc24___rust_foreign_exception, symObjAddr: 0x360, symBinAddr: 0x10000DA60, symSize: 0xD0 }
  - { offset: 0x3E956, size: 0x8, addend: 0x0, symName: __ZN3std9panicking11panic_count17is_zero_slow_path17hc9cf2ba853cb1a44E, symObjAddr: 0x26310, symBinAddr: 0x100053350, symSize: 0x20 }
  - { offset: 0x3EA05, size: 0x8, addend: 0x0, symName: __ZN3std9panicking11panic_count8increase17hf57f6317579ad19bE, symObjAddr: 0x26370, symBinAddr: 0x100020B60, symSize: 0x40 }
  - { offset: 0x3EA1C, size: 0x8, addend: 0x0, symName: __ZN3std9panicking11panic_count8increase17hf57f6317579ad19bE, symObjAddr: 0x26370, symBinAddr: 0x100020B60, symSize: 0x40 }
  - { offset: 0x3EA31, size: 0x8, addend: 0x0, symName: __ZN3std9panicking11panic_count8increase17hf57f6317579ad19bE, symObjAddr: 0x26370, symBinAddr: 0x100020B60, symSize: 0x40 }
  - { offset: 0x3EBE7, size: 0x8, addend: 0x0, symName: __ZN3std9panicking12default_hook17hfd692237a6812b4aE, symObjAddr: 0x263EB, symBinAddr: 0x100020BAB, symSize: 0x12B }
  - { offset: 0x3ED7E, size: 0x8, addend: 0x0, symName: '__ZN3std9panicking12default_hook28_$u7b$$u7b$closure$u7d$$u7d$17h4c39689ecd8341bfE', symObjAddr: 0x26516, symBinAddr: 0x100020CD6, symSize: 0x18A }
  - { offset: 0x3EF45, size: 0x8, addend: 0x0, symName: '__ZN3std9panicking12default_hook28_$u7b$$u7b$closure$u7d$$u7d$28_$u7b$$u7b$closure$u7d$$u7d$17h141942b3ab6b1748E', symObjAddr: 0x266A0, symBinAddr: 0x100020E60, symSize: 0x380 }
  - { offset: 0x3F675, size: 0x8, addend: 0x0, symName: __ZN3std9panicking13panic_handler19FormatStringPayload4fill17hd583736f0adc2b9eE, symObjAddr: 0x26A20, symBinAddr: 0x1000211E0, symSize: 0xC0 }
  - { offset: 0x3F792, size: 0x8, addend: 0x0, symName: '__ZN3std9panicking13panic_handler28_$u7b$$u7b$closure$u7d$$u7d$17h0449b52d62cc4acdE', symObjAddr: 0x26AE0, symBinAddr: 0x1000212A0, symSize: 0xD0 }
  - { offset: 0x3F8EE, size: 0x8, addend: 0x0, symName: '__ZN86_$LT$std..panicking..panic_handler..StaticStrPayload$u20$as$u20$core..fmt..Display$GT$3fmt17h611d737e25d39e04E', symObjAddr: 0x58C20, symBinAddr: 0x1000415F0, symSize: 0x20 }
  - { offset: 0x3F90F, size: 0x8, addend: 0x0, symName: '__ZN89_$LT$std..panicking..panic_handler..FormatStringPayload$u20$as$u20$core..fmt..Display$GT$3fmt17h2c418704e9a80b67E', symObjAddr: 0x59030, symBinAddr: 0x100041770, symSize: 0x70 }
  - { offset: 0x3FA03, size: 0x8, addend: 0x0, symName: '__ZN93_$LT$std..panicking..panic_handler..StaticStrPayload$u20$as$u20$core..panic..PanicPayload$GT$3get17h54b2dcb3b150a54cE', symObjAddr: 0x59900, symBinAddr: 0x100041900, symSize: 0x10 }
  - { offset: 0x3FA1E, size: 0x8, addend: 0x0, symName: '__ZN93_$LT$std..panicking..panic_handler..StaticStrPayload$u20$as$u20$core..panic..PanicPayload$GT$6as_str17h5a1a7c38fda21c29E', symObjAddr: 0x59910, symBinAddr: 0x100041910, symSize: 0x10 }
  - { offset: 0x3FA39, size: 0x8, addend: 0x0, symName: '__ZN93_$LT$std..panicking..panic_handler..StaticStrPayload$u20$as$u20$core..panic..PanicPayload$GT$8take_box17hdf5e7dcb860e8869E', symObjAddr: 0x59920, symBinAddr: 0x100041920, symSize: 0x50 }
  - { offset: 0x3FAB6, size: 0x8, addend: 0x0, symName: '__ZN96_$LT$std..panicking..panic_handler..FormatStringPayload$u20$as$u20$core..panic..PanicPayload$GT$3get17he619996a915dba5aE', symObjAddr: 0x5A150, symBinAddr: 0x100041D90, symSize: 0x20 }
  - { offset: 0x3FAD1, size: 0x8, addend: 0x0, symName: '__ZN96_$LT$std..panicking..panic_handler..FormatStringPayload$u20$as$u20$core..panic..PanicPayload$GT$8take_box17h1d68480d8bee4f17E', symObjAddr: 0x5A170, symBinAddr: 0x100041DB0, symSize: 0xA0 }
  - { offset: 0x3FC23, size: 0x8, addend: 0x0, symName: __ZN3std9panicking14payload_as_str17h7b83b1c48b989ea0E, symObjAddr: 0x26C50, symBinAddr: 0x100021370, symSize: 0x7D }
  - { offset: 0x3FD68, size: 0x8, addend: 0x0, symName: __ZN3std9panicking15panic_with_hook17he1033abc98626357E, symObjAddr: 0x26CCD, symBinAddr: 0x1000213ED, symSize: 0x43D }
  - { offset: 0x40679, size: 0x8, addend: 0x0, symName: '__ZN102_$LT$std..sys..process..unix..common..cstring_array..CStringArray$u20$as$u20$core..ops..drop..Drop$GT$4drop17he5543c9769e7fd90E', symObjAddr: 0x450, symBinAddr: 0x10000DB30, symSize: 0x80 }
  - { offset: 0x40868, size: 0x8, addend: 0x0, symName: '__ZN3std3sys7process4unix4unix58_$LT$impl$u20$std..sys..process..unix..common..Command$GT$5spawn17h46e68499be7c758aE', symObjAddr: 0x1C540, symBinAddr: 0x10001C510, symSize: 0xB40 }
  - { offset: 0x419A0, size: 0x8, addend: 0x0, symName: '__ZN3std3sys7process4unix4unix58_$LT$impl$u20$std..sys..process..unix..common..Command$GT$7do_exec17hc77e9106886026bdE', symObjAddr: 0x1D080, symBinAddr: 0x10001D050, symSize: 0x300 }
  - { offset: 0x422B2, size: 0x8, addend: 0x0, symName: __ZN3std3sys7process4unix6common7Command11capture_env17hd300f48339f72723E, symObjAddr: 0x1D560, symBinAddr: 0x10001D530, symSize: 0x1340 }
  - { offset: 0x446EB, size: 0x8, addend: 0x0, symName: __ZN3std3sys7process4unix6common7Command3arg17h2290bede5cd0c511E, symObjAddr: 0x1E8A0, symBinAddr: 0x10001E870, symSize: 0xE0 }
  - { offset: 0x44A03, size: 0x8, addend: 0x0, symName: __ZN3std3sys7process4unix6common7Command3new17h8c9a3e952b3e1597E, symObjAddr: 0x1EA50, symBinAddr: 0x10001E950, symSize: 0x2C0 }
  - { offset: 0x44F82, size: 0x8, addend: 0x0, symName: __ZN3std3sys7process4unix6common7Command6stderr17h70fa018e0e3cfec9E, symObjAddr: 0x1EE50, symBinAddr: 0x10001EC10, symSize: 0x40 }
  - { offset: 0x4500B, size: 0x8, addend: 0x0, symName: __ZN3std3sys7process4unix6common7Command8setup_io17h44d01f140f181a7bE, symObjAddr: 0x1EF40, symBinAddr: 0x10001EC50, symSize: 0x2C0 }
  - { offset: 0x45453, size: 0x8, addend: 0x0, symName: __ZN3std3sys7process4unix6common5Stdio14to_child_stdio17h71e11b2b2a755fcfE, symObjAddr: 0x1D410, symBinAddr: 0x10001D3E0, symSize: 0x150 }
  - { offset: 0x45621, size: 0x8, addend: 0x0, symName: __ZN3std3sys7process4unix4unix7Process4wait17h0b44ee4aeb74829cE, symObjAddr: 0x1D380, symBinAddr: 0x10001D350, symSize: 0x90 }
  - { offset: 0x4572A, size: 0x8, addend: 0x0, symName: __ZN3std3sys7process3env10CommandEnv6remove17h87684f93ffb54f01E, symObjAddr: 0x1BF40, symBinAddr: 0x10001BF10, symSize: 0x600 }
  - { offset: 0x46347, size: 0x8, addend: 0x0, symName: __ZN3std3sys3pal6common14small_c_string24run_with_cstr_allocating17h5cc89072fa4ee439E, symObjAddr: 0x19EE0, symBinAddr: 0x1000529A0, symSize: 0x90 }
  - { offset: 0x464B6, size: 0x8, addend: 0x0, symName: __ZN3std3sys3pal6common14small_c_string24run_with_cstr_allocating17h65d9406162e2b0deE, symObjAddr: 0x19F70, symBinAddr: 0x100052A30, symSize: 0xB0 }
  - { offset: 0x46692, size: 0x8, addend: 0x0, symName: __ZN3std3sys3pal6common14small_c_string24run_with_cstr_allocating17hc579900339e23d19E, symObjAddr: 0x1A190, symBinAddr: 0x100052AE0, symSize: 0xB0 }
  - { offset: 0x4686E, size: 0x8, addend: 0x0, symName: __ZN3std3sys3pal6common14small_c_string24run_with_cstr_allocating17he476d4c4f028b54aE, symObjAddr: 0x1A240, symBinAddr: 0x100052B90, symSize: 0xB0 }
  - { offset: 0x46A4A, size: 0x8, addend: 0x0, symName: __ZN3std3sys3pal6common14small_c_string24run_with_cstr_allocating17he4af3d6cbd61cc52E, symObjAddr: 0x1A2F0, symBinAddr: 0x100052C40, symSize: 0xB0 }
  - { offset: 0x46C6B, size: 0x8, addend: 0x0, symName: __ZN3std3sys3pal4unix14stack_overflow11thread_info16set_current_info17h9c07c7c3f5a792f2E, symObjAddr: 0x17860, symBinAddr: 0x100019D10, symSize: 0xEA0 }
  - { offset: 0x47F5D, size: 0x8, addend: 0x0, symName: __ZN3std3sys3pal4unix14stack_overflow3imp12drop_handler17h10e97a4f0d9b05d8E, symObjAddr: 0x18700, symBinAddr: 0x10001ABB0, symSize: 0x520 }
  - { offset: 0x487DE, size: 0x8, addend: 0x0, symName: __ZN3std3sys3pal4unix14stack_overflow3imp12make_handler17h7ea0af42963bc428E, symObjAddr: 0x18C20, symBinAddr: 0x10001B0D0, symSize: 0x290 }
  - { offset: 0x48BB1, size: 0x8, addend: 0x0, symName: __ZN3std3sys3pal4unix14stack_overflow3imp14signal_handler17ha77e123931615aa3E, symObjAddr: 0x18EB0, symBinAddr: 0x10001B360, symSize: 0x380 }
  - { offset: 0x49241, size: 0x8, addend: 0x0, symName: __ZN3std3sys3pal4unix2os4exit17hf38d9ce7660fe6b3E, symObjAddr: 0x19500, symBinAddr: 0x10001B930, symSize: 0x10 }
  - { offset: 0x492CA, size: 0x8, addend: 0x0, symName: __ZN3std3sys3pal4unix4sync5mutex5Mutex4init17hc0cd42f50e15ec42E, symObjAddr: 0x199B0, symBinAddr: 0x10001BAA0, symSize: 0x160 }
  - { offset: 0x49386, size: 0x8, addend: 0x0, symName: __ZN3std3sys3pal4unix4sync5mutex5Mutex4lock4fail17ha33bd018f471c78aE, symObjAddr: 0x19B30, symBinAddr: 0x1000528A0, symSize: 0x100 }
  - { offset: 0x496BC, size: 0x8, addend: 0x0, symName: __ZN3std3sys3pal4unix14abort_internal17h2d7ebcba1920d509E, symObjAddr: 0x17850, symBinAddr: 0x100052890, symSize: 0x10 }
  - { offset: 0x496D7, size: 0x8, addend: 0x0, symName: __ZN3std3sys3pal4unix17decode_error_kind17h447b85d7b88dc1dcE, symObjAddr: 0x19230, symBinAddr: 0x10001B6E0, symSize: 0x250 }
  - { offset: 0x496FB, size: 0x8, addend: 0x0, symName: __ZN3std3sys3pal4unix4pipe8AnonPipe5write17h03f32ade1d6c5c2bE, symObjAddr: 0x19850, symBinAddr: 0x10001B940, symSize: 0x50 }
  - { offset: 0x497DE, size: 0x8, addend: 0x0, symName: __ZN3std3sys3pal4unix4pipe9anon_pipe17h32c3626b874411c6E, symObjAddr: 0x198A0, symBinAddr: 0x10001B990, symSize: 0x110 }
  - { offset: 0x49B93, size: 0x8, addend: 0x0, symName: __ZN3std3sys12thread_local6native5eager7destroy17h52ab99797ee9e6c0E, symObjAddr: 0x122C0, symBinAddr: 0x1000190F0, symSize: 0x20 }
  - { offset: 0x49D15, size: 0x8, addend: 0x0, symName: __ZN3std3sys12thread_local5guard5apple6enable9run_dtors17h38edc9b0697859adE, symObjAddr: 0x121D0, symBinAddr: 0x100019000, symSize: 0xF0 }
  - { offset: 0x4A1B3, size: 0x8, addend: 0x0, symName: __ZN3std3sys12thread_local11destructors4list8register17h1d9ec60dd9886de7E, symObjAddr: 0x120E0, symBinAddr: 0x100018F10, symSize: 0xF0 }
  - { offset: 0x4A48F, size: 0x8, addend: 0x0, symName: __ZN3std3sys3env4unix13env_read_lock17h6b780f3777072ce3E, symObjAddr: 0x165B0, symBinAddr: 0x100019970, symSize: 0x280 }
  - { offset: 0x4AB56, size: 0x8, addend: 0x0, symName: '__ZN3std3sys3env4unix6getenv28_$u7b$$u7b$closure$u7d$$u7d$17hbced0c0771611cafE', symObjAddr: 0x16830, symBinAddr: 0x100019BF0, symSize: 0x120 }
  - { offset: 0x4AE31, size: 0x8, addend: 0x0, symName: __ZN3std3sys2fs4unix4File6open_c17he05b2f9a6cd0c0a5E, symObjAddr: 0x14FB0, symBinAddr: 0x1000195F0, symSize: 0x180 }
  - { offset: 0x4AF72, size: 0x8, addend: 0x0, symName: '__ZN86_$LT$std..sys..fs..unix..ReadDir$u20$as$u20$core..iter..traits..iterator..Iterator$GT$4next17h6b3c5487c6bbb501E', symObjAddr: 0x58C70, symBinAddr: 0x100041610, symSize: 0x160 }
  - { offset: 0x4B1D3, size: 0x8, addend: 0x0, symName: '__ZN3std3sys2fs4unix10DirBuilder5mkdir28_$u7b$$u7b$closure$u7d$$u7d$17h922018e44465dca1E', symObjAddr: 0x14A90, symBinAddr: 0x100019240, symSize: 0x30 }
  - { offset: 0x4B2DE, size: 0x8, addend: 0x0, symName: __ZN3std3sys2fs4unix15remove_dir_impl24remove_dir_all_recursive17hace398d65256e8b4E, symObjAddr: 0x14B90, symBinAddr: 0x100019270, symSize: 0x380 }
  - { offset: 0x4BAE9, size: 0x8, addend: 0x0, symName: '__ZN65_$LT$std..sys..fs..unix..Dir$u20$as$u20$core..ops..drop..Drop$GT$4drop17h00566fb81437571eE', symObjAddr: 0x531C0, symBinAddr: 0x1000408A0, symSize: 0xD0 }
  - { offset: 0x4BBDF, size: 0x8, addend: 0x0, symName: __ZN3std3sys2fs14remove_dir_all17hd8a910ff117d8ca9E, symObjAddr: 0x14140, symBinAddr: 0x100019110, symSize: 0x130 }
  - { offset: 0x4BD85, size: 0x8, addend: 0x0, symName: __ZN3std3sys2fs8read_dir17he96197a45d71fcd1E, symObjAddr: 0x160D0, symBinAddr: 0x100019770, symSize: 0x200 }
  - { offset: 0x4C1E5, size: 0x8, addend: 0x0, symName: '__ZN64_$LT$std..sys..stdio..unix..Stderr$u20$as$u20$std..io..Write$GT$14write_vectored17h2dbb79a2e8dce948E', symObjAddr: 0x52F00, symBinAddr: 0x1000407E0, symSize: 0x50 }
  - { offset: 0x4C2B4, size: 0x8, addend: 0x0, symName: '__ZN64_$LT$std..sys..stdio..unix..Stderr$u20$as$u20$std..io..Write$GT$17is_write_vectored17h9d9019aa34dca71eE', symObjAddr: 0x52F50, symBinAddr: 0x100040830, symSize: 0x10 }
  - { offset: 0x4C2CE, size: 0x8, addend: 0x0, symName: '__ZN64_$LT$std..sys..stdio..unix..Stderr$u20$as$u20$std..io..Write$GT$5flush17haca374bc2fb40ebcE', symObjAddr: 0x52F60, symBinAddr: 0x100040840, symSize: 0x10 }
  - { offset: 0x4C2E8, size: 0x8, addend: 0x0, symName: '__ZN64_$LT$std..sys..stdio..unix..Stderr$u20$as$u20$std..io..Write$GT$5write17h4b5035fe5e5f2032E', symObjAddr: 0x52F70, symBinAddr: 0x100040850, symSize: 0x50 }
  - { offset: 0x4C435, size: 0x8, addend: 0x0, symName: '__ZN3std3sys4sync8once_box16OnceBox$LT$T$GT$10initialize17h6aa2ce4cfc78c157E', symObjAddr: 0x1B490, symBinAddr: 0x100052F90, symSize: 0x120 }
  - { offset: 0x4C711, size: 0x8, addend: 0x0, symName: __ZN3std3sys4sync4once5queue4Once4call17h8e466067d86cbcb3E, symObjAddr: 0x1A7E0, symBinAddr: 0x100052CF0, symSize: 0x210 }
  - { offset: 0x4C9CB, size: 0x8, addend: 0x0, symName: '__ZN82_$LT$std..sys..sync..once..queue..WaiterQueue$u20$as$u20$core..ops..drop..Drop$GT$4drop17h17a27c240e6095eaE', symObjAddr: 0x586D0, symBinAddr: 0x100041520, symSize: 0xD0 }
  - { offset: 0x4CB80, size: 0x8, addend: 0x0, symName: __ZN3std3sys4sync4once5queue4wait17hcf137e24f8369e0fE, symObjAddr: 0x1ABE0, symBinAddr: 0x10001BC00, symSize: 0x160 }
  - { offset: 0x4D063, size: 0x8, addend: 0x0, symName: __ZN3std3sys4sync6rwlock5queue6RwLock12unlock_queue17h2b38c5d2f4e14db6E, symObjAddr: 0x1AD60, symBinAddr: 0x10001BD60, symSize: 0x180 }
  - { offset: 0x4D682, size: 0x8, addend: 0x0, symName: __ZN3std3sys4sync6rwlock5queue6RwLock16unlock_contended17h434533e27b51e3a9E, symObjAddr: 0x1B1F0, symBinAddr: 0x100052F00, symSize: 0x40 }
  - { offset: 0x4D75E, size: 0x8, addend: 0x0, symName: __ZN3std3sys4sync6rwlock5queue6RwLock21read_unlock_contended17ha0f88a0fd7df0d66E, symObjAddr: 0x1B230, symBinAddr: 0x100052F40, symSize: 0x50 }
  - { offset: 0x4D9B6, size: 0x8, addend: 0x0, symName: __ZN3std3sys4sync6rwlock5queue9read_lock17h5e2659437ef5e87cE, symObjAddr: 0x1B280, symBinAddr: 0x10001BEE0, symSize: 0x30 }
  - { offset: 0x4D9CF, size: 0x8, addend: 0x0, symName: '__ZN83_$LT$std..sys..sync..rwlock..queue..PanicGuard$u20$as$u20$core..ops..drop..Drop$GT$4drop17h9abf048048014633E', symObjAddr: 0x58950, symBinAddr: 0x1000575E0, symSize: 0x60 }
  - { offset: 0x4DA94, size: 0x8, addend: 0x0, symName: '__ZN3std3sys11personality3gcc14find_eh_action28_$u7b$$u7b$closure$u7d$$u7d$17h71a716f7697f7c23E', symObjAddr: 0x120C0, symBinAddr: 0x100018EF0, symSize: 0x10 }
  - { offset: 0x4DAA8, size: 0x8, addend: 0x0, symName: '__ZN3std3sys11personality3gcc14find_eh_action28_$u7b$$u7b$closure$u7d$$u7d$17hf3d297c424dd88bbE', symObjAddr: 0x120D0, symBinAddr: 0x100018F00, symSize: 0x10 }
  - { offset: 0x4DAF4, size: 0x8, addend: 0x0, symName: _rust_eh_personality, symObjAddr: 0x5D880, symBinAddr: 0x100045220, symSize: 0x640 }
  - { offset: 0x4E5E3, size: 0x8, addend: 0x0, symName: '__ZN3std3sys9backtrace10_print_fmt28_$u7b$$u7b$closure$u7d$$u7d$17h240c89470c2fecd8E', symObjAddr: 0x1F310, symBinAddr: 0x10001EF10, symSize: 0x130 }
  - { offset: 0x4E6CB, size: 0x8, addend: 0x0, symName: '__ZN3std3sys9backtrace10_print_fmt28_$u7b$$u7b$closure$u7d$$u7d$17h32646e4212c9eef0E', symObjAddr: 0x1F440, symBinAddr: 0x10001F040, symSize: 0x20 }
  - { offset: 0x4E70C, size: 0x8, addend: 0x0, symName: '__ZN3std3sys9backtrace10_print_fmt28_$u7b$$u7b$closure$u7d$$u7d$28_$u7b$$u7b$closure$u7d$$u7d$17h9218d583d276298aE', symObjAddr: 0x1F460, symBinAddr: 0x10001F060, symSize: 0x2A0 }
  - { offset: 0x4E8FF, size: 0x8, addend: 0x0, symName: __ZN3std3sys9backtrace13BacktraceLock5print17h5e73de0c808691a4E, symObjAddr: 0x1F700, symBinAddr: 0x10001F300, symSize: 0x60 }
  - { offset: 0x4E930, size: 0x8, addend: 0x0, symName: __ZN3std3sys9backtrace15output_filename17ha87664c578f770efE, symObjAddr: 0x1F760, symBinAddr: 0x10001F360, symSize: 0x120 }
  - { offset: 0x4EA9C, size: 0x8, addend: 0x0, symName: __ZN3std3sys9backtrace26__rust_end_short_backtrace17h3fc1fab9d4b6800aE, symObjAddr: 0x1F880, symBinAddr: 0x10001F480, symSize: 0x10 }
  - { offset: 0x4EAB6, size: 0x8, addend: 0x0, symName: __ZN3std3sys9backtrace4lock17h2bb35fe2884a3a88E, symObjAddr: 0x1F8A0, symBinAddr: 0x10001F490, symSize: 0x80 }
  - { offset: 0x4EC0C, size: 0x8, addend: 0x0, symName: '__ZN98_$LT$std..sys..backtrace..BacktraceLock..print..DisplayBacktrace$u20$as$u20$core..fmt..Display$GT$3fmt17hbb4f642dcc320b1dE', symObjAddr: 0x5A3B0, symBinAddr: 0x100041E50, symSize: 0x280 }
  - { offset: 0x4F16B, size: 0x8, addend: 0x0, symName: __RNvCskdKJRKLKjqM_7___rustc11___rdl_alloc, symObjAddr: 0x70, symBinAddr: 0x10000D780, symSize: 0x70 }
  - { offset: 0x4F1E9, size: 0x8, addend: 0x0, symName: __RNvCskdKJRKLKjqM_7___rustc13___rdl_dealloc, symObjAddr: 0xF0, symBinAddr: 0x10000D7F0, symSize: 0x10 }
  - { offset: 0x4F21A, size: 0x8, addend: 0x0, symName: __RNvCskdKJRKLKjqM_7___rustc13___rdl_realloc, symObjAddr: 0x100, symBinAddr: 0x10000D800, symSize: 0xD0 }
  - { offset: 0x4F2FE, size: 0x8, addend: 0x0, symName: __RNvCskdKJRKLKjqM_7___rustc18___rdl_alloc_zeroed, symObjAddr: 0x2D0, symBinAddr: 0x10000D9D0, symSize: 0x90 }
  - { offset: 0x4F3A3, size: 0x8, addend: 0x0, symName: __RNvCskdKJRKLKjqM_7___rustc8___rg_oom, symObjAddr: 0x430, symBinAddr: 0x1000526F0, symSize: 0x20 }
  - { offset: 0x4F3BF, size: 0x8, addend: 0x0, symName: __ZN3std5alloc24default_alloc_error_hook17h037631a9e9542696E, symObjAddr: 0x23AD0, symBinAddr: 0x100020650, symSize: 0x160 }
  - { offset: 0x4F64C, size: 0x8, addend: 0x0, symName: __ZN3std5alloc8rust_oom17he6554ab5e3e4bfbfE, symObjAddr: 0x23C30, symBinAddr: 0x100053170, symSize: 0x20 }
  - { offset: 0x4F699, size: 0x8, addend: 0x0, symName: __ZN3std2rt15handle_rt_panic17hc19cb4ec1bf553a3E, symObjAddr: 0xF090, symBinAddr: 0x100052830, symSize: 0x60 }
  - { offset: 0x4F729, size: 0x8, addend: 0x0, symName: __ZN3std2rt19lang_start_internal17he54b1e510ff92df3E, symObjAddr: 0xF0F0, symBinAddr: 0x100017FD0, symSize: 0x6C0 }
  - { offset: 0x5022F, size: 0x8, addend: 0x0, symName: __ZN3std2rt7cleanup17h67949fb3a9403564E, symObjAddr: 0xF7B0, symBinAddr: 0x100018690, symSize: 0x50 }
  - { offset: 0x50252, size: 0x8, addend: 0x0, symName: __ZN3std2rt7cleanup17h67949fb3a9403564E, symObjAddr: 0xF7B0, symBinAddr: 0x100018690, symSize: 0x50 }
  - { offset: 0x50266, size: 0x8, addend: 0x0, symName: __ZN3std2rt7cleanup17h67949fb3a9403564E, symObjAddr: 0xF7B0, symBinAddr: 0x100018690, symSize: 0x50 }
  - { offset: 0x5027A, size: 0x8, addend: 0x0, symName: __ZN3std2rt7cleanup17h67949fb3a9403564E, symObjAddr: 0xF7B0, symBinAddr: 0x100018690, symSize: 0x50 }
  - { offset: 0x503A3, size: 0x8, addend: 0x0, symName: __ZN3std2io5error14repr_bitpacked11decode_repr17ha713e1d9a867e6ffE, symObjAddr: 0xC820, symBinAddr: 0x100016FC0, symSize: 0x60 }
  - { offset: 0x50445, size: 0x8, addend: 0x0, symName: __ZN3std2io5error5Error3new17hca09cf106a8bb92bE, symObjAddr: 0xC960, symBinAddr: 0x100017020, symSize: 0x120 }
  - { offset: 0x50842, size: 0x8, addend: 0x0, symName: '__ZN3std2io5error83_$LT$impl$u20$core..fmt..Debug$u20$for$u20$std..io..error..repr_bitpacked..Repr$GT$3fmt17h0c2c47996b5c8151E', symObjAddr: 0xCB00, symBinAddr: 0x100017140, symSize: 0x300 }
  - { offset: 0x50A9A, size: 0x8, addend: 0x0, symName: '__ZN58_$LT$std..io..error..Error$u20$as$u20$core..fmt..Debug$GT$3fmt17h4e87839884dfef9aE', symObjAddr: 0x3D080, symBinAddr: 0x10002F970, symSize: 0x10 }
  - { offset: 0x50AB4, size: 0x8, addend: 0x0, symName: '__ZN60_$LT$std..io..error..Error$u20$as$u20$core..fmt..Display$GT$3fmt17hb9b71bb9d61087ecE', symObjAddr: 0x4F030, symBinAddr: 0x10003FC50, symSize: 0x280 }
  - { offset: 0x50CE7, size: 0x8, addend: 0x0, symName: '__ZN62_$LT$std..io..error..ErrorKind$u20$as$u20$core..fmt..Debug$GT$3fmt17hd88fc964aff56ab8E', symObjAddr: 0x51C40, symBinAddr: 0x100040690, symSize: 0x30 }
  - { offset: 0x50D7A, size: 0x8, addend: 0x0, symName: '__ZN3std2io8buffered9bufwriter18BufWriter$LT$W$GT$14write_all_cold17h4cf021826987ea15E', symObjAddr: 0xDCD0, symBinAddr: 0x100052710, symSize: 0x120 }
  - { offset: 0x50FB9, size: 0x8, addend: 0x0, symName: '__ZN3std2io8buffered9bufwriter18BufWriter$LT$W$GT$9flush_buf17h223037aba0b50117E', symObjAddr: 0xDDF0, symBinAddr: 0x100017D90, symSize: 0x240 }
  - { offset: 0x515D1, size: 0x8, addend: 0x0, symName: __ZN3std2io5Write18write_all_vectored17hc2fed901070b4d06E, symObjAddr: 0xC160, symBinAddr: 0x100016900, symSize: 0x1D0 }
  - { offset: 0x51816, size: 0x8, addend: 0x0, symName: __ZN3std2io5Write9write_all17ha0278d11ab8e55b7E, symObjAddr: 0xC330, symBinAddr: 0x100016AD0, symSize: 0xA0 }
  - { offset: 0x51906, size: 0x8, addend: 0x0, symName: __ZN3std2io5Write9write_fmt17h0157f34dfbceefe5E, symObjAddr: 0xC3D0, symBinAddr: 0x100016B70, symSize: 0x170 }
  - { offset: 0x51BE0, size: 0x8, addend: 0x0, symName: __ZN3std2io5Write9write_fmt17h24b62528f4d1168aE, symObjAddr: 0xC540, symBinAddr: 0x100016CE0, symSize: 0x170 }
  - { offset: 0x51EBA, size: 0x8, addend: 0x0, symName: __ZN3std2io5Write9write_fmt17h5e34a6300392fe22E, symObjAddr: 0xC6B0, symBinAddr: 0x100016E50, symSize: 0x170 }
  - { offset: 0x5220D, size: 0x8, addend: 0x0, symName: __ZN3std2io5stdio22try_set_output_capture17hb613035c20b6d0f1E, symObjAddr: 0xD2C0, symBinAddr: 0x100017830, symSize: 0xB0 }
  - { offset: 0x524B6, size: 0x8, addend: 0x0, symName: __ZN3std2io5stdio31print_to_buffer_if_capture_used17hde0c84d24b5006f1E, symObjAddr: 0xD440, symBinAddr: 0x1000178E0, symSize: 0x220 }
  - { offset: 0x52BC8, size: 0x8, addend: 0x0, symName: __ZN3std2io5stdio6Stderr4lock17h9794f8e40f87e1fdE, symObjAddr: 0xD8C0, symBinAddr: 0x100017B00, symSize: 0xC0 }
  - { offset: 0x52E97, size: 0x8, addend: 0x0, symName: __ZN3std2io5stdio6_print17he5f702afc7c35b8cE, symObjAddr: 0xD980, symBinAddr: 0x100017BC0, symSize: 0xF0 }
  - { offset: 0x52FA5, size: 0x8, addend: 0x0, symName: __ZN3std2io5stdio7_eprint17h975cd51aa0c9b8cfE, symObjAddr: 0xDAA0, symBinAddr: 0x100017CB0, symSize: 0xE0 }
  - { offset: 0x5306F, size: 0x8, addend: 0x0, symName: '__ZN61_$LT$$RF$std..io..stdio..Stderr$u20$as$u20$std..io..Write$GT$9write_fmt17h4e3fdff94d0882edE', symObjAddr: 0x50110, symBinAddr: 0x10003FED0, symSize: 0x1C0 }
  - { offset: 0x534F3, size: 0x8, addend: 0x0, symName: '__ZN61_$LT$std..io..stdio..StderrLock$u20$as$u20$std..io..Write$GT$9write_all17h468845e2c0726439E', symObjAddr: 0x509B0, symBinAddr: 0x100040250, symSize: 0x100 }
  - { offset: 0x53773, size: 0x8, addend: 0x0, symName: '__ZN61_$LT$$RF$std..io..stdio..Stdout$u20$as$u20$std..io..Write$GT$9write_fmt17h0eee9ce97af14d23E', symObjAddr: 0x50590, symBinAddr: 0x100040090, symSize: 0x1C0 }
  - { offset: 0x53C17, size: 0x8, addend: 0x0, symName: '__ZN61_$LT$std..io..stdio..StdoutLock$u20$as$u20$std..io..Write$GT$9write_all17h054337cb99b92b16E', symObjAddr: 0x51070, symBinAddr: 0x100040350, symSize: 0x260 }
  - { offset: 0x54299, size: 0x8, addend: 0x0, symName: '__ZN3std2io5impls74_$LT$impl$u20$std..io..Write$u20$for$u20$alloc..vec..Vec$LT$u8$C$A$GT$$GT$14write_vectored17h396066abfc006fcaE', symObjAddr: 0xCE00, symBinAddr: 0x100017440, symSize: 0x180 }
  - { offset: 0x5449B, size: 0x8, addend: 0x0, symName: '__ZN3std2io5impls74_$LT$impl$u20$std..io..Write$u20$for$u20$alloc..vec..Vec$LT$u8$C$A$GT$$GT$17is_write_vectored17h473fffb9382bf9c6E', symObjAddr: 0xCF80, symBinAddr: 0x1000175C0, symSize: 0x10 }
  - { offset: 0x544C4, size: 0x8, addend: 0x0, symName: '__ZN3std2io5impls74_$LT$impl$u20$std..io..Write$u20$for$u20$alloc..vec..Vec$LT$u8$C$A$GT$$GT$18write_all_vectored17hcfe81a52ebadbc0bE', symObjAddr: 0xCF90, symBinAddr: 0x1000175D0, symSize: 0x170 }
  - { offset: 0x544EF, size: 0x8, addend: 0x0, symName: '__ZN3std2io5impls74_$LT$impl$u20$std..io..Write$u20$for$u20$alloc..vec..Vec$LT$u8$C$A$GT$$GT$18write_all_vectored17hcfe81a52ebadbc0bE', symObjAddr: 0xCF90, symBinAddr: 0x1000175D0, symSize: 0x170 }
  - { offset: 0x54504, size: 0x8, addend: 0x0, symName: '__ZN3std2io5impls74_$LT$impl$u20$std..io..Write$u20$for$u20$alloc..vec..Vec$LT$u8$C$A$GT$$GT$18write_all_vectored17hcfe81a52ebadbc0bE', symObjAddr: 0xCF90, symBinAddr: 0x1000175D0, symSize: 0x170 }
  - { offset: 0x54519, size: 0x8, addend: 0x0, symName: '__ZN3std2io5impls74_$LT$impl$u20$std..io..Write$u20$for$u20$alloc..vec..Vec$LT$u8$C$A$GT$$GT$18write_all_vectored17hcfe81a52ebadbc0bE', symObjAddr: 0xCF90, symBinAddr: 0x1000175D0, symSize: 0x170 }
  - { offset: 0x5452D, size: 0x8, addend: 0x0, symName: '__ZN3std2io5impls74_$LT$impl$u20$std..io..Write$u20$for$u20$alloc..vec..Vec$LT$u8$C$A$GT$$GT$18write_all_vectored17hcfe81a52ebadbc0bE', symObjAddr: 0xCF90, symBinAddr: 0x1000175D0, symSize: 0x170 }
  - { offset: 0x54541, size: 0x8, addend: 0x0, symName: '__ZN3std2io5impls74_$LT$impl$u20$std..io..Write$u20$for$u20$alloc..vec..Vec$LT$u8$C$A$GT$$GT$18write_all_vectored17hcfe81a52ebadbc0bE', symObjAddr: 0xCF90, symBinAddr: 0x1000175D0, symSize: 0x170 }
  - { offset: 0x546FB, size: 0x8, addend: 0x0, symName: '__ZN3std2io5impls74_$LT$impl$u20$std..io..Write$u20$for$u20$alloc..vec..Vec$LT$u8$C$A$GT$$GT$5flush17hc83d241489517b1fE', symObjAddr: 0xD100, symBinAddr: 0x100017740, symSize: 0x10 }
  - { offset: 0x54716, size: 0x8, addend: 0x0, symName: '__ZN3std2io5impls74_$LT$impl$u20$std..io..Write$u20$for$u20$alloc..vec..Vec$LT$u8$C$A$GT$$GT$5write17h0e0da068fc5acedeE', symObjAddr: 0xD110, symBinAddr: 0x100017750, symSize: 0x70 }
  - { offset: 0x547FC, size: 0x8, addend: 0x0, symName: '__ZN3std2io5impls74_$LT$impl$u20$std..io..Write$u20$for$u20$alloc..vec..Vec$LT$u8$C$A$GT$$GT$9write_all17h7bccd6e9d3e19e7fE', symObjAddr: 0xD180, symBinAddr: 0x1000177C0, symSize: 0x70 }
  - { offset: 0x54A05, size: 0x8, addend: 0x0, symName: '__ZN81_$LT$std..io..default_write_fmt..Adapter$LT$T$GT$$u20$as$u20$core..fmt..Write$GT$9write_str17h1649a3991f2ea191E', symObjAddr: 0x57A70, symBinAddr: 0x1000412A0, symSize: 0xD0 }
  - { offset: 0x54B11, size: 0x8, addend: 0x0, symName: '__ZN81_$LT$std..io..default_write_fmt..Adapter$LT$T$GT$$u20$as$u20$core..fmt..Write$GT$9write_str17h284670e048cc9fa3E', symObjAddr: 0x57B40, symBinAddr: 0x100041370, symSize: 0x50 }
  - { offset: 0x54B3B, size: 0x8, addend: 0x0, symName: '__ZN81_$LT$std..io..default_write_fmt..Adapter$LT$T$GT$$u20$as$u20$core..fmt..Write$GT$9write_str17h65288afb60bc4b22E', symObjAddr: 0x57C60, symBinAddr: 0x1000413C0, symSize: 0x70 }
  - { offset: 0x54C28, size: 0x8, addend: 0x0, symName: '__ZN81_$LT$std..io..default_write_fmt..Adapter$LT$T$GT$$u20$as$u20$core..fmt..Write$GT$9write_str17h9ddd3fd8700ebc6eE', symObjAddr: 0x57CD0, symBinAddr: 0x100041430, symSize: 0x50 }
  - { offset: 0x54C52, size: 0x8, addend: 0x0, symName: '__ZN81_$LT$std..io..default_write_fmt..Adapter$LT$T$GT$$u20$as$u20$core..fmt..Write$GT$9write_str17hf60e64c5a7fc0711E', symObjAddr: 0x57D20, symBinAddr: 0x100041480, symSize: 0xA0 }
  - { offset: 0x54EA3, size: 0x8, addend: 0x0, symName: __ZN3std4path4Path13_strip_prefix17h57206cfe16291a76E, symObjAddr: 0x20BD0, symBinAddr: 0x10001FB50, symSize: 0x3C0 }
  - { offset: 0x54FB3, size: 0x8, addend: 0x0, symName: __ZN3std4path4Path5_join17hf8c84868fde1d922E, symObjAddr: 0x21720, symBinAddr: 0x10001FF10, symSize: 0x190 }
  - { offset: 0x555A0, size: 0x8, addend: 0x0, symName: __ZN3std4path4Path6is_dir17ha85723d377dee2d9E, symObjAddr: 0x218B0, symBinAddr: 0x1000200A0, symSize: 0x1E0 }
  - { offset: 0x55AF9, size: 0x8, addend: 0x0, symName: __ZN3std4path10Components15len_before_body17hc0c9c8c5c44312a5E, symObjAddr: 0x1F920, symBinAddr: 0x10001F510, symSize: 0x170 }
  - { offset: 0x55B10, size: 0x8, addend: 0x0, symName: __ZN3std4path10Components15len_before_body17hc0c9c8c5c44312a5E, symObjAddr: 0x1F920, symBinAddr: 0x10001F510, symSize: 0x170 }
  - { offset: 0x55B25, size: 0x8, addend: 0x0, symName: __ZN3std4path10Components15len_before_body17hc0c9c8c5c44312a5E, symObjAddr: 0x1F920, symBinAddr: 0x10001F510, symSize: 0x170 }
  - { offset: 0x55CFD, size: 0x8, addend: 0x0, symName: __ZN3std4path10Components25parse_next_component_back17h39a0247b7cda8e0bE, symObjAddr: 0x1FA90, symBinAddr: 0x10001F680, symSize: 0xF0 }
  - { offset: 0x55E9C, size: 0x8, addend: 0x0, symName: __ZN3std4path10Components7as_path17h069c6a5a65b7ff44E, symObjAddr: 0x1FB80, symBinAddr: 0x10001F770, symSize: 0x3E0 }
  - { offset: 0x56207, size: 0x8, addend: 0x0, symName: '__ZN57_$LT$std..path..Display$u20$as$u20$core..fmt..Display$GT$3fmt17h4b31f13031a7fa47E', symObjAddr: 0x3CD90, symBinAddr: 0x10002F7B0, symSize: 0x10 }
  - { offset: 0x562E1, size: 0x8, addend: 0x0, symName: '__ZN61_$LT$std..path..Component$u20$as$u20$core..cmp..PartialEq$GT$2eq17h491fa3e2db060d13E', symObjAddr: 0x512F0, symBinAddr: 0x1000405B0, symSize: 0xE0 }
  - { offset: 0x5639B, size: 0x8, addend: 0x0, symName: '__ZN80_$LT$std..path..Components$u20$as$u20$core..iter..traits..iterator..Iterator$GT$4next17hee0b9dd08b602416E', symObjAddr: 0x57330, symBinAddr: 0x100040E90, symSize: 0x410 }
  - { offset: 0x5673C, size: 0x8, addend: 0x0, symName: '__ZN95_$LT$std..path..Components$u20$as$u20$core..iter..traits..double_ended..DoubleEndedIterator$GT$9next_back17h714e7cb7d2d85f84E', symObjAddr: 0x59CE0, symBinAddr: 0x100041970, symSize: 0x420 }
  - { offset: 0x56948, size: 0x8, addend: 0x0, symName: __ZN3std7process4exit17h8c009252ab1ca590E, symObjAddr: 0x24F70, symBinAddr: 0x100020A40, symSize: 0x20 }
  - { offset: 0x56977, size: 0x8, addend: 0x0, symName: __ZN3std7process5abort17h0d4477327f66e8fbE, symObjAddr: 0x25400, symBinAddr: 0x100053340, symSize: 0x10 }
  - { offset: 0x56997, size: 0x8, addend: 0x0, symName: __ZN3std7process7Command6status17h9dafcb85898b4dcdE, symObjAddr: 0x258A0, symBinAddr: 0x100020A60, symSize: 0x100 }
  - { offset: 0x56C7B, size: 0x8, addend: 0x0, symName: '__ZN118_$LT$std..thread..thread_name_string..ThreadNameString$u20$as$u20$core..convert..From$LT$alloc..string..String$GT$$GT$4from17h61e83cd51d9b6e6aE', symObjAddr: 0x10C0, symBinAddr: 0x10000DBB0, symSize: 0x100 }
  - { offset: 0x57033, size: 0x8, addend: 0x0, symName: __ZN3std6thread7current12init_current17h90dce586534f49cdE, symObjAddr: 0x245B0, symBinAddr: 0x100053190, symSize: 0x160 }
  - { offset: 0x5734B, size: 0x8, addend: 0x0, symName: __ZN3std6thread7current13current_os_id17h7dd262076b74b984E, symObjAddr: 0x24710, symBinAddr: 0x1000209C0, symSize: 0x80 }
  - { offset: 0x5755E, size: 0x8, addend: 0x0, symName: __ZN3std6thread6Thread3new17haba3f9a731f34843E, symObjAddr: 0x241F0, symBinAddr: 0x100020880, symSize: 0x140 }
  - { offset: 0x578A5, size: 0x8, addend: 0x0, symName: __ZN3std6thread8ThreadId3new9exhausted17h406b0b054c541c40E, symObjAddr: 0x248A0, symBinAddr: 0x1000532F0, symSize: 0x50 }
  - { offset: 0x57925, size: 0x8, addend: 0x0, symName: __ZN3std12backtrace_rs5print17BacktraceFrameFmt21print_raw_with_column17h124737e9f41c54b0E, symObjAddr: 0x12B0, symBinAddr: 0x10000DD10, symSize: 0x560 }
  - { offset: 0x57B1B, size: 0x8, addend: 0x0, symName: __ZN3std12backtrace_rs9backtrace9libunwind5trace8trace_fn17hc5d3caa7e26e2d87E, symObjAddr: 0x1810, symBinAddr: 0x10000E270, symSize: 0x50 }
  - { offset: 0x57BD6, size: 0x8, addend: 0x0, symName: __ZN3std12backtrace_rs9symbolize5gimli4mmap17h12ebabe808a68383E, symObjAddr: 0x1860, symBinAddr: 0x10000E2C0, symSize: 0x210 }
  - { offset: 0x580C3, size: 0x8, addend: 0x0, symName: __ZN3std12backtrace_rs9symbolize5gimli5macho11find_header17hde9f2a87e444cec9E, symObjAddr: 0x1A70, symBinAddr: 0x10000E4D0, symSize: 0x190 }
  - { offset: 0x587A1, size: 0x8, addend: 0x0, symName: __ZN3std12backtrace_rs9symbolize5gimli5macho6Object5parse17h400ac0874d941337E, symObjAddr: 0x1C00, symBinAddr: 0x10000E660, symSize: 0x1040 }
  - { offset: 0x5A6C8, size: 0x8, addend: 0x0, symName: __ZN3std12backtrace_rs9symbolize5gimli5macho6Object7section17hf53b9a42818e2c3dE, symObjAddr: 0x2C40, symBinAddr: 0x10000F6A0, symSize: 0x180 }
  - { offset: 0x5AB02, size: 0x8, addend: 0x0, symName: __ZN3std12backtrace_rs9symbolize5gimli7Context11find_frames17h15418eb91b7e6263E, symObjAddr: 0x2DC0, symBinAddr: 0x10000F820, symSize: 0x3D0 }
  - { offset: 0x5AEE2, size: 0x8, addend: 0x0, symName: __ZN3std12backtrace_rs9symbolize5gimli7Context3new17hb329d27e4d696e6aE, symObjAddr: 0x3190, symBinAddr: 0x10000FBF0, symSize: 0x3050 }
  - { offset: 0x5F040, size: 0x8, addend: 0x0, symName: __ZN3std12backtrace_rs9symbolize5gimli7resolve17h34165e1bf34eef53E, symObjAddr: 0x61E0, symBinAddr: 0x100012C40, symSize: 0x3560 }
  - { offset: 0x650CC, size: 0x8, addend: 0x0, symName: __ZN3std12backtrace_rs9symbolize6Symbol4name17hd612854ad8f0ffd0E, symObjAddr: 0x9780, symBinAddr: 0x1000161A0, symSize: 0x110 }
  - { offset: 0x65205, size: 0x8, addend: 0x0, symName: '__ZN79_$LT$std..backtrace_rs..symbolize..SymbolName$u20$as$u20$core..fmt..Display$GT$3fmt17hdc33297e1ed74ca2E', symObjAddr: 0x56AE0, symBinAddr: 0x100040DB0, symSize: 0xE0 }
  - { offset: 0x6538F, size: 0x8, addend: 0x0, symName: __ZN3std2fs10DirBuilder14create_dir_all17h33a040ada4c7192cE, symObjAddr: 0x9890, symBinAddr: 0x1000162B0, symSize: 0x590 }
  - { offset: 0x65B5D, size: 0x8, addend: 0x0, symName: __ZN3std2fs10DirBuilder7_create17h6f7003bb5724e554E, symObjAddr: 0x9E20, symBinAddr: 0x100016840, symSize: 0xC0 }
  - { offset: 0x65F0A, size: 0x8, addend: 0x0, symName: '__ZN64_$LT$std..ffi..os_str..Display$u20$as$u20$core..fmt..Display$GT$3fmt17hc3b4edbdc1de5d2aE', symObjAddr: 0x52BC0, symBinAddr: 0x100040710, symSize: 0xD0 }
  - { offset: 0x65F8F, size: 0x8, addend: 0x0, symName: '__ZN3std4sync6poison5mutex14Mutex$LT$T$GT$4lock17hc2ce4f843db9b8deE', symObjAddr: 0x23070, symBinAddr: 0x1000205E0, symSize: 0x70 }
  - { offset: 0x661EE, size: 0x8, addend: 0x0, symName: '__ZN3std4sync6poison4once4Once15call_once_force28_$u7b$$u7b$closure$u7d$$u7d$17h3fd27ef06f442f06E', symObjAddr: 0x22AF0, symBinAddr: 0x100020280, symSize: 0x90 }
  - { offset: 0x662A5, size: 0x8, addend: 0x0, symName: '__ZN3std4sync6poison4once4Once15call_once_force28_$u7b$$u7b$closure$u7d$$u7d$17hcef2943343630694E', symObjAddr: 0x22D80, symBinAddr: 0x100020310, symSize: 0x90 }
  - { offset: 0x66402, size: 0x8, addend: 0x0, symName: '__ZN3std4sync6poison4once4Once9call_once28_$u7b$$u7b$closure$u7d$$u7d$17h5c617ced4614c08fE', symObjAddr: 0x22E30, symBinAddr: 0x1000203A0, symSize: 0x240 }
  - { offset: 0x66BA5, size: 0x8, addend: 0x0, symName: '__ZN3std4sync9once_lock17OnceLock$LT$T$GT$10initialize17h9ad90c5bfd166a66E', symObjAddr: 0x23793, symBinAddr: 0x1000530B3, symSize: 0x59 }
  - { offset: 0x66BD0, size: 0x8, addend: 0x0, symName: '__ZN3std4sync9once_lock17OnceLock$LT$T$GT$10initialize17h9ad90c5bfd166a66E', symObjAddr: 0x23793, symBinAddr: 0x1000530B3, symSize: 0x59 }
  - { offset: 0x66BE4, size: 0x8, addend: 0x0, symName: '__ZN3std4sync9once_lock17OnceLock$LT$T$GT$10initialize17h9ad90c5bfd166a66E', symObjAddr: 0x23793, symBinAddr: 0x1000530B3, symSize: 0x59 }
  - { offset: 0x66BF8, size: 0x8, addend: 0x0, symName: '__ZN3std4sync9once_lock17OnceLock$LT$T$GT$10initialize17h9ad90c5bfd166a66E', symObjAddr: 0x23793, symBinAddr: 0x1000530B3, symSize: 0x59 }
  - { offset: 0x66C0E, size: 0x8, addend: 0x0, symName: '__ZN3std4sync9once_lock17OnceLock$LT$T$GT$10initialize17hdc61a2003d8acd11E', symObjAddr: 0x23841, symBinAddr: 0x100053111, symSize: 0x5F }
  - { offset: 0x66C39, size: 0x8, addend: 0x0, symName: '__ZN3std4sync9once_lock17OnceLock$LT$T$GT$10initialize17hdc61a2003d8acd11E', symObjAddr: 0x23841, symBinAddr: 0x100053111, symSize: 0x5F }
  - { offset: 0x66C4D, size: 0x8, addend: 0x0, symName: '__ZN3std4sync9once_lock17OnceLock$LT$T$GT$10initialize17hdc61a2003d8acd11E', symObjAddr: 0x23841, symBinAddr: 0x100053111, symSize: 0x5F }
  - { offset: 0x66C61, size: 0x8, addend: 0x0, symName: '__ZN3std4sync9once_lock17OnceLock$LT$T$GT$10initialize17hdc61a2003d8acd11E', symObjAddr: 0x23841, symBinAddr: 0x100053111, symSize: 0x5F }
  - { offset: 0x66E0C, size: 0x8, addend: 0x0, symName: __ZN3std5panic19get_backtrace_style17h4c7362303865842eE, symObjAddr: 0x23C60, symBinAddr: 0x1000207B0, symSize: 0xD0 }
  - { offset: 0x66E2A, size: 0x8, addend: 0x0, symName: __ZN3std5panic19get_backtrace_style17h4c7362303865842eE, symObjAddr: 0x23C60, symBinAddr: 0x1000207B0, symSize: 0xD0 }
  - { offset: 0x66E3F, size: 0x8, addend: 0x0, symName: __ZN3std5panic19get_backtrace_style17h4c7362303865842eE, symObjAddr: 0x23C60, symBinAddr: 0x1000207B0, symSize: 0xD0 }
  - { offset: 0x670AC, size: 0x8, addend: 0x0, symName: __ZN3std3env11current_dir17h09876c9b4b89060dE, symObjAddr: 0xF800, symBinAddr: 0x1000186E0, symSize: 0x1C0 }
  - { offset: 0x674E9, size: 0x8, addend: 0x0, symName: __ZN3std3env4_var17h75d65b34efbdced7E, symObjAddr: 0xFAA0, symBinAddr: 0x1000188A0, symSize: 0xA0 }
  - { offset: 0x675E5, size: 0x8, addend: 0x0, symName: __ZN3std3env7_var_os17ha90d6152c34619e1E, symObjAddr: 0xFB80, symBinAddr: 0x100018940, symSize: 0x170 }
  - { offset: 0x678A5, size: 0x8, addend: 0x0, symName: __ZN3std3env7vars_os17hc4844c317b828c1aE, symObjAddr: 0xFF30, symBinAddr: 0x100018AB0, symSize: 0x440 }
  - { offset: 0x68689, size: 0x8, addend: 0x0, symName: __ZN5alloc5alloc15exchange_malloc17hdc54b6ad35f557b1E, symObjAddr: 0x452D0, symBinAddr: 0x100036480, symSize: 0x40 }
  - { offset: 0x698C5, size: 0x8, addend: 0x0, symName: '__ZN64_$LT$alloc..ffi..c_str..NulError$u20$as$u20$core..fmt..Debug$GT$3fmt17h42a8844572b8105bE', symObjAddr: 0x524F0, symBinAddr: 0x1000406C0, symSize: 0x50 }
  - { offset: 0x6AE7D, size: 0x8, addend: 0x0, symName: '__ZN5alloc11collections5btree4node208Handle$LT$alloc..collections..btree..node..NodeRef$LT$alloc..collections..btree..node..marker..Mut$C$K$C$V$C$alloc..collections..btree..node..marker..Leaf$GT$$C$alloc..collections..btree..node..marker..KV$GT$5split17h2e0ddf5cd10d99d6E', symObjAddr: 0x40F70, symBinAddr: 0x100032190, symSize: 0x1C0 }
  - { offset: 0x6B259, size: 0x8, addend: 0x0, symName: '__ZN5alloc11collections5btree4node208Handle$LT$alloc..collections..btree..node..NodeRef$LT$alloc..collections..btree..node..marker..Mut$C$K$C$V$C$alloc..collections..btree..node..marker..Leaf$GT$$C$alloc..collections..btree..node..marker..KV$GT$5split17h9dabb5bd0fd366e5E', symObjAddr: 0x41130, symBinAddr: 0x100032350, symSize: 0x200 }
  - { offset: 0x6B70C, size: 0x8, addend: 0x0, symName: '__ZN5alloc11collections5btree4node208Handle$LT$alloc..collections..btree..node..NodeRef$LT$alloc..collections..btree..node..marker..Mut$C$K$C$V$C$alloc..collections..btree..node..marker..Leaf$GT$$C$alloc..collections..btree..node..marker..KV$GT$5split17hb1ffacf0e82edab8E', symObjAddr: 0x41330, symBinAddr: 0x100032550, symSize: 0x1F0 }
  - { offset: 0x6BBBE, size: 0x8, addend: 0x0, symName: '__ZN5alloc11collections5btree4node212Handle$LT$alloc..collections..btree..node..NodeRef$LT$alloc..collections..btree..node..marker..Mut$C$K$C$V$C$alloc..collections..btree..node..marker..Internal$GT$$C$alloc..collections..btree..node..marker..KV$GT$5split17h049602c25495a0d5E', symObjAddr: 0x41520, symBinAddr: 0x100032740, symSize: 0x300 }
  - { offset: 0x6C262, size: 0x8, addend: 0x0, symName: '__ZN5alloc11collections5btree4node212Handle$LT$alloc..collections..btree..node..NodeRef$LT$alloc..collections..btree..node..marker..Mut$C$K$C$V$C$alloc..collections..btree..node..marker..Internal$GT$$C$alloc..collections..btree..node..marker..KV$GT$5split17h17c643d4c82620a0E', symObjAddr: 0x41820, symBinAddr: 0x100032A40, symSize: 0x280 }
  - { offset: 0x6C7AC, size: 0x8, addend: 0x0, symName: '__ZN5alloc11collections5btree4node212Handle$LT$alloc..collections..btree..node..NodeRef$LT$alloc..collections..btree..node..marker..Mut$C$K$C$V$C$alloc..collections..btree..node..marker..Internal$GT$$C$alloc..collections..btree..node..marker..KV$GT$5split17hce29b28e134d751bE', symObjAddr: 0x41AA0, symBinAddr: 0x100032CC0, symSize: 0x2F0 }
  - { offset: 0x6CEBF, size: 0x8, addend: 0x0, symName: '__ZN5alloc11collections5btree6remove259_$LT$impl$u20$alloc..collections..btree..node..Handle$LT$alloc..collections..btree..node..NodeRef$LT$alloc..collections..btree..node..marker..Mut$C$K$C$V$C$alloc..collections..btree..node..marker..Leaf$GT$$C$alloc..collections..btree..node..marker..KV$GT$$GT$14remove_leaf_kv17h2a34ebe0da4333d8E', symObjAddr: 0x434D0, symBinAddr: 0x1000346F0, symSize: 0x8C0 }
  - { offset: 0x6DB00, size: 0x8, addend: 0x0, symName: '__ZN5alloc11collections5btree6remove259_$LT$impl$u20$alloc..collections..btree..node..Handle$LT$alloc..collections..btree..node..NodeRef$LT$alloc..collections..btree..node..marker..Mut$C$K$C$V$C$alloc..collections..btree..node..marker..Leaf$GT$$C$alloc..collections..btree..node..marker..KV$GT$$GT$14remove_leaf_kv17hc8882eb65a8263c2E', symObjAddr: 0x43D90, symBinAddr: 0x100034FB0, symSize: 0x900 }
  - { offset: 0x6E6B7, size: 0x8, addend: 0x0, symName: '__ZN5alloc11collections5btree6remove259_$LT$impl$u20$alloc..collections..btree..node..Handle$LT$alloc..collections..btree..node..NodeRef$LT$alloc..collections..btree..node..marker..Mut$C$K$C$V$C$alloc..collections..btree..node..marker..Leaf$GT$$C$alloc..collections..btree..node..marker..KV$GT$$GT$14remove_leaf_kv17hcfdc75911d37b1d8E', symObjAddr: 0x44690, symBinAddr: 0x1000358B0, symSize: 0x900 }
  - { offset: 0x6F54C, size: 0x8, addend: 0x0, symName: '__ZN5alloc11collections5btree4node29BalancingContext$LT$K$C$V$GT$15bulk_steal_left17h3b899cdacc6f7634E', symObjAddr: 0x41D90, symBinAddr: 0x100032FB0, symSize: 0x400 }
  - { offset: 0x6FA12, size: 0x8, addend: 0x0, symName: '__ZN5alloc11collections5btree4node29BalancingContext$LT$K$C$V$GT$15bulk_steal_left17h66a91518f6da12fdE', symObjAddr: 0x42190, symBinAddr: 0x1000333B0, symSize: 0x370 }
  - { offset: 0x6FEF6, size: 0x8, addend: 0x0, symName: '__ZN5alloc11collections5btree4node29BalancingContext$LT$K$C$V$GT$16bulk_steal_right17h4e21d715a5e05da5E', symObjAddr: 0x42500, symBinAddr: 0x100033720, symSize: 0x3C0 }
  - { offset: 0x70510, size: 0x8, addend: 0x0, symName: '__ZN5alloc11collections5btree4node29BalancingContext$LT$K$C$V$GT$16bulk_steal_right17ha9d1e50b5a62421eE', symObjAddr: 0x428C0, symBinAddr: 0x100033AE0, symSize: 0x440 }
  - { offset: 0x70A9E, size: 0x8, addend: 0x0, symName: '__ZN5alloc11collections5btree4node29BalancingContext$LT$K$C$V$GT$8do_merge17h23068df04fc85f6cE', symObjAddr: 0x42D00, symBinAddr: 0x100033F20, symSize: 0x400 }
  - { offset: 0x70FF5, size: 0x8, addend: 0x0, symName: '__ZN5alloc11collections5btree4node29BalancingContext$LT$K$C$V$GT$8do_merge17h59e33ac8b4f1aedbE', symObjAddr: 0x43100, symBinAddr: 0x100034320, symSize: 0x3D0 }
  - { offset: 0x7190B, size: 0x8, addend: 0x0, symName: '__ZN5alloc11collections5btree3map25BTreeMap$LT$K$C$V$C$A$GT$6insert17h573ce44374f5ebb6E', symObjAddr: 0x3E760, symBinAddr: 0x10002F980, symSize: 0xE50 }
  - { offset: 0x72CEE, size: 0x8, addend: 0x0, symName: '__ZN5alloc11collections5btree3map25BTreeMap$LT$K$C$V$C$A$GT$6insert17h8707bbeb01060a3bE', symObjAddr: 0x3F5B0, symBinAddr: 0x1000307D0, symSize: 0xE80 }
  - { offset: 0x74351, size: 0x8, addend: 0x0, symName: '__ZN5alloc11collections5btree3map25IntoIter$LT$K$C$V$C$A$GT$10dying_next17h0137cfdaf279346fE', symObjAddr: 0x40430, symBinAddr: 0x100031650, symSize: 0x3C0 }
  - { offset: 0x746BD, size: 0x8, addend: 0x0, symName: '__ZN5alloc11collections5btree3map25IntoIter$LT$K$C$V$C$A$GT$10dying_next17h74ba4dc90cd3bd84E', symObjAddr: 0x407F0, symBinAddr: 0x100031A10, symSize: 0x3C0 }
  - { offset: 0x74A29, size: 0x8, addend: 0x0, symName: '__ZN5alloc11collections5btree3map25IntoIter$LT$K$C$V$C$A$GT$10dying_next17h786570e0d2d29ee1E', symObjAddr: 0x40BB0, symBinAddr: 0x100031DD0, symSize: 0x3C0 }
  - { offset: 0x75985, size: 0x8, addend: 0x0, symName: '__ZN5alloc7raw_vec19RawVec$LT$T$C$A$GT$8grow_one17h1578391f1dd2c7daE', symObjAddr: 0x45380, symBinAddr: 0x1000364C0, symSize: 0xC0 }
  - { offset: 0x75A9B, size: 0x8, addend: 0x0, symName: '__ZN5alloc7raw_vec19RawVec$LT$T$C$A$GT$8grow_one17h1a8e605a6c9c7a9cE', symObjAddr: 0x45440, symBinAddr: 0x100036580, symSize: 0xC0 }
  - { offset: 0x75BC6, size: 0x8, addend: 0x0, symName: '__ZN5alloc7raw_vec19RawVec$LT$T$C$A$GT$8grow_one17h496d6c99f941dcd8E', symObjAddr: 0x45500, symBinAddr: 0x100036640, symSize: 0xB0 }
  - { offset: 0x75CDC, size: 0x8, addend: 0x0, symName: '__ZN5alloc7raw_vec19RawVec$LT$T$C$A$GT$8grow_one17h62d92001f5fd4088E', symObjAddr: 0x455B0, symBinAddr: 0x1000366F0, symSize: 0xC0 }
  - { offset: 0x75DF2, size: 0x8, addend: 0x0, symName: '__ZN5alloc7raw_vec19RawVec$LT$T$C$A$GT$8grow_one17h882f0afd17fb4cf1E', symObjAddr: 0x45670, symBinAddr: 0x1000367B0, symSize: 0xC0 }
  - { offset: 0x75F1D, size: 0x8, addend: 0x0, symName: '__ZN5alloc7raw_vec19RawVec$LT$T$C$A$GT$8grow_one17h9215a3a3eddacbe8E', symObjAddr: 0x45730, symBinAddr: 0x100036870, symSize: 0xC0 }
  - { offset: 0x76033, size: 0x8, addend: 0x0, symName: '__ZN5alloc7raw_vec19RawVec$LT$T$C$A$GT$8grow_one17h944deff35e2917e9E', symObjAddr: 0x457F0, symBinAddr: 0x100036930, symSize: 0xC0 }
  - { offset: 0x7615E, size: 0x8, addend: 0x0, symName: '__ZN5alloc7raw_vec19RawVec$LT$T$C$A$GT$8grow_one17h9e141b6ec2b6b304E', symObjAddr: 0x458B0, symBinAddr: 0x1000369F0, symSize: 0xB0 }
  - { offset: 0x76274, size: 0x8, addend: 0x0, symName: '__ZN5alloc7raw_vec19RawVec$LT$T$C$A$GT$8grow_one17haba969b9d90e429dE', symObjAddr: 0x45960, symBinAddr: 0x100036AA0, symSize: 0xC0 }
  - { offset: 0x7639F, size: 0x8, addend: 0x0, symName: '__ZN5alloc7raw_vec19RawVec$LT$T$C$A$GT$8grow_one17hea102eabff85231dE', symObjAddr: 0x45AD0, symBinAddr: 0x100036B60, symSize: 0xB0 }
  - { offset: 0x764B5, size: 0x8, addend: 0x0, symName: '__ZN5alloc7raw_vec19RawVec$LT$T$C$A$GT$8grow_one17hf1b3041c36e8ca25E', symObjAddr: 0x45B80, symBinAddr: 0x100036C10, symSize: 0xB0 }
  - { offset: 0x7682B, size: 0x8, addend: 0x0, symName: __ZN5alloc7raw_vec11finish_grow17h446b951c64c58a29E, symObjAddr: 0x45310, symBinAddr: 0x100057490, symSize: 0x70 }
  - { offset: 0x768B7, size: 0x8, addend: 0x0, symName: '__ZN5alloc7raw_vec20RawVecInner$LT$A$GT$7reserve21do_reserve_and_handle17ha31d691a92aa6984E', symObjAddr: 0x45C30, symBinAddr: 0x100057500, symSize: 0xE0 }
  - { offset: 0x76B6F, size: 0x8, addend: 0x0, symName: '__ZN58_$LT$alloc..string..String$u20$as$u20$core..fmt..Debug$GT$3fmt17hc75db25d6de527ebE', symObjAddr: 0x3CEA0, symBinAddr: 0x10002F7C0, symSize: 0x20 }
  - { offset: 0x76C2A, size: 0x8, addend: 0x0, symName: '__ZN58_$LT$alloc..string..String$u20$as$u20$core..fmt..Write$GT$10write_char17hba3be11e36d4a54fE', symObjAddr: 0x3CEC0, symBinAddr: 0x10002F7E0, symSize: 0x120 }
  - { offset: 0x76DB0, size: 0x8, addend: 0x0, symName: '__ZN58_$LT$alloc..string..String$u20$as$u20$core..fmt..Write$GT$9write_str17h0e3a6c0844845614E', symObjAddr: 0x3CFE0, symBinAddr: 0x10002F900, symSize: 0x70 }
  - { offset: 0x76EAA, size: 0x8, addend: 0x0, symName: '__ZN60_$LT$alloc..string..String$u20$as$u20$core..fmt..Display$GT$3fmt17h3ce6768c6f20d89dE', symObjAddr: 0x4EC80, symBinAddr: 0x10003FC30, symSize: 0x20 }
  - { offset: 0x77371, size: 0x8, addend: 0x0, symName: '__ZN5alloc4sync16Arc$LT$T$C$A$GT$9drop_slow17h165e22aa5ecb5c14E', symObjAddr: 0x44F90, symBinAddr: 0x1000361B0, symSize: 0x90 }
  - { offset: 0x7766D, size: 0x8, addend: 0x0, symName: '__ZN5alloc4sync16Arc$LT$T$C$A$GT$9drop_slow17h1b88c69b37654d90E', symObjAddr: 0x45020, symBinAddr: 0x100036240, symSize: 0xA0 }
  - { offset: 0x77876, size: 0x8, addend: 0x0, symName: '__ZN5alloc4sync16Arc$LT$T$C$A$GT$9drop_slow17h38a2709360a70488E', symObjAddr: 0x450C0, symBinAddr: 0x1000362E0, symSize: 0x60 }
  - { offset: 0x77A3E, size: 0x8, addend: 0x0, symName: '__ZN5alloc4sync16Arc$LT$T$C$A$GT$9drop_slow17h4fe547a59c8e5f5cE', symObjAddr: 0x45120, symBinAddr: 0x100036340, symSize: 0x30 }
  - { offset: 0x77B1F, size: 0x8, addend: 0x0, symName: '__ZN5alloc4sync16Arc$LT$T$C$A$GT$9drop_slow17h5dbc3385cf3806bdE', symObjAddr: 0x45150, symBinAddr: 0x100036370, symSize: 0x70 }
  - { offset: 0x77CC5, size: 0x8, addend: 0x0, symName: '__ZN5alloc4sync16Arc$LT$T$C$A$GT$9drop_slow17h6f3c55e925f13c23E', symObjAddr: 0x451C0, symBinAddr: 0x1000363E0, symSize: 0xA0 }
  - { offset: 0x788A5, size: 0x8, addend: 0x0, symName: __ZN6object4read7archive13ArchiveMember5parse17hd3e51da29e5488c1E, symObjAddr: 0x53F80, symBinAddr: 0x100040970, symSize: 0x350 }
  - { offset: 0x78FFC, size: 0x8, addend: 0x0, symName: __ZN6object4read7archive23parse_bsd_extended_name17h1aeb333c92faa5e9E, symObjAddr: 0x542D0, symBinAddr: 0x100040CC0, symSize: 0xB0 }
  - { offset: 0x79410, size: 0x8, addend: 0x0, symName: '__ZN9addr2line4unit16ResUnit$LT$R$GT$25find_function_or_location28_$u7b$$u7b$closure$u7d$$u7d$17h74f8b46b09233272E', symObjAddr: 0x5B2C0, symBinAddr: 0x100042D60, symSize: 0x2F0 }
  - { offset: 0x797B6, size: 0x8, addend: 0x0, symName: '__ZN9addr2line4unit16ResUnit$LT$R$GT$25find_function_or_location17h779b8cc8975ca827E', symObjAddr: 0x5AE20, symBinAddr: 0x1000428C0, symSize: 0x4A0 }
  - { offset: 0x79CE1, size: 0x8, addend: 0x0, symName: '__ZN9addr2line16Context$LT$R$GT$9find_unit17hafe5c4000e4dcc90E', symObjAddr: 0x5A630, symBinAddr: 0x1000420D0, symSize: 0x150 }
  - { offset: 0x79EC6, size: 0x8, addend: 0x0, symName: '__ZN9addr2line6lookup30LoopingLookup$LT$T$C$L$C$F$GT$10new_lookup17hcb3afea57a5db3abE', symObjAddr: 0x5B900, symBinAddr: 0x1000433A0, symSize: 0x530 }
  - { offset: 0x7A3EE, size: 0x8, addend: 0x0, symName: __ZN9addr2line4line11render_file17h1c7a4084725a11a9E, symObjAddr: 0x5A780, symBinAddr: 0x100042220, symSize: 0x6A0 }
  - { offset: 0x7AD84, size: 0x8, addend: 0x0, symName: '__ZN9addr2line8function17Function$LT$R$GT$14parse_children17h1b46ddfba7fb182cE', symObjAddr: 0x5C240, symBinAddr: 0x100043CE0, symSize: 0x1390 }
  - { offset: 0x7C3A0, size: 0x8, addend: 0x0, symName: __ZN9addr2line8function10name_entry17h5deb9017d935ead1E, symObjAddr: 0x5BE30, symBinAddr: 0x1000438D0, symSize: 0x410 }
  - { offset: 0x7C7FC, size: 0x8, addend: 0x0, symName: __ZN9addr2line8function9name_attr17hc5ba8693362fa215E, symObjAddr: 0x5D5D0, symBinAddr: 0x100045070, symSize: 0x1B0 }
  - { offset: 0x7CA21, size: 0x8, addend: 0x0, symName: '__ZN9addr2line5frame18FrameIter$LT$R$GT$4next17h7dae5ed4e94f9885E', symObjAddr: 0x5B5B0, symBinAddr: 0x100043050, symSize: 0x350 }
  - { offset: 0x7D2D4, size: 0x8, addend: 0x0, symName: '__ZN5gimli4read5dwarf14Dwarf$LT$R$GT$11attr_string17hc5d4d70dcc99f435E', symObjAddr: 0x4CCF0, symBinAddr: 0x10003DCA0, symSize: 0x210 }
  - { offset: 0x7DAF1, size: 0x8, addend: 0x0, symName: '__ZN5gimli4read5dwarf13Unit$LT$R$GT$3new17h575ffe3f9752d03fE', symObjAddr: 0x4A4A0, symBinAddr: 0x10003B450, symSize: 0x2850 }
  - { offset: 0x8106C, size: 0x8, addend: 0x0, symName: '__ZN5gimli4read7aranges30ArangeHeader$LT$R$C$Offset$GT$5parse17h9e159263f6fe8401E', symObjAddr: 0x4DA20, symBinAddr: 0x10003E9D0, symSize: 0x2A0 }
  - { offset: 0x81B6F, size: 0x8, addend: 0x0, symName: '__ZN5gimli4read4unit18Attribute$LT$R$GT$5value17h523c462abedaae9bE', symObjAddr: 0x492D0, symBinAddr: 0x10003A280, symSize: 0x7C0 }
  - { offset: 0x81F7A, size: 0x8, addend: 0x0, symName: '__ZN90_$LT$gimli..read..unit..AttributeValue$LT$R$C$Offset$GT$$u20$as$u20$core..clone..Clone$GT$5clone17h098c211905b07158E', symObjAddr: 0x590A0, symBinAddr: 0x1000417E0, symSize: 0x120 }
  - { offset: 0x81FDA, size: 0x8, addend: 0x0, symName: '__ZN5gimli4read4unit32AttributeValue$LT$R$C$Offset$GT$11udata_value17h684c5d824dd1bde2E', symObjAddr: 0x49DC0, symBinAddr: 0x10003AD70, symSize: 0x80 }
  - { offset: 0x82035, size: 0x8, addend: 0x0, symName: __ZN5gimli4read4unit15parse_attribute17h3d2d3a95c0efe23eE, symObjAddr: 0x47250, symBinAddr: 0x100038200, symSize: 0x1960 }
  - { offset: 0x853D0, size: 0x8, addend: 0x0, symName: __ZN5gimli4read4unit15skip_attributes17h92846bd14a53eed5E, symObjAddr: 0x48BB0, symBinAddr: 0x100039B60, symSize: 0x720 }
  - { offset: 0x85D9E, size: 0x8, addend: 0x0, symName: '__ZN5gimli4read4unit22EntriesCursor$LT$R$GT$10next_entry17hd847dc3188d94e5bE', symObjAddr: 0x49A90, symBinAddr: 0x10003AA40, symSize: 0x330 }
  - { offset: 0x862E5, size: 0x8, addend: 0x0, symName: '__ZN5gimli4read4unit33DebugInfoUnitHeadersIter$LT$R$GT$4next17hed0a8460df0391bfE', symObjAddr: 0x49E40, symBinAddr: 0x10003ADF0, symSize: 0x660 }
  - { offset: 0x874C2, size: 0x8, addend: 0x0, symName: __ZN5gimli4read6reader6Reader11read_offset17h5a1a189216526f37E, symObjAddr: 0x4D790, symBinAddr: 0x10003E740, symSize: 0xB0 }
  - { offset: 0x876FF, size: 0x8, addend: 0x0, symName: __ZN5gimli4read6reader6Reader12read_uleb12817hf97552d5eed3df2dE, symObjAddr: 0x4D840, symBinAddr: 0x10003E7F0, symSize: 0xB0 }
  - { offset: 0x877AD, size: 0x8, addend: 0x0, symName: __ZN5gimli4read6reader6Reader17read_sized_offset17h97b79870f9951699E, symObjAddr: 0x4D8F0, symBinAddr: 0x10003E8A0, symSize: 0x130 }
  - { offset: 0x87E7D, size: 0x8, addend: 0x0, symName: '__ZN5gimli4read8rnglists20RngListIter$LT$R$GT$4next17h8b60fae141bf2d6cE', symObjAddr: 0x4DCC0, symBinAddr: 0x10003EC70, symSize: 0xFC0 }
  - { offset: 0x8A545, size: 0x8, addend: 0x0, symName: '__ZN5gimli4read5index18UnitIndex$LT$R$GT$5parse17h95a74f9af645c1edE', symObjAddr: 0x4CF00, symBinAddr: 0x10003DEB0, symSize: 0x890 }
  - { offset: 0x8A562, size: 0x8, addend: 0x0, symName: '__ZN5gimli4read5index18UnitIndex$LT$R$GT$5parse17h95a74f9af645c1edE', symObjAddr: 0x4CF00, symBinAddr: 0x10003DEB0, symSize: 0x890 }
  - { offset: 0x8A576, size: 0x8, addend: 0x0, symName: '__ZN5gimli4read5index18UnitIndex$LT$R$GT$5parse17h95a74f9af645c1edE', symObjAddr: 0x4CF00, symBinAddr: 0x10003DEB0, symSize: 0x890 }
  - { offset: 0x8AC3B, size: 0x8, addend: 0x0, symName: '__ZN5gimli4read4line27FileEntry$LT$R$C$Offset$GT$5parse17hd9bc2270faf33decE', symObjAddr: 0x46FF0, symBinAddr: 0x100037FA0, symSize: 0x260 }
  - { offset: 0x8AE87, size: 0x8, addend: 0x0, symName: __ZN5gimli4read4line13parse_file_v517hd02b9988ac8f9c5bE, symObjAddr: 0x45D10, symBinAddr: 0x100036CC0, symSize: 0x350 }
  - { offset: 0x8B000, size: 0x8, addend: 0x0, symName: __ZN5gimli4read4line15FileEntryFormat5parse17h2a60ff0d29a79605E, symObjAddr: 0x46060, symBinAddr: 0x100037010, symSize: 0x3B0 }
  - { offset: 0x8B79A, size: 0x8, addend: 0x0, symName: __ZN5gimli4read4line15parse_attribute17h7d59469e6c7378d7E, symObjAddr: 0x46410, symBinAddr: 0x1000373C0, symSize: 0xAD0 }
  - { offset: 0x8D19F, size: 0x8, addend: 0x0, symName: __ZN5gimli4read4line18parse_directory_v517hb56c57b85d13b5daE, symObjAddr: 0x46EE0, symBinAddr: 0x100037E90, symSize: 0x110 }
  - { offset: 0x8D453, size: 0x8, addend: 0x0, symName: __RNvCskdKJRKLKjqM_7___rustc18___rust_start_panic, symObjAddr: 0x0, symBinAddr: 0x100045860, symSize: 0xB0 }
  - { offset: 0x8D52E, size: 0x8, addend: 0x0, symName: __ZN12panic_unwind3imp5panic17exception_cleanup17hb98a4cfa7a07ae95E, symObjAddr: 0x100, symBinAddr: 0x100045960, symSize: 0x20 }
  - { offset: 0x8D54A, size: 0x8, addend: 0x0, symName: __RNvCskdKJRKLKjqM_7___rustc18___rust_start_panic, symObjAddr: 0x0, symBinAddr: 0x100045860, symSize: 0xB0 }
  - { offset: 0x8D5D4, size: 0x8, addend: 0x0, symName: __RNvCskdKJRKLKjqM_7___rustc20___rust_panic_cleanup, symObjAddr: 0xB0, symBinAddr: 0x100045910, symSize: 0x50 }
  - { offset: 0x8D677, size: 0x8, addend: 0x0, symName: '__ZN4core3ptr49drop_in_place$LT$panic_unwind..imp..Exception$GT$17h0f7b2fc4f2fea7f1E', symObjAddr: 0x120, symBinAddr: 0x100045980, symSize: 0x70 }
  - { offset: 0x8D77E, size: 0x8, addend: 0x0, symName: '__ZN4core3ptr74drop_in_place$LT$alloc..boxed..Box$LT$panic_unwind..imp..Exception$GT$$GT$17hcd43110ac76b9736E', symObjAddr: 0x190, symBinAddr: 0x1000459F0, symSize: 0x89 }
  - { offset: 0x8DBC8, size: 0x8, addend: 0x0, symName: __ZN6memchr4arch6x86_646memchr10memchr_raw6detect17h2099730146b20b08E, symObjAddr: 0xF90, symBinAddr: 0x100045DA0, symSize: 0x1C0 }
  - { offset: 0x8E17D, size: 0x8, addend: 0x0, symName: __ZN6memchr4arch6x86_646memchr10memchr_raw9find_sse217ha1fdf339af5e94d5E, symObjAddr: 0x1150, symBinAddr: 0x100045F60, symSize: 0x1B0 }
  - { offset: 0x8E708, size: 0x8, addend: 0x0, symName: __ZN6memchr4arch6x86_646memchr11memchr2_raw6detect17h84a70ada683e86a1E, symObjAddr: 0x1300, symBinAddr: 0x100046110, symSize: 0x1A0 }
  - { offset: 0x8ED9B, size: 0x8, addend: 0x0, symName: __ZN6memchr4arch6x86_646memchr11memchr2_raw9find_sse217hc70ae4e2a27bbbefE, symObjAddr: 0x14A0, symBinAddr: 0x1000462B0, symSize: 0x1A0 }
  - { offset: 0x8F5FF, size: 0x8, addend: 0x0, symName: '__ZN69_$LT$core..alloc..layout..LayoutError$u20$as$u20$core..fmt..Debug$GT$3fmt17hb904d59a11340822E', symObjAddr: 0x57F0, symBinAddr: 0x10004DD80, symSize: 0x20 }
  - { offset: 0x8F888, size: 0x8, addend: 0x0, symName: __ZN5alloc5alloc18handle_alloc_error17h3762db9dd870b9a9E, symObjAddr: 0x35BA, symBinAddr: 0x1000576EA, symSize: 0x16 }
  - { offset: 0x8FB25, size: 0x8, addend: 0x0, symName: __ZN5alloc7raw_vec11finish_grow17h3ef34721aec5e3b7E, symObjAddr: 0x52C0, symBinAddr: 0x100057700, symSize: 0x6E }
  - { offset: 0x8FB9A, size: 0x8, addend: 0x0, symName: __ZN5alloc7raw_vec12handle_error17h937a4fa340d4a4b8E, symObjAddr: 0x532E, symBinAddr: 0x10005776E, symSize: 0x22 }
  - { offset: 0x8FBD9, size: 0x8, addend: 0x0, symName: __ZN5alloc7raw_vec17capacity_overflow17hfafd9746150329d6E, symObjAddr: 0x5350, symBinAddr: 0x100057790, symSize: 0x40 }
  - { offset: 0x8FC12, size: 0x8, addend: 0x0, symName: '__ZN5alloc7raw_vec20RawVecInner$LT$A$GT$7reserve21do_reserve_and_handle17h05c0f4d79cdd84bfE', symObjAddr: 0x5430, symBinAddr: 0x1000577D0, symSize: 0xB0 }
  - { offset: 0x8FD9E, size: 0x8, addend: 0x0, symName: '__ZN254_$LT$alloc..boxed..convert..$LT$impl$u20$core..convert..From$LT$alloc..string..String$GT$$u20$for$u20$alloc..boxed..Box$LT$dyn$u20$core..error..Error$u2b$core..marker..Sync$u2b$core..marker..Send$GT$$GT$..from..StringError$u20$as$u20$core..fmt..Debug$GT$3fmt17hcf569323b84bf267E', symObjAddr: 0x140, symBinAddr: 0x10004D920, symSize: 0x20 }
  - { offset: 0x8FE6F, size: 0x8, addend: 0x0, symName: '__ZN256_$LT$alloc..boxed..convert..$LT$impl$u20$core..convert..From$LT$alloc..string..String$GT$$u20$for$u20$alloc..boxed..Box$LT$dyn$u20$core..error..Error$u2b$core..marker..Sync$u2b$core..marker..Send$GT$$GT$..from..StringError$u20$as$u20$core..fmt..Display$GT$3fmt17h1b1a69dfec465030E', symObjAddr: 0x160, symBinAddr: 0x10004D940, symSize: 0x20 }
  - { offset: 0x8FF62, size: 0x8, addend: 0x0, symName: '__ZN100_$LT$alloc..ffi..c_str..CString$u20$as$u20$core..convert..From$LT$$RF$core..ffi..c_str..CStr$GT$$GT$4from17hc090e98bd546633bE', symObjAddr: 0xC0, symBinAddr: 0x10004D8A0, symSize: 0x80 }
  - { offset: 0x900D2, size: 0x8, addend: 0x0, symName: __ZN5alloc3ffi5c_str7CString19_from_vec_unchecked17ha526334e500b1abdE, symObjAddr: 0xC50, symBinAddr: 0x10004D960, symSize: 0x120 }
  - { offset: 0x90422, size: 0x8, addend: 0x0, symName: __ZN5alloc3ffi5c_str7CString8from_raw17h143e54ce9e8a4932E, symObjAddr: 0xE20, symBinAddr: 0x10004DA80, symSize: 0x20 }
  - { offset: 0x9045B, size: 0x8, addend: 0x0, symName: '__ZN72_$LT$$RF$str$u20$as$u20$alloc..ffi..c_str..CString..new..SpecNewImpl$GT$13spec_new_impl17h86c6e2e3ca147532E', symObjAddr: 0x5810, symBinAddr: 0x10004DDA0, symSize: 0x120 }
  - { offset: 0x90871, size: 0x8, addend: 0x0, symName: __ZN5alloc6string6String15from_utf8_lossy17h0471d885b3e9b3ebE, symObjAddr: 0x4790, symBinAddr: 0x10004DB10, symSize: 0x270 }
  - { offset: 0x90F1D, size: 0x8, addend: 0x0, symName: '__ZN98_$LT$alloc..string..String$u20$as$u20$core..convert..From$LT$alloc..borrow..Cow$LT$str$GT$$GT$$GT$4from17h1463175ae5508b78E', symObjAddr: 0x61F0, symBinAddr: 0x10004DEC0, symSize: 0xAB }
  - { offset: 0x9111D, size: 0x8, addend: 0x0, symName: __ZN5alloc4sync32arcinner_layout_for_value_layout17h6aceeaaa01c07cfaE, symObjAddr: 0x2690, symBinAddr: 0x10004DAA0, symSize: 0x70 }
  - { offset: 0x91134, size: 0x8, addend: 0x0, symName: __ZN5alloc4sync32arcinner_layout_for_value_layout17h6aceeaaa01c07cfaE, symObjAddr: 0x2690, symBinAddr: 0x10004DAA0, symSize: 0x70 }
  - { offset: 0x91149, size: 0x8, addend: 0x0, symName: __ZN5alloc4sync32arcinner_layout_for_value_layout17h6aceeaaa01c07cfaE, symObjAddr: 0x2690, symBinAddr: 0x10004DAA0, symSize: 0x70 }
  - { offset: 0x91272, size: 0x8, addend: 0x0, symName: '__ZN71_$LT$core..ops..range..Range$LT$Idx$GT$$u20$as$u20$core..fmt..Debug$GT$3fmt17hc330239f60cc9eb3E', symObjAddr: 0x1F4B0, symBinAddr: 0x100052490, symSize: 0x50 }
  - { offset: 0x914E9, size: 0x8, addend: 0x0, symName: '__ZN4core4char7methods22_$LT$impl$u20$char$GT$16escape_debug_ext17hb449749641e3affeE', symObjAddr: 0x176B0, symBinAddr: 0x1000518A0, symSize: 0x2D0 }
  - { offset: 0x916E1, size: 0x8, addend: 0x0, symName: __ZN4core4char7methods15encode_utf8_raw8do_panic7runtime17hb720cf973e12fcdfE, symObjAddr: 0x17590, symBinAddr: 0x100057900, symSize: 0x90 }
  - { offset: 0x91AF9, size: 0x8, addend: 0x0, symName: __ZN4core6option13expect_failed17h1ec281f12b35982eE, symObjAddr: 0x18040, symBinAddr: 0x100057B70, symSize: 0x60 }
  - { offset: 0x91B41, size: 0x8, addend: 0x0, symName: __ZN4core6option13unwrap_failed17hd0abc7d118070f58E, symObjAddr: 0x180A0, symBinAddr: 0x100057BD0, symSize: 0x20 }
  - { offset: 0x92049, size: 0x8, addend: 0x0, symName: __ZN4core5slice5index16slice_index_fail8do_panic7runtime17h41282b038f05ddfaE, symObjAddr: 0x17D00, symBinAddr: 0x100057A20, symSize: 0x70 }
  - { offset: 0x9207A, size: 0x8, addend: 0x0, symName: __ZN4core5slice5index16slice_index_fail8do_panic7runtime17haaf49c781c78a5c0E, symObjAddr: 0x17D70, symBinAddr: 0x100057A90, symSize: 0x70 }
  - { offset: 0x920AB, size: 0x8, addend: 0x0, symName: __ZN4core5slice5index16slice_index_fail8do_panic7runtime17hae4da62edc07a39fE, symObjAddr: 0x17DE0, symBinAddr: 0x100057B00, symSize: 0x70 }
  - { offset: 0x920DE, size: 0x8, addend: 0x0, symName: __ZN4core5slice5index16slice_index_fail17h1a065c4e1a1e0b41E, symObjAddr: 0x17CC0, symBinAddr: 0x1000579E0, symSize: 0x40 }
  - { offset: 0x9218A, size: 0x8, addend: 0x0, symName: __ZN4core5slice6memchr14memchr_aligned17hbe324882bd8e8f20E, symObjAddr: 0x17E50, symBinAddr: 0x100051BD0, symSize: 0xE0 }
  - { offset: 0x92284, size: 0x8, addend: 0x0, symName: __ZN4core5slice6memchr7memrchr17h3060eb51c807ecd7E, symObjAddr: 0x17F30, symBinAddr: 0x100051CB0, symSize: 0x110 }
  - { offset: 0x92474, size: 0x8, addend: 0x0, symName: __ZN4core5slice4sort6shared9smallsort22panic_on_ord_violation17hd9a4c3c4a8ebe09aE, symObjAddr: 0x17BA0, symBinAddr: 0x100057990, symSize: 0x50 }
  - { offset: 0x924B1, size: 0x8, addend: 0x0, symName: __ZN4core5slice4sort6stable5drift11sqrt_approx17h5b54c8126d8482dbE, symObjAddr: 0x17BF0, symBinAddr: 0x100051BA0, symSize: 0x30 }
  - { offset: 0x925A6, size: 0x8, addend: 0x0, symName: __ZN4core3fmt9Formatter10debug_list17h9d2456a350d67ad8E, symObjAddr: 0xA1C0, symBinAddr: 0x10004F840, symSize: 0x40 }
  - { offset: 0x925E6, size: 0x8, addend: 0x0, symName: __ZN4core3fmt9Formatter11debug_tuple17hdcc53271f394ac41E, symObjAddr: 0xA200, symBinAddr: 0x10004F880, symSize: 0x50 }
  - { offset: 0x9263B, size: 0x8, addend: 0x0, symName: __ZN4core3fmt9Formatter12debug_struct17h8c9b9889fabaa42eE, symObjAddr: 0xA250, symBinAddr: 0x10004F8D0, symSize: 0x40 }
  - { offset: 0x926A4, size: 0x8, addend: 0x0, symName: __ZN4core3fmt9Formatter12pad_integral17h5b6fb6906b7fe010E, symObjAddr: 0xA2F0, symBinAddr: 0x10004F970, symSize: 0x4A0 }
  - { offset: 0x92933, size: 0x8, addend: 0x0, symName: __ZN4core3fmt9Formatter25debug_tuple_field1_finish17hc108d765633dc1f9E, symObjAddr: 0xACB0, symBinAddr: 0x10004FE10, symSize: 0x140 }
  - { offset: 0x92B3B, size: 0x8, addend: 0x0, symName: __ZN4core3fmt9Formatter25debug_tuple_field2_finish17h3020954311064adeE, symObjAddr: 0xADF0, symBinAddr: 0x10004FF50, symSize: 0x1A0 }
  - { offset: 0x92E33, size: 0x8, addend: 0x0, symName: __ZN4core3fmt9Formatter26debug_struct_field1_finish17h161bc6caec1550cdE, symObjAddr: 0xBA70, symBinAddr: 0x1000500F0, symSize: 0xB0 }
  - { offset: 0x92F0A, size: 0x8, addend: 0x0, symName: __ZN4core3fmt9Formatter26debug_struct_field2_finish17h9392189e9ab00f59E, symObjAddr: 0xBB20, symBinAddr: 0x1000501A0, symSize: 0xD0 }
  - { offset: 0x92FE1, size: 0x8, addend: 0x0, symName: __ZN4core3fmt9Formatter3pad17h37b5dfd85e2b0428E, symObjAddr: 0xC000, symBinAddr: 0x100050270, symSize: 0x3D0 }
  - { offset: 0x93253, size: 0x8, addend: 0x0, symName: __ZN4core3fmt9Formatter9write_str17h532155584af4b419E, symObjAddr: 0xC460, symBinAddr: 0x100050640, symSize: 0x20 }
  - { offset: 0x932C3, size: 0x8, addend: 0x0, symName: __ZN4core3fmt8builders11DebugStruct5field17h99bfe0cd343e038aE, symObjAddr: 0x97F0, symBinAddr: 0x10004F4F0, symSize: 0x190 }
  - { offset: 0x934D7, size: 0x8, addend: 0x0, symName: __ZN4core3fmt8builders11DebugStruct6finish17h759eca09f088587cE, symObjAddr: 0x9980, symBinAddr: 0x10004F680, symSize: 0x60 }
  - { offset: 0x935FF, size: 0x8, addend: 0x0, symName: __ZN4core3fmt8builders10DebugTuple5field17hcff3261d35d211e6E, symObjAddr: 0x9550, symBinAddr: 0x10004F330, symSize: 0x130 }
  - { offset: 0x9376D, size: 0x8, addend: 0x0, symName: __ZN4core3fmt8builders10DebugTuple6finish17hee865a46ed84494bE, symObjAddr: 0x9680, symBinAddr: 0x10004F460, symSize: 0x90 }
  - { offset: 0x938A8, size: 0x8, addend: 0x0, symName: __ZN4core3fmt8builders8DebugSet5entry17h9ad4bd41e6760f90E, symObjAddr: 0x9F60, symBinAddr: 0x10004F6E0, symSize: 0x120 }
  - { offset: 0x93A89, size: 0x8, addend: 0x0, symName: __ZN4core3fmt8builders9DebugList6finish17he5544af857123449E, symObjAddr: 0xA180, symBinAddr: 0x10004F800, symSize: 0x40 }
  - { offset: 0x93B06, size: 0x8, addend: 0x0, symName: '__ZN68_$LT$core..fmt..builders..PadAdapter$u20$as$u20$core..fmt..Write$GT$10write_char17h8781eb8fef702588E', symObjAddr: 0x1E270, symBinAddr: 0x1000521B0, symSize: 0x60 }
  - { offset: 0x93B2F, size: 0x8, addend: 0x0, symName: '__ZN68_$LT$core..fmt..builders..PadAdapter$u20$as$u20$core..fmt..Write$GT$9write_str17h3ac9bf90fc6b2989E', symObjAddr: 0x1E2D0, symBinAddr: 0x100052210, symSize: 0x280 }
  - { offset: 0x93D91, size: 0x8, addend: 0x0, symName: '__ZN57_$LT$core..fmt..Formatter$u20$as$u20$core..fmt..Write$GT$10write_char17h4978b0c667a9d8b0E', symObjAddr: 0x1A5E0, symBinAddr: 0x100052150, symSize: 0x20 }
  - { offset: 0x93DCD, size: 0x8, addend: 0x0, symName: '__ZN40_$LT$str$u20$as$u20$core..fmt..Debug$GT$3fmt17h3cbb4b7bcf7be3d7E', symObjAddr: 0x240, symBinAddr: 0x10004DF70, symSize: 0x3A0 }
  - { offset: 0x94230, size: 0x8, addend: 0x0, symName: '__ZN41_$LT$char$u20$as$u20$core..fmt..Debug$GT$3fmt17h4e11ed1b5452e387E', symObjAddr: 0x5E0, symBinAddr: 0x10004E310, symSize: 0xA0 }
  - { offset: 0x94359, size: 0x8, addend: 0x0, symName: '__ZN42_$LT$$RF$T$u20$as$u20$core..fmt..Debug$GT$3fmt17h0f40b67a922b1ec5E', symObjAddr: 0x680, symBinAddr: 0x10004E3B0, symSize: 0x10 }
  - { offset: 0x94374, size: 0x8, addend: 0x0, symName: '__ZN42_$LT$$RF$T$u20$as$u20$core..fmt..Debug$GT$3fmt17h7680cd2a2d1e04fdE', symObjAddr: 0x6B0, symBinAddr: 0x10004E3C0, symSize: 0x20 }
  - { offset: 0x94396, size: 0x8, addend: 0x0, symName: '__ZN42_$LT$$RF$T$u20$as$u20$core..fmt..Debug$GT$3fmt17he2aa20ce460ddad7E', symObjAddr: 0x860, symBinAddr: 0x10004E3E0, symSize: 0x10 }
  - { offset: 0x943BE, size: 0x8, addend: 0x0, symName: '__ZN42_$LT$str$u20$as$u20$core..fmt..Display$GT$3fmt17h83ec9ba80990d67aE', symObjAddr: 0x870, symBinAddr: 0x10004E3F0, symSize: 0x20 }
  - { offset: 0x943E6, size: 0x8, addend: 0x0, symName: '__ZN43_$LT$char$u20$as$u20$core..fmt..Display$GT$3fmt17ha887c9494bff9603E', symObjAddr: 0x8D0, symBinAddr: 0x10004E410, symSize: 0xC0 }
  - { offset: 0x94455, size: 0x8, addend: 0x0, symName: '__ZN44_$LT$$RF$T$u20$as$u20$core..fmt..Display$GT$3fmt17h1fb02a4f1d7d14b9E', symObjAddr: 0x990, symBinAddr: 0x10004E4D0, symSize: 0x20 }
  - { offset: 0x94529, size: 0x8, addend: 0x0, symName: '__ZN4core3fmt3num3imp51_$LT$impl$u20$core..fmt..Display$u20$for$u20$u8$GT$3fmt17h1a13e7c6295dbb75E', symObjAddr: 0x2630, symBinAddr: 0x10004E6B0, symSize: 0xA0 }
  - { offset: 0x9460E, size: 0x8, addend: 0x0, symName: '__ZN4core3fmt3num3imp52_$LT$impl$u20$core..fmt..Display$u20$for$u20$i32$GT$3fmt17h4add2573f547cd42E', symObjAddr: 0x27D0, symBinAddr: 0x10004E750, symSize: 0x120 }
  - { offset: 0x9472E, size: 0x8, addend: 0x0, symName: '__ZN4core3fmt3num3imp52_$LT$impl$u20$core..fmt..Display$u20$for$u20$u32$GT$3fmt17haa57ce01fac3917eE', symObjAddr: 0x2B00, symBinAddr: 0x10004E870, symSize: 0x110 }
  - { offset: 0x9483B, size: 0x8, addend: 0x0, symName: '__ZN4core3fmt3num3imp52_$LT$impl$u20$core..fmt..Display$u20$for$u20$u64$GT$3fmt17h8b8600c70b3a3ac8E', symObjAddr: 0x2C10, symBinAddr: 0x10004E980, symSize: 0x110 }
  - { offset: 0x94976, size: 0x8, addend: 0x0, symName: '__ZN4core3fmt3num52_$LT$impl$u20$core..fmt..LowerHex$u20$for$u20$u8$GT$3fmt17h39a52b6e10cf70aeE', symObjAddr: 0x4AE0, symBinAddr: 0x10004EDE0, symSize: 0x70 }
  - { offset: 0x94A07, size: 0x8, addend: 0x0, symName: '__ZN4core3fmt3num52_$LT$impl$u20$core..fmt..UpperHex$u20$for$u20$u8$GT$3fmt17h865b83e01c77f87fE', symObjAddr: 0x4BC0, symBinAddr: 0x10004EE50, symSize: 0x70 }
  - { offset: 0x94AAB, size: 0x8, addend: 0x0, symName: '__ZN4core3fmt3num53_$LT$impl$u20$core..fmt..UpperHex$u20$for$u20$u32$GT$3fmt17he24323287b2084c2E', symObjAddr: 0x5170, symBinAddr: 0x10004F010, symSize: 0x70 }
  - { offset: 0x94B3C, size: 0x8, addend: 0x0, symName: '__ZN4core3fmt3num53_$LT$impl$u20$core..fmt..LowerHex$u20$for$u20$u64$GT$3fmt17h3112ef8c0abad7d1E', symObjAddr: 0x4F40, symBinAddr: 0x10004EF30, symSize: 0x70 }
  - { offset: 0x94BCD, size: 0x8, addend: 0x0, symName: '__ZN4core3fmt3num53_$LT$impl$u20$core..fmt..UpperHex$u20$for$u20$u64$GT$3fmt17hf363a6f2e4cad34eE', symObjAddr: 0x51E0, symBinAddr: 0x10004F080, symSize: 0x70 }
  - { offset: 0x94C51, size: 0x8, addend: 0x0, symName: '__ZN4core3fmt3num50_$LT$impl$u20$core..fmt..Debug$u20$for$u20$u64$GT$3fmt17h376bce9b57b8a762E', symObjAddr: 0x3E60, symBinAddr: 0x10004EA90, symSize: 0x1A0 }
  - { offset: 0x94DE5, size: 0x8, addend: 0x0, symName: '__ZN4core3fmt3num52_$LT$impl$u20$core..fmt..Debug$u20$for$u20$usize$GT$3fmt17h4806199c82f902ceE', symObjAddr: 0x48C0, symBinAddr: 0x10004EC30, symSize: 0x1B0 }
  - { offset: 0x94F66, size: 0x8, addend: 0x0, symName: '__ZN4core3fmt3num53_$LT$impl$u20$core..fmt..LowerHex$u20$for$u20$i32$GT$3fmt17hfee837de970427b1E', symObjAddr: 0x4D80, symBinAddr: 0x10004EEC0, symSize: 0x70 }
  - { offset: 0x9500C, size: 0x8, addend: 0x0, symName: '__ZN4core3fmt3num53_$LT$impl$u20$core..fmt..UpperHex$u20$for$u20$i32$GT$3fmt17h26acf60f65152f77E', symObjAddr: 0x5020, symBinAddr: 0x10004EFA0, symSize: 0x70 }
  - { offset: 0x95213, size: 0x8, addend: 0x0, symName: __ZN4core3fmt17pointer_fmt_inner17h97023b135e02a0e7E, symObjAddr: 0x1240, symBinAddr: 0x10004E610, symSize: 0xA0 }
  - { offset: 0x95304, size: 0x8, addend: 0x0, symName: __ZN4core3fmt5Write9write_fmt17h852655db2bea3a71E, symObjAddr: 0x6270, symBinAddr: 0x10004F0F0, symSize: 0x20 }
  - { offset: 0x95383, size: 0x8, addend: 0x0, symName: __ZN4core3fmt5write17h32d512c5550f2c71E, symObjAddr: 0x9280, symBinAddr: 0x10004F110, symSize: 0x220 }
  - { offset: 0x95531, size: 0x8, addend: 0x0, symName: __ZN4core3fmt9Formatter12pad_integral12write_prefix17he3bb54c358307d3fE, symObjAddr: 0xA290, symBinAddr: 0x10004F910, symSize: 0x60 }
  - { offset: 0x95599, size: 0x8, addend: 0x0, symName: '__ZN59_$LT$core..fmt..Arguments$u20$as$u20$core..fmt..Display$GT$3fmt17hfd1b80e04662b19aE', symObjAddr: 0x1B480, symBinAddr: 0x100052170, symSize: 0x20 }
  - { offset: 0x956BC, size: 0x8, addend: 0x0, symName: __ZN4core6result13unwrap_failed17h5b5681f5bd639151E, symObjAddr: 0x180C0, symBinAddr: 0x100057BF0, symSize: 0x80 }
  - { offset: 0x958DE, size: 0x8, addend: 0x0, symName: __ZN4core3str5count14do_count_chars17hc493e781e0338f55E, symObjAddr: 0x16370, symBinAddr: 0x100050A00, symSize: 0x5A0 }
  - { offset: 0x95D26, size: 0x8, addend: 0x0, symName: __ZN4core3str5count23char_count_general_case17h45b75eff409d0732E, symObjAddr: 0x16910, symBinAddr: 0x100050FA0, symSize: 0xB0 }
  - { offset: 0x95D7A, size: 0x8, addend: 0x0, symName: __ZN4core3str5count23char_count_general_case17h45b75eff409d0732E, symObjAddr: 0x16910, symBinAddr: 0x100050FA0, symSize: 0xB0 }
  - { offset: 0x95DF7, size: 0x8, addend: 0x0, symName: __ZN4core3str16slice_error_fail17h7ebf3d4aa8bf503fE, symObjAddr: 0x15DF0, symBinAddr: 0x100057880, symSize: 0x10 }
  - { offset: 0x95E11, size: 0x8, addend: 0x0, symName: __ZN4core3str19slice_error_fail_rt17hfa55243860877ddbE, symObjAddr: 0x15E40, symBinAddr: 0x100050660, symSize: 0x3A0 }
  - { offset: 0x95FF8, size: 0x8, addend: 0x0, symName: __ZN4core3str7pattern11StrSearcher3new17hfab9aab88f91478aE, symObjAddr: 0x16A00, symBinAddr: 0x100051050, symSize: 0x640 }
  - { offset: 0x962B8, size: 0x8, addend: 0x0, symName: __ZN4core3str8converts9from_utf817hab685de2f5c40023E, symObjAddr: 0x17250, symBinAddr: 0x100051690, symSize: 0x210 }
  - { offset: 0x96326, size: 0x8, addend: 0x0, symName: '__ZN87_$LT$core..str..lossy..Utf8Chunks$u20$as$u20$core..iter..traits..iterator..Iterator$GT$4next17hc6bf0146e235ca7cE', symObjAddr: 0x217F0, symBinAddr: 0x1000524E0, symSize: 0x1A0 }
  - { offset: 0x9653A, size: 0x8, addend: 0x0, symName: __ZN4core3ffi5c_str4CStr19from_bytes_with_nul17h663354f457718412E, symObjAddr: 0xFF0, symBinAddr: 0x10004E4F0, symSize: 0x120 }
  - { offset: 0x96650, size: 0x8, addend: 0x0, symName: __ZN4core4cell22panic_already_borrowed8do_panic7runtime17hb02334c284ba6668E, symObjAddr: 0x17470, symBinAddr: 0x1000578A0, symSize: 0x60 }
  - { offset: 0x96683, size: 0x8, addend: 0x0, symName: __ZN4core4cell22panic_already_borrowed17h380a7ae12b05c21bE, symObjAddr: 0x17460, symBinAddr: 0x100057890, symSize: 0x10 }
  - { offset: 0x966B8, size: 0x8, addend: 0x0, symName: '__ZN65_$LT$core..cell..BorrowMutError$u20$as$u20$core..fmt..Display$GT$3fmt17hbdc0278247eb0cacE', symObjAddr: 0x1C610, symBinAddr: 0x100052190, symSize: 0x20 }
  - { offset: 0x96708, size: 0x8, addend: 0x0, symName: __ZN4core7unicode12unicode_data15grapheme_extend11lookup_slow17hdcf8fe3bcaa288d6E, symObjAddr: 0x185E0, symBinAddr: 0x100051DC0, symSize: 0x100 }
  - { offset: 0x96923, size: 0x8, addend: 0x0, symName: __ZN4core7unicode9printable12is_printable17hc67588a861ee36a9E, symObjAddr: 0x18AB0, symBinAddr: 0x100051EC0, symSize: 0x290 }
  - { offset: 0x96C54, size: 0x8, addend: 0x0, symName: __ZN4core5alloc6layout6Layout19is_size_align_valid17h9b309ba4c67ddf6eE, symObjAddr: 0x17A30, symBinAddr: 0x100051B70, symSize: 0x30 }
  - { offset: 0x96C9E, size: 0x8, addend: 0x0, symName: __ZN4core9panicking11panic_const23panic_const_div_by_zero17h1817bf4a5c63dcf1E, symObjAddr: 0x18D40, symBinAddr: 0x100057C70, symSize: 0x40 }
  - { offset: 0x96CCD, size: 0x8, addend: 0x0, symName: __ZN4core9panicking11panic_const23panic_const_rem_by_zero17h66d921d73263a198E, symObjAddr: 0x18DC0, symBinAddr: 0x100057CB0, symSize: 0x40 }
  - { offset: 0x96CFD, size: 0x8, addend: 0x0, symName: __ZN4core9panicking13assert_failed17haff998095acd4f8eE, symObjAddr: 0x192EE, symBinAddr: 0x100057CFE, symSize: 0x2F }
  - { offset: 0x96D18, size: 0x8, addend: 0x0, symName: __ZN4core9panicking13assert_failed17hf790c8989ead8b5cE, symObjAddr: 0x1931D, symBinAddr: 0x100057D2D, symSize: 0x33 }
  - { offset: 0x96D33, size: 0x8, addend: 0x0, symName: __ZN4core9panicking14panic_nounwind17h4e71c9dba73fe19eE, symObjAddr: 0x19350, symBinAddr: 0x100057D60, symSize: 0x50 }
  - { offset: 0x96D62, size: 0x8, addend: 0x0, symName: __ZN4core9panicking16panic_in_cleanup17h278dcedb7b834eecE, symObjAddr: 0x19418, symBinAddr: 0x100057DB8, symSize: 0x13 }
  - { offset: 0x96D7D, size: 0x8, addend: 0x0, symName: __ZN4core9panicking18panic_bounds_check17hd6c879668b498650E, symObjAddr: 0x1942B, symBinAddr: 0x100057DCB, symSize: 0x65 }
  - { offset: 0x96DBC, size: 0x8, addend: 0x0, symName: __ZN4core9panicking18panic_nounwind_fmt17h13cf4419fe26bc7eE, symObjAddr: 0x19490, symBinAddr: 0x100057E30, symSize: 0x5B }
  - { offset: 0x96E01, size: 0x8, addend: 0x0, symName: __ZN4core9panicking19assert_failed_inner17h4305f0dee9388e3cE, symObjAddr: 0x194EB, symBinAddr: 0x100057E8B, symSize: 0x127 }
  - { offset: 0x96E3B, size: 0x8, addend: 0x0, symName: __ZN4core9panicking19panic_cannot_unwind17ha66eab6f79487262E, symObjAddr: 0x19612, symBinAddr: 0x100057FB2, symSize: 0x1E }
  - { offset: 0x96E56, size: 0x8, addend: 0x0, symName: __ZN4core9panicking26panic_nounwind_nobacktrace17hb4fbf937932f35e4E, symObjAddr: 0x19630, symBinAddr: 0x100057FD0, symSize: 0x4D }
  - { offset: 0x96E85, size: 0x8, addend: 0x0, symName: __ZN4core9panicking5panic17hea69a7d4c28c810cE, symObjAddr: 0x19780, symBinAddr: 0x100058020, symSize: 0x50 }
  - { offset: 0x96EB4, size: 0x8, addend: 0x0, symName: __ZN4core9panicking9panic_fmt17h46fb0d6076d2bd77E, symObjAddr: 0x197D0, symBinAddr: 0x100058070, symSize: 0x20 }
...
