---
triple:          'x86_64-apple-darwin'
binary-path:     '/Users/kema/git/rust-serv/target/debug/deps/libfutures_macro-a622bbe2aa1d6032.dylib'
relocations:
  - { offset: 0x1E, size: 0x8, addend: 0x0, symName: __RINvMNtCsdGrGZaRBwMb_3syn5errorNtB3_5Error11new_spannedNtCsaKzlTDPUHDb_11proc_macro211TokenStreamReECsgKOh19surD7_13futures_macro, symObjAddr: 0x0, symBinAddr: 0xBD0, symSize: 0xB0 }
  - { offset: 0xE7, size: 0x8, addend: 0x0, symName: __RINvNtNtNtCscKtU6MdFI5n_10proc_macro6bridge6client5state3setINtNtCsieiGu2EXtoJ_4core6option6OptionNtB4_11TokenStreamENCNCINvB4_10run_clientB1y_BW_NCNCINvMs6_B4_INtB4_6ClientNtB8_11TokenStreamB2L_E7expand1NvCsgKOh19surD7_13futures_macro13join_internalE00E00EB3i_, symObjAddr: 0x670, symBinAddr: 0x1240, symSize: 0xC0 }
  - { offset: 0x1BD, size: 0x8, addend: 0x0, symName: __RINvNtNtNtCscKtU6MdFI5n_10proc_macro6bridge6client5state3setINtNtCsieiGu2EXtoJ_4core6option6OptionNtB4_11TokenStreamENCNCINvB4_10run_clientB1y_BW_NCNCINvMs6_B4_INtB4_6ClientNtB8_11TokenStreamB2L_E7expand1NvCsgKOh19surD7_13futures_macro15select_internalE00E00EB3i_, symObjAddr: 0x730, symBinAddr: 0x1300, symSize: 0xC0 }
  - { offset: 0x293, size: 0x8, addend: 0x0, symName: __RINvNtNtNtCscKtU6MdFI5n_10proc_macro6bridge6client5state3setINtNtCsieiGu2EXtoJ_4core6option6OptionNtB4_11TokenStreamENCNCINvB4_10run_clientB1y_BW_NCNCINvMs6_B4_INtB4_6ClientNtB8_11TokenStreamB2L_E7expand1NvCsgKOh19surD7_13futures_macro17try_join_internalE00E00EB3i_, symObjAddr: 0x7F0, symBinAddr: 0x13C0, symSize: 0xC0 }
  - { offset: 0x369, size: 0x8, addend: 0x0, symName: __RINvNtNtNtCscKtU6MdFI5n_10proc_macro6bridge6client5state3setINtNtCsieiGu2EXtoJ_4core6option6OptionNtB4_11TokenStreamENCNCINvB4_10run_clientB1y_BW_NCNCINvMs6_B4_INtB4_6ClientNtB8_11TokenStreamB2L_E7expand1NvCsgKOh19surD7_13futures_macro22select_biased_internalE00E00EB3i_, symObjAddr: 0x8B0, symBinAddr: 0x1480, symSize: 0xC0 }
  - { offset: 0x43F, size: 0x8, addend: 0x0, symName: __RINvNtNtNtCscKtU6MdFI5n_10proc_macro6bridge6client5state3setINtNtCsieiGu2EXtoJ_4core6option6OptionNtB4_11TokenStreamENCNCINvB4_10run_clientB1y_BW_NCNCINvMs6_B4_INtB4_6ClientNtB8_11TokenStreamB2L_E7expand1NvCsgKOh19surD7_13futures_macro22stream_select_internalE00E00EB3i_, symObjAddr: 0x970, symBinAddr: 0x1540, symSize: 0xC0 }
  - { offset: 0x515, size: 0x8, addend: 0x0, symName: __RINvNtNtNtCscKtU6MdFI5n_10proc_macro6bridge6client5state3setINtNtCsieiGu2EXtoJ_4core6option6OptionNtB4_11TokenStreamENCNCINvB4_10run_clientTB1y_B1y_EBW_NCNCINvMs7_B4_INtB4_6ClientTNtB8_11TokenStreamB2S_EB2S_E7expand2NvCsgKOh19surD7_13futures_macro13test_internalE00E00EB3u_, symObjAddr: 0xA30, symBinAddr: 0x1600, symSize: 0xD0 }
  - { offset: 0x5F6, size: 0x8, addend: 0x0, symName: __RNCNkNvNtNtNtCscKtU6MdFI5n_10proc_macro6bridge6client5state12BRIDGE_STATE0s_0CsgKOh19surD7_13futures_macro, symObjAddr: 0xC50, symBinAddr: 0x1820, symSize: 0x20 }
  - { offset: 0xB5C, size: 0x8, addend: 0x0, symName: __RNvXsR_NtCscKtU6MdFI5n_10proc_macro6bridgeINtNtCsieiGu2EXtoJ_4core6option6OptionNtNtB5_6client11TokenStreamEINtNtB5_3rpc6EncodeuE6encodeCsgKOh19surD7_13futures_macro, symObjAddr: 0x7A70, symBinAddr: 0x8640, symSize: 0xB0 }
  - { offset: 0xC02, size: 0x8, addend: 0x0, symName: __RNvXsR_NtCscKtU6MdFI5n_10proc_macro6bridgeINtNtCsieiGu2EXtoJ_4core6option6OptionReEINtNtB5_3rpc6EncodeuE6encodeCsgKOh19surD7_13futures_macro, symObjAddr: 0x7B20, symBinAddr: 0x86F0, symSize: 0xC0 }
  - { offset: 0x4B2D, size: 0x8, addend: 0x0, symName: __RNvXsP_NtCsieiGu2EXtoJ_4core6optionINtB5_8IntoIterRNtNtCsdGrGZaRBwMb_3syn4expr4ExprENtNtB7_5clone5Clone5cloneCsgKOh19surD7_13futures_macro, symObjAddr: 0x7A10, symBinAddr: 0x85E0, symSize: 0x60 }
  - { offset: 0x4C20, size: 0x8, addend: 0x0, symName: __RNvXsw_NtCsieiGu2EXtoJ_4core6optionINtB5_8IntoIterRNtNtCsdGrGZaRBwMb_3syn4expr4ExprENtNtNtNtB7_4iter6traits8iterator8Iterator9size_hintCsgKOh19surD7_13futures_macro, symObjAddr: 0x7CA0, symBinAddr: 0x8870, symSize: 0x30 }
  - { offset: 0x50AA, size: 0x8, addend: 0x0, symName: __RNvXs2E_NtNtCsieiGu2EXtoJ_4core5slice4iterINtB6_4IterNtCsaKzlTDPUHDb_11proc_macro211TokenStreamENtNtNtNtBa_4iter6traits8iterator8Iterator4nextCsgKOh19surD7_13futures_macro, symObjAddr: 0x71D0, symBinAddr: 0x7DA0, symSize: 0x90 }
  - { offset: 0x51CB, size: 0x8, addend: 0x0, symName: __RNvXs2E_NtNtCsieiGu2EXtoJ_4core5slice4iterINtB6_4IterNtCsaKzlTDPUHDb_11proc_macro25IdentENtNtNtNtBa_4iter6traits8iterator8Iterator24___iterator_get_uncheckedCsgKOh19surD7_13futures_macro, symObjAddr: 0x7260, symBinAddr: 0x7E30, symSize: 0x20 }
  - { offset: 0x5226, size: 0x8, addend: 0x0, symName: __RNvXs2E_NtNtCsieiGu2EXtoJ_4core5slice4iterINtB6_4IterNtCsaKzlTDPUHDb_11proc_macro25IdentENtNtNtNtBa_4iter6traits8iterator8Iterator4nextCsgKOh19surD7_13futures_macro, symObjAddr: 0x7280, symBinAddr: 0x7E50, symSize: 0x90 }
  - { offset: 0x5347, size: 0x8, addend: 0x0, symName: __RNvXs2E_NtNtCsieiGu2EXtoJ_4core5slice4iterINtB6_4IterNtCsaKzlTDPUHDb_11proc_macro25IdentENtNtNtNtBa_4iter6traits8iterator8Iterator9size_hintCsgKOh19surD7_13futures_macro, symObjAddr: 0x7310, symBinAddr: 0x7EE0, symSize: 0x60 }
  - { offset: 0x53B6, size: 0x8, addend: 0x0, symName: __RNvXs2E_NtNtCsieiGu2EXtoJ_4core5slice4iterINtB6_4IterNtNtCsdGrGZaRBwMb_3syn4expr5IndexENtNtNtNtBa_4iter6traits8iterator8Iterator4nextCsgKOh19surD7_13futures_macro, symObjAddr: 0x7370, symBinAddr: 0x7F40, symSize: 0x90 }
  - { offset: 0x54D7, size: 0x8, addend: 0x0, symName: __RNvXs2E_NtNtCsieiGu2EXtoJ_4core5slice4iterINtB6_4IterNtNtCsdGrGZaRBwMb_3syn4expr8ExprPathENtNtNtNtBa_4iter6traits8iterator8Iterator24___iterator_get_uncheckedCsgKOh19surD7_13futures_macro, symObjAddr: 0x7400, symBinAddr: 0x7FD0, symSize: 0x20 }
  - { offset: 0x5532, size: 0x8, addend: 0x0, symName: __RNvXs2E_NtNtCsieiGu2EXtoJ_4core5slice4iterINtB6_4IterNtNtCsdGrGZaRBwMb_3syn4expr8ExprPathENtNtNtNtBa_4iter6traits8iterator8Iterator9size_hintCsgKOh19surD7_13futures_macro, symObjAddr: 0x7420, symBinAddr: 0x7FF0, symSize: 0x60 }
  - { offset: 0x55A7, size: 0x8, addend: 0x0, symName: __RNvXs2F_NtNtCsieiGu2EXtoJ_4core5slice4iterINtB6_4IterTNtNtCsdGrGZaRBwMb_3syn4expr4ExprNtNtBU_5token5CommaEENtNtNtNtBa_4iter6traits12double_ended19DoubleEndedIterator9next_backCsgKOh19surD7_13futures_macro, symObjAddr: 0x7480, symBinAddr: 0x8050, symSize: 0x100 }
  - { offset: 0x56FC, size: 0x8, addend: 0x0, symName: __RNvXs5_NtNtCsieiGu2EXtoJ_4core5slice4iterINtB5_4IterTNtNtCsdGrGZaRBwMb_3syn4expr4ExprNtNtBT_5token5CommaEENtNtB9_5clone5Clone5cloneCsgKOh19surD7_13futures_macro, symObjAddr: 0x75F0, symBinAddr: 0x81C0, symSize: 0x20 }
  - { offset: 0x5738, size: 0x8, addend: 0x0, symName: __RNvMNtCsieiGu2EXtoJ_4core5sliceSNtNtCsdGrGZaRBwMb_3syn4expr5Index4iterCsgKOh19surD7_13futures_macro, symObjAddr: 0x2400, symBinAddr: 0x2FD0, symSize: 0x20 }
  - { offset: 0x576F, size: 0x8, addend: 0x0, symName: __RNvMNtCsieiGu2EXtoJ_4core5sliceSNtNtCsdGrGZaRBwMb_3syn4expr8ExprPath4iterCsgKOh19surD7_13futures_macro, symObjAddr: 0x2420, symBinAddr: 0x2FF0, symSize: 0x20 }
  - { offset: 0x5B2B, size: 0x8, addend: 0x0, symName: __RINvYINtNtNtCsieiGu2EXtoJ_4core5slice4iter4IterNtCsaKzlTDPUHDb_11proc_macro25IdentENtNtNtNtBa_4iter6traits8iterator8Iterator3mapNtBL_11TokenStreamNCNvNtCsgKOh19surD7_13futures_macro4join4join0EB2q_, symObjAddr: 0xB00, symBinAddr: 0x16D0, symSize: 0x20 }
  - { offset: 0x5B83, size: 0x8, addend: 0x0, symName: __RINvYINtNtNtCsieiGu2EXtoJ_4core5slice4iter4IterNtCsaKzlTDPUHDb_11proc_macro25IdentENtNtNtNtBa_4iter6traits8iterator8Iterator3mapNtBL_11TokenStreamNCNvNtCsgKOh19surD7_13futures_macro4join4joins_0EB2q_, symObjAddr: 0xB20, symBinAddr: 0x16F0, symSize: 0x20 }
  - { offset: 0x5BDB, size: 0x8, addend: 0x0, symName: __RINvYINtNtNtCsieiGu2EXtoJ_4core5slice4iter4IterNtCsaKzlTDPUHDb_11proc_macro25IdentENtNtNtNtBa_4iter6traits8iterator8Iterator3mapNtBL_11TokenStreamNCNvNtCsgKOh19surD7_13futures_macro4join8try_join0EB2q_, symObjAddr: 0xB40, symBinAddr: 0x1710, symSize: 0x20 }
  - { offset: 0x5C33, size: 0x8, addend: 0x0, symName: __RINvYINtNtNtCsieiGu2EXtoJ_4core5slice4iter4IterNtCsaKzlTDPUHDb_11proc_macro25IdentENtNtNtNtBa_4iter6traits8iterator8Iterator3mapNtBL_11TokenStreamNCNvNtCsgKOh19surD7_13futures_macro4join8try_joins_0EB2q_, symObjAddr: 0xB60, symBinAddr: 0x1730, symSize: 0x20 }
  - { offset: 0x5C8B, size: 0x8, addend: 0x0, symName: __RINvYINtNtNtCsieiGu2EXtoJ_4core5slice4iter4IterNtNtCsdGrGZaRBwMb_3syn4expr8ExprPathENtNtNtNtBa_4iter6traits8iterator8Iterator3zipIB4_NtCsaKzlTDPUHDb_11proc_macro25IdentEECsgKOh19surD7_13futures_macro, symObjAddr: 0xB80, symBinAddr: 0x1750, symSize: 0xD0 }
  - { offset: 0x5D0D, size: 0x8, addend: 0x0, symName: __RNvXNtNtNtCsieiGu2EXtoJ_4core4iter6traits7collectINtNtNtB8_5slice4iter4IterNtCsaKzlTDPUHDb_11proc_macro25IdentENtB2_12IntoIterator9into_iterCsgKOh19surD7_13futures_macro, symObjAddr: 0x6EE0, symBinAddr: 0x7AB0, symSize: 0x20 }
  - { offset: 0x5D50, size: 0x8, addend: 0x0, symName: __RNvYINtNtCsieiGu2EXtoJ_4core6option8IntoIterRNtNtCsdGrGZaRBwMb_3syn4expr4ExprENtNtNtNtB7_4iter6traits10exact_size17ExactSizeIterator3lenCsgKOh19surD7_13futures_macro, symObjAddr: 0x7CD0, symBinAddr: 0x88A0, symSize: 0xE0 }
  - { offset: 0x5ED9, size: 0x8, addend: 0x0, symName: __RNvYINtNtNtCsieiGu2EXtoJ_4core5slice4iter4IterNtCsaKzlTDPUHDb_11proc_macro25IdentENtNtNtNtB9_4iter8adapters3zip27TrustedRandomAccessNoCoerce4sizeCsgKOh19surD7_13futures_macro, symObjAddr: 0x7DD0, symBinAddr: 0x89A0, symSize: 0x30 }
  - { offset: 0x5F10, size: 0x8, addend: 0x0, symName: __RNvYINtNtNtCsieiGu2EXtoJ_4core5slice4iter4IterNtNtCsdGrGZaRBwMb_3syn4expr8ExprPathENtNtNtNtB9_4iter8adapters3zip27TrustedRandomAccessNoCoerce4sizeCsgKOh19surD7_13futures_macro, symObjAddr: 0x7E00, symBinAddr: 0x89D0, symSize: 0x30 }
  - { offset: 0x60D7, size: 0x8, addend: 0x0, symName: __RNvXsF_NtNtCsieiGu2EXtoJ_4core4iter5rangejNtB5_4Step13steps_betweenCsgKOh19surD7_13futures_macro, symObjAddr: 0x7950, symBinAddr: 0x8520, symSize: 0x80 }
  - { offset: 0x6132, size: 0x8, addend: 0x0, symName: __RNvXsF_NtNtCsieiGu2EXtoJ_4core4iter5rangejNtB5_4Step17forward_uncheckedCsgKOh19surD7_13futures_macro, symObjAddr: 0x79D0, symBinAddr: 0x85A0, symSize: 0x40 }
  - { offset: 0x64D5, size: 0x8, addend: 0x0, symName: __RNvNvNtCsieiGu2EXtoJ_4core9ub_checks23maybe_is_nonoverlapping7runtimeCsgKOh19surD7_13futures_macro, symObjAddr: 0x5E70, symBinAddr: 0x6A40, symSize: 0xC0 }
  - { offset: 0xB60D, size: 0x8, addend: 0x0, symName: __RNvXNtCsdGrGZaRBwMb_3syn11parse_quoteNtNtB4_4expr8ExprPathNtB2_10ParseQuote5parseCsgKOh19surD7_13futures_macro, symObjAddr: 0x5FC0, symBinAddr: 0x6B90, symSize: 0x30 }
  - { offset: 0xBEA0, size: 0x8, addend: 0x0, symName: __RNvXs0_NtNtCslJiobkLta79_5alloc3vec13in_place_dropINtB5_24InPlaceDstDataSrcBufDropNtNtCsdGrGZaRBwMb_3syn4expr4ExprNtB1k_8ExprPathENtNtNtCsieiGu2EXtoJ_4core3ops4drop4Drop4dropCsgKOh19surD7_13futures_macro, symObjAddr: 0x6F00, symBinAddr: 0x7AD0, symSize: 0xC0 }
  - { offset: 0xBFF2, size: 0x8, addend: 0x0, symName: __RNvXs0_NtNtCslJiobkLta79_5alloc3vec13in_place_dropINtB5_24InPlaceDstDataSrcBufDropNtNtCsdGrGZaRBwMb_3syn4expr4ExprNtCsaKzlTDPUHDb_11proc_macro25IdentENtNtNtCsieiGu2EXtoJ_4core3ops4drop4Drop4dropCsgKOh19surD7_13futures_macro, symObjAddr: 0x6FC0, symBinAddr: 0x7B90, symSize: 0xC0 }
  - { offset: 0xC14A, size: 0x8, addend: 0x0, symName: __RNvXs_NtNtCslJiobkLta79_5alloc3vec13in_place_dropINtB4_11InPlaceDropNtCsaKzlTDPUHDb_11proc_macro25IdentENtNtNtCsieiGu2EXtoJ_4core3ops4drop4Drop4dropCsgKOh19surD7_13futures_macro, symObjAddr: 0x7BE0, symBinAddr: 0x87B0, symSize: 0x60 }
  - { offset: 0xC1A0, size: 0x8, addend: 0x0, symName: __RNvXs_NtNtCslJiobkLta79_5alloc3vec13in_place_dropINtB4_11InPlaceDropNtNtCsdGrGZaRBwMb_3syn4expr8ExprPathENtNtNtCsieiGu2EXtoJ_4core3ops4drop4Drop4dropCsgKOh19surD7_13futures_macro, symObjAddr: 0x7C40, symBinAddr: 0x8810, symSize: 0x60 }
  - { offset: 0xCD41, size: 0x8, addend: 0x0, symName: __RNvXs1_NtCslJiobkLta79_5alloc7raw_vecINtB5_6RawVecNtCsaKzlTDPUHDb_11proc_macro211TokenStreamENtNtNtCsieiGu2EXtoJ_4core3ops4drop4Drop4dropCsgKOh19surD7_13futures_macro, symObjAddr: 0x70B0, symBinAddr: 0x7C80, symSize: 0x30 }
  - { offset: 0xCD7D, size: 0x8, addend: 0x0, symName: __RNvXs1_NtCslJiobkLta79_5alloc7raw_vecINtB5_6RawVecNtCsaKzlTDPUHDb_11proc_macro25IdentENtNtNtCsieiGu2EXtoJ_4core3ops4drop4Drop4dropCsgKOh19surD7_13futures_macro, symObjAddr: 0x70E0, symBinAddr: 0x7CB0, symSize: 0x30 }
  - { offset: 0xCDB9, size: 0x8, addend: 0x0, symName: __RNvXs1_NtCslJiobkLta79_5alloc7raw_vecINtB5_6RawVecNtNtCsdGrGZaRBwMb_3syn4expr4ExprENtNtNtCsieiGu2EXtoJ_4core3ops4drop4Drop4dropCsgKOh19surD7_13futures_macro, symObjAddr: 0x7110, symBinAddr: 0x7CE0, symSize: 0x30 }
  - { offset: 0xCDF5, size: 0x8, addend: 0x0, symName: __RNvXs1_NtCslJiobkLta79_5alloc7raw_vecINtB5_6RawVecNtNtCsdGrGZaRBwMb_3syn4expr5IndexENtNtNtCsieiGu2EXtoJ_4core3ops4drop4Drop4dropCsgKOh19surD7_13futures_macro, symObjAddr: 0x7140, symBinAddr: 0x7D10, symSize: 0x30 }
  - { offset: 0xCE31, size: 0x8, addend: 0x0, symName: __RNvXs1_NtCslJiobkLta79_5alloc7raw_vecINtB5_6RawVecNtNtCsdGrGZaRBwMb_3syn4expr8ExprPathENtNtNtCsieiGu2EXtoJ_4core3ops4drop4Drop4dropCsgKOh19surD7_13futures_macro, symObjAddr: 0x7170, symBinAddr: 0x7D40, symSize: 0x30 }
  - { offset: 0xCE6D, size: 0x8, addend: 0x0, symName: __RNvXs1_NtCslJiobkLta79_5alloc7raw_vecINtB5_6RawVecTNtNtCsdGrGZaRBwMb_3syn3pat3PatNtNtBR_4expr4ExprEENtNtNtCsieiGu2EXtoJ_4core3ops4drop4Drop4dropCsgKOh19surD7_13futures_macro, symObjAddr: 0x71A0, symBinAddr: 0x7D70, symSize: 0x30 }
  - { offset: 0xCFC3, size: 0x8, addend: 0x0, symName: __RNvXs6_NtCslJiobkLta79_5alloc5boxedINtB5_3BoxANtNtCsdGrGZaRBwMb_3syn4stmt4Stmtj1_ENtNtNtCsieiGu2EXtoJ_4core3ops4drop4Drop4dropCsgKOh19surD7_13futures_macro, symObjAddr: 0x7610, symBinAddr: 0x81E0, symSize: 0xB0 }
  - { offset: 0xD0FE, size: 0x8, addend: 0x0, symName: __RNvXs6_NtCslJiobkLta79_5alloc5boxedINtB5_3BoxDNtNtCsieiGu2EXtoJ_4core5error5ErrorNtNtBM_6marker4SyncNtB1j_4SendEL_ENtNtNtBM_3ops4drop4Drop4dropCsgKOh19surD7_13futures_macro, symObjAddr: 0x76C0, symBinAddr: 0x8290, symSize: 0xC0 }
  - { offset: 0xD23B, size: 0x8, addend: 0x0, symName: __RNvXs6_NtCslJiobkLta79_5alloc5boxedINtB5_3BoxINtNtCsdGrGZaRBwMb_3syn5drops6NoDropDINtNtBM_10punctuated9IterTraitNtNtBM_4expr4ExprEp4ItemRB1M_EL_EENtNtNtCsieiGu2EXtoJ_4core3ops4drop4Drop4dropCsgKOh19surD7_13futures_macro, symObjAddr: 0x7780, symBinAddr: 0x8350, symSize: 0x120 }
  - { offset: 0xD378, size: 0x8, addend: 0x0, symName: __RNvXs6_NtCslJiobkLta79_5alloc5boxedINtB5_3BoxNtNtNtCsHUR1vrdMJt_3std2io5error6CustomENtNtNtCsieiGu2EXtoJ_4core3ops4drop4Drop4dropCsgKOh19surD7_13futures_macro, symObjAddr: 0x78A0, symBinAddr: 0x8470, symSize: 0xB0 }
  - { offset: 0xD552, size: 0x8, addend: 0x0, symName: __RINvMNtCsdGrGZaRBwMb_3syn5errorNtB3_5Error11new_spannedNtCsaKzlTDPUHDb_11proc_macro211TokenStreamReECsgKOh19surD7_13futures_macro, symObjAddr: 0x0, symBinAddr: 0xBD0, symSize: 0xB0 }
  - { offset: 0xD596, size: 0x8, addend: 0x0, symName: __RINvMNtCsdGrGZaRBwMb_3syn5errorNtB3_5Error11new_spannedNtNtB5_5token2FnReECsgKOh19surD7_13futures_macro, symObjAddr: 0xB0, symBinAddr: 0xC80, symSize: 0xB0 }
  - { offset: 0xD627, size: 0x8, addend: 0x0, symName: __RNCNvNtCsgKOh19surD7_13futures_macro6select12select_inner0B5_, symObjAddr: 0xC70, symBinAddr: 0x1840, symSize: 0x550 }
  - { offset: 0xD70B, size: 0x8, addend: 0x0, symName: __RNCNvNtCsgKOh19surD7_13futures_macro6select12select_inners0_0B5_, symObjAddr: 0x11C0, symBinAddr: 0x1D90, symSize: 0x200 }
  - { offset: 0xD7A7, size: 0x8, addend: 0x0, symName: __RNCNvNtCsgKOh19surD7_13futures_macro6select12select_inners1_0B5_, symObjAddr: 0x13C0, symBinAddr: 0x1F90, symSize: 0x180 }
  - { offset: 0xD80F, size: 0x8, addend: 0x0, symName: __RNCNvNtCsgKOh19surD7_13futures_macro6select12select_inners_0B5_, symObjAddr: 0x1540, symBinAddr: 0x2110, symSize: 0xD80 }
  - { offset: 0xD98C, size: 0x8, addend: 0x0, symName: __RNCNvNtCsgKOh19surD7_13futures_macro6select19declare_result_enum0B5_, symObjAddr: 0x22C0, symBinAddr: 0x2E90, symSize: 0x140 }
  - { offset: 0xDA1C, size: 0x8, addend: 0x0, symName: __RNvNtCsgKOh19surD7_13futures_macro6select12select_inner, symObjAddr: 0x2970, symBinAddr: 0x3540, symSize: 0x2E30 }
  - { offset: 0xE144, size: 0x8, addend: 0x0, symName: __RNvNtCsgKOh19surD7_13futures_macro6select13select_biased, symObjAddr: 0x57A0, symBinAddr: 0x6370, symSize: 0x20 }
  - { offset: 0xE170, size: 0x8, addend: 0x0, symName: __RNvNtCsgKOh19surD7_13futures_macro6select19declare_result_enum, symObjAddr: 0x57C0, symBinAddr: 0x6390, symSize: 0x680 }
  - { offset: 0xE407, size: 0x8, addend: 0x0, symName: __RNvNtCsgKOh19surD7_13futures_macro6select6select, symObjAddr: 0x5E40, symBinAddr: 0x6A10, symSize: 0x30 }
  - { offset: 0xE438, size: 0x8, addend: 0x0, symName: __RNvXNtCsgKOh19surD7_13futures_macro6selectNtB2_6SelectNtNtCsdGrGZaRBwMb_3syn5parse5Parse5parse, symObjAddr: 0x5FF0, symBinAddr: 0x6BC0, symSize: 0xEF0 }
  - { offset: 0xE717, size: 0x8, addend: 0x0, symName: __RINvMNtCsieiGu2EXtoJ_4core6optionINtB3_6OptionNtCsaKzlTDPUHDb_11proc_macro29TokenTreeE11map_or_elseNtBK_4SpanNvMsi_BK_B1z_9call_siteNCNvNtCsgKOh19surD7_13futures_macro8executor4test0EB2c_, symObjAddr: 0x160, symBinAddr: 0xD30, symSize: 0xE0 }
  - { offset: 0xE794, size: 0x8, addend: 0x0, symName: __RINvMNtCsieiGu2EXtoJ_4core6optionINtB3_6OptionNtCsaKzlTDPUHDb_11proc_macro29TokenTreeE6map_orNtBK_4SpanNCNvNtCsgKOh19surD7_13futures_macro8executor4tests_0EB1J_, symObjAddr: 0x240, symBinAddr: 0xE10, symSize: 0xD0 }
  - { offset: 0xECDE, size: 0x8, addend: 0x0, symName: __RINvMNtCsieiGu2EXtoJ_4core6optionINtB3_6OptionNtNtCsdGrGZaRBwMb_3syn4expr4ExprE3mapNtCsaKzlTDPUHDb_11proc_macro211TokenStreamNCNvNtCsgKOh19surD7_13futures_macro6select12select_inners1_0EB25_, symObjAddr: 0x310, symBinAddr: 0xEE0, symSize: 0xF0 }
  - { offset: 0xED65, size: 0x8, addend: 0x0, symName: __RINvMNtCsieiGu2EXtoJ_4core6optionINtB3_6OptionRNtNtCsdGrGZaRBwMb_3syn4expr4ExprE7or_elseNCNvXsw_NtBN_10punctuatedINtB1w_11PrivateIterBJ_NtNtBN_5token5CommaENtNtNtNtB5_4iter6traits8iterator8Iterator4nexts_0ECsgKOh19surD7_13futures_macro, symObjAddr: 0x400, symBinAddr: 0xFD0, symSize: 0x90 }
  - { offset: 0xEDEE, size: 0x8, addend: 0x0, symName: __RINvMNtCsieiGu2EXtoJ_4core6optionINtB3_6OptionRNtNtCsdGrGZaRBwMb_3syn4expr4ExprE7or_elseNCNvXsx_NtBN_10punctuatedINtB1w_11PrivateIterBJ_NtNtBN_5token5CommaENtNtNtNtB5_4iter6traits12double_ended19DoubleEndedIterator9next_back0ECsgKOh19surD7_13futures_macro, symObjAddr: 0x490, symBinAddr: 0x1060, symSize: 0x90 }
  - { offset: 0xEE75, size: 0x8, addend: 0x0, symName: __RINvMNtCsieiGu2EXtoJ_4core6optionINtB3_6OptionRNtNtCsdGrGZaRBwMb_3syn4stmt4StmtE3mapNtCsaKzlTDPUHDb_11proc_macro211TokenStreamNvYBI_NtNtCs9OU1sGv5X54_5quote9to_tokens8ToTokens17into_token_streamECsgKOh19surD7_13futures_macro, symObjAddr: 0x520, symBinAddr: 0x10F0, symSize: 0x80 }
  - { offset: 0xEEE0, size: 0x8, addend: 0x0, symName: __RINvMNtCsieiGu2EXtoJ_4core6optionINtB3_6OptionRTNtNtCsdGrGZaRBwMb_3syn4expr4ExprNtNtBO_5token5CommaEE3mapRBK_NCNCNvXsx_NtBO_10punctuatedINtB1T_11PrivateIterBK_B1g_ENtNtNtNtB5_4iter6traits12double_ended19DoubleEndedIterator9next_back00ECsgKOh19surD7_13futures_macro, symObjAddr: 0x5A0, symBinAddr: 0x1170, symSize: 0x50 }
  - { offset: 0xEF4B, size: 0x8, addend: 0x0, symName: __RINvMNtCsieiGu2EXtoJ_4core6optionINtB3_6OptionRTNtNtCsdGrGZaRBwMb_3syn4expr4ExprNtNtBO_5token5CommaEE3mapRBK_NCNvXsw_NtBO_10punctuatedINtB1R_11PrivateIterBK_B1g_ENtNtNtNtB5_4iter6traits8iterator8Iterator4next0ECsgKOh19surD7_13futures_macro, symObjAddr: 0x5F0, symBinAddr: 0x11C0, symSize: 0x50 }
  - { offset: 0xF07B, size: 0x8, addend: 0x0, symName: __RNvYINtNtNtCsieiGu2EXtoJ_4core5slice4iter4IterNtCsaKzlTDPUHDb_11proc_macro25IdentENtNtNtCs9OU1sGv5X54_5quote9___private3ext14RepIteratorExt15quote_into_iterCsgKOh19surD7_13futures_macro, symObjAddr: 0x7DB0, symBinAddr: 0x8980, symSize: 0x20 }
  - { offset: 0xF127, size: 0x8, addend: 0x0, symName: __RNvXNtCs9OU1sGv5X54_5quote9to_tokensRINtNtCslJiobkLta79_5alloc5boxed3BoxNtNtCsdGrGZaRBwMb_3syn4stmt5BlockENtB2_8ToTokens9to_tokensCsgKOh19surD7_13futures_macro, symObjAddr: 0x5F30, symBinAddr: 0x6B00, symSize: 0x30 }
  - { offset: 0xF166, size: 0x8, addend: 0x0, symName: __RNvXNtCs9OU1sGv5X54_5quote9to_tokensRNtNtCsdGrGZaRBwMb_3syn4expr5IndexNtB2_8ToTokens9to_tokensCsgKOh19surD7_13futures_macro, symObjAddr: 0x5F60, symBinAddr: 0x6B30, symSize: 0x30 }
  - { offset: 0xF1A5, size: 0x8, addend: 0x0, symName: __RNvXNtCs9OU1sGv5X54_5quote9to_tokensRNtNtCsdGrGZaRBwMb_3syn4expr8ExprPathNtB2_8ToTokens9to_tokensCsgKOh19surD7_13futures_macro, symObjAddr: 0x5F90, symBinAddr: 0x6B60, symSize: 0x30 }
  - { offset: 0xF1EA, size: 0x8, addend: 0x0, symName: __RNvXs1_NtCs9OU1sGv5X54_5quote9to_tokensINtNtCslJiobkLta79_5alloc5boxed3BoxNtNtCsdGrGZaRBwMb_3syn4stmt5BlockENtB5_8ToTokens9to_tokensCsgKOh19surD7_13futures_macro, symObjAddr: 0x7080, symBinAddr: 0x7C50, symSize: 0x30 }
  - { offset: 0xF22F, size: 0x8, addend: 0x0, symName: __RNvXs3_NtCs9OU1sGv5X54_5quote9to_tokensINtNtCsieiGu2EXtoJ_4core6option6OptionNtCsaKzlTDPUHDb_11proc_macro211TokenStreamENtB5_8ToTokens9to_tokensCsgKOh19surD7_13futures_macro, symObjAddr: 0x7580, symBinAddr: 0x8150, symSize: 0x70 }
  - { offset: 0xF2A8, size: 0x8, addend: 0x0, symName: __RINvMNtNtCsieiGu2EXtoJ_4core3fmt2rtNtB3_8Argument11new_displayINtNtCs9OU1sGv5X54_5quote9___private20IdentFragmentAdapterRjEECsgKOh19surD7_13futures_macro, symObjAddr: 0x640, symBinAddr: 0x1210, symSize: 0x30 }
  - { offset: 0xF4F4, size: 0x8, addend: 0x0, symName: __RNvMNtCsieiGu2EXtoJ_4core6optionINtB2_6OptionNtCsaKzlTDPUHDb_11proc_macro211TokenStreamE17unwrap_or_defaultCsgKOh19surD7_13futures_macro, symObjAddr: 0x2440, symBinAddr: 0x3010, symSize: 0x90 }
  - { offset: 0xF53F, size: 0x8, addend: 0x0, symName: __RNvMNtCsieiGu2EXtoJ_4core6optionINtB2_6OptionNtCsaKzlTDPUHDb_11proc_macro24SpanE2orCsgKOh19surD7_13futures_macro, symObjAddr: 0x24D0, symBinAddr: 0x30A0, symSize: 0x60 }
  - { offset: 0xF5A5, size: 0x8, addend: 0x0, symName: __RNvMNtCsieiGu2EXtoJ_4core6optionINtB2_6OptionNtNtCsdGrGZaRBwMb_3syn4expr4ExprE7is_someCsgKOh19surD7_13futures_macro, symObjAddr: 0x2530, symBinAddr: 0x3100, symSize: 0x30 }
  - { offset: 0xF5DE, size: 0x8, addend: 0x0, symName: __RNvMNtCsieiGu2EXtoJ_4core6optionINtB2_6OptionNtNtCsdGrGZaRBwMb_3syn5token5AsyncE4takeCsgKOh19surD7_13futures_macro, symObjAddr: 0x2560, symBinAddr: 0x3130, symSize: 0x20 }
  - { offset: 0xF651, size: 0x8, addend: 0x0, symName: __RNvMNtCsieiGu2EXtoJ_4core6optionINtB2_6OptionNtNtCsdGrGZaRBwMb_3syn5token5AsyncE7is_noneCsgKOh19surD7_13futures_macro, symObjAddr: 0x2580, symBinAddr: 0x3150, symSize: 0x20 }
  - { offset: 0xF6B5, size: 0x8, addend: 0x0, symName: __RNvMNtNtCslJiobkLta79_5alloc3vec13in_place_dropINtB2_11InPlaceDropNtCsaKzlTDPUHDb_11proc_macro25IdentE3lenCsgKOh19surD7_13futures_macro, symObjAddr: 0x25A0, symBinAddr: 0x3170, symSize: 0x70 }
  - { offset: 0xF774, size: 0x8, addend: 0x0, symName: __RNvMNtNtCslJiobkLta79_5alloc3vec13in_place_dropINtB2_11InPlaceDropNtNtCsdGrGZaRBwMb_3syn4expr8ExprPathE3lenCsgKOh19surD7_13futures_macro, symObjAddr: 0x2610, symBinAddr: 0x31E0, symSize: 0x70 }
  - { offset: 0xF896, size: 0x8, addend: 0x0, symName: __RNvMs0_NtCslJiobkLta79_5alloc7raw_vecINtB5_6RawVecNtCsaKzlTDPUHDb_11proc_macro211TokenStreamE8grow_oneCsgKOh19surD7_13futures_macro, symObjAddr: 0x2680, symBinAddr: 0x3250, symSize: 0x90 }
  - { offset: 0xF948, size: 0x8, addend: 0x0, symName: __RNvMs0_NtCslJiobkLta79_5alloc7raw_vecINtB5_6RawVecNtNtCsdGrGZaRBwMb_3syn4expr4ExprE8grow_oneCsgKOh19surD7_13futures_macro, symObjAddr: 0x2710, symBinAddr: 0x32E0, symSize: 0x90 }
  - { offset: 0xFA19, size: 0x8, addend: 0x0, symName: __RNvMs0_NtCslJiobkLta79_5alloc7raw_vecINtB5_6RawVecTNtNtCsdGrGZaRBwMb_3syn3pat3PatNtNtBR_4expr4ExprEE8grow_oneCsgKOh19surD7_13futures_macro, symObjAddr: 0x27A0, symBinAddr: 0x3370, symSize: 0x90 }
  - { offset: 0xFB4F, size: 0x8, addend: 0x0, symName: __RNvMs4_NtNtCsieiGu2EXtoJ_4core5slice4iterINtB5_4IterNtCsaKzlTDPUHDb_11proc_macro211TokenStreamE3newCsgKOh19surD7_13futures_macro, symObjAddr: 0x2830, symBinAddr: 0x3400, symSize: 0x50 }
  - { offset: 0xFCEF, size: 0x8, addend: 0x0, symName: __RNvMs4_NtNtCsieiGu2EXtoJ_4core5slice4iterINtB5_4IterNtCsaKzlTDPUHDb_11proc_macro25IdentE3newCsgKOh19surD7_13futures_macro, symObjAddr: 0x2880, symBinAddr: 0x3450, symSize: 0x50 }
  - { offset: 0xFEB6, size: 0x8, addend: 0x0, symName: __RNvMs4_NtNtCsieiGu2EXtoJ_4core5slice4iterINtB5_4IterNtNtCsdGrGZaRBwMb_3syn4expr5IndexE3newCsgKOh19surD7_13futures_macro, symObjAddr: 0x28D0, symBinAddr: 0x34A0, symSize: 0x50 }
  - { offset: 0x10056, size: 0x8, addend: 0x0, symName: __RNvMs4_NtNtCsieiGu2EXtoJ_4core5slice4iterINtB5_4IterNtNtCsdGrGZaRBwMb_3syn4expr8ExprPathE3newCsgKOh19surD7_13futures_macro, symObjAddr: 0x2920, symBinAddr: 0x34F0, symSize: 0x50 }
  - { offset: 0x10C15, size: 0x8, addend: 0x0, symName: __RINvCsdGrGZaRBwMb_3syn5parseNtNtB2_4item6ItemFnECsgKOh19surD7_13futures_macro, symObjAddr: 0x0, symBinAddr: 0x8A00, symSize: 0x30 }
  - { offset: 0x113F5, size: 0x8, addend: 0x0, symName: __RNvXs5_NtNtCscKtU6MdFI5n_10proc_macro6bridge6bufferNtB5_6BufferNtNtNtCsieiGu2EXtoJ_4core3ops4drop4Drop4dropCsgKOh19surD7_13futures_macro, symObjAddr: 0x5450, symBinAddr: 0xDE10, symSize: 0xA0 }
  - { offset: 0x114C9, size: 0x8, addend: 0x0, symName: __RINvNvNtNtCscKtU6MdFI5n_10proc_macro6bridge14selfless_reify31reify_to_extern_c_fn_hrt_bridge7wrapperNtNtB6_6buffer6BufferNCINvMs6_NtB6_6clientINtB24_6ClientNtB8_11TokenStreamB2u_E7expand1NvCsgKOh19surD7_13futures_macro13join_internalE0EB31_, symObjAddr: 0x2400, symBinAddr: 0xADC0, symSize: 0xA0 }
  - { offset: 0x11561, size: 0x8, addend: 0x0, symName: __RINvNvNtNtCscKtU6MdFI5n_10proc_macro6bridge14selfless_reify31reify_to_extern_c_fn_hrt_bridge7wrapperNtNtB6_6buffer6BufferNCINvMs6_NtB6_6clientINtB24_6ClientNtB8_11TokenStreamB2u_E7expand1NvCsgKOh19surD7_13futures_macro15select_internalE0EB31_, symObjAddr: 0x24A0, symBinAddr: 0xAE60, symSize: 0xA0 }
  - { offset: 0x115F9, size: 0x8, addend: 0x0, symName: __RINvNvNtNtCscKtU6MdFI5n_10proc_macro6bridge14selfless_reify31reify_to_extern_c_fn_hrt_bridge7wrapperNtNtB6_6buffer6BufferNCINvMs6_NtB6_6clientINtB24_6ClientNtB8_11TokenStreamB2u_E7expand1NvCsgKOh19surD7_13futures_macro17try_join_internalE0EB31_, symObjAddr: 0x2540, symBinAddr: 0xAF00, symSize: 0xA0 }
  - { offset: 0x11691, size: 0x8, addend: 0x0, symName: __RINvNvNtNtCscKtU6MdFI5n_10proc_macro6bridge14selfless_reify31reify_to_extern_c_fn_hrt_bridge7wrapperNtNtB6_6buffer6BufferNCINvMs6_NtB6_6clientINtB24_6ClientNtB8_11TokenStreamB2u_E7expand1NvCsgKOh19surD7_13futures_macro22select_biased_internalE0EB31_, symObjAddr: 0x25E0, symBinAddr: 0xAFA0, symSize: 0xA0 }
  - { offset: 0x11729, size: 0x8, addend: 0x0, symName: __RINvNvNtNtCscKtU6MdFI5n_10proc_macro6bridge14selfless_reify31reify_to_extern_c_fn_hrt_bridge7wrapperNtNtB6_6buffer6BufferNCINvMs6_NtB6_6clientINtB24_6ClientNtB8_11TokenStreamB2u_E7expand1NvCsgKOh19surD7_13futures_macro22stream_select_internalE0EB31_, symObjAddr: 0x2680, symBinAddr: 0xB040, symSize: 0xA0 }
  - { offset: 0x117C1, size: 0x8, addend: 0x0, symName: __RINvNvNtNtCscKtU6MdFI5n_10proc_macro6bridge14selfless_reify31reify_to_extern_c_fn_hrt_bridge7wrapperNtNtB6_6buffer6BufferNCINvMs7_NtB6_6clientINtB24_6ClientTNtB8_11TokenStreamB2v_EB2v_E7expand2NvCsgKOh19surD7_13futures_macro13test_internalE0EB37_, symObjAddr: 0x2720, symBinAddr: 0xB0E0, symSize: 0xA0 }
  - { offset: 0x11DB0, size: 0x8, addend: 0x0, symName: __RNvXsA_NtCsaKzlTDPUHDb_11proc_macro28fallbackNtB5_5IdentNtNtCsieiGu2EXtoJ_4core5clone5Clone5cloneCsgKOh19surD7_13futures_macro, symObjAddr: 0x5530, symBinAddr: 0xDEF0, symSize: 0x90 }
  - { offset: 0x11DE4, size: 0x8, addend: 0x0, symName: __RNvXsu_NtCsaKzlTDPUHDb_11proc_macro28fallbackNtB5_4SpanNtNtCsieiGu2EXtoJ_4core5clone5Clone5cloneCsgKOh19surD7_13futures_macro, symObjAddr: 0x6790, symBinAddr: 0xF150, symSize: 0x10 }
  - { offset: 0x12A54, size: 0x8, addend: 0x0, symName: __RINvNtCsieiGu2EXtoJ_4core3ptr13drop_in_placeINtNtB4_4cell10UnsafeCellNtNtNtCscKtU6MdFI5n_10proc_macro6bridge6client6BridgeEECsgKOh19surD7_13futures_macro, symObjAddr: 0x740, symBinAddr: 0x9100, symSize: 0x20 }
  - { offset: 0x12A83, size: 0x8, addend: 0x0, symName: __RINvNtCsieiGu2EXtoJ_4core3ptr13drop_in_placeINtNtB4_4cell7RefCellNtNtNtCscKtU6MdFI5n_10proc_macro6bridge6client6BridgeEECsgKOh19surD7_13futures_macro, symObjAddr: 0x760, symBinAddr: 0x9120, symSize: 0x20 }
  - { offset: 0x12AB2, size: 0x8, addend: 0x0, symName: __RINvNtCsieiGu2EXtoJ_4core3ptr13drop_in_placeINtNtB4_6result6ResultINtNtNtCslJiobkLta79_5alloc3vec13in_place_drop11InPlaceDropNtCsaKzlTDPUHDb_11proc_macro25IdentEzEECsgKOh19surD7_13futures_macro, symObjAddr: 0x780, symBinAddr: 0x9140, symSize: 0x20 }
  - { offset: 0x12AE1, size: 0x8, addend: 0x0, symName: __RINvNtCsieiGu2EXtoJ_4core3ptr13drop_in_placeINtNtCs9OU1sGv5X54_5quote9___private9RepInterpNtCsaKzlTDPUHDb_11proc_macro211TokenStreamEECsgKOh19surD7_13futures_macro, symObjAddr: 0x7A0, symBinAddr: 0x9160, symSize: 0x20 }
  - { offset: 0x12B10, size: 0x8, addend: 0x0, symName: __RINvNtCsieiGu2EXtoJ_4core3ptr13drop_in_placeINtNtCsdGrGZaRBwMb_3syn10punctuated4IterNtNtBL_4expr4ExprEECsgKOh19surD7_13futures_macro, symObjAddr: 0x7C0, symBinAddr: 0x9180, symSize: 0x20 }
  - { offset: 0x12B3F, size: 0x8, addend: 0x0, symName: __RINvNtCsieiGu2EXtoJ_4core3ptr13drop_in_placeINtNtCslJiobkLta79_5alloc3vec3VecNtCsaKzlTDPUHDb_11proc_macro211TokenStreamEECsgKOh19surD7_13futures_macro, symObjAddr: 0x7E0, symBinAddr: 0x91A0, symSize: 0x50 }
  - { offset: 0x12B6E, size: 0x8, addend: 0x0, symName: __RINvNtCsieiGu2EXtoJ_4core3ptr13drop_in_placeINtNtCslJiobkLta79_5alloc3vec3VecNtCsaKzlTDPUHDb_11proc_macro25IdentEECsgKOh19surD7_13futures_macro, symObjAddr: 0x830, symBinAddr: 0x91F0, symSize: 0x50 }
  - { offset: 0x12B9D, size: 0x8, addend: 0x0, symName: __RINvNtCsieiGu2EXtoJ_4core3ptr13drop_in_placeINtNtCslJiobkLta79_5alloc3vec3VecNtNtCsdGrGZaRBwMb_3syn4expr4ExprEECsgKOh19surD7_13futures_macro, symObjAddr: 0x880, symBinAddr: 0x9240, symSize: 0x50 }
  - { offset: 0x12BCC, size: 0x8, addend: 0x0, symName: __RINvNtCsieiGu2EXtoJ_4core3ptr13drop_in_placeINtNtCslJiobkLta79_5alloc3vec3VecNtNtCsdGrGZaRBwMb_3syn4expr5IndexEECsgKOh19surD7_13futures_macro, symObjAddr: 0x8D0, symBinAddr: 0x9290, symSize: 0x50 }
  - { offset: 0x12BFB, size: 0x8, addend: 0x0, symName: __RINvNtCsieiGu2EXtoJ_4core3ptr13drop_in_placeINtNtCslJiobkLta79_5alloc3vec3VecNtNtCsdGrGZaRBwMb_3syn4expr8ExprPathEECsgKOh19surD7_13futures_macro, symObjAddr: 0x920, symBinAddr: 0x92E0, symSize: 0x50 }
  - { offset: 0x12C2A, size: 0x8, addend: 0x0, symName: __RINvNtCsieiGu2EXtoJ_4core3ptr13drop_in_placeINtNtCslJiobkLta79_5alloc3vec3VecTNtNtCsdGrGZaRBwMb_3syn3pat3PatNtNtB1i_4expr4ExprEEECsgKOh19surD7_13futures_macro, symObjAddr: 0x970, symBinAddr: 0x9330, symSize: 0x50 }
  - { offset: 0x12C59, size: 0x8, addend: 0x0, symName: __RINvNtCsieiGu2EXtoJ_4core3ptr13drop_in_placeINtNtCslJiobkLta79_5alloc5boxed3BoxDNtNtB4_5error5ErrorNtNtB4_6marker4SyncNtB1B_4SendEL_EECsgKOh19surD7_13futures_macro, symObjAddr: 0x9C0, symBinAddr: 0x9380, symSize: 0x70 }
  - { offset: 0x12C88, size: 0x8, addend: 0x0, symName: __RINvNtCsieiGu2EXtoJ_4core3ptr13drop_in_placeINtNtCslJiobkLta79_5alloc5boxed3BoxINtNtCsdGrGZaRBwMb_3syn5drops6NoDropDINtNtB1k_10punctuated9IterTraitNtNtB1k_4expr4ExprEp4ItemRB2l_EL_EEECsgKOh19surD7_13futures_macro, symObjAddr: 0xA30, symBinAddr: 0x93F0, symSize: 0x20 }
  - { offset: 0x12CB7, size: 0x8, addend: 0x0, symName: __RINvNtCsieiGu2EXtoJ_4core3ptr13drop_in_placeINtNtCslJiobkLta79_5alloc5boxed3BoxNtNtNtCsHUR1vrdMJt_3std2io5error6CustomEECsgKOh19surD7_13futures_macro, symObjAddr: 0xA50, symBinAddr: 0x9410, symSize: 0x50 }
  - { offset: 0x12CE6, size: 0x8, addend: 0x0, symName: __RINvNtCsieiGu2EXtoJ_4core3ptr13drop_in_placeINtNtCslJiobkLta79_5alloc7raw_vec6RawVecNtCsaKzlTDPUHDb_11proc_macro211TokenStreamEECsgKOh19surD7_13futures_macro, symObjAddr: 0xAA0, symBinAddr: 0x9460, symSize: 0x20 }
  - { offset: 0x12D15, size: 0x8, addend: 0x0, symName: __RINvNtCsieiGu2EXtoJ_4core3ptr13drop_in_placeINtNtCslJiobkLta79_5alloc7raw_vec6RawVecNtCsaKzlTDPUHDb_11proc_macro25IdentEECsgKOh19surD7_13futures_macro, symObjAddr: 0xAC0, symBinAddr: 0x9480, symSize: 0x20 }
  - { offset: 0x12D44, size: 0x8, addend: 0x0, symName: __RINvNtCsieiGu2EXtoJ_4core3ptr13drop_in_placeINtNtCslJiobkLta79_5alloc7raw_vec6RawVecNtNtCsdGrGZaRBwMb_3syn4expr4ExprEECsgKOh19surD7_13futures_macro, symObjAddr: 0xAE0, symBinAddr: 0x94A0, symSize: 0x20 }
  - { offset: 0x12D73, size: 0x8, addend: 0x0, symName: __RINvNtCsieiGu2EXtoJ_4core3ptr13drop_in_placeINtNtCslJiobkLta79_5alloc7raw_vec6RawVecNtNtCsdGrGZaRBwMb_3syn4expr5IndexEECsgKOh19surD7_13futures_macro, symObjAddr: 0xB00, symBinAddr: 0x94C0, symSize: 0x20 }
  - { offset: 0x12DA2, size: 0x8, addend: 0x0, symName: __RINvNtCsieiGu2EXtoJ_4core3ptr13drop_in_placeINtNtCslJiobkLta79_5alloc7raw_vec6RawVecNtNtCsdGrGZaRBwMb_3syn4expr8ExprPathEECsgKOh19surD7_13futures_macro, symObjAddr: 0xB20, symBinAddr: 0x94E0, symSize: 0x20 }
  - { offset: 0x12DD1, size: 0x8, addend: 0x0, symName: __RINvNtCsieiGu2EXtoJ_4core3ptr13drop_in_placeINtNtCslJiobkLta79_5alloc7raw_vec6RawVecTNtNtCsdGrGZaRBwMb_3syn3pat3PatNtNtB1p_4expr4ExprEEECsgKOh19surD7_13futures_macro, symObjAddr: 0xB40, symBinAddr: 0x9500, symSize: 0x20 }
  - { offset: 0x12E00, size: 0x8, addend: 0x0, symName: __RINvNtCsieiGu2EXtoJ_4core3ptr13drop_in_placeINtNtNtCsHUR1vrdMJt_3std2io5error9ErrorDataINtNtCslJiobkLta79_5alloc5boxed3BoxNtBJ_6CustomEEECsgKOh19surD7_13futures_macro, symObjAddr: 0xB60, symBinAddr: 0x9520, symSize: 0x30 }
  - { offset: 0x12E2F, size: 0x8, addend: 0x0, symName: __RINvNtCsieiGu2EXtoJ_4core3ptr13drop_in_placeINtNtNtCslJiobkLta79_5alloc3vec13in_place_drop11InPlaceDropNtCsaKzlTDPUHDb_11proc_macro25IdentEECsgKOh19surD7_13futures_macro, symObjAddr: 0xB90, symBinAddr: 0x9550, symSize: 0x20 }
  - { offset: 0x12E5E, size: 0x8, addend: 0x0, symName: __RINvNtCsieiGu2EXtoJ_4core3ptr13drop_in_placeINtNtNtCslJiobkLta79_5alloc3vec13in_place_drop11InPlaceDropNtNtCsdGrGZaRBwMb_3syn4expr8ExprPathEECsgKOh19surD7_13futures_macro, symObjAddr: 0xBB0, symBinAddr: 0x9570, symSize: 0x20 }
  - { offset: 0x12E8D, size: 0x8, addend: 0x0, symName: __RINvNtCsieiGu2EXtoJ_4core3ptr13drop_in_placeINtNtNtCslJiobkLta79_5alloc3vec13in_place_drop24InPlaceDstDataSrcBufDropNtNtCsdGrGZaRBwMb_3syn4expr4ExprNtB1S_8ExprPathEECsgKOh19surD7_13futures_macro, symObjAddr: 0xBD0, symBinAddr: 0x9590, symSize: 0x20 }
  - { offset: 0x12EBC, size: 0x8, addend: 0x0, symName: __RINvNtCsieiGu2EXtoJ_4core3ptr13drop_in_placeINtNtNtCslJiobkLta79_5alloc3vec13in_place_drop24InPlaceDstDataSrcBufDropNtNtCsdGrGZaRBwMb_3syn4expr4ExprNtCsaKzlTDPUHDb_11proc_macro25IdentEECsgKOh19surD7_13futures_macro, symObjAddr: 0xBF0, symBinAddr: 0x95B0, symSize: 0x20 }
  - { offset: 0x12EEB, size: 0x8, addend: 0x0, symName: __RINvNtCsieiGu2EXtoJ_4core3ptr13drop_in_placeINtNtNtCslJiobkLta79_5alloc3vec9into_iter8IntoIterNtNtCsdGrGZaRBwMb_3syn4expr4ExprEECsgKOh19surD7_13futures_macro, symObjAddr: 0xC10, symBinAddr: 0x95D0, symSize: 0x20 }
  - { offset: 0x12F1A, size: 0x8, addend: 0x0, symName: __RINvNtCsieiGu2EXtoJ_4core3ptr13drop_in_placeINtNtNtCslJiobkLta79_5alloc3vec9into_iter8IntoIterTNtNtCsdGrGZaRBwMb_3syn3pat3PatNtNtB1z_4expr4ExprEEECsgKOh19surD7_13futures_macro, symObjAddr: 0xC30, symBinAddr: 0x95F0, symSize: 0x20 }
  - { offset: 0x12F49, size: 0x8, addend: 0x0, symName: __RINvNtCsieiGu2EXtoJ_4core3ptr13drop_in_placeINtNtNtNtB4_4iter8adapters3map3MapINtNtBL_3zip3ZipINtNtNtCslJiobkLta79_5alloc3vec9into_iter8IntoIterNtNtCsdGrGZaRBwMb_3syn4expr4ExprEINtNtNtB4_5slice4iter4IterNtCsaKzlTDPUHDb_11proc_macro25IdentEENCNvNtCsgKOh19surD7_13futures_macro6select12select_inner0EEB3W_, symObjAddr: 0xC50, symBinAddr: 0x9610, symSize: 0x20 }
  - { offset: 0x12F78, size: 0x8, addend: 0x0, symName: __RINvNtCsieiGu2EXtoJ_4core3ptr13drop_in_placeINtNtNtNtB4_4iter8adapters3map3MapINtNtBL_3zip3ZipINtNtNtCslJiobkLta79_5alloc3vec9into_iter8IntoIterTNtNtCsdGrGZaRBwMb_3syn3pat3PatNtNtB2n_4expr4ExprEEINtNtNtB4_5slice4iter4IterNtCsaKzlTDPUHDb_11proc_macro25IdentEENCNvNtCsgKOh19surD7_13futures_macro6select12select_inners0_0EEB4e_, symObjAddr: 0xC70, symBinAddr: 0x9630, symSize: 0x20 }
  - { offset: 0x12FA7, size: 0x8, addend: 0x0, symName: __RINvNtCsieiGu2EXtoJ_4core3ptr13drop_in_placeINtNtNtNtB4_4iter8adapters3map3MapINtNtBL_9enumerate9EnumerateINtNtNtCslJiobkLta79_5alloc3vec9into_iter8IntoIterNtNtCsdGrGZaRBwMb_3syn4expr4ExprEENCNvNtCsgKOh19surD7_13futures_macro4join12bind_futures0EEB38_, symObjAddr: 0xC90, symBinAddr: 0x9650, symSize: 0x20 }
  - { offset: 0x12FD6, size: 0x8, addend: 0x0, symName: __RINvNtCsieiGu2EXtoJ_4core3ptr13drop_in_placeINtNtNtNtB4_4iter8adapters3map3MapINtNtCsdGrGZaRBwMb_3syn10punctuated4IterNtNtB1j_4expr4ExprENCNvNtCsgKOh19surD7_13futures_macro13stream_select13stream_selects1_0EEB2h_, symObjAddr: 0xCB0, symBinAddr: 0x9670, symSize: 0x20 }
  - { offset: 0x13005, size: 0x8, addend: 0x0, symName: __RINvNtCsieiGu2EXtoJ_4core3ptr13drop_in_placeINtNtNtNtB4_4iter8adapters3zip3ZipINtNtNtCslJiobkLta79_5alloc3vec9into_iter8IntoIterNtNtCsdGrGZaRBwMb_3syn4expr4ExprEINtNtNtB4_5slice4iter4IterNtCsaKzlTDPUHDb_11proc_macro25IdentEEECsgKOh19surD7_13futures_macro, symObjAddr: 0xCD0, symBinAddr: 0x9690, symSize: 0x20 }
  - { offset: 0x13034, size: 0x8, addend: 0x0, symName: __RINvNtCsieiGu2EXtoJ_4core3ptr13drop_in_placeINtNtNtNtB4_4iter8adapters3zip3ZipINtNtNtCslJiobkLta79_5alloc3vec9into_iter8IntoIterTNtNtCsdGrGZaRBwMb_3syn3pat3PatNtNtB27_4expr4ExprEEINtNtNtB4_5slice4iter4IterNtCsaKzlTDPUHDb_11proc_macro25IdentEEECsgKOh19surD7_13futures_macro, symObjAddr: 0xCF0, symBinAddr: 0x96B0, symSize: 0x20 }
  - { offset: 0x13063, size: 0x8, addend: 0x0, symName: __RINvNtCsieiGu2EXtoJ_4core3ptr13drop_in_placeINtNtNtNtB4_4iter8adapters9enumerate9EnumerateINtNtNtCslJiobkLta79_5alloc3vec9into_iter8IntoIterNtNtCsdGrGZaRBwMb_3syn4expr4ExprEEECsgKOh19surD7_13futures_macro, symObjAddr: 0xD10, symBinAddr: 0x96D0, symSize: 0x20 }
  - { offset: 0x13092, size: 0x8, addend: 0x0, symName: __RINvNtCsieiGu2EXtoJ_4core3ptr13drop_in_placeINtNvXsd_NtNtCslJiobkLta79_5alloc3vec9into_iterINtBP_8IntoIterppENtNtNtB4_3ops4drop4Drop4drop9DropGuardNtNtCsdGrGZaRBwMb_3syn4expr4ExprNtNtBT_5alloc6GlobalEECsgKOh19surD7_13futures_macro, symObjAddr: 0xD30, symBinAddr: 0x96F0, symSize: 0x20 }
  - { offset: 0x130C1, size: 0x8, addend: 0x0, symName: __RINvNtCsieiGu2EXtoJ_4core3ptr13drop_in_placeINtNvXsd_NtNtCslJiobkLta79_5alloc3vec9into_iterINtBP_8IntoIterppENtNtNtB4_3ops4drop4Drop4drop9DropGuardTNtNtCsdGrGZaRBwMb_3syn3pat3PatNtNtB2q_4expr4ExprENtNtBT_5alloc6GlobalEECsgKOh19surD7_13futures_macro, symObjAddr: 0xD50, symBinAddr: 0x9710, symSize: 0x20 }
  - { offset: 0x130F0, size: 0x8, addend: 0x0, symName: __RINvNtCsieiGu2EXtoJ_4core3ptr13drop_in_placeNCINvMsi_NtCslJiobkLta79_5alloc3vecINtBP_3VecNtCsaKzlTDPUHDb_11proc_macro25IdentE14extend_trustedINtNtNtNtB4_4iter8adapters3map3MapINtNtNtB4_3ops5range5RangejENCNvNtCsgKOh19surD7_13futures_macro13stream_select13stream_select0EE0EB3l_, symObjAddr: 0xD70, symBinAddr: 0x9730, symSize: 0x20 }
  - { offset: 0x1311F, size: 0x8, addend: 0x0, symName: __RINvNtCsieiGu2EXtoJ_4core3ptr13drop_in_placeNCINvMsi_NtCslJiobkLta79_5alloc3vecINtBP_3VecNtCsaKzlTDPUHDb_11proc_macro25IdentE14extend_trustedINtNtNtNtB4_4iter8adapters3map3MapINtNtNtB4_3ops5range5RangejENCNvNtCsgKOh19surD7_13futures_macro13stream_select13stream_selects0_0EE0EB3l_, symObjAddr: 0xD90, symBinAddr: 0x9750, symSize: 0x20 }
  - { offset: 0x1314E, size: 0x8, addend: 0x0, symName: __RINvNtCsieiGu2EXtoJ_4core3ptr13drop_in_placeNCINvMsi_NtCslJiobkLta79_5alloc3vecINtBP_3VecNtCsaKzlTDPUHDb_11proc_macro25IdentE14extend_trustedINtNtNtNtB4_4iter8adapters3map3MapINtNtNtB4_3ops5range5RangejENCNvNtCsgKOh19surD7_13futures_macro13stream_select13stream_selects_0EE0EB3l_, symObjAddr: 0xDB0, symBinAddr: 0x9770, symSize: 0x20 }
  - { offset: 0x1317D, size: 0x8, addend: 0x0, symName: __RINvNtCsieiGu2EXtoJ_4core3ptr13drop_in_placeNCINvMsi_NtCslJiobkLta79_5alloc3vecINtBP_3VecNtCsaKzlTDPUHDb_11proc_macro25IdentE14extend_trustedINtNtNtNtB4_4iter8adapters3map3MapINtNtNtB4_3ops5range5RangejENCNvNtCsgKOh19surD7_13futures_macro6select19declare_result_enum0EE0EB3l_, symObjAddr: 0xDD0, symBinAddr: 0x9790, symSize: 0x20 }
  - { offset: 0x131AC, size: 0x8, addend: 0x0, symName: __RINvNtCsieiGu2EXtoJ_4core3ptr13drop_in_placeNCINvMsi_NtCslJiobkLta79_5alloc3vecINtBP_3VecNtNtCsdGrGZaRBwMb_3syn4expr5IndexE14extend_trustedINtNtNtNtB4_4iter8adapters3map3MapINtNtNtB4_3ops5range5RangejENvYB1p_INtNtB4_7convert4FromjE4fromEE0ECsgKOh19surD7_13futures_macro, symObjAddr: 0xDF0, symBinAddr: 0x97B0, symSize: 0x20 }
  - { offset: 0x131DB, size: 0x8, addend: 0x0, symName: __RINvNtCsieiGu2EXtoJ_4core3ptr13drop_in_placeNCINvNtNtNtB4_4iter8adapters3map8map_foldjNtCsaKzlTDPUHDb_11proc_macro25IdentuNCNvNtCsgKOh19surD7_13futures_macro13stream_select13stream_select0NCINvNvNtNtNtBP_6traits8iterator8Iterator8for_each4callB1m_NCINvMsi_NtCslJiobkLta79_5alloc3vecINtB46_3VecB1m_E14extend_trustedINtBL_3MapINtNtNtB4_3ops5range5RangejEB1W_EE0E0E0EB22_, symObjAddr: 0xE10, symBinAddr: 0x97D0, symSize: 0x20 }
  - { offset: 0x1320A, size: 0x8, addend: 0x0, symName: __RINvNtCsieiGu2EXtoJ_4core3ptr13drop_in_placeNCINvNtNtNtB4_4iter8adapters3map8map_foldjNtCsaKzlTDPUHDb_11proc_macro25IdentuNCNvNtCsgKOh19surD7_13futures_macro13stream_select13stream_selects0_0NCINvNvNtNtNtBP_6traits8iterator8Iterator8for_each4callB1m_NCINvMsi_NtCslJiobkLta79_5alloc3vecINtB49_3VecB1m_E14extend_trustedINtBL_3MapINtNtNtB4_3ops5range5RangejEB1W_EE0E0E0EB22_, symObjAddr: 0xE30, symBinAddr: 0x97F0, symSize: 0x20 }
  - { offset: 0x13239, size: 0x8, addend: 0x0, symName: __RINvNtCsieiGu2EXtoJ_4core3ptr13drop_in_placeNCINvNtNtNtB4_4iter8adapters3map8map_foldjNtCsaKzlTDPUHDb_11proc_macro25IdentuNCNvNtCsgKOh19surD7_13futures_macro13stream_select13stream_selects_0NCINvNvNtNtNtBP_6traits8iterator8Iterator8for_each4callB1m_NCINvMsi_NtCslJiobkLta79_5alloc3vecINtB48_3VecB1m_E14extend_trustedINtBL_3MapINtNtNtB4_3ops5range5RangejEB1W_EE0E0E0EB22_, symObjAddr: 0xE50, symBinAddr: 0x9810, symSize: 0x20 }
  - { offset: 0x13268, size: 0x8, addend: 0x0, symName: __RINvNtCsieiGu2EXtoJ_4core3ptr13drop_in_placeNCINvNtNtNtB4_4iter8adapters3map8map_foldjNtCsaKzlTDPUHDb_11proc_macro25IdentuNCNvNtCsgKOh19surD7_13futures_macro6select19declare_result_enum0NCINvNvNtNtNtBP_6traits8iterator8Iterator8for_each4callB1m_NCINvMsi_NtCslJiobkLta79_5alloc3vecINtB44_3VecB1m_E14extend_trustedINtBL_3MapINtNtNtB4_3ops5range5RangejEB1W_EE0E0E0EB22_, symObjAddr: 0xE70, symBinAddr: 0x9830, symSize: 0x20 }
  - { offset: 0x13297, size: 0x8, addend: 0x0, symName: __RINvNtCsieiGu2EXtoJ_4core3ptr13drop_in_placeNCINvNtNtNtB4_4iter8adapters3map8map_foldjNtNtCsdGrGZaRBwMb_3syn4expr5IndexuNvYB1m_INtNtB4_7convert4FromjE4fromNCINvNvNtNtNtBP_6traits8iterator8Iterator8for_each4callB1m_NCINvMsi_NtCslJiobkLta79_5alloc3vecINtB3z_3VecB1m_E14extend_trustedINtBL_3MapINtNtNtB4_3ops5range5RangejEB1U_EE0E0E0ECsgKOh19surD7_13futures_macro, symObjAddr: 0xE90, symBinAddr: 0x9850, symSize: 0x20 }
  - { offset: 0x132C6, size: 0x8, addend: 0x0, symName: __RINvNtCsieiGu2EXtoJ_4core3ptr13drop_in_placeNCINvNvNtNtNtNtB4_4iter6traits8iterator8Iterator8for_each4callNtCsaKzlTDPUHDb_11proc_macro25IdentNCINvMsi_NtCslJiobkLta79_5alloc3vecINtB2o_3VecB1G_E14extend_trustedINtNtNtBT_8adapters3map3MapINtNtNtB4_3ops5range5RangejENCNvNtCsgKOh19surD7_13futures_macro13stream_select13stream_select0EE0E0EB4j_, symObjAddr: 0xEB0, symBinAddr: 0x9870, symSize: 0x20 }
  - { offset: 0x132F5, size: 0x8, addend: 0x0, symName: __RINvNtCsieiGu2EXtoJ_4core3ptr13drop_in_placeNCINvNvNtNtNtNtB4_4iter6traits8iterator8Iterator8for_each4callNtCsaKzlTDPUHDb_11proc_macro25IdentNCINvMsi_NtCslJiobkLta79_5alloc3vecINtB2o_3VecB1G_E14extend_trustedINtNtNtBT_8adapters3map3MapINtNtNtB4_3ops5range5RangejENCNvNtCsgKOh19surD7_13futures_macro13stream_select13stream_selects0_0EE0E0EB4j_, symObjAddr: 0xED0, symBinAddr: 0x9890, symSize: 0x20 }
  - { offset: 0x13324, size: 0x8, addend: 0x0, symName: __RINvNtCsieiGu2EXtoJ_4core3ptr13drop_in_placeNCINvNvNtNtNtNtB4_4iter6traits8iterator8Iterator8for_each4callNtCsaKzlTDPUHDb_11proc_macro25IdentNCINvMsi_NtCslJiobkLta79_5alloc3vecINtB2o_3VecB1G_E14extend_trustedINtNtNtBT_8adapters3map3MapINtNtNtB4_3ops5range5RangejENCNvNtCsgKOh19surD7_13futures_macro13stream_select13stream_selects_0EE0E0EB4j_, symObjAddr: 0xEF0, symBinAddr: 0x98B0, symSize: 0x20 }
  - { offset: 0x13353, size: 0x8, addend: 0x0, symName: __RINvNtCsieiGu2EXtoJ_4core3ptr13drop_in_placeNCINvNvNtNtNtNtB4_4iter6traits8iterator8Iterator8for_each4callNtCsaKzlTDPUHDb_11proc_macro25IdentNCINvMsi_NtCslJiobkLta79_5alloc3vecINtB2o_3VecB1G_E14extend_trustedINtNtNtBT_8adapters3map3MapINtNtNtB4_3ops5range5RangejENCNvNtCsgKOh19surD7_13futures_macro6select19declare_result_enum0EE0E0EB4j_, symObjAddr: 0xF10, symBinAddr: 0x98D0, symSize: 0x20 }
  - { offset: 0x13382, size: 0x8, addend: 0x0, symName: __RINvNtCsieiGu2EXtoJ_4core3ptr13drop_in_placeNCINvNvNtNtNtNtB4_4iter6traits8iterator8Iterator8for_each4callNtNtCsdGrGZaRBwMb_3syn4expr5IndexNCINvMsi_NtCslJiobkLta79_5alloc3vecINtB2m_3VecB1G_E14extend_trustedINtNtNtBT_8adapters3map3MapINtNtNtB4_3ops5range5RangejENvYB1G_INtNtB4_7convert4FromjE4fromEE0E0ECsgKOh19surD7_13futures_macro, symObjAddr: 0xF30, symBinAddr: 0x98F0, symSize: 0x20 }
  - { offset: 0x133B1, size: 0x8, addend: 0x0, symName: __RINvNtCsieiGu2EXtoJ_4core3ptr13drop_in_placeNCNCINvNtNtCscKtU6MdFI5n_10proc_macro6bridge6client10run_clientNtBN_11TokenStreamINtNtB4_6option6OptionB1H_ENCNCINvMs6_BN_INtBN_6ClientNtBR_11TokenStreamB2R_E7expand1NvCsgKOh19surD7_13futures_macro13join_internalE00E00EB3o_, symObjAddr: 0xF50, symBinAddr: 0x9910, symSize: 0x20 }
  - { offset: 0x133E0, size: 0x8, addend: 0x0, symName: __RINvNtCsieiGu2EXtoJ_4core3ptr13drop_in_placeNCNCINvNtNtCscKtU6MdFI5n_10proc_macro6bridge6client10run_clientNtBN_11TokenStreamINtNtB4_6option6OptionB1H_ENCNCINvMs6_BN_INtBN_6ClientNtBR_11TokenStreamB2R_E7expand1NvCsgKOh19surD7_13futures_macro15select_internalE00E00EB3o_, symObjAddr: 0xF70, symBinAddr: 0x9930, symSize: 0x20 }
  - { offset: 0x1340F, size: 0x8, addend: 0x0, symName: __RINvNtCsieiGu2EXtoJ_4core3ptr13drop_in_placeNCNCINvNtNtCscKtU6MdFI5n_10proc_macro6bridge6client10run_clientNtBN_11TokenStreamINtNtB4_6option6OptionB1H_ENCNCINvMs6_BN_INtBN_6ClientNtBR_11TokenStreamB2R_E7expand1NvCsgKOh19surD7_13futures_macro17try_join_internalE00E00EB3o_, symObjAddr: 0xF90, symBinAddr: 0x9950, symSize: 0x20 }
  - { offset: 0x1343E, size: 0x8, addend: 0x0, symName: __RINvNtCsieiGu2EXtoJ_4core3ptr13drop_in_placeNCNCINvNtNtCscKtU6MdFI5n_10proc_macro6bridge6client10run_clientNtBN_11TokenStreamINtNtB4_6option6OptionB1H_ENCNCINvMs6_BN_INtBN_6ClientNtBR_11TokenStreamB2R_E7expand1NvCsgKOh19surD7_13futures_macro22select_biased_internalE00E00EB3o_, symObjAddr: 0xFB0, symBinAddr: 0x9970, symSize: 0x20 }
  - { offset: 0x1346D, size: 0x8, addend: 0x0, symName: __RINvNtCsieiGu2EXtoJ_4core3ptr13drop_in_placeNCNCINvNtNtCscKtU6MdFI5n_10proc_macro6bridge6client10run_clientNtBN_11TokenStreamINtNtB4_6option6OptionB1H_ENCNCINvMs6_BN_INtBN_6ClientNtBR_11TokenStreamB2R_E7expand1NvCsgKOh19surD7_13futures_macro22stream_select_internalE00E00EB3o_, symObjAddr: 0xFD0, symBinAddr: 0x9990, symSize: 0x20 }
  - { offset: 0x1349C, size: 0x8, addend: 0x0, symName: __RINvNtCsieiGu2EXtoJ_4core3ptr13drop_in_placeNCNCINvNtNtCscKtU6MdFI5n_10proc_macro6bridge6client10run_clientTNtBN_11TokenStreamB1I_EINtNtB4_6option6OptionB1I_ENCNCINvMs7_BN_INtBN_6ClientTNtBR_11TokenStreamB2Y_EB2Y_E7expand2NvCsgKOh19surD7_13futures_macro13test_internalE00E00EB3A_, symObjAddr: 0xFF0, symBinAddr: 0x99B0, symSize: 0x20 }
  - { offset: 0x134CB, size: 0x8, addend: 0x0, symName: __RINvNtCsieiGu2EXtoJ_4core3ptr13drop_in_placeNtNtCsgKOh19surD7_13futures_macro4join4JoinEBK_, symObjAddr: 0x1010, symBinAddr: 0x99D0, symSize: 0x20 }
  - { offset: 0x134FA, size: 0x8, addend: 0x0, symName: __RINvNtCsieiGu2EXtoJ_4core3ptr13drop_in_placeNtNtCsgKOh19surD7_13futures_macro6select6SelectEBK_, symObjAddr: 0x1030, symBinAddr: 0x99F0, symSize: 0xC0 }
  - { offset: 0x13529, size: 0x8, addend: 0x0, symName: __RINvNtCsieiGu2EXtoJ_4core3ptr13drop_in_placeNtNtCsgKOh19surD7_13futures_macro6select8CaseKindEBK_, symObjAddr: 0x10F0, symBinAddr: 0x9AB0, symSize: 0x80 }
  - { offset: 0x13558, size: 0x8, addend: 0x0, symName: __RINvNtCsieiGu2EXtoJ_4core3ptr13drop_in_placeNtNtNtCsHUR1vrdMJt_3std2io5error5ErrorECsgKOh19surD7_13futures_macro, symObjAddr: 0x1170, symBinAddr: 0x9B30, symSize: 0x20 }
  - { offset: 0x13587, size: 0x8, addend: 0x0, symName: __RINvNtCsieiGu2EXtoJ_4core3ptr13drop_in_placeNtNtNtCsHUR1vrdMJt_3std2io5error6CustomECsgKOh19surD7_13futures_macro, symObjAddr: 0x1190, symBinAddr: 0x9B50, symSize: 0x20 }
  - { offset: 0x135B6, size: 0x8, addend: 0x0, symName: __RINvNtCsieiGu2EXtoJ_4core3ptr13drop_in_placeNtNtNtCscKtU6MdFI5n_10proc_macro6bridge3rpc12PanicMessageECsgKOh19surD7_13futures_macro, symObjAddr: 0x11B0, symBinAddr: 0x9B70, symSize: 0x50 }
  - { offset: 0x135E5, size: 0x8, addend: 0x0, symName: __RINvNtCsieiGu2EXtoJ_4core3ptr13drop_in_placeNtNtNtCscKtU6MdFI5n_10proc_macro6bridge6buffer6BufferECsgKOh19surD7_13futures_macro, symObjAddr: 0x1200, symBinAddr: 0x9BC0, symSize: 0x20 }
  - { offset: 0x13614, size: 0x8, addend: 0x0, symName: __RINvNtCsieiGu2EXtoJ_4core3ptr13drop_in_placeNtNtNtCscKtU6MdFI5n_10proc_macro6bridge6client6BridgeECsgKOh19surD7_13futures_macro, symObjAddr: 0x1220, symBinAddr: 0x9BE0, symSize: 0x20 }
  - { offset: 0x13643, size: 0x8, addend: 0x0, symName: __RINvNtCsieiGu2EXtoJ_4core3ptr13drop_in_placeNtNtNtNtCsHUR1vrdMJt_3std2io5error14repr_bitpacked4ReprECsgKOh19surD7_13futures_macro, symObjAddr: 0x1240, symBinAddr: 0x9C00, symSize: 0x20 }
  - { offset: 0x13672, size: 0x8, addend: 0x0, symName: __RINvNtCsieiGu2EXtoJ_4core3ptr13drop_in_placeNtNvNtNtNtCscKtU6MdFI5n_10proc_macro6bridge6client5state3set13RestoreOnDropECsgKOh19surD7_13futures_macro, symObjAddr: 0x1260, symBinAddr: 0x9C20, symSize: 0x20 }
  - { offset: 0x136A1, size: 0x8, addend: 0x0, symName: __RINvNtCsieiGu2EXtoJ_4core3ptr13drop_in_placeSNtCsaKzlTDPUHDb_11proc_macro211TokenStreamECsgKOh19surD7_13futures_macro, symObjAddr: 0x1280, symBinAddr: 0x9C40, symSize: 0xA0 }
  - { offset: 0x136D0, size: 0x8, addend: 0x0, symName: __RINvNtCsieiGu2EXtoJ_4core3ptr13drop_in_placeSNtCsaKzlTDPUHDb_11proc_macro25IdentECsgKOh19surD7_13futures_macro, symObjAddr: 0x1320, symBinAddr: 0x9CE0, symSize: 0xA0 }
  - { offset: 0x136FF, size: 0x8, addend: 0x0, symName: __RINvNtCsieiGu2EXtoJ_4core3ptr13drop_in_placeSNtNtCsdGrGZaRBwMb_3syn4expr4ExprECsgKOh19surD7_13futures_macro, symObjAddr: 0x13C0, symBinAddr: 0x9D80, symSize: 0xA0 }
  - { offset: 0x1372E, size: 0x8, addend: 0x0, symName: __RINvNtCsieiGu2EXtoJ_4core3ptr13drop_in_placeSNtNtCsdGrGZaRBwMb_3syn4expr8ExprPathECsgKOh19surD7_13futures_macro, symObjAddr: 0x1460, symBinAddr: 0x9E20, symSize: 0xA0 }
  - { offset: 0x1375D, size: 0x8, addend: 0x0, symName: __RINvNtCsieiGu2EXtoJ_4core3ptr13drop_in_placeSTNtNtCsdGrGZaRBwMb_3syn3pat3PatNtNtBM_4expr4ExprEECsgKOh19surD7_13futures_macro, symObjAddr: 0x1500, symBinAddr: 0x9EC0, symSize: 0xA0 }
  - { offset: 0x1378C, size: 0x8, addend: 0x0, symName: __RINvNtCsieiGu2EXtoJ_4core3ptr13drop_in_placeTNtNtCsdGrGZaRBwMb_3syn3pat3PatNtNtBL_4expr4ExprEECsgKOh19surD7_13futures_macro, symObjAddr: 0x15A0, symBinAddr: 0x9F60, symSize: 0x60 }
  - { offset: 0x137BB, size: 0x8, addend: 0x0, symName: __RINvNtCsieiGu2EXtoJ_4core3ptr13drop_in_placeTNtNtNtCscKtU6MdFI5n_10proc_macro6bridge6client11TokenStreamBH_EECsgKOh19surD7_13futures_macro, symObjAddr: 0x1600, symBinAddr: 0x9FC0, symSize: 0x60 }
  - { offset: 0x138BF, size: 0x8, addend: 0x0, symName: __RNvNvNtCsieiGu2EXtoJ_4core3ptr19copy_nonoverlapping18precondition_checkCsgKOh19surD7_13futures_macro, symObjAddr: 0x3EF0, symBinAddr: 0xC8B0, symSize: 0x4B0 }
  - { offset: 0x13CA6, size: 0x8, addend: 0x0, symName: __RINvNtCsieiGu2EXtoJ_4core9panicking13panic_displayNtNtCsdGrGZaRBwMb_3syn5error5ErrorECsgKOh19surD7_13futures_macro, symObjAddr: 0x1660, symBinAddr: 0xA020, symSize: 0xA0 }
  - { offset: 0x13E8A, size: 0x8, addend: 0x0, symName: __RNvNvMs9_NtCsieiGu2EXtoJ_4core3numj13unchecked_add18precondition_checkCsgKOh19surD7_13futures_macro, symObjAddr: 0x3DB0, symBinAddr: 0xC770, symSize: 0xA0 }
  - { offset: 0x13F48, size: 0x8, addend: 0x0, symName: __RNvNvMs9_NtCsieiGu2EXtoJ_4core3numj13unchecked_mul18precondition_checkCsgKOh19surD7_13futures_macro, symObjAddr: 0x3E50, symBinAddr: 0xC810, symSize: 0xA0 }
  - { offset: 0x1403A, size: 0x8, addend: 0x0, symName: __RNvNvMs3_NtCsieiGu2EXtoJ_4core3numi13unchecked_neg18precondition_checkCsgKOh19surD7_13futures_macro, symObjAddr: 0x3D00, symBinAddr: 0xC6C0, symSize: 0xB0 }
  - { offset: 0x17069, size: 0x8, addend: 0x0, symName: __RNvMNtCsieiGu2EXtoJ_4core5sliceSNtNtCsdGrGZaRBwMb_3syn4stmt4Stmt4lastCsgKOh19surD7_13futures_macro, symObjAddr: 0x3810, symBinAddr: 0xC1D0, symSize: 0x50 }
  - { offset: 0x17B4D, size: 0x8, addend: 0x0, symName: __RNvXsn_NtNtCsieiGu2EXtoJ_4core5panic11unwind_safeINtB5_16AssertUnwindSafeNCINvNtNtCscKtU6MdFI5n_10proc_macro6bridge6client10run_clientNtB1e_11TokenStreamINtNtB9_6option6OptionB28_ENCNCINvMs6_B1e_INtB1e_6ClientNtB1i_11TokenStreamB3l_E7expand1NvCsgKOh19surD7_13futures_macro13join_internalE00E0EINtNtNtB9_3ops8function6FnOnceuE9call_onceB3T_, symObjAddr: 0x6650, symBinAddr: 0xF010, symSize: 0x30 }
  - { offset: 0x17BA5, size: 0x8, addend: 0x0, symName: __RNvXsn_NtNtCsieiGu2EXtoJ_4core5panic11unwind_safeINtB5_16AssertUnwindSafeNCINvNtNtCscKtU6MdFI5n_10proc_macro6bridge6client10run_clientNtB1e_11TokenStreamINtNtB9_6option6OptionB28_ENCNCINvMs6_B1e_INtB1e_6ClientNtB1i_11TokenStreamB3l_E7expand1NvCsgKOh19surD7_13futures_macro15select_internalE00E0EINtNtNtB9_3ops8function6FnOnceuE9call_onceB3T_, symObjAddr: 0x6680, symBinAddr: 0xF040, symSize: 0x30 }
  - { offset: 0x17BFD, size: 0x8, addend: 0x0, symName: __RNvXsn_NtNtCsieiGu2EXtoJ_4core5panic11unwind_safeINtB5_16AssertUnwindSafeNCINvNtNtCscKtU6MdFI5n_10proc_macro6bridge6client10run_clientNtB1e_11TokenStreamINtNtB9_6option6OptionB28_ENCNCINvMs6_B1e_INtB1e_6ClientNtB1i_11TokenStreamB3l_E7expand1NvCsgKOh19surD7_13futures_macro17try_join_internalE00E0EINtNtNtB9_3ops8function6FnOnceuE9call_onceB3T_, symObjAddr: 0x66B0, symBinAddr: 0xF070, symSize: 0x30 }
  - { offset: 0x17C55, size: 0x8, addend: 0x0, symName: __RNvXsn_NtNtCsieiGu2EXtoJ_4core5panic11unwind_safeINtB5_16AssertUnwindSafeNCINvNtNtCscKtU6MdFI5n_10proc_macro6bridge6client10run_clientNtB1e_11TokenStreamINtNtB9_6option6OptionB28_ENCNCINvMs6_B1e_INtB1e_6ClientNtB1i_11TokenStreamB3l_E7expand1NvCsgKOh19surD7_13futures_macro22select_biased_internalE00E0EINtNtNtB9_3ops8function6FnOnceuE9call_onceB3T_, symObjAddr: 0x66E0, symBinAddr: 0xF0A0, symSize: 0x30 }
  - { offset: 0x17CAD, size: 0x8, addend: 0x0, symName: __RNvXsn_NtNtCsieiGu2EXtoJ_4core5panic11unwind_safeINtB5_16AssertUnwindSafeNCINvNtNtCscKtU6MdFI5n_10proc_macro6bridge6client10run_clientNtB1e_11TokenStreamINtNtB9_6option6OptionB28_ENCNCINvMs6_B1e_INtB1e_6ClientNtB1i_11TokenStreamB3l_E7expand1NvCsgKOh19surD7_13futures_macro22stream_select_internalE00E0EINtNtNtB9_3ops8function6FnOnceuE9call_onceB3T_, symObjAddr: 0x6710, symBinAddr: 0xF0D0, symSize: 0x30 }
  - { offset: 0x17D05, size: 0x8, addend: 0x0, symName: __RNvXsn_NtNtCsieiGu2EXtoJ_4core5panic11unwind_safeINtB5_16AssertUnwindSafeNCINvNtNtCscKtU6MdFI5n_10proc_macro6bridge6client10run_clientTNtB1e_11TokenStreamB29_EINtNtB9_6option6OptionB29_ENCNCINvMs7_B1e_INtB1e_6ClientTNtB1i_11TokenStreamB3s_EB3s_E7expand2NvCsgKOh19surD7_13futures_macro13test_internalE00E0EINtNtNtB9_3ops8function6FnOnceuE9call_onceB45_, symObjAddr: 0x6740, symBinAddr: 0xF100, symSize: 0x30 }
  - { offset: 0x17E28, size: 0x8, addend: 0x0, symName: __RINvXs0_NtNtNtCsieiGu2EXtoJ_4core4iter8adapters3mapINtB6_3MapINtNtB8_3zip3ZipINtNtNtCslJiobkLta79_5alloc3vec9into_iter8IntoIterNtNtCsdGrGZaRBwMb_3syn4expr4ExprEINtNtNtBc_5slice4iter4IterNtCsaKzlTDPUHDb_11proc_macro25IdentEENCNvNtCsgKOh19surD7_13futures_macro6select12select_inner0ENtNtNtBa_6traits8iterator8Iterator8try_foldINtNtB1i_13in_place_drop11InPlaceDropNtB23_8ExprPathENCINvNtB1i_16in_place_collect24write_in_place_with_dropB5N_E0INtNtBc_6result6ResultB5c_zEEB3F_, symObjAddr: 0x27C0, symBinAddr: 0xB180, symSize: 0x40 }
  - { offset: 0x17EA6, size: 0x8, addend: 0x0, symName: __RINvXs0_NtNtNtCsieiGu2EXtoJ_4core4iter8adapters3mapINtB6_3MapINtNtB8_9enumerate9EnumerateINtNtNtCslJiobkLta79_5alloc3vec9into_iter8IntoIterNtNtCsdGrGZaRBwMb_3syn4expr4ExprEENCNvNtCsgKOh19surD7_13futures_macro4join12bind_futures0ENtNtNtBa_6traits8iterator8Iterator8try_foldINtNtB1u_13in_place_drop11InPlaceDropNtCsaKzlTDPUHDb_11proc_macro25IdentENCINvNtB1u_16in_place_collect24write_in_place_with_dropB4X_E0INtNtBc_6result6ResultB4m_zEEB2R_, symObjAddr: 0x2800, symBinAddr: 0xB1C0, symSize: 0x40 }
  - { offset: 0x17F24, size: 0x8, addend: 0x0, symName: __RINvXs0_NtNtNtCsieiGu2EXtoJ_4core4iter8adapters3mapINtB6_3MapINtNtNtBc_3ops5range5RangejENCNvNtCsgKOh19surD7_13futures_macro13stream_select13stream_select0ENtNtNtBa_6traits8iterator8Iterator4folduNCINvNvB2u_8for_each4callNtCsaKzlTDPUHDb_11proc_macro25IdentNCINvMsi_NtCslJiobkLta79_5alloc3vecINtB4f_3VecB3x_E14extend_trustedBN_E0E0EB1v_, symObjAddr: 0x2840, symBinAddr: 0xB200, symSize: 0x40 }
  - { offset: 0x17FBB, size: 0x8, addend: 0x0, symName: __RINvXs0_NtNtNtCsieiGu2EXtoJ_4core4iter8adapters3mapINtB6_3MapINtNtNtBc_3ops5range5RangejENCNvNtCsgKOh19surD7_13futures_macro13stream_select13stream_selects0_0ENtNtNtBa_6traits8iterator8Iterator4folduNCINvNvB2x_8for_each4callNtCsaKzlTDPUHDb_11proc_macro25IdentNCINvMsi_NtCslJiobkLta79_5alloc3vecINtB4i_3VecB3A_E14extend_trustedBN_E0E0EB1v_, symObjAddr: 0x2880, symBinAddr: 0xB240, symSize: 0x40 }
  - { offset: 0x18052, size: 0x8, addend: 0x0, symName: __RINvXs0_NtNtNtCsieiGu2EXtoJ_4core4iter8adapters3mapINtB6_3MapINtNtNtBc_3ops5range5RangejENCNvNtCsgKOh19surD7_13futures_macro13stream_select13stream_selects_0ENtNtNtBa_6traits8iterator8Iterator4folduNCINvNvB2w_8for_each4callNtCsaKzlTDPUHDb_11proc_macro25IdentNCINvMsi_NtCslJiobkLta79_5alloc3vecINtB4h_3VecB3z_E14extend_trustedBN_E0E0EB1v_, symObjAddr: 0x28C0, symBinAddr: 0xB280, symSize: 0x40 }
  - { offset: 0x180E9, size: 0x8, addend: 0x0, symName: __RINvXs0_NtNtNtCsieiGu2EXtoJ_4core4iter8adapters3mapINtB6_3MapINtNtNtBc_3ops5range5RangejENCNvNtCsgKOh19surD7_13futures_macro6select19declare_result_enum0ENtNtNtBa_6traits8iterator8Iterator4folduNCINvNvB2s_8for_each4callNtCsaKzlTDPUHDb_11proc_macro25IdentNCINvMsi_NtCslJiobkLta79_5alloc3vecINtB4d_3VecB3v_E14extend_trustedBN_E0E0EB1v_, symObjAddr: 0x2900, symBinAddr: 0xB2C0, symSize: 0x50 }
  - { offset: 0x18182, size: 0x8, addend: 0x0, symName: __RINvXs0_NtNtNtCsieiGu2EXtoJ_4core4iter8adapters3mapINtB6_3MapINtNtNtBc_3ops5range5RangejENvYNtNtCsdGrGZaRBwMb_3syn4expr5IndexINtNtBc_7convert4FromjE4fromENtNtNtBa_6traits8iterator8Iterator4folduNCINvNvB2s_8for_each4callB1s_NCINvMsi_NtCslJiobkLta79_5alloc3vecINtB3I_3VecB1s_E14extend_trustedBN_E0E0ECsgKOh19surD7_13futures_macro, symObjAddr: 0x2950, symBinAddr: 0xB310, symSize: 0x40 }
  - { offset: 0x18219, size: 0x8, addend: 0x0, symName: __RNvXs0_NtNtNtCsieiGu2EXtoJ_4core4iter8adapters3mapINtB5_3MapINtNtB7_3zip3ZipINtNtNtBb_5slice4iter4IterNtNtCsdGrGZaRBwMb_3syn4expr8ExprPathEIB1d_NtCsaKzlTDPUHDb_11proc_macro25IdentEENCNvNtCsgKOh19surD7_13futures_macro6select12select_inners_0ENtNtNtB9_6traits8iterator8Iterator4nextB2Z_, symObjAddr: 0x47F0, symBinAddr: 0xD1B0, symSize: 0xD0 }
  - { offset: 0x182C6, size: 0x8, addend: 0x0, symName: __RNvXs0_NtNtNtCsieiGu2EXtoJ_4core4iter8adapters3mapINtB5_3MapINtNtB7_3zip3ZipINtNtNtCslJiobkLta79_5alloc3vec9into_iter8IntoIterTNtNtCsdGrGZaRBwMb_3syn3pat3PatNtNtB25_4expr4ExprEEINtNtNtBb_5slice4iter4IterNtCsaKzlTDPUHDb_11proc_macro25IdentEENCNvNtCsgKOh19surD7_13futures_macro6select12select_inners0_0ENtNtNtB9_6traits8iterator8Iterator4nextB3W_, symObjAddr: 0x48C0, symBinAddr: 0xD280, symSize: 0x110 }
  - { offset: 0x18375, size: 0x8, addend: 0x0, symName: __RNvXs0_NtNtNtCsieiGu2EXtoJ_4core4iter8adapters3mapINtB5_3MapINtNtCsdGrGZaRBwMb_3syn10punctuated4IterNtNtB11_4expr4ExprENCNvNtCsgKOh19surD7_13futures_macro13stream_select13stream_selects1_0ENtNtNtB9_6traits8iterator8Iterator4nextB1Z_, symObjAddr: 0x49D0, symBinAddr: 0xD390, symSize: 0xB0 }
  - { offset: 0x18422, size: 0x8, addend: 0x0, symName: __RNvXs0_NtNtNtCsieiGu2EXtoJ_4core4iter8adapters3mapINtB5_3MapINtNtNtBb_3ops5range5RangejENCNvNtCsgKOh19surD7_13futures_macro13stream_select13stream_select0ENtNtNtB9_6traits8iterator8Iterator9size_hintB1u_, symObjAddr: 0x4A80, symBinAddr: 0xD440, symSize: 0x30 }
  - { offset: 0x18469, size: 0x8, addend: 0x0, symName: __RNvXs0_NtNtNtCsieiGu2EXtoJ_4core4iter8adapters3mapINtB5_3MapINtNtNtBb_3ops5range5RangejENCNvNtCsgKOh19surD7_13futures_macro13stream_select13stream_selects0_0ENtNtNtB9_6traits8iterator8Iterator9size_hintB1u_, symObjAddr: 0x4AB0, symBinAddr: 0xD470, symSize: 0x30 }
  - { offset: 0x184B0, size: 0x8, addend: 0x0, symName: __RNvXs0_NtNtNtCsieiGu2EXtoJ_4core4iter8adapters3mapINtB5_3MapINtNtNtBb_3ops5range5RangejENCNvNtCsgKOh19surD7_13futures_macro13stream_select13stream_selects_0ENtNtNtB9_6traits8iterator8Iterator9size_hintB1u_, symObjAddr: 0x4AE0, symBinAddr: 0xD4A0, symSize: 0x30 }
  - { offset: 0x184F7, size: 0x8, addend: 0x0, symName: __RNvXs0_NtNtNtCsieiGu2EXtoJ_4core4iter8adapters3mapINtB5_3MapINtNtNtBb_3ops5range5RangejENCNvNtCsgKOh19surD7_13futures_macro6select19declare_result_enum0ENtNtNtB9_6traits8iterator8Iterator9size_hintB1u_, symObjAddr: 0x4B10, symBinAddr: 0xD4D0, symSize: 0x30 }
  - { offset: 0x1853E, size: 0x8, addend: 0x0, symName: __RNvXs0_NtNtNtCsieiGu2EXtoJ_4core4iter8adapters3mapINtB5_3MapINtNtNtBb_3ops5range5RangejENvYNtNtCsdGrGZaRBwMb_3syn4expr5IndexINtNtBb_7convert4FromjE4fromENtNtNtB9_6traits8iterator8Iterator9size_hintCsgKOh19surD7_13futures_macro, symObjAddr: 0x4B40, symBinAddr: 0xD500, symSize: 0x30 }
  - { offset: 0x18585, size: 0x8, addend: 0x0, symName: __RNvXs0_NtNtNtCsieiGu2EXtoJ_4core4iter8adapters3mapINtB5_3MapINtNtNtBb_5slice4iter4IterNtCsaKzlTDPUHDb_11proc_macro25IdentENCNvNtCsgKOh19surD7_13futures_macro4join4join0ENtNtNtB9_6traits8iterator8Iterator4nextB22_, symObjAddr: 0x4B70, symBinAddr: 0xD530, symSize: 0xB0 }
  - { offset: 0x18632, size: 0x8, addend: 0x0, symName: __RNvXs0_NtNtNtCsieiGu2EXtoJ_4core4iter8adapters3mapINtB5_3MapINtNtNtBb_5slice4iter4IterNtCsaKzlTDPUHDb_11proc_macro25IdentENCNvNtCsgKOh19surD7_13futures_macro4join4joins_0ENtNtNtB9_6traits8iterator8Iterator4nextB22_, symObjAddr: 0x4C20, symBinAddr: 0xD5E0, symSize: 0xB0 }
  - { offset: 0x186DF, size: 0x8, addend: 0x0, symName: __RNvXs0_NtNtNtCsieiGu2EXtoJ_4core4iter8adapters3mapINtB5_3MapINtNtNtBb_5slice4iter4IterNtCsaKzlTDPUHDb_11proc_macro25IdentENCNvNtCsgKOh19surD7_13futures_macro4join8try_join0ENtNtNtB9_6traits8iterator8Iterator4nextB22_, symObjAddr: 0x4CD0, symBinAddr: 0xD690, symSize: 0xB0 }
  - { offset: 0x1878C, size: 0x8, addend: 0x0, symName: __RNvXs0_NtNtNtCsieiGu2EXtoJ_4core4iter8adapters3mapINtB5_3MapINtNtNtBb_5slice4iter4IterNtCsaKzlTDPUHDb_11proc_macro25IdentENCNvNtCsgKOh19surD7_13futures_macro4join8try_joins_0ENtNtNtB9_6traits8iterator8Iterator4nextB22_, symObjAddr: 0x4D80, symBinAddr: 0xD740, symSize: 0xB0 }
  - { offset: 0x18929, size: 0x8, addend: 0x0, symName: __RNCINvNtNtNtCsieiGu2EXtoJ_4core4iter8adapters3map8map_foldjNtCsaKzlTDPUHDb_11proc_macro25IdentuNCNvNtCsgKOh19surD7_13futures_macro13stream_select13stream_select0NCINvNvNtNtNtB8_6traits8iterator8Iterator8for_each4callBV_NCINvMsi_NtCslJiobkLta79_5alloc3vecINtB3E_3VecBV_E14extend_trustedINtB4_3MapINtNtNtBa_3ops5range5RangejEB1v_EE0E0E0B1B_, symObjAddr: 0x33C0, symBinAddr: 0xBD80, symSize: 0x80 }
  - { offset: 0x189AE, size: 0x8, addend: 0x0, symName: __RNCINvNtNtNtCsieiGu2EXtoJ_4core4iter8adapters3map8map_foldjNtCsaKzlTDPUHDb_11proc_macro25IdentuNCNvNtCsgKOh19surD7_13futures_macro13stream_select13stream_selects0_0NCINvNvNtNtNtB8_6traits8iterator8Iterator8for_each4callBV_NCINvMsi_NtCslJiobkLta79_5alloc3vecINtB3H_3VecBV_E14extend_trustedINtB4_3MapINtNtNtBa_3ops5range5RangejEB1v_EE0E0E0B1B_, symObjAddr: 0x3440, symBinAddr: 0xBE00, symSize: 0x80 }
  - { offset: 0x18A33, size: 0x8, addend: 0x0, symName: __RNCINvNtNtNtCsieiGu2EXtoJ_4core4iter8adapters3map8map_foldjNtCsaKzlTDPUHDb_11proc_macro25IdentuNCNvNtCsgKOh19surD7_13futures_macro13stream_select13stream_selects_0NCINvNvNtNtNtB8_6traits8iterator8Iterator8for_each4callBV_NCINvMsi_NtCslJiobkLta79_5alloc3vecINtB3G_3VecBV_E14extend_trustedINtB4_3MapINtNtNtBa_3ops5range5RangejEB1v_EE0E0E0B1B_, symObjAddr: 0x34C0, symBinAddr: 0xBE80, symSize: 0x80 }
  - { offset: 0x18AB8, size: 0x8, addend: 0x0, symName: __RNCINvNtNtNtCsieiGu2EXtoJ_4core4iter8adapters3map8map_foldjNtCsaKzlTDPUHDb_11proc_macro25IdentuNCNvNtCsgKOh19surD7_13futures_macro6select19declare_result_enum0NCINvNvNtNtNtB8_6traits8iterator8Iterator8for_each4callBV_NCINvMsi_NtCslJiobkLta79_5alloc3vecINtB3C_3VecBV_E14extend_trustedINtB4_3MapINtNtNtBa_3ops5range5RangejEB1v_EE0E0E0B1B_, symObjAddr: 0x3540, symBinAddr: 0xBF00, symSize: 0x80 }
  - { offset: 0x18B3D, size: 0x8, addend: 0x0, symName: __RNCINvNtNtNtCsieiGu2EXtoJ_4core4iter8adapters3map8map_foldjNtNtCsdGrGZaRBwMb_3syn4expr5IndexuNvYBV_INtNtBa_7convert4FromjE4fromNCINvNvNtNtNtB8_6traits8iterator8Iterator8for_each4callBV_NCINvMsi_NtCslJiobkLta79_5alloc3vecINtB36_3VecBV_E14extend_trustedINtB4_3MapINtNtNtBa_3ops5range5RangejEB1t_EE0E0E0CsgKOh19surD7_13futures_macro, symObjAddr: 0x35C0, symBinAddr: 0xBF80, symSize: 0x70 }
  - { offset: 0x18E35, size: 0x8, addend: 0x0, symName: __RNCINvNtNtNtCsieiGu2EXtoJ_4core4iter8adapters3map12map_try_foldTNtNtCsdGrGZaRBwMb_3syn4expr4ExprRNtCsaKzlTDPUHDb_11proc_macro25IdentENtB12_8ExprPathINtNtNtCslJiobkLta79_5alloc3vec13in_place_drop11InPlaceDropB27_EINtNtBa_6result6ResultB2m_zENCNvNtCsgKOh19surD7_13futures_macro6select12select_inner0NCINvNtB2r_16in_place_collect24write_in_place_with_dropB27_E0E0B3W_, symObjAddr: 0x3110, symBinAddr: 0xBAD0, symSize: 0x150 }
  - { offset: 0x18EC8, size: 0x8, addend: 0x0, symName: __RNCINvNtNtNtCsieiGu2EXtoJ_4core4iter8adapters3map12map_try_foldTjNtNtCsdGrGZaRBwMb_3syn4expr4ExprENtCsaKzlTDPUHDb_11proc_macro25IdentINtNtNtCslJiobkLta79_5alloc3vec13in_place_drop11InPlaceDropB1y_EINtNtBa_6result6ResultB27_zENCNvNtCsgKOh19surD7_13futures_macro4join12bind_futures0NCINvNtB2c_16in_place_collect24write_in_place_with_dropB1y_E0E0B3H_, symObjAddr: 0x3260, symBinAddr: 0xBC20, symSize: 0x160 }
  - { offset: 0x18F7F, size: 0x8, addend: 0x0, symName: __RNvXs9_NtNtNtCsieiGu2EXtoJ_4core4iter8adapters3mapINtB5_3MapINtNtB7_3zip3ZipINtNtNtCslJiobkLta79_5alloc3vec9into_iter8IntoIterNtNtCsdGrGZaRBwMb_3syn4expr4ExprEINtNtNtBb_5slice4iter4IterNtCsaKzlTDPUHDb_11proc_macro25IdentEENCNvNtCsgKOh19surD7_13futures_macro6select12select_inner0ENtB7_10SourceIter8as_innerB3E_, symObjAddr: 0x54F0, symBinAddr: 0xDEB0, symSize: 0x20 }
  - { offset: 0x18FBD, size: 0x8, addend: 0x0, symName: __RNvXs9_NtNtNtCsieiGu2EXtoJ_4core4iter8adapters3mapINtB5_3MapINtNtB7_9enumerate9EnumerateINtNtNtCslJiobkLta79_5alloc3vec9into_iter8IntoIterNtNtCsdGrGZaRBwMb_3syn4expr4ExprEENCNvNtCsgKOh19surD7_13futures_macro4join12bind_futures0ENtB7_10SourceIter8as_innerB2Q_, symObjAddr: 0x5510, symBinAddr: 0xDED0, symSize: 0x20 }
  - { offset: 0x19319, size: 0x8, addend: 0x0, symName: __RNvXs1_NtNtNtCsieiGu2EXtoJ_4core4iter8adapters3zipINtB5_3ZipINtNtNtCslJiobkLta79_5alloc3vec9into_iter8IntoIterNtNtCsdGrGZaRBwMb_3syn4expr4ExprEINtNtNtBb_5slice4iter4IterNtCsaKzlTDPUHDb_11proc_macro25IdentEEINtB5_7ZipImplBW_B2h_E3newCsgKOh19surD7_13futures_macro, symObjAddr: 0x4E30, symBinAddr: 0xD7F0, symSize: 0x50 }
  - { offset: 0x19366, size: 0x8, addend: 0x0, symName: __RNvXs1_NtNtNtCsieiGu2EXtoJ_4core4iter8adapters3zipINtB5_3ZipINtNtNtCslJiobkLta79_5alloc3vec9into_iter8IntoIterNtNtCsdGrGZaRBwMb_3syn4expr4ExprEINtNtNtBb_5slice4iter4IterNtCsaKzlTDPUHDb_11proc_macro25IdentEEINtB5_7ZipImplBW_B2h_E4nextCsgKOh19surD7_13futures_macro, symObjAddr: 0x4E80, symBinAddr: 0xD840, symSize: 0x210 }
  - { offset: 0x194CA, size: 0x8, addend: 0x0, symName: __RNvXs1_NtNtNtCsieiGu2EXtoJ_4core4iter8adapters3zipINtB5_3ZipINtNtNtCslJiobkLta79_5alloc3vec9into_iter8IntoIterTNtNtCsdGrGZaRBwMb_3syn3pat3PatNtNtB1P_4expr4ExprEEINtNtNtBb_5slice4iter4IterNtCsaKzlTDPUHDb_11proc_macro25IdentEEINtB5_7ZipImplBW_B2z_E3newCsgKOh19surD7_13futures_macro, symObjAddr: 0x5090, symBinAddr: 0xDA50, symSize: 0x50 }
  - { offset: 0x19517, size: 0x8, addend: 0x0, symName: __RNvXs1_NtNtNtCsieiGu2EXtoJ_4core4iter8adapters3zipINtB5_3ZipINtNtNtCslJiobkLta79_5alloc3vec9into_iter8IntoIterTNtNtCsdGrGZaRBwMb_3syn3pat3PatNtNtB1P_4expr4ExprEEINtNtNtBb_5slice4iter4IterNtCsaKzlTDPUHDb_11proc_macro25IdentEEINtB5_7ZipImplBW_B2z_E4nextCsgKOh19surD7_13futures_macro, symObjAddr: 0x50E0, symBinAddr: 0xDAA0, symSize: 0x210 }
  - { offset: 0x19681, size: 0x8, addend: 0x0, symName: __RNvXs3_NtNtNtCsieiGu2EXtoJ_4core4iter8adapters3zipINtB5_3ZipINtNtNtBb_5slice4iter4IterNtNtCsdGrGZaRBwMb_3syn4expr8ExprPathEIBX_NtCsaKzlTDPUHDb_11proc_macro25IdentEEINtB5_7ZipImplBW_B1X_E3newCsgKOh19surD7_13futures_macro, symObjAddr: 0x52F0, symBinAddr: 0xDCB0, symSize: 0xC0 }
  - { offset: 0x19715, size: 0x8, addend: 0x0, symName: __RNvXs3_NtNtNtCsieiGu2EXtoJ_4core4iter8adapters3zipINtB5_3ZipINtNtNtBb_5slice4iter4IterNtNtCsdGrGZaRBwMb_3syn4expr8ExprPathEIBX_NtCsaKzlTDPUHDb_11proc_macro25IdentEEINtB5_7ZipImplBW_B1X_E4nextCsgKOh19surD7_13futures_macro, symObjAddr: 0x53B0, symBinAddr: 0xDD70, symSize: 0xA0 }
  - { offset: 0x19771, size: 0x8, addend: 0x0, symName: __RNvXs_NtNtNtCsieiGu2EXtoJ_4core4iter8adapters3zipINtB4_3ZipINtNtNtBa_5slice4iter4IterNtNtCsdGrGZaRBwMb_3syn4expr8ExprPathEIBW_NtCsaKzlTDPUHDb_11proc_macro25IdentEENtNtNtB8_6traits8iterator8Iterator4nextCsgKOh19surD7_13futures_macro, symObjAddr: 0x55C0, symBinAddr: 0xDF80, symSize: 0x20 }
  - { offset: 0x197AF, size: 0x8, addend: 0x0, symName: __RNvXs_NtNtNtCsieiGu2EXtoJ_4core4iter8adapters3zipINtB4_3ZipINtNtNtCslJiobkLta79_5alloc3vec9into_iter8IntoIterNtNtCsdGrGZaRBwMb_3syn4expr4ExprEINtNtNtBa_5slice4iter4IterNtCsaKzlTDPUHDb_11proc_macro25IdentEENtNtNtB8_6traits8iterator8Iterator4nextCsgKOh19surD7_13futures_macro, symObjAddr: 0x55E0, symBinAddr: 0xDFA0, symSize: 0x30 }
  - { offset: 0x197ED, size: 0x8, addend: 0x0, symName: __RNvXs_NtNtNtCsieiGu2EXtoJ_4core4iter8adapters3zipINtB4_3ZipINtNtNtCslJiobkLta79_5alloc3vec9into_iter8IntoIterTNtNtCsdGrGZaRBwMb_3syn3pat3PatNtNtB1O_4expr4ExprEEINtNtNtBa_5slice4iter4IterNtCsaKzlTDPUHDb_11proc_macro25IdentEENtNtNtB8_6traits8iterator8Iterator4nextCsgKOh19surD7_13futures_macro, symObjAddr: 0x5610, symBinAddr: 0xDFD0, symSize: 0x30 }
  - { offset: 0x19831, size: 0x8, addend: 0x0, symName: __RNvXsb_NtNtNtCsieiGu2EXtoJ_4core4iter8adapters3zipINtB5_3ZipINtNtNtCslJiobkLta79_5alloc3vec9into_iter8IntoIterNtNtCsdGrGZaRBwMb_3syn4expr4ExprEINtNtNtBb_5slice4iter4IterNtCsaKzlTDPUHDb_11proc_macro25IdentEENtB7_10SourceIter8as_innerCsgKOh19surD7_13futures_macro, symObjAddr: 0x5640, symBinAddr: 0xE000, symSize: 0x20 }
  - { offset: 0x1991C, size: 0x8, addend: 0x0, symName: __RNCINvNvNtNtNtNtCsieiGu2EXtoJ_4core4iter6traits8iterator8Iterator8for_each4callNtCsaKzlTDPUHDb_11proc_macro25IdentNCINvMsi_NtCslJiobkLta79_5alloc3vecINtB1X_3VecB1f_E14extend_trustedINtNtNtBc_8adapters3map3MapINtNtNtBe_3ops5range5RangejENCNvNtCsgKOh19surD7_13futures_macro13stream_select13stream_select0EE0E0B3S_, symObjAddr: 0x3630, symBinAddr: 0xBFF0, symSize: 0x40 }
  - { offset: 0x19975, size: 0x8, addend: 0x0, symName: __RNCINvNvNtNtNtNtCsieiGu2EXtoJ_4core4iter6traits8iterator8Iterator8for_each4callNtCsaKzlTDPUHDb_11proc_macro25IdentNCINvMsi_NtCslJiobkLta79_5alloc3vecINtB1X_3VecB1f_E14extend_trustedINtNtNtBc_8adapters3map3MapINtNtNtBe_3ops5range5RangejENCNvNtCsgKOh19surD7_13futures_macro13stream_select13stream_selects0_0EE0E0B3S_, symObjAddr: 0x3670, symBinAddr: 0xC030, symSize: 0x40 }
  - { offset: 0x199CE, size: 0x8, addend: 0x0, symName: __RNCINvNvNtNtNtNtCsieiGu2EXtoJ_4core4iter6traits8iterator8Iterator8for_each4callNtCsaKzlTDPUHDb_11proc_macro25IdentNCINvMsi_NtCslJiobkLta79_5alloc3vecINtB1X_3VecB1f_E14extend_trustedINtNtNtBc_8adapters3map3MapINtNtNtBe_3ops5range5RangejENCNvNtCsgKOh19surD7_13futures_macro13stream_select13stream_selects_0EE0E0B3S_, symObjAddr: 0x36B0, symBinAddr: 0xC070, symSize: 0x40 }
  - { offset: 0x19A27, size: 0x8, addend: 0x0, symName: __RNCINvNvNtNtNtNtCsieiGu2EXtoJ_4core4iter6traits8iterator8Iterator8for_each4callNtCsaKzlTDPUHDb_11proc_macro25IdentNCINvMsi_NtCslJiobkLta79_5alloc3vecINtB1X_3VecB1f_E14extend_trustedINtNtNtBc_8adapters3map3MapINtNtNtBe_3ops5range5RangejENCNvNtCsgKOh19surD7_13futures_macro6select19declare_result_enum0EE0E0B3S_, symObjAddr: 0x36F0, symBinAddr: 0xC0B0, symSize: 0x40 }
  - { offset: 0x19A80, size: 0x8, addend: 0x0, symName: __RNCINvNvNtNtNtNtCsieiGu2EXtoJ_4core4iter6traits8iterator8Iterator8for_each4callNtNtCsdGrGZaRBwMb_3syn4expr5IndexNCINvMsi_NtCslJiobkLta79_5alloc3vecINtB1V_3VecB1f_E14extend_trustedINtNtNtBc_8adapters3map3MapINtNtNtBe_3ops5range5RangejENvYB1f_INtNtBe_7convert4FromjE4fromEE0E0CsgKOh19surD7_13futures_macro, symObjAddr: 0x3730, symBinAddr: 0xC0F0, symSize: 0x20 }
  - { offset: 0x19BCA, size: 0x8, addend: 0x0, symName: __RINvYINtNtNtNtCsieiGu2EXtoJ_4core4iter8adapters3map3MapINtNtB8_3zip3ZipINtNtNtCslJiobkLta79_5alloc3vec9into_iter8IntoIterNtNtCsdGrGZaRBwMb_3syn4expr4ExprEINtNtNtBc_5slice4iter4IterNtCsaKzlTDPUHDb_11proc_macro25IdentEENCNvNtCsgKOh19surD7_13futures_macro6select12select_inner0ENtNtNtBa_6traits8iterator8Iterator7collectINtB1c_3VecNtB1X_8ExprPathEEB3z_, symObjAddr: 0x2990, symBinAddr: 0xB350, symSize: 0x70 }
  - { offset: 0x19C60, size: 0x8, addend: 0x0, symName: __RINvYINtNtNtNtCsieiGu2EXtoJ_4core4iter8adapters3map3MapINtNtB8_9enumerate9EnumerateINtNtNtCslJiobkLta79_5alloc3vec9into_iter8IntoIterNtNtCsdGrGZaRBwMb_3syn4expr4ExprEENCNvNtCsgKOh19surD7_13futures_macro4join12bind_futures0ENtNtNtBa_6traits8iterator8Iterator7collectINtB1o_3VecNtCsaKzlTDPUHDb_11proc_macro25IdentEEB2L_, symObjAddr: 0x2A00, symBinAddr: 0xB3C0, symSize: 0x90 }
  - { offset: 0x19CF6, size: 0x8, addend: 0x0, symName: __RINvYINtNtNtNtCsieiGu2EXtoJ_4core4iter8adapters3map3MapINtNtNtBc_3ops5range5RangejENCNvNtCsgKOh19surD7_13futures_macro13stream_select13stream_select0ENtNtNtBa_6traits8iterator8Iterator7collectINtNtCslJiobkLta79_5alloc3vec3VecNtCsaKzlTDPUHDb_11proc_macro25IdentEEB1p_, symObjAddr: 0x2A90, symBinAddr: 0xB450, symSize: 0x60 }
  - { offset: 0x19D8B, size: 0x8, addend: 0x0, symName: __RINvYINtNtNtNtCsieiGu2EXtoJ_4core4iter8adapters3map3MapINtNtNtBc_3ops5range5RangejENCNvNtCsgKOh19surD7_13futures_macro13stream_select13stream_select0ENtNtNtBa_6traits8iterator8Iterator8for_eachNCINvMsi_NtCslJiobkLta79_5alloc3vecINtB3e_3VecNtCsaKzlTDPUHDb_11proc_macro25IdentE14extend_trustedB3_E0EB1p_, symObjAddr: 0x2AF0, symBinAddr: 0xB4B0, symSize: 0x40 }
  - { offset: 0x19DF5, size: 0x8, addend: 0x0, symName: __RINvYINtNtNtNtCsieiGu2EXtoJ_4core4iter8adapters3map3MapINtNtNtBc_3ops5range5RangejENCNvNtCsgKOh19surD7_13futures_macro13stream_select13stream_selects0_0ENtNtNtBa_6traits8iterator8Iterator7collectINtNtCslJiobkLta79_5alloc3vec3VecNtCsaKzlTDPUHDb_11proc_macro25IdentEEB1p_, symObjAddr: 0x2B30, symBinAddr: 0xB4F0, symSize: 0x60 }
  - { offset: 0x19E8A, size: 0x8, addend: 0x0, symName: __RINvYINtNtNtNtCsieiGu2EXtoJ_4core4iter8adapters3map3MapINtNtNtBc_3ops5range5RangejENCNvNtCsgKOh19surD7_13futures_macro13stream_select13stream_selects0_0ENtNtNtBa_6traits8iterator8Iterator8for_eachNCINvMsi_NtCslJiobkLta79_5alloc3vecINtB3h_3VecNtCsaKzlTDPUHDb_11proc_macro25IdentE14extend_trustedB3_E0EB1p_, symObjAddr: 0x2B90, symBinAddr: 0xB550, symSize: 0x40 }
  - { offset: 0x19EF4, size: 0x8, addend: 0x0, symName: __RINvYINtNtNtNtCsieiGu2EXtoJ_4core4iter8adapters3map3MapINtNtNtBc_3ops5range5RangejENCNvNtCsgKOh19surD7_13futures_macro13stream_select13stream_selects_0ENtNtNtBa_6traits8iterator8Iterator7collectINtNtCslJiobkLta79_5alloc3vec3VecNtCsaKzlTDPUHDb_11proc_macro25IdentEEB1p_, symObjAddr: 0x2BD0, symBinAddr: 0xB590, symSize: 0x60 }
  - { offset: 0x19F89, size: 0x8, addend: 0x0, symName: __RINvYINtNtNtNtCsieiGu2EXtoJ_4core4iter8adapters3map3MapINtNtNtBc_3ops5range5RangejENCNvNtCsgKOh19surD7_13futures_macro13stream_select13stream_selects_0ENtNtNtBa_6traits8iterator8Iterator8for_eachNCINvMsi_NtCslJiobkLta79_5alloc3vecINtB3g_3VecNtCsaKzlTDPUHDb_11proc_macro25IdentE14extend_trustedB3_E0EB1p_, symObjAddr: 0x2C30, symBinAddr: 0xB5F0, symSize: 0x40 }
  - { offset: 0x19FF3, size: 0x8, addend: 0x0, symName: __RINvYINtNtNtNtCsieiGu2EXtoJ_4core4iter8adapters3map3MapINtNtNtBc_3ops5range5RangejENCNvNtCsgKOh19surD7_13futures_macro6select19declare_result_enum0ENtNtNtBa_6traits8iterator8Iterator7collectINtNtCslJiobkLta79_5alloc3vec3VecNtCsaKzlTDPUHDb_11proc_macro25IdentEEB1p_, symObjAddr: 0x2C70, symBinAddr: 0xB630, symSize: 0x70 }
  - { offset: 0x1A089, size: 0x8, addend: 0x0, symName: __RINvYINtNtNtNtCsieiGu2EXtoJ_4core4iter8adapters3map3MapINtNtNtBc_3ops5range5RangejENCNvNtCsgKOh19surD7_13futures_macro6select19declare_result_enum0ENtNtNtBa_6traits8iterator8Iterator8for_eachNCINvMsi_NtCslJiobkLta79_5alloc3vecINtB3c_3VecNtCsaKzlTDPUHDb_11proc_macro25IdentE14extend_trustedB3_E0EB1p_, symObjAddr: 0x2CE0, symBinAddr: 0xB6A0, symSize: 0x30 }
  - { offset: 0x1A0F4, size: 0x8, addend: 0x0, symName: __RINvYINtNtNtNtCsieiGu2EXtoJ_4core4iter8adapters3map3MapINtNtNtBc_3ops5range5RangejENvYNtNtCsdGrGZaRBwMb_3syn4expr5IndexINtNtBc_7convert4FromjE4fromENtNtNtBa_6traits8iterator8Iterator7collectINtNtCslJiobkLta79_5alloc3vec3VecB1m_EECsgKOh19surD7_13futures_macro, symObjAddr: 0x2D10, symBinAddr: 0xB6D0, symSize: 0x60 }
  - { offset: 0x1A189, size: 0x8, addend: 0x0, symName: __RINvYINtNtNtNtCsieiGu2EXtoJ_4core4iter8adapters3map3MapINtNtNtBc_3ops5range5RangejENvYNtNtCsdGrGZaRBwMb_3syn4expr5IndexINtNtBc_7convert4FromjE4fromENtNtNtBa_6traits8iterator8Iterator8for_eachNCINvMsi_NtCslJiobkLta79_5alloc3vecINtB3c_3VecB1m_E14extend_trustedB3_E0ECsgKOh19surD7_13futures_macro, symObjAddr: 0x2D70, symBinAddr: 0xB730, symSize: 0x40 }
  - { offset: 0x1A1F3, size: 0x8, addend: 0x0, symName: __RINvYINtNtNtNtCsieiGu2EXtoJ_4core4iter8adapters3zip3ZipINtNtNtBc_5slice4iter4IterNtNtCsdGrGZaRBwMb_3syn4expr8ExprPathEIBS_NtCsaKzlTDPUHDb_11proc_macro25IdentEENtNtNtBa_6traits8iterator8Iterator3mapNtB1Y_11TokenStreamNCNvNtCsgKOh19surD7_13futures_macro6select12select_inners_0EB3y_, symObjAddr: 0x2DB0, symBinAddr: 0xB770, symSize: 0x40 }
  - { offset: 0x1A261, size: 0x8, addend: 0x0, symName: __RINvYINtNtNtNtCsieiGu2EXtoJ_4core4iter8adapters3zip3ZipINtNtNtCslJiobkLta79_5alloc3vec9into_iter8IntoIterNtNtCsdGrGZaRBwMb_3syn4expr4ExprEINtNtNtBc_5slice4iter4IterNtCsaKzlTDPUHDb_11proc_macro25IdentEENtNtNtBa_6traits8iterator8Iterator3mapNtB1H_8ExprPathNCNvNtCsgKOh19surD7_13futures_macro6select12select_inner0EB4a_, symObjAddr: 0x2DF0, symBinAddr: 0xB7B0, symSize: 0x40 }
  - { offset: 0x1A2CF, size: 0x8, addend: 0x0, symName: __RINvYINtNtNtNtCsieiGu2EXtoJ_4core4iter8adapters3zip3ZipINtNtNtCslJiobkLta79_5alloc3vec9into_iter8IntoIterNtNtCsdGrGZaRBwMb_3syn4expr4ExprEINtNtNtBc_5slice4iter4IterNtCsaKzlTDPUHDb_11proc_macro25IdentEENtNtNtBa_6traits8iterator8Iterator8try_foldINtNtBW_13in_place_drop11InPlaceDropNtB1H_8ExprPathENCINvNtB8_3map12map_try_foldTB1F_RB2C_EB4u_B3U_INtNtBc_6result6ResultB3U_zENCNvNtCsgKOh19surD7_13futures_macro6select12select_inner0NCINvNtBW_16in_place_collect24write_in_place_with_dropB4u_E0E0B5v_EB63_, symObjAddr: 0x2E30, symBinAddr: 0xB7F0, symSize: 0x210 }
  - { offset: 0x1A36E, size: 0x8, addend: 0x0, symName: __RINvYINtNtNtNtCsieiGu2EXtoJ_4core4iter8adapters3zip3ZipINtNtNtCslJiobkLta79_5alloc3vec9into_iter8IntoIterTNtNtCsdGrGZaRBwMb_3syn3pat3PatNtNtB1K_4expr4ExprEEINtNtNtBc_5slice4iter4IterNtCsaKzlTDPUHDb_11proc_macro25IdentEENtNtNtBa_6traits8iterator8Iterator3mapNtB2W_11TokenStreamNCNvNtCsgKOh19surD7_13futures_macro6select12select_inners0_0EB4w_, symObjAddr: 0x3040, symBinAddr: 0xBA00, symSize: 0x40 }
  - { offset: 0x1A3EB, size: 0x8, addend: 0x0, symName: __RNCNvXs_NvNtNtNtNtCsieiGu2EXtoJ_4core4iter6traits8iterator8Iterator10advance_byINtNtCsdGrGZaRBwMb_3syn10punctuated11PrivateIterNtNtB1k_4expr4ExprNtNtB1k_5token5CommaENtB6_13SpecAdvanceBy15spec_advance_by0CsgKOh19surD7_13futures_macro, symObjAddr: 0x3750, symBinAddr: 0xC110, symSize: 0x20 }
  - { offset: 0x1A44E, size: 0x8, addend: 0x0, symName: __RNvXNtNtNtCsieiGu2EXtoJ_4core4iter6traits7collectINtNtNtB6_8adapters3map3MapINtNtBQ_3zip3ZipINtNtNtCslJiobkLta79_5alloc3vec9into_iter8IntoIterNtNtCsdGrGZaRBwMb_3syn4expr4ExprEINtNtNtB8_5slice4iter4IterNtCsaKzlTDPUHDb_11proc_macro25IdentEENCNvNtCsgKOh19surD7_13futures_macro6select12select_inner0ENtB2_12IntoIterator9into_iterB3U_, symObjAddr: 0x4520, symBinAddr: 0xCEE0, symSize: 0x30 }
  - { offset: 0x1A486, size: 0x8, addend: 0x0, symName: __RNvXNtNtNtCsieiGu2EXtoJ_4core4iter6traits7collectINtNtNtB6_8adapters3map3MapINtNtBQ_9enumerate9EnumerateINtNtNtCslJiobkLta79_5alloc3vec9into_iter8IntoIterNtNtCsdGrGZaRBwMb_3syn4expr4ExprEENCNvNtCsgKOh19surD7_13futures_macro4join12bind_futures0ENtB2_12IntoIterator9into_iterB36_, symObjAddr: 0x4550, symBinAddr: 0xCF10, symSize: 0x30 }
  - { offset: 0x1A4BE, size: 0x8, addend: 0x0, symName: __RNvXNtNtNtCsieiGu2EXtoJ_4core4iter6traits7collectINtNtNtB6_8adapters3map3MapINtNtNtB8_3ops5range5RangejENCNvNtCsgKOh19surD7_13futures_macro13stream_select13stream_select0ENtB2_12IntoIterator9into_iterB1K_, symObjAddr: 0x4580, symBinAddr: 0xCF40, symSize: 0x20 }
  - { offset: 0x1A4F5, size: 0x8, addend: 0x0, symName: __RNvXNtNtNtCsieiGu2EXtoJ_4core4iter6traits7collectINtNtNtB6_8adapters3map3MapINtNtNtB8_3ops5range5RangejENCNvNtCsgKOh19surD7_13futures_macro13stream_select13stream_selects0_0ENtB2_12IntoIterator9into_iterB1K_, symObjAddr: 0x45A0, symBinAddr: 0xCF60, symSize: 0x20 }
  - { offset: 0x1A52C, size: 0x8, addend: 0x0, symName: __RNvXNtNtNtCsieiGu2EXtoJ_4core4iter6traits7collectINtNtNtB6_8adapters3map3MapINtNtNtB8_3ops5range5RangejENCNvNtCsgKOh19surD7_13futures_macro13stream_select13stream_selects_0ENtB2_12IntoIterator9into_iterB1K_, symObjAddr: 0x45C0, symBinAddr: 0xCF80, symSize: 0x20 }
  - { offset: 0x1A563, size: 0x8, addend: 0x0, symName: __RNvXNtNtNtCsieiGu2EXtoJ_4core4iter6traits7collectINtNtNtB6_8adapters3map3MapINtNtNtB8_3ops5range5RangejENCNvNtCsgKOh19surD7_13futures_macro6select19declare_result_enum0ENtB2_12IntoIterator9into_iterB1K_, symObjAddr: 0x45E0, symBinAddr: 0xCFA0, symSize: 0x20 }
  - { offset: 0x1A59A, size: 0x8, addend: 0x0, symName: __RNvXNtNtNtCsieiGu2EXtoJ_4core4iter6traits7collectINtNtNtB6_8adapters3map3MapINtNtNtB8_3ops5range5RangejENvYNtNtCsdGrGZaRBwMb_3syn4expr5IndexINtNtB8_7convert4FromjE4fromENtB2_12IntoIterator9into_iterCsgKOh19surD7_13futures_macro, symObjAddr: 0x4600, symBinAddr: 0xCFC0, symSize: 0x20 }
  - { offset: 0x1A6CF, size: 0x8, addend: 0x0, symName: __RNvNvNtCsieiGu2EXtoJ_4core4hint16assert_unchecked18precondition_checkCsgKOh19surD7_13futures_macro, symObjAddr: 0x43A0, symBinAddr: 0xCD60, symSize: 0xA0 }
  - { offset: 0x1A72F, size: 0x8, addend: 0x0, symName: __RNvNvNtCsieiGu2EXtoJ_4core4hint21unreachable_unchecked18precondition_checkCsgKOh19surD7_13futures_macro, symObjAddr: 0x4440, symBinAddr: 0xCE00, symSize: 0x80 }
  - { offset: 0x1A944, size: 0x8, addend: 0x0, symName: __RNvYNCNkNvNtNtNtCscKtU6MdFI5n_10proc_macro6bridge6client5state12BRIDGE_STATE0s_0INtNtNtCsieiGu2EXtoJ_4core3ops8function6FnOnceTINtNtB1n_6option6OptionQIB22_INtNtB1n_4cell4CellPuEEEEE9call_onceCsgKOh19surD7_13futures_macro, symObjAddr: 0x68A0, symBinAddr: 0xF260, symSize: 0x40 }
  - { offset: 0x1A988, size: 0x8, addend: 0x0, symName: __RNvYNvMNtCsdGrGZaRBwMb_3syn10punctuatedINtB5_10PunctuatedNtNtB7_4expr4ExprNtNtB7_5token5CommaE16parse_terminatedINtNtNtCsieiGu2EXtoJ_4core3ops8function6FnOnceTRNtNtB7_5parse11ParseBufferEE9call_onceCsgKOh19surD7_13futures_macro, symObjAddr: 0x69B0, symBinAddr: 0xF370, symSize: 0x30 }
  - { offset: 0x1A9CC, size: 0x8, addend: 0x0, symName: __RNvYNvMNtCsdGrGZaRBwMb_3syn5errorNtB5_5Error18into_compile_errorINtNtNtCsieiGu2EXtoJ_4core3ops8function6FnOnceTBv_EE9call_onceCsgKOh19surD7_13futures_macro, symObjAddr: 0x69E0, symBinAddr: 0xF3A0, symSize: 0x40 }
  - { offset: 0x1AA10, size: 0x8, addend: 0x0, symName: __RNvYNvMsi_CsaKzlTDPUHDb_11proc_macro2NtB8_4Span9call_siteINtNtNtCsieiGu2EXtoJ_4core3ops8function6FnOnceuE9call_onceCsgKOh19surD7_13futures_macro, symObjAddr: 0x6A20, symBinAddr: 0xF3E0, symSize: 0x20 }
  - { offset: 0x1AA54, size: 0x8, addend: 0x0, symName: __RNvYNvYNtNtCsdGrGZaRBwMb_3syn4expr4ExprNtNtB9_5parse5Parse5parseINtNtNtCsieiGu2EXtoJ_4core3ops8function6FnOnceTRNtBD_11ParseBufferEE9call_onceCsgKOh19surD7_13futures_macro, symObjAddr: 0x6A40, symBinAddr: 0xF400, symSize: 0x30 }
  - { offset: 0x1AA98, size: 0x8, addend: 0x0, symName: __RNvYNvYNtNtCsdGrGZaRBwMb_3syn4expr8ExprPathNtNtB9_11parse_quote10ParseQuote5parseINtNtNtCsieiGu2EXtoJ_4core3ops8function6FnOnceTRNtNtB9_5parse11ParseBufferEE9call_onceCsgKOh19surD7_13futures_macro, symObjAddr: 0x6A90, symBinAddr: 0xF450, symSize: 0x30 }
  - { offset: 0x1AADC, size: 0x8, addend: 0x0, symName: __RNvYNvYNtNtCsdGrGZaRBwMb_3syn4item6ItemFnNtNtB9_5parse5Parse5parseINtNtNtCsieiGu2EXtoJ_4core3ops8function6FnOnceTRNtBF_11ParseBufferEE9call_onceCsgKOh19surD7_13futures_macro, symObjAddr: 0x6AC0, symBinAddr: 0xF480, symSize: 0x30 }
  - { offset: 0x1AB20, size: 0x8, addend: 0x0, symName: __RNvYNvYNtNtCsdGrGZaRBwMb_3syn4item8ItemEnumNtNtB9_11parse_quote10ParseQuote5parseINtNtNtCsieiGu2EXtoJ_4core3ops8function6FnOnceTRNtNtB9_5parse11ParseBufferEE9call_onceCsgKOh19surD7_13futures_macro, symObjAddr: 0x6B60, symBinAddr: 0xF520, symSize: 0x30 }
  - { offset: 0x1AB64, size: 0x8, addend: 0x0, symName: __RNvYNvYNtNtCsgKOh19surD7_13futures_macro4join4JoinNtNtCsdGrGZaRBwMb_3syn5parse5Parse5parseINtNtNtCsieiGu2EXtoJ_4core3ops8function6FnOnceTRNtBO_11ParseBufferEE9call_onceB9_, symObjAddr: 0x6B90, symBinAddr: 0xF550, symSize: 0x30 }
  - { offset: 0x1ABA8, size: 0x8, addend: 0x0, symName: __RNvYNvYNtNtCsgKOh19surD7_13futures_macro6select6SelectNtNtCsdGrGZaRBwMb_3syn5parse5Parse5parseINtNtNtCsieiGu2EXtoJ_4core3ops8function6FnOnceTRNtBS_11ParseBufferEE9call_onceB9_, symObjAddr: 0x6C30, symBinAddr: 0xF5F0, symSize: 0x30 }
  - { offset: 0x1ABEC, size: 0x8, addend: 0x0, symName: __RNvYNvYRNtNtCsdGrGZaRBwMb_3syn4stmt4StmtNtNtCs9OU1sGv5X54_5quote9to_tokens8ToTokens17into_token_streamINtNtNtCsieiGu2EXtoJ_4core3ops8function6FnOnceTB5_EE9call_onceCsgKOh19surD7_13futures_macro, symObjAddr: 0x6CD0, symBinAddr: 0xF690, symSize: 0x30 }
  - { offset: 0x1AC36, size: 0x8, addend: 0x0, symName: __RNvYNvCsgKOh19surD7_13futures_macro13join_internalINtNtNtCsieiGu2EXtoJ_4core3ops8function2FnTNtCscKtU6MdFI5n_10proc_macro11TokenStreamEE4callB4_, symObjAddr: 0x68E0, symBinAddr: 0xF2A0, symSize: 0x20 }
  - { offset: 0x1AC7A, size: 0x8, addend: 0x0, symName: __RNvYNvCsgKOh19surD7_13futures_macro13test_internalINtNtNtCsieiGu2EXtoJ_4core3ops8function2FnTNtCscKtU6MdFI5n_10proc_macro11TokenStreamB1t_EE4callB4_, symObjAddr: 0x6900, symBinAddr: 0xF2C0, symSize: 0x30 }
  - { offset: 0x1ACBE, size: 0x8, addend: 0x0, symName: __RNvYNvCsgKOh19surD7_13futures_macro15select_internalINtNtNtCsieiGu2EXtoJ_4core3ops8function2FnTNtCscKtU6MdFI5n_10proc_macro11TokenStreamEE4callB4_, symObjAddr: 0x6930, symBinAddr: 0xF2F0, symSize: 0x20 }
  - { offset: 0x1AD02, size: 0x8, addend: 0x0, symName: __RNvYNvCsgKOh19surD7_13futures_macro17try_join_internalINtNtNtCsieiGu2EXtoJ_4core3ops8function2FnTNtCscKtU6MdFI5n_10proc_macro11TokenStreamEE4callB4_, symObjAddr: 0x6950, symBinAddr: 0xF310, symSize: 0x20 }
  - { offset: 0x1AD46, size: 0x8, addend: 0x0, symName: __RNvYNvCsgKOh19surD7_13futures_macro22select_biased_internalINtNtNtCsieiGu2EXtoJ_4core3ops8function2FnTNtCscKtU6MdFI5n_10proc_macro11TokenStreamEE4callB4_, symObjAddr: 0x6970, symBinAddr: 0xF330, symSize: 0x20 }
  - { offset: 0x1AD8A, size: 0x8, addend: 0x0, symName: __RNvYNvCsgKOh19surD7_13futures_macro22stream_select_internalINtNtNtCsieiGu2EXtoJ_4core3ops8function2FnTNtCscKtU6MdFI5n_10proc_macro11TokenStreamEE4callB4_, symObjAddr: 0x6990, symBinAddr: 0xF350, symSize: 0x20 }
  - { offset: 0x1ADD4, size: 0x8, addend: 0x0, symName: __RNvYNvYNtNtCsdGrGZaRBwMb_3syn4expr5IndexINtNtCsieiGu2EXtoJ_4core7convert4FromjE4fromINtNtNtBH_3ops8function5FnMutTjEE8call_mutCsgKOh19surD7_13futures_macro, symObjAddr: 0x6A70, symBinAddr: 0xF430, symSize: 0x20 }
  - { offset: 0x1B26E, size: 0x8, addend: 0x0, symName: __RINvCsdGrGZaRBwMb_3syn5parseNtNtB2_4item6ItemFnECsgKOh19surD7_13futures_macro, symObjAddr: 0x0, symBinAddr: 0x8A00, symSize: 0x30 }
  - { offset: 0x1B2A5, size: 0x8, addend: 0x0, symName: __RINvCsdGrGZaRBwMb_3syn5parseNtNtCsgKOh19surD7_13futures_macro4join4JoinEBu_, symObjAddr: 0x30, symBinAddr: 0x8A30, symSize: 0x30 }
  - { offset: 0x1B2DC, size: 0x8, addend: 0x0, symName: __RINvCsdGrGZaRBwMb_3syn5parseNtNtCsgKOh19surD7_13futures_macro6select6SelectEBu_, symObjAddr: 0x60, symBinAddr: 0x8A60, symSize: 0x30 }
  - { offset: 0x1B313, size: 0x8, addend: 0x0, symName: __RINvCsdGrGZaRBwMb_3syn6parse2NtNtB2_4expr4ExprECsgKOh19surD7_13futures_macro, symObjAddr: 0x90, symBinAddr: 0x8A90, symSize: 0x30 }
  - { offset: 0x200E6, size: 0x8, addend: 0x0, symName: __RNvXsh_NtCsdGrGZaRBwMb_3syn5parseNvYNtNtB7_4expr4ExprNtB5_5Parse5parseNtB5_6Parser6parse2CsgKOh19surD7_13futures_macro, symObjAddr: 0x5660, symBinAddr: 0xE020, symSize: 0x400 }
  - { offset: 0x201F7, size: 0x8, addend: 0x0, symName: __RNvXsh_NtCsdGrGZaRBwMb_3syn5parseNvYNtNtB7_4item6ItemFnNtB5_5Parse5parseNtB5_6Parser6parse2CsgKOh19surD7_13futures_macro, symObjAddr: 0x5A60, symBinAddr: 0xE420, symSize: 0x400 }
  - { offset: 0x20308, size: 0x8, addend: 0x0, symName: __RNvXsh_NtCsdGrGZaRBwMb_3syn5parseNvYNtNtCsgKOh19surD7_13futures_macro4join4JoinNtB5_5Parse5parseNtB5_6Parser6parse2BC_, symObjAddr: 0x5E60, symBinAddr: 0xE820, symSize: 0x3F0 }
  - { offset: 0x20419, size: 0x8, addend: 0x0, symName: __RNvXsh_NtCsdGrGZaRBwMb_3syn5parseNvYNtNtCsgKOh19surD7_13futures_macro6select6SelectNtB5_5Parse5parseNtB5_6Parser6parse2BC_, symObjAddr: 0x6250, symBinAddr: 0xEC10, symSize: 0x400 }
  - { offset: 0x20530, size: 0x8, addend: 0x0, symName: __RNvYNvYNtNtCsdGrGZaRBwMb_3syn4item6ItemFnNtNtB9_5parse5Parse5parseNtBF_6Parser5parseCsgKOh19surD7_13futures_macro, symObjAddr: 0x6AF0, symBinAddr: 0xF4B0, symSize: 0x70 }
  - { offset: 0x20576, size: 0x8, addend: 0x0, symName: __RNvYNvYNtNtCsgKOh19surD7_13futures_macro4join4JoinNtNtCsdGrGZaRBwMb_3syn5parse5Parse5parseNtBO_6Parser5parseB9_, symObjAddr: 0x6BC0, symBinAddr: 0xF580, symSize: 0x70 }
  - { offset: 0x205BC, size: 0x8, addend: 0x0, symName: __RNvYNvYNtNtCsgKOh19surD7_13futures_macro6select6SelectNtNtCsdGrGZaRBwMb_3syn5parse5Parse5parseNtBS_6Parser5parseB9_, symObjAddr: 0x6C60, symBinAddr: 0xF620, symSize: 0x70 }
  - { offset: 0x2080B, size: 0x8, addend: 0x0, symName: __RNvXs0_NtCsdGrGZaRBwMb_3syn5dropsINtB5_6NoDropDINtNtB7_10punctuated9IterTraitNtNtB7_4expr4ExprEp4ItemRB1d_EL_ENtNtNtCsieiGu2EXtoJ_4core3ops5deref8DerefMut9deref_mutCsgKOh19surD7_13futures_macro, symObjAddr: 0x4620, symBinAddr: 0xCFE0, symSize: 0x30 }
  - { offset: 0x20EFD, size: 0x8, addend: 0x0, symName: __RINvNtNtCslJiobkLta79_5alloc3vec16in_place_collect18from_iter_in_placeINtNtNtNtCsieiGu2EXtoJ_4core4iter8adapters3map3MapINtNtB1b_3zip3ZipINtNtB4_9into_iter8IntoIterNtNtCsdGrGZaRBwMb_3syn4expr4ExprEINtNtNtB1f_5slice4iter4IterNtCsaKzlTDPUHDb_11proc_macro25IdentEENCNvNtCsgKOh19surD7_13futures_macro6select12select_inner0ENtB2E_8ExprPathEB4h_, symObjAddr: 0x1700, symBinAddr: 0xA0C0, symSize: 0x680 }
  - { offset: 0x21564, size: 0x8, addend: 0x0, symName: __RINvNtNtCslJiobkLta79_5alloc3vec16in_place_collect18from_iter_in_placeINtNtNtNtCsieiGu2EXtoJ_4core4iter8adapters3map3MapINtNtB1b_9enumerate9EnumerateINtNtB4_9into_iter8IntoIterNtNtCsdGrGZaRBwMb_3syn4expr4ExprEENCNvNtCsgKOh19surD7_13futures_macro4join12bind_futures0ENtCsaKzlTDPUHDb_11proc_macro25IdentEB3s_, symObjAddr: 0x1D80, symBinAddr: 0xA740, symSize: 0x680 }
  - { offset: 0x21B97, size: 0x8, addend: 0x0, symName: __RNCINvNtNtCslJiobkLta79_5alloc3vec16in_place_collect24write_in_place_with_dropNtCsaKzlTDPUHDb_11proc_macro25IdentE0CsgKOh19surD7_13futures_macro, symObjAddr: 0x3080, symBinAddr: 0xBA40, symSize: 0x50 }
  - { offset: 0x21C19, size: 0x8, addend: 0x0, symName: __RNCINvNtNtCslJiobkLta79_5alloc3vec16in_place_collect24write_in_place_with_dropNtNtCsdGrGZaRBwMb_3syn4expr8ExprPathE0CsgKOh19surD7_13futures_macro, symObjAddr: 0x30D0, symBinAddr: 0xBA90, symSize: 0x40 }
  - { offset: 0x21CC2, size: 0x8, addend: 0x0, symName: __RNSINvNtNtCslJiobkLta79_5alloc3vec16in_place_collect18from_iter_in_placeINtNtNtNtCsieiGu2EXtoJ_4core4iter8adapters3map3MapINtNtB1d_3zip3ZipINtNtB6_9into_iter8IntoIterNtNtCsdGrGZaRBwMb_3syn4expr4ExprEINtNtNtB1h_5slice4iter4IterNtCsaKzlTDPUHDb_11proc_macro25IdentEENCNvNtCsgKOh19surD7_13futures_macro6select12select_inner0ENtB2G_8ExprPathE5reifyB4j_, symObjAddr: 0x3770, symBinAddr: 0xC130, symSize: 0x30 }
  - { offset: 0x21CFD, size: 0x8, addend: 0x0, symName: __RNSINvNtNtCslJiobkLta79_5alloc3vec16in_place_collect18from_iter_in_placeINtNtNtNtCsieiGu2EXtoJ_4core4iter8adapters3map3MapINtNtB1d_9enumerate9EnumerateINtNtB6_9into_iter8IntoIterNtNtCsdGrGZaRBwMb_3syn4expr4ExprEENCNvNtCsgKOh19surD7_13futures_macro4join12bind_futures0ENtCsaKzlTDPUHDb_11proc_macro25IdentE5reifyB3u_, symObjAddr: 0x37A0, symBinAddr: 0xC160, symSize: 0x30 }
  - { offset: 0x21D3D, size: 0x8, addend: 0x0, symName: __RNvXs0_NtNtCslJiobkLta79_5alloc3vec16in_place_collectINtNtNtNtCsieiGu2EXtoJ_4core4iter8adapters3map3MapINtNtBU_3zip3ZipINtNtB7_9into_iter8IntoIterNtNtCsdGrGZaRBwMb_3syn4expr4ExprEINtNtNtBY_5slice4iter4IterNtCsaKzlTDPUHDb_11proc_macro25IdentEENCNvNtCsgKOh19surD7_13futures_macro6select12select_inner0EINtB5_18SpecInPlaceCollectNtB2m_8ExprPathBP_E16collect_in_placeB3Y_, symObjAddr: 0x4650, symBinAddr: 0xD010, symSize: 0xD0 }
  - { offset: 0x21E93, size: 0x8, addend: 0x0, symName: __RNvXs0_NtNtCslJiobkLta79_5alloc3vec16in_place_collectINtNtNtNtCsieiGu2EXtoJ_4core4iter8adapters3map3MapINtNtBU_9enumerate9EnumerateINtNtB7_9into_iter8IntoIterNtNtCsdGrGZaRBwMb_3syn4expr4ExprEENCNvNtCsgKOh19surD7_13futures_macro4join12bind_futures0EINtB5_18SpecInPlaceCollectNtCsaKzlTDPUHDb_11proc_macro25IdentBP_E16collect_in_placeB3a_, symObjAddr: 0x4720, symBinAddr: 0xD0E0, symSize: 0xD0 }
  - { offset: 0x22EC0, size: 0x8, addend: 0x0, symName: __RNvXss_NtCslJiobkLta79_5alloc6stringNtB5_6StringNtNtNtCsieiGu2EXtoJ_4core3ops5deref5Deref5derefCsgKOh19surD7_13futures_macro, symObjAddr: 0x6770, symBinAddr: 0xF130, symSize: 0x20 }
  - { offset: 0x22EFA, size: 0x8, addend: 0x0, symName: __RINvMNtCslJiobkLta79_5alloc5sliceSNtNtCsdGrGZaRBwMb_3syn4stmt4Stmt8into_vecNtNtB5_5alloc6GlobalECsgKOh19surD7_13futures_macro, symObjAddr: 0xC0, symBinAddr: 0x8AC0, symSize: 0x40 }
  - { offset: 0x22FAB, size: 0x8, addend: 0x0, symName: __RNvNtCslJiobkLta79_5alloc3fmt6formatCsgKOh19surD7_13futures_macro, symObjAddr: 0x3C40, symBinAddr: 0xC600, symSize: 0xC0 }
  - { offset: 0x2364B, size: 0x8, addend: 0x0, symName: __RINvMs3_NtNtCscKtU6MdFI5n_10proc_macro6bridge6bufferNtB6_6Buffer17extend_from_arrayKj4_ECsgKOh19surD7_13futures_macro, symObjAddr: 0x100, symBinAddr: 0x8B00, symSize: 0x1E0 }
  - { offset: 0x237D3, size: 0x8, addend: 0x0, symName: __RINvMs3_NtNtCscKtU6MdFI5n_10proc_macro6bridge6bufferNtB6_6Buffer17extend_from_arrayKj8_ECsgKOh19surD7_13futures_macro, symObjAddr: 0x2E0, symBinAddr: 0x8CE0, symSize: 0x1E0 }
  - { offset: 0x23B59, size: 0x8, addend: 0x0, symName: __RINvMs9_NtCsdGrGZaRBwMb_3syn5parseNtB6_11ParseBuffer4peekINvNtNtCsgKOh19surD7_13futures_macro6select2kw8completeNtNtB8_9lookahead11TokenMarkerEEB10_, symObjAddr: 0x4C0, symBinAddr: 0x8EC0, symSize: 0x30 }
  - { offset: 0x23B94, size: 0x8, addend: 0x0, symName: __RINvMs9_NtCsdGrGZaRBwMb_3syn5parseNtB6_11ParseBuffer4stepNCNvXs0_NvNtNtCsgKOh19surD7_13futures_macro6select2kw1__NtB13_8completeNtB6_5Parse5parse0B1N_EB17_, symObjAddr: 0x4F0, symBinAddr: 0x8EF0, symSize: 0x1E0 }
  - { offset: 0x23C1D, size: 0x8, addend: 0x0, symName: __RINvMs9_NtCsdGrGZaRBwMb_3syn5parseNtB6_11ParseBuffer5parseNtNtNtCsgKOh19surD7_13futures_macro6select2kw8completeEB10_, symObjAddr: 0x6D0, symBinAddr: 0x90D0, symSize: 0x30 }
  - { offset: 0x244F4, size: 0x8, addend: 0x0, symName: __RNvMNtCsdGrGZaRBwMb_3syn5dropsINtB2_6NoDropINtNtB4_10punctuated11PrivateIterNtNtB4_4expr4ExprNtNtB4_5token5CommaEE3newCsgKOh19surD7_13futures_macro, symObjAddr: 0x37D0, symBinAddr: 0xC190, symSize: 0x40 }
  - { offset: 0x24605, size: 0x8, addend: 0x0, symName: __RNvMNtCslJiobkLta79_5alloc6stringNtB2_6String6as_strCsgKOh19surD7_13futures_macro, symObjAddr: 0x3860, symBinAddr: 0xC220, symSize: 0x60 }
  - { offset: 0x24720, size: 0x8, addend: 0x0, symName: __RNvMs3_NtNtCscKtU6MdFI5n_10proc_macro6bridge6bufferNtB5_6Buffer17extend_from_sliceCsgKOh19surD7_13futures_macro, symObjAddr: 0x38C0, symBinAddr: 0xC280, symSize: 0x1E0 }
  - { offset: 0x2489D, size: 0x8, addend: 0x0, symName: __RNvMs3_NtNtCscKtU6MdFI5n_10proc_macro6bridge6bufferNtB5_6Buffer4pushCsgKOh19surD7_13futures_macro, symObjAddr: 0x3AA0, symBinAddr: 0xC460, symSize: 0x1A0 }
  - { offset: 0x24A64, size: 0x8, addend: 0x0, symName: __RNvXNtCs9OU1sGv5X54_5quote14ident_fragmentRjNtB2_13IdentFragment3fmtCsgKOh19surD7_13futures_macro, symObjAddr: 0x44C0, symBinAddr: 0xCE80, symSize: 0x30 }
  - { offset: 0x24AA7, size: 0x8, addend: 0x0, symName: __RNvXNtCs9OU1sGv5X54_5quote14ident_fragmentRjNtB2_13IdentFragment4spanCsgKOh19surD7_13futures_macro, symObjAddr: 0x44F0, symBinAddr: 0xCEB0, symSize: 0x30 }
  - { offset: 0x24AE2, size: 0x8, addend: 0x0, symName: __RNvYjNtNtCs9OU1sGv5X54_5quote14ident_fragment13IdentFragment4spanCsgKOh19surD7_13futures_macro, symObjAddr: 0x6DE0, symBinAddr: 0xF7A0, symSize: 0x20 }
  - { offset: 0x24B28, size: 0x8, addend: 0x0, symName: __RNvYINtNtNtNtCsieiGu2EXtoJ_4core4iter8adapters3map3MapINtNtB7_3zip3ZipINtNtNtBb_5slice4iter4IterNtNtCsdGrGZaRBwMb_3syn4expr8ExprPathEIB17_NtCsaKzlTDPUHDb_11proc_macro25IdentEENCNvNtCsgKOh19surD7_13futures_macro6select12select_inners_0ENtNtNtCs9OU1sGv5X54_5quote9___private3ext14RepIteratorExt15quote_into_iterB2T_, symObjAddr: 0x67A0, symBinAddr: 0xF160, symSize: 0x30 }
  - { offset: 0x24B5E, size: 0x8, addend: 0x0, symName: __RNvYINtNtNtNtCsieiGu2EXtoJ_4core4iter8adapters3map3MapINtNtB7_3zip3ZipINtNtNtCslJiobkLta79_5alloc3vec9into_iter8IntoIterTNtNtCsdGrGZaRBwMb_3syn3pat3PatNtNtB1Z_4expr4ExprEEINtNtNtBb_5slice4iter4IterNtCsaKzlTDPUHDb_11proc_macro25IdentEENCNvNtCsgKOh19surD7_13futures_macro6select12select_inners0_0ENtNtNtCs9OU1sGv5X54_5quote9___private3ext14RepIteratorExt15quote_into_iterB3Q_, symObjAddr: 0x67D0, symBinAddr: 0xF190, symSize: 0x30 }
  - { offset: 0x24B94, size: 0x8, addend: 0x0, symName: __RNvYINtNtNtNtCsieiGu2EXtoJ_4core4iter8adapters3map3MapINtNtCsdGrGZaRBwMb_3syn10punctuated4IterNtNtBV_4expr4ExprENCNvNtCsgKOh19surD7_13futures_macro13stream_select13stream_selects1_0ENtNtNtCs9OU1sGv5X54_5quote9___private3ext14RepIteratorExt15quote_into_iterB1S_, symObjAddr: 0x6800, symBinAddr: 0xF1C0, symSize: 0x20 }
  - { offset: 0x24BC9, size: 0x8, addend: 0x0, symName: __RNvYINtNtNtNtCsieiGu2EXtoJ_4core4iter8adapters3map3MapINtNtNtBb_5slice4iter4IterNtCsaKzlTDPUHDb_11proc_macro25IdentENCNvNtCsgKOh19surD7_13futures_macro4join4join0ENtNtNtCs9OU1sGv5X54_5quote9___private3ext14RepIteratorExt15quote_into_iterB1W_, symObjAddr: 0x6820, symBinAddr: 0xF1E0, symSize: 0x20 }
  - { offset: 0x24BFE, size: 0x8, addend: 0x0, symName: __RNvYINtNtNtNtCsieiGu2EXtoJ_4core4iter8adapters3map3MapINtNtNtBb_5slice4iter4IterNtCsaKzlTDPUHDb_11proc_macro25IdentENCNvNtCsgKOh19surD7_13futures_macro4join4joins_0ENtNtNtCs9OU1sGv5X54_5quote9___private3ext14RepIteratorExt15quote_into_iterB1W_, symObjAddr: 0x6840, symBinAddr: 0xF200, symSize: 0x20 }
  - { offset: 0x24C33, size: 0x8, addend: 0x0, symName: __RNvYINtNtNtNtCsieiGu2EXtoJ_4core4iter8adapters3map3MapINtNtNtBb_5slice4iter4IterNtCsaKzlTDPUHDb_11proc_macro25IdentENCNvNtCsgKOh19surD7_13futures_macro4join8try_join0ENtNtNtCs9OU1sGv5X54_5quote9___private3ext14RepIteratorExt15quote_into_iterB1W_, symObjAddr: 0x6860, symBinAddr: 0xF220, symSize: 0x20 }
  - { offset: 0x24C68, size: 0x8, addend: 0x0, symName: __RNvYINtNtNtNtCsieiGu2EXtoJ_4core4iter8adapters3map3MapINtNtNtBb_5slice4iter4IterNtCsaKzlTDPUHDb_11proc_macro25IdentENCNvNtCsgKOh19surD7_13futures_macro4join8try_joins_0ENtNtNtCs9OU1sGv5X54_5quote9___private3ext14RepIteratorExt15quote_into_iterB1W_, symObjAddr: 0x6880, symBinAddr: 0xF240, symSize: 0x20 }
  - { offset: 0x24CD0, size: 0x8, addend: 0x0, symName: __RNvYRNtNtCsdGrGZaRBwMb_3syn4stmt4StmtNtNtCs9OU1sGv5X54_5quote9to_tokens8ToTokens15to_token_streamCsgKOh19surD7_13futures_macro, symObjAddr: 0x6D00, symBinAddr: 0xF6C0, symSize: 0x90 }
  - { offset: 0x24D1A, size: 0x8, addend: 0x0, symName: __RNvYRNtNtCsdGrGZaRBwMb_3syn4stmt4StmtNtNtCs9OU1sGv5X54_5quote9to_tokens8ToTokens17into_token_streamCsgKOh19surD7_13futures_macro, symObjAddr: 0x6D90, symBinAddr: 0xF750, symSize: 0x50 }
  - { offset: 0x25B6B, size: 0x8, addend: 0x0, symName: __RINvMs2_NtNtCsHUR1vrdMJt_3std6thread5localINtB6_8LocalKeyINtNtCsieiGu2EXtoJ_4core4cell4CellPuEE4withNCNvMs3_B6_BE_7replace0B1r_ECsgKOh19surD7_13futures_macro, symObjAddr: 0x0, symBinAddr: 0xF7C0, symSize: 0x50 }
  - { offset: 0x25C2A, size: 0x8, addend: 0x0, symName: __RINvNtCsdGrGZaRBwMb_3syn11parse_quote5parseNtNtB4_4expr8ExprPathECsgKOh19surD7_13futures_macro, symObjAddr: 0x160, symBinAddr: 0xF920, symSize: 0xF0 }
  - { offset: 0x25C8A, size: 0x8, addend: 0x0, symName: __RINvNtCsdGrGZaRBwMb_3syn11parse_quote5parseNtNtB4_4item8ItemEnumECsgKOh19surD7_13futures_macro, symObjAddr: 0x250, symBinAddr: 0xFA10, symSize: 0xF0 }
  - { offset: 0x25CEF, size: 0x8, addend: 0x0, symName: __RNvXNtCsdGrGZaRBwMb_3syn11parse_quoteNtNtB4_4item8ItemEnumNtB2_10ParseQuote5parseCsgKOh19surD7_13futures_macro, symObjAddr: 0x3320, symBinAddr: 0x12AD0, symSize: 0x30 }
  - { offset: 0x27609, size: 0x8, addend: 0x0, symName: __RNvXs0_NtCsdGrGZaRBwMb_3syn5tokenNtNtNtCsgKOh19surD7_13futures_macro6select2kw8completeNtB5_5Token4peekBB_, symObjAddr: 0x3440, symBinAddr: 0x12BF0, symSize: 0x30 }
  - { offset: 0x2A984, size: 0x8, addend: 0x0, symName: __RNvXsh_NtCsdGrGZaRBwMb_3syn5parseNvYNtNtB7_4expr8ExprPathNtNtB7_11parse_quote10ParseQuote5parseNtB5_6Parser6parse2CsgKOh19surD7_13futures_macro, symObjAddr: 0x45F0, symBinAddr: 0x13DA0, symSize: 0x410 }
  - { offset: 0x2AA95, size: 0x8, addend: 0x0, symName: __RNvXsh_NtCsdGrGZaRBwMb_3syn5parseNvYNtNtB7_4item8ItemEnumNtNtB7_11parse_quote10ParseQuote5parseNtB5_6Parser6parse2CsgKOh19surD7_13futures_macro, symObjAddr: 0x4A00, symBinAddr: 0x141B0, symSize: 0x410 }
  - { offset: 0x2B3DC, size: 0x8, addend: 0x0, symName: __RINvXs3_NtNtCslJiobkLta79_5alloc3vec9into_iterINtB6_8IntoIterNtNtCsdGrGZaRBwMb_3syn4expr4ExprENtNtNtNtCsieiGu2EXtoJ_4core4iter6traits8iterator8Iterator8try_foldINtNtB8_13in_place_drop11InPlaceDropNtCsaKzlTDPUHDb_11proc_macro25IdentENCINvNvXs_NtNtB1A_8adapters9enumerateINtB3S_9EnumeratepEB1u_8try_fold9enumerateBX_B2y_INtNtB1C_6result6ResultB2y_zENCINvNtB3U_3map12map_try_foldTjBX_EB38_B2y_B56_NCNvNtCsgKOh19surD7_13futures_macro4join12bind_futures0NCINvNtB8_16in_place_collect24write_in_place_with_dropB38_E0E0E0B56_EB6q_, symObjAddr: 0x540, symBinAddr: 0xFD00, symSize: 0x250 }
  - { offset: 0x2B5A5, size: 0x8, addend: 0x0, symName: __RNvXs3_NtNtCslJiobkLta79_5alloc3vec9into_iterINtB5_8IntoIterNtNtCsdGrGZaRBwMb_3syn4expr4ExprENtNtNtNtCsieiGu2EXtoJ_4core4iter6traits8iterator8Iterator4nextCsgKOh19surD7_13futures_macro, symObjAddr: 0x3640, symBinAddr: 0x12DF0, symSize: 0x100 }
  - { offset: 0x2B703, size: 0x8, addend: 0x0, symName: __RNvXs3_NtNtCslJiobkLta79_5alloc3vec9into_iterINtB5_8IntoIterNtNtCsdGrGZaRBwMb_3syn4expr4ExprENtNtNtNtCsieiGu2EXtoJ_4core4iter6traits8iterator8Iterator9size_hintCsgKOh19surD7_13futures_macro, symObjAddr: 0x3740, symBinAddr: 0x12EF0, symSize: 0x60 }
  - { offset: 0x2B75E, size: 0x8, addend: 0x0, symName: __RNvXs3_NtNtCslJiobkLta79_5alloc3vec9into_iterINtB5_8IntoIterTNtNtCsdGrGZaRBwMb_3syn3pat3PatNtNtB11_4expr4ExprEENtNtNtNtCsieiGu2EXtoJ_4core4iter6traits8iterator8Iterator4nextCsgKOh19surD7_13futures_macro, symObjAddr: 0x37A0, symBinAddr: 0x12F50, symSize: 0x110 }
  - { offset: 0x2B8BC, size: 0x8, addend: 0x0, symName: __RNvXs3_NtNtCslJiobkLta79_5alloc3vec9into_iterINtB5_8IntoIterTNtNtCsdGrGZaRBwMb_3syn3pat3PatNtNtB11_4expr4ExprEENtNtNtNtCsieiGu2EXtoJ_4core4iter6traits8iterator8Iterator9size_hintCsgKOh19surD7_13futures_macro, symObjAddr: 0x38B0, symBinAddr: 0x13060, symSize: 0x60 }
  - { offset: 0x2BA5E, size: 0x8, addend: 0x0, symName: __RNvXNvXsd_NtNtCslJiobkLta79_5alloc3vec9into_iterINtB8_8IntoIterppENtNtNtCsieiGu2EXtoJ_4core3ops4drop4Drop4dropINtB2_9DropGuardNtNtCsdGrGZaRBwMb_3syn4expr4ExprNtNtBc_5alloc6GlobalEB12_4dropCsgKOh19surD7_13futures_macro, symObjAddr: 0x3360, symBinAddr: 0x12B10, symSize: 0x70 }
  - { offset: 0x2BB73, size: 0x8, addend: 0x0, symName: __RNvXNvXsd_NtNtCslJiobkLta79_5alloc3vec9into_iterINtB8_8IntoIterppENtNtNtCsieiGu2EXtoJ_4core3ops4drop4Drop4dropINtB2_9DropGuardTNtNtCsdGrGZaRBwMb_3syn3pat3PatNtNtB25_4expr4ExprENtNtBc_5alloc6GlobalEB12_4dropCsgKOh19surD7_13futures_macro, symObjAddr: 0x33D0, symBinAddr: 0x12B80, symSize: 0x70 }
  - { offset: 0x2BCD8, size: 0x8, addend: 0x0, symName: __RNvXsd_NtNtCslJiobkLta79_5alloc3vec9into_iterINtB5_8IntoIterNtNtCsdGrGZaRBwMb_3syn4expr4ExprENtNtNtCsieiGu2EXtoJ_4core3ops4drop4Drop4dropCsgKOh19surD7_13futures_macro, symObjAddr: 0x44B0, symBinAddr: 0x13C60, symSize: 0x90 }
  - { offset: 0x2BD73, size: 0x8, addend: 0x0, symName: __RNvXsd_NtNtCslJiobkLta79_5alloc3vec9into_iterINtB5_8IntoIterTNtNtCsdGrGZaRBwMb_3syn3pat3PatNtNtB11_4expr4ExprEENtNtNtCsieiGu2EXtoJ_4core3ops4drop4Drop4dropCsgKOh19surD7_13futures_macro, symObjAddr: 0x4540, symBinAddr: 0x13CF0, symSize: 0x90 }
  - { offset: 0x2BE14, size: 0x8, addend: 0x0, symName: __RNvXsf_NtNtCslJiobkLta79_5alloc3vec9into_iterINtB5_8IntoIterNtNtCsdGrGZaRBwMb_3syn4expr4ExprENtNtNtCsieiGu2EXtoJ_4core4iter8adapters10SourceIter8as_innerCsgKOh19surD7_13futures_macro, symObjAddr: 0x45D0, symBinAddr: 0x13D80, symSize: 0x10 }
  - { offset: 0x2BE5A, size: 0x8, addend: 0x0, symName: __RNvXsg_NtNtCslJiobkLta79_5alloc3vec9into_iterINtB5_8IntoIterNtNtCsdGrGZaRBwMb_3syn4expr4ExprENtNtB7_16in_place_collect13AsVecIntoIter12as_into_iterCsgKOh19surD7_13futures_macro, symObjAddr: 0x45E0, symBinAddr: 0x13D90, symSize: 0x10 }
  - { offset: 0x2C29C, size: 0x8, addend: 0x0, symName: __RNvXs_NtCslJiobkLta79_5alloc5allocNtB4_6GlobalNtNtCsieiGu2EXtoJ_4core5alloc9Allocator10deallocateCsgKOh19surD7_13futures_macro, symObjAddr: 0x3C80, symBinAddr: 0x13430, symSize: 0x70 }
  - { offset: 0x2C3BD, size: 0x8, addend: 0x0, symName: __RNvXs_NtCslJiobkLta79_5alloc5allocNtB4_6GlobalNtNtCsieiGu2EXtoJ_4core5alloc9Allocator6shrinkCsgKOh19surD7_13futures_macro, symObjAddr: 0x3CF0, symBinAddr: 0x134A0, symSize: 0x5D0 }
  - { offset: 0x2CA93, size: 0x8, addend: 0x0, symName: __RNvNtCslJiobkLta79_5alloc5alloc15exchange_mallocCsgKOh19surD7_13futures_macro, symObjAddr: 0x25B0, symBinAddr: 0x11D60, symSize: 0xA0 }
  - { offset: 0x2D6E8, size: 0x8, addend: 0x0, symName: __RNvXsF_NtCsaKzlTDPUHDb_11proc_macro23impNtB5_5IdentNtNtCsieiGu2EXtoJ_4core5clone5Clone5cloneCsgKOh19surD7_13futures_macro, symObjAddr: 0x3BF0, symBinAddr: 0x133A0, symSize: 0x90 }
  - { offset: 0x2D86D, size: 0x8, addend: 0x0, symName: __RNvXs1_NtCsaKzlTDPUHDb_11proc_macro26markerNtB5_19ProcMacroAutoTraitsNtNtCsieiGu2EXtoJ_4core5clone5Clone5cloneCsgKOh19surD7_13futures_macro, symObjAddr: 0x3540, symBinAddr: 0x12CF0, symSize: 0x10 }
  - { offset: 0x2E06D, size: 0x8, addend: 0x0, symName: __RNvXNtNtCscKtU6MdFI5n_10proc_macro6bridge3rpcuINtB2_6EncodeuE6encodeCsgKOh19surD7_13futures_macro, symObjAddr: 0x3350, symBinAddr: 0x12B00, symSize: 0x10 }
  - { offset: 0x2E0B4, size: 0x8, addend: 0x0, symName: __RNvXs7_NtNtCscKtU6MdFI5n_10proc_macro6bridge3rpcINtNtNtCsieiGu2EXtoJ_4core3num7nonzero7NonZeromEINtB5_9DecodeMutuE6decodeCsgKOh19surD7_13futures_macro, symObjAddr: 0x3AA0, symBinAddr: 0x13250, symSize: 0x50 }
  - { offset: 0x2E12F, size: 0x8, addend: 0x0, symName: __RNvXs9_NtNtCscKtU6MdFI5n_10proc_macro6bridge3rpcTINtB7_11ExpnGlobalsNtNtB7_6client4SpanENtB16_11TokenStreamEINtB5_9DecodeMutuE6decodeCsgKOh19surD7_13futures_macro, symObjAddr: 0x3AF0, symBinAddr: 0x132A0, symSize: 0x80 }
  - { offset: 0x2E184, size: 0x8, addend: 0x0, symName: __RNvXs9_NtNtCscKtU6MdFI5n_10proc_macro6bridge3rpcTINtB7_11ExpnGlobalsNtNtB7_6client4SpanETNtB16_11TokenStreamB1p_EEINtB5_9DecodeMutuE6decodeCsgKOh19surD7_13futures_macro, symObjAddr: 0x3B70, symBinAddr: 0x13320, symSize: 0x80 }
  - { offset: 0x2E211, size: 0x8, addend: 0x0, symName: __RNvXsa_NtNtCscKtU6MdFI5n_10proc_macro6bridge3rpcRShINtB5_6EncodeuE6encodeCsgKOh19surD7_13futures_macro, symObjAddr: 0x43B0, symBinAddr: 0x13B60, symSize: 0xD0 }
  - { offset: 0x2E319, size: 0x8, addend: 0x0, symName: __RNvXsc_NtNtCscKtU6MdFI5n_10proc_macro6bridge3rpcReINtB5_6EncodeuE6encodeCsgKOh19surD7_13futures_macro, symObjAddr: 0x4480, symBinAddr: 0x13C30, symSize: 0x30 }
  - { offset: 0x2E401, size: 0x8, addend: 0x0, symName: __RNvXsl_NtNtCscKtU6MdFI5n_10proc_macro6bridge3rpcNtB5_12PanicMessageINtB5_6EncodeuE6encodeCsgKOh19surD7_13futures_macro, symObjAddr: 0x4E10, symBinAddr: 0x145C0, symSize: 0x130 }
  - { offset: 0x2E5D1, size: 0x8, addend: 0x0, symName: __RNvXso_NtNtCscKtU6MdFI5n_10proc_macro6bridge3rpcmINtB5_9DecodeMutuE6decodeCsgKOh19surD7_13futures_macro, symObjAddr: 0x4F40, symBinAddr: 0x146F0, symSize: 0x140 }
  - { offset: 0x2E73F, size: 0x8, addend: 0x0, symName: __RNvXs1J_NtCscKtU6MdFI5n_10proc_macro6bridgeINtB6_11ExpnGlobalsNtNtB6_6client4SpanEINtNtB6_3rpc9DecodeMutuE6decodeCsgKOh19surD7_13futures_macro, symObjAddr: 0x34A0, symBinAddr: 0x12C50, symSize: 0xA0 }
  - { offset: 0x2EA03, size: 0x8, addend: 0x0, symName: __RNvXs1e_CscKtU6MdFI5n_10proc_macroNtB6_5IdentNtNtCsieiGu2EXtoJ_4core5clone5Clone5cloneCsgKOh19surD7_13futures_macro, symObjAddr: 0x3580, symBinAddr: 0x12D30, symSize: 0x40 }
  - { offset: 0x2EAE0, size: 0x8, addend: 0x0, symName: __RNvNvMsd_NtNtCsieiGu2EXtoJ_4core3num7nonzeroINtB7_7NonZeropE13new_unchecked18precondition_checkCsgKOh19surD7_13futures_macro, symObjAddr: 0x2DE0, symBinAddr: 0x12590, symSize: 0x80 }
  - { offset: 0x2F658, size: 0x8, addend: 0x0, symName: __RNvNvMs1_NtNtCsieiGu2EXtoJ_4core3ptr8non_nullINtB7_7NonNullpE13new_unchecked18precondition_checkCsgKOh19surD7_13futures_macro, symObjAddr: 0x2D50, symBinAddr: 0x12500, symSize: 0x90 }
  - { offset: 0x2FC90, size: 0x8, addend: 0x0, symName: __RNvNvMNtNtCsieiGu2EXtoJ_4core3ptr9const_ptrPp20offset_from_unsigned18precondition_checkCsgKOh19surD7_13futures_macro, symObjAddr: 0x2C00, symBinAddr: 0x123B0, symSize: 0xA0 }
  - { offset: 0x3364D, size: 0x8, addend: 0x0, symName: __RINvYINtNtNtCsieiGu2EXtoJ_4core3ops5range5RangejENtNtNtNtBa_4iter6traits8iterator8Iterator3mapNtCsaKzlTDPUHDb_11proc_macro25IdentNCNvNtCsgKOh19surD7_13futures_macro13stream_select13stream_select0EB29_, symObjAddr: 0x790, symBinAddr: 0xFF50, symSize: 0x20 }
  - { offset: 0x336A5, size: 0x8, addend: 0x0, symName: __RINvYINtNtNtCsieiGu2EXtoJ_4core3ops5range5RangejENtNtNtNtBa_4iter6traits8iterator8Iterator3mapNtCsaKzlTDPUHDb_11proc_macro25IdentNCNvNtCsgKOh19surD7_13futures_macro13stream_select13stream_selects0_0EB29_, symObjAddr: 0x7B0, symBinAddr: 0xFF70, symSize: 0x20 }
  - { offset: 0x336FD, size: 0x8, addend: 0x0, symName: __RINvYINtNtNtCsieiGu2EXtoJ_4core3ops5range5RangejENtNtNtNtBa_4iter6traits8iterator8Iterator3mapNtCsaKzlTDPUHDb_11proc_macro25IdentNCNvNtCsgKOh19surD7_13futures_macro13stream_select13stream_selects_0EB29_, symObjAddr: 0x7D0, symBinAddr: 0xFF90, symSize: 0x20 }
  - { offset: 0x33755, size: 0x8, addend: 0x0, symName: __RINvYINtNtNtCsieiGu2EXtoJ_4core3ops5range5RangejENtNtNtNtBa_4iter6traits8iterator8Iterator3mapNtCsaKzlTDPUHDb_11proc_macro25IdentNCNvNtCsgKOh19surD7_13futures_macro6select19declare_result_enum0EB29_, symObjAddr: 0x7F0, symBinAddr: 0xFFB0, symSize: 0x20 }
  - { offset: 0x337C2, size: 0x8, addend: 0x0, symName: __RINvYINtNtNtCsieiGu2EXtoJ_4core3ops5range5RangejENtNtNtNtBa_4iter6traits8iterator8Iterator3mapNtNtCsdGrGZaRBwMb_3syn4expr5IndexNvYB1u_INtNtBa_7convert4FromjE4fromECsgKOh19surD7_13futures_macro, symObjAddr: 0x810, symBinAddr: 0xFFD0, symSize: 0x20 }
  - { offset: 0x3381A, size: 0x8, addend: 0x0, symName: __RINvYINtNtNtCsieiGu2EXtoJ_4core3ops5range5RangejENtNtNtNtBa_4iter6traits8iterator8Iterator4folduNCINvNtNtBR_8adapters3map8map_foldjNtCsaKzlTDPUHDb_11proc_macro25IdentuNCNvNtCsgKOh19surD7_13futures_macro13stream_select13stream_select0NCINvNvBL_8for_each4callB25_NCINvMsi_NtCslJiobkLta79_5alloc3vecINtB4k_3VecB25_E14extend_trustedINtB1B_3MapB3_B2F_EE0E0E0EB2L_, symObjAddr: 0x830, symBinAddr: 0xFFF0, symSize: 0xC0 }
  - { offset: 0x338AA, size: 0x8, addend: 0x0, symName: __RINvYINtNtNtCsieiGu2EXtoJ_4core3ops5range5RangejENtNtNtNtBa_4iter6traits8iterator8Iterator4folduNCINvNtNtBR_8adapters3map8map_foldjNtCsaKzlTDPUHDb_11proc_macro25IdentuNCNvNtCsgKOh19surD7_13futures_macro13stream_select13stream_selects0_0NCINvNvBL_8for_each4callB25_NCINvMsi_NtCslJiobkLta79_5alloc3vecINtB4n_3VecB25_E14extend_trustedINtB1B_3MapB3_B2F_EE0E0E0EB2L_, symObjAddr: 0x8F0, symBinAddr: 0x100B0, symSize: 0xC0 }
  - { offset: 0x3393A, size: 0x8, addend: 0x0, symName: __RINvYINtNtNtCsieiGu2EXtoJ_4core3ops5range5RangejENtNtNtNtBa_4iter6traits8iterator8Iterator4folduNCINvNtNtBR_8adapters3map8map_foldjNtCsaKzlTDPUHDb_11proc_macro25IdentuNCNvNtCsgKOh19surD7_13futures_macro13stream_select13stream_selects_0NCINvNvBL_8for_each4callB25_NCINvMsi_NtCslJiobkLta79_5alloc3vecINtB4m_3VecB25_E14extend_trustedINtB1B_3MapB3_B2F_EE0E0E0EB2L_, symObjAddr: 0x9B0, symBinAddr: 0x10170, symSize: 0xC0 }
  - { offset: 0x339CA, size: 0x8, addend: 0x0, symName: __RINvYINtNtNtCsieiGu2EXtoJ_4core3ops5range5RangejENtNtNtNtBa_4iter6traits8iterator8Iterator4folduNCINvNtNtBR_8adapters3map8map_foldjNtCsaKzlTDPUHDb_11proc_macro25IdentuNCNvNtCsgKOh19surD7_13futures_macro6select19declare_result_enum0NCINvNvBL_8for_each4callB25_NCINvMsi_NtCslJiobkLta79_5alloc3vecINtB4i_3VecB25_E14extend_trustedINtB1B_3MapB3_B2F_EE0E0E0EB2L_, symObjAddr: 0xA70, symBinAddr: 0x10230, symSize: 0xC0 }
  - { offset: 0x33A5A, size: 0x8, addend: 0x0, symName: __RINvYINtNtNtCsieiGu2EXtoJ_4core3ops5range5RangejENtNtNtNtBa_4iter6traits8iterator8Iterator4folduNCINvNtNtBR_8adapters3map8map_foldjNtNtCsdGrGZaRBwMb_3syn4expr5IndexuNvYB25_INtNtBa_7convert4FromjE4fromNCINvNvBL_8for_each4callB25_NCINvMsi_NtCslJiobkLta79_5alloc3vecINtB3N_3VecB25_E14extend_trustedINtB1B_3MapB3_B2D_EE0E0E0ECsgKOh19surD7_13futures_macro, symObjAddr: 0xB30, symBinAddr: 0x102F0, symSize: 0xC0 }
  - { offset: 0x33AEA, size: 0x8, addend: 0x0, symName: __RINvYINtNtNtCslJiobkLta79_5alloc3vec9into_iter8IntoIterNtNtCsdGrGZaRBwMb_3syn4expr4ExprENtNtNtNtCsieiGu2EXtoJ_4core4iter6traits8iterator8Iterator3zipINtNtNtB1w_5slice4iter4IterNtCsaKzlTDPUHDb_11proc_macro25IdentEECsgKOh19surD7_13futures_macro, symObjAddr: 0xBF0, symBinAddr: 0x103B0, symSize: 0xD0 }
  - { offset: 0x33B61, size: 0x8, addend: 0x0, symName: __RINvYINtNtNtCslJiobkLta79_5alloc3vec9into_iter8IntoIterTNtNtCsdGrGZaRBwMb_3syn3pat3PatNtNtBW_4expr4ExprEENtNtNtNtCsieiGu2EXtoJ_4core4iter6traits8iterator8Iterator3zipINtNtNtB1N_5slice4iter4IterNtCsaKzlTDPUHDb_11proc_macro25IdentEECsgKOh19surD7_13futures_macro, symObjAddr: 0xCC0, symBinAddr: 0x10480, symSize: 0xD0 }
  - { offset: 0x33BD8, size: 0x8, addend: 0x0, symName: __RNvYINtNtNtCslJiobkLta79_5alloc3vec9into_iter8IntoIterNtNtCsdGrGZaRBwMb_3syn4expr4ExprENtNtNtNtCsieiGu2EXtoJ_4core4iter6traits8iterator8Iterator9enumerateCsgKOh19surD7_13futures_macro, symObjAddr: 0x5170, symBinAddr: 0x14920, symSize: 0x30 }
  - { offset: 0x33D10, size: 0x8, addend: 0x0, symName: __RNvYINtNtNtCslJiobkLta79_5alloc3vec9into_iter8IntoIterNtNtCsdGrGZaRBwMb_3syn4expr4ExprENtNtNtNtCsieiGu2EXtoJ_4core4iter6traits10exact_size17ExactSizeIterator3lenCsgKOh19surD7_13futures_macro, symObjAddr: 0x5090, symBinAddr: 0x14840, symSize: 0xE0 }
  - { offset: 0x33E10, size: 0x8, addend: 0x0, symName: __RNvYINtNtNtCslJiobkLta79_5alloc3vec9into_iter8IntoIterTNtNtCsdGrGZaRBwMb_3syn3pat3PatNtNtBV_4expr4ExprEENtNtNtNtCsieiGu2EXtoJ_4core4iter6traits10exact_size17ExactSizeIterator3lenCsgKOh19surD7_13futures_macro, symObjAddr: 0x51A0, symBinAddr: 0x14950, symSize: 0xE0 }
  - { offset: 0x34286, size: 0x8, addend: 0x0, symName: __RNvXs3_NtNtCsieiGu2EXtoJ_4core4iter5rangeINtNtNtB9_3ops5range5RangejENtB5_17RangeIteratorImpl9spec_nextCsgKOh19surD7_13futures_macro, symObjAddr: 0x35C0, symBinAddr: 0x12D70, symSize: 0x80 }
  - { offset: 0x34307, size: 0x8, addend: 0x0, symName: __RNvXs4_NtNtCsieiGu2EXtoJ_4core4iter5rangeINtNtNtB9_3ops5range5RangejENtNtNtB7_6traits8iterator8Iterator4nextCsgKOh19surD7_13futures_macro, symObjAddr: 0x3910, symBinAddr: 0x130C0, symSize: 0x20 }
  - { offset: 0x3433E, size: 0x8, addend: 0x0, symName: __RNvXs4_NtNtCsieiGu2EXtoJ_4core4iter5rangeINtNtNtB9_3ops5range5RangejENtNtNtB7_6traits8iterator8Iterator9size_hintCsgKOh19surD7_13futures_macro, symObjAddr: 0x3930, symBinAddr: 0x130E0, symSize: 0x80 }
  - { offset: 0x344FE, size: 0x8, addend: 0x0, symName: __RNvMNtCsieiGu2EXtoJ_4core5sliceSh15copy_from_sliceCsgKOh19surD7_13futures_macro, symObjAddr: 0x11F0, symBinAddr: 0x109B0, symSize: 0xA0 }
  - { offset: 0x345AD, size: 0x8, addend: 0x0, symName: __RNvNvNtNtCsieiGu2EXtoJ_4core5slice3raw14from_raw_parts18precondition_checkCsgKOh19surD7_13futures_macro, symObjAddr: 0x2E60, symBinAddr: 0x12610, symSize: 0x260 }
  - { offset: 0x3477B, size: 0x8, addend: 0x0, symName: __RNvNvNtNtCsieiGu2EXtoJ_4core5slice3raw18from_raw_parts_mut18precondition_checkCsgKOh19surD7_13futures_macro, symObjAddr: 0x30C0, symBinAddr: 0x12870, symSize: 0x260 }
  - { offset: 0x34B47, size: 0x8, addend: 0x0, symName: __RNvNvMNtNtCsieiGu2EXtoJ_4core5alloc6layoutNtB4_6Layout25from_size_align_unchecked18precondition_checkCsgKOh19surD7_13futures_macro, symObjAddr: 0x2CA0, symBinAddr: 0x12450, symSize: 0xB0 }
  - { offset: 0x34E1F, size: 0x8, addend: 0x0, symName: __RNCNvMs3_NtNtCsHUR1vrdMJt_3std6thread5localINtB7_8LocalKeyINtNtCsieiGu2EXtoJ_4core4cell4CellPuEE7replace0CsgKOh19surD7_13futures_macro, symObjAddr: 0xD90, symBinAddr: 0x10550, symSize: 0x20 }
  - { offset: 0x34F54, size: 0x8, addend: 0x0, symName: __RNCNvXs1_NtNtNtCsHUR1vrdMJt_3std2io5error14repr_bitpackedNtB7_4ReprNtNtNtCsieiGu2EXtoJ_4core3ops4drop4Drop4drop0CsgKOh19surD7_13futures_macro, symObjAddr: 0x10B0, symBinAddr: 0x10870, symSize: 0x30 }
  - { offset: 0x35009, size: 0x8, addend: 0x0, symName: __RNvXs1_NtNtNtCsHUR1vrdMJt_3std2io5error14repr_bitpackedNtB5_4ReprNtNtNtCsieiGu2EXtoJ_4core3ops4drop4Drop4dropCsgKOh19surD7_13futures_macro, symObjAddr: 0x3550, symBinAddr: 0x12D00, symSize: 0x30 }
  - { offset: 0x35032, size: 0x8, addend: 0x0, symName: __RINvNtNtNtCsHUR1vrdMJt_3std2io5error14repr_bitpacked11decode_reprINtNtCslJiobkLta79_5alloc5boxed3BoxNtB4_6CustomENCNvXs1_B2_NtB2_4ReprNtNtNtCsieiGu2EXtoJ_4core3ops4drop4Drop4drop0ECsgKOh19surD7_13futures_macro, symObjAddr: 0x340, symBinAddr: 0xFB00, symSize: 0x200 }
  - { offset: 0x35293, size: 0x8, addend: 0x0, symName: __RNvNtNtNtCsHUR1vrdMJt_3std2io5error14repr_bitpacked14kind_from_primCsgKOh19surD7_13futures_macro, symObjAddr: 0x2650, symBinAddr: 0x11E00, symSize: 0x5B0 }
  - { offset: 0x35D75, size: 0x8, addend: 0x0, symName: ___rustc_proc_macro_decls_c327f07b271d5a57__, symObjAddr: 0x6218, symBinAddr: 0x1B3A90, symSize: 0x0 }
  - { offset: 0x35DB5, size: 0x8, addend: 0x0, symName: __RNCNvXs0_NvNtNtCsgKOh19surD7_13futures_macro6select2kw1__NtB9_8completeNtNtCsdGrGZaRBwMb_3syn5parse5Parse5parse0Bd_, symObjAddr: 0xE70, symBinAddr: 0x10630, symSize: 0x240 }
  - { offset: 0x35E1A, size: 0x8, addend: 0x0, symName: __RNvXs0_NvNtNtCsgKOh19surD7_13futures_macro6select2kw1__NtB7_8completeNtNtCsdGrGZaRBwMb_3syn5parse5Parse5parse, symObjAddr: 0x3470, symBinAddr: 0x12C20, symSize: 0x30 }
  - { offset: 0x35E4C, size: 0x8, addend: 0x0, symName: __RNvXs_NvNtNtCsgKOh19surD7_13futures_macro6select2kw1__NtB6_8completeNtNtNtCsdGrGZaRBwMb_3syn5token7private11CustomToken4peek, symObjAddr: 0x42C0, symBinAddr: 0x13A70, symSize: 0xF0 }
  - { offset: 0x35EC0, size: 0x8, addend: 0x0, symName: __RNCNvNtCsgKOh19surD7_13futures_macro8executor4test0B5_, symObjAddr: 0xDB0, symBinAddr: 0x10570, symSize: 0x60 }
  - { offset: 0x35EF7, size: 0x8, addend: 0x0, symName: __RNCNvNtCsgKOh19surD7_13futures_macro8executor4tests_0B5_, symObjAddr: 0xE10, symBinAddr: 0x105D0, symSize: 0x60 }
  - { offset: 0x35F3D, size: 0x8, addend: 0x0, symName: __RNvNtCsgKOh19surD7_13futures_macro8executor4test, symObjAddr: 0x1860, symBinAddr: 0x11020, symSize: 0xD40 }
  - { offset: 0x36163, size: 0x8, addend: 0x0, symName: __RNvCsgKOh19surD7_13futures_macro13join_internal, symObjAddr: 0x10E0, symBinAddr: 0x108A0, symSize: 0x20 }
  - { offset: 0x3618F, size: 0x8, addend: 0x0, symName: __RNvCsgKOh19surD7_13futures_macro13test_internal, symObjAddr: 0x1100, symBinAddr: 0x108C0, symSize: 0x30 }
  - { offset: 0x361C9, size: 0x8, addend: 0x0, symName: __RNvCsgKOh19surD7_13futures_macro15select_internal, symObjAddr: 0x1130, symBinAddr: 0x108F0, symSize: 0x20 }
  - { offset: 0x361F5, size: 0x8, addend: 0x0, symName: __RNvCsgKOh19surD7_13futures_macro17try_join_internal, symObjAddr: 0x1150, symBinAddr: 0x10910, symSize: 0x20 }
  - { offset: 0x36221, size: 0x8, addend: 0x0, symName: __RNvCsgKOh19surD7_13futures_macro22select_biased_internal, symObjAddr: 0x1170, symBinAddr: 0x10930, symSize: 0x20 }
  - { offset: 0x3624D, size: 0x8, addend: 0x0, symName: __RNvCsgKOh19surD7_13futures_macro22stream_select_internal, symObjAddr: 0x1190, symBinAddr: 0x10950, symSize: 0x60 }
  - { offset: 0x3644E, size: 0x8, addend: 0x0, symName: __RINvMs2_NtNtCsHUR1vrdMJt_3std6thread5localINtB6_8LocalKeyINtNtCsieiGu2EXtoJ_4core4cell4CellPuEE4withNCNvMs3_B6_BE_7replace0B1r_ECsgKOh19surD7_13futures_macro, symObjAddr: 0x0, symBinAddr: 0xF7C0, symSize: 0x50 }
  - { offset: 0x36507, size: 0x8, addend: 0x0, symName: __RINvMs2_NtNtCsHUR1vrdMJt_3std6thread5localINtB6_8LocalKeyINtNtCsieiGu2EXtoJ_4core4cell4CellPuEE8try_withNCNvMs3_B6_BE_7replace0B1r_ECsgKOh19surD7_13futures_macro, symObjAddr: 0x50, symBinAddr: 0xF810, symSize: 0xF0 }
  - { offset: 0x36654, size: 0x8, addend: 0x0, symName: __RINvNtCs9OU1sGv5X54_5quote9___private8get_spanNtCsaKzlTDPUHDb_11proc_macro24SpanECsgKOh19surD7_13futures_macro, symObjAddr: 0x140, symBinAddr: 0xF900, symSize: 0x20 }
  - { offset: 0x3677C, size: 0x8, addend: 0x0, symName: __RNvXs5_NtCs9OU1sGv5X54_5quote9___privateINtB5_9RepInterpNtCsaKzlTDPUHDb_11proc_macro211TokenStreamENtNtB7_9to_tokens8ToTokens9to_tokensCsgKOh19surD7_13futures_macro, symObjAddr: 0x39B0, symBinAddr: 0x13160, symSize: 0x30 }
  - { offset: 0x367BB, size: 0x8, addend: 0x0, symName: __RNvXs5_NtCs9OU1sGv5X54_5quote9___privateINtB5_9RepInterpRNtCsaKzlTDPUHDb_11proc_macro211TokenStreamENtNtB7_9to_tokens8ToTokens9to_tokensCsgKOh19surD7_13futures_macro, symObjAddr: 0x39E0, symBinAddr: 0x13190, symSize: 0x30 }
  - { offset: 0x367FA, size: 0x8, addend: 0x0, symName: __RNvXs5_NtCs9OU1sGv5X54_5quote9___privateINtB5_9RepInterpRNtCsaKzlTDPUHDb_11proc_macro25IdentENtNtB7_9to_tokens8ToTokens9to_tokensCsgKOh19surD7_13futures_macro, symObjAddr: 0x3A10, symBinAddr: 0x131C0, symSize: 0x30 }
  - { offset: 0x36839, size: 0x8, addend: 0x0, symName: __RNvXs5_NtCs9OU1sGv5X54_5quote9___privateINtB5_9RepInterpRNtNtCsdGrGZaRBwMb_3syn4expr5IndexENtNtB7_9to_tokens8ToTokens9to_tokensCsgKOh19surD7_13futures_macro, symObjAddr: 0x3A40, symBinAddr: 0x131F0, symSize: 0x30 }
  - { offset: 0x3687E, size: 0x8, addend: 0x0, symName: __RNvXs7_NtCs9OU1sGv5X54_5quote9___privateINtB5_20IdentFragmentAdapterRjENtNtCsieiGu2EXtoJ_4core3fmt7Display3fmtCsgKOh19surD7_13futures_macro, symObjAddr: 0x3A70, symBinAddr: 0x13220, symSize: 0x30 }
  - { offset: 0x368CA, size: 0x8, addend: 0x0, symName: __RNvYINtNtCs9OU1sGv5X54_5quote9___private11HasIteratorKb1_EINtB5_16CheckHasIteratorKBQ_E5checkCsgKOh19surD7_13futures_macro, symObjAddr: 0x5080, symBinAddr: 0x14830, symSize: 0x10 }
  - { offset: 0x37306, size: 0x8, addend: 0x0, symName: __RNvMNtCslJiobkLta79_5alloc5allocNtB2_6Global10alloc_implCsgKOh19surD7_13futures_macro, symObjAddr: 0x1290, symBinAddr: 0x10A50, symSize: 0x290 }
  - { offset: 0x37680, size: 0x8, addend: 0x0, symName: __RNvMNtNtCs9OU1sGv5X54_5quote9___private8get_spanINtB2_7GetSpanNtCsaKzlTDPUHDb_11proc_macro24SpanE11___into_spanCsgKOh19surD7_13futures_macro, symObjAddr: 0x1520, symBinAddr: 0x10CE0, symSize: 0x20 }
  - { offset: 0x376CB, size: 0x8, addend: 0x0, symName: __RNvMs1_NtNtCsieiGu2EXtoJ_4core3ptr8non_nullINtB5_7NonNullNtCsaKzlTDPUHDb_11proc_macro25IdentE20offset_from_unsignedCsgKOh19surD7_13futures_macro, symObjAddr: 0x1540, symBinAddr: 0x10D00, symSize: 0x70 }
  - { offset: 0x377C8, size: 0x8, addend: 0x0, symName: __RNvMs1_NtNtCsieiGu2EXtoJ_4core3ptr8non_nullINtB5_7NonNullNtNtCsdGrGZaRBwMb_3syn4expr4ExprE20offset_from_unsignedCsgKOh19surD7_13futures_macro, symObjAddr: 0x15B0, symBinAddr: 0x10D70, symSize: 0x70 }
  - { offset: 0x378D2, size: 0x8, addend: 0x0, symName: __RNvMs1_NtNtCsieiGu2EXtoJ_4core3ptr8non_nullINtB5_7NonNullNtNtCsdGrGZaRBwMb_3syn4expr8ExprPathE20offset_from_unsignedCsgKOh19surD7_13futures_macro, symObjAddr: 0x1620, symBinAddr: 0x10DE0, symSize: 0x70 }
  - { offset: 0x379CF, size: 0x8, addend: 0x0, symName: __RNvMs1_NtNtCsieiGu2EXtoJ_4core3ptr8non_nullINtB5_7NonNullTNtNtCsdGrGZaRBwMb_3syn3pat3PatNtNtBY_4expr4ExprEE20offset_from_unsignedCsgKOh19surD7_13futures_macro, symObjAddr: 0x1690, symBinAddr: 0x10E50, symSize: 0x70 }
  - { offset: 0x37AD9, size: 0x8, addend: 0x0, symName: __RNvMs1_NtNtCsieiGu2EXtoJ_4core3ptr8non_nullINtB5_7NonNullTNtNtCsdGrGZaRBwMb_3syn4expr4ExprNtNtBY_5token5CommaEE20offset_from_unsignedCsgKOh19surD7_13futures_macro, symObjAddr: 0x1700, symBinAddr: 0x10EC0, symSize: 0x70 }
  - { offset: 0x37BAD, size: 0x8, addend: 0x0, symName: __RNvMs3_NtCs9OU1sGv5X54_5quote9___privateINtB5_9RepInterpRNtCsaKzlTDPUHDb_11proc_macro25IdentE4nextCsgKOh19surD7_13futures_macro, symObjAddr: 0x1770, symBinAddr: 0x10F30, symSize: 0x20 }
  - { offset: 0x37BE5, size: 0x8, addend: 0x0, symName: __RNvMs6_NtCs9OU1sGv5X54_5quote9___privateINtB5_20IdentFragmentAdapterRjE4spanCsgKOh19surD7_13futures_macro, symObjAddr: 0x1790, symBinAddr: 0x10F50, symSize: 0x20 }
  - { offset: 0x37D13, size: 0x8, addend: 0x0, symName: __RNvMs_NtNtCslJiobkLta79_5alloc3vec9into_iterINtB4_8IntoIterNtNtCsdGrGZaRBwMb_3syn4expr4ExprE32forget_allocation_drop_remainingCsgKOh19surD7_13futures_macro, symObjAddr: 0x17B0, symBinAddr: 0x10F70, symSize: 0xB0 }
  - { offset: 0x38870, size: 0x8, addend: 0x0, symName: __RINvMsi_NtCslJiobkLta79_5alloc3vecINtB6_3VecNtCsaKzlTDPUHDb_11proc_macro25IdentE14extend_trustedINtNtNtNtCsieiGu2EXtoJ_4core4iter8adapters3map3MapINtNtNtB1F_3ops5range5RangejENCNvNtCsgKOh19surD7_13futures_macro13stream_select13stream_select0EEB2T_, symObjAddr: 0x0, symBinAddr: 0x14A30, symSize: 0x1A0 }
  - { offset: 0x3C89E, size: 0x8, addend: 0x0, symName: __RNCINvNtNtCscKtU6MdFI5n_10proc_macro6bridge6client10run_clientNtB4_11TokenStreamINtNtCsieiGu2EXtoJ_4core6option6OptionBY_ENCNCINvMs6_B4_INtB4_6ClientNtB8_11TokenStreamB2n_E7expand1NvCsgKOh19surD7_13futures_macro13join_internalE00E0B2U_, symObjAddr: 0x1E00, symBinAddr: 0x16830, symSize: 0x420 }
  - { offset: 0x3CABF, size: 0x8, addend: 0x0, symName: __RNCINvNtNtCscKtU6MdFI5n_10proc_macro6bridge6client10run_clientNtB4_11TokenStreamINtNtCsieiGu2EXtoJ_4core6option6OptionBY_ENCNCINvMs6_B4_INtB4_6ClientNtB8_11TokenStreamB2n_E7expand1NvCsgKOh19surD7_13futures_macro15select_internalE00E0B2U_, symObjAddr: 0x2220, symBinAddr: 0x16C50, symSize: 0x420 }
  - { offset: 0x3CCE0, size: 0x8, addend: 0x0, symName: __RNCINvNtNtCscKtU6MdFI5n_10proc_macro6bridge6client10run_clientNtB4_11TokenStreamINtNtCsieiGu2EXtoJ_4core6option6OptionBY_ENCNCINvMs6_B4_INtB4_6ClientNtB8_11TokenStreamB2n_E7expand1NvCsgKOh19surD7_13futures_macro17try_join_internalE00E0B2U_, symObjAddr: 0x2640, symBinAddr: 0x17070, symSize: 0x420 }
  - { offset: 0x3CF01, size: 0x8, addend: 0x0, symName: __RNCINvNtNtCscKtU6MdFI5n_10proc_macro6bridge6client10run_clientNtB4_11TokenStreamINtNtCsieiGu2EXtoJ_4core6option6OptionBY_ENCNCINvMs6_B4_INtB4_6ClientNtB8_11TokenStreamB2n_E7expand1NvCsgKOh19surD7_13futures_macro22select_biased_internalE00E0B2U_, symObjAddr: 0x2A60, symBinAddr: 0x17490, symSize: 0x420 }
  - { offset: 0x3D122, size: 0x8, addend: 0x0, symName: __RNCINvNtNtCscKtU6MdFI5n_10proc_macro6bridge6client10run_clientNtB4_11TokenStreamINtNtCsieiGu2EXtoJ_4core6option6OptionBY_ENCNCINvMs6_B4_INtB4_6ClientNtB8_11TokenStreamB2n_E7expand1NvCsgKOh19surD7_13futures_macro22stream_select_internalE00E0B2U_, symObjAddr: 0x2E80, symBinAddr: 0x178B0, symSize: 0x420 }
  - { offset: 0x3D343, size: 0x8, addend: 0x0, symName: __RNCINvNtNtCscKtU6MdFI5n_10proc_macro6bridge6client10run_clientTNtB4_11TokenStreamBZ_EINtNtCsieiGu2EXtoJ_4core6option6OptionBZ_ENCNCINvMs7_B4_INtB4_6ClientTNtB8_11TokenStreamB2t_EB2t_E7expand2NvCsgKOh19surD7_13futures_macro13test_internalE00E0B35_, symObjAddr: 0x32A0, symBinAddr: 0x17CD0, symSize: 0x450 }
  - { offset: 0x3D569, size: 0x8, addend: 0x0, symName: __RNCNCINvNtNtCscKtU6MdFI5n_10proc_macro6bridge6client10run_clientNtB6_11TokenStreamINtNtCsieiGu2EXtoJ_4core6option6OptionB10_ENCNCINvMs6_B6_INtB6_6ClientNtBa_11TokenStreamB2q_E7expand1NvCsgKOh19surD7_13futures_macro13join_internalE00E00B2X_, symObjAddr: 0x37C0, symBinAddr: 0x181F0, symSize: 0x20 }
  - { offset: 0x3D5C5, size: 0x8, addend: 0x0, symName: __RNCNCINvNtNtCscKtU6MdFI5n_10proc_macro6bridge6client10run_clientNtB6_11TokenStreamINtNtCsieiGu2EXtoJ_4core6option6OptionB10_ENCNCINvMs6_B6_INtB6_6ClientNtBa_11TokenStreamB2q_E7expand1NvCsgKOh19surD7_13futures_macro15select_internalE00E00B2X_, symObjAddr: 0x37E0, symBinAddr: 0x18210, symSize: 0x20 }
  - { offset: 0x3D621, size: 0x8, addend: 0x0, symName: __RNCNCINvNtNtCscKtU6MdFI5n_10proc_macro6bridge6client10run_clientNtB6_11TokenStreamINtNtCsieiGu2EXtoJ_4core6option6OptionB10_ENCNCINvMs6_B6_INtB6_6ClientNtBa_11TokenStreamB2q_E7expand1NvCsgKOh19surD7_13futures_macro17try_join_internalE00E00B2X_, symObjAddr: 0x3800, symBinAddr: 0x18230, symSize: 0x20 }
  - { offset: 0x3D67D, size: 0x8, addend: 0x0, symName: __RNCNCINvNtNtCscKtU6MdFI5n_10proc_macro6bridge6client10run_clientNtB6_11TokenStreamINtNtCsieiGu2EXtoJ_4core6option6OptionB10_ENCNCINvMs6_B6_INtB6_6ClientNtBa_11TokenStreamB2q_E7expand1NvCsgKOh19surD7_13futures_macro22select_biased_internalE00E00B2X_, symObjAddr: 0x3820, symBinAddr: 0x18250, symSize: 0x20 }
  - { offset: 0x3D6D9, size: 0x8, addend: 0x0, symName: __RNCNCINvNtNtCscKtU6MdFI5n_10proc_macro6bridge6client10run_clientNtB6_11TokenStreamINtNtCsieiGu2EXtoJ_4core6option6OptionB10_ENCNCINvMs6_B6_INtB6_6ClientNtBa_11TokenStreamB2q_E7expand1NvCsgKOh19surD7_13futures_macro22stream_select_internalE00E00B2X_, symObjAddr: 0x3840, symBinAddr: 0x18270, symSize: 0x20 }
  - { offset: 0x3D735, size: 0x8, addend: 0x0, symName: __RNCNCINvNtNtCscKtU6MdFI5n_10proc_macro6bridge6client10run_clientTNtB6_11TokenStreamB11_EINtNtCsieiGu2EXtoJ_4core6option6OptionB11_ENCNCINvMs7_B6_INtB6_6ClientTNtBa_11TokenStreamB2x_EB2x_E7expand2NvCsgKOh19surD7_13futures_macro13test_internalE00E00B39_, symObjAddr: 0x3860, symBinAddr: 0x18290, symSize: 0x20 }
  - { offset: 0x3D801, size: 0x8, addend: 0x0, symName: __RNCNCINvMs6_NtNtCscKtU6MdFI5n_10proc_macro6bridge6clientINtBa_6ClientNtBe_11TokenStreamB15_E7expand1NvCsgKOh19surD7_13futures_macro13join_internalE00B1C_, symObjAddr: 0x36F0, symBinAddr: 0x18120, symSize: 0x20 }
  - { offset: 0x3D849, size: 0x8, addend: 0x0, symName: __RNCNCINvMs6_NtNtCscKtU6MdFI5n_10proc_macro6bridge6clientINtBa_6ClientNtBe_11TokenStreamB15_E7expand1NvCsgKOh19surD7_13futures_macro15select_internalE00B1C_, symObjAddr: 0x3710, symBinAddr: 0x18140, symSize: 0x20 }
  - { offset: 0x3D891, size: 0x8, addend: 0x0, symName: __RNCNCINvMs6_NtNtCscKtU6MdFI5n_10proc_macro6bridge6clientINtBa_6ClientNtBe_11TokenStreamB15_E7expand1NvCsgKOh19surD7_13futures_macro17try_join_internalE00B1C_, symObjAddr: 0x3730, symBinAddr: 0x18160, symSize: 0x20 }
  - { offset: 0x3D8D9, size: 0x8, addend: 0x0, symName: __RNCNCINvMs6_NtNtCscKtU6MdFI5n_10proc_macro6bridge6clientINtBa_6ClientNtBe_11TokenStreamB15_E7expand1NvCsgKOh19surD7_13futures_macro22select_biased_internalE00B1C_, symObjAddr: 0x3750, symBinAddr: 0x18180, symSize: 0x20 }
  - { offset: 0x3D921, size: 0x8, addend: 0x0, symName: __RNCNCINvMs6_NtNtCscKtU6MdFI5n_10proc_macro6bridge6clientINtBa_6ClientNtBe_11TokenStreamB15_E7expand1NvCsgKOh19surD7_13futures_macro22stream_select_internalE00B1C_, symObjAddr: 0x3770, symBinAddr: 0x181A0, symSize: 0x20 }
  - { offset: 0x3D96A, size: 0x8, addend: 0x0, symName: __RNCINvMs6_NtNtCscKtU6MdFI5n_10proc_macro6bridge6clientINtB8_6ClientNtBc_11TokenStreamB13_E7expand1NvCsgKOh19surD7_13futures_macro13join_internalE0B1A_, symObjAddr: 0x1BB0, symBinAddr: 0x165E0, symSize: 0x30 }
  - { offset: 0x3D9B3, size: 0x8, addend: 0x0, symName: __RNCINvMs6_NtNtCscKtU6MdFI5n_10proc_macro6bridge6clientINtB8_6ClientNtBc_11TokenStreamB13_E7expand1NvCsgKOh19surD7_13futures_macro15select_internalE0B1A_, symObjAddr: 0x1BE0, symBinAddr: 0x16610, symSize: 0x30 }
  - { offset: 0x3D9FC, size: 0x8, addend: 0x0, symName: __RNCINvMs6_NtNtCscKtU6MdFI5n_10proc_macro6bridge6clientINtB8_6ClientNtBc_11TokenStreamB13_E7expand1NvCsgKOh19surD7_13futures_macro17try_join_internalE0B1A_, symObjAddr: 0x1C10, symBinAddr: 0x16640, symSize: 0x30 }
  - { offset: 0x3DA45, size: 0x8, addend: 0x0, symName: __RNCINvMs6_NtNtCscKtU6MdFI5n_10proc_macro6bridge6clientINtB8_6ClientNtBc_11TokenStreamB13_E7expand1NvCsgKOh19surD7_13futures_macro22select_biased_internalE0B1A_, symObjAddr: 0x1C40, symBinAddr: 0x16670, symSize: 0x30 }
  - { offset: 0x3DA8E, size: 0x8, addend: 0x0, symName: __RNCINvMs6_NtNtCscKtU6MdFI5n_10proc_macro6bridge6clientINtB8_6ClientNtBc_11TokenStreamB13_E7expand1NvCsgKOh19surD7_13futures_macro22stream_select_internalE0B1A_, symObjAddr: 0x1C70, symBinAddr: 0x166A0, symSize: 0x30 }
  - { offset: 0x3DAFA, size: 0x8, addend: 0x0, symName: __RINvNtNtCscKtU6MdFI5n_10proc_macro6bridge6client10run_clientNtB2_11TokenStreamINtNtCsieiGu2EXtoJ_4core6option6OptionBW_ENCNCINvMs6_B2_INtB2_6ClientNtB6_11TokenStreamB2l_E7expand1NvCsgKOh19surD7_13futures_macro13join_internalE00EB2S_, symObjAddr: 0x830, symBinAddr: 0x15260, symSize: 0x2E0 }
  - { offset: 0x3DCE4, size: 0x8, addend: 0x0, symName: __RINvNtNtCscKtU6MdFI5n_10proc_macro6bridge6client10run_clientNtB2_11TokenStreamINtNtCsieiGu2EXtoJ_4core6option6OptionBW_ENCNCINvMs6_B2_INtB2_6ClientNtB6_11TokenStreamB2l_E7expand1NvCsgKOh19surD7_13futures_macro15select_internalE00EB2S_, symObjAddr: 0xB10, symBinAddr: 0x15540, symSize: 0x2E0 }
  - { offset: 0x3DECE, size: 0x8, addend: 0x0, symName: __RINvNtNtCscKtU6MdFI5n_10proc_macro6bridge6client10run_clientNtB2_11TokenStreamINtNtCsieiGu2EXtoJ_4core6option6OptionBW_ENCNCINvMs6_B2_INtB2_6ClientNtB6_11TokenStreamB2l_E7expand1NvCsgKOh19surD7_13futures_macro17try_join_internalE00EB2S_, symObjAddr: 0xDF0, symBinAddr: 0x15820, symSize: 0x2E0 }
  - { offset: 0x3E0B8, size: 0x8, addend: 0x0, symName: __RINvNtNtCscKtU6MdFI5n_10proc_macro6bridge6client10run_clientNtB2_11TokenStreamINtNtCsieiGu2EXtoJ_4core6option6OptionBW_ENCNCINvMs6_B2_INtB2_6ClientNtB6_11TokenStreamB2l_E7expand1NvCsgKOh19surD7_13futures_macro22select_biased_internalE00EB2S_, symObjAddr: 0x10D0, symBinAddr: 0x15B00, symSize: 0x2E0 }
  - { offset: 0x3E2A2, size: 0x8, addend: 0x0, symName: __RINvNtNtCscKtU6MdFI5n_10proc_macro6bridge6client10run_clientNtB2_11TokenStreamINtNtCsieiGu2EXtoJ_4core6option6OptionBW_ENCNCINvMs6_B2_INtB2_6ClientNtB6_11TokenStreamB2l_E7expand1NvCsgKOh19surD7_13futures_macro22stream_select_internalE00EB2S_, symObjAddr: 0x13B0, symBinAddr: 0x15DE0, symSize: 0x2E0 }
  - { offset: 0x3E4AE, size: 0x8, addend: 0x0, symName: __RNCNCINvMs7_NtNtCscKtU6MdFI5n_10proc_macro6bridge6clientINtBa_6ClientTNtBe_11TokenStreamB16_EB16_E7expand2NvCsgKOh19surD7_13futures_macro13test_internalE00B1I_, symObjAddr: 0x3790, symBinAddr: 0x181C0, symSize: 0x30 }
  - { offset: 0x3E521, size: 0x8, addend: 0x0, symName: __RNCINvMs7_NtNtCscKtU6MdFI5n_10proc_macro6bridge6clientINtB8_6ClientTNtBc_11TokenStreamB14_EB14_E7expand2NvCsgKOh19surD7_13futures_macro13test_internalE0B1G_, symObjAddr: 0x1CA0, symBinAddr: 0x166D0, symSize: 0x30 }
  - { offset: 0x3E56C, size: 0x8, addend: 0x0, symName: __RINvNtNtCscKtU6MdFI5n_10proc_macro6bridge6client10run_clientTNtB2_11TokenStreamBX_EINtNtCsieiGu2EXtoJ_4core6option6OptionBX_ENCNCINvMs7_B2_INtB2_6ClientTNtB6_11TokenStreamB2r_EB2r_E7expand2NvCsgKOh19surD7_13futures_macro13test_internalE00EB33_, symObjAddr: 0x1690, symBinAddr: 0x160C0, symSize: 0x2E0 }
  - { offset: 0x3E788, size: 0x8, addend: 0x0, symName: __RNvXsf_NtNtCscKtU6MdFI5n_10proc_macro6bridge6clientNtB5_11TokenStreamINtNtB7_3rpc6EncodeuE6encodeCsgKOh19surD7_13futures_macro, symObjAddr: 0x50A0, symBinAddr: 0x19AD0, symSize: 0x40 }
  - { offset: 0x3E899, size: 0x8, addend: 0x0, symName: __RNvXsi_NtNtCscKtU6MdFI5n_10proc_macro6bridge6clientNtB5_11TokenStreamINtNtB7_3rpc9DecodeMutuE6decodeCsgKOh19surD7_13futures_macro, symObjAddr: 0x50E0, symBinAddr: 0x19B10, symSize: 0x20 }
  - { offset: 0x3E8E2, size: 0x8, addend: 0x0, symName: __RNvXsk_NtNtCscKtU6MdFI5n_10proc_macro6bridge6clientNtB5_4SpanINtNtB7_3rpc9DecodeMutuE6decodeCsgKOh19surD7_13futures_macro, symObjAddr: 0x5100, symBinAddr: 0x19B30, symSize: 0x20 }
  - { offset: 0x3EC03, size: 0x8, addend: 0x0, symName: __RNvXs9_NtNtCscKtU6MdFI5n_10proc_macro6bridge3rpcTNtNtB7_6client11TokenStreamBL_EINtB5_9DecodeMutuE6decodeCsgKOh19surD7_13futures_macro, symObjAddr: 0x4430, symBinAddr: 0x18E60, symSize: 0x70 }
  - { offset: 0x40961, size: 0x8, addend: 0x0, symName: __RINvXsd_NtCslJiobkLta79_5alloc3vecINtB6_3VecNtCsaKzlTDPUHDb_11proc_macro25IdentEINtNtNtNtCsieiGu2EXtoJ_4core4iter6traits7collect12FromIteratorBG_E9from_iterINtNtNtB1n_8adapters3map3MapINtNtB2z_9enumerate9EnumerateINtNtB6_9into_iter8IntoIterNtNtCsdGrGZaRBwMb_3syn4expr4ExprEENCNvNtCsgKOh19surD7_13futures_macro4join12bind_futures0EEB4u_, symObjAddr: 0x1970, symBinAddr: 0x163A0, symSize: 0x40 }
  - { offset: 0x409A2, size: 0x8, addend: 0x0, symName: __RINvXsd_NtCslJiobkLta79_5alloc3vecINtB6_3VecNtCsaKzlTDPUHDb_11proc_macro25IdentEINtNtNtNtCsieiGu2EXtoJ_4core4iter6traits7collect12FromIteratorBG_E9from_iterINtNtNtB1n_8adapters3map3MapINtNtNtB1p_3ops5range5RangejENCNvNtCsgKOh19surD7_13futures_macro13stream_select13stream_select0EEB3v_, symObjAddr: 0x19B0, symBinAddr: 0x163E0, symSize: 0x60 }
  - { offset: 0x409E2, size: 0x8, addend: 0x0, symName: __RINvXsd_NtCslJiobkLta79_5alloc3vecINtB6_3VecNtCsaKzlTDPUHDb_11proc_macro25IdentEINtNtNtNtCsieiGu2EXtoJ_4core4iter6traits7collect12FromIteratorBG_E9from_iterINtNtNtB1n_8adapters3map3MapINtNtNtB1p_3ops5range5RangejENCNvNtCsgKOh19surD7_13futures_macro13stream_select13stream_selects0_0EEB3v_, symObjAddr: 0x1A10, symBinAddr: 0x16440, symSize: 0x60 }
  - { offset: 0x40A22, size: 0x8, addend: 0x0, symName: __RINvXsd_NtCslJiobkLta79_5alloc3vecINtB6_3VecNtCsaKzlTDPUHDb_11proc_macro25IdentEINtNtNtNtCsieiGu2EXtoJ_4core4iter6traits7collect12FromIteratorBG_E9from_iterINtNtNtB1n_8adapters3map3MapINtNtNtB1p_3ops5range5RangejENCNvNtCsgKOh19surD7_13futures_macro13stream_select13stream_selects_0EEB3v_, symObjAddr: 0x1A70, symBinAddr: 0x164A0, symSize: 0x60 }
  - { offset: 0x40A62, size: 0x8, addend: 0x0, symName: __RINvXsd_NtCslJiobkLta79_5alloc3vecINtB6_3VecNtCsaKzlTDPUHDb_11proc_macro25IdentEINtNtNtNtCsieiGu2EXtoJ_4core4iter6traits7collect12FromIteratorBG_E9from_iterINtNtNtB1n_8adapters3map3MapINtNtNtB1p_3ops5range5RangejENCNvNtCsgKOh19surD7_13futures_macro6select19declare_result_enum0EEB3v_, symObjAddr: 0x1AD0, symBinAddr: 0x16500, symSize: 0x40 }
  - { offset: 0x40AA3, size: 0x8, addend: 0x0, symName: __RINvXsd_NtCslJiobkLta79_5alloc3vecINtB6_3VecNtNtCsdGrGZaRBwMb_3syn4expr5IndexEINtNtNtNtCsieiGu2EXtoJ_4core4iter6traits7collect12FromIteratorBG_E9from_iterINtNtNtB1l_8adapters3map3MapINtNtNtB1n_3ops5range5RangejENvYBG_INtNtB1n_7convert4FromjE4fromEECsgKOh19surD7_13futures_macro, symObjAddr: 0x1B10, symBinAddr: 0x16540, symSize: 0x60 }
  - { offset: 0x40AE3, size: 0x8, addend: 0x0, symName: __RINvXsd_NtCslJiobkLta79_5alloc3vecINtB6_3VecNtNtCsdGrGZaRBwMb_3syn4expr8ExprPathEINtNtNtNtCsieiGu2EXtoJ_4core4iter6traits7collect12FromIteratorBG_E9from_iterINtNtNtB1o_8adapters3map3MapINtNtB2A_3zip3ZipINtNtB6_9into_iter8IntoIterNtBI_4ExprEINtNtNtB1q_5slice4iter4IterNtCsaKzlTDPUHDb_11proc_macro25IdentEENCNvNtCsgKOh19surD7_13futures_macro6select12select_inner0EEB4Y_, symObjAddr: 0x1B70, symBinAddr: 0x165A0, symSize: 0x40 }
  - { offset: 0x40B2F, size: 0x8, addend: 0x0, symName: __RNCINvMsi_NtCslJiobkLta79_5alloc3vecINtB8_3VecNtCsaKzlTDPUHDb_11proc_macro25IdentE14extend_trustedINtNtNtNtCsieiGu2EXtoJ_4core4iter8adapters3map3MapINtNtNtB1H_3ops5range5RangejENCNvNtCsgKOh19surD7_13futures_macro13stream_select13stream_select0EE0B2V_, symObjAddr: 0x1CD0, symBinAddr: 0x16700, symSize: 0x40 }
  - { offset: 0x40BD7, size: 0x8, addend: 0x0, symName: __RNCINvMsi_NtCslJiobkLta79_5alloc3vecINtB8_3VecNtCsaKzlTDPUHDb_11proc_macro25IdentE14extend_trustedINtNtNtNtCsieiGu2EXtoJ_4core4iter8adapters3map3MapINtNtNtB1H_3ops5range5RangejENCNvNtCsgKOh19surD7_13futures_macro13stream_select13stream_selects0_0EE0B2V_, symObjAddr: 0x1D10, symBinAddr: 0x16740, symSize: 0x40 }
  - { offset: 0x40C7F, size: 0x8, addend: 0x0, symName: __RNCINvMsi_NtCslJiobkLta79_5alloc3vecINtB8_3VecNtCsaKzlTDPUHDb_11proc_macro25IdentE14extend_trustedINtNtNtNtCsieiGu2EXtoJ_4core4iter8adapters3map3MapINtNtNtB1H_3ops5range5RangejENCNvNtCsgKOh19surD7_13futures_macro13stream_select13stream_selects_0EE0B2V_, symObjAddr: 0x1D50, symBinAddr: 0x16780, symSize: 0x40 }
  - { offset: 0x40D27, size: 0x8, addend: 0x0, symName: __RNCINvMsi_NtCslJiobkLta79_5alloc3vecINtB8_3VecNtCsaKzlTDPUHDb_11proc_macro25IdentE14extend_trustedINtNtNtNtCsieiGu2EXtoJ_4core4iter8adapters3map3MapINtNtNtB1H_3ops5range5RangejENCNvNtCsgKOh19surD7_13futures_macro6select19declare_result_enum0EE0B2V_, symObjAddr: 0x1D90, symBinAddr: 0x167C0, symSize: 0x40 }
  - { offset: 0x40DCF, size: 0x8, addend: 0x0, symName: __RNCINvMsi_NtCslJiobkLta79_5alloc3vecINtB8_3VecNtNtCsdGrGZaRBwMb_3syn4expr5IndexE14extend_trustedINtNtNtNtCsieiGu2EXtoJ_4core4iter8adapters3map3MapINtNtNtB1F_3ops5range5RangejENvYBI_INtNtB1F_7convert4FromjE4fromEE0CsgKOh19surD7_13futures_macro, symObjAddr: 0x1DD0, symBinAddr: 0x16800, symSize: 0x30 }
  - { offset: 0x41871, size: 0x8, addend: 0x0, symName: __RNvNvMs_NtCslJiobkLta79_5alloc3vecINtB6_3VecppE13from_parts_in18precondition_checkCsgKOh19surD7_13futures_macro, symObjAddr: 0x40E0, symBinAddr: 0x18B10, symSize: 0xA0 }
  - { offset: 0x418DF, size: 0x8, addend: 0x0, symName: __RNvNvMs_NtCslJiobkLta79_5alloc3vecINtB6_3VecppE17from_raw_parts_in18precondition_checkCsgKOh19surD7_13futures_macro, symObjAddr: 0x4180, symBinAddr: 0x18BB0, symSize: 0xA0 }
  - { offset: 0x41953, size: 0x8, addend: 0x0, symName: __RNvXNtNtCslJiobkLta79_5alloc3vec14spec_from_iterINtB4_3VecNtCsaKzlTDPUHDb_11proc_macro25IdentEINtB2_12SpecFromIterBU_INtNtNtNtCsieiGu2EXtoJ_4core4iter8adapters3map3MapINtNtNtB20_3ops5range5RangejENCNvNtCsgKOh19surD7_13futures_macro13stream_select13stream_select0EE9from_iterB3e_, symObjAddr: 0x4220, symBinAddr: 0x18C50, symSize: 0x30 }
  - { offset: 0x41991, size: 0x8, addend: 0x0, symName: __RNvXNtNtCslJiobkLta79_5alloc3vec14spec_from_iterINtB4_3VecNtCsaKzlTDPUHDb_11proc_macro25IdentEINtB2_12SpecFromIterBU_INtNtNtNtCsieiGu2EXtoJ_4core4iter8adapters3map3MapINtNtNtB20_3ops5range5RangejENCNvNtCsgKOh19surD7_13futures_macro13stream_select13stream_selects0_0EE9from_iterB3e_, symObjAddr: 0x4250, symBinAddr: 0x18C80, symSize: 0x30 }
  - { offset: 0x419CF, size: 0x8, addend: 0x0, symName: __RNvXNtNtCslJiobkLta79_5alloc3vec14spec_from_iterINtB4_3VecNtCsaKzlTDPUHDb_11proc_macro25IdentEINtB2_12SpecFromIterBU_INtNtNtNtCsieiGu2EXtoJ_4core4iter8adapters3map3MapINtNtNtB20_3ops5range5RangejENCNvNtCsgKOh19surD7_13futures_macro13stream_select13stream_selects_0EE9from_iterB3e_, symObjAddr: 0x4280, symBinAddr: 0x18CB0, symSize: 0x30 }
  - { offset: 0x41A0D, size: 0x8, addend: 0x0, symName: __RNvXNtNtCslJiobkLta79_5alloc3vec14spec_from_iterINtB4_3VecNtCsaKzlTDPUHDb_11proc_macro25IdentEINtB2_12SpecFromIterBU_INtNtNtNtCsieiGu2EXtoJ_4core4iter8adapters3map3MapINtNtNtB20_3ops5range5RangejENCNvNtCsgKOh19surD7_13futures_macro6select19declare_result_enum0EE9from_iterB3e_, symObjAddr: 0x42B0, symBinAddr: 0x18CE0, symSize: 0x20 }
  - { offset: 0x41A4C, size: 0x8, addend: 0x0, symName: __RNvXNtNtCslJiobkLta79_5alloc3vec14spec_from_iterINtB4_3VecNtNtCsdGrGZaRBwMb_3syn4expr5IndexEINtB2_12SpecFromIterBU_INtNtNtNtCsieiGu2EXtoJ_4core4iter8adapters3map3MapINtNtNtB1Y_3ops5range5RangejENvYBU_INtNtB1Y_7convert4FromjE4fromEE9from_iterCsgKOh19surD7_13futures_macro, symObjAddr: 0x42D0, symBinAddr: 0x18D00, symSize: 0x30 }
  - { offset: 0x41A91, size: 0x8, addend: 0x0, symName: __RNvXs6_NtCslJiobkLta79_5alloc3vecINtB5_3VecNtCsaKzlTDPUHDb_11proc_macro211TokenStreamENtNtNtCsieiGu2EXtoJ_4core3ops5deref5Deref5derefCsgKOh19surD7_13futures_macro, symObjAddr: 0x4390, symBinAddr: 0x18DC0, symSize: 0x20 }
  - { offset: 0x41AD1, size: 0x8, addend: 0x0, symName: __RNvXs6_NtCslJiobkLta79_5alloc3vecINtB5_3VecNtCsaKzlTDPUHDb_11proc_macro25IdentENtNtNtCsieiGu2EXtoJ_4core3ops5deref5Deref5derefCsgKOh19surD7_13futures_macro, symObjAddr: 0x43B0, symBinAddr: 0x18DE0, symSize: 0x20 }
  - { offset: 0x41B11, size: 0x8, addend: 0x0, symName: __RNvXs6_NtCslJiobkLta79_5alloc3vecINtB5_3VecNtNtCsdGrGZaRBwMb_3syn4expr5IndexENtNtNtCsieiGu2EXtoJ_4core3ops5deref5Deref5derefCsgKOh19surD7_13futures_macro, symObjAddr: 0x43D0, symBinAddr: 0x18E00, symSize: 0x20 }
  - { offset: 0x41B51, size: 0x8, addend: 0x0, symName: __RNvXs6_NtCslJiobkLta79_5alloc3vecINtB5_3VecNtNtCsdGrGZaRBwMb_3syn4expr8ExprPathENtNtNtCsieiGu2EXtoJ_4core3ops5deref5Deref5derefCsgKOh19surD7_13futures_macro, symObjAddr: 0x43F0, symBinAddr: 0x18E20, symSize: 0x20 }
  - { offset: 0x41B91, size: 0x8, addend: 0x0, symName: __RNvXs6_NtCslJiobkLta79_5alloc3vecINtB5_3VecNtNtCsdGrGZaRBwMb_3syn4stmt4StmtENtNtNtCsieiGu2EXtoJ_4core3ops5deref5Deref5derefCsgKOh19surD7_13futures_macro, symObjAddr: 0x4410, symBinAddr: 0x18E40, symSize: 0x20 }
  - { offset: 0x41BDC, size: 0x8, addend: 0x0, symName: __RNvXs_NtNtCslJiobkLta79_5alloc3vec11spec_extendINtB6_3VecNtCsaKzlTDPUHDb_11proc_macro25IdentEINtB4_10SpecExtendBT_INtNtNtNtCsieiGu2EXtoJ_4core4iter8adapters3map3MapINtNtNtB1X_3ops5range5RangejENCNvNtCsgKOh19surD7_13futures_macro13stream_select13stream_select0EE11spec_extendB3b_, symObjAddr: 0x44A0, symBinAddr: 0x18ED0, symSize: 0x20 }
  - { offset: 0x41C2D, size: 0x8, addend: 0x0, symName: __RNvXs_NtNtCslJiobkLta79_5alloc3vec11spec_extendINtB6_3VecNtCsaKzlTDPUHDb_11proc_macro25IdentEINtB4_10SpecExtendBT_INtNtNtNtCsieiGu2EXtoJ_4core4iter8adapters3map3MapINtNtNtB1X_3ops5range5RangejENCNvNtCsgKOh19surD7_13futures_macro13stream_select13stream_selects0_0EE11spec_extendB3b_, symObjAddr: 0x44C0, symBinAddr: 0x18EF0, symSize: 0x20 }
  - { offset: 0x41C7E, size: 0x8, addend: 0x0, symName: __RNvXs_NtNtCslJiobkLta79_5alloc3vec11spec_extendINtB6_3VecNtCsaKzlTDPUHDb_11proc_macro25IdentEINtB4_10SpecExtendBT_INtNtNtNtCsieiGu2EXtoJ_4core4iter8adapters3map3MapINtNtNtB1X_3ops5range5RangejENCNvNtCsgKOh19surD7_13futures_macro13stream_select13stream_selects_0EE11spec_extendB3b_, symObjAddr: 0x44E0, symBinAddr: 0x18F10, symSize: 0x20 }
  - { offset: 0x41CCF, size: 0x8, addend: 0x0, symName: __RNvXs_NtNtCslJiobkLta79_5alloc3vec11spec_extendINtB6_3VecNtCsaKzlTDPUHDb_11proc_macro25IdentEINtB4_10SpecExtendBT_INtNtNtNtCsieiGu2EXtoJ_4core4iter8adapters3map3MapINtNtNtB1X_3ops5range5RangejENCNvNtCsgKOh19surD7_13futures_macro6select19declare_result_enum0EE11spec_extendB3b_, symObjAddr: 0x4500, symBinAddr: 0x18F30, symSize: 0x20 }
  - { offset: 0x41D21, size: 0x8, addend: 0x0, symName: __RNvXs_NtNtCslJiobkLta79_5alloc3vec11spec_extendINtB6_3VecNtNtCsdGrGZaRBwMb_3syn4expr5IndexEINtB4_10SpecExtendBT_INtNtNtNtCsieiGu2EXtoJ_4core4iter8adapters3map3MapINtNtNtB1V_3ops5range5RangejENvYBT_INtNtB1V_7convert4FromjE4fromEE11spec_extendCsgKOh19surD7_13futures_macro, symObjAddr: 0x4520, symBinAddr: 0x18F50, symSize: 0x20 }
  - { offset: 0x41D7E, size: 0x8, addend: 0x0, symName: __RNvXs_NtNtCslJiobkLta79_5alloc3vec16in_place_collectINtB6_3VecNtCsaKzlTDPUHDb_11proc_macro25IdentEINtNtB6_14spec_from_iter12SpecFromIterBY_INtNtNtNtCsieiGu2EXtoJ_4core4iter8adapters3map3MapINtNtB2i_9enumerate9EnumerateINtNtB6_9into_iter8IntoIterNtNtCsdGrGZaRBwMb_3syn4expr4ExprEENCNvNtCsgKOh19surD7_13futures_macro4join12bind_futures0EE9from_iterB4z_, symObjAddr: 0x4540, symBinAddr: 0x18F70, symSize: 0x30 }
  - { offset: 0x41DDA, size: 0x8, addend: 0x0, symName: __RNvXs_NtNtCslJiobkLta79_5alloc3vec16in_place_collectINtB6_3VecNtNtCsdGrGZaRBwMb_3syn4expr8ExprPathEINtNtB6_14spec_from_iter12SpecFromIterBY_INtNtNtNtCsieiGu2EXtoJ_4core4iter8adapters3map3MapINtNtB2j_3zip3ZipINtNtB6_9into_iter8IntoIterNtB10_4ExprEINtNtNtB2n_5slice4iter4IterNtCsaKzlTDPUHDb_11proc_macro25IdentEENCNvNtCsgKOh19surD7_13futures_macro6select12select_inner0EE9from_iterB54_, symObjAddr: 0x4570, symBinAddr: 0x18FA0, symSize: 0x30 }
  - { offset: 0x41E42, size: 0x8, addend: 0x0, symName: __RNvXs_NtNtCslJiobkLta79_5alloc3vec21spec_from_iter_nestedINtB6_3VecNtCsaKzlTDPUHDb_11proc_macro25IdentEINtB4_18SpecFromIterNestedB13_INtNtNtNtCsieiGu2EXtoJ_4core4iter8adapters3map3MapINtNtNtB2g_3ops5range5RangejENCNvNtCsgKOh19surD7_13futures_macro13stream_select13stream_select0EE9from_iterB3u_, symObjAddr: 0x45A0, symBinAddr: 0x18FD0, symSize: 0x1B0 }
  - { offset: 0x41F1A, size: 0x8, addend: 0x0, symName: __RNvXs_NtNtCslJiobkLta79_5alloc3vec21spec_from_iter_nestedINtB6_3VecNtCsaKzlTDPUHDb_11proc_macro25IdentEINtB4_18SpecFromIterNestedB13_INtNtNtNtCsieiGu2EXtoJ_4core4iter8adapters3map3MapINtNtNtB2g_3ops5range5RangejENCNvNtCsgKOh19surD7_13futures_macro13stream_select13stream_selects0_0EE9from_iterB3u_, symObjAddr: 0x4750, symBinAddr: 0x19180, symSize: 0x1B0 }
  - { offset: 0x41FF2, size: 0x8, addend: 0x0, symName: __RNvXs_NtNtCslJiobkLta79_5alloc3vec21spec_from_iter_nestedINtB6_3VecNtCsaKzlTDPUHDb_11proc_macro25IdentEINtB4_18SpecFromIterNestedB13_INtNtNtNtCsieiGu2EXtoJ_4core4iter8adapters3map3MapINtNtNtB2g_3ops5range5RangejENCNvNtCsgKOh19surD7_13futures_macro13stream_select13stream_selects_0EE9from_iterB3u_, symObjAddr: 0x4900, symBinAddr: 0x19330, symSize: 0x1B0 }
  - { offset: 0x420CA, size: 0x8, addend: 0x0, symName: __RNvXs_NtNtCslJiobkLta79_5alloc3vec21spec_from_iter_nestedINtB6_3VecNtCsaKzlTDPUHDb_11proc_macro25IdentEINtB4_18SpecFromIterNestedB13_INtNtNtNtCsieiGu2EXtoJ_4core4iter8adapters3map3MapINtNtNtB2g_3ops5range5RangejENCNvNtCsgKOh19surD7_13futures_macro6select19declare_result_enum0EE9from_iterB3u_, symObjAddr: 0x4AB0, symBinAddr: 0x194E0, symSize: 0x1C0 }
  - { offset: 0x421A2, size: 0x8, addend: 0x0, symName: __RNvXs_NtNtCslJiobkLta79_5alloc3vec21spec_from_iter_nestedINtB6_3VecNtNtCsdGrGZaRBwMb_3syn4expr5IndexEINtB4_18SpecFromIterNestedB13_INtNtNtNtCsieiGu2EXtoJ_4core4iter8adapters3map3MapINtNtNtB2e_3ops5range5RangejENvYB13_INtNtB2e_7convert4FromjE4fromEE9from_iterCsgKOh19surD7_13futures_macro, symObjAddr: 0x4C70, symBinAddr: 0x196A0, symSize: 0x1B0 }
  - { offset: 0x42281, size: 0x8, addend: 0x0, symName: __RNvXse_NtCslJiobkLta79_5alloc3vecINtB5_3VecNtNtCsdGrGZaRBwMb_3syn4expr4ExprENtNtNtNtCsieiGu2EXtoJ_4core4iter6traits7collect12IntoIterator9into_iterCsgKOh19surD7_13futures_macro, symObjAddr: 0x4E20, symBinAddr: 0x19850, symSize: 0x140 }
  - { offset: 0x42511, size: 0x8, addend: 0x0, symName: __RNvXse_NtCslJiobkLta79_5alloc3vecINtB5_3VecTNtNtCsdGrGZaRBwMb_3syn3pat3PatNtNtBK_4expr4ExprEENtNtNtNtCsieiGu2EXtoJ_4core4iter6traits7collect12IntoIterator9into_iterCsgKOh19surD7_13futures_macro, symObjAddr: 0x4F60, symBinAddr: 0x19990, symSize: 0x140 }
  - { offset: 0x427A7, size: 0x8, addend: 0x0, symName: __RNvXsn_NtCslJiobkLta79_5alloc3vecINtB5_3VecNtCsaKzlTDPUHDb_11proc_macro211TokenStreamENtNtNtCsieiGu2EXtoJ_4core3ops4drop4Drop4dropCsgKOh19surD7_13futures_macro, symObjAddr: 0x5120, symBinAddr: 0x19B50, symSize: 0x30 }
  - { offset: 0x42857, size: 0x8, addend: 0x0, symName: __RNvXsn_NtCslJiobkLta79_5alloc3vecINtB5_3VecNtCsaKzlTDPUHDb_11proc_macro25IdentENtNtNtCsieiGu2EXtoJ_4core3ops4drop4Drop4dropCsgKOh19surD7_13futures_macro, symObjAddr: 0x5150, symBinAddr: 0x19B80, symSize: 0x30 }
  - { offset: 0x42907, size: 0x8, addend: 0x0, symName: __RNvXsn_NtCslJiobkLta79_5alloc3vecINtB5_3VecNtNtCsdGrGZaRBwMb_3syn4expr4ExprENtNtNtCsieiGu2EXtoJ_4core3ops4drop4Drop4dropCsgKOh19surD7_13futures_macro, symObjAddr: 0x5180, symBinAddr: 0x19BB0, symSize: 0x30 }
  - { offset: 0x429B7, size: 0x8, addend: 0x0, symName: __RNvXsn_NtCslJiobkLta79_5alloc3vecINtB5_3VecNtNtCsdGrGZaRBwMb_3syn4expr5IndexENtNtNtCsieiGu2EXtoJ_4core3ops4drop4Drop4dropCsgKOh19surD7_13futures_macro, symObjAddr: 0x51B0, symBinAddr: 0x19BE0, symSize: 0x20 }
  - { offset: 0x42A67, size: 0x8, addend: 0x0, symName: __RNvXsn_NtCslJiobkLta79_5alloc3vecINtB5_3VecNtNtCsdGrGZaRBwMb_3syn4expr8ExprPathENtNtNtCsieiGu2EXtoJ_4core3ops4drop4Drop4dropCsgKOh19surD7_13futures_macro, symObjAddr: 0x51D0, symBinAddr: 0x19C00, symSize: 0x30 }
  - { offset: 0x42B17, size: 0x8, addend: 0x0, symName: __RNvXsn_NtCslJiobkLta79_5alloc3vecINtB5_3VecTNtNtCsdGrGZaRBwMb_3syn3pat3PatNtNtBK_4expr4ExprEENtNtNtCsieiGu2EXtoJ_4core3ops4drop4Drop4dropCsgKOh19surD7_13futures_macro, symObjAddr: 0x5200, symBinAddr: 0x19C30, symSize: 0x30 }
  - { offset: 0x42BCD, size: 0x8, addend: 0x0, symName: __RNvXso_NtCslJiobkLta79_5alloc3vecINtB5_3VecNtNtCsdGrGZaRBwMb_3syn4expr4ExprENtNtCsieiGu2EXtoJ_4core7default7Default7defaultCsgKOh19surD7_13futures_macro, symObjAddr: 0x5230, symBinAddr: 0x19C60, symSize: 0x30 }
  - { offset: 0x42ED4, size: 0x8, addend: 0x0, symName: __RINvMsi_NtCslJiobkLta79_5alloc3vecINtB6_3VecNtCsaKzlTDPUHDb_11proc_macro25IdentE14extend_trustedINtNtNtNtCsieiGu2EXtoJ_4core4iter8adapters3map3MapINtNtNtB1F_3ops5range5RangejENCNvNtCsgKOh19surD7_13futures_macro13stream_select13stream_select0EEB2T_, symObjAddr: 0x0, symBinAddr: 0x14A30, symSize: 0x1A0 }
  - { offset: 0x4318B, size: 0x8, addend: 0x0, symName: __RINvMsi_NtCslJiobkLta79_5alloc3vecINtB6_3VecNtCsaKzlTDPUHDb_11proc_macro25IdentE14extend_trustedINtNtNtNtCsieiGu2EXtoJ_4core4iter8adapters3map3MapINtNtNtB1F_3ops5range5RangejENCNvNtCsgKOh19surD7_13futures_macro13stream_select13stream_selects0_0EEB2T_, symObjAddr: 0x1A0, symBinAddr: 0x14BD0, symSize: 0x1A0 }
  - { offset: 0x43442, size: 0x8, addend: 0x0, symName: __RINvMsi_NtCslJiobkLta79_5alloc3vecINtB6_3VecNtCsaKzlTDPUHDb_11proc_macro25IdentE14extend_trustedINtNtNtNtCsieiGu2EXtoJ_4core4iter8adapters3map3MapINtNtNtB1F_3ops5range5RangejENCNvNtCsgKOh19surD7_13futures_macro13stream_select13stream_selects_0EEB2T_, symObjAddr: 0x340, symBinAddr: 0x14D70, symSize: 0x1A0 }
  - { offset: 0x43706, size: 0x8, addend: 0x0, symName: __RINvMsi_NtCslJiobkLta79_5alloc3vecINtB6_3VecNtCsaKzlTDPUHDb_11proc_macro25IdentE14extend_trustedINtNtNtNtCsieiGu2EXtoJ_4core4iter8adapters3map3MapINtNtNtB1F_3ops5range5RangejENCNvNtCsgKOh19surD7_13futures_macro6select19declare_result_enum0EEB2T_, symObjAddr: 0x4E0, symBinAddr: 0x14F10, symSize: 0x1B0 }
  - { offset: 0x48628, size: 0x8, addend: 0x0, symName: __RINvMsi_NtCslJiobkLta79_5alloc3vecINtB6_3VecNtNtCsdGrGZaRBwMb_3syn4expr5IndexE14extend_trustedINtNtNtNtCsieiGu2EXtoJ_4core4iter8adapters3map3MapINtNtNtB1D_3ops5range5RangejENvYBG_INtNtB1D_7convert4FromjE4fromEECsgKOh19surD7_13futures_macro, symObjAddr: 0x690, symBinAddr: 0x150C0, symSize: 0x1A0 }
  - { offset: 0x4964D, size: 0x8, addend: 0x0, symName: __RNvMNtCslJiobkLta79_5alloc3vecINtB2_3VecNtCsaKzlTDPUHDb_11proc_macro211TokenStreamE13with_capacityCsgKOh19surD7_13futures_macro, symObjAddr: 0x3880, symBinAddr: 0x182B0, symSize: 0x60 }
  - { offset: 0x49B87, size: 0x8, addend: 0x0, symName: __RNvMNtCslJiobkLta79_5alloc3vecINtB2_3VecNtNtCsdGrGZaRBwMb_3syn4expr4ExprE3newCsgKOh19surD7_13futures_macro, symObjAddr: 0x38E0, symBinAddr: 0x18310, symSize: 0x30 }
  - { offset: 0x49BC3, size: 0x8, addend: 0x0, symName: __RNvMNtCslJiobkLta79_5alloc3vecINtB2_3VecTNtNtCsdGrGZaRBwMb_3syn3pat3PatNtNtBH_4expr4ExprEE3newCsgKOh19surD7_13futures_macro, symObjAddr: 0x3910, symBinAddr: 0x18340, symSize: 0x30 }
  - { offset: 0x49BED, size: 0x8, addend: 0x0, symName: __RNvMs_NtCslJiobkLta79_5alloc3vecINtB4_3VecNtCsaKzlTDPUHDb_11proc_macro211TokenStreamE4pushCsgKOh19surD7_13futures_macro, symObjAddr: 0x3940, symBinAddr: 0x18370, symSize: 0x20 }
  - { offset: 0x49CFD, size: 0x8, addend: 0x0, symName: __RNvMs_NtCslJiobkLta79_5alloc3vecINtB4_3VecNtCsaKzlTDPUHDb_11proc_macro211TokenStreamE8as_sliceCsgKOh19surD7_13futures_macro, symObjAddr: 0x3960, symBinAddr: 0x18390, symSize: 0x50 }
  - { offset: 0x49EA3, size: 0x8, addend: 0x0, symName: __RNvMs_NtCslJiobkLta79_5alloc3vecINtB4_3VecNtCsaKzlTDPUHDb_11proc_macro211TokenStreamE8push_mutCsgKOh19surD7_13futures_macro, symObjAddr: 0x39B0, symBinAddr: 0x183E0, symSize: 0x120 }
  - { offset: 0x4A188, size: 0x8, addend: 0x0, symName: __RNvMs_NtCslJiobkLta79_5alloc3vecINtB4_3VecNtCsaKzlTDPUHDb_11proc_macro25IdentE7reserveCsgKOh19surD7_13futures_macro, symObjAddr: 0x3AD0, symBinAddr: 0x18500, symSize: 0xB0 }
  - { offset: 0x4A399, size: 0x8, addend: 0x0, symName: __RNvMs_NtCslJiobkLta79_5alloc3vecINtB4_3VecNtCsaKzlTDPUHDb_11proc_macro25IdentE8as_sliceCsgKOh19surD7_13futures_macro, symObjAddr: 0x3B80, symBinAddr: 0x185B0, symSize: 0x50 }
  - { offset: 0x4A460, size: 0x8, addend: 0x0, symName: __RNvMs_NtCslJiobkLta79_5alloc3vecINtB4_3VecNtNtCsdGrGZaRBwMb_3syn4expr4ExprE3lenCsgKOh19surD7_13futures_macro, symObjAddr: 0x3BD0, symBinAddr: 0x18600, symSize: 0x10 }
  - { offset: 0x4A4A2, size: 0x8, addend: 0x0, symName: __RNvMs_NtCslJiobkLta79_5alloc3vecINtB4_3VecNtNtCsdGrGZaRBwMb_3syn4expr4ExprE4pushCsgKOh19surD7_13futures_macro, symObjAddr: 0x3BE0, symBinAddr: 0x18610, symSize: 0x20 }
  - { offset: 0x4A5FA, size: 0x8, addend: 0x0, symName: __RNvMs_NtCslJiobkLta79_5alloc3vecINtB4_3VecNtNtCsdGrGZaRBwMb_3syn4expr4ExprE8push_mutCsgKOh19surD7_13futures_macro, symObjAddr: 0x3C00, symBinAddr: 0x18630, symSize: 0x140 }
  - { offset: 0x4A8C5, size: 0x8, addend: 0x0, symName: __RNvMs_NtCslJiobkLta79_5alloc3vecINtB4_3VecNtNtCsdGrGZaRBwMb_3syn4expr5IndexE7reserveCsgKOh19surD7_13futures_macro, symObjAddr: 0x3D40, symBinAddr: 0x18770, symSize: 0xB0 }
  - { offset: 0x4AAD6, size: 0x8, addend: 0x0, symName: __RNvMs_NtCslJiobkLta79_5alloc3vecINtB4_3VecNtNtCsdGrGZaRBwMb_3syn4expr5IndexE8as_sliceCsgKOh19surD7_13futures_macro, symObjAddr: 0x3DF0, symBinAddr: 0x18820, symSize: 0x50 }
  - { offset: 0x4AC5B, size: 0x8, addend: 0x0, symName: __RNvMs_NtCslJiobkLta79_5alloc3vecINtB4_3VecNtNtCsdGrGZaRBwMb_3syn4expr8ExprPathE8as_sliceCsgKOh19surD7_13futures_macro, symObjAddr: 0x3E40, symBinAddr: 0x18870, symSize: 0x50 }
  - { offset: 0x4ADF6, size: 0x8, addend: 0x0, symName: __RNvMs_NtCslJiobkLta79_5alloc3vecINtB4_3VecNtNtCsdGrGZaRBwMb_3syn4stmt4StmtE17from_raw_parts_inCsgKOh19surD7_13futures_macro, symObjAddr: 0x3E90, symBinAddr: 0x188C0, symSize: 0xA0 }
  - { offset: 0x4B03B, size: 0x8, addend: 0x0, symName: __RNvMs_NtCslJiobkLta79_5alloc3vecINtB4_3VecNtNtCsdGrGZaRBwMb_3syn4stmt4StmtE8as_sliceCsgKOh19surD7_13futures_macro, symObjAddr: 0x3F30, symBinAddr: 0x18960, symSize: 0x50 }
  - { offset: 0x4B102, size: 0x8, addend: 0x0, symName: __RNvMs_NtCslJiobkLta79_5alloc3vecINtB4_3VecTNtNtCsdGrGZaRBwMb_3syn3pat3PatNtNtBJ_4expr4ExprEE4pushCsgKOh19surD7_13futures_macro, symObjAddr: 0x3F80, symBinAddr: 0x189B0, symSize: 0x20 }
  - { offset: 0x4B25A, size: 0x8, addend: 0x0, symName: __RNvMs_NtCslJiobkLta79_5alloc3vecINtB4_3VecTNtNtCsdGrGZaRBwMb_3syn3pat3PatNtNtBJ_4expr4ExprEE8push_mutCsgKOh19surD7_13futures_macro, symObjAddr: 0x3FA0, symBinAddr: 0x189D0, symSize: 0x140 }
  - { offset: 0x4B447, size: 0x8, addend: 0x0, symName: __RNvXs4_NtNtCs9OU1sGv5X54_5quote9___private3extINtNtCslJiobkLta79_5alloc3vec3VecNtCsaKzlTDPUHDb_11proc_macro211TokenStreamENtB5_16RepAsIteratorExt15quote_into_iterCsgKOh19surD7_13futures_macro, symObjAddr: 0x4300, symBinAddr: 0x18D30, symSize: 0x30 }
  - { offset: 0x4B47C, size: 0x8, addend: 0x0, symName: __RNvXs4_NtNtCs9OU1sGv5X54_5quote9___private3extINtNtCslJiobkLta79_5alloc3vec3VecNtCsaKzlTDPUHDb_11proc_macro25IdentENtB5_16RepAsIteratorExt15quote_into_iterCsgKOh19surD7_13futures_macro, symObjAddr: 0x4330, symBinAddr: 0x18D60, symSize: 0x30 }
  - { offset: 0x4B4B1, size: 0x8, addend: 0x0, symName: __RNvXs4_NtNtCs9OU1sGv5X54_5quote9___private3extINtNtCslJiobkLta79_5alloc3vec3VecNtNtCsdGrGZaRBwMb_3syn4expr5IndexENtB5_16RepAsIteratorExt15quote_into_iterCsgKOh19surD7_13futures_macro, symObjAddr: 0x4360, symBinAddr: 0x18D90, symSize: 0x30 }
  - { offset: 0x4BE8E, size: 0x8, addend: 0x0, symName: __RNCNvNtCsgKOh19surD7_13futures_macro13stream_select13stream_select0B5_, symObjAddr: 0x0, symBinAddr: 0x19CD0, symSize: 0x190 }
  - { offset: 0x4F88F, size: 0x8, addend: 0x0, symName: __RNCNvNtCsgKOh19surD7_13futures_macro13stream_select13stream_select0B5_, symObjAddr: 0x0, symBinAddr: 0x19CD0, symSize: 0x190 }
  - { offset: 0x4F917, size: 0x8, addend: 0x0, symName: __RNCNvNtCsgKOh19surD7_13futures_macro13stream_select13stream_selects0_0B5_, symObjAddr: 0x190, symBinAddr: 0x19E60, symSize: 0x190 }
  - { offset: 0x4F99F, size: 0x8, addend: 0x0, symName: __RNCNvNtCsgKOh19surD7_13futures_macro13stream_select13stream_selects1_0B5_, symObjAddr: 0x320, symBinAddr: 0x19FF0, symSize: 0x40 }
  - { offset: 0x4F9D5, size: 0x8, addend: 0x0, symName: __RNCNvNtCsgKOh19surD7_13futures_macro13stream_select13stream_selects_0B5_, symObjAddr: 0x360, symBinAddr: 0x1A030, symSize: 0x190 }
  - { offset: 0x4FA7A, size: 0x8, addend: 0x0, symName: __RNvNtCsgKOh19surD7_13futures_macro13stream_select13stream_select, symObjAddr: 0x4F0, symBinAddr: 0x1A1C0, symSize: 0x5BB0 }
  - { offset: 0x56202, size: 0x8, addend: 0x0, symName: __RINvMNtCsieiGu2EXtoJ_4core6resultINtB3_6ResultNtCsaKzlTDPUHDb_11proc_macro211TokenStreamNtNtCsdGrGZaRBwMb_3syn5error5ErrorE14unwrap_or_elseNvMB1q_B1o_18into_compile_errorECsgKOh19surD7_13futures_macro, symObjAddr: 0x0, symBinAddr: 0x1FD70, symSize: 0xD0 }
  - { offset: 0x5665B, size: 0x8, addend: 0x0, symName: __RNCNCNvXsx_NtCsdGrGZaRBwMb_3syn10punctuatedINtB9_11PrivateIterNtNtBb_4expr4ExprNtNtBb_5token5CommaENtNtNtNtCsieiGu2EXtoJ_4core4iter6traits12double_ended19DoubleEndedIterator9next_back00CsgKOh19surD7_13futures_macro, symObjAddr: 0x7E0, symBinAddr: 0x20550, symSize: 0x10 }
  - { offset: 0x566AE, size: 0x8, addend: 0x0, symName: __RNCNvXsx_NtCsdGrGZaRBwMb_3syn10punctuatedINtB7_11PrivateIterNtNtB9_4expr4ExprNtNtB9_5token5CommaENtNtNtNtCsieiGu2EXtoJ_4core4iter6traits12double_ended19DoubleEndedIterator9next_back0CsgKOh19surD7_13futures_macro, symObjAddr: 0x1FE0, symBinAddr: 0x21D50, symSize: 0x30 }
  - { offset: 0x566F1, size: 0x8, addend: 0x0, symName: __RNvXsx_NtCsdGrGZaRBwMb_3syn10punctuatedINtB5_11PrivateIterNtNtB7_4expr4ExprNtNtB7_5token5CommaENtNtNtNtCsieiGu2EXtoJ_4core4iter6traits12double_ended19DoubleEndedIterator9next_backCsgKOh19surD7_13futures_macro, symObjAddr: 0x5410, symBinAddr: 0x25160, symSize: 0x40 }
  - { offset: 0x5673C, size: 0x8, addend: 0x0, symName: __RNCNvXsw_NtCsdGrGZaRBwMb_3syn10punctuatedINtB7_11PrivateIterNtNtB9_4expr4ExprNtNtB9_5token5CommaENtNtNtNtCsieiGu2EXtoJ_4core4iter6traits8iterator8Iterator4next0CsgKOh19surD7_13futures_macro, symObjAddr: 0x1FB0, symBinAddr: 0x21D20, symSize: 0x10 }
  - { offset: 0x56787, size: 0x8, addend: 0x0, symName: __RNCNvXsw_NtCsdGrGZaRBwMb_3syn10punctuatedINtB7_11PrivateIterNtNtB9_4expr4ExprNtNtB9_5token5CommaENtNtNtNtCsieiGu2EXtoJ_4core4iter6traits8iterator8Iterator4nexts_0CsgKOh19surD7_13futures_macro, symObjAddr: 0x1FC0, symBinAddr: 0x21D30, symSize: 0x20 }
  - { offset: 0x567D1, size: 0x8, addend: 0x0, symName: __RNvXsw_NtCsdGrGZaRBwMb_3syn10punctuatedINtB5_11PrivateIterNtNtB7_4expr4ExprNtNtB7_5token5CommaENtNtNtNtCsieiGu2EXtoJ_4core4iter6traits8iterator8Iterator4nextCsgKOh19surD7_13futures_macro, symObjAddr: 0x53D0, symBinAddr: 0x25120, symSize: 0x40 }
  - { offset: 0x56835, size: 0x8, addend: 0x0, symName: __RNvXsA_NtCsdGrGZaRBwMb_3syn10punctuatedINtB5_11PrivateIterNtNtB7_4expr4ExprNtNtB7_5token5CommaEINtB5_9IterTraitBU_E9clone_boxCsgKOh19surD7_13futures_macro, symObjAddr: 0x4550, symBinAddr: 0x242C0, symSize: 0x90 }
  - { offset: 0x5689A, size: 0x8, addend: 0x0, symName: __RNvXst_NtCsdGrGZaRBwMb_3syn10punctuatedINtB5_4IterNtNtB7_4expr4ExprENtNtNtNtCsieiGu2EXtoJ_4core4iter6traits8iterator8Iterator4nextCsgKOh19surD7_13futures_macro, symObjAddr: 0x53A0, symBinAddr: 0x250F0, symSize: 0x30 }
  - { offset: 0x568D7, size: 0x8, addend: 0x0, symName: __RNvXsy_NtCsdGrGZaRBwMb_3syn10punctuatedINtB5_11PrivateIterNtNtB7_4expr4ExprNtNtB7_5token5CommaENtNtNtNtCsieiGu2EXtoJ_4core4iter6traits10exact_size17ExactSizeIterator3lenCsgKOh19surD7_13futures_macro, symObjAddr: 0x5450, symBinAddr: 0x251A0, symSize: 0x80 }
  - { offset: 0x56955, size: 0x8, addend: 0x0, symName: __RNvXsz_NtCsdGrGZaRBwMb_3syn10punctuatedINtB5_11PrivateIterNtNtB7_4expr4ExprNtNtB7_5token5CommaENtNtCsieiGu2EXtoJ_4core5clone5Clone5cloneCsgKOh19surD7_13futures_macro, symObjAddr: 0x54D0, symBinAddr: 0x25220, symSize: 0x70 }
  - { offset: 0x5B362, size: 0x8, addend: 0x0, symName: __RNvXsh_NtCsdGrGZaRBwMb_3syn5parseNvMNtB7_10punctuatedINtBy_10PunctuatedNtNtB7_4expr4ExprNtNtB7_5token5CommaE16parse_terminatedNtB5_6Parser6parse2CsgKOh19surD7_13futures_macro, symObjAddr: 0x48B0, symBinAddr: 0x24620, symSize: 0x440 }
  - { offset: 0x5CB23, size: 0x8, addend: 0x0, symName: __RNvXs12_CsaKzlTDPUHDb_11proc_macro2NtB6_5IdentNtNtCsieiGu2EXtoJ_4core5clone5Clone5cloneCsgKOh19surD7_13futures_macro, symObjAddr: 0x44A0, symBinAddr: 0x24210, symSize: 0x80 }
  - { offset: 0x5D196, size: 0x8, addend: 0x0, symName: __RNvXsV_NtCscKtU6MdFI5n_10proc_macro6bridgeINtNtCsieiGu2EXtoJ_4core6result6ResultINtNtBJ_6option6OptionNtNtB5_6client11TokenStreamEuEINtNtB5_3rpc6EncodeuE6encodeCsgKOh19surD7_13futures_macro, symObjAddr: 0x45E0, symBinAddr: 0x24350, symSize: 0xE0 }
  - { offset: 0x5D25A, size: 0x8, addend: 0x0, symName: __RNvXsV_NtCscKtU6MdFI5n_10proc_macro6bridgeINtNtCsieiGu2EXtoJ_4core6result6ResultuNtNtB5_3rpc12PanicMessageEINtB1j_6EncodeuE6encodeCsgKOh19surD7_13futures_macro, symObjAddr: 0x46C0, symBinAddr: 0x24430, symSize: 0x120 }
  - { offset: 0x5FAAF, size: 0x8, addend: 0x0, symName: __RNvMNtCsieiGu2EXtoJ_4core5sliceSNtCsaKzlTDPUHDb_11proc_macro211TokenStream4iterCsgKOh19surD7_13futures_macro, symObjAddr: 0x2110, symBinAddr: 0x21E80, symSize: 0x20 }
  - { offset: 0x5FAE6, size: 0x8, addend: 0x0, symName: __RNvMNtCsieiGu2EXtoJ_4core5sliceSNtCsaKzlTDPUHDb_11proc_macro25Ident4iterCsgKOh19surD7_13futures_macro, symObjAddr: 0x2130, symBinAddr: 0x21EA0, symSize: 0x20 }
  - { offset: 0x5FCE3, size: 0x8, addend: 0x0, symName: __RNvXsp_NtCsieiGu2EXtoJ_4core6resultINtB5_6ResultINtNtNtCslJiobkLta79_5alloc3vec13in_place_drop11InPlaceDropNtCsaKzlTDPUHDb_11proc_macro25IdentEzENtNtNtB7_3ops9try_trait3Try11from_outputCsgKOh19surD7_13futures_macro, symObjAddr: 0x4CF0, symBinAddr: 0x24A60, symSize: 0x20 }
  - { offset: 0x5FD23, size: 0x8, addend: 0x0, symName: __RNvXsp_NtCsieiGu2EXtoJ_4core6resultINtB5_6ResultINtNtNtCslJiobkLta79_5alloc3vec13in_place_drop11InPlaceDropNtCsaKzlTDPUHDb_11proc_macro25IdentEzENtNtNtB7_3ops9try_trait3Try6branchCsgKOh19surD7_13futures_macro, symObjAddr: 0x4D10, symBinAddr: 0x24A80, symSize: 0x30 }
  - { offset: 0x5FD81, size: 0x8, addend: 0x0, symName: __RNvXsp_NtCsieiGu2EXtoJ_4core6resultINtB5_6ResultINtNtNtCslJiobkLta79_5alloc3vec13in_place_drop11InPlaceDropNtNtCsdGrGZaRBwMb_3syn4expr8ExprPathEzENtNtNtB7_3ops9try_trait3Try11from_outputCsgKOh19surD7_13futures_macro, symObjAddr: 0x4D40, symBinAddr: 0x24AB0, symSize: 0x20 }
  - { offset: 0x5FDC1, size: 0x8, addend: 0x0, symName: __RNvXsp_NtCsieiGu2EXtoJ_4core6resultINtB5_6ResultINtNtNtCslJiobkLta79_5alloc3vec13in_place_drop11InPlaceDropNtNtCsdGrGZaRBwMb_3syn4expr8ExprPathEzENtNtNtB7_3ops9try_trait3Try6branchCsgKOh19surD7_13futures_macro, symObjAddr: 0x4D60, symBinAddr: 0x24AD0, symSize: 0x30 }
  - { offset: 0x5FE1F, size: 0x8, addend: 0x0, symName: __RNvXsp_NtCsieiGu2EXtoJ_4core6resultINtB5_6ResultNtNtCsdGrGZaRBwMb_3syn4item6ItemFnNtNtBO_5error5ErrorENtNtNtB7_3ops9try_trait3Try6branchCsgKOh19surD7_13futures_macro, symObjAddr: 0x4D90, symBinAddr: 0x24B00, symSize: 0xE0 }
  - { offset: 0x5FE9D, size: 0x8, addend: 0x0, symName: __RNvXsp_NtCsieiGu2EXtoJ_4core6resultINtB5_6ResultNtNtCsdGrGZaRBwMb_3syn4item8ItemEnumNtNtBO_5error5ErrorENtNtNtB7_3ops9try_trait3Try6branchCsgKOh19surD7_13futures_macro, symObjAddr: 0x4E70, symBinAddr: 0x24BE0, symSize: 0xF0 }
  - { offset: 0x5FF1B, size: 0x8, addend: 0x0, symName: __RNvXsp_NtCsieiGu2EXtoJ_4core6resultINtB5_6ResultNtNtCsgKOh19surD7_13futures_macro4join4JoinNtNtCsdGrGZaRBwMb_3syn5error5ErrorENtNtNtB7_3ops9try_trait3Try6branchBO_, symObjAddr: 0x4F60, symBinAddr: 0x24CD0, symSize: 0xC0 }
  - { offset: 0x5FF99, size: 0x8, addend: 0x0, symName: __RNvXsp_NtCsieiGu2EXtoJ_4core6resultINtB5_6ResultNtNtCsgKOh19surD7_13futures_macro6select6SelectNtNtCsdGrGZaRBwMb_3syn5error5ErrorENtNtNtB7_3ops9try_trait3Try6branchBO_, symObjAddr: 0x5020, symBinAddr: 0x24D90, symSize: 0xE0 }
  - { offset: 0x60017, size: 0x8, addend: 0x0, symName: __RNvXsp_NtCsieiGu2EXtoJ_4core6resultINtB5_6ResultNtNtNtCsgKOh19surD7_13futures_macro6select2kw8completeNtNtCsdGrGZaRBwMb_3syn5error5ErrorENtNtNtB7_3ops9try_trait3Try6branchBQ_, symObjAddr: 0x5100, symBinAddr: 0x24E70, symSize: 0xB0 }
  - { offset: 0x60094, size: 0x8, addend: 0x0, symName: __RNvXsp_NtCsieiGu2EXtoJ_4core6resultINtB5_6ResultTNtNtNtCsgKOh19surD7_13futures_macro6select2kw8completeNtNtCsdGrGZaRBwMb_3syn6buffer6CursorENtNtB1H_5error5ErrorENtNtNtB7_3ops9try_trait3Try6branchBR_, symObjAddr: 0x51B0, symBinAddr: 0x24F20, symSize: 0xC0 }
  - { offset: 0x60118, size: 0x8, addend: 0x0, symName: __RNvXsq_NtCsieiGu2EXtoJ_4core6resultINtB5_6ResultNtNtCsgKOh19surD7_13futures_macro4join4JoinNtNtCsdGrGZaRBwMb_3syn5error5ErrorEINtNtNtB7_3ops9try_trait12FromResidualIBy_NtNtB7_7convert10InfallibleB1r_EE13from_residualBO_, symObjAddr: 0x5290, symBinAddr: 0x24FE0, symSize: 0x60 }
  - { offset: 0x6019D, size: 0x8, addend: 0x0, symName: __RNvXsq_NtCsieiGu2EXtoJ_4core6resultINtB5_6ResultNtNtCsgKOh19surD7_13futures_macro6select6SelectNtNtCsdGrGZaRBwMb_3syn5error5ErrorEINtNtNtB7_3ops9try_trait12FromResidualIBy_NtNtB7_7convert10InfallibleB1v_EE13from_residualBO_, symObjAddr: 0x52F0, symBinAddr: 0x25040, symSize: 0x60 }
  - { offset: 0x60222, size: 0x8, addend: 0x0, symName: __RNvXsq_NtCsieiGu2EXtoJ_4core6resultINtB5_6ResultNtNtNtCsgKOh19surD7_13futures_macro6select2kw8completeNtNtCsdGrGZaRBwMb_3syn5error5ErrorEINtNtNtB7_3ops9try_trait12FromResidualIBy_NtNtB7_7convert10InfallibleB1C_EE13from_residualBQ_, symObjAddr: 0x5350, symBinAddr: 0x250A0, symSize: 0x50 }
  - { offset: 0x60D1F, size: 0x8, addend: 0x0, symName: __RNCINvNvXs_NtNtNtCsieiGu2EXtoJ_4core4iter8adapters9enumerateINtB9_9EnumeratepENtNtNtBd_6traits8iterator8Iterator8try_fold9enumerateNtNtCsdGrGZaRBwMb_3syn4expr4ExprINtNtNtCslJiobkLta79_5alloc3vec13in_place_drop11InPlaceDropNtCsaKzlTDPUHDb_11proc_macro25IdentEINtNtBf_6result6ResultB2B_zENCINvNtBb_3map12map_try_foldTjB25_EB3y_B2B_B48_NCNvNtCsgKOh19surD7_13futures_macro4join12bind_futures0NCINvNtB2G_16in_place_collect24write_in_place_with_dropB3y_E0E0E0B5r_, symObjAddr: 0x680, symBinAddr: 0x203F0, symSize: 0x160 }
  - { offset: 0x60DB8, size: 0x8, addend: 0x0, symName: __RINvXs_NtNtNtCsieiGu2EXtoJ_4core4iter8adapters9enumerateINtB5_9EnumerateINtNtNtCslJiobkLta79_5alloc3vec9into_iter8IntoIterNtNtCsdGrGZaRBwMb_3syn4expr4ExprEENtNtNtB9_6traits8iterator8Iterator8try_foldINtNtB1d_13in_place_drop11InPlaceDropNtCsaKzlTDPUHDb_11proc_macro25IdentENCINvNtB7_3map12map_try_foldTjB1W_EB3M_B3b_INtNtBb_6result6ResultB3b_zENCNvNtCsgKOh19surD7_13futures_macro4join12bind_futures0NCINvNtB1d_16in_place_collect24write_in_place_with_dropB3M_E0E0B53_EB5B_, symObjAddr: 0x490, symBinAddr: 0x20200, symSize: 0x50 }
  - { offset: 0x60E79, size: 0x8, addend: 0x0, symName: __RNvXs7_NtNtNtCsieiGu2EXtoJ_4core4iter8adapters9enumerateINtB5_9EnumerateINtNtNtCslJiobkLta79_5alloc3vec9into_iter8IntoIterNtNtCsdGrGZaRBwMb_3syn4expr4ExprEENtB7_10SourceIter8as_innerCsgKOh19surD7_13futures_macro, symObjAddr: 0x4530, symBinAddr: 0x242A0, symSize: 0x20 }
  - { offset: 0x6104A, size: 0x8, addend: 0x0, symName: __RINvYINtNtCsdGrGZaRBwMb_3syn10punctuated11PrivateIterNtNtB8_4expr4ExprNtNtB8_5token5CommaENtNtNtNtCsieiGu2EXtoJ_4core4iter6traits8iterator8Iterator8try_foldINtNtNtB1y_3num7nonzero7NonZerojENCNvXs_NvB1q_10advance_byB3_NtB38_13SpecAdvanceBy15spec_advance_by0INtNtB1y_6option6OptionB2u_EECsgKOh19surD7_13futures_macro, symObjAddr: 0x4E0, symBinAddr: 0x20250, symSize: 0x130 }
  - { offset: 0x610FE, size: 0x8, addend: 0x0, symName: __RINvYINtNtCsdGrGZaRBwMb_3syn10punctuated4IterNtNtB8_4expr4ExprENtNtNtNtCsieiGu2EXtoJ_4core4iter6traits8iterator8Iterator3mapNtCsaKzlTDPUHDb_11proc_macro211TokenStreamNCNvNtCsgKOh19surD7_13futures_macro13stream_select13stream_selects1_0EB2K_, symObjAddr: 0x610, symBinAddr: 0x20380, symSize: 0x20 }
  - { offset: 0x61156, size: 0x8, addend: 0x0, symName: __RINvYINtNtNtNtCsieiGu2EXtoJ_4core4iter8adapters9enumerate9EnumerateINtNtNtCslJiobkLta79_5alloc3vec9into_iter8IntoIterNtNtCsdGrGZaRBwMb_3syn4expr4ExprEENtNtNtBa_6traits8iterator8Iterator3mapNtCsaKzlTDPUHDb_11proc_macro25IdentNCNvNtCsgKOh19surD7_13futures_macro4join12bind_futures0EB3G_, symObjAddr: 0x630, symBinAddr: 0x203A0, symSize: 0x50 }
  - { offset: 0x611CE, size: 0x8, addend: 0x0, symName: __RNvXs_NvNtNtNtNtCsieiGu2EXtoJ_4core4iter6traits8iterator8Iterator10advance_byINtNtCsdGrGZaRBwMb_3syn10punctuated11PrivateIterNtNtB1i_4expr4ExprNtNtB1i_5token5CommaENtB4_13SpecAdvanceBy15spec_advance_byCsgKOh19surD7_13futures_macro, symObjAddr: 0x4820, symBinAddr: 0x24590, symSize: 0x90 }
  - { offset: 0x6128B, size: 0x8, addend: 0x0, symName: __RNvYINtNtCsdGrGZaRBwMb_3syn10punctuated11PrivateIterNtNtB7_4expr4ExprNtNtB7_5token5CommaENtNtNtNtCsieiGu2EXtoJ_4core4iter6traits8iterator8Iterator10advance_byCsgKOh19surD7_13futures_macro, symObjAddr: 0x5770, symBinAddr: 0x254C0, symSize: 0x20 }
  - { offset: 0x612D1, size: 0x8, addend: 0x0, symName: __RNvYINtNtCsdGrGZaRBwMb_3syn10punctuated11PrivateIterNtNtB7_4expr4ExprNtNtB7_5token5CommaENtNtNtNtCsieiGu2EXtoJ_4core4iter6traits8iterator8Iterator3nthCsgKOh19surD7_13futures_macro, symObjAddr: 0x5790, symBinAddr: 0x254E0, symSize: 0x80 }
  - { offset: 0x613A1, size: 0x8, addend: 0x0, symName: __RNvYINtNtCsdGrGZaRBwMb_3syn10punctuated11PrivateIterNtNtB7_4expr4ExprNtNtB7_5token5CommaENtNtNtNtCsieiGu2EXtoJ_4core4iter6traits8iterator8Iterator9size_hintCsgKOh19surD7_13futures_macro, symObjAddr: 0x5810, symBinAddr: 0x25560, symSize: 0x30 }
  - { offset: 0x613E2, size: 0x8, addend: 0x0, symName: __RNvYINtNtCsdGrGZaRBwMb_3syn10punctuated11PrivateIterNtNtB7_4expr4ExprNtNtB7_5token5CommaENtNtNtNtCsieiGu2EXtoJ_4core4iter6traits10exact_size17ExactSizeIterator8is_emptyCsgKOh19surD7_13futures_macro, symObjAddr: 0x5540, symBinAddr: 0x25290, symSize: 0x20 }
  - { offset: 0x61423, size: 0x8, addend: 0x0, symName: __RNvYINtNtCsdGrGZaRBwMb_3syn10punctuated11PrivateIterNtNtB7_4expr4ExprNtNtB7_5token5CommaENtNtNtNtCsieiGu2EXtoJ_4core4iter6traits12double_ended19DoubleEndedIterator15advance_back_byCsgKOh19surD7_13futures_macro, symObjAddr: 0x5560, symBinAddr: 0x252B0, symSize: 0x1A0 }
  - { offset: 0x615A2, size: 0x8, addend: 0x0, symName: __RNvYINtNtCsdGrGZaRBwMb_3syn10punctuated11PrivateIterNtNtB7_4expr4ExprNtNtB7_5token5CommaENtNtNtNtCsieiGu2EXtoJ_4core4iter6traits12double_ended19DoubleEndedIterator8nth_backCsgKOh19surD7_13futures_macro, symObjAddr: 0x5700, symBinAddr: 0x25450, symSize: 0x70 }
  - { offset: 0x616F8, size: 0x8, addend: 0x0, symName: __RNvXs1_NtCsieiGu2EXtoJ_4core7convertNtCsaKzlTDPUHDb_11proc_macro211TokenStreamINtB5_4IntoNtCscKtU6MdFI5n_10proc_macro11TokenStreamE4intoCsgKOh19surD7_13futures_macro, symObjAddr: 0x4520, symBinAddr: 0x24290, symSize: 0x10 }
  - { offset: 0x622C8, size: 0x8, addend: 0x0, symName: __RINvNvNtCsHUR1vrdMJt_3std9panicking12catch_unwind7do_callINtNtNtCsieiGu2EXtoJ_4core5panic11unwind_safe16AssertUnwindSafeNCINvNtNtCscKtU6MdFI5n_10proc_macro6bridge6client10run_clientNtB1Z_11TokenStreamINtNtB10_6option6OptionB2T_ENCNCINvMs6_B1Z_INtB1Z_6ClientNtB23_11TokenStreamB47_E7expand1NvCsgKOh19surD7_13futures_macro13join_internalE00E0EuEB4F_, symObjAddr: 0xD0, symBinAddr: 0x1FE40, symSize: 0x40 }
  - { offset: 0x62391, size: 0x8, addend: 0x0, symName: __RINvNvNtCsHUR1vrdMJt_3std9panicking12catch_unwind7do_callINtNtNtCsieiGu2EXtoJ_4core5panic11unwind_safe16AssertUnwindSafeNCINvNtNtCscKtU6MdFI5n_10proc_macro6bridge6client10run_clientNtB1Z_11TokenStreamINtNtB10_6option6OptionB2T_ENCNCINvMs6_B1Z_INtB1Z_6ClientNtB23_11TokenStreamB47_E7expand1NvCsgKOh19surD7_13futures_macro15select_internalE00E0EuEB4F_, symObjAddr: 0x110, symBinAddr: 0x1FE80, symSize: 0x40 }
  - { offset: 0x6245A, size: 0x8, addend: 0x0, symName: __RINvNvNtCsHUR1vrdMJt_3std9panicking12catch_unwind7do_callINtNtNtCsieiGu2EXtoJ_4core5panic11unwind_safe16AssertUnwindSafeNCINvNtNtCscKtU6MdFI5n_10proc_macro6bridge6client10run_clientNtB1Z_11TokenStreamINtNtB10_6option6OptionB2T_ENCNCINvMs6_B1Z_INtB1Z_6ClientNtB23_11TokenStreamB47_E7expand1NvCsgKOh19surD7_13futures_macro17try_join_internalE00E0EuEB4F_, symObjAddr: 0x150, symBinAddr: 0x1FEC0, symSize: 0x40 }
  - { offset: 0x62523, size: 0x8, addend: 0x0, symName: __RINvNvNtCsHUR1vrdMJt_3std9panicking12catch_unwind7do_callINtNtNtCsieiGu2EXtoJ_4core5panic11unwind_safe16AssertUnwindSafeNCINvNtNtCscKtU6MdFI5n_10proc_macro6bridge6client10run_clientNtB1Z_11TokenStreamINtNtB10_6option6OptionB2T_ENCNCINvMs6_B1Z_INtB1Z_6ClientNtB23_11TokenStreamB47_E7expand1NvCsgKOh19surD7_13futures_macro22select_biased_internalE00E0EuEB4F_, symObjAddr: 0x190, symBinAddr: 0x1FF00, symSize: 0x40 }
  - { offset: 0x625EC, size: 0x8, addend: 0x0, symName: __RINvNvNtCsHUR1vrdMJt_3std9panicking12catch_unwind7do_callINtNtNtCsieiGu2EXtoJ_4core5panic11unwind_safe16AssertUnwindSafeNCINvNtNtCscKtU6MdFI5n_10proc_macro6bridge6client10run_clientNtB1Z_11TokenStreamINtNtB10_6option6OptionB2T_ENCNCINvMs6_B1Z_INtB1Z_6ClientNtB23_11TokenStreamB47_E7expand1NvCsgKOh19surD7_13futures_macro22stream_select_internalE00E0EuEB4F_, symObjAddr: 0x1D0, symBinAddr: 0x1FF40, symSize: 0x40 }
  - { offset: 0x626B5, size: 0x8, addend: 0x0, symName: __RINvNvNtCsHUR1vrdMJt_3std9panicking12catch_unwind7do_callINtNtNtCsieiGu2EXtoJ_4core5panic11unwind_safe16AssertUnwindSafeNCINvNtNtCscKtU6MdFI5n_10proc_macro6bridge6client10run_clientTNtB1Z_11TokenStreamB2U_EINtNtB10_6option6OptionB2U_ENCNCINvMs7_B1Z_INtB1Z_6ClientTNtB23_11TokenStreamB4e_EB4e_E7expand2NvCsgKOh19surD7_13futures_macro13test_internalE00E0EuEB4R_, symObjAddr: 0x210, symBinAddr: 0x1FF80, symSize: 0x40 }
  - { offset: 0x6277E, size: 0x8, addend: 0x0, symName: __RINvNvNtCsHUR1vrdMJt_3std9panicking12catch_unwind8do_catchINtNtNtCsieiGu2EXtoJ_4core5panic11unwind_safe16AssertUnwindSafeNCINvNtNtCscKtU6MdFI5n_10proc_macro6bridge6client10run_clientNtB20_11TokenStreamINtNtB11_6option6OptionB2U_ENCNCINvMs6_B20_INtB20_6ClientNtB24_11TokenStreamB48_E7expand1NvCsgKOh19surD7_13futures_macro13join_internalE00E0EuEB4G_, symObjAddr: 0x250, symBinAddr: 0x1FFC0, symSize: 0x60 }
  - { offset: 0x62813, size: 0x8, addend: 0x0, symName: __RINvNvNtCsHUR1vrdMJt_3std9panicking12catch_unwind8do_catchINtNtNtCsieiGu2EXtoJ_4core5panic11unwind_safe16AssertUnwindSafeNCINvNtNtCscKtU6MdFI5n_10proc_macro6bridge6client10run_clientNtB20_11TokenStreamINtNtB11_6option6OptionB2U_ENCNCINvMs6_B20_INtB20_6ClientNtB24_11TokenStreamB48_E7expand1NvCsgKOh19surD7_13futures_macro15select_internalE00E0EuEB4G_, symObjAddr: 0x2B0, symBinAddr: 0x20020, symSize: 0x60 }
  - { offset: 0x628A8, size: 0x8, addend: 0x0, symName: __RINvNvNtCsHUR1vrdMJt_3std9panicking12catch_unwind8do_catchINtNtNtCsieiGu2EXtoJ_4core5panic11unwind_safe16AssertUnwindSafeNCINvNtNtCscKtU6MdFI5n_10proc_macro6bridge6client10run_clientNtB20_11TokenStreamINtNtB11_6option6OptionB2U_ENCNCINvMs6_B20_INtB20_6ClientNtB24_11TokenStreamB48_E7expand1NvCsgKOh19surD7_13futures_macro17try_join_internalE00E0EuEB4G_, symObjAddr: 0x310, symBinAddr: 0x20080, symSize: 0x60 }
  - { offset: 0x6293D, size: 0x8, addend: 0x0, symName: __RINvNvNtCsHUR1vrdMJt_3std9panicking12catch_unwind8do_catchINtNtNtCsieiGu2EXtoJ_4core5panic11unwind_safe16AssertUnwindSafeNCINvNtNtCscKtU6MdFI5n_10proc_macro6bridge6client10run_clientNtB20_11TokenStreamINtNtB11_6option6OptionB2U_ENCNCINvMs6_B20_INtB20_6ClientNtB24_11TokenStreamB48_E7expand1NvCsgKOh19surD7_13futures_macro22select_biased_internalE00E0EuEB4G_, symObjAddr: 0x370, symBinAddr: 0x200E0, symSize: 0x60 }
  - { offset: 0x629D2, size: 0x8, addend: 0x0, symName: __RINvNvNtCsHUR1vrdMJt_3std9panicking12catch_unwind8do_catchINtNtNtCsieiGu2EXtoJ_4core5panic11unwind_safe16AssertUnwindSafeNCINvNtNtCscKtU6MdFI5n_10proc_macro6bridge6client10run_clientNtB20_11TokenStreamINtNtB11_6option6OptionB2U_ENCNCINvMs6_B20_INtB20_6ClientNtB24_11TokenStreamB48_E7expand1NvCsgKOh19surD7_13futures_macro22stream_select_internalE00E0EuEB4G_, symObjAddr: 0x3D0, symBinAddr: 0x20140, symSize: 0x60 }
  - { offset: 0x62A67, size: 0x8, addend: 0x0, symName: __RINvNvNtCsHUR1vrdMJt_3std9panicking12catch_unwind8do_catchINtNtNtCsieiGu2EXtoJ_4core5panic11unwind_safe16AssertUnwindSafeNCINvNtNtCscKtU6MdFI5n_10proc_macro6bridge6client10run_clientTNtB20_11TokenStreamB2V_EINtNtB11_6option6OptionB2V_ENCNCINvMs7_B20_INtB20_6ClientTNtB24_11TokenStreamB4f_EB4f_E7expand2NvCsgKOh19surD7_13futures_macro13test_internalE00E0EuEB4S_, symObjAddr: 0x430, symBinAddr: 0x201A0, symSize: 0x60 }
  - { offset: 0x62CC2, size: 0x8, addend: 0x0, symName: __RINvMNtCsieiGu2EXtoJ_4core6resultINtB3_6ResultNtCsaKzlTDPUHDb_11proc_macro211TokenStreamNtNtCsdGrGZaRBwMb_3syn5error5ErrorE14unwrap_or_elseNvMB1q_B1o_18into_compile_errorECsgKOh19surD7_13futures_macro, symObjAddr: 0x0, symBinAddr: 0x1FD70, symSize: 0xD0 }
  - { offset: 0x62F83, size: 0x8, addend: 0x0, symName: __RNCNvNtCsgKOh19surD7_13futures_macro4join12bind_futures0B5_, symObjAddr: 0x7F0, symBinAddr: 0x20560, symSize: 0x5C0 }
  - { offset: 0x630BC, size: 0x8, addend: 0x0, symName: __RNCNvNtCsgKOh19surD7_13futures_macro4join4join0B5_, symObjAddr: 0xDB0, symBinAddr: 0x20B20, symSize: 0x2A0 }
  - { offset: 0x6311F, size: 0x8, addend: 0x0, symName: __RNCNvNtCsgKOh19surD7_13futures_macro4join4joins_0B5_, symObjAddr: 0x1050, symBinAddr: 0x20DC0, symSize: 0x1B0 }
  - { offset: 0x63180, size: 0x8, addend: 0x0, symName: __RNCNvNtCsgKOh19surD7_13futures_macro4join8try_join0B5_, symObjAddr: 0x1200, symBinAddr: 0x20F70, symSize: 0xA30 }
  - { offset: 0x63267, size: 0x8, addend: 0x0, symName: __RNCNvNtCsgKOh19surD7_13futures_macro4join8try_joins_0B5_, symObjAddr: 0x1C30, symBinAddr: 0x219A0, symSize: 0x380 }
  - { offset: 0x632EF, size: 0x8, addend: 0x0, symName: __RNvNtCsgKOh19surD7_13futures_macro4join12bind_futures, symObjAddr: 0x2150, symBinAddr: 0x21EC0, symSize: 0x1B0 }
  - { offset: 0x63360, size: 0x8, addend: 0x0, symName: __RNvNtCsgKOh19surD7_13futures_macro4join4join, symObjAddr: 0x2300, symBinAddr: 0x22070, symSize: 0xE50 }
  - { offset: 0x6368D, size: 0x8, addend: 0x0, symName: __RNvNtCsgKOh19surD7_13futures_macro4join8try_join, symObjAddr: 0x3150, symBinAddr: 0x22EC0, symSize: 0x1070 }
  - { offset: 0x63A01, size: 0x8, addend: 0x0, symName: __RNvXNtCsgKOh19surD7_13futures_macro4joinNtB2_4JoinNtNtCsdGrGZaRBwMb_3syn5parse5Parse5parse, symObjAddr: 0x4220, symBinAddr: 0x23F90, symSize: 0x280 }
  - { offset: 0x63A75, size: 0x8, addend: 0x0, symName: __RNvXs_NtCsgKOh19surD7_13futures_macro4joinNtB4_4JoinNtNtCsieiGu2EXtoJ_4core7default7Default7defaultB6_, symObjAddr: 0x47E0, symBinAddr: 0x24550, symSize: 0x40 }
  - { offset: 0x63BA2, size: 0x8, addend: 0x0, symName: __RNvMNtCsdGrGZaRBwMb_3syn10punctuatedINtB2_10PunctuatedNtNtB4_4expr4ExprNtNtB4_5token5CommaE16parse_terminatedCsgKOh19surD7_13futures_macro, symObjAddr: 0x2010, symBinAddr: 0x21D80, symSize: 0x40 }
  - { offset: 0x63C39, size: 0x8, addend: 0x0, symName: __RNvMNtCsdGrGZaRBwMb_3syn10punctuatedINtB2_10PunctuatedNtNtB4_4expr4ExprNtNtB4_5token5CommaE4iterCsgKOh19surD7_13futures_macro, symObjAddr: 0x2050, symBinAddr: 0x21DC0, symSize: 0xC0 }
  - { offset: 0x63C9A, size: 0x8, addend: 0x0, symName: __RNvXNtCs9OU1sGv5X54_5quote9to_tokensRNtCsaKzlTDPUHDb_11proc_macro211TokenStreamNtB2_8ToTokens9to_tokensCsgKOh19surD7_13futures_macro, symObjAddr: 0x41C0, symBinAddr: 0x23F30, symSize: 0x30 }
  - { offset: 0x63CD9, size: 0x8, addend: 0x0, symName: __RNvXNtCs9OU1sGv5X54_5quote9to_tokensRNtCsaKzlTDPUHDb_11proc_macro25IdentNtB2_8ToTokens9to_tokensCsgKOh19surD7_13futures_macro, symObjAddr: 0x41F0, symBinAddr: 0x23F60, symSize: 0x30 }
  - { offset: 0x63D1E, size: 0x8, addend: 0x0, symName: __RNvYNtNtCsdGrGZaRBwMb_3syn5token2FnNtNtCs9OU1sGv5X54_5quote9to_tokens8ToTokens15to_token_streamCsgKOh19surD7_13futures_macro, symObjAddr: 0x5840, symBinAddr: 0x25590, symSize: 0x90 }
  - { offset: 0x63D68, size: 0x8, addend: 0x0, symName: __RNvYNtNtCsdGrGZaRBwMb_3syn5token2FnNtNtCs9OU1sGv5X54_5quote9to_tokens8ToTokens17into_token_streamCsgKOh19surD7_13futures_macro, symObjAddr: 0x58D0, symBinAddr: 0x25620, symSize: 0x50 }
  - { offset: 0x69F32, size: 0x8, addend: 0x0, symName: __RNcNtNtNtCsdGrGZaRBwMb_3syn4item11ForeignItem5Macro0B7_, symObjAddr: 0x1B60, symBinAddr: 0x256E0, symSize: 0x40 }
  - { offset: 0x69F69, size: 0x8, addend: 0x0, symName: __RNcNtNtNtCsdGrGZaRBwMb_3syn4item16StaticMutability3Mut0B7_, symObjAddr: 0x1BA0, symBinAddr: 0x25720, symSize: 0x10 }
  - { offset: 0x69F9F, size: 0x8, addend: 0x0, symName: __RNcNtNtNtCsdGrGZaRBwMb_3syn4item4Item10ForeignMod0B7_, symObjAddr: 0x1BB0, symBinAddr: 0x25730, symSize: 0x40 }
  - { offset: 0x69FCE, size: 0x8, addend: 0x0, symName: __RNcNtNtNtCsdGrGZaRBwMb_3syn4item4Item10TraitAlias0B7_, symObjAddr: 0x1BF0, symBinAddr: 0x25770, symSize: 0x40 }
  - { offset: 0x69FFD, size: 0x8, addend: 0x0, symName: __RNcNtNtNtCsdGrGZaRBwMb_3syn4item4Item11ExternCrate0B7_, symObjAddr: 0x1C30, symBinAddr: 0x257B0, symSize: 0x40 }
  - { offset: 0x6A02C, size: 0x8, addend: 0x0, symName: __RNcNtNtNtCsdGrGZaRBwMb_3syn4item4Item2Fn0B7_, symObjAddr: 0x1C70, symBinAddr: 0x257F0, symSize: 0x30 }
  - { offset: 0x6A05B, size: 0x8, addend: 0x0, symName: __RNcNtNtNtCsdGrGZaRBwMb_3syn4item4Item3Mod0B7_, symObjAddr: 0x1CA0, symBinAddr: 0x25820, symSize: 0x40 }
  - { offset: 0x6A08A, size: 0x8, addend: 0x0, symName: __RNcNtNtNtCsdGrGZaRBwMb_3syn4item4Item4Enum0B7_, symObjAddr: 0x1CE0, symBinAddr: 0x25860, symSize: 0x40 }
  - { offset: 0x6A0B9, size: 0x8, addend: 0x0, symName: __RNcNtNtNtCsdGrGZaRBwMb_3syn4item4Item5Macro0B7_, symObjAddr: 0x1D20, symBinAddr: 0x258A0, symSize: 0x40 }
  - { offset: 0x6A0E8, size: 0x8, addend: 0x0, symName: __RNcNtNtNtCsdGrGZaRBwMb_3syn4item4Item5Trait0B7_, symObjAddr: 0x1D60, symBinAddr: 0x258E0, symSize: 0x40 }
  - { offset: 0x6A117, size: 0x8, addend: 0x0, symName: __RNcNtNtNtCsdGrGZaRBwMb_3syn4item4Item5Union0B7_, symObjAddr: 0x1DA0, symBinAddr: 0x25920, symSize: 0x40 }
  - { offset: 0x6A146, size: 0x8, addend: 0x0, symName: __RNcNtNtNtCsdGrGZaRBwMb_3syn4item4Item6Struct0B7_, symObjAddr: 0x1DE0, symBinAddr: 0x25960, symSize: 0x40 }
  - { offset: 0x6A17B, size: 0x8, addend: 0x0, symName: __RNcNtNtNtCsdGrGZaRBwMb_3syn4item8ImplItem5Macro0B7_, symObjAddr: 0x1E20, symBinAddr: 0x259A0, symSize: 0x40 }
  - { offset: 0x6A1B2, size: 0x8, addend: 0x0, symName: __RNcNtNtNtCsdGrGZaRBwMb_3syn4item9TraitItem2Fn0B7_, symObjAddr: 0x1E60, symBinAddr: 0x259E0, symSize: 0x40 }
  - { offset: 0x6A1E3, size: 0x8, addend: 0x0, symName: __RNcNtNtNtCsdGrGZaRBwMb_3syn4item9TraitItem5Macro0B7_, symObjAddr: 0x1EA0, symBinAddr: 0x25A20, symSize: 0x40 }
  - { offset: 0x6A21A, size: 0x8, addend: 0x0, symName: __RNvXNtNtCsdGrGZaRBwMb_3syn4item7parsingNtB4_4ItemNtNtB6_5parse5Parse5parse, symObjAddr: 0x45C0, symBinAddr: 0x25E60, symSize: 0x220 }
  - { offset: 0x6A2C2, size: 0x8, addend: 0x0, symName: __RNvXs0_NtNtCsdGrGZaRBwMb_3syn4item7parsingNtB7_9ItemMacroNtNtB9_5parse5Parse5parse, symObjAddr: 0x4970, symBinAddr: 0x26180, symSize: 0x900 }
  - { offset: 0x6A490, size: 0x8, addend: 0x0, symName: __RNvXs1_NtNtCsdGrGZaRBwMb_3syn4item7parsingNtB7_15ItemExternCrateNtNtB9_5parse5Parse5parse, symObjAddr: 0x61D0, symBinAddr: 0x26B60, symSize: 0xC80 }
  - { offset: 0x6A69A, size: 0x8, addend: 0x0, symName: __RNvXs3_NtNtCsdGrGZaRBwMb_3syn4item7parsingNtB7_7UseTreeNtNtB9_5parse5Parse5parse, symObjAddr: 0xF1E0, symBinAddr: 0x279A0, symSize: 0x50 }
  - { offset: 0x6A6EC, size: 0x8, addend: 0x0, symName: __RNvXs6_NtNtCsdGrGZaRBwMb_3syn4item7parsingNtB7_9SignatureNtNtB9_5parse5Parse5parse, symObjAddr: 0x127D0, symBinAddr: 0x27C60, symSize: 0x60 }
  - { offset: 0x6A73E, size: 0x8, addend: 0x0, symName: __RNvXs7_NtNtCsdGrGZaRBwMb_3syn4item7parsingNtB7_6ItemFnNtNtB9_5parse5Parse5parse, symObjAddr: 0x12930, symBinAddr: 0x27D80, symSize: 0x490 }
  - { offset: 0x6A871, size: 0x8, addend: 0x0, symName: __RNvXsa_NtNtCsdGrGZaRBwMb_3syn4item7parsingNtB7_7ItemModNtNtB9_5parse5Parse5parse, symObjAddr: 0x14920, symBinAddr: 0x28850, symSize: 0x10F0 }
  - { offset: 0x6AAD4, size: 0x8, addend: 0x0, symName: __RNvXsb_NtNtCsdGrGZaRBwMb_3syn4item7parsingNtB7_14ItemForeignModNtNtB9_5parse5Parse5parse, symObjAddr: 0x15B30, symBinAddr: 0x29A20, symSize: 0x7D0 }
  - { offset: 0x6AC86, size: 0x8, addend: 0x0, symName: __RNvXsc_NtNtCsdGrGZaRBwMb_3syn4item7parsingNtB7_11ForeignItemNtNtB9_5parse5Parse5parse, symObjAddr: 0x164A0, symBinAddr: 0x2A350, symSize: 0x22C0 }
  - { offset: 0x6B300, size: 0x8, addend: 0x0, symName: __RNvXsg_NtNtCsdGrGZaRBwMb_3syn4item7parsingNtB7_16ForeignItemMacroNtNtB9_5parse5Parse5parse, symObjAddr: 0x1A410, symBinAddr: 0x2C810, symSize: 0x410 }
  - { offset: 0x6B414, size: 0x8, addend: 0x0, symName: __RNvXsi_NtNtCsdGrGZaRBwMb_3syn4item7parsingNtB7_10ItemStructNtNtB9_5parse5Parse5parse, symObjAddr: 0x1B5E0, symBinAddr: 0x2CC80, symSize: 0x960 }
  - { offset: 0x6B611, size: 0x8, addend: 0x0, symName: __RNvXsj_NtNtCsdGrGZaRBwMb_3syn4item7parsingNtB7_8ItemEnumNtNtB9_5parse5Parse5parse, symObjAddr: 0x1C090, symBinAddr: 0x2D6F0, symSize: 0x940 }
  - { offset: 0x6B80E, size: 0x8, addend: 0x0, symName: __RNvXsk_NtNtCsdGrGZaRBwMb_3syn4item7parsingNtB7_9ItemUnionNtNtB9_5parse5Parse5parse, symObjAddr: 0x1CD40, symBinAddr: 0x2E3A0, symSize: 0x940 }
  - { offset: 0x6B9FA, size: 0x8, addend: 0x0, symName: __RNvXsl_NtNtCsdGrGZaRBwMb_3syn4item7parsingNtB7_9ItemTraitNtNtB9_5parse5Parse5parse, symObjAddr: 0x1D820, symBinAddr: 0x2EE40, symSize: 0x860 }
  - { offset: 0x6BC01, size: 0x8, addend: 0x0, symName: __RNvXsn_NtNtCsdGrGZaRBwMb_3syn4item7parsingNtB7_9TraitItemNtNtB9_5parse5Parse5parse, symObjAddr: 0x1E5A0, symBinAddr: 0x2F810, symSize: 0x19C0 }
  - { offset: 0x6C081, size: 0x8, addend: 0x0, symName: __RNvXsp_NtNtCsdGrGZaRBwMb_3syn4item7parsingNtB7_11TraitItemFnNtNtB9_5parse5Parse5parse, symObjAddr: 0x20C80, symBinAddr: 0x31370, symSize: 0xAF0 }
  - { offset: 0x6C28D, size: 0x8, addend: 0x0, symName: __RNvXsr_NtNtCsdGrGZaRBwMb_3syn4item7parsingNtB7_14TraitItemMacroNtNtB9_5parse5Parse5parse, symObjAddr: 0x225F0, symBinAddr: 0x32020, symSize: 0x410 }
  - { offset: 0x6C3A1, size: 0x8, addend: 0x0, symName: __RNvXst_NtNtCsdGrGZaRBwMb_3syn4item7parsingNtB7_8ImplItemNtNtB9_5parse5Parse5parse, symObjAddr: 0x22C60, symBinAddr: 0x325B0, symSize: 0x1CB0 }
  - { offset: 0x6C8A8, size: 0x8, addend: 0x0, symName: __RNvXsx_NtNtCsdGrGZaRBwMb_3syn4item7parsingNtB7_13ImplItemMacroNtNtB9_5parse5Parse5parse, symObjAddr: 0x26A90, symBinAddr: 0x349B0, symSize: 0x410 }
  - { offset: 0x6C9BC, size: 0x8, addend: 0x0, symName: __RNvXsz_NtNtCsdGrGZaRBwMb_3syn4item7parsingNtB7_16StaticMutabilityNtNtB9_5parse5Parse5parse, symObjAddr: 0x26F70, symBinAddr: 0x34E10, symSize: 0xD0 }
  - { offset: 0x6CA32, size: 0x8, addend: 0x0, symName: __RNvXNtNtCsdGrGZaRBwMb_3syn4item8printingNtB4_15ItemExternCrateNtNtCs9OU1sGv5X54_5quote9to_tokens8ToTokens9to_tokens, symObjAddr: 0x47E0, symBinAddr: 0x26080, symSize: 0x100 }
  - { offset: 0x6CA9F, size: 0x8, addend: 0x0, symName: __RNvXs0_NtNtCsdGrGZaRBwMb_3syn4item8printingNtB7_10ItemStaticNtNtCs9OU1sGv5X54_5quote9to_tokens8ToTokens9to_tokens, symObjAddr: 0x5270, symBinAddr: 0x26A80, symSize: 0xE0 }
  - { offset: 0x6CADE, size: 0x8, addend: 0x0, symName: __RNvXs1_NtNtCsdGrGZaRBwMb_3syn4item8printingNtB7_9ItemConstNtNtCs9OU1sGv5X54_5quote9to_tokens8ToTokens9to_tokens, symObjAddr: 0x6E50, symBinAddr: 0x277E0, symSize: 0xF0 }
  - { offset: 0x6CB1D, size: 0x8, addend: 0x0, symName: __RNvXs2_NtNtCsdGrGZaRBwMb_3syn4item8printingNtB7_6ItemFnNtNtCs9OU1sGv5X54_5quote9to_tokens8ToTokens9to_tokens, symObjAddr: 0xC060, symBinAddr: 0x278D0, symSize: 0xD0 }
  - { offset: 0x6CB5C, size: 0x8, addend: 0x0, symName: __RNvXs3_NtNtCsdGrGZaRBwMb_3syn4item8printingNtB7_7ItemModNtNtCs9OU1sGv5X54_5quote9to_tokens8ToTokens9to_tokens, symObjAddr: 0xF230, symBinAddr: 0x279F0, symSize: 0x110 }
  - { offset: 0x6CBC9, size: 0x8, addend: 0x0, symName: __RNvXs4_NtNtCsdGrGZaRBwMb_3syn4item8printingNtB7_14ItemForeignModNtNtCs9OU1sGv5X54_5quote9to_tokens8ToTokens9to_tokens, symObjAddr: 0x10B10, symBinAddr: 0x27B00, symSize: 0x80 }
  - { offset: 0x6CC08, size: 0x8, addend: 0x0, symName: __RNvXs5_NtNtCsdGrGZaRBwMb_3syn4item8printingNtB7_8ItemTypeNtNtCs9OU1sGv5X54_5quote9to_tokens8ToTokens9to_tokens, symObjAddr: 0x12300, symBinAddr: 0x27B80, symSize: 0xE0 }
  - { offset: 0x6CC47, size: 0x8, addend: 0x0, symName: __RNvXs6_NtNtCsdGrGZaRBwMb_3syn4item8printingNtB7_8ItemEnumNtNtCs9OU1sGv5X54_5quote9to_tokens8ToTokens9to_tokens, symObjAddr: 0x12830, symBinAddr: 0x27CC0, symSize: 0xC0 }
  - { offset: 0x6CC86, size: 0x8, addend: 0x0, symName: __RNvXs7_NtNtCsdGrGZaRBwMb_3syn4item8printingNtB7_10ItemStructNtNtCs9OU1sGv5X54_5quote9to_tokens8ToTokens9to_tokens, symObjAddr: 0x12DC0, symBinAddr: 0x28210, symSize: 0x180 }
  - { offset: 0x6CD01, size: 0x8, addend: 0x0, symName: __RNvXs8_NtNtCsdGrGZaRBwMb_3syn4item8printingNtB7_9ItemUnionNtNtCs9OU1sGv5X54_5quote9to_tokens8ToTokens9to_tokens, symObjAddr: 0x139D0, symBinAddr: 0x28390, symSize: 0xC0 }
  - { offset: 0x6CD40, size: 0x8, addend: 0x0, symName: __RNvXs9_NtNtCsdGrGZaRBwMb_3syn4item8printingNtB7_9ItemTraitNtNtCs9OU1sGv5X54_5quote9to_tokens8ToTokens9to_tokens, symObjAddr: 0x13CD0, symBinAddr: 0x28450, symSize: 0x130 }
  - { offset: 0x6CD7F, size: 0x8, addend: 0x0, symName: __RNvXs_NtNtCsdGrGZaRBwMb_3syn4item8printingNtB6_7ItemUseNtNtCs9OU1sGv5X54_5quote9to_tokens8ToTokens9to_tokens, symObjAddr: 0x14840, symBinAddr: 0x287B0, symSize: 0xA0 }
  - { offset: 0x6CDBE, size: 0x8, addend: 0x0, symName: __RNvXsa_NtNtCsdGrGZaRBwMb_3syn4item8printingNtB7_14ItemTraitAliasNtNtCs9OU1sGv5X54_5quote9to_tokens8ToTokens9to_tokens, symObjAddr: 0x15A10, symBinAddr: 0x29940, symSize: 0xE0 }
  - { offset: 0x6CDFD, size: 0x8, addend: 0x0, symName: __RNvXsb_NtNtCsdGrGZaRBwMb_3syn4item8printingNtB7_8ItemImplNtNtCs9OU1sGv5X54_5quote9to_tokens8ToTokens9to_tokens, symObjAddr: 0x16300, symBinAddr: 0x2A1F0, symSize: 0x160 }
  - { offset: 0x6CE7A, size: 0x8, addend: 0x0, symName: __RNvXsc_NtNtCsdGrGZaRBwMb_3syn4item8printingNtB7_9ItemMacroNtNtCs9OU1sGv5X54_5quote9to_tokens8ToTokens9to_tokens, symObjAddr: 0x18760, symBinAddr: 0x2C610, symSize: 0x130 }
  - { offset: 0x6CF0B, size: 0x8, addend: 0x0, symName: __RNvXsd_NtNtCsdGrGZaRBwMb_3syn4item8printingNtB7_7UsePathNtNtCs9OU1sGv5X54_5quote9to_tokens8ToTokens9to_tokens, symObjAddr: 0x18E20, symBinAddr: 0x2C740, symSize: 0x50 }
  - { offset: 0x6CF4A, size: 0x8, addend: 0x0, symName: __RNvXse_NtNtCsdGrGZaRBwMb_3syn4item8printingNtB7_7UseNameNtNtCs9OU1sGv5X54_5quote9to_tokens8ToTokens9to_tokens, symObjAddr: 0x19960, symBinAddr: 0x2C790, symSize: 0x30 }
  - { offset: 0x6CF89, size: 0x8, addend: 0x0, symName: __RNvXsf_NtNtCsdGrGZaRBwMb_3syn4item8printingNtB7_9UseRenameNtNtCs9OU1sGv5X54_5quote9to_tokens8ToTokens9to_tokens, symObjAddr: 0x1A380, symBinAddr: 0x2C7C0, symSize: 0x50 }
  - { offset: 0x6CFC8, size: 0x8, addend: 0x0, symName: __RNvXsg_NtNtCsdGrGZaRBwMb_3syn4item8printingNtB7_7UseGlobNtNtCs9OU1sGv5X54_5quote9to_tokens8ToTokens9to_tokens, symObjAddr: 0x1A820, symBinAddr: 0x2CC20, symSize: 0x30 }
  - { offset: 0x6D007, size: 0x8, addend: 0x0, symName: __RNvXsh_NtNtCsdGrGZaRBwMb_3syn4item8printingNtB7_8UseGroupNtNtCs9OU1sGv5X54_5quote9to_tokens8ToTokens9to_tokens, symObjAddr: 0x1B570, symBinAddr: 0x2CC50, symSize: 0x30 }
  - { offset: 0x6D046, size: 0x8, addend: 0x0, symName: __RNvXsi_NtNtCsdGrGZaRBwMb_3syn4item8printingNtB7_14TraitItemConstNtNtCs9OU1sGv5X54_5quote9to_tokens8ToTokens9to_tokens, symObjAddr: 0x1BF40, symBinAddr: 0x2D5E0, symSize: 0x110 }
  - { offset: 0x6D0B3, size: 0x8, addend: 0x0, symName: __RNvXsj_NtNtCsdGrGZaRBwMb_3syn4item8printingNtB7_11TraitItemFnNtNtCs9OU1sGv5X54_5quote9to_tokens8ToTokens9to_tokens, symObjAddr: 0x1C9D0, symBinAddr: 0x2E030, symSize: 0xD0 }
  - { offset: 0x6D110, size: 0x8, addend: 0x0, symName: __RNvXsk_NtNtCsdGrGZaRBwMb_3syn4item8printingNtB7_13TraitItemTypeNtNtCs9OU1sGv5X54_5quote9to_tokens8ToTokens9to_tokens, symObjAddr: 0x1D680, symBinAddr: 0x2ECE0, symSize: 0x160 }
  - { offset: 0x6D17D, size: 0x8, addend: 0x0, symName: __RNvXsl_NtNtCsdGrGZaRBwMb_3syn4item8printingNtB7_14TraitItemMacroNtNtCs9OU1sGv5X54_5quote9to_tokens8ToTokens9to_tokens, symObjAddr: 0x1E080, symBinAddr: 0x2F6A0, symSize: 0x70 }
  - { offset: 0x6D1BC, size: 0x8, addend: 0x0, symName: __RNvXsm_NtNtCsdGrGZaRBwMb_3syn4item8printingNtB7_13ImplItemConstNtNtCs9OU1sGv5X54_5quote9to_tokens8ToTokens9to_tokens, symObjAddr: 0x1E460, symBinAddr: 0x2F710, symSize: 0x100 }
  - { offset: 0x6D1FB, size: 0x8, addend: 0x0, symName: __RNvXsn_NtNtCsdGrGZaRBwMb_3syn4item8printingNtB7_10ImplItemFnNtNtCs9OU1sGv5X54_5quote9to_tokens8ToTokens9to_tokens, symObjAddr: 0x1FF60, symBinAddr: 0x311D0, symSize: 0xA0 }
  - { offset: 0x6D23A, size: 0x8, addend: 0x0, symName: __RNvXso_NtNtCsdGrGZaRBwMb_3syn4item8printingNtB7_12ImplItemTypeNtNtCs9OU1sGv5X54_5quote9to_tokens8ToTokens9to_tokens, symObjAddr: 0x20B40, symBinAddr: 0x31270, symSize: 0x100 }
  - { offset: 0x6D279, size: 0x8, addend: 0x0, symName: __RNvXsp_NtNtCsdGrGZaRBwMb_3syn4item8printingNtB7_13ImplItemMacroNtNtCs9OU1sGv5X54_5quote9to_tokens8ToTokens9to_tokens, symObjAddr: 0x21770, symBinAddr: 0x31E60, symSize: 0x70 }
  - { offset: 0x6D2B8, size: 0x8, addend: 0x0, symName: __RNvXsq_NtNtCsdGrGZaRBwMb_3syn4item8printingNtB7_13ForeignItemFnNtNtCs9OU1sGv5X54_5quote9to_tokens8ToTokens9to_tokens, symObjAddr: 0x22540, symBinAddr: 0x31FA0, symSize: 0x80 }
  - { offset: 0x6D2F7, size: 0x8, addend: 0x0, symName: __RNvXsr_NtNtCsdGrGZaRBwMb_3syn4item8printingNtB7_17ForeignItemStaticNtNtCs9OU1sGv5X54_5quote9to_tokens8ToTokens9to_tokens, symObjAddr: 0x22A00, symBinAddr: 0x32430, symSize: 0xC0 }
  - { offset: 0x6D336, size: 0x8, addend: 0x0, symName: __RNvXss_NtNtCsdGrGZaRBwMb_3syn4item8printingNtB7_15ForeignItemTypeNtNtCs9OU1sGv5X54_5quote9to_tokens8ToTokens9to_tokens, symObjAddr: 0x22B60, symBinAddr: 0x324F0, symSize: 0xC0 }
  - { offset: 0x6D375, size: 0x8, addend: 0x0, symName: __RNvXst_NtNtCsdGrGZaRBwMb_3syn4item8printingNtB7_16ForeignItemMacroNtNtCs9OU1sGv5X54_5quote9to_tokens8ToTokens9to_tokens, symObjAddr: 0x24910, symBinAddr: 0x34260, symSize: 0x70 }
  - { offset: 0x6D3B4, size: 0x8, addend: 0x0, symName: __RNvXsu_NtNtCsdGrGZaRBwMb_3syn4item8printingNtB7_9SignatureNtNtCs9OU1sGv5X54_5quote9to_tokens8ToTokens9to_tokens, symObjAddr: 0x25730, symBinAddr: 0x342D0, symSize: 0xE0 }
  - { offset: 0x6D3F3, size: 0x8, addend: 0x0, symName: __RNvXsv_NtNtCsdGrGZaRBwMb_3syn4item8printingNtB7_8ReceiverNtNtCs9OU1sGv5X54_5quote9to_tokens8ToTokens9to_tokens, symObjAddr: 0x25950, symBinAddr: 0x34490, symSize: 0x450 }
  - { offset: 0x6D4E9, size: 0x8, addend: 0x0, symName: __RNvXsw_NtNtCsdGrGZaRBwMb_3syn4item8printingNtB7_8VariadicNtNtCs9OU1sGv5X54_5quote9to_tokens8ToTokens9to_tokens, symObjAddr: 0x26980, symBinAddr: 0x348E0, symSize: 0xD0 }
  - { offset: 0x6D556, size: 0x8, addend: 0x0, symName: __RNvXsx_NtNtCsdGrGZaRBwMb_3syn4item8printingNtB7_16StaticMutabilityNtNtCs9OU1sGv5X54_5quote9to_tokens8ToTokens9to_tokens, symObjAddr: 0x26EA0, symBinAddr: 0x34DC0, symSize: 0x50 }
  - { offset: 0x6D5B4, size: 0x8, addend: 0x0, symName: __RNvXsA_NtCsdGrGZaRBwMb_3syn4itemNtB5_9TraitItemNtNtCs9OU1sGv5X54_5quote9to_tokens8ToTokens9to_tokens, symObjAddr: 0x13E00, symBinAddr: 0x28580, symSize: 0xE0 }
  - { offset: 0x6D681, size: 0x8, addend: 0x0, symName: __RNvXsF_NtCsdGrGZaRBwMb_3syn4itemNtB5_8ImplItemNtNtCs9OU1sGv5X54_5quote9to_tokens8ToTokens9to_tokens, symObjAddr: 0x13FD0, symBinAddr: 0x28660, symSize: 0xE0 }
  - { offset: 0x6D74E, size: 0x8, addend: 0x0, symName: __RNvXsI_NtCsdGrGZaRBwMb_3syn4itemNtB5_5FnArgNtNtCs9OU1sGv5X54_5quote9to_tokens8ToTokens9to_tokens, symObjAddr: 0x14130, symBinAddr: 0x28740, symSize: 0x70 }
  - { offset: 0x6D7C4, size: 0x8, addend: 0x0, symName: __RNvXsk_NtCsdGrGZaRBwMb_3syn4itemNtB5_4ItemNtNtCs9OU1sGv5X54_5quote9to_tokens8ToTokens9to_tokens, symObjAddr: 0x1CAA0, symBinAddr: 0x2E100, symSize: 0x2A0 }
  - { offset: 0x6D9DA, size: 0x8, addend: 0x0, symName: __RNvXsq_NtCsdGrGZaRBwMb_3syn4itemNtB5_7UseTreeNtNtCs9OU1sGv5X54_5quote9to_tokens8ToTokens9to_tokens, symObjAddr: 0x217E0, symBinAddr: 0x31ED0, symSize: 0xD0 }
  - { offset: 0x6DAA7, size: 0x8, addend: 0x0, symName: __RNvXsv_NtCsdGrGZaRBwMb_3syn4itemNtB5_11ForeignItemNtNtCs9OU1sGv5X54_5quote9to_tokens8ToTokens9to_tokens, symObjAddr: 0x25810, symBinAddr: 0x343B0, symSize: 0xE0 }
  - { offset: 0x71BC3, size: 0x8, addend: 0x0, symName: __RNvMNtCsieiGu2EXtoJ_4core5sliceSTNtNtCsdGrGZaRBwMb_3syn4item5FnArgNtNtBz_5token5CommaE4iterBz_, symObjAddr: 0x2180, symBinAddr: 0x25D00, symSize: 0x20 }
  - { offset: 0x71BFA, size: 0x8, addend: 0x0, symName: __RNvMNtCsieiGu2EXtoJ_4core5sliceSTNtNtCsdGrGZaRBwMb_3syn4item7UseTreeNtNtBz_5token5CommaE4iterBz_, symObjAddr: 0x21A0, symBinAddr: 0x25D20, symSize: 0x20 }
  - { offset: 0x7311B, size: 0x8, addend: 0x0, symName: __RNvMNtCsdGrGZaRBwMb_3syn4itemNtB2_4Item13replace_attrs, symObjAddr: 0x1EE0, symBinAddr: 0x25A60, symSize: 0x2A0 }
  - { offset: 0x73355, size: 0x8, addend: 0x0, symName: __RNvXNtCs9OU1sGv5X54_5quote9to_tokensRNtNtCsdGrGZaRBwMb_3syn4item11ForeignItemNtB2_8ToTokens9to_tokensBD_, symObjAddr: 0x44A0, symBinAddr: 0x25D40, symSize: 0x30 }
  - { offset: 0x73394, size: 0x8, addend: 0x0, symName: __RNvXNtCs9OU1sGv5X54_5quote9to_tokensRNtNtCsdGrGZaRBwMb_3syn4item4ItemNtB2_8ToTokens9to_tokensBD_, symObjAddr: 0x44D0, symBinAddr: 0x25D70, symSize: 0x30 }
  - { offset: 0x733D3, size: 0x8, addend: 0x0, symName: __RNvXNtCs9OU1sGv5X54_5quote9to_tokensRNtNtCsdGrGZaRBwMb_3syn4item5FnArgNtB2_8ToTokens9to_tokensBD_, symObjAddr: 0x4500, symBinAddr: 0x25DA0, symSize: 0x30 }
  - { offset: 0x73412, size: 0x8, addend: 0x0, symName: __RNvXNtCs9OU1sGv5X54_5quote9to_tokensRNtNtCsdGrGZaRBwMb_3syn4item7UseTreeNtB2_8ToTokens9to_tokensBD_, symObjAddr: 0x4530, symBinAddr: 0x25DD0, symSize: 0x30 }
  - { offset: 0x73451, size: 0x8, addend: 0x0, symName: __RNvXNtCs9OU1sGv5X54_5quote9to_tokensRNtNtCsdGrGZaRBwMb_3syn4item8ImplItemNtB2_8ToTokens9to_tokensBD_, symObjAddr: 0x4560, symBinAddr: 0x25E00, symSize: 0x30 }
  - { offset: 0x73490, size: 0x8, addend: 0x0, symName: __RNvXNtCs9OU1sGv5X54_5quote9to_tokensRNtNtCsdGrGZaRBwMb_3syn4item9TraitItemNtB2_8ToTokens9to_tokensBD_, symObjAddr: 0x4590, symBinAddr: 0x25E30, symSize: 0x30 }
  - { offset: 0x73853, size: 0x8, addend: 0x0, symName: __RINvMs_NtCslJiobkLta79_5alloc3vecINtB5_3VecReE10retain_mutNCNvMNtCsdGrGZaRBwMb_3syn9lookaheadNtBZ_10Lookahead15error0EB11_, symObjAddr: 0x0, symBinAddr: 0x34EE0, symSize: 0x160 }
  - { offset: 0x7A8D9, size: 0x8, addend: 0x0, symName: __RNvXs1_NtCsieiGu2EXtoJ_4core7convertINtNtCslJiobkLta79_5alloc3vec3VechEINtB5_4IntoBy_E4intoCsdGrGZaRBwMb_3syn, symObjAddr: 0x7580, symBinAddr: 0x39D80, symSize: 0x20 }
  - { offset: 0x7AB70, size: 0x8, addend: 0x0, symName: __RINvNvMs_NtCslJiobkLta79_5alloc3vecINtB7_3VecppE10retain_mut12process_loopNCNvMNtCsdGrGZaRBwMb_3syn9lookaheadNtB1f_10Lookahead15error0ReNtNtB9_5alloc6GlobalKb0_EB1h_, symObjAddr: 0x160, symBinAddr: 0x35040, symSize: 0xB0 }
  - { offset: 0x7ACC4, size: 0x8, addend: 0x0, symName: __RINvNvMs_NtCslJiobkLta79_5alloc3vecINtB7_3VecppE10retain_mut12process_loopNCNvMNtCsdGrGZaRBwMb_3syn9lookaheadNtB1f_10Lookahead15error0ReNtNtB9_5alloc6GlobalKb1_EB1h_, symObjAddr: 0x210, symBinAddr: 0x350F0, symSize: 0x130 }
  - { offset: 0x7AEBA, size: 0x8, addend: 0x0, symName: __RNvXNvMs_NtCslJiobkLta79_5alloc3vecINtB7_3VecppE10retain_mutINtB2_15BackshiftOnDropReNtNtB9_5alloc6GlobalENtNtNtCsieiGu2EXtoJ_4core3ops4drop4Drop4dropCsdGrGZaRBwMb_3syn, symObjAddr: 0x6EE0, symBinAddr: 0x39960, symSize: 0x190 }
  - { offset: 0x7B100, size: 0x8, addend: 0x0, symName: __RNvNvMs_NtCslJiobkLta79_5alloc3vecINtB6_3VecppE17from_raw_parts_in18precondition_checkCsdGrGZaRBwMb_3syn, symObjAddr: 0x5950, symBinAddr: 0x39820, symSize: 0xA0 }
  - { offset: 0x7B16E, size: 0x8, addend: 0x0, symName: __RNvNvMs_NtCslJiobkLta79_5alloc3vecINtB6_3VecppE7set_len18precondition_checkCsdGrGZaRBwMb_3syn, symObjAddr: 0x59F0, symBinAddr: 0x398C0, symSize: 0xA0 }
  - { offset: 0x7B575, size: 0x8, addend: 0x0, symName: __RINvXsh_NtCslJiobkLta79_5alloc3vecINtB6_3VecNtNtCsdGrGZaRBwMb_3syn4attr9AttributeEINtNtNtNtCsieiGu2EXtoJ_4core4iter6traits7collect6ExtendBG_E6extendBw_EBK_, symObjAddr: 0x340, symBinAddr: 0x35220, symSize: 0x40 }
  - { offset: 0x7E8A5, size: 0x8, addend: 0x0, symName: __RNvXs6_NtCslJiobkLta79_5alloc3vecINtB5_3VecNtNtCsdGrGZaRBwMb_3syn4attr9AttributeENtNtNtCsieiGu2EXtoJ_4core3ops5deref5Deref5derefBJ_, symObjAddr: 0x7600, symBinAddr: 0x39DA0, symSize: 0x20 }
  - { offset: 0x7E8E5, size: 0x8, addend: 0x0, symName: __RNvXs6_NtCslJiobkLta79_5alloc3vecINtB5_3VecNtNtCsdGrGZaRBwMb_3syn4expr3ArmENtNtNtCsieiGu2EXtoJ_4core3ops5deref5Deref5derefBJ_, symObjAddr: 0x7620, symBinAddr: 0x39DC0, symSize: 0x20 }
  - { offset: 0x7E925, size: 0x8, addend: 0x0, symName: __RNvXs6_NtCslJiobkLta79_5alloc3vecINtB5_3VecReENtNtNtCsieiGu2EXtoJ_4core3ops5deref5Deref5derefCsdGrGZaRBwMb_3syn, symObjAddr: 0x7660, symBinAddr: 0x39DE0, symSize: 0x20 }
  - { offset: 0x7E965, size: 0x8, addend: 0x0, symName: __RNvXs6_NtCslJiobkLta79_5alloc3vecINtB5_3VecTNtNtCsdGrGZaRBwMb_3syn2ty4TypeNtNtBK_5token5CommaEENtNtNtCsieiGu2EXtoJ_4core3ops5deref5Deref5derefBK_, symObjAddr: 0x7680, symBinAddr: 0x39E00, symSize: 0x20 }
  - { offset: 0x7E9A5, size: 0x8, addend: 0x0, symName: __RNvXs6_NtCslJiobkLta79_5alloc3vecINtB5_3VecTNtNtCsdGrGZaRBwMb_3syn2ty9BareFnArgNtNtBK_5token5CommaEENtNtNtCsieiGu2EXtoJ_4core3ops5deref5Deref5derefBK_, symObjAddr: 0x76A0, symBinAddr: 0x39E20, symSize: 0x20 }
  - { offset: 0x7E9E5, size: 0x8, addend: 0x0, symName: __RNvXs6_NtCslJiobkLta79_5alloc3vecINtB5_3VecTNtNtCsdGrGZaRBwMb_3syn3pat3PatNtNtBK_5token2OrEENtNtNtCsieiGu2EXtoJ_4core3ops5deref5Deref5derefBK_, symObjAddr: 0x76C0, symBinAddr: 0x39E40, symSize: 0x20 }
  - { offset: 0x7EA25, size: 0x8, addend: 0x0, symName: __RNvXs6_NtCslJiobkLta79_5alloc3vecINtB5_3VecTNtNtCsdGrGZaRBwMb_3syn3pat3PatNtNtBK_5token5CommaEENtNtNtCsieiGu2EXtoJ_4core3ops5deref5Deref5derefBK_, symObjAddr: 0x76E0, symBinAddr: 0x39E60, symSize: 0x20 }
  - { offset: 0x7EA65, size: 0x8, addend: 0x0, symName: __RNvXs6_NtCslJiobkLta79_5alloc3vecINtB5_3VecTNtNtCsdGrGZaRBwMb_3syn3pat8FieldPatNtNtBK_5token5CommaEENtNtNtCsieiGu2EXtoJ_4core3ops5deref5Deref5derefBK_, symObjAddr: 0x7700, symBinAddr: 0x39E80, symSize: 0x20 }
  - { offset: 0x7EAA5, size: 0x8, addend: 0x0, symName: __RNvXs6_NtCslJiobkLta79_5alloc3vecINtB5_3VecTNtNtCsdGrGZaRBwMb_3syn4data5FieldNtNtBK_5token5CommaEENtNtNtCsieiGu2EXtoJ_4core3ops5deref5Deref5derefBK_, symObjAddr: 0x7720, symBinAddr: 0x39EA0, symSize: 0x20 }
  - { offset: 0x7EAE5, size: 0x8, addend: 0x0, symName: __RNvXs6_NtCslJiobkLta79_5alloc3vecINtB5_3VecTNtNtCsdGrGZaRBwMb_3syn4data7VariantNtNtBK_5token5CommaEENtNtNtCsieiGu2EXtoJ_4core3ops5deref5Deref5derefBK_, symObjAddr: 0x7740, symBinAddr: 0x39EC0, symSize: 0x20 }
  - { offset: 0x7EB25, size: 0x8, addend: 0x0, symName: __RNvXs6_NtCslJiobkLta79_5alloc3vecINtB5_3VecTNtNtCsdGrGZaRBwMb_3syn4expr10FieldValueNtNtBK_5token5CommaEENtNtNtCsieiGu2EXtoJ_4core3ops5deref5Deref5derefBK_, symObjAddr: 0x7760, symBinAddr: 0x39EE0, symSize: 0x20 }
  - { offset: 0x7EB65, size: 0x8, addend: 0x0, symName: __RNvXs6_NtCslJiobkLta79_5alloc3vecINtB5_3VecTNtNtCsdGrGZaRBwMb_3syn4expr4ExprNtNtBK_5token5CommaEENtNtNtCsieiGu2EXtoJ_4core3ops5deref5Deref5derefBK_, symObjAddr: 0x7780, symBinAddr: 0x39F00, symSize: 0x20 }
  - { offset: 0x7EBA5, size: 0x8, addend: 0x0, symName: __RNvXs6_NtCslJiobkLta79_5alloc3vecINtB5_3VecTNtNtCsdGrGZaRBwMb_3syn4item5FnArgNtNtBK_5token5CommaEENtNtNtCsieiGu2EXtoJ_4core3ops5deref5Deref5derefBK_, symObjAddr: 0x77A0, symBinAddr: 0x39F20, symSize: 0x20 }
  - { offset: 0x7EBE5, size: 0x8, addend: 0x0, symName: __RNvXs6_NtCslJiobkLta79_5alloc3vecINtB5_3VecTNtNtCsdGrGZaRBwMb_3syn4item7UseTreeNtNtBK_5token5CommaEENtNtNtCsieiGu2EXtoJ_4core3ops5deref5Deref5derefBK_, symObjAddr: 0x77C0, symBinAddr: 0x39F40, symSize: 0x20 }
  - { offset: 0x7EC25, size: 0x8, addend: 0x0, symName: __RNvXs6_NtCslJiobkLta79_5alloc3vecINtB5_3VecTNtNtCsdGrGZaRBwMb_3syn4path11PathSegmentNtNtBK_5token7PathSepEENtNtNtCsieiGu2EXtoJ_4core3ops5deref5Deref5derefBK_, symObjAddr: 0x77E0, symBinAddr: 0x39F60, symSize: 0x20 }
  - { offset: 0x7EC65, size: 0x8, addend: 0x0, symName: __RNvXs6_NtCslJiobkLta79_5alloc3vecINtB5_3VecTNtNtCsdGrGZaRBwMb_3syn4path15GenericArgumentNtNtBK_5token5CommaEENtNtNtCsieiGu2EXtoJ_4core3ops5deref5Deref5derefBK_, symObjAddr: 0x7800, symBinAddr: 0x39F80, symSize: 0x20 }
  - { offset: 0x7ECA5, size: 0x8, addend: 0x0, symName: __RNvXs6_NtCslJiobkLta79_5alloc3vecINtB5_3VecTNtNtCsdGrGZaRBwMb_3syn8generics12GenericParamNtNtBK_5token5CommaEENtNtNtCsieiGu2EXtoJ_4core3ops5deref5Deref5derefBK_, symObjAddr: 0x7820, symBinAddr: 0x39FA0, symSize: 0x20 }
  - { offset: 0x7ECE5, size: 0x8, addend: 0x0, symName: __RNvXs6_NtCslJiobkLta79_5alloc3vecINtB5_3VecTNtNtCsdGrGZaRBwMb_3syn8generics13CapturedParamNtNtBK_5token5CommaEENtNtNtCsieiGu2EXtoJ_4core3ops5deref5Deref5derefBK_, symObjAddr: 0x7840, symBinAddr: 0x39FC0, symSize: 0x20 }
  - { offset: 0x7ED25, size: 0x8, addend: 0x0, symName: __RNvXs6_NtCslJiobkLta79_5alloc3vecINtB5_3VecTNtNtCsdGrGZaRBwMb_3syn8generics14TypeParamBoundNtNtBK_5token4PlusEENtNtNtCsieiGu2EXtoJ_4core3ops5deref5Deref5derefBK_, symObjAddr: 0x7860, symBinAddr: 0x39FE0, symSize: 0x20 }
  - { offset: 0x7ED65, size: 0x8, addend: 0x0, symName: __RNvXs6_NtCslJiobkLta79_5alloc3vecINtB5_3VecTNtNtCsdGrGZaRBwMb_3syn8generics14WherePredicateNtNtBK_5token5CommaEENtNtNtCsieiGu2EXtoJ_4core3ops5deref5Deref5derefBK_, symObjAddr: 0x7880, symBinAddr: 0x3A000, symSize: 0x20 }
  - { offset: 0x7EDA5, size: 0x8, addend: 0x0, symName: __RNvXs6_NtCslJiobkLta79_5alloc3vecINtB5_3VecTNtNtCsdGrGZaRBwMb_3syn8lifetime8LifetimeNtNtBK_5token4PlusEENtNtNtCsieiGu2EXtoJ_4core3ops5deref5Deref5derefBK_, symObjAddr: 0x78A0, symBinAddr: 0x3A020, symSize: 0x20 }
  - { offset: 0x7EDE5, size: 0x8, addend: 0x0, symName: __RNvXs6_NtCslJiobkLta79_5alloc3vecINtB5_3VechENtNtNtCsieiGu2EXtoJ_4core3ops5deref5Deref5derefCsdGrGZaRBwMb_3syn, symObjAddr: 0x78C0, symBinAddr: 0x3A040, symSize: 0x20 }
  - { offset: 0x7F0FB, size: 0x8, addend: 0x0, symName: __RNvXsb_NtCslJiobkLta79_5alloc3vecINtB5_3VecNtNtCsdGrGZaRBwMb_3syn5error12ErrorMessageEINtNtNtCsieiGu2EXtoJ_4core3ops5index5IndexjE5indexBJ_, symObjAddr: 0x8800, symBinAddr: 0x3A0A0, symSize: 0x80 }
  - { offset: 0x7F27D, size: 0x8, addend: 0x0, symName: __RNvXsb_NtCslJiobkLta79_5alloc3vecINtB5_3VecReEINtNtNtCsieiGu2EXtoJ_4core3ops5index5IndexjE5indexCsdGrGZaRBwMb_3syn, symObjAddr: 0x8880, symBinAddr: 0x3A120, symSize: 0x80 }
  - { offset: 0x7F3FF, size: 0x8, addend: 0x0, symName: __RNvXsb_NtCslJiobkLta79_5alloc3vecINtB5_3VecTNtNtCsdGrGZaRBwMb_3syn3pat3PatNtNtBK_5token5CommaEEINtNtNtCsieiGu2EXtoJ_4core3ops5index5IndexjE5indexBK_, symObjAddr: 0x8900, symBinAddr: 0x3A1A0, symSize: 0x80 }
  - { offset: 0x7F581, size: 0x8, addend: 0x0, symName: __RNvXsb_NtCslJiobkLta79_5alloc3vecINtB5_3VecTNtNtCsdGrGZaRBwMb_3syn4path11PathSegmentNtNtBK_5token7PathSepEEINtNtNtCsieiGu2EXtoJ_4core3ops5index5IndexjE5indexBK_, symObjAddr: 0x8980, symBinAddr: 0x3A220, symSize: 0x80 }
  - { offset: 0x7F703, size: 0x8, addend: 0x0, symName: __RNvXsb_NtCslJiobkLta79_5alloc3vecINtB5_3VechEINtNtNtCsieiGu2EXtoJ_4core3ops5index5IndexINtNtBM_5range9RangeFromjEE5indexCsdGrGZaRBwMb_3syn, symObjAddr: 0x8A00, symBinAddr: 0x3A2A0, symSize: 0x70 }
  - { offset: 0x7F885, size: 0x8, addend: 0x0, symName: __RNvXsb_NtCslJiobkLta79_5alloc3vecINtB5_3VechEINtNtNtCsieiGu2EXtoJ_4core3ops5index5IndexjE5indexCsdGrGZaRBwMb_3syn, symObjAddr: 0x8A70, symBinAddr: 0x3A310, symSize: 0x70 }
  - { offset: 0x7FBC7, size: 0x8, addend: 0x0, symName: __RNvXs0_NtNtCslJiobkLta79_5alloc3vec11spec_extendINtB7_3VecNtNtCsdGrGZaRBwMb_3syn4attr9AttributeEINtB5_10SpecExtendBU_INtNtB7_9into_iter8IntoIterBU_EE11spec_extendBY_, symObjAddr: 0x7440, symBinAddr: 0x39CF0, symSize: 0x90 }
  - { offset: 0x7FC34, size: 0x8, addend: 0x0, symName: __RNvXs7_NtCslJiobkLta79_5alloc3vecINtB5_3VecTNtNtCsdGrGZaRBwMb_3syn4path11PathSegmentNtNtBK_5token7PathSepEENtNtNtCsieiGu2EXtoJ_4core3ops5deref8DerefMut9deref_mutBK_, symObjAddr: 0x7900, symBinAddr: 0x3A060, symSize: 0x20 }
  - { offset: 0x7FD0A, size: 0x8, addend: 0x0, symName: __RNvXsc_NtCslJiobkLta79_5alloc3vecINtB5_3VecNtNtCsdGrGZaRBwMb_3syn6buffer5EntryEINtNtNtCsieiGu2EXtoJ_4core3ops5index8IndexMutjE9index_mutBJ_, symObjAddr: 0x8AE0, symBinAddr: 0x3A380, symSize: 0x80 }
  - { offset: 0x7FE5E, size: 0x8, addend: 0x0, symName: __RNvXsc_NtCslJiobkLta79_5alloc3vecINtB5_3VechEINtNtNtCsieiGu2EXtoJ_4core3ops5index8IndexMutjE9index_mutCsdGrGZaRBwMb_3syn, symObjAddr: 0x8B60, symBinAddr: 0x3A400, symSize: 0x70 }
  - { offset: 0x7FFB8, size: 0x8, addend: 0x0, symName: __RNvXse_NtCslJiobkLta79_5alloc3vecINtB5_3VecNtNtCsdGrGZaRBwMb_3syn4attr9AttributeENtNtNtNtCsieiGu2EXtoJ_4core4iter6traits7collect12IntoIterator9into_iterBJ_, symObjAddr: 0x8BD0, symBinAddr: 0x3A470, symSize: 0x140 }
  - { offset: 0x80248, size: 0x8, addend: 0x0, symName: __RNvXse_NtCslJiobkLta79_5alloc3vecINtB5_3VecNtNtCsdGrGZaRBwMb_3syn8generics14TypeParamBoundENtNtNtNtCsieiGu2EXtoJ_4core4iter6traits7collect12IntoIterator9into_iterBJ_, symObjAddr: 0x8F90, symBinAddr: 0x3A5B0, symSize: 0x140 }
  - { offset: 0x804D8, size: 0x8, addend: 0x0, symName: __RNvXse_NtCslJiobkLta79_5alloc3vecINtB5_3VecTNtNtCsdGrGZaRBwMb_3syn4path11PathSegmentNtNtBK_5token7PathSepEENtNtNtNtCsieiGu2EXtoJ_4core4iter6traits7collect12IntoIterator9into_iterBK_, symObjAddr: 0x9350, symBinAddr: 0x3A6F0, symSize: 0x140 }
  - { offset: 0x80768, size: 0x8, addend: 0x0, symName: __RNvXse_NtCslJiobkLta79_5alloc3vecINtB5_3VecTNtNtCsdGrGZaRBwMb_3syn8generics14TypeParamBoundNtNtBK_5token4PlusEENtNtNtNtCsieiGu2EXtoJ_4core4iter6traits7collect12IntoIterator9into_iterBK_, symObjAddr: 0x9490, symBinAddr: 0x3A830, symSize: 0x140 }
  - { offset: 0x809FE, size: 0x8, addend: 0x0, symName: __RNvXsf_NtCslJiobkLta79_5alloc3vecRINtB5_3VecNtNtCsdGrGZaRBwMb_3syn4attr9AttributeENtNtNtNtCsieiGu2EXtoJ_4core4iter6traits7collect12IntoIterator9into_iterBK_, symObjAddr: 0x95D0, symBinAddr: 0x3A970, symSize: 0x80 }
  - { offset: 0x80C2B, size: 0x8, addend: 0x0, symName: __RNvXsf_NtCslJiobkLta79_5alloc3vecRINtB5_3VecNtNtCsdGrGZaRBwMb_3syn4item11ForeignItemENtNtNtNtCsieiGu2EXtoJ_4core4iter6traits7collect12IntoIterator9into_iterBK_, symObjAddr: 0x9650, symBinAddr: 0x3A9F0, symSize: 0x80 }
  - { offset: 0x80E58, size: 0x8, addend: 0x0, symName: __RNvXsf_NtCslJiobkLta79_5alloc3vecRINtB5_3VecNtNtCsdGrGZaRBwMb_3syn4item4ItemENtNtNtNtCsieiGu2EXtoJ_4core4iter6traits7collect12IntoIterator9into_iterBK_, symObjAddr: 0x96D0, symBinAddr: 0x3AA70, symSize: 0x80 }
  - { offset: 0x81085, size: 0x8, addend: 0x0, symName: __RNvXsf_NtCslJiobkLta79_5alloc3vecRINtB5_3VecNtNtCsdGrGZaRBwMb_3syn4item8ImplItemENtNtNtNtCsieiGu2EXtoJ_4core4iter6traits7collect12IntoIterator9into_iterBK_, symObjAddr: 0x9750, symBinAddr: 0x3AAF0, symSize: 0x80 }
  - { offset: 0x812B2, size: 0x8, addend: 0x0, symName: __RNvXsf_NtCslJiobkLta79_5alloc3vecRINtB5_3VecNtNtCsdGrGZaRBwMb_3syn4item9TraitItemENtNtNtNtCsieiGu2EXtoJ_4core4iter6traits7collect12IntoIterator9into_iterBK_, symObjAddr: 0x97D0, symBinAddr: 0x3AB70, symSize: 0x80 }
  - { offset: 0x814DF, size: 0x8, addend: 0x0, symName: __RNvXsf_NtCslJiobkLta79_5alloc3vecRINtB5_3VecNtNtCsdGrGZaRBwMb_3syn4stmt4StmtENtNtNtNtCsieiGu2EXtoJ_4core4iter6traits7collect12IntoIterator9into_iterBK_, symObjAddr: 0x9850, symBinAddr: 0x3ABF0, symSize: 0x80 }
  - { offset: 0x8170C, size: 0x8, addend: 0x0, symName: __RNvXsf_NtCslJiobkLta79_5alloc3vecRINtB5_3VecNtNtCsdGrGZaRBwMb_3syn5error12ErrorMessageENtNtNtNtCsieiGu2EXtoJ_4core4iter6traits7collect12IntoIterator9into_iterBK_, symObjAddr: 0x98D0, symBinAddr: 0x3AC70, symSize: 0x80 }
  - { offset: 0x8193F, size: 0x8, addend: 0x0, symName: __RNvXsg_NtCslJiobkLta79_5alloc3vecQINtB5_3VechENtNtNtNtCsieiGu2EXtoJ_4core4iter6traits7collect12IntoIterator9into_iterCsdGrGZaRBwMb_3syn, symObjAddr: 0xA250, symBinAddr: 0x3ACF0, symSize: 0x80 }
  - { offset: 0x81B66, size: 0x8, addend: 0x0, symName: __RNvXsn_NtCslJiobkLta79_5alloc3vecINtB5_3VecNtNtCsdGrGZaRBwMb_3syn4attr9AttributeENtNtNtCsieiGu2EXtoJ_4core3ops4drop4Drop4dropBJ_, symObjAddr: 0xA2D0, symBinAddr: 0x3AD70, symSize: 0x30 }
  - { offset: 0x81C16, size: 0x8, addend: 0x0, symName: __RNvXsn_NtCslJiobkLta79_5alloc3vecINtB5_3VecNtNtCsdGrGZaRBwMb_3syn4expr3ArmENtNtNtCsieiGu2EXtoJ_4core3ops4drop4Drop4dropBJ_, symObjAddr: 0xA330, symBinAddr: 0x3ADA0, symSize: 0x30 }
  - { offset: 0x81CC6, size: 0x8, addend: 0x0, symName: __RNvXsn_NtCslJiobkLta79_5alloc3vecINtB5_3VecNtNtCsdGrGZaRBwMb_3syn4expr6ExprIfENtNtNtCsieiGu2EXtoJ_4core3ops4drop4Drop4dropBJ_, symObjAddr: 0xA360, symBinAddr: 0x3ADD0, symSize: 0x30 }
  - { offset: 0x81D76, size: 0x8, addend: 0x0, symName: __RNvXsn_NtCslJiobkLta79_5alloc3vecINtB5_3VecNtNtCsdGrGZaRBwMb_3syn4item11ForeignItemENtNtNtCsieiGu2EXtoJ_4core3ops4drop4Drop4dropBJ_, symObjAddr: 0xA390, symBinAddr: 0x3AE00, symSize: 0x30 }
  - { offset: 0x81E26, size: 0x8, addend: 0x0, symName: __RNvXsn_NtCslJiobkLta79_5alloc3vecINtB5_3VecNtNtCsdGrGZaRBwMb_3syn4item4ItemENtNtNtCsieiGu2EXtoJ_4core3ops4drop4Drop4dropBJ_, symObjAddr: 0xA3C0, symBinAddr: 0x3AE30, symSize: 0x30 }
  - { offset: 0x81ED6, size: 0x8, addend: 0x0, symName: __RNvXsn_NtCslJiobkLta79_5alloc3vecINtB5_3VecNtNtCsdGrGZaRBwMb_3syn4item8ImplItemENtNtNtCsieiGu2EXtoJ_4core3ops4drop4Drop4dropBJ_, symObjAddr: 0xA3F0, symBinAddr: 0x3AE60, symSize: 0x30 }
  - { offset: 0x81F86, size: 0x8, addend: 0x0, symName: __RNvXsn_NtCslJiobkLta79_5alloc3vecINtB5_3VecNtNtCsdGrGZaRBwMb_3syn4item9TraitItemENtNtNtCsieiGu2EXtoJ_4core3ops4drop4Drop4dropBJ_, symObjAddr: 0xA420, symBinAddr: 0x3AE90, symSize: 0x30 }
  - { offset: 0x82036, size: 0x8, addend: 0x0, symName: __RNvXsn_NtCslJiobkLta79_5alloc3vecINtB5_3VecNtNtCsdGrGZaRBwMb_3syn4stmt4StmtENtNtNtCsieiGu2EXtoJ_4core3ops4drop4Drop4dropBJ_, symObjAddr: 0xA450, symBinAddr: 0x3AEC0, symSize: 0x30 }
  - { offset: 0x820E6, size: 0x8, addend: 0x0, symName: __RNvXsn_NtCslJiobkLta79_5alloc3vecINtB5_3VecNtNtCsdGrGZaRBwMb_3syn5error12ErrorMessageENtNtNtCsieiGu2EXtoJ_4core3ops4drop4Drop4dropBJ_, symObjAddr: 0xA480, symBinAddr: 0x3AEF0, symSize: 0x30 }
  - { offset: 0x82196, size: 0x8, addend: 0x0, symName: __RNvXsn_NtCslJiobkLta79_5alloc3vecINtB5_3VecNtNtCsdGrGZaRBwMb_3syn6buffer5EntryENtNtNtCsieiGu2EXtoJ_4core3ops4drop4Drop4dropBJ_, symObjAddr: 0xA4B0, symBinAddr: 0x3AF20, symSize: 0x30 }
  - { offset: 0x82246, size: 0x8, addend: 0x0, symName: __RNvXsn_NtCslJiobkLta79_5alloc3vecINtB5_3VecNtNtCsdGrGZaRBwMb_3syn8generics14TypeParamBoundENtNtNtCsieiGu2EXtoJ_4core3ops4drop4Drop4dropBJ_, symObjAddr: 0xA4E0, symBinAddr: 0x3AF50, symSize: 0x30 }
  - { offset: 0x822F6, size: 0x8, addend: 0x0, symName: __RNvXsn_NtCslJiobkLta79_5alloc3vecINtB5_3VecReENtNtNtCsieiGu2EXtoJ_4core3ops4drop4Drop4dropCsdGrGZaRBwMb_3syn, symObjAddr: 0xA510, symBinAddr: 0x3AF80, symSize: 0x20 }
  - { offset: 0x823A6, size: 0x8, addend: 0x0, symName: __RNvXsn_NtCslJiobkLta79_5alloc3vecINtB5_3VecTNtNtCsdGrGZaRBwMb_3syn2ty4TypeNtNtBK_5token5CommaEENtNtNtCsieiGu2EXtoJ_4core3ops4drop4Drop4dropBK_, symObjAddr: 0xA530, symBinAddr: 0x3AFA0, symSize: 0x30 }
  - { offset: 0x82456, size: 0x8, addend: 0x0, symName: __RNvXsn_NtCslJiobkLta79_5alloc3vecINtB5_3VecTNtNtCsdGrGZaRBwMb_3syn2ty9BareFnArgNtNtBK_5token5CommaEENtNtNtCsieiGu2EXtoJ_4core3ops4drop4Drop4dropBK_, symObjAddr: 0xA560, symBinAddr: 0x3AFD0, symSize: 0x30 }
  - { offset: 0x82506, size: 0x8, addend: 0x0, symName: __RNvXsn_NtCslJiobkLta79_5alloc3vecINtB5_3VecTNtNtCsdGrGZaRBwMb_3syn3pat3PatNtNtBK_5token2OrEENtNtNtCsieiGu2EXtoJ_4core3ops4drop4Drop4dropBK_, symObjAddr: 0xA590, symBinAddr: 0x3B000, symSize: 0x30 }
  - { offset: 0x825B6, size: 0x8, addend: 0x0, symName: __RNvXsn_NtCslJiobkLta79_5alloc3vecINtB5_3VecTNtNtCsdGrGZaRBwMb_3syn3pat3PatNtNtBK_5token5CommaEENtNtNtCsieiGu2EXtoJ_4core3ops4drop4Drop4dropBK_, symObjAddr: 0xA5C0, symBinAddr: 0x3B030, symSize: 0x30 }
  - { offset: 0x82666, size: 0x8, addend: 0x0, symName: __RNvXsn_NtCslJiobkLta79_5alloc3vecINtB5_3VecTNtNtCsdGrGZaRBwMb_3syn3pat8FieldPatNtNtBK_5token5CommaEENtNtNtCsieiGu2EXtoJ_4core3ops4drop4Drop4dropBK_, symObjAddr: 0xA5F0, symBinAddr: 0x3B060, symSize: 0x30 }
  - { offset: 0x82716, size: 0x8, addend: 0x0, symName: __RNvXsn_NtCslJiobkLta79_5alloc3vecINtB5_3VecTNtNtCsdGrGZaRBwMb_3syn4data5FieldNtNtBK_5token5CommaEENtNtNtCsieiGu2EXtoJ_4core3ops4drop4Drop4dropBK_, symObjAddr: 0xA620, symBinAddr: 0x3B090, symSize: 0x30 }
  - { offset: 0x827C6, size: 0x8, addend: 0x0, symName: __RNvXsn_NtCslJiobkLta79_5alloc3vecINtB5_3VecTNtNtCsdGrGZaRBwMb_3syn4data7VariantNtNtBK_5token5CommaEENtNtNtCsieiGu2EXtoJ_4core3ops4drop4Drop4dropBK_, symObjAddr: 0xA680, symBinAddr: 0x3B0C0, symSize: 0x30 }
  - { offset: 0x82876, size: 0x8, addend: 0x0, symName: __RNvXsn_NtCslJiobkLta79_5alloc3vecINtB5_3VecTNtNtCsdGrGZaRBwMb_3syn4expr10FieldValueNtNtBK_5token5CommaEENtNtNtCsieiGu2EXtoJ_4core3ops4drop4Drop4dropBK_, symObjAddr: 0xA6B0, symBinAddr: 0x3B0F0, symSize: 0x30 }
  - { offset: 0x82926, size: 0x8, addend: 0x0, symName: __RNvXsn_NtCslJiobkLta79_5alloc3vecINtB5_3VecTNtNtCsdGrGZaRBwMb_3syn4expr4ExprNtNtBK_5token5CommaEENtNtNtCsieiGu2EXtoJ_4core3ops4drop4Drop4dropBK_, symObjAddr: 0xA6E0, symBinAddr: 0x3B120, symSize: 0x30 }
  - { offset: 0x829D6, size: 0x8, addend: 0x0, symName: __RNvXsn_NtCslJiobkLta79_5alloc3vecINtB5_3VecTNtNtCsdGrGZaRBwMb_3syn4item5FnArgNtNtBK_5token5CommaEENtNtNtCsieiGu2EXtoJ_4core3ops4drop4Drop4dropBK_, symObjAddr: 0xA710, symBinAddr: 0x3B150, symSize: 0x30 }
  - { offset: 0x82A86, size: 0x8, addend: 0x0, symName: __RNvXsn_NtCslJiobkLta79_5alloc3vecINtB5_3VecTNtNtCsdGrGZaRBwMb_3syn4item7UseTreeNtNtBK_5token5CommaEENtNtNtCsieiGu2EXtoJ_4core3ops4drop4Drop4dropBK_, symObjAddr: 0xA740, symBinAddr: 0x3B180, symSize: 0x30 }
  - { offset: 0x82B36, size: 0x8, addend: 0x0, symName: __RNvXsn_NtCslJiobkLta79_5alloc3vecINtB5_3VecTNtNtCsdGrGZaRBwMb_3syn4path11PathSegmentNtNtBK_5token7PathSepEENtNtNtCsieiGu2EXtoJ_4core3ops4drop4Drop4dropBK_, symObjAddr: 0xA770, symBinAddr: 0x3B1B0, symSize: 0x30 }
  - { offset: 0x82BE6, size: 0x8, addend: 0x0, symName: __RNvXsn_NtCslJiobkLta79_5alloc3vecINtB5_3VecTNtNtCsdGrGZaRBwMb_3syn4path15GenericArgumentNtNtBK_5token5CommaEENtNtNtCsieiGu2EXtoJ_4core3ops4drop4Drop4dropBK_, symObjAddr: 0xA7A0, symBinAddr: 0x3B1E0, symSize: 0x30 }
  - { offset: 0x82C96, size: 0x8, addend: 0x0, symName: __RNvXsn_NtCslJiobkLta79_5alloc3vecINtB5_3VecTNtNtCsdGrGZaRBwMb_3syn8generics12GenericParamNtNtBK_5token5CommaEENtNtNtCsieiGu2EXtoJ_4core3ops4drop4Drop4dropBK_, symObjAddr: 0xA7D0, symBinAddr: 0x3B210, symSize: 0x30 }
  - { offset: 0x82D46, size: 0x8, addend: 0x0, symName: __RNvXsn_NtCslJiobkLta79_5alloc3vecINtB5_3VecTNtNtCsdGrGZaRBwMb_3syn8generics13CapturedParamNtNtBK_5token5CommaEENtNtNtCsieiGu2EXtoJ_4core3ops4drop4Drop4dropBK_, symObjAddr: 0xA800, symBinAddr: 0x3B240, symSize: 0x30 }
  - { offset: 0x82DF6, size: 0x8, addend: 0x0, symName: __RNvXsn_NtCslJiobkLta79_5alloc3vecINtB5_3VecTNtNtCsdGrGZaRBwMb_3syn8generics14TypeParamBoundNtNtBK_5token4PlusEENtNtNtCsieiGu2EXtoJ_4core3ops4drop4Drop4dropBK_, symObjAddr: 0xA830, symBinAddr: 0x3B270, symSize: 0x30 }
  - { offset: 0x82EA6, size: 0x8, addend: 0x0, symName: __RNvXsn_NtCslJiobkLta79_5alloc3vecINtB5_3VecTNtNtCsdGrGZaRBwMb_3syn8generics14WherePredicateNtNtBK_5token5CommaEENtNtNtCsieiGu2EXtoJ_4core3ops4drop4Drop4dropBK_, symObjAddr: 0xA860, symBinAddr: 0x3B2A0, symSize: 0x30 }
  - { offset: 0x82F56, size: 0x8, addend: 0x0, symName: __RNvXsn_NtCslJiobkLta79_5alloc3vecINtB5_3VecTNtNtCsdGrGZaRBwMb_3syn8lifetime8LifetimeNtNtBK_5token4PlusEENtNtNtCsieiGu2EXtoJ_4core3ops4drop4Drop4dropBK_, symObjAddr: 0xA890, symBinAddr: 0x3B2D0, symSize: 0x30 }
  - { offset: 0x8300C, size: 0x8, addend: 0x0, symName: __RNvXsp_NtCslJiobkLta79_5alloc3vecINtB5_3VecNtNtCsdGrGZaRBwMb_3syn5error12ErrorMessageENtNtCsieiGu2EXtoJ_4core3fmt5Debug3fmtBJ_, symObjAddr: 0xABD0, symBinAddr: 0x3B300, symSize: 0x70 }
  - { offset: 0x8311C, size: 0x8, addend: 0x0, symName: __RNvXsp_NtCslJiobkLta79_5alloc3vecINtB5_3VechENtNtCsieiGu2EXtoJ_4core3fmt5Debug3fmtCsdGrGZaRBwMb_3syn, symObjAddr: 0xAC40, symBinAddr: 0x3B370, symSize: 0x70 }
  - { offset: 0x855AF, size: 0x8, addend: 0x0, symName: __RNvXsR_NtCslJiobkLta79_5alloc6stringINtNtB7_3vec3VechEINtNtCsieiGu2EXtoJ_4core7convert4FromNtB5_6StringE4fromCsdGrGZaRBwMb_3syn, symObjAddr: 0x87E0, symBinAddr: 0x3A080, symSize: 0x20 }
  - { offset: 0x857F1, size: 0x8, addend: 0x0, symName: __RNvXNvMs_NtNtCslJiobkLta79_5alloc3ffi5c_strNtB7_7CString3newINtNtBb_3vec3VechENtB2_11SpecNewImpl13spec_new_implCsdGrGZaRBwMb_3syn, symObjAddr: 0x7070, symBinAddr: 0x39AF0, symSize: 0x200 }
  - { offset: 0x8A8FF, size: 0x8, addend: 0x0, symName: __RINvMs_NtCslJiobkLta79_5alloc3vecINtB5_3VecReE10retain_mutNCNvMNtCsdGrGZaRBwMb_3syn9lookaheadNtBZ_10Lookahead15error0EB11_, symObjAddr: 0x0, symBinAddr: 0x34EE0, symSize: 0x160 }
  - { offset: 0x8B05E, size: 0x8, addend: 0x0, symName: __RNvMNtCslJiobkLta79_5alloc3vecINtB2_3VecNtNtCsdGrGZaRBwMb_3syn4attr9AttributeE3newBG_, symObjAddr: 0x3C0, symBinAddr: 0x35260, symSize: 0x30 }
  - { offset: 0x8B0A6, size: 0x8, addend: 0x0, symName: __RNvMNtCslJiobkLta79_5alloc3vecINtB2_3VecNtNtCsdGrGZaRBwMb_3syn4expr3ArmE3newBG_, symObjAddr: 0x450, symBinAddr: 0x35290, symSize: 0x30 }
  - { offset: 0x8B0C3, size: 0x8, addend: 0x0, symName: __RNvMNtCslJiobkLta79_5alloc3vecINtB2_3VecNtNtCsdGrGZaRBwMb_3syn4expr6ExprIfE3newBG_, symObjAddr: 0x480, symBinAddr: 0x352C0, symSize: 0x30 }
  - { offset: 0x8B0E0, size: 0x8, addend: 0x0, symName: __RNvMNtCslJiobkLta79_5alloc3vecINtB2_3VecNtNtCsdGrGZaRBwMb_3syn4item11ForeignItemE3newBG_, symObjAddr: 0x4B0, symBinAddr: 0x352F0, symSize: 0x30 }
  - { offset: 0x8B0FD, size: 0x8, addend: 0x0, symName: __RNvMNtCslJiobkLta79_5alloc3vecINtB2_3VecNtNtCsdGrGZaRBwMb_3syn4item4ItemE3newBG_, symObjAddr: 0x4E0, symBinAddr: 0x35320, symSize: 0x30 }
  - { offset: 0x8B11A, size: 0x8, addend: 0x0, symName: __RNvMNtCslJiobkLta79_5alloc3vecINtB2_3VecNtNtCsdGrGZaRBwMb_3syn4item8ImplItemE3newBG_, symObjAddr: 0x510, symBinAddr: 0x35350, symSize: 0x30 }
  - { offset: 0x8B137, size: 0x8, addend: 0x0, symName: __RNvMNtCslJiobkLta79_5alloc3vecINtB2_3VecNtNtCsdGrGZaRBwMb_3syn4item9TraitItemE3newBG_, symObjAddr: 0x540, symBinAddr: 0x35380, symSize: 0x30 }
  - { offset: 0x8B154, size: 0x8, addend: 0x0, symName: __RNvMNtCslJiobkLta79_5alloc3vecINtB2_3VecNtNtCsdGrGZaRBwMb_3syn4stmt4StmtE3newBG_, symObjAddr: 0x570, symBinAddr: 0x353B0, symSize: 0x30 }
  - { offset: 0x8B171, size: 0x8, addend: 0x0, symName: __RNvMNtCslJiobkLta79_5alloc3vecINtB2_3VecNtNtCsdGrGZaRBwMb_3syn6buffer5EntryE3newBG_, symObjAddr: 0x5A0, symBinAddr: 0x353E0, symSize: 0x30 }
  - { offset: 0x8B1F0, size: 0x8, addend: 0x0, symName: __RNvMNtCslJiobkLta79_5alloc3vecINtB2_3VecNtNtCsdGrGZaRBwMb_3syn8generics14TypeParamBoundE13with_capacityBG_, symObjAddr: 0x5D0, symBinAddr: 0x35410, symSize: 0x60 }
  - { offset: 0x8B268, size: 0x8, addend: 0x0, symName: __RNvMNtCslJiobkLta79_5alloc3vecINtB2_3VecReE3newCsdGrGZaRBwMb_3syn, symObjAddr: 0x630, symBinAddr: 0x35470, symSize: 0x30 }
  - { offset: 0x8B285, size: 0x8, addend: 0x0, symName: __RNvMNtCslJiobkLta79_5alloc3vecINtB2_3VecTNtNtCsdGrGZaRBwMb_3syn2ty4TypeNtNtBH_5token5CommaEE3newBH_, symObjAddr: 0x660, symBinAddr: 0x354A0, symSize: 0x30 }
  - { offset: 0x8B2A2, size: 0x8, addend: 0x0, symName: __RNvMNtCslJiobkLta79_5alloc3vecINtB2_3VecTNtNtCsdGrGZaRBwMb_3syn2ty9BareFnArgNtNtBH_5token5CommaEE3newBH_, symObjAddr: 0x690, symBinAddr: 0x354D0, symSize: 0x30 }
  - { offset: 0x8B2BF, size: 0x8, addend: 0x0, symName: __RNvMNtCslJiobkLta79_5alloc3vecINtB2_3VecTNtNtCsdGrGZaRBwMb_3syn3pat3PatNtNtBH_5token2OrEE3newBH_, symObjAddr: 0x6C0, symBinAddr: 0x35500, symSize: 0x30 }
  - { offset: 0x8B2DC, size: 0x8, addend: 0x0, symName: __RNvMNtCslJiobkLta79_5alloc3vecINtB2_3VecTNtNtCsdGrGZaRBwMb_3syn3pat3PatNtNtBH_5token5CommaEE3newBH_, symObjAddr: 0x6F0, symBinAddr: 0x35530, symSize: 0x30 }
  - { offset: 0x8B2F9, size: 0x8, addend: 0x0, symName: __RNvMNtCslJiobkLta79_5alloc3vecINtB2_3VecTNtNtCsdGrGZaRBwMb_3syn3pat8FieldPatNtNtBH_5token5CommaEE3newBH_, symObjAddr: 0x720, symBinAddr: 0x35560, symSize: 0x30 }
  - { offset: 0x8B316, size: 0x8, addend: 0x0, symName: __RNvMNtCslJiobkLta79_5alloc3vecINtB2_3VecTNtNtCsdGrGZaRBwMb_3syn4data5FieldNtNtBH_5token5CommaEE3newBH_, symObjAddr: 0x750, symBinAddr: 0x35590, symSize: 0x30 }
  - { offset: 0x8B353, size: 0x8, addend: 0x0, symName: __RNvMNtCslJiobkLta79_5alloc3vecINtB2_3VecTNtNtCsdGrGZaRBwMb_3syn4data7VariantNtNtBH_5token5CommaEE3newBH_, symObjAddr: 0x7B0, symBinAddr: 0x355C0, symSize: 0x30 }
  - { offset: 0x8B370, size: 0x8, addend: 0x0, symName: __RNvMNtCslJiobkLta79_5alloc3vecINtB2_3VecTNtNtCsdGrGZaRBwMb_3syn4expr10FieldValueNtNtBH_5token5CommaEE3newBH_, symObjAddr: 0x7E0, symBinAddr: 0x355F0, symSize: 0x30 }
  - { offset: 0x8B38D, size: 0x8, addend: 0x0, symName: __RNvMNtCslJiobkLta79_5alloc3vecINtB2_3VecTNtNtCsdGrGZaRBwMb_3syn4expr4ExprNtNtBH_5token5CommaEE3newBH_, symObjAddr: 0x810, symBinAddr: 0x35620, symSize: 0x30 }
  - { offset: 0x8B3AA, size: 0x8, addend: 0x0, symName: __RNvMNtCslJiobkLta79_5alloc3vecINtB2_3VecTNtNtCsdGrGZaRBwMb_3syn4item5FnArgNtNtBH_5token5CommaEE3newBH_, symObjAddr: 0x840, symBinAddr: 0x35650, symSize: 0x30 }
  - { offset: 0x8B3C7, size: 0x8, addend: 0x0, symName: __RNvMNtCslJiobkLta79_5alloc3vecINtB2_3VecTNtNtCsdGrGZaRBwMb_3syn4item7UseTreeNtNtBH_5token5CommaEE3newBH_, symObjAddr: 0x870, symBinAddr: 0x35680, symSize: 0x30 }
  - { offset: 0x8B3E4, size: 0x8, addend: 0x0, symName: __RNvMNtCslJiobkLta79_5alloc3vecINtB2_3VecTNtNtCsdGrGZaRBwMb_3syn4path11PathSegmentNtNtBH_5token7PathSepEE3newBH_, symObjAddr: 0x8A0, symBinAddr: 0x356B0, symSize: 0x30 }
  - { offset: 0x8B401, size: 0x8, addend: 0x0, symName: __RNvMNtCslJiobkLta79_5alloc3vecINtB2_3VecTNtNtCsdGrGZaRBwMb_3syn4path15GenericArgumentNtNtBH_5token5CommaEE3newBH_, symObjAddr: 0x8D0, symBinAddr: 0x356E0, symSize: 0x30 }
  - { offset: 0x8B41E, size: 0x8, addend: 0x0, symName: __RNvMNtCslJiobkLta79_5alloc3vecINtB2_3VecTNtNtCsdGrGZaRBwMb_3syn8generics12GenericParamNtNtBH_5token5CommaEE3newBH_, symObjAddr: 0x900, symBinAddr: 0x35710, symSize: 0x30 }
  - { offset: 0x8B43B, size: 0x8, addend: 0x0, symName: __RNvMNtCslJiobkLta79_5alloc3vecINtB2_3VecTNtNtCsdGrGZaRBwMb_3syn8generics13CapturedParamNtNtBH_5token5CommaEE3newBH_, symObjAddr: 0x930, symBinAddr: 0x35740, symSize: 0x30 }
  - { offset: 0x8B458, size: 0x8, addend: 0x0, symName: __RNvMNtCslJiobkLta79_5alloc3vecINtB2_3VecTNtNtCsdGrGZaRBwMb_3syn8generics14TypeParamBoundNtNtBH_5token4PlusEE3newBH_, symObjAddr: 0x960, symBinAddr: 0x35770, symSize: 0x30 }
  - { offset: 0x8B475, size: 0x8, addend: 0x0, symName: __RNvMNtCslJiobkLta79_5alloc3vecINtB2_3VecTNtNtCsdGrGZaRBwMb_3syn8generics14WherePredicateNtNtBH_5token5CommaEE3newBH_, symObjAddr: 0x990, symBinAddr: 0x357A0, symSize: 0x30 }
  - { offset: 0x8B492, size: 0x8, addend: 0x0, symName: __RNvMNtCslJiobkLta79_5alloc3vecINtB2_3VecTNtNtCsdGrGZaRBwMb_3syn8lifetime8LifetimeNtNtBH_5token4PlusEE3newBH_, symObjAddr: 0x9C0, symBinAddr: 0x357D0, symSize: 0x30 }
  - { offset: 0x8B4AF, size: 0x8, addend: 0x0, symName: __RNvMNtCslJiobkLta79_5alloc3vecINtB2_3VechE3newCsdGrGZaRBwMb_3syn, symObjAddr: 0x9F0, symBinAddr: 0x35800, symSize: 0x30 }
  - { offset: 0x8B5D2, size: 0x8, addend: 0x0, symName: __RNvMs0_NtCslJiobkLta79_5alloc3vecINtB5_3VechE17extend_from_sliceCsdGrGZaRBwMb_3syn, symObjAddr: 0xA20, symBinAddr: 0x35830, symSize: 0x70 }
  - { offset: 0x8B849, size: 0x8, addend: 0x0, symName: __RNvMs0_NtCslJiobkLta79_5alloc3vecINtB5_3VechE6resizeCsdGrGZaRBwMb_3syn, symObjAddr: 0xA90, symBinAddr: 0x358A0, symSize: 0xE0 }
  - { offset: 0x8BB10, size: 0x8, addend: 0x0, symName: __RNvMs2_NtCslJiobkLta79_5alloc3vecINtB5_3VechE11extend_withCsdGrGZaRBwMb_3syn, symObjAddr: 0xB70, symBinAddr: 0x35980, symSize: 0x280 }
  - { offset: 0x8BF01, size: 0x8, addend: 0x0, symName: __RNvMs_NtCslJiobkLta79_5alloc3vecINtB4_3VecNtNtCsdGrGZaRBwMb_3syn4attr9AttributeE15append_elementsBI_, symObjAddr: 0xDF0, symBinAddr: 0x35C00, symSize: 0xC0 }
  - { offset: 0x8C0A3, size: 0x8, addend: 0x0, symName: __RNvMs_NtCslJiobkLta79_5alloc3vecINtB4_3VecNtNtCsdGrGZaRBwMb_3syn4attr9AttributeE4pushBI_, symObjAddr: 0xEB0, symBinAddr: 0x35CC0, symSize: 0x20 }
  - { offset: 0x8C251, size: 0x8, addend: 0x0, symName: __RNvMs_NtCslJiobkLta79_5alloc3vecINtB4_3VecNtNtCsdGrGZaRBwMb_3syn4attr9AttributeE6appendBI_, symObjAddr: 0xED0, symBinAddr: 0x35CE0, symSize: 0xC0 }
  - { offset: 0x8C51C, size: 0x8, addend: 0x0, symName: __RNvMs_NtCslJiobkLta79_5alloc3vecINtB4_3VecNtNtCsdGrGZaRBwMb_3syn4attr9AttributeE7reserveBI_, symObjAddr: 0xF90, symBinAddr: 0x35DA0, symSize: 0xB0 }
  - { offset: 0x8C6F9, size: 0x8, addend: 0x0, symName: __RNvMs_NtCslJiobkLta79_5alloc3vecINtB4_3VecNtNtCsdGrGZaRBwMb_3syn4attr9AttributeE8as_sliceBI_, symObjAddr: 0x10B0, symBinAddr: 0x35E50, symSize: 0x50 }
  - { offset: 0x8C7D8, size: 0x8, addend: 0x0, symName: __RNvMs_NtCslJiobkLta79_5alloc3vecINtB4_3VecNtNtCsdGrGZaRBwMb_3syn4attr9AttributeE8is_emptyBI_, symObjAddr: 0x1100, symBinAddr: 0x35EA0, symSize: 0x20 }
  - { offset: 0x8C917, size: 0x8, addend: 0x0, symName: __RNvMs_NtCslJiobkLta79_5alloc3vecINtB4_3VecNtNtCsdGrGZaRBwMb_3syn4attr9AttributeE8push_mutBI_, symObjAddr: 0x1120, symBinAddr: 0x35EC0, symSize: 0x130 }
  - { offset: 0x8CAF3, size: 0x8, addend: 0x0, symName: __RNvMs_NtCslJiobkLta79_5alloc3vecINtB4_3VecNtNtCsdGrGZaRBwMb_3syn4expr3ArmE3lenBI_, symObjAddr: 0x13B0, symBinAddr: 0x35FF0, symSize: 0x10 }
  - { offset: 0x8CB35, size: 0x8, addend: 0x0, symName: __RNvMs_NtCslJiobkLta79_5alloc3vecINtB4_3VecNtNtCsdGrGZaRBwMb_3syn4expr3ArmE4pushBI_, symObjAddr: 0x13C0, symBinAddr: 0x36000, symSize: 0x20 }
  - { offset: 0x8CC38, size: 0x8, addend: 0x0, symName: __RNvMs_NtCslJiobkLta79_5alloc3vecINtB4_3VecNtNtCsdGrGZaRBwMb_3syn4expr3ArmE8as_sliceBI_, symObjAddr: 0x1450, symBinAddr: 0x36020, symSize: 0x50 }
  - { offset: 0x8CDDE, size: 0x8, addend: 0x0, symName: __RNvMs_NtCslJiobkLta79_5alloc3vecINtB4_3VecNtNtCsdGrGZaRBwMb_3syn4expr3ArmE8push_mutBI_, symObjAddr: 0x14A0, symBinAddr: 0x36070, symSize: 0x140 }
  - { offset: 0x8D0ED, size: 0x8, addend: 0x0, symName: __RNvMs_NtCslJiobkLta79_5alloc3vecINtB4_3VecNtNtCsdGrGZaRBwMb_3syn4expr6ExprIfE3popBI_, symObjAddr: 0x15E0, symBinAddr: 0x361B0, symSize: 0x120 }
  - { offset: 0x8D282, size: 0x8, addend: 0x0, symName: __RNvMs_NtCslJiobkLta79_5alloc3vecINtB4_3VecNtNtCsdGrGZaRBwMb_3syn4expr6ExprIfE4pushBI_, symObjAddr: 0x1700, symBinAddr: 0x362D0, symSize: 0x20 }
  - { offset: 0x8D3B3, size: 0x8, addend: 0x0, symName: __RNvMs_NtCslJiobkLta79_5alloc3vecINtB4_3VecNtNtCsdGrGZaRBwMb_3syn4expr6ExprIfE8push_mutBI_, symObjAddr: 0x1720, symBinAddr: 0x362F0, symSize: 0x130 }
  - { offset: 0x8D575, size: 0x8, addend: 0x0, symName: __RNvMs_NtCslJiobkLta79_5alloc3vecINtB4_3VecNtNtCsdGrGZaRBwMb_3syn4item11ForeignItemE4pushBI_, symObjAddr: 0x1850, symBinAddr: 0x36420, symSize: 0x20 }
  - { offset: 0x8D6DA, size: 0x8, addend: 0x0, symName: __RNvMs_NtCslJiobkLta79_5alloc3vecINtB4_3VecNtNtCsdGrGZaRBwMb_3syn4item11ForeignItemE8push_mutBI_, symObjAddr: 0x18E0, symBinAddr: 0x36440, symSize: 0x140 }
  - { offset: 0x8D89C, size: 0x8, addend: 0x0, symName: __RNvMs_NtCslJiobkLta79_5alloc3vecINtB4_3VecNtNtCsdGrGZaRBwMb_3syn4item4ItemE4pushBI_, symObjAddr: 0x1A20, symBinAddr: 0x36580, symSize: 0x20 }
  - { offset: 0x8DA01, size: 0x8, addend: 0x0, symName: __RNvMs_NtCslJiobkLta79_5alloc3vecINtB4_3VecNtNtCsdGrGZaRBwMb_3syn4item4ItemE8push_mutBI_, symObjAddr: 0x1AB0, symBinAddr: 0x365A0, symSize: 0x140 }
  - { offset: 0x8DBC3, size: 0x8, addend: 0x0, symName: __RNvMs_NtCslJiobkLta79_5alloc3vecINtB4_3VecNtNtCsdGrGZaRBwMb_3syn4item8ImplItemE4pushBI_, symObjAddr: 0x1BF0, symBinAddr: 0x366E0, symSize: 0x20 }
  - { offset: 0x8DD28, size: 0x8, addend: 0x0, symName: __RNvMs_NtCslJiobkLta79_5alloc3vecINtB4_3VecNtNtCsdGrGZaRBwMb_3syn4item8ImplItemE8push_mutBI_, symObjAddr: 0x1C80, symBinAddr: 0x36700, symSize: 0x140 }
  - { offset: 0x8DEEA, size: 0x8, addend: 0x0, symName: __RNvMs_NtCslJiobkLta79_5alloc3vecINtB4_3VecNtNtCsdGrGZaRBwMb_3syn4item9TraitItemE4pushBI_, symObjAddr: 0x1DC0, symBinAddr: 0x36840, symSize: 0x20 }
  - { offset: 0x8E04F, size: 0x8, addend: 0x0, symName: __RNvMs_NtCslJiobkLta79_5alloc3vecINtB4_3VecNtNtCsdGrGZaRBwMb_3syn4item9TraitItemE8push_mutBI_, symObjAddr: 0x1E50, symBinAddr: 0x36860, symSize: 0x140 }
  - { offset: 0x8E211, size: 0x8, addend: 0x0, symName: __RNvMs_NtCslJiobkLta79_5alloc3vecINtB4_3VecNtNtCsdGrGZaRBwMb_3syn4stmt4StmtE4pushBI_, symObjAddr: 0x1F90, symBinAddr: 0x369A0, symSize: 0x20 }
  - { offset: 0x8E376, size: 0x8, addend: 0x0, symName: __RNvMs_NtCslJiobkLta79_5alloc3vecINtB4_3VecNtNtCsdGrGZaRBwMb_3syn4stmt4StmtE8push_mutBI_, symObjAddr: 0x2020, symBinAddr: 0x369C0, symSize: 0x140 }
  - { offset: 0x8E688, size: 0x8, addend: 0x0, symName: __RNvMs_NtCslJiobkLta79_5alloc3vecINtB4_3VecNtNtCsdGrGZaRBwMb_3syn5error12ErrorMessageE17from_raw_parts_inBI_, symObjAddr: 0x2220, symBinAddr: 0x36B00, symSize: 0xA0 }
  - { offset: 0x8E80F, size: 0x8, addend: 0x0, symName: __RNvMs_NtCslJiobkLta79_5alloc3vecINtB4_3VecNtNtCsdGrGZaRBwMb_3syn5error12ErrorMessageE3lenBI_, symObjAddr: 0x22C0, symBinAddr: 0x36BA0, symSize: 0x10 }
  - { offset: 0x8E99C, size: 0x8, addend: 0x0, symName: __RNvMs_NtCslJiobkLta79_5alloc3vecINtB4_3VecNtNtCsdGrGZaRBwMb_3syn6buffer5EntryE13shrink_to_fitBI_, symObjAddr: 0x2440, symBinAddr: 0x36BB0, symSize: 0xE0 }
  - { offset: 0x8EC16, size: 0x8, addend: 0x0, symName: __RNvMs_NtCslJiobkLta79_5alloc3vecINtB4_3VecNtNtCsdGrGZaRBwMb_3syn6buffer5EntryE16into_boxed_sliceBI_, symObjAddr: 0x2520, symBinAddr: 0x36C90, symSize: 0x160 }
  - { offset: 0x8EDE6, size: 0x8, addend: 0x0, symName: __RNvMs_NtCslJiobkLta79_5alloc3vecINtB4_3VecNtNtCsdGrGZaRBwMb_3syn6buffer5EntryE3lenBI_, symObjAddr: 0x2680, symBinAddr: 0x36DF0, symSize: 0x10 }
  - { offset: 0x8EE1B, size: 0x8, addend: 0x0, symName: __RNvMs_NtCslJiobkLta79_5alloc3vecINtB4_3VecNtNtCsdGrGZaRBwMb_3syn6buffer5EntryE4pushBI_, symObjAddr: 0x2690, symBinAddr: 0x36E00, symSize: 0x20 }
  - { offset: 0x8EF59, size: 0x8, addend: 0x0, symName: __RNvMs_NtCslJiobkLta79_5alloc3vecINtB4_3VecNtNtCsdGrGZaRBwMb_3syn6buffer5EntryE8push_mutBI_, symObjAddr: 0x26B0, symBinAddr: 0x36E20, symSize: 0x120 }
  - { offset: 0x8F11B, size: 0x8, addend: 0x0, symName: __RNvMs_NtCslJiobkLta79_5alloc3vecINtB4_3VecNtNtCsdGrGZaRBwMb_3syn8generics14TypeParamBoundE4pushBI_, symObjAddr: 0x27D0, symBinAddr: 0x36F40, symSize: 0x20 }
  - { offset: 0x8F273, size: 0x8, addend: 0x0, symName: __RNvMs_NtCslJiobkLta79_5alloc3vecINtB4_3VecNtNtCsdGrGZaRBwMb_3syn8generics14TypeParamBoundE8push_mutBI_, symObjAddr: 0x27F0, symBinAddr: 0x36F60, symSize: 0x130 }
  - { offset: 0x8F428, size: 0x8, addend: 0x0, symName: __RNvMs_NtCslJiobkLta79_5alloc3vecINtB4_3VecReE3lenCsdGrGZaRBwMb_3syn, symObjAddr: 0x2920, symBinAddr: 0x37090, symSize: 0x10 }
  - { offset: 0x8F45D, size: 0x8, addend: 0x0, symName: __RNvMs_NtCslJiobkLta79_5alloc3vecINtB4_3VecReE4pushCsdGrGZaRBwMb_3syn, symObjAddr: 0x2930, symBinAddr: 0x370A0, symSize: 0x20 }
  - { offset: 0x8F538, size: 0x8, addend: 0x0, symName: __RNvMs_NtCslJiobkLta79_5alloc3vecINtB4_3VecReE8as_sliceCsdGrGZaRBwMb_3syn, symObjAddr: 0x2950, symBinAddr: 0x370C0, symSize: 0x50 }
  - { offset: 0x8F6D1, size: 0x8, addend: 0x0, symName: __RNvMs_NtCslJiobkLta79_5alloc3vecINtB4_3VecReE8push_mutCsdGrGZaRBwMb_3syn, symObjAddr: 0x29A0, symBinAddr: 0x37110, symSize: 0xF0 }
  - { offset: 0x8F894, size: 0x8, addend: 0x0, symName: __RNvMs_NtCslJiobkLta79_5alloc3vecINtB4_3VecTNtNtCsdGrGZaRBwMb_3syn2ty4TypeNtNtBJ_5token5CommaEE3lenBJ_, symObjAddr: 0x2A90, symBinAddr: 0x37200, symSize: 0x10 }
  - { offset: 0x8F8D6, size: 0x8, addend: 0x0, symName: __RNvMs_NtCslJiobkLta79_5alloc3vecINtB4_3VecTNtNtCsdGrGZaRBwMb_3syn2ty4TypeNtNtBJ_5token5CommaEE4pushBJ_, symObjAddr: 0x2AA0, symBinAddr: 0x37210, symSize: 0x20 }
  - { offset: 0x8F9D9, size: 0x8, addend: 0x0, symName: __RNvMs_NtCslJiobkLta79_5alloc3vecINtB4_3VecTNtNtCsdGrGZaRBwMb_3syn2ty4TypeNtNtBJ_5token5CommaEE8as_sliceBJ_, symObjAddr: 0x2B30, symBinAddr: 0x37230, symSize: 0x50 }
  - { offset: 0x8FB7F, size: 0x8, addend: 0x0, symName: __RNvMs_NtCslJiobkLta79_5alloc3vecINtB4_3VecTNtNtCsdGrGZaRBwMb_3syn2ty4TypeNtNtBJ_5token5CommaEE8push_mutBJ_, symObjAddr: 0x2B80, symBinAddr: 0x37280, symSize: 0x140 }
  - { offset: 0x8FD41, size: 0x8, addend: 0x0, symName: __RNvMs_NtCslJiobkLta79_5alloc3vecINtB4_3VecTNtNtCsdGrGZaRBwMb_3syn2ty9BareFnArgNtNtBJ_5token5CommaEE3lenBJ_, symObjAddr: 0x2CC0, symBinAddr: 0x373C0, symSize: 0x10 }
  - { offset: 0x8FD83, size: 0x8, addend: 0x0, symName: __RNvMs_NtCslJiobkLta79_5alloc3vecINtB4_3VecTNtNtCsdGrGZaRBwMb_3syn2ty9BareFnArgNtNtBJ_5token5CommaEE4pushBJ_, symObjAddr: 0x2CD0, symBinAddr: 0x373D0, symSize: 0x20 }
  - { offset: 0x8FE86, size: 0x8, addend: 0x0, symName: __RNvMs_NtCslJiobkLta79_5alloc3vecINtB4_3VecTNtNtCsdGrGZaRBwMb_3syn2ty9BareFnArgNtNtBJ_5token5CommaEE8as_sliceBJ_, symObjAddr: 0x2D60, symBinAddr: 0x373F0, symSize: 0x50 }
  - { offset: 0x9002C, size: 0x8, addend: 0x0, symName: __RNvMs_NtCslJiobkLta79_5alloc3vecINtB4_3VecTNtNtCsdGrGZaRBwMb_3syn2ty9BareFnArgNtNtBJ_5token5CommaEE8push_mutBJ_, symObjAddr: 0x2DB0, symBinAddr: 0x37440, symSize: 0x140 }
  - { offset: 0x901EE, size: 0x8, addend: 0x0, symName: __RNvMs_NtCslJiobkLta79_5alloc3vecINtB4_3VecTNtNtCsdGrGZaRBwMb_3syn3pat3PatNtNtBJ_5token2OrEE4pushBJ_, symObjAddr: 0x2EF0, symBinAddr: 0x37580, symSize: 0x20 }
  - { offset: 0x902FE, size: 0x8, addend: 0x0, symName: __RNvMs_NtCslJiobkLta79_5alloc3vecINtB4_3VecTNtNtCsdGrGZaRBwMb_3syn3pat3PatNtNtBJ_5token2OrEE8as_sliceBJ_, symObjAddr: 0x2F80, symBinAddr: 0x375A0, symSize: 0x50 }
  - { offset: 0x904A4, size: 0x8, addend: 0x0, symName: __RNvMs_NtCslJiobkLta79_5alloc3vecINtB4_3VecTNtNtCsdGrGZaRBwMb_3syn3pat3PatNtNtBJ_5token2OrEE8push_mutBJ_, symObjAddr: 0x2FD0, symBinAddr: 0x375F0, symSize: 0x140 }
  - { offset: 0x90666, size: 0x8, addend: 0x0, symName: __RNvMs_NtCslJiobkLta79_5alloc3vecINtB4_3VecTNtNtCsdGrGZaRBwMb_3syn3pat3PatNtNtBJ_5token5CommaEE3lenBJ_, symObjAddr: 0x3110, symBinAddr: 0x37730, symSize: 0x10 }
  - { offset: 0x906A8, size: 0x8, addend: 0x0, symName: __RNvMs_NtCslJiobkLta79_5alloc3vecINtB4_3VecTNtNtCsdGrGZaRBwMb_3syn3pat3PatNtNtBJ_5token5CommaEE4pushBJ_, symObjAddr: 0x3120, symBinAddr: 0x37740, symSize: 0x20 }
  - { offset: 0x907AB, size: 0x8, addend: 0x0, symName: __RNvMs_NtCslJiobkLta79_5alloc3vecINtB4_3VecTNtNtCsdGrGZaRBwMb_3syn3pat3PatNtNtBJ_5token5CommaEE8as_sliceBJ_, symObjAddr: 0x31B0, symBinAddr: 0x37760, symSize: 0x50 }
  - { offset: 0x90951, size: 0x8, addend: 0x0, symName: __RNvMs_NtCslJiobkLta79_5alloc3vecINtB4_3VecTNtNtCsdGrGZaRBwMb_3syn3pat3PatNtNtBJ_5token5CommaEE8push_mutBJ_, symObjAddr: 0x3200, symBinAddr: 0x377B0, symSize: 0x140 }
  - { offset: 0x90B13, size: 0x8, addend: 0x0, symName: __RNvMs_NtCslJiobkLta79_5alloc3vecINtB4_3VecTNtNtCsdGrGZaRBwMb_3syn3pat8FieldPatNtNtBJ_5token5CommaEE4pushBJ_, symObjAddr: 0x3340, symBinAddr: 0x378F0, symSize: 0x20 }
  - { offset: 0x90C23, size: 0x8, addend: 0x0, symName: __RNvMs_NtCslJiobkLta79_5alloc3vecINtB4_3VecTNtNtCsdGrGZaRBwMb_3syn3pat8FieldPatNtNtBJ_5token5CommaEE8as_sliceBJ_, symObjAddr: 0x33D0, symBinAddr: 0x37910, symSize: 0x50 }
  - { offset: 0x90DC9, size: 0x8, addend: 0x0, symName: __RNvMs_NtCslJiobkLta79_5alloc3vecINtB4_3VecTNtNtCsdGrGZaRBwMb_3syn3pat8FieldPatNtNtBJ_5token5CommaEE8push_mutBJ_, symObjAddr: 0x3420, symBinAddr: 0x37960, symSize: 0x130 }
  - { offset: 0x90FE6, size: 0x8, addend: 0x0, symName: __RNvMs_NtCslJiobkLta79_5alloc3vecINtB4_3VecTNtNtCsdGrGZaRBwMb_3syn4data5FieldNtNtBJ_5token5CommaEE4pushBJ_, symObjAddr: 0x35B0, symBinAddr: 0x37A90, symSize: 0x20 }
  - { offset: 0x910B9, size: 0x8, addend: 0x0, symName: __RNvMs_NtCslJiobkLta79_5alloc3vecINtB4_3VecTNtNtCsdGrGZaRBwMb_3syn4data5FieldNtNtBJ_5token5CommaEE8as_sliceBJ_, symObjAddr: 0x3640, symBinAddr: 0x37AB0, symSize: 0x50 }
  - { offset: 0x9125F, size: 0x8, addend: 0x0, symName: __RNvMs_NtCslJiobkLta79_5alloc3vecINtB4_3VecTNtNtCsdGrGZaRBwMb_3syn4data5FieldNtNtBJ_5token5CommaEE8push_mutBJ_, symObjAddr: 0x3690, symBinAddr: 0x37B00, symSize: 0x140 }
  - { offset: 0x91421, size: 0x8, addend: 0x0, symName: __RNvMs_NtCslJiobkLta79_5alloc3vecINtB4_3VecTNtNtCsdGrGZaRBwMb_3syn4data7VariantNtNtBJ_5token5CommaEE4pushBJ_, symObjAddr: 0x37E0, symBinAddr: 0x37C40, symSize: 0x20 }
  - { offset: 0x91531, size: 0x8, addend: 0x0, symName: __RNvMs_NtCslJiobkLta79_5alloc3vecINtB4_3VecTNtNtCsdGrGZaRBwMb_3syn4data7VariantNtNtBJ_5token5CommaEE8as_sliceBJ_, symObjAddr: 0x3870, symBinAddr: 0x37C60, symSize: 0x50 }
  - { offset: 0x916D7, size: 0x8, addend: 0x0, symName: __RNvMs_NtCslJiobkLta79_5alloc3vecINtB4_3VecTNtNtCsdGrGZaRBwMb_3syn4data7VariantNtNtBJ_5token5CommaEE8push_mutBJ_, symObjAddr: 0x38C0, symBinAddr: 0x37CB0, symSize: 0x140 }
  - { offset: 0x91899, size: 0x8, addend: 0x0, symName: __RNvMs_NtCslJiobkLta79_5alloc3vecINtB4_3VecTNtNtCsdGrGZaRBwMb_3syn4expr10FieldValueNtNtBJ_5token5CommaEE4pushBJ_, symObjAddr: 0x3A00, symBinAddr: 0x37DF0, symSize: 0x20 }
  - { offset: 0x919A9, size: 0x8, addend: 0x0, symName: __RNvMs_NtCslJiobkLta79_5alloc3vecINtB4_3VecTNtNtCsdGrGZaRBwMb_3syn4expr10FieldValueNtNtBJ_5token5CommaEE8as_sliceBJ_, symObjAddr: 0x3A90, symBinAddr: 0x37E10, symSize: 0x50 }
  - { offset: 0x91B4F, size: 0x8, addend: 0x0, symName: __RNvMs_NtCslJiobkLta79_5alloc3vecINtB4_3VecTNtNtCsdGrGZaRBwMb_3syn4expr10FieldValueNtNtBJ_5token5CommaEE8push_mutBJ_, symObjAddr: 0x3AE0, symBinAddr: 0x37E60, symSize: 0x140 }
  - { offset: 0x91D11, size: 0x8, addend: 0x0, symName: __RNvMs_NtCslJiobkLta79_5alloc3vecINtB4_3VecTNtNtCsdGrGZaRBwMb_3syn4expr4ExprNtNtBJ_5token5CommaEE3lenBJ_, symObjAddr: 0x3C20, symBinAddr: 0x37FA0, symSize: 0x10 }
  - { offset: 0x91D53, size: 0x8, addend: 0x0, symName: __RNvMs_NtCslJiobkLta79_5alloc3vecINtB4_3VecTNtNtCsdGrGZaRBwMb_3syn4expr4ExprNtNtBJ_5token5CommaEE4pushBJ_, symObjAddr: 0x3C30, symBinAddr: 0x37FB0, symSize: 0x20 }
  - { offset: 0x91E56, size: 0x8, addend: 0x0, symName: __RNvMs_NtCslJiobkLta79_5alloc3vecINtB4_3VecTNtNtCsdGrGZaRBwMb_3syn4expr4ExprNtNtBJ_5token5CommaEE8as_sliceBJ_, symObjAddr: 0x3CC0, symBinAddr: 0x37FD0, symSize: 0x50 }
  - { offset: 0x91FFC, size: 0x8, addend: 0x0, symName: __RNvMs_NtCslJiobkLta79_5alloc3vecINtB4_3VecTNtNtCsdGrGZaRBwMb_3syn4expr4ExprNtNtBJ_5token5CommaEE8push_mutBJ_, symObjAddr: 0x3D10, symBinAddr: 0x38020, symSize: 0x140 }
  - { offset: 0x921BE, size: 0x8, addend: 0x0, symName: __RNvMs_NtCslJiobkLta79_5alloc3vecINtB4_3VecTNtNtCsdGrGZaRBwMb_3syn4item5FnArgNtNtBJ_5token5CommaEE3lenBJ_, symObjAddr: 0x3E50, symBinAddr: 0x38160, symSize: 0x10 }
  - { offset: 0x92200, size: 0x8, addend: 0x0, symName: __RNvMs_NtCslJiobkLta79_5alloc3vecINtB4_3VecTNtNtCsdGrGZaRBwMb_3syn4item5FnArgNtNtBJ_5token5CommaEE4pushBJ_, symObjAddr: 0x3E60, symBinAddr: 0x38170, symSize: 0x20 }
  - { offset: 0x92303, size: 0x8, addend: 0x0, symName: __RNvMs_NtCslJiobkLta79_5alloc3vecINtB4_3VecTNtNtCsdGrGZaRBwMb_3syn4item5FnArgNtNtBJ_5token5CommaEE8as_sliceBJ_, symObjAddr: 0x3EF0, symBinAddr: 0x38190, symSize: 0x50 }
  - { offset: 0x924A9, size: 0x8, addend: 0x0, symName: __RNvMs_NtCslJiobkLta79_5alloc3vecINtB4_3VecTNtNtCsdGrGZaRBwMb_3syn4item5FnArgNtNtBJ_5token5CommaEE8push_mutBJ_, symObjAddr: 0x3F40, symBinAddr: 0x381E0, symSize: 0x130 }
  - { offset: 0x9266B, size: 0x8, addend: 0x0, symName: __RNvMs_NtCslJiobkLta79_5alloc3vecINtB4_3VecTNtNtCsdGrGZaRBwMb_3syn4item7UseTreeNtNtBJ_5token5CommaEE4pushBJ_, symObjAddr: 0x4070, symBinAddr: 0x38310, symSize: 0x20 }
  - { offset: 0x9277B, size: 0x8, addend: 0x0, symName: __RNvMs_NtCslJiobkLta79_5alloc3vecINtB4_3VecTNtNtCsdGrGZaRBwMb_3syn4item7UseTreeNtNtBJ_5token5CommaEE8as_sliceBJ_, symObjAddr: 0x4100, symBinAddr: 0x38330, symSize: 0x50 }
  - { offset: 0x92921, size: 0x8, addend: 0x0, symName: __RNvMs_NtCslJiobkLta79_5alloc3vecINtB4_3VecTNtNtCsdGrGZaRBwMb_3syn4item7UseTreeNtNtBJ_5token5CommaEE8push_mutBJ_, symObjAddr: 0x4150, symBinAddr: 0x38380, symSize: 0x130 }
  - { offset: 0x92BB1, size: 0x8, addend: 0x0, symName: __RNvMs_NtCslJiobkLta79_5alloc3vecINtB4_3VecTNtNtCsdGrGZaRBwMb_3syn4path11PathSegmentNtNtBJ_5token7PathSepEE12as_mut_sliceBJ_, symObjAddr: 0x4280, symBinAddr: 0x384B0, symSize: 0x50 }
  - { offset: 0x92C8D, size: 0x8, addend: 0x0, symName: __RNvMs_NtCslJiobkLta79_5alloc3vecINtB4_3VecTNtNtCsdGrGZaRBwMb_3syn4path11PathSegmentNtNtBJ_5token7PathSepEE3lenBJ_, symObjAddr: 0x42D0, symBinAddr: 0x38500, symSize: 0x10 }
  - { offset: 0x92DDB, size: 0x8, addend: 0x0, symName: __RNvMs_NtCslJiobkLta79_5alloc3vecINtB4_3VecTNtNtCsdGrGZaRBwMb_3syn4path11PathSegmentNtNtBJ_5token7PathSepEE3popBJ_, symObjAddr: 0x42E0, symBinAddr: 0x38510, symSize: 0x120 }
  - { offset: 0x92F70, size: 0x8, addend: 0x0, symName: __RNvMs_NtCslJiobkLta79_5alloc3vecINtB4_3VecTNtNtCsdGrGZaRBwMb_3syn4path11PathSegmentNtNtBJ_5token7PathSepEE4pushBJ_, symObjAddr: 0x4400, symBinAddr: 0x38630, symSize: 0x20 }
  - { offset: 0x93043, size: 0x8, addend: 0x0, symName: __RNvMs_NtCslJiobkLta79_5alloc3vecINtB4_3VecTNtNtCsdGrGZaRBwMb_3syn4path11PathSegmentNtNtBJ_5token7PathSepEE8as_sliceBJ_, symObjAddr: 0x4490, symBinAddr: 0x38650, symSize: 0x50 }
  - { offset: 0x931E9, size: 0x8, addend: 0x0, symName: __RNvMs_NtCslJiobkLta79_5alloc3vecINtB4_3VecTNtNtCsdGrGZaRBwMb_3syn4path11PathSegmentNtNtBJ_5token7PathSepEE8push_mutBJ_, symObjAddr: 0x44E0, symBinAddr: 0x386A0, symSize: 0x130 }
  - { offset: 0x933AB, size: 0x8, addend: 0x0, symName: __RNvMs_NtCslJiobkLta79_5alloc3vecINtB4_3VecTNtNtCsdGrGZaRBwMb_3syn4path15GenericArgumentNtNtBJ_5token5CommaEE3lenBJ_, symObjAddr: 0x4610, symBinAddr: 0x387D0, symSize: 0x10 }
  - { offset: 0x933ED, size: 0x8, addend: 0x0, symName: __RNvMs_NtCslJiobkLta79_5alloc3vecINtB4_3VecTNtNtCsdGrGZaRBwMb_3syn4path15GenericArgumentNtNtBJ_5token5CommaEE4pushBJ_, symObjAddr: 0x4620, symBinAddr: 0x387E0, symSize: 0x20 }
  - { offset: 0x934F0, size: 0x8, addend: 0x0, symName: __RNvMs_NtCslJiobkLta79_5alloc3vecINtB4_3VecTNtNtCsdGrGZaRBwMb_3syn4path15GenericArgumentNtNtBJ_5token5CommaEE8as_sliceBJ_, symObjAddr: 0x46B0, symBinAddr: 0x38800, symSize: 0x50 }
  - { offset: 0x93696, size: 0x8, addend: 0x0, symName: __RNvMs_NtCslJiobkLta79_5alloc3vecINtB4_3VecTNtNtCsdGrGZaRBwMb_3syn4path15GenericArgumentNtNtBJ_5token5CommaEE8push_mutBJ_, symObjAddr: 0x4700, symBinAddr: 0x38850, symSize: 0x140 }
  - { offset: 0x938B3, size: 0x8, addend: 0x0, symName: __RNvMs_NtCslJiobkLta79_5alloc3vecINtB4_3VecTNtNtCsdGrGZaRBwMb_3syn8generics12GenericParamNtNtBJ_5token5CommaEE3lenBJ_, symObjAddr: 0x4890, symBinAddr: 0x38990, symSize: 0x10 }
  - { offset: 0x938E8, size: 0x8, addend: 0x0, symName: __RNvMs_NtCslJiobkLta79_5alloc3vecINtB4_3VecTNtNtCsdGrGZaRBwMb_3syn8generics12GenericParamNtNtBJ_5token5CommaEE4pushBJ_, symObjAddr: 0x48A0, symBinAddr: 0x389A0, symSize: 0x20 }
  - { offset: 0x939BB, size: 0x8, addend: 0x0, symName: __RNvMs_NtCslJiobkLta79_5alloc3vecINtB4_3VecTNtNtCsdGrGZaRBwMb_3syn8generics12GenericParamNtNtBJ_5token5CommaEE8as_sliceBJ_, symObjAddr: 0x4930, symBinAddr: 0x389C0, symSize: 0x50 }
  - { offset: 0x93B61, size: 0x8, addend: 0x0, symName: __RNvMs_NtCslJiobkLta79_5alloc3vecINtB4_3VecTNtNtCsdGrGZaRBwMb_3syn8generics12GenericParamNtNtBJ_5token5CommaEE8push_mutBJ_, symObjAddr: 0x4980, symBinAddr: 0x38A10, symSize: 0x140 }
  - { offset: 0x93D23, size: 0x8, addend: 0x0, symName: __RNvMs_NtCslJiobkLta79_5alloc3vecINtB4_3VecTNtNtCsdGrGZaRBwMb_3syn8generics13CapturedParamNtNtBJ_5token5CommaEE4pushBJ_, symObjAddr: 0x4AC0, symBinAddr: 0x38B50, symSize: 0x20 }
  - { offset: 0x93E33, size: 0x8, addend: 0x0, symName: __RNvMs_NtCslJiobkLta79_5alloc3vecINtB4_3VecTNtNtCsdGrGZaRBwMb_3syn8generics13CapturedParamNtNtBJ_5token5CommaEE8as_sliceBJ_, symObjAddr: 0x4B50, symBinAddr: 0x38B70, symSize: 0x50 }
  - { offset: 0x93FD9, size: 0x8, addend: 0x0, symName: __RNvMs_NtCslJiobkLta79_5alloc3vecINtB4_3VecTNtNtCsdGrGZaRBwMb_3syn8generics13CapturedParamNtNtBJ_5token5CommaEE8push_mutBJ_, symObjAddr: 0x4BA0, symBinAddr: 0x38BC0, symSize: 0x130 }
  - { offset: 0x9419B, size: 0x8, addend: 0x0, symName: __RNvMs_NtCslJiobkLta79_5alloc3vecINtB4_3VecTNtNtCsdGrGZaRBwMb_3syn8generics14TypeParamBoundNtNtBJ_5token4PlusEE3lenBJ_, symObjAddr: 0x4CD0, symBinAddr: 0x38CF0, symSize: 0x10 }
  - { offset: 0x941DD, size: 0x8, addend: 0x0, symName: __RNvMs_NtCslJiobkLta79_5alloc3vecINtB4_3VecTNtNtCsdGrGZaRBwMb_3syn8generics14TypeParamBoundNtNtBJ_5token4PlusEE4pushBJ_, symObjAddr: 0x4CE0, symBinAddr: 0x38D00, symSize: 0x20 }
  - { offset: 0x942E0, size: 0x8, addend: 0x0, symName: __RNvMs_NtCslJiobkLta79_5alloc3vecINtB4_3VecTNtNtCsdGrGZaRBwMb_3syn8generics14TypeParamBoundNtNtBJ_5token4PlusEE8as_sliceBJ_, symObjAddr: 0x4D70, symBinAddr: 0x38D20, symSize: 0x50 }
  - { offset: 0x94486, size: 0x8, addend: 0x0, symName: __RNvMs_NtCslJiobkLta79_5alloc3vecINtB4_3VecTNtNtCsdGrGZaRBwMb_3syn8generics14TypeParamBoundNtNtBJ_5token4PlusEE8push_mutBJ_, symObjAddr: 0x4DC0, symBinAddr: 0x38D70, symSize: 0x130 }
  - { offset: 0x94648, size: 0x8, addend: 0x0, symName: __RNvMs_NtCslJiobkLta79_5alloc3vecINtB4_3VecTNtNtCsdGrGZaRBwMb_3syn8generics14WherePredicateNtNtBJ_5token5CommaEE3lenBJ_, symObjAddr: 0x4EF0, symBinAddr: 0x38EA0, symSize: 0x10 }
  - { offset: 0x9468A, size: 0x8, addend: 0x0, symName: __RNvMs_NtCslJiobkLta79_5alloc3vecINtB4_3VecTNtNtCsdGrGZaRBwMb_3syn8generics14WherePredicateNtNtBJ_5token5CommaEE4pushBJ_, symObjAddr: 0x4F00, symBinAddr: 0x38EB0, symSize: 0x20 }
  - { offset: 0x9478D, size: 0x8, addend: 0x0, symName: __RNvMs_NtCslJiobkLta79_5alloc3vecINtB4_3VecTNtNtCsdGrGZaRBwMb_3syn8generics14WherePredicateNtNtBJ_5token5CommaEE8as_sliceBJ_, symObjAddr: 0x4F90, symBinAddr: 0x38ED0, symSize: 0x50 }
  - { offset: 0x94933, size: 0x8, addend: 0x0, symName: __RNvMs_NtCslJiobkLta79_5alloc3vecINtB4_3VecTNtNtCsdGrGZaRBwMb_3syn8generics14WherePredicateNtNtBJ_5token5CommaEE8push_mutBJ_, symObjAddr: 0x4FE0, symBinAddr: 0x38F20, symSize: 0x140 }
  - { offset: 0x94AF5, size: 0x8, addend: 0x0, symName: __RNvMs_NtCslJiobkLta79_5alloc3vecINtB4_3VecTNtNtCsdGrGZaRBwMb_3syn8lifetime8LifetimeNtNtBJ_5token4PlusEE3lenBJ_, symObjAddr: 0x5120, symBinAddr: 0x39060, symSize: 0x10 }
  - { offset: 0x94B37, size: 0x8, addend: 0x0, symName: __RNvMs_NtCslJiobkLta79_5alloc3vecINtB4_3VecTNtNtCsdGrGZaRBwMb_3syn8lifetime8LifetimeNtNtBJ_5token4PlusEE4pushBJ_, symObjAddr: 0x5130, symBinAddr: 0x39070, symSize: 0x20 }
  - { offset: 0x94C3A, size: 0x8, addend: 0x0, symName: __RNvMs_NtCslJiobkLta79_5alloc3vecINtB4_3VecTNtNtCsdGrGZaRBwMb_3syn8lifetime8LifetimeNtNtBJ_5token4PlusEE8as_sliceBJ_, symObjAddr: 0x51C0, symBinAddr: 0x39090, symSize: 0x50 }
  - { offset: 0x94DE0, size: 0x8, addend: 0x0, symName: __RNvMs_NtCslJiobkLta79_5alloc3vecINtB4_3VecTNtNtCsdGrGZaRBwMb_3syn8lifetime8LifetimeNtNtBJ_5token4PlusEE8push_mutBJ_, symObjAddr: 0x5210, symBinAddr: 0x390E0, symSize: 0x130 }
  - { offset: 0x9509B, size: 0x8, addend: 0x0, symName: __RNvMs_NtCslJiobkLta79_5alloc3vecINtB4_3VechE13shrink_to_fitCsdGrGZaRBwMb_3syn, symObjAddr: 0x5340, symBinAddr: 0x39210, symSize: 0xE0 }
  - { offset: 0x952D0, size: 0x8, addend: 0x0, symName: __RNvMs_NtCslJiobkLta79_5alloc3vecINtB4_3VechE16into_boxed_sliceCsdGrGZaRBwMb_3syn, symObjAddr: 0x5420, symBinAddr: 0x392F0, symSize: 0x160 }
  - { offset: 0x954A0, size: 0x8, addend: 0x0, symName: __RNvMs_NtCslJiobkLta79_5alloc3vecINtB4_3VechE3lenCsdGrGZaRBwMb_3syn, symObjAddr: 0x5580, symBinAddr: 0x39450, symSize: 0x10 }
  - { offset: 0x954D5, size: 0x8, addend: 0x0, symName: __RNvMs_NtCslJiobkLta79_5alloc3vecINtB4_3VechE4pushCsdGrGZaRBwMb_3syn, symObjAddr: 0x5590, symBinAddr: 0x39460, symSize: 0x20 }
  - { offset: 0x95589, size: 0x8, addend: 0x0, symName: __RNvMs_NtCslJiobkLta79_5alloc3vecINtB4_3VechE8as_sliceCsdGrGZaRBwMb_3syn, symObjAddr: 0x55B0, symBinAddr: 0x39480, symSize: 0x50 }
  - { offset: 0x9572F, size: 0x8, addend: 0x0, symName: __RNvMs_NtCslJiobkLta79_5alloc3vecINtB4_3VechE8push_mutCsdGrGZaRBwMb_3syn, symObjAddr: 0x5600, symBinAddr: 0x394D0, symSize: 0xC0 }
  - { offset: 0x95B1E, size: 0x8, addend: 0x0, symName: __RNvMs_NtCslJiobkLta79_5alloc3vecINtB4_3VechE9split_offCsdGrGZaRBwMb_3syn, symObjAddr: 0x56C0, symBinAddr: 0x39590, symSize: 0x290 }
  - { offset: 0x9C648, size: 0x8, addend: 0x0, symName: __RNcNtNtNtCsdGrGZaRBwMb_3syn4expr11RangeLimits6Closed0B7_, symObjAddr: 0xDB0, symBinAddr: 0x3B3E0, symSize: 0x20 }
  - { offset: 0x9C678, size: 0x8, addend: 0x0, symName: __RNcNtNtNtCsdGrGZaRBwMb_3syn4expr11RangeLimits8HalfOpen0B7_, symObjAddr: 0xDD0, symBinAddr: 0x3B400, symSize: 0x30 }
  - { offset: 0x9C6AE, size: 0x8, addend: 0x0, symName: __RNcNtNtNtCsdGrGZaRBwMb_3syn4expr4Expr2If0B7_, symObjAddr: 0xE00, symBinAddr: 0x3B430, symSize: 0x40 }
  - { offset: 0x9C6DD, size: 0x8, addend: 0x0, symName: __RNcNtNtNtCsdGrGZaRBwMb_3syn4expr4Expr3Let0B7_, symObjAddr: 0xE40, symBinAddr: 0x3B470, symSize: 0x40 }
  - { offset: 0x9C70C, size: 0x8, addend: 0x0, symName: __RNcNtNtNtCsdGrGZaRBwMb_3syn4expr4Expr3Lit0B7_, symObjAddr: 0xE80, symBinAddr: 0x3B4B0, symSize: 0x40 }
  - { offset: 0x9C73B, size: 0x8, addend: 0x0, symName: __RNcNtNtNtCsdGrGZaRBwMb_3syn4expr4Expr4Loop0B7_, symObjAddr: 0xEC0, symBinAddr: 0x3B4F0, symSize: 0x40 }
  - { offset: 0x9C76A, size: 0x8, addend: 0x0, symName: __RNcNtNtNtCsdGrGZaRBwMb_3syn4expr4Expr5Async0B7_, symObjAddr: 0xF00, symBinAddr: 0x3B530, symSize: 0x40 }
  - { offset: 0x9C799, size: 0x8, addend: 0x0, symName: __RNcNtNtNtCsdGrGZaRBwMb_3syn4expr4Expr5Block0B7_, symObjAddr: 0xF40, symBinAddr: 0x3B570, symSize: 0x40 }
  - { offset: 0x9C7C8, size: 0x8, addend: 0x0, symName: __RNcNtNtNtCsdGrGZaRBwMb_3syn4expr4Expr5Break0B7_, symObjAddr: 0xF80, symBinAddr: 0x3B5B0, symSize: 0x40 }
  - { offset: 0x9C7F7, size: 0x8, addend: 0x0, symName: __RNcNtNtNtCsdGrGZaRBwMb_3syn4expr4Expr5Const0B7_, symObjAddr: 0xFC0, symBinAddr: 0x3B5F0, symSize: 0x40 }
  - { offset: 0x9C826, size: 0x8, addend: 0x0, symName: __RNcNtNtNtCsdGrGZaRBwMb_3syn4expr4Expr5Infer0B7_, symObjAddr: 0x1000, symBinAddr: 0x3B630, symSize: 0x30 }
  - { offset: 0x9C854, size: 0x8, addend: 0x0, symName: __RNcNtNtNtCsdGrGZaRBwMb_3syn4expr4Expr5Match0B7_, symObjAddr: 0x1030, symBinAddr: 0x3B660, symSize: 0x40 }
  - { offset: 0x9C883, size: 0x8, addend: 0x0, symName: __RNcNtNtNtCsdGrGZaRBwMb_3syn4expr4Expr5Range0B7_, symObjAddr: 0x1070, symBinAddr: 0x3B6A0, symSize: 0x40 }
  - { offset: 0x9C8B2, size: 0x8, addend: 0x0, symName: __RNcNtNtNtCsdGrGZaRBwMb_3syn4expr4Expr5Unary0B7_, symObjAddr: 0x10B0, symBinAddr: 0x3B6E0, symSize: 0x40 }
  - { offset: 0x9C8E1, size: 0x8, addend: 0x0, symName: __RNcNtNtNtCsdGrGZaRBwMb_3syn4expr4Expr5While0B7_, symObjAddr: 0x10F0, symBinAddr: 0x3B720, symSize: 0x40 }
  - { offset: 0x9C910, size: 0x8, addend: 0x0, symName: __RNcNtNtNtCsdGrGZaRBwMb_3syn4expr4Expr5Yield0B7_, symObjAddr: 0x1130, symBinAddr: 0x3B760, symSize: 0x40 }
  - { offset: 0x9C93F, size: 0x8, addend: 0x0, symName: __RNcNtNtNtCsdGrGZaRBwMb_3syn4expr4Expr6Return0B7_, symObjAddr: 0x1170, symBinAddr: 0x3B7A0, symSize: 0x40 }
  - { offset: 0x9C96E, size: 0x8, addend: 0x0, symName: __RNcNtNtNtCsdGrGZaRBwMb_3syn4expr4Expr6Struct0B7_, symObjAddr: 0x11B0, symBinAddr: 0x3B7E0, symSize: 0x40 }
  - { offset: 0x9C99D, size: 0x8, addend: 0x0, symName: __RNcNtNtNtCsdGrGZaRBwMb_3syn4expr4Expr6Unsafe0B7_, symObjAddr: 0x11F0, symBinAddr: 0x3B820, symSize: 0x40 }
  - { offset: 0x9C9CC, size: 0x8, addend: 0x0, symName: __RNcNtNtNtCsdGrGZaRBwMb_3syn4expr4Expr7Closure0B7_, symObjAddr: 0x1230, symBinAddr: 0x3B860, symSize: 0x40 }
  - { offset: 0x9C9FB, size: 0x8, addend: 0x0, symName: __RNcNtNtNtCsdGrGZaRBwMb_3syn4expr4Expr7ForLoop0B7_, symObjAddr: 0x1270, symBinAddr: 0x3B8A0, symSize: 0x40 }
  - { offset: 0x9CA2A, size: 0x8, addend: 0x0, symName: __RNcNtNtNtCsdGrGZaRBwMb_3syn4expr4Expr8Continue0B7_, symObjAddr: 0x12B0, symBinAddr: 0x3B8E0, symSize: 0x40 }
  - { offset: 0x9CA59, size: 0x8, addend: 0x0, symName: __RNcNtNtNtCsdGrGZaRBwMb_3syn4expr4Expr8TryBlock0B7_, symObjAddr: 0x12F0, symBinAddr: 0x3B920, symSize: 0x40 }
  - { offset: 0x9CA8E, size: 0x8, addend: 0x0, symName: __RNcNtNtNtCsdGrGZaRBwMb_3syn4expr6Member5Named0B7_, symObjAddr: 0x1330, symBinAddr: 0x3B960, symSize: 0x20 }
  - { offset: 0x9CABE, size: 0x8, addend: 0x0, symName: __RNcNtNtNtCsdGrGZaRBwMb_3syn4expr6Member7Unnamed0B7_, symObjAddr: 0x1350, symBinAddr: 0x3B980, symSize: 0x20 }
  - { offset: 0x9CAF4, size: 0x8, addend: 0x0, symName: __RNvXNtNtCsdGrGZaRBwMb_3syn4expr7parsingNtB4_4ExprNtNtB6_5parse5Parse5parse, symObjAddr: 0x42A0, symBinAddr: 0x3C880, symSize: 0x30 }
  - { offset: 0x9CB28, size: 0x8, addend: 0x0, symName: __RNvXs4_NtNtCsdGrGZaRBwMb_3syn4expr7parsingNtB7_7ExprLitNtNtB9_5parse5Parse5parse, symObjAddr: 0x78B0, symBinAddr: 0x3CA60, symSize: 0x190 }
  - { offset: 0x9CB7B, size: 0x8, addend: 0x0, symName: __RNvXs7_NtNtCsdGrGZaRBwMb_3syn4expr7parsingNtB7_6ExprIfNtNtB9_5parse5Parse5parse, symObjAddr: 0x8100, symBinAddr: 0x3CD10, symSize: 0x1460 }
  - { offset: 0x9CDF1, size: 0x8, addend: 0x0, symName: __RNvXs8_NtNtCsdGrGZaRBwMb_3syn4expr7parsingNtB7_9ExprInferNtNtB9_5parse5Parse5parse, symObjAddr: 0x9E10, symBinAddr: 0x3E1B0, symSize: 0x250 }
  - { offset: 0x9CE81, size: 0x8, addend: 0x0, symName: __RNvXs9_NtNtCsdGrGZaRBwMb_3syn4expr7parsingNtB7_11ExprForLoopNtNtB9_5parse5Parse5parse, symObjAddr: 0xA0F0, symBinAddr: 0x3E470, symSize: 0xD40 }
  - { offset: 0x9D150, size: 0x8, addend: 0x0, symName: __RNvXsA_NtNtCsdGrGZaRBwMb_3syn4expr7parsingNtB7_5IndexNtNtB9_5parse5Parse5parse, symObjAddr: 0xB030, symBinAddr: 0x3F210, symSize: 0x300 }
  - { offset: 0x9D1F7, size: 0x8, addend: 0x0, symName: __RNvXsa_NtNtCsdGrGZaRBwMb_3syn4expr7parsingNtB7_8ExprLoopNtNtB9_5parse5Parse5parse, symObjAddr: 0x12730, symBinAddr: 0x40000, symSize: 0x810 }
  - { offset: 0x9D3AA, size: 0x8, addend: 0x0, symName: __RNvXsb_NtNtCsdGrGZaRBwMb_3syn4expr7parsingNtB7_9ExprMatchNtNtB9_5parse5Parse5parse, symObjAddr: 0x12FD0, symBinAddr: 0x40850, symSize: 0x850 }
  - { offset: 0x9D59B, size: 0x8, addend: 0x0, symName: __RNvXsh_NtNtCsdGrGZaRBwMb_3syn4expr7parsingNtB7_10ExprReturnNtNtB9_5parse5Parse5parse, symObjAddr: 0x147D0, symBinAddr: 0x414D0, symSize: 0x270 }
  - { offset: 0x9D5FC, size: 0x8, addend: 0x0, symName: __RNvXsi_NtNtCsdGrGZaRBwMb_3syn4expr7parsingNtB7_12ExprTryBlockNtNtB9_5parse5Parse5parse, symObjAddr: 0x14AD0, symBinAddr: 0x41790, symSize: 0x290 }
  - { offset: 0x9D66E, size: 0x8, addend: 0x0, symName: __RNvXsj_NtNtCsdGrGZaRBwMb_3syn4expr7parsingNtB7_9ExprYieldNtNtB9_5parse5Parse5parse, symObjAddr: 0x14E20, symBinAddr: 0x41AA0, symSize: 0x270 }
  - { offset: 0x9D6CF, size: 0x8, addend: 0x0, symName: __RNvXsk_NtNtCsdGrGZaRBwMb_3syn4expr7parsingNtB7_9ExprAsyncNtNtB9_5parse5Parse5parse, symObjAddr: 0x15F50, symBinAddr: 0x41D60, symSize: 0x390 }
  - { offset: 0x9D760, size: 0x8, addend: 0x0, symName: __RNvXsl_NtNtCsdGrGZaRBwMb_3syn4expr7parsingNtB7_9ExprWhileNtNtB9_5parse5Parse5parse, symObjAddr: 0x164D0, symBinAddr: 0x421C0, symSize: 0xA80 }
  - { offset: 0x9D996, size: 0x8, addend: 0x0, symName: __RNvXsm_NtNtCsdGrGZaRBwMb_3syn4expr7parsingNtB7_9ExprConstNtNtB9_5parse5Parse5parse, symObjAddr: 0x17C00, symBinAddr: 0x42C80, symSize: 0x540 }
  - { offset: 0x9DAED, size: 0x8, addend: 0x0, symName: __RNvXsn_NtNtCsdGrGZaRBwMb_3syn4expr7parsingNtB7_5LabelNtNtB9_5parse5Parse5parse, symObjAddr: 0x18310, symBinAddr: 0x43210, symSize: 0x260 }
  - { offset: 0x9DB7D, size: 0x8, addend: 0x0, symName: __RNvXsp_NtNtCsdGrGZaRBwMb_3syn4expr7parsingNtB7_12ExprContinueNtNtB9_5parse5Parse5parse, symObjAddr: 0x188D0, symBinAddr: 0x43510, symSize: 0x2A0 }
  - { offset: 0x9DBEF, size: 0x8, addend: 0x0, symName: __RNvXsq_NtNtCsdGrGZaRBwMb_3syn4expr7parsingNtB7_10FieldValueNtNtB9_5parse5Parse5parse, symObjAddr: 0x18D90, symBinAddr: 0x437F0, symSize: 0x6D0 }
  - { offset: 0x9DD8E, size: 0x8, addend: 0x0, symName: __RNvXss_NtNtCsdGrGZaRBwMb_3syn4expr7parsingNtB7_10ExprUnsafeNtNtB9_5parse5Parse5parse, symObjAddr: 0x19A50, symBinAddr: 0x43F50, symSize: 0x540 }
  - { offset: 0x9DEE5, size: 0x8, addend: 0x0, symName: __RNvXst_NtNtCsdGrGZaRBwMb_3syn4expr7parsingNtB7_9ExprBlockNtNtB9_5parse5Parse5parse, symObjAddr: 0x1A140, symBinAddr: 0x444D0, symSize: 0x740 }
  - { offset: 0x9E06B, size: 0x8, addend: 0x0, symName: __RNvXsu_NtNtCsdGrGZaRBwMb_3syn4expr7parsingNtB7_11RangeLimitsNtNtB9_5parse5Parse5parse, symObjAddr: 0x1AC90, symBinAddr: 0x44C80, symSize: 0x260 }
  - { offset: 0x9E0FA, size: 0x8, addend: 0x0, symName: __RNvXsw_NtNtCsdGrGZaRBwMb_3syn4expr7parsingNtB7_8ExprPathNtNtB9_5parse5Parse5parse, symObjAddr: 0x1B1E0, symBinAddr: 0x44F80, symSize: 0x310 }
  - { offset: 0x9E1E8, size: 0x8, addend: 0x0, symName: __RNvXsx_NtNtCsdGrGZaRBwMb_3syn4expr7parsingNtB7_6MemberNtNtB9_5parse5Parse5parse, symObjAddr: 0x1B6E0, symBinAddr: 0x452E0, symSize: 0xD0 }
  - { offset: 0x9E21C, size: 0x8, addend: 0x0, symName: __RNvXsz_NtNtCsdGrGZaRBwMb_3syn4expr7parsingNtB7_3ArmNtNtB9_5parse5Parse5parse, symObjAddr: 0x1BBB0, symBinAddr: 0x45460, symSize: 0xB00 }
  - { offset: 0x9E459, size: 0x8, addend: 0x0, symName: __RNvXNtNtCsdGrGZaRBwMb_3syn4expr8printingNtB4_9ExprArrayNtNtCs9OU1sGv5X54_5quote9to_tokens8ToTokens9to_tokens, symObjAddr: 0x42D0, symBinAddr: 0x3C8B0, symSize: 0x50 }
  - { offset: 0x9E498, size: 0x8, addend: 0x0, symName: __RNvXs0_NtNtCsdGrGZaRBwMb_3syn4expr8printingNtB7_9ExprAsyncNtNtCs9OU1sGv5X54_5quote9to_tokens8ToTokens9to_tokens, symObjAddr: 0x4600, symBinAddr: 0x3C900, symSize: 0x70 }
  - { offset: 0x9E4D7, size: 0x8, addend: 0x0, symName: __RNvXs1_NtNtCsdGrGZaRBwMb_3syn4expr8printingNtB7_9ExprAwaitNtNtCs9OU1sGv5X54_5quote9to_tokens8ToTokens9to_tokens, symObjAddr: 0x5710, symBinAddr: 0x3C970, symSize: 0x40 }
  - { offset: 0x9E516, size: 0x8, addend: 0x0, symName: __RNvXs2_NtNtCsdGrGZaRBwMb_3syn4expr8printingNtB7_10ExprBinaryNtNtCs9OU1sGv5X54_5quote9to_tokens8ToTokens9to_tokens, symObjAddr: 0x69F0, symBinAddr: 0x3C9B0, symSize: 0x40 }
  - { offset: 0x9E555, size: 0x8, addend: 0x0, symName: __RNvXs3_NtNtCsdGrGZaRBwMb_3syn4expr8printingNtB7_9ExprBlockNtNtCs9OU1sGv5X54_5quote9to_tokens8ToTokens9to_tokens, symObjAddr: 0x7590, symBinAddr: 0x3C9F0, symSize: 0x70 }
  - { offset: 0x9E594, size: 0x8, addend: 0x0, symName: __RNvXs4_NtNtCsdGrGZaRBwMb_3syn4expr8printingNtB7_9ExprBreakNtNtCs9OU1sGv5X54_5quote9to_tokens8ToTokens9to_tokens, symObjAddr: 0x7A40, symBinAddr: 0x3CBF0, symSize: 0x40 }
  - { offset: 0x9E5D3, size: 0x8, addend: 0x0, symName: __RNvXs5_NtNtCsdGrGZaRBwMb_3syn4expr8printingNtB7_8ExprCallNtNtCs9OU1sGv5X54_5quote9to_tokens8ToTokens9to_tokens, symObjAddr: 0x7FE0, symBinAddr: 0x3CC30, symSize: 0x40 }
  - { offset: 0x9E612, size: 0x8, addend: 0x0, symName: __RNvXs6_NtNtCsdGrGZaRBwMb_3syn4expr8printingNtB7_8ExprCastNtNtCs9OU1sGv5X54_5quote9to_tokens8ToTokens9to_tokens, symObjAddr: 0x8060, symBinAddr: 0x3CC70, symSize: 0x40 }
  - { offset: 0x9E651, size: 0x8, addend: 0x0, symName: __RNvXs7_NtNtCsdGrGZaRBwMb_3syn4expr8printingNtB7_11ExprClosureNtNtCs9OU1sGv5X54_5quote9to_tokens8ToTokens9to_tokens, symObjAddr: 0x9560, symBinAddr: 0x3E170, symSize: 0x40 }
  - { offset: 0x9E690, size: 0x8, addend: 0x0, symName: __RNvXs8_NtNtCsdGrGZaRBwMb_3syn4expr8printingNtB7_9ExprConstNtNtCs9OU1sGv5X54_5quote9to_tokens8ToTokens9to_tokens, symObjAddr: 0xA060, symBinAddr: 0x3E400, symSize: 0x70 }
  - { offset: 0x9E6CF, size: 0x8, addend: 0x0, symName: __RNvXs9_NtNtCsdGrGZaRBwMb_3syn4expr8printingNtB7_12ExprContinueNtNtCs9OU1sGv5X54_5quote9to_tokens8ToTokens9to_tokens, symObjAddr: 0xAE30, symBinAddr: 0x3F1B0, symSize: 0x60 }
  - { offset: 0x9E70E, size: 0x8, addend: 0x0, symName: __RNvXsA_NtNtCsdGrGZaRBwMb_3syn4expr8printingNtB7_9ExprYieldNtNtCs9OU1sGv5X54_5quote9to_tokens8ToTokens9to_tokens, symObjAddr: 0xB330, symBinAddr: 0x3F510, symSize: 0x40 }
  - { offset: 0x9E74D, size: 0x8, addend: 0x0, symName: __RNvXsB_NtNtCsdGrGZaRBwMb_3syn4expr8printingNtB7_3ArmNtNtCs9OU1sGv5X54_5quote9to_tokens8ToTokens9to_tokens, symObjAddr: 0xB830, symBinAddr: 0x3F550, symSize: 0x140 }
  - { offset: 0x9E7BA, size: 0x8, addend: 0x0, symName: __RNvXsC_NtNtCsdGrGZaRBwMb_3syn4expr8printingNtB7_10FieldValueNtNtCs9OU1sGv5X54_5quote9to_tokens8ToTokens9to_tokens, symObjAddr: 0xBEB0, symBinAddr: 0x3F690, symSize: 0xA0 }
  - { offset: 0x9E817, size: 0x8, addend: 0x0, symName: __RNvXsD_NtNtCsdGrGZaRBwMb_3syn4expr8printingNtB7_5IndexNtNtCs9OU1sGv5X54_5quote9to_tokens8ToTokens9to_tokens, symObjAddr: 0xD560, symBinAddr: 0x3F730, symSize: 0xC0 }
  - { offset: 0x9E86D, size: 0x8, addend: 0x0, symName: __RNvXsE_NtNtCsdGrGZaRBwMb_3syn4expr8printingNtB7_5LabelNtNtCs9OU1sGv5X54_5quote9to_tokens8ToTokens9to_tokens, symObjAddr: 0xDB70, symBinAddr: 0x3F7F0, symSize: 0x40 }
  - { offset: 0x9E8AC, size: 0x8, addend: 0x0, symName: __RNvXsF_NtNtCsdGrGZaRBwMb_3syn4expr8printingNtB7_6MemberNtNtCs9OU1sGv5X54_5quote9to_tokens8ToTokens9to_tokens, symObjAddr: 0xE220, symBinAddr: 0x3F830, symSize: 0x70 }
  - { offset: 0x9E91F, size: 0x8, addend: 0x0, symName: __RNvXsG_NtNtCsdGrGZaRBwMb_3syn4expr8printingNtB7_11RangeLimitsNtNtCs9OU1sGv5X54_5quote9to_tokens8ToTokens9to_tokens, symObjAddr: 0xE800, symBinAddr: 0x3F8A0, symSize: 0x70 }
  - { offset: 0x9E992, size: 0x8, addend: 0x0, symName: __RNvXsH_NtNtCsdGrGZaRBwMb_3syn4expr8printingNtB7_17PointerMutabilityNtNtCs9OU1sGv5X54_5quote9to_tokens8ToTokens9to_tokens, symObjAddr: 0xEF00, symBinAddr: 0x3F910, symSize: 0x70 }
  - { offset: 0x9EA05, size: 0x8, addend: 0x0, symName: __RNvXs_NtNtCsdGrGZaRBwMb_3syn4expr8printingNtB6_10ExprAssignNtNtCs9OU1sGv5X54_5quote9to_tokens8ToTokens9to_tokens, symObjAddr: 0x126F0, symBinAddr: 0x3FFC0, symSize: 0x40 }
  - { offset: 0x9EA44, size: 0x8, addend: 0x0, symName: __RNvXsa_NtNtCsdGrGZaRBwMb_3syn4expr8printingNtB7_9ExprFieldNtNtCs9OU1sGv5X54_5quote9to_tokens8ToTokens9to_tokens, symObjAddr: 0x12F40, symBinAddr: 0x40810, symSize: 0x40 }
  - { offset: 0x9EA83, size: 0x8, addend: 0x0, symName: __RNvXsb_NtNtCsdGrGZaRBwMb_3syn4expr8printingNtB7_11ExprForLoopNtNtCs9OU1sGv5X54_5quote9to_tokens8ToTokens9to_tokens, symObjAddr: 0x13820, symBinAddr: 0x410A0, symSize: 0x100 }
  - { offset: 0x9EAC2, size: 0x8, addend: 0x0, symName: __RNvXsc_NtNtCsdGrGZaRBwMb_3syn4expr8printingNtB7_9ExprGroupNtNtCs9OU1sGv5X54_5quote9to_tokens8ToTokens9to_tokens, symObjAddr: 0x139B0, symBinAddr: 0x411A0, symSize: 0x50 }
  - { offset: 0x9EB01, size: 0x8, addend: 0x0, symName: __RNvXsd_NtNtCsdGrGZaRBwMb_3syn4expr8printingNtB7_6ExprIfNtNtCs9OU1sGv5X54_5quote9to_tokens8ToTokens9to_tokens, symObjAddr: 0x13A80, symBinAddr: 0x411F0, symSize: 0x210 }
  - { offset: 0x9EBD7, size: 0x8, addend: 0x0, symName: __RNvXse_NtNtCsdGrGZaRBwMb_3syn4expr8printingNtB7_9ExprIndexNtNtCs9OU1sGv5X54_5quote9to_tokens8ToTokens9to_tokens, symObjAddr: 0x141E0, symBinAddr: 0x41400, symSize: 0x40 }
  - { offset: 0x9EC16, size: 0x8, addend: 0x0, symName: __RNvXsf_NtNtCsdGrGZaRBwMb_3syn4expr8printingNtB7_9ExprInferNtNtCs9OU1sGv5X54_5quote9to_tokens8ToTokens9to_tokens, symObjAddr: 0x14680, symBinAddr: 0x41440, symSize: 0x50 }
  - { offset: 0x9EC55, size: 0x8, addend: 0x0, symName: __RNvXsg_NtNtCsdGrGZaRBwMb_3syn4expr8printingNtB7_7ExprLetNtNtCs9OU1sGv5X54_5quote9to_tokens8ToTokens9to_tokens, symObjAddr: 0x14750, symBinAddr: 0x41490, symSize: 0x40 }
  - { offset: 0x9EC94, size: 0x8, addend: 0x0, symName: __RNvXsh_NtNtCsdGrGZaRBwMb_3syn4expr8printingNtB7_7ExprLitNtNtCs9OU1sGv5X54_5quote9to_tokens8ToTokens9to_tokens, symObjAddr: 0x14A40, symBinAddr: 0x41740, symSize: 0x50 }
  - { offset: 0x9ECD3, size: 0x8, addend: 0x0, symName: __RNvXsi_NtNtCsdGrGZaRBwMb_3syn4expr8printingNtB7_8ExprLoopNtNtCs9OU1sGv5X54_5quote9to_tokens8ToTokens9to_tokens, symObjAddr: 0x14D60, symBinAddr: 0x41A20, symSize: 0x80 }
  - { offset: 0x9ED12, size: 0x8, addend: 0x0, symName: __RNvXsj_NtNtCsdGrGZaRBwMb_3syn4expr8printingNtB7_9ExprMacroNtNtCs9OU1sGv5X54_5quote9to_tokens8ToTokens9to_tokens, symObjAddr: 0x15090, symBinAddr: 0x41D10, symSize: 0x50 }
  - { offset: 0x9ED51, size: 0x8, addend: 0x0, symName: __RNvXsk_NtNtCsdGrGZaRBwMb_3syn4expr8printingNtB7_9ExprMatchNtNtCs9OU1sGv5X54_5quote9to_tokens8ToTokens9to_tokens, symObjAddr: 0x162E0, symBinAddr: 0x420F0, symSize: 0xD0 }
  - { offset: 0x9ED90, size: 0x8, addend: 0x0, symName: __RNvXsl_NtNtCsdGrGZaRBwMb_3syn4expr8printingNtB7_14ExprMethodCallNtNtCs9OU1sGv5X54_5quote9to_tokens8ToTokens9to_tokens, symObjAddr: 0x16F50, symBinAddr: 0x42C40, symSize: 0x40 }
  - { offset: 0x9EDCF, size: 0x8, addend: 0x0, symName: __RNvXsm_NtNtCsdGrGZaRBwMb_3syn4expr8printingNtB7_9ExprParenNtNtCs9OU1sGv5X54_5quote9to_tokens8ToTokens9to_tokens, symObjAddr: 0x18140, symBinAddr: 0x431C0, symSize: 0x50 }
  - { offset: 0x9EE0E, size: 0x8, addend: 0x0, symName: __RNvXsn_NtNtCsdGrGZaRBwMb_3syn4expr8printingNtB7_8ExprPathNtNtCs9OU1sGv5X54_5quote9to_tokens8ToTokens9to_tokens, symObjAddr: 0x18570, symBinAddr: 0x43470, symSize: 0x60 }
  - { offset: 0x9EE4D, size: 0x8, addend: 0x0, symName: __RNvXso_NtNtCsdGrGZaRBwMb_3syn4expr8printingNtB7_9ExprRangeNtNtCs9OU1sGv5X54_5quote9to_tokens8ToTokens9to_tokens, symObjAddr: 0x18710, symBinAddr: 0x434D0, symSize: 0x40 }
  - { offset: 0x9EE8C, size: 0x8, addend: 0x0, symName: __RNvXsp_NtNtCsdGrGZaRBwMb_3syn4expr8printingNtB7_11ExprRawAddrNtNtCs9OU1sGv5X54_5quote9to_tokens8ToTokens9to_tokens, symObjAddr: 0x18B70, symBinAddr: 0x437B0, symSize: 0x40 }
  - { offset: 0x9EECB, size: 0x8, addend: 0x0, symName: __RNvXsq_NtNtCsdGrGZaRBwMb_3syn4expr8printingNtB7_13ExprReferenceNtNtCs9OU1sGv5X54_5quote9to_tokens8ToTokens9to_tokens, symObjAddr: 0x19460, symBinAddr: 0x43EC0, symSize: 0x40 }
  - { offset: 0x9EF0A, size: 0x8, addend: 0x0, symName: __RNvXsr_NtNtCsdGrGZaRBwMb_3syn4expr8printingNtB7_10ExprRepeatNtNtCs9OU1sGv5X54_5quote9to_tokens8ToTokens9to_tokens, symObjAddr: 0x198A0, symBinAddr: 0x43F00, symSize: 0x50 }
  - { offset: 0x9EF49, size: 0x8, addend: 0x0, symName: __RNvXss_NtNtCsdGrGZaRBwMb_3syn4expr8printingNtB7_10ExprReturnNtNtCs9OU1sGv5X54_5quote9to_tokens8ToTokens9to_tokens, symObjAddr: 0x19F90, symBinAddr: 0x44490, symSize: 0x40 }
  - { offset: 0x9EF88, size: 0x8, addend: 0x0, symName: __RNvXst_NtNtCsdGrGZaRBwMb_3syn4expr8printingNtB7_10ExprStructNtNtCs9OU1sGv5X54_5quote9to_tokens8ToTokens9to_tokens, symObjAddr: 0x1A880, symBinAddr: 0x44C10, symSize: 0x70 }
  - { offset: 0x9EFC7, size: 0x8, addend: 0x0, symName: __RNvXsu_NtNtCsdGrGZaRBwMb_3syn4expr8printingNtB7_7ExprTryNtNtCs9OU1sGv5X54_5quote9to_tokens8ToTokens9to_tokens, symObjAddr: 0x1AEF0, symBinAddr: 0x44EE0, symSize: 0x40 }
  - { offset: 0x9F006, size: 0x8, addend: 0x0, symName: __RNvXsv_NtNtCsdGrGZaRBwMb_3syn4expr8printingNtB7_12ExprTryBlockNtNtCs9OU1sGv5X54_5quote9to_tokens8ToTokens9to_tokens, symObjAddr: 0x1B070, symBinAddr: 0x44F20, symSize: 0x60 }
  - { offset: 0x9F045, size: 0x8, addend: 0x0, symName: __RNvXsw_NtNtCsdGrGZaRBwMb_3syn4expr8printingNtB7_9ExprTupleNtNtCs9OU1sGv5X54_5quote9to_tokens8ToTokens9to_tokens, symObjAddr: 0x1B4F0, symBinAddr: 0x45290, symSize: 0x50 }
  - { offset: 0x9F084, size: 0x8, addend: 0x0, symName: __RNvXsx_NtNtCsdGrGZaRBwMb_3syn4expr8printingNtB7_9ExprUnaryNtNtCs9OU1sGv5X54_5quote9to_tokens8ToTokens9to_tokens, symObjAddr: 0x1B7B0, symBinAddr: 0x453B0, symSize: 0x40 }
  - { offset: 0x9F0C3, size: 0x8, addend: 0x0, symName: __RNvXsy_NtNtCsdGrGZaRBwMb_3syn4expr8printingNtB7_10ExprUnsafeNtNtCs9OU1sGv5X54_5quote9to_tokens8ToTokens9to_tokens, symObjAddr: 0x1BA10, symBinAddr: 0x453F0, symSize: 0x70 }
  - { offset: 0x9F102, size: 0x8, addend: 0x0, symName: __RNvXsz_NtNtCsdGrGZaRBwMb_3syn4expr8printingNtB7_9ExprWhileNtNtCs9OU1sGv5X54_5quote9to_tokens8ToTokens9to_tokens, symObjAddr: 0x1C6B0, symBinAddr: 0x45F60, symSize: 0xE0 }
  - { offset: 0x9F142, size: 0x8, addend: 0x0, symName: __RNvXs7_NtCsdGrGZaRBwMb_3syn4exprNtB5_5IndexINtNtCsieiGu2EXtoJ_4core7convert4FromjE4from, symObjAddr: 0x80A0, symBinAddr: 0x3CCB0, symSize: 0x60 }
  - { offset: 0x9F176, size: 0x8, addend: 0x0, symName: __RNvXsP_NtCsdGrGZaRBwMb_3syn4exprNtB5_4ExprNtNtCs9OU1sGv5X54_5quote9to_tokens8ToTokens9to_tokens, symObjAddr: 0x111C0, symBinAddr: 0x3F980, symSize: 0x640 }
  - { offset: 0xA4F1B, size: 0x8, addend: 0x0, symName: __RNvMNtCsieiGu2EXtoJ_4core5sliceSNtNtCsdGrGZaRBwMb_3syn4expr3Arm4iterBy_, symObjAddr: 0x1BB0, symBinAddr: 0x3C1E0, symSize: 0x20 }
  - { offset: 0xA4F52, size: 0x8, addend: 0x0, symName: __RNvMNtCsieiGu2EXtoJ_4core5sliceSTNtNtCsdGrGZaRBwMb_3syn4expr10FieldValueNtNtBz_5token5CommaE4iterBz_, symObjAddr: 0x1BD0, symBinAddr: 0x3C200, symSize: 0x20 }
  - { offset: 0xA4F89, size: 0x8, addend: 0x0, symName: __RNvMNtCsieiGu2EXtoJ_4core5sliceSTNtNtCsdGrGZaRBwMb_3syn4expr4ExprNtNtBz_5token5CommaE4iterBz_, symObjAddr: 0x1BF0, symBinAddr: 0x3C220, symSize: 0x20 }
  - { offset: 0xA6550, size: 0x8, addend: 0x0, symName: __RNvMNtCsdGrGZaRBwMb_3syn4exprNtB2_4Expr13replace_attrs, symObjAddr: 0x1370, symBinAddr: 0x3B9A0, symSize: 0x540 }
  - { offset: 0xA65F5, size: 0x8, addend: 0x0, symName: __RNvMNtCsdGrGZaRBwMb_3syn4exprNtB2_4Expr25parse_without_eager_brace, symObjAddr: 0x18B0, symBinAddr: 0x3BEE0, symSize: 0x30 }
  - { offset: 0xA6618, size: 0x8, addend: 0x0, symName: __RNvMNtCsdGrGZaRBwMb_3syn4exprNtB2_4Expr32parse_with_earlier_boundary_rule, symObjAddr: 0x18E0, symBinAddr: 0x3BF10, symSize: 0x30 }
  - { offset: 0xA663B, size: 0x8, addend: 0x0, symName: __RNvMNtCsdGrGZaRBwMb_3syn4exprNtB2_4Expr4peek, symObjAddr: 0x1910, symBinAddr: 0x3BF40, symSize: 0x2A0 }
  - { offset: 0xA67CB, size: 0x8, addend: 0x0, symName: __RNvMs6_NtCsdGrGZaRBwMb_3syn4exprNtB5_6Member8is_named, symObjAddr: 0x2C10, symBinAddr: 0x3C240, symSize: 0x40 }
  - { offset: 0xA68CB, size: 0x8, addend: 0x0, symName: __RNvMsv_NtNtCsdGrGZaRBwMb_3syn4expr7parsingNtB7_11RangeLimits14parse_obsolete, symObjAddr: 0x3B20, symBinAddr: 0x3C280, symSize: 0x3C0 }
  - { offset: 0xA69A1, size: 0x8, addend: 0x0, symName: __RNvMsy_NtNtCsdGrGZaRBwMb_3syn4expr7parsingNtB7_3Arm14parse_multiple, symObjAddr: 0x4060, symBinAddr: 0x3C640, symSize: 0x1E0 }
  - { offset: 0xA6A09, size: 0x8, addend: 0x0, symName: __RNvXNtCs9OU1sGv5X54_5quote9to_tokensRNtNtCsdGrGZaRBwMb_3syn4expr10FieldValueNtB2_8ToTokens9to_tokensBD_, symObjAddr: 0x4240, symBinAddr: 0x3C820, symSize: 0x30 }
  - { offset: 0xA6A48, size: 0x8, addend: 0x0, symName: __RNvXNtCs9OU1sGv5X54_5quote9to_tokensRNtNtCsdGrGZaRBwMb_3syn4expr4ExprNtB2_8ToTokens9to_tokensBD_, symObjAddr: 0x4270, symBinAddr: 0x3C850, symSize: 0x30 }
  - { offset: 0xA6A8D, size: 0x8, addend: 0x0, symName: __RNvYNtNtCsdGrGZaRBwMb_3syn4expr4ExprNtNtCs9OU1sGv5X54_5quote9to_tokens8ToTokens15to_token_streamB6_, symObjAddr: 0x1C7D0, symBinAddr: 0x46040, symSize: 0x90 }
  - { offset: 0xA7865, size: 0x8, addend: 0x0, symName: __RNvNvMsd_NtNtCsieiGu2EXtoJ_4core3num7nonzeroINtB7_7NonZeropE13new_unchecked18precondition_checkCsdGrGZaRBwMb_3syn, symObjAddr: 0x17360, symBinAddr: 0x5AB70, symSize: 0x80 }
  - { offset: 0xA8171, size: 0x8, addend: 0x0, symName: __RNvNvMNtNtCsieiGu2EXtoJ_4core3ptr9const_ptrPp20offset_from_unsigned18precondition_checkCsdGrGZaRBwMb_3syn, symObjAddr: 0x171B0, symBinAddr: 0x5A9C0, symSize: 0xA0 }
  - { offset: 0xA82AA, size: 0x8, addend: 0x0, symName: __RNvNvMNtNtCsieiGu2EXtoJ_4core3ptr9const_ptrPp6offset18precondition_checkCsdGrGZaRBwMb_3syn, symObjAddr: 0x17250, symBinAddr: 0x5AA60, symSize: 0x110 }
  - { offset: 0xA8958, size: 0x8, addend: 0x0, symName: __RNvXs0_NtCsieiGu2EXtoJ_4core4cellINtB5_4CellNtNtCsdGrGZaRBwMb_3syn6buffer6CursorENtNtB7_5clone5Clone5cloneBK_, symObjAddr: 0x17B50, symBinAddr: 0x5B310, symSize: 0x20 }
  - { offset: 0xA89B3, size: 0x8, addend: 0x0, symName: __RNvXsD_NtCsieiGu2EXtoJ_4core4cellNtB5_12BorrowRefMutNtNtNtB7_3ops4drop4Drop4dropCsdGrGZaRBwMb_3syn, symObjAddr: 0x191B0, symBinAddr: 0x5B5F0, symSize: 0x20 }
  - { offset: 0xA8A23, size: 0x8, addend: 0x0, symName: __RNvXsG_NtCsieiGu2EXtoJ_4core4cellINtB5_6RefMutINtNtCslJiobkLta79_5alloc3vec3VecReEENtNtNtB7_3ops5deref8DerefMut9deref_mutCsdGrGZaRBwMb_3syn, symObjAddr: 0x191D0, symBinAddr: 0x5B610, symSize: 0x10 }
  - { offset: 0xAAC33, size: 0x8, addend: 0x0, symName: __RNvXs19_NtCsieiGu2EXtoJ_4core3fmtRNtNtCsdGrGZaRBwMb_3syn5error12ErrorMessageNtB6_5Debug3fmtBA_, symObjAddr: 0x17E20, symBinAddr: 0x5B3A0, symSize: 0x20 }
  - { offset: 0xAAC7F, size: 0x8, addend: 0x0, symName: __RNvXsq_NtCsieiGu2EXtoJ_4core3fmtSNtNtCsdGrGZaRBwMb_3syn5error12ErrorMessageNtB5_5Debug3fmtBz_, symObjAddr: 0x19CE0, symBinAddr: 0x5B910, symSize: 0x80 }
  - { offset: 0xABC5B, size: 0x8, addend: 0x0, symName: __RINvNtCsieiGu2EXtoJ_4core3mem7replaceINtNtCslJiobkLta79_5alloc3vec3VecNtNtCsdGrGZaRBwMb_3syn4attr9AttributeEEB1a_, symObjAddr: 0x1450, symBinAddr: 0x473E0, symSize: 0x40 }
  - { offset: 0xABCA1, size: 0x8, addend: 0x0, symName: __RINvNtCsieiGu2EXtoJ_4core3mem7replaceNtNtCsdGrGZaRBwMb_3syn4expr4ExprEBD_, symObjAddr: 0x1490, symBinAddr: 0x47420, symSize: 0x50 }
  - { offset: 0xAC114, size: 0x8, addend: 0x0, symName: __RNvXs_NtNtCsieiGu2EXtoJ_4core5slice4iterRSNtNtCsdGrGZaRBwMb_3syn4attr9AttributeNtNtNtNtB8_4iter6traits7collect12IntoIterator9into_iterBI_, symObjAddr: 0x196F0, symBinAddr: 0x5B820, symSize: 0x50 }
  - { offset: 0xAC2F7, size: 0x8, addend: 0x0, symName: __RNvMNtCsieiGu2EXtoJ_4core5sliceSNtNtCsdGrGZaRBwMb_3syn4attr9Attribute4iterBy_, symObjAddr: 0x4080, symBinAddr: 0x48C30, symSize: 0x20 }
  - { offset: 0xAC32E, size: 0x8, addend: 0x0, symName: __RNvMNtCsieiGu2EXtoJ_4core5sliceSTNtNtCsdGrGZaRBwMb_3syn8lifetime8LifetimeNtNtBz_5token4PlusE4iterBz_, symObjAddr: 0x40C0, symBinAddr: 0x48C50, symSize: 0x20 }
  - { offset: 0xAD974, size: 0x8, addend: 0x0, symName: __RNvXsB_NtCslJiobkLta79_5alloc6stringNtNtCsieiGu2EXtoJ_4core3fmt9ArgumentsNtB5_12SpecToString14spec_to_stringCsdGrGZaRBwMb_3syn, symObjAddr: 0x19170, symBinAddr: 0x5B5B0, symSize: 0x40 }
  - { offset: 0xAD9A8, size: 0x8, addend: 0x0, symName: __RNvXsw_NtCslJiobkLta79_5alloc6stringNtNtCsdGrGZaRBwMb_3syn5error5ErrorNtB5_8ToString9to_stringBC_, symObjAddr: 0x19D60, symBinAddr: 0x5B990, symSize: 0x30 }
  - { offset: 0xAD9DF, size: 0x8, addend: 0x0, symName: __RNvXsw_NtCslJiobkLta79_5alloc6stringNtNtCsieiGu2EXtoJ_4core3fmt9ArgumentsNtB5_8ToString9to_stringCsdGrGZaRBwMb_3syn, symObjAddr: 0x19D90, symBinAddr: 0x5B9C0, symSize: 0x30 }
  - { offset: 0xADA1C, size: 0x8, addend: 0x0, symName: __RNvXsx_NtCslJiobkLta79_5alloc6stringNtNtCsdGrGZaRBwMb_3syn5error5ErrorNtB5_12SpecToString14spec_to_stringBC_, symObjAddr: 0x19DC0, symBinAddr: 0x5B9F0, symSize: 0x120 }
  - { offset: 0xADBAC, size: 0x8, addend: 0x0, symName: __RINvMNtCslJiobkLta79_5alloc5sliceSNtNtCsdGrGZaRBwMb_3syn5error12ErrorMessage8into_vecNtNtB5_5alloc6GlobalEBA_, symObjAddr: 0xD50, symBinAddr: 0x46D70, symSize: 0x40 }
  - { offset: 0xAE731, size: 0x8, addend: 0x0, symName: __RINvNtNtCsdGrGZaRBwMb_3syn5token7parsing5punctKj1_EB6_, symObjAddr: 0x14E0, symBinAddr: 0x47470, symSize: 0x150 }
  - { offset: 0xAE7AB, size: 0x8, addend: 0x0, symName: __RINvNtNtCsdGrGZaRBwMb_3syn5token7parsing5punctKj2_EB6_, symObjAddr: 0x1630, symBinAddr: 0x475C0, symSize: 0x150 }
  - { offset: 0xAE825, size: 0x8, addend: 0x0, symName: __RINvNtNtCsdGrGZaRBwMb_3syn5token7parsing5punctKj3_EB6_, symObjAddr: 0x1780, symBinAddr: 0x47710, symSize: 0x170 }
  - { offset: 0xAE8A5, size: 0x8, addend: 0x0, symName: __RNCNvNtNtCsdGrGZaRBwMb_3syn5token7parsing12punct_helper0B7_, symObjAddr: 0x27E0, symBinAddr: 0x479C0, symSize: 0x4B0 }
  - { offset: 0xAEA08, size: 0x8, addend: 0x0, symName: __RNCNvNtNtCsdGrGZaRBwMb_3syn5token7parsing7keyword0B7_, symObjAddr: 0x2C90, symBinAddr: 0x47E70, symSize: 0x2E0 }
  - { offset: 0xAEAAF, size: 0x8, addend: 0x0, symName: __RNvNtNtCsdGrGZaRBwMb_3syn5token7parsing10peek_punct, symObjAddr: 0x16550, symBinAddr: 0x59D60, symSize: 0x250 }
  - { offset: 0xAEB50, size: 0x8, addend: 0x0, symName: __RNvNtNtCsdGrGZaRBwMb_3syn5token7parsing12peek_keyword, symObjAddr: 0x167A0, symBinAddr: 0x59FB0, symSize: 0x100 }
  - { offset: 0xAEBB5, size: 0x8, addend: 0x0, symName: __RNvNtNtCsdGrGZaRBwMb_3syn5token7parsing12punct_helper, symObjAddr: 0x168A0, symBinAddr: 0x5A0B0, symSize: 0x50 }
  - { offset: 0xAEC01, size: 0x8, addend: 0x0, symName: __RNvNtNtCsdGrGZaRBwMb_3syn5token7parsing7keyword, symObjAddr: 0x168F0, symBinAddr: 0x5A100, symSize: 0x40 }
  - { offset: 0xAEC44, size: 0x8, addend: 0x0, symName: __RNvNtNtCsdGrGZaRBwMb_3syn5token8printing5delim, symObjAddr: 0x16930, symBinAddr: 0x5A140, symSize: 0xC0 }
  - { offset: 0xAECB4, size: 0x8, addend: 0x0, symName: __RNvNtNtCsdGrGZaRBwMb_3syn5token8printing5punct, symObjAddr: 0x169F0, symBinAddr: 0x5A200, symSize: 0x2A0 }
  - { offset: 0xAEE4F, size: 0x8, addend: 0x0, symName: __RNvNtNtCsdGrGZaRBwMb_3syn5token8printing7keyword, symObjAddr: 0x16C90, symBinAddr: 0x5A4A0, symSize: 0x60 }
  - { offset: 0xAEE9D, size: 0x8, addend: 0x0, symName: __RNvXsq_NtCsdGrGZaRBwMb_3syn5tokenNtNtB7_8lifetime8LifetimeNtB5_5Token4peek, symObjAddr: 0x19BC0, symBinAddr: 0x5B870, symSize: 0x80 }
  - { offset: 0xAEEC9, size: 0x8, addend: 0x0, symName: __RNvXsq_NtCsdGrGZaRBwMb_3syn5tokenNtNtB7_8lifetime8LifetimeNtB5_5Token7display, symObjAddr: 0x19C40, symBinAddr: 0x5B8F0, symSize: 0x20 }
  - { offset: 0xAF319, size: 0x8, addend: 0x0, symName: __RNvXNtNtCsdGrGZaRBwMb_3syn8lifetime7parsingNtB4_8LifetimeNtNtB6_5parse5Parse5parse, symObjAddr: 0x17940, symBinAddr: 0x5B150, symSize: 0x30 }
  - { offset: 0xAF351, size: 0x8, addend: 0x0, symName: __RNvXNtNtCsdGrGZaRBwMb_3syn8lifetime8printingNtB4_8LifetimeNtNtCs9OU1sGv5X54_5quote9to_tokens8ToTokens9to_tokens, symObjAddr: 0x17970, symBinAddr: 0x5B180, symSize: 0x60 }
  - { offset: 0xAF38E, size: 0x8, addend: 0x0, symName: __RNvXs0_NtCsdGrGZaRBwMb_3syn8lifetimeNtB5_8LifetimeNtNtCsieiGu2EXtoJ_4core5clone5Clone5clone, symObjAddr: 0x17AF0, symBinAddr: 0x5B2B0, symSize: 0x60 }
  - { offset: 0xB0943, size: 0x8, addend: 0x0, symName: __RNCNvNtNtCsdGrGZaRBwMb_3syn4expr7parsing11multi_index0B7_, symObjAddr: 0x27B0, symBinAddr: 0x47990, symSize: 0x30 }
  - { offset: 0xB098E, size: 0x8, addend: 0x0, symName: __RNCNvXsA_NtNtCsdGrGZaRBwMb_3syn4expr7parsingNtB9_5IndexNtNtBb_5parse5Parse5parse0Bb_, symObjAddr: 0x3030, symBinAddr: 0x48210, symSize: 0x50 }
  - { offset: 0xB09CF, size: 0x8, addend: 0x0, symName: __RNvNtNtCsdGrGZaRBwMb_3syn4expr7parsing10check_cast, symObjAddr: 0x5E90, symBinAddr: 0x496A0, symSize: 0x300 }
  - { offset: 0xB0A78, size: 0x8, addend: 0x0, symName: __RNvNtNtCsdGrGZaRBwMb_3syn4expr7parsing10expr_attrs, symObjAddr: 0x6190, symBinAddr: 0x499A0, symSize: 0x200 }
  - { offset: 0xB0ADC, size: 0x8, addend: 0x0, symName: __RNvNtNtCsdGrGZaRBwMb_3syn4expr7parsing10expr_break, symObjAddr: 0x6390, symBinAddr: 0x49BA0, symSize: 0x760 }
  - { offset: 0xB0C71, size: 0x8, addend: 0x0, symName: __RNvNtNtCsdGrGZaRBwMb_3syn4expr7parsing10expr_group, symObjAddr: 0x6AF0, symBinAddr: 0x4A300, symSize: 0x9C0 }
  - { offset: 0xB0E40, size: 0x8, addend: 0x0, symName: __RNvNtNtCsdGrGZaRBwMb_3syn4expr7parsing10expr_range, symObjAddr: 0x74B0, symBinAddr: 0x4ACC0, symSize: 0x260 }
  - { offset: 0xB0F2E, size: 0x8, addend: 0x0, symName: __RNvNtNtCsdGrGZaRBwMb_3syn4expr7parsing10expr_unary, symObjAddr: 0x7710, symBinAddr: 0x4AF20, symSize: 0x340 }
  - { offset: 0xB0FD8, size: 0x8, addend: 0x0, symName: __RNvNtNtCsdGrGZaRBwMb_3syn4expr7parsing10parse_expr, symObjAddr: 0x7A50, symBinAddr: 0x4B260, symSize: 0x12D0 }
  - { offset: 0xB1358, size: 0x8, addend: 0x0, symName: __RNvNtNtCsdGrGZaRBwMb_3syn4expr7parsing10unary_expr, symObjAddr: 0x8D20, symBinAddr: 0x4C530, symSize: 0xC50 }
  - { offset: 0xB1578, size: 0x8, addend: 0x0, symName: __RNvNtNtCsdGrGZaRBwMb_3syn4expr7parsing11closure_arg, symObjAddr: 0x9970, symBinAddr: 0x4D180, symSize: 0x1330 }
  - { offset: 0xB17FA, size: 0x8, addend: 0x0, symName: __RNvNtNtCsdGrGZaRBwMb_3syn4expr7parsing11expr_become, symObjAddr: 0xACA0, symBinAddr: 0x4E4B0, symSize: 0x290 }
  - { offset: 0xB188C, size: 0x8, addend: 0x0, symName: __RNvNtNtCsdGrGZaRBwMb_3syn4expr7parsing11multi_index, symObjAddr: 0xAF30, symBinAddr: 0x4E740, symSize: 0x8E0 }
  - { offset: 0xB1A34, size: 0x8, addend: 0x0, symName: __RNvNtNtCsdGrGZaRBwMb_3syn4expr7parsing12atom_labeled, symObjAddr: 0xB810, symBinAddr: 0x4F020, symSize: 0x8D0 }
  - { offset: 0xB1B49, size: 0x8, addend: 0x0, symName: __RNvNtNtCsdGrGZaRBwMb_3syn4expr7parsing12expr_builtin, symObjAddr: 0xC0E0, symBinAddr: 0x4F8F0, symSize: 0x620 }
  - { offset: 0xB1C74, size: 0x8, addend: 0x0, symName: __RNvNtNtCsdGrGZaRBwMb_3syn4expr7parsing12expr_closure, symObjAddr: 0xC700, symBinAddr: 0x4FF10, symSize: 0x12F0 }
  - { offset: 0xB2056, size: 0x8, addend: 0x0, symName: __RNvNtNtCsdGrGZaRBwMb_3syn4expr7parsing12trailer_expr, symObjAddr: 0xD9F0, symBinAddr: 0x51200, symSize: 0x740 }
  - { offset: 0xB220B, size: 0x8, addend: 0x0, symName: __RNvNtNtCsdGrGZaRBwMb_3syn4expr7parsing14ambiguous_expr, symObjAddr: 0xE130, symBinAddr: 0x51940, symSize: 0x1C0 }
  - { offset: 0xB22A5, size: 0x8, addend: 0x0, symName: __RNvNtNtCsdGrGZaRBwMb_3syn4expr7parsing14paren_or_tuple, symObjAddr: 0xE2F0, symBinAddr: 0x51B00, symSize: 0x9A0 }
  - { offset: 0xB2444, size: 0x8, addend: 0x0, symName: __RNvNtNtCsdGrGZaRBwMb_3syn4expr7parsing14trailer_helper, symObjAddr: 0xEC90, symBinAddr: 0x524A0, symSize: 0x22E0 }
  - { offset: 0xB283B, size: 0x8, addend: 0x0, symName: __RNvNtNtCsdGrGZaRBwMb_3syn4expr7parsing15array_or_repeat, symObjAddr: 0x10F70, symBinAddr: 0x54780, symSize: 0xD60 }
  - { offset: 0xB2A7E, size: 0x8, addend: 0x0, symName: __RNvNtNtCsdGrGZaRBwMb_3syn4expr7parsing15parse_binop_rhs, symObjAddr: 0x11CD0, symBinAddr: 0x554E0, symSize: 0x4B0 }
  - { offset: 0xB2B84, size: 0x8, addend: 0x0, symName: __RNvNtNtCsdGrGZaRBwMb_3syn4expr7parsing15parse_range_end, symObjAddr: 0x12180, symBinAddr: 0x55990, symSize: 0x3F0 }
  - { offset: 0xB2C0C, size: 0x8, addend: 0x0, symName: __RNvNtNtCsdGrGZaRBwMb_3syn4expr7parsing15peek_precedence, symObjAddr: 0x12570, symBinAddr: 0x55D80, symSize: 0x190 }
  - { offset: 0xB2C50, size: 0x8, addend: 0x0, symName: __RNvNtNtCsdGrGZaRBwMb_3syn4expr7parsing18expr_struct_helper, symObjAddr: 0x12700, symBinAddr: 0x55F10, symSize: 0xC50 }
  - { offset: 0xB2DB2, size: 0x8, addend: 0x0, symName: __RNvNtNtCsdGrGZaRBwMb_3syn4expr7parsing22continue_parsing_early, symObjAddr: 0x13350, symBinAddr: 0x56B60, symSize: 0x140 }
  - { offset: 0xB2DF6, size: 0x8, addend: 0x0, symName: __RNvNtNtCsdGrGZaRBwMb_3syn4expr7parsing23path_or_macro_or_struct, symObjAddr: 0x13490, symBinAddr: 0x56CA0, symSize: 0x290 }
  - { offset: 0xB2E98, size: 0x8, addend: 0x0, symName: __RNvNtNtCsdGrGZaRBwMb_3syn4expr7parsing31rest_of_path_or_macro_or_struct, symObjAddr: 0x13720, symBinAddr: 0x56F30, symSize: 0x720 }
  - { offset: 0xB2F63, size: 0x8, addend: 0x0, symName: __RNvNtNtCsdGrGZaRBwMb_3syn4expr7parsing32parse_with_earlier_boundary_rule, symObjAddr: 0x13E40, symBinAddr: 0x57650, symSize: 0x1540 }
  - { offset: 0xB323A, size: 0x8, addend: 0x0, symName: __RNvNtNtCsdGrGZaRBwMb_3syn4expr7parsing8expr_let, symObjAddr: 0x15380, symBinAddr: 0x58B90, symSize: 0x780 }
  - { offset: 0xB337F, size: 0x8, addend: 0x0, symName: __RNvNtNtCsdGrGZaRBwMb_3syn4expr7parsing9atom_expr, symObjAddr: 0x15B00, symBinAddr: 0x59310, symSize: 0xA50 }
  - { offset: 0xB361C, size: 0x8, addend: 0x0, symName: __RNcNtNtNtCsdGrGZaRBwMb_3syn4attr4Meta4List0B7_, symObjAddr: 0x3330, symBinAddr: 0x48260, symSize: 0x40 }
  - { offset: 0xB364D, size: 0x8, addend: 0x0, symName: __RNcNtNtNtCsdGrGZaRBwMb_3syn4attr4Meta9NameValue0B7_, symObjAddr: 0x3370, symBinAddr: 0x482A0, symSize: 0x30 }
  - { offset: 0xB3684, size: 0x8, addend: 0x0, symName: __RNvNvXs1_NtCsdGrGZaRBwMb_3syn4attrRSNtB7_9AttributeNtB7_11FilterAttrs5inner8is_inner, symObjAddr: 0x175D0, symBinAddr: 0x5ADE0, symSize: 0x40 }
  - { offset: 0xB36B8, size: 0x8, addend: 0x0, symName: __RNvNvXs1_NtCsdGrGZaRBwMb_3syn4attrRSNtB7_9AttributeNtB7_11FilterAttrs5outer8is_outer, symObjAddr: 0x17610, symBinAddr: 0x5AE20, symSize: 0x40 }
  - { offset: 0xB36E7, size: 0x8, addend: 0x0, symName: __RNvXs1_NtCsdGrGZaRBwMb_3syn4attrRSNtB5_9AttributeNtB5_11FilterAttrs5inner, symObjAddr: 0x181A0, symBinAddr: 0x5B3C0, symSize: 0x60 }
  - { offset: 0xB3715, size: 0x8, addend: 0x0, symName: __RNvXs1_NtCsdGrGZaRBwMb_3syn4attrRSNtB5_9AttributeNtB5_11FilterAttrs5outer, symObjAddr: 0x18200, symBinAddr: 0x5B420, symSize: 0x60 }
  - { offset: 0xB374E, size: 0x8, addend: 0x0, symName: __RNvXNtNtCsdGrGZaRBwMb_3syn4attr7parsingNtB4_4MetaNtNtB6_5parse5Parse5parse, symObjAddr: 0x176B0, symBinAddr: 0x5AEC0, symSize: 0x200 }
  - { offset: 0xB37E5, size: 0x8, addend: 0x0, symName: __RNvXNtNtCsdGrGZaRBwMb_3syn4attr8printingNtB4_9AttributeNtNtCs9OU1sGv5X54_5quote9to_tokens8ToTokens9to_tokens, symObjAddr: 0x178B0, symBinAddr: 0x5B0C0, symSize: 0x90 }
  - { offset: 0xB3842, size: 0x8, addend: 0x0, symName: __RNvXs0_NtNtCsdGrGZaRBwMb_3syn4attr8printingNtB7_8MetaListNtNtCs9OU1sGv5X54_5quote9to_tokens8ToTokens9to_tokens, symObjAddr: 0x17D70, symBinAddr: 0x5B330, symSize: 0x70 }
  - { offset: 0xB3881, size: 0x8, addend: 0x0, symName: __RNvXs1_NtNtCsdGrGZaRBwMb_3syn4attr8printingNtB7_13MetaNameValueNtNtCs9OU1sGv5X54_5quote9to_tokens8ToTokens9to_tokens, symObjAddr: 0x182E0, symBinAddr: 0x5B4B0, symSize: 0x70 }
  - { offset: 0xB38C0, size: 0x8, addend: 0x0, symName: __RNvXs_NtNtCsdGrGZaRBwMb_3syn4attr8printingNtB6_4MetaNtNtCs9OU1sGv5X54_5quote9to_tokens8ToTokens9to_tokens, symObjAddr: 0x19640, symBinAddr: 0x5B770, symSize: 0xB0 }
  - { offset: 0xB6265, size: 0x8, addend: 0x0, symName: __RINvNtCsdGrGZaRBwMb_3syn5error4new2ReEB4_, symObjAddr: 0xE60, symBinAddr: 0x46DF0, symSize: 0x80 }
  - { offset: 0xB62BA, size: 0x8, addend: 0x0, symName: __RINvNtCsdGrGZaRBwMb_3syn5error6new_atNtNtCsieiGu2EXtoJ_4core3fmt9ArgumentsEB4_, symObjAddr: 0xEE0, symBinAddr: 0x46E70, symSize: 0x1E0 }
  - { offset: 0xB636C, size: 0x8, addend: 0x0, symName: __RINvNtCsdGrGZaRBwMb_3syn5error6new_atNtNtCslJiobkLta79_5alloc6string6StringEB4_, symObjAddr: 0x10C0, symBinAddr: 0x47050, symSize: 0x1E0 }
  - { offset: 0xB641E, size: 0x8, addend: 0x0, symName: __RINvNtCsdGrGZaRBwMb_3syn5error6new_atReEB4_, symObjAddr: 0x12A0, symBinAddr: 0x47230, symSize: 0x1B0 }
  - { offset: 0xB64DF, size: 0x8, addend: 0x0, symName: __RNCNvNvMNtCsdGrGZaRBwMb_3syn5errorNtB6_5Error11new_spanned11new_spanned0B8_, symObjAddr: 0x2F70, symBinAddr: 0x48150, symSize: 0x60 }
  - { offset: 0xB6516, size: 0x8, addend: 0x0, symName: __RNCNvNvMNtCsdGrGZaRBwMb_3syn5errorNtB6_5Error11new_spanned11new_spanneds_0B8_, symObjAddr: 0x2FD0, symBinAddr: 0x481B0, symSize: 0x60 }
  - { offset: 0xB655C, size: 0x8, addend: 0x0, symName: __RNvNvMNtCsdGrGZaRBwMb_3syn5errorNtB4_5Error11new_spanned11new_spanned, symObjAddr: 0x16CF0, symBinAddr: 0x5A500, symSize: 0x2E0 }
  - { offset: 0xB65DE, size: 0x8, addend: 0x0, symName: __RNvNvMNtCsdGrGZaRBwMb_3syn5errorNtB4_5Error3new3new, symObjAddr: 0x16FD0, symBinAddr: 0x5A7E0, symSize: 0x1E0 }
  - { offset: 0xB6620, size: 0x8, addend: 0x0, symName: __RNvNvNtCsdGrGZaRBwMb_3syn5error4new24new2, symObjAddr: 0x173E0, symBinAddr: 0x5ABF0, symSize: 0x1F0 }
  - { offset: 0xB6673, size: 0x8, addend: 0x0, symName: __RNvXs0_NtCsdGrGZaRBwMb_3syn5errorNtB5_5ErrorNtNtCsieiGu2EXtoJ_4core3fmt5Debug3fmt, symObjAddr: 0x17A20, symBinAddr: 0x5B1E0, symSize: 0xD0 }
  - { offset: 0xB66B6, size: 0x8, addend: 0x0, symName: __RNvXs1_NtCsdGrGZaRBwMb_3syn5errorNtB5_12ErrorMessageNtNtCsieiGu2EXtoJ_4core3fmt5Debug3fmt, symObjAddr: 0x18260, symBinAddr: 0x5B480, symSize: 0x30 }
  - { offset: 0xB66F9, size: 0x8, addend: 0x0, symName: __RNvXs2_NtCsdGrGZaRBwMb_3syn5errorNtB5_5ErrorNtNtCsieiGu2EXtoJ_4core3fmt7Display3fmt, symObjAddr: 0x18590, symBinAddr: 0x5B520, symSize: 0x50 }
  - { offset: 0xB673C, size: 0x8, addend: 0x0, symName: __RNvXs8_NtCsdGrGZaRBwMb_3syn5errorNtB5_5ErrorINtNtCsieiGu2EXtoJ_4core7convert4FromNtCsaKzlTDPUHDb_11proc_macro28LexErrorE4from, symObjAddr: 0x19000, symBinAddr: 0x5B570, symSize: 0x40 }
  - { offset: 0xB6F1C, size: 0x8, addend: 0x0, symName: __RNCNvMNtCsdGrGZaRBwMb_3syn9lookaheadNtB4_10Lookahead15error0B6_, symObjAddr: 0x26A0, symBinAddr: 0x47880, symSize: 0x110 }
  - { offset: 0xB6F5B, size: 0x8, addend: 0x0, symName: __RNvNtCsdGrGZaRBwMb_3syn9lookahead3new, symObjAddr: 0x5D20, symBinAddr: 0x49530, symSize: 0x90 }
  - { offset: 0xB6F95, size: 0x8, addend: 0x0, symName: __RNvNtCsdGrGZaRBwMb_3syn9lookahead9peek_impl, symObjAddr: 0x5DB0, symBinAddr: 0x495C0, symSize: 0xE0 }
  - { offset: 0xB6FE2, size: 0x8, addend: 0x0, symName: __RNvXs_NtCsdGrGZaRBwMb_3syn9lookaheadNtB4_14CommaSeparatedNtNtCsieiGu2EXtoJ_4core3fmt7Display3fmt, symObjAddr: 0x192F0, symBinAddr: 0x5B620, symSize: 0x150 }
  - { offset: 0xB72AB, size: 0x8, addend: 0x0, symName: __RNvNtCsdGrGZaRBwMb_3syn5ident6xid_ok, symObjAddr: 0x5C00, symBinAddr: 0x49420, symSize: 0x110 }
  - { offset: 0xB7919, size: 0x8, addend: 0x0, symName: __RINvMNtCsdGrGZaRBwMb_3syn5errorNtB3_5Error11new_spannedRNtNtB5_2ty4TypeReEB5_, symObjAddr: 0xB0, symBinAddr: 0x460D0, symSize: 0xB0 }
  - { offset: 0xB795C, size: 0x8, addend: 0x0, symName: __RINvMNtCsdGrGZaRBwMb_3syn5errorNtB3_5Error3newBt_EB5_, symObjAddr: 0x160, symBinAddr: 0x46180, symSize: 0x80 }
  - { offset: 0xB7997, size: 0x8, addend: 0x0, symName: __RINvMNtCsdGrGZaRBwMb_3syn5errorNtB3_5Error3newNtCsaKzlTDPUHDb_11proc_macro28LexErrorEB5_, symObjAddr: 0x1E0, symBinAddr: 0x46200, symSize: 0x70 }
  - { offset: 0xB7ACB, size: 0x8, addend: 0x0, symName: __RINvMNtCsdGrGZaRBwMb_3syn5errorNtB3_5Error3newNtNtCsieiGu2EXtoJ_4core3fmt9ArgumentsEB5_, symObjAddr: 0x250, symBinAddr: 0x46270, symSize: 0x70 }
  - { offset: 0xB7B06, size: 0x8, addend: 0x0, symName: __RINvMNtCsdGrGZaRBwMb_3syn5errorNtB3_5Error3newNtNtCslJiobkLta79_5alloc6string6StringEB5_, symObjAddr: 0x2C0, symBinAddr: 0x462E0, symSize: 0x80 }
  - { offset: 0xB7B41, size: 0x8, addend: 0x0, symName: __RINvMNtCsdGrGZaRBwMb_3syn5errorNtB3_5Error3newNtNtNtCsieiGu2EXtoJ_4core3num5error13ParseIntErrorEB5_, symObjAddr: 0x340, symBinAddr: 0x46360, symSize: 0x70 }
  - { offset: 0xB7B7A, size: 0x8, addend: 0x0, symName: __RINvMNtCsdGrGZaRBwMb_3syn5errorNtB3_5Error3newReEB5_, symObjAddr: 0x3B0, symBinAddr: 0x463D0, symSize: 0x70 }
  - { offset: 0xB7BF9, size: 0x8, addend: 0x0, symName: __RINvMNtCsdGrGZaRBwMb_3syn9lookaheadNtB3_10Lookahead14peekINvNtB5_5token10UnderscoreNtB3_11TokenMarkerEEB5_, symObjAddr: 0x420, symBinAddr: 0x46440, symSize: 0x30 }
  - { offset: 0xB7C4A, size: 0x8, addend: 0x0, symName: __RINvMNtCsdGrGZaRBwMb_3syn9lookaheadNtB3_10Lookahead14peekINvNtB5_5token2EqNtB3_11TokenMarkerEEB5_, symObjAddr: 0x450, symBinAddr: 0x46470, symSize: 0x30 }
  - { offset: 0xB7C9B, size: 0x8, addend: 0x0, symName: __RINvMNtCsdGrGZaRBwMb_3syn9lookaheadNtB3_10Lookahead14peekINvNtB5_5token2FnNtB3_11TokenMarkerEEB5_, symObjAddr: 0x480, symBinAddr: 0x464A0, symSize: 0x30 }
  - { offset: 0xB7CEC, size: 0x8, addend: 0x0, symName: __RINvMNtCsdGrGZaRBwMb_3syn9lookaheadNtB3_10Lookahead14peekINvNtB5_5token2GtNtB3_11TokenMarkerEEB5_, symObjAddr: 0x4B0, symBinAddr: 0x464D0, symSize: 0x30 }
  - { offset: 0xB7D3D, size: 0x8, addend: 0x0, symName: __RINvMNtCsdGrGZaRBwMb_3syn9lookaheadNtB3_10Lookahead14peekINvNtB5_5token2IfNtB3_11TokenMarkerEEB5_, symObjAddr: 0x4E0, symBinAddr: 0x46500, symSize: 0x30 }
  - { offset: 0xB7D8E, size: 0x8, addend: 0x0, symName: __RINvMNtCsdGrGZaRBwMb_3syn9lookaheadNtB3_10Lookahead14peekINvNtB5_5token2LtNtB3_11TokenMarkerEEB5_, symObjAddr: 0x510, symBinAddr: 0x46530, symSize: 0x30 }
  - { offset: 0xB7DDF, size: 0x8, addend: 0x0, symName: __RINvMNtCsdGrGZaRBwMb_3syn9lookaheadNtB3_10Lookahead14peekINvNtB5_5token3AndNtB3_11TokenMarkerEEB5_, symObjAddr: 0x540, symBinAddr: 0x46560, symSize: 0x30 }
  - { offset: 0xB7E30, size: 0x8, addend: 0x0, symName: __RINvMNtCsdGrGZaRBwMb_3syn9lookaheadNtB3_10Lookahead14peekINvNtB5_5token3DynNtB3_11TokenMarkerEEB5_, symObjAddr: 0x570, symBinAddr: 0x46590, symSize: 0x30 }
  - { offset: 0xB7E81, size: 0x8, addend: 0x0, symName: __RINvMNtCsdGrGZaRBwMb_3syn9lookaheadNtB3_10Lookahead14peekINvNtB5_5token3ForNtB3_11TokenMarkerEEB5_, symObjAddr: 0x5A0, symBinAddr: 0x465C0, symSize: 0x30 }
  - { offset: 0xB7ED2, size: 0x8, addend: 0x0, symName: __RINvMNtCsdGrGZaRBwMb_3syn9lookaheadNtB3_10Lookahead14peekINvNtB5_5token3ModNtB3_11TokenMarkerEEB5_, symObjAddr: 0x5D0, symBinAddr: 0x465F0, symSize: 0x30 }
  - { offset: 0xB7F23, size: 0x8, addend: 0x0, symName: __RINvMNtCsdGrGZaRBwMb_3syn9lookaheadNtB3_10Lookahead14peekINvNtB5_5token3MutNtB3_11TokenMarkerEEB5_, symObjAddr: 0x600, symBinAddr: 0x46620, symSize: 0x30 }
  - { offset: 0xB7F74, size: 0x8, addend: 0x0, symName: __RINvMNtCsdGrGZaRBwMb_3syn9lookaheadNtB3_10Lookahead14peekINvNtB5_5token3NotNtB3_11TokenMarkerEEB5_, symObjAddr: 0x630, symBinAddr: 0x46650, symSize: 0x30 }
  - { offset: 0xB7FC5, size: 0x8, addend: 0x0, symName: __RINvMNtCsdGrGZaRBwMb_3syn9lookaheadNtB3_10Lookahead14peekINvNtB5_5token3RefNtB3_11TokenMarkerEEB5_, symObjAddr: 0x660, symBinAddr: 0x46680, symSize: 0x30 }
  - { offset: 0xB8016, size: 0x8, addend: 0x0, symName: __RINvMNtCsdGrGZaRBwMb_3syn9lookaheadNtB3_10Lookahead14peekINvNtB5_5token3TryNtB3_11TokenMarkerEEB5_, symObjAddr: 0x690, symBinAddr: 0x466B0, symSize: 0x30 }
  - { offset: 0xB8067, size: 0x8, addend: 0x0, symName: __RINvMNtCsdGrGZaRBwMb_3syn9lookaheadNtB3_10Lookahead14peekINvNtB5_5token3UseNtB3_11TokenMarkerEEB5_, symObjAddr: 0x6C0, symBinAddr: 0x466E0, symSize: 0x30 }
  - { offset: 0xB80B8, size: 0x8, addend: 0x0, symName: __RINvMNtCsdGrGZaRBwMb_3syn9lookaheadNtB3_10Lookahead14peekINvNtB5_5token4AutoNtB3_11TokenMarkerEEB5_, symObjAddr: 0x6F0, symBinAddr: 0x46710, symSize: 0x30 }
  - { offset: 0xB8109, size: 0x8, addend: 0x0, symName: __RINvMNtCsdGrGZaRBwMb_3syn9lookaheadNtB3_10Lookahead14peekINvNtB5_5token4EnumNtB3_11TokenMarkerEEB5_, symObjAddr: 0x720, symBinAddr: 0x46740, symSize: 0x30 }
  - { offset: 0xB815A, size: 0x8, addend: 0x0, symName: __RINvMNtCsdGrGZaRBwMb_3syn9lookaheadNtB3_10Lookahead14peekINvNtB5_5token4ImplNtB3_11TokenMarkerEEB5_, symObjAddr: 0x750, symBinAddr: 0x46770, symSize: 0x30 }
  - { offset: 0xB81AB, size: 0x8, addend: 0x0, symName: __RINvMNtCsdGrGZaRBwMb_3syn9lookaheadNtB3_10Lookahead14peekINvNtB5_5token4SemiNtB3_11TokenMarkerEEB5_, symObjAddr: 0x780, symBinAddr: 0x467A0, symSize: 0x30 }
  - { offset: 0xB81FC, size: 0x8, addend: 0x0, symName: __RINvMNtCsdGrGZaRBwMb_3syn9lookaheadNtB3_10Lookahead14peekINvNtB5_5token4StarNtB3_11TokenMarkerEEB5_, symObjAddr: 0x7B0, symBinAddr: 0x467D0, symSize: 0x30 }
  - { offset: 0xB824D, size: 0x8, addend: 0x0, symName: __RINvMNtCsdGrGZaRBwMb_3syn9lookaheadNtB3_10Lookahead14peekINvNtB5_5token4TypeNtB3_11TokenMarkerEEB5_, symObjAddr: 0x7E0, symBinAddr: 0x46800, symSize: 0x30 }
  - { offset: 0xB829E, size: 0x8, addend: 0x0, symName: __RINvMNtCsdGrGZaRBwMb_3syn9lookaheadNtB3_10Lookahead14peekINvNtB5_5token5AsyncNtB3_11TokenMarkerEEB5_, symObjAddr: 0x810, symBinAddr: 0x46830, symSize: 0x30 }
  - { offset: 0xB82EF, size: 0x8, addend: 0x0, symName: __RINvMNtCsdGrGZaRBwMb_3syn9lookaheadNtB3_10Lookahead14peekINvNtB5_5token5BraceNtB3_11TokenMarkerEEB5_, symObjAddr: 0x840, symBinAddr: 0x46860, symSize: 0x30 }
  - { offset: 0xB8340, size: 0x8, addend: 0x0, symName: __RINvMNtCsdGrGZaRBwMb_3syn9lookaheadNtB3_10Lookahead14peekINvNtB5_5token5ColonNtB3_11TokenMarkerEEB5_, symObjAddr: 0x870, symBinAddr: 0x46890, symSize: 0x30 }
  - { offset: 0xB8391, size: 0x8, addend: 0x0, symName: __RINvMNtCsdGrGZaRBwMb_3syn9lookaheadNtB3_10Lookahead14peekINvNtB5_5token5CommaNtB3_11TokenMarkerEEB5_, symObjAddr: 0x8A0, symBinAddr: 0x468C0, symSize: 0x30 }
  - { offset: 0xB83E2, size: 0x8, addend: 0x0, symName: __RINvMNtCsdGrGZaRBwMb_3syn9lookaheadNtB3_10Lookahead14peekINvNtB5_5token5ConstNtB3_11TokenMarkerEEB5_, symObjAddr: 0x8D0, symBinAddr: 0x468F0, symSize: 0x30 }
  - { offset: 0xB8433, size: 0x8, addend: 0x0, symName: __RINvMNtCsdGrGZaRBwMb_3syn9lookaheadNtB3_10Lookahead14peekINvNtB5_5token5CrateNtB3_11TokenMarkerEEB5_, symObjAddr: 0x900, symBinAddr: 0x46920, symSize: 0x30 }
  - { offset: 0xB8484, size: 0x8, addend: 0x0, symName: __RINvMNtCsdGrGZaRBwMb_3syn9lookaheadNtB3_10Lookahead14peekINvNtB5_5token5MacroNtB3_11TokenMarkerEEB5_, symObjAddr: 0x930, symBinAddr: 0x46950, symSize: 0x30 }
  - { offset: 0xB84D5, size: 0x8, addend: 0x0, symName: __RINvMNtCsdGrGZaRBwMb_3syn9lookaheadNtB3_10Lookahead14peekINvNtB5_5token5MinusNtB3_11TokenMarkerEEB5_, symObjAddr: 0x960, symBinAddr: 0x46980, symSize: 0x30 }
  - { offset: 0xB8526, size: 0x8, addend: 0x0, symName: __RINvMNtCsdGrGZaRBwMb_3syn9lookaheadNtB3_10Lookahead14peekINvNtB5_5token5ParenNtB3_11TokenMarkerEEB5_, symObjAddr: 0x990, symBinAddr: 0x469B0, symSize: 0x30 }
  - { offset: 0xB8577, size: 0x8, addend: 0x0, symName: __RINvMNtCsdGrGZaRBwMb_3syn9lookaheadNtB3_10Lookahead14peekINvNtB5_5token5SuperNtB3_11TokenMarkerEEB5_, symObjAddr: 0x9C0, symBinAddr: 0x469E0, symSize: 0x30 }
  - { offset: 0xB85C8, size: 0x8, addend: 0x0, symName: __RINvMNtCsdGrGZaRBwMb_3syn9lookaheadNtB3_10Lookahead14peekINvNtB5_5token5TraitNtB3_11TokenMarkerEEB5_, symObjAddr: 0x9F0, symBinAddr: 0x46A10, symSize: 0x30 }
  - { offset: 0xB8619, size: 0x8, addend: 0x0, symName: __RINvMNtCsdGrGZaRBwMb_3syn9lookaheadNtB3_10Lookahead14peekINvNtB5_5token5UnionNtB3_11TokenMarkerEEB5_, symObjAddr: 0xA20, symBinAddr: 0x46A40, symSize: 0x30 }
  - { offset: 0xB866A, size: 0x8, addend: 0x0, symName: __RINvMNtCsdGrGZaRBwMb_3syn9lookaheadNtB3_10Lookahead14peekINvNtB5_5token5WhereNtB3_11TokenMarkerEEB5_, symObjAddr: 0xA50, symBinAddr: 0x46A70, symSize: 0x30 }
  - { offset: 0xB86BB, size: 0x8, addend: 0x0, symName: __RINvMNtCsdGrGZaRBwMb_3syn9lookaheadNtB3_10Lookahead14peekINvNtB5_5token6DotDotNtB3_11TokenMarkerEEB5_, symObjAddr: 0xA80, symBinAddr: 0x46AA0, symSize: 0x30 }
  - { offset: 0xB870C, size: 0x8, addend: 0x0, symName: __RINvMNtCsdGrGZaRBwMb_3syn9lookaheadNtB3_10Lookahead14peekINvNtB5_5token6ExternNtB3_11TokenMarkerEEB5_, symObjAddr: 0xAB0, symBinAddr: 0x46AD0, symSize: 0x30 }
  - { offset: 0xB875D, size: 0x8, addend: 0x0, symName: __RINvMNtCsdGrGZaRBwMb_3syn9lookaheadNtB3_10Lookahead14peekINvNtB5_5token6StaticNtB3_11TokenMarkerEEB5_, symObjAddr: 0xAE0, symBinAddr: 0x46B00, symSize: 0x30 }
  - { offset: 0xB87AE, size: 0x8, addend: 0x0, symName: __RINvMNtCsdGrGZaRBwMb_3syn9lookaheadNtB3_10Lookahead14peekINvNtB5_5token6StructNtB3_11TokenMarkerEEB5_, symObjAddr: 0xB10, symBinAddr: 0x46B30, symSize: 0x30 }
  - { offset: 0xB87FF, size: 0x8, addend: 0x0, symName: __RINvMNtCsdGrGZaRBwMb_3syn9lookaheadNtB3_10Lookahead14peekINvNtB5_5token6UnsafeNtB3_11TokenMarkerEEB5_, symObjAddr: 0xB40, symBinAddr: 0x46B60, symSize: 0x30 }
  - { offset: 0xB8850, size: 0x8, addend: 0x0, symName: __RINvMNtCsdGrGZaRBwMb_3syn9lookaheadNtB3_10Lookahead14peekINvNtB5_5token7BracketNtB3_11TokenMarkerEEB5_, symObjAddr: 0xB70, symBinAddr: 0x46B90, symSize: 0x30 }
  - { offset: 0xB88A1, size: 0x8, addend: 0x0, symName: __RINvMNtCsdGrGZaRBwMb_3syn9lookaheadNtB3_10Lookahead14peekINvNtB5_5token7DefaultNtB3_11TokenMarkerEEB5_, symObjAddr: 0xBA0, symBinAddr: 0x46BC0, symSize: 0x30 }
  - { offset: 0xB88F2, size: 0x8, addend: 0x0, symName: __RINvMNtCsdGrGZaRBwMb_3syn9lookaheadNtB3_10Lookahead14peekINvNtB5_5token7PathSepNtB3_11TokenMarkerEEB5_, symObjAddr: 0xBD0, symBinAddr: 0x46BF0, symSize: 0x30 }
  - { offset: 0xB8943, size: 0x8, addend: 0x0, symName: __RINvMNtCsdGrGZaRBwMb_3syn9lookaheadNtB3_10Lookahead14peekINvNtB5_5token8DotDotEqNtB3_11TokenMarkerEEB5_, symObjAddr: 0xC00, symBinAddr: 0x46C20, symSize: 0x30 }
  - { offset: 0xB8994, size: 0x8, addend: 0x0, symName: __RINvMNtCsdGrGZaRBwMb_3syn9lookaheadNtB3_10Lookahead14peekINvNtB5_5token8SelfTypeNtB3_11TokenMarkerEEB5_, symObjAddr: 0xC30, symBinAddr: 0x46C50, symSize: 0x30 }
  - { offset: 0xB89E5, size: 0x8, addend: 0x0, symName: __RINvMNtCsdGrGZaRBwMb_3syn9lookaheadNtB3_10Lookahead14peekINvNtB5_5token9SelfValueNtB3_11TokenMarkerEEB5_, symObjAddr: 0xC60, symBinAddr: 0x46C80, symSize: 0x30 }
  - { offset: 0xB8A36, size: 0x8, addend: 0x0, symName: __RINvMNtCsdGrGZaRBwMb_3syn9lookaheadNtB3_10Lookahead14peekNvNtB5_3lit3LitEB5_, symObjAddr: 0xC90, symBinAddr: 0x46CB0, symSize: 0x30 }
  - { offset: 0xB8A87, size: 0x8, addend: 0x0, symName: __RINvMNtCsdGrGZaRBwMb_3syn9lookaheadNtB3_10Lookahead14peekNvNtB5_3lit6LitStrEB5_, symObjAddr: 0xCC0, symBinAddr: 0x46CE0, symSize: 0x30 }
  - { offset: 0xB8AD8, size: 0x8, addend: 0x0, symName: __RINvMNtCsdGrGZaRBwMb_3syn9lookaheadNtB3_10Lookahead14peekNvNtB5_5ident5IdentEB5_, symObjAddr: 0xCF0, symBinAddr: 0x46D10, symSize: 0x30 }
  - { offset: 0xB8B29, size: 0x8, addend: 0x0, symName: __RINvMNtCsdGrGZaRBwMb_3syn9lookaheadNtB3_10Lookahead14peekNvNtB5_8lifetime8LifetimeEB5_, symObjAddr: 0xD20, symBinAddr: 0x46D40, symSize: 0x30 }
  - { offset: 0xB8BF9, size: 0x8, addend: 0x0, symName: __RINvMs_NtNtCsieiGu2EXtoJ_4core3fmt2rtNtB7_9Arguments6new_v1Kj2_KBW_ECsdGrGZaRBwMb_3syn, symObjAddr: 0xD90, symBinAddr: 0x46DB0, symSize: 0x40 }
  - { offset: 0xB8ED0, size: 0x8, addend: 0x0, symName: __RNvMNtCsdGrGZaRBwMb_3syn4attrNtB2_9Attribute11parse_inner, symObjAddr: 0x33A0, symBinAddr: 0x482D0, symSize: 0x160 }
  - { offset: 0xB8F29, size: 0x8, addend: 0x0, symName: __RNvMNtCsdGrGZaRBwMb_3syn4attrNtB2_9Attribute11parse_outer, symObjAddr: 0x3500, symBinAddr: 0x48430, symSize: 0x1E0 }
  - { offset: 0xB8F9C, size: 0x8, addend: 0x0, symName: __RNvMNtCsdGrGZaRBwMb_3syn5errorNtB2_5Error16to_compile_error, symObjAddr: 0x3700, symBinAddr: 0x48610, symSize: 0x110 }
  - { offset: 0xB8FFE, size: 0x8, addend: 0x0, symName: __RNvMNtCsdGrGZaRBwMb_3syn5errorNtB2_5Error18into_compile_error, symObjAddr: 0x3810, symBinAddr: 0x48720, symSize: 0x60 }
  - { offset: 0xB9049, size: 0x8, addend: 0x0, symName: __RNvMNtCsdGrGZaRBwMb_3syn9lookaheadNtB2_10Lookahead15error, symObjAddr: 0x3BD0, symBinAddr: 0x48780, symSize: 0x4B0 }
  - { offset: 0xB91C8, size: 0x8, addend: 0x0, symName: __RNvMs7_NtCsieiGu2EXtoJ_4core4cellINtB5_4CellINtNtB7_6option6OptionINtNtCslJiobkLta79_5alloc2rc2RcIBw_NtNtCsdGrGZaRBwMb_3syn5parse10UnexpectedEEEE3newB1F_, symObjAddr: 0x42D0, symBinAddr: 0x48C70, symSize: 0x10 }
  - { offset: 0xB9229, size: 0x8, addend: 0x0, symName: __RNvMs7_NtCsieiGu2EXtoJ_4core4cellINtB5_4CellINtNtB7_6option6OptionINtNtCslJiobkLta79_5alloc2rc2RcIBw_NtNtCsdGrGZaRBwMb_3syn5parse10UnexpectedEEEE3setB1F_, symObjAddr: 0x42E0, symBinAddr: 0x48C80, symSize: 0x30 }
  - { offset: 0xB92AF, size: 0x8, addend: 0x0, symName: __RNvMs7_NtCsieiGu2EXtoJ_4core4cellINtB5_4CellNtNtCsdGrGZaRBwMb_3syn5parse10UnexpectedE3newBK_, symObjAddr: 0x4310, symBinAddr: 0x48CB0, symSize: 0x30 }
  - { offset: 0xB9325, size: 0x8, addend: 0x0, symName: __RNvMs7_NtCsieiGu2EXtoJ_4core4cellINtB5_4CellNtNtCsdGrGZaRBwMb_3syn5parse10UnexpectedE3setBK_, symObjAddr: 0x4340, symBinAddr: 0x48CE0, symSize: 0x40 }
  - { offset: 0xB939C, size: 0x8, addend: 0x0, symName: __RNvMs7_NtCsieiGu2EXtoJ_4core4cellINtB5_4CellNtNtCsdGrGZaRBwMb_3syn6buffer6CursorE3newBK_, symObjAddr: 0x4380, symBinAddr: 0x48D20, symSize: 0x20 }
  - { offset: 0xB93FD, size: 0x8, addend: 0x0, symName: __RNvMs7_NtCsieiGu2EXtoJ_4core4cellINtB5_4CellNtNtCsdGrGZaRBwMb_3syn6buffer6CursorE3setBK_, symObjAddr: 0x43A0, symBinAddr: 0x48D40, symSize: 0x20 }
  - { offset: 0xB9473, size: 0x8, addend: 0x0, symName: __RNvMs8_NtCsieiGu2EXtoJ_4core4cellINtB5_4CellNtNtCsdGrGZaRBwMb_3syn6buffer6CursorE3getBK_, symObjAddr: 0x43C0, symBinAddr: 0x48D60, symSize: 0x20 }
  - { offset: 0xB94D3, size: 0x8, addend: 0x0, symName: __RNvMs_NtCsdGrGZaRBwMb_3syn5errorNtB4_12ErrorMessage16to_compile_error, symObjAddr: 0x4C20, symBinAddr: 0x48D80, symSize: 0x4C0 }
  - { offset: 0xB95A7, size: 0x8, addend: 0x0, symName: __RNvMsa_NtCsieiGu2EXtoJ_4core4cellINtB5_4CellINtNtB7_6option6OptionINtNtCslJiobkLta79_5alloc2rc2RcIBw_NtNtCsdGrGZaRBwMb_3syn5parse10UnexpectedEEEE4takeB1F_, symObjAddr: 0x50E0, symBinAddr: 0x49240, symSize: 0x30 }
  - { offset: 0xB9636, size: 0x8, addend: 0x0, symName: __RNvMsa_NtCsieiGu2EXtoJ_4core4cellINtB5_4CellNtNtCsdGrGZaRBwMb_3syn5parse10UnexpectedE4takeBK_, symObjAddr: 0x5110, symBinAddr: 0x49270, symSize: 0x50 }
  - { offset: 0xB969D, size: 0x8, addend: 0x0, symName: __RNvMsh_NtCsieiGu2EXtoJ_4core4cellINtB5_7RefCellINtNtCslJiobkLta79_5alloc3vec3VecReEE10into_innerCsdGrGZaRBwMb_3syn, symObjAddr: 0x5160, symBinAddr: 0x492C0, symSize: 0x20 }
  - { offset: 0xB96D9, size: 0x8, addend: 0x0, symName: __RNvMsh_NtCsieiGu2EXtoJ_4core4cellINtB5_7RefCellINtNtCslJiobkLta79_5alloc3vec3VecReEE3newCsdGrGZaRBwMb_3syn, symObjAddr: 0x5180, symBinAddr: 0x492E0, symSize: 0x40 }
  - { offset: 0xB974E, size: 0x8, addend: 0x0, symName: __RNvMsi_NtCsieiGu2EXtoJ_4core4cellINtB5_7RefCellINtNtCslJiobkLta79_5alloc3vec3VecReEE10borrow_mutCsdGrGZaRBwMb_3syn, symObjAddr: 0x51C0, symBinAddr: 0x49320, symSize: 0x60 }
  - { offset: 0xB9825, size: 0x8, addend: 0x0, symName: __RNvMsi_NtCsieiGu2EXtoJ_4core4cellINtB5_7RefCellINtNtCslJiobkLta79_5alloc3vec3VecReEE14try_borrow_mutCsdGrGZaRBwMb_3syn, symObjAddr: 0x5220, symBinAddr: 0x49380, symSize: 0xA0 }
  - { offset: 0xB9A56, size: 0x8, addend: 0x0, symName: __RNvXNtCs9OU1sGv5X54_5quote9to_tokensRNtNtCsdGrGZaRBwMb_3syn4attr9AttributeNtB2_8ToTokens9to_tokensBD_, symObjAddr: 0x17650, symBinAddr: 0x5AE60, symSize: 0x30 }
  - { offset: 0xB9A95, size: 0x8, addend: 0x0, symName: __RNvXNtCs9OU1sGv5X54_5quote9to_tokensRNtNtCsdGrGZaRBwMb_3syn8lifetime8LifetimeNtB2_8ToTokens9to_tokensBD_, symObjAddr: 0x17680, symBinAddr: 0x5AE90, symSize: 0x30 }
  - { offset: 0xB9FF1, size: 0x8, addend: 0x0, symName: __RINvMNtCsieiGu2EXtoJ_4core3stre3getINtNtNtB5_3ops5range5RangejEECsdGrGZaRBwMb_3syn, symObjAddr: 0x0, symBinAddr: 0x5BB10, symSize: 0x40 }
  - { offset: 0xBE13A, size: 0x8, addend: 0x0, symName: __RNCNvNtNtCsdGrGZaRBwMb_3syn4item7parsing22parse_rest_of_receiver0B7_, symObjAddr: 0x2A0, symBinAddr: 0x5BDB0, symSize: 0x30 }
  - { offset: 0xBE185, size: 0x8, addend: 0x0, symName: __RNCNvXsp_NtNtCsdGrGZaRBwMb_3syn4item7parsingNtB9_11TraitItemFnNtNtBb_5parse5Parse5parse0Bb_, symObjAddr: 0x3A0, symBinAddr: 0x5BE80, symSize: 0x50 }
  - { offset: 0xBE28E, size: 0x8, addend: 0x0, symName: __RNvNtNtCsdGrGZaRBwMb_3syn4item7parsing10parse_impl, symObjAddr: 0x31D0, symBinAddr: 0x5EB80, symSize: 0x1EA0 }
  - { offset: 0xBE6F8, size: 0x8, addend: 0x0, symName: __RNvNtNtCsdGrGZaRBwMb_3syn4item7parsing12parse_macro2, symObjAddr: 0x5070, symBinAddr: 0x60A20, symSize: 0xAA0 }
  - { offset: 0xBE8AD, size: 0x8, addend: 0x0, symName: __RNvNtNtCsdGrGZaRBwMb_3syn4item7parsing13parse_fn_args, symObjAddr: 0x5B10, symBinAddr: 0x614C0, symSize: 0xE20 }
  - { offset: 0xBEAD7, size: 0x8, addend: 0x0, symName: __RNvNtNtCsdGrGZaRBwMb_3syn4item7parsing14parse_item_use, symObjAddr: 0x6930, symBinAddr: 0x622E0, symSize: 0x8A0 }
  - { offset: 0xBECCA, size: 0x8, addend: 0x0, symName: __RNvNtNtCsdGrGZaRBwMb_3syn4item7parsing14parse_use_tree, symObjAddr: 0x71D0, symBinAddr: 0x62B80, symSize: 0x15B0 }
  - { offset: 0xBEFBD, size: 0x8, addend: 0x0, symName: __RNvNtNtCsdGrGZaRBwMb_3syn4item7parsing14peek_signature, symObjAddr: 0x8780, symBinAddr: 0x64130, symSize: 0x370 }
  - { offset: 0xBF011, size: 0x8, addend: 0x0, symName: __RNvNtNtCsdGrGZaRBwMb_3syn4item7parsing15parse_item_type, symObjAddr: 0x8AF0, symBinAddr: 0x644A0, symSize: 0x780 }
  - { offset: 0xBF148, size: 0x8, addend: 0x0, symName: __RNvNtNtCsdGrGZaRBwMb_3syn4item7parsing15parse_signature, symObjAddr: 0x9270, symBinAddr: 0x64C20, symSize: 0x1180 }
  - { offset: 0xBF4A3, size: 0x8, addend: 0x0, symName: __RNvNtNtCsdGrGZaRBwMb_3syn4item7parsing16parse_rest_of_fn, symObjAddr: 0xA3F0, symBinAddr: 0x65DA0, symSize: 0x6B0 }
  - { offset: 0xBF5EF, size: 0x8, addend: 0x0, symName: __RNvNtNtCsdGrGZaRBwMb_3syn4item7parsing18parse_impl_item_fn, symObjAddr: 0xAAA0, symBinAddr: 0x66450, symSize: 0xB30 }
  - { offset: 0xBF82E, size: 0x8, addend: 0x0, symName: __RNvNtNtCsdGrGZaRBwMb_3syn4item7parsing18parse_rest_of_item, symObjAddr: 0xB5D0, symBinAddr: 0x66F80, symSize: 0x42E0 }
  - { offset: 0xC0113, size: 0x8, addend: 0x0, symName: __RNvNtNtCsdGrGZaRBwMb_3syn4item7parsing19parse_rest_of_trait, symObjAddr: 0xF8B0, symBinAddr: 0x6B260, symSize: 0xD30 }
  - { offset: 0xC0333, size: 0x8, addend: 0x0, symName: __RNvNtNtCsdGrGZaRBwMb_3syn4item7parsing20parse_impl_item_type, symObjAddr: 0x105E0, symBinAddr: 0x6BF90, symSize: 0x6F0 }
  - { offset: 0xC045B, size: 0x8, addend: 0x0, symName: __RNvNtNtCsdGrGZaRBwMb_3syn4item7parsing20parse_receiver_begin, symObjAddr: 0x10CD0, symBinAddr: 0x6C680, symSize: 0x4C0 }
  - { offset: 0xC0576, size: 0x8, addend: 0x0, symName: __RNvNtNtCsdGrGZaRBwMb_3syn4item7parsing21parse_trait_item_type, symObjAddr: 0x11190, symBinAddr: 0x6CB40, symSize: 0x610 }
  - { offset: 0xC0660, size: 0x8, addend: 0x0, symName: __RNvNtNtCsdGrGZaRBwMb_3syn4item7parsing22parse_rest_of_receiver, symObjAddr: 0x117A0, symBinAddr: 0x6D150, symSize: 0x880 }
  - { offset: 0xC07DD, size: 0x8, addend: 0x0, symName: __RNvNtNtCsdGrGZaRBwMb_3syn4item7parsing23parse_foreign_item_type, symObjAddr: 0x12020, symBinAddr: 0x6D9D0, symSize: 0x5C0 }
  - { offset: 0xC08D5, size: 0x8, addend: 0x0, symName: __RNvNtNtCsdGrGZaRBwMb_3syn4item7parsing24parse_fn_arg_or_variadic, symObjAddr: 0x125E0, symBinAddr: 0x6DF90, symSize: 0x1000 }
  - { offset: 0xC0ADD, size: 0x8, addend: 0x0, symName: __RNvNtNtCsdGrGZaRBwMb_3syn4item7parsing25parse_rest_of_trait_alias, symObjAddr: 0x135E0, symBinAddr: 0x6EF90, symSize: 0x860 }
  - { offset: 0xC0C46, size: 0x8, addend: 0x0, symName: __RNvNtNtCsdGrGZaRBwMb_3syn4item7parsing26parse_start_of_trait_alias, symObjAddr: 0x13E40, symBinAddr: 0x6F7F0, symSize: 0x620 }
  - { offset: 0xC0DCE, size: 0x8, addend: 0x0, symName: __RNvNtNtCsdGrGZaRBwMb_3syn4item7parsing26parse_trait_or_trait_alias, symObjAddr: 0x14460, symBinAddr: 0x6FE10, symSize: 0x6C0 }
  - { offset: 0xC1065, size: 0x8, addend: 0x0, symName: __RNvXNtNtCsdGrGZaRBwMb_3syn11restriction7parsingNtB4_10VisibilityNtNtB6_5parse5Parse5parse, symObjAddr: 0x150E0, symBinAddr: 0x70610, symSize: 0x2D0 }
  - { offset: 0xC10FD, size: 0x8, addend: 0x0, symName: __RNvXNtNtCsdGrGZaRBwMb_3syn11restriction8printingNtB4_10VisibilityNtNtCs9OU1sGv5X54_5quote9to_tokens8ToTokens9to_tokens, symObjAddr: 0x153B0, symBinAddr: 0x708E0, symSize: 0x90 }
  - { offset: 0xC1173, size: 0x8, addend: 0x0, symName: __RNvXs_NtNtCsdGrGZaRBwMb_3syn11restriction8printingNtB6_13VisRestrictedNtNtCs9OU1sGv5X54_5quote9to_tokens8ToTokens9to_tokens, symObjAddr: 0x17020, symBinAddr: 0x715B0, symSize: 0x50 }
  - { offset: 0xC165B, size: 0x8, addend: 0x0, symName: __RNCNvNtNtCsdGrGZaRBwMb_3syn8generics8printing20print_const_argument0B7_, symObjAddr: 0x2D0, symBinAddr: 0x5BDE0, symSize: 0x40 }
  - { offset: 0xC16A1, size: 0x8, addend: 0x0, symName: __RNCNvXs5_NtNtCsdGrGZaRBwMb_3syn8generics8printingNtB9_10TraitBoundNtNtCs9OU1sGv5X54_5quote9to_tokens8ToTokens9to_tokens0Bb_, symObjAddr: 0x340, symBinAddr: 0x5BE20, symSize: 0x60 }
  - { offset: 0xC16DF, size: 0x8, addend: 0x0, symName: __RNvNtNtCsdGrGZaRBwMb_3syn8generics8printing20print_const_argument, symObjAddr: 0x14B20, symBinAddr: 0x704D0, symSize: 0x140 }
  - { offset: 0xC5E55, size: 0x8, addend: 0x0, symName: __RINvMNtCsieiGu2EXtoJ_4core3stre3getINtNtNtB5_3ops5range5RangejEECsdGrGZaRBwMb_3syn, symObjAddr: 0x0, symBinAddr: 0x5BB10, symSize: 0x40 }
  - { offset: 0xC5E9B, size: 0x8, addend: 0x0, symName: __RINvMNtCsieiGu2EXtoJ_4core3stre3getINtNtNtB5_3ops5range9RangeFromjEECsdGrGZaRBwMb_3syn, symObjAddr: 0x40, symBinAddr: 0x5BB50, symSize: 0x30 }
  - { offset: 0xC5EE1, size: 0x8, addend: 0x0, symName: __RINvMNtCsieiGu2EXtoJ_4core3stre5parseNtCsaKzlTDPUHDb_11proc_macro27LiteralECsdGrGZaRBwMb_3syn, symObjAddr: 0x70, symBinAddr: 0x5BB80, symSize: 0x30 }
  - { offset: 0xC5F18, size: 0x8, addend: 0x0, symName: __RINvMNtCsieiGu2EXtoJ_4core3stre5parsemECsdGrGZaRBwMb_3syn, symObjAddr: 0xA0, symBinAddr: 0x5BBB0, symSize: 0x30 }
  - { offset: 0xC5F5C, size: 0x8, addend: 0x0, symName: __RINvMNtCsieiGu2EXtoJ_4core3stre5rfindcECsdGrGZaRBwMb_3syn, symObjAddr: 0xD0, symBinAddr: 0x5BBE0, symSize: 0xD0 }
  - { offset: 0xC5FE9, size: 0x8, addend: 0x0, symName: __RINvMNtCsieiGu2EXtoJ_4core3stre5splitcECsdGrGZaRBwMb_3syn, symObjAddr: 0x1A0, symBinAddr: 0x5BCB0, symSize: 0xB0 }
  - { offset: 0xC602F, size: 0x8, addend: 0x0, symName: __RINvMNtCsieiGu2EXtoJ_4core3stre9ends_withcECsdGrGZaRBwMb_3syn, symObjAddr: 0x250, symBinAddr: 0x5BD60, symSize: 0x30 }
  - { offset: 0xC6075, size: 0x8, addend: 0x0, symName: __RNvMNtCsieiGu2EXtoJ_4core3stre3lenCsdGrGZaRBwMb_3syn, symObjAddr: 0x3F0, symBinAddr: 0x5BED0, symSize: 0x20 }
  - { offset: 0xC60A1, size: 0x8, addend: 0x0, symName: __RNvMNtCsieiGu2EXtoJ_4core3stre5bytesCsdGrGZaRBwMb_3syn, symObjAddr: 0x410, symBinAddr: 0x5BEF0, symSize: 0x20 }
  - { offset: 0xC610F, size: 0x8, addend: 0x0, symName: __RNvMNtCsieiGu2EXtoJ_4core3stre5charsCsdGrGZaRBwMb_3syn, symObjAddr: 0x430, symBinAddr: 0x5BF10, symSize: 0x20 }
  - { offset: 0xC617D, size: 0x8, addend: 0x0, symName: __RNvMNtCsieiGu2EXtoJ_4core3stre8is_emptyCsdGrGZaRBwMb_3syn, symObjAddr: 0x450, symBinAddr: 0x5BF30, symSize: 0x20 }
  - { offset: 0xC636A, size: 0x8, addend: 0x0, symName: __RNvXs_NtCsieiGu2EXtoJ_4core3streINtNtB6_7convert5AsRefShE6as_refCsdGrGZaRBwMb_3syn, symObjAddr: 0x17000, symBinAddr: 0x71590, symSize: 0x20 }
  - { offset: 0xC64B0, size: 0x8, addend: 0x0, symName: __RINvNtCsieiGu2EXtoJ_4core3cmp3minjECsdGrGZaRBwMb_3syn, symObjAddr: 0x280, symBinAddr: 0x5BD90, symSize: 0x20 }
  - { offset: 0xC65F1, size: 0x8, addend: 0x0, symName: __RNvXsa_NtCsieiGu2EXtoJ_4core3cmpNtB5_8OrderingNtB5_9PartialEq2eqCsdGrGZaRBwMb_3syn, symObjAddr: 0x17070, symBinAddr: 0x71600, symSize: 0x20 }
  - { offset: 0xC78E6, size: 0x8, addend: 0x0, symName: __RNvXsZ_NtNtCsieiGu2EXtoJ_4core3fmt3numjNtB7_5Debug3fmtCsdGrGZaRBwMb_3syn, symObjAddr: 0x16F80, symBinAddr: 0x71510, symSize: 0x80 }
  - { offset: 0xC79B8, size: 0x8, addend: 0x0, symName: __RNvXs1_NtCsieiGu2EXtoJ_4core7convertNtNtCslJiobkLta79_5alloc6string6StringINtB5_4IntoINtNtBC_3vec3VechEE4intoCsdGrGZaRBwMb_3syn, symObjAddr: 0x15F30, symBinAddr: 0x70E40, symSize: 0x20 }
  - { offset: 0xC7B0F, size: 0x8, addend: 0x0, symName: __RNvYINtNtNtCslJiobkLta79_5alloc3vec9into_iter8IntoIterNtNtCsdGrGZaRBwMb_3syn4attr9AttributeENtNtNtNtCsieiGu2EXtoJ_4core4iter6traits10exact_size17ExactSizeIterator3lenBU_, symObjAddr: 0x17570, symBinAddr: 0x71950, symSize: 0xE0 }
  - { offset: 0xC7C0F, size: 0x8, addend: 0x0, symName: __RNvYINtNtNtCslJiobkLta79_5alloc3vec9into_iter8IntoIterNtNtCsdGrGZaRBwMb_3syn8generics14TypeParamBoundENtNtNtNtCsieiGu2EXtoJ_4core4iter6traits10exact_size17ExactSizeIterator3lenBU_, symObjAddr: 0x17730, symBinAddr: 0x71A30, symSize: 0xE0 }
  - { offset: 0xC7D0F, size: 0x8, addend: 0x0, symName: __RNvYINtNtNtCslJiobkLta79_5alloc3vec9into_iter8IntoIterTNtNtCsdGrGZaRBwMb_3syn4path11PathSegmentNtNtBV_5token7PathSepEENtNtNtNtCsieiGu2EXtoJ_4core4iter6traits10exact_size17ExactSizeIterator3lenBV_, symObjAddr: 0x179D0, symBinAddr: 0x71B10, symSize: 0xE0 }
  - { offset: 0xC7E0F, size: 0x8, addend: 0x0, symName: __RNvYINtNtNtCslJiobkLta79_5alloc3vec9into_iter8IntoIterTNtNtCsdGrGZaRBwMb_3syn8generics14TypeParamBoundNtNtBV_5token4PlusEENtNtNtNtCsieiGu2EXtoJ_4core4iter6traits10exact_size17ExactSizeIterator3lenBV_, symObjAddr: 0x17AB0, symBinAddr: 0x71BF0, symSize: 0xE0 }
  - { offset: 0xC8972, size: 0x8, addend: 0x0, symName: __RNvXNvXsd_NtNtCslJiobkLta79_5alloc3vec9into_iterINtB8_8IntoIterppENtNtNtCsieiGu2EXtoJ_4core3ops4drop4Drop4dropINtB2_9DropGuardNtNtCsdGrGZaRBwMb_3syn4attr9AttributeNtNtBc_5alloc6GlobalEB12_4dropB24_, symObjAddr: 0x15640, symBinAddr: 0x70B70, symSize: 0x70 }
  - { offset: 0xC8A87, size: 0x8, addend: 0x0, symName: __RNvXNvXsd_NtNtCslJiobkLta79_5alloc3vec9into_iterINtB8_8IntoIterppENtNtNtCsieiGu2EXtoJ_4core3ops4drop4Drop4dropINtB2_9DropGuardNtNtCsdGrGZaRBwMb_3syn8generics14TypeParamBoundNtNtBc_5alloc6GlobalEB12_4dropB24_, symObjAddr: 0x15720, symBinAddr: 0x70BE0, symSize: 0x70 }
  - { offset: 0xC8B9C, size: 0x8, addend: 0x0, symName: __RNvXNvXsd_NtNtCslJiobkLta79_5alloc3vec9into_iterINtB8_8IntoIterppENtNtNtCsieiGu2EXtoJ_4core3ops4drop4Drop4dropINtB2_9DropGuardTNtNtCsdGrGZaRBwMb_3syn4path11PathSegmentNtNtB25_5token7PathSepENtNtBc_5alloc6GlobalEB12_4dropB25_, symObjAddr: 0x15870, symBinAddr: 0x70C50, symSize: 0x70 }
  - { offset: 0xC8CB1, size: 0x8, addend: 0x0, symName: __RNvXNvXsd_NtNtCslJiobkLta79_5alloc3vec9into_iterINtB8_8IntoIterppENtNtNtCsieiGu2EXtoJ_4core3ops4drop4Drop4dropINtB2_9DropGuardTNtNtCsdGrGZaRBwMb_3syn8generics14TypeParamBoundNtNtB25_5token4PlusENtNtBc_5alloc6GlobalEB12_4dropB25_, symObjAddr: 0x158E0, symBinAddr: 0x70CC0, symSize: 0x70 }
  - { offset: 0xC8E64, size: 0x8, addend: 0x0, symName: __RNvXsd_NtNtCslJiobkLta79_5alloc3vec9into_iterINtB5_8IntoIterNtNtCsdGrGZaRBwMb_3syn4attr9AttributeENtNtNtCsieiGu2EXtoJ_4core3ops4drop4Drop4dropB10_, symObjAddr: 0x17090, symBinAddr: 0x71620, symSize: 0x90 }
  - { offset: 0xC8EFF, size: 0x8, addend: 0x0, symName: __RNvXsd_NtNtCslJiobkLta79_5alloc3vec9into_iterINtB5_8IntoIterNtNtCsdGrGZaRBwMb_3syn8generics14TypeParamBoundENtNtNtCsieiGu2EXtoJ_4core3ops4drop4Drop4dropB10_, symObjAddr: 0x171B0, symBinAddr: 0x716B0, symSize: 0x90 }
  - { offset: 0xC8F9A, size: 0x8, addend: 0x0, symName: __RNvXsd_NtNtCslJiobkLta79_5alloc3vec9into_iterINtB5_8IntoIterTNtNtCsdGrGZaRBwMb_3syn4path11PathSegmentNtNtB11_5token7PathSepEENtNtNtCsieiGu2EXtoJ_4core3ops4drop4Drop4dropB11_, symObjAddr: 0x17360, symBinAddr: 0x71740, symSize: 0x90 }
  - { offset: 0xC9035, size: 0x8, addend: 0x0, symName: __RNvXsd_NtNtCslJiobkLta79_5alloc3vec9into_iterINtB5_8IntoIterTNtNtCsdGrGZaRBwMb_3syn8generics14TypeParamBoundNtNtB11_5token4PlusEENtNtNtCsieiGu2EXtoJ_4core3ops4drop4Drop4dropB11_, symObjAddr: 0x173F0, symBinAddr: 0x717D0, symSize: 0x90 }
  - { offset: 0xC90D6, size: 0x8, addend: 0x0, symName: __RNvXs3_NtNtCslJiobkLta79_5alloc3vec9into_iterINtB5_8IntoIterNtNtCsdGrGZaRBwMb_3syn4attr9AttributeENtNtNtNtCsieiGu2EXtoJ_4core4iter6traits8iterator8Iterator9size_hintB10_, symObjAddr: 0x162A0, symBinAddr: 0x71020, symSize: 0x60 }
  - { offset: 0xC9131, size: 0x8, addend: 0x0, symName: __RNvXs3_NtNtCslJiobkLta79_5alloc3vec9into_iterINtB5_8IntoIterNtNtCsdGrGZaRBwMb_3syn8generics14TypeParamBoundENtNtNtNtCsieiGu2EXtoJ_4core4iter6traits8iterator8Iterator4nextB10_, symObjAddr: 0x16460, symBinAddr: 0x71080, symSize: 0x100 }
  - { offset: 0xC928F, size: 0x8, addend: 0x0, symName: __RNvXs3_NtNtCslJiobkLta79_5alloc3vec9into_iterINtB5_8IntoIterNtNtCsdGrGZaRBwMb_3syn8generics14TypeParamBoundENtNtNtNtCsieiGu2EXtoJ_4core4iter6traits8iterator8Iterator9size_hintB10_, symObjAddr: 0x16560, symBinAddr: 0x71180, symSize: 0x60 }
  - { offset: 0xC92EA, size: 0x8, addend: 0x0, symName: __RNvXs3_NtNtCslJiobkLta79_5alloc3vec9into_iterINtB5_8IntoIterTNtNtCsdGrGZaRBwMb_3syn4path11PathSegmentNtNtB11_5token7PathSepEENtNtNtNtCsieiGu2EXtoJ_4core4iter6traits8iterator8Iterator4nextB11_, symObjAddr: 0x16880, symBinAddr: 0x711E0, symSize: 0x100 }
  - { offset: 0xC9448, size: 0x8, addend: 0x0, symName: __RNvXs3_NtNtCslJiobkLta79_5alloc3vec9into_iterINtB5_8IntoIterTNtNtCsdGrGZaRBwMb_3syn4path11PathSegmentNtNtB11_5token7PathSepEENtNtNtNtCsieiGu2EXtoJ_4core4iter6traits8iterator8Iterator9size_hintB11_, symObjAddr: 0x16980, symBinAddr: 0x712E0, symSize: 0x60 }
  - { offset: 0xC94A3, size: 0x8, addend: 0x0, symName: __RNvXs3_NtNtCslJiobkLta79_5alloc3vec9into_iterINtB5_8IntoIterTNtNtCsdGrGZaRBwMb_3syn8generics14TypeParamBoundNtNtB11_5token4PlusEENtNtNtNtCsieiGu2EXtoJ_4core4iter6traits8iterator8Iterator4nextB11_, symObjAddr: 0x169E0, symBinAddr: 0x71340, symSize: 0x110 }
  - { offset: 0xC9601, size: 0x8, addend: 0x0, symName: __RNvXs3_NtNtCslJiobkLta79_5alloc3vec9into_iterINtB5_8IntoIterTNtNtCsdGrGZaRBwMb_3syn8generics14TypeParamBoundNtNtB11_5token4PlusEENtNtNtNtCsieiGu2EXtoJ_4core4iter6traits8iterator8Iterator9size_hintB11_, symObjAddr: 0x16AF0, symBinAddr: 0x71450, symSize: 0x60 }
  - { offset: 0xCA379, size: 0x8, addend: 0x0, symName: __RNvXss_NtCslJiobkLta79_5alloc6stringNtB5_6StringNtNtNtCsieiGu2EXtoJ_4core3ops5deref5Deref5derefCsdGrGZaRBwMb_3syn, symObjAddr: 0x174F0, symBinAddr: 0x718D0, symSize: 0x20 }
  - { offset: 0xCA410, size: 0x8, addend: 0x0, symName: __RNvXs1I_NtCslJiobkLta79_5alloc6stringNtB6_6StringNtB6_12SpecToString14spec_to_stringCsdGrGZaRBwMb_3syn, symObjAddr: 0x15E00, symBinAddr: 0x70D30, symSize: 0xB0 }
  - { offset: 0xCA680, size: 0x8, addend: 0x0, symName: __RNvXs1U_NtCslJiobkLta79_5alloc6stringReNtB6_12SpecToString14spec_to_stringCsdGrGZaRBwMb_3syn, symObjAddr: 0x15EB0, symBinAddr: 0x70DE0, symSize: 0x60 }
  - { offset: 0xCA7AA, size: 0x8, addend: 0x0, symName: __RNvXs1g_NtCslJiobkLta79_5alloc6stringNtB6_13FromUtf8ErrorNtNtCsieiGu2EXtoJ_4core3fmt5Debug3fmtCsdGrGZaRBwMb_3syn, symObjAddr: 0x15F70, symBinAddr: 0x70E60, symSize: 0x90 }
  - { offset: 0xCA827, size: 0x8, addend: 0x0, symName: __RNvXs1n_NtCslJiobkLta79_5alloc6stringNtB6_6StringINtNtCsieiGu2EXtoJ_4core3cmp9PartialEqReE2eqCsdGrGZaRBwMb_3syn, symObjAddr: 0x16000, symBinAddr: 0x70EF0, symSize: 0x130 }
  - { offset: 0xCAB09, size: 0x8, addend: 0x0, symName: __RNvXsT_NtCslJiobkLta79_5alloc6stringNtB5_6StringNtNtCsieiGu2EXtoJ_4core3fmt5Write10write_charCsdGrGZaRBwMb_3syn, symObjAddr: 0x16E80, symBinAddr: 0x714B0, symSize: 0x30 }
  - { offset: 0xCAB46, size: 0x8, addend: 0x0, symName: __RNvXsT_NtCslJiobkLta79_5alloc6stringNtB5_6StringNtNtCsieiGu2EXtoJ_4core3fmt5Write9write_strCsdGrGZaRBwMb_3syn, symObjAddr: 0x16EB0, symBinAddr: 0x714E0, symSize: 0x30 }
  - { offset: 0xCAB89, size: 0x8, addend: 0x0, symName: __RNvXsm_NtCslJiobkLta79_5alloc6stringNtB5_6StringNtNtCsieiGu2EXtoJ_4core3fmt5Debug3fmtCsdGrGZaRBwMb_3syn, symObjAddr: 0x17480, symBinAddr: 0x71860, symSize: 0x70 }
  - { offset: 0xCACEE, size: 0x8, addend: 0x0, symName: __RNvXsw_NtCslJiobkLta79_5alloc6stringNtB5_6StringNtB5_8ToString9to_stringCsdGrGZaRBwMb_3syn, symObjAddr: 0x17510, symBinAddr: 0x718F0, symSize: 0x30 }
  - { offset: 0xCAD25, size: 0x8, addend: 0x0, symName: __RNvXsw_NtCslJiobkLta79_5alloc6stringReNtB5_8ToString9to_stringCsdGrGZaRBwMb_3syn, symObjAddr: 0x17540, symBinAddr: 0x71920, symSize: 0x30 }
  - { offset: 0xCAF40, size: 0x8, addend: 0x0, symName: __RNvXNvMs_NtNtCslJiobkLta79_5alloc3ffi5c_strNtB7_7CString3newNtNtBb_6string6StringNtB2_11SpecNewImpl13spec_new_implCsdGrGZaRBwMb_3syn, symObjAddr: 0x15440, symBinAddr: 0x70970, symSize: 0x200 }
  - { offset: 0xCB7CC, size: 0x8, addend: 0x0, symName: __RNvMNtCslJiobkLta79_5alloc6stringNtB2_6String10into_bytesCsdGrGZaRBwMb_3syn, symObjAddr: 0x470, symBinAddr: 0x5BF50, symSize: 0x20 }
  - { offset: 0xCB8B6, size: 0x8, addend: 0x0, symName: __RNvMNtCslJiobkLta79_5alloc6stringNtB2_6String13with_capacityCsdGrGZaRBwMb_3syn, symObjAddr: 0x490, symBinAddr: 0x5BF70, symSize: 0x70 }
  - { offset: 0xCB9B5, size: 0x8, addend: 0x0, symName: __RNvMNtCslJiobkLta79_5alloc6stringNtB2_6String14into_boxed_strCsdGrGZaRBwMb_3syn, symObjAddr: 0x500, symBinAddr: 0x5BFE0, symSize: 0x70 }
  - { offset: 0xCBAC7, size: 0x8, addend: 0x0, symName: __RNvMNtCslJiobkLta79_5alloc6stringNtB2_6String3lenCsdGrGZaRBwMb_3syn, symObjAddr: 0x570, symBinAddr: 0x5C050, symSize: 0x10 }
  - { offset: 0xCBB0F, size: 0x8, addend: 0x0, symName: __RNvMNtCslJiobkLta79_5alloc6stringNtB2_6String3newCsdGrGZaRBwMb_3syn, symObjAddr: 0x580, symBinAddr: 0x5C060, symSize: 0x40 }
  - { offset: 0xCBCDB, size: 0x8, addend: 0x0, symName: __RNvMNtCslJiobkLta79_5alloc6stringNtB2_6String4pushCsdGrGZaRBwMb_3syn, symObjAddr: 0x5C0, symBinAddr: 0x5C0A0, symSize: 0x130 }
  - { offset: 0xCBFC2, size: 0x8, addend: 0x0, symName: __RNvMNtCslJiobkLta79_5alloc6stringNtB2_6String6as_strCsdGrGZaRBwMb_3syn, symObjAddr: 0x6F0, symBinAddr: 0x5C1D0, symSize: 0x60 }
  - { offset: 0xCC297, size: 0x8, addend: 0x0, symName: __RNvMNtCslJiobkLta79_5alloc6stringNtB2_6String6insertCsdGrGZaRBwMb_3syn, symObjAddr: 0x750, symBinAddr: 0x5C230, symSize: 0x370 }
  - { offset: 0xCC7AB, size: 0x8, addend: 0x0, symName: __RNvMNtCslJiobkLta79_5alloc6stringNtB2_6String8is_emptyCsdGrGZaRBwMb_3syn, symObjAddr: 0xAC0, symBinAddr: 0x5C5A0, symSize: 0x20 }
  - { offset: 0xCC8B9, size: 0x8, addend: 0x0, symName: __RNvMNtCslJiobkLta79_5alloc6stringNtB2_6String8push_strCsdGrGZaRBwMb_3syn, symObjAddr: 0xAE0, symBinAddr: 0x5C5C0, symSize: 0x50 }
  - { offset: 0xCCB77, size: 0x8, addend: 0x0, symName: __RNvMNtCslJiobkLta79_5alloc6stringNtB2_6String8truncateCsdGrGZaRBwMb_3syn, symObjAddr: 0xB30, symBinAddr: 0x5C610, symSize: 0x1C0 }
  - { offset: 0xCCF08, size: 0x8, addend: 0x0, symName: __RNvMNtCslJiobkLta79_5alloc6stringNtB2_6String9from_utf8CsdGrGZaRBwMb_3syn, symObjAddr: 0xCF0, symBinAddr: 0x5C7D0, symSize: 0x1C0 }
  - { offset: 0xCD0C7, size: 0x8, addend: 0x0, symName: __RNvMNtCslJiobkLta79_5alloc6stringNtB2_6String9split_offCsdGrGZaRBwMb_3syn, symObjAddr: 0xEB0, symBinAddr: 0x5C990, symSize: 0x180 }
  - { offset: 0xCD32E, size: 0x8, addend: 0x0, symName: __RNvMs_NtNtCsdGrGZaRBwMb_3syn11restriction7parsingNtB6_10Visibility7is_some, symObjAddr: 0x1100, symBinAddr: 0x5CB10, symSize: 0x50 }
  - { offset: 0xCD3AC, size: 0x8, addend: 0x0, symName: __RNvMs_NtNtCsdGrGZaRBwMb_3syn11restriction7parsingNtB6_10Visibility9parse_pub, symObjAddr: 0x1150, symBinAddr: 0x5CB60, symSize: 0xAF0 }
  - { offset: 0xCD591, size: 0x8, addend: 0x0, symName: __RNvMs_NtNtCsdGrGZaRBwMb_3syn4item7parsingNtB4_16FlexibleItemType21parse_optional_bounds, symObjAddr: 0x1C40, symBinAddr: 0x5D650, symSize: 0x4A0 }
  - { offset: 0xCD67A, size: 0x8, addend: 0x0, symName: __RNvMs_NtNtCsdGrGZaRBwMb_3syn4item7parsingNtB4_16FlexibleItemType25parse_optional_definition, symObjAddr: 0x20E0, symBinAddr: 0x5DAF0, symSize: 0x230 }
  - { offset: 0xCD730, size: 0x8, addend: 0x0, symName: __RNvMs_NtNtCsdGrGZaRBwMb_3syn4item7parsingNtB4_16FlexibleItemType5parse, symObjAddr: 0x2310, symBinAddr: 0x5DD20, symSize: 0xDB0 }
  - { offset: 0xCDA0A, size: 0x8, addend: 0x0, symName: __RNvMs_NtNtCslJiobkLta79_5alloc3vec9into_iterINtB4_8IntoIterNtNtCsdGrGZaRBwMb_3syn4attr9AttributeE8as_sliceBZ_, symObjAddr: 0x30C0, symBinAddr: 0x5EAD0, symSize: 0x60 }
  - { offset: 0xCDA70, size: 0x8, addend: 0x0, symName: __RNvMsy_NtNtCsdGrGZaRBwMb_3syn4item7parsingNtNtB9_11restriction10Visibility12is_inherited, symObjAddr: 0x3180, symBinAddr: 0x5EB30, symSize: 0x50 }
  - { offset: 0xCE57C, size: 0x8, addend: 0x0, symName: __RINvNtNtCsdGrGZaRBwMb_3syn3lit5value11backslash_uShEB6_, symObjAddr: 0x0, symBinAddr: 0x71CD0, symSize: 0x500 }
  - { offset: 0xCEE34, size: 0x8, addend: 0x0, symName: __RNvXs_NtNtCslJiobkLta79_5alloc3vec15set_len_on_dropNtB4_12SetLenOnDropNtNtNtCsieiGu2EXtoJ_4core3ops4drop4Drop4dropCsdGrGZaRBwMb_3syn, symObjAddr: 0x18670, symBinAddr: 0x81D50, symSize: 0x20 }
  - { offset: 0xD02D7, size: 0x8, addend: 0x0, symName: __RNvXs5_NtNtCsieiGu2EXtoJ_4core3str6traitsINtNtNtB9_3ops5range5RangejEINtNtNtB9_5slice5index10SliceIndexeE3getCsdGrGZaRBwMb_3syn, symObjAddr: 0x17590, symBinAddr: 0x816B0, symSize: 0x1F0 }
  - { offset: 0xD04A2, size: 0x8, addend: 0x0, symName: __RNvXs9_NtNtCsieiGu2EXtoJ_4core3str6traitsINtNtNtB9_3ops5range9RangeFromjEINtNtNtB9_5slice5index10SliceIndexeE3getCsdGrGZaRBwMb_3syn, symObjAddr: 0x17ED0, symBinAddr: 0x81B30, symSize: 0x130 }
  - { offset: 0xD2AA9, size: 0x8, addend: 0x0, symName: __RNvXs5_NtNtCsieiGu2EXtoJ_4core5slice5indexINtNtNtB9_3ops5range9RangeFromjEINtB5_10SliceIndexShE3getCsdGrGZaRBwMb_3syn, symObjAddr: 0x17780, symBinAddr: 0x818A0, symSize: 0x80 }
  - { offset: 0xD2CB6, size: 0x8, addend: 0x0, symName: __RNvMNtCsieiGu2EXtoJ_4core5sliceSTNtNtCsdGrGZaRBwMb_3syn3pat3PatNtNtBz_5token2OrE4iterBz_, symObjAddr: 0x29E0, symBinAddr: 0x73860, symSize: 0x20 }
  - { offset: 0xD2CED, size: 0x8, addend: 0x0, symName: __RNvMNtCsieiGu2EXtoJ_4core5sliceSTNtNtCsdGrGZaRBwMb_3syn3pat3PatNtNtBz_5token5CommaE4iterBz_, symObjAddr: 0x2A00, symBinAddr: 0x73880, symSize: 0x20 }
  - { offset: 0xD2D24, size: 0x8, addend: 0x0, symName: __RNvMNtCsieiGu2EXtoJ_4core5sliceSTNtNtCsdGrGZaRBwMb_3syn3pat8FieldPatNtNtBz_5token5CommaE4iterBz_, symObjAddr: 0x2A20, symBinAddr: 0x738A0, symSize: 0x20 }
  - { offset: 0xD30BE, size: 0x8, addend: 0x0, symName: __RINvYNtNtCsaKzlTDPUHDb_11proc_macro212token_stream8IntoIterNtNtNtNtCsieiGu2EXtoJ_4core4iter6traits8iterator8Iterator4foldINtNtB13_6option6OptionNtB7_9TokenTreeEINvNvBV_4last4someB2i_EECsdGrGZaRBwMb_3syn, symObjAddr: 0x1EC0, symBinAddr: 0x72DC0, symSize: 0x230 }
  - { offset: 0xD3156, size: 0x8, addend: 0x0, symName: __RNvYNtNtCsaKzlTDPUHDb_11proc_macro212token_stream8IntoIterNtNtNtNtCsieiGu2EXtoJ_4core4iter6traits8iterator8Iterator4lastCsdGrGZaRBwMb_3syn, symObjAddr: 0x194C0, symBinAddr: 0x82040, symSize: 0x30 }
  - { offset: 0xD3A94, size: 0x8, addend: 0x0, symName: __RNvNvNtCsieiGu2EXtoJ_4core9ub_checks23maybe_is_nonoverlapping7runtimeCsdGrGZaRBwMb_3syn, symObjAddr: 0x10A60, symBinAddr: 0x80E20, symSize: 0xC0 }
  - { offset: 0xD62E6, size: 0x8, addend: 0x0, symName: __RNCNvXNtNtCsdGrGZaRBwMb_3syn4stmt8printingNtB6_5BlockNtNtCs9OU1sGv5X54_5quote9to_tokens8ToTokens9to_tokens0B8_, symObjAddr: 0x26F0, symBinAddr: 0x735F0, symSize: 0x30 }
  - { offset: 0xD632D, size: 0x8, addend: 0x0, symName: __RNCNvXs0_NtNtCsdGrGZaRBwMb_3syn4stmt8printingNtB9_5LocalNtNtCs9OU1sGv5X54_5quote9to_tokens8ToTokens9to_tokens0Bb_, symObjAddr: 0x2720, symBinAddr: 0x73620, symSize: 0x40 }
  - { offset: 0xD6A71, size: 0x8, addend: 0x0, symName: __RNcNtNtNtCsdGrGZaRBwMb_3syn3pat3Pat11TupleStruct0B7_, symObjAddr: 0x2760, symBinAddr: 0x73660, symSize: 0x40 }
  - { offset: 0xD6AA0, size: 0x8, addend: 0x0, symName: __RNcNtNtNtCsdGrGZaRBwMb_3syn3pat3Pat4Wild0B7_, symObjAddr: 0x27A0, symBinAddr: 0x736A0, symSize: 0x40 }
  - { offset: 0xD6ACE, size: 0x8, addend: 0x0, symName: __RNcNtNtNtCsdGrGZaRBwMb_3syn3pat3Pat5Ident0B7_, symObjAddr: 0x27E0, symBinAddr: 0x736E0, symSize: 0x40 }
  - { offset: 0xD6AFD, size: 0x8, addend: 0x0, symName: __RNcNtNtNtCsdGrGZaRBwMb_3syn3pat3Pat5Slice0B7_, symObjAddr: 0x2820, symBinAddr: 0x73720, symSize: 0x40 }
  - { offset: 0xD6B2C, size: 0x8, addend: 0x0, symName: __RNcNtNtNtCsdGrGZaRBwMb_3syn3pat3Pat6Struct0B7_, symObjAddr: 0x2860, symBinAddr: 0x73760, symSize: 0x30 }
  - { offset: 0xD6B5B, size: 0x8, addend: 0x0, symName: __RNcNtNtNtCsdGrGZaRBwMb_3syn3pat3Pat8Verbatim0B7_, symObjAddr: 0x2890, symBinAddr: 0x73790, symSize: 0x40 }
  - { offset: 0xD6B89, size: 0x8, addend: 0x0, symName: __RNcNtNtNtCsdGrGZaRBwMb_3syn3pat3Pat9Reference0B7_, symObjAddr: 0x28D0, symBinAddr: 0x737D0, symSize: 0x40 }
  - { offset: 0xD6C71, size: 0x8, addend: 0x0, symName: __RNvNtNtCsdGrGZaRBwMb_3syn3pat7parsing10pat_struct, symObjAddr: 0x99A0, symBinAddr: 0x79D60, symSize: 0xD40 }
  - { offset: 0xD6E3F, size: 0x8, addend: 0x0, symName: __RNvNtNtCsdGrGZaRBwMb_3syn3pat7parsing13pat_reference, symObjAddr: 0xA6E0, symBinAddr: 0x7AAA0, symSize: 0x420 }
  - { offset: 0xD6EE9, size: 0x8, addend: 0x0, symName: __RNvNtNtCsdGrGZaRBwMb_3syn3pat7parsing14multi_pat_impl, symObjAddr: 0xAB00, symBinAddr: 0x7AEC0, symSize: 0x680 }
  - { offset: 0xD701E, size: 0x8, addend: 0x0, symName: __RNvNtNtCsdGrGZaRBwMb_3syn3pat7parsing15pat_range_bound, symObjAddr: 0xB180, symBinAddr: 0x7B540, symSize: 0x730 }
  - { offset: 0xD70C7, size: 0x8, addend: 0x0, symName: __RNvNtNtCsdGrGZaRBwMb_3syn3pat7parsing16pat_lit_or_range, symObjAddr: 0xB8B0, symBinAddr: 0x7BC70, symSize: 0x610 }
  - { offset: 0xD71E4, size: 0x8, addend: 0x0, symName: __RNvNtNtCsdGrGZaRBwMb_3syn3pat7parsing16pat_tuple_struct, symObjAddr: 0xBEC0, symBinAddr: 0x7C280, symSize: 0x710 }
  - { offset: 0xD732F, size: 0x8, addend: 0x0, symName: __RNvNtNtCsdGrGZaRBwMb_3syn3pat7parsing18pat_paren_or_tuple, symObjAddr: 0xC5D0, symBinAddr: 0x7C990, symSize: 0x7E0 }
  - { offset: 0xD7479, size: 0x8, addend: 0x0, symName: __RNvNtNtCsdGrGZaRBwMb_3syn3pat7parsing19pat_range_half_open, symObjAddr: 0xCDB0, symBinAddr: 0x7D170, symSize: 0x490 }
  - { offset: 0xD7551, size: 0x8, addend: 0x0, symName: __RNvNtNtCsdGrGZaRBwMb_3syn3pat7parsing36pat_path_or_macro_or_struct_or_range, symObjAddr: 0xD240, symBinAddr: 0x7D600, symSize: 0xA40 }
  - { offset: 0xD7649, size: 0x8, addend: 0x0, symName: __RNvNtNtCsdGrGZaRBwMb_3syn3pat7parsing7pat_box, symObjAddr: 0xDC80, symBinAddr: 0x7E040, symSize: 0x2A0 }
  - { offset: 0xD76D4, size: 0x8, addend: 0x0, symName: __RNvNtNtCsdGrGZaRBwMb_3syn3pat7parsing8pat_wild, symObjAddr: 0xDF20, symBinAddr: 0x7E2E0, symSize: 0x180 }
  - { offset: 0xD7720, size: 0x8, addend: 0x0, symName: __RNvNtNtCsdGrGZaRBwMb_3syn3pat7parsing9field_pat, symObjAddr: 0xE0A0, symBinAddr: 0x7E460, symSize: 0xDE0 }
  - { offset: 0xD7960, size: 0x8, addend: 0x0, symName: __RNvNtNtCsdGrGZaRBwMb_3syn3pat7parsing9pat_const, symObjAddr: 0xEE80, symBinAddr: 0x7F240, symSize: 0x500 }
  - { offset: 0xD7A74, size: 0x8, addend: 0x0, symName: __RNvNtNtCsdGrGZaRBwMb_3syn3pat7parsing9pat_ident, symObjAddr: 0xF380, symBinAddr: 0x7F740, symSize: 0x810 }
  - { offset: 0xD7BE6, size: 0x8, addend: 0x0, symName: __RNvNtNtCsdGrGZaRBwMb_3syn3pat7parsing9pat_range, symObjAddr: 0xFB90, symBinAddr: 0x7FF50, symSize: 0x690 }
  - { offset: 0xD7CED, size: 0x8, addend: 0x0, symName: __RNvNtNtCsdGrGZaRBwMb_3syn3pat7parsing9pat_slice, symObjAddr: 0x10220, symBinAddr: 0x805E0, symSize: 0x840 }
  - { offset: 0xD7EBE, size: 0x8, addend: 0x0, symName: __RNvXNtNtCsdGrGZaRBwMb_3syn3pat8printingNtB4_8PatIdentNtNtCs9OU1sGv5X54_5quote9to_tokens8ToTokens9to_tokens, symObjAddr: 0x10FE0, symBinAddr: 0x81350, symSize: 0xE0 }
  - { offset: 0xD7F2B, size: 0x8, addend: 0x0, symName: __RNvXs0_NtNtCsdGrGZaRBwMb_3syn3pat8printingNtB7_8PatParenNtNtCs9OU1sGv5X54_5quote9to_tokens8ToTokens9to_tokens, symObjAddr: 0x13550, symBinAddr: 0x81430, symSize: 0x60 }
  - { offset: 0xD7F6A, size: 0x8, addend: 0x0, symName: __RNvXs1_NtNtCsdGrGZaRBwMb_3syn3pat8printingNtB7_12PatReferenceNtNtCs9OU1sGv5X54_5quote9to_tokens8ToTokens9to_tokens, symObjAddr: 0x150B0, symBinAddr: 0x81490, symSize: 0x80 }
  - { offset: 0xD7FA9, size: 0x8, addend: 0x0, symName: __RNvXs2_NtNtCsdGrGZaRBwMb_3syn3pat8printingNtB7_7PatRestNtNtCs9OU1sGv5X54_5quote9to_tokens8ToTokens9to_tokens, symObjAddr: 0x15D10, symBinAddr: 0x81510, symSize: 0x60 }
  - { offset: 0xD7FE8, size: 0x8, addend: 0x0, symName: __RNvXs3_NtNtCsdGrGZaRBwMb_3syn3pat8printingNtB7_8PatSliceNtNtCs9OU1sGv5X54_5quote9to_tokens8ToTokens9to_tokens, symObjAddr: 0x17070, symBinAddr: 0x81570, symSize: 0x60 }
  - { offset: 0xD8027, size: 0x8, addend: 0x0, symName: __RNvXs4_NtNtCsdGrGZaRBwMb_3syn3pat8printingNtB7_9PatStructNtNtCs9OU1sGv5X54_5quote9to_tokens8ToTokens9to_tokens, symObjAddr: 0x17460, symBinAddr: 0x815D0, symSize: 0x80 }
  - { offset: 0xD8066, size: 0x8, addend: 0x0, symName: __RNvXs5_NtNtCsdGrGZaRBwMb_3syn3pat8printingNtB7_8PatTupleNtNtCs9OU1sGv5X54_5quote9to_tokens8ToTokens9to_tokens, symObjAddr: 0x17530, symBinAddr: 0x81650, symSize: 0x60 }
  - { offset: 0xD80A5, size: 0x8, addend: 0x0, symName: __RNvXs6_NtNtCsdGrGZaRBwMb_3syn3pat8printingNtB7_14PatTupleStructNtNtCs9OU1sGv5X54_5quote9to_tokens8ToTokens9to_tokens, symObjAddr: 0x17850, symBinAddr: 0x81920, symSize: 0x80 }
  - { offset: 0xD80E4, size: 0x8, addend: 0x0, symName: __RNvXs7_NtNtCsdGrGZaRBwMb_3syn3pat8printingNtB7_7PatTypeNtNtCs9OU1sGv5X54_5quote9to_tokens8ToTokens9to_tokens, symObjAddr: 0x17910, symBinAddr: 0x819A0, symSize: 0x80 }
  - { offset: 0xD8123, size: 0x8, addend: 0x0, symName: __RNvXs8_NtNtCsdGrGZaRBwMb_3syn3pat8printingNtB7_7PatWildNtNtCs9OU1sGv5X54_5quote9to_tokens8ToTokens9to_tokens, symObjAddr: 0x17D90, symBinAddr: 0x81A20, symSize: 0x60 }
  - { offset: 0xD8162, size: 0x8, addend: 0x0, symName: __RNvXs9_NtNtCsdGrGZaRBwMb_3syn3pat8printingNtB7_8FieldPatNtNtCs9OU1sGv5X54_5quote9to_tokens8ToTokens9to_tokens, symObjAddr: 0x17E20, symBinAddr: 0x81A80, symSize: 0xB0 }
  - { offset: 0xD81BF, size: 0x8, addend: 0x0, symName: __RNvXs_NtNtCsdGrGZaRBwMb_3syn3pat8printingNtB6_5PatOrNtNtCs9OU1sGv5X54_5quote9to_tokens8ToTokens9to_tokens, symObjAddr: 0x18600, symBinAddr: 0x81CE0, symSize: 0x70 }
  - { offset: 0xD81FF, size: 0x8, addend: 0x0, symName: __RNvXse_NtCsdGrGZaRBwMb_3syn3patNtB5_3PatNtNtCs9OU1sGv5X54_5quote9to_tokens8ToTokens9to_tokens, symObjAddr: 0x187C0, symBinAddr: 0x81D70, symSize: 0x2D0 }
  - { offset: 0xD86F0, size: 0x8, addend: 0x0, symName: __RINvNtNtCsdGrGZaRBwMb_3syn3lit5value11backslash_uShEB6_, symObjAddr: 0x0, symBinAddr: 0x71CD0, symSize: 0x500 }
  - { offset: 0xD887B, size: 0x8, addend: 0x0, symName: __RINvNtNtCsdGrGZaRBwMb_3syn3lit5value11backslash_ueEB6_, symObjAddr: 0x500, symBinAddr: 0x721D0, symSize: 0x3C0 }
  - { offset: 0xD8965, size: 0x8, addend: 0x0, symName: __RINvNtNtCsdGrGZaRBwMb_3syn3lit5value11backslash_xShEB6_, symObjAddr: 0x8C0, symBinAddr: 0x72590, symSize: 0x390 }
  - { offset: 0xD8A05, size: 0x8, addend: 0x0, symName: __RINvNtNtCsdGrGZaRBwMb_3syn3lit5value11backslash_xeEB6_, symObjAddr: 0xC50, symBinAddr: 0x72920, symSize: 0x380 }
  - { offset: 0xD8A7E, size: 0x8, addend: 0x0, symName: __RINvNtNtCsdGrGZaRBwMb_3syn3lit5value4byteShEB6_, symObjAddr: 0xFD0, symBinAddr: 0x72CA0, symSize: 0x90 }
  - { offset: 0xD8ADA, size: 0x8, addend: 0x0, symName: __RINvNtNtCsdGrGZaRBwMb_3syn3lit5value4byteeEB6_, symObjAddr: 0x1060, symBinAddr: 0x72D30, symSize: 0x90 }
  - { offset: 0xD8B3B, size: 0x8, addend: 0x0, symName: __RNCNvNtNtCsdGrGZaRBwMb_3syn3lit5value15parse_lit_float0B7_, symObjAddr: 0x26C0, symBinAddr: 0x735C0, symSize: 0x30 }
  - { offset: 0xD8B7C, size: 0x8, addend: 0x0, symName: __RNvNtNtCsdGrGZaRBwMb_3syn3lit5value13parse_lit_int, symObjAddr: 0x4350, symBinAddr: 0x74710, symSize: 0xAF0 }
  - { offset: 0xD8CCB, size: 0x8, addend: 0x0, symName: __RNvNtNtCsdGrGZaRBwMb_3syn3lit5value13parse_lit_str, symObjAddr: 0x4E40, symBinAddr: 0x75200, symSize: 0xB0 }
  - { offset: 0xD8CF9, size: 0x8, addend: 0x0, symName: __RNvNtNtCsdGrGZaRBwMb_3syn3lit5value14parse_lit_byte, symObjAddr: 0x4EF0, symBinAddr: 0x752B0, symSize: 0x640 }
  - { offset: 0xD8EF3, size: 0x8, addend: 0x0, symName: __RNvNtNtCsdGrGZaRBwMb_3syn3lit5value14parse_lit_char, symObjAddr: 0x5530, symBinAddr: 0x758F0, symSize: 0x780 }
  - { offset: 0xD90A5, size: 0x8, addend: 0x0, symName: __RNvNtNtCsdGrGZaRBwMb_3syn3lit5value15parse_lit_c_str, symObjAddr: 0x5CB0, symBinAddr: 0x76070, symSize: 0x120 }
  - { offset: 0xD911F, size: 0x8, addend: 0x0, symName: __RNvNtNtCsdGrGZaRBwMb_3syn3lit5value15parse_lit_float, symObjAddr: 0x5DD0, symBinAddr: 0x76190, symSize: 0xD30 }
  - { offset: 0xD929B, size: 0x8, addend: 0x0, symName: __RNvNtNtCsdGrGZaRBwMb_3syn3lit5value17parse_lit_str_raw, symObjAddr: 0x6B00, symBinAddr: 0x76EC0, symSize: 0x5F0 }
  - { offset: 0xD9405, size: 0x8, addend: 0x0, symName: __RNvNtNtCsdGrGZaRBwMb_3syn3lit5value18parse_lit_byte_str, symObjAddr: 0x70F0, symBinAddr: 0x774B0, symSize: 0x120 }
  - { offset: 0xD947F, size: 0x8, addend: 0x0, symName: __RNvNtNtCsdGrGZaRBwMb_3syn3lit5value19parse_lit_c_str_raw, symObjAddr: 0x7210, symBinAddr: 0x775D0, symSize: 0x340 }
  - { offset: 0xD957C, size: 0x8, addend: 0x0, symName: __RNvNtNtCsdGrGZaRBwMb_3syn3lit5value20parse_lit_str_cooked, symObjAddr: 0x7550, symBinAddr: 0x77910, symSize: 0xA60 }
  - { offset: 0xD9752, size: 0x8, addend: 0x0, symName: __RNvNtNtCsdGrGZaRBwMb_3syn3lit5value22parse_lit_byte_str_raw, symObjAddr: 0x7FB0, symBinAddr: 0x78370, symSize: 0x280 }
  - { offset: 0xD9812, size: 0x8, addend: 0x0, symName: __RNvNtNtCsdGrGZaRBwMb_3syn3lit5value22parse_lit_c_str_cooked, symObjAddr: 0x8230, symBinAddr: 0x785F0, symSize: 0xD20 }
  - { offset: 0xD9B06, size: 0x8, addend: 0x0, symName: __RNvNtNtCsdGrGZaRBwMb_3syn3lit5value25parse_lit_byte_str_cooked, symObjAddr: 0x8F50, symBinAddr: 0x79310, symSize: 0xA10 }
  - { offset: 0xD9D8C, size: 0x8, addend: 0x0, symName: __RNvNtNtCsdGrGZaRBwMb_3syn3lit5value8next_chr, symObjAddr: 0x9960, symBinAddr: 0x79D20, symSize: 0x40 }
  - { offset: 0xD9EC3, size: 0x8, addend: 0x0, symName: __RNCNvNtCsdGrGZaRBwMb_3syn3mac15parse_delimiter0B5_, symObjAddr: 0x20F0, symBinAddr: 0x72FF0, symSize: 0x5D0 }
  - { offset: 0xD9F55, size: 0x8, addend: 0x0, symName: __RNvNtCsdGrGZaRBwMb_3syn3mac15parse_delimiter, symObjAddr: 0x4320, symBinAddr: 0x746E0, symSize: 0x30 }
  - { offset: 0xD9F8B, size: 0x8, addend: 0x0, symName: __RNvXNtNtCsdGrGZaRBwMb_3syn3mac7parsingNtB4_5MacroNtNtB6_5parse5Parse5parse, symObjAddr: 0x10BD0, symBinAddr: 0x80F40, symSize: 0x410 }
  - { offset: 0xDA041, size: 0x8, addend: 0x0, symName: __RNvXs_NtNtCsdGrGZaRBwMb_3syn3mac8printingNtB6_5MacroNtNtCs9OU1sGv5X54_5quote9to_tokens8ToTokens9to_tokens, symObjAddr: 0x18130, symBinAddr: 0x81C60, symSize: 0x80 }
  - { offset: 0xDD36E, size: 0x8, addend: 0x0, symName: __RNvMNtCsdGrGZaRBwMb_3syn3macNtB2_14MacroDelimiter8is_brace, symObjAddr: 0x2990, symBinAddr: 0x73810, symSize: 0x50 }
  - { offset: 0xDD39D, size: 0x8, addend: 0x0, symName: __RNvMNtNtCsdGrGZaRBwMb_3syn3mac8printingNtB4_14MacroDelimiter8surround, symObjAddr: 0x2A40, symBinAddr: 0x738C0, symSize: 0x200 }
  - { offset: 0xDD4B4, size: 0x8, addend: 0x0, symName: __RNvMNtNtCsdGrGZaRBwMb_3syn3pat7parsingNtB4_3Pat12parse_single, symObjAddr: 0x2C80, symBinAddr: 0x73AC0, symSize: 0x840 }
  - { offset: 0xDD505, size: 0x8, addend: 0x0, symName: __RNvMNtNtCsdGrGZaRBwMb_3syn3pat7parsingNtB4_3Pat29parse_multi_with_leading_vert, symObjAddr: 0x34C0, symBinAddr: 0x74300, symSize: 0xD0 }
  - { offset: 0xDD564, size: 0x8, addend: 0x0, symName: __RNvMs0_NtNtCsdGrGZaRBwMb_3syn3pat7parsingNtB5_13PatRangeBound8into_pat, symObjAddr: 0x3590, symBinAddr: 0x743D0, symSize: 0x170 }
  - { offset: 0xDD5DD, size: 0x8, addend: 0x0, symName: __RNvMs0_NtNtCsdGrGZaRBwMb_3syn3pat7parsingNtB5_13PatRangeBound9into_expr, symObjAddr: 0x3700, symBinAddr: 0x74540, symSize: 0x1A0 }
  - { offset: 0xDD826, size: 0x8, addend: 0x0, symName: __RNvXNtCs9OU1sGv5X54_5quote9to_tokensRNtNtCsdGrGZaRBwMb_3syn3pat3PatNtB2_8ToTokens9to_tokensBD_, symObjAddr: 0x10B20, symBinAddr: 0x80EE0, symSize: 0x30 }
  - { offset: 0xDD865, size: 0x8, addend: 0x0, symName: __RNvXNtCs9OU1sGv5X54_5quote9to_tokensRNtNtCsdGrGZaRBwMb_3syn3pat8FieldPatNtB2_8ToTokens9to_tokensBD_, symObjAddr: 0x10B50, symBinAddr: 0x80F10, symSize: 0x30 }
  - { offset: 0xDDBBF, size: 0x8, addend: 0x0, symName: __RINvMs_NtCsdGrGZaRBwMb_3syn4pathNtB5_4Path8is_identeEB7_, symObjAddr: 0x0, symBinAddr: 0x82070, symSize: 0x80 }
  - { offset: 0xE418D, size: 0x8, addend: 0x0, symName: __RINvYINtNtNtCsieiGu2EXtoJ_4core5slice4iter4IterNtNtCsdGrGZaRBwMb_3syn4attr9AttributeENtNtNtNtBa_4iter6traits8iterator8Iterator6filterFG0_RL1_RL0_BJ_EbEBN_, symObjAddr: 0xB10, symBinAddr: 0x82230, symSize: 0x20 }
  - { offset: 0xE41F1, size: 0x8, addend: 0x0, symName: __RNvYINtNtNtCsieiGu2EXtoJ_4core5slice4iter4IterNtNtCsdGrGZaRBwMb_3syn4expr3ArmENtNtNtNtB9_4iter6traits8iterator8Iterator9enumerateBM_, symObjAddr: 0xC3B0, symBinAddr: 0x8A6E0, symSize: 0x20 }
  - { offset: 0xE423D, size: 0x8, addend: 0x0, symName: __RNvYINtNtNtCsieiGu2EXtoJ_4core5slice4iter4IterhENtNtNtNtB9_4iter6traits8iterator8Iterator3revCsdGrGZaRBwMb_3syn, symObjAddr: 0xC3D0, symBinAddr: 0x8A700, symSize: 0x20 }
  - { offset: 0xE4280, size: 0x8, addend: 0x0, symName: __RNvXNtNtNtCsieiGu2EXtoJ_4core4iter6traits7collectINtNtNtB8_5slice4iter4IterNtCsaKzlTDPUHDb_11proc_macro24SpanENtB2_12IntoIterator9into_iterCsdGrGZaRBwMb_3syn, symObjAddr: 0x5A60, symBinAddr: 0x86990, symSize: 0x20 }
  - { offset: 0xE42B7, size: 0x8, addend: 0x0, symName: __RNvXNtNtNtCsieiGu2EXtoJ_4core4iter6traits7collectINtNtNtB8_5slice4iter4IterNtNtCsdGrGZaRBwMb_3syn4attr9AttributeENtB2_12IntoIterator9into_iterB1f_, symObjAddr: 0x5A80, symBinAddr: 0x869B0, symSize: 0x20 }
  - { offset: 0xE42EE, size: 0x8, addend: 0x0, symName: __RNvXNtNtNtCsieiGu2EXtoJ_4core4iter6traits7collectINtNtNtB8_5slice4iter4IterNtNtCsdGrGZaRBwMb_3syn4item11ForeignItemENtB2_12IntoIterator9into_iterB1f_, symObjAddr: 0x5AC0, symBinAddr: 0x869D0, symSize: 0x20 }
  - { offset: 0xE4325, size: 0x8, addend: 0x0, symName: __RNvXNtNtNtCsieiGu2EXtoJ_4core4iter6traits7collectINtNtNtB8_5slice4iter4IterNtNtCsdGrGZaRBwMb_3syn4item4ItemENtB2_12IntoIterator9into_iterB1f_, symObjAddr: 0x5AE0, symBinAddr: 0x869F0, symSize: 0x20 }
  - { offset: 0xE435C, size: 0x8, addend: 0x0, symName: __RNvXNtNtNtCsieiGu2EXtoJ_4core4iter6traits7collectINtNtNtB8_5slice4iter4IterNtNtCsdGrGZaRBwMb_3syn4item8ImplItemENtB2_12IntoIterator9into_iterB1f_, symObjAddr: 0x5B00, symBinAddr: 0x86A10, symSize: 0x20 }
  - { offset: 0xE4393, size: 0x8, addend: 0x0, symName: __RNvXNtNtNtCsieiGu2EXtoJ_4core4iter6traits7collectINtNtNtB8_5slice4iter4IterNtNtCsdGrGZaRBwMb_3syn4item9TraitItemENtB2_12IntoIterator9into_iterB1f_, symObjAddr: 0x5B20, symBinAddr: 0x86A30, symSize: 0x20 }
  - { offset: 0xE43CA, size: 0x8, addend: 0x0, symName: __RNvXNtNtNtCsieiGu2EXtoJ_4core4iter6traits7collectINtNtNtB8_5slice4iter4IterNtNtCsdGrGZaRBwMb_3syn4stmt4StmtENtB2_12IntoIterator9into_iterB1f_, symObjAddr: 0x5B40, symBinAddr: 0x86A50, symSize: 0x20 }
  - { offset: 0xE4401, size: 0x8, addend: 0x0, symName: __RNvXNtNtNtCsieiGu2EXtoJ_4core4iter6traits7collectINtNtNtB8_5slice4iter4IterNtNtCsdGrGZaRBwMb_3syn5error12ErrorMessageENtB2_12IntoIterator9into_iterB1f_, symObjAddr: 0x5B60, symBinAddr: 0x86A70, symSize: 0x20 }
  - { offset: 0xE4826, size: 0x8, addend: 0x0, symName: __RINvXs2E_NtNtCsieiGu2EXtoJ_4core5slice4iterINtB7_4IterNtNtCsdGrGZaRBwMb_3syn4attr9AttributeENtNtNtNtBb_4iter6traits8iterator8Iterator4findQFG0_RL1_RL0_BQ_EbEBU_, symObjAddr: 0x9D0, symBinAddr: 0x820F0, symSize: 0xA0 }
  - { offset: 0xE488B, size: 0x8, addend: 0x0, symName: __RINvXs2E_NtNtCsieiGu2EXtoJ_4core5slice4iterINtB7_4IterhENtNtNtNtBb_4iter6traits8iterator8Iterator4findNCNvNtNtCsdGrGZaRBwMb_3syn3lit5value15parse_lit_float0EB1K_, symObjAddr: 0xA70, symBinAddr: 0x82190, symSize: 0xA0 }
  - { offset: 0xE48F0, size: 0x8, addend: 0x0, symName: __RNvXs2E_NtNtCsieiGu2EXtoJ_4core5slice4iterINtB6_4IterNtCsaKzlTDPUHDb_11proc_macro24SpanENtNtNtNtBa_4iter6traits8iterator8Iterator4nextCsdGrGZaRBwMb_3syn, symObjAddr: 0x7110, symBinAddr: 0x87310, symSize: 0x90 }
  - { offset: 0xE4A11, size: 0x8, addend: 0x0, symName: __RNvXs2E_NtNtCsieiGu2EXtoJ_4core5slice4iterINtB6_4IterNtNtCsdGrGZaRBwMb_3syn4attr9AttributeENtNtNtNtBa_4iter6traits8iterator8Iterator4nextBT_, symObjAddr: 0x71A0, symBinAddr: 0x873A0, symSize: 0x90 }
  - { offset: 0xE4B32, size: 0x8, addend: 0x0, symName: __RNvXs2E_NtNtCsieiGu2EXtoJ_4core5slice4iterINtB6_4IterNtNtCsdGrGZaRBwMb_3syn4expr3ArmENtNtNtNtBa_4iter6traits8iterator8Iterator4nextBT_, symObjAddr: 0x7230, symBinAddr: 0x87430, symSize: 0x90 }
  - { offset: 0xE4C53, size: 0x8, addend: 0x0, symName: __RNvXs2E_NtNtCsieiGu2EXtoJ_4core5slice4iterINtB6_4IterNtNtCsdGrGZaRBwMb_3syn4item11ForeignItemENtNtNtNtBa_4iter6traits8iterator8Iterator4nextBT_, symObjAddr: 0x72C0, symBinAddr: 0x874C0, symSize: 0x90 }
  - { offset: 0xE4D74, size: 0x8, addend: 0x0, symName: __RNvXs2E_NtNtCsieiGu2EXtoJ_4core5slice4iterINtB6_4IterNtNtCsdGrGZaRBwMb_3syn4item4ItemENtNtNtNtBa_4iter6traits8iterator8Iterator4nextBT_, symObjAddr: 0x7350, symBinAddr: 0x87550, symSize: 0x90 }
  - { offset: 0xE4E95, size: 0x8, addend: 0x0, symName: __RNvXs2E_NtNtCsieiGu2EXtoJ_4core5slice4iterINtB6_4IterNtNtCsdGrGZaRBwMb_3syn4item8ImplItemENtNtNtNtBa_4iter6traits8iterator8Iterator4nextBT_, symObjAddr: 0x73E0, symBinAddr: 0x875E0, symSize: 0x90 }
  - { offset: 0xE4FB6, size: 0x8, addend: 0x0, symName: __RNvXs2E_NtNtCsieiGu2EXtoJ_4core5slice4iterINtB6_4IterNtNtCsdGrGZaRBwMb_3syn4item9TraitItemENtNtNtNtBa_4iter6traits8iterator8Iterator4nextBT_, symObjAddr: 0x7470, symBinAddr: 0x87670, symSize: 0x90 }
  - { offset: 0xE50D7, size: 0x8, addend: 0x0, symName: __RNvXs2E_NtNtCsieiGu2EXtoJ_4core5slice4iterINtB6_4IterNtNtCsdGrGZaRBwMb_3syn4stmt4StmtENtNtNtNtBa_4iter6traits8iterator8Iterator4nextBT_, symObjAddr: 0x7500, symBinAddr: 0x87700, symSize: 0x90 }
  - { offset: 0xE51F8, size: 0x8, addend: 0x0, symName: __RNvXs2E_NtNtCsieiGu2EXtoJ_4core5slice4iterINtB6_4IterNtNtCsdGrGZaRBwMb_3syn5error12ErrorMessageENtNtNtNtBa_4iter6traits8iterator8Iterator4nextBT_, symObjAddr: 0x7590, symBinAddr: 0x87790, symSize: 0x90 }
  - { offset: 0xE5319, size: 0x8, addend: 0x0, symName: __RNvXs2E_NtNtCsieiGu2EXtoJ_4core5slice4iterINtB6_4IterTNtNtCsdGrGZaRBwMb_3syn2ty4TypeNtNtBU_5token5CommaEENtNtNtNtBa_4iter6traits8iterator8Iterator4nextBU_, symObjAddr: 0x7620, symBinAddr: 0x87820, symSize: 0x90 }
  - { offset: 0xE543A, size: 0x8, addend: 0x0, symName: __RNvXs2E_NtNtCsieiGu2EXtoJ_4core5slice4iterINtB6_4IterTNtNtCsdGrGZaRBwMb_3syn2ty9BareFnArgNtNtBU_5token5CommaEENtNtNtNtBa_4iter6traits8iterator8Iterator4nextBU_, symObjAddr: 0x76B0, symBinAddr: 0x878B0, symSize: 0x90 }
  - { offset: 0xE555B, size: 0x8, addend: 0x0, symName: __RNvXs2E_NtNtCsieiGu2EXtoJ_4core5slice4iterINtB6_4IterTNtNtCsdGrGZaRBwMb_3syn3pat3PatNtNtBU_5token2OrEENtNtNtNtBa_4iter6traits8iterator8Iterator4nextBU_, symObjAddr: 0x7740, symBinAddr: 0x87940, symSize: 0x90 }
  - { offset: 0xE567C, size: 0x8, addend: 0x0, symName: __RNvXs2E_NtNtCsieiGu2EXtoJ_4core5slice4iterINtB6_4IterTNtNtCsdGrGZaRBwMb_3syn3pat3PatNtNtBU_5token5CommaEENtNtNtNtBa_4iter6traits8iterator8Iterator4nextBU_, symObjAddr: 0x77D0, symBinAddr: 0x879D0, symSize: 0x90 }
  - { offset: 0xE579D, size: 0x8, addend: 0x0, symName: __RNvXs2E_NtNtCsieiGu2EXtoJ_4core5slice4iterINtB6_4IterTNtNtCsdGrGZaRBwMb_3syn3pat8FieldPatNtNtBU_5token5CommaEENtNtNtNtBa_4iter6traits8iterator8Iterator4nextBU_, symObjAddr: 0x7860, symBinAddr: 0x87A60, symSize: 0x90 }
  - { offset: 0xE58BE, size: 0x8, addend: 0x0, symName: __RNvXs2E_NtNtCsieiGu2EXtoJ_4core5slice4iterINtB6_4IterTNtNtCsdGrGZaRBwMb_3syn4data5FieldNtNtBU_5token5CommaEENtNtNtNtBa_4iter6traits8iterator8Iterator4nextBU_, symObjAddr: 0x78F0, symBinAddr: 0x87AF0, symSize: 0x90 }
  - { offset: 0xE59DF, size: 0x8, addend: 0x0, symName: __RNvXs2E_NtNtCsieiGu2EXtoJ_4core5slice4iterINtB6_4IterTNtNtCsdGrGZaRBwMb_3syn4data7VariantNtNtBU_5token5CommaEENtNtNtNtBa_4iter6traits8iterator8Iterator4nextBU_, symObjAddr: 0x7980, symBinAddr: 0x87B80, symSize: 0x90 }
  - { offset: 0xE5B00, size: 0x8, addend: 0x0, symName: __RNvXs2E_NtNtCsieiGu2EXtoJ_4core5slice4iterINtB6_4IterTNtNtCsdGrGZaRBwMb_3syn4expr10FieldValueNtNtBU_5token5CommaEENtNtNtNtBa_4iter6traits8iterator8Iterator4nextBU_, symObjAddr: 0x7A10, symBinAddr: 0x87C10, symSize: 0x90 }
  - { offset: 0xE5C21, size: 0x8, addend: 0x0, symName: __RNvXs2E_NtNtCsieiGu2EXtoJ_4core5slice4iterINtB6_4IterTNtNtCsdGrGZaRBwMb_3syn4expr4ExprNtNtBU_5token5CommaEENtNtNtNtBa_4iter6traits8iterator8Iterator4nextBU_, symObjAddr: 0x7AA0, symBinAddr: 0x87CA0, symSize: 0x90 }
  - { offset: 0xE5D42, size: 0x8, addend: 0x0, symName: __RNvXs2E_NtNtCsieiGu2EXtoJ_4core5slice4iterINtB6_4IterTNtNtCsdGrGZaRBwMb_3syn4item5FnArgNtNtBU_5token5CommaEENtNtNtNtBa_4iter6traits8iterator8Iterator4nextBU_, symObjAddr: 0x7B30, symBinAddr: 0x87D30, symSize: 0x90 }
  - { offset: 0xE5E63, size: 0x8, addend: 0x0, symName: __RNvXs2E_NtNtCsieiGu2EXtoJ_4core5slice4iterINtB6_4IterTNtNtCsdGrGZaRBwMb_3syn4item7UseTreeNtNtBU_5token5CommaEENtNtNtNtBa_4iter6traits8iterator8Iterator4nextBU_, symObjAddr: 0x7BC0, symBinAddr: 0x87DC0, symSize: 0x90 }
  - { offset: 0xE5F84, size: 0x8, addend: 0x0, symName: __RNvXs2E_NtNtCsieiGu2EXtoJ_4core5slice4iterINtB6_4IterTNtNtCsdGrGZaRBwMb_3syn4path11PathSegmentNtNtBU_5token7PathSepEENtNtNtNtBa_4iter6traits8iterator8Iterator4nextBU_, symObjAddr: 0x7C50, symBinAddr: 0x87E50, symSize: 0x90 }
  - { offset: 0xE60A5, size: 0x8, addend: 0x0, symName: __RNvXs2E_NtNtCsieiGu2EXtoJ_4core5slice4iterINtB6_4IterTNtNtCsdGrGZaRBwMb_3syn4path15GenericArgumentNtNtBU_5token5CommaEENtNtNtNtBa_4iter6traits8iterator8Iterator4nextBU_, symObjAddr: 0x7CE0, symBinAddr: 0x87EE0, symSize: 0x90 }
  - { offset: 0xE61C6, size: 0x8, addend: 0x0, symName: __RNvXs2E_NtNtCsieiGu2EXtoJ_4core5slice4iterINtB6_4IterTNtNtCsdGrGZaRBwMb_3syn8generics12GenericParamNtNtBU_5token5CommaEENtNtNtNtBa_4iter6traits8iterator8Iterator4nextBU_, symObjAddr: 0x7D70, symBinAddr: 0x87F70, symSize: 0x90 }
  - { offset: 0xE62E7, size: 0x8, addend: 0x0, symName: __RNvXs2E_NtNtCsieiGu2EXtoJ_4core5slice4iterINtB6_4IterTNtNtCsdGrGZaRBwMb_3syn8generics13CapturedParamNtNtBU_5token5CommaEENtNtNtNtBa_4iter6traits8iterator8Iterator4nextBU_, symObjAddr: 0x7E00, symBinAddr: 0x88000, symSize: 0x90 }
  - { offset: 0xE6408, size: 0x8, addend: 0x0, symName: __RNvXs2E_NtNtCsieiGu2EXtoJ_4core5slice4iterINtB6_4IterTNtNtCsdGrGZaRBwMb_3syn8generics14TypeParamBoundNtNtBU_5token4PlusEENtNtNtNtBa_4iter6traits8iterator8Iterator4nextBU_, symObjAddr: 0x7E90, symBinAddr: 0x88090, symSize: 0x90 }
  - { offset: 0xE6529, size: 0x8, addend: 0x0, symName: __RNvXs2E_NtNtCsieiGu2EXtoJ_4core5slice4iterINtB6_4IterTNtNtCsdGrGZaRBwMb_3syn8generics14WherePredicateNtNtBU_5token5CommaEENtNtNtNtBa_4iter6traits8iterator8Iterator4nextBU_, symObjAddr: 0x7F20, symBinAddr: 0x88120, symSize: 0x90 }
  - { offset: 0xE664A, size: 0x8, addend: 0x0, symName: __RNvXs2E_NtNtCsieiGu2EXtoJ_4core5slice4iterINtB6_4IterTNtNtCsdGrGZaRBwMb_3syn8lifetime8LifetimeNtNtBU_5token4PlusEENtNtNtNtBa_4iter6traits8iterator8Iterator4nextBU_, symObjAddr: 0x7FB0, symBinAddr: 0x881B0, symSize: 0x90 }
  - { offset: 0xE6FDB, size: 0x8, addend: 0x0, symName: __RNvXs2F_NtNtCsieiGu2EXtoJ_4core5slice4iterINtB6_4IterNtCsaKzlTDPUHDb_11proc_macro24SpanENtNtNtNtBa_4iter6traits12double_ended19DoubleEndedIterator9next_backCsdGrGZaRBwMb_3syn, symObjAddr: 0x8040, symBinAddr: 0x88240, symSize: 0x100 }
  - { offset: 0xE712A, size: 0x8, addend: 0x0, symName: __RNvXs2F_NtNtCsieiGu2EXtoJ_4core5slice4iterINtB6_4IterTNtNtCsdGrGZaRBwMb_3syn4path11PathSegmentNtNtBU_5token7PathSepEENtNtNtNtBa_4iter6traits12double_ended19DoubleEndedIterator9next_backBU_, symObjAddr: 0x8340, symBinAddr: 0x88340, symSize: 0x100 }
  - { offset: 0xE7279, size: 0x8, addend: 0x0, symName: __RNvXs2F_NtNtCsieiGu2EXtoJ_4core5slice4iterINtB6_4IterTNtNtCsdGrGZaRBwMb_3syn8generics14TypeParamBoundNtNtBU_5token4PlusEENtNtNtNtBa_4iter6traits12double_ended19DoubleEndedIterator9next_backBU_, symObjAddr: 0x8540, symBinAddr: 0x88440, symSize: 0x100 }
  - { offset: 0xE73C8, size: 0x8, addend: 0x0, symName: __RNvXs2F_NtNtCsieiGu2EXtoJ_4core5slice4iterINtB6_4IterhENtNtNtNtBa_4iter6traits12double_ended19DoubleEndedIterator9next_backCsdGrGZaRBwMb_3syn, symObjAddr: 0x8640, symBinAddr: 0x88540, symSize: 0x100 }
  - { offset: 0xE7594, size: 0x8, addend: 0x0, symName: __RNvXs2M_NtNtCsieiGu2EXtoJ_4core5slice4iterINtB6_7IterMutTNtNtCsdGrGZaRBwMb_3syn4path11PathSegmentNtNtBX_5token7PathSepEENtNtNtNtBa_4iter6traits8iterator8Iterator4nextBX_, symObjAddr: 0x87D0, symBinAddr: 0x88640, symSize: 0x90 }
  - { offset: 0xE76A0, size: 0x8, addend: 0x0, symName: __RNvXs2M_NtNtCsieiGu2EXtoJ_4core5slice4iterINtB6_7IterMuthENtNtNtNtBa_4iter6traits8iterator8Iterator4nextCsdGrGZaRBwMb_3syn, symObjAddr: 0x88F0, symBinAddr: 0x886D0, symSize: 0x90 }
  - { offset: 0xE77B2, size: 0x8, addend: 0x0, symName: __RNvXs2N_NtNtCsieiGu2EXtoJ_4core5slice4iterINtB6_7IterMutTNtNtCsdGrGZaRBwMb_3syn4path11PathSegmentNtNtBX_5token7PathSepEENtNtNtNtBa_4iter6traits12double_ended19DoubleEndedIterator9next_backBX_, symObjAddr: 0x8A80, symBinAddr: 0x88760, symSize: 0x100 }
  - { offset: 0xE7907, size: 0x8, addend: 0x0, symName: __RNvXs5_NtNtCsieiGu2EXtoJ_4core5slice4iterINtB5_4IterTNtNtCsdGrGZaRBwMb_3syn4path11PathSegmentNtNtBT_5token7PathSepEENtNtB9_5clone5Clone5cloneBT_, symObjAddr: 0xA2D0, symBinAddr: 0x88ED0, symSize: 0x20 }
  - { offset: 0xE793C, size: 0x8, addend: 0x0, symName: __RNvXs5_NtNtCsieiGu2EXtoJ_4core5slice4iterINtB5_4IterTNtNtCsdGrGZaRBwMb_3syn8generics14TypeParamBoundNtNtBT_5token4PlusEENtNtB9_5clone5Clone5cloneBT_, symObjAddr: 0xA310, symBinAddr: 0x88EF0, symSize: 0x20 }
  - { offset: 0xE79CB, size: 0x8, addend: 0x0, symName: __RNvXs_NtNtCsieiGu2EXtoJ_4core5slice4iterRSReNtNtNtNtB8_4iter6traits7collect12IntoIterator9into_iterCsdGrGZaRBwMb_3syn, symObjAddr: 0xBDD0, symBinAddr: 0x8A550, symSize: 0x50 }
  - { offset: 0xE7C50, size: 0x8, addend: 0x0, symName: __RNvMNtCsieiGu2EXtoJ_4core5sliceSTNtNtCsdGrGZaRBwMb_3syn4path11PathSegmentNtNtBz_5token7PathSepE4iterBz_, symObjAddr: 0x1730, symBinAddr: 0x82B10, symSize: 0x20 }
  - { offset: 0xE7C87, size: 0x8, addend: 0x0, symName: __RNvMNtCsieiGu2EXtoJ_4core5sliceSTNtNtCsdGrGZaRBwMb_3syn4path11PathSegmentNtNtBz_5token7PathSepE8iter_mutBz_, symObjAddr: 0x1750, symBinAddr: 0x82B30, symSize: 0x20 }
  - { offset: 0xE7CBE, size: 0x8, addend: 0x0, symName: __RNvMNtCsieiGu2EXtoJ_4core5sliceSTNtNtCsdGrGZaRBwMb_3syn4path15GenericArgumentNtNtBz_5token5CommaE4iterBz_, symObjAddr: 0x1770, symBinAddr: 0x82B50, symSize: 0x20 }
  - { offset: 0xE7DBA, size: 0x8, addend: 0x0, symName: __RNvNvMNtNtCsieiGu2EXtoJ_4core5alloc6layoutNtB4_6Layout25from_size_align_unchecked18precondition_checkCsdGrGZaRBwMb_3syn, symObjAddr: 0x5710, symBinAddr: 0x86710, symSize: 0xB0 }
  - { offset: 0xE992C, size: 0x8, addend: 0x0, symName: __RNcNtNtNtCsdGrGZaRBwMb_3syn4path15GenericArgument5Const0B7_, symObjAddr: 0x16F0, symBinAddr: 0x82AD0, symSize: 0x40 }
  - { offset: 0xE995C, size: 0x8, addend: 0x0, symName: __RNvXNtCsdGrGZaRBwMb_3syn4pathNtB2_4PathINtNtCsieiGu2EXtoJ_4core7convert4FromNtCsaKzlTDPUHDb_11proc_macro25IdentE4fromB4_, symObjAddr: 0x57F0, symBinAddr: 0x867F0, symSize: 0x170 }
  - { offset: 0xE99B3, size: 0x8, addend: 0x0, symName: __RNvXNtNtCsdGrGZaRBwMb_3syn4path7parsingNtB4_4PathNtNtB6_5parse5Parse5parse, symObjAddr: 0x5960, symBinAddr: 0x86960, symSize: 0x30 }
  - { offset: 0xE99E7, size: 0x8, addend: 0x0, symName: __RNvXs1_NtNtCsdGrGZaRBwMb_3syn4path7parsingNtB7_30AngleBracketedGenericArgumentsNtNtB9_5parse5Parse5parse, symObjAddr: 0x6A20, symBinAddr: 0x87240, symSize: 0xD0 }
  - { offset: 0xE9A57, size: 0x8, addend: 0x0, symName: __RNvXs2_NtNtCsdGrGZaRBwMb_3syn4path7parsingNtB7_29ParenthesizedGenericArgumentsNtNtB9_5parse5Parse5parse, symObjAddr: 0x8F10, symBinAddr: 0x88860, symSize: 0x4A0 }
  - { offset: 0xE9B33, size: 0x8, addend: 0x0, symName: __RNvXs_NtNtCsdGrGZaRBwMb_3syn4path7parsingNtB6_15GenericArgumentNtNtB8_5parse5Parse5parse, symObjAddr: 0xA860, symBinAddr: 0x88FE0, symSize: 0x1570 }
  - { offset: 0xE9E05, size: 0x8, addend: 0x0, symName: __RNvXs0_NtCsdGrGZaRBwMb_3syn4pathNtB5_11PathSegmentINtNtCsieiGu2EXtoJ_4core7convert4FromNtCsaKzlTDPUHDb_11proc_macro25IdentE4fromB7_, symObjAddr: 0x5B80, symBinAddr: 0x86A90, symSize: 0x70 }
  - { offset: 0xE9E46, size: 0x8, addend: 0x0, symName: __RNvXs0_NtNtCsdGrGZaRBwMb_3syn4path8printingNtB7_4PathNtNtCs9OU1sGv5X54_5quote9to_tokens8ToTokens9to_tokens, symObjAddr: 0x5BF0, symBinAddr: 0x86B00, symSize: 0x40 }
  - { offset: 0xE9E85, size: 0x8, addend: 0x0, symName: __RNvXs3_NtNtCsdGrGZaRBwMb_3syn4path8printingNtB7_15GenericArgumentNtNtCs9OU1sGv5X54_5quote9to_tokens8ToTokens9to_tokens, symObjAddr: 0x9A50, symBinAddr: 0x88D00, symSize: 0x120 }
  - { offset: 0xE9F70, size: 0x8, addend: 0x0, symName: __RNvXs4_NtNtCsdGrGZaRBwMb_3syn4path8printingNtB7_30AngleBracketedGenericArgumentsNtNtCs9OU1sGv5X54_5quote9to_tokens8ToTokens9to_tokens, symObjAddr: 0xA0C0, symBinAddr: 0x88E20, symSize: 0x40 }
  - { offset: 0xE9FAF, size: 0x8, addend: 0x0, symName: __RNvXs5_NtNtCsdGrGZaRBwMb_3syn4path8printingNtB7_9AssocTypeNtNtCs9OU1sGv5X54_5quote9to_tokens8ToTokens9to_tokens, symObjAddr: 0xA220, symBinAddr: 0x88E60, symSize: 0x70 }
  - { offset: 0xE9FEE, size: 0x8, addend: 0x0, symName: __RNvXs6_NtNtCsdGrGZaRBwMb_3syn4path8printingNtB7_10AssocConstNtNtCs9OU1sGv5X54_5quote9to_tokens8ToTokens9to_tokens, symObjAddr: 0xA330, symBinAddr: 0x88F10, symSize: 0x70 }
  - { offset: 0xEA02D, size: 0x8, addend: 0x0, symName: __RNvXs7_NtNtCsdGrGZaRBwMb_3syn4path8printingNtB7_10ConstraintNtNtCs9OU1sGv5X54_5quote9to_tokens8ToTokens9to_tokens, symObjAddr: 0xA430, symBinAddr: 0x88F80, symSize: 0x60 }
  - { offset: 0xEA5E2, size: 0x8, addend: 0x0, symName: __RNCNvXNtNtCsdGrGZaRBwMb_3syn2ty8printingNtB6_9TypeSliceNtNtCs9OU1sGv5X54_5quote9to_tokens8ToTokens9to_tokens0B8_, symObjAddr: 0xFF0, symBinAddr: 0x823D0, symSize: 0x30 }
  - { offset: 0xEA629, size: 0x8, addend: 0x0, symName: __RNCNvXs2_NtNtCsdGrGZaRBwMb_3syn2ty8printingNtB9_10TypeBareFnNtNtCs9OU1sGv5X54_5quote9to_tokens8ToTokens9to_tokens0Bb_, symObjAddr: 0x1050, symBinAddr: 0x82430, symSize: 0xC0 }
  - { offset: 0xEA6A4, size: 0x8, addend: 0x0, symName: __RNCNvXs4_NtNtCsdGrGZaRBwMb_3syn2ty8printingNtB9_9TypeTupleNtNtCs9OU1sGv5X54_5quote9to_tokens8ToTokens9to_tokens0Bb_, symObjAddr: 0x1220, symBinAddr: 0x82600, symSize: 0x80 }
  - { offset: 0xEA6EB, size: 0x8, addend: 0x0, symName: __RNCNvXs8_NtNtCsdGrGZaRBwMb_3syn2ty8printingNtB9_9TypeGroupNtNtCs9OU1sGv5X54_5quote9to_tokens8ToTokens9to_tokens0Bb_, symObjAddr: 0x1330, symBinAddr: 0x82710, symSize: 0x30 }
  - { offset: 0xEA732, size: 0x8, addend: 0x0, symName: __RNCNvXs9_NtNtCsdGrGZaRBwMb_3syn2ty8printingNtB9_9TypeParenNtNtCs9OU1sGv5X54_5quote9to_tokens8ToTokens9to_tokens0Bb_, symObjAddr: 0x1360, symBinAddr: 0x82740, symSize: 0x30 }
  - { offset: 0xEA779, size: 0x8, addend: 0x0, symName: __RNCNvXs_NtNtCsdGrGZaRBwMb_3syn2ty8printingNtB8_9TypeArrayNtNtCs9OU1sGv5X54_5quote9to_tokens8ToTokens9to_tokens0Ba_, symObjAddr: 0x13F0, symBinAddr: 0x827D0, symSize: 0x60 }
  - { offset: 0xEB967, size: 0x8, addend: 0x0, symName: __RNCNvXNtNtCsdGrGZaRBwMb_3syn4attr8printingNtB6_9AttributeNtNtCs9OU1sGv5X54_5quote9to_tokens8ToTokens9to_tokens0B8_, symObjAddr: 0x1020, symBinAddr: 0x82400, symSize: 0x30 }
  - { offset: 0xED5BB, size: 0x8, addend: 0x0, symName: __RNCNvXs2_NtNtCsdGrGZaRBwMb_3syn4item8printingNtB9_6ItemFnNtNtCs9OU1sGv5X54_5quote9to_tokens8ToTokens9to_tokens0Bb_, symObjAddr: 0x1110, symBinAddr: 0x824F0, symSize: 0xB0 }
  - { offset: 0xED602, size: 0x8, addend: 0x0, symName: __RNCNvXs3_NtNtCsdGrGZaRBwMb_3syn4item8printingNtB9_7ItemModNtNtCs9OU1sGv5X54_5quote9to_tokens8ToTokens9to_tokens0Bb_, symObjAddr: 0x11C0, symBinAddr: 0x825A0, symSize: 0x60 }
  - { offset: 0xED65C, size: 0x8, addend: 0x0, symName: __RNCNvXs4_NtNtCsdGrGZaRBwMb_3syn4item8printingNtB9_14ItemForeignModNtNtCs9OU1sGv5X54_5quote9to_tokens8ToTokens9to_tokens0Bb_, symObjAddr: 0x12A0, symBinAddr: 0x82680, symSize: 0x60 }
  - { offset: 0xED6A3, size: 0x8, addend: 0x0, symName: __RNCNvXs6_NtNtCsdGrGZaRBwMb_3syn4item8printingNtB9_8ItemEnumNtNtCs9OU1sGv5X54_5quote9to_tokens8ToTokens9to_tokens0Bb_, symObjAddr: 0x1300, symBinAddr: 0x826E0, symSize: 0x30 }
  - { offset: 0xED6EA, size: 0x8, addend: 0x0, symName: __RNCNvXs9_NtNtCsdGrGZaRBwMb_3syn4item8printingNtB9_9ItemTraitNtNtCs9OU1sGv5X54_5quote9to_tokens8ToTokens9to_tokens0Bb_, symObjAddr: 0x1390, symBinAddr: 0x82770, symSize: 0x60 }
  - { offset: 0xED731, size: 0x8, addend: 0x0, symName: __RNCNvXsb_NtNtCsdGrGZaRBwMb_3syn4item8printingNtB9_8ItemImplNtNtCs9OU1sGv5X54_5quote9to_tokens8ToTokens9to_tokens0Bb_, symObjAddr: 0x1450, symBinAddr: 0x82830, symSize: 0x60 }
  - { offset: 0xED778, size: 0x8, addend: 0x0, symName: __RNCNvXsc_NtNtCsdGrGZaRBwMb_3syn4item8printingNtB9_9ItemMacroNtNtCs9OU1sGv5X54_5quote9to_tokens8ToTokens9to_tokens0Bb_, symObjAddr: 0x14B0, symBinAddr: 0x82890, symSize: 0x30 }
  - { offset: 0xED7B3, size: 0x8, addend: 0x0, symName: __RNCNvXsc_NtNtCsdGrGZaRBwMb_3syn4item8printingNtB9_9ItemMacroNtNtCs9OU1sGv5X54_5quote9to_tokens8ToTokens9to_tokenss0_0Bb_, symObjAddr: 0x14E0, symBinAddr: 0x828C0, symSize: 0x30 }
  - { offset: 0xED7EE, size: 0x8, addend: 0x0, symName: __RNCNvXsc_NtNtCsdGrGZaRBwMb_3syn4item8printingNtB9_9ItemMacroNtNtCs9OU1sGv5X54_5quote9to_tokens8ToTokens9to_tokenss_0Bb_, symObjAddr: 0x1510, symBinAddr: 0x828F0, symSize: 0x30 }
  - { offset: 0xED835, size: 0x8, addend: 0x0, symName: __RNCNvXsh_NtNtCsdGrGZaRBwMb_3syn4item8printingNtB9_8UseGroupNtNtCs9OU1sGv5X54_5quote9to_tokens8ToTokens9to_tokens0Bb_, symObjAddr: 0x1540, symBinAddr: 0x82920, symSize: 0x30 }
  - { offset: 0xED87C, size: 0x8, addend: 0x0, symName: __RNCNvXsj_NtNtCsdGrGZaRBwMb_3syn4item8printingNtB9_11TraitItemFnNtNtCs9OU1sGv5X54_5quote9to_tokens8ToTokens9to_tokens0Bb_, symObjAddr: 0x1570, symBinAddr: 0x82950, symSize: 0x60 }
  - { offset: 0xED8D6, size: 0x8, addend: 0x0, symName: __RNCNvXsn_NtNtCsdGrGZaRBwMb_3syn4item8printingNtB9_10ImplItemFnNtNtCs9OU1sGv5X54_5quote9to_tokens8ToTokens9to_tokens0Bb_, symObjAddr: 0x15D0, symBinAddr: 0x829B0, symSize: 0x60 }
  - { offset: 0xED91D, size: 0x8, addend: 0x0, symName: __RNCNvXsu_NtNtCsdGrGZaRBwMb_3syn4item8printingNtB9_9SignatureNtNtCs9OU1sGv5X54_5quote9to_tokens8ToTokens9to_tokens0Bb_, symObjAddr: 0x1630, symBinAddr: 0x82A10, symSize: 0xC0 }
  - { offset: 0xEE4B0, size: 0x8, addend: 0x0, symName: __RNCNvXNtCsdGrGZaRBwMb_3syn3extNtCsaKzlTDPUHDb_11proc_macro25IdentNtB4_8IdentExt9parse_any0B6_, symObjAddr: 0xE70, symBinAddr: 0x82250, symSize: 0x180 }
  - { offset: 0xEF47C, size: 0x8, addend: 0x0, symName: __RNvYINtNtCslJiobkLta79_5alloc2rc7RcInnerINtNtCsieiGu2EXtoJ_4core4cell4CellNtNtCsdGrGZaRBwMb_3syn5parse10UnexpectedEENtB5_10RcInnerPtr10inc_strongB1e_, symObjAddr: 0xC310, symBinAddr: 0x8A640, symSize: 0x80 }
  - { offset: 0xEF59E, size: 0x8, addend: 0x0, symName: __RNvYINtNtCslJiobkLta79_5alloc2rc7RcInnerINtNtCsieiGu2EXtoJ_4core4cell4CellNtNtCsdGrGZaRBwMb_3syn5parse10UnexpectedEENtB5_10RcInnerPtr6strongB1e_, symObjAddr: 0xC390, symBinAddr: 0x8A6C0, symSize: 0x20 }
  - { offset: 0xEF5F9, size: 0x8, addend: 0x0, symName: __RNvXs19_NtCslJiobkLta79_5alloc2rcINtB6_4WeakINtNtCsieiGu2EXtoJ_4core4cell4CellNtNtCsdGrGZaRBwMb_3syn5parse10UnexpectedERNtNtB8_5alloc6GlobalENtNtNtBL_3ops4drop4Drop4dropB1i_, symObjAddr: 0x5CB0, symBinAddr: 0x86B40, symSize: 0x160 }
  - { offset: 0xEF87F, size: 0x8, addend: 0x0, symName: __RNvXsu_NtCslJiobkLta79_5alloc2rcINtB5_2RcINtNtCsieiGu2EXtoJ_4core4cell4CellNtNtCsdGrGZaRBwMb_3syn5parse10UnexpectedEENtNtNtBI_3ops4drop4Drop4dropB1f_, symObjAddr: 0xC270, symBinAddr: 0x8A5A0, symSize: 0x60 }
  - { offset: 0xEFA89, size: 0x8, addend: 0x0, symName: __RNvXsv_NtCslJiobkLta79_5alloc2rcINtB5_2RcINtNtCsieiGu2EXtoJ_4core4cell4CellNtNtCsdGrGZaRBwMb_3syn5parse10UnexpectedEENtNtBI_5clone5Clone5cloneB1f_, symObjAddr: 0xC2D0, symBinAddr: 0x8A600, symSize: 0x40 }
  - { offset: 0xF110C, size: 0x8, addend: 0x0, symName: __RNvXs1_NtCslJiobkLta79_5alloc7raw_vecINtB5_6RawVecNtNtCsdGrGZaRBwMb_3syn4attr9AttributeENtNtNtCsieiGu2EXtoJ_4core3ops4drop4Drop4dropBQ_, symObjAddr: 0x6250, symBinAddr: 0x86CA0, symSize: 0x30 }
  - { offset: 0xF1148, size: 0x8, addend: 0x0, symName: __RNvXs1_NtCslJiobkLta79_5alloc7raw_vecINtB5_6RawVecNtNtCsdGrGZaRBwMb_3syn4expr3ArmENtNtNtCsieiGu2EXtoJ_4core3ops4drop4Drop4dropBQ_, symObjAddr: 0x62B0, symBinAddr: 0x86CD0, symSize: 0x30 }
  - { offset: 0xF1184, size: 0x8, addend: 0x0, symName: __RNvXs1_NtCslJiobkLta79_5alloc7raw_vecINtB5_6RawVecNtNtCsdGrGZaRBwMb_3syn4expr6ExprIfENtNtNtCsieiGu2EXtoJ_4core3ops4drop4Drop4dropBQ_, symObjAddr: 0x62E0, symBinAddr: 0x86D00, symSize: 0x30 }
  - { offset: 0xF11C0, size: 0x8, addend: 0x0, symName: __RNvXs1_NtCslJiobkLta79_5alloc7raw_vecINtB5_6RawVecNtNtCsdGrGZaRBwMb_3syn4item11ForeignItemENtNtNtCsieiGu2EXtoJ_4core3ops4drop4Drop4dropBQ_, symObjAddr: 0x6310, symBinAddr: 0x86D30, symSize: 0x30 }
  - { offset: 0xF11FC, size: 0x8, addend: 0x0, symName: __RNvXs1_NtCslJiobkLta79_5alloc7raw_vecINtB5_6RawVecNtNtCsdGrGZaRBwMb_3syn4item4ItemENtNtNtCsieiGu2EXtoJ_4core3ops4drop4Drop4dropBQ_, symObjAddr: 0x6340, symBinAddr: 0x86D60, symSize: 0x30 }
  - { offset: 0xF1238, size: 0x8, addend: 0x0, symName: __RNvXs1_NtCslJiobkLta79_5alloc7raw_vecINtB5_6RawVecNtNtCsdGrGZaRBwMb_3syn4item8ImplItemENtNtNtCsieiGu2EXtoJ_4core3ops4drop4Drop4dropBQ_, symObjAddr: 0x6370, symBinAddr: 0x86D90, symSize: 0x30 }
  - { offset: 0xF1274, size: 0x8, addend: 0x0, symName: __RNvXs1_NtCslJiobkLta79_5alloc7raw_vecINtB5_6RawVecNtNtCsdGrGZaRBwMb_3syn4item9TraitItemENtNtNtCsieiGu2EXtoJ_4core3ops4drop4Drop4dropBQ_, symObjAddr: 0x63A0, symBinAddr: 0x86DC0, symSize: 0x30 }
  - { offset: 0xF12B0, size: 0x8, addend: 0x0, symName: __RNvXs1_NtCslJiobkLta79_5alloc7raw_vecINtB5_6RawVecNtNtCsdGrGZaRBwMb_3syn4stmt4StmtENtNtNtCsieiGu2EXtoJ_4core3ops4drop4Drop4dropBQ_, symObjAddr: 0x63D0, symBinAddr: 0x86DF0, symSize: 0x30 }
  - { offset: 0xF12EC, size: 0x8, addend: 0x0, symName: __RNvXs1_NtCslJiobkLta79_5alloc7raw_vecINtB5_6RawVecNtNtCsdGrGZaRBwMb_3syn5error12ErrorMessageENtNtNtCsieiGu2EXtoJ_4core3ops4drop4Drop4dropBQ_, symObjAddr: 0x6400, symBinAddr: 0x86E20, symSize: 0x30 }
  - { offset: 0xF1328, size: 0x8, addend: 0x0, symName: __RNvXs1_NtCslJiobkLta79_5alloc7raw_vecINtB5_6RawVecNtNtCsdGrGZaRBwMb_3syn6buffer5EntryENtNtNtCsieiGu2EXtoJ_4core3ops4drop4Drop4dropBQ_, symObjAddr: 0x6430, symBinAddr: 0x86E50, symSize: 0x30 }
  - { offset: 0xF1364, size: 0x8, addend: 0x0, symName: __RNvXs1_NtCslJiobkLta79_5alloc7raw_vecINtB5_6RawVecNtNtCsdGrGZaRBwMb_3syn8generics14TypeParamBoundENtNtNtCsieiGu2EXtoJ_4core3ops4drop4Drop4dropBQ_, symObjAddr: 0x6460, symBinAddr: 0x86E80, symSize: 0x30 }
  - { offset: 0xF13A0, size: 0x8, addend: 0x0, symName: __RNvXs1_NtCslJiobkLta79_5alloc7raw_vecINtB5_6RawVecReENtNtNtCsieiGu2EXtoJ_4core3ops4drop4Drop4dropCsdGrGZaRBwMb_3syn, symObjAddr: 0x6490, symBinAddr: 0x86EB0, symSize: 0x30 }
  - { offset: 0xF13DC, size: 0x8, addend: 0x0, symName: __RNvXs1_NtCslJiobkLta79_5alloc7raw_vecINtB5_6RawVecTNtNtCsdGrGZaRBwMb_3syn2ty4TypeNtNtBR_5token5CommaEENtNtNtCsieiGu2EXtoJ_4core3ops4drop4Drop4dropBR_, symObjAddr: 0x64C0, symBinAddr: 0x86EE0, symSize: 0x30 }
  - { offset: 0xF1418, size: 0x8, addend: 0x0, symName: __RNvXs1_NtCslJiobkLta79_5alloc7raw_vecINtB5_6RawVecTNtNtCsdGrGZaRBwMb_3syn2ty9BareFnArgNtNtBR_5token5CommaEENtNtNtCsieiGu2EXtoJ_4core3ops4drop4Drop4dropBR_, symObjAddr: 0x64F0, symBinAddr: 0x86F10, symSize: 0x30 }
  - { offset: 0xF1454, size: 0x8, addend: 0x0, symName: __RNvXs1_NtCslJiobkLta79_5alloc7raw_vecINtB5_6RawVecTNtNtCsdGrGZaRBwMb_3syn3pat3PatNtNtBR_5token2OrEENtNtNtCsieiGu2EXtoJ_4core3ops4drop4Drop4dropBR_, symObjAddr: 0x6520, symBinAddr: 0x86F40, symSize: 0x30 }
  - { offset: 0xF1490, size: 0x8, addend: 0x0, symName: __RNvXs1_NtCslJiobkLta79_5alloc7raw_vecINtB5_6RawVecTNtNtCsdGrGZaRBwMb_3syn3pat3PatNtNtBR_5token5CommaEENtNtNtCsieiGu2EXtoJ_4core3ops4drop4Drop4dropBR_, symObjAddr: 0x6550, symBinAddr: 0x86F70, symSize: 0x30 }
  - { offset: 0xF14CC, size: 0x8, addend: 0x0, symName: __RNvXs1_NtCslJiobkLta79_5alloc7raw_vecINtB5_6RawVecTNtNtCsdGrGZaRBwMb_3syn3pat8FieldPatNtNtBR_5token5CommaEENtNtNtCsieiGu2EXtoJ_4core3ops4drop4Drop4dropBR_, symObjAddr: 0x6580, symBinAddr: 0x86FA0, symSize: 0x30 }
  - { offset: 0xF1508, size: 0x8, addend: 0x0, symName: __RNvXs1_NtCslJiobkLta79_5alloc7raw_vecINtB5_6RawVecTNtNtCsdGrGZaRBwMb_3syn4data5FieldNtNtBR_5token5CommaEENtNtNtCsieiGu2EXtoJ_4core3ops4drop4Drop4dropBR_, symObjAddr: 0x65B0, symBinAddr: 0x86FD0, symSize: 0x30 }
  - { offset: 0xF1544, size: 0x8, addend: 0x0, symName: __RNvXs1_NtCslJiobkLta79_5alloc7raw_vecINtB5_6RawVecTNtNtCsdGrGZaRBwMb_3syn4data7VariantNtNtBR_5token5CommaEENtNtNtCsieiGu2EXtoJ_4core3ops4drop4Drop4dropBR_, symObjAddr: 0x6610, symBinAddr: 0x87000, symSize: 0x30 }
  - { offset: 0xF1580, size: 0x8, addend: 0x0, symName: __RNvXs1_NtCslJiobkLta79_5alloc7raw_vecINtB5_6RawVecTNtNtCsdGrGZaRBwMb_3syn4expr10FieldValueNtNtBR_5token5CommaEENtNtNtCsieiGu2EXtoJ_4core3ops4drop4Drop4dropBR_, symObjAddr: 0x6640, symBinAddr: 0x87030, symSize: 0x30 }
  - { offset: 0xF15BC, size: 0x8, addend: 0x0, symName: __RNvXs1_NtCslJiobkLta79_5alloc7raw_vecINtB5_6RawVecTNtNtCsdGrGZaRBwMb_3syn4expr4ExprNtNtBR_5token5CommaEENtNtNtCsieiGu2EXtoJ_4core3ops4drop4Drop4dropBR_, symObjAddr: 0x6670, symBinAddr: 0x87060, symSize: 0x30 }
  - { offset: 0xF15F8, size: 0x8, addend: 0x0, symName: __RNvXs1_NtCslJiobkLta79_5alloc7raw_vecINtB5_6RawVecTNtNtCsdGrGZaRBwMb_3syn4item5FnArgNtNtBR_5token5CommaEENtNtNtCsieiGu2EXtoJ_4core3ops4drop4Drop4dropBR_, symObjAddr: 0x66A0, symBinAddr: 0x87090, symSize: 0x30 }
  - { offset: 0xF1634, size: 0x8, addend: 0x0, symName: __RNvXs1_NtCslJiobkLta79_5alloc7raw_vecINtB5_6RawVecTNtNtCsdGrGZaRBwMb_3syn4item7UseTreeNtNtBR_5token5CommaEENtNtNtCsieiGu2EXtoJ_4core3ops4drop4Drop4dropBR_, symObjAddr: 0x66D0, symBinAddr: 0x870C0, symSize: 0x30 }
  - { offset: 0xF1670, size: 0x8, addend: 0x0, symName: __RNvXs1_NtCslJiobkLta79_5alloc7raw_vecINtB5_6RawVecTNtNtCsdGrGZaRBwMb_3syn4path11PathSegmentNtNtBR_5token7PathSepEENtNtNtCsieiGu2EXtoJ_4core3ops4drop4Drop4dropBR_, symObjAddr: 0x6700, symBinAddr: 0x870F0, symSize: 0x30 }
  - { offset: 0xF16AC, size: 0x8, addend: 0x0, symName: __RNvXs1_NtCslJiobkLta79_5alloc7raw_vecINtB5_6RawVecTNtNtCsdGrGZaRBwMb_3syn4path15GenericArgumentNtNtBR_5token5CommaEENtNtNtCsieiGu2EXtoJ_4core3ops4drop4Drop4dropBR_, symObjAddr: 0x6730, symBinAddr: 0x87120, symSize: 0x30 }
  - { offset: 0xF16E8, size: 0x8, addend: 0x0, symName: __RNvXs1_NtCslJiobkLta79_5alloc7raw_vecINtB5_6RawVecTNtNtCsdGrGZaRBwMb_3syn8generics12GenericParamNtNtBR_5token5CommaEENtNtNtCsieiGu2EXtoJ_4core3ops4drop4Drop4dropBR_, symObjAddr: 0x6760, symBinAddr: 0x87150, symSize: 0x30 }
  - { offset: 0xF1724, size: 0x8, addend: 0x0, symName: __RNvXs1_NtCslJiobkLta79_5alloc7raw_vecINtB5_6RawVecTNtNtCsdGrGZaRBwMb_3syn8generics13CapturedParamNtNtBR_5token5CommaEENtNtNtCsieiGu2EXtoJ_4core3ops4drop4Drop4dropBR_, symObjAddr: 0x6790, symBinAddr: 0x87180, symSize: 0x30 }
  - { offset: 0xF1760, size: 0x8, addend: 0x0, symName: __RNvXs1_NtCslJiobkLta79_5alloc7raw_vecINtB5_6RawVecTNtNtCsdGrGZaRBwMb_3syn8generics14TypeParamBoundNtNtBR_5token4PlusEENtNtNtCsieiGu2EXtoJ_4core3ops4drop4Drop4dropBR_, symObjAddr: 0x67C0, symBinAddr: 0x871B0, symSize: 0x30 }
  - { offset: 0xF179C, size: 0x8, addend: 0x0, symName: __RNvXs1_NtCslJiobkLta79_5alloc7raw_vecINtB5_6RawVecTNtNtCsdGrGZaRBwMb_3syn8generics14WherePredicateNtNtBR_5token5CommaEENtNtNtCsieiGu2EXtoJ_4core3ops4drop4Drop4dropBR_, symObjAddr: 0x67F0, symBinAddr: 0x871E0, symSize: 0x30 }
  - { offset: 0xF17D8, size: 0x8, addend: 0x0, symName: __RNvXs1_NtCslJiobkLta79_5alloc7raw_vecINtB5_6RawVecTNtNtCsdGrGZaRBwMb_3syn8lifetime8LifetimeNtNtBR_5token4PlusEENtNtNtCsieiGu2EXtoJ_4core3ops4drop4Drop4dropBR_, symObjAddr: 0x6820, symBinAddr: 0x87210, symSize: 0x30 }
  - { offset: 0xF1EF4, size: 0x8, addend: 0x0, symName: __RINvMs_NtCsdGrGZaRBwMb_3syn4pathNtB5_4Path8is_identeEB7_, symObjAddr: 0x0, symBinAddr: 0x82070, symSize: 0x80 }
  - { offset: 0xF21D4, size: 0x8, addend: 0x0, symName: __RNvMs0_NtCslJiobkLta79_5alloc7raw_vecINtB5_6RawVecNtNtCsdGrGZaRBwMb_3syn4attr9AttributeE8grow_oneBQ_, symObjAddr: 0x1790, symBinAddr: 0x82B70, symSize: 0x90 }
  - { offset: 0xF2286, size: 0x8, addend: 0x0, symName: __RNvMs0_NtCslJiobkLta79_5alloc7raw_vecINtB5_6RawVecNtNtCsdGrGZaRBwMb_3syn4expr3ArmE8grow_oneBQ_, symObjAddr: 0x18B0, symBinAddr: 0x82C00, symSize: 0x90 }
  - { offset: 0xF2338, size: 0x8, addend: 0x0, symName: __RNvMs0_NtCslJiobkLta79_5alloc7raw_vecINtB5_6RawVecNtNtCsdGrGZaRBwMb_3syn4expr6ExprIfE8grow_oneBQ_, symObjAddr: 0x1940, symBinAddr: 0x82C90, symSize: 0x90 }
  - { offset: 0xF23EA, size: 0x8, addend: 0x0, symName: __RNvMs0_NtCslJiobkLta79_5alloc7raw_vecINtB5_6RawVecNtNtCsdGrGZaRBwMb_3syn4item11ForeignItemE8grow_oneBQ_, symObjAddr: 0x19D0, symBinAddr: 0x82D20, symSize: 0x90 }
  - { offset: 0xF249C, size: 0x8, addend: 0x0, symName: __RNvMs0_NtCslJiobkLta79_5alloc7raw_vecINtB5_6RawVecNtNtCsdGrGZaRBwMb_3syn4item4ItemE8grow_oneBQ_, symObjAddr: 0x1A60, symBinAddr: 0x82DB0, symSize: 0x90 }
  - { offset: 0xF254E, size: 0x8, addend: 0x0, symName: __RNvMs0_NtCslJiobkLta79_5alloc7raw_vecINtB5_6RawVecNtNtCsdGrGZaRBwMb_3syn4item8ImplItemE8grow_oneBQ_, symObjAddr: 0x1AF0, symBinAddr: 0x82E40, symSize: 0x90 }
  - { offset: 0xF2600, size: 0x8, addend: 0x0, symName: __RNvMs0_NtCslJiobkLta79_5alloc7raw_vecINtB5_6RawVecNtNtCsdGrGZaRBwMb_3syn4item9TraitItemE8grow_oneBQ_, symObjAddr: 0x1B80, symBinAddr: 0x82ED0, symSize: 0x90 }
  - { offset: 0xF26B2, size: 0x8, addend: 0x0, symName: __RNvMs0_NtCslJiobkLta79_5alloc7raw_vecINtB5_6RawVecNtNtCsdGrGZaRBwMb_3syn4stmt4StmtE8grow_oneBQ_, symObjAddr: 0x1C10, symBinAddr: 0x82F60, symSize: 0x90 }
  - { offset: 0xF276B, size: 0x8, addend: 0x0, symName: __RNvMs0_NtCslJiobkLta79_5alloc7raw_vecINtB5_6RawVecNtNtCsdGrGZaRBwMb_3syn6buffer5EntryE8grow_oneBQ_, symObjAddr: 0x1CA0, symBinAddr: 0x82FF0, symSize: 0x90 }
  - { offset: 0xF2A4C, size: 0x8, addend: 0x0, symName: __RNvMs0_NtCslJiobkLta79_5alloc7raw_vecINtB5_6RawVecNtNtCsdGrGZaRBwMb_3syn6buffer5EntryE8into_boxBQ_, symObjAddr: 0x1D30, symBinAddr: 0x83080, symSize: 0x90 }
  - { offset: 0xF2C4C, size: 0x8, addend: 0x0, symName: __RNvMs0_NtCslJiobkLta79_5alloc7raw_vecINtB5_6RawVecNtNtCsdGrGZaRBwMb_3syn8generics14TypeParamBoundE8grow_oneBQ_, symObjAddr: 0x1DC0, symBinAddr: 0x83110, symSize: 0x90 }
  - { offset: 0xF2CFE, size: 0x8, addend: 0x0, symName: __RNvMs0_NtCslJiobkLta79_5alloc7raw_vecINtB5_6RawVecTNtNtCsdGrGZaRBwMb_3syn2ty4TypeNtNtBR_5token5CommaEE8grow_oneBR_, symObjAddr: 0x1E50, symBinAddr: 0x831A0, symSize: 0x90 }
  - { offset: 0xF2DB0, size: 0x8, addend: 0x0, symName: __RNvMs0_NtCslJiobkLta79_5alloc7raw_vecINtB5_6RawVecTNtNtCsdGrGZaRBwMb_3syn2ty9BareFnArgNtNtBR_5token5CommaEE8grow_oneBR_, symObjAddr: 0x1EE0, symBinAddr: 0x83230, symSize: 0x90 }
  - { offset: 0xF2E62, size: 0x8, addend: 0x0, symName: __RNvMs0_NtCslJiobkLta79_5alloc7raw_vecINtB5_6RawVecTNtNtCsdGrGZaRBwMb_3syn3pat3PatNtNtBR_5token2OrEE8grow_oneBR_, symObjAddr: 0x1F70, symBinAddr: 0x832C0, symSize: 0x90 }
  - { offset: 0xF2F14, size: 0x8, addend: 0x0, symName: __RNvMs0_NtCslJiobkLta79_5alloc7raw_vecINtB5_6RawVecTNtNtCsdGrGZaRBwMb_3syn3pat3PatNtNtBR_5token5CommaEE8grow_oneBR_, symObjAddr: 0x2000, symBinAddr: 0x83350, symSize: 0x90 }
  - { offset: 0xF2FC6, size: 0x8, addend: 0x0, symName: __RNvMs0_NtCslJiobkLta79_5alloc7raw_vecINtB5_6RawVecTNtNtCsdGrGZaRBwMb_3syn3pat8FieldPatNtNtBR_5token5CommaEE8grow_oneBR_, symObjAddr: 0x2090, symBinAddr: 0x833E0, symSize: 0x90 }
  - { offset: 0xF3078, size: 0x8, addend: 0x0, symName: __RNvMs0_NtCslJiobkLta79_5alloc7raw_vecINtB5_6RawVecTNtNtCsdGrGZaRBwMb_3syn4data5FieldNtNtBR_5token5CommaEE8grow_oneBR_, symObjAddr: 0x2120, symBinAddr: 0x83470, symSize: 0x90 }
  - { offset: 0xF312A, size: 0x8, addend: 0x0, symName: __RNvMs0_NtCslJiobkLta79_5alloc7raw_vecINtB5_6RawVecTNtNtCsdGrGZaRBwMb_3syn4data7VariantNtNtBR_5token5CommaEE8grow_oneBR_, symObjAddr: 0x21B0, symBinAddr: 0x83500, symSize: 0x90 }
  - { offset: 0xF31DC, size: 0x8, addend: 0x0, symName: __RNvMs0_NtCslJiobkLta79_5alloc7raw_vecINtB5_6RawVecTNtNtCsdGrGZaRBwMb_3syn4expr10FieldValueNtNtBR_5token5CommaEE8grow_oneBR_, symObjAddr: 0x2240, symBinAddr: 0x83590, symSize: 0x90 }
  - { offset: 0xF328E, size: 0x8, addend: 0x0, symName: __RNvMs0_NtCslJiobkLta79_5alloc7raw_vecINtB5_6RawVecTNtNtCsdGrGZaRBwMb_3syn4expr4ExprNtNtBR_5token5CommaEE8grow_oneBR_, symObjAddr: 0x22D0, symBinAddr: 0x83620, symSize: 0x90 }
  - { offset: 0xF3340, size: 0x8, addend: 0x0, symName: __RNvMs0_NtCslJiobkLta79_5alloc7raw_vecINtB5_6RawVecTNtNtCsdGrGZaRBwMb_3syn4item5FnArgNtNtBR_5token5CommaEE8grow_oneBR_, symObjAddr: 0x2360, symBinAddr: 0x836B0, symSize: 0x90 }
  - { offset: 0xF33F2, size: 0x8, addend: 0x0, symName: __RNvMs0_NtCslJiobkLta79_5alloc7raw_vecINtB5_6RawVecTNtNtCsdGrGZaRBwMb_3syn4item7UseTreeNtNtBR_5token5CommaEE8grow_oneBR_, symObjAddr: 0x23F0, symBinAddr: 0x83740, symSize: 0x90 }
  - { offset: 0xF34A4, size: 0x8, addend: 0x0, symName: __RNvMs0_NtCslJiobkLta79_5alloc7raw_vecINtB5_6RawVecTNtNtCsdGrGZaRBwMb_3syn4path11PathSegmentNtNtBR_5token7PathSepEE8grow_oneBR_, symObjAddr: 0x2480, symBinAddr: 0x837D0, symSize: 0x90 }
  - { offset: 0xF3556, size: 0x8, addend: 0x0, symName: __RNvMs0_NtCslJiobkLta79_5alloc7raw_vecINtB5_6RawVecTNtNtCsdGrGZaRBwMb_3syn4path15GenericArgumentNtNtBR_5token5CommaEE8grow_oneBR_, symObjAddr: 0x2510, symBinAddr: 0x83860, symSize: 0x90 }
  - { offset: 0xF3608, size: 0x8, addend: 0x0, symName: __RNvMs0_NtCslJiobkLta79_5alloc7raw_vecINtB5_6RawVecTNtNtCsdGrGZaRBwMb_3syn8generics12GenericParamNtNtBR_5token5CommaEE8grow_oneBR_, symObjAddr: 0x25A0, symBinAddr: 0x838F0, symSize: 0x90 }
  - { offset: 0xF36BA, size: 0x8, addend: 0x0, symName: __RNvMs0_NtCslJiobkLta79_5alloc7raw_vecINtB5_6RawVecTNtNtCsdGrGZaRBwMb_3syn8generics13CapturedParamNtNtBR_5token5CommaEE8grow_oneBR_, symObjAddr: 0x2630, symBinAddr: 0x83980, symSize: 0x90 }
  - { offset: 0xF376C, size: 0x8, addend: 0x0, symName: __RNvMs0_NtCslJiobkLta79_5alloc7raw_vecINtB5_6RawVecTNtNtCsdGrGZaRBwMb_3syn8generics14TypeParamBoundNtNtBR_5token4PlusEE8grow_oneBR_, symObjAddr: 0x26C0, symBinAddr: 0x83A10, symSize: 0x90 }
  - { offset: 0xF381E, size: 0x8, addend: 0x0, symName: __RNvMs0_NtCslJiobkLta79_5alloc7raw_vecINtB5_6RawVecTNtNtCsdGrGZaRBwMb_3syn8generics14WherePredicateNtNtBR_5token5CommaEE8grow_oneBR_, symObjAddr: 0x2750, symBinAddr: 0x83AA0, symSize: 0x90 }
  - { offset: 0xF38D0, size: 0x8, addend: 0x0, symName: __RNvMs0_NtCslJiobkLta79_5alloc7raw_vecINtB5_6RawVecTNtNtCsdGrGZaRBwMb_3syn8lifetime8LifetimeNtNtBR_5token4PlusEE8grow_oneBR_, symObjAddr: 0x27E0, symBinAddr: 0x83B30, symSize: 0x90 }
  - { offset: 0xF3992, size: 0x8, addend: 0x0, symName: __RNvMs0_NtNtCsdGrGZaRBwMb_3syn4path7parsingNtB7_30AngleBracketedGenericArguments15parse_turbofish, symObjAddr: 0x2940, symBinAddr: 0x83BC0, symSize: 0xD0 }
  - { offset: 0xF39F1, size: 0x8, addend: 0x0, symName: __RNvMs0_NtNtCsdGrGZaRBwMb_3syn4path7parsingNtB7_30AngleBracketedGenericArguments8do_parse, symObjAddr: 0x2A10, symBinAddr: 0x83C90, symSize: 0x540 }
  - { offset: 0xF3B15, size: 0x8, addend: 0x0, symName: __RNvMs2_NtCsdGrGZaRBwMb_3syn4pathNtB5_13PathArguments7is_none, symObjAddr: 0x3000, symBinAddr: 0x841D0, symSize: 0x60 }
  - { offset: 0xF3B37, size: 0x8, addend: 0x0, symName: __RNvMs2_NtCsdGrGZaRBwMb_3syn4pathNtB5_13PathArguments8is_empty, symObjAddr: 0x3060, symBinAddr: 0x84230, symSize: 0x90 }
  - { offset: 0xF3BFA, size: 0x8, addend: 0x0, symName: __RNvMs2_NtCslJiobkLta79_5alloc7raw_vecNtB5_11RawVecInner14current_memoryCsdGrGZaRBwMb_3syn, symObjAddr: 0x30F0, symBinAddr: 0x842C0, symSize: 0x170 }
  - { offset: 0xF3E67, size: 0x8, addend: 0x0, symName: __RNvMs2_NtCslJiobkLta79_5alloc7raw_vecNtB5_11RawVecInner16shrink_uncheckedCsdGrGZaRBwMb_3syn, symObjAddr: 0x3260, symBinAddr: 0x84430, symSize: 0x3E0 }
  - { offset: 0xF4210, size: 0x8, addend: 0x0, symName: __RNvMs2_NtCslJiobkLta79_5alloc7raw_vecNtB5_11RawVecInner6shrinkCsdGrGZaRBwMb_3syn, symObjAddr: 0x3640, symBinAddr: 0x84810, symSize: 0xE0 }
  - { offset: 0xF42D3, size: 0x8, addend: 0x0, symName: __RNvMs4_NtNtCsdGrGZaRBwMb_3syn4path7parsingNtB7_11PathSegment12parse_helper, symObjAddr: 0x37B0, symBinAddr: 0x848F0, symSize: 0x790 }
  - { offset: 0xF44D5, size: 0x8, addend: 0x0, symName: __RNvMs4_NtNtCsieiGu2EXtoJ_4core5slice4iterINtB5_4IterNtCsaKzlTDPUHDb_11proc_macro24SpanE3newCsdGrGZaRBwMb_3syn, symObjAddr: 0x3F40, symBinAddr: 0x85080, symSize: 0x50 }
  - { offset: 0xF4682, size: 0x8, addend: 0x0, symName: __RNvMs4_NtNtCsieiGu2EXtoJ_4core5slice4iterINtB5_4IterNtNtCsdGrGZaRBwMb_3syn4attr9AttributeE3newBS_, symObjAddr: 0x3F90, symBinAddr: 0x850D0, symSize: 0x50 }
  - { offset: 0xF4849, size: 0x8, addend: 0x0, symName: __RNvMs4_NtNtCsieiGu2EXtoJ_4core5slice4iterINtB5_4IterNtNtCsdGrGZaRBwMb_3syn4expr3ArmE3newBS_, symObjAddr: 0x3FE0, symBinAddr: 0x85120, symSize: 0x50 }
  - { offset: 0xF4A5E, size: 0x8, addend: 0x0, symName: __RNvMs4_NtNtCsieiGu2EXtoJ_4core5slice4iterINtB5_4IterTNtNtCsdGrGZaRBwMb_3syn2ty4TypeNtNtBT_5token5CommaEE3newBT_, symObjAddr: 0x4080, symBinAddr: 0x85170, symSize: 0x50 }
  - { offset: 0xF4C25, size: 0x8, addend: 0x0, symName: __RNvMs4_NtNtCsieiGu2EXtoJ_4core5slice4iterINtB5_4IterTNtNtCsdGrGZaRBwMb_3syn2ty9BareFnArgNtNtBT_5token5CommaEE3newBT_, symObjAddr: 0x40D0, symBinAddr: 0x851C0, symSize: 0x50 }
  - { offset: 0xF4DEC, size: 0x8, addend: 0x0, symName: __RNvMs4_NtNtCsieiGu2EXtoJ_4core5slice4iterINtB5_4IterTNtNtCsdGrGZaRBwMb_3syn3pat3PatNtNtBT_5token2OrEE3newBT_, symObjAddr: 0x4120, symBinAddr: 0x85210, symSize: 0x50 }
  - { offset: 0xF4FB3, size: 0x8, addend: 0x0, symName: __RNvMs4_NtNtCsieiGu2EXtoJ_4core5slice4iterINtB5_4IterTNtNtCsdGrGZaRBwMb_3syn3pat3PatNtNtBT_5token5CommaEE3newBT_, symObjAddr: 0x4170, symBinAddr: 0x85260, symSize: 0x50 }
  - { offset: 0xF517A, size: 0x8, addend: 0x0, symName: __RNvMs4_NtNtCsieiGu2EXtoJ_4core5slice4iterINtB5_4IterTNtNtCsdGrGZaRBwMb_3syn3pat8FieldPatNtNtBT_5token5CommaEE3newBT_, symObjAddr: 0x41C0, symBinAddr: 0x852B0, symSize: 0x50 }
  - { offset: 0xF5341, size: 0x8, addend: 0x0, symName: __RNvMs4_NtNtCsieiGu2EXtoJ_4core5slice4iterINtB5_4IterTNtNtCsdGrGZaRBwMb_3syn4data5FieldNtNtBT_5token5CommaEE3newBT_, symObjAddr: 0x4210, symBinAddr: 0x85300, symSize: 0x50 }
  - { offset: 0xF5508, size: 0x8, addend: 0x0, symName: __RNvMs4_NtNtCsieiGu2EXtoJ_4core5slice4iterINtB5_4IterTNtNtCsdGrGZaRBwMb_3syn4data7VariantNtNtBT_5token5CommaEE3newBT_, symObjAddr: 0x4260, symBinAddr: 0x85350, symSize: 0x50 }
  - { offset: 0xF56CF, size: 0x8, addend: 0x0, symName: __RNvMs4_NtNtCsieiGu2EXtoJ_4core5slice4iterINtB5_4IterTNtNtCsdGrGZaRBwMb_3syn4expr10FieldValueNtNtBT_5token5CommaEE3newBT_, symObjAddr: 0x42B0, symBinAddr: 0x853A0, symSize: 0x50 }
  - { offset: 0xF5896, size: 0x8, addend: 0x0, symName: __RNvMs4_NtNtCsieiGu2EXtoJ_4core5slice4iterINtB5_4IterTNtNtCsdGrGZaRBwMb_3syn4expr4ExprNtNtBT_5token5CommaEE3newBT_, symObjAddr: 0x4300, symBinAddr: 0x853F0, symSize: 0x50 }
  - { offset: 0xF5A5D, size: 0x8, addend: 0x0, symName: __RNvMs4_NtNtCsieiGu2EXtoJ_4core5slice4iterINtB5_4IterTNtNtCsdGrGZaRBwMb_3syn4item5FnArgNtNtBT_5token5CommaEE3newBT_, symObjAddr: 0x4350, symBinAddr: 0x85440, symSize: 0x50 }
  - { offset: 0xF5C24, size: 0x8, addend: 0x0, symName: __RNvMs4_NtNtCsieiGu2EXtoJ_4core5slice4iterINtB5_4IterTNtNtCsdGrGZaRBwMb_3syn4item7UseTreeNtNtBT_5token5CommaEE3newBT_, symObjAddr: 0x43A0, symBinAddr: 0x85490, symSize: 0x50 }
  - { offset: 0xF5D7F, size: 0x8, addend: 0x0, symName: __RNvMs4_NtNtCsieiGu2EXtoJ_4core5slice4iterINtB5_4IterTNtNtCsdGrGZaRBwMb_3syn4path11PathSegmentNtNtBT_5token7PathSepEE3newBT_, symObjAddr: 0x43F0, symBinAddr: 0x854E0, symSize: 0x50 }
  - { offset: 0xF5EDA, size: 0x8, addend: 0x0, symName: __RNvMs4_NtNtCsieiGu2EXtoJ_4core5slice4iterINtB5_4IterTNtNtCsdGrGZaRBwMb_3syn4path15GenericArgumentNtNtBT_5token5CommaEE3newBT_, symObjAddr: 0x4440, symBinAddr: 0x85530, symSize: 0x50 }
  - { offset: 0xF60A1, size: 0x8, addend: 0x0, symName: __RNvMs4_NtNtCsieiGu2EXtoJ_4core5slice4iterINtB5_4IterTNtNtCsdGrGZaRBwMb_3syn8generics12GenericParamNtNtBT_5token5CommaEE3newBT_, symObjAddr: 0x4490, symBinAddr: 0x85580, symSize: 0x50 }
  - { offset: 0xF6268, size: 0x8, addend: 0x0, symName: __RNvMs4_NtNtCsieiGu2EXtoJ_4core5slice4iterINtB5_4IterTNtNtCsdGrGZaRBwMb_3syn8generics13CapturedParamNtNtBT_5token5CommaEE3newBT_, symObjAddr: 0x44E0, symBinAddr: 0x855D0, symSize: 0x50 }
  - { offset: 0xF642F, size: 0x8, addend: 0x0, symName: __RNvMs4_NtNtCsieiGu2EXtoJ_4core5slice4iterINtB5_4IterTNtNtCsdGrGZaRBwMb_3syn8generics14TypeParamBoundNtNtBT_5token4PlusEE3newBT_, symObjAddr: 0x4530, symBinAddr: 0x85620, symSize: 0x50 }
  - { offset: 0xF65F6, size: 0x8, addend: 0x0, symName: __RNvMs4_NtNtCsieiGu2EXtoJ_4core5slice4iterINtB5_4IterTNtNtCsdGrGZaRBwMb_3syn8generics14WherePredicateNtNtBT_5token5CommaEE3newBT_, symObjAddr: 0x4580, symBinAddr: 0x85670, symSize: 0x50 }
  - { offset: 0xF67BD, size: 0x8, addend: 0x0, symName: __RNvMs4_NtNtCsieiGu2EXtoJ_4core5slice4iterINtB5_4IterTNtNtCsdGrGZaRBwMb_3syn8lifetime8LifetimeNtNtBT_5token4PlusEE3newBT_, symObjAddr: 0x45D0, symBinAddr: 0x856C0, symSize: 0x50 }
  - { offset: 0xF68C8, size: 0x8, addend: 0x0, symName: __RNvMs5_NtCslJiobkLta79_5alloc2rcINtB5_2RcINtNtCsieiGu2EXtoJ_4core4cell4CellNtNtCsdGrGZaRBwMb_3syn5parse10UnexpectedEE9drop_slowB1f_, symObjAddr: 0x4620, symBinAddr: 0x85710, symSize: 0x70 }
  - { offset: 0xF6928, size: 0x8, addend: 0x0, symName: __RNvMs5_NtNtCsdGrGZaRBwMb_3syn4path7parsingNtB7_4Path10parse_rest, symObjAddr: 0x4690, symBinAddr: 0x85780, symSize: 0x2E0 }
  - { offset: 0xF69FC, size: 0x8, addend: 0x0, symName: __RNvMs5_NtNtCsdGrGZaRBwMb_3syn4path7parsingNtB7_4Path12is_mod_style, symObjAddr: 0x4970, symBinAddr: 0x85A60, symSize: 0x70 }
  - { offset: 0xF6A1F, size: 0x8, addend: 0x0, symName: __RNvMs5_NtNtCsdGrGZaRBwMb_3syn4path7parsingNtB7_4Path12parse_helper, symObjAddr: 0x49E0, symBinAddr: 0x85AD0, symSize: 0x430 }
  - { offset: 0xF6B12, size: 0x8, addend: 0x0, symName: __RNvMs5_NtNtCsdGrGZaRBwMb_3syn4path7parsingNtB7_4Path15parse_mod_style, symObjAddr: 0x4E10, symBinAddr: 0x85F00, symSize: 0x640 }
  - { offset: 0xF6C6C, size: 0x8, addend: 0x0, symName: __RNvMs6_NtCslJiobkLta79_5alloc2rcINtB5_2RcINtNtCsieiGu2EXtoJ_4core4cell4CellNtNtCsdGrGZaRBwMb_3syn5parse10UnexpectedEE3newB1f_, symObjAddr: 0x5450, symBinAddr: 0x86540, symSize: 0xB0 }
  - { offset: 0xF6D8E, size: 0x8, addend: 0x0, symName: __RNvMs_NtCsdGrGZaRBwMb_3syn4pathNtB4_4Path9get_ident, symObjAddr: 0x5550, symBinAddr: 0x865F0, symSize: 0xB0 }
  - { offset: 0xF6E56, size: 0x8, addend: 0x0, symName: __RNvMsa_NtNtCsieiGu2EXtoJ_4core5slice4iterINtB5_7IterMutTNtNtCsdGrGZaRBwMb_3syn4path11PathSegmentNtNtBW_5token7PathSepEE3newBW_, symObjAddr: 0x5650, symBinAddr: 0x866A0, symSize: 0x50 }
  - { offset: 0xF6F8C, size: 0x8, addend: 0x0, symName: __RNvMsd_NtCslJiobkLta79_5alloc2rcINtB5_2RcINtNtCsieiGu2EXtoJ_4core4cell4CellNtNtCsdGrGZaRBwMb_3syn5parse10UnexpectedEE6ptr_eqB1f_, symObjAddr: 0x56F0, symBinAddr: 0x866F0, symSize: 0x20 }
  - { offset: 0xF7006, size: 0x8, addend: 0x0, symName: __RNvXNtCs9OU1sGv5X54_5quote9to_tokensRNtNtCsdGrGZaRBwMb_3syn4path15GenericArgumentNtB2_8ToTokens9to_tokensBD_, symObjAddr: 0x57C0, symBinAddr: 0x867C0, symSize: 0x30 }
  - { offset: 0xF8776, size: 0x8, addend: 0x0, symName: __RINvMsG_CsaKzlTDPUHDb_11proc_macro2NtB6_7Literal7subspanINtNtNtCsieiGu2EXtoJ_4core3ops5range5RangejEECsdGrGZaRBwMb_3syn, symObjAddr: 0x0, symBinAddr: 0x8A720, symSize: 0x30 }
  - { offset: 0xF9B90, size: 0x8, addend: 0x0, symName: __RNvXsw_NtCslJiobkLta79_5alloc6stringNtCsaKzlTDPUHDb_11proc_macro27LiteralNtB5_8ToString9to_stringCsdGrGZaRBwMb_3syn, symObjAddr: 0x17190, symBinAddr: 0x9ECC0, symSize: 0x30 }
  - { offset: 0xF9BC7, size: 0x8, addend: 0x0, symName: __RNvXsw_NtCslJiobkLta79_5alloc6stringNtCsaKzlTDPUHDb_11proc_macro28LexErrorNtB5_8ToString9to_stringCsdGrGZaRBwMb_3syn, symObjAddr: 0x171C0, symBinAddr: 0x9ECF0, symSize: 0x30 }
  - { offset: 0xF9C04, size: 0x8, addend: 0x0, symName: __RNvXsx_NtCslJiobkLta79_5alloc6stringNtCsaKzlTDPUHDb_11proc_macro27LiteralNtB5_12SpecToString14spec_to_stringCsdGrGZaRBwMb_3syn, symObjAddr: 0x171F0, symBinAddr: 0x9ED20, symSize: 0x120 }
  - { offset: 0xF9CD0, size: 0x8, addend: 0x0, symName: __RNvXsx_NtCslJiobkLta79_5alloc6stringNtCsaKzlTDPUHDb_11proc_macro28LexErrorNtB5_12SpecToString14spec_to_stringCsdGrGZaRBwMb_3syn, symObjAddr: 0x17310, symBinAddr: 0x9EE40, symSize: 0x120 }
  - { offset: 0xF9EE7, size: 0x8, addend: 0x0, symName: __RNvXs2_NtCslJiobkLta79_5alloc3streNtNtB7_6borrow7ToOwned8to_ownedCsdGrGZaRBwMb_3syn, symObjAddr: 0x15830, symBinAddr: 0x9E3D0, symSize: 0x50 }
  - { offset: 0xFAC36, size: 0x8, addend: 0x0, symName: __RNCNvMs5_NtNtCsdGrGZaRBwMb_3syn4path7parsingNtB9_4Path12is_mod_style0Bb_, symObjAddr: 0xB7E0, symBinAddr: 0x94CB0, symSize: 0x30 }
  - { offset: 0xFAC78, size: 0x8, addend: 0x0, symName: __RNvNtNtCsdGrGZaRBwMb_3syn4path7parsing14const_argument, symObjAddr: 0xFEC0, symBinAddr: 0x99180, symSize: 0x600 }
  - { offset: 0xFAD76, size: 0x8, addend: 0x0, symName: __RNvNtNtCsdGrGZaRBwMb_3syn4path7parsing5qpath, symObjAddr: 0x104C0, symBinAddr: 0x99780, symSize: 0xF20 }
  - { offset: 0xFD816, size: 0x8, addend: 0x0, symName: __RNCNvNtNtCsdGrGZaRBwMb_3syn4expr8printing10print_expr0B7_, symObjAddr: 0xB810, symBinAddr: 0x94CE0, symSize: 0xA90 }
  - { offset: 0xFDD55, size: 0x8, addend: 0x0, symName: __RNCNvNtNtCsdGrGZaRBwMb_3syn4expr8printing15print_expr_call0B7_, symObjAddr: 0xC2A0, symBinAddr: 0x95770, symSize: 0x30 }
  - { offset: 0xFDD96, size: 0x8, addend: 0x0, symName: __RNCNvNtNtCsdGrGZaRBwMb_3syn4expr8printing15print_expr_cast0B7_, symObjAddr: 0xC2D0, symBinAddr: 0x957A0, symSize: 0x170 }
  - { offset: 0xFDE32, size: 0x8, addend: 0x0, symName: __RNCNvNtNtCsdGrGZaRBwMb_3syn4expr8printing16print_expr_index0B7_, symObjAddr: 0xC440, symBinAddr: 0x95910, symSize: 0x30 }
  - { offset: 0xFDE73, size: 0x8, addend: 0x0, symName: __RNCNvNtNtCsdGrGZaRBwMb_3syn4expr8printing16print_expr_range0B7_, symObjAddr: 0xC470, symBinAddr: 0x95940, symSize: 0x370 }
  - { offset: 0xFDF6B, size: 0x8, addend: 0x0, symName: __RNCNvNtNtCsdGrGZaRBwMb_3syn4expr8printing17print_expr_assign0B7_, symObjAddr: 0xC7E0, symBinAddr: 0x95CB0, symSize: 0x1F0 }
  - { offset: 0xFE007, size: 0x8, addend: 0x0, symName: __RNCNvNtNtCsdGrGZaRBwMb_3syn4expr8printing17print_expr_binary0B7_, symObjAddr: 0xC9D0, symBinAddr: 0x95EA0, symSize: 0x440 }
  - { offset: 0xFE0FE, size: 0x8, addend: 0x0, symName: __RNCNvNtNtCsdGrGZaRBwMb_3syn4expr8printing18print_expr_closure0B7_, symObjAddr: 0xCE10, symBinAddr: 0x962E0, symSize: 0x90 }
  - { offset: 0xFE13F, size: 0x8, addend: 0x0, symName: __RNCNvNtNtCsdGrGZaRBwMb_3syn4expr8printing19print_subexpression0B7_, symObjAddr: 0xCEA0, symBinAddr: 0x96370, symSize: 0x40 }
  - { offset: 0xFE1B3, size: 0x8, addend: 0x0, symName: __RNCNvNtNtCsdGrGZaRBwMb_3syn4expr8printing22print_expr_method_call0B7_, symObjAddr: 0xCEE0, symBinAddr: 0x963B0, symSize: 0x30 }
  - { offset: 0xFE1F9, size: 0x8, addend: 0x0, symName: __RNCNvXNtNtCsdGrGZaRBwMb_3syn4expr8printingNtB6_9ExprArrayNtNtCs9OU1sGv5X54_5quote9to_tokens8ToTokens9to_tokens0B8_, symObjAddr: 0xCF10, symBinAddr: 0x963E0, symSize: 0x30 }
  - { offset: 0xFE240, size: 0x8, addend: 0x0, symName: __RNCNvXs3_NtNtCsdGrGZaRBwMb_3syn4expr8printingNtB9_9ExprBlockNtNtCs9OU1sGv5X54_5quote9to_tokens8ToTokens9to_tokens0Bb_, symObjAddr: 0xCF40, symBinAddr: 0x96410, symSize: 0x50 }
  - { offset: 0xFE287, size: 0x8, addend: 0x0, symName: __RNCNvXs8_NtNtCsdGrGZaRBwMb_3syn4expr8printingNtB9_9ExprConstNtNtCs9OU1sGv5X54_5quote9to_tokens8ToTokens9to_tokens0Bb_, symObjAddr: 0xCF90, symBinAddr: 0x96460, symSize: 0x50 }
  - { offset: 0xFE2CE, size: 0x8, addend: 0x0, symName: __RNCNvXsb_NtNtCsdGrGZaRBwMb_3syn4expr8printingNtB9_11ExprForLoopNtNtCs9OU1sGv5X54_5quote9to_tokens8ToTokens9to_tokens0Bb_, symObjAddr: 0xCFE0, symBinAddr: 0x964B0, symSize: 0x50 }
  - { offset: 0xFE315, size: 0x8, addend: 0x0, symName: __RNCNvXsc_NtNtCsdGrGZaRBwMb_3syn4expr8printingNtB9_9ExprGroupNtNtCs9OU1sGv5X54_5quote9to_tokens8ToTokens9to_tokens0Bb_, symObjAddr: 0xD030, symBinAddr: 0x96500, symSize: 0x30 }
  - { offset: 0xFE35C, size: 0x8, addend: 0x0, symName: __RNCNvXsd_NtNtCsdGrGZaRBwMb_3syn4expr8printingNtB9_6ExprIfNtNtCs9OU1sGv5X54_5quote9to_tokens8ToTokens9to_tokens0Bb_, symObjAddr: 0xD060, symBinAddr: 0x96530, symSize: 0x40 }
  - { offset: 0xFE3A3, size: 0x8, addend: 0x0, symName: __RNCNvXsi_NtNtCsdGrGZaRBwMb_3syn4expr8printingNtB9_8ExprLoopNtNtCs9OU1sGv5X54_5quote9to_tokens8ToTokens9to_tokens0Bb_, symObjAddr: 0xD0A0, symBinAddr: 0x96570, symSize: 0x50 }
  - { offset: 0xFE3EA, size: 0x8, addend: 0x0, symName: __RNCNvXsk_NtNtCsdGrGZaRBwMb_3syn4expr8printingNtB9_9ExprMatchNtNtCs9OU1sGv5X54_5quote9to_tokens8ToTokens9to_tokens0Bb_, symObjAddr: 0xD0F0, symBinAddr: 0x965C0, symSize: 0x220 }
  - { offset: 0xFE484, size: 0x8, addend: 0x0, symName: __RNCNvXsm_NtNtCsdGrGZaRBwMb_3syn4expr8printingNtB9_9ExprParenNtNtCs9OU1sGv5X54_5quote9to_tokens8ToTokens9to_tokens0Bb_, symObjAddr: 0xD310, symBinAddr: 0x967E0, symSize: 0x30 }
  - { offset: 0xFE4CB, size: 0x8, addend: 0x0, symName: __RNCNvXsr_NtNtCsdGrGZaRBwMb_3syn4expr8printingNtB9_10ExprRepeatNtNtCs9OU1sGv5X54_5quote9to_tokens8ToTokens9to_tokens0Bb_, symObjAddr: 0xD340, symBinAddr: 0x96810, symSize: 0x60 }
  - { offset: 0xFE512, size: 0x8, addend: 0x0, symName: __RNCNvXst_NtNtCsdGrGZaRBwMb_3syn4expr8printingNtB9_10ExprStructNtNtCs9OU1sGv5X54_5quote9to_tokens8ToTokens9to_tokens0Bb_, symObjAddr: 0xD3A0, symBinAddr: 0x96870, symSize: 0xD0 }
  - { offset: 0xFE577, size: 0x8, addend: 0x0, symName: __RNCNvXsw_NtNtCsdGrGZaRBwMb_3syn4expr8printingNtB9_9ExprTupleNtNtCs9OU1sGv5X54_5quote9to_tokens8ToTokens9to_tokens0Bb_, symObjAddr: 0xD470, symBinAddr: 0x96940, symSize: 0x90 }
  - { offset: 0xFE5BE, size: 0x8, addend: 0x0, symName: __RNCNvXsy_NtNtCsdGrGZaRBwMb_3syn4expr8printingNtB9_10ExprUnsafeNtNtCs9OU1sGv5X54_5quote9to_tokens8ToTokens9to_tokens0Bb_, symObjAddr: 0xD500, symBinAddr: 0x969D0, symSize: 0x50 }
  - { offset: 0xFE605, size: 0x8, addend: 0x0, symName: __RNCNvXsz_NtNtCsdGrGZaRBwMb_3syn4expr8printingNtB9_9ExprWhileNtNtCs9OU1sGv5X54_5quote9to_tokens8ToTokens9to_tokens0Bb_, symObjAddr: 0xD550, symBinAddr: 0x96A20, symSize: 0x50 }
  - { offset: 0xFE642, size: 0x8, addend: 0x0, symName: __RNvNtNtCsdGrGZaRBwMb_3syn4expr8printing10print_expr, symObjAddr: 0xE390, symBinAddr: 0x97650, symSize: 0xC0 }
  - { offset: 0xFE6C8, size: 0x8, addend: 0x0, symName: __RNvNtNtCsdGrGZaRBwMb_3syn4expr8printing14print_expr_let, symObjAddr: 0xE450, symBinAddr: 0x97710, symSize: 0x180 }
  - { offset: 0xFE739, size: 0x8, addend: 0x0, symName: __RNvNtNtCsdGrGZaRBwMb_3syn4expr8printing14print_expr_try, symObjAddr: 0xE5D0, symBinAddr: 0x97890, symSize: 0x160 }
  - { offset: 0xFE7AA, size: 0x8, addend: 0x0, symName: __RNvNtNtCsdGrGZaRBwMb_3syn4expr8printing15print_expr_call, symObjAddr: 0xE730, symBinAddr: 0x979F0, symSize: 0x200 }
  - { offset: 0xFE847, size: 0x8, addend: 0x0, symName: __RNvNtNtCsdGrGZaRBwMb_3syn4expr8printing15print_expr_cast, symObjAddr: 0xE930, symBinAddr: 0x97BF0, symSize: 0xD0 }
  - { offset: 0xFE8CC, size: 0x8, addend: 0x0, symName: __RNvNtNtCsdGrGZaRBwMb_3syn4expr8printing16print_expr_await, symObjAddr: 0xEA00, symBinAddr: 0x97CC0, symSize: 0x170 }
  - { offset: 0xFE93D, size: 0x8, addend: 0x0, symName: __RNvNtNtCsdGrGZaRBwMb_3syn4expr8printing16print_expr_break, symObjAddr: 0xEB70, symBinAddr: 0x97E30, symSize: 0x1B0 }
  - { offset: 0xFE99C, size: 0x8, addend: 0x0, symName: __RNvNtNtCsdGrGZaRBwMb_3syn4expr8printing16print_expr_field, symObjAddr: 0xED20, symBinAddr: 0x97FE0, symSize: 0x170 }
  - { offset: 0xFEA0D, size: 0x8, addend: 0x0, symName: __RNvNtNtCsdGrGZaRBwMb_3syn4expr8printing16print_expr_index, symObjAddr: 0xEE90, symBinAddr: 0x98150, symSize: 0x170 }
  - { offset: 0xFEA7E, size: 0x8, addend: 0x0, symName: __RNvNtNtCsdGrGZaRBwMb_3syn4expr8printing16print_expr_range, symObjAddr: 0xF000, symBinAddr: 0x982C0, symSize: 0xD0 }
  - { offset: 0xFEB03, size: 0x8, addend: 0x0, symName: __RNvNtNtCsdGrGZaRBwMb_3syn4expr8printing16print_expr_unary, symObjAddr: 0xF0D0, symBinAddr: 0x98390, symSize: 0x160 }
  - { offset: 0xFEB74, size: 0x8, addend: 0x0, symName: __RNvNtNtCsdGrGZaRBwMb_3syn4expr8printing16print_expr_yield, symObjAddr: 0xF230, symBinAddr: 0x984F0, symSize: 0x110 }
  - { offset: 0xFEBD3, size: 0x8, addend: 0x0, symName: __RNvNtNtCsdGrGZaRBwMb_3syn4expr8printing17print_expr_assign, symObjAddr: 0xF340, symBinAddr: 0x98600, symSize: 0xD0 }
  - { offset: 0xFEC58, size: 0x8, addend: 0x0, symName: __RNvNtNtCsdGrGZaRBwMb_3syn4expr8printing17print_expr_binary, symObjAddr: 0xF410, symBinAddr: 0x986D0, symSize: 0xD0 }
  - { offset: 0xFECDD, size: 0x8, addend: 0x0, symName: __RNvNtNtCsdGrGZaRBwMb_3syn4expr8printing17print_expr_return, symObjAddr: 0xF4E0, symBinAddr: 0x987A0, symSize: 0x110 }
  - { offset: 0xFED3C, size: 0x8, addend: 0x0, symName: __RNvNtNtCsdGrGZaRBwMb_3syn4expr8printing18print_expr_closure, symObjAddr: 0xF5F0, symBinAddr: 0x988B0, symSize: 0x2B0 }
  - { offset: 0xFEDB4, size: 0x8, addend: 0x0, symName: __RNvNtNtCsdGrGZaRBwMb_3syn4expr8printing19print_expr_raw_addr, symObjAddr: 0xF8A0, symBinAddr: 0x98B60, symSize: 0x180 }
  - { offset: 0xFEE25, size: 0x8, addend: 0x0, symName: __RNvNtNtCsdGrGZaRBwMb_3syn4expr8printing19print_subexpression, symObjAddr: 0xFA20, symBinAddr: 0x98CE0, symSize: 0xB0 }
  - { offset: 0xFEE9B, size: 0x8, addend: 0x0, symName: __RNvNtNtCsdGrGZaRBwMb_3syn4expr8printing20print_expr_reference, symObjAddr: 0xFAD0, symBinAddr: 0x98D90, symSize: 0x170 }
  - { offset: 0xFEF0C, size: 0x8, addend: 0x0, symName: __RNvNtNtCsdGrGZaRBwMb_3syn4expr8printing21inner_attrs_to_tokens, symObjAddr: 0xFC40, symBinAddr: 0x98F00, symSize: 0x50 }
  - { offset: 0xFEF45, size: 0x8, addend: 0x0, symName: __RNvNtNtCsdGrGZaRBwMb_3syn4expr8printing21outer_attrs_to_tokens, symObjAddr: 0xFC90, symBinAddr: 0x98F50, symSize: 0x50 }
  - { offset: 0xFEF7E, size: 0x8, addend: 0x0, symName: __RNvNtNtCsdGrGZaRBwMb_3syn4expr8printing22print_expr_method_call, symObjAddr: 0xFCE0, symBinAddr: 0x98FA0, symSize: 0x1E0 }
  - { offset: 0xFF1DD, size: 0x8, addend: 0x0, symName: __RNcNtNtNtCsdGrGZaRBwMb_3syn4stmt4Stmt5Local0B7_, symObjAddr: 0xD5A0, symBinAddr: 0x96A70, symSize: 0x40 }
  - { offset: 0xFF20C, size: 0x8, addend: 0x0, symName: __RNcNtNtNtCsdGrGZaRBwMb_3syn4stmt4Stmt5Macro0B7_, symObjAddr: 0xD5E0, symBinAddr: 0x96AB0, symSize: 0x40 }
  - { offset: 0xFF23C, size: 0x8, addend: 0x0, symName: __RNvNtNtCsdGrGZaRBwMb_3syn4stmt7parsing10parse_stmt, symObjAddr: 0x113E0, symBinAddr: 0x9A6A0, symSize: 0xFB0 }
  - { offset: 0xFF34E, size: 0x8, addend: 0x0, symName: __RNvNtNtCsdGrGZaRBwMb_3syn4stmt7parsing10stmt_local, symObjAddr: 0x12390, symBinAddr: 0x9B650, symSize: 0x1010 }
  - { offset: 0xFF669, size: 0x8, addend: 0x0, symName: __RNvNtNtCsdGrGZaRBwMb_3syn4stmt7parsing8stmt_mac, symObjAddr: 0x133A0, symBinAddr: 0x9C660, symSize: 0x4B0 }
  - { offset: 0xFF762, size: 0x8, addend: 0x0, symName: __RNvNtNtCsdGrGZaRBwMb_3syn4stmt7parsing9stmt_expr, symObjAddr: 0x13850, symBinAddr: 0x9CB10, symSize: 0x9F0 }
  - { offset: 0xFF8F8, size: 0x8, addend: 0x0, symName: __RNvXs_NtNtCsdGrGZaRBwMb_3syn4stmt7parsingNtB6_5BlockNtNtB8_5parse5Parse5parse, symObjAddr: 0x16860, symBinAddr: 0x9E790, symSize: 0x2E0 }
  - { offset: 0xFF9AD, size: 0x8, addend: 0x0, symName: __RNvXNtNtCsdGrGZaRBwMb_3syn4stmt8printingNtB4_5BlockNtNtCs9OU1sGv5X54_5quote9to_tokens8ToTokens9to_tokens, symObjAddr: 0x14BB0, symBinAddr: 0x9DD20, symSize: 0x30 }
  - { offset: 0xFF9EC, size: 0x8, addend: 0x0, symName: __RNvXs0_NtNtCsdGrGZaRBwMb_3syn4stmt8printingNtB7_5LocalNtNtCs9OU1sGv5X54_5quote9to_tokens8ToTokens9to_tokens, symObjAddr: 0x14CE0, symBinAddr: 0x9DDA0, symSize: 0x330 }
  - { offset: 0xFFA85, size: 0x8, addend: 0x0, symName: __RNvXs1_NtNtCsdGrGZaRBwMb_3syn4stmt8printingNtB7_9StmtMacroNtNtCs9OU1sGv5X54_5quote9to_tokens8ToTokens9to_tokens, symObjAddr: 0x15550, symBinAddr: 0x9E2B0, symSize: 0x60 }
  - { offset: 0xFFAC4, size: 0x8, addend: 0x0, symName: __RNvXs_NtNtCsdGrGZaRBwMb_3syn4stmt8printingNtB6_4StmtNtNtCs9OU1sGv5X54_5quote9to_tokens8ToTokens9to_tokens, symObjAddr: 0x16B40, symBinAddr: 0x9EA70, symSize: 0x110 }
  - { offset: 0x1023C7, size: 0x8, addend: 0x0, symName: __RNvXsc_NtCsdGrGZaRBwMb_3syn5parseNtCsaKzlTDPUHDb_11proc_macro211TokenStreamNtB5_5Parse5parse, symObjAddr: 0x16DE0, symBinAddr: 0x9EC90, symSize: 0x30 }
  - { offset: 0x102520, size: 0x8, addend: 0x0, symName: __RNvNtCsdGrGZaRBwMb_3syn8verbatim7between, symObjAddr: 0xDF40, symBinAddr: 0x97200, symSize: 0x450 }
  - { offset: 0x102620, size: 0x8, addend: 0x0, symName: __RNvXNtCsdGrGZaRBwMb_3syn3extNtCsaKzlTDPUHDb_11proc_macro25IdentNtB2_8IdentExt9parse_any, symObjAddr: 0x14B00, symBinAddr: 0x9DC70, symSize: 0x30 }
  - { offset: 0x102652, size: 0x8, addend: 0x0, symName: __RNvXs2_NtCsdGrGZaRBwMb_3syn3extNtCsaKzlTDPUHDb_11proc_macro211TokenStreamNtB5_14TokenStreamExt6append, symObjAddr: 0x15790, symBinAddr: 0x9E390, symSize: 0x40 }
  - { offset: 0x10268F, size: 0x8, addend: 0x0, symName: __RNvXs3_NtCsdGrGZaRBwMb_3syn3extNtCsaKzlTDPUHDb_11proc_macro25PunctNtB5_8PunctExt11new_spanned, symObjAddr: 0x15D10, symBinAddr: 0x9E420, symSize: 0x70 }
  - { offset: 0x102700, size: 0x8, addend: 0x0, symName: __RNvXNtCsdGrGZaRBwMb_3syn4spanNtCsaKzlTDPUHDb_11proc_macro24SpanINtB2_9IntoSpansBr_E10into_spans, symObjAddr: 0x14B30, symBinAddr: 0x9DCA0, symSize: 0x20 }
  - { offset: 0x102732, size: 0x8, addend: 0x0, symName: __RNvXs0_NtCsdGrGZaRBwMb_3syn4spanNtCsaKzlTDPUHDb_11proc_macro24SpanINtB5_9IntoSpansABu_j2_E10into_spans, symObjAddr: 0x14C50, symBinAddr: 0x9DD80, symSize: 0x20 }
  - { offset: 0x102764, size: 0x8, addend: 0x0, symName: __RNvXs4_NtCsdGrGZaRBwMb_3syn4spanANtCsaKzlTDPUHDb_11proc_macro24Spanj3_INtB5_9IntoSpansBu_E10into_spans, symObjAddr: 0x16100, symBinAddr: 0x9E490, symSize: 0x20 }
  - { offset: 0x102796, size: 0x8, addend: 0x0, symName: __RNvXs5_NtCsdGrGZaRBwMb_3syn4spanNtCsaKzlTDPUHDb_11proc_macro24SpanINtB5_9IntoSpansNtNtBw_5extra9DelimSpanE10into_spans, symObjAddr: 0x163D0, symBinAddr: 0x9E4B0, symSize: 0xA0 }
  - { offset: 0x1027DE, size: 0x8, addend: 0x0, symName: __RNvXs_NtCsdGrGZaRBwMb_3syn4spanNtCsaKzlTDPUHDb_11proc_macro24SpanINtB4_9IntoSpansABt_j1_E10into_spans, symObjAddr: 0x16800, symBinAddr: 0x9E770, symSize: 0x20 }
  - { offset: 0x102816, size: 0x8, addend: 0x0, symName: __RNvXNtCsdGrGZaRBwMb_3syn5identNtCsaKzlTDPUHDb_11proc_macro25IdentINtNtCsieiGu2EXtoJ_4core7convert4FromNtNtB4_5token10UnderscoreE4from, symObjAddr: 0x14B50, symBinAddr: 0x9DCC0, symSize: 0x60 }
  - { offset: 0x10284D, size: 0x8, addend: 0x0, symName: __RNvXNtNtCsdGrGZaRBwMb_3syn5ident7parsingNtCsaKzlTDPUHDb_11proc_macro25IdentNtNtB6_5parse5Parse5parse, symObjAddr: 0x14BE0, symBinAddr: 0x9DD50, symSize: 0x30 }
  - { offset: 0x10287F, size: 0x8, addend: 0x0, symName: __RNvXs_NtNtCsdGrGZaRBwMb_3syn5ident7parsingNtCsaKzlTDPUHDb_11proc_macro25IdentNtNtB8_5token5Token4peek, symObjAddr: 0x16C50, symBinAddr: 0x9EB80, symSize: 0xF0 }
  - { offset: 0x1028D0, size: 0x8, addend: 0x0, symName: __RNvXs_NtNtCsdGrGZaRBwMb_3syn5ident7parsingNtCsaKzlTDPUHDb_11proc_macro25IdentNtNtB8_5token5Token7display, symObjAddr: 0x16D40, symBinAddr: 0x9EC70, symSize: 0x20 }
  - { offset: 0x103060, size: 0x8, addend: 0x0, symName: __RNvXs11_CsaKzlTDPUHDb_11proc_macro2NtB6_7SpacingNtNtCsieiGu2EXtoJ_4core3cmp9PartialEq2eqCsdGrGZaRBwMb_3syn, symObjAddr: 0x15050, symBinAddr: 0x9E110, symSize: 0x30 }
  - { offset: 0x1030DF, size: 0x8, addend: 0x0, symName: __RNvXs12_CsaKzlTDPUHDb_11proc_macro2NtB6_5IdentNtNtCsieiGu2EXtoJ_4core5clone5Clone5cloneCsdGrGZaRBwMb_3syn, symObjAddr: 0x15080, symBinAddr: 0x9E140, symSize: 0x80 }
  - { offset: 0x103113, size: 0x8, addend: 0x0, symName: __RNvXs13_CsaKzlTDPUHDb_11proc_macro2NtB6_7LiteralNtNtCsieiGu2EXtoJ_4core5clone5Clone5cloneCsdGrGZaRBwMb_3syn, symObjAddr: 0x15100, symBinAddr: 0x9E1C0, symSize: 0x80 }
  - { offset: 0x103147, size: 0x8, addend: 0x0, symName: __RNvXsK_CsaKzlTDPUHDb_11proc_macro2NtB5_11TokenStreamNtNtCsieiGu2EXtoJ_4core5clone5Clone5cloneCsdGrGZaRBwMb_3syn, symObjAddr: 0x16610, symBinAddr: 0x9E580, symSize: 0x90 }
  - { offset: 0x103179, size: 0x8, addend: 0x0, symName: __RNvXsM_CsaKzlTDPUHDb_11proc_macro2NtB5_4SpanNtNtCsieiGu2EXtoJ_4core5clone5Clone5cloneCsdGrGZaRBwMb_3syn, symObjAddr: 0x166A0, symBinAddr: 0x9E610, symSize: 0x10 }
  - { offset: 0x1031AD, size: 0x8, addend: 0x0, symName: __RNvXsO_CsaKzlTDPUHDb_11proc_macro2NtB5_5GroupNtNtCsieiGu2EXtoJ_4core5clone5Clone5cloneCsdGrGZaRBwMb_3syn, symObjAddr: 0x166B0, symBinAddr: 0x9E620, symSize: 0x50 }
  - { offset: 0x1031E1, size: 0x8, addend: 0x0, symName: __RNvXsQ_CsaKzlTDPUHDb_11proc_macro2NtB5_9DelimiterNtNtCsieiGu2EXtoJ_4core5clone5Clone5cloneCsdGrGZaRBwMb_3syn, symObjAddr: 0x16700, symBinAddr: 0x9E670, symSize: 0x10 }
  - { offset: 0x103215, size: 0x8, addend: 0x0, symName: __RNvXsU_CsaKzlTDPUHDb_11proc_macro2NtB5_9DelimiterNtNtCsieiGu2EXtoJ_4core3cmp9PartialEq2eqCsdGrGZaRBwMb_3syn, symObjAddr: 0x16710, symBinAddr: 0x9E680, symSize: 0x30 }
  - { offset: 0x103294, size: 0x8, addend: 0x0, symName: __RNvXsV_CsaKzlTDPUHDb_11proc_macro2NtB5_5PunctNtNtCsieiGu2EXtoJ_4core5clone5Clone5cloneCsdGrGZaRBwMb_3syn, symObjAddr: 0x16790, symBinAddr: 0x9E700, symSize: 0x60 }
  - { offset: 0x1032C8, size: 0x8, addend: 0x0, symName: __RNvXsX_CsaKzlTDPUHDb_11proc_macro2NtB5_7SpacingNtNtCsieiGu2EXtoJ_4core5clone5Clone5cloneCsdGrGZaRBwMb_3syn, symObjAddr: 0x167F0, symBinAddr: 0x9E760, symSize: 0x10 }
  - { offset: 0x1032FC, size: 0x8, addend: 0x0, symName: __RNvXsz_CsaKzlTDPUHDb_11proc_macro2NtB5_5IdentINtNtCsieiGu2EXtoJ_4core3cmp9PartialEqReE2eqCsdGrGZaRBwMb_3syn, symObjAddr: 0x17430, symBinAddr: 0x9EF60, symSize: 0x30 }
  - { offset: 0x103342, size: 0x8, addend: 0x0, symName: __RNvXsz_CsaKzlTDPUHDb_11proc_macro2NtB5_5IdentINtNtCsieiGu2EXtoJ_4core3cmp9PartialEqeE2eqCsdGrGZaRBwMb_3syn, symObjAddr: 0x17460, symBinAddr: 0x9EF90, symSize: 0x30 }
  - { offset: 0x1037CC, size: 0x8, addend: 0x0, symName: __RNvXs10_CscKtU6MdFI5n_10proc_macroNtB6_5GroupNtNtCsieiGu2EXtoJ_4core5clone5Clone5cloneCsdGrGZaRBwMb_3syn, symObjAddr: 0x15010, symBinAddr: 0x9E0D0, symSize: 0x40 }
  - { offset: 0x103800, size: 0x8, addend: 0x0, symName: __RNvXs1e_CscKtU6MdFI5n_10proc_macroNtB6_5IdentNtNtCsieiGu2EXtoJ_4core5clone5Clone5cloneCsdGrGZaRBwMb_3syn, symObjAddr: 0x155B0, symBinAddr: 0x9E310, symSize: 0x40 }
  - { offset: 0x103834, size: 0x8, addend: 0x0, symName: __RNvXs1f_CscKtU6MdFI5n_10proc_macroNtB6_7LiteralNtNtCsieiGu2EXtoJ_4core5clone5Clone5cloneCsdGrGZaRBwMb_3syn, symObjAddr: 0x155F0, symBinAddr: 0x9E350, symSize: 0x40 }
  - { offset: 0x103868, size: 0x8, addend: 0x0, symName: __RNvXsU_CscKtU6MdFI5n_10proc_macroNtB5_11TokenStreamNtNtCsieiGu2EXtoJ_4core5clone5Clone5cloneCsdGrGZaRBwMb_3syn, symObjAddr: 0x16740, symBinAddr: 0x9E6B0, symSize: 0x50 }
  - { offset: 0x104237, size: 0x8, addend: 0x0, symName: __RINvNtCsieiGu2EXtoJ_4core3ptr13drop_in_placeINtNtB4_3pin3PinINtNtCslJiobkLta79_5alloc4sync3ArcNtNtCsHUR1vrdMJt_3std6thread5InnerEEECsdGrGZaRBwMb_3syn, symObjAddr: 0x30, symBinAddr: 0x8A750, symSize: 0x20 }
  - { offset: 0x104266, size: 0x8, addend: 0x0, symName: __RINvNtCsieiGu2EXtoJ_4core3ptr13drop_in_placeINtNtB4_4cell10UnsafeCellINtNtB4_6option6OptionINtNtCslJiobkLta79_5alloc2rc2RcINtBJ_4CellNtNtCsdGrGZaRBwMb_3syn5parse10UnexpectedEEEEEB2b_, symObjAddr: 0x50, symBinAddr: 0x8A770, symSize: 0x20 }
  - { offset: 0x104295, size: 0x8, addend: 0x0, symName: __RINvNtCsieiGu2EXtoJ_4core3ptr13drop_in_placeINtNtB4_4cell10UnsafeCellINtNtCslJiobkLta79_5alloc3vec3VecReEEECsdGrGZaRBwMb_3syn, symObjAddr: 0x70, symBinAddr: 0x8A790, symSize: 0x20 }
  - { offset: 0x1042C4, size: 0x8, addend: 0x0, symName: __RINvNtCsieiGu2EXtoJ_4core3ptr13drop_in_placeINtNtB4_4cell10UnsafeCellNtNtCsdGrGZaRBwMb_3syn5parse10UnexpectedEEB19_, symObjAddr: 0x90, symBinAddr: 0x8A7B0, symSize: 0x20 }
  - { offset: 0x1042F3, size: 0x8, addend: 0x0, symName: __RINvNtCsieiGu2EXtoJ_4core3ptr13drop_in_placeINtNtB4_4cell4CellINtNtB4_6option6OptionINtNtCslJiobkLta79_5alloc2rc2RcIBH_NtNtCsdGrGZaRBwMb_3syn5parse10UnexpectedEEEEEB1X_, symObjAddr: 0xB0, symBinAddr: 0x8A7D0, symSize: 0x20 }
  - { offset: 0x104322, size: 0x8, addend: 0x0, symName: __RINvNtCsieiGu2EXtoJ_4core3ptr13drop_in_placeINtNtB4_4cell4CellNtNtCsdGrGZaRBwMb_3syn5parse10UnexpectedEEB12_, symObjAddr: 0xD0, symBinAddr: 0x8A7F0, symSize: 0x20 }
  - { offset: 0x104351, size: 0x8, addend: 0x0, symName: __RINvNtCsieiGu2EXtoJ_4core3ptr13drop_in_placeINtNtB4_4cell6RefMutINtNtCslJiobkLta79_5alloc3vec3VecReEEECsdGrGZaRBwMb_3syn, symObjAddr: 0xF0, symBinAddr: 0x8A810, symSize: 0x20 }
  - { offset: 0x104380, size: 0x8, addend: 0x0, symName: __RINvNtCsieiGu2EXtoJ_4core3ptr13drop_in_placeINtNtB4_4cell7RefCellINtNtCslJiobkLta79_5alloc3vec3VecReEEECsdGrGZaRBwMb_3syn, symObjAddr: 0x110, symBinAddr: 0x8A830, symSize: 0x20 }
  - { offset: 0x1043AF, size: 0x8, addend: 0x0, symName: __RINvNtCsieiGu2EXtoJ_4core3ptr13drop_in_placeINtNtB4_6option4ItemNtNtCsdGrGZaRBwMb_3syn4path11PathSegmentEEB14_, symObjAddr: 0x130, symBinAddr: 0x8A850, symSize: 0x20 }
  - { offset: 0x1043DE, size: 0x8, addend: 0x0, symName: __RINvNtCsieiGu2EXtoJ_4core3ptr13drop_in_placeINtNtB4_6option6OptionINtNtCsdGrGZaRBwMb_3syn10punctuated4PairNtNtB17_4path11PathSegmentNtNtB17_5token7PathSepEEEB17_, symObjAddr: 0x150, symBinAddr: 0x8A870, symSize: 0x40 }
  - { offset: 0x10440D, size: 0x8, addend: 0x0, symName: __RINvNtCsieiGu2EXtoJ_4core3ptr13drop_in_placeINtNtB4_6option6OptionINtNtCslJiobkLta79_5alloc2rc2RcINtNtB4_4cell4CellNtNtCsdGrGZaRBwMb_3syn5parse10UnexpectedEEEEB1T_, symObjAddr: 0x190, symBinAddr: 0x8A8B0, symSize: 0x40 }
  - { offset: 0x10443C, size: 0x8, addend: 0x0, symName: __RINvNtCsieiGu2EXtoJ_4core3ptr13drop_in_placeINtNtB4_6option6OptionINtNtCslJiobkLta79_5alloc5boxed3BoxNtNtCsdGrGZaRBwMb_3syn2ty4TypeEEEB1F_, symObjAddr: 0x1D0, symBinAddr: 0x8A8F0, symSize: 0x40 }
  - { offset: 0x10446B, size: 0x8, addend: 0x0, symName: __RINvNtCsieiGu2EXtoJ_4core3ptr13drop_in_placeINtNtB4_6option6OptionINtNtCslJiobkLta79_5alloc5boxed3BoxNtNtCsdGrGZaRBwMb_3syn2ty9BareFnArgEEEB1F_, symObjAddr: 0x210, symBinAddr: 0x8A930, symSize: 0x40 }
  - { offset: 0x10449A, size: 0x8, addend: 0x0, symName: __RINvNtCsieiGu2EXtoJ_4core3ptr13drop_in_placeINtNtB4_6option6OptionINtNtCslJiobkLta79_5alloc5boxed3BoxNtNtCsdGrGZaRBwMb_3syn3pat3PatEEEB1F_, symObjAddr: 0x250, symBinAddr: 0x8A970, symSize: 0x40 }
  - { offset: 0x1044C9, size: 0x8, addend: 0x0, symName: __RINvNtCsieiGu2EXtoJ_4core3ptr13drop_in_placeINtNtB4_6option6OptionINtNtCslJiobkLta79_5alloc5boxed3BoxNtNtCsdGrGZaRBwMb_3syn3pat8FieldPatEEEB1F_, symObjAddr: 0x290, symBinAddr: 0x8A9B0, symSize: 0x40 }
  - { offset: 0x1044F8, size: 0x8, addend: 0x0, symName: __RINvNtCsieiGu2EXtoJ_4core3ptr13drop_in_placeINtNtB4_6option6OptionINtNtCslJiobkLta79_5alloc5boxed3BoxNtNtCsdGrGZaRBwMb_3syn4data5FieldEEEB1F_, symObjAddr: 0x2D0, symBinAddr: 0x8A9F0, symSize: 0x40 }
  - { offset: 0x104527, size: 0x8, addend: 0x0, symName: __RINvNtCsieiGu2EXtoJ_4core3ptr13drop_in_placeINtNtB4_6option6OptionINtNtCslJiobkLta79_5alloc5boxed3BoxNtNtCsdGrGZaRBwMb_3syn4data7VariantEEEB1F_, symObjAddr: 0x310, symBinAddr: 0x8AA30, symSize: 0x40 }
  - { offset: 0x104556, size: 0x8, addend: 0x0, symName: __RINvNtCsieiGu2EXtoJ_4core3ptr13drop_in_placeINtNtB4_6option6OptionINtNtCslJiobkLta79_5alloc5boxed3BoxNtNtCsdGrGZaRBwMb_3syn4expr10FieldValueEEEB1F_, symObjAddr: 0x350, symBinAddr: 0x8AA70, symSize: 0x40 }
  - { offset: 0x104585, size: 0x8, addend: 0x0, symName: __RINvNtCsieiGu2EXtoJ_4core3ptr13drop_in_placeINtNtB4_6option6OptionINtNtCslJiobkLta79_5alloc5boxed3BoxNtNtCsdGrGZaRBwMb_3syn4expr4ExprEEEB1F_, symObjAddr: 0x390, symBinAddr: 0x8AAB0, symSize: 0x40 }
  - { offset: 0x1045B4, size: 0x8, addend: 0x0, symName: __RINvNtCsieiGu2EXtoJ_4core3ptr13drop_in_placeINtNtB4_6option6OptionINtNtCslJiobkLta79_5alloc5boxed3BoxNtNtCsdGrGZaRBwMb_3syn4item5FnArgEEEB1F_, symObjAddr: 0x3D0, symBinAddr: 0x8AAF0, symSize: 0x40 }
  - { offset: 0x1045E3, size: 0x8, addend: 0x0, symName: __RINvNtCsieiGu2EXtoJ_4core3ptr13drop_in_placeINtNtB4_6option6OptionINtNtCslJiobkLta79_5alloc5boxed3BoxNtNtCsdGrGZaRBwMb_3syn4item7UseTreeEEEB1F_, symObjAddr: 0x410, symBinAddr: 0x8AB30, symSize: 0x40 }
  - { offset: 0x104612, size: 0x8, addend: 0x0, symName: __RINvNtCsieiGu2EXtoJ_4core3ptr13drop_in_placeINtNtB4_6option6OptionINtNtCslJiobkLta79_5alloc5boxed3BoxNtNtCsdGrGZaRBwMb_3syn4path11PathSegmentEEEB1F_, symObjAddr: 0x450, symBinAddr: 0x8AB70, symSize: 0x40 }
  - { offset: 0x104641, size: 0x8, addend: 0x0, symName: __RINvNtCsieiGu2EXtoJ_4core3ptr13drop_in_placeINtNtB4_6option6OptionINtNtCslJiobkLta79_5alloc5boxed3BoxNtNtCsdGrGZaRBwMb_3syn4path15GenericArgumentEEEB1F_, symObjAddr: 0x490, symBinAddr: 0x8ABB0, symSize: 0x40 }
  - { offset: 0x104670, size: 0x8, addend: 0x0, symName: __RINvNtCsieiGu2EXtoJ_4core3ptr13drop_in_placeINtNtB4_6option6OptionINtNtCslJiobkLta79_5alloc5boxed3BoxNtNtCsdGrGZaRBwMb_3syn8generics12GenericParamEEEB1F_, symObjAddr: 0x4D0, symBinAddr: 0x8ABF0, symSize: 0x40 }
  - { offset: 0x10469F, size: 0x8, addend: 0x0, symName: __RINvNtCsieiGu2EXtoJ_4core3ptr13drop_in_placeINtNtB4_6option6OptionINtNtCslJiobkLta79_5alloc5boxed3BoxNtNtCsdGrGZaRBwMb_3syn8generics13CapturedParamEEEB1F_, symObjAddr: 0x510, symBinAddr: 0x8AC30, symSize: 0x40 }
  - { offset: 0x1046CE, size: 0x8, addend: 0x0, symName: __RINvNtCsieiGu2EXtoJ_4core3ptr13drop_in_placeINtNtB4_6option6OptionINtNtCslJiobkLta79_5alloc5boxed3BoxNtNtCsdGrGZaRBwMb_3syn8generics14TypeParamBoundEEEB1F_, symObjAddr: 0x550, symBinAddr: 0x8AC70, symSize: 0x40 }
  - { offset: 0x1046FD, size: 0x8, addend: 0x0, symName: __RINvNtCsieiGu2EXtoJ_4core3ptr13drop_in_placeINtNtB4_6option6OptionINtNtCslJiobkLta79_5alloc5boxed3BoxNtNtCsdGrGZaRBwMb_3syn8generics14WherePredicateEEEB1F_, symObjAddr: 0x590, symBinAddr: 0x8ACB0, symSize: 0x40 }
  - { offset: 0x10472C, size: 0x8, addend: 0x0, symName: __RINvNtCsieiGu2EXtoJ_4core3ptr13drop_in_placeINtNtB4_6option6OptionINtNtCslJiobkLta79_5alloc5boxed3BoxNtNtCsdGrGZaRBwMb_3syn8lifetime8LifetimeEEEB1F_, symObjAddr: 0x5D0, symBinAddr: 0x8ACF0, symSize: 0x40 }
  - { offset: 0x10475B, size: 0x8, addend: 0x0, symName: __RINvNtCsieiGu2EXtoJ_4core3ptr13drop_in_placeINtNtB4_6option6OptionNtCsaKzlTDPUHDb_11proc_macro25IdentEECsdGrGZaRBwMb_3syn, symObjAddr: 0x610, symBinAddr: 0x8AD30, symSize: 0x40 }
  - { offset: 0x10478A, size: 0x8, addend: 0x0, symName: __RINvNtCsieiGu2EXtoJ_4core3ptr13drop_in_placeINtNtB4_6option6OptionNtNtCsdGrGZaRBwMb_3syn2ty12BareVariadicEEB16_, symObjAddr: 0x650, symBinAddr: 0x8AD70, symSize: 0x40 }
  - { offset: 0x1047B9, size: 0x8, addend: 0x0, symName: __RINvNtCsieiGu2EXtoJ_4core3ptr13drop_in_placeINtNtB4_6option6OptionNtNtCsdGrGZaRBwMb_3syn2ty3AbiEEB16_, symObjAddr: 0x690, symBinAddr: 0x8ADB0, symSize: 0x30 }
  - { offset: 0x1047E8, size: 0x8, addend: 0x0, symName: __RINvNtCsieiGu2EXtoJ_4core3ptr13drop_in_placeINtNtB4_6option6OptionNtNtCsdGrGZaRBwMb_3syn2ty4TypeEEB16_, symObjAddr: 0x6C0, symBinAddr: 0x8ADE0, symSize: 0x40 }
  - { offset: 0x104817, size: 0x8, addend: 0x0, symName: __RINvNtCsieiGu2EXtoJ_4core3ptr13drop_in_placeINtNtB4_6option6OptionNtNtCsdGrGZaRBwMb_3syn3lit3LitEEB16_, symObjAddr: 0x700, symBinAddr: 0x8AE20, symSize: 0x40 }
  - { offset: 0x104846, size: 0x8, addend: 0x0, symName: __RINvNtCsieiGu2EXtoJ_4core3ptr13drop_in_placeINtNtB4_6option6OptionNtNtCsdGrGZaRBwMb_3syn3lit6LitStrEEB16_, symObjAddr: 0x740, symBinAddr: 0x8AE60, symSize: 0x40 }
  - { offset: 0x104875, size: 0x8, addend: 0x0, symName: __RINvNtCsieiGu2EXtoJ_4core3ptr13drop_in_placeINtNtB4_6option6OptionNtNtCsdGrGZaRBwMb_3syn3pat7PatRestEEB16_, symObjAddr: 0x780, symBinAddr: 0x8AEA0, symSize: 0x40 }
  - { offset: 0x1048A4, size: 0x8, addend: 0x0, symName: __RINvNtCsieiGu2EXtoJ_4core3ptr13drop_in_placeINtNtB4_6option6OptionNtNtCsdGrGZaRBwMb_3syn4expr4ExprEEB16_, symObjAddr: 0x7C0, symBinAddr: 0x8AEE0, symSize: 0x40 }
  - { offset: 0x1048D3, size: 0x8, addend: 0x0, symName: __RINvNtCsieiGu2EXtoJ_4core3ptr13drop_in_placeINtNtB4_6option6OptionNtNtCsdGrGZaRBwMb_3syn4expr5LabelEEB16_, symObjAddr: 0x800, symBinAddr: 0x8AF20, symSize: 0x40 }
  - { offset: 0x104902, size: 0x8, addend: 0x0, symName: __RINvNtCsieiGu2EXtoJ_4core3ptr13drop_in_placeINtNtB4_6option6OptionNtNtCsdGrGZaRBwMb_3syn4item7UseTreeEEB16_, symObjAddr: 0x840, symBinAddr: 0x8AF60, symSize: 0x40 }
  - { offset: 0x104931, size: 0x8, addend: 0x0, symName: __RINvNtCsieiGu2EXtoJ_4core3ptr13drop_in_placeINtNtB4_6option6OptionNtNtCsdGrGZaRBwMb_3syn4item8VariadicEEB16_, symObjAddr: 0x880, symBinAddr: 0x8AFA0, symSize: 0x40 }
  - { offset: 0x104960, size: 0x8, addend: 0x0, symName: __RINvNtCsieiGu2EXtoJ_4core3ptr13drop_in_placeINtNtB4_6option6OptionNtNtCsdGrGZaRBwMb_3syn4item9SignatureEEB16_, symObjAddr: 0x8C0, symBinAddr: 0x8AFE0, symSize: 0x40 }
  - { offset: 0x10498F, size: 0x8, addend: 0x0, symName: __RINvNtCsieiGu2EXtoJ_4core3ptr13drop_in_placeINtNtB4_6option6OptionNtNtCsdGrGZaRBwMb_3syn4path11PathSegmentEEB16_, symObjAddr: 0x900, symBinAddr: 0x8B020, symSize: 0x40 }
  - { offset: 0x1049BE, size: 0x8, addend: 0x0, symName: __RINvNtCsieiGu2EXtoJ_4core3ptr13drop_in_placeINtNtB4_6option6OptionNtNtCsdGrGZaRBwMb_3syn4path30AngleBracketedGenericArgumentsEEB16_, symObjAddr: 0x940, symBinAddr: 0x8B060, symSize: 0x40 }
  - { offset: 0x1049ED, size: 0x8, addend: 0x0, symName: __RINvNtCsieiGu2EXtoJ_4core3ptr13drop_in_placeINtNtB4_6option6OptionNtNtCsdGrGZaRBwMb_3syn4path5QSelfEEB16_, symObjAddr: 0x980, symBinAddr: 0x8B0A0, symSize: 0x40 }
  - { offset: 0x104A1C, size: 0x8, addend: 0x0, symName: __RINvNtCsieiGu2EXtoJ_4core3ptr13drop_in_placeINtNtB4_6option6OptionNtNtCsdGrGZaRBwMb_3syn4stmt5BlockEEB16_, symObjAddr: 0x9C0, symBinAddr: 0x8B0E0, symSize: 0x40 }
  - { offset: 0x104A4B, size: 0x8, addend: 0x0, symName: __RINvNtCsieiGu2EXtoJ_4core3ptr13drop_in_placeINtNtB4_6option6OptionNtNtCsdGrGZaRBwMb_3syn4stmt9LocalInitEEB16_, symObjAddr: 0xA00, symBinAddr: 0x8B120, symSize: 0x40 }
  - { offset: 0x104A7A, size: 0x8, addend: 0x0, symName: __RINvNtCsieiGu2EXtoJ_4core3ptr13drop_in_placeINtNtB4_6option6OptionNtNtCsdGrGZaRBwMb_3syn8generics11WhereClauseEEB16_, symObjAddr: 0xA40, symBinAddr: 0x8B160, symSize: 0x40 }
  - { offset: 0x104AA9, size: 0x8, addend: 0x0, symName: __RINvNtCsieiGu2EXtoJ_4core3ptr13drop_in_placeINtNtB4_6option6OptionNtNtCsdGrGZaRBwMb_3syn8generics14BoundLifetimesEEB16_, symObjAddr: 0xA80, symBinAddr: 0x8B1A0, symSize: 0x40 }
  - { offset: 0x104AD8, size: 0x8, addend: 0x0, symName: __RINvNtCsieiGu2EXtoJ_4core3ptr13drop_in_placeINtNtB4_6option6OptionNtNtCsdGrGZaRBwMb_3syn8lifetime8LifetimeEEB16_, symObjAddr: 0xAC0, symBinAddr: 0x8B1E0, symSize: 0x40 }
  - { offset: 0x104B07, size: 0x8, addend: 0x0, symName: __RINvNtCsieiGu2EXtoJ_4core3ptr13drop_in_placeINtNtB4_6option6OptionNtNtNtCsdGrGZaRBwMb_3syn3pat7parsing13PatRangeBoundEEB18_, symObjAddr: 0xB40, symBinAddr: 0x8B220, symSize: 0x40 }
  - { offset: 0x104B36, size: 0x8, addend: 0x0, symName: __RINvNtCsieiGu2EXtoJ_4core3ptr13drop_in_placeINtNtB4_6option6OptionTIBH_NtNtCsdGrGZaRBwMb_3syn5token3NotENtNtB1b_4path4PathNtB19_3ForEEEB1b_, symObjAddr: 0xB80, symBinAddr: 0x8B260, symSize: 0x40 }
  - { offset: 0x104B65, size: 0x8, addend: 0x0, symName: __RINvNtCsieiGu2EXtoJ_4core3ptr13drop_in_placeINtNtB4_6option6OptionTINtNtCslJiobkLta79_5alloc5boxed3BoxNtNtCsdGrGZaRBwMb_3syn3pat3PatENtNtB1G_5token5ColonEEEB1G_, symObjAddr: 0xBC0, symBinAddr: 0x8B2A0, symSize: 0x40 }
  - { offset: 0x104B94, size: 0x8, addend: 0x0, symName: __RINvNtCsieiGu2EXtoJ_4core3ptr13drop_in_placeINtNtB4_6option6OptionTNtCsaKzlTDPUHDb_11proc_macro25IdentNtNtCsdGrGZaRBwMb_3syn5token5ColonEEEB1G_, symObjAddr: 0xC00, symBinAddr: 0x8B2E0, symSize: 0x40 }
  - { offset: 0x104BC3, size: 0x8, addend: 0x0, symName: __RINvNtCsieiGu2EXtoJ_4core3ptr13drop_in_placeINtNtB4_6option6OptionTNtCsaKzlTDPUHDb_11proc_macro25IdentNtNtCsdGrGZaRBwMb_3syn6buffer6CursorEEEB1G_, symObjAddr: 0xC40, symBinAddr: 0x8B320, symSize: 0x40 }
  - { offset: 0x104BF2, size: 0x8, addend: 0x0, symName: __RINvNtCsieiGu2EXtoJ_4core3ptr13drop_in_placeINtNtB4_6option6OptionTNtNtCsdGrGZaRBwMb_3syn5token2AsNtCsaKzlTDPUHDb_11proc_macro25IdentEEEB17_, symObjAddr: 0xD00, symBinAddr: 0x8B360, symSize: 0x40 }
  - { offset: 0x104C21, size: 0x8, addend: 0x0, symName: __RINvNtCsieiGu2EXtoJ_4core3ptr13drop_in_placeINtNtB4_6option6OptionTNtNtCsdGrGZaRBwMb_3syn5token2AsNtNtB17_4path4PathEEEB17_, symObjAddr: 0xD40, symBinAddr: 0x8B3A0, symSize: 0x40 }
  - { offset: 0x104C50, size: 0x8, addend: 0x0, symName: __RINvNtCsieiGu2EXtoJ_4core3ptr13drop_in_placeINtNtB4_6option6OptionTNtNtCsdGrGZaRBwMb_3syn5token2AtINtNtCslJiobkLta79_5alloc5boxed3BoxNtNtB17_3pat3PatEEEEB17_, symObjAddr: 0xD80, symBinAddr: 0x8B3E0, symSize: 0x40 }
  - { offset: 0x104C7F, size: 0x8, addend: 0x0, symName: __RINvNtCsieiGu2EXtoJ_4core3ptr13drop_in_placeINtNtB4_6option6OptionTNtNtCsdGrGZaRBwMb_3syn5token2EqNtNtB17_2ty4TypeEEEB17_, symObjAddr: 0xDC0, symBinAddr: 0x8B420, symSize: 0x40 }
  - { offset: 0x104CAE, size: 0x8, addend: 0x0, symName: __RINvNtCsieiGu2EXtoJ_4core3ptr13drop_in_placeINtNtB4_6option6OptionTNtNtCsdGrGZaRBwMb_3syn5token2EqNtNtB17_4expr4ExprEEEB17_, symObjAddr: 0xE00, symBinAddr: 0x8B460, symSize: 0x40 }
  - { offset: 0x104CDD, size: 0x8, addend: 0x0, symName: __RINvNtCsieiGu2EXtoJ_4core3ptr13drop_in_placeINtNtB4_6option6OptionTNtNtCsdGrGZaRBwMb_3syn5token2IfINtNtCslJiobkLta79_5alloc5boxed3BoxNtNtB17_4expr4ExprEEEEB17_, symObjAddr: 0xE40, symBinAddr: 0x8B4A0, symSize: 0x40 }
  - { offset: 0x104D0C, size: 0x8, addend: 0x0, symName: __RINvNtCsieiGu2EXtoJ_4core3ptr13drop_in_placeINtNtB4_6option6OptionTNtNtCsdGrGZaRBwMb_3syn5token3AndIBH_NtNtB17_8lifetime8LifetimeEEEEB17_, symObjAddr: 0xE80, symBinAddr: 0x8B4E0, symSize: 0x40 }
  - { offset: 0x104D3B, size: 0x8, addend: 0x0, symName: __RINvNtCsieiGu2EXtoJ_4core3ptr13drop_in_placeINtNtB4_6option6OptionTNtNtCsdGrGZaRBwMb_3syn5token4ElseINtNtCslJiobkLta79_5alloc5boxed3BoxNtNtB17_4expr4ExprEEEEB17_, symObjAddr: 0xEC0, symBinAddr: 0x8B520, symSize: 0x40 }
  - { offset: 0x104D6A, size: 0x8, addend: 0x0, symName: __RINvNtCsieiGu2EXtoJ_4core3ptr13drop_in_placeINtNtB4_6option6OptionTNtNtCsdGrGZaRBwMb_3syn5token5BraceINtNtCslJiobkLta79_5alloc3vec3VecNtNtB17_4item4ItemEEEEB17_, symObjAddr: 0xF00, symBinAddr: 0x8B560, symSize: 0x40 }
  - { offset: 0x104D99, size: 0x8, addend: 0x0, symName: __RINvNtCsieiGu2EXtoJ_4core3ptr13drop_in_placeINtNtB4_6option6OptionTNtNtCsdGrGZaRBwMb_3syn8lifetime8LifetimeNtNtB17_6buffer6CursorEEEB17_, symObjAddr: 0xF40, symBinAddr: 0x8B5A0, symSize: 0x40 }
  - { offset: 0x104DC8, size: 0x8, addend: 0x0, symName: __RINvNtCsieiGu2EXtoJ_4core3ptr13drop_in_placeINtNtB4_6option8IntoIterNtNtCsdGrGZaRBwMb_3syn4path11PathSegmentEEB18_, symObjAddr: 0xF80, symBinAddr: 0x8B5E0, symSize: 0x20 }
  - { offset: 0x104DF7, size: 0x8, addend: 0x0, symName: __RINvNtCsieiGu2EXtoJ_4core3ptr13drop_in_placeINtNtB4_6result6ResultINtNtB4_6option6OptionNtNtCsdGrGZaRBwMb_3syn2ty3AbiENtNtB1s_5error5ErrorEEB1s_, symObjAddr: 0xFA0, symBinAddr: 0x8B600, symSize: 0x40 }
  - { offset: 0x104E26, size: 0x8, addend: 0x0, symName: __RINvNtCsieiGu2EXtoJ_4core3ptr13drop_in_placeINtNtB4_6result6ResultINtNtB4_6option6OptionNtNtCsdGrGZaRBwMb_3syn5token5AsyncENtNtB1s_5error5ErrorEEB1s_, symObjAddr: 0xFE0, symBinAddr: 0x8B640, symSize: 0x40 }
  - { offset: 0x104E55, size: 0x8, addend: 0x0, symName: __RINvNtCsieiGu2EXtoJ_4core3ptr13drop_in_placeINtNtB4_6result6ResultINtNtB4_6option6OptionNtNtCsdGrGZaRBwMb_3syn5token5ConstENtNtB1s_5error5ErrorEEB1s_, symObjAddr: 0x1020, symBinAddr: 0x8B680, symSize: 0x40 }
  - { offset: 0x104E84, size: 0x8, addend: 0x0, symName: __RINvNtCsieiGu2EXtoJ_4core3ptr13drop_in_placeINtNtB4_6result6ResultINtNtB4_6option6OptionNtNtCsdGrGZaRBwMb_3syn5token6UnsafeENtNtB1s_5error5ErrorEEB1s_, symObjAddr: 0x1060, symBinAddr: 0x8B6C0, symSize: 0x40 }
  - { offset: 0x104EB3, size: 0x8, addend: 0x0, symName: __RINvNtCsieiGu2EXtoJ_4core3ptr13drop_in_placeINtNtB4_6result6ResultNtCsaKzlTDPUHDb_11proc_macro24SpanNtNtCsdGrGZaRBwMb_3syn5error5ErrorEEB1E_, symObjAddr: 0x10A0, symBinAddr: 0x8B700, symSize: 0x40 }
  - { offset: 0x104EE2, size: 0x8, addend: 0x0, symName: __RINvNtCsieiGu2EXtoJ_4core3ptr13drop_in_placeINtNtB4_6result6ResultNtNtCsdGrGZaRBwMb_3syn2op5BinOpNtNtB16_5error5ErrorEEB16_, symObjAddr: 0x10E0, symBinAddr: 0x8B740, symSize: 0x40 }
  - { offset: 0x104F11, size: 0x8, addend: 0x0, symName: __RINvNtCsieiGu2EXtoJ_4core3ptr13drop_in_placeINtNtB4_6result6ResultNtNtCsdGrGZaRBwMb_3syn3lit3LitNtNtB16_5error5ErrorEEB16_, symObjAddr: 0x1170, symBinAddr: 0x8B780, symSize: 0x40 }
  - { offset: 0x104F40, size: 0x8, addend: 0x0, symName: __RINvNtCsieiGu2EXtoJ_4core3ptr13drop_in_placeINtNtB4_6result6ResultNtNtCsdGrGZaRBwMb_3syn3lit6LitIntNtNtB16_5error5ErrorEEB16_, symObjAddr: 0x11B0, symBinAddr: 0x8B7C0, symSize: 0x50 }
  - { offset: 0x104F6F, size: 0x8, addend: 0x0, symName: __RINvNtCsieiGu2EXtoJ_4core3ptr13drop_in_placeINtNtB4_6result6ResultNtNtCsdGrGZaRBwMb_3syn3lit6LitStrNtNtB16_5error5ErrorEEB16_, symObjAddr: 0x1200, symBinAddr: 0x8B810, symSize: 0x50 }
  - { offset: 0x104F9E, size: 0x8, addend: 0x0, symName: __RINvNtCsieiGu2EXtoJ_4core3ptr13drop_in_placeINtNtB4_6result6ResultNtNtCsdGrGZaRBwMb_3syn3lit8LitFloatNtNtB16_5error5ErrorEEB16_, symObjAddr: 0x1380, symBinAddr: 0x8B860, symSize: 0x50 }
  - { offset: 0x104FCD, size: 0x8, addend: 0x0, symName: __RINvNtCsieiGu2EXtoJ_4core3ptr13drop_in_placeINtNtB4_6result6ResultNtNtCsdGrGZaRBwMb_3syn4path4PathNtNtB16_5error5ErrorEEB16_, symObjAddr: 0x13D0, symBinAddr: 0x8B8B0, symSize: 0x50 }
  - { offset: 0x104FFC, size: 0x8, addend: 0x0, symName: __RINvNtCsieiGu2EXtoJ_4core3ptr13drop_in_placeINtNtB4_6result6ResultNtNtNtCslJiobkLta79_5alloc3ffi5c_str7CStringNtB14_8NulErrorEECsdGrGZaRBwMb_3syn, symObjAddr: 0x1420, symBinAddr: 0x8B900, symSize: 0x50 }
  - { offset: 0x10502B, size: 0x8, addend: 0x0, symName: __RINvNtCsieiGu2EXtoJ_4core3ptr13drop_in_placeINtNtB4_6result6ResultTINtNtB4_6option6OptionTNtNtCsdGrGZaRBwMb_3syn5token3AndIB14_NtNtB1u_8lifetime8LifetimeEEEIB14_NtB1s_3MutENtB1s_9SelfValueENtNtB1u_5error5ErrorEEB1u_, symObjAddr: 0x1470, symBinAddr: 0x8B950, symSize: 0x50 }
  - { offset: 0x10505A, size: 0x8, addend: 0x0, symName: __RINvNtCsieiGu2EXtoJ_4core3ptr13drop_in_placeINtNtCsdGrGZaRBwMb_3syn10punctuated10PunctuatedNtNtBL_2ty4TypeNtNtBL_5token5CommaEEBL_, symObjAddr: 0x14C0, symBinAddr: 0x8B9A0, symSize: 0x60 }
  - { offset: 0x105089, size: 0x8, addend: 0x0, symName: __RINvNtCsieiGu2EXtoJ_4core3ptr13drop_in_placeINtNtCsdGrGZaRBwMb_3syn10punctuated10PunctuatedNtNtBL_2ty9BareFnArgNtNtBL_5token5CommaEEBL_, symObjAddr: 0x1520, symBinAddr: 0x8BA00, symSize: 0x60 }
  - { offset: 0x1050B8, size: 0x8, addend: 0x0, symName: __RINvNtCsieiGu2EXtoJ_4core3ptr13drop_in_placeINtNtCsdGrGZaRBwMb_3syn10punctuated10PunctuatedNtNtBL_3pat3PatNtNtBL_5token2OrEEBL_, symObjAddr: 0x1580, symBinAddr: 0x8BA60, symSize: 0x60 }
  - { offset: 0x1050E7, size: 0x8, addend: 0x0, symName: __RINvNtCsieiGu2EXtoJ_4core3ptr13drop_in_placeINtNtCsdGrGZaRBwMb_3syn10punctuated10PunctuatedNtNtBL_3pat3PatNtNtBL_5token5CommaEEBL_, symObjAddr: 0x15E0, symBinAddr: 0x8BAC0, symSize: 0x60 }
  - { offset: 0x105116, size: 0x8, addend: 0x0, symName: __RINvNtCsieiGu2EXtoJ_4core3ptr13drop_in_placeINtNtCsdGrGZaRBwMb_3syn10punctuated10PunctuatedNtNtBL_3pat8FieldPatNtNtBL_5token5CommaEEBL_, symObjAddr: 0x1640, symBinAddr: 0x8BB20, symSize: 0x60 }
  - { offset: 0x105145, size: 0x8, addend: 0x0, symName: __RINvNtCsieiGu2EXtoJ_4core3ptr13drop_in_placeINtNtCsdGrGZaRBwMb_3syn10punctuated10PunctuatedNtNtBL_4data5FieldNtNtBL_5token5CommaEEBL_, symObjAddr: 0x16A0, symBinAddr: 0x8BB80, symSize: 0x60 }
  - { offset: 0x105174, size: 0x8, addend: 0x0, symName: __RINvNtCsieiGu2EXtoJ_4core3ptr13drop_in_placeINtNtCsdGrGZaRBwMb_3syn10punctuated10PunctuatedNtNtBL_4data7VariantNtNtBL_5token5CommaEEBL_, symObjAddr: 0x1700, symBinAddr: 0x8BBE0, symSize: 0x60 }
  - { offset: 0x1051A3, size: 0x8, addend: 0x0, symName: __RINvNtCsieiGu2EXtoJ_4core3ptr13drop_in_placeINtNtCsdGrGZaRBwMb_3syn10punctuated10PunctuatedNtNtBL_4expr10FieldValueNtNtBL_5token5CommaEEBL_, symObjAddr: 0x1760, symBinAddr: 0x8BC40, symSize: 0x60 }
  - { offset: 0x1051D2, size: 0x8, addend: 0x0, symName: __RINvNtCsieiGu2EXtoJ_4core3ptr13drop_in_placeINtNtCsdGrGZaRBwMb_3syn10punctuated10PunctuatedNtNtBL_4expr4ExprNtNtBL_5token5CommaEEBL_, symObjAddr: 0x17C0, symBinAddr: 0x8BCA0, symSize: 0x60 }
  - { offset: 0x105201, size: 0x8, addend: 0x0, symName: __RINvNtCsieiGu2EXtoJ_4core3ptr13drop_in_placeINtNtCsdGrGZaRBwMb_3syn10punctuated10PunctuatedNtNtBL_4item5FnArgNtNtBL_5token5CommaEEBL_, symObjAddr: 0x1820, symBinAddr: 0x8BD00, symSize: 0x60 }
  - { offset: 0x105230, size: 0x8, addend: 0x0, symName: __RINvNtCsieiGu2EXtoJ_4core3ptr13drop_in_placeINtNtCsdGrGZaRBwMb_3syn10punctuated10PunctuatedNtNtBL_4item7UseTreeNtNtBL_5token5CommaEEBL_, symObjAddr: 0x1880, symBinAddr: 0x8BD60, symSize: 0x60 }
  - { offset: 0x10525F, size: 0x8, addend: 0x0, symName: __RINvNtCsieiGu2EXtoJ_4core3ptr13drop_in_placeINtNtCsdGrGZaRBwMb_3syn10punctuated10PunctuatedNtNtBL_4path11PathSegmentNtNtBL_5token7PathSepEEBL_, symObjAddr: 0x18E0, symBinAddr: 0x8BDC0, symSize: 0x60 }
  - { offset: 0x10528E, size: 0x8, addend: 0x0, symName: __RINvNtCsieiGu2EXtoJ_4core3ptr13drop_in_placeINtNtCsdGrGZaRBwMb_3syn10punctuated10PunctuatedNtNtBL_4path15GenericArgumentNtNtBL_5token5CommaEEBL_, symObjAddr: 0x1940, symBinAddr: 0x8BE20, symSize: 0x60 }
  - { offset: 0x1052BD, size: 0x8, addend: 0x0, symName: __RINvNtCsieiGu2EXtoJ_4core3ptr13drop_in_placeINtNtCsdGrGZaRBwMb_3syn10punctuated10PunctuatedNtNtBL_8generics12GenericParamNtNtBL_5token5CommaEEBL_, symObjAddr: 0x19A0, symBinAddr: 0x8BE80, symSize: 0x60 }
  - { offset: 0x1052EC, size: 0x8, addend: 0x0, symName: __RINvNtCsieiGu2EXtoJ_4core3ptr13drop_in_placeINtNtCsdGrGZaRBwMb_3syn10punctuated10PunctuatedNtNtBL_8generics13CapturedParamNtNtBL_5token5CommaEEBL_, symObjAddr: 0x1A00, symBinAddr: 0x8BEE0, symSize: 0x60 }
  - { offset: 0x10531B, size: 0x8, addend: 0x0, symName: __RINvNtCsieiGu2EXtoJ_4core3ptr13drop_in_placeINtNtCsdGrGZaRBwMb_3syn10punctuated10PunctuatedNtNtBL_8generics14TypeParamBoundNtNtBL_5token4PlusEEBL_, symObjAddr: 0x1A60, symBinAddr: 0x8BF40, symSize: 0x60 }
  - { offset: 0x10534A, size: 0x8, addend: 0x0, symName: __RINvNtCsieiGu2EXtoJ_4core3ptr13drop_in_placeINtNtCsdGrGZaRBwMb_3syn10punctuated10PunctuatedNtNtBL_8generics14WherePredicateNtNtBL_5token5CommaEEBL_, symObjAddr: 0x1AC0, symBinAddr: 0x8BFA0, symSize: 0x60 }
  - { offset: 0x105379, size: 0x8, addend: 0x0, symName: __RINvNtCsieiGu2EXtoJ_4core3ptr13drop_in_placeINtNtCsdGrGZaRBwMb_3syn10punctuated10PunctuatedNtNtBL_8lifetime8LifetimeNtNtBL_5token4PlusEEBL_, symObjAddr: 0x1B20, symBinAddr: 0x8C000, symSize: 0x60 }
  - { offset: 0x1053A8, size: 0x8, addend: 0x0, symName: __RINvNtCsieiGu2EXtoJ_4core3ptr13drop_in_placeINtNtCsdGrGZaRBwMb_3syn10punctuated4IterNtNtBL_4path11PathSegmentEEBL_, symObjAddr: 0x1BA0, symBinAddr: 0x8C060, symSize: 0x20 }
  - { offset: 0x1053D7, size: 0x8, addend: 0x0, symName: __RINvNtCsieiGu2EXtoJ_4core3ptr13drop_in_placeINtNtCsdGrGZaRBwMb_3syn10punctuated4IterNtNtBL_8generics14TypeParamBoundEEBL_, symObjAddr: 0x1BC0, symBinAddr: 0x8C080, symSize: 0x20 }
  - { offset: 0x105406, size: 0x8, addend: 0x0, symName: __RINvNtCsieiGu2EXtoJ_4core3ptr13drop_in_placeINtNtCsdGrGZaRBwMb_3syn10punctuated4PairNtNtBL_4path11PathSegmentNtNtBL_5token7PathSepEEBL_, symObjAddr: 0x1BE0, symBinAddr: 0x8C0A0, symSize: 0x50 }
  - { offset: 0x105435, size: 0x8, addend: 0x0, symName: __RINvNtCsieiGu2EXtoJ_4core3ptr13drop_in_placeINtNtCsdGrGZaRBwMb_3syn10punctuated7IterMutNtNtBL_4path11PathSegmentEEBL_, symObjAddr: 0x1C30, symBinAddr: 0x8C0F0, symSize: 0x20 }
  - { offset: 0x105464, size: 0x8, addend: 0x0, symName: __RINvNtCsieiGu2EXtoJ_4core3ptr13drop_in_placeINtNtCsdGrGZaRBwMb_3syn10punctuated8IntoIterNtNtBL_8generics14TypeParamBoundEEBL_, symObjAddr: 0x1C50, symBinAddr: 0x8C110, symSize: 0x20 }
  - { offset: 0x105493, size: 0x8, addend: 0x0, symName: __RINvNtCsieiGu2EXtoJ_4core3ptr13drop_in_placeINtNtCsdGrGZaRBwMb_3syn10punctuated9IntoPairsNtNtBL_4path11PathSegmentNtNtBL_5token7PathSepEEBL_, symObjAddr: 0x1C70, symBinAddr: 0x8C130, symSize: 0x60 }
  - { offset: 0x1054C2, size: 0x8, addend: 0x0, symName: __RINvNtCsieiGu2EXtoJ_4core3ptr13drop_in_placeINtNtCslJiobkLta79_5alloc2rc2RcINtNtB4_4cell4CellNtNtCsdGrGZaRBwMb_3syn5parse10UnexpectedEEEB1x_, symObjAddr: 0x1CD0, symBinAddr: 0x8C190, symSize: 0x20 }
  - { offset: 0x1054F1, size: 0x8, addend: 0x0, symName: __RINvNtCsieiGu2EXtoJ_4core3ptr13drop_in_placeINtNtCslJiobkLta79_5alloc2rc4WeakINtNtB4_4cell4CellNtNtCsdGrGZaRBwMb_3syn5parse10UnexpectedERNtNtBL_5alloc6GlobalEEB1z_, symObjAddr: 0x1CF0, symBinAddr: 0x8C1B0, symSize: 0x20 }
  - { offset: 0x105520, size: 0x8, addend: 0x0, symName: __RINvNtCsieiGu2EXtoJ_4core3ptr13drop_in_placeINtNtCslJiobkLta79_5alloc2rc7RcInnerINtNtB4_4cell4CellNtNtCsdGrGZaRBwMb_3syn5parse10UnexpectedEEEB1C_, symObjAddr: 0x1D10, symBinAddr: 0x8C1D0, symSize: 0x20 }
  - { offset: 0x10554F, size: 0x8, addend: 0x0, symName: __RINvNtCsieiGu2EXtoJ_4core3ptr13drop_in_placeINtNtCslJiobkLta79_5alloc3vec3VecNtNtCsdGrGZaRBwMb_3syn4attr9AttributeEEB1h_, symObjAddr: 0x1D30, symBinAddr: 0x8C1F0, symSize: 0x50 }
  - { offset: 0x10557E, size: 0x8, addend: 0x0, symName: __RINvNtCsieiGu2EXtoJ_4core3ptr13drop_in_placeINtNtCslJiobkLta79_5alloc3vec3VecNtNtCsdGrGZaRBwMb_3syn4expr3ArmEEB1h_, symObjAddr: 0x1DD0, symBinAddr: 0x8C240, symSize: 0x50 }
  - { offset: 0x1055AD, size: 0x8, addend: 0x0, symName: __RINvNtCsieiGu2EXtoJ_4core3ptr13drop_in_placeINtNtCslJiobkLta79_5alloc3vec3VecNtNtCsdGrGZaRBwMb_3syn4expr6ExprIfEEB1h_, symObjAddr: 0x1E20, symBinAddr: 0x8C290, symSize: 0x50 }
  - { offset: 0x1055DC, size: 0x8, addend: 0x0, symName: __RINvNtCsieiGu2EXtoJ_4core3ptr13drop_in_placeINtNtCslJiobkLta79_5alloc3vec3VecNtNtCsdGrGZaRBwMb_3syn4item11ForeignItemEEB1h_, symObjAddr: 0x1E70, symBinAddr: 0x8C2E0, symSize: 0x50 }
  - { offset: 0x10560B, size: 0x8, addend: 0x0, symName: __RINvNtCsieiGu2EXtoJ_4core3ptr13drop_in_placeINtNtCslJiobkLta79_5alloc3vec3VecNtNtCsdGrGZaRBwMb_3syn4item4ItemEEB1h_, symObjAddr: 0x1EC0, symBinAddr: 0x8C330, symSize: 0x50 }
  - { offset: 0x10563A, size: 0x8, addend: 0x0, symName: __RINvNtCsieiGu2EXtoJ_4core3ptr13drop_in_placeINtNtCslJiobkLta79_5alloc3vec3VecNtNtCsdGrGZaRBwMb_3syn4item8ImplItemEEB1h_, symObjAddr: 0x1F10, symBinAddr: 0x8C380, symSize: 0x50 }
  - { offset: 0x105669, size: 0x8, addend: 0x0, symName: __RINvNtCsieiGu2EXtoJ_4core3ptr13drop_in_placeINtNtCslJiobkLta79_5alloc3vec3VecNtNtCsdGrGZaRBwMb_3syn4item9TraitItemEEB1h_, symObjAddr: 0x1F60, symBinAddr: 0x8C3D0, symSize: 0x50 }
  - { offset: 0x105698, size: 0x8, addend: 0x0, symName: __RINvNtCsieiGu2EXtoJ_4core3ptr13drop_in_placeINtNtCslJiobkLta79_5alloc3vec3VecNtNtCsdGrGZaRBwMb_3syn4stmt4StmtEEB1h_, symObjAddr: 0x1FB0, symBinAddr: 0x8C420, symSize: 0x50 }
  - { offset: 0x1056C7, size: 0x8, addend: 0x0, symName: __RINvNtCsieiGu2EXtoJ_4core3ptr13drop_in_placeINtNtCslJiobkLta79_5alloc3vec3VecNtNtCsdGrGZaRBwMb_3syn5error12ErrorMessageEEB1h_, symObjAddr: 0x2000, symBinAddr: 0x8C470, symSize: 0x50 }
  - { offset: 0x1056F6, size: 0x8, addend: 0x0, symName: __RINvNtCsieiGu2EXtoJ_4core3ptr13drop_in_placeINtNtCslJiobkLta79_5alloc3vec3VecNtNtCsdGrGZaRBwMb_3syn6buffer5EntryEEB1h_, symObjAddr: 0x2050, symBinAddr: 0x8C4C0, symSize: 0x50 }
  - { offset: 0x105725, size: 0x8, addend: 0x0, symName: __RINvNtCsieiGu2EXtoJ_4core3ptr13drop_in_placeINtNtCslJiobkLta79_5alloc3vec3VecNtNtCsdGrGZaRBwMb_3syn8generics14TypeParamBoundEEB1h_, symObjAddr: 0x20A0, symBinAddr: 0x8C510, symSize: 0x50 }
  - { offset: 0x105754, size: 0x8, addend: 0x0, symName: __RINvNtCsieiGu2EXtoJ_4core3ptr13drop_in_placeINtNtCslJiobkLta79_5alloc3vec3VecReEECsdGrGZaRBwMb_3syn, symObjAddr: 0x20F0, symBinAddr: 0x8C560, symSize: 0x50 }
  - { offset: 0x105783, size: 0x8, addend: 0x0, symName: __RINvNtCsieiGu2EXtoJ_4core3ptr13drop_in_placeINtNtCslJiobkLta79_5alloc3vec3VecTNtNtCsdGrGZaRBwMb_3syn2ty4TypeNtNtB1i_5token5CommaEEEB1i_, symObjAddr: 0x2140, symBinAddr: 0x8C5B0, symSize: 0x50 }
  - { offset: 0x1057B2, size: 0x8, addend: 0x0, symName: __RINvNtCsieiGu2EXtoJ_4core3ptr13drop_in_placeINtNtCslJiobkLta79_5alloc3vec3VecTNtNtCsdGrGZaRBwMb_3syn2ty9BareFnArgNtNtB1i_5token5CommaEEEB1i_, symObjAddr: 0x2190, symBinAddr: 0x8C600, symSize: 0x50 }
  - { offset: 0x1057E1, size: 0x8, addend: 0x0, symName: __RINvNtCsieiGu2EXtoJ_4core3ptr13drop_in_placeINtNtCslJiobkLta79_5alloc3vec3VecTNtNtCsdGrGZaRBwMb_3syn3pat3PatNtNtB1i_5token2OrEEEB1i_, symObjAddr: 0x21E0, symBinAddr: 0x8C650, symSize: 0x50 }
  - { offset: 0x105810, size: 0x8, addend: 0x0, symName: __RINvNtCsieiGu2EXtoJ_4core3ptr13drop_in_placeINtNtCslJiobkLta79_5alloc3vec3VecTNtNtCsdGrGZaRBwMb_3syn3pat3PatNtNtB1i_5token5CommaEEEB1i_, symObjAddr: 0x2230, symBinAddr: 0x8C6A0, symSize: 0x50 }
  - { offset: 0x10583F, size: 0x8, addend: 0x0, symName: __RINvNtCsieiGu2EXtoJ_4core3ptr13drop_in_placeINtNtCslJiobkLta79_5alloc3vec3VecTNtNtCsdGrGZaRBwMb_3syn3pat8FieldPatNtNtB1i_5token5CommaEEEB1i_, symObjAddr: 0x2280, symBinAddr: 0x8C6F0, symSize: 0x50 }
  - { offset: 0x10586E, size: 0x8, addend: 0x0, symName: __RINvNtCsieiGu2EXtoJ_4core3ptr13drop_in_placeINtNtCslJiobkLta79_5alloc3vec3VecTNtNtCsdGrGZaRBwMb_3syn4data5FieldNtNtB1i_5token5CommaEEEB1i_, symObjAddr: 0x22D0, symBinAddr: 0x8C740, symSize: 0x50 }
  - { offset: 0x10589D, size: 0x8, addend: 0x0, symName: __RINvNtCsieiGu2EXtoJ_4core3ptr13drop_in_placeINtNtCslJiobkLta79_5alloc3vec3VecTNtNtCsdGrGZaRBwMb_3syn4data7VariantNtNtB1i_5token5CommaEEEB1i_, symObjAddr: 0x2370, symBinAddr: 0x8C790, symSize: 0x50 }
  - { offset: 0x1058CC, size: 0x8, addend: 0x0, symName: __RINvNtCsieiGu2EXtoJ_4core3ptr13drop_in_placeINtNtCslJiobkLta79_5alloc3vec3VecTNtNtCsdGrGZaRBwMb_3syn4expr10FieldValueNtNtB1i_5token5CommaEEEB1i_, symObjAddr: 0x23C0, symBinAddr: 0x8C7E0, symSize: 0x50 }
  - { offset: 0x1058FB, size: 0x8, addend: 0x0, symName: __RINvNtCsieiGu2EXtoJ_4core3ptr13drop_in_placeINtNtCslJiobkLta79_5alloc3vec3VecTNtNtCsdGrGZaRBwMb_3syn4expr4ExprNtNtB1i_5token5CommaEEEB1i_, symObjAddr: 0x2410, symBinAddr: 0x8C830, symSize: 0x50 }
  - { offset: 0x10592A, size: 0x8, addend: 0x0, symName: __RINvNtCsieiGu2EXtoJ_4core3ptr13drop_in_placeINtNtCslJiobkLta79_5alloc3vec3VecTNtNtCsdGrGZaRBwMb_3syn4item5FnArgNtNtB1i_5token5CommaEEEB1i_, symObjAddr: 0x2460, symBinAddr: 0x8C880, symSize: 0x50 }
  - { offset: 0x105959, size: 0x8, addend: 0x0, symName: __RINvNtCsieiGu2EXtoJ_4core3ptr13drop_in_placeINtNtCslJiobkLta79_5alloc3vec3VecTNtNtCsdGrGZaRBwMb_3syn4item7UseTreeNtNtB1i_5token5CommaEEEB1i_, symObjAddr: 0x24B0, symBinAddr: 0x8C8D0, symSize: 0x50 }
  - { offset: 0x105988, size: 0x8, addend: 0x0, symName: __RINvNtCsieiGu2EXtoJ_4core3ptr13drop_in_placeINtNtCslJiobkLta79_5alloc3vec3VecTNtNtCsdGrGZaRBwMb_3syn4path11PathSegmentNtNtB1i_5token7PathSepEEEB1i_, symObjAddr: 0x2500, symBinAddr: 0x8C920, symSize: 0x50 }
  - { offset: 0x1059B7, size: 0x8, addend: 0x0, symName: __RINvNtCsieiGu2EXtoJ_4core3ptr13drop_in_placeINtNtCslJiobkLta79_5alloc3vec3VecTNtNtCsdGrGZaRBwMb_3syn4path15GenericArgumentNtNtB1i_5token5CommaEEEB1i_, symObjAddr: 0x2550, symBinAddr: 0x8C970, symSize: 0x50 }
  - { offset: 0x1059E6, size: 0x8, addend: 0x0, symName: __RINvNtCsieiGu2EXtoJ_4core3ptr13drop_in_placeINtNtCslJiobkLta79_5alloc3vec3VecTNtNtCsdGrGZaRBwMb_3syn8generics12GenericParamNtNtB1i_5token5CommaEEEB1i_, symObjAddr: 0x25A0, symBinAddr: 0x8C9C0, symSize: 0x50 }
  - { offset: 0x105A15, size: 0x8, addend: 0x0, symName: __RINvNtCsieiGu2EXtoJ_4core3ptr13drop_in_placeINtNtCslJiobkLta79_5alloc3vec3VecTNtNtCsdGrGZaRBwMb_3syn8generics13CapturedParamNtNtB1i_5token5CommaEEEB1i_, symObjAddr: 0x25F0, symBinAddr: 0x8CA10, symSize: 0x50 }
  - { offset: 0x105A44, size: 0x8, addend: 0x0, symName: __RINvNtCsieiGu2EXtoJ_4core3ptr13drop_in_placeINtNtCslJiobkLta79_5alloc3vec3VecTNtNtCsdGrGZaRBwMb_3syn8generics14TypeParamBoundNtNtB1i_5token4PlusEEEB1i_, symObjAddr: 0x2640, symBinAddr: 0x8CA60, symSize: 0x50 }
  - { offset: 0x105A73, size: 0x8, addend: 0x0, symName: __RINvNtCsieiGu2EXtoJ_4core3ptr13drop_in_placeINtNtCslJiobkLta79_5alloc3vec3VecTNtNtCsdGrGZaRBwMb_3syn8generics14WherePredicateNtNtB1i_5token5CommaEEEB1i_, symObjAddr: 0x2690, symBinAddr: 0x8CAB0, symSize: 0x50 }
  - { offset: 0x105AA2, size: 0x8, addend: 0x0, symName: __RINvNtCsieiGu2EXtoJ_4core3ptr13drop_in_placeINtNtCslJiobkLta79_5alloc3vec3VecTNtNtCsdGrGZaRBwMb_3syn8lifetime8LifetimeNtNtB1i_5token4PlusEEEB1i_, symObjAddr: 0x26E0, symBinAddr: 0x8CB00, symSize: 0x50 }
  - { offset: 0x105AD1, size: 0x8, addend: 0x0, symName: __RINvNtCsieiGu2EXtoJ_4core3ptr13drop_in_placeINtNtCslJiobkLta79_5alloc4sync3ArcNtNtCsHUR1vrdMJt_3std6thread5InnerEECsdGrGZaRBwMb_3syn, symObjAddr: 0x2730, symBinAddr: 0x8CB50, symSize: 0x20 }
  - { offset: 0x105B00, size: 0x8, addend: 0x0, symName: __RINvNtCsieiGu2EXtoJ_4core3ptr13drop_in_placeINtNtCslJiobkLta79_5alloc5boxed3BoxINtNtCsdGrGZaRBwMb_3syn5drops6NoDropDINtNtB1k_10punctuated12IterMutTraitNtNtB1k_4path11PathSegmentEp4ItemQB2p_EL_EEEB1k_, symObjAddr: 0x2750, symBinAddr: 0x8CB70, symSize: 0x20 }
  - { offset: 0x105B2F, size: 0x8, addend: 0x0, symName: __RINvNtCsieiGu2EXtoJ_4core3ptr13drop_in_placeINtNtCslJiobkLta79_5alloc5boxed3BoxINtNtCsdGrGZaRBwMb_3syn5drops6NoDropDINtNtB1k_10punctuated9IterTraitNtNtB1k_4path11PathSegmentEp4ItemRB2l_EL_EEEB1k_, symObjAddr: 0x2790, symBinAddr: 0x8CB90, symSize: 0x20 }
  - { offset: 0x105B5E, size: 0x8, addend: 0x0, symName: __RINvNtCsieiGu2EXtoJ_4core3ptr13drop_in_placeINtNtCslJiobkLta79_5alloc5boxed3BoxINtNtCsdGrGZaRBwMb_3syn5drops6NoDropDINtNtB1k_10punctuated9IterTraitNtNtB1k_8generics14TypeParamBoundEp4ItemRB2l_EL_EEEB1k_, symObjAddr: 0x27B0, symBinAddr: 0x8CBB0, symSize: 0x20 }
  - { offset: 0x105B8D, size: 0x8, addend: 0x0, symName: __RINvNtCsieiGu2EXtoJ_4core3ptr13drop_in_placeINtNtCslJiobkLta79_5alloc5boxed3BoxNtNtCsdGrGZaRBwMb_3syn2ty4TypeEEB1j_, symObjAddr: 0x2A90, symBinAddr: 0x8CBD0, symSize: 0x50 }
  - { offset: 0x105BBC, size: 0x8, addend: 0x0, symName: __RINvNtCsieiGu2EXtoJ_4core3ptr13drop_in_placeINtNtCslJiobkLta79_5alloc5boxed3BoxNtNtCsdGrGZaRBwMb_3syn2ty9BareFnArgEEB1j_, symObjAddr: 0x2AE0, symBinAddr: 0x8CC20, symSize: 0x50 }
  - { offset: 0x105BEB, size: 0x8, addend: 0x0, symName: __RINvNtCsieiGu2EXtoJ_4core3ptr13drop_in_placeINtNtCslJiobkLta79_5alloc5boxed3BoxNtNtCsdGrGZaRBwMb_3syn3lit10LitIntReprEEB1j_, symObjAddr: 0x2B30, symBinAddr: 0x8CC70, symSize: 0x50 }
  - { offset: 0x105C1A, size: 0x8, addend: 0x0, symName: __RINvNtCsieiGu2EXtoJ_4core3ptr13drop_in_placeINtNtCslJiobkLta79_5alloc5boxed3BoxNtNtCsdGrGZaRBwMb_3syn3lit12LitFloatReprEEB1j_, symObjAddr: 0x2B80, symBinAddr: 0x8CCC0, symSize: 0x50 }
  - { offset: 0x105C49, size: 0x8, addend: 0x0, symName: __RINvNtCsieiGu2EXtoJ_4core3ptr13drop_in_placeINtNtCslJiobkLta79_5alloc5boxed3BoxNtNtCsdGrGZaRBwMb_3syn3lit7LitReprEEB1j_, symObjAddr: 0x2BD0, symBinAddr: 0x8CD10, symSize: 0x50 }
  - { offset: 0x105C78, size: 0x8, addend: 0x0, symName: __RINvNtCsieiGu2EXtoJ_4core3ptr13drop_in_placeINtNtCslJiobkLta79_5alloc5boxed3BoxNtNtCsdGrGZaRBwMb_3syn3pat3PatEEB1j_, symObjAddr: 0x2C20, symBinAddr: 0x8CD60, symSize: 0x50 }
  - { offset: 0x105CA7, size: 0x8, addend: 0x0, symName: __RINvNtCsieiGu2EXtoJ_4core3ptr13drop_in_placeINtNtCslJiobkLta79_5alloc5boxed3BoxNtNtCsdGrGZaRBwMb_3syn3pat8FieldPatEEB1j_, symObjAddr: 0x2C70, symBinAddr: 0x8CDB0, symSize: 0x50 }
  - { offset: 0x105CD6, size: 0x8, addend: 0x0, symName: __RINvNtCsieiGu2EXtoJ_4core3ptr13drop_in_placeINtNtCslJiobkLta79_5alloc5boxed3BoxNtNtCsdGrGZaRBwMb_3syn4data5FieldEEB1j_, symObjAddr: 0x2CC0, symBinAddr: 0x8CE00, symSize: 0x50 }
  - { offset: 0x105D05, size: 0x8, addend: 0x0, symName: __RINvNtCsieiGu2EXtoJ_4core3ptr13drop_in_placeINtNtCslJiobkLta79_5alloc5boxed3BoxNtNtCsdGrGZaRBwMb_3syn4data7VariantEEB1j_, symObjAddr: 0x2D10, symBinAddr: 0x8CE50, symSize: 0x50 }
  - { offset: 0x105D34, size: 0x8, addend: 0x0, symName: __RINvNtCsieiGu2EXtoJ_4core3ptr13drop_in_placeINtNtCslJiobkLta79_5alloc5boxed3BoxNtNtCsdGrGZaRBwMb_3syn4expr10FieldValueEEB1j_, symObjAddr: 0x2D60, symBinAddr: 0x8CEA0, symSize: 0x50 }
  - { offset: 0x105D63, size: 0x8, addend: 0x0, symName: __RINvNtCsieiGu2EXtoJ_4core3ptr13drop_in_placeINtNtCslJiobkLta79_5alloc5boxed3BoxNtNtCsdGrGZaRBwMb_3syn4expr4ExprEEB1j_, symObjAddr: 0x2DB0, symBinAddr: 0x8CEF0, symSize: 0x50 }
  - { offset: 0x105D92, size: 0x8, addend: 0x0, symName: __RINvNtCsieiGu2EXtoJ_4core3ptr13drop_in_placeINtNtCslJiobkLta79_5alloc5boxed3BoxNtNtCsdGrGZaRBwMb_3syn4item5FnArgEEB1j_, symObjAddr: 0x2E00, symBinAddr: 0x8CF40, symSize: 0x50 }
  - { offset: 0x105DC1, size: 0x8, addend: 0x0, symName: __RINvNtCsieiGu2EXtoJ_4core3ptr13drop_in_placeINtNtCslJiobkLta79_5alloc5boxed3BoxNtNtCsdGrGZaRBwMb_3syn4item7UseTreeEEB1j_, symObjAddr: 0x2E50, symBinAddr: 0x8CF90, symSize: 0x50 }
  - { offset: 0x105DF0, size: 0x8, addend: 0x0, symName: __RINvNtCsieiGu2EXtoJ_4core3ptr13drop_in_placeINtNtCslJiobkLta79_5alloc5boxed3BoxNtNtCsdGrGZaRBwMb_3syn4path11PathSegmentEEB1j_, symObjAddr: 0x2EA0, symBinAddr: 0x8CFE0, symSize: 0x50 }
  - { offset: 0x105E1F, size: 0x8, addend: 0x0, symName: __RINvNtCsieiGu2EXtoJ_4core3ptr13drop_in_placeINtNtCslJiobkLta79_5alloc5boxed3BoxNtNtCsdGrGZaRBwMb_3syn4path15GenericArgumentEEB1j_, symObjAddr: 0x2EF0, symBinAddr: 0x8D030, symSize: 0x50 }
  - { offset: 0x105E4E, size: 0x8, addend: 0x0, symName: __RINvNtCsieiGu2EXtoJ_4core3ptr13drop_in_placeINtNtCslJiobkLta79_5alloc5boxed3BoxNtNtCsdGrGZaRBwMb_3syn4path4PathEEB1j_, symObjAddr: 0x2F40, symBinAddr: 0x8D080, symSize: 0x50 }
  - { offset: 0x105E7D, size: 0x8, addend: 0x0, symName: __RINvNtCsieiGu2EXtoJ_4core3ptr13drop_in_placeINtNtCslJiobkLta79_5alloc5boxed3BoxNtNtCsdGrGZaRBwMb_3syn4stmt5BlockEEB1j_, symObjAddr: 0x2F90, symBinAddr: 0x8D0D0, symSize: 0x50 }
  - { offset: 0x105EAC, size: 0x8, addend: 0x0, symName: __RINvNtCsieiGu2EXtoJ_4core3ptr13drop_in_placeINtNtCslJiobkLta79_5alloc5boxed3BoxNtNtCsdGrGZaRBwMb_3syn8generics12GenericParamEEB1j_, symObjAddr: 0x2FE0, symBinAddr: 0x8D120, symSize: 0x50 }
  - { offset: 0x105EDB, size: 0x8, addend: 0x0, symName: __RINvNtCsieiGu2EXtoJ_4core3ptr13drop_in_placeINtNtCslJiobkLta79_5alloc5boxed3BoxNtNtCsdGrGZaRBwMb_3syn8generics13CapturedParamEEB1j_, symObjAddr: 0x3030, symBinAddr: 0x8D170, symSize: 0x50 }
  - { offset: 0x105F0A, size: 0x8, addend: 0x0, symName: __RINvNtCsieiGu2EXtoJ_4core3ptr13drop_in_placeINtNtCslJiobkLta79_5alloc5boxed3BoxNtNtCsdGrGZaRBwMb_3syn8generics14TypeParamBoundEEB1j_, symObjAddr: 0x3080, symBinAddr: 0x8D1C0, symSize: 0x50 }
  - { offset: 0x105F39, size: 0x8, addend: 0x0, symName: __RINvNtCsieiGu2EXtoJ_4core3ptr13drop_in_placeINtNtCslJiobkLta79_5alloc5boxed3BoxNtNtCsdGrGZaRBwMb_3syn8generics14WherePredicateEEB1j_, symObjAddr: 0x30D0, symBinAddr: 0x8D210, symSize: 0x50 }
  - { offset: 0x105F68, size: 0x8, addend: 0x0, symName: __RINvNtCsieiGu2EXtoJ_4core3ptr13drop_in_placeINtNtCslJiobkLta79_5alloc5boxed3BoxNtNtCsdGrGZaRBwMb_3syn8lifetime8LifetimeEEB1j_, symObjAddr: 0x3120, symBinAddr: 0x8D260, symSize: 0x50 }
  - { offset: 0x105F97, size: 0x8, addend: 0x0, symName: __RINvNtCsieiGu2EXtoJ_4core3ptr13drop_in_placeINtNtCslJiobkLta79_5alloc5boxed3BoxSNtNtCsdGrGZaRBwMb_3syn6buffer5EntryEEB1k_, symObjAddr: 0x3170, symBinAddr: 0x8D2B0, symSize: 0x60 }
  - { offset: 0x105FC6, size: 0x8, addend: 0x0, symName: __RINvNtCsieiGu2EXtoJ_4core3ptr13drop_in_placeINtNtCslJiobkLta79_5alloc5boxed3BoxShEECsdGrGZaRBwMb_3syn, symObjAddr: 0x31D0, symBinAddr: 0x8D310, symSize: 0x20 }
  - { offset: 0x105FF5, size: 0x8, addend: 0x0, symName: __RINvNtCsieiGu2EXtoJ_4core3ptr13drop_in_placeINtNtCslJiobkLta79_5alloc7raw_vec6RawVecNtNtCsdGrGZaRBwMb_3syn4attr9AttributeEEB1o_, symObjAddr: 0x31F0, symBinAddr: 0x8D330, symSize: 0x20 }
  - { offset: 0x106024, size: 0x8, addend: 0x0, symName: __RINvNtCsieiGu2EXtoJ_4core3ptr13drop_in_placeINtNtCslJiobkLta79_5alloc7raw_vec6RawVecNtNtCsdGrGZaRBwMb_3syn4expr3ArmEEB1o_, symObjAddr: 0x3230, symBinAddr: 0x8D350, symSize: 0x20 }
  - { offset: 0x106053, size: 0x8, addend: 0x0, symName: __RINvNtCsieiGu2EXtoJ_4core3ptr13drop_in_placeINtNtCslJiobkLta79_5alloc7raw_vec6RawVecNtNtCsdGrGZaRBwMb_3syn4expr6ExprIfEEB1o_, symObjAddr: 0x3250, symBinAddr: 0x8D370, symSize: 0x20 }
  - { offset: 0x106082, size: 0x8, addend: 0x0, symName: __RINvNtCsieiGu2EXtoJ_4core3ptr13drop_in_placeINtNtCslJiobkLta79_5alloc7raw_vec6RawVecNtNtCsdGrGZaRBwMb_3syn4item11ForeignItemEEB1o_, symObjAddr: 0x3270, symBinAddr: 0x8D390, symSize: 0x20 }
  - { offset: 0x1060B1, size: 0x8, addend: 0x0, symName: __RINvNtCsieiGu2EXtoJ_4core3ptr13drop_in_placeINtNtCslJiobkLta79_5alloc7raw_vec6RawVecNtNtCsdGrGZaRBwMb_3syn4item4ItemEEB1o_, symObjAddr: 0x3290, symBinAddr: 0x8D3B0, symSize: 0x20 }
  - { offset: 0x1060E0, size: 0x8, addend: 0x0, symName: __RINvNtCsieiGu2EXtoJ_4core3ptr13drop_in_placeINtNtCslJiobkLta79_5alloc7raw_vec6RawVecNtNtCsdGrGZaRBwMb_3syn4item8ImplItemEEB1o_, symObjAddr: 0x32B0, symBinAddr: 0x8D3D0, symSize: 0x20 }
  - { offset: 0x10610F, size: 0x8, addend: 0x0, symName: __RINvNtCsieiGu2EXtoJ_4core3ptr13drop_in_placeINtNtCslJiobkLta79_5alloc7raw_vec6RawVecNtNtCsdGrGZaRBwMb_3syn4item9TraitItemEEB1o_, symObjAddr: 0x32D0, symBinAddr: 0x8D3F0, symSize: 0x20 }
  - { offset: 0x10613E, size: 0x8, addend: 0x0, symName: __RINvNtCsieiGu2EXtoJ_4core3ptr13drop_in_placeINtNtCslJiobkLta79_5alloc7raw_vec6RawVecNtNtCsdGrGZaRBwMb_3syn4stmt4StmtEEB1o_, symObjAddr: 0x32F0, symBinAddr: 0x8D410, symSize: 0x20 }
  - { offset: 0x10616D, size: 0x8, addend: 0x0, symName: __RINvNtCsieiGu2EXtoJ_4core3ptr13drop_in_placeINtNtCslJiobkLta79_5alloc7raw_vec6RawVecNtNtCsdGrGZaRBwMb_3syn5error12ErrorMessageEEB1o_, symObjAddr: 0x3310, symBinAddr: 0x8D430, symSize: 0x20 }
  - { offset: 0x10619C, size: 0x8, addend: 0x0, symName: __RINvNtCsieiGu2EXtoJ_4core3ptr13drop_in_placeINtNtCslJiobkLta79_5alloc7raw_vec6RawVecNtNtCsdGrGZaRBwMb_3syn6buffer5EntryEEB1o_, symObjAddr: 0x3330, symBinAddr: 0x8D450, symSize: 0x20 }
  - { offset: 0x1061CB, size: 0x8, addend: 0x0, symName: __RINvNtCsieiGu2EXtoJ_4core3ptr13drop_in_placeINtNtCslJiobkLta79_5alloc7raw_vec6RawVecNtNtCsdGrGZaRBwMb_3syn8generics14TypeParamBoundEEB1o_, symObjAddr: 0x3350, symBinAddr: 0x8D470, symSize: 0x20 }
  - { offset: 0x1061FA, size: 0x8, addend: 0x0, symName: __RINvNtCsieiGu2EXtoJ_4core3ptr13drop_in_placeINtNtCslJiobkLta79_5alloc7raw_vec6RawVecReEECsdGrGZaRBwMb_3syn, symObjAddr: 0x3370, symBinAddr: 0x8D490, symSize: 0x20 }
  - { offset: 0x106229, size: 0x8, addend: 0x0, symName: __RINvNtCsieiGu2EXtoJ_4core3ptr13drop_in_placeINtNtCslJiobkLta79_5alloc7raw_vec6RawVecTNtNtCsdGrGZaRBwMb_3syn2ty4TypeNtNtB1p_5token5CommaEEEB1p_, symObjAddr: 0x3390, symBinAddr: 0x8D4B0, symSize: 0x20 }
  - { offset: 0x106258, size: 0x8, addend: 0x0, symName: __RINvNtCsieiGu2EXtoJ_4core3ptr13drop_in_placeINtNtCslJiobkLta79_5alloc7raw_vec6RawVecTNtNtCsdGrGZaRBwMb_3syn2ty9BareFnArgNtNtB1p_5token5CommaEEEB1p_, symObjAddr: 0x33B0, symBinAddr: 0x8D4D0, symSize: 0x20 }
  - { offset: 0x106287, size: 0x8, addend: 0x0, symName: __RINvNtCsieiGu2EXtoJ_4core3ptr13drop_in_placeINtNtCslJiobkLta79_5alloc7raw_vec6RawVecTNtNtCsdGrGZaRBwMb_3syn3pat3PatNtNtB1p_5token2OrEEEB1p_, symObjAddr: 0x33D0, symBinAddr: 0x8D4F0, symSize: 0x20 }
  - { offset: 0x1062B6, size: 0x8, addend: 0x0, symName: __RINvNtCsieiGu2EXtoJ_4core3ptr13drop_in_placeINtNtCslJiobkLta79_5alloc7raw_vec6RawVecTNtNtCsdGrGZaRBwMb_3syn3pat3PatNtNtB1p_5token5CommaEEEB1p_, symObjAddr: 0x33F0, symBinAddr: 0x8D510, symSize: 0x20 }
  - { offset: 0x1062E5, size: 0x8, addend: 0x0, symName: __RINvNtCsieiGu2EXtoJ_4core3ptr13drop_in_placeINtNtCslJiobkLta79_5alloc7raw_vec6RawVecTNtNtCsdGrGZaRBwMb_3syn3pat8FieldPatNtNtB1p_5token5CommaEEEB1p_, symObjAddr: 0x3410, symBinAddr: 0x8D530, symSize: 0x20 }
  - { offset: 0x106314, size: 0x8, addend: 0x0, symName: __RINvNtCsieiGu2EXtoJ_4core3ptr13drop_in_placeINtNtCslJiobkLta79_5alloc7raw_vec6RawVecTNtNtCsdGrGZaRBwMb_3syn4data5FieldNtNtB1p_5token5CommaEEEB1p_, symObjAddr: 0x3430, symBinAddr: 0x8D550, symSize: 0x20 }
  - { offset: 0x106343, size: 0x8, addend: 0x0, symName: __RINvNtCsieiGu2EXtoJ_4core3ptr13drop_in_placeINtNtCslJiobkLta79_5alloc7raw_vec6RawVecTNtNtCsdGrGZaRBwMb_3syn4data7VariantNtNtB1p_5token5CommaEEEB1p_, symObjAddr: 0x3470, symBinAddr: 0x8D570, symSize: 0x20 }
  - { offset: 0x106372, size: 0x8, addend: 0x0, symName: __RINvNtCsieiGu2EXtoJ_4core3ptr13drop_in_placeINtNtCslJiobkLta79_5alloc7raw_vec6RawVecTNtNtCsdGrGZaRBwMb_3syn4expr10FieldValueNtNtB1p_5token5CommaEEEB1p_, symObjAddr: 0x3490, symBinAddr: 0x8D590, symSize: 0x20 }
  - { offset: 0x1063A1, size: 0x8, addend: 0x0, symName: __RINvNtCsieiGu2EXtoJ_4core3ptr13drop_in_placeINtNtCslJiobkLta79_5alloc7raw_vec6RawVecTNtNtCsdGrGZaRBwMb_3syn4expr4ExprNtNtB1p_5token5CommaEEEB1p_, symObjAddr: 0x34B0, symBinAddr: 0x8D5B0, symSize: 0x20 }
  - { offset: 0x1063D0, size: 0x8, addend: 0x0, symName: __RINvNtCsieiGu2EXtoJ_4core3ptr13drop_in_placeINtNtCslJiobkLta79_5alloc7raw_vec6RawVecTNtNtCsdGrGZaRBwMb_3syn4item5FnArgNtNtB1p_5token5CommaEEEB1p_, symObjAddr: 0x34D0, symBinAddr: 0x8D5D0, symSize: 0x20 }
  - { offset: 0x1063FF, size: 0x8, addend: 0x0, symName: __RINvNtCsieiGu2EXtoJ_4core3ptr13drop_in_placeINtNtCslJiobkLta79_5alloc7raw_vec6RawVecTNtNtCsdGrGZaRBwMb_3syn4item7UseTreeNtNtB1p_5token5CommaEEEB1p_, symObjAddr: 0x34F0, symBinAddr: 0x8D5F0, symSize: 0x20 }
  - { offset: 0x10642E, size: 0x8, addend: 0x0, symName: __RINvNtCsieiGu2EXtoJ_4core3ptr13drop_in_placeINtNtCslJiobkLta79_5alloc7raw_vec6RawVecTNtNtCsdGrGZaRBwMb_3syn4path11PathSegmentNtNtB1p_5token7PathSepEEEB1p_, symObjAddr: 0x3510, symBinAddr: 0x8D610, symSize: 0x20 }
  - { offset: 0x10645D, size: 0x8, addend: 0x0, symName: __RINvNtCsieiGu2EXtoJ_4core3ptr13drop_in_placeINtNtCslJiobkLta79_5alloc7raw_vec6RawVecTNtNtCsdGrGZaRBwMb_3syn4path15GenericArgumentNtNtB1p_5token5CommaEEEB1p_, symObjAddr: 0x3530, symBinAddr: 0x8D630, symSize: 0x20 }
  - { offset: 0x10648C, size: 0x8, addend: 0x0, symName: __RINvNtCsieiGu2EXtoJ_4core3ptr13drop_in_placeINtNtCslJiobkLta79_5alloc7raw_vec6RawVecTNtNtCsdGrGZaRBwMb_3syn8generics12GenericParamNtNtB1p_5token5CommaEEEB1p_, symObjAddr: 0x3550, symBinAddr: 0x8D650, symSize: 0x20 }
  - { offset: 0x1064BB, size: 0x8, addend: 0x0, symName: __RINvNtCsieiGu2EXtoJ_4core3ptr13drop_in_placeINtNtCslJiobkLta79_5alloc7raw_vec6RawVecTNtNtCsdGrGZaRBwMb_3syn8generics13CapturedParamNtNtB1p_5token5CommaEEEB1p_, symObjAddr: 0x3570, symBinAddr: 0x8D670, symSize: 0x20 }
  - { offset: 0x1064EA, size: 0x8, addend: 0x0, symName: __RINvNtCsieiGu2EXtoJ_4core3ptr13drop_in_placeINtNtCslJiobkLta79_5alloc7raw_vec6RawVecTNtNtCsdGrGZaRBwMb_3syn8generics14TypeParamBoundNtNtB1p_5token4PlusEEEB1p_, symObjAddr: 0x3590, symBinAddr: 0x8D690, symSize: 0x20 }
  - { offset: 0x106519, size: 0x8, addend: 0x0, symName: __RINvNtCsieiGu2EXtoJ_4core3ptr13drop_in_placeINtNtCslJiobkLta79_5alloc7raw_vec6RawVecTNtNtCsdGrGZaRBwMb_3syn8generics14WherePredicateNtNtB1p_5token5CommaEEEB1p_, symObjAddr: 0x35B0, symBinAddr: 0x8D6B0, symSize: 0x20 }
  - { offset: 0x106548, size: 0x8, addend: 0x0, symName: __RINvNtCsieiGu2EXtoJ_4core3ptr13drop_in_placeINtNtCslJiobkLta79_5alloc7raw_vec6RawVecTNtNtCsdGrGZaRBwMb_3syn8lifetime8LifetimeNtNtB1p_5token4PlusEEEB1p_, symObjAddr: 0x35D0, symBinAddr: 0x8D6D0, symSize: 0x20 }
  - { offset: 0x106577, size: 0x8, addend: 0x0, symName: __RINvNtCsieiGu2EXtoJ_4core3ptr13drop_in_placeINtNtNtCslJiobkLta79_5alloc3vec9into_iter8IntoIterNtNtCsdGrGZaRBwMb_3syn4attr9AttributeEEB1y_, symObjAddr: 0x35F0, symBinAddr: 0x8D6F0, symSize: 0x20 }
  - { offset: 0x1065A6, size: 0x8, addend: 0x0, symName: __RINvNtCsieiGu2EXtoJ_4core3ptr13drop_in_placeINtNtNtCslJiobkLta79_5alloc3vec9into_iter8IntoIterNtNtCsdGrGZaRBwMb_3syn8generics14TypeParamBoundEEB1y_, symObjAddr: 0x3630, symBinAddr: 0x8D710, symSize: 0x20 }
  - { offset: 0x1065D5, size: 0x8, addend: 0x0, symName: __RINvNtCsieiGu2EXtoJ_4core3ptr13drop_in_placeINtNtNtCslJiobkLta79_5alloc3vec9into_iter8IntoIterTNtNtCsdGrGZaRBwMb_3syn4path11PathSegmentNtNtB1z_5token7PathSepEEEB1z_, symObjAddr: 0x3690, symBinAddr: 0x8D730, symSize: 0x20 }
  - { offset: 0x106604, size: 0x8, addend: 0x0, symName: __RINvNtCsieiGu2EXtoJ_4core3ptr13drop_in_placeINtNtNtCslJiobkLta79_5alloc3vec9into_iter8IntoIterTNtNtCsdGrGZaRBwMb_3syn8generics14TypeParamBoundNtNtB1z_5token4PlusEEEB1z_, symObjAddr: 0x36B0, symBinAddr: 0x8D750, symSize: 0x20 }
  - { offset: 0x106633, size: 0x8, addend: 0x0, symName: __RINvNtCsieiGu2EXtoJ_4core3ptr13drop_in_placeINtNvMs_NtCslJiobkLta79_5alloc3vecINtBO_3VecppE10retain_mut15BackshiftOnDropReNtNtBQ_5alloc6GlobalEECsdGrGZaRBwMb_3syn, symObjAddr: 0x36F0, symBinAddr: 0x8D770, symSize: 0x20 }
  - { offset: 0x106662, size: 0x8, addend: 0x0, symName: __RINvNtCsieiGu2EXtoJ_4core3ptr13drop_in_placeINtNvXsd_NtNtCslJiobkLta79_5alloc3vec9into_iterINtBP_8IntoIterppENtNtNtB4_3ops4drop4Drop4drop9DropGuardNtNtCsdGrGZaRBwMb_3syn4attr9AttributeNtNtBT_5alloc6GlobalEEB2p_, symObjAddr: 0x3A50, symBinAddr: 0x8D790, symSize: 0x20 }
  - { offset: 0x106691, size: 0x8, addend: 0x0, symName: __RINvNtCsieiGu2EXtoJ_4core3ptr13drop_in_placeINtNvXsd_NtNtCslJiobkLta79_5alloc3vec9into_iterINtBP_8IntoIterppENtNtNtB4_3ops4drop4Drop4drop9DropGuardNtNtCsdGrGZaRBwMb_3syn8generics14TypeParamBoundNtNtBT_5alloc6GlobalEEB2p_, symObjAddr: 0x3A90, symBinAddr: 0x8D7B0, symSize: 0x20 }
  - { offset: 0x1066C0, size: 0x8, addend: 0x0, symName: __RINvNtCsieiGu2EXtoJ_4core3ptr13drop_in_placeINtNvXsd_NtNtCslJiobkLta79_5alloc3vec9into_iterINtBP_8IntoIterppENtNtNtB4_3ops4drop4Drop4drop9DropGuardTNtNtCsdGrGZaRBwMb_3syn4path11PathSegmentNtNtB2q_5token7PathSepENtNtBT_5alloc6GlobalEEB2q_, symObjAddr: 0x3AF0, symBinAddr: 0x8D7D0, symSize: 0x20 }
  - { offset: 0x1066EF, size: 0x8, addend: 0x0, symName: __RINvNtCsieiGu2EXtoJ_4core3ptr13drop_in_placeINtNvXsd_NtNtCslJiobkLta79_5alloc3vec9into_iterINtBP_8IntoIterppENtNtNtB4_3ops4drop4Drop4drop9DropGuardTNtNtCsdGrGZaRBwMb_3syn8generics14TypeParamBoundNtNtB2q_5token4PlusENtNtBT_5alloc6GlobalEEB2q_, symObjAddr: 0x3B10, symBinAddr: 0x8D7F0, symSize: 0x20 }
  - { offset: 0x10671E, size: 0x8, addend: 0x0, symName: __RINvNtCsieiGu2EXtoJ_4core3ptr13drop_in_placeNCNvXsp_NtNtCsdGrGZaRBwMb_3syn4item7parsingNtBQ_11TraitItemFnNtNtBS_5parse5Parse5parse0EBS_, symObjAddr: 0x3B30, symBinAddr: 0x8D810, symSize: 0x20 }
  - { offset: 0x10674D, size: 0x8, addend: 0x0, symName: __RINvNtCsieiGu2EXtoJ_4core3ptr13drop_in_placeNtNtB4_4cell12BorrowRefMutECsdGrGZaRBwMb_3syn, symObjAddr: 0x3B50, symBinAddr: 0x8D830, symSize: 0x20 }
  - { offset: 0x10677C, size: 0x8, addend: 0x0, symName: __RINvNtCsieiGu2EXtoJ_4core3ptr13drop_in_placeNtNtCsHUR1vrdMJt_3std6thread6ThreadECsdGrGZaRBwMb_3syn, symObjAddr: 0x3B70, symBinAddr: 0x8D850, symSize: 0x20 }
  - { offset: 0x1067AB, size: 0x8, addend: 0x0, symName: __RINvNtCsieiGu2EXtoJ_4core3ptr13drop_in_placeNtNtCsdGrGZaRBwMb_3syn11restriction10VisibilityEBK_, symObjAddr: 0x3B90, symBinAddr: 0x8D870, symSize: 0x40 }
  - { offset: 0x1067DA, size: 0x8, addend: 0x0, symName: __RINvNtCsieiGu2EXtoJ_4core3ptr13drop_in_placeNtNtCsdGrGZaRBwMb_3syn11restriction13VisRestrictedEBK_, symObjAddr: 0x3BD0, symBinAddr: 0x8D8B0, symSize: 0x20 }
  - { offset: 0x106809, size: 0x8, addend: 0x0, symName: __RINvNtCsieiGu2EXtoJ_4core3ptr13drop_in_placeNtNtCsdGrGZaRBwMb_3syn2ty10ReturnTypeEBK_, symObjAddr: 0x3BF0, symBinAddr: 0x8D8D0, symSize: 0x40 }
  - { offset: 0x106838, size: 0x8, addend: 0x0, symName: __RINvNtCsieiGu2EXtoJ_4core3ptr13drop_in_placeNtNtCsdGrGZaRBwMb_3syn2ty10TypeBareFnEBK_, symObjAddr: 0x3C30, symBinAddr: 0x8D910, symSize: 0xE0 }
  - { offset: 0x106867, size: 0x8, addend: 0x0, symName: __RINvNtCsieiGu2EXtoJ_4core3ptr13drop_in_placeNtNtCsdGrGZaRBwMb_3syn2ty12BareVariadicEBK_, symObjAddr: 0x3D10, symBinAddr: 0x8D9F0, symSize: 0x60 }
  - { offset: 0x106896, size: 0x8, addend: 0x0, symName: __RINvNtCsieiGu2EXtoJ_4core3ptr13drop_in_placeNtNtCsdGrGZaRBwMb_3syn2ty13TypeImplTraitEBK_, symObjAddr: 0x3D70, symBinAddr: 0x8DA50, symSize: 0x20 }
  - { offset: 0x1068C5, size: 0x8, addend: 0x0, symName: __RINvNtCsieiGu2EXtoJ_4core3ptr13drop_in_placeNtNtCsdGrGZaRBwMb_3syn2ty13TypeReferenceEBK_, symObjAddr: 0x3D90, symBinAddr: 0x8DA70, symSize: 0x60 }
  - { offset: 0x1068F4, size: 0x8, addend: 0x0, symName: __RINvNtCsieiGu2EXtoJ_4core3ptr13drop_in_placeNtNtCsdGrGZaRBwMb_3syn2ty15TypeTraitObjectEBK_, symObjAddr: 0x3DF0, symBinAddr: 0x8DAD0, symSize: 0x20 }
  - { offset: 0x106923, size: 0x8, addend: 0x0, symName: __RINvNtCsieiGu2EXtoJ_4core3ptr13drop_in_placeNtNtCsdGrGZaRBwMb_3syn2ty3AbiEBK_, symObjAddr: 0x3E10, symBinAddr: 0x8DAF0, symSize: 0x20 }
  - { offset: 0x106952, size: 0x8, addend: 0x0, symName: __RINvNtCsieiGu2EXtoJ_4core3ptr13drop_in_placeNtNtCsdGrGZaRBwMb_3syn2ty4TypeEBK_, symObjAddr: 0x3E30, symBinAddr: 0x8DB10, symSize: 0x140 }
  - { offset: 0x106981, size: 0x8, addend: 0x0, symName: __RINvNtCsieiGu2EXtoJ_4core3ptr13drop_in_placeNtNtCsdGrGZaRBwMb_3syn2ty7TypePtrEBK_, symObjAddr: 0x3F70, symBinAddr: 0x8DC50, symSize: 0x20 }
  - { offset: 0x1069B0, size: 0x8, addend: 0x0, symName: __RINvNtCsieiGu2EXtoJ_4core3ptr13drop_in_placeNtNtCsdGrGZaRBwMb_3syn2ty8TypePathEBK_, symObjAddr: 0x3F90, symBinAddr: 0x8DC70, symSize: 0x60 }
  - { offset: 0x1069DF, size: 0x8, addend: 0x0, symName: __RINvNtCsieiGu2EXtoJ_4core3ptr13drop_in_placeNtNtCsdGrGZaRBwMb_3syn2ty9BareFnArgEBK_, symObjAddr: 0x3FF0, symBinAddr: 0x8DCD0, symSize: 0x90 }
  - { offset: 0x106A0E, size: 0x8, addend: 0x0, symName: __RINvNtCsieiGu2EXtoJ_4core3ptr13drop_in_placeNtNtCsdGrGZaRBwMb_3syn2ty9TypeArrayEBK_, symObjAddr: 0x4080, symBinAddr: 0x8DD60, symSize: 0x60 }
  - { offset: 0x106A3D, size: 0x8, addend: 0x0, symName: __RINvNtCsieiGu2EXtoJ_4core3ptr13drop_in_placeNtNtCsdGrGZaRBwMb_3syn2ty9TypeGroupEBK_, symObjAddr: 0x40E0, symBinAddr: 0x8DDC0, symSize: 0x20 }
  - { offset: 0x106A6C, size: 0x8, addend: 0x0, symName: __RINvNtCsieiGu2EXtoJ_4core3ptr13drop_in_placeNtNtCsdGrGZaRBwMb_3syn2ty9TypeMacroEBK_, symObjAddr: 0x4100, symBinAddr: 0x8DDE0, symSize: 0x20 }
  - { offset: 0x106A9B, size: 0x8, addend: 0x0, symName: __RINvNtCsieiGu2EXtoJ_4core3ptr13drop_in_placeNtNtCsdGrGZaRBwMb_3syn2ty9TypeParenEBK_, symObjAddr: 0x4120, symBinAddr: 0x8DE00, symSize: 0x20 }
  - { offset: 0x106ACA, size: 0x8, addend: 0x0, symName: __RINvNtCsieiGu2EXtoJ_4core3ptr13drop_in_placeNtNtCsdGrGZaRBwMb_3syn2ty9TypeSliceEBK_, symObjAddr: 0x4140, symBinAddr: 0x8DE20, symSize: 0x20 }
  - { offset: 0x106AF9, size: 0x8, addend: 0x0, symName: __RINvNtCsieiGu2EXtoJ_4core3ptr13drop_in_placeNtNtCsdGrGZaRBwMb_3syn2ty9TypeTupleEBK_, symObjAddr: 0x4160, symBinAddr: 0x8DE40, symSize: 0x20 }
  - { offset: 0x106B28, size: 0x8, addend: 0x0, symName: __RINvNtCsieiGu2EXtoJ_4core3ptr13drop_in_placeNtNtCsdGrGZaRBwMb_3syn3lit10LitByteStrEBK_, symObjAddr: 0x4180, symBinAddr: 0x8DE60, symSize: 0x20 }
  - { offset: 0x106B57, size: 0x8, addend: 0x0, symName: __RINvNtCsieiGu2EXtoJ_4core3ptr13drop_in_placeNtNtCsdGrGZaRBwMb_3syn3lit10LitIntReprEBK_, symObjAddr: 0x41A0, symBinAddr: 0x8DE80, symSize: 0x90 }
  - { offset: 0x106B86, size: 0x8, addend: 0x0, symName: __RINvNtCsieiGu2EXtoJ_4core3ptr13drop_in_placeNtNtCsdGrGZaRBwMb_3syn3lit12LitFloatReprEBK_, symObjAddr: 0x4230, symBinAddr: 0x8DF10, symSize: 0x90 }
  - { offset: 0x106BB5, size: 0x8, addend: 0x0, symName: __RINvNtCsieiGu2EXtoJ_4core3ptr13drop_in_placeNtNtCsdGrGZaRBwMb_3syn3lit3LitEBK_, symObjAddr: 0x42C0, symBinAddr: 0x8DFA0, symSize: 0xF0 }
  - { offset: 0x106BE4, size: 0x8, addend: 0x0, symName: __RINvNtCsieiGu2EXtoJ_4core3ptr13drop_in_placeNtNtCsdGrGZaRBwMb_3syn3lit6LitIntEBK_, symObjAddr: 0x43B0, symBinAddr: 0x8E090, symSize: 0x20 }
  - { offset: 0x106C13, size: 0x8, addend: 0x0, symName: __RINvNtCsieiGu2EXtoJ_4core3ptr13drop_in_placeNtNtCsdGrGZaRBwMb_3syn3lit6LitStrEBK_, symObjAddr: 0x43D0, symBinAddr: 0x8E0B0, symSize: 0x20 }
  - { offset: 0x106C42, size: 0x8, addend: 0x0, symName: __RINvNtCsieiGu2EXtoJ_4core3ptr13drop_in_placeNtNtCsdGrGZaRBwMb_3syn3lit7LitByteEBK_, symObjAddr: 0x43F0, symBinAddr: 0x8E0D0, symSize: 0x20 }
  - { offset: 0x106C71, size: 0x8, addend: 0x0, symName: __RINvNtCsieiGu2EXtoJ_4core3ptr13drop_in_placeNtNtCsdGrGZaRBwMb_3syn3lit7LitCStrEBK_, symObjAddr: 0x4410, symBinAddr: 0x8E0F0, symSize: 0x20 }
  - { offset: 0x106CA0, size: 0x8, addend: 0x0, symName: __RINvNtCsieiGu2EXtoJ_4core3ptr13drop_in_placeNtNtCsdGrGZaRBwMb_3syn3lit7LitCharEBK_, symObjAddr: 0x4430, symBinAddr: 0x8E110, symSize: 0x20 }
  - { offset: 0x106CCF, size: 0x8, addend: 0x0, symName: __RINvNtCsieiGu2EXtoJ_4core3ptr13drop_in_placeNtNtCsdGrGZaRBwMb_3syn3lit7LitReprEBK_, symObjAddr: 0x4450, symBinAddr: 0x8E130, symSize: 0x60 }
  - { offset: 0x106CFE, size: 0x8, addend: 0x0, symName: __RINvNtCsieiGu2EXtoJ_4core3ptr13drop_in_placeNtNtCsdGrGZaRBwMb_3syn3lit8LitFloatEBK_, symObjAddr: 0x44B0, symBinAddr: 0x8E190, symSize: 0x20 }
  - { offset: 0x106D2D, size: 0x8, addend: 0x0, symName: __RINvNtCsieiGu2EXtoJ_4core3ptr13drop_in_placeNtNtCsdGrGZaRBwMb_3syn3mac5MacroEBK_, symObjAddr: 0x44D0, symBinAddr: 0x8E1B0, symSize: 0x60 }
  - { offset: 0x106D5C, size: 0x8, addend: 0x0, symName: __RINvNtCsieiGu2EXtoJ_4core3ptr13drop_in_placeNtNtCsdGrGZaRBwMb_3syn3pat12PatReferenceEBK_, symObjAddr: 0x4530, symBinAddr: 0x8E210, symSize: 0x60 }
  - { offset: 0x106D8B, size: 0x8, addend: 0x0, symName: __RINvNtCsieiGu2EXtoJ_4core3ptr13drop_in_placeNtNtCsdGrGZaRBwMb_3syn3pat14PatTupleStructEBK_, symObjAddr: 0x4590, symBinAddr: 0x8E270, symSize: 0xB0 }
  - { offset: 0x106DBA, size: 0x8, addend: 0x0, symName: __RINvNtCsieiGu2EXtoJ_4core3ptr13drop_in_placeNtNtCsdGrGZaRBwMb_3syn3pat3PatEBK_, symObjAddr: 0x4640, symBinAddr: 0x8E320, symSize: 0x1B0 }
  - { offset: 0x106DE9, size: 0x8, addend: 0x0, symName: __RINvNtCsieiGu2EXtoJ_4core3ptr13drop_in_placeNtNtCsdGrGZaRBwMb_3syn3pat5PatOrEBK_, symObjAddr: 0x47F0, symBinAddr: 0x8E4D0, symSize: 0x60 }
  - { offset: 0x106E18, size: 0x8, addend: 0x0, symName: __RINvNtCsieiGu2EXtoJ_4core3ptr13drop_in_placeNtNtCsdGrGZaRBwMb_3syn3pat7PatRestEBK_, symObjAddr: 0x4850, symBinAddr: 0x8E530, symSize: 0x20 }
  - { offset: 0x106E47, size: 0x8, addend: 0x0, symName: __RINvNtCsieiGu2EXtoJ_4core3ptr13drop_in_placeNtNtCsdGrGZaRBwMb_3syn3pat7PatTypeEBK_, symObjAddr: 0x4870, symBinAddr: 0x8E550, symSize: 0x90 }
  - { offset: 0x106E76, size: 0x8, addend: 0x0, symName: __RINvNtCsieiGu2EXtoJ_4core3ptr13drop_in_placeNtNtCsdGrGZaRBwMb_3syn3pat7PatWildEBK_, symObjAddr: 0x4900, symBinAddr: 0x8E5E0, symSize: 0x20 }
  - { offset: 0x106EA5, size: 0x8, addend: 0x0, symName: __RINvNtCsieiGu2EXtoJ_4core3ptr13drop_in_placeNtNtCsdGrGZaRBwMb_3syn3pat8FieldPatEBK_, symObjAddr: 0x4920, symBinAddr: 0x8E600, symSize: 0x90 }
  - { offset: 0x106ED4, size: 0x8, addend: 0x0, symName: __RINvNtCsieiGu2EXtoJ_4core3ptr13drop_in_placeNtNtCsdGrGZaRBwMb_3syn3pat8PatIdentEBK_, symObjAddr: 0x49B0, symBinAddr: 0x8E690, symSize: 0x90 }
  - { offset: 0x106F03, size: 0x8, addend: 0x0, symName: __RINvNtCsieiGu2EXtoJ_4core3ptr13drop_in_placeNtNtCsdGrGZaRBwMb_3syn3pat8PatParenEBK_, symObjAddr: 0x4A40, symBinAddr: 0x8E720, symSize: 0x60 }
  - { offset: 0x106F32, size: 0x8, addend: 0x0, symName: __RINvNtCsieiGu2EXtoJ_4core3ptr13drop_in_placeNtNtCsdGrGZaRBwMb_3syn3pat8PatSliceEBK_, symObjAddr: 0x4AA0, symBinAddr: 0x8E780, symSize: 0x60 }
  - { offset: 0x106F61, size: 0x8, addend: 0x0, symName: __RINvNtCsieiGu2EXtoJ_4core3ptr13drop_in_placeNtNtCsdGrGZaRBwMb_3syn3pat8PatTupleEBK_, symObjAddr: 0x4B00, symBinAddr: 0x8E7E0, symSize: 0x60 }
  - { offset: 0x106F90, size: 0x8, addend: 0x0, symName: __RINvNtCsieiGu2EXtoJ_4core3ptr13drop_in_placeNtNtCsdGrGZaRBwMb_3syn3pat9PatStructEBK_, symObjAddr: 0x4B60, symBinAddr: 0x8E840, symSize: 0xE0 }
  - { offset: 0x106FBF, size: 0x8, addend: 0x0, symName: __RINvNtCsieiGu2EXtoJ_4core3ptr13drop_in_placeNtNtCsdGrGZaRBwMb_3syn4attr13MetaNameValueEBK_, symObjAddr: 0x4C40, symBinAddr: 0x8E920, symSize: 0x60 }
  - { offset: 0x106FEE, size: 0x8, addend: 0x0, symName: __RINvNtCsieiGu2EXtoJ_4core3ptr13drop_in_placeNtNtCsdGrGZaRBwMb_3syn4attr4MetaEBK_, symObjAddr: 0x4CA0, symBinAddr: 0x8E980, symSize: 0x70 }
  - { offset: 0x10701D, size: 0x8, addend: 0x0, symName: __RINvNtCsieiGu2EXtoJ_4core3ptr13drop_in_placeNtNtCsdGrGZaRBwMb_3syn4attr8MetaListEBK_, symObjAddr: 0x4D10, symBinAddr: 0x8E9F0, symSize: 0x60 }
  - { offset: 0x10704C, size: 0x8, addend: 0x0, symName: __RINvNtCsieiGu2EXtoJ_4core3ptr13drop_in_placeNtNtCsdGrGZaRBwMb_3syn4attr9AttributeEBK_, symObjAddr: 0x4D70, symBinAddr: 0x8EA50, symSize: 0x20 }
  - { offset: 0x10707B, size: 0x8, addend: 0x0, symName: __RINvNtCsieiGu2EXtoJ_4core3ptr13drop_in_placeNtNtCsdGrGZaRBwMb_3syn4data11FieldsNamedEBK_, symObjAddr: 0x4D90, symBinAddr: 0x8EA70, symSize: 0x20 }
  - { offset: 0x1070AA, size: 0x8, addend: 0x0, symName: __RINvNtCsieiGu2EXtoJ_4core3ptr13drop_in_placeNtNtCsdGrGZaRBwMb_3syn4data13FieldsUnnamedEBK_, symObjAddr: 0x4DB0, symBinAddr: 0x8EA90, symSize: 0x20 }
  - { offset: 0x1070D9, size: 0x8, addend: 0x0, symName: __RINvNtCsieiGu2EXtoJ_4core3ptr13drop_in_placeNtNtCsdGrGZaRBwMb_3syn4data5FieldEBK_, symObjAddr: 0x4DD0, symBinAddr: 0x8EAB0, symSize: 0xC0 }
  - { offset: 0x107108, size: 0x8, addend: 0x0, symName: __RINvNtCsieiGu2EXtoJ_4core3ptr13drop_in_placeNtNtCsdGrGZaRBwMb_3syn4data6FieldsEBK_, symObjAddr: 0x4E90, symBinAddr: 0x8EB70, symSize: 0x50 }
  - { offset: 0x107137, size: 0x8, addend: 0x0, symName: __RINvNtCsieiGu2EXtoJ_4core3ptr13drop_in_placeNtNtCsdGrGZaRBwMb_3syn4data7VariantEBK_, symObjAddr: 0x4EE0, symBinAddr: 0x8EBC0, symSize: 0xC0 }
  - { offset: 0x107166, size: 0x8, addend: 0x0, symName: __RINvNtCsieiGu2EXtoJ_4core3ptr13drop_in_placeNtNtCsdGrGZaRBwMb_3syn4expr10ExprAssignEBK_, symObjAddr: 0x4FA0, symBinAddr: 0x8EC80, symSize: 0x90 }
  - { offset: 0x107195, size: 0x8, addend: 0x0, symName: __RINvNtCsieiGu2EXtoJ_4core3ptr13drop_in_placeNtNtCsdGrGZaRBwMb_3syn4expr10ExprBinaryEBK_, symObjAddr: 0x5030, symBinAddr: 0x8ED10, symSize: 0x90 }
  - { offset: 0x1071C4, size: 0x8, addend: 0x0, symName: __RINvNtCsieiGu2EXtoJ_4core3ptr13drop_in_placeNtNtCsdGrGZaRBwMb_3syn4expr10ExprRepeatEBK_, symObjAddr: 0x50C0, symBinAddr: 0x8EDA0, symSize: 0x90 }
  - { offset: 0x1071F3, size: 0x8, addend: 0x0, symName: __RINvNtCsieiGu2EXtoJ_4core3ptr13drop_in_placeNtNtCsdGrGZaRBwMb_3syn4expr10ExprReturnEBK_, symObjAddr: 0x5150, symBinAddr: 0x8EE30, symSize: 0x60 }
  - { offset: 0x107222, size: 0x8, addend: 0x0, symName: __RINvNtCsieiGu2EXtoJ_4core3ptr13drop_in_placeNtNtCsdGrGZaRBwMb_3syn4expr10ExprStructEBK_, symObjAddr: 0x51B0, symBinAddr: 0x8EE90, symSize: 0xE0 }
  - { offset: 0x107251, size: 0x8, addend: 0x0, symName: __RINvNtCsieiGu2EXtoJ_4core3ptr13drop_in_placeNtNtCsdGrGZaRBwMb_3syn4expr10ExprUnsafeEBK_, symObjAddr: 0x5290, symBinAddr: 0x8EF70, symSize: 0x60 }
  - { offset: 0x107280, size: 0x8, addend: 0x0, symName: __RINvNtCsieiGu2EXtoJ_4core3ptr13drop_in_placeNtNtCsdGrGZaRBwMb_3syn4expr10FieldValueEBK_, symObjAddr: 0x52F0, symBinAddr: 0x8EFD0, symSize: 0x90 }
  - { offset: 0x1072AF, size: 0x8, addend: 0x0, symName: __RINvNtCsieiGu2EXtoJ_4core3ptr13drop_in_placeNtNtCsdGrGZaRBwMb_3syn4expr11ExprClosureEBK_, symObjAddr: 0x5380, symBinAddr: 0x8F060, symSize: 0xF0 }
  - { offset: 0x1072DE, size: 0x8, addend: 0x0, symName: __RINvNtCsieiGu2EXtoJ_4core3ptr13drop_in_placeNtNtCsdGrGZaRBwMb_3syn4expr11ExprForLoopEBK_, symObjAddr: 0x5470, symBinAddr: 0x8F150, symSize: 0xE0 }
  - { offset: 0x10730D, size: 0x8, addend: 0x0, symName: __RINvNtCsieiGu2EXtoJ_4core3ptr13drop_in_placeNtNtCsdGrGZaRBwMb_3syn4expr11ExprRawAddrEBK_, symObjAddr: 0x5550, symBinAddr: 0x8F230, symSize: 0x60 }
  - { offset: 0x10733C, size: 0x8, addend: 0x0, symName: __RINvNtCsieiGu2EXtoJ_4core3ptr13drop_in_placeNtNtCsdGrGZaRBwMb_3syn4expr12ExprContinueEBK_, symObjAddr: 0x55B0, symBinAddr: 0x8F290, symSize: 0x60 }
  - { offset: 0x10736B, size: 0x8, addend: 0x0, symName: __RINvNtCsieiGu2EXtoJ_4core3ptr13drop_in_placeNtNtCsdGrGZaRBwMb_3syn4expr12ExprTryBlockEBK_, symObjAddr: 0x5610, symBinAddr: 0x8F2F0, symSize: 0x60 }
  - { offset: 0x10739A, size: 0x8, addend: 0x0, symName: __RINvNtCsieiGu2EXtoJ_4core3ptr13drop_in_placeNtNtCsdGrGZaRBwMb_3syn4expr13ExprReferenceEBK_, symObjAddr: 0x5670, symBinAddr: 0x8F350, symSize: 0x60 }
  - { offset: 0x1073C9, size: 0x8, addend: 0x0, symName: __RINvNtCsieiGu2EXtoJ_4core3ptr13drop_in_placeNtNtCsdGrGZaRBwMb_3syn4expr14ExprMethodCallEBK_, symObjAddr: 0x56D0, symBinAddr: 0x8F3B0, symSize: 0xE0 }
  - { offset: 0x1073F8, size: 0x8, addend: 0x0, symName: __RINvNtCsieiGu2EXtoJ_4core3ptr13drop_in_placeNtNtCsdGrGZaRBwMb_3syn4expr3ArmEBK_, symObjAddr: 0x57B0, symBinAddr: 0x8F490, symSize: 0xC0 }
  - { offset: 0x107427, size: 0x8, addend: 0x0, symName: __RINvNtCsieiGu2EXtoJ_4core3ptr13drop_in_placeNtNtCsdGrGZaRBwMb_3syn4expr4ExprEBK_, symObjAddr: 0x5870, symBinAddr: 0x8F550, symSize: 0x390 }
  - { offset: 0x107456, size: 0x8, addend: 0x0, symName: __RINvNtCsieiGu2EXtoJ_4core3ptr13drop_in_placeNtNtCsdGrGZaRBwMb_3syn4expr5LabelEBK_, symObjAddr: 0x5C00, symBinAddr: 0x8F8E0, symSize: 0x20 }
  - { offset: 0x107485, size: 0x8, addend: 0x0, symName: __RINvNtCsieiGu2EXtoJ_4core3ptr13drop_in_placeNtNtCsdGrGZaRBwMb_3syn4expr6ExprIfEBK_, symObjAddr: 0x5C20, symBinAddr: 0x8F900, symSize: 0xB0 }
  - { offset: 0x1074B4, size: 0x8, addend: 0x0, symName: __RINvNtCsieiGu2EXtoJ_4core3ptr13drop_in_placeNtNtCsdGrGZaRBwMb_3syn4expr6MemberEBK_, symObjAddr: 0x5CD0, symBinAddr: 0x8F9B0, symSize: 0x40 }
  - { offset: 0x1074E3, size: 0x8, addend: 0x0, symName: __RINvNtCsieiGu2EXtoJ_4core3ptr13drop_in_placeNtNtCsdGrGZaRBwMb_3syn4expr7ExprLetEBK_, symObjAddr: 0x5D10, symBinAddr: 0x8F9F0, symSize: 0x90 }
  - { offset: 0x107512, size: 0x8, addend: 0x0, symName: __RINvNtCsieiGu2EXtoJ_4core3ptr13drop_in_placeNtNtCsdGrGZaRBwMb_3syn4expr7ExprLitEBK_, symObjAddr: 0x5DA0, symBinAddr: 0x8FA80, symSize: 0x60 }
  - { offset: 0x107541, size: 0x8, addend: 0x0, symName: __RINvNtCsieiGu2EXtoJ_4core3ptr13drop_in_placeNtNtCsdGrGZaRBwMb_3syn4expr7ExprTryEBK_, symObjAddr: 0x5E00, symBinAddr: 0x8FAE0, symSize: 0x60 }
  - { offset: 0x107570, size: 0x8, addend: 0x0, symName: __RINvNtCsieiGu2EXtoJ_4core3ptr13drop_in_placeNtNtCsdGrGZaRBwMb_3syn4expr8ExprCallEBK_, symObjAddr: 0x5E60, symBinAddr: 0x8FB40, symSize: 0x90 }
  - { offset: 0x10759F, size: 0x8, addend: 0x0, symName: __RINvNtCsieiGu2EXtoJ_4core3ptr13drop_in_placeNtNtCsdGrGZaRBwMb_3syn4expr8ExprCastEBK_, symObjAddr: 0x5EF0, symBinAddr: 0x8FBD0, symSize: 0x90 }
  - { offset: 0x1075CE, size: 0x8, addend: 0x0, symName: __RINvNtCsieiGu2EXtoJ_4core3ptr13drop_in_placeNtNtCsdGrGZaRBwMb_3syn4expr8ExprLoopEBK_, symObjAddr: 0x5F80, symBinAddr: 0x8FC60, symSize: 0x90 }
  - { offset: 0x1075FD, size: 0x8, addend: 0x0, symName: __RINvNtCsieiGu2EXtoJ_4core3ptr13drop_in_placeNtNtCsdGrGZaRBwMb_3syn4expr8ExprPathEBK_, symObjAddr: 0x6010, symBinAddr: 0x8FCF0, symSize: 0x90 }
  - { offset: 0x10762C, size: 0x8, addend: 0x0, symName: __RINvNtCsieiGu2EXtoJ_4core3ptr13drop_in_placeNtNtCsdGrGZaRBwMb_3syn4expr9ExprArrayEBK_, symObjAddr: 0x60A0, symBinAddr: 0x8FD80, symSize: 0x60 }
  - { offset: 0x10765B, size: 0x8, addend: 0x0, symName: __RINvNtCsieiGu2EXtoJ_4core3ptr13drop_in_placeNtNtCsdGrGZaRBwMb_3syn4expr9ExprAsyncEBK_, symObjAddr: 0x6100, symBinAddr: 0x8FDE0, symSize: 0x60 }
  - { offset: 0x10768A, size: 0x8, addend: 0x0, symName: __RINvNtCsieiGu2EXtoJ_4core3ptr13drop_in_placeNtNtCsdGrGZaRBwMb_3syn4expr9ExprAwaitEBK_, symObjAddr: 0x6160, symBinAddr: 0x8FE40, symSize: 0x60 }
  - { offset: 0x1076B9, size: 0x8, addend: 0x0, symName: __RINvNtCsieiGu2EXtoJ_4core3ptr13drop_in_placeNtNtCsdGrGZaRBwMb_3syn4expr9ExprBlockEBK_, symObjAddr: 0x61C0, symBinAddr: 0x8FEA0, symSize: 0x90 }
  - { offset: 0x1076E8, size: 0x8, addend: 0x0, symName: __RINvNtCsieiGu2EXtoJ_4core3ptr13drop_in_placeNtNtCsdGrGZaRBwMb_3syn4expr9ExprBreakEBK_, symObjAddr: 0x6250, symBinAddr: 0x8FF30, symSize: 0x90 }
  - { offset: 0x107717, size: 0x8, addend: 0x0, symName: __RINvNtCsieiGu2EXtoJ_4core3ptr13drop_in_placeNtNtCsdGrGZaRBwMb_3syn4expr9ExprConstEBK_, symObjAddr: 0x62E0, symBinAddr: 0x8FFC0, symSize: 0x60 }
  - { offset: 0x107746, size: 0x8, addend: 0x0, symName: __RINvNtCsieiGu2EXtoJ_4core3ptr13drop_in_placeNtNtCsdGrGZaRBwMb_3syn4expr9ExprFieldEBK_, symObjAddr: 0x6340, symBinAddr: 0x90020, symSize: 0x90 }
  - { offset: 0x107775, size: 0x8, addend: 0x0, symName: __RINvNtCsieiGu2EXtoJ_4core3ptr13drop_in_placeNtNtCsdGrGZaRBwMb_3syn4expr9ExprGroupEBK_, symObjAddr: 0x63D0, symBinAddr: 0x900B0, symSize: 0x60 }
  - { offset: 0x1077A4, size: 0x8, addend: 0x0, symName: __RINvNtCsieiGu2EXtoJ_4core3ptr13drop_in_placeNtNtCsdGrGZaRBwMb_3syn4expr9ExprIndexEBK_, symObjAddr: 0x6430, symBinAddr: 0x90110, symSize: 0x90 }
  - { offset: 0x1077D3, size: 0x8, addend: 0x0, symName: __RINvNtCsieiGu2EXtoJ_4core3ptr13drop_in_placeNtNtCsdGrGZaRBwMb_3syn4expr9ExprInferEBK_, symObjAddr: 0x64C0, symBinAddr: 0x901A0, symSize: 0x20 }
  - { offset: 0x107802, size: 0x8, addend: 0x0, symName: __RINvNtCsieiGu2EXtoJ_4core3ptr13drop_in_placeNtNtCsdGrGZaRBwMb_3syn4expr9ExprMacroEBK_, symObjAddr: 0x64E0, symBinAddr: 0x901C0, symSize: 0x60 }
  - { offset: 0x107831, size: 0x8, addend: 0x0, symName: __RINvNtCsieiGu2EXtoJ_4core3ptr13drop_in_placeNtNtCsdGrGZaRBwMb_3syn4expr9ExprMatchEBK_, symObjAddr: 0x6540, symBinAddr: 0x90220, symSize: 0x90 }
  - { offset: 0x107860, size: 0x8, addend: 0x0, symName: __RINvNtCsieiGu2EXtoJ_4core3ptr13drop_in_placeNtNtCsdGrGZaRBwMb_3syn4expr9ExprParenEBK_, symObjAddr: 0x65D0, symBinAddr: 0x902B0, symSize: 0x60 }
  - { offset: 0x10788F, size: 0x8, addend: 0x0, symName: __RINvNtCsieiGu2EXtoJ_4core3ptr13drop_in_placeNtNtCsdGrGZaRBwMb_3syn4expr9ExprRangeEBK_, symObjAddr: 0x6630, symBinAddr: 0x90310, symSize: 0x90 }
  - { offset: 0x1078BE, size: 0x8, addend: 0x0, symName: __RINvNtCsieiGu2EXtoJ_4core3ptr13drop_in_placeNtNtCsdGrGZaRBwMb_3syn4expr9ExprTupleEBK_, symObjAddr: 0x66C0, symBinAddr: 0x903A0, symSize: 0x60 }
  - { offset: 0x1078ED, size: 0x8, addend: 0x0, symName: __RINvNtCsieiGu2EXtoJ_4core3ptr13drop_in_placeNtNtCsdGrGZaRBwMb_3syn4expr9ExprUnaryEBK_, symObjAddr: 0x6720, symBinAddr: 0x90400, symSize: 0x60 }
  - { offset: 0x10791C, size: 0x8, addend: 0x0, symName: __RINvNtCsieiGu2EXtoJ_4core3ptr13drop_in_placeNtNtCsdGrGZaRBwMb_3syn4expr9ExprWhileEBK_, symObjAddr: 0x6780, symBinAddr: 0x90460, symSize: 0xB0 }
  - { offset: 0x10794B, size: 0x8, addend: 0x0, symName: __RINvNtCsieiGu2EXtoJ_4core3ptr13drop_in_placeNtNtCsdGrGZaRBwMb_3syn4expr9ExprYieldEBK_, symObjAddr: 0x6830, symBinAddr: 0x90510, symSize: 0x60 }
  - { offset: 0x10797A, size: 0x8, addend: 0x0, symName: __RINvNtCsieiGu2EXtoJ_4core3ptr13drop_in_placeNtNtCsdGrGZaRBwMb_3syn4item10ImplItemFnEBK_, symObjAddr: 0x6910, symBinAddr: 0x90570, symSize: 0xC0 }
  - { offset: 0x1079A9, size: 0x8, addend: 0x0, symName: __RINvNtCsieiGu2EXtoJ_4core3ptr13drop_in_placeNtNtCsdGrGZaRBwMb_3syn4item10ItemStaticEBK_, symObjAddr: 0x69D0, symBinAddr: 0x90630, symSize: 0xE0 }
  - { offset: 0x1079D8, size: 0x8, addend: 0x0, symName: __RINvNtCsieiGu2EXtoJ_4core3ptr13drop_in_placeNtNtCsdGrGZaRBwMb_3syn4item10ItemStructEBK_, symObjAddr: 0x6AB0, symBinAddr: 0x90710, symSize: 0xF0 }
  - { offset: 0x107A07, size: 0x8, addend: 0x0, symName: __RINvNtCsieiGu2EXtoJ_4core3ptr13drop_in_placeNtNtCsdGrGZaRBwMb_3syn4item11ForeignItemEBK_, symObjAddr: 0x6BA0, symBinAddr: 0x90800, symSize: 0xA0 }
  - { offset: 0x107A36, size: 0x8, addend: 0x0, symName: __RINvNtCsieiGu2EXtoJ_4core3ptr13drop_in_placeNtNtCsdGrGZaRBwMb_3syn4item11TraitItemFnEBK_, symObjAddr: 0x6C40, symBinAddr: 0x908A0, symSize: 0x90 }
  - { offset: 0x107A65, size: 0x8, addend: 0x0, symName: __RINvNtCsieiGu2EXtoJ_4core3ptr13drop_in_placeNtNtCsdGrGZaRBwMb_3syn4item12ImplItemTypeEBK_, symObjAddr: 0x6CD0, symBinAddr: 0x90930, symSize: 0xF0 }
  - { offset: 0x107A94, size: 0x8, addend: 0x0, symName: __RINvNtCsieiGu2EXtoJ_4core3ptr13drop_in_placeNtNtCsdGrGZaRBwMb_3syn4item13ForeignItemFnEBK_, symObjAddr: 0x6DC0, symBinAddr: 0x90A20, symSize: 0x90 }
  - { offset: 0x107AC3, size: 0x8, addend: 0x0, symName: __RINvNtCsieiGu2EXtoJ_4core3ptr13drop_in_placeNtNtCsdGrGZaRBwMb_3syn4item13ImplItemConstEBK_, symObjAddr: 0x6E50, symBinAddr: 0x90AB0, symSize: 0x120 }
  - { offset: 0x107AF2, size: 0x8, addend: 0x0, symName: __RINvNtCsieiGu2EXtoJ_4core3ptr13drop_in_placeNtNtCsdGrGZaRBwMb_3syn4item13ImplItemMacroEBK_, symObjAddr: 0x6F70, symBinAddr: 0x90BD0, symSize: 0x60 }
  - { offset: 0x107B21, size: 0x8, addend: 0x0, symName: __RINvNtCsieiGu2EXtoJ_4core3ptr13drop_in_placeNtNtCsdGrGZaRBwMb_3syn4item13TraitItemTypeEBK_, symObjAddr: 0x6FD0, symBinAddr: 0x90C30, symSize: 0xF0 }
  - { offset: 0x107B50, size: 0x8, addend: 0x0, symName: __RINvNtCsieiGu2EXtoJ_4core3ptr13drop_in_placeNtNtCsdGrGZaRBwMb_3syn4item14ItemForeignModEBK_, symObjAddr: 0x70C0, symBinAddr: 0x90D20, symSize: 0x90 }
  - { offset: 0x107B7F, size: 0x8, addend: 0x0, symName: __RINvNtCsieiGu2EXtoJ_4core3ptr13drop_in_placeNtNtCsdGrGZaRBwMb_3syn4item14ItemTraitAliasEBK_, symObjAddr: 0x7150, symBinAddr: 0x90DB0, symSize: 0xF0 }
  - { offset: 0x107BAE, size: 0x8, addend: 0x0, symName: __RINvNtCsieiGu2EXtoJ_4core3ptr13drop_in_placeNtNtCsdGrGZaRBwMb_3syn4item14TraitItemConstEBK_, symObjAddr: 0x7240, symBinAddr: 0x90EA0, symSize: 0xF0 }
  - { offset: 0x107BDD, size: 0x8, addend: 0x0, symName: __RINvNtCsieiGu2EXtoJ_4core3ptr13drop_in_placeNtNtCsdGrGZaRBwMb_3syn4item14TraitItemMacroEBK_, symObjAddr: 0x7330, symBinAddr: 0x90F90, symSize: 0x60 }
  - { offset: 0x107C0C, size: 0x8, addend: 0x0, symName: __RINvNtCsieiGu2EXtoJ_4core3ptr13drop_in_placeNtNtCsdGrGZaRBwMb_3syn4item15ForeignItemTypeEBK_, symObjAddr: 0x7390, symBinAddr: 0x90FF0, symSize: 0xC0 }
  - { offset: 0x107C3B, size: 0x8, addend: 0x0, symName: __RINvNtCsieiGu2EXtoJ_4core3ptr13drop_in_placeNtNtCsdGrGZaRBwMb_3syn4item15ItemExternCrateEBK_, symObjAddr: 0x7450, symBinAddr: 0x910B0, symSize: 0xB0 }
  - { offset: 0x107C6A, size: 0x8, addend: 0x0, symName: __RINvNtCsieiGu2EXtoJ_4core3ptr13drop_in_placeNtNtCsdGrGZaRBwMb_3syn4item16ForeignItemMacroEBK_, symObjAddr: 0x7500, symBinAddr: 0x91160, symSize: 0x60 }
  - { offset: 0x107C99, size: 0x8, addend: 0x0, symName: __RINvNtCsieiGu2EXtoJ_4core3ptr13drop_in_placeNtNtCsdGrGZaRBwMb_3syn4item17ForeignItemStaticEBK_, symObjAddr: 0x7560, symBinAddr: 0x911C0, symSize: 0xB0 }
  - { offset: 0x107CC8, size: 0x8, addend: 0x0, symName: __RINvNtCsieiGu2EXtoJ_4core3ptr13drop_in_placeNtNtCsdGrGZaRBwMb_3syn4item4ItemEBK_, symObjAddr: 0x7610, symBinAddr: 0x91270, symSize: 0x190 }
  - { offset: 0x107CF7, size: 0x8, addend: 0x0, symName: __RINvNtCsieiGu2EXtoJ_4core3ptr13drop_in_placeNtNtCsdGrGZaRBwMb_3syn4item5FnArgEBK_, symObjAddr: 0x77A0, symBinAddr: 0x91400, symSize: 0x50 }
  - { offset: 0x107D26, size: 0x8, addend: 0x0, symName: __RINvNtCsieiGu2EXtoJ_4core3ptr13drop_in_placeNtNtCsdGrGZaRBwMb_3syn4item6ItemFnEBK_, symObjAddr: 0x77F0, symBinAddr: 0x91450, symSize: 0xC0 }
  - { offset: 0x107D55, size: 0x8, addend: 0x0, symName: __RINvNtCsieiGu2EXtoJ_4core3ptr13drop_in_placeNtNtCsdGrGZaRBwMb_3syn4item7ItemModEBK_, symObjAddr: 0x78B0, symBinAddr: 0x91510, symSize: 0xB0 }
  - { offset: 0x107D84, size: 0x8, addend: 0x0, symName: __RINvNtCsieiGu2EXtoJ_4core3ptr13drop_in_placeNtNtCsdGrGZaRBwMb_3syn4item7ItemUseEBK_, symObjAddr: 0x7960, symBinAddr: 0x915C0, symSize: 0x90 }
  - { offset: 0x107DB3, size: 0x8, addend: 0x0, symName: __RINvNtCsieiGu2EXtoJ_4core3ptr13drop_in_placeNtNtCsdGrGZaRBwMb_3syn4item7UseNameEBK_, symObjAddr: 0x79F0, symBinAddr: 0x91650, symSize: 0x20 }
  - { offset: 0x107DE2, size: 0x8, addend: 0x0, symName: __RINvNtCsieiGu2EXtoJ_4core3ptr13drop_in_placeNtNtCsdGrGZaRBwMb_3syn4item7UsePathEBK_, symObjAddr: 0x7A10, symBinAddr: 0x91670, symSize: 0x60 }
  - { offset: 0x107E11, size: 0x8, addend: 0x0, symName: __RINvNtCsieiGu2EXtoJ_4core3ptr13drop_in_placeNtNtCsdGrGZaRBwMb_3syn4item7UseTreeEBK_, symObjAddr: 0x7A70, symBinAddr: 0x916D0, symSize: 0x80 }
  - { offset: 0x107E40, size: 0x8, addend: 0x0, symName: __RINvNtCsieiGu2EXtoJ_4core3ptr13drop_in_placeNtNtCsdGrGZaRBwMb_3syn4item8ImplItemEBK_, symObjAddr: 0x7AF0, symBinAddr: 0x91750, symSize: 0xA0 }
  - { offset: 0x107E6F, size: 0x8, addend: 0x0, symName: __RINvNtCsieiGu2EXtoJ_4core3ptr13drop_in_placeNtNtCsdGrGZaRBwMb_3syn4item8ItemEnumEBK_, symObjAddr: 0x7B90, symBinAddr: 0x917F0, symSize: 0xF0 }
  - { offset: 0x107E9E, size: 0x8, addend: 0x0, symName: __RINvNtCsieiGu2EXtoJ_4core3ptr13drop_in_placeNtNtCsdGrGZaRBwMb_3syn4item8ItemImplEBK_, symObjAddr: 0x7C80, symBinAddr: 0x918E0, symSize: 0xF0 }
  - { offset: 0x107ECD, size: 0x8, addend: 0x0, symName: __RINvNtCsieiGu2EXtoJ_4core3ptr13drop_in_placeNtNtCsdGrGZaRBwMb_3syn4item8ItemTypeEBK_, symObjAddr: 0x7D70, symBinAddr: 0x919D0, symSize: 0xF0 }
  - { offset: 0x107EFC, size: 0x8, addend: 0x0, symName: __RINvNtCsieiGu2EXtoJ_4core3ptr13drop_in_placeNtNtCsdGrGZaRBwMb_3syn4item8ReceiverEBK_, symObjAddr: 0x7E60, symBinAddr: 0x91AC0, symSize: 0x90 }
  - { offset: 0x107F2B, size: 0x8, addend: 0x0, symName: __RINvNtCsieiGu2EXtoJ_4core3ptr13drop_in_placeNtNtCsdGrGZaRBwMb_3syn4item8UseGroupEBK_, symObjAddr: 0x7EF0, symBinAddr: 0x91B50, symSize: 0x20 }
  - { offset: 0x107F5A, size: 0x8, addend: 0x0, symName: __RINvNtCsieiGu2EXtoJ_4core3ptr13drop_in_placeNtNtCsdGrGZaRBwMb_3syn4item8VariadicEBK_, symObjAddr: 0x7F10, symBinAddr: 0x91B70, symSize: 0x60 }
  - { offset: 0x107F89, size: 0x8, addend: 0x0, symName: __RINvNtCsieiGu2EXtoJ_4core3ptr13drop_in_placeNtNtCsdGrGZaRBwMb_3syn4item9ItemConstEBK_, symObjAddr: 0x7F70, symBinAddr: 0x91BD0, symSize: 0x120 }
  - { offset: 0x107FB8, size: 0x8, addend: 0x0, symName: __RINvNtCsieiGu2EXtoJ_4core3ptr13drop_in_placeNtNtCsdGrGZaRBwMb_3syn4item9ItemMacroEBK_, symObjAddr: 0x8090, symBinAddr: 0x91CF0, symSize: 0x90 }
  - { offset: 0x107FE7, size: 0x8, addend: 0x0, symName: __RINvNtCsieiGu2EXtoJ_4core3ptr13drop_in_placeNtNtCsdGrGZaRBwMb_3syn4item9ItemTraitEBK_, symObjAddr: 0x8120, symBinAddr: 0x91D80, symSize: 0x120 }
  - { offset: 0x108016, size: 0x8, addend: 0x0, symName: __RINvNtCsieiGu2EXtoJ_4core3ptr13drop_in_placeNtNtCsdGrGZaRBwMb_3syn4item9ItemUnionEBK_, symObjAddr: 0x8240, symBinAddr: 0x91EA0, symSize: 0xF0 }
  - { offset: 0x108045, size: 0x8, addend: 0x0, symName: __RINvNtCsieiGu2EXtoJ_4core3ptr13drop_in_placeNtNtCsdGrGZaRBwMb_3syn4item9SignatureEBK_, symObjAddr: 0x8330, symBinAddr: 0x91F90, symSize: 0x120 }
  - { offset: 0x108074, size: 0x8, addend: 0x0, symName: __RINvNtCsieiGu2EXtoJ_4core3ptr13drop_in_placeNtNtCsdGrGZaRBwMb_3syn4item9TraitItemEBK_, symObjAddr: 0x8450, symBinAddr: 0x920B0, symSize: 0xA0 }
  - { offset: 0x1080A3, size: 0x8, addend: 0x0, symName: __RINvNtCsieiGu2EXtoJ_4core3ptr13drop_in_placeNtNtCsdGrGZaRBwMb_3syn4item9UseRenameEBK_, symObjAddr: 0x84F0, symBinAddr: 0x92150, symSize: 0x60 }
  - { offset: 0x1080D2, size: 0x8, addend: 0x0, symName: __RINvNtCsieiGu2EXtoJ_4core3ptr13drop_in_placeNtNtCsdGrGZaRBwMb_3syn4path10AssocConstEBK_, symObjAddr: 0x8550, symBinAddr: 0x921B0, symSize: 0x90 }
  - { offset: 0x108101, size: 0x8, addend: 0x0, symName: __RINvNtCsieiGu2EXtoJ_4core3ptr13drop_in_placeNtNtCsdGrGZaRBwMb_3syn4path10ConstraintEBK_, symObjAddr: 0x85E0, symBinAddr: 0x92240, symSize: 0x80 }
  - { offset: 0x108130, size: 0x8, addend: 0x0, symName: __RINvNtCsieiGu2EXtoJ_4core3ptr13drop_in_placeNtNtCsdGrGZaRBwMb_3syn4path11PathSegmentEBK_, symObjAddr: 0x8660, symBinAddr: 0x922C0, symSize: 0x60 }
  - { offset: 0x10815F, size: 0x8, addend: 0x0, symName: __RINvNtCsieiGu2EXtoJ_4core3ptr13drop_in_placeNtNtCsdGrGZaRBwMb_3syn4path13PathArgumentsEBK_, symObjAddr: 0x86C0, symBinAddr: 0x92320, symSize: 0x70 }
  - { offset: 0x10818E, size: 0x8, addend: 0x0, symName: __RINvNtCsieiGu2EXtoJ_4core3ptr13drop_in_placeNtNtCsdGrGZaRBwMb_3syn4path15GenericArgumentEBK_, symObjAddr: 0x8730, symBinAddr: 0x92390, symSize: 0xC0 }
  - { offset: 0x1081BD, size: 0x8, addend: 0x0, symName: __RINvNtCsieiGu2EXtoJ_4core3ptr13drop_in_placeNtNtCsdGrGZaRBwMb_3syn4path29ParenthesizedGenericArgumentsEBK_, symObjAddr: 0x87F0, symBinAddr: 0x92450, symSize: 0x60 }
  - { offset: 0x1081EC, size: 0x8, addend: 0x0, symName: __RINvNtCsieiGu2EXtoJ_4core3ptr13drop_in_placeNtNtCsdGrGZaRBwMb_3syn4path30AngleBracketedGenericArgumentsEBK_, symObjAddr: 0x8850, symBinAddr: 0x924B0, symSize: 0x20 }
  - { offset: 0x10821B, size: 0x8, addend: 0x0, symName: __RINvNtCsieiGu2EXtoJ_4core3ptr13drop_in_placeNtNtCsdGrGZaRBwMb_3syn4path4PathEBK_, symObjAddr: 0x8870, symBinAddr: 0x924D0, symSize: 0x20 }
  - { offset: 0x10824A, size: 0x8, addend: 0x0, symName: __RINvNtCsieiGu2EXtoJ_4core3ptr13drop_in_placeNtNtCsdGrGZaRBwMb_3syn4path5QSelfEBK_, symObjAddr: 0x8890, symBinAddr: 0x924F0, symSize: 0x20 }
  - { offset: 0x108279, size: 0x8, addend: 0x0, symName: __RINvNtCsieiGu2EXtoJ_4core3ptr13drop_in_placeNtNtCsdGrGZaRBwMb_3syn4path9AssocTypeEBK_, symObjAddr: 0x88B0, symBinAddr: 0x92510, symSize: 0x90 }
  - { offset: 0x1082A8, size: 0x8, addend: 0x0, symName: __RINvNtCsieiGu2EXtoJ_4core3ptr13drop_in_placeNtNtCsdGrGZaRBwMb_3syn4stmt4StmtEBK_, symObjAddr: 0x8940, symBinAddr: 0x925A0, symSize: 0x90 }
  - { offset: 0x1082D7, size: 0x8, addend: 0x0, symName: __RINvNtCsieiGu2EXtoJ_4core3ptr13drop_in_placeNtNtCsdGrGZaRBwMb_3syn4stmt5BlockEBK_, symObjAddr: 0x89D0, symBinAddr: 0x92630, symSize: 0x20 }
  - { offset: 0x108306, size: 0x8, addend: 0x0, symName: __RINvNtCsieiGu2EXtoJ_4core3ptr13drop_in_placeNtNtCsdGrGZaRBwMb_3syn4stmt5LocalEBK_, symObjAddr: 0x89F0, symBinAddr: 0x92650, symSize: 0x90 }
  - { offset: 0x108335, size: 0x8, addend: 0x0, symName: __RINvNtCsieiGu2EXtoJ_4core3ptr13drop_in_placeNtNtCsdGrGZaRBwMb_3syn4stmt9LocalInitEBK_, symObjAddr: 0x8A80, symBinAddr: 0x926E0, symSize: 0x60 }
  - { offset: 0x108364, size: 0x8, addend: 0x0, symName: __RINvNtCsieiGu2EXtoJ_4core3ptr13drop_in_placeNtNtCsdGrGZaRBwMb_3syn4stmt9StmtMacroEBK_, symObjAddr: 0x8AE0, symBinAddr: 0x92740, symSize: 0x60 }
  - { offset: 0x108393, size: 0x8, addend: 0x0, symName: __RINvNtCsieiGu2EXtoJ_4core3ptr13drop_in_placeNtNtCsdGrGZaRBwMb_3syn5error12ErrorMessageEBK_, symObjAddr: 0x8B40, symBinAddr: 0x927A0, symSize: 0x20 }
  - { offset: 0x1083C2, size: 0x8, addend: 0x0, symName: __RINvNtCsieiGu2EXtoJ_4core3ptr13drop_in_placeNtNtCsdGrGZaRBwMb_3syn5error5ErrorEBK_, symObjAddr: 0x8B60, symBinAddr: 0x927C0, symSize: 0x20 }
  - { offset: 0x1083F1, size: 0x8, addend: 0x0, symName: __RINvNtCsieiGu2EXtoJ_4core3ptr13drop_in_placeNtNtCsdGrGZaRBwMb_3syn5group5GroupEBK_, symObjAddr: 0x8B80, symBinAddr: 0x927E0, symSize: 0x20 }
