---
triple:          'x86_64-apple-darwin'
binary-path:     '/Users/kema/git/rust-serv/target/debug/deps/libasn1_rs_impl-f633f91726b41d72.dylib'
relocations:
  - { offset: 0x1E, size: 0x8, addend: 0x0, symName: __RINvMs3_NtNtCscKtU6MdFI5n_10proc_macro6bridge6bufferNtB6_6Buffer17extend_from_arrayKj4_ECsl9xOm5eYFDJ_12asn1_rs_impl, symObjAddr: 0x0, symBinAddr: 0xBD0, symSize: 0x1E0 }
  - { offset: 0x2EF, size: 0x8, addend: 0x0, symName: __RNCINvNtNtCscKtU6MdFI5n_10proc_macro6bridge6client10run_clientNtB4_11TokenStreamINtNtCsieiGu2EXtoJ_4core6option6OptionBY_ENCNCINvMs6_B4_INtB4_6ClientNtB8_11TokenStreamB2n_E7expand1NvCsl9xOm5eYFDJ_12asn1_rs_impl10encode_intE00E0B2U_, symObjAddr: 0x1420, symBinAddr: 0x1D70, symSize: 0x420 }
  - { offset: 0x510, size: 0x8, addend: 0x0, symName: __RNCINvNtNtCscKtU6MdFI5n_10proc_macro6bridge6client10run_clientNtB4_11TokenStreamINtNtCsieiGu2EXtoJ_4core6option6OptionBY_ENCNCINvMs6_B4_INtB4_6ClientNtB8_11TokenStreamB2n_E7expand1NvCsl9xOm5eYFDJ_12asn1_rs_impl10encode_oidE00E0B2U_, symObjAddr: 0x1840, symBinAddr: 0x2190, symSize: 0x420 }
  - { offset: 0x736, size: 0x8, addend: 0x0, symName: __RNCNCINvNtNtCscKtU6MdFI5n_10proc_macro6bridge6client10run_clientNtB6_11TokenStreamINtNtCsieiGu2EXtoJ_4core6option6OptionB10_ENCNCINvMs6_B6_INtB6_6ClientNtBa_11TokenStreamB2q_E7expand1NvCsl9xOm5eYFDJ_12asn1_rs_impl10encode_intE00E00B2X_, symObjAddr: 0x1DA0, symBinAddr: 0x26F0, symSize: 0x20 }
  - { offset: 0x792, size: 0x8, addend: 0x0, symName: __RNCNCINvNtNtCscKtU6MdFI5n_10proc_macro6bridge6client10run_clientNtB6_11TokenStreamINtNtCsieiGu2EXtoJ_4core6option6OptionB10_ENCNCINvMs6_B6_INtB6_6ClientNtBa_11TokenStreamB2q_E7expand1NvCsl9xOm5eYFDJ_12asn1_rs_impl10encode_oidE00E00B2X_, symObjAddr: 0x1DC0, symBinAddr: 0x2710, symSize: 0x20 }
  - { offset: 0x825, size: 0x8, addend: 0x0, symName: __RNCNCINvMs6_NtNtCscKtU6MdFI5n_10proc_macro6bridge6clientINtBa_6ClientNtBe_11TokenStreamB15_E7expand1NvCsl9xOm5eYFDJ_12asn1_rs_impl10encode_intE00B1C_, symObjAddr: 0x1D60, symBinAddr: 0x26B0, symSize: 0x20 }
  - { offset: 0x86D, size: 0x8, addend: 0x0, symName: __RNCNCINvMs6_NtNtCscKtU6MdFI5n_10proc_macro6bridge6clientINtBa_6ClientNtBe_11TokenStreamB15_E7expand1NvCsl9xOm5eYFDJ_12asn1_rs_impl10encode_oidE00B1C_, symObjAddr: 0x1D80, symBinAddr: 0x26D0, symSize: 0x20 }
  - { offset: 0x8B6, size: 0x8, addend: 0x0, symName: __RNCINvMs6_NtNtCscKtU6MdFI5n_10proc_macro6bridge6clientINtB8_6ClientNtBc_11TokenStreamB13_E7expand1NvCsl9xOm5eYFDJ_12asn1_rs_impl10encode_intE0B1A_, symObjAddr: 0x13C0, symBinAddr: 0x1D10, symSize: 0x30 }
  - { offset: 0x8FF, size: 0x8, addend: 0x0, symName: __RNCINvMs6_NtNtCscKtU6MdFI5n_10proc_macro6bridge6clientINtB8_6ClientNtBc_11TokenStreamB13_E7expand1NvCsl9xOm5eYFDJ_12asn1_rs_impl10encode_oidE0B1A_, symObjAddr: 0x13F0, symBinAddr: 0x1D40, symSize: 0x30 }
  - { offset: 0x94A, size: 0x8, addend: 0x0, symName: __RINvNtNtCscKtU6MdFI5n_10proc_macro6bridge6client10run_clientNtB2_11TokenStreamINtNtCsieiGu2EXtoJ_4core6option6OptionBW_ENCNCINvMs6_B2_INtB2_6ClientNtB6_11TokenStreamB2l_E7expand1NvCsl9xOm5eYFDJ_12asn1_rs_impl10encode_intE00EB2S_, symObjAddr: 0x940, symBinAddr: 0x13A0, symSize: 0x2E0 }
  - { offset: 0xB34, size: 0x8, addend: 0x0, symName: __RINvNtNtCscKtU6MdFI5n_10proc_macro6bridge6client10run_clientNtB2_11TokenStreamINtNtCsieiGu2EXtoJ_4core6option6OptionBW_ENCNCINvMs6_B2_INtB2_6ClientNtB6_11TokenStreamB2l_E7expand1NvCsl9xOm5eYFDJ_12asn1_rs_impl10encode_oidE00EB2S_, symObjAddr: 0xC20, symBinAddr: 0x1680, symSize: 0x2E0 }
  - { offset: 0xD71, size: 0x8, addend: 0x0, symName: __RNvXsf_NtNtCscKtU6MdFI5n_10proc_macro6bridge6clientNtB5_11TokenStreamINtNtB7_3rpc6EncodeuE6encodeCsl9xOm5eYFDJ_12asn1_rs_impl, symObjAddr: 0x6F80, symBinAddr: 0x7120, symSize: 0x40 }
  - { offset: 0xE82, size: 0x8, addend: 0x0, symName: __RNvXsi_NtNtCscKtU6MdFI5n_10proc_macro6bridge6clientNtB5_11TokenStreamINtNtB7_3rpc9DecodeMutuE6decodeCsl9xOm5eYFDJ_12asn1_rs_impl, symObjAddr: 0x6FC0, symBinAddr: 0x7160, symSize: 0x20 }
  - { offset: 0xECB, size: 0x8, addend: 0x0, symName: __RNvXsk_NtNtCscKtU6MdFI5n_10proc_macro6bridge6clientNtB5_4SpanINtNtB7_3rpc9DecodeMutuE6decodeCsl9xOm5eYFDJ_12asn1_rs_impl, symObjAddr: 0x6FE0, symBinAddr: 0x7180, symSize: 0x20 }
  - { offset: 0x1107, size: 0x8, addend: 0x0, symName: __RNvXs5_NtNtCscKtU6MdFI5n_10proc_macro6bridge6bufferNtB5_6BufferNtNtNtCsieiGu2EXtoJ_4core3ops4drop4Drop4dropCsl9xOm5eYFDJ_12asn1_rs_impl, symObjAddr: 0x6D50, symBinAddr: 0x6EF0, symSize: 0xA0 }
  - { offset: 0x12E0, size: 0x8, addend: 0x0, symName: __RNvXs7_NtNtCscKtU6MdFI5n_10proc_macro6bridge3rpcINtNtNtCsieiGu2EXtoJ_4core3num7nonzero7NonZeromEINtB5_9DecodeMutuE6decodeCsl9xOm5eYFDJ_12asn1_rs_impl, symObjAddr: 0x6E30, symBinAddr: 0x6FD0, symSize: 0x50 }
  - { offset: 0x1717, size: 0x8, addend: 0x0, symName: __RNvXss_NtCslJiobkLta79_5alloc6stringNtB5_6StringNtNtNtCsieiGu2EXtoJ_4core3ops5deref5Deref5derefCsl9xOm5eYFDJ_12asn1_rs_impl, symObjAddr: 0x7180, symBinAddr: 0x7320, symSize: 0x20 }
  - { offset: 0x174B, size: 0x8, addend: 0x0, symName: __RNvXsC_NtCslJiobkLta79_5alloc6stringNtB5_6StringINtNtCsieiGu2EXtoJ_4core7convert5AsRefeE6as_refCsl9xOm5eYFDJ_12asn1_rs_impl, symObjAddr: 0x6EC0, symBinAddr: 0x7060, symSize: 0x20 }
  - { offset: 0x179D, size: 0x8, addend: 0x0, symName: __RNvXsT_NtCslJiobkLta79_5alloc6stringNtB5_6StringNtNtCsieiGu2EXtoJ_4core3fmt5Write10write_charCsl9xOm5eYFDJ_12asn1_rs_impl, symObjAddr: 0x6F20, symBinAddr: 0x70C0, symSize: 0x30 }
  - { offset: 0x17DA, size: 0x8, addend: 0x0, symName: __RNvXsT_NtCslJiobkLta79_5alloc6stringNtB5_6StringNtNtCsieiGu2EXtoJ_4core3fmt5Write9write_strCsl9xOm5eYFDJ_12asn1_rs_impl, symObjAddr: 0x6F50, symBinAddr: 0x70F0, symSize: 0x30 }
  - { offset: 0x181D, size: 0x8, addend: 0x0, symName: __RNvXsl_NtCslJiobkLta79_5alloc6stringNtB5_6StringNtNtCsieiGu2EXtoJ_4core3fmt7Display3fmtCsl9xOm5eYFDJ_12asn1_rs_impl, symObjAddr: 0x7000, symBinAddr: 0x71A0, symSize: 0x70 }
  - { offset: 0x1982, size: 0x8, addend: 0x0, symName: __RNvXsq_NtCslJiobkLta79_5alloc6stringNtB5_6StringINtNtNtCsieiGu2EXtoJ_4core3ops5index5IndexINtNtBP_5range9RangeFromjEE5indexCsl9xOm5eYFDJ_12asn1_rs_impl, symObjAddr: 0x70B0, symBinAddr: 0x7250, symSize: 0x80 }
  - { offset: 0x1AD2, size: 0x8, addend: 0x0, symName: __RNvXsw_NtCslJiobkLta79_5alloc6stringRNtB5_6StringNtB5_8ToString9to_stringCsl9xOm5eYFDJ_12asn1_rs_impl, symObjAddr: 0x71A0, symBinAddr: 0x7340, symSize: 0x30 }
  - { offset: 0x1B0F, size: 0x8, addend: 0x0, symName: __RNvXsx_NtCslJiobkLta79_5alloc6stringRNtB5_6StringNtB5_12SpecToString14spec_to_stringCsl9xOm5eYFDJ_12asn1_rs_impl, symObjAddr: 0x71D0, symBinAddr: 0x7370, symSize: 0x120 }
  - { offset: 0x21C3, size: 0x8, addend: 0x0, symName: __RINvXsd_NtCslJiobkLta79_5alloc3vecINtB6_3VecRhEINtNtNtNtCsieiGu2EXtoJ_4core4iter6traits7collect12FromIteratorBG_E9from_iterINtNtNtBQ_8adapters10skip_while9SkipWhileINtNtNtBS_5slice4iter4IterhENCNvCsl9xOm5eYFDJ_12asn1_rs_impl15impl_encode_int0EEB38_, symObjAddr: 0x1260, symBinAddr: 0x1BB0, symSize: 0x40 }
  - { offset: 0x2204, size: 0x8, addend: 0x0, symName: __RINvXsd_NtCslJiobkLta79_5alloc3vecINtB6_3VecoEINtNtNtNtCsieiGu2EXtoJ_4core4iter6traits7collect12FromIteratoroE9from_iterINtNtBP_8adapters12GenericShuntINtNtB1X_3map3MapINtNtNtBR_3str4iter5SplitcENCNvCsl9xOm5eYFDJ_12asn1_rs_impl10encode_oid0EINtNtBR_6result6ResultNtNtBR_7convert10InfallibleNtNtNtBR_3num5error13ParseIntErrorEEEB3b_, symObjAddr: 0x12A0, symBinAddr: 0x1BF0, symSize: 0x40 }
  - { offset: 0x2250, size: 0x8, addend: 0x0, symName: __RNvNvMs_NtCslJiobkLta79_5alloc3vecINtB6_3VecppE7set_len18precondition_checkCsl9xOm5eYFDJ_12asn1_rs_impl, symObjAddr: 0x5600, symBinAddr: 0x5DE0, symSize: 0xA0 }
  - { offset: 0x22C4, size: 0x8, addend: 0x0, symName: __RNvXNtNtCslJiobkLta79_5alloc3vec11spec_extendINtB4_3VecRhEINtB2_10SpecExtendBR_INtNtNtNtCsieiGu2EXtoJ_4core4iter8adapters10skip_while9SkipWhileINtNtNtB1o_5slice4iter4IterhENCNvCsl9xOm5eYFDJ_12asn1_rs_impl15impl_encode_int0EE11spec_extendB2O_, symObjAddr: 0x6580, symBinAddr: 0x6720, symSize: 0x20 }
  - { offset: 0x2316, size: 0x8, addend: 0x0, symName: __RNvXNtNtCslJiobkLta79_5alloc3vec11spec_extendINtB4_3VecoEINtB2_10SpecExtendoINtNtNtCsieiGu2EXtoJ_4core4iter8adapters12GenericShuntINtNtB1f_3map3MapINtNtNtB1j_3str4iter5SplitcENCNvCsl9xOm5eYFDJ_12asn1_rs_impl10encode_oid0EINtNtB1j_6result6ResultNtNtB1j_7convert10InfallibleNtNtNtB1j_3num5error13ParseIntErrorEEE11spec_extendB2R_, symObjAddr: 0x65A0, symBinAddr: 0x6740, symSize: 0x20 }
  - { offset: 0x2374, size: 0x8, addend: 0x0, symName: __RNvXNtNtCslJiobkLta79_5alloc3vec14spec_from_iterINtB4_3VecRhEINtB2_12SpecFromIterBU_INtNtNtNtCsieiGu2EXtoJ_4core4iter8adapters10skip_while9SkipWhileINtNtNtB1t_5slice4iter4IterhENCNvCsl9xOm5eYFDJ_12asn1_rs_impl15impl_encode_int0EE9from_iterB2T_, symObjAddr: 0x65C0, symBinAddr: 0x6760, symSize: 0x20 }
  - { offset: 0x23B3, size: 0x8, addend: 0x0, symName: __RNvXNtNtCslJiobkLta79_5alloc3vec14spec_from_iterINtB4_3VecoEINtB2_12SpecFromIteroINtNtNtCsieiGu2EXtoJ_4core4iter8adapters12GenericShuntINtNtB1k_3map3MapINtNtNtB1o_3str4iter5SplitcENCNvCsl9xOm5eYFDJ_12asn1_rs_impl10encode_oid0EINtNtB1o_6result6ResultNtNtB1o_7convert10InfallibleNtNtNtB1o_3num5error13ParseIntErrorEEE9from_iterB2W_, symObjAddr: 0x65E0, symBinAddr: 0x6780, symSize: 0x20 }
  - { offset: 0x23FE, size: 0x8, addend: 0x0, symName: __RNvXNtNtCslJiobkLta79_5alloc3vec21spec_from_iter_nestedINtB4_3VecRhEINtB2_18SpecFromIterNestedB11_INtNtNtNtCsieiGu2EXtoJ_4core4iter8adapters10skip_while9SkipWhileINtNtNtB1H_5slice4iter4IterhENCNvCsl9xOm5eYFDJ_12asn1_rs_impl15impl_encode_int0EE9from_iterB37_, symObjAddr: 0x6600, symBinAddr: 0x67A0, symSize: 0x300 }
  - { offset: 0x26B7, size: 0x8, addend: 0x0, symName: __RNvXNtNtCslJiobkLta79_5alloc3vec21spec_from_iter_nestedINtB4_3VecoEINtB2_18SpecFromIterNestedoINtNtNtCsieiGu2EXtoJ_4core4iter8adapters12GenericShuntINtNtB1x_3map3MapINtNtNtB1B_3str4iter5SplitcENCNvCsl9xOm5eYFDJ_12asn1_rs_impl10encode_oid0EINtNtB1B_6result6ResultNtNtB1B_7convert10InfallibleNtNtNtB1B_3num5error13ParseIntErrorEEE9from_iterB39_, symObjAddr: 0x6900, symBinAddr: 0x6AA0, symSize: 0x300 }
  - { offset: 0x2978, size: 0x8, addend: 0x0, symName: __RNvXs6_NtCslJiobkLta79_5alloc3vecINtB5_3VecRhENtNtNtCsieiGu2EXtoJ_4core3ops5deref5Deref5derefCsl9xOm5eYFDJ_12asn1_rs_impl, symObjAddr: 0x6DF0, symBinAddr: 0x6F90, symSize: 0x20 }
  - { offset: 0x29EE, size: 0x8, addend: 0x0, symName: __RNvXs7_NtCslJiobkLta79_5alloc3vecINtB5_3VechENtNtNtCsieiGu2EXtoJ_4core3ops5deref8DerefMut9deref_mutCsl9xOm5eYFDJ_12asn1_rs_impl, symObjAddr: 0x6E10, symBinAddr: 0x6FB0, symSize: 0x20 }
  - { offset: 0x2A34, size: 0x8, addend: 0x0, symName: __RNvXsn_NtCslJiobkLta79_5alloc3vecINtB5_3VecRhENtNtNtCsieiGu2EXtoJ_4core3ops4drop4Drop4dropCsl9xOm5eYFDJ_12asn1_rs_impl, symObjAddr: 0x7070, symBinAddr: 0x7210, symSize: 0x20 }
  - { offset: 0x2AE4, size: 0x8, addend: 0x0, symName: __RNvXsn_NtCslJiobkLta79_5alloc3vecINtB5_3VecoENtNtNtCsieiGu2EXtoJ_4core3ops4drop4Drop4dropCsl9xOm5eYFDJ_12asn1_rs_impl, symObjAddr: 0x7090, symBinAddr: 0x7230, symSize: 0x20 }
  - { offset: 0x2B9A, size: 0x8, addend: 0x0, symName: __RNvXss_NtCslJiobkLta79_5alloc3vecINtB5_3VecoEINtNtCsieiGu2EXtoJ_4core7convert5AsRefSoE6as_refCsl9xOm5eYFDJ_12asn1_rs_impl, symObjAddr: 0x7130, symBinAddr: 0x72D0, symSize: 0x50 }
  - { offset: 0x3F7F, size: 0x8, addend: 0x0, symName: __RNvNvNtCsieiGu2EXtoJ_4core3ptr19copy_nonoverlapping18precondition_checkCsl9xOm5eYFDJ_12asn1_rs_impl, symObjAddr: 0x56A0, symBinAddr: 0x5E80, symSize: 0x4B0 }
  - { offset: 0x4290, size: 0x8, addend: 0x0, symName: __RNvNvNtCsieiGu2EXtoJ_4core3ptr4copy18precondition_checkCsl9xOm5eYFDJ_12asn1_rs_impl, symObjAddr: 0x6190, symBinAddr: 0x6330, symSize: 0x330 }
  - { offset: 0x4A6A, size: 0x8, addend: 0x0, symName: __RNvMs7_NtCsieiGu2EXtoJ_4core3numy11to_be_bytesCsl9xOm5eYFDJ_12asn1_rs_impl, symObjAddr: 0x3F10, symBinAddr: 0x4860, symSize: 0x30 }
  - { offset: 0x4BEE, size: 0x8, addend: 0x0, symName: __RNvMsC_NtCsieiGu2EXtoJ_4core3numy16from_ascii_radixCsl9xOm5eYFDJ_12asn1_rs_impl, symObjAddr: 0x3F40, symBinAddr: 0x4890, symSize: 0x610 }
  - { offset: 0x4F62, size: 0x8, addend: 0x0, symName: __RNvMsE_NtCsieiGu2EXtoJ_4core3numo16from_ascii_radixCsl9xOm5eYFDJ_12asn1_rs_impl, symObjAddr: 0x4550, symBinAddr: 0x4EA0, symSize: 0x780 }
  - { offset: 0x51DB, size: 0x8, addend: 0x0, symName: __RNvXsB_NtCsieiGu2EXtoJ_4core3numyNtNtNtB7_3str6traits7FromStr8from_strCsl9xOm5eYFDJ_12asn1_rs_impl, symObjAddr: 0x6E80, symBinAddr: 0x7020, symSize: 0x40 }
  - { offset: 0x5235, size: 0x8, addend: 0x0, symName: __RNvXsD_NtCsieiGu2EXtoJ_4core3numoNtNtNtB7_3str6traits7FromStr8from_strCsl9xOm5eYFDJ_12asn1_rs_impl, symObjAddr: 0x6EE0, symBinAddr: 0x7080, symSize: 0x40 }
  - { offset: 0x5F70, size: 0x8, addend: 0x0, symName: __RNCINvNvXs0_NtNtNtCsieiGu2EXtoJ_4core4iter8adapters10skip_whileINtBa_9SkipWhileppENtNtNtBe_6traits8iterator8Iterator4next5checkRhNCNvCsl9xOm5eYFDJ_12asn1_rs_impl15impl_encode_int0E0B27_, symObjAddr: 0x1D00, symBinAddr: 0x2650, symSize: 0x60 }
  - { offset: 0x5FD2, size: 0x8, addend: 0x0, symName: __RNvXs0_NtNtNtCsieiGu2EXtoJ_4core4iter8adapters10skip_whileINtB5_9SkipWhileINtNtNtBb_5slice4iter4IterhENCNvCsl9xOm5eYFDJ_12asn1_rs_impl15impl_encode_int0ENtNtNtB9_6traits8iterator8Iterator4nextB1G_, symObjAddr: 0x6C50, symBinAddr: 0x6DF0, symSize: 0x30 }
  - { offset: 0x604A, size: 0x8, addend: 0x0, symName: __RNvXs0_NtNtNtCsieiGu2EXtoJ_4core4iter8adapters10skip_whileINtB5_9SkipWhileINtNtNtBb_5slice4iter4IterhENCNvCsl9xOm5eYFDJ_12asn1_rs_impl15impl_encode_int0ENtNtNtB9_6traits8iterator8Iterator9size_hintB1G_, symObjAddr: 0x6C80, symBinAddr: 0x6E20, symSize: 0x50 }
  - { offset: 0x6192, size: 0x8, addend: 0x0, symName: __RNCINvNtNtNtCsieiGu2EXtoJ_4core4iter8adapters3map12map_try_foldReINtNtBa_6result6ResultoNtNtNtBa_3num5error13ParseIntErrorEuINtNtNtBa_3ops12control_flow11ControlFlowIB1Z_oEENCNvCsl9xOm5eYFDJ_12asn1_rs_impl10encode_oid0NCINvXB6_INtB6_12GenericShuntINtB4_3MapINtNtNtBa_3str4iter5SplitcEB2L_EIB12_NtNtBa_7convert10InfallibleB1o_EENtNtNtB8_6traits8iterator8Iterator8try_folduNCINvNvB5f_12try_for_each4calloB2D_NcNtB2D_5Break0E0B2D_E0E0B2P_, symObjAddr: 0x1C60, symBinAddr: 0x25B0, symSize: 0xA0 }
  - { offset: 0x622A, size: 0x8, addend: 0x0, symName: __RINvXs0_NtNtNtCsieiGu2EXtoJ_4core4iter8adapters3mapINtB6_3MapINtNtNtBc_3str4iter5SplitcENCNvCsl9xOm5eYFDJ_12asn1_rs_impl10encode_oid0ENtNtNtBa_6traits8iterator8Iterator8try_folduNCINvXB8_INtB8_12GenericShuntBN_INtNtBc_6result6ResultNtNtBc_7convert10InfallibleNtNtNtBc_3num5error13ParseIntErrorEEB28_8try_folduNCINvNvB28_12try_for_each4calloINtNtNtBc_3ops12control_flow11ControlFlowoENcNtB5s_5Break0E0B5s_E0IB5t_B5s_EEB1s_, symObjAddr: 0x1210, symBinAddr: 0x1B60, symSize: 0x50 }
  - { offset: 0x62CD, size: 0x8, addend: 0x0, symName: __RNvXs0_NtNtNtCsieiGu2EXtoJ_4core4iter8adapters3mapINtB5_3MapINtNtNtBb_3str4iter5SplitcENCNvCsl9xOm5eYFDJ_12asn1_rs_impl10encode_oid0ENtNtNtB9_6traits8iterator8Iterator9size_hintB1r_, symObjAddr: 0x6CD0, symBinAddr: 0x6E70, symSize: 0x30 }
  - { offset: 0x636F, size: 0x8, addend: 0x0, symName: __RINvYINtNtNtNtCsieiGu2EXtoJ_4core4iter8adapters10skip_while9SkipWhileINtNtNtBc_5slice4iter4IterhENCNvCsl9xOm5eYFDJ_12asn1_rs_impl15impl_encode_int0ENtNtNtBa_6traits8iterator8Iterator7collectINtNtCslJiobkLta79_5alloc3vec3VecRhEEB1B_, symObjAddr: 0x12E0, symBinAddr: 0x1C30, symSize: 0x70 }
  - { offset: 0x6405, size: 0x8, addend: 0x0, symName: __RINvYINtNtNtNtCsieiGu2EXtoJ_4core4iter8adapters3map3MapINtNtNtBc_3str4iter5SplitcENCNvCsl9xOm5eYFDJ_12asn1_rs_impl10encode_oid0ENtNtNtBa_6traits8iterator8Iterator7collectINtNtBc_6result6ResultINtNtCslJiobkLta79_5alloc3vec3VecoENtNtNtBc_3num5error13ParseIntErrorEEB1m_, symObjAddr: 0x1350, symBinAddr: 0x1CA0, symSize: 0x70 }
  - { offset: 0x64A7, size: 0x8, addend: 0x0, symName: __RNvXNtNtNtCsieiGu2EXtoJ_4core4iter6traits7collectINtNtNtB6_8adapters10skip_while9SkipWhileINtNtNtB8_5slice4iter4IterhENCNvCsl9xOm5eYFDJ_12asn1_rs_impl15impl_encode_int0ENtB2_12IntoIterator9into_iterB1W_, symObjAddr: 0x6C00, symBinAddr: 0x6DA0, symSize: 0x20 }
  - { offset: 0x64DE, size: 0x8, addend: 0x0, symName: __RNvXNtNtNtCsieiGu2EXtoJ_4core4iter6traits7collectINtNtNtB6_8adapters3map3MapINtNtNtB8_3str4iter5SplitcENCNvCsl9xOm5eYFDJ_12asn1_rs_impl10encode_oid0ENtB2_12IntoIterator9into_iterB1H_, symObjAddr: 0x6C20, symBinAddr: 0x6DC0, symSize: 0x30 }
  - { offset: 0x6728, size: 0x8, addend: 0x0, symName: __RNvNvXs5_NtNtCsieiGu2EXtoJ_4core3str6traitsINtNtNtBb_3ops5range5RangejEINtNtNtBb_5slice5index10SliceIndexeE13get_unchecked18precondition_checkCsl9xOm5eYFDJ_12asn1_rs_impl, symObjAddr: 0x64C0, symBinAddr: 0x6660, symSize: 0xC0 }
  - { offset: 0x7193, size: 0x8, addend: 0x0, symName: __RNvXs1b_NtCsieiGu2EXtoJ_4core3fmtRNtNtCslJiobkLta79_5alloc6string6StringNtB6_7Display3fmtCsl9xOm5eYFDJ_12asn1_rs_impl, symObjAddr: 0x6D30, symBinAddr: 0x6ED0, symSize: 0x20 }
  - { offset: 0x748D, size: 0x8, addend: 0x0, symName: ___rustc_proc_macro_decls_f664aa6e14cae725__, symObjAddr: 0x8238, symBinAddr: 0x9C848, symSize: 0x0 }
  - { offset: 0x74A7, size: 0x8, addend: 0x0, symName: __RNCNvCsl9xOm5eYFDJ_12asn1_rs_impl15impl_encode_int0B3_, symObjAddr: 0x1E40, symBinAddr: 0x2790, symSize: 0x30 }
  - { offset: 0x7503, size: 0x8, addend: 0x0, symName: __RNCNvCsl9xOm5eYFDJ_12asn1_rs_impl10encode_oid0B3_, symObjAddr: 0x1DE0, symBinAddr: 0x2730, symSize: 0x60 }
  - { offset: 0x753A, size: 0x8, addend: 0x0, symName: __RNvCsl9xOm5eYFDJ_12asn1_rs_impl10encode_int, symObjAddr: 0x1EA0, symBinAddr: 0x27F0, symSize: 0x210 }
  - { offset: 0x75E2, size: 0x8, addend: 0x0, symName: __RNvCsl9xOm5eYFDJ_12asn1_rs_impl10encode_oid, symObjAddr: 0x20B0, symBinAddr: 0x2A00, symSize: 0xC70 }
  - { offset: 0x7816, size: 0x8, addend: 0x0, symName: __RNvCsl9xOm5eYFDJ_12asn1_rs_impl12create_errorB1_, symObjAddr: 0x2D20, symBinAddr: 0x3670, symSize: 0x190 }
  - { offset: 0x7895, size: 0x8, addend: 0x0, symName: __RNvCsl9xOm5eYFDJ_12asn1_rs_impl14encode_base128, symObjAddr: 0x2EB0, symBinAddr: 0x3800, symSize: 0x170 }
  - { offset: 0x7917, size: 0x8, addend: 0x0, symName: __RNvCsl9xOm5eYFDJ_12asn1_rs_impl15impl_encode_int, symObjAddr: 0x3020, symBinAddr: 0x3970, symSize: 0x5A0 }
  - { offset: 0x7DAD, size: 0x8, addend: 0x0, symName: __RNCNvXs1_NtNtNtCsHUR1vrdMJt_3std2io5error14repr_bitpackedNtB7_4ReprNtNtNtCsieiGu2EXtoJ_4core3ops4drop4Drop4drop0Csl9xOm5eYFDJ_12asn1_rs_impl, symObjAddr: 0x1E70, symBinAddr: 0x27C0, symSize: 0x30 }
  - { offset: 0x7E62, size: 0x8, addend: 0x0, symName: __RNvXs1_NtNtNtCsHUR1vrdMJt_3std2io5error14repr_bitpackedNtB5_4ReprNtNtNtCsieiGu2EXtoJ_4core3ops4drop4Drop4dropCsl9xOm5eYFDJ_12asn1_rs_impl, symObjAddr: 0x6D00, symBinAddr: 0x6EA0, symSize: 0x30 }
  - { offset: 0x7E8B, size: 0x8, addend: 0x0, symName: __RINvNtNtNtCsHUR1vrdMJt_3std2io5error14repr_bitpacked11decode_reprINtNtCslJiobkLta79_5alloc5boxed3BoxNtB4_6CustomENCNvXs1_B2_NtB2_4ReprNtNtNtCsieiGu2EXtoJ_4core3ops4drop4Drop4drop0ECsl9xOm5eYFDJ_12asn1_rs_impl, symObjAddr: 0xF00, symBinAddr: 0x1960, symSize: 0x200 }
  - { offset: 0x80EC, size: 0x8, addend: 0x0, symName: __RNvNtNtNtCsHUR1vrdMJt_3std2io5error14repr_bitpacked14kind_from_primCsl9xOm5eYFDJ_12asn1_rs_impl, symObjAddr: 0x4FB0, symBinAddr: 0x5830, symSize: 0x5B0 }
  - { offset: 0x8BDB, size: 0x8, addend: 0x0, symName: __RINvMs3_NtNtCscKtU6MdFI5n_10proc_macro6bridge6bufferNtB6_6Buffer17extend_from_arrayKj4_ECsl9xOm5eYFDJ_12asn1_rs_impl, symObjAddr: 0x0, symBinAddr: 0xBD0, symSize: 0x1E0 }
  - { offset: 0x8D63, size: 0x8, addend: 0x0, symName: __RINvMs3_NtNtCscKtU6MdFI5n_10proc_macro6bridge6bufferNtB6_6Buffer17extend_from_arrayKj8_ECsl9xOm5eYFDJ_12asn1_rs_impl, symObjAddr: 0x1E0, symBinAddr: 0xDB0, symSize: 0x1E0 }
  - { offset: 0x909F, size: 0x8, addend: 0x0, symName: __RINvMsi_NtCslJiobkLta79_5alloc3vecINtB6_3VecRhE16extend_desugaredINtNtNtNtCsieiGu2EXtoJ_4core4iter8adapters10skip_while9SkipWhileINtNtNtB1a_5slice4iter4IterhENCNvCsl9xOm5eYFDJ_12asn1_rs_impl15impl_encode_int0EEB2A_, symObjAddr: 0x3C0, symBinAddr: 0xF90, symSize: 0x200 }
  - { offset: 0x9510, size: 0x8, addend: 0x0, symName: __RINvMsi_NtCslJiobkLta79_5alloc3vecINtB6_3VecoE16extend_desugaredINtNtNtCsieiGu2EXtoJ_4core4iter8adapters12GenericShuntINtNtB13_3map3MapINtNtNtB17_3str4iter5SplitcENCNvCsl9xOm5eYFDJ_12asn1_rs_impl10encode_oid0EINtNtB17_6result6ResultNtNtB17_7convert10InfallibleNtNtNtB17_3num5error13ParseIntErrorEEEB2F_, symObjAddr: 0x5C0, symBinAddr: 0x1190, symSize: 0x210 }
  - { offset: 0xA028, size: 0x8, addend: 0x0, symName: __RNvMNtCslJiobkLta79_5alloc6stringNtB2_6String10insert_strCsl9xOm5eYFDJ_12asn1_rs_impl, symObjAddr: 0x35C0, symBinAddr: 0x3F10, symSize: 0x370 }
  - { offset: 0xA5C8, size: 0x8, addend: 0x0, symName: __RNvMNtCslJiobkLta79_5alloc6stringNtB2_6String13with_capacityCsl9xOm5eYFDJ_12asn1_rs_impl, symObjAddr: 0x3930, symBinAddr: 0x4280, symSize: 0x70 }
  - { offset: 0xA66E, size: 0x8, addend: 0x0, symName: __RNvMNtCslJiobkLta79_5alloc6stringNtB2_6String3lenCsl9xOm5eYFDJ_12asn1_rs_impl, symObjAddr: 0x39A0, symBinAddr: 0x42F0, symSize: 0x10 }
  - { offset: 0xA815, size: 0x8, addend: 0x0, symName: __RNvMNtCslJiobkLta79_5alloc6stringNtB2_6String4pushCsl9xOm5eYFDJ_12asn1_rs_impl, symObjAddr: 0x39B0, symBinAddr: 0x4300, symSize: 0x130 }
  - { offset: 0xAADE, size: 0x8, addend: 0x0, symName: __RNvMNtCslJiobkLta79_5alloc6stringNtB2_6String6as_strCsl9xOm5eYFDJ_12asn1_rs_impl, symObjAddr: 0x3AE0, symBinAddr: 0x4430, symSize: 0x60 }
  - { offset: 0xAC9F, size: 0x8, addend: 0x0, symName: __RNvMNtCslJiobkLta79_5alloc6stringNtB2_6String8push_strCsl9xOm5eYFDJ_12asn1_rs_impl, symObjAddr: 0x3B40, symBinAddr: 0x4490, symSize: 0x50 }
  - { offset: 0xADF9, size: 0x8, addend: 0x0, symName: __RNvMs3_NtNtCscKtU6MdFI5n_10proc_macro6bridge6bufferNtB5_6Buffer17extend_from_sliceCsl9xOm5eYFDJ_12asn1_rs_impl, symObjAddr: 0x3B90, symBinAddr: 0x44E0, symSize: 0x1E0 }
  - { offset: 0xAF76, size: 0x8, addend: 0x0, symName: __RNvMs3_NtNtCscKtU6MdFI5n_10proc_macro6bridge6bufferNtB5_6Buffer4pushCsl9xOm5eYFDJ_12asn1_rs_impl, symObjAddr: 0x3D70, symBinAddr: 0x46C0, symSize: 0x1A0 }
  - { offset: 0xB07A, size: 0x8, addend: 0x0, symName: __RNvMs_NtCslJiobkLta79_5alloc3vecINtB4_3VecRhE3lenCsl9xOm5eYFDJ_12asn1_rs_impl, symObjAddr: 0x4CD0, symBinAddr: 0x5620, symSize: 0x10 }
  - { offset: 0xB1DF, size: 0x8, addend: 0x0, symName: __RNvMs_NtCslJiobkLta79_5alloc3vecINtB4_3VecRhE7reserveCsl9xOm5eYFDJ_12asn1_rs_impl, symObjAddr: 0x4CE0, symBinAddr: 0x5630, symSize: 0xB0 }
  - { offset: 0xB3E3, size: 0x8, addend: 0x0, symName: __RNvMs_NtCslJiobkLta79_5alloc3vecINtB4_3VecRhE8as_sliceCsl9xOm5eYFDJ_12asn1_rs_impl, symObjAddr: 0x4D90, symBinAddr: 0x56E0, symSize: 0x50 }
  - { offset: 0xB53B, size: 0x8, addend: 0x0, symName: __RNvMs_NtCslJiobkLta79_5alloc3vecINtB4_3VechE12as_mut_sliceCsl9xOm5eYFDJ_12asn1_rs_impl, symObjAddr: 0x4DE0, symBinAddr: 0x5730, symSize: 0x50 }
  - { offset: 0xB720, size: 0x8, addend: 0x0, symName: __RNvMs_NtCslJiobkLta79_5alloc3vecINtB4_3VecoE7reserveCsl9xOm5eYFDJ_12asn1_rs_impl, symObjAddr: 0x4E30, symBinAddr: 0x5780, symSize: 0xB0 }
  - { offset: 0xC379, size: 0x8, addend: 0x0, symName: __RINvCsdGrGZaRBwMb_3syn5parseNtNtB2_3lit6LitIntECsl9xOm5eYFDJ_12asn1_rs_impl, symObjAddr: 0x0, symBinAddr: 0x74D0, symSize: 0x30 }
  - { offset: 0xC6E8, size: 0x8, addend: 0x0, symName: __RNCNvMs3_NtNtCsHUR1vrdMJt_3std6thread5localINtB7_8LocalKeyINtNtCsieiGu2EXtoJ_4core4cell4CellPuEE7replace0Csl9xOm5eYFDJ_12asn1_rs_impl, symObjAddr: 0x18A0, symBinAddr: 0x8D00, symSize: 0x20 }
  - { offset: 0xC778, size: 0x8, addend: 0x0, symName: __RINvNvNtCsHUR1vrdMJt_3std9panicking12catch_unwind7do_callINtNtNtCsieiGu2EXtoJ_4core5panic11unwind_safe16AssertUnwindSafeNCINvNtNtCscKtU6MdFI5n_10proc_macro6bridge6client10run_clientNtB1Z_11TokenStreamINtNtB10_6option6OptionB2T_ENCNCINvMs6_B1Z_INtB1Z_6ClientNtB23_11TokenStreamB47_E7expand1NvCsl9xOm5eYFDJ_12asn1_rs_impl10encode_intE00E0EuEB4F_, symObjAddr: 0xF30, symBinAddr: 0x8390, symSize: 0x40 }
  - { offset: 0xC841, size: 0x8, addend: 0x0, symName: __RINvNvNtCsHUR1vrdMJt_3std9panicking12catch_unwind7do_callINtNtNtCsieiGu2EXtoJ_4core5panic11unwind_safe16AssertUnwindSafeNCINvNtNtCscKtU6MdFI5n_10proc_macro6bridge6client10run_clientNtB1Z_11TokenStreamINtNtB10_6option6OptionB2T_ENCNCINvMs6_B1Z_INtB1Z_6ClientNtB23_11TokenStreamB47_E7expand1NvCsl9xOm5eYFDJ_12asn1_rs_impl10encode_oidE00E0EuEB4F_, symObjAddr: 0xF70, symBinAddr: 0x83D0, symSize: 0x40 }
  - { offset: 0xC90A, size: 0x8, addend: 0x0, symName: __RINvNvNtCsHUR1vrdMJt_3std9panicking12catch_unwind8do_catchINtNtNtCsieiGu2EXtoJ_4core5panic11unwind_safe16AssertUnwindSafeNCINvNtNtCscKtU6MdFI5n_10proc_macro6bridge6client10run_clientNtB20_11TokenStreamINtNtB11_6option6OptionB2U_ENCNCINvMs6_B20_INtB20_6ClientNtB24_11TokenStreamB48_E7expand1NvCsl9xOm5eYFDJ_12asn1_rs_impl10encode_intE00E0EuEB4G_, symObjAddr: 0xFB0, symBinAddr: 0x8410, symSize: 0x60 }
  - { offset: 0xC99F, size: 0x8, addend: 0x0, symName: __RINvNvNtCsHUR1vrdMJt_3std9panicking12catch_unwind8do_catchINtNtNtCsieiGu2EXtoJ_4core5panic11unwind_safe16AssertUnwindSafeNCINvNtNtCscKtU6MdFI5n_10proc_macro6bridge6client10run_clientNtB20_11TokenStreamINtNtB11_6option6OptionB2U_ENCNCINvMs6_B20_INtB20_6ClientNtB24_11TokenStreamB48_E7expand1NvCsl9xOm5eYFDJ_12asn1_rs_impl10encode_oidE00E0EuEB4G_, symObjAddr: 0x1010, symBinAddr: 0x8470, symSize: 0x60 }
  - { offset: 0xCC42, size: 0x8, addend: 0x0, symName: __RNvNvMs1_NtNtCsieiGu2EXtoJ_4core3ptr8non_nullINtB7_7NonNullpE13new_unchecked18precondition_checkCsl9xOm5eYFDJ_12asn1_rs_impl, symObjAddr: 0x22D0, symBinAddr: 0x9720, symSize: 0x90 }
  - { offset: 0xD4FF, size: 0x8, addend: 0x0, symName: __RINvNtCsieiGu2EXtoJ_4core3ptr13drop_in_placeINtNtB4_4cell10UnsafeCellNtNtNtCscKtU6MdFI5n_10proc_macro6bridge6client6BridgeEECsl9xOm5eYFDJ_12asn1_rs_impl, symObjAddr: 0x5A0, symBinAddr: 0x7A00, symSize: 0x20 }
  - { offset: 0xD52E, size: 0x8, addend: 0x0, symName: __RINvNtCsieiGu2EXtoJ_4core3ptr13drop_in_placeINtNtB4_4cell7RefCellNtNtNtCscKtU6MdFI5n_10proc_macro6bridge6client6BridgeEECsl9xOm5eYFDJ_12asn1_rs_impl, symObjAddr: 0x5C0, symBinAddr: 0x7A20, symSize: 0x20 }
  - { offset: 0xD55D, size: 0x8, addend: 0x0, symName: __RINvNtCsieiGu2EXtoJ_4core3ptr13drop_in_placeINtNtB4_6result6ResultINtNtCslJiobkLta79_5alloc3vec3VecoENtNtNtB4_3num5error13ParseIntErrorEECsl9xOm5eYFDJ_12asn1_rs_impl, symObjAddr: 0x5E0, symBinAddr: 0x7A40, symSize: 0x40 }
  - { offset: 0xD58C, size: 0x8, addend: 0x0, symName: __RINvNtCsieiGu2EXtoJ_4core3ptr13drop_in_placeINtNtCslJiobkLta79_5alloc3vec3VecRhEECsl9xOm5eYFDJ_12asn1_rs_impl, symObjAddr: 0x620, symBinAddr: 0x7A80, symSize: 0x50 }
  - { offset: 0xD5BB, size: 0x8, addend: 0x0, symName: __RINvNtCsieiGu2EXtoJ_4core3ptr13drop_in_placeINtNtCslJiobkLta79_5alloc3vec3VecoEECsl9xOm5eYFDJ_12asn1_rs_impl, symObjAddr: 0x670, symBinAddr: 0x7AD0, symSize: 0x50 }
  - { offset: 0xD5EA, size: 0x8, addend: 0x0, symName: __RINvNtCsieiGu2EXtoJ_4core3ptr13drop_in_placeINtNtCslJiobkLta79_5alloc5boxed3BoxDNtNtB4_5error5ErrorNtNtB4_6marker4SyncNtB1B_4SendEL_EECsl9xOm5eYFDJ_12asn1_rs_impl, symObjAddr: 0x6C0, symBinAddr: 0x7B20, symSize: 0x70 }
  - { offset: 0xD619, size: 0x8, addend: 0x0, symName: __RINvNtCsieiGu2EXtoJ_4core3ptr13drop_in_placeINtNtCslJiobkLta79_5alloc5boxed3BoxNtNtNtCsHUR1vrdMJt_3std2io5error6CustomEECsl9xOm5eYFDJ_12asn1_rs_impl, symObjAddr: 0x730, symBinAddr: 0x7B90, symSize: 0x50 }
  - { offset: 0xD648, size: 0x8, addend: 0x0, symName: __RINvNtCsieiGu2EXtoJ_4core3ptr13drop_in_placeINtNtCslJiobkLta79_5alloc7raw_vec6RawVecRhEECsl9xOm5eYFDJ_12asn1_rs_impl, symObjAddr: 0x780, symBinAddr: 0x7BE0, symSize: 0x20 }
  - { offset: 0xD677, size: 0x8, addend: 0x0, symName: __RINvNtCsieiGu2EXtoJ_4core3ptr13drop_in_placeINtNtCslJiobkLta79_5alloc7raw_vec6RawVecoEECsl9xOm5eYFDJ_12asn1_rs_impl, symObjAddr: 0x7A0, symBinAddr: 0x7C00, symSize: 0x20 }
  - { offset: 0xD6A6, size: 0x8, addend: 0x0, symName: __RINvNtCsieiGu2EXtoJ_4core3ptr13drop_in_placeINtNtNtCsHUR1vrdMJt_3std2io5error9ErrorDataINtNtCslJiobkLta79_5alloc5boxed3BoxNtBJ_6CustomEEECsl9xOm5eYFDJ_12asn1_rs_impl, symObjAddr: 0x7C0, symBinAddr: 0x7C20, symSize: 0x30 }
  - { offset: 0xD6D5, size: 0x8, addend: 0x0, symName: __RINvNtCsieiGu2EXtoJ_4core3ptr13drop_in_placeNCNCINvNtNtCscKtU6MdFI5n_10proc_macro6bridge6client10run_clientNtBN_11TokenStreamINtNtB4_6option6OptionB1H_ENCNCINvMs6_BN_INtBN_6ClientNtBR_11TokenStreamB2R_E7expand1NvCsl9xOm5eYFDJ_12asn1_rs_impl10encode_intE00E00EB3o_, symObjAddr: 0x7F0, symBinAddr: 0x7C50, symSize: 0x20 }
  - { offset: 0xD704, size: 0x8, addend: 0x0, symName: __RINvNtCsieiGu2EXtoJ_4core3ptr13drop_in_placeNCNCINvNtNtCscKtU6MdFI5n_10proc_macro6bridge6client10run_clientNtBN_11TokenStreamINtNtB4_6option6OptionB1H_ENCNCINvMs6_BN_INtBN_6ClientNtBR_11TokenStreamB2R_E7expand1NvCsl9xOm5eYFDJ_12asn1_rs_impl10encode_oidE00E00EB3o_, symObjAddr: 0x810, symBinAddr: 0x7C70, symSize: 0x20 }
  - { offset: 0xD733, size: 0x8, addend: 0x0, symName: __RINvNtCsieiGu2EXtoJ_4core3ptr13drop_in_placeNtNtNtCsHUR1vrdMJt_3std2io5error5ErrorECsl9xOm5eYFDJ_12asn1_rs_impl, symObjAddr: 0x830, symBinAddr: 0x7C90, symSize: 0x20 }
  - { offset: 0xD762, size: 0x8, addend: 0x0, symName: __RINvNtCsieiGu2EXtoJ_4core3ptr13drop_in_placeNtNtNtCsHUR1vrdMJt_3std2io5error6CustomECsl9xOm5eYFDJ_12asn1_rs_impl, symObjAddr: 0x850, symBinAddr: 0x7CB0, symSize: 0x20 }
  - { offset: 0xD791, size: 0x8, addend: 0x0, symName: __RINvNtCsieiGu2EXtoJ_4core3ptr13drop_in_placeNtNtNtCscKtU6MdFI5n_10proc_macro6bridge3rpc12PanicMessageECsl9xOm5eYFDJ_12asn1_rs_impl, symObjAddr: 0x870, symBinAddr: 0x7CD0, symSize: 0x50 }
  - { offset: 0xD7C0, size: 0x8, addend: 0x0, symName: __RINvNtCsieiGu2EXtoJ_4core3ptr13drop_in_placeNtNtNtCscKtU6MdFI5n_10proc_macro6bridge6buffer6BufferECsl9xOm5eYFDJ_12asn1_rs_impl, symObjAddr: 0x8C0, symBinAddr: 0x7D20, symSize: 0x20 }
  - { offset: 0xD7EF, size: 0x8, addend: 0x0, symName: __RINvNtCsieiGu2EXtoJ_4core3ptr13drop_in_placeNtNtNtCscKtU6MdFI5n_10proc_macro6bridge6client6BridgeECsl9xOm5eYFDJ_12asn1_rs_impl, symObjAddr: 0x8E0, symBinAddr: 0x7D40, symSize: 0x20 }
  - { offset: 0xD81E, size: 0x8, addend: 0x0, symName: __RINvNtCsieiGu2EXtoJ_4core3ptr13drop_in_placeNtNtNtNtCsHUR1vrdMJt_3std2io5error14repr_bitpacked4ReprECsl9xOm5eYFDJ_12asn1_rs_impl, symObjAddr: 0x900, symBinAddr: 0x7D60, symSize: 0x20 }
  - { offset: 0xD84D, size: 0x8, addend: 0x0, symName: __RINvNtCsieiGu2EXtoJ_4core3ptr13drop_in_placeNtNvNtNtNtCscKtU6MdFI5n_10proc_macro6bridge6client5state3set13RestoreOnDropECsl9xOm5eYFDJ_12asn1_rs_impl, symObjAddr: 0x920, symBinAddr: 0x7D80, symSize: 0x20 }
  - { offset: 0xE313, size: 0x8, addend: 0x0, symName: __RNvXs9_NtNtCsieiGu2EXtoJ_4core3str6traitsINtNtNtB9_3ops5range9RangeFromjEINtNtNtB9_5slice5index10SliceIndexeE3getCsl9xOm5eYFDJ_12asn1_rs_impl, symObjAddr: 0x3770, symBinAddr: 0xABC0, symSize: 0x130 }
  - { offset: 0xE48F, size: 0x8, addend: 0x0, symName: __RNvXs9_NtNtCsieiGu2EXtoJ_4core3str6traitsINtNtNtB9_3ops5range9RangeFromjEINtNtNtB9_5slice5index10SliceIndexeE5indexCsl9xOm5eYFDJ_12asn1_rs_impl, symObjAddr: 0x38A0, symBinAddr: 0xACF0, symSize: 0x90 }
  - { offset: 0xE54B, size: 0x8, addend: 0x0, symName: __RINvMNtCsieiGu2EXtoJ_4core3stre12trim_matchesNvMNtNtB5_4char7methodsc13is_whitespaceECsl9xOm5eYFDJ_12asn1_rs_impl, symObjAddr: 0xA0, symBinAddr: 0x7570, symSize: 0x180 }
  - { offset: 0xE6EE, size: 0x8, addend: 0x0, symName: __RINvMNtCsieiGu2EXtoJ_4core3stre5parseNtCscKtU6MdFI5n_10proc_macro11TokenStreamECsl9xOm5eYFDJ_12asn1_rs_impl, symObjAddr: 0x220, symBinAddr: 0x76F0, symSize: 0x20 }
  - { offset: 0xE725, size: 0x8, addend: 0x0, symName: __RINvMNtCsieiGu2EXtoJ_4core3stre5parseoECsl9xOm5eYFDJ_12asn1_rs_impl, symObjAddr: 0x240, symBinAddr: 0x7710, symSize: 0x30 }
  - { offset: 0xE75C, size: 0x8, addend: 0x0, symName: __RINvMNtCsieiGu2EXtoJ_4core3stre5parseyECsl9xOm5eYFDJ_12asn1_rs_impl, symObjAddr: 0x270, symBinAddr: 0x7740, symSize: 0x30 }
  - { offset: 0xE793, size: 0x8, addend: 0x0, symName: __RNvMNtCsieiGu2EXtoJ_4core3stre4trimCsl9xOm5eYFDJ_12asn1_rs_impl, symObjAddr: 0x18F0, symBinAddr: 0x8D50, symSize: 0x20 }
  - { offset: 0xE7C1, size: 0x8, addend: 0x0, symName: __RNvMNtCsieiGu2EXtoJ_4core3stre5charsCsl9xOm5eYFDJ_12asn1_rs_impl, symObjAddr: 0x1910, symBinAddr: 0x8D70, symSize: 0x20 }
  - { offset: 0xE96A, size: 0x8, addend: 0x0, symName: __RNvXs3_NtNtCsieiGu2EXtoJ_4core3str4iterNtB5_11CharIndicesNtNtNtNtB9_4iter6traits8iterator8Iterator4nextCsl9xOm5eYFDJ_12asn1_rs_impl, symObjAddr: 0x3070, symBinAddr: 0xA4C0, symSize: 0x110 }
  - { offset: 0xEBAF, size: 0x8, addend: 0x0, symName: __RNvXs4_NtNtCsieiGu2EXtoJ_4core3str4iterNtB5_11CharIndicesNtNtNtNtB9_4iter6traits12double_ended19DoubleEndedIterator9next_backCsl9xOm5eYFDJ_12asn1_rs_impl, symObjAddr: 0x31A0, symBinAddr: 0xA5F0, symSize: 0x150 }
  - { offset: 0xED87, size: 0x8, addend: 0x0, symName: __RNvXs3_NtNtCsieiGu2EXtoJ_4core3str7patternNvMNtNtB9_4char7methodsc13is_whitespaceNtB5_11MultiCharEq7matchesCsl9xOm5eYFDJ_12asn1_rs_impl, symObjAddr: 0x3180, symBinAddr: 0xA5D0, symSize: 0x20 }
  - { offset: 0xEDD3, size: 0x8, addend: 0x0, symName: __RNvXs7_NtNtCsieiGu2EXtoJ_4core3str7patternINtB5_18MultiCharEqPatternNvMNtNtB9_4char7methodsc13is_whitespaceENtB5_7Pattern13into_searcherCsl9xOm5eYFDJ_12asn1_rs_impl, symObjAddr: 0x34E0, symBinAddr: 0xA930, symSize: 0xB0 }
  - { offset: 0xEE35, size: 0x8, addend: 0x0, symName: __RNvXs8_NtNtCsieiGu2EXtoJ_4core3str7patternINtB5_19MultiCharEqSearcherNvMNtNtB9_4char7methodsc13is_whitespaceENtB5_8Searcher4nextCsl9xOm5eYFDJ_12asn1_rs_impl, symObjAddr: 0x3590, symBinAddr: 0xA9E0, symSize: 0x160 }
  - { offset: 0xEF63, size: 0x8, addend: 0x0, symName: __RNvXs9_NtNtCsieiGu2EXtoJ_4core3str7patternINtB5_19MultiCharEqSearcherNvMNtNtB9_4char7methodsc13is_whitespaceENtB5_15ReverseSearcher9next_backCsl9xOm5eYFDJ_12asn1_rs_impl, symObjAddr: 0x3930, symBinAddr: 0xAD80, symSize: 0x160 }
  - { offset: 0xF091, size: 0x8, addend: 0x0, symName: __RNvXso_NtNtCsieiGu2EXtoJ_4core3str7patternINtB5_21CharPredicateSearcherNvMNtNtB9_4char7methodsc13is_whitespaceENtB5_8Searcher11next_rejectCsl9xOm5eYFDJ_12asn1_rs_impl, symObjAddr: 0x46C0, symBinAddr: 0xBB10, symSize: 0x30 }
  - { offset: 0xF0CE, size: 0x8, addend: 0x0, symName: __RNvXsp_NtNtCsieiGu2EXtoJ_4core3str7patternINtB5_21CharPredicateSearcherNvMNtNtB9_4char7methodsc13is_whitespaceENtB5_15ReverseSearcher16next_reject_backCsl9xOm5eYFDJ_12asn1_rs_impl, symObjAddr: 0x4820, symBinAddr: 0xBC70, symSize: 0x30 }
  - { offset: 0xF10B, size: 0x8, addend: 0x0, symName: __RNvXsr_NtNtCsieiGu2EXtoJ_4core3str7patternNvMNtNtB9_4char7methodsc13is_whitespaceNtB5_7Pattern13into_searcherCsl9xOm5eYFDJ_12asn1_rs_impl, symObjAddr: 0x4920, symBinAddr: 0xBD70, symSize: 0x40 }
  - { offset: 0xF157, size: 0x8, addend: 0x0, symName: __RNvYINtNtNtCsieiGu2EXtoJ_4core3str7pattern19MultiCharEqSearcherNvMNtNtB9_4char7methodsc13is_whitespaceENtB5_15ReverseSearcher16next_reject_backCsl9xOm5eYFDJ_12asn1_rs_impl, symObjAddr: 0x4990, symBinAddr: 0xBDE0, symSize: 0x90 }
  - { offset: 0xF1C2, size: 0x8, addend: 0x0, symName: __RNvYINtNtNtCsieiGu2EXtoJ_4core3str7pattern19MultiCharEqSearcherNvMNtNtB9_4char7methodsc13is_whitespaceENtB5_8Searcher11next_rejectCsl9xOm5eYFDJ_12asn1_rs_impl, symObjAddr: 0x4A20, symBinAddr: 0xBE70, symSize: 0x90 }
  - { offset: 0xF656, size: 0x8, addend: 0x0, symName: __RNcNtINtNtNtCsieiGu2EXtoJ_4core3ops12control_flow11ControlFlowoE5Break0Csl9xOm5eYFDJ_12asn1_rs_impl, symObjAddr: 0x18C0, symBinAddr: 0x8D20, symSize: 0x30 }
  - { offset: 0xF697, size: 0x8, addend: 0x0, symName: __RNvXNtNtCsieiGu2EXtoJ_4core3ops12control_flowINtB2_11ControlFlowIBI_oEENtNtB4_9try_trait3Try11from_outputCsl9xOm5eYFDJ_12asn1_rs_impl, symObjAddr: 0x2B20, symBinAddr: 0x9F70, symSize: 0x20 }
  - { offset: 0xF6D5, size: 0x8, addend: 0x0, symName: __RNvXNtNtCsieiGu2EXtoJ_4core3ops12control_flowINtB2_11ControlFlowIBI_oEENtNtB4_9try_trait3Try6branchCsl9xOm5eYFDJ_12asn1_rs_impl, symObjAddr: 0x2B40, symBinAddr: 0x9F90, symSize: 0x90 }
  - { offset: 0xF74E, size: 0x8, addend: 0x0, symName: __RNvXNtNtCsieiGu2EXtoJ_4core3ops12control_flowINtB2_11ControlFlowoENtNtB4_9try_trait3Try11from_outputCsl9xOm5eYFDJ_12asn1_rs_impl, symObjAddr: 0x2BD0, symBinAddr: 0xA020, symSize: 0x20 }
  - { offset: 0xF78C, size: 0x8, addend: 0x0, symName: __RNvXNtNtCsieiGu2EXtoJ_4core3ops12control_flowINtB2_11ControlFlowoENtNtB4_9try_trait3Try6branchCsl9xOm5eYFDJ_12asn1_rs_impl, symObjAddr: 0x2BF0, symBinAddr: 0xA040, symSize: 0x70 }
  - { offset: 0xF80A, size: 0x8, addend: 0x0, symName: __RNvXs_NtNtCsieiGu2EXtoJ_4core3ops12control_flowINtB4_11ControlFlowIBK_oEEINtNtB6_9try_trait12FromResidualIBK_B12_NtNtB8_7convert10InfallibleEE13from_residualCsl9xOm5eYFDJ_12asn1_rs_impl, symObjAddr: 0x3EB0, symBinAddr: 0xB300, symSize: 0x30 }
  - { offset: 0xF848, size: 0x8, addend: 0x0, symName: __RNvXs_NtNtCsieiGu2EXtoJ_4core3ops12control_flowINtB4_11ControlFlowoEINtNtB6_9try_trait12FromResidualIBK_oNtNtB8_7convert10InfallibleEE13from_residualCsl9xOm5eYFDJ_12asn1_rs_impl, symObjAddr: 0x3EE0, symBinAddr: 0xB330, symSize: 0x30 }
  - { offset: 0xFB3A, size: 0x8, addend: 0x0, symName: __RNvYNCNkNvNtNtNtCscKtU6MdFI5n_10proc_macro6bridge6client5state12BRIDGE_STATE0s_0INtNtNtCsieiGu2EXtoJ_4core3ops8function6FnOnceTINtNtB1n_6option6OptionQIB22_INtNtB1n_4cell4CellPuEEEEE9call_onceCsl9xOm5eYFDJ_12asn1_rs_impl, symObjAddr: 0x4AB0, symBinAddr: 0xBF00, symSize: 0x40 }
  - { offset: 0xFB7E, size: 0x8, addend: 0x0, symName: __RNvYNvYNtNtCsdGrGZaRBwMb_3syn3lit6LitIntNtNtB9_5parse5Parse5parseINtNtNtCsieiGu2EXtoJ_4core3ops8function6FnOnceTRNtBE_11ParseBufferEE9call_onceCsl9xOm5eYFDJ_12asn1_rs_impl, symObjAddr: 0x4B90, symBinAddr: 0xBFE0, symSize: 0x30 }
  - { offset: 0xFBC8, size: 0x8, addend: 0x0, symName: __RNvYNcNtINtNtNtCsieiGu2EXtoJ_4core3ops12control_flow11ControlFlowoE5Break0INtNtBb_8function5FnMutToEE8call_mutCsl9xOm5eYFDJ_12asn1_rs_impl, symObjAddr: 0x4AF0, symBinAddr: 0xBF40, symSize: 0x40 }
  - { offset: 0xFC0C, size: 0x8, addend: 0x0, symName: __RNvYNvMNtNtCsieiGu2EXtoJ_4core4char7methodsc13is_whitespaceINtNtNtB9_3ops8function5FnMutTcEE8call_mutCsl9xOm5eYFDJ_12asn1_rs_impl, symObjAddr: 0x4B70, symBinAddr: 0xBFC0, symSize: 0x20 }
  - { offset: 0xFC56, size: 0x8, addend: 0x0, symName: __RNvYNvCsl9xOm5eYFDJ_12asn1_rs_impl10encode_intINtNtNtCsieiGu2EXtoJ_4core3ops8function2FnTNtCscKtU6MdFI5n_10proc_macro11TokenStreamEE4callB4_, symObjAddr: 0x4B30, symBinAddr: 0xBF80, symSize: 0x20 }
  - { offset: 0xFC9A, size: 0x8, addend: 0x0, symName: __RNvYNvCsl9xOm5eYFDJ_12asn1_rs_impl10encode_oidINtNtNtCsieiGu2EXtoJ_4core3ops8function2FnTNtCscKtU6MdFI5n_10proc_macro11TokenStreamEE4callB4_, symObjAddr: 0x4B50, symBinAddr: 0xBFA0, symSize: 0x20 }
  - { offset: 0xFF78, size: 0x8, addend: 0x0, symName: __RNvXsq_NtCsieiGu2EXtoJ_4core6resultINtB5_6ResultINtNtCslJiobkLta79_5alloc3vec3VecoENtNtNtB7_3num5error13ParseIntErrorEINtNtNtB7_3ops9try_trait12FromResidualIBy_NtNtB7_7convert10InfallibleB1j_EE13from_residualCsl9xOm5eYFDJ_12asn1_rs_impl, symObjAddr: 0x4850, symBinAddr: 0xBCA0, symSize: 0x30 }
  - { offset: 0xFFDF, size: 0x8, addend: 0x0, symName: __RNvXsq_NtCsieiGu2EXtoJ_4core6resultINtB5_6ResultNtCscKtU6MdFI5n_10proc_macro11TokenStreamNtNtCsdGrGZaRBwMb_3syn5error5ErrorEINtNtNtB7_3ops9try_trait12FromResidualIBy_NtNtB7_7convert10InfallibleB1p_EE13from_residualCsl9xOm5eYFDJ_12asn1_rs_impl, symObjAddr: 0x4880, symBinAddr: 0xBCD0, symSize: 0x50 }
  - { offset: 0x10064, size: 0x8, addend: 0x0, symName: __RNvXsq_NtCsieiGu2EXtoJ_4core6resultINtB5_6ResultNtNtCsdGrGZaRBwMb_3syn3lit6LitIntNtNtBO_5error5ErrorEINtNtNtB7_3ops9try_trait12FromResidualIBy_NtNtB7_7convert10InfallibleB1h_EE13from_residualCsl9xOm5eYFDJ_12asn1_rs_impl, symObjAddr: 0x48D0, symBinAddr: 0xBD20, symSize: 0x50 }
  - { offset: 0x10230, size: 0x8, addend: 0x0, symName: __RNvXsp_NtCsieiGu2EXtoJ_4core6resultINtB5_6ResultINtNtCslJiobkLta79_5alloc3vec3VecoENtNtNtB7_3num5error13ParseIntErrorENtNtNtB7_3ops9try_trait3Try11from_outputCsl9xOm5eYFDJ_12asn1_rs_impl, symObjAddr: 0x46F0, symBinAddr: 0xBB40, symSize: 0x20 }
  - { offset: 0x10270, size: 0x8, addend: 0x0, symName: __RNvXsp_NtCsieiGu2EXtoJ_4core6resultINtB5_6ResultoNtNtNtB7_3num5error13ParseIntErrorENtNtNtB7_3ops9try_trait3Try6branchCsl9xOm5eYFDJ_12asn1_rs_impl, symObjAddr: 0x4710, symBinAddr: 0xBB60, symSize: 0x60 }
  - { offset: 0x102ED, size: 0x8, addend: 0x0, symName: __RNvXsp_NtCsieiGu2EXtoJ_4core6resultINtB5_6ResultyNtNtCsdGrGZaRBwMb_3syn5error5ErrorENtNtNtB7_3ops9try_trait3Try6branchCsl9xOm5eYFDJ_12asn1_rs_impl, symObjAddr: 0x4770, symBinAddr: 0xBBC0, symSize: 0xB0 }
  - { offset: 0x10370, size: 0x8, addend: 0x0, symName: __RINvXso_NtCsieiGu2EXtoJ_4core6resultINtB6_6ResultINtNtCslJiobkLta79_5alloc3vec3VecoENtNtNtB8_3num5error13ParseIntErrorEINtNtNtNtB8_4iter6traits7collect12FromIteratorIBz_oB1k_EE9from_iterINtNtNtB20_8adapters3map3MapINtNtNtB8_3str4iter5SplitcENCNvCsl9xOm5eYFDJ_12asn1_rs_impl10encode_oid0EEB3V_, symObjAddr: 0x1320, symBinAddr: 0x8780, symSize: 0x30 }
  - { offset: 0x103C8, size: 0x8, addend: 0x0, symName: __RNCINvXso_NtCsieiGu2EXtoJ_4core6resultINtB8_6ResultINtNtCslJiobkLta79_5alloc3vec3VecoENtNtNtBa_3num5error13ParseIntErrorEINtNtNtNtBa_4iter6traits7collect12FromIteratorIBB_oB1m_EE9from_iterINtNtNtB22_8adapters3map3MapINtNtNtBa_3str4iter5SplitcENCNvCsl9xOm5eYFDJ_12asn1_rs_impl10encode_oid0EE0B3X_, symObjAddr: 0x1850, symBinAddr: 0x8CB0, symSize: 0x30 }
  - { offset: 0x11560, size: 0x8, addend: 0x0, symName: __RNvXs1h_NtCsieiGu2EXtoJ_4core3fmtRRhNtB6_8LowerHex3fmtCsl9xOm5eYFDJ_12asn1_rs_impl, symObjAddr: 0x2F10, symBinAddr: 0xA360, symSize: 0x20 }
  - { offset: 0x115A6, size: 0x8, addend: 0x0, symName: __RNvXs1h_NtCsieiGu2EXtoJ_4core3fmtRhNtB6_8LowerHex3fmtCsl9xOm5eYFDJ_12asn1_rs_impl, symObjAddr: 0x2F30, symBinAddr: 0xA380, symSize: 0x20 }
  - { offset: 0x11602, size: 0x8, addend: 0x0, symName: __RNvXs1_NtCsieiGu2EXtoJ_4core7convertNtCsaKzlTDPUHDb_11proc_macro211TokenStreamINtB5_4IntoNtCscKtU6MdFI5n_10proc_macro11TokenStreamE4intoCsl9xOm5eYFDJ_12asn1_rs_impl, symObjAddr: 0x2EA0, symBinAddr: 0xA2F0, symSize: 0x10 }
  - { offset: 0x11643, size: 0x8, addend: 0x0, symName: __RNvXs1_NtCsieiGu2EXtoJ_4core7convertNtCscKtU6MdFI5n_10proc_macro4SpanINtB5_4IntoNtCsaKzlTDPUHDb_11proc_macro24SpanE4intoCsl9xOm5eYFDJ_12asn1_rs_impl, symObjAddr: 0x2EB0, symBinAddr: 0xA300, symSize: 0x20 }
  - { offset: 0x116E0, size: 0x8, addend: 0x0, symName: __RINvNtNtCsieiGu2EXtoJ_4core4iter8adapters11try_processINtNtB2_3map3MapINtNtNtB6_3str4iter5SplitcENCNvCsl9xOm5eYFDJ_12asn1_rs_impl10encode_oid0EoINtNtB6_6result6ResultNtNtB6_7convert10InfallibleNtNtNtB6_3num5error13ParseIntErrorENCINvXso_B2l_IB2j_INtNtCslJiobkLta79_5alloc3vec3VecoEB35_EINtNtNtB4_6traits7collect12FromIteratorIB2j_oB35_EE9from_iterBQ_E0B3W_EB1B_, symObjAddr: 0x940, symBinAddr: 0x7DA0, symSize: 0x180 }
  - { offset: 0x117A5, size: 0x8, addend: 0x0, symName: __RINvXNtNtCsieiGu2EXtoJ_4core4iter8adaptersINtB3_12GenericShuntINtNtB3_3map3MapINtNtNtB7_3str4iter5SplitcENCNvCsl9xOm5eYFDJ_12asn1_rs_impl10encode_oid0EINtNtB7_6result6ResultNtNtB7_7convert10InfallibleNtNtNtB7_3num5error13ParseIntErrorEENtNtNtB5_6traits8iterator8Iterator8try_folduNCINvNvB3M_12try_for_each4calloINtNtNtB7_3ops12control_flow11ControlFlowoENcNtB4Z_5Break0E0B4Z_EB1J_, symObjAddr: 0x11B0, symBinAddr: 0x8610, symSize: 0xC0 }
  - { offset: 0x11872, size: 0x8, addend: 0x0, symName: __RNCINvXNtNtCsieiGu2EXtoJ_4core4iter8adaptersINtB5_12GenericShuntINtNtB5_3map3MapINtNtNtB9_3str4iter5SplitcENCNvCsl9xOm5eYFDJ_12asn1_rs_impl10encode_oid0EINtNtB9_6result6ResultNtNtB9_7convert10InfallibleNtNtNtB9_3num5error13ParseIntErrorEENtNtNtB7_6traits8iterator8Iterator8try_folduNCINvNvB3O_12try_for_each4calloINtNtNtB9_3ops12control_flow11ControlFlowoENcNtB51_5Break0E0B51_E0B1L_, symObjAddr: 0x1660, symBinAddr: 0x8AC0, symSize: 0x1F0 }
  - { offset: 0x11990, size: 0x8, addend: 0x0, symName: __RNvXNtNtCsieiGu2EXtoJ_4core4iter8adaptersINtB2_12GenericShuntINtNtB2_3map3MapINtNtNtB6_3str4iter5SplitcENCNvCsl9xOm5eYFDJ_12asn1_rs_impl10encode_oid0EINtNtB6_6result6ResultNtNtB6_7convert10InfallibleNtNtNtB6_3num5error13ParseIntErrorEENtNtNtB4_6traits8iterator8Iterator4nextB1I_, symObjAddr: 0x2C60, symBinAddr: 0xA0B0, symSize: 0x90 }
  - { offset: 0x11A22, size: 0x8, addend: 0x0, symName: __RNvXNtNtCsieiGu2EXtoJ_4core4iter8adaptersINtB2_12GenericShuntINtNtB2_3map3MapINtNtNtB6_3str4iter5SplitcENCNvCsl9xOm5eYFDJ_12asn1_rs_impl10encode_oid0EINtNtB6_6result6ResultNtNtB6_7convert10InfallibleNtNtNtB6_3num5error13ParseIntErrorEENtNtNtB4_6traits8iterator8Iterator9size_hintB1I_, symObjAddr: 0x2CF0, symBinAddr: 0xA140, symSize: 0xA0 }
  - { offset: 0x11C08, size: 0x8, addend: 0x0, symName: __RINvYINtNtNtCsieiGu2EXtoJ_4core3str4iter5SplitcENtNtNtNtBa_4iter6traits8iterator8Iterator3mapINtNtBa_6result6ResultoNtNtNtBa_3num5error13ParseIntErrorENCNvCsl9xOm5eYFDJ_12asn1_rs_impl10encode_oid0EB2t_, symObjAddr: 0x1350, symBinAddr: 0x87B0, symSize: 0x30 }
  - { offset: 0x11C76, size: 0x8, addend: 0x0, symName: __RINvYINtNtNtCsieiGu2EXtoJ_4core3str4iter5SplitcENtNtNtNtBa_4iter6traits8iterator8Iterator8try_folduNCINvNtNtBQ_8adapters3map12map_try_foldReINtNtBa_6result6ResultoNtNtNtBa_3num5error13ParseIntErrorEuINtNtNtBa_3ops12control_flow11ControlFlowIB3c_oEENCNvCsl9xOm5eYFDJ_12asn1_rs_impl10encode_oid0NCINvXB1G_INtB1G_12GenericShuntINtB1E_3MapB3_B3Y_EIB2f_NtNtBa_7convert10InfallibleB2B_EEBK_8try_folduNCINvNvBK_12try_for_each4calloB3Q_NcNtB3Q_5Break0E0B3Q_E0E0B3b_EB42_, symObjAddr: 0x1380, symBinAddr: 0x87E0, symSize: 0x190 }
  - { offset: 0x11D35, size: 0x8, addend: 0x0, symName: __RINvYINtNtNtCsieiGu2EXtoJ_4core4iter8adapters12GenericShuntINtNtB6_3map3MapINtNtNtBa_3str4iter5SplitcENCNvCsl9xOm5eYFDJ_12asn1_rs_impl10encode_oid0EINtNtBa_6result6ResultNtNtBa_7convert10InfallibleNtNtNtBa_3num5error13ParseIntErrorEENtNtNtB8_6traits8iterator8Iterator7collectINtNtCslJiobkLta79_5alloc3vec3VecoEEB1G_, symObjAddr: 0x1510, symBinAddr: 0x8970, symSize: 0x70 }
  - { offset: 0x11DCB, size: 0x8, addend: 0x0, symName: __RINvYINtNtNtCsieiGu2EXtoJ_4core5slice4iter4IterhENtNtNtNtBa_4iter6traits8iterator8Iterator10skip_whileNCNvCsl9xOm5eYFDJ_12asn1_rs_impl15impl_encode_int0EB1G_, symObjAddr: 0x1580, symBinAddr: 0x89E0, symSize: 0x20 }
  - { offset: 0x11E39, size: 0x8, addend: 0x0, symName: __RNCINvNvNtNtNtNtCsieiGu2EXtoJ_4core4iter6traits8iterator8Iterator12try_for_each4calloINtNtNtBe_3ops12control_flow11ControlFlowoENcNtB1l_5Break0E0Csl9xOm5eYFDJ_12asn1_rs_impl, symObjAddr: 0x1630, symBinAddr: 0x8A90, symSize: 0x30 }
  - { offset: 0x11EF9, size: 0x8, addend: 0x0, symName: __RNvYINtNtNtCsieiGu2EXtoJ_4core3str4iter5SplitcENtNtNtNtB9_4iter6traits8iterator8Iterator9size_hintCsl9xOm5eYFDJ_12asn1_rs_impl, symObjAddr: 0x4960, symBinAddr: 0xBDB0, symSize: 0x30 }
  - { offset: 0x11F3A, size: 0x8, addend: 0x0, symName: __RNvXNtNtNtCsieiGu2EXtoJ_4core4iter6traits7collectINtNtB6_8adapters12GenericShuntINtNtBO_3map3MapINtNtNtB8_3str4iter5SplitcENCNvCsl9xOm5eYFDJ_12asn1_rs_impl10encode_oid0EINtNtB8_6result6ResultNtNtB8_7convert10InfallibleNtNtNtB8_3num5error13ParseIntErrorEENtB2_12IntoIterator9into_iterB21_, symObjAddr: 0x2D90, symBinAddr: 0xA1E0, symSize: 0x30 }
  - { offset: 0x11F72, size: 0x8, addend: 0x0, symName: __RNvXNtNtNtCsieiGu2EXtoJ_4core4iter6traits7collectINtNtNtB8_5slice4iter4IterRhENtB2_12IntoIterator9into_iterCsl9xOm5eYFDJ_12asn1_rs_impl, symObjAddr: 0x2DC0, symBinAddr: 0xA210, symSize: 0x20 }
  - { offset: 0x11FA9, size: 0x8, addend: 0x0, symName: __RNvXNtNtNtCsieiGu2EXtoJ_4core4iter6traits7collectINtNtNtB8_5slice4iter4IterhENtB2_12IntoIterator9into_iterCsl9xOm5eYFDJ_12asn1_rs_impl, symObjAddr: 0x2DE0, symBinAddr: 0xA230, symSize: 0x20 }
  - { offset: 0x12077, size: 0x8, addend: 0x0, symName: __RINvNvMNtCsieiGu2EXtoJ_4core5sliceSp7reverse7revswaphECsl9xOm5eYFDJ_12asn1_rs_impl, symObjAddr: 0xC40, symBinAddr: 0x80A0, symSize: 0x2F0 }
  - { offset: 0x12201, size: 0x8, addend: 0x0, symName: __RNvMNtCsieiGu2EXtoJ_4core5sliceSRh4iterCsl9xOm5eYFDJ_12asn1_rs_impl, symObjAddr: 0x1930, symBinAddr: 0x8D90, symSize: 0x20 }
  - { offset: 0x12286, size: 0x8, addend: 0x0, symName: __RNvMNtCsieiGu2EXtoJ_4core5sliceSh15copy_from_sliceCsl9xOm5eYFDJ_12asn1_rs_impl, symObjAddr: 0x1950, symBinAddr: 0x8DB0, symSize: 0xA0 }
  - { offset: 0x12351, size: 0x8, addend: 0x0, symName: __RNvMNtCsieiGu2EXtoJ_4core5sliceSh22split_at_mut_uncheckedCsl9xOm5eYFDJ_12asn1_rs_impl, symObjAddr: 0x19F0, symBinAddr: 0x8E50, symSize: 0x110 }
  - { offset: 0x124F3, size: 0x8, addend: 0x0, symName: __RNvMNtCsieiGu2EXtoJ_4core5sliceSh7reverseCsl9xOm5eYFDJ_12asn1_rs_impl, symObjAddr: 0x1B00, symBinAddr: 0x8F60, symSize: 0x100 }
  - { offset: 0x126AD, size: 0x8, addend: 0x0, symName: __RNvNvMNtCsieiGu2EXtoJ_4core5sliceSp22split_at_mut_unchecked18precondition_checkCsl9xOm5eYFDJ_12asn1_rs_impl, symObjAddr: 0x2180, symBinAddr: 0x95D0, symSize: 0xA0 }
  - { offset: 0x12748, size: 0x8, addend: 0x0, symName: __RINvXs2E_NtNtCsieiGu2EXtoJ_4core5slice4iterINtB7_4IterhENtNtNtNtBb_4iter6traits8iterator8Iterator4findNCINvNvXs0_NtNtBY_8adapters10skip_whileINtB1N_9SkipWhileppEBS_4next5checkRhNCNvCsl9xOm5eYFDJ_12asn1_rs_impl15impl_encode_int0E0EB2T_, symObjAddr: 0x1270, symBinAddr: 0x86D0, symSize: 0xB0 }
  - { offset: 0x127AD, size: 0x8, addend: 0x0, symName: __RNvXs2E_NtNtCsieiGu2EXtoJ_4core5slice4iterINtB6_4IterRhENtNtNtNtBa_4iter6traits8iterator8Iterator4nextCsl9xOm5eYFDJ_12asn1_rs_impl, symObjAddr: 0x2F50, symBinAddr: 0xA3A0, symSize: 0x90 }
  - { offset: 0x128CE, size: 0x8, addend: 0x0, symName: __RNvXs2E_NtNtCsieiGu2EXtoJ_4core5slice4iterINtB6_4IteroENtNtNtNtBa_4iter6traits8iterator8Iterator4nextCsl9xOm5eYFDJ_12asn1_rs_impl, symObjAddr: 0x2FE0, symBinAddr: 0xA430, symSize: 0x90 }
  - { offset: 0x12C4F, size: 0x8, addend: 0x0, symName: __RNvXs_NtNtCsieiGu2EXtoJ_4core5slice4iterRSoNtNtNtNtB8_4iter6traits7collect12IntoIterator9into_iterCsl9xOm5eYFDJ_12asn1_rs_impl, symObjAddr: 0x3F10, symBinAddr: 0xB360, symSize: 0x50 }
  - { offset: 0x12DF5, size: 0x8, addend: 0x0, symName: __RNvNvNtNtCsieiGu2EXtoJ_4core5slice3raw14from_raw_parts18precondition_checkCsl9xOm5eYFDJ_12asn1_rs_impl, symObjAddr: 0x2590, symBinAddr: 0x99E0, symSize: 0x260 }
  - { offset: 0x12FC3, size: 0x8, addend: 0x0, symName: __RNvNvNtNtCsieiGu2EXtoJ_4core5slice3raw18from_raw_parts_mut18precondition_checkCsl9xOm5eYFDJ_12asn1_rs_impl, symObjAddr: 0x27F0, symBinAddr: 0x9C40, symSize: 0x260 }
  - { offset: 0x131CC, size: 0x8, addend: 0x0, symName: __RNvNvXs2_NtNtCsieiGu2EXtoJ_4core5slice5indexINtNtNtBb_3ops5range5RangejEINtB7_10SliceIndexSpE13get_unchecked18precondition_checkCsl9xOm5eYFDJ_12asn1_rs_impl, symObjAddr: 0x2A50, symBinAddr: 0x9EA0, symSize: 0xC0 }
  - { offset: 0x13301, size: 0x8, addend: 0x0, symName: __RNvXs5_NtNtCsieiGu2EXtoJ_4core5slice5indexINtNtNtB9_3ops5range9RangeFromjEINtB5_10SliceIndexSoE5indexCsl9xOm5eYFDJ_12asn1_rs_impl, symObjAddr: 0x32F0, symBinAddr: 0xA740, symSize: 0x80 }
  - { offset: 0x137C1, size: 0x8, addend: 0x0, symName: __RNvXsn_NtNtCsieiGu2EXtoJ_4core5panic11unwind_safeINtB5_16AssertUnwindSafeNCINvNtNtCscKtU6MdFI5n_10proc_macro6bridge6client10run_clientNtB1e_11TokenStreamINtNtB9_6option6OptionB28_ENCNCINvMs6_B1e_INtB1e_6ClientNtB1i_11TokenStreamB3l_E7expand1NvCsl9xOm5eYFDJ_12asn1_rs_impl10encode_intE00E0EINtNtNtB9_3ops8function6FnOnceuE9call_onceB3T_, symObjAddr: 0x4520, symBinAddr: 0xB970, symSize: 0x30 }
  - { offset: 0x13819, size: 0x8, addend: 0x0, symName: __RNvXsn_NtNtCsieiGu2EXtoJ_4core5panic11unwind_safeINtB5_16AssertUnwindSafeNCINvNtNtCscKtU6MdFI5n_10proc_macro6bridge6client10run_clientNtB1e_11TokenStreamINtNtB9_6option6OptionB28_ENCNCINvMs6_B1e_INtB1e_6ClientNtB1i_11TokenStreamB3l_E7expand1NvCsl9xOm5eYFDJ_12asn1_rs_impl10encode_oidE00E0EINtNtNtB9_3ops8function6FnOnceuE9call_onceB3T_, symObjAddr: 0x4550, symBinAddr: 0xB9A0, symSize: 0x30 }
  - { offset: 0x138C2, size: 0x8, addend: 0x0, symName: __RNvMNtNtCsieiGu2EXtoJ_4core4char7methodsc13is_whitespaceCsl9xOm5eYFDJ_12asn1_rs_impl, symObjAddr: 0x1C70, symBinAddr: 0x90D0, symSize: 0x60 }
  - { offset: 0x13906, size: 0x8, addend: 0x0, symName: __RNvMNtNtCsieiGu2EXtoJ_4core4char7methodsc8to_digitCsl9xOm5eYFDJ_12asn1_rs_impl, symObjAddr: 0x1CD0, symBinAddr: 0x9130, symSize: 0xF0 }
  - { offset: 0x13A0A, size: 0x8, addend: 0x0, symName: __RNvNtNtCsieiGu2EXtoJ_4core4char7methods25encode_utf8_raw_uncheckedCsl9xOm5eYFDJ_12asn1_rs_impl, symObjAddr: 0x1F30, symBinAddr: 0x9380, symSize: 0x140 }
  - { offset: 0x13BEA, size: 0x8, addend: 0x0, symName: __RNvNvNtNtCsieiGu2EXtoJ_4core4char7convert18from_u32_unchecked18precondition_checkCsl9xOm5eYFDJ_12asn1_rs_impl, symObjAddr: 0x24A0, symBinAddr: 0x98F0, symSize: 0xF0 }
  - { offset: 0x13CE5, size: 0x8, addend: 0x0, symName: __RNvNtNtNtCsieiGu2EXtoJ_4core7unicode12unicode_data11white_space6lookupCsl9xOm5eYFDJ_12asn1_rs_impl, symObjAddr: 0x2070, symBinAddr: 0x94C0, symSize: 0x110 }
  - { offset: 0x13D2A, size: 0x8, addend: 0x0, symName: __RNvNvMNtNtCsieiGu2EXtoJ_4core5alloc6layoutNtB4_6Layout25from_size_align_unchecked18precondition_checkCsl9xOm5eYFDJ_12asn1_rs_impl, symObjAddr: 0x2220, symBinAddr: 0x9670, symSize: 0xB0 }
  - { offset: 0x13E46, size: 0x8, addend: 0x0, symName: __RNvNvNtCsieiGu2EXtoJ_4core4hint21unreachable_unchecked18precondition_checkCsl9xOm5eYFDJ_12asn1_rs_impl, symObjAddr: 0x2360, symBinAddr: 0x97B0, symSize: 0x80 }
  - { offset: 0x13EA6, size: 0x8, addend: 0x0, symName: __RNvNvNtCsieiGu2EXtoJ_4core9ub_checks23maybe_is_nonoverlapping7runtimeCsl9xOm5eYFDJ_12asn1_rs_impl, symObjAddr: 0x23E0, symBinAddr: 0x9830, symSize: 0xC0 }
  - { offset: 0x14306, size: 0x8, addend: 0x0, symName: __RINvNtNtNtCscKtU6MdFI5n_10proc_macro6bridge6client5state3setINtNtCsieiGu2EXtoJ_4core6option6OptionNtB4_11TokenStreamENCNCINvB4_10run_clientB1y_BW_NCNCINvMs6_B4_INtB4_6ClientNtB8_11TokenStreamB2L_E7expand1NvCsl9xOm5eYFDJ_12asn1_rs_impl10encode_intE00E00EB3i_, symObjAddr: 0xAC0, symBinAddr: 0x7F20, symSize: 0xC0 }
  - { offset: 0x143DC, size: 0x8, addend: 0x0, symName: __RINvNtNtNtCscKtU6MdFI5n_10proc_macro6bridge6client5state3setINtNtCsieiGu2EXtoJ_4core6option6OptionNtB4_11TokenStreamENCNCINvB4_10run_clientB1y_BW_NCNCINvMs6_B4_INtB4_6ClientNtB8_11TokenStreamB2L_E7expand1NvCsl9xOm5eYFDJ_12asn1_rs_impl10encode_oidE00E00EB3i_, symObjAddr: 0xB80, symBinAddr: 0x7FE0, symSize: 0xC0 }
  - { offset: 0x144BC, size: 0x8, addend: 0x0, symName: __RNCNkNvNtNtNtCscKtU6MdFI5n_10proc_macro6bridge6client5state12BRIDGE_STATE0s_0Csl9xOm5eYFDJ_12asn1_rs_impl, symObjAddr: 0x1880, symBinAddr: 0x8CE0, symSize: 0x20 }
  - { offset: 0x148DD, size: 0x8, addend: 0x0, symName: __RINvNvNtNtCscKtU6MdFI5n_10proc_macro6bridge14selfless_reify31reify_to_extern_c_fn_hrt_bridge7wrapperNtNtB6_6buffer6BufferNCINvMs6_NtB6_6clientINtB24_6ClientNtB8_11TokenStreamB2u_E7expand1NvCsl9xOm5eYFDJ_12asn1_rs_impl10encode_intE0EB31_, symObjAddr: 0x1070, symBinAddr: 0x84D0, symSize: 0xA0 }
  - { offset: 0x14975, size: 0x8, addend: 0x0, symName: __RINvNvNtNtCscKtU6MdFI5n_10proc_macro6bridge14selfless_reify31reify_to_extern_c_fn_hrt_bridge7wrapperNtNtB6_6buffer6BufferNCINvMs6_NtB6_6clientINtB24_6ClientNtB8_11TokenStreamB2u_E7expand1NvCsl9xOm5eYFDJ_12asn1_rs_impl10encode_oidE0EB31_, symObjAddr: 0x1110, symBinAddr: 0x8570, symSize: 0xA0 }
  - { offset: 0x14A19, size: 0x8, addend: 0x0, symName: __RNvXNtNtCscKtU6MdFI5n_10proc_macro6bridge3rpcuINtB2_6EncodeuE6encodeCsl9xOm5eYFDJ_12asn1_rs_impl, symObjAddr: 0x2B10, symBinAddr: 0x9F60, symSize: 0x10 }
  - { offset: 0x14A60, size: 0x8, addend: 0x0, symName: __RNvXs9_NtNtCscKtU6MdFI5n_10proc_macro6bridge3rpcTINtB7_11ExpnGlobalsNtNtB7_6client4SpanENtB16_11TokenStreamEINtB5_9DecodeMutuE6decodeCsl9xOm5eYFDJ_12asn1_rs_impl, symObjAddr: 0x36F0, symBinAddr: 0xAB40, symSize: 0x80 }
  - { offset: 0x14BA7, size: 0x8, addend: 0x0, symName: __RNvXsa_NtNtCscKtU6MdFI5n_10proc_macro6bridge3rpcRShINtB5_6EncodeuE6encodeCsl9xOm5eYFDJ_12asn1_rs_impl, symObjAddr: 0x3F60, symBinAddr: 0xB3B0, symSize: 0xD0 }
  - { offset: 0x14CAF, size: 0x8, addend: 0x0, symName: __RNvXsc_NtNtCscKtU6MdFI5n_10proc_macro6bridge3rpcReINtB5_6EncodeuE6encodeCsl9xOm5eYFDJ_12asn1_rs_impl, symObjAddr: 0x4030, symBinAddr: 0xB480, symSize: 0x30 }
  - { offset: 0x14D97, size: 0x8, addend: 0x0, symName: __RNvXsl_NtNtCscKtU6MdFI5n_10proc_macro6bridge3rpcNtB5_12PanicMessageINtB5_6EncodeuE6encodeCsl9xOm5eYFDJ_12asn1_rs_impl, symObjAddr: 0x43F0, symBinAddr: 0xB840, symSize: 0x130 }
  - { offset: 0x14F67, size: 0x8, addend: 0x0, symName: __RNvXso_NtNtCscKtU6MdFI5n_10proc_macro6bridge3rpcmINtB5_9DecodeMutuE6decodeCsl9xOm5eYFDJ_12asn1_rs_impl, symObjAddr: 0x4580, symBinAddr: 0xB9D0, symSize: 0x140 }
  - { offset: 0x150D5, size: 0x8, addend: 0x0, symName: __RNvXs1J_NtCscKtU6MdFI5n_10proc_macro6bridgeINtB6_11ExpnGlobalsNtNtB6_6client4SpanEINtNtB6_3rpc9DecodeMutuE6decodeCsl9xOm5eYFDJ_12asn1_rs_impl, symObjAddr: 0x2E00, symBinAddr: 0xA250, symSize: 0xA0 }
  - { offset: 0x15127, size: 0x8, addend: 0x0, symName: __RNvXsR_NtCscKtU6MdFI5n_10proc_macro6bridgeINtNtCsieiGu2EXtoJ_4core6option6OptionNtNtB5_6client11TokenStreamEINtNtB5_3rpc6EncodeuE6encodeCsl9xOm5eYFDJ_12asn1_rs_impl, symObjAddr: 0x3A90, symBinAddr: 0xAEE0, symSize: 0xB0 }
  - { offset: 0x151CD, size: 0x8, addend: 0x0, symName: __RNvXsR_NtCscKtU6MdFI5n_10proc_macro6bridgeINtNtCsieiGu2EXtoJ_4core6option6OptionReEINtNtB5_3rpc6EncodeuE6encodeCsl9xOm5eYFDJ_12asn1_rs_impl, symObjAddr: 0x3B40, symBinAddr: 0xAF90, symSize: 0xC0 }
  - { offset: 0x1527A, size: 0x8, addend: 0x0, symName: __RNvXsV_NtCscKtU6MdFI5n_10proc_macro6bridgeINtNtCsieiGu2EXtoJ_4core6result6ResultINtNtBJ_6option6OptionNtNtB5_6client11TokenStreamEuEINtNtB5_3rpc6EncodeuE6encodeCsl9xOm5eYFDJ_12asn1_rs_impl, symObjAddr: 0x3C40, symBinAddr: 0xB090, symSize: 0xE0 }
  - { offset: 0x1533E, size: 0x8, addend: 0x0, symName: __RNvXsV_NtCscKtU6MdFI5n_10proc_macro6bridgeINtNtCsieiGu2EXtoJ_4core6result6ResultuNtNtB5_3rpc12PanicMessageEINtB1j_6EncodeuE6encodeCsl9xOm5eYFDJ_12asn1_rs_impl, symObjAddr: 0x3D20, symBinAddr: 0xB170, symSize: 0x120 }
  - { offset: 0x15558, size: 0x8, addend: 0x0, symName: __RNvXsV_CscKtU6MdFI5n_10proc_macroNtB5_8LexErrorNtNtCsieiGu2EXtoJ_4core3fmt5Debug3fmtCsl9xOm5eYFDJ_12asn1_rs_impl, symObjAddr: 0x3C00, symBinAddr: 0xB050, symSize: 0x40 }
  - { offset: 0x15B0C, size: 0x8, addend: 0x0, symName: __RINvCsdGrGZaRBwMb_3syn5parseNtNtB2_3lit6LitIntECsl9xOm5eYFDJ_12asn1_rs_impl, symObjAddr: 0x0, symBinAddr: 0x74D0, symSize: 0x30 }
  - { offset: 0x15C15, size: 0x8, addend: 0x0, symName: __RNCINvMs3_NtCsdGrGZaRBwMb_3syn3litNtB8_6LitInt12base10_parseyE0Csl9xOm5eYFDJ_12asn1_rs_impl, symObjAddr: 0x15A0, symBinAddr: 0x8A00, symSize: 0x90 }
  - { offset: 0x15CCB, size: 0x8, addend: 0x0, symName: __RNvXsh_NtCsdGrGZaRBwMb_3syn5parseNvYNtNtB7_3lit6LitIntNtB5_5Parse5parseNtB5_6Parser6parse2Csl9xOm5eYFDJ_12asn1_rs_impl, symObjAddr: 0x4060, symBinAddr: 0xB4B0, symSize: 0x390 }
  - { offset: 0x15DE1, size: 0x8, addend: 0x0, symName: __RNvYNvYNtNtCsdGrGZaRBwMb_3syn3lit6LitIntNtNtB9_5parse5Parse5parseNtBE_6Parser5parseCsl9xOm5eYFDJ_12asn1_rs_impl, symObjAddr: 0x4BC0, symBinAddr: 0xC010, symSize: 0x70 }
  - { offset: 0x1632C, size: 0x8, addend: 0x0, symName: __RNvXs_NtCslJiobkLta79_5alloc5allocNtB4_6GlobalNtNtCsieiGu2EXtoJ_4core5alloc9Allocator10deallocateCsl9xOm5eYFDJ_12asn1_rs_impl, symObjAddr: 0x3E40, symBinAddr: 0xB290, symSize: 0x70 }
  - { offset: 0x1659C, size: 0x8, addend: 0x0, symName: __RNvXs1_NtCslJiobkLta79_5alloc7raw_vecINtB5_6RawVecRhENtNtNtCsieiGu2EXtoJ_4core3ops4drop4Drop4dropCsl9xOm5eYFDJ_12asn1_rs_impl, symObjAddr: 0x2ED0, symBinAddr: 0xA320, symSize: 0x20 }
  - { offset: 0x165D8, size: 0x8, addend: 0x0, symName: __RNvXs1_NtCslJiobkLta79_5alloc7raw_vecINtB5_6RawVecoENtNtNtCsieiGu2EXtoJ_4core3ops4drop4Drop4dropCsl9xOm5eYFDJ_12asn1_rs_impl, symObjAddr: 0x2EF0, symBinAddr: 0xA340, symSize: 0x20 }
  - { offset: 0x166B4, size: 0x8, addend: 0x0, symName: __RNvNtCslJiobkLta79_5alloc3fmt6formatCsl9xOm5eYFDJ_12asn1_rs_impl, symObjAddr: 0x1E70, symBinAddr: 0x92C0, symSize: 0xC0 }
  - { offset: 0x1671E, size: 0x8, addend: 0x0, symName: __RNvXs6_NtCslJiobkLta79_5alloc5boxedINtB5_3BoxDNtNtCsieiGu2EXtoJ_4core5error5ErrorNtNtBM_6marker4SyncNtB1j_4SendEL_ENtNtNtBM_3ops4drop4Drop4dropCsl9xOm5eYFDJ_12asn1_rs_impl, symObjAddr: 0x3370, symBinAddr: 0xA7C0, symSize: 0xC0 }
  - { offset: 0x1685B, size: 0x8, addend: 0x0, symName: __RNvXs6_NtCslJiobkLta79_5alloc5boxedINtB5_3BoxNtNtNtCsHUR1vrdMJt_3std2io5error6CustomENtNtNtCsieiGu2EXtoJ_4core3ops4drop4Drop4dropCsl9xOm5eYFDJ_12asn1_rs_impl, symObjAddr: 0x3430, symBinAddr: 0xA880, symSize: 0xB0 }
  - { offset: 0x169D4, size: 0x8, addend: 0x0, symName: __RINvMNtCsdGrGZaRBwMb_3syn5errorNtB3_5Error3newRNtNtCslJiobkLta79_5alloc6string6StringECsl9xOm5eYFDJ_12asn1_rs_impl, symObjAddr: 0x30, symBinAddr: 0x7500, symSize: 0x70 }
  - { offset: 0x16A81, size: 0x8, addend: 0x0, symName: __RINvMNtCsieiGu2EXtoJ_4core6resultINtB3_6ResultyNtNtNtB5_3num5error13ParseIntErrorE7map_errNtNtCsdGrGZaRBwMb_3syn5error5ErrorNCINvMs3_NtB1u_3litNtB27_6LitInt12base10_parseyE0ECsl9xOm5eYFDJ_12asn1_rs_impl, symObjAddr: 0x2A0, symBinAddr: 0x7770, symSize: 0x90 }
  - { offset: 0x16BC1, size: 0x8, addend: 0x0, symName: __RINvMNtNtCsieiGu2EXtoJ_4core3fmt2rtNtB3_8Argument13new_lower_hexRRhECsl9xOm5eYFDJ_12asn1_rs_impl, symObjAddr: 0x330, symBinAddr: 0x7800, symSize: 0x30 }
  - { offset: 0x16BEC, size: 0x8, addend: 0x0, symName: __RINvMNtNtCsieiGu2EXtoJ_4core3fmt2rtNtB3_8Argument13new_lower_hexRhECsl9xOm5eYFDJ_12asn1_rs_impl, symObjAddr: 0x360, symBinAddr: 0x7830, symSize: 0x30 }
  - { offset: 0x16C56, size: 0x8, addend: 0x0, symName: __RINvMs2_NtNtCsHUR1vrdMJt_3std6thread5localINtB6_8LocalKeyINtNtCsieiGu2EXtoJ_4core4cell4CellPuEE4withNCNvMs3_B6_BE_7replace0B1r_ECsl9xOm5eYFDJ_12asn1_rs_impl, symObjAddr: 0x390, symBinAddr: 0x7860, symSize: 0x50 }
  - { offset: 0x16D0F, size: 0x8, addend: 0x0, symName: __RINvMs2_NtNtCsHUR1vrdMJt_3std6thread5localINtB6_8LocalKeyINtNtCsieiGu2EXtoJ_4core4cell4CellPuEE8try_withNCNvMs3_B6_BE_7replace0B1r_ECsl9xOm5eYFDJ_12asn1_rs_impl, symObjAddr: 0x3E0, symBinAddr: 0x78B0, symSize: 0xF0 }
  - { offset: 0x16E52, size: 0x8, addend: 0x0, symName: __RINvMs3_NtCsdGrGZaRBwMb_3syn3litNtB6_6LitInt12base10_parseyECsl9xOm5eYFDJ_12asn1_rs_impl, symObjAddr: 0x4D0, symBinAddr: 0x79A0, symSize: 0x60 }
  - { offset: 0x17308, size: 0x8, addend: 0x0, symName: __RNvMNtCsieiGu2EXtoJ_4core6resultINtB2_6ResultINtNtCslJiobkLta79_5alloc3vec3VecoENtNtNtB4_3num5error13ParseIntErrorE6as_refCsl9xOm5eYFDJ_12asn1_rs_impl, symObjAddr: 0x1C00, symBinAddr: 0x9060, symSize: 0x70 }
  - { offset: 0x17448, size: 0x8, addend: 0x0, symName: __RNvMs4_NtNtCsieiGu2EXtoJ_4core5slice4iterINtB5_4IterRhE3newCsl9xOm5eYFDJ_12asn1_rs_impl, symObjAddr: 0x1DC0, symBinAddr: 0x9220, symSize: 0x50 }
  - { offset: 0x17546, size: 0x8, addend: 0x0, symName: __RNvMs_NtNtCsieiGu2EXtoJ_4core3fmt2rtNtB6_9Arguments16new_v1_formattedCsl9xOm5eYFDJ_12asn1_rs_impl, symObjAddr: 0x1E10, symBinAddr: 0x9270, symSize: 0x50 }
  - { offset: 0x1CB6D, size: 0x8, addend: 0x0, symName: __RNvXs1_NtCsieiGu2EXtoJ_4core7convertINtNtCslJiobkLta79_5alloc3vec3VechEINtB5_4IntoBy_E4intoCsdGrGZaRBwMb_3syn, symObjAddr: 0x7580, symBinAddr: 0xD2A0, symSize: 0x20 }
  - { offset: 0x1CBE9, size: 0x8, addend: 0x0, symName: __RNvNvMs_NtCslJiobkLta79_5alloc3vecINtB6_3VecppE17from_raw_parts_in18precondition_checkCsdGrGZaRBwMb_3syn, symObjAddr: 0x5950, symBinAddr: 0xCF60, symSize: 0xA0 }
  - { offset: 0x1CC57, size: 0x8, addend: 0x0, symName: __RNvNvMs_NtCslJiobkLta79_5alloc3vecINtB6_3VecppE7set_len18precondition_checkCsdGrGZaRBwMb_3syn, symObjAddr: 0x59F0, symBinAddr: 0xD000, symSize: 0xA0 }
  - { offset: 0x20085, size: 0x8, addend: 0x0, symName: __RNvXs6_NtCslJiobkLta79_5alloc3vecINtB5_3VechENtNtNtCsieiGu2EXtoJ_4core3ops5deref5Deref5derefCsdGrGZaRBwMb_3syn, symObjAddr: 0x78C0, symBinAddr: 0xD2C0, symSize: 0x20 }
  - { offset: 0x2018B, size: 0x8, addend: 0x0, symName: __RNvXsb_NtCslJiobkLta79_5alloc3vecINtB5_3VechEINtNtNtCsieiGu2EXtoJ_4core3ops5index5IndexINtNtBM_5range9RangeFromjEE5indexCsdGrGZaRBwMb_3syn, symObjAddr: 0x8A00, symBinAddr: 0xD300, symSize: 0x70 }
  - { offset: 0x2030D, size: 0x8, addend: 0x0, symName: __RNvXsb_NtCslJiobkLta79_5alloc3vecINtB5_3VechEINtNtNtCsieiGu2EXtoJ_4core3ops5index5IndexjE5indexCsdGrGZaRBwMb_3syn, symObjAddr: 0x8A70, symBinAddr: 0xD370, symSize: 0x70 }
  - { offset: 0x2052B, size: 0x8, addend: 0x0, symName: __RNvXsc_NtCslJiobkLta79_5alloc3vecINtB5_3VecNtNtCsdGrGZaRBwMb_3syn6buffer5EntryEINtNtNtCsieiGu2EXtoJ_4core3ops5index8IndexMutjE9index_mutBJ_, symObjAddr: 0x8AE0, symBinAddr: 0xD3E0, symSize: 0x80 }
  - { offset: 0x2067F, size: 0x8, addend: 0x0, symName: __RNvXsc_NtCslJiobkLta79_5alloc3vecINtB5_3VechEINtNtNtCsieiGu2EXtoJ_4core3ops5index8IndexMutjE9index_mutCsdGrGZaRBwMb_3syn, symObjAddr: 0x8B60, symBinAddr: 0xD460, symSize: 0x70 }
  - { offset: 0x207D9, size: 0x8, addend: 0x0, symName: __RNvXsf_NtCslJiobkLta79_5alloc3vecRINtB5_3VecNtNtCsdGrGZaRBwMb_3syn5error12ErrorMessageENtNtNtNtCsieiGu2EXtoJ_4core4iter6traits7collect12IntoIterator9into_iterBK_, symObjAddr: 0x98D0, symBinAddr: 0xD4D0, symSize: 0x80 }
  - { offset: 0x20A0C, size: 0x8, addend: 0x0, symName: __RNvXsg_NtCslJiobkLta79_5alloc3vecQINtB5_3VechENtNtNtNtCsieiGu2EXtoJ_4core4iter6traits7collect12IntoIterator9into_iterCsdGrGZaRBwMb_3syn, symObjAddr: 0xA250, symBinAddr: 0xD550, symSize: 0x80 }
  - { offset: 0x20C33, size: 0x8, addend: 0x0, symName: __RNvXsn_NtCslJiobkLta79_5alloc3vecINtB5_3VecNtNtCsdGrGZaRBwMb_3syn5error12ErrorMessageENtNtNtCsieiGu2EXtoJ_4core3ops4drop4Drop4dropBJ_, symObjAddr: 0xA480, symBinAddr: 0xD5D0, symSize: 0x30 }
  - { offset: 0x20CE3, size: 0x8, addend: 0x0, symName: __RNvXsn_NtCslJiobkLta79_5alloc3vecINtB5_3VecNtNtCsdGrGZaRBwMb_3syn6buffer5EntryENtNtNtCsieiGu2EXtoJ_4core3ops4drop4Drop4dropBJ_, symObjAddr: 0xA4B0, symBinAddr: 0xD600, symSize: 0x30 }
  - { offset: 0x20D99, size: 0x8, addend: 0x0, symName: __RNvXsp_NtCslJiobkLta79_5alloc3vecINtB5_3VechENtNtCsieiGu2EXtoJ_4core3fmt5Debug3fmtCsdGrGZaRBwMb_3syn, symObjAddr: 0xAC40, symBinAddr: 0xD630, symSize: 0x70 }
  - { offset: 0x2304A, size: 0x8, addend: 0x0, symName: __RNvXsR_NtCslJiobkLta79_5alloc6stringINtNtB7_3vec3VechEINtNtCsieiGu2EXtoJ_4core7convert4FromNtB5_6StringE4fromCsdGrGZaRBwMb_3syn, symObjAddr: 0x87E0, symBinAddr: 0xD2E0, symSize: 0x20 }
  - { offset: 0x2328C, size: 0x8, addend: 0x0, symName: __RNvXNvMs_NtNtCslJiobkLta79_5alloc3ffi5c_strNtB7_7CString3newINtNtBb_3vec3VechENtB2_11SpecNewImpl13spec_new_implCsdGrGZaRBwMb_3syn, symObjAddr: 0x7070, symBinAddr: 0xD0A0, symSize: 0x200 }
  - { offset: 0x2873A, size: 0x8, addend: 0x0, symName: __RNvMNtCslJiobkLta79_5alloc3vecINtB2_3VecNtNtCsdGrGZaRBwMb_3syn6buffer5EntryE3newBG_, symObjAddr: 0x5A0, symBinAddr: 0xC0F0, symSize: 0x30 }
  - { offset: 0x28777, size: 0x8, addend: 0x0, symName: __RNvMNtCslJiobkLta79_5alloc3vecINtB2_3VechE3newCsdGrGZaRBwMb_3syn, symObjAddr: 0x9F0, symBinAddr: 0xC120, symSize: 0x30 }
  - { offset: 0x2889A, size: 0x8, addend: 0x0, symName: __RNvMs0_NtCslJiobkLta79_5alloc3vecINtB5_3VechE17extend_from_sliceCsdGrGZaRBwMb_3syn, symObjAddr: 0xA20, symBinAddr: 0xC150, symSize: 0x70 }
  - { offset: 0x28B11, size: 0x8, addend: 0x0, symName: __RNvMs0_NtCslJiobkLta79_5alloc3vecINtB5_3VechE6resizeCsdGrGZaRBwMb_3syn, symObjAddr: 0xA90, symBinAddr: 0xC1C0, symSize: 0xE0 }
  - { offset: 0x28DD8, size: 0x8, addend: 0x0, symName: __RNvMs2_NtCslJiobkLta79_5alloc3vecINtB5_3VechE11extend_withCsdGrGZaRBwMb_3syn, symObjAddr: 0xB70, symBinAddr: 0xC2A0, symSize: 0x280 }
  - { offset: 0x29502, size: 0x8, addend: 0x0, symName: __RNvMs_NtCslJiobkLta79_5alloc3vecINtB4_3VecNtNtCsdGrGZaRBwMb_3syn5error12ErrorMessageE17from_raw_parts_inBI_, symObjAddr: 0x2220, symBinAddr: 0xC520, symSize: 0xA0 }
  - { offset: 0x297E1, size: 0x8, addend: 0x0, symName: __RNvMs_NtCslJiobkLta79_5alloc3vecINtB4_3VecNtNtCsdGrGZaRBwMb_3syn6buffer5EntryE13shrink_to_fitBI_, symObjAddr: 0x2440, symBinAddr: 0xC5C0, symSize: 0xE0 }
  - { offset: 0x29A5B, size: 0x8, addend: 0x0, symName: __RNvMs_NtCslJiobkLta79_5alloc3vecINtB4_3VecNtNtCsdGrGZaRBwMb_3syn6buffer5EntryE16into_boxed_sliceBI_, symObjAddr: 0x2520, symBinAddr: 0xC6A0, symSize: 0x160 }
  - { offset: 0x29C2B, size: 0x8, addend: 0x0, symName: __RNvMs_NtCslJiobkLta79_5alloc3vecINtB4_3VecNtNtCsdGrGZaRBwMb_3syn6buffer5EntryE3lenBI_, symObjAddr: 0x2680, symBinAddr: 0xC800, symSize: 0x10 }
  - { offset: 0x29C60, size: 0x8, addend: 0x0, symName: __RNvMs_NtCslJiobkLta79_5alloc3vecINtB4_3VecNtNtCsdGrGZaRBwMb_3syn6buffer5EntryE4pushBI_, symObjAddr: 0x2690, symBinAddr: 0xC810, symSize: 0x20 }
  - { offset: 0x29D9E, size: 0x8, addend: 0x0, symName: __RNvMs_NtCslJiobkLta79_5alloc3vecINtB4_3VecNtNtCsdGrGZaRBwMb_3syn6buffer5EntryE8push_mutBI_, symObjAddr: 0x26B0, symBinAddr: 0xC830, symSize: 0x120 }
  - { offset: 0x2A92E, size: 0x8, addend: 0x0, symName: __RNvMs_NtCslJiobkLta79_5alloc3vecINtB4_3VechE13shrink_to_fitCsdGrGZaRBwMb_3syn, symObjAddr: 0x5340, symBinAddr: 0xC950, symSize: 0xE0 }
  - { offset: 0x2AB63, size: 0x8, addend: 0x0, symName: __RNvMs_NtCslJiobkLta79_5alloc3vecINtB4_3VechE16into_boxed_sliceCsdGrGZaRBwMb_3syn, symObjAddr: 0x5420, symBinAddr: 0xCA30, symSize: 0x160 }
  - { offset: 0x2AD33, size: 0x8, addend: 0x0, symName: __RNvMs_NtCslJiobkLta79_5alloc3vecINtB4_3VechE3lenCsdGrGZaRBwMb_3syn, symObjAddr: 0x5580, symBinAddr: 0xCB90, symSize: 0x10 }
  - { offset: 0x2AD68, size: 0x8, addend: 0x0, symName: __RNvMs_NtCslJiobkLta79_5alloc3vecINtB4_3VechE4pushCsdGrGZaRBwMb_3syn, symObjAddr: 0x5590, symBinAddr: 0xCBA0, symSize: 0x20 }
  - { offset: 0x2AE1C, size: 0x8, addend: 0x0, symName: __RNvMs_NtCslJiobkLta79_5alloc3vecINtB4_3VechE8as_sliceCsdGrGZaRBwMb_3syn, symObjAddr: 0x55B0, symBinAddr: 0xCBC0, symSize: 0x50 }
  - { offset: 0x2AFC2, size: 0x8, addend: 0x0, symName: __RNvMs_NtCslJiobkLta79_5alloc3vecINtB4_3VechE8push_mutCsdGrGZaRBwMb_3syn, symObjAddr: 0x5600, symBinAddr: 0xCC10, symSize: 0xC0 }
  - { offset: 0x2B3B1, size: 0x8, addend: 0x0, symName: __RNvMs_NtCslJiobkLta79_5alloc3vecINtB4_3VechE9split_offCsdGrGZaRBwMb_3syn, symObjAddr: 0x56C0, symBinAddr: 0xCCD0, symSize: 0x290 }
  - { offset: 0x2D1EC, size: 0x8, addend: 0x0, symName: __RNvNvMNtNtCsieiGu2EXtoJ_4core3ptr9const_ptrPp6offset18precondition_checkCsdGrGZaRBwMb_3syn, symObjAddr: 0x17250, symBinAddr: 0xE440, symSize: 0x110 }
  - { offset: 0x2D6AB, size: 0x8, addend: 0x0, symName: __RNvXs0_NtCsieiGu2EXtoJ_4core4cellINtB5_4CellNtNtCsdGrGZaRBwMb_3syn6buffer6CursorENtNtB7_5clone5Clone5cloneBK_, symObjAddr: 0x17B50, symBinAddr: 0xE550, symSize: 0x20 }
  - { offset: 0x30FF5, size: 0x8, addend: 0x0, symName: __RINvMNtCslJiobkLta79_5alloc5sliceSNtNtCsdGrGZaRBwMb_3syn5error12ErrorMessage8into_vecNtNtB5_5alloc6GlobalEBA_, symObjAddr: 0xD50, symBinAddr: 0xD800, symSize: 0x40 }
  - { offset: 0x36034, size: 0x8, addend: 0x0, symName: __RINvNtCsdGrGZaRBwMb_3syn5error6new_atReEB4_, symObjAddr: 0x12A0, symBinAddr: 0xD840, symSize: 0x1B0 }
  - { offset: 0x360F0, size: 0x8, addend: 0x0, symName: __RNvNvMNtCsdGrGZaRBwMb_3syn5errorNtB4_5Error3new3new, symObjAddr: 0x16FD0, symBinAddr: 0xE260, symSize: 0x1E0 }
  - { offset: 0x3632F, size: 0x8, addend: 0x0, symName: __RNvNtCsdGrGZaRBwMb_3syn5ident6xid_ok, symObjAddr: 0x5C00, symBinAddr: 0xE150, symSize: 0x110 }
  - { offset: 0x36A0E, size: 0x8, addend: 0x0, symName: __RINvMNtCsdGrGZaRBwMb_3syn5errorNtB3_5Error3newNtNtCslJiobkLta79_5alloc6string6StringEB5_, symObjAddr: 0x2C0, symBinAddr: 0xD6A0, symSize: 0x80 }
  - { offset: 0x36A49, size: 0x8, addend: 0x0, symName: __RINvMNtCsdGrGZaRBwMb_3syn5errorNtB3_5Error3newNtNtNtCsieiGu2EXtoJ_4core3num5error13ParseIntErrorEB5_, symObjAddr: 0x340, symBinAddr: 0xD720, symSize: 0x70 }
  - { offset: 0x36A82, size: 0x8, addend: 0x0, symName: __RINvMNtCsdGrGZaRBwMb_3syn5errorNtB3_5Error3newReEB5_, symObjAddr: 0x3B0, symBinAddr: 0xD790, symSize: 0x70 }
  - { offset: 0x36D9D, size: 0x8, addend: 0x0, symName: __RNvMNtCsdGrGZaRBwMb_3syn5errorNtB2_5Error16to_compile_error, symObjAddr: 0x3700, symBinAddr: 0xD9F0, symSize: 0x110 }
  - { offset: 0x36E40, size: 0x8, addend: 0x0, symName: __RNvMs7_NtCsieiGu2EXtoJ_4core4cellINtB5_4CellINtNtB7_6option6OptionINtNtCslJiobkLta79_5alloc2rc2RcIBw_NtNtCsdGrGZaRBwMb_3syn5parse10UnexpectedEEEE3newB1F_, symObjAddr: 0x42D0, symBinAddr: 0xDB00, symSize: 0x10 }
  - { offset: 0x36EA1, size: 0x8, addend: 0x0, symName: __RNvMs7_NtCsieiGu2EXtoJ_4core4cellINtB5_4CellINtNtB7_6option6OptionINtNtCslJiobkLta79_5alloc2rc2RcIBw_NtNtCsdGrGZaRBwMb_3syn5parse10UnexpectedEEEE3setB1F_, symObjAddr: 0x42E0, symBinAddr: 0xDB10, symSize: 0x30 }
  - { offset: 0x36F27, size: 0x8, addend: 0x0, symName: __RNvMs7_NtCsieiGu2EXtoJ_4core4cellINtB5_4CellNtNtCsdGrGZaRBwMb_3syn5parse10UnexpectedE3newBK_, symObjAddr: 0x4310, symBinAddr: 0xDB40, symSize: 0x30 }
  - { offset: 0x36F9D, size: 0x8, addend: 0x0, symName: __RNvMs7_NtCsieiGu2EXtoJ_4core4cellINtB5_4CellNtNtCsdGrGZaRBwMb_3syn5parse10UnexpectedE3setBK_, symObjAddr: 0x4340, symBinAddr: 0xDB70, symSize: 0x40 }
  - { offset: 0x37014, size: 0x8, addend: 0x0, symName: __RNvMs7_NtCsieiGu2EXtoJ_4core4cellINtB5_4CellNtNtCsdGrGZaRBwMb_3syn6buffer6CursorE3newBK_, symObjAddr: 0x4380, symBinAddr: 0xDBB0, symSize: 0x20 }
  - { offset: 0x37075, size: 0x8, addend: 0x0, symName: __RNvMs7_NtCsieiGu2EXtoJ_4core4cellINtB5_4CellNtNtCsdGrGZaRBwMb_3syn6buffer6CursorE3setBK_, symObjAddr: 0x43A0, symBinAddr: 0xDBD0, symSize: 0x20 }
  - { offset: 0x370EB, size: 0x8, addend: 0x0, symName: __RNvMs8_NtCsieiGu2EXtoJ_4core4cellINtB5_4CellNtNtCsdGrGZaRBwMb_3syn6buffer6CursorE3getBK_, symObjAddr: 0x43C0, symBinAddr: 0xDBF0, symSize: 0x20 }
  - { offset: 0x3713E, size: 0x8, addend: 0x0, symName: __RNvMs_NtCsdGrGZaRBwMb_3syn5errorNtB4_12ErrorMessage16to_compile_error, symObjAddr: 0x4C20, symBinAddr: 0xDC10, symSize: 0x4C0 }
  - { offset: 0x37212, size: 0x8, addend: 0x0, symName: __RNvMsa_NtCsieiGu2EXtoJ_4core4cellINtB5_4CellINtNtB7_6option6OptionINtNtCslJiobkLta79_5alloc2rc2RcIBw_NtNtCsdGrGZaRBwMb_3syn5parse10UnexpectedEEEE4takeB1F_, symObjAddr: 0x50E0, symBinAddr: 0xE0D0, symSize: 0x30 }
  - { offset: 0x372A1, size: 0x8, addend: 0x0, symName: __RNvMsa_NtCsieiGu2EXtoJ_4core4cellINtB5_4CellNtNtCsdGrGZaRBwMb_3syn5parse10UnexpectedE4takeBK_, symObjAddr: 0x5110, symBinAddr: 0xE100, symSize: 0x50 }
  - { offset: 0x37403, size: 0x8, addend: 0x0, symName: __RINvMNtCsieiGu2EXtoJ_4core3stre3getINtNtNtB5_3ops5range5RangejEECsdGrGZaRBwMb_3syn, symObjAddr: 0x0, symBinAddr: 0xE570, symSize: 0x40 }
  - { offset: 0x3810A, size: 0x8, addend: 0x0, symName: __RINvMNtCsieiGu2EXtoJ_4core3stre3getINtNtNtB5_3ops5range5RangejEECsdGrGZaRBwMb_3syn, symObjAddr: 0x0, symBinAddr: 0xE570, symSize: 0x40 }
  - { offset: 0x38150, size: 0x8, addend: 0x0, symName: __RINvMNtCsieiGu2EXtoJ_4core3stre3getINtNtNtB5_3ops5range9RangeFromjEECsdGrGZaRBwMb_3syn, symObjAddr: 0x40, symBinAddr: 0xE5B0, symSize: 0x30 }
  - { offset: 0x38196, size: 0x8, addend: 0x0, symName: __RINvMNtCsieiGu2EXtoJ_4core3stre5parseNtCsaKzlTDPUHDb_11proc_macro27LiteralECsdGrGZaRBwMb_3syn, symObjAddr: 0x70, symBinAddr: 0xE5E0, symSize: 0x30 }
  - { offset: 0x381DA, size: 0x8, addend: 0x0, symName: __RINvMNtCsieiGu2EXtoJ_4core3stre5rfindcECsdGrGZaRBwMb_3syn, symObjAddr: 0xD0, symBinAddr: 0xE610, symSize: 0xD0 }
  - { offset: 0x38267, size: 0x8, addend: 0x0, symName: __RINvMNtCsieiGu2EXtoJ_4core3stre5splitcECsdGrGZaRBwMb_3syn, symObjAddr: 0x1A0, symBinAddr: 0xE6E0, symSize: 0xB0 }
  - { offset: 0x382AD, size: 0x8, addend: 0x0, symName: __RNvMNtCsieiGu2EXtoJ_4core3stre3lenCsdGrGZaRBwMb_3syn, symObjAddr: 0x3F0, symBinAddr: 0xE790, symSize: 0x20 }
  - { offset: 0x382D9, size: 0x8, addend: 0x0, symName: __RNvMNtCsieiGu2EXtoJ_4core3stre5bytesCsdGrGZaRBwMb_3syn, symObjAddr: 0x410, symBinAddr: 0xE7B0, symSize: 0x20 }
  - { offset: 0x38347, size: 0x8, addend: 0x0, symName: __RNvMNtCsieiGu2EXtoJ_4core3stre5charsCsdGrGZaRBwMb_3syn, symObjAddr: 0x430, symBinAddr: 0xE7D0, symSize: 0x20 }
  - { offset: 0x383B5, size: 0x8, addend: 0x0, symName: __RNvMNtCsieiGu2EXtoJ_4core3stre8is_emptyCsdGrGZaRBwMb_3syn, symObjAddr: 0x450, symBinAddr: 0xE7F0, symSize: 0x20 }
  - { offset: 0x385A2, size: 0x8, addend: 0x0, symName: __RNvXs_NtCsieiGu2EXtoJ_4core3streINtNtB6_7convert5AsRefShE6as_refCsdGrGZaRBwMb_3syn, symObjAddr: 0x17000, symBinAddr: 0xF990, symSize: 0x20 }
  - { offset: 0x38D8D, size: 0x8, addend: 0x0, symName: __RNvXsZ_NtNtCsieiGu2EXtoJ_4core3fmt3numjNtB7_5Debug3fmtCsdGrGZaRBwMb_3syn, symObjAddr: 0x16F80, symBinAddr: 0xF910, symSize: 0x80 }
  - { offset: 0x38E3B, size: 0x8, addend: 0x0, symName: __RNvXs1_NtCsieiGu2EXtoJ_4core7convertNtNtCslJiobkLta79_5alloc6string6StringINtB5_4IntoINtNtBC_3vec3VechEE4intoCsdGrGZaRBwMb_3syn, symObjAddr: 0x15F30, symBinAddr: 0xF6D0, symSize: 0x20 }
  - { offset: 0x3956E, size: 0x8, addend: 0x0, symName: __RNvXss_NtCslJiobkLta79_5alloc6stringNtB5_6StringNtNtNtCsieiGu2EXtoJ_4core3ops5deref5Deref5derefCsdGrGZaRBwMb_3syn, symObjAddr: 0x174F0, symBinAddr: 0xF9B0, symSize: 0x20 }
  - { offset: 0x39605, size: 0x8, addend: 0x0, symName: __RNvXs1I_NtCslJiobkLta79_5alloc6stringNtB6_6StringNtB6_12SpecToString14spec_to_stringCsdGrGZaRBwMb_3syn, symObjAddr: 0x15E00, symBinAddr: 0xF5C0, symSize: 0xB0 }
  - { offset: 0x39875, size: 0x8, addend: 0x0, symName: __RNvXs1U_NtCslJiobkLta79_5alloc6stringReNtB6_12SpecToString14spec_to_stringCsdGrGZaRBwMb_3syn, symObjAddr: 0x15EB0, symBinAddr: 0xF670, symSize: 0x60 }
  - { offset: 0x3999F, size: 0x8, addend: 0x0, symName: __RNvXs1g_NtCslJiobkLta79_5alloc6stringNtB6_13FromUtf8ErrorNtNtCsieiGu2EXtoJ_4core3fmt5Debug3fmtCsdGrGZaRBwMb_3syn, symObjAddr: 0x15F70, symBinAddr: 0xF6F0, symSize: 0x90 }
  - { offset: 0x39A1C, size: 0x8, addend: 0x0, symName: __RNvXs1n_NtCslJiobkLta79_5alloc6stringNtB6_6StringINtNtCsieiGu2EXtoJ_4core3cmp9PartialEqReE2eqCsdGrGZaRBwMb_3syn, symObjAddr: 0x16000, symBinAddr: 0xF780, symSize: 0x130 }
  - { offset: 0x39CFE, size: 0x8, addend: 0x0, symName: __RNvXsT_NtCslJiobkLta79_5alloc6stringNtB5_6StringNtNtCsieiGu2EXtoJ_4core3fmt5Write10write_charCsdGrGZaRBwMb_3syn, symObjAddr: 0x16E80, symBinAddr: 0xF8B0, symSize: 0x30 }
  - { offset: 0x39D3B, size: 0x8, addend: 0x0, symName: __RNvXsT_NtCslJiobkLta79_5alloc6stringNtB5_6StringNtNtCsieiGu2EXtoJ_4core3fmt5Write9write_strCsdGrGZaRBwMb_3syn, symObjAddr: 0x16EB0, symBinAddr: 0xF8E0, symSize: 0x30 }
  - { offset: 0x39D7E, size: 0x8, addend: 0x0, symName: __RNvXsw_NtCslJiobkLta79_5alloc6stringNtB5_6StringNtB5_8ToString9to_stringCsdGrGZaRBwMb_3syn, symObjAddr: 0x17510, symBinAddr: 0xF9D0, symSize: 0x30 }
  - { offset: 0x39DB5, size: 0x8, addend: 0x0, symName: __RNvXsw_NtCslJiobkLta79_5alloc6stringReNtB5_8ToString9to_stringCsdGrGZaRBwMb_3syn, symObjAddr: 0x17540, symBinAddr: 0xFA00, symSize: 0x30 }
  - { offset: 0x39EE0, size: 0x8, addend: 0x0, symName: __RNvXNvMs_NtNtCslJiobkLta79_5alloc3ffi5c_strNtB7_7CString3newNtNtBb_6string6StringNtB2_11SpecNewImpl13spec_new_implCsdGrGZaRBwMb_3syn, symObjAddr: 0x15440, symBinAddr: 0xF3C0, symSize: 0x200 }
  - { offset: 0x3A29D, size: 0x8, addend: 0x0, symName: __RNvMNtCslJiobkLta79_5alloc6stringNtB2_6String10into_bytesCsdGrGZaRBwMb_3syn, symObjAddr: 0x470, symBinAddr: 0xE810, symSize: 0x20 }
  - { offset: 0x3A387, size: 0x8, addend: 0x0, symName: __RNvMNtCslJiobkLta79_5alloc6stringNtB2_6String13with_capacityCsdGrGZaRBwMb_3syn, symObjAddr: 0x490, symBinAddr: 0xE830, symSize: 0x70 }
  - { offset: 0x3A486, size: 0x8, addend: 0x0, symName: __RNvMNtCslJiobkLta79_5alloc6stringNtB2_6String14into_boxed_strCsdGrGZaRBwMb_3syn, symObjAddr: 0x500, symBinAddr: 0xE8A0, symSize: 0x70 }
  - { offset: 0x3A58F, size: 0x8, addend: 0x0, symName: __RNvMNtCslJiobkLta79_5alloc6stringNtB2_6String3newCsdGrGZaRBwMb_3syn, symObjAddr: 0x580, symBinAddr: 0xE910, symSize: 0x40 }
  - { offset: 0x3A75B, size: 0x8, addend: 0x0, symName: __RNvMNtCslJiobkLta79_5alloc6stringNtB2_6String4pushCsdGrGZaRBwMb_3syn, symObjAddr: 0x5C0, symBinAddr: 0xE950, symSize: 0x130 }
  - { offset: 0x3AA42, size: 0x8, addend: 0x0, symName: __RNvMNtCslJiobkLta79_5alloc6stringNtB2_6String6as_strCsdGrGZaRBwMb_3syn, symObjAddr: 0x6F0, symBinAddr: 0xEA80, symSize: 0x60 }
  - { offset: 0x3AD17, size: 0x8, addend: 0x0, symName: __RNvMNtCslJiobkLta79_5alloc6stringNtB2_6String6insertCsdGrGZaRBwMb_3syn, symObjAddr: 0x750, symBinAddr: 0xEAE0, symSize: 0x370 }
  - { offset: 0x3B22B, size: 0x8, addend: 0x0, symName: __RNvMNtCslJiobkLta79_5alloc6stringNtB2_6String8is_emptyCsdGrGZaRBwMb_3syn, symObjAddr: 0xAC0, symBinAddr: 0xEE50, symSize: 0x20 }
  - { offset: 0x3B339, size: 0x8, addend: 0x0, symName: __RNvMNtCslJiobkLta79_5alloc6stringNtB2_6String8push_strCsdGrGZaRBwMb_3syn, symObjAddr: 0xAE0, symBinAddr: 0xEE70, symSize: 0x50 }
  - { offset: 0x3B5F7, size: 0x8, addend: 0x0, symName: __RNvMNtCslJiobkLta79_5alloc6stringNtB2_6String8truncateCsdGrGZaRBwMb_3syn, symObjAddr: 0xB30, symBinAddr: 0xEEC0, symSize: 0x1C0 }
  - { offset: 0x3B988, size: 0x8, addend: 0x0, symName: __RNvMNtCslJiobkLta79_5alloc6stringNtB2_6String9from_utf8CsdGrGZaRBwMb_3syn, symObjAddr: 0xCF0, symBinAddr: 0xF080, symSize: 0x1C0 }
  - { offset: 0x3BB47, size: 0x8, addend: 0x0, symName: __RNvMNtCslJiobkLta79_5alloc6stringNtB2_6String9split_offCsdGrGZaRBwMb_3syn, symObjAddr: 0xEB0, symBinAddr: 0xF240, symSize: 0x180 }
  - { offset: 0x3C038, size: 0x8, addend: 0x0, symName: __RINvNtNtCsdGrGZaRBwMb_3syn3lit5value11backslash_uShEB6_, symObjAddr: 0x0, symBinAddr: 0xFA30, symSize: 0x500 }
  - { offset: 0x3C8F0, size: 0x8, addend: 0x0, symName: __RNvXs_NtNtCslJiobkLta79_5alloc3vec15set_len_on_dropNtB4_12SetLenOnDropNtNtNtCsieiGu2EXtoJ_4core3ops4drop4Drop4dropCsdGrGZaRBwMb_3syn, symObjAddr: 0x18670, symBinAddr: 0x16600, symSize: 0x20 }
  - { offset: 0x3DB71, size: 0x8, addend: 0x0, symName: __RNvXs5_NtNtCsieiGu2EXtoJ_4core3str6traitsINtNtNtB9_3ops5range5RangejEINtNtNtB9_5slice5index10SliceIndexeE3getCsdGrGZaRBwMb_3syn, symObjAddr: 0x17590, symBinAddr: 0x16260, symSize: 0x1F0 }
  - { offset: 0x3DD3C, size: 0x8, addend: 0x0, symName: __RNvXs9_NtNtCsieiGu2EXtoJ_4core3str6traitsINtNtNtB9_3ops5range9RangeFromjEINtNtNtB9_5slice5index10SliceIndexeE3getCsdGrGZaRBwMb_3syn, symObjAddr: 0x17ED0, symBinAddr: 0x164D0, symSize: 0x130 }
  - { offset: 0x40170, size: 0x8, addend: 0x0, symName: __RNvXs5_NtNtCsieiGu2EXtoJ_4core5slice5indexINtNtNtB9_3ops5range9RangeFromjEINtB5_10SliceIndexShE3getCsdGrGZaRBwMb_3syn, symObjAddr: 0x17780, symBinAddr: 0x16450, symSize: 0x80 }
  - { offset: 0x407FB, size: 0x8, addend: 0x0, symName: __RNvNvNtCsieiGu2EXtoJ_4core9ub_checks23maybe_is_nonoverlapping7runtimeCsdGrGZaRBwMb_3syn, symObjAddr: 0x10A60, symBinAddr: 0x161A0, symSize: 0xC0 }
  - { offset: 0x439E7, size: 0x8, addend: 0x0, symName: __RINvNtNtCsdGrGZaRBwMb_3syn3lit5value11backslash_uShEB6_, symObjAddr: 0x0, symBinAddr: 0xFA30, symSize: 0x500 }
  - { offset: 0x43B72, size: 0x8, addend: 0x0, symName: __RINvNtNtCsdGrGZaRBwMb_3syn3lit5value11backslash_ueEB6_, symObjAddr: 0x500, symBinAddr: 0xFF30, symSize: 0x3C0 }
  - { offset: 0x43C5C, size: 0x8, addend: 0x0, symName: __RINvNtNtCsdGrGZaRBwMb_3syn3lit5value11backslash_xShEB6_, symObjAddr: 0x8C0, symBinAddr: 0x102F0, symSize: 0x390 }
  - { offset: 0x43CFC, size: 0x8, addend: 0x0, symName: __RINvNtNtCsdGrGZaRBwMb_3syn3lit5value11backslash_xeEB6_, symObjAddr: 0xC50, symBinAddr: 0x10680, symSize: 0x380 }
  - { offset: 0x43D75, size: 0x8, addend: 0x0, symName: __RINvNtNtCsdGrGZaRBwMb_3syn3lit5value4byteShEB6_, symObjAddr: 0xFD0, symBinAddr: 0x10A00, symSize: 0x90 }
  - { offset: 0x43DD1, size: 0x8, addend: 0x0, symName: __RINvNtNtCsdGrGZaRBwMb_3syn3lit5value4byteeEB6_, symObjAddr: 0x1060, symBinAddr: 0x10A90, symSize: 0x90 }
  - { offset: 0x43E32, size: 0x8, addend: 0x0, symName: __RNCNvNtNtCsdGrGZaRBwMb_3syn3lit5value15parse_lit_float0B7_, symObjAddr: 0x26C0, symBinAddr: 0x10B20, symSize: 0x30 }
  - { offset: 0x43E73, size: 0x8, addend: 0x0, symName: __RNvNtNtCsdGrGZaRBwMb_3syn3lit5value13parse_lit_int, symObjAddr: 0x4350, symBinAddr: 0x10B50, symSize: 0xAF0 }
  - { offset: 0x43FC2, size: 0x8, addend: 0x0, symName: __RNvNtNtCsdGrGZaRBwMb_3syn3lit5value13parse_lit_str, symObjAddr: 0x4E40, symBinAddr: 0x11640, symSize: 0xB0 }
  - { offset: 0x43FF0, size: 0x8, addend: 0x0, symName: __RNvNtNtCsdGrGZaRBwMb_3syn3lit5value14parse_lit_byte, symObjAddr: 0x4EF0, symBinAddr: 0x116F0, symSize: 0x640 }
  - { offset: 0x441EA, size: 0x8, addend: 0x0, symName: __RNvNtNtCsdGrGZaRBwMb_3syn3lit5value14parse_lit_char, symObjAddr: 0x5530, symBinAddr: 0x11D30, symSize: 0x780 }
  - { offset: 0x4439C, size: 0x8, addend: 0x0, symName: __RNvNtNtCsdGrGZaRBwMb_3syn3lit5value15parse_lit_c_str, symObjAddr: 0x5CB0, symBinAddr: 0x124B0, symSize: 0x120 }
  - { offset: 0x44416, size: 0x8, addend: 0x0, symName: __RNvNtNtCsdGrGZaRBwMb_3syn3lit5value15parse_lit_float, symObjAddr: 0x5DD0, symBinAddr: 0x125D0, symSize: 0xD30 }
  - { offset: 0x44592, size: 0x8, addend: 0x0, symName: __RNvNtNtCsdGrGZaRBwMb_3syn3lit5value17parse_lit_str_raw, symObjAddr: 0x6B00, symBinAddr: 0x13300, symSize: 0x5F0 }
  - { offset: 0x446FC, size: 0x8, addend: 0x0, symName: __RNvNtNtCsdGrGZaRBwMb_3syn3lit5value18parse_lit_byte_str, symObjAddr: 0x70F0, symBinAddr: 0x138F0, symSize: 0x120 }
  - { offset: 0x44776, size: 0x8, addend: 0x0, symName: __RNvNtNtCsdGrGZaRBwMb_3syn3lit5value19parse_lit_c_str_raw, symObjAddr: 0x7210, symBinAddr: 0x13A10, symSize: 0x340 }
  - { offset: 0x44873, size: 0x8, addend: 0x0, symName: __RNvNtNtCsdGrGZaRBwMb_3syn3lit5value20parse_lit_str_cooked, symObjAddr: 0x7550, symBinAddr: 0x13D50, symSize: 0xA60 }
  - { offset: 0x44A49, size: 0x8, addend: 0x0, symName: __RNvNtNtCsdGrGZaRBwMb_3syn3lit5value22parse_lit_byte_str_raw, symObjAddr: 0x7FB0, symBinAddr: 0x147B0, symSize: 0x280 }
  - { offset: 0x44B09, size: 0x8, addend: 0x0, symName: __RNvNtNtCsdGrGZaRBwMb_3syn3lit5value22parse_lit_c_str_cooked, symObjAddr: 0x8230, symBinAddr: 0x14A30, symSize: 0xD20 }
  - { offset: 0x44DFD, size: 0x8, addend: 0x0, symName: __RNvNtNtCsdGrGZaRBwMb_3syn3lit5value25parse_lit_byte_str_cooked, symObjAddr: 0x8F50, symBinAddr: 0x15750, symSize: 0xA10 }
  - { offset: 0x45083, size: 0x8, addend: 0x0, symName: __RNvNtNtCsdGrGZaRBwMb_3syn3lit5value8next_chr, symObjAddr: 0x9960, symBinAddr: 0x16160, symSize: 0x40 }
  - { offset: 0x4B2FD, size: 0x8, addend: 0x0, symName: __RNvYINtNtNtCsieiGu2EXtoJ_4core5slice4iter4IterhENtNtNtNtB9_4iter6traits8iterator8Iterator3revCsdGrGZaRBwMb_3syn, symObjAddr: 0xC3D0, symBinAddr: 0x17500, symSize: 0x20 }
  - { offset: 0x4B639, size: 0x8, addend: 0x0, symName: __RINvXs2E_NtNtCsieiGu2EXtoJ_4core5slice4iterINtB7_4IterhENtNtNtNtBb_4iter6traits8iterator8Iterator4findNCNvNtNtCsdGrGZaRBwMb_3syn3lit5value15parse_lit_float0EB1K_, symObjAddr: 0xA70, symBinAddr: 0x16620, symSize: 0xA0 }
  - { offset: 0x4B69E, size: 0x8, addend: 0x0, symName: __RNvXs2E_NtNtCsieiGu2EXtoJ_4core5slice4iterINtB6_4IterNtNtCsdGrGZaRBwMb_3syn5error12ErrorMessageENtNtNtNtBa_4iter6traits8iterator8Iterator4nextBT_, symObjAddr: 0x7590, symBinAddr: 0x171A0, symSize: 0x90 }
  - { offset: 0x4B819, size: 0x8, addend: 0x0, symName: __RNvXs2F_NtNtCsieiGu2EXtoJ_4core5slice4iterINtB6_4IterhENtNtNtNtBa_4iter6traits12double_ended19DoubleEndedIterator9next_backCsdGrGZaRBwMb_3syn, symObjAddr: 0x8640, symBinAddr: 0x17230, symSize: 0x100 }
  - { offset: 0x4B9E5, size: 0x8, addend: 0x0, symName: __RNvXs2M_NtNtCsieiGu2EXtoJ_4core5slice4iterINtB6_7IterMuthENtNtNtNtBa_4iter6traits8iterator8Iterator4nextCsdGrGZaRBwMb_3syn, symObjAddr: 0x88F0, symBinAddr: 0x17330, symSize: 0x90 }
  - { offset: 0x4BBC6, size: 0x8, addend: 0x0, symName: __RNvNvMNtNtCsieiGu2EXtoJ_4core5alloc6layoutNtB4_6Layout25from_size_align_unchecked18precondition_checkCsdGrGZaRBwMb_3syn, symObjAddr: 0x5710, symBinAddr: 0x16F30, symSize: 0xB0 }
  - { offset: 0x521ED, size: 0x8, addend: 0x0, symName: __RNvYINtNtCslJiobkLta79_5alloc2rc7RcInnerINtNtCsieiGu2EXtoJ_4core4cell4CellNtNtCsdGrGZaRBwMb_3syn5parse10UnexpectedEENtB5_10RcInnerPtr10inc_strongB1e_, symObjAddr: 0xC310, symBinAddr: 0x17460, symSize: 0x80 }
  - { offset: 0x5230F, size: 0x8, addend: 0x0, symName: __RNvYINtNtCslJiobkLta79_5alloc2rc7RcInnerINtNtCsieiGu2EXtoJ_4core4cell4CellNtNtCsdGrGZaRBwMb_3syn5parse10UnexpectedEENtB5_10RcInnerPtr6strongB1e_, symObjAddr: 0xC390, symBinAddr: 0x174E0, symSize: 0x20 }
  - { offset: 0x5236A, size: 0x8, addend: 0x0, symName: __RNvXs19_NtCslJiobkLta79_5alloc2rcINtB6_4WeakINtNtCsieiGu2EXtoJ_4core4cell4CellNtNtCsdGrGZaRBwMb_3syn5parse10UnexpectedERNtNtB8_5alloc6GlobalENtNtNtBL_3ops4drop4Drop4dropB1i_, symObjAddr: 0x5CB0, symBinAddr: 0x16FE0, symSize: 0x160 }
  - { offset: 0x525F0, size: 0x8, addend: 0x0, symName: __RNvXsu_NtCslJiobkLta79_5alloc2rcINtB5_2RcINtNtCsieiGu2EXtoJ_4core4cell4CellNtNtCsdGrGZaRBwMb_3syn5parse10UnexpectedEENtNtNtBI_3ops4drop4Drop4dropB1f_, symObjAddr: 0xC270, symBinAddr: 0x173C0, symSize: 0x60 }
  - { offset: 0x527FA, size: 0x8, addend: 0x0, symName: __RNvXsv_NtCslJiobkLta79_5alloc2rcINtB5_2RcINtNtCsieiGu2EXtoJ_4core4cell4CellNtNtCsdGrGZaRBwMb_3syn5parse10UnexpectedEENtNtBI_5clone5Clone5cloneB1f_, symObjAddr: 0xC2D0, symBinAddr: 0x17420, symSize: 0x40 }
  - { offset: 0x53DC5, size: 0x8, addend: 0x0, symName: __RNvXs1_NtCslJiobkLta79_5alloc7raw_vecINtB5_6RawVecNtNtCsdGrGZaRBwMb_3syn5error12ErrorMessageENtNtNtCsieiGu2EXtoJ_4core3ops4drop4Drop4dropBQ_, symObjAddr: 0x6400, symBinAddr: 0x17140, symSize: 0x30 }
  - { offset: 0x53E01, size: 0x8, addend: 0x0, symName: __RNvXs1_NtCslJiobkLta79_5alloc7raw_vecINtB5_6RawVecNtNtCsdGrGZaRBwMb_3syn6buffer5EntryENtNtNtCsieiGu2EXtoJ_4core3ops4drop4Drop4dropBQ_, symObjAddr: 0x6430, symBinAddr: 0x17170, symSize: 0x30 }
  - { offset: 0x546F4, size: 0x8, addend: 0x0, symName: __RNvMs0_NtCslJiobkLta79_5alloc7raw_vecINtB5_6RawVecNtNtCsdGrGZaRBwMb_3syn6buffer5EntryE8grow_oneBQ_, symObjAddr: 0x1CA0, symBinAddr: 0x166C0, symSize: 0x90 }
  - { offset: 0x549D5, size: 0x8, addend: 0x0, symName: __RNvMs0_NtCslJiobkLta79_5alloc7raw_vecINtB5_6RawVecNtNtCsdGrGZaRBwMb_3syn6buffer5EntryE8into_boxBQ_, symObjAddr: 0x1D30, symBinAddr: 0x16750, symSize: 0x90 }
  - { offset: 0x54D6D, size: 0x8, addend: 0x0, symName: __RNvMs2_NtCslJiobkLta79_5alloc7raw_vecNtB5_11RawVecInner14current_memoryCsdGrGZaRBwMb_3syn, symObjAddr: 0x30F0, symBinAddr: 0x167E0, symSize: 0x170 }
  - { offset: 0x54FDA, size: 0x8, addend: 0x0, symName: __RNvMs2_NtCslJiobkLta79_5alloc7raw_vecNtB5_11RawVecInner16shrink_uncheckedCsdGrGZaRBwMb_3syn, symObjAddr: 0x3260, symBinAddr: 0x16950, symSize: 0x3E0 }
  - { offset: 0x55383, size: 0x8, addend: 0x0, symName: __RNvMs2_NtCslJiobkLta79_5alloc7raw_vecNtB5_11RawVecInner6shrinkCsdGrGZaRBwMb_3syn, symObjAddr: 0x3640, symBinAddr: 0x16D30, symSize: 0xE0 }
  - { offset: 0x554A1, size: 0x8, addend: 0x0, symName: __RNvMs5_NtCslJiobkLta79_5alloc2rcINtB5_2RcINtNtCsieiGu2EXtoJ_4core4cell4CellNtNtCsdGrGZaRBwMb_3syn5parse10UnexpectedEE9drop_slowB1f_, symObjAddr: 0x4620, symBinAddr: 0x16E10, symSize: 0x70 }
  - { offset: 0x5557F, size: 0x8, addend: 0x0, symName: __RNvMs6_NtCslJiobkLta79_5alloc2rcINtB5_2RcINtNtCsieiGu2EXtoJ_4core4cell4CellNtNtCsdGrGZaRBwMb_3syn5parse10UnexpectedEE3newB1f_, symObjAddr: 0x5450, symBinAddr: 0x16E80, symSize: 0xB0 }
  - { offset: 0x56C19, size: 0x8, addend: 0x0, symName: __RNvXsw_NtCslJiobkLta79_5alloc6stringNtCsaKzlTDPUHDb_11proc_macro27LiteralNtB5_8ToString9to_stringCsdGrGZaRBwMb_3syn, symObjAddr: 0x17190, symBinAddr: 0x18B30, symSize: 0x30 }
  - { offset: 0x56C56, size: 0x8, addend: 0x0, symName: __RNvXsx_NtCslJiobkLta79_5alloc6stringNtCsaKzlTDPUHDb_11proc_macro27LiteralNtB5_12SpecToString14spec_to_stringCsdGrGZaRBwMb_3syn, symObjAddr: 0x171F0, symBinAddr: 0x18B60, symSize: 0x120 }
  - { offset: 0x56DEC, size: 0x8, addend: 0x0, symName: __RNvXs2_NtCslJiobkLta79_5alloc3streNtNtB7_6borrow7ToOwned8to_ownedCsdGrGZaRBwMb_3syn, symObjAddr: 0x15830, symBinAddr: 0x189C0, symSize: 0x50 }
  - { offset: 0x5BE5E, size: 0x8, addend: 0x0, symName: __RNvXs2_NtCsdGrGZaRBwMb_3syn3extNtCsaKzlTDPUHDb_11proc_macro211TokenStreamNtB5_14TokenStreamExt6append, symObjAddr: 0x15790, symBinAddr: 0x18980, symSize: 0x40 }
  - { offset: 0x5BE9B, size: 0x8, addend: 0x0, symName: __RNvXs3_NtCsdGrGZaRBwMb_3syn3extNtCsaKzlTDPUHDb_11proc_macro25PunctNtB5_8PunctExt11new_spanned, symObjAddr: 0x15D10, symBinAddr: 0x18A10, symSize: 0x70 }
  - { offset: 0x5C471, size: 0x8, addend: 0x0, symName: __RNvXs12_CsaKzlTDPUHDb_11proc_macro2NtB6_5IdentNtNtCsieiGu2EXtoJ_4core5clone5Clone5cloneCsdGrGZaRBwMb_3syn, symObjAddr: 0x15080, symBinAddr: 0x18800, symSize: 0x80 }
  - { offset: 0x5C4A5, size: 0x8, addend: 0x0, symName: __RNvXs13_CsaKzlTDPUHDb_11proc_macro2NtB6_7LiteralNtNtCsieiGu2EXtoJ_4core5clone5Clone5cloneCsdGrGZaRBwMb_3syn, symObjAddr: 0x15100, symBinAddr: 0x18880, symSize: 0x80 }
  - { offset: 0x5C4D9, size: 0x8, addend: 0x0, symName: __RNvXsM_CsaKzlTDPUHDb_11proc_macro2NtB5_4SpanNtNtCsieiGu2EXtoJ_4core5clone5Clone5cloneCsdGrGZaRBwMb_3syn, symObjAddr: 0x166A0, symBinAddr: 0x18A80, symSize: 0x10 }
  - { offset: 0x5C50D, size: 0x8, addend: 0x0, symName: __RNvXsU_CsaKzlTDPUHDb_11proc_macro2NtB5_9DelimiterNtNtCsieiGu2EXtoJ_4core3cmp9PartialEq2eqCsdGrGZaRBwMb_3syn, symObjAddr: 0x16710, symBinAddr: 0x18A90, symSize: 0x30 }
  - { offset: 0x5C58C, size: 0x8, addend: 0x0, symName: __RNvXsV_CsaKzlTDPUHDb_11proc_macro2NtB5_5PunctNtNtCsieiGu2EXtoJ_4core5clone5Clone5cloneCsdGrGZaRBwMb_3syn, symObjAddr: 0x16790, symBinAddr: 0x18AC0, symSize: 0x60 }
  - { offset: 0x5C5C0, size: 0x8, addend: 0x0, symName: __RNvXsX_CsaKzlTDPUHDb_11proc_macro2NtB5_7SpacingNtNtCsieiGu2EXtoJ_4core5clone5Clone5cloneCsdGrGZaRBwMb_3syn, symObjAddr: 0x167F0, symBinAddr: 0x18B20, symSize: 0x10 }
  - { offset: 0x5C5F4, size: 0x8, addend: 0x0, symName: __RNvXsz_CsaKzlTDPUHDb_11proc_macro2NtB5_5IdentINtNtCsieiGu2EXtoJ_4core3cmp9PartialEqReE2eqCsdGrGZaRBwMb_3syn, symObjAddr: 0x17430, symBinAddr: 0x18C80, symSize: 0x30 }
  - { offset: 0x5CA5D, size: 0x8, addend: 0x0, symName: __RNvXs1e_CscKtU6MdFI5n_10proc_macroNtB6_5IdentNtNtCsieiGu2EXtoJ_4core5clone5Clone5cloneCsdGrGZaRBwMb_3syn, symObjAddr: 0x155B0, symBinAddr: 0x18900, symSize: 0x40 }
  - { offset: 0x5CA91, size: 0x8, addend: 0x0, symName: __RNvXs1f_CscKtU6MdFI5n_10proc_macroNtB6_7LiteralNtNtCsieiGu2EXtoJ_4core5clone5Clone5cloneCsdGrGZaRBwMb_3syn, symObjAddr: 0x155F0, symBinAddr: 0x18940, symSize: 0x40 }
  - { offset: 0x5D002, size: 0x8, addend: 0x0, symName: __RINvNtCsieiGu2EXtoJ_4core3ptr13drop_in_placeINtNtB4_3pin3PinINtNtCslJiobkLta79_5alloc4sync3ArcNtNtCsHUR1vrdMJt_3std6thread5InnerEEECsdGrGZaRBwMb_3syn, symObjAddr: 0x30, symBinAddr: 0x17520, symSize: 0x20 }
  - { offset: 0x5D031, size: 0x8, addend: 0x0, symName: __RINvNtCsieiGu2EXtoJ_4core3ptr13drop_in_placeINtNtB4_4cell10UnsafeCellINtNtB4_6option6OptionINtNtCslJiobkLta79_5alloc2rc2RcINtBJ_4CellNtNtCsdGrGZaRBwMb_3syn5parse10UnexpectedEEEEEB2b_, symObjAddr: 0x50, symBinAddr: 0x17540, symSize: 0x20 }
  - { offset: 0x5D060, size: 0x8, addend: 0x0, symName: __RINvNtCsieiGu2EXtoJ_4core3ptr13drop_in_placeINtNtB4_4cell10UnsafeCellNtNtCsdGrGZaRBwMb_3syn5parse10UnexpectedEEB19_, symObjAddr: 0x90, symBinAddr: 0x17560, symSize: 0x20 }
  - { offset: 0x5D08F, size: 0x8, addend: 0x0, symName: __RINvNtCsieiGu2EXtoJ_4core3ptr13drop_in_placeINtNtB4_4cell4CellINtNtB4_6option6OptionINtNtCslJiobkLta79_5alloc2rc2RcIBH_NtNtCsdGrGZaRBwMb_3syn5parse10UnexpectedEEEEEB1X_, symObjAddr: 0xB0, symBinAddr: 0x17580, symSize: 0x20 }
  - { offset: 0x5D0BE, size: 0x8, addend: 0x0, symName: __RINvNtCsieiGu2EXtoJ_4core3ptr13drop_in_placeINtNtB4_4cell4CellNtNtCsdGrGZaRBwMb_3syn5parse10UnexpectedEEB12_, symObjAddr: 0xD0, symBinAddr: 0x175A0, symSize: 0x20 }
  - { offset: 0x5D0ED, size: 0x8, addend: 0x0, symName: __RINvNtCsieiGu2EXtoJ_4core3ptr13drop_in_placeINtNtB4_6option6OptionINtNtCslJiobkLta79_5alloc2rc2RcINtNtB4_4cell4CellNtNtCsdGrGZaRBwMb_3syn5parse10UnexpectedEEEEB1T_, symObjAddr: 0x190, symBinAddr: 0x175C0, symSize: 0x40 }
  - { offset: 0x5D11C, size: 0x8, addend: 0x0, symName: __RINvNtCsieiGu2EXtoJ_4core3ptr13drop_in_placeINtNtB4_6result6ResultNtNtCsdGrGZaRBwMb_3syn3lit3LitNtNtB16_5error5ErrorEEB16_, symObjAddr: 0x1170, symBinAddr: 0x17600, symSize: 0x40 }
  - { offset: 0x5D14B, size: 0x8, addend: 0x0, symName: __RINvNtCsieiGu2EXtoJ_4core3ptr13drop_in_placeINtNtB4_6result6ResultNtNtNtCslJiobkLta79_5alloc3ffi5c_str7CStringNtB14_8NulErrorEECsdGrGZaRBwMb_3syn, symObjAddr: 0x1420, symBinAddr: 0x17640, symSize: 0x50 }
  - { offset: 0x5D17A, size: 0x8, addend: 0x0, symName: __RINvNtCsieiGu2EXtoJ_4core3ptr13drop_in_placeINtNtCslJiobkLta79_5alloc2rc2RcINtNtB4_4cell4CellNtNtCsdGrGZaRBwMb_3syn5parse10UnexpectedEEEB1x_, symObjAddr: 0x1CD0, symBinAddr: 0x17690, symSize: 0x20 }
  - { offset: 0x5D1A9, size: 0x8, addend: 0x0, symName: __RINvNtCsieiGu2EXtoJ_4core3ptr13drop_in_placeINtNtCslJiobkLta79_5alloc2rc4WeakINtNtB4_4cell4CellNtNtCsdGrGZaRBwMb_3syn5parse10UnexpectedERNtNtBL_5alloc6GlobalEEB1z_, symObjAddr: 0x1CF0, symBinAddr: 0x176B0, symSize: 0x20 }
  - { offset: 0x5D1D8, size: 0x8, addend: 0x0, symName: __RINvNtCsieiGu2EXtoJ_4core3ptr13drop_in_placeINtNtCslJiobkLta79_5alloc2rc7RcInnerINtNtB4_4cell4CellNtNtCsdGrGZaRBwMb_3syn5parse10UnexpectedEEEB1C_, symObjAddr: 0x1D10, symBinAddr: 0x176D0, symSize: 0x20 }
  - { offset: 0x5D207, size: 0x8, addend: 0x0, symName: __RINvNtCsieiGu2EXtoJ_4core3ptr13drop_in_placeINtNtCslJiobkLta79_5alloc3vec3VecNtNtCsdGrGZaRBwMb_3syn5error12ErrorMessageEEB1h_, symObjAddr: 0x2000, symBinAddr: 0x176F0, symSize: 0x50 }
  - { offset: 0x5D236, size: 0x8, addend: 0x0, symName: __RINvNtCsieiGu2EXtoJ_4core3ptr13drop_in_placeINtNtCslJiobkLta79_5alloc3vec3VecNtNtCsdGrGZaRBwMb_3syn6buffer5EntryEEB1h_, symObjAddr: 0x2050, symBinAddr: 0x17740, symSize: 0x50 }
  - { offset: 0x5D265, size: 0x8, addend: 0x0, symName: __RINvNtCsieiGu2EXtoJ_4core3ptr13drop_in_placeINtNtCslJiobkLta79_5alloc4sync3ArcNtNtCsHUR1vrdMJt_3std6thread5InnerEECsdGrGZaRBwMb_3syn, symObjAddr: 0x2730, symBinAddr: 0x17790, symSize: 0x20 }
  - { offset: 0x5D294, size: 0x8, addend: 0x0, symName: __RINvNtCsieiGu2EXtoJ_4core3ptr13drop_in_placeINtNtCslJiobkLta79_5alloc5boxed3BoxNtNtCsdGrGZaRBwMb_3syn3lit10LitIntReprEEB1j_, symObjAddr: 0x2B30, symBinAddr: 0x177B0, symSize: 0x50 }
  - { offset: 0x5D2C3, size: 0x8, addend: 0x0, symName: __RINvNtCsieiGu2EXtoJ_4core3ptr13drop_in_placeINtNtCslJiobkLta79_5alloc5boxed3BoxNtNtCsdGrGZaRBwMb_3syn3lit12LitFloatReprEEB1j_, symObjAddr: 0x2B80, symBinAddr: 0x17800, symSize: 0x50 }
  - { offset: 0x5D2F2, size: 0x8, addend: 0x0, symName: __RINvNtCsieiGu2EXtoJ_4core3ptr13drop_in_placeINtNtCslJiobkLta79_5alloc5boxed3BoxNtNtCsdGrGZaRBwMb_3syn3lit7LitReprEEB1j_, symObjAddr: 0x2BD0, symBinAddr: 0x17850, symSize: 0x50 }
  - { offset: 0x5D321, size: 0x8, addend: 0x0, symName: __RINvNtCsieiGu2EXtoJ_4core3ptr13drop_in_placeINtNtCslJiobkLta79_5alloc5boxed3BoxSNtNtCsdGrGZaRBwMb_3syn6buffer5EntryEEB1k_, symObjAddr: 0x3170, symBinAddr: 0x178A0, symSize: 0x60 }
  - { offset: 0x5D350, size: 0x8, addend: 0x0, symName: __RINvNtCsieiGu2EXtoJ_4core3ptr13drop_in_placeINtNtCslJiobkLta79_5alloc5boxed3BoxShEECsdGrGZaRBwMb_3syn, symObjAddr: 0x31D0, symBinAddr: 0x17900, symSize: 0x20 }
  - { offset: 0x5D37F, size: 0x8, addend: 0x0, symName: __RINvNtCsieiGu2EXtoJ_4core3ptr13drop_in_placeINtNtCslJiobkLta79_5alloc7raw_vec6RawVecNtNtCsdGrGZaRBwMb_3syn5error12ErrorMessageEEB1o_, symObjAddr: 0x3310, symBinAddr: 0x17920, symSize: 0x20 }
  - { offset: 0x5D3AE, size: 0x8, addend: 0x0, symName: __RINvNtCsieiGu2EXtoJ_4core3ptr13drop_in_placeINtNtCslJiobkLta79_5alloc7raw_vec6RawVecNtNtCsdGrGZaRBwMb_3syn6buffer5EntryEEB1o_, symObjAddr: 0x3330, symBinAddr: 0x17940, symSize: 0x20 }
  - { offset: 0x5D3DD, size: 0x8, addend: 0x0, symName: __RINvNtCsieiGu2EXtoJ_4core3ptr13drop_in_placeNtNtCsHUR1vrdMJt_3std6thread6ThreadECsdGrGZaRBwMb_3syn, symObjAddr: 0x3B70, symBinAddr: 0x17960, symSize: 0x20 }
  - { offset: 0x5D40C, size: 0x8, addend: 0x0, symName: __RINvNtCsieiGu2EXtoJ_4core3ptr13drop_in_placeNtNtCsdGrGZaRBwMb_3syn3lit10LitByteStrEBK_, symObjAddr: 0x4180, symBinAddr: 0x17980, symSize: 0x20 }
  - { offset: 0x5D43B, size: 0x8, addend: 0x0, symName: __RINvNtCsieiGu2EXtoJ_4core3ptr13drop_in_placeNtNtCsdGrGZaRBwMb_3syn3lit10LitIntReprEBK_, symObjAddr: 0x41A0, symBinAddr: 0x179A0, symSize: 0x90 }
  - { offset: 0x5D46A, size: 0x8, addend: 0x0, symName: __RINvNtCsieiGu2EXtoJ_4core3ptr13drop_in_placeNtNtCsdGrGZaRBwMb_3syn3lit12LitFloatReprEBK_, symObjAddr: 0x4230, symBinAddr: 0x17A30, symSize: 0x90 }
  - { offset: 0x5D499, size: 0x8, addend: 0x0, symName: __RINvNtCsieiGu2EXtoJ_4core3ptr13drop_in_placeNtNtCsdGrGZaRBwMb_3syn3lit3LitEBK_, symObjAddr: 0x42C0, symBinAddr: 0x17AC0, symSize: 0xF0 }
  - { offset: 0x5D4C8, size: 0x8, addend: 0x0, symName: __RINvNtCsieiGu2EXtoJ_4core3ptr13drop_in_placeNtNtCsdGrGZaRBwMb_3syn3lit6LitIntEBK_, symObjAddr: 0x43B0, symBinAddr: 0x17BB0, symSize: 0x20 }
  - { offset: 0x5D4F7, size: 0x8, addend: 0x0, symName: __RINvNtCsieiGu2EXtoJ_4core3ptr13drop_in_placeNtNtCsdGrGZaRBwMb_3syn3lit6LitStrEBK_, symObjAddr: 0x43D0, symBinAddr: 0x17BD0, symSize: 0x20 }
  - { offset: 0x5D526, size: 0x8, addend: 0x0, symName: __RINvNtCsieiGu2EXtoJ_4core3ptr13drop_in_placeNtNtCsdGrGZaRBwMb_3syn3lit7LitByteEBK_, symObjAddr: 0x43F0, symBinAddr: 0x17BF0, symSize: 0x20 }
  - { offset: 0x5D555, size: 0x8, addend: 0x0, symName: __RINvNtCsieiGu2EXtoJ_4core3ptr13drop_in_placeNtNtCsdGrGZaRBwMb_3syn3lit7LitCStrEBK_, symObjAddr: 0x4410, symBinAddr: 0x17C10, symSize: 0x20 }
  - { offset: 0x5D584, size: 0x8, addend: 0x0, symName: __RINvNtCsieiGu2EXtoJ_4core3ptr13drop_in_placeNtNtCsdGrGZaRBwMb_3syn3lit7LitCharEBK_, symObjAddr: 0x4430, symBinAddr: 0x17C30, symSize: 0x20 }
  - { offset: 0x5D5B3, size: 0x8, addend: 0x0, symName: __RINvNtCsieiGu2EXtoJ_4core3ptr13drop_in_placeNtNtCsdGrGZaRBwMb_3syn3lit7LitReprEBK_, symObjAddr: 0x4450, symBinAddr: 0x17C50, symSize: 0x60 }
  - { offset: 0x5D5E2, size: 0x8, addend: 0x0, symName: __RINvNtCsieiGu2EXtoJ_4core3ptr13drop_in_placeNtNtCsdGrGZaRBwMb_3syn3lit8LitFloatEBK_, symObjAddr: 0x44B0, symBinAddr: 0x17CB0, symSize: 0x20 }
  - { offset: 0x5D611, size: 0x8, addend: 0x0, symName: __RINvNtCsieiGu2EXtoJ_4core3ptr13drop_in_placeNtNtCsdGrGZaRBwMb_3syn5error12ErrorMessageEBK_, symObjAddr: 0x8B40, symBinAddr: 0x17CD0, symSize: 0x20 }
  - { offset: 0x5D640, size: 0x8, addend: 0x0, symName: __RINvNtCsieiGu2EXtoJ_4core3ptr13drop_in_placeNtNtCsdGrGZaRBwMb_3syn5error5ErrorEBK_, symObjAddr: 0x8B60, symBinAddr: 0x17CF0, symSize: 0x20 }
  - { offset: 0x5D66F, size: 0x8, addend: 0x0, symName: __RINvNtCsieiGu2EXtoJ_4core3ptr13drop_in_placeNtNtCsdGrGZaRBwMb_3syn5parse10UnexpectedEBK_, symObjAddr: 0x8BA0, symBinAddr: 0x17D10, symSize: 0x30 }
  - { offset: 0x5D69E, size: 0x8, addend: 0x0, symName: __RINvNtCsieiGu2EXtoJ_4core3ptr13drop_in_placeNtNtCsdGrGZaRBwMb_3syn5parse11ParseBufferEBK_, symObjAddr: 0x8BD0, symBinAddr: 0x17D40, symSize: 0x60 }
  - { offset: 0x5D6CD, size: 0x8, addend: 0x0, symName: __RINvNtCsieiGu2EXtoJ_4core3ptr13drop_in_placeNtNtCsdGrGZaRBwMb_3syn6bigint6BigIntEBK_, symObjAddr: 0x8C30, symBinAddr: 0x17DA0, symSize: 0x20 }
  - { offset: 0x5D6FC, size: 0x8, addend: 0x0, symName: __RINvNtCsieiGu2EXtoJ_4core3ptr13drop_in_placeNtNtCsdGrGZaRBwMb_3syn6buffer11TokenBufferEBK_, symObjAddr: 0x8C50, symBinAddr: 0x17DC0, symSize: 0x20 }
  - { offset: 0x5D72B, size: 0x8, addend: 0x0, symName: __RINvNtCsieiGu2EXtoJ_4core3ptr13drop_in_placeNtNtCsdGrGZaRBwMb_3syn6buffer5EntryEBK_, symObjAddr: 0x8C70, symBinAddr: 0x17DE0, symSize: 0x80 }
  - { offset: 0x5D75A, size: 0x8, addend: 0x0, symName: __RINvNtCsieiGu2EXtoJ_4core3ptr13drop_in_placeNtNtCslJiobkLta79_5alloc6string13FromUtf8ErrorECsdGrGZaRBwMb_3syn, symObjAddr: 0x93B0, symBinAddr: 0x17E60, symSize: 0x20 }
  - { offset: 0x5D789, size: 0x8, addend: 0x0, symName: __RINvNtCsieiGu2EXtoJ_4core3ptr13drop_in_placeNtNtNtCslJiobkLta79_5alloc3ffi5c_str7CStringECsdGrGZaRBwMb_3syn, symObjAddr: 0x94A0, symBinAddr: 0x17E80, symSize: 0x50 }
  - { offset: 0x5D7B8, size: 0x8, addend: 0x0, symName: __RINvNtCsieiGu2EXtoJ_4core3ptr13drop_in_placeNtNtNtCslJiobkLta79_5alloc3ffi5c_str8NulErrorECsdGrGZaRBwMb_3syn, symObjAddr: 0x94F0, symBinAddr: 0x17ED0, symSize: 0x20 }
  - { offset: 0x5D7E7, size: 0x8, addend: 0x0, symName: __RINvNtCsieiGu2EXtoJ_4core3ptr13drop_in_placeNtNtNtCslJiobkLta79_5alloc3vec15set_len_on_drop12SetLenOnDropECsdGrGZaRBwMb_3syn, symObjAddr: 0x9510, symBinAddr: 0x17EF0, symSize: 0x20 }
  - { offset: 0x5D816, size: 0x8, addend: 0x0, symName: __RINvNtCsieiGu2EXtoJ_4core3ptr13drop_in_placeSNtNtCsdGrGZaRBwMb_3syn5error12ErrorMessageEBL_, symObjAddr: 0x9AF0, symBinAddr: 0x17F10, symSize: 0xA0 }
  - { offset: 0x5D845, size: 0x8, addend: 0x0, symName: __RINvNtCsieiGu2EXtoJ_4core3ptr13drop_in_placeSNtNtCsdGrGZaRBwMb_3syn6buffer5EntryEBL_, symObjAddr: 0x9B90, symBinAddr: 0x17FB0, symSize: 0xA0 }
  - { offset: 0x5D874, size: 0x8, addend: 0x0, symName: __RINvNtCsieiGu2EXtoJ_4core3ptr13drop_in_placeTINtNtCslJiobkLta79_5alloc2rc2RcINtNtB4_4cell4CellNtNtCsdGrGZaRBwMb_3syn5parse10UnexpectedEEINtNtB4_6option6OptionTNtCsaKzlTDPUHDb_11proc_macro24SpanNtB2z_9DelimiterEEEEB1y_, symObjAddr: 0xA8F0, symBinAddr: 0x18050, symSize: 0x20 }
  - { offset: 0x5F98D, size: 0x8, addend: 0x0, symName: __RNvNvNtNtCsieiGu2EXtoJ_4core5slice3raw14from_raw_parts18precondition_checkCsdGrGZaRBwMb_3syn, symObjAddr: 0x144C0, symBinAddr: 0x18340, symSize: 0x260 }
  - { offset: 0x5FB5B, size: 0x8, addend: 0x0, symName: __RNvNvNtNtCsieiGu2EXtoJ_4core5slice3raw18from_raw_parts_mut18precondition_checkCsdGrGZaRBwMb_3syn, symObjAddr: 0x14720, symBinAddr: 0x185A0, symSize: 0x260 }
  - { offset: 0x5FF6E, size: 0x8, addend: 0x0, symName: __RNvMNtNtCsieiGu2EXtoJ_4core4char7methodsc11encode_utf8CsdGrGZaRBwMb_3syn, symObjAddr: 0xDBF0, symBinAddr: 0x18070, symSize: 0x30 }
  - { offset: 0x5FFAB, size: 0x8, addend: 0x0, symName: __RNvMNtNtCsieiGu2EXtoJ_4core4char7methodsc8len_utf8CsdGrGZaRBwMb_3syn, symObjAddr: 0xDC80, symBinAddr: 0x180A0, symSize: 0x20 }
  - { offset: 0x6002C, size: 0x8, addend: 0x0, symName: __RNvNtNtCsieiGu2EXtoJ_4core4char7methods15encode_utf8_rawCsdGrGZaRBwMb_3syn, symObjAddr: 0x14240, symBinAddr: 0x180C0, symSize: 0xE0 }
  - { offset: 0x6012C, size: 0x8, addend: 0x0, symName: __RNvNtNtCsieiGu2EXtoJ_4core4char7methods25encode_utf8_raw_uncheckedCsdGrGZaRBwMb_3syn, symObjAddr: 0x14320, symBinAddr: 0x181A0, symSize: 0x140 }
  - { offset: 0x602D0, size: 0x8, addend: 0x0, symName: __RNvNtNtCsieiGu2EXtoJ_4core4char7methods8len_utf8CsdGrGZaRBwMb_3syn, symObjAddr: 0x14460, symBinAddr: 0x182E0, symSize: 0x60 }
  - { offset: 0x6226B, size: 0x8, addend: 0x0, symName: __RNvXsp_NtCsieiGu2EXtoJ_4core6resultINtB5_6ResultNtNtCsdGrGZaRBwMb_3syn3lit6LitIntNtNtBO_5error5ErrorENtNtNtB7_3ops9try_trait3Try6branchBO_, symObjAddr: 0xBA60, symBinAddr: 0x19BB0, symSize: 0xB0 }
  - { offset: 0x622E8, size: 0x8, addend: 0x0, symName: __RNvXsp_NtCsieiGu2EXtoJ_4core6resultINtB5_6ResultTNtNtCsdGrGZaRBwMb_3syn3lit3LitNtNtBP_6buffer6CursorENtNtBP_5error5ErrorENtNtNtB7_3ops9try_trait3Try6branchBP_, symObjAddr: 0x12840, symBinAddr: 0x19C60, symSize: 0xD0 }
  - { offset: 0x62366, size: 0x8, addend: 0x0, symName: __RNvXsp_NtCsieiGu2EXtoJ_4core6resultINtB5_6ResultuNtNtCsdGrGZaRBwMb_3syn5error5ErrorENtNtNtB7_3ops9try_trait3Try6branchBP_, symObjAddr: 0x12FF0, symBinAddr: 0x19D30, symSize: 0xA0 }
  - { offset: 0x623E9, size: 0x8, addend: 0x0, symName: __RNvXsq_NtCsieiGu2EXtoJ_4core6resultINtB5_6ResultNtNtCsdGrGZaRBwMb_3syn3lit3LitNtNtBO_5error5ErrorEINtNtNtB7_3ops9try_trait12FromResidualIBy_NtNtB7_7convert10InfallibleB1e_EE13from_residualBO_, symObjAddr: 0x14A70, symBinAddr: 0x19DD0, symSize: 0x60 }
  - { offset: 0x62B4E, size: 0x8, addend: 0x0, symName: __RINvNtNtCsieiGu2EXtoJ_4core3str11validations23next_code_point_reverseINtNtNtB6_5slice4iter4IterhEECsdGrGZaRBwMb_3syn, symObjAddr: 0x6490, symBinAddr: 0x18CB0, symSize: 0x290 }
  - { offset: 0x62E1F, size: 0x8, addend: 0x0, symName: __RNvNvXs5_NtNtCsieiGu2EXtoJ_4core3str6traitsINtNtNtBb_3ops5range5RangejEINtNtNtBb_5slice5index10SliceIndexeE13get_unchecked18precondition_checkCsdGrGZaRBwMb_3syn, symObjAddr: 0x78C0, symBinAddr: 0x18FD0, symSize: 0xC0 }
  - { offset: 0x62E9C, size: 0x8, addend: 0x0, symName: __RNvXs_NtNtCsieiGu2EXtoJ_4core3str6traitseNtNtB8_3cmp9PartialEq2eqCsdGrGZaRBwMb_3syn, symObjAddr: 0x8090, symBinAddr: 0x19660, symSize: 0x90 }
  - { offset: 0x630E9, size: 0x8, addend: 0x0, symName: __RNvXs0_NtNtCsieiGu2EXtoJ_4core3str7patternNtB5_12CharSearcherNtB5_15ReverseSearcher15next_match_backCsdGrGZaRBwMb_3syn, symObjAddr: 0x79A0, symBinAddr: 0x19090, symSize: 0x4B0 }
  - { offset: 0x6371E, size: 0x8, addend: 0x0, symName: __RNvXs2_NtNtCsieiGu2EXtoJ_4core3str7patterncNtB5_7Pattern13into_searcherCsdGrGZaRBwMb_3syn, symObjAddr: 0x7F70, symBinAddr: 0x19540, symSize: 0x120 }
  - { offset: 0x6383F, size: 0x8, addend: 0x0, symName: __RNvXs_NtNtCsieiGu2EXtoJ_4core3str7patternNtB4_12CharSearcherNtB4_8Searcher10next_matchCsdGrGZaRBwMb_3syn, symObjAddr: 0x8120, symBinAddr: 0x196F0, symSize: 0x4A0 }
  - { offset: 0x63DE4, size: 0x8, addend: 0x0, symName: __RNvXs_NtNtCsieiGu2EXtoJ_4core3str7patternNtB4_12CharSearcherNtB4_8Searcher8haystackCsdGrGZaRBwMb_3syn, symObjAddr: 0x85C0, symBinAddr: 0x19B90, symSize: 0x20 }
  - { offset: 0x64CE4, size: 0x8, addend: 0x0, symName: __RNvXsw_NtCslJiobkLta79_5alloc6stringNtNtNtCsieiGu2EXtoJ_4core3num5error13ParseIntErrorNtB5_8ToString9to_stringCsdGrGZaRBwMb_3syn, symObjAddr: 0x19BD0, symBinAddr: 0x19E30, symSize: 0x30 }
  - { offset: 0x64D21, size: 0x8, addend: 0x0, symName: __RNvXsx_NtCslJiobkLta79_5alloc6stringNtNtNtCsieiGu2EXtoJ_4core3num5error13ParseIntErrorNtB5_12SpecToString14spec_to_stringCsdGrGZaRBwMb_3syn, symObjAddr: 0x19C00, symBinAddr: 0x19E60, symSize: 0x120 }
  - { offset: 0x655A2, size: 0x8, addend: 0x0, symName: __RNvMNtCsieiGu2EXtoJ_4core6resultINtB2_6ResultNtNtNtCslJiobkLta79_5alloc3ffi5c_str7CStringNtBJ_8NulErrorE2okCsdGrGZaRBwMb_3syn, symObjAddr: 0x77A0, symBinAddr: 0x18F40, symSize: 0x90 }
  - { offset: 0x68ECB, size: 0x8, addend: 0x0, symName: __RNCNvXNtNtCsdGrGZaRBwMb_3syn3lit7parsingNtB6_3LitNtNtB8_5parse5Parse5parse0B8_, symObjAddr: 0x8390, symBinAddr: 0x1A4A0, symSize: 0x590 }
  - { offset: 0x68FE3, size: 0x8, addend: 0x0, symName: __RNvXNtNtCsdGrGZaRBwMb_3syn3lit7parsingNtB4_3LitNtNtB6_5parse5Parse5parse, symObjAddr: 0x120A0, symBinAddr: 0x1D060, symSize: 0x30 }
  - { offset: 0x69012, size: 0x8, addend: 0x0, symName: __RNvNtNtCsdGrGZaRBwMb_3syn3lit7parsing18parse_negative_lit, symObjAddr: 0x107F0, symBinAddr: 0x1C420, symSize: 0xB20 }
  - { offset: 0x69211, size: 0x8, addend: 0x0, symName: __RNvXs4_NtNtCsdGrGZaRBwMb_3syn3lit7parsingNtB7_6LitIntNtNtB9_5parse5Parse5parse, symObjAddr: 0x14130, symBinAddr: 0x1D0B0, symSize: 0x220 }
  - { offset: 0x6E617, size: 0x8, addend: 0x0, symName: __RINvNtCsdGrGZaRBwMb_3syn5parse10cell_cloneINtNtCsieiGu2EXtoJ_4core6option6OptionINtNtCslJiobkLta79_5alloc2rc2RcINtNtBJ_4cell4CellNtB2_10UnexpectedEEEEB4_, symObjAddr: 0x7220, symBinAddr: 0x1A320, symSize: 0xB0 }
  - { offset: 0x6E67A, size: 0x8, addend: 0x0, symName: __RINvNtCsdGrGZaRBwMb_3syn5parse10cell_cloneNtB2_10UnexpectedEB4_, symObjAddr: 0x72D0, symBinAddr: 0x1A3D0, symSize: 0xD0 }
  - { offset: 0x6E6DE, size: 0x8, addend: 0x0, symName: __RNvNtCsdGrGZaRBwMb_3syn5parse14get_unexpected, symObjAddr: 0x10230, symBinAddr: 0x1BE80, symSize: 0x60 }
  - { offset: 0x6E72A, size: 0x8, addend: 0x0, symName: __RNvNtCsdGrGZaRBwMb_3syn5parse16inner_unexpected, symObjAddr: 0x10290, symBinAddr: 0x1BEE0, symSize: 0x160 }
  - { offset: 0x6E804, size: 0x8, addend: 0x0, symName: __RNvNtCsdGrGZaRBwMb_3syn5parse16new_parse_buffer, symObjAddr: 0x103F0, symBinAddr: 0x1C040, symSize: 0xE0 }
  - { offset: 0x6E850, size: 0x8, addend: 0x0, symName: __RNvNtCsdGrGZaRBwMb_3syn5parse20err_unexpected_token, symObjAddr: 0x104F0, symBinAddr: 0x1C120, symSize: 0xE0 }
  - { offset: 0x6E8AB, size: 0x8, addend: 0x0, symName: __RNvNtCsdGrGZaRBwMb_3syn5parse22tokens_to_parse_buffer, symObjAddr: 0x105D0, symBinAddr: 0x1C200, symSize: 0x90 }
  - { offset: 0x6E933, size: 0x8, addend: 0x0, symName: __RNvNtCsdGrGZaRBwMb_3syn5parse33span_of_unexpected_ignoring_nones, symObjAddr: 0x10660, symBinAddr: 0x1C290, symSize: 0x190 }
  - { offset: 0x6E9B3, size: 0x8, addend: 0x0, symName: __RNvXNtCsdGrGZaRBwMb_3syn5parseNtB2_11ParseBufferNtNtNtCsieiGu2EXtoJ_4core3ops4drop4Drop4drop, symObjAddr: 0x11F40, symBinAddr: 0x1CF40, symSize: 0x120 }
  - { offset: 0x6EA82, size: 0x8, addend: 0x0, symName: __RNvXs3_NtCsdGrGZaRBwMb_3syn5parseNtB5_10StepCursorNtNtNtCsieiGu2EXtoJ_4core3ops5deref5Deref5deref, symObjAddr: 0x13550, symBinAddr: 0x1D090, symSize: 0x20 }
  - { offset: 0x6EAB6, size: 0x8, addend: 0x0, symName: __RNvXs7_NtCsdGrGZaRBwMb_3syn5parseNtB5_10UnexpectedNtNtCsieiGu2EXtoJ_4core7default7Default7default, symObjAddr: 0x14C40, symBinAddr: 0x1D2D0, symSize: 0x20 }
  - { offset: 0x6EADA, size: 0x8, addend: 0x0, symName: __RNvXs8_NtCsdGrGZaRBwMb_3syn5parseNtB5_10UnexpectedNtNtCsieiGu2EXtoJ_4core5clone5Clone5clone, symObjAddr: 0x14EB0, symBinAddr: 0x1D2F0, symSize: 0xB0 }
  - { offset: 0x7AB36, size: 0x8, addend: 0x0, symName: __RNvXsA_NtCslJiobkLta79_5alloc4syncINtB5_3ArcNtNtCsHUR1vrdMJt_3std6thread5InnerENtNtNtCsieiGu2EXtoJ_4core3ops4drop4Drop4dropCsdGrGZaRBwMb_3syn, symObjAddr: 0x14FF0, symBinAddr: 0x1D3A0, symSize: 0x80 }
  - { offset: 0x7B3D7, size: 0x8, addend: 0x0, symName: __RINvMs6_NtCsdGrGZaRBwMb_3syn5parseNtB6_10StepCursor5errorReEB8_, symObjAddr: 0x7F0, symBinAddr: 0x19F80, symSize: 0x50 }
  - { offset: 0x7BF72, size: 0x8, addend: 0x0, symName: __RINvMs9_NtCsdGrGZaRBwMb_3syn5parseNtB6_11ParseBuffer4stepNCNvXNtNtB8_3lit7parsingNtB10_3LitNtB6_5Parse5parse0B1h_EB8_, symObjAddr: 0x2A10, symBinAddr: 0x19FD0, symSize: 0x270 }
  - { offset: 0x7C025, size: 0x8, addend: 0x0, symName: __RINvMs9_NtCsdGrGZaRBwMb_3syn5parseNtB6_11ParseBuffer5errorReEB8_, symObjAddr: 0x42C0, symBinAddr: 0x1A240, symSize: 0xB0 }
  - { offset: 0x7C060, size: 0x8, addend: 0x0, symName: __RINvMs9_NtCsdGrGZaRBwMb_3syn5parseNtB6_11ParseBuffer5parseNtNtB8_3lit3LitEB8_, symObjAddr: 0x4CA0, symBinAddr: 0x1A2F0, symSize: 0x30 }
  - { offset: 0x7C0E9, size: 0x8, addend: 0x0, symName: __RNvMNtNtCsdGrGZaRBwMb_3syn3lit5valueNtB4_3Lit3new, symObjAddr: 0xA350, symBinAddr: 0x1AA30, symSize: 0x110 }
  - { offset: 0x7C131, size: 0x8, addend: 0x0, symName: __RNvMNtNtCsdGrGZaRBwMb_3syn3lit5valueNtB4_3Lit8from_str, symObjAddr: 0xA7A0, symBinAddr: 0x1AB40, symSize: 0x10E0 }
  - { offset: 0x7C3C2, size: 0x8, addend: 0x0, symName: __RNvMs3_NtCsdGrGZaRBwMb_3syn3litNtB5_6LitInt13base10_digits, symObjAddr: 0xCA40, symBinAddr: 0x1BC20, symSize: 0x70 }
  - { offset: 0x7C428, size: 0x8, addend: 0x0, symName: __RNvMs3_NtCsdGrGZaRBwMb_3syn3litNtB5_6LitInt4span, symObjAddr: 0xCE90, symBinAddr: 0x1BC90, symSize: 0x70 }
  - { offset: 0x7C48C, size: 0x8, addend: 0x0, symName: __RNvMs9_NtCsdGrGZaRBwMb_3syn5parseNtB5_11ParseBuffer16check_unexpected, symObjAddr: 0xDB00, symBinAddr: 0x1BD00, symSize: 0xD0 }
  - { offset: 0x7C4D5, size: 0x8, addend: 0x0, symName: __RNvMs9_NtCsdGrGZaRBwMb_3syn5parseNtB5_11ParseBuffer4fork, symObjAddr: 0xDBD0, symBinAddr: 0x1BDD0, symSize: 0x90 }
  - { offset: 0x7C4F8, size: 0x8, addend: 0x0, symName: __RNvMs9_NtCsdGrGZaRBwMb_3syn5parseNtB5_11ParseBuffer6cursor, symObjAddr: 0xDCD0, symBinAddr: 0x1BE60, symSize: 0x20 }
  - { offset: 0x7C8B3, size: 0x8, addend: 0x0, symName: __RNvXs_NtCslJiobkLta79_5alloc5allocNtB4_6GlobalNtNtCsieiGu2EXtoJ_4core5alloc9Allocator10deallocateCsdGrGZaRBwMb_3syn, symObjAddr: 0x10260, symBinAddr: 0x1D8C0, symSize: 0x70 }
  - { offset: 0x7C9D4, size: 0x8, addend: 0x0, symName: __RNvXs_NtCslJiobkLta79_5alloc5allocNtB4_6GlobalNtNtCsieiGu2EXtoJ_4core5alloc9Allocator6shrinkCsdGrGZaRBwMb_3syn, symObjAddr: 0x102D0, symBinAddr: 0x1D930, symSize: 0x5D0 }
  - { offset: 0x7D0AA, size: 0x8, addend: 0x0, symName: __RNvNtCslJiobkLta79_5alloc5alloc15exchange_mallocCsdGrGZaRBwMb_3syn, symObjAddr: 0x55D0, symBinAddr: 0x1D6D0, symSize: 0xA0 }
  - { offset: 0x7D146, size: 0x8, addend: 0x0, symName: __RNvXs1_NtCslJiobkLta79_5alloc5allocNtB5_6GlobalNtNtCsieiGu2EXtoJ_4core5clone5Clone5cloneCsdGrGZaRBwMb_3syn, symObjAddr: 0xA6D0, symBinAddr: 0x1D870, symSize: 0x10 }
  - { offset: 0x7DA45, size: 0x8, addend: 0x0, symName: __RNvXs7_NtNtCsieiGu2EXtoJ_4core3cmp5implsReNtB7_9PartialEq2eqCsdGrGZaRBwMb_3syn, symObjAddr: 0xE620, symBinAddr: 0x1D880, symSize: 0x40 }
  - { offset: 0x7DB57, size: 0x8, addend: 0x0, symName: __RNvNtNtCsieiGu2EXtoJ_4core5slice6memchr6memchrCsdGrGZaRBwMb_3syn, symObjAddr: 0x6050, symBinAddr: 0x1D770, symSize: 0xE0 }
  - { offset: 0x7DBD6, size: 0x8, addend: 0x0, symName: __RNvXs_NtNtNtCsieiGu2EXtoJ_4core4iter8adapters3revINtB4_3RevINtNtNtBa_5slice4iter4IterhEENtNtNtB8_6traits8iterator8Iterator4nextCsdGrGZaRBwMb_3syn, symObjAddr: 0x11AC0, symBinAddr: 0x1DF00, symSize: 0x20 }
  - { offset: 0x7DC3B, size: 0x8, addend: 0x0, symName: __RNvXNtNtNtCsieiGu2EXtoJ_4core4iter6traits7collectINtNtNtB6_8adapters3rev3RevINtNtNtB8_5slice4iter4IterhEENtB2_12IntoIterator9into_iterCsdGrGZaRBwMb_3syn, symObjAddr: 0x94B0, symBinAddr: 0x1D850, symSize: 0x20 }
  - { offset: 0x7E1B6, size: 0x8, addend: 0x0, symName: __RNvNtCsieiGu2EXtoJ_4core4char8from_u32CsdGrGZaRBwMb_3syn, symObjAddr: 0x55B0, symBinAddr: 0x1D6B0, symSize: 0x20 }
  - { offset: 0x7E5EF, size: 0x8, addend: 0x0, symName: __RNvMNtCslJiobkLta79_5alloc5allocNtB2_6Global10alloc_implCsdGrGZaRBwMb_3syn, symObjAddr: 0x1B50, symBinAddr: 0x1D420, symSize: 0x290 }
  - { offset: 0x7ECAB, size: 0x8, addend: 0x0, symName: __RINvMNtCsieiGu2EXtoJ_4core5sliceSh3getINtNtNtB5_3ops5range9RangeFromjEECsdGrGZaRBwMb_3syn, symObjAddr: 0x0, symBinAddr: 0x1DF20, symSize: 0x30 }
  - { offset: 0x7ED2C, size: 0x8, addend: 0x0, symName: __RNvXs0_NtCsdGrGZaRBwMb_3syn6bigintNtB5_6BigIntINtNtNtCsieiGu2EXtoJ_4core3ops5arith9MulAssignhE10mul_assign, symObjAddr: 0x5120, symBinAddr: 0x1E4A0, symSize: 0xF0 }
  - { offset: 0x7EDC4, size: 0x8, addend: 0x0, symName: __RNvXs_NtCsdGrGZaRBwMb_3syn6bigintNtB4_6BigIntINtNtNtCsieiGu2EXtoJ_4core3ops5arith9AddAssignhE10add_assign, symObjAddr: 0xCD90, symBinAddr: 0x1E6D0, symSize: 0xE0 }
  - { offset: 0x7F026, size: 0x8, addend: 0x0, symName: __RNvXsF_NtCsaKzlTDPUHDb_11proc_macro23impNtB5_5IdentNtNtCsieiGu2EXtoJ_4core5clone5Clone5cloneCsdGrGZaRBwMb_3syn, symObjAddr: 0xC890, symBinAddr: 0x1E590, symSize: 0x90 }
  - { offset: 0x7F096, size: 0x8, addend: 0x0, symName: __RNvXsG_NtCsaKzlTDPUHDb_11proc_macro23impNtB5_7LiteralNtNtCsieiGu2EXtoJ_4core5clone5Clone5cloneCsdGrGZaRBwMb_3syn, symObjAddr: 0xC920, symBinAddr: 0x1E620, symSize: 0xB0 }
  - { offset: 0x7F106, size: 0x8, addend: 0x0, symName: __RNvXss_NtCsaKzlTDPUHDb_11proc_macro23impNtB5_5IdentINtNtCsieiGu2EXtoJ_4core3cmp9PartialEqRReE2eqCsdGrGZaRBwMb_3syn, symObjAddr: 0x14C30, symBinAddr: 0x1E7B0, symSize: 0xF0 }
  - { offset: 0x7F5E2, size: 0x8, addend: 0x0, symName: __RNvNvMs1_NtNtCsieiGu2EXtoJ_4core3ptr8non_nullINtB7_7NonNullpE13new_unchecked18precondition_checkCsdGrGZaRBwMb_3syn, symObjAddr: 0x4F20, symBinAddr: 0x1E410, symSize: 0x90 }
  - { offset: 0x7F8A8, size: 0x8, addend: 0x0, symName: __RINvMNtCsieiGu2EXtoJ_4core5sliceSh3getINtNtNtB5_3ops5range9RangeFromjEECsdGrGZaRBwMb_3syn, symObjAddr: 0x0, symBinAddr: 0x1DF20, symSize: 0x30 }
  - { offset: 0x7FE2A, size: 0x8, addend: 0x0, symName: __RNvMNtCsdGrGZaRBwMb_3syn6bigintNtB2_6BigInt18reserve_two_digits, symObjAddr: 0x4690, symBinAddr: 0x1DF50, symSize: 0xE0 }
  - { offset: 0x7FE7E, size: 0x8, addend: 0x0, symName: __RNvMNtCsdGrGZaRBwMb_3syn6bigintNtB2_6BigInt3new, symObjAddr: 0x4770, symBinAddr: 0x1E030, symSize: 0x50 }
  - { offset: 0x7FE9E, size: 0x8, addend: 0x0, symName: __RNvMNtCsdGrGZaRBwMb_3syn6bigintNtB2_6BigInt9to_string, symObjAddr: 0x47C0, symBinAddr: 0x1E080, symSize: 0x220 }
  - { offset: 0x7FF50, size: 0x8, addend: 0x0, symName: __RNvMs0_NtCsdGrGZaRBwMb_3syn6threadINtB5_11ThreadBoundNtNtB7_5error9SpanRangeE3getB7_, symObjAddr: 0x49E0, symBinAddr: 0x1E2A0, symSize: 0xC0 }
  - { offset: 0x7FF7B, size: 0x8, addend: 0x0, symName: __RNvMs0_NtCsdGrGZaRBwMb_3syn6threadINtB5_11ThreadBoundNtNtB7_5error9SpanRangeE3newB7_, symObjAddr: 0x4AA0, symBinAddr: 0x1E360, symSize: 0xB0 }
  - { offset: 0x805B2, size: 0x8, addend: 0x0, symName: __RNvXs3_NtCsieiGu2EXtoJ_4core6optionINtB5_6OptionINtNtCslJiobkLta79_5alloc2rc2RcINtNtB7_4cell4CellNtNtCsdGrGZaRBwMb_3syn5parse10UnexpectedEEENtNtB7_5clone5Clone5cloneB1B_, symObjAddr: 0x6E30, symBinAddr: 0x1F1D0, symSize: 0x50 }
  - { offset: 0x8060D, size: 0x8, addend: 0x0, symName: __RNvXs5_NtCsieiGu2EXtoJ_4core6optionINtB5_6OptionINtNtCslJiobkLta79_5alloc2rc2RcINtNtB7_4cell4CellNtNtCsdGrGZaRBwMb_3syn5parse10UnexpectedEEENtNtB7_7default7Default7defaultB1B_, symObjAddr: 0x8970, symBinAddr: 0x1F220, symSize: 0x10 }
  - { offset: 0x8063B, size: 0x8, addend: 0x0, symName: __RNvXsC_NtCsieiGu2EXtoJ_4core6optionINtB5_6OptionNtNtNtCslJiobkLta79_5alloc3ffi5c_str7CStringENtNtNtB7_3ops9try_trait3Try6branchCsdGrGZaRBwMb_3syn, symObjAddr: 0x8D50, symBinAddr: 0x1F380, symSize: 0x60 }
  - { offset: 0x80690, size: 0x8, addend: 0x0, symName: __RNvXsC_NtCsieiGu2EXtoJ_4core6optionINtB5_6OptionRShENtNtNtB7_3ops9try_trait3Try6branchCsdGrGZaRBwMb_3syn, symObjAddr: 0x8EF0, symBinAddr: 0x1F3E0, symSize: 0x60 }
  - { offset: 0x806E5, size: 0x8, addend: 0x0, symName: __RNvXsC_NtCsieiGu2EXtoJ_4core6optionINtB5_6OptionReENtNtNtB7_3ops9try_trait3Try6branchCsdGrGZaRBwMb_3syn, symObjAddr: 0x8F90, symBinAddr: 0x1F440, symSize: 0x60 }
  - { offset: 0x8073A, size: 0x8, addend: 0x0, symName: __RNvXsC_NtCsieiGu2EXtoJ_4core6optionINtB5_6OptionRhENtNtNtB7_3ops9try_trait3Try6branchCsdGrGZaRBwMb_3syn, symObjAddr: 0x8FF0, symBinAddr: 0x1F4A0, symSize: 0x40 }
  - { offset: 0x8078F, size: 0x8, addend: 0x0, symName: __RNvXsC_NtCsieiGu2EXtoJ_4core6optionINtB5_6OptionTINtNtCslJiobkLta79_5alloc5boxed3BoxeEBL_EENtNtNtB7_3ops9try_trait3Try6branchCsdGrGZaRBwMb_3syn, symObjAddr: 0x9030, symBinAddr: 0x1F4E0, symSize: 0x90 }
  - { offset: 0x807E5, size: 0x8, addend: 0x0, symName: __RNvXsC_NtCsieiGu2EXtoJ_4core6optionINtB5_6OptionTNtCsaKzlTDPUHDb_11proc_macro27LiteralNtNtCsdGrGZaRBwMb_3syn6buffer6CursorEENtNtNtB7_3ops9try_trait3Try6branchB1q_, symObjAddr: 0x9130, symBinAddr: 0x1F570, symSize: 0x80 }
  - { offset: 0x8083B, size: 0x8, addend: 0x0, symName: __RNvXsC_NtCsieiGu2EXtoJ_4core6optionINtB5_6OptionTcRShEENtNtNtB7_3ops9try_trait3Try6branchCsdGrGZaRBwMb_3syn, symObjAddr: 0x91B0, symBinAddr: 0x1F5F0, symSize: 0x80 }
  - { offset: 0x80891, size: 0x8, addend: 0x0, symName: __RNvXsC_NtCsieiGu2EXtoJ_4core6optionINtB5_6OptionTcReEENtNtNtB7_3ops9try_trait3Try6branchCsdGrGZaRBwMb_3syn, symObjAddr: 0x9230, symBinAddr: 0x1F670, symSize: 0x80 }
  - { offset: 0x808E7, size: 0x8, addend: 0x0, symName: __RNvXsC_NtCsieiGu2EXtoJ_4core6optionINtB5_6OptionThRShEENtNtNtB7_3ops9try_trait3Try6branchCsdGrGZaRBwMb_3syn, symObjAddr: 0x92B0, symBinAddr: 0x1F6F0, symSize: 0x80 }
  - { offset: 0x8093D, size: 0x8, addend: 0x0, symName: __RNvXsC_NtCsieiGu2EXtoJ_4core6optionINtB5_6OptionThReEENtNtNtB7_3ops9try_trait3Try6branchCsdGrGZaRBwMb_3syn, symObjAddr: 0x9330, symBinAddr: 0x1F770, symSize: 0x80 }
  - { offset: 0x80993, size: 0x8, addend: 0x0, symName: __RNvXsC_NtCsieiGu2EXtoJ_4core6optionINtB5_6OptioncENtNtNtB7_3ops9try_trait3Try6branchCsdGrGZaRBwMb_3syn, symObjAddr: 0x93B0, symBinAddr: 0x1F7F0, symSize: 0x40 }
  - { offset: 0x809EE, size: 0x8, addend: 0x0, symName: __RNvXsD_NtCsieiGu2EXtoJ_4core6optionINtB5_6OptionTINtNtCslJiobkLta79_5alloc3vec3VechEINtNtBQ_5boxed3BoxeEEEINtNtNtB7_3ops9try_trait12FromResidualIBy_NtNtB7_7convert10InfallibleEE13from_residualCsdGrGZaRBwMb_3syn, symObjAddr: 0x94B0, symBinAddr: 0x1F830, symSize: 0x20 }
  - { offset: 0x80A21, size: 0x8, addend: 0x0, symName: __RNvXsD_NtCsieiGu2EXtoJ_4core6optionINtB5_6OptionTINtNtCslJiobkLta79_5alloc5boxed3BoxeEBL_EEINtNtNtB7_3ops9try_trait12FromResidualIBy_NtNtB7_7convert10InfallibleEE13from_residualCsdGrGZaRBwMb_3syn, symObjAddr: 0x94D0, symBinAddr: 0x1F850, symSize: 0x10 }
  - { offset: 0x80A54, size: 0x8, addend: 0x0, symName: __RNvXsD_NtCsieiGu2EXtoJ_4core6optionINtB5_6OptionTNtNtCsdGrGZaRBwMb_3syn3lit3LitNtNtBP_6buffer6CursorEEINtNtNtB7_3ops9try_trait12FromResidualIBy_NtNtB7_7convert10InfallibleEE13from_residualBP_, symObjAddr: 0x94E0, symBinAddr: 0x1F860, symSize: 0x20 }
  - { offset: 0x80A87, size: 0x8, addend: 0x0, symName: __RNvXsD_NtCsieiGu2EXtoJ_4core6optionINtB5_6OptionTNtNtNtCslJiobkLta79_5alloc3ffi5c_str7CStringINtNtBR_5boxed3BoxeEEEINtNtNtB7_3ops9try_trait12FromResidualIBy_NtNtB7_7convert10InfallibleEE13from_residualCsdGrGZaRBwMb_3syn, symObjAddr: 0x9510, symBinAddr: 0x1F880, symSize: 0x10 }
  - { offset: 0x80ABA, size: 0x8, addend: 0x0, symName: __RNvXsD_NtCsieiGu2EXtoJ_4core6optionINtB5_6OptionTcINtNtCslJiobkLta79_5alloc5boxed3BoxeEEEINtNtNtB7_3ops9try_trait12FromResidualIBy_NtNtB7_7convert10InfallibleEE13from_residualCsdGrGZaRBwMb_3syn, symObjAddr: 0x9520, symBinAddr: 0x1F890, symSize: 0x10 }
  - { offset: 0x80AED, size: 0x8, addend: 0x0, symName: __RNvXsD_NtCsieiGu2EXtoJ_4core6optionINtB5_6OptionTcRShEEINtNtNtB7_3ops9try_trait12FromResidualIBy_NtNtB7_7convert10InfallibleEE13from_residualCsdGrGZaRBwMb_3syn, symObjAddr: 0x9530, symBinAddr: 0x1F8A0, symSize: 0x10 }
  - { offset: 0x80B20, size: 0x8, addend: 0x0, symName: __RNvXsD_NtCsieiGu2EXtoJ_4core6optionINtB5_6OptionTcReEEINtNtNtB7_3ops9try_trait12FromResidualIBy_NtNtB7_7convert10InfallibleEE13from_residualCsdGrGZaRBwMb_3syn, symObjAddr: 0x9540, symBinAddr: 0x1F8B0, symSize: 0x10 }
  - { offset: 0x80B53, size: 0x8, addend: 0x0, symName: __RNvXsD_NtCsieiGu2EXtoJ_4core6optionINtB5_6OptionThINtNtCslJiobkLta79_5alloc5boxed3BoxeEEEINtNtNtB7_3ops9try_trait12FromResidualIBy_NtNtB7_7convert10InfallibleEE13from_residualCsdGrGZaRBwMb_3syn, symObjAddr: 0x9550, symBinAddr: 0x1F8C0, symSize: 0x20 }
  - { offset: 0x814FE, size: 0x8, addend: 0x0, symName: __RNvNvNtCsieiGu2EXtoJ_4core3ptr19copy_nonoverlapping18precondition_checkCsdGrGZaRBwMb_3syn, symObjAddr: 0x5990, symBinAddr: 0x1E950, symSize: 0x4B0 }
  - { offset: 0x8180F, size: 0x8, addend: 0x0, symName: __RNvNvNtCsieiGu2EXtoJ_4core3ptr4copy18precondition_checkCsdGrGZaRBwMb_3syn, symObjAddr: 0x5E40, symBinAddr: 0x1EE00, symSize: 0x330 }
  - { offset: 0x825BA, size: 0x8, addend: 0x0, symName: __RNvXNtCsieiGu2EXtoJ_4core7convertRReINtB2_5AsRefeE6as_refCsdGrGZaRBwMb_3syn, symObjAddr: 0x6170, symBinAddr: 0x1F130, symSize: 0x20 }
  - { offset: 0x825FA, size: 0x8, addend: 0x0, symName: __RNvXNtCsieiGu2EXtoJ_4core7convertReINtB2_5AsRefeE6as_refCsdGrGZaRBwMb_3syn, symObjAddr: 0x6190, symBinAddr: 0x1F150, symSize: 0x20 }
  - { offset: 0x82655, size: 0x8, addend: 0x0, symName: __RNvXs7_NtNtCsieiGu2EXtoJ_4core3cmp5implsRNtNtCsaKzlTDPUHDb_11proc_macro28fallback5IdentINtB7_9PartialEqReE2eqCsdGrGZaRBwMb_3syn, symObjAddr: 0x8B30, symBinAddr: 0x1F230, symSize: 0x30 }
  - { offset: 0x82D6B, size: 0x8, addend: 0x0, symName: __RNvXsA_NtCsaKzlTDPUHDb_11proc_macro28fallbackNtB5_5IdentNtNtCsieiGu2EXtoJ_4core5clone5Clone5cloneCsdGrGZaRBwMb_3syn, symObjAddr: 0x8B60, symBinAddr: 0x1F260, symSize: 0x90 }
  - { offset: 0x82D9F, size: 0x8, addend: 0x0, symName: __RNvXsB_NtCsaKzlTDPUHDb_11proc_macro28fallbackNtB5_7LiteralNtNtCsieiGu2EXtoJ_4core5clone5Clone5cloneCsdGrGZaRBwMb_3syn, symObjAddr: 0x8BF0, symBinAddr: 0x1F2F0, symSize: 0x90 }
  - { offset: 0x82DD3, size: 0x8, addend: 0x0, symName: __RNvXsk_NtCsaKzlTDPUHDb_11proc_macro28fallbackNtB5_5IdentINtNtCsieiGu2EXtoJ_4core3cmp9PartialEqeE2eqCsdGrGZaRBwMb_3syn, symObjAddr: 0xFE10, symBinAddr: 0x1F8E0, symSize: 0xF0 }
  - { offset: 0x82E35, size: 0x8, addend: 0x0, symName: __RNvXsu_NtCsaKzlTDPUHDb_11proc_macro28fallbackNtB5_4SpanNtNtCsieiGu2EXtoJ_4core5clone5Clone5cloneCsdGrGZaRBwMb_3syn, symObjAddr: 0x10040, symBinAddr: 0x1F9D0, symSize: 0x10 }
  - { offset: 0x83649, size: 0x8, addend: 0x0, symName: __RNvXs0_NtNtCslJiobkLta79_5alloc3ffi5c_strNtB5_7CStringNtNtNtCsieiGu2EXtoJ_4core3ops4drop4Drop4dropCsdGrGZaRBwMb_3syn, symObjAddr: 0x62A0, symBinAddr: 0x1F170, symSize: 0x60 }
  - { offset: 0x837C0, size: 0x8, addend: 0x0, symName: __RINvMs_NtNtCslJiobkLta79_5alloc3ffi5c_strNtB5_7CString3newINtNtB9_3vec3VechEECsdGrGZaRBwMb_3syn, symObjAddr: 0x3E40, symBinAddr: 0x1E8A0, symSize: 0x20 }
  - { offset: 0x837ED, size: 0x8, addend: 0x0, symName: __RINvMs_NtNtCslJiobkLta79_5alloc3ffi5c_strNtB5_7CString3newNtNtB9_6string6StringECsdGrGZaRBwMb_3syn, symObjAddr: 0x3E60, symBinAddr: 0x1E8C0, symSize: 0x20 }
  - { offset: 0x8386E, size: 0x8, addend: 0x0, symName: __RNvMNtCsieiGu2EXtoJ_4core6optionINtB2_6OptionTNtCsaKzlTDPUHDb_11proc_macro24SpanNtBK_9DelimiterEE7is_noneCsdGrGZaRBwMb_3syn, symObjAddr: 0x5690, symBinAddr: 0x1E8E0, symSize: 0x30 }
  - { offset: 0x838E3, size: 0x8, addend: 0x0, symName: __RNvMNtCsieiGu2EXtoJ_4core6optionINtB2_6OptioncE9unwrap_orCsdGrGZaRBwMb_3syn, symObjAddr: 0x5950, symBinAddr: 0x1E910, symSize: 0x40 }
  - { offset: 0x841BF, size: 0x8, addend: 0x0, symName: __RNvNtCslJiobkLta79_5alloc3fmt6formatCsdGrGZaRBwMb_3syn, symObjAddr: 0xAA90, symBinAddr: 0x1F9E0, symSize: 0xC0 }
  - { offset: 0x89F8D, size: 0x8, addend: 0x0, symName: __RNvXs6_NtCslJiobkLta79_5alloc5boxedINtB5_3BoxANtNtCsdGrGZaRBwMb_3syn5error12ErrorMessagej1_ENtNtNtCsieiGu2EXtoJ_4core3ops4drop4Drop4dropBM_, symObjAddr: 0x60D0, symBinAddr: 0x1FE20, symSize: 0xB0 }
  - { offset: 0x8A0C8, size: 0x8, addend: 0x0, symName: __RNvXs6_NtCslJiobkLta79_5alloc5boxedINtB5_3BoxNtNtCsdGrGZaRBwMb_3syn3lit10LitIntReprENtNtNtCsieiGu2EXtoJ_4core3ops4drop4Drop4dropBL_, symObjAddr: 0x7680, symBinAddr: 0x1FED0, symSize: 0xB0 }
  - { offset: 0x8A203, size: 0x8, addend: 0x0, symName: __RNvXs6_NtCslJiobkLta79_5alloc5boxedINtB5_3BoxNtNtCsdGrGZaRBwMb_3syn3lit12LitFloatReprENtNtNtCsieiGu2EXtoJ_4core3ops4drop4Drop4dropBL_, symObjAddr: 0x7730, symBinAddr: 0x1FF80, symSize: 0xB0 }
  - { offset: 0x8A33E, size: 0x8, addend: 0x0, symName: __RNvXs6_NtCslJiobkLta79_5alloc5boxedINtB5_3BoxNtNtCsdGrGZaRBwMb_3syn3lit7LitReprENtNtNtCsieiGu2EXtoJ_4core3ops4drop4Drop4dropBL_, symObjAddr: 0x77E0, symBinAddr: 0x20030, symSize: 0xB0 }
  - { offset: 0x8A479, size: 0x8, addend: 0x0, symName: __RNvXs6_NtCslJiobkLta79_5alloc5boxedINtB5_3BoxSNtNtCsdGrGZaRBwMb_3syn6buffer5EntryENtNtNtCsieiGu2EXtoJ_4core3ops4drop4Drop4dropBM_, symObjAddr: 0x8440, symBinAddr: 0x200E0, symSize: 0xC0 }
  - { offset: 0x8A5B6, size: 0x8, addend: 0x0, symName: __RNvXs6_NtCslJiobkLta79_5alloc5boxedINtB5_3BoxShENtNtNtCsieiGu2EXtoJ_4core3ops4drop4Drop4dropCsdGrGZaRBwMb_3syn, symObjAddr: 0x8500, symBinAddr: 0x201A0, symSize: 0xC0 }
  - { offset: 0x8A9E3, size: 0x8, addend: 0x0, symName: __RNvXs1_NtCsaKzlTDPUHDb_11proc_macro26markerNtB5_19ProcMacroAutoTraitsNtNtCsieiGu2EXtoJ_4core5clone5Clone5cloneCsdGrGZaRBwMb_3syn, symObjAddr: 0x5C90, symBinAddr: 0x1FE10, symSize: 0x10 }
  - { offset: 0x8FE58, size: 0x8, addend: 0x0, symName: __RNvNvNtCsieiGu2EXtoJ_4core4hint16assert_unchecked18precondition_checkCsdGrGZaRBwMb_3syn, symObjAddr: 0x5650, symBinAddr: 0x1FAC0, symSize: 0xA0 }
  - { offset: 0x8FEB8, size: 0x8, addend: 0x0, symName: __RNvNvNtCsieiGu2EXtoJ_4core4hint21unreachable_unchecked18precondition_checkCsdGrGZaRBwMb_3syn, symObjAddr: 0x56F0, symBinAddr: 0x1FB60, symSize: 0x80 }
  - { offset: 0x8FF22, size: 0x8, addend: 0x0, symName: __RNvNvXs0_NtNtCsieiGu2EXtoJ_4core5slice5indexjINtB7_10SliceIndexSpE13get_unchecked18precondition_checkCsdGrGZaRBwMb_3syn, symObjAddr: 0x5770, symBinAddr: 0x1FBE0, symSize: 0xA0 }
  - { offset: 0x8FF90, size: 0x8, addend: 0x0, symName: __RNvNvXs0_NtNtCsieiGu2EXtoJ_4core5slice5indexjINtB7_10SliceIndexSpE17get_unchecked_mut18precondition_checkCsdGrGZaRBwMb_3syn, symObjAddr: 0x5810, symBinAddr: 0x1FC80, symSize: 0xA0 }
  - { offset: 0x8FFF9, size: 0x8, addend: 0x0, symName: __RNvXs0_NtNtCsieiGu2EXtoJ_4core5slice5indexjINtB5_10SliceIndexSNtNtCsdGrGZaRBwMb_3syn6buffer5EntryE9index_mutB12_, symObjAddr: 0x5980, symBinAddr: 0x1FD20, symSize: 0x50 }
  - { offset: 0x9003F, size: 0x8, addend: 0x0, symName: __RNvXs0_NtNtCsieiGu2EXtoJ_4core5slice5indexjINtB5_10SliceIndexShE5indexCsdGrGZaRBwMb_3syn, symObjAddr: 0x5AD0, symBinAddr: 0x1FD70, symSize: 0x50 }
  - { offset: 0x90085, size: 0x8, addend: 0x0, symName: __RNvXs0_NtNtCsieiGu2EXtoJ_4core5slice5indexjINtB5_10SliceIndexShE9index_mutCsdGrGZaRBwMb_3syn, symObjAddr: 0x5B20, symBinAddr: 0x1FDC0, symSize: 0x50 }
  - { offset: 0x906A8, size: 0x8, addend: 0x0, symName: __RNvXsg_NtCsHUR1vrdMJt_3std6threadNtB5_8ThreadIdNtNtCsieiGu2EXtoJ_4core3cmp9PartialEq2eqCsdGrGZaRBwMb_3syn, symObjAddr: 0xB410, symBinAddr: 0x20260, symSize: 0x20 }
  - { offset: 0x90811, size: 0x8, addend: 0x0, symName: __RNvMs2_NtCsHUR1vrdMJt_3std6threadNtB5_6Thread2idCsdGrGZaRBwMb_3syn, symObjAddr: 0xA80, symBinAddr: 0x1FAA0, symSize: 0x20 }
  - { offset: 0x96928, size: 0x8, addend: 0x0, symName: __RNvNtCsdGrGZaRBwMb_3syn6buffer18open_span_of_group, symObjAddr: 0x73D0, symBinAddr: 0x217B0, symSize: 0x80 }
  - { offset: 0x976E0, size: 0x8, addend: 0x0, symName: __RNvNvMs9_NtCsieiGu2EXtoJ_4core3numj13unchecked_add18precondition_checkCsdGrGZaRBwMb_3syn, symObjAddr: 0xDB60, symBinAddr: 0x21930, symSize: 0xA0 }
  - { offset: 0x9779E, size: 0x8, addend: 0x0, symName: __RNvNvMs9_NtCsieiGu2EXtoJ_4core3numj13unchecked_mul18precondition_checkCsdGrGZaRBwMb_3syn, symObjAddr: 0xDC00, symBinAddr: 0x219D0, symSize: 0xA0 }
  - { offset: 0x978B2, size: 0x8, addend: 0x0, symName: __RNvNvMs3_NtCsieiGu2EXtoJ_4core3numi13unchecked_neg18precondition_checkCsdGrGZaRBwMb_3syn, symObjAddr: 0xDAB0, symBinAddr: 0x21880, symSize: 0xB0 }
  - { offset: 0x9A6F9, size: 0x8, addend: 0x0, symName: __RNvXNtNtCsieiGu2EXtoJ_4core3str4iterNtB2_5CharsNtNtNtNtB6_4iter6traits8iterator8Iterator4nextCsdGrGZaRBwMb_3syn, symObjAddr: 0xEA70, symBinAddr: 0x21B60, symSize: 0x60 }
  - { offset: 0x9A7AD, size: 0x8, addend: 0x0, symName: __RNvXs7_NtNtCsieiGu2EXtoJ_4core3str4iterNtB5_5BytesNtNtNtNtB9_4iter6traits8iterator8Iterator4nextCsdGrGZaRBwMb_3syn, symObjAddr: 0x16D80, symBinAddr: 0x21BF0, symSize: 0x70 }
  - { offset: 0x9A836, size: 0x8, addend: 0x0, symName: __RNvXsX_NtNtCsieiGu2EXtoJ_4core3str4iterINtB5_5SplitcENtNtNtNtB9_4iter6traits8iterator8Iterator4nextCsdGrGZaRBwMb_3syn, symObjAddr: 0x17380, symBinAddr: 0x21CF0, symSize: 0x20 }
  - { offset: 0x9AA05, size: 0x8, addend: 0x0, symName: __RNvXs8_NtNtCsieiGu2EXtoJ_4core3str5errorNtB5_9Utf8ErrorNtNtB9_3fmt5Debug3fmtCsdGrGZaRBwMb_3syn, symObjAddr: 0x170F0, symBinAddr: 0x21C60, symSize: 0x90 }
  - { offset: 0x9B107, size: 0x8, addend: 0x0, symName: __RNvXs19_NtCsieiGu2EXtoJ_4core3fmtRNtNtNtB8_3str5error9Utf8ErrorNtB6_5Debug3fmtCsdGrGZaRBwMb_3syn, symObjAddr: 0xF770, symBinAddr: 0x21BC0, symSize: 0x20 }
  - { offset: 0x9B1E4, size: 0x8, addend: 0x0, symName: __RNvNtNtCsieiGu2EXtoJ_4core4char7convert8from_u32CsdGrGZaRBwMb_3syn, symObjAddr: 0xDA60, symBinAddr: 0x21830, symSize: 0x50 }
  - { offset: 0x9B288, size: 0x8, addend: 0x0, symName: __RNvNvNtNtCsieiGu2EXtoJ_4core4char7convert18from_u32_unchecked18precondition_checkCsdGrGZaRBwMb_3syn, symObjAddr: 0xDCA0, symBinAddr: 0x21A70, symSize: 0xF0 }
  - { offset: 0x9B35B, size: 0x8, addend: 0x0, symName: __RNvXs3_NtNtCsieiGu2EXtoJ_4core4char7convertcINtNtB9_7convert4FromhE4fromCsdGrGZaRBwMb_3syn, symObjAddr: 0x134B0, symBinAddr: 0x21BE0, symSize: 0x10 }
  - { offset: 0x9D194, size: 0x8, addend: 0x0, symName: __RNvMNtCsdGrGZaRBwMb_3syn6bufferNtB2_11TokenBuffer13recursive_new, symObjAddr: 0x19C0, symBinAddr: 0x20280, symSize: 0x5A0 }
  - { offset: 0x9D288, size: 0x8, addend: 0x0, symName: __RNvMNtCsdGrGZaRBwMb_3syn6bufferNtB2_11TokenBuffer4new2, symObjAddr: 0x1FA0, symBinAddr: 0x20820, symSize: 0x1B0 }
  - { offset: 0x9D2E8, size: 0x8, addend: 0x0, symName: __RNvMNtCsdGrGZaRBwMb_3syn6bufferNtB2_11TokenBuffer5begin, symObjAddr: 0x2150, symBinAddr: 0x209D0, symSize: 0x80 }
  - { offset: 0x9D4D6, size: 0x8, addend: 0x0, symName: __RNvMs_NtCsdGrGZaRBwMb_3syn6bufferNtB4_6Cursor11ignore_none, symObjAddr: 0x46E0, symBinAddr: 0x20A50, symSize: 0xB0 }
  - { offset: 0x9D52B, size: 0x8, addend: 0x0, symName: __RNvMs_NtCsdGrGZaRBwMb_3syn6bufferNtB4_6Cursor15scope_delimiter, symObjAddr: 0x4A60, symBinAddr: 0x20B00, symSize: 0x170 }
  - { offset: 0x9D5A8, size: 0x8, addend: 0x0, symName: __RNvMs_NtCsdGrGZaRBwMb_3syn6bufferNtB4_6Cursor17bump_ignore_group, symObjAddr: 0x4BD0, symBinAddr: 0x20C70, symSize: 0x40 }
  - { offset: 0x9D5EF, size: 0x8, addend: 0x0, symName: __RNvMs_NtCsdGrGZaRBwMb_3syn6bufferNtB4_6Cursor3eof, symObjAddr: 0x4C10, symBinAddr: 0x20CB0, symSize: 0x30 }
  - { offset: 0x9D636, size: 0x8, addend: 0x0, symName: __RNvMs_NtCsdGrGZaRBwMb_3syn6bufferNtB4_6Cursor4span, symObjAddr: 0x4E50, symBinAddr: 0x20CE0, symSize: 0x1A0 }
  - { offset: 0x9D724, size: 0x8, addend: 0x0, symName: __RNvMs_NtCsdGrGZaRBwMb_3syn6bufferNtB4_6Cursor5entry, symObjAddr: 0x5010, symBinAddr: 0x20E80, symSize: 0x70 }
  - { offset: 0x9D76F, size: 0x8, addend: 0x0, symName: __RNvMs_NtCsdGrGZaRBwMb_3syn6bufferNtB4_6Cursor5group, symObjAddr: 0x5080, symBinAddr: 0x20EF0, symSize: 0x210 }
  - { offset: 0x9D8A5, size: 0x8, addend: 0x0, symName: __RNvMs_NtCsdGrGZaRBwMb_3syn6bufferNtB4_6Cursor5ident, symObjAddr: 0x5290, symBinAddr: 0x21100, symSize: 0x120 }
  - { offset: 0x9D8FB, size: 0x8, addend: 0x0, symName: __RNvMs_NtCsdGrGZaRBwMb_3syn6bufferNtB4_6Cursor5punct, symObjAddr: 0x53B0, symBinAddr: 0x21220, symSize: 0x100 }
  - { offset: 0x9D94A, size: 0x8, addend: 0x0, symName: __RNvMs_NtCsdGrGZaRBwMb_3syn6bufferNtB4_6Cursor6create, symObjAddr: 0x54B0, symBinAddr: 0x21320, symSize: 0xE0 }
  - { offset: 0x9D9E2, size: 0x8, addend: 0x0, symName: __RNvMs_NtCsdGrGZaRBwMb_3syn6bufferNtB4_6Cursor7literal, symObjAddr: 0x5590, symBinAddr: 0x21400, symSize: 0x120 }
  - { offset: 0x9DAA4, size: 0x8, addend: 0x0, symName: __RNvMsf_NtNtCsieiGu2EXtoJ_4core3str4iterINtB5_13SplitInternalcE4nextCsdGrGZaRBwMb_3syn, symObjAddr: 0x6C00, symBinAddr: 0x21520, symSize: 0x180 }
  - { offset: 0x9DBE8, size: 0x8, addend: 0x0, symName: __RNvMsf_NtNtCsieiGu2EXtoJ_4core3str4iterINtB5_13SplitInternalcE7get_endCsdGrGZaRBwMb_3syn, symObjAddr: 0x6D80, symBinAddr: 0x216A0, symSize: 0x110 }
  - { offset: 0x9E1E1, size: 0x8, addend: 0x0, symName: __RINvXs7_NtCsaKzlTDPUHDb_11proc_macro23impNtB6_11TokenStreamINtNtNtNtCsieiGu2EXtoJ_4core4iter6traits7collect6ExtendNtB8_9TokenTreeE6extendINtNtNtB12_7sources4once4OnceB1O_EECs9OU1sGv5X54_5quote, symObjAddr: 0xF00, symBinAddr: 0x221B0, symSize: 0x190 }
  - { offset: 0x9E31B, size: 0x8, addend: 0x0, symName: __RINvXsa_NtCsaKzlTDPUHDb_11proc_macro28fallbackNtB6_11TokenStreamINtNtNtNtCsieiGu2EXtoJ_4core4iter6traits7collect6ExtendNtB8_9TokenTreeE6extendINtNtNtB17_7sources4once4OnceB1T_EECs9OU1sGv5X54_5quote, symObjAddr: 0x1240, symBinAddr: 0x22340, symSize: 0xC0 }
  - { offset: 0x9E382, size: 0x8, addend: 0x0, symName: __RNCINvXsa_NtCsaKzlTDPUHDb_11proc_macro28fallbackNtB8_11TokenStreamINtNtNtNtCsieiGu2EXtoJ_4core4iter6traits7collect6ExtendNtBa_9TokenTreeE6extendINtNtNtB19_7sources4once4OnceB1V_EE0Cs9OU1sGv5X54_5quote, symObjAddr: 0x19F0, symBinAddr: 0x22560, symSize: 0xA0 }
  - { offset: 0x9E679, size: 0x8, addend: 0x0, symName: __RINvXs4_CsaKzlTDPUHDb_11proc_macro2NtB6_11TokenStreamINtNtNtNtCsieiGu2EXtoJ_4core4iter6traits7collect6ExtendNtB6_9TokenTreeE6extendINtNtNtBW_7sources4once4OnceB1I_EECs9OU1sGv5X54_5quote, symObjAddr: 0xE90, symBinAddr: 0x22190, symSize: 0x20 }
  - { offset: 0x9EDB0, size: 0x8, addend: 0x0, symName: __RNvNvMs1_NtNtCsieiGu2EXtoJ_4core3ptr8non_nullINtB7_7NonNullpE13new_unchecked18precondition_checkCs9OU1sGv5X54_5quote, symObjAddr: 0x2A30, symBinAddr: 0x23130, symSize: 0x90 }
  - { offset: 0x9F12E, size: 0x8, addend: 0x0, symName: __RNvNvMNtNtCsieiGu2EXtoJ_4core3ptr9alignmentNtB4_9Alignment13new_unchecked18precondition_checkCs9OU1sGv5X54_5quote, symObjAddr: 0x2890, symBinAddr: 0x22F90, symSize: 0xF0 }
  - { offset: 0x9F315, size: 0x8, addend: 0x0, symName: __RINvNtCsieiGu2EXtoJ_4core3ptr13drop_in_placeINtNtB4_6option4ItemNtCsaKzlTDPUHDb_11proc_macro29TokenTreeEECs9OU1sGv5X54_5quote, symObjAddr: 0x790, symBinAddr: 0x22020, symSize: 0x20 }
  - { offset: 0x9F344, size: 0x8, addend: 0x0, symName: __RINvNtCsieiGu2EXtoJ_4core3ptr13drop_in_placeINtNtB4_6option6OptionNtCsaKzlTDPUHDb_11proc_macro29TokenTreeEECs9OU1sGv5X54_5quote, symObjAddr: 0x870, symBinAddr: 0x22040, symSize: 0x40 }
  - { offset: 0x9F373, size: 0x8, addend: 0x0, symName: __RINvNtCsieiGu2EXtoJ_4core3ptr13drop_in_placeINtNtB4_6option8IntoIterNtCsaKzlTDPUHDb_11proc_macro29TokenTreeEECs9OU1sGv5X54_5quote, symObjAddr: 0x8D0, symBinAddr: 0x22080, symSize: 0x20 }
  - { offset: 0x9F3A2, size: 0x8, addend: 0x0, symName: __RINvNtCsieiGu2EXtoJ_4core3ptr13drop_in_placeINtNtCslJiobkLta79_5alloc2rc14UniqueRcUninitINtNtBL_3vec3VecNtCsaKzlTDPUHDb_11proc_macro29TokenTreeENtNtBL_5alloc6GlobalEECs9OU1sGv5X54_5quote, symObjAddr: 0x8F0, symBinAddr: 0x220A0, symSize: 0x20 }
  - { offset: 0x9F3D1, size: 0x8, addend: 0x0, symName: __RINvNtCsieiGu2EXtoJ_4core3ptr13drop_in_placeINtNtNtNtB4_4iter7sources4once4OnceNtCsaKzlTDPUHDb_11proc_macro29TokenTreeEECs9OU1sGv5X54_5quote, symObjAddr: 0x9A0, symBinAddr: 0x220C0, symSize: 0x20 }
  - { offset: 0x9F400, size: 0x8, addend: 0x0, symName: __RINvNtCsieiGu2EXtoJ_4core3ptr13drop_in_placeNtCsaKzlTDPUHDb_11proc_macro211TokenStreamECs9OU1sGv5X54_5quote, symObjAddr: 0xB10, symBinAddr: 0x220E0, symSize: 0x20 }
  - { offset: 0x9F601, size: 0x8, addend: 0x0, symName: __RNvNvNtCsieiGu2EXtoJ_4core3ptr19copy_nonoverlapping18precondition_checkCs9OU1sGv5X54_5quote, symObjAddr: 0x2B60, symBinAddr: 0x231C0, symSize: 0x4B0 }
  - { offset: 0xA063D, size: 0x8, addend: 0x0, symName: __RINvNtNtNtCsieiGu2EXtoJ_4core4iter7sources4once4onceNtCsaKzlTDPUHDb_11proc_macro29TokenTreeECs9OU1sGv5X54_5quote, symObjAddr: 0xC70, symBinAddr: 0x22100, symSize: 0x90 }
  - { offset: 0xA068B, size: 0x8, addend: 0x0, symName: __RNvXNtNtNtCsieiGu2EXtoJ_4core4iter7sources4onceINtB2_4OnceNtCsaKzlTDPUHDb_11proc_macro29TokenTreeENtNtNtB6_6traits8iterator8Iterator4nextCs9OU1sGv5X54_5quote, symObjAddr: 0x35A0, symBinAddr: 0x237D0, symSize: 0x60 }
  - { offset: 0xA0746, size: 0x8, addend: 0x0, symName: __RINvYINtNtNtNtCsieiGu2EXtoJ_4core4iter7sources4once4OnceNtCsaKzlTDPUHDb_11proc_macro29TokenTreeENtNtNtBa_6traits8iterator8Iterator4folduNCINvNvB1w_8for_each4callBS_NCINvXsa_NtBU_8fallbackNtB2L_11TokenStreamINtNtB1A_7collect6ExtendBS_E6extendB3_E0E0ECs9OU1sGv5X54_5quote, symObjAddr: 0x16A0, symBinAddr: 0x22400, symSize: 0x100 }
  - { offset: 0xA07D8, size: 0x8, addend: 0x0, symName: __RINvYINtNtNtNtCsieiGu2EXtoJ_4core4iter7sources4once4OnceNtCsaKzlTDPUHDb_11proc_macro29TokenTreeENtNtNtBa_6traits8iterator8Iterator8for_eachNCINvXsa_NtBU_8fallbackNtB2m_11TokenStreamINtNtB1A_7collect6ExtendBS_E6extendB3_E0ECs9OU1sGv5X54_5quote, symObjAddr: 0x17A0, symBinAddr: 0x22500, symSize: 0x20 }
  - { offset: 0xA082E, size: 0x8, addend: 0x0, symName: __RNCINvNvNtNtNtNtCsieiGu2EXtoJ_4core4iter6traits8iterator8Iterator8for_each4callNtCsaKzlTDPUHDb_11proc_macro29TokenTreeNCINvXsa_NtB1h_8fallbackNtB21_11TokenStreamINtNtBa_7collect6ExtendB1f_E6extendINtNtNtBc_7sources4once4OnceB1f_EE0E0Cs9OU1sGv5X54_5quote, symObjAddr: 0x1960, symBinAddr: 0x22520, symSize: 0x40 }
  - { offset: 0xA08A8, size: 0x8, addend: 0x0, symName: __RNvXNtNtNtCsieiGu2EXtoJ_4core4iter6traits7collectINtNtNtB6_7sources4once4OnceNtCsaKzlTDPUHDb_11proc_macro29TokenTreeENtB2_12IntoIterator9into_iterCs9OU1sGv5X54_5quote, symObjAddr: 0x34D0, symBinAddr: 0x237A0, symSize: 0x30 }
  - { offset: 0xA0CAC, size: 0x8, addend: 0x0, symName: __RNvNvMNtNtCsieiGu2EXtoJ_4core5alloc6layoutNtB4_6Layout25from_size_align_unchecked18precondition_checkCs9OU1sGv5X54_5quote, symObjAddr: 0x2980, symBinAddr: 0x23080, symSize: 0xB0 }
  - { offset: 0xA107E, size: 0x8, addend: 0x0, symName: __RNvNvNtCsieiGu2EXtoJ_4core9ub_checks23maybe_is_nonoverlapping7runtimeCs9OU1sGv5X54_5quote, symObjAddr: 0x3010, symBinAddr: 0x23670, symSize: 0xC0 }
  - { offset: 0xA1236, size: 0x8, addend: 0x0, symName: __RNvXNtCsieiGu2EXtoJ_4core5cloneINtNtCslJiobkLta79_5alloc3vec3VecNtCsaKzlTDPUHDb_11proc_macro29TokenTreeENtB2_13CloneToUninit15clone_to_uninitCs9OU1sGv5X54_5quote, symObjAddr: 0x3410, symBinAddr: 0x23730, symSize: 0x20 }
  - { offset: 0xA1283, size: 0x8, addend: 0x0, symName: __RNvXNtNtCsieiGu2EXtoJ_4core5clone6uninitINtNtCslJiobkLta79_5alloc3vec3VecNtCsaKzlTDPUHDb_11proc_macro29TokenTreeENtB2_8CopySpec9clone_oneCs9OU1sGv5X54_5quote, symObjAddr: 0x3430, symBinAddr: 0x23750, symSize: 0x50 }
  - { offset: 0xA15AB, size: 0x8, addend: 0x0, symName: __RNCNvMs1H_NtCslJiobkLta79_5alloc2rcINtB8_14UniqueRcUninitINtNtBa_3vec3VecNtCsaKzlTDPUHDb_11proc_macro29TokenTreeENtNtBa_5alloc6GlobalE3new0Cs9OU1sGv5X54_5quote, symObjAddr: 0x1AB0, symBinAddr: 0x22600, symSize: 0x20 }
  - { offset: 0xA15FC, size: 0x8, addend: 0x0, symName: __RNCNvMs1H_NtCslJiobkLta79_5alloc2rcINtB8_14UniqueRcUninitINtNtBa_3vec3VecNtCsaKzlTDPUHDb_11proc_macro29TokenTreeENtNtBa_5alloc6GlobalE3news_0Cs9OU1sGv5X54_5quote, symObjAddr: 0x1AD0, symBinAddr: 0x22620, symSize: 0x20 }
  - { offset: 0xA182F, size: 0x8, addend: 0x0, symName: __RNvNtCslJiobkLta79_5alloc2rc17data_offset_alignCs9OU1sGv5X54_5quote, symObjAddr: 0x2760, symBinAddr: 0x22E60, symSize: 0x130 }
  - { offset: 0xA19C7, size: 0x8, addend: 0x0, symName: __RNvXs1I_NtCslJiobkLta79_5alloc2rcINtB6_14UniqueRcUninitINtNtB8_3vec3VecNtCsaKzlTDPUHDb_11proc_macro29TokenTreeENtNtB8_5alloc6GlobalENtNtNtCsieiGu2EXtoJ_4core3ops4drop4Drop4dropCs9OU1sGv5X54_5quote, symObjAddr: 0x38D0, symBinAddr: 0x23830, symSize: 0xA0 }
  - { offset: 0xA23A1, size: 0x8, addend: 0x0, symName: __RINvMsh_NtCslJiobkLta79_5alloc2rcINtB6_2RcINtNtB8_3vec3VecNtCsaKzlTDPUHDb_11proc_macro29TokenTreeEE19allocate_for_layoutNCNvMs1H_B6_INtB6_14UniqueRcUninitBE_NtNtB8_5alloc6GlobalE3new0NCB1W_s_0ECs9OU1sGv5X54_5quote, symObjAddr: 0x1D0, symBinAddr: 0x21D10, symSize: 0x120 }
  - { offset: 0xA24FA, size: 0x8, addend: 0x0, symName: __RINvMsh_NtCslJiobkLta79_5alloc2rcINtB6_2RcINtNtB8_3vec3VecNtCsaKzlTDPUHDb_11proc_macro29TokenTreeEE23try_allocate_for_layoutNCNvMs1H_B6_INtB6_14UniqueRcUninitBE_NtNtB8_5alloc6GlobalE3new0NCB20_s_0ECs9OU1sGv5X54_5quote, symObjAddr: 0x2F0, symBinAddr: 0x21E30, symSize: 0x1F0 }
  - { offset: 0xA278E, size: 0x8, addend: 0x0, symName: __RNvMNtCsaKzlTDPUHDb_11proc_macro25rcvecINtB2_5RcVecNtB4_9TokenTreeE8make_mutCs9OU1sGv5X54_5quote, symObjAddr: 0x1BC0, symBinAddr: 0x22640, symSize: 0x20 }
  - { offset: 0xA27B9, size: 0x8, addend: 0x0, symName: __RNvMNtCsieiGu2EXtoJ_4core6optionINtB2_6OptionNtCsaKzlTDPUHDb_11proc_macro24SpanE9unwrap_orCs9OU1sGv5X54_5quote, symObjAddr: 0x1BE0, symBinAddr: 0x22660, symSize: 0x40 }
  - { offset: 0xA2864, size: 0x8, addend: 0x0, symName: __RNvMs0_NtCsaKzlTDPUHDb_11proc_macro25rcvecINtB5_8RcVecMutNtB7_9TokenTreeE6as_mutCs9OU1sGv5X54_5quote, symObjAddr: 0x1D40, symBinAddr: 0x226A0, symSize: 0x20 }
  - { offset: 0xA28E1, size: 0x8, addend: 0x0, symName: __RNvMs0_NtCslJiobkLta79_5alloc7raw_vecINtB5_6RawVecNtCscKtU6MdFI5n_10proc_macro9TokenTreeE8grow_oneCs9OU1sGv5X54_5quote, symObjAddr: 0x1D60, symBinAddr: 0x226C0, symSize: 0x90 }
  - { offset: 0xA2A02, size: 0x8, addend: 0x0, symName: __RNvMs1H_NtCslJiobkLta79_5alloc2rcINtB6_14UniqueRcUninitINtNtB8_3vec3VecNtCsaKzlTDPUHDb_11proc_macro29TokenTreeENtNtB8_5alloc6GlobalE3newCs9OU1sGv5X54_5quote, symObjAddr: 0x1DF0, symBinAddr: 0x22750, symSize: 0x130 }
  - { offset: 0xA2C74, size: 0x8, addend: 0x0, symName: __RNvMs1H_NtCslJiobkLta79_5alloc2rcINtB6_14UniqueRcUninitINtNtB8_3vec3VecNtCsaKzlTDPUHDb_11proc_macro29TokenTreeENtNtB8_5alloc6GlobalE7into_rcCs9OU1sGv5X54_5quote, symObjAddr: 0x1F20, symBinAddr: 0x22880, symSize: 0xA0 }
  - { offset: 0xA2DD9, size: 0x8, addend: 0x0, symName: __RNvMs_NtCslJiobkLta79_5alloc3vecINtB4_3VecNtCscKtU6MdFI5n_10proc_macro9TokenTreeE4pushCs9OU1sGv5X54_5quote, symObjAddr: 0x2070, symBinAddr: 0x22920, symSize: 0x20 }
  - { offset: 0xA2F31, size: 0x8, addend: 0x0, symName: __RNvMs_NtCslJiobkLta79_5alloc3vecINtB4_3VecNtCscKtU6MdFI5n_10proc_macro9TokenTreeE8push_mutCs9OU1sGv5X54_5quote, symObjAddr: 0x2090, symBinAddr: 0x22940, symSize: 0x100 }
  - { offset: 0xA32E0, size: 0x8, addend: 0x0, symName: __RNvMse_NtCslJiobkLta79_5alloc2rcINtB5_2RcINtNtB7_3vec3VecNtCsaKzlTDPUHDb_11proc_macro29TokenTreeEE8make_mutCs9OU1sGv5X54_5quote, symObjAddr: 0x2190, symBinAddr: 0x22A40, symSize: 0x420 }
  - { offset: 0xA47B3, size: 0x8, addend: 0x0, symName: __RNvXs1_NtCslJiobkLta79_5alloc5allocNtB5_6GlobalNtNtCsieiGu2EXtoJ_4core5clone5Clone5cloneCs9OU1sGv5X54_5quote, symObjAddr: 0x3BF0, symBinAddr: 0x23B60, symSize: 0x10 }
  - { offset: 0xA4804, size: 0x8, addend: 0x0, symName: __RNvXs_NtCslJiobkLta79_5alloc5allocNtB4_6GlobalNtNtCsieiGu2EXtoJ_4core5alloc9Allocator10deallocateCs9OU1sGv5X54_5quote, symObjAddr: 0x3C70, symBinAddr: 0x23B70, symSize: 0x70 }
  - { offset: 0xA48CC, size: 0x8, addend: 0x0, symName: __RNvXs_NtCslJiobkLta79_5alloc5allocNtB4_6GlobalNtNtCsieiGu2EXtoJ_4core5alloc9Allocator8allocateCs9OU1sGv5X54_5quote, symObjAddr: 0x3CE0, symBinAddr: 0x23BE0, symSize: 0x30 }
  - { offset: 0xA4B0A, size: 0x8, addend: 0x0, symName: __RNvMNtCslJiobkLta79_5alloc5allocNtB2_6Global10alloc_implCs9OU1sGv5X54_5quote, symObjAddr: 0x4C0, symBinAddr: 0x238D0, symSize: 0x290 }
  - { offset: 0xA4EE2, size: 0x8, addend: 0x0, symName: __RINvXsb_NtCslJiobkLta79_5alloc6stringNtB6_6StringINtNtNtNtCsieiGu2EXtoJ_4core4iter6traits7collect6ExtendcE6extendNtNtBU_4char11EscapeDebugECsaKzlTDPUHDb_11proc_macro2, symObjAddr: 0x0, symBinAddr: 0x23C10, symSize: 0xA0 }
  - { offset: 0xA555A, size: 0x8, addend: 0x0, symName: __RNCNvMsn_NtCsaKzlTDPUHDb_11proc_macro28fallbackNtB7_7Literal16from_str_checked0B9_, symObjAddr: 0xD0, symBinAddr: 0x23CE0, symSize: 0x30 }
  - { offset: 0xA55A1, size: 0x8, addend: 0x0, symName: __RNCNvNtCsaKzlTDPUHDb_11proc_macro28fallback11escape_utf80B5_, symObjAddr: 0x1D0, symBinAddr: 0x23D10, symSize: 0x50 }
  - { offset: 0xA55E7, size: 0x8, addend: 0x0, symName: __RNCNvNtCsaKzlTDPUHDb_11proc_macro28fallback14validate_ident0B5_, symObjAddr: 0x220, symBinAddr: 0x23D60, symSize: 0x50 }
  - { offset: 0xA5620, size: 0x8, addend: 0x0, symName: __RNvNvNtCsaKzlTDPUHDb_11proc_macro28fallback14validate_ident8ident_ok, symObjAddr: 0x3D60, symBinAddr: 0x25400, symSize: 0xF0 }
  - { offset: 0xA56D7, size: 0x8, addend: 0x0, symName: __RNCNvYNtCscKtU6MdFI5n_10proc_macro7LiteralNtNtCsaKzlTDPUHDb_11proc_macro28fallback8FromStr216from_str_checked0BI_, symObjAddr: 0x2A0, symBinAddr: 0x23DB0, symSize: 0x30 }
  - { offset: 0xA5712, size: 0x8, addend: 0x0, symName: __RNvNtCsaKzlTDPUHDb_11proc_macro28fallback10get_cursor, symObjAddr: 0x36F0, symBinAddr: 0x24F20, symSize: 0x20 }
  - { offset: 0xA573E, size: 0x8, addend: 0x0, symName: __RNvNtCsaKzlTDPUHDb_11proc_macro28fallback11escape_utf8, symObjAddr: 0x3710, symBinAddr: 0x24F40, symSize: 0x130 }
  - { offset: 0xA57A4, size: 0x8, addend: 0x0, symName: __RNvNtCsaKzlTDPUHDb_11proc_macro28fallback14is_ident_start, symObjAddr: 0x3840, symBinAddr: 0x25070, symSize: 0x50 }
  - { offset: 0xA57D2, size: 0x8, addend: 0x0, symName: __RNvNtCsaKzlTDPUHDb_11proc_macro28fallback14validate_ident, symObjAddr: 0x3890, symBinAddr: 0x250C0, symSize: 0x140 }
  - { offset: 0xA581B, size: 0x8, addend: 0x0, symName: __RNvNtCsaKzlTDPUHDb_11proc_macro28fallback17is_ident_continue, symObjAddr: 0x39D0, symBinAddr: 0x25200, symSize: 0x20 }
  - { offset: 0xA5849, size: 0x8, addend: 0x0, symName: __RNvNtCsaKzlTDPUHDb_11proc_macro28fallback26push_token_from_proc_macro, symObjAddr: 0x3B20, symBinAddr: 0x25220, symSize: 0x1E0 }
  - { offset: 0xA58AB, size: 0x8, addend: 0x0, symName: __RNvNvNtCsaKzlTDPUHDb_11proc_macro28fallback26push_token_from_proc_macro21push_negative_literal, symObjAddr: 0x3E50, symBinAddr: 0x7DB70, symSize: 0x170 }
  - { offset: 0xA5907, size: 0x8, addend: 0x0, symName: __RNvXs0_NtCsaKzlTDPUHDb_11proc_macro28fallbackNtB5_11TokenStreamNtNtNtCsieiGu2EXtoJ_4core3ops4drop4Drop4drop, symObjAddr: 0x3FC0, symBinAddr: 0x254F0, symSize: 0x550 }
  - { offset: 0xA5A16, size: 0x8, addend: 0x0, symName: __RNvXs3_NtCsaKzlTDPUHDb_11proc_macro28fallbackNtB5_11TokenStreamNtNtCsieiGu2EXtoJ_4core3fmt7Display3fmt, symObjAddr: 0x5D70, symBinAddr: 0x25AB0, symSize: 0x410 }
  - { offset: 0xA5BC8, size: 0x8, addend: 0x0, symName: __RNvXs7_NtCsaKzlTDPUHDb_11proc_macro28fallbackNtB5_11TokenStreamINtNtCsieiGu2EXtoJ_4core7convert4FromNtB7_9TokenTreeE4from, symObjAddr: 0x6320, symBinAddr: 0x25F00, symSize: 0x120 }
  - { offset: 0xA5C14, size: 0x8, addend: 0x0, symName: __RNvXsA_NtCsaKzlTDPUHDb_11proc_macro28fallbackNtB5_5IdentNtNtCsieiGu2EXtoJ_4core5clone5Clone5cloneB7_, symObjAddr: 0x6470, symBinAddr: 0x26020, symSize: 0x90 }
  - { offset: 0xA5C48, size: 0x8, addend: 0x0, symName: __RNvXsB_NtCsaKzlTDPUHDb_11proc_macro28fallbackNtB5_7LiteralNtNtCsieiGu2EXtoJ_4core5clone5Clone5cloneB7_, symObjAddr: 0x6500, symBinAddr: 0x260B0, symSize: 0x90 }
  - { offset: 0xA5C7C, size: 0x8, addend: 0x0, symName: __RNvXsc_NtCsaKzlTDPUHDb_11proc_macro28fallbackNtB5_11TokenStreamNtNtNtNtCsieiGu2EXtoJ_4core4iter6traits7collect12IntoIterator9into_iter, symObjAddr: 0x6760, symBinAddr: 0x26310, symSize: 0x40 }
  - { offset: 0xA5CB0, size: 0x8, addend: 0x0, symName: __RNvXse_NtCsaKzlTDPUHDb_11proc_macro28fallbackNtB5_4SpanNtNtCsieiGu2EXtoJ_4core3fmt5Debug3fmt, symObjAddr: 0x67A0, symBinAddr: 0x26350, symSize: 0x50 }
  - { offset: 0xA5CF3, size: 0x8, addend: 0x0, symName: __RNvXsg_NtCsaKzlTDPUHDb_11proc_macro28fallbackNtB5_5GroupNtNtCsieiGu2EXtoJ_4core3fmt7Display3fmt, symObjAddr: 0x67F0, symBinAddr: 0x263A0, symSize: 0x2A0 }
  - { offset: 0xA5DD4, size: 0x8, addend: 0x0, symName: __RNvXsl_NtCsaKzlTDPUHDb_11proc_macro28fallbackNtB5_5IdentNtNtCsieiGu2EXtoJ_4core3fmt7Display3fmt, symObjAddr: 0x6B80, symBinAddr: 0x26640, symSize: 0xB0 }
  - { offset: 0xA5E35, size: 0x8, addend: 0x0, symName: __RNvXso_NtCsaKzlTDPUHDb_11proc_macro28fallbackNtB5_7LiteralNtNtCsieiGu2EXtoJ_4core3fmt7Display3fmt, symObjAddr: 0x6D30, symBinAddr: 0x26760, symSize: 0x30 }
  - { offset: 0xA5E78, size: 0x8, addend: 0x0, symName: __RNvXss_NtCsaKzlTDPUHDb_11proc_macro28fallbackNtB5_11TokenStreamNtNtCsieiGu2EXtoJ_4core5clone5Clone5cloneB7_, symObjAddr: 0x6E50, symBinAddr: 0x267D0, symSize: 0x20 }
  - { offset: 0xA5EAA, size: 0x8, addend: 0x0, symName: __RNvXst_NtCsaKzlTDPUHDb_11proc_macro28fallbackNtB5_8LexErrorNtNtCsieiGu2EXtoJ_4core3fmt5Debug3fmtB7_, symObjAddr: 0x6E90, symBinAddr: 0x26810, symSize: 0x60 }
  - { offset: 0xA5EEA, size: 0x8, addend: 0x0, symName: __RNvXsu_NtCsaKzlTDPUHDb_11proc_macro28fallbackNtB5_4SpanNtNtCsieiGu2EXtoJ_4core5clone5Clone5cloneB7_, symObjAddr: 0x6EF0, symBinAddr: 0x26870, symSize: 0x10 }
  - { offset: 0xA5F1A, size: 0x8, addend: 0x0, symName: __RNvXsz_NtCsaKzlTDPUHDb_11proc_macro28fallbackNtB5_5GroupNtNtCsieiGu2EXtoJ_4core5clone5Clone5cloneB7_, symObjAddr: 0x7560, symBinAddr: 0x26A00, symSize: 0x70 }
  - { offset: 0xA64BB, size: 0x8, addend: 0x0, symName: __RNvXs3_NtNtCsieiGu2EXtoJ_4core3str7patternNCNvMsn_NtCsaKzlTDPUHDb_11proc_macro28fallbackNtBM_7Literal16from_str_checked0NtB5_11MultiCharEq7matchesBO_, symObjAddr: 0x6180, symBinAddr: 0x25EC0, symSize: 0x20 }
  - { offset: 0xA6501, size: 0x8, addend: 0x0, symName: __RNvXs3_NtNtCsieiGu2EXtoJ_4core3str7patternNCNvNtCsaKzlTDPUHDb_11proc_macro28fallback11escape_utf80NtB5_11MultiCharEq7matchesBK_, symObjAddr: 0x61A0, symBinAddr: 0x25EE0, symSize: 0x20 }
  - { offset: 0xA654D, size: 0x8, addend: 0x0, symName: __RNvXsr_NtNtCsieiGu2EXtoJ_4core3str7patternNCNvMsn_NtCsaKzlTDPUHDb_11proc_macro28fallbackNtBM_7Literal16from_str_checked0NtB5_7Pattern12is_prefix_ofBO_, symObjAddr: 0x6E10, symBinAddr: 0x26790, symSize: 0x20 }
  - { offset: 0xA6593, size: 0x8, addend: 0x0, symName: __RNvXsr_NtNtCsieiGu2EXtoJ_4core3str7patternNCNvNtCsaKzlTDPUHDb_11proc_macro28fallback11escape_utf80NtB5_7Pattern12is_prefix_ofBK_, symObjAddr: 0x6E30, symBinAddr: 0x267B0, symSize: 0x20 }
  - { offset: 0xA71BF, size: 0x8, addend: 0x0, symName: __RNvXs19_NtCsieiGu2EXtoJ_4core3fmtRNtNtCsaKzlTDPUHDb_11proc_macro28fallback4SpanNtB6_5Debug3fmtBA_, symObjAddr: 0x4510, symBinAddr: 0x25A40, symSize: 0x20 }
  - { offset: 0xA7215, size: 0x8, addend: 0x0, symName: __RNvXs_NvNtNtCsieiGu2EXtoJ_4core3fmt5Write9write_fmtQNtNtCslJiobkLta79_5alloc6string6StringNtB4_12SpecWriteFmt14spec_write_fmtCsaKzlTDPUHDb_11proc_macro2, symObjAddr: 0x65F0, symBinAddr: 0x261A0, symSize: 0x170 }
  - { offset: 0xA72CC, size: 0x8, addend: 0x0, symName: __RNvYNtNtCslJiobkLta79_5alloc6string6StringNtNtCsieiGu2EXtoJ_4core3fmt5Write9write_fmtCsaKzlTDPUHDb_11proc_macro2, symObjAddr: 0x75D0, symBinAddr: 0x26A70, symSize: 0x20 }
  - { offset: 0xA7E6A, size: 0x8, addend: 0x0, symName: __RINvXsb_NtCslJiobkLta79_5alloc6stringNtB6_6StringINtNtNtNtCsieiGu2EXtoJ_4core4iter6traits7collect6ExtendcE6extendNtNtBU_4char11EscapeDebugECsaKzlTDPUHDb_11proc_macro2, symObjAddr: 0x0, symBinAddr: 0x23C10, symSize: 0xA0 }
  - { offset: 0xA7F0D, size: 0x8, addend: 0x0, symName: __RNCINvXsb_NtCslJiobkLta79_5alloc6stringNtB8_6StringINtNtNtNtCsieiGu2EXtoJ_4core4iter6traits7collect6ExtendcE6extendNtNtBW_4char11EscapeDebugE0CsaKzlTDPUHDb_11proc_macro2, symObjAddr: 0xA0, symBinAddr: 0x23CB0, symSize: 0x30 }
  - { offset: 0xA7F94, size: 0x8, addend: 0x0, symName: __RNvXss_NtCslJiobkLta79_5alloc6stringNtB5_6StringNtNtNtCsieiGu2EXtoJ_4core3ops5deref5Deref5derefCsaKzlTDPUHDb_11proc_macro2, symObjAddr: 0x6E70, symBinAddr: 0x267F0, symSize: 0x20 }
  - { offset: 0xA8025, size: 0x8, addend: 0x0, symName: __RNvXs1V_NtCslJiobkLta79_5alloc6stringeNtB6_12SpecToString14spec_to_stringCsaKzlTDPUHDb_11proc_macro2, symObjAddr: 0x5180, symBinAddr: 0x25A60, symSize: 0x50 }
  - { offset: 0xA814E, size: 0x8, addend: 0x0, symName: __RNvXsw_NtCslJiobkLta79_5alloc6stringNtNtCsaKzlTDPUHDb_11proc_macro28fallback11TokenStreamNtB5_8ToString9to_stringBC_, symObjAddr: 0x6F00, symBinAddr: 0x26880, symSize: 0x30 }
  - { offset: 0xA8185, size: 0x8, addend: 0x0, symName: __RNvXsw_NtCslJiobkLta79_5alloc6stringeNtB5_8ToString9to_stringCsaKzlTDPUHDb_11proc_macro2, symObjAddr: 0x6F90, symBinAddr: 0x268B0, symSize: 0x30 }
  - { offset: 0xA81C2, size: 0x8, addend: 0x0, symName: __RNvXsT_NtCslJiobkLta79_5alloc6stringNtB5_6StringNtNtCsieiGu2EXtoJ_4core3fmt5Write10write_charCsaKzlTDPUHDb_11proc_macro2, symObjAddr: 0x6590, symBinAddr: 0x26140, symSize: 0x30 }
  - { offset: 0xA81FF, size: 0x8, addend: 0x0, symName: __RNvXsT_NtCslJiobkLta79_5alloc6stringNtB5_6StringNtNtCsieiGu2EXtoJ_4core3fmt5Write9write_strCsaKzlTDPUHDb_11proc_macro2, symObjAddr: 0x65C0, symBinAddr: 0x26170, symSize: 0x30 }
  - { offset: 0xA8242, size: 0x8, addend: 0x0, symName: __RNvXsl_NtCslJiobkLta79_5alloc6stringNtB5_6StringNtNtCsieiGu2EXtoJ_4core3fmt7Display3fmtCsaKzlTDPUHDb_11proc_macro2, symObjAddr: 0x6C30, symBinAddr: 0x266F0, symSize: 0x70 }
  - { offset: 0xA83A7, size: 0x8, addend: 0x0, symName: __RNvXsx_NtCslJiobkLta79_5alloc6stringNtNtCsaKzlTDPUHDb_11proc_macro28fallback11TokenStreamNtB5_12SpecToString14spec_to_stringBC_, symObjAddr: 0x7200, symBinAddr: 0x268E0, symSize: 0x120 }
  - { offset: 0xA8FE4, size: 0x8, addend: 0x0, symName: __RNvMNtCsaKzlTDPUHDb_11proc_macro28fallbackNtB2_8LexError9call_site, symObjAddr: 0x2F0, symBinAddr: 0x23DE0, symSize: 0x20 }
  - { offset: 0xA9075, size: 0x8, addend: 0x0, symName: __RNvMNtCslJiobkLta79_5alloc6stringNtB2_6String13with_capacityCsaKzlTDPUHDb_11proc_macro2, symObjAddr: 0x310, symBinAddr: 0x23E00, symSize: 0x70 }
  - { offset: 0xA92BF, size: 0x8, addend: 0x0, symName: __RNvMNtCslJiobkLta79_5alloc6stringNtB2_6String4pushCsaKzlTDPUHDb_11proc_macro2, symObjAddr: 0x3C0, symBinAddr: 0x23E70, symSize: 0x130 }
  - { offset: 0xA95A6, size: 0x8, addend: 0x0, symName: __RNvMNtCslJiobkLta79_5alloc6stringNtB2_6String6as_strCsaKzlTDPUHDb_11proc_macro2, symObjAddr: 0x4F0, symBinAddr: 0x23FA0, symSize: 0x60 }
  - { offset: 0xA987B, size: 0x8, addend: 0x0, symName: __RNvMNtCslJiobkLta79_5alloc6stringNtB2_6String6insertCsaKzlTDPUHDb_11proc_macro2, symObjAddr: 0x550, symBinAddr: 0x24000, symSize: 0x370 }
  - { offset: 0xA9FB1, size: 0x8, addend: 0x0, symName: __RNvMNtCslJiobkLta79_5alloc6stringNtB2_6String6removeCsaKzlTDPUHDb_11proc_macro2, symObjAddr: 0x8C0, symBinAddr: 0x24370, symSize: 0x3D0 }
  - { offset: 0xAA5BE, size: 0x8, addend: 0x0, symName: __RNvMNtCslJiobkLta79_5alloc6stringNtB2_6String8push_strCsaKzlTDPUHDb_11proc_macro2, symObjAddr: 0xC90, symBinAddr: 0x24740, symSize: 0x50 }
  - { offset: 0xAA706, size: 0x8, addend: 0x0, symName: __RNvMs_NtCsaKzlTDPUHDb_11proc_macro28fallbackNtB4_11TokenStream10take_inner, symObjAddr: 0xDE0, symBinAddr: 0x24790, symSize: 0x60 }
  - { offset: 0xAA745, size: 0x8, addend: 0x0, symName: __RNvMs_NtCsaKzlTDPUHDb_11proc_macro28fallbackNtB4_11TokenStream3new, symObjAddr: 0xF50, symBinAddr: 0x247F0, symSize: 0x30 }
  - { offset: 0xAA765, size: 0x8, addend: 0x0, symName: __RNvMsd_NtCsaKzlTDPUHDb_11proc_macro28fallbackNtB5_4Span10first_byte, symObjAddr: 0xFB0, symBinAddr: 0x24820, symSize: 0x10 }
  - { offset: 0xAA794, size: 0x8, addend: 0x0, symName: __RNvMsd_NtCsaKzlTDPUHDb_11proc_macro28fallbackNtB5_4Span4join, symObjAddr: 0x1050, symBinAddr: 0x24830, symSize: 0x20 }
  - { offset: 0xAA7D2, size: 0x8, addend: 0x0, symName: __RNvMsd_NtCsaKzlTDPUHDb_11proc_macro28fallbackNtB5_4Span9call_site, symObjAddr: 0x1070, symBinAddr: 0x24850, symSize: 0x10 }
  - { offset: 0xAA7E5, size: 0x8, addend: 0x0, symName: __RNvMsd_NtCsaKzlTDPUHDb_11proc_macro28fallbackNtB5_4Span9last_byte, symObjAddr: 0x1080, symBinAddr: 0x24860, symSize: 0x10 }
  - { offset: 0xAA821, size: 0x8, addend: 0x0, symName: __RNvMsf_NtCsaKzlTDPUHDb_11proc_macro28fallbackNtB5_5Group10span_close, symObjAddr: 0x1090, symBinAddr: 0x24870, symSize: 0x20 }
  - { offset: 0xAA844, size: 0x8, addend: 0x0, symName: __RNvMsf_NtCsaKzlTDPUHDb_11proc_macro28fallbackNtB5_5Group3new, symObjAddr: 0x10B0, symBinAddr: 0x24890, symSize: 0x60 }
  - { offset: 0xAA876, size: 0x8, addend: 0x0, symName: __RNvMsf_NtCsaKzlTDPUHDb_11proc_macro28fallbackNtB5_5Group4span, symObjAddr: 0x1110, symBinAddr: 0x248F0, symSize: 0x20 }
  - { offset: 0xAA899, size: 0x8, addend: 0x0, symName: __RNvMsf_NtCsaKzlTDPUHDb_11proc_macro28fallbackNtB5_5Group6stream, symObjAddr: 0x1130, symBinAddr: 0x24910, symSize: 0x20 }
  - { offset: 0xAA8C9, size: 0x8, addend: 0x0, symName: __RNvMsf_NtCsaKzlTDPUHDb_11proc_macro28fallbackNtB5_5Group8set_span, symObjAddr: 0x1150, symBinAddr: 0x24930, symSize: 0x20 }
  - { offset: 0xAA907, size: 0x8, addend: 0x0, symName: __RNvMsf_NtCsaKzlTDPUHDb_11proc_macro28fallbackNtB5_5Group9delimiter, symObjAddr: 0x1170, symBinAddr: 0x24950, symSize: 0x20 }
  - { offset: 0xAA92A, size: 0x8, addend: 0x0, symName: __RNvMsf_NtCsaKzlTDPUHDb_11proc_macro28fallbackNtB5_5Group9span_open, symObjAddr: 0x1190, symBinAddr: 0x24970, symSize: 0x20 }
  - { offset: 0xAA94D, size: 0x8, addend: 0x0, symName: __RNvMsi_NtCsaKzlTDPUHDb_11proc_macro28fallbackNtB5_5Ident11new_checked, symObjAddr: 0x11B0, symBinAddr: 0x24990, symSize: 0x70 }
  - { offset: 0xAA98B, size: 0x8, addend: 0x0, symName: __RNvMsi_NtCsaKzlTDPUHDb_11proc_macro28fallbackNtB5_5Ident13new_unchecked, symObjAddr: 0x1220, symBinAddr: 0x24A00, symSize: 0x60 }
  - { offset: 0xAA9D6, size: 0x8, addend: 0x0, symName: __RNvMsi_NtCsaKzlTDPUHDb_11proc_macro28fallbackNtB5_5Ident4span, symObjAddr: 0x1350, symBinAddr: 0x24A60, symSize: 0x20 }
  - { offset: 0xAAA3E, size: 0x8, addend: 0x0, symName: __RNvMsn_NtCsaKzlTDPUHDb_11proc_macro28fallbackNtB5_7Literal16from_str_checked, symObjAddr: 0x29C0, symBinAddr: 0x24A80, symSize: 0x2A0 }
  - { offset: 0xAAAB6, size: 0x8, addend: 0x0, symName: __RNvMsn_NtCsaKzlTDPUHDb_11proc_macro28fallbackNtB5_7Literal4__new, symObjAddr: 0x2D20, symBinAddr: 0x24D20, symSize: 0x90 }
  - { offset: 0xAAAE7, size: 0x8, addend: 0x0, symName: __RNvMsn_NtCsaKzlTDPUHDb_11proc_macro28fallbackNtB5_7Literal4span, symObjAddr: 0x2DB0, symBinAddr: 0x24DB0, symSize: 0x20 }
  - { offset: 0xAAB0A, size: 0x8, addend: 0x0, symName: __RNvMsn_NtCsaKzlTDPUHDb_11proc_macro28fallbackNtB5_7Literal6string, symObjAddr: 0x2DD0, symBinAddr: 0x24DD0, symSize: 0x130 }
  - { offset: 0xAAB78, size: 0x8, addend: 0x0, symName: __RNvMsn_NtCsaKzlTDPUHDb_11proc_macro28fallbackNtB5_7Literal8set_span, symObjAddr: 0x35B0, symBinAddr: 0x24F00, symSize: 0x20 }
  - { offset: 0xAAE16, size: 0x8, addend: 0x0, symName: __RINvMNtCsaKzlTDPUHDb_11proc_macro25parseNtB3_6Cursor14starts_with_fnNCNvMsn_NtB5_8fallbackNtB1c_7Literal16from_str_checked0EB5_, symObjAddr: 0x0, symBinAddr: 0x26A90, symSize: 0x30 }
  - { offset: 0xAAF52, size: 0x8, addend: 0x0, symName: __RINvNtCsaKzlTDPUHDb_11proc_macro25parse11backslash_uNtNtNtCsieiGu2EXtoJ_4core3str4iter11CharIndicesEB4_, symObjAddr: 0x30, symBinAddr: 0x26AC0, symSize: 0x300 }
  - { offset: 0xAB02B, size: 0x8, addend: 0x0, symName: __RINvNtCsaKzlTDPUHDb_11proc_macro25parse16backslash_x_byteINtNtNtNtCsieiGu2EXtoJ_4core4iter8adapters9enumerate9EnumerateNtNtNtB12_3str4iter5BytesEEB4_, symObjAddr: 0x330, symBinAddr: 0x26DC0, symSize: 0x130 }
  - { offset: 0xAB08E, size: 0x8, addend: 0x0, symName: __RINvNtCsaKzlTDPUHDb_11proc_macro25parse16backslash_x_charNtNtNtCsieiGu2EXtoJ_4core3str4iter11CharIndicesEB4_, symObjAddr: 0x460, symBinAddr: 0x26EF0, symSize: 0x130 }
  - { offset: 0xAB0F1, size: 0x8, addend: 0x0, symName: __RINvNtCsaKzlTDPUHDb_11proc_macro25parse19backslash_x_nonzeroNtNtNtCsieiGu2EXtoJ_4core3str4iter11CharIndicesEB4_, symObjAddr: 0x590, symBinAddr: 0x27020, symSize: 0x1B0 }
  - { offset: 0xAB185, size: 0x8, addend: 0x0, symName: __RNCNvNtCsaKzlTDPUHDb_11proc_macro25parse12float_digits0B5_, symObjAddr: 0x740, symBinAddr: 0x271D0, symSize: 0x50 }
  - { offset: 0xAB1DD, size: 0x8, addend: 0x0, symName: __RNCNvNtCsaKzlTDPUHDb_11proc_macro25parse18trailing_backslash0B5_, symObjAddr: 0x790, symBinAddr: 0x27220, symSize: 0x30 }
  - { offset: 0xAB23D, size: 0x8, addend: 0x0, symName: __RNCNvNtCsaKzlTDPUHDb_11proc_macro25parse4byte0B5_, symObjAddr: 0x7C0, symBinAddr: 0x27250, symSize: 0x20 }
  - { offset: 0xAB272, size: 0x8, addend: 0x0, symName: __RNCNvNtCsaKzlTDPUHDb_11proc_macro25parse4bytes_0B5_, symObjAddr: 0x7E0, symBinAddr: 0x27270, symSize: 0x20 }
  - { offset: 0xAB2BB, size: 0x8, addend: 0x0, symName: __RNCNvNtCsaKzlTDPUHDb_11proc_macro25parse9character0B5_, symObjAddr: 0x840, symBinAddr: 0x27290, symSize: 0x20 }
  - { offset: 0xAB2F0, size: 0x8, addend: 0x0, symName: __RNCNvNtCsaKzlTDPUHDb_11proc_macro25parse9characters_0B5_, symObjAddr: 0x860, symBinAddr: 0x272B0, symSize: 0x20 }
  - { offset: 0xAB33C, size: 0x8, addend: 0x0, symName: __RNvNtCsaKzlTDPUHDb_11proc_macro25parse10raw_string, symObjAddr: 0x1190, symBinAddr: 0x27520, symSize: 0x310 }
  - { offset: 0xAB40B, size: 0x8, addend: 0x0, symName: __RNvNtCsaKzlTDPUHDb_11proc_macro25parse10word_break, symObjAddr: 0x14A0, symBinAddr: 0x27830, symSize: 0xB0 }
  - { offset: 0xAB464, size: 0x8, addend: 0x0, symName: __RNvNtCsaKzlTDPUHDb_11proc_macro25parse11byte_string, symObjAddr: 0x1550, symBinAddr: 0x278E0, symSize: 0xF0 }
  - { offset: 0xAB4BF, size: 0x8, addend: 0x0, symName: __RNvNtCsaKzlTDPUHDb_11proc_macro25parse12float_digits, symObjAddr: 0x1DF0, symBinAddr: 0x279D0, symSize: 0x520 }
  - { offset: 0xAB5B8, size: 0x8, addend: 0x0, symName: __RNvNtCsaKzlTDPUHDb_11proc_macro25parse12raw_c_string, symObjAddr: 0x2310, symBinAddr: 0x27EF0, symSize: 0x330 }
  - { offset: 0xAB687, size: 0x8, addend: 0x0, symName: __RNvNtCsaKzlTDPUHDb_11proc_macro25parse13cooked_string, symObjAddr: 0x35A0, symBinAddr: 0x28220, symSize: 0x460 }
  - { offset: 0xAB791, size: 0x8, addend: 0x0, symName: __RNvNtCsaKzlTDPUHDb_11proc_macro25parse13ident_not_raw, symObjAddr: 0x3A00, symBinAddr: 0x28680, symSize: 0x250 }
  - { offset: 0xAB82B, size: 0x8, addend: 0x0, symName: __RNvNtCsaKzlTDPUHDb_11proc_macro25parse14literal_suffix, symObjAddr: 0x3CB0, symBinAddr: 0x288D0, symSize: 0x90 }
  - { offset: 0xAB877, size: 0x8, addend: 0x0, symName: __RNvNtCsaKzlTDPUHDb_11proc_macro25parse15cooked_c_string, symObjAddr: 0x3D40, symBinAddr: 0x28960, symSize: 0x480 }
  - { offset: 0xAB981, size: 0x8, addend: 0x0, symName: __RNvNtCsaKzlTDPUHDb_11proc_macro25parse15raw_byte_string, symObjAddr: 0x41C0, symBinAddr: 0x28DE0, symSize: 0x340 }
  - { offset: 0xABA6F, size: 0x8, addend: 0x0, symName: __RNvNtCsaKzlTDPUHDb_11proc_macro25parse17literal_nocapture, symObjAddr: 0x4980, symBinAddr: 0x29120, symSize: 0x350 }
  - { offset: 0xABB3B, size: 0x8, addend: 0x0, symName: __RNvNtCsaKzlTDPUHDb_11proc_macro25parse18cooked_byte_string, symObjAddr: 0x4CD0, symBinAddr: 0x29470, symSize: 0x3D0 }
  - { offset: 0xABC28, size: 0x8, addend: 0x0, symName: __RNvNtCsaKzlTDPUHDb_11proc_macro25parse18trailing_backslash, symObjAddr: 0x50A0, symBinAddr: 0x29840, symSize: 0x110 }
  - { offset: 0xABCB9, size: 0x8, addend: 0x0, symName: __RNvNtCsaKzlTDPUHDb_11proc_macro25parse23delimiter_of_raw_string, symObjAddr: 0x5830, symBinAddr: 0x29950, symSize: 0x1F0 }
  - { offset: 0xABD25, size: 0x8, addend: 0x0, symName: __RNvNtCsaKzlTDPUHDb_11proc_macro25parse3int, symObjAddr: 0x5CC0, symBinAddr: 0x29B40, symSize: 0x200 }
  - { offset: 0xABDE2, size: 0x8, addend: 0x0, symName: __RNvNtCsaKzlTDPUHDb_11proc_macro25parse4byte, symObjAddr: 0x5EC0, symBinAddr: 0x29D40, symSize: 0x410 }
  - { offset: 0xABF21, size: 0x8, addend: 0x0, symName: __RNvNtCsaKzlTDPUHDb_11proc_macro25parse5float, symObjAddr: 0x62D0, symBinAddr: 0x2A150, symSize: 0x200 }
  - { offset: 0xABFDE, size: 0x8, addend: 0x0, symName: __RNvNtCsaKzlTDPUHDb_11proc_macro25parse6digits, symObjAddr: 0x6950, symBinAddr: 0x2A350, symSize: 0x3D0 }
  - { offset: 0xAC0CE, size: 0x8, addend: 0x0, symName: __RNvNtCsaKzlTDPUHDb_11proc_macro25parse6string, symObjAddr: 0x6D20, symBinAddr: 0x2A720, symSize: 0xF0 }
  - { offset: 0xAC129, size: 0x8, addend: 0x0, symName: __RNvNtCsaKzlTDPUHDb_11proc_macro25parse7literal, symObjAddr: 0x6E10, symBinAddr: 0x2A810, symSize: 0x1A0 }
  - { offset: 0xAC1C9, size: 0x8, addend: 0x0, symName: __RNvNtCsaKzlTDPUHDb_11proc_macro25parse8c_string, symObjAddr: 0x6FB0, symBinAddr: 0x2A9B0, symSize: 0xF0 }
  - { offset: 0xAC224, size: 0x8, addend: 0x0, symName: __RNvNtCsaKzlTDPUHDb_11proc_macro25parse9character, symObjAddr: 0x70A0, symBinAddr: 0x2AAA0, symSize: 0x4C0 }
  - { offset: 0xAC3F1, size: 0x8, addend: 0x0, symName: __RINvMNtCsaKzlTDPUHDb_11proc_macro25parseNtB3_6Cursor14starts_with_fnNCNvMsn_NtB5_8fallbackNtB1c_7Literal16from_str_checked0EB5_, symObjAddr: 0x0, symBinAddr: 0x26A90, symSize: 0x30 }
  - { offset: 0xACB05, size: 0x8, addend: 0x0, symName: __RNvMNtCsaKzlTDPUHDb_11proc_macro25parseNtB2_6Cursor11starts_with, symObjAddr: 0x880, symBinAddr: 0x272D0, symSize: 0x40 }
  - { offset: 0xACB4F, size: 0x8, addend: 0x0, symName: __RNvMNtCsaKzlTDPUHDb_11proc_macro25parseNtB2_6Cursor12char_indices, symObjAddr: 0x8C0, symBinAddr: 0x27310, symSize: 0x40 }
  - { offset: 0xACB78, size: 0x8, addend: 0x0, symName: __RNvMNtCsaKzlTDPUHDb_11proc_macro25parseNtB2_6Cursor16starts_with_char, symObjAddr: 0x900, symBinAddr: 0x27350, symSize: 0x30 }
  - { offset: 0xACBA8, size: 0x8, addend: 0x0, symName: __RNvMNtCsaKzlTDPUHDb_11proc_macro25parseNtB2_6Cursor3len, symObjAddr: 0x930, symBinAddr: 0x27380, symSize: 0x30 }
  - { offset: 0xACBCA, size: 0x8, addend: 0x0, symName: __RNvMNtCsaKzlTDPUHDb_11proc_macro25parseNtB2_6Cursor5bytes, symObjAddr: 0x960, symBinAddr: 0x273B0, symSize: 0x30 }
  - { offset: 0xACBEC, size: 0x8, addend: 0x0, symName: __RNvMNtCsaKzlTDPUHDb_11proc_macro25parseNtB2_6Cursor5chars, symObjAddr: 0x990, symBinAddr: 0x273E0, symSize: 0x30 }
  - { offset: 0xACC15, size: 0x8, addend: 0x0, symName: __RNvMNtCsaKzlTDPUHDb_11proc_macro25parseNtB2_6Cursor5parse, symObjAddr: 0x9C0, symBinAddr: 0x27410, symSize: 0x80 }
  - { offset: 0xACC45, size: 0x8, addend: 0x0, symName: __RNvMNtCsaKzlTDPUHDb_11proc_macro25parseNtB2_6Cursor7advance, symObjAddr: 0xA40, symBinAddr: 0x27490, symSize: 0x60 }
  - { offset: 0xACC93, size: 0x8, addend: 0x0, symName: __RNvMNtCsaKzlTDPUHDb_11proc_macro25parseNtB2_6Cursor8is_empty, symObjAddr: 0xAD0, symBinAddr: 0x274F0, symSize: 0x30 }
  - { offset: 0xACE8F, size: 0x8, addend: 0x0, symName: __RINvMs_NtCslJiobkLta79_5alloc3vecINtB5_3VecNtCscKtU6MdFI5n_10proc_macro9TokenTreeE5drainNtNtNtCsieiGu2EXtoJ_4core3ops5range9RangeFullECsaKzlTDPUHDb_11proc_macro2, symObjAddr: 0x0, symBinAddr: 0x2AF60, symSize: 0x1C0 }
  - { offset: 0xAEEB7, size: 0x8, addend: 0x0, symName: __RNvNtCsaKzlTDPUHDb_11proc_macro23imp19into_compiler_token, symObjAddr: 0x3880, symBinAddr: 0x2C5A0, symSize: 0x2A0 }
  - { offset: 0xAEF88, size: 0x8, addend: 0x0, symName: __RNvNtCsaKzlTDPUHDb_11proc_macro23imp8mismatch, symObjAddr: 0x3BA0, symBinAddr: 0x7DCE0, symSize: 0x60 }
  - { offset: 0xAEFD3, size: 0x8, addend: 0x0, symName: __RNvXs1_NtCsaKzlTDPUHDb_11proc_macro23impNtB5_11TokenStreamINtNtCsieiGu2EXtoJ_4core7convert4FromNtCscKtU6MdFI5n_10proc_macro11TokenStreamE4from, symObjAddr: 0x3E50, symBinAddr: 0x2C8E0, symSize: 0x60 }
  - { offset: 0xAF005, size: 0x8, addend: 0x0, symName: __RNvXs4_NtCsaKzlTDPUHDb_11proc_macro23impNtB5_11TokenStreamINtNtCsieiGu2EXtoJ_4core7convert4FromNtB7_9TokenTreeE4from, symObjAddr: 0x3EE0, symBinAddr: 0x2C940, symSize: 0x190 }
  - { offset: 0xAF038, size: 0x8, addend: 0x0, symName: __RNvXsE_NtCsaKzlTDPUHDb_11proc_macro23impNtB5_5GroupNtNtCsieiGu2EXtoJ_4core5clone5Clone5cloneB7_, symObjAddr: 0x4400, symBinAddr: 0x2CB80, symSize: 0x90 }
  - { offset: 0xAF0A8, size: 0x8, addend: 0x0, symName: __RNvXsF_NtCsaKzlTDPUHDb_11proc_macro23impNtB5_5IdentNtNtCsieiGu2EXtoJ_4core5clone5Clone5cloneB7_, symObjAddr: 0x4490, symBinAddr: 0x2CC10, symSize: 0x90 }
  - { offset: 0xAF118, size: 0x8, addend: 0x0, symName: __RNvXsG_NtCsaKzlTDPUHDb_11proc_macro23impNtB5_7LiteralNtNtCsieiGu2EXtoJ_4core5clone5Clone5cloneB7_, symObjAddr: 0x4520, symBinAddr: 0x2CCA0, symSize: 0xB0 }
  - { offset: 0xAF188, size: 0x8, addend: 0x0, symName: __RNvXsc_NtCsaKzlTDPUHDb_11proc_macro23impNtB5_8LexErrorINtNtCsieiGu2EXtoJ_4core7convert4FromNtNtB7_8fallback8LexErrorE4from, symObjAddr: 0x45E0, symBinAddr: 0x2CD50, symSize: 0x10 }
  - { offset: 0xAF1C8, size: 0x8, addend: 0x0, symName: __RNvXsd_NtCsaKzlTDPUHDb_11proc_macro23impNtB5_8LexErrorNtNtCsieiGu2EXtoJ_4core3fmt5Debug3fmt, symObjAddr: 0x45F0, symBinAddr: 0x2CD60, symSize: 0xB0 }
  - { offset: 0xAF265, size: 0x8, addend: 0x0, symName: __RNvXsf_NtCsaKzlTDPUHDb_11proc_macro23impNtB5_11TokenStreamNtNtNtNtCsieiGu2EXtoJ_4core4iter6traits7collect12IntoIterator9into_iter, symObjAddr: 0x49D0, symBinAddr: 0x2CF50, symSize: 0x100 }
  - { offset: 0xAF2CF, size: 0x8, addend: 0x0, symName: __RNvXsg_NtCsaKzlTDPUHDb_11proc_macro23impNtB5_13TokenTreeIterNtNtNtNtCsieiGu2EXtoJ_4core4iter6traits8iterator8Iterator4next, symObjAddr: 0x4AD0, symBinAddr: 0x2D050, symSize: 0x3F0 }
  - { offset: 0xAF416, size: 0x8, addend: 0x0, symName: __RNvXsj_NtCsaKzlTDPUHDb_11proc_macro23impNtB5_4SpanINtNtCsieiGu2EXtoJ_4core7convert4FromNtNtB7_8fallback4SpanE4from, symObjAddr: 0x4F30, symBinAddr: 0x2D440, symSize: 0x10 }
  - { offset: 0xAF456, size: 0x8, addend: 0x0, symName: __RNvXsn_NtCsaKzlTDPUHDb_11proc_macro23impNtB5_5GroupNtNtCsieiGu2EXtoJ_4core3fmt7Display3fmt, symObjAddr: 0x50C0, symBinAddr: 0x2D450, symSize: 0x80 }
  - { offset: 0xAF4CD, size: 0x8, addend: 0x0, symName: __RNvXst_NtCsaKzlTDPUHDb_11proc_macro23impNtB5_5IdentNtNtCsieiGu2EXtoJ_4core3fmt7Display3fmt, symObjAddr: 0x5490, symBinAddr: 0x2D5C0, symSize: 0x80 }
  - { offset: 0xAF544, size: 0x8, addend: 0x0, symName: __RNvXsw_NtCsaKzlTDPUHDb_11proc_macro23impNtB5_7LiteralINtNtCsieiGu2EXtoJ_4core7convert4FromNtNtB7_8fallback7LiteralE4from, symObjAddr: 0x5590, symBinAddr: 0x2D640, symSize: 0x30 }
  - { offset: 0xAF578, size: 0x8, addend: 0x0, symName: __RNvXsx_NtCsaKzlTDPUHDb_11proc_macro23impNtB5_7LiteralNtNtCsieiGu2EXtoJ_4core3fmt7Display3fmt, symObjAddr: 0x55C0, symBinAddr: 0x2D670, symSize: 0x90 }
  - { offset: 0xB00E5, size: 0x8, addend: 0x0, symName: __RNvNvMs_NtCslJiobkLta79_5alloc3vecINtB6_3VecppE7set_len18precondition_checkCsaKzlTDPUHDb_11proc_macro2, symObjAddr: 0x3C00, symBinAddr: 0x2C840, symSize: 0xA0 }
  - { offset: 0xB0154, size: 0x8, addend: 0x0, symName: __RNvXs6_NtCslJiobkLta79_5alloc3vecINtB5_3VecNtCsaKzlTDPUHDb_11proc_macro29TokenTreeENtNtNtCsieiGu2EXtoJ_4core3ops5deref5Deref5derefBH_, symObjAddr: 0x4070, symBinAddr: 0x2CAD0, symSize: 0x20 }
  - { offset: 0xB01CA, size: 0x8, addend: 0x0, symName: __RNvXs9_NtCslJiobkLta79_5alloc3vecINtB5_3VecNtCsaKzlTDPUHDb_11proc_macro29TokenTreeENtNtCsieiGu2EXtoJ_4core5clone5Clone5cloneBH_, symObjAddr: 0x4190, symBinAddr: 0x2CAF0, symSize: 0x90 }
  - { offset: 0xB03A1, size: 0x8, addend: 0x0, symName: __RNvXse_NtCslJiobkLta79_5alloc3vecINtB5_3VecNtCsaKzlTDPUHDb_11proc_macro29TokenTreeENtNtNtNtCsieiGu2EXtoJ_4core4iter6traits7collect12IntoIterator9into_iterBH_, symObjAddr: 0x4890, symBinAddr: 0x2CE10, symSize: 0x140 }
  - { offset: 0xB0637, size: 0x8, addend: 0x0, symName: __RNvXsn_NtCslJiobkLta79_5alloc3vecINtB5_3VecINtNtCsaKzlTDPUHDb_11proc_macro25rcvec13RcVecIntoIterNtBK_9TokenTreeEENtNtNtCsieiGu2EXtoJ_4core3ops4drop4Drop4dropBK_, symObjAddr: 0x5140, symBinAddr: 0x2D4D0, symSize: 0x30 }
  - { offset: 0xB06E7, size: 0x8, addend: 0x0, symName: __RNvXsn_NtCslJiobkLta79_5alloc3vecINtB5_3VecINtNtCscKtU6MdFI5n_10proc_macro6bridge9TokenTreeNtNtBI_6client11TokenStreamNtB1t_4SpanNtNtBI_6symbol6SymbolEENtNtNtCsieiGu2EXtoJ_4core3ops4drop4Drop4dropCsaKzlTDPUHDb_11proc_macro2, symObjAddr: 0x5170, symBinAddr: 0x2D500, symSize: 0x30 }
  - { offset: 0xB0797, size: 0x8, addend: 0x0, symName: __RNvXsn_NtCslJiobkLta79_5alloc3vecINtB5_3VecNtCsaKzlTDPUHDb_11proc_macro29TokenTreeENtNtNtCsieiGu2EXtoJ_4core3ops4drop4Drop4dropBH_, symObjAddr: 0x51A0, symBinAddr: 0x2D530, symSize: 0x30 }
  - { offset: 0xB0847, size: 0x8, addend: 0x0, symName: __RNvXsn_NtCslJiobkLta79_5alloc3vecINtB5_3VecNtCscKtU6MdFI5n_10proc_macro9TokenTreeENtNtNtCsieiGu2EXtoJ_4core3ops4drop4Drop4dropCsaKzlTDPUHDb_11proc_macro2, symObjAddr: 0x51D0, symBinAddr: 0x2D560, symSize: 0x30 }
  - { offset: 0xB08FD, size: 0x8, addend: 0x0, symName: __RNvXso_NtCslJiobkLta79_5alloc3vecINtB5_3VecNtCsaKzlTDPUHDb_11proc_macro29TokenTreeENtNtCsieiGu2EXtoJ_4core7default7Default7defaultBH_, symObjAddr: 0x52B0, symBinAddr: 0x2D590, symSize: 0x30 }
  - { offset: 0xB12C7, size: 0x8, addend: 0x0, symName: __RINvMs_NtCslJiobkLta79_5alloc3vecINtB5_3VecNtCscKtU6MdFI5n_10proc_macro9TokenTreeE5drainNtNtNtCsieiGu2EXtoJ_4core3ops5range9RangeFullECsaKzlTDPUHDb_11proc_macro2, symObjAddr: 0x0, symBinAddr: 0x2AF60, symSize: 0x1C0 }
  - { offset: 0xB164E, size: 0x8, addend: 0x0, symName: __RNvMNtCsaKzlTDPUHDb_11proc_macro23impNtB2_19DeferredTokenStream12evaluate_now, symObjAddr: 0x1C0, symBinAddr: 0x2B120, symSize: 0x60 }
  - { offset: 0xB1670, size: 0x8, addend: 0x0, symName: __RNvMNtCsaKzlTDPUHDb_11proc_macro23impNtB2_19DeferredTokenStream17into_token_stream, symObjAddr: 0x220, symBinAddr: 0x2B180, symSize: 0x60 }
  - { offset: 0xB1693, size: 0x8, addend: 0x0, symName: __RNvMNtCsaKzlTDPUHDb_11proc_macro23impNtB2_19DeferredTokenStream3new, symObjAddr: 0x280, symBinAddr: 0x2B1E0, symSize: 0x80 }
  - { offset: 0xB1717, size: 0x8, addend: 0x0, symName: __RNvMNtCslJiobkLta79_5alloc3vecINtB2_3VecINtNtCsaKzlTDPUHDb_11proc_macro25rcvec13RcVecIntoIterNtBH_9TokenTreeEE3newBH_, symObjAddr: 0x350, symBinAddr: 0x2B260, symSize: 0x30 }
  - { offset: 0xB177D, size: 0x8, addend: 0x0, symName: __RNvMNtCslJiobkLta79_5alloc3vecINtB2_3VecNtCsaKzlTDPUHDb_11proc_macro29TokenTreeE3newBE_, symObjAddr: 0x3E0, symBinAddr: 0x2B290, symSize: 0x30 }
  - { offset: 0xB179A, size: 0x8, addend: 0x0, symName: __RNvMNtCslJiobkLta79_5alloc3vecINtB2_3VecNtCscKtU6MdFI5n_10proc_macro9TokenTreeE3newCsaKzlTDPUHDb_11proc_macro2, symObjAddr: 0x410, symBinAddr: 0x2B2C0, symSize: 0x30 }
  - { offset: 0xB17D5, size: 0x8, addend: 0x0, symName: __RNvMs_NtCsaKzlTDPUHDb_11proc_macro23impNtB4_11TokenStream3new, symObjAddr: 0x840, symBinAddr: 0x2B2F0, symSize: 0x90 }
  - { offset: 0xB194F, size: 0x8, addend: 0x0, symName: __RNvMs_NtCslJiobkLta79_5alloc3vecINtB4_3VecINtNtCsaKzlTDPUHDb_11proc_macro25rcvec13RcVecIntoIterNtBJ_9TokenTreeEE3popBJ_, symObjAddr: 0x950, symBinAddr: 0x2B380, symSize: 0x120 }
  - { offset: 0xB1AE4, size: 0x8, addend: 0x0, symName: __RNvMs_NtCslJiobkLta79_5alloc3vecINtB4_3VecINtNtCsaKzlTDPUHDb_11proc_macro25rcvec13RcVecIntoIterNtBJ_9TokenTreeEE4pushBJ_, symObjAddr: 0xA70, symBinAddr: 0x2B4A0, symSize: 0x20 }
  - { offset: 0xB1C15, size: 0x8, addend: 0x0, symName: __RNvMs_NtCslJiobkLta79_5alloc3vecINtB4_3VecINtNtCsaKzlTDPUHDb_11proc_macro25rcvec13RcVecIntoIterNtBJ_9TokenTreeEE8push_mutBJ_, symObjAddr: 0xA90, symBinAddr: 0x2B4C0, symSize: 0x120 }
  - { offset: 0xB1E0B, size: 0x8, addend: 0x0, symName: __RNvMs_NtCslJiobkLta79_5alloc3vecINtB4_3VecNtCsaKzlTDPUHDb_11proc_macro29TokenTreeE4pushBG_, symObjAddr: 0xC30, symBinAddr: 0x2B5E0, symSize: 0x20 }
  - { offset: 0xB1EE1, size: 0x8, addend: 0x0, symName: __RNvMs_NtCslJiobkLta79_5alloc3vecINtB4_3VecNtCsaKzlTDPUHDb_11proc_macro29TokenTreeE7set_lenBG_, symObjAddr: 0xC50, symBinAddr: 0x2B600, symSize: 0x70 }
  - { offset: 0xB205E, size: 0x8, addend: 0x0, symName: __RNvMs_NtCslJiobkLta79_5alloc3vecINtB4_3VecNtCsaKzlTDPUHDb_11proc_macro29TokenTreeE8as_sliceBG_, symObjAddr: 0xCC0, symBinAddr: 0x2B670, symSize: 0x50 }
  - { offset: 0xB213D, size: 0x8, addend: 0x0, symName: __RNvMs_NtCslJiobkLta79_5alloc3vecINtB4_3VecNtCsaKzlTDPUHDb_11proc_macro29TokenTreeE8is_emptyBG_, symObjAddr: 0xD10, symBinAddr: 0x2B6C0, symSize: 0x20 }
  - { offset: 0xB227C, size: 0x8, addend: 0x0, symName: __RNvMs_NtCslJiobkLta79_5alloc3vecINtB4_3VecNtCsaKzlTDPUHDb_11proc_macro29TokenTreeE8push_mutBG_, symObjAddr: 0xD30, symBinAddr: 0x2B6E0, symSize: 0x120 }
  - { offset: 0xB2456, size: 0x8, addend: 0x0, symName: __RNvMs_NtCslJiobkLta79_5alloc3vecINtB4_3VecNtCscKtU6MdFI5n_10proc_macro9TokenTreeE8is_emptyCsaKzlTDPUHDb_11proc_macro2, symObjAddr: 0xEC0, symBinAddr: 0x2B800, symSize: 0x20 }
  - { offset: 0xB24DD, size: 0x8, addend: 0x0, symName: __RNvMsh_NtCsaKzlTDPUHDb_11proc_macro23impNtB5_4Span14unwrap_nightly, symObjAddr: 0x1460, symBinAddr: 0x2B820, symSize: 0x50 }
  - { offset: 0xB2500, size: 0x8, addend: 0x0, symName: __RNvMsh_NtCsaKzlTDPUHDb_11proc_macro23impNtB5_4Span4join, symObjAddr: 0x14B0, symBinAddr: 0x2B870, symSize: 0xC0 }
  - { offset: 0xB259C, size: 0x8, addend: 0x0, symName: __RNvMsh_NtCsaKzlTDPUHDb_11proc_macro23impNtB5_4Span9call_site, symObjAddr: 0x15D0, symBinAddr: 0x2B930, symSize: 0x40 }
  - { offset: 0xB25BC, size: 0x8, addend: 0x0, symName: __RNvMsl_NtCsaKzlTDPUHDb_11proc_macro23impNtB5_5Group10span_close, symObjAddr: 0x1610, symBinAddr: 0x2B970, symSize: 0x70 }
  - { offset: 0xB2613, size: 0x8, addend: 0x0, symName: __RNvMsl_NtCsaKzlTDPUHDb_11proc_macro23impNtB5_5Group14unwrap_nightly, symObjAddr: 0x1680, symBinAddr: 0x2B9E0, symSize: 0xB0 }
  - { offset: 0xB2637, size: 0x8, addend: 0x0, symName: __RNvMsl_NtCsaKzlTDPUHDb_11proc_macro23impNtB5_5Group3new, symObjAddr: 0x1730, symBinAddr: 0x2BA90, symSize: 0x150 }
  - { offset: 0xB26B5, size: 0x8, addend: 0x0, symName: __RNvMsl_NtCsaKzlTDPUHDb_11proc_macro23impNtB5_5Group4span, symObjAddr: 0x1880, symBinAddr: 0x2BBE0, symSize: 0x70 }
  - { offset: 0xB270C, size: 0x8, addend: 0x0, symName: __RNvMsl_NtCsaKzlTDPUHDb_11proc_macro23impNtB5_5Group6stream, symObjAddr: 0x18F0, symBinAddr: 0x2BC50, symSize: 0xB0 }
  - { offset: 0xB2770, size: 0x8, addend: 0x0, symName: __RNvMsl_NtCsaKzlTDPUHDb_11proc_macro23impNtB5_5Group8set_span, symObjAddr: 0x19A0, symBinAddr: 0x2BD00, symSize: 0xC0 }
  - { offset: 0xB27FE, size: 0x8, addend: 0x0, symName: __RNvMsl_NtCsaKzlTDPUHDb_11proc_macro23impNtB5_5Group9delimiter, symObjAddr: 0x1A60, symBinAddr: 0x2BDC0, symSize: 0xC0 }
  - { offset: 0xB284D, size: 0x8, addend: 0x0, symName: __RNvMsl_NtCsaKzlTDPUHDb_11proc_macro23impNtB5_5Group9span_open, symObjAddr: 0x1B20, symBinAddr: 0x2BE80, symSize: 0x70 }
  - { offset: 0xB28A4, size: 0x8, addend: 0x0, symName: __RNvMsp_NtCsaKzlTDPUHDb_11proc_macro23impNtB5_5Ident11new_checked, symObjAddr: 0x1B90, symBinAddr: 0x2BEF0, symSize: 0xC0 }
  - { offset: 0xB2912, size: 0x8, addend: 0x0, symName: __RNvMsp_NtCsaKzlTDPUHDb_11proc_macro23impNtB5_5Ident14unwrap_nightly, symObjAddr: 0x1C50, symBinAddr: 0x2BFB0, symSize: 0xB0 }
  - { offset: 0xB2943, size: 0x8, addend: 0x0, symName: __RNvMsp_NtCsaKzlTDPUHDb_11proc_macro23impNtB5_5Ident4span, symObjAddr: 0x1DC0, symBinAddr: 0x2C060, symSize: 0x70 }
  - { offset: 0xB2A04, size: 0x8, addend: 0x0, symName: __RNvMsv_NtCsaKzlTDPUHDb_11proc_macro23impNtB5_7Literal14unwrap_nightly, symObjAddr: 0x2E80, symBinAddr: 0x2C0D0, symSize: 0xD0 }
  - { offset: 0xB2A28, size: 0x8, addend: 0x0, symName: __RNvMsv_NtCsaKzlTDPUHDb_11proc_macro23impNtB5_7Literal16from_str_checked, symObjAddr: 0x3150, symBinAddr: 0x2C1A0, symSize: 0x200 }
  - { offset: 0xB2AD2, size: 0x8, addend: 0x0, symName: __RNvMsv_NtCsaKzlTDPUHDb_11proc_macro23impNtB5_7Literal4span, symObjAddr: 0x3540, symBinAddr: 0x2C3A0, symSize: 0x80 }
  - { offset: 0xB2B29, size: 0x8, addend: 0x0, symName: __RNvMsv_NtCsaKzlTDPUHDb_11proc_macro23impNtB5_7Literal6string, symObjAddr: 0x35C0, symBinAddr: 0x2C420, symSize: 0xB0 }
  - { offset: 0xB2B80, size: 0x8, addend: 0x0, symName: __RNvMsv_NtCsaKzlTDPUHDb_11proc_macro23impNtB5_7Literal8set_span, symObjAddr: 0x3720, symBinAddr: 0x2C4D0, symSize: 0xD0 }
  - { offset: 0xB34AF, size: 0x8, addend: 0x0, symName: __RNvXst_NtNtCsieiGu2EXtoJ_4core3str7patternReNtB5_7Pattern12is_prefix_ofCsaKzlTDPUHDb_11proc_macro2, symObjAddr: 0x28E0, symBinAddr: 0x2DBA0, symSize: 0x40 }
  - { offset: 0xB34F2, size: 0x8, addend: 0x0, symName: __RNvXs2_NtNtCsieiGu2EXtoJ_4core3str7patterncNtB5_7Pattern12is_prefix_ofCsaKzlTDPUHDb_11proc_macro2, symObjAddr: 0x1DA0, symBinAddr: 0x2D700, symSize: 0x80 }
  - { offset: 0xB35A1, size: 0x8, addend: 0x0, symName: __RNvXs7_NtNtCsieiGu2EXtoJ_4core3str7patternINtB5_18MultiCharEqPatternNCNvMsn_NtCsaKzlTDPUHDb_11proc_macro28fallbackNtB1c_7Literal16from_str_checked0ENtB5_7Pattern13into_searcherB1e_, symObjAddr: 0x2020, symBinAddr: 0x2D780, symSize: 0xB0 }
  - { offset: 0xB35FD, size: 0x8, addend: 0x0, symName: __RNvXs7_NtNtCsieiGu2EXtoJ_4core3str7patternINtB5_18MultiCharEqPatternNCNvNtCsaKzlTDPUHDb_11proc_macro28fallback11escape_utf80ENtB5_7Pattern13into_searcherB1a_, symObjAddr: 0x20D0, symBinAddr: 0x2D830, symSize: 0xB0 }
  - { offset: 0xB365F, size: 0x8, addend: 0x0, symName: __RNvXs8_NtNtCsieiGu2EXtoJ_4core3str7patternINtB5_19MultiCharEqSearcherNCNvMsn_NtCsaKzlTDPUHDb_11proc_macro28fallbackNtB1d_7Literal16from_str_checked0ENtB5_8Searcher4nextB1f_, symObjAddr: 0x2180, symBinAddr: 0x2D8E0, symSize: 0x160 }
  - { offset: 0xB3787, size: 0x8, addend: 0x0, symName: __RNvXs8_NtNtCsieiGu2EXtoJ_4core3str7patternINtB5_19MultiCharEqSearcherNCNvNtCsaKzlTDPUHDb_11proc_macro28fallback11escape_utf80ENtB5_8Searcher4nextB1b_, symObjAddr: 0x22E0, symBinAddr: 0x2DA40, symSize: 0x160 }
  - { offset: 0xB38B5, size: 0x8, addend: 0x0, symName: __RNvYINtNtNtCsieiGu2EXtoJ_4core3str7pattern18MultiCharEqPatternNCNvMsn_NtCsaKzlTDPUHDb_11proc_macro28fallbackNtB16_7Literal16from_str_checked0ENtB5_7Pattern12is_prefix_ofB18_, symObjAddr: 0x3320, symBinAddr: 0x2DBE0, symSize: 0x80 }
  - { offset: 0xB38F8, size: 0x8, addend: 0x0, symName: __RNvYINtNtNtCsieiGu2EXtoJ_4core3str7pattern18MultiCharEqPatternNCNvNtCsaKzlTDPUHDb_11proc_macro28fallback11escape_utf80ENtB5_7Pattern12is_prefix_ofB14_, symObjAddr: 0x33A0, symBinAddr: 0x2DC60, symSize: 0x80 }
  - { offset: 0xB3CAE, size: 0x8, addend: 0x0, symName: __RINvMNtCsieiGu2EXtoJ_4core3stre11starts_withNCNvMsn_NtCsaKzlTDPUHDb_11proc_macro28fallbackNtBO_7Literal16from_str_checked0EBQ_, symObjAddr: 0x0, symBinAddr: 0x2DCE0, symSize: 0x20 }
  - { offset: 0xB4CAD, size: 0x8, addend: 0x0, symName: __RNvYjNtNtCsieiGu2EXtoJ_4core3cmp3Ord3maxCsaKzlTDPUHDb_11proc_macro2, symObjAddr: 0x26C0, symBinAddr: 0x2F8A0, symSize: 0x60 }
  - { offset: 0xB4D25, size: 0x8, addend: 0x0, symName: __RINvMNtCsieiGu2EXtoJ_4core3stre11starts_withNCNvMsn_NtCsaKzlTDPUHDb_11proc_macro28fallbackNtBO_7Literal16from_str_checked0EBQ_, symObjAddr: 0x0, symBinAddr: 0x2DCE0, symSize: 0x20 }
  - { offset: 0xB4D6B, size: 0x8, addend: 0x0, symName: __RINvMNtCsieiGu2EXtoJ_4core3stre11starts_withNCNvNtCsaKzlTDPUHDb_11proc_macro28fallback11escape_utf80EBM_, symObjAddr: 0x20, symBinAddr: 0x2DD00, symSize: 0x20 }
  - { offset: 0xB4DB1, size: 0x8, addend: 0x0, symName: __RINvMNtCsieiGu2EXtoJ_4core3stre11starts_withReECsaKzlTDPUHDb_11proc_macro2, symObjAddr: 0x40, symBinAddr: 0x2DD20, symSize: 0x40 }
  - { offset: 0xB4DF7, size: 0x8, addend: 0x0, symName: __RINvMNtCsieiGu2EXtoJ_4core3stre11starts_withcECsaKzlTDPUHDb_11proc_macro2, symObjAddr: 0x80, symBinAddr: 0x2DD60, symSize: 0x30 }
  - { offset: 0xB4E3D, size: 0x8, addend: 0x0, symName: __RNvMNtCsieiGu2EXtoJ_4core3stre12char_indicesCsaKzlTDPUHDb_11proc_macro2, symObjAddr: 0x9D0, symBinAddr: 0x2E3E0, symSize: 0x60 }
  - { offset: 0xB4E6B, size: 0x8, addend: 0x0, symName: __RNvMNtCsieiGu2EXtoJ_4core3stre16is_char_boundaryCsaKzlTDPUHDb_11proc_macro2, symObjAddr: 0xA30, symBinAddr: 0x2E440, symSize: 0xA0 }
  - { offset: 0xB4EF0, size: 0x8, addend: 0x0, symName: __RNvMNtCsieiGu2EXtoJ_4core3stre16split_at_checkedCsaKzlTDPUHDb_11proc_macro2, symObjAddr: 0xAD0, symBinAddr: 0x2E4E0, symSize: 0xF0 }
  - { offset: 0xB4FA3, size: 0x8, addend: 0x0, symName: __RNvMNtCsieiGu2EXtoJ_4core3stre18split_at_uncheckedCsaKzlTDPUHDb_11proc_macro2, symObjAddr: 0xBC0, symBinAddr: 0x2E5D0, symSize: 0xF0 }
  - { offset: 0xB5178, size: 0x8, addend: 0x0, symName: __RNvMNtCsieiGu2EXtoJ_4core3stre3lenCsaKzlTDPUHDb_11proc_macro2, symObjAddr: 0xCB0, symBinAddr: 0x2E6C0, symSize: 0x20 }
  - { offset: 0xB51A4, size: 0x8, addend: 0x0, symName: __RNvMNtCsieiGu2EXtoJ_4core3stre5bytesCsaKzlTDPUHDb_11proc_macro2, symObjAddr: 0xCD0, symBinAddr: 0x2E6E0, symSize: 0x20 }
  - { offset: 0xB5212, size: 0x8, addend: 0x0, symName: __RNvMNtCsieiGu2EXtoJ_4core3stre5charsCsaKzlTDPUHDb_11proc_macro2, symObjAddr: 0xCF0, symBinAddr: 0x2E700, symSize: 0x20 }
  - { offset: 0xB5280, size: 0x8, addend: 0x0, symName: __RNvMNtCsieiGu2EXtoJ_4core3stre8is_emptyCsaKzlTDPUHDb_11proc_macro2, symObjAddr: 0xD10, symBinAddr: 0x2E720, symSize: 0x20 }
  - { offset: 0xB52AC, size: 0x8, addend: 0x0, symName: __RNvMNtCsieiGu2EXtoJ_4core3stre8split_atCsaKzlTDPUHDb_11proc_macro2, symObjAddr: 0xD30, symBinAddr: 0x2E740, symSize: 0xA0 }
  - { offset: 0xB53AE, size: 0x8, addend: 0x0, symName: __RINvNtNtCsieiGu2EXtoJ_4core3str11validations15next_code_pointINtNtNtB6_5slice4iter4IterhEECsaKzlTDPUHDb_11proc_macro2, symObjAddr: 0x1B0, symBinAddr: 0x2DD90, symSize: 0x260 }
  - { offset: 0xB56E2, size: 0x8, addend: 0x0, symName: __RNvXs8_NtNtCsieiGu2EXtoJ_4core3str6traitsINtNtNtB9_3ops5range7RangeTojEINtNtNtB9_5slice5index10SliceIndexeE3getCsaKzlTDPUHDb_11proc_macro2, symObjAddr: 0x2100, symBinAddr: 0x2F3D0, symSize: 0x110 }
  - { offset: 0xB5808, size: 0x8, addend: 0x0, symName: __RNvXs8_NtNtCsieiGu2EXtoJ_4core3str6traitsINtNtNtB9_3ops5range7RangeTojEINtNtNtB9_5slice5index10SliceIndexeE5indexCsaKzlTDPUHDb_11proc_macro2, symObjAddr: 0x2210, symBinAddr: 0x2F4E0, symSize: 0x80 }
  - { offset: 0xB589B, size: 0x8, addend: 0x0, symName: __RNvXs9_NtNtCsieiGu2EXtoJ_4core3str6traitsINtNtNtB9_3ops5range9RangeFromjEINtNtNtB9_5slice5index10SliceIndexeE3getCsaKzlTDPUHDb_11proc_macro2, symObjAddr: 0x2370, symBinAddr: 0x2F640, symSize: 0x130 }
  - { offset: 0xB5A17, size: 0x8, addend: 0x0, symName: __RNvXs9_NtNtCsieiGu2EXtoJ_4core3str6traitsINtNtNtB9_3ops5range9RangeFromjEINtNtNtB9_5slice5index10SliceIndexeE5indexCsaKzlTDPUHDb_11proc_macro2, symObjAddr: 0x24A0, symBinAddr: 0x2F770, symSize: 0x90 }
  - { offset: 0xB5BF9, size: 0x8, addend: 0x0, symName: __RNvXNtNtCsieiGu2EXtoJ_4core3ops12control_flowINtB2_11ControlFlowuENtNtB4_9try_trait3Try11from_outputCsaKzlTDPUHDb_11proc_macro2, symObjAddr: 0x14C0, symBinAddr: 0x2ED10, symSize: 0x10 }
  - { offset: 0xB5C37, size: 0x8, addend: 0x0, symName: __RNvXNtNtCsieiGu2EXtoJ_4core3ops12control_flowINtB2_11ControlFlowuENtNtB4_9try_trait3Try6branchCsaKzlTDPUHDb_11proc_macro2, symObjAddr: 0x14D0, symBinAddr: 0x2ED20, symSize: 0x30 }
  - { offset: 0xB5CB5, size: 0x8, addend: 0x0, symName: __RNvXs9_NtNtCsieiGu2EXtoJ_4core3ops12control_flowINtB5_11ControlFlowuENtNtB9_3cmp9PartialEq2eqCsaKzlTDPUHDb_11proc_macro2, symObjAddr: 0x2290, symBinAddr: 0x2F560, symSize: 0xE0 }
  - { offset: 0xB5DD7, size: 0x8, addend: 0x0, symName: __RNvXs_NtNtCsieiGu2EXtoJ_4core3ops12control_flowINtB4_11ControlFlowuEINtNtB6_9try_trait12FromResidualIBK_uNtNtB8_7convert10InfallibleEE13from_residualCsaKzlTDPUHDb_11proc_macro2, symObjAddr: 0x25C0, symBinAddr: 0x2F870, symSize: 0x10 }
  - { offset: 0xB5FFA, size: 0x8, addend: 0x0, symName: __RNvXse_NtNtCsieiGu2EXtoJ_4core3ops5rangeNtB5_9RangeFullINtB5_11RangeBoundsjE11start_boundCsaKzlTDPUHDb_11proc_macro2, symObjAddr: 0x26A0, symBinAddr: 0x2F880, symSize: 0x10 }
  - { offset: 0xB6031, size: 0x8, addend: 0x0, symName: __RNvXse_NtNtCsieiGu2EXtoJ_4core3ops5rangeNtB5_9RangeFullINtB5_11RangeBoundsjE9end_boundCsaKzlTDPUHDb_11proc_macro2, symObjAddr: 0x26B0, symBinAddr: 0x2F890, symSize: 0x10 }
  - { offset: 0xB6208, size: 0x8, addend: 0x0, symName: __RINvNtNtCsieiGu2EXtoJ_4core5slice5index5rangeNtNtNtB6_3ops5range9RangeFullECsaKzlTDPUHDb_11proc_macro2, symObjAddr: 0x410, symBinAddr: 0x2DFF0, symSize: 0x280 }
  - { offset: 0xB63D7, size: 0x8, addend: 0x0, symName: __RNvNvXs2_NtNtCsieiGu2EXtoJ_4core5slice5indexINtNtNtBb_3ops5range5RangejEINtB7_10SliceIndexSpE13get_unchecked18precondition_checkCsaKzlTDPUHDb_11proc_macro2, symObjAddr: 0x13B0, symBinAddr: 0x2EC50, symSize: 0xC0 }
  - { offset: 0xB64CB, size: 0x8, addend: 0x0, symName: __RNvXs5_NtNtCsieiGu2EXtoJ_4core5slice5indexINtNtNtB9_3ops5range9RangeFromjEINtB5_10SliceIndexShE5indexCsaKzlTDPUHDb_11proc_macro2, symObjAddr: 0x1D10, symBinAddr: 0x2F070, symSize: 0x80 }
  - { offset: 0xB6884, size: 0x8, addend: 0x0, symName: __RINvXs_NtNtNtCsieiGu2EXtoJ_4core4iter8adapters6copiedINtB5_6CopiedINtNtNtBb_5slice4iter4IterhEENtNtNtB9_6traits8iterator8Iterator8try_folduNCINvNvB1v_3all5checkhNCNvNtCsaKzlTDPUHDb_11proc_macro28fallback14validate_ident0E0INtNtNtBb_3ops12control_flow11ControlFlowuEEB2F_, symObjAddr: 0x690, symBinAddr: 0x2E270, symSize: 0x20 }
  - { offset: 0xB68FF, size: 0x8, addend: 0x0, symName: __RNCINvNtNtNtCsieiGu2EXtoJ_4core4iter8adapters6copied13copy_try_foldhuINtNtNtBa_3ops12control_flow11ControlFlowuENCINvNvNtNtNtB8_6traits8iterator8Iterator3all5checkhNCNvNtCsaKzlTDPUHDb_11proc_macro28fallback14validate_ident0E0E0B2I_, symObjAddr: 0x930, symBinAddr: 0x2E3B0, symSize: 0x30 }
  - { offset: 0xB69B6, size: 0x8, addend: 0x0, symName: __RINvYINtNtNtCslJiobkLta79_5alloc3vec5drain5DrainNtCscKtU6MdFI5n_10proc_macro9TokenTreeENtNtNtNtCsieiGu2EXtoJ_4core4iter6traits8iterator8Iterator4folduNCINvNvB1n_8for_each4callBK_NCINvXsi_BM_NtBM_11TokenStreamINtNtB1r_7collect6ExtendBK_E6extendB3_E0E0ECsaKzlTDPUHDb_11proc_macro2, symObjAddr: 0x810, symBinAddr: 0x2E290, symSize: 0xD0 }
  - { offset: 0xB6A47, size: 0x8, addend: 0x0, symName: __RINvYINtNtNtCslJiobkLta79_5alloc3vec5drain5DrainNtCscKtU6MdFI5n_10proc_macro9TokenTreeENtNtNtNtCsieiGu2EXtoJ_4core4iter6traits8iterator8Iterator8for_eachNCINvXsi_BM_NtBM_11TokenStreamINtNtB1r_7collect6ExtendBK_E6extendB3_E0ECsaKzlTDPUHDb_11proc_macro2, symObjAddr: 0x8E0, symBinAddr: 0x2E360, symSize: 0x20 }
  - { offset: 0xB6A93, size: 0x8, addend: 0x0, symName: __RINvYINtNtNtNtCsieiGu2EXtoJ_4core4iter8adapters6copied6CopiedINtNtNtBc_5slice4iter4IterhEENtNtNtBa_6traits8iterator8Iterator3allNCNvNtCsaKzlTDPUHDb_11proc_macro28fallback14validate_ident0EB28_, symObjAddr: 0x900, symBinAddr: 0x2E380, symSize: 0x30 }
  - { offset: 0xB6B2C, size: 0x8, addend: 0x0, symName: __RNvXNtNtNtCsieiGu2EXtoJ_4core4iter6traits7collectINtNtNtCslJiobkLta79_5alloc3vec5drain5DrainNtCscKtU6MdFI5n_10proc_macro9TokenTreeENtB2_12IntoIterator9into_iterCsaKzlTDPUHDb_11proc_macro2, symObjAddr: 0x1500, symBinAddr: 0x2ED50, symSize: 0x30 }
  - { offset: 0xB6D7B, size: 0x8, addend: 0x0, symName: __RNvXs0_NtCsieiGu2EXtoJ_4core5allocRNtNtCslJiobkLta79_5alloc5alloc6GlobalNtB5_9Allocator10deallocateCsaKzlTDPUHDb_11proc_macro2, symObjAddr: 0x16F0, symBinAddr: 0x2EF40, symSize: 0x30 }
  - { offset: 0xB714D, size: 0x8, addend: 0x0, symName: __RNvNtNtCsieiGu2EXtoJ_4core4char7convert8from_u32CsaKzlTDPUHDb_11proc_macro2, symObjAddr: 0x11D0, symBinAddr: 0x2EB10, symSize: 0x50 }
  - { offset: 0xB71F1, size: 0x8, addend: 0x0, symName: __RNvNvNtNtCsieiGu2EXtoJ_4core4char7convert18from_u32_unchecked18precondition_checkCsaKzlTDPUHDb_11proc_macro2, symObjAddr: 0x1220, symBinAddr: 0x2EB60, symSize: 0xF0 }
  - { offset: 0xB7D17, size: 0x8, addend: 0x0, symName: __RNvXs_NtCslJiobkLta79_5alloc5allocNtB4_6GlobalNtNtCsieiGu2EXtoJ_4core5alloc9Allocator10deallocateCsaKzlTDPUHDb_11proc_macro2, symObjAddr: 0x2530, symBinAddr: 0x2F800, symSize: 0x70 }
  - { offset: 0xB7DE0, size: 0x8, addend: 0x0, symName: __RNvNtCslJiobkLta79_5alloc5alloc15exchange_mallocCsaKzlTDPUHDb_11proc_macro2, symObjAddr: 0x1130, symBinAddr: 0x2EA70, symSize: 0xA0 }
  - { offset: 0xB7E7C, size: 0x8, addend: 0x0, symName: __RNvXs1_NtCslJiobkLta79_5alloc5allocNtB5_6GlobalNtNtCsieiGu2EXtoJ_4core5clone5Clone5cloneCsaKzlTDPUHDb_11proc_macro2, symObjAddr: 0x1720, symBinAddr: 0x2EF70, symSize: 0x10 }
  - { offset: 0xB7FDE, size: 0x8, addend: 0x0, symName: __RNvXNvXs5_NtNtCslJiobkLta79_5alloc3vec5drainINtB8_5DrainppENtNtNtCsieiGu2EXtoJ_4core3ops4drop4Drop4dropINtB2_9DropGuardNtCscKtU6MdFI5n_10proc_macro9TokenTreeNtNtBc_5alloc6GlobalEBV_4dropCsaKzlTDPUHDb_11proc_macro2, symObjAddr: 0x1530, symBinAddr: 0x2ED80, symSize: 0x1C0 }
  - { offset: 0xB8315, size: 0x8, addend: 0x0, symName: __RNvXs5_NtNtCslJiobkLta79_5alloc3vec5drainINtB5_5DrainNtCscKtU6MdFI5n_10proc_macro9TokenTreeENtNtNtCsieiGu2EXtoJ_4core3ops4drop4Drop4dropCsaKzlTDPUHDb_11proc_macro2, symObjAddr: 0x1D90, symBinAddr: 0x2F0F0, symSize: 0x2E0 }
  - { offset: 0xB8817, size: 0x8, addend: 0x0, symName: __RNvXs3_NtNtCslJiobkLta79_5alloc3vec5drainINtB5_5DrainNtCscKtU6MdFI5n_10proc_macro9TokenTreeENtNtNtNtCsieiGu2EXtoJ_4core4iter6traits8iterator8Iterator4nextCsaKzlTDPUHDb_11proc_macro2, symObjAddr: 0x1810, symBinAddr: 0x2EF80, symSize: 0x90 }
  - { offset: 0xB88CF, size: 0x8, addend: 0x0, symName: __RNvXs3_NtNtCslJiobkLta79_5alloc3vec5drainINtB5_5DrainNtCscKtU6MdFI5n_10proc_macro9TokenTreeENtNtNtNtCsieiGu2EXtoJ_4core4iter6traits8iterator8Iterator9size_hintCsaKzlTDPUHDb_11proc_macro2, symObjAddr: 0x18A0, symBinAddr: 0x2F010, symSize: 0x60 }
  - { offset: 0xB8BDD, size: 0x8, addend: 0x0, symName: __RNvMNtCslJiobkLta79_5alloc5allocNtB2_6Global10alloc_implCsaKzlTDPUHDb_11proc_macro2, symObjAddr: 0xDD0, symBinAddr: 0x2E7E0, symSize: 0x290 }
  - { offset: 0xB9CDD, size: 0x8, addend: 0x0, symName: __RNvXs1_NtCsaKzlTDPUHDb_11proc_macro25rcvecINtB5_5RcVecNtB7_9TokenTreeENtNtCsieiGu2EXtoJ_4core5clone5Clone5cloneB7_, symObjAddr: 0x1DA0, symBinAddr: 0x30D30, symSize: 0x20 }
  - { offset: 0xB9D18, size: 0x8, addend: 0x0, symName: __RNvXs2_NtCsaKzlTDPUHDb_11proc_macro25rcvecINtB5_12RcVecBuilderNtB7_9TokenTreeENtNtNtNtCsieiGu2EXtoJ_4core4iter6traits7collect12IntoIterator9into_iterB7_, symObjAddr: 0x2110, symBinAddr: 0x30F60, symSize: 0x70 }
  - { offset: 0xB9D54, size: 0x8, addend: 0x0, symName: __RNvXs3_NtCsaKzlTDPUHDb_11proc_macro25rcvecINtB5_13RcVecIntoIterNtB7_9TokenTreeENtNtNtNtCsieiGu2EXtoJ_4core4iter6traits8iterator8Iterator4nextB7_, symObjAddr: 0x2220, symBinAddr: 0x31030, symSize: 0x30 }
  - { offset: 0xB9E79, size: 0x8, addend: 0x0, symName: __RNvXNtCsaKzlTDPUHDb_11proc_macro212token_streamNtB2_8IntoIterNtNtNtNtCsieiGu2EXtoJ_4core4iter6traits8iterator8Iterator4next, symObjAddr: 0x1C90, symBinAddr: 0x30D00, symSize: 0x30 }
  - { offset: 0xBAE51, size: 0x8, addend: 0x0, symName: __RNvNvMs1_NtNtCsieiGu2EXtoJ_4core3ptr8non_nullINtB7_7NonNullpE13new_unchecked18precondition_checkCsaKzlTDPUHDb_11proc_macro2, symObjAddr: 0x1A20, symBinAddr: 0x30A90, symSize: 0x90 }
  - { offset: 0xBB505, size: 0x8, addend: 0x0, symName: __RNvXsH_NtCsieiGu2EXtoJ_4core3fmtNtB5_5ErrorNtB5_5Debug3fmtCsaKzlTDPUHDb_11proc_macro2, symObjAddr: 0x22D0, symBinAddr: 0x31060, symSize: 0x40 }
  - { offset: 0xBBBC3, size: 0x8, addend: 0x0, symName: __RNvXsp_NtCsieiGu2EXtoJ_4core6resultINtB5_6ResultNtCscKtU6MdFI5n_10proc_macro7LiteralNtNtCsaKzlTDPUHDb_11proc_macro23imp8LexErrorENtNtNtB7_3ops9try_trait3Try6branchB1o_, symObjAddr: 0x26C0, symBinAddr: 0x310A0, symSize: 0x70 }
  - { offset: 0xBBC40, size: 0x8, addend: 0x0, symName: __RNvXsp_NtCsieiGu2EXtoJ_4core6resultINtB5_6ResultNtNtCsaKzlTDPUHDb_11proc_macro25parse6CursorNtBM_6RejectENtNtNtB7_3ops9try_trait3Try6branchBO_, symObjAddr: 0x2730, symBinAddr: 0x31110, symSize: 0x60 }
  - { offset: 0xBBCBC, size: 0x8, addend: 0x0, symName: __RNvXsp_NtCsieiGu2EXtoJ_4core6resultINtB5_6ResultNtNtCsaKzlTDPUHDb_11proc_macro28fallback7LiteralNtBM_8LexErrorENtNtNtB7_3ops9try_trait3Try6branchBO_, symObjAddr: 0x27D0, symBinAddr: 0x31170, symSize: 0x80 }
  - { offset: 0xBBD39, size: 0x8, addend: 0x0, symName: __RNvXsp_NtCsieiGu2EXtoJ_4core6resultINtB5_6ResultTNtNtCsaKzlTDPUHDb_11proc_macro25parse6CursorReENtBN_6RejectENtNtNtB7_3ops9try_trait3Try6branchBP_, symObjAddr: 0x28C0, symBinAddr: 0x311F0, symSize: 0x90 }
  - { offset: 0xBBDB6, size: 0x8, addend: 0x0, symName: __RNvXsp_NtCsieiGu2EXtoJ_4core6resultINtB5_6ResultTjcENtNtCsaKzlTDPUHDb_11proc_macro25parse6RejectENtNtNtB7_3ops9try_trait3Try6branchBS_, symObjAddr: 0x2A40, symBinAddr: 0x31280, symSize: 0x50 }
  - { offset: 0xBBE32, size: 0x8, addend: 0x0, symName: __RNvXsp_NtCsieiGu2EXtoJ_4core6resultINtB5_6ResultTjhENtNtCsaKzlTDPUHDb_11proc_macro25parse6RejectENtNtNtB7_3ops9try_trait3Try6branchBS_, symObjAddr: 0x2A90, symBinAddr: 0x312D0, symSize: 0x50 }
  - { offset: 0xBBEAF, size: 0x8, addend: 0x0, symName: __RNvXsp_NtCsieiGu2EXtoJ_4core6resultINtB5_6ResultcNtNtCsaKzlTDPUHDb_11proc_macro25parse6RejectENtNtNtB7_3ops9try_trait3Try6branchBP_, symObjAddr: 0x2AE0, symBinAddr: 0x31320, symSize: 0x40 }
  - { offset: 0xBBF2B, size: 0x8, addend: 0x0, symName: __RNvXsp_NtCsieiGu2EXtoJ_4core6resultINtB5_6ResultuNtNtB7_3fmt5ErrorENtNtNtB7_3ops9try_trait3Try6branchCsaKzlTDPUHDb_11proc_macro2, symObjAddr: 0x2B20, symBinAddr: 0x31360, symSize: 0x30 }
  - { offset: 0xBBFA7, size: 0x8, addend: 0x0, symName: __RNvXsp_NtCsieiGu2EXtoJ_4core6resultINtB5_6ResultuNtNtCsaKzlTDPUHDb_11proc_macro25parse6RejectENtNtNtB7_3ops9try_trait3Try6branchBP_, symObjAddr: 0x2B50, symBinAddr: 0x31390, symSize: 0x30 }
  - { offset: 0xBC029, size: 0x8, addend: 0x0, symName: __RNvXsq_NtCsieiGu2EXtoJ_4core6resultINtB5_6ResultNtNtCsaKzlTDPUHDb_11proc_macro23imp7LiteralNtBM_8LexErrorEINtNtNtB7_3ops9try_trait12FromResidualIBy_NtNtB7_7convert10InfallibleB1r_EE13from_residualBO_, symObjAddr: 0x2BF0, symBinAddr: 0x313C0, symSize: 0x30 }
  - { offset: 0xBC090, size: 0x8, addend: 0x0, symName: __RNvXsq_NtCsieiGu2EXtoJ_4core6resultINtB5_6ResultNtNtCsaKzlTDPUHDb_11proc_macro23imp7LiteralNtBM_8LexErrorEINtNtNtB7_3ops9try_trait12FromResidualIBy_NtNtB7_7convert10InfallibleNtNtBO_8fallback8LexErrorEE13from_residualBO_, symObjAddr: 0x2C20, symBinAddr: 0x313F0, symSize: 0x40 }
  - { offset: 0xBC0F7, size: 0x8, addend: 0x0, symName: __RNvXsq_NtCsieiGu2EXtoJ_4core6resultINtB5_6ResultNtNtCsaKzlTDPUHDb_11proc_macro25parse6CursorNtBM_6RejectEINtNtNtB7_3ops9try_trait12FromResidualIBy_NtNtB7_7convert10InfallibleB1s_EE13from_residualBO_, symObjAddr: 0x2C60, symBinAddr: 0x31430, symSize: 0x10 }
  - { offset: 0xBC140, size: 0x8, addend: 0x0, symName: __RNvXsq_NtCsieiGu2EXtoJ_4core6resultINtB5_6ResultTNtNtCsaKzlTDPUHDb_11proc_macro25parse6CursorNtNtBP_8fallback7LiteralENtBN_6RejectEINtNtNtB7_3ops9try_trait12FromResidualIBy_NtNtB7_7convert10InfallibleB1S_EE13from_residualBP_, symObjAddr: 0x2C90, symBinAddr: 0x31440, symSize: 0x20 }
  - { offset: 0xBC1A7, size: 0x8, addend: 0x0, symName: __RNvXsq_NtCsieiGu2EXtoJ_4core6resultINtB5_6ResultuNtNtB7_3fmt5ErrorEINtNtNtB7_3ops9try_trait12FromResidualIBy_NtNtB7_7convert10InfallibleBL_EE13from_residualCsaKzlTDPUHDb_11proc_macro2, symObjAddr: 0x2CD0, symBinAddr: 0x31460, symSize: 0x10 }
  - { offset: 0xBC7EE, size: 0x8, addend: 0x0, symName: __RNvXs2E_NtNtCsieiGu2EXtoJ_4core5slice4iterINtB6_4IterNtCsaKzlTDPUHDb_11proc_macro29TokenTreeENtNtNtNtBa_4iter6traits8iterator8Iterator4nextBR_, symObjAddr: 0x1E50, symBinAddr: 0x30D50, symSize: 0x90 }
  - { offset: 0xBC90F, size: 0x8, addend: 0x0, symName: __RNvXs2E_NtNtCsieiGu2EXtoJ_4core5slice4iterINtB6_4IterNtCscKtU6MdFI5n_10proc_macro9TokenTreeENtNtNtNtBa_4iter6traits8iterator8Iterator4nextCsaKzlTDPUHDb_11proc_macro2, symObjAddr: 0x1EE0, symBinAddr: 0x30DE0, symSize: 0x90 }
  - { offset: 0xBCA30, size: 0x8, addend: 0x0, symName: __RNvXs2E_NtNtCsieiGu2EXtoJ_4core5slice4iterINtB6_4IterhENtNtNtNtBa_4iter6traits8iterator8Iterator4nextCsaKzlTDPUHDb_11proc_macro2, symObjAddr: 0x2020, symBinAddr: 0x30E70, symSize: 0x90 }
  - { offset: 0xBCB51, size: 0x8, addend: 0x0, symName: __RNvXs2E_NtNtCsieiGu2EXtoJ_4core5slice4iterINtB6_4IterhENtNtNtNtBa_4iter6traits8iterator8Iterator9size_hintCsaKzlTDPUHDb_11proc_macro2, symObjAddr: 0x20B0, symBinAddr: 0x30F00, symSize: 0x60 }
  - { offset: 0xBCDC7, size: 0x8, addend: 0x0, symName: __RINvYINtNtNtCsieiGu2EXtoJ_4core5slice4iter4IterhENtNtNtNtBa_4iter6traits8iterator8Iterator8try_folduNCINvNtNtBR_8adapters6copied13copy_try_foldhuINtNtNtBa_3ops12control_flow11ControlFlowuENCINvNvBL_3all5checkhNCNvNtCsaKzlTDPUHDb_11proc_macro28fallback14validate_ident0E0E0B2j_EB3r_, symObjAddr: 0x460, symBinAddr: 0x2F9C0, symSize: 0x100 }
  - { offset: 0xBCE79, size: 0x8, addend: 0x0, symName: __RNvYINtNtNtCsieiGu2EXtoJ_4core5slice4iter4IterNtCsaKzlTDPUHDb_11proc_macro29TokenTreeENtNtNtNtB9_4iter6traits8iterator8Iterator9enumerateBK_, symObjAddr: 0x2CE0, symBinAddr: 0x31470, symSize: 0x20 }
  - { offset: 0xBCF3C, size: 0x8, addend: 0x0, symName: __RNvMNtNtCsieiGu2EXtoJ_4core4char7methodsc12escape_debugCsaKzlTDPUHDb_11proc_macro2, symObjAddr: 0xA40, symBinAddr: 0x2FE30, symSize: 0x50 }
  - { offset: 0xBCF6A, size: 0x8, addend: 0x0, symName: __RNvMNtNtCsieiGu2EXtoJ_4core4char7methodsc14is_ascii_digitCsaKzlTDPUHDb_11proc_macro2, symObjAddr: 0xAF0, symBinAddr: 0x2FE80, symSize: 0x40 }
  - { offset: 0xBCFD4, size: 0x8, addend: 0x0, symName: __RNvMNtNtCsieiGu2EXtoJ_4core4char7methodsc16escape_debug_extCsaKzlTDPUHDb_11proc_macro2, symObjAddr: 0xB30, symBinAddr: 0x2FEC0, symSize: 0x400 }
  - { offset: 0xBD288, size: 0x8, addend: 0x0, symName: __RNvNtNtCsieiGu2EXtoJ_4core4char7methods15encode_utf8_rawCsaKzlTDPUHDb_11proc_macro2, symObjAddr: 0x15E0, symBinAddr: 0x307C0, symSize: 0xE0 }
  - { offset: 0xBD388, size: 0x8, addend: 0x0, symName: __RNvNtNtCsieiGu2EXtoJ_4core4char7methods25encode_utf8_raw_uncheckedCsaKzlTDPUHDb_11proc_macro2, symObjAddr: 0x16C0, symBinAddr: 0x308A0, symSize: 0x140 }
  - { offset: 0xBDCA1, size: 0x8, addend: 0x0, symName: __RNvNvMNtNtCsieiGu2EXtoJ_4core5alloc6layoutNtB4_6Layout25from_size_align_unchecked18precondition_checkCsaKzlTDPUHDb_11proc_macro2, symObjAddr: 0x1970, symBinAddr: 0x309E0, symSize: 0xB0 }
  - { offset: 0xBDD17, size: 0x8, addend: 0x0, symName: __RNvNvNtCsieiGu2EXtoJ_4core4hint16assert_unchecked18precondition_checkCsaKzlTDPUHDb_11proc_macro2, symObjAddr: 0x1AB0, symBinAddr: 0x30B20, symSize: 0xA0 }
  - { offset: 0xBDD77, size: 0x8, addend: 0x0, symName: __RNvNvNtCsieiGu2EXtoJ_4core4hint21unreachable_unchecked18precondition_checkCsaKzlTDPUHDb_11proc_macro2, symObjAddr: 0x1B50, symBinAddr: 0x30BC0, symSize: 0x80 }
  - { offset: 0xBDDE1, size: 0x8, addend: 0x0, symName: __RNvNvXs5_NtNtCsieiGu2EXtoJ_4core3str6traitsINtNtNtBb_3ops5range5RangejEINtNtNtBb_5slice5index10SliceIndexeE13get_unchecked18precondition_checkCsaKzlTDPUHDb_11proc_macro2, symObjAddr: 0x1BD0, symBinAddr: 0x30C40, symSize: 0xC0 }
  - { offset: 0xBDE5E, size: 0x8, addend: 0x0, symName: __RNvXs2_NtNtCsieiGu2EXtoJ_4core3str6traitseINtNtNtB9_3ops5index5IndexINtNtBJ_5range7RangeTojEE5indexCsaKzlTDPUHDb_11proc_macro2, symObjAddr: 0x21C0, symBinAddr: 0x30FD0, symSize: 0x30 }
  - { offset: 0xBDEA1, size: 0x8, addend: 0x0, symName: __RNvXs2_NtNtCsieiGu2EXtoJ_4core3str6traitseINtNtNtB9_3ops5index5IndexINtNtBJ_5range9RangeFromjEE5indexCsaKzlTDPUHDb_11proc_macro2, symObjAddr: 0x21F0, symBinAddr: 0x31000, symSize: 0x30 }
  - { offset: 0xBE434, size: 0x8, addend: 0x0, symName: __RINvMs_NtNtCsieiGu2EXtoJ_4core3fmt2rtNtB7_9Arguments6new_v1Kj1_KBW_ECsaKzlTDPUHDb_11proc_macro2, symObjAddr: 0x230, symBinAddr: 0x2F900, symSize: 0x40 }
  - { offset: 0xBE47E, size: 0x8, addend: 0x0, symName: __RINvMs_NtNtCsieiGu2EXtoJ_4core3fmt2rtNtB7_9Arguments6new_v1Kj2_Kj1_ECsaKzlTDPUHDb_11proc_macro2, symObjAddr: 0x270, symBinAddr: 0x2F940, symSize: 0x40 }
  - { offset: 0xBE4AE, size: 0x8, addend: 0x0, symName: __RINvMs_NtNtCsieiGu2EXtoJ_4core3fmt2rtNtB7_9Arguments9new_constKj1_ECsaKzlTDPUHDb_11proc_macro2, symObjAddr: 0x2B0, symBinAddr: 0x2F980, symSize: 0x40 }
  - { offset: 0xBE546, size: 0x8, addend: 0x0, symName: __RNvMNtCsaKzlTDPUHDb_11proc_macro25rcvecINtB2_5RcVecNtB4_9TokenTreeE10make_ownedB4_, symObjAddr: 0x670, symBinAddr: 0x2FAC0, symSize: 0x110 }
  - { offset: 0xBE60F, size: 0x8, addend: 0x0, symName: __RNvMNtCsaKzlTDPUHDb_11proc_macro25rcvecINtB2_5RcVecNtB4_9TokenTreeE4iterB4_, symObjAddr: 0x7B0, symBinAddr: 0x2FBD0, symSize: 0x40 }
  - { offset: 0xBE6A4, size: 0x8, addend: 0x0, symName: __RNvMNtCsaKzlTDPUHDb_11proc_macro25rcvecINtB2_5RcVecNtB4_9TokenTreeE7get_mutB4_, symObjAddr: 0x7F0, symBinAddr: 0x2FC10, symSize: 0x70 }
  - { offset: 0xBE709, size: 0x8, addend: 0x0, symName: __RNvMNtCsaKzlTDPUHDb_11proc_macro25rcvecINtB2_5RcVecNtB4_9TokenTreeE8is_emptyB4_, symObjAddr: 0x860, symBinAddr: 0x2FC80, symSize: 0x30 }
  - { offset: 0xBE791, size: 0x8, addend: 0x0, symName: __RNvMNtCsieiGu2EXtoJ_4core6resultINtB2_6ResultNtNtCsaKzlTDPUHDb_11proc_macro28fallback7LiteralNtBJ_8LexErrorE5is_okBL_, symObjAddr: 0x8C0, symBinAddr: 0x2FCB0, symSize: 0x30 }
  - { offset: 0xBE7D3, size: 0x8, addend: 0x0, symName: __RNvMNtCsieiGu2EXtoJ_4core6resultINtB2_6ResultcNtNtCsaKzlTDPUHDb_11proc_macro25parse6RejectE5is_okBM_, symObjAddr: 0x8F0, symBinAddr: 0x2FCE0, symSize: 0x30 }
  - { offset: 0xBE833, size: 0x8, addend: 0x0, symName: __RNvMNtCsieiGu2EXtoJ_4core6resultINtB2_6ResulthNtNtNtB4_3num5error15TryFromIntErrorE6expectCsaKzlTDPUHDb_11proc_macro2, symObjAddr: 0x920, symBinAddr: 0x2FD10, symSize: 0x80 }
  - { offset: 0xBE895, size: 0x8, addend: 0x0, symName: __RNvMNtCsieiGu2EXtoJ_4core6resultINtB2_6ResultuNtNtB4_3fmt5ErrorE6expectCsaKzlTDPUHDb_11proc_macro2, symObjAddr: 0x9A0, symBinAddr: 0x2FD90, symSize: 0x80 }
  - { offset: 0xBE904, size: 0x8, addend: 0x0, symName: __RNvMNtCsieiGu2EXtoJ_4core6resultINtB2_6ResultuNtNtCsaKzlTDPUHDb_11proc_macro25parse6RejectE5is_okBM_, symObjAddr: 0xA20, symBinAddr: 0x2FE10, symSize: 0x20 }
  - { offset: 0xBEA15, size: 0x8, addend: 0x0, symName: __RNvMs0_NtCsaKzlTDPUHDb_11proc_macro25rcvecINtB5_8RcVecMutNtB7_9TokenTreeE4pushB7_, symObjAddr: 0xF50, symBinAddr: 0x302C0, symSize: 0x30 }
  - { offset: 0xBEA4F, size: 0x8, addend: 0x0, symName: __RNvMs0_NtCsaKzlTDPUHDb_11proc_macro25rcvecINtB5_8RcVecMutNtB7_9TokenTreeE4takeB7_, symObjAddr: 0xF80, symBinAddr: 0x302F0, symSize: 0x50 }
  - { offset: 0xBEAC0, size: 0x8, addend: 0x0, symName: __RNvMs1_NtNtCsieiGu2EXtoJ_4core3ptr8non_nullINtB5_7NonNullINtNtCscKtU6MdFI5n_10proc_macro6bridge9TokenTreeNtNtBW_6client11TokenStreamNtB1H_4SpanNtNtBW_6symbol6SymbolEE20offset_from_unsignedCsaKzlTDPUHDb_11proc_macro2, symObjAddr: 0xFD0, symBinAddr: 0x30340, symSize: 0x70 }
  - { offset: 0xBEBBD, size: 0x8, addend: 0x0, symName: __RNvMs1_NtNtCsieiGu2EXtoJ_4core3ptr8non_nullINtB5_7NonNullNtCsaKzlTDPUHDb_11proc_macro29TokenTreeE20offset_from_unsignedBV_, symObjAddr: 0x1040, symBinAddr: 0x303B0, symSize: 0x60 }
  - { offset: 0xBECC7, size: 0x8, addend: 0x0, symName: __RNvMs1_NtNtCsieiGu2EXtoJ_4core3ptr8non_nullINtB5_7NonNullNtCscKtU6MdFI5n_10proc_macro9TokenTreeE20offset_from_unsignedCsaKzlTDPUHDb_11proc_macro2, symObjAddr: 0x10A0, symBinAddr: 0x30410, symSize: 0x70 }
  - { offset: 0xBEDC4, size: 0x8, addend: 0x0, symName: __RNvMs1_NtNtCsieiGu2EXtoJ_4core3ptr8non_nullINtB5_7NonNullhE20offset_from_unsignedCsaKzlTDPUHDb_11proc_macro2, symObjAddr: 0x1110, symBinAddr: 0x30480, symSize: 0x60 }
  - { offset: 0xBEF3A, size: 0x8, addend: 0x0, symName: __RNvMs4_NtNtCsieiGu2EXtoJ_4core5slice4iterINtB5_4IterNtCsaKzlTDPUHDb_11proc_macro29TokenTreeE3newBQ_, symObjAddr: 0x1170, symBinAddr: 0x304E0, symSize: 0x50 }
  - { offset: 0xBF0DE, size: 0x8, addend: 0x0, symName: __RNvMs4_NtNtCsieiGu2EXtoJ_4core5slice4iterINtB5_4IterhE3newCsaKzlTDPUHDb_11proc_macro2, symObjAddr: 0x1210, symBinAddr: 0x30530, symSize: 0x50 }
  - { offset: 0xBF23A, size: 0x8, addend: 0x0, symName: __RNvMs9_NtCsieiGu2EXtoJ_4core3fmtNtB5_9Formatter9write_fmtCsaKzlTDPUHDb_11proc_macro2, symObjAddr: 0x12C0, symBinAddr: 0x30580, symSize: 0x190 }
  - { offset: 0xBF2E0, size: 0x8, addend: 0x0, symName: __RNvMs_NtCsaKzlTDPUHDb_11proc_macro25rcvecINtB4_12RcVecBuilderNtB6_9TokenTreeE3newB6_, symObjAddr: 0x14B0, symBinAddr: 0x30710, symSize: 0x50 }
  - { offset: 0xBF30A, size: 0x8, addend: 0x0, symName: __RNvMs_NtCsaKzlTDPUHDb_11proc_macro25rcvecINtB4_12RcVecBuilderNtB6_9TokenTreeE5buildB6_, symObjAddr: 0x1530, symBinAddr: 0x30760, symSize: 0x40 }
  - { offset: 0xBF336, size: 0x8, addend: 0x0, symName: __RNvMs_NtCsaKzlTDPUHDb_11proc_macro25rcvecINtB4_12RcVecBuilderNtB6_9TokenTreeE6as_mutB6_, symObjAddr: 0x1570, symBinAddr: 0x307A0, symSize: 0x20 }
  - { offset: 0xBF88E, size: 0x8, addend: 0x0, symName: __RNvXs1b_NtCsieiGu2EXtoJ_4core3fmtRNtCsaKzlTDPUHDb_11proc_macro25GroupNtB6_7Display3fmtBy_, symObjAddr: 0x2AD0, symBinAddr: 0x32A00, symSize: 0x20 }
  - { offset: 0xBF8D4, size: 0x8, addend: 0x0, symName: __RNvXs1b_NtCsieiGu2EXtoJ_4core3fmtRNtCsaKzlTDPUHDb_11proc_macro25IdentNtB6_7Display3fmtBy_, symObjAddr: 0x2AF0, symBinAddr: 0x32A20, symSize: 0x20 }
  - { offset: 0xBF91A, size: 0x8, addend: 0x0, symName: __RNvXs1b_NtCsieiGu2EXtoJ_4core3fmtRNtCsaKzlTDPUHDb_11proc_macro25PunctNtB6_7Display3fmtBy_, symObjAddr: 0x2B10, symBinAddr: 0x32A40, symSize: 0x20 }
  - { offset: 0xBF960, size: 0x8, addend: 0x0, symName: __RNvXs1b_NtCsieiGu2EXtoJ_4core3fmtRNtCsaKzlTDPUHDb_11proc_macro27LiteralNtB6_7Display3fmtBy_, symObjAddr: 0x2B30, symBinAddr: 0x32A60, symSize: 0x20 }
  - { offset: 0xC0726, size: 0x8, addend: 0x0, symName: __RNvNvMNtNtCsieiGu2EXtoJ_4core3ptr9const_ptrPp20offset_from_unsigned18precondition_checkCsaKzlTDPUHDb_11proc_macro2, symObjAddr: 0x2460, symBinAddr: 0x324D0, symSize: 0xA0 }
  - { offset: 0xC0F9B, size: 0x8, addend: 0x0, symName: __RNvYNtCsaKzlTDPUHDb_11proc_macro29DelimiterNtNtCsieiGu2EXtoJ_4core3cmp9PartialEq2neB4_, symObjAddr: 0x40E0, symBinAddr: 0x335E0, symSize: 0x20 }
  - { offset: 0xC1438, size: 0x8, addend: 0x0, symName: __RNvMNtCsieiGu2EXtoJ_4core5sliceSNtCsaKzlTDPUHDb_11proc_macro29TokenTree4iterBw_, symObjAddr: 0x980, symBinAddr: 0x31D10, symSize: 0x20 }
  - { offset: 0xC146F, size: 0x8, addend: 0x0, symName: __RNvMNtCsieiGu2EXtoJ_4core5sliceSh4iterCsaKzlTDPUHDb_11proc_macro2, symObjAddr: 0xB00, symBinAddr: 0x31D30, symSize: 0x20 }
  - { offset: 0xC14A6, size: 0x8, addend: 0x0, symName: __RNvMNtCsieiGu2EXtoJ_4core5sliceSh5firstCsaKzlTDPUHDb_11proc_macro2, symObjAddr: 0xB20, symBinAddr: 0x31D50, symSize: 0x40 }
  - { offset: 0xC1659, size: 0x8, addend: 0x0, symName: __RINvYNtNtCsieiGu2EXtoJ_4core4char11EscapeDebugNtNtNtNtB7_4iter6traits8iterator8Iterator4folduNCINvNvBI_8for_each4callcNCINvXsb_NtCslJiobkLta79_5alloc6stringNtB21_6StringINtNtBM_7collect6ExtendcE6extendB3_E0E0ECsaKzlTDPUHDb_11proc_macro2, symObjAddr: 0x7F0, symBinAddr: 0x31BB0, symSize: 0x90 }
  - { offset: 0xC16E9, size: 0x8, addend: 0x0, symName: __RINvYNtNtCsieiGu2EXtoJ_4core4char11EscapeDebugNtNtNtNtB7_4iter6traits8iterator8Iterator8for_eachNCINvXsb_NtCslJiobkLta79_5alloc6stringNtB1F_6StringINtNtBM_7collect6ExtendcE6extendB3_E0ECsaKzlTDPUHDb_11proc_macro2, symObjAddr: 0x880, symBinAddr: 0x31C40, symSize: 0x20 }
  - { offset: 0xC1760, size: 0x8, addend: 0x0, symName: __RNvXNtNtNtCsieiGu2EXtoJ_4core4iter6traits7collectNtNtB8_4char11EscapeDebugNtB2_12IntoIterator9into_iterCsaKzlTDPUHDb_11proc_macro2, symObjAddr: 0x2500, symBinAddr: 0x32570, symSize: 0x20 }
  - { offset: 0xC17F3, size: 0x8, addend: 0x0, symName: __RNvYINtNtNtCslJiobkLta79_5alloc3vec9into_iter8IntoIterINtNtCscKtU6MdFI5n_10proc_macro6bridge9TokenTreeNtNtBT_6client11TokenStreamNtB1E_4SpanNtNtBT_6symbol6SymbolEENtNtNtNtCsieiGu2EXtoJ_4core4iter6traits10exact_size17ExactSizeIterator3lenCsaKzlTDPUHDb_11proc_macro2, symObjAddr: 0x3F20, symBinAddr: 0x33420, symSize: 0xE0 }
  - { offset: 0xC18F3, size: 0x8, addend: 0x0, symName: __RNvYINtNtNtCslJiobkLta79_5alloc3vec9into_iter8IntoIterNtCsaKzlTDPUHDb_11proc_macro29TokenTreeENtNtNtNtCsieiGu2EXtoJ_4core4iter6traits10exact_size17ExactSizeIterator3lenBS_, symObjAddr: 0x4000, symBinAddr: 0x33500, symSize: 0xE0 }
  - { offset: 0xC1A1D, size: 0x8, addend: 0x0, symName: __RNvNtCsieiGu2EXtoJ_4core4char8from_u32CsaKzlTDPUHDb_11proc_macro2, symObjAddr: 0x2200, symBinAddr: 0x324B0, symSize: 0x20 }
  - { offset: 0xC1A4E, size: 0x8, addend: 0x0, symName: __RNvXs9_NtCsieiGu2EXtoJ_4core4charNtB5_11EscapeDebugNtNtNtNtB7_4iter6traits8iterator8Iterator4nextCsaKzlTDPUHDb_11proc_macro2, symObjAddr: 0x2F30, symBinAddr: 0x32E60, symSize: 0x20 }
  - { offset: 0xC1A7C, size: 0x8, addend: 0x0, symName: __RNvXs9_NtCsieiGu2EXtoJ_4core4charNtB5_11EscapeDebugNtNtNtNtB7_4iter6traits8iterator8Iterator9size_hintCsaKzlTDPUHDb_11proc_macro2, symObjAddr: 0x2F50, symBinAddr: 0x32E80, symSize: 0x30 }
  - { offset: 0xC2349, size: 0x8, addend: 0x0, symName: __RNvXsi_NtCsaKzlTDPUHDb_11proc_macro23impNtB7_4SpanINtNtCsieiGu2EXtoJ_4core7convert4FromNtCscKtU6MdFI5n_10proc_macro4SpanE4from, symObjAddr: 0x38D0, symBinAddr: 0x333A0, symSize: 0x20 }
  - { offset: 0xC2B28, size: 0x8, addend: 0x0, symName: __RNvXs0_NtCsaKzlTDPUHDb_11proc_macro212token_streamNtB7_11TokenStreamNtNtNtNtCsieiGu2EXtoJ_4core4iter6traits7collect12IntoIterator9into_iter, symObjAddr: 0x2770, symBinAddr: 0x326A0, symSize: 0x60 }
  - { offset: 0xC2B7F, size: 0x8, addend: 0x0, symName: __RNvXs11_CsaKzlTDPUHDb_11proc_macro2NtB6_7SpacingNtNtCsieiGu2EXtoJ_4core3cmp9PartialEq2eqB6_, symObjAddr: 0x27D0, symBinAddr: 0x32700, symSize: 0x30 }
  - { offset: 0xC2BFE, size: 0x8, addend: 0x0, symName: __RNvXs12_CsaKzlTDPUHDb_11proc_macro2NtB6_5IdentNtNtCsieiGu2EXtoJ_4core5clone5Clone5cloneB6_, symObjAddr: 0x2800, symBinAddr: 0x32730, symSize: 0x80 }
  - { offset: 0xC2C32, size: 0x8, addend: 0x0, symName: __RNvXs13_CsaKzlTDPUHDb_11proc_macro2NtB6_7LiteralNtNtCsieiGu2EXtoJ_4core5clone5Clone5cloneB6_, symObjAddr: 0x2880, symBinAddr: 0x327B0, symSize: 0x80 }
  - { offset: 0xC2C66, size: 0x8, addend: 0x0, symName: __RNvXs1_CsaKzlTDPUHDb_11proc_macro2NtB5_11TokenStreamINtNtCsieiGu2EXtoJ_4core7convert4FromNtCscKtU6MdFI5n_10proc_macro11TokenStreamE4from, symObjAddr: 0x2900, symBinAddr: 0x32830, symSize: 0x40 }
  - { offset: 0xC2C9A, size: 0x8, addend: 0x0, symName: __RNvXs3_CsaKzlTDPUHDb_11proc_macro2NtB5_11TokenStreamINtNtCsieiGu2EXtoJ_4core7convert4FromNtB5_9TokenTreeE4from, symObjAddr: 0x2B50, symBinAddr: 0x32A80, symSize: 0x40 }
  - { offset: 0xC2CCF, size: 0x8, addend: 0x0, symName: __RNvXsE_CsaKzlTDPUHDb_11proc_macro2NtB5_5IdentNtNtCsieiGu2EXtoJ_4core3fmt7Display3fmt, symObjAddr: 0x3070, symBinAddr: 0x32EC0, symSize: 0x30 }
  - { offset: 0xC2D12, size: 0x8, addend: 0x0, symName: __RNvXsH_CsaKzlTDPUHDb_11proc_macro2NtB5_7LiteralNtNtNtCsieiGu2EXtoJ_4core3str6traits7FromStr8from_str, symObjAddr: 0x30D0, symBinAddr: 0x32EF0, symSize: 0xC0 }
  - { offset: 0xC2D83, size: 0x8, addend: 0x0, symName: __RNvXsJ_CsaKzlTDPUHDb_11proc_macro2NtB5_7LiteralNtNtCsieiGu2EXtoJ_4core3fmt7Display3fmt, symObjAddr: 0x31C0, symBinAddr: 0x32FB0, symSize: 0x30 }
  - { offset: 0xC2DC6, size: 0x8, addend: 0x0, symName: __RNvXsM_CsaKzlTDPUHDb_11proc_macro2NtB5_4SpanNtNtCsieiGu2EXtoJ_4core5clone5Clone5cloneB5_, symObjAddr: 0x31F0, symBinAddr: 0x32FE0, symSize: 0x10 }
  - { offset: 0xC2DFA, size: 0x8, addend: 0x0, symName: __RNvXsN_CsaKzlTDPUHDb_11proc_macro2NtB5_9TokenTreeNtNtCsieiGu2EXtoJ_4core5clone5Clone5cloneB5_, symObjAddr: 0x3200, symBinAddr: 0x32FF0, symSize: 0x160 }
  - { offset: 0xC2EA6, size: 0x8, addend: 0x0, symName: __RNvXsO_CsaKzlTDPUHDb_11proc_macro2NtB5_5GroupNtNtCsieiGu2EXtoJ_4core5clone5Clone5cloneB5_, symObjAddr: 0x3360, symBinAddr: 0x33150, symSize: 0x50 }
  - { offset: 0xC2EDA, size: 0x8, addend: 0x0, symName: __RNvXsQ_CsaKzlTDPUHDb_11proc_macro2NtB5_9DelimiterNtNtCsieiGu2EXtoJ_4core5clone5Clone5cloneB5_, symObjAddr: 0x33B0, symBinAddr: 0x331A0, symSize: 0x10 }
  - { offset: 0xC2F0E, size: 0x8, addend: 0x0, symName: __RNvXsU_CsaKzlTDPUHDb_11proc_macro2NtB5_9DelimiterNtNtCsieiGu2EXtoJ_4core3cmp9PartialEq2eqB5_, symObjAddr: 0x3470, symBinAddr: 0x331B0, symSize: 0x30 }
  - { offset: 0xC2F8D, size: 0x8, addend: 0x0, symName: __RNvXsV_CsaKzlTDPUHDb_11proc_macro2NtB5_5PunctNtNtCsieiGu2EXtoJ_4core5clone5Clone5cloneB5_, symObjAddr: 0x34A0, symBinAddr: 0x331E0, symSize: 0x60 }
  - { offset: 0xC2FC1, size: 0x8, addend: 0x0, symName: __RNvXsX_CsaKzlTDPUHDb_11proc_macro2NtB5_7SpacingNtNtCsieiGu2EXtoJ_4core5clone5Clone5cloneB5_, symObjAddr: 0x3500, symBinAddr: 0x33240, symSize: 0x10 }
  - { offset: 0xC2FF5, size: 0x8, addend: 0x0, symName: __RNvXsf_CsaKzlTDPUHDb_11proc_macro2NtB5_8LexErrorNtNtCsieiGu2EXtoJ_4core3fmt5Debug3fmt, symObjAddr: 0x3870, symBinAddr: 0x33370, symSize: 0x30 }
  - { offset: 0xC3038, size: 0x8, addend: 0x0, symName: __RNvXss_CsaKzlTDPUHDb_11proc_macro2NtB5_5GroupNtNtCsieiGu2EXtoJ_4core3fmt7Display3fmt, symObjAddr: 0x3C70, symBinAddr: 0x333C0, symSize: 0x30 }
  - { offset: 0xC307B, size: 0x8, addend: 0x0, symName: __RNvXsv_CsaKzlTDPUHDb_11proc_macro2NtB5_5PunctNtNtCsieiGu2EXtoJ_4core3fmt7Display3fmt, symObjAddr: 0x3CD0, symBinAddr: 0x333F0, symSize: 0x30 }
  - { offset: 0xC34B5, size: 0x8, addend: 0x0, symName: __RNvXNvXsd_NtNtCslJiobkLta79_5alloc3vec9into_iterINtB8_8IntoIterppENtNtNtCsieiGu2EXtoJ_4core3ops4drop4Drop4dropINtB2_9DropGuardINtNtCscKtU6MdFI5n_10proc_macro6bridge9TokenTreeNtNtB23_6client11TokenStreamNtB2O_4SpanNtNtB23_6symbol6SymbolENtNtBc_5alloc6GlobalEB12_4dropCsaKzlTDPUHDb_11proc_macro2, symObjAddr: 0x25B0, symBinAddr: 0x325C0, symSize: 0x70 }
  - { offset: 0xC35CA, size: 0x8, addend: 0x0, symName: __RNvXNvXsd_NtNtCslJiobkLta79_5alloc3vec9into_iterINtB8_8IntoIterppENtNtNtCsieiGu2EXtoJ_4core3ops4drop4Drop4dropINtB2_9DropGuardNtCsaKzlTDPUHDb_11proc_macro29TokenTreeNtNtBc_5alloc6GlobalEB12_4dropB22_, symObjAddr: 0x2620, symBinAddr: 0x32630, symSize: 0x70 }
  - { offset: 0xC372F, size: 0x8, addend: 0x0, symName: __RNvXsd_NtNtCslJiobkLta79_5alloc3vec9into_iterINtB5_8IntoIterINtNtCscKtU6MdFI5n_10proc_macro6bridge9TokenTreeNtNtBZ_6client11TokenStreamNtB1K_4SpanNtNtBZ_6symbol6SymbolEENtNtNtCsieiGu2EXtoJ_4core3ops4drop4Drop4dropCsaKzlTDPUHDb_11proc_macro2, symObjAddr: 0x3710, symBinAddr: 0x33250, symSize: 0x90 }
  - { offset: 0xC37CA, size: 0x8, addend: 0x0, symName: __RNvXsd_NtNtCslJiobkLta79_5alloc3vec9into_iterINtB5_8IntoIterNtCsaKzlTDPUHDb_11proc_macro29TokenTreeENtNtNtCsieiGu2EXtoJ_4core3ops4drop4Drop4dropBY_, symObjAddr: 0x37A0, symBinAddr: 0x332E0, symSize: 0x90 }
  - { offset: 0xC386B, size: 0x8, addend: 0x0, symName: __RNvXs3_NtNtCslJiobkLta79_5alloc3vec9into_iterINtB5_8IntoIterINtNtCscKtU6MdFI5n_10proc_macro6bridge9TokenTreeNtNtBZ_6client11TokenStreamNtB1K_4SpanNtNtBZ_6symbol6SymbolEENtNtNtNtCsieiGu2EXtoJ_4core4iter6traits8iterator8Iterator9size_hintCsaKzlTDPUHDb_11proc_macro2, symObjAddr: 0x2B90, symBinAddr: 0x32AC0, symSize: 0x60 }
  - { offset: 0xC38C6, size: 0x8, addend: 0x0, symName: __RNvXs3_NtNtCslJiobkLta79_5alloc3vec9into_iterINtB5_8IntoIterNtCsaKzlTDPUHDb_11proc_macro29TokenTreeENtNtNtNtCsieiGu2EXtoJ_4core4iter6traits8iterator8Iterator4nextBY_, symObjAddr: 0x2BF0, symBinAddr: 0x32B20, symSize: 0x100 }
  - { offset: 0xC3A24, size: 0x8, addend: 0x0, symName: __RNvXs3_NtNtCslJiobkLta79_5alloc3vec9into_iterINtB5_8IntoIterNtCsaKzlTDPUHDb_11proc_macro29TokenTreeENtNtNtNtCsieiGu2EXtoJ_4core4iter6traits8iterator8Iterator9size_hintBY_, symObjAddr: 0x2CF0, symBinAddr: 0x32C20, symSize: 0x60 }
  - { offset: 0xC3F52, size: 0x8, addend: 0x0, symName: __RINvXNvMNtCslJiobkLta79_5alloc5sliceSp9to_vec_inNtCsaKzlTDPUHDb_11proc_macro29TokenTreeNtB3_10ConvertVec6to_vecNtNtB8_5alloc6GlobalEBM_, symObjAddr: 0x190, symBinAddr: 0x31550, symSize: 0x4F0 }
  - { offset: 0xC44B0, size: 0x8, addend: 0x0, symName: __RNvXNvXNvMNtCslJiobkLta79_5alloc5sliceSp9to_vec_inpNtB5_10ConvertVec6to_vecINtB2_9DropGuardNtCsaKzlTDPUHDb_11proc_macro29TokenTreeNtNtBa_5alloc6GlobalENtNtNtCsieiGu2EXtoJ_4core3ops4drop4Drop4dropB1t_, symObjAddr: 0x2550, symBinAddr: 0x32590, symSize: 0x30 }
  - { offset: 0xC4527, size: 0x8, addend: 0x0, symName: __RINvXs_NvMNtCslJiobkLta79_5alloc5sliceSp9to_vec_inhNtB5_10ConvertVec6to_vecNtNtBa_5alloc6GlobalECsaKzlTDPUHDb_11proc_macro2, symObjAddr: 0x680, symBinAddr: 0x31A40, symSize: 0x170 }
  - { offset: 0xC47A3, size: 0x8, addend: 0x0, symName: __RNCNvNtCslJiobkLta79_5alloc3fmt6format0CsaKzlTDPUHDb_11proc_macro2, symObjAddr: 0x8A0, symBinAddr: 0x31C60, symSize: 0x40 }
  - { offset: 0xC495C, size: 0x8, addend: 0x0, symName: __RNvXs1_NtNtCslJiobkLta79_5alloc5boxed7convertINtB7_3BoxShEINtB5_12BoxFromSlicehE10from_sliceCsaKzlTDPUHDb_11proc_macro2, symObjAddr: 0x2940, symBinAddr: 0x32870, symSize: 0x190 }
  - { offset: 0xC4BB3, size: 0x8, addend: 0x0, symName: __RNvXs5_NtNtCslJiobkLta79_5alloc5boxed7convertINtB7_3BoxeEINtNtCsieiGu2EXtoJ_4core7convert4FromReE4fromCsaKzlTDPUHDb_11proc_macro2, symObjAddr: 0x2D50, symBinAddr: 0x32C80, symSize: 0x60 }
  - { offset: 0xC4CEC, size: 0x8, addend: 0x0, symName: __RNvXs6_NtCslJiobkLta79_5alloc5boxedINtB5_3BoxDNtNtCsieiGu2EXtoJ_4core3any3AnyNtNtBM_6marker4SendEL_ENtNtNtBM_3ops4drop4Drop4dropCsaKzlTDPUHDb_11proc_macro2, symObjAddr: 0x2DB0, symBinAddr: 0x32CE0, symSize: 0xC0 }
  - { offset: 0xC4E29, size: 0x8, addend: 0x0, symName: __RNvXs6_NtCslJiobkLta79_5alloc5boxedINtB5_3BoxeENtNtNtCsieiGu2EXtoJ_4core3ops4drop4Drop4dropCsaKzlTDPUHDb_11proc_macro2, symObjAddr: 0x2E70, symBinAddr: 0x32DA0, symSize: 0xC0 }
  - { offset: 0xC508F, size: 0x8, addend: 0x0, symName: __RNvXs9_NtNtCscKtU6MdFI5n_10proc_macro6bridge6symbolNtB5_6SymbolNtNtCsieiGu2EXtoJ_4core5clone5Clone5cloneCsaKzlTDPUHDb_11proc_macro2, symObjAddr: 0x2F80, symBinAddr: 0x32EB0, symSize: 0x10 }
  - { offset: 0xC5528, size: 0x8, addend: 0x0, symName: __RINvNvNtCsHUR1vrdMJt_3std9panicking12catch_unwind7do_callNCNvYNtCscKtU6MdFI5n_10proc_macro7LiteralNtNtCsaKzlTDPUHDb_11proc_macro28fallback8FromStr216from_str_checked0INtNtCsieiGu2EXtoJ_4core6result6ResultBY_NtB10_8LexErrorEEB1C_, symObjAddr: 0x70, symBinAddr: 0x31490, symSize: 0x60 }
  - { offset: 0xC560E, size: 0x8, addend: 0x0, symName: __RINvNvNtCsHUR1vrdMJt_3std9panicking12catch_unwind8do_catchNCNvYNtCscKtU6MdFI5n_10proc_macro7LiteralNtNtCsaKzlTDPUHDb_11proc_macro28fallback8FromStr216from_str_checked0INtNtCsieiGu2EXtoJ_4core6result6ResultBZ_NtB11_8LexErrorEEB1D_, symObjAddr: 0x130, symBinAddr: 0x314F0, symSize: 0x60 }
  - { offset: 0xC5D7A, size: 0x8, addend: 0x0, symName: __RNvMCsaKzlTDPUHDb_11proc_macro2NtB2_11TokenStream3new, symObjAddr: 0x8E0, symBinAddr: 0x31CA0, symSize: 0x40 }
  - { offset: 0xC5D8D, size: 0x8, addend: 0x0, symName: __RNvMCsaKzlTDPUHDb_11proc_macro2NtB2_11TokenStream4__new, symObjAddr: 0x920, symBinAddr: 0x31CE0, symSize: 0x30 }
  - { offset: 0xC5E17, size: 0x8, addend: 0x0, symName: __RNvMsG_CsaKzlTDPUHDb_11proc_macro2NtB5_7Literal13__new_fallback, symObjAddr: 0x1010, symBinAddr: 0x31D90, symSize: 0x50 }
  - { offset: 0xC5E50, size: 0x8, addend: 0x0, symName: __RNvMsG_CsaKzlTDPUHDb_11proc_macro2NtB5_7Literal4__new, symObjAddr: 0x1610, symBinAddr: 0x31DE0, symSize: 0x30 }
  - { offset: 0xC5E80, size: 0x8, addend: 0x0, symName: __RNvMsG_CsaKzlTDPUHDb_11proc_macro2NtB5_7Literal4span, symObjAddr: 0x1640, symBinAddr: 0x31E10, symSize: 0x30 }
  - { offset: 0xC5EA3, size: 0x8, addend: 0x0, symName: __RNvMsG_CsaKzlTDPUHDb_11proc_macro2NtB5_7Literal6string, symObjAddr: 0x1670, symBinAddr: 0x31E40, symSize: 0x40 }
  - { offset: 0xC5EFA, size: 0x8, addend: 0x0, symName: __RNvMsG_CsaKzlTDPUHDb_11proc_macro2NtB5_7Literal8set_span, symObjAddr: 0x16F0, symBinAddr: 0x31E80, symSize: 0x30 }
  - { offset: 0xC5F94, size: 0x8, addend: 0x0, symName: __RNvMsi_CsaKzlTDPUHDb_11proc_macro2NtB5_4Span13__new_fallback, symObjAddr: 0x1900, symBinAddr: 0x31EB0, symSize: 0x20 }
  - { offset: 0xC5FC3, size: 0x8, addend: 0x0, symName: __RNvMsi_CsaKzlTDPUHDb_11proc_macro2NtB5_4Span4__new, symObjAddr: 0x1920, symBinAddr: 0x31ED0, symSize: 0x20 }
  - { offset: 0xC5FE6, size: 0x8, addend: 0x0, symName: __RNvMsi_CsaKzlTDPUHDb_11proc_macro2NtB5_4Span4join, symObjAddr: 0x1940, symBinAddr: 0x31EF0, symSize: 0x30 }
  - { offset: 0xC6018, size: 0x8, addend: 0x0, symName: __RNvMsi_CsaKzlTDPUHDb_11proc_macro2NtB5_4Span9call_site, symObjAddr: 0x19B0, symBinAddr: 0x31F20, symSize: 0x20 }
  - { offset: 0xC6038, size: 0x8, addend: 0x0, symName: __RNvMsr_CsaKzlTDPUHDb_11proc_macro2NtB5_5Group10delim_span, symObjAddr: 0x1B50, symBinAddr: 0x31F40, symSize: 0x30 }
  - { offset: 0xC605B, size: 0x8, addend: 0x0, symName: __RNvMsr_CsaKzlTDPUHDb_11proc_macro2NtB5_5Group10span_close, symObjAddr: 0x1B80, symBinAddr: 0x31F70, symSize: 0x30 }
  - { offset: 0xC607E, size: 0x8, addend: 0x0, symName: __RNvMsr_CsaKzlTDPUHDb_11proc_macro2NtB5_5Group3new, symObjAddr: 0x1C10, symBinAddr: 0x31FA0, symSize: 0x80 }
  - { offset: 0xC60B1, size: 0x8, addend: 0x0, symName: __RNvMsr_CsaKzlTDPUHDb_11proc_macro2NtB5_5Group4__new, symObjAddr: 0x1C90, symBinAddr: 0x32020, symSize: 0x30 }
  - { offset: 0xC60D4, size: 0x8, addend: 0x0, symName: __RNvMsr_CsaKzlTDPUHDb_11proc_macro2NtB5_5Group4span, symObjAddr: 0x1CC0, symBinAddr: 0x32050, symSize: 0x30 }
  - { offset: 0xC60F7, size: 0x8, addend: 0x0, symName: __RNvMsr_CsaKzlTDPUHDb_11proc_macro2NtB5_5Group6stream, symObjAddr: 0x1CF0, symBinAddr: 0x32080, symSize: 0x40 }
  - { offset: 0xC6127, size: 0x8, addend: 0x0, symName: __RNvMsr_CsaKzlTDPUHDb_11proc_macro2NtB5_5Group8set_span, symObjAddr: 0x1D30, symBinAddr: 0x320C0, symSize: 0x30 }
  - { offset: 0xC6159, size: 0x8, addend: 0x0, symName: __RNvMsr_CsaKzlTDPUHDb_11proc_macro2NtB5_5Group9delimiter, symObjAddr: 0x1D60, symBinAddr: 0x320F0, symSize: 0x20 }
  - { offset: 0xC617C, size: 0x8, addend: 0x0, symName: __RNvMsr_CsaKzlTDPUHDb_11proc_macro2NtB5_5Group9span_open, symObjAddr: 0x1D80, symBinAddr: 0x32110, symSize: 0x30 }
  - { offset: 0xC619F, size: 0x8, addend: 0x0, symName: __RNvMsu_CsaKzlTDPUHDb_11proc_macro2NtB5_5Punct3new, symObjAddr: 0x1DB0, symBinAddr: 0x32140, symSize: 0x240 }
  - { offset: 0xC61FD, size: 0x8, addend: 0x0, symName: __RNvMsu_CsaKzlTDPUHDb_11proc_macro2NtB5_5Punct4span, symObjAddr: 0x1FF0, symBinAddr: 0x32380, symSize: 0x20 }
  - { offset: 0xC6220, size: 0x8, addend: 0x0, symName: __RNvMsu_CsaKzlTDPUHDb_11proc_macro2NtB5_5Punct7as_char, symObjAddr: 0x2010, symBinAddr: 0x323A0, symSize: 0x20 }
  - { offset: 0xC6243, size: 0x8, addend: 0x0, symName: __RNvMsu_CsaKzlTDPUHDb_11proc_macro2NtB5_5Punct7spacing, symObjAddr: 0x2030, symBinAddr: 0x323C0, symSize: 0x20 }
  - { offset: 0xC6273, size: 0x8, addend: 0x0, symName: __RNvMsu_CsaKzlTDPUHDb_11proc_macro2NtB5_5Punct8set_span, symObjAddr: 0x2050, symBinAddr: 0x323E0, symSize: 0x20 }
  - { offset: 0xC62A5, size: 0x8, addend: 0x0, symName: __RNvMsx_CsaKzlTDPUHDb_11proc_macro2NtB5_5Ident3new, symObjAddr: 0x20C0, symBinAddr: 0x32400, symSize: 0x50 }
  - { offset: 0xC62D7, size: 0x8, addend: 0x0, symName: __RNvMsx_CsaKzlTDPUHDb_11proc_macro2NtB5_5Ident4__new, symObjAddr: 0x2110, symBinAddr: 0x32450, symSize: 0x30 }
  - { offset: 0xC6307, size: 0x8, addend: 0x0, symName: __RNvMsx_CsaKzlTDPUHDb_11proc_macro2NtB5_5Ident4span, symObjAddr: 0x2140, symBinAddr: 0x32480, symSize: 0x30 }
  - { offset: 0xC6A9E, size: 0x8, addend: 0x0, symName: __RINvMNtCsieiGu2EXtoJ_4core6optionINtB3_6OptionIBw_cEE18get_or_insert_withNCNvMs3_NtNtNtB5_4iter8adapters8peekableINtB1h_8PeekableNtNtNtB5_3str4iter5CharsE4peek0ECsaKzlTDPUHDb_11proc_macro2, symObjAddr: 0x0, symBinAddr: 0x33600, symSize: 0xE0 }
  - { offset: 0xC6AC2, size: 0x8, addend: 0x0, symName: __RNvNtCsaKzlTDPUHDb_11proc_macro29detection4INIT, symObjAddr: 0x45A8, symBinAddr: 0xB4EF8, symSize: 0x0 }
  - { offset: 0xC6ADC, size: 0x8, addend: 0x0, symName: __RNvNtCsaKzlTDPUHDb_11proc_macro29detection5WORKS, symObjAddr: 0x2A950, symBinAddr: 0xB5A90, symSize: 0x0 }
  - { offset: 0xC6AE9, size: 0x8, addend: 0x0, symName: __RNvNtCsaKzlTDPUHDb_11proc_macro29detection10initialize, symObjAddr: 0x24F0, symBinAddr: 0x34F00, symSize: 0x60 }
  - { offset: 0xC6B18, size: 0x8, addend: 0x0, symName: __RNvNtCsaKzlTDPUHDb_11proc_macro29detection17inside_proc_macro, symObjAddr: 0x25A0, symBinAddr: 0x34F60, symSize: 0x80 }
  - { offset: 0xC7254, size: 0x8, addend: 0x0, symName: __RINvNtNtCsieiGu2EXtoJ_4core4sync6atomic11atomic_loadOuECsaKzlTDPUHDb_11proc_macro2, symObjAddr: 0x18C0, symBinAddr: 0x348E0, symSize: 0x150 }
  - { offset: 0xC72C6, size: 0x8, addend: 0x0, symName: __RINvNtNtCsieiGu2EXtoJ_4core4sync6atomic11atomic_loadjECsaKzlTDPUHDb_11proc_macro2, symObjAddr: 0x1A10, symBinAddr: 0x34A30, symSize: 0x150 }
  - { offset: 0xC7338, size: 0x8, addend: 0x0, symName: __RINvNtNtCsieiGu2EXtoJ_4core4sync6atomic12atomic_storejECsaKzlTDPUHDb_11proc_macro2, symObjAddr: 0x1B60, symBinAddr: 0x34B80, symSize: 0x160 }
  - { offset: 0xC7E9B, size: 0x8, addend: 0x0, symName: __RNvXsC_NtCsieiGu2EXtoJ_4core6optionINtB5_6OptionNtCscKtU6MdFI5n_10proc_macro9TokenTreeENtNtNtB7_3ops9try_trait3Try6branchCsaKzlTDPUHDb_11proc_macro2, symObjAddr: 0x3410, symBinAddr: 0x35B00, symSize: 0x70 }
  - { offset: 0xC7EF1, size: 0x8, addend: 0x0, symName: __RNvXsC_NtCsieiGu2EXtoJ_4core6optionINtB5_6OptionNtNtCsaKzlTDPUHDb_11proc_macro28fallback4SpanENtNtNtB7_3ops9try_trait3Try6branchBO_, symObjAddr: 0x3480, symBinAddr: 0x35B70, symSize: 0x30 }
  - { offset: 0xC7F46, size: 0x8, addend: 0x0, symName: __RNvXsC_NtCsieiGu2EXtoJ_4core6optionINtB5_6OptionQINtNtCslJiobkLta79_5alloc3vec3VecNtCsaKzlTDPUHDb_11proc_macro29TokenTreeEENtNtNtB7_3ops9try_trait3Try6branchB1k_, symObjAddr: 0x34B0, symBinAddr: 0x35BA0, symSize: 0x40 }
  - { offset: 0xC7FA1, size: 0x8, addend: 0x0, symName: __RNvXsD_NtCsieiGu2EXtoJ_4core6optionINtB5_6OptionINtNtCsaKzlTDPUHDb_11proc_macro25rcvec8RcVecMutNtBP_9TokenTreeEEINtNtNtB7_3ops9try_trait12FromResidualIBy_NtNtB7_7convert10InfallibleEE13from_residualBP_, symObjAddr: 0x34F0, symBinAddr: 0x35BE0, symSize: 0x10 }
  - { offset: 0xC7FD4, size: 0x8, addend: 0x0, symName: __RNvXsD_NtCsieiGu2EXtoJ_4core6optionINtB5_6OptionNtCsaKzlTDPUHDb_11proc_macro29TokenTreeEINtNtNtB7_3ops9try_trait12FromResidualIBy_NtNtB7_7convert10InfallibleEE13from_residualBM_, symObjAddr: 0x3500, symBinAddr: 0x35BF0, symSize: 0x10 }
  - { offset: 0xC8007, size: 0x8, addend: 0x0, symName: __RNvXsD_NtCsieiGu2EXtoJ_4core6optionINtB5_6OptionNtNtCsaKzlTDPUHDb_11proc_macro23imp4SpanEINtNtNtB7_3ops9try_trait12FromResidualIBy_NtNtB7_7convert10InfallibleEE13from_residualBO_, symObjAddr: 0x3510, symBinAddr: 0x35C00, symSize: 0x10 }
  - { offset: 0xC8040, size: 0x8, addend: 0x0, symName: __RNvXsI_NtCsieiGu2EXtoJ_4core6optionINtB5_6OptionhENtNtB7_3fmt5Debug3fmtCsaKzlTDPUHDb_11proc_macro2, symObjAddr: 0x3560, symBinAddr: 0x35C10, symSize: 0x80 }
  - { offset: 0xC84F0, size: 0x8, addend: 0x0, symName: __RINvNtCsieiGu2EXtoJ_4core3ptr13drop_in_placeINtNtB4_6option6OptionNtNtNtCscKtU6MdFI5n_10proc_macro6bridge6client11TokenStreamEECsaKzlTDPUHDb_11proc_macro2, symObjAddr: 0xAE0, symBinAddr: 0x33CD0, symSize: 0x40 }
  - { offset: 0xC851F, size: 0x8, addend: 0x0, symName: __RINvNtCsieiGu2EXtoJ_4core3ptr13drop_in_placeINtNtB4_6result6ResultNtNtCsaKzlTDPUHDb_11proc_macro28fallback7LiteralNtB14_8LexErrorEEB16_, symObjAddr: 0xB60, symBinAddr: 0x33D10, symSize: 0x40 }
  - { offset: 0xC854E, size: 0x8, addend: 0x0, symName: __RINvNtCsieiGu2EXtoJ_4core3ptr13drop_in_placeINtNtCsaKzlTDPUHDb_11proc_macro25rcvec12RcVecBuilderNtBL_9TokenTreeEEBL_, symObjAddr: 0xBA0, symBinAddr: 0x33D50, symSize: 0x20 }
  - { offset: 0xC857D, size: 0x8, addend: 0x0, symName: __RINvNtCsieiGu2EXtoJ_4core3ptr13drop_in_placeINtNtCsaKzlTDPUHDb_11proc_macro25rcvec13RcVecIntoIterNtBL_9TokenTreeEEBL_, symObjAddr: 0xBC0, symBinAddr: 0x33D70, symSize: 0x20 }
  - { offset: 0xC85AC, size: 0x8, addend: 0x0, symName: __RINvNtCsieiGu2EXtoJ_4core3ptr13drop_in_placeINtNtCsaKzlTDPUHDb_11proc_macro25rcvec5RcVecNtBL_9TokenTreeEEBL_, symObjAddr: 0xBE0, symBinAddr: 0x33D90, symSize: 0x20 }
  - { offset: 0xC85DB, size: 0x8, addend: 0x0, symName: __RINvNtCsieiGu2EXtoJ_4core3ptr13drop_in_placeINtNtCscKtU6MdFI5n_10proc_macro6bridge5GroupNtNtBJ_6client11TokenStreamNtB1q_4SpanEECsaKzlTDPUHDb_11proc_macro2, symObjAddr: 0xC00, symBinAddr: 0x33DB0, symSize: 0x20 }
  - { offset: 0xC860A, size: 0x8, addend: 0x0, symName: __RINvNtCsieiGu2EXtoJ_4core3ptr13drop_in_placeINtNtCscKtU6MdFI5n_10proc_macro6bridge9TokenTreeNtNtBJ_6client11TokenStreamNtB1u_4SpanNtNtBJ_6symbol6SymbolEECsaKzlTDPUHDb_11proc_macro2, symObjAddr: 0xC20, symBinAddr: 0x33DD0, symSize: 0x40 }
  - { offset: 0xC8639, size: 0x8, addend: 0x0, symName: __RINvNtCsieiGu2EXtoJ_4core3ptr13drop_in_placeINtNtCslJiobkLta79_5alloc2rc2RcINtNtBL_3vec3VecNtCsaKzlTDPUHDb_11proc_macro29TokenTreeEEEB1t_, symObjAddr: 0xC60, symBinAddr: 0x33E10, symSize: 0x20 }
  - { offset: 0xC8668, size: 0x8, addend: 0x0, symName: __RINvNtCsieiGu2EXtoJ_4core3ptr13drop_in_placeINtNtCslJiobkLta79_5alloc2rc4WeakINtNtBL_3vec3VecNtCsaKzlTDPUHDb_11proc_macro29TokenTreeERNtNtBL_5alloc6GlobalEEB1v_, symObjAddr: 0xC80, symBinAddr: 0x33E30, symSize: 0x20 }
  - { offset: 0xC8697, size: 0x8, addend: 0x0, symName: __RINvNtCsieiGu2EXtoJ_4core3ptr13drop_in_placeINtNtCslJiobkLta79_5alloc2rc7RcInnerINtNtBL_3vec3VecNtCsaKzlTDPUHDb_11proc_macro29TokenTreeEEEB1y_, symObjAddr: 0xCA0, symBinAddr: 0x33E50, symSize: 0x20 }
  - { offset: 0xC86C6, size: 0x8, addend: 0x0, symName: __RINvNtCsieiGu2EXtoJ_4core3ptr13drop_in_placeINtNtCslJiobkLta79_5alloc3vec3VecINtNtCsaKzlTDPUHDb_11proc_macro25rcvec13RcVecIntoIterNtB1i_9TokenTreeEEEB1i_, symObjAddr: 0xCC0, symBinAddr: 0x33E70, symSize: 0x50 }
  - { offset: 0xC86F5, size: 0x8, addend: 0x0, symName: __RINvNtCsieiGu2EXtoJ_4core3ptr13drop_in_placeINtNtCslJiobkLta79_5alloc3vec3VecINtNtCscKtU6MdFI5n_10proc_macro6bridge9TokenTreeNtNtB1g_6client11TokenStreamNtB21_4SpanNtNtB1g_6symbol6SymbolEEECsaKzlTDPUHDb_11proc_macro2, symObjAddr: 0xD10, symBinAddr: 0x33EC0, symSize: 0x50 }
  - { offset: 0xC8724, size: 0x8, addend: 0x0, symName: __RINvNtCsieiGu2EXtoJ_4core3ptr13drop_in_placeINtNtCslJiobkLta79_5alloc3vec3VecNtCsaKzlTDPUHDb_11proc_macro29TokenTreeEEB1f_, symObjAddr: 0xD60, symBinAddr: 0x33F10, symSize: 0x50 }
  - { offset: 0xC8753, size: 0x8, addend: 0x0, symName: __RINvNtCsieiGu2EXtoJ_4core3ptr13drop_in_placeINtNtCslJiobkLta79_5alloc3vec3VecNtCscKtU6MdFI5n_10proc_macro9TokenTreeEECsaKzlTDPUHDb_11proc_macro2, symObjAddr: 0xDB0, symBinAddr: 0x33F60, symSize: 0x50 }
  - { offset: 0xC8782, size: 0x8, addend: 0x0, symName: __RINvNtCsieiGu2EXtoJ_4core3ptr13drop_in_placeINtNtCslJiobkLta79_5alloc3vec3VechEECsaKzlTDPUHDb_11proc_macro2, symObjAddr: 0xE50, symBinAddr: 0x33FB0, symSize: 0x50 }
  - { offset: 0xC87B1, size: 0x8, addend: 0x0, symName: __RINvNtCsieiGu2EXtoJ_4core3ptr13drop_in_placeINtNtCslJiobkLta79_5alloc5boxed3BoxDNtNtB4_3any3AnyNtNtB4_6marker4SendEL_EECsaKzlTDPUHDb_11proc_macro2, symObjAddr: 0xEA0, symBinAddr: 0x34000, symSize: 0x70 }
  - { offset: 0xC87E0, size: 0x8, addend: 0x0, symName: __RINvNtCsieiGu2EXtoJ_4core3ptr13drop_in_placeINtNtCslJiobkLta79_5alloc5boxed3BoxeEECsaKzlTDPUHDb_11proc_macro2, symObjAddr: 0xF10, symBinAddr: 0x34070, symSize: 0x20 }
  - { offset: 0xC880F, size: 0x8, addend: 0x0, symName: __RINvNtCsieiGu2EXtoJ_4core3ptr13drop_in_placeINtNtCslJiobkLta79_5alloc7raw_vec6RawVecINtNtCsaKzlTDPUHDb_11proc_macro25rcvec13RcVecIntoIterNtB1p_9TokenTreeEEEB1p_, symObjAddr: 0xF30, symBinAddr: 0x34090, symSize: 0x20 }
  - { offset: 0xC883E, size: 0x8, addend: 0x0, symName: __RINvNtCsieiGu2EXtoJ_4core3ptr13drop_in_placeINtNtCslJiobkLta79_5alloc7raw_vec6RawVecINtNtCscKtU6MdFI5n_10proc_macro6bridge9TokenTreeNtNtB1n_6client11TokenStreamNtB28_4SpanNtNtB1n_6symbol6SymbolEEECsaKzlTDPUHDb_11proc_macro2, symObjAddr: 0xF50, symBinAddr: 0x340B0, symSize: 0x20 }
  - { offset: 0xC886D, size: 0x8, addend: 0x0, symName: __RINvNtCsieiGu2EXtoJ_4core3ptr13drop_in_placeINtNtCslJiobkLta79_5alloc7raw_vec6RawVecNtCsaKzlTDPUHDb_11proc_macro29TokenTreeEEB1m_, symObjAddr: 0xF70, symBinAddr: 0x340D0, symSize: 0x20 }
  - { offset: 0xC889C, size: 0x8, addend: 0x0, symName: __RINvNtCsieiGu2EXtoJ_4core3ptr13drop_in_placeINtNtCslJiobkLta79_5alloc7raw_vec6RawVecNtCscKtU6MdFI5n_10proc_macro9TokenTreeEECsaKzlTDPUHDb_11proc_macro2, symObjAddr: 0xF90, symBinAddr: 0x340F0, symSize: 0x20 }
  - { offset: 0xC88CB, size: 0x8, addend: 0x0, symName: __RINvNtCsieiGu2EXtoJ_4core3ptr13drop_in_placeINtNtCslJiobkLta79_5alloc7raw_vec6RawVechEECsaKzlTDPUHDb_11proc_macro2, symObjAddr: 0xFD0, symBinAddr: 0x34110, symSize: 0x20 }
  - { offset: 0xC88FA, size: 0x8, addend: 0x0, symName: __RINvNtCsieiGu2EXtoJ_4core3ptr13drop_in_placeINtNtNtCslJiobkLta79_5alloc3vec5drain5DrainNtCscKtU6MdFI5n_10proc_macro9TokenTreeEECsaKzlTDPUHDb_11proc_macro2, symObjAddr: 0xFF0, symBinAddr: 0x34130, symSize: 0x20 }
  - { offset: 0xC8929, size: 0x8, addend: 0x0, symName: __RINvNtCsieiGu2EXtoJ_4core3ptr13drop_in_placeINtNtNtCslJiobkLta79_5alloc3vec9into_iter8IntoIterINtNtCscKtU6MdFI5n_10proc_macro6bridge9TokenTreeNtNtB1x_6client11TokenStreamNtB2i_4SpanNtNtB1x_6symbol6SymbolEEECsaKzlTDPUHDb_11proc_macro2, symObjAddr: 0x1010, symBinAddr: 0x34150, symSize: 0x20 }
  - { offset: 0xC8958, size: 0x8, addend: 0x0, symName: __RINvNtCsieiGu2EXtoJ_4core3ptr13drop_in_placeINtNtNtCslJiobkLta79_5alloc3vec9into_iter8IntoIterNtCsaKzlTDPUHDb_11proc_macro29TokenTreeEEB1w_, symObjAddr: 0x1030, symBinAddr: 0x34170, symSize: 0x20 }
  - { offset: 0xC8987, size: 0x8, addend: 0x0, symName: __RINvNtCsieiGu2EXtoJ_4core3ptr13drop_in_placeINtNvXNvMNtCslJiobkLta79_5alloc5sliceSp9to_vec_inpNtBM_10ConvertVec6to_vec9DropGuardNtCsaKzlTDPUHDb_11proc_macro29TokenTreeNtNtBR_5alloc6GlobalEEB24_, symObjAddr: 0x1070, symBinAddr: 0x34190, symSize: 0x20 }
  - { offset: 0xC89B6, size: 0x8, addend: 0x0, symName: __RINvNtCsieiGu2EXtoJ_4core3ptr13drop_in_placeINtNvXs5_NtNtCslJiobkLta79_5alloc3vec5drainINtBP_5DrainppENtNtNtB4_3ops4drop4Drop4drop9DropGuardNtCscKtU6MdFI5n_10proc_macro9TokenTreeNtNtBT_5alloc6GlobalEECsaKzlTDPUHDb_11proc_macro2, symObjAddr: 0x10B0, symBinAddr: 0x341B0, symSize: 0x20 }
  - { offset: 0xC89E5, size: 0x8, addend: 0x0, symName: __RINvNtCsieiGu2EXtoJ_4core3ptr13drop_in_placeINtNvXsd_NtNtCslJiobkLta79_5alloc3vec9into_iterINtBP_8IntoIterppENtNtNtB4_3ops4drop4Drop4drop9DropGuardINtNtCscKtU6MdFI5n_10proc_macro6bridge9TokenTreeNtNtB2o_6client11TokenStreamNtB39_4SpanNtNtB2o_6symbol6SymbolENtNtBT_5alloc6GlobalEECsaKzlTDPUHDb_11proc_macro2, symObjAddr: 0x10D0, symBinAddr: 0x341D0, symSize: 0x20 }
  - { offset: 0xC8A14, size: 0x8, addend: 0x0, symName: __RINvNtCsieiGu2EXtoJ_4core3ptr13drop_in_placeINtNvXsd_NtNtCslJiobkLta79_5alloc3vec9into_iterINtBP_8IntoIterppENtNtNtB4_3ops4drop4Drop4drop9DropGuardNtCsaKzlTDPUHDb_11proc_macro29TokenTreeNtNtBT_5alloc6GlobalEEB2n_, symObjAddr: 0x10F0, symBinAddr: 0x341F0, symSize: 0x20 }
  - { offset: 0xC8A43, size: 0x8, addend: 0x0, symName: __RINvNtCsieiGu2EXtoJ_4core3ptr13drop_in_placeNtCsaKzlTDPUHDb_11proc_macro25GroupEBI_, symObjAddr: 0x1110, symBinAddr: 0x34210, symSize: 0x20 }
  - { offset: 0xC8A72, size: 0x8, addend: 0x0, symName: __RINvNtCsieiGu2EXtoJ_4core3ptr13drop_in_placeNtCsaKzlTDPUHDb_11proc_macro25IdentEBI_, symObjAddr: 0x1130, symBinAddr: 0x34230, symSize: 0x20 }
  - { offset: 0xC8AA1, size: 0x8, addend: 0x0, symName: __RINvNtCsieiGu2EXtoJ_4core3ptr13drop_in_placeNtCsaKzlTDPUHDb_11proc_macro27LiteralEBI_, symObjAddr: 0x1150, symBinAddr: 0x34250, symSize: 0x20 }
  - { offset: 0xC8AD0, size: 0x8, addend: 0x0, symName: __RINvNtCsieiGu2EXtoJ_4core3ptr13drop_in_placeNtCsaKzlTDPUHDb_11proc_macro29TokenTreeEBI_, symObjAddr: 0x1170, symBinAddr: 0x34270, symSize: 0x70 }
  - { offset: 0xC8AFF, size: 0x8, addend: 0x0, symName: __RINvNtCsieiGu2EXtoJ_4core3ptr13drop_in_placeNtCscKtU6MdFI5n_10proc_macro11TokenStreamECsaKzlTDPUHDb_11proc_macro2, symObjAddr: 0x11E0, symBinAddr: 0x342E0, symSize: 0x20 }
  - { offset: 0xC8B2E, size: 0x8, addend: 0x0, symName: __RINvNtCsieiGu2EXtoJ_4core3ptr13drop_in_placeNtCscKtU6MdFI5n_10proc_macro17ConcatTreesHelperECsaKzlTDPUHDb_11proc_macro2, symObjAddr: 0x1200, symBinAddr: 0x34300, symSize: 0x20 }
  - { offset: 0xC8B5D, size: 0x8, addend: 0x0, symName: __RINvNtCsieiGu2EXtoJ_4core3ptr13drop_in_placeNtCscKtU6MdFI5n_10proc_macro5GroupECsaKzlTDPUHDb_11proc_macro2, symObjAddr: 0x1220, symBinAddr: 0x34320, symSize: 0x20 }
  - { offset: 0xC8B8C, size: 0x8, addend: 0x0, symName: __RINvNtCsieiGu2EXtoJ_4core3ptr13drop_in_placeNtCscKtU6MdFI5n_10proc_macro9TokenTreeECsaKzlTDPUHDb_11proc_macro2, symObjAddr: 0x1240, symBinAddr: 0x34340, symSize: 0x40 }
  - { offset: 0xC8BBB, size: 0x8, addend: 0x0, symName: __RINvNtCsieiGu2EXtoJ_4core3ptr13drop_in_placeNtNtCsaKzlTDPUHDb_11proc_macro212token_stream8IntoIterEBK_, symObjAddr: 0x1280, symBinAddr: 0x34380, symSize: 0x20 }
  - { offset: 0xC8BEA, size: 0x8, addend: 0x0, symName: __RINvNtCsieiGu2EXtoJ_4core3ptr13drop_in_placeNtNtCsaKzlTDPUHDb_11proc_macro23imp11TokenStreamEBK_, symObjAddr: 0x12A0, symBinAddr: 0x343A0, symSize: 0x50 }
  - { offset: 0xC8C19, size: 0x8, addend: 0x0, symName: __RINvNtCsieiGu2EXtoJ_4core3ptr13drop_in_placeNtNtCsaKzlTDPUHDb_11proc_macro23imp13TokenTreeIterEBK_, symObjAddr: 0x12F0, symBinAddr: 0x343F0, symSize: 0x40 }
  - { offset: 0xC8C48, size: 0x8, addend: 0x0, symName: __RINvNtCsieiGu2EXtoJ_4core3ptr13drop_in_placeNtNtCsaKzlTDPUHDb_11proc_macro23imp19DeferredTokenStreamEBK_, symObjAddr: 0x1330, symBinAddr: 0x34430, symSize: 0x60 }
  - { offset: 0xC8C77, size: 0x8, addend: 0x0, symName: __RINvNtCsieiGu2EXtoJ_4core3ptr13drop_in_placeNtNtCsaKzlTDPUHDb_11proc_macro23imp5GroupEBK_, symObjAddr: 0x1390, symBinAddr: 0x34490, symSize: 0x40 }
  - { offset: 0xC8CA6, size: 0x8, addend: 0x0, symName: __RINvNtCsieiGu2EXtoJ_4core3ptr13drop_in_placeNtNtCsaKzlTDPUHDb_11proc_macro23imp5IdentEBK_, symObjAddr: 0x13D0, symBinAddr: 0x344D0, symSize: 0x40 }
  - { offset: 0xC8CD5, size: 0x8, addend: 0x0, symName: __RINvNtCsieiGu2EXtoJ_4core3ptr13drop_in_placeNtNtCsaKzlTDPUHDb_11proc_macro23imp7LiteralEBK_, symObjAddr: 0x1410, symBinAddr: 0x34510, symSize: 0x40 }
  - { offset: 0xC8D04, size: 0x8, addend: 0x0, symName: __RINvNtCsieiGu2EXtoJ_4core3ptr13drop_in_placeNtNtCsaKzlTDPUHDb_11proc_macro28fallback11TokenStreamEBK_, symObjAddr: 0x1450, symBinAddr: 0x34550, symSize: 0x50 }
  - { offset: 0xC8D33, size: 0x8, addend: 0x0, symName: __RINvNtCsieiGu2EXtoJ_4core3ptr13drop_in_placeNtNtCsaKzlTDPUHDb_11proc_macro28fallback5GroupEBK_, symObjAddr: 0x14C0, symBinAddr: 0x345A0, symSize: 0x20 }
  - { offset: 0xC8D62, size: 0x8, addend: 0x0, symName: __RINvNtCsieiGu2EXtoJ_4core3ptr13drop_in_placeNtNtCsaKzlTDPUHDb_11proc_macro28fallback5IdentEBK_, symObjAddr: 0x14E0, symBinAddr: 0x345C0, symSize: 0x20 }
  - { offset: 0xC8D91, size: 0x8, addend: 0x0, symName: __RINvNtCsieiGu2EXtoJ_4core3ptr13drop_in_placeNtNtCsaKzlTDPUHDb_11proc_macro28fallback7LiteralEBK_, symObjAddr: 0x1500, symBinAddr: 0x345E0, symSize: 0x20 }
  - { offset: 0xC8DC0, size: 0x8, addend: 0x0, symName: __RINvNtCsieiGu2EXtoJ_4core3ptr13drop_in_placeNtNtCscKtU6MdFI5n_10proc_macro12token_stream8IntoIterECsaKzlTDPUHDb_11proc_macro2, symObjAddr: 0x1520, symBinAddr: 0x34600, symSize: 0x20 }
  - { offset: 0xC8DEF, size: 0x8, addend: 0x0, symName: __RINvNtCsieiGu2EXtoJ_4core3ptr13drop_in_placeNtNtCslJiobkLta79_5alloc6string6StringECsaKzlTDPUHDb_11proc_macro2, symObjAddr: 0x1540, symBinAddr: 0x34620, symSize: 0x20 }
  - { offset: 0xC8E1E, size: 0x8, addend: 0x0, symName: __RINvNtCsieiGu2EXtoJ_4core3ptr13drop_in_placeNtNtNtCscKtU6MdFI5n_10proc_macro6bridge6client11TokenStreamECsaKzlTDPUHDb_11proc_macro2, symObjAddr: 0x1560, symBinAddr: 0x34640, symSize: 0x20 }
  - { offset: 0xC8E4D, size: 0x8, addend: 0x0, symName: __RINvNtCsieiGu2EXtoJ_4core3ptr13drop_in_placeSINtNtCsaKzlTDPUHDb_11proc_macro25rcvec13RcVecIntoIterNtBM_9TokenTreeEEBM_, symObjAddr: 0x1580, symBinAddr: 0x34660, symSize: 0xA0 }
  - { offset: 0xC8E7C, size: 0x8, addend: 0x0, symName: __RINvNtCsieiGu2EXtoJ_4core3ptr13drop_in_placeSINtNtCscKtU6MdFI5n_10proc_macro6bridge9TokenTreeNtNtBK_6client11TokenStreamNtB1v_4SpanNtNtBK_6symbol6SymbolEECsaKzlTDPUHDb_11proc_macro2, symObjAddr: 0x1620, symBinAddr: 0x34700, symSize: 0xA0 }
  - { offset: 0xC8EAB, size: 0x8, addend: 0x0, symName: __RINvNtCsieiGu2EXtoJ_4core3ptr13drop_in_placeSNtCsaKzlTDPUHDb_11proc_macro29TokenTreeEBJ_, symObjAddr: 0x16C0, symBinAddr: 0x347A0, symSize: 0xA0 }
  - { offset: 0xC8EDA, size: 0x8, addend: 0x0, symName: __RINvNtCsieiGu2EXtoJ_4core3ptr13drop_in_placeSNtCscKtU6MdFI5n_10proc_macro9TokenTreeECsaKzlTDPUHDb_11proc_macro2, symObjAddr: 0x1760, symBinAddr: 0x34840, symSize: 0xA0 }
  - { offset: 0xC91A8, size: 0x8, addend: 0x0, symName: __RNCNvMs3_NtNtNtCsieiGu2EXtoJ_4core4iter8adapters8peekableINtB7_8PeekableNtNtNtBd_3str4iter5CharsE4peek0CsaKzlTDPUHDb_11proc_macro2, symObjAddr: 0x21A0, symBinAddr: 0x34D00, symSize: 0x20 }
  - { offset: 0xC924C, size: 0x8, addend: 0x0, symName: __RNvXs_NtNtNtCsieiGu2EXtoJ_4core4iter8adapters8peekableINtB4_8PeekableNtNtNtBa_3str4iter5CharsENtNtNtB8_6traits8iterator8Iterator4nextCsaKzlTDPUHDb_11proc_macro2, symObjAddr: 0x35E0, symBinAddr: 0x35C90, symSize: 0x70 }
  - { offset: 0xC9391, size: 0x8, addend: 0x0, symName: __RNvYNtNtNtCsieiGu2EXtoJ_4core3str4iter5BytesNtNtNtNtB8_4iter6traits8iterator8Iterator9enumerateCsaKzlTDPUHDb_11proc_macro2, symObjAddr: 0x36A0, symBinAddr: 0x35D50, symSize: 0x20 }
  - { offset: 0xC93DD, size: 0x8, addend: 0x0, symName: __RNvYNtNtNtCsieiGu2EXtoJ_4core3str4iter5CharsNtNtNtNtB8_4iter6traits8iterator8Iterator8peekableCsaKzlTDPUHDb_11proc_macro2, symObjAddr: 0x36C0, symBinAddr: 0x35D70, symSize: 0x20 }
  - { offset: 0xC942F, size: 0x8, addend: 0x0, symName: __RNvXNtNtNtCsieiGu2EXtoJ_4core4iter6traits8iteratorQNtNtNtB8_3str4iter11CharIndicesNtB2_8Iterator4nextCsaKzlTDPUHDb_11proc_macro2, symObjAddr: 0x2DD0, symBinAddr: 0x35650, symSize: 0x20 }
  - { offset: 0xC9472, size: 0x8, addend: 0x0, symName: __RNvXNtNtNtCsieiGu2EXtoJ_4core4iter6traits7collectNtNtNtB8_3str4iter11CharIndicesNtB2_12IntoIterator9into_iterCsaKzlTDPUHDb_11proc_macro2, symObjAddr: 0x2D60, symBinAddr: 0x355E0, symSize: 0x20 }
  - { offset: 0xC94A9, size: 0x8, addend: 0x0, symName: __RNvXNtNtNtCsieiGu2EXtoJ_4core4iter6traits7collectNtNtNtB8_3str4iter5BytesNtB2_12IntoIterator9into_iterCsaKzlTDPUHDb_11proc_macro2, symObjAddr: 0x2D80, symBinAddr: 0x35600, symSize: 0x20 }
  - { offset: 0xC94E0, size: 0x8, addend: 0x0, symName: __RNvXNtNtNtCsieiGu2EXtoJ_4core4iter6traits7collectNtNtNtB8_3str4iter5CharsNtB2_12IntoIterator9into_iterCsaKzlTDPUHDb_11proc_macro2, symObjAddr: 0x2DA0, symBinAddr: 0x35620, symSize: 0x20 }
  - { offset: 0xC9517, size: 0x8, addend: 0x0, symName: __RNvXNtNtNtCsieiGu2EXtoJ_4core4iter6traits7collectQNtNtNtB8_3str4iter11CharIndicesNtB2_12IntoIterator9into_iterCsaKzlTDPUHDb_11proc_macro2, symObjAddr: 0x2DC0, symBinAddr: 0x35640, symSize: 0x10 }
  - { offset: 0xC958B, size: 0x8, addend: 0x0, symName: __RINvXs7_NtNtCsieiGu2EXtoJ_4core3str4iterNtB6_5BytesNtNtNtNtBa_4iter6traits8iterator8Iterator3allNCNvNtCsaKzlTDPUHDb_11proc_macro28fallback14validate_ident0EB1C_, symObjAddr: 0x2180, symBinAddr: 0x34CE0, symSize: 0x20 }
  - { offset: 0xC95D1, size: 0x8, addend: 0x0, symName: __RNvXs7_NtNtCsieiGu2EXtoJ_4core3str4iterNtB5_5BytesNtNtNtNtB9_4iter6traits8iterator8Iterator4nextCsaKzlTDPUHDb_11proc_macro2, symObjAddr: 0x33A0, symBinAddr: 0x35A90, symSize: 0x70 }
  - { offset: 0xC969F, size: 0x8, addend: 0x0, symName: __RNvXNtNtCsieiGu2EXtoJ_4core3str4iterNtB2_5CharsNtNtNtNtB6_4iter6traits8iterator8Iterator4nextCsaKzlTDPUHDb_11proc_macro2, symObjAddr: 0x2D00, symBinAddr: 0x35580, symSize: 0x60 }
  - { offset: 0xC975C, size: 0x8, addend: 0x0, symName: __RNvXs3_NtNtCsieiGu2EXtoJ_4core3str4iterNtB5_11CharIndicesNtNtNtNtB9_4iter6traits8iterator8Iterator4nextCsaKzlTDPUHDb_11proc_macro2, symObjAddr: 0x3290, symBinAddr: 0x35980, symSize: 0x110 }
  - { offset: 0xC9A73, size: 0x8, addend: 0x0, symName: __RNvNvNtNtCsieiGu2EXtoJ_4core5slice3raw14from_raw_parts18precondition_checkCsaKzlTDPUHDb_11proc_macro2, symObjAddr: 0x2820, symBinAddr: 0x350A0, symSize: 0x260 }
  - { offset: 0xC9C41, size: 0x8, addend: 0x0, symName: __RNvNvNtNtCsieiGu2EXtoJ_4core5slice3raw18from_raw_parts_mut18precondition_checkCsaKzlTDPUHDb_11proc_macro2, symObjAddr: 0x2A80, symBinAddr: 0x35300, symSize: 0x260 }
  - { offset: 0xC9E7F, size: 0x8, addend: 0x0, symName: __RNvMs4_NtCsieiGu2EXtoJ_4core3numh8is_asciiCsaKzlTDPUHDb_11proc_macro2, symObjAddr: 0x24D0, symBinAddr: 0x34EE0, symSize: 0x20 }
  - { offset: 0xCA46E, size: 0x8, addend: 0x0, symName: __RNvXs19_NtCsieiGu2EXtoJ_4core3fmtRINtNtB8_6option6OptionhENtB6_5Debug3fmtCsaKzlTDPUHDb_11proc_macro2, symObjAddr: 0x2FB0, symBinAddr: 0x357E0, symSize: 0x20 }
  - { offset: 0xCA852, size: 0x8, addend: 0x0, symName: __RNSNvYNCINvMs0_NtNtNtCsHUR1vrdMJt_3std4sync6poison4onceNtBd_4Once9call_onceNvNtCsaKzlTDPUHDb_11proc_macro29detection10initializeE0INtNtNtCsieiGu2EXtoJ_4core3ops8function6FnOnceTRNtBd_9OnceStateEE9call_once6vtableB1f_, symObjAddr: 0x21C0, symBinAddr: 0x34D20, symSize: 0x30 }
  - { offset: 0xCA892, size: 0x8, addend: 0x0, symName: __RNvYNCINvMs0_NtNtNtCsHUR1vrdMJt_3std4sync6poison4onceNtBb_4Once9call_onceNvNtCsaKzlTDPUHDb_11proc_macro29detection10initializeE0INtNtNtCsieiGu2EXtoJ_4core3ops8function6FnOnceTRNtBb_9OnceStateEE9call_onceB1d_, symObjAddr: 0x3660, symBinAddr: 0x35D10, symSize: 0x40 }
  - { offset: 0xCA8D2, size: 0x8, addend: 0x0, symName: __RNvYNvMsi_CsaKzlTDPUHDb_11proc_macro2NtB8_4Span4__newINtNtNtCsieiGu2EXtoJ_4core3ops8function6FnOnceTNtNtB8_3imp4SpanEE9call_onceB8_, symObjAddr: 0x36E0, symBinAddr: 0x35D90, symSize: 0x20 }
  - { offset: 0xCA916, size: 0x8, addend: 0x0, symName: __RNvYNvNtCsaKzlTDPUHDb_11proc_macro29detection10initializeINtNtNtCsieiGu2EXtoJ_4core3ops8function6FnOnceuE9call_onceB6_, symObjAddr: 0x3700, symBinAddr: 0x35DB0, symSize: 0x20 }
  - { offset: 0xCA956, size: 0x8, addend: 0x0, symName: __RNvYNvYeNtNtCslJiobkLta79_5alloc6borrow7ToOwned8to_ownedINtNtNtCsieiGu2EXtoJ_4core3ops8function6FnOnceTReEE9call_onceCsaKzlTDPUHDb_11proc_macro2, symObjAddr: 0x3720, symBinAddr: 0x35DD0, symSize: 0x30 }
  - { offset: 0xCAB4F, size: 0x8, addend: 0x0, symName: __RNvNvNtCsieiGu2EXtoJ_4core9ub_checks23maybe_is_nonoverlapping7runtimeCsaKzlTDPUHDb_11proc_macro2, symObjAddr: 0x2760, symBinAddr: 0x34FE0, symSize: 0xC0 }
  - { offset: 0xCAE84, size: 0x8, addend: 0x0, symName: __RNvXNtNtCsieiGu2EXtoJ_4core3cmp5implsuNtB4_9PartialEq2eqCsaKzlTDPUHDb_11proc_macro2, symObjAddr: 0x2CE0, symBinAddr: 0x35560, symSize: 0x20 }
  - { offset: 0xCB028, size: 0x8, addend: 0x0, symName: __RNvXsm_NtNtCscKtU6MdFI5n_10proc_macro6bridge6clientNtB5_4SpanNtNtCsieiGu2EXtoJ_4core5clone5Clone5cloneCsaKzlTDPUHDb_11proc_macro2, symObjAddr: 0x3650, symBinAddr: 0x35D00, symSize: 0x10 }
  - { offset: 0xCB3E7, size: 0x8, addend: 0x0, symName: __RNvXs10_NtCscKtU6MdFI5n_10proc_macro6bridgeINtB6_9DelimSpanNtNtB6_6client4SpanENtNtCsieiGu2EXtoJ_4core5clone5Clone5cloneCsaKzlTDPUHDb_11proc_macro2, symObjAddr: 0x2E40, symBinAddr: 0x35670, symSize: 0xA0 }
  - { offset: 0xCB424, size: 0x8, addend: 0x0, symName: __RNvXs15_NtCscKtU6MdFI5n_10proc_macro6bridgeINtB6_5GroupNtNtB6_6client11TokenStreamNtBT_4SpanENtNtCsieiGu2EXtoJ_4core5clone5Clone5cloneCsaKzlTDPUHDb_11proc_macro2, symObjAddr: 0x2EE0, symBinAddr: 0x35710, symSize: 0xD0 }
  - { offset: 0xCB4C0, size: 0x8, addend: 0x0, symName: __RNvXs1g_NtCscKtU6MdFI5n_10proc_macro6bridgeINtB6_5IdentNtNtB6_6client4SpanNtNtB6_6symbol6SymbolENtNtCsieiGu2EXtoJ_4core5clone5Clone5cloneCsaKzlTDPUHDb_11proc_macro2, symObjAddr: 0x2FD0, symBinAddr: 0x35800, symSize: 0x80 }
  - { offset: 0xCB52A, size: 0x8, addend: 0x0, symName: __RNvXs1o_NtCscKtU6MdFI5n_10proc_macro6bridgeINtB6_7LiteralNtNtB6_6client4SpanNtNtB6_6symbol6SymbolENtNtCsieiGu2EXtoJ_4core5clone5Clone5cloneCsaKzlTDPUHDb_11proc_macro2, symObjAddr: 0x3050, symBinAddr: 0x35880, symSize: 0x100 }
  - { offset: 0xCB802, size: 0x8, addend: 0x0, symName: __RINvMNtCsieiGu2EXtoJ_4core6optionINtB3_6OptionIBw_cEE18get_or_insert_withNCNvMs3_NtNtNtB5_4iter8adapters8peekableINtB1h_8PeekableNtNtNtB5_3str4iter5CharsE4peek0ECsaKzlTDPUHDb_11proc_macro2, symObjAddr: 0x0, symBinAddr: 0x33600, symSize: 0xE0 }
  - { offset: 0xCC03A, size: 0x8, addend: 0x0, symName: __RINvMNtCsieiGu2EXtoJ_4core6optionINtB3_6OptionNtNtCsaKzlTDPUHDb_11proc_macro23imp4SpanE3mapNtBM_4SpanNvMsi_BM_B1r_4__newEBM_, symObjAddr: 0xE0, symBinAddr: 0x336E0, symSize: 0x50 }
  - { offset: 0xCC0B9, size: 0x8, addend: 0x0, symName: __RINvMNtCsieiGu2EXtoJ_4core6optionINtB3_6OptionRcE6map_orbNCNvNtCsaKzlTDPUHDb_11proc_macro25parse12float_digits0EBZ_, symObjAddr: 0x130, symBinAddr: 0x33730, symSize: 0x90 }
  - { offset: 0xCC252, size: 0x8, addend: 0x0, symName: __RINvMNtCsieiGu2EXtoJ_4core6optionINtB3_6OptionReE11map_or_elseNtNtCslJiobkLta79_5alloc6string6StringNCNvNtB12_3fmt6format0NvYeNtNtB12_6borrow7ToOwned8to_ownedECsaKzlTDPUHDb_11proc_macro2, symObjAddr: 0x1C0, symBinAddr: 0x337C0, symSize: 0xC0 }
  - { offset: 0xCC2F4, size: 0x8, addend: 0x0, symName: __RINvMNtCsieiGu2EXtoJ_4core6optionINtB3_6OptionTjcEE3mapcNCNvNtCsaKzlTDPUHDb_11proc_macro25parse9character0EBY_, symObjAddr: 0x280, symBinAddr: 0x33880, symSize: 0x60 }
  - { offset: 0xCC35F, size: 0x8, addend: 0x0, symName: __RINvMNtCsieiGu2EXtoJ_4core6optionINtB3_6OptionTjcEE3mapcNCNvNtCsaKzlTDPUHDb_11proc_macro25parse9characters_0EBY_, symObjAddr: 0x2E0, symBinAddr: 0x338E0, symSize: 0x60 }
  - { offset: 0xCC3CA, size: 0x8, addend: 0x0, symName: __RINvMNtCsieiGu2EXtoJ_4core6optionINtB3_6OptionTjcEE5ok_orNtNtCsaKzlTDPUHDb_11proc_macro25parse6RejectEBX_, symObjAddr: 0x340, symBinAddr: 0x33940, symSize: 0x50 }
  - { offset: 0xCC44A, size: 0x8, addend: 0x0, symName: __RINvMNtCsieiGu2EXtoJ_4core6optionINtB3_6OptionTjhEE3maphNCNvNtCsaKzlTDPUHDb_11proc_macro25parse4byte0EBY_, symObjAddr: 0x390, symBinAddr: 0x33990, symSize: 0x50 }
  - { offset: 0xCC4B6, size: 0x8, addend: 0x0, symName: __RINvMNtCsieiGu2EXtoJ_4core6optionINtB3_6OptionTjhEE3maphNCNvNtCsaKzlTDPUHDb_11proc_macro25parse4bytes_0EBY_, symObjAddr: 0x3E0, symBinAddr: 0x339E0, symSize: 0x50 }
  - { offset: 0xCC522, size: 0x8, addend: 0x0, symName: __RINvMNtCsieiGu2EXtoJ_4core6optionINtB3_6OptionTjhEE5ok_orNtNtCsaKzlTDPUHDb_11proc_macro25parse6RejectEBX_, symObjAddr: 0x430, symBinAddr: 0x33A30, symSize: 0x50 }
  - { offset: 0xCC585, size: 0x8, addend: 0x0, symName: __RINvMNtCsieiGu2EXtoJ_4core6optionINtB3_6OptionTjhEE6map_orbNCNvNtCsaKzlTDPUHDb_11proc_macro25parse18trailing_backslash0EB11_, symObjAddr: 0x480, symBinAddr: 0x33A80, symSize: 0x90 }
  - { offset: 0xCC5F8, size: 0x8, addend: 0x0, symName: __RINvMNtCsieiGu2EXtoJ_4core6optionINtB3_6OptioncE5ok_orNtNtCsaKzlTDPUHDb_11proc_macro25parse6RejectEBU_, symObjAddr: 0x510, symBinAddr: 0x33B10, symSize: 0x40 }
  - { offset: 0xCC6CA, size: 0x8, addend: 0x0, symName: __RINvMNtNtCsieiGu2EXtoJ_4core3fmt2rtNtB3_8Argument11new_displayRNtCsaKzlTDPUHDb_11proc_macro25GroupEB11_, symObjAddr: 0x650, symBinAddr: 0x33B50, symSize: 0x30 }
  - { offset: 0xCC70F, size: 0x8, addend: 0x0, symName: __RINvMNtNtCsieiGu2EXtoJ_4core3fmt2rtNtB3_8Argument11new_displayRNtCsaKzlTDPUHDb_11proc_macro25IdentEB11_, symObjAddr: 0x680, symBinAddr: 0x33B80, symSize: 0x30 }
  - { offset: 0xCC754, size: 0x8, addend: 0x0, symName: __RINvMNtNtCsieiGu2EXtoJ_4core3fmt2rtNtB3_8Argument11new_displayRNtCsaKzlTDPUHDb_11proc_macro25PunctEB11_, symObjAddr: 0x6B0, symBinAddr: 0x33BB0, symSize: 0x30 }
  - { offset: 0xCC799, size: 0x8, addend: 0x0, symName: __RINvMNtNtCsieiGu2EXtoJ_4core3fmt2rtNtB3_8Argument11new_displayRNtCsaKzlTDPUHDb_11proc_macro27LiteralEB11_, symObjAddr: 0x6E0, symBinAddr: 0x33BE0, symSize: 0x30 }
  - { offset: 0xCC7EB, size: 0x8, addend: 0x0, symName: __RINvMNtNtCsieiGu2EXtoJ_4core3fmt2rtNtB3_8Argument11new_displayReECsaKzlTDPUHDb_11proc_macro2, symObjAddr: 0x740, symBinAddr: 0x33C10, symSize: 0x30 }
  - { offset: 0xCC894, size: 0x8, addend: 0x0, symName: __RINvMNtNtCsieiGu2EXtoJ_4core3fmt2rtNtB3_8Argument11new_displaymECsaKzlTDPUHDb_11proc_macro2, symObjAddr: 0x8C0, symBinAddr: 0x33C40, symSize: 0x30 }
  - { offset: 0xCC929, size: 0x8, addend: 0x0, symName: __RINvMNtNtCsieiGu2EXtoJ_4core3fmt2rtNtB3_8Argument9new_debugReECsaKzlTDPUHDb_11proc_macro2, symObjAddr: 0xA40, symBinAddr: 0x33C70, symSize: 0x30 }
  - { offset: 0xCC954, size: 0x8, addend: 0x0, symName: __RINvMNtNtCsieiGu2EXtoJ_4core3fmt2rtNtB3_8Argument9new_debugcECsaKzlTDPUHDb_11proc_macro2, symObjAddr: 0xA70, symBinAddr: 0x33CA0, symSize: 0x30 }
  - { offset: 0xCCA77, size: 0x8, addend: 0x0, symName: __RNvMNtCsieiGu2EXtoJ_4core6optionINtB2_6OptioncE7is_someCsaKzlTDPUHDb_11proc_macro2, symObjAddr: 0x2220, symBinAddr: 0x34D50, symSize: 0x30 }
  - { offset: 0xCCAB0, size: 0x8, addend: 0x0, symName: __RNvMNtCsieiGu2EXtoJ_4core6optionINtB2_6OptionhE7is_someCsaKzlTDPUHDb_11proc_macro2, symObjAddr: 0x2250, symBinAddr: 0x34D80, symSize: 0x20 }
  - { offset: 0xCCAE9, size: 0x8, addend: 0x0, symName: __RNvMs1G_NtNtCsieiGu2EXtoJ_4core4sync6atomicNtB6_11AtomicUsize4loadCsaKzlTDPUHDb_11proc_macro2, symObjAddr: 0x2390, symBinAddr: 0x34DA0, symSize: 0x30 }
  - { offset: 0xCCB1B, size: 0x8, addend: 0x0, symName: __RNvMs1G_NtNtCsieiGu2EXtoJ_4core4sync6atomicNtB6_11AtomicUsize5storeCsaKzlTDPUHDb_11proc_macro2, symObjAddr: 0x23C0, symBinAddr: 0x34DD0, symSize: 0x30 }
  - { offset: 0xCCBE6, size: 0x8, addend: 0x0, symName: __RNvMs2_NtNtCsieiGu2EXtoJ_4core3str4iterNtB5_5Chars6as_strCsaKzlTDPUHDb_11proc_macro2, symObjAddr: 0x23F0, symBinAddr: 0x34E00, symSize: 0x70 }
  - { offset: 0xCCCFC, size: 0x8, addend: 0x0, symName: __RNvMs3_NtNtNtCsieiGu2EXtoJ_4core4iter8adapters8peekableINtB5_8PeekableNtNtNtBb_3str4iter5CharsE4peekCsaKzlTDPUHDb_11proc_macro2, symObjAddr: 0x2460, symBinAddr: 0x34E70, symSize: 0x70 }
  - { offset: 0xCD42D, size: 0x8, addend: 0x0, symName: __RINvMs0_NtNtNtCsHUR1vrdMJt_3std4sync6poison4onceNtB6_4Once9call_onceNvNtCsaKzlTDPUHDb_11proc_macro29detection10initializeEB18_, symObjAddr: 0x0, symBinAddr: 0x35E00, symSize: 0xB0 }
  - { offset: 0xCD473, size: 0x8, addend: 0x0, symName: __RNCINvMs0_NtNtNtCsHUR1vrdMJt_3std4sync6poison4onceNtB8_4Once9call_onceNvNtCsaKzlTDPUHDb_11proc_macro29detection10initializeE0B1a_, symObjAddr: 0xAC0, symBinAddr: 0x36110, symSize: 0x50 }
  - { offset: 0xCD651, size: 0x8, addend: 0x0, symName: __RINvNtCsHUR1vrdMJt_3std5panic12catch_unwindNCNvYNtCscKtU6MdFI5n_10proc_macro7LiteralNtNtCsaKzlTDPUHDb_11proc_macro28fallback8FromStr216from_str_checked0INtNtCsieiGu2EXtoJ_4core6result6ResultBK_NtBM_8LexErrorEEB1o_, symObjAddr: 0x140, symBinAddr: 0x35EB0, symSize: 0xA0 }
  - { offset: 0xCE21F, size: 0x8, addend: 0x0, symName: __RINvNtCsieiGu2EXtoJ_4core3ptr4readINtNtCsaKzlTDPUHDb_11proc_macro25rcvec5RcVecNtBB_9TokenTreeEEBB_, symObjAddr: 0x360, symBinAddr: 0x35FB0, symSize: 0x10 }
  - { offset: 0xCE2DD, size: 0x8, addend: 0x0, symName: __RNvNvNtCsieiGu2EXtoJ_4core3ptr19copy_nonoverlapping18precondition_checkCsaKzlTDPUHDb_11proc_macro2, symObjAddr: 0x1560, symBinAddr: 0x36840, symSize: 0x4B0 }
  - { offset: 0xCE5EE, size: 0x8, addend: 0x0, symName: __RNvNvNtCsieiGu2EXtoJ_4core3ptr4copy18precondition_checkCsaKzlTDPUHDb_11proc_macro2, symObjAddr: 0x1A10, symBinAddr: 0x36CF0, symSize: 0x330 }
  - { offset: 0xCEAF4, size: 0x8, addend: 0x0, symName: __RNvXs5_NtNtCsieiGu2EXtoJ_4core3num5errorNtB5_15TryFromIntErrorNtNtB9_3fmt5Debug3fmtCsaKzlTDPUHDb_11proc_macro2, symObjAddr: 0x2250, symBinAddr: 0x37500, symSize: 0x50 }
  - { offset: 0xCF15A, size: 0x8, addend: 0x0, symName: __RINvNtCsieiGu2EXtoJ_4core3mem4takeINtNtCslJiobkLta79_5alloc3vec3VecNtCsaKzlTDPUHDb_11proc_macro29TokenTreeEEB15_, symObjAddr: 0x1E0, symBinAddr: 0x35F50, symSize: 0x60 }
  - { offset: 0xCF3F5, size: 0x8, addend: 0x0, symName: __RNvXs_NtNtNtCsieiGu2EXtoJ_4core4iter8adapters9enumerateINtB4_9EnumerateINtNtNtBa_5slice4iter4IterNtCsaKzlTDPUHDb_11proc_macro29TokenTreeEENtNtNtB8_6traits8iterator8Iterator4nextB1z_, symObjAddr: 0x2670, symBinAddr: 0x37590, symSize: 0xE0 }
  - { offset: 0xCF4DB, size: 0x8, addend: 0x0, symName: __RNvXs_NtNtNtCsieiGu2EXtoJ_4core4iter8adapters9enumerateINtB4_9EnumerateNtNtNtBa_3str4iter5BytesENtNtNtB8_6traits8iterator8Iterator4nextCsaKzlTDPUHDb_11proc_macro2, symObjAddr: 0x2830, symBinAddr: 0x37670, symSize: 0xE0 }
  - { offset: 0xCF654, size: 0x8, addend: 0x0, symName: __RNCINvNvNtNtNtNtCsieiGu2EXtoJ_4core4iter6traits8iterator8Iterator3all5checkhNCNvNtCsaKzlTDPUHDb_11proc_macro28fallback14validate_ident0E0B1i_, symObjAddr: 0xB10, symBinAddr: 0x36160, symSize: 0x40 }
  - { offset: 0xCF6BC, size: 0x8, addend: 0x0, symName: __RNCINvNvNtNtNtNtCsieiGu2EXtoJ_4core4iter6traits8iterator8Iterator8for_each4callNtCscKtU6MdFI5n_10proc_macro9TokenTreeNCINvXsi_B1h_NtB1h_11TokenStreamINtNtBa_7collect6ExtendB1f_E6extendINtNtNtCslJiobkLta79_5alloc3vec5drain5DrainB1f_EE0E0CsaKzlTDPUHDb_11proc_macro2, symObjAddr: 0xB90, symBinAddr: 0x361A0, symSize: 0x30 }
  - { offset: 0xCF715, size: 0x8, addend: 0x0, symName: __RNCINvNvNtNtNtNtCsieiGu2EXtoJ_4core4iter6traits8iterator8Iterator8for_each4callcNCINvXsb_NtCslJiobkLta79_5alloc6stringNtB1p_6StringINtNtBa_7collect6ExtendcE6extendNtNtBe_4char11EscapeDebugE0E0CsaKzlTDPUHDb_11proc_macro2, symObjAddr: 0xBC0, symBinAddr: 0x361D0, symSize: 0x20 }
  - { offset: 0xCF77B, size: 0x8, addend: 0x0, symName: __RNvXNtNtNtCsieiGu2EXtoJ_4core4iter6traits7collectINtNtNtB6_8adapters9enumerate9EnumerateINtNtNtB8_5slice4iter4IterNtCsaKzlTDPUHDb_11proc_macro29TokenTreeEENtB2_12IntoIterator9into_iterB1Q_, symObjAddr: 0x1D40, symBinAddr: 0x37020, symSize: 0x20 }
  - { offset: 0xCF7B2, size: 0x8, addend: 0x0, symName: __RNvXNtNtNtCsieiGu2EXtoJ_4core4iter6traits7collectINtNtNtB6_8adapters9enumerate9EnumerateNtNtNtB8_3str4iter5BytesENtB2_12IntoIterator9into_iterCsaKzlTDPUHDb_11proc_macro2, symObjAddr: 0x1D60, symBinAddr: 0x37040, symSize: 0x20 }
  - { offset: 0xD04DA, size: 0x8, addend: 0x0, symName: __RINvXsi_CscKtU6MdFI5n_10proc_macroNtB6_11TokenStreamINtNtNtNtCsieiGu2EXtoJ_4core4iter6traits7collect6ExtendNtB6_9TokenTreeE6extendINtNtNtCslJiobkLta79_5alloc3vec5drain5DrainB1H_EECsaKzlTDPUHDb_11proc_macro2, symObjAddr: 0x830, symBinAddr: 0x35FC0, symSize: 0x150 }
  - { offset: 0xD0550, size: 0x8, addend: 0x0, symName: __RNCINvXsi_CscKtU6MdFI5n_10proc_macroNtB8_11TokenStreamINtNtNtNtCsieiGu2EXtoJ_4core4iter6traits7collect6ExtendNtB8_9TokenTreeE6extendINtNtNtCslJiobkLta79_5alloc3vec5drain5DrainB1J_EE0CsaKzlTDPUHDb_11proc_macro2, symObjAddr: 0xBE0, symBinAddr: 0x361F0, symSize: 0x20 }
  - { offset: 0xD05B0, size: 0x8, addend: 0x0, symName: __RNvXs10_CscKtU6MdFI5n_10proc_macroNtB6_5GroupNtNtCsieiGu2EXtoJ_4core5clone5Clone5cloneCsaKzlTDPUHDb_11proc_macro2, symObjAddr: 0x1D80, symBinAddr: 0x37060, symSize: 0x40 }
  - { offset: 0xD05E4, size: 0x8, addend: 0x0, symName: __RNvXs1e_CscKtU6MdFI5n_10proc_macroNtB6_5IdentNtNtCsieiGu2EXtoJ_4core5clone5Clone5cloneCsaKzlTDPUHDb_11proc_macro2, symObjAddr: 0x2020, symBinAddr: 0x372D0, symSize: 0x40 }
  - { offset: 0xD0618, size: 0x8, addend: 0x0, symName: __RNvXs1f_CscKtU6MdFI5n_10proc_macroNtB6_7LiteralNtNtCsieiGu2EXtoJ_4core5clone5Clone5cloneCsaKzlTDPUHDb_11proc_macro2, symObjAddr: 0x2060, symBinAddr: 0x37310, symSize: 0x40 }
  - { offset: 0xD064C, size: 0x8, addend: 0x0, symName: __RNvXsV_CscKtU6MdFI5n_10proc_macroNtB5_8LexErrorNtNtCsieiGu2EXtoJ_4core3fmt5Debug3fmtCsaKzlTDPUHDb_11proc_macro2, symObjAddr: 0x23A0, symBinAddr: 0x37550, symSize: 0x40 }
  - { offset: 0xD06F4, size: 0x8, addend: 0x0, symName: __RNvXsw_NtCslJiobkLta79_5alloc6stringNtCscKtU6MdFI5n_10proc_macro11TokenStreamNtB5_8ToString9to_stringCsaKzlTDPUHDb_11proc_macro2, symObjAddr: 0x2AA0, symBinAddr: 0x37870, symSize: 0x30 }
  - { offset: 0xD072B, size: 0x8, addend: 0x0, symName: __RNvXsw_NtCslJiobkLta79_5alloc6stringNtCscKtU6MdFI5n_10proc_macro5IdentNtB5_8ToString9to_stringCsaKzlTDPUHDb_11proc_macro2, symObjAddr: 0x2AD0, symBinAddr: 0x378A0, symSize: 0x30 }
  - { offset: 0xD0768, size: 0x8, addend: 0x0, symName: __RNvXsx_NtCslJiobkLta79_5alloc6stringNtCscKtU6MdFI5n_10proc_macro11TokenStreamNtB5_12SpecToString14spec_to_stringCsaKzlTDPUHDb_11proc_macro2, symObjAddr: 0x2B00, symBinAddr: 0x378D0, symSize: 0x120 }
  - { offset: 0xD0834, size: 0x8, addend: 0x0, symName: __RNvXsx_NtCslJiobkLta79_5alloc6stringNtCscKtU6MdFI5n_10proc_macro5IdentNtB5_12SpecToString14spec_to_stringCsaKzlTDPUHDb_11proc_macro2, symObjAddr: 0x2C20, symBinAddr: 0x379F0, symSize: 0x120 }
  - { offset: 0xD0F20, size: 0x8, addend: 0x0, symName: __RNvXs1_NtCslJiobkLta79_5alloc7raw_vecINtB5_6RawVecINtNtCsaKzlTDPUHDb_11proc_macro25rcvec13RcVecIntoIterNtBR_9TokenTreeEENtNtNtCsieiGu2EXtoJ_4core3ops4drop4Drop4dropBR_, symObjAddr: 0x1F30, symBinAddr: 0x37210, symSize: 0x30 }
  - { offset: 0xD0F5C, size: 0x8, addend: 0x0, symName: __RNvXs1_NtCslJiobkLta79_5alloc7raw_vecINtB5_6RawVecINtNtCscKtU6MdFI5n_10proc_macro6bridge9TokenTreeNtNtBP_6client11TokenStreamNtB1A_4SpanNtNtBP_6symbol6SymbolEENtNtNtCsieiGu2EXtoJ_4core3ops4drop4Drop4dropCsaKzlTDPUHDb_11proc_macro2, symObjAddr: 0x1F60, symBinAddr: 0x37240, symSize: 0x30 }
  - { offset: 0xD0F98, size: 0x8, addend: 0x0, symName: __RNvXs1_NtCslJiobkLta79_5alloc7raw_vecINtB5_6RawVecNtCsaKzlTDPUHDb_11proc_macro29TokenTreeENtNtNtCsieiGu2EXtoJ_4core3ops4drop4Drop4dropBO_, symObjAddr: 0x1F90, symBinAddr: 0x37270, symSize: 0x30 }
  - { offset: 0xD0FD4, size: 0x8, addend: 0x0, symName: __RNvXs1_NtCslJiobkLta79_5alloc7raw_vecINtB5_6RawVecNtCscKtU6MdFI5n_10proc_macro9TokenTreeENtNtNtCsieiGu2EXtoJ_4core3ops4drop4Drop4dropCsaKzlTDPUHDb_11proc_macro2, symObjAddr: 0x1FC0, symBinAddr: 0x372A0, symSize: 0x30 }
  - { offset: 0xD131B, size: 0x8, addend: 0x0, symName: __RNvYINtNtCslJiobkLta79_5alloc2rc7RcInnerINtNtB7_3vec3VecNtCsaKzlTDPUHDb_11proc_macro29TokenTreeEENtB5_10RcInnerPtr10inc_strongBU_, symObjAddr: 0x2D40, symBinAddr: 0x37B10, symSize: 0x80 }
  - { offset: 0xD143D, size: 0x8, addend: 0x0, symName: __RNvYINtNtCslJiobkLta79_5alloc2rc7RcInnerINtNtB7_3vec3VecNtCsaKzlTDPUHDb_11proc_macro29TokenTreeEENtB5_10RcInnerPtr6strongBU_, symObjAddr: 0x2DC0, symBinAddr: 0x37B90, symSize: 0x20 }
  - { offset: 0xD155F, size: 0x8, addend: 0x0, symName: __RNvXs19_NtCslJiobkLta79_5alloc2rcINtB6_4WeakINtNtB8_3vec3VecNtCsaKzlTDPUHDb_11proc_macro29TokenTreeERNtNtB8_5alloc6GlobalENtNtNtCsieiGu2EXtoJ_4core3ops4drop4Drop4dropBY_, symObjAddr: 0x1DC0, symBinAddr: 0x370A0, symSize: 0x160 }
  - { offset: 0xD17E5, size: 0x8, addend: 0x0, symName: __RNvXsu_NtCslJiobkLta79_5alloc2rcINtB5_2RcINtNtB7_3vec3VecNtCsaKzlTDPUHDb_11proc_macro29TokenTreeEENtNtNtCsieiGu2EXtoJ_4core3ops4drop4Drop4dropBV_, symObjAddr: 0x2A00, symBinAddr: 0x377D0, symSize: 0x60 }
  - { offset: 0xD19EF, size: 0x8, addend: 0x0, symName: __RNvXsv_NtCslJiobkLta79_5alloc2rcINtB5_2RcINtNtB7_3vec3VecNtCsaKzlTDPUHDb_11proc_macro29TokenTreeEENtNtCsieiGu2EXtoJ_4core5clone5Clone5cloneBV_, symObjAddr: 0x2A60, symBinAddr: 0x37830, symSize: 0x40 }
  - { offset: 0xD1C49, size: 0x8, addend: 0x0, symName: __RNvXs2_NtCslJiobkLta79_5alloc3streNtNtB7_6borrow7ToOwned8to_ownedCsaKzlTDPUHDb_11proc_macro2, symObjAddr: 0x2200, symBinAddr: 0x374B0, symSize: 0x50 }
  - { offset: 0xD1D84, size: 0x8, addend: 0x0, symName: __RNvYNtCscKtU6MdFI5n_10proc_macro11TokenStreamNtNtCsaKzlTDPUHDb_11proc_macro28fallback8FromStr218from_str_uncheckedBL_, symObjAddr: 0x2ED0, symBinAddr: 0x37BB0, symSize: 0x80 }
  - { offset: 0xD1DF3, size: 0x8, addend: 0x0, symName: __RNvYNtCscKtU6MdFI5n_10proc_macro7LiteralNtNtCsaKzlTDPUHDb_11proc_macro28fallback8FromStr216from_str_checkedBG_, symObjAddr: 0x2F50, symBinAddr: 0x37C30, symSize: 0x110 }
  - { offset: 0xD1F22, size: 0x8, addend: 0x0, symName: __RNvXsr_NtCsaKzlTDPUHDb_11proc_macro28fallbackNtCscKtU6MdFI5n_10proc_macro7LiteralNtB5_8FromStr25valid, symObjAddr: 0x2980, symBinAddr: 0x37750, symSize: 0x80 }
  - { offset: 0xD21A9, size: 0x8, addend: 0x0, symName: __RNvXs2_NtCsaKzlTDPUHDb_11proc_macro23impNtCscKtU6MdFI5n_10proc_macro11TokenStreamINtNtCsieiGu2EXtoJ_4core7convert4FromNtB5_11TokenStreamE4from, symObjAddr: 0x20E0, symBinAddr: 0x37390, symSize: 0x120 }
  - { offset: 0xD2382, size: 0x8, addend: 0x0, symName: __RNvXs1_NtCsaKzlTDPUHDb_11proc_macro26markerNtB5_19ProcMacroAutoTraitsNtNtCsieiGu2EXtoJ_4core5clone5Clone5cloneB7_, symObjAddr: 0x1F20, symBinAddr: 0x37200, symSize: 0x10 }
  - { offset: 0xD250E, size: 0x8, addend: 0x0, symName: __RNvXs2_CsaKzlTDPUHDb_11proc_macro2NtCscKtU6MdFI5n_10proc_macro11TokenStreamINtNtCsieiGu2EXtoJ_4core7convert4FromNtB5_11TokenStreamE4from, symObjAddr: 0x20A0, symBinAddr: 0x37350, symSize: 0x40 }
  - { offset: 0xD2636, size: 0x8, addend: 0x0, symName: __RINvMs0_NtNtNtCsHUR1vrdMJt_3std4sync6poison4onceNtB6_4Once9call_onceNvNtCsaKzlTDPUHDb_11proc_macro29detection10initializeEB18_, symObjAddr: 0x0, symBinAddr: 0x35E00, symSize: 0xB0 }
  - { offset: 0xD2885, size: 0x8, addend: 0x0, symName: __RNvMNtCsaKzlTDPUHDb_11proc_macro25extraNtB2_9DelimSpan3new, symObjAddr: 0xC00, symBinAddr: 0x36210, symSize: 0xC0 }
  - { offset: 0xD2969, size: 0x8, addend: 0x0, symName: __RNvMs0_NtCslJiobkLta79_5alloc7raw_vecINtB5_6RawVecINtNtCsaKzlTDPUHDb_11proc_macro25rcvec13RcVecIntoIterNtBR_9TokenTreeEE8grow_oneBR_, symObjAddr: 0xE40, symBinAddr: 0x362D0, symSize: 0x90 }
  - { offset: 0xD2A1B, size: 0x8, addend: 0x0, symName: __RNvMs0_NtCslJiobkLta79_5alloc7raw_vecINtB5_6RawVecNtCsaKzlTDPUHDb_11proc_macro29TokenTreeE8grow_oneBO_, symObjAddr: 0xED0, symBinAddr: 0x36360, symSize: 0x90 }
  - { offset: 0xD2CD5, size: 0x8, addend: 0x0, symName: __RNvMs0_NtCslJiobkLta79_5alloc7raw_vecINtB5_6RawVechE8into_boxCsaKzlTDPUHDb_11proc_macro2, symObjAddr: 0xFF0, symBinAddr: 0x363F0, symSize: 0x90 }
  - { offset: 0xD2F2A, size: 0x8, addend: 0x0, symName: __RNvMs2_NtCslJiobkLta79_5alloc7raw_vecNtB5_11RawVecInner16with_capacity_inCsaKzlTDPUHDb_11proc_macro2, symObjAddr: 0x1080, symBinAddr: 0x36480, symSize: 0x150 }
  - { offset: 0xD3089, size: 0x8, addend: 0x0, symName: __RNvMs5_NtCslJiobkLta79_5alloc2rcINtB5_2RcINtNtB7_3vec3VecNtCsaKzlTDPUHDb_11proc_macro29TokenTreeEE9drop_slowBV_, symObjAddr: 0x12E0, symBinAddr: 0x365D0, symSize: 0x70 }
  - { offset: 0xD315A, size: 0x8, addend: 0x0, symName: __RNvMs6_NtCslJiobkLta79_5alloc2rcINtB5_2RcINtNtB7_3vec3VecNtCsaKzlTDPUHDb_11proc_macro29TokenTreeEE3newBV_, symObjAddr: 0x1350, symBinAddr: 0x36640, symSize: 0xB0 }
  - { offset: 0xD326F, size: 0x8, addend: 0x0, symName: __RNvMs8_CscKtU6MdFI5n_10proc_macroNtB5_11TokenStream3newCsaKzlTDPUHDb_11proc_macro2, symObjAddr: 0x1400, symBinAddr: 0x366F0, symSize: 0x10 }
  - { offset: 0xD328F, size: 0x8, addend: 0x0, symName: __RNvMsE_CscKtU6MdFI5n_10proc_macroNtB5_5Punct4spanCsaKzlTDPUHDb_11proc_macro2, symObjAddr: 0x1410, symBinAddr: 0x36700, symSize: 0x10 }
  - { offset: 0xD32B2, size: 0x8, addend: 0x0, symName: __RNvMsE_CscKtU6MdFI5n_10proc_macroNtB5_5Punct7as_charCsaKzlTDPUHDb_11proc_macro2, symObjAddr: 0x1420, symBinAddr: 0x36710, symSize: 0x10 }
  - { offset: 0xD32D5, size: 0x8, addend: 0x0, symName: __RNvMsE_CscKtU6MdFI5n_10proc_macroNtB5_5Punct7spacingCsaKzlTDPUHDb_11proc_macro2, symObjAddr: 0x1430, symBinAddr: 0x36720, symSize: 0x20 }
  - { offset: 0xD3305, size: 0x8, addend: 0x0, symName: __RNvMsE_CscKtU6MdFI5n_10proc_macroNtB5_5Punct8set_spanCsaKzlTDPUHDb_11proc_macro2, symObjAddr: 0x1450, symBinAddr: 0x36740, symSize: 0x10 }
  - { offset: 0xD3344, size: 0x8, addend: 0x0, symName: __RNvMsJ_CscKtU6MdFI5n_10proc_macroNtB5_5Ident4spanCsaKzlTDPUHDb_11proc_macro2, symObjAddr: 0x1460, symBinAddr: 0x36750, symSize: 0x10 }
  - { offset: 0xD3381, size: 0x8, addend: 0x0, symName: __RNvMsM_CscKtU6MdFI5n_10proc_macroNtB5_7Literal4spanCsaKzlTDPUHDb_11proc_macro2, symObjAddr: 0x1480, symBinAddr: 0x36760, symSize: 0x10 }
  - { offset: 0xD33B1, size: 0x8, addend: 0x0, symName: __RNvMsM_CscKtU6MdFI5n_10proc_macroNtB5_7Literal8set_spanCsaKzlTDPUHDb_11proc_macro2, symObjAddr: 0x1490, symBinAddr: 0x36770, symSize: 0x10 }
  - { offset: 0xD34F0, size: 0x8, addend: 0x0, symName: __RNvMsd_NtCslJiobkLta79_5alloc2rcINtB5_2RcINtNtB7_3vec3VecNtCsaKzlTDPUHDb_11proc_macro29TokenTreeEE7get_mutBV_, symObjAddr: 0x14A0, symBinAddr: 0x36780, symSize: 0x50 }
  - { offset: 0xD3634, size: 0x8, addend: 0x0, symName: __RNvMsz_CscKtU6MdFI5n_10proc_macroNtB5_5Group10span_closeCsaKzlTDPUHDb_11proc_macro2, symObjAddr: 0x14F0, symBinAddr: 0x367D0, symSize: 0x10 }
  - { offset: 0xD3657, size: 0x8, addend: 0x0, symName: __RNvMsz_CscKtU6MdFI5n_10proc_macroNtB5_5Group4spanCsaKzlTDPUHDb_11proc_macro2, symObjAddr: 0x1500, symBinAddr: 0x367E0, symSize: 0x10 }
  - { offset: 0xD3697, size: 0x8, addend: 0x0, symName: __RNvMsz_CscKtU6MdFI5n_10proc_macroNtB5_5Group8set_spanCsaKzlTDPUHDb_11proc_macro2, symObjAddr: 0x1510, symBinAddr: 0x367F0, symSize: 0x30 }
  - { offset: 0xD36DE, size: 0x8, addend: 0x0, symName: __RNvMsz_CscKtU6MdFI5n_10proc_macroNtB5_5Group9delimiterCsaKzlTDPUHDb_11proc_macro2, symObjAddr: 0x1540, symBinAddr: 0x36820, symSize: 0x10 }
  - { offset: 0xD3701, size: 0x8, addend: 0x0, symName: __RNvMsz_CscKtU6MdFI5n_10proc_macroNtB5_5Group9span_openCsaKzlTDPUHDb_11proc_macro2, symObjAddr: 0x1550, symBinAddr: 0x36830, symSize: 0x10 }
  - { offset: 0xD3C05, size: 0x8, addend: 0x0, symName: __RINvMNtCsieiGu2EXtoJ_4core5sliceSh13get_uncheckedjECs7jioEo1fc2W_13unicode_ident, symObjAddr: 0x0, symBinAddr: 0x37D80, symSize: 0x30 }
  - { offset: 0xD3C25, size: 0x8, addend: 0x0, symName: __RNvCs7jioEo1fc2W_13unicode_ident4ZERO, symObjAddr: 0x740, symBinAddr: 0x8E5C0, symSize: 0x0 }
  - { offset: 0xD3C44, size: 0x8, addend: 0x0, symName: __RNvNtCs7jioEo1fc2W_13unicode_ident6tables10TRIE_START, symObjAddr: 0x748, symBinAddr: 0x8E5C8, symSize: 0x0 }
  - { offset: 0xD3C7D, size: 0x8, addend: 0x0, symName: __RNvNtCs7jioEo1fc2W_13unicode_ident6tables13TRIE_CONTINUE, symObjAddr: 0x8E8, symBinAddr: 0x8E768, symSize: 0x0 }
  - { offset: 0xD3CB6, size: 0x8, addend: 0x0, symName: __RNvNtCs7jioEo1fc2W_13unicode_ident6tables4LEAF, symObjAddr: 0x1000, symBinAddr: 0x8EE80, symSize: 0x0 }
  - { offset: 0xD3CE3, size: 0x8, addend: 0x0, symName: __RNvCs7jioEo1fc2W_13unicode_ident12is_xid_start, symObjAddr: 0x60, symBinAddr: 0x37DE0, symSize: 0x180 }
  - { offset: 0xD3D91, size: 0x8, addend: 0x0, symName: __RNvCs7jioEo1fc2W_13unicode_ident15is_xid_continue, symObjAddr: 0x1E0, symBinAddr: 0x37F60, symSize: 0x1A0 }
  - { offset: 0xD3E87, size: 0x8, addend: 0x0, symName: __RINvMNtCsieiGu2EXtoJ_4core5sliceSh13get_uncheckedjECs7jioEo1fc2W_13unicode_ident, symObjAddr: 0x0, symBinAddr: 0x37D80, symSize: 0x30 }
  - { offset: 0xD3ED6, size: 0x8, addend: 0x0, symName: __RINvMNtCsieiGu2EXtoJ_4core5sliceSh3getjECs7jioEo1fc2W_13unicode_ident, symObjAddr: 0x30, symBinAddr: 0x37DB0, symSize: 0x30 }
  - { offset: 0xD3F35, size: 0x8, addend: 0x0, symName: __RNvNvXs0_NtNtCsieiGu2EXtoJ_4core5slice5indexjINtB7_10SliceIndexSpE13get_unchecked18precondition_checkCs7jioEo1fc2W_13unicode_ident, symObjAddr: 0x480, symBinAddr: 0x38200, symSize: 0xA0 }
  - { offset: 0xD3F9E, size: 0x8, addend: 0x0, symName: __RNvXs0_NtNtCsieiGu2EXtoJ_4core5slice5indexjINtB5_10SliceIndexShE13get_uncheckedCs7jioEo1fc2W_13unicode_ident, symObjAddr: 0x520, symBinAddr: 0x382A0, symSize: 0x50 }
  - { offset: 0xD3FE1, size: 0x8, addend: 0x0, symName: __RNvXs0_NtNtCsieiGu2EXtoJ_4core5slice5indexjINtB5_10SliceIndexShE3getCs7jioEo1fc2W_13unicode_ident, symObjAddr: 0x570, symBinAddr: 0x382F0, symSize: 0x40 }
  - { offset: 0xD408A, size: 0x8, addend: 0x0, symName: __RNvNvMs4_NtCsieiGu2EXtoJ_4core3numh13unchecked_shr18precondition_checkCs7jioEo1fc2W_13unicode_ident, symObjAddr: 0x3F0, symBinAddr: 0x38170, symSize: 0x90 }
  - { offset: 0xD41E2, size: 0x8, addend: 0x0, symName: __RNvMNtNtCsieiGu2EXtoJ_4core4char7methodsc8is_asciiCs7jioEo1fc2W_13unicode_ident, symObjAddr: 0x3D0, symBinAddr: 0x38150, symSize: 0x20 }
  - { offset: 0xD44CE, size: 0x8, addend: 0x0, symName: __RNvMNtCsieiGu2EXtoJ_4core6optionINtB2_6OptionRhE9unwrap_orCs7jioEo1fc2W_13unicode_ident, symObjAddr: 0x380, symBinAddr: 0x38100, symSize: 0x50 }
  - { offset: 0xD4757, size: 0x8, addend: 0x0, symName: ___llvm_profile_get_magic, symObjAddr: 0x20, symBinAddr: 0x38330, symSize: 0x10 }
  - { offset: 0xD4778, size: 0x8, addend: 0x0, symName: ___llvm_profile_get_num_padding_bytes, symObjAddr: 0x40, symBinAddr: 0x38340, symSize: 0x10 }
  - { offset: 0xD47A9, size: 0x8, addend: 0x0, symName: ___llvm_profile_get_version, symObjAddr: 0x50, symBinAddr: 0x38350, symSize: 0x10 }
  - { offset: 0xD481E, size: 0x8, addend: 0x0, symName: ___llvm_profile_is_continuous_mode_enabled, symObjAddr: 0x0, symBinAddr: 0x38360, symSize: 0x20 }
  - { offset: 0xD483B, size: 0x8, addend: 0x0, symName: _ContinuouslySyncProfile, symObjAddr: 0x40E0, symBinAddr: 0xB5A98, symSize: 0x0 }
  - { offset: 0xD485D, size: 0x8, addend: 0x0, symName: _PageSize, symObjAddr: 0x40E4, symBinAddr: 0xB5A9C, symSize: 0x0 }
  - { offset: 0xD488B, size: 0x8, addend: 0x0, symName: ___llvm_profile_is_continuous_mode_enabled, symObjAddr: 0x0, symBinAddr: 0x38360, symSize: 0x20 }
  - { offset: 0xD48AC, size: 0x8, addend: 0x0, symName: ___llvm_profile_enable_continuous_mode, symObjAddr: 0x20, symBinAddr: 0x38380, symSize: 0x10 }
  - { offset: 0xD48C9, size: 0x8, addend: 0x0, symName: ___llvm_profile_disable_continuous_mode, symObjAddr: 0x30, symBinAddr: 0x38390, symSize: 0x10 }
  - { offset: 0xD48E6, size: 0x8, addend: 0x0, symName: ___llvm_profile_set_page_size, symObjAddr: 0x40, symBinAddr: 0x383A0, symSize: 0x10 }
  - { offset: 0xD4911, size: 0x8, addend: 0x0, symName: ___llvm_profile_get_size_for_buffer, symObjAddr: 0x50, symBinAddr: 0x383B0, symSize: 0xD0 }
  - { offset: 0xD4D6F, size: 0x8, addend: 0x0, symName: ___llvm_profile_get_size_for_buffer_internal, symObjAddr: 0x120, symBinAddr: 0x38480, symSize: 0x210 }
  - { offset: 0xD513F, size: 0x8, addend: 0x0, symName: ___llvm_profile_get_num_data, symObjAddr: 0x330, symBinAddr: 0x38690, symSize: 0x10 }
  - { offset: 0xD517D, size: 0x8, addend: 0x0, symName: ___llvm_profile_get_data_size, symObjAddr: 0x340, symBinAddr: 0x386A0, symSize: 0x10 }
  - { offset: 0xD51AC, size: 0x8, addend: 0x0, symName: ___llvm_profile_get_data_size, symObjAddr: 0x340, symBinAddr: 0x386A0, symSize: 0x10 }
  - { offset: 0xD51E6, size: 0x8, addend: 0x0, symName: ___llvm_profile_get_num_vtable, symObjAddr: 0x350, symBinAddr: 0x386B0, symSize: 0x20 }
  - { offset: 0xD523F, size: 0x8, addend: 0x0, symName: ___llvm_profile_get_vtable_section_size, symObjAddr: 0x370, symBinAddr: 0x386D0, symSize: 0x10 }
  - { offset: 0xD5268, size: 0x8, addend: 0x0, symName: ___llvm_profile_counter_entry_size, symObjAddr: 0x380, symBinAddr: 0x386E0, symSize: 0x20 }
  - { offset: 0xD5281, size: 0x8, addend: 0x0, symName: ___llvm_profile_get_num_counters, symObjAddr: 0x3A0, symBinAddr: 0x38700, symSize: 0x50 }
  - { offset: 0xD52DD, size: 0x8, addend: 0x0, symName: ___llvm_profile_get_counters_size, symObjAddr: 0x3F0, symBinAddr: 0x38750, symSize: 0x60 }
  - { offset: 0xD537C, size: 0x8, addend: 0x0, symName: ___llvm_profile_get_num_bitmap_bytes, symObjAddr: 0x450, symBinAddr: 0x387B0, symSize: 0x10 }
  - { offset: 0xD53A6, size: 0x8, addend: 0x0, symName: ___llvm_profile_get_name_size, symObjAddr: 0x460, symBinAddr: 0x387C0, symSize: 0x10 }
  - { offset: 0xD53D0, size: 0x8, addend: 0x0, symName: ___llvm_profile_get_padding_sizes_for_counters, symObjAddr: 0x470, symBinAddr: 0x387D0, symSize: 0x1B0 }
  - { offset: 0xD5508, size: 0x8, addend: 0x0, symName: _initBufferWriter, symObjAddr: 0x620, symBinAddr: 0x38980, symSize: 0x10 }
  - { offset: 0xD5680, size: 0x8, addend: 0x0, symName: _lprofCurFilename, symObjAddr: 0xA6F8, symBinAddr: 0xB5AA0, symSize: 0x0 }
  - { offset: 0xD57B9, size: 0x8, addend: 0x0, symName: _ProfileFile, symObjAddr: 0xA7C8, symBinAddr: 0xB5B70, symSize: 0x0 }
  - { offset: 0xD5A06, size: 0x8, addend: 0x0, symName: _ProfileMergeRequested, symObjAddr: 0xA7D0, symBinAddr: 0xB5B78, symSize: 0x0 }
  - { offset: 0xD5BB7, size: 0x8, addend: 0x0, symName: _getCurFilenameLength, symObjAddr: 0x180, symBinAddr: 0x38990, symSize: 0xE0 }
  - { offset: 0xD5C42, size: 0x8, addend: 0x0, symName: _getCurFilename, symObjAddr: 0x260, symBinAddr: 0x38A70, symSize: 0x380 }
  - { offset: 0xD5ED7, size: 0x8, addend: 0x0, symName: _parseAndSetFilename, symObjAddr: 0x6B0, symBinAddr: 0x38DF0, symSize: 0x590 }
  - { offset: 0xD6107, size: 0x8, addend: 0x0, symName: ___llvm_profile_initialize, symObjAddr: 0xC40, symBinAddr: 0x39380, symSize: 0x90 }
  - { offset: 0xD6187, size: 0x8, addend: 0x0, symName: ___llvm_profile_write_file, symObjAddr: 0xD30, symBinAddr: 0x39410, symSize: 0x160 }
  - { offset: 0xD635C, size: 0x8, addend: 0x0, symName: _writeFile, symObjAddr: 0xE90, symBinAddr: 0x39570, symSize: 0x2B0 }
  - { offset: 0xD6510, size: 0x8, addend: 0x0, symName: _writeFileWithoutReturn, symObjAddr: 0x1190, symBinAddr: 0x39820, symSize: 0x10 }
  - { offset: 0xD6547, size: 0x8, addend: 0x0, symName: _getProfileFileSizeForMerging, symObjAddr: 0x13C0, symBinAddr: 0x39830, symSize: 0xC0 }
  - { offset: 0xD658C, size: 0x8, addend: 0x0, symName: _mmapForContinuousMode, symObjAddr: 0x1480, symBinAddr: 0x398F0, symSize: 0x2D0 }
  - { offset: 0xD674B, size: 0x8, addend: 0x0, symName: _fileWriter, symObjAddr: 0x1750, symBinAddr: 0x39BC0, symSize: 0x150 }
  - { offset: 0xD681B, size: 0x8, addend: 0x0, symName: _binaryIdsStringWriter, symObjAddr: 0x18A0, symBinAddr: 0x39D10, symSize: 0xA0 }
  - { offset: 0xD68BC, size: 0x8, addend: 0x0, symName: _truncateCurrentFile, symObjAddr: 0x1940, symBinAddr: 0x39DB0, symSize: 0xB0 }
  - { offset: 0xD6962, size: 0x8, addend: 0x0, symName: _initializeProfileForContinuousMode, symObjAddr: 0x19F0, symBinAddr: 0x39E60, symSize: 0x2C0 }
  - { offset: 0xD6B5D, size: 0x8, addend: 0x0, symName: _createProfileDir, symObjAddr: 0x1CB0, symBinAddr: 0x3A120, symSize: 0x7F }
  - { offset: 0xD6CDA, size: 0x8, addend: 0x0, symName: _lprofProfileDumped, symObjAddr: 0x0, symBinAddr: 0x3A1A0, symSize: 0x10 }
  - { offset: 0xD6CF7, size: 0x8, addend: 0x0, symName: _ProfileDumped, symObjAddr: 0x4E0, symBinAddr: 0xB5B7C, symSize: 0x0 }
  - { offset: 0xD6D07, size: 0x8, addend: 0x0, symName: _lprofProfileDumped, symObjAddr: 0x0, symBinAddr: 0x3A1A0, symSize: 0x10 }
  - { offset: 0xD6D4F, size: 0x8, addend: 0x0, symName: _lprofGetLoadModuleSignature, symObjAddr: 0x0, symBinAddr: 0x3A1B0, symSize: 0xE0 }
  - { offset: 0xD6D7C, size: 0x8, addend: 0x0, symName: _VPMergeHook, symObjAddr: 0x2AA0, symBinAddr: 0xB7D20, symSize: 0x0 }
  - { offset: 0xD7000, size: 0x8, addend: 0x0, symName: _lprofGetLoadModuleSignature, symObjAddr: 0x0, symBinAddr: 0x3A1B0, symSize: 0xE0 }
  - { offset: 0xD7074, size: 0x8, addend: 0x0, symName: ___llvm_profile_check_compatibility, symObjAddr: 0xE0, symBinAddr: 0x3A290, symSize: 0x190 }
  - { offset: 0xD7155, size: 0x8, addend: 0x0, symName: ___llvm_profile_merge_from_buffer, symObjAddr: 0x270, symBinAddr: 0x3A420, symSize: 0x4D8 }
  - { offset: 0xD73B9, size: 0x8, addend: 0x0, symName: _lprofMergeValueProfData, symObjAddr: 0x0, symBinAddr: 0x3A900, symSize: 0xF1 }
  - { offset: 0xD73CA, size: 0x8, addend: 0x0, symName: _lprofMergeValueProfData, symObjAddr: 0x0, symBinAddr: 0x3A900, symSize: 0xF1 }
  - { offset: 0xD76A1, size: 0x8, addend: 0x0, symName: ___llvm_profile_begin_data, symObjAddr: 0x0, symBinAddr: 0x3AA00, symSize: 0x10 }
  - { offset: 0xD76C0, size: 0x8, addend: 0x0, symName: _CurrentVNode, symObjAddr: 0xE8, symBinAddr: 0xB4F00, symSize: 0x0 }
  - { offset: 0xD7740, size: 0x8, addend: 0x0, symName: _EndVNode, symObjAddr: 0xF0, symBinAddr: 0xB4F08, symSize: 0x0 }
  - { offset: 0xD7749, size: 0x8, addend: 0x0, symName: ___llvm_profile_begin_data, symObjAddr: 0x0, symBinAddr: 0x3AA00, symSize: 0x10 }
  - { offset: 0xD776A, size: 0x8, addend: 0x0, symName: ___llvm_profile_end_data, symObjAddr: 0x10, symBinAddr: 0x3AA10, symSize: 0x10 }
  - { offset: 0xD778B, size: 0x8, addend: 0x0, symName: ___llvm_profile_begin_names, symObjAddr: 0x20, symBinAddr: 0x3AA20, symSize: 0x10 }
  - { offset: 0xD77AC, size: 0x8, addend: 0x0, symName: ___llvm_profile_end_names, symObjAddr: 0x30, symBinAddr: 0x3AA30, symSize: 0x10 }
  - { offset: 0xD77CD, size: 0x8, addend: 0x0, symName: ___llvm_profile_begin_counters, symObjAddr: 0x40, symBinAddr: 0x3AA40, symSize: 0x10 }
  - { offset: 0xD77EE, size: 0x8, addend: 0x0, symName: ___llvm_profile_end_counters, symObjAddr: 0x50, symBinAddr: 0x3AA50, symSize: 0x10 }
  - { offset: 0xD780F, size: 0x8, addend: 0x0, symName: ___llvm_profile_begin_bitmap, symObjAddr: 0x60, symBinAddr: 0x3AA60, symSize: 0x10 }
  - { offset: 0xD7830, size: 0x8, addend: 0x0, symName: ___llvm_profile_end_bitmap, symObjAddr: 0x70, symBinAddr: 0x3AA70, symSize: 0x10 }
  - { offset: 0xD7851, size: 0x8, addend: 0x0, symName: ___llvm_profile_begin_vtables, symObjAddr: 0x80, symBinAddr: 0x3AA80, symSize: 0x10 }
  - { offset: 0xD7872, size: 0x8, addend: 0x0, symName: ___llvm_profile_end_vtables, symObjAddr: 0x90, symBinAddr: 0x3AA90, symSize: 0x10 }
  - { offset: 0xD7893, size: 0x8, addend: 0x0, symName: ___llvm_profile_begin_vtabnames, symObjAddr: 0xA0, symBinAddr: 0x3AAA0, symSize: 0x10 }
  - { offset: 0xD78B4, size: 0x8, addend: 0x0, symName: ___llvm_profile_end_vtabnames, symObjAddr: 0xB0, symBinAddr: 0x3AAB0, symSize: 0x10 }
  - { offset: 0xD78D5, size: 0x8, addend: 0x0, symName: ___llvm_profile_begin_vnodes, symObjAddr: 0xC0, symBinAddr: 0x3AAC0, symSize: 0x10 }
  - { offset: 0xD78F6, size: 0x8, addend: 0x0, symName: ___llvm_profile_end_vnodes, symObjAddr: 0xD0, symBinAddr: 0x3AAD0, symSize: 0x10 }
  - { offset: 0xD7917, size: 0x8, addend: 0x0, symName: ___llvm_write_binary_ids, symObjAddr: 0xE0, symBinAddr: 0x3AAE0, symSize: 0x3 }
  - { offset: 0xD7BB4, size: 0x8, addend: 0x0, symName: __GLOBAL__sub_I_InstrProfilingRuntime.cpp, symObjAddr: 0x0, symBinAddr: 0x3AAF0, symSize: 0x12 }
  - { offset: 0xD7BD7, size: 0x8, addend: 0x0, symName: ___llvm_profile_runtime, symObjAddr: 0x580, symBinAddr: 0xB7D28, symSize: 0x0 }
  - { offset: 0xD7C08, size: 0x8, addend: 0x0, symName: __GLOBAL__sub_I_InstrProfilingRuntime.cpp, symObjAddr: 0x0, symBinAddr: 0x3AAF0, symSize: 0x12 }
  - { offset: 0xD7C84, size: 0x8, addend: 0x0, symName: ___llvm_profile_recursive_mkdir, symObjAddr: 0x0, symBinAddr: 0x3AB10, symSize: 0x40 }
  - { offset: 0xD7CA3, size: 0x8, addend: 0x0, symName: _lprofDirMode, symObjAddr: 0x6F8, symBinAddr: 0xB4F10, symSize: 0x0 }
  - { offset: 0xD7D0F, size: 0x8, addend: 0x0, symName: ___llvm_profile_recursive_mkdir, symObjAddr: 0x0, symBinAddr: 0x3AB10, symSize: 0x40 }
  - { offset: 0xD7D8F, size: 0x8, addend: 0x0, symName: _lprofGetHostName, symObjAddr: 0x60, symBinAddr: 0x3AB50, symSize: 0x70 }
  - { offset: 0xD7EC5, size: 0x8, addend: 0x0, symName: _lprofLockFileHandle, symObjAddr: 0x1B0, symBinAddr: 0x3ABC0, symSize: 0x70 }
  - { offset: 0xD7F56, size: 0x8, addend: 0x0, symName: _lprofUnlockFileHandle, symObjAddr: 0x220, symBinAddr: 0x3AC30, symSize: 0x70 }
  - { offset: 0xD7FC1, size: 0x8, addend: 0x0, symName: _lprofOpenFileEx, symObjAddr: 0x290, symBinAddr: 0x3ACA0, symSize: 0xB0 }
  - { offset: 0xD8056, size: 0x8, addend: 0x0, symName: _lprofGetFileContentBuffer, symObjAddr: 0x340, symBinAddr: 0x3AD50, symSize: 0x1B0 }
  - { offset: 0xD80E5, size: 0x8, addend: 0x0, symName: _lprofReleaseBuffer, symObjAddr: 0x4F0, symBinAddr: 0x3AF00, symSize: 0x70 }
  - { offset: 0xD8127, size: 0x8, addend: 0x0, symName: _lprofFindFirstDirSeparator, symObjAddr: 0x660, symBinAddr: 0x3AF70, symSize: 0x10 }
  - { offset: 0xD8167, size: 0x8, addend: 0x0, symName: _lprofSuspendSigKill, symObjAddr: 0x680, symBinAddr: 0x3AF80, symSize: 0x10 }
  - { offset: 0xD818A, size: 0x8, addend: 0x0, symName: _lprofRestoreSigKill, symObjAddr: 0x690, symBinAddr: 0x3AF90, symSize: 0x10 }
  - { offset: 0xD81A9, size: 0x8, addend: 0x0, symName: _lprofAtExit, symObjAddr: 0x6F0, symBinAddr: 0x3AFA0, symSize: 0x5 }
  - { offset: 0xD84E0, size: 0x8, addend: 0x0, symName: _getValueProfRecordHeaderSize, symObjAddr: 0x0, symBinAddr: 0x3AFB0, symSize: 0x10 }
  - { offset: 0xD84FF, size: 0x8, addend: 0x0, symName: _VPMaxNumValsPerSite, symObjAddr: 0x1468, symBinAddr: 0xB4F18, symSize: 0x0 }
  - { offset: 0xD8598, size: 0x8, addend: 0x0, symName: _hasNonDefaultValsPerSite, symObjAddr: 0xEE78, symBinAddr: 0xB5B80, symSize: 0x0 }
  - { offset: 0xD85BF, size: 0x8, addend: 0x0, symName: _OutOfNodesWarnings, symObjAddr: 0xEE80, symBinAddr: 0xB5B88, symSize: 0x0 }
  - { offset: 0xD85D4, size: 0x8, addend: 0x0, symName: _hasStaticCounters, symObjAddr: 0xEE7C, symBinAddr: 0xB5B84, symSize: 0x0 }
  - { offset: 0xD85F2, size: 0x8, addend: 0x0, symName: _TheVPDataReader, symObjAddr: 0x1470, symBinAddr: 0xB4F20, symSize: 0x0 }
  - { offset: 0xD88AB, size: 0x8, addend: 0x0, symName: _RTRecord, symObjAddr: 0xEE88, symBinAddr: 0xB5B90, symSize: 0x0 }
  - { offset: 0xD8AA7, size: 0x8, addend: 0x0, symName: _getValueProfRecordHeaderSize, symObjAddr: 0x0, symBinAddr: 0x3AFB0, symSize: 0x10 }
  - { offset: 0xD8AFE, size: 0x8, addend: 0x0, symName: _getValueProfRecordValueData, symObjAddr: 0x20, symBinAddr: 0x3AFC0, symSize: 0x10 }
  - { offset: 0xD8BAD, size: 0x8, addend: 0x0, symName: _getValueProfRecordNext, symObjAddr: 0x130, symBinAddr: 0x3AFD0, symSize: 0x100 }
  - { offset: 0xD8BB5, size: 0x8, addend: 0x0, symName: _getFirstValueProfRecord, symObjAddr: 0x230, symBinAddr: 0x3B0D0, symSize: 0x10 }
  - { offset: 0xD8C40, size: 0x8, addend: 0x0, symName: _getFirstValueProfRecord, symObjAddr: 0x230, symBinAddr: 0x3B0D0, symSize: 0x10 }
  - { offset: 0xD8D21, size: 0x8, addend: 0x0, symName: _lprofSetupValueProfiler, symObjAddr: 0x8C0, symBinAddr: 0x3B0E0, symSize: 0x50 }
  - { offset: 0xD8E35, size: 0x8, addend: 0x0, symName: ___llvm_profile_instrument_target_value, symObjAddr: 0xB90, symBinAddr: 0x3B130, symSize: 0x240 }
  - { offset: 0xD8F64, size: 0x8, addend: 0x0, symName: _lprofGetVPDataReader, symObjAddr: 0xE20, symBinAddr: 0x3B370, symSize: 0x10 }
  - { offset: 0xD8F87, size: 0x8, addend: 0x0, symName: _initializeValueProfRuntimeRecord, symObjAddr: 0xE30, symBinAddr: 0x3B380, symSize: 0x390 }
  - { offset: 0xD90AC, size: 0x8, addend: 0x0, symName: _getNumValueDataForSiteWrapper, symObjAddr: 0x11C0, symBinAddr: 0x3B710, symSize: 0x20 }
  - { offset: 0xD90F0, size: 0x8, addend: 0x0, symName: _getNumValueDataForSiteWrapper, symObjAddr: 0x11C0, symBinAddr: 0x3B710, symSize: 0x20 }
  - { offset: 0xD9118, size: 0x8, addend: 0x0, symName: _getValueProfDataSizeWrapper, symObjAddr: 0x11E0, symBinAddr: 0x3B730, symSize: 0xB0 }
  - { offset: 0xD913E, size: 0x8, addend: 0x0, symName: _getValueProfDataSizeWrapper, symObjAddr: 0x11E0, symBinAddr: 0x3B730, symSize: 0xB0 }
  - { offset: 0xD9172, size: 0x8, addend: 0x0, symName: _getValueProfDataSizeWrapper, symObjAddr: 0x11E0, symBinAddr: 0x3B730, symSize: 0xB0 }
  - { offset: 0xD91D3, size: 0x8, addend: 0x0, symName: _getNextNValueData, symObjAddr: 0x1290, symBinAddr: 0x3B7E0, symSize: 0xC0 }
  - { offset: 0xD926D, size: 0x8, addend: 0x0, symName: _getNumValueSitesRT, symObjAddr: 0x1350, symBinAddr: 0x3B8A0, symSize: 0x10 }
  - { offset: 0xD92AE, size: 0x8, addend: 0x0, symName: _getNumValueDataRT, symObjAddr: 0x1360, symBinAddr: 0x3B8B0, symSize: 0x101 }
  - { offset: 0xD9366, size: 0x8, addend: 0x0, symName: ___llvm_profile_raw_version, symObjAddr: 0x0, symBinAddr: 0xB4F50, symSize: 0x0 }
  - { offset: 0xD93A8, size: 0x8, addend: 0x0, symName: _lprofBufferWriter, symObjAddr: 0x0, symBinAddr: 0x3B9C0, symSize: 0x60 }
  - { offset: 0xD93C7, size: 0x8, addend: 0x0, symName: _FreeHook, symObjAddr: 0x55B0, symBinAddr: 0xB7D30, symSize: 0x0 }
  - { offset: 0xD93ED, size: 0x8, addend: 0x0, symName: _DynamicBufferIOBuffer, symObjAddr: 0x55B8, symBinAddr: 0xB7D38, symSize: 0x0 }
  - { offset: 0xD941B, size: 0x8, addend: 0x0, symName: _VPBufferSize, symObjAddr: 0x55C0, symBinAddr: 0xB7D40, symSize: 0x0 }
  - { offset: 0xD9442, size: 0x8, addend: 0x0, symName: _TheBufferIO, symObjAddr: 0x75D0, symBinAddr: 0xB7BC0, symSize: 0x0 }
  - { offset: 0xD959C, size: 0x8, addend: 0x0, symName: _BufferIOBuffer, symObjAddr: 0x55D0, symBinAddr: 0xB5BC0, symSize: 0x0 }
  - { offset: 0xD95C6, size: 0x8, addend: 0x0, symName: _VPDataArray, symObjAddr: 0x75F0, symBinAddr: 0xB7BE0, symSize: 0x0 }
  - { offset: 0xD9642, size: 0x8, addend: 0x0, symName: _lprofBufferWriter, symObjAddr: 0x0, symBinAddr: 0x3B9C0, symSize: 0x60 }
  - { offset: 0xD9761, size: 0x8, addend: 0x0, symName: _lprofBufferIOWrite, symObjAddr: 0x100, symBinAddr: 0x3BA20, symSize: 0x110 }
  - { offset: 0xD9884, size: 0x8, addend: 0x0, symName: _lprofWriteData, symObjAddr: 0x2A0, symBinAddr: 0x3BB30, symSize: 0x120 }
  - { offset: 0xD9CE1, size: 0x8, addend: 0x0, symName: _lprofWriteDataImpl, symObjAddr: 0x3C0, symBinAddr: 0x3BC50, symSize: 0x6E0 }
  - { offset: 0xDA04C, size: 0x8, addend: 0x0, symName: _writeOneValueProfData, symObjAddr: 0xB40, symBinAddr: 0x3C330, symSize: 0x438 }
  - { offset: 0xDA4E1, size: 0x8, addend: 0x0, symName: '__ZN107_$LT$proc_macro..bridge..buffer..Buffer$u20$as$u20$core..convert..From$LT$alloc..vec..Vec$LT$u8$GT$$GT$$GT$4from4drop17hd72fc05f241bd369E', symObjAddr: 0xB60, symBinAddr: 0x3C900, symSize: 0x30 }
  - { offset: 0xDA588, size: 0x8, addend: 0x0, symName: '__ZN107_$LT$proc_macro..bridge..buffer..Buffer$u20$as$u20$core..convert..From$LT$alloc..vec..Vec$LT$u8$GT$$GT$$GT$4from7reserve17haedd2fb703e9d73bE', symObjAddr: 0xB90, symBinAddr: 0x3C930, symSize: 0x90 }
  - { offset: 0xDA8BA, size: 0x8, addend: 0x0, symName: '__ZN71_$LT$$RF$str$u20$as$u20$proc_macro..bridge..rpc..DecodeMut$LT$S$GT$$GT$6decode17h2302a82e31a00500E', symObjAddr: 0x24230, symBinAddr: 0x44420, symSize: 0xC0 }
  - { offset: 0xDAA74, size: 0x8, addend: 0x0, symName: '__ZN10proc_macro6bridge3rpc165_$LT$impl$u20$core..convert..From$LT$proc_macro..bridge..rpc..PanicMessage$GT$$u20$for$u20$alloc..boxed..Box$LT$dyn$u20$core..any..Any$u2b$core..marker..Send$GT$$GT$4from17h7088adbaeddaa7f6E', symObjAddr: 0x142F0, symBinAddr: 0x3DF00, symSize: 0xF0 }
  - { offset: 0xDAC1A, size: 0x8, addend: 0x0, symName: '__ZN155_$LT$proc_macro..bridge..rpc..PanicMessage$u20$as$u20$core..convert..From$LT$alloc..boxed..Box$LT$dyn$u20$core..any..Any$u2b$core..marker..Send$GT$$GT$$GT$4from17h5486e80969f5b0f4E', symObjAddr: 0x1ECB0, symBinAddr: 0x425D0, symSize: 0x150 }
  - { offset: 0xDAF42, size: 0x8, addend: 0x0, symName: '__ZN95_$LT$proc_macro..bridge..client..state..set..RestoreOnDrop$u20$as$u20$core..ops..drop..Drop$GT$4drop17h2dd41e2d3d134982E', symObjAddr: 0x25A50, symBinAddr: 0x44E20, symSize: 0x20 }
  - { offset: 0xDB0B3, size: 0x8, addend: 0x0, symName: __ZN10proc_macro6bridge6client11TokenStream12concat_trees17hf0411163da410178E, symObjAddr: 0x14500, symBinAddr: 0x3DFF0, symSize: 0x750 }
  - { offset: 0xDB7BF, size: 0x8, addend: 0x0, symName: '__ZN81_$LT$proc_macro..bridge..client..TokenStream$u20$as$u20$core..ops..drop..Drop$GT$4drop17h1f7ad44ee0ec675cE', symObjAddr: 0x24EE0, symBinAddr: 0x44950, symSize: 0x20 }
  - { offset: 0xDB8C3, size: 0x8, addend: 0x0, symName: '__ZN10proc_macro6bridge6client6Bridge4with28_$u7b$$u7b$closure$u7d$$u7d$17h4214b6f6b3cfd975E', symObjAddr: 0x16BB0, symBinAddr: 0x3E7E0, symSize: 0x530 }
  - { offset: 0xDC10B, size: 0x8, addend: 0x0, symName: __ZN10proc_macro6bridge6client24maybe_install_panic_hook17h392df2dc04d2be0dE, symObjAddr: 0x16720, symBinAddr: 0x3E740, symSize: 0x60 }
  - { offset: 0xDC17E, size: 0x8, addend: 0x0, symName: '__ZN10proc_macro6bridge6client24maybe_install_panic_hook28_$u7b$$u7b$closure$u7d$$u7d$28_$u7b$$u7b$closure$u7d$$u7d$17h1e02a45df9c79b0bE', symObjAddr: 0x16780, symBinAddr: 0x3E7A0, symSize: 0x40 }
  - { offset: 0xDC2B6, size: 0x8, addend: 0x0, symName: '__ZN78_$LT$proc_macro..bridge..client..TokenStream$u20$as$u20$core..clone..Clone$GT$5clone17ha90d5be9b8d30c9cE', symObjAddr: 0x24B40, symBinAddr: 0x445B0, symSize: 0x3A0 }
  - { offset: 0xDC783, size: 0x8, addend: 0x0, symName: __ZN10proc_macro6bridge6symbol6Symbol14invalidate_all17h42dd5d4673f208c2E, symObjAddr: 0x17140, symBinAddr: 0x3ED10, symSize: 0x160 }
  - { offset: 0xDCC07, size: 0x8, addend: 0x0, symName: __ZN10proc_macro6bridge6symbol6Symbol3new17hce9f3b0800ddd67fE, symObjAddr: 0x172A0, symBinAddr: 0x3EE70, symSize: 0x6D0 }
  - { offset: 0xDDEBD, size: 0x8, addend: 0x0, symName: __ZN10proc_macro6bridge6symbol6Symbol9new_ident17hdbd265d0b9dc9f59E, symObjAddr: 0x17970, symBinAddr: 0x3F540, symSize: 0x970 }
  - { offset: 0xDE9DC, size: 0x8, addend: 0x0, symName: '__ZN73_$LT$proc_macro..bridge..symbol..Symbol$u20$as$u20$core..fmt..Display$GT$3fmt17h62b0ea76b33c0ed7E', symObjAddr: 0x24690, symBinAddr: 0x444E0, symSize: 0xD0 }
  - { offset: 0xDED01, size: 0x8, addend: 0x0, symName: '__ZN95_$LT$proc_macro..bridge..symbol..Symbol$u20$as$u20$proc_macro..bridge..rpc..Encode$LT$S$GT$$GT$6encode17h0872b082dd2ef707E', symObjAddr: 0x25A70, symBinAddr: 0x44E40, symSize: 0x200 }
  - { offset: 0xDF174, size: 0x8, addend: 0x0, symName: '__ZN10proc_macro6bridge103_$LT$impl$u20$proc_macro..bridge..rpc..DecodeMut$LT$S$GT$$u20$for$u20$core..option..Option$LT$T$GT$$GT$6decode17h9fde5a218349777cE', symObjAddr: 0x13AC0, symBinAddr: 0x3DBB0, symSize: 0x100 }
  - { offset: 0xDF3F6, size: 0x8, addend: 0x0, symName: '__ZN106_$LT$proc_macro..bridge..Literal$LT$Sp$C$Sy$GT$$u20$as$u20$proc_macro..bridge..rpc..DecodeMut$LT$S$GT$$GT$6decode17ha5d18b0c05e99bffE', symObjAddr: 0x9D0, symBinAddr: 0x3C770, symSize: 0x190 }
  - { offset: 0xDF771, size: 0x8, addend: 0x0, symName: '__ZN10proc_macro6bridge107_$LT$impl$u20$proc_macro..bridge..rpc..DecodeMut$LT$S$GT$$u20$for$u20$core..result..Result$LT$T$C$E$GT$$GT$6decode17h7d4bb560489bc316E', symObjAddr: 0x140A0, symBinAddr: 0x3DCB0, symSize: 0x110 }
  - { offset: 0xDF902, size: 0x8, addend: 0x0, symName: '__ZN10proc_macro6bridge107_$LT$impl$u20$proc_macro..bridge..rpc..DecodeMut$LT$S$GT$$u20$for$u20$core..result..Result$LT$T$C$E$GT$$GT$6decode17h8372f004f73b4d83E', symObjAddr: 0x141B0, symBinAddr: 0x3DDC0, symSize: 0x140 }
  - { offset: 0xDFBF0, size: 0x8, addend: 0x0, symName: __ZN10proc_macro6bridge5arena5Arena4grow17ha66ad542db88f62eE, symObjAddr: 0x143E0, symBinAddr: 0x7DD40, symSize: 0x120 }
  - { offset: 0xE0168, size: 0x8, addend: 0x0, symName: '__ZN125_$LT$proc_macro..bridge..TokenTree$LT$TokenStream$C$Span$C$Symbol$GT$$u20$as$u20$proc_macro..bridge..rpc..Encode$LT$S$GT$$GT$6encode17hd81bc4d48fd3ca75E', symObjAddr: 0x1D160, symBinAddr: 0x40A80, symSize: 0x1B50 }
  - { offset: 0xE17AA, size: 0x8, addend: 0x0, symName: '__ZN97_$LT$proc_macro..bridge..api_tags..Method$u20$as$u20$proc_macro..bridge..rpc..Encode$LT$S$GT$$GT$6encode17h807fb9e98443d9f8E', symObjAddr: 0x25C70, symBinAddr: 0x45040, symSize: 0x12D0 }
  - { offset: 0xE1E1B, size: 0x8, addend: 0x0, symName: __ZN10proc_macro17ConcatTreesHelper3new17hc53324f08346941aE, symObjAddr: 0x28F0, symBinAddr: 0x3D5C0, symSize: 0x90 }
  - { offset: 0xE1F56, size: 0x8, addend: 0x0, symName: __ZN10proc_macro17ConcatTreesHelper4push17hbddbcaf7519d76d7E, symObjAddr: 0x2980, symBinAddr: 0x3D650, symSize: 0x140 }
  - { offset: 0xE212E, size: 0x8, addend: 0x0, symName: __ZN10proc_macro17ConcatTreesHelper9append_to17hb7f495cfa9dbb08dE, symObjAddr: 0x2AF0, symBinAddr: 0x3D790, symSize: 0x40 }
  - { offset: 0xE2191, size: 0x8, addend: 0x0, symName: __ZN10proc_macro12is_available17h36f1b4cb6ea0e036E, symObjAddr: 0x1CF0, symBinAddr: 0x3C9C0, symSize: 0x20 }
  - { offset: 0xE2288, size: 0x8, addend: 0x0, symName: '__ZN10proc_macro12token_stream95_$LT$impl$u20$core..iter..traits..collect..IntoIterator$u20$for$u20$proc_macro..TokenStream$GT$9into_iter17h9e3b309d5e331af4E', symObjAddr: 0x1D10, symBinAddr: 0x3C9E0, symSize: 0xBE0 }
  - { offset: 0xE37B6, size: 0x8, addend: 0x0, symName: '__ZN93_$LT$proc_macro..token_stream..IntoIter$u20$as$u20$core..iter..traits..iterator..Iterator$GT$4next17hdc8334fda910bc49E', symObjAddr: 0x25940, symBinAddr: 0x44D80, symSize: 0xA0 }
  - { offset: 0xE3856, size: 0x8, addend: 0x0, symName: __ZN10proc_macro4Span9call_site17hbc3849bb423a7ed4E, symObjAddr: 0x61F0, symBinAddr: 0x3D7D0, symSize: 0x70 }
  - { offset: 0xE397E, size: 0x8, addend: 0x0, symName: __ZN10proc_macro5Group3new17h7a887c7a7c293079E, symObjAddr: 0x6600, symBinAddr: 0x3D840, symSize: 0xB0 }
  - { offset: 0xE3B61, size: 0x8, addend: 0x0, symName: __ZN10proc_macro5Group6stream17hb3d861b8562d3088E, symObjAddr: 0x66B0, symBinAddr: 0x3D8F0, symSize: 0x20 }
  - { offset: 0xE3BAD, size: 0x8, addend: 0x0, symName: __ZN10proc_macro5Ident3new17h0a918a82ff29bf0bE, symObjAddr: 0x66D0, symBinAddr: 0x3D910, symSize: 0x30 }
  - { offset: 0xE3BD5, size: 0x8, addend: 0x0, symName: __ZN10proc_macro5Punct3new17hf948c2befc46d439E, symObjAddr: 0x6730, symBinAddr: 0x3D940, symSize: 0x270 }
  - { offset: 0xE3D6E, size: 0x8, addend: 0x0, symName: '__ZN56_$LT$proc_macro..Ident$u20$as$u20$core..fmt..Display$GT$3fmt17h13323e19c7d64be1E', symObjAddr: 0x21B10, symBinAddr: 0x43060, symSize: 0x50 }
  - { offset: 0xE3DAC, size: 0x8, addend: 0x0, symName: __ZN10proc_macro7Literal6string17ha133a27d695a48e1E, symObjAddr: 0x1C4A0, symBinAddr: 0x409A0, symSize: 0xE0 }
  - { offset: 0xE4128, size: 0x8, addend: 0x0, symName: __ZN10proc_macro6escape12escape_bytes17h2430230ecac91a51E, symObjAddr: 0x18330, symBinAddr: 0x3FEB0, symSize: 0x8D0 }
  - { offset: 0xE529C, size: 0x8, addend: 0x0, symName: '__ZN10proc_macro7Literal20with_stringify_parts28_$u7b$$u7b$closure$u7d$$u7d$17h1dc919b4c939ff9cE', symObjAddr: 0x1C280, symBinAddr: 0x40780, symSize: 0x220 }
  - { offset: 0xE54A8, size: 0x8, addend: 0x0, symName: '__ZN58_$LT$proc_macro..Literal$u20$as$u20$core..fmt..Display$GT$3fmt17h85d9b19e6aaef6fcE', symObjAddr: 0x22020, symBinAddr: 0x430B0, symSize: 0x210 }
  - { offset: 0xE5AD7, size: 0x8, addend: 0x0, symName: '__ZN56_$LT$proc_macro..Group$u20$as$u20$core..fmt..Display$GT$3fmt17h2e470e3f4185ccfcE', symObjAddr: 0x21A20, symBinAddr: 0x42F70, symSize: 0xF0 }
  - { offset: 0xE5D92, size: 0x8, addend: 0x0, symName: '__ZN62_$LT$proc_macro..TokenStream$u20$as$u20$core..fmt..Display$GT$3fmt17h063c02f311f84f6fE', symObjAddr: 0x22BC0, symBinAddr: 0x43460, symSize: 0x460 }
  - { offset: 0xE62A9, size: 0x8, addend: 0x0, symName: '__ZN66_$LT$proc_macro..Literal$u20$as$u20$core..str..traits..FromStr$GT$8from_str17hba0b8a0fbff77826E', symObjAddr: 0x23250, symBinAddr: 0x43950, symSize: 0x5F0 }
  - { offset: 0xE688C, size: 0x8, addend: 0x0, symName: '__ZN70_$LT$proc_macro..TokenStream$u20$as$u20$core..str..traits..FromStr$GT$8from_str17h2e2a8b990b9e6966E', symObjAddr: 0x23D50, symBinAddr: 0x43F40, symSize: 0x4E0 }
  - { offset: 0xE6D4C, size: 0x8, addend: 0x0, symName: '__ZN92_$LT$proc_macro..TokenStream$u20$as$u20$core..convert..From$LT$proc_macro..TokenTree$GT$$GT$4from17hb23dd02db9ad23d9E', symObjAddr: 0x25510, symBinAddr: 0x44970, symSize: 0x410 }
  - { offset: 0xE7ADD, size: 0x8, addend: 0x0, symName: '__ZN4core3ptr103drop_in_place$LT$proc_macro..bridge..client..TokenStream..concat_trees..$u7b$$u7b$closure$u7d$$u7d$$GT$17h02627110e7a860c9E', symObjAddr: 0x1FA60, symBinAddr: 0x42AF0, symSize: 0x60 }
  - { offset: 0xE7CD1, size: 0x8, addend: 0x0, symName: '__ZN4core3ptr131drop_in_place$LT$proc_macro..bridge..client..maybe_install_panic_hook..$u7b$$u7b$closure$u7d$$u7d$..$u7b$$u7b$closure$u7d$$u7d$$GT$17hf44dc7d0da987595E', symObjAddr: 0x1FBA0, symBinAddr: 0x42B50, symSize: 0x70 }
  - { offset: 0xE7DE6, size: 0x8, addend: 0x0, symName: '__ZN4core3ptr192drop_in_place$LT$alloc..vec..Vec$LT$proc_macro..bridge..TokenTree$LT$proc_macro..bridge..client..TokenStream$C$proc_macro..bridge..client..Span$C$proc_macro..bridge..symbol..Symbol$GT$$GT$$GT$17hf3328f62cc3a4335E', symObjAddr: 0x1FD10, symBinAddr: 0x42BC0, symSize: 0x110 }
  - { offset: 0xE8136, size: 0x8, addend: 0x0, symName: '__ZN4core3ptr208drop_in_place$LT$alloc..vec..into_iter..IntoIter$LT$proc_macro..bridge..TokenTree$LT$proc_macro..bridge..client..TokenStream$C$proc_macro..bridge..client..Span$C$proc_macro..bridge..symbol..Symbol$GT$$GT$$GT$17h51180449b6f3d1f6E', symObjAddr: 0x1FE20, symBinAddr: 0x42CD0, symSize: 0x120 }
  - { offset: 0xE8515, size: 0x8, addend: 0x0, symName: '__ZN4core3ptr42drop_in_place$LT$alloc..string..String$GT$17h775a4877fabc8dadE', symObjAddr: 0x1FF40, symBinAddr: 0x42DF0, symSize: 0x20 }
  - { offset: 0xE85A2, size: 0x8, addend: 0x0, symName: '__ZN4core3ptr46drop_in_place$LT$alloc..vec..Vec$LT$u8$GT$$GT$17ha92156de904a6d7bE', symObjAddr: 0x1FFB0, symBinAddr: 0x42E10, symSize: 0x20 }
  - { offset: 0xE869B, size: 0x8, addend: 0x0, symName: '__ZN4core3ptr84drop_in_place$LT$core..cell..RefCell$LT$proc_macro..bridge..symbol..Interner$GT$$GT$17h36fdcf97b4e2d6f0E', symObjAddr: 0x20350, symBinAddr: 0x42E30, symSize: 0xD0 }
  - { offset: 0xE89BA, size: 0x8, addend: 0x0, symName: '__ZN4core3ptr91drop_in_place$LT$alloc..boxed..Box$LT$dyn$u20$core..any..Any$u2b$core..marker..Send$GT$$GT$17hf4ede311b0456381E', symObjAddr: 0x204D0, symBinAddr: 0x42F00, symSize: 0x70 }
  - { offset: 0xE93AF, size: 0x8, addend: 0x0, symName: '__ZN4core3ops8function6FnOnce40call_once$u7b$$u7b$vtable.shim$u7d$$u7d$17h444f4e33603225acE', symObjAddr: 0x1F770, symBinAddr: 0x42980, symSize: 0xC0 }
  - { offset: 0xE95B6, size: 0x8, addend: 0x0, symName: '__ZN4core3ops8function6FnOnce40call_once$u7b$$u7b$vtable.shim$u7d$$u7d$17hf4eb035b18f4544cE', symObjAddr: 0x1F830, symBinAddr: 0x42A40, symSize: 0xB0 }
  - { offset: 0xE99F5, size: 0x8, addend: 0x0, symName: '__ZN63_$LT$core..cell..BorrowMutError$u20$as$u20$core..fmt..Debug$GT$3fmt17hbf4bd7fd14196292E', symObjAddr: 0x23020, symBinAddr: 0x438C0, symSize: 0x20 }
  - { offset: 0xE9D8D, size: 0x8, addend: 0x0, symName: '__ZN44_$LT$$RF$T$u20$as$u20$core..fmt..Display$GT$3fmt17h83c29917fc11ea17E', symObjAddr: 0x1F6D0, symBinAddr: 0x42930, symSize: 0x20 }
  - { offset: 0xE9DAE, size: 0x8, addend: 0x0, symName: '__ZN42_$LT$$RF$T$u20$as$u20$core..fmt..Debug$GT$3fmt17h9f9aba1550e0dc97E', symObjAddr: 0x1F540, symBinAddr: 0x42880, symSize: 0x30 }
  - { offset: 0xE9DF4, size: 0x8, addend: 0x0, symName: '__ZN42_$LT$$RF$T$u20$as$u20$core..fmt..Debug$GT$3fmt17hcdf8d7af4b2129bfE', symObjAddr: 0x1F570, symBinAddr: 0x428B0, symSize: 0x60 }
  - { offset: 0xE9E1E, size: 0x8, addend: 0x0, symName: '__ZN42_$LT$$RF$T$u20$as$u20$core..fmt..Debug$GT$3fmt17hf1e3c9a12f803514E', symObjAddr: 0x1F5D0, symBinAddr: 0x42910, symSize: 0x20 }
  - { offset: 0xE9E57, size: 0x8, addend: 0x0, symName: '__ZN4core3fmt3num52_$LT$impl$u20$core..fmt..Debug$u20$for$u20$usize$GT$3fmt17h4806199c82f902ceE', symObjAddr: 0x1F6F0, symBinAddr: 0x42950, symSize: 0x30 }
  - { offset: 0xE9F66, size: 0x8, addend: 0x0, symName: '__ZN64_$LT$core..str..error..Utf8Error$u20$as$u20$core..fmt..Debug$GT$3fmt17hea00a6f0d3919a35E', symObjAddr: 0x23040, symBinAddr: 0x438E0, symSize: 0x70 }
  - { offset: 0xEA2C9, size: 0x8, addend: 0x0, symName: '__ZN36_$LT$T$u20$as$u20$core..any..Any$GT$7type_id17h9d0800d098a11807E', symObjAddr: 0x1F250, symBinAddr: 0x42720, symSize: 0x30 }
  - { offset: 0xEA2F8, size: 0x8, addend: 0x0, symName: '__ZN36_$LT$T$u20$as$u20$core..any..Any$GT$7type_id17ha4c22623c15a5176E', symObjAddr: 0x1F280, symBinAddr: 0x42750, symSize: 0x30 }
  - { offset: 0xEA327, size: 0x8, addend: 0x0, symName: '__ZN36_$LT$T$u20$as$u20$core..any..Any$GT$7type_id17hf66eb08084247317E', symObjAddr: 0x1F2B0, symBinAddr: 0x42780, symSize: 0x30 }
  - { offset: 0xEA601, size: 0x8, addend: 0x0, symName: '__ZN5alloc7raw_vec19RawVec$LT$T$C$A$GT$8grow_one17hdd7d8749705d506fE', symObjAddr: 0x22680, symBinAddr: 0x432C0, symSize: 0xC0 }
  - { offset: 0xEA717, size: 0x8, addend: 0x0, symName: '__ZN5alloc7raw_vec19RawVec$LT$T$C$A$GT$8grow_one17he86eef8c8419129dE', symObjAddr: 0x22740, symBinAddr: 0x43380, symSize: 0xC0 }
  - { offset: 0xEA85F, size: 0x8, addend: 0x0, symName: __ZN5alloc7raw_vec11finish_grow17h7953c9aa831e2cb5E, symObjAddr: 0x22490, symBinAddr: 0x7DFE0, symSize: 0x70 }
  - { offset: 0xEA8EC, size: 0x8, addend: 0x0, symName: '__ZN5alloc7raw_vec20RawVecInner$LT$A$GT$7reserve21do_reserve_and_handle17h06b6efbb55255c82E', symObjAddr: 0x22800, symBinAddr: 0x7E050, symSize: 0xB0 }
  - { offset: 0xEAEE8, size: 0x8, addend: 0x0, symName: '__ZN60_$LT$alloc..string..String$u20$as$u20$core..fmt..Display$GT$3fmt17h3ce6768c6f20d89dE', symObjAddr: 0x228B0, symBinAddr: 0x43440, symSize: 0x20 }
  - { offset: 0xEB375, size: 0x8, addend: 0x0, symName: '__ZN3std3sys12thread_local6native4lazy20Storage$LT$T$C$D$GT$16get_or_init_slow17hdaffd25f2289a7bdE', symObjAddr: 0x1F2E0, symBinAddr: 0x7DE60, symSize: 0x180 }
  - { offset: 0xEB4CB, size: 0x8, addend: 0x0, symName: __ZN3std3sys12thread_local6native4lazy7destroy17h13a45acde78ce680E, symObjAddr: 0x1F460, symBinAddr: 0x427B0, symSize: 0x20 }
  - { offset: 0xEB58B, size: 0x8, addend: 0x0, symName: '__ZN3std4sync6poison4once4Once9call_once28_$u7b$$u7b$closure$u7d$$u7d$17h1893f8be3876b285E', symObjAddr: 0x1F480, symBinAddr: 0x427D0, symSize: 0xB0 }
  - { offset: 0xEB72F, size: 0x8, addend: 0x0, symName: '__ZN9hashbrown3raw21RawTable$LT$T$C$A$GT$14reserve_rehash17h9e13de7df797533aE', symObjAddr: 0x26F40, symBinAddr: 0x7E100, symSize: 0x8B0 }
  - { offset: 0xED313, size: 0x8, addend: 0x0, symName: __RNvCskdKJRKLKjqM_7___rustc10rust_panic, symObjAddr: 0x0, symBinAddr: 0x7E9B0, symSize: 0x70 }
  - { offset: 0xED5CC, size: 0x8, addend: 0x0, symName: '__ZN42_$LT$$RF$T$u20$as$u20$core..fmt..Debug$GT$3fmt17h611062ea6589b381E', symObjAddr: 0x27920, symBinAddr: 0x53810, symSize: 0x30 }
  - { offset: 0xED612, size: 0x8, addend: 0x0, symName: '__ZN42_$LT$$RF$T$u20$as$u20$core..fmt..Debug$GT$3fmt17h67462dcd352e9f70E', symObjAddr: 0x27A20, symBinAddr: 0x53840, symSize: 0x30 }
  - { offset: 0xED658, size: 0x8, addend: 0x0, symName: '__ZN42_$LT$$RF$T$u20$as$u20$core..fmt..Debug$GT$3fmt17ha3f9e4fd80ade547E', symObjAddr: 0x27D30, symBinAddr: 0x53870, symSize: 0x20 }
  - { offset: 0xED66C, size: 0x8, addend: 0x0, symName: '__ZN42_$LT$$RF$T$u20$as$u20$core..fmt..Debug$GT$3fmt17hd6b383e11abcf534E', symObjAddr: 0x27FB0, symBinAddr: 0x53890, symSize: 0x20 }
  - { offset: 0xED69D, size: 0x8, addend: 0x0, symName: '__ZN42_$LT$$RF$T$u20$as$u20$core..fmt..Debug$GT$3fmt17hedcae28885211270E', symObjAddr: 0x28060, symBinAddr: 0x538B0, symSize: 0x80 }
  - { offset: 0xED7C1, size: 0x8, addend: 0x0, symName: '__ZN44_$LT$$RF$T$u20$as$u20$core..fmt..Display$GT$3fmt17h2befab159451fc05E', symObjAddr: 0x28130, symBinAddr: 0x53930, symSize: 0x20 }
  - { offset: 0xED7DC, size: 0x8, addend: 0x0, symName: '__ZN44_$LT$$RF$T$u20$as$u20$core..fmt..Display$GT$3fmt17had011a6e3beb8b51E', symObjAddr: 0x28150, symBinAddr: 0x53950, symSize: 0x90 }
  - { offset: 0xED886, size: 0x8, addend: 0x0, symName: '__ZN4core3fmt3num50_$LT$impl$u20$core..fmt..Debug$u20$for$u20$i32$GT$3fmt17h0317b62489790191E', symObjAddr: 0x284D0, symBinAddr: 0x539E0, symSize: 0x30 }
  - { offset: 0xED8B5, size: 0x8, addend: 0x0, symName: '__ZN4core3fmt3num52_$LT$impl$u20$core..fmt..Debug$u20$for$u20$usize$GT$3fmt17h4806199c82f902ceE', symObjAddr: 0x28590, symBinAddr: 0x53A10, symSize: 0x30 }
  - { offset: 0xED906, size: 0x8, addend: 0x0, symName: __ZN4core3fmt5Write10write_char17h2203fddc9d642afeE, symObjAddr: 0x285C0, symBinAddr: 0x53A40, symSize: 0xF0 }
  - { offset: 0xEDA4D, size: 0x8, addend: 0x0, symName: __ZN4core3fmt5Write10write_char17hc46b6f7c3c3194cbE, symObjAddr: 0x288F0, symBinAddr: 0x53B30, symSize: 0x130 }
  - { offset: 0xEDBEF, size: 0x8, addend: 0x0, symName: __ZN4core3fmt5Write10write_char17hdac7d1ed87bd809bE, symObjAddr: 0x28B00, symBinAddr: 0x53C60, symSize: 0x160 }
  - { offset: 0xEDD95, size: 0x8, addend: 0x0, symName: __ZN4core3fmt5Write9write_fmt17hd3928726ab1abb27E, symObjAddr: 0x28D00, symBinAddr: 0x53DC0, symSize: 0x50 }
  - { offset: 0xEDDC4, size: 0x8, addend: 0x0, symName: __ZN4core3fmt5Write9write_fmt17he408d8c37cd4c2c5E, symObjAddr: 0x28DA0, symBinAddr: 0x53E10, symSize: 0x50 }
  - { offset: 0xEDDF3, size: 0x8, addend: 0x0, symName: __ZN4core3fmt5Write9write_fmt17hec70cb0fc9ef19e4E, symObjAddr: 0x28DF0, symBinAddr: 0x53E60, symSize: 0x50 }
  - { offset: 0xEDE22, size: 0x8, addend: 0x0, symName: __ZN4core3fmt5Write9write_fmt17hfbfca6c33e82dca5E, symObjAddr: 0x28E40, symBinAddr: 0x53EB0, symSize: 0x50 }
  - { offset: 0xEDE7F, size: 0x8, addend: 0x0, symName: '__ZN50_$LT$$BP$mut$u20$T$u20$as$u20$core..fmt..Debug$GT$3fmt17h461ef72b23c2334dE', symObjAddr: 0x3AB30, symBinAddr: 0x60470, symSize: 0x10 }
  - { offset: 0xEDECC, size: 0x8, addend: 0x0, symName: '__ZN52_$LT$$RF$mut$u20$T$u20$as$u20$core..fmt..Display$GT$3fmt17he99623082ea1fa3dE', symObjAddr: 0x3B1B0, symBinAddr: 0x60480, symSize: 0x20 }
  - { offset: 0xEFD8C, size: 0x8, addend: 0x0, symName: '__ZN4core3ptr107drop_in_place$LT$core..pin..Pin$LT$alloc..boxed..Box$LT$std..sys..pal..unix..sync..mutex..Mutex$GT$$GT$$GT$17he4bee0bcfb03f75fE', symObjAddr: 0x294F0, symBinAddr: 0x54000, symSize: 0x30 }
  - { offset: 0xEFE23, size: 0x8, addend: 0x0, symName: '__ZN4core3ptr109drop_in_place$LT$alloc..sync..Arc$LT$std..sync..poison..mutex..Mutex$LT$alloc..vec..Vec$LT$u8$GT$$GT$$GT$$GT$17he5b3c9d5553080edE', symObjAddr: 0x29520, symBinAddr: 0x54030, symSize: 0x20 }
  - { offset: 0xEFEA4, size: 0x8, addend: 0x0, symName: '__ZN4core3ptr119drop_in_place$LT$std..io..default_write_fmt..Adapter$LT$std..io..cursor..Cursor$LT$$RF$mut$u20$$u5b$u8$u5d$$GT$$GT$$GT$17h8ef58680b6ede286E', symObjAddr: 0x295C0, symBinAddr: 0x54050, symSize: 0x20 }
  - { offset: 0xEFEC7, size: 0x8, addend: 0x0, symName: '__ZN4core3ptr123drop_in_place$LT$addr2line..Context$LT$gimli..read..endian_slice..EndianSlice$LT$gimli..endianity..LittleEndian$GT$$GT$$GT$17h4096ebf47a84add1E', symObjAddr: 0x295E0, symBinAddr: 0x54070, symSize: 0x60 }
  - { offset: 0xEFF6C, size: 0x8, addend: 0x0, symName: '__ZN4core3ptr128drop_in_place$LT$core..result..Result$LT$$RF$std..thread..Thread$C$$LP$$RF$std..thread..Thread$C$std..thread..Thread$RP$$GT$$GT$17h5b35dce14f68d27eE', symObjAddr: 0x29640, symBinAddr: 0x540D0, symSize: 0x20 }
  - { offset: 0xF008E, size: 0x8, addend: 0x0, symName: '__ZN4core3ptr129drop_in_place$LT$addr2line..unit..ResUnit$LT$gimli..read..endian_slice..EndianSlice$LT$gimli..endianity..LittleEndian$GT$$GT$$GT$17h5b41b59ec8c6acd1E', symObjAddr: 0x29660, symBinAddr: 0x540F0, symSize: 0x100 }
  - { offset: 0xF029C, size: 0x8, addend: 0x0, symName: '__ZN4core3ptr129drop_in_place$LT$addr2line..unit..SupUnit$LT$gimli..read..endian_slice..EndianSlice$LT$gimli..endianity..LittleEndian$GT$$GT$$GT$17h7745e598093ea497E', symObjAddr: 0x29760, symBinAddr: 0x541F0, symSize: 0x50 }
  - { offset: 0xF0347, size: 0x8, addend: 0x0, symName: '__ZN4core3ptr130drop_in_place$LT$addr2line..unit..ResUnits$LT$gimli..read..endian_slice..EndianSlice$LT$gimli..endianity..LittleEndian$GT$$GT$$GT$17h8ac001c378159224E', symObjAddr: 0x297B0, symBinAddr: 0x54240, symSize: 0xE0 }
  - { offset: 0xF04F0, size: 0x8, addend: 0x0, symName: '__ZN4core3ptr130drop_in_place$LT$addr2line..unit..SupUnits$LT$gimli..read..endian_slice..EndianSlice$LT$gimli..endianity..LittleEndian$GT$$GT$$GT$17hf4d4e85b8cf1677eE', symObjAddr: 0x29890, symBinAddr: 0x54320, symSize: 0xE0 }
  - { offset: 0xF068C, size: 0x8, addend: 0x0, symName: '__ZN4core3ptr130drop_in_place$LT$gimli..read..dwarf..Dwarf$LT$gimli..read..endian_slice..EndianSlice$LT$gimli..endianity..LittleEndian$GT$$GT$$GT$17h00351692336cc8a5E', symObjAddr: 0x29970, symBinAddr: 0x54400, symSize: 0x60 }
  - { offset: 0xF06F6, size: 0x8, addend: 0x0, symName: '__ZN4core3ptr131drop_in_place$LT$$u5b$core..option..Option$LT$core..option..Option$LT$std..backtrace_rs..symbolize..gimli..Mapping$GT$$GT$$u5d$$GT$17h5e49fcba991e0fefE', symObjAddr: 0x299D0, symBinAddr: 0x54460, symSize: 0xE0 }
  - { offset: 0xF07A0, size: 0x8, addend: 0x0, symName: '__ZN4core3ptr131drop_in_place$LT$alloc..boxed..Box$LT$dyn$u20$core..ops..function..FnOnce$LT$$LP$$RP$$GT$$u2b$Output$u20$$u3d$$u20$$LP$$RP$$GT$$GT$17h34dfa6de81a90f60E', symObjAddr: 0x29AB0, symBinAddr: 0x54540, symSize: 0x70 }
  - { offset: 0xF088B, size: 0x8, addend: 0x0, symName: '__ZN4core3ptr137drop_in_place$LT$gimli..read..dwarf..Unit$LT$gimli..read..endian_slice..EndianSlice$LT$gimli..endianity..LittleEndian$GT$$C$usize$GT$$GT$17h8a3dedf63945c7ffE', symObjAddr: 0x29B20, symBinAddr: 0x545B0, symSize: 0x50 }
  - { offset: 0xF0974, size: 0x8, addend: 0x0, symName: '__ZN4core3ptr138drop_in_place$LT$addr2line..function..LazyFunction$LT$gimli..read..endian_slice..EndianSlice$LT$gimli..endianity..LittleEndian$GT$$GT$$GT$17h0f8e66548b648d63E', symObjAddr: 0x29B70, symBinAddr: 0x54600, symSize: 0x60 }
  - { offset: 0xF098B, size: 0x8, addend: 0x0, symName: '__ZN4core3ptr138drop_in_place$LT$addr2line..function..LazyFunction$LT$gimli..read..endian_slice..EndianSlice$LT$gimli..endianity..LittleEndian$GT$$GT$$GT$17h0f8e66548b648d63E', symObjAddr: 0x29B70, symBinAddr: 0x54600, symSize: 0x60 }
  - { offset: 0xF09A0, size: 0x8, addend: 0x0, symName: '__ZN4core3ptr138drop_in_place$LT$addr2line..function..LazyFunction$LT$gimli..read..endian_slice..EndianSlice$LT$gimli..endianity..LittleEndian$GT$$GT$$GT$17h0f8e66548b648d63E', symObjAddr: 0x29B70, symBinAddr: 0x54600, symSize: 0x60 }
  - { offset: 0xF09B5, size: 0x8, addend: 0x0, symName: '__ZN4core3ptr138drop_in_place$LT$addr2line..function..LazyFunction$LT$gimli..read..endian_slice..EndianSlice$LT$gimli..endianity..LittleEndian$GT$$GT$$GT$17h0f8e66548b648d63E', symObjAddr: 0x29B70, symBinAddr: 0x54600, symSize: 0x60 }
  - { offset: 0xF0AE9, size: 0x8, addend: 0x0, symName: '__ZN4core3ptr144drop_in_place$LT$alloc..vec..Vec$LT$core..option..Option$LT$core..option..Option$LT$std..backtrace_rs..symbolize..gimli..Mapping$GT$$GT$$GT$$GT$17hd133ee3f082661a3E', symObjAddr: 0x29BD0, symBinAddr: 0x54660, symSize: 0x80 }
  - { offset: 0xF0C43, size: 0x8, addend: 0x0, symName: '__ZN4core3ptr152drop_in_place$LT$alloc..vec..Vec$LT$addr2line..unit..ResUnit$LT$gimli..read..endian_slice..EndianSlice$LT$gimli..endianity..LittleEndian$GT$$GT$$GT$$GT$17h687eea1ef8e4dccbE', symObjAddr: 0x29D40, symBinAddr: 0x546E0, symSize: 0xD0 }
  - { offset: 0xF0DB2, size: 0x8, addend: 0x0, symName: '__ZN4core3ptr152drop_in_place$LT$alloc..vec..Vec$LT$addr2line..unit..SupUnit$LT$gimli..read..endian_slice..EndianSlice$LT$gimli..endianity..LittleEndian$GT$$GT$$GT$$GT$17h43b55f1c1ec40770E', symObjAddr: 0x29E10, symBinAddr: 0x547B0, symSize: 0x100 }
  - { offset: 0xF0FB6, size: 0x8, addend: 0x0, symName: '__ZN4core3ptr156drop_in_place$LT$alloc..boxed..Box$LT$$u5b$core..option..Option$LT$core..option..Option$LT$std..backtrace_rs..symbolize..gimli..Mapping$GT$$GT$$u5d$$GT$$GT$17h64285ccbe01a68bbE', symObjAddr: 0x29F10, symBinAddr: 0x548B0, symSize: 0xF0 }
  - { offset: 0xF10E0, size: 0x8, addend: 0x0, symName: '__ZN4core3ptr159drop_in_place$LT$alloc..sync..ArcInner$LT$gimli..read..dwarf..Dwarf$LT$gimli..read..endian_slice..EndianSlice$LT$gimli..endianity..LittleEndian$GT$$GT$$GT$$GT$17ha7d070261ff0f422E', symObjAddr: 0x2A0A0, symBinAddr: 0x549A0, symSize: 0x60 }
  - { offset: 0xF1191, size: 0x8, addend: 0x0, symName: '__ZN4core3ptr161drop_in_place$LT$alloc..vec..Vec$LT$addr2line..function..LazyFunction$LT$gimli..read..endian_slice..EndianSlice$LT$gimli..endianity..LittleEndian$GT$$GT$$GT$$GT$17h224d020c77f1c5c5E', symObjAddr: 0x2A100, symBinAddr: 0x54A00, symSize: 0xC0 }
  - { offset: 0xF13CE, size: 0x8, addend: 0x0, symName: '__ZN4core3ptr172drop_in_place$LT$core..result..Result$LT$addr2line..Context$LT$gimli..read..endian_slice..EndianSlice$LT$gimli..endianity..LittleEndian$GT$$GT$$C$gimli..read..Error$GT$$GT$17h9689e9d3357a2b29E', symObjAddr: 0x2A270, symBinAddr: 0x54AC0, symSize: 0x70 }
  - { offset: 0xF144F, size: 0x8, addend: 0x0, symName: '__ZN4core3ptr173drop_in_place$LT$alloc..boxed..Box$LT$$u5b$addr2line..function..LazyFunction$LT$gimli..read..endian_slice..EndianSlice$LT$gimli..endianity..LittleEndian$GT$$GT$$u5d$$GT$$GT$17h854691247aa87af0E', symObjAddr: 0x2A2E0, symBinAddr: 0x54B30, symSize: 0xA0 }
  - { offset: 0xF1466, size: 0x8, addend: 0x0, symName: '__ZN4core3ptr173drop_in_place$LT$alloc..boxed..Box$LT$$u5b$addr2line..function..LazyFunction$LT$gimli..read..endian_slice..EndianSlice$LT$gimli..endianity..LittleEndian$GT$$GT$$u5d$$GT$$GT$17h854691247aa87af0E', symObjAddr: 0x2A2E0, symBinAddr: 0x54B30, symSize: 0xA0 }
  - { offset: 0xF163B, size: 0x8, addend: 0x0, symName: '__ZN4core3ptr181drop_in_place$LT$core..option..Option$LT$gimli..read..line..IncompleteLineProgram$LT$gimli..read..endian_slice..EndianSlice$LT$gimli..endianity..LittleEndian$GT$$C$usize$GT$$GT$$GT$17ha2da1af52ac50966E', symObjAddr: 0x2A3F0, symBinAddr: 0x54BD0, symSize: 0xA0 }
  - { offset: 0xF1894, size: 0x8, addend: 0x0, symName: '__ZN4core3ptr181drop_in_place$LT$core..result..Result$LT$addr2line..frame..FrameIter$LT$gimli..read..endian_slice..EndianSlice$LT$gimli..endianity..LittleEndian$GT$$GT$$C$gimli..read..Error$GT$$GT$17hb41a886cf8fb4359E', symObjAddr: 0x2A490, symBinAddr: 0x54C70, symSize: 0x40 }
  - { offset: 0xF19D2, size: 0x8, addend: 0x0, symName: '__ZN4core3ptr184drop_in_place$LT$core..result..Result$LT$addr2line..function..Functions$LT$gimli..read..endian_slice..EndianSlice$LT$gimli..endianity..LittleEndian$GT$$GT$$C$gimli..read..Error$GT$$GT$17h16817f6f8b785913E', symObjAddr: 0x2A4D0, symBinAddr: 0x54CB0, symSize: 0xE0 }
  - { offset: 0xF1C8C, size: 0x8, addend: 0x0, symName: '__ZN4core3ptr231drop_in_place$LT$core..result..Result$LT$core..option..Option$LT$alloc..boxed..Box$LT$addr2line..unit..DwoUnit$LT$gimli..read..endian_slice..EndianSlice$LT$gimli..endianity..LittleEndian$GT$$GT$$GT$$GT$$C$gimli..read..Error$GT$$GT$17h77faee68108766d7E', symObjAddr: 0x2A670, symBinAddr: 0x54D90, symSize: 0xB0 }
  - { offset: 0xF1E56, size: 0x8, addend: 0x0, symName: '__ZN4core3ptr238drop_in_place$LT$alloc..boxed..convert..$LT$impl$u20$core..convert..From$LT$alloc..string..String$GT$$u20$for$u20$alloc..boxed..Box$LT$dyn$u20$core..error..Error$u2b$core..marker..Sync$u2b$core..marker..Send$GT$$GT$..from..StringError$GT$17h77c71369405e109cE', symObjAddr: 0x2A720, symBinAddr: 0x54E40, symSize: 0x20 }
  - { offset: 0xF1F01, size: 0x8, addend: 0x0, symName: '__ZN4core3ptr275drop_in_place$LT$gimli..read..line..LineRows$LT$gimli..read..endian_slice..EndianSlice$LT$gimli..endianity..LittleEndian$GT$$C$gimli..read..line..IncompleteLineProgram$LT$gimli..read..endian_slice..EndianSlice$LT$gimli..endianity..LittleEndian$GT$$C$usize$GT$$C$usize$GT$$GT$17hadd9cd2441f7544fE', symObjAddr: 0x2A740, symBinAddr: 0x54E60, symSize: 0xA0 }
  - { offset: 0xF2176, size: 0x8, addend: 0x0, symName: '__ZN4core3ptr280drop_in_place$LT$$LT$alloc..collections..btree..map..IntoIter$LT$K$C$V$C$A$GT$$u20$as$u20$core..ops..drop..Drop$GT$..drop..DropGuard$LT$u64$C$core..result..Result$LT$alloc..sync..Arc$LT$gimli..read..abbrev..Abbreviations$GT$$C$gimli..read..Error$GT$$C$alloc..alloc..Global$GT$$GT$17h12b50f4912f8d053E', symObjAddr: 0x2A7E0, symBinAddr: 0x54F00, symSize: 0x80 }
  - { offset: 0xF22A2, size: 0x8, addend: 0x0, symName: '__ZN4core3ptr284drop_in_place$LT$core..result..Result$LT$$RF$core..result..Result$LT$addr2line..line..Lines$C$gimli..read..Error$GT$$C$$LP$$RF$core..result..Result$LT$addr2line..line..Lines$C$gimli..read..Error$GT$$C$core..result..Result$LT$addr2line..line..Lines$C$gimli..read..Error$GT$$RP$$GT$$GT$17h10f406cda706aac9E', symObjAddr: 0x2A860, symBinAddr: 0x54F80, symSize: 0x20 }
  - { offset: 0xF22D3, size: 0x8, addend: 0x0, symName: '__ZN4core3ptr41drop_in_place$LT$std..panicking..Hook$GT$17hfd140d835b55425bE', symObjAddr: 0x2A9B0, symBinAddr: 0x54FA0, symSize: 0x70 }
  - { offset: 0xF23CC, size: 0x8, addend: 0x0, symName: '__ZN4core3ptr42drop_in_place$LT$alloc..string..String$GT$17h13a2c872d6de9b78E', symObjAddr: 0x2AA20, symBinAddr: 0x55010, symSize: 0x20 }
  - { offset: 0xF2461, size: 0x8, addend: 0x0, symName: '__ZN4core3ptr42drop_in_place$LT$std..io..error..Error$GT$17hf3cc5d9531ccf1c0E', symObjAddr: 0x2AA40, symBinAddr: 0x55030, symSize: 0xA0 }
  - { offset: 0xF267F, size: 0x8, addend: 0x0, symName: '__ZN4core3ptr44drop_in_place$LT$object..read..ObjectMap$GT$17h9dfc9bd6f6ee5a53E', symObjAddr: 0x2AAE0, symBinAddr: 0x550D0, symSize: 0x50 }
  - { offset: 0xF27AE, size: 0x8, addend: 0x0, symName: '__ZN4core3ptr46drop_in_place$LT$alloc..vec..Vec$LT$u8$GT$$GT$17h50cadf63df0efd66E', symObjAddr: 0x2AB90, symBinAddr: 0x55120, symSize: 0x20 }
  - { offset: 0xF282D, size: 0x8, addend: 0x0, symName: '__ZN4core3ptr46drop_in_place$LT$std..io..stdio..StdinLock$GT$17h859807256c432efeE', symObjAddr: 0x2ABB0, symBinAddr: 0x55140, symSize: 0x50 }
  - { offset: 0xF2844, size: 0x8, addend: 0x0, symName: '__ZN4core3ptr46drop_in_place$LT$std..io..stdio..StdinLock$GT$17h859807256c432efeE', symObjAddr: 0x2ABB0, symBinAddr: 0x55140, symSize: 0x50 }
  - { offset: 0xF2859, size: 0x8, addend: 0x0, symName: '__ZN4core3ptr46drop_in_place$LT$std..io..stdio..StdinLock$GT$17h859807256c432efeE', symObjAddr: 0x2ABB0, symBinAddr: 0x55140, symSize: 0x50 }
  - { offset: 0xF293D, size: 0x8, addend: 0x0, symName: '__ZN4core3ptr48drop_in_place$LT$alloc..ffi..c_str..NulError$GT$17h05fdddfd5dec9957E', symObjAddr: 0x2AD00, symBinAddr: 0x55190, symSize: 0x20 }
  - { offset: 0xF29E0, size: 0x8, addend: 0x0, symName: '__ZN4core3ptr557drop_in_place$LT$core..result..Result$LT$$RF$core..result..Result$LT$addr2line..function..Function$LT$gimli..read..endian_slice..EndianSlice$LT$gimli..endianity..LittleEndian$GT$$GT$$C$gimli..read..Error$GT$$C$$LP$$RF$core..result..Result$LT$addr2line..function..Function$LT$gimli..read..endian_slice..EndianSlice$LT$gimli..endianity..LittleEndian$GT$$GT$$C$gimli..read..Error$GT$$C$core..result..Result$LT$addr2line..function..Function$LT$gimli..read..endian_slice..EndianSlice$LT$gimli..endianity..LittleEndian$GT$$GT$$C$gimli..read..Error$GT$$RP$$GT$$GT$17hc44de9d152e84349E', symObjAddr: 0x2AFE0, symBinAddr: 0x551B0, symSize: 0x60 }
  - { offset: 0xF2BCA, size: 0x8, addend: 0x0, symName: '__ZN4core3ptr55drop_in_place$LT$gimli..read..abbrev..Abbreviations$GT$17h650fa2a70ecf9e05E', symObjAddr: 0x2B040, symBinAddr: 0x55210, symSize: 0x130 }
  - { offset: 0xF2F13, size: 0x8, addend: 0x0, symName: '__ZN4core3ptr560drop_in_place$LT$core..result..Result$LT$$RF$core..result..Result$LT$addr2line..function..Functions$LT$gimli..read..endian_slice..EndianSlice$LT$gimli..endianity..LittleEndian$GT$$GT$$C$gimli..read..Error$GT$$C$$LP$$RF$core..result..Result$LT$addr2line..function..Functions$LT$gimli..read..endian_slice..EndianSlice$LT$gimli..endianity..LittleEndian$GT$$GT$$C$gimli..read..Error$GT$$C$core..result..Result$LT$addr2line..function..Functions$LT$gimli..read..endian_slice..EndianSlice$LT$gimli..endianity..LittleEndian$GT$$GT$$C$gimli..read..Error$GT$$RP$$GT$$GT$17h6cf82f479787438aE', symObjAddr: 0x2B270, symBinAddr: 0x55340, symSize: 0x20 }
  - { offset: 0xF2F6E, size: 0x8, addend: 0x0, symName: '__ZN4core3ptr60drop_in_place$LT$gimli..read..abbrev..AbbreviationsCache$GT$17h8ea9413fce52b0aeE', symObjAddr: 0x2B290, symBinAddr: 0x55360, symSize: 0xE0 }
  - { offset: 0xF30D5, size: 0x8, addend: 0x0, symName: '__ZN4core3ptr61drop_in_place$LT$std..panicking..resume_unwind..RewrapBox$GT$17h476d69bd28bb5666E', symObjAddr: 0x2B370, symBinAddr: 0x55440, symSize: 0x70 }
  - { offset: 0xF31CE, size: 0x8, addend: 0x0, symName: '__ZN4core3ptr64drop_in_place$LT$std..sys..pal..unix..sync..mutex..AttrGuard$GT$17h07975ffc5879c9b3E', symObjAddr: 0x2B3E0, symBinAddr: 0x554B0, symSize: 0x40 }
  - { offset: 0xF320D, size: 0x8, addend: 0x0, symName: '__ZN4core3ptr65drop_in_place$LT$alloc..vec..Vec$LT$alloc..string..String$GT$$GT$17h7048242ed88ea37eE', symObjAddr: 0x2B4B0, symBinAddr: 0x554F0, symSize: 0x90 }
  - { offset: 0xF3373, size: 0x8, addend: 0x0, symName: '__ZN4core3ptr65drop_in_place$LT$std..backtrace_rs..symbolize..gimli..Context$GT$17hc7e1db2a9c32a85bE', symObjAddr: 0x2B540, symBinAddr: 0x55580, symSize: 0x100 }
  - { offset: 0xF35F1, size: 0x8, addend: 0x0, symName: '__ZN4core3ptr66drop_in_place$LT$std..backtrace_rs..backtrace..libunwind..Bomb$GT$17hd5948bcabaf539edE', symObjAddr: 0x2B640, symBinAddr: 0x55680, symSize: 0x50 }
  - { offset: 0xF363D, size: 0x8, addend: 0x0, symName: '__ZN4core3ptr701drop_in_place$LT$core..result..Result$LT$$RF$core..result..Result$LT$core..option..Option$LT$alloc..boxed..Box$LT$addr2line..unit..DwoUnit$LT$gimli..read..endian_slice..EndianSlice$LT$gimli..endianity..LittleEndian$GT$$GT$$GT$$GT$$C$gimli..read..Error$GT$$C$$LP$$RF$core..result..Result$LT$core..option..Option$LT$alloc..boxed..Box$LT$addr2line..unit..DwoUnit$LT$gimli..read..endian_slice..EndianSlice$LT$gimli..endianity..LittleEndian$GT$$GT$$GT$$GT$$C$gimli..read..Error$GT$$C$core..result..Result$LT$core..option..Option$LT$alloc..boxed..Box$LT$addr2line..unit..DwoUnit$LT$gimli..read..endian_slice..EndianSlice$LT$gimli..endianity..LittleEndian$GT$$GT$$GT$$GT$$C$gimli..read..Error$GT$$RP$$GT$$GT$17h4c871d662e9baba8E', symObjAddr: 0x2B690, symBinAddr: 0x556D0, symSize: 0x20 }
  - { offset: 0xF36DE, size: 0x8, addend: 0x0, symName: '__ZN4core3ptr70drop_in_place$LT$std..backtrace_rs..symbolize..gimli..stash..Stash$GT$17h9192affd8a73d22bE', symObjAddr: 0x2B6B0, symBinAddr: 0x556F0, symSize: 0xE0 }
  - { offset: 0xF3984, size: 0x8, addend: 0x0, symName: '__ZN4core3ptr71drop_in_place$LT$std..backtrace_rs..symbolize..gimli..macho..Object$GT$17he8bfbbbc576ba26bE', symObjAddr: 0x2B790, symBinAddr: 0x557D0, symSize: 0xD0 }
  - { offset: 0xF3C49, size: 0x8, addend: 0x0, symName: '__ZN4core3ptr71drop_in_place$LT$std..panicking..panic_handler..FormatStringPayload$GT$17he2832ae2b85e7af7E', symObjAddr: 0x2B860, symBinAddr: 0x558A0, symSize: 0x30 }
  - { offset: 0xF3D05, size: 0x8, addend: 0x0, symName: '__ZN4core3ptr72drop_in_place$LT$core..option..Option$LT$object..read..ObjectMap$GT$$GT$17hfcefd03af094224dE', symObjAddr: 0x2B890, symBinAddr: 0x558D0, symSize: 0x60 }
  - { offset: 0xF3E82, size: 0x8, addend: 0x0, symName: '__ZN4core3ptr73drop_in_place$LT$alloc..vec..Vec$LT$addr2line..line..LineSequence$GT$$GT$17ha6ada6d850d6bfd7E', symObjAddr: 0x2B8F0, symBinAddr: 0x55930, symSize: 0x90 }
  - { offset: 0xF3FDA, size: 0x8, addend: 0x0, symName: '__ZN4core3ptr77drop_in_place$LT$alloc..boxed..Box$LT$$u5b$alloc..string..String$u5d$$GT$$GT$17hb3442e265eb8e1dcE', symObjAddr: 0x2B9D0, symBinAddr: 0x559C0, symSize: 0x60 }
  - { offset: 0xF3FF1, size: 0x8, addend: 0x0, symName: '__ZN4core3ptr77drop_in_place$LT$alloc..boxed..Box$LT$$u5b$alloc..string..String$u5d$$GT$$GT$17hb3442e265eb8e1dcE', symObjAddr: 0x2B9D0, symBinAddr: 0x559C0, symSize: 0x60 }
  - { offset: 0xF40EF, size: 0x8, addend: 0x0, symName: '__ZN4core3ptr79drop_in_place$LT$std..sync..poison..rwlock..RwLockReadGuard$LT$$LP$$RP$$GT$$GT$17h4fa0e4fa5e15bd74E', symObjAddr: 0x2BA50, symBinAddr: 0x55A20, symSize: 0x50 }
  - { offset: 0xF418B, size: 0x8, addend: 0x0, symName: '__ZN4core3ptr81drop_in_place$LT$core..result..Result$LT$$LP$$RP$$C$std..io..error..Error$GT$$GT$17h1c1edd567460b3feE', symObjAddr: 0x2BB50, symBinAddr: 0x55A70, symSize: 0x20 }
  - { offset: 0xF41BB, size: 0x8, addend: 0x0, symName: '__ZN4core3ptr82drop_in_place$LT$alloc..sync..ArcInner$LT$std..sys..fs..unix..InnerReadDir$GT$$GT$17ha8fbff3aaada4fb8E', symObjAddr: 0x2BC40, symBinAddr: 0x55A90, symSize: 0x60 }
  - { offset: 0xF4388, size: 0x8, addend: 0x0, symName: '__ZN4core3ptr92drop_in_place$LT$core..result..Result$LT$addr2line..line..Lines$C$gimli..read..Error$GT$$GT$17h2e8e0626d3a84d8eE', symObjAddr: 0x2BDF0, symBinAddr: 0x55AF0, symSize: 0xE0 }
  - { offset: 0xF45CE, size: 0x8, addend: 0x0, symName: '__ZN4core3ptr93drop_in_place$LT$core..option..Option$LT$std..backtrace_rs..symbolize..gimli..Mapping$GT$$GT$17h136f8c1ae5619cc2E', symObjAddr: 0x2BED0, symBinAddr: 0x55BD0, symSize: 0x70 }
  - { offset: 0xF5E74, size: 0x8, addend: 0x0, symName: __ZN4core5panic12PanicPayload6as_str17h0a0af93859b241b1E, symObjAddr: 0x302B0, symBinAddr: 0x55CB0, symSize: 0x10 }
  - { offset: 0xF7946, size: 0x8, addend: 0x0, symName: __ZN4core5slice4sort8unstable7ipnsort17h2b4a537af7352546E, symObjAddr: 0x39850, symBinAddr: 0x5F250, symSize: 0x1A0 }
  - { offset: 0xF7BEE, size: 0x8, addend: 0x0, symName: __ZN4core5slice4sort8unstable7ipnsort17h52ef4485ec8e6977E, symObjAddr: 0x399F0, symBinAddr: 0x5F3F0, symSize: 0xE0 }
  - { offset: 0xF7DB0, size: 0x8, addend: 0x0, symName: __ZN4core5slice4sort8unstable8heapsort8heapsort17h4b4721c6bb82e1c1E, symObjAddr: 0x39AD0, symBinAddr: 0x5F4D0, symSize: 0x120 }
  - { offset: 0xF7FF6, size: 0x8, addend: 0x0, symName: __ZN4core5slice4sort8unstable8heapsort8heapsort17hab9566a01254ecddE, symObjAddr: 0x39BF0, symBinAddr: 0x5F5F0, symSize: 0x1D0 }
  - { offset: 0xF83A8, size: 0x8, addend: 0x0, symName: __ZN4core5slice4sort8unstable9quicksort9quicksort17h0b8d9e0f156a468cE, symObjAddr: 0x39DC0, symBinAddr: 0x5F7C0, symSize: 0x540 }
  - { offset: 0xF8C48, size: 0x8, addend: 0x0, symName: __ZN4core5slice4sort8unstable9quicksort9quicksort17h5a50d5c9a636cab4E, symObjAddr: 0x3A300, symBinAddr: 0x5FD00, symSize: 0x761 }
  - { offset: 0xF98AB, size: 0x8, addend: 0x0, symName: __ZN4core5slice4sort6stable14driftsort_main17h3220260173ca707fE, symObjAddr: 0x31FD0, symBinAddr: 0x579D0, symSize: 0x150 }
  - { offset: 0xF9B83, size: 0x8, addend: 0x0, symName: __ZN4core5slice4sort6stable14driftsort_main17h4699f0e78e45ec48E, symObjAddr: 0x32120, symBinAddr: 0x57B20, symSize: 0x150 }
  - { offset: 0xF9E5B, size: 0x8, addend: 0x0, symName: __ZN4core5slice4sort6stable14driftsort_main17h9e6c77f5f42fb271E, symObjAddr: 0x32270, symBinAddr: 0x57C70, symSize: 0x160 }
  - { offset: 0xFA189, size: 0x8, addend: 0x0, symName: __ZN4core5slice4sort6stable14driftsort_main17ha76b3f8bfe5161d7E, symObjAddr: 0x323D0, symBinAddr: 0x57DD0, symSize: 0x160 }
  - { offset: 0xFA4B7, size: 0x8, addend: 0x0, symName: __ZN4core5slice4sort6stable14driftsort_main17hdb3cc37e344db5cdE, symObjAddr: 0x32530, symBinAddr: 0x57F30, symSize: 0x150 }
  - { offset: 0xFA78F, size: 0x8, addend: 0x0, symName: __ZN4core5slice4sort6stable14driftsort_main17hf9b576397ab84e46E, symObjAddr: 0x32680, symBinAddr: 0x58080, symSize: 0x160 }
  - { offset: 0xFABF9, size: 0x8, addend: 0x0, symName: __ZN4core5slice4sort6stable5drift4sort17h0344cd1179273fdfE, symObjAddr: 0x327E0, symBinAddr: 0x581E0, symSize: 0x6E0 }
  - { offset: 0xFB3A1, size: 0x8, addend: 0x0, symName: __ZN4core5slice4sort6stable5drift4sort17h5d73a28370e736e7E, symObjAddr: 0x32EC0, symBinAddr: 0x588C0, symSize: 0x690 }
  - { offset: 0xFBB58, size: 0x8, addend: 0x0, symName: __ZN4core5slice4sort6stable5drift4sort17h7d35ffbcc89f38d4E, symObjAddr: 0x33550, symBinAddr: 0x58F50, symSize: 0x6D0 }
  - { offset: 0xFC315, size: 0x8, addend: 0x0, symName: __ZN4core5slice4sort6stable5drift4sort17h8e4dd7b37e0e34b5E, symObjAddr: 0x33C20, symBinAddr: 0x59620, symSize: 0x6E0 }
  - { offset: 0xFCAA7, size: 0x8, addend: 0x0, symName: __ZN4core5slice4sort6stable5drift4sort17hd3daeb0e07815f37E, symObjAddr: 0x34300, symBinAddr: 0x59D00, symSize: 0x690 }
  - { offset: 0xFD25E, size: 0x8, addend: 0x0, symName: __ZN4core5slice4sort6stable5drift4sort17hdee5488c31b7bf79E, symObjAddr: 0x34990, symBinAddr: 0x5A390, symSize: 0x6B0 }
  - { offset: 0xFDC9F, size: 0x8, addend: 0x0, symName: __ZN4core5slice4sort6stable9quicksort9quicksort17h49e735213ea776e8E, symObjAddr: 0x35040, symBinAddr: 0x5AA40, symSize: 0xC20 }
  - { offset: 0xFEA18, size: 0x8, addend: 0x0, symName: __ZN4core5slice4sort6stable9quicksort9quicksort17h4e0f96bb5e50204eE, symObjAddr: 0x35C60, symBinAddr: 0x5B660, symSize: 0xD60 }
  - { offset: 0xFF7C7, size: 0x8, addend: 0x0, symName: __ZN4core5slice4sort6stable9quicksort9quicksort17h5039615b86acfb17E, symObjAddr: 0x369C0, symBinAddr: 0x5C3C0, symSize: 0xB50 }
  - { offset: 0x1005C1, size: 0x8, addend: 0x0, symName: __ZN4core5slice4sort6stable9quicksort9quicksort17h54d5655b54e85608E, symObjAddr: 0x37510, symBinAddr: 0x5CF10, symSize: 0xC40 }
  - { offset: 0x10134A, size: 0x8, addend: 0x0, symName: __ZN4core5slice4sort6stable9quicksort9quicksort17h563ccb161c809bb9E, symObjAddr: 0x38150, symBinAddr: 0x5DB50, symSize: 0xB50 }
  - { offset: 0x101C22, size: 0x8, addend: 0x0, symName: __ZN4core5slice4sort6stable9quicksort9quicksort17ha4eccc1b33417963E, symObjAddr: 0x38CA0, symBinAddr: 0x5E6A0, symSize: 0xBB0 }
  - { offset: 0x10314D, size: 0x8, addend: 0x0, symName: __ZN4core5slice4sort6shared9smallsort12sort4_stable17h429c53b39c3949acE, symObjAddr: 0x30980, symBinAddr: 0x56380, symSize: 0x1B0 }
  - { offset: 0x103324, size: 0x8, addend: 0x0, symName: __ZN4core5slice4sort6shared9smallsort12sort4_stable17h8e40b2e7e5f636d6E, symObjAddr: 0x30B30, symBinAddr: 0x56530, symSize: 0x1F0 }
  - { offset: 0x10372F, size: 0x8, addend: 0x0, symName: __ZN4core5slice4sort6shared9smallsort12sort8_stable17hd86b794b574b633cE, symObjAddr: 0x30D20, symBinAddr: 0x56720, symSize: 0x3E0 }
  - { offset: 0x103DE7, size: 0x8, addend: 0x0, symName: __ZN4core5slice4sort6shared9smallsort18small_sort_general17h0ffd90b03ee23f71E, symObjAddr: 0x31100, symBinAddr: 0x56B00, symSize: 0x510 }
  - { offset: 0x104304, size: 0x8, addend: 0x0, symName: __ZN4core5slice4sort6shared9smallsort18small_sort_general17h7a2a4ab0b4034136E, symObjAddr: 0x31610, symBinAddr: 0x57010, symSize: 0x600 }
  - { offset: 0x104B07, size: 0x8, addend: 0x0, symName: __ZN4core5slice4sort6shared9smallsort25insertion_sort_shift_left17h0b99a1dace0461e0E, symObjAddr: 0x31C10, symBinAddr: 0x57610, symSize: 0x120 }
  - { offset: 0x104CCC, size: 0x8, addend: 0x0, symName: __ZN4core5slice4sort6shared9smallsort25insertion_sort_shift_left17h1aa889efeb4092c1E, symObjAddr: 0x31D30, symBinAddr: 0x57730, symSize: 0xF0 }
  - { offset: 0x104DFA, size: 0x8, addend: 0x0, symName: __ZN4core5slice4sort6shared9smallsort25insertion_sort_shift_left17h39fda689822c34e3E, symObjAddr: 0x31E20, symBinAddr: 0x57820, symSize: 0xF0 }
  - { offset: 0x104F29, size: 0x8, addend: 0x0, symName: __ZN4core5slice4sort6shared9smallsort25insertion_sort_shift_left17h519a67896e46d7b4E, symObjAddr: 0x31F10, symBinAddr: 0x57910, symSize: 0xC0 }
  - { offset: 0x105249, size: 0x8, addend: 0x0, symName: __ZN4core5slice4sort6shared5pivot11median3_rec17h0bad552e41eb9dc6E, symObjAddr: 0x302C0, symBinAddr: 0x55CC0, symSize: 0xC0 }
  - { offset: 0x105350, size: 0x8, addend: 0x0, symName: __ZN4core5slice4sort6shared5pivot11median3_rec17h69042159816e04f4E, symObjAddr: 0x30380, symBinAddr: 0x55D80, symSize: 0xC0 }
  - { offset: 0x105459, size: 0x8, addend: 0x0, symName: __ZN4core5slice4sort6shared5pivot11median3_rec17h6b39c5ff16384b97E, symObjAddr: 0x30440, symBinAddr: 0x55E40, symSize: 0xB0 }
  - { offset: 0x10558C, size: 0x8, addend: 0x0, symName: __ZN4core5slice4sort6shared5pivot11median3_rec17h78bc361aba28d375E, symObjAddr: 0x304F0, symBinAddr: 0x55EF0, symSize: 0x140 }
  - { offset: 0x1057C1, size: 0x8, addend: 0x0, symName: __ZN4core5slice4sort6shared5pivot11median3_rec17h864e4c2ed0405f91E, symObjAddr: 0x30630, symBinAddr: 0x56030, symSize: 0xC0 }
  - { offset: 0x1058C8, size: 0x8, addend: 0x0, symName: __ZN4core5slice4sort6shared5pivot11median3_rec17h9ee77f2cab2d4c5dE, symObjAddr: 0x306F0, symBinAddr: 0x560F0, symSize: 0xC0 }
  - { offset: 0x1059CF, size: 0x8, addend: 0x0, symName: __ZN4core5slice4sort6shared5pivot11median3_rec17ha14fc07cd9e49161E, symObjAddr: 0x307B0, symBinAddr: 0x561B0, symSize: 0xC0 }
  - { offset: 0x105AD6, size: 0x8, addend: 0x0, symName: __ZN4core5slice4sort6shared5pivot11median3_rec17hfa048ff775602914E, symObjAddr: 0x30870, symBinAddr: 0x56270, symSize: 0x110 }
  - { offset: 0x105CE2, size: 0x8, addend: 0x0, symName: '__ZN55_$LT$$RF$str$u20$as$u20$core..str..pattern..Pattern$GT$15is_contained_in17hc8794a96b582b38aE', symObjAddr: 0x3B790, symBinAddr: 0x604A0, symSize: 0x860 }
  - { offset: 0x10647D, size: 0x8, addend: 0x0, symName: '__ZN4core3str7pattern13simd_contains28_$u7b$$u7b$closure$u7d$$u7d$17ha6d539c15f4ab7c0E', symObjAddr: 0x2C040, symBinAddr: 0x7F440, symSize: 0x100 }
  - { offset: 0x1078DB, size: 0x8, addend: 0x0, symName: '__ZN4core3ops8function6FnOnce40call_once$u7b$$u7b$vtable.shim$u7d$$u7d$17h0d3238feb6ae2c7dE', symObjAddr: 0x29150, symBinAddr: 0x53F20, symSize: 0x10 }
  - { offset: 0x107917, size: 0x8, addend: 0x0, symName: '__ZN4core3ops8function6FnOnce40call_once$u7b$$u7b$vtable.shim$u7d$$u7d$17h8ff5d8d366cb3dcdE', symObjAddr: 0x29350, symBinAddr: 0x53F30, symSize: 0x90 }
  - { offset: 0x107A5D, size: 0x8, addend: 0x0, symName: '__ZN4core3ops8function6FnOnce40call_once$u7b$$u7b$vtable.shim$u7d$$u7d$17h994b7e277a3827ddE', symObjAddr: 0x293E0, symBinAddr: 0x53FC0, symSize: 0x10 }
  - { offset: 0x107AAE, size: 0x8, addend: 0x0, symName: '__ZN4core3ops8function6FnOnce40call_once$u7b$$u7b$vtable.shim$u7d$$u7d$17h9d2e7babc27e55d4E', symObjAddr: 0x293F0, symBinAddr: 0x53FD0, symSize: 0x10 }
  - { offset: 0x107AEA, size: 0x8, addend: 0x0, symName: '__ZN4core3ops8function6FnOnce40call_once$u7b$$u7b$vtable.shim$u7d$$u7d$17h9e6dbb12aa376ac1E', symObjAddr: 0x29400, symBinAddr: 0x53FE0, symSize: 0x10 }
  - { offset: 0x107B26, size: 0x8, addend: 0x0, symName: '__ZN4core3ops8function6FnOnce40call_once$u7b$$u7b$vtable.shim$u7d$$u7d$17hf1524fee5c53f54cE', symObjAddr: 0x294E0, symBinAddr: 0x53FF0, symSize: 0x10 }
  - { offset: 0x107C67, size: 0x8, addend: 0x0, symName: __ZN4core3ops8function2Fn4call17h19d0f265096c9754E, symObjAddr: 0x28E90, symBinAddr: 0x53F00, symSize: 0x10 }
  - { offset: 0x107C94, size: 0x8, addend: 0x0, symName: __ZN4core3ops8function5FnMut8call_mut17h3b64f0f58b72bb4bE, symObjAddr: 0x29140, symBinAddr: 0x53F10, symSize: 0x10 }
  - { offset: 0x1087D0, size: 0x8, addend: 0x0, symName: '__ZN36_$LT$T$u20$as$u20$core..any..Any$GT$7type_id17hef7f9b259cc5ed22E', symObjAddr: 0x1220, symBinAddr: 0x467C0, symSize: 0x30 }
  - { offset: 0x1087FF, size: 0x8, addend: 0x0, symName: '__ZN36_$LT$T$u20$as$u20$core..any..Any$GT$7type_id17hf38d30a50d909875E', symObjAddr: 0x1250, symBinAddr: 0x467F0, symSize: 0x30 }
  - { offset: 0x10882E, size: 0x8, addend: 0x0, symName: '__ZN36_$LT$T$u20$as$u20$core..any..Any$GT$7type_id17hfe9fbb449010764eE', symObjAddr: 0x1280, symBinAddr: 0x46820, symSize: 0x30 }
  - { offset: 0x10979E, size: 0x8, addend: 0x0, symName: '__ZN4core4cell4once17OnceCell$LT$T$GT$8try_init17h164ad122d3fdde11E', symObjAddr: 0x2C140, symBinAddr: 0x7F540, symSize: 0x70 }
  - { offset: 0x1097BC, size: 0x8, addend: 0x0, symName: '__ZN4core4cell4once17OnceCell$LT$T$GT$8try_init17h164ad122d3fdde11E', symObjAddr: 0x2C140, symBinAddr: 0x7F540, symSize: 0x70 }
  - { offset: 0x1097D1, size: 0x8, addend: 0x0, symName: '__ZN4core4cell4once17OnceCell$LT$T$GT$8try_init17h164ad122d3fdde11E', symObjAddr: 0x2C140, symBinAddr: 0x7F540, symSize: 0x70 }
  - { offset: 0x1097E5, size: 0x8, addend: 0x0, symName: '__ZN4core4cell4once17OnceCell$LT$T$GT$8try_init17h164ad122d3fdde11E', symObjAddr: 0x2C140, symBinAddr: 0x7F540, symSize: 0x70 }
  - { offset: 0x10983C, size: 0x8, addend: 0x0, symName: '__ZN4core4cell4once17OnceCell$LT$T$GT$8try_init17h5eaa6e42f622c98bE', symObjAddr: 0x2C1B0, symBinAddr: 0x7F5B0, symSize: 0x80 }
  - { offset: 0x1098EF, size: 0x8, addend: 0x0, symName: '__ZN4core4cell4once17OnceCell$LT$T$GT$8try_init17h8d9b52977b5ff1b0E', symObjAddr: 0x2C230, symBinAddr: 0x7F630, symSize: 0x8B0 }
  - { offset: 0x10A4AC, size: 0x8, addend: 0x0, symName: '__ZN4core4cell4once17OnceCell$LT$T$GT$8try_init17h963735826f59da1dE', symObjAddr: 0x2CAE0, symBinAddr: 0x7FEE0, symSize: 0x110 }
  - { offset: 0x10A70C, size: 0x8, addend: 0x0, symName: '__ZN4core4cell4once17OnceCell$LT$T$GT$8try_init17hbb32d690264a29aeE', symObjAddr: 0x2CBF0, symBinAddr: 0x7FFF0, symSize: 0x25C0 }
  - { offset: 0x10D8B8, size: 0x8, addend: 0x0, symName: '__ZN4core4cell4once17OnceCell$LT$T$GT$8try_init17he85fbe2a3a1ae7fbE', symObjAddr: 0x2F1B0, symBinAddr: 0x825B0, symSize: 0xF30 }
  - { offset: 0x10F3AD, size: 0x8, addend: 0x0, symName: __ZN4core5error5Error11description17ha6a6a08fd0b06ebcE, symObjAddr: 0x301F0, symBinAddr: 0x55C40, symSize: 0x20 }
  - { offset: 0x10F3C7, size: 0x8, addend: 0x0, symName: __ZN4core5error5Error5cause17h5b5fd61b0af24bd8E, symObjAddr: 0x30210, symBinAddr: 0x55C60, symSize: 0x10 }
  - { offset: 0x10F3E1, size: 0x8, addend: 0x0, symName: __ZN4core5error5Error7provide17hcf50e4f5391fe1b4E, symObjAddr: 0x30240, symBinAddr: 0x55C70, symSize: 0x10 }
  - { offset: 0x10F3FB, size: 0x8, addend: 0x0, symName: __ZN4core5error5Error7type_id17h1548aa106e60bc02E, symObjAddr: 0x30250, symBinAddr: 0x55C80, symSize: 0x30 }
  - { offset: 0x10F431, size: 0x8, addend: 0x0, symName: __ZN4core9panicking13assert_failed17hd0474ff4a2593036E, symObjAddr: 0x3AAC3, symBinAddr: 0x834E3, symSize: 0x2F }
  - { offset: 0x10F44D, size: 0x8, addend: 0x0, symName: __ZN4core9panicking13assert_failed17hd751ab4adab24333E, symObjAddr: 0x3AAF2, symBinAddr: 0x83512, symSize: 0x3E }
  - { offset: 0x10F532, size: 0x8, addend: 0x0, symName: __RNvCskdKJRKLKjqM_7___rustc10rust_panic, symObjAddr: 0x0, symBinAddr: 0x7E9B0, symSize: 0x70 }
  - { offset: 0x10F563, size: 0x8, addend: 0x0, symName: __RNvCskdKJRKLKjqM_7___rustc17___rust_drop_panic, symObjAddr: 0x1D0, symBinAddr: 0x46460, symSize: 0xD0 }
  - { offset: 0x10F7AE, size: 0x8, addend: 0x0, symName: __RNvCskdKJRKLKjqM_7___rustc17rust_begin_unwind, symObjAddr: 0x2A0, symBinAddr: 0x46530, symSize: 0x30 }
  - { offset: 0x10F7F4, size: 0x8, addend: 0x0, symName: __RNvCskdKJRKLKjqM_7___rustc24___rust_foreign_exception, symObjAddr: 0x360, symBinAddr: 0x465F0, symSize: 0xD0 }
  - { offset: 0x10FAAF, size: 0x8, addend: 0x0, symName: __ZN3std9panicking11panic_count17is_zero_slow_path17hc9cf2ba853cb1a44E, symObjAddr: 0x26310, symBinAddr: 0x7F350, symSize: 0x20 }
  - { offset: 0x10FB5E, size: 0x8, addend: 0x0, symName: __ZN3std9panicking11panic_count8increase17hf57f6317579ad19bE, symObjAddr: 0x26370, symBinAddr: 0x52890, symSize: 0x40 }
  - { offset: 0x10FB75, size: 0x8, addend: 0x0, symName: __ZN3std9panicking11panic_count8increase17hf57f6317579ad19bE, symObjAddr: 0x26370, symBinAddr: 0x52890, symSize: 0x40 }
  - { offset: 0x10FB8A, size: 0x8, addend: 0x0, symName: __ZN3std9panicking11panic_count8increase17hf57f6317579ad19bE, symObjAddr: 0x26370, symBinAddr: 0x52890, symSize: 0x40 }
  - { offset: 0x10FCCF, size: 0x8, addend: 0x0, symName: __ZN3std9panicking12catch_unwind7cleanup17ha00ce520227b8041E, symObjAddr: 0x263C2, symBinAddr: 0x7F372, symSize: 0x29 }
  - { offset: 0x10FDE1, size: 0x8, addend: 0x0, symName: __ZN3std9panicking12default_hook17hfd692237a6812b4aE, symObjAddr: 0x263EB, symBinAddr: 0x528DB, symSize: 0x12B }
  - { offset: 0x10FF78, size: 0x8, addend: 0x0, symName: '__ZN3std9panicking12default_hook28_$u7b$$u7b$closure$u7d$$u7d$17h4c39689ecd8341bfE', symObjAddr: 0x26516, symBinAddr: 0x52A06, symSize: 0x18A }
  - { offset: 0x11013F, size: 0x8, addend: 0x0, symName: '__ZN3std9panicking12default_hook28_$u7b$$u7b$closure$u7d$$u7d$28_$u7b$$u7b$closure$u7d$$u7d$17h141942b3ab6b1748E', symObjAddr: 0x266A0, symBinAddr: 0x52B90, symSize: 0x380 }
  - { offset: 0x11086F, size: 0x8, addend: 0x0, symName: __ZN3std9panicking13panic_handler19FormatStringPayload4fill17hd583736f0adc2b9eE, symObjAddr: 0x26A20, symBinAddr: 0x52F10, symSize: 0xC0 }
  - { offset: 0x11098C, size: 0x8, addend: 0x0, symName: '__ZN3std9panicking13panic_handler28_$u7b$$u7b$closure$u7d$$u7d$17h0449b52d62cc4acdE', symObjAddr: 0x26AE0, symBinAddr: 0x52FD0, symSize: 0xD0 }
  - { offset: 0x110AE8, size: 0x8, addend: 0x0, symName: '__ZN86_$LT$std..panicking..panic_handler..StaticStrPayload$u20$as$u20$core..fmt..Display$GT$3fmt17h611d737e25d39e04E', symObjAddr: 0x58C20, symBinAddr: 0x6C310, symSize: 0x20 }
  - { offset: 0x110B09, size: 0x8, addend: 0x0, symName: '__ZN89_$LT$std..panicking..panic_handler..FormatStringPayload$u20$as$u20$core..fmt..Display$GT$3fmt17h2c418704e9a80b67E', symObjAddr: 0x59030, symBinAddr: 0x6C360, symSize: 0x70 }
  - { offset: 0x110BFD, size: 0x8, addend: 0x0, symName: '__ZN93_$LT$std..panicking..panic_handler..StaticStrPayload$u20$as$u20$core..panic..PanicPayload$GT$3get17h54b2dcb3b150a54cE', symObjAddr: 0x59900, symBinAddr: 0x6C4F0, symSize: 0x10 }
  - { offset: 0x110C18, size: 0x8, addend: 0x0, symName: '__ZN93_$LT$std..panicking..panic_handler..StaticStrPayload$u20$as$u20$core..panic..PanicPayload$GT$6as_str17h5a1a7c38fda21c29E', symObjAddr: 0x59910, symBinAddr: 0x6C500, symSize: 0x10 }
  - { offset: 0x110C33, size: 0x8, addend: 0x0, symName: '__ZN93_$LT$std..panicking..panic_handler..StaticStrPayload$u20$as$u20$core..panic..PanicPayload$GT$8take_box17hdf5e7dcb860e8869E', symObjAddr: 0x59920, symBinAddr: 0x6C510, symSize: 0x50 }
  - { offset: 0x110CB0, size: 0x8, addend: 0x0, symName: '__ZN96_$LT$std..panicking..panic_handler..FormatStringPayload$u20$as$u20$core..panic..PanicPayload$GT$3get17he619996a915dba5aE', symObjAddr: 0x5A150, symBinAddr: 0x6C980, symSize: 0x20 }
  - { offset: 0x110CCB, size: 0x8, addend: 0x0, symName: '__ZN96_$LT$std..panicking..panic_handler..FormatStringPayload$u20$as$u20$core..panic..PanicPayload$GT$8take_box17h1d68480d8bee4f17E', symObjAddr: 0x5A170, symBinAddr: 0x6C9A0, symSize: 0xA0 }
  - { offset: 0x110E1D, size: 0x8, addend: 0x0, symName: __ZN3std9panicking13resume_unwind17h0fcdfed71f2f3be7E, symObjAddr: 0x26BB0, symBinAddr: 0x7F3A0, symSize: 0xA0 }
  - { offset: 0x111029, size: 0x8, addend: 0x0, symName: __ZN3std9panicking14payload_as_str17h7b83b1c48b989ea0E, symObjAddr: 0x26C50, symBinAddr: 0x530A0, symSize: 0x7D }
  - { offset: 0x11116E, size: 0x8, addend: 0x0, symName: __ZN3std9panicking15panic_with_hook17he1033abc98626357E, symObjAddr: 0x26CCD, symBinAddr: 0x5311D, symSize: 0x43D }
  - { offset: 0x1119E0, size: 0x8, addend: 0x0, symName: __ZN3std9panicking8set_hook17h4ed3f820c265c048E, symObjAddr: 0x27120, symBinAddr: 0x53560, symSize: 0x190 }
  - { offset: 0x111C99, size: 0x8, addend: 0x0, symName: __ZN3std9panicking9take_hook17h9f00528036206a6fE, symObjAddr: 0x272B0, symBinAddr: 0x536F0, symSize: 0x120 }
  - { offset: 0x111E66, size: 0x8, addend: 0x0, symName: '__ZN79_$LT$std..panicking..resume_unwind..RewrapBox$u20$as$u20$core..fmt..Display$GT$3fmt17hdd4d35c3ddf8dd96E', symObjAddr: 0x57250, symBinAddr: 0x6BC30, symSize: 0x20 }
  - { offset: 0x111E87, size: 0x8, addend: 0x0, symName: '__ZN86_$LT$std..panicking..resume_unwind..RewrapBox$u20$as$u20$core..panic..PanicPayload$GT$3get17h83a388dc5564d47cE', symObjAddr: 0x58C40, symBinAddr: 0x6C330, symSize: 0x10 }
  - { offset: 0x111EA2, size: 0x8, addend: 0x0, symName: '__ZN86_$LT$std..panicking..resume_unwind..RewrapBox$u20$as$u20$core..panic..PanicPayload$GT$8take_box17hb72db7824160d6caE', symObjAddr: 0x58C50, symBinAddr: 0x6C340, symSize: 0x20 }
  - { offset: 0x111FCD, size: 0x8, addend: 0x0, symName: __ZN3std3sys3pal6common14small_c_string24run_with_cstr_allocating17h5cc89072fa4ee439E, symObjAddr: 0x19EE0, symBinAddr: 0x7EB50, symSize: 0x90 }
  - { offset: 0x11213C, size: 0x8, addend: 0x0, symName: __ZN3std3sys3pal6common14small_c_string24run_with_cstr_allocating17hc579900339e23d19E, symObjAddr: 0x1A190, symBinAddr: 0x7EBE0, symSize: 0xB0 }
  - { offset: 0x112318, size: 0x8, addend: 0x0, symName: __ZN3std3sys3pal6common14small_c_string24run_with_cstr_allocating17he4af3d6cbd61cc52E, symObjAddr: 0x1A2F0, symBinAddr: 0x7EC90, symSize: 0xB0 }
  - { offset: 0x1125A9, size: 0x8, addend: 0x0, symName: __ZN3std3sys3pal4unix4sync5mutex5Mutex4init17hc0cd42f50e15ec42E, symObjAddr: 0x199B0, symBinAddr: 0x50C30, symSize: 0x160 }
  - { offset: 0x112665, size: 0x8, addend: 0x0, symName: __ZN3std3sys3pal4unix4sync5mutex5Mutex4lock4fail17ha33bd018f471c78aE, symObjAddr: 0x19B30, symBinAddr: 0x7EA50, symSize: 0x100 }
  - { offset: 0x11291A, size: 0x8, addend: 0x0, symName: __ZN3std3sys3pal4unix14abort_internal17h2d7ebcba1920d509E, symObjAddr: 0x17850, symBinAddr: 0x7EA40, symSize: 0x10 }
  - { offset: 0x112935, size: 0x8, addend: 0x0, symName: __ZN3std3sys3pal4unix17decode_error_kind17h447b85d7b88dc1dcE, symObjAddr: 0x19230, symBinAddr: 0x509E0, symSize: 0x250 }
  - { offset: 0x1129AE, size: 0x8, addend: 0x0, symName: __ZN3std3sys12thread_local6native5eager7destroy17h52ab99797ee9e6c0E, symObjAddr: 0x122C0, symBinAddr: 0x502A0, symSize: 0x20 }
  - { offset: 0x112B3D, size: 0x8, addend: 0x0, symName: __ZN3std3sys12thread_local5guard5apple6enable9run_dtors17h38edc9b0697859adE, symObjAddr: 0x121D0, symBinAddr: 0x501B0, symSize: 0xF0 }
  - { offset: 0x112FDB, size: 0x8, addend: 0x0, symName: __ZN3std3sys12thread_local11destructors4list8register17h1d9ec60dd9886de7E, symObjAddr: 0x120E0, symBinAddr: 0x500C0, symSize: 0xF0 }
  - { offset: 0x11326A, size: 0x8, addend: 0x0, symName: __ZN3std3sys3env4unix13env_read_lock17h6b780f3777072ce3E, symObjAddr: 0x165B0, symBinAddr: 0x50640, symSize: 0x280 }
  - { offset: 0x113931, size: 0x8, addend: 0x0, symName: '__ZN3std3sys3env4unix6getenv28_$u7b$$u7b$closure$u7d$$u7d$17hbced0c0771611cafE', symObjAddr: 0x16830, symBinAddr: 0x508C0, symSize: 0x120 }
  - { offset: 0x113BB6, size: 0x8, addend: 0x0, symName: __ZN3std3sys2fs4unix4File6open_c17he05b2f9a6cd0c0a5E, symObjAddr: 0x14FB0, symBinAddr: 0x502C0, symSize: 0x180 }
  - { offset: 0x113D71, size: 0x8, addend: 0x0, symName: '__ZN65_$LT$std..sys..fs..unix..Dir$u20$as$u20$core..ops..drop..Drop$GT$4drop17h00566fb81437571eE', symObjAddr: 0x531C0, symBinAddr: 0x6B650, symSize: 0xD0 }
  - { offset: 0x113E67, size: 0x8, addend: 0x0, symName: __ZN3std3sys2fs8read_dir17he96197a45d71fcd1E, symObjAddr: 0x160D0, symBinAddr: 0x50440, symSize: 0x200 }
  - { offset: 0x114250, size: 0x8, addend: 0x0, symName: '__ZN64_$LT$std..sys..stdio..unix..Stderr$u20$as$u20$std..io..Write$GT$14write_vectored17h2dbb79a2e8dce948E', symObjAddr: 0x52F00, symBinAddr: 0x6B590, symSize: 0x50 }
  - { offset: 0x11431F, size: 0x8, addend: 0x0, symName: '__ZN64_$LT$std..sys..stdio..unix..Stderr$u20$as$u20$std..io..Write$GT$17is_write_vectored17h9d9019aa34dca71eE', symObjAddr: 0x52F50, symBinAddr: 0x6B5E0, symSize: 0x10 }
  - { offset: 0x114339, size: 0x8, addend: 0x0, symName: '__ZN64_$LT$std..sys..stdio..unix..Stderr$u20$as$u20$std..io..Write$GT$5flush17haca374bc2fb40ebcE', symObjAddr: 0x52F60, symBinAddr: 0x6B5F0, symSize: 0x10 }
  - { offset: 0x114353, size: 0x8, addend: 0x0, symName: '__ZN64_$LT$std..sys..stdio..unix..Stderr$u20$as$u20$std..io..Write$GT$5write17h4b5035fe5e5f2032E', symObjAddr: 0x52F70, symBinAddr: 0x6B600, symSize: 0x50 }
  - { offset: 0x114480, size: 0x8, addend: 0x0, symName: '__ZN3std3sys4sync8once_box16OnceBox$LT$T$GT$10initialize17h6aa2ce4cfc78c157E', symObjAddr: 0x1B490, symBinAddr: 0x7EFE0, symSize: 0x120 }
  - { offset: 0x1146CD, size: 0x8, addend: 0x0, symName: __ZN3std3sys4sync4once5queue4Once4call17h8e466067d86cbcb3E, symObjAddr: 0x1A7E0, symBinAddr: 0x7ED40, symSize: 0x210 }
  - { offset: 0x11496D, size: 0x8, addend: 0x0, symName: '__ZN82_$LT$std..sys..sync..once..queue..WaiterQueue$u20$as$u20$core..ops..drop..Drop$GT$4drop17h17a27c240e6095eaE', symObjAddr: 0x586D0, symBinAddr: 0x6C240, symSize: 0xD0 }
  - { offset: 0x114B22, size: 0x8, addend: 0x0, symName: __ZN3std3sys4sync4once5queue4wait17hcf137e24f8369e0fE, symObjAddr: 0x1ABE0, symBinAddr: 0x50D90, symSize: 0x160 }
  - { offset: 0x115005, size: 0x8, addend: 0x0, symName: __ZN3std3sys4sync6rwlock5queue6RwLock12unlock_queue17h2b38c5d2f4e14db6E, symObjAddr: 0x1AD60, symBinAddr: 0x50EF0, symSize: 0x180 }
  - { offset: 0x115624, size: 0x8, addend: 0x0, symName: __ZN3std3sys4sync6rwlock5queue6RwLock16unlock_contended17h434533e27b51e3a9E, symObjAddr: 0x1B1F0, symBinAddr: 0x7EF50, symSize: 0x40 }
  - { offset: 0x115700, size: 0x8, addend: 0x0, symName: __ZN3std3sys4sync6rwlock5queue6RwLock21read_unlock_contended17ha0f88a0fd7df0d66E, symObjAddr: 0x1B230, symBinAddr: 0x7EF90, symSize: 0x50 }
  - { offset: 0x115982, size: 0x8, addend: 0x0, symName: __ZN3std3sys4sync6rwlock5queue9read_lock17h5e2659437ef5e87cE, symObjAddr: 0x1B280, symBinAddr: 0x51070, symSize: 0x30 }
  - { offset: 0x1159A8, size: 0x8, addend: 0x0, symName: '__ZN83_$LT$std..sys..sync..rwlock..queue..PanicGuard$u20$as$u20$core..ops..drop..Drop$GT$4drop17h9abf048048014633E', symObjAddr: 0x58950, symBinAddr: 0x836A0, symSize: 0x60 }
  - { offset: 0x115A51, size: 0x8, addend: 0x0, symName: '__ZN3std3sys11personality3gcc14find_eh_action28_$u7b$$u7b$closure$u7d$$u7d$17h71a716f7697f7c23E', symObjAddr: 0x120C0, symBinAddr: 0x500A0, symSize: 0x10 }
  - { offset: 0x115A65, size: 0x8, addend: 0x0, symName: '__ZN3std3sys11personality3gcc14find_eh_action28_$u7b$$u7b$closure$u7d$$u7d$17hf3d297c424dd88bbE', symObjAddr: 0x120D0, symBinAddr: 0x500B0, symSize: 0x10 }
  - { offset: 0x115AB1, size: 0x8, addend: 0x0, symName: _rust_eh_personality, symObjAddr: 0x5D880, symBinAddr: 0x6FE10, symSize: 0x640 }
  - { offset: 0x1165A0, size: 0x8, addend: 0x0, symName: '__ZN3std3sys9backtrace10_print_fmt28_$u7b$$u7b$closure$u7d$$u7d$17h240c89470c2fecd8E', symObjAddr: 0x1F310, symBinAddr: 0x510A0, symSize: 0x130 }
  - { offset: 0x116688, size: 0x8, addend: 0x0, symName: '__ZN3std3sys9backtrace10_print_fmt28_$u7b$$u7b$closure$u7d$$u7d$17h32646e4212c9eef0E', symObjAddr: 0x1F440, symBinAddr: 0x511D0, symSize: 0x20 }
  - { offset: 0x1166C9, size: 0x8, addend: 0x0, symName: '__ZN3std3sys9backtrace10_print_fmt28_$u7b$$u7b$closure$u7d$$u7d$28_$u7b$$u7b$closure$u7d$$u7d$17h9218d583d276298aE', symObjAddr: 0x1F460, symBinAddr: 0x511F0, symSize: 0x2A0 }
  - { offset: 0x1168BC, size: 0x8, addend: 0x0, symName: __ZN3std3sys9backtrace13BacktraceLock5print17h5e73de0c808691a4E, symObjAddr: 0x1F700, symBinAddr: 0x51490, symSize: 0x60 }
  - { offset: 0x1168ED, size: 0x8, addend: 0x0, symName: __ZN3std3sys9backtrace15output_filename17ha87664c578f770efE, symObjAddr: 0x1F760, symBinAddr: 0x514F0, symSize: 0x120 }
  - { offset: 0x116A59, size: 0x8, addend: 0x0, symName: __ZN3std3sys9backtrace26__rust_end_short_backtrace17h3fc1fab9d4b6800aE, symObjAddr: 0x1F880, symBinAddr: 0x51610, symSize: 0x10 }
  - { offset: 0x116A73, size: 0x8, addend: 0x0, symName: __ZN3std3sys9backtrace4lock17h2bb35fe2884a3a88E, symObjAddr: 0x1F8A0, symBinAddr: 0x51620, symSize: 0x80 }
  - { offset: 0x116BC9, size: 0x8, addend: 0x0, symName: '__ZN98_$LT$std..sys..backtrace..BacktraceLock..print..DisplayBacktrace$u20$as$u20$core..fmt..Display$GT$3fmt17hbb4f642dcc320b1dE', symObjAddr: 0x5A3B0, symBinAddr: 0x6CA40, symSize: 0x280 }
  - { offset: 0x117128, size: 0x8, addend: 0x0, symName: __RNvCskdKJRKLKjqM_7___rustc11___rdl_alloc, symObjAddr: 0x70, symBinAddr: 0x46310, symSize: 0x70 }
  - { offset: 0x1171A6, size: 0x8, addend: 0x0, symName: __RNvCskdKJRKLKjqM_7___rustc13___rdl_dealloc, symObjAddr: 0xF0, symBinAddr: 0x46380, symSize: 0x10 }
  - { offset: 0x1171D7, size: 0x8, addend: 0x0, symName: __RNvCskdKJRKLKjqM_7___rustc13___rdl_realloc, symObjAddr: 0x100, symBinAddr: 0x46390, symSize: 0xD0 }
  - { offset: 0x1172BB, size: 0x8, addend: 0x0, symName: __RNvCskdKJRKLKjqM_7___rustc18___rdl_alloc_zeroed, symObjAddr: 0x2D0, symBinAddr: 0x46560, symSize: 0x90 }
  - { offset: 0x117360, size: 0x8, addend: 0x0, symName: __RNvCskdKJRKLKjqM_7___rustc8___rg_oom, symObjAddr: 0x430, symBinAddr: 0x7EA20, symSize: 0x20 }
  - { offset: 0x11737C, size: 0x8, addend: 0x0, symName: __ZN3std5alloc24default_alloc_error_hook17h037631a9e9542696E, symObjAddr: 0x23AD0, symBinAddr: 0x524F0, symSize: 0x160 }
  - { offset: 0x117609, size: 0x8, addend: 0x0, symName: __ZN3std5alloc8rust_oom17he6554ab5e3e4bfbfE, symObjAddr: 0x23C30, symBinAddr: 0x7F100, symSize: 0x20 }
  - { offset: 0x117753, size: 0x8, addend: 0x0, symName: __ZN3std2io5error5Error3new17hca09cf106a8bb92bE, symObjAddr: 0xC960, symBinAddr: 0x4F4B0, symSize: 0x120 }
  - { offset: 0x117AF7, size: 0x8, addend: 0x0, symName: '__ZN3std2io5error83_$LT$impl$u20$core..fmt..Debug$u20$for$u20$std..io..error..repr_bitpacked..Repr$GT$3fmt17h0c2c47996b5c8151E', symObjAddr: 0xCB00, symBinAddr: 0x4F5D0, symSize: 0x300 }
  - { offset: 0x117D4F, size: 0x8, addend: 0x0, symName: '__ZN58_$LT$std..io..error..Error$u20$as$u20$core..fmt..Debug$GT$3fmt17h4e87839884dfef9aE', symObjAddr: 0x3D080, symBinAddr: 0x60EB0, symSize: 0x10 }
  - { offset: 0x117D69, size: 0x8, addend: 0x0, symName: '__ZN60_$LT$std..io..error..Error$u20$as$u20$core..fmt..Display$GT$3fmt17hb9b71bb9d61087ecE', symObjAddr: 0x4F030, symBinAddr: 0x6B0E0, symSize: 0x280 }
  - { offset: 0x117F9C, size: 0x8, addend: 0x0, symName: '__ZN62_$LT$std..io..error..ErrorKind$u20$as$u20$core..fmt..Debug$GT$3fmt17hd88fc964aff56ab8E', symObjAddr: 0x51C40, symBinAddr: 0x6B440, symSize: 0x30 }
  - { offset: 0x117FBD, size: 0x8, addend: 0x0, symName: __ZN3std2io5Write18write_all_vectored17hc2fed901070b4d06E, symObjAddr: 0xC160, symBinAddr: 0x4EDF0, symSize: 0x1D0 }
  - { offset: 0x118202, size: 0x8, addend: 0x0, symName: __ZN3std2io5Write9write_all17ha0278d11ab8e55b7E, symObjAddr: 0xC330, symBinAddr: 0x4EFC0, symSize: 0xA0 }
  - { offset: 0x1182F2, size: 0x8, addend: 0x0, symName: __ZN3std2io5Write9write_fmt17h0157f34dfbceefe5E, symObjAddr: 0xC3D0, symBinAddr: 0x4F060, symSize: 0x170 }
  - { offset: 0x1185CC, size: 0x8, addend: 0x0, symName: __ZN3std2io5Write9write_fmt17h24b62528f4d1168aE, symObjAddr: 0xC540, symBinAddr: 0x4F1D0, symSize: 0x170 }
  - { offset: 0x1188A6, size: 0x8, addend: 0x0, symName: __ZN3std2io5Write9write_fmt17h5e34a6300392fe22E, symObjAddr: 0xC6B0, symBinAddr: 0x4F340, symSize: 0x170 }
  - { offset: 0x118BCF, size: 0x8, addend: 0x0, symName: __ZN3std2io5stdio22try_set_output_capture17hb613035c20b6d0f1E, symObjAddr: 0xD2C0, symBinAddr: 0x4FCC0, symSize: 0xB0 }
  - { offset: 0x118E47, size: 0x8, addend: 0x0, symName: '__ZN3std2io5impls74_$LT$impl$u20$std..io..Write$u20$for$u20$alloc..vec..Vec$LT$u8$C$A$GT$$GT$14write_vectored17h396066abfc006fcaE', symObjAddr: 0xCE00, symBinAddr: 0x4F8D0, symSize: 0x180 }
  - { offset: 0x119049, size: 0x8, addend: 0x0, symName: '__ZN3std2io5impls74_$LT$impl$u20$std..io..Write$u20$for$u20$alloc..vec..Vec$LT$u8$C$A$GT$$GT$17is_write_vectored17h473fffb9382bf9c6E', symObjAddr: 0xCF80, symBinAddr: 0x4FA50, symSize: 0x10 }
  - { offset: 0x119072, size: 0x8, addend: 0x0, symName: '__ZN3std2io5impls74_$LT$impl$u20$std..io..Write$u20$for$u20$alloc..vec..Vec$LT$u8$C$A$GT$$GT$18write_all_vectored17hcfe81a52ebadbc0bE', symObjAddr: 0xCF90, symBinAddr: 0x4FA60, symSize: 0x170 }
  - { offset: 0x11909D, size: 0x8, addend: 0x0, symName: '__ZN3std2io5impls74_$LT$impl$u20$std..io..Write$u20$for$u20$alloc..vec..Vec$LT$u8$C$A$GT$$GT$18write_all_vectored17hcfe81a52ebadbc0bE', symObjAddr: 0xCF90, symBinAddr: 0x4FA60, symSize: 0x170 }
  - { offset: 0x1190B2, size: 0x8, addend: 0x0, symName: '__ZN3std2io5impls74_$LT$impl$u20$std..io..Write$u20$for$u20$alloc..vec..Vec$LT$u8$C$A$GT$$GT$18write_all_vectored17hcfe81a52ebadbc0bE', symObjAddr: 0xCF90, symBinAddr: 0x4FA60, symSize: 0x170 }
  - { offset: 0x1190C7, size: 0x8, addend: 0x0, symName: '__ZN3std2io5impls74_$LT$impl$u20$std..io..Write$u20$for$u20$alloc..vec..Vec$LT$u8$C$A$GT$$GT$18write_all_vectored17hcfe81a52ebadbc0bE', symObjAddr: 0xCF90, symBinAddr: 0x4FA60, symSize: 0x170 }
  - { offset: 0x1190DB, size: 0x8, addend: 0x0, symName: '__ZN3std2io5impls74_$LT$impl$u20$std..io..Write$u20$for$u20$alloc..vec..Vec$LT$u8$C$A$GT$$GT$18write_all_vectored17hcfe81a52ebadbc0bE', symObjAddr: 0xCF90, symBinAddr: 0x4FA60, symSize: 0x170 }
  - { offset: 0x1190EF, size: 0x8, addend: 0x0, symName: '__ZN3std2io5impls74_$LT$impl$u20$std..io..Write$u20$for$u20$alloc..vec..Vec$LT$u8$C$A$GT$$GT$18write_all_vectored17hcfe81a52ebadbc0bE', symObjAddr: 0xCF90, symBinAddr: 0x4FA60, symSize: 0x170 }
  - { offset: 0x1192A9, size: 0x8, addend: 0x0, symName: '__ZN3std2io5impls74_$LT$impl$u20$std..io..Write$u20$for$u20$alloc..vec..Vec$LT$u8$C$A$GT$$GT$5flush17hc83d241489517b1fE', symObjAddr: 0xD100, symBinAddr: 0x4FBD0, symSize: 0x10 }
  - { offset: 0x1192C4, size: 0x8, addend: 0x0, symName: '__ZN3std2io5impls74_$LT$impl$u20$std..io..Write$u20$for$u20$alloc..vec..Vec$LT$u8$C$A$GT$$GT$5write17h0e0da068fc5acedeE', symObjAddr: 0xD110, symBinAddr: 0x4FBE0, symSize: 0x70 }
  - { offset: 0x1193AA, size: 0x8, addend: 0x0, symName: '__ZN3std2io5impls74_$LT$impl$u20$std..io..Write$u20$for$u20$alloc..vec..Vec$LT$u8$C$A$GT$$GT$9write_all17h7bccd6e9d3e19e7fE', symObjAddr: 0xD180, symBinAddr: 0x4FC50, symSize: 0x70 }
  - { offset: 0x119597, size: 0x8, addend: 0x0, symName: '__ZN81_$LT$std..io..default_write_fmt..Adapter$LT$T$GT$$u20$as$u20$core..fmt..Write$GT$9write_str17h1649a3991f2ea191E', symObjAddr: 0x57A70, symBinAddr: 0x6C060, symSize: 0xD0 }
  - { offset: 0x1196A3, size: 0x8, addend: 0x0, symName: '__ZN81_$LT$std..io..default_write_fmt..Adapter$LT$T$GT$$u20$as$u20$core..fmt..Write$GT$9write_str17h65288afb60bc4b22E', symObjAddr: 0x57C60, symBinAddr: 0x6C130, symSize: 0x70 }
  - { offset: 0x119790, size: 0x8, addend: 0x0, symName: '__ZN81_$LT$std..io..default_write_fmt..Adapter$LT$T$GT$$u20$as$u20$core..fmt..Write$GT$9write_str17hf60e64c5a7fc0711E', symObjAddr: 0x57D20, symBinAddr: 0x6C1A0, symSize: 0xA0 }
  - { offset: 0x1199C5, size: 0x8, addend: 0x0, symName: __ZN3std4path4Path13_strip_prefix17h57206cfe16291a76E, symObjAddr: 0x20BD0, symBinAddr: 0x51CE0, symSize: 0x3C0 }
  - { offset: 0x119AD5, size: 0x8, addend: 0x0, symName: __ZN3std4path4Path5_join17hf8c84868fde1d922E, symObjAddr: 0x21720, symBinAddr: 0x520A0, symSize: 0x190 }
  - { offset: 0x11A19C, size: 0x8, addend: 0x0, symName: __ZN3std4path10Components15len_before_body17hc0c9c8c5c44312a5E, symObjAddr: 0x1F920, symBinAddr: 0x516A0, symSize: 0x170 }
  - { offset: 0x11A1B3, size: 0x8, addend: 0x0, symName: __ZN3std4path10Components15len_before_body17hc0c9c8c5c44312a5E, symObjAddr: 0x1F920, symBinAddr: 0x516A0, symSize: 0x170 }
  - { offset: 0x11A1C8, size: 0x8, addend: 0x0, symName: __ZN3std4path10Components15len_before_body17hc0c9c8c5c44312a5E, symObjAddr: 0x1F920, symBinAddr: 0x516A0, symSize: 0x170 }
  - { offset: 0x11A3A0, size: 0x8, addend: 0x0, symName: __ZN3std4path10Components25parse_next_component_back17h39a0247b7cda8e0bE, symObjAddr: 0x1FA90, symBinAddr: 0x51810, symSize: 0xF0 }
  - { offset: 0x11A53F, size: 0x8, addend: 0x0, symName: __ZN3std4path10Components7as_path17h069c6a5a65b7ff44E, symObjAddr: 0x1FB80, symBinAddr: 0x51900, symSize: 0x3E0 }
  - { offset: 0x11A970, size: 0x8, addend: 0x0, symName: '__ZN61_$LT$std..path..Component$u20$as$u20$core..cmp..PartialEq$GT$2eq17h491fa3e2db060d13E', symObjAddr: 0x512F0, symBinAddr: 0x6B360, symSize: 0xE0 }
  - { offset: 0x11AA2A, size: 0x8, addend: 0x0, symName: '__ZN80_$LT$std..path..Components$u20$as$u20$core..iter..traits..iterator..Iterator$GT$4next17hee0b9dd08b602416E', symObjAddr: 0x57330, symBinAddr: 0x6BC50, symSize: 0x410 }
  - { offset: 0x11ADCB, size: 0x8, addend: 0x0, symName: '__ZN95_$LT$std..path..Components$u20$as$u20$core..iter..traits..double_ended..DoubleEndedIterator$GT$9next_back17h714e7cb7d2d85f84E', symObjAddr: 0x59CE0, symBinAddr: 0x6C560, symSize: 0x420 }
  - { offset: 0x11AFC4, size: 0x8, addend: 0x0, symName: __ZN3std7process5abort17h0d4477327f66e8fbE, symObjAddr: 0x25400, symBinAddr: 0x7F340, symSize: 0x10 }
  - { offset: 0x11AFEF, size: 0x8, addend: 0x0, symName: '__ZN118_$LT$std..thread..thread_name_string..ThreadNameString$u20$as$u20$core..convert..From$LT$alloc..string..String$GT$$GT$4from17h61e83cd51d9b6e6aE', symObjAddr: 0x10C0, symBinAddr: 0x466C0, symSize: 0x100 }
  - { offset: 0x11B273, size: 0x8, addend: 0x0, symName: __ZN3std6thread5local18panic_access_error17h1e9c6bd8f0d440e3E, symObjAddr: 0x24040, symBinAddr: 0x7F130, symSize: 0x60 }
  - { offset: 0x11B2A8, size: 0x8, addend: 0x0, symName: '__ZN68_$LT$std..thread..local..AccessError$u20$as$u20$core..fmt..Debug$GT$3fmt17h19d84e0a8b904c5cE', symObjAddr: 0x53E10, symBinAddr: 0x6B720, symSize: 0x30 }
  - { offset: 0x11B381, size: 0x8, addend: 0x0, symName: __ZN3std6thread7current12init_current17h90dce586534f49cdE, symObjAddr: 0x245B0, symBinAddr: 0x7F190, symSize: 0x160 }
  - { offset: 0x11B699, size: 0x8, addend: 0x0, symName: __ZN3std6thread7current7current17hd1cf96e3ec21ba27E, symObjAddr: 0x24830, symBinAddr: 0x52860, symSize: 0x30 }
  - { offset: 0x11B7AB, size: 0x8, addend: 0x0, symName: __ZN3std6thread6Thread3new17haba3f9a731f34843E, symObjAddr: 0x241F0, symBinAddr: 0x52720, symSize: 0x140 }
  - { offset: 0x11BB00, size: 0x8, addend: 0x0, symName: __ZN3std6thread8ThreadId3new9exhausted17h406b0b054c541c40E, symObjAddr: 0x248A0, symBinAddr: 0x7F2F0, symSize: 0x50 }
  - { offset: 0x11BB9C, size: 0x8, addend: 0x0, symName: __ZN3std12backtrace_rs5print17BacktraceFrameFmt21print_raw_with_column17h124737e9f41c54b0E, symObjAddr: 0x12B0, symBinAddr: 0x46850, symSize: 0x560 }
  - { offset: 0x11BD92, size: 0x8, addend: 0x0, symName: __ZN3std12backtrace_rs9backtrace9libunwind5trace8trace_fn17hc5d3caa7e26e2d87E, symObjAddr: 0x1810, symBinAddr: 0x46DB0, symSize: 0x50 }
  - { offset: 0x11BE4D, size: 0x8, addend: 0x0, symName: __ZN3std12backtrace_rs9symbolize5gimli4mmap17h12ebabe808a68383E, symObjAddr: 0x1860, symBinAddr: 0x46E00, symSize: 0x210 }
  - { offset: 0x11C33A, size: 0x8, addend: 0x0, symName: __ZN3std12backtrace_rs9symbolize5gimli5macho11find_header17hde9f2a87e444cec9E, symObjAddr: 0x1A70, symBinAddr: 0x47010, symSize: 0x190 }
  - { offset: 0x11CA18, size: 0x8, addend: 0x0, symName: __ZN3std12backtrace_rs9symbolize5gimli5macho6Object5parse17h400ac0874d941337E, symObjAddr: 0x1C00, symBinAddr: 0x471A0, symSize: 0x1040 }
  - { offset: 0x11E93F, size: 0x8, addend: 0x0, symName: __ZN3std12backtrace_rs9symbolize5gimli5macho6Object7section17hf53b9a42818e2c3dE, symObjAddr: 0x2C40, symBinAddr: 0x481E0, symSize: 0x180 }
  - { offset: 0x11ED79, size: 0x8, addend: 0x0, symName: __ZN3std12backtrace_rs9symbolize5gimli7Context11find_frames17h15418eb91b7e6263E, symObjAddr: 0x2DC0, symBinAddr: 0x48360, symSize: 0x3D0 }
  - { offset: 0x11F159, size: 0x8, addend: 0x0, symName: __ZN3std12backtrace_rs9symbolize5gimli7Context3new17hb329d27e4d696e6aE, symObjAddr: 0x3190, symBinAddr: 0x48730, symSize: 0x3050 }
  - { offset: 0x1232B7, size: 0x8, addend: 0x0, symName: __ZN3std12backtrace_rs9symbolize5gimli7resolve17h34165e1bf34eef53E, symObjAddr: 0x61E0, symBinAddr: 0x4B780, symSize: 0x3560 }
  - { offset: 0x129343, size: 0x8, addend: 0x0, symName: __ZN3std12backtrace_rs9symbolize6Symbol4name17hd612854ad8f0ffd0E, symObjAddr: 0x9780, symBinAddr: 0x4ECE0, symSize: 0x110 }
  - { offset: 0x12947C, size: 0x8, addend: 0x0, symName: '__ZN79_$LT$std..backtrace_rs..symbolize..SymbolName$u20$as$u20$core..fmt..Display$GT$3fmt17hdc33297e1ed74ca2E', symObjAddr: 0x56AE0, symBinAddr: 0x6BB50, symSize: 0xE0 }
  - { offset: 0x12979A, size: 0x8, addend: 0x0, symName: '__ZN64_$LT$std..ffi..os_str..Display$u20$as$u20$core..fmt..Display$GT$3fmt17hc3b4edbdc1de5d2aE', symObjAddr: 0x52BC0, symBinAddr: 0x6B4C0, symSize: 0xD0 }
  - { offset: 0x12981F, size: 0x8, addend: 0x0, symName: '__ZN3std4sync6poison5mutex14Mutex$LT$T$GT$4lock17hc2ce4f843db9b8deE', symObjAddr: 0x23070, symBinAddr: 0x52230, symSize: 0x70 }
  - { offset: 0x129A44, size: 0x8, addend: 0x0, symName: '__ZN3std4sync6poison6rwlock15RwLock$LT$T$GT$5write17h3f9ac71f61f78640E', symObjAddr: 0x230E0, symBinAddr: 0x522A0, symSize: 0x250 }
  - { offset: 0x12A17A, size: 0x8, addend: 0x0, symName: __ZN3std5panic13resume_unwind17hf1a9d0c0bd7b809aE, symObjAddr: 0x23C50, symBinAddr: 0x7F120, symSize: 0x10 }
  - { offset: 0x12A1A9, size: 0x8, addend: 0x0, symName: __ZN3std5panic19get_backtrace_style17h4c7362303865842eE, symObjAddr: 0x23C60, symBinAddr: 0x52650, symSize: 0xD0 }
  - { offset: 0x12A1C7, size: 0x8, addend: 0x0, symName: __ZN3std5panic19get_backtrace_style17h4c7362303865842eE, symObjAddr: 0x23C60, symBinAddr: 0x52650, symSize: 0xD0 }
  - { offset: 0x12A1DC, size: 0x8, addend: 0x0, symName: __ZN3std5panic19get_backtrace_style17h4c7362303865842eE, symObjAddr: 0x23C60, symBinAddr: 0x52650, symSize: 0xD0 }
  - { offset: 0x12A449, size: 0x8, addend: 0x0, symName: __ZN3std3env11current_dir17h09876c9b4b89060dE, symObjAddr: 0xF800, symBinAddr: 0x4FD70, symSize: 0x1C0 }
  - { offset: 0x12A878, size: 0x8, addend: 0x0, symName: __ZN3std3env7_var_os17ha90d6152c34619e1E, symObjAddr: 0xFB80, symBinAddr: 0x4FF30, symSize: 0x170 }
  - { offset: 0x12AE02, size: 0x8, addend: 0x0, symName: __ZN5alloc5alloc15exchange_malloc17hdc54b6ad35f557b1E, symObjAddr: 0x452D0, symBinAddr: 0x61910, symSize: 0x40 }
  - { offset: 0x12BC64, size: 0x8, addend: 0x0, symName: '__ZN64_$LT$alloc..ffi..c_str..NulError$u20$as$u20$core..fmt..Debug$GT$3fmt17h42a8844572b8105bE', symObjAddr: 0x524F0, symBinAddr: 0x6B470, symSize: 0x50 }
  - { offset: 0x12C10C, size: 0x8, addend: 0x0, symName: '__ZN5alloc11collections5btree3map25IntoIter$LT$K$C$V$C$A$GT$10dying_next17h0137cfdaf279346fE', symObjAddr: 0x40430, symBinAddr: 0x60EC0, symSize: 0x3C0 }
  - { offset: 0x12C478, size: 0x8, addend: 0x0, symName: '__ZN5alloc11collections5btree3map25IntoIter$LT$K$C$V$C$A$GT$10dying_next17h74ba4dc90cd3bd84E', symObjAddr: 0x407F0, symBinAddr: 0x61280, symSize: 0x3C0 }
  - { offset: 0x12D1B6, size: 0x8, addend: 0x0, symName: '__ZN5alloc7raw_vec19RawVec$LT$T$C$A$GT$8grow_one17h1578391f1dd2c7daE', symObjAddr: 0x45380, symBinAddr: 0x61950, symSize: 0xC0 }
  - { offset: 0x12D2CC, size: 0x8, addend: 0x0, symName: '__ZN5alloc7raw_vec19RawVec$LT$T$C$A$GT$8grow_one17h1a8e605a6c9c7a9cE', symObjAddr: 0x45440, symBinAddr: 0x61A10, symSize: 0xC0 }
  - { offset: 0x12D3F7, size: 0x8, addend: 0x0, symName: '__ZN5alloc7raw_vec19RawVec$LT$T$C$A$GT$8grow_one17h496d6c99f941dcd8E', symObjAddr: 0x45500, symBinAddr: 0x61AD0, symSize: 0xB0 }
  - { offset: 0x12D50D, size: 0x8, addend: 0x0, symName: '__ZN5alloc7raw_vec19RawVec$LT$T$C$A$GT$8grow_one17h62d92001f5fd4088E', symObjAddr: 0x455B0, symBinAddr: 0x61B80, symSize: 0xC0 }
  - { offset: 0x12D623, size: 0x8, addend: 0x0, symName: '__ZN5alloc7raw_vec19RawVec$LT$T$C$A$GT$8grow_one17h882f0afd17fb4cf1E', symObjAddr: 0x45670, symBinAddr: 0x61C40, symSize: 0xC0 }
  - { offset: 0x12D74E, size: 0x8, addend: 0x0, symName: '__ZN5alloc7raw_vec19RawVec$LT$T$C$A$GT$8grow_one17h9215a3a3eddacbe8E', symObjAddr: 0x45730, symBinAddr: 0x61D00, symSize: 0xC0 }
  - { offset: 0x12D864, size: 0x8, addend: 0x0, symName: '__ZN5alloc7raw_vec19RawVec$LT$T$C$A$GT$8grow_one17h944deff35e2917e9E', symObjAddr: 0x457F0, symBinAddr: 0x61DC0, symSize: 0xC0 }
  - { offset: 0x12D98F, size: 0x8, addend: 0x0, symName: '__ZN5alloc7raw_vec19RawVec$LT$T$C$A$GT$8grow_one17h9e141b6ec2b6b304E', symObjAddr: 0x458B0, symBinAddr: 0x61E80, symSize: 0xB0 }
  - { offset: 0x12DAA5, size: 0x8, addend: 0x0, symName: '__ZN5alloc7raw_vec19RawVec$LT$T$C$A$GT$8grow_one17haba969b9d90e429dE', symObjAddr: 0x45960, symBinAddr: 0x61F30, symSize: 0xC0 }
  - { offset: 0x12DBD0, size: 0x8, addend: 0x0, symName: '__ZN5alloc7raw_vec19RawVec$LT$T$C$A$GT$8grow_one17hea102eabff85231dE', symObjAddr: 0x45AD0, symBinAddr: 0x61FF0, symSize: 0xB0 }
  - { offset: 0x12DCE6, size: 0x8, addend: 0x0, symName: '__ZN5alloc7raw_vec19RawVec$LT$T$C$A$GT$8grow_one17hf1b3041c36e8ca25E', symObjAddr: 0x45B80, symBinAddr: 0x620A0, symSize: 0xB0 }
  - { offset: 0x12E024, size: 0x8, addend: 0x0, symName: __ZN5alloc7raw_vec11finish_grow17h446b951c64c58a29E, symObjAddr: 0x45310, symBinAddr: 0x83550, symSize: 0x70 }
  - { offset: 0x12E0B0, size: 0x8, addend: 0x0, symName: '__ZN5alloc7raw_vec20RawVecInner$LT$A$GT$7reserve21do_reserve_and_handle17ha31d691a92aa6984E', symObjAddr: 0x45C30, symBinAddr: 0x835C0, symSize: 0xE0 }
  - { offset: 0x12E368, size: 0x8, addend: 0x0, symName: '__ZN58_$LT$alloc..string..String$u20$as$u20$core..fmt..Debug$GT$3fmt17hc75db25d6de527ebE', symObjAddr: 0x3CEA0, symBinAddr: 0x60D00, symSize: 0x20 }
  - { offset: 0x12E423, size: 0x8, addend: 0x0, symName: '__ZN58_$LT$alloc..string..String$u20$as$u20$core..fmt..Write$GT$10write_char17hba3be11e36d4a54fE', symObjAddr: 0x3CEC0, symBinAddr: 0x60D20, symSize: 0x120 }
  - { offset: 0x12E5A9, size: 0x8, addend: 0x0, symName: '__ZN58_$LT$alloc..string..String$u20$as$u20$core..fmt..Write$GT$9write_str17h0e3a6c0844845614E', symObjAddr: 0x3CFE0, symBinAddr: 0x60E40, symSize: 0x70 }
  - { offset: 0x12E6A3, size: 0x8, addend: 0x0, symName: '__ZN60_$LT$alloc..string..String$u20$as$u20$core..fmt..Display$GT$3fmt17h3ce6768c6f20d89dE', symObjAddr: 0x4EC80, symBinAddr: 0x6B0C0, symSize: 0x20 }
  - { offset: 0x12EB16, size: 0x8, addend: 0x0, symName: '__ZN5alloc4sync16Arc$LT$T$C$A$GT$9drop_slow17h165e22aa5ecb5c14E', symObjAddr: 0x44F90, symBinAddr: 0x61640, symSize: 0x90 }
  - { offset: 0x12EE12, size: 0x8, addend: 0x0, symName: '__ZN5alloc4sync16Arc$LT$T$C$A$GT$9drop_slow17h1b88c69b37654d90E', symObjAddr: 0x45020, symBinAddr: 0x616D0, symSize: 0xA0 }
  - { offset: 0x12F01B, size: 0x8, addend: 0x0, symName: '__ZN5alloc4sync16Arc$LT$T$C$A$GT$9drop_slow17h38a2709360a70488E', symObjAddr: 0x450C0, symBinAddr: 0x61770, symSize: 0x60 }
  - { offset: 0x12F1E3, size: 0x8, addend: 0x0, symName: '__ZN5alloc4sync16Arc$LT$T$C$A$GT$9drop_slow17h4fe547a59c8e5f5cE', symObjAddr: 0x45120, symBinAddr: 0x617D0, symSize: 0x30 }
  - { offset: 0x12F2C4, size: 0x8, addend: 0x0, symName: '__ZN5alloc4sync16Arc$LT$T$C$A$GT$9drop_slow17h5dbc3385cf3806bdE', symObjAddr: 0x45150, symBinAddr: 0x61800, symSize: 0x70 }
  - { offset: 0x12F46A, size: 0x8, addend: 0x0, symName: '__ZN5alloc4sync16Arc$LT$T$C$A$GT$9drop_slow17h6f3c55e925f13c23E', symObjAddr: 0x451C0, symBinAddr: 0x61870, symSize: 0xA0 }
  - { offset: 0x13003C, size: 0x8, addend: 0x0, symName: __ZN6object4read7archive13ArchiveMember5parse17hd3e51da29e5488c1E, symObjAddr: 0x53F80, symBinAddr: 0x6B750, symSize: 0x350 }
  - { offset: 0x130793, size: 0x8, addend: 0x0, symName: __ZN6object4read7archive23parse_bsd_extended_name17h1aeb333c92faa5e9E, symObjAddr: 0x542D0, symBinAddr: 0x6BAA0, symSize: 0xB0 }
  - { offset: 0x130BA7, size: 0x8, addend: 0x0, symName: '__ZN9addr2line4unit16ResUnit$LT$R$GT$25find_function_or_location28_$u7b$$u7b$closure$u7d$$u7d$17h74f8b46b09233272E', symObjAddr: 0x5B2C0, symBinAddr: 0x6D950, symSize: 0x2F0 }
  - { offset: 0x130F4D, size: 0x8, addend: 0x0, symName: '__ZN9addr2line4unit16ResUnit$LT$R$GT$25find_function_or_location17h779b8cc8975ca827E', symObjAddr: 0x5AE20, symBinAddr: 0x6D4B0, symSize: 0x4A0 }
  - { offset: 0x131478, size: 0x8, addend: 0x0, symName: '__ZN9addr2line16Context$LT$R$GT$9find_unit17hafe5c4000e4dcc90E', symObjAddr: 0x5A630, symBinAddr: 0x6CCC0, symSize: 0x150 }
  - { offset: 0x13165D, size: 0x8, addend: 0x0, symName: '__ZN9addr2line6lookup30LoopingLookup$LT$T$C$L$C$F$GT$10new_lookup17hcb3afea57a5db3abE', symObjAddr: 0x5B900, symBinAddr: 0x6DF90, symSize: 0x530 }
  - { offset: 0x131B85, size: 0x8, addend: 0x0, symName: __ZN9addr2line4line11render_file17h1c7a4084725a11a9E, symObjAddr: 0x5A780, symBinAddr: 0x6CE10, symSize: 0x6A0 }
  - { offset: 0x13251B, size: 0x8, addend: 0x0, symName: '__ZN9addr2line8function17Function$LT$R$GT$14parse_children17h1b46ddfba7fb182cE', symObjAddr: 0x5C240, symBinAddr: 0x6E8D0, symSize: 0x1390 }
  - { offset: 0x133B37, size: 0x8, addend: 0x0, symName: __ZN9addr2line8function10name_entry17h5deb9017d935ead1E, symObjAddr: 0x5BE30, symBinAddr: 0x6E4C0, symSize: 0x410 }
  - { offset: 0x133F93, size: 0x8, addend: 0x0, symName: __ZN9addr2line8function9name_attr17hc5ba8693362fa215E, symObjAddr: 0x5D5D0, symBinAddr: 0x6FC60, symSize: 0x1B0 }
  - { offset: 0x1341B8, size: 0x8, addend: 0x0, symName: '__ZN9addr2line5frame18FrameIter$LT$R$GT$4next17h7dae5ed4e94f9885E', symObjAddr: 0x5B5B0, symBinAddr: 0x6DC40, symSize: 0x350 }
  - { offset: 0x134A6B, size: 0x8, addend: 0x0, symName: '__ZN5gimli4read5dwarf14Dwarf$LT$R$GT$11attr_string17hc5d4d70dcc99f435E', symObjAddr: 0x4CCF0, symBinAddr: 0x69130, symSize: 0x210 }
  - { offset: 0x135288, size: 0x8, addend: 0x0, symName: '__ZN5gimli4read5dwarf13Unit$LT$R$GT$3new17h575ffe3f9752d03fE', symObjAddr: 0x4A4A0, symBinAddr: 0x668E0, symSize: 0x2850 }
  - { offset: 0x138803, size: 0x8, addend: 0x0, symName: '__ZN5gimli4read7aranges30ArangeHeader$LT$R$C$Offset$GT$5parse17h9e159263f6fe8401E', symObjAddr: 0x4DA20, symBinAddr: 0x69E60, symSize: 0x2A0 }
  - { offset: 0x139306, size: 0x8, addend: 0x0, symName: '__ZN5gimli4read4unit18Attribute$LT$R$GT$5value17h523c462abedaae9bE', symObjAddr: 0x492D0, symBinAddr: 0x65710, symSize: 0x7C0 }
  - { offset: 0x139711, size: 0x8, addend: 0x0, symName: '__ZN90_$LT$gimli..read..unit..AttributeValue$LT$R$C$Offset$GT$$u20$as$u20$core..clone..Clone$GT$5clone17h098c211905b07158E', symObjAddr: 0x590A0, symBinAddr: 0x6C3D0, symSize: 0x120 }
  - { offset: 0x139771, size: 0x8, addend: 0x0, symName: '__ZN5gimli4read4unit32AttributeValue$LT$R$C$Offset$GT$11udata_value17h684c5d824dd1bde2E', symObjAddr: 0x49DC0, symBinAddr: 0x66200, symSize: 0x80 }
  - { offset: 0x1397CC, size: 0x8, addend: 0x0, symName: __ZN5gimli4read4unit15parse_attribute17h3d2d3a95c0efe23eE, symObjAddr: 0x47250, symBinAddr: 0x63690, symSize: 0x1960 }
  - { offset: 0x13CB67, size: 0x8, addend: 0x0, symName: __ZN5gimli4read4unit15skip_attributes17h92846bd14a53eed5E, symObjAddr: 0x48BB0, symBinAddr: 0x64FF0, symSize: 0x720 }
  - { offset: 0x13D535, size: 0x8, addend: 0x0, symName: '__ZN5gimli4read4unit22EntriesCursor$LT$R$GT$10next_entry17hd847dc3188d94e5bE', symObjAddr: 0x49A90, symBinAddr: 0x65ED0, symSize: 0x330 }
  - { offset: 0x13DA7C, size: 0x8, addend: 0x0, symName: '__ZN5gimli4read4unit33DebugInfoUnitHeadersIter$LT$R$GT$4next17hed0a8460df0391bfE', symObjAddr: 0x49E40, symBinAddr: 0x66280, symSize: 0x660 }
  - { offset: 0x13EC59, size: 0x8, addend: 0x0, symName: __ZN5gimli4read6reader6Reader11read_offset17h5a1a189216526f37E, symObjAddr: 0x4D790, symBinAddr: 0x69BD0, symSize: 0xB0 }
  - { offset: 0x13EE96, size: 0x8, addend: 0x0, symName: __ZN5gimli4read6reader6Reader12read_uleb12817hf97552d5eed3df2dE, symObjAddr: 0x4D840, symBinAddr: 0x69C80, symSize: 0xB0 }
  - { offset: 0x13EF44, size: 0x8, addend: 0x0, symName: __ZN5gimli4read6reader6Reader17read_sized_offset17h97b79870f9951699E, symObjAddr: 0x4D8F0, symBinAddr: 0x69D30, symSize: 0x130 }
  - { offset: 0x13F614, size: 0x8, addend: 0x0, symName: '__ZN5gimli4read8rnglists20RngListIter$LT$R$GT$4next17h8b60fae141bf2d6cE', symObjAddr: 0x4DCC0, symBinAddr: 0x6A100, symSize: 0xFC0 }
  - { offset: 0x141CDC, size: 0x8, addend: 0x0, symName: '__ZN5gimli4read5index18UnitIndex$LT$R$GT$5parse17h95a74f9af645c1edE', symObjAddr: 0x4CF00, symBinAddr: 0x69340, symSize: 0x890 }
  - { offset: 0x141CF9, size: 0x8, addend: 0x0, symName: '__ZN5gimli4read5index18UnitIndex$LT$R$GT$5parse17h95a74f9af645c1edE', symObjAddr: 0x4CF00, symBinAddr: 0x69340, symSize: 0x890 }
  - { offset: 0x141D0D, size: 0x8, addend: 0x0, symName: '__ZN5gimli4read5index18UnitIndex$LT$R$GT$5parse17h95a74f9af645c1edE', symObjAddr: 0x4CF00, symBinAddr: 0x69340, symSize: 0x890 }
  - { offset: 0x1423D2, size: 0x8, addend: 0x0, symName: '__ZN5gimli4read4line27FileEntry$LT$R$C$Offset$GT$5parse17hd9bc2270faf33decE', symObjAddr: 0x46FF0, symBinAddr: 0x63430, symSize: 0x260 }
  - { offset: 0x14261E, size: 0x8, addend: 0x0, symName: __ZN5gimli4read4line13parse_file_v517hd02b9988ac8f9c5bE, symObjAddr: 0x45D10, symBinAddr: 0x62150, symSize: 0x350 }
  - { offset: 0x142797, size: 0x8, addend: 0x0, symName: __ZN5gimli4read4line15FileEntryFormat5parse17h2a60ff0d29a79605E, symObjAddr: 0x46060, symBinAddr: 0x624A0, symSize: 0x3B0 }
  - { offset: 0x142F31, size: 0x8, addend: 0x0, symName: __ZN5gimli4read4line15parse_attribute17h7d59469e6c7378d7E, symObjAddr: 0x46410, symBinAddr: 0x62850, symSize: 0xAD0 }
  - { offset: 0x144936, size: 0x8, addend: 0x0, symName: __ZN5gimli4read4line18parse_directory_v517hb56c57b85d13b5daE, symObjAddr: 0x46EE0, symBinAddr: 0x63320, symSize: 0x110 }
  - { offset: 0x144BBE, size: 0x8, addend: 0x0, symName: __RNvCskdKJRKLKjqM_7___rustc18___rust_start_panic, symObjAddr: 0x0, symBinAddr: 0x70450, symSize: 0xB0 }
  - { offset: 0x144C99, size: 0x8, addend: 0x0, symName: __ZN12panic_unwind3imp5panic17exception_cleanup17hb98a4cfa7a07ae95E, symObjAddr: 0x100, symBinAddr: 0x70550, symSize: 0x20 }
  - { offset: 0x144CB5, size: 0x8, addend: 0x0, symName: __RNvCskdKJRKLKjqM_7___rustc18___rust_start_panic, symObjAddr: 0x0, symBinAddr: 0x70450, symSize: 0xB0 }
  - { offset: 0x144D3F, size: 0x8, addend: 0x0, symName: __RNvCskdKJRKLKjqM_7___rustc20___rust_panic_cleanup, symObjAddr: 0xB0, symBinAddr: 0x70500, symSize: 0x50 }
  - { offset: 0x144DE2, size: 0x8, addend: 0x0, symName: '__ZN4core3ptr49drop_in_place$LT$panic_unwind..imp..Exception$GT$17h0f7b2fc4f2fea7f1E', symObjAddr: 0x120, symBinAddr: 0x70570, symSize: 0x70 }
  - { offset: 0x144EE9, size: 0x8, addend: 0x0, symName: '__ZN4core3ptr74drop_in_place$LT$alloc..boxed..Box$LT$panic_unwind..imp..Exception$GT$$GT$17hcd43110ac76b9736E', symObjAddr: 0x190, symBinAddr: 0x705E0, symSize: 0x89 }
  - { offset: 0x145333, size: 0x8, addend: 0x0, symName: __ZN6memchr4arch6x86_646memchr10memchr_raw6detect17h2099730146b20b08E, symObjAddr: 0xF90, symBinAddr: 0x70990, symSize: 0x1C0 }
  - { offset: 0x1458E8, size: 0x8, addend: 0x0, symName: __ZN6memchr4arch6x86_646memchr10memchr_raw9find_sse217ha1fdf339af5e94d5E, symObjAddr: 0x1150, symBinAddr: 0x70B50, symSize: 0x1B0 }
  - { offset: 0x145E73, size: 0x8, addend: 0x0, symName: __ZN6memchr4arch6x86_646memchr11memchr2_raw6detect17h84a70ada683e86a1E, symObjAddr: 0x1300, symBinAddr: 0x70D00, symSize: 0x1A0 }
  - { offset: 0x146506, size: 0x8, addend: 0x0, symName: __ZN6memchr4arch6x86_646memchr11memchr2_raw9find_sse217hc70ae4e2a27bbbefE, symObjAddr: 0x14A0, symBinAddr: 0x70EA0, symSize: 0x1A0 }
  - { offset: 0x146C67, size: 0x8, addend: 0x0, symName: __ZN9hashbrown3raw11Fallibility17capacity_overflow17hc92e32d4ab7d6e63E, symObjAddr: 0x170, symBinAddr: 0x78540, symSize: 0x50 }
  - { offset: 0x146C96, size: 0x8, addend: 0x0, symName: __ZN9hashbrown3raw11Fallibility9alloc_err17h8d4ad82e4949f018E, symObjAddr: 0x1C0, symBinAddr: 0x78590, symSize: 0x20 }
  - { offset: 0x146D35, size: 0x8, addend: 0x0, symName: __ZN4core3fmt5Write9write_fmt17hde1139b32b86906dE, symObjAddr: 0x1A0, symBinAddr: 0x785F0, symSize: 0x50 }
  - { offset: 0x146D77, size: 0x8, addend: 0x0, symName: '__ZN53_$LT$core..fmt..Error$u20$as$u20$core..fmt..Debug$GT$3fmt17hc4ce8d9026949125E', symObjAddr: 0x5A0, symBinAddr: 0x78660, symSize: 0x20 }
  - { offset: 0x146EDE, size: 0x8, addend: 0x0, symName: '__ZN69_$LT$core..alloc..layout..LayoutError$u20$as$u20$core..fmt..Debug$GT$3fmt17hb904d59a11340822E', symObjAddr: 0x57F0, symBinAddr: 0x79040, symSize: 0x20 }
  - { offset: 0x146F53, size: 0x8, addend: 0x0, symName: '__ZN4core3ptr42drop_in_place$LT$alloc..string..String$GT$17hb78d7b2b342e8423E', symObjAddr: 0x210, symBinAddr: 0x78640, symSize: 0x20 }
  - { offset: 0x1472FD, size: 0x8, addend: 0x0, symName: __ZN5alloc5alloc18handle_alloc_error17h3762db9dd870b9a9E, symObjAddr: 0x35BA, symBinAddr: 0x8381A, symSize: 0x16 }
  - { offset: 0x1475A1, size: 0x8, addend: 0x0, symName: '__ZN5alloc7raw_vec19RawVec$LT$T$C$A$GT$8grow_one17h1061c265cdf9127fE', symObjAddr: 0x5390, symBinAddr: 0x78E90, symSize: 0xA0 }
  - { offset: 0x1476E0, size: 0x8, addend: 0x0, symName: __ZN5alloc7raw_vec11finish_grow17h3ef34721aec5e3b7E, symObjAddr: 0x52C0, symBinAddr: 0x83830, symSize: 0x6E }
  - { offset: 0x147755, size: 0x8, addend: 0x0, symName: __ZN5alloc7raw_vec12handle_error17h937a4fa340d4a4b8E, symObjAddr: 0x532E, symBinAddr: 0x8389E, symSize: 0x22 }
  - { offset: 0x147794, size: 0x8, addend: 0x0, symName: __ZN5alloc7raw_vec17capacity_overflow17hfafd9746150329d6E, symObjAddr: 0x5350, symBinAddr: 0x838C0, symSize: 0x40 }
  - { offset: 0x1477CD, size: 0x8, addend: 0x0, symName: '__ZN5alloc7raw_vec20RawVecInner$LT$A$GT$7reserve21do_reserve_and_handle17h05c0f4d79cdd84bfE', symObjAddr: 0x5430, symBinAddr: 0x83900, symSize: 0xB0 }
  - { offset: 0x147959, size: 0x8, addend: 0x0, symName: '__ZN254_$LT$alloc..boxed..convert..$LT$impl$u20$core..convert..From$LT$alloc..string..String$GT$$u20$for$u20$alloc..boxed..Box$LT$dyn$u20$core..error..Error$u2b$core..marker..Sync$u2b$core..marker..Send$GT$$GT$..from..StringError$u20$as$u20$core..fmt..Debug$GT$3fmt17hcf569323b84bf267E', symObjAddr: 0x140, symBinAddr: 0x785B0, symSize: 0x20 }
  - { offset: 0x147A2A, size: 0x8, addend: 0x0, symName: '__ZN256_$LT$alloc..boxed..convert..$LT$impl$u20$core..convert..From$LT$alloc..string..String$GT$$u20$for$u20$alloc..boxed..Box$LT$dyn$u20$core..error..Error$u2b$core..marker..Sync$u2b$core..marker..Send$GT$$GT$..from..StringError$u20$as$u20$core..fmt..Display$GT$3fmt17h1b1a69dfec465030E', symObjAddr: 0x160, symBinAddr: 0x785D0, symSize: 0x20 }
  - { offset: 0x147AFE, size: 0x8, addend: 0x0, symName: '__ZN67_$LT$alloc..boxed..Box$LT$str$GT$$u20$as$u20$core..clone..Clone$GT$5clone17h2a21f7d514229467E', symObjAddr: 0x5740, symBinAddr: 0x78FC0, symSize: 0x80 }
  - { offset: 0x147C63, size: 0x8, addend: 0x0, symName: __ZN5alloc3ffi5c_str7CString19_from_vec_unchecked17ha526334e500b1abdE, symObjAddr: 0xC50, symBinAddr: 0x78860, symSize: 0x120 }
  - { offset: 0x147FB3, size: 0x8, addend: 0x0, symName: __ZN5alloc3ffi5c_str7CString19into_bytes_with_nul17h6055e6c7adaadc39E, symObjAddr: 0xD70, symBinAddr: 0x78980, symSize: 0x20 }
  - { offset: 0x148018, size: 0x8, addend: 0x0, symName: '__ZN72_$LT$$RF$str$u20$as$u20$alloc..ffi..c_str..CString..new..SpecNewImpl$GT$13spec_new_impl17h86c6e2e3ca147532E', symObjAddr: 0x5810, symBinAddr: 0x79060, symSize: 0x120 }
  - { offset: 0x148443, size: 0x8, addend: 0x0, symName: '__ZN5alloc3vec16Vec$LT$T$C$A$GT$9split_off13assert_failed17h16d721080282630dE', symObjAddr: 0x262D, symBinAddr: 0x837AD, symSize: 0x63 }
  - { offset: 0x148521, size: 0x8, addend: 0x0, symName: __ZN5alloc6string6String15from_utf8_lossy17h0471d885b3e9b3ebE, symObjAddr: 0x4790, symBinAddr: 0x78C20, symSize: 0x270 }
  - { offset: 0x148BBF, size: 0x8, addend: 0x0, symName: '__ZN58_$LT$alloc..string..String$u20$as$u20$core..fmt..Write$GT$10write_char17hba3be11e36d4a54fE', symObjAddr: 0x620, symBinAddr: 0x78680, symSize: 0x110 }
  - { offset: 0x148D45, size: 0x8, addend: 0x0, symName: '__ZN58_$LT$alloc..string..String$u20$as$u20$core..fmt..Write$GT$9write_str17h0e3a6c0844845614E', symObjAddr: 0x730, symBinAddr: 0x78790, symSize: 0x60 }
  - { offset: 0x148E4D, size: 0x8, addend: 0x0, symName: '__ZN98_$LT$alloc..string..String$u20$as$u20$core..convert..From$LT$alloc..borrow..Cow$LT$str$GT$$GT$$GT$4from17h1463175ae5508b78E', symObjAddr: 0x61F0, symBinAddr: 0x79180, symSize: 0xAB }
  - { offset: 0x148FDD, size: 0x8, addend: 0x0, symName: '__ZN60_$LT$alloc..string..String$u20$as$u20$core..clone..Clone$GT$5clone17hd38a3a1339e7125eE', symObjAddr: 0x5550, symBinAddr: 0x78F30, symSize: 0x90 }
  - { offset: 0x149168, size: 0x8, addend: 0x0, symName: __ZN5alloc2rc32rc_inner_layout_for_value_layout17h8ad5cbac25dc62d9E, symObjAddr: 0x7C0, symBinAddr: 0x787F0, symSize: 0x70 }
  - { offset: 0x14917F, size: 0x8, addend: 0x0, symName: __ZN5alloc2rc32rc_inner_layout_for_value_layout17h8ad5cbac25dc62d9E, symObjAddr: 0x7C0, symBinAddr: 0x787F0, symSize: 0x70 }
  - { offset: 0x149194, size: 0x8, addend: 0x0, symName: __ZN5alloc2rc32rc_inner_layout_for_value_layout17h8ad5cbac25dc62d9E, symObjAddr: 0x7C0, symBinAddr: 0x787F0, symSize: 0x70 }
  - { offset: 0x1492B2, size: 0x8, addend: 0x0, symName: __ZN5alloc3fmt6format12format_inner17h3a5f8b83fd90200fE, symObjAddr: 0xE40, symBinAddr: 0x789A0, symSize: 0x210 }
  - { offset: 0x149529, size: 0x8, addend: 0x0, symName: __ZN5alloc4sync32arcinner_layout_for_value_layout17h6aceeaaa01c07cfaE, symObjAddr: 0x2690, symBinAddr: 0x78BB0, symSize: 0x70 }
  - { offset: 0x149540, size: 0x8, addend: 0x0, symName: __ZN5alloc4sync32arcinner_layout_for_value_layout17h6aceeaaa01c07cfaE, symObjAddr: 0x2690, symBinAddr: 0x78BB0, symSize: 0x70 }
  - { offset: 0x149555, size: 0x8, addend: 0x0, symName: __ZN5alloc4sync32arcinner_layout_for_value_layout17h6aceeaaa01c07cfaE, symObjAddr: 0x2690, symBinAddr: 0x78BB0, symSize: 0x70 }
  - { offset: 0x14967E, size: 0x8, addend: 0x0, symName: '__ZN71_$LT$core..ops..range..Range$LT$Idx$GT$$u20$as$u20$core..fmt..Debug$GT$3fmt17hc330239f60cc9eb3E', symObjAddr: 0x1F4B0, symBinAddr: 0x7D980, symSize: 0x50 }
  - { offset: 0x1498F5, size: 0x8, addend: 0x0, symName: '__ZN4core4char7methods22_$LT$impl$u20$char$GT$16escape_debug_ext17hb449749641e3affeE', symObjAddr: 0x176B0, symBinAddr: 0x7CCC0, symSize: 0x2D0 }
  - { offset: 0x149AED, size: 0x8, addend: 0x0, symName: __ZN4core4char7methods15encode_utf8_raw8do_panic7runtime17hb720cf973e12fcdfE, symObjAddr: 0x17590, symBinAddr: 0x83B10, symSize: 0x90 }
  - { offset: 0x149C9B, size: 0x8, addend: 0x0, symName: __ZN4core3num22from_ascii_radix_panic8do_panic7runtime17hf55c31c541c87b43E, symObjAddr: 0xD980, symBinAddr: 0x839C0, symSize: 0x60 }
  - { offset: 0x149CCE, size: 0x8, addend: 0x0, symName: __ZN4core3num22from_ascii_radix_panic17h56065ab58d046821E, symObjAddr: 0xD970, symBinAddr: 0x839B0, symSize: 0x10 }
  - { offset: 0x149D2A, size: 0x8, addend: 0x0, symName: '__ZN70_$LT$core..num..error..ParseIntError$u20$as$u20$core..fmt..Display$GT$3fmt17ha413d299885259deE', symObjAddr: 0x1F0B0, symBinAddr: 0x7D950, symSize: 0x30 }
  - { offset: 0x149FCE, size: 0x8, addend: 0x0, symName: __ZN4core6option13expect_failed17h1ec281f12b35982eE, symObjAddr: 0x18040, symBinAddr: 0x83E10, symSize: 0x60 }
  - { offset: 0x14A016, size: 0x8, addend: 0x0, symName: __ZN4core6option13unwrap_failed17hd0abc7d118070f58E, symObjAddr: 0x180A0, symBinAddr: 0x83E70, symSize: 0x20 }
  - { offset: 0x14A1A3, size: 0x8, addend: 0x0, symName: __ZN4core5ascii14escape_default17h0a6aca021d957f3eE, symObjAddr: 0x17A60, symBinAddr: 0x7CFC0, symSize: 0x80 }
  - { offset: 0x14A3CF, size: 0x8, addend: 0x0, symName: '__ZN4core5slice29_$LT$impl$u20$$u5b$T$u5d$$GT$15copy_from_slice17len_mismatch_fail8do_panic7runtime17hb32068666e296a35E', symObjAddr: 0x17B00, symBinAddr: 0x83BC0, symSize: 0x70 }
  - { offset: 0x14A402, size: 0x8, addend: 0x0, symName: '__ZN4core5slice29_$LT$impl$u20$$u5b$T$u5d$$GT$15copy_from_slice17len_mismatch_fail17he7a976f8c4d5df82E', symObjAddr: 0x17AE0, symBinAddr: 0x83BA0, symSize: 0x20 }
  - { offset: 0x14A65C, size: 0x8, addend: 0x0, symName: __ZN4core5slice5index16slice_index_fail8do_panic7runtime17h41282b038f05ddfaE, symObjAddr: 0x17D00, symBinAddr: 0x83CC0, symSize: 0x70 }
  - { offset: 0x14A68D, size: 0x8, addend: 0x0, symName: __ZN4core5slice5index16slice_index_fail8do_panic7runtime17haaf49c781c78a5c0E, symObjAddr: 0x17D70, symBinAddr: 0x83D30, symSize: 0x70 }
  - { offset: 0x14A6BE, size: 0x8, addend: 0x0, symName: __ZN4core5slice5index16slice_index_fail8do_panic7runtime17hae4da62edc07a39fE, symObjAddr: 0x17DE0, symBinAddr: 0x83DA0, symSize: 0x70 }
  - { offset: 0x14A6F1, size: 0x8, addend: 0x0, symName: __ZN4core5slice5index16slice_index_fail17h1a065c4e1a1e0b41E, symObjAddr: 0x17CC0, symBinAddr: 0x83C80, symSize: 0x40 }
  - { offset: 0x14A79D, size: 0x8, addend: 0x0, symName: __ZN4core5slice6memchr14memchr_aligned17hbe324882bd8e8f20E, symObjAddr: 0x17E50, symBinAddr: 0x7D070, symSize: 0xE0 }
  - { offset: 0x14A897, size: 0x8, addend: 0x0, symName: __ZN4core5slice6memchr7memrchr17h3060eb51c807ecd7E, symObjAddr: 0x17F30, symBinAddr: 0x7D150, symSize: 0x110 }
  - { offset: 0x14AA87, size: 0x8, addend: 0x0, symName: __ZN4core5slice4sort6shared9smallsort22panic_on_ord_violation17hd9a4c3c4a8ebe09aE, symObjAddr: 0x17BA0, symBinAddr: 0x83C30, symSize: 0x50 }
  - { offset: 0x14AAC4, size: 0x8, addend: 0x0, symName: __ZN4core5slice4sort6stable5drift11sqrt_approx17h5b54c8126d8482dbE, symObjAddr: 0x17BF0, symBinAddr: 0x7D040, symSize: 0x30 }
  - { offset: 0x14ABB9, size: 0x8, addend: 0x0, symName: __ZN4core3fmt9Formatter10debug_list17h9d2456a350d67ad8E, symObjAddr: 0xA1C0, symBinAddr: 0x7AC60, symSize: 0x40 }
  - { offset: 0x14ABF9, size: 0x8, addend: 0x0, symName: __ZN4core3fmt9Formatter11debug_tuple17hdcc53271f394ac41E, symObjAddr: 0xA200, symBinAddr: 0x7ACA0, symSize: 0x50 }
  - { offset: 0x14AC4E, size: 0x8, addend: 0x0, symName: __ZN4core3fmt9Formatter12debug_struct17h8c9b9889fabaa42eE, symObjAddr: 0xA250, symBinAddr: 0x7ACF0, symSize: 0x40 }
  - { offset: 0x14ACB7, size: 0x8, addend: 0x0, symName: __ZN4core3fmt9Formatter12pad_integral17h5b6fb6906b7fe010E, symObjAddr: 0xA2F0, symBinAddr: 0x7AD90, symSize: 0x4A0 }
  - { offset: 0x14AF46, size: 0x8, addend: 0x0, symName: __ZN4core3fmt9Formatter25debug_tuple_field1_finish17hc108d765633dc1f9E, symObjAddr: 0xACB0, symBinAddr: 0x7B230, symSize: 0x140 }
  - { offset: 0x14B14E, size: 0x8, addend: 0x0, symName: __ZN4core3fmt9Formatter25debug_tuple_field2_finish17h3020954311064adeE, symObjAddr: 0xADF0, symBinAddr: 0x7B370, symSize: 0x1A0 }
  - { offset: 0x14B446, size: 0x8, addend: 0x0, symName: __ZN4core3fmt9Formatter26debug_struct_field1_finish17h161bc6caec1550cdE, symObjAddr: 0xBA70, symBinAddr: 0x7B510, symSize: 0xB0 }
  - { offset: 0x14B51D, size: 0x8, addend: 0x0, symName: __ZN4core3fmt9Formatter26debug_struct_field2_finish17h9392189e9ab00f59E, symObjAddr: 0xBB20, symBinAddr: 0x7B5C0, symSize: 0xD0 }
  - { offset: 0x14B5F4, size: 0x8, addend: 0x0, symName: __ZN4core3fmt9Formatter3pad17h37b5dfd85e2b0428E, symObjAddr: 0xC000, symBinAddr: 0x7B690, symSize: 0x3D0 }
  - { offset: 0x14B866, size: 0x8, addend: 0x0, symName: __ZN4core3fmt9Formatter9write_str17h532155584af4b419E, symObjAddr: 0xC460, symBinAddr: 0x7BA60, symSize: 0x20 }
  - { offset: 0x14B8D6, size: 0x8, addend: 0x0, symName: __ZN4core3fmt8builders11DebugStruct5field17h99bfe0cd343e038aE, symObjAddr: 0x97F0, symBinAddr: 0x7A910, symSize: 0x190 }
  - { offset: 0x14BAEA, size: 0x8, addend: 0x0, symName: __ZN4core3fmt8builders11DebugStruct6finish17h759eca09f088587cE, symObjAddr: 0x9980, symBinAddr: 0x7AAA0, symSize: 0x60 }
  - { offset: 0x14BC12, size: 0x8, addend: 0x0, symName: __ZN4core3fmt8builders10DebugTuple5field17hcff3261d35d211e6E, symObjAddr: 0x9550, symBinAddr: 0x7A750, symSize: 0x130 }
  - { offset: 0x14BD80, size: 0x8, addend: 0x0, symName: __ZN4core3fmt8builders10DebugTuple6finish17hee865a46ed84494bE, symObjAddr: 0x9680, symBinAddr: 0x7A880, symSize: 0x90 }
  - { offset: 0x14BEBB, size: 0x8, addend: 0x0, symName: __ZN4core3fmt8builders8DebugSet5entry17h9ad4bd41e6760f90E, symObjAddr: 0x9F60, symBinAddr: 0x7AB00, symSize: 0x120 }
  - { offset: 0x14C09C, size: 0x8, addend: 0x0, symName: __ZN4core3fmt8builders9DebugList6finish17he5544af857123449E, symObjAddr: 0xA180, symBinAddr: 0x7AC20, symSize: 0x40 }
  - { offset: 0x14C119, size: 0x8, addend: 0x0, symName: '__ZN68_$LT$core..fmt..builders..PadAdapter$u20$as$u20$core..fmt..Write$GT$10write_char17h8781eb8fef702588E', symObjAddr: 0x1E270, symBinAddr: 0x7D670, symSize: 0x60 }
  - { offset: 0x14C142, size: 0x8, addend: 0x0, symName: '__ZN68_$LT$core..fmt..builders..PadAdapter$u20$as$u20$core..fmt..Write$GT$9write_str17h3ac9bf90fc6b2989E', symObjAddr: 0x1E2D0, symBinAddr: 0x7D6D0, symSize: 0x280 }
  - { offset: 0x14C3A4, size: 0x8, addend: 0x0, symName: '__ZN57_$LT$core..fmt..Formatter$u20$as$u20$core..fmt..Write$GT$10write_char17h4978b0c667a9d8b0E', symObjAddr: 0x1A5E0, symBinAddr: 0x7D5F0, symSize: 0x20 }
  - { offset: 0x14C3E0, size: 0x8, addend: 0x0, symName: '__ZN40_$LT$str$u20$as$u20$core..fmt..Debug$GT$3fmt17h3cbb4b7bcf7be3d7E', symObjAddr: 0x240, symBinAddr: 0x79230, symSize: 0x3A0 }
  - { offset: 0x14C843, size: 0x8, addend: 0x0, symName: '__ZN41_$LT$char$u20$as$u20$core..fmt..Debug$GT$3fmt17h4e11ed1b5452e387E', symObjAddr: 0x5E0, symBinAddr: 0x795D0, symSize: 0xA0 }
  - { offset: 0x14C96C, size: 0x8, addend: 0x0, symName: '__ZN42_$LT$$RF$T$u20$as$u20$core..fmt..Debug$GT$3fmt17h0f40b67a922b1ec5E', symObjAddr: 0x680, symBinAddr: 0x79670, symSize: 0x10 }
  - { offset: 0x14C987, size: 0x8, addend: 0x0, symName: '__ZN42_$LT$$RF$T$u20$as$u20$core..fmt..Debug$GT$3fmt17h7680cd2a2d1e04fdE', symObjAddr: 0x6B0, symBinAddr: 0x79680, symSize: 0x20 }
  - { offset: 0x14C9A9, size: 0x8, addend: 0x0, symName: '__ZN42_$LT$$RF$T$u20$as$u20$core..fmt..Debug$GT$3fmt17h868720066d227907E', symObjAddr: 0x6D0, symBinAddr: 0x796A0, symSize: 0x160 }
  - { offset: 0x14CBD0, size: 0x8, addend: 0x0, symName: '__ZN42_$LT$$RF$T$u20$as$u20$core..fmt..Debug$GT$3fmt17he2aa20ce460ddad7E', symObjAddr: 0x860, symBinAddr: 0x79800, symSize: 0x10 }
  - { offset: 0x14CBF8, size: 0x8, addend: 0x0, symName: '__ZN42_$LT$str$u20$as$u20$core..fmt..Display$GT$3fmt17h83ec9ba80990d67aE', symObjAddr: 0x870, symBinAddr: 0x79810, symSize: 0x20 }
  - { offset: 0x14CC20, size: 0x8, addend: 0x0, symName: '__ZN43_$LT$char$u20$as$u20$core..fmt..Display$GT$3fmt17ha887c9494bff9603E', symObjAddr: 0x8D0, symBinAddr: 0x79830, symSize: 0xC0 }
  - { offset: 0x14CC8F, size: 0x8, addend: 0x0, symName: '__ZN44_$LT$$RF$T$u20$as$u20$core..fmt..Display$GT$3fmt17h1fb02a4f1d7d14b9E', symObjAddr: 0x990, symBinAddr: 0x798F0, symSize: 0x20 }
  - { offset: 0x14CD63, size: 0x8, addend: 0x0, symName: '__ZN4core3fmt3num3imp51_$LT$impl$u20$core..fmt..Display$u20$for$u20$u8$GT$3fmt17h1a13e7c6295dbb75E', symObjAddr: 0x2630, symBinAddr: 0x79AD0, symSize: 0xA0 }
  - { offset: 0x14CE48, size: 0x8, addend: 0x0, symName: '__ZN4core3fmt3num3imp52_$LT$impl$u20$core..fmt..Display$u20$for$u20$i32$GT$3fmt17h4add2573f547cd42E', symObjAddr: 0x27D0, symBinAddr: 0x79B70, symSize: 0x120 }
  - { offset: 0x14CF68, size: 0x8, addend: 0x0, symName: '__ZN4core3fmt3num3imp52_$LT$impl$u20$core..fmt..Display$u20$for$u20$u32$GT$3fmt17haa57ce01fac3917eE', symObjAddr: 0x2B00, symBinAddr: 0x79C90, symSize: 0x110 }
  - { offset: 0x14D075, size: 0x8, addend: 0x0, symName: '__ZN4core3fmt3num3imp52_$LT$impl$u20$core..fmt..Display$u20$for$u20$u64$GT$3fmt17h8b8600c70b3a3ac8E', symObjAddr: 0x2C10, symBinAddr: 0x79DA0, symSize: 0x110 }
  - { offset: 0x14D1B0, size: 0x8, addend: 0x0, symName: '__ZN4core3fmt3num52_$LT$impl$u20$core..fmt..LowerHex$u20$for$u20$u8$GT$3fmt17h39a52b6e10cf70aeE', symObjAddr: 0x4AE0, symBinAddr: 0x7A200, symSize: 0x70 }
  - { offset: 0x14D241, size: 0x8, addend: 0x0, symName: '__ZN4core3fmt3num52_$LT$impl$u20$core..fmt..UpperHex$u20$for$u20$u8$GT$3fmt17h865b83e01c77f87fE', symObjAddr: 0x4BC0, symBinAddr: 0x7A270, symSize: 0x70 }
  - { offset: 0x14D2E5, size: 0x8, addend: 0x0, symName: '__ZN4core3fmt3num53_$LT$impl$u20$core..fmt..UpperHex$u20$for$u20$u32$GT$3fmt17he24323287b2084c2E', symObjAddr: 0x5170, symBinAddr: 0x7A430, symSize: 0x70 }
  - { offset: 0x14D376, size: 0x8, addend: 0x0, symName: '__ZN4core3fmt3num53_$LT$impl$u20$core..fmt..LowerHex$u20$for$u20$u64$GT$3fmt17h3112ef8c0abad7d1E', symObjAddr: 0x4F40, symBinAddr: 0x7A350, symSize: 0x70 }
  - { offset: 0x14D407, size: 0x8, addend: 0x0, symName: '__ZN4core3fmt3num53_$LT$impl$u20$core..fmt..UpperHex$u20$for$u20$u64$GT$3fmt17hf363a6f2e4cad34eE', symObjAddr: 0x51E0, symBinAddr: 0x7A4A0, symSize: 0x70 }
  - { offset: 0x14D48B, size: 0x8, addend: 0x0, symName: '__ZN4core3fmt3num50_$LT$impl$u20$core..fmt..Debug$u20$for$u20$u64$GT$3fmt17h376bce9b57b8a762E', symObjAddr: 0x3E60, symBinAddr: 0x79EB0, symSize: 0x1A0 }
  - { offset: 0x14D61F, size: 0x8, addend: 0x0, symName: '__ZN4core3fmt3num52_$LT$impl$u20$core..fmt..Debug$u20$for$u20$usize$GT$3fmt17h4806199c82f902ceE', symObjAddr: 0x48C0, symBinAddr: 0x7A050, symSize: 0x1B0 }
  - { offset: 0x14D7A0, size: 0x8, addend: 0x0, symName: '__ZN4core3fmt3num53_$LT$impl$u20$core..fmt..LowerHex$u20$for$u20$i32$GT$3fmt17hfee837de970427b1E', symObjAddr: 0x4D80, symBinAddr: 0x7A2E0, symSize: 0x70 }
  - { offset: 0x14D846, size: 0x8, addend: 0x0, symName: '__ZN4core3fmt3num53_$LT$impl$u20$core..fmt..UpperHex$u20$for$u20$i32$GT$3fmt17h26acf60f65152f77E', symObjAddr: 0x5020, symBinAddr: 0x7A3C0, symSize: 0x70 }
  - { offset: 0x14DACF, size: 0x8, addend: 0x0, symName: __ZN4core3fmt17pointer_fmt_inner17h97023b135e02a0e7E, symObjAddr: 0x1240, symBinAddr: 0x79A30, symSize: 0xA0 }
  - { offset: 0x14DBC0, size: 0x8, addend: 0x0, symName: __ZN4core3fmt5Write9write_fmt17h852655db2bea3a71E, symObjAddr: 0x6270, symBinAddr: 0x7A510, symSize: 0x20 }
  - { offset: 0x14DC3F, size: 0x8, addend: 0x0, symName: __ZN4core3fmt5write17h32d512c5550f2c71E, symObjAddr: 0x9280, symBinAddr: 0x7A530, symSize: 0x220 }
  - { offset: 0x14DDED, size: 0x8, addend: 0x0, symName: __ZN4core3fmt9Formatter12pad_integral12write_prefix17he3bb54c358307d3fE, symObjAddr: 0xA290, symBinAddr: 0x7AD30, symSize: 0x60 }
  - { offset: 0x14DE55, size: 0x8, addend: 0x0, symName: '__ZN59_$LT$core..fmt..Arguments$u20$as$u20$core..fmt..Display$GT$3fmt17hfd1b80e04662b19aE', symObjAddr: 0x1B480, symBinAddr: 0x7D610, symSize: 0x20 }
  - { offset: 0x14DF78, size: 0x8, addend: 0x0, symName: __ZN4core6result13unwrap_failed17h5b5681f5bd639151E, symObjAddr: 0x180C0, symBinAddr: 0x83E90, symSize: 0x80 }
  - { offset: 0x14E19A, size: 0x8, addend: 0x0, symName: __ZN4core3str5count14do_count_chars17hc493e781e0338f55E, symObjAddr: 0x16370, symBinAddr: 0x7BE20, symSize: 0x5A0 }
  - { offset: 0x14E5E2, size: 0x8, addend: 0x0, symName: __ZN4core3str5count23char_count_general_case17h45b75eff409d0732E, symObjAddr: 0x16910, symBinAddr: 0x7C3C0, symSize: 0xB0 }
  - { offset: 0x14E636, size: 0x8, addend: 0x0, symName: __ZN4core3str5count23char_count_general_case17h45b75eff409d0732E, symObjAddr: 0x16910, symBinAddr: 0x7C3C0, symSize: 0xB0 }
  - { offset: 0x14E6B3, size: 0x8, addend: 0x0, symName: __ZN4core3str16slice_error_fail17h7ebf3d4aa8bf503fE, symObjAddr: 0x15DF0, symBinAddr: 0x83A20, symSize: 0x10 }
  - { offset: 0x14E6CD, size: 0x8, addend: 0x0, symName: __ZN4core3str19slice_error_fail_rt17hfa55243860877ddbE, symObjAddr: 0x15E40, symBinAddr: 0x7BA80, symSize: 0x3A0 }
  - { offset: 0x14E8B4, size: 0x8, addend: 0x0, symName: __ZN4core3str7pattern11StrSearcher3new17hfab9aab88f91478aE, symObjAddr: 0x16A00, symBinAddr: 0x7C470, symSize: 0x640 }
  - { offset: 0x14EB74, size: 0x8, addend: 0x0, symName: __ZN4core3str8converts9from_utf817hab685de2f5c40023E, symObjAddr: 0x17250, symBinAddr: 0x7CAB0, symSize: 0x210 }
  - { offset: 0x14EBE2, size: 0x8, addend: 0x0, symName: '__ZN87_$LT$core..str..lossy..Utf8Chunks$u20$as$u20$core..iter..traits..iterator..Iterator$GT$4next17hc6bf0146e235ca7cE', symObjAddr: 0x217F0, symBinAddr: 0x7D9D0, symSize: 0x1A0 }
  - { offset: 0x14EDF6, size: 0x8, addend: 0x0, symName: __ZN4core3ffi5c_str4CStr19from_bytes_with_nul17h663354f457718412E, symObjAddr: 0xFF0, symBinAddr: 0x79910, symSize: 0x120 }
  - { offset: 0x14EF0C, size: 0x8, addend: 0x0, symName: __ZN4core4cell22panic_already_borrowed8do_panic7runtime17hb02334c284ba6668E, symObjAddr: 0x17470, symBinAddr: 0x83A40, symSize: 0x60 }
  - { offset: 0x14EF3F, size: 0x8, addend: 0x0, symName: __ZN4core4cell22panic_already_borrowed17h380a7ae12b05c21bE, symObjAddr: 0x17460, symBinAddr: 0x83A30, symSize: 0x10 }
  - { offset: 0x14EF86, size: 0x8, addend: 0x0, symName: __ZN4core4cell30panic_already_mutably_borrowed8do_panic7runtime17h6df1817d5b28cca4E, symObjAddr: 0x174E0, symBinAddr: 0x83AB0, symSize: 0x60 }
  - { offset: 0x14EFB9, size: 0x8, addend: 0x0, symName: __ZN4core4cell30panic_already_mutably_borrowed17hba8509c21e3c3d56E, symObjAddr: 0x174D0, symBinAddr: 0x83AA0, symSize: 0x10 }
  - { offset: 0x14EFEE, size: 0x8, addend: 0x0, symName: '__ZN62_$LT$core..cell..BorrowError$u20$as$u20$core..fmt..Display$GT$3fmt17h1a48923c96fcfccdE', symObjAddr: 0x1C100, symBinAddr: 0x7D630, symSize: 0x20 }
  - { offset: 0x14F025, size: 0x8, addend: 0x0, symName: '__ZN65_$LT$core..cell..BorrowMutError$u20$as$u20$core..fmt..Display$GT$3fmt17hbdc0278247eb0cacE', symObjAddr: 0x1C610, symBinAddr: 0x7D650, symSize: 0x20 }
  - { offset: 0x14F075, size: 0x8, addend: 0x0, symName: __ZN4core7unicode12unicode_data15grapheme_extend11lookup_slow17hdcf8fe3bcaa288d6E, symObjAddr: 0x185E0, symBinAddr: 0x7D260, symSize: 0x100 }
  - { offset: 0x14F290, size: 0x8, addend: 0x0, symName: __ZN4core7unicode9printable12is_printable17hc67588a861ee36a9E, symObjAddr: 0x18AB0, symBinAddr: 0x7D360, symSize: 0x290 }
  - { offset: 0x14F5C1, size: 0x8, addend: 0x0, symName: __ZN4core5alloc6layout6Layout19is_size_align_valid17h9b309ba4c67ddf6eE, symObjAddr: 0x17A30, symBinAddr: 0x7CF90, symSize: 0x30 }
  - { offset: 0x14F60B, size: 0x8, addend: 0x0, symName: __ZN4core9panicking11panic_const23panic_const_div_by_zero17h1817bf4a5c63dcf1E, symObjAddr: 0x18D40, symBinAddr: 0x83F10, symSize: 0x40 }
  - { offset: 0x14F63A, size: 0x8, addend: 0x0, symName: __ZN4core9panicking11panic_const23panic_const_rem_by_zero17h66d921d73263a198E, symObjAddr: 0x18DC0, symBinAddr: 0x83F50, symSize: 0x40 }
  - { offset: 0x14F669, size: 0x8, addend: 0x0, symName: __ZN4core9panicking11panic_const24panic_const_add_overflow17hbc5e9fcbe302c148E, symObjAddr: 0x18E00, symBinAddr: 0x83F90, symSize: 0x40 }
  - { offset: 0x14F698, size: 0x8, addend: 0x0, symName: __ZN4core9panicking11panic_const24panic_const_mul_overflow17hcbef501a475c7ebcE, symObjAddr: 0x18E80, symBinAddr: 0x83FD0, symSize: 0x40 }
  - { offset: 0x14F6C7, size: 0x8, addend: 0x0, symName: __ZN4core9panicking11panic_const24panic_const_neg_overflow17hd3dbc26b4c7a0b69E, symObjAddr: 0x18EC0, symBinAddr: 0x84010, symSize: 0x40 }
  - { offset: 0x14F6F6, size: 0x8, addend: 0x0, symName: __ZN4core9panicking11panic_const24panic_const_shl_overflow17h6b807caa22cd4d22E, symObjAddr: 0x18F40, symBinAddr: 0x84050, symSize: 0x40 }
  - { offset: 0x14F725, size: 0x8, addend: 0x0, symName: __ZN4core9panicking11panic_const24panic_const_sub_overflow17hed39324016f6b9e2E, symObjAddr: 0x18FC0, symBinAddr: 0x84090, symSize: 0x40 }
  - { offset: 0x14F755, size: 0x8, addend: 0x0, symName: __ZN4core9panicking13assert_failed17h512a2273a08e4ba1E, symObjAddr: 0x192BF, symBinAddr: 0x840DF, symSize: 0x2F }
  - { offset: 0x14F770, size: 0x8, addend: 0x0, symName: __ZN4core9panicking13assert_failed17haff998095acd4f8eE, symObjAddr: 0x192EE, symBinAddr: 0x8410E, symSize: 0x2F }
  - { offset: 0x14F78B, size: 0x8, addend: 0x0, symName: __ZN4core9panicking13assert_failed17hf790c8989ead8b5cE, symObjAddr: 0x1931D, symBinAddr: 0x8413D, symSize: 0x33 }
  - { offset: 0x14F7A6, size: 0x8, addend: 0x0, symName: __ZN4core9panicking14panic_nounwind17h4e71c9dba73fe19eE, symObjAddr: 0x19350, symBinAddr: 0x84170, symSize: 0x50 }
  - { offset: 0x14F7D5, size: 0x8, addend: 0x0, symName: __ZN4core9panicking16panic_in_cleanup17h278dcedb7b834eecE, symObjAddr: 0x19418, symBinAddr: 0x841C8, symSize: 0x13 }
  - { offset: 0x14F7F0, size: 0x8, addend: 0x0, symName: __ZN4core9panicking18panic_bounds_check17hd6c879668b498650E, symObjAddr: 0x1942B, symBinAddr: 0x841DB, symSize: 0x65 }
  - { offset: 0x14F82F, size: 0x8, addend: 0x0, symName: __ZN4core9panicking18panic_nounwind_fmt17h13cf4419fe26bc7eE, symObjAddr: 0x19490, symBinAddr: 0x84240, symSize: 0x5B }
  - { offset: 0x14F874, size: 0x8, addend: 0x0, symName: __ZN4core9panicking19assert_failed_inner17h4305f0dee9388e3cE, symObjAddr: 0x194EB, symBinAddr: 0x8429B, symSize: 0x127 }
  - { offset: 0x14F8AE, size: 0x8, addend: 0x0, symName: __ZN4core9panicking19panic_cannot_unwind17ha66eab6f79487262E, symObjAddr: 0x19612, symBinAddr: 0x843C2, symSize: 0x1E }
  - { offset: 0x14F8C9, size: 0x8, addend: 0x0, symName: __ZN4core9panicking26panic_nounwind_nobacktrace17hb4fbf937932f35e4E, symObjAddr: 0x19630, symBinAddr: 0x843E0, symSize: 0x4D }
  - { offset: 0x14F8F8, size: 0x8, addend: 0x0, symName: __ZN4core9panicking30panic_null_pointer_dereference17hc3aa2b7b81bedb80E, symObjAddr: 0x1967D, symBinAddr: 0x8442D, symSize: 0x3A }
  - { offset: 0x14F929, size: 0x8, addend: 0x0, symName: __ZN4core9panicking36panic_misaligned_pointer_dereference17h6c4371a49e27ad8cE, symObjAddr: 0x1970F, symBinAddr: 0x8446F, symSize: 0x71 }
  - { offset: 0x14F95B, size: 0x8, addend: 0x0, symName: __ZN4core9panicking5panic17hea69a7d4c28c810cE, symObjAddr: 0x19780, symBinAddr: 0x844E0, symSize: 0x50 }
  - { offset: 0x14F98A, size: 0x8, addend: 0x0, symName: __ZN4core9panicking9panic_fmt17h46fb0d6076d2bd77E, symObjAddr: 0x197D0, symBinAddr: 0x84530, symSize: 0x20 }
...
