---
triple:          'x86_64-apple-darwin'
binary-path:     '/Users/kema/git/rust-serv/target/debug/deps/libthiserror_impl-6987d910fc5aea9d.dylib'
relocations:
  - { offset: 0x1E, size: 0x8, addend: 0x0, symName: __RINvMNtNtNtCslJiobkLta79_5alloc11collections5btree4nodeINtB3_8LeafNodeNtCsaKzlTDPUHDb_11proc_macro25IdentNtNtB5_7set_val9SetValZSTE3newNtNtB9_5alloc6GlobalECs71axb73f1AC_14thiserror_impl, symObjAddr: 0x0, symBinAddr: 0xBD0, symSize: 0x60 }
  - { offset: 0xFE06, size: 0x8, addend: 0x0, symName: __RNCINvMss_NtNtNtCslJiobkLta79_5alloc11collections5btree4nodeINtB8_7NodeRefNtNtB8_6marker5OwnedNtCsaKzlTDPUHDb_11proc_macro25IdentNtNtBa_7set_val9SetValZSTNtB1c_14LeafOrInternalE19push_internal_levelNtNtBe_5alloc6GlobalE0Cs71axb73f1AC_14thiserror_impl, symObjAddr: 0xCCF0, symBinAddr: 0xD8C0, symSize: 0x30 }
  - { offset: 0xFE5F, size: 0x8, addend: 0x0, symName: __RNCINvMss_NtNtNtCslJiobkLta79_5alloc11collections5btree4nodeINtB8_7NodeRefNtNtB8_6marker5OwnedNtNtBe_6string6StringNtNtBa_7set_val9SetValZSTNtB1c_14LeafOrInternalE19push_internal_levelNtNtBe_5alloc6GlobalE0Cs71axb73f1AC_14thiserror_impl, symObjAddr: 0xCD20, symBinAddr: 0xD8F0, symSize: 0x30 }
  - { offset: 0xFEB8, size: 0x8, addend: 0x0, symName: __RNCINvMss_NtNtNtCslJiobkLta79_5alloc11collections5btree4nodeINtB8_7NodeRefNtNtB8_6marker5OwnedNtNtBe_6string6StringTINtNtBa_3set8BTreeSetB1u_EINtNtCsdGrGZaRBwMb_3syn10punctuated10PunctuatedNtCsaKzlTDPUHDb_11proc_macro211TokenStreamNtNtB2l_5token4PlusEENtB1c_14LeafOrInternalE19push_internal_levelNtNtBe_5alloc6GlobalE0Cs71axb73f1AC_14thiserror_impl, symObjAddr: 0xCD50, symBinAddr: 0xD920, symSize: 0x30 }
  - { offset: 0xFF11, size: 0x8, addend: 0x0, symName: __RNCINvMss_NtNtNtCslJiobkLta79_5alloc11collections5btree4nodeINtB8_7NodeRefNtNtB8_6marker5OwnedRNtCsaKzlTDPUHDb_11proc_macro25IdentNtNtBa_7set_val9SetValZSTNtB1c_14LeafOrInternalE19push_internal_levelNtNtBe_5alloc6GlobalE0Cs71axb73f1AC_14thiserror_impl, symObjAddr: 0xCD80, symBinAddr: 0xD950, symSize: 0x30 }
  - { offset: 0xFF6A, size: 0x8, addend: 0x0, symName: __RNCINvMss_NtNtNtCslJiobkLta79_5alloc11collections5btree4nodeINtB8_7NodeRefNtNtB8_6marker5OwnedTjNtNtCs71axb73f1AC_14thiserror_impl4attr5TraitENtNtBa_7set_val9SetValZSTNtB1c_14LeafOrInternalE19push_internal_levelNtNtBe_5alloc6GlobalE0B1A_, symObjAddr: 0xCDB0, symBinAddr: 0xD980, symSize: 0x30 }
  - { offset: 0x18A92, size: 0x8, addend: 0x0, symName: __RINvNtNtNtCslJiobkLta79_5alloc11collections5btree4node12slice_insertINtNtNtCsieiGu2EXtoJ_4core3ptr8non_null7NonNullINtB2_8LeafNodeNtCsaKzlTDPUHDb_11proc_macro25IdentNtNtB4_7set_val9SetValZSTEEECs71axb73f1AC_14thiserror_impl, symObjAddr: 0xB9B0, symBinAddr: 0xC580, symSize: 0x130 }
  - { offset: 0x18BF8, size: 0x8, addend: 0x0, symName: __RINvNtNtNtCslJiobkLta79_5alloc11collections5btree4node12slice_insertINtNtNtCsieiGu2EXtoJ_4core3ptr8non_null7NonNullINtB2_8LeafNodeNtNtB8_6string6StringNtNtB4_7set_val9SetValZSTEEECs71axb73f1AC_14thiserror_impl, symObjAddr: 0xBAE0, symBinAddr: 0xC6B0, symSize: 0x130 }
  - { offset: 0x18D5E, size: 0x8, addend: 0x0, symName: __RINvNtNtNtCslJiobkLta79_5alloc11collections5btree4node12slice_insertINtNtNtCsieiGu2EXtoJ_4core3ptr8non_null7NonNullINtB2_8LeafNodeNtNtB8_6string6StringTINtNtB4_3set8BTreeSetB24_EINtNtCsdGrGZaRBwMb_3syn10punctuated10PunctuatedNtCsaKzlTDPUHDb_11proc_macro211TokenStreamNtNtB2V_5token4PlusEEEEECs71axb73f1AC_14thiserror_impl, symObjAddr: 0xBC10, symBinAddr: 0xC7E0, symSize: 0x130 }
  - { offset: 0x18EC4, size: 0x8, addend: 0x0, symName: __RINvNtNtNtCslJiobkLta79_5alloc11collections5btree4node12slice_insertINtNtNtCsieiGu2EXtoJ_4core3ptr8non_null7NonNullINtB2_8LeafNodeTjNtNtCs71axb73f1AC_14thiserror_impl4attr5TraitENtNtB4_7set_val9SetValZSTEEEB2a_, symObjAddr: 0xBD40, symBinAddr: 0xC910, symSize: 0x130 }
  - { offset: 0x1902A, size: 0x8, addend: 0x0, symName: __RINvNtNtNtCslJiobkLta79_5alloc11collections5btree4node12slice_insertNtCsaKzlTDPUHDb_11proc_macro25IdentECs71axb73f1AC_14thiserror_impl, symObjAddr: 0xBE70, symBinAddr: 0xCA40, symSize: 0x180 }
  - { offset: 0x191B1, size: 0x8, addend: 0x0, symName: __RINvNtNtNtCslJiobkLta79_5alloc11collections5btree4node12slice_insertNtNtB4_7set_val9SetValZSTECs71axb73f1AC_14thiserror_impl, symObjAddr: 0xBFF0, symBinAddr: 0xCBC0, symSize: 0xB0 }
  - { offset: 0x192CA, size: 0x8, addend: 0x0, symName: __RINvNtNtNtCslJiobkLta79_5alloc11collections5btree4node12slice_insertNtNtB8_6string6StringECs71axb73f1AC_14thiserror_impl, symObjAddr: 0xC0A0, symBinAddr: 0xCC70, symSize: 0x180 }
  - { offset: 0x19451, size: 0x8, addend: 0x0, symName: __RINvNtNtNtCslJiobkLta79_5alloc11collections5btree4node12slice_insertTINtNtB4_3set8BTreeSetNtNtB8_6string6StringEINtNtCsdGrGZaRBwMb_3syn10punctuated10PunctuatedNtCsaKzlTDPUHDb_11proc_macro211TokenStreamNtNtB1R_5token4PlusEEECs71axb73f1AC_14thiserror_impl, symObjAddr: 0xC220, symBinAddr: 0xCDF0, symSize: 0x180 }
  - { offset: 0x195D8, size: 0x8, addend: 0x0, symName: __RINvNtNtNtCslJiobkLta79_5alloc11collections5btree4node12slice_insertTjNtNtCs71axb73f1AC_14thiserror_impl4attr5TraitEEB1a_, symObjAddr: 0xC3A0, symBinAddr: 0xCF70, symSize: 0x140 }
  - { offset: 0x19740, size: 0x8, addend: 0x0, symName: __RINvNtNtNtCslJiobkLta79_5alloc11collections5btree4node13move_to_sliceINtNtNtCsieiGu2EXtoJ_4core3ptr8non_null7NonNullINtB2_8LeafNodeNtCsaKzlTDPUHDb_11proc_macro25IdentNtNtB4_7set_val9SetValZSTEEECs71axb73f1AC_14thiserror_impl, symObjAddr: 0xC4E0, symBinAddr: 0xD0B0, symSize: 0x90 }
  - { offset: 0x197EC, size: 0x8, addend: 0x0, symName: __RINvNtNtNtCslJiobkLta79_5alloc11collections5btree4node13move_to_sliceINtNtNtCsieiGu2EXtoJ_4core3ptr8non_null7NonNullINtB2_8LeafNodeNtNtB8_6string6StringNtNtB4_7set_val9SetValZSTEEECs71axb73f1AC_14thiserror_impl, symObjAddr: 0xC570, symBinAddr: 0xD140, symSize: 0x90 }
  - { offset: 0x19898, size: 0x8, addend: 0x0, symName: __RINvNtNtNtCslJiobkLta79_5alloc11collections5btree4node13move_to_sliceINtNtNtCsieiGu2EXtoJ_4core3ptr8non_null7NonNullINtB2_8LeafNodeNtNtB8_6string6StringTINtNtB4_3set8BTreeSetB25_EINtNtCsdGrGZaRBwMb_3syn10punctuated10PunctuatedNtCsaKzlTDPUHDb_11proc_macro211TokenStreamNtNtB2W_5token4PlusEEEEECs71axb73f1AC_14thiserror_impl, symObjAddr: 0xC600, symBinAddr: 0xD1D0, symSize: 0x90 }
  - { offset: 0x19944, size: 0x8, addend: 0x0, symName: __RINvNtNtNtCslJiobkLta79_5alloc11collections5btree4node13move_to_sliceINtNtNtCsieiGu2EXtoJ_4core3ptr8non_null7NonNullINtB2_8LeafNodeRNtCsaKzlTDPUHDb_11proc_macro25IdentNtNtB4_7set_val9SetValZSTEEECs71axb73f1AC_14thiserror_impl, symObjAddr: 0xC690, symBinAddr: 0xD260, symSize: 0x90 }
  - { offset: 0x199F0, size: 0x8, addend: 0x0, symName: __RINvNtNtNtCslJiobkLta79_5alloc11collections5btree4node13move_to_sliceINtNtNtCsieiGu2EXtoJ_4core3ptr8non_null7NonNullINtB2_8LeafNodeTjNtNtCs71axb73f1AC_14thiserror_impl4attr5TraitENtNtB4_7set_val9SetValZSTEEEB2b_, symObjAddr: 0xC720, symBinAddr: 0xD2F0, symSize: 0x90 }
  - { offset: 0x19A9C, size: 0x8, addend: 0x0, symName: __RINvNtNtNtCslJiobkLta79_5alloc11collections5btree4node13move_to_sliceNtCsaKzlTDPUHDb_11proc_macro25IdentECs71axb73f1AC_14thiserror_impl, symObjAddr: 0xC7B0, symBinAddr: 0xD380, symSize: 0xA0 }
  - { offset: 0x19B48, size: 0x8, addend: 0x0, symName: __RINvNtNtNtCslJiobkLta79_5alloc11collections5btree4node13move_to_sliceNtNtB4_7set_val9SetValZSTECs71axb73f1AC_14thiserror_impl, symObjAddr: 0xC850, symBinAddr: 0xD420, symSize: 0xA0 }
  - { offset: 0x19BF4, size: 0x8, addend: 0x0, symName: __RINvNtNtNtCslJiobkLta79_5alloc11collections5btree4node13move_to_sliceNtNtB8_6string6StringECs71axb73f1AC_14thiserror_impl, symObjAddr: 0xC8F0, symBinAddr: 0xD4C0, symSize: 0xA0 }
  - { offset: 0x19CA0, size: 0x8, addend: 0x0, symName: __RINvNtNtNtCslJiobkLta79_5alloc11collections5btree4node13move_to_sliceRNtCsaKzlTDPUHDb_11proc_macro25IdentECs71axb73f1AC_14thiserror_impl, symObjAddr: 0xC990, symBinAddr: 0xD560, symSize: 0x90 }
  - { offset: 0x19D4C, size: 0x8, addend: 0x0, symName: __RINvNtNtNtCslJiobkLta79_5alloc11collections5btree4node13move_to_sliceTINtNtB4_3set8BTreeSetNtNtB8_6string6StringEINtNtCsdGrGZaRBwMb_3syn10punctuated10PunctuatedNtCsaKzlTDPUHDb_11proc_macro211TokenStreamNtNtB1S_5token4PlusEEECs71axb73f1AC_14thiserror_impl, symObjAddr: 0xCA20, symBinAddr: 0xD5F0, symSize: 0xA0 }
  - { offset: 0x19DF8, size: 0x8, addend: 0x0, symName: __RINvNtNtNtCslJiobkLta79_5alloc11collections5btree4node13move_to_sliceTjNtNtCs71axb73f1AC_14thiserror_impl4attr5TraitEEB1b_, symObjAddr: 0xCAC0, symBinAddr: 0xD690, symSize: 0xA0 }
  - { offset: 0x19EA4, size: 0x8, addend: 0x0, symName: __RINvNtNtNtCslJiobkLta79_5alloc11collections5btree4node9slice_shrINtNtNtCsieiGu2EXtoJ_4core3ptr8non_null7NonNullINtB2_8LeafNodeRNtCsaKzlTDPUHDb_11proc_macro25IdentNtNtB4_7set_val9SetValZSTEEECs71axb73f1AC_14thiserror_impl, symObjAddr: 0xCB60, symBinAddr: 0xD730, symSize: 0x90 }
  - { offset: 0x19F76, size: 0x8, addend: 0x0, symName: __RINvNtNtNtCslJiobkLta79_5alloc11collections5btree4node9slice_shrNtNtB4_7set_val9SetValZSTECs71axb73f1AC_14thiserror_impl, symObjAddr: 0xCBF0, symBinAddr: 0xD7C0, symSize: 0x70 }
  - { offset: 0x1A048, size: 0x8, addend: 0x0, symName: __RINvNtNtNtCslJiobkLta79_5alloc11collections5btree4node9slice_shrRNtCsaKzlTDPUHDb_11proc_macro25IdentECs71axb73f1AC_14thiserror_impl, symObjAddr: 0xCC60, symBinAddr: 0xD830, symSize: 0x90 }
  - { offset: 0x1B5F1, size: 0x8, addend: 0x0, symName: __RNvXNvMsT_NtNtNtCslJiobkLta79_5alloc11collections5btree4nodeINtB8_6HandleINtB8_7NodeRefNtNtB8_6marker5DyingpppENtB1p_2KVE12drop_key_valINtB2_7DropperNtNtBa_7set_val9SetValZSTENtNtNtCsieiGu2EXtoJ_4core3ops4drop4Drop4dropCs71axb73f1AC_14thiserror_impl, symObjAddr: 0x17DA0, symBinAddr: 0x18970, symSize: 0x20 }
  - { offset: 0x1B624, size: 0x8, addend: 0x0, symName: __RNvXNvMsT_NtNtNtCslJiobkLta79_5alloc11collections5btree4nodeINtB8_6HandleINtB8_7NodeRefNtNtB8_6marker5DyingpppENtB1p_2KVE12drop_key_valINtB2_7DropperTINtNtBa_3set8BTreeSetNtNtBe_6string6StringEINtNtCsdGrGZaRBwMb_3syn10punctuated10PunctuatedNtCsaKzlTDPUHDb_11proc_macro211TokenStreamNtNtB3a_5token4PlusEEENtNtNtCsieiGu2EXtoJ_4core3ops4drop4Drop4dropCs71axb73f1AC_14thiserror_impl, symObjAddr: 0x17DC0, symBinAddr: 0x18990, symSize: 0x20 }
  - { offset: 0x1D121, size: 0x8, addend: 0x0, symName: __RINvMNtNtNtCslJiobkLta79_5alloc11collections5btree4nodeINtB3_8LeafNodeNtCsaKzlTDPUHDb_11proc_macro25IdentNtNtB5_7set_val9SetValZSTE3newNtNtB9_5alloc6GlobalECs71axb73f1AC_14thiserror_impl, symObjAddr: 0x0, symBinAddr: 0xBD0, symSize: 0x60 }
  - { offset: 0x1D3EB, size: 0x8, addend: 0x0, symName: __RINvMNtNtNtCslJiobkLta79_5alloc11collections5btree4nodeINtB3_8LeafNodeNtNtB9_6string6StringNtNtB5_7set_val9SetValZSTE3newNtNtB9_5alloc6GlobalECs71axb73f1AC_14thiserror_impl, symObjAddr: 0x60, symBinAddr: 0xC30, symSize: 0x60 }
  - { offset: 0x1D7B5, size: 0x8, addend: 0x0, symName: __RINvMNtNtNtCslJiobkLta79_5alloc11collections5btree4nodeINtB3_8LeafNodeNtNtB9_6string6StringTINtNtB5_3set8BTreeSetB16_EINtNtCsdGrGZaRBwMb_3syn10punctuated10PunctuatedNtCsaKzlTDPUHDb_11proc_macro211TokenStreamNtNtB1X_5token4PlusEEE3newNtNtB9_5alloc6GlobalECs71axb73f1AC_14thiserror_impl, symObjAddr: 0xC0, symBinAddr: 0xC90, symSize: 0x60 }
  - { offset: 0x1DA7F, size: 0x8, addend: 0x0, symName: __RINvMNtNtNtCslJiobkLta79_5alloc11collections5btree4nodeINtB3_8LeafNodeRNtCsaKzlTDPUHDb_11proc_macro25IdentNtNtB5_7set_val9SetValZSTE3newNtNtB9_5alloc6GlobalECs71axb73f1AC_14thiserror_impl, symObjAddr: 0x120, symBinAddr: 0xCF0, symSize: 0x50 }
  - { offset: 0x1DD5A, size: 0x8, addend: 0x0, symName: __RINvMNtNtNtCslJiobkLta79_5alloc11collections5btree4nodeINtB3_8LeafNodeTjNtNtCs71axb73f1AC_14thiserror_impl4attr5TraitENtNtB5_7set_val9SetValZSTE3newNtNtB9_5alloc6GlobalEB1c_, symObjAddr: 0x170, symBinAddr: 0xD40, symSize: 0x60 }
  - { offset: 0x1E31F, size: 0x8, addend: 0x0, symName: __RINvMNtNtNtCslJiobkLta79_5alloc11collections5btree6appendINtNtB5_4node7NodeRefNtNtBW_6marker5OwnedRNtCsaKzlTDPUHDb_11proc_macro25IdentNtNtB5_7set_val9SetValZSTNtB1g_14LeafOrInternalE9bulk_pushINtNtB5_17dedup_sorted_iter15DedupSortedIterB1y_B28_INtNtNtNtCsieiGu2EXtoJ_4core4iter8adapters3map3MapINtNtNtB9_3vec9into_iter8IntoIterB1y_ENCINvMse_NtB5_3setINtB5t_8BTreeSetB1y_E16from_sorted_iterB4I_E0EENtNtB9_5alloc6GlobalECs71axb73f1AC_14thiserror_impl, symObjAddr: 0x1D0, symBinAddr: 0xDA0, symSize: 0x540 }
  - { offset: 0x1E954, size: 0x8, addend: 0x0, symName: __RINvMs0_NtNtNtCslJiobkLta79_5alloc11collections5btree6searchINtNtB8_4node7NodeRefNtNtBZ_6marker3MutNtCsaKzlTDPUHDb_11proc_macro25IdentNtNtB8_7set_val9SetValZSTNtB1j_14LeafOrInternalE14find_key_indexB1z_ECs71axb73f1AC_14thiserror_impl, symObjAddr: 0x710, symBinAddr: 0x12E0, symSize: 0x240 }
  - { offset: 0x1EDB2, size: 0x8, addend: 0x0, symName: __RINvMs0_NtNtNtCslJiobkLta79_5alloc11collections5btree6searchINtNtB8_4node7NodeRefNtNtBZ_6marker3MutNtNtBc_6string6StringNtNtB8_7set_val9SetValZSTNtB1j_14LeafOrInternalE14find_key_indexB1z_ECs71axb73f1AC_14thiserror_impl, symObjAddr: 0x950, symBinAddr: 0x1520, symSize: 0x240 }
  - { offset: 0x1F1A4, size: 0x8, addend: 0x0, symName: __RINvMs0_NtNtNtCslJiobkLta79_5alloc11collections5btree6searchINtNtB8_4node7NodeRefNtNtBZ_6marker3MutNtNtBc_6string6StringTINtNtB8_3set8BTreeSetB1z_EINtNtCsdGrGZaRBwMb_3syn10punctuated10PunctuatedNtCsaKzlTDPUHDb_11proc_macro211TokenStreamNtNtB2q_5token4PlusEENtB1j_14LeafOrInternalE14find_key_indexB1z_ECs71axb73f1AC_14thiserror_impl, symObjAddr: 0xB90, symBinAddr: 0x1760, symSize: 0x240 }
  - { offset: 0x1F602, size: 0x8, addend: 0x0, symName: __RINvMs0_NtNtNtCslJiobkLta79_5alloc11collections5btree6searchINtNtB8_4node7NodeRefNtNtBZ_6marker3MutTjNtNtCs71axb73f1AC_14thiserror_impl4attr5TraitENtNtB8_7set_val9SetValZSTNtB1j_14LeafOrInternalE14find_key_indexB1z_EB1F_, symObjAddr: 0xDD0, symBinAddr: 0x19A0, symSize: 0x240 }
  - { offset: 0x1F9F4, size: 0x8, addend: 0x0, symName: __RINvMs0_NtNtNtCslJiobkLta79_5alloc11collections5btree6searchINtNtB8_4node7NodeRefNtNtBZ_6marker5ImmutNtNtBc_6string6StringTINtNtB8_3set8BTreeSetB1B_EINtNtCsdGrGZaRBwMb_3syn10punctuated10PunctuatedNtCsaKzlTDPUHDb_11proc_macro211TokenStreamNtNtB2s_5token4PlusEENtB1j_14LeafOrInternalE14find_key_indexB1B_ECs71axb73f1AC_14thiserror_impl, symObjAddr: 0x1010, symBinAddr: 0x1BE0, symSize: 0x240 }
  - { offset: 0x1FE45, size: 0x8, addend: 0x0, symName: __RINvMs0_NtNtNtCslJiobkLta79_5alloc11collections5btree6searchINtNtB8_4node7NodeRefNtNtBZ_6marker5ImmutRNtCsaKzlTDPUHDb_11proc_macro25IdentNtNtB8_7set_val9SetValZSTNtB1j_14LeafOrInternalE14find_key_indexB1C_ECs71axb73f1AC_14thiserror_impl, symObjAddr: 0x1250, symBinAddr: 0x1E20, symSize: 0x240 }
  - { offset: 0x201BC, size: 0x8, addend: 0x0, symName: __RINvMs9_NtNtNtCslJiobkLta79_5alloc11collections5btree4nodeINtB6_7NodeRefNtNtB6_6marker5OwnedNtCsaKzlTDPUHDb_11proc_macro25IdentNtNtB8_7set_val9SetValZSTNtB1a_8InternalE12new_internalNtNtBc_5alloc6GlobalECs71axb73f1AC_14thiserror_impl, symObjAddr: 0x1490, symBinAddr: 0x2060, symSize: 0x90 }
  - { offset: 0x203EF, size: 0x8, addend: 0x0, symName: __RINvMs9_NtNtNtCslJiobkLta79_5alloc11collections5btree4nodeINtB6_7NodeRefNtNtB6_6marker5OwnedNtCsaKzlTDPUHDb_11proc_macro25IdentNtNtB8_7set_val9SetValZSTNtB1a_8InternalE17from_new_internalNtNtBc_5alloc6GlobalECs71axb73f1AC_14thiserror_impl, symObjAddr: 0x1520, symBinAddr: 0x20F0, symSize: 0xD0 }
  - { offset: 0x205E8, size: 0x8, addend: 0x0, symName: __RINvMs9_NtNtNtCslJiobkLta79_5alloc11collections5btree4nodeINtB6_7NodeRefNtNtB6_6marker5OwnedNtNtBc_6string6StringNtNtB8_7set_val9SetValZSTNtB1a_8InternalE12new_internalNtNtBc_5alloc6GlobalECs71axb73f1AC_14thiserror_impl, symObjAddr: 0x15F0, symBinAddr: 0x21C0, symSize: 0x90 }
  - { offset: 0x2081B, size: 0x8, addend: 0x0, symName: __RINvMs9_NtNtNtCslJiobkLta79_5alloc11collections5btree4nodeINtB6_7NodeRefNtNtB6_6marker5OwnedNtNtBc_6string6StringNtNtB8_7set_val9SetValZSTNtB1a_8InternalE17from_new_internalNtNtBc_5alloc6GlobalECs71axb73f1AC_14thiserror_impl, symObjAddr: 0x1680, symBinAddr: 0x2250, symSize: 0xD0 }
  - { offset: 0x20A14, size: 0x8, addend: 0x0, symName: __RINvMs9_NtNtNtCslJiobkLta79_5alloc11collections5btree4nodeINtB6_7NodeRefNtNtB6_6marker5OwnedNtNtBc_6string6StringTINtNtB8_3set8BTreeSetB1s_EINtNtCsdGrGZaRBwMb_3syn10punctuated10PunctuatedNtCsaKzlTDPUHDb_11proc_macro211TokenStreamNtNtB2j_5token4PlusEENtB1a_8InternalE12new_internalNtNtBc_5alloc6GlobalECs71axb73f1AC_14thiserror_impl, symObjAddr: 0x1750, symBinAddr: 0x2320, symSize: 0x90 }
  - { offset: 0x20C47, size: 0x8, addend: 0x0, symName: __RINvMs9_NtNtNtCslJiobkLta79_5alloc11collections5btree4nodeINtB6_7NodeRefNtNtB6_6marker5OwnedNtNtBc_6string6StringTINtNtB8_3set8BTreeSetB1s_EINtNtCsdGrGZaRBwMb_3syn10punctuated10PunctuatedNtCsaKzlTDPUHDb_11proc_macro211TokenStreamNtNtB2j_5token4PlusEENtB1a_8InternalE17from_new_internalNtNtBc_5alloc6GlobalECs71axb73f1AC_14thiserror_impl, symObjAddr: 0x17E0, symBinAddr: 0x23B0, symSize: 0xD0 }
  - { offset: 0x20E40, size: 0x8, addend: 0x0, symName: __RINvMs9_NtNtNtCslJiobkLta79_5alloc11collections5btree4nodeINtB6_7NodeRefNtNtB6_6marker5OwnedRNtCsaKzlTDPUHDb_11proc_macro25IdentNtNtB8_7set_val9SetValZSTNtB1a_8InternalE12new_internalNtNtBc_5alloc6GlobalECs71axb73f1AC_14thiserror_impl, symObjAddr: 0x18B0, symBinAddr: 0x2480, symSize: 0x80 }
  - { offset: 0x21066, size: 0x8, addend: 0x0, symName: __RINvMs9_NtNtNtCslJiobkLta79_5alloc11collections5btree4nodeINtB6_7NodeRefNtNtB6_6marker5OwnedRNtCsaKzlTDPUHDb_11proc_macro25IdentNtNtB8_7set_val9SetValZSTNtB1a_8InternalE17from_new_internalNtNtBc_5alloc6GlobalECs71axb73f1AC_14thiserror_impl, symObjAddr: 0x1930, symBinAddr: 0x2500, symSize: 0xD0 }
  - { offset: 0x2125F, size: 0x8, addend: 0x0, symName: __RINvMs9_NtNtNtCslJiobkLta79_5alloc11collections5btree4nodeINtB6_7NodeRefNtNtB6_6marker5OwnedTjNtNtCs71axb73f1AC_14thiserror_impl4attr5TraitENtNtB8_7set_val9SetValZSTNtB1a_8InternalE12new_internalNtNtBc_5alloc6GlobalEB1y_, symObjAddr: 0x1A00, symBinAddr: 0x25D0, symSize: 0x90 }
  - { offset: 0x21492, size: 0x8, addend: 0x0, symName: __RINvMs9_NtNtNtCslJiobkLta79_5alloc11collections5btree4nodeINtB6_7NodeRefNtNtB6_6marker5OwnedTjNtNtCs71axb73f1AC_14thiserror_impl4attr5TraitENtNtB8_7set_val9SetValZSTNtB1a_8InternalE17from_new_internalNtNtBc_5alloc6GlobalEB1y_, symObjAddr: 0x1A90, symBinAddr: 0x2660, symSize: 0xD0 }
  - { offset: 0x2189E, size: 0x8, addend: 0x0, symName: __RINvMsK_NtNtNtCslJiobkLta79_5alloc11collections5btree4nodeINtB6_6HandleINtB6_7NodeRefNtNtB6_6marker3MutNtCsaKzlTDPUHDb_11proc_macro25IdentNtNtB8_7set_val9SetValZSTNtB1n_4LeafENtB1n_4EdgeE6insertNtNtBc_5alloc6GlobalECs71axb73f1AC_14thiserror_impl, symObjAddr: 0x1B60, symBinAddr: 0x2730, symSize: 0x6F0 }
  - { offset: 0x21D6E, size: 0x8, addend: 0x0, symName: __RINvMsK_NtNtNtCslJiobkLta79_5alloc11collections5btree4nodeINtB6_6HandleINtB6_7NodeRefNtNtB6_6marker3MutNtNtBc_6string6StringNtNtB8_7set_val9SetValZSTNtB1n_4LeafENtB1n_4EdgeE6insertNtNtBc_5alloc6GlobalECs71axb73f1AC_14thiserror_impl, symObjAddr: 0x2250, symBinAddr: 0x2E20, symSize: 0x700 }
  - { offset: 0x2225C, size: 0x8, addend: 0x0, symName: __RINvMsK_NtNtNtCslJiobkLta79_5alloc11collections5btree4nodeINtB6_6HandleINtB6_7NodeRefNtNtB6_6marker3MutNtNtBc_6string6StringTINtNtB8_3set8BTreeSetB1D_EINtNtCsdGrGZaRBwMb_3syn10punctuated10PunctuatedNtCsaKzlTDPUHDb_11proc_macro211TokenStreamNtNtB2u_5token4PlusEENtB1n_4LeafENtB1n_4EdgeE6insertNtNtBc_5alloc6GlobalECs71axb73f1AC_14thiserror_impl, symObjAddr: 0x2950, symBinAddr: 0x3520, symSize: 0x7D0 }
  - { offset: 0x2274A, size: 0x8, addend: 0x0, symName: __RINvMsK_NtNtNtCslJiobkLta79_5alloc11collections5btree4nodeINtB6_6HandleINtB6_7NodeRefNtNtB6_6marker3MutTjNtNtCs71axb73f1AC_14thiserror_impl4attr5TraitENtNtB8_7set_val9SetValZSTNtB1n_4LeafENtB1n_4EdgeE6insertNtNtBc_5alloc6GlobalEB1J_, symObjAddr: 0x3120, symBinAddr: 0x3CF0, symSize: 0x6A0 }
  - { offset: 0x22B6F, size: 0x8, addend: 0x0, symName: __RINvMsM_NtNtNtCslJiobkLta79_5alloc11collections5btree4nodeINtB6_6HandleINtB6_7NodeRefNtNtB6_6marker3MutNtCsaKzlTDPUHDb_11proc_macro25IdentNtNtB8_7set_val9SetValZSTNtB1n_8InternalENtB1n_4EdgeE6insertNtNtBc_5alloc6GlobalECs71axb73f1AC_14thiserror_impl, symObjAddr: 0x37C0, symBinAddr: 0x4390, symSize: 0x6B0 }
  - { offset: 0x22EF9, size: 0x8, addend: 0x0, symName: __RINvMsM_NtNtNtCslJiobkLta79_5alloc11collections5btree4nodeINtB6_6HandleINtB6_7NodeRefNtNtB6_6marker3MutNtNtBc_6string6StringNtNtB8_7set_val9SetValZSTNtB1n_8InternalENtB1n_4EdgeE6insertNtNtBc_5alloc6GlobalECs71axb73f1AC_14thiserror_impl, symObjAddr: 0x3E70, symBinAddr: 0x4A40, symSize: 0x6B0 }
  - { offset: 0x23283, size: 0x8, addend: 0x0, symName: __RINvMsM_NtNtNtCslJiobkLta79_5alloc11collections5btree4nodeINtB6_6HandleINtB6_7NodeRefNtNtB6_6marker3MutNtNtBc_6string6StringTINtNtB8_3set8BTreeSetB1D_EINtNtCsdGrGZaRBwMb_3syn10punctuated10PunctuatedNtCsaKzlTDPUHDb_11proc_macro211TokenStreamNtNtB2u_5token4PlusEENtB1n_8InternalENtB1n_4EdgeE6insertNtNtBc_5alloc6GlobalECs71axb73f1AC_14thiserror_impl, symObjAddr: 0x4520, symBinAddr: 0x50F0, symSize: 0x7C0 }
  - { offset: 0x2360D, size: 0x8, addend: 0x0, symName: __RINvMsM_NtNtNtCslJiobkLta79_5alloc11collections5btree4nodeINtB6_6HandleINtB6_7NodeRefNtNtB6_6marker3MutTjNtNtCs71axb73f1AC_14thiserror_impl4attr5TraitENtNtB8_7set_val9SetValZSTNtB1n_8InternalENtB1n_4EdgeE6insertNtNtBc_5alloc6GlobalEB1J_, symObjAddr: 0x4CE0, symBinAddr: 0x58B0, symSize: 0x670 }
  - { offset: 0x2390C, size: 0x8, addend: 0x0, symName: __RINvMsN_NtNtNtCslJiobkLta79_5alloc11collections5btree4nodeINtB6_6HandleINtB6_7NodeRefNtNtB6_6marker3MutNtCsaKzlTDPUHDb_11proc_macro25IdentNtNtB8_7set_val9SetValZSTNtB1n_4LeafENtB1n_4EdgeE16insert_recursingNtNtBc_5alloc6GlobalNCNvMs6_NtNtB8_3map5entryINtB3J_11VacantEntryB1D_B2c_E12insert_entry0ECs71axb73f1AC_14thiserror_impl, symObjAddr: 0x5350, symBinAddr: 0x5F20, symSize: 0x650 }
  - { offset: 0x23C2D, size: 0x8, addend: 0x0, symName: __RINvMsN_NtNtNtCslJiobkLta79_5alloc11collections5btree4nodeINtB6_6HandleINtB6_7NodeRefNtNtB6_6marker3MutNtNtBc_6string6StringNtNtB8_7set_val9SetValZSTNtB1n_4LeafENtB1n_4EdgeE16insert_recursingNtNtBc_5alloc6GlobalNCNvMs6_NtNtB8_3map5entryINtB3v_11VacantEntryB1D_B1Y_E12insert_entry0ECs71axb73f1AC_14thiserror_impl, symObjAddr: 0x59A0, symBinAddr: 0x6570, symSize: 0x660 }
  - { offset: 0x23F5B, size: 0x8, addend: 0x0, symName: __RINvMsN_NtNtNtCslJiobkLta79_5alloc11collections5btree4nodeINtB6_6HandleINtB6_7NodeRefNtNtB6_6marker3MutNtNtBc_6string6StringTINtNtB8_3set8BTreeSetB1D_EINtNtCsdGrGZaRBwMb_3syn10punctuated10PunctuatedNtCsaKzlTDPUHDb_11proc_macro211TokenStreamNtNtB2u_5token4PlusEENtB1n_4LeafENtB1n_4EdgeE16insert_recursingNtNtBc_5alloc6GlobalNCNvMs6_NtNtB8_3map5entryINtB5j_11VacantEntryB1D_B1Y_E12insert_entry0ECs71axb73f1AC_14thiserror_impl, symObjAddr: 0x6000, symBinAddr: 0x6BD0, symSize: 0x710 }
  - { offset: 0x24289, size: 0x8, addend: 0x0, symName: __RINvMsN_NtNtNtCslJiobkLta79_5alloc11collections5btree4nodeINtB6_6HandleINtB6_7NodeRefNtNtB6_6marker3MutTjNtNtCs71axb73f1AC_14thiserror_impl4attr5TraitENtNtB8_7set_val9SetValZSTNtB1n_4LeafENtB1n_4EdgeE16insert_recursingNtNtBc_5alloc6GlobalNCNvMs6_NtNtB8_3map5entryINtB3W_11VacantEntryB1D_B2p_E12insert_entry0EB1J_, symObjAddr: 0x6710, symBinAddr: 0x72E0, symSize: 0x5A0 }
  - { offset: 0x24533, size: 0x8, addend: 0x0, symName: __RINvMsV_NtNtNtCslJiobkLta79_5alloc11collections5btree4nodeINtB6_6HandleINtB6_7NodeRefNtNtB6_6marker3MutNtCsaKzlTDPUHDb_11proc_macro25IdentNtNtB8_7set_val9SetValZSTNtB1n_4LeafENtB1n_2KVE5splitNtNtBc_5alloc6GlobalECs71axb73f1AC_14thiserror_impl, symObjAddr: 0x6CB0, symBinAddr: 0x7880, symSize: 0xB0 }
  - { offset: 0x24622, size: 0x8, addend: 0x0, symName: __RINvMsV_NtNtNtCslJiobkLta79_5alloc11collections5btree4nodeINtB6_6HandleINtB6_7NodeRefNtNtB6_6marker3MutNtNtBc_6string6StringNtNtB8_7set_val9SetValZSTNtB1n_4LeafENtB1n_2KVE5splitNtNtBc_5alloc6GlobalECs71axb73f1AC_14thiserror_impl, symObjAddr: 0x6D60, symBinAddr: 0x7930, symSize: 0xB0 }
  - { offset: 0x24711, size: 0x8, addend: 0x0, symName: __RINvMsV_NtNtNtCslJiobkLta79_5alloc11collections5btree4nodeINtB6_6HandleINtB6_7NodeRefNtNtB6_6marker3MutNtNtBc_6string6StringTINtNtB8_3set8BTreeSetB1D_EINtNtCsdGrGZaRBwMb_3syn10punctuated10PunctuatedNtCsaKzlTDPUHDb_11proc_macro211TokenStreamNtNtB2u_5token4PlusEENtB1n_4LeafENtB1n_2KVE5splitNtNtBc_5alloc6GlobalECs71axb73f1AC_14thiserror_impl, symObjAddr: 0x6E10, symBinAddr: 0x79E0, symSize: 0xF0 }
  - { offset: 0x24800, size: 0x8, addend: 0x0, symName: __RINvMsV_NtNtNtCslJiobkLta79_5alloc11collections5btree4nodeINtB6_6HandleINtB6_7NodeRefNtNtB6_6marker3MutTjNtNtCs71axb73f1AC_14thiserror_impl4attr5TraitENtNtB8_7set_val9SetValZSTNtB1n_4LeafENtB1n_2KVE5splitNtNtBc_5alloc6GlobalEB1J_, symObjAddr: 0x6F00, symBinAddr: 0x7AD0, symSize: 0xC0 }
  - { offset: 0x24A17, size: 0x8, addend: 0x0, symName: __RINvMsW_NtNtNtCslJiobkLta79_5alloc11collections5btree4nodeINtB6_6HandleINtB6_7NodeRefNtNtB6_6marker3MutNtCsaKzlTDPUHDb_11proc_macro25IdentNtNtB8_7set_val9SetValZSTNtB1n_8InternalENtB1n_2KVE5splitNtNtBc_5alloc6GlobalECs71axb73f1AC_14thiserror_impl, symObjAddr: 0x6FC0, symBinAddr: 0x7B90, symSize: 0x340 }
  - { offset: 0x24ED3, size: 0x8, addend: 0x0, symName: __RINvMsW_NtNtNtCslJiobkLta79_5alloc11collections5btree4nodeINtB6_6HandleINtB6_7NodeRefNtNtB6_6marker3MutNtNtBc_6string6StringNtNtB8_7set_val9SetValZSTNtB1n_8InternalENtB1n_2KVE5splitNtNtBc_5alloc6GlobalECs71axb73f1AC_14thiserror_impl, symObjAddr: 0x7300, symBinAddr: 0x7ED0, symSize: 0x340 }
  - { offset: 0x2538F, size: 0x8, addend: 0x0, symName: __RINvMsW_NtNtNtCslJiobkLta79_5alloc11collections5btree4nodeINtB6_6HandleINtB6_7NodeRefNtNtB6_6marker3MutNtNtBc_6string6StringTINtNtB8_3set8BTreeSetB1D_EINtNtCsdGrGZaRBwMb_3syn10punctuated10PunctuatedNtCsaKzlTDPUHDb_11proc_macro211TokenStreamNtNtB2u_5token4PlusEENtB1n_8InternalENtB1n_2KVE5splitNtNtBc_5alloc6GlobalECs71axb73f1AC_14thiserror_impl, symObjAddr: 0x7640, symBinAddr: 0x8210, symSize: 0x350 }
  - { offset: 0x2584B, size: 0x8, addend: 0x0, symName: __RINvMsW_NtNtNtCslJiobkLta79_5alloc11collections5btree4nodeINtB6_6HandleINtB6_7NodeRefNtNtB6_6marker3MutTjNtNtCs71axb73f1AC_14thiserror_impl4attr5TraitENtNtB8_7set_val9SetValZSTNtB1n_8InternalENtB1n_2KVE5splitNtNtBc_5alloc6GlobalEB1J_, symObjAddr: 0x7990, symBinAddr: 0x8560, symSize: 0x320 }
  - { offset: 0x25C42, size: 0x8, addend: 0x0, symName: __RINvMs_NtNtNtCslJiobkLta79_5alloc11collections5btree4nodeINtB5_12InternalNodeNtCsaKzlTDPUHDb_11proc_macro25IdentNtNtB7_7set_val9SetValZSTE3newNtNtBb_5alloc6GlobalECs71axb73f1AC_14thiserror_impl, symObjAddr: 0x7CB0, symBinAddr: 0x8880, symSize: 0x60 }
  - { offset: 0x25E5E, size: 0x8, addend: 0x0, symName: __RINvMs_NtNtNtCslJiobkLta79_5alloc11collections5btree4nodeINtB5_12InternalNodeNtNtBb_6string6StringNtNtB7_7set_val9SetValZSTE3newNtNtBb_5alloc6GlobalECs71axb73f1AC_14thiserror_impl, symObjAddr: 0x7D10, symBinAddr: 0x88E0, symSize: 0x60 }
  - { offset: 0x2607A, size: 0x8, addend: 0x0, symName: __RINvMs_NtNtNtCslJiobkLta79_5alloc11collections5btree4nodeINtB5_12InternalNodeNtNtBb_6string6StringTINtNtB7_3set8BTreeSetB1d_EINtNtCsdGrGZaRBwMb_3syn10punctuated10PunctuatedNtCsaKzlTDPUHDb_11proc_macro211TokenStreamNtNtB24_5token4PlusEEE3newNtNtBb_5alloc6GlobalECs71axb73f1AC_14thiserror_impl, symObjAddr: 0x7D70, symBinAddr: 0x8940, symSize: 0x60 }
  - { offset: 0x26296, size: 0x8, addend: 0x0, symName: __RINvMs_NtNtNtCslJiobkLta79_5alloc11collections5btree4nodeINtB5_12InternalNodeRNtCsaKzlTDPUHDb_11proc_macro25IdentNtNtB7_7set_val9SetValZSTE3newNtNtBb_5alloc6GlobalECs71axb73f1AC_14thiserror_impl, symObjAddr: 0x7DD0, symBinAddr: 0x89A0, symSize: 0x50 }
  - { offset: 0x264B2, size: 0x8, addend: 0x0, symName: __RINvMs_NtNtNtCslJiobkLta79_5alloc11collections5btree4nodeINtB5_12InternalNodeTjNtNtCs71axb73f1AC_14thiserror_impl4attr5TraitENtNtB7_7set_val9SetValZSTE3newNtNtBb_5alloc6GlobalEB1j_, symObjAddr: 0x7E20, symBinAddr: 0x89F0, symSize: 0x60 }
  - { offset: 0x267AD, size: 0x8, addend: 0x0, symName: __RINvMs_NtNtNtCslJiobkLta79_5alloc11collections5btree6searchINtNtB7_4node7NodeRefNtNtBY_6marker3MutNtCsaKzlTDPUHDb_11proc_macro25IdentNtNtB7_7set_val9SetValZSTNtB1i_14LeafOrInternalE11search_treeB1y_ECs71axb73f1AC_14thiserror_impl, symObjAddr: 0x7E80, symBinAddr: 0x8A50, symSize: 0x3A0 }
  - { offset: 0x26AFD, size: 0x8, addend: 0x0, symName: __RINvMs_NtNtNtCslJiobkLta79_5alloc11collections5btree6searchINtNtB7_4node7NodeRefNtNtBY_6marker3MutNtNtBb_6string6StringNtNtB7_7set_val9SetValZSTNtB1i_14LeafOrInternalE11search_treeB1y_ECs71axb73f1AC_14thiserror_impl, symObjAddr: 0x8220, symBinAddr: 0x8DF0, symSize: 0x3A0 }
  - { offset: 0x26E4D, size: 0x8, addend: 0x0, symName: __RINvMs_NtNtNtCslJiobkLta79_5alloc11collections5btree6searchINtNtB7_4node7NodeRefNtNtBY_6marker3MutNtNtBb_6string6StringTINtNtB7_3set8BTreeSetB1y_EINtNtCsdGrGZaRBwMb_3syn10punctuated10PunctuatedNtCsaKzlTDPUHDb_11proc_macro211TokenStreamNtNtB2p_5token4PlusEENtB1i_14LeafOrInternalE11search_treeB1y_ECs71axb73f1AC_14thiserror_impl, symObjAddr: 0x85C0, symBinAddr: 0x9190, symSize: 0x3A0 }
  - { offset: 0x2719D, size: 0x8, addend: 0x0, symName: __RINvMs_NtNtNtCslJiobkLta79_5alloc11collections5btree6searchINtNtB7_4node7NodeRefNtNtBY_6marker3MutTjNtNtCs71axb73f1AC_14thiserror_impl4attr5TraitENtNtB7_7set_val9SetValZSTNtB1i_14LeafOrInternalE11search_treeB1y_EB1E_, symObjAddr: 0x8960, symBinAddr: 0x9530, symSize: 0x3A0 }
  - { offset: 0x27529, size: 0x8, addend: 0x0, symName: __RINvMs_NtNtNtCslJiobkLta79_5alloc11collections5btree6searchINtNtB7_4node7NodeRefNtNtBY_6marker5ImmutNtNtBb_6string6StringTINtNtB7_3set8BTreeSetB1A_EINtNtCsdGrGZaRBwMb_3syn10punctuated10PunctuatedNtCsaKzlTDPUHDb_11proc_macro211TokenStreamNtNtB2r_5token4PlusEENtB1i_14LeafOrInternalE11search_treeB1A_ECs71axb73f1AC_14thiserror_impl, symObjAddr: 0x8D00, symBinAddr: 0x98D0, symSize: 0x3A0 }
  - { offset: 0x27879, size: 0x8, addend: 0x0, symName: __RINvMs_NtNtNtCslJiobkLta79_5alloc11collections5btree6searchINtNtB7_4node7NodeRefNtNtBY_6marker5ImmutRNtCsaKzlTDPUHDb_11proc_macro25IdentNtNtB7_7set_val9SetValZSTNtB1i_14LeafOrInternalE11search_treeB1B_ECs71axb73f1AC_14thiserror_impl, symObjAddr: 0x90A0, symBinAddr: 0x9C70, symSize: 0x3A0 }
  - { offset: 0x27B57, size: 0x8, addend: 0x0, symName: __RINvMsh_NtNtNtCslJiobkLta79_5alloc11collections5btree4nodeINtB6_7NodeRefNtNtB6_6marker5DyingNtCsaKzlTDPUHDb_11proc_macro25IdentNtNtB8_7set_val9SetValZSTNtB1a_14LeafOrInternalE21deallocate_and_ascendNtNtBc_5alloc6GlobalECs71axb73f1AC_14thiserror_impl, symObjAddr: 0x9440, symBinAddr: 0xA010, symSize: 0x1A0 }
  - { offset: 0x27DD8, size: 0x8, addend: 0x0, symName: __RINvMsh_NtNtNtCslJiobkLta79_5alloc11collections5btree4nodeINtB6_7NodeRefNtNtB6_6marker5DyingNtNtBc_6string6StringNtNtB8_7set_val9SetValZSTNtB1a_14LeafOrInternalE21deallocate_and_ascendNtNtBc_5alloc6GlobalECs71axb73f1AC_14thiserror_impl, symObjAddr: 0x95E0, symBinAddr: 0xA1B0, symSize: 0x1A0 }
  - { offset: 0x28059, size: 0x8, addend: 0x0, symName: __RINvMsh_NtNtNtCslJiobkLta79_5alloc11collections5btree4nodeINtB6_7NodeRefNtNtB6_6marker5DyingNtNtBc_6string6StringTINtNtB8_3set8BTreeSetB1s_EINtNtCsdGrGZaRBwMb_3syn10punctuated10PunctuatedNtCsaKzlTDPUHDb_11proc_macro211TokenStreamNtNtB2j_5token4PlusEENtB1a_14LeafOrInternalE21deallocate_and_ascendNtNtBc_5alloc6GlobalECs71axb73f1AC_14thiserror_impl, symObjAddr: 0x9780, symBinAddr: 0xA350, symSize: 0x1A0 }
  - { offset: 0x282DA, size: 0x8, addend: 0x0, symName: __RINvMsh_NtNtNtCslJiobkLta79_5alloc11collections5btree4nodeINtB6_7NodeRefNtNtB6_6marker5DyingRNtCsaKzlTDPUHDb_11proc_macro25IdentNtNtB8_7set_val9SetValZSTNtB1a_14LeafOrInternalE21deallocate_and_ascendNtNtBc_5alloc6GlobalECs71axb73f1AC_14thiserror_impl, symObjAddr: 0x9920, symBinAddr: 0xA4F0, symSize: 0x1A0 }
  - { offset: 0x2855B, size: 0x8, addend: 0x0, symName: __RINvMsh_NtNtNtCslJiobkLta79_5alloc11collections5btree4nodeINtB6_7NodeRefNtNtB6_6marker5DyingTjNtNtCs71axb73f1AC_14thiserror_impl4attr5TraitENtNtB8_7set_val9SetValZSTNtB1a_14LeafOrInternalE21deallocate_and_ascendNtNtBc_5alloc6GlobalEB1y_, symObjAddr: 0x9AC0, symBinAddr: 0xA690, symSize: 0x1A0 }
  - { offset: 0x287AF, size: 0x8, addend: 0x0, symName: __RINvMsj_NtNtNtCslJiobkLta79_5alloc11collections5btree8navigateINtNtB8_4node6HandleINtB11_7NodeRefNtNtB11_6marker5DyingNtCsaKzlTDPUHDb_11proc_macro25IdentNtNtB8_7set_val9SetValZSTNtB1z_4LeafENtB1z_4EdgeE16deallocating_endNtNtBc_5alloc6GlobalECs71axb73f1AC_14thiserror_impl, symObjAddr: 0x9C60, symBinAddr: 0xA830, symSize: 0xF0 }
  - { offset: 0x28A25, size: 0x8, addend: 0x0, symName: __RINvMsj_NtNtNtCslJiobkLta79_5alloc11collections5btree8navigateINtNtB8_4node6HandleINtB11_7NodeRefNtNtB11_6marker5DyingNtCsaKzlTDPUHDb_11proc_macro25IdentNtNtB8_7set_val9SetValZSTNtB1z_4LeafENtB1z_4EdgeE17deallocating_nextNtNtBc_5alloc6GlobalECs71axb73f1AC_14thiserror_impl, symObjAddr: 0x9D50, symBinAddr: 0xA920, symSize: 0x370 }
  - { offset: 0x28C70, size: 0x8, addend: 0x0, symName: __RINvMsj_NtNtNtCslJiobkLta79_5alloc11collections5btree8navigateINtNtB8_4node6HandleINtB11_7NodeRefNtNtB11_6marker5DyingNtNtBc_6string6StringNtNtB8_7set_val9SetValZSTNtB1z_4LeafENtB1z_4EdgeE16deallocating_endNtNtBc_5alloc6GlobalECs71axb73f1AC_14thiserror_impl, symObjAddr: 0xA0C0, symBinAddr: 0xAC90, symSize: 0xF0 }
  - { offset: 0x28EE6, size: 0x8, addend: 0x0, symName: __RINvMsj_NtNtNtCslJiobkLta79_5alloc11collections5btree8navigateINtNtB8_4node6HandleINtB11_7NodeRefNtNtB11_6marker5DyingNtNtBc_6string6StringNtNtB8_7set_val9SetValZSTNtB1z_4LeafENtB1z_4EdgeE17deallocating_nextNtNtBc_5alloc6GlobalECs71axb73f1AC_14thiserror_impl, symObjAddr: 0xA1B0, symBinAddr: 0xAD80, symSize: 0x370 }
  - { offset: 0x29131, size: 0x8, addend: 0x0, symName: __RINvMsj_NtNtNtCslJiobkLta79_5alloc11collections5btree8navigateINtNtB8_4node6HandleINtB11_7NodeRefNtNtB11_6marker5DyingNtNtBc_6string6StringTINtNtB8_3set8BTreeSetB1S_EINtNtCsdGrGZaRBwMb_3syn10punctuated10PunctuatedNtCsaKzlTDPUHDb_11proc_macro211TokenStreamNtNtB2J_5token4PlusEENtB1z_4LeafENtB1z_4EdgeE16deallocating_endNtNtBc_5alloc6GlobalECs71axb73f1AC_14thiserror_impl, symObjAddr: 0xA520, symBinAddr: 0xB0F0, symSize: 0xF0 }
  - { offset: 0x293A7, size: 0x8, addend: 0x0, symName: __RINvMsj_NtNtNtCslJiobkLta79_5alloc11collections5btree8navigateINtNtB8_4node6HandleINtB11_7NodeRefNtNtB11_6marker5DyingNtNtBc_6string6StringTINtNtB8_3set8BTreeSetB1S_EINtNtCsdGrGZaRBwMb_3syn10punctuated10PunctuatedNtCsaKzlTDPUHDb_11proc_macro211TokenStreamNtNtB2J_5token4PlusEENtB1z_4LeafENtB1z_4EdgeE17deallocating_nextNtNtBc_5alloc6GlobalECs71axb73f1AC_14thiserror_impl, symObjAddr: 0xA610, symBinAddr: 0xB1E0, symSize: 0x370 }
  - { offset: 0x295F2, size: 0x8, addend: 0x0, symName: __RINvMsj_NtNtNtCslJiobkLta79_5alloc11collections5btree8navigateINtNtB8_4node6HandleINtB11_7NodeRefNtNtB11_6marker5DyingRNtCsaKzlTDPUHDb_11proc_macro25IdentNtNtB8_7set_val9SetValZSTNtB1z_4LeafENtB1z_4EdgeE16deallocating_endNtNtBc_5alloc6GlobalECs71axb73f1AC_14thiserror_impl, symObjAddr: 0xA980, symBinAddr: 0xB550, symSize: 0xF0 }
  - { offset: 0x29868, size: 0x8, addend: 0x0, symName: __RINvMsj_NtNtNtCslJiobkLta79_5alloc11collections5btree8navigateINtNtB8_4node6HandleINtB11_7NodeRefNtNtB11_6marker5DyingRNtCsaKzlTDPUHDb_11proc_macro25IdentNtNtB8_7set_val9SetValZSTNtB1z_4LeafENtB1z_4EdgeE17deallocating_nextNtNtBc_5alloc6GlobalECs71axb73f1AC_14thiserror_impl, symObjAddr: 0xAA70, symBinAddr: 0xB640, symSize: 0x360 }
  - { offset: 0x29AB3, size: 0x8, addend: 0x0, symName: __RINvMsj_NtNtNtCslJiobkLta79_5alloc11collections5btree8navigateINtNtB8_4node6HandleINtB11_7NodeRefNtNtB11_6marker5DyingTjNtNtCs71axb73f1AC_14thiserror_impl4attr5TraitENtNtB8_7set_val9SetValZSTNtB1z_4LeafENtB1z_4EdgeE16deallocating_endNtNtBc_5alloc6GlobalEB1Y_, symObjAddr: 0xADD0, symBinAddr: 0xB9A0, symSize: 0xF0 }
  - { offset: 0x29D29, size: 0x8, addend: 0x0, symName: __RINvMsj_NtNtNtCslJiobkLta79_5alloc11collections5btree8navigateINtNtB8_4node6HandleINtB11_7NodeRefNtNtB11_6marker5DyingTjNtNtCs71axb73f1AC_14thiserror_impl4attr5TraitENtNtB8_7set_val9SetValZSTNtB1z_4LeafENtB1z_4EdgeE17deallocating_nextNtNtBc_5alloc6GlobalEB1Y_, symObjAddr: 0xAEC0, symBinAddr: 0xBA90, symSize: 0x370 }
  - { offset: 0x29F8B, size: 0x8, addend: 0x0, symName: __RINvMsp_NtNtNtCslJiobkLta79_5alloc11collections5btree4nodeINtB6_7NodeRefNtNtB6_6marker3MutNtCsaKzlTDPUHDb_11proc_macro25IdentNtNtB8_7set_val9SetValZSTNtB1a_8InternalE30correct_childrens_parent_linksINtNtNtCsieiGu2EXtoJ_4core3ops5range14RangeInclusivejEECs71axb73f1AC_14thiserror_impl, symObjAddr: 0xB230, symBinAddr: 0xBE00, symSize: 0xC0 }
  - { offset: 0x2A0C3, size: 0x8, addend: 0x0, symName: __RINvMsp_NtNtNtCslJiobkLta79_5alloc11collections5btree4nodeINtB6_7NodeRefNtNtB6_6marker3MutNtCsaKzlTDPUHDb_11proc_macro25IdentNtNtB8_7set_val9SetValZSTNtB1a_8InternalE30correct_childrens_parent_linksINtNtNtCsieiGu2EXtoJ_4core3ops5range5RangejEECs71axb73f1AC_14thiserror_impl, symObjAddr: 0xB2F0, symBinAddr: 0xBEC0, symSize: 0xC0 }
  - { offset: 0x2A1FA, size: 0x8, addend: 0x0, symName: __RINvMsp_NtNtNtCslJiobkLta79_5alloc11collections5btree4nodeINtB6_7NodeRefNtNtB6_6marker3MutNtNtBc_6string6StringNtNtB8_7set_val9SetValZSTNtB1a_8InternalE30correct_childrens_parent_linksINtNtNtCsieiGu2EXtoJ_4core3ops5range14RangeInclusivejEECs71axb73f1AC_14thiserror_impl, symObjAddr: 0xB3B0, symBinAddr: 0xBF80, symSize: 0xC0 }
  - { offset: 0x2A332, size: 0x8, addend: 0x0, symName: __RINvMsp_NtNtNtCslJiobkLta79_5alloc11collections5btree4nodeINtB6_7NodeRefNtNtB6_6marker3MutNtNtBc_6string6StringNtNtB8_7set_val9SetValZSTNtB1a_8InternalE30correct_childrens_parent_linksINtNtNtCsieiGu2EXtoJ_4core3ops5range5RangejEECs71axb73f1AC_14thiserror_impl, symObjAddr: 0xB470, symBinAddr: 0xC040, symSize: 0xC0 }
  - { offset: 0x2A469, size: 0x8, addend: 0x0, symName: __RINvMsp_NtNtNtCslJiobkLta79_5alloc11collections5btree4nodeINtB6_7NodeRefNtNtB6_6marker3MutNtNtBc_6string6StringTINtNtB8_3set8BTreeSetB1q_EINtNtCsdGrGZaRBwMb_3syn10punctuated10PunctuatedNtCsaKzlTDPUHDb_11proc_macro211TokenStreamNtNtB2h_5token4PlusEENtB1a_8InternalE30correct_childrens_parent_linksINtNtNtCsieiGu2EXtoJ_4core3ops5range14RangeInclusivejEECs71axb73f1AC_14thiserror_impl, symObjAddr: 0xB530, symBinAddr: 0xC100, symSize: 0xC0 }
  - { offset: 0x2A5A1, size: 0x8, addend: 0x0, symName: __RINvMsp_NtNtNtCslJiobkLta79_5alloc11collections5btree4nodeINtB6_7NodeRefNtNtB6_6marker3MutNtNtBc_6string6StringTINtNtB8_3set8BTreeSetB1q_EINtNtCsdGrGZaRBwMb_3syn10punctuated10PunctuatedNtCsaKzlTDPUHDb_11proc_macro211TokenStreamNtNtB2h_5token4PlusEENtB1a_8InternalE30correct_childrens_parent_linksINtNtNtCsieiGu2EXtoJ_4core3ops5range5RangejEECs71axb73f1AC_14thiserror_impl, symObjAddr: 0xB5F0, symBinAddr: 0xC1C0, symSize: 0xC0 }
  - { offset: 0x2A6D8, size: 0x8, addend: 0x0, symName: __RINvMsp_NtNtNtCslJiobkLta79_5alloc11collections5btree4nodeINtB6_7NodeRefNtNtB6_6marker3MutRNtCsaKzlTDPUHDb_11proc_macro25IdentNtNtB8_7set_val9SetValZSTNtB1a_8InternalE30correct_childrens_parent_linksINtNtNtCsieiGu2EXtoJ_4core3ops5range14RangeInclusivejEECs71axb73f1AC_14thiserror_impl, symObjAddr: 0xB6B0, symBinAddr: 0xC280, symSize: 0xC0 }
  - { offset: 0x2A810, size: 0x8, addend: 0x0, symName: __RINvMsp_NtNtNtCslJiobkLta79_5alloc11collections5btree4nodeINtB6_7NodeRefNtNtB6_6marker3MutRNtCsaKzlTDPUHDb_11proc_macro25IdentNtNtB8_7set_val9SetValZSTNtB1a_8InternalE30correct_childrens_parent_linksINtNtNtCsieiGu2EXtoJ_4core3ops5range5RangejEECs71axb73f1AC_14thiserror_impl, symObjAddr: 0xB770, symBinAddr: 0xC340, symSize: 0xC0 }
  - { offset: 0x2A947, size: 0x8, addend: 0x0, symName: __RINvMsp_NtNtNtCslJiobkLta79_5alloc11collections5btree4nodeINtB6_7NodeRefNtNtB6_6marker3MutTjNtNtCs71axb73f1AC_14thiserror_impl4attr5TraitENtNtB8_7set_val9SetValZSTNtB1a_8InternalE30correct_childrens_parent_linksINtNtNtCsieiGu2EXtoJ_4core3ops5range14RangeInclusivejEEB1w_, symObjAddr: 0xB830, symBinAddr: 0xC400, symSize: 0xC0 }
  - { offset: 0x2AA7F, size: 0x8, addend: 0x0, symName: __RINvMsp_NtNtNtCslJiobkLta79_5alloc11collections5btree4nodeINtB6_7NodeRefNtNtB6_6marker3MutTjNtNtCs71axb73f1AC_14thiserror_impl4attr5TraitENtNtB8_7set_val9SetValZSTNtB1a_8InternalE30correct_childrens_parent_linksINtNtNtCsieiGu2EXtoJ_4core3ops5range5RangejEEB1w_, symObjAddr: 0xB8F0, symBinAddr: 0xC4C0, symSize: 0xC0 }
  - { offset: 0x2B152, size: 0x8, addend: 0x0, symName: __RNvMs0_NtNtNtCslJiobkLta79_5alloc11collections5btree3fixINtNtB7_4node7NodeRefNtNtBV_6marker5OwnedRNtCsaKzlTDPUHDb_11proc_macro25IdentNtNtB7_7set_val9SetValZSTNtB1f_14LeafOrInternalE29fix_right_border_of_plentifulCs71axb73f1AC_14thiserror_impl, symObjAddr: 0xCDE0, symBinAddr: 0xD9B0, symSize: 0x1E0 }
  - { offset: 0x2B89D, size: 0x8, addend: 0x0, symName: __RNvMs10_NtNtNtCslJiobkLta79_5alloc11collections5btree4nodeINtB6_16BalancingContextRNtCsaKzlTDPUHDb_11proc_macro25IdentNtNtB8_7set_val9SetValZSTE15bulk_steal_leftCs71axb73f1AC_14thiserror_impl, symObjAddr: 0xCFC0, symBinAddr: 0xDB90, symSize: 0xC80 }
  - { offset: 0x2CCE3, size: 0x8, addend: 0x0, symName: __RNvMsJ_NtNtNtCslJiobkLta79_5alloc11collections5btree4nodeINtB5_6HandleINtB5_7NodeRefNtNtB5_6marker3MutNtCsaKzlTDPUHDb_11proc_macro25IdentNtNtB7_7set_val9SetValZSTNtB1m_4LeafENtB1m_4EdgeE10insert_fitCs71axb73f1AC_14thiserror_impl, symObjAddr: 0xDC40, symBinAddr: 0xE810, symSize: 0x250 }
  - { offset: 0x2D256, size: 0x8, addend: 0x0, symName: __RNvMsJ_NtNtNtCslJiobkLta79_5alloc11collections5btree4nodeINtB5_6HandleINtB5_7NodeRefNtNtB5_6marker3MutNtNtBb_6string6StringNtNtB7_7set_val9SetValZSTNtB1m_4LeafENtB1m_4EdgeE10insert_fitCs71axb73f1AC_14thiserror_impl, symObjAddr: 0xDE90, symBinAddr: 0xEA60, symSize: 0x250 }
  - { offset: 0x2D7C9, size: 0x8, addend: 0x0, symName: __RNvMsJ_NtNtNtCslJiobkLta79_5alloc11collections5btree4nodeINtB5_6HandleINtB5_7NodeRefNtNtB5_6marker3MutNtNtBb_6string6StringTINtNtB7_3set8BTreeSetB1C_EINtNtCsdGrGZaRBwMb_3syn10punctuated10PunctuatedNtCsaKzlTDPUHDb_11proc_macro211TokenStreamNtNtB2t_5token4PlusEENtB1m_4LeafENtB1m_4EdgeE10insert_fitCs71axb73f1AC_14thiserror_impl, symObjAddr: 0xE0E0, symBinAddr: 0xECB0, symSize: 0x2C0 }
  - { offset: 0x2DD3C, size: 0x8, addend: 0x0, symName: __RNvMsJ_NtNtNtCslJiobkLta79_5alloc11collections5btree4nodeINtB5_6HandleINtB5_7NodeRefNtNtB5_6marker3MutTjNtNtCs71axb73f1AC_14thiserror_impl4attr5TraitENtNtB7_7set_val9SetValZSTNtB1m_4LeafENtB1m_4EdgeE10insert_fitB1I_, symObjAddr: 0xE3A0, symBinAddr: 0xEF70, symSize: 0x240 }
  - { offset: 0x2E1B7, size: 0x8, addend: 0x0, symName: __RNvMsL_NtNtNtCslJiobkLta79_5alloc11collections5btree4nodeINtB5_6HandleINtB5_7NodeRefNtNtB5_6marker3MutNtCsaKzlTDPUHDb_11proc_macro25IdentNtNtB7_7set_val9SetValZSTNtB1m_8InternalENtB1m_4EdgeE19correct_parent_linkCs71axb73f1AC_14thiserror_impl, symObjAddr: 0xE5E0, symBinAddr: 0xF1B0, symSize: 0xA0 }
  - { offset: 0x2E3BF, size: 0x8, addend: 0x0, symName: __RNvMsL_NtNtNtCslJiobkLta79_5alloc11collections5btree4nodeINtB5_6HandleINtB5_7NodeRefNtNtB5_6marker3MutNtNtBb_6string6StringNtNtB7_7set_val9SetValZSTNtB1m_8InternalENtB1m_4EdgeE19correct_parent_linkCs71axb73f1AC_14thiserror_impl, symObjAddr: 0xE680, symBinAddr: 0xF250, symSize: 0xA0 }
  - { offset: 0x2E5C7, size: 0x8, addend: 0x0, symName: __RNvMsL_NtNtNtCslJiobkLta79_5alloc11collections5btree4nodeINtB5_6HandleINtB5_7NodeRefNtNtB5_6marker3MutNtNtBb_6string6StringTINtNtB7_3set8BTreeSetB1C_EINtNtCsdGrGZaRBwMb_3syn10punctuated10PunctuatedNtCsaKzlTDPUHDb_11proc_macro211TokenStreamNtNtB2t_5token4PlusEENtB1m_8InternalENtB1m_4EdgeE19correct_parent_linkCs71axb73f1AC_14thiserror_impl, symObjAddr: 0xE720, symBinAddr: 0xF2F0, symSize: 0xA0 }
  - { offset: 0x2E7C2, size: 0x8, addend: 0x0, symName: __RNvMsL_NtNtNtCslJiobkLta79_5alloc11collections5btree4nodeINtB5_6HandleINtB5_7NodeRefNtNtB5_6marker3MutRNtCsaKzlTDPUHDb_11proc_macro25IdentNtNtB7_7set_val9SetValZSTNtB1m_8InternalENtB1m_4EdgeE19correct_parent_linkCs71axb73f1AC_14thiserror_impl, symObjAddr: 0xE7C0, symBinAddr: 0xF390, symSize: 0xA0 }
  - { offset: 0x2E9CA, size: 0x8, addend: 0x0, symName: __RNvMsL_NtNtNtCslJiobkLta79_5alloc11collections5btree4nodeINtB5_6HandleINtB5_7NodeRefNtNtB5_6marker3MutTjNtNtCs71axb73f1AC_14thiserror_impl4attr5TraitENtNtB7_7set_val9SetValZSTNtB1m_8InternalENtB1m_4EdgeE19correct_parent_linkB1I_, symObjAddr: 0xE860, symBinAddr: 0xF430, symSize: 0xA0 }
  - { offset: 0x2ED00, size: 0x8, addend: 0x0, symName: __RNvMsM_NtNtNtCslJiobkLta79_5alloc11collections5btree4nodeINtB5_6HandleINtB5_7NodeRefNtNtB5_6marker3MutNtCsaKzlTDPUHDb_11proc_macro25IdentNtNtB7_7set_val9SetValZSTNtB1m_8InternalENtB1m_4EdgeE10insert_fitCs71axb73f1AC_14thiserror_impl, symObjAddr: 0xE900, symBinAddr: 0xF4D0, symSize: 0x320 }
  - { offset: 0x2F3A1, size: 0x8, addend: 0x0, symName: __RNvMsM_NtNtNtCslJiobkLta79_5alloc11collections5btree4nodeINtB5_6HandleINtB5_7NodeRefNtNtB5_6marker3MutNtNtBb_6string6StringNtNtB7_7set_val9SetValZSTNtB1m_8InternalENtB1m_4EdgeE10insert_fitCs71axb73f1AC_14thiserror_impl, symObjAddr: 0xEC20, symBinAddr: 0xF7F0, symSize: 0x320 }
  - { offset: 0x2FA42, size: 0x8, addend: 0x0, symName: __RNvMsM_NtNtNtCslJiobkLta79_5alloc11collections5btree4nodeINtB5_6HandleINtB5_7NodeRefNtNtB5_6marker3MutNtNtBb_6string6StringTINtNtB7_3set8BTreeSetB1C_EINtNtCsdGrGZaRBwMb_3syn10punctuated10PunctuatedNtCsaKzlTDPUHDb_11proc_macro211TokenStreamNtNtB2t_5token4PlusEENtB1m_8InternalENtB1m_4EdgeE10insert_fitCs71axb73f1AC_14thiserror_impl, symObjAddr: 0xEF40, symBinAddr: 0xFB10, symSize: 0x390 }
  - { offset: 0x300E3, size: 0x8, addend: 0x0, symName: __RNvMsM_NtNtNtCslJiobkLta79_5alloc11collections5btree4nodeINtB5_6HandleINtB5_7NodeRefNtNtB5_6marker3MutTjNtNtCs71axb73f1AC_14thiserror_impl4attr5TraitENtNtB7_7set_val9SetValZSTNtB1m_8InternalENtB1m_4EdgeE10insert_fitB1I_, symObjAddr: 0xF2D0, symBinAddr: 0xFEA0, symSize: 0x310 }
  - { offset: 0x3061A, size: 0x8, addend: 0x0, symName: __RNvMsO_NtNtNtCslJiobkLta79_5alloc11collections5btree4nodeINtB5_6HandleINtB5_7NodeRefNtNtB5_6marker3MutNtCsaKzlTDPUHDb_11proc_macro25IdentNtNtB7_7set_val9SetValZSTNtB1m_8InternalENtB1m_4EdgeE7descendCs71axb73f1AC_14thiserror_impl, symObjAddr: 0xF5E0, symBinAddr: 0x101B0, symSize: 0x80 }
  - { offset: 0x30815, size: 0x8, addend: 0x0, symName: __RNvMsO_NtNtNtCslJiobkLta79_5alloc11collections5btree4nodeINtB5_6HandleINtB5_7NodeRefNtNtB5_6marker3MutNtNtBb_6string6StringNtNtB7_7set_val9SetValZSTNtB1m_8InternalENtB1m_4EdgeE7descendCs71axb73f1AC_14thiserror_impl, symObjAddr: 0xF660, symBinAddr: 0x10230, symSize: 0x80 }
  - { offset: 0x30A10, size: 0x8, addend: 0x0, symName: __RNvMsO_NtNtNtCslJiobkLta79_5alloc11collections5btree4nodeINtB5_6HandleINtB5_7NodeRefNtNtB5_6marker3MutNtNtBb_6string6StringTINtNtB7_3set8BTreeSetB1C_EINtNtCsdGrGZaRBwMb_3syn10punctuated10PunctuatedNtCsaKzlTDPUHDb_11proc_macro211TokenStreamNtNtB2t_5token4PlusEENtB1m_8InternalENtB1m_4EdgeE7descendCs71axb73f1AC_14thiserror_impl, symObjAddr: 0xF6E0, symBinAddr: 0x102B0, symSize: 0x80 }
  - { offset: 0x30C0B, size: 0x8, addend: 0x0, symName: __RNvMsO_NtNtNtCslJiobkLta79_5alloc11collections5btree4nodeINtB5_6HandleINtB5_7NodeRefNtNtB5_6marker3MutRNtCsaKzlTDPUHDb_11proc_macro25IdentNtNtB7_7set_val9SetValZSTNtB1m_8InternalENtB1m_4EdgeE7descendCs71axb73f1AC_14thiserror_impl, symObjAddr: 0xF760, symBinAddr: 0x10330, symSize: 0x80 }
  - { offset: 0x30E06, size: 0x8, addend: 0x0, symName: __RNvMsO_NtNtNtCslJiobkLta79_5alloc11collections5btree4nodeINtB5_6HandleINtB5_7NodeRefNtNtB5_6marker3MutTjNtNtCs71axb73f1AC_14thiserror_impl4attr5TraitENtNtB7_7set_val9SetValZSTNtB1m_8InternalENtB1m_4EdgeE7descendB1I_, symObjAddr: 0xF7E0, symBinAddr: 0x103B0, symSize: 0x80 }
  - { offset: 0x30FD6, size: 0x8, addend: 0x0, symName: __RNvMsO_NtNtNtCslJiobkLta79_5alloc11collections5btree4nodeINtB5_6HandleINtB5_7NodeRefNtNtB5_6marker5DyingNtCsaKzlTDPUHDb_11proc_macro25IdentNtNtB7_7set_val9SetValZSTNtB1m_8InternalENtB1m_4EdgeE7descendCs71axb73f1AC_14thiserror_impl, symObjAddr: 0xF860, symBinAddr: 0x10430, symSize: 0x80 }
  - { offset: 0x311A6, size: 0x8, addend: 0x0, symName: __RNvMsO_NtNtNtCslJiobkLta79_5alloc11collections5btree4nodeINtB5_6HandleINtB5_7NodeRefNtNtB5_6marker5DyingNtNtBb_6string6StringNtNtB7_7set_val9SetValZSTNtB1m_8InternalENtB1m_4EdgeE7descendCs71axb73f1AC_14thiserror_impl, symObjAddr: 0xF8E0, symBinAddr: 0x104B0, symSize: 0x80 }
  - { offset: 0x31376, size: 0x8, addend: 0x0, symName: __RNvMsO_NtNtNtCslJiobkLta79_5alloc11collections5btree4nodeINtB5_6HandleINtB5_7NodeRefNtNtB5_6marker5DyingNtNtBb_6string6StringTINtNtB7_3set8BTreeSetB1E_EINtNtCsdGrGZaRBwMb_3syn10punctuated10PunctuatedNtCsaKzlTDPUHDb_11proc_macro211TokenStreamNtNtB2v_5token4PlusEENtB1m_8InternalENtB1m_4EdgeE7descendCs71axb73f1AC_14thiserror_impl, symObjAddr: 0xF960, symBinAddr: 0x10530, symSize: 0x80 }
  - { offset: 0x31546, size: 0x8, addend: 0x0, symName: __RNvMsO_NtNtNtCslJiobkLta79_5alloc11collections5btree4nodeINtB5_6HandleINtB5_7NodeRefNtNtB5_6marker5DyingRNtCsaKzlTDPUHDb_11proc_macro25IdentNtNtB7_7set_val9SetValZSTNtB1m_8InternalENtB1m_4EdgeE7descendCs71axb73f1AC_14thiserror_impl, symObjAddr: 0xF9E0, symBinAddr: 0x105B0, symSize: 0x80 }
  - { offset: 0x31716, size: 0x8, addend: 0x0, symName: __RNvMsO_NtNtNtCslJiobkLta79_5alloc11collections5btree4nodeINtB5_6HandleINtB5_7NodeRefNtNtB5_6marker5DyingTjNtNtCs71axb73f1AC_14thiserror_impl4attr5TraitENtNtB7_7set_val9SetValZSTNtB1m_8InternalENtB1m_4EdgeE7descendB1K_, symObjAddr: 0xFA60, symBinAddr: 0x10630, symSize: 0x80 }
  - { offset: 0x318E6, size: 0x8, addend: 0x0, symName: __RNvMsO_NtNtNtCslJiobkLta79_5alloc11collections5btree4nodeINtB5_6HandleINtB5_7NodeRefNtNtB5_6marker5ImmutNtNtBb_6string6StringTINtNtB7_3set8BTreeSetB1E_EINtNtCsdGrGZaRBwMb_3syn10punctuated10PunctuatedNtCsaKzlTDPUHDb_11proc_macro211TokenStreamNtNtB2v_5token4PlusEENtB1m_8InternalENtB1m_4EdgeE7descendCs71axb73f1AC_14thiserror_impl, symObjAddr: 0xFAE0, symBinAddr: 0x106B0, symSize: 0x80 }
  - { offset: 0x31AB6, size: 0x8, addend: 0x0, symName: __RNvMsO_NtNtNtCslJiobkLta79_5alloc11collections5btree4nodeINtB5_6HandleINtB5_7NodeRefNtNtB5_6marker5ImmutRNtCsaKzlTDPUHDb_11proc_macro25IdentNtNtB7_7set_val9SetValZSTNtB1m_8InternalENtB1m_4EdgeE7descendCs71axb73f1AC_14thiserror_impl, symObjAddr: 0xFB60, symBinAddr: 0x10730, symSize: 0x80 }
  - { offset: 0x31C86, size: 0x8, addend: 0x0, symName: __RNvMsO_NtNtNtCslJiobkLta79_5alloc11collections5btree4nodeINtB5_6HandleINtB5_7NodeRefNtNtB5_6marker5ImmutTjNtNtCs71axb73f1AC_14thiserror_impl4attr5TraitENtNtB7_7set_val9SetValZSTNtB1m_8InternalENtB1m_4EdgeE7descendB1K_, symObjAddr: 0xFBE0, symBinAddr: 0x107B0, symSize: 0x80 }
  - { offset: 0x31F64, size: 0x8, addend: 0x0, symName: __RNvMsP_NtNtNtCslJiobkLta79_5alloc11collections5btree4nodeINtB5_6HandleINtB5_7NodeRefNtNtB5_6marker5ImmutNtNtBb_6string6StringTINtNtB7_3set8BTreeSetB1E_EINtNtCsdGrGZaRBwMb_3syn10punctuated10PunctuatedNtCsaKzlTDPUHDb_11proc_macro211TokenStreamNtNtB2v_5token4PlusEENtB1m_14LeafOrInternalENtB1m_2KVE7into_kvCs71axb73f1AC_14thiserror_impl, symObjAddr: 0xFC60, symBinAddr: 0x10830, symSize: 0xF0 }
  - { offset: 0x322BE, size: 0x8, addend: 0x0, symName: __RNvMsP_NtNtNtCslJiobkLta79_5alloc11collections5btree4nodeINtB5_6HandleINtB5_7NodeRefNtNtB5_6marker5ImmutRNtCsaKzlTDPUHDb_11proc_macro25IdentNtNtB7_7set_val9SetValZSTNtB1m_14LeafOrInternalENtB1m_2KVE7into_kvCs71axb73f1AC_14thiserror_impl, symObjAddr: 0xFD50, symBinAddr: 0x10920, symSize: 0xE0 }
  - { offset: 0x32607, size: 0x8, addend: 0x0, symName: __RNvMsP_NtNtNtCslJiobkLta79_5alloc11collections5btree4nodeINtB5_6HandleINtB5_7NodeRefNtNtB5_6marker5ImmutTjNtNtCs71axb73f1AC_14thiserror_impl4attr5TraitENtNtB7_7set_val9SetValZSTNtB1m_4LeafENtB1m_2KVE7into_kvB1K_, symObjAddr: 0xFE30, symBinAddr: 0x10A00, symSize: 0xD0 }
  - { offset: 0x328ED, size: 0x8, addend: 0x0, symName: __RNvMsP_NtNtNtCslJiobkLta79_5alloc11collections5btree4nodeINtB5_6HandleINtB5_7NodeRefNtNtB5_6marker5ImmutTjNtNtCs71axb73f1AC_14thiserror_impl4attr5TraitENtNtB7_7set_val9SetValZSTNtB1m_8InternalENtB1m_2KVE7into_kvB1K_, symObjAddr: 0xFF00, symBinAddr: 0x10AD0, symSize: 0xD0 }
  - { offset: 0x32B70, size: 0x8, addend: 0x0, symName: __RNvMsQ_NtNtNtCslJiobkLta79_5alloc11collections5btree4nodeINtB5_6HandleINtB5_7NodeRefNtNtB5_6marker3MutNtCsaKzlTDPUHDb_11proc_macro25IdentNtNtB7_7set_val9SetValZSTNtB1m_14LeafOrInternalENtB1m_2KVE12into_val_mutCs71axb73f1AC_14thiserror_impl, symObjAddr: 0xFFD0, symBinAddr: 0x10BA0, symSize: 0x80 }
  - { offset: 0x32CE0, size: 0x8, addend: 0x0, symName: __RNvMsQ_NtNtNtCslJiobkLta79_5alloc11collections5btree4nodeINtB5_6HandleINtB5_7NodeRefNtNtB5_6marker3MutNtNtBb_6string6StringNtNtB7_7set_val9SetValZSTNtB1m_14LeafOrInternalENtB1m_2KVE12into_val_mutCs71axb73f1AC_14thiserror_impl, symObjAddr: 0x10050, symBinAddr: 0x10C20, symSize: 0x80 }
  - { offset: 0x32E50, size: 0x8, addend: 0x0, symName: __RNvMsQ_NtNtNtCslJiobkLta79_5alloc11collections5btree4nodeINtB5_6HandleINtB5_7NodeRefNtNtB5_6marker3MutNtNtBb_6string6StringTINtNtB7_3set8BTreeSetB1C_EINtNtCsdGrGZaRBwMb_3syn10punctuated10PunctuatedNtCsaKzlTDPUHDb_11proc_macro211TokenStreamNtNtB2t_5token4PlusEENtB1m_14LeafOrInternalENtB1m_2KVE12into_val_mutCs71axb73f1AC_14thiserror_impl, symObjAddr: 0x100D0, symBinAddr: 0x10CA0, symSize: 0x80 }
  - { offset: 0x32FC0, size: 0x8, addend: 0x0, symName: __RNvMsQ_NtNtNtCslJiobkLta79_5alloc11collections5btree4nodeINtB5_6HandleINtB5_7NodeRefNtNtB5_6marker3MutRNtCsaKzlTDPUHDb_11proc_macro25IdentNtNtB7_7set_val9SetValZSTNtB1m_4LeafENtB1m_2KVE12into_val_mutCs71axb73f1AC_14thiserror_impl, symObjAddr: 0x10150, symBinAddr: 0x10D20, symSize: 0x80 }
  - { offset: 0x33130, size: 0x8, addend: 0x0, symName: __RNvMsQ_NtNtNtCslJiobkLta79_5alloc11collections5btree4nodeINtB5_6HandleINtB5_7NodeRefNtNtB5_6marker3MutTjNtNtCs71axb73f1AC_14thiserror_impl4attr5TraitENtNtB7_7set_val9SetValZSTNtB1m_14LeafOrInternalENtB1m_2KVE12into_val_mutB1I_, symObjAddr: 0x101D0, symBinAddr: 0x10DA0, symSize: 0x80 }
  - { offset: 0x332A0, size: 0x8, addend: 0x0, symName: __RNvMsQ_NtNtNtCslJiobkLta79_5alloc11collections5btree4nodeINtB5_6HandleINtB5_7NodeRefNtNtB5_6marker3MutTjNtNtCs71axb73f1AC_14thiserror_impl4attr5TraitENtNtB7_7set_val9SetValZSTNtB1m_4LeafENtB1m_2KVE12into_val_mutB1I_, symObjAddr: 0x10250, symBinAddr: 0x10E20, symSize: 0x80 }
  - { offset: 0x33472, size: 0x8, addend: 0x0, symName: __RNvMsS_NtNtNtCslJiobkLta79_5alloc11collections5btree4nodeINtB5_6HandleINtB5_7NodeRefNtNtB5_6marker3MutNtCsaKzlTDPUHDb_11proc_macro25IdentNtNtB7_7set_val9SetValZSTNtB1m_14LeafOrInternalENtB1m_2KVE6kv_mutCs71axb73f1AC_14thiserror_impl, symObjAddr: 0x102D0, symBinAddr: 0x10EA0, symSize: 0x100 }
  - { offset: 0x33712, size: 0x8, addend: 0x0, symName: __RNvMsS_NtNtNtCslJiobkLta79_5alloc11collections5btree4nodeINtB5_6HandleINtB5_7NodeRefNtNtB5_6marker3MutNtNtBb_6string6StringNtNtB7_7set_val9SetValZSTNtB1m_14LeafOrInternalENtB1m_2KVE6kv_mutCs71axb73f1AC_14thiserror_impl, symObjAddr: 0x103D0, symBinAddr: 0x10FA0, symSize: 0x100 }
  - { offset: 0x338E7, size: 0x8, addend: 0x0, symName: __RNvMsS_NtNtNtCslJiobkLta79_5alloc11collections5btree4nodeINtB5_6HandleINtB5_7NodeRefNtNtB5_6marker3MutRNtCsaKzlTDPUHDb_11proc_macro25IdentNtNtB7_7set_val9SetValZSTNtB1m_8InternalENtB1m_2KVE10replace_kvCs71axb73f1AC_14thiserror_impl, symObjAddr: 0x104D0, symBinAddr: 0x110A0, symSize: 0x60 }
  - { offset: 0x33A62, size: 0x8, addend: 0x0, symName: __RNvMsS_NtNtNtCslJiobkLta79_5alloc11collections5btree4nodeINtB5_6HandleINtB5_7NodeRefNtNtB5_6marker3MutRNtCsaKzlTDPUHDb_11proc_macro25IdentNtNtB7_7set_val9SetValZSTNtB1m_8InternalENtB1m_2KVE6kv_mutCs71axb73f1AC_14thiserror_impl, symObjAddr: 0x10530, symBinAddr: 0x11100, symSize: 0x100 }
  - { offset: 0x33D02, size: 0x8, addend: 0x0, symName: __RNvMsS_NtNtNtCslJiobkLta79_5alloc11collections5btree4nodeINtB5_6HandleINtB5_7NodeRefNtNtB5_6marker3MutTjNtNtCs71axb73f1AC_14thiserror_impl4attr5TraitENtNtB7_7set_val9SetValZSTNtB1m_14LeafOrInternalENtB1m_2KVE6kv_mutB1I_, symObjAddr: 0x10630, symBinAddr: 0x11200, symSize: 0xF0 }
  - { offset: 0x33F84, size: 0x8, addend: 0x0, symName: __RNvMsT_NtNtNtCslJiobkLta79_5alloc11collections5btree4nodeINtB5_6HandleINtB5_7NodeRefNtNtB5_6marker5DyingNtCsaKzlTDPUHDb_11proc_macro25IdentNtNtB7_7set_val9SetValZSTNtB1m_14LeafOrInternalENtB1m_2KVE12drop_key_valCs71axb73f1AC_14thiserror_impl, symObjAddr: 0x10720, symBinAddr: 0x112F0, symSize: 0x130 }
  - { offset: 0x34227, size: 0x8, addend: 0x0, symName: __RNvMsT_NtNtNtCslJiobkLta79_5alloc11collections5btree4nodeINtB5_6HandleINtB5_7NodeRefNtNtB5_6marker5DyingNtNtBb_6string6StringNtNtB7_7set_val9SetValZSTNtB1m_14LeafOrInternalENtB1m_2KVE12drop_key_valCs71axb73f1AC_14thiserror_impl, symObjAddr: 0x10850, symBinAddr: 0x11420, symSize: 0x130 }
  - { offset: 0x344CA, size: 0x8, addend: 0x0, symName: __RNvMsT_NtNtNtCslJiobkLta79_5alloc11collections5btree4nodeINtB5_6HandleINtB5_7NodeRefNtNtB5_6marker5DyingNtNtBb_6string6StringTINtNtB7_3set8BTreeSetB1E_EINtNtCsdGrGZaRBwMb_3syn10punctuated10PunctuatedNtCsaKzlTDPUHDb_11proc_macro211TokenStreamNtNtB2v_5token4PlusEENtB1m_14LeafOrInternalENtB1m_2KVE12drop_key_valCs71axb73f1AC_14thiserror_impl, symObjAddr: 0x10980, symBinAddr: 0x11550, symSize: 0x140 }
  - { offset: 0x34735, size: 0x8, addend: 0x0, symName: __RNvMsT_NtNtNtCslJiobkLta79_5alloc11collections5btree4nodeINtB5_6HandleINtB5_7NodeRefNtNtB5_6marker5DyingRNtCsaKzlTDPUHDb_11proc_macro25IdentNtNtB7_7set_val9SetValZSTNtB1m_14LeafOrInternalENtB1m_2KVE12drop_key_valCs71axb73f1AC_14thiserror_impl, symObjAddr: 0x10AC0, symBinAddr: 0x11690, symSize: 0x100 }
  - { offset: 0x34943, size: 0x8, addend: 0x0, symName: __RNvMsT_NtNtNtCslJiobkLta79_5alloc11collections5btree4nodeINtB5_6HandleINtB5_7NodeRefNtNtB5_6marker5DyingTjNtNtCs71axb73f1AC_14thiserror_impl4attr5TraitENtNtB7_7set_val9SetValZSTNtB1m_14LeafOrInternalENtB1m_2KVE12drop_key_valB1K_, symObjAddr: 0x10BC0, symBinAddr: 0x11790, symSize: 0xF0 }
  - { offset: 0x34BB4, size: 0x8, addend: 0x0, symName: __RNvMsT_NtNtNtCslJiobkLta79_5alloc11collections5btree4nodeINtB5_6HandleINtB5_7NodeRefNtNtB5_6marker5DyingTjNtNtCs71axb73f1AC_14thiserror_impl4attr5TraitENtNtB7_7set_val9SetValZSTNtB1m_14LeafOrInternalENtB1m_2KVE12into_key_valB1K_, symObjAddr: 0x10CB0, symBinAddr: 0x11880, symSize: 0x100 }
  - { offset: 0x3507E, size: 0x8, addend: 0x0, symName: __RNvMsU_NtNtNtCslJiobkLta79_5alloc11collections5btree4nodeINtB5_6HandleINtB5_7NodeRefNtNtB5_6marker3MutNtCsaKzlTDPUHDb_11proc_macro25IdentNtNtB7_7set_val9SetValZSTNtB1m_4LeafENtB1m_2KVE15split_leaf_dataCs71axb73f1AC_14thiserror_impl, symObjAddr: 0x10DB0, symBinAddr: 0x11980, symSize: 0x520 }
  - { offset: 0x35AA3, size: 0x8, addend: 0x0, symName: __RNvMsU_NtNtNtCslJiobkLta79_5alloc11collections5btree4nodeINtB5_6HandleINtB5_7NodeRefNtNtB5_6marker3MutNtCsaKzlTDPUHDb_11proc_macro25IdentNtNtB7_7set_val9SetValZSTNtB1m_8InternalENtB1m_2KVE15split_leaf_dataCs71axb73f1AC_14thiserror_impl, symObjAddr: 0x112D0, symBinAddr: 0x11EA0, symSize: 0x520 }
  - { offset: 0x364C8, size: 0x8, addend: 0x0, symName: __RNvMsU_NtNtNtCslJiobkLta79_5alloc11collections5btree4nodeINtB5_6HandleINtB5_7NodeRefNtNtB5_6marker3MutNtNtBb_6string6StringNtNtB7_7set_val9SetValZSTNtB1m_4LeafENtB1m_2KVE15split_leaf_dataCs71axb73f1AC_14thiserror_impl, symObjAddr: 0x117F0, symBinAddr: 0x123C0, symSize: 0x520 }
  - { offset: 0x36EED, size: 0x8, addend: 0x0, symName: __RNvMsU_NtNtNtCslJiobkLta79_5alloc11collections5btree4nodeINtB5_6HandleINtB5_7NodeRefNtNtB5_6marker3MutNtNtBb_6string6StringNtNtB7_7set_val9SetValZSTNtB1m_8InternalENtB1m_2KVE15split_leaf_dataCs71axb73f1AC_14thiserror_impl, symObjAddr: 0x11D10, symBinAddr: 0x128E0, symSize: 0x520 }
  - { offset: 0x37912, size: 0x8, addend: 0x0, symName: __RNvMsU_NtNtNtCslJiobkLta79_5alloc11collections5btree4nodeINtB5_6HandleINtB5_7NodeRefNtNtB5_6marker3MutNtNtBb_6string6StringTINtNtB7_3set8BTreeSetB1C_EINtNtCsdGrGZaRBwMb_3syn10punctuated10PunctuatedNtCsaKzlTDPUHDb_11proc_macro211TokenStreamNtNtB2t_5token4PlusEENtB1m_4LeafENtB1m_2KVE15split_leaf_dataCs71axb73f1AC_14thiserror_impl, symObjAddr: 0x12230, symBinAddr: 0x12E00, symSize: 0x580 }
  - { offset: 0x383C2, size: 0x8, addend: 0x0, symName: __RNvMsU_NtNtNtCslJiobkLta79_5alloc11collections5btree4nodeINtB5_6HandleINtB5_7NodeRefNtNtB5_6marker3MutNtNtBb_6string6StringTINtNtB7_3set8BTreeSetB1C_EINtNtCsdGrGZaRBwMb_3syn10punctuated10PunctuatedNtCsaKzlTDPUHDb_11proc_macro211TokenStreamNtNtB2t_5token4PlusEENtB1m_8InternalENtB1m_2KVE15split_leaf_dataCs71axb73f1AC_14thiserror_impl, symObjAddr: 0x127B0, symBinAddr: 0x13380, symSize: 0x580 }
  - { offset: 0x38E72, size: 0x8, addend: 0x0, symName: __RNvMsU_NtNtNtCslJiobkLta79_5alloc11collections5btree4nodeINtB5_6HandleINtB5_7NodeRefNtNtB5_6marker3MutTjNtNtCs71axb73f1AC_14thiserror_impl4attr5TraitENtNtB7_7set_val9SetValZSTNtB1m_4LeafENtB1m_2KVE15split_leaf_dataB1I_, symObjAddr: 0x12D30, symBinAddr: 0x13900, symSize: 0x490 }
  - { offset: 0x39897, size: 0x8, addend: 0x0, symName: __RNvMsU_NtNtNtCslJiobkLta79_5alloc11collections5btree4nodeINtB5_6HandleINtB5_7NodeRefNtNtB5_6marker3MutTjNtNtCs71axb73f1AC_14thiserror_impl4attr5TraitENtNtB7_7set_val9SetValZSTNtB1m_8InternalENtB1m_2KVE15split_leaf_dataB1I_, symObjAddr: 0x131C0, symBinAddr: 0x13D90, symSize: 0x490 }
  - { offset: 0x3A0EB, size: 0x8, addend: 0x0, symName: __RNvMsX_NtNtNtCslJiobkLta79_5alloc11collections5btree4nodeINtB5_6HandleINtB5_7NodeRefNtNtB5_6marker3MutRNtCsaKzlTDPUHDb_11proc_macro25IdentNtNtB7_7set_val9SetValZSTNtB1m_8InternalENtB1m_2KVE22consider_for_balancingCs71axb73f1AC_14thiserror_impl, symObjAddr: 0x13650, symBinAddr: 0x14220, symSize: 0x130 }
  - { offset: 0x3A32A, size: 0x8, addend: 0x0, symName: __RNvMse_NtNtNtCslJiobkLta79_5alloc11collections5btree4nodeINtB5_7NodeRefNtNtB5_6marker3MutNtCsaKzlTDPUHDb_11proc_macro25IdentNtNtB7_7set_val9SetValZSTNtB19_14LeafOrInternalE6ascendCs71axb73f1AC_14thiserror_impl, symObjAddr: 0x13780, symBinAddr: 0x14350, symSize: 0x230 }
  - { offset: 0x3A5B1, size: 0x8, addend: 0x0, symName: __RNvMse_NtNtNtCslJiobkLta79_5alloc11collections5btree4nodeINtB5_7NodeRefNtNtB5_6marker3MutNtNtBb_6string6StringNtNtB7_7set_val9SetValZSTNtB19_14LeafOrInternalE6ascendCs71axb73f1AC_14thiserror_impl, symObjAddr: 0x139B0, symBinAddr: 0x14580, symSize: 0x230 }
  - { offset: 0x3A838, size: 0x8, addend: 0x0, symName: __RNvMse_NtNtNtCslJiobkLta79_5alloc11collections5btree4nodeINtB5_7NodeRefNtNtB5_6marker3MutNtNtBb_6string6StringTINtNtB7_3set8BTreeSetB1p_EINtNtCsdGrGZaRBwMb_3syn10punctuated10PunctuatedNtCsaKzlTDPUHDb_11proc_macro211TokenStreamNtNtB2g_5token4PlusEENtB19_14LeafOrInternalE6ascendCs71axb73f1AC_14thiserror_impl, symObjAddr: 0x13BE0, symBinAddr: 0x147B0, symSize: 0x230 }
  - { offset: 0x3AABF, size: 0x8, addend: 0x0, symName: __RNvMse_NtNtNtCslJiobkLta79_5alloc11collections5btree4nodeINtB5_7NodeRefNtNtB5_6marker3MutRNtCsaKzlTDPUHDb_11proc_macro25IdentNtNtB7_7set_val9SetValZSTNtB19_14LeafOrInternalE6ascendCs71axb73f1AC_14thiserror_impl, symObjAddr: 0x13E10, symBinAddr: 0x149E0, symSize: 0x230 }
  - { offset: 0x3AD46, size: 0x8, addend: 0x0, symName: __RNvMse_NtNtNtCslJiobkLta79_5alloc11collections5btree4nodeINtB5_7NodeRefNtNtB5_6marker3MutTjNtNtCs71axb73f1AC_14thiserror_impl4attr5TraitENtNtB7_7set_val9SetValZSTNtB19_14LeafOrInternalE6ascendB1v_, symObjAddr: 0x14040, symBinAddr: 0x14C10, symSize: 0x240 }
  - { offset: 0x3AFA6, size: 0x8, addend: 0x0, symName: __RNvMse_NtNtNtCslJiobkLta79_5alloc11collections5btree4nodeINtB5_7NodeRefNtNtB5_6marker5DyingNtCsaKzlTDPUHDb_11proc_macro25IdentNtNtB7_7set_val9SetValZSTNtB19_14LeafOrInternalE6ascendCs71axb73f1AC_14thiserror_impl, symObjAddr: 0x14280, symBinAddr: 0x14E50, symSize: 0x230 }
  - { offset: 0x3B206, size: 0x8, addend: 0x0, symName: __RNvMse_NtNtNtCslJiobkLta79_5alloc11collections5btree4nodeINtB5_7NodeRefNtNtB5_6marker5DyingNtNtBb_6string6StringNtNtB7_7set_val9SetValZSTNtB19_14LeafOrInternalE6ascendCs71axb73f1AC_14thiserror_impl, symObjAddr: 0x144B0, symBinAddr: 0x15080, symSize: 0x230 }
  - { offset: 0x3B466, size: 0x8, addend: 0x0, symName: __RNvMse_NtNtNtCslJiobkLta79_5alloc11collections5btree4nodeINtB5_7NodeRefNtNtB5_6marker5DyingNtNtBb_6string6StringTINtNtB7_3set8BTreeSetB1r_EINtNtCsdGrGZaRBwMb_3syn10punctuated10PunctuatedNtCsaKzlTDPUHDb_11proc_macro211TokenStreamNtNtB2i_5token4PlusEENtB19_14LeafOrInternalE6ascendCs71axb73f1AC_14thiserror_impl, symObjAddr: 0x146E0, symBinAddr: 0x152B0, symSize: 0x230 }
  - { offset: 0x3B6C6, size: 0x8, addend: 0x0, symName: __RNvMse_NtNtNtCslJiobkLta79_5alloc11collections5btree4nodeINtB5_7NodeRefNtNtB5_6marker5DyingRNtCsaKzlTDPUHDb_11proc_macro25IdentNtNtB7_7set_val9SetValZSTNtB19_14LeafOrInternalE6ascendCs71axb73f1AC_14thiserror_impl, symObjAddr: 0x14910, symBinAddr: 0x154E0, symSize: 0x230 }
  - { offset: 0x3B926, size: 0x8, addend: 0x0, symName: __RNvMse_NtNtNtCslJiobkLta79_5alloc11collections5btree4nodeINtB5_7NodeRefNtNtB5_6marker5DyingTjNtNtCs71axb73f1AC_14thiserror_impl4attr5TraitENtNtB7_7set_val9SetValZSTNtB19_14LeafOrInternalE6ascendB1x_, symObjAddr: 0x14B40, symBinAddr: 0x15710, symSize: 0x240 }
  - { offset: 0x3BB5A, size: 0x8, addend: 0x0, symName: __RNvMsg_NtNtNtCslJiobkLta79_5alloc11collections5btree4nodeINtB5_7NodeRefNtNtB5_6marker5ImmutNtCsaKzlTDPUHDb_11proc_macro25IdentNtNtB7_7set_val9SetValZSTNtB19_14LeafOrInternalE4keysCs71axb73f1AC_14thiserror_impl, symObjAddr: 0x14D80, symBinAddr: 0x15950, symSize: 0x90 }
  - { offset: 0x3BD59, size: 0x8, addend: 0x0, symName: __RNvMsg_NtNtNtCslJiobkLta79_5alloc11collections5btree4nodeINtB5_7NodeRefNtNtB5_6marker5ImmutNtNtBb_6string6StringNtNtB7_7set_val9SetValZSTNtB19_14LeafOrInternalE4keysCs71axb73f1AC_14thiserror_impl, symObjAddr: 0x14E10, symBinAddr: 0x159E0, symSize: 0x90 }
  - { offset: 0x3BF20, size: 0x8, addend: 0x0, symName: __RNvMsg_NtNtNtCslJiobkLta79_5alloc11collections5btree4nodeINtB5_7NodeRefNtNtB5_6marker5ImmutNtNtBb_6string6StringTINtNtB7_3set8BTreeSetB1r_EINtNtCsdGrGZaRBwMb_3syn10punctuated10PunctuatedNtCsaKzlTDPUHDb_11proc_macro211TokenStreamNtNtB2i_5token4PlusEENtB19_14LeafOrInternalE4keysCs71axb73f1AC_14thiserror_impl, symObjAddr: 0x14EA0, symBinAddr: 0x15A70, symSize: 0x90 }
  - { offset: 0x3C105, size: 0x8, addend: 0x0, symName: __RNvMsg_NtNtNtCslJiobkLta79_5alloc11collections5btree4nodeINtB5_7NodeRefNtNtB5_6marker5ImmutRNtCsaKzlTDPUHDb_11proc_macro25IdentNtNtB7_7set_val9SetValZSTNtB19_14LeafOrInternalE4keysCs71axb73f1AC_14thiserror_impl, symObjAddr: 0x14F30, symBinAddr: 0x15B00, symSize: 0x90 }
  - { offset: 0x3C2F7, size: 0x8, addend: 0x0, symName: __RNvMsg_NtNtNtCslJiobkLta79_5alloc11collections5btree4nodeINtB5_7NodeRefNtNtB5_6marker5ImmutTjNtNtCs71axb73f1AC_14thiserror_impl4attr5TraitENtNtB7_7set_val9SetValZSTNtB19_14LeafOrInternalE4keysB1x_, symObjAddr: 0x14FC0, symBinAddr: 0x15B90, symSize: 0x90 }
  - { offset: 0x3C59D, size: 0x8, addend: 0x0, symName: __RNvMsn_NtNtNtCslJiobkLta79_5alloc11collections5btree8navigateINtNtB7_4node7NodeRefNtNtB10_6marker3MutRNtCsaKzlTDPUHDb_11proc_macro25IdentNtNtB7_7set_val9SetValZSTNtB1k_14LeafOrInternalE14last_leaf_edgeCs71axb73f1AC_14thiserror_impl, symObjAddr: 0x15050, symBinAddr: 0x15C20, symSize: 0x100 }
  - { offset: 0x3C924, size: 0x8, addend: 0x0, symName: __RNvMsp_NtNtNtCslJiobkLta79_5alloc11collections5btree8navigateINtNtB7_4node6HandleINtB10_7NodeRefNtNtB10_6marker5DyingNtCsaKzlTDPUHDb_11proc_macro25IdentNtNtB7_7set_val9SetValZSTNtB1y_14LeafOrInternalENtB1y_2KVE14next_leaf_edgeCs71axb73f1AC_14thiserror_impl, symObjAddr: 0x15150, symBinAddr: 0x15D20, symSize: 0x320 }
  - { offset: 0x3CDA7, size: 0x8, addend: 0x0, symName: __RNvMsp_NtNtNtCslJiobkLta79_5alloc11collections5btree8navigateINtNtB7_4node6HandleINtB10_7NodeRefNtNtB10_6marker5DyingNtNtBb_6string6StringNtNtB7_7set_val9SetValZSTNtB1y_14LeafOrInternalENtB1y_2KVE14next_leaf_edgeCs71axb73f1AC_14thiserror_impl, symObjAddr: 0x15470, symBinAddr: 0x16040, symSize: 0x320 }
  - { offset: 0x3D22A, size: 0x8, addend: 0x0, symName: __RNvMsp_NtNtNtCslJiobkLta79_5alloc11collections5btree8navigateINtNtB7_4node6HandleINtB10_7NodeRefNtNtB10_6marker5DyingNtNtBb_6string6StringTINtNtB7_3set8BTreeSetB1R_EINtNtCsdGrGZaRBwMb_3syn10punctuated10PunctuatedNtCsaKzlTDPUHDb_11proc_macro211TokenStreamNtNtB2I_5token4PlusEENtB1y_14LeafOrInternalENtB1y_2KVE14next_leaf_edgeCs71axb73f1AC_14thiserror_impl, symObjAddr: 0x15790, symBinAddr: 0x16360, symSize: 0x320 }
  - { offset: 0x3D6AD, size: 0x8, addend: 0x0, symName: __RNvMsp_NtNtNtCslJiobkLta79_5alloc11collections5btree8navigateINtNtB7_4node6HandleINtB10_7NodeRefNtNtB10_6marker5DyingRNtCsaKzlTDPUHDb_11proc_macro25IdentNtNtB7_7set_val9SetValZSTNtB1y_14LeafOrInternalENtB1y_2KVE14next_leaf_edgeCs71axb73f1AC_14thiserror_impl, symObjAddr: 0x15AB0, symBinAddr: 0x16680, symSize: 0x320 }
  - { offset: 0x3DB30, size: 0x8, addend: 0x0, symName: __RNvMsp_NtNtNtCslJiobkLta79_5alloc11collections5btree8navigateINtNtB7_4node6HandleINtB10_7NodeRefNtNtB10_6marker5DyingTjNtNtCs71axb73f1AC_14thiserror_impl4attr5TraitENtNtB7_7set_val9SetValZSTNtB1y_14LeafOrInternalENtB1y_2KVE14next_leaf_edgeB1X_, symObjAddr: 0x15DD0, symBinAddr: 0x169A0, symSize: 0x320 }
  - { offset: 0x3DF61, size: 0x8, addend: 0x0, symName: __RNvMsu_NtNtNtCslJiobkLta79_5alloc11collections5btree4nodeINtB5_7NodeRefNtNtB5_6marker3MutNtCsaKzlTDPUHDb_11proc_macro25IdentNtNtB7_7set_val9SetValZSTNtB19_4LeafE16push_with_handleCs71axb73f1AC_14thiserror_impl, symObjAddr: 0x160F0, symBinAddr: 0x16CC0, symSize: 0x270 }
  - { offset: 0x3E435, size: 0x8, addend: 0x0, symName: __RNvMsu_NtNtNtCslJiobkLta79_5alloc11collections5btree4nodeINtB5_7NodeRefNtNtB5_6marker3MutNtNtBb_6string6StringNtNtB7_7set_val9SetValZSTNtB19_4LeafE16push_with_handleCs71axb73f1AC_14thiserror_impl, symObjAddr: 0x16360, symBinAddr: 0x16F30, symSize: 0x270 }
  - { offset: 0x3E95D, size: 0x8, addend: 0x0, symName: __RNvMsu_NtNtNtCslJiobkLta79_5alloc11collections5btree4nodeINtB5_7NodeRefNtNtB5_6marker3MutNtNtBb_6string6StringTINtNtB7_3set8BTreeSetB1p_EINtNtCsdGrGZaRBwMb_3syn10punctuated10PunctuatedNtCsaKzlTDPUHDb_11proc_macro211TokenStreamNtNtB2g_5token4PlusEENtB19_4LeafE16push_with_handleCs71axb73f1AC_14thiserror_impl, symObjAddr: 0x165D0, symBinAddr: 0x171A0, symSize: 0x2F0 }
  - { offset: 0x3EE62, size: 0x8, addend: 0x0, symName: __RNvMsu_NtNtNtCslJiobkLta79_5alloc11collections5btree4nodeINtB5_7NodeRefNtNtB5_6marker3MutRNtCsaKzlTDPUHDb_11proc_macro25IdentNtNtB7_7set_val9SetValZSTNtB19_4LeafE16push_with_handleCs71axb73f1AC_14thiserror_impl, symObjAddr: 0x168C0, symBinAddr: 0x17490, symSize: 0x1D0 }
  - { offset: 0x3F2D6, size: 0x8, addend: 0x0, symName: __RNvMsu_NtNtNtCslJiobkLta79_5alloc11collections5btree4nodeINtB5_7NodeRefNtNtB5_6marker3MutTjNtNtCs71axb73f1AC_14thiserror_impl4attr5TraitENtNtB7_7set_val9SetValZSTNtB19_4LeafE16push_with_handleB1v_, symObjAddr: 0x16A90, symBinAddr: 0x17660, symSize: 0x200 }
  - { offset: 0x3F863, size: 0x8, addend: 0x0, symName: __RNvMsv_NtNtNtCslJiobkLta79_5alloc11collections5btree4nodeINtB5_7NodeRefNtNtB5_6marker3MutNtCsaKzlTDPUHDb_11proc_macro25IdentNtNtB7_7set_val9SetValZSTNtB19_8InternalE4pushCs71axb73f1AC_14thiserror_impl, symObjAddr: 0x16C90, symBinAddr: 0x17860, symSize: 0x380 }
  - { offset: 0x3FF69, size: 0x8, addend: 0x0, symName: __RNvMsv_NtNtNtCslJiobkLta79_5alloc11collections5btree4nodeINtB5_7NodeRefNtNtB5_6marker3MutNtNtBb_6string6StringNtNtB7_7set_val9SetValZSTNtB19_8InternalE4pushCs71axb73f1AC_14thiserror_impl, symObjAddr: 0x17010, symBinAddr: 0x17BE0, symSize: 0x380 }
  - { offset: 0x406C3, size: 0x8, addend: 0x0, symName: __RNvMsv_NtNtNtCslJiobkLta79_5alloc11collections5btree4nodeINtB5_7NodeRefNtNtB5_6marker3MutNtNtBb_6string6StringTINtNtB7_3set8BTreeSetB1p_EINtNtCsdGrGZaRBwMb_3syn10punctuated10PunctuatedNtCsaKzlTDPUHDb_11proc_macro211TokenStreamNtNtB2g_5token4PlusEENtB19_8InternalE4pushCs71axb73f1AC_14thiserror_impl, symObjAddr: 0x17390, symBinAddr: 0x17F60, symSize: 0x410 }
  - { offset: 0x40DFB, size: 0x8, addend: 0x0, symName: __RNvMsv_NtNtNtCslJiobkLta79_5alloc11collections5btree4nodeINtB5_7NodeRefNtNtB5_6marker3MutRNtCsaKzlTDPUHDb_11proc_macro25IdentNtNtB7_7set_val9SetValZSTNtB19_8InternalE4pushCs71axb73f1AC_14thiserror_impl, symObjAddr: 0x177A0, symBinAddr: 0x18370, symSize: 0x2F0 }
  - { offset: 0x414A1, size: 0x8, addend: 0x0, symName: __RNvMsv_NtNtNtCslJiobkLta79_5alloc11collections5btree4nodeINtB5_7NodeRefNtNtB5_6marker3MutTjNtNtCs71axb73f1AC_14thiserror_impl4attr5TraitENtNtB7_7set_val9SetValZSTNtB19_8InternalE4pushB1v_, symObjAddr: 0x17A90, symBinAddr: 0x18660, symSize: 0x310 }
  - { offset: 0x41919, size: 0x8, addend: 0x0, symName: __RNCNCNvNtCs71axb73f1AC_14thiserror_impl6expand9impl_enums0_00B7_, symObjAddr: 0x0, symBinAddr: 0x189B0, symSize: 0x10 }
  - { offset: 0x42374, size: 0x8, addend: 0x0, symName: __RNCNCNvNtCs71axb73f1AC_14thiserror_impl6expand9impl_enums0_00B7_, symObjAddr: 0x0, symBinAddr: 0x189B0, symSize: 0x10 }
  - { offset: 0x423B5, size: 0x8, addend: 0x0, symName: __RNCNvNtCs71axb73f1AC_14thiserror_impl6expand9impl_enum0B5_, symObjAddr: 0x3800, symBinAddr: 0x1C1B0, symSize: 0x1110 }
  - { offset: 0x426A8, size: 0x8, addend: 0x0, symName: __RNCNvNtCs71axb73f1AC_14thiserror_impl6expand9impl_enums0_0B5_, symObjAddr: 0x4910, symBinAddr: 0x1D2C0, symSize: 0x40 }
  - { offset: 0x426E1, size: 0x8, addend: 0x0, symName: __RNCNvNtCs71axb73f1AC_14thiserror_impl6expand9impl_enums1_0B5_, symObjAddr: 0x4950, symBinAddr: 0x1D300, symSize: 0x7B0 }
  - { offset: 0x428E9, size: 0x8, addend: 0x0, symName: __RNCNvNtCs71axb73f1AC_14thiserror_impl6expand9impl_enums2_0B5_, symObjAddr: 0x5100, symBinAddr: 0x1DAB0, symSize: 0x8A0 }
  - { offset: 0x42AD7, size: 0x8, addend: 0x0, symName: __RNCNvNtCs71axb73f1AC_14thiserror_impl6expand9impl_enums_0B5_, symObjAddr: 0x59A0, symBinAddr: 0x1E350, symSize: 0x2650 }
  - { offset: 0x431AF, size: 0x8, addend: 0x0, symName: __RNCNvNtCs71axb73f1AC_14thiserror_impl6expand10fields_pat0B5_, symObjAddr: 0x10, symBinAddr: 0x189C0, symSize: 0x20 }
  - { offset: 0x431E8, size: 0x8, addend: 0x0, symName: __RNCNvNtCs71axb73f1AC_14thiserror_impl6expand10fields_pats_0B5_, symObjAddr: 0x30, symBinAddr: 0x189E0, symSize: 0x1E0 }
  - { offset: 0x432A0, size: 0x8, addend: 0x0, symName: __RNCNvNtCs71axb73f1AC_14thiserror_impl6expand11impl_struct0B5_, symObjAddr: 0x210, symBinAddr: 0x18BC0, symSize: 0x460 }
  - { offset: 0x4332E, size: 0x8, addend: 0x0, symName: __RNCNvNtCs71axb73f1AC_14thiserror_impl6expand11impl_structs0_0B5_, symObjAddr: 0x670, symBinAddr: 0x19020, symSize: 0xA60 }
  - { offset: 0x434FC, size: 0x8, addend: 0x0, symName: __RNCNvNtCs71axb73f1AC_14thiserror_impl6expand11impl_structs1_0B5_, symObjAddr: 0x10D0, symBinAddr: 0x19A80, symSize: 0x7A0 }
  - { offset: 0x43686, size: 0x8, addend: 0x0, symName: __RNCNvNtCs71axb73f1AC_14thiserror_impl6expand11impl_structs_0B5_, symObjAddr: 0x1870, symBinAddr: 0x1A220, symSize: 0x1A90 }
  - { offset: 0x439D6, size: 0x8, addend: 0x0, symName: __RNCNvNtCs71axb73f1AC_14thiserror_impl6expand16from_initializer0B5_, symObjAddr: 0x3300, symBinAddr: 0x1BCB0, symSize: 0x500 }
  - { offset: 0x43A8A, size: 0x8, addend: 0x0, symName: __RNvNtCs71axb73f1AC_14thiserror_impl6expand10fields_pat, symObjAddr: 0x7FF0, symBinAddr: 0x209A0, symSize: 0x5F0 }
  - { offset: 0x43C98, size: 0x8, addend: 0x0, symName: __RNvNtCs71axb73f1AC_14thiserror_impl6expand10try_expand, symObjAddr: 0x85E0, symBinAddr: 0x20F90, symSize: 0x2F0 }
  - { offset: 0x43D68, size: 0x8, addend: 0x0, symName: __RNvNtCs71axb73f1AC_14thiserror_impl6expand11impl_struct, symObjAddr: 0x88D0, symBinAddr: 0x21280, symSize: 0x1B90 }
  - { offset: 0x441D9, size: 0x8, addend: 0x0, symName: __RNvNtCs71axb73f1AC_14thiserror_impl6expand14type_is_option, symObjAddr: 0xA460, symBinAddr: 0x22E10, symSize: 0x30 }
  - { offset: 0x44207, size: 0x8, addend: 0x0, symName: __RNvNtCs71axb73f1AC_14thiserror_impl6expand14use_as_display, symObjAddr: 0xA490, symBinAddr: 0x22E40, symSize: 0x170 }
  - { offset: 0x4424B, size: 0x8, addend: 0x0, symName: __RNvNtCs71axb73f1AC_14thiserror_impl6expand15unoptional_type, symObjAddr: 0xA600, symBinAddr: 0x22FB0, symSize: 0xB0 }
  - { offset: 0x442AD, size: 0x8, addend: 0x0, symName: __RNvNtCs71axb73f1AC_14thiserror_impl6expand16from_initializer, symObjAddr: 0xA6B0, symBinAddr: 0x23060, symSize: 0x400 }
  - { offset: 0x443A1, size: 0x8, addend: 0x0, symName: __RNvNtCs71axb73f1AC_14thiserror_impl6expand24type_parameter_of_option, symObjAddr: 0xAAB0, symBinAddr: 0x23460, symSize: 0x1B0 }
  - { offset: 0x4446B, size: 0x8, addend: 0x0, symName: __RNvNtCs71axb73f1AC_14thiserror_impl6expand6derive, symObjAddr: 0xAC60, symBinAddr: 0x23610, symSize: 0xD0 }
  - { offset: 0x444C9, size: 0x8, addend: 0x0, symName: __RNvNtCs71axb73f1AC_14thiserror_impl6expand8fallback, symObjAddr: 0xAD30, symBinAddr: 0x236E0, symSize: 0xBF0 }
  - { offset: 0x4464A, size: 0x8, addend: 0x0, symName: __RNvNtCs71axb73f1AC_14thiserror_impl6expand9impl_enum, symObjAddr: 0xB920, symBinAddr: 0x242D0, symSize: 0x2620 }
  - { offset: 0x47799, size: 0x8, addend: 0x0, symName: __RNvXs1_NtNtNtCsieiGu2EXtoJ_4core3ops8function5implsQNCNvNtCs71axb73f1AC_14thiserror_impl6expand9impl_enums2_0INtB7_5FnMutTRNtNtBU_3ast7VariantEE8call_mutBU_, symObjAddr: 0xDF40, symBinAddr: 0x268F0, symSize: 0x30 }
  - { offset: 0x4ED70, size: 0x8, addend: 0x0, symName: __RINvMs6_NtCsjK30CmJ87bX_9hashbrown3rawINtB6_8RawTableTRNtNtCsdGrGZaRBwMb_3syn4expr6MemberjEE14reserve_rehashNCINvNtB8_3map11make_hasherBQ_jNtNtNtCsHUR1vrdMJt_3std4hash6random11RandomStateE0ECs71axb73f1AC_14thiserror_impl, symObjAddr: 0x0, symBinAddr: 0x1DEC20, symSize: 0xD60 }
  - { offset: 0x4EDAC, size: 0x8, addend: 0x0, symName: __RNCINvMs6_NtCsjK30CmJ87bX_9hashbrown3rawINtB8_8RawTableTRNtNtCsdGrGZaRBwMb_3syn4expr6MemberjEE14reserve_rehashNCINvNtBa_3map11make_hasherBS_jNtNtNtCsHUR1vrdMJt_3std4hash6random11RandomStateE0E0Cs71axb73f1AC_14thiserror_impl, symObjAddr: 0x1BC0, symBinAddr: 0x27780, symSize: 0xB0 }
  - { offset: 0x4EF78, size: 0x8, addend: 0x0, symName: __RNCINvMs6_NtCsjK30CmJ87bX_9hashbrown3rawINtB8_8RawTableTRNtNtCsdGrGZaRBwMb_3syn4expr6MemberjEE24find_or_find_insert_slotNCINvNtBa_3map14equivalent_keyBS_BS_jE0NCINvB1Z_11make_hasherBS_jNtNtNtCsHUR1vrdMJt_3std4hash6random11RandomStateE0E0Cs71axb73f1AC_14thiserror_impl, symObjAddr: 0x1C70, symBinAddr: 0x27830, symSize: 0xB0 }
  - { offset: 0x4F154, size: 0x8, addend: 0x0, symName: __RNCINvMs6_NtCsjK30CmJ87bX_9hashbrown3rawINtB8_8RawTableTRNtNtCsdGrGZaRBwMb_3syn4expr6MemberjEE4findNCINvNtBa_3map14equivalent_keyBT_BS_jE0E0Cs71axb73f1AC_14thiserror_impl, symObjAddr: 0x1D20, symBinAddr: 0x278E0, symSize: 0xB0 }
  - { offset: 0x4FA61, size: 0x8, addend: 0x0, symName: __RNCINvMsa_NtCsjK30CmJ87bX_9hashbrown3rawNtB8_13RawTableInner14prepare_resizeNtNtCslJiobkLta79_5alloc5alloc6GlobalE0Cs71axb73f1AC_14thiserror_impl, symObjAddr: 0x1DD0, symBinAddr: 0x27990, symSize: 0xD0 }
  - { offset: 0x4FC2F, size: 0x8, addend: 0x0, symName: __RNCNvMsa_NtCsjK30CmJ87bX_9hashbrown3rawNtB7_13RawTableInner15rehash_in_place0Cs71axb73f1AC_14thiserror_impl, symObjAddr: 0x1EA0, symBinAddr: 0x27A60, symSize: 0x250 }
  - { offset: 0x5016A, size: 0x8, addend: 0x0, symName: __RNvNtCsjK30CmJ87bX_9hashbrown3raw19capacity_to_bucketsCs71axb73f1AC_14thiserror_impl, symObjAddr: 0x3670, symBinAddr: 0x29230, symSize: 0x280 }
  - { offset: 0x50380, size: 0x8, addend: 0x0, symName: __RNvXsg_NtCsjK30CmJ87bX_9hashbrown3rawINtB5_8RawTableTRNtNtCsdGrGZaRBwMb_3syn4expr6MemberjEENtNtNtCsieiGu2EXtoJ_4core3ops4drop4Drop4dropCs71axb73f1AC_14thiserror_impl, symObjAddr: 0x38F0, symBinAddr: 0x294B0, symSize: 0x30 }
  - { offset: 0x53B74, size: 0x8, addend: 0x0, symName: __RINvMs6_NtCsjK30CmJ87bX_9hashbrown3rawINtB6_8RawTableTRNtNtCsdGrGZaRBwMb_3syn4expr6MemberjEE14reserve_rehashNCINvNtB8_3map11make_hasherBQ_jNtNtNtCsHUR1vrdMJt_3std4hash6random11RandomStateE0ECs71axb73f1AC_14thiserror_impl, symObjAddr: 0x0, symBinAddr: 0x1DEC20, symSize: 0xD60 }
  - { offset: 0x54647, size: 0x8, addend: 0x0, symName: __RINvMs6_NtCsjK30CmJ87bX_9hashbrown3rawINtB6_8RawTableTRNtNtCsdGrGZaRBwMb_3syn4expr6MemberjEE24find_or_find_insert_slotNCINvNtB8_3map14equivalent_keyBQ_BQ_jE0NCINvB1X_11make_hasherBQ_jNtNtNtCsHUR1vrdMJt_3std4hash6random11RandomStateE0ECs71axb73f1AC_14thiserror_impl, symObjAddr: 0xD60, symBinAddr: 0x26920, symSize: 0x160 }
  - { offset: 0x54B11, size: 0x8, addend: 0x0, symName: __RINvMs6_NtCsjK30CmJ87bX_9hashbrown3rawINtB6_8RawTableTRNtNtCsdGrGZaRBwMb_3syn4expr6MemberjEE4findNCINvNtB8_3map14equivalent_keyBR_BQ_jE0ECs71axb73f1AC_14thiserror_impl, symObjAddr: 0xEC0, symBinAddr: 0x26A80, symSize: 0x480 }
  - { offset: 0x5502A, size: 0x8, addend: 0x0, symName: __RINvMs6_NtCsjK30CmJ87bX_9hashbrown3rawINtB6_8RawTableTRNtNtCsdGrGZaRBwMb_3syn4expr6MemberjEE7reserveNCINvNtB8_3map11make_hasherBQ_jNtNtNtCsHUR1vrdMJt_3std4hash6random11RandomStateE0ECs71axb73f1AC_14thiserror_impl, symObjAddr: 0x1340, symBinAddr: 0x26F00, symSize: 0xC0 }
  - { offset: 0x5519E, size: 0x8, addend: 0x0, symName: __RINvMsa_NtCsjK30CmJ87bX_9hashbrown3rawNtB6_13RawTableInner13drop_elementsTRNtNtCsdGrGZaRBwMb_3syn4expr6MemberjEECs71axb73f1AC_14thiserror_impl, symObjAddr: 0x1400, symBinAddr: 0x26FC0, symSize: 0x30 }
  - { offset: 0x553F5, size: 0x8, addend: 0x0, symName: __RINvMsa_NtCsjK30CmJ87bX_9hashbrown3rawNtB6_13RawTableInner16drop_inner_tableTRNtNtCsdGrGZaRBwMb_3syn4expr6MemberjENtNtCslJiobkLta79_5alloc5alloc6GlobalECs71axb73f1AC_14thiserror_impl, symObjAddr: 0x1430, symBinAddr: 0x26FF0, symSize: 0xD0 }
  - { offset: 0x555F1, size: 0x8, addend: 0x0, symName: __RINvMsa_NtCsjK30CmJ87bX_9hashbrown3rawNtB6_13RawTableInner17new_uninitializedNtNtCslJiobkLta79_5alloc5alloc6GlobalECs71axb73f1AC_14thiserror_impl, symObjAddr: 0x1500, symBinAddr: 0x270C0, symSize: 0x290 }
  - { offset: 0x55845, size: 0x8, addend: 0x0, symName: __RINvMsa_NtCsjK30CmJ87bX_9hashbrown3rawNtB6_13RawTableInner22fallible_with_capacityNtNtCslJiobkLta79_5alloc5alloc6GlobalECs71axb73f1AC_14thiserror_impl, symObjAddr: 0x1790, symBinAddr: 0x27350, symSize: 0x430 }
  - { offset: 0x56143, size: 0x8, addend: 0x0, symName: __RNvMs1_NtCsjK30CmJ87bX_9hashbrown3rawNtB5_11TableLayout20calculate_layout_forCs71axb73f1AC_14thiserror_impl, symObjAddr: 0x20F0, symBinAddr: 0x27CB0, symSize: 0x2F0 }
  - { offset: 0x565E6, size: 0x8, addend: 0x0, symName: __RNvMs6_NtCsjK30CmJ87bX_9hashbrown3rawINtB5_8RawTableTRNtNtCsdGrGZaRBwMb_3syn4expr6MemberjEE14insert_in_slotCs71axb73f1AC_14thiserror_impl, symObjAddr: 0x23E0, symBinAddr: 0x27FA0, symSize: 0x160 }
  - { offset: 0x56A8F, size: 0x8, addend: 0x0, symName: __RNvMsa_NtCsjK30CmJ87bX_9hashbrown3rawNtB5_13RawTableInner15fix_insert_slotCs71axb73f1AC_14thiserror_impl, symObjAddr: 0x2540, symBinAddr: 0x28100, symSize: 0x140 }
  - { offset: 0x56E28, size: 0x8, addend: 0x0, symName: __RNvMsa_NtCsjK30CmJ87bX_9hashbrown3rawNtB5_13RawTableInner15rehash_in_placeCs71axb73f1AC_14thiserror_impl, symObjAddr: 0x2680, symBinAddr: 0x28240, symSize: 0x5B0 }
  - { offset: 0x575F4, size: 0x8, addend: 0x0, symName: __RNvMsa_NtCsjK30CmJ87bX_9hashbrown3rawNtB5_13RawTableInner16find_insert_slotCs71axb73f1AC_14thiserror_impl, symObjAddr: 0x2C30, symBinAddr: 0x287F0, symSize: 0x130 }
  - { offset: 0x577F3, size: 0x8, addend: 0x0, symName: __RNvMsa_NtCsjK30CmJ87bX_9hashbrown3rawNtB5_13RawTableInner19prepare_insert_slotCs71axb73f1AC_14thiserror_impl, symObjAddr: 0x2D60, symBinAddr: 0x28920, symSize: 0x60 }
  - { offset: 0x57AE4, size: 0x8, addend: 0x0, symName: __RNvMsa_NtCsjK30CmJ87bX_9hashbrown3rawNtB5_13RawTableInner23prepare_rehash_in_placeCs71axb73f1AC_14thiserror_impl, symObjAddr: 0x2DC0, symBinAddr: 0x28980, symSize: 0x340 }
  - { offset: 0x5820B, size: 0x8, addend: 0x0, symName: __RNvMsa_NtCsjK30CmJ87bX_9hashbrown3rawNtB5_13RawTableInner25find_insert_slot_in_groupCs71axb73f1AC_14thiserror_impl, symObjAddr: 0x3100, symBinAddr: 0x28CC0, symSize: 0x160 }
  - { offset: 0x58509, size: 0x8, addend: 0x0, symName: __RNvMsa_NtCsjK30CmJ87bX_9hashbrown3rawNtB5_13RawTableInner30find_or_find_insert_slot_innerCs71axb73f1AC_14thiserror_impl, symObjAddr: 0x3260, symBinAddr: 0x28E20, symSize: 0x410 }
  - { offset: 0x5893E, size: 0x8, addend: 0x0, symName: __RINvMNtCsdGrGZaRBwMb_3syn9lookaheadNtB3_10Lookahead14peekINvNvNtCs71axb73f1AC_14thiserror_impl4attr21parse_error_attribute11transparentNtB3_11TokenMarkerEEB10_, symObjAddr: 0x0, symBinAddr: 0x294E0, symSize: 0x30 }
  - { offset: 0x5D210, size: 0x8, addend: 0x0, symName: __RNcNtINtNtNtCsieiGu2EXtoJ_4core3ops12control_flow11ControlFlowNtNtCs71axb73f1AC_14thiserror_impl3ast5FieldE5Break0B12_, symObjAddr: 0x1230, symBinAddr: 0x2A710, symSize: 0x30 }
  - { offset: 0x5D24B, size: 0x8, addend: 0x0, symName: __RNcNtINtNtNtCsieiGu2EXtoJ_4core3ops12control_flow11ControlFlowNtNtCs71axb73f1AC_14thiserror_impl3ast7VariantE5Break0B12_, symObjAddr: 0x1260, symBinAddr: 0x2A740, symSize: 0x30 }
  - { offset: 0x5D30C, size: 0x8, addend: 0x0, symName: __RNvXNtNtCsieiGu2EXtoJ_4core3ops12control_flowINtB2_11ControlFlowIBI_NtNtCs71axb73f1AC_14thiserror_impl3ast5FieldEENtNtB4_9try_trait3Try11from_outputB18_, symObjAddr: 0x2B10, symBinAddr: 0x2BFF0, symSize: 0x20 }
  - { offset: 0x5D34A, size: 0x8, addend: 0x0, symName: __RNvXNtNtCsieiGu2EXtoJ_4core3ops12control_flowINtB2_11ControlFlowIBI_NtNtCs71axb73f1AC_14thiserror_impl3ast5FieldEENtNtB4_9try_trait3Try6branchB18_, symObjAddr: 0x2B30, symBinAddr: 0x2C010, symSize: 0xB0 }
  - { offset: 0x5D3C4, size: 0x8, addend: 0x0, symName: __RNvXNtNtCsieiGu2EXtoJ_4core3ops12control_flowINtB2_11ControlFlowIBI_NtNtCs71axb73f1AC_14thiserror_impl3ast7VariantEENtNtB4_9try_trait3Try11from_outputB18_, symObjAddr: 0x2BE0, symBinAddr: 0x2C0C0, symSize: 0x20 }
  - { offset: 0x5D402, size: 0x8, addend: 0x0, symName: __RNvXNtNtCsieiGu2EXtoJ_4core3ops12control_flowINtB2_11ControlFlowIBI_NtNtCs71axb73f1AC_14thiserror_impl3ast7VariantEENtNtB4_9try_trait3Try6branchB18_, symObjAddr: 0x2C00, symBinAddr: 0x2C0E0, symSize: 0xB0 }
  - { offset: 0x5D47C, size: 0x8, addend: 0x0, symName: __RNvXNtNtCsieiGu2EXtoJ_4core3ops12control_flowINtB2_11ControlFlowNtNtCs71axb73f1AC_14thiserror_impl3ast5FieldENtNtB4_9try_trait3Try11from_outputB14_, symObjAddr: 0x2CB0, symBinAddr: 0x2C190, symSize: 0x20 }
  - { offset: 0x5D4BA, size: 0x8, addend: 0x0, symName: __RNvXNtNtCsieiGu2EXtoJ_4core3ops12control_flowINtB2_11ControlFlowNtNtCs71axb73f1AC_14thiserror_impl3ast5FieldENtNtB4_9try_trait3Try6branchB14_, symObjAddr: 0x2CD0, symBinAddr: 0x2C1B0, symSize: 0xB0 }
  - { offset: 0x5D534, size: 0x8, addend: 0x0, symName: __RNvXNtNtCsieiGu2EXtoJ_4core3ops12control_flowINtB2_11ControlFlowNtNtCs71axb73f1AC_14thiserror_impl3ast7VariantENtNtB4_9try_trait3Try11from_outputB14_, symObjAddr: 0x2D80, symBinAddr: 0x2C260, symSize: 0x20 }
  - { offset: 0x5D572, size: 0x8, addend: 0x0, symName: __RNvXNtNtCsieiGu2EXtoJ_4core3ops12control_flowINtB2_11ControlFlowNtNtCs71axb73f1AC_14thiserror_impl3ast7VariantENtNtB4_9try_trait3Try6branchB14_, symObjAddr: 0x2DA0, symBinAddr: 0x2C280, symSize: 0xB0 }
  - { offset: 0x5D5F2, size: 0x8, addend: 0x0, symName: __RNvXs_NtNtCsieiGu2EXtoJ_4core3ops12control_flowINtB4_11ControlFlowIBK_NtNtCs71axb73f1AC_14thiserror_impl3ast5FieldEEINtNtB6_9try_trait12FromResidualIBK_B12_NtNtB8_7convert10InfallibleEE13from_residualB1a_, symObjAddr: 0x3400, symBinAddr: 0x2C8E0, symSize: 0x60 }
  - { offset: 0x5D631, size: 0x8, addend: 0x0, symName: __RNvXs_NtNtCsieiGu2EXtoJ_4core3ops12control_flowINtB4_11ControlFlowIBK_NtNtCs71axb73f1AC_14thiserror_impl3ast7VariantEEINtNtB6_9try_trait12FromResidualIBK_B12_NtNtB8_7convert10InfallibleEE13from_residualB1a_, symObjAddr: 0x3460, symBinAddr: 0x2C940, symSize: 0x60 }
  - { offset: 0x5D670, size: 0x8, addend: 0x0, symName: __RNvXs_NtNtCsieiGu2EXtoJ_4core3ops12control_flowINtB4_11ControlFlowNtNtCs71axb73f1AC_14thiserror_impl3ast5FieldEINtNtB6_9try_trait12FromResidualIBK_B12_NtNtB8_7convert10InfallibleEE13from_residualB16_, symObjAddr: 0x34C0, symBinAddr: 0x2C9A0, symSize: 0x60 }
  - { offset: 0x5D6AF, size: 0x8, addend: 0x0, symName: __RNvXs_NtNtCsieiGu2EXtoJ_4core3ops12control_flowINtB4_11ControlFlowNtNtCs71axb73f1AC_14thiserror_impl3ast7VariantEINtNtB6_9try_trait12FromResidualIBK_B12_NtNtB8_7convert10InfallibleEE13from_residualB16_, symObjAddr: 0x3520, symBinAddr: 0x2CA00, symSize: 0x60 }
  - { offset: 0x5E43B, size: 0x8, addend: 0x0, symName: __RINvNtCsieiGu2EXtoJ_4core9panicking13panic_displayNtNtCsdGrGZaRBwMb_3syn5error5ErrorECs71axb73f1AC_14thiserror_impl, symObjAddr: 0x410, symBinAddr: 0x298F0, symSize: 0xA0 }
  - { offset: 0x5E71F, size: 0x8, addend: 0x0, symName: __RNvYINtNtNtNtCslJiobkLta79_5alloc11collections5btree3map8BTreeMapTjNtNtCs71axb73f1AC_14thiserror_impl4attr5TraitENtNtB7_7set_val9SetValZSTENtNtCsieiGu2EXtoJ_4core5clone5Clone10clone_fromB17_, symObjAddr: 0x49A0, symBinAddr: 0x2DE80, symSize: 0x80 }
  - { offset: 0x5E8BB, size: 0x8, addend: 0x0, symName: __RINvNtNtNtCscKtU6MdFI5n_10proc_macro6bridge6client5state3setINtNtCsieiGu2EXtoJ_4core6option6OptionNtB4_11TokenStreamENCNCINvB4_10run_clientB1y_BW_NCNCINvMs6_B4_INtB4_6ClientNtB8_11TokenStreamB2L_E7expand1NvCs71axb73f1AC_14thiserror_impl12derive_errorE00E00EB3i_, symObjAddr: 0x4B0, symBinAddr: 0x29990, symSize: 0xC0 }
  - { offset: 0x5E99B, size: 0x8, addend: 0x0, symName: __RNCNkNvNtNtNtCscKtU6MdFI5n_10proc_macro6bridge6client5state12BRIDGE_STATE0s_0Cs71axb73f1AC_14thiserror_impl, symObjAddr: 0x1210, symBinAddr: 0x2A6F0, symSize: 0x20 }
  - { offset: 0x5EDC6, size: 0x8, addend: 0x0, symName: __RNvXNtNtCscKtU6MdFI5n_10proc_macro6bridge3rpcuINtB2_6EncodeuE6encodeCs71axb73f1AC_14thiserror_impl, symObjAddr: 0x2B00, symBinAddr: 0x2BFE0, symSize: 0x10 }
  - { offset: 0x5EE3F, size: 0x8, addend: 0x0, symName: __RNvXsa_NtNtCscKtU6MdFI5n_10proc_macro6bridge3rpcRShINtB5_6EncodeuE6encodeCs71axb73f1AC_14thiserror_impl, symObjAddr: 0x3580, symBinAddr: 0x2CA60, symSize: 0xD0 }
  - { offset: 0x5EF47, size: 0x8, addend: 0x0, symName: __RNvXsc_NtNtCscKtU6MdFI5n_10proc_macro6bridge3rpcReINtB5_6EncodeuE6encodeCs71axb73f1AC_14thiserror_impl, symObjAddr: 0x3650, symBinAddr: 0x2CB30, symSize: 0x30 }
  - { offset: 0x5F02F, size: 0x8, addend: 0x0, symName: __RNvXsl_NtNtCscKtU6MdFI5n_10proc_macro6bridge3rpcNtB5_12PanicMessageINtB5_6EncodeuE6encodeCs71axb73f1AC_14thiserror_impl, symObjAddr: 0x3680, symBinAddr: 0x2CB60, symSize: 0x130 }
  - { offset: 0x5F1FF, size: 0x8, addend: 0x0, symName: __RNvXso_NtNtCscKtU6MdFI5n_10proc_macro6bridge3rpcmINtB5_9DecodeMutuE6decodeCs71axb73f1AC_14thiserror_impl, symObjAddr: 0x37B0, symBinAddr: 0x2CC90, symSize: 0x140 }
  - { offset: 0x600A7, size: 0x8, addend: 0x0, symName: __RNvXs0_NtCsdGrGZaRBwMb_3syn5tokenNtNtB7_9lookahead3EndNtB5_5Token4peekCs71axb73f1AC_14thiserror_impl, symObjAddr: 0x31C0, symBinAddr: 0x2C6A0, symSize: 0x30 }
  - { offset: 0x64B69, size: 0x8, addend: 0x0, symName: __RNvXs_NtCslJiobkLta79_5alloc5allocNtB4_6GlobalNtNtCsieiGu2EXtoJ_4core5alloc9Allocator10deallocateCs71axb73f1AC_14thiserror_impl, symObjAddr: 0x3360, symBinAddr: 0x2C840, symSize: 0x70 }
  - { offset: 0x64C31, size: 0x8, addend: 0x0, symName: __RNvXs_NtCslJiobkLta79_5alloc5allocNtB4_6GlobalNtNtCsieiGu2EXtoJ_4core5alloc9Allocator8allocateCs71axb73f1AC_14thiserror_impl, symObjAddr: 0x33D0, symBinAddr: 0x2C8B0, symSize: 0x30 }
  - { offset: 0x64C6C, size: 0x8, addend: 0x0, symName: __RNvNtCslJiobkLta79_5alloc5alloc15exchange_mallocCs71axb73f1AC_14thiserror_impl, symObjAddr: 0x2A60, symBinAddr: 0x2BF40, symSize: 0xA0 }
  - { offset: 0x64D08, size: 0x8, addend: 0x0, symName: __RNvXs1_NtCslJiobkLta79_5alloc5allocNtB5_6GlobalNtNtCsieiGu2EXtoJ_4core5clone5Clone5cloneCs71axb73f1AC_14thiserror_impl, symObjAddr: 0x32E0, symBinAddr: 0x2C7C0, symSize: 0x10 }
  - { offset: 0x67C06, size: 0x8, addend: 0x0, symName: __RINvNvXs0_NtNtNtCslJiobkLta79_5alloc11collections5btree3mapINtB8_8BTreeMappppENtNtCsieiGu2EXtoJ_4core5clone5Clone5clone13clone_subtreeTjNtNtCs71axb73f1AC_14thiserror_impl4attr5TraitENtNtBa_7set_val9SetValZSTNtNtBe_5alloc6GlobalEB2e_, symObjAddr: 0x570, symBinAddr: 0x29A50, symSize: 0xCA0 }
  - { offset: 0x68405, size: 0x8, addend: 0x0, symName: __RNvXs0_NtNtNtCslJiobkLta79_5alloc11collections5btree3mapINtB5_8BTreeMapTjNtNtCs71axb73f1AC_14thiserror_impl4attr5TraitENtNtB7_7set_val9SetValZSTENtNtCsieiGu2EXtoJ_4core5clone5Clone5cloneB1d_, symObjAddr: 0x31F0, symBinAddr: 0x2C6D0, symSize: 0xF0 }
  - { offset: 0x68EF2, size: 0x8, addend: 0x0, symName: __RNvXNtNtNtCslJiobkLta79_5alloc11collections5btree3mapINtB2_8BTreeMapNtCsaKzlTDPUHDb_11proc_macro25IdentNtNtB4_7set_val9SetValZSTENtNtNtCsieiGu2EXtoJ_4core3ops4drop4Drop4dropCs71axb73f1AC_14thiserror_impl, symObjAddr: 0x2E50, symBinAddr: 0x2C330, symSize: 0x40 }
  - { offset: 0x68F70, size: 0x8, addend: 0x0, symName: __RNvXNtNtNtCslJiobkLta79_5alloc11collections5btree3mapINtB2_8BTreeMapNtNtB8_6string6StringNtNtB4_7set_val9SetValZSTENtNtNtCsieiGu2EXtoJ_4core3ops4drop4Drop4dropCs71axb73f1AC_14thiserror_impl, symObjAddr: 0x2E90, symBinAddr: 0x2C370, symSize: 0x40 }
  - { offset: 0x68FEE, size: 0x8, addend: 0x0, symName: __RNvXNtNtNtCslJiobkLta79_5alloc11collections5btree3mapINtB2_8BTreeMapNtNtB8_6string6StringTINtNtB4_3set8BTreeSetB14_EINtNtCsdGrGZaRBwMb_3syn10punctuated10PunctuatedNtCsaKzlTDPUHDb_11proc_macro211TokenStreamNtNtB1V_5token4PlusEEENtNtNtCsieiGu2EXtoJ_4core3ops4drop4Drop4dropCs71axb73f1AC_14thiserror_impl, symObjAddr: 0x2ED0, symBinAddr: 0x2C3B0, symSize: 0x40 }
  - { offset: 0x6906C, size: 0x8, addend: 0x0, symName: __RNvXNtNtNtCslJiobkLta79_5alloc11collections5btree3mapINtB2_8BTreeMapRNtCsaKzlTDPUHDb_11proc_macro25IdentNtNtB4_7set_val9SetValZSTENtNtNtCsieiGu2EXtoJ_4core3ops4drop4Drop4dropCs71axb73f1AC_14thiserror_impl, symObjAddr: 0x2F10, symBinAddr: 0x2C3F0, symSize: 0x40 }
  - { offset: 0x690EA, size: 0x8, addend: 0x0, symName: __RNvXNtNtNtCslJiobkLta79_5alloc11collections5btree3mapINtB2_8BTreeMapTjNtNtCs71axb73f1AC_14thiserror_impl4attr5TraitENtNtB4_7set_val9SetValZSTENtNtNtCsieiGu2EXtoJ_4core3ops4drop4Drop4dropB1a_, symObjAddr: 0x2F50, symBinAddr: 0x2C430, symSize: 0x40 }
  - { offset: 0x69178, size: 0x8, addend: 0x0, symName: __RNvXNvXsw_NtNtNtCslJiobkLta79_5alloc11collections5btree3mapINtB8_8IntoIterpppENtNtNtCsieiGu2EXtoJ_4core3ops4drop4Drop4dropINtB2_9DropGuardNtCsaKzlTDPUHDb_11proc_macro25IdentNtNtBa_7set_val9SetValZSTNtNtBe_5alloc6GlobalEB1e_4dropCs71axb73f1AC_14thiserror_impl, symObjAddr: 0x2F90, symBinAddr: 0x2C470, symSize: 0x70 }
  - { offset: 0x691DB, size: 0x8, addend: 0x0, symName: __RNvXNvXsw_NtNtNtCslJiobkLta79_5alloc11collections5btree3mapINtB8_8IntoIterpppENtNtNtCsieiGu2EXtoJ_4core3ops4drop4Drop4dropINtB2_9DropGuardNtNtBe_6string6StringNtNtBa_7set_val9SetValZSTNtNtBe_5alloc6GlobalEB1e_4dropCs71axb73f1AC_14thiserror_impl, symObjAddr: 0x3000, symBinAddr: 0x2C4E0, symSize: 0x70 }
  - { offset: 0x6923E, size: 0x8, addend: 0x0, symName: __RNvXNvXsw_NtNtNtCslJiobkLta79_5alloc11collections5btree3mapINtB8_8IntoIterpppENtNtNtCsieiGu2EXtoJ_4core3ops4drop4Drop4dropINtB2_9DropGuardNtNtBe_6string6StringTINtNtBa_3set8BTreeSetB2c_EINtNtCsdGrGZaRBwMb_3syn10punctuated10PunctuatedNtCsaKzlTDPUHDb_11proc_macro211TokenStreamNtNtB33_5token4PlusEENtNtBe_5alloc6GlobalEB1e_4dropCs71axb73f1AC_14thiserror_impl, symObjAddr: 0x3070, symBinAddr: 0x2C550, symSize: 0x70 }
  - { offset: 0x692A1, size: 0x8, addend: 0x0, symName: __RNvXNvXsw_NtNtNtCslJiobkLta79_5alloc11collections5btree3mapINtB8_8IntoIterpppENtNtNtCsieiGu2EXtoJ_4core3ops4drop4Drop4dropINtB2_9DropGuardRNtCsaKzlTDPUHDb_11proc_macro25IdentNtNtBa_7set_val9SetValZSTNtNtBe_5alloc6GlobalEB1e_4dropCs71axb73f1AC_14thiserror_impl, symObjAddr: 0x30E0, symBinAddr: 0x2C5C0, symSize: 0x70 }
  - { offset: 0x69304, size: 0x8, addend: 0x0, symName: __RNvXNvXsw_NtNtNtCslJiobkLta79_5alloc11collections5btree3mapINtB8_8IntoIterpppENtNtNtCsieiGu2EXtoJ_4core3ops4drop4Drop4dropINtB2_9DropGuardTjNtNtCs71axb73f1AC_14thiserror_impl4attr5TraitENtNtBa_7set_val9SetValZSTNtNtBe_5alloc6GlobalEB1e_4dropB2i_, symObjAddr: 0x3150, symBinAddr: 0x2C630, symSize: 0x70 }
  - { offset: 0x69459, size: 0x8, addend: 0x0, symName: __RNvXsw_NtNtNtCslJiobkLta79_5alloc11collections5btree3mapINtB5_8IntoIterNtCsaKzlTDPUHDb_11proc_macro25IdentNtNtB7_7set_val9SetValZSTENtNtNtCsieiGu2EXtoJ_4core3ops4drop4Drop4dropCs71axb73f1AC_14thiserror_impl, symObjAddr: 0x4610, symBinAddr: 0x2DAF0, symSize: 0xA0 }
  - { offset: 0x694CA, size: 0x8, addend: 0x0, symName: __RNvXsw_NtNtNtCslJiobkLta79_5alloc11collections5btree3mapINtB5_8IntoIterNtNtBb_6string6StringNtNtB7_7set_val9SetValZSTENtNtNtCsieiGu2EXtoJ_4core3ops4drop4Drop4dropCs71axb73f1AC_14thiserror_impl, symObjAddr: 0x46B0, symBinAddr: 0x2DB90, symSize: 0xA0 }
  - { offset: 0x6953B, size: 0x8, addend: 0x0, symName: __RNvXsw_NtNtNtCslJiobkLta79_5alloc11collections5btree3mapINtB5_8IntoIterNtNtBb_6string6StringTINtNtB7_3set8BTreeSetB17_EINtNtCsdGrGZaRBwMb_3syn10punctuated10PunctuatedNtCsaKzlTDPUHDb_11proc_macro211TokenStreamNtNtB1Y_5token4PlusEEENtNtNtCsieiGu2EXtoJ_4core3ops4drop4Drop4dropCs71axb73f1AC_14thiserror_impl, symObjAddr: 0x4750, symBinAddr: 0x2DC30, symSize: 0xA0 }
  - { offset: 0x695AC, size: 0x8, addend: 0x0, symName: __RNvXsw_NtNtNtCslJiobkLta79_5alloc11collections5btree3mapINtB5_8IntoIterRNtCsaKzlTDPUHDb_11proc_macro25IdentNtNtB7_7set_val9SetValZSTENtNtNtCsieiGu2EXtoJ_4core3ops4drop4Drop4dropCs71axb73f1AC_14thiserror_impl, symObjAddr: 0x47F0, symBinAddr: 0x2DCD0, symSize: 0xA0 }
  - { offset: 0x6961D, size: 0x8, addend: 0x0, symName: __RNvXsw_NtNtNtCslJiobkLta79_5alloc11collections5btree3mapINtB5_8IntoIterTjNtNtCs71axb73f1AC_14thiserror_impl4attr5TraitENtNtB7_7set_val9SetValZSTENtNtNtCsieiGu2EXtoJ_4core3ops4drop4Drop4dropB1d_, symObjAddr: 0x4890, symBinAddr: 0x2DD70, symSize: 0xA0 }
  - { offset: 0x69694, size: 0x8, addend: 0x0, symName: __RNvXs1q_NtNtNtCslJiobkLta79_5alloc11collections5btree3mapINtB6_8BTreeMapNtNtBc_6string6StringTINtNtB8_3set8BTreeSetB18_EINtNtCsdGrGZaRBwMb_3syn10punctuated10PunctuatedNtCsaKzlTDPUHDb_11proc_macro211TokenStreamNtNtB1Z_5token4PlusEEEINtNtNtCsieiGu2EXtoJ_4core3ops5index5IndexRB18_E5indexCs71axb73f1AC_14thiserror_impl, symObjAddr: 0x32F0, symBinAddr: 0x2C7D0, symSize: 0x70 }
  - { offset: 0x69719, size: 0x8, addend: 0x0, symName: __RNvXsv_NtNtNtCslJiobkLta79_5alloc11collections5btree3mapINtB5_8BTreeMapNtCsaKzlTDPUHDb_11proc_macro25IdentNtNtB7_7set_val9SetValZSTENtNtNtNtCsieiGu2EXtoJ_4core4iter6traits7collect12IntoIterator9into_iterCs71axb73f1AC_14thiserror_impl, symObjAddr: 0x38F0, symBinAddr: 0x2CDD0, symSize: 0x2A0 }
  - { offset: 0x6988F, size: 0x8, addend: 0x0, symName: __RNvXsv_NtNtNtCslJiobkLta79_5alloc11collections5btree3mapINtB5_8BTreeMapNtNtBb_6string6StringNtNtB7_7set_val9SetValZSTENtNtNtNtCsieiGu2EXtoJ_4core4iter6traits7collect12IntoIterator9into_iterCs71axb73f1AC_14thiserror_impl, symObjAddr: 0x3B90, symBinAddr: 0x2D070, symSize: 0x2A0 }
  - { offset: 0x69A05, size: 0x8, addend: 0x0, symName: __RNvXsv_NtNtNtCslJiobkLta79_5alloc11collections5btree3mapINtB5_8BTreeMapNtNtBb_6string6StringTINtNtB7_3set8BTreeSetB17_EINtNtCsdGrGZaRBwMb_3syn10punctuated10PunctuatedNtCsaKzlTDPUHDb_11proc_macro211TokenStreamNtNtB1Y_5token4PlusEEENtNtNtNtCsieiGu2EXtoJ_4core4iter6traits7collect12IntoIterator9into_iterCs71axb73f1AC_14thiserror_impl, symObjAddr: 0x3E30, symBinAddr: 0x2D310, symSize: 0x2A0 }
  - { offset: 0x69B7B, size: 0x8, addend: 0x0, symName: __RNvXsv_NtNtNtCslJiobkLta79_5alloc11collections5btree3mapINtB5_8BTreeMapRNtCsaKzlTDPUHDb_11proc_macro25IdentNtNtB7_7set_val9SetValZSTENtNtNtNtCsieiGu2EXtoJ_4core4iter6traits7collect12IntoIterator9into_iterCs71axb73f1AC_14thiserror_impl, symObjAddr: 0x40D0, symBinAddr: 0x2D5B0, symSize: 0x2A0 }
  - { offset: 0x69CF1, size: 0x8, addend: 0x0, symName: __RNvXsv_NtNtNtCslJiobkLta79_5alloc11collections5btree3mapINtB5_8BTreeMapTjNtNtCs71axb73f1AC_14thiserror_impl4attr5TraitENtNtB7_7set_val9SetValZSTENtNtNtNtCsieiGu2EXtoJ_4core4iter6traits7collect12IntoIterator9into_iterB1d_, symObjAddr: 0x4370, symBinAddr: 0x2D850, symSize: 0x2A0 }
  - { offset: 0x69EB3, size: 0x8, addend: 0x0, symName: __RNvXsy_NtNtNtCslJiobkLta79_5alloc11collections5btree3mapINtB5_8IntoIterTjNtNtCs71axb73f1AC_14thiserror_impl4attr5TraitENtNtB7_7set_val9SetValZSTENtNtNtNtCsieiGu2EXtoJ_4core4iter6traits8iterator8Iterator4nextB1d_, symObjAddr: 0x4930, symBinAddr: 0x2DE10, symSize: 0x70 }
  - { offset: 0x6A78C, size: 0x8, addend: 0x0, symName: __RINvMNtCsdGrGZaRBwMb_3syn9lookaheadNtB3_10Lookahead14peekINvNvNtCs71axb73f1AC_14thiserror_impl4attr21parse_error_attribute11transparentNtB3_11TokenMarkerEEB10_, symObjAddr: 0x0, symBinAddr: 0x294E0, symSize: 0x30 }
  - { offset: 0x6A9D9, size: 0x8, addend: 0x0, symName: __RINvMsi_NtNtNtCslJiobkLta79_5alloc11collections5btree3mapINtB6_8BTreeMapNtNtBc_6string6StringTINtNtB8_3set8BTreeSetB18_EINtNtCsdGrGZaRBwMb_3syn10punctuated10PunctuatedNtCsaKzlTDPUHDb_11proc_macro211TokenStreamNtNtB1Z_5token4PlusEEE3getB18_ECs71axb73f1AC_14thiserror_impl, symObjAddr: 0x30, symBinAddr: 0x29510, symSize: 0x100 }
  - { offset: 0x6ACC5, size: 0x8, addend: 0x0, symName: __RINvMsi_NtNtNtCslJiobkLta79_5alloc11collections5btree3mapINtB6_8BTreeMapRNtCsaKzlTDPUHDb_11proc_macro25IdentNtNtB8_7set_val9SetValZSTE27bulk_build_from_sorted_iterINtNtNtNtCsieiGu2EXtoJ_4core4iter8adapters3map3MapINtNtNtBc_3vec9into_iter8IntoIterB18_ENCINvMse_NtB8_3setINtB4a_8BTreeSetB18_E16from_sorted_iterB3p_E0EECs71axb73f1AC_14thiserror_impl, symObjAddr: 0x130, symBinAddr: 0x29610, symSize: 0x1E0 }
  - { offset: 0x6AE97, size: 0x8, addend: 0x0, symName: __RINvMsi_NtNtNtCslJiobkLta79_5alloc11collections5btree3mapINtB6_8BTreeMapRNtCsaKzlTDPUHDb_11proc_macro25IdentNtNtB8_7set_val9SetValZSTE3getB19_ECs71axb73f1AC_14thiserror_impl, symObjAddr: 0x310, symBinAddr: 0x297F0, symSize: 0x100 }
  - { offset: 0x6BB14, size: 0x8, addend: 0x0, symName: __RNvMNtCslJiobkLta79_5alloc5allocNtB2_6Global10alloc_implCs71axb73f1AC_14thiserror_impl, symObjAddr: 0x1290, symBinAddr: 0x2A770, symSize: 0x290 }
  - { offset: 0x6BE8E, size: 0x8, addend: 0x0, symName: __RNvMsg_NtNtNtCslJiobkLta79_5alloc11collections5btree3mapINtB5_8BTreeMapNtNtBb_6string6StringTINtNtB7_3set8BTreeSetB17_EINtNtCsdGrGZaRBwMb_3syn10punctuated10PunctuatedNtCsaKzlTDPUHDb_11proc_macro211TokenStreamNtNtB1Y_5token4PlusEEE3newCs71axb73f1AC_14thiserror_impl, symObjAddr: 0x1520, symBinAddr: 0x2AA00, symSize: 0x30 }
  - { offset: 0x6BFAE, size: 0x8, addend: 0x0, symName: __RNvMsi_NtNtNtCslJiobkLta79_5alloc11collections5btree3mapINtB5_8BTreeMapNtCsaKzlTDPUHDb_11proc_macro25IdentNtNtB7_7set_val9SetValZSTE5entryCs71axb73f1AC_14thiserror_impl, symObjAddr: 0x1550, symBinAddr: 0x2AA30, symSize: 0x3A0 }
  - { offset: 0x6C0F3, size: 0x8, addend: 0x0, symName: __RNvMsi_NtNtNtCslJiobkLta79_5alloc11collections5btree3mapINtB5_8BTreeMapNtCsaKzlTDPUHDb_11proc_macro25IdentNtNtB7_7set_val9SetValZSTE6insertCs71axb73f1AC_14thiserror_impl, symObjAddr: 0x18F0, symBinAddr: 0x2ADD0, symSize: 0x160 }
  - { offset: 0x6C248, size: 0x8, addend: 0x0, symName: __RNvMsi_NtNtNtCslJiobkLta79_5alloc11collections5btree3mapINtB5_8BTreeMapNtNtBb_6string6StringNtNtB7_7set_val9SetValZSTE5entryCs71axb73f1AC_14thiserror_impl, symObjAddr: 0x1A50, symBinAddr: 0x2AF30, symSize: 0x3A0 }
  - { offset: 0x6C380, size: 0x8, addend: 0x0, symName: __RNvMsi_NtNtNtCslJiobkLta79_5alloc11collections5btree3mapINtB5_8BTreeMapNtNtBb_6string6StringNtNtB7_7set_val9SetValZSTE6insertCs71axb73f1AC_14thiserror_impl, symObjAddr: 0x1DF0, symBinAddr: 0x2B2D0, symSize: 0x160 }
  - { offset: 0x6C4D5, size: 0x8, addend: 0x0, symName: __RNvMsi_NtNtNtCslJiobkLta79_5alloc11collections5btree3mapINtB5_8BTreeMapNtNtBb_6string6StringTINtNtB7_3set8BTreeSetB17_EINtNtCsdGrGZaRBwMb_3syn10punctuated10PunctuatedNtCsaKzlTDPUHDb_11proc_macro211TokenStreamNtNtB1Y_5token4PlusEEE5entryCs71axb73f1AC_14thiserror_impl, symObjAddr: 0x1F50, symBinAddr: 0x2B430, symSize: 0x3A0 }
  - { offset: 0x6C661, size: 0x8, addend: 0x0, symName: __RNvMsi_NtNtNtCslJiobkLta79_5alloc11collections5btree3mapINtB5_8BTreeMapTjNtNtCs71axb73f1AC_14thiserror_impl4attr5TraitENtNtB7_7set_val9SetValZSTE5entryB1d_, symObjAddr: 0x22F0, symBinAddr: 0x2B7D0, symSize: 0x340 }
  - { offset: 0x6C799, size: 0x8, addend: 0x0, symName: __RNvMsi_NtNtNtCslJiobkLta79_5alloc11collections5btree3mapINtB5_8BTreeMapTjNtNtCs71axb73f1AC_14thiserror_impl4attr5TraitENtNtB7_7set_val9SetValZSTE6insertB1d_, symObjAddr: 0x2630, symBinAddr: 0x2BB10, symSize: 0x160 }
  - { offset: 0x6C89B, size: 0x8, addend: 0x0, symName: __RNvMsx_NtNtNtCslJiobkLta79_5alloc11collections5btree3mapINtB5_8IntoIterNtCsaKzlTDPUHDb_11proc_macro25IdentNtNtB7_7set_val9SetValZSTE10dying_nextCs71axb73f1AC_14thiserror_impl, symObjAddr: 0x2790, symBinAddr: 0x2BC70, symSize: 0x90 }
  - { offset: 0x6C8E6, size: 0x8, addend: 0x0, symName: __RNvMsx_NtNtNtCslJiobkLta79_5alloc11collections5btree3mapINtB5_8IntoIterNtNtBb_6string6StringNtNtB7_7set_val9SetValZSTE10dying_nextCs71axb73f1AC_14thiserror_impl, symObjAddr: 0x2820, symBinAddr: 0x2BD00, symSize: 0x90 }
  - { offset: 0x6C931, size: 0x8, addend: 0x0, symName: __RNvMsx_NtNtNtCslJiobkLta79_5alloc11collections5btree3mapINtB5_8IntoIterNtNtBb_6string6StringTINtNtB7_3set8BTreeSetB17_EINtNtCsdGrGZaRBwMb_3syn10punctuated10PunctuatedNtCsaKzlTDPUHDb_11proc_macro211TokenStreamNtNtB1Y_5token4PlusEEE10dying_nextCs71axb73f1AC_14thiserror_impl, symObjAddr: 0x28B0, symBinAddr: 0x2BD90, symSize: 0x90 }
  - { offset: 0x6C97C, size: 0x8, addend: 0x0, symName: __RNvMsx_NtNtNtCslJiobkLta79_5alloc11collections5btree3mapINtB5_8IntoIterRNtCsaKzlTDPUHDb_11proc_macro25IdentNtNtB7_7set_val9SetValZSTE10dying_nextCs71axb73f1AC_14thiserror_impl, symObjAddr: 0x2940, symBinAddr: 0x2BE20, symSize: 0x90 }
  - { offset: 0x6C9C7, size: 0x8, addend: 0x0, symName: __RNvMsx_NtNtNtCslJiobkLta79_5alloc11collections5btree3mapINtB5_8IntoIterTjNtNtCs71axb73f1AC_14thiserror_impl4attr5TraitENtNtB7_7set_val9SetValZSTE10dying_nextB1d_, symObjAddr: 0x29D0, symBinAddr: 0x2BEB0, symSize: 0x90 }
  - { offset: 0x6D119, size: 0x8, addend: 0x0, symName: __RNvYNtNtCsdGrGZaRBwMb_3syn2ty4TypeNtNtCs9OU1sGv5X54_5quote9to_tokens8ToTokens15to_token_streamCs71axb73f1AC_14thiserror_impl, symObjAddr: 0x4A20, symBinAddr: 0x2DF00, symSize: 0x90 }
  - { offset: 0x6D707, size: 0x8, addend: 0x0, symName: __RINvYNtNtNtCsHUR1vrdMJt_3std4hash6random11RandomStateNtNtCsieiGu2EXtoJ_4core4hash11BuildHasher8hash_oneRNtNtCsdGrGZaRBwMb_3syn4expr6MemberECs71axb73f1AC_14thiserror_impl, symObjAddr: 0x0, symBinAddr: 0x2DF90, symSize: 0x80 }
  - { offset: 0x6E162, size: 0x8, addend: 0x0, symName: __RNCNvMs_NtCs71axb73f1AC_14thiserror_impl4propNtNtB8_3ast4Enum10has_source0B8_, symObjAddr: 0x150, symBinAddr: 0x2E0E0, symSize: 0x70 }
  - { offset: 0x6E1A5, size: 0x8, addend: 0x0, symName: __RNCNvMs_NtCs71axb73f1AC_14thiserror_impl4propNtNtB8_3ast4Enum11has_display0B8_, symObjAddr: 0x1C0, symBinAddr: 0x2E150, symSize: 0x40 }
  - { offset: 0x6E1DB, size: 0x8, addend: 0x0, symName: __RNCNvMs_NtCs71axb73f1AC_14thiserror_impl4propNtNtB8_3ast4Enum11has_displays_0B8_, symObjAddr: 0x200, symBinAddr: 0x2E190, symSize: 0x40 }
  - { offset: 0x6E225, size: 0x8, addend: 0x0, symName: __RNCNvMs_NtCs71axb73f1AC_14thiserror_impl4propNtNtB8_3ast4Enum13has_backtrace0B8_, symObjAddr: 0x240, symBinAddr: 0x2E1D0, symSize: 0x40 }
  - { offset: 0x6E269, size: 0x8, addend: 0x0, symName: __RNCNvNtCs71axb73f1AC_14thiserror_impl4prop24distinct_backtrace_field0B5_, symObjAddr: 0x280, symBinAddr: 0x2E210, symSize: 0x40 }
  - { offset: 0x6E2A6, size: 0x8, addend: 0x0, symName: __RNvNtCs71axb73f1AC_14thiserror_impl4prop10from_field, symObjAddr: 0x16E0, symBinAddr: 0x2F670, symSize: 0xA0 }
  - { offset: 0x6E2FC, size: 0x8, addend: 0x0, symName: __RNvNtCs71axb73f1AC_14thiserror_impl4prop12source_field, symObjAddr: 0x1780, symBinAddr: 0x2F710, symSize: 0x1A0 }
  - { offset: 0x6E3AA, size: 0x8, addend: 0x0, symName: __RNvNtCs71axb73f1AC_14thiserror_impl4prop15backtrace_field, symObjAddr: 0x1920, symBinAddr: 0x2F8B0, symSize: 0x120 }
  - { offset: 0x6E42B, size: 0x8, addend: 0x0, symName: __RNvNtCs71axb73f1AC_14thiserror_impl4prop17type_is_backtrace, symObjAddr: 0x1A40, symBinAddr: 0x2F9D0, symSize: 0xE0 }
  - { offset: 0x6E4BB, size: 0x8, addend: 0x0, symName: __RNvNtCs71axb73f1AC_14thiserror_impl4prop24distinct_backtrace_field, symObjAddr: 0x1B20, symBinAddr: 0x2FAB0, symSize: 0x60 }
  - { offset: 0x6FB5A, size: 0x8, addend: 0x0, symName: __RINvYNtNtNtCsHUR1vrdMJt_3std4hash6random11RandomStateNtNtCsieiGu2EXtoJ_4core4hash11BuildHasher8hash_oneRNtNtCsdGrGZaRBwMb_3syn4expr6MemberECs71axb73f1AC_14thiserror_impl, symObjAddr: 0x0, symBinAddr: 0x2DF90, symSize: 0x80 }
  - { offset: 0x6FBC1, size: 0x8, addend: 0x0, symName: __RINvYNtNtNtCsHUR1vrdMJt_3std4hash6random11RandomStateNtNtCsieiGu2EXtoJ_4core4hash11BuildHasher8hash_oneRRNtNtCsdGrGZaRBwMb_3syn4expr6MemberECs71axb73f1AC_14thiserror_impl, symObjAddr: 0x80, symBinAddr: 0x2E010, symSize: 0x80 }
  - { offset: 0x6FD95, size: 0x8, addend: 0x0, symName: __RNvYNtNtNtCsHUR1vrdMJt_3std4hash6random13DefaultHasherNtNtCsieiGu2EXtoJ_4core4hash6Hasher9write_u32Cs71axb73f1AC_14thiserror_impl, symObjAddr: 0x2B20, symBinAddr: 0x30A00, symSize: 0x30 }
  - { offset: 0x73366, size: 0x8, addend: 0x0, symName: __RNvXsF_NtNtCsieiGu2EXtoJ_4core4iter5rangejNtB5_4Step17forward_uncheckedCs71axb73f1AC_14thiserror_impl, symObjAddr: 0x29F0, symBinAddr: 0x308D0, symSize: 0x40 }
  - { offset: 0x73474, size: 0x8, addend: 0x0, symName: __RNvXs1_NtNtNtCsieiGu2EXtoJ_4core5array4iter10iter_innerINtB5_15PolymorphicIterAINtNtNtBb_3mem12maybe_uninit11MaybeUninitjEj2_ENtNtNtBb_3ops4drop4Drop4dropCs71axb73f1AC_14thiserror_impl, symObjAddr: 0x1C60, symBinAddr: 0x2FBF0, symSize: 0x30 }
  - { offset: 0x74BE1, size: 0x8, addend: 0x0, symName: __RNvNvNtCsieiGu2EXtoJ_4core9ub_checks23maybe_is_nonoverlapping7runtimeCs71axb73f1AC_14thiserror_impl, symObjAddr: 0x1B80, symBinAddr: 0x2FB10, symSize: 0xC0 }
  - { offset: 0x74EEF, size: 0x8, addend: 0x0, symName: __RNCNkNvNvMNtNtCsHUR1vrdMJt_3std4hash6randomNtB8_11RandomState3new4KEYS0s_0Cs71axb73f1AC_14thiserror_impl, symObjAddr: 0x100, symBinAddr: 0x2E090, symSize: 0x30 }
  - { offset: 0x74F2D, size: 0x8, addend: 0x0, symName: __RNvNvNvMNtNtCsHUR1vrdMJt_3std4hash6randomNtB6_11RandomState3new4KEYS6___initCs71axb73f1AC_14thiserror_impl, symObjAddr: 0x1C40, symBinAddr: 0x2FBD0, symSize: 0x20 }
  - { offset: 0x74F4B, size: 0x8, addend: 0x0, symName: __RNCNvMNtNtCsHUR1vrdMJt_3std4hash6randomNtB4_11RandomState3new0Cs71axb73f1AC_14thiserror_impl, symObjAddr: 0x130, symBinAddr: 0x2E0C0, symSize: 0x20 }
  - { offset: 0x75010, size: 0x8, addend: 0x0, symName: __RNvXs2_NtNtCsHUR1vrdMJt_3std4hash6randomNtB5_13DefaultHasherNtNtCsieiGu2EXtoJ_4core4hash6Hasher5writeCs71axb73f1AC_14thiserror_impl, symObjAddr: 0x1C90, symBinAddr: 0x2FC20, symSize: 0x30 }
  - { offset: 0x7506B, size: 0x8, addend: 0x0, symName: __RNvXs2_NtNtCsHUR1vrdMJt_3std4hash6randomNtB5_13DefaultHasherNtNtCsieiGu2EXtoJ_4core4hash6Hasher6finishCs71axb73f1AC_14thiserror_impl, symObjAddr: 0x1CC0, symBinAddr: 0x2FC50, symSize: 0x20 }
  - { offset: 0x750B4, size: 0x8, addend: 0x0, symName: __RNvXs2_NtNtCsHUR1vrdMJt_3std4hash6randomNtB5_13DefaultHasherNtNtCsieiGu2EXtoJ_4core4hash6Hasher9write_strCs71axb73f1AC_14thiserror_impl, symObjAddr: 0x1CE0, symBinAddr: 0x2FC70, symSize: 0x30 }
  - { offset: 0x75115, size: 0x8, addend: 0x0, symName: __RNvXs_NtNtCsHUR1vrdMJt_3std4hash6randomNtB4_11RandomStateNtNtCsieiGu2EXtoJ_4core4hash11BuildHasher12build_hasherCs71axb73f1AC_14thiserror_impl, symObjAddr: 0x2A30, symBinAddr: 0x30910, symSize: 0xF0 }
  - { offset: 0x752BC, size: 0x8, addend: 0x0, symName: __RNvMNtNtNtCsjK30CmJ87bX_9hashbrown7control5group4sse2NtB2_5Group44convert_special_to_empty_and_full_to_deletedCs71axb73f1AC_14thiserror_impl, symObjAddr: 0x2C0, symBinAddr: 0x2E250, symSize: 0xD0 }
  - { offset: 0x754D3, size: 0x8, addend: 0x0, symName: __RNvMs6_NtNtNtCsieiGu2EXtoJ_4core5array4iter10iter_innerINtB5_15PolymorphicIterSINtNtNtBb_3mem12maybe_uninit11MaybeUninitjEE4nextCs71axb73f1AC_14thiserror_impl, symObjAddr: 0x390, symBinAddr: 0x2E320, symSize: 0x1D0 }
  - { offset: 0x75CC2, size: 0x8, addend: 0x0, symName: __RNvMs_NtCslJiobkLta79_5alloc5boxedINtB4_3BoxINtNtNtNtB6_11collections5btree4node12InternalNodeNtCsaKzlTDPUHDb_11proc_macro25IdentNtNtBL_7set_val9SetValZSTEE13new_uninit_inCs71axb73f1AC_14thiserror_impl, symObjAddr: 0x560, symBinAddr: 0x2E4F0, symSize: 0x80 }
  - { offset: 0x75DBA, size: 0x8, addend: 0x0, symName: __RNvMs_NtCslJiobkLta79_5alloc5boxedINtB4_3BoxINtNtNtNtB6_11collections5btree4node12InternalNodeNtCsaKzlTDPUHDb_11proc_macro25IdentNtNtBL_7set_val9SetValZSTEE17try_new_uninit_inCs71axb73f1AC_14thiserror_impl, symObjAddr: 0x5E0, symBinAddr: 0x2E570, symSize: 0x140 }
  - { offset: 0x75FF8, size: 0x8, addend: 0x0, symName: __RNvMs_NtCslJiobkLta79_5alloc5boxedINtB4_3BoxINtNtNtNtB6_11collections5btree4node12InternalNodeNtNtB6_6string6StringNtNtBL_7set_val9SetValZSTEE13new_uninit_inCs71axb73f1AC_14thiserror_impl, symObjAddr: 0x720, symBinAddr: 0x2E6B0, symSize: 0x80 }
  - { offset: 0x760F0, size: 0x8, addend: 0x0, symName: __RNvMs_NtCslJiobkLta79_5alloc5boxedINtB4_3BoxINtNtNtNtB6_11collections5btree4node12InternalNodeNtNtB6_6string6StringNtNtBL_7set_val9SetValZSTEE17try_new_uninit_inCs71axb73f1AC_14thiserror_impl, symObjAddr: 0x7A0, symBinAddr: 0x2E730, symSize: 0x140 }
  - { offset: 0x7632E, size: 0x8, addend: 0x0, symName: __RNvMs_NtCslJiobkLta79_5alloc5boxedINtB4_3BoxINtNtNtNtB6_11collections5btree4node12InternalNodeNtNtB6_6string6StringTINtNtBL_3set8BTreeSetB1u_EINtNtCsdGrGZaRBwMb_3syn10punctuated10PunctuatedNtCsaKzlTDPUHDb_11proc_macro211TokenStreamNtNtB2l_5token4PlusEEEE13new_uninit_inCs71axb73f1AC_14thiserror_impl, symObjAddr: 0x8E0, symBinAddr: 0x2E870, symSize: 0x80 }
  - { offset: 0x76426, size: 0x8, addend: 0x0, symName: __RNvMs_NtCslJiobkLta79_5alloc5boxedINtB4_3BoxINtNtNtNtB6_11collections5btree4node12InternalNodeNtNtB6_6string6StringTINtNtBL_3set8BTreeSetB1u_EINtNtCsdGrGZaRBwMb_3syn10punctuated10PunctuatedNtCsaKzlTDPUHDb_11proc_macro211TokenStreamNtNtB2l_5token4PlusEEEE17try_new_uninit_inCs71axb73f1AC_14thiserror_impl, symObjAddr: 0x960, symBinAddr: 0x2E8F0, symSize: 0x140 }
  - { offset: 0x76664, size: 0x8, addend: 0x0, symName: __RNvMs_NtCslJiobkLta79_5alloc5boxedINtB4_3BoxINtNtNtNtB6_11collections5btree4node12InternalNodeRNtCsaKzlTDPUHDb_11proc_macro25IdentNtNtBL_7set_val9SetValZSTEE13new_uninit_inCs71axb73f1AC_14thiserror_impl, symObjAddr: 0xAA0, symBinAddr: 0x2EA30, symSize: 0x80 }
  - { offset: 0x7675C, size: 0x8, addend: 0x0, symName: __RNvMs_NtCslJiobkLta79_5alloc5boxedINtB4_3BoxINtNtNtNtB6_11collections5btree4node12InternalNodeRNtCsaKzlTDPUHDb_11proc_macro25IdentNtNtBL_7set_val9SetValZSTEE17try_new_uninit_inCs71axb73f1AC_14thiserror_impl, symObjAddr: 0xB20, symBinAddr: 0x2EAB0, symSize: 0x140 }
  - { offset: 0x7699A, size: 0x8, addend: 0x0, symName: __RNvMs_NtCslJiobkLta79_5alloc5boxedINtB4_3BoxINtNtNtNtB6_11collections5btree4node12InternalNodeTjNtNtCs71axb73f1AC_14thiserror_impl4attr5TraitENtNtBL_7set_val9SetValZSTEE13new_uninit_inB1A_, symObjAddr: 0xC60, symBinAddr: 0x2EBF0, symSize: 0x80 }
  - { offset: 0x76A92, size: 0x8, addend: 0x0, symName: __RNvMs_NtCslJiobkLta79_5alloc5boxedINtB4_3BoxINtNtNtNtB6_11collections5btree4node12InternalNodeTjNtNtCs71axb73f1AC_14thiserror_impl4attr5TraitENtNtBL_7set_val9SetValZSTEE17try_new_uninit_inB1A_, symObjAddr: 0xCE0, symBinAddr: 0x2EC70, symSize: 0x140 }
  - { offset: 0x76CD0, size: 0x8, addend: 0x0, symName: __RNvMs_NtCslJiobkLta79_5alloc5boxedINtB4_3BoxINtNtNtNtB6_11collections5btree4node8LeafNodeNtCsaKzlTDPUHDb_11proc_macro25IdentNtNtBL_7set_val9SetValZSTEE13new_uninit_inCs71axb73f1AC_14thiserror_impl, symObjAddr: 0xE20, symBinAddr: 0x2EDB0, symSize: 0x80 }
  - { offset: 0x76DC8, size: 0x8, addend: 0x0, symName: __RNvMs_NtCslJiobkLta79_5alloc5boxedINtB4_3BoxINtNtNtNtB6_11collections5btree4node8LeafNodeNtCsaKzlTDPUHDb_11proc_macro25IdentNtNtBL_7set_val9SetValZSTEE17try_new_uninit_inCs71axb73f1AC_14thiserror_impl, symObjAddr: 0xEA0, symBinAddr: 0x2EE30, symSize: 0x140 }
  - { offset: 0x77006, size: 0x8, addend: 0x0, symName: __RNvMs_NtCslJiobkLta79_5alloc5boxedINtB4_3BoxINtNtNtNtB6_11collections5btree4node8LeafNodeNtNtB6_6string6StringNtNtBL_7set_val9SetValZSTEE13new_uninit_inCs71axb73f1AC_14thiserror_impl, symObjAddr: 0xFE0, symBinAddr: 0x2EF70, symSize: 0x80 }
  - { offset: 0x770FE, size: 0x8, addend: 0x0, symName: __RNvMs_NtCslJiobkLta79_5alloc5boxedINtB4_3BoxINtNtNtNtB6_11collections5btree4node8LeafNodeNtNtB6_6string6StringNtNtBL_7set_val9SetValZSTEE17try_new_uninit_inCs71axb73f1AC_14thiserror_impl, symObjAddr: 0x1060, symBinAddr: 0x2EFF0, symSize: 0x140 }
  - { offset: 0x7733C, size: 0x8, addend: 0x0, symName: __RNvMs_NtCslJiobkLta79_5alloc5boxedINtB4_3BoxINtNtNtNtB6_11collections5btree4node8LeafNodeNtNtB6_6string6StringTINtNtBL_3set8BTreeSetB1p_EINtNtCsdGrGZaRBwMb_3syn10punctuated10PunctuatedNtCsaKzlTDPUHDb_11proc_macro211TokenStreamNtNtB2g_5token4PlusEEEE13new_uninit_inCs71axb73f1AC_14thiserror_impl, symObjAddr: 0x11A0, symBinAddr: 0x2F130, symSize: 0x80 }
  - { offset: 0x77434, size: 0x8, addend: 0x0, symName: __RNvMs_NtCslJiobkLta79_5alloc5boxedINtB4_3BoxINtNtNtNtB6_11collections5btree4node8LeafNodeNtNtB6_6string6StringTINtNtBL_3set8BTreeSetB1p_EINtNtCsdGrGZaRBwMb_3syn10punctuated10PunctuatedNtCsaKzlTDPUHDb_11proc_macro211TokenStreamNtNtB2g_5token4PlusEEEE17try_new_uninit_inCs71axb73f1AC_14thiserror_impl, symObjAddr: 0x1220, symBinAddr: 0x2F1B0, symSize: 0x140 }
  - { offset: 0x77672, size: 0x8, addend: 0x0, symName: __RNvMs_NtCslJiobkLta79_5alloc5boxedINtB4_3BoxINtNtNtNtB6_11collections5btree4node8LeafNodeRNtCsaKzlTDPUHDb_11proc_macro25IdentNtNtBL_7set_val9SetValZSTEE13new_uninit_inCs71axb73f1AC_14thiserror_impl, symObjAddr: 0x1360, symBinAddr: 0x2F2F0, symSize: 0x80 }
  - { offset: 0x7776A, size: 0x8, addend: 0x0, symName: __RNvMs_NtCslJiobkLta79_5alloc5boxedINtB4_3BoxINtNtNtNtB6_11collections5btree4node8LeafNodeRNtCsaKzlTDPUHDb_11proc_macro25IdentNtNtBL_7set_val9SetValZSTEE17try_new_uninit_inCs71axb73f1AC_14thiserror_impl, symObjAddr: 0x13E0, symBinAddr: 0x2F370, symSize: 0x140 }
  - { offset: 0x779A8, size: 0x8, addend: 0x0, symName: __RNvMs_NtCslJiobkLta79_5alloc5boxedINtB4_3BoxINtNtNtNtB6_11collections5btree4node8LeafNodeTjNtNtCs71axb73f1AC_14thiserror_impl4attr5TraitENtNtBL_7set_val9SetValZSTEE13new_uninit_inB1v_, symObjAddr: 0x1520, symBinAddr: 0x2F4B0, symSize: 0x80 }
  - { offset: 0x77AA0, size: 0x8, addend: 0x0, symName: __RNvMs_NtCslJiobkLta79_5alloc5boxedINtB4_3BoxINtNtNtNtB6_11collections5btree4node8LeafNodeTjNtNtCs71axb73f1AC_14thiserror_impl4attr5TraitENtNtBL_7set_val9SetValZSTEE17try_new_uninit_inB1v_, symObjAddr: 0x15A0, symBinAddr: 0x2F530, symSize: 0x140 }
  - { offset: 0x77F42, size: 0x8, addend: 0x0, symName: __RNvXs6_NtCslJiobkLta79_5alloc5boxedINtB5_3BoxDNtNtCsieiGu2EXtoJ_4core5error5ErrorNtNtBM_6marker4SyncNtB1j_4SendEL_ENtNtNtBM_3ops4drop4Drop4dropCs71axb73f1AC_14thiserror_impl, symObjAddr: 0x1D10, symBinAddr: 0x2FCA0, symSize: 0xC0 }
  - { offset: 0x7807F, size: 0x8, addend: 0x0, symName: __RNvXs6_NtCslJiobkLta79_5alloc5boxedINtB5_3BoxINtNtCsdGrGZaRBwMb_3syn5drops6NoDropDINtNtBM_10punctuated9IterTraitNtNtBM_4data5FieldEp4ItemRB1M_EL_EENtNtNtCsieiGu2EXtoJ_4core3ops4drop4Drop4dropCs71axb73f1AC_14thiserror_impl, symObjAddr: 0x1DD0, symBinAddr: 0x2FD60, symSize: 0x120 }
  - { offset: 0x781BC, size: 0x8, addend: 0x0, symName: __RNvXs6_NtCslJiobkLta79_5alloc5boxedINtB5_3BoxINtNtCsdGrGZaRBwMb_3syn5drops6NoDropDINtNtBM_10punctuated9IterTraitNtNtBM_4data7VariantEp4ItemRB1M_EL_EENtNtNtCsieiGu2EXtoJ_4core3ops4drop4Drop4dropCs71axb73f1AC_14thiserror_impl, symObjAddr: 0x1EF0, symBinAddr: 0x2FE80, symSize: 0x120 }
  - { offset: 0x782F9, size: 0x8, addend: 0x0, symName: __RNvXs6_NtCslJiobkLta79_5alloc5boxedINtB5_3BoxINtNtCsdGrGZaRBwMb_3syn5drops6NoDropDINtNtBM_10punctuated9IterTraitNtNtBM_4path15GenericArgumentEp4ItemRB1M_EL_EENtNtNtCsieiGu2EXtoJ_4core3ops4drop4Drop4dropCs71axb73f1AC_14thiserror_impl, symObjAddr: 0x2010, symBinAddr: 0x2FFA0, symSize: 0x120 }
  - { offset: 0x78436, size: 0x8, addend: 0x0, symName: __RNvXs6_NtCslJiobkLta79_5alloc5boxedINtB5_3BoxINtNtCsdGrGZaRBwMb_3syn5drops6NoDropDINtNtBM_10punctuated9IterTraitNtNtBM_8generics12GenericParamEp4ItemRB1M_EL_EENtNtNtCsieiGu2EXtoJ_4core3ops4drop4Drop4dropCs71axb73f1AC_14thiserror_impl, symObjAddr: 0x2130, symBinAddr: 0x300C0, symSize: 0x120 }
  - { offset: 0x78573, size: 0x8, addend: 0x0, symName: __RNvXs6_NtCslJiobkLta79_5alloc5boxedINtB5_3BoxINtNtNtNtB7_11collections5btree4node12InternalNodeNtCsaKzlTDPUHDb_11proc_macro25IdentNtNtBM_7set_val9SetValZSTEENtNtNtCsieiGu2EXtoJ_4core3ops4drop4Drop4dropCs71axb73f1AC_14thiserror_impl, symObjAddr: 0x2250, symBinAddr: 0x301E0, symSize: 0xB0 }
  - { offset: 0x786AE, size: 0x8, addend: 0x0, symName: __RNvXs6_NtCslJiobkLta79_5alloc5boxedINtB5_3BoxINtNtNtNtB7_11collections5btree4node12InternalNodeNtNtB7_6string6StringNtNtBM_7set_val9SetValZSTEENtNtNtCsieiGu2EXtoJ_4core3ops4drop4Drop4dropCs71axb73f1AC_14thiserror_impl, symObjAddr: 0x2300, symBinAddr: 0x30290, symSize: 0xB0 }
  - { offset: 0x787E9, size: 0x8, addend: 0x0, symName: __RNvXs6_NtCslJiobkLta79_5alloc5boxedINtB5_3BoxINtNtNtNtB7_11collections5btree4node12InternalNodeNtNtB7_6string6StringTINtNtBM_3set8BTreeSetB1v_EINtNtCsdGrGZaRBwMb_3syn10punctuated10PunctuatedNtCsaKzlTDPUHDb_11proc_macro211TokenStreamNtNtB2m_5token4PlusEEEENtNtNtCsieiGu2EXtoJ_4core3ops4drop4Drop4dropCs71axb73f1AC_14thiserror_impl, symObjAddr: 0x23B0, symBinAddr: 0x30340, symSize: 0xB0 }
  - { offset: 0x78924, size: 0x8, addend: 0x0, symName: __RNvXs6_NtCslJiobkLta79_5alloc5boxedINtB5_3BoxINtNtNtNtB7_11collections5btree4node12InternalNodeTjNtNtCs71axb73f1AC_14thiserror_impl4attr5TraitENtNtBM_7set_val9SetValZSTEENtNtNtCsieiGu2EXtoJ_4core3ops4drop4Drop4dropB1B_, symObjAddr: 0x2510, symBinAddr: 0x303F0, symSize: 0xB0 }
  - { offset: 0x78A5F, size: 0x8, addend: 0x0, symName: __RNvXs6_NtCslJiobkLta79_5alloc5boxedINtB5_3BoxINtNtNtNtB7_11collections5btree4node8LeafNodeNtCsaKzlTDPUHDb_11proc_macro25IdentNtNtBM_7set_val9SetValZSTEENtNtNtCsieiGu2EXtoJ_4core3ops4drop4Drop4dropCs71axb73f1AC_14thiserror_impl, symObjAddr: 0x25C0, symBinAddr: 0x304A0, symSize: 0xB0 }
  - { offset: 0x78B9A, size: 0x8, addend: 0x0, symName: __RNvXs6_NtCslJiobkLta79_5alloc5boxedINtB5_3BoxINtNtNtNtB7_11collections5btree4node8LeafNodeNtNtB7_6string6StringNtNtBM_7set_val9SetValZSTEENtNtNtCsieiGu2EXtoJ_4core3ops4drop4Drop4dropCs71axb73f1AC_14thiserror_impl, symObjAddr: 0x2670, symBinAddr: 0x30550, symSize: 0xB0 }
  - { offset: 0x78CD5, size: 0x8, addend: 0x0, symName: __RNvXs6_NtCslJiobkLta79_5alloc5boxedINtB5_3BoxINtNtNtNtB7_11collections5btree4node8LeafNodeNtNtB7_6string6StringTINtNtBM_3set8BTreeSetB1q_EINtNtCsdGrGZaRBwMb_3syn10punctuated10PunctuatedNtCsaKzlTDPUHDb_11proc_macro211TokenStreamNtNtB2h_5token4PlusEEEENtNtNtCsieiGu2EXtoJ_4core3ops4drop4Drop4dropCs71axb73f1AC_14thiserror_impl, symObjAddr: 0x2720, symBinAddr: 0x30600, symSize: 0xB0 }
  - { offset: 0x78E10, size: 0x8, addend: 0x0, symName: __RNvXs6_NtCslJiobkLta79_5alloc5boxedINtB5_3BoxINtNtNtNtB7_11collections5btree4node8LeafNodeTjNtNtCs71axb73f1AC_14thiserror_impl4attr5TraitENtNtBM_7set_val9SetValZSTEENtNtNtCsieiGu2EXtoJ_4core3ops4drop4Drop4dropB1w_, symObjAddr: 0x27D0, symBinAddr: 0x306B0, symSize: 0xB0 }
  - { offset: 0x78F4B, size: 0x8, addend: 0x0, symName: __RNvXs6_NtCslJiobkLta79_5alloc5boxedINtB5_3BoxNtCsaKzlTDPUHDb_11proc_macro211TokenStreamENtNtNtCsieiGu2EXtoJ_4core3ops4drop4Drop4dropCs71axb73f1AC_14thiserror_impl, symObjAddr: 0x2880, symBinAddr: 0x30760, symSize: 0xB0 }
  - { offset: 0x79086, size: 0x8, addend: 0x0, symName: __RNvXs6_NtCslJiobkLta79_5alloc5boxedINtB5_3BoxNtNtNtCsHUR1vrdMJt_3std2io5error6CustomENtNtNtCsieiGu2EXtoJ_4core3ops4drop4Drop4dropCs71axb73f1AC_14thiserror_impl, symObjAddr: 0x2930, symBinAddr: 0x30810, symSize: 0xB0 }
  - { offset: 0x791C7, size: 0x8, addend: 0x0, symName: __RNvXsC_NtCslJiobkLta79_5alloc5boxedINtB5_3BoxNtCsaKzlTDPUHDb_11proc_macro211TokenStreamEINtNtCsieiGu2EXtoJ_4core7convert5AsRefBH_E6as_refCs71axb73f1AC_14thiserror_impl, symObjAddr: 0x29E0, symBinAddr: 0x308C0, symSize: 0x10 }
  - { offset: 0x808E0, size: 0x8, addend: 0x0, symName: __RNvYRNtNtCsdGrGZaRBwMb_3syn4data5FieldNtNtCs9OU1sGv5X54_5quote9to_tokens8ToTokens15to_token_streamCs71axb73f1AC_14thiserror_impl, symObjAddr: 0x2B50, symBinAddr: 0x30A30, symSize: 0x90 }
  - { offset: 0x8092A, size: 0x8, addend: 0x0, symName: __RNvYRNtNtCsdGrGZaRBwMb_3syn4data5FieldNtNtCs9OU1sGv5X54_5quote9to_tokens8ToTokens17into_token_streamCs71axb73f1AC_14thiserror_impl, symObjAddr: 0x2BE0, symBinAddr: 0x30AC0, symSize: 0x50 }
  - { offset: 0x8095F, size: 0x8, addend: 0x0, symName: __RNvYRNtNtCsdGrGZaRBwMb_3syn4data7VariantNtNtCs9OU1sGv5X54_5quote9to_tokens8ToTokens15to_token_streamCs71axb73f1AC_14thiserror_impl, symObjAddr: 0x2C30, symBinAddr: 0x30B10, symSize: 0x90 }
  - { offset: 0x809A9, size: 0x8, addend: 0x0, symName: __RNvYRNtNtCsdGrGZaRBwMb_3syn4data7VariantNtNtCs9OU1sGv5X54_5quote9to_tokens8ToTokens17into_token_streamCs71axb73f1AC_14thiserror_impl, symObjAddr: 0x2CC0, symBinAddr: 0x30BA0, symSize: 0x50 }
  - { offset: 0x80D6D, size: 0x8, addend: 0x0, symName: __RINvCsdGrGZaRBwMb_3syn5parseNtNtB2_6derive11DeriveInputECs71axb73f1AC_14thiserror_impl, symObjAddr: 0x0, symBinAddr: 0x30BF0, symSize: 0x30 }
  - { offset: 0x810AD, size: 0x8, addend: 0x0, symName: __RINvNvNtNtCscKtU6MdFI5n_10proc_macro6bridge14selfless_reify31reify_to_extern_c_fn_hrt_bridge7wrapperNtNtB6_6buffer6BufferNCINvMs6_NtB6_6clientINtB24_6ClientNtB8_11TokenStreamB2u_E7expand1NvCs71axb73f1AC_14thiserror_impl12derive_errorE0EB31_, symObjAddr: 0x1580, symBinAddr: 0x32170, symSize: 0xA0 }
  - { offset: 0x81BA2, size: 0x8, addend: 0x0, symName: __RNCNvXs1_NtNtNtCsHUR1vrdMJt_3std2io5error14repr_bitpackedNtB7_4ReprNtNtNtCsieiGu2EXtoJ_4core3ops4drop4Drop4drop0Cs71axb73f1AC_14thiserror_impl, symObjAddr: 0x1BA0, symBinAddr: 0x32790, symSize: 0x30 }
  - { offset: 0x81C57, size: 0x8, addend: 0x0, symName: __RNvXs1_NtNtNtCsHUR1vrdMJt_3std2io5error14repr_bitpackedNtB5_4ReprNtNtNtCsieiGu2EXtoJ_4core3ops4drop4Drop4dropCs71axb73f1AC_14thiserror_impl, symObjAddr: 0x4810, symBinAddr: 0x35400, symSize: 0x30 }
  - { offset: 0x81C80, size: 0x8, addend: 0x0, symName: __RINvNtNtNtCsHUR1vrdMJt_3std2io5error14repr_bitpacked11decode_reprINtNtCslJiobkLta79_5alloc5boxed3BoxNtB4_6CustomENCNvXs1_B2_NtB2_4ReprNtNtNtCsieiGu2EXtoJ_4core3ops4drop4Drop4drop0ECs71axb73f1AC_14thiserror_impl, symObjAddr: 0x5B0, symBinAddr: 0x311A0, symSize: 0x200 }
  - { offset: 0x81EE1, size: 0x8, addend: 0x0, symName: __RNvNtNtNtCsHUR1vrdMJt_3std2io5error14repr_bitpacked14kind_from_primCs71axb73f1AC_14thiserror_impl, symObjAddr: 0x4260, symBinAddr: 0x34E50, symSize: 0x5B0 }
  - { offset: 0x8292E, size: 0x8, addend: 0x0, symName: __RNCNvMs0_NtCs71axb73f1AC_14thiserror_impl3astNtB7_4Enum8from_syn0B9_, symObjAddr: 0x1860, symBinAddr: 0x32450, symSize: 0x2B0 }
  - { offset: 0x82A2C, size: 0x8, addend: 0x0, symName: __RNCNvMs2_NtCs71axb73f1AC_14thiserror_impl3astNtB7_5Field17multiple_from_syn0B9_, symObjAddr: 0x1B10, symBinAddr: 0x32700, symSize: 0x60 }
  - { offset: 0x82AA2, size: 0x8, addend: 0x0, symName: __RNCNvMs2_NtCs71axb73f1AC_14thiserror_impl3astNtB7_5Field8from_syn0B9_, symObjAddr: 0x1B70, symBinAddr: 0x32760, symSize: 0x30 }
  - { offset: 0x82AEE, size: 0x8, addend: 0x0, symName: __RNcNtNtNtCs71axb73f1AC_14thiserror_impl3ast5Input4Enum0B7_, symObjAddr: 0x1C10, symBinAddr: 0x32800, symSize: 0x40 }
  - { offset: 0x82B1D, size: 0x8, addend: 0x0, symName: __RNcNtNtNtCs71axb73f1AC_14thiserror_impl3ast5Input6Struct0B7_, symObjAddr: 0x1C50, symBinAddr: 0x32840, symSize: 0x40 }
  - { offset: 0x82EDB, size: 0x8, addend: 0x0, symName: __RINvCsdGrGZaRBwMb_3syn5parseNtNtB2_6derive11DeriveInputECs71axb73f1AC_14thiserror_impl, symObjAddr: 0x0, symBinAddr: 0x30BF0, symSize: 0x30 }
  - { offset: 0x82F12, size: 0x8, addend: 0x0, symName: __RINvCsdGrGZaRBwMb_3syn6parse2NtNtB2_4expr4ExprECs71axb73f1AC_14thiserror_impl, symObjAddr: 0x30, symBinAddr: 0x30C20, symSize: 0x30 }
  - { offset: 0x8CD85, size: 0x8, addend: 0x0, symName: __RNvMNtCsieiGu2EXtoJ_4core5sliceSNtNtCs71axb73f1AC_14thiserror_impl3ast5Field4iterBy_, symObjAddr: 0x1F50, symBinAddr: 0x32B40, symSize: 0x20 }
  - { offset: 0x8CDBC, size: 0x8, addend: 0x0, symName: __RNvMNtCsieiGu2EXtoJ_4core5sliceSNtNtCs71axb73f1AC_14thiserror_impl3ast7Variant4iterBy_, symObjAddr: 0x1F70, symBinAddr: 0x32B60, symSize: 0x20 }
  - { offset: 0x8CF00, size: 0x8, addend: 0x0, symName: __RINvNtNtNtNtCsieiGu2EXtoJ_4core5slice4sort6stable5drift10create_runRNtCsaKzlTDPUHDb_11proc_macro25IdentNvYB13_NtNtBa_3cmp10PartialOrd2ltECs71axb73f1AC_14thiserror_impl, symObjAddr: 0x7B0, symBinAddr: 0x313A0, symSize: 0x570 }
  - { offset: 0x8D40E, size: 0x8, addend: 0x0, symName: __RINvNtNtNtNtCsieiGu2EXtoJ_4core5slice4sort6stable5drift16stable_quicksortRNtCsaKzlTDPUHDb_11proc_macro25IdentNvYB19_NtNtBa_3cmp10PartialOrd2ltECs71axb73f1AC_14thiserror_impl, symObjAddr: 0xD20, symBinAddr: 0x31910, symSize: 0xC0 }
  - { offset: 0x8D634, size: 0x8, addend: 0x0, symName: __RINvNtNtNtNtCsieiGu2EXtoJ_4core5slice4sort6stable5drift4sortRNtCsaKzlTDPUHDb_11proc_macro25IdentNvYBW_NtNtBa_3cmp10PartialOrd2ltECs71axb73f1AC_14thiserror_impl, symObjAddr: 0xDE0, symBinAddr: 0x319D0, symSize: 0x7A0 }
  - { offset: 0x8DDF9, size: 0x8, addend: 0x0, symName: __RNvXs_NtNtCsieiGu2EXtoJ_4core5slice4iterRSNtNtCs71axb73f1AC_14thiserror_impl3ast5FieldNtNtNtNtB8_4iter6traits7collect12IntoIterator9into_iterBI_, symObjAddr: 0x4840, symBinAddr: 0x35430, symSize: 0x50 }
  - { offset: 0x8E5A1, size: 0x8, addend: 0x0, symName: __RNCINvNvNtNtNtNtCsieiGu2EXtoJ_4core4iter6traits8iterator8Iterator12try_for_each4callNtNtCs71axb73f1AC_14thiserror_impl3ast5FieldINtNtNtBe_3ops12control_flow11ControlFlowB1k_ENcNtB22_5Break0E0B1o_, symObjAddr: 0x1690, symBinAddr: 0x32280, symSize: 0x70 }
  - { offset: 0x8E607, size: 0x8, addend: 0x0, symName: __RNCINvNvNtNtNtNtCsieiGu2EXtoJ_4core4iter6traits8iterator8Iterator12try_for_each4callNtNtCs71axb73f1AC_14thiserror_impl3ast7VariantINtNtNtBe_3ops12control_flow11ControlFlowB1k_ENcNtB24_5Break0E0B1o_, symObjAddr: 0x1700, symBinAddr: 0x322F0, symSize: 0x70 }
  - { offset: 0x8E679, size: 0x8, addend: 0x0, symName: __RNCINvNvNtNtNtNtCsieiGu2EXtoJ_4core4iter6traits8iterator8Iterator8for_each4callNtCsaKzlTDPUHDb_11proc_macro211TokenStreamNCINvMsi_NtCslJiobkLta79_5alloc3vecINtB24_3VecB1f_E14extend_trustedINtNtNtBc_8adapters3map3MapINtNtNtBe_5slice4iter4IterNtNtCs71axb73f1AC_14thiserror_impl3ast7VariantENCNvNtB3V_6expand9impl_enums1_0EE0E0B3V_, symObjAddr: 0x1770, symBinAddr: 0x32360, symSize: 0x40 }
  - { offset: 0x8E6D2, size: 0x8, addend: 0x0, symName: __RNCINvNvNtNtNtNtCsieiGu2EXtoJ_4core4iter6traits8iterator8Iterator8for_each4callNtCsaKzlTDPUHDb_11proc_macro29TokenTreeNCINvXsa_NtB1h_8fallbackNtB21_11TokenStreamINtNtBa_7collect6ExtendB1f_E6extendINtNtNtCslJiobkLta79_5alloc3vec9into_iter8IntoIterB1f_EE0E0Cs71axb73f1AC_14thiserror_impl, symObjAddr: 0x17B0, symBinAddr: 0x323A0, symSize: 0x40 }
  - { offset: 0x8E72B, size: 0x8, addend: 0x0, symName: __RNCINvNvNtNtNtNtCsieiGu2EXtoJ_4core4iter6traits8iterator8Iterator8for_each4callNtCsaKzlTDPUHDb_11proc_macro29TokenTreeNCINvXsa_NtB1h_8fallbackNtB21_11TokenStreamINtNtBa_7collect6ExtendB1f_E6extendNtB1h_11TokenStreamE0E0Cs71axb73f1AC_14thiserror_impl, symObjAddr: 0x17F0, symBinAddr: 0x323E0, symSize: 0x40 }
  - { offset: 0x8E784, size: 0x8, addend: 0x0, symName: __RNCINvNvNtNtNtNtCsieiGu2EXtoJ_4core4iter6traits8iterator8Iterator8for_each4callNtCscKtU6MdFI5n_10proc_macro9TokenTreeNCINvXsg_B1h_NtB1h_11TokenStreamINtNtBa_7collect12FromIteratorB1f_E9from_iterINtNtNtBc_8adapters3map3MapINtNtNtCslJiobkLta79_5alloc3vec9into_iter8IntoIterNtCsaKzlTDPUHDb_11proc_macro29TokenTreeENvNtB4n_3imp19into_compiler_tokenEE0E0Cs71axb73f1AC_14thiserror_impl, symObjAddr: 0x1830, symBinAddr: 0x32420, symSize: 0x30 }
  - { offset: 0x8E7EE, size: 0x8, addend: 0x0, symName: __RNCNvXs_NvNtNtNtNtCsieiGu2EXtoJ_4core4iter6traits8iterator8Iterator10advance_byINtNtCsdGrGZaRBwMb_3syn10punctuated11PrivateIterNtNtB1k_4data7VariantNtNtB1k_5token5CommaENtB6_13SpecAdvanceBy15spec_advance_by0Cs71axb73f1AC_14thiserror_impl, symObjAddr: 0x1BD0, symBinAddr: 0x327C0, symSize: 0x20 }
  - { offset: 0x8E83B, size: 0x8, addend: 0x0, symName: __RNCNvXs_NvNtNtNtNtCsieiGu2EXtoJ_4core4iter6traits8iterator8Iterator10advance_byINtNtCsdGrGZaRBwMb_3syn10punctuated11PrivateIterNtNtB1k_4path15GenericArgumentNtNtB1k_5token5CommaENtB6_13SpecAdvanceBy15spec_advance_by0Cs71axb73f1AC_14thiserror_impl, symObjAddr: 0x1BF0, symBinAddr: 0x327E0, symSize: 0x20 }
  - { offset: 0x8EE20, size: 0x8, addend: 0x0, symName: __RINvMNtCsdGrGZaRBwMb_3syn5errorNtB3_5Error11new_spannedINtNtCsieiGu2EXtoJ_4core6option6OptionRNtNtB5_4attr9AttributeEReECs71axb73f1AC_14thiserror_impl, symObjAddr: 0x60, symBinAddr: 0x30C50, symSize: 0xB0 }
  - { offset: 0x8EE63, size: 0x8, addend: 0x0, symName: __RINvMNtCsdGrGZaRBwMb_3syn5errorNtB3_5Error11new_spannedRNtNtB5_4attr9AttributeReECs71axb73f1AC_14thiserror_impl, symObjAddr: 0x110, symBinAddr: 0x30D00, symSize: 0xB0 }
  - { offset: 0x8EEB3, size: 0x8, addend: 0x0, symName: __RINvMNtCsdGrGZaRBwMb_3syn5errorNtB3_5Error11new_spannedRNtNtB5_4data5FieldReECs71axb73f1AC_14thiserror_impl, symObjAddr: 0x1C0, symBinAddr: 0x30DB0, symSize: 0xB0 }
  - { offset: 0x8EF03, size: 0x8, addend: 0x0, symName: __RINvMNtCsdGrGZaRBwMb_3syn5errorNtB3_5Error11new_spannedRNtNtB5_4data7VariantReECs71axb73f1AC_14thiserror_impl, symObjAddr: 0x270, symBinAddr: 0x30E60, symSize: 0xB0 }
  - { offset: 0x8EF53, size: 0x8, addend: 0x0, symName: __RINvMNtCsdGrGZaRBwMb_3syn5errorNtB3_5Error11new_spannedRNtNtB5_6derive11DeriveInputReECs71axb73f1AC_14thiserror_impl, symObjAddr: 0x320, symBinAddr: 0x30F10, symSize: 0xB0 }
  - { offset: 0x8EFA3, size: 0x8, addend: 0x0, symName: __RINvMNtCsdGrGZaRBwMb_3syn5errorNtB3_5Error11new_spannedRRNtNtB5_4attr9AttributeReECs71axb73f1AC_14thiserror_impl, symObjAddr: 0x3D0, symBinAddr: 0x30FC0, symSize: 0xB0 }
  - { offset: 0x8F189, size: 0x8, addend: 0x0, symName: __RNCINvNtCsjK30CmJ87bX_9hashbrown3map14equivalent_keyNtNtCsdGrGZaRBwMb_3syn4expr6MemberRBO_jE0Cs71axb73f1AC_14thiserror_impl, symObjAddr: 0x1650, symBinAddr: 0x32240, symSize: 0x20 }
  - { offset: 0x8F1E0, size: 0x8, addend: 0x0, symName: __RNCINvNtCsjK30CmJ87bX_9hashbrown3map14equivalent_keyRNtNtCsdGrGZaRBwMb_3syn4expr6MemberBO_jE0Cs71axb73f1AC_14thiserror_impl, symObjAddr: 0x1670, symBinAddr: 0x32260, symSize: 0x20 }
  - { offset: 0x8F404, size: 0x8, addend: 0x0, symName: __RNCINvNtCsjK30CmJ87bX_9hashbrown3map11make_hasherRNtNtCsdGrGZaRBwMb_3syn4expr6MemberjNtNtNtCsHUR1vrdMJt_3std4hash6random11RandomStateE0Cs71axb73f1AC_14thiserror_impl, symObjAddr: 0x1620, symBinAddr: 0x32210, symSize: 0x30 }
  - { offset: 0x8F5B3, size: 0x8, addend: 0x0, symName: __RINvMs1_NtCsjK30CmJ87bX_9hashbrown3mapINtB6_7HashMapRNtNtCsdGrGZaRBwMb_3syn4expr6MemberjNtNtNtCsHUR1vrdMJt_3std4hash6random11RandomStateE9get_innerBP_ECs71axb73f1AC_14thiserror_impl, symObjAddr: 0x480, symBinAddr: 0x31070, symSize: 0xF0 }
  - { offset: 0x8F84E, size: 0x8, addend: 0x0, symName: __RINvMs_NtNtCsieiGu2EXtoJ_4core3fmt2rtNtB7_9Arguments6new_v1Kj3_Kj2_ECs71axb73f1AC_14thiserror_impl, symObjAddr: 0x570, symBinAddr: 0x31160, symSize: 0x40 }
  - { offset: 0x8FDD3, size: 0x8, addend: 0x0, symName: __RNvMNtCs71axb73f1AC_14thiserror_impl3astNtB2_5Input8from_syn, symObjAddr: 0x1C90, symBinAddr: 0x32880, symSize: 0x130 }
  - { offset: 0x8FE49, size: 0x8, addend: 0x0, symName: __RNvMNtCs71axb73f1AC_14thiserror_impl4propNtNtB4_3ast6Struct10from_field, symObjAddr: 0x1DC0, symBinAddr: 0x329B0, symSize: 0x30 }
  - { offset: 0x8FE6B, size: 0x8, addend: 0x0, symName: __RNvMNtCs71axb73f1AC_14thiserror_impl4propNtNtB4_3ast6Struct12source_field, symObjAddr: 0x1DF0, symBinAddr: 0x329E0, symSize: 0x30 }
  - { offset: 0x8FE8D, size: 0x8, addend: 0x0, symName: __RNvMNtCs71axb73f1AC_14thiserror_impl4propNtNtB4_3ast6Struct15backtrace_field, symObjAddr: 0x1E20, symBinAddr: 0x32A10, symSize: 0x30 }
  - { offset: 0x8FEAF, size: 0x8, addend: 0x0, symName: __RNvMNtCs71axb73f1AC_14thiserror_impl4propNtNtB4_3ast6Struct24distinct_backtrace_field, symObjAddr: 0x1E50, symBinAddr: 0x32A40, symSize: 0x90 }
  - { offset: 0x8FF18, size: 0x8, addend: 0x0, symName: __RNvMNtCs71axb73f1AC_14thiserror_impl5validNtNtB4_3ast5Input8validate, symObjAddr: 0x1EE0, symBinAddr: 0x32AD0, symSize: 0x70 }
  - { offset: 0x8FF79, size: 0x8, addend: 0x0, symName: __RNvMs0_NtCs71axb73f1AC_14thiserror_impl3astNtB5_4Enum8from_syn, symObjAddr: 0x1F90, symBinAddr: 0x32B80, symSize: 0x480 }
  - { offset: 0x9008E, size: 0x8, addend: 0x0, symName: __RNvMs0_NtCs71axb73f1AC_14thiserror_impl4propNtNtB7_3ast7Variant10from_field, symObjAddr: 0x2410, symBinAddr: 0x33000, symSize: 0x30 }
  - { offset: 0x900B0, size: 0x8, addend: 0x0, symName: __RNvMs0_NtCs71axb73f1AC_14thiserror_impl4propNtNtB7_3ast7Variant12source_field, symObjAddr: 0x2440, symBinAddr: 0x33030, symSize: 0x30 }
  - { offset: 0x900D2, size: 0x8, addend: 0x0, symName: __RNvMs0_NtCs71axb73f1AC_14thiserror_impl4propNtNtB7_3ast7Variant15backtrace_field, symObjAddr: 0x2470, symBinAddr: 0x33060, symSize: 0x30 }
  - { offset: 0x900F4, size: 0x8, addend: 0x0, symName: __RNvMs0_NtCs71axb73f1AC_14thiserror_impl4propNtNtB7_3ast7Variant24distinct_backtrace_field, symObjAddr: 0x24A0, symBinAddr: 0x33090, symSize: 0x90 }
  - { offset: 0x9015D, size: 0x8, addend: 0x0, symName: __RNvMs0_NtCs71axb73f1AC_14thiserror_impl5validNtNtB7_3ast4Enum8validate, symObjAddr: 0x2530, symBinAddr: 0x33120, symSize: 0x520 }
  - { offset: 0x902D3, size: 0x8, addend: 0x0, symName: __RNvMs1_NtCs71axb73f1AC_14thiserror_impl3astNtB5_7Variant8from_syn, symObjAddr: 0x2A50, symBinAddr: 0x33640, symSize: 0x3D0 }
  - { offset: 0x903C1, size: 0x8, addend: 0x0, symName: __RNvMs1_NtCs71axb73f1AC_14thiserror_impl4propNtNtB7_3ast5Field11source_span, symObjAddr: 0x2E20, symBinAddr: 0x33A10, symSize: 0x140 }
  - { offset: 0x9044F, size: 0x8, addend: 0x0, symName: __RNvMs1_NtCs71axb73f1AC_14thiserror_impl4propNtNtB7_3ast5Field12is_backtrace, symObjAddr: 0x2F60, symBinAddr: 0x33B50, symSize: 0x30 }
  - { offset: 0x90471, size: 0x8, addend: 0x0, symName: __RNvMs1_NtCs71axb73f1AC_14thiserror_impl5validNtNtB7_3ast7Variant8validate, symObjAddr: 0x2F90, symBinAddr: 0x33B80, symSize: 0x3A0 }
  - { offset: 0x905FF, size: 0x8, addend: 0x0, symName: __RNvMs1_NtCsjK30CmJ87bX_9hashbrown3mapINtB5_7HashMapRNtNtCsdGrGZaRBwMb_3syn4expr6MemberjNtNtNtCsHUR1vrdMJt_3std4hash6random11RandomStateE6insertCs71axb73f1AC_14thiserror_impl, symObjAddr: 0x3330, symBinAddr: 0x33F20, symSize: 0x1F0 }
  - { offset: 0x90797, size: 0x8, addend: 0x0, symName: __RNvMs2_NtCs71axb73f1AC_14thiserror_impl3astNtB5_5Field17multiple_from_syn, symObjAddr: 0x3520, symBinAddr: 0x34110, symSize: 0x80 }
  - { offset: 0x907D6, size: 0x8, addend: 0x0, symName: __RNvMs2_NtCs71axb73f1AC_14thiserror_impl3astNtB5_5Field8from_syn, symObjAddr: 0x35A0, symBinAddr: 0x34190, symSize: 0x270 }
  - { offset: 0x90860, size: 0x8, addend: 0x0, symName: __RNvMs2_NtCs71axb73f1AC_14thiserror_impl5validNtNtB7_3ast5Field8validate, symObjAddr: 0x3810, symBinAddr: 0x34400, symSize: 0xB0 }
  - { offset: 0x908AC, size: 0x8, addend: 0x0, symName: __RNvMs_NtCs71axb73f1AC_14thiserror_impl3astNtB4_6Struct8from_syn, symObjAddr: 0x38C0, symBinAddr: 0x344B0, symSize: 0x480 }
  - { offset: 0x909C8, size: 0x8, addend: 0x0, symName: __RNvMs_NtCs71axb73f1AC_14thiserror_impl4propNtNtB6_3ast4Enum10has_source, symObjAddr: 0x3D40, symBinAddr: 0x34930, symSize: 0x40 }
  - { offset: 0x909EA, size: 0x8, addend: 0x0, symName: __RNvMs_NtCs71axb73f1AC_14thiserror_impl4propNtNtB6_3ast4Enum11has_display, symObjAddr: 0x3D80, symBinAddr: 0x34970, symSize: 0xD0 }
  - { offset: 0x90A0C, size: 0x8, addend: 0x0, symName: __RNvMs_NtCs71axb73f1AC_14thiserror_impl4propNtNtB6_3ast4Enum13has_backtrace, symObjAddr: 0x3E50, symBinAddr: 0x34A40, symSize: 0x40 }
  - { offset: 0x90A2E, size: 0x8, addend: 0x0, symName: __RNvMs_NtCs71axb73f1AC_14thiserror_impl5validNtNtB6_3ast6Struct8validate, symObjAddr: 0x3E90, symBinAddr: 0x34A80, symSize: 0x3D0 }
  - { offset: 0x90E59, size: 0x8, addend: 0x0, symName: __RINvMNtCsieiGu2EXtoJ_4core6optionINtB3_6OptionIBw_RNtNtCsdGrGZaRBwMb_3syn4expr6MemberEE18get_or_insert_withNCNvMs3_NtNtNtB5_4iter8adapters8peekableINtB1P_8PeekableINtNtB1R_3map3MapINtNtNtB5_5slice4iter4IterNtNtCs71axb73f1AC_14thiserror_impl3ast5FieldENCNvNtB3m_6expand10fields_pat0EE4peek0EB3m_, symObjAddr: 0x0, symBinAddr: 0x35480, symSize: 0xD0 }
  - { offset: 0x90E7B, size: 0x8, addend: 0x0, symName: ___rustc_proc_macro_decls_51c0cc4140654dfc__, symObjAddr: 0x5848, symBinAddr: 0x229F10, symSize: 0x0 }
  - { offset: 0x91312, size: 0x8, addend: 0x0, symName: __RNvCs71axb73f1AC_14thiserror_impl12derive_error, symObjAddr: 0x31B0, symBinAddr: 0x385B0, symSize: 0x180 }
  - { offset: 0x91A6D, size: 0x8, addend: 0x0, symName: __RNvXsR_NtCscKtU6MdFI5n_10proc_macro6bridgeINtNtCsieiGu2EXtoJ_4core6option6OptionNtNtB5_6client11TokenStreamEINtNtB5_3rpc6EncodeuE6encodeCs71axb73f1AC_14thiserror_impl, symObjAddr: 0x3BD0, symBinAddr: 0x38FD0, symSize: 0xB0 }
  - { offset: 0x91B13, size: 0x8, addend: 0x0, symName: __RNvXsR_NtCscKtU6MdFI5n_10proc_macro6bridgeINtNtCsieiGu2EXtoJ_4core6option6OptionReEINtNtB5_3rpc6EncodeuE6encodeCs71axb73f1AC_14thiserror_impl, symObjAddr: 0x3C80, symBinAddr: 0x39080, symSize: 0xC0 }
  - { offset: 0x91E47, size: 0x8, addend: 0x0, symName: __RINvXsg_CscKtU6MdFI5n_10proc_macroNtB6_11TokenStreamINtNtNtNtCsieiGu2EXtoJ_4core4iter6traits7collect12FromIteratorNtB6_9TokenTreeE9from_iterINtNtNtBV_8adapters3map3MapINtNtNtCslJiobkLta79_5alloc3vec9into_iter8IntoIterNtCsaKzlTDPUHDb_11proc_macro29TokenTreeENvNtB3v_3imp19into_compiler_tokenEECs71axb73f1AC_14thiserror_impl, symObjAddr: 0x2EC0, symBinAddr: 0x382C0, symSize: 0x130 }
  - { offset: 0x91EB2, size: 0x8, addend: 0x0, symName: __RNCINvXsg_CscKtU6MdFI5n_10proc_macroNtB8_11TokenStreamINtNtNtNtCsieiGu2EXtoJ_4core4iter6traits7collect12FromIteratorNtB8_9TokenTreeE9from_iterINtNtNtBX_8adapters3map3MapINtNtNtCslJiobkLta79_5alloc3vec9into_iter8IntoIterNtCsaKzlTDPUHDb_11proc_macro29TokenTreeENvNtB3x_3imp19into_compiler_tokenEE0Cs71axb73f1AC_14thiserror_impl, symObjAddr: 0x3100, symBinAddr: 0x38500, symSize: 0x20 }
  - { offset: 0x91EFF, size: 0x8, addend: 0x0, symName: __RNvXs1e_CscKtU6MdFI5n_10proc_macroNtB6_5IdentNtNtCsieiGu2EXtoJ_4core5clone5Clone5cloneCs71axb73f1AC_14thiserror_impl, symObjAddr: 0x37C0, symBinAddr: 0x38BC0, symSize: 0x40 }
  - { offset: 0x91F33, size: 0x8, addend: 0x0, symName: __RNvXsU_CscKtU6MdFI5n_10proc_macroNtB5_11TokenStreamNtNtCsieiGu2EXtoJ_4core5clone5Clone5cloneCs71axb73f1AC_14thiserror_impl, symObjAddr: 0x3D40, symBinAddr: 0x39140, symSize: 0x50 }
  - { offset: 0x95286, size: 0x8, addend: 0x0, symName: __RNvXs3_NtCsieiGu2EXtoJ_4core6optionINtB5_6OptionNtNtCs71axb73f1AC_14thiserror_impl4attr7DisplayENtNtB7_5clone5Clone10clone_fromBO_, symObjAddr: 0x3930, symBinAddr: 0x38D30, symSize: 0x160 }
  - { offset: 0x953F4, size: 0x8, addend: 0x0, symName: __RNvXs6_NtCsieiGu2EXtoJ_4core6optionINtB5_6OptionRNtCsaKzlTDPUHDb_11proc_macro211TokenStreamENtNtNtNtB7_4iter6traits7collect12IntoIterator9into_iterCs71axb73f1AC_14thiserror_impl, symObjAddr: 0x3A90, symBinAddr: 0x38E90, symSize: 0x10 }
  - { offset: 0x95431, size: 0x8, addend: 0x0, symName: __RNvXsC_NtCsieiGu2EXtoJ_4core6optionINtB5_6OptionRNtNtCs71axb73f1AC_14thiserror_impl3ast5FieldENtNtNtB7_3ops9try_trait3Try6branchBP_, symObjAddr: 0x3AA0, symBinAddr: 0x38EA0, symSize: 0x40 }
  - { offset: 0x9559A, size: 0x8, addend: 0x0, symName: __RNvXsD_NtCsieiGu2EXtoJ_4core6optionINtB5_6OptionNtCsaKzlTDPUHDb_11proc_macro211TokenStreamEINtNtNtB7_3ops9try_trait12FromResidualIBy_NtNtB7_7convert10InfallibleEE13from_residualCs71axb73f1AC_14thiserror_impl, symObjAddr: 0x3AE0, symBinAddr: 0x38EE0, symSize: 0x20 }
  - { offset: 0x955CD, size: 0x8, addend: 0x0, symName: __RNvXsD_NtCsieiGu2EXtoJ_4core6optionINtB5_6OptionRNtNtCs71axb73f1AC_14thiserror_impl3ast5FieldEINtNtNtB7_3ops9try_trait12FromResidualIBy_NtNtB7_7convert10InfallibleEE13from_residualBP_, symObjAddr: 0x3B00, symBinAddr: 0x38F00, symSize: 0x10 }
  - { offset: 0x956E1, size: 0x8, addend: 0x0, symName: __RNvXsP_NtCsieiGu2EXtoJ_4core6optionINtB5_8IntoIterRNtNtCsdGrGZaRBwMb_3syn4data7VariantENtNtB7_5clone5Clone5cloneCs71axb73f1AC_14thiserror_impl, symObjAddr: 0x3B10, symBinAddr: 0x38F10, symSize: 0x60 }
  - { offset: 0x9578C, size: 0x8, addend: 0x0, symName: __RNvXsP_NtCsieiGu2EXtoJ_4core6optionINtB5_8IntoIterRNtNtCsdGrGZaRBwMb_3syn4path15GenericArgumentENtNtB7_5clone5Clone5cloneCs71axb73f1AC_14thiserror_impl, symObjAddr: 0x3B70, symBinAddr: 0x38F70, symSize: 0x60 }
  - { offset: 0x95CB3, size: 0x8, addend: 0x0, symName: __RNvXsw_NtCsieiGu2EXtoJ_4core6optionINtB5_8IntoIterRNtCsaKzlTDPUHDb_11proc_macro211TokenStreamENtNtNtNtB7_4iter6traits8iterator8Iterator4nextCs71axb73f1AC_14thiserror_impl, symObjAddr: 0x4550, symBinAddr: 0x39950, symSize: 0x20 }
  - { offset: 0x95D2B, size: 0x8, addend: 0x0, symName: __RNvXsw_NtCsieiGu2EXtoJ_4core6optionINtB5_8IntoIterRNtNtCsdGrGZaRBwMb_3syn4data7VariantENtNtNtNtB7_4iter6traits8iterator8Iterator9size_hintCs71axb73f1AC_14thiserror_impl, symObjAddr: 0x4570, symBinAddr: 0x39970, symSize: 0x30 }
  - { offset: 0x95DA3, size: 0x8, addend: 0x0, symName: __RNvXsw_NtCsieiGu2EXtoJ_4core6optionINtB5_8IntoIterRNtNtCsdGrGZaRBwMb_3syn4path15GenericArgumentENtNtNtNtB7_4iter6traits8iterator8Iterator9size_hintCs71axb73f1AC_14thiserror_impl, symObjAddr: 0x45A0, symBinAddr: 0x399A0, symSize: 0x30 }
  - { offset: 0x97234, size: 0x8, addend: 0x0, symName: __RINvNtCsieiGu2EXtoJ_4core3ptr13drop_in_placeINtNtB4_4cell10UnsafeCellNtNtNtCscKtU6MdFI5n_10proc_macro6bridge6client6BridgeEECs71axb73f1AC_14thiserror_impl, symObjAddr: 0xEE0, symBinAddr: 0x36320, symSize: 0x20 }
  - { offset: 0x97263, size: 0x8, addend: 0x0, symName: __RINvNtCsieiGu2EXtoJ_4core3ptr13drop_in_placeINtNtB4_4cell7RefCellNtNtNtCscKtU6MdFI5n_10proc_macro6bridge6client6BridgeEECs71axb73f1AC_14thiserror_impl, symObjAddr: 0xF00, symBinAddr: 0x36340, symSize: 0x20 }
  - { offset: 0x97292, size: 0x8, addend: 0x0, symName: __RINvNtCsieiGu2EXtoJ_4core3ptr13drop_in_placeINtNtB4_6option6OptionINtNtB4_6result6ResultNtNtB4_7convert10InfallibleNtNtCsdGrGZaRBwMb_3syn5error5ErrorEEECs71axb73f1AC_14thiserror_impl, symObjAddr: 0xF20, symBinAddr: 0x36360, symSize: 0x40 }
  - { offset: 0x972C1, size: 0x8, addend: 0x0, symName: __RINvNtCsieiGu2EXtoJ_4core3ptr13drop_in_placeINtNtB4_6option6OptionINtNtB4_6result6ResultNtNtCsdGrGZaRBwMb_3syn4expr5IndexNtNtB1s_5error5ErrorEEECs71axb73f1AC_14thiserror_impl, symObjAddr: 0xF60, symBinAddr: 0x363A0, symSize: 0x40 }
  - { offset: 0x972F0, size: 0x8, addend: 0x0, symName: __RINvNtCsieiGu2EXtoJ_4core3ptr13drop_in_placeINtNtB4_6option6OptionINtNtCslJiobkLta79_5alloc5boxed3BoxNtCsaKzlTDPUHDb_11proc_macro211TokenStreamEEECs71axb73f1AC_14thiserror_impl, symObjAddr: 0xFA0, symBinAddr: 0x363E0, symSize: 0x40 }
  - { offset: 0x9731F, size: 0x8, addend: 0x0, symName: __RINvNtCsieiGu2EXtoJ_4core3ptr13drop_in_placeINtNtB4_6option6OptionNtNtCs71axb73f1AC_14thiserror_impl4attr7DisplayEEB16_, symObjAddr: 0xFE0, symBinAddr: 0x36420, symSize: 0x40 }
  - { offset: 0x9734E, size: 0x8, addend: 0x0, symName: __RINvNtCsieiGu2EXtoJ_4core3ptr13drop_in_placeINtNtB4_6result6ResultNtNtB4_7convert10InfallibleNtNtCsdGrGZaRBwMb_3syn5error5ErrorEECs71axb73f1AC_14thiserror_impl, symObjAddr: 0x1020, symBinAddr: 0x36460, symSize: 0x20 }
  - { offset: 0x9737D, size: 0x8, addend: 0x0, symName: __RINvNtCsieiGu2EXtoJ_4core3ptr13drop_in_placeINtNtB4_6result6ResultNtNtCs71axb73f1AC_14thiserror_impl3fmt12FmtArgumentsNtNtCsdGrGZaRBwMb_3syn5error5ErrorEEB16_, symObjAddr: 0x1040, symBinAddr: 0x36480, symSize: 0x40 }
  - { offset: 0x973AC, size: 0x8, addend: 0x0, symName: __RINvNtCsieiGu2EXtoJ_4core3ptr13drop_in_placeINtNtB4_6result6ResultNtNtCsdGrGZaRBwMb_3syn4expr4ExprNtNtB16_5error5ErrorEECs71axb73f1AC_14thiserror_impl, symObjAddr: 0x1080, symBinAddr: 0x364C0, symSize: 0x50 }
  - { offset: 0x973DB, size: 0x8, addend: 0x0, symName: __RINvNtCsieiGu2EXtoJ_4core3ptr13drop_in_placeINtNtB4_6result6ResultNtNtCsdGrGZaRBwMb_3syn4expr5IndexNtNtB16_5error5ErrorEECs71axb73f1AC_14thiserror_impl, symObjAddr: 0x10D0, symBinAddr: 0x36510, symSize: 0x40 }
  - { offset: 0x9740A, size: 0x8, addend: 0x0, symName: __RINvNtCsieiGu2EXtoJ_4core3ptr13drop_in_placeINtNtCs9OU1sGv5X54_5quote9___private9RepInterpNtCsaKzlTDPUHDb_11proc_macro211TokenStreamEECs71axb73f1AC_14thiserror_impl, symObjAddr: 0x1110, symBinAddr: 0x36550, symSize: 0x20 }
  - { offset: 0x97439, size: 0x8, addend: 0x0, symName: __RINvNtCsieiGu2EXtoJ_4core3ptr13drop_in_placeINtNtCs9OU1sGv5X54_5quote9___private9RepInterpNtCsaKzlTDPUHDb_11proc_macro25IdentEECs71axb73f1AC_14thiserror_impl, symObjAddr: 0x1130, symBinAddr: 0x36570, symSize: 0x20 }
  - { offset: 0x97468, size: 0x8, addend: 0x0, symName: __RINvNtCsieiGu2EXtoJ_4core3ptr13drop_in_placeINtNtCsdGrGZaRBwMb_3syn10punctuated10PunctuatedNtCsaKzlTDPUHDb_11proc_macro211TokenStreamNtNtBL_5token4PlusEECs71axb73f1AC_14thiserror_impl, symObjAddr: 0x1150, symBinAddr: 0x36590, symSize: 0x60 }
  - { offset: 0x97497, size: 0x8, addend: 0x0, symName: __RINvNtCsieiGu2EXtoJ_4core3ptr13drop_in_placeINtNtCsdGrGZaRBwMb_3syn10punctuated4IterNtNtBL_4data5FieldEECs71axb73f1AC_14thiserror_impl, symObjAddr: 0x11B0, symBinAddr: 0x365F0, symSize: 0x20 }
  - { offset: 0x974C6, size: 0x8, addend: 0x0, symName: __RINvNtCsieiGu2EXtoJ_4core3ptr13drop_in_placeINtNtCsdGrGZaRBwMb_3syn10punctuated4IterNtNtBL_4data7VariantEECs71axb73f1AC_14thiserror_impl, symObjAddr: 0x11D0, symBinAddr: 0x36610, symSize: 0x20 }
  - { offset: 0x974F5, size: 0x8, addend: 0x0, symName: __RINvNtCsieiGu2EXtoJ_4core3ptr13drop_in_placeINtNtCsdGrGZaRBwMb_3syn10punctuated4IterNtNtBL_4path15GenericArgumentEECs71axb73f1AC_14thiserror_impl, symObjAddr: 0x11F0, symBinAddr: 0x36630, symSize: 0x20 }
  - { offset: 0x97524, size: 0x8, addend: 0x0, symName: __RINvNtCsieiGu2EXtoJ_4core3ptr13drop_in_placeINtNtCsdGrGZaRBwMb_3syn10punctuated4IterNtNtBL_8generics12GenericParamEECs71axb73f1AC_14thiserror_impl, symObjAddr: 0x1210, symBinAddr: 0x36650, symSize: 0x20 }
  - { offset: 0x97553, size: 0x8, addend: 0x0, symName: __RINvNtCsieiGu2EXtoJ_4core3ptr13drop_in_placeINtNtCsjK30CmJ87bX_9hashbrown10scopeguard10ScopeGuardNtNtBL_3raw13RawTableInnerNCINvMsa_B1z_B1x_14prepare_resizeNtNtCslJiobkLta79_5alloc5alloc6GlobalE0EECs71axb73f1AC_14thiserror_impl, symObjAddr: 0x1230, symBinAddr: 0x36670, symSize: 0x20 }
  - { offset: 0x97582, size: 0x8, addend: 0x0, symName: __RINvNtCsieiGu2EXtoJ_4core3ptr13drop_in_placeINtNtCsjK30CmJ87bX_9hashbrown10scopeguard10ScopeGuardQNtNtBL_3raw13RawTableInnerNCNvMsa_B1A_B1y_15rehash_in_place0EECs71axb73f1AC_14thiserror_impl, symObjAddr: 0x1250, symBinAddr: 0x36690, symSize: 0x20 }
  - { offset: 0x975B1, size: 0x8, addend: 0x0, symName: __RINvNtCsieiGu2EXtoJ_4core3ptr13drop_in_placeINtNtCsjK30CmJ87bX_9hashbrown3map7HashMapRNtNtCsdGrGZaRBwMb_3syn4expr6MemberjNtNtNtCsHUR1vrdMJt_3std4hash6random11RandomStateEECs71axb73f1AC_14thiserror_impl, symObjAddr: 0x1270, symBinAddr: 0x366B0, symSize: 0x20 }
  - { offset: 0x975E0, size: 0x8, addend: 0x0, symName: __RINvNtCsieiGu2EXtoJ_4core3ptr13drop_in_placeINtNtCsjK30CmJ87bX_9hashbrown3raw8RawTableTRNtNtCsdGrGZaRBwMb_3syn4expr6MemberjEEECs71axb73f1AC_14thiserror_impl, symObjAddr: 0x1290, symBinAddr: 0x366D0, symSize: 0x20 }
  - { offset: 0x9760F, size: 0x8, addend: 0x0, symName: __RINvNtCsieiGu2EXtoJ_4core3ptr13drop_in_placeINtNtCslJiobkLta79_5alloc3vec3VecNtCsaKzlTDPUHDb_11proc_macro211TokenStreamEECs71axb73f1AC_14thiserror_impl, symObjAddr: 0x12B0, symBinAddr: 0x366F0, symSize: 0x50 }
  - { offset: 0x9763E, size: 0x8, addend: 0x0, symName: __RINvNtCsieiGu2EXtoJ_4core3ptr13drop_in_placeINtNtCslJiobkLta79_5alloc3vec3VecNtNtCs71axb73f1AC_14thiserror_impl3ast5FieldEEB1h_, symObjAddr: 0x1300, symBinAddr: 0x36740, symSize: 0x50 }
  - { offset: 0x9766D, size: 0x8, addend: 0x0, symName: __RINvNtCsieiGu2EXtoJ_4core3ptr13drop_in_placeINtNtCslJiobkLta79_5alloc3vec3VecNtNtCs71axb73f1AC_14thiserror_impl3ast7VariantEEB1h_, symObjAddr: 0x1350, symBinAddr: 0x36790, symSize: 0x50 }
  - { offset: 0x9769C, size: 0x8, addend: 0x0, symName: __RINvNtCsieiGu2EXtoJ_4core3ptr13drop_in_placeINtNtCslJiobkLta79_5alloc3vec3VecRNtCsaKzlTDPUHDb_11proc_macro25IdentEECs71axb73f1AC_14thiserror_impl, symObjAddr: 0x13A0, symBinAddr: 0x367E0, symSize: 0x50 }
  - { offset: 0x976CB, size: 0x8, addend: 0x0, symName: __RINvNtCsieiGu2EXtoJ_4core3ptr13drop_in_placeINtNtCslJiobkLta79_5alloc3vec3VecTNtCsaKzlTDPUHDb_11proc_macro211TokenStreamNtNtCsdGrGZaRBwMb_3syn5token4PlusEEECs71axb73f1AC_14thiserror_impl, symObjAddr: 0x13F0, symBinAddr: 0x36830, symSize: 0x50 }
  - { offset: 0x976FA, size: 0x8, addend: 0x0, symName: __RINvNtCsieiGu2EXtoJ_4core3ptr13drop_in_placeINtNtCslJiobkLta79_5alloc5boxed3BoxDNtNtB4_5error5ErrorNtNtB4_6marker4SyncNtB1B_4SendEL_EECs71axb73f1AC_14thiserror_impl, symObjAddr: 0x1440, symBinAddr: 0x36880, symSize: 0x70 }
  - { offset: 0x97729, size: 0x8, addend: 0x0, symName: __RINvNtCsieiGu2EXtoJ_4core3ptr13drop_in_placeINtNtCslJiobkLta79_5alloc5boxed3BoxINtNtCsdGrGZaRBwMb_3syn5drops6NoDropDINtNtB1k_10punctuated9IterTraitNtNtB1k_4data5FieldEp4ItemRB2l_EL_EEECs71axb73f1AC_14thiserror_impl, symObjAddr: 0x14B0, symBinAddr: 0x368F0, symSize: 0x20 }
  - { offset: 0x97758, size: 0x8, addend: 0x0, symName: __RINvNtCsieiGu2EXtoJ_4core3ptr13drop_in_placeINtNtCslJiobkLta79_5alloc5boxed3BoxINtNtCsdGrGZaRBwMb_3syn5drops6NoDropDINtNtB1k_10punctuated9IterTraitNtNtB1k_4data7VariantEp4ItemRB2l_EL_EEECs71axb73f1AC_14thiserror_impl, symObjAddr: 0x14D0, symBinAddr: 0x36910, symSize: 0x20 }
  - { offset: 0x97787, size: 0x8, addend: 0x0, symName: __RINvNtCsieiGu2EXtoJ_4core3ptr13drop_in_placeINtNtCslJiobkLta79_5alloc5boxed3BoxINtNtCsdGrGZaRBwMb_3syn5drops6NoDropDINtNtB1k_10punctuated9IterTraitNtNtB1k_4path15GenericArgumentEp4ItemRB2l_EL_EEECs71axb73f1AC_14thiserror_impl, symObjAddr: 0x14F0, symBinAddr: 0x36930, symSize: 0x20 }
  - { offset: 0x977B6, size: 0x8, addend: 0x0, symName: __RINvNtCsieiGu2EXtoJ_4core3ptr13drop_in_placeINtNtCslJiobkLta79_5alloc5boxed3BoxINtNtCsdGrGZaRBwMb_3syn5drops6NoDropDINtNtB1k_10punctuated9IterTraitNtNtB1k_8generics12GenericParamEp4ItemRB2l_EL_EEECs71axb73f1AC_14thiserror_impl, symObjAddr: 0x1510, symBinAddr: 0x36950, symSize: 0x20 }
  - { offset: 0x977E5, size: 0x8, addend: 0x0, symName: __RINvNtCsieiGu2EXtoJ_4core3ptr13drop_in_placeINtNtCslJiobkLta79_5alloc5boxed3BoxINtNtNtNtBL_11collections5btree4node12InternalNodeNtCsaKzlTDPUHDb_11proc_macro25IdentNtNtB1k_7set_val9SetValZSTEEECs71axb73f1AC_14thiserror_impl, symObjAddr: 0x1530, symBinAddr: 0x36970, symSize: 0x20 }
  - { offset: 0x97814, size: 0x8, addend: 0x0, symName: __RINvNtCsieiGu2EXtoJ_4core3ptr13drop_in_placeINtNtCslJiobkLta79_5alloc5boxed3BoxINtNtNtNtBL_11collections5btree4node12InternalNodeNtNtBL_6string6StringNtNtB1k_7set_val9SetValZSTEEECs71axb73f1AC_14thiserror_impl, symObjAddr: 0x1550, symBinAddr: 0x36990, symSize: 0x20 }
  - { offset: 0x97843, size: 0x8, addend: 0x0, symName: __RINvNtCsieiGu2EXtoJ_4core3ptr13drop_in_placeINtNtCslJiobkLta79_5alloc5boxed3BoxINtNtNtNtBL_11collections5btree4node12InternalNodeNtNtBL_6string6StringTINtNtB1k_3set8BTreeSetB23_EINtNtCsdGrGZaRBwMb_3syn10punctuated10PunctuatedNtCsaKzlTDPUHDb_11proc_macro211TokenStreamNtNtB2V_5token4PlusEEEEECs71axb73f1AC_14thiserror_impl, symObjAddr: 0x1570, symBinAddr: 0x369B0, symSize: 0x20 }
  - { offset: 0x97872, size: 0x8, addend: 0x0, symName: __RINvNtCsieiGu2EXtoJ_4core3ptr13drop_in_placeINtNtCslJiobkLta79_5alloc5boxed3BoxINtNtNtNtBL_11collections5btree4node12InternalNodeTjNtNtCs71axb73f1AC_14thiserror_impl4attr5TraitENtNtB1k_7set_val9SetValZSTEEEB29_, symObjAddr: 0x15B0, symBinAddr: 0x369D0, symSize: 0x20 }
  - { offset: 0x978A1, size: 0x8, addend: 0x0, symName: __RINvNtCsieiGu2EXtoJ_4core3ptr13drop_in_placeINtNtCslJiobkLta79_5alloc5boxed3BoxINtNtNtNtBL_11collections5btree4node8LeafNodeNtCsaKzlTDPUHDb_11proc_macro25IdentNtNtB1k_7set_val9SetValZSTEEECs71axb73f1AC_14thiserror_impl, symObjAddr: 0x15D0, symBinAddr: 0x369F0, symSize: 0x20 }
  - { offset: 0x978D0, size: 0x8, addend: 0x0, symName: __RINvNtCsieiGu2EXtoJ_4core3ptr13drop_in_placeINtNtCslJiobkLta79_5alloc5boxed3BoxINtNtNtNtBL_11collections5btree4node8LeafNodeNtNtBL_6string6StringNtNtB1k_7set_val9SetValZSTEEECs71axb73f1AC_14thiserror_impl, symObjAddr: 0x15F0, symBinAddr: 0x36A10, symSize: 0x20 }
  - { offset: 0x978FF, size: 0x8, addend: 0x0, symName: __RINvNtCsieiGu2EXtoJ_4core3ptr13drop_in_placeINtNtCslJiobkLta79_5alloc5boxed3BoxINtNtNtNtBL_11collections5btree4node8LeafNodeNtNtBL_6string6StringTINtNtB1k_3set8BTreeSetB1Y_EINtNtCsdGrGZaRBwMb_3syn10punctuated10PunctuatedNtCsaKzlTDPUHDb_11proc_macro211TokenStreamNtNtB2Q_5token4PlusEEEEECs71axb73f1AC_14thiserror_impl, symObjAddr: 0x1610, symBinAddr: 0x36A30, symSize: 0x20 }
  - { offset: 0x9792E, size: 0x8, addend: 0x0, symName: __RINvNtCsieiGu2EXtoJ_4core3ptr13drop_in_placeINtNtCslJiobkLta79_5alloc5boxed3BoxINtNtNtNtBL_11collections5btree4node8LeafNodeTjNtNtCs71axb73f1AC_14thiserror_impl4attr5TraitENtNtB1k_7set_val9SetValZSTEEEB24_, symObjAddr: 0x1630, symBinAddr: 0x36A50, symSize: 0x20 }
  - { offset: 0x9795D, size: 0x8, addend: 0x0, symName: __RINvNtCsieiGu2EXtoJ_4core3ptr13drop_in_placeINtNtCslJiobkLta79_5alloc5boxed3BoxNtCsaKzlTDPUHDb_11proc_macro211TokenStreamEECs71axb73f1AC_14thiserror_impl, symObjAddr: 0x1650, symBinAddr: 0x36A70, symSize: 0x50 }
  - { offset: 0x9798C, size: 0x8, addend: 0x0, symName: __RINvNtCsieiGu2EXtoJ_4core3ptr13drop_in_placeINtNtCslJiobkLta79_5alloc5boxed3BoxNtNtNtCsHUR1vrdMJt_3std2io5error6CustomEECs71axb73f1AC_14thiserror_impl, symObjAddr: 0x16A0, symBinAddr: 0x36AC0, symSize: 0x50 }
  - { offset: 0x979BB, size: 0x8, addend: 0x0, symName: __RINvNtCsieiGu2EXtoJ_4core3ptr13drop_in_placeINtNtCslJiobkLta79_5alloc7raw_vec6RawVecNtCsaKzlTDPUHDb_11proc_macro211TokenStreamEECs71axb73f1AC_14thiserror_impl, symObjAddr: 0x16F0, symBinAddr: 0x36B10, symSize: 0x20 }
  - { offset: 0x979EA, size: 0x8, addend: 0x0, symName: __RINvNtCsieiGu2EXtoJ_4core3ptr13drop_in_placeINtNtCslJiobkLta79_5alloc7raw_vec6RawVecNtNtCs71axb73f1AC_14thiserror_impl3ast5FieldEEB1o_, symObjAddr: 0x1710, symBinAddr: 0x36B30, symSize: 0x20 }
  - { offset: 0x97A19, size: 0x8, addend: 0x0, symName: __RINvNtCsieiGu2EXtoJ_4core3ptr13drop_in_placeINtNtCslJiobkLta79_5alloc7raw_vec6RawVecNtNtCs71axb73f1AC_14thiserror_impl3ast7VariantEEB1o_, symObjAddr: 0x1730, symBinAddr: 0x36B50, symSize: 0x20 }
  - { offset: 0x97A48, size: 0x8, addend: 0x0, symName: __RINvNtCsieiGu2EXtoJ_4core3ptr13drop_in_placeINtNtCslJiobkLta79_5alloc7raw_vec6RawVecRNtCsaKzlTDPUHDb_11proc_macro25IdentEECs71axb73f1AC_14thiserror_impl, symObjAddr: 0x1750, symBinAddr: 0x36B70, symSize: 0x20 }
  - { offset: 0x97A77, size: 0x8, addend: 0x0, symName: __RINvNtCsieiGu2EXtoJ_4core3ptr13drop_in_placeINtNtCslJiobkLta79_5alloc7raw_vec6RawVecTNtCsaKzlTDPUHDb_11proc_macro211TokenStreamNtNtCsdGrGZaRBwMb_3syn5token4PlusEEECs71axb73f1AC_14thiserror_impl, symObjAddr: 0x1770, symBinAddr: 0x36B90, symSize: 0x20 }
  - { offset: 0x97AA6, size: 0x8, addend: 0x0, symName: __RINvNtCsieiGu2EXtoJ_4core3ptr13drop_in_placeINtNtNtB4_3ops12control_flow11ControlFlowIBH_NtNtCs71axb73f1AC_14thiserror_impl3ast5FieldEEEB1t_, symObjAddr: 0x1790, symBinAddr: 0x36BB0, symSize: 0x40 }
  - { offset: 0x97AD5, size: 0x8, addend: 0x0, symName: __RINvNtCsieiGu2EXtoJ_4core3ptr13drop_in_placeINtNtNtB4_3ops12control_flow11ControlFlowNtNtCs71axb73f1AC_14thiserror_impl3ast5FieldEEB1p_, symObjAddr: 0x17D0, symBinAddr: 0x36BF0, symSize: 0x40 }
  - { offset: 0x97B04, size: 0x8, addend: 0x0, symName: __RINvNtCsieiGu2EXtoJ_4core3ptr13drop_in_placeINtNtNtB4_3ops12control_flow11ControlFlowNtNtCs71axb73f1AC_14thiserror_impl3ast7VariantEEB1p_, symObjAddr: 0x1810, symBinAddr: 0x36C30, symSize: 0x40 }
  - { offset: 0x97B33, size: 0x8, addend: 0x0, symName: __RINvNtCsieiGu2EXtoJ_4core3ptr13drop_in_placeINtNtNtB4_4iter8adapters12GenericShuntINtNtBJ_3map3MapINtNtBJ_9enumerate9EnumerateINtNtCsdGrGZaRBwMb_3syn10punctuated4IterNtNtB25_4data5FieldEENCNvMs2_NtCs71axb73f1AC_14thiserror_impl3astNtB37_5Field17multiple_from_syn0EINtNtB4_6result6ResultNtNtB4_7convert10InfallibleNtNtB25_5error5ErrorEEEB39_, symObjAddr: 0x1850, symBinAddr: 0x36C70, symSize: 0x20 }
  - { offset: 0x97B62, size: 0x8, addend: 0x0, symName: __RINvNtCsieiGu2EXtoJ_4core3ptr13drop_in_placeINtNtNtB4_4iter8adapters12GenericShuntINtNtBJ_3map3MapINtNtCsdGrGZaRBwMb_3syn10punctuated4IterNtNtB1D_4data7VariantENCNvMs0_NtCs71axb73f1AC_14thiserror_impl3astNtB2G_4Enum8from_syn0EINtNtB4_6result6ResultNtNtB4_7convert10InfallibleNtNtB1D_5error5ErrorEEEB2I_, symObjAddr: 0x1870, symBinAddr: 0x36C90, symSize: 0x20 }
  - { offset: 0x97B91, size: 0x8, addend: 0x0, symName: __RINvNtCsieiGu2EXtoJ_4core3ptr13drop_in_placeINtNtNtB4_5array4iter8IntoIterjKj2_EECs71axb73f1AC_14thiserror_impl, symObjAddr: 0x1890, symBinAddr: 0x36CB0, symSize: 0x50 }
  - { offset: 0x97BC0, size: 0x8, addend: 0x0, symName: __RINvNtCsieiGu2EXtoJ_4core3ptr13drop_in_placeINtNtNtCsHUR1vrdMJt_3std2io5error9ErrorDataINtNtCslJiobkLta79_5alloc5boxed3BoxNtBJ_6CustomEEECs71axb73f1AC_14thiserror_impl, symObjAddr: 0x18E0, symBinAddr: 0x36D00, symSize: 0x30 }
  - { offset: 0x97BEF, size: 0x8, addend: 0x0, symName: __RINvNtCsieiGu2EXtoJ_4core3ptr13drop_in_placeINtNtNtCslJiobkLta79_5alloc3vec9into_iter8IntoIterRNtCsaKzlTDPUHDb_11proc_macro25IdentEECs71axb73f1AC_14thiserror_impl, symObjAddr: 0x1910, symBinAddr: 0x36D30, symSize: 0x20 }
  - { offset: 0x97C1E, size: 0x8, addend: 0x0, symName: __RINvNtCsieiGu2EXtoJ_4core3ptr13drop_in_placeINtNtNtNtB4_4iter8adapters3map3MapINtNtBL_9enumerate9EnumerateINtNtCsdGrGZaRBwMb_3syn10punctuated4IterNtNtB1L_4data5FieldEENCNvMs2_NtCs71axb73f1AC_14thiserror_impl3astNtB2N_5Field17multiple_from_syn0EEB2P_, symObjAddr: 0x1930, symBinAddr: 0x36D50, symSize: 0x20 }
  - { offset: 0x97C4D, size: 0x8, addend: 0x0, symName: __RINvNtCsieiGu2EXtoJ_4core3ptr13drop_in_placeINtNtNtNtB4_4iter8adapters3map3MapINtNtCsdGrGZaRBwMb_3syn10punctuated4IterNtNtB1j_4data7VariantENCNvMs0_NtCs71axb73f1AC_14thiserror_impl3astNtB2m_4Enum8from_syn0EEB2o_, symObjAddr: 0x1950, symBinAddr: 0x36D70, symSize: 0x20 }
  - { offset: 0x97C7C, size: 0x8, addend: 0x0, symName: __RINvNtCsieiGu2EXtoJ_4core3ptr13drop_in_placeINtNtNtNtB4_4iter8adapters3map3MapINtNtNtCslJiobkLta79_5alloc3vec9into_iter8IntoIterNtCsaKzlTDPUHDb_11proc_macro29TokenTreeENvNtB24_3imp19into_compiler_tokenEECs71axb73f1AC_14thiserror_impl, symObjAddr: 0x1970, symBinAddr: 0x36D90, symSize: 0x20 }
  - { offset: 0x97CAB, size: 0x8, addend: 0x0, symName: __RINvNtCsieiGu2EXtoJ_4core3ptr13drop_in_placeINtNtNtNtB4_4iter8adapters3map3MapINtNtNtCslJiobkLta79_5alloc3vec9into_iter8IntoIterRNtCsaKzlTDPUHDb_11proc_macro25IdentENCINvMse_NtNtNtB1l_11collections5btree3setINtB2M_8BTreeSetB22_E16from_sorted_iterB1e_E0EECs71axb73f1AC_14thiserror_impl, symObjAddr: 0x1990, symBinAddr: 0x36DB0, symSize: 0x20 }
  - { offset: 0x97CDA, size: 0x8, addend: 0x0, symName: __RINvNtCsieiGu2EXtoJ_4core3ptr13drop_in_placeINtNtNtNtB4_4iter8adapters3map3MapNtNtCsdGrGZaRBwMb_3syn8generics10TypeParamsNCNvMNtCs71axb73f1AC_14thiserror_impl8genericsNtB20_13ParamsInScope3new0EEB22_, symObjAddr: 0x19B0, symBinAddr: 0x36DD0, symSize: 0x20 }
  - { offset: 0x97D09, size: 0x8, addend: 0x0, symName: __RINvNtCsieiGu2EXtoJ_4core3ptr13drop_in_placeINtNtNtNtB4_4iter8adapters8peekable8PeekableINtNtBL_3map3MapINtNtNtCslJiobkLta79_5alloc3vec9into_iter8IntoIterRNtCsaKzlTDPUHDb_11proc_macro25IdentENCINvMse_NtNtNtB1L_11collections5btree3setINtB3c_8BTreeSetB2s_E16from_sorted_iterB1E_E0EEECs71axb73f1AC_14thiserror_impl, symObjAddr: 0x19D0, symBinAddr: 0x36DF0, symSize: 0x20 }
  - { offset: 0x97D38, size: 0x8, addend: 0x0, symName: __RINvNtCsieiGu2EXtoJ_4core3ptr13drop_in_placeINtNtNtNtB4_4iter8adapters9enumerate9EnumerateINtNtCsdGrGZaRBwMb_3syn10punctuated4IterNtNtB1v_4data5FieldEEECs71axb73f1AC_14thiserror_impl, symObjAddr: 0x19F0, symBinAddr: 0x36E10, symSize: 0x20 }
  - { offset: 0x97D67, size: 0x8, addend: 0x0, symName: __RINvNtCsieiGu2EXtoJ_4core3ptr13drop_in_placeINtNtNtNtB4_5array4iter10iter_inner15PolymorphicIterAINtNtNtB4_3mem12maybe_uninit11MaybeUninitjEj2_EECs71axb73f1AC_14thiserror_impl, symObjAddr: 0x1A10, symBinAddr: 0x36E30, symSize: 0x20 }
  - { offset: 0x97D96, size: 0x8, addend: 0x0, symName: __RINvNtCsieiGu2EXtoJ_4core3ptr13drop_in_placeINtNtNtNtCsHUR1vrdMJt_3std11collections4hash3map7HashMapRNtNtCsdGrGZaRBwMb_3syn4expr6MemberjEECs71axb73f1AC_14thiserror_impl, symObjAddr: 0x1A30, symBinAddr: 0x36E50, symSize: 0x20 }
  - { offset: 0x97DC5, size: 0x8, addend: 0x0, symName: __RINvNtCsieiGu2EXtoJ_4core3ptr13drop_in_placeINtNtNtNtCslJiobkLta79_5alloc11collections5btree17dedup_sorted_iter15DedupSortedIterRNtCsaKzlTDPUHDb_11proc_macro25IdentNtNtBL_7set_val9SetValZSTINtNtNtNtB4_4iter8adapters3map3MapINtNtNtBP_3vec9into_iter8IntoIterB22_ENCINvMse_NtBL_3setINtB4k_8BTreeSetB22_E16from_sorted_iterB3z_E0EEECs71axb73f1AC_14thiserror_impl, symObjAddr: 0x1A50, symBinAddr: 0x36E70, symSize: 0x20 }
  - { offset: 0x97DF4, size: 0x8, addend: 0x0, symName: __RINvNtCsieiGu2EXtoJ_4core3ptr13drop_in_placeINtNtNtNtCslJiobkLta79_5alloc11collections5btree3map8BTreeMapNtCsaKzlTDPUHDb_11proc_macro25IdentNtNtBL_7set_val9SetValZSTEECs71axb73f1AC_14thiserror_impl, symObjAddr: 0x1A70, symBinAddr: 0x36E90, symSize: 0x20 }
  - { offset: 0x97E23, size: 0x8, addend: 0x0, symName: __RINvNtCsieiGu2EXtoJ_4core3ptr13drop_in_placeINtNtNtNtCslJiobkLta79_5alloc11collections5btree3map8BTreeMapNtNtBP_6string6StringNtNtBL_7set_val9SetValZSTEECs71axb73f1AC_14thiserror_impl, symObjAddr: 0x1A90, symBinAddr: 0x36EB0, symSize: 0x20 }
  - { offset: 0x97E52, size: 0x8, addend: 0x0, symName: __RINvNtCsieiGu2EXtoJ_4core3ptr13drop_in_placeINtNtNtNtCslJiobkLta79_5alloc11collections5btree3map8BTreeMapNtNtBP_6string6StringTINtNtBL_3set8BTreeSetB1F_EINtNtCsdGrGZaRBwMb_3syn10punctuated10PunctuatedNtCsaKzlTDPUHDb_11proc_macro211TokenStreamNtNtB2w_5token4PlusEEEECs71axb73f1AC_14thiserror_impl, symObjAddr: 0x1AB0, symBinAddr: 0x36ED0, symSize: 0x20 }
  - { offset: 0x97E81, size: 0x8, addend: 0x0, symName: __RINvNtCsieiGu2EXtoJ_4core3ptr13drop_in_placeINtNtNtNtCslJiobkLta79_5alloc11collections5btree3map8BTreeMapRNtCsaKzlTDPUHDb_11proc_macro25IdentNtNtBL_7set_val9SetValZSTEECs71axb73f1AC_14thiserror_impl, symObjAddr: 0x1AD0, symBinAddr: 0x36EF0, symSize: 0x20 }
  - { offset: 0x97EB0, size: 0x8, addend: 0x0, symName: __RINvNtCsieiGu2EXtoJ_4core3ptr13drop_in_placeINtNtNtNtCslJiobkLta79_5alloc11collections5btree3map8BTreeMapTjNtNtCs71axb73f1AC_14thiserror_impl4attr5TraitENtNtBL_7set_val9SetValZSTEEB1L_, symObjAddr: 0x1AF0, symBinAddr: 0x36F10, symSize: 0x20 }
  - { offset: 0x97EDF, size: 0x8, addend: 0x0, symName: __RINvNtCsieiGu2EXtoJ_4core3ptr13drop_in_placeINtNtNtNtCslJiobkLta79_5alloc11collections5btree3map8IntoIterNtCsaKzlTDPUHDb_11proc_macro25IdentNtNtBL_7set_val9SetValZSTEECs71axb73f1AC_14thiserror_impl, symObjAddr: 0x1B10, symBinAddr: 0x36F30, symSize: 0x20 }
  - { offset: 0x97F0E, size: 0x8, addend: 0x0, symName: __RINvNtCsieiGu2EXtoJ_4core3ptr13drop_in_placeINtNtNtNtCslJiobkLta79_5alloc11collections5btree3map8IntoIterNtNtBP_6string6StringNtNtBL_7set_val9SetValZSTEECs71axb73f1AC_14thiserror_impl, symObjAddr: 0x1B30, symBinAddr: 0x36F50, symSize: 0x20 }
  - { offset: 0x97F3D, size: 0x8, addend: 0x0, symName: __RINvNtCsieiGu2EXtoJ_4core3ptr13drop_in_placeINtNtNtNtCslJiobkLta79_5alloc11collections5btree3map8IntoIterNtNtBP_6string6StringTINtNtBL_3set8BTreeSetB1F_EINtNtCsdGrGZaRBwMb_3syn10punctuated10PunctuatedNtCsaKzlTDPUHDb_11proc_macro211TokenStreamNtNtB2w_5token4PlusEEEECs71axb73f1AC_14thiserror_impl, symObjAddr: 0x1B50, symBinAddr: 0x36F70, symSize: 0x20 }
  - { offset: 0x97F6C, size: 0x8, addend: 0x0, symName: __RINvNtCsieiGu2EXtoJ_4core3ptr13drop_in_placeINtNtNtNtCslJiobkLta79_5alloc11collections5btree3map8IntoIterRNtCsaKzlTDPUHDb_11proc_macro25IdentNtNtBL_7set_val9SetValZSTEECs71axb73f1AC_14thiserror_impl, symObjAddr: 0x1B70, symBinAddr: 0x36F90, symSize: 0x20 }
  - { offset: 0x97F9B, size: 0x8, addend: 0x0, symName: __RINvNtCsieiGu2EXtoJ_4core3ptr13drop_in_placeINtNtNtNtCslJiobkLta79_5alloc11collections5btree3map8IntoIterTjNtNtCs71axb73f1AC_14thiserror_impl4attr5TraitENtNtBL_7set_val9SetValZSTEEB1L_, symObjAddr: 0x1B90, symBinAddr: 0x36FB0, symSize: 0x20 }
  - { offset: 0x97FCA, size: 0x8, addend: 0x0, symName: __RINvNtCsieiGu2EXtoJ_4core3ptr13drop_in_placeINtNtNtNtCslJiobkLta79_5alloc11collections5btree3set8BTreeSetNtCsaKzlTDPUHDb_11proc_macro25IdentEECs71axb73f1AC_14thiserror_impl, symObjAddr: 0x1BB0, symBinAddr: 0x36FD0, symSize: 0x20 }
  - { offset: 0x97FF9, size: 0x8, addend: 0x0, symName: __RINvNtCsieiGu2EXtoJ_4core3ptr13drop_in_placeINtNtNtNtCslJiobkLta79_5alloc11collections5btree3set8BTreeSetNtNtBP_6string6StringEECs71axb73f1AC_14thiserror_impl, symObjAddr: 0x1BD0, symBinAddr: 0x36FF0, symSize: 0x20 }
  - { offset: 0x98028, size: 0x8, addend: 0x0, symName: __RINvNtCsieiGu2EXtoJ_4core3ptr13drop_in_placeINtNtNtNtCslJiobkLta79_5alloc11collections5btree3set8BTreeSetRNtCsaKzlTDPUHDb_11proc_macro25IdentEECs71axb73f1AC_14thiserror_impl, symObjAddr: 0x1BF0, symBinAddr: 0x37010, symSize: 0x20 }
  - { offset: 0x98057, size: 0x8, addend: 0x0, symName: __RINvNtCsieiGu2EXtoJ_4core3ptr13drop_in_placeINtNtNtNtCslJiobkLta79_5alloc11collections5btree3set8BTreeSetTjNtNtCs71axb73f1AC_14thiserror_impl4attr5TraitEEEB1L_, symObjAddr: 0x1C10, symBinAddr: 0x37030, symSize: 0x20 }
  - { offset: 0x98086, size: 0x8, addend: 0x0, symName: __RINvNtCsieiGu2EXtoJ_4core3ptr13drop_in_placeINtNtNtNtCslJiobkLta79_5alloc11collections5btree3set8IntoIterTjNtNtCs71axb73f1AC_14thiserror_impl4attr5TraitEEEB1L_, symObjAddr: 0x1C30, symBinAddr: 0x37050, symSize: 0x20 }
  - { offset: 0x980B5, size: 0x8, addend: 0x0, symName: __RINvNtCsieiGu2EXtoJ_4core3ptr13drop_in_placeINtNtNtNtCslJiobkLta79_5alloc11collections5btree4node11SplitResultNtCsaKzlTDPUHDb_11proc_macro25IdentNtNtBL_7set_val9SetValZSTNtNtBJ_6marker4LeafEECs71axb73f1AC_14thiserror_impl, symObjAddr: 0x1C50, symBinAddr: 0x37070, symSize: 0x20 }
  - { offset: 0x980E4, size: 0x8, addend: 0x0, symName: __RINvNtCsieiGu2EXtoJ_4core3ptr13drop_in_placeINtNtNtNtCslJiobkLta79_5alloc11collections5btree4node11SplitResultNtCsaKzlTDPUHDb_11proc_macro25IdentNtNtBL_7set_val9SetValZSTNtNtBJ_6marker8InternalEECs71axb73f1AC_14thiserror_impl, symObjAddr: 0x1C70, symBinAddr: 0x37090, symSize: 0x20 }
  - { offset: 0x98113, size: 0x8, addend: 0x0, symName: __RINvNtCsieiGu2EXtoJ_4core3ptr13drop_in_placeINtNtNtNtCslJiobkLta79_5alloc11collections5btree4node11SplitResultNtNtBP_6string6StringNtNtBL_7set_val9SetValZSTNtNtBJ_6marker4LeafEECs71axb73f1AC_14thiserror_impl, symObjAddr: 0x1C90, symBinAddr: 0x370B0, symSize: 0x20 }
  - { offset: 0x98142, size: 0x8, addend: 0x0, symName: __RINvNtCsieiGu2EXtoJ_4core3ptr13drop_in_placeINtNtNtNtCslJiobkLta79_5alloc11collections5btree4node11SplitResultNtNtBP_6string6StringNtNtBL_7set_val9SetValZSTNtNtBJ_6marker8InternalEECs71axb73f1AC_14thiserror_impl, symObjAddr: 0x1CB0, symBinAddr: 0x370D0, symSize: 0x20 }
  - { offset: 0x98171, size: 0x8, addend: 0x0, symName: __RINvNtCsieiGu2EXtoJ_4core3ptr13drop_in_placeINtNtNtNtCslJiobkLta79_5alloc11collections5btree4node11SplitResultNtNtBP_6string6StringTINtNtBL_3set8BTreeSetB1K_EINtNtCsdGrGZaRBwMb_3syn10punctuated10PunctuatedNtCsaKzlTDPUHDb_11proc_macro211TokenStreamNtNtB2B_5token4PlusEENtNtBJ_6marker4LeafEECs71axb73f1AC_14thiserror_impl, symObjAddr: 0x1CD0, symBinAddr: 0x370F0, symSize: 0x20 }
  - { offset: 0x981A0, size: 0x8, addend: 0x0, symName: __RINvNtCsieiGu2EXtoJ_4core3ptr13drop_in_placeINtNtNtNtCslJiobkLta79_5alloc11collections5btree4node11SplitResultNtNtBP_6string6StringTINtNtBL_3set8BTreeSetB1K_EINtNtCsdGrGZaRBwMb_3syn10punctuated10PunctuatedNtCsaKzlTDPUHDb_11proc_macro211TokenStreamNtNtB2B_5token4PlusEENtNtBJ_6marker8InternalEECs71axb73f1AC_14thiserror_impl, symObjAddr: 0x1CF0, symBinAddr: 0x37110, symSize: 0x20 }
  - { offset: 0x981CF, size: 0x8, addend: 0x0, symName: __RINvNtCsieiGu2EXtoJ_4core3ptr13drop_in_placeINtNtNtNtNtB4_5slice4sort6shared9smallsort10CopyOnDropRNtCsaKzlTDPUHDb_11proc_macro25IdentEECs71axb73f1AC_14thiserror_impl, symObjAddr: 0x1D10, symBinAddr: 0x37130, symSize: 0x20 }
  - { offset: 0x981FE, size: 0x8, addend: 0x0, symName: __RINvNtCsieiGu2EXtoJ_4core3ptr13drop_in_placeINtNtNtNtNtB4_5slice4sort6stable5merge10MergeStateRNtCsaKzlTDPUHDb_11proc_macro25IdentEECs71axb73f1AC_14thiserror_impl, symObjAddr: 0x1D30, symBinAddr: 0x37150, symSize: 0x20 }
  - { offset: 0x9822D, size: 0x8, addend: 0x0, symName: __RINvNtCsieiGu2EXtoJ_4core3ptr13drop_in_placeINtNtNtNtNtCslJiobkLta79_5alloc11collections5btree3map5entry11VacantEntryNtNtBR_6string6StringTINtNtBN_3set8BTreeSetB1R_EINtNtCsdGrGZaRBwMb_3syn10punctuated10PunctuatedNtCsaKzlTDPUHDb_11proc_macro211TokenStreamNtNtB2I_5token4PlusEEEECs71axb73f1AC_14thiserror_impl, symObjAddr: 0x1D50, symBinAddr: 0x37170, symSize: 0x20 }
  - { offset: 0x9825C, size: 0x8, addend: 0x0, symName: __RINvNtCsieiGu2EXtoJ_4core3ptr13drop_in_placeINtNtNtNtNtCslJiobkLta79_5alloc11collections5btree3map5entry5EntryNtNtBR_6string6StringTINtNtBN_3set8BTreeSetB1K_EINtNtCsdGrGZaRBwMb_3syn10punctuated10PunctuatedNtCsaKzlTDPUHDb_11proc_macro211TokenStreamNtNtB2B_5token4PlusEEEECs71axb73f1AC_14thiserror_impl, symObjAddr: 0x1D70, symBinAddr: 0x37190, symSize: 0x40 }
  - { offset: 0x9828B, size: 0x8, addend: 0x0, symName: __RINvNtCsieiGu2EXtoJ_4core3ptr13drop_in_placeINtNvMsT_NtNtNtCslJiobkLta79_5alloc11collections5btree4nodeINtBP_6HandleINtBP_7NodeRefNtNtBP_6marker5DyingpppENtB26_2KVE12drop_key_val7DropperNtNtBR_7set_val9SetValZSTEECs71axb73f1AC_14thiserror_impl, symObjAddr: 0x1DB0, symBinAddr: 0x371D0, symSize: 0x20 }
  - { offset: 0x982BA, size: 0x8, addend: 0x0, symName: __RINvNtCsieiGu2EXtoJ_4core3ptr13drop_in_placeINtNvMsT_NtNtNtCslJiobkLta79_5alloc11collections5btree4nodeINtBP_6HandleINtBP_7NodeRefNtNtBP_6marker5DyingpppENtB26_2KVE12drop_key_val7DropperTINtNtBR_3set8BTreeSetNtNtBV_6string6StringEINtNtCsdGrGZaRBwMb_3syn10punctuated10PunctuatedNtCsaKzlTDPUHDb_11proc_macro211TokenStreamNtNtB3L_5token4PlusEEEECs71axb73f1AC_14thiserror_impl, symObjAddr: 0x1DD0, symBinAddr: 0x371F0, symSize: 0x20 }
  - { offset: 0x982E9, size: 0x8, addend: 0x0, symName: __RINvNtCsieiGu2EXtoJ_4core3ptr13drop_in_placeINtNvXsd_NtNtCslJiobkLta79_5alloc3vec9into_iterINtBP_8IntoIterppENtNtNtB4_3ops4drop4Drop4drop9DropGuardRNtCsaKzlTDPUHDb_11proc_macro25IdentNtNtBT_5alloc6GlobalEECs71axb73f1AC_14thiserror_impl, symObjAddr: 0x1E10, symBinAddr: 0x37210, symSize: 0x20 }
  - { offset: 0x98318, size: 0x8, addend: 0x0, symName: __RINvNtCsieiGu2EXtoJ_4core3ptr13drop_in_placeINtNvXsw_NtNtNtCslJiobkLta79_5alloc11collections5btree3mapINtBP_8IntoIterpppENtNtNtB4_3ops4drop4Drop4drop9DropGuardNtCsaKzlTDPUHDb_11proc_macro25IdentNtNtBR_7set_val9SetValZSTNtNtBV_5alloc6GlobalEECs71axb73f1AC_14thiserror_impl, symObjAddr: 0x1E30, symBinAddr: 0x37230, symSize: 0x20 }
  - { offset: 0x98347, size: 0x8, addend: 0x0, symName: __RINvNtCsieiGu2EXtoJ_4core3ptr13drop_in_placeINtNvXsw_NtNtNtCslJiobkLta79_5alloc11collections5btree3mapINtBP_8IntoIterpppENtNtNtB4_3ops4drop4Drop4drop9DropGuardNtNtBV_6string6StringNtNtBR_7set_val9SetValZSTNtNtBV_5alloc6GlobalEECs71axb73f1AC_14thiserror_impl, symObjAddr: 0x1E50, symBinAddr: 0x37250, symSize: 0x20 }
  - { offset: 0x98376, size: 0x8, addend: 0x0, symName: __RINvNtCsieiGu2EXtoJ_4core3ptr13drop_in_placeINtNvXsw_NtNtNtCslJiobkLta79_5alloc11collections5btree3mapINtBP_8IntoIterpppENtNtNtB4_3ops4drop4Drop4drop9DropGuardNtNtBV_6string6StringTINtNtBR_3set8BTreeSetB2x_EINtNtCsdGrGZaRBwMb_3syn10punctuated10PunctuatedNtCsaKzlTDPUHDb_11proc_macro211TokenStreamNtNtB3o_5token4PlusEENtNtBV_5alloc6GlobalEECs71axb73f1AC_14thiserror_impl, symObjAddr: 0x1E70, symBinAddr: 0x37270, symSize: 0x20 }
  - { offset: 0x983A5, size: 0x8, addend: 0x0, symName: __RINvNtCsieiGu2EXtoJ_4core3ptr13drop_in_placeINtNvXsw_NtNtNtCslJiobkLta79_5alloc11collections5btree3mapINtBP_8IntoIterpppENtNtNtB4_3ops4drop4Drop4drop9DropGuardRNtCsaKzlTDPUHDb_11proc_macro25IdentNtNtBR_7set_val9SetValZSTNtNtBV_5alloc6GlobalEECs71axb73f1AC_14thiserror_impl, symObjAddr: 0x1E90, symBinAddr: 0x37290, symSize: 0x20 }
  - { offset: 0x983D4, size: 0x8, addend: 0x0, symName: __RINvNtCsieiGu2EXtoJ_4core3ptr13drop_in_placeINtNvXsw_NtNtNtCslJiobkLta79_5alloc11collections5btree3mapINtBP_8IntoIterpppENtNtNtB4_3ops4drop4Drop4drop9DropGuardTjNtNtCs71axb73f1AC_14thiserror_impl4attr5TraitENtNtBR_7set_val9SetValZSTNtNtBV_5alloc6GlobalEEB2D_, symObjAddr: 0x1EB0, symBinAddr: 0x372B0, symSize: 0x20 }
  - { offset: 0x98403, size: 0x8, addend: 0x0, symName: __RINvNtCsieiGu2EXtoJ_4core3ptr13drop_in_placeNCINvMsi_NtCslJiobkLta79_5alloc3vecINtBP_3VecNtCsaKzlTDPUHDb_11proc_macro211TokenStreamE14extend_trustedINtNtNtNtB4_4iter8adapters3map3MapINtNtNtB4_5slice4iter4IterNtNtCs71axb73f1AC_14thiserror_impl3ast7VariantENCNvNtB3o_6expand9impl_enums1_0EE0EB3o_, symObjAddr: 0x1ED0, symBinAddr: 0x372D0, symSize: 0x20 }
  - { offset: 0x98432, size: 0x8, addend: 0x0, symName: __RINvNtCsieiGu2EXtoJ_4core3ptr13drop_in_placeNCINvNtNtNtB4_4iter8adapters3map8map_foldRNtNtCs71axb73f1AC_14thiserror_impl3ast7VariantNtCsaKzlTDPUHDb_11proc_macro211TokenStreamuNCNvNtB1q_6expand9impl_enums1_0NCINvNvNtNtNtBP_6traits8iterator8Iterator8for_each4callB26_NCINvMsi_NtCslJiobkLta79_5alloc3vecINtB4o_3VecB26_E14extend_trustedINtBL_3MapINtNtNtB4_5slice4iter4IterB1m_EB2N_EE0E0E0EB1q_, symObjAddr: 0x1EF0, symBinAddr: 0x372F0, symSize: 0x20 }
  - { offset: 0x98461, size: 0x8, addend: 0x0, symName: __RINvNtCsieiGu2EXtoJ_4core3ptr13drop_in_placeNCINvNvNtNtNtNtB4_4iter6traits8iterator8Iterator8for_each4callNtCsaKzlTDPUHDb_11proc_macro211TokenStreamNCINvMsi_NtCslJiobkLta79_5alloc3vecINtB2v_3VecB1G_E14extend_trustedINtNtNtBT_8adapters3map3MapINtNtNtB4_5slice4iter4IterNtNtCs71axb73f1AC_14thiserror_impl3ast7VariantENCNvNtB4m_6expand9impl_enums1_0EE0E0EB4m_, symObjAddr: 0x1F10, symBinAddr: 0x37310, symSize: 0x20 }
  - { offset: 0x98490, size: 0x8, addend: 0x0, symName: __RINvNtCsieiGu2EXtoJ_4core3ptr13drop_in_placeNCNCINvNtNtCscKtU6MdFI5n_10proc_macro6bridge6client10run_clientNtBN_11TokenStreamINtNtB4_6option6OptionB1H_ENCNCINvMs6_BN_INtBN_6ClientNtBR_11TokenStreamB2R_E7expand1NvCs71axb73f1AC_14thiserror_impl12derive_errorE00E00EB3o_, symObjAddr: 0x1F30, symBinAddr: 0x37330, symSize: 0x20 }
  - { offset: 0x984BF, size: 0x8, addend: 0x0, symName: __RINvNtCsieiGu2EXtoJ_4core3ptr13drop_in_placeNCNvNtCs71axb73f1AC_14thiserror_impl6expand11impl_structs0_0EBM_, symObjAddr: 0x1F50, symBinAddr: 0x37350, symSize: 0x20 }
  - { offset: 0x984EE, size: 0x8, addend: 0x0, symName: __RINvNtCsieiGu2EXtoJ_4core3ptr13drop_in_placeNtNtCs71axb73f1AC_14thiserror_impl3ast4EnumEBK_, symObjAddr: 0x1F70, symBinAddr: 0x37370, symSize: 0x90 }
  - { offset: 0x9851D, size: 0x8, addend: 0x0, symName: __RINvNtCsieiGu2EXtoJ_4core3ptr13drop_in_placeNtNtCs71axb73f1AC_14thiserror_impl3ast5FieldEBK_, symObjAddr: 0x2000, symBinAddr: 0x37400, symSize: 0x60 }
  - { offset: 0x9854C, size: 0x8, addend: 0x0, symName: __RINvNtCsieiGu2EXtoJ_4core3ptr13drop_in_placeNtNtCs71axb73f1AC_14thiserror_impl3ast5InputEBK_, symObjAddr: 0x2060, symBinAddr: 0x37460, symSize: 0x40 }
  - { offset: 0x9857B, size: 0x8, addend: 0x0, symName: __RINvNtCsieiGu2EXtoJ_4core3ptr13drop_in_placeNtNtCs71axb73f1AC_14thiserror_impl3ast6StructEBK_, symObjAddr: 0x20A0, symBinAddr: 0x374A0, symSize: 0x90 }
  - { offset: 0x985AA, size: 0x8, addend: 0x0, symName: __RINvNtCsieiGu2EXtoJ_4core3ptr13drop_in_placeNtNtCs71axb73f1AC_14thiserror_impl3ast7VariantEBK_, symObjAddr: 0x2130, symBinAddr: 0x37530, symSize: 0x90 }
  - { offset: 0x985D9, size: 0x8, addend: 0x0, symName: __RINvNtCsieiGu2EXtoJ_4core3ptr13drop_in_placeNtNtCs71axb73f1AC_14thiserror_impl3fmt12FmtArgumentsEBK_, symObjAddr: 0x21C0, symBinAddr: 0x375C0, symSize: 0x20 }
  - { offset: 0x98608, size: 0x8, addend: 0x0, symName: __RINvNtCsieiGu2EXtoJ_4core3ptr13drop_in_placeNtNtCs71axb73f1AC_14thiserror_impl4attr5AttrsEBK_, symObjAddr: 0x21E0, symBinAddr: 0x375E0, symSize: 0x20 }
  - { offset: 0x98637, size: 0x8, addend: 0x0, symName: __RINvNtCsieiGu2EXtoJ_4core3ptr13drop_in_placeNtNtCs71axb73f1AC_14thiserror_impl4attr7DisplayEBK_, symObjAddr: 0x2200, symBinAddr: 0x37600, symSize: 0x80 }
  - { offset: 0x98666, size: 0x8, addend: 0x0, symName: __RINvNtCsieiGu2EXtoJ_4core3ptr13drop_in_placeNtNtCs71axb73f1AC_14thiserror_impl8generics13ParamsInScopeEBK_, symObjAddr: 0x2280, symBinAddr: 0x37680, symSize: 0x20 }
  - { offset: 0x98695, size: 0x8, addend: 0x0, symName: __RINvNtCsieiGu2EXtoJ_4core3ptr13drop_in_placeNtNtCs71axb73f1AC_14thiserror_impl8generics14InferredBoundsEBK_, symObjAddr: 0x22A0, symBinAddr: 0x376A0, symSize: 0x60 }
  - { offset: 0x986C4, size: 0x8, addend: 0x0, symName: __RINvNtCsieiGu2EXtoJ_4core3ptr13drop_in_placeNtNtCsdGrGZaRBwMb_3syn6derive11DeriveInputECs71axb73f1AC_14thiserror_impl, symObjAddr: 0x2300, symBinAddr: 0x37700, symSize: 0xF0 }
  - { offset: 0x986F3, size: 0x8, addend: 0x0, symName: __RINvNtCsieiGu2EXtoJ_4core3ptr13drop_in_placeNtNtCsdGrGZaRBwMb_3syn8generics10TypeParamsECs71axb73f1AC_14thiserror_impl, symObjAddr: 0x23F0, symBinAddr: 0x377F0, symSize: 0x20 }
  - { offset: 0x98722, size: 0x8, addend: 0x0, symName: __RINvNtCsieiGu2EXtoJ_4core3ptr13drop_in_placeNtNtNtCsHUR1vrdMJt_3std2io5error5ErrorECs71axb73f1AC_14thiserror_impl, symObjAddr: 0x2410, symBinAddr: 0x37810, symSize: 0x20 }
  - { offset: 0x98751, size: 0x8, addend: 0x0, symName: __RINvNtCsieiGu2EXtoJ_4core3ptr13drop_in_placeNtNtNtCsHUR1vrdMJt_3std2io5error6CustomECs71axb73f1AC_14thiserror_impl, symObjAddr: 0x2430, symBinAddr: 0x37830, symSize: 0x20 }
  - { offset: 0x98780, size: 0x8, addend: 0x0, symName: __RINvNtCsieiGu2EXtoJ_4core3ptr13drop_in_placeNtNtNtCscKtU6MdFI5n_10proc_macro6bridge3rpc12PanicMessageECs71axb73f1AC_14thiserror_impl, symObjAddr: 0x2450, symBinAddr: 0x37850, symSize: 0x50 }
  - { offset: 0x987AF, size: 0x8, addend: 0x0, symName: __RINvNtCsieiGu2EXtoJ_4core3ptr13drop_in_placeNtNtNtCscKtU6MdFI5n_10proc_macro6bridge6buffer6BufferECs71axb73f1AC_14thiserror_impl, symObjAddr: 0x24A0, symBinAddr: 0x378A0, symSize: 0x20 }
  - { offset: 0x987DE, size: 0x8, addend: 0x0, symName: __RINvNtCsieiGu2EXtoJ_4core3ptr13drop_in_placeNtNtNtCscKtU6MdFI5n_10proc_macro6bridge6client6BridgeECs71axb73f1AC_14thiserror_impl, symObjAddr: 0x24C0, symBinAddr: 0x378C0, symSize: 0x20 }
  - { offset: 0x9880D, size: 0x8, addend: 0x0, symName: __RINvNtCsieiGu2EXtoJ_4core3ptr13drop_in_placeNtNtNtNtCsHUR1vrdMJt_3std2io5error14repr_bitpacked4ReprECs71axb73f1AC_14thiserror_impl, symObjAddr: 0x24E0, symBinAddr: 0x378E0, symSize: 0x20 }
  - { offset: 0x9883C, size: 0x8, addend: 0x0, symName: __RINvNtCsieiGu2EXtoJ_4core3ptr13drop_in_placeNtNvNtNtNtCscKtU6MdFI5n_10proc_macro6bridge6client5state3set13RestoreOnDropECs71axb73f1AC_14thiserror_impl, symObjAddr: 0x2500, symBinAddr: 0x37900, symSize: 0x20 }
  - { offset: 0x9886B, size: 0x8, addend: 0x0, symName: __RINvNtCsieiGu2EXtoJ_4core3ptr13drop_in_placeNtNvNtNtNtCslJiobkLta79_5alloc11collections5btree3mem7replace10PanicGuardECs71axb73f1AC_14thiserror_impl, symObjAddr: 0x2520, symBinAddr: 0x37920, symSize: 0x20 }
  - { offset: 0x9889A, size: 0x8, addend: 0x0, symName: __RINvNtCsieiGu2EXtoJ_4core3ptr13drop_in_placeSNtCsaKzlTDPUHDb_11proc_macro211TokenStreamECs71axb73f1AC_14thiserror_impl, symObjAddr: 0x2540, symBinAddr: 0x37940, symSize: 0xA0 }
  - { offset: 0x988C9, size: 0x8, addend: 0x0, symName: __RINvNtCsieiGu2EXtoJ_4core3ptr13drop_in_placeSNtNtCs71axb73f1AC_14thiserror_impl3ast5FieldEBL_, symObjAddr: 0x25E0, symBinAddr: 0x379E0, symSize: 0xA0 }
  - { offset: 0x988F8, size: 0x8, addend: 0x0, symName: __RINvNtCsieiGu2EXtoJ_4core3ptr13drop_in_placeSNtNtCs71axb73f1AC_14thiserror_impl3ast7VariantEBL_, symObjAddr: 0x2680, symBinAddr: 0x37A80, symSize: 0xA0 }
  - { offset: 0x98927, size: 0x8, addend: 0x0, symName: __RINvNtCsieiGu2EXtoJ_4core3ptr13drop_in_placeSTNtCsaKzlTDPUHDb_11proc_macro211TokenStreamNtNtCsdGrGZaRBwMb_3syn5token4PlusEECs71axb73f1AC_14thiserror_impl, symObjAddr: 0x2720, symBinAddr: 0x37B20, symSize: 0xA0 }
  - { offset: 0x98956, size: 0x8, addend: 0x0, symName: __RINvNtCsieiGu2EXtoJ_4core3ptr13drop_in_placeTINtNtB4_6option6OptionINtNtB4_6result6ResultNtNtCsdGrGZaRBwMb_3syn4expr5IndexNtNtB1t_5error5ErrorEEBH_BH_EECs71axb73f1AC_14thiserror_impl, symObjAddr: 0x27C0, symBinAddr: 0x37BC0, symSize: 0x90 }
  - { offset: 0x98985, size: 0x8, addend: 0x0, symName: __RINvNtCsieiGu2EXtoJ_4core3ptr13drop_in_placeTINtNtNtNtCslJiobkLta79_5alloc11collections5btree3set8BTreeSetNtNtBQ_6string6StringEINtNtCsdGrGZaRBwMb_3syn10punctuated10PunctuatedNtCsaKzlTDPUHDb_11proc_macro211TokenStreamNtNtB27_5token4PlusEEECs71axb73f1AC_14thiserror_impl, symObjAddr: 0x2850, symBinAddr: 0x37C50, symSize: 0x60 }
  - { offset: 0x989B4, size: 0x8, addend: 0x0, symName: __RINvNtCsieiGu2EXtoJ_4core3ptr13drop_in_placeTNtCsaKzlTDPUHDb_11proc_macro211TokenStreamNtNtCsdGrGZaRBwMb_3syn5token4PlusEECs71axb73f1AC_14thiserror_impl, symObjAddr: 0x28B0, symBinAddr: 0x37CB0, symSize: 0x20 }
  - { offset: 0x989E3, size: 0x8, addend: 0x0, symName: __RINvNtCsieiGu2EXtoJ_4core3ptr13drop_in_placeTNtCsaKzlTDPUHDb_11proc_macro25IdentNtNtNtNtCslJiobkLta79_5alloc11collections5btree7set_val9SetValZSTEECs71axb73f1AC_14thiserror_impl, symObjAddr: 0x28D0, symBinAddr: 0x37CD0, symSize: 0x20 }
  - { offset: 0x98A12, size: 0x8, addend: 0x0, symName: __RINvNtCsieiGu2EXtoJ_4core3ptr13drop_in_placeTNtNtCslJiobkLta79_5alloc6string6StringNtNtNtNtBL_11collections5btree7set_val9SetValZSTEECs71axb73f1AC_14thiserror_impl, symObjAddr: 0x28F0, symBinAddr: 0x37CF0, symSize: 0x20 }
  - { offset: 0x98A41, size: 0x8, addend: 0x0, symName: __RINvNtCsieiGu2EXtoJ_4core3ptr13drop_in_placeTNtNtCslJiobkLta79_5alloc6string6StringTINtNtNtNtBL_11collections5btree3set8BTreeSetBH_EINtNtCsdGrGZaRBwMb_3syn10punctuated10PunctuatedNtCsaKzlTDPUHDb_11proc_macro211TokenStreamNtNtB2b_5token4PlusEEEECs71axb73f1AC_14thiserror_impl, symObjAddr: 0x2910, symBinAddr: 0x37D10, symSize: 0x60 }
  - { offset: 0x98EA7, size: 0x8, addend: 0x0, symName: __RNCINvNvXs_NtNtNtCsieiGu2EXtoJ_4core4iter8adapters9enumerateINtB9_9EnumeratepENtNtNtBd_6traits8iterator8Iterator8try_fold9enumerateRNtNtCsdGrGZaRBwMb_3syn4data5FielduINtNtNtBf_3ops12control_flow11ControlFlowIB2F_NtNtCs71axb73f1AC_14thiserror_impl3ast5FieldEENCINvNtBb_3map12map_try_foldTjB25_EINtNtBf_6result6ResultB3o_NtNtB2a_5error5ErrorEuB2E_NCNvMs2_B3q_B3o_17multiple_from_syn0NCINvXBb_INtBb_12GenericShuntINtB4d_3MapIBX_INtNtB2a_10punctuated4IterB26_EEB5x_EIB4I_NtNtBf_7convert10InfallibleB57_EEB1e_8try_folduNCINvNvB1e_12try_for_each4callB3o_B3j_NcNtB3j_5Break0E0B3j_E0E0E0B3s_, symObjAddr: 0x3020, symBinAddr: 0x38420, symSize: 0xE0 }
  - { offset: 0x98F3F, size: 0x8, addend: 0x0, symName: __RINvXs_NtNtNtCsieiGu2EXtoJ_4core4iter8adapters9enumerateINtB5_9EnumerateINtNtCsdGrGZaRBwMb_3syn10punctuated4IterNtNtB1d_4data5FieldEENtNtNtB9_6traits8iterator8Iterator8try_folduNCINvNtB7_3map12map_try_foldTjRB1M_EINtNtBb_6result6ResultNtNtCs71axb73f1AC_14thiserror_impl3ast5FieldNtNtB1d_5error5ErrorEuINtNtNtBb_3ops12control_flow11ControlFlowIB4Q_B3L_EENCNvMs2_B3N_B3L_17multiple_from_syn0NCINvXB7_INtB7_12GenericShuntINtB2U_3MapBS_B5F_EIB3q_NtNtBb_7convert10InfallibleB4t_EEB27_8try_folduNCINvNvB27_12try_for_each4callB3L_B5u_NcNtB5u_5Break0E0B5u_E0E0B4P_EB3P_, symObjAddr: 0x2E70, symBinAddr: 0x38270, symSize: 0x50 }
  - { offset: 0x98FD1, size: 0x8, addend: 0x0, symName: __RNvXs_NtNtNtCsieiGu2EXtoJ_4core4iter8adapters9enumerateINtB4_9EnumerateINtNtCsdGrGZaRBwMb_3syn10punctuated4IterNtNtB1c_4data5FieldEENtNtNtB8_6traits8iterator8Iterator9size_hintCs71axb73f1AC_14thiserror_impl, symObjAddr: 0x3D90, symBinAddr: 0x39190, symSize: 0x30 }
  - { offset: 0x99006, size: 0x8, addend: 0x0, symName: __RNvXs_NtNtNtCsieiGu2EXtoJ_4core4iter8adapters9enumerateINtB4_9EnumerateINtNtNtBa_5slice4iter4IterNtCsaKzlTDPUHDb_11proc_macro25IdentEENtNtNtB8_6traits8iterator8Iterator4nextCs71axb73f1AC_14thiserror_impl, symObjAddr: 0x3DC0, symBinAddr: 0x391C0, symSize: 0xE0 }
  - { offset: 0x990EC, size: 0x8, addend: 0x0, symName: __RNvXs_NtNtNtCsieiGu2EXtoJ_4core4iter8adapters9enumerateINtB4_9EnumerateINtNtNtBa_5slice4iter4IterNtNtCs71axb73f1AC_14thiserror_impl3ast5FieldEENtNtNtB8_6traits8iterator8Iterator4nextB1B_, symObjAddr: 0x3EA0, symBinAddr: 0x392A0, symSize: 0xE0 }
  - { offset: 0x991D2, size: 0x8, addend: 0x0, symName: __RNvXs_NtNtNtCsieiGu2EXtoJ_4core4iter8adapters9enumerateINtB4_9EnumerateINtNtNtBa_5slice4iter4IterNtNtCslJiobkLta79_5alloc6string6StringEENtNtNtB8_6traits8iterator8Iterator4nextCs71axb73f1AC_14thiserror_impl, symObjAddr: 0x3F80, symBinAddr: 0x39380, symSize: 0xE0 }
  - { offset: 0x992B8, size: 0x8, addend: 0x0, symName: __RNvXs_NtNtNtCsieiGu2EXtoJ_4core4iter8adapters9enumerateINtB4_9EnumerateINtNtNtBa_5slice4iter4IterRNtCsaKzlTDPUHDb_11proc_macro25IdentEENtNtNtB8_6traits8iterator8Iterator4nextCs71axb73f1AC_14thiserror_impl, symObjAddr: 0x4060, symBinAddr: 0x39460, symSize: 0xE0 }
  - { offset: 0x9939E, size: 0x8, addend: 0x0, symName: __RNvXs_NtNtNtCsieiGu2EXtoJ_4core4iter8adapters9enumerateINtB4_9EnumerateINtNtNtBa_5slice4iter4IterTjNtNtCs71axb73f1AC_14thiserror_impl4attr5TraitEEENtNtNtB8_6traits8iterator8Iterator4nextB1D_, symObjAddr: 0x4140, symBinAddr: 0x39540, symSize: 0xE0 }
  - { offset: 0x99641, size: 0x8, addend: 0x0, symName: __RINvYINtNtNtNtCsieiGu2EXtoJ_4core4iter8adapters9enumerate9EnumerateINtNtCsdGrGZaRBwMb_3syn10punctuated4IterNtNtB18_4data5FieldEENtNtNtBa_6traits8iterator8Iterator3mapINtNtBc_6result6ResultNtNtCs71axb73f1AC_14thiserror_impl3ast5FieldNtNtB18_5error5ErrorENCNvMs2_B32_B30_17multiple_from_syn0EB34_, symObjAddr: 0x2FF0, symBinAddr: 0x383F0, symSize: 0x30 }
  - { offset: 0x996DA, size: 0x8, addend: 0x0, symName: __RNvXNtNtNtCsieiGu2EXtoJ_4core4iter6traits7collectINtNtNtB6_8adapters9enumerate9EnumerateINtNtNtB8_5slice4iter4IterNtNtCs71axb73f1AC_14thiserror_impl3ast5FieldEENtB2_12IntoIterator9into_iterB1S_, symObjAddr: 0x37A0, symBinAddr: 0x38BA0, symSize: 0x20 }
  - { offset: 0x9971D, size: 0x8, addend: 0x0, symName: __RNvYINtNtCsieiGu2EXtoJ_4core6option8IntoIterRNtNtCsdGrGZaRBwMb_3syn4data7VariantENtNtNtNtB7_4iter6traits10exact_size17ExactSizeIterator3lenCs71axb73f1AC_14thiserror_impl, symObjAddr: 0x46B0, symBinAddr: 0x39AB0, symSize: 0xE0 }
  - { offset: 0x9981D, size: 0x8, addend: 0x0, symName: __RNvYINtNtCsieiGu2EXtoJ_4core6option8IntoIterRNtNtCsdGrGZaRBwMb_3syn4path15GenericArgumentENtNtNtNtB7_4iter6traits10exact_size17ExactSizeIterator3lenCs71axb73f1AC_14thiserror_impl, symObjAddr: 0x4790, symBinAddr: 0x39B90, symSize: 0xE0 }
  - { offset: 0x99B2E, size: 0x8, addend: 0x0, symName: __RINvNtNtNtNtCsieiGu2EXtoJ_4core5slice4sort6shared5pivot11median3_recRNtCsaKzlTDPUHDb_11proc_macro25IdentNvYB14_NtNtBa_3cmp10PartialOrd2ltECs71axb73f1AC_14thiserror_impl, symObjAddr: 0x2970, symBinAddr: 0x37D70, symSize: 0x250 }
  - { offset: 0x99D32, size: 0x8, addend: 0x0, symName: __RINvNtNtNtNtCsieiGu2EXtoJ_4core5slice4sort6shared5pivot12choose_pivotRNtCsaKzlTDPUHDb_11proc_macro25IdentNvYB15_NtNtBa_3cmp10PartialOrd2ltECs71axb73f1AC_14thiserror_impl, symObjAddr: 0x2BC0, symBinAddr: 0x37FC0, symSize: 0x280 }
  - { offset: 0x9A52F, size: 0x8, addend: 0x0, symName: __RINvXs9_NtNtCsieiGu2EXtoJ_4core4hash5implsmNtB8_4Hash4hashNtNtNtCsHUR1vrdMJt_3std4hash6random13DefaultHasherECs71axb73f1AC_14thiserror_impl, symObjAddr: 0x2E40, symBinAddr: 0x38240, symSize: 0x30 }
  - { offset: 0x9AA58, size: 0x8, addend: 0x0, symName: __RNSNvYNCINvMs6_NtCsjK30CmJ87bX_9hashbrown3rawINtBd_8RawTableTRNtNtCsdGrGZaRBwMb_3syn4expr6MemberjEE14reserve_rehashNCINvNtBf_3map11make_hasherBX_jNtNtNtCsHUR1vrdMJt_3std4hash6random11RandomStateE0E0INtNtNtCsieiGu2EXtoJ_4core3ops8function6FnOnceTQNtBd_13RawTableInnerjEE9call_once6vtableCs71axb73f1AC_14thiserror_impl, symObjAddr: 0x3120, symBinAddr: 0x38520, symSize: 0x30 }
  - { offset: 0x9AA9C, size: 0x8, addend: 0x0, symName: __RNSNvYNCINvMs6_NtCsjK30CmJ87bX_9hashbrown3rawINtBd_8RawTableTRNtNtCsdGrGZaRBwMb_3syn4expr6MemberjEE24find_or_find_insert_slotNCINvNtBf_3map14equivalent_keyBX_BX_jE0NCINvB24_11make_hasherBX_jNtNtNtCsHUR1vrdMJt_3std4hash6random11RandomStateE0E0INtNtNtCsieiGu2EXtoJ_4core3ops8function6FnOnceTjEE9call_once6vtableCs71axb73f1AC_14thiserror_impl, symObjAddr: 0x3150, symBinAddr: 0x38550, symSize: 0x30 }
  - { offset: 0x9AAE0, size: 0x8, addend: 0x0, symName: __RNSNvYNCINvMs6_NtCsjK30CmJ87bX_9hashbrown3rawINtBd_8RawTableTRNtNtCsdGrGZaRBwMb_3syn4expr6MemberjEE4findNCINvNtBf_3map14equivalent_keyBY_BX_jE0E0INtNtNtCsieiGu2EXtoJ_4core3ops8function6FnOnceTjEE9call_once6vtableCs71axb73f1AC_14thiserror_impl, symObjAddr: 0x3180, symBinAddr: 0x38580, symSize: 0x30 }
  - { offset: 0x9AB24, size: 0x8, addend: 0x0, symName: __RNvYNCINvMs6_NtCsjK30CmJ87bX_9hashbrown3rawINtBb_8RawTableTRNtNtCsdGrGZaRBwMb_3syn4expr6MemberjEE14reserve_rehashNCINvNtBd_3map11make_hasherBV_jNtNtNtCsHUR1vrdMJt_3std4hash6random11RandomStateE0E0INtNtNtCsieiGu2EXtoJ_4core3ops8function6FnOnceTQNtBb_13RawTableInnerjEE9call_onceCs71axb73f1AC_14thiserror_impl, symObjAddr: 0x48B0, symBinAddr: 0x39CB0, symSize: 0x50 }
  - { offset: 0x9AB68, size: 0x8, addend: 0x0, symName: __RNvYNCINvMs6_NtCsjK30CmJ87bX_9hashbrown3rawINtBb_8RawTableTRNtNtCsdGrGZaRBwMb_3syn4expr6MemberjEE24find_or_find_insert_slotNCINvNtBd_3map14equivalent_keyBV_BV_jE0NCINvB22_11make_hasherBV_jNtNtNtCsHUR1vrdMJt_3std4hash6random11RandomStateE0E0INtNtNtCsieiGu2EXtoJ_4core3ops8function6FnOnceTjEE9call_onceCs71axb73f1AC_14thiserror_impl, symObjAddr: 0x4900, symBinAddr: 0x39D00, symSize: 0x50 }
  - { offset: 0x9ABAC, size: 0x8, addend: 0x0, symName: __RNvYNCINvMs6_NtCsjK30CmJ87bX_9hashbrown3rawINtBb_8RawTableTRNtNtCsdGrGZaRBwMb_3syn4expr6MemberjEE4findNCINvNtBd_3map14equivalent_keyBW_BV_jE0E0INtNtNtCsieiGu2EXtoJ_4core3ops8function6FnOnceTjEE9call_onceCs71axb73f1AC_14thiserror_impl, symObjAddr: 0x4950, symBinAddr: 0x39D50, symSize: 0x50 }
  - { offset: 0x9ABF0, size: 0x8, addend: 0x0, symName: __RNvYNCNkNvNtNtNtCscKtU6MdFI5n_10proc_macro6bridge6client5state12BRIDGE_STATE0s_0INtNtNtCsieiGu2EXtoJ_4core3ops8function6FnOnceTINtNtB1n_6option6OptionQIB22_INtNtB1n_4cell4CellPuEEEEE9call_onceCs71axb73f1AC_14thiserror_impl, symObjAddr: 0x49A0, symBinAddr: 0x39DA0, symSize: 0x40 }
  - { offset: 0x9AC34, size: 0x8, addend: 0x0, symName: __RNvYNCNkNvNvMNtNtCsHUR1vrdMJt_3std4hash6randomNtBb_11RandomState3new4KEYS0s_0INtNtNtCsieiGu2EXtoJ_4core3ops8function6FnOnceTINtNtB1k_6option6OptionQIB1Z_INtNtB1k_4cell4CellTyyEEEEEE9call_onceCs71axb73f1AC_14thiserror_impl, symObjAddr: 0x49E0, symBinAddr: 0x39DE0, symSize: 0x40 }
  - { offset: 0x9AC78, size: 0x8, addend: 0x0, symName: __RNvYNCNvNtCs71axb73f1AC_14thiserror_impl4attr21parse_error_attribute0INtNtNtCsieiGu2EXtoJ_4core3ops8function6FnOnceTRNtNtCsdGrGZaRBwMb_3syn5parse11ParseBufferEE9call_onceB8_, symObjAddr: 0x4A20, symBinAddr: 0x39E20, symSize: 0x40 }
  - { offset: 0x9ACBD, size: 0x8, addend: 0x0, symName: __RNvYNcNtINtNtCsdGrGZaRBwMb_3syn10punctuated4PairRNtCsaKzlTDPUHDb_11proc_macro211TokenStreamRNtNtBb_5token4PlusE3End0INtNtNtCsieiGu2EXtoJ_4core3ops8function6FnOnceTBK_EE9call_onceCs71axb73f1AC_14thiserror_impl, symObjAddr: 0x4A60, symBinAddr: 0x39E60, symSize: 0x30 }
  - { offset: 0x9AD01, size: 0x8, addend: 0x0, symName: __RNvYNcNtNtNtCs71axb73f1AC_14thiserror_impl3ast5Input4Enum0INtNtNtCsieiGu2EXtoJ_4core3ops8function6FnOnceTNtB8_4EnumEE9call_onceBa_, symObjAddr: 0x4B70, symBinAddr: 0x39F70, symSize: 0x50 }
  - { offset: 0x9AD46, size: 0x8, addend: 0x0, symName: __RNvYNcNtNtNtCs71axb73f1AC_14thiserror_impl3ast5Input6Struct0INtNtNtCsieiGu2EXtoJ_4core3ops8function6FnOnceTNtB8_6StructEE9call_onceBa_, symObjAddr: 0x4BC0, symBinAddr: 0x39FC0, symSize: 0x50 }
  - { offset: 0x9AD8B, size: 0x8, addend: 0x0, symName: __RNvYNcNtNtNtCsdGrGZaRBwMb_3syn4expr6Member5Named0INtNtNtCsieiGu2EXtoJ_4core3ops8function6FnOnceTNtCsaKzlTDPUHDb_11proc_macro25IdentEE9call_onceCs71axb73f1AC_14thiserror_impl, symObjAddr: 0x4C10, symBinAddr: 0x3A010, symSize: 0x40 }
  - { offset: 0x9ADCF, size: 0x8, addend: 0x0, symName: __RNvYNvNtCs71axb73f1AC_14thiserror_impl3fmt11is_syn_fullINtNtNtCsieiGu2EXtoJ_4core3ops8function6FnOnceuE9call_onceB6_, symObjAddr: 0x4D00, symBinAddr: 0x3A100, symSize: 0x20 }
  - { offset: 0x9AE13, size: 0x8, addend: 0x0, symName: __RNvYNvNtCs71axb73f1AC_14thiserror_impl3fmt19explicit_named_argsINtNtNtCsieiGu2EXtoJ_4core3ops8function6FnOnceTRNtNtCsdGrGZaRBwMb_3syn5parse11ParseBufferEE9call_onceB6_, symObjAddr: 0x4D20, symBinAddr: 0x3A120, symSize: 0x30 }
  - { offset: 0x9AE57, size: 0x8, addend: 0x0, symName: __RNvYNvNvNvMNtNtCsHUR1vrdMJt_3std4hash6randomNtB9_11RandomState3new4KEYS6___initINtNtNtCsieiGu2EXtoJ_4core3ops8function6FnOnceuE9call_onceCs71axb73f1AC_14thiserror_impl, symObjAddr: 0x4DA0, symBinAddr: 0x3A1A0, symSize: 0x20 }
  - { offset: 0x9AE9B, size: 0x8, addend: 0x0, symName: __RNvYNvYINtNtCslJiobkLta79_5alloc5boxed3BoxNtCsaKzlTDPUHDb_11proc_macro211TokenStreamEINtNtCsieiGu2EXtoJ_4core7convert5AsRefBE_E6as_refINtNtNtB1q_3ops8function6FnOnceTRB5_EE9call_onceCs71axb73f1AC_14thiserror_impl, symObjAddr: 0x4DC0, symBinAddr: 0x3A1C0, symSize: 0x20 }
  - { offset: 0x9AEDF, size: 0x8, addend: 0x0, symName: __RNvYNvYNtCsaKzlTDPUHDb_11proc_macro25IdentNtNtCsdGrGZaRBwMb_3syn3ext8IdentExt9parse_anyINtNtNtCsieiGu2EXtoJ_4core3ops8function6FnOnceTRNtNtBI_5parse11ParseBufferEE9call_onceCs71axb73f1AC_14thiserror_impl, symObjAddr: 0x4DE0, symBinAddr: 0x3A1E0, symSize: 0x30 }
  - { offset: 0x9AF23, size: 0x8, addend: 0x0, symName: __RNvYNvYNtNtCsdGrGZaRBwMb_3syn4expr4ExprNtNtB9_5parse5Parse5parseINtNtNtCsieiGu2EXtoJ_4core3ops8function6FnOnceTRNtBD_11ParseBufferEE9call_onceCs71axb73f1AC_14thiserror_impl, symObjAddr: 0x4E10, symBinAddr: 0x3A210, symSize: 0x30 }
  - { offset: 0x9AF67, size: 0x8, addend: 0x0, symName: __RNvYNvYNtNtCsdGrGZaRBwMb_3syn6derive11DeriveInputNtNtB9_5parse5Parse5parseINtNtNtCsieiGu2EXtoJ_4core3ops8function6FnOnceTRNtBN_11ParseBufferEE9call_onceCs71axb73f1AC_14thiserror_impl, symObjAddr: 0x4E40, symBinAddr: 0x3A240, symSize: 0x30 }
  - { offset: 0x9AFAB, size: 0x8, addend: 0x0, symName: __RNvYNvYNtNtCsdGrGZaRBwMb_3syn8generics14WherePredicateNtNtB9_11parse_quote10ParseQuote5parseINtNtNtCsieiGu2EXtoJ_4core3ops8function6FnOnceTRNtNtB9_5parse11ParseBufferEE9call_onceCs71axb73f1AC_14thiserror_impl, symObjAddr: 0x4E70, symBinAddr: 0x3A270, symSize: 0x30 }
  - { offset: 0x9AFF5, size: 0x8, addend: 0x0, symName: __RNvYINvCsdGrGZaRBwMb_3syn9parse_strNtNtB5_4expr5IndexEINtNtNtCsieiGu2EXtoJ_4core3ops8function5FnMutTReEE8call_mutCs71axb73f1AC_14thiserror_impl, symObjAddr: 0x4870, symBinAddr: 0x39C70, symSize: 0x40 }
  - { offset: 0x9B039, size: 0x8, addend: 0x0, symName: __RNvYNcNtINtNtNtCsieiGu2EXtoJ_4core3ops12control_flow11ControlFlowNtNtCs71axb73f1AC_14thiserror_impl3ast5FieldE5Break0INtNtBb_8function5FnMutTB11_EE8call_mutB15_, symObjAddr: 0x4A90, symBinAddr: 0x39E90, symSize: 0x70 }
  - { offset: 0x9B07E, size: 0x8, addend: 0x0, symName: __RNvYNcNtINtNtNtCsieiGu2EXtoJ_4core3ops12control_flow11ControlFlowNtNtCs71axb73f1AC_14thiserror_impl3ast7VariantE5Break0INtNtBb_8function5FnMutTB11_EE8call_mutB15_, symObjAddr: 0x4B00, symBinAddr: 0x39F00, symSize: 0x70 }
  - { offset: 0x9B0C3, size: 0x8, addend: 0x0, symName: __RNvYNvNtCsaKzlTDPUHDb_11proc_macro23imp19into_compiler_tokenINtNtNtCsieiGu2EXtoJ_4core3ops8function5FnMutTNtB6_9TokenTreeEE8call_mutCs71axb73f1AC_14thiserror_impl, symObjAddr: 0x4D50, symBinAddr: 0x3A150, symSize: 0x50 }
  - { offset: 0x9B107, size: 0x8, addend: 0x0, symName: __RNvYNvYRNtCsaKzlTDPUHDb_11proc_macro25IdentNtNtCsieiGu2EXtoJ_4core3cmp10PartialOrd2ltINtNtNtBJ_3ops8function5FnMutTRB5_B1P_EE8call_mutCs71axb73f1AC_14thiserror_impl, symObjAddr: 0x4EA0, symBinAddr: 0x3A2A0, symSize: 0x30 }
  - { offset: 0x9B151, size: 0x8, addend: 0x0, symName: __RNvYNvCs71axb73f1AC_14thiserror_impl12derive_errorINtNtNtCsieiGu2EXtoJ_4core3ops8function2FnTNtCscKtU6MdFI5n_10proc_macro11TokenStreamEE4callB4_, symObjAddr: 0x4CE0, symBinAddr: 0x3A0E0, symSize: 0x20 }
  - { offset: 0x9B73C, size: 0x8, addend: 0x0, symName: __RNvYTjNtNtCs71axb73f1AC_14thiserror_impl4attr5TraitENtNtCsieiGu2EXtoJ_4core5clone5Clone5cloneB8_, symObjAddr: 0x4ED0, symBinAddr: 0x3A2D0, symSize: 0x60 }
  - { offset: 0xA10F7, size: 0x8, addend: 0x0, symName: __RNvXsb_NtCsdGrGZaRBwMb_3syn5parseINtNtCsieiGu2EXtoJ_4core6option6OptionNtCsaKzlTDPUHDb_11proc_macro29TokenTreeENtB5_5Parse5parseCs71axb73f1AC_14thiserror_impl, symObjAddr: 0x43A0, symBinAddr: 0x397A0, symSize: 0x1B0 }
  - { offset: 0xA3BA6, size: 0x8, addend: 0x0, symName: __RNvXs_NtNtNtCslJiobkLta79_5alloc11collections5btree17dedup_sorted_iterINtB4_15DedupSortedIterRNtCsaKzlTDPUHDb_11proc_macro25IdentNtNtB6_7set_val9SetValZSTINtNtNtNtCsieiGu2EXtoJ_4core4iter8adapters3map3MapINtNtNtBa_3vec9into_iter8IntoIterB1t_ENCINvMse_NtB6_3setINtB41_8BTreeSetB1t_E16from_sorted_iterB3g_E0EENtNtNtB2z_6traits8iterator8Iterator4nextCs71axb73f1AC_14thiserror_impl, symObjAddr: 0x4220, symBinAddr: 0x39620, symSize: 0x180 }
  - { offset: 0xA4819, size: 0x8, addend: 0x0, symName: __RINvMNtCsieiGu2EXtoJ_4core6optionINtB3_6OptionIBw_RNtNtCsdGrGZaRBwMb_3syn4expr6MemberEE18get_or_insert_withNCNvMs3_NtNtNtB5_4iter8adapters8peekableINtB1P_8PeekableINtNtB1R_3map3MapINtNtNtB5_5slice4iter4IterNtNtCs71axb73f1AC_14thiserror_impl3ast5FieldENCNvNtB3m_6expand10fields_pat0EE4peek0EB3m_, symObjAddr: 0x0, symBinAddr: 0x35480, symSize: 0xD0 }
  - { offset: 0xA496D, size: 0x8, addend: 0x0, symName: __RINvMNtCsieiGu2EXtoJ_4core6optionINtB3_6OptionIBw_TRNtCsaKzlTDPUHDb_11proc_macro25IdentNtNtNtNtCslJiobkLta79_5alloc11collections5btree7set_val9SetValZSTEEE18get_or_insert_withNCNvMs3_NtNtNtB5_4iter8adapters8peekableINtB2V_8PeekableINtNtB2X_3map3MapINtNtNtB1v_3vec9into_iter8IntoIterBN_ENCINvMse_NtB1r_3setINtB4J_8BTreeSetBN_E16from_sorted_iterB3Y_E0EE4peek0ECs71axb73f1AC_14thiserror_impl, symObjAddr: 0xD0, symBinAddr: 0x35550, symSize: 0xD0 }
  - { offset: 0xA4A33, size: 0x8, addend: 0x0, symName: __RINvMNtCsieiGu2EXtoJ_4core6optionINtB3_6OptionINtNtCsdGrGZaRBwMb_3syn10punctuated4PairRNtCsaKzlTDPUHDb_11proc_macro211TokenStreamRNtNtBN_5token4PlusEE7or_elseNCNvXsc_BL_INtBL_5PairsB1n_B24_ENtNtNtNtB5_4iter6traits8iterator8Iterator4nexts_0ECs71axb73f1AC_14thiserror_impl, symObjAddr: 0x1A0, symBinAddr: 0x35620, symSize: 0xB0 }
  - { offset: 0xA4A96, size: 0x8, addend: 0x0, symName: __RINvMNtCsieiGu2EXtoJ_4core6optionINtB3_6OptionNtCsaKzlTDPUHDb_11proc_macro211TokenStreamE3mapBI_NCNvNtCs71axb73f1AC_14thiserror_impl6expand11impl_struct0EB1C_, symObjAddr: 0x250, symBinAddr: 0x356D0, symSize: 0xD0 }
  - { offset: 0xA4B44, size: 0x8, addend: 0x0, symName: __RINvMNtCsieiGu2EXtoJ_4core6optionINtB3_6OptionNtCsaKzlTDPUHDb_11proc_macro211TokenStreamE3mapBI_NCNvNtCs71axb73f1AC_14thiserror_impl6expand11impl_structs0_0EB1C_, symObjAddr: 0x320, symBinAddr: 0x357A0, symSize: 0x130 }
  - { offset: 0xA4BCA, size: 0x8, addend: 0x0, symName: __RINvMNtCsieiGu2EXtoJ_4core6optionINtB3_6OptionNtCsaKzlTDPUHDb_11proc_macro25IdentE3mapNtNtCsdGrGZaRBwMb_3syn4expr6MemberNcNtB1m_5Named0ECs71axb73f1AC_14thiserror_impl, symObjAddr: 0x450, symBinAddr: 0x358D0, symSize: 0xA0 }
  - { offset: 0xA4C51, size: 0x8, addend: 0x0, symName: __RINvMNtCsieiGu2EXtoJ_4core6optionINtB3_6OptionNtNtCsdGrGZaRBwMb_3syn4expr6MemberE14unwrap_or_elseNCNvMs2_NtCs71axb73f1AC_14thiserror_impl3astNtB1F_5Field8from_syn0EB1H_, symObjAddr: 0x4F0, symBinAddr: 0x35970, symSize: 0x90 }
  - { offset: 0xA4CE6, size: 0x8, addend: 0x0, symName: __RINvMNtCsieiGu2EXtoJ_4core6optionINtB3_6OptionRINtNtCslJiobkLta79_5alloc5boxed3BoxNtCsaKzlTDPUHDb_11proc_macro211TokenStreamEE3mapRB1i_NvYBJ_INtNtB5_7convert5AsRefB1i_E6as_refECs71axb73f1AC_14thiserror_impl, symObjAddr: 0x580, symBinAddr: 0x35A00, symSize: 0x50 }
  - { offset: 0xA4D69, size: 0x8, addend: 0x0, symName: __RINvMNtCsieiGu2EXtoJ_4core6optionINtB3_6OptionRNtCsaKzlTDPUHDb_11proc_macro211TokenStreamE3mapINtNtCsdGrGZaRBwMb_3syn10punctuated4PairBI_RNtNtB1z_5token4PlusENcNtB1u_3End0ECs71axb73f1AC_14thiserror_impl, symObjAddr: 0x5D0, symBinAddr: 0x35A50, symSize: 0x80 }
  - { offset: 0xA4DFB, size: 0x8, addend: 0x0, symName: __RINvMNtCsieiGu2EXtoJ_4core6optionINtB3_6OptionRNtNtCs71axb73f1AC_14thiserror_impl3ast5FieldE3mapNtCsaKzlTDPUHDb_11proc_macro211TokenStreamNCNvNtBN_6expand11impl_structs1_0EBN_, symObjAddr: 0x650, symBinAddr: 0x35AD0, symSize: 0xB0 }
  - { offset: 0xA4E68, size: 0x8, addend: 0x0, symName: __RINvMNtCsieiGu2EXtoJ_4core6optionINtB3_6OptionRNtNtCs71axb73f1AC_14thiserror_impl3ast5FieldE3mapNtCsaKzlTDPUHDb_11proc_macro211TokenStreamNCNvNtBN_6expand11impl_structs_0EBN_, symObjAddr: 0x700, symBinAddr: 0x35B80, symSize: 0x90 }
  - { offset: 0xA4ED3, size: 0x8, addend: 0x0, symName: __RINvMNtCsieiGu2EXtoJ_4core6optionINtB3_6OptionRNtNtCs71axb73f1AC_14thiserror_impl3ast5FieldE3mapNtCsaKzlTDPUHDb_11proc_macro211TokenStreamNCNvNtBN_6expand16from_initializer0EBN_, symObjAddr: 0x790, symBinAddr: 0x35C10, symSize: 0x80 }
  - { offset: 0xA4F3E, size: 0x8, addend: 0x0, symName: __RINvMNtCsieiGu2EXtoJ_4core6optionINtB3_6OptionRNtNtCs71axb73f1AC_14thiserror_impl3ast5FieldE6map_orbNCNvNtBN_4prop24distinct_backtrace_field0EBN_, symObjAddr: 0x810, symBinAddr: 0x35C90, symSize: 0xA0 }
  - { offset: 0xA4FBD, size: 0x8, addend: 0x0, symName: __RINvMNtCsieiGu2EXtoJ_4core6optionINtB3_6OptionRNtNtCs71axb73f1AC_14thiserror_impl4attr7DisplayE6map_orbNCNCNvNtBN_6expand9impl_enums0_00EBN_, symObjAddr: 0x8B0, symBinAddr: 0x35D30, symSize: 0x90 }
  - { offset: 0xA5049, size: 0x8, addend: 0x0, symName: __RINvMNtCsieiGu2EXtoJ_4core6optionINtB3_6OptionRNtNtCsdGrGZaRBwMb_3syn4data7VariantE7or_elseNCNvXsw_NtBN_10punctuatedINtB1z_11PrivateIterBJ_NtNtBN_5token5CommaENtNtNtNtB5_4iter6traits8iterator8Iterator4nexts_0ECs71axb73f1AC_14thiserror_impl, symObjAddr: 0x940, symBinAddr: 0x35DC0, symSize: 0x90 }
  - { offset: 0xA50D2, size: 0x8, addend: 0x0, symName: __RINvMNtCsieiGu2EXtoJ_4core6optionINtB3_6OptionRNtNtCsdGrGZaRBwMb_3syn4data7VariantE7or_elseNCNvXsx_NtBN_10punctuatedINtB1z_11PrivateIterBJ_NtNtBN_5token5CommaENtNtNtNtB5_4iter6traits12double_ended19DoubleEndedIterator9next_back0ECs71axb73f1AC_14thiserror_impl, symObjAddr: 0x9D0, symBinAddr: 0x35E50, symSize: 0x90 }
  - { offset: 0xA514E, size: 0x8, addend: 0x0, symName: __RINvMNtCsieiGu2EXtoJ_4core6optionINtB3_6OptionRNtNtCsdGrGZaRBwMb_3syn4path15GenericArgumentE7or_elseNCNvXsw_NtBN_10punctuatedINtB1I_11PrivateIterBJ_NtNtBN_5token5CommaENtNtNtNtB5_4iter6traits8iterator8Iterator4nexts_0ECs71axb73f1AC_14thiserror_impl, symObjAddr: 0xA60, symBinAddr: 0x35EE0, symSize: 0x90 }
  - { offset: 0xA51D7, size: 0x8, addend: 0x0, symName: __RINvMNtCsieiGu2EXtoJ_4core6optionINtB3_6OptionRNtNtCsdGrGZaRBwMb_3syn4path15GenericArgumentE7or_elseNCNvXsx_NtBN_10punctuatedINtB1I_11PrivateIterBJ_NtNtBN_5token5CommaENtNtNtNtB5_4iter6traits12double_ended19DoubleEndedIterator9next_back0ECs71axb73f1AC_14thiserror_impl, symObjAddr: 0xAF0, symBinAddr: 0x35F70, symSize: 0x90 }
  - { offset: 0xA5246, size: 0x8, addend: 0x0, symName: __RINvMNtCsieiGu2EXtoJ_4core6optionINtB3_6OptionRNtNtCsdGrGZaRBwMb_3syn8lifetime8LifetimeE6map_orbNCNvNtCs71axb73f1AC_14thiserror_impl5valid28contains_non_static_lifetime0EB1C_, symObjAddr: 0xB80, symBinAddr: 0x36000, symSize: 0x90 }
  - { offset: 0xA52E3, size: 0x8, addend: 0x0, symName: __RINvMNtCsieiGu2EXtoJ_4core6optionINtB3_6OptionRTNtCsaKzlTDPUHDb_11proc_macro211TokenStreamNtNtCsdGrGZaRBwMb_3syn5token4PlusEE3mapINtNtB1u_10punctuated4PairRBK_RB1q_ENCNvXsc_B26_INtB26_5PairsBK_B1q_ENtNtNtNtB5_4iter6traits8iterator8Iterator4next0ECs71axb73f1AC_14thiserror_impl, symObjAddr: 0xC10, symBinAddr: 0x36090, symSize: 0x80 }
  - { offset: 0xA534E, size: 0x8, addend: 0x0, symName: __RINvMNtCsieiGu2EXtoJ_4core6optionINtB3_6OptionRTNtNtCsdGrGZaRBwMb_3syn4data7VariantNtNtBO_5token5CommaEE3mapRBK_NCNCNvXsx_NtBO_10punctuatedINtB1W_11PrivateIterBK_B1j_ENtNtNtNtB5_4iter6traits12double_ended19DoubleEndedIterator9next_back00ECs71axb73f1AC_14thiserror_impl, symObjAddr: 0xC90, symBinAddr: 0x36110, symSize: 0x50 }
  - { offset: 0xA53B9, size: 0x8, addend: 0x0, symName: __RINvMNtCsieiGu2EXtoJ_4core6optionINtB3_6OptionRTNtNtCsdGrGZaRBwMb_3syn4data7VariantNtNtBO_5token5CommaEE3mapRBK_NCNvXsw_NtBO_10punctuatedINtB1U_11PrivateIterBK_B1j_ENtNtNtNtB5_4iter6traits8iterator8Iterator4next0ECs71axb73f1AC_14thiserror_impl, symObjAddr: 0xCE0, symBinAddr: 0x36160, symSize: 0x50 }
  - { offset: 0xA5424, size: 0x8, addend: 0x0, symName: __RINvMNtCsieiGu2EXtoJ_4core6optionINtB3_6OptionRTNtNtCsdGrGZaRBwMb_3syn4path15GenericArgumentNtNtBO_5token5CommaEE3mapRBK_NCNCNvXsx_NtBO_10punctuatedINtB25_11PrivateIterBK_B1s_ENtNtNtNtB5_4iter6traits12double_ended19DoubleEndedIterator9next_back00ECs71axb73f1AC_14thiserror_impl, symObjAddr: 0xD30, symBinAddr: 0x361B0, symSize: 0x50 }
  - { offset: 0xA548F, size: 0x8, addend: 0x0, symName: __RINvMNtCsieiGu2EXtoJ_4core6optionINtB3_6OptionRTNtNtCsdGrGZaRBwMb_3syn4path15GenericArgumentNtNtBO_5token5CommaEE3mapRBK_NCNvXsw_NtBO_10punctuatedINtB23_11PrivateIterBK_B1s_ENtNtNtNtB5_4iter6traits8iterator8Iterator4next0ECs71axb73f1AC_14thiserror_impl, symObjAddr: 0xD80, symBinAddr: 0x36200, symSize: 0x50 }
  - { offset: 0xA557C, size: 0x8, addend: 0x0, symName: __RINvMNtCsieiGu2EXtoJ_4core6optionINtB3_6OptionbE18get_or_insert_withNvNtCs71axb73f1AC_14thiserror_impl3fmt11is_syn_fullEB18_, symObjAddr: 0xDD0, symBinAddr: 0x36250, symSize: 0xD0 }
  - { offset: 0xA5774, size: 0x8, addend: 0x0, symName: __RNvMNtCsieiGu2EXtoJ_4core6optionINtB2_6OptionINtNtCslJiobkLta79_5alloc5boxed3BoxNtCsaKzlTDPUHDb_11proc_macro211TokenStreamEE4takeCs71axb73f1AC_14thiserror_impl, symObjAddr: 0x3330, symBinAddr: 0x38730, symSize: 0x20 }
  - { offset: 0xA57CB, size: 0x8, addend: 0x0, symName: __RNvMNtCsieiGu2EXtoJ_4core6optionINtB2_6OptionINtNtCslJiobkLta79_5alloc5boxed3BoxNtCsaKzlTDPUHDb_11proc_macro211TokenStreamEE6as_refCs71axb73f1AC_14thiserror_impl, symObjAddr: 0x3350, symBinAddr: 0x38750, symSize: 0x50 }
  - { offset: 0xA5831, size: 0x8, addend: 0x0, symName: __RNvMNtCsieiGu2EXtoJ_4core6optionINtB2_6OptionINtNtCslJiobkLta79_5alloc5boxed3BoxNtCsaKzlTDPUHDb_11proc_macro211TokenStreamEE7is_noneCs71axb73f1AC_14thiserror_impl, symObjAddr: 0x33A0, symBinAddr: 0x387A0, symSize: 0x30 }
  - { offset: 0xA587B, size: 0x8, addend: 0x0, symName: __RNvMNtCsieiGu2EXtoJ_4core6optionINtB2_6OptionINtNtCslJiobkLta79_5alloc5boxed3BoxNtCsaKzlTDPUHDb_11proc_macro211TokenStreamEE7is_someCs71axb73f1AC_14thiserror_impl, symObjAddr: 0x33D0, symBinAddr: 0x387D0, symSize: 0x30 }
  - { offset: 0xA58A7, size: 0x8, addend: 0x0, symName: __RNvMNtCsieiGu2EXtoJ_4core6optionINtB2_6OptionNtCsaKzlTDPUHDb_11proc_macro24SpanE2orCs71axb73f1AC_14thiserror_impl, symObjAddr: 0x3400, symBinAddr: 0x38800, symSize: 0x60 }
  - { offset: 0xA590D, size: 0x8, addend: 0x0, symName: __RNvMNtCsieiGu2EXtoJ_4core6optionINtB2_6OptionNtCsaKzlTDPUHDb_11proc_macro25IdentE7is_someCs71axb73f1AC_14thiserror_impl, symObjAddr: 0x3460, symBinAddr: 0x38860, symSize: 0x30 }
  - { offset: 0xA5946, size: 0x8, addend: 0x0, symName: __RNvMNtCsieiGu2EXtoJ_4core6optionINtB2_6OptionNtCsaKzlTDPUHDb_11proc_macro29TokenTreeE7is_someCs71axb73f1AC_14thiserror_impl, symObjAddr: 0x3490, symBinAddr: 0x38890, symSize: 0x30 }
  - { offset: 0xA599B, size: 0x8, addend: 0x0, symName: __RNvMNtCsieiGu2EXtoJ_4core6optionINtB2_6OptionNtNtCs71axb73f1AC_14thiserror_impl4attr11TransparentE7is_noneBL_, symObjAddr: 0x34C0, symBinAddr: 0x388C0, symSize: 0x30 }
  - { offset: 0xA59E5, size: 0x8, addend: 0x0, symName: __RNvMNtCsieiGu2EXtoJ_4core6optionINtB2_6OptionNtNtCs71axb73f1AC_14thiserror_impl4attr11TransparentE7is_someBL_, symObjAddr: 0x34F0, symBinAddr: 0x388F0, symSize: 0x30 }
  - { offset: 0xA5A1E, size: 0x8, addend: 0x0, symName: __RNvMNtCsieiGu2EXtoJ_4core6optionINtB2_6OptionNtNtCs71axb73f1AC_14thiserror_impl4attr7DisplayE6as_refBL_, symObjAddr: 0x3520, symBinAddr: 0x38920, symSize: 0x50 }
  - { offset: 0xA5A84, size: 0x8, addend: 0x0, symName: __RNvMNtCsieiGu2EXtoJ_4core6optionINtB2_6OptionNtNtCs71axb73f1AC_14thiserror_impl4attr7DisplayE7is_noneBL_, symObjAddr: 0x3570, symBinAddr: 0x38970, symSize: 0x30 }
  - { offset: 0xA5ACE, size: 0x8, addend: 0x0, symName: __RNvMNtCsieiGu2EXtoJ_4core6optionINtB2_6OptionNtNtCs71axb73f1AC_14thiserror_impl4attr7DisplayE7is_someBL_, symObjAddr: 0x35A0, symBinAddr: 0x389A0, symSize: 0x30 }
  - { offset: 0xA5B07, size: 0x8, addend: 0x0, symName: __RNvMNtCsieiGu2EXtoJ_4core6optionINtB2_6OptionNtNtCsdGrGZaRBwMb_3syn3lit3LitE7is_someCs71axb73f1AC_14thiserror_impl, symObjAddr: 0x35D0, symBinAddr: 0x389D0, symSize: 0x30 }
  - { offset: 0xA5B33, size: 0x8, addend: 0x0, symName: __RNvMNtCsieiGu2EXtoJ_4core6optionINtB2_6OptionRNtNtCs71axb73f1AC_14thiserror_impl3ast5FieldE2orBM_, symObjAddr: 0x3600, symBinAddr: 0x38A00, symSize: 0x60 }
  - { offset: 0xA5B99, size: 0x8, addend: 0x0, symName: __RNvMNtCsieiGu2EXtoJ_4core6optionINtB2_6OptionRNtNtCs71axb73f1AC_14thiserror_impl3ast5FieldE7is_someBM_, symObjAddr: 0x3660, symBinAddr: 0x38A60, symSize: 0x30 }
  - { offset: 0xA5BD2, size: 0x8, addend: 0x0, symName: __RNvMNtCsieiGu2EXtoJ_4core6optionINtB2_6OptionRNtNtCsdGrGZaRBwMb_3syn2ty4TypeE7is_someCs71axb73f1AC_14thiserror_impl, symObjAddr: 0x3690, symBinAddr: 0x38A90, symSize: 0x30 }
  - { offset: 0xA5BFE, size: 0x8, addend: 0x0, symName: __RNvMNtCsieiGu2EXtoJ_4core6optionINtB2_6OptionRNtNtCsdGrGZaRBwMb_3syn2ty4TypeE9unwrap_orCs71axb73f1AC_14thiserror_impl, symObjAddr: 0x36C0, symBinAddr: 0x38AC0, symSize: 0x50 }
  - { offset: 0xA5C80, size: 0x8, addend: 0x0, symName: __RNvMNtCsieiGu2EXtoJ_4core6optionINtB2_6OptionRNtNtCsdGrGZaRBwMb_3syn4attr9AttributeE7is_noneCs71axb73f1AC_14thiserror_impl, symObjAddr: 0x3710, symBinAddr: 0x38B10, symSize: 0x30 }
  - { offset: 0xA5CCA, size: 0x8, addend: 0x0, symName: __RNvMNtCsieiGu2EXtoJ_4core6optionINtB2_6OptionRNtNtCsdGrGZaRBwMb_3syn4attr9AttributeE7is_someCs71axb73f1AC_14thiserror_impl, symObjAddr: 0x3740, symBinAddr: 0x38B40, symSize: 0x30 }
  - { offset: 0xA5D10, size: 0x8, addend: 0x0, symName: __RNvMNtCsieiGu2EXtoJ_4core6optionINtB2_6OptionRNtNtCsdGrGZaRBwMb_3syn8generics9TypeParamE7is_someCs71axb73f1AC_14thiserror_impl, symObjAddr: 0x3770, symBinAddr: 0x38B70, symSize: 0x30 }
  - { offset: 0xA5D4B, size: 0x8, addend: 0x0, symName: __RNvXs3_NtCs9OU1sGv5X54_5quote9to_tokensINtNtCsieiGu2EXtoJ_4core6option6OptionNtCsaKzlTDPUHDb_11proc_macro211TokenStreamENtB5_8ToTokens9to_tokensCs71axb73f1AC_14thiserror_impl, symObjAddr: 0x3800, symBinAddr: 0x38C00, symSize: 0x70 }
  - { offset: 0xA5DA7, size: 0x8, addend: 0x0, symName: __RNvXs3_NtCs9OU1sGv5X54_5quote9to_tokensINtNtCsieiGu2EXtoJ_4core6option6OptionRNtNtCsdGrGZaRBwMb_3syn4attr9AttributeENtB5_8ToTokens9to_tokensCs71axb73f1AC_14thiserror_impl, symObjAddr: 0x3870, symBinAddr: 0x38C70, symSize: 0x60 }
  - { offset: 0xA5E03, size: 0x8, addend: 0x0, symName: __RNvXs3_NtCs9OU1sGv5X54_5quote9to_tokensINtNtCsieiGu2EXtoJ_4core6option6OptionRNtNtCsdGrGZaRBwMb_3syn8generics11WhereClauseENtB5_8ToTokens9to_tokensCs71axb73f1AC_14thiserror_impl, symObjAddr: 0x38D0, symBinAddr: 0x38CD0, symSize: 0x60 }
  - { offset: 0xA5E65, size: 0x8, addend: 0x0, symName: __RNvYINtNtCsieiGu2EXtoJ_4core6option6OptionRNtNtCsdGrGZaRBwMb_3syn4attr9AttributeENtNtCs9OU1sGv5X54_5quote9to_tokens8ToTokens15to_token_streamCs71axb73f1AC_14thiserror_impl, symObjAddr: 0x45D0, symBinAddr: 0x399D0, symSize: 0x90 }
  - { offset: 0xA5EAF, size: 0x8, addend: 0x0, symName: __RNvYINtNtCsieiGu2EXtoJ_4core6option6OptionRNtNtCsdGrGZaRBwMb_3syn4attr9AttributeENtNtCs9OU1sGv5X54_5quote9to_tokens8ToTokens17into_token_streamCs71axb73f1AC_14thiserror_impl, symObjAddr: 0x4660, symBinAddr: 0x39A60, symSize: 0x50 }
  - { offset: 0xA5EE4, size: 0x8, addend: 0x0, symName: __RNvYNtNtCsdGrGZaRBwMb_3syn5token8SelfTypeNtNtCs9OU1sGv5X54_5quote9to_tokens8ToTokens15to_token_streamCs71axb73f1AC_14thiserror_impl, symObjAddr: 0x4C50, symBinAddr: 0x3A050, symSize: 0x90 }
  - { offset: 0xA74BE, size: 0x8, addend: 0x0, symName: __RINvNvXNtCs9OU1sGv5X54_5quote3extNtCsaKzlTDPUHDb_11proc_macro211TokenStreamNtB5_14TokenStreamExt10append_all13do_append_allINtNtCsdGrGZaRBwMb_3syn10punctuated5PairsBv_NtNtB22_5token4PlusEECs71axb73f1AC_14thiserror_impl, symObjAddr: 0x0, symBinAddr: 0x3A330, symSize: 0xB0 }
  - { offset: 0xA79B6, size: 0x8, addend: 0x0, symName: __RNCNCNvXsx_NtCsdGrGZaRBwMb_3syn10punctuatedINtB9_11PrivateIterNtNtBb_4data7VariantNtNtBb_5token5CommaENtNtNtNtCsieiGu2EXtoJ_4core4iter6traits12double_ended19DoubleEndedIterator9next_back00Cs71axb73f1AC_14thiserror_impl, symObjAddr: 0xF30, symBinAddr: 0x3B260, symSize: 0x10 }
  - { offset: 0xA7A01, size: 0x8, addend: 0x0, symName: __RNCNCNvXsx_NtCsdGrGZaRBwMb_3syn10punctuatedINtB9_11PrivateIterNtNtBb_4path15GenericArgumentNtNtBb_5token5CommaENtNtNtNtCsieiGu2EXtoJ_4core4iter6traits12double_ended19DoubleEndedIterator9next_back00Cs71axb73f1AC_14thiserror_impl, symObjAddr: 0xF40, symBinAddr: 0x3B270, symSize: 0x10 }
  - { offset: 0xA7A5B, size: 0x8, addend: 0x0, symName: __RNCNvXsx_NtCsdGrGZaRBwMb_3syn10punctuatedINtB7_11PrivateIterNtNtB9_4data7VariantNtNtB9_5token5CommaENtNtNtNtCsieiGu2EXtoJ_4core4iter6traits12double_ended19DoubleEndedIterator9next_back0Cs71axb73f1AC_14thiserror_impl, symObjAddr: 0x1030, symBinAddr: 0x3B360, symSize: 0x30 }
  - { offset: 0xA7A9D, size: 0x8, addend: 0x0, symName: __RNCNvXsx_NtCsdGrGZaRBwMb_3syn10punctuatedINtB7_11PrivateIterNtNtB9_4path15GenericArgumentNtNtB9_5token5CommaENtNtNtNtCsieiGu2EXtoJ_4core4iter6traits12double_ended19DoubleEndedIterator9next_back0Cs71axb73f1AC_14thiserror_impl, symObjAddr: 0x1060, symBinAddr: 0x3B390, symSize: 0x30 }
  - { offset: 0xA7AE0, size: 0x8, addend: 0x0, symName: __RNvXsx_NtCsdGrGZaRBwMb_3syn10punctuatedINtB5_11PrivateIterNtNtB7_4data7VariantNtNtB7_5token5CommaENtNtNtNtCsieiGu2EXtoJ_4core4iter6traits12double_ended19DoubleEndedIterator9next_backCs71axb73f1AC_14thiserror_impl, symObjAddr: 0x2EF0, symBinAddr: 0x3D220, symSize: 0x40 }
  - { offset: 0xA7B20, size: 0x8, addend: 0x0, symName: __RNvXsx_NtCsdGrGZaRBwMb_3syn10punctuatedINtB5_11PrivateIterNtNtB7_4path15GenericArgumentNtNtB7_5token5CommaENtNtNtNtCsieiGu2EXtoJ_4core4iter6traits12double_ended19DoubleEndedIterator9next_backCs71axb73f1AC_14thiserror_impl, symObjAddr: 0x2F30, symBinAddr: 0x3D260, symSize: 0x40 }
  - { offset: 0xA7B6B, size: 0x8, addend: 0x0, symName: __RNCNvXsc_NtCsdGrGZaRBwMb_3syn10punctuatedINtB7_5PairsNtCsaKzlTDPUHDb_11proc_macro211TokenStreamNtNtB9_5token4PlusENtNtNtNtCsieiGu2EXtoJ_4core4iter6traits8iterator8Iterator4next0Cs71axb73f1AC_14thiserror_impl, symObjAddr: 0xF50, symBinAddr: 0x3B280, symSize: 0x30 }
  - { offset: 0xA7BE0, size: 0x8, addend: 0x0, symName: __RNCNvXsc_NtCsdGrGZaRBwMb_3syn10punctuatedINtB7_5PairsNtCsaKzlTDPUHDb_11proc_macro211TokenStreamNtNtB9_5token4PlusENtNtNtNtCsieiGu2EXtoJ_4core4iter6traits8iterator8Iterator4nexts_0Cs71axb73f1AC_14thiserror_impl, symObjAddr: 0xF80, symBinAddr: 0x3B2B0, symSize: 0x50 }
  - { offset: 0xA7C2A, size: 0x8, addend: 0x0, symName: __RNvXsc_NtCsdGrGZaRBwMb_3syn10punctuatedINtB5_5PairsNtCsaKzlTDPUHDb_11proc_macro211TokenStreamNtNtB7_5token4PlusENtNtNtNtCsieiGu2EXtoJ_4core4iter6traits8iterator8Iterator4nextCs71axb73f1AC_14thiserror_impl, symObjAddr: 0x2B90, symBinAddr: 0x3CEC0, symSize: 0x60 }
  - { offset: 0xA7C75, size: 0x8, addend: 0x0, symName: __RNCNvXsw_NtCsdGrGZaRBwMb_3syn10punctuatedINtB7_11PrivateIterNtNtB9_4data7VariantNtNtB9_5token5CommaENtNtNtNtCsieiGu2EXtoJ_4core4iter6traits8iterator8Iterator4next0Cs71axb73f1AC_14thiserror_impl, symObjAddr: 0xFD0, symBinAddr: 0x3B300, symSize: 0x10 }
  - { offset: 0xA7CC0, size: 0x8, addend: 0x0, symName: __RNCNvXsw_NtCsdGrGZaRBwMb_3syn10punctuatedINtB7_11PrivateIterNtNtB9_4data7VariantNtNtB9_5token5CommaENtNtNtNtCsieiGu2EXtoJ_4core4iter6traits8iterator8Iterator4nexts_0Cs71axb73f1AC_14thiserror_impl, symObjAddr: 0xFE0, symBinAddr: 0x3B310, symSize: 0x20 }
  - { offset: 0xA7D02, size: 0x8, addend: 0x0, symName: __RNCNvXsw_NtCsdGrGZaRBwMb_3syn10punctuatedINtB7_11PrivateIterNtNtB9_4path15GenericArgumentNtNtB9_5token5CommaENtNtNtNtCsieiGu2EXtoJ_4core4iter6traits8iterator8Iterator4next0Cs71axb73f1AC_14thiserror_impl, symObjAddr: 0x1000, symBinAddr: 0x3B330, symSize: 0x10 }
  - { offset: 0xA7D4D, size: 0x8, addend: 0x0, symName: __RNCNvXsw_NtCsdGrGZaRBwMb_3syn10punctuatedINtB7_11PrivateIterNtNtB9_4path15GenericArgumentNtNtB9_5token5CommaENtNtNtNtCsieiGu2EXtoJ_4core4iter6traits8iterator8Iterator4nexts_0Cs71axb73f1AC_14thiserror_impl, symObjAddr: 0x1010, symBinAddr: 0x3B340, symSize: 0x20 }
  - { offset: 0xA7D9E, size: 0x8, addend: 0x0, symName: __RNvXsw_NtCsdGrGZaRBwMb_3syn10punctuatedINtB5_11PrivateIterNtNtB7_4data7VariantNtNtB7_5token5CommaENtNtNtNtCsieiGu2EXtoJ_4core4iter6traits8iterator8Iterator4nextCs71axb73f1AC_14thiserror_impl, symObjAddr: 0x2E40, symBinAddr: 0x3D170, symSize: 0x40 }
  - { offset: 0xA7DDE, size: 0x8, addend: 0x0, symName: __RNvXsw_NtCsdGrGZaRBwMb_3syn10punctuatedINtB5_11PrivateIterNtNtB7_4path15GenericArgumentNtNtB7_5token5CommaENtNtNtNtCsieiGu2EXtoJ_4core4iter6traits8iterator8Iterator4nextCs71axb73f1AC_14thiserror_impl, symObjAddr: 0x2E80, symBinAddr: 0x3D1B0, symSize: 0x40 }
  - { offset: 0xA7E29, size: 0x8, addend: 0x0, symName: __RNcNtINtNtCsdGrGZaRBwMb_3syn10punctuated4PairRNtCsaKzlTDPUHDb_11proc_macro211TokenStreamRNtNtB8_5token4PlusE3End0Cs71axb73f1AC_14thiserror_impl, symObjAddr: 0x1090, symBinAddr: 0x3B3C0, symSize: 0x20 }
  - { offset: 0xA7FDD, size: 0x8, addend: 0x0, symName: __RNvXNtNtCsdGrGZaRBwMb_3syn10punctuated8printingINtB4_10PunctuatedNtCsaKzlTDPUHDb_11proc_macro211TokenStreamNtNtB6_5token4PlusENtNtCs9OU1sGv5X54_5quote9to_tokens8ToTokens9to_tokensCs71axb73f1AC_14thiserror_impl, symObjAddr: 0x20B0, symBinAddr: 0x3C3E0, symSize: 0x40 }
  - { offset: 0xA802E, size: 0x8, addend: 0x0, symName: __RNvXs_NtNtCsdGrGZaRBwMb_3syn10punctuated8printingINtB6_4PairRNtCsaKzlTDPUHDb_11proc_macro211TokenStreamRNtNtB8_5token4PlusENtNtCs9OU1sGv5X54_5quote9to_tokens8ToTokens9to_tokensCs71axb73f1AC_14thiserror_impl, symObjAddr: 0x29B0, symBinAddr: 0x3CCE0, symSize: 0x90 }
  - { offset: 0xA80C4, size: 0x8, addend: 0x0, symName: __RNvXs9_NtCsdGrGZaRBwMb_3syn10punctuatedRINtB5_10PunctuatedNtNtB7_4path11PathSegmentNtNtB7_5token7PathSepENtNtNtNtCsieiGu2EXtoJ_4core4iter6traits7collect12IntoIterator9into_iterCs71axb73f1AC_14thiserror_impl, symObjAddr: 0x24F0, symBinAddr: 0x3C820, symSize: 0x20 }
  - { offset: 0xA8104, size: 0x8, addend: 0x0, symName: __RNvXs9_NtCsdGrGZaRBwMb_3syn10punctuatedRINtB5_10PunctuatedNtNtB7_4path15GenericArgumentNtNtB7_5token5CommaENtNtNtNtCsieiGu2EXtoJ_4core4iter6traits7collect12IntoIterator9into_iterCs71axb73f1AC_14thiserror_impl, symObjAddr: 0x2510, symBinAddr: 0x3C840, symSize: 0x20 }
  - { offset: 0xA814A, size: 0x8, addend: 0x0, symName: __RNvXsA_NtCsdGrGZaRBwMb_3syn10punctuatedINtB5_11PrivateIterNtNtB7_4data7VariantNtNtB7_5token5CommaEINtB5_9IterTraitBU_E9clone_boxCs71axb73f1AC_14thiserror_impl, symObjAddr: 0x25D0, symBinAddr: 0x3C900, symSize: 0x90 }
  - { offset: 0xA81A9, size: 0x8, addend: 0x0, symName: __RNvXsA_NtCsdGrGZaRBwMb_3syn10punctuatedINtB5_11PrivateIterNtNtB7_4path15GenericArgumentNtNtB7_5token5CommaEINtB5_9IterTraitBU_E9clone_boxCs71axb73f1AC_14thiserror_impl, symObjAddr: 0x2660, symBinAddr: 0x3C990, symSize: 0x90 }
  - { offset: 0xA820E, size: 0x8, addend: 0x0, symName: __RNvXsN_NtCsdGrGZaRBwMb_3syn10punctuatedINtB5_10PunctuatedNtNtB7_4path15GenericArgumentNtNtB7_5token5CommaEINtNtNtCsieiGu2EXtoJ_4core3ops5index5IndexjE5indexCs71axb73f1AC_14thiserror_impl, symObjAddr: 0x2810, symBinAddr: 0x3CB40, symSize: 0x140 }
  - { offset: 0xA8279, size: 0x8, addend: 0x0, symName: __RNvXsb_NtCsdGrGZaRBwMb_3syn10punctuatedINtB5_10PunctuatedNtCsaKzlTDPUHDb_11proc_macro211TokenStreamNtNtB7_5token4PlusENtNtCsieiGu2EXtoJ_4core7default7Default7defaultCs71axb73f1AC_14thiserror_impl, symObjAddr: 0x2B60, symBinAddr: 0x3CE90, symSize: 0x30 }
  - { offset: 0xA82B0, size: 0x8, addend: 0x0, symName: __RNvXst_NtCsdGrGZaRBwMb_3syn10punctuatedINtB5_4IterNtNtB7_4data5FieldENtNtNtNtCsieiGu2EXtoJ_4core4iter6traits8iterator8Iterator9size_hintCs71axb73f1AC_14thiserror_impl, symObjAddr: 0x2CC0, symBinAddr: 0x3CFF0, symSize: 0x60 }
  - { offset: 0xA82E7, size: 0x8, addend: 0x0, symName: __RNvXst_NtCsdGrGZaRBwMb_3syn10punctuatedINtB5_4IterNtNtB7_4data7VariantENtNtNtNtCsieiGu2EXtoJ_4core4iter6traits8iterator8Iterator4nextCs71axb73f1AC_14thiserror_impl, symObjAddr: 0x2D20, symBinAddr: 0x3D050, symSize: 0x30 }
  - { offset: 0xA831E, size: 0x8, addend: 0x0, symName: __RNvXst_NtCsdGrGZaRBwMb_3syn10punctuatedINtB5_4IterNtNtB7_4data7VariantENtNtNtNtCsieiGu2EXtoJ_4core4iter6traits8iterator8Iterator9size_hintCs71axb73f1AC_14thiserror_impl, symObjAddr: 0x2D50, symBinAddr: 0x3D080, symSize: 0x60 }
  - { offset: 0xA8355, size: 0x8, addend: 0x0, symName: __RNvXst_NtCsdGrGZaRBwMb_3syn10punctuatedINtB5_4IterNtNtB7_4path15GenericArgumentENtNtNtNtCsieiGu2EXtoJ_4core4iter6traits8iterator8Iterator4nextCs71axb73f1AC_14thiserror_impl, symObjAddr: 0x2DB0, symBinAddr: 0x3D0E0, symSize: 0x30 }
  - { offset: 0xA8392, size: 0x8, addend: 0x0, symName: __RNvXsv_NtCsdGrGZaRBwMb_3syn10punctuatedINtB5_4IterNtNtB7_4data5FieldENtNtNtNtCsieiGu2EXtoJ_4core4iter6traits10exact_size17ExactSizeIterator3lenCs71axb73f1AC_14thiserror_impl, symObjAddr: 0x2DE0, symBinAddr: 0x3D110, symSize: 0x30 }
  - { offset: 0xA83C9, size: 0x8, addend: 0x0, symName: __RNvXsv_NtCsdGrGZaRBwMb_3syn10punctuatedINtB5_4IterNtNtB7_4data7VariantENtNtNtNtCsieiGu2EXtoJ_4core4iter6traits10exact_size17ExactSizeIterator3lenCs71axb73f1AC_14thiserror_impl, symObjAddr: 0x2E10, symBinAddr: 0x3D140, symSize: 0x30 }
  - { offset: 0xA8406, size: 0x8, addend: 0x0, symName: __RNvXsy_NtCsdGrGZaRBwMb_3syn10punctuatedINtB5_11PrivateIterNtNtB7_4data7VariantNtNtB7_5token5CommaENtNtNtNtCsieiGu2EXtoJ_4core4iter6traits10exact_size17ExactSizeIterator3lenCs71axb73f1AC_14thiserror_impl, symObjAddr: 0x3090, symBinAddr: 0x3D3C0, symSize: 0x80 }
  - { offset: 0xA847E, size: 0x8, addend: 0x0, symName: __RNvXsy_NtCsdGrGZaRBwMb_3syn10punctuatedINtB5_11PrivateIterNtNtB7_4path15GenericArgumentNtNtB7_5token5CommaENtNtNtNtCsieiGu2EXtoJ_4core4iter6traits10exact_size17ExactSizeIterator3lenCs71axb73f1AC_14thiserror_impl, symObjAddr: 0x3110, symBinAddr: 0x3D440, symSize: 0x80 }
  - { offset: 0xA84FC, size: 0x8, addend: 0x0, symName: __RNvXsz_NtCsdGrGZaRBwMb_3syn10punctuatedINtB5_11PrivateIterNtNtB7_4data7VariantNtNtB7_5token5CommaENtNtCsieiGu2EXtoJ_4core5clone5Clone5cloneCs71axb73f1AC_14thiserror_impl, symObjAddr: 0x3240, symBinAddr: 0x3D570, symSize: 0x70 }
  - { offset: 0xA853C, size: 0x8, addend: 0x0, symName: __RNvXsz_NtCsdGrGZaRBwMb_3syn10punctuatedINtB5_11PrivateIterNtNtB7_4path15GenericArgumentNtNtB7_5token5CommaENtNtCsieiGu2EXtoJ_4core5clone5Clone5cloneCs71axb73f1AC_14thiserror_impl, symObjAddr: 0x32B0, symBinAddr: 0x3D5E0, symSize: 0x70 }
  - { offset: 0xACFD7, size: 0x8, addend: 0x0, symName: __RNvXNtCsdGrGZaRBwMb_3syn11parse_quoteNtNtB4_8generics14WherePredicateNtB2_10ParseQuote5parseCs71axb73f1AC_14thiserror_impl, symObjAddr: 0x2060, symBinAddr: 0x3C390, symSize: 0x30 }
  - { offset: 0xAD949, size: 0x8, addend: 0x0, symName: __RINvXs3_NtNtCslJiobkLta79_5alloc3vec9into_iterINtB6_8IntoIterNtCsaKzlTDPUHDb_11proc_macro29TokenTreeENtNtNtNtCsieiGu2EXtoJ_4core4iter6traits8iterator8Iterator4folduNCINvNtNtB1H_8adapters3map8map_foldBX_NtCscKtU6MdFI5n_10proc_macro9TokenTreeuNvNtBZ_3imp19into_compiler_tokenNCINvNvB1B_8for_each4callB3e_NCINvXsg_B3g_NtB3g_11TokenStreamINtNtB1F_7collect12FromIteratorB3e_E9from_iterINtB2H_3MapBI_B3R_EE0E0E0ECs71axb73f1AC_14thiserror_impl, symObjAddr: 0xF0, symBinAddr: 0x3A420, symSize: 0x160 }
  - { offset: 0xADB03, size: 0x8, addend: 0x0, symName: __RINvXs3_NtNtCslJiobkLta79_5alloc3vec9into_iterINtB6_8IntoIterNtCsaKzlTDPUHDb_11proc_macro29TokenTreeENtNtNtNtCsieiGu2EXtoJ_4core4iter6traits8iterator8Iterator4folduNCINvNvB1B_8for_each4callBX_NCINvXsa_NtBZ_8fallbackNtB3d_11TokenStreamINtNtB1F_7collect6ExtendBX_E6extendBI_E0E0ECs71axb73f1AC_14thiserror_impl, symObjAddr: 0x250, symBinAddr: 0x3A580, symSize: 0x160 }
  - { offset: 0xADCBD, size: 0x8, addend: 0x0, symName: __RNvXs3_NtNtCslJiobkLta79_5alloc3vec9into_iterINtB5_8IntoIterRNtCsaKzlTDPUHDb_11proc_macro25IdentENtNtNtNtCsieiGu2EXtoJ_4core4iter6traits8iterator8Iterator4nextCs71axb73f1AC_14thiserror_impl, symObjAddr: 0x2390, symBinAddr: 0x3C6C0, symSize: 0xA0 }
  - { offset: 0xADE1B, size: 0x8, addend: 0x0, symName: __RNvXs3_NtNtCslJiobkLta79_5alloc3vec9into_iterINtB5_8IntoIterRNtCsaKzlTDPUHDb_11proc_macro25IdentENtNtNtNtCsieiGu2EXtoJ_4core4iter6traits8iterator8Iterator9size_hintCs71axb73f1AC_14thiserror_impl, symObjAddr: 0x2430, symBinAddr: 0x3C760, symSize: 0x60 }
  - { offset: 0xADF73, size: 0x8, addend: 0x0, symName: __RNvXNvXsd_NtNtCslJiobkLta79_5alloc3vec9into_iterINtB8_8IntoIterppENtNtNtCsieiGu2EXtoJ_4core3ops4drop4Drop4dropINtB2_9DropGuardRNtCsaKzlTDPUHDb_11proc_macro25IdentNtNtBc_5alloc6GlobalEB12_4dropCs71axb73f1AC_14thiserror_impl, symObjAddr: 0x2140, symBinAddr: 0x3C470, symSize: 0x70 }
  - { offset: 0xAE0B1, size: 0x8, addend: 0x0, symName: __RNvXsd_NtNtCslJiobkLta79_5alloc3vec9into_iterINtB5_8IntoIterRNtCsaKzlTDPUHDb_11proc_macro25IdentENtNtNtCsieiGu2EXtoJ_4core3ops4drop4Drop4dropCs71axb73f1AC_14thiserror_impl, symObjAddr: 0x2BF0, symBinAddr: 0x3CF20, symSize: 0x80 }
  - { offset: 0xAEBF0, size: 0x8, addend: 0x0, symName: __RNvXs1_NtCslJiobkLta79_5alloc7raw_vecINtB5_6RawVecNtCsaKzlTDPUHDb_11proc_macro211TokenStreamENtNtNtCsieiGu2EXtoJ_4core3ops4drop4Drop4dropCs71axb73f1AC_14thiserror_impl, symObjAddr: 0x2290, symBinAddr: 0x3C5C0, symSize: 0x30 }
  - { offset: 0xAEC2C, size: 0x8, addend: 0x0, symName: __RNvXs1_NtCslJiobkLta79_5alloc7raw_vecINtB5_6RawVecNtNtCs71axb73f1AC_14thiserror_impl3ast5FieldENtNtNtCsieiGu2EXtoJ_4core3ops4drop4Drop4dropBQ_, symObjAddr: 0x22C0, symBinAddr: 0x3C5F0, symSize: 0x30 }
  - { offset: 0xAEC68, size: 0x8, addend: 0x0, symName: __RNvXs1_NtCslJiobkLta79_5alloc7raw_vecINtB5_6RawVecNtNtCs71axb73f1AC_14thiserror_impl3ast7VariantENtNtNtCsieiGu2EXtoJ_4core3ops4drop4Drop4dropBQ_, symObjAddr: 0x22F0, symBinAddr: 0x3C620, symSize: 0x30 }
  - { offset: 0xAECA4, size: 0x8, addend: 0x0, symName: __RNvXs1_NtCslJiobkLta79_5alloc7raw_vecINtB5_6RawVecRNtCsaKzlTDPUHDb_11proc_macro25IdentENtNtNtCsieiGu2EXtoJ_4core3ops4drop4Drop4dropCs71axb73f1AC_14thiserror_impl, symObjAddr: 0x2320, symBinAddr: 0x3C650, symSize: 0x20 }
  - { offset: 0xAECE0, size: 0x8, addend: 0x0, symName: __RNvXs1_NtCslJiobkLta79_5alloc7raw_vecINtB5_6RawVecTNtCsaKzlTDPUHDb_11proc_macro211TokenStreamNtNtCsdGrGZaRBwMb_3syn5token4PlusEENtNtNtCsieiGu2EXtoJ_4core3ops4drop4Drop4dropCs71axb73f1AC_14thiserror_impl, symObjAddr: 0x2340, symBinAddr: 0x3C670, symSize: 0x30 }
  - { offset: 0xAEEB7, size: 0x8, addend: 0x0, symName: __RNvXss_NtCslJiobkLta79_5alloc6stringNtB5_6StringNtNtNtCsieiGu2EXtoJ_4core3ops5deref5Deref5derefCs71axb73f1AC_14thiserror_impl, symObjAddr: 0x2CA0, symBinAddr: 0x3CFD0, symSize: 0x20 }
  - { offset: 0xAEEEB, size: 0x8, addend: 0x0, symName: __RINvXsn_NtCslJiobkLta79_5alloc6stringNtB6_6StringNtNtCsieiGu2EXtoJ_4core4hash4Hash4hashNtNtNtCsHUR1vrdMJt_3std4hash6random13DefaultHasherECs71axb73f1AC_14thiserror_impl, symObjAddr: 0x7D0, symBinAddr: 0x3AB00, symSize: 0x80 }
  - { offset: 0xAF09C, size: 0x8, addend: 0x0, symName: __RNvXs1e_NtCslJiobkLta79_5alloc6stringNtB6_6StringNtNtCsieiGu2EXtoJ_4core3cmp3Ord3cmpCs71axb73f1AC_14thiserror_impl, symObjAddr: 0x2370, symBinAddr: 0x3C6A0, symSize: 0x20 }
  - { offset: 0xAF0DF, size: 0x8, addend: 0x0, symName: __RNvXsT_NtCslJiobkLta79_5alloc6stringNtB5_6StringNtNtCsieiGu2EXtoJ_4core3fmt5Write10write_charCs71axb73f1AC_14thiserror_impl, symObjAddr: 0x2950, symBinAddr: 0x3CC80, symSize: 0x30 }
  - { offset: 0xAF11C, size: 0x8, addend: 0x0, symName: __RNvXsT_NtCslJiobkLta79_5alloc6stringNtB5_6StringNtNtCsieiGu2EXtoJ_4core3fmt5Write9write_strCs71axb73f1AC_14thiserror_impl, symObjAddr: 0x2980, symBinAddr: 0x3CCB0, symSize: 0x30 }
  - { offset: 0xAF15F, size: 0x8, addend: 0x0, symName: __RNvXsp_NtCslJiobkLta79_5alloc6stringNtB5_6StringINtNtNtCsieiGu2EXtoJ_4core3ops5arith9AddAssignReE10add_assignCs71axb73f1AC_14thiserror_impl, symObjAddr: 0x2C70, symBinAddr: 0x3CFA0, symSize: 0x30 }
  - { offset: 0xAF19E, size: 0x8, addend: 0x0, symName: __RNvXsw_NtCslJiobkLta79_5alloc6stringNtCsaKzlTDPUHDb_11proc_macro211TokenStreamNtB5_8ToString9to_stringCs71axb73f1AC_14thiserror_impl, symObjAddr: 0x2EC0, symBinAddr: 0x3D1F0, symSize: 0x30 }
  - { offset: 0xAF1DB, size: 0x8, addend: 0x0, symName: __RNvXsx_NtCslJiobkLta79_5alloc6stringNtCsaKzlTDPUHDb_11proc_macro211TokenStreamNtB5_12SpecToString14spec_to_stringCs71axb73f1AC_14thiserror_impl, symObjAddr: 0x2F70, symBinAddr: 0x3D2A0, symSize: 0x120 }
  - { offset: 0xAF8D4, size: 0x8, addend: 0x0, symName: __RINvXs5_NtCsaKzlTDPUHDb_11proc_macro23impNtB6_11TokenStreamINtNtNtNtCsieiGu2EXtoJ_4core4iter6traits7collect12FromIteratorNtB8_9TokenTreeE9from_iterINtNtNtCslJiobkLta79_5alloc3vec9into_iter8IntoIterB1V_EECs71axb73f1AC_14thiserror_impl, symObjAddr: 0x3D0, symBinAddr: 0x3A700, symSize: 0x1C0 }
  - { offset: 0xAF910, size: 0x8, addend: 0x0, symName: __RINvXs7_NtCsaKzlTDPUHDb_11proc_macro23impNtB6_11TokenStreamINtNtNtNtCsieiGu2EXtoJ_4core4iter6traits7collect6ExtendNtB8_9TokenTreeE6extendNtB8_11TokenStreamECs71axb73f1AC_14thiserror_impl, symObjAddr: 0x590, symBinAddr: 0x3A8C0, symSize: 0x170 }
  - { offset: 0xAF9AC, size: 0x8, addend: 0x0, symName: __RNvXsA_NtCsaKzlTDPUHDb_11proc_macro23impNtB5_19DeferredTokenStreamNtNtCsieiGu2EXtoJ_4core5clone5Clone5cloneCs71axb73f1AC_14thiserror_impl, symObjAddr: 0x2530, symBinAddr: 0x3C860, symSize: 0xA0 }
  - { offset: 0xAF9DE, size: 0x8, addend: 0x0, symName: __RNvXsF_NtCsaKzlTDPUHDb_11proc_macro23impNtB5_5IdentNtNtCsieiGu2EXtoJ_4core5clone5Clone5cloneCs71axb73f1AC_14thiserror_impl, symObjAddr: 0x26F0, symBinAddr: 0x3CA20, symSize: 0x90 }
  - { offset: 0xAFA4E, size: 0x8, addend: 0x0, symName: __RNvXsz_NtCsaKzlTDPUHDb_11proc_macro23impNtB5_11TokenStreamNtNtCsieiGu2EXtoJ_4core5clone5Clone5cloneCs71axb73f1AC_14thiserror_impl, symObjAddr: 0x3190, symBinAddr: 0x3D4C0, symSize: 0xB0 }
  - { offset: 0xAFE6C, size: 0x8, addend: 0x0, symName: __RINvXs4_CsaKzlTDPUHDb_11proc_macro2NtB6_11TokenStreamINtNtNtNtCsieiGu2EXtoJ_4core4iter6traits7collect6ExtendNtB6_9TokenTreeE6extendBx_ECs71axb73f1AC_14thiserror_impl, symObjAddr: 0x3B0, symBinAddr: 0x3A6E0, symSize: 0x20 }
  - { offset: 0xAFEB5, size: 0x8, addend: 0x0, symName: __RINvXsD_CsaKzlTDPUHDb_11proc_macro2NtB6_5IdentNtNtCsieiGu2EXtoJ_4core4hash4Hash4hashNtNtNtCsHUR1vrdMJt_3std4hash6random13DefaultHasherECs71axb73f1AC_14thiserror_impl, symObjAddr: 0x700, symBinAddr: 0x3AA30, symSize: 0x80 }
  - { offset: 0xAFEFD, size: 0x8, addend: 0x0, symName: __RINvXsa_CsaKzlTDPUHDb_11proc_macro2NtB6_11TokenStreamINtNtNtNtCsieiGu2EXtoJ_4core4iter6traits7collect12FromIteratorNtB6_9TokenTreeE9from_iterINtNtCslJiobkLta79_5alloc3vec3VecB1P_EECs71axb73f1AC_14thiserror_impl, symObjAddr: 0x780, symBinAddr: 0x3AAB0, symSize: 0x50 }
  - { offset: 0xAFF3B, size: 0x8, addend: 0x0, symName: __RNvXs11_CsaKzlTDPUHDb_11proc_macro2NtB6_7SpacingNtNtCsieiGu2EXtoJ_4core3cmp9PartialEq2eqCs71axb73f1AC_14thiserror_impl, symObjAddr: 0x21D0, symBinAddr: 0x3C500, symSize: 0x30 }
  - { offset: 0xAFFBA, size: 0x8, addend: 0x0, symName: __RNvXs12_CsaKzlTDPUHDb_11proc_macro2NtB6_5IdentNtNtCsieiGu2EXtoJ_4core5clone5Clone5cloneCs71axb73f1AC_14thiserror_impl, symObjAddr: 0x2200, symBinAddr: 0x3C530, symSize: 0x80 }
  - { offset: 0xAFFEE, size: 0x8, addend: 0x0, symName: __RNvXsK_CsaKzlTDPUHDb_11proc_macro2NtB5_11TokenStreamNtNtCsieiGu2EXtoJ_4core5clone5Clone5cloneCs71axb73f1AC_14thiserror_impl, symObjAddr: 0x2780, symBinAddr: 0x3CAB0, symSize: 0x90 }
  - { offset: 0xB3FDE, size: 0x8, addend: 0x0, symName: __RNvMNtCsieiGu2EXtoJ_4core5sliceSNtCsaKzlTDPUHDb_11proc_macro211TokenStream4iterCs71axb73f1AC_14thiserror_impl, symObjAddr: 0x1980, symBinAddr: 0x3BCB0, symSize: 0x20 }
  - { offset: 0xB403C, size: 0x8, addend: 0x0, symName: __RNvMNtCsieiGu2EXtoJ_4core5sliceSRNtCsaKzlTDPUHDb_11proc_macro25Ident22split_at_mut_uncheckedCs71axb73f1AC_14thiserror_impl, symObjAddr: 0x19A0, symBinAddr: 0x3BCD0, symSize: 0x110 }
  - { offset: 0xB41DE, size: 0x8, addend: 0x0, symName: __RNvMNtCsieiGu2EXtoJ_4core5sliceSRNtCsaKzlTDPUHDb_11proc_macro25Ident7reverseCs71axb73f1AC_14thiserror_impl, symObjAddr: 0x1AB0, symBinAddr: 0x3BDE0, symSize: 0x100 }
  - { offset: 0xB4393, size: 0x8, addend: 0x0, symName: __RNvMNtCsieiGu2EXtoJ_4core5sliceSTNtCsaKzlTDPUHDb_11proc_macro211TokenStreamNtNtCsdGrGZaRBwMb_3syn5token4PlusE4iterCs71axb73f1AC_14thiserror_impl, symObjAddr: 0x1BB0, symBinAddr: 0x3BEE0, symSize: 0x20 }
  - { offset: 0xB4406, size: 0x8, addend: 0x0, symName: __RNvXs0_NtNtNtNtCsieiGu2EXtoJ_4core5slice4sort6stable9quicksortRNtCsaKzlTDPUHDb_11proc_macro25IdentNtB5_8IsFreeze9is_freezeCs71axb73f1AC_14thiserror_impl, symObjAddr: 0x21C0, symBinAddr: 0x3C4F0, symSize: 0x10 }
  - { offset: 0xB44E8, size: 0x8, addend: 0x0, symName: __RNvYNtCsaKzlTDPUHDb_11proc_macro25IdentINtNtCsieiGu2EXtoJ_4core3cmp9PartialEqReE2neCs71axb73f1AC_14thiserror_impl, symObjAddr: 0x3AB0, symBinAddr: 0x3DDE0, symSize: 0x20 }
  - { offset: 0xB4537, size: 0x8, addend: 0x0, symName: __RNvYNtCsaKzlTDPUHDb_11proc_macro25IdentNtNtCsieiGu2EXtoJ_4core3cmp9PartialEq2neCs71axb73f1AC_14thiserror_impl, symObjAddr: 0x3B20, symBinAddr: 0x3DE50, symSize: 0x20 }
  - { offset: 0xB4591, size: 0x8, addend: 0x0, symName: __RNvXs7_NtNtCsieiGu2EXtoJ_4core3cmp5implsRNtCsaKzlTDPUHDb_11proc_macro25IdentNtB7_9PartialEq2neCs71axb73f1AC_14thiserror_impl, symObjAddr: 0x2490, symBinAddr: 0x3C7C0, symSize: 0x30 }
  - { offset: 0xB45E6, size: 0x8, addend: 0x0, symName: __RNvXs8_NtNtCsieiGu2EXtoJ_4core3cmp5implsRNtCsaKzlTDPUHDb_11proc_macro25IdentNtB7_10PartialOrd2ltCs71axb73f1AC_14thiserror_impl, symObjAddr: 0x24C0, symBinAddr: 0x3C7F0, symSize: 0x30 }
  - { offset: 0xB46C6, size: 0x8, addend: 0x0, symName: __RNvYNtCsaKzlTDPUHDb_11proc_macro25IdentNtNtCsieiGu2EXtoJ_4core3cmp10PartialOrd2ltCs71axb73f1AC_14thiserror_impl, symObjAddr: 0x3AD0, symBinAddr: 0x3DE00, symSize: 0x50 }
  - { offset: 0xB4911, size: 0x8, addend: 0x0, symName: __RINvYINtNtCsdGrGZaRBwMb_3syn10punctuated11PrivateIterNtNtB8_4data7VariantNtNtB8_5token5CommaENtNtNtNtCsieiGu2EXtoJ_4core4iter6traits8iterator8Iterator8try_foldINtNtNtB1B_3num7nonzero7NonZerojENCNvXs_NvB1t_10advance_byB3_NtB3b_13SpecAdvanceBy15spec_advance_by0INtNtB1B_6option6OptionB2x_EECs71axb73f1AC_14thiserror_impl, symObjAddr: 0x850, symBinAddr: 0x3AB80, symSize: 0x130 }
  - { offset: 0xB49C5, size: 0x8, addend: 0x0, symName: __RINvYINtNtCsdGrGZaRBwMb_3syn10punctuated11PrivateIterNtNtB8_4path15GenericArgumentNtNtB8_5token5CommaENtNtNtNtCsieiGu2EXtoJ_4core4iter6traits8iterator8Iterator8try_foldINtNtNtB1K_3num7nonzero7NonZerojENCNvXs_NvB1C_10advance_byB3_NtB3k_13SpecAdvanceBy15spec_advance_by0INtNtB1K_6option6OptionB2G_EECs71axb73f1AC_14thiserror_impl, symObjAddr: 0x980, symBinAddr: 0x3ACB0, symSize: 0x130 }
  - { offset: 0xB4A79, size: 0x8, addend: 0x0, symName: __RINvYINtNtCsdGrGZaRBwMb_3syn10punctuated4IterNtNtB8_4data5FieldENtNtNtNtCsieiGu2EXtoJ_4core4iter6traits8iterator8Iterator8try_folduNCINvNvXs_NtNtB16_8adapters9enumerateINtB2f_9EnumeratepEB10_8try_fold9enumerateRBH_uINtNtNtB18_3ops12control_flow11ControlFlowIB3s_NtNtCs71axb73f1AC_14thiserror_impl3ast5FieldEENCINvNtB2h_3map12map_try_foldTjB3m_EINtNtB18_6result6ResultB4c_NtNtB8_5error5ErrorEuB3r_NCNvMs2_B4e_B4c_17multiple_from_syn0NCINvXB2h_INtB2h_12GenericShuntINtB51_3MapIB2H_B3_EB6m_EIB5x_NtNtB18_7convert10InfallibleB5X_EEB10_8try_folduNCINvNvB10_12try_for_each4callB4c_B47_NcNtB47_5Break0E0B47_E0E0E0B3r_EB4g_, symObjAddr: 0xAB0, symBinAddr: 0x3ADE0, symSize: 0x160 }
  - { offset: 0xB4B35, size: 0x8, addend: 0x0, symName: __RINvYINtNtCsdGrGZaRBwMb_3syn10punctuated4IterNtNtB8_4data7VariantENtNtNtNtCsieiGu2EXtoJ_4core4iter6traits8iterator8Iterator3mapINtNtB1a_6result6ResultNtNtCs71axb73f1AC_14thiserror_impl3ast7VariantNtNtB8_5error5ErrorENCNvMs0_B2q_NtB2q_4Enum8from_syn0EB2s_, symObjAddr: 0xC10, symBinAddr: 0x3AF40, symSize: 0x40 }
  - { offset: 0xB4BA3, size: 0x8, addend: 0x0, symName: __RINvYINtNtCsdGrGZaRBwMb_3syn10punctuated4IterNtNtB8_4data7VariantENtNtNtNtCsieiGu2EXtoJ_4core4iter6traits8iterator8Iterator8try_folduNCINvNtNtB18_8adapters3map12map_try_foldRBH_INtNtB1a_6result6ResultNtNtCs71axb73f1AC_14thiserror_impl3ast7VariantNtNtB8_5error5ErrorEuINtNtNtB1a_3ops12control_flow11ControlFlowIB4i_B3c_EENCNvMs0_B3e_NtB3e_4Enum8from_syn0NCINvXB2e_INtB2e_12GenericShuntINtB2c_3MapB3_B58_EIB2Q_NtNtB1a_7convert10InfallibleB3W_EEB12_8try_folduNCINvNvB12_12try_for_each4callB3c_B4X_NcNtB4X_5Break0E0B4X_E0E0B4h_EB3g_, symObjAddr: 0xC50, symBinAddr: 0x3AF80, symSize: 0x160 }
  - { offset: 0xB4C5F, size: 0x8, addend: 0x0, symName: __RINvYINtNtNtCslJiobkLta79_5alloc3vec9into_iter8IntoIterNtCsaKzlTDPUHDb_11proc_macro29TokenTreeENtNtNtNtCsieiGu2EXtoJ_4core4iter6traits8iterator8Iterator3mapNtCscKtU6MdFI5n_10proc_macro9TokenTreeNvNtBT_3imp19into_compiler_tokenECs71axb73f1AC_14thiserror_impl, symObjAddr: 0xDB0, symBinAddr: 0x3B0E0, symSize: 0x30 }
  - { offset: 0xB4CCC, size: 0x8, addend: 0x0, symName: __RINvYINtNtNtCslJiobkLta79_5alloc3vec9into_iter8IntoIterNtCsaKzlTDPUHDb_11proc_macro29TokenTreeENtNtNtNtCsieiGu2EXtoJ_4core4iter6traits8iterator8Iterator7collectNtNtBT_3imp11TokenStreamECs71axb73f1AC_14thiserror_impl, symObjAddr: 0xDE0, symBinAddr: 0x3B110, symSize: 0x70 }
  - { offset: 0xB4D62, size: 0x8, addend: 0x0, symName: __RINvYINtNtNtCslJiobkLta79_5alloc3vec9into_iter8IntoIterNtCsaKzlTDPUHDb_11proc_macro29TokenTreeENtNtNtNtCsieiGu2EXtoJ_4core4iter6traits8iterator8Iterator7collectNtNtBT_8fallback11TokenStreamECs71axb73f1AC_14thiserror_impl, symObjAddr: 0xE50, symBinAddr: 0x3B180, symSize: 0x70 }
  - { offset: 0xB4DF8, size: 0x8, addend: 0x0, symName: __RINvYINtNtNtCslJiobkLta79_5alloc3vec9into_iter8IntoIterNtCsaKzlTDPUHDb_11proc_macro29TokenTreeENtNtNtNtCsieiGu2EXtoJ_4core4iter6traits8iterator8Iterator8for_eachNCINvXsa_NtBT_8fallbackNtB2I_11TokenStreamINtNtB1z_7collect6ExtendBR_E6extendB3_E0ECs71axb73f1AC_14thiserror_impl, symObjAddr: 0xEC0, symBinAddr: 0x3B1F0, symSize: 0x20 }
  - { offset: 0xB4E44, size: 0x8, addend: 0x0, symName: __RINvYINtNtNtCslJiobkLta79_5alloc3vec9into_iter8IntoIterRNtCsaKzlTDPUHDb_11proc_macro25IdentENtNtNtNtCsieiGu2EXtoJ_4core4iter6traits8iterator8Iterator3mapTBR_NtNtNtNtBa_11collections5btree7set_val9SetValZSTENCINvMse_NtB2z_3setINtB3r_8BTreeSetBR_E16from_sorted_iterB3_E0ECs71axb73f1AC_14thiserror_impl, symObjAddr: 0xEE0, symBinAddr: 0x3B210, symSize: 0x30 }
  - { offset: 0xB4EB1, size: 0x8, addend: 0x0, symName: __RINvYNtNtCsdGrGZaRBwMb_3syn8generics10TypeParamsNtNtNtNtCsieiGu2EXtoJ_4core4iter6traits8iterator8Iterator3mapRNtCsaKzlTDPUHDb_11proc_macro25IdentNCNvMNtCs71axb73f1AC_14thiserror_impl8genericsNtB2o_13ParamsInScope3new0EB2q_, symObjAddr: 0xF10, symBinAddr: 0x3B240, symSize: 0x20 }
  - { offset: 0xB4F13, size: 0x8, addend: 0x0, symName: __RNvXs_NvNtNtNtNtCsieiGu2EXtoJ_4core4iter6traits8iterator8Iterator10advance_byINtNtCsdGrGZaRBwMb_3syn10punctuated11PrivateIterNtNtB1i_4data7VariantNtNtB1i_5token5CommaENtB4_13SpecAdvanceBy15spec_advance_byCs71axb73f1AC_14thiserror_impl, symObjAddr: 0x2A40, symBinAddr: 0x3CD70, symSize: 0x90 }
  - { offset: 0xB4FC1, size: 0x8, addend: 0x0, symName: __RNvXs_NvNtNtNtNtCsieiGu2EXtoJ_4core4iter6traits8iterator8Iterator10advance_byINtNtCsdGrGZaRBwMb_3syn10punctuated11PrivateIterNtNtB1i_4path15GenericArgumentNtNtB1i_5token5CommaENtB4_13SpecAdvanceBy15spec_advance_byCs71axb73f1AC_14thiserror_impl, symObjAddr: 0x2AD0, symBinAddr: 0x3CE00, symSize: 0x90 }
  - { offset: 0xB5085, size: 0x8, addend: 0x0, symName: __RNvYINtNtCsdGrGZaRBwMb_3syn10punctuated11PrivateIterNtNtB7_4data7VariantNtNtB7_5token5CommaENtNtNtNtCsieiGu2EXtoJ_4core4iter6traits8iterator8Iterator10advance_byCs71axb73f1AC_14thiserror_impl, symObjAddr: 0x3550, symBinAddr: 0x3D880, symSize: 0x20 }
  - { offset: 0xB50CB, size: 0x8, addend: 0x0, symName: __RNvYINtNtCsdGrGZaRBwMb_3syn10punctuated11PrivateIterNtNtB7_4data7VariantNtNtB7_5token5CommaENtNtNtNtCsieiGu2EXtoJ_4core4iter6traits8iterator8Iterator3nthCs71axb73f1AC_14thiserror_impl, symObjAddr: 0x3570, symBinAddr: 0x3D8A0, symSize: 0x80 }
  - { offset: 0xB519B, size: 0x8, addend: 0x0, symName: __RNvYINtNtCsdGrGZaRBwMb_3syn10punctuated11PrivateIterNtNtB7_4data7VariantNtNtB7_5token5CommaENtNtNtNtCsieiGu2EXtoJ_4core4iter6traits8iterator8Iterator9size_hintCs71axb73f1AC_14thiserror_impl, symObjAddr: 0x35F0, symBinAddr: 0x3D920, symSize: 0x30 }
  - { offset: 0xB51D0, size: 0x8, addend: 0x0, symName: __RNvYINtNtCsdGrGZaRBwMb_3syn10punctuated11PrivateIterNtNtB7_4path15GenericArgumentNtNtB7_5token5CommaENtNtNtNtCsieiGu2EXtoJ_4core4iter6traits8iterator8Iterator10advance_byCs71axb73f1AC_14thiserror_impl, symObjAddr: 0x3850, symBinAddr: 0x3DB80, symSize: 0x20 }
  - { offset: 0xB5216, size: 0x8, addend: 0x0, symName: __RNvYINtNtCsdGrGZaRBwMb_3syn10punctuated11PrivateIterNtNtB7_4path15GenericArgumentNtNtB7_5token5CommaENtNtNtNtCsieiGu2EXtoJ_4core4iter6traits8iterator8Iterator3nthCs71axb73f1AC_14thiserror_impl, symObjAddr: 0x3870, symBinAddr: 0x3DBA0, symSize: 0x80 }
  - { offset: 0xB52E6, size: 0x8, addend: 0x0, symName: __RNvYINtNtCsdGrGZaRBwMb_3syn10punctuated11PrivateIterNtNtB7_4path15GenericArgumentNtNtB7_5token5CommaENtNtNtNtCsieiGu2EXtoJ_4core4iter6traits8iterator8Iterator9size_hintCs71axb73f1AC_14thiserror_impl, symObjAddr: 0x38F0, symBinAddr: 0x3DC20, symSize: 0x30 }
  - { offset: 0xB531B, size: 0x8, addend: 0x0, symName: __RNvYINtNtCsdGrGZaRBwMb_3syn10punctuated4IterNtNtB7_4data5FieldENtNtNtNtCsieiGu2EXtoJ_4core4iter6traits8iterator8Iterator9enumerateCs71axb73f1AC_14thiserror_impl, symObjAddr: 0x3920, symBinAddr: 0x3DC50, symSize: 0x20 }
  - { offset: 0xB5367, size: 0x8, addend: 0x0, symName: __RNvYNtNtCsdGrGZaRBwMb_3syn8generics10TypeParamsNtNtNtNtCsieiGu2EXtoJ_4core4iter6traits8iterator8Iterator9size_hintCs71axb73f1AC_14thiserror_impl, symObjAddr: 0x3B40, symBinAddr: 0x3DE70, symSize: 0x30 }
  - { offset: 0xB540C, size: 0x8, addend: 0x0, symName: __RNvXNtNtNtCsieiGu2EXtoJ_4core4iter6traits7collectINtNtCsdGrGZaRBwMb_3syn10punctuated5PairsNtCsaKzlTDPUHDb_11proc_macro211TokenStreamNtNtBQ_5token4PlusENtB2_12IntoIterator9into_iterCs71axb73f1AC_14thiserror_impl, symObjAddr: 0x20F0, symBinAddr: 0x3C420, symSize: 0x20 }
  - { offset: 0xB5443, size: 0x8, addend: 0x0, symName: __RNvXNtNtNtCsieiGu2EXtoJ_4core4iter6traits7collectINtNtNtCslJiobkLta79_5alloc3vec9into_iter8IntoIterNtCsaKzlTDPUHDb_11proc_macro29TokenTreeENtB2_12IntoIterator9into_iterCs71axb73f1AC_14thiserror_impl, symObjAddr: 0x2110, symBinAddr: 0x3C440, symSize: 0x30 }
  - { offset: 0xB54B1, size: 0x8, addend: 0x0, symName: __RNvYINtNtCsdGrGZaRBwMb_3syn10punctuated11PrivateIterNtNtB7_4data7VariantNtNtB7_5token5CommaENtNtNtNtCsieiGu2EXtoJ_4core4iter6traits10exact_size17ExactSizeIterator8is_emptyCs71axb73f1AC_14thiserror_impl, symObjAddr: 0x3320, symBinAddr: 0x3D650, symSize: 0x20 }
  - { offset: 0xB54E6, size: 0x8, addend: 0x0, symName: __RNvYINtNtCsdGrGZaRBwMb_3syn10punctuated11PrivateIterNtNtB7_4path15GenericArgumentNtNtB7_5token5CommaENtNtNtNtCsieiGu2EXtoJ_4core4iter6traits10exact_size17ExactSizeIterator8is_emptyCs71axb73f1AC_14thiserror_impl, symObjAddr: 0x3620, symBinAddr: 0x3D950, symSize: 0x20 }
  - { offset: 0xB551B, size: 0x8, addend: 0x0, symName: __RNvYINtNtNtCslJiobkLta79_5alloc3vec9into_iter8IntoIterRNtCsaKzlTDPUHDb_11proc_macro25IdentENtNtNtNtCsieiGu2EXtoJ_4core4iter6traits10exact_size17ExactSizeIterator3lenCs71axb73f1AC_14thiserror_impl, symObjAddr: 0x3940, symBinAddr: 0x3DC70, symSize: 0xE0 }
  - { offset: 0xB5627, size: 0x8, addend: 0x0, symName: __RNvYINtNtCsdGrGZaRBwMb_3syn10punctuated11PrivateIterNtNtB7_4data7VariantNtNtB7_5token5CommaENtNtNtNtCsieiGu2EXtoJ_4core4iter6traits12double_ended19DoubleEndedIterator15advance_back_byCs71axb73f1AC_14thiserror_impl, symObjAddr: 0x3340, symBinAddr: 0x3D670, symSize: 0x1A0 }
  - { offset: 0xB57A6, size: 0x8, addend: 0x0, symName: __RNvYINtNtCsdGrGZaRBwMb_3syn10punctuated11PrivateIterNtNtB7_4data7VariantNtNtB7_5token5CommaENtNtNtNtCsieiGu2EXtoJ_4core4iter6traits12double_ended19DoubleEndedIterator8nth_backCs71axb73f1AC_14thiserror_impl, symObjAddr: 0x34E0, symBinAddr: 0x3D810, symSize: 0x70 }
  - { offset: 0xB5824, size: 0x8, addend: 0x0, symName: __RNvYINtNtCsdGrGZaRBwMb_3syn10punctuated11PrivateIterNtNtB7_4path15GenericArgumentNtNtB7_5token5CommaENtNtNtNtCsieiGu2EXtoJ_4core4iter6traits12double_ended19DoubleEndedIterator15advance_back_byCs71axb73f1AC_14thiserror_impl, symObjAddr: 0x3640, symBinAddr: 0x3D970, symSize: 0x1A0 }
  - { offset: 0xB59A3, size: 0x8, addend: 0x0, symName: __RNvYINtNtCsdGrGZaRBwMb_3syn10punctuated11PrivateIterNtNtB7_4path15GenericArgumentNtNtB7_5token5CommaENtNtNtNtCsieiGu2EXtoJ_4core4iter6traits12double_ended19DoubleEndedIterator8nth_backCs71axb73f1AC_14thiserror_impl, symObjAddr: 0x37E0, symBinAddr: 0x3DB10, symSize: 0x70 }
  - { offset: 0xB6A4B, size: 0x8, addend: 0x0, symName: __RNvXNtCsieiGu2EXtoJ_4core6borrowNtCsaKzlTDPUHDb_11proc_macro25IdentINtB2_6BorrowBu_E6borrowCs71axb73f1AC_14thiserror_impl, symObjAddr: 0x2090, symBinAddr: 0x3C3C0, symSize: 0x10 }
  - { offset: 0xB6A80, size: 0x8, addend: 0x0, symName: __RNvXNtCsieiGu2EXtoJ_4core6borrowNtNtCslJiobkLta79_5alloc6string6StringINtB2_6BorrowBu_E6borrowCs71axb73f1AC_14thiserror_impl, symObjAddr: 0x20A0, symBinAddr: 0x3C3D0, symSize: 0x10 }
  - { offset: 0xB6ABB, size: 0x8, addend: 0x0, symName: __RNvXs0_NtCsieiGu2EXtoJ_4core6borrowRNtCsaKzlTDPUHDb_11proc_macro25IdentINtB5_6BorrowBy_E6borrowCs71axb73f1AC_14thiserror_impl, symObjAddr: 0x21B0, symBinAddr: 0x3C4E0, symSize: 0x10 }
  - { offset: 0xB6AFC, size: 0x8, addend: 0x0, symName: __RNvXs1_NtCsieiGu2EXtoJ_4core7convertNtCsaKzlTDPUHDb_11proc_macro211TokenStreamINtB5_4IntoNtCscKtU6MdFI5n_10proc_macro11TokenStreamE4intoCs71axb73f1AC_14thiserror_impl, symObjAddr: 0x2280, symBinAddr: 0x3C5B0, symSize: 0x10 }
  - { offset: 0xB7307, size: 0x8, addend: 0x0, symName: __RINvNvXNtCs9OU1sGv5X54_5quote3extNtCsaKzlTDPUHDb_11proc_macro211TokenStreamNtB5_14TokenStreamExt10append_all13do_append_allINtNtCsdGrGZaRBwMb_3syn10punctuated5PairsBv_NtNtB22_5token4PlusEECs71axb73f1AC_14thiserror_impl, symObjAddr: 0x0, symBinAddr: 0x3A330, symSize: 0xB0 }
  - { offset: 0xB737B, size: 0x8, addend: 0x0, symName: __RINvXNtCs9OU1sGv5X54_5quote3extNtCsaKzlTDPUHDb_11proc_macro211TokenStreamNtB3_14TokenStreamExt10append_allINtNtCsdGrGZaRBwMb_3syn10punctuated5PairsBt_NtNtB1L_5token4PlusEECs71axb73f1AC_14thiserror_impl, symObjAddr: 0xB0, symBinAddr: 0x3A3E0, symSize: 0x40 }
  - { offset: 0xB73C7, size: 0x8, addend: 0x0, symName: __RNvXNtCs9OU1sGv5X54_5quote14ident_fragmentRNtCsaKzlTDPUHDb_11proc_macro25IdentNtB2_13IdentFragment3fmtCs71axb73f1AC_14thiserror_impl, symObjAddr: 0x1F10, symBinAddr: 0x3C240, symSize: 0x30 }
  - { offset: 0xB740A, size: 0x8, addend: 0x0, symName: __RNvXNtCs9OU1sGv5X54_5quote14ident_fragmentRNtCsaKzlTDPUHDb_11proc_macro25IdentNtB2_13IdentFragment4spanCs71axb73f1AC_14thiserror_impl, symObjAddr: 0x1F40, symBinAddr: 0x3C270, symSize: 0x30 }
  - { offset: 0xB743F, size: 0x8, addend: 0x0, symName: __RNvXNtCs9OU1sGv5X54_5quote14ident_fragmentRmNtB2_13IdentFragment3fmtCs71axb73f1AC_14thiserror_impl, symObjAddr: 0x1F70, symBinAddr: 0x3C2A0, symSize: 0x30 }
  - { offset: 0xB748E, size: 0x8, addend: 0x0, symName: __RNvXNtCs9OU1sGv5X54_5quote9to_tokensRINtNtCsdGrGZaRBwMb_3syn10punctuated10PunctuatedNtCsaKzlTDPUHDb_11proc_macro211TokenStreamNtNtBE_5token4PlusENtB2_8ToTokens9to_tokensCs71axb73f1AC_14thiserror_impl, symObjAddr: 0x1FA0, symBinAddr: 0x3C2D0, symSize: 0x30 }
  - { offset: 0xB74CD, size: 0x8, addend: 0x0, symName: __RNvXNtCs9OU1sGv5X54_5quote9to_tokensRNtCsaKzlTDPUHDb_11proc_macro211TokenStreamNtB2_8ToTokens9to_tokensCs71axb73f1AC_14thiserror_impl, symObjAddr: 0x1FD0, symBinAddr: 0x3C300, symSize: 0x30 }
  - { offset: 0xB750C, size: 0x8, addend: 0x0, symName: __RNvXNtCs9OU1sGv5X54_5quote9to_tokensRNtCsaKzlTDPUHDb_11proc_macro25IdentNtB2_8ToTokens9to_tokensCs71axb73f1AC_14thiserror_impl, symObjAddr: 0x2000, symBinAddr: 0x3C330, symSize: 0x30 }
  - { offset: 0xB754B, size: 0x8, addend: 0x0, symName: __RNvXNtCs9OU1sGv5X54_5quote9to_tokensRNtNtCsdGrGZaRBwMb_3syn8generics11WhereClauseNtB2_8ToTokens9to_tokensCs71axb73f1AC_14thiserror_impl, symObjAddr: 0x2030, symBinAddr: 0x3C360, symSize: 0x30 }
  - { offset: 0xB7590, size: 0x8, addend: 0x0, symName: __RNvYNtCsaKzlTDPUHDb_11proc_macro211TokenStreamNtNtCs9OU1sGv5X54_5quote9to_tokens8ToTokens15to_token_streamCs71axb73f1AC_14thiserror_impl, symObjAddr: 0x3A20, symBinAddr: 0x3DD50, symSize: 0x90 }
  - { offset: 0xB7C20, size: 0x8, addend: 0x0, symName: __RNvMNtCsdGrGZaRBwMb_3syn10punctuatedINtB2_10PunctuatedNtCsaKzlTDPUHDb_11proc_macro211TokenStreamNtNtB4_5token4PlusE10push_punctCs71axb73f1AC_14thiserror_impl, symObjAddr: 0x10B0, symBinAddr: 0x3B3E0, symSize: 0x220 }
  - { offset: 0xB7C9E, size: 0x8, addend: 0x0, symName: __RNvMNtCsdGrGZaRBwMb_3syn10punctuatedINtB2_10PunctuatedNtCsaKzlTDPUHDb_11proc_macro211TokenStreamNtNtB4_5token4PlusE10push_valueCs71axb73f1AC_14thiserror_impl, symObjAddr: 0x12D0, symBinAddr: 0x3B600, symSize: 0x1C0 }
  - { offset: 0xB7D0C, size: 0x8, addend: 0x0, symName: __RNvMNtCsdGrGZaRBwMb_3syn10punctuatedINtB2_10PunctuatedNtCsaKzlTDPUHDb_11proc_macro211TokenStreamNtNtB4_5token4PlusE17empty_or_trailingCs71axb73f1AC_14thiserror_impl, symObjAddr: 0x1490, symBinAddr: 0x3B7C0, symSize: 0x30 }
  - { offset: 0xB7D40, size: 0x8, addend: 0x0, symName: __RNvMNtCsdGrGZaRBwMb_3syn10punctuatedINtB2_10PunctuatedNtCsaKzlTDPUHDb_11proc_macro211TokenStreamNtNtB4_5token4PlusE3newCs71axb73f1AC_14thiserror_impl, symObjAddr: 0x14C0, symBinAddr: 0x3B7F0, symSize: 0x50 }
  - { offset: 0xB7D66, size: 0x8, addend: 0x0, symName: __RNvMNtCsdGrGZaRBwMb_3syn10punctuatedINtB2_10PunctuatedNtCsaKzlTDPUHDb_11proc_macro211TokenStreamNtNtB4_5token4PlusE4pushCs71axb73f1AC_14thiserror_impl, symObjAddr: 0x1510, symBinAddr: 0x3B840, symSize: 0xE0 }
  - { offset: 0xB7DD0, size: 0x8, addend: 0x0, symName: __RNvMNtCsdGrGZaRBwMb_3syn10punctuatedINtB2_10PunctuatedNtCsaKzlTDPUHDb_11proc_macro211TokenStreamNtNtB4_5token4PlusE5pairsCs71axb73f1AC_14thiserror_impl, symObjAddr: 0x15F0, symBinAddr: 0x3B920, symSize: 0x80 }
  - { offset: 0xB7E1E, size: 0x8, addend: 0x0, symName: __RNvMNtCsdGrGZaRBwMb_3syn10punctuatedINtB2_10PunctuatedNtNtB4_4data7VariantNtNtB4_5token5CommaE4iterCs71axb73f1AC_14thiserror_impl, symObjAddr: 0x1670, symBinAddr: 0x3B9A0, symSize: 0xC0 }
  - { offset: 0xB7E7D, size: 0x8, addend: 0x0, symName: __RNvMNtCsdGrGZaRBwMb_3syn10punctuatedINtB2_10PunctuatedNtNtB4_4path15GenericArgumentNtNtB4_5token5CommaE3lenCs71axb73f1AC_14thiserror_impl, symObjAddr: 0x1730, symBinAddr: 0x3BA60, symSize: 0x80 }
  - { offset: 0xB7EEC, size: 0x8, addend: 0x0, symName: __RNvMNtCsdGrGZaRBwMb_3syn10punctuatedINtB2_10PunctuatedNtNtB4_4path15GenericArgumentNtNtB4_5token5CommaE4iterCs71axb73f1AC_14thiserror_impl, symObjAddr: 0x17B0, symBinAddr: 0x3BAE0, symSize: 0xC0 }
  - { offset: 0xB7F4B, size: 0x8, addend: 0x0, symName: __RNvMNtCsdGrGZaRBwMb_3syn10punctuatedINtB2_10PunctuatedNtNtB4_8generics14WherePredicateNtNtB4_5token5CommaE4pushCs71axb73f1AC_14thiserror_impl, symObjAddr: 0x1870, symBinAddr: 0x3BBA0, symSize: 0x110 }
  - { offset: 0xB7FF0, size: 0x8, addend: 0x0, symName: __RNvMNtCslJiobkLta79_5alloc6stringNtB2_6String3newCs71axb73f1AC_14thiserror_impl, symObjAddr: 0x1BD0, symBinAddr: 0x3BF00, symSize: 0x40 }
  - { offset: 0xB81A2, size: 0x8, addend: 0x0, symName: __RNvMNtCslJiobkLta79_5alloc6stringNtB2_6String4pushCs71axb73f1AC_14thiserror_impl, symObjAddr: 0x1C10, symBinAddr: 0x3BF40, symSize: 0x130 }
  - { offset: 0xB846B, size: 0x8, addend: 0x0, symName: __RNvMNtCslJiobkLta79_5alloc6stringNtB2_6String6as_strCs71axb73f1AC_14thiserror_impl, symObjAddr: 0x1D40, symBinAddr: 0x3C070, symSize: 0x60 }
  - { offset: 0xB8639, size: 0x8, addend: 0x0, symName: __RNvMNtCslJiobkLta79_5alloc6stringNtB2_6String8push_strCs71axb73f1AC_14thiserror_impl, symObjAddr: 0x1DA0, symBinAddr: 0x3C0D0, symSize: 0x50 }
  - { offset: 0xB87D3, size: 0x8, addend: 0x0, symName: __RNvMs0_NtCslJiobkLta79_5alloc7raw_vecINtB5_6RawVecNtCsaKzlTDPUHDb_11proc_macro211TokenStreamE8grow_oneCs71axb73f1AC_14thiserror_impl, symObjAddr: 0x1DF0, symBinAddr: 0x3C120, symSize: 0x90 }
  - { offset: 0xB8885, size: 0x8, addend: 0x0, symName: __RNvMs0_NtCslJiobkLta79_5alloc7raw_vecINtB5_6RawVecTNtCsaKzlTDPUHDb_11proc_macro211TokenStreamNtNtCsdGrGZaRBwMb_3syn5token4PlusEE8grow_oneCs71axb73f1AC_14thiserror_impl, symObjAddr: 0x1E80, symBinAddr: 0x3C1B0, symSize: 0x90 }
  - { offset: 0xB91DB, size: 0x8, addend: 0x0, symName: __RINvNtNtCsieiGu2EXtoJ_4core4iter8adapters11try_processINtNtB2_3map3MapINtNtB2_9enumerate9EnumerateINtNtCsdGrGZaRBwMb_3syn10punctuated4IterNtNtB1D_4data5FieldEENCNvMs2_NtCs71axb73f1AC_14thiserror_impl3astNtB2F_5Field17multiple_from_syn0EB3f_INtNtB6_6result6ResultNtNtB6_7convert10InfallibleNtNtB1D_5error5ErrorENCINvXso_B3T_IB3R_INtNtCslJiobkLta79_5alloc3vec3VecB3f_EB4D_EINtNtNtB4_6traits7collect12FromIteratorIB3R_B3f_B4D_EE9from_iterBQ_E0B5g_EB2H_, symObjAddr: 0x0, symBinAddr: 0x3DEA0, symSize: 0x210 }
  - { offset: 0xB91FF, size: 0x8, addend: 0x0, symName: __RNvNtCs71axb73f1AC_14thiserror_impl9scan_expr11BREAK_LABEL, symObjAddr: 0x5128, symBinAddr: 0x22A508, symSize: 0x0 }
  - { offset: 0xB9424, size: 0x8, addend: 0x0, symName: __RNvNtCs71axb73f1AC_14thiserror_impl9scan_expr11BREAK_VALUE, symObjAddr: 0x5188, symBinAddr: 0x22A568, symSize: 0x0 }
  - { offset: 0xB943E, size: 0x8, addend: 0x0, symName: __RNvNtCs71axb73f1AC_14thiserror_impl9scan_expr11CLOSURE_RET, symObjAddr: 0x5248, symBinAddr: 0x22A628, symSize: 0x0 }
  - { offset: 0xB9458, size: 0x8, addend: 0x0, symName: __RNvNtCs71axb73f1AC_14thiserror_impl9scan_expr12CLOSURE_ARGS, symObjAddr: 0x52A8, symBinAddr: 0x22A688, symSize: 0x0 }
  - { offset: 0xB9472, size: 0x8, addend: 0x0, symName: __RNvNtCs71axb73f1AC_14thiserror_impl9scan_expr3DOT, symObjAddr: 0x5308, symBinAddr: 0x22A6E8, symSize: 0x0 }
  - { offset: 0xB948C, size: 0x8, addend: 0x0, symName: __RNvNtCs71axb73f1AC_14thiserror_impl9scan_expr3FOR, symObjAddr: 0x5398, symBinAddr: 0x22A778, symSize: 0x0 }
  - { offset: 0xB94A6, size: 0x8, addend: 0x0, symName: __RNvNtCs71axb73f1AC_14thiserror_impl9scan_expr3RAW, symObjAddr: 0x53F8, symBinAddr: 0x22A7D8, symSize: 0x0 }
  - { offset: 0xB94C0, size: 0x8, addend: 0x0, symName: __RNvNtCs71axb73f1AC_14thiserror_impl9scan_expr4INIT, symObjAddr: 0x54E8, symBinAddr: 0x22A8C8, symSize: 0x0 }
  - { offset: 0xB94DA, size: 0x8, addend: 0x0, symName: __RNvNtCs71axb73f1AC_14thiserror_impl9scan_expr4PATH, symObjAddr: 0x5A28, symBinAddr: 0x22AE08, symSize: 0x0 }
  - { offset: 0xB94F4, size: 0x8, addend: 0x0, symName: __RNvNtCs71axb73f1AC_14thiserror_impl9scan_expr5ASYNC, symObjAddr: 0x5AE8, symBinAddr: 0x22AEC8, symSize: 0x0 }
  - { offset: 0xB950E, size: 0x8, addend: 0x0, symName: __RNvNtCs71axb73f1AC_14thiserror_impl9scan_expr5BLOCK, symObjAddr: 0x5B78, symBinAddr: 0x22AF58, symSize: 0x0 }
  - { offset: 0xB9528, size: 0x8, addend: 0x0, symName: __RNvNtCs71axb73f1AC_14thiserror_impl9scan_expr5CONST, symObjAddr: 0x5BA8, symBinAddr: 0x22AF88, symSize: 0x0 }
  - { offset: 0xB9542, size: 0x8, addend: 0x0, symName: __RNvNtCs71axb73f1AC_14thiserror_impl9scan_expr5RANGE, symObjAddr: 0x5C08, symBinAddr: 0x22AFE8, symSize: 0x0 }
  - { offset: 0xB955C, size: 0x8, addend: 0x0, symName: __RNvNtCs71axb73f1AC_14thiserror_impl9scan_expr6METHOD, symObjAddr: 0x5D28, symBinAddr: 0x22B108, symSize: 0x0 }
  - { offset: 0xB9576, size: 0x8, addend: 0x0, symName: __RNvNtCs71axb73f1AC_14thiserror_impl9scan_expr6RETURN, symObjAddr: 0x5D58, symBinAddr: 0x22B138, symSize: 0x0 }
  - { offset: 0xB9590, size: 0x8, addend: 0x0, symName: __RNvNtCs71axb73f1AC_14thiserror_impl9scan_expr7CLOSURE, symObjAddr: 0x5DB8, symBinAddr: 0x22B198, symSize: 0x0 }
  - { offset: 0xB95AA, size: 0x8, addend: 0x0, symName: __RNvNtCs71axb73f1AC_14thiserror_impl9scan_expr7IF_ELSE, symObjAddr: 0x5ED8, symBinAddr: 0x22B2B8, symSize: 0x0 }
  - { offset: 0xB95C4, size: 0x8, addend: 0x0, symName: __RNvNtCs71axb73f1AC_14thiserror_impl9scan_expr7IF_THEN, symObjAddr: 0x5F38, symBinAddr: 0x22B318, symSize: 0x0 }
  - { offset: 0xB95DE, size: 0x8, addend: 0x0, symName: __RNvNtCs71axb73f1AC_14thiserror_impl9scan_expr7PATTERN, symObjAddr: 0x5F98, symBinAddr: 0x22B378, symSize: 0x0 }
  - { offset: 0xB95F8, size: 0x8, addend: 0x0, symName: __RNvNtCs71axb73f1AC_14thiserror_impl9scan_expr7POSTFIX, symObjAddr: 0x6298, symBinAddr: 0x22B678, symSize: 0x0 }
  - { offset: 0xB9612, size: 0x8, addend: 0x0, symName: __RNvNtCs71axb73f1AC_14thiserror_impl9scan_expr8CONTINUE, symObjAddr: 0x6478, symBinAddr: 0x22B858, symSize: 0x0 }
  - { offset: 0xB962C, size: 0x8, addend: 0x0, symName: __RNvNtCs71axb73f1AC_14thiserror_impl9scan_expr9REFERENCE, symObjAddr: 0x64D8, symBinAddr: 0x22B8B8, symSize: 0x0 }
  - { offset: 0xB963E, size: 0x8, addend: 0x0, symName: __RNCNvNtCs71axb73f1AC_14thiserror_impl9scan_expr9scan_expr0B5_, symObjAddr: 0x2560, symBinAddr: 0x40400, symSize: 0x230 }
  - { offset: 0xB96C7, size: 0x8, addend: 0x0, symName: __RNCNvNtCs71axb73f1AC_14thiserror_impl9scan_expr9scan_exprs0_0B5_, symObjAddr: 0x2790, symBinAddr: 0x40630, symSize: 0x130 }
  - { offset: 0xB973B, size: 0x8, addend: 0x0, symName: __RNCNvNtCs71axb73f1AC_14thiserror_impl9scan_expr9scan_exprs1_0B5_, symObjAddr: 0x28C0, symBinAddr: 0x40760, symSize: 0x140 }
  - { offset: 0xB97BE, size: 0x8, addend: 0x0, symName: __RNCNvNtCs71axb73f1AC_14thiserror_impl9scan_expr9scan_exprs_0B5_, symObjAddr: 0x2A00, symBinAddr: 0x408A0, symSize: 0x380 }
  - { offset: 0xB98EB, size: 0x8, addend: 0x0, symName: __RNvNtCs71axb73f1AC_14thiserror_impl9scan_expr9scan_expr, symObjAddr: 0x3030, symBinAddr: 0x40ED0, symSize: 0xFB0 }
  - { offset: 0xBA2F1, size: 0x8, addend: 0x0, symName: __RNvXs1J_NtCscKtU6MdFI5n_10proc_macro6bridgeINtB6_11ExpnGlobalsNtNtB6_6client4SpanEINtNtB6_3rpc9DecodeMutuE6decodeCs71axb73f1AC_14thiserror_impl, symObjAddr: 0x4840, symBinAddr: 0x426E0, symSize: 0xA0 }
  - { offset: 0xBA348, size: 0x8, addend: 0x0, symName: __RNvXs9_NtNtCscKtU6MdFI5n_10proc_macro6bridge3rpcTINtB7_11ExpnGlobalsNtNtB7_6client4SpanENtB16_11TokenStreamEINtB5_9DecodeMutuE6decodeCs71axb73f1AC_14thiserror_impl, symObjAddr: 0x48E0, symBinAddr: 0x42780, symSize: 0x80 }
  - { offset: 0xBAAA6, size: 0x8, addend: 0x0, symName: __RINvNtNtCsieiGu2EXtoJ_4core4iter8adapters11try_processINtNtB2_3map3MapINtNtB2_9enumerate9EnumerateINtNtCsdGrGZaRBwMb_3syn10punctuated4IterNtNtB1D_4data5FieldEENCNvMs2_NtCs71axb73f1AC_14thiserror_impl3astNtB2F_5Field17multiple_from_syn0EB3f_INtNtB6_6result6ResultNtNtB6_7convert10InfallibleNtNtB1D_5error5ErrorENCINvXso_B3T_IB3R_INtNtCslJiobkLta79_5alloc3vec3VecB3f_EB4D_EINtNtNtB4_6traits7collect12FromIteratorIB3R_B3f_B4D_EE9from_iterBQ_E0B5g_EB2H_, symObjAddr: 0x0, symBinAddr: 0x3DEA0, symSize: 0x210 }
  - { offset: 0xBAB6F, size: 0x8, addend: 0x0, symName: __RINvNtNtCsieiGu2EXtoJ_4core4iter8adapters11try_processINtNtB2_3map3MapINtNtCsdGrGZaRBwMb_3syn10punctuated4IterNtNtB1b_4data7VariantENCNvMs0_NtCs71axb73f1AC_14thiserror_impl3astNtB2e_4Enum8from_syn0ENtB2e_7VariantINtNtB6_6result6ResultNtNtB6_7convert10InfallibleNtNtB1b_5error5ErrorENCINvXso_B3r_IB3p_INtNtCslJiobkLta79_5alloc3vec3VecB3a_EB4b_EINtNtNtB4_6traits7collect12FromIteratorIB3p_B3a_B4b_EE9from_iterBQ_E0B4O_EB2g_, symObjAddr: 0x210, symBinAddr: 0x3E0B0, symSize: 0x230 }
  - { offset: 0xBAC3D, size: 0x8, addend: 0x0, symName: __RINvXNtNtCsieiGu2EXtoJ_4core4iter8adaptersINtB3_12GenericShuntINtNtB3_3map3MapINtNtB3_9enumerate9EnumerateINtNtCsdGrGZaRBwMb_3syn10punctuated4IterNtNtB1L_4data5FieldEENCNvMs2_NtCs71axb73f1AC_14thiserror_impl3astNtB2N_5Field17multiple_from_syn0EINtNtB7_6result6ResultNtNtB7_7convert10InfallibleNtNtB1L_5error5ErrorEENtNtNtB5_6traits8iterator8Iterator8try_folduNCINvNvB53_12try_for_each4callB3n_INtNtNtB7_3ops12control_flow11ControlFlowB3n_ENcNtB6j_5Break0E0B6j_EB2P_, symObjAddr: 0x1CD0, symBinAddr: 0x3FB70, symSize: 0xD0 }
  - { offset: 0xBAD06, size: 0x8, addend: 0x0, symName: __RINvXNtNtCsieiGu2EXtoJ_4core4iter8adaptersINtB3_12GenericShuntINtNtB3_3map3MapINtNtCsdGrGZaRBwMb_3syn10punctuated4IterNtNtB1j_4data7VariantENCNvMs0_NtCs71axb73f1AC_14thiserror_impl3astNtB2m_4Enum8from_syn0EINtNtB7_6result6ResultNtNtB7_7convert10InfallibleNtNtB1j_5error5ErrorEENtNtNtB5_6traits8iterator8Iterator8try_folduNCINvNvB4r_12try_for_each4callNtB2m_7VariantINtNtNtB7_3ops12control_flow11ControlFlowB5D_ENcNtB5R_5Break0E0B5R_EB2o_, symObjAddr: 0x1DA0, symBinAddr: 0x3FC40, symSize: 0xD0 }
  - { offset: 0xBADD4, size: 0x8, addend: 0x0, symName: __RNCINvXNtNtCsieiGu2EXtoJ_4core4iter8adaptersINtB5_12GenericShuntINtNtB5_3map3MapINtNtB5_9enumerate9EnumerateINtNtCsdGrGZaRBwMb_3syn10punctuated4IterNtNtB1N_4data5FieldEENCNvMs2_NtCs71axb73f1AC_14thiserror_impl3astNtB2P_5Field17multiple_from_syn0EINtNtB9_6result6ResultNtNtB9_7convert10InfallibleNtNtB1N_5error5ErrorEENtNtNtB7_6traits8iterator8Iterator8try_folduNCINvNvB55_12try_for_each4callB3p_INtNtNtB9_3ops12control_flow11ControlFlowB3p_ENcNtB6l_5Break0E0B6l_E0B2R_, symObjAddr: 0x1FC0, symBinAddr: 0x3FE60, symSize: 0x2D0 }
  - { offset: 0xBAED0, size: 0x8, addend: 0x0, symName: __RNCINvXNtNtCsieiGu2EXtoJ_4core4iter8adaptersINtB5_12GenericShuntINtNtB5_3map3MapINtNtCsdGrGZaRBwMb_3syn10punctuated4IterNtNtB1l_4data7VariantENCNvMs0_NtCs71axb73f1AC_14thiserror_impl3astNtB2o_4Enum8from_syn0EINtNtB9_6result6ResultNtNtB9_7convert10InfallibleNtNtB1l_5error5ErrorEENtNtNtB7_6traits8iterator8Iterator8try_folduNCINvNvB4t_12try_for_each4callNtB2o_7VariantINtNtNtB9_3ops12control_flow11ControlFlowB5F_ENcNtB5T_5Break0E0B5T_E0B2q_, symObjAddr: 0x2290, symBinAddr: 0x40130, symSize: 0x2D0 }
  - { offset: 0xBAFCD, size: 0x8, addend: 0x0, symName: __RNvXNtNtCsieiGu2EXtoJ_4core4iter8adaptersINtB2_12GenericShuntINtNtB2_3map3MapINtNtB2_9enumerate9EnumerateINtNtCsdGrGZaRBwMb_3syn10punctuated4IterNtNtB1K_4data5FieldEENCNvMs2_NtCs71axb73f1AC_14thiserror_impl3astNtB2M_5Field17multiple_from_syn0EINtNtB6_6result6ResultNtNtB6_7convert10InfallibleNtNtB1K_5error5ErrorEENtNtNtB4_6traits8iterator8Iterator4nextB2O_, symObjAddr: 0x44B0, symBinAddr: 0x42350, symSize: 0xE0 }
  - { offset: 0xBB061, size: 0x8, addend: 0x0, symName: __RNvXNtNtCsieiGu2EXtoJ_4core4iter8adaptersINtB2_12GenericShuntINtNtB2_3map3MapINtNtB2_9enumerate9EnumerateINtNtCsdGrGZaRBwMb_3syn10punctuated4IterNtNtB1K_4data5FieldEENCNvMs2_NtCs71axb73f1AC_14thiserror_impl3astNtB2M_5Field17multiple_from_syn0EINtNtB6_6result6ResultNtNtB6_7convert10InfallibleNtNtB1K_5error5ErrorEENtNtNtB4_6traits8iterator8Iterator9size_hintB2O_, symObjAddr: 0x4590, symBinAddr: 0x42430, symSize: 0xA0 }
  - { offset: 0xBB0D9, size: 0x8, addend: 0x0, symName: __RNvXNtNtCsieiGu2EXtoJ_4core4iter8adaptersINtB2_12GenericShuntINtNtB2_3map3MapINtNtCsdGrGZaRBwMb_3syn10punctuated4IterNtNtB1i_4data7VariantENCNvMs0_NtCs71axb73f1AC_14thiserror_impl3astNtB2l_4Enum8from_syn0EINtNtB6_6result6ResultNtNtB6_7convert10InfallibleNtNtB1i_5error5ErrorEENtNtNtB4_6traits8iterator8Iterator4nextB2n_, symObjAddr: 0x4630, symBinAddr: 0x424D0, symSize: 0xE0 }
  - { offset: 0xBB16D, size: 0x8, addend: 0x0, symName: __RNvXNtNtCsieiGu2EXtoJ_4core4iter8adaptersINtB2_12GenericShuntINtNtB2_3map3MapINtNtCsdGrGZaRBwMb_3syn10punctuated4IterNtNtB1i_4data7VariantENCNvMs0_NtCs71axb73f1AC_14thiserror_impl3astNtB2l_4Enum8from_syn0EINtNtB6_6result6ResultNtNtB6_7convert10InfallibleNtNtB1i_5error5ErrorEENtNtNtB4_6traits8iterator8Iterator9size_hintB2n_, symObjAddr: 0x4710, symBinAddr: 0x425B0, symSize: 0xA0 }
  - { offset: 0xBB31C, size: 0x8, addend: 0x0, symName: __RNvXs0_NtNtNtCsieiGu2EXtoJ_4core4iter8adapters10filter_mapINtB5_9FilterMapINtNtNtBb_5slice4iter4IterNtNtCs71axb73f1AC_14thiserror_impl3ast7VariantENCNvNtB1E_6expand9impl_enums2_0ENtNtNtB9_6traits8iterator8Iterator4nextB1E_, symObjAddr: 0x4810, symBinAddr: 0x426B0, symSize: 0x30 }
  - { offset: 0xBB4CA, size: 0x8, addend: 0x0, symName: __RINvYINtNtNtCsieiGu2EXtoJ_4core4iter8adapters12GenericShuntINtNtB6_3map3MapINtNtB6_9enumerate9EnumerateINtNtCsdGrGZaRBwMb_3syn10punctuated4IterNtNtB1I_4data5FieldEENCNvMs2_NtCs71axb73f1AC_14thiserror_impl3astNtB2K_5Field17multiple_from_syn0EINtNtBa_6result6ResultNtNtBa_7convert10InfallibleNtNtB1I_5error5ErrorEENtNtNtB8_6traits8iterator8Iterator7collectINtNtCslJiobkLta79_5alloc3vec3VecB3k_EEB2M_, symObjAddr: 0x1E70, symBinAddr: 0x3FD10, symSize: 0x80 }
  - { offset: 0xBB560, size: 0x8, addend: 0x0, symName: __RINvYINtNtNtCsieiGu2EXtoJ_4core4iter8adapters12GenericShuntINtNtB6_3map3MapINtNtCsdGrGZaRBwMb_3syn10punctuated4IterNtNtB1g_4data7VariantENCNvMs0_NtCs71axb73f1AC_14thiserror_impl3astNtB2j_4Enum8from_syn0EINtNtBa_6result6ResultNtNtBa_7convert10InfallibleNtNtB1g_5error5ErrorEENtNtNtB8_6traits8iterator8Iterator7collectINtNtCslJiobkLta79_5alloc3vec3VecNtB2j_7VariantEEB2l_, symObjAddr: 0x1EF0, symBinAddr: 0x3FD90, symSize: 0x90 }
  - { offset: 0xBB6C0, size: 0x8, addend: 0x0, symName: __RNvXNtNtNtCsieiGu2EXtoJ_4core4iter6traits7collectINtNtB6_8adapters12GenericShuntINtNtBO_3map3MapINtNtBO_9enumerate9EnumerateINtNtCsdGrGZaRBwMb_3syn10punctuated4IterNtNtB23_4data5FieldEENCNvMs2_NtCs71axb73f1AC_14thiserror_impl3astNtB35_5Field17multiple_from_syn0EINtNtB8_6result6ResultNtNtB8_7convert10InfallibleNtNtB23_5error5ErrorEENtB2_12IntoIterator9into_iterB37_, symObjAddr: 0x47B0, symBinAddr: 0x42650, symSize: 0x30 }
  - { offset: 0xBB6F8, size: 0x8, addend: 0x0, symName: __RNvXNtNtNtCsieiGu2EXtoJ_4core4iter6traits7collectINtNtB6_8adapters12GenericShuntINtNtBO_3map3MapINtNtCsdGrGZaRBwMb_3syn10punctuated4IterNtNtB1B_4data7VariantENCNvMs0_NtCs71axb73f1AC_14thiserror_impl3astNtB2E_4Enum8from_syn0EINtNtB8_6result6ResultNtNtB8_7convert10InfallibleNtNtB1B_5error5ErrorEENtB2_12IntoIterator9into_iterB2G_, symObjAddr: 0x47E0, symBinAddr: 0x42680, symSize: 0x30 }
  - { offset: 0xBB87E, size: 0x8, addend: 0x0, symName: __RINvNtNtNtCsieiGu2EXtoJ_4core5slice4sort6stable14driftsort_mainRNtCsaKzlTDPUHDb_11proc_macro25IdentNvYBZ_NtNtB8_3cmp10PartialOrd2ltINtNtCslJiobkLta79_5alloc3vec3VecBZ_EECs71axb73f1AC_14thiserror_impl, symObjAddr: 0x440, symBinAddr: 0x3E2E0, symSize: 0x330 }
  - { offset: 0xBBABE, size: 0x8, addend: 0x0, symName: __RINvNtNtNtNtCsieiGu2EXtoJ_4core5slice4sort6stable9quicksort16stable_partitionRNtCsaKzlTDPUHDb_11proc_macro25IdentNCINvB2_9quicksortB1d_NvYB1d_NtNtBa_3cmp10PartialOrd2ltE0ECs71axb73f1AC_14thiserror_impl, symObjAddr: 0x770, symBinAddr: 0x3E610, symSize: 0x6C0 }
  - { offset: 0xBBF3D, size: 0x8, addend: 0x0, symName: __RINvNtNtNtNtCsieiGu2EXtoJ_4core5slice4sort6stable9quicksort16stable_partitionRNtCsaKzlTDPUHDb_11proc_macro25IdentNvYB1d_NtNtBa_3cmp10PartialOrd2ltECs71axb73f1AC_14thiserror_impl, symObjAddr: 0xE30, symBinAddr: 0x3ECD0, symSize: 0x6C0 }
  - { offset: 0xBC3BC, size: 0x8, addend: 0x0, symName: __RINvNtNtNtNtCsieiGu2EXtoJ_4core5slice4sort6stable9quicksort9quicksortRNtCsaKzlTDPUHDb_11proc_macro25IdentNvYB15_NtNtBa_3cmp10PartialOrd2ltECs71axb73f1AC_14thiserror_impl, symObjAddr: 0x14F0, symBinAddr: 0x3F390, symSize: 0x4E0 }
  - { offset: 0xBC652, size: 0x8, addend: 0x0, symName: __RNCINvNtNtNtNtCsieiGu2EXtoJ_4core5slice4sort6stable9quicksort9quicksortRNtCsaKzlTDPUHDb_11proc_macro25IdentNvYB17_NtNtBc_3cmp10PartialOrd2ltE0Cs71axb73f1AC_14thiserror_impl, symObjAddr: 0x1F80, symBinAddr: 0x3FE20, symSize: 0x40 }
  - { offset: 0xBC8D1, size: 0x8, addend: 0x0, symName: __RINvNvMNtCsieiGu2EXtoJ_4core5sliceSp7reverse7revswapRNtCsaKzlTDPUHDb_11proc_macro25IdentECs71axb73f1AC_14thiserror_impl, symObjAddr: 0x19D0, symBinAddr: 0x3F870, symSize: 0x300 }
  - { offset: 0xBCA8E, size: 0x8, addend: 0x0, symName: __RNvMNtCsieiGu2EXtoJ_4core5sliceSh15copy_from_sliceCs71axb73f1AC_14thiserror_impl, symObjAddr: 0x2D80, symBinAddr: 0x40C20, symSize: 0xA0 }
  - { offset: 0xBCB5E, size: 0x8, addend: 0x0, symName: __RNvNvMNtCsieiGu2EXtoJ_4core5sliceSp22split_at_mut_unchecked18precondition_checkCs71axb73f1AC_14thiserror_impl, symObjAddr: 0x42C0, symBinAddr: 0x42160, symSize: 0xA0 }
  - { offset: 0xBCCC8, size: 0x8, addend: 0x0, symName: __RNvXs_NtNtCsieiGu2EXtoJ_4core5slice4iterRSTNtNtCs71axb73f1AC_14thiserror_impl9scan_expr5InputNtBH_6ActionENtNtNtNtB8_4iter6traits7collect12IntoIterator9into_iterBJ_, symObjAddr: 0x4960, symBinAddr: 0x42800, symSize: 0x50 }
  - { offset: 0xBCFAE, size: 0x8, addend: 0x0, symName: __RNvMs9_NtCsieiGu2EXtoJ_4core3numj11checked_addCs71axb73f1AC_14thiserror_impl, symObjAddr: 0x2FA0, symBinAddr: 0x40E40, symSize: 0x70 }
  - { offset: 0xBD038, size: 0x8, addend: 0x0, symName: __RNvNvMs9_NtCsieiGu2EXtoJ_4core3numj13unchecked_add18precondition_checkCs71axb73f1AC_14thiserror_impl, symObjAddr: 0x4410, symBinAddr: 0x422B0, symSize: 0xA0 }
  - { offset: 0xBD0F0, size: 0x8, addend: 0x0, symName: __RNvNvMs3_NtCsieiGu2EXtoJ_4core3numi13unchecked_neg18precondition_checkCs71axb73f1AC_14thiserror_impl, symObjAddr: 0x4360, symBinAddr: 0x42200, symSize: 0xB0 }
  - { offset: 0xC0C02, size: 0x8, addend: 0x0, symName: __RNvMsl_NtCsieiGu2EXtoJ_4core5arrayATNtNtCs71axb73f1AC_14thiserror_impl9scan_expr5InputNtBA_6ActionEj1c_8as_sliceBC_, symObjAddr: 0x3010, symBinAddr: 0x40EB0, symSize: 0x20 }
  - { offset: 0xC0C4A, size: 0x8, addend: 0x0, symName: __RNvNtNtNtCsieiGu2EXtoJ_4core9core_arch3x864sse212__mm_or_si128Cs71axb73f1AC_14thiserror_impl, symObjAddr: 0x3FE0, symBinAddr: 0x41E80, symSize: 0x20 }
  - { offset: 0xC0D59, size: 0x8, addend: 0x0, symName: __RNvNtNtNtCsieiGu2EXtoJ_4core9core_arch3x864sse213__mm_set1_epi8Cs71axb73f1AC_14thiserror_impl, symObjAddr: 0x4000, symBinAddr: 0x41EA0, symSize: 0x90 }
  - { offset: 0xC0EB3, size: 0x8, addend: 0x0, symName: __RNvNtNtNtCsieiGu2EXtoJ_4core9core_arch3x864sse214__mm_cmpeq_epi8Cs71axb73f1AC_14thiserror_impl, symObjAddr: 0x4090, symBinAddr: 0x41F30, symSize: 0x80 }
  - { offset: 0xC0EF3, size: 0x8, addend: 0x0, symName: __RNvNtNtNtCsieiGu2EXtoJ_4core9core_arch3x864sse214__mm_cmpgt_epi8Cs71axb73f1AC_14thiserror_impl, symObjAddr: 0x4110, symBinAddr: 0x41FB0, symSize: 0x80 }
  - { offset: 0xC0F33, size: 0x8, addend: 0x0, symName: __RNvNtNtNtCsieiGu2EXtoJ_4core9core_arch3x864sse214__mm_load_si128Cs71axb73f1AC_14thiserror_impl, symObjAddr: 0x4190, symBinAddr: 0x42030, symSize: 0x20 }
  - { offset: 0xC0F72, size: 0x8, addend: 0x0, symName: __RNvNtNtNtCsieiGu2EXtoJ_4core9core_arch3x864sse215__mm_loadu_si128Cs71axb73f1AC_14thiserror_impl, symObjAddr: 0x41B0, symBinAddr: 0x42050, symSize: 0x90 }
  - { offset: 0xC1001, size: 0x8, addend: 0x0, symName: __RNvNtNtNtCsieiGu2EXtoJ_4core9core_arch3x864sse215__mm_store_si128Cs71axb73f1AC_14thiserror_impl, symObjAddr: 0x4240, symBinAddr: 0x420E0, symSize: 0x20 }
  - { offset: 0xC103A, size: 0x8, addend: 0x0, symName: __RNvNtNtNtCsieiGu2EXtoJ_4core9core_arch3x864sse217__mm_movemask_epi8Cs71axb73f1AC_14thiserror_impl, symObjAddr: 0x4260, symBinAddr: 0x42100, symSize: 0x50 }
  - { offset: 0xC10A6, size: 0x8, addend: 0x0, symName: __RNvNtNtNtCsieiGu2EXtoJ_4core9core_arch3x864sse217__mm_setzero_si128Cs71axb73f1AC_14thiserror_impl, symObjAddr: 0x42B0, symBinAddr: 0x42150, symSize: 0x10 }
  - { offset: 0xC1166, size: 0x8, addend: 0x0, symName: __RNvXsn_NtNtCsieiGu2EXtoJ_4core5panic11unwind_safeINtB5_16AssertUnwindSafeNCINvNtNtCscKtU6MdFI5n_10proc_macro6bridge6client10run_clientNtB1e_11TokenStreamINtNtB9_6option6OptionB28_ENCNCINvMs6_B1e_INtB1e_6ClientNtB1i_11TokenStreamB3l_E7expand1NvCs71axb73f1AC_14thiserror_impl12derive_errorE00E0EINtNtNtB9_3ops8function6FnOnceuE9call_onceB3T_, symObjAddr: 0x49B0, symBinAddr: 0x42850, symSize: 0x30 }
  - { offset: 0xC7DDE, size: 0x8, addend: 0x0, symName: __RNvMNtNtNtCsieiGu2EXtoJ_4core5slice4sort6stableINtB2_14AlignedStorageRNtCsaKzlTDPUHDb_11proc_macro25IdentKj1000_E19as_uninit_slice_mutCs71axb73f1AC_14thiserror_impl, symObjAddr: 0x2E20, symBinAddr: 0x40CC0, symSize: 0x60 }
  - { offset: 0xC7E92, size: 0x8, addend: 0x0, symName: __RNvMNtNtNtNtCsieiGu2EXtoJ_4core5slice4sort6stable9quicksortINtB2_14PartitionStateRNtCsaKzlTDPUHDb_11proc_macro25IdentE13partition_oneCs71axb73f1AC_14thiserror_impl, symObjAddr: 0x2E80, symBinAddr: 0x40D20, symSize: 0x120 }
  - { offset: 0xC83FB, size: 0x8, addend: 0x0, symName: __RNvYINtNtNtNtCsieiGu2EXtoJ_4core4iter8adapters10filter_map9FilterMapINtNtNtBb_5slice4iter4IterNtNtCs71axb73f1AC_14thiserror_impl3ast7VariantENCNvNtB1y_6expand9impl_enums2_0ENtNtNtCs9OU1sGv5X54_5quote9___private3ext14RepIteratorExt15quote_into_iterB1y_, symObjAddr: 0x49E0, symBinAddr: 0x42880, symSize: 0x30 }
  - { offset: 0xC86C4, size: 0x8, addend: 0x0, symName: __RINvMNtNtNtNtCsieiGu2EXtoJ_4core5slice4sort6stable5mergeINtB3_10MergeStateRNtCsaKzlTDPUHDb_11proc_macro25IdentE10merge_downNvYB1a_NtNtBb_3cmp10PartialOrd2ltECs71axb73f1AC_14thiserror_impl, symObjAddr: 0x0, symBinAddr: 0x428B0, symSize: 0x220 }
  - { offset: 0xC8DEF, size: 0x8, addend: 0x0, symName: __RINvXs8_NtCsaKzlTDPUHDb_11proc_macro28fallbackNtB6_11TokenStreamINtNtNtNtCsieiGu2EXtoJ_4core4iter6traits7collect12FromIteratorNtB8_9TokenTreeE9from_iterINtNtNtCslJiobkLta79_5alloc3vec9into_iter8IntoIterB20_EECs71axb73f1AC_14thiserror_impl, symObjAddr: 0x3250, symBinAddr: 0x45A00, symSize: 0xC0 }
  - { offset: 0xC8E43, size: 0x8, addend: 0x0, symName: __RINvXsa_NtCsaKzlTDPUHDb_11proc_macro28fallbackNtB6_11TokenStreamINtNtNtNtCsieiGu2EXtoJ_4core4iter6traits7collect6ExtendNtB8_9TokenTreeE6extendINtNtNtCslJiobkLta79_5alloc3vec9into_iter8IntoIterB1T_EECs71axb73f1AC_14thiserror_impl, symObjAddr: 0x3310, symBinAddr: 0x45AC0, symSize: 0xC0 }
  - { offset: 0xC8EA5, size: 0x8, addend: 0x0, symName: __RINvXsa_NtCsaKzlTDPUHDb_11proc_macro28fallbackNtB6_11TokenStreamINtNtNtNtCsieiGu2EXtoJ_4core4iter6traits7collect6ExtendNtB8_9TokenTreeE6extendNtB8_11TokenStreamECs71axb73f1AC_14thiserror_impl, symObjAddr: 0x33D0, symBinAddr: 0x45B80, symSize: 0xC0 }
  - { offset: 0xC8F0C, size: 0x8, addend: 0x0, symName: __RNCINvXsa_NtCsaKzlTDPUHDb_11proc_macro28fallbackNtB8_11TokenStreamINtNtNtNtCsieiGu2EXtoJ_4core4iter6traits7collect6ExtendNtBa_9TokenTreeE6extendINtNtNtCslJiobkLta79_5alloc3vec9into_iter8IntoIterB1V_EE0Cs71axb73f1AC_14thiserror_impl, symObjAddr: 0x3490, symBinAddr: 0x45C40, symSize: 0xA0 }
  - { offset: 0xC8F52, size: 0x8, addend: 0x0, symName: __RNCINvXsa_NtCsaKzlTDPUHDb_11proc_macro28fallbackNtB8_11TokenStreamINtNtNtNtCsieiGu2EXtoJ_4core4iter6traits7collect6ExtendNtBa_9TokenTreeE6extendNtBa_11TokenStreamE0Cs71axb73f1AC_14thiserror_impl, symObjAddr: 0x3530, symBinAddr: 0x45CE0, symSize: 0xA0 }
  - { offset: 0xC8F9F, size: 0x8, addend: 0x0, symName: __RNvXsA_NtCsaKzlTDPUHDb_11proc_macro28fallbackNtB5_5IdentNtNtCsieiGu2EXtoJ_4core5clone5Clone5cloneCs71axb73f1AC_14thiserror_impl, symObjAddr: 0x3A40, symBinAddr: 0x461E0, symSize: 0x90 }
  - { offset: 0xC8FD3, size: 0x8, addend: 0x0, symName: __RNvXss_NtCsaKzlTDPUHDb_11proc_macro28fallbackNtB5_11TokenStreamNtNtCsieiGu2EXtoJ_4core5clone5Clone5cloneCs71axb73f1AC_14thiserror_impl, symObjAddr: 0x43A0, symBinAddr: 0x46B40, symSize: 0x20 }
  - { offset: 0xC9005, size: 0x8, addend: 0x0, symName: __RNvXsu_NtCsaKzlTDPUHDb_11proc_macro28fallbackNtB5_4SpanNtNtCsieiGu2EXtoJ_4core5clone5Clone5cloneCs71axb73f1AC_14thiserror_impl, symObjAddr: 0x43C0, symBinAddr: 0x46B60, symSize: 0x10 }
  - { offset: 0xC9AD9, size: 0x8, addend: 0x0, symName: __RNvNvMs1_NtNtCsieiGu2EXtoJ_4core3ptr8non_nullINtB7_7NonNullpE13new_unchecked18precondition_checkCs71axb73f1AC_14thiserror_impl, symObjAddr: 0x3940, symBinAddr: 0x460E0, symSize: 0x90 }
  - { offset: 0xCA7CA, size: 0x8, addend: 0x0, symName: __RINvNtNtNtNtCsieiGu2EXtoJ_4core5slice4sort6stable5merge5mergeRNtCsaKzlTDPUHDb_11proc_macro25IdentNvYBX_NtNtBa_3cmp10PartialOrd2ltECs71axb73f1AC_14thiserror_impl, symObjAddr: 0x2E10, symBinAddr: 0x455C0, symSize: 0x440 }
  - { offset: 0xCAA3E, size: 0x8, addend: 0x0, symName: __RNvXs_NtNtNtNtCsieiGu2EXtoJ_4core5slice4sort6stable5mergeINtB4_10MergeStateRNtCsaKzlTDPUHDb_11proc_macro25IdentENtNtNtBc_3ops4drop4Drop4dropCs71axb73f1AC_14thiserror_impl, symObjAddr: 0x3AD0, symBinAddr: 0x46270, symSize: 0xD0 }
  - { offset: 0xCAB41, size: 0x8, addend: 0x0, symName: __RINvNtNtNtNtCsieiGu2EXtoJ_4core5slice4sort6shared9smallsort11insert_tailRNtCsaKzlTDPUHDb_11proc_macro25IdentNvYB18_NtNtBa_3cmp10PartialOrd2ltECs71axb73f1AC_14thiserror_impl, symObjAddr: 0x1110, symBinAddr: 0x438C0, symSize: 0x1E0 }
  - { offset: 0xCAC9B, size: 0x8, addend: 0x0, symName: __RINvNtNtNtNtCsieiGu2EXtoJ_4core5slice4sort6shared9smallsort12sort4_stableRNtCsaKzlTDPUHDb_11proc_macro25IdentNvYB19_NtNtBa_3cmp10PartialOrd2ltECs71axb73f1AC_14thiserror_impl, symObjAddr: 0x12F0, symBinAddr: 0x43AA0, symSize: 0xBF0 }
  - { offset: 0xCBF80, size: 0x8, addend: 0x0, symName: __RINvNtNtNtNtCsieiGu2EXtoJ_4core5slice4sort6shared9smallsort12sort8_stableRNtCsaKzlTDPUHDb_11proc_macro25IdentNvYB19_NtNtBa_3cmp10PartialOrd2ltECs71axb73f1AC_14thiserror_impl, symObjAddr: 0x1EE0, symBinAddr: 0x44690, symSize: 0xA0 }
  - { offset: 0xCC12F, size: 0x8, addend: 0x0, symName: __RINvNtNtNtNtCsieiGu2EXtoJ_4core5slice4sort6shared9smallsort19bidirectional_mergeRNtCsaKzlTDPUHDb_11proc_macro25IdentNvYB1g_NtNtBa_3cmp10PartialOrd2ltECs71axb73f1AC_14thiserror_impl, symObjAddr: 0x1F80, symBinAddr: 0x44730, symSize: 0x700 }
  - { offset: 0xCC7F5, size: 0x8, addend: 0x0, symName: __RINvNtNtNtNtCsieiGu2EXtoJ_4core5slice4sort6shared9smallsort25insertion_sort_shift_leftRNtCsaKzlTDPUHDb_11proc_macro25IdentNvYB1m_NtNtBa_3cmp10PartialOrd2ltECs71axb73f1AC_14thiserror_impl, symObjAddr: 0x2680, symBinAddr: 0x44E30, symSize: 0xB0 }
  - { offset: 0xCC932, size: 0x8, addend: 0x0, symName: __RINvNtNtNtNtCsieiGu2EXtoJ_4core5slice4sort6shared9smallsort31small_sort_general_with_scratchRNtCsaKzlTDPUHDb_11proc_macro25IdentNvYB1s_NtNtBa_3cmp10PartialOrd2ltECs71axb73f1AC_14thiserror_impl, symObjAddr: 0x2730, symBinAddr: 0x44EE0, symSize: 0x6E0 }
  - { offset: 0xCCE11, size: 0x8, addend: 0x0, symName: __RNvXs5_NtNtNtNtCsieiGu2EXtoJ_4core5slice4sort6shared9smallsortINtB5_10CopyOnDropRNtCsaKzlTDPUHDb_11proc_macro25IdentENtNtNtBd_3ops4drop4Drop4dropCs71axb73f1AC_14thiserror_impl, symObjAddr: 0x39D0, symBinAddr: 0x46170, symSize: 0x70 }
  - { offset: 0xD0D71, size: 0x8, addend: 0x0, symName: __RINvMNtNtNtNtCsieiGu2EXtoJ_4core5slice4sort6stable5mergeINtB3_10MergeStateRNtCsaKzlTDPUHDb_11proc_macro25IdentE10merge_downNvYB1a_NtNtBb_3cmp10PartialOrd2ltECs71axb73f1AC_14thiserror_impl, symObjAddr: 0x0, symBinAddr: 0x428B0, symSize: 0x220 }
  - { offset: 0xD0F05, size: 0x8, addend: 0x0, symName: __RINvMNtNtNtNtCsieiGu2EXtoJ_4core5slice4sort6stable5mergeINtB3_10MergeStateRNtCsaKzlTDPUHDb_11proc_macro25IdentE8merge_upNvYB1a_NtNtBb_3cmp10PartialOrd2ltECs71axb73f1AC_14thiserror_impl, symObjAddr: 0x220, symBinAddr: 0x42AD0, symSize: 0x1A0 }
  - { offset: 0xD2538, size: 0x8, addend: 0x0, symName: __RINvNtCsdGrGZaRBwMb_3syn5parse12parse_scopedNCNvNtCs71axb73f1AC_14thiserror_impl4attr21parse_error_attribute0EBM_, symObjAddr: 0xFE0, symBinAddr: 0x43890, symSize: 0x30 }
  - { offset: 0xD2594, size: 0x8, addend: 0x0, symName: __RNvXsh_NtCsdGrGZaRBwMb_3syn5parseNvYNtNtB7_4expr4ExprNtB5_5Parse5parseNtB5_6Parser6parse2Cs71axb73f1AC_14thiserror_impl, symObjAddr: 0x3BA0, symBinAddr: 0x46340, symSize: 0x400 }
  - { offset: 0xD26A5, size: 0x8, addend: 0x0, symName: __RNvXsh_NtCsdGrGZaRBwMb_3syn5parseNvYNtNtB7_6derive11DeriveInputNtB5_5Parse5parseNtB5_6Parser6parse2Cs71axb73f1AC_14thiserror_impl, symObjAddr: 0x3FA0, symBinAddr: 0x46740, symSize: 0x400 }
  - { offset: 0xD27BC, size: 0x8, addend: 0x0, symName: __RNvYNvYNtNtCsdGrGZaRBwMb_3syn6derive11DeriveInputNtNtB9_5parse5Parse5parseNtBN_6Parser5parseCs71axb73f1AC_14thiserror_impl, symObjAddr: 0x43D0, symBinAddr: 0x46B70, symSize: 0x70 }
  - { offset: 0xD69C8, size: 0x8, addend: 0x0, symName: __RINvMs0_NtNtNtCsHUR1vrdMJt_3std11collections4hash3mapINtB6_7HashMapRNtNtCsdGrGZaRBwMb_3syn4expr6MemberjE12contains_keyB14_ECs71axb73f1AC_14thiserror_impl, symObjAddr: 0x3C0, symBinAddr: 0x42C70, symSize: 0x50 }
  - { offset: 0xD6ACA, size: 0x8, addend: 0x0, symName: __RINvMs0_NtNtNtCsHUR1vrdMJt_3std11collections4hash3mapINtB6_7HashMapRNtNtCsdGrGZaRBwMb_3syn4expr6MemberjE3getB14_ECs71axb73f1AC_14thiserror_impl, symObjAddr: 0x410, symBinAddr: 0x42CC0, symSize: 0x60 }
  - { offset: 0xD6BDA, size: 0x8, addend: 0x0, symName: __RINvMs9_NtCsdGrGZaRBwMb_3syn5parseNtB6_11ParseBuffer4stepNCNvNtCs71axb73f1AC_14thiserror_impl9scan_expr9scan_expr0bEBZ_, symObjAddr: 0x470, symBinAddr: 0x42D20, symSize: 0x1F0 }
  - { offset: 0xD6C63, size: 0x8, addend: 0x0, symName: __RINvMs9_NtCsdGrGZaRBwMb_3syn5parseNtB6_11ParseBuffer4stepNCNvNtCs71axb73f1AC_14thiserror_impl9scan_expr9scan_exprs0_0bEBZ_, symObjAddr: 0x660, symBinAddr: 0x42F10, symSize: 0x1E0 }
  - { offset: 0xD6CEC, size: 0x8, addend: 0x0, symName: __RINvMs9_NtCsdGrGZaRBwMb_3syn5parseNtB6_11ParseBuffer4stepNCNvNtCs71axb73f1AC_14thiserror_impl9scan_expr9scan_exprs1_0bEBZ_, symObjAddr: 0x840, symBinAddr: 0x430F0, symSize: 0x1E0 }
  - { offset: 0xD6D75, size: 0x8, addend: 0x0, symName: __RINvMs9_NtCsdGrGZaRBwMb_3syn5parseNtB6_11ParseBuffer4stepNCNvNtCs71axb73f1AC_14thiserror_impl9scan_expr9scan_exprs_0bEBZ_, symObjAddr: 0xA20, symBinAddr: 0x432D0, symSize: 0x200 }
  - { offset: 0xD6DFE, size: 0x8, addend: 0x0, symName: __RINvMs9_NtCsdGrGZaRBwMb_3syn5parseNtB6_11ParseBuffer4stepNCNvXs0_NvNvNtCs71axb73f1AC_14thiserror_impl4attr21parse_error_attribute1__NtB13_11transparentNtB6_5Parse5parse0B26_EB17_, symObjAddr: 0xC20, symBinAddr: 0x434D0, symSize: 0x1E0 }
  - { offset: 0xD6E87, size: 0x8, addend: 0x0, symName: __RINvMs9_NtCsdGrGZaRBwMb_3syn5parseNtB6_11ParseBuffer5parseINtNtCsieiGu2EXtoJ_4core6option6OptionNtCsaKzlTDPUHDb_11proc_macro29TokenTreeEECs71axb73f1AC_14thiserror_impl, symObjAddr: 0xE00, symBinAddr: 0x436B0, symSize: 0x30 }
  - { offset: 0xD6EB3, size: 0x8, addend: 0x0, symName: __RINvMs9_NtCsdGrGZaRBwMb_3syn5parseNtB6_11ParseBuffer5parseNtCsaKzlTDPUHDb_11proc_macro29TokenTreeECs71axb73f1AC_14thiserror_impl, symObjAddr: 0xE30, symBinAddr: 0x436E0, symSize: 0x30 }
  - { offset: 0xD6EDF, size: 0x8, addend: 0x0, symName: __RINvMs9_NtCsdGrGZaRBwMb_3syn5parseNtB6_11ParseBuffer5parseNtNvNtCs71axb73f1AC_14thiserror_impl4attr21parse_error_attribute11transparentEB10_, symObjAddr: 0xE60, symBinAddr: 0x43710, symSize: 0x30 }
  - { offset: 0xD6F37, size: 0x8, addend: 0x0, symName: __RINvMs9_NtCsdGrGZaRBwMb_3syn5parseNtB6_11ParseBuffer5peek2INvNtB8_5token2EqNtNtB8_9lookahead11TokenMarkerEECs71axb73f1AC_14thiserror_impl, symObjAddr: 0xE90, symBinAddr: 0x43740, symSize: 0x30 }
  - { offset: 0xD6F97, size: 0x8, addend: 0x0, symName: __RINvMs9_NtCsdGrGZaRBwMb_3syn5parseNtB6_11ParseBuffer5peek2INvNtB8_5token4EqEqNtNtB8_9lookahead11TokenMarkerEECs71axb73f1AC_14thiserror_impl, symObjAddr: 0xEC0, symBinAddr: 0x43770, symSize: 0x30 }
  - { offset: 0xD6FD2, size: 0x8, addend: 0x0, symName: __RINvMs9_NtCsdGrGZaRBwMb_3syn5parseNtB6_11ParseBuffer5peek2NtNtB8_9lookahead3EndECs71axb73f1AC_14thiserror_impl, symObjAddr: 0xEF0, symBinAddr: 0x437A0, symSize: 0x30 }
  - { offset: 0xD700D, size: 0x8, addend: 0x0, symName: __RINvMs9_NtCsdGrGZaRBwMb_3syn5parseNtB6_11ParseBuffer5peek2NtNtNtB8_3ext7private6PeekFnECs71axb73f1AC_14thiserror_impl, symObjAddr: 0xF20, symBinAddr: 0x437D0, symSize: 0x30 }
  - { offset: 0xD706D, size: 0x8, addend: 0x0, symName: __RINvMs9_NtCsdGrGZaRBwMb_3syn5parseNtB6_11ParseBuffer5peek2NvNtB8_3lit6LitIntECs71axb73f1AC_14thiserror_impl, symObjAddr: 0xF50, symBinAddr: 0x43800, symSize: 0x30 }
  - { offset: 0xD70CD, size: 0x8, addend: 0x0, symName: __RINvMs9_NtCsdGrGZaRBwMb_3syn5parseNtB6_11ParseBuffer5peek2NvNtB8_3lit8LitFloatECs71axb73f1AC_14thiserror_impl, symObjAddr: 0xF80, symBinAddr: 0x43830, symSize: 0x30 }
  - { offset: 0xD7108, size: 0x8, addend: 0x0, symName: __RINvMs9_NtCsdGrGZaRBwMb_3syn5parseNtB6_11ParseBuffer5peek3INvNtB8_5token4EqEqNtNtB8_9lookahead11TokenMarkerEECs71axb73f1AC_14thiserror_impl, symObjAddr: 0xFB0, symBinAddr: 0x43860, symSize: 0x30 }
  - { offset: 0xD73A5, size: 0x8, addend: 0x0, symName: __RNvMNtNtCs9OU1sGv5X54_5quote9___private8get_spanINtB2_7GetSpanNtCsaKzlTDPUHDb_11proc_macro24SpanE11___into_spanCs71axb73f1AC_14thiserror_impl, symObjAddr: 0x35D0, symBinAddr: 0x45D80, symSize: 0x20 }
  - { offset: 0xD742D, size: 0x8, addend: 0x0, symName: __RNvMNtNtNtCsHUR1vrdMJt_3std11collections4hash3mapINtB2_7HashMapRNtNtCsdGrGZaRBwMb_3syn4expr6MemberjE3newCs71axb73f1AC_14thiserror_impl, symObjAddr: 0x35F0, symBinAddr: 0x45DA0, symSize: 0xA0 }
  - { offset: 0xD74DC, size: 0x8, addend: 0x0, symName: __RNvMNtNtNtCsieiGu2EXtoJ_4core4iter8adapters7step_byINtB2_6StepByINtNtNtB8_3ops5range5RangejEE3newCs71axb73f1AC_14thiserror_impl, symObjAddr: 0x3690, symBinAddr: 0x45E40, symSize: 0xD0 }
  - { offset: 0xD753F, size: 0x8, addend: 0x0, symName: __RNvMs0_NtNtNtCsHUR1vrdMJt_3std11collections4hash3mapINtB5_7HashMapRNtNtCsdGrGZaRBwMb_3syn4expr6MemberjE6insertCs71axb73f1AC_14thiserror_impl, symObjAddr: 0x3760, symBinAddr: 0x45F10, symSize: 0x20 }
  - { offset: 0xD7B42, size: 0x8, addend: 0x0, symName: __RNvMs1_NtNtCsieiGu2EXtoJ_4core3ptr8non_nullINtB5_7NonNullNtNtCs71axb73f1AC_14thiserror_impl3ast7VariantE20offset_from_unsignedBX_, symObjAddr: 0x3780, symBinAddr: 0x45F30, symSize: 0x70 }
  - { offset: 0xD7C32, size: 0x8, addend: 0x0, symName: __RNvMs1_NtNtCsieiGu2EXtoJ_4core3ptr8non_nullINtB5_7NonNullRNtCsaKzlTDPUHDb_11proc_macro25IdentE20offset_from_unsignedCs71axb73f1AC_14thiserror_impl, symObjAddr: 0x37F0, symBinAddr: 0x45FA0, symSize: 0x60 }
  - { offset: 0xD7D3C, size: 0x8, addend: 0x0, symName: __RNvMs1_NtNtCsieiGu2EXtoJ_4core3ptr8non_nullINtB5_7NonNullTNtNtCsdGrGZaRBwMb_3syn4data7VariantNtNtBY_5token5CommaEE20offset_from_unsignedCs71axb73f1AC_14thiserror_impl, symObjAddr: 0x3850, symBinAddr: 0x46000, symSize: 0x70 }
  - { offset: 0xD7E46, size: 0x8, addend: 0x0, symName: __RNvMs1_NtNtCsieiGu2EXtoJ_4core3ptr8non_nullINtB5_7NonNullTNtNtCsdGrGZaRBwMb_3syn4path15GenericArgumentNtNtBY_5token5CommaEE20offset_from_unsignedCs71axb73f1AC_14thiserror_impl, symObjAddr: 0x38C0, symBinAddr: 0x46070, symSize: 0x70 }
  - { offset: 0xD814B, size: 0x8, addend: 0x0, symName: __RINvMNtCsieiGu2EXtoJ_4core6resultINtB3_6ResultNtNtCs71axb73f1AC_14thiserror_impl3ast4EnumNtNtCsdGrGZaRBwMb_3syn5error5ErrorE3mapNtBK_5InputNcNtB22_4Enum0EBM_, symObjAddr: 0x0, symBinAddr: 0x46BE0, symSize: 0x100 }
  - { offset: 0xD846C, size: 0x8, addend: 0x0, symName: __RNvXs7_NtNtCscKtU6MdFI5n_10proc_macro6bridge3rpcINtNtNtCsieiGu2EXtoJ_4core3num7nonzero7NonZeromEINtB5_9DecodeMutuE6decodeCs71axb73f1AC_14thiserror_impl, symObjAddr: 0x2BC0, symBinAddr: 0x493E0, symSize: 0x50 }
  - { offset: 0xD8612, size: 0x8, addend: 0x0, symName: __RNvXsV_NtCscKtU6MdFI5n_10proc_macro6bridgeINtNtCsieiGu2EXtoJ_4core6result6ResultINtNtBJ_6option6OptionNtNtB5_6client11TokenStreamEuEINtNtB5_3rpc6EncodeuE6encodeCs71axb73f1AC_14thiserror_impl, symObjAddr: 0x2C40, symBinAddr: 0x49460, symSize: 0xE0 }
  - { offset: 0xD86D6, size: 0x8, addend: 0x0, symName: __RNvXsV_NtCscKtU6MdFI5n_10proc_macro6bridgeINtNtCsieiGu2EXtoJ_4core6result6ResultuNtNtB5_3rpc12PanicMessageEINtB1j_6EncodeuE6encodeCs71axb73f1AC_14thiserror_impl, symObjAddr: 0x2D20, symBinAddr: 0x49540, symSize: 0x120 }
  - { offset: 0xD9163, size: 0x8, addend: 0x0, symName: __RNvXNtCs71axb73f1AC_14thiserror_impl4spanNtNtCsdGrGZaRBwMb_3syn4expr6MemberNtB2_10MemberSpan11member_span, symObjAddr: 0x2010, symBinAddr: 0x48830, symSize: 0x60 }
  - { offset: 0xD930C, size: 0x8, addend: 0x0, symName: __RNvXs7_NtNtCsieiGu2EXtoJ_4core3cmp5implsRNtNtCsdGrGZaRBwMb_3syn4expr6MemberNtB7_9PartialEq2eqCs71axb73f1AC_14thiserror_impl, symObjAddr: 0x2C10, symBinAddr: 0x49430, symSize: 0x30 }
  - { offset: 0xD9361, size: 0x8, addend: 0x0, symName: __RNvXs17_NtNtCsieiGu2EXtoJ_4core3cmp5implsiNtB8_3Ord3cmpCs71axb73f1AC_14thiserror_impl, symObjAddr: 0x2230, symBinAddr: 0x48A50, symSize: 0x20 }
  - { offset: 0xD93A4, size: 0x8, addend: 0x0, symName: __RNvXsV_NtNtCsieiGu2EXtoJ_4core3cmp5implsjNtB7_3Ord3cmpCs71axb73f1AC_14thiserror_impl, symObjAddr: 0x2E40, symBinAddr: 0x49660, symSize: 0x20 }
  - { offset: 0xD962A, size: 0x8, addend: 0x0, symName: __RINvXso_NtCsieiGu2EXtoJ_4core6resultINtB6_6ResultINtNtCslJiobkLta79_5alloc3vec3VecNtNtCs71axb73f1AC_14thiserror_impl3ast5FieldENtNtCsdGrGZaRBwMb_3syn5error5ErrorEINtNtNtNtB8_4iter6traits7collect12FromIteratorIBz_B1i_B21_EE9from_iterINtNtNtB2H_8adapters3map3MapINtNtB3N_9enumerate9EnumerateINtNtB25_10punctuated4IterNtNtB25_4data5FieldEENCNvMs2_B1k_B1i_17multiple_from_syn0EEB1m_, symObjAddr: 0x9C0, symBinAddr: 0x471E0, symSize: 0x30 }
  - { offset: 0xD967D, size: 0x8, addend: 0x0, symName: __RINvXso_NtCsieiGu2EXtoJ_4core6resultINtB6_6ResultINtNtCslJiobkLta79_5alloc3vec3VecNtNtCs71axb73f1AC_14thiserror_impl3ast7VariantENtNtCsdGrGZaRBwMb_3syn5error5ErrorEINtNtNtNtB8_4iter6traits7collect12FromIteratorIBz_B1i_B23_EE9from_iterINtNtNtB2J_8adapters3map3MapINtNtB27_10punctuated4IterNtNtB27_4data7VariantENCNvMs0_B1k_NtB1k_4Enum8from_syn0EEB1m_, symObjAddr: 0x9F0, symBinAddr: 0x47210, symSize: 0x30 }
  - { offset: 0xD96D5, size: 0x8, addend: 0x0, symName: __RNCINvXso_NtCsieiGu2EXtoJ_4core6resultINtB8_6ResultINtNtCslJiobkLta79_5alloc3vec3VecNtNtCs71axb73f1AC_14thiserror_impl3ast5FieldENtNtCsdGrGZaRBwMb_3syn5error5ErrorEINtNtNtNtBa_4iter6traits7collect12FromIteratorIBB_B1k_B23_EE9from_iterINtNtNtB2J_8adapters3map3MapINtNtB3P_9enumerate9EnumerateINtNtB27_10punctuated4IterNtNtB27_4data5FieldEENCNvMs2_B1m_B1k_17multiple_from_syn0EE0B1o_, symObjAddr: 0xA20, symBinAddr: 0x47240, symSize: 0x30 }
  - { offset: 0xD9733, size: 0x8, addend: 0x0, symName: __RNCINvXso_NtCsieiGu2EXtoJ_4core6resultINtB8_6ResultINtNtCslJiobkLta79_5alloc3vec3VecNtNtCs71axb73f1AC_14thiserror_impl3ast7VariantENtNtCsdGrGZaRBwMb_3syn5error5ErrorEINtNtNtNtBa_4iter6traits7collect12FromIteratorIBB_B1k_B25_EE9from_iterINtNtNtB2L_8adapters3map3MapINtNtB29_10punctuated4IterNtNtB29_4data7VariantENCNvMs0_B1m_NtB1m_4Enum8from_syn0EE0B1o_, symObjAddr: 0xA50, symBinAddr: 0x47270, symSize: 0x30 }
  - { offset: 0xD997B, size: 0x8, addend: 0x0, symName: __RNvXsp_NtCsieiGu2EXtoJ_4core6resultINtB5_6ResultINtNtB7_6option6OptionNtCsaKzlTDPUHDb_11proc_macro29TokenTreeENtNtCsdGrGZaRBwMb_3syn5error5ErrorENtNtNtB7_3ops9try_trait3Try6branchCs71axb73f1AC_14thiserror_impl, symObjAddr: 0x2EA0, symBinAddr: 0x496C0, symSize: 0xD0 }
  - { offset: 0xD99F9, size: 0x8, addend: 0x0, symName: __RNvXsp_NtCsieiGu2EXtoJ_4core6resultINtB5_6ResultINtNtCslJiobkLta79_5alloc3vec3VecNtNtCs71axb73f1AC_14thiserror_impl3ast5FieldENtNtCsdGrGZaRBwMb_3syn5error5ErrorENtNtNtB7_3ops9try_trait3Try11from_outputB1l_, symObjAddr: 0x2F70, symBinAddr: 0x49790, symSize: 0x30 }
  - { offset: 0xD9A39, size: 0x8, addend: 0x0, symName: __RNvXsp_NtCsieiGu2EXtoJ_4core6resultINtB5_6ResultINtNtCslJiobkLta79_5alloc3vec3VecNtNtCs71axb73f1AC_14thiserror_impl3ast5FieldENtNtCsdGrGZaRBwMb_3syn5error5ErrorENtNtNtB7_3ops9try_trait3Try6branchB1l_, symObjAddr: 0x2FA0, symBinAddr: 0x497C0, symSize: 0xC0 }
  - { offset: 0xD9AB7, size: 0x8, addend: 0x0, symName: __RNvXsp_NtCsieiGu2EXtoJ_4core6resultINtB5_6ResultINtNtCslJiobkLta79_5alloc3vec3VecNtNtCs71axb73f1AC_14thiserror_impl3ast7VariantENtNtCsdGrGZaRBwMb_3syn5error5ErrorENtNtNtB7_3ops9try_trait3Try11from_outputB1l_, symObjAddr: 0x3060, symBinAddr: 0x49880, symSize: 0x30 }
  - { offset: 0xD9AF7, size: 0x8, addend: 0x0, symName: __RNvXsp_NtCsieiGu2EXtoJ_4core6resultINtB5_6ResultINtNtCslJiobkLta79_5alloc3vec3VecNtNtCs71axb73f1AC_14thiserror_impl3ast7VariantENtNtCsdGrGZaRBwMb_3syn5error5ErrorENtNtNtB7_3ops9try_trait3Try6branchB1l_, symObjAddr: 0x3090, symBinAddr: 0x498B0, symSize: 0xC0 }
  - { offset: 0xD9B75, size: 0x8, addend: 0x0, symName: __RNvXsp_NtCsieiGu2EXtoJ_4core6resultINtB5_6ResultNtCsaKzlTDPUHDb_11proc_macro29TokenTreeNtNtCsdGrGZaRBwMb_3syn5error5ErrorENtNtNtB7_3ops9try_trait3Try6branchCs71axb73f1AC_14thiserror_impl, symObjAddr: 0x3150, symBinAddr: 0x49970, symSize: 0xD0 }
  - { offset: 0xD9BF3, size: 0x8, addend: 0x0, symName: __RNvXsp_NtCsieiGu2EXtoJ_4core6resultINtB5_6ResultNtNtCs71axb73f1AC_14thiserror_impl3ast5FieldNtNtCsdGrGZaRBwMb_3syn5error5ErrorENtNtNtB7_3ops9try_trait3Try6branchBO_, symObjAddr: 0x3220, symBinAddr: 0x49A40, symSize: 0xF0 }
  - { offset: 0xD9C71, size: 0x8, addend: 0x0, symName: __RNvXsp_NtCsieiGu2EXtoJ_4core6resultINtB5_6ResultNtNtCs71axb73f1AC_14thiserror_impl3ast5InputNtNtCsdGrGZaRBwMb_3syn5error5ErrorENtNtNtB7_3ops9try_trait3Try6branchBO_, symObjAddr: 0x3310, symBinAddr: 0x49B30, symSize: 0xE0 }
  - { offset: 0xD9CEF, size: 0x8, addend: 0x0, symName: __RNvXsp_NtCsieiGu2EXtoJ_4core6resultINtB5_6ResultNtNtCs71axb73f1AC_14thiserror_impl3ast7VariantNtNtCsdGrGZaRBwMb_3syn5error5ErrorENtNtNtB7_3ops9try_trait3Try6branchBO_, symObjAddr: 0x33F0, symBinAddr: 0x49C10, symSize: 0xF0 }
  - { offset: 0xD9D6D, size: 0x8, addend: 0x0, symName: __RNvXsp_NtCsieiGu2EXtoJ_4core6resultINtB5_6ResultNtNtCs71axb73f1AC_14thiserror_impl3fmt12FmtArgumentsNtNtCsdGrGZaRBwMb_3syn5error5ErrorENtNtNtB7_3ops9try_trait3Try6branchBO_, symObjAddr: 0x34E0, symBinAddr: 0x49D00, symSize: 0xD0 }
  - { offset: 0xD9DEB, size: 0x8, addend: 0x0, symName: __RNvXsp_NtCsieiGu2EXtoJ_4core6resultINtB5_6ResultNtNtCs71axb73f1AC_14thiserror_impl4attr5AttrsNtNtCsdGrGZaRBwMb_3syn5error5ErrorENtNtNtB7_3ops9try_trait3Try6branchBO_, symObjAddr: 0x35B0, symBinAddr: 0x49DD0, symSize: 0xF0 }
  - { offset: 0xD9E69, size: 0x8, addend: 0x0, symName: __RNvXsp_NtCsieiGu2EXtoJ_4core6resultINtB5_6ResultNtNtCsdGrGZaRBwMb_3syn6derive11DeriveInputNtNtBO_5error5ErrorENtNtNtB7_3ops9try_trait3Try6branchCs71axb73f1AC_14thiserror_impl, symObjAddr: 0x36A0, symBinAddr: 0x49EC0, symSize: 0xE0 }
  - { offset: 0xD9EE7, size: 0x8, addend: 0x0, symName: __RNvXsp_NtCsieiGu2EXtoJ_4core6resultINtB5_6ResultNtNvNtCs71axb73f1AC_14thiserror_impl4attr21parse_error_attribute11transparentNtNtCsdGrGZaRBwMb_3syn5error5ErrorENtNtNtB7_3ops9try_trait3Try6branchBQ_, symObjAddr: 0x3780, symBinAddr: 0x49FA0, symSize: 0xB0 }
  - { offset: 0xD9F64, size: 0x8, addend: 0x0, symName: __RNvXsp_NtCsieiGu2EXtoJ_4core6resultINtB5_6ResultRNtNtCsdGrGZaRBwMb_3syn4path4PathNtNtBP_5error5ErrorENtNtNtB7_3ops9try_trait3Try6branchCs71axb73f1AC_14thiserror_impl, symObjAddr: 0x3830, symBinAddr: 0x4A050, symSize: 0xB0 }
  - { offset: 0xD9FE1, size: 0x8, addend: 0x0, symName: __RNvXsp_NtCsieiGu2EXtoJ_4core6resultINtB5_6ResultTNtNvNtCs71axb73f1AC_14thiserror_impl4attr21parse_error_attribute11transparentNtNtCsdGrGZaRBwMb_3syn6buffer6CursorENtNtB24_5error5ErrorENtNtNtB7_3ops9try_trait3Try6branchBR_, symObjAddr: 0x38E0, symBinAddr: 0x4A100, symSize: 0xC0 }
  - { offset: 0xDA05F, size: 0x8, addend: 0x0, symName: __RNvXsp_NtCsieiGu2EXtoJ_4core6resultINtB5_6ResultTbNtNtCsdGrGZaRBwMb_3syn6buffer6CursorENtNtBQ_5error5ErrorENtNtNtB7_3ops9try_trait3Try6branchCs71axb73f1AC_14thiserror_impl, symObjAddr: 0x39A0, symBinAddr: 0x4A1C0, symSize: 0xC0 }
  - { offset: 0xDA0E3, size: 0x8, addend: 0x0, symName: __RNvXsq_NtCsieiGu2EXtoJ_4core6resultINtB5_6ResultINtNtB7_6option6OptionNtCsaKzlTDPUHDb_11proc_macro29TokenTreeENtNtCsdGrGZaRBwMb_3syn5error5ErrorEINtNtNtB7_3ops9try_trait12FromResidualIBy_NtNtB7_7convert10InfallibleB1K_EE13from_residualCs71axb73f1AC_14thiserror_impl, symObjAddr: 0x3A60, symBinAddr: 0x4A280, symSize: 0x60 }
  - { offset: 0xDA168, size: 0x8, addend: 0x0, symName: __RNvXsq_NtCsieiGu2EXtoJ_4core6resultINtB5_6ResultINtNtCslJiobkLta79_5alloc3vec3VecNtNtCs71axb73f1AC_14thiserror_impl3ast5FieldENtNtCsdGrGZaRBwMb_3syn5error5ErrorEINtNtNtB7_3ops9try_trait12FromResidualIBy_NtNtB7_7convert10InfallibleB20_EE13from_residualB1l_, symObjAddr: 0x3AC0, symBinAddr: 0x4A2E0, symSize: 0x60 }
  - { offset: 0xDA1ED, size: 0x8, addend: 0x0, symName: __RNvXsq_NtCsieiGu2EXtoJ_4core6resultINtB5_6ResultINtNtCslJiobkLta79_5alloc3vec3VecNtNtCs71axb73f1AC_14thiserror_impl3ast7VariantENtNtCsdGrGZaRBwMb_3syn5error5ErrorEINtNtNtB7_3ops9try_trait12FromResidualIBy_NtNtB7_7convert10InfallibleB22_EE13from_residualB1l_, symObjAddr: 0x3B20, symBinAddr: 0x4A340, symSize: 0x60 }
  - { offset: 0xDA272, size: 0x8, addend: 0x0, symName: __RNvXsq_NtCsieiGu2EXtoJ_4core6resultINtB5_6ResultNtCsaKzlTDPUHDb_11proc_macro25IdentNtNtCsdGrGZaRBwMb_3syn5error5ErrorEINtNtNtB7_3ops9try_trait12FromResidualIBy_NtNtB7_7convert10InfallibleNtBM_8LexErrorEE13from_residualCs71axb73f1AC_14thiserror_impl, symObjAddr: 0x3B80, symBinAddr: 0x4A3A0, symSize: 0x60 }
  - { offset: 0xDA2D9, size: 0x8, addend: 0x0, symName: __RNvXsq_NtCsieiGu2EXtoJ_4core6resultINtB5_6ResultNtNtCs71axb73f1AC_14thiserror_impl3ast4EnumNtNtCsdGrGZaRBwMb_3syn5error5ErrorEINtNtNtB7_3ops9try_trait12FromResidualIBy_NtNtB7_7convert10InfallibleB1r_EE13from_residualBO_, symObjAddr: 0x3BE0, symBinAddr: 0x4A400, symSize: 0x60 }
  - { offset: 0xDA35E, size: 0x8, addend: 0x0, symName: __RNvXsq_NtCsieiGu2EXtoJ_4core6resultINtB5_6ResultNtNtCs71axb73f1AC_14thiserror_impl3ast5FieldNtNtCsdGrGZaRBwMb_3syn5error5ErrorEINtNtNtB7_3ops9try_trait12FromResidualIBy_NtNtB7_7convert10InfallibleB1s_EE13from_residualBO_, symObjAddr: 0x3C40, symBinAddr: 0x4A460, symSize: 0x60 }
  - { offset: 0xDA3E3, size: 0x8, addend: 0x0, symName: __RNvXsq_NtCsieiGu2EXtoJ_4core6resultINtB5_6ResultNtNtCs71axb73f1AC_14thiserror_impl3ast6StructNtNtCsdGrGZaRBwMb_3syn5error5ErrorEINtNtNtB7_3ops9try_trait12FromResidualIBy_NtNtB7_7convert10InfallibleB1t_EE13from_residualBO_, symObjAddr: 0x3CA0, symBinAddr: 0x4A4C0, symSize: 0x60 }
  - { offset: 0xDA468, size: 0x8, addend: 0x0, symName: __RNvXsq_NtCsieiGu2EXtoJ_4core6resultINtB5_6ResultNtNtCs71axb73f1AC_14thiserror_impl3ast7VariantNtNtCsdGrGZaRBwMb_3syn5error5ErrorEINtNtNtB7_3ops9try_trait12FromResidualIBy_NtNtB7_7convert10InfallibleB1u_EE13from_residualBO_, symObjAddr: 0x3D00, symBinAddr: 0x4A520, symSize: 0x60 }
  - { offset: 0xDA4ED, size: 0x8, addend: 0x0, symName: __RNvXsq_NtCsieiGu2EXtoJ_4core6resultINtB5_6ResultNtNtCs71axb73f1AC_14thiserror_impl3fmt12FmtArgumentsNtNtCsdGrGZaRBwMb_3syn5error5ErrorEINtNtNtB7_3ops9try_trait12FromResidualIBy_NtNtB7_7convert10InfallibleB1A_EE13from_residualBO_, symObjAddr: 0x3D60, symBinAddr: 0x4A580, symSize: 0x60 }
  - { offset: 0xDA572, size: 0x8, addend: 0x0, symName: __RNvXsq_NtCsieiGu2EXtoJ_4core6resultINtB5_6ResultNtNtCs71axb73f1AC_14thiserror_impl4attr5AttrsNtNtCsdGrGZaRBwMb_3syn5error5ErrorEINtNtNtB7_3ops9try_trait12FromResidualIBy_NtNtB7_7convert10InfallibleB1t_EE13from_residualBO_, symObjAddr: 0x3DC0, symBinAddr: 0x4A5E0, symSize: 0x60 }
  - { offset: 0xDA5F7, size: 0x8, addend: 0x0, symName: __RNvXsq_NtCsieiGu2EXtoJ_4core6resultINtB5_6ResultNtNvNtCs71axb73f1AC_14thiserror_impl4attr21parse_error_attribute11transparentNtNtCsdGrGZaRBwMb_3syn5error5ErrorEINtNtNtB7_3ops9try_trait12FromResidualIBy_NtNtB7_7convert10InfallibleB1Z_EE13from_residualBQ_, symObjAddr: 0x3E20, symBinAddr: 0x4A640, symSize: 0x50 }
  - { offset: 0xDD2B4, size: 0x8, addend: 0x0, symName: __RNvNvMsd_NtNtCsieiGu2EXtoJ_4core3num7nonzeroINtB7_7NonZeropE13new_unchecked18precondition_checkCs71axb73f1AC_14thiserror_impl, symObjAddr: 0xEF0, symBinAddr: 0x47710, symSize: 0x80 }
  - { offset: 0xDDB32, size: 0x8, addend: 0x0, symName: __RINvNtCsieiGu2EXtoJ_4core3ptr10swap_chunkKj1_ECs71axb73f1AC_14thiserror_impl, symObjAddr: 0x4F0, symBinAddr: 0x46E70, symSize: 0x30 }
  - { offset: 0xDDB6B, size: 0x8, addend: 0x0, symName: __RINvNtCsieiGu2EXtoJ_4core3ptr10swap_chunkKj2_ECs71axb73f1AC_14thiserror_impl, symObjAddr: 0x520, symBinAddr: 0x46EA0, symSize: 0x30 }
  - { offset: 0xDDBA4, size: 0x8, addend: 0x0, symName: __RINvNtCsieiGu2EXtoJ_4core3ptr10swap_chunkKj4_ECs71axb73f1AC_14thiserror_impl, symObjAddr: 0x550, symBinAddr: 0x46ED0, symSize: 0x30 }
  - { offset: 0xDDBDD, size: 0x8, addend: 0x0, symName: __RINvNtCsieiGu2EXtoJ_4core3ptr10swap_chunkKj8_ECs71axb73f1AC_14thiserror_impl, symObjAddr: 0x580, symBinAddr: 0x46F00, symSize: 0x30 }
  - { offset: 0xDDC83, size: 0x8, addend: 0x0, symName: __RNvNvNtCsieiGu2EXtoJ_4core3ptr19swap_nonoverlapping18precondition_checkCs71axb73f1AC_14thiserror_impl, symObjAddr: 0x1420, symBinAddr: 0x47C40, symSize: 0x4E0 }
  - { offset: 0xDDFC3, size: 0x8, addend: 0x0, symName: __RINvNtCsieiGu2EXtoJ_4core3ptr19swap_nonoverlappinghECs71axb73f1AC_14thiserror_impl, symObjAddr: 0x710, symBinAddr: 0x46F30, symSize: 0xB0 }
  - { offset: 0xDE111, size: 0x8, addend: 0x0, symName: __RINvNvNtCsieiGu2EXtoJ_4core3ptr25swap_nonoverlapping_bytes26swap_nonoverlapping_chunksKj8_ECs71axb73f1AC_14thiserror_impl, symObjAddr: 0x7C0, symBinAddr: 0x46FE0, symSize: 0x110 }
  - { offset: 0xDE2B6, size: 0x8, addend: 0x0, symName: __RNvNvNtCsieiGu2EXtoJ_4core3ptr25swap_nonoverlapping_bytes25swap_nonoverlapping_shortCs71axb73f1AC_14thiserror_impl, symObjAddr: 0x1900, symBinAddr: 0x48120, symSize: 0x160 }
  - { offset: 0xDE483, size: 0x8, addend: 0x0, symName: __RNvNtCsieiGu2EXtoJ_4core3ptr25swap_nonoverlapping_bytesCs71axb73f1AC_14thiserror_impl, symObjAddr: 0xB90, symBinAddr: 0x473B0, symSize: 0xD0 }
  - { offset: 0xDE8CE, size: 0x8, addend: 0x0, symName: __RNvNvNtCsieiGu2EXtoJ_4core3ptr19copy_nonoverlapping18precondition_checkCs71axb73f1AC_14thiserror_impl, symObjAddr: 0xF70, symBinAddr: 0x47790, symSize: 0x4B0 }
  - { offset: 0xDEBDF, size: 0x8, addend: 0x0, symName: __RNvNvNtCsieiGu2EXtoJ_4core3ptr4copy18precondition_checkCs71axb73f1AC_14thiserror_impl, symObjAddr: 0x1A60, symBinAddr: 0x48280, symSize: 0x330 }
  - { offset: 0xDEE8D, size: 0x8, addend: 0x0, symName: __RNvNvNtCsieiGu2EXtoJ_4core3ptr7replace18precondition_checkCs71axb73f1AC_14thiserror_impl, symObjAddr: 0x1D90, symBinAddr: 0x485B0, symSize: 0x1E0 }
  - { offset: 0xE0068, size: 0x8, addend: 0x0, symName: __RINvXs3_NtNtCsieiGu2EXtoJ_4core4hash5implsRNtNtCsdGrGZaRBwMb_3syn4expr6MemberNtB8_4Hash4hashNtNtNtCsHUR1vrdMJt_3std4hash6random13DefaultHasherECs71axb73f1AC_14thiserror_impl, symObjAddr: 0x8E0, symBinAddr: 0x47100, symSize: 0x20 }
  - { offset: 0xE00B3, size: 0x8, addend: 0x0, symName: __RINvXs3_NtNtCsieiGu2EXtoJ_4core4hash5implsRRNtNtCsdGrGZaRBwMb_3syn4expr6MemberNtB8_4Hash4hashNtNtNtCsHUR1vrdMJt_3std4hash6random13DefaultHasherECs71axb73f1AC_14thiserror_impl, symObjAddr: 0x900, symBinAddr: 0x47120, symSize: 0x20 }
  - { offset: 0xE01C6, size: 0x8, addend: 0x0, symName: __RNvNtNtCsieiGu2EXtoJ_4core4hash3sip9u8to64_leCs71axb73f1AC_14thiserror_impl, symObjAddr: 0xC60, symBinAddr: 0x47480, symSize: 0x290 }
  - { offset: 0xE0383, size: 0x8, addend: 0x0, symName: __RNvXs3_NtNtCsieiGu2EXtoJ_4core4hash3sipINtB5_6HasherNtB5_11Sip13RoundsENtB7_6Hasher5writeCs71axb73f1AC_14thiserror_impl, symObjAddr: 0x2250, symBinAddr: 0x48A70, symSize: 0x260 }
  - { offset: 0xE04F9, size: 0x8, addend: 0x0, symName: __RNvXs3_NtNtCsieiGu2EXtoJ_4core4hash3sipINtB5_6HasherNtB5_11Sip13RoundsENtB7_6Hasher6finishCs71axb73f1AC_14thiserror_impl, symObjAddr: 0x24B0, symBinAddr: 0x48CD0, symSize: 0x90 }
  - { offset: 0xE056C, size: 0x8, addend: 0x0, symName: __RNvXs3_NtNtCsieiGu2EXtoJ_4core4hash3sipINtB5_6HasherNtB5_11Sip13RoundsENtB7_6Hasher9write_strCs71axb73f1AC_14thiserror_impl, symObjAddr: 0x2540, symBinAddr: 0x48D60, symSize: 0x40 }
  - { offset: 0xE05D2, size: 0x8, addend: 0x0, symName: __RNvXs6_NtNtCsieiGu2EXtoJ_4core4hash3sipNtB5_11Sip13RoundsNtB5_3Sip8c_roundsCs71axb73f1AC_14thiserror_impl, symObjAddr: 0x2580, symBinAddr: 0x48DA0, symSize: 0x180 }
  - { offset: 0xE074E, size: 0x8, addend: 0x0, symName: __RNvXs6_NtNtCsieiGu2EXtoJ_4core4hash3sipNtB5_11Sip13RoundsNtB5_3Sip8d_roundsCs71axb73f1AC_14thiserror_impl, symObjAddr: 0x2700, symBinAddr: 0x48F20, symSize: 0x4C0 }
  - { offset: 0xE121F, size: 0x8, addend: 0x0, symName: __RNvXNtCsieiGu2EXtoJ_4core6borrowRNtNtCsdGrGZaRBwMb_3syn4expr6MemberINtB2_6BorrowBu_E6borrowCs71axb73f1AC_14thiserror_impl, symObjAddr: 0x2160, symBinAddr: 0x48980, symSize: 0x10 }
  - { offset: 0xE125A, size: 0x8, addend: 0x0, symName: __RNvXs0_NtCsieiGu2EXtoJ_4core6borrowRNtNtCsdGrGZaRBwMb_3syn4expr6MemberINtB5_6BorrowBy_E6borrowCs71axb73f1AC_14thiserror_impl, symObjAddr: 0x2220, symBinAddr: 0x48A40, symSize: 0x10 }
  - { offset: 0xE12A5, size: 0x8, addend: 0x0, symName: __RNvXNtNtNtCsieiGu2EXtoJ_4core5array4iter10iter_innerSINtNtNtB8_3mem12maybe_uninit11MaybeUninitjENtB2_11PartialDrop12partial_dropCs71axb73f1AC_14thiserror_impl, symObjAddr: 0x2170, symBinAddr: 0x48990, symSize: 0xB0 }
  - { offset: 0xE13BB, size: 0x8, addend: 0x0, symName: __RNvXs_NtNtNtCsieiGu2EXtoJ_4core5array4iter10iter_innerAINtNtNtBa_3mem12maybe_uninit11MaybeUninitjEj2_NtB4_11PartialDrop12partial_dropCs71axb73f1AC_14thiserror_impl, symObjAddr: 0x2E60, symBinAddr: 0x49680, symSize: 0x40 }
  - { offset: 0xE39AF, size: 0x8, addend: 0x0, symName: __RINvXs4_NtCsdGrGZaRBwMb_3syn4exprNtB6_6MemberNtNtCsieiGu2EXtoJ_4core4hash4Hash4hashNtNtNtCsHUR1vrdMJt_3std4hash6random13DefaultHasherECs71axb73f1AC_14thiserror_impl, symObjAddr: 0x920, symBinAddr: 0x47140, symSize: 0x70 }
  - { offset: 0xE3A2B, size: 0x8, addend: 0x0, symName: __RINvXsa_NtCsdGrGZaRBwMb_3syn4exprNtB6_5IndexNtNtCsieiGu2EXtoJ_4core4hash4Hash4hashNtNtNtCsHUR1vrdMJt_3std4hash6random13DefaultHasherECs71axb73f1AC_14thiserror_impl, symObjAddr: 0x990, symBinAddr: 0x471B0, symSize: 0x30 }
  - { offset: 0xE3A78, size: 0x8, addend: 0x0, symName: __RNcNtNtNtCsdGrGZaRBwMb_3syn4expr6Member5Named0Cs71axb73f1AC_14thiserror_impl, symObjAddr: 0xA80, symBinAddr: 0x472A0, symSize: 0x20 }
  - { offset: 0xE7E81, size: 0x8, addend: 0x0, symName: __RINvXNtNtNtNtCsHUR1vrdMJt_3std3sys12thread_local6native4lazyzNtB3_14DestroyedState13register_dtorINtNtCsieiGu2EXtoJ_4core4cell4CellTyyEEECs71axb73f1AC_14thiserror_impl, symObjAddr: 0x8D0, symBinAddr: 0x470F0, symSize: 0x10 }
  - { offset: 0xE7EED, size: 0x8, addend: 0x0, symName: __RINvMNtCsieiGu2EXtoJ_4core6resultINtB3_6ResultNtNtCs71axb73f1AC_14thiserror_impl3ast4EnumNtNtCsdGrGZaRBwMb_3syn5error5ErrorE3mapNtBK_5InputNcNtB22_4Enum0EBM_, symObjAddr: 0x0, symBinAddr: 0x46BE0, symSize: 0x100 }
  - { offset: 0xE7F99, size: 0x8, addend: 0x0, symName: __RINvMNtCsieiGu2EXtoJ_4core6resultINtB3_6ResultNtNtCs71axb73f1AC_14thiserror_impl3ast6StructNtNtCsdGrGZaRBwMb_3syn5error5ErrorE3mapNtBK_5InputNcNtB24_6Struct0EBM_, symObjAddr: 0x100, symBinAddr: 0x46CE0, symSize: 0x100 }
  - { offset: 0xE80EA, size: 0x8, addend: 0x0, symName: __RINvMs0_NtNtNtNtCsHUR1vrdMJt_3std3sys12thread_local6native4lazyINtB6_7StorageINtNtCsieiGu2EXtoJ_4core4cell4CellTyyEEzE11get_or_initNvNvNvMNtNtBe_4hash6randomNtB2c_11RandomState3new4KEYS6___initECs71axb73f1AC_14thiserror_impl, symObjAddr: 0x200, symBinAddr: 0x46DE0, symSize: 0x90 }
  - { offset: 0xE8313, size: 0x8, addend: 0x0, symName: __RINvMs0_NtNtNtNtCsHUR1vrdMJt_3std3sys12thread_local6native4lazyINtB6_7StorageINtNtCsieiGu2EXtoJ_4core4cell4CellTyyEEzE16get_or_init_slowNvNvNvMNtNtBe_4hash6randomNtB2h_11RandomState3new4KEYS6___initECs71axb73f1AC_14thiserror_impl, symObjAddr: 0x290, symBinAddr: 0x1DF980, symSize: 0x260 }
  - { offset: 0xE85EB, size: 0x8, addend: 0x0, symName: __RNvXCsjK30CmJ87bX_9hashbrownNtNtCsdGrGZaRBwMb_3syn4expr6MemberINtB2_10EquivalentRBq_E10equivalentCs71axb73f1AC_14thiserror_impl, symObjAddr: 0x1F70, symBinAddr: 0x48790, symSize: 0x50 }
  - { offset: 0xE865C, size: 0x8, addend: 0x0, symName: __RNvXCsjK30CmJ87bX_9hashbrownRNtNtCsdGrGZaRBwMb_3syn4expr6MemberINtB2_10EquivalentBq_E10equivalentCs71axb73f1AC_14thiserror_impl, symObjAddr: 0x1FC0, symBinAddr: 0x487E0, symSize: 0x50 }
  - { offset: 0xE879E, size: 0x8, addend: 0x0, symName: __RNvMNtCsieiGu2EXtoJ_4core6resultINtB2_6ResultNtNtCsdGrGZaRBwMb_3syn2op5BinOpNtNtBL_5error5ErrorE5is_okCs71axb73f1AC_14thiserror_impl, symObjAddr: 0xAA0, symBinAddr: 0x472C0, symSize: 0x30 }
  - { offset: 0xE87E0, size: 0x8, addend: 0x0, symName: __RNvMNtCsieiGu2EXtoJ_4core6resultINtB2_6ResultNtNtCsdGrGZaRBwMb_3syn4expr4ExprNtNtBL_5error5ErrorE5is_okCs71axb73f1AC_14thiserror_impl, symObjAddr: 0xAD0, symBinAddr: 0x472F0, symSize: 0x30 }
  - { offset: 0xE8822, size: 0x8, addend: 0x0, symName: __RNvMs0_NtNtCsieiGu2EXtoJ_4core4hash3sipINtB5_6HasherNtB5_11Sip13RoundsE5resetCs71axb73f1AC_14thiserror_impl, symObjAddr: 0xB00, symBinAddr: 0x47320, symSize: 0x70 }
  - { offset: 0xE886E, size: 0x8, addend: 0x0, symName: __RNvMs10_NtNtCsieiGu2EXtoJ_4core9core_arch3x86NtB6_7___m128i8as_i8x16Cs71axb73f1AC_14thiserror_impl, symObjAddr: 0xB70, symBinAddr: 0x47390, symSize: 0x20 }
  - { offset: 0xE8AEB, size: 0x8, addend: 0x0, symName: __RNvXNtCs9OU1sGv5X54_5quote14ident_fragmentRNtNtCsdGrGZaRBwMb_3syn4expr5IndexNtB2_13IdentFragment3fmtCs71axb73f1AC_14thiserror_impl, symObjAddr: 0x2070, symBinAddr: 0x48890, symSize: 0x30 }
  - { offset: 0xE8B2E, size: 0x8, addend: 0x0, symName: __RNvXNtCs9OU1sGv5X54_5quote14ident_fragmentRNtNtCsdGrGZaRBwMb_3syn4expr5IndexNtB2_13IdentFragment4spanCs71axb73f1AC_14thiserror_impl, symObjAddr: 0x20A0, symBinAddr: 0x488C0, symSize: 0x30 }
  - { offset: 0xE8B63, size: 0x8, addend: 0x0, symName: __RNvXNtCs9OU1sGv5X54_5quote14ident_fragmentRRNtNtCsdGrGZaRBwMb_3syn4expr5IndexNtB2_13IdentFragment3fmtCs71axb73f1AC_14thiserror_impl, symObjAddr: 0x20D0, symBinAddr: 0x488F0, symSize: 0x30 }
  - { offset: 0xE8BA6, size: 0x8, addend: 0x0, symName: __RNvXNtCs9OU1sGv5X54_5quote14ident_fragmentRRNtNtCsdGrGZaRBwMb_3syn4expr5IndexNtB2_13IdentFragment4spanCs71axb73f1AC_14thiserror_impl, symObjAddr: 0x2100, symBinAddr: 0x48920, symSize: 0x30 }
  - { offset: 0xE8BE7, size: 0x8, addend: 0x0, symName: __RNvXNtCs9OU1sGv5X54_5quote9to_tokensRNtNtCsdGrGZaRBwMb_3syn4expr6MemberNtB2_8ToTokens9to_tokensCs71axb73f1AC_14thiserror_impl, symObjAddr: 0x2130, symBinAddr: 0x48950, symSize: 0x30 }
  - { offset: 0xE9032, size: 0x8, addend: 0x0, symName: __RINvMs2_NtNtCsHUR1vrdMJt_3std6thread5localINtB6_8LocalKeyINtNtCsieiGu2EXtoJ_4core4cell4CellPuEE4withNCNvMs3_B6_BE_7replace0B1r_ECs71axb73f1AC_14thiserror_impl, symObjAddr: 0x0, symBinAddr: 0x4A690, symSize: 0x50 }
  - { offset: 0xE9C3B, size: 0x8, addend: 0x0, symName: __RNCNvMNtCs71axb73f1AC_14thiserror_impl8genericsNtB4_13ParamsInScope3new0B6_, symObjAddr: 0x1B70, symBinAddr: 0x4C200, symSize: 0x20 }
  - { offset: 0xE9CBE, size: 0x8, addend: 0x0, symName: __RNvNtCs71axb73f1AC_14thiserror_impl8generics5crawl, symObjAddr: 0x2370, symBinAddr: 0x4CA00, symSize: 0x300 }
  - { offset: 0xEA217, size: 0x8, addend: 0x0, symName: __RNCNvMs3_NtNtCsHUR1vrdMJt_3std6thread5localINtB7_8LocalKeyINtNtCsieiGu2EXtoJ_4core4cell4CellPuEE7replace0Cs71axb73f1AC_14thiserror_impl, symObjAddr: 0x1B90, symBinAddr: 0x4C220, symSize: 0x20 }
  - { offset: 0xEF357, size: 0x8, addend: 0x0, symName: __RINvXs2E_NtNtCsieiGu2EXtoJ_4core5slice4iterINtB7_4IterNtNtCs71axb73f1AC_14thiserror_impl3ast5FieldENtNtNtNtBb_4iter6traits8iterator8Iterator8find_mapRNtNtCsdGrGZaRBwMb_3syn4attr9AttributeNCNvMs1_NtBU_5validNtBS_7Variant8validate0EBU_, symObjAddr: 0x1150, symBinAddr: 0x4B7E0, symSize: 0xC0 }
  - { offset: 0xEF3DC, size: 0x8, addend: 0x0, symName: __RINvXs2E_NtNtCsieiGu2EXtoJ_4core5slice4iterINtB7_4IterNtNtCs71axb73f1AC_14thiserror_impl3ast5FieldENtNtNtNtBb_4iter6traits8iterator8Iterator8find_mapRNtNtCsdGrGZaRBwMb_3syn4attr9AttributeNCNvMs_NtBU_5validNtBS_6Struct8validate0EBU_, symObjAddr: 0x1210, symBinAddr: 0x4B8A0, symSize: 0xC0 }
  - { offset: 0xEF461, size: 0x8, addend: 0x0, symName: __RINvXs2E_NtNtCsieiGu2EXtoJ_4core5slice4iterINtB7_4IterNtNtCs71axb73f1AC_14thiserror_impl3ast7VariantENtNtNtNtBb_4iter6traits8iterator8Iterator3allNCNvMs_NtBU_4propNtBS_4Enum11has_displays_0EBU_, symObjAddr: 0x12D0, symBinAddr: 0x4B960, symSize: 0xA0 }
  - { offset: 0xEF4C6, size: 0x8, addend: 0x0, symName: __RINvXs2E_NtNtCsieiGu2EXtoJ_4core5slice4iterINtB7_4IterNtNtCs71axb73f1AC_14thiserror_impl3ast7VariantENtNtNtNtBb_4iter6traits8iterator8Iterator3anyNCNvMs_NtBU_4propNtBS_4Enum10has_source0EBU_, symObjAddr: 0x1370, symBinAddr: 0x4BA00, symSize: 0x90 }
  - { offset: 0xEF52B, size: 0x8, addend: 0x0, symName: __RINvXs2E_NtNtCsieiGu2EXtoJ_4core5slice4iterINtB7_4IterNtNtCs71axb73f1AC_14thiserror_impl3ast7VariantENtNtNtNtBb_4iter6traits8iterator8Iterator3anyNCNvMs_NtBU_4propNtBS_4Enum11has_display0EBU_, symObjAddr: 0x1400, symBinAddr: 0x4BA90, symSize: 0x90 }
  - { offset: 0xEF590, size: 0x8, addend: 0x0, symName: __RINvXs2E_NtNtCsieiGu2EXtoJ_4core5slice4iterINtB7_4IterNtNtCs71axb73f1AC_14thiserror_impl3ast7VariantENtNtNtNtBb_4iter6traits8iterator8Iterator3anyNCNvMs_NtBU_4propNtBS_4Enum13has_backtrace0EBU_, symObjAddr: 0x1490, symBinAddr: 0x4BB20, symSize: 0x90 }
  - { offset: 0xEF5F5, size: 0x8, addend: 0x0, symName: __RINvXs2E_NtNtCsieiGu2EXtoJ_4core5slice4iterINtB7_4IterNtNtCs71axb73f1AC_14thiserror_impl3ast7VariantENtNtNtNtBb_4iter6traits8iterator8Iterator3anyNCNvNtBU_6expand9impl_enums0_0EBU_, symObjAddr: 0x1520, symBinAddr: 0x4BBB0, symSize: 0x90 }
  - { offset: 0xEF65A, size: 0x8, addend: 0x0, symName: __RINvXs2E_NtNtCsieiGu2EXtoJ_4core5slice4iterINtB7_4IterNtNtCs71axb73f1AC_14thiserror_impl3ast7VariantENtNtNtNtBb_4iter6traits8iterator8Iterator4folduNCINvNtNtB1H_8adapters3map8map_foldRBQ_NtCsaKzlTDPUHDb_11proc_macro211TokenStreamuNCNvNtBU_6expand9impl_enums1_0NCINvNvB1B_8for_each4callB2Z_NCINvMsi_NtCslJiobkLta79_5alloc3vecINtB4M_3VecB2Z_E14extend_trustedINtB2r_3MapBF_B3G_EE0E0E0EBU_, symObjAddr: 0x15B0, symBinAddr: 0x4BC40, symSize: 0x190 }
  - { offset: 0xEF79B, size: 0x8, addend: 0x0, symName: __RINvXs2E_NtNtCsieiGu2EXtoJ_4core5slice4iterINtB7_4IterNtNtCs71axb73f1AC_14thiserror_impl3ast7VariantENtNtNtNtBb_4iter6traits8iterator8Iterator8find_mapNtCsaKzlTDPUHDb_11proc_macro211TokenStreamQNCNvNtBU_6expand9impl_enums2_0EBU_, symObjAddr: 0x1740, symBinAddr: 0x4BDD0, symSize: 0x120 }
  - { offset: 0xEF820, size: 0x8, addend: 0x0, symName: __RNvXs2E_NtNtCsieiGu2EXtoJ_4core5slice4iterINtB6_4IterNtCsaKzlTDPUHDb_11proc_macro211TokenStreamENtNtNtNtBa_4iter6traits8iterator8Iterator4nextCs71axb73f1AC_14thiserror_impl, symObjAddr: 0x2720, symBinAddr: 0x4CDB0, symSize: 0x90 }
  - { offset: 0xEF941, size: 0x8, addend: 0x0, symName: __RNvXs2E_NtNtCsieiGu2EXtoJ_4core5slice4iterINtB6_4IterNtCsaKzlTDPUHDb_11proc_macro25IdentENtNtNtNtBa_4iter6traits8iterator8Iterator4nextCs71axb73f1AC_14thiserror_impl, symObjAddr: 0x27B0, symBinAddr: 0x4CE40, symSize: 0x90 }
  - { offset: 0xEFA62, size: 0x8, addend: 0x0, symName: __RNvXs2E_NtNtCsieiGu2EXtoJ_4core5slice4iterINtB6_4IterNtNtCs71axb73f1AC_14thiserror_impl3ast5FieldENtNtNtNtBa_4iter6traits8iterator8Iterator4nextBT_, symObjAddr: 0x2840, symBinAddr: 0x4CED0, symSize: 0x90 }
  - { offset: 0xEFB83, size: 0x8, addend: 0x0, symName: __RNvXs2E_NtNtCsieiGu2EXtoJ_4core5slice4iterINtB6_4IterNtNtCs71axb73f1AC_14thiserror_impl3ast7VariantENtNtNtNtBa_4iter6traits8iterator8Iterator4nextBT_, symObjAddr: 0x28D0, symBinAddr: 0x4CF60, symSize: 0x90 }
  - { offset: 0xEFCA4, size: 0x8, addend: 0x0, symName: __RNvXs2E_NtNtCsieiGu2EXtoJ_4core5slice4iterINtB6_4IterNtNtCs71axb73f1AC_14thiserror_impl3ast7VariantENtNtNtNtBa_4iter6traits8iterator8Iterator9size_hintBT_, symObjAddr: 0x2960, symBinAddr: 0x4CFF0, symSize: 0x60 }
  - { offset: 0xEFD13, size: 0x8, addend: 0x0, symName: __RNvXs2E_NtNtCsieiGu2EXtoJ_4core5slice4iterINtB6_4IterNtNtCslJiobkLta79_5alloc6string6StringENtNtNtNtBa_4iter6traits8iterator8Iterator4nextCs71axb73f1AC_14thiserror_impl, symObjAddr: 0x29C0, symBinAddr: 0x4D050, symSize: 0x90 }
  - { offset: 0xEFE34, size: 0x8, addend: 0x0, symName: __RNvXs2E_NtNtCsieiGu2EXtoJ_4core5slice4iterINtB6_4IterRNtCsaKzlTDPUHDb_11proc_macro25IdentENtNtNtNtBa_4iter6traits8iterator8Iterator4nextCs71axb73f1AC_14thiserror_impl, symObjAddr: 0x2A50, symBinAddr: 0x4D0E0, symSize: 0x90 }
  - { offset: 0xEFF55, size: 0x8, addend: 0x0, symName: __RNvXs2E_NtNtCsieiGu2EXtoJ_4core5slice4iterINtB6_4IterTNtCsaKzlTDPUHDb_11proc_macro211TokenStreamNtNtCsdGrGZaRBwMb_3syn5token4PlusEENtNtNtNtBa_4iter6traits8iterator8Iterator4nextCs71axb73f1AC_14thiserror_impl, symObjAddr: 0x2AE0, symBinAddr: 0x4D170, symSize: 0x90 }
  - { offset: 0xF0076, size: 0x8, addend: 0x0, symName: __RNvXs2E_NtNtCsieiGu2EXtoJ_4core5slice4iterINtB6_4IterTNtNtCs71axb73f1AC_14thiserror_impl9scan_expr5InputNtBS_6ActionEENtNtNtNtBa_4iter6traits8iterator8Iterator4nextBU_, symObjAddr: 0x2B70, symBinAddr: 0x4D200, symSize: 0x90 }
  - { offset: 0xF0197, size: 0x8, addend: 0x0, symName: __RNvXs2E_NtNtCsieiGu2EXtoJ_4core5slice4iterINtB6_4IterTjNtNtCs71axb73f1AC_14thiserror_impl4attr5TraitEENtNtNtNtBa_4iter6traits8iterator8Iterator4nextBV_, symObjAddr: 0x2C00, symBinAddr: 0x4D290, symSize: 0x90 }
  - { offset: 0xF0485, size: 0x8, addend: 0x0, symName: __RNvXs2F_NtNtCsieiGu2EXtoJ_4core5slice4iterINtB6_4IterTNtNtCsdGrGZaRBwMb_3syn4data7VariantNtNtBU_5token5CommaEENtNtNtNtBa_4iter6traits12double_ended19DoubleEndedIterator9next_backCs71axb73f1AC_14thiserror_impl, symObjAddr: 0x2C90, symBinAddr: 0x4D320, symSize: 0x100 }
  - { offset: 0xF05D4, size: 0x8, addend: 0x0, symName: __RNvXs2F_NtNtCsieiGu2EXtoJ_4core5slice4iterINtB6_4IterTNtNtCsdGrGZaRBwMb_3syn4path15GenericArgumentNtNtBU_5token5CommaEENtNtNtNtBa_4iter6traits12double_ended19DoubleEndedIterator9next_backCs71axb73f1AC_14thiserror_impl, symObjAddr: 0x2D90, symBinAddr: 0x4D420, symSize: 0x100 }
  - { offset: 0xF07A0, size: 0x8, addend: 0x0, symName: __RNvXs5_NtNtCsieiGu2EXtoJ_4core5slice4iterINtB5_4IterTNtNtCsdGrGZaRBwMb_3syn4data7VariantNtNtBT_5token5CommaEENtNtB9_5clone5Clone5cloneCs71axb73f1AC_14thiserror_impl, symObjAddr: 0x2F00, symBinAddr: 0x4D590, symSize: 0x20 }
  - { offset: 0xF07D5, size: 0x8, addend: 0x0, symName: __RNvXs5_NtNtCsieiGu2EXtoJ_4core5slice4iterINtB5_4IterTNtNtCsdGrGZaRBwMb_3syn4path15GenericArgumentNtNtBT_5token5CommaEENtNtB9_5clone5Clone5cloneCs71axb73f1AC_14thiserror_impl, symObjAddr: 0x2F20, symBinAddr: 0x4D5B0, symSize: 0x20 }
  - { offset: 0xF0989, size: 0x8, addend: 0x0, symName: __RINvYINtNtNtCsieiGu2EXtoJ_4core5slice4iter4IterNtNtCs71axb73f1AC_14thiserror_impl3ast5FieldENtNtNtNtBa_4iter6traits8iterator8Iterator3mapRNtNtCsdGrGZaRBwMb_3syn4expr6MemberNCNvNtBN_6expand10fields_pat0EBN_, symObjAddr: 0x1A30, symBinAddr: 0x4C0C0, symSize: 0x20 }
  - { offset: 0xF09E1, size: 0x8, addend: 0x0, symName: __RINvYINtNtNtCsieiGu2EXtoJ_4core5slice4iter4IterNtNtCs71axb73f1AC_14thiserror_impl3ast7VariantENtNtNtNtBa_4iter6traits8iterator8Iterator10filter_mapNtCsaKzlTDPUHDb_11proc_macro211TokenStreamNCNvNtBN_6expand9impl_enums2_0EBN_, symObjAddr: 0x1A50, symBinAddr: 0x4C0E0, symSize: 0x40 }
  - { offset: 0xF0A4F, size: 0x8, addend: 0x0, symName: __RINvYINtNtNtCsieiGu2EXtoJ_4core5slice4iter4IterNtNtCs71axb73f1AC_14thiserror_impl3ast7VariantENtNtNtNtBa_4iter6traits8iterator8Iterator3mapNtCsaKzlTDPUHDb_11proc_macro211TokenStreamNCNvNtBN_6expand9impl_enum0EBN_, symObjAddr: 0x1A90, symBinAddr: 0x4C120, symSize: 0x30 }
  - { offset: 0xF0ABC, size: 0x8, addend: 0x0, symName: __RINvYINtNtNtCsieiGu2EXtoJ_4core5slice4iter4IterNtNtCs71axb73f1AC_14thiserror_impl3ast7VariantENtNtNtNtBa_4iter6traits8iterator8Iterator3mapNtCsaKzlTDPUHDb_11proc_macro211TokenStreamNCNvNtBN_6expand9impl_enums1_0EBN_, symObjAddr: 0x1AC0, symBinAddr: 0x4C150, symSize: 0x30 }
  - { offset: 0xF0B29, size: 0x8, addend: 0x0, symName: __RINvYINtNtNtCsieiGu2EXtoJ_4core5slice4iter4IterNtNtCs71axb73f1AC_14thiserror_impl3ast7VariantENtNtNtNtBa_4iter6traits8iterator8Iterator3mapNtCsaKzlTDPUHDb_11proc_macro211TokenStreamNCNvNtBN_6expand9impl_enums_0EBN_, symObjAddr: 0x1AF0, symBinAddr: 0x4C180, symSize: 0x30 }
  - { offset: 0xF0B96, size: 0x8, addend: 0x0, symName: __RINvYINtNtNtNtCsieiGu2EXtoJ_4core4iter8adapters8peekable8PeekableINtNtB8_3map3MapINtNtNtBc_5slice4iter4IterNtNtCs71axb73f1AC_14thiserror_impl3ast5FieldENCNvNtB1L_6expand10fields_pat0EENtNtNtBa_6traits8iterator8Iterator3mapNtCsaKzlTDPUHDb_11proc_macro25IdentNCB2s_s_0EB1L_, symObjAddr: 0x1B20, symBinAddr: 0x4C1B0, symSize: 0x30 }
  - { offset: 0xF0C03, size: 0x8, addend: 0x0, symName: __RNvYINtNtNtCsieiGu2EXtoJ_4core5slice4iter4IterNtNtCs71axb73f1AC_14thiserror_impl3ast5FieldENtNtNtNtB9_4iter6traits8iterator8Iterator9enumerateBM_, symObjAddr: 0x3540, symBinAddr: 0x4DBD0, symSize: 0x20 }
  - { offset: 0xF0F71, size: 0x8, addend: 0x0, symName: __RNCNvMs3_NtNtNtCsieiGu2EXtoJ_4core4iter8adapters8peekableINtB7_8PeekableINtNtB9_3map3MapINtNtNtBd_5slice4iter4IterNtNtCs71axb73f1AC_14thiserror_impl3ast5FieldENCNvNtB1S_6expand10fields_pat0EE4peek0B1S_, symObjAddr: 0x1BB0, symBinAddr: 0x4C240, symSize: 0x20 }
  - { offset: 0xF0FA8, size: 0x8, addend: 0x0, symName: __RNCNvMs3_NtNtNtCsieiGu2EXtoJ_4core4iter8adapters8peekableINtB7_8PeekableINtNtB9_3map3MapINtNtNtCslJiobkLta79_5alloc3vec9into_iter8IntoIterRNtCsaKzlTDPUHDb_11proc_macro25IdentENCINvMse_NtNtNtB1v_11collections5btree3setINtB2W_8BTreeSetB2c_E16from_sorted_iterB1o_E0EE4peek0Cs71axb73f1AC_14thiserror_impl, symObjAddr: 0x1BD0, symBinAddr: 0x4C260, symSize: 0x20 }
  - { offset: 0xF0FE6, size: 0x8, addend: 0x0, symName: __RNvXs_NtNtNtCsieiGu2EXtoJ_4core4iter8adapters8peekableINtB4_8PeekableINtNtB6_3map3MapINtNtNtBa_5slice4iter4IterNtNtCs71axb73f1AC_14thiserror_impl3ast5FieldENCNvNtB1P_6expand10fields_pat0EENtNtNtB8_6traits8iterator8Iterator4nextB1P_, symObjAddr: 0x2F40, symBinAddr: 0x4D5D0, symSize: 0x70 }
  - { offset: 0xF12F5, size: 0x8, addend: 0x0, symName: __RNvNvMNtNtCsieiGu2EXtoJ_4core5alloc6layoutNtB4_6Layout25from_size_align_unchecked18precondition_checkCs71axb73f1AC_14thiserror_impl, symObjAddr: 0x2670, symBinAddr: 0x4CD00, symSize: 0xB0 }
  - { offset: 0xF136B, size: 0x8, addend: 0x0, symName: __RNvXsf_NtCsieiGu2EXtoJ_4core5tupleTINtNtNtNtCslJiobkLta79_5alloc11collections5btree3set8BTreeSetNtNtBG_6string6StringEINtNtCsdGrGZaRBwMb_3syn10punctuated10PunctuatedNtCsaKzlTDPUHDb_11proc_macro211TokenStreamNtNtB1X_5token4PlusEENtNtB7_7default7Default7defaultCs71axb73f1AC_14thiserror_impl, symObjAddr: 0x2FB0, symBinAddr: 0x4D640, symSize: 0xB0 }
  - { offset: 0xF1416, size: 0x8, addend: 0x0, symName: __RINvMs2_NtNtCsHUR1vrdMJt_3std6thread5localINtB6_8LocalKeyINtNtCsieiGu2EXtoJ_4core4cell4CellPuEE4withNCNvMs3_B6_BE_7replace0B1r_ECs71axb73f1AC_14thiserror_impl, symObjAddr: 0x0, symBinAddr: 0x4A690, symSize: 0x50 }
  - { offset: 0xF14CF, size: 0x8, addend: 0x0, symName: __RINvMs2_NtNtCsHUR1vrdMJt_3std6thread5localINtB6_8LocalKeyINtNtCsieiGu2EXtoJ_4core4cell4CellPuEE8try_withNCNvMs3_B6_BE_7replace0B1r_ECs71axb73f1AC_14thiserror_impl, symObjAddr: 0x50, symBinAddr: 0x4A6E0, symSize: 0xF0 }
  - { offset: 0xF166F, size: 0x8, addend: 0x0, symName: __RINvMs2_NtNtCsHUR1vrdMJt_3std6thread5localINtB6_8LocalKeyINtNtCsieiGu2EXtoJ_4core4cell4CellTyyEEE4withNCNvMNtNtBa_4hash6randomNtB1H_11RandomState3new0B20_ECs71axb73f1AC_14thiserror_impl, symObjAddr: 0x140, symBinAddr: 0x4A7D0, symSize: 0x50 }
  - { offset: 0xF1728, size: 0x8, addend: 0x0, symName: __RINvMs2_NtNtCsHUR1vrdMJt_3std6thread5localINtB6_8LocalKeyINtNtCsieiGu2EXtoJ_4core4cell4CellTyyEEE8try_withNCNvMNtNtBa_4hash6randomNtB1L_11RandomState3new0B24_ECs71axb73f1AC_14thiserror_impl, symObjAddr: 0x190, symBinAddr: 0x4A820, symSize: 0xF0 }
  - { offset: 0xF1E1B, size: 0x8, addend: 0x0, symName: __RINvXsd_NtNtNtCslJiobkLta79_5alloc11collections5btree3setINtB6_8BTreeSetRNtCsaKzlTDPUHDb_11proc_macro25IdentEINtNtNtNtCsieiGu2EXtoJ_4core4iter6traits7collect12FromIteratorB18_E9from_iterINtNtNtB1Q_8adapters3map3MapNtNtCsdGrGZaRBwMb_3syn8generics10TypeParamsNCNvMNtCs71axb73f1AC_14thiserror_impl8genericsNtB4c_13ParamsInScope3new0EEB4e_, symObjAddr: 0x1860, symBinAddr: 0x4BEF0, symSize: 0x1D0 }
  - { offset: 0xF1FC1, size: 0x8, addend: 0x0, symName: __RNCINvMse_NtNtNtCslJiobkLta79_5alloc11collections5btree3setINtB8_8BTreeSetRNtCsaKzlTDPUHDb_11proc_macro25IdentE16from_sorted_iterINtNtNtBe_3vec9into_iter8IntoIterB1a_EE0Cs71axb73f1AC_14thiserror_impl, symObjAddr: 0x1B50, symBinAddr: 0x4C1E0, symSize: 0x20 }
  - { offset: 0xF2091, size: 0x8, addend: 0x0, symName: __RNvXs3_NtNtNtCslJiobkLta79_5alloc11collections5btree3setINtB5_8BTreeSetTjNtNtCs71axb73f1AC_14thiserror_impl4attr5TraitEENtNtCsieiGu2EXtoJ_4core5clone5Clone10clone_fromB1d_, symObjAddr: 0x2E90, symBinAddr: 0x4D520, symSize: 0x20 }
  - { offset: 0xF20D9, size: 0x8, addend: 0x0, symName: __RNvXs3_NtNtNtCslJiobkLta79_5alloc11collections5btree3setINtB5_8BTreeSetTjNtNtCs71axb73f1AC_14thiserror_impl4attr5TraitEENtNtCsieiGu2EXtoJ_4core5clone5Clone5cloneB1d_, symObjAddr: 0x2EB0, symBinAddr: 0x4D540, symSize: 0x50 }
  - { offset: 0xF211D, size: 0x8, addend: 0x0, symName: __RNvXsg_NtNtNtCslJiobkLta79_5alloc11collections5btree3setINtB5_8BTreeSetTjNtNtCs71axb73f1AC_14thiserror_impl4attr5TraitEENtNtNtNtCsieiGu2EXtoJ_4core4iter6traits7collect12IntoIterator9into_iterB1d_, symObjAddr: 0x3060, symBinAddr: 0x4D6F0, symSize: 0x50 }
  - { offset: 0xF2164, size: 0x8, addend: 0x0, symName: __RNvXsn_NtNtNtCslJiobkLta79_5alloc11collections5btree3setINtB5_8BTreeSetNtNtBb_6string6StringENtNtCsieiGu2EXtoJ_4core7default7Default7defaultCs71axb73f1AC_14thiserror_impl, symObjAddr: 0x34A0, symBinAddr: 0x4DB30, symSize: 0x40 }
  - { offset: 0xF21CA, size: 0x8, addend: 0x0, symName: __RNvXsy_NtNtNtCslJiobkLta79_5alloc11collections5btree3setINtB5_8IntoIterTjNtNtCs71axb73f1AC_14thiserror_impl4attr5TraitEENtNtNtNtCsieiGu2EXtoJ_4core4iter6traits8iterator8Iterator4nextB1d_, symObjAddr: 0x34E0, symBinAddr: 0x4DB70, symSize: 0x60 }
  - { offset: 0xF3B41, size: 0x8, addend: 0x0, symName: __RINvNtCslJiobkLta79_5alloc5slice11stable_sortRNtCsaKzlTDPUHDb_11proc_macro25IdentNvYBH_NtNtCsieiGu2EXtoJ_4core3cmp10PartialOrd2ltECs71axb73f1AC_14thiserror_impl, symObjAddr: 0x10A0, symBinAddr: 0x4B730, symSize: 0xB0 }
  - { offset: 0xF89F2, size: 0x8, addend: 0x0, symName: __RNvXsh_NtCsdGrGZaRBwMb_3syn5parseNvYNtCsaKzlTDPUHDb_11proc_macro25IdentNtNtB7_3ext8IdentExt9parse_anyNtB5_6Parser6parse2Cs71axb73f1AC_14thiserror_impl, symObjAddr: 0x30B0, symBinAddr: 0x4D740, symSize: 0x3F0 }
  - { offset: 0xF8B09, size: 0x8, addend: 0x0, symName: __RNvYNvYNtCsaKzlTDPUHDb_11proc_macro25IdentNtNtCsdGrGZaRBwMb_3syn3ext8IdentExt9parse_anyNtNtBI_5parse6Parser9parse_strCs71axb73f1AC_14thiserror_impl, symObjAddr: 0x3590, symBinAddr: 0x4DC20, symSize: 0x130 }
  - { offset: 0xF8F37, size: 0x8, addend: 0x0, symName: __RINvMs_NtCs71axb73f1AC_14thiserror_impl8genericsNtB5_14InferredBounds6insertNtCsaKzlTDPUHDb_11proc_macro211TokenStreamB1c_EB7_, symObjAddr: 0x280, symBinAddr: 0x4A910, symSize: 0x370 }
  - { offset: 0xF8FEF, size: 0x8, addend: 0x0, symName: __RINvMs_NtCs71axb73f1AC_14thiserror_impl8genericsNtB5_14InferredBounds6insertNtNtCsdGrGZaRBwMb_3syn5token8SelfTypeNtNtB7_4attr5TraitEB7_, symObjAddr: 0x5F0, symBinAddr: 0x4AC80, symSize: 0x340 }
  - { offset: 0xF9569, size: 0x8, addend: 0x0, symName: __RINvMs_NtCs71axb73f1AC_14thiserror_impl8genericsNtB5_14InferredBounds6insertRNtNtCsdGrGZaRBwMb_3syn2ty4TypeNtCsaKzlTDPUHDb_11proc_macro211TokenStreamEB7_, symObjAddr: 0x930, symBinAddr: 0x4AFC0, symSize: 0x360 }
  - { offset: 0xF9621, size: 0x8, addend: 0x0, symName: __RINvMs_NtCs71axb73f1AC_14thiserror_impl8genericsNtB5_14InferredBounds6insertRNtNtCsdGrGZaRBwMb_3syn2ty4TypeNtNtB7_4attr5TraitEB7_, symObjAddr: 0xC90, symBinAddr: 0x4B320, symSize: 0x340 }
  - { offset: 0xF97D8, size: 0x8, addend: 0x0, symName: __RINvMsc_NtNtNtCslJiobkLta79_5alloc11collections5btree3setINtB6_8BTreeSetRNtCsaKzlTDPUHDb_11proc_macro25IdentE8containsB19_ECs71axb73f1AC_14thiserror_impl, symObjAddr: 0xFD0, symBinAddr: 0x4B660, symSize: 0x50 }
  - { offset: 0xF9876, size: 0x8, addend: 0x0, symName: __RINvMse_NtNtNtCslJiobkLta79_5alloc11collections5btree3setINtB6_8BTreeSetRNtCsaKzlTDPUHDb_11proc_macro25IdentE16from_sorted_iterINtNtNtBc_3vec9into_iter8IntoIterB18_EECs71axb73f1AC_14thiserror_impl, symObjAddr: 0x1020, symBinAddr: 0x4B6B0, symSize: 0x80 }
  - { offset: 0xF9CC6, size: 0x8, addend: 0x0, symName: __RNvMNtCs71axb73f1AC_14thiserror_impl8genericsNtB2_13ParamsInScope10intersects, symObjAddr: 0x1BF0, symBinAddr: 0x4C280, symSize: 0x30 }
  - { offset: 0xF9D0B, size: 0x8, addend: 0x0, symName: __RNvMNtCs71axb73f1AC_14thiserror_impl8genericsNtB2_13ParamsInScope3new, symObjAddr: 0x1C20, symBinAddr: 0x4C2B0, symSize: 0x70 }
  - { offset: 0xF9D8C, size: 0x8, addend: 0x0, symName: __RNvMs3_NtNtNtCsieiGu2EXtoJ_4core4iter8adapters8peekableINtB5_8PeekableINtNtB7_3map3MapINtNtNtBb_5slice4iter4IterNtNtCs71axb73f1AC_14thiserror_impl3ast5FieldENCNvNtB1Q_6expand10fields_pat0EE4peekB1Q_, symObjAddr: 0x1C90, symBinAddr: 0x4C320, symSize: 0x60 }
  - { offset: 0xF9EC7, size: 0x8, addend: 0x0, symName: __RNvMs4_NtNtCsieiGu2EXtoJ_4core5slice4iterINtB5_4IterNtCsaKzlTDPUHDb_11proc_macro211TokenStreamE3newCs71axb73f1AC_14thiserror_impl, symObjAddr: 0x1CF0, symBinAddr: 0x4C380, symSize: 0x50 }
  - { offset: 0xFA074, size: 0x8, addend: 0x0, symName: __RNvMs4_NtNtCsieiGu2EXtoJ_4core5slice4iterINtB5_4IterNtNtCs71axb73f1AC_14thiserror_impl3ast5FieldE3newBS_, symObjAddr: 0x1D40, symBinAddr: 0x4C3D0, symSize: 0x50 }
  - { offset: 0xFA221, size: 0x8, addend: 0x0, symName: __RNvMs4_NtNtCsieiGu2EXtoJ_4core5slice4iterINtB5_4IterNtNtCs71axb73f1AC_14thiserror_impl3ast7VariantE3newBS_, symObjAddr: 0x1D90, symBinAddr: 0x4C420, symSize: 0x50 }
  - { offset: 0xFA3E8, size: 0x8, addend: 0x0, symName: __RNvMs4_NtNtCsieiGu2EXtoJ_4core5slice4iterINtB5_4IterTNtCsaKzlTDPUHDb_11proc_macro211TokenStreamNtNtCsdGrGZaRBwMb_3syn5token4PlusEE3newCs71axb73f1AC_14thiserror_impl, symObjAddr: 0x1DE0, symBinAddr: 0x4C470, symSize: 0x50 }
  - { offset: 0xFA567, size: 0x8, addend: 0x0, symName: __RNvMs_NtCs71axb73f1AC_14thiserror_impl8genericsNtB4_14InferredBounds20augment_where_clause, symObjAddr: 0x1E30, symBinAddr: 0x4C4C0, symSize: 0x320 }
  - { offset: 0xFA64F, size: 0x8, addend: 0x0, symName: __RNvMs_NtCs71axb73f1AC_14thiserror_impl8genericsNtB4_14InferredBounds3new, symObjAddr: 0x2150, symBinAddr: 0x4C7E0, symSize: 0x90 }
  - { offset: 0xFA6DA, size: 0x8, addend: 0x0, symName: __RNvMsb_NtNtNtCslJiobkLta79_5alloc11collections5btree3setINtB5_8BTreeSetNtCsaKzlTDPUHDb_11proc_macro25IdentE3newCs71axb73f1AC_14thiserror_impl, symObjAddr: 0x21E0, symBinAddr: 0x4C870, symSize: 0x40 }
  - { offset: 0xFA725, size: 0x8, addend: 0x0, symName: __RNvMsb_NtNtNtCslJiobkLta79_5alloc11collections5btree3setINtB5_8BTreeSetNtNtBb_6string6StringE3newCs71axb73f1AC_14thiserror_impl, symObjAddr: 0x2220, symBinAddr: 0x4C8B0, symSize: 0x40 }
  - { offset: 0xFA770, size: 0x8, addend: 0x0, symName: __RNvMsb_NtNtNtCslJiobkLta79_5alloc11collections5btree3setINtB5_8BTreeSetTjNtNtCs71axb73f1AC_14thiserror_impl4attr5TraitEE3newB1d_, symObjAddr: 0x2260, symBinAddr: 0x4C8F0, symSize: 0x40 }
  - { offset: 0xFA7F4, size: 0x8, addend: 0x0, symName: __RNvMsc_NtNtNtCslJiobkLta79_5alloc11collections5btree3setINtB5_8BTreeSetNtCsaKzlTDPUHDb_11proc_macro25IdentE6insertCs71axb73f1AC_14thiserror_impl, symObjAddr: 0x22A0, symBinAddr: 0x4C930, symSize: 0x40 }
  - { offset: 0xFA8BA, size: 0x8, addend: 0x0, symName: __RNvMsc_NtNtNtCslJiobkLta79_5alloc11collections5btree3setINtB5_8BTreeSetNtNtBb_6string6StringE6insertCs71axb73f1AC_14thiserror_impl, symObjAddr: 0x22E0, symBinAddr: 0x4C970, symSize: 0x40 }
  - { offset: 0xFA980, size: 0x8, addend: 0x0, symName: __RNvMsc_NtNtNtCslJiobkLta79_5alloc11collections5btree3setINtB5_8BTreeSetTjNtNtCs71axb73f1AC_14thiserror_impl4attr5TraitEE6insertB1d_, symObjAddr: 0x2320, symBinAddr: 0x4C9B0, symSize: 0x50 }
  - { offset: 0xFB261, size: 0x8, addend: 0x0, symName: __RNvYINtNtNtNtCsieiGu2EXtoJ_4core4iter8adapters8peekable8PeekableINtNtB7_3map3MapINtNtNtBb_5slice4iter4IterNtNtCs71axb73f1AC_14thiserror_impl3ast5FieldENCNvNtB1K_6expand10fields_pat0EENtNtNtCs9OU1sGv5X54_5quote9___private3ext14RepIteratorExt15quote_into_iterB1K_, symObjAddr: 0x3560, symBinAddr: 0x4DBF0, symSize: 0x30 }
  - { offset: 0xFB638, size: 0x8, addend: 0x0, symName: __RINvMsb_NtNtNtCslJiobkLta79_5alloc11collections5btree8navigateINtB6_13LazyLeafRangeNtNtNtB8_4node6marker5DyingNtCsaKzlTDPUHDb_11proc_macro25IdentNtNtB8_7set_val9SetValZSTE16deallocating_endNtNtBc_5alloc6GlobalECs71axb73f1AC_14thiserror_impl, symObjAddr: 0x0, symBinAddr: 0x4DD50, symSize: 0x90 }
  - { offset: 0xFC38B, size: 0x8, addend: 0x0, symName: __RNCNvMs1_NtCs71axb73f1AC_14thiserror_impl5validNtNtB9_3ast7Variant8validate0B9_, symObjAddr: 0xEF0, symBinAddr: 0x4EC40, symSize: 0x20 }
  - { offset: 0xFC3D4, size: 0x8, addend: 0x0, symName: __RNCNvMs_NtCs71axb73f1AC_14thiserror_impl5validNtNtB8_3ast6Struct8validate0B8_, symObjAddr: 0xF10, symBinAddr: 0x4EC60, symSize: 0x20 }
  - { offset: 0xFC418, size: 0x8, addend: 0x0, symName: __RNCNvNtCs71axb73f1AC_14thiserror_impl5valid28contains_non_static_lifetime0B5_, symObjAddr: 0xF30, symBinAddr: 0x4EC80, symSize: 0x30 }
  - { offset: 0xFC456, size: 0x8, addend: 0x0, symName: __RNvNtCs71axb73f1AC_14thiserror_impl5valid11same_member, symObjAddr: 0x2AE0, symBinAddr: 0x50830, symSize: 0xF0 }
  - { offset: 0xFC4E8, size: 0x8, addend: 0x0, symName: __RNvNtCs71axb73f1AC_14thiserror_impl5valid17check_field_attrs, symObjAddr: 0x2BD0, symBinAddr: 0x50920, symSize: 0x6C0 }
  - { offset: 0xFC670, size: 0x8, addend: 0x0, symName: __RNvNtCs71axb73f1AC_14thiserror_impl5valid21check_non_field_attrs, symObjAddr: 0x3290, symBinAddr: 0x50FE0, symSize: 0x260 }
  - { offset: 0xFC700, size: 0x8, addend: 0x0, symName: __RNvNtCs71axb73f1AC_14thiserror_impl5valid28contains_non_static_lifetime, symObjAddr: 0x34F0, symBinAddr: 0x51240, symSize: 0x2E0 }
  - { offset: 0xFCFEA, size: 0x8, addend: 0x0, symName: __RNCINvMsm_NtNtNtCslJiobkLta79_5alloc11collections5btree8navigateINtNtBa_4node6HandleINtB13_7NodeRefNtNtB13_6marker5DyingNtCsaKzlTDPUHDb_11proc_macro25IdentNtNtBa_7set_val9SetValZSTNtB1B_4LeafENtB1B_4EdgeE27deallocating_next_uncheckedNtNtBe_5alloc6GlobalE0Cs71axb73f1AC_14thiserror_impl, symObjAddr: 0xA60, symBinAddr: 0x4E7B0, symSize: 0x60 }
  - { offset: 0xFD05A, size: 0x8, addend: 0x0, symName: __RNCINvMsm_NtNtNtCslJiobkLta79_5alloc11collections5btree8navigateINtNtBa_4node6HandleINtB13_7NodeRefNtNtB13_6marker5DyingNtNtBe_6string6StringNtNtBa_7set_val9SetValZSTNtB1B_4LeafENtB1B_4EdgeE27deallocating_next_uncheckedNtNtBe_5alloc6GlobalE0Cs71axb73f1AC_14thiserror_impl, symObjAddr: 0xAC0, symBinAddr: 0x4E810, symSize: 0x60 }
  - { offset: 0xFD0CA, size: 0x8, addend: 0x0, symName: __RNCINvMsm_NtNtNtCslJiobkLta79_5alloc11collections5btree8navigateINtNtBa_4node6HandleINtB13_7NodeRefNtNtB13_6marker5DyingNtNtBe_6string6StringTINtNtBa_3set8BTreeSetB1U_EINtNtCsdGrGZaRBwMb_3syn10punctuated10PunctuatedNtCsaKzlTDPUHDb_11proc_macro211TokenStreamNtNtB2L_5token4PlusEENtB1B_4LeafENtB1B_4EdgeE27deallocating_next_uncheckedNtNtBe_5alloc6GlobalE0Cs71axb73f1AC_14thiserror_impl, symObjAddr: 0xB20, symBinAddr: 0x4E870, symSize: 0x60 }
  - { offset: 0xFD13A, size: 0x8, addend: 0x0, symName: __RNCINvMsm_NtNtNtCslJiobkLta79_5alloc11collections5btree8navigateINtNtBa_4node6HandleINtB13_7NodeRefNtNtB13_6marker5DyingRNtCsaKzlTDPUHDb_11proc_macro25IdentNtNtBa_7set_val9SetValZSTNtB1B_4LeafENtB1B_4EdgeE27deallocating_next_uncheckedNtNtBe_5alloc6GlobalE0Cs71axb73f1AC_14thiserror_impl, symObjAddr: 0xB80, symBinAddr: 0x4E8D0, symSize: 0x60 }
  - { offset: 0xFD1AA, size: 0x8, addend: 0x0, symName: __RNCINvMsm_NtNtNtCslJiobkLta79_5alloc11collections5btree8navigateINtNtBa_4node6HandleINtB13_7NodeRefNtNtB13_6marker5DyingTjNtNtCs71axb73f1AC_14thiserror_impl4attr5TraitENtNtBa_7set_val9SetValZSTNtB1B_4LeafENtB1B_4EdgeE27deallocating_next_uncheckedNtNtBe_5alloc6GlobalE0B20_, symObjAddr: 0xBE0, symBinAddr: 0x4E930, symSize: 0x60 }
  - { offset: 0x100437, size: 0x8, addend: 0x0, symName: __RNvNvMNtNtCsieiGu2EXtoJ_4core3ptr9const_ptrPp20offset_from_unsigned18precondition_checkCs71axb73f1AC_14thiserror_impl, symObjAddr: 0x37D0, symBinAddr: 0x51520, symSize: 0xA0 }
  - { offset: 0x103E98, size: 0x8, addend: 0x0, symName: __RNCINvNtNtNtCsieiGu2EXtoJ_4core4iter8adapters3map12map_try_foldRNtNtCsdGrGZaRBwMb_3syn4data7VariantINtNtBa_6result6ResultNtNtCs71axb73f1AC_14thiserror_impl3ast7VariantNtNtB14_5error5ErrorEuINtNtNtBa_3ops12control_flow11ControlFlowIB32_B1V_EENCNvMs0_B1X_NtB1X_4Enum8from_syn0NCINvXB6_INtB6_12GenericShuntINtB4_3MapINtNtB14_10punctuated4IterB10_EB3R_EIB1A_NtNtBa_7convert10InfallibleB2F_EENtNtNtB8_6traits8iterator8Iterator8try_folduNCINvNvB6d_12try_for_each4callB1V_B3G_NcNtB3G_5Break0E0B3G_E0E0B1Z_, symObjAddr: 0xC40, symBinAddr: 0x4E990, symSize: 0xB0 }
  - { offset: 0x103F2A, size: 0x8, addend: 0x0, symName: __RNCINvNtNtNtCsieiGu2EXtoJ_4core4iter8adapters3map12map_try_foldTjRNtNtCsdGrGZaRBwMb_3syn4data5FieldEINtNtBa_6result6ResultNtNtCs71axb73f1AC_14thiserror_impl3ast5FieldNtNtB16_5error5ErrorEuINtNtNtBa_3ops12control_flow11ControlFlowIB31_B1W_EENCNvMs2_B1Y_B1W_17multiple_from_syn0NCINvXB6_INtB6_12GenericShuntINtB4_3MapINtNtB6_9enumerate9EnumerateINtNtB16_10punctuated4IterB12_EEB3Q_EIB1B_NtNtBa_7convert10InfallibleB2E_EENtNtNtB8_6traits8iterator8Iterator8try_folduNCINvNvB6I_12try_for_each4callB1W_B3F_NcNtB3F_5Break0E0B3F_E0E0B20_, symObjAddr: 0xCF0, symBinAddr: 0x4EA40, symSize: 0xC0 }
  - { offset: 0x103FC2, size: 0x8, addend: 0x0, symName: __RINvXs0_NtNtNtCsieiGu2EXtoJ_4core4iter8adapters3mapINtB6_3MapINtNtB8_9enumerate9EnumerateINtNtCsdGrGZaRBwMb_3syn10punctuated4IterNtNtB1u_4data5FieldEENCNvMs2_NtCs71axb73f1AC_14thiserror_impl3astNtB2w_5Field17multiple_from_syn0ENtNtNtBa_6traits8iterator8Iterator8try_folduNCINvXB8_INtB8_12GenericShuntBN_INtNtBc_6result6ResultNtNtBc_7convert10InfallibleNtNtB1u_5error5ErrorEEB3D_8try_folduNCINvNvB3D_12try_for_each4callB36_INtNtNtBc_3ops12control_flow11ControlFlowB36_ENcNtB6M_5Break0E0B6M_E0IB6N_B6M_EEB2y_, symObjAddr: 0x640, symBinAddr: 0x4E390, symSize: 0x50 }
  - { offset: 0x104065, size: 0x8, addend: 0x0, symName: __RINvXs0_NtNtNtCsieiGu2EXtoJ_4core4iter8adapters3mapINtB6_3MapINtNtCsdGrGZaRBwMb_3syn10punctuated4IterNtNtB12_4data7VariantENCNvMs0_NtCs71axb73f1AC_14thiserror_impl3astNtB25_4Enum8from_syn0ENtNtNtBa_6traits8iterator8Iterator8try_folduNCINvXB8_INtB8_12GenericShuntBN_INtNtBc_6result6ResultNtNtBc_7convert10InfallibleNtNtB12_5error5ErrorEEB31_8try_folduNCINvNvB31_12try_for_each4callNtB25_7VariantINtNtNtBc_3ops12control_flow11ControlFlowB66_ENcNtB6k_5Break0E0B6k_E0IB6l_B6k_EEB27_, symObjAddr: 0x690, symBinAddr: 0x4E3E0, symSize: 0x50 }
  - { offset: 0x104108, size: 0x8, addend: 0x0, symName: __RINvXs0_NtNtNtCsieiGu2EXtoJ_4core4iter8adapters3mapINtB6_3MapINtNtNtBc_5slice4iter4IterNtNtCs71axb73f1AC_14thiserror_impl3ast7VariantENCNvNtB1r_6expand9impl_enums1_0ENtNtNtBa_6traits8iterator8Iterator4folduNCINvNvB2E_8for_each4callNtCsaKzlTDPUHDb_11proc_macro211TokenStreamNCINvMsi_NtCslJiobkLta79_5alloc3vecINtB4w_3VecB3H_E14extend_trustedBN_E0E0EB1r_, symObjAddr: 0x6E0, symBinAddr: 0x4E430, symSize: 0x60 }
  - { offset: 0x1041A1, size: 0x8, addend: 0x0, symName: __RINvXs0_NtNtNtCsieiGu2EXtoJ_4core4iter8adapters3mapINtB6_3MapINtNtNtCslJiobkLta79_5alloc3vec9into_iter8IntoIterNtCsaKzlTDPUHDb_11proc_macro29TokenTreeENvNtB1N_3imp19into_compiler_tokenENtNtNtBa_6traits8iterator8Iterator4folduNCINvNvB2X_8for_each4callNtCscKtU6MdFI5n_10proc_macro9TokenTreeNCINvXsg_B42_NtB42_11TokenStreamINtNtB31_7collect12FromIteratorB40_E9from_iterBN_E0E0ECs71axb73f1AC_14thiserror_impl, symObjAddr: 0x740, symBinAddr: 0x4E490, symSize: 0x40 }
  - { offset: 0x104213, size: 0x8, addend: 0x0, symName: __RNvXs0_NtNtNtCsieiGu2EXtoJ_4core4iter8adapters3mapINtB5_3MapINtNtB7_8peekable8PeekableIBN_INtNtNtBb_5slice4iter4IterNtNtCs71axb73f1AC_14thiserror_impl3ast5FieldENCNvNtB1U_6expand10fields_pat0EENCB2B_s_0ENtNtNtB9_6traits8iterator8Iterator4nextB1U_, symObjAddr: 0x4350, symBinAddr: 0x520A0, symSize: 0xA0 }
  - { offset: 0x1042BF, size: 0x8, addend: 0x0, symName: __RNvXs0_NtNtNtCsieiGu2EXtoJ_4core4iter8adapters3mapINtB5_3MapINtNtB7_9enumerate9EnumerateINtNtCsdGrGZaRBwMb_3syn10punctuated4IterNtNtB1t_4data5FieldEENCNvMs2_NtCs71axb73f1AC_14thiserror_impl3astNtB2v_5Field17multiple_from_syn0ENtNtNtB9_6traits8iterator8Iterator9size_hintB2x_, symObjAddr: 0x43F0, symBinAddr: 0x52140, symSize: 0x30 }
  - { offset: 0x104306, size: 0x8, addend: 0x0, symName: __RNvXs0_NtNtNtCsieiGu2EXtoJ_4core4iter8adapters3mapINtB5_3MapINtNtCsdGrGZaRBwMb_3syn10punctuated4IterNtNtB11_4data7VariantENCNvMs0_NtCs71axb73f1AC_14thiserror_impl3astNtB24_4Enum8from_syn0ENtNtNtB9_6traits8iterator8Iterator9size_hintB26_, symObjAddr: 0x4420, symBinAddr: 0x52170, symSize: 0x30 }
  - { offset: 0x10434D, size: 0x8, addend: 0x0, symName: __RNvXs0_NtNtNtCsieiGu2EXtoJ_4core4iter8adapters3mapINtB5_3MapINtNtNtBb_3str4iter5SplitcEINvCsdGrGZaRBwMb_3syn9parse_strNtNtB1q_4expr5IndexEENtNtNtB9_6traits8iterator8Iterator4nextCs71axb73f1AC_14thiserror_impl, symObjAddr: 0x4450, symBinAddr: 0x521A0, symSize: 0xC0 }
  - { offset: 0x1043FA, size: 0x8, addend: 0x0, symName: __RNvXs0_NtNtNtCsieiGu2EXtoJ_4core4iter8adapters3mapINtB5_3MapINtNtNtBb_5slice4iter4IterNtNtCs71axb73f1AC_14thiserror_impl3ast5FieldENCNvNtB1q_6expand10fields_pat0ENtNtNtB9_6traits8iterator8Iterator4nextB1q_, symObjAddr: 0x4510, symBinAddr: 0x52260, symSize: 0x80 }
  - { offset: 0x1044A6, size: 0x8, addend: 0x0, symName: __RNvXs0_NtNtNtCsieiGu2EXtoJ_4core4iter8adapters3mapINtB5_3MapINtNtNtBb_5slice4iter4IterNtNtCs71axb73f1AC_14thiserror_impl3ast7VariantENCNvNtB1q_6expand9impl_enum0ENtNtNtB9_6traits8iterator8Iterator4nextB1q_, symObjAddr: 0x4590, symBinAddr: 0x522E0, symSize: 0xB0 }
  - { offset: 0x104553, size: 0x8, addend: 0x0, symName: __RNvXs0_NtNtNtCsieiGu2EXtoJ_4core4iter8adapters3mapINtB5_3MapINtNtNtBb_5slice4iter4IterNtNtCs71axb73f1AC_14thiserror_impl3ast7VariantENCNvNtB1q_6expand9impl_enums1_0ENtNtNtB9_6traits8iterator8Iterator9size_hintB1q_, symObjAddr: 0x4640, symBinAddr: 0x52390, symSize: 0x30 }
  - { offset: 0x10459A, size: 0x8, addend: 0x0, symName: __RNvXs0_NtNtNtCsieiGu2EXtoJ_4core4iter8adapters3mapINtB5_3MapINtNtNtBb_5slice4iter4IterNtNtCs71axb73f1AC_14thiserror_impl3ast7VariantENCNvNtB1q_6expand9impl_enums_0ENtNtNtB9_6traits8iterator8Iterator4nextB1q_, symObjAddr: 0x4670, symBinAddr: 0x523C0, symSize: 0xB0 }
  - { offset: 0x104647, size: 0x8, addend: 0x0, symName: __RNvXs0_NtNtNtCsieiGu2EXtoJ_4core4iter8adapters3mapINtB5_3MapINtNtNtCslJiobkLta79_5alloc3vec9into_iter8IntoIterNtCsaKzlTDPUHDb_11proc_macro29TokenTreeENvNtB1M_3imp19into_compiler_tokenENtNtNtB9_6traits8iterator8Iterator9size_hintCs71axb73f1AC_14thiserror_impl, symObjAddr: 0x4720, symBinAddr: 0x52470, symSize: 0x30 }
  - { offset: 0x10468E, size: 0x8, addend: 0x0, symName: __RNvXs0_NtNtNtCsieiGu2EXtoJ_4core4iter8adapters3mapINtB5_3MapINtNtNtCslJiobkLta79_5alloc3vec9into_iter8IntoIterRNtCsaKzlTDPUHDb_11proc_macro25IdentENCINvMse_NtNtNtB13_11collections5btree3setINtB2u_8BTreeSetB1K_E16from_sorted_iterBW_E0ENtNtNtB9_6traits8iterator8Iterator4nextCs71axb73f1AC_14thiserror_impl, symObjAddr: 0x4750, symBinAddr: 0x524A0, symSize: 0x80 }
  - { offset: 0x10473A, size: 0x8, addend: 0x0, symName: __RNvXs0_NtNtNtCsieiGu2EXtoJ_4core4iter8adapters3mapINtB5_3MapNtNtCsdGrGZaRBwMb_3syn8generics10TypeParamsNCNvMNtCs71axb73f1AC_14thiserror_impl8genericsNtB1I_13ParamsInScope3new0ENtNtNtB9_6traits8iterator8Iterator4nextB1K_, symObjAddr: 0x47D0, symBinAddr: 0x52520, symSize: 0x80 }
  - { offset: 0x1047E6, size: 0x8, addend: 0x0, symName: __RNvXs0_NtNtNtCsieiGu2EXtoJ_4core4iter8adapters3mapINtB5_3MapNtNtCsdGrGZaRBwMb_3syn8generics10TypeParamsNCNvMNtCs71axb73f1AC_14thiserror_impl8genericsNtB1I_13ParamsInScope3new0ENtNtNtB9_6traits8iterator8Iterator9size_hintB1K_, symObjAddr: 0x4850, symBinAddr: 0x525A0, symSize: 0x30 }
  - { offset: 0x104902, size: 0x8, addend: 0x0, symName: __RNCINvNtNtNtCsieiGu2EXtoJ_4core4iter8adapters3map8map_foldNtCsaKzlTDPUHDb_11proc_macro29TokenTreeNtCscKtU6MdFI5n_10proc_macro9TokenTreeuNvNtBW_3imp19into_compiler_tokenNCINvNvNtNtNtB8_6traits8iterator8Iterator8for_each4callB1x_NCINvXsg_B1z_NtB1z_11TokenStreamINtNtB2R_7collect12FromIteratorB1x_E9from_iterINtB4_3MapINtNtNtCslJiobkLta79_5alloc3vec9into_iter8IntoIterBU_EB2a_EE0E0E0Cs71axb73f1AC_14thiserror_impl, symObjAddr: 0xDB0, symBinAddr: 0x4EB00, symSize: 0xB0 }
  - { offset: 0x104988, size: 0x8, addend: 0x0, symName: __RNCINvNtNtNtCsieiGu2EXtoJ_4core4iter8adapters3map8map_foldRNtNtCs71axb73f1AC_14thiserror_impl3ast7VariantNtCsaKzlTDPUHDb_11proc_macro211TokenStreamuNCNvNtBZ_6expand9impl_enums1_0NCINvNvNtNtNtB8_6traits8iterator8Iterator8for_each4callB1F_NCINvMsi_NtCslJiobkLta79_5alloc3vecINtB3W_3VecB1F_E14extend_trustedINtB4_3MapINtNtNtBa_5slice4iter4IterBV_EB2m_EE0E0E0BZ_, symObjAddr: 0xE60, symBinAddr: 0x4EBB0, symSize: 0x90 }
  - { offset: 0x104DF2, size: 0x8, addend: 0x0, symName: __RINvYINtNtNtNtCsieiGu2EXtoJ_4core4iter8adapters3map3MapINtNtB8_9enumerate9EnumerateINtNtCsdGrGZaRBwMb_3syn10punctuated4IterNtNtB1o_4data5FieldEENCNvMs2_NtCs71axb73f1AC_14thiserror_impl3astNtB2q_5Field17multiple_from_syn0ENtNtNtBa_6traits8iterator8Iterator7collectINtNtBc_6result6ResultINtNtCslJiobkLta79_5alloc3vec3VecB30_ENtNtB1o_5error5ErrorEEB2s_, symObjAddr: 0x780, symBinAddr: 0x4E4D0, symSize: 0x70 }
  - { offset: 0x104E88, size: 0x8, addend: 0x0, symName: __RINvYINtNtNtNtCsieiGu2EXtoJ_4core4iter8adapters3map3MapINtNtCsdGrGZaRBwMb_3syn10punctuated4IterNtNtBW_4data7VariantENCNvMs0_NtCs71axb73f1AC_14thiserror_impl3astNtB1Y_4Enum8from_syn0ENtNtNtBa_6traits8iterator8Iterator7collectINtNtBc_6result6ResultINtNtCslJiobkLta79_5alloc3vec3VecNtB1Y_7VariantENtNtBW_5error5ErrorEEB20_, symObjAddr: 0x7F0, symBinAddr: 0x4E540, symSize: 0x80 }
  - { offset: 0x104F1E, size: 0x8, addend: 0x0, symName: __RINvYINtNtNtNtCsieiGu2EXtoJ_4core4iter8adapters3map3MapINtNtNtBc_5slice4iter4IterNtNtCs71axb73f1AC_14thiserror_impl3ast7VariantENCNvNtB1l_6expand9impl_enums1_0ENtNtNtBa_6traits8iterator8Iterator7collectINtNtCslJiobkLta79_5alloc3vec3VecNtCsaKzlTDPUHDb_11proc_macro211TokenStreamEEB1l_, symObjAddr: 0x870, symBinAddr: 0x4E5C0, symSize: 0x70 }
  - { offset: 0x104FB4, size: 0x8, addend: 0x0, symName: __RINvYINtNtNtNtCsieiGu2EXtoJ_4core4iter8adapters3map3MapINtNtNtBc_5slice4iter4IterNtNtCs71axb73f1AC_14thiserror_impl3ast7VariantENCNvNtB1l_6expand9impl_enums1_0ENtNtNtBa_6traits8iterator8Iterator8for_eachNCINvMsi_NtCslJiobkLta79_5alloc3vecINtB3o_3VecNtCsaKzlTDPUHDb_11proc_macro211TokenStreamE14extend_trustedB3_E0EB1l_, symObjAddr: 0x8E0, symBinAddr: 0x4E630, symSize: 0x30 }
  - { offset: 0x10501F, size: 0x8, addend: 0x0, symName: __RINvYINtNtNtNtCsieiGu2EXtoJ_4core4iter8adapters3map3MapINtNtNtCslJiobkLta79_5alloc3vec9into_iter8IntoIterNtCsaKzlTDPUHDb_11proc_macro29TokenTreeENvNtB1H_3imp19into_compiler_tokenENtNtNtBa_6traits8iterator8Iterator7collectNtCscKtU6MdFI5n_10proc_macro11TokenStreamECs71axb73f1AC_14thiserror_impl, symObjAddr: 0x910, symBinAddr: 0x4E660, symSize: 0x70 }
  - { offset: 0x1050B5, size: 0x8, addend: 0x0, symName: __RINvYINtNtNtNtCsieiGu2EXtoJ_4core4iter8adapters3map3MapINtNtNtCslJiobkLta79_5alloc3vec9into_iter8IntoIterNtCsaKzlTDPUHDb_11proc_macro29TokenTreeENvNtB1H_3imp19into_compiler_tokenENtNtNtBa_6traits8iterator8Iterator8for_eachNCINvXsg_CscKtU6MdFI5n_10proc_macroNtB3H_11TokenStreamINtNtB2V_7collect12FromIteratorNtB3H_9TokenTreeE9from_iterB3_E0ECs71axb73f1AC_14thiserror_impl, symObjAddr: 0x980, symBinAddr: 0x4E6D0, symSize: 0x20 }
  - { offset: 0x105101, size: 0x8, addend: 0x0, symName: __RINvYINtNtNtNtCsieiGu2EXtoJ_4core4iter8adapters3map3MapNtNtCsdGrGZaRBwMb_3syn8generics10TypeParamsNCNvMNtCs71axb73f1AC_14thiserror_impl8genericsNtB1D_13ParamsInScope3new0ENtNtNtBa_6traits8iterator8Iterator7collectINtNtCslJiobkLta79_5alloc3vec3VecRNtCsaKzlTDPUHDb_11proc_macro25IdentEEB1F_, symObjAddr: 0x9A0, symBinAddr: 0x4E6F0, symSize: 0x60 }
  - { offset: 0x105196, size: 0x8, addend: 0x0, symName: __RINvYINtNtNtNtCsieiGu2EXtoJ_4core4iter8adapters3map3MapNtNtCsdGrGZaRBwMb_3syn8generics10TypeParamsNCNvMNtCs71axb73f1AC_14thiserror_impl8genericsNtB1D_13ParamsInScope3new0ENtNtNtBa_6traits8iterator8Iterator7collectINtNtNtNtCslJiobkLta79_5alloc11collections5btree3set8BTreeSetRNtCsaKzlTDPUHDb_11proc_macro25IdentEEB1F_, symObjAddr: 0xA00, symBinAddr: 0x4E750, symSize: 0x60 }
  - { offset: 0x10522B, size: 0x8, addend: 0x0, symName: __RNvYINtNtNtNtCsieiGu2EXtoJ_4core4iter8adapters3map3MapINtNtNtBb_5slice4iter4IterNtNtCs71axb73f1AC_14thiserror_impl3ast5FieldENCNvNtB1k_6expand10fields_pat0ENtNtNtB9_6traits8iterator8Iterator8peekableB1k_, symObjAddr: 0x48C0, symBinAddr: 0x52610, symSize: 0x30 }
  - { offset: 0x105277, size: 0x8, addend: 0x0, symName: __RNvYINtNtNtNtCsieiGu2EXtoJ_4core4iter8adapters3map3MapINtNtNtCslJiobkLta79_5alloc3vec9into_iter8IntoIterRNtCsaKzlTDPUHDb_11proc_macro25IdentENCINvMse_NtNtNtBX_11collections5btree3setINtB2o_8BTreeSetB1E_E16from_sorted_iterBQ_E0ENtNtNtB9_6traits8iterator8Iterator8peekableCs71axb73f1AC_14thiserror_impl, symObjAddr: 0x4950, symBinAddr: 0x526A0, symSize: 0x40 }
  - { offset: 0x1052CF, size: 0x8, addend: 0x0, symName: __RNvXNtNtNtCsieiGu2EXtoJ_4core4iter6traits7collectINtNtNtB6_8adapters3map3MapINtNtBQ_9enumerate9EnumerateINtNtCsdGrGZaRBwMb_3syn10punctuated4IterNtNtB1J_4data5FieldEENCNvMs2_NtCs71axb73f1AC_14thiserror_impl3astNtB2L_5Field17multiple_from_syn0ENtB2_12IntoIterator9into_iterB2N_, symObjAddr: 0x4180, symBinAddr: 0x51ED0, symSize: 0x30 }
  - { offset: 0x105307, size: 0x8, addend: 0x0, symName: __RNvXNtNtNtCsieiGu2EXtoJ_4core4iter6traits7collectINtNtNtB6_8adapters3map3MapINtNtCsdGrGZaRBwMb_3syn10punctuated4IterNtNtB1h_4data7VariantENCNvMs0_NtCs71axb73f1AC_14thiserror_impl3astNtB2k_4Enum8from_syn0ENtB2_12IntoIterator9into_iterB2m_, symObjAddr: 0x41B0, symBinAddr: 0x51F00, symSize: 0x30 }
  - { offset: 0x10533F, size: 0x8, addend: 0x0, symName: __RNvXNtNtNtCsieiGu2EXtoJ_4core4iter6traits7collectINtNtNtB6_8adapters3map3MapINtNtNtB8_5slice4iter4IterNtNtCs71axb73f1AC_14thiserror_impl3ast7VariantENCNvNtB1G_6expand9impl_enums1_0ENtB2_12IntoIterator9into_iterB1G_, symObjAddr: 0x41E0, symBinAddr: 0x51F30, symSize: 0x30 }
  - { offset: 0x105376, size: 0x8, addend: 0x0, symName: __RNvXNtNtNtCsieiGu2EXtoJ_4core4iter6traits7collectINtNtNtB6_8adapters3map3MapINtNtNtCslJiobkLta79_5alloc3vec9into_iter8IntoIterNtCsaKzlTDPUHDb_11proc_macro29TokenTreeENvNtB22_3imp19into_compiler_tokenENtB2_12IntoIterator9into_iterCs71axb73f1AC_14thiserror_impl, symObjAddr: 0x4210, symBinAddr: 0x51F60, symSize: 0x30 }
  - { offset: 0x1053AD, size: 0x8, addend: 0x0, symName: __RNvXNtNtNtCsieiGu2EXtoJ_4core4iter6traits7collectINtNtNtB6_8adapters3map3MapINtNtNtCslJiobkLta79_5alloc3vec9into_iter8IntoIterRNtCsaKzlTDPUHDb_11proc_macro25IdentENCINvMse_NtNtNtB1j_11collections5btree3setINtB2K_8BTreeSetB20_E16from_sorted_iterB1c_E0ENtB2_12IntoIterator9into_iterCs71axb73f1AC_14thiserror_impl, symObjAddr: 0x4240, symBinAddr: 0x51F90, symSize: 0x30 }
  - { offset: 0x1053E4, size: 0x8, addend: 0x0, symName: __RNvXNtNtNtCsieiGu2EXtoJ_4core4iter6traits7collectINtNtNtB6_8adapters3map3MapNtNtCsdGrGZaRBwMb_3syn8generics10TypeParamsNCNvMNtCs71axb73f1AC_14thiserror_impl8genericsNtB1Y_13ParamsInScope3new0ENtB2_12IntoIterator9into_iterB20_, symObjAddr: 0x4270, symBinAddr: 0x51FC0, symSize: 0x20 }
  - { offset: 0x106166, size: 0x8, addend: 0x0, symName: __RNvMNtCsieiGu2EXtoJ_4core3stre12char_indicesCs71axb73f1AC_14thiserror_impl, symObjAddr: 0xF60, symBinAddr: 0x4ECB0, symSize: 0x60 }
  - { offset: 0x106194, size: 0x8, addend: 0x0, symName: __RNvMNtCsieiGu2EXtoJ_4core3stre3lenCs71axb73f1AC_14thiserror_impl, symObjAddr: 0xFC0, symBinAddr: 0x4ED10, symSize: 0x20 }
  - { offset: 0x1061C0, size: 0x8, addend: 0x0, symName: __RNvMNtCsieiGu2EXtoJ_4core3stre5charsCs71axb73f1AC_14thiserror_impl, symObjAddr: 0xFE0, symBinAddr: 0x4ED30, symSize: 0x20 }
  - { offset: 0x106425, size: 0x8, addend: 0x0, symName: __RNvNvNtNtCsieiGu2EXtoJ_4core5slice3raw14from_raw_parts18precondition_checkCs71axb73f1AC_14thiserror_impl, symObjAddr: 0x3960, symBinAddr: 0x516B0, symSize: 0x260 }
  - { offset: 0x1065F3, size: 0x8, addend: 0x0, symName: __RNvNvNtNtCsieiGu2EXtoJ_4core5slice3raw18from_raw_parts_mut18precondition_checkCs71axb73f1AC_14thiserror_impl, symObjAddr: 0x3BC0, symBinAddr: 0x51910, symSize: 0x260 }
  - { offset: 0x1067CC, size: 0x8, addend: 0x0, symName: __RNvNvXs0_NtNtCsieiGu2EXtoJ_4core5slice5indexjINtB7_10SliceIndexSpE13get_unchecked18precondition_checkCs71axb73f1AC_14thiserror_impl, symObjAddr: 0x3E20, symBinAddr: 0x51B70, symSize: 0xA0 }
  - { offset: 0x10683A, size: 0x8, addend: 0x0, symName: __RNvNvXs0_NtNtCsieiGu2EXtoJ_4core5slice5indexjINtB7_10SliceIndexSpE17get_unchecked_mut18precondition_checkCs71axb73f1AC_14thiserror_impl, symObjAddr: 0x3EC0, symBinAddr: 0x51C10, symSize: 0xA0 }
  - { offset: 0x1068A3, size: 0x8, addend: 0x0, symName: __RNvXs0_NtNtCsieiGu2EXtoJ_4core5slice5indexjINtB5_10SliceIndexSNtNtCs71axb73f1AC_14thiserror_impl3ast5FieldE5indexB12_, symObjAddr: 0x4290, symBinAddr: 0x51FE0, symSize: 0x60 }
  - { offset: 0x1068E9, size: 0x8, addend: 0x0, symName: __RNvXs0_NtNtCsieiGu2EXtoJ_4core5slice5indexjINtB5_10SliceIndexSTNtNtCsdGrGZaRBwMb_3syn4path15GenericArgumentNtNtB13_5token5CommaEE5indexCs71axb73f1AC_14thiserror_impl, symObjAddr: 0x42F0, symBinAddr: 0x52040, symSize: 0x60 }
  - { offset: 0x10693A, size: 0x8, addend: 0x0, symName: __RNvNvXs1_NtNtCsieiGu2EXtoJ_4core5slice5indexNtNtNtBb_3ops11index_range10IndexRangeINtB7_10SliceIndexSpE17get_unchecked_mut18precondition_checkCs71axb73f1AC_14thiserror_impl, symObjAddr: 0x3F60, symBinAddr: 0x51CB0, symSize: 0xA0 }
  - { offset: 0x1069AE, size: 0x8, addend: 0x0, symName: __RNvNvXs2_NtNtCsieiGu2EXtoJ_4core5slice5indexINtNtNtBb_3ops5range5RangejEINtB7_10SliceIndexSpE13get_unchecked18precondition_checkCs71axb73f1AC_14thiserror_impl, symObjAddr: 0x4000, symBinAddr: 0x51D50, symSize: 0xC0 }
  - { offset: 0x106A2A, size: 0x8, addend: 0x0, symName: __RNvNvXs2_NtNtCsieiGu2EXtoJ_4core5slice5indexINtNtNtBb_3ops5range5RangejEINtB7_10SliceIndexSpE17get_unchecked_mut18precondition_checkCs71axb73f1AC_14thiserror_impl, symObjAddr: 0x40C0, symBinAddr: 0x51E10, symSize: 0xC0 }
  - { offset: 0x106B26, size: 0x8, addend: 0x0, symName: __RNvNvNtNtCsieiGu2EXtoJ_4core4char7convert18from_u32_unchecked18precondition_checkCs71axb73f1AC_14thiserror_impl, symObjAddr: 0x3870, symBinAddr: 0x515C0, symSize: 0xF0 }
  - { offset: 0x106D67, size: 0x8, addend: 0x0, symName: __RNvXs4_NtNtCsieiGu2EXtoJ_4core5array4iterINtB5_8IntoIterjKj2_ENtNtNtB9_3ops4drop4Drop4dropCs71axb73f1AC_14thiserror_impl, symObjAddr: 0x4880, symBinAddr: 0x525D0, symSize: 0x10 }
  - { offset: 0x106EE8, size: 0x8, addend: 0x0, symName: __RINvMsb_NtNtNtCslJiobkLta79_5alloc11collections5btree8navigateINtB6_13LazyLeafRangeNtNtNtB8_4node6marker5DyingNtCsaKzlTDPUHDb_11proc_macro25IdentNtNtB8_7set_val9SetValZSTE16deallocating_endNtNtBc_5alloc6GlobalECs71axb73f1AC_14thiserror_impl, symObjAddr: 0x0, symBinAddr: 0x4DD50, symSize: 0x90 }
  - { offset: 0x107003, size: 0x8, addend: 0x0, symName: __RINvMsb_NtNtNtCslJiobkLta79_5alloc11collections5btree8navigateINtB6_13LazyLeafRangeNtNtNtB8_4node6marker5DyingNtCsaKzlTDPUHDb_11proc_macro25IdentNtNtB8_7set_val9SetValZSTE27deallocating_next_uncheckedNtNtBc_5alloc6GlobalECs71axb73f1AC_14thiserror_impl, symObjAddr: 0x90, symBinAddr: 0x4DDE0, symSize: 0xB0 }
  - { offset: 0x1070F3, size: 0x8, addend: 0x0, symName: __RINvMsb_NtNtNtCslJiobkLta79_5alloc11collections5btree8navigateINtB6_13LazyLeafRangeNtNtNtB8_4node6marker5DyingNtNtBc_6string6StringNtNtB8_7set_val9SetValZSTE16deallocating_endNtNtBc_5alloc6GlobalECs71axb73f1AC_14thiserror_impl, symObjAddr: 0x140, symBinAddr: 0x4DE90, symSize: 0x90 }
  - { offset: 0x1071C5, size: 0x8, addend: 0x0, symName: __RINvMsb_NtNtNtCslJiobkLta79_5alloc11collections5btree8navigateINtB6_13LazyLeafRangeNtNtNtB8_4node6marker5DyingNtNtBc_6string6StringNtNtB8_7set_val9SetValZSTE27deallocating_next_uncheckedNtNtBc_5alloc6GlobalECs71axb73f1AC_14thiserror_impl, symObjAddr: 0x1D0, symBinAddr: 0x4DF20, symSize: 0xB0 }
  - { offset: 0x10C145, size: 0x8, addend: 0x0, symName: __RINvMsb_NtNtNtCslJiobkLta79_5alloc11collections5btree8navigateINtB6_13LazyLeafRangeNtNtNtB8_4node6marker5DyingNtNtBc_6string6StringTINtNtB8_3set8BTreeSetB1K_EINtNtCsdGrGZaRBwMb_3syn10punctuated10PunctuatedNtCsaKzlTDPUHDb_11proc_macro211TokenStreamNtNtB2B_5token4PlusEEE16deallocating_endNtNtBc_5alloc6GlobalECs71axb73f1AC_14thiserror_impl, symObjAddr: 0x280, symBinAddr: 0x4DFD0, symSize: 0x90 }
  - { offset: 0x10C217, size: 0x8, addend: 0x0, symName: __RINvMsb_NtNtNtCslJiobkLta79_5alloc11collections5btree8navigateINtB6_13LazyLeafRangeNtNtNtB8_4node6marker5DyingNtNtBc_6string6StringTINtNtB8_3set8BTreeSetB1K_EINtNtCsdGrGZaRBwMb_3syn10punctuated10PunctuatedNtCsaKzlTDPUHDb_11proc_macro211TokenStreamNtNtB2B_5token4PlusEEE27deallocating_next_uncheckedNtNtBc_5alloc6GlobalECs71axb73f1AC_14thiserror_impl, symObjAddr: 0x310, symBinAddr: 0x4E060, symSize: 0xB0 }
  - { offset: 0x10C307, size: 0x8, addend: 0x0, symName: __RINvMsb_NtNtNtCslJiobkLta79_5alloc11collections5btree8navigateINtB6_13LazyLeafRangeNtNtNtB8_4node6marker5DyingRNtCsaKzlTDPUHDb_11proc_macro25IdentNtNtB8_7set_val9SetValZSTE16deallocating_endNtNtBc_5alloc6GlobalECs71axb73f1AC_14thiserror_impl, symObjAddr: 0x3C0, symBinAddr: 0x4E110, symSize: 0x90 }
  - { offset: 0x10C3D9, size: 0x8, addend: 0x0, symName: __RINvMsb_NtNtNtCslJiobkLta79_5alloc11collections5btree8navigateINtB6_13LazyLeafRangeNtNtNtB8_4node6marker5DyingRNtCsaKzlTDPUHDb_11proc_macro25IdentNtNtB8_7set_val9SetValZSTE27deallocating_next_uncheckedNtNtBc_5alloc6GlobalECs71axb73f1AC_14thiserror_impl, symObjAddr: 0x450, symBinAddr: 0x4E1A0, symSize: 0xB0 }
  - { offset: 0x10C4DA, size: 0x8, addend: 0x0, symName: __RINvMsb_NtNtNtCslJiobkLta79_5alloc11collections5btree8navigateINtB6_13LazyLeafRangeNtNtNtB8_4node6marker5DyingTjNtNtCs71axb73f1AC_14thiserror_impl4attr5TraitENtNtB8_7set_val9SetValZSTE16deallocating_endNtNtBc_5alloc6GlobalEB1Q_, symObjAddr: 0x500, symBinAddr: 0x4E250, symSize: 0x90 }
  - { offset: 0x10C5AC, size: 0x8, addend: 0x0, symName: __RINvMsb_NtNtNtCslJiobkLta79_5alloc11collections5btree8navigateINtB6_13LazyLeafRangeNtNtNtB8_4node6marker5DyingTjNtNtCs71axb73f1AC_14thiserror_impl4attr5TraitENtNtB8_7set_val9SetValZSTE27deallocating_next_uncheckedNtNtBc_5alloc6GlobalEB1Q_, symObjAddr: 0x590, symBinAddr: 0x4E2E0, symSize: 0xB0 }
  - { offset: 0x10D211, size: 0x8, addend: 0x0, symName: __RNvMsb_NtNtNtCslJiobkLta79_5alloc11collections5btree8navigateINtB5_13LazyLeafRangeNtNtNtB7_4node6marker5DyingNtCsaKzlTDPUHDb_11proc_macro25IdentNtNtB7_7set_val9SetValZSTE10take_frontCs71axb73f1AC_14thiserror_impl, symObjAddr: 0x1000, symBinAddr: 0x4ED50, symSize: 0x2E0 }
  - { offset: 0x10D58C, size: 0x8, addend: 0x0, symName: __RNvMsb_NtNtNtCslJiobkLta79_5alloc11collections5btree8navigateINtB5_13LazyLeafRangeNtNtNtB7_4node6marker5DyingNtNtBb_6string6StringNtNtB7_7set_val9SetValZSTE10take_frontCs71axb73f1AC_14thiserror_impl, symObjAddr: 0x12E0, symBinAddr: 0x4F030, symSize: 0x2E0 }
  - { offset: 0x10D907, size: 0x8, addend: 0x0, symName: __RNvMsb_NtNtNtCslJiobkLta79_5alloc11collections5btree8navigateINtB5_13LazyLeafRangeNtNtNtB7_4node6marker5DyingNtNtBb_6string6StringTINtNtB7_3set8BTreeSetB1J_EINtNtCsdGrGZaRBwMb_3syn10punctuated10PunctuatedNtCsaKzlTDPUHDb_11proc_macro211TokenStreamNtNtB2A_5token4PlusEEE10take_frontCs71axb73f1AC_14thiserror_impl, symObjAddr: 0x15C0, symBinAddr: 0x4F310, symSize: 0x2E0 }
  - { offset: 0x10DC82, size: 0x8, addend: 0x0, symName: __RNvMsb_NtNtNtCslJiobkLta79_5alloc11collections5btree8navigateINtB5_13LazyLeafRangeNtNtNtB7_4node6marker5DyingRNtCsaKzlTDPUHDb_11proc_macro25IdentNtNtB7_7set_val9SetValZSTE10take_frontCs71axb73f1AC_14thiserror_impl, symObjAddr: 0x18A0, symBinAddr: 0x4F5F0, symSize: 0x2E0 }
  - { offset: 0x10DFFD, size: 0x8, addend: 0x0, symName: __RNvMsb_NtNtNtCslJiobkLta79_5alloc11collections5btree8navigateINtB5_13LazyLeafRangeNtNtNtB7_4node6marker5DyingTjNtNtCs71axb73f1AC_14thiserror_impl4attr5TraitENtNtB7_7set_val9SetValZSTE10take_frontB1P_, symObjAddr: 0x1B80, symBinAddr: 0x4F8D0, symSize: 0x2E0 }
  - { offset: 0x10E35C, size: 0x8, addend: 0x0, symName: __RNvMsc_NtNtNtCslJiobkLta79_5alloc11collections5btree8navigateINtB5_13LazyLeafRangeNtNtNtB7_4node6marker5DyingNtCsaKzlTDPUHDb_11proc_macro25IdentNtNtB7_7set_val9SetValZSTE10init_frontCs71axb73f1AC_14thiserror_impl, symObjAddr: 0x1E60, symBinAddr: 0x4FBB0, symSize: 0x280 }
  - { offset: 0x10E648, size: 0x8, addend: 0x0, symName: __RNvMsc_NtNtNtCslJiobkLta79_5alloc11collections5btree8navigateINtB5_13LazyLeafRangeNtNtNtB7_4node6marker5DyingNtNtBb_6string6StringNtNtB7_7set_val9SetValZSTE10init_frontCs71axb73f1AC_14thiserror_impl, symObjAddr: 0x20E0, symBinAddr: 0x4FE30, symSize: 0x280 }
  - { offset: 0x10E934, size: 0x8, addend: 0x0, symName: __RNvMsc_NtNtNtCslJiobkLta79_5alloc11collections5btree8navigateINtB5_13LazyLeafRangeNtNtNtB7_4node6marker5DyingNtNtBb_6string6StringTINtNtB7_3set8BTreeSetB1J_EINtNtCsdGrGZaRBwMb_3syn10punctuated10PunctuatedNtCsaKzlTDPUHDb_11proc_macro211TokenStreamNtNtB2A_5token4PlusEEE10init_frontCs71axb73f1AC_14thiserror_impl, symObjAddr: 0x2360, symBinAddr: 0x500B0, symSize: 0x280 }
  - { offset: 0x10EC20, size: 0x8, addend: 0x0, symName: __RNvMsc_NtNtNtCslJiobkLta79_5alloc11collections5btree8navigateINtB5_13LazyLeafRangeNtNtNtB7_4node6marker5DyingRNtCsaKzlTDPUHDb_11proc_macro25IdentNtNtB7_7set_val9SetValZSTE10init_frontCs71axb73f1AC_14thiserror_impl, symObjAddr: 0x25E0, symBinAddr: 0x50330, symSize: 0x280 }
  - { offset: 0x10EF0C, size: 0x8, addend: 0x0, symName: __RNvMsc_NtNtNtCslJiobkLta79_5alloc11collections5btree8navigateINtB5_13LazyLeafRangeNtNtNtB7_4node6marker5DyingTjNtNtCs71axb73f1AC_14thiserror_impl4attr5TraitENtNtB7_7set_val9SetValZSTE10init_frontB1P_, symObjAddr: 0x2860, symBinAddr: 0x505B0, symSize: 0x280 }
  - { offset: 0x10F4EC, size: 0x8, addend: 0x0, symName: __RNvYINtNtNtNtCsieiGu2EXtoJ_4core4iter8adapters3map3MapINtNtB7_8peekable8PeekableIB3_INtNtNtBb_5slice4iter4IterNtNtCs71axb73f1AC_14thiserror_impl3ast5FieldENCNvNtB1O_6expand10fields_pat0EENCB2v_s_0ENtNtNtCs9OU1sGv5X54_5quote9___private3ext14RepIteratorExt15quote_into_iterB1O_, symObjAddr: 0x4890, symBinAddr: 0x525E0, symSize: 0x30 }
  - { offset: 0x10F521, size: 0x8, addend: 0x0, symName: __RNvYINtNtNtNtCsieiGu2EXtoJ_4core4iter8adapters3map3MapINtNtNtBb_5slice4iter4IterNtNtCs71axb73f1AC_14thiserror_impl3ast7VariantENCNvNtB1k_6expand9impl_enum0ENtNtNtCs9OU1sGv5X54_5quote9___private3ext14RepIteratorExt15quote_into_iterB1k_, symObjAddr: 0x48F0, symBinAddr: 0x52640, symSize: 0x30 }
  - { offset: 0x10F556, size: 0x8, addend: 0x0, symName: __RNvYINtNtNtNtCsieiGu2EXtoJ_4core4iter8adapters3map3MapINtNtNtBb_5slice4iter4IterNtNtCs71axb73f1AC_14thiserror_impl3ast7VariantENCNvNtB1k_6expand9impl_enums_0ENtNtNtCs9OU1sGv5X54_5quote9___private3ext14RepIteratorExt15quote_into_iterB1k_, symObjAddr: 0x4920, symBinAddr: 0x52670, symSize: 0x30 }
  - { offset: 0x10F99A, size: 0x8, addend: 0x0, symName: __RINvMNtCsdGrGZaRBwMb_3syn4attrNtB3_9Attribute15parse_args_withNCNvNtCs71axb73f1AC_14thiserror_impl4attr21parse_error_attribute0EB14_, symObjAddr: 0x0, symBinAddr: 0x526E0, symSize: 0x480 }
  - { offset: 0x1104A6, size: 0x8, addend: 0x0, symName: __RNvXs0_NtCsdGrGZaRBwMb_3syn5tokenNtNvNtCs71axb73f1AC_14thiserror_impl4attr21parse_error_attribute11transparentNtB5_5Token4peekBB_, symObjAddr: 0x6220, symBinAddr: 0x588E0, symSize: 0x30 }
  - { offset: 0x1104DB, size: 0x8, addend: 0x0, symName: __RNvXs0_NtCsdGrGZaRBwMb_3syn5tokenNtNvNtCs71axb73f1AC_14thiserror_impl4attr21parse_error_attribute11transparentNtB5_5Token7displayBB_, symObjAddr: 0x6250, symBinAddr: 0x58910, symSize: 0x20 }
  - { offset: 0x11474B, size: 0x8, addend: 0x0, symName: __RINvNtCsdGrGZaRBwMb_3syn11parse_quote5parseNtNtB4_8generics14WherePredicateECs71axb73f1AC_14thiserror_impl, symObjAddr: 0x590, symBinAddr: 0x52C70, symSize: 0xE0 }
  - { offset: 0x1147B6, size: 0x8, addend: 0x0, symName: __RNvXsh_NtCsdGrGZaRBwMb_3syn5parseNCNvNtCs71axb73f1AC_14thiserror_impl4attr21parse_error_attribute0NtB5_6Parser14___parse_scopedBB_, symObjAddr: 0x6890, symBinAddr: 0x58F50, symSize: 0x430 }
  - { offset: 0x114901, size: 0x8, addend: 0x0, symName: __RNvXsh_NtCsdGrGZaRBwMb_3syn5parseNvYNtNtB7_8generics14WherePredicateNtNtB7_11parse_quote10ParseQuote5parseNtB5_6Parser6parse2Cs71axb73f1AC_14thiserror_impl, symObjAddr: 0x6CC0, symBinAddr: 0x59380, symSize: 0x400 }
  - { offset: 0x115C6C, size: 0x8, addend: 0x0, symName: __RNvXs7_NtNtNtCslJiobkLta79_5alloc11collections5btree7set_valNtB5_9SetValZSTNtNtCsieiGu2EXtoJ_4core5clone5Clone5cloneCs71axb73f1AC_14thiserror_impl, symObjAddr: 0x6420, symBinAddr: 0x58AE0, symSize: 0x10 }
  - { offset: 0x11939D, size: 0x8, addend: 0x0, symName: __RNvNvNtCsieiGu2EXtoJ_4core4hint16assert_unchecked18precondition_checkCs71axb73f1AC_14thiserror_impl, symObjAddr: 0x5BE0, symBinAddr: 0x582C0, symSize: 0xA0 }
  - { offset: 0x1193FD, size: 0x8, addend: 0x0, symName: __RNvNvNtCsieiGu2EXtoJ_4core4hint21unreachable_unchecked18precondition_checkCs71axb73f1AC_14thiserror_impl, symObjAddr: 0x5C80, symBinAddr: 0x58360, symSize: 0x80 }
  - { offset: 0x119C8D, size: 0x8, addend: 0x0, symName: __RINvYINtNtNtCsieiGu2EXtoJ_4core3str4iter5SplitcENtNtNtNtBa_4iter6traits8iterator8Iterator3mapINtNtBa_6result6ResultNtNtCsdGrGZaRBwMb_3syn4expr5IndexNtNtB1T_5error5ErrorEINvB1T_9parse_strB1P_EECs71axb73f1AC_14thiserror_impl, symObjAddr: 0x710, symBinAddr: 0x52DF0, symSize: 0x30 }
  - { offset: 0x119CFB, size: 0x8, addend: 0x0, symName: __RINvYNtNtCsaKzlTDPUHDb_11proc_macro212token_stream8IntoIterNtNtNtNtCsieiGu2EXtoJ_4core4iter6traits8iterator8Iterator4folduNCINvNvBV_8for_each4callNtB7_9TokenTreeNCINvXsa_NtB7_8fallbackNtB2I_11TokenStreamINtNtBZ_7collect6ExtendB2k_E6extendNtB7_11TokenStreamE0E0ECs71axb73f1AC_14thiserror_impl, symObjAddr: 0x740, symBinAddr: 0x52E20, symSize: 0x100 }
  - { offset: 0x119D8D, size: 0x8, addend: 0x0, symName: __RINvYNtNtCsaKzlTDPUHDb_11proc_macro212token_stream8IntoIterNtNtNtNtCsieiGu2EXtoJ_4core4iter6traits8iterator8Iterator8for_eachNCINvXsa_NtB7_8fallbackNtB28_11TokenStreamINtNtBZ_7collect6ExtendNtB7_9TokenTreeE6extendNtB7_11TokenStreamE0ECs71axb73f1AC_14thiserror_impl, symObjAddr: 0x840, symBinAddr: 0x52F20, symSize: 0x20 }
  - { offset: 0x119EBC, size: 0x8, addend: 0x0, symName: __RNvXNtNtCsieiGu2EXtoJ_4core3str4iterNtB2_5CharsNtNtNtNtB6_4iter6traits8iterator8Iterator4nextCs71axb73f1AC_14thiserror_impl, symObjAddr: 0x6080, symBinAddr: 0x58760, symSize: 0x60 }
  - { offset: 0x119FA2, size: 0x8, addend: 0x0, symName: __RNvXs0_NtNtCsieiGu2EXtoJ_4core3str4iterNtB5_5CharsNtNtNtNtB9_4iter6traits12double_ended19DoubleEndedIterator9next_backCs71axb73f1AC_14thiserror_impl, symObjAddr: 0x6270, symBinAddr: 0x58930, symSize: 0x60 }
  - { offset: 0x11A058, size: 0x8, addend: 0x0, symName: __RNvXs3_NtNtCsieiGu2EXtoJ_4core3str4iterNtB5_11CharIndicesNtNtNtNtB9_4iter6traits8iterator8Iterator4nextCs71axb73f1AC_14thiserror_impl, symObjAddr: 0x6300, symBinAddr: 0x589C0, symSize: 0x110 }
  - { offset: 0x11A442, size: 0x8, addend: 0x0, symName: __RNvXNtCsieiGu2EXtoJ_4core6borrowTjNtNtCs71axb73f1AC_14thiserror_impl4attr5TraitEINtB2_6BorrowBu_E6borrowBA_, symObjAddr: 0x6070, symBinAddr: 0x58750, symSize: 0x10 }
  - { offset: 0x11A654, size: 0x8, addend: 0x0, symName: __RNvXse_NtCsieiGu2EXtoJ_4core5tupleTjNtNtCs71axb73f1AC_14thiserror_impl4attr5TraitENtNtB7_3cmp3Ord3cmpBC_, symObjAddr: 0x6840, symBinAddr: 0x58F00, symSize: 0x50 }
  - { offset: 0x11A6C9, size: 0x8, addend: 0x0, symName: __RNvYNtNtCs71axb73f1AC_14thiserror_impl4attr7DisplayNtNtCsieiGu2EXtoJ_4core5clone5Clone10clone_fromB6_, symObjAddr: 0x71E0, symBinAddr: 0x598A0, symSize: 0x70 }
  - { offset: 0x11A75F, size: 0x8, addend: 0x0, symName: __RINvNvNtCsHUR1vrdMJt_3std9panicking12catch_unwind7do_callINtNtNtCsieiGu2EXtoJ_4core5panic11unwind_safe16AssertUnwindSafeNCINvNtNtCscKtU6MdFI5n_10proc_macro6bridge6client10run_clientNtB1Z_11TokenStreamINtNtB10_6option6OptionB2T_ENCNCINvMs6_B1Z_INtB1Z_6ClientNtB23_11TokenStreamB47_E7expand1NvCs71axb73f1AC_14thiserror_impl12derive_errorE00E0EuEB4F_, symObjAddr: 0x670, symBinAddr: 0x52D50, symSize: 0x40 }
  - { offset: 0x11A828, size: 0x8, addend: 0x0, symName: __RINvNvNtCsHUR1vrdMJt_3std9panicking12catch_unwind8do_catchINtNtNtCsieiGu2EXtoJ_4core5panic11unwind_safe16AssertUnwindSafeNCINvNtNtCscKtU6MdFI5n_10proc_macro6bridge6client10run_clientNtB20_11TokenStreamINtNtB11_6option6OptionB2U_ENCNCINvMs6_B20_INtB20_6ClientNtB24_11TokenStreamB48_E7expand1NvCs71axb73f1AC_14thiserror_impl12derive_errorE00E0EuEB4G_, symObjAddr: 0x6B0, symBinAddr: 0x52D90, symSize: 0x60 }
  - { offset: 0x11A9FF, size: 0x8, addend: 0x0, symName: __RNCNvNtCs71axb73f1AC_14thiserror_impl4attr21parse_error_attribute0B5_, symObjAddr: 0x860, symBinAddr: 0x52F40, symSize: 0x9C0 }
  - { offset: 0x11AB86, size: 0x8, addend: 0x0, symName: __RNCNvXs0_NvNvNtCs71axb73f1AC_14thiserror_impl4attr21parse_error_attribute1__NtB9_11transparentNtNtCsdGrGZaRBwMb_3syn5parse5Parse5parse0Bd_, symObjAddr: 0x1220, symBinAddr: 0x53900, symSize: 0x240 }
  - { offset: 0x11ABEB, size: 0x8, addend: 0x0, symName: __RNvXs0_NvNvNtCs71axb73f1AC_14thiserror_impl4attr21parse_error_attribute1__NtB7_11transparentNtNtCsdGrGZaRBwMb_3syn5parse5Parse5parse, symObjAddr: 0x62D0, symBinAddr: 0x58990, symSize: 0x30 }
  - { offset: 0x11AC1D, size: 0x8, addend: 0x0, symName: __RNvXs_NvNvNtCs71axb73f1AC_14thiserror_impl4attr21parse_error_attribute1__NtB6_11transparentNtNtNtCsdGrGZaRBwMb_3syn5token7private11CustomToken4peek, symObjAddr: 0x6730, symBinAddr: 0x58DF0, symSize: 0xF0 }
  - { offset: 0x11AC6E, size: 0x8, addend: 0x0, symName: __RNvXs_NvNvNtCs71axb73f1AC_14thiserror_impl4attr21parse_error_attribute1__NtB6_11transparentNtNtNtCsdGrGZaRBwMb_3syn5token7private11CustomToken7display, symObjAddr: 0x6820, symBinAddr: 0x58EE0, symSize: 0x20 }
  - { offset: 0x11AD85, size: 0x8, addend: 0x0, symName: __RNvNtCs71axb73f1AC_14thiserror_impl4attr16parse_token_expr, symObjAddr: 0x30A0, symBinAddr: 0x55780, symSize: 0x2410 }
  - { offset: 0x11B322, size: 0x8, addend: 0x0, symName: __RNvNtCs71axb73f1AC_14thiserror_impl4attr21parse_error_attribute, symObjAddr: 0x54B0, symBinAddr: 0x57B90, symSize: 0x50 }
  - { offset: 0x11B35C, size: 0x8, addend: 0x0, symName: __RNvNtCs71axb73f1AC_14thiserror_impl4attr3get, symObjAddr: 0x5500, symBinAddr: 0x57BE0, symSize: 0x6E0 }
  - { offset: 0x11B410, size: 0x8, addend: 0x0, symName: __RNvXNtCs71axb73f1AC_14thiserror_impl4attrNtB2_7DisplayNtNtCs9OU1sGv5X54_5quote9to_tokens8ToTokens9to_tokens, symObjAddr: 0x5D00, symBinAddr: 0x583E0, symSize: 0x310 }
  - { offset: 0x11B4D3, size: 0x8, addend: 0x0, symName: __RNvXs0_NtCs71axb73f1AC_14thiserror_impl4attrNtB5_7DisplayNtNtCsieiGu2EXtoJ_4core5clone5Clone5cloneB7_, symObjAddr: 0x6100, symBinAddr: 0x587C0, symSize: 0x120 }
  - { offset: 0x11B505, size: 0x8, addend: 0x0, symName: __RNvXs4_NtCs71axb73f1AC_14thiserror_impl4attrNtB5_5TraitNtNtCsieiGu2EXtoJ_4core5clone5Clone5cloneB7_, symObjAddr: 0x6410, symBinAddr: 0x58AD0, symSize: 0x10 }
  - { offset: 0x11B537, size: 0x8, addend: 0x0, symName: __RNvXs8_NtCs71axb73f1AC_14thiserror_impl4attrNtB5_5TraitNtNtCsieiGu2EXtoJ_4core3cmp3Ord3cmpB7_, symObjAddr: 0x6430, symBinAddr: 0x58AF0, symSize: 0x40 }
  - { offset: 0x11B5B1, size: 0x8, addend: 0x0, symName: __RNvXs_NtCs71axb73f1AC_14thiserror_impl4attrNtB4_5TraitNtNtCs9OU1sGv5X54_5quote9to_tokens8ToTokens9to_tokens, symObjAddr: 0x6470, symBinAddr: 0x58B30, symSize: 0x2C0 }
  - { offset: 0x11BD21, size: 0x8, addend: 0x0, symName: __RINvMNtCsdGrGZaRBwMb_3syn4attrNtB3_9Attribute15parse_args_withNCNvNtCs71axb73f1AC_14thiserror_impl4attr21parse_error_attribute0EB14_, symObjAddr: 0x0, symBinAddr: 0x526E0, symSize: 0x480 }
  - { offset: 0x11BE7C, size: 0x8, addend: 0x0, symName: __RINvMs0_NtCsdGrGZaRBwMb_3syn4attrNtB6_8MetaList15parse_args_withNCNvNtCs71axb73f1AC_14thiserror_impl4attr21parse_error_attribute0EB16_, symObjAddr: 0x480, symBinAddr: 0x52B60, symSize: 0x110 }
  - { offset: 0x11C0E5, size: 0x8, addend: 0x0, symName: __RNvMNtCs71axb73f1AC_14thiserror_impl3fmtNtNtB4_4attr7Display16expand_shorthand, symObjAddr: 0x1460, symBinAddr: 0x53B40, symSize: 0x1B80 }
  - { offset: 0x11C528, size: 0x8, addend: 0x0, symName: __RNvMs3_NtCs71axb73f1AC_14thiserror_impl3astNtNtB7_4attr5Attrs4span, symObjAddr: 0x2FE0, symBinAddr: 0x556C0, symSize: 0xC0 }
  - { offset: 0x11C6BD, size: 0x8, addend: 0x0, symName: __RNvXNtCs9OU1sGv5X54_5quote9to_tokensRNtNtCs71axb73f1AC_14thiserror_impl4attr7DisplayNtB2_8ToTokens9to_tokensBD_, symObjAddr: 0x6010, symBinAddr: 0x586F0, symSize: 0x30 }
  - { offset: 0x11C6FC, size: 0x8, addend: 0x0, symName: __RNvXNtCs9OU1sGv5X54_5quote9to_tokensRRNtNtCsdGrGZaRBwMb_3syn4attr9AttributeNtB2_8ToTokens9to_tokensCs71axb73f1AC_14thiserror_impl, symObjAddr: 0x6040, symBinAddr: 0x58720, symSize: 0x30 }
  - { offset: 0x11C741, size: 0x8, addend: 0x0, symName: __RNvYNtNtCs71axb73f1AC_14thiserror_impl4attr5TraitNtNtCs9OU1sGv5X54_5quote9to_tokens8ToTokens15to_token_streamB6_, symObjAddr: 0x70C0, symBinAddr: 0x59780, symSize: 0x90 }
  - { offset: 0x11C78B, size: 0x8, addend: 0x0, symName: __RNvYNtNtCs71axb73f1AC_14thiserror_impl4attr7DisplayNtNtCs9OU1sGv5X54_5quote9to_tokens8ToTokens15to_token_streamB6_, symObjAddr: 0x7150, symBinAddr: 0x59810, symSize: 0x90 }
  - { offset: 0x11C7D5, size: 0x8, addend: 0x0, symName: __RNvYRNtNtCsdGrGZaRBwMb_3syn4attr9AttributeNtNtCs9OU1sGv5X54_5quote9to_tokens8ToTokens15to_token_streamCs71axb73f1AC_14thiserror_impl, symObjAddr: 0x7250, symBinAddr: 0x59910, symSize: 0x90 }
  - { offset: 0x11C81F, size: 0x8, addend: 0x0, symName: __RNvYRNtNtCsdGrGZaRBwMb_3syn4attr9AttributeNtNtCs9OU1sGv5X54_5quote9to_tokens8ToTokens17into_token_streamCs71axb73f1AC_14thiserror_impl, symObjAddr: 0x72E0, symBinAddr: 0x599A0, symSize: 0x50 }
  - { offset: 0x11C854, size: 0x8, addend: 0x0, symName: __RNvYRRNtNtCsdGrGZaRBwMb_3syn4attr9AttributeNtNtCs9OU1sGv5X54_5quote9to_tokens8ToTokens15to_token_streamCs71axb73f1AC_14thiserror_impl, symObjAddr: 0x7330, symBinAddr: 0x599F0, symSize: 0x90 }
  - { offset: 0x11C89E, size: 0x8, addend: 0x0, symName: __RNvYRRNtNtCsdGrGZaRBwMb_3syn4attr9AttributeNtNtCs9OU1sGv5X54_5quote9to_tokens8ToTokens17into_token_streamCs71axb73f1AC_14thiserror_impl, symObjAddr: 0x73C0, symBinAddr: 0x59A80, symSize: 0x50 }
  - { offset: 0x11CE5F, size: 0x8, addend: 0x0, symName: __RINvMNtNtCsieiGu2EXtoJ_4core3fmt2rtNtB3_8Argument11new_displayINtNtCs9OU1sGv5X54_5quote9___private20IdentFragmentAdapterRNtCsaKzlTDPUHDb_11proc_macro25IdentEECs71axb73f1AC_14thiserror_impl, symObjAddr: 0x0, symBinAddr: 0x59AD0, symSize: 0x30 }
  - { offset: 0x121EF9, size: 0x8, addend: 0x0, symName: __RNvXs5_NtNtCscKtU6MdFI5n_10proc_macro6bridge6bufferNtB5_6BufferNtNtNtCsieiGu2EXtoJ_4core3ops4drop4Drop4dropCs71axb73f1AC_14thiserror_impl, symObjAddr: 0x2FC0, symBinAddr: 0x5CA90, symSize: 0xA0 }
  - { offset: 0x122617, size: 0x8, addend: 0x0, symName: __RNvXs1_NtCsaKzlTDPUHDb_11proc_macro26markerNtB5_19ProcMacroAutoTraitsNtNtCsieiGu2EXtoJ_4core5clone5Clone5cloneCs71axb73f1AC_14thiserror_impl, symObjAddr: 0x2E70, symBinAddr: 0x5C940, symSize: 0x10 }
  - { offset: 0x122C22, size: 0x8, addend: 0x0, symName: __RINvNtCs9OU1sGv5X54_5quote9___private8get_spanNtCsaKzlTDPUHDb_11proc_macro24SpanECs71axb73f1AC_14thiserror_impl, symObjAddr: 0xD40, symBinAddr: 0x5A810, symSize: 0x20 }
  - { offset: 0x122C61, size: 0x8, addend: 0x0, symName: __RNvXs4_NtNtCs9OU1sGv5X54_5quote9___private3extINtNtCslJiobkLta79_5alloc3vec3VecNtCsaKzlTDPUHDb_11proc_macro211TokenStreamENtB5_16RepAsIteratorExt15quote_into_iterCs71axb73f1AC_14thiserror_impl, symObjAddr: 0x2ED0, symBinAddr: 0x5C9A0, symSize: 0x30 }
  - { offset: 0x122C9D, size: 0x8, addend: 0x0, symName: __RNvXs5_NtCs9OU1sGv5X54_5quote9___privateINtB5_9RepInterpNtCsaKzlTDPUHDb_11proc_macro211TokenStreamENtNtB7_9to_tokens8ToTokens9to_tokensCs71axb73f1AC_14thiserror_impl, symObjAddr: 0x2F00, symBinAddr: 0x5C9D0, symSize: 0x30 }
  - { offset: 0x122CDC, size: 0x8, addend: 0x0, symName: __RNvXs5_NtCs9OU1sGv5X54_5quote9___privateINtB5_9RepInterpNtCsaKzlTDPUHDb_11proc_macro25IdentENtNtB7_9to_tokens8ToTokens9to_tokensCs71axb73f1AC_14thiserror_impl, symObjAddr: 0x2F30, symBinAddr: 0x5CA00, symSize: 0x30 }
  - { offset: 0x122D1B, size: 0x8, addend: 0x0, symName: __RNvXs5_NtCs9OU1sGv5X54_5quote9___privateINtB5_9RepInterpRNtCsaKzlTDPUHDb_11proc_macro211TokenStreamENtNtB7_9to_tokens8ToTokens9to_tokensCs71axb73f1AC_14thiserror_impl, symObjAddr: 0x2F60, symBinAddr: 0x5CA30, symSize: 0x30 }
  - { offset: 0x122D5A, size: 0x8, addend: 0x0, symName: __RNvXs5_NtCs9OU1sGv5X54_5quote9___privateINtB5_9RepInterpRNtNtCsdGrGZaRBwMb_3syn4expr6MemberENtNtB7_9to_tokens8ToTokens9to_tokensCs71axb73f1AC_14thiserror_impl, symObjAddr: 0x2F90, symBinAddr: 0x5CA60, symSize: 0x30 }
  - { offset: 0x122D9F, size: 0x8, addend: 0x0, symName: __RNvXs7_NtCs9OU1sGv5X54_5quote9___privateINtB5_20IdentFragmentAdapterRNtCsaKzlTDPUHDb_11proc_macro25IdentENtNtCsieiGu2EXtoJ_4core3fmt7Display3fmtCs71axb73f1AC_14thiserror_impl, symObjAddr: 0x30E0, symBinAddr: 0x5CBB0, symSize: 0x30 }
  - { offset: 0x122DE5, size: 0x8, addend: 0x0, symName: __RNvXs7_NtCs9OU1sGv5X54_5quote9___privateINtB5_20IdentFragmentAdapterRNtNtCsdGrGZaRBwMb_3syn4expr5IndexENtNtCsieiGu2EXtoJ_4core3fmt7Display3fmtCs71axb73f1AC_14thiserror_impl, symObjAddr: 0x3110, symBinAddr: 0x5CBE0, symSize: 0x30 }
  - { offset: 0x122E2B, size: 0x8, addend: 0x0, symName: __RNvXs7_NtCs9OU1sGv5X54_5quote9___privateINtB5_20IdentFragmentAdapterRRNtNtCsdGrGZaRBwMb_3syn4expr5IndexENtNtCsieiGu2EXtoJ_4core3fmt7Display3fmtCs71axb73f1AC_14thiserror_impl, symObjAddr: 0x3140, symBinAddr: 0x5CC10, symSize: 0x30 }
  - { offset: 0x122E71, size: 0x8, addend: 0x0, symName: __RNvXs7_NtCs9OU1sGv5X54_5quote9___privateINtB5_20IdentFragmentAdapterRmENtNtCsieiGu2EXtoJ_4core3fmt7Display3fmtCs71axb73f1AC_14thiserror_impl, symObjAddr: 0x3170, symBinAddr: 0x5CC40, symSize: 0x30 }
  - { offset: 0x122EBD, size: 0x8, addend: 0x0, symName: __RNvYINtNtCs9OU1sGv5X54_5quote9___private11HasIteratorKb1_EINtB5_16CheckHasIteratorKBQ_E5checkCs71axb73f1AC_14thiserror_impl, symObjAddr: 0x3940, symBinAddr: 0x5D410, symSize: 0x10 }
  - { offset: 0x124D67, size: 0x8, addend: 0x0, symName: __RINvXsd_NtCslJiobkLta79_5alloc3vecINtB6_3VecNtCsaKzlTDPUHDb_11proc_macro211TokenStreamEINtNtNtNtCsieiGu2EXtoJ_4core4iter6traits7collect12FromIteratorBG_E9from_iterINtNtNtB1u_8adapters3map3MapINtNtNtB1w_5slice4iter4IterNtNtCs71axb73f1AC_14thiserror_impl3ast7VariantENCNvNtB3y_6expand9impl_enums1_0EEB3y_, symObjAddr: 0x1530, symBinAddr: 0x5B000, symSize: 0x40 }
  - { offset: 0x124DA8, size: 0x8, addend: 0x0, symName: __RINvXsd_NtCslJiobkLta79_5alloc3vecINtB6_3VecNtNtCs71axb73f1AC_14thiserror_impl3ast5FieldEINtNtNtNtCsieiGu2EXtoJ_4core4iter6traits7collect12FromIteratorBG_E9from_iterINtNtB1w_8adapters12GenericShuntINtNtB2G_3map3MapINtNtB2G_9enumerate9EnumerateINtNtCsdGrGZaRBwMb_3syn10punctuated4IterNtNtB3Y_4data5FieldEENCNvMs2_BI_BG_17multiple_from_syn0EINtNtB1y_6result6ResultNtNtB1y_7convert10InfallibleNtNtB3Y_5error5ErrorEEEBK_, symObjAddr: 0x1570, symBinAddr: 0x5B040, symSize: 0x40 }
  - { offset: 0x124DE9, size: 0x8, addend: 0x0, symName: __RINvXsd_NtCslJiobkLta79_5alloc3vecINtB6_3VecNtNtCs71axb73f1AC_14thiserror_impl3ast7VariantEINtNtNtNtCsieiGu2EXtoJ_4core4iter6traits7collect12FromIteratorBG_E9from_iterINtNtB1y_8adapters12GenericShuntINtNtB2I_3map3MapINtNtCsdGrGZaRBwMb_3syn10punctuated4IterNtNtB3x_4data7VariantENCNvMs0_BI_NtBI_4Enum8from_syn0EINtNtB1A_6result6ResultNtNtB1A_7convert10InfallibleNtNtB3x_5error5ErrorEEEBK_, symObjAddr: 0x15B0, symBinAddr: 0x5B080, symSize: 0x40 }
  - { offset: 0x124E2A, size: 0x8, addend: 0x0, symName: __RINvXsd_NtCslJiobkLta79_5alloc3vecINtB6_3VecRNtCsaKzlTDPUHDb_11proc_macro25IdentEINtNtNtNtCsieiGu2EXtoJ_4core4iter6traits7collect12FromIteratorBG_E9from_iterINtNtNtB1o_8adapters3map3MapNtNtCsdGrGZaRBwMb_3syn8generics10TypeParamsNCNvMNtCs71axb73f1AC_14thiserror_impl8genericsNtB3J_13ParamsInScope3new0EEB3L_, symObjAddr: 0x15F0, symBinAddr: 0x5B0C0, symSize: 0x60 }
  - { offset: 0x124E75, size: 0x8, addend: 0x0, symName: __RNCINvMsi_NtCslJiobkLta79_5alloc3vecINtB8_3VecNtCsaKzlTDPUHDb_11proc_macro211TokenStreamE14extend_trustedINtNtNtNtCsieiGu2EXtoJ_4core4iter8adapters3map3MapINtNtNtB1O_5slice4iter4IterNtNtCs71axb73f1AC_14thiserror_impl3ast7VariantENCNvNtB2Y_6expand9impl_enums1_0EE0B2Y_, symObjAddr: 0x1650, symBinAddr: 0x5B120, symSize: 0x50 }
  - { offset: 0x124F3E, size: 0x8, addend: 0x0, symName: __RNvNvMs_NtCslJiobkLta79_5alloc3vecINtB6_3VecppE7set_len18precondition_checkCs71axb73f1AC_14thiserror_impl, symObjAddr: 0x22A0, symBinAddr: 0x5BD70, symSize: 0xA0 }
  - { offset: 0x124FB2, size: 0x8, addend: 0x0, symName: __RNvXNtNtCslJiobkLta79_5alloc3vec11spec_extendINtB4_3VecNtNtCs71axb73f1AC_14thiserror_impl3ast5FieldEINtB2_10SpecExtendBR_INtNtNtCsieiGu2EXtoJ_4core4iter8adapters12GenericShuntINtNtB1Y_3map3MapINtNtB1Y_9enumerate9EnumerateINtNtCsdGrGZaRBwMb_3syn10punctuated4IterNtNtB3C_4data5FieldEENCNvMs2_BT_BR_17multiple_from_syn0EINtNtB22_6result6ResultNtNtB22_7convert10InfallibleNtNtB3C_5error5ErrorEEE11spec_extendBV_, symObjAddr: 0x2340, symBinAddr: 0x5BE10, symSize: 0x20 }
  - { offset: 0x125004, size: 0x8, addend: 0x0, symName: __RNvXNtNtCslJiobkLta79_5alloc3vec11spec_extendINtB4_3VecNtNtCs71axb73f1AC_14thiserror_impl3ast7VariantEINtB2_10SpecExtendBR_INtNtNtCsieiGu2EXtoJ_4core4iter8adapters12GenericShuntINtNtB20_3map3MapINtNtCsdGrGZaRBwMb_3syn10punctuated4IterNtNtB3b_4data7VariantENCNvMs0_BT_NtBT_4Enum8from_syn0EINtNtB24_6result6ResultNtNtB24_7convert10InfallibleNtNtB3b_5error5ErrorEEE11spec_extendBV_, symObjAddr: 0x2360, symBinAddr: 0x5BE30, symSize: 0x20 }
  - { offset: 0x125056, size: 0x8, addend: 0x0, symName: __RNvXNtNtCslJiobkLta79_5alloc3vec11spec_extendINtB4_3VecRNtCsaKzlTDPUHDb_11proc_macro25IdentEINtB2_10SpecExtendBR_INtNtNtNtCsieiGu2EXtoJ_4core4iter8adapters3map3MapNtNtCsdGrGZaRBwMb_3syn8generics10TypeParamsNCNvMNtCs71axb73f1AC_14thiserror_impl8genericsNtB3n_13ParamsInScope3new0EE11spec_extendB3p_, symObjAddr: 0x2380, symBinAddr: 0x5BE50, symSize: 0x20 }
  - { offset: 0x1250AD, size: 0x8, addend: 0x0, symName: __RNvXs_NtNtCslJiobkLta79_5alloc3vec11spec_extendINtB6_3VecNtCsaKzlTDPUHDb_11proc_macro211TokenStreamEINtB4_10SpecExtendBT_INtNtNtNtCsieiGu2EXtoJ_4core4iter8adapters3map3MapINtNtNtB24_5slice4iter4IterNtNtCs71axb73f1AC_14thiserror_impl3ast7VariantENCNvNtB3e_6expand9impl_enums1_0EE11spec_extendB3e_, symObjAddr: 0x32C0, symBinAddr: 0x5CD90, symSize: 0x20 }
  - { offset: 0x12510B, size: 0x8, addend: 0x0, symName: __RNvXNtNtCslJiobkLta79_5alloc3vec14spec_from_iterINtB4_3VecNtCsaKzlTDPUHDb_11proc_macro211TokenStreamEINtB2_12SpecFromIterBU_INtNtNtNtCsieiGu2EXtoJ_4core4iter8adapters3map3MapINtNtNtB27_5slice4iter4IterNtNtCs71axb73f1AC_14thiserror_impl3ast7VariantENCNvNtB3h_6expand9impl_enums1_0EE9from_iterB3h_, symObjAddr: 0x23A0, symBinAddr: 0x5BE70, symSize: 0x20 }
  - { offset: 0x12514A, size: 0x8, addend: 0x0, symName: __RNvXNtNtCslJiobkLta79_5alloc3vec14spec_from_iterINtB4_3VecNtNtCs71axb73f1AC_14thiserror_impl3ast5FieldEINtB2_12SpecFromIterBU_INtNtNtCsieiGu2EXtoJ_4core4iter8adapters12GenericShuntINtNtB23_3map3MapINtNtB23_9enumerate9EnumerateINtNtCsdGrGZaRBwMb_3syn10punctuated4IterNtNtB3H_4data5FieldEENCNvMs2_BW_BU_17multiple_from_syn0EINtNtB27_6result6ResultNtNtB27_7convert10InfallibleNtNtB3H_5error5ErrorEEE9from_iterBY_, symObjAddr: 0x23C0, symBinAddr: 0x5BE90, symSize: 0x20 }
  - { offset: 0x125189, size: 0x8, addend: 0x0, symName: __RNvXNtNtCslJiobkLta79_5alloc3vec14spec_from_iterINtB4_3VecNtNtCs71axb73f1AC_14thiserror_impl3ast7VariantEINtB2_12SpecFromIterBU_INtNtNtCsieiGu2EXtoJ_4core4iter8adapters12GenericShuntINtNtB25_3map3MapINtNtCsdGrGZaRBwMb_3syn10punctuated4IterNtNtB3g_4data7VariantENCNvMs0_BW_NtBW_4Enum8from_syn0EINtNtB29_6result6ResultNtNtB29_7convert10InfallibleNtNtB3g_5error5ErrorEEE9from_iterBY_, symObjAddr: 0x23E0, symBinAddr: 0x5BEB0, symSize: 0x20 }
  - { offset: 0x1251C8, size: 0x8, addend: 0x0, symName: __RNvXNtNtCslJiobkLta79_5alloc3vec14spec_from_iterINtB4_3VecRNtCsaKzlTDPUHDb_11proc_macro25IdentEINtB2_12SpecFromIterBU_INtNtNtNtCsieiGu2EXtoJ_4core4iter8adapters3map3MapNtNtCsdGrGZaRBwMb_3syn8generics10TypeParamsNCNvMNtCs71axb73f1AC_14thiserror_impl8genericsNtB3s_13ParamsInScope3new0EE9from_iterB3u_, symObjAddr: 0x2400, symBinAddr: 0x5BED0, symSize: 0x30 }
  - { offset: 0x125212, size: 0x8, addend: 0x0, symName: __RNvXNtNtCslJiobkLta79_5alloc3vec21spec_from_iter_nestedINtB4_3VecNtNtCs71axb73f1AC_14thiserror_impl3ast5FieldEINtB2_18SpecFromIterNestedB11_INtNtNtCsieiGu2EXtoJ_4core4iter8adapters12GenericShuntINtNtB2h_3map3MapINtNtB2h_9enumerate9EnumerateINtNtCsdGrGZaRBwMb_3syn10punctuated4IterNtNtB3V_4data5FieldEENCNvMs2_B13_B11_17multiple_from_syn0EINtNtB2l_6result6ResultNtNtB2l_7convert10InfallibleNtNtB3V_5error5ErrorEEE9from_iterB15_, symObjAddr: 0x2430, symBinAddr: 0x5BF00, symSize: 0x360 }
  - { offset: 0x1254C7, size: 0x8, addend: 0x0, symName: __RNvXNtNtCslJiobkLta79_5alloc3vec21spec_from_iter_nestedINtB4_3VecNtNtCs71axb73f1AC_14thiserror_impl3ast7VariantEINtB2_18SpecFromIterNestedB11_INtNtNtCsieiGu2EXtoJ_4core4iter8adapters12GenericShuntINtNtB2j_3map3MapINtNtCsdGrGZaRBwMb_3syn10punctuated4IterNtNtB3u_4data7VariantENCNvMs0_B13_NtB13_4Enum8from_syn0EINtNtB2n_6result6ResultNtNtB2n_7convert10InfallibleNtNtB3u_5error5ErrorEEE9from_iterB15_, symObjAddr: 0x2790, symBinAddr: 0x5C260, symSize: 0x370 }
  - { offset: 0x12577C, size: 0x8, addend: 0x0, symName: __RNvXNtNtCslJiobkLta79_5alloc3vec21spec_from_iter_nestedINtB4_3VecRNtCsaKzlTDPUHDb_11proc_macro25IdentEINtB2_18SpecFromIterNestedB11_INtNtNtNtCsieiGu2EXtoJ_4core4iter8adapters3map3MapNtNtCsdGrGZaRBwMb_3syn8generics10TypeParamsNCNvMNtCs71axb73f1AC_14thiserror_impl8genericsNtB3G_13ParamsInScope3new0EE9from_iterB3I_, symObjAddr: 0x2B00, symBinAddr: 0x5C5D0, symSize: 0x300 }
  - { offset: 0x125A3A, size: 0x8, addend: 0x0, symName: __RNvXs_NtNtCslJiobkLta79_5alloc3vec21spec_from_iter_nestedINtB6_3VecNtCsaKzlTDPUHDb_11proc_macro211TokenStreamEINtB4_18SpecFromIterNestedB13_INtNtNtNtCsieiGu2EXtoJ_4core4iter8adapters3map3MapINtNtNtB2n_5slice4iter4IterNtNtCs71axb73f1AC_14thiserror_impl3ast7VariantENCNvNtB3x_6expand9impl_enums1_0EE9from_iterB3x_, symObjAddr: 0x32E0, symBinAddr: 0x5CDB0, symSize: 0x1C0 }
  - { offset: 0x125B19, size: 0x8, addend: 0x0, symName: __RNvXs6_NtCslJiobkLta79_5alloc3vecINtB5_3VecNtCsaKzlTDPUHDb_11proc_macro211TokenStreamENtNtNtCsieiGu2EXtoJ_4core3ops5deref5Deref5derefCs71axb73f1AC_14thiserror_impl, symObjAddr: 0x3060, symBinAddr: 0x5CB30, symSize: 0x20 }
  - { offset: 0x125B59, size: 0x8, addend: 0x0, symName: __RNvXs6_NtCslJiobkLta79_5alloc3vecINtB5_3VecNtNtCs71axb73f1AC_14thiserror_impl3ast5FieldENtNtNtCsieiGu2EXtoJ_4core3ops5deref5Deref5derefBJ_, symObjAddr: 0x3080, symBinAddr: 0x5CB50, symSize: 0x20 }
  - { offset: 0x125B99, size: 0x8, addend: 0x0, symName: __RNvXs6_NtCslJiobkLta79_5alloc3vecINtB5_3VecNtNtCs71axb73f1AC_14thiserror_impl3ast7VariantENtNtNtCsieiGu2EXtoJ_4core3ops5deref5Deref5derefBJ_, symObjAddr: 0x30A0, symBinAddr: 0x5CB70, symSize: 0x20 }
  - { offset: 0x125BD9, size: 0x8, addend: 0x0, symName: __RNvXs6_NtCslJiobkLta79_5alloc3vecINtB5_3VecTNtCsaKzlTDPUHDb_11proc_macro211TokenStreamNtNtCsdGrGZaRBwMb_3syn5token4PlusEENtNtNtCsieiGu2EXtoJ_4core3ops5deref5Deref5derefCs71axb73f1AC_14thiserror_impl, symObjAddr: 0x30C0, symBinAddr: 0x5CB90, symSize: 0x20 }
  - { offset: 0x125D0F, size: 0x8, addend: 0x0, symName: __RNvXsb_NtCslJiobkLta79_5alloc3vecINtB5_3VecNtNtCs71axb73f1AC_14thiserror_impl3ast5FieldEINtNtNtCsieiGu2EXtoJ_4core3ops5index5IndexjE5indexBJ_, symObjAddr: 0x34A0, symBinAddr: 0x5CF70, symSize: 0x80 }
  - { offset: 0x125E91, size: 0x8, addend: 0x0, symName: __RNvXsb_NtCslJiobkLta79_5alloc3vecINtB5_3VecTNtNtCsdGrGZaRBwMb_3syn4path15GenericArgumentNtNtBK_5token5CommaEEINtNtNtCsieiGu2EXtoJ_4core3ops5index5IndexjE5indexCs71axb73f1AC_14thiserror_impl, symObjAddr: 0x3520, symBinAddr: 0x5CFF0, symSize: 0x80 }
  - { offset: 0x126019, size: 0x8, addend: 0x0, symName: __RNvXse_NtCslJiobkLta79_5alloc3vecINtB5_3VecRNtCsaKzlTDPUHDb_11proc_macro25IdentENtNtNtNtCsieiGu2EXtoJ_4core4iter6traits7collect12IntoIterator9into_iterCs71axb73f1AC_14thiserror_impl, symObjAddr: 0x35A0, symBinAddr: 0x5D070, symSize: 0x140 }
  - { offset: 0x1262AF, size: 0x8, addend: 0x0, symName: __RNvXsf_NtCslJiobkLta79_5alloc3vecRINtB5_3VecNtCsaKzlTDPUHDb_11proc_macro211TokenStreamENtNtNtNtCsieiGu2EXtoJ_4core4iter6traits7collect12IntoIterator9into_iterCs71axb73f1AC_14thiserror_impl, symObjAddr: 0x36E0, symBinAddr: 0x5D1B0, symSize: 0x80 }
  - { offset: 0x1264DC, size: 0x8, addend: 0x0, symName: __RNvXsf_NtCslJiobkLta79_5alloc3vecRINtB5_3VecNtNtCs71axb73f1AC_14thiserror_impl3ast5FieldENtNtNtNtCsieiGu2EXtoJ_4core4iter6traits7collect12IntoIterator9into_iterBK_, symObjAddr: 0x3760, symBinAddr: 0x5D230, symSize: 0x80 }
  - { offset: 0x126709, size: 0x8, addend: 0x0, symName: __RNvXsf_NtCslJiobkLta79_5alloc3vecRINtB5_3VecNtNtCs71axb73f1AC_14thiserror_impl3ast7VariantENtNtNtNtCsieiGu2EXtoJ_4core4iter6traits7collect12IntoIterator9into_iterBK_, symObjAddr: 0x37E0, symBinAddr: 0x5D2B0, symSize: 0x80 }
  - { offset: 0x12693C, size: 0x8, addend: 0x0, symName: __RNvXsn_NtCslJiobkLta79_5alloc3vecINtB5_3VecNtCsaKzlTDPUHDb_11proc_macro211TokenStreamENtNtNtCsieiGu2EXtoJ_4core3ops4drop4Drop4dropCs71axb73f1AC_14thiserror_impl, symObjAddr: 0x3860, symBinAddr: 0x5D330, symSize: 0x30 }
  - { offset: 0x1269EC, size: 0x8, addend: 0x0, symName: __RNvXsn_NtCslJiobkLta79_5alloc3vecINtB5_3VecNtNtCs71axb73f1AC_14thiserror_impl3ast5FieldENtNtNtCsieiGu2EXtoJ_4core3ops4drop4Drop4dropBJ_, symObjAddr: 0x3890, symBinAddr: 0x5D360, symSize: 0x30 }
  - { offset: 0x126A9C, size: 0x8, addend: 0x0, symName: __RNvXsn_NtCslJiobkLta79_5alloc3vecINtB5_3VecNtNtCs71axb73f1AC_14thiserror_impl3ast7VariantENtNtNtCsieiGu2EXtoJ_4core3ops4drop4Drop4dropBJ_, symObjAddr: 0x38C0, symBinAddr: 0x5D390, symSize: 0x30 }
  - { offset: 0x126B4C, size: 0x8, addend: 0x0, symName: __RNvXsn_NtCslJiobkLta79_5alloc3vecINtB5_3VecRNtCsaKzlTDPUHDb_11proc_macro25IdentENtNtNtCsieiGu2EXtoJ_4core3ops4drop4Drop4dropCs71axb73f1AC_14thiserror_impl, symObjAddr: 0x38F0, symBinAddr: 0x5D3C0, symSize: 0x20 }
  - { offset: 0x126BFC, size: 0x8, addend: 0x0, symName: __RNvXsn_NtCslJiobkLta79_5alloc3vecINtB5_3VecTNtCsaKzlTDPUHDb_11proc_macro211TokenStreamNtNtCsdGrGZaRBwMb_3syn5token4PlusEENtNtNtCsieiGu2EXtoJ_4core3ops4drop4Drop4dropCs71axb73f1AC_14thiserror_impl, symObjAddr: 0x3910, symBinAddr: 0x5D3E0, symSize: 0x30 }
  - { offset: 0x1279CD, size: 0x8, addend: 0x0, symName: __RINvNtNtNtCslJiobkLta79_5alloc11collections5btree3mem7replaceINtNtB4_4node6HandleINtB10_7NodeRefNtNtB10_6marker5DyingNtCsaKzlTDPUHDb_11proc_macro25IdentNtNtB4_7set_val9SetValZSTNtB1y_4LeafENtB1y_4EdgeEIBY_IB1i_B1w_B1R_B2q_NtB1y_14LeafOrInternalENtB1y_2KVENCINvMsm_NtB4_8navigateBX_27deallocating_next_uncheckedNtNtB8_5alloc6GlobalE0ECs71axb73f1AC_14thiserror_impl, symObjAddr: 0xD60, symBinAddr: 0x5A830, symSize: 0x110 }
  - { offset: 0x127ABF, size: 0x8, addend: 0x0, symName: __RINvNtNtNtCslJiobkLta79_5alloc11collections5btree3mem7replaceINtNtB4_4node6HandleINtB10_7NodeRefNtNtB10_6marker5DyingNtNtB8_6string6StringNtNtB4_7set_val9SetValZSTNtB1y_4LeafENtB1y_4EdgeEIBY_IB1i_B1w_B1R_B2c_NtB1y_14LeafOrInternalENtB1y_2KVENCINvMsm_NtB4_8navigateBX_27deallocating_next_uncheckedNtNtB8_5alloc6GlobalE0ECs71axb73f1AC_14thiserror_impl, symObjAddr: 0xE70, symBinAddr: 0x5A940, symSize: 0x110 }
  - { offset: 0x127BB1, size: 0x8, addend: 0x0, symName: __RINvNtNtNtCslJiobkLta79_5alloc11collections5btree3mem7replaceINtNtB4_4node6HandleINtB10_7NodeRefNtNtB10_6marker5DyingNtNtB8_6string6StringTINtNtB4_3set8BTreeSetB1R_EINtNtCsdGrGZaRBwMb_3syn10punctuated10PunctuatedNtCsaKzlTDPUHDb_11proc_macro211TokenStreamNtNtB2I_5token4PlusEENtB1y_4LeafENtB1y_4EdgeEIBY_IB1i_B1w_B1R_B2c_NtB1y_14LeafOrInternalENtB1y_2KVENCINvMsm_NtB4_8navigateBX_27deallocating_next_uncheckedNtNtB8_5alloc6GlobalE0ECs71axb73f1AC_14thiserror_impl, symObjAddr: 0xF80, symBinAddr: 0x5AA50, symSize: 0x110 }
  - { offset: 0x127CA3, size: 0x8, addend: 0x0, symName: __RINvNtNtNtCslJiobkLta79_5alloc11collections5btree3mem7replaceINtNtB4_4node6HandleINtB10_7NodeRefNtNtB10_6marker5DyingRNtCsaKzlTDPUHDb_11proc_macro25IdentNtNtB4_7set_val9SetValZSTNtB1y_4LeafENtB1y_4EdgeEIBY_IB1i_B1w_B1R_B2r_NtB1y_14LeafOrInternalENtB1y_2KVENCINvMsm_NtB4_8navigateBX_27deallocating_next_uncheckedNtNtB8_5alloc6GlobalE0ECs71axb73f1AC_14thiserror_impl, symObjAddr: 0x1090, symBinAddr: 0x5AB60, symSize: 0x110 }
  - { offset: 0x127D95, size: 0x8, addend: 0x0, symName: __RINvNtNtNtCslJiobkLta79_5alloc11collections5btree3mem7replaceINtNtB4_4node6HandleINtB10_7NodeRefNtNtB10_6marker5DyingTjNtNtCs71axb73f1AC_14thiserror_impl4attr5TraitENtNtB4_7set_val9SetValZSTNtB1y_4LeafENtB1y_4EdgeEIBY_IB1i_B1w_B1R_B2D_NtB1y_14LeafOrInternalENtB1y_2KVENCINvMsm_NtB4_8navigateBX_27deallocating_next_uncheckedNtNtB8_5alloc6GlobalE0EB1X_, symObjAddr: 0x11A0, symBinAddr: 0x5AC70, symSize: 0x110 }
  - { offset: 0x127E87, size: 0x8, addend: 0x0, symName: __RINvNtNtNtCslJiobkLta79_5alloc11collections5btree3mem7replaceINtNtB4_4node7NodeRefNtNtB10_6marker5OwnedNtCsaKzlTDPUHDb_11proc_macro25IdentNtNtB4_7set_val9SetValZSTNtB1k_14LeafOrInternalEuNCINvB2_8take_mutBX_NCINvMss_B10_BX_19push_internal_levelNtNtB8_5alloc6GlobalE0E0ECs71axb73f1AC_14thiserror_impl, symObjAddr: 0x12B0, symBinAddr: 0x5AD80, symSize: 0x80 }
  - { offset: 0x127F71, size: 0x8, addend: 0x0, symName: __RINvNtNtNtCslJiobkLta79_5alloc11collections5btree3mem7replaceINtNtB4_4node7NodeRefNtNtB10_6marker5OwnedNtNtB8_6string6StringNtNtB4_7set_val9SetValZSTNtB1k_14LeafOrInternalEuNCINvB2_8take_mutBX_NCINvMss_B10_BX_19push_internal_levelNtNtB8_5alloc6GlobalE0E0ECs71axb73f1AC_14thiserror_impl, symObjAddr: 0x1330, symBinAddr: 0x5AE00, symSize: 0x80 }
  - { offset: 0x12805B, size: 0x8, addend: 0x0, symName: __RINvNtNtNtCslJiobkLta79_5alloc11collections5btree3mem7replaceINtNtB4_4node7NodeRefNtNtB10_6marker5OwnedNtNtB8_6string6StringTINtNtB4_3set8BTreeSetB1D_EINtNtCsdGrGZaRBwMb_3syn10punctuated10PunctuatedNtCsaKzlTDPUHDb_11proc_macro211TokenStreamNtNtB2u_5token4PlusEENtB1k_14LeafOrInternalEuNCINvB2_8take_mutBX_NCINvMss_B10_BX_19push_internal_levelNtNtB8_5alloc6GlobalE0E0ECs71axb73f1AC_14thiserror_impl, symObjAddr: 0x13B0, symBinAddr: 0x5AE80, symSize: 0x80 }
  - { offset: 0x128145, size: 0x8, addend: 0x0, symName: __RINvNtNtNtCslJiobkLta79_5alloc11collections5btree3mem7replaceINtNtB4_4node7NodeRefNtNtB10_6marker5OwnedRNtCsaKzlTDPUHDb_11proc_macro25IdentNtNtB4_7set_val9SetValZSTNtB1k_14LeafOrInternalEuNCINvB2_8take_mutBX_NCINvMss_B10_BX_19push_internal_levelNtNtB8_5alloc6GlobalE0E0ECs71axb73f1AC_14thiserror_impl, symObjAddr: 0x1430, symBinAddr: 0x5AF00, symSize: 0x80 }
  - { offset: 0x12822F, size: 0x8, addend: 0x0, symName: __RINvNtNtNtCslJiobkLta79_5alloc11collections5btree3mem7replaceINtNtB4_4node7NodeRefNtNtB10_6marker5OwnedTjNtNtCs71axb73f1AC_14thiserror_impl4attr5TraitENtNtB4_7set_val9SetValZSTNtB1k_14LeafOrInternalEuNCINvB2_8take_mutBX_NCINvMss_B10_BX_19push_internal_levelNtNtB8_5alloc6GlobalE0E0EB1J_, symObjAddr: 0x14B0, symBinAddr: 0x5AF80, symSize: 0x80 }
  - { offset: 0x12831E, size: 0x8, addend: 0x0, symName: __RNCINvNtNtNtCslJiobkLta79_5alloc11collections5btree3mem8take_mutINtNtB6_4node7NodeRefNtNtB13_6marker5OwnedNtCsaKzlTDPUHDb_11proc_macro25IdentNtNtB6_7set_val9SetValZSTNtB1n_14LeafOrInternalENCINvMss_B13_B10_19push_internal_levelNtNtBa_5alloc6GlobalE0E0Cs71axb73f1AC_14thiserror_impl, symObjAddr: 0x16A0, symBinAddr: 0x5B170, symSize: 0x20 }
  - { offset: 0x12836B, size: 0x8, addend: 0x0, symName: __RNCINvNtNtNtCslJiobkLta79_5alloc11collections5btree3mem8take_mutINtNtB6_4node7NodeRefNtNtB13_6marker5OwnedNtNtBa_6string6StringNtNtB6_7set_val9SetValZSTNtB1n_14LeafOrInternalENCINvMss_B13_B10_19push_internal_levelNtNtBa_5alloc6GlobalE0E0Cs71axb73f1AC_14thiserror_impl, symObjAddr: 0x16C0, symBinAddr: 0x5B190, symSize: 0x20 }
  - { offset: 0x1283B8, size: 0x8, addend: 0x0, symName: __RNCINvNtNtNtCslJiobkLta79_5alloc11collections5btree3mem8take_mutINtNtB6_4node7NodeRefNtNtB13_6marker5OwnedNtNtBa_6string6StringTINtNtB6_3set8BTreeSetB1G_EINtNtCsdGrGZaRBwMb_3syn10punctuated10PunctuatedNtCsaKzlTDPUHDb_11proc_macro211TokenStreamNtNtB2x_5token4PlusEENtB1n_14LeafOrInternalENCINvMss_B13_B10_19push_internal_levelNtNtBa_5alloc6GlobalE0E0Cs71axb73f1AC_14thiserror_impl, symObjAddr: 0x16E0, symBinAddr: 0x5B1B0, symSize: 0x20 }
  - { offset: 0x128405, size: 0x8, addend: 0x0, symName: __RNCINvNtNtNtCslJiobkLta79_5alloc11collections5btree3mem8take_mutINtNtB6_4node7NodeRefNtNtB13_6marker5OwnedRNtCsaKzlTDPUHDb_11proc_macro25IdentNtNtB6_7set_val9SetValZSTNtB1n_14LeafOrInternalENCINvMss_B13_B10_19push_internal_levelNtNtBa_5alloc6GlobalE0E0Cs71axb73f1AC_14thiserror_impl, symObjAddr: 0x1700, symBinAddr: 0x5B1D0, symSize: 0x20 }
  - { offset: 0x128452, size: 0x8, addend: 0x0, symName: __RNCINvNtNtNtCslJiobkLta79_5alloc11collections5btree3mem8take_mutINtNtB6_4node7NodeRefNtNtB13_6marker5OwnedTjNtNtCs71axb73f1AC_14thiserror_impl4attr5TraitENtNtB6_7set_val9SetValZSTNtB1n_14LeafOrInternalENCINvMss_B13_B10_19push_internal_levelNtNtBa_5alloc6GlobalE0E0B1M_, symObjAddr: 0x1720, symBinAddr: 0x5B1F0, symSize: 0x20 }
  - { offset: 0x128509, size: 0x8, addend: 0x0, symName: __RNvXNvNtNtNtCslJiobkLta79_5alloc11collections5btree3mem7replaceNtB2_10PanicGuardNtNtNtCsieiGu2EXtoJ_4core3ops4drop4Drop4dropCs71axb73f1AC_14thiserror_impl, symObjAddr: 0x2E00, symBinAddr: 0x5C8D0, symSize: 0x10 }
  - { offset: 0x1285B9, size: 0x8, addend: 0x0, symName: __RNvXs8_NtCslJiobkLta79_5alloc5sliceINtNtB7_3vec3VecRNtCsaKzlTDPUHDb_11proc_macro25IdentEINtNtNtNtCsieiGu2EXtoJ_4core5slice4sort6stable8BufGuardBN_E13with_capacityCs71axb73f1AC_14thiserror_impl, symObjAddr: 0x31A0, symBinAddr: 0x5CC70, symSize: 0x60 }
  - { offset: 0x12865A, size: 0x8, addend: 0x0, symName: __RNvXs8_NtCslJiobkLta79_5alloc5sliceINtNtB7_3vec3VecRNtCsaKzlTDPUHDb_11proc_macro25IdentEINtNtNtNtCsieiGu2EXtoJ_4core5slice4sort6stable8BufGuardBN_E19as_uninit_slice_mutCs71axb73f1AC_14thiserror_impl, symObjAddr: 0x3200, symBinAddr: 0x5CCD0, symSize: 0x90 }
  - { offset: 0x128806, size: 0x8, addend: 0x0, symName: __RINvMNtNtCsieiGu2EXtoJ_4core3fmt2rtNtB3_8Argument11new_displayINtNtCs9OU1sGv5X54_5quote9___private20IdentFragmentAdapterRNtCsaKzlTDPUHDb_11proc_macro25IdentEECs71axb73f1AC_14thiserror_impl, symObjAddr: 0x0, symBinAddr: 0x59AD0, symSize: 0x30 }
  - { offset: 0x12D65B, size: 0x8, addend: 0x0, symName: __RNvXs0_NtCsdGrGZaRBwMb_3syn5dropsINtB5_6NoDropDINtNtB7_10punctuated9IterTraitNtNtB7_4data7VariantEp4ItemRB1d_EL_ENtNtNtCsieiGu2EXtoJ_4core3ops5deref8DerefMut9deref_mutCs71axb73f1AC_14thiserror_impl, symObjAddr: 0x2E10, symBinAddr: 0x5C8E0, symSize: 0x30 }
  - { offset: 0x12D690, size: 0x8, addend: 0x0, symName: __RNvXs0_NtCsdGrGZaRBwMb_3syn5dropsINtB5_6NoDropDINtNtB7_10punctuated9IterTraitNtNtB7_4path15GenericArgumentEp4ItemRB1d_EL_ENtNtNtCsieiGu2EXtoJ_4core3ops5deref8DerefMut9deref_mutCs71axb73f1AC_14thiserror_impl, symObjAddr: 0x2E40, symBinAddr: 0x5C910, symSize: 0x30 }
  - { offset: 0x12D6CB, size: 0x8, addend: 0x0, symName: __RNvXs_NtCsdGrGZaRBwMb_3syn5dropsINtB4_6NoDropDINtNtB6_10punctuated9IterTraitNtNtB6_4data7VariantEp4ItemRB1c_EL_ENtNtNtCsieiGu2EXtoJ_4core3ops5deref5Deref5derefCs71axb73f1AC_14thiserror_impl, symObjAddr: 0x3290, symBinAddr: 0x5CD60, symSize: 0x30 }
  - { offset: 0x12D7BB, size: 0x8, addend: 0x0, symName: __RINvMNtNtCsieiGu2EXtoJ_4core3fmt2rtNtB3_8Argument11new_displayINtNtCs9OU1sGv5X54_5quote9___private20IdentFragmentAdapterRNtNtCsdGrGZaRBwMb_3syn4expr5IndexEECs71axb73f1AC_14thiserror_impl, symObjAddr: 0x30, symBinAddr: 0x59B00, symSize: 0x30 }
  - { offset: 0x12D800, size: 0x8, addend: 0x0, symName: __RINvMNtNtCsieiGu2EXtoJ_4core3fmt2rtNtB3_8Argument11new_displayINtNtCs9OU1sGv5X54_5quote9___private20IdentFragmentAdapterRRNtNtCsdGrGZaRBwMb_3syn4expr5IndexEECs71axb73f1AC_14thiserror_impl, symObjAddr: 0x60, symBinAddr: 0x59B30, symSize: 0x30 }
  - { offset: 0x12D845, size: 0x8, addend: 0x0, symName: __RINvMNtNtCsieiGu2EXtoJ_4core3fmt2rtNtB3_8Argument11new_displayINtNtCs9OU1sGv5X54_5quote9___private20IdentFragmentAdapterRmEECs71axb73f1AC_14thiserror_impl, symObjAddr: 0x90, symBinAddr: 0x59B60, symSize: 0x30 }
  - { offset: 0x12D897, size: 0x8, addend: 0x0, symName: __RINvMNtNtCsieiGu2EXtoJ_4core3fmt2rtNtB3_8Argument11new_displayNtNtNtCsdGrGZaRBwMb_3syn4attr7parsing16DisplayAttrStyleECs71axb73f1AC_14thiserror_impl, symObjAddr: 0xC0, symBinAddr: 0x59B90, symSize: 0x30 }
  - { offset: 0x12D964, size: 0x8, addend: 0x0, symName: __RINvMs3_NtNtCscKtU6MdFI5n_10proc_macro6bridge6bufferNtB6_6Buffer17extend_from_arrayKj4_ECs71axb73f1AC_14thiserror_impl, symObjAddr: 0xF0, symBinAddr: 0x59BC0, symSize: 0x1E0 }
  - { offset: 0x12DAEC, size: 0x8, addend: 0x0, symName: __RINvMs3_NtNtCscKtU6MdFI5n_10proc_macro6bridge6bufferNtB6_6Buffer17extend_from_arrayKj8_ECs71axb73f1AC_14thiserror_impl, symObjAddr: 0x2D0, symBinAddr: 0x59DA0, symSize: 0x1E0 }
  - { offset: 0x12E52B, size: 0x8, addend: 0x0, symName: __RINvMsi_NtCslJiobkLta79_5alloc3vecINtB6_3VecNtCsaKzlTDPUHDb_11proc_macro211TokenStreamE14extend_trustedINtNtNtNtCsieiGu2EXtoJ_4core4iter8adapters3map3MapINtNtNtB1M_5slice4iter4IterNtNtCs71axb73f1AC_14thiserror_impl3ast7VariantENCNvNtB2W_6expand9impl_enums1_0EEB2W_, symObjAddr: 0x4B0, symBinAddr: 0x59F80, symSize: 0x1C0 }
  - { offset: 0x12E9A9, size: 0x8, addend: 0x0, symName: __RINvMsi_NtCslJiobkLta79_5alloc3vecINtB6_3VecNtNtCs71axb73f1AC_14thiserror_impl3ast5FieldE16extend_desugaredINtNtNtCsieiGu2EXtoJ_4core4iter8adapters12GenericShuntINtNtB1K_3map3MapINtNtB1K_9enumerate9EnumerateINtNtCsdGrGZaRBwMb_3syn10punctuated4IterNtNtB3o_4data5FieldEENCNvMs2_BI_BG_17multiple_from_syn0EINtNtB1O_6result6ResultNtNtB1O_7convert10InfallibleNtNtB3o_5error5ErrorEEEBK_, symObjAddr: 0x670, symBinAddr: 0x5A140, symSize: 0x250 }
  - { offset: 0x12EE39, size: 0x8, addend: 0x0, symName: __RINvMsi_NtCslJiobkLta79_5alloc3vecINtB6_3VecNtNtCs71axb73f1AC_14thiserror_impl3ast7VariantE16extend_desugaredINtNtNtCsieiGu2EXtoJ_4core4iter8adapters12GenericShuntINtNtB1M_3map3MapINtNtCsdGrGZaRBwMb_3syn10punctuated4IterNtNtB2X_4data7VariantENCNvMs0_BI_NtBI_4Enum8from_syn0EINtNtB1Q_6result6ResultNtNtB1Q_7convert10InfallibleNtNtB2X_5error5ErrorEEEBK_, symObjAddr: 0x8C0, symBinAddr: 0x5A390, symSize: 0x250 }
  - { offset: 0x12F2BC, size: 0x8, addend: 0x0, symName: __RINvMsi_NtCslJiobkLta79_5alloc3vecINtB6_3VecRNtCsaKzlTDPUHDb_11proc_macro25IdentE16extend_desugaredINtNtNtNtCsieiGu2EXtoJ_4core4iter8adapters3map3MapNtNtCsdGrGZaRBwMb_3syn8generics10TypeParamsNCNvMNtCs71axb73f1AC_14thiserror_impl8genericsNtB39_13ParamsInScope3new0EEB3b_, symObjAddr: 0xB10, symBinAddr: 0x5A5E0, symSize: 0x230 }
  - { offset: 0x12F6A6, size: 0x8, addend: 0x0, symName: __RNvMNtCsdGrGZaRBwMb_3syn5dropsINtB2_6NoDropINtNtB4_10punctuated11PrivateIterNtNtB4_4data7VariantNtNtB4_5token5CommaEE3newCs71axb73f1AC_14thiserror_impl, symObjAddr: 0x1740, symBinAddr: 0x5B210, symSize: 0x40 }
  - { offset: 0x12F730, size: 0x8, addend: 0x0, symName: __RNvMNtCsdGrGZaRBwMb_3syn5dropsINtB2_6NoDropINtNtB4_10punctuated11PrivateIterNtNtB4_4path15GenericArgumentNtNtB4_5token5CommaEE3newCs71axb73f1AC_14thiserror_impl, symObjAddr: 0x1780, symBinAddr: 0x5B250, symSize: 0x40 }
  - { offset: 0x12F778, size: 0x8, addend: 0x0, symName: __RNvMNtCslJiobkLta79_5alloc3vecINtB2_3VecNtCsaKzlTDPUHDb_11proc_macro211TokenStreamE3newCs71axb73f1AC_14thiserror_impl, symObjAddr: 0x17C0, symBinAddr: 0x5B290, symSize: 0x30 }
  - { offset: 0x12F795, size: 0x8, addend: 0x0, symName: __RNvMNtCslJiobkLta79_5alloc3vecINtB2_3VecTNtCsaKzlTDPUHDb_11proc_macro211TokenStreamNtNtCsdGrGZaRBwMb_3syn5token4PlusEE3newCs71axb73f1AC_14thiserror_impl, symObjAddr: 0x17F0, symBinAddr: 0x5B2C0, symSize: 0x30 }
  - { offset: 0x12F7C4, size: 0x8, addend: 0x0, symName: __RNvMs3_NtNtCscKtU6MdFI5n_10proc_macro6bridge6bufferNtB5_6Buffer17extend_from_sliceCs71axb73f1AC_14thiserror_impl, symObjAddr: 0x1820, symBinAddr: 0x5B2F0, symSize: 0x1E0 }
  - { offset: 0x12F941, size: 0x8, addend: 0x0, symName: __RNvMs3_NtNtCscKtU6MdFI5n_10proc_macro6bridge6bufferNtB5_6Buffer4pushCs71axb73f1AC_14thiserror_impl, symObjAddr: 0x1A00, symBinAddr: 0x5B4D0, symSize: 0x1A0 }
  - { offset: 0x12FA09, size: 0x8, addend: 0x0, symName: __RNvMs6_NtCs9OU1sGv5X54_5quote9___privateINtB5_20IdentFragmentAdapterRNtCsaKzlTDPUHDb_11proc_macro25IdentE4spanCs71axb73f1AC_14thiserror_impl, symObjAddr: 0x1BA0, symBinAddr: 0x5B670, symSize: 0x20 }
  - { offset: 0x12FA35, size: 0x8, addend: 0x0, symName: __RNvMs6_NtCs9OU1sGv5X54_5quote9___privateINtB5_20IdentFragmentAdapterRRNtNtCsdGrGZaRBwMb_3syn4expr5IndexE4spanCs71axb73f1AC_14thiserror_impl, symObjAddr: 0x1BC0, symBinAddr: 0x5B690, symSize: 0x20 }
  - { offset: 0x12FA61, size: 0x8, addend: 0x0, symName: __RNvMs_NtCslJiobkLta79_5alloc3vecINtB4_3VecNtCsaKzlTDPUHDb_11proc_macro211TokenStreamE4pushCs71axb73f1AC_14thiserror_impl, symObjAddr: 0x1BE0, symBinAddr: 0x5B6B0, symSize: 0x20 }
  - { offset: 0x12FBD6, size: 0x8, addend: 0x0, symName: __RNvMs_NtCslJiobkLta79_5alloc3vecINtB4_3VecNtCsaKzlTDPUHDb_11proc_macro211TokenStreamE7reserveCs71axb73f1AC_14thiserror_impl, symObjAddr: 0x1C00, symBinAddr: 0x5B6D0, symSize: 0xB0 }
  - { offset: 0x12FDE7, size: 0x8, addend: 0x0, symName: __RNvMs_NtCslJiobkLta79_5alloc3vecINtB4_3VecNtCsaKzlTDPUHDb_11proc_macro211TokenStreamE8as_sliceCs71axb73f1AC_14thiserror_impl, symObjAddr: 0x1CB0, symBinAddr: 0x5B780, symSize: 0x50 }
  - { offset: 0x12FF8D, size: 0x8, addend: 0x0, symName: __RNvMs_NtCslJiobkLta79_5alloc3vecINtB4_3VecNtCsaKzlTDPUHDb_11proc_macro211TokenStreamE8push_mutCs71axb73f1AC_14thiserror_impl, symObjAddr: 0x1D00, symBinAddr: 0x5B7D0, symSize: 0x120 }
  - { offset: 0x130142, size: 0x8, addend: 0x0, symName: __RNvMs_NtCslJiobkLta79_5alloc3vecINtB4_3VecNtNtCs71axb73f1AC_14thiserror_impl3ast5FieldE3lenBI_, symObjAddr: 0x1E20, symBinAddr: 0x5B8F0, symSize: 0x10 }
  - { offset: 0x13028D, size: 0x8, addend: 0x0, symName: __RNvMs_NtCslJiobkLta79_5alloc3vecINtB4_3VecNtNtCs71axb73f1AC_14thiserror_impl3ast5FieldE7reserveBI_, symObjAddr: 0x1E30, symBinAddr: 0x5B900, symSize: 0xB0 }
  - { offset: 0x130491, size: 0x8, addend: 0x0, symName: __RNvMs_NtCslJiobkLta79_5alloc3vecINtB4_3VecNtNtCs71axb73f1AC_14thiserror_impl3ast5FieldE8as_sliceBI_, symObjAddr: 0x1EE0, symBinAddr: 0x5B9B0, symSize: 0x50 }
  - { offset: 0x130661, size: 0x8, addend: 0x0, symName: __RNvMs_NtCslJiobkLta79_5alloc3vecINtB4_3VecNtNtCs71axb73f1AC_14thiserror_impl3ast7VariantE7reserveBI_, symObjAddr: 0x1F30, symBinAddr: 0x5BA00, symSize: 0xB0 }
  - { offset: 0x130865, size: 0x8, addend: 0x0, symName: __RNvMs_NtCslJiobkLta79_5alloc3vecINtB4_3VecNtNtCs71axb73f1AC_14thiserror_impl3ast7VariantE8as_sliceBI_, symObjAddr: 0x1FE0, symBinAddr: 0x5BAB0, symSize: 0x50 }
  - { offset: 0x130944, size: 0x8, addend: 0x0, symName: __RNvMs_NtCslJiobkLta79_5alloc3vecINtB4_3VecNtNtCs71axb73f1AC_14thiserror_impl3ast7VariantE8is_emptyBI_, symObjAddr: 0x2030, symBinAddr: 0x5BB00, symSize: 0x20 }
  - { offset: 0x130AAD, size: 0x8, addend: 0x0, symName: __RNvMs_NtCslJiobkLta79_5alloc3vecINtB4_3VecRNtCsaKzlTDPUHDb_11proc_macro25IdentE7reserveCs71axb73f1AC_14thiserror_impl, symObjAddr: 0x2050, symBinAddr: 0x5BB20, symSize: 0xB0 }
  - { offset: 0x130C27, size: 0x8, addend: 0x0, symName: __RNvMs_NtCslJiobkLta79_5alloc3vecINtB4_3VecTNtCsaKzlTDPUHDb_11proc_macro211TokenStreamNtNtCsdGrGZaRBwMb_3syn5token4PlusEE4pushCs71axb73f1AC_14thiserror_impl, symObjAddr: 0x2100, symBinAddr: 0x5BBD0, symSize: 0x20 }
  - { offset: 0x130D37, size: 0x8, addend: 0x0, symName: __RNvMs_NtCslJiobkLta79_5alloc3vecINtB4_3VecTNtCsaKzlTDPUHDb_11proc_macro211TokenStreamNtNtCsdGrGZaRBwMb_3syn5token4PlusEE8as_sliceCs71axb73f1AC_14thiserror_impl, symObjAddr: 0x2120, symBinAddr: 0x5BBF0, symSize: 0x50 }
  - { offset: 0x130EDD, size: 0x8, addend: 0x0, symName: __RNvMs_NtCslJiobkLta79_5alloc3vecINtB4_3VecTNtCsaKzlTDPUHDb_11proc_macro211TokenStreamNtNtCsdGrGZaRBwMb_3syn5token4PlusEE8push_mutCs71axb73f1AC_14thiserror_impl, symObjAddr: 0x2170, symBinAddr: 0x5BC40, symSize: 0x130 }
  - { offset: 0x1315FF, size: 0x8, addend: 0x0, symName: __RNvXs1_NtCsjK30CmJ87bX_9hashbrown10scopeguardINtB5_10ScopeGuardNtNtB7_3raw13RawTableInnerNCINvMsa_B11_BZ_14prepare_resizeNtNtCslJiobkLta79_5alloc5alloc6GlobalE0ENtNtNtCsieiGu2EXtoJ_4core3ops4drop4Drop4dropCs71axb73f1AC_14thiserror_impl, symObjAddr: 0x2E80, symBinAddr: 0x5C950, symSize: 0x20 }
  - { offset: 0x131639, size: 0x8, addend: 0x0, symName: __RNvXs1_NtCsjK30CmJ87bX_9hashbrown10scopeguardINtB5_10ScopeGuardQNtNtB7_3raw13RawTableInnerNCNvMsa_B12_B10_15rehash_in_place0ENtNtNtCsieiGu2EXtoJ_4core3ops4drop4Drop4dropCs71axb73f1AC_14thiserror_impl, symObjAddr: 0x2EA0, symBinAddr: 0x5C970, symSize: 0x30 }
  - { offset: 0x13256F, size: 0x8, addend: 0x0, symName: __RINvNtNtCscKtU6MdFI5n_10proc_macro6bridge6client10run_clientNtB2_11TokenStreamINtNtCsieiGu2EXtoJ_4core6option6OptionBW_ENCNCINvMs6_B2_INtB2_6ClientNtB6_11TokenStreamB2l_E7expand1NvCs71axb73f1AC_14thiserror_impl12derive_errorE00EB2S_, symObjAddr: 0x0, symBinAddr: 0x5D420, symSize: 0x2E0 }
  - { offset: 0x133140, size: 0x8, addend: 0x0, symName: __RNvXsh_NtCsdGrGZaRBwMb_3syn5parseNvNtCs71axb73f1AC_14thiserror_impl3fmt19explicit_named_argsNtB5_6Parser6parse2Bz_, symObjAddr: 0x3D80, symBinAddr: 0x611A0, symSize: 0x420 }
  - { offset: 0x137E73, size: 0x8, addend: 0x0, symName: __RNvXsw_NtCslJiobkLta79_5alloc6stringNtNtCsdGrGZaRBwMb_3syn3lit8LitFloatNtB5_8ToString9to_stringCs71axb73f1AC_14thiserror_impl, symObjAddr: 0x4340, symBinAddr: 0x61760, symSize: 0x30 }
  - { offset: 0x137EB0, size: 0x8, addend: 0x0, symName: __RNvXsx_NtCslJiobkLta79_5alloc6stringNtNtCsdGrGZaRBwMb_3syn3lit8LitFloatNtB5_12SpecToString14spec_to_stringCs71axb73f1AC_14thiserror_impl, symObjAddr: 0x4370, symBinAddr: 0x61790, symSize: 0x120 }
  - { offset: 0x13874C, size: 0x8, addend: 0x0, symName: __RNCNvMs6_NtNtNtNtCslJiobkLta79_5alloc11collections5btree3map5entryINtB7_11VacantEntryNtCsaKzlTDPUHDb_11proc_macro25IdentNtNtBb_7set_val9SetValZSTE12insert_entry0Cs71axb73f1AC_14thiserror_impl, symObjAddr: 0x770, symBinAddr: 0x5DB90, symSize: 0x170 }
  - { offset: 0x1388AB, size: 0x8, addend: 0x0, symName: __RNCNvMs6_NtNtNtNtCslJiobkLta79_5alloc11collections5btree3map5entryINtB7_11VacantEntryNtNtBf_6string6StringNtNtBb_7set_val9SetValZSTE12insert_entry0Cs71axb73f1AC_14thiserror_impl, symObjAddr: 0x8E0, symBinAddr: 0x5DD00, symSize: 0x170 }
  - { offset: 0x138A0A, size: 0x8, addend: 0x0, symName: __RNCNvMs6_NtNtNtNtCslJiobkLta79_5alloc11collections5btree3map5entryINtB7_11VacantEntryNtNtBf_6string6StringTINtNtBb_3set8BTreeSetB1l_EINtNtCsdGrGZaRBwMb_3syn10punctuated10PunctuatedNtCsaKzlTDPUHDb_11proc_macro211TokenStreamNtNtB2c_5token4PlusEEE12insert_entry0Cs71axb73f1AC_14thiserror_impl, symObjAddr: 0xA50, symBinAddr: 0x5DE70, symSize: 0x1E0 }
  - { offset: 0x138B69, size: 0x8, addend: 0x0, symName: __RNCNvMs6_NtNtNtNtCslJiobkLta79_5alloc11collections5btree3map5entryINtB7_11VacantEntryTjNtNtCs71axb73f1AC_14thiserror_impl4attr5TraitENtNtBb_7set_val9SetValZSTE12insert_entry0B1r_, symObjAddr: 0xC30, symBinAddr: 0x5E050, symSize: 0x130 }
  - { offset: 0x13A937, size: 0x8, addend: 0x0, symName: __RNvNtCslJiobkLta79_5alloc3fmt6formatCs71axb73f1AC_14thiserror_impl, symObjAddr: 0x38C0, symBinAddr: 0x60CE0, symSize: 0xC0 }
  - { offset: 0x13AF90, size: 0x8, addend: 0x0, symName: __RNCINvNtNtCscKtU6MdFI5n_10proc_macro6bridge6client10run_clientNtB4_11TokenStreamINtNtCsieiGu2EXtoJ_4core6option6OptionBY_ENCNCINvMs6_B4_INtB4_6ClientNtB8_11TokenStreamB2n_E7expand1NvCs71axb73f1AC_14thiserror_impl12derive_errorE00E0B2U_, symObjAddr: 0x310, symBinAddr: 0x5D730, symSize: 0x420 }
  - { offset: 0x13B1B6, size: 0x8, addend: 0x0, symName: __RNCNCINvNtNtCscKtU6MdFI5n_10proc_macro6bridge6client10run_clientNtB6_11TokenStreamINtNtCsieiGu2EXtoJ_4core6option6OptionB10_ENCNCINvMs6_B6_INtB6_6ClientNtBa_11TokenStreamB2q_E7expand1NvCs71axb73f1AC_14thiserror_impl12derive_errorE00E00B2X_, symObjAddr: 0x750, symBinAddr: 0x5DB70, symSize: 0x20 }
  - { offset: 0x13B236, size: 0x8, addend: 0x0, symName: __RNCNCINvMs6_NtNtCscKtU6MdFI5n_10proc_macro6bridge6clientINtBa_6ClientNtBe_11TokenStreamB15_E7expand1NvCs71axb73f1AC_14thiserror_impl12derive_errorE00B1C_, symObjAddr: 0x730, symBinAddr: 0x5DB50, symSize: 0x20 }
  - { offset: 0x13B27F, size: 0x8, addend: 0x0, symName: __RNCINvMs6_NtNtCscKtU6MdFI5n_10proc_macro6bridge6clientINtB8_6ClientNtBc_11TokenStreamB13_E7expand1NvCs71axb73f1AC_14thiserror_impl12derive_errorE0B1A_, symObjAddr: 0x2E0, symBinAddr: 0x5D700, symSize: 0x30 }
  - { offset: 0x13B2EB, size: 0x8, addend: 0x0, symName: __RINvNtNtCscKtU6MdFI5n_10proc_macro6bridge6client10run_clientNtB2_11TokenStreamINtNtCsieiGu2EXtoJ_4core6option6OptionBW_ENCNCINvMs6_B2_INtB2_6ClientNtB6_11TokenStreamB2l_E7expand1NvCs71axb73f1AC_14thiserror_impl12derive_errorE00EB2S_, symObjAddr: 0x0, symBinAddr: 0x5D420, symSize: 0x2E0 }
  - { offset: 0x13B507, size: 0x8, addend: 0x0, symName: __RNvXsf_NtNtCscKtU6MdFI5n_10proc_macro6bridge6clientNtB5_11TokenStreamINtNtB7_3rpc6EncodeuE6encodeCs71axb73f1AC_14thiserror_impl, symObjAddr: 0x3D40, symBinAddr: 0x61160, symSize: 0x40 }
  - { offset: 0x13B618, size: 0x8, addend: 0x0, symName: __RNvXsi_NtNtCscKtU6MdFI5n_10proc_macro6bridge6clientNtB5_11TokenStreamINtNtB7_3rpc9DecodeMutuE6decodeCs71axb73f1AC_14thiserror_impl, symObjAddr: 0x4300, symBinAddr: 0x61720, symSize: 0x20 }
  - { offset: 0x13B661, size: 0x8, addend: 0x0, symName: __RNvXsk_NtNtCscKtU6MdFI5n_10proc_macro6bridge6clientNtB5_4SpanINtNtB7_3rpc9DecodeMutuE6decodeCs71axb73f1AC_14thiserror_impl, symObjAddr: 0x4320, symBinAddr: 0x61740, symSize: 0x20 }
  - { offset: 0x13F7F7, size: 0x8, addend: 0x0, symName: __RNvXs5_NtNtCsieiGu2EXtoJ_4core5slice5indexINtNtNtB9_3ops5range9RangeFromjEINtB5_10SliceIndexSRNtCsaKzlTDPUHDb_11proc_macro25IdentE9index_mutCs71axb73f1AC_14thiserror_impl, symObjAddr: 0x3BC0, symBinAddr: 0x60FE0, symSize: 0x90 }
  - { offset: 0x13FBA2, size: 0x8, addend: 0x0, symName: __RNvNtNtCsieiGu2EXtoJ_4core4char7methods25encode_utf8_raw_uncheckedCs71axb73f1AC_14thiserror_impl, symObjAddr: 0x3980, symBinAddr: 0x60DA0, symSize: 0x140 }
  - { offset: 0x13FDE7, size: 0x8, addend: 0x0, symName: __RNvXs3_NtNtCsieiGu2EXtoJ_4core4iter5rangeINtNtNtB9_3ops5range5RangejENtB5_17RangeIteratorImpl9spec_nextCs71axb73f1AC_14thiserror_impl, symObjAddr: 0x3B20, symBinAddr: 0x60F40, symSize: 0x80 }
  - { offset: 0x13FE68, size: 0x8, addend: 0x0, symName: __RNvXs4_NtNtCsieiGu2EXtoJ_4core4iter5rangeINtNtNtB9_3ops5range5RangejENtNtNtB7_6traits8iterator8Iterator4nextCs71axb73f1AC_14thiserror_impl, symObjAddr: 0x3BA0, symBinAddr: 0x60FC0, symSize: 0x20 }
  - { offset: 0x13FECC, size: 0x8, addend: 0x0, symName: __RNvXsc_NtNtCsieiGu2EXtoJ_4core4iter5rangeINtNtNtB9_3ops5range14RangeInclusivejENtB5_26RangeInclusiveIteratorImpl9spec_nextCs71axb73f1AC_14thiserror_impl, symObjAddr: 0x3C50, symBinAddr: 0x61070, symSize: 0xD0 }
  - { offset: 0x13FFCD, size: 0x8, addend: 0x0, symName: __RNvXsd_NtNtCsieiGu2EXtoJ_4core4iter5rangeINtNtNtB9_3ops5range14RangeInclusivejENtNtNtB7_6traits8iterator8Iterator4nextCs71axb73f1AC_14thiserror_impl, symObjAddr: 0x3D20, symBinAddr: 0x61140, symSize: 0x20 }
  - { offset: 0x140054, size: 0x8, addend: 0x0, symName: __RNvXsh_NtNtNtCsieiGu2EXtoJ_4core4iter8adapters7step_byINtNtNtBb_3ops5range5RangejEINtB5_14SpecRangeSetupBQ_E5setupCs71axb73f1AC_14thiserror_impl, symObjAddr: 0x41A0, symBinAddr: 0x615C0, symSize: 0x160 }
  - { offset: 0x14034A, size: 0x8, addend: 0x0, symName: __RNvNtCs71axb73f1AC_14thiserror_impl3fmt10take_ident, symObjAddr: 0x1F20, symBinAddr: 0x5F340, symSize: 0x3F0 }
  - { offset: 0x140414, size: 0x8, addend: 0x0, symName: __RNvNtCs71axb73f1AC_14thiserror_impl3fmt11is_syn_full, symObjAddr: 0x2310, symBinAddr: 0x5F730, symSize: 0x230 }
  - { offset: 0x14047C, size: 0x8, addend: 0x0, symName: __RNvNtCs71axb73f1AC_14thiserror_impl3fmt19explicit_named_args, symObjAddr: 0x2540, symBinAddr: 0x5F960, symSize: 0x580 }
  - { offset: 0x140538, size: 0x8, addend: 0x0, symName: __RNvNtCs71axb73f1AC_14thiserror_impl3fmt23try_explicit_named_args, symObjAddr: 0x2AC0, symBinAddr: 0x5FEE0, symSize: 0x670 }
  - { offset: 0x14063A, size: 0x8, addend: 0x0, symName: __RNvNtCs71axb73f1AC_14thiserror_impl3fmt28fallback_explicit_named_args, symObjAddr: 0x3130, symBinAddr: 0x60550, symSize: 0x5B0 }
  - { offset: 0x14072E, size: 0x8, addend: 0x0, symName: __RNvNtCs71axb73f1AC_14thiserror_impl3fmt8take_int, symObjAddr: 0x36E0, symBinAddr: 0x60B00, symSize: 0x1E0 }
  - { offset: 0x141202, size: 0x8, addend: 0x0, symName: __RNvMs5_NtNtNtNtCslJiobkLta79_5alloc11collections5btree3map5entryINtB5_5EntryNtNtBd_6string6StringTINtNtB9_3set8BTreeSetB1c_EINtNtCsdGrGZaRBwMb_3syn10punctuated10PunctuatedNtCsaKzlTDPUHDb_11proc_macro211TokenStreamNtNtB23_5token4PlusEEE10or_defaultCs71axb73f1AC_14thiserror_impl, symObjAddr: 0xD60, symBinAddr: 0x5E180, symSize: 0x1C0 }
  - { offset: 0x1414D4, size: 0x8, addend: 0x0, symName: __RNvMs6_NtNtNtNtCslJiobkLta79_5alloc11collections5btree3map5entryINtB5_11VacantEntryNtCsaKzlTDPUHDb_11proc_macro25IdentNtNtB9_7set_val9SetValZSTE12insert_entryCs71axb73f1AC_14thiserror_impl, symObjAddr: 0xF20, symBinAddr: 0x5E340, symSize: 0x360 }
  - { offset: 0x141996, size: 0x8, addend: 0x0, symName: __RNvMs6_NtNtNtNtCslJiobkLta79_5alloc11collections5btree3map5entryINtB5_11VacantEntryNtNtBd_6string6StringNtNtB9_7set_val9SetValZSTE12insert_entryCs71axb73f1AC_14thiserror_impl, symObjAddr: 0x1280, symBinAddr: 0x5E6A0, symSize: 0x360 }
  - { offset: 0x141E4B, size: 0x8, addend: 0x0, symName: __RNvMs6_NtNtNtNtCslJiobkLta79_5alloc11collections5btree3map5entryINtB5_11VacantEntryNtNtBd_6string6StringTINtNtB9_3set8BTreeSetB1j_EINtNtCsdGrGZaRBwMb_3syn10punctuated10PunctuatedNtCsaKzlTDPUHDb_11proc_macro211TokenStreamNtNtB2a_5token4PlusEEE12insert_entryCs71axb73f1AC_14thiserror_impl, symObjAddr: 0x15E0, symBinAddr: 0x5EA00, symSize: 0x430 }
  - { offset: 0x14230D, size: 0x8, addend: 0x0, symName: __RNvMs6_NtNtNtNtCslJiobkLta79_5alloc11collections5btree3map5entryINtB5_11VacantEntryTjNtNtCs71axb73f1AC_14thiserror_impl4attr5TraitENtNtB9_7set_val9SetValZSTE12insert_entryB1p_, symObjAddr: 0x1A10, symBinAddr: 0x5EE30, symSize: 0x310 }
  - { offset: 0x142600, size: 0x8, addend: 0x0, symName: __RNvMs7_NtNtNtNtCslJiobkLta79_5alloc11collections5btree3map5entryINtB5_13OccupiedEntryNtCsaKzlTDPUHDb_11proc_macro25IdentNtNtB9_7set_val9SetValZSTE6insertCs71axb73f1AC_14thiserror_impl, symObjAddr: 0x1D20, symBinAddr: 0x5F140, symSize: 0x40 }
  - { offset: 0x142663, size: 0x8, addend: 0x0, symName: __RNvMs7_NtNtNtNtCslJiobkLta79_5alloc11collections5btree3map5entryINtB5_13OccupiedEntryNtCsaKzlTDPUHDb_11proc_macro25IdentNtNtB9_7set_val9SetValZSTE8into_mutCs71axb73f1AC_14thiserror_impl, symObjAddr: 0x1D60, symBinAddr: 0x5F180, symSize: 0x50 }
  - { offset: 0x1426DD, size: 0x8, addend: 0x0, symName: __RNvMs7_NtNtNtNtCslJiobkLta79_5alloc11collections5btree3map5entryINtB5_13OccupiedEntryNtNtBd_6string6StringNtNtB9_7set_val9SetValZSTE6insertCs71axb73f1AC_14thiserror_impl, symObjAddr: 0x1DB0, symBinAddr: 0x5F1D0, symSize: 0x40 }
  - { offset: 0x142740, size: 0x8, addend: 0x0, symName: __RNvMs7_NtNtNtNtCslJiobkLta79_5alloc11collections5btree3map5entryINtB5_13OccupiedEntryNtNtBd_6string6StringNtNtB9_7set_val9SetValZSTE8into_mutCs71axb73f1AC_14thiserror_impl, symObjAddr: 0x1DF0, symBinAddr: 0x5F210, symSize: 0x50 }
  - { offset: 0x14277F, size: 0x8, addend: 0x0, symName: __RNvMs7_NtNtNtNtCslJiobkLta79_5alloc11collections5btree3map5entryINtB5_13OccupiedEntryNtNtBd_6string6StringTINtNtB9_3set8BTreeSetB1l_EINtNtCsdGrGZaRBwMb_3syn10punctuated10PunctuatedNtCsaKzlTDPUHDb_11proc_macro211TokenStreamNtNtB2c_5token4PlusEEE8into_mutCs71axb73f1AC_14thiserror_impl, symObjAddr: 0x1E40, symBinAddr: 0x5F260, symSize: 0x50 }
  - { offset: 0x1427F9, size: 0x8, addend: 0x0, symName: __RNvMs7_NtNtNtNtCslJiobkLta79_5alloc11collections5btree3map5entryINtB5_13OccupiedEntryTjNtNtCs71axb73f1AC_14thiserror_impl4attr5TraitENtNtB9_7set_val9SetValZSTE6insertB1r_, symObjAddr: 0x1E90, symBinAddr: 0x5F2B0, symSize: 0x40 }
  - { offset: 0x14285C, size: 0x8, addend: 0x0, symName: __RNvMs7_NtNtNtNtCslJiobkLta79_5alloc11collections5btree3map5entryINtB5_13OccupiedEntryTjNtNtCs71axb73f1AC_14thiserror_impl4attr5TraitENtNtB9_7set_val9SetValZSTE8into_mutB1r_, symObjAddr: 0x1ED0, symBinAddr: 0x5F2F0, symSize: 0x50 }
  - { offset: 0x142A60, size: 0x8, addend: 0x0, symName: __RNvXNtCs9OU1sGv5X54_5quote9to_tokensRNtNtCsdGrGZaRBwMb_3syn3lit6LitStrNtB2_8ToTokens9to_tokensCs71axb73f1AC_14thiserror_impl, symObjAddr: 0x3AC0, symBinAddr: 0x60EE0, symSize: 0x30 }
  - { offset: 0x142A9F, size: 0x8, addend: 0x0, symName: __RNvXNtCs9OU1sGv5X54_5quote9to_tokensRNtNtCsdGrGZaRBwMb_3syn6derive11DeriveInputNtB2_8ToTokens9to_tokensCs71axb73f1AC_14thiserror_impl, symObjAddr: 0x3AF0, symBinAddr: 0x60F10, symSize: 0x30 }
  - { offset: 0x142AE4, size: 0x8, addend: 0x0, symName: __RNvYRNtNtCsdGrGZaRBwMb_3syn6derive11DeriveInputNtNtCs9OU1sGv5X54_5quote9to_tokens8ToTokens15to_token_streamCs71axb73f1AC_14thiserror_impl, symObjAddr: 0x4490, symBinAddr: 0x618B0, symSize: 0x90 }
  - { offset: 0x142B2E, size: 0x8, addend: 0x0, symName: __RNvYRNtNtCsdGrGZaRBwMb_3syn6derive11DeriveInputNtNtCs9OU1sGv5X54_5quote9to_tokens8ToTokens17into_token_streamCs71axb73f1AC_14thiserror_impl, symObjAddr: 0x4520, symBinAddr: 0x61940, symSize: 0x50 }
  - { offset: 0x14327A, size: 0x8, addend: 0x0, symName: __RINvXNvMNtCslJiobkLta79_5alloc5sliceSp9to_vec_inNtNtCsdGrGZaRBwMb_3syn4item11ForeignItemNtB3_10ConvertVec6to_vecNtNtB8_5alloc6GlobalEBO_, symObjAddr: 0x0, symBinAddr: 0x61A40, symSize: 0x490 }
  - { offset: 0x144A6E, size: 0x8, addend: 0x0, symName: __RINvXNvMNtCslJiobkLta79_5alloc5sliceSp9to_vec_inNtNtCsdGrGZaRBwMb_3syn4item11ForeignItemNtB3_10ConvertVec6to_vecNtNtB8_5alloc6GlobalEBO_, symObjAddr: 0x0, symBinAddr: 0x61A40, symSize: 0x490 }
  - { offset: 0x144FC2, size: 0x8, addend: 0x0, symName: __RINvXNvMNtCslJiobkLta79_5alloc5sliceSp9to_vec_inNtNtCsdGrGZaRBwMb_3syn4item4ItemNtB3_10ConvertVec6to_vecNtNtB8_5alloc6GlobalEBO_, symObjAddr: 0x490, symBinAddr: 0x61ED0, symSize: 0x490 }
  - { offset: 0x145516, size: 0x8, addend: 0x0, symName: __RINvXNvMNtCslJiobkLta79_5alloc5sliceSp9to_vec_inNtNtCsdGrGZaRBwMb_3syn4item8ImplItemNtB3_10ConvertVec6to_vecNtNtB8_5alloc6GlobalEBO_, symObjAddr: 0x920, symBinAddr: 0x62360, symSize: 0x490 }
  - { offset: 0x145A6A, size: 0x8, addend: 0x0, symName: __RINvXNvMNtCslJiobkLta79_5alloc5sliceSp9to_vec_inNtNtCsdGrGZaRBwMb_3syn4item9TraitItemNtB3_10ConvertVec6to_vecNtNtB8_5alloc6GlobalEBO_, symObjAddr: 0xDB0, symBinAddr: 0x627F0, symSize: 0x490 }
  - { offset: 0x145FBE, size: 0x8, addend: 0x0, symName: __RINvXNvMNtCslJiobkLta79_5alloc5sliceSp9to_vec_inTNtNtCsdGrGZaRBwMb_3syn4item5FnArgNtNtBP_5token5CommaENtB3_10ConvertVec6to_vecNtNtB8_5alloc6GlobalEBP_, symObjAddr: 0x1240, symBinAddr: 0x62C80, symSize: 0x490 }
  - { offset: 0x146512, size: 0x8, addend: 0x0, symName: __RINvXNvMNtCslJiobkLta79_5alloc5sliceSp9to_vec_inTNtNtCsdGrGZaRBwMb_3syn4item7UseTreeNtNtBP_5token5CommaENtB3_10ConvertVec6to_vecNtNtB8_5alloc6GlobalEBP_, symObjAddr: 0x16D0, symBinAddr: 0x63110, symSize: 0x490 }
  - { offset: 0x14B042, size: 0x8, addend: 0x0, symName: __RNcNtNtNtCsdGrGZaRBwMb_3syn4item11ForeignItem5Macro0B7_, symObjAddr: 0x1B60, symBinAddr: 0x635A0, symSize: 0x40 }
  - { offset: 0x14B079, size: 0x8, addend: 0x0, symName: __RNcNtNtNtCsdGrGZaRBwMb_3syn4item16StaticMutability3Mut0B7_, symObjAddr: 0x1BA0, symBinAddr: 0x635E0, symSize: 0x10 }
  - { offset: 0x14B0AF, size: 0x8, addend: 0x0, symName: __RNcNtNtNtCsdGrGZaRBwMb_3syn4item4Item10ForeignMod0B7_, symObjAddr: 0x1BB0, symBinAddr: 0x635F0, symSize: 0x40 }
  - { offset: 0x14B0DE, size: 0x8, addend: 0x0, symName: __RNcNtNtNtCsdGrGZaRBwMb_3syn4item4Item10TraitAlias0B7_, symObjAddr: 0x1BF0, symBinAddr: 0x63630, symSize: 0x40 }
  - { offset: 0x14B10D, size: 0x8, addend: 0x0, symName: __RNcNtNtNtCsdGrGZaRBwMb_3syn4item4Item11ExternCrate0B7_, symObjAddr: 0x1C30, symBinAddr: 0x63670, symSize: 0x40 }
  - { offset: 0x14B13C, size: 0x8, addend: 0x0, symName: __RNcNtNtNtCsdGrGZaRBwMb_3syn4item4Item2Fn0B7_, symObjAddr: 0x1C70, symBinAddr: 0x636B0, symSize: 0x30 }
  - { offset: 0x14B16B, size: 0x8, addend: 0x0, symName: __RNcNtNtNtCsdGrGZaRBwMb_3syn4item4Item3Mod0B7_, symObjAddr: 0x1CA0, symBinAddr: 0x636E0, symSize: 0x40 }
  - { offset: 0x14B19A, size: 0x8, addend: 0x0, symName: __RNcNtNtNtCsdGrGZaRBwMb_3syn4item4Item4Enum0B7_, symObjAddr: 0x1CE0, symBinAddr: 0x63720, symSize: 0x40 }
  - { offset: 0x14B1C9, size: 0x8, addend: 0x0, symName: __RNcNtNtNtCsdGrGZaRBwMb_3syn4item4Item5Macro0B7_, symObjAddr: 0x1D20, symBinAddr: 0x63760, symSize: 0x40 }
  - { offset: 0x14B1F8, size: 0x8, addend: 0x0, symName: __RNcNtNtNtCsdGrGZaRBwMb_3syn4item4Item5Trait0B7_, symObjAddr: 0x1D60, symBinAddr: 0x637A0, symSize: 0x40 }
  - { offset: 0x14B227, size: 0x8, addend: 0x0, symName: __RNcNtNtNtCsdGrGZaRBwMb_3syn4item4Item5Union0B7_, symObjAddr: 0x1DA0, symBinAddr: 0x637E0, symSize: 0x40 }
  - { offset: 0x14B256, size: 0x8, addend: 0x0, symName: __RNcNtNtNtCsdGrGZaRBwMb_3syn4item4Item6Struct0B7_, symObjAddr: 0x1DE0, symBinAddr: 0x63820, symSize: 0x40 }
  - { offset: 0x14B28B, size: 0x8, addend: 0x0, symName: __RNcNtNtNtCsdGrGZaRBwMb_3syn4item8ImplItem5Macro0B7_, symObjAddr: 0x1E20, symBinAddr: 0x63860, symSize: 0x40 }
  - { offset: 0x14B2C2, size: 0x8, addend: 0x0, symName: __RNcNtNtNtCsdGrGZaRBwMb_3syn4item9TraitItem2Fn0B7_, symObjAddr: 0x1E60, symBinAddr: 0x638A0, symSize: 0x40 }
  - { offset: 0x14B2F3, size: 0x8, addend: 0x0, symName: __RNcNtNtNtCsdGrGZaRBwMb_3syn4item9TraitItem5Macro0B7_, symObjAddr: 0x1EA0, symBinAddr: 0x638E0, symSize: 0x40 }
  - { offset: 0x14B32A, size: 0x8, addend: 0x0, symName: __RNvXNtNtCsdGrGZaRBwMb_3syn4item7parsingNtB4_4ItemNtNtB6_5parse5Parse5parse, symObjAddr: 0x45C0, symBinAddr: 0x63D20, symSize: 0x220 }
  - { offset: 0x14B3D2, size: 0x8, addend: 0x0, symName: __RNvXs0_NtNtCsdGrGZaRBwMb_3syn4item7parsingNtB7_9ItemMacroNtNtB9_5parse5Parse5parse, symObjAddr: 0x4970, symBinAddr: 0x640D0, symSize: 0x900 }
  - { offset: 0x14B5A0, size: 0x8, addend: 0x0, symName: __RNvXs1_NtNtCsdGrGZaRBwMb_3syn4item7parsingNtB7_15ItemExternCrateNtNtB9_5parse5Parse5parse, symObjAddr: 0x61D0, symBinAddr: 0x65450, symSize: 0xC80 }
  - { offset: 0x14B7AA, size: 0x8, addend: 0x0, symName: __RNvXs3_NtNtCsdGrGZaRBwMb_3syn4item7parsingNtB7_7UseTreeNtNtB9_5parse5Parse5parse, symObjAddr: 0xF1E0, symBinAddr: 0x6ACC0, symSize: 0x50 }
  - { offset: 0x14B7FC, size: 0x8, addend: 0x0, symName: __RNvXs6_NtNtCsdGrGZaRBwMb_3syn4item7parsingNtB7_9SignatureNtNtB9_5parse5Parse5parse, symObjAddr: 0x127D0, symBinAddr: 0x6AF80, symSize: 0x60 }
  - { offset: 0x14B84E, size: 0x8, addend: 0x0, symName: __RNvXsa_NtNtCsdGrGZaRBwMb_3syn4item7parsingNtB7_7ItemModNtNtB9_5parse5Parse5parse, symObjAddr: 0x14920, symBinAddr: 0x6B6E0, symSize: 0x10F0 }
  - { offset: 0x14BAB1, size: 0x8, addend: 0x0, symName: __RNvXsb_NtNtCsdGrGZaRBwMb_3syn4item7parsingNtB7_14ItemForeignModNtNtB9_5parse5Parse5parse, symObjAddr: 0x15B30, symBinAddr: 0x6C8B0, symSize: 0x7D0 }
  - { offset: 0x14BC63, size: 0x8, addend: 0x0, symName: __RNvXsc_NtNtCsdGrGZaRBwMb_3syn4item7parsingNtB7_11ForeignItemNtNtB9_5parse5Parse5parse, symObjAddr: 0x164A0, symBinAddr: 0x6D1E0, symSize: 0x22C0 }
  - { offset: 0x14C2DD, size: 0x8, addend: 0x0, symName: __RNvXsg_NtNtCsdGrGZaRBwMb_3syn4item7parsingNtB7_16ForeignItemMacroNtNtB9_5parse5Parse5parse, symObjAddr: 0x1A410, symBinAddr: 0x6F6A0, symSize: 0x410 }
  - { offset: 0x14C3F1, size: 0x8, addend: 0x0, symName: __RNvXsi_NtNtCsdGrGZaRBwMb_3syn4item7parsingNtB7_10ItemStructNtNtB9_5parse5Parse5parse, symObjAddr: 0x1B5E0, symBinAddr: 0x6FB10, symSize: 0x960 }
  - { offset: 0x14C5EE, size: 0x8, addend: 0x0, symName: __RNvXsj_NtNtCsdGrGZaRBwMb_3syn4item7parsingNtB7_8ItemEnumNtNtB9_5parse5Parse5parse, symObjAddr: 0x1C090, symBinAddr: 0x70580, symSize: 0x940 }
  - { offset: 0x14C7EB, size: 0x8, addend: 0x0, symName: __RNvXsk_NtNtCsdGrGZaRBwMb_3syn4item7parsingNtB7_9ItemUnionNtNtB9_5parse5Parse5parse, symObjAddr: 0x1CD40, symBinAddr: 0x71230, symSize: 0x940 }
  - { offset: 0x14C9D7, size: 0x8, addend: 0x0, symName: __RNvXsl_NtNtCsdGrGZaRBwMb_3syn4item7parsingNtB7_9ItemTraitNtNtB9_5parse5Parse5parse, symObjAddr: 0x1D820, symBinAddr: 0x71CD0, symSize: 0x860 }
  - { offset: 0x14CBDE, size: 0x8, addend: 0x0, symName: __RNvXsn_NtNtCsdGrGZaRBwMb_3syn4item7parsingNtB7_9TraitItemNtNtB9_5parse5Parse5parse, symObjAddr: 0x1E5A0, symBinAddr: 0x726A0, symSize: 0x19C0 }
  - { offset: 0x14D05E, size: 0x8, addend: 0x0, symName: __RNvXsp_NtNtCsdGrGZaRBwMb_3syn4item7parsingNtB7_11TraitItemFnNtNtB9_5parse5Parse5parse, symObjAddr: 0x20C80, symBinAddr: 0x74200, symSize: 0xAF0 }
  - { offset: 0x14D26A, size: 0x8, addend: 0x0, symName: __RNvXsr_NtNtCsdGrGZaRBwMb_3syn4item7parsingNtB7_14TraitItemMacroNtNtB9_5parse5Parse5parse, symObjAddr: 0x225F0, symBinAddr: 0x74EB0, symSize: 0x410 }
  - { offset: 0x14D37E, size: 0x8, addend: 0x0, symName: __RNvXst_NtNtCsdGrGZaRBwMb_3syn4item7parsingNtB7_8ImplItemNtNtB9_5parse5Parse5parse, symObjAddr: 0x22C60, symBinAddr: 0x75440, symSize: 0x1CB0 }
  - { offset: 0x14D885, size: 0x8, addend: 0x0, symName: __RNvXsx_NtNtCsdGrGZaRBwMb_3syn4item7parsingNtB7_13ImplItemMacroNtNtB9_5parse5Parse5parse, symObjAddr: 0x26A90, symBinAddr: 0x77840, symSize: 0x410 }
  - { offset: 0x14D999, size: 0x8, addend: 0x0, symName: __RNvXsz_NtNtCsdGrGZaRBwMb_3syn4item7parsingNtB7_16StaticMutabilityNtNtB9_5parse5Parse5parse, symObjAddr: 0x26F70, symBinAddr: 0x77CA0, symSize: 0xD0 }
  - { offset: 0x14DA0F, size: 0x8, addend: 0x0, symName: __RNvXNtNtCsdGrGZaRBwMb_3syn4item8printingNtB4_15ItemExternCrateNtNtCs9OU1sGv5X54_5quote9to_tokens8ToTokens9to_tokens, symObjAddr: 0x47E0, symBinAddr: 0x63F40, symSize: 0x100 }
  - { offset: 0x14DA7C, size: 0x8, addend: 0x0, symName: __RNvXs0_NtNtCsdGrGZaRBwMb_3syn4item8printingNtB7_10ItemStaticNtNtCs9OU1sGv5X54_5quote9to_tokens8ToTokens9to_tokens, symObjAddr: 0x5270, symBinAddr: 0x649D0, symSize: 0xE0 }
  - { offset: 0x14DABB, size: 0x8, addend: 0x0, symName: __RNvXs1_NtNtCsdGrGZaRBwMb_3syn4item8printingNtB7_9ItemConstNtNtCs9OU1sGv5X54_5quote9to_tokens8ToTokens9to_tokens, symObjAddr: 0x6E50, symBinAddr: 0x660D0, symSize: 0xF0 }
  - { offset: 0x14DAFA, size: 0x8, addend: 0x0, symName: __RNvXs2_NtNtCsdGrGZaRBwMb_3syn4item8printingNtB7_6ItemFnNtNtCs9OU1sGv5X54_5quote9to_tokens8ToTokens9to_tokens, symObjAddr: 0xC060, symBinAddr: 0x69CB0, symSize: 0xD0 }
  - { offset: 0x14DB39, size: 0x8, addend: 0x0, symName: __RNvXs3_NtNtCsdGrGZaRBwMb_3syn4item8printingNtB7_7ItemModNtNtCs9OU1sGv5X54_5quote9to_tokens8ToTokens9to_tokens, symObjAddr: 0xF230, symBinAddr: 0x6AD10, symSize: 0x110 }
  - { offset: 0x14DBA6, size: 0x8, addend: 0x0, symName: __RNvXs4_NtNtCsdGrGZaRBwMb_3syn4item8printingNtB7_14ItemForeignModNtNtCs9OU1sGv5X54_5quote9to_tokens8ToTokens9to_tokens, symObjAddr: 0x10B10, symBinAddr: 0x6AE20, symSize: 0x80 }
  - { offset: 0x14DBE5, size: 0x8, addend: 0x0, symName: __RNvXs5_NtNtCsdGrGZaRBwMb_3syn4item8printingNtB7_8ItemTypeNtNtCs9OU1sGv5X54_5quote9to_tokens8ToTokens9to_tokens, symObjAddr: 0x12300, symBinAddr: 0x6AEA0, symSize: 0xE0 }
  - { offset: 0x14DC24, size: 0x8, addend: 0x0, symName: __RNvXs6_NtNtCsdGrGZaRBwMb_3syn4item8printingNtB7_8ItemEnumNtNtCs9OU1sGv5X54_5quote9to_tokens8ToTokens9to_tokens, symObjAddr: 0x12830, symBinAddr: 0x6AFE0, symSize: 0xC0 }
  - { offset: 0x14DC63, size: 0x8, addend: 0x0, symName: __RNvXs7_NtNtCsdGrGZaRBwMb_3syn4item8printingNtB7_10ItemStructNtNtCs9OU1sGv5X54_5quote9to_tokens8ToTokens9to_tokens, symObjAddr: 0x12DC0, symBinAddr: 0x6B0A0, symSize: 0x180 }
  - { offset: 0x14DCDE, size: 0x8, addend: 0x0, symName: __RNvXs8_NtNtCsdGrGZaRBwMb_3syn4item8printingNtB7_9ItemUnionNtNtCs9OU1sGv5X54_5quote9to_tokens8ToTokens9to_tokens, symObjAddr: 0x139D0, symBinAddr: 0x6B220, symSize: 0xC0 }
  - { offset: 0x14DD1D, size: 0x8, addend: 0x0, symName: __RNvXs9_NtNtCsdGrGZaRBwMb_3syn4item8printingNtB7_9ItemTraitNtNtCs9OU1sGv5X54_5quote9to_tokens8ToTokens9to_tokens, symObjAddr: 0x13CD0, symBinAddr: 0x6B2E0, symSize: 0x130 }
  - { offset: 0x14DD5C, size: 0x8, addend: 0x0, symName: __RNvXs_NtNtCsdGrGZaRBwMb_3syn4item8printingNtB6_7ItemUseNtNtCs9OU1sGv5X54_5quote9to_tokens8ToTokens9to_tokens, symObjAddr: 0x14840, symBinAddr: 0x6B640, symSize: 0xA0 }
  - { offset: 0x14DD9B, size: 0x8, addend: 0x0, symName: __RNvXsa_NtNtCsdGrGZaRBwMb_3syn4item8printingNtB7_14ItemTraitAliasNtNtCs9OU1sGv5X54_5quote9to_tokens8ToTokens9to_tokens, symObjAddr: 0x15A10, symBinAddr: 0x6C7D0, symSize: 0xE0 }
  - { offset: 0x14DDDA, size: 0x8, addend: 0x0, symName: __RNvXsb_NtNtCsdGrGZaRBwMb_3syn4item8printingNtB7_8ItemImplNtNtCs9OU1sGv5X54_5quote9to_tokens8ToTokens9to_tokens, symObjAddr: 0x16300, symBinAddr: 0x6D080, symSize: 0x160 }
  - { offset: 0x14DE57, size: 0x8, addend: 0x0, symName: __RNvXsc_NtNtCsdGrGZaRBwMb_3syn4item8printingNtB7_9ItemMacroNtNtCs9OU1sGv5X54_5quote9to_tokens8ToTokens9to_tokens, symObjAddr: 0x18760, symBinAddr: 0x6F4A0, symSize: 0x130 }
  - { offset: 0x14DEE8, size: 0x8, addend: 0x0, symName: __RNvXsd_NtNtCsdGrGZaRBwMb_3syn4item8printingNtB7_7UsePathNtNtCs9OU1sGv5X54_5quote9to_tokens8ToTokens9to_tokens, symObjAddr: 0x18E20, symBinAddr: 0x6F5D0, symSize: 0x50 }
  - { offset: 0x14DF27, size: 0x8, addend: 0x0, symName: __RNvXse_NtNtCsdGrGZaRBwMb_3syn4item8printingNtB7_7UseNameNtNtCs9OU1sGv5X54_5quote9to_tokens8ToTokens9to_tokens, symObjAddr: 0x19960, symBinAddr: 0x6F620, symSize: 0x30 }
  - { offset: 0x14DF66, size: 0x8, addend: 0x0, symName: __RNvXsf_NtNtCsdGrGZaRBwMb_3syn4item8printingNtB7_9UseRenameNtNtCs9OU1sGv5X54_5quote9to_tokens8ToTokens9to_tokens, symObjAddr: 0x1A380, symBinAddr: 0x6F650, symSize: 0x50 }
  - { offset: 0x14DFA5, size: 0x8, addend: 0x0, symName: __RNvXsg_NtNtCsdGrGZaRBwMb_3syn4item8printingNtB7_7UseGlobNtNtCs9OU1sGv5X54_5quote9to_tokens8ToTokens9to_tokens, symObjAddr: 0x1A820, symBinAddr: 0x6FAB0, symSize: 0x30 }
  - { offset: 0x14DFE4, size: 0x8, addend: 0x0, symName: __RNvXsh_NtNtCsdGrGZaRBwMb_3syn4item8printingNtB7_8UseGroupNtNtCs9OU1sGv5X54_5quote9to_tokens8ToTokens9to_tokens, symObjAddr: 0x1B570, symBinAddr: 0x6FAE0, symSize: 0x30 }
  - { offset: 0x14E023, size: 0x8, addend: 0x0, symName: __RNvXsi_NtNtCsdGrGZaRBwMb_3syn4item8printingNtB7_14TraitItemConstNtNtCs9OU1sGv5X54_5quote9to_tokens8ToTokens9to_tokens, symObjAddr: 0x1BF40, symBinAddr: 0x70470, symSize: 0x110 }
  - { offset: 0x14E090, size: 0x8, addend: 0x0, symName: __RNvXsj_NtNtCsdGrGZaRBwMb_3syn4item8printingNtB7_11TraitItemFnNtNtCs9OU1sGv5X54_5quote9to_tokens8ToTokens9to_tokens, symObjAddr: 0x1C9D0, symBinAddr: 0x70EC0, symSize: 0xD0 }
  - { offset: 0x14E0ED, size: 0x8, addend: 0x0, symName: __RNvXsk_NtNtCsdGrGZaRBwMb_3syn4item8printingNtB7_13TraitItemTypeNtNtCs9OU1sGv5X54_5quote9to_tokens8ToTokens9to_tokens, symObjAddr: 0x1D680, symBinAddr: 0x71B70, symSize: 0x160 }
  - { offset: 0x14E15A, size: 0x8, addend: 0x0, symName: __RNvXsl_NtNtCsdGrGZaRBwMb_3syn4item8printingNtB7_14TraitItemMacroNtNtCs9OU1sGv5X54_5quote9to_tokens8ToTokens9to_tokens, symObjAddr: 0x1E080, symBinAddr: 0x72530, symSize: 0x70 }
  - { offset: 0x14E199, size: 0x8, addend: 0x0, symName: __RNvXsm_NtNtCsdGrGZaRBwMb_3syn4item8printingNtB7_13ImplItemConstNtNtCs9OU1sGv5X54_5quote9to_tokens8ToTokens9to_tokens, symObjAddr: 0x1E460, symBinAddr: 0x725A0, symSize: 0x100 }
  - { offset: 0x14E1D8, size: 0x8, addend: 0x0, symName: __RNvXsn_NtNtCsdGrGZaRBwMb_3syn4item8printingNtB7_10ImplItemFnNtNtCs9OU1sGv5X54_5quote9to_tokens8ToTokens9to_tokens, symObjAddr: 0x1FF60, symBinAddr: 0x74060, symSize: 0xA0 }
  - { offset: 0x14E217, size: 0x8, addend: 0x0, symName: __RNvXso_NtNtCsdGrGZaRBwMb_3syn4item8printingNtB7_12ImplItemTypeNtNtCs9OU1sGv5X54_5quote9to_tokens8ToTokens9to_tokens, symObjAddr: 0x20B40, symBinAddr: 0x74100, symSize: 0x100 }
  - { offset: 0x14E256, size: 0x8, addend: 0x0, symName: __RNvXsp_NtNtCsdGrGZaRBwMb_3syn4item8printingNtB7_13ImplItemMacroNtNtCs9OU1sGv5X54_5quote9to_tokens8ToTokens9to_tokens, symObjAddr: 0x21770, symBinAddr: 0x74CF0, symSize: 0x70 }
  - { offset: 0x14E295, size: 0x8, addend: 0x0, symName: __RNvXsq_NtNtCsdGrGZaRBwMb_3syn4item8printingNtB7_13ForeignItemFnNtNtCs9OU1sGv5X54_5quote9to_tokens8ToTokens9to_tokens, symObjAddr: 0x22540, symBinAddr: 0x74E30, symSize: 0x80 }
  - { offset: 0x14E2D4, size: 0x8, addend: 0x0, symName: __RNvXsr_NtNtCsdGrGZaRBwMb_3syn4item8printingNtB7_17ForeignItemStaticNtNtCs9OU1sGv5X54_5quote9to_tokens8ToTokens9to_tokens, symObjAddr: 0x22A00, symBinAddr: 0x752C0, symSize: 0xC0 }
  - { offset: 0x14E313, size: 0x8, addend: 0x0, symName: __RNvXss_NtNtCsdGrGZaRBwMb_3syn4item8printingNtB7_15ForeignItemTypeNtNtCs9OU1sGv5X54_5quote9to_tokens8ToTokens9to_tokens, symObjAddr: 0x22B60, symBinAddr: 0x75380, symSize: 0xC0 }
  - { offset: 0x14E352, size: 0x8, addend: 0x0, symName: __RNvXst_NtNtCsdGrGZaRBwMb_3syn4item8printingNtB7_16ForeignItemMacroNtNtCs9OU1sGv5X54_5quote9to_tokens8ToTokens9to_tokens, symObjAddr: 0x24910, symBinAddr: 0x770F0, symSize: 0x70 }
  - { offset: 0x14E391, size: 0x8, addend: 0x0, symName: __RNvXsu_NtNtCsdGrGZaRBwMb_3syn4item8printingNtB7_9SignatureNtNtCs9OU1sGv5X54_5quote9to_tokens8ToTokens9to_tokens, symObjAddr: 0x25730, symBinAddr: 0x77160, symSize: 0xE0 }
  - { offset: 0x14E3D0, size: 0x8, addend: 0x0, symName: __RNvXsv_NtNtCsdGrGZaRBwMb_3syn4item8printingNtB7_8ReceiverNtNtCs9OU1sGv5X54_5quote9to_tokens8ToTokens9to_tokens, symObjAddr: 0x25950, symBinAddr: 0x77320, symSize: 0x450 }
  - { offset: 0x14E4C6, size: 0x8, addend: 0x0, symName: __RNvXsw_NtNtCsdGrGZaRBwMb_3syn4item8printingNtB7_8VariadicNtNtCs9OU1sGv5X54_5quote9to_tokens8ToTokens9to_tokens, symObjAddr: 0x26980, symBinAddr: 0x77770, symSize: 0xD0 }
  - { offset: 0x14E533, size: 0x8, addend: 0x0, symName: __RNvXsx_NtNtCsdGrGZaRBwMb_3syn4item8printingNtB7_16StaticMutabilityNtNtCs9OU1sGv5X54_5quote9to_tokens8ToTokens9to_tokens, symObjAddr: 0x26EA0, symBinAddr: 0x77C50, symSize: 0x50 }
  - { offset: 0x14E591, size: 0x8, addend: 0x0, symName: __RNvXsA_NtCsdGrGZaRBwMb_3syn4itemNtB5_9TraitItemNtNtCs9OU1sGv5X54_5quote9to_tokens8ToTokens9to_tokens, symObjAddr: 0x13E00, symBinAddr: 0x6B410, symSize: 0xE0 }
  - { offset: 0x14E65E, size: 0x8, addend: 0x0, symName: __RNvXsF_NtCsdGrGZaRBwMb_3syn4itemNtB5_8ImplItemNtNtCs9OU1sGv5X54_5quote9to_tokens8ToTokens9to_tokens, symObjAddr: 0x13FD0, symBinAddr: 0x6B4F0, symSize: 0xE0 }
  - { offset: 0x14E72B, size: 0x8, addend: 0x0, symName: __RNvXsI_NtCsdGrGZaRBwMb_3syn4itemNtB5_5FnArgNtNtCs9OU1sGv5X54_5quote9to_tokens8ToTokens9to_tokens, symObjAddr: 0x14130, symBinAddr: 0x6B5D0, symSize: 0x70 }
  - { offset: 0x14E7A1, size: 0x8, addend: 0x0, symName: __RNvXsk_NtCsdGrGZaRBwMb_3syn4itemNtB5_4ItemNtNtCs9OU1sGv5X54_5quote9to_tokens8ToTokens9to_tokens, symObjAddr: 0x1CAA0, symBinAddr: 0x70F90, symSize: 0x2A0 }
  - { offset: 0x14E9B7, size: 0x8, addend: 0x0, symName: __RNvXsq_NtCsdGrGZaRBwMb_3syn4itemNtB5_7UseTreeNtNtCs9OU1sGv5X54_5quote9to_tokens8ToTokens9to_tokens, symObjAddr: 0x217E0, symBinAddr: 0x74D60, symSize: 0xD0 }
  - { offset: 0x14EA84, size: 0x8, addend: 0x0, symName: __RNvXsv_NtCsdGrGZaRBwMb_3syn4itemNtB5_11ForeignItemNtNtCs9OU1sGv5X54_5quote9to_tokens8ToTokens9to_tokens, symObjAddr: 0x25810, symBinAddr: 0x77240, symSize: 0xE0 }
  - { offset: 0x14F68B, size: 0x8, addend: 0x0, symName: __RNvXs16_NtNtCsdGrGZaRBwMb_3syn3gen5cloneNtNtBa_4item5FnArgNtNtCsieiGu2EXtoJ_4core5clone5Clone5clone, symObjAddr: 0x5350, symBinAddr: 0x64AB0, symSize: 0xE0 }
  - { offset: 0x14F6F3, size: 0x8, addend: 0x0, symName: __RNvXs17_NtNtCsdGrGZaRBwMb_3syn3gen5cloneNtNtBa_4item11ForeignItemNtNtCsieiGu2EXtoJ_4core5clone5Clone5clone, symObjAddr: 0x5430, symBinAddr: 0x64B90, symSize: 0x200 }
  - { offset: 0x14F7B5, size: 0x8, addend: 0x0, symName: __RNvXs18_NtNtCsdGrGZaRBwMb_3syn3gen5cloneNtNtBa_4item13ForeignItemFnNtNtCsieiGu2EXtoJ_4core5clone5Clone5clone, symObjAddr: 0x5630, symBinAddr: 0x64D90, symSize: 0x1A0 }
  - { offset: 0x14F7E9, size: 0x8, addend: 0x0, symName: __RNvXs19_NtNtCsdGrGZaRBwMb_3syn3gen5cloneNtNtBa_4item16ForeignItemMacroNtNtCsieiGu2EXtoJ_4core5clone5Clone5clone, symObjAddr: 0x5890, symBinAddr: 0x64F30, symSize: 0x130 }
  - { offset: 0x14F81D, size: 0x8, addend: 0x0, symName: __RNvXs1A_NtNtCsdGrGZaRBwMb_3syn3gen5cloneNtNtBa_4item9ItemUnionNtNtCsieiGu2EXtoJ_4core5clone5Clone5clone, symObjAddr: 0x59C0, symBinAddr: 0x65060, symSize: 0x220 }
  - { offset: 0x14F851, size: 0x8, addend: 0x0, symName: __RNvXs1B_NtNtCsdGrGZaRBwMb_3syn3gen5cloneNtNtBa_4item7ItemUseNtNtCsieiGu2EXtoJ_4core5clone5Clone5clone, symObjAddr: 0x5BE0, symBinAddr: 0x65280, symSize: 0x1D0 }
  - { offset: 0x14F885, size: 0x8, addend: 0x0, symName: __RNvXs1a_NtNtCsdGrGZaRBwMb_3syn3gen5cloneNtNtBa_4item17ForeignItemStaticNtNtCsieiGu2EXtoJ_4core5clone5Clone5clone, symObjAddr: 0x6F40, symBinAddr: 0x661C0, symSize: 0x250 }
  - { offset: 0x14F8B9, size: 0x8, addend: 0x0, symName: __RNvXs1b_NtNtCsdGrGZaRBwMb_3syn3gen5cloneNtNtBa_4item15ForeignItemTypeNtNtCsieiGu2EXtoJ_4core5clone5Clone5clone, symObjAddr: 0x7190, symBinAddr: 0x66410, symSize: 0x210 }
  - { offset: 0x14F8ED, size: 0x8, addend: 0x0, symName: __RNvXs1f_NtNtCsdGrGZaRBwMb_3syn3gen5cloneNtNtBa_4item8ImplItemNtNtCsieiGu2EXtoJ_4core5clone5Clone5clone, symObjAddr: 0x73A0, symBinAddr: 0x66620, symSize: 0x200 }
  - { offset: 0x14F9AF, size: 0x8, addend: 0x0, symName: __RNvXs1g_NtNtCsdGrGZaRBwMb_3syn3gen5cloneNtNtBa_4item13ImplItemConstNtNtCsieiGu2EXtoJ_4core5clone5Clone5clone, symObjAddr: 0x75A0, symBinAddr: 0x66820, symSize: 0x3A0 }
  - { offset: 0x14F9E3, size: 0x8, addend: 0x0, symName: __RNvXs1h_NtNtCsdGrGZaRBwMb_3syn3gen5cloneNtNtBa_4item10ImplItemFnNtNtCsieiGu2EXtoJ_4core5clone5Clone5clone, symObjAddr: 0x7940, symBinAddr: 0x66BC0, symSize: 0x1F0 }
  - { offset: 0x14FA17, size: 0x8, addend: 0x0, symName: __RNvXs1i_NtNtCsdGrGZaRBwMb_3syn3gen5cloneNtNtBa_4item13ImplItemMacroNtNtCsieiGu2EXtoJ_4core5clone5Clone5clone, symObjAddr: 0x7B30, symBinAddr: 0x66DB0, symSize: 0x130 }
  - { offset: 0x14FA4B, size: 0x8, addend: 0x0, symName: __RNvXs1j_NtNtCsdGrGZaRBwMb_3syn3gen5cloneNtNtBa_4item12ImplItemTypeNtNtCsieiGu2EXtoJ_4core5clone5Clone5clone, symObjAddr: 0x7C60, symBinAddr: 0x66EE0, symSize: 0x310 }
  - { offset: 0x14FA7F, size: 0x8, addend: 0x0, symName: __RNvXs1m_NtNtCsdGrGZaRBwMb_3syn3gen5cloneNtNtBa_4item4ItemNtNtCsieiGu2EXtoJ_4core5clone5Clone5clone, symObjAddr: 0x7F80, symBinAddr: 0x671F0, symSize: 0x5C0 }
  - { offset: 0x14FC94, size: 0x8, addend: 0x0, symName: __RNvXs1n_NtNtCsdGrGZaRBwMb_3syn3gen5cloneNtNtBa_4item9ItemConstNtNtCsieiGu2EXtoJ_4core5clone5Clone5clone, symObjAddr: 0x8540, symBinAddr: 0x677B0, symSize: 0x320 }
  - { offset: 0x14FCC8, size: 0x8, addend: 0x0, symName: __RNvXs1o_NtNtCsdGrGZaRBwMb_3syn3gen5cloneNtNtBa_4item8ItemEnumNtNtCsieiGu2EXtoJ_4core5clone5Clone5clone, symObjAddr: 0x8860, symBinAddr: 0x67AD0, symSize: 0x260 }
  - { offset: 0x14FCFC, size: 0x8, addend: 0x0, symName: __RNvXs1p_NtNtCsdGrGZaRBwMb_3syn3gen5cloneNtNtBa_4item15ItemExternCrateNtNtCsieiGu2EXtoJ_4core5clone5Clone5clone, symObjAddr: 0x8AC0, symBinAddr: 0x67D30, symSize: 0x200 }
  - { offset: 0x14FD30, size: 0x8, addend: 0x0, symName: __RNvXs1q_NtNtCsdGrGZaRBwMb_3syn3gen5cloneNtNtBa_4item6ItemFnNtNtCsieiGu2EXtoJ_4core5clone5Clone5clone, symObjAddr: 0x8CC0, symBinAddr: 0x67F30, symSize: 0x1A0 }
  - { offset: 0x14FD64, size: 0x8, addend: 0x0, symName: __RNvXs1r_NtNtCsdGrGZaRBwMb_3syn3gen5cloneNtNtBa_4item14ItemForeignModNtNtCsieiGu2EXtoJ_4core5clone5Clone5clone, symObjAddr: 0x8E60, symBinAddr: 0x680D0, symSize: 0x170 }
  - { offset: 0x14FD98, size: 0x8, addend: 0x0, symName: __RNvXs1s_NtNtCsdGrGZaRBwMb_3syn3gen5cloneNtNtBa_4item8ItemImplNtNtCsieiGu2EXtoJ_4core5clone5Clone5clone, symObjAddr: 0x8FD0, symBinAddr: 0x68240, symSize: 0x2D0 }
  - { offset: 0x14FDCC, size: 0x8, addend: 0x0, symName: __RNvXs1t_NtNtCsdGrGZaRBwMb_3syn3gen5cloneNtNtBa_4item9ItemMacroNtNtCsieiGu2EXtoJ_4core5clone5Clone5clone, symObjAddr: 0x92A0, symBinAddr: 0x68510, symSize: 0x190 }
  - { offset: 0x14FE00, size: 0x8, addend: 0x0, symName: __RNvXs1u_NtNtCsdGrGZaRBwMb_3syn3gen5cloneNtNtBa_4item7ItemModNtNtCsieiGu2EXtoJ_4core5clone5Clone5clone, symObjAddr: 0x9430, symBinAddr: 0x686A0, symSize: 0x240 }
  - { offset: 0x14FE34, size: 0x8, addend: 0x0, symName: __RNvXs1v_NtNtCsdGrGZaRBwMb_3syn3gen5cloneNtNtBa_4item10ItemStaticNtNtCsieiGu2EXtoJ_4core5clone5Clone5clone, symObjAddr: 0x9670, symBinAddr: 0x688E0, symSize: 0x2D0 }
  - { offset: 0x14FE68, size: 0x8, addend: 0x0, symName: __RNvXs1w_NtNtCsdGrGZaRBwMb_3syn3gen5cloneNtNtBa_4item10ItemStructNtNtCsieiGu2EXtoJ_4core5clone5Clone5clone, symObjAddr: 0x9940, symBinAddr: 0x68BB0, symSize: 0x270 }
  - { offset: 0x14FE9C, size: 0x8, addend: 0x0, symName: __RNvXs1x_NtNtCsdGrGZaRBwMb_3syn3gen5cloneNtNtBa_4item9ItemTraitNtNtCsieiGu2EXtoJ_4core5clone5Clone5clone, symObjAddr: 0x9BB0, symBinAddr: 0x68E20, symSize: 0x3B0 }
  - { offset: 0x14FED0, size: 0x8, addend: 0x0, symName: __RNvXs1y_NtNtCsdGrGZaRBwMb_3syn3gen5cloneNtNtBa_4item14ItemTraitAliasNtNtCsieiGu2EXtoJ_4core5clone5Clone5clone, symObjAddr: 0x9F60, symBinAddr: 0x691D0, symSize: 0x2B0 }
  - { offset: 0x14FF04, size: 0x8, addend: 0x0, symName: __RNvXs1z_NtNtCsdGrGZaRBwMb_3syn3gen5cloneNtNtBa_4item8ItemTypeNtNtCsieiGu2EXtoJ_4core5clone5Clone5clone, symObjAddr: 0xA210, symBinAddr: 0x69480, symSize: 0x2A0 }
  - { offset: 0x14FF38, size: 0x8, addend: 0x0, symName: __RNvXs2I_NtNtCsdGrGZaRBwMb_3syn3gen5cloneNtNtBa_4item7UseGlobNtNtCsieiGu2EXtoJ_4core5clone5Clone5clone, symObjAddr: 0xB290, symBinAddr: 0x69720, symSize: 0x40 }
  - { offset: 0x14FF6C, size: 0x8, addend: 0x0, symName: __RNvXs2J_NtNtCsdGrGZaRBwMb_3syn3gen5cloneNtNtBa_4item8UseGroupNtNtCsieiGu2EXtoJ_4core5clone5Clone5clone, symObjAddr: 0xB3B0, symBinAddr: 0x69760, symSize: 0x80 }
  - { offset: 0x14FFA0, size: 0x8, addend: 0x0, symName: __RNvXs2K_NtNtCsdGrGZaRBwMb_3syn3gen5cloneNtNtBa_4item7UseNameNtNtCsieiGu2EXtoJ_4core5clone5Clone5clone, symObjAddr: 0xB430, symBinAddr: 0x697E0, symSize: 0x50 }
  - { offset: 0x14FFD4, size: 0x8, addend: 0x0, symName: __RNvXs2L_NtNtCsdGrGZaRBwMb_3syn3gen5cloneNtNtBa_4item7UsePathNtNtCsieiGu2EXtoJ_4core5clone5Clone5clone, symObjAddr: 0xB530, symBinAddr: 0x69830, symSize: 0xC0 }
  - { offset: 0x150008, size: 0x8, addend: 0x0, symName: __RNvXs2M_NtNtCsdGrGZaRBwMb_3syn3gen5cloneNtNtBa_4item9UseRenameNtNtCsieiGu2EXtoJ_4core5clone5Clone5clone, symObjAddr: 0xB5F0, symBinAddr: 0x698F0, symSize: 0xC0 }
  - { offset: 0x15003C, size: 0x8, addend: 0x0, symName: __RNvXs2N_NtNtCsdGrGZaRBwMb_3syn3gen5cloneNtNtBa_4item7UseTreeNtNtCsieiGu2EXtoJ_4core5clone5Clone5clone, symObjAddr: 0xB770, symBinAddr: 0x699B0, symSize: 0x1F0 }
  - { offset: 0x1500FE, size: 0x8, addend: 0x0, symName: __RNvXs2O_NtNtCsdGrGZaRBwMb_3syn3gen5cloneNtNtBa_4item8VariadicNtNtCsieiGu2EXtoJ_4core5clone5Clone5clone, symObjAddr: 0xB960, symBinAddr: 0x69BA0, symSize: 0x110 }
  - { offset: 0x150132, size: 0x8, addend: 0x0, symName: __RNvXs2b_NtNtCsdGrGZaRBwMb_3syn3gen5cloneNtNtBa_4item8ReceiverNtNtCsieiGu2EXtoJ_4core5clone5Clone5clone, symObjAddr: 0xC830, symBinAddr: 0x69D80, symSize: 0x180 }
  - { offset: 0x150166, size: 0x8, addend: 0x0, symName: __RNvXs2d_NtNtCsdGrGZaRBwMb_3syn3gen5cloneNtNtBa_4item9SignatureNtNtCsieiGu2EXtoJ_4core5clone5Clone5clone, symObjAddr: 0xD180, symBinAddr: 0x69F00, symSize: 0x340 }
  - { offset: 0x15019A, size: 0x8, addend: 0x0, symName: __RNvXs2e_NtNtCsdGrGZaRBwMb_3syn3gen5cloneNtNtBa_4item16StaticMutabilityNtNtCsieiGu2EXtoJ_4core5clone5Clone5clone, symObjAddr: 0xD4C0, symBinAddr: 0x6A240, symSize: 0x60 }
  - { offset: 0x1501EC, size: 0x8, addend: 0x0, symName: __RNvXs2k_NtNtCsdGrGZaRBwMb_3syn3gen5cloneNtNtBa_4item9TraitItemNtNtCsieiGu2EXtoJ_4core5clone5Clone5clone, symObjAddr: 0xD7D0, symBinAddr: 0x6A2A0, symSize: 0x200 }
  - { offset: 0x1502AE, size: 0x8, addend: 0x0, symName: __RNvXs2l_NtNtCsdGrGZaRBwMb_3syn3gen5cloneNtNtBa_4item14TraitItemConstNtNtCsieiGu2EXtoJ_4core5clone5Clone5clone, symObjAddr: 0xDAC0, symBinAddr: 0x6A4A0, symSize: 0x2A0 }
  - { offset: 0x1502E2, size: 0x8, addend: 0x0, symName: __RNvXs2m_NtNtCsdGrGZaRBwMb_3syn3gen5cloneNtNtBa_4item11TraitItemFnNtNtCsieiGu2EXtoJ_4core5clone5Clone5clone, symObjAddr: 0xDD60, symBinAddr: 0x6A740, symSize: 0x190 }
  - { offset: 0x150316, size: 0x8, addend: 0x0, symName: __RNvXs2n_NtNtCsdGrGZaRBwMb_3syn3gen5cloneNtNtBa_4item14TraitItemMacroNtNtCsieiGu2EXtoJ_4core5clone5Clone5clone, symObjAddr: 0xDF30, symBinAddr: 0x6A8D0, symSize: 0x130 }
  - { offset: 0x15034A, size: 0x8, addend: 0x0, symName: __RNvXs2o_NtNtCsdGrGZaRBwMb_3syn3gen5cloneNtNtBa_4item13TraitItemTypeNtNtCsieiGu2EXtoJ_4core5clone5Clone5clone, symObjAddr: 0xE060, symBinAddr: 0x6AA00, symSize: 0x2C0 }
  - { offset: 0x154533, size: 0x8, addend: 0x0, symName: __RNvMNtCsieiGu2EXtoJ_4core5sliceSTNtNtCsdGrGZaRBwMb_3syn4item5FnArgNtNtBz_5token5CommaE4iterBz_, symObjAddr: 0x2180, symBinAddr: 0x63BC0, symSize: 0x20 }
  - { offset: 0x15456A, size: 0x8, addend: 0x0, symName: __RNvMNtCsieiGu2EXtoJ_4core5sliceSTNtNtCsdGrGZaRBwMb_3syn4item7UseTreeNtNtBz_5token5CommaE4iterBz_, symObjAddr: 0x21A0, symBinAddr: 0x63BE0, symSize: 0x20 }
  - { offset: 0x15577E, size: 0x8, addend: 0x0, symName: __RNvXNtNtCsieiGu2EXtoJ_4core5clone6uninitNtNtCsdGrGZaRBwMb_3syn4item5FnArgNtB2_8CopySpec9clone_oneBG_, symObjAddr: 0x48E0, symBinAddr: 0x64040, symSize: 0x50 }
  - { offset: 0x1557E3, size: 0x8, addend: 0x0, symName: __RNvXNtNtCsieiGu2EXtoJ_4core5clone6uninitNtNtCsdGrGZaRBwMb_3syn4item7UseTreeNtB2_8CopySpec9clone_oneBG_, symObjAddr: 0x4930, symBinAddr: 0x64090, symSize: 0x40 }
  - { offset: 0x157567, size: 0x8, addend: 0x0, symName: __RNvMNtCsdGrGZaRBwMb_3syn4itemNtB2_4Item13replace_attrs, symObjAddr: 0x1EE0, symBinAddr: 0x63920, symSize: 0x2A0 }
  - { offset: 0x1577A1, size: 0x8, addend: 0x0, symName: __RNvXNtCs9OU1sGv5X54_5quote9to_tokensRNtNtCsdGrGZaRBwMb_3syn4item11ForeignItemNtB2_8ToTokens9to_tokensBD_, symObjAddr: 0x44A0, symBinAddr: 0x63C00, symSize: 0x30 }
  - { offset: 0x1577E0, size: 0x8, addend: 0x0, symName: __RNvXNtCs9OU1sGv5X54_5quote9to_tokensRNtNtCsdGrGZaRBwMb_3syn4item4ItemNtB2_8ToTokens9to_tokensBD_, symObjAddr: 0x44D0, symBinAddr: 0x63C30, symSize: 0x30 }
  - { offset: 0x15781F, size: 0x8, addend: 0x0, symName: __RNvXNtCs9OU1sGv5X54_5quote9to_tokensRNtNtCsdGrGZaRBwMb_3syn4item5FnArgNtB2_8ToTokens9to_tokensBD_, symObjAddr: 0x4500, symBinAddr: 0x63C60, symSize: 0x30 }
  - { offset: 0x15785E, size: 0x8, addend: 0x0, symName: __RNvXNtCs9OU1sGv5X54_5quote9to_tokensRNtNtCsdGrGZaRBwMb_3syn4item7UseTreeNtB2_8ToTokens9to_tokensBD_, symObjAddr: 0x4530, symBinAddr: 0x63C90, symSize: 0x30 }
  - { offset: 0x15789D, size: 0x8, addend: 0x0, symName: __RNvXNtCs9OU1sGv5X54_5quote9to_tokensRNtNtCsdGrGZaRBwMb_3syn4item8ImplItemNtB2_8ToTokens9to_tokensBD_, symObjAddr: 0x4560, symBinAddr: 0x63CC0, symSize: 0x30 }
  - { offset: 0x1578DC, size: 0x8, addend: 0x0, symName: __RNvXNtCs9OU1sGv5X54_5quote9to_tokensRNtNtCsdGrGZaRBwMb_3syn4item9TraitItemNtB2_8ToTokens9to_tokensBD_, symObjAddr: 0x4590, symBinAddr: 0x63CF0, symSize: 0x30 }
  - { offset: 0x157CB9, size: 0x8, addend: 0x0, symName: __RINvMs_NtCslJiobkLta79_5alloc3vecINtB5_3VecReE10retain_mutNCNvMNtCsdGrGZaRBwMb_3syn9lookaheadNtBZ_10Lookahead15error0EB11_, symObjAddr: 0x0, symBinAddr: 0x77D70, symSize: 0x160 }
  - { offset: 0x15FE0B, size: 0x8, addend: 0x0, symName: __RNvXs1_NtCsieiGu2EXtoJ_4core7convertINtNtCslJiobkLta79_5alloc3vec3VechEINtB5_4IntoBy_E4intoCsdGrGZaRBwMb_3syn, symObjAddr: 0x7580, symBinAddr: 0x7D700, symSize: 0x20 }
  - { offset: 0x1600A2, size: 0x8, addend: 0x0, symName: __RINvNvMs_NtCslJiobkLta79_5alloc3vecINtB7_3VecppE10retain_mut12process_loopNCNvMNtCsdGrGZaRBwMb_3syn9lookaheadNtB1f_10Lookahead15error0ReNtNtB9_5alloc6GlobalKb0_EB1h_, symObjAddr: 0x160, symBinAddr: 0x77ED0, symSize: 0xB0 }
  - { offset: 0x1601F6, size: 0x8, addend: 0x0, symName: __RINvNvMs_NtCslJiobkLta79_5alloc3vecINtB7_3VecppE10retain_mut12process_loopNCNvMNtCsdGrGZaRBwMb_3syn9lookaheadNtB1f_10Lookahead15error0ReNtNtB9_5alloc6GlobalKb1_EB1h_, symObjAddr: 0x210, symBinAddr: 0x77F80, symSize: 0x130 }
  - { offset: 0x1603EC, size: 0x8, addend: 0x0, symName: __RNvXNvMs_NtCslJiobkLta79_5alloc3vecINtB7_3VecppE10retain_mutINtB2_15BackshiftOnDropReNtNtB9_5alloc6GlobalENtNtNtCsieiGu2EXtoJ_4core3ops4drop4Drop4dropCsdGrGZaRBwMb_3syn, symObjAddr: 0x6EE0, symBinAddr: 0x7D2E0, symSize: 0x190 }
  - { offset: 0x160632, size: 0x8, addend: 0x0, symName: __RNvNvMs_NtCslJiobkLta79_5alloc3vecINtB6_3VecppE17from_raw_parts_in18precondition_checkCsdGrGZaRBwMb_3syn, symObjAddr: 0x5950, symBinAddr: 0x7D1A0, symSize: 0xA0 }
  - { offset: 0x1606A0, size: 0x8, addend: 0x0, symName: __RNvNvMs_NtCslJiobkLta79_5alloc3vecINtB6_3VecppE7set_len18precondition_checkCsdGrGZaRBwMb_3syn, symObjAddr: 0x59F0, symBinAddr: 0x7D240, symSize: 0xA0 }
  - { offset: 0x160AA7, size: 0x8, addend: 0x0, symName: __RINvXsh_NtCslJiobkLta79_5alloc3vecINtB6_3VecNtNtCsdGrGZaRBwMb_3syn4attr9AttributeEINtNtNtNtCsieiGu2EXtoJ_4core4iter6traits7collect6ExtendBG_E6extendBw_EBK_, symObjAddr: 0x340, symBinAddr: 0x780B0, symSize: 0x40 }
  - { offset: 0x163DD7, size: 0x8, addend: 0x0, symName: __RNvXs6_NtCslJiobkLta79_5alloc3vecINtB5_3VecNtNtCsdGrGZaRBwMb_3syn4attr9AttributeENtNtNtCsieiGu2EXtoJ_4core3ops5deref5Deref5derefBJ_, symObjAddr: 0x7600, symBinAddr: 0x7D720, symSize: 0x20 }
  - { offset: 0x163E17, size: 0x8, addend: 0x0, symName: __RNvXs6_NtCslJiobkLta79_5alloc3vecINtB5_3VecNtNtCsdGrGZaRBwMb_3syn4expr3ArmENtNtNtCsieiGu2EXtoJ_4core3ops5deref5Deref5derefBJ_, symObjAddr: 0x7620, symBinAddr: 0x7D740, symSize: 0x20 }
  - { offset: 0x163E57, size: 0x8, addend: 0x0, symName: __RNvXs6_NtCslJiobkLta79_5alloc3vecINtB5_3VecReENtNtNtCsieiGu2EXtoJ_4core3ops5deref5Deref5derefCsdGrGZaRBwMb_3syn, symObjAddr: 0x7660, symBinAddr: 0x7D760, symSize: 0x20 }
  - { offset: 0x163E97, size: 0x8, addend: 0x0, symName: __RNvXs6_NtCslJiobkLta79_5alloc3vecINtB5_3VecTNtNtCsdGrGZaRBwMb_3syn2ty4TypeNtNtBK_5token5CommaEENtNtNtCsieiGu2EXtoJ_4core3ops5deref5Deref5derefBK_, symObjAddr: 0x7680, symBinAddr: 0x7D780, symSize: 0x20 }
  - { offset: 0x163ED7, size: 0x8, addend: 0x0, symName: __RNvXs6_NtCslJiobkLta79_5alloc3vecINtB5_3VecTNtNtCsdGrGZaRBwMb_3syn2ty9BareFnArgNtNtBK_5token5CommaEENtNtNtCsieiGu2EXtoJ_4core3ops5deref5Deref5derefBK_, symObjAddr: 0x76A0, symBinAddr: 0x7D7A0, symSize: 0x20 }
  - { offset: 0x163F17, size: 0x8, addend: 0x0, symName: __RNvXs6_NtCslJiobkLta79_5alloc3vecINtB5_3VecTNtNtCsdGrGZaRBwMb_3syn3pat3PatNtNtBK_5token2OrEENtNtNtCsieiGu2EXtoJ_4core3ops5deref5Deref5derefBK_, symObjAddr: 0x76C0, symBinAddr: 0x7D7C0, symSize: 0x20 }
  - { offset: 0x163F57, size: 0x8, addend: 0x0, symName: __RNvXs6_NtCslJiobkLta79_5alloc3vecINtB5_3VecTNtNtCsdGrGZaRBwMb_3syn3pat3PatNtNtBK_5token5CommaEENtNtNtCsieiGu2EXtoJ_4core3ops5deref5Deref5derefBK_, symObjAddr: 0x76E0, symBinAddr: 0x7D7E0, symSize: 0x20 }
  - { offset: 0x163F97, size: 0x8, addend: 0x0, symName: __RNvXs6_NtCslJiobkLta79_5alloc3vecINtB5_3VecTNtNtCsdGrGZaRBwMb_3syn3pat8FieldPatNtNtBK_5token5CommaEENtNtNtCsieiGu2EXtoJ_4core3ops5deref5Deref5derefBK_, symObjAddr: 0x7700, symBinAddr: 0x7D800, symSize: 0x20 }
  - { offset: 0x163FD7, size: 0x8, addend: 0x0, symName: __RNvXs6_NtCslJiobkLta79_5alloc3vecINtB5_3VecTNtNtCsdGrGZaRBwMb_3syn4data5FieldNtNtBK_5token5CommaEENtNtNtCsieiGu2EXtoJ_4core3ops5deref5Deref5derefBK_, symObjAddr: 0x7720, symBinAddr: 0x7D820, symSize: 0x20 }
  - { offset: 0x164017, size: 0x8, addend: 0x0, symName: __RNvXs6_NtCslJiobkLta79_5alloc3vecINtB5_3VecTNtNtCsdGrGZaRBwMb_3syn4data7VariantNtNtBK_5token5CommaEENtNtNtCsieiGu2EXtoJ_4core3ops5deref5Deref5derefBK_, symObjAddr: 0x7740, symBinAddr: 0x7D840, symSize: 0x20 }
  - { offset: 0x164057, size: 0x8, addend: 0x0, symName: __RNvXs6_NtCslJiobkLta79_5alloc3vecINtB5_3VecTNtNtCsdGrGZaRBwMb_3syn4expr10FieldValueNtNtBK_5token5CommaEENtNtNtCsieiGu2EXtoJ_4core3ops5deref5Deref5derefBK_, symObjAddr: 0x7760, symBinAddr: 0x7D860, symSize: 0x20 }
  - { offset: 0x164097, size: 0x8, addend: 0x0, symName: __RNvXs6_NtCslJiobkLta79_5alloc3vecINtB5_3VecTNtNtCsdGrGZaRBwMb_3syn4expr4ExprNtNtBK_5token5CommaEENtNtNtCsieiGu2EXtoJ_4core3ops5deref5Deref5derefBK_, symObjAddr: 0x7780, symBinAddr: 0x7D880, symSize: 0x20 }
  - { offset: 0x1640D7, size: 0x8, addend: 0x0, symName: __RNvXs6_NtCslJiobkLta79_5alloc3vecINtB5_3VecTNtNtCsdGrGZaRBwMb_3syn4item5FnArgNtNtBK_5token5CommaEENtNtNtCsieiGu2EXtoJ_4core3ops5deref5Deref5derefBK_, symObjAddr: 0x77A0, symBinAddr: 0x7D8A0, symSize: 0x20 }
  - { offset: 0x164117, size: 0x8, addend: 0x0, symName: __RNvXs6_NtCslJiobkLta79_5alloc3vecINtB5_3VecTNtNtCsdGrGZaRBwMb_3syn4item7UseTreeNtNtBK_5token5CommaEENtNtNtCsieiGu2EXtoJ_4core3ops5deref5Deref5derefBK_, symObjAddr: 0x77C0, symBinAddr: 0x7D8C0, symSize: 0x20 }
  - { offset: 0x164157, size: 0x8, addend: 0x0, symName: __RNvXs6_NtCslJiobkLta79_5alloc3vecINtB5_3VecTNtNtCsdGrGZaRBwMb_3syn4path11PathSegmentNtNtBK_5token7PathSepEENtNtNtCsieiGu2EXtoJ_4core3ops5deref5Deref5derefBK_, symObjAddr: 0x77E0, symBinAddr: 0x7D8E0, symSize: 0x20 }
  - { offset: 0x164197, size: 0x8, addend: 0x0, symName: __RNvXs6_NtCslJiobkLta79_5alloc3vecINtB5_3VecTNtNtCsdGrGZaRBwMb_3syn4path15GenericArgumentNtNtBK_5token5CommaEENtNtNtCsieiGu2EXtoJ_4core3ops5deref5Deref5derefBK_, symObjAddr: 0x7800, symBinAddr: 0x7D900, symSize: 0x20 }
  - { offset: 0x1641D7, size: 0x8, addend: 0x0, symName: __RNvXs6_NtCslJiobkLta79_5alloc3vecINtB5_3VecTNtNtCsdGrGZaRBwMb_3syn8generics12GenericParamNtNtBK_5token5CommaEENtNtNtCsieiGu2EXtoJ_4core3ops5deref5Deref5derefBK_, symObjAddr: 0x7820, symBinAddr: 0x7D920, symSize: 0x20 }
  - { offset: 0x164217, size: 0x8, addend: 0x0, symName: __RNvXs6_NtCslJiobkLta79_5alloc3vecINtB5_3VecTNtNtCsdGrGZaRBwMb_3syn8generics13CapturedParamNtNtBK_5token5CommaEENtNtNtCsieiGu2EXtoJ_4core3ops5deref5Deref5derefBK_, symObjAddr: 0x7840, symBinAddr: 0x7D940, symSize: 0x20 }
  - { offset: 0x164257, size: 0x8, addend: 0x0, symName: __RNvXs6_NtCslJiobkLta79_5alloc3vecINtB5_3VecTNtNtCsdGrGZaRBwMb_3syn8generics14TypeParamBoundNtNtBK_5token4PlusEENtNtNtCsieiGu2EXtoJ_4core3ops5deref5Deref5derefBK_, symObjAddr: 0x7860, symBinAddr: 0x7D960, symSize: 0x20 }
  - { offset: 0x164297, size: 0x8, addend: 0x0, symName: __RNvXs6_NtCslJiobkLta79_5alloc3vecINtB5_3VecTNtNtCsdGrGZaRBwMb_3syn8generics14WherePredicateNtNtBK_5token5CommaEENtNtNtCsieiGu2EXtoJ_4core3ops5deref5Deref5derefBK_, symObjAddr: 0x7880, symBinAddr: 0x7D980, symSize: 0x20 }
  - { offset: 0x1642D7, size: 0x8, addend: 0x0, symName: __RNvXs6_NtCslJiobkLta79_5alloc3vecINtB5_3VecTNtNtCsdGrGZaRBwMb_3syn8lifetime8LifetimeNtNtBK_5token4PlusEENtNtNtCsieiGu2EXtoJ_4core3ops5deref5Deref5derefBK_, symObjAddr: 0x78A0, symBinAddr: 0x7D9A0, symSize: 0x20 }
  - { offset: 0x164317, size: 0x8, addend: 0x0, symName: __RNvXs6_NtCslJiobkLta79_5alloc3vecINtB5_3VechENtNtNtCsieiGu2EXtoJ_4core3ops5deref5Deref5derefCsdGrGZaRBwMb_3syn, symObjAddr: 0x78C0, symBinAddr: 0x7D9C0, symSize: 0x20 }
  - { offset: 0x164ADD, size: 0x8, addend: 0x0, symName: __RNvXsb_NtCslJiobkLta79_5alloc3vecINtB5_3VecNtNtCsdGrGZaRBwMb_3syn5error12ErrorMessageEINtNtNtCsieiGu2EXtoJ_4core3ops5index5IndexjE5indexBJ_, symObjAddr: 0x8800, symBinAddr: 0x7E830, symSize: 0x80 }
  - { offset: 0x164C5F, size: 0x8, addend: 0x0, symName: __RNvXsb_NtCslJiobkLta79_5alloc3vecINtB5_3VecReEINtNtNtCsieiGu2EXtoJ_4core3ops5index5IndexjE5indexCsdGrGZaRBwMb_3syn, symObjAddr: 0x8880, symBinAddr: 0x7E8B0, symSize: 0x80 }
  - { offset: 0x164DE1, size: 0x8, addend: 0x0, symName: __RNvXsb_NtCslJiobkLta79_5alloc3vecINtB5_3VecTNtNtCsdGrGZaRBwMb_3syn3pat3PatNtNtBK_5token5CommaEEINtNtNtCsieiGu2EXtoJ_4core3ops5index5IndexjE5indexBK_, symObjAddr: 0x8900, symBinAddr: 0x7E930, symSize: 0x80 }
  - { offset: 0x164F63, size: 0x8, addend: 0x0, symName: __RNvXsb_NtCslJiobkLta79_5alloc3vecINtB5_3VecTNtNtCsdGrGZaRBwMb_3syn4path11PathSegmentNtNtBK_5token7PathSepEEINtNtNtCsieiGu2EXtoJ_4core3ops5index5IndexjE5indexBK_, symObjAddr: 0x8980, symBinAddr: 0x7E9B0, symSize: 0x80 }
  - { offset: 0x1650E5, size: 0x8, addend: 0x0, symName: __RNvXsb_NtCslJiobkLta79_5alloc3vecINtB5_3VechEINtNtNtCsieiGu2EXtoJ_4core3ops5index5IndexINtNtBM_5range9RangeFromjEE5indexCsdGrGZaRBwMb_3syn, symObjAddr: 0x8A00, symBinAddr: 0x7EA30, symSize: 0x70 }
  - { offset: 0x165267, size: 0x8, addend: 0x0, symName: __RNvXsb_NtCslJiobkLta79_5alloc3vecINtB5_3VechEINtNtNtCsieiGu2EXtoJ_4core3ops5index5IndexjE5indexCsdGrGZaRBwMb_3syn, symObjAddr: 0x8A70, symBinAddr: 0x7EAA0, symSize: 0x70 }
  - { offset: 0x1655A9, size: 0x8, addend: 0x0, symName: __RNvXs0_NtNtCslJiobkLta79_5alloc3vec11spec_extendINtB7_3VecNtNtCsdGrGZaRBwMb_3syn4attr9AttributeEINtB5_10SpecExtendBU_INtNtB7_9into_iter8IntoIterBU_EE11spec_extendBY_, symObjAddr: 0x7440, symBinAddr: 0x7D670, symSize: 0x90 }
  - { offset: 0x165616, size: 0x8, addend: 0x0, symName: __RNvXs7_NtCslJiobkLta79_5alloc3vecINtB5_3VecTNtNtCsdGrGZaRBwMb_3syn4path11PathSegmentNtNtBK_5token7PathSepEENtNtNtCsieiGu2EXtoJ_4core3ops5deref8DerefMut9deref_mutBK_, symObjAddr: 0x7900, symBinAddr: 0x7D9E0, symSize: 0x20 }
  - { offset: 0x1656EC, size: 0x8, addend: 0x0, symName: __RNvXs9_NtCslJiobkLta79_5alloc3vecINtB5_3VecNtNtCsdGrGZaRBwMb_3syn4attr9AttributeENtNtCsieiGu2EXtoJ_4core5clone5Clone5cloneBJ_, symObjAddr: 0x7940, symBinAddr: 0x7DA00, symSize: 0x90 }
  - { offset: 0x1658BD, size: 0x8, addend: 0x0, symName: __RNvXs9_NtCslJiobkLta79_5alloc3vecINtB5_3VecNtNtCsdGrGZaRBwMb_3syn4expr3ArmENtNtCsieiGu2EXtoJ_4core5clone5Clone5cloneBJ_, symObjAddr: 0x79D0, symBinAddr: 0x7DA90, symSize: 0x90 }
  - { offset: 0x165A8E, size: 0x8, addend: 0x0, symName: __RNvXs9_NtCslJiobkLta79_5alloc3vecINtB5_3VecNtNtCsdGrGZaRBwMb_3syn4item11ForeignItemENtNtCsieiGu2EXtoJ_4core5clone5Clone5cloneBJ_, symObjAddr: 0x7A60, symBinAddr: 0x7DB20, symSize: 0x90 }
  - { offset: 0x165C5F, size: 0x8, addend: 0x0, symName: __RNvXs9_NtCslJiobkLta79_5alloc3vecINtB5_3VecNtNtCsdGrGZaRBwMb_3syn4item4ItemENtNtCsieiGu2EXtoJ_4core5clone5Clone5cloneBJ_, symObjAddr: 0x7AF0, symBinAddr: 0x7DBB0, symSize: 0x90 }
  - { offset: 0x165E30, size: 0x8, addend: 0x0, symName: __RNvXs9_NtCslJiobkLta79_5alloc3vecINtB5_3VecNtNtCsdGrGZaRBwMb_3syn4item8ImplItemENtNtCsieiGu2EXtoJ_4core5clone5Clone5cloneBJ_, symObjAddr: 0x7B80, symBinAddr: 0x7DC40, symSize: 0x90 }
  - { offset: 0x166001, size: 0x8, addend: 0x0, symName: __RNvXs9_NtCslJiobkLta79_5alloc3vecINtB5_3VecNtNtCsdGrGZaRBwMb_3syn4item9TraitItemENtNtCsieiGu2EXtoJ_4core5clone5Clone5cloneBJ_, symObjAddr: 0x7C10, symBinAddr: 0x7DCD0, symSize: 0x90 }
  - { offset: 0x1661D2, size: 0x8, addend: 0x0, symName: __RNvXs9_NtCslJiobkLta79_5alloc3vecINtB5_3VecNtNtCsdGrGZaRBwMb_3syn4stmt4StmtENtNtCsieiGu2EXtoJ_4core5clone5Clone5cloneBJ_, symObjAddr: 0x7CA0, symBinAddr: 0x7DD60, symSize: 0x90 }
  - { offset: 0x1663A3, size: 0x8, addend: 0x0, symName: __RNvXs9_NtCslJiobkLta79_5alloc3vecINtB5_3VecTNtNtCsdGrGZaRBwMb_3syn2ty4TypeNtNtBK_5token5CommaEENtNtCsieiGu2EXtoJ_4core5clone5Clone5cloneBK_, symObjAddr: 0x7DC0, symBinAddr: 0x7DDF0, symSize: 0x90 }
  - { offset: 0x166574, size: 0x8, addend: 0x0, symName: __RNvXs9_NtCslJiobkLta79_5alloc3vecINtB5_3VecTNtNtCsdGrGZaRBwMb_3syn2ty9BareFnArgNtNtBK_5token5CommaEENtNtCsieiGu2EXtoJ_4core5clone5Clone5cloneBK_, symObjAddr: 0x7E50, symBinAddr: 0x7DE80, symSize: 0x90 }
  - { offset: 0x166745, size: 0x8, addend: 0x0, symName: __RNvXs9_NtCslJiobkLta79_5alloc3vecINtB5_3VecTNtNtCsdGrGZaRBwMb_3syn3pat3PatNtNtBK_5token2OrEENtNtCsieiGu2EXtoJ_4core5clone5Clone5cloneBK_, symObjAddr: 0x7EE0, symBinAddr: 0x7DF10, symSize: 0x90 }
  - { offset: 0x166916, size: 0x8, addend: 0x0, symName: __RNvXs9_NtCslJiobkLta79_5alloc3vecINtB5_3VecTNtNtCsdGrGZaRBwMb_3syn3pat3PatNtNtBK_5token5CommaEENtNtCsieiGu2EXtoJ_4core5clone5Clone5cloneBK_, symObjAddr: 0x7F70, symBinAddr: 0x7DFA0, symSize: 0x90 }
  - { offset: 0x166AE7, size: 0x8, addend: 0x0, symName: __RNvXs9_NtCslJiobkLta79_5alloc3vecINtB5_3VecTNtNtCsdGrGZaRBwMb_3syn3pat8FieldPatNtNtBK_5token5CommaEENtNtCsieiGu2EXtoJ_4core5clone5Clone5cloneBK_, symObjAddr: 0x8000, symBinAddr: 0x7E030, symSize: 0x90 }
  - { offset: 0x166CB8, size: 0x8, addend: 0x0, symName: __RNvXs9_NtCslJiobkLta79_5alloc3vecINtB5_3VecTNtNtCsdGrGZaRBwMb_3syn4data5FieldNtNtBK_5token5CommaEENtNtCsieiGu2EXtoJ_4core5clone5Clone5cloneBK_, symObjAddr: 0x8090, symBinAddr: 0x7E0C0, symSize: 0x90 }
  - { offset: 0x166E89, size: 0x8, addend: 0x0, symName: __RNvXs9_NtCslJiobkLta79_5alloc3vecINtB5_3VecTNtNtCsdGrGZaRBwMb_3syn4data7VariantNtNtBK_5token5CommaEENtNtCsieiGu2EXtoJ_4core5clone5Clone5cloneBK_, symObjAddr: 0x8120, symBinAddr: 0x7E150, symSize: 0x90 }
  - { offset: 0x16705A, size: 0x8, addend: 0x0, symName: __RNvXs9_NtCslJiobkLta79_5alloc3vecINtB5_3VecTNtNtCsdGrGZaRBwMb_3syn4expr10FieldValueNtNtBK_5token5CommaEENtNtCsieiGu2EXtoJ_4core5clone5Clone5cloneBK_, symObjAddr: 0x81B0, symBinAddr: 0x7E1E0, symSize: 0x90 }
  - { offset: 0x16722B, size: 0x8, addend: 0x0, symName: __RNvXs9_NtCslJiobkLta79_5alloc3vecINtB5_3VecTNtNtCsdGrGZaRBwMb_3syn4expr4ExprNtNtBK_5token5CommaEENtNtCsieiGu2EXtoJ_4core5clone5Clone5cloneBK_, symObjAddr: 0x8240, symBinAddr: 0x7E270, symSize: 0x90 }
  - { offset: 0x1673FC, size: 0x8, addend: 0x0, symName: __RNvXs9_NtCslJiobkLta79_5alloc3vecINtB5_3VecTNtNtCsdGrGZaRBwMb_3syn4item5FnArgNtNtBK_5token5CommaEENtNtCsieiGu2EXtoJ_4core5clone5Clone5cloneBK_, symObjAddr: 0x82D0, symBinAddr: 0x7E300, symSize: 0x90 }
  - { offset: 0x1675CD, size: 0x8, addend: 0x0, symName: __RNvXs9_NtCslJiobkLta79_5alloc3vecINtB5_3VecTNtNtCsdGrGZaRBwMb_3syn4item7UseTreeNtNtBK_5token5CommaEENtNtCsieiGu2EXtoJ_4core5clone5Clone5cloneBK_, symObjAddr: 0x8360, symBinAddr: 0x7E390, symSize: 0x90 }
  - { offset: 0x16779E, size: 0x8, addend: 0x0, symName: __RNvXs9_NtCslJiobkLta79_5alloc3vecINtB5_3VecTNtNtCsdGrGZaRBwMb_3syn4path11PathSegmentNtNtBK_5token7PathSepEENtNtCsieiGu2EXtoJ_4core5clone5Clone5cloneBK_, symObjAddr: 0x83F0, symBinAddr: 0x7E420, symSize: 0x90 }
  - { offset: 0x16796F, size: 0x8, addend: 0x0, symName: __RNvXs9_NtCslJiobkLta79_5alloc3vecINtB5_3VecTNtNtCsdGrGZaRBwMb_3syn4path15GenericArgumentNtNtBK_5token5CommaEENtNtCsieiGu2EXtoJ_4core5clone5Clone5cloneBK_, symObjAddr: 0x8480, symBinAddr: 0x7E4B0, symSize: 0x90 }
  - { offset: 0x167B40, size: 0x8, addend: 0x0, symName: __RNvXs9_NtCslJiobkLta79_5alloc3vecINtB5_3VecTNtNtCsdGrGZaRBwMb_3syn8generics12GenericParamNtNtBK_5token5CommaEENtNtCsieiGu2EXtoJ_4core5clone5Clone5cloneBK_, symObjAddr: 0x8510, symBinAddr: 0x7E540, symSize: 0x90 }
  - { offset: 0x167D11, size: 0x8, addend: 0x0, symName: __RNvXs9_NtCslJiobkLta79_5alloc3vecINtB5_3VecTNtNtCsdGrGZaRBwMb_3syn8generics13CapturedParamNtNtBK_5token5CommaEENtNtCsieiGu2EXtoJ_4core5clone5Clone5cloneBK_, symObjAddr: 0x85A0, symBinAddr: 0x7E5D0, symSize: 0x90 }
  - { offset: 0x167EE2, size: 0x8, addend: 0x0, symName: __RNvXs9_NtCslJiobkLta79_5alloc3vecINtB5_3VecTNtNtCsdGrGZaRBwMb_3syn8generics14TypeParamBoundNtNtBK_5token4PlusEENtNtCsieiGu2EXtoJ_4core5clone5Clone5cloneBK_, symObjAddr: 0x8630, symBinAddr: 0x7E660, symSize: 0x90 }
  - { offset: 0x1680B3, size: 0x8, addend: 0x0, symName: __RNvXs9_NtCslJiobkLta79_5alloc3vecINtB5_3VecTNtNtCsdGrGZaRBwMb_3syn8generics14WherePredicateNtNtBK_5token5CommaEENtNtCsieiGu2EXtoJ_4core5clone5Clone5cloneBK_, symObjAddr: 0x86C0, symBinAddr: 0x7E6F0, symSize: 0x90 }
  - { offset: 0x168284, size: 0x8, addend: 0x0, symName: __RNvXs9_NtCslJiobkLta79_5alloc3vecINtB5_3VecTNtNtCsdGrGZaRBwMb_3syn8lifetime8LifetimeNtNtBK_5token4PlusEENtNtCsieiGu2EXtoJ_4core5clone5Clone5cloneBK_, symObjAddr: 0x8750, symBinAddr: 0x7E780, symSize: 0x90 }
  - { offset: 0x16845B, size: 0x8, addend: 0x0, symName: __RNvXsc_NtCslJiobkLta79_5alloc3vecINtB5_3VecNtNtCsdGrGZaRBwMb_3syn6buffer5EntryEINtNtNtCsieiGu2EXtoJ_4core3ops5index8IndexMutjE9index_mutBJ_, symObjAddr: 0x8AE0, symBinAddr: 0x7EB10, symSize: 0x80 }
  - { offset: 0x1685AF, size: 0x8, addend: 0x0, symName: __RNvXsc_NtCslJiobkLta79_5alloc3vecINtB5_3VechEINtNtNtCsieiGu2EXtoJ_4core3ops5index8IndexMutjE9index_mutCsdGrGZaRBwMb_3syn, symObjAddr: 0x8B60, symBinAddr: 0x7EB90, symSize: 0x70 }
  - { offset: 0x168709, size: 0x8, addend: 0x0, symName: __RNvXse_NtCslJiobkLta79_5alloc3vecINtB5_3VecNtNtCsdGrGZaRBwMb_3syn4attr9AttributeENtNtNtNtCsieiGu2EXtoJ_4core4iter6traits7collect12IntoIterator9into_iterBJ_, symObjAddr: 0x8BD0, symBinAddr: 0x7EC00, symSize: 0x140 }
  - { offset: 0x168999, size: 0x8, addend: 0x0, symName: __RNvXse_NtCslJiobkLta79_5alloc3vecINtB5_3VecNtNtCsdGrGZaRBwMb_3syn8generics14TypeParamBoundENtNtNtNtCsieiGu2EXtoJ_4core4iter6traits7collect12IntoIterator9into_iterBJ_, symObjAddr: 0x8F90, symBinAddr: 0x7ED40, symSize: 0x140 }
  - { offset: 0x168C29, size: 0x8, addend: 0x0, symName: __RNvXse_NtCslJiobkLta79_5alloc3vecINtB5_3VecTNtNtCsdGrGZaRBwMb_3syn4path11PathSegmentNtNtBK_5token7PathSepEENtNtNtNtCsieiGu2EXtoJ_4core4iter6traits7collect12IntoIterator9into_iterBK_, symObjAddr: 0x9350, symBinAddr: 0x7EE80, symSize: 0x140 }
  - { offset: 0x168EB9, size: 0x8, addend: 0x0, symName: __RNvXse_NtCslJiobkLta79_5alloc3vecINtB5_3VecTNtNtCsdGrGZaRBwMb_3syn8generics14TypeParamBoundNtNtBK_5token4PlusEENtNtNtNtCsieiGu2EXtoJ_4core4iter6traits7collect12IntoIterator9into_iterBK_, symObjAddr: 0x9490, symBinAddr: 0x7EFC0, symSize: 0x140 }
  - { offset: 0x16914F, size: 0x8, addend: 0x0, symName: __RNvXsf_NtCslJiobkLta79_5alloc3vecRINtB5_3VecNtNtCsdGrGZaRBwMb_3syn4attr9AttributeENtNtNtNtCsieiGu2EXtoJ_4core4iter6traits7collect12IntoIterator9into_iterBK_, symObjAddr: 0x95D0, symBinAddr: 0x7F100, symSize: 0x80 }
  - { offset: 0x16937C, size: 0x8, addend: 0x0, symName: __RNvXsf_NtCslJiobkLta79_5alloc3vecRINtB5_3VecNtNtCsdGrGZaRBwMb_3syn4item11ForeignItemENtNtNtNtCsieiGu2EXtoJ_4core4iter6traits7collect12IntoIterator9into_iterBK_, symObjAddr: 0x9650, symBinAddr: 0x7F180, symSize: 0x80 }
  - { offset: 0x1695A9, size: 0x8, addend: 0x0, symName: __RNvXsf_NtCslJiobkLta79_5alloc3vecRINtB5_3VecNtNtCsdGrGZaRBwMb_3syn4item4ItemENtNtNtNtCsieiGu2EXtoJ_4core4iter6traits7collect12IntoIterator9into_iterBK_, symObjAddr: 0x96D0, symBinAddr: 0x7F200, symSize: 0x80 }
  - { offset: 0x1697D6, size: 0x8, addend: 0x0, symName: __RNvXsf_NtCslJiobkLta79_5alloc3vecRINtB5_3VecNtNtCsdGrGZaRBwMb_3syn4item8ImplItemENtNtNtNtCsieiGu2EXtoJ_4core4iter6traits7collect12IntoIterator9into_iterBK_, symObjAddr: 0x9750, symBinAddr: 0x7F280, symSize: 0x80 }
  - { offset: 0x169A03, size: 0x8, addend: 0x0, symName: __RNvXsf_NtCslJiobkLta79_5alloc3vecRINtB5_3VecNtNtCsdGrGZaRBwMb_3syn4item9TraitItemENtNtNtNtCsieiGu2EXtoJ_4core4iter6traits7collect12IntoIterator9into_iterBK_, symObjAddr: 0x97D0, symBinAddr: 0x7F300, symSize: 0x80 }
  - { offset: 0x169C30, size: 0x8, addend: 0x0, symName: __RNvXsf_NtCslJiobkLta79_5alloc3vecRINtB5_3VecNtNtCsdGrGZaRBwMb_3syn4stmt4StmtENtNtNtNtCsieiGu2EXtoJ_4core4iter6traits7collect12IntoIterator9into_iterBK_, symObjAddr: 0x9850, symBinAddr: 0x7F380, symSize: 0x80 }
  - { offset: 0x169E5D, size: 0x8, addend: 0x0, symName: __RNvXsf_NtCslJiobkLta79_5alloc3vecRINtB5_3VecNtNtCsdGrGZaRBwMb_3syn5error12ErrorMessageENtNtNtNtCsieiGu2EXtoJ_4core4iter6traits7collect12IntoIterator9into_iterBK_, symObjAddr: 0x98D0, symBinAddr: 0x7F400, symSize: 0x80 }
  - { offset: 0x16A090, size: 0x8, addend: 0x0, symName: __RNvXsg_NtCslJiobkLta79_5alloc3vecQINtB5_3VechENtNtNtNtCsieiGu2EXtoJ_4core4iter6traits7collect12IntoIterator9into_iterCsdGrGZaRBwMb_3syn, symObjAddr: 0xA250, symBinAddr: 0x7F480, symSize: 0x80 }
  - { offset: 0x16A2B7, size: 0x8, addend: 0x0, symName: __RNvXsn_NtCslJiobkLta79_5alloc3vecINtB5_3VecNtNtCsdGrGZaRBwMb_3syn4attr9AttributeENtNtNtCsieiGu2EXtoJ_4core3ops4drop4Drop4dropBJ_, symObjAddr: 0xA2D0, symBinAddr: 0x7F500, symSize: 0x30 }
  - { offset: 0x16A367, size: 0x8, addend: 0x0, symName: __RNvXsn_NtCslJiobkLta79_5alloc3vecINtB5_3VecNtNtCsdGrGZaRBwMb_3syn4expr3ArmENtNtNtCsieiGu2EXtoJ_4core3ops4drop4Drop4dropBJ_, symObjAddr: 0xA330, symBinAddr: 0x7F530, symSize: 0x30 }
  - { offset: 0x16A417, size: 0x8, addend: 0x0, symName: __RNvXsn_NtCslJiobkLta79_5alloc3vecINtB5_3VecNtNtCsdGrGZaRBwMb_3syn4expr6ExprIfENtNtNtCsieiGu2EXtoJ_4core3ops4drop4Drop4dropBJ_, symObjAddr: 0xA360, symBinAddr: 0x7F560, symSize: 0x30 }
  - { offset: 0x16A4C7, size: 0x8, addend: 0x0, symName: __RNvXsn_NtCslJiobkLta79_5alloc3vecINtB5_3VecNtNtCsdGrGZaRBwMb_3syn4item11ForeignItemENtNtNtCsieiGu2EXtoJ_4core3ops4drop4Drop4dropBJ_, symObjAddr: 0xA390, symBinAddr: 0x7F590, symSize: 0x30 }
  - { offset: 0x16A577, size: 0x8, addend: 0x0, symName: __RNvXsn_NtCslJiobkLta79_5alloc3vecINtB5_3VecNtNtCsdGrGZaRBwMb_3syn4item4ItemENtNtNtCsieiGu2EXtoJ_4core3ops4drop4Drop4dropBJ_, symObjAddr: 0xA3C0, symBinAddr: 0x7F5C0, symSize: 0x30 }
  - { offset: 0x16A627, size: 0x8, addend: 0x0, symName: __RNvXsn_NtCslJiobkLta79_5alloc3vecINtB5_3VecNtNtCsdGrGZaRBwMb_3syn4item8ImplItemENtNtNtCsieiGu2EXtoJ_4core3ops4drop4Drop4dropBJ_, symObjAddr: 0xA3F0, symBinAddr: 0x7F5F0, symSize: 0x30 }
  - { offset: 0x16A6D7, size: 0x8, addend: 0x0, symName: __RNvXsn_NtCslJiobkLta79_5alloc3vecINtB5_3VecNtNtCsdGrGZaRBwMb_3syn4item9TraitItemENtNtNtCsieiGu2EXtoJ_4core3ops4drop4Drop4dropBJ_, symObjAddr: 0xA420, symBinAddr: 0x7F620, symSize: 0x30 }
  - { offset: 0x16A787, size: 0x8, addend: 0x0, symName: __RNvXsn_NtCslJiobkLta79_5alloc3vecINtB5_3VecNtNtCsdGrGZaRBwMb_3syn4stmt4StmtENtNtNtCsieiGu2EXtoJ_4core3ops4drop4Drop4dropBJ_, symObjAddr: 0xA450, symBinAddr: 0x7F650, symSize: 0x30 }
  - { offset: 0x16A837, size: 0x8, addend: 0x0, symName: __RNvXsn_NtCslJiobkLta79_5alloc3vecINtB5_3VecNtNtCsdGrGZaRBwMb_3syn5error12ErrorMessageENtNtNtCsieiGu2EXtoJ_4core3ops4drop4Drop4dropBJ_, symObjAddr: 0xA480, symBinAddr: 0x7F680, symSize: 0x30 }
  - { offset: 0x16A8E7, size: 0x8, addend: 0x0, symName: __RNvXsn_NtCslJiobkLta79_5alloc3vecINtB5_3VecNtNtCsdGrGZaRBwMb_3syn6buffer5EntryENtNtNtCsieiGu2EXtoJ_4core3ops4drop4Drop4dropBJ_, symObjAddr: 0xA4B0, symBinAddr: 0x7F6B0, symSize: 0x30 }
  - { offset: 0x16A997, size: 0x8, addend: 0x0, symName: __RNvXsn_NtCslJiobkLta79_5alloc3vecINtB5_3VecNtNtCsdGrGZaRBwMb_3syn8generics14TypeParamBoundENtNtNtCsieiGu2EXtoJ_4core3ops4drop4Drop4dropBJ_, symObjAddr: 0xA4E0, symBinAddr: 0x7F6E0, symSize: 0x30 }
  - { offset: 0x16AA47, size: 0x8, addend: 0x0, symName: __RNvXsn_NtCslJiobkLta79_5alloc3vecINtB5_3VecReENtNtNtCsieiGu2EXtoJ_4core3ops4drop4Drop4dropCsdGrGZaRBwMb_3syn, symObjAddr: 0xA510, symBinAddr: 0x7F710, symSize: 0x20 }
  - { offset: 0x16AAF7, size: 0x8, addend: 0x0, symName: __RNvXsn_NtCslJiobkLta79_5alloc3vecINtB5_3VecTNtNtCsdGrGZaRBwMb_3syn2ty4TypeNtNtBK_5token5CommaEENtNtNtCsieiGu2EXtoJ_4core3ops4drop4Drop4dropBK_, symObjAddr: 0xA530, symBinAddr: 0x7F730, symSize: 0x30 }
  - { offset: 0x16ABA7, size: 0x8, addend: 0x0, symName: __RNvXsn_NtCslJiobkLta79_5alloc3vecINtB5_3VecTNtNtCsdGrGZaRBwMb_3syn2ty9BareFnArgNtNtBK_5token5CommaEENtNtNtCsieiGu2EXtoJ_4core3ops4drop4Drop4dropBK_, symObjAddr: 0xA560, symBinAddr: 0x7F760, symSize: 0x30 }
  - { offset: 0x16AC57, size: 0x8, addend: 0x0, symName: __RNvXsn_NtCslJiobkLta79_5alloc3vecINtB5_3VecTNtNtCsdGrGZaRBwMb_3syn3pat3PatNtNtBK_5token2OrEENtNtNtCsieiGu2EXtoJ_4core3ops4drop4Drop4dropBK_, symObjAddr: 0xA590, symBinAddr: 0x7F790, symSize: 0x30 }
  - { offset: 0x16AD07, size: 0x8, addend: 0x0, symName: __RNvXsn_NtCslJiobkLta79_5alloc3vecINtB5_3VecTNtNtCsdGrGZaRBwMb_3syn3pat3PatNtNtBK_5token5CommaEENtNtNtCsieiGu2EXtoJ_4core3ops4drop4Drop4dropBK_, symObjAddr: 0xA5C0, symBinAddr: 0x7F7C0, symSize: 0x30 }
  - { offset: 0x16ADB7, size: 0x8, addend: 0x0, symName: __RNvXsn_NtCslJiobkLta79_5alloc3vecINtB5_3VecTNtNtCsdGrGZaRBwMb_3syn3pat8FieldPatNtNtBK_5token5CommaEENtNtNtCsieiGu2EXtoJ_4core3ops4drop4Drop4dropBK_, symObjAddr: 0xA5F0, symBinAddr: 0x7F7F0, symSize: 0x30 }
  - { offset: 0x16AE67, size: 0x8, addend: 0x0, symName: __RNvXsn_NtCslJiobkLta79_5alloc3vecINtB5_3VecTNtNtCsdGrGZaRBwMb_3syn4data5FieldNtNtBK_5token5CommaEENtNtNtCsieiGu2EXtoJ_4core3ops4drop4Drop4dropBK_, symObjAddr: 0xA620, symBinAddr: 0x7F820, symSize: 0x30 }
  - { offset: 0x16AF17, size: 0x8, addend: 0x0, symName: __RNvXsn_NtCslJiobkLta79_5alloc3vecINtB5_3VecTNtNtCsdGrGZaRBwMb_3syn4data7VariantNtNtBK_5token5CommaEENtNtNtCsieiGu2EXtoJ_4core3ops4drop4Drop4dropBK_, symObjAddr: 0xA680, symBinAddr: 0x7F850, symSize: 0x30 }
  - { offset: 0x16AFC7, size: 0x8, addend: 0x0, symName: __RNvXsn_NtCslJiobkLta79_5alloc3vecINtB5_3VecTNtNtCsdGrGZaRBwMb_3syn4expr10FieldValueNtNtBK_5token5CommaEENtNtNtCsieiGu2EXtoJ_4core3ops4drop4Drop4dropBK_, symObjAddr: 0xA6B0, symBinAddr: 0x7F880, symSize: 0x30 }
  - { offset: 0x16B077, size: 0x8, addend: 0x0, symName: __RNvXsn_NtCslJiobkLta79_5alloc3vecINtB5_3VecTNtNtCsdGrGZaRBwMb_3syn4expr4ExprNtNtBK_5token5CommaEENtNtNtCsieiGu2EXtoJ_4core3ops4drop4Drop4dropBK_, symObjAddr: 0xA6E0, symBinAddr: 0x7F8B0, symSize: 0x30 }
  - { offset: 0x16B127, size: 0x8, addend: 0x0, symName: __RNvXsn_NtCslJiobkLta79_5alloc3vecINtB5_3VecTNtNtCsdGrGZaRBwMb_3syn4item5FnArgNtNtBK_5token5CommaEENtNtNtCsieiGu2EXtoJ_4core3ops4drop4Drop4dropBK_, symObjAddr: 0xA710, symBinAddr: 0x7F8E0, symSize: 0x30 }
  - { offset: 0x16B1D7, size: 0x8, addend: 0x0, symName: __RNvXsn_NtCslJiobkLta79_5alloc3vecINtB5_3VecTNtNtCsdGrGZaRBwMb_3syn4item7UseTreeNtNtBK_5token5CommaEENtNtNtCsieiGu2EXtoJ_4core3ops4drop4Drop4dropBK_, symObjAddr: 0xA740, symBinAddr: 0x7F910, symSize: 0x30 }
  - { offset: 0x16B287, size: 0x8, addend: 0x0, symName: __RNvXsn_NtCslJiobkLta79_5alloc3vecINtB5_3VecTNtNtCsdGrGZaRBwMb_3syn4path11PathSegmentNtNtBK_5token7PathSepEENtNtNtCsieiGu2EXtoJ_4core3ops4drop4Drop4dropBK_, symObjAddr: 0xA770, symBinAddr: 0x7F940, symSize: 0x30 }
  - { offset: 0x16B337, size: 0x8, addend: 0x0, symName: __RNvXsn_NtCslJiobkLta79_5alloc3vecINtB5_3VecTNtNtCsdGrGZaRBwMb_3syn4path15GenericArgumentNtNtBK_5token5CommaEENtNtNtCsieiGu2EXtoJ_4core3ops4drop4Drop4dropBK_, symObjAddr: 0xA7A0, symBinAddr: 0x7F970, symSize: 0x30 }
  - { offset: 0x16B3E7, size: 0x8, addend: 0x0, symName: __RNvXsn_NtCslJiobkLta79_5alloc3vecINtB5_3VecTNtNtCsdGrGZaRBwMb_3syn8generics12GenericParamNtNtBK_5token5CommaEENtNtNtCsieiGu2EXtoJ_4core3ops4drop4Drop4dropBK_, symObjAddr: 0xA7D0, symBinAddr: 0x7F9A0, symSize: 0x30 }
  - { offset: 0x16B497, size: 0x8, addend: 0x0, symName: __RNvXsn_NtCslJiobkLta79_5alloc3vecINtB5_3VecTNtNtCsdGrGZaRBwMb_3syn8generics13CapturedParamNtNtBK_5token5CommaEENtNtNtCsieiGu2EXtoJ_4core3ops4drop4Drop4dropBK_, symObjAddr: 0xA800, symBinAddr: 0x7F9D0, symSize: 0x30 }
  - { offset: 0x16B547, size: 0x8, addend: 0x0, symName: __RNvXsn_NtCslJiobkLta79_5alloc3vecINtB5_3VecTNtNtCsdGrGZaRBwMb_3syn8generics14TypeParamBoundNtNtBK_5token4PlusEENtNtNtCsieiGu2EXtoJ_4core3ops4drop4Drop4dropBK_, symObjAddr: 0xA830, symBinAddr: 0x7FA00, symSize: 0x30 }
  - { offset: 0x16B5F7, size: 0x8, addend: 0x0, symName: __RNvXsn_NtCslJiobkLta79_5alloc3vecINtB5_3VecTNtNtCsdGrGZaRBwMb_3syn8generics14WherePredicateNtNtBK_5token5CommaEENtNtNtCsieiGu2EXtoJ_4core3ops4drop4Drop4dropBK_, symObjAddr: 0xA860, symBinAddr: 0x7FA30, symSize: 0x30 }
  - { offset: 0x16B6A7, size: 0x8, addend: 0x0, symName: __RNvXsn_NtCslJiobkLta79_5alloc3vecINtB5_3VecTNtNtCsdGrGZaRBwMb_3syn8lifetime8LifetimeNtNtBK_5token4PlusEENtNtNtCsieiGu2EXtoJ_4core3ops4drop4Drop4dropBK_, symObjAddr: 0xA890, symBinAddr: 0x7FA60, symSize: 0x30 }
  - { offset: 0x16B75D, size: 0x8, addend: 0x0, symName: __RNvXsp_NtCslJiobkLta79_5alloc3vecINtB5_3VecNtNtCsdGrGZaRBwMb_3syn5error12ErrorMessageENtNtCsieiGu2EXtoJ_4core3fmt5Debug3fmtBJ_, symObjAddr: 0xABD0, symBinAddr: 0x7FA90, symSize: 0x70 }
  - { offset: 0x16B86D, size: 0x8, addend: 0x0, symName: __RNvXsp_NtCslJiobkLta79_5alloc3vecINtB5_3VechENtNtCsieiGu2EXtoJ_4core3fmt5Debug3fmtCsdGrGZaRBwMb_3syn, symObjAddr: 0xAC40, symBinAddr: 0x7FB00, symSize: 0x70 }
  - { offset: 0x16DD00, size: 0x8, addend: 0x0, symName: __RNvXsR_NtCslJiobkLta79_5alloc6stringINtNtB7_3vec3VechEINtNtCsieiGu2EXtoJ_4core7convert4FromNtB5_6StringE4fromCsdGrGZaRBwMb_3syn, symObjAddr: 0x87E0, symBinAddr: 0x7E810, symSize: 0x20 }
  - { offset: 0x16DF42, size: 0x8, addend: 0x0, symName: __RNvXNvMs_NtNtCslJiobkLta79_5alloc3ffi5c_strNtB7_7CString3newINtNtBb_3vec3VechENtB2_11SpecNewImpl13spec_new_implCsdGrGZaRBwMb_3syn, symObjAddr: 0x7070, symBinAddr: 0x7D470, symSize: 0x200 }
  - { offset: 0x173638, size: 0x8, addend: 0x0, symName: __RINvMs_NtCslJiobkLta79_5alloc3vecINtB5_3VecReE10retain_mutNCNvMNtCsdGrGZaRBwMb_3syn9lookaheadNtBZ_10Lookahead15error0EB11_, symObjAddr: 0x0, symBinAddr: 0x77D70, symSize: 0x160 }
  - { offset: 0x173D97, size: 0x8, addend: 0x0, symName: __RNvMNtCslJiobkLta79_5alloc3vecINtB2_3VecNtNtCsdGrGZaRBwMb_3syn4attr9AttributeE3newBG_, symObjAddr: 0x3C0, symBinAddr: 0x780F0, symSize: 0x30 }
  - { offset: 0x173DDF, size: 0x8, addend: 0x0, symName: __RNvMNtCslJiobkLta79_5alloc3vecINtB2_3VecNtNtCsdGrGZaRBwMb_3syn4expr3ArmE3newBG_, symObjAddr: 0x450, symBinAddr: 0x78120, symSize: 0x30 }
  - { offset: 0x173DFC, size: 0x8, addend: 0x0, symName: __RNvMNtCslJiobkLta79_5alloc3vecINtB2_3VecNtNtCsdGrGZaRBwMb_3syn4expr6ExprIfE3newBG_, symObjAddr: 0x480, symBinAddr: 0x78150, symSize: 0x30 }
  - { offset: 0x173E19, size: 0x8, addend: 0x0, symName: __RNvMNtCslJiobkLta79_5alloc3vecINtB2_3VecNtNtCsdGrGZaRBwMb_3syn4item11ForeignItemE3newBG_, symObjAddr: 0x4B0, symBinAddr: 0x78180, symSize: 0x30 }
  - { offset: 0x173E36, size: 0x8, addend: 0x0, symName: __RNvMNtCslJiobkLta79_5alloc3vecINtB2_3VecNtNtCsdGrGZaRBwMb_3syn4item4ItemE3newBG_, symObjAddr: 0x4E0, symBinAddr: 0x781B0, symSize: 0x30 }
  - { offset: 0x173E53, size: 0x8, addend: 0x0, symName: __RNvMNtCslJiobkLta79_5alloc3vecINtB2_3VecNtNtCsdGrGZaRBwMb_3syn4item8ImplItemE3newBG_, symObjAddr: 0x510, symBinAddr: 0x781E0, symSize: 0x30 }
  - { offset: 0x173E70, size: 0x8, addend: 0x0, symName: __RNvMNtCslJiobkLta79_5alloc3vecINtB2_3VecNtNtCsdGrGZaRBwMb_3syn4item9TraitItemE3newBG_, symObjAddr: 0x540, symBinAddr: 0x78210, symSize: 0x30 }
  - { offset: 0x173E8D, size: 0x8, addend: 0x0, symName: __RNvMNtCslJiobkLta79_5alloc3vecINtB2_3VecNtNtCsdGrGZaRBwMb_3syn4stmt4StmtE3newBG_, symObjAddr: 0x570, symBinAddr: 0x78240, symSize: 0x30 }
  - { offset: 0x173EAA, size: 0x8, addend: 0x0, symName: __RNvMNtCslJiobkLta79_5alloc3vecINtB2_3VecNtNtCsdGrGZaRBwMb_3syn6buffer5EntryE3newBG_, symObjAddr: 0x5A0, symBinAddr: 0x78270, symSize: 0x30 }
  - { offset: 0x173F29, size: 0x8, addend: 0x0, symName: __RNvMNtCslJiobkLta79_5alloc3vecINtB2_3VecNtNtCsdGrGZaRBwMb_3syn8generics14TypeParamBoundE13with_capacityBG_, symObjAddr: 0x5D0, symBinAddr: 0x782A0, symSize: 0x60 }
  - { offset: 0x173FA1, size: 0x8, addend: 0x0, symName: __RNvMNtCslJiobkLta79_5alloc3vecINtB2_3VecReE3newCsdGrGZaRBwMb_3syn, symObjAddr: 0x630, symBinAddr: 0x78300, symSize: 0x30 }
  - { offset: 0x173FBE, size: 0x8, addend: 0x0, symName: __RNvMNtCslJiobkLta79_5alloc3vecINtB2_3VecTNtNtCsdGrGZaRBwMb_3syn2ty4TypeNtNtBH_5token5CommaEE3newBH_, symObjAddr: 0x660, symBinAddr: 0x78330, symSize: 0x30 }
  - { offset: 0x173FDB, size: 0x8, addend: 0x0, symName: __RNvMNtCslJiobkLta79_5alloc3vecINtB2_3VecTNtNtCsdGrGZaRBwMb_3syn2ty9BareFnArgNtNtBH_5token5CommaEE3newBH_, symObjAddr: 0x690, symBinAddr: 0x78360, symSize: 0x30 }
  - { offset: 0x173FF8, size: 0x8, addend: 0x0, symName: __RNvMNtCslJiobkLta79_5alloc3vecINtB2_3VecTNtNtCsdGrGZaRBwMb_3syn3pat3PatNtNtBH_5token2OrEE3newBH_, symObjAddr: 0x6C0, symBinAddr: 0x78390, symSize: 0x30 }
  - { offset: 0x174015, size: 0x8, addend: 0x0, symName: __RNvMNtCslJiobkLta79_5alloc3vecINtB2_3VecTNtNtCsdGrGZaRBwMb_3syn3pat3PatNtNtBH_5token5CommaEE3newBH_, symObjAddr: 0x6F0, symBinAddr: 0x783C0, symSize: 0x30 }
  - { offset: 0x174032, size: 0x8, addend: 0x0, symName: __RNvMNtCslJiobkLta79_5alloc3vecINtB2_3VecTNtNtCsdGrGZaRBwMb_3syn3pat8FieldPatNtNtBH_5token5CommaEE3newBH_, symObjAddr: 0x720, symBinAddr: 0x783F0, symSize: 0x30 }
  - { offset: 0x17404F, size: 0x8, addend: 0x0, symName: __RNvMNtCslJiobkLta79_5alloc3vecINtB2_3VecTNtNtCsdGrGZaRBwMb_3syn4data5FieldNtNtBH_5token5CommaEE3newBH_, symObjAddr: 0x750, symBinAddr: 0x78420, symSize: 0x30 }
  - { offset: 0x17408C, size: 0x8, addend: 0x0, symName: __RNvMNtCslJiobkLta79_5alloc3vecINtB2_3VecTNtNtCsdGrGZaRBwMb_3syn4data7VariantNtNtBH_5token5CommaEE3newBH_, symObjAddr: 0x7B0, symBinAddr: 0x78450, symSize: 0x30 }
  - { offset: 0x1740A9, size: 0x8, addend: 0x0, symName: __RNvMNtCslJiobkLta79_5alloc3vecINtB2_3VecTNtNtCsdGrGZaRBwMb_3syn4expr10FieldValueNtNtBH_5token5CommaEE3newBH_, symObjAddr: 0x7E0, symBinAddr: 0x78480, symSize: 0x30 }
  - { offset: 0x1740C6, size: 0x8, addend: 0x0, symName: __RNvMNtCslJiobkLta79_5alloc3vecINtB2_3VecTNtNtCsdGrGZaRBwMb_3syn4expr4ExprNtNtBH_5token5CommaEE3newBH_, symObjAddr: 0x810, symBinAddr: 0x784B0, symSize: 0x30 }
  - { offset: 0x1740E3, size: 0x8, addend: 0x0, symName: __RNvMNtCslJiobkLta79_5alloc3vecINtB2_3VecTNtNtCsdGrGZaRBwMb_3syn4item5FnArgNtNtBH_5token5CommaEE3newBH_, symObjAddr: 0x840, symBinAddr: 0x784E0, symSize: 0x30 }
  - { offset: 0x174100, size: 0x8, addend: 0x0, symName: __RNvMNtCslJiobkLta79_5alloc3vecINtB2_3VecTNtNtCsdGrGZaRBwMb_3syn4item7UseTreeNtNtBH_5token5CommaEE3newBH_, symObjAddr: 0x870, symBinAddr: 0x78510, symSize: 0x30 }
  - { offset: 0x17411D, size: 0x8, addend: 0x0, symName: __RNvMNtCslJiobkLta79_5alloc3vecINtB2_3VecTNtNtCsdGrGZaRBwMb_3syn4path11PathSegmentNtNtBH_5token7PathSepEE3newBH_, symObjAddr: 0x8A0, symBinAddr: 0x78540, symSize: 0x30 }
  - { offset: 0x17413A, size: 0x8, addend: 0x0, symName: __RNvMNtCslJiobkLta79_5alloc3vecINtB2_3VecTNtNtCsdGrGZaRBwMb_3syn4path15GenericArgumentNtNtBH_5token5CommaEE3newBH_, symObjAddr: 0x8D0, symBinAddr: 0x78570, symSize: 0x30 }
  - { offset: 0x174157, size: 0x8, addend: 0x0, symName: __RNvMNtCslJiobkLta79_5alloc3vecINtB2_3VecTNtNtCsdGrGZaRBwMb_3syn8generics12GenericParamNtNtBH_5token5CommaEE3newBH_, symObjAddr: 0x900, symBinAddr: 0x785A0, symSize: 0x30 }
  - { offset: 0x174174, size: 0x8, addend: 0x0, symName: __RNvMNtCslJiobkLta79_5alloc3vecINtB2_3VecTNtNtCsdGrGZaRBwMb_3syn8generics13CapturedParamNtNtBH_5token5CommaEE3newBH_, symObjAddr: 0x930, symBinAddr: 0x785D0, symSize: 0x30 }
  - { offset: 0x174191, size: 0x8, addend: 0x0, symName: __RNvMNtCslJiobkLta79_5alloc3vecINtB2_3VecTNtNtCsdGrGZaRBwMb_3syn8generics14TypeParamBoundNtNtBH_5token4PlusEE3newBH_, symObjAddr: 0x960, symBinAddr: 0x78600, symSize: 0x30 }
  - { offset: 0x1741AE, size: 0x8, addend: 0x0, symName: __RNvMNtCslJiobkLta79_5alloc3vecINtB2_3VecTNtNtCsdGrGZaRBwMb_3syn8generics14WherePredicateNtNtBH_5token5CommaEE3newBH_, symObjAddr: 0x990, symBinAddr: 0x78630, symSize: 0x30 }
  - { offset: 0x1741CB, size: 0x8, addend: 0x0, symName: __RNvMNtCslJiobkLta79_5alloc3vecINtB2_3VecTNtNtCsdGrGZaRBwMb_3syn8lifetime8LifetimeNtNtBH_5token4PlusEE3newBH_, symObjAddr: 0x9C0, symBinAddr: 0x78660, symSize: 0x30 }
  - { offset: 0x1741E8, size: 0x8, addend: 0x0, symName: __RNvMNtCslJiobkLta79_5alloc3vecINtB2_3VechE3newCsdGrGZaRBwMb_3syn, symObjAddr: 0x9F0, symBinAddr: 0x78690, symSize: 0x30 }
  - { offset: 0x17430B, size: 0x8, addend: 0x0, symName: __RNvMs0_NtCslJiobkLta79_5alloc3vecINtB5_3VechE17extend_from_sliceCsdGrGZaRBwMb_3syn, symObjAddr: 0xA20, symBinAddr: 0x786C0, symSize: 0x70 }
  - { offset: 0x174582, size: 0x8, addend: 0x0, symName: __RNvMs0_NtCslJiobkLta79_5alloc3vecINtB5_3VechE6resizeCsdGrGZaRBwMb_3syn, symObjAddr: 0xA90, symBinAddr: 0x78730, symSize: 0xE0 }
  - { offset: 0x174849, size: 0x8, addend: 0x0, symName: __RNvMs2_NtCslJiobkLta79_5alloc3vecINtB5_3VechE11extend_withCsdGrGZaRBwMb_3syn, symObjAddr: 0xB70, symBinAddr: 0x78810, symSize: 0x280 }
  - { offset: 0x174C3A, size: 0x8, addend: 0x0, symName: __RNvMs_NtCslJiobkLta79_5alloc3vecINtB4_3VecNtNtCsdGrGZaRBwMb_3syn4attr9AttributeE15append_elementsBI_, symObjAddr: 0xDF0, symBinAddr: 0x78A90, symSize: 0xC0 }
  - { offset: 0x174DDC, size: 0x8, addend: 0x0, symName: __RNvMs_NtCslJiobkLta79_5alloc3vecINtB4_3VecNtNtCsdGrGZaRBwMb_3syn4attr9AttributeE4pushBI_, symObjAddr: 0xEB0, symBinAddr: 0x78B50, symSize: 0x20 }
  - { offset: 0x174F8A, size: 0x8, addend: 0x0, symName: __RNvMs_NtCslJiobkLta79_5alloc3vecINtB4_3VecNtNtCsdGrGZaRBwMb_3syn4attr9AttributeE6appendBI_, symObjAddr: 0xED0, symBinAddr: 0x78B70, symSize: 0xC0 }
  - { offset: 0x175255, size: 0x8, addend: 0x0, symName: __RNvMs_NtCslJiobkLta79_5alloc3vecINtB4_3VecNtNtCsdGrGZaRBwMb_3syn4attr9AttributeE7reserveBI_, symObjAddr: 0xF90, symBinAddr: 0x78C30, symSize: 0xB0 }
  - { offset: 0x175446, size: 0x8, addend: 0x0, symName: __RNvMs_NtCslJiobkLta79_5alloc3vecINtB4_3VecNtNtCsdGrGZaRBwMb_3syn4attr9AttributeE7set_lenBI_, symObjAddr: 0x1040, symBinAddr: 0x78CE0, symSize: 0x70 }
  - { offset: 0x17558F, size: 0x8, addend: 0x0, symName: __RNvMs_NtCslJiobkLta79_5alloc3vecINtB4_3VecNtNtCsdGrGZaRBwMb_3syn4attr9AttributeE8as_sliceBI_, symObjAddr: 0x10B0, symBinAddr: 0x78D50, symSize: 0x50 }
  - { offset: 0x17566E, size: 0x8, addend: 0x0, symName: __RNvMs_NtCslJiobkLta79_5alloc3vecINtB4_3VecNtNtCsdGrGZaRBwMb_3syn4attr9AttributeE8is_emptyBI_, symObjAddr: 0x1100, symBinAddr: 0x78DA0, symSize: 0x20 }
  - { offset: 0x1757AD, size: 0x8, addend: 0x0, symName: __RNvMs_NtCslJiobkLta79_5alloc3vecINtB4_3VecNtNtCsdGrGZaRBwMb_3syn4attr9AttributeE8push_mutBI_, symObjAddr: 0x1120, symBinAddr: 0x78DC0, symSize: 0x130 }
  - { offset: 0x175989, size: 0x8, addend: 0x0, symName: __RNvMs_NtCslJiobkLta79_5alloc3vecINtB4_3VecNtNtCsdGrGZaRBwMb_3syn4expr3ArmE3lenBI_, symObjAddr: 0x13B0, symBinAddr: 0x78EF0, symSize: 0x10 }
  - { offset: 0x1759CB, size: 0x8, addend: 0x0, symName: __RNvMs_NtCslJiobkLta79_5alloc3vecINtB4_3VecNtNtCsdGrGZaRBwMb_3syn4expr3ArmE4pushBI_, symObjAddr: 0x13C0, symBinAddr: 0x78F00, symSize: 0x20 }
  - { offset: 0x175AA1, size: 0x8, addend: 0x0, symName: __RNvMs_NtCslJiobkLta79_5alloc3vecINtB4_3VecNtNtCsdGrGZaRBwMb_3syn4expr3ArmE7set_lenBI_, symObjAddr: 0x13E0, symBinAddr: 0x78F20, symSize: 0x70 }
  - { offset: 0x175C2B, size: 0x8, addend: 0x0, symName: __RNvMs_NtCslJiobkLta79_5alloc3vecINtB4_3VecNtNtCsdGrGZaRBwMb_3syn4expr3ArmE8as_sliceBI_, symObjAddr: 0x1450, symBinAddr: 0x78F90, symSize: 0x50 }
  - { offset: 0x175DD1, size: 0x8, addend: 0x0, symName: __RNvMs_NtCslJiobkLta79_5alloc3vecINtB4_3VecNtNtCsdGrGZaRBwMb_3syn4expr3ArmE8push_mutBI_, symObjAddr: 0x14A0, symBinAddr: 0x78FE0, symSize: 0x140 }
  - { offset: 0x1760E0, size: 0x8, addend: 0x0, symName: __RNvMs_NtCslJiobkLta79_5alloc3vecINtB4_3VecNtNtCsdGrGZaRBwMb_3syn4expr6ExprIfE3popBI_, symObjAddr: 0x15E0, symBinAddr: 0x79120, symSize: 0x120 }
  - { offset: 0x176275, size: 0x8, addend: 0x0, symName: __RNvMs_NtCslJiobkLta79_5alloc3vecINtB4_3VecNtNtCsdGrGZaRBwMb_3syn4expr6ExprIfE4pushBI_, symObjAddr: 0x1700, symBinAddr: 0x79240, symSize: 0x20 }
  - { offset: 0x1763A6, size: 0x8, addend: 0x0, symName: __RNvMs_NtCslJiobkLta79_5alloc3vecINtB4_3VecNtNtCsdGrGZaRBwMb_3syn4expr6ExprIfE8push_mutBI_, symObjAddr: 0x1720, symBinAddr: 0x79260, symSize: 0x130 }
  - { offset: 0x176568, size: 0x8, addend: 0x0, symName: __RNvMs_NtCslJiobkLta79_5alloc3vecINtB4_3VecNtNtCsdGrGZaRBwMb_3syn4item11ForeignItemE4pushBI_, symObjAddr: 0x1850, symBinAddr: 0x79390, symSize: 0x20 }
  - { offset: 0x17664B, size: 0x8, addend: 0x0, symName: __RNvMs_NtCslJiobkLta79_5alloc3vecINtB4_3VecNtNtCsdGrGZaRBwMb_3syn4item11ForeignItemE7set_lenBI_, symObjAddr: 0x1870, symBinAddr: 0x793B0, symSize: 0x70 }
  - { offset: 0x17682A, size: 0x8, addend: 0x0, symName: __RNvMs_NtCslJiobkLta79_5alloc3vecINtB4_3VecNtNtCsdGrGZaRBwMb_3syn4item11ForeignItemE8push_mutBI_, symObjAddr: 0x18E0, symBinAddr: 0x79420, symSize: 0x140 }
  - { offset: 0x1769EC, size: 0x8, addend: 0x0, symName: __RNvMs_NtCslJiobkLta79_5alloc3vecINtB4_3VecNtNtCsdGrGZaRBwMb_3syn4item4ItemE4pushBI_, symObjAddr: 0x1A20, symBinAddr: 0x79560, symSize: 0x20 }
  - { offset: 0x176ACF, size: 0x8, addend: 0x0, symName: __RNvMs_NtCslJiobkLta79_5alloc3vecINtB4_3VecNtNtCsdGrGZaRBwMb_3syn4item4ItemE7set_lenBI_, symObjAddr: 0x1A40, symBinAddr: 0x79580, symSize: 0x70 }
  - { offset: 0x176CAE, size: 0x8, addend: 0x0, symName: __RNvMs_NtCslJiobkLta79_5alloc3vecINtB4_3VecNtNtCsdGrGZaRBwMb_3syn4item4ItemE8push_mutBI_, symObjAddr: 0x1AB0, symBinAddr: 0x795F0, symSize: 0x140 }
  - { offset: 0x176E70, size: 0x8, addend: 0x0, symName: __RNvMs_NtCslJiobkLta79_5alloc3vecINtB4_3VecNtNtCsdGrGZaRBwMb_3syn4item8ImplItemE4pushBI_, symObjAddr: 0x1BF0, symBinAddr: 0x79730, symSize: 0x20 }
  - { offset: 0x176F53, size: 0x8, addend: 0x0, symName: __RNvMs_NtCslJiobkLta79_5alloc3vecINtB4_3VecNtNtCsdGrGZaRBwMb_3syn4item8ImplItemE7set_lenBI_, symObjAddr: 0x1C10, symBinAddr: 0x79750, symSize: 0x70 }
  - { offset: 0x177132, size: 0x8, addend: 0x0, symName: __RNvMs_NtCslJiobkLta79_5alloc3vecINtB4_3VecNtNtCsdGrGZaRBwMb_3syn4item8ImplItemE8push_mutBI_, symObjAddr: 0x1C80, symBinAddr: 0x797C0, symSize: 0x140 }
  - { offset: 0x1772F4, size: 0x8, addend: 0x0, symName: __RNvMs_NtCslJiobkLta79_5alloc3vecINtB4_3VecNtNtCsdGrGZaRBwMb_3syn4item9TraitItemE4pushBI_, symObjAddr: 0x1DC0, symBinAddr: 0x79900, symSize: 0x20 }
  - { offset: 0x1773D7, size: 0x8, addend: 0x0, symName: __RNvMs_NtCslJiobkLta79_5alloc3vecINtB4_3VecNtNtCsdGrGZaRBwMb_3syn4item9TraitItemE7set_lenBI_, symObjAddr: 0x1DE0, symBinAddr: 0x79920, symSize: 0x70 }
  - { offset: 0x1775B6, size: 0x8, addend: 0x0, symName: __RNvMs_NtCslJiobkLta79_5alloc3vecINtB4_3VecNtNtCsdGrGZaRBwMb_3syn4item9TraitItemE8push_mutBI_, symObjAddr: 0x1E50, symBinAddr: 0x79990, symSize: 0x140 }
  - { offset: 0x177778, size: 0x8, addend: 0x0, symName: __RNvMs_NtCslJiobkLta79_5alloc3vecINtB4_3VecNtNtCsdGrGZaRBwMb_3syn4stmt4StmtE4pushBI_, symObjAddr: 0x1F90, symBinAddr: 0x79AD0, symSize: 0x20 }
  - { offset: 0x17785B, size: 0x8, addend: 0x0, symName: __RNvMs_NtCslJiobkLta79_5alloc3vecINtB4_3VecNtNtCsdGrGZaRBwMb_3syn4stmt4StmtE7set_lenBI_, symObjAddr: 0x1FB0, symBinAddr: 0x79AF0, symSize: 0x70 }
  - { offset: 0x177A3A, size: 0x8, addend: 0x0, symName: __RNvMs_NtCslJiobkLta79_5alloc3vecINtB4_3VecNtNtCsdGrGZaRBwMb_3syn4stmt4StmtE8push_mutBI_, symObjAddr: 0x2020, symBinAddr: 0x79B60, symSize: 0x140 }
  - { offset: 0x177D4C, size: 0x8, addend: 0x0, symName: __RNvMs_NtCslJiobkLta79_5alloc3vecINtB4_3VecNtNtCsdGrGZaRBwMb_3syn5error12ErrorMessageE17from_raw_parts_inBI_, symObjAddr: 0x2220, symBinAddr: 0x79CA0, symSize: 0xA0 }
  - { offset: 0x177ED3, size: 0x8, addend: 0x0, symName: __RNvMs_NtCslJiobkLta79_5alloc3vecINtB4_3VecNtNtCsdGrGZaRBwMb_3syn5error12ErrorMessageE3lenBI_, symObjAddr: 0x22C0, symBinAddr: 0x79D40, symSize: 0x10 }
  - { offset: 0x178060, size: 0x8, addend: 0x0, symName: __RNvMs_NtCslJiobkLta79_5alloc3vecINtB4_3VecNtNtCsdGrGZaRBwMb_3syn6buffer5EntryE13shrink_to_fitBI_, symObjAddr: 0x2440, symBinAddr: 0x79D50, symSize: 0xE0 }
  - { offset: 0x1782DA, size: 0x8, addend: 0x0, symName: __RNvMs_NtCslJiobkLta79_5alloc3vecINtB4_3VecNtNtCsdGrGZaRBwMb_3syn6buffer5EntryE16into_boxed_sliceBI_, symObjAddr: 0x2520, symBinAddr: 0x79E30, symSize: 0x160 }
  - { offset: 0x1784AA, size: 0x8, addend: 0x0, symName: __RNvMs_NtCslJiobkLta79_5alloc3vecINtB4_3VecNtNtCsdGrGZaRBwMb_3syn6buffer5EntryE3lenBI_, symObjAddr: 0x2680, symBinAddr: 0x79F90, symSize: 0x10 }
  - { offset: 0x1784DF, size: 0x8, addend: 0x0, symName: __RNvMs_NtCslJiobkLta79_5alloc3vecINtB4_3VecNtNtCsdGrGZaRBwMb_3syn6buffer5EntryE4pushBI_, symObjAddr: 0x2690, symBinAddr: 0x79FA0, symSize: 0x20 }
  - { offset: 0x17861D, size: 0x8, addend: 0x0, symName: __RNvMs_NtCslJiobkLta79_5alloc3vecINtB4_3VecNtNtCsdGrGZaRBwMb_3syn6buffer5EntryE8push_mutBI_, symObjAddr: 0x26B0, symBinAddr: 0x79FC0, symSize: 0x120 }
  - { offset: 0x1787DF, size: 0x8, addend: 0x0, symName: __RNvMs_NtCslJiobkLta79_5alloc3vecINtB4_3VecNtNtCsdGrGZaRBwMb_3syn8generics14TypeParamBoundE4pushBI_, symObjAddr: 0x27D0, symBinAddr: 0x7A0E0, symSize: 0x20 }
  - { offset: 0x178937, size: 0x8, addend: 0x0, symName: __RNvMs_NtCslJiobkLta79_5alloc3vecINtB4_3VecNtNtCsdGrGZaRBwMb_3syn8generics14TypeParamBoundE8push_mutBI_, symObjAddr: 0x27F0, symBinAddr: 0x7A100, symSize: 0x130 }
  - { offset: 0x178AEC, size: 0x8, addend: 0x0, symName: __RNvMs_NtCslJiobkLta79_5alloc3vecINtB4_3VecReE3lenCsdGrGZaRBwMb_3syn, symObjAddr: 0x2920, symBinAddr: 0x7A230, symSize: 0x10 }
  - { offset: 0x178B21, size: 0x8, addend: 0x0, symName: __RNvMs_NtCslJiobkLta79_5alloc3vecINtB4_3VecReE4pushCsdGrGZaRBwMb_3syn, symObjAddr: 0x2930, symBinAddr: 0x7A240, symSize: 0x20 }
  - { offset: 0x178BFC, size: 0x8, addend: 0x0, symName: __RNvMs_NtCslJiobkLta79_5alloc3vecINtB4_3VecReE8as_sliceCsdGrGZaRBwMb_3syn, symObjAddr: 0x2950, symBinAddr: 0x7A260, symSize: 0x50 }
  - { offset: 0x178D95, size: 0x8, addend: 0x0, symName: __RNvMs_NtCslJiobkLta79_5alloc3vecINtB4_3VecReE8push_mutCsdGrGZaRBwMb_3syn, symObjAddr: 0x29A0, symBinAddr: 0x7A2B0, symSize: 0xF0 }
  - { offset: 0x178F58, size: 0x8, addend: 0x0, symName: __RNvMs_NtCslJiobkLta79_5alloc3vecINtB4_3VecTNtNtCsdGrGZaRBwMb_3syn2ty4TypeNtNtBJ_5token5CommaEE3lenBJ_, symObjAddr: 0x2A90, symBinAddr: 0x7A3A0, symSize: 0x10 }
  - { offset: 0x178F9A, size: 0x8, addend: 0x0, symName: __RNvMs_NtCslJiobkLta79_5alloc3vecINtB4_3VecTNtNtCsdGrGZaRBwMb_3syn2ty4TypeNtNtBJ_5token5CommaEE4pushBJ_, symObjAddr: 0x2AA0, symBinAddr: 0x7A3B0, symSize: 0x20 }
  - { offset: 0x179070, size: 0x8, addend: 0x0, symName: __RNvMs_NtCslJiobkLta79_5alloc3vecINtB4_3VecTNtNtCsdGrGZaRBwMb_3syn2ty4TypeNtNtBJ_5token5CommaEE7set_lenBJ_, symObjAddr: 0x2AC0, symBinAddr: 0x7A3D0, symSize: 0x70 }
  - { offset: 0x1791FA, size: 0x8, addend: 0x0, symName: __RNvMs_NtCslJiobkLta79_5alloc3vecINtB4_3VecTNtNtCsdGrGZaRBwMb_3syn2ty4TypeNtNtBJ_5token5CommaEE8as_sliceBJ_, symObjAddr: 0x2B30, symBinAddr: 0x7A440, symSize: 0x50 }
  - { offset: 0x1793A0, size: 0x8, addend: 0x0, symName: __RNvMs_NtCslJiobkLta79_5alloc3vecINtB4_3VecTNtNtCsdGrGZaRBwMb_3syn2ty4TypeNtNtBJ_5token5CommaEE8push_mutBJ_, symObjAddr: 0x2B80, symBinAddr: 0x7A490, symSize: 0x140 }
  - { offset: 0x179562, size: 0x8, addend: 0x0, symName: __RNvMs_NtCslJiobkLta79_5alloc3vecINtB4_3VecTNtNtCsdGrGZaRBwMb_3syn2ty9BareFnArgNtNtBJ_5token5CommaEE3lenBJ_, symObjAddr: 0x2CC0, symBinAddr: 0x7A5D0, symSize: 0x10 }
  - { offset: 0x1795A4, size: 0x8, addend: 0x0, symName: __RNvMs_NtCslJiobkLta79_5alloc3vecINtB4_3VecTNtNtCsdGrGZaRBwMb_3syn2ty9BareFnArgNtNtBJ_5token5CommaEE4pushBJ_, symObjAddr: 0x2CD0, symBinAddr: 0x7A5E0, symSize: 0x20 }
  - { offset: 0x17967A, size: 0x8, addend: 0x0, symName: __RNvMs_NtCslJiobkLta79_5alloc3vecINtB4_3VecTNtNtCsdGrGZaRBwMb_3syn2ty9BareFnArgNtNtBJ_5token5CommaEE7set_lenBJ_, symObjAddr: 0x2CF0, symBinAddr: 0x7A600, symSize: 0x70 }
  - { offset: 0x179804, size: 0x8, addend: 0x0, symName: __RNvMs_NtCslJiobkLta79_5alloc3vecINtB4_3VecTNtNtCsdGrGZaRBwMb_3syn2ty9BareFnArgNtNtBJ_5token5CommaEE8as_sliceBJ_, symObjAddr: 0x2D60, symBinAddr: 0x7A670, symSize: 0x50 }
  - { offset: 0x1799AA, size: 0x8, addend: 0x0, symName: __RNvMs_NtCslJiobkLta79_5alloc3vecINtB4_3VecTNtNtCsdGrGZaRBwMb_3syn2ty9BareFnArgNtNtBJ_5token5CommaEE8push_mutBJ_, symObjAddr: 0x2DB0, symBinAddr: 0x7A6C0, symSize: 0x140 }
