---
triple:          'x86_64-apple-darwin'
binary-path:     '/Users/kema/git/rust-serv/target/debug/deps/libserde_derive-27cc77515f55a60f.dylib'
relocations:
  - { offset: 0x1E, size: 0x8, addend: 0x0, symName: __RINvMNtNtNtCslJiobkLta79_5alloc11collections5btree4nodeINtB3_8LeafNodeNtNtCsdGrGZaRBwMb_3syn8lifetime8LifetimeNtNtB5_7set_val9SetValZSTE3newNtNtB9_5alloc6GlobalECssR9xeAO3IU_12serde_derive, symObjAddr: 0x0, symBinAddr: 0xBD0, symSize: 0x60 }
  - { offset: 0xB592, size: 0x8, addend: 0x0, symName: __RINvNtNtNtCslJiobkLta79_5alloc11collections5btree4node12slice_insertINtNtNtCsieiGu2EXtoJ_4core3ptr8non_null7NonNullINtB2_8LeafNodeNtNtCsdGrGZaRBwMb_3syn8lifetime8LifetimeNtNtB4_7set_val9SetValZSTEEECssR9xeAO3IU_12serde_derive, symObjAddr: 0x5650, symBinAddr: 0x6220, symSize: 0x130 }
  - { offset: 0xB6F8, size: 0x8, addend: 0x0, symName: __RINvNtNtNtCslJiobkLta79_5alloc11collections5btree4node12slice_insertINtNtNtCsieiGu2EXtoJ_4core3ptr8non_null7NonNullINtB2_8LeafNodeNtNtNtCssR9xeAO3IU_12serde_derive9internals4name4NameNtNtB4_7set_val9SetValZSTEEEB2a_, symObjAddr: 0x5780, symBinAddr: 0x6350, symSize: 0x130 }
  - { offset: 0xB85E, size: 0x8, addend: 0x0, symName: __RINvNtNtNtCslJiobkLta79_5alloc11collections5btree4node12slice_insertNtNtB4_7set_val9SetValZSTECssR9xeAO3IU_12serde_derive, symObjAddr: 0x58B0, symBinAddr: 0x6480, symSize: 0xB0 }
  - { offset: 0xB977, size: 0x8, addend: 0x0, symName: __RINvNtNtNtCslJiobkLta79_5alloc11collections5btree4node12slice_insertNtNtCsdGrGZaRBwMb_3syn8lifetime8LifetimeECssR9xeAO3IU_12serde_derive, symObjAddr: 0x5960, symBinAddr: 0x6530, symSize: 0x1B0 }
  - { offset: 0xBAFE, size: 0x8, addend: 0x0, symName: __RINvNtNtNtCslJiobkLta79_5alloc11collections5btree4node12slice_insertNtNtNtCssR9xeAO3IU_12serde_derive9internals4name4NameEB1a_, symObjAddr: 0x5B10, symBinAddr: 0x66E0, symSize: 0x1B0 }
  - { offset: 0xBC85, size: 0x8, addend: 0x0, symName: __RINvNtNtNtCslJiobkLta79_5alloc11collections5btree4node13move_to_sliceINtNtNtCsieiGu2EXtoJ_4core3ptr8non_null7NonNullINtB2_8LeafNodeNtNtCsdGrGZaRBwMb_3syn8lifetime8LifetimeNtNtB4_7set_val9SetValZSTEEECssR9xeAO3IU_12serde_derive, symObjAddr: 0x5CC0, symBinAddr: 0x6890, symSize: 0x90 }
  - { offset: 0xBD31, size: 0x8, addend: 0x0, symName: __RINvNtNtNtCslJiobkLta79_5alloc11collections5btree4node13move_to_sliceINtNtNtCsieiGu2EXtoJ_4core3ptr8non_null7NonNullINtB2_8LeafNodeNtNtNtCssR9xeAO3IU_12serde_derive9internals4name4NameNtNtB4_7set_val9SetValZSTEEEB2b_, symObjAddr: 0x5D50, symBinAddr: 0x6920, symSize: 0x90 }
  - { offset: 0xBDDD, size: 0x8, addend: 0x0, symName: __RINvNtNtNtCslJiobkLta79_5alloc11collections5btree4node13move_to_sliceNtNtB4_7set_val9SetValZSTECssR9xeAO3IU_12serde_derive, symObjAddr: 0x5DE0, symBinAddr: 0x69B0, symSize: 0xA0 }
  - { offset: 0xBE89, size: 0x8, addend: 0x0, symName: __RINvNtNtNtCslJiobkLta79_5alloc11collections5btree4node13move_to_sliceNtNtCsdGrGZaRBwMb_3syn8lifetime8LifetimeECssR9xeAO3IU_12serde_derive, symObjAddr: 0x5E80, symBinAddr: 0x6A50, symSize: 0xA0 }
  - { offset: 0xBF35, size: 0x8, addend: 0x0, symName: __RINvNtNtNtCslJiobkLta79_5alloc11collections5btree4node13move_to_sliceNtNtNtCssR9xeAO3IU_12serde_derive9internals4name4NameEB1b_, symObjAddr: 0x5F20, symBinAddr: 0x6AF0, symSize: 0xA0 }
  - { offset: 0xBFEB, size: 0x8, addend: 0x0, symName: __RNCINvMss_NtNtNtCslJiobkLta79_5alloc11collections5btree4nodeINtB8_7NodeRefNtNtB8_6marker5OwnedNtNtCsdGrGZaRBwMb_3syn8lifetime8LifetimeNtNtBa_7set_val9SetValZSTNtB1c_14LeafOrInternalE19push_internal_levelNtNtBe_5alloc6GlobalE0CssR9xeAO3IU_12serde_derive, symObjAddr: 0x5FC0, symBinAddr: 0x6B90, symSize: 0x30 }
  - { offset: 0xC044, size: 0x8, addend: 0x0, symName: __RNCINvMss_NtNtNtCslJiobkLta79_5alloc11collections5btree4nodeINtB8_7NodeRefNtNtB8_6marker5OwnedNtNtNtCssR9xeAO3IU_12serde_derive9internals4name4NameNtNtBa_7set_val9SetValZSTNtB1c_14LeafOrInternalE19push_internal_levelNtNtBe_5alloc6GlobalE0B1A_, symObjAddr: 0x5FF0, symBinAddr: 0x6BC0, symSize: 0x30 }
  - { offset: 0xD019, size: 0x8, addend: 0x0, symName: __RNvXNvMsT_NtNtNtCslJiobkLta79_5alloc11collections5btree4nodeINtB8_6HandleINtB8_7NodeRefNtNtB8_6marker5DyingpppENtB1p_2KVE12drop_key_valINtB2_7DropperNtNtBa_7set_val9SetValZSTENtNtNtCsieiGu2EXtoJ_4core3ops4drop4Drop4dropCssR9xeAO3IU_12serde_derive, symObjAddr: 0xBA20, symBinAddr: 0xC5F0, symSize: 0x20 }
  - { offset: 0xDF87, size: 0x8, addend: 0x0, symName: __RINvMNtNtNtCslJiobkLta79_5alloc11collections5btree4nodeINtB3_8LeafNodeNtNtCsdGrGZaRBwMb_3syn8lifetime8LifetimeNtNtB5_7set_val9SetValZSTE3newNtNtB9_5alloc6GlobalECssR9xeAO3IU_12serde_derive, symObjAddr: 0x0, symBinAddr: 0xBD0, symSize: 0x60 }
  - { offset: 0xE284, size: 0x8, addend: 0x0, symName: __RINvMNtNtNtCslJiobkLta79_5alloc11collections5btree4nodeINtB3_8LeafNodeNtNtNtCssR9xeAO3IU_12serde_derive9internals4name4NameNtNtB5_7set_val9SetValZSTE3newNtNtB9_5alloc6GlobalEB1c_, symObjAddr: 0x60, symBinAddr: 0xC30, symSize: 0x60 }
  - { offset: 0xE5C8, size: 0x8, addend: 0x0, symName: __RINvMs0_NtNtNtCslJiobkLta79_5alloc11collections5btree6searchINtNtB8_4node7NodeRefNtNtBZ_6marker3MutNtNtCsdGrGZaRBwMb_3syn8lifetime8LifetimeNtNtB8_7set_val9SetValZSTNtB1j_14LeafOrInternalE14find_key_indexB1z_ECssR9xeAO3IU_12serde_derive, symObjAddr: 0xC0, symBinAddr: 0xC90, symSize: 0x240 }
  - { offset: 0xEA26, size: 0x8, addend: 0x0, symName: __RINvMs0_NtNtNtCslJiobkLta79_5alloc11collections5btree6searchINtNtB8_4node7NodeRefNtNtBZ_6marker3MutNtNtNtCssR9xeAO3IU_12serde_derive9internals4name4NameNtNtB8_7set_val9SetValZSTNtB1j_14LeafOrInternalE14find_key_indexB1z_EB1F_, symObjAddr: 0x300, symBinAddr: 0xED0, symSize: 0x240 }
  - { offset: 0xEE18, size: 0x8, addend: 0x0, symName: __RINvMs0_NtNtNtCslJiobkLta79_5alloc11collections5btree6searchINtNtB8_4node7NodeRefNtNtBZ_6marker5ImmutNtNtCsdGrGZaRBwMb_3syn8lifetime8LifetimeNtNtB8_7set_val9SetValZSTNtB1j_14LeafOrInternalE14find_key_indexB1B_ECssR9xeAO3IU_12serde_derive, symObjAddr: 0x540, symBinAddr: 0x1110, symSize: 0x240 }
  - { offset: 0xF1AD, size: 0x8, addend: 0x0, symName: __RINvMs9_NtNtNtCslJiobkLta79_5alloc11collections5btree4nodeINtB6_7NodeRefNtNtB6_6marker5OwnedNtNtCsdGrGZaRBwMb_3syn8lifetime8LifetimeNtNtB8_7set_val9SetValZSTNtB1a_8InternalE12new_internalNtNtBc_5alloc6GlobalECssR9xeAO3IU_12serde_derive, symObjAddr: 0x780, symBinAddr: 0x1350, symSize: 0x90 }
  - { offset: 0xF3FE, size: 0x8, addend: 0x0, symName: __RINvMs9_NtNtNtCslJiobkLta79_5alloc11collections5btree4nodeINtB6_7NodeRefNtNtB6_6marker5OwnedNtNtCsdGrGZaRBwMb_3syn8lifetime8LifetimeNtNtB8_7set_val9SetValZSTNtB1a_8InternalE17from_new_internalNtNtBc_5alloc6GlobalECssR9xeAO3IU_12serde_derive, symObjAddr: 0x810, symBinAddr: 0x13E0, symSize: 0xD0 }
  - { offset: 0xF5F7, size: 0x8, addend: 0x0, symName: __RINvMs9_NtNtNtCslJiobkLta79_5alloc11collections5btree4nodeINtB6_7NodeRefNtNtB6_6marker5OwnedNtNtNtCssR9xeAO3IU_12serde_derive9internals4name4NameNtNtB8_7set_val9SetValZSTNtB1a_8InternalE12new_internalNtNtBc_5alloc6GlobalEB1y_, symObjAddr: 0x8E0, symBinAddr: 0x14B0, symSize: 0x90 }
  - { offset: 0xF82A, size: 0x8, addend: 0x0, symName: __RINvMs9_NtNtNtCslJiobkLta79_5alloc11collections5btree4nodeINtB6_7NodeRefNtNtB6_6marker5OwnedNtNtNtCssR9xeAO3IU_12serde_derive9internals4name4NameNtNtB8_7set_val9SetValZSTNtB1a_8InternalE17from_new_internalNtNtBc_5alloc6GlobalEB1y_, symObjAddr: 0x970, symBinAddr: 0x1540, symSize: 0xD0 }
  - { offset: 0xFC72, size: 0x8, addend: 0x0, symName: __RINvMsK_NtNtNtCslJiobkLta79_5alloc11collections5btree4nodeINtB6_6HandleINtB6_7NodeRefNtNtB6_6marker3MutNtNtCsdGrGZaRBwMb_3syn8lifetime8LifetimeNtNtB8_7set_val9SetValZSTNtB1n_4LeafENtB1n_4EdgeE6insertNtNtBc_5alloc6GlobalECssR9xeAO3IU_12serde_derive, symObjAddr: 0xA40, symBinAddr: 0x1610, symSize: 0x700 }
  - { offset: 0x10160, size: 0x8, addend: 0x0, symName: __RINvMsK_NtNtNtCslJiobkLta79_5alloc11collections5btree4nodeINtB6_6HandleINtB6_7NodeRefNtNtB6_6marker3MutNtNtNtCssR9xeAO3IU_12serde_derive9internals4name4NameNtNtB8_7set_val9SetValZSTNtB1n_4LeafENtB1n_4EdgeE6insertNtNtBc_5alloc6GlobalEB1J_, symObjAddr: 0x1140, symBinAddr: 0x1D10, symSize: 0x710 }
  - { offset: 0x10585, size: 0x8, addend: 0x0, symName: __RINvMsM_NtNtNtCslJiobkLta79_5alloc11collections5btree4nodeINtB6_6HandleINtB6_7NodeRefNtNtB6_6marker3MutNtNtCsdGrGZaRBwMb_3syn8lifetime8LifetimeNtNtB8_7set_val9SetValZSTNtB1n_8InternalENtB1n_4EdgeE6insertNtNtBc_5alloc6GlobalECssR9xeAO3IU_12serde_derive, symObjAddr: 0x1850, symBinAddr: 0x2420, symSize: 0x6D0 }
  - { offset: 0x1090F, size: 0x8, addend: 0x0, symName: __RINvMsM_NtNtNtCslJiobkLta79_5alloc11collections5btree4nodeINtB6_6HandleINtB6_7NodeRefNtNtB6_6marker3MutNtNtNtCssR9xeAO3IU_12serde_derive9internals4name4NameNtNtB8_7set_val9SetValZSTNtB1n_8InternalENtB1n_4EdgeE6insertNtNtBc_5alloc6GlobalEB1J_, symObjAddr: 0x1F20, symBinAddr: 0x2AF0, symSize: 0x6D0 }
  - { offset: 0x10C0E, size: 0x8, addend: 0x0, symName: __RINvMsN_NtNtNtCslJiobkLta79_5alloc11collections5btree4nodeINtB6_6HandleINtB6_7NodeRefNtNtB6_6marker3MutNtNtCsdGrGZaRBwMb_3syn8lifetime8LifetimeNtNtB8_7set_val9SetValZSTNtB1n_4LeafENtB1n_4EdgeE16insert_recursingNtNtBc_5alloc6GlobalNCNvMs6_NtNtB8_3map5entryINtB3O_11VacantEntryB1D_B2h_E12insert_entry0ECssR9xeAO3IU_12serde_derive, symObjAddr: 0x25F0, symBinAddr: 0x31C0, symSize: 0x6B0 }
  - { offset: 0x10F3C, size: 0x8, addend: 0x0, symName: __RINvMsN_NtNtNtCslJiobkLta79_5alloc11collections5btree4nodeINtB6_6HandleINtB6_7NodeRefNtNtB6_6marker3MutNtNtNtCssR9xeAO3IU_12serde_derive9internals4name4NameNtNtB8_7set_val9SetValZSTNtB1n_4LeafENtB1n_4EdgeE16insert_recursingNtNtBc_5alloc6GlobalNCNvMs6_NtNtB8_3map5entryINtB41_11VacantEntryB1D_B2u_E12insert_entry0EB1J_, symObjAddr: 0x2CA0, symBinAddr: 0x3870, symSize: 0x6D0 }
  - { offset: 0x111E0, size: 0x8, addend: 0x0, symName: __RINvMsV_NtNtNtCslJiobkLta79_5alloc11collections5btree4nodeINtB6_6HandleINtB6_7NodeRefNtNtB6_6marker3MutNtNtCsdGrGZaRBwMb_3syn8lifetime8LifetimeNtNtB8_7set_val9SetValZSTNtB1n_4LeafENtB1n_2KVE5splitNtNtBc_5alloc6GlobalECssR9xeAO3IU_12serde_derive, symObjAddr: 0x3370, symBinAddr: 0x3F40, symSize: 0xC0 }
  - { offset: 0x112CF, size: 0x8, addend: 0x0, symName: __RINvMsV_NtNtNtCslJiobkLta79_5alloc11collections5btree4nodeINtB6_6HandleINtB6_7NodeRefNtNtB6_6marker3MutNtNtNtCssR9xeAO3IU_12serde_derive9internals4name4NameNtNtB8_7set_val9SetValZSTNtB1n_4LeafENtB1n_2KVE5splitNtNtBc_5alloc6GlobalEB1J_, symObjAddr: 0x3430, symBinAddr: 0x4000, symSize: 0xC0 }
  - { offset: 0x114E7, size: 0x8, addend: 0x0, symName: __RINvMsW_NtNtNtCslJiobkLta79_5alloc11collections5btree4nodeINtB6_6HandleINtB6_7NodeRefNtNtB6_6marker3MutNtNtCsdGrGZaRBwMb_3syn8lifetime8LifetimeNtNtB8_7set_val9SetValZSTNtB1n_8InternalENtB1n_2KVE5splitNtNtBc_5alloc6GlobalECssR9xeAO3IU_12serde_derive, symObjAddr: 0x34F0, symBinAddr: 0x40C0, symSize: 0x360 }
  - { offset: 0x119A3, size: 0x8, addend: 0x0, symName: __RINvMsW_NtNtNtCslJiobkLta79_5alloc11collections5btree4nodeINtB6_6HandleINtB6_7NodeRefNtNtB6_6marker3MutNtNtNtCssR9xeAO3IU_12serde_derive9internals4name4NameNtNtB8_7set_val9SetValZSTNtB1n_8InternalENtB1n_2KVE5splitNtNtBc_5alloc6GlobalEB1J_, symObjAddr: 0x3850, symBinAddr: 0x4420, symSize: 0x360 }
  - { offset: 0x11D9A, size: 0x8, addend: 0x0, symName: __RINvMs_NtNtNtCslJiobkLta79_5alloc11collections5btree4nodeINtB5_12InternalNodeNtNtCsdGrGZaRBwMb_3syn8lifetime8LifetimeNtNtB7_7set_val9SetValZSTE3newNtNtBb_5alloc6GlobalECssR9xeAO3IU_12serde_derive, symObjAddr: 0x3BB0, symBinAddr: 0x4780, symSize: 0x60 }
  - { offset: 0x11FB6, size: 0x8, addend: 0x0, symName: __RINvMs_NtNtNtCslJiobkLta79_5alloc11collections5btree4nodeINtB5_12InternalNodeNtNtNtCssR9xeAO3IU_12serde_derive9internals4name4NameNtNtB7_7set_val9SetValZSTE3newNtNtBb_5alloc6GlobalEB1j_, symObjAddr: 0x3C10, symBinAddr: 0x47E0, symSize: 0x60 }
  - { offset: 0x122B1, size: 0x8, addend: 0x0, symName: __RINvMs_NtNtNtCslJiobkLta79_5alloc11collections5btree6searchINtNtB7_4node7NodeRefNtNtBY_6marker3MutNtNtCsdGrGZaRBwMb_3syn8lifetime8LifetimeNtNtB7_7set_val9SetValZSTNtB1i_14LeafOrInternalE11search_treeB1y_ECssR9xeAO3IU_12serde_derive, symObjAddr: 0x3C70, symBinAddr: 0x4840, symSize: 0x3A0 }
  - { offset: 0x12601, size: 0x8, addend: 0x0, symName: __RINvMs_NtNtNtCslJiobkLta79_5alloc11collections5btree6searchINtNtB7_4node7NodeRefNtNtBY_6marker3MutNtNtNtCssR9xeAO3IU_12serde_derive9internals4name4NameNtNtB7_7set_val9SetValZSTNtB1i_14LeafOrInternalE11search_treeB1y_EB1E_, symObjAddr: 0x4010, symBinAddr: 0x4BE0, symSize: 0x3A0 }
  - { offset: 0x1298D, size: 0x8, addend: 0x0, symName: __RINvMs_NtNtNtCslJiobkLta79_5alloc11collections5btree6searchINtNtB7_4node7NodeRefNtNtBY_6marker5ImmutNtNtCsdGrGZaRBwMb_3syn8lifetime8LifetimeNtNtB7_7set_val9SetValZSTNtB1i_14LeafOrInternalE11search_treeB1A_ECssR9xeAO3IU_12serde_derive, symObjAddr: 0x43B0, symBinAddr: 0x4F80, symSize: 0x3A0 }
  - { offset: 0x12C6B, size: 0x8, addend: 0x0, symName: __RINvMsh_NtNtNtCslJiobkLta79_5alloc11collections5btree4nodeINtB6_7NodeRefNtNtB6_6marker5DyingNtNtCsdGrGZaRBwMb_3syn8lifetime8LifetimeNtNtB8_7set_val9SetValZSTNtB1a_14LeafOrInternalE21deallocate_and_ascendNtNtBc_5alloc6GlobalECssR9xeAO3IU_12serde_derive, symObjAddr: 0x4750, symBinAddr: 0x5320, symSize: 0x1A0 }
  - { offset: 0x12EEC, size: 0x8, addend: 0x0, symName: __RINvMsh_NtNtNtCslJiobkLta79_5alloc11collections5btree4nodeINtB6_7NodeRefNtNtB6_6marker5DyingNtNtNtCssR9xeAO3IU_12serde_derive9internals4name4NameNtNtB8_7set_val9SetValZSTNtB1a_14LeafOrInternalE21deallocate_and_ascendNtNtBc_5alloc6GlobalEB1y_, symObjAddr: 0x48F0, symBinAddr: 0x54C0, symSize: 0x1A0 }
  - { offset: 0x13140, size: 0x8, addend: 0x0, symName: __RINvMsj_NtNtNtCslJiobkLta79_5alloc11collections5btree8navigateINtNtB8_4node6HandleINtB11_7NodeRefNtNtB11_6marker5DyingNtNtCsdGrGZaRBwMb_3syn8lifetime8LifetimeNtNtB8_7set_val9SetValZSTNtB1z_4LeafENtB1z_4EdgeE16deallocating_endNtNtBc_5alloc6GlobalECssR9xeAO3IU_12serde_derive, symObjAddr: 0x4A90, symBinAddr: 0x5660, symSize: 0xF0 }
  - { offset: 0x133B6, size: 0x8, addend: 0x0, symName: __RINvMsj_NtNtNtCslJiobkLta79_5alloc11collections5btree8navigateINtNtB8_4node6HandleINtB11_7NodeRefNtNtB11_6marker5DyingNtNtCsdGrGZaRBwMb_3syn8lifetime8LifetimeNtNtB8_7set_val9SetValZSTNtB1z_4LeafENtB1z_4EdgeE17deallocating_nextNtNtBc_5alloc6GlobalECssR9xeAO3IU_12serde_derive, symObjAddr: 0x4B80, symBinAddr: 0x5750, symSize: 0x370 }
  - { offset: 0x13601, size: 0x8, addend: 0x0, symName: __RINvMsj_NtNtNtCslJiobkLta79_5alloc11collections5btree8navigateINtNtB8_4node6HandleINtB11_7NodeRefNtNtB11_6marker5DyingNtNtNtCssR9xeAO3IU_12serde_derive9internals4name4NameNtNtB8_7set_val9SetValZSTNtB1z_4LeafENtB1z_4EdgeE16deallocating_endNtNtBc_5alloc6GlobalEB1Y_, symObjAddr: 0x4EF0, symBinAddr: 0x5AC0, symSize: 0xF0 }
  - { offset: 0x13877, size: 0x8, addend: 0x0, symName: __RINvMsj_NtNtNtCslJiobkLta79_5alloc11collections5btree8navigateINtNtB8_4node6HandleINtB11_7NodeRefNtNtB11_6marker5DyingNtNtNtCssR9xeAO3IU_12serde_derive9internals4name4NameNtNtB8_7set_val9SetValZSTNtB1z_4LeafENtB1z_4EdgeE17deallocating_nextNtNtBc_5alloc6GlobalEB1Y_, symObjAddr: 0x4FE0, symBinAddr: 0x5BB0, symSize: 0x370 }
  - { offset: 0x13AD9, size: 0x8, addend: 0x0, symName: __RINvMsp_NtNtNtCslJiobkLta79_5alloc11collections5btree4nodeINtB6_7NodeRefNtNtB6_6marker3MutNtNtCsdGrGZaRBwMb_3syn8lifetime8LifetimeNtNtB8_7set_val9SetValZSTNtB1a_8InternalE30correct_childrens_parent_linksINtNtNtCsieiGu2EXtoJ_4core3ops5range14RangeInclusivejEECssR9xeAO3IU_12serde_derive, symObjAddr: 0x5350, symBinAddr: 0x5F20, symSize: 0xC0 }
  - { offset: 0x13C11, size: 0x8, addend: 0x0, symName: __RINvMsp_NtNtNtCslJiobkLta79_5alloc11collections5btree4nodeINtB6_7NodeRefNtNtB6_6marker3MutNtNtCsdGrGZaRBwMb_3syn8lifetime8LifetimeNtNtB8_7set_val9SetValZSTNtB1a_8InternalE30correct_childrens_parent_linksINtNtNtCsieiGu2EXtoJ_4core3ops5range5RangejEECssR9xeAO3IU_12serde_derive, symObjAddr: 0x5410, symBinAddr: 0x5FE0, symSize: 0xC0 }
  - { offset: 0x13D48, size: 0x8, addend: 0x0, symName: __RINvMsp_NtNtNtCslJiobkLta79_5alloc11collections5btree4nodeINtB6_7NodeRefNtNtB6_6marker3MutNtNtNtCssR9xeAO3IU_12serde_derive9internals4name4NameNtNtB8_7set_val9SetValZSTNtB1a_8InternalE30correct_childrens_parent_linksINtNtNtCsieiGu2EXtoJ_4core3ops5range14RangeInclusivejEEB1w_, symObjAddr: 0x54D0, symBinAddr: 0x60A0, symSize: 0xC0 }
  - { offset: 0x13E80, size: 0x8, addend: 0x0, symName: __RINvMsp_NtNtNtCslJiobkLta79_5alloc11collections5btree4nodeINtB6_7NodeRefNtNtB6_6marker3MutNtNtNtCssR9xeAO3IU_12serde_derive9internals4name4NameNtNtB8_7set_val9SetValZSTNtB1a_8InternalE30correct_childrens_parent_linksINtNtNtCsieiGu2EXtoJ_4core3ops5range5RangejEEB1w_, symObjAddr: 0x5590, symBinAddr: 0x6160, symSize: 0xC0 }
  - { offset: 0x14380, size: 0x8, addend: 0x0, symName: __RNvMsJ_NtNtNtCslJiobkLta79_5alloc11collections5btree4nodeINtB5_6HandleINtB5_7NodeRefNtNtB5_6marker3MutNtNtCsdGrGZaRBwMb_3syn8lifetime8LifetimeNtNtB7_7set_val9SetValZSTNtB1m_4LeafENtB1m_4EdgeE10insert_fitCssR9xeAO3IU_12serde_derive, symObjAddr: 0x6020, symBinAddr: 0x6BF0, symSize: 0x260 }
  - { offset: 0x148F3, size: 0x8, addend: 0x0, symName: __RNvMsJ_NtNtNtCslJiobkLta79_5alloc11collections5btree4nodeINtB5_6HandleINtB5_7NodeRefNtNtB5_6marker3MutNtNtNtCssR9xeAO3IU_12serde_derive9internals4name4NameNtNtB7_7set_val9SetValZSTNtB1m_4LeafENtB1m_4EdgeE10insert_fitB1I_, symObjAddr: 0x6280, symBinAddr: 0x6E50, symSize: 0x260 }
  - { offset: 0x14D6E, size: 0x8, addend: 0x0, symName: __RNvMsL_NtNtNtCslJiobkLta79_5alloc11collections5btree4nodeINtB5_6HandleINtB5_7NodeRefNtNtB5_6marker3MutNtNtCsdGrGZaRBwMb_3syn8lifetime8LifetimeNtNtB7_7set_val9SetValZSTNtB1m_8InternalENtB1m_4EdgeE19correct_parent_linkCssR9xeAO3IU_12serde_derive, symObjAddr: 0x64E0, symBinAddr: 0x70B0, symSize: 0xA0 }
  - { offset: 0x14F76, size: 0x8, addend: 0x0, symName: __RNvMsL_NtNtNtCslJiobkLta79_5alloc11collections5btree4nodeINtB5_6HandleINtB5_7NodeRefNtNtB5_6marker3MutNtNtNtCssR9xeAO3IU_12serde_derive9internals4name4NameNtNtB7_7set_val9SetValZSTNtB1m_8InternalENtB1m_4EdgeE19correct_parent_linkB1I_, symObjAddr: 0x6580, symBinAddr: 0x7150, symSize: 0xA0 }
  - { offset: 0x152AC, size: 0x8, addend: 0x0, symName: __RNvMsM_NtNtNtCslJiobkLta79_5alloc11collections5btree4nodeINtB5_6HandleINtB5_7NodeRefNtNtB5_6marker3MutNtNtCsdGrGZaRBwMb_3syn8lifetime8LifetimeNtNtB7_7set_val9SetValZSTNtB1m_8InternalENtB1m_4EdgeE10insert_fitCssR9xeAO3IU_12serde_derive, symObjAddr: 0x6620, symBinAddr: 0x71F0, symSize: 0x330 }
  - { offset: 0x1594D, size: 0x8, addend: 0x0, symName: __RNvMsM_NtNtNtCslJiobkLta79_5alloc11collections5btree4nodeINtB5_6HandleINtB5_7NodeRefNtNtB5_6marker3MutNtNtNtCssR9xeAO3IU_12serde_derive9internals4name4NameNtNtB7_7set_val9SetValZSTNtB1m_8InternalENtB1m_4EdgeE10insert_fitB1I_, symObjAddr: 0x6950, symBinAddr: 0x7520, symSize: 0x330 }
  - { offset: 0x15E84, size: 0x8, addend: 0x0, symName: __RNvMsO_NtNtNtCslJiobkLta79_5alloc11collections5btree4nodeINtB5_6HandleINtB5_7NodeRefNtNtB5_6marker3MutNtNtCsdGrGZaRBwMb_3syn8lifetime8LifetimeNtNtB7_7set_val9SetValZSTNtB1m_8InternalENtB1m_4EdgeE7descendCssR9xeAO3IU_12serde_derive, symObjAddr: 0x6C80, symBinAddr: 0x7850, symSize: 0x80 }
  - { offset: 0x1607F, size: 0x8, addend: 0x0, symName: __RNvMsO_NtNtNtCslJiobkLta79_5alloc11collections5btree4nodeINtB5_6HandleINtB5_7NodeRefNtNtB5_6marker3MutNtNtNtCssR9xeAO3IU_12serde_derive9internals4name4NameNtNtB7_7set_val9SetValZSTNtB1m_8InternalENtB1m_4EdgeE7descendB1I_, symObjAddr: 0x6D00, symBinAddr: 0x78D0, symSize: 0x80 }
  - { offset: 0x1624F, size: 0x8, addend: 0x0, symName: __RNvMsO_NtNtNtCslJiobkLta79_5alloc11collections5btree4nodeINtB5_6HandleINtB5_7NodeRefNtNtB5_6marker5DyingNtNtCsdGrGZaRBwMb_3syn8lifetime8LifetimeNtNtB7_7set_val9SetValZSTNtB1m_8InternalENtB1m_4EdgeE7descendCssR9xeAO3IU_12serde_derive, symObjAddr: 0x6D80, symBinAddr: 0x7950, symSize: 0x80 }
  - { offset: 0x1641F, size: 0x8, addend: 0x0, symName: __RNvMsO_NtNtNtCslJiobkLta79_5alloc11collections5btree4nodeINtB5_6HandleINtB5_7NodeRefNtNtB5_6marker5DyingNtNtNtCssR9xeAO3IU_12serde_derive9internals4name4NameNtNtB7_7set_val9SetValZSTNtB1m_8InternalENtB1m_4EdgeE7descendB1K_, symObjAddr: 0x6E00, symBinAddr: 0x79D0, symSize: 0x80 }
  - { offset: 0x165EF, size: 0x8, addend: 0x0, symName: __RNvMsO_NtNtNtCslJiobkLta79_5alloc11collections5btree4nodeINtB5_6HandleINtB5_7NodeRefNtNtB5_6marker5ImmutNtNtCsdGrGZaRBwMb_3syn8lifetime8LifetimeNtNtB7_7set_val9SetValZSTNtB1m_8InternalENtB1m_4EdgeE7descendCssR9xeAO3IU_12serde_derive, symObjAddr: 0x6E80, symBinAddr: 0x7A50, symSize: 0x80 }
  - { offset: 0x167BF, size: 0x8, addend: 0x0, symName: __RNvMsO_NtNtNtCslJiobkLta79_5alloc11collections5btree4nodeINtB5_6HandleINtB5_7NodeRefNtNtB5_6marker5ImmutNtNtNtCssR9xeAO3IU_12serde_derive9internals4name4NameNtNtB7_7set_val9SetValZSTNtB1m_8InternalENtB1m_4EdgeE7descendB1K_, symObjAddr: 0x6F00, symBinAddr: 0x7AD0, symSize: 0x80 }
  - { offset: 0x16A9D, size: 0x8, addend: 0x0, symName: __RNvMsP_NtNtNtCslJiobkLta79_5alloc11collections5btree4nodeINtB5_6HandleINtB5_7NodeRefNtNtB5_6marker5ImmutNtNtCsdGrGZaRBwMb_3syn8lifetime8LifetimeNtNtB7_7set_val9SetValZSTNtB1m_14LeafOrInternalENtB1m_2KVE7into_kvCssR9xeAO3IU_12serde_derive, symObjAddr: 0x6F80, symBinAddr: 0x7B50, symSize: 0xD0 }
  - { offset: 0x16D90, size: 0x8, addend: 0x0, symName: __RNvMsP_NtNtNtCslJiobkLta79_5alloc11collections5btree4nodeINtB5_6HandleINtB5_7NodeRefNtNtB5_6marker5ImmutNtNtCsdGrGZaRBwMb_3syn8lifetime8LifetimeNtNtB7_7set_val9SetValZSTNtB1m_4LeafENtB1m_2KVE7into_kvCssR9xeAO3IU_12serde_derive, symObjAddr: 0x7050, symBinAddr: 0x7C20, symSize: 0xD0 }
  - { offset: 0x17076, size: 0x8, addend: 0x0, symName: __RNvMsP_NtNtNtCslJiobkLta79_5alloc11collections5btree4nodeINtB5_6HandleINtB5_7NodeRefNtNtB5_6marker5ImmutNtNtCsdGrGZaRBwMb_3syn8lifetime8LifetimeNtNtB7_7set_val9SetValZSTNtB1m_8InternalENtB1m_2KVE7into_kvCssR9xeAO3IU_12serde_derive, symObjAddr: 0x7120, symBinAddr: 0x7CF0, symSize: 0xD0 }
  - { offset: 0x173BF, size: 0x8, addend: 0x0, symName: __RNvMsP_NtNtNtCslJiobkLta79_5alloc11collections5btree4nodeINtB5_6HandleINtB5_7NodeRefNtNtB5_6marker5ImmutNtNtNtCssR9xeAO3IU_12serde_derive9internals4name4NameNtNtB7_7set_val9SetValZSTNtB1m_14LeafOrInternalENtB1m_2KVE7into_kvB1K_, symObjAddr: 0x71F0, symBinAddr: 0x7DC0, symSize: 0xD0 }
  - { offset: 0x1764F, size: 0x8, addend: 0x0, symName: __RNvMsQ_NtNtNtCslJiobkLta79_5alloc11collections5btree4nodeINtB5_6HandleINtB5_7NodeRefNtNtB5_6marker3MutNtNtCsdGrGZaRBwMb_3syn8lifetime8LifetimeNtNtB7_7set_val9SetValZSTNtB1m_14LeafOrInternalENtB1m_2KVE12into_val_mutCssR9xeAO3IU_12serde_derive, symObjAddr: 0x72C0, symBinAddr: 0x7E90, symSize: 0x80 }
  - { offset: 0x177BF, size: 0x8, addend: 0x0, symName: __RNvMsQ_NtNtNtCslJiobkLta79_5alloc11collections5btree4nodeINtB5_6HandleINtB5_7NodeRefNtNtB5_6marker3MutNtNtCsdGrGZaRBwMb_3syn8lifetime8LifetimeNtNtB7_7set_val9SetValZSTNtB1m_4LeafENtB1m_2KVE12into_val_mutCssR9xeAO3IU_12serde_derive, symObjAddr: 0x7340, symBinAddr: 0x7F10, symSize: 0x80 }
  - { offset: 0x1792F, size: 0x8, addend: 0x0, symName: __RNvMsQ_NtNtNtCslJiobkLta79_5alloc11collections5btree4nodeINtB5_6HandleINtB5_7NodeRefNtNtB5_6marker3MutNtNtNtCssR9xeAO3IU_12serde_derive9internals4name4NameNtNtB7_7set_val9SetValZSTNtB1m_14LeafOrInternalENtB1m_2KVE12into_val_mutB1I_, symObjAddr: 0x73C0, symBinAddr: 0x7F90, symSize: 0x80 }
  - { offset: 0x17B01, size: 0x8, addend: 0x0, symName: __RNvMsS_NtNtNtCslJiobkLta79_5alloc11collections5btree4nodeINtB5_6HandleINtB5_7NodeRefNtNtB5_6marker3MutNtNtCsdGrGZaRBwMb_3syn8lifetime8LifetimeNtNtB7_7set_val9SetValZSTNtB1m_14LeafOrInternalENtB1m_2KVE6kv_mutCssR9xeAO3IU_12serde_derive, symObjAddr: 0x7440, symBinAddr: 0x8010, symSize: 0xF0 }
  - { offset: 0x17DA1, size: 0x8, addend: 0x0, symName: __RNvMsS_NtNtNtCslJiobkLta79_5alloc11collections5btree4nodeINtB5_6HandleINtB5_7NodeRefNtNtB5_6marker3MutNtNtNtCssR9xeAO3IU_12serde_derive9internals4name4NameNtNtB7_7set_val9SetValZSTNtB1m_14LeafOrInternalENtB1m_2KVE6kv_mutB1I_, symObjAddr: 0x7530, symBinAddr: 0x8100, symSize: 0xF0 }
  - { offset: 0x18023, size: 0x8, addend: 0x0, symName: __RNvMsT_NtNtNtCslJiobkLta79_5alloc11collections5btree4nodeINtB5_6HandleINtB5_7NodeRefNtNtB5_6marker5DyingNtNtCsdGrGZaRBwMb_3syn8lifetime8LifetimeNtNtB7_7set_val9SetValZSTNtB1m_14LeafOrInternalENtB1m_2KVE12drop_key_valCssR9xeAO3IU_12serde_derive, symObjAddr: 0x7620, symBinAddr: 0x81F0, symSize: 0x120 }
  - { offset: 0x182C6, size: 0x8, addend: 0x0, symName: __RNvMsT_NtNtNtCslJiobkLta79_5alloc11collections5btree4nodeINtB5_6HandleINtB5_7NodeRefNtNtB5_6marker5DyingNtNtNtCssR9xeAO3IU_12serde_derive9internals4name4NameNtNtB7_7set_val9SetValZSTNtB1m_14LeafOrInternalENtB1m_2KVE12drop_key_valB1K_, symObjAddr: 0x7740, symBinAddr: 0x8310, symSize: 0x120 }
  - { offset: 0x18728, size: 0x8, addend: 0x0, symName: __RNvMsU_NtNtNtCslJiobkLta79_5alloc11collections5btree4nodeINtB5_6HandleINtB5_7NodeRefNtNtB5_6marker3MutNtNtCsdGrGZaRBwMb_3syn8lifetime8LifetimeNtNtB7_7set_val9SetValZSTNtB1m_4LeafENtB1m_2KVE15split_leaf_dataCssR9xeAO3IU_12serde_derive, symObjAddr: 0x7860, symBinAddr: 0x8430, symSize: 0x530 }
  - { offset: 0x1914D, size: 0x8, addend: 0x0, symName: __RNvMsU_NtNtNtCslJiobkLta79_5alloc11collections5btree4nodeINtB5_6HandleINtB5_7NodeRefNtNtB5_6marker3MutNtNtCsdGrGZaRBwMb_3syn8lifetime8LifetimeNtNtB7_7set_val9SetValZSTNtB1m_8InternalENtB1m_2KVE15split_leaf_dataCssR9xeAO3IU_12serde_derive, symObjAddr: 0x7D90, symBinAddr: 0x8960, symSize: 0x530 }
  - { offset: 0x19B72, size: 0x8, addend: 0x0, symName: __RNvMsU_NtNtNtCslJiobkLta79_5alloc11collections5btree4nodeINtB5_6HandleINtB5_7NodeRefNtNtB5_6marker3MutNtNtNtCssR9xeAO3IU_12serde_derive9internals4name4NameNtNtB7_7set_val9SetValZSTNtB1m_4LeafENtB1m_2KVE15split_leaf_dataB1I_, symObjAddr: 0x82C0, symBinAddr: 0x8E90, symSize: 0x530 }
  - { offset: 0x1A597, size: 0x8, addend: 0x0, symName: __RNvMsU_NtNtNtCslJiobkLta79_5alloc11collections5btree4nodeINtB5_6HandleINtB5_7NodeRefNtNtB5_6marker3MutNtNtNtCssR9xeAO3IU_12serde_derive9internals4name4NameNtNtB7_7set_val9SetValZSTNtB1m_8InternalENtB1m_2KVE15split_leaf_dataB1I_, symObjAddr: 0x87F0, symBinAddr: 0x93C0, symSize: 0x530 }
  - { offset: 0x1AE63, size: 0x8, addend: 0x0, symName: __RNvMse_NtNtNtCslJiobkLta79_5alloc11collections5btree4nodeINtB5_7NodeRefNtNtB5_6marker3MutNtNtCsdGrGZaRBwMb_3syn8lifetime8LifetimeNtNtB7_7set_val9SetValZSTNtB19_14LeafOrInternalE6ascendCssR9xeAO3IU_12serde_derive, symObjAddr: 0x8D20, symBinAddr: 0x98F0, symSize: 0x240 }
  - { offset: 0x1B0EA, size: 0x8, addend: 0x0, symName: __RNvMse_NtNtNtCslJiobkLta79_5alloc11collections5btree4nodeINtB5_7NodeRefNtNtB5_6marker3MutNtNtNtCssR9xeAO3IU_12serde_derive9internals4name4NameNtNtB7_7set_val9SetValZSTNtB19_14LeafOrInternalE6ascendB1v_, symObjAddr: 0x8F60, symBinAddr: 0x9B30, symSize: 0x240 }
  - { offset: 0x1B34A, size: 0x8, addend: 0x0, symName: __RNvMse_NtNtNtCslJiobkLta79_5alloc11collections5btree4nodeINtB5_7NodeRefNtNtB5_6marker5DyingNtNtCsdGrGZaRBwMb_3syn8lifetime8LifetimeNtNtB7_7set_val9SetValZSTNtB19_14LeafOrInternalE6ascendCssR9xeAO3IU_12serde_derive, symObjAddr: 0x91A0, symBinAddr: 0x9D70, symSize: 0x240 }
  - { offset: 0x1B5AA, size: 0x8, addend: 0x0, symName: __RNvMse_NtNtNtCslJiobkLta79_5alloc11collections5btree4nodeINtB5_7NodeRefNtNtB5_6marker5DyingNtNtNtCssR9xeAO3IU_12serde_derive9internals4name4NameNtNtB7_7set_val9SetValZSTNtB19_14LeafOrInternalE6ascendB1x_, symObjAddr: 0x93E0, symBinAddr: 0x9FB0, symSize: 0x240 }
  - { offset: 0x1B80A, size: 0x8, addend: 0x0, symName: __RNvMse_NtNtNtCslJiobkLta79_5alloc11collections5btree4nodeINtB5_7NodeRefNtNtB5_6marker5ImmutNtNtCsdGrGZaRBwMb_3syn8lifetime8LifetimeNtNtB7_7set_val9SetValZSTNtB19_14LeafOrInternalE6ascendCssR9xeAO3IU_12serde_derive, symObjAddr: 0x9620, symBinAddr: 0xA1F0, symSize: 0x240 }
  - { offset: 0x1BA6A, size: 0x8, addend: 0x0, symName: __RNvMse_NtNtNtCslJiobkLta79_5alloc11collections5btree4nodeINtB5_7NodeRefNtNtB5_6marker5ImmutNtNtNtCssR9xeAO3IU_12serde_derive9internals4name4NameNtNtB7_7set_val9SetValZSTNtB19_14LeafOrInternalE6ascendB1x_, symObjAddr: 0x9860, symBinAddr: 0xA430, symSize: 0x240 }
  - { offset: 0x1BC66, size: 0x8, addend: 0x0, symName: __RNvMsg_NtNtNtCslJiobkLta79_5alloc11collections5btree4nodeINtB5_7NodeRefNtNtB5_6marker5ImmutNtNtCsdGrGZaRBwMb_3syn8lifetime8LifetimeNtNtB7_7set_val9SetValZSTNtB19_14LeafOrInternalE4keysCssR9xeAO3IU_12serde_derive, symObjAddr: 0x9AA0, symBinAddr: 0xA670, symSize: 0x90 }
  - { offset: 0x1BE4B, size: 0x8, addend: 0x0, symName: __RNvMsg_NtNtNtCslJiobkLta79_5alloc11collections5btree4nodeINtB5_7NodeRefNtNtB5_6marker5ImmutNtNtNtCssR9xeAO3IU_12serde_derive9internals4name4NameNtNtB7_7set_val9SetValZSTNtB19_14LeafOrInternalE4keysB1x_, symObjAddr: 0x9B30, symBinAddr: 0xA700, symSize: 0x90 }
  - { offset: 0x1C119, size: 0x8, addend: 0x0, symName: __RNvMsh_NtNtNtCslJiobkLta79_5alloc11collections5btree8navigateINtNtB7_4node6HandleINtB10_7NodeRefNtNtB10_6marker5ImmutNtNtCsdGrGZaRBwMb_3syn8lifetime8LifetimeNtNtB7_7set_val9SetValZSTNtB1y_4LeafENtB1y_4EdgeE7next_kvCssR9xeAO3IU_12serde_derive, symObjAddr: 0x9BC0, symBinAddr: 0xA790, symSize: 0x290 }
  - { offset: 0x1C47A, size: 0x8, addend: 0x0, symName: __RNvMsh_NtNtNtCslJiobkLta79_5alloc11collections5btree8navigateINtNtB7_4node6HandleINtB10_7NodeRefNtNtB10_6marker5ImmutNtNtNtCssR9xeAO3IU_12serde_derive9internals4name4NameNtNtB7_7set_val9SetValZSTNtB1y_4LeafENtB1y_4EdgeE7next_kvB1X_, symObjAddr: 0x9E50, symBinAddr: 0xAA20, symSize: 0x290 }
  - { offset: 0x1C87E, size: 0x8, addend: 0x0, symName: __RNvMsp_NtNtNtCslJiobkLta79_5alloc11collections5btree8navigateINtNtB7_4node6HandleINtB10_7NodeRefNtNtB10_6marker5DyingNtNtCsdGrGZaRBwMb_3syn8lifetime8LifetimeNtNtB7_7set_val9SetValZSTNtB1y_14LeafOrInternalENtB1y_2KVE14next_leaf_edgeCssR9xeAO3IU_12serde_derive, symObjAddr: 0xA0E0, symBinAddr: 0xACB0, symSize: 0x320 }
  - { offset: 0x1CD01, size: 0x8, addend: 0x0, symName: __RNvMsp_NtNtNtCslJiobkLta79_5alloc11collections5btree8navigateINtNtB7_4node6HandleINtB10_7NodeRefNtNtB10_6marker5DyingNtNtNtCssR9xeAO3IU_12serde_derive9internals4name4NameNtNtB7_7set_val9SetValZSTNtB1y_14LeafOrInternalENtB1y_2KVE14next_leaf_edgeB1X_, symObjAddr: 0xA400, symBinAddr: 0xAFD0, symSize: 0x320 }
  - { offset: 0x1D184, size: 0x8, addend: 0x0, symName: __RNvMsp_NtNtNtCslJiobkLta79_5alloc11collections5btree8navigateINtNtB7_4node6HandleINtB10_7NodeRefNtNtB10_6marker5ImmutNtNtCsdGrGZaRBwMb_3syn8lifetime8LifetimeNtNtB7_7set_val9SetValZSTNtB1y_14LeafOrInternalENtB1y_2KVE14next_leaf_edgeCssR9xeAO3IU_12serde_derive, symObjAddr: 0xA720, symBinAddr: 0xB2F0, symSize: 0x320 }
  - { offset: 0x1D607, size: 0x8, addend: 0x0, symName: __RNvMsp_NtNtNtCslJiobkLta79_5alloc11collections5btree8navigateINtNtB7_4node6HandleINtB10_7NodeRefNtNtB10_6marker5ImmutNtNtNtCssR9xeAO3IU_12serde_derive9internals4name4NameNtNtB7_7set_val9SetValZSTNtB1y_14LeafOrInternalENtB1y_2KVE14next_leaf_edgeB1X_, symObjAddr: 0xAA40, symBinAddr: 0xB610, symSize: 0x320 }
  - { offset: 0x1DA38, size: 0x8, addend: 0x0, symName: __RNvMsu_NtNtNtCslJiobkLta79_5alloc11collections5btree4nodeINtB5_7NodeRefNtNtB5_6marker3MutNtNtCsdGrGZaRBwMb_3syn8lifetime8LifetimeNtNtB7_7set_val9SetValZSTNtB19_4LeafE16push_with_handleCssR9xeAO3IU_12serde_derive, symObjAddr: 0xAD60, symBinAddr: 0xB930, symSize: 0x2A0 }
  - { offset: 0x1DF0C, size: 0x8, addend: 0x0, symName: __RNvMsu_NtNtNtCslJiobkLta79_5alloc11collections5btree4nodeINtB5_7NodeRefNtNtB5_6marker3MutNtNtNtCssR9xeAO3IU_12serde_derive9internals4name4NameNtNtB7_7set_val9SetValZSTNtB19_4LeafE16push_with_handleB1v_, symObjAddr: 0xB000, symBinAddr: 0xBBD0, symSize: 0x2A0 }
  - { offset: 0x1E4CC, size: 0x8, addend: 0x0, symName: __RNvMsv_NtNtNtCslJiobkLta79_5alloc11collections5btree4nodeINtB5_7NodeRefNtNtB5_6marker3MutNtNtCsdGrGZaRBwMb_3syn8lifetime8LifetimeNtNtB7_7set_val9SetValZSTNtB19_8InternalE4pushCssR9xeAO3IU_12serde_derive, symObjAddr: 0xB2A0, symBinAddr: 0xBE70, symSize: 0x3C0 }
  - { offset: 0x1EBD2, size: 0x8, addend: 0x0, symName: __RNvMsv_NtNtNtCslJiobkLta79_5alloc11collections5btree4nodeINtB5_7NodeRefNtNtB5_6marker3MutNtNtNtCssR9xeAO3IU_12serde_derive9internals4name4NameNtNtB7_7set_val9SetValZSTNtB19_8InternalE4pushB1v_, symObjAddr: 0xB660, symBinAddr: 0xC230, symSize: 0x3C0 }
  - { offset: 0x1F055, size: 0x8, addend: 0x0, symName: __RNCNCNvNtCssR9xeAO3IU_12serde_derive3ser24serialize_struct_visitors_00B7_, symObjAddr: 0x0, symBinAddr: 0xC610, symSize: 0x120 }
  - { offset: 0x20032, size: 0x8, addend: 0x0, symName: __RNCNCNvNtCssR9xeAO3IU_12serde_derive3ser24serialize_struct_visitors_00B7_, symObjAddr: 0x0, symBinAddr: 0xC610, symSize: 0x120 }
  - { offset: 0x200A0, size: 0x8, addend: 0x0, symName: __RNCNvNtCssR9xeAO3IU_12serde_derive3ser24serialize_struct_visitor0B5_, symObjAddr: 0x15C0, symBinAddr: 0xDBD0, symSize: 0x30 }
  - { offset: 0x200EB, size: 0x8, addend: 0x0, symName: __RNCNvNtCssR9xeAO3IU_12serde_derive3ser24serialize_struct_visitors_0B5_, symObjAddr: 0x15F0, symBinAddr: 0xDC00, symSize: 0xEE0 }
  - { offset: 0x203A9, size: 0x8, addend: 0x0, symName: __RNCNCNvNtCssR9xeAO3IU_12serde_derive3ser30serialize_tuple_struct_visitors_00B7_, symObjAddr: 0x120, symBinAddr: 0xC730, symSize: 0x120 }
  - { offset: 0x20417, size: 0x8, addend: 0x0, symName: __RNCNvNtCssR9xeAO3IU_12serde_derive3ser30serialize_tuple_struct_visitor0B5_, symObjAddr: 0x2C00, symBinAddr: 0xF210, symSize: 0x40 }
  - { offset: 0x20462, size: 0x8, addend: 0x0, symName: __RNCNvNtCssR9xeAO3IU_12serde_derive3ser30serialize_tuple_struct_visitors_0B5_, symObjAddr: 0x2C40, symBinAddr: 0xF250, symSize: 0x8A0 }
  - { offset: 0x20671, size: 0x8, addend: 0x0, symName: __RNCNvNtCssR9xeAO3IU_12serde_derive3ser14serialize_enum0B5_, symObjAddr: 0x240, symBinAddr: 0xC850, symSize: 0x50 }
  - { offset: 0x206ED, size: 0x8, addend: 0x0, symName: __RNCNvNtCssR9xeAO3IU_12serde_derive3ser16serialize_struct0B5_, symObjAddr: 0x290, symBinAddr: 0xC8A0, symSize: 0x60 }
  - { offset: 0x20733, size: 0x8, addend: 0x0, symName: __RNCNvNtCssR9xeAO3IU_12serde_derive3ser17serialize_variant0B5_, symObjAddr: 0x2F0, symBinAddr: 0xC900, symSize: 0x150 }
  - { offset: 0x207AA, size: 0x8, addend: 0x0, symName: __RNCNvNtCssR9xeAO3IU_12serde_derive3ser17serialize_variants_0B5_, symObjAddr: 0x440, symBinAddr: 0xCA50, symSize: 0x20 }
  - { offset: 0x207F7, size: 0x8, addend: 0x0, symName: __RNCNvNtCssR9xeAO3IU_12serde_derive3ser19wrap_serialize_with0B5_, symObjAddr: 0x460, symBinAddr: 0xCA70, symSize: 0x50 }
  - { offset: 0x2083D, size: 0x8, addend: 0x0, symName: __RNCNvNtCssR9xeAO3IU_12serde_derive3ser21needs_serialize_bound0B5_, symObjAddr: 0x4B0, symBinAddr: 0xCAC0, symSize: 0x90 }
  - { offset: 0x20880, size: 0x8, addend: 0x0, symName: __RNCNvNtCssR9xeAO3IU_12serde_derive3ser21serialize_transparent0B5_, symObjAddr: 0x540, symBinAddr: 0xCB50, symSize: 0x30 }
  - { offset: 0x208C3, size: 0x8, addend: 0x0, symName: __RNCNvNtCssR9xeAO3IU_12serde_derive3ser22serialize_tuple_struct0B5_, symObjAddr: 0x570, symBinAddr: 0xCB80, symSize: 0x40 }
  - { offset: 0x2090E, size: 0x8, addend: 0x0, symName: __RNCNvNtCssR9xeAO3IU_12serde_derive3ser22serialize_tuple_structs0_0B5_, symObjAddr: 0x5B0, symBinAddr: 0xCBC0, symSize: 0x100 }
  - { offset: 0x2096E, size: 0x8, addend: 0x0, symName: __RNCNvNtCssR9xeAO3IU_12serde_derive3ser22serialize_tuple_structs_0B5_, symObjAddr: 0x6B0, symBinAddr: 0xCCC0, symSize: 0x420 }
  - { offset: 0x20AA3, size: 0x8, addend: 0x0, symName: __RNCNvNtCssR9xeAO3IU_12serde_derive3ser23serialize_struct_as_map0B5_, symObjAddr: 0xAD0, symBinAddr: 0xD0E0, symSize: 0x30 }
  - { offset: 0x20AFB, size: 0x8, addend: 0x0, symName: __RNCNvNtCssR9xeAO3IU_12serde_derive3ser23serialize_tuple_variant0B5_, symObjAddr: 0xB00, symBinAddr: 0xD110, symSize: 0x40 }
  - { offset: 0x20B46, size: 0x8, addend: 0x0, symName: __RNCNvNtCssR9xeAO3IU_12serde_derive3ser23serialize_tuple_variants0_0B5_, symObjAddr: 0xB40, symBinAddr: 0xD150, symSize: 0x100 }
  - { offset: 0x20BA6, size: 0x8, addend: 0x0, symName: __RNCNvNtCssR9xeAO3IU_12serde_derive3ser23serialize_tuple_variants_0B5_, symObjAddr: 0xC40, symBinAddr: 0xD250, symSize: 0x4C0 }
  - { offset: 0x20D04, size: 0x8, addend: 0x0, symName: __RNCNvNtCssR9xeAO3IU_12serde_derive3ser24serialize_struct_variant0B5_, symObjAddr: 0x1100, symBinAddr: 0xD710, symSize: 0x30 }
  - { offset: 0x20D3D, size: 0x8, addend: 0x0, symName: __RNCNvNtCssR9xeAO3IU_12serde_derive3ser24serialize_struct_variants0_0B5_, symObjAddr: 0x1130, symBinAddr: 0xD740, symSize: 0x360 }
  - { offset: 0x20E16, size: 0x8, addend: 0x0, symName: __RNCNvNtCssR9xeAO3IU_12serde_derive3ser24serialize_struct_variants1_0B5_, symObjAddr: 0x1490, symBinAddr: 0xDAA0, symSize: 0x100 }
  - { offset: 0x20E76, size: 0x8, addend: 0x0, symName: __RNCNvNtCssR9xeAO3IU_12serde_derive3ser24serialize_struct_variants_0B5_, symObjAddr: 0x1590, symBinAddr: 0xDBA0, symSize: 0x30 }
  - { offset: 0x20EE3, size: 0x8, addend: 0x0, symName: __RNCNvNtCssR9xeAO3IU_12serde_derive3ser26serialize_struct_as_struct0B5_, symObjAddr: 0x24D0, symBinAddr: 0xEAE0, symSize: 0x30 }
  - { offset: 0x20F2E, size: 0x8, addend: 0x0, symName: __RNCNvNtCssR9xeAO3IU_12serde_derive3ser26serialize_struct_as_structs0_0B5_, symObjAddr: 0x2500, symBinAddr: 0xEB10, symSize: 0x100 }
  - { offset: 0x20F8E, size: 0x8, addend: 0x0, symName: __RNCNvNtCssR9xeAO3IU_12serde_derive3ser26serialize_struct_as_structs_0B5_, symObjAddr: 0x2600, symBinAddr: 0xEC10, symSize: 0x3A0 }
  - { offset: 0x21082, size: 0x8, addend: 0x0, symName: __RNCNvNtCssR9xeAO3IU_12serde_derive3ser27wrap_serialize_variant_with0B5_, symObjAddr: 0x29A0, symBinAddr: 0xEFB0, symSize: 0x20 }
  - { offset: 0x210BB, size: 0x8, addend: 0x0, symName: __RNCNvNtCssR9xeAO3IU_12serde_derive3ser27wrap_serialize_variant_withs_0B5_, symObjAddr: 0x29C0, symBinAddr: 0xEFD0, symSize: 0x240 }
  - { offset: 0x211A8, size: 0x8, addend: 0x0, symName: __RNCNvNtCssR9xeAO3IU_12serde_derive3ser35serialize_adjacently_tagged_variant0B5_, symObjAddr: 0x34E0, symBinAddr: 0xFAF0, symSize: 0x20 }
  - { offset: 0x211E1, size: 0x8, addend: 0x0, symName: __RNCNvNtCssR9xeAO3IU_12serde_derive3ser35serialize_adjacently_tagged_variants0_0B5_, symObjAddr: 0x3500, symBinAddr: 0xFB10, symSize: 0x40 }
  - { offset: 0x2121A, size: 0x8, addend: 0x0, symName: __RNCNvNtCssR9xeAO3IU_12serde_derive3ser35serialize_adjacently_tagged_variants_0B5_, symObjAddr: 0x3540, symBinAddr: 0xFB50, symSize: 0x180 }
  - { offset: 0x212AC, size: 0x8, addend: 0x0, symName: __RNCNvNtCssR9xeAO3IU_12serde_derive3ser37serialize_struct_variant_with_flatten0B5_, symObjAddr: 0x36C0, symBinAddr: 0xFCD0, symSize: 0x30 }
  - { offset: 0x212F7, size: 0x8, addend: 0x0, symName: __RNCNvNtCssR9xeAO3IU_12serde_derive3ser37serialize_struct_variant_with_flattens0_0B5_, symObjAddr: 0x36F0, symBinAddr: 0xFD00, symSize: 0x20 }
  - { offset: 0x21330, size: 0x8, addend: 0x0, symName: __RNCNvNtCssR9xeAO3IU_12serde_derive3ser37serialize_struct_variant_with_flattens_0B5_, symObjAddr: 0x3710, symBinAddr: 0xFD20, symSize: 0x20 }
  - { offset: 0x213FA, size: 0x8, addend: 0x0, symName: __RNvNtCssR9xeAO3IU_12serde_derive3ser10get_member, symObjAddr: 0x4580, symBinAddr: 0x10B90, symSize: 0x990 }
  - { offset: 0x215B7, size: 0x8, addend: 0x0, symName: __RNvNtCssR9xeAO3IU_12serde_derive3ser12precondition, symObjAddr: 0x4F10, symBinAddr: 0x11520, symSize: 0xB0 }
  - { offset: 0x215ED, size: 0x8, addend: 0x0, symName: __RNvNtCssR9xeAO3IU_12serde_derive3ser14build_generics, symObjAddr: 0x4FC0, symBinAddr: 0x115D0, symSize: 0x2B0 }
  - { offset: 0x21686, size: 0x8, addend: 0x0, symName: __RNvNtCssR9xeAO3IU_12serde_derive3ser14serialize_body, symObjAddr: 0x5270, symBinAddr: 0x11880, symSize: 0x210 }
  - { offset: 0x21749, size: 0x8, addend: 0x0, symName: __RNvNtCssR9xeAO3IU_12serde_derive3ser14serialize_enum, symObjAddr: 0x5480, symBinAddr: 0x11A90, symSize: 0x790 }
  - { offset: 0x218CE, size: 0x8, addend: 0x0, symName: __RNvNtCssR9xeAO3IU_12serde_derive3ser14serialize_into, symObjAddr: 0x5C10, symBinAddr: 0x12220, symSize: 0x430 }
  - { offset: 0x21976, size: 0x8, addend: 0x0, symName: __RNvNtCssR9xeAO3IU_12serde_derive3ser15effective_style, symObjAddr: 0x6040, symBinAddr: 0x12650, symSize: 0x80 }
  - { offset: 0x219C2, size: 0x8, addend: 0x0, symName: __RNvNtCssR9xeAO3IU_12serde_derive3ser16serialize_struct, symObjAddr: 0x60C0, symBinAddr: 0x126D0, symSize: 0x1F0 }
  - { offset: 0x21A6A, size: 0x8, addend: 0x0, symName: __RNvNtCssR9xeAO3IU_12serde_derive3ser17serialize_variant, symObjAddr: 0x62B0, symBinAddr: 0x128C0, symSize: 0x12C0 }
  - { offset: 0x21EEC, size: 0x8, addend: 0x0, symName: __RNvNtCssR9xeAO3IU_12serde_derive3ser19wrap_serialize_with, symObjAddr: 0x7570, symBinAddr: 0x13B80, symSize: 0x14E0 }
  - { offset: 0x223D5, size: 0x8, addend: 0x0, symName: __RNvNtCssR9xeAO3IU_12serde_derive3ser21needs_serialize_bound, symObjAddr: 0x8A50, symBinAddr: 0x15060, symSize: 0xB0 }
  - { offset: 0x2240F, size: 0x8, addend: 0x0, symName: __RNvNtCssR9xeAO3IU_12serde_derive3ser21serialize_transparent, symObjAddr: 0x8B00, symBinAddr: 0x15110, symSize: 0x4D0 }
  - { offset: 0x2257C, size: 0x8, addend: 0x0, symName: __RNvNtCssR9xeAO3IU_12serde_derive3ser21serialize_unit_struct, symObjAddr: 0x8FD0, symBinAddr: 0x155E0, symSize: 0x1E0 }
  - { offset: 0x225F1, size: 0x8, addend: 0x0, symName: __RNvNtCssR9xeAO3IU_12serde_derive3ser22serialize_tuple_struct, symObjAddr: 0x91B0, symBinAddr: 0x157C0, symSize: 0x730 }
  - { offset: 0x2278B, size: 0x8, addend: 0x0, symName: __RNvNtCssR9xeAO3IU_12serde_derive3ser23expand_derive_serialize, symObjAddr: 0x98E0, symBinAddr: 0x15EF0, symSize: 0x1250 }
  - { offset: 0x229E1, size: 0x8, addend: 0x0, symName: __RNvNtCssR9xeAO3IU_12serde_derive3ser23serialize_struct_as_map, symObjAddr: 0xAB30, symBinAddr: 0x17140, symSize: 0x690 }
  - { offset: 0x22B64, size: 0x8, addend: 0x0, symName: __RNvNtCssR9xeAO3IU_12serde_derive3ser23serialize_tuple_variant, symObjAddr: 0xB1C0, symBinAddr: 0x177D0, symSize: 0xBB0 }
  - { offset: 0x22DFC, size: 0x8, addend: 0x0, symName: __RNvNtCssR9xeAO3IU_12serde_derive3ser24serialize_newtype_struct, symObjAddr: 0xBD70, symBinAddr: 0x18380, symSize: 0x4F0 }
  - { offset: 0x22F27, size: 0x8, addend: 0x0, symName: __RNvNtCssR9xeAO3IU_12serde_derive3ser24serialize_struct_variant, symObjAddr: 0xC260, symBinAddr: 0x18870, symSize: 0x12D0 }
  - { offset: 0x232C2, size: 0x8, addend: 0x0, symName: __RNvNtCssR9xeAO3IU_12serde_derive3ser24serialize_struct_visitor, symObjAddr: 0xD530, symBinAddr: 0x19B40, symSize: 0xC0 }
  - { offset: 0x2331E, size: 0x8, addend: 0x0, symName: __RNvNtCssR9xeAO3IU_12serde_derive3ser25wrap_serialize_field_with, symObjAddr: 0xD5F0, symBinAddr: 0x19C00, symSize: 0x150 }
  - { offset: 0x23391, size: 0x8, addend: 0x0, symName: __RNvNtCssR9xeAO3IU_12serde_derive3ser26serialize_struct_as_struct, symObjAddr: 0xD740, symBinAddr: 0x19D50, symSize: 0x7E0 }
  - { offset: 0x23559, size: 0x8, addend: 0x0, symName: __RNvNtCssR9xeAO3IU_12serde_derive3ser26serialize_struct_tag_field, symObjAddr: 0xDF20, symBinAddr: 0x1A530, symSize: 0x260 }
  - { offset: 0x23608, size: 0x8, addend: 0x0, symName: __RNvNtCssR9xeAO3IU_12serde_derive3ser26serialize_untagged_variant, symObjAddr: 0xE180, symBinAddr: 0x1A790, symSize: 0xA20 }
  - { offset: 0x237E9, size: 0x8, addend: 0x0, symName: __RNvNtCssR9xeAO3IU_12serde_derive3ser27wrap_serialize_variant_with, symObjAddr: 0xEBA0, symBinAddr: 0x1B1B0, symSize: 0x1E0 }
  - { offset: 0x23862, size: 0x8, addend: 0x0, symName: __RNvNtCssR9xeAO3IU_12serde_derive3ser30serialize_tuple_struct_visitor, symObjAddr: 0xED80, symBinAddr: 0x1B390, symSize: 0xF0 }
  - { offset: 0x238BE, size: 0x8, addend: 0x0, symName: __RNvNtCssR9xeAO3IU_12serde_derive3ser35serialize_adjacently_tagged_variant, symObjAddr: 0xEE70, symBinAddr: 0x1B480, symSize: 0x32E0 }
  - { offset: 0x23F79, size: 0x8, addend: 0x0, symName: __RNvNtCssR9xeAO3IU_12serde_derive3ser35serialize_externally_tagged_variant, symObjAddr: 0x12150, symBinAddr: 0x1E760, symSize: 0xBD0 }
  - { offset: 0x24179, size: 0x8, addend: 0x0, symName: __RNvNtCssR9xeAO3IU_12serde_derive3ser35serialize_internally_tagged_variant, symObjAddr: 0x12D20, symBinAddr: 0x1F330, symSize: 0x1050 }
  - { offset: 0x243DB, size: 0x8, addend: 0x0, symName: __RNvNtCssR9xeAO3IU_12serde_derive3ser37serialize_struct_variant_with_flatten, symObjAddr: 0x13D70, symBinAddr: 0x20380, symSize: 0x2350 }
  - { offset: 0x24A93, size: 0x8, addend: 0x0, symName: __RNvNtCssR9xeAO3IU_12serde_derive3ser6mut_if, symObjAddr: 0x160C0, symBinAddr: 0x226D0, symSize: 0xE0 }
  - { offset: 0x277D9, size: 0x8, addend: 0x0, symName: __RNvXs1_NtNtNtCsieiGu2EXtoJ_4core3ops8function5implsQNCNvNtCssR9xeAO3IU_12serde_derive3ser22serialize_tuple_struct0INtB7_5FnMutTRTjRNtNtNtBU_9internals3ast5FieldEEE8call_mutBU_, symObjAddr: 0x161A0, symBinAddr: 0x227B0, symSize: 0x30 }
  - { offset: 0x27828, size: 0x8, addend: 0x0, symName: __RNvXs1_NtNtNtCsieiGu2EXtoJ_4core3ops8function5implsQNCNvNtCssR9xeAO3IU_12serde_derive3ser23serialize_struct_as_map0INtB7_5FnMutTRRNtNtNtBU_9internals3ast5FieldEE8call_mutBU_, symObjAddr: 0x161D0, symBinAddr: 0x227E0, symSize: 0x30 }
  - { offset: 0x27877, size: 0x8, addend: 0x0, symName: __RNvXs1_NtNtNtCsieiGu2EXtoJ_4core3ops8function5implsQNCNvNtCssR9xeAO3IU_12serde_derive3ser23serialize_tuple_variant0INtB7_5FnMutTRTjRNtNtNtBU_9internals3ast5FieldEEE8call_mutBU_, symObjAddr: 0x16200, symBinAddr: 0x22810, symSize: 0x30 }
  - { offset: 0x278C6, size: 0x8, addend: 0x0, symName: __RNvXs1_NtNtNtCsieiGu2EXtoJ_4core3ops8function5implsQNCNvNtCssR9xeAO3IU_12serde_derive3ser24serialize_struct_variants_0INtB7_5FnMutTRRNtNtNtBU_9internals3ast5FieldEE8call_mutBU_, symObjAddr: 0x16230, symBinAddr: 0x22840, symSize: 0x30 }
  - { offset: 0x27915, size: 0x8, addend: 0x0, symName: __RNvXs1_NtNtNtCsieiGu2EXtoJ_4core3ops8function5implsQNCNvNtCssR9xeAO3IU_12serde_derive3ser24serialize_struct_visitor0INtB7_5FnMutTRRNtNtNtBU_9internals3ast5FieldEE8call_mutBU_, symObjAddr: 0x16260, symBinAddr: 0x22870, symSize: 0x30 }
  - { offset: 0x27964, size: 0x8, addend: 0x0, symName: __RNvXs1_NtNtNtCsieiGu2EXtoJ_4core3ops8function5implsQNCNvNtCssR9xeAO3IU_12serde_derive3ser26serialize_struct_as_struct0INtB7_5FnMutTRRNtNtNtBU_9internals3ast5FieldEE8call_mutBU_, symObjAddr: 0x16290, symBinAddr: 0x228A0, symSize: 0x30 }
  - { offset: 0x279B3, size: 0x8, addend: 0x0, symName: __RNvXs1_NtNtNtCsieiGu2EXtoJ_4core3ops8function5implsQNCNvNtCssR9xeAO3IU_12serde_derive3ser30serialize_tuple_struct_visitor0INtB7_5FnMutTRTjRNtNtNtBU_9internals3ast5FieldEEE8call_mutBU_, symObjAddr: 0x162C0, symBinAddr: 0x228D0, symSize: 0x30 }
  - { offset: 0x27A02, size: 0x8, addend: 0x0, symName: __RNvXs1_NtNtNtCsieiGu2EXtoJ_4core3ops8function5implsQNCNvNtCssR9xeAO3IU_12serde_derive3ser37serialize_struct_variant_with_flatten0INtB7_5FnMutTRRNtNtNtBU_9internals3ast5FieldEE8call_mutBU_, symObjAddr: 0x162F0, symBinAddr: 0x22900, symSize: 0x30 }
  - { offset: 0x2E8F3, size: 0x8, addend: 0x0, symName: __RNvMNtCssR9xeAO3IU_12serde_derive3serNtB2_10Parameters3new, symObjAddr: 0x3730, symBinAddr: 0xFD40, symSize: 0x280 }
  - { offset: 0x2EA3D, size: 0x8, addend: 0x0, symName: __RNvMNtCssR9xeAO3IU_12serde_derive3serNtB2_10Parameters9type_name, symObjAddr: 0x39B0, symBinAddr: 0xFFC0, symSize: 0x80 }
  - { offset: 0x2EA89, size: 0x8, addend: 0x0, symName: __RNvMs0_NtCssR9xeAO3IU_12serde_derive3serNtB5_10TupleTrait17serialize_element, symObjAddr: 0x3A30, symBinAddr: 0x10040, symSize: 0x400 }
  - { offset: 0x2EB67, size: 0x8, addend: 0x0, symName: __RNvMs_NtCssR9xeAO3IU_12serde_derive3serNtB4_11StructTrait10skip_field, symObjAddr: 0x3E30, symBinAddr: 0x10440, symSize: 0x350 }
  - { offset: 0x2EC03, size: 0x8, addend: 0x0, symName: __RNvMs_NtCssR9xeAO3IU_12serde_derive3serNtB4_11StructTrait15serialize_field, symObjAddr: 0x4180, symBinAddr: 0x10790, symSize: 0x400 }
  - { offset: 0x2F3CF, size: 0x8, addend: 0x0, symName: __RINvMsi_NtCslJiobkLta79_5alloc3vecINtB6_3VecNtCsaKzlTDPUHDb_11proc_macro211TokenStreamE14extend_trustedINtNtNtNtCsieiGu2EXtoJ_4core4iter8adapters3map3MapINtNtB1I_9enumerate9EnumerateINtNtNtB1M_5slice4iter4IterNtNtNtCssR9xeAO3IU_12serde_derive9internals3ast7VariantEENCNvNtB3r_3ser14serialize_enum0EEB3r_, symObjAddr: 0x0, symBinAddr: 0x22930, symSize: 0x1D0 }
  - { offset: 0x371AA, size: 0x8, addend: 0x0, symName: __RNvXs1_NtCsieiGu2EXtoJ_4core7convertINtNtCslJiobkLta79_5alloc3vec3VecNtNtCsdGrGZaRBwMb_3syn8generics14WherePredicateEINtB5_4IntoINtNtB7_6option6OptionBy_EE4intoCssR9xeAO3IU_12serde_derive, symObjAddr: 0x7B80, symBinAddr: 0x2A4B0, symSize: 0x20 }
  - { offset: 0x3B840, size: 0x8, addend: 0x0, symName: __RINvXsd_NtCslJiobkLta79_5alloc3vecINtB6_3VecNtCsaKzlTDPUHDb_11proc_macro211TokenStreamEINtNtNtNtCsieiGu2EXtoJ_4core4iter6traits7collect12FromIteratorBG_E9from_iterINtNtNtB1u_8adapters10filter_map9FilterMapINtNtB2G_6filter6FilterINtNtB2G_9enumerate9EnumerateINtNtNtB1w_5slice4iter4IterNtNtNtCssR9xeAO3IU_12serde_derive9internals3ast7VariantEENCNvNtNtB4E_2de15enum_adjacently11deserializes0_0ENCB5v_s1_0EEB4E_, symObjAddr: 0x2C30, symBinAddr: 0x25560, symSize: 0x40 }
  - { offset: 0x3B881, size: 0x8, addend: 0x0, symName: __RINvXsd_NtCslJiobkLta79_5alloc3vecINtB6_3VecNtCsaKzlTDPUHDb_11proc_macro211TokenStreamEINtNtNtNtCsieiGu2EXtoJ_4core4iter6traits7collect12FromIteratorBG_E9from_iterINtNtNtB1u_8adapters10filter_map9FilterMapINtNtNtB1w_5slice4iter4IterNtNtNtCssR9xeAO3IU_12serde_derive9internals3ast7VariantENCNvNtB3O_7pretend24pretend_fields_used_enum0EEB3O_, symObjAddr: 0x2C70, symBinAddr: 0x255A0, symSize: 0x40 }
  - { offset: 0x3B8C2, size: 0x8, addend: 0x0, symName: __RINvXsd_NtCslJiobkLta79_5alloc3vecINtB6_3VecNtCsaKzlTDPUHDb_11proc_macro211TokenStreamEINtNtNtNtCsieiGu2EXtoJ_4core4iter6traits7collect12FromIteratorBG_E9from_iterINtNtNtB1u_8adapters3map3MapINtNtB2G_6filter6FilterINtNtB2G_9enumerate9EnumerateINtNtNtB1w_5slice4iter4IterNtNtNtCssR9xeAO3IU_12serde_derive9internals3ast5FieldEENCNvNtB4q_3ser30serialize_tuple_struct_visitor0ENCB5f_s_0EEB4q_, symObjAddr: 0x2CB0, symBinAddr: 0x255E0, symSize: 0x40 }
  - { offset: 0x3B903, size: 0x8, addend: 0x0, symName: __RINvXsd_NtCslJiobkLta79_5alloc3vecINtB6_3VecNtCsaKzlTDPUHDb_11proc_macro211TokenStreamEINtNtNtNtCsieiGu2EXtoJ_4core4iter6traits7collect12FromIteratorBG_E9from_iterINtNtNtB1u_8adapters3map3MapINtNtB2G_6filter6FilterINtNtB2G_9enumerate9EnumerateINtNtNtB1w_5slice4iter4IterNtNtNtCssR9xeAO3IU_12serde_derive9internals3ast7VariantEENCNvNtNtB4q_2de15enum_adjacently11deserialize0ENCB5h_s_0EEB4q_, symObjAddr: 0x2CF0, symBinAddr: 0x25620, symSize: 0x40 }
  - { offset: 0x3B944, size: 0x8, addend: 0x0, symName: __RINvXsd_NtCslJiobkLta79_5alloc3vecINtB6_3VecNtCsaKzlTDPUHDb_11proc_macro211TokenStreamEINtNtNtNtCsieiGu2EXtoJ_4core4iter6traits7collect12FromIteratorBG_E9from_iterINtNtNtB1u_8adapters3map3MapINtNtB2G_6filter6FilterINtNtNtB1w_5slice4iter4IterNtNtNtCssR9xeAO3IU_12serde_derive9internals3ast5FieldENCNvNtB3X_3ser24serialize_struct_visitor0ENCB4L_s_0EEB3X_, symObjAddr: 0x2D30, symBinAddr: 0x25660, symSize: 0x40 }
  - { offset: 0x3B985, size: 0x8, addend: 0x0, symName: __RINvXsd_NtCslJiobkLta79_5alloc3vecINtB6_3VecNtCsaKzlTDPUHDb_11proc_macro211TokenStreamEINtNtNtNtCsieiGu2EXtoJ_4core4iter6traits7collect12FromIteratorBG_E9from_iterINtNtNtB1u_8adapters3map3MapINtNtB2G_9enumerate9EnumerateINtNtNtB1w_5slice4iter4IterNtNtNtCssR9xeAO3IU_12serde_derive9internals3ast7VariantEENCNvNtB43_3ser14serialize_enum0EEB43_, symObjAddr: 0x2D70, symBinAddr: 0x256A0, symSize: 0x40 }
  - { offset: 0x3B9C6, size: 0x8, addend: 0x0, symName: __RINvXsd_NtCslJiobkLta79_5alloc3vecINtB6_3VecNtCsaKzlTDPUHDb_11proc_macro211TokenStreamEINtNtNtNtCsieiGu2EXtoJ_4core4iter6traits7collect12FromIteratorBG_E9from_iterINtNtNtB1u_8adapters3map3MapINtNtNtB1w_5slice4iter4IterNtNtNtCssR9xeAO3IU_12serde_derive9internals3ast5FieldENCNvNtB3A_3ser27wrap_serialize_variant_withs_0EEB3A_, symObjAddr: 0x2DB0, symBinAddr: 0x256E0, symSize: 0x60 }
  - { offset: 0x3BA06, size: 0x8, addend: 0x0, symName: __RINvXsd_NtCslJiobkLta79_5alloc3vecINtB6_3VecNtCsaKzlTDPUHDb_11proc_macro25IdentEINtNtNtNtCsieiGu2EXtoJ_4core4iter6traits7collect12FromIteratorBG_E9from_iterINtNtNtB1n_8adapters3map3MapINtNtNtB1p_3ops5range5RangejENCNCNvNtCssR9xeAO3IU_12serde_derive7pretend21pretend_variants_used00EEB3x_, symObjAddr: 0x2E10, symBinAddr: 0x25740, symSize: 0x60 }
  - { offset: 0x3BA46, size: 0x8, addend: 0x0, symName: __RINvXsd_NtCslJiobkLta79_5alloc3vecINtB6_3VecNtNtCsdGrGZaRBwMb_3syn4expr6MemberEINtNtNtNtCsieiGu2EXtoJ_4core4iter6traits7collect12FromIteratorBG_E9from_iterINtNtNtB1m_8adapters3map3MapINtNtNtB1o_3ops5range5RangejENCNvNtCssR9xeAO3IU_12serde_derive3ser35serialize_adjacently_tagged_variants_0EEB3u_, symObjAddr: 0x2E70, symBinAddr: 0x257A0, symSize: 0x60 }
  - { offset: 0x3BA86, size: 0x8, addend: 0x0, symName: __RINvXsd_NtCslJiobkLta79_5alloc3vecINtB6_3VecNtNtCsdGrGZaRBwMb_3syn4expr6MemberEINtNtNtNtCsieiGu2EXtoJ_4core4iter6traits7collect12FromIteratorBG_E9from_iterINtNtNtB1m_8adapters3map3MapINtNtNtB1o_5slice4iter4IterNtNtNtCssR9xeAO3IU_12serde_derive9internals3ast5FieldENCNvNtB3s_3ser35serialize_adjacently_tagged_variants0_0EEB3s_, symObjAddr: 0x2ED0, symBinAddr: 0x25800, symSize: 0x60 }
  - { offset: 0x3BAC6, size: 0x8, addend: 0x0, symName: __RINvXsd_NtCslJiobkLta79_5alloc3vecINtB6_3VecNtNtCsdGrGZaRBwMb_3syn8generics14WherePredicateEINtNtNtNtCsieiGu2EXtoJ_4core4iter6traits7collect12FromIteratorBG_E9from_iterINtNtBK_10punctuated10PunctuatedBG_NtNtBK_5token5CommaEECssR9xeAO3IU_12serde_derive, symObjAddr: 0x2F30, symBinAddr: 0x25860, symSize: 0x40 }
  - { offset: 0x3BB07, size: 0x8, addend: 0x0, symName: __RINvXsd_NtCslJiobkLta79_5alloc3vecINtB6_3VecNtNtCssR9xeAO3IU_12serde_derive2de16FieldWithAliasesEINtNtNtNtCsieiGu2EXtoJ_4core4iter6traits7collect12FromIteratorBG_E9from_iterINtNtNtB1E_8adapters3map3MapINtNtB2Q_6filter6FilterINtNtB2Q_9enumerate9EnumerateINtNtNtB1G_5slice4iter4IterNtNtNtBK_9internals3ast5FieldEENCNvNtBI_7struct_11deserialize0ENCB51_s_0EEBK_, symObjAddr: 0x2F70, symBinAddr: 0x258A0, symSize: 0x40 }
  - { offset: 0x3BB48, size: 0x8, addend: 0x0, symName: __RINvXsd_NtCslJiobkLta79_5alloc3vecINtB6_3VecNtNtCssR9xeAO3IU_12serde_derive2de16FieldWithAliasesEINtNtNtNtCsieiGu2EXtoJ_4core4iter6traits7collect12FromIteratorBG_E9from_iterINtNtNtB1E_8adapters3map3MapINtNtB2Q_6filter6FilterINtNtB2Q_9enumerate9EnumerateINtNtNtB1G_5slice4iter4IterNtNtNtBK_9internals3ast7VariantEENCNvNtBI_5enum_25prepare_enum_variant_enum0ENCB53_s2_0EEBK_, symObjAddr: 0x2FB0, symBinAddr: 0x258E0, symSize: 0x40 }
  - { offset: 0x3BB89, size: 0x8, addend: 0x0, symName: __RINvXsd_NtCslJiobkLta79_5alloc3vecINtB6_3VecNtNtCssR9xeAO3IU_12serde_derive2de16FieldWithAliasesEINtNtNtNtCsieiGu2EXtoJ_4core4iter6traits7collect12FromIteratorBG_E9from_iterINtNtNtB1E_8adapters3map3MapINtNtNtB1G_5slice4iter4IterNtNtNtBK_9internals3ast7VariantENCNvNtBI_10identifier18deserialize_customs_0EEBK_, symObjAddr: 0x2FF0, symBinAddr: 0x25920, symSize: 0x60 }
  - { offset: 0x3BBC9, size: 0x8, addend: 0x0, symName: __RINvXsd_NtCslJiobkLta79_5alloc3vecINtB6_3VecNtNtNtCssR9xeAO3IU_12serde_derive9internals3ast5FieldEINtNtNtNtCsieiGu2EXtoJ_4core4iter6traits7collect12FromIteratorBG_E9from_iterINtNtNtB1F_8adapters3map3MapINtNtB2R_9enumerate9EnumerateINtNtCsdGrGZaRBwMb_3syn10punctuated4IterNtNtB3M_4data5FieldEENCNvBI_15fields_from_ast0EEBM_, symObjAddr: 0x3050, symBinAddr: 0x25980, symSize: 0x40 }
  - { offset: 0x3BC0A, size: 0x8, addend: 0x0, symName: __RINvXsd_NtCslJiobkLta79_5alloc3vecINtB6_3VecNtNtNtCssR9xeAO3IU_12serde_derive9internals3ast7VariantEINtNtNtNtCsieiGu2EXtoJ_4core4iter6traits7collect12FromIteratorBG_E9from_iterINtNtNtB1H_8adapters3map3MapINtNtCsdGrGZaRBwMb_3syn10punctuated4IterNtNtB3l_4data7VariantENCNvBI_13enum_from_ast0EEBM_, symObjAddr: 0x3090, symBinAddr: 0x259C0, symSize: 0x40 }
  - { offset: 0x3BC4B, size: 0x8, addend: 0x0, symName: __RINvXsd_NtCslJiobkLta79_5alloc3vecINtB6_3VecRNtCsaKzlTDPUHDb_11proc_macro25IdentEINtNtNtNtCsieiGu2EXtoJ_4core4iter6traits7collect12FromIteratorBG_E9from_iterINtNtNtB1o_8adapters3map3MapINtNtNtB1q_5slice4iter4IterNtNtCssR9xeAO3IU_12serde_derive2de16FieldWithAliasesENCNvNtB3q_10identifier21deserialize_generated0EEB3s_, symObjAddr: 0x30D0, symBinAddr: 0x25A00, symSize: 0x60 }
  - { offset: 0x3BC8B, size: 0x8, addend: 0x0, symName: __RINvXsd_NtCslJiobkLta79_5alloc3vecINtB6_3VecRNtNtCsdGrGZaRBwMb_3syn2ty4TypeEINtNtNtNtCsieiGu2EXtoJ_4core4iter6traits7collect12FromIteratorBG_E9from_iterINtNtNtB1j_8adapters3map3MapINtNtNtB1l_5slice4iter4IterNtNtNtCssR9xeAO3IU_12serde_derive9internals3ast5FieldENCNvNtB3p_3ser27wrap_serialize_variant_with0EEB3p_, symObjAddr: 0x3130, symBinAddr: 0x25A60, symSize: 0x60 }
  - { offset: 0x3BCCB, size: 0x8, addend: 0x0, symName: __RINvXsd_NtCslJiobkLta79_5alloc3vecINtB6_3VecRNtNtCsdGrGZaRBwMb_3syn4expr6MemberEINtNtNtNtCsieiGu2EXtoJ_4core4iter6traits7collect12FromIteratorBG_E9from_iterINtNtNtB1n_8adapters3map3MapINtNtNtB1p_5slice4iter4IterNtNtNtCssR9xeAO3IU_12serde_derive9internals3ast5FieldENCNvNtB3t_3ser37serialize_struct_variant_with_flattens0_0EEB3t_, symObjAddr: 0x3190, symBinAddr: 0x25AC0, symSize: 0x60 }
  - { offset: 0x3BD0B, size: 0x8, addend: 0x0, symName: __RINvXsd_NtCslJiobkLta79_5alloc3vecINtB6_3VecRNtNtCsdGrGZaRBwMb_3syn4expr6MemberEINtNtNtNtCsieiGu2EXtoJ_4core4iter6traits7collect12FromIteratorBG_E9from_iterINtNtNtB1n_8adapters3map3MapINtNtNtB1p_5slice4iter4IterNtNtNtCssR9xeAO3IU_12serde_derive9internals3ast5FieldENCNvNtB3t_7pretend33pretend_fields_used_struct_packed0EEB3t_, symObjAddr: 0x31F0, symBinAddr: 0x25B20, symSize: 0x60 }
  - { offset: 0x3BD4B, size: 0x8, addend: 0x0, symName: __RINvXsd_NtCslJiobkLta79_5alloc3vecINtB6_3VecTRNtNtNtCssR9xeAO3IU_12serde_derive9internals3ast5FieldNtCsaKzlTDPUHDb_11proc_macro25IdentEEINtNtNtNtCsieiGu2EXtoJ_4core4iter6traits7collect12FromIteratorBG_E9from_iterINtNtNtB2h_8adapters3map3MapINtNtB3t_9enumerate9EnumerateINtNtNtB2j_5slice4iter4IterBI_EENCNvNtNtBO_2de7struct_15deserialize_map0EEBO_, symObjAddr: 0x3250, symBinAddr: 0x25B80, symSize: 0x40 }
  - { offset: 0x3BD8C, size: 0x8, addend: 0x0, symName: __RINvXsd_NtCslJiobkLta79_5alloc3vecINtB6_3VechEINtNtNtNtCsieiGu2EXtoJ_4core4iter6traits7collect12FromIteratorhE9from_iterINtNtNtBP_8adapters3map3MapINtNtNtBR_5slice4iter4IterhENCNvNtB8_3str13replace_ascii0EECssR9xeAO3IU_12serde_derive, symObjAddr: 0x3290, symBinAddr: 0x25BC0, symSize: 0x40 }
  - { offset: 0x3BDD8, size: 0x8, addend: 0x0, symName: __RNCINvMsi_NtCslJiobkLta79_5alloc3vecINtB8_3VecNtCsaKzlTDPUHDb_11proc_macro211TokenStreamE14extend_trustedINtNtNtNtCsieiGu2EXtoJ_4core4iter8adapters3map3MapINtNtB1K_9enumerate9EnumerateINtNtNtB1O_5slice4iter4IterNtNtNtCssR9xeAO3IU_12serde_derive9internals3ast7VariantEENCNvNtB3t_3ser14serialize_enum0EE0B3t_, symObjAddr: 0x32D0, symBinAddr: 0x25C00, symSize: 0x50 }
  - { offset: 0x3BE95, size: 0x8, addend: 0x0, symName: __RNCINvMsi_NtCslJiobkLta79_5alloc3vecINtB8_3VecNtCsaKzlTDPUHDb_11proc_macro211TokenStreamE14extend_trustedINtNtNtNtCsieiGu2EXtoJ_4core4iter8adapters3map3MapINtNtNtB1O_5slice4iter4IterNtNtNtCssR9xeAO3IU_12serde_derive9internals3ast5FieldENCNvNtB30_3ser27wrap_serialize_variant_withs_0EE0B30_, symObjAddr: 0x3320, symBinAddr: 0x25C50, symSize: 0x50 }
  - { offset: 0x3BF52, size: 0x8, addend: 0x0, symName: __RNCINvMsi_NtCslJiobkLta79_5alloc3vecINtB8_3VecNtCsaKzlTDPUHDb_11proc_macro25IdentE14extend_trustedINtNtNtNtCsieiGu2EXtoJ_4core4iter8adapters3map3MapINtNtNtB1H_3ops5range5RangejENCNCNvNtCssR9xeAO3IU_12serde_derive7pretend21pretend_variants_used00EE0B2X_, symObjAddr: 0x3370, symBinAddr: 0x25CA0, symSize: 0x40 }
  - { offset: 0x3BFFA, size: 0x8, addend: 0x0, symName: __RNCINvMsi_NtCslJiobkLta79_5alloc3vecINtB8_3VecNtNtCsdGrGZaRBwMb_3syn4expr6MemberE14extend_trustedINtNtNtNtCsieiGu2EXtoJ_4core4iter8adapters3map3MapINtNtNtB1G_3ops5range5RangejENCNvNtCssR9xeAO3IU_12serde_derive3ser35serialize_adjacently_tagged_variants_0EE0B2U_, symObjAddr: 0x33B0, symBinAddr: 0x25CE0, symSize: 0x40 }
  - { offset: 0x3C0A2, size: 0x8, addend: 0x0, symName: __RNCINvMsi_NtCslJiobkLta79_5alloc3vecINtB8_3VecNtNtCsdGrGZaRBwMb_3syn4expr6MemberE14extend_trustedINtNtNtNtCsieiGu2EXtoJ_4core4iter8adapters3map3MapINtNtNtB1G_5slice4iter4IterNtNtNtCssR9xeAO3IU_12serde_derive9internals3ast5FieldENCNvNtB2S_3ser35serialize_adjacently_tagged_variants0_0EE0B2S_, symObjAddr: 0x33F0, symBinAddr: 0x25D20, symSize: 0x40 }
  - { offset: 0x3C14A, size: 0x8, addend: 0x0, symName: __RNCINvMsi_NtCslJiobkLta79_5alloc3vecINtB8_3VecNtNtCssR9xeAO3IU_12serde_derive2de16FieldWithAliasesE14extend_trustedINtNtNtNtCsieiGu2EXtoJ_4core4iter8adapters3map3MapINtNtNtB1Y_5slice4iter4IterNtNtNtBM_9internals3ast7VariantENCNvNtBK_10identifier18deserialize_customs_0EE0BM_, symObjAddr: 0x3430, symBinAddr: 0x25D60, symSize: 0x50 }
  - { offset: 0x3C207, size: 0x8, addend: 0x0, symName: __RNCINvMsi_NtCslJiobkLta79_5alloc3vecINtB8_3VecRNtCsaKzlTDPUHDb_11proc_macro25IdentE14extend_trustedINtNtNtNtCsieiGu2EXtoJ_4core4iter8adapters3map3MapINtNtNtB1I_5slice4iter4IterNtNtCssR9xeAO3IU_12serde_derive2de16FieldWithAliasesENCNvNtB2Q_10identifier21deserialize_generated0EE0B2S_, symObjAddr: 0x3480, symBinAddr: 0x25DB0, symSize: 0x30 }
  - { offset: 0x3C2AF, size: 0x8, addend: 0x0, symName: __RNCINvMsi_NtCslJiobkLta79_5alloc3vecINtB8_3VecRNtNtCsdGrGZaRBwMb_3syn2ty4TypeE14extend_trustedINtNtNtNtCsieiGu2EXtoJ_4core4iter8adapters3map3MapINtNtNtB1D_5slice4iter4IterNtNtNtCssR9xeAO3IU_12serde_derive9internals3ast5FieldENCNvNtB2P_3ser27wrap_serialize_variant_with0EE0B2P_, symObjAddr: 0x34B0, symBinAddr: 0x25DE0, symSize: 0x30 }
  - { offset: 0x3C357, size: 0x8, addend: 0x0, symName: __RNCINvMsi_NtCslJiobkLta79_5alloc3vecINtB8_3VecRNtNtCsdGrGZaRBwMb_3syn4expr6MemberE14extend_trustedINtNtNtNtCsieiGu2EXtoJ_4core4iter8adapters3map3MapINtNtNtB1H_5slice4iter4IterNtNtNtCssR9xeAO3IU_12serde_derive9internals3ast5FieldENCNvNtB2T_3ser37serialize_struct_variant_with_flattens0_0EE0B2T_, symObjAddr: 0x34E0, symBinAddr: 0x25E10, symSize: 0x30 }
  - { offset: 0x3C3FF, size: 0x8, addend: 0x0, symName: __RNCINvMsi_NtCslJiobkLta79_5alloc3vecINtB8_3VecRNtNtCsdGrGZaRBwMb_3syn4expr6MemberE14extend_trustedINtNtNtNtCsieiGu2EXtoJ_4core4iter8adapters3map3MapINtNtNtB1H_5slice4iter4IterNtNtNtCssR9xeAO3IU_12serde_derive9internals3ast5FieldENCNvNtB2T_7pretend33pretend_fields_used_struct_packed0EE0B2T_, symObjAddr: 0x3510, symBinAddr: 0x25E40, symSize: 0x30 }
  - { offset: 0x3C4A7, size: 0x8, addend: 0x0, symName: __RNCINvMsi_NtCslJiobkLta79_5alloc3vecINtB8_3VecTRNtNtNtCssR9xeAO3IU_12serde_derive9internals3ast5FieldNtCsaKzlTDPUHDb_11proc_macro25IdentEE14extend_trustedINtNtNtNtCsieiGu2EXtoJ_4core4iter8adapters3map3MapINtNtB2x_9enumerate9EnumerateINtNtNtB2B_5slice4iter4IterBK_EENCNvNtNtBQ_2de7struct_15deserialize_map0EE0BQ_, symObjAddr: 0x3540, symBinAddr: 0x25E70, symSize: 0x50 }
  - { offset: 0x3C564, size: 0x8, addend: 0x0, symName: __RNCINvMsi_NtCslJiobkLta79_5alloc3vecINtB8_3VechE14extend_trustedINtNtNtNtCsieiGu2EXtoJ_4core4iter8adapters3map3MapINtNtNtB19_5slice4iter4IterhENCNvNtBa_3str13replace_ascii0EE0CssR9xeAO3IU_12serde_derive, symObjAddr: 0x3590, symBinAddr: 0x25EC0, symSize: 0x30 }
  - { offset: 0x3CD31, size: 0x8, addend: 0x0, symName: __RNvNvMs_NtCslJiobkLta79_5alloc3vecINtB6_3VecppE17from_raw_parts_in18precondition_checkCssR9xeAO3IU_12serde_derive, symObjAddr: 0x5310, symBinAddr: 0x27C40, symSize: 0xA0 }
  - { offset: 0x3CD9F, size: 0x8, addend: 0x0, symName: __RNvNvMs_NtCslJiobkLta79_5alloc3vecINtB6_3VecppE7set_len18precondition_checkCssR9xeAO3IU_12serde_derive, symObjAddr: 0x53B0, symBinAddr: 0x27CE0, symSize: 0xA0 }
  - { offset: 0x3CE13, size: 0x8, addend: 0x0, symName: __RNvXNtNtCslJiobkLta79_5alloc3vec11spec_extendINtB4_3VecNtCsaKzlTDPUHDb_11proc_macro211TokenStreamEINtB2_10SpecExtendBR_INtNtNtNtCsieiGu2EXtoJ_4core4iter8adapters10filter_map9FilterMapINtNtB1Y_6filter6FilterINtNtB1Y_9enumerate9EnumerateINtNtNtB22_5slice4iter4IterNtNtNtCssR9xeAO3IU_12serde_derive9internals3ast7VariantEENCNvNtNtB4i_2de15enum_adjacently11deserializes0_0ENCB59_s1_0EE11spec_extendB4i_, symObjAddr: 0x5450, symBinAddr: 0x27D80, symSize: 0x20 }
  - { offset: 0x3CE65, size: 0x8, addend: 0x0, symName: __RNvXNtNtCslJiobkLta79_5alloc3vec11spec_extendINtB4_3VecNtCsaKzlTDPUHDb_11proc_macro211TokenStreamEINtB2_10SpecExtendBR_INtNtNtNtCsieiGu2EXtoJ_4core4iter8adapters10filter_map9FilterMapINtNtNtB22_5slice4iter4IterNtNtNtCssR9xeAO3IU_12serde_derive9internals3ast7VariantENCNvNtB3s_7pretend24pretend_fields_used_enum0EE11spec_extendB3s_, symObjAddr: 0x5470, symBinAddr: 0x27DA0, symSize: 0x20 }
  - { offset: 0x3CEB7, size: 0x8, addend: 0x0, symName: __RNvXNtNtCslJiobkLta79_5alloc3vec11spec_extendINtB4_3VecNtCsaKzlTDPUHDb_11proc_macro211TokenStreamEINtB2_10SpecExtendBR_INtNtNtNtCsieiGu2EXtoJ_4core4iter8adapters3map3MapINtNtB1Y_6filter6FilterINtNtB1Y_9enumerate9EnumerateINtNtNtB22_5slice4iter4IterNtNtNtCssR9xeAO3IU_12serde_derive9internals3ast5FieldEENCNvNtB44_3ser30serialize_tuple_struct_visitor0ENCB4T_s_0EE11spec_extendB44_, symObjAddr: 0x5490, symBinAddr: 0x27DC0, symSize: 0x20 }
  - { offset: 0x3CF09, size: 0x8, addend: 0x0, symName: __RNvXNtNtCslJiobkLta79_5alloc3vec11spec_extendINtB4_3VecNtCsaKzlTDPUHDb_11proc_macro211TokenStreamEINtB2_10SpecExtendBR_INtNtNtNtCsieiGu2EXtoJ_4core4iter8adapters3map3MapINtNtB1Y_6filter6FilterINtNtB1Y_9enumerate9EnumerateINtNtNtB22_5slice4iter4IterNtNtNtCssR9xeAO3IU_12serde_derive9internals3ast7VariantEENCNvNtNtB44_2de15enum_adjacently11deserialize0ENCB4V_s_0EE11spec_extendB44_, symObjAddr: 0x54B0, symBinAddr: 0x27DE0, symSize: 0x20 }
  - { offset: 0x3CF5B, size: 0x8, addend: 0x0, symName: __RNvXNtNtCslJiobkLta79_5alloc3vec11spec_extendINtB4_3VecNtCsaKzlTDPUHDb_11proc_macro211TokenStreamEINtB2_10SpecExtendBR_INtNtNtNtCsieiGu2EXtoJ_4core4iter8adapters3map3MapINtNtB1Y_6filter6FilterINtNtNtB22_5slice4iter4IterNtNtNtCssR9xeAO3IU_12serde_derive9internals3ast5FieldENCNvNtB3B_3ser24serialize_struct_visitor0ENCB4p_s_0EE11spec_extendB3B_, symObjAddr: 0x54D0, symBinAddr: 0x27E00, symSize: 0x20 }
  - { offset: 0x3CFAD, size: 0x8, addend: 0x0, symName: __RNvXNtNtCslJiobkLta79_5alloc3vec11spec_extendINtB4_3VecNtNtCsdGrGZaRBwMb_3syn8generics14WherePredicateEINtB2_10SpecExtendBR_INtNtBV_10punctuated8IntoIterBR_EE11spec_extendCssR9xeAO3IU_12serde_derive, symObjAddr: 0x54F0, symBinAddr: 0x27E20, symSize: 0x20 }
  - { offset: 0x3CFFF, size: 0x8, addend: 0x0, symName: __RNvXNtNtCslJiobkLta79_5alloc3vec11spec_extendINtB4_3VecNtNtCssR9xeAO3IU_12serde_derive2de16FieldWithAliasesEINtB2_10SpecExtendBR_INtNtNtNtCsieiGu2EXtoJ_4core4iter8adapters3map3MapINtNtB28_6filter6FilterINtNtB28_9enumerate9EnumerateINtNtNtB2c_5slice4iter4IterNtNtNtBV_9internals3ast5FieldEENCNvNtBT_7struct_11deserialize0ENCB4F_s_0EE11spec_extendBV_, symObjAddr: 0x5510, symBinAddr: 0x27E40, symSize: 0x20 }
  - { offset: 0x3D051, size: 0x8, addend: 0x0, symName: __RNvXNtNtCslJiobkLta79_5alloc3vec11spec_extendINtB4_3VecNtNtCssR9xeAO3IU_12serde_derive2de16FieldWithAliasesEINtB2_10SpecExtendBR_INtNtNtNtCsieiGu2EXtoJ_4core4iter8adapters3map3MapINtNtB28_6filter6FilterINtNtB28_9enumerate9EnumerateINtNtNtB2c_5slice4iter4IterNtNtNtBV_9internals3ast7VariantEENCNvNtBT_5enum_25prepare_enum_variant_enum0ENCB4H_s2_0EE11spec_extendBV_, symObjAddr: 0x5530, symBinAddr: 0x27E60, symSize: 0x20 }
  - { offset: 0x3D0A3, size: 0x8, addend: 0x0, symName: __RNvXNtNtCslJiobkLta79_5alloc3vec11spec_extendINtB4_3VecNtNtNtCssR9xeAO3IU_12serde_derive9internals3ast5FieldEINtB2_10SpecExtendBR_INtNtNtNtCsieiGu2EXtoJ_4core4iter8adapters3map3MapINtNtB29_9enumerate9EnumerateINtNtCsdGrGZaRBwMb_3syn10punctuated4IterNtNtB3q_4data5FieldEENCNvBT_15fields_from_ast0EE11spec_extendBX_, symObjAddr: 0x5550, symBinAddr: 0x27E80, symSize: 0x20 }
  - { offset: 0x3D0F5, size: 0x8, addend: 0x0, symName: __RNvXNtNtCslJiobkLta79_5alloc3vec11spec_extendINtB4_3VecNtNtNtCssR9xeAO3IU_12serde_derive9internals3ast7VariantEINtB2_10SpecExtendBR_INtNtNtNtCsieiGu2EXtoJ_4core4iter8adapters3map3MapINtNtCsdGrGZaRBwMb_3syn10punctuated4IterNtNtB2Z_4data7VariantENCNvBT_13enum_from_ast0EE11spec_extendBX_, symObjAddr: 0x5570, symBinAddr: 0x27EA0, symSize: 0x20 }
  - { offset: 0x3D14D, size: 0x8, addend: 0x0, symName: __RNvXs_NtNtCslJiobkLta79_5alloc3vec11spec_extendINtB6_3VecNtCsaKzlTDPUHDb_11proc_macro211TokenStreamEINtB4_10SpecExtendBT_INtNtNtNtCsieiGu2EXtoJ_4core4iter8adapters3map3MapINtNtB20_9enumerate9EnumerateINtNtNtB24_5slice4iter4IterNtNtNtCssR9xeAO3IU_12serde_derive9internals3ast7VariantEENCNvNtB3J_3ser14serialize_enum0EE11spec_extendB3J_, symObjAddr: 0x7EF0, symBinAddr: 0x2A820, symSize: 0x20 }
  - { offset: 0x3D19F, size: 0x8, addend: 0x0, symName: __RNvXs_NtNtCslJiobkLta79_5alloc3vec11spec_extendINtB6_3VecNtCsaKzlTDPUHDb_11proc_macro211TokenStreamEINtB4_10SpecExtendBT_INtNtNtNtCsieiGu2EXtoJ_4core4iter8adapters3map3MapINtNtNtB24_5slice4iter4IterNtNtNtCssR9xeAO3IU_12serde_derive9internals3ast5FieldENCNvNtB3g_3ser27wrap_serialize_variant_withs_0EE11spec_extendB3g_, symObjAddr: 0x7F10, symBinAddr: 0x2A840, symSize: 0x20 }
  - { offset: 0x3D1F0, size: 0x8, addend: 0x0, symName: __RNvXs_NtNtCslJiobkLta79_5alloc3vec11spec_extendINtB6_3VecNtCsaKzlTDPUHDb_11proc_macro25IdentEINtB4_10SpecExtendBT_INtNtNtNtCsieiGu2EXtoJ_4core4iter8adapters3map3MapINtNtNtB1X_3ops5range5RangejENCNCNvNtCssR9xeAO3IU_12serde_derive7pretend21pretend_variants_used00EE11spec_extendB3d_, symObjAddr: 0x7F30, symBinAddr: 0x2A860, symSize: 0x20 }
  - { offset: 0x3D241, size: 0x8, addend: 0x0, symName: __RNvXs_NtNtCslJiobkLta79_5alloc3vec11spec_extendINtB6_3VecNtNtCsdGrGZaRBwMb_3syn4expr6MemberEINtB4_10SpecExtendBT_INtNtNtNtCsieiGu2EXtoJ_4core4iter8adapters3map3MapINtNtNtB1W_3ops5range5RangejENCNvNtCssR9xeAO3IU_12serde_derive3ser35serialize_adjacently_tagged_variants_0EE11spec_extendB3a_, symObjAddr: 0x7F50, symBinAddr: 0x2A880, symSize: 0x20 }
  - { offset: 0x3D292, size: 0x8, addend: 0x0, symName: __RNvXs_NtNtCslJiobkLta79_5alloc3vec11spec_extendINtB6_3VecNtNtCsdGrGZaRBwMb_3syn4expr6MemberEINtB4_10SpecExtendBT_INtNtNtNtCsieiGu2EXtoJ_4core4iter8adapters3map3MapINtNtNtB1W_5slice4iter4IterNtNtNtCssR9xeAO3IU_12serde_derive9internals3ast5FieldENCNvNtB38_3ser35serialize_adjacently_tagged_variants0_0EE11spec_extendB38_, symObjAddr: 0x7F70, symBinAddr: 0x2A8A0, symSize: 0x20 }
  - { offset: 0x3D2E3, size: 0x8, addend: 0x0, symName: __RNvXs_NtNtCslJiobkLta79_5alloc3vec11spec_extendINtB6_3VecNtNtCssR9xeAO3IU_12serde_derive2de16FieldWithAliasesEINtB4_10SpecExtendBT_INtNtNtNtCsieiGu2EXtoJ_4core4iter8adapters3map3MapINtNtNtB2e_5slice4iter4IterNtNtNtBX_9internals3ast7VariantENCNvNtBV_10identifier18deserialize_customs_0EE11spec_extendBX_, symObjAddr: 0x7F90, symBinAddr: 0x2A8C0, symSize: 0x20 }
  - { offset: 0x3D334, size: 0x8, addend: 0x0, symName: __RNvXs_NtNtCslJiobkLta79_5alloc3vec11spec_extendINtB6_3VecRNtCsaKzlTDPUHDb_11proc_macro25IdentEINtB4_10SpecExtendBT_INtNtNtNtCsieiGu2EXtoJ_4core4iter8adapters3map3MapINtNtNtB1Y_5slice4iter4IterNtNtCssR9xeAO3IU_12serde_derive2de16FieldWithAliasesENCNvNtB36_10identifier21deserialize_generated0EE11spec_extendB38_, symObjAddr: 0x7FB0, symBinAddr: 0x2A8E0, symSize: 0x20 }
  - { offset: 0x3D385, size: 0x8, addend: 0x0, symName: __RNvXs_NtNtCslJiobkLta79_5alloc3vec11spec_extendINtB6_3VecRNtNtCsdGrGZaRBwMb_3syn2ty4TypeEINtB4_10SpecExtendBT_INtNtNtNtCsieiGu2EXtoJ_4core4iter8adapters3map3MapINtNtNtB1T_5slice4iter4IterNtNtNtCssR9xeAO3IU_12serde_derive9internals3ast5FieldENCNvNtB35_3ser27wrap_serialize_variant_with0EE11spec_extendB35_, symObjAddr: 0x7FD0, symBinAddr: 0x2A900, symSize: 0x20 }
  - { offset: 0x3D3D6, size: 0x8, addend: 0x0, symName: __RNvXs_NtNtCslJiobkLta79_5alloc3vec11spec_extendINtB6_3VecRNtNtCsdGrGZaRBwMb_3syn4expr6MemberEINtB4_10SpecExtendBT_INtNtNtNtCsieiGu2EXtoJ_4core4iter8adapters3map3MapINtNtNtB1X_5slice4iter4IterNtNtNtCssR9xeAO3IU_12serde_derive9internals3ast5FieldENCNvNtB39_3ser37serialize_struct_variant_with_flattens0_0EE11spec_extendB39_, symObjAddr: 0x7FF0, symBinAddr: 0x2A920, symSize: 0x20 }
  - { offset: 0x3D427, size: 0x8, addend: 0x0, symName: __RNvXs_NtNtCslJiobkLta79_5alloc3vec11spec_extendINtB6_3VecRNtNtCsdGrGZaRBwMb_3syn4expr6MemberEINtB4_10SpecExtendBT_INtNtNtNtCsieiGu2EXtoJ_4core4iter8adapters3map3MapINtNtNtB1X_5slice4iter4IterNtNtNtCssR9xeAO3IU_12serde_derive9internals3ast5FieldENCNvNtB39_7pretend33pretend_fields_used_struct_packed0EE11spec_extendB39_, symObjAddr: 0x8010, symBinAddr: 0x2A940, symSize: 0x20 }
  - { offset: 0x3D478, size: 0x8, addend: 0x0, symName: __RNvXs_NtNtCslJiobkLta79_5alloc3vec11spec_extendINtB6_3VecTRNtNtNtCssR9xeAO3IU_12serde_derive9internals3ast5FieldNtCsaKzlTDPUHDb_11proc_macro25IdentEEINtB4_10SpecExtendBT_INtNtNtNtCsieiGu2EXtoJ_4core4iter8adapters3map3MapINtNtB2N_9enumerate9EnumerateINtNtNtB2R_5slice4iter4IterBV_EENCNvNtNtB11_2de7struct_15deserialize_map0EE11spec_extendB11_, symObjAddr: 0x8030, symBinAddr: 0x2A960, symSize: 0x20 }
  - { offset: 0x3D4CA, size: 0x8, addend: 0x0, symName: __RNvXs_NtNtCslJiobkLta79_5alloc3vec11spec_extendINtB6_3VechEINtB4_10SpecExtendhINtNtNtNtCsieiGu2EXtoJ_4core4iter8adapters3map3MapINtNtNtB1n_5slice4iter4IterhENCNvNtB8_3str13replace_ascii0EE11spec_extendCssR9xeAO3IU_12serde_derive, symObjAddr: 0x8050, symBinAddr: 0x2A980, symSize: 0x20 }
  - { offset: 0x3D528, size: 0x8, addend: 0x0, symName: __RNvXNtNtCslJiobkLta79_5alloc3vec14spec_from_iterINtB4_3VecNtCsaKzlTDPUHDb_11proc_macro211TokenStreamEINtB2_12SpecFromIterBU_INtNtNtNtCsieiGu2EXtoJ_4core4iter8adapters10filter_map9FilterMapINtNtB23_6filter6FilterINtNtB23_9enumerate9EnumerateINtNtNtB27_5slice4iter4IterNtNtNtCssR9xeAO3IU_12serde_derive9internals3ast7VariantEENCNvNtNtB4n_2de15enum_adjacently11deserializes0_0ENCB5e_s1_0EE9from_iterB4n_, symObjAddr: 0x5590, symBinAddr: 0x27EC0, symSize: 0x20 }
  - { offset: 0x3D567, size: 0x8, addend: 0x0, symName: __RNvXNtNtCslJiobkLta79_5alloc3vec14spec_from_iterINtB4_3VecNtCsaKzlTDPUHDb_11proc_macro211TokenStreamEINtB2_12SpecFromIterBU_INtNtNtNtCsieiGu2EXtoJ_4core4iter8adapters10filter_map9FilterMapINtNtNtB27_5slice4iter4IterNtNtNtCssR9xeAO3IU_12serde_derive9internals3ast7VariantENCNvNtB3x_7pretend24pretend_fields_used_enum0EE9from_iterB3x_, symObjAddr: 0x55B0, symBinAddr: 0x27EE0, symSize: 0x20 }
  - { offset: 0x3D5A6, size: 0x8, addend: 0x0, symName: __RNvXNtNtCslJiobkLta79_5alloc3vec14spec_from_iterINtB4_3VecNtCsaKzlTDPUHDb_11proc_macro211TokenStreamEINtB2_12SpecFromIterBU_INtNtNtNtCsieiGu2EXtoJ_4core4iter8adapters3map3MapINtNtB23_6filter6FilterINtNtB23_9enumerate9EnumerateINtNtNtB27_5slice4iter4IterNtNtNtCssR9xeAO3IU_12serde_derive9internals3ast5FieldEENCNvNtB49_3ser30serialize_tuple_struct_visitor0ENCB4Y_s_0EE9from_iterB49_, symObjAddr: 0x55D0, symBinAddr: 0x27F00, symSize: 0x20 }
  - { offset: 0x3D5E5, size: 0x8, addend: 0x0, symName: __RNvXNtNtCslJiobkLta79_5alloc3vec14spec_from_iterINtB4_3VecNtCsaKzlTDPUHDb_11proc_macro211TokenStreamEINtB2_12SpecFromIterBU_INtNtNtNtCsieiGu2EXtoJ_4core4iter8adapters3map3MapINtNtB23_6filter6FilterINtNtB23_9enumerate9EnumerateINtNtNtB27_5slice4iter4IterNtNtNtCssR9xeAO3IU_12serde_derive9internals3ast7VariantEENCNvNtNtB49_2de15enum_adjacently11deserialize0ENCB50_s_0EE9from_iterB49_, symObjAddr: 0x55F0, symBinAddr: 0x27F20, symSize: 0x20 }
  - { offset: 0x3D624, size: 0x8, addend: 0x0, symName: __RNvXNtNtCslJiobkLta79_5alloc3vec14spec_from_iterINtB4_3VecNtCsaKzlTDPUHDb_11proc_macro211TokenStreamEINtB2_12SpecFromIterBU_INtNtNtNtCsieiGu2EXtoJ_4core4iter8adapters3map3MapINtNtB23_6filter6FilterINtNtNtB27_5slice4iter4IterNtNtNtCssR9xeAO3IU_12serde_derive9internals3ast5FieldENCNvNtB3G_3ser24serialize_struct_visitor0ENCB4u_s_0EE9from_iterB3G_, symObjAddr: 0x5610, symBinAddr: 0x27F40, symSize: 0x20 }
  - { offset: 0x3D663, size: 0x8, addend: 0x0, symName: __RNvXNtNtCslJiobkLta79_5alloc3vec14spec_from_iterINtB4_3VecNtCsaKzlTDPUHDb_11proc_macro211TokenStreamEINtB2_12SpecFromIterBU_INtNtNtNtCsieiGu2EXtoJ_4core4iter8adapters3map3MapINtNtB23_9enumerate9EnumerateINtNtNtB27_5slice4iter4IterNtNtNtCssR9xeAO3IU_12serde_derive9internals3ast7VariantEENCNvNtB3M_3ser14serialize_enum0EE9from_iterB3M_, symObjAddr: 0x5630, symBinAddr: 0x27F60, symSize: 0x20 }
  - { offset: 0x3D6A2, size: 0x8, addend: 0x0, symName: __RNvXNtNtCslJiobkLta79_5alloc3vec14spec_from_iterINtB4_3VecNtCsaKzlTDPUHDb_11proc_macro211TokenStreamEINtB2_12SpecFromIterBU_INtNtNtNtCsieiGu2EXtoJ_4core4iter8adapters3map3MapINtNtNtB27_5slice4iter4IterNtNtNtCssR9xeAO3IU_12serde_derive9internals3ast5FieldENCNvNtB3j_3ser27wrap_serialize_variant_withs_0EE9from_iterB3j_, symObjAddr: 0x5650, symBinAddr: 0x27F80, symSize: 0x30 }
  - { offset: 0x3D6E0, size: 0x8, addend: 0x0, symName: __RNvXNtNtCslJiobkLta79_5alloc3vec14spec_from_iterINtB4_3VecNtCsaKzlTDPUHDb_11proc_macro25IdentEINtB2_12SpecFromIterBU_INtNtNtNtCsieiGu2EXtoJ_4core4iter8adapters3map3MapINtNtNtB20_3ops5range5RangejENCNCNvNtCssR9xeAO3IU_12serde_derive7pretend21pretend_variants_used00EE9from_iterB3g_, symObjAddr: 0x5680, symBinAddr: 0x27FB0, symSize: 0x30 }
  - { offset: 0x3D71E, size: 0x8, addend: 0x0, symName: __RNvXNtNtCslJiobkLta79_5alloc3vec14spec_from_iterINtB4_3VecNtNtCsdGrGZaRBwMb_3syn4expr6MemberEINtB2_12SpecFromIterBU_INtNtNtNtCsieiGu2EXtoJ_4core4iter8adapters3map3MapINtNtNtB1Z_3ops5range5RangejENCNvNtCssR9xeAO3IU_12serde_derive3ser35serialize_adjacently_tagged_variants_0EE9from_iterB3d_, symObjAddr: 0x56B0, symBinAddr: 0x27FE0, symSize: 0x30 }
  - { offset: 0x3D75C, size: 0x8, addend: 0x0, symName: __RNvXNtNtCslJiobkLta79_5alloc3vec14spec_from_iterINtB4_3VecNtNtCsdGrGZaRBwMb_3syn4expr6MemberEINtB2_12SpecFromIterBU_INtNtNtNtCsieiGu2EXtoJ_4core4iter8adapters3map3MapINtNtNtB1Z_5slice4iter4IterNtNtNtCssR9xeAO3IU_12serde_derive9internals3ast5FieldENCNvNtB3b_3ser35serialize_adjacently_tagged_variants0_0EE9from_iterB3b_, symObjAddr: 0x56E0, symBinAddr: 0x28010, symSize: 0x30 }
  - { offset: 0x3D79A, size: 0x8, addend: 0x0, symName: __RNvXNtNtCslJiobkLta79_5alloc3vec14spec_from_iterINtB4_3VecNtNtCsdGrGZaRBwMb_3syn8generics14WherePredicateEINtB2_12SpecFromIterBU_INtNtBY_10punctuated8IntoIterBU_EE9from_iterCssR9xeAO3IU_12serde_derive, symObjAddr: 0x5710, symBinAddr: 0x28040, symSize: 0x20 }
  - { offset: 0x3D7D9, size: 0x8, addend: 0x0, symName: __RNvXNtNtCslJiobkLta79_5alloc3vec14spec_from_iterINtB4_3VecNtNtCssR9xeAO3IU_12serde_derive2de16FieldWithAliasesEINtB2_12SpecFromIterBU_INtNtNtNtCsieiGu2EXtoJ_4core4iter8adapters3map3MapINtNtB2d_6filter6FilterINtNtB2d_9enumerate9EnumerateINtNtNtB2h_5slice4iter4IterNtNtNtBY_9internals3ast5FieldEENCNvNtBW_7struct_11deserialize0ENCB4K_s_0EE9from_iterBY_, symObjAddr: 0x5730, symBinAddr: 0x28060, symSize: 0x20 }
  - { offset: 0x3D818, size: 0x8, addend: 0x0, symName: __RNvXNtNtCslJiobkLta79_5alloc3vec14spec_from_iterINtB4_3VecNtNtCssR9xeAO3IU_12serde_derive2de16FieldWithAliasesEINtB2_12SpecFromIterBU_INtNtNtNtCsieiGu2EXtoJ_4core4iter8adapters3map3MapINtNtB2d_6filter6FilterINtNtB2d_9enumerate9EnumerateINtNtNtB2h_5slice4iter4IterNtNtNtBY_9internals3ast7VariantEENCNvNtBW_5enum_25prepare_enum_variant_enum0ENCB4M_s2_0EE9from_iterBY_, symObjAddr: 0x5750, symBinAddr: 0x28080, symSize: 0x20 }
  - { offset: 0x3D857, size: 0x8, addend: 0x0, symName: __RNvXNtNtCslJiobkLta79_5alloc3vec14spec_from_iterINtB4_3VecNtNtCssR9xeAO3IU_12serde_derive2de16FieldWithAliasesEINtB2_12SpecFromIterBU_INtNtNtNtCsieiGu2EXtoJ_4core4iter8adapters3map3MapINtNtNtB2h_5slice4iter4IterNtNtNtBY_9internals3ast7VariantENCNvNtBW_10identifier18deserialize_customs_0EE9from_iterBY_, symObjAddr: 0x5770, symBinAddr: 0x280A0, symSize: 0x30 }
  - { offset: 0x3D895, size: 0x8, addend: 0x0, symName: __RNvXNtNtCslJiobkLta79_5alloc3vec14spec_from_iterINtB4_3VecNtNtNtCssR9xeAO3IU_12serde_derive9internals3ast5FieldEINtB2_12SpecFromIterBU_INtNtNtNtCsieiGu2EXtoJ_4core4iter8adapters3map3MapINtNtB2e_9enumerate9EnumerateINtNtCsdGrGZaRBwMb_3syn10punctuated4IterNtNtB3v_4data5FieldEENCNvBW_15fields_from_ast0EE9from_iterB10_, symObjAddr: 0x57A0, symBinAddr: 0x280D0, symSize: 0x20 }
  - { offset: 0x3D8D4, size: 0x8, addend: 0x0, symName: __RNvXNtNtCslJiobkLta79_5alloc3vec14spec_from_iterINtB4_3VecNtNtNtCssR9xeAO3IU_12serde_derive9internals3ast7VariantEINtB2_12SpecFromIterBU_INtNtNtNtCsieiGu2EXtoJ_4core4iter8adapters3map3MapINtNtCsdGrGZaRBwMb_3syn10punctuated4IterNtNtB34_4data7VariantENCNvBW_13enum_from_ast0EE9from_iterB10_, symObjAddr: 0x57C0, symBinAddr: 0x280F0, symSize: 0x20 }
  - { offset: 0x3D913, size: 0x8, addend: 0x0, symName: __RNvXNtNtCslJiobkLta79_5alloc3vec14spec_from_iterINtB4_3VecRNtCsaKzlTDPUHDb_11proc_macro25IdentEINtB2_12SpecFromIterBU_INtNtNtNtCsieiGu2EXtoJ_4core4iter8adapters3map3MapINtNtNtB21_5slice4iter4IterNtNtCssR9xeAO3IU_12serde_derive2de16FieldWithAliasesENCNvNtB39_10identifier21deserialize_generated0EE9from_iterB3b_, symObjAddr: 0x57E0, symBinAddr: 0x28110, symSize: 0x30 }
  - { offset: 0x3D951, size: 0x8, addend: 0x0, symName: __RNvXNtNtCslJiobkLta79_5alloc3vec14spec_from_iterINtB4_3VecRNtNtCsdGrGZaRBwMb_3syn2ty4TypeEINtB2_12SpecFromIterBU_INtNtNtNtCsieiGu2EXtoJ_4core4iter8adapters3map3MapINtNtNtB1W_5slice4iter4IterNtNtNtCssR9xeAO3IU_12serde_derive9internals3ast5FieldENCNvNtB38_3ser27wrap_serialize_variant_with0EE9from_iterB38_, symObjAddr: 0x5810, symBinAddr: 0x28140, symSize: 0x30 }
  - { offset: 0x3D98F, size: 0x8, addend: 0x0, symName: __RNvXNtNtCslJiobkLta79_5alloc3vec14spec_from_iterINtB4_3VecRNtNtCsdGrGZaRBwMb_3syn4expr6MemberEINtB2_12SpecFromIterBU_INtNtNtNtCsieiGu2EXtoJ_4core4iter8adapters3map3MapINtNtNtB20_5slice4iter4IterNtNtNtCssR9xeAO3IU_12serde_derive9internals3ast5FieldENCNvNtB3c_3ser37serialize_struct_variant_with_flattens0_0EE9from_iterB3c_, symObjAddr: 0x5840, symBinAddr: 0x28170, symSize: 0x30 }
  - { offset: 0x3D9CD, size: 0x8, addend: 0x0, symName: __RNvXNtNtCslJiobkLta79_5alloc3vec14spec_from_iterINtB4_3VecRNtNtCsdGrGZaRBwMb_3syn4expr6MemberEINtB2_12SpecFromIterBU_INtNtNtNtCsieiGu2EXtoJ_4core4iter8adapters3map3MapINtNtNtB20_5slice4iter4IterNtNtNtCssR9xeAO3IU_12serde_derive9internals3ast5FieldENCNvNtB3c_7pretend33pretend_fields_used_struct_packed0EE9from_iterB3c_, symObjAddr: 0x5870, symBinAddr: 0x281A0, symSize: 0x30 }
  - { offset: 0x3DA0B, size: 0x8, addend: 0x0, symName: __RNvXNtNtCslJiobkLta79_5alloc3vec14spec_from_iterINtB4_3VecTRNtNtNtCssR9xeAO3IU_12serde_derive9internals3ast5FieldNtCsaKzlTDPUHDb_11proc_macro25IdentEEINtB2_12SpecFromIterBU_INtNtNtNtCsieiGu2EXtoJ_4core4iter8adapters3map3MapINtNtB2Q_9enumerate9EnumerateINtNtNtB2U_5slice4iter4IterBW_EENCNvNtNtB12_2de7struct_15deserialize_map0EE9from_iterB12_, symObjAddr: 0x58A0, symBinAddr: 0x281D0, symSize: 0x20 }
  - { offset: 0x3DA4A, size: 0x8, addend: 0x0, symName: __RNvXNtNtCslJiobkLta79_5alloc3vec14spec_from_iterINtB4_3VechEINtB2_12SpecFromIterhINtNtNtNtCsieiGu2EXtoJ_4core4iter8adapters3map3MapINtNtNtB1q_5slice4iter4IterhENCNvNtB6_3str13replace_ascii0EE9from_iterCssR9xeAO3IU_12serde_derive, symObjAddr: 0x58C0, symBinAddr: 0x281F0, symSize: 0x20 }
  - { offset: 0x3DA95, size: 0x8, addend: 0x0, symName: __RNvXNtNtCslJiobkLta79_5alloc3vec21spec_from_iter_nestedINtB4_3VecNtCsaKzlTDPUHDb_11proc_macro211TokenStreamEINtB2_18SpecFromIterNestedB11_INtNtNtNtCsieiGu2EXtoJ_4core4iter8adapters10filter_map9FilterMapINtNtB2h_6filter6FilterINtNtB2h_9enumerate9EnumerateINtNtNtB2l_5slice4iter4IterNtNtNtCssR9xeAO3IU_12serde_derive9internals3ast7VariantEENCNvNtNtB4B_2de15enum_adjacently11deserializes0_0ENCB5s_s1_0EE9from_iterB4B_, symObjAddr: 0x58E0, symBinAddr: 0x28210, symSize: 0x3A0 }
  - { offset: 0x3DD4A, size: 0x8, addend: 0x0, symName: __RNvXNtNtCslJiobkLta79_5alloc3vec21spec_from_iter_nestedINtB4_3VecNtCsaKzlTDPUHDb_11proc_macro211TokenStreamEINtB2_18SpecFromIterNestedB11_INtNtNtNtCsieiGu2EXtoJ_4core4iter8adapters10filter_map9FilterMapINtNtNtB2l_5slice4iter4IterNtNtNtCssR9xeAO3IU_12serde_derive9internals3ast7VariantENCNvNtB3L_7pretend24pretend_fields_used_enum0EE9from_iterB3L_, symObjAddr: 0x5C80, symBinAddr: 0x285B0, symSize: 0x370 }
  - { offset: 0x3DFFF, size: 0x8, addend: 0x0, symName: __RNvXNtNtCslJiobkLta79_5alloc3vec21spec_from_iter_nestedINtB4_3VecNtCsaKzlTDPUHDb_11proc_macro211TokenStreamEINtB2_18SpecFromIterNestedB11_INtNtNtNtCsieiGu2EXtoJ_4core4iter8adapters3map3MapINtNtB2h_6filter6FilterINtNtB2h_9enumerate9EnumerateINtNtNtB2l_5slice4iter4IterNtNtNtCssR9xeAO3IU_12serde_derive9internals3ast5FieldEENCNvNtB4n_3ser30serialize_tuple_struct_visitor0ENCB5c_s_0EE9from_iterB4n_, symObjAddr: 0x5FF0, symBinAddr: 0x28920, symSize: 0x390 }
  - { offset: 0x3E2B4, size: 0x8, addend: 0x0, symName: __RNvXNtNtCslJiobkLta79_5alloc3vec21spec_from_iter_nestedINtB4_3VecNtCsaKzlTDPUHDb_11proc_macro211TokenStreamEINtB2_18SpecFromIterNestedB11_INtNtNtNtCsieiGu2EXtoJ_4core4iter8adapters3map3MapINtNtB2h_6filter6FilterINtNtB2h_9enumerate9EnumerateINtNtNtB2l_5slice4iter4IterNtNtNtCssR9xeAO3IU_12serde_derive9internals3ast7VariantEENCNvNtNtB4n_2de15enum_adjacently11deserialize0ENCB5e_s_0EE9from_iterB4n_, symObjAddr: 0x6380, symBinAddr: 0x28CB0, symSize: 0x390 }
  - { offset: 0x3E569, size: 0x8, addend: 0x0, symName: __RNvXNtNtCslJiobkLta79_5alloc3vec21spec_from_iter_nestedINtB4_3VecNtCsaKzlTDPUHDb_11proc_macro211TokenStreamEINtB2_18SpecFromIterNestedB11_INtNtNtNtCsieiGu2EXtoJ_4core4iter8adapters3map3MapINtNtB2h_6filter6FilterINtNtNtB2l_5slice4iter4IterNtNtNtCssR9xeAO3IU_12serde_derive9internals3ast5FieldENCNvNtB3U_3ser24serialize_struct_visitor0ENCB4I_s_0EE9from_iterB3U_, symObjAddr: 0x6710, symBinAddr: 0x29040, symSize: 0x390 }
  - { offset: 0x3E81E, size: 0x8, addend: 0x0, symName: __RNvXNtNtCslJiobkLta79_5alloc3vec21spec_from_iter_nestedINtB4_3VecNtNtCsdGrGZaRBwMb_3syn8generics14WherePredicateEINtB2_18SpecFromIterNestedB11_INtNtB15_10punctuated8IntoIterB11_EE9from_iterCssR9xeAO3IU_12serde_derive, symObjAddr: 0x6AA0, symBinAddr: 0x293D0, symSize: 0x340 }
  - { offset: 0x3EAD3, size: 0x8, addend: 0x0, symName: __RNvXNtNtCslJiobkLta79_5alloc3vec21spec_from_iter_nestedINtB4_3VecNtNtCssR9xeAO3IU_12serde_derive2de16FieldWithAliasesEINtB2_18SpecFromIterNestedB11_INtNtNtNtCsieiGu2EXtoJ_4core4iter8adapters3map3MapINtNtB2r_6filter6FilterINtNtB2r_9enumerate9EnumerateINtNtNtB2v_5slice4iter4IterNtNtNtB15_9internals3ast5FieldEENCNvNtB13_7struct_11deserialize0ENCB4Z_s_0EE9from_iterB15_, symObjAddr: 0x6DE0, symBinAddr: 0x29710, symSize: 0x370 }
  - { offset: 0x3ED88, size: 0x8, addend: 0x0, symName: __RNvXNtNtCslJiobkLta79_5alloc3vec21spec_from_iter_nestedINtB4_3VecNtNtCssR9xeAO3IU_12serde_derive2de16FieldWithAliasesEINtB2_18SpecFromIterNestedB11_INtNtNtNtCsieiGu2EXtoJ_4core4iter8adapters3map3MapINtNtB2r_6filter6FilterINtNtB2r_9enumerate9EnumerateINtNtNtB2v_5slice4iter4IterNtNtNtB15_9internals3ast7VariantEENCNvNtB13_5enum_25prepare_enum_variant_enum0ENCB51_s2_0EE9from_iterB15_, symObjAddr: 0x7150, symBinAddr: 0x29A80, symSize: 0x370 }
  - { offset: 0x3F03D, size: 0x8, addend: 0x0, symName: __RNvXNtNtCslJiobkLta79_5alloc3vec21spec_from_iter_nestedINtB4_3VecNtNtNtCssR9xeAO3IU_12serde_derive9internals3ast5FieldEINtB2_18SpecFromIterNestedB11_INtNtNtNtCsieiGu2EXtoJ_4core4iter8adapters3map3MapINtNtB2s_9enumerate9EnumerateINtNtCsdGrGZaRBwMb_3syn10punctuated4IterNtNtB3J_4data5FieldEENCNvB13_15fields_from_ast0EE9from_iterB17_, symObjAddr: 0x74C0, symBinAddr: 0x29DF0, symSize: 0x370 }
  - { offset: 0x3F2F2, size: 0x8, addend: 0x0, symName: __RNvXNtNtCslJiobkLta79_5alloc3vec21spec_from_iter_nestedINtB4_3VecNtNtNtCssR9xeAO3IU_12serde_derive9internals3ast7VariantEINtB2_18SpecFromIterNestedB11_INtNtNtNtCsieiGu2EXtoJ_4core4iter8adapters3map3MapINtNtCsdGrGZaRBwMb_3syn10punctuated4IterNtNtB3i_4data7VariantENCNvB13_13enum_from_ast0EE9from_iterB17_, symObjAddr: 0x7830, symBinAddr: 0x2A160, symSize: 0x350 }
  - { offset: 0x3F5AD, size: 0x8, addend: 0x0, symName: __RNvXs_NtNtCslJiobkLta79_5alloc3vec21spec_from_iter_nestedINtB6_3VecNtCsaKzlTDPUHDb_11proc_macro211TokenStreamEINtB4_18SpecFromIterNestedB13_INtNtNtNtCsieiGu2EXtoJ_4core4iter8adapters3map3MapINtNtB2j_9enumerate9EnumerateINtNtNtB2n_5slice4iter4IterNtNtNtCssR9xeAO3IU_12serde_derive9internals3ast7VariantEENCNvNtB42_3ser14serialize_enum0EE9from_iterB42_, symObjAddr: 0x8070, symBinAddr: 0x2A9A0, symSize: 0x1D0 }
  - { offset: 0x3F685, size: 0x8, addend: 0x0, symName: __RNvXs_NtNtCslJiobkLta79_5alloc3vec21spec_from_iter_nestedINtB6_3VecNtCsaKzlTDPUHDb_11proc_macro211TokenStreamEINtB4_18SpecFromIterNestedB13_INtNtNtNtCsieiGu2EXtoJ_4core4iter8adapters3map3MapINtNtNtB2n_5slice4iter4IterNtNtNtCssR9xeAO3IU_12serde_derive9internals3ast5FieldENCNvNtB3z_3ser27wrap_serialize_variant_withs_0EE9from_iterB3z_, symObjAddr: 0x8240, symBinAddr: 0x2AB70, symSize: 0x1B0 }
  - { offset: 0x3F75D, size: 0x8, addend: 0x0, symName: __RNvXs_NtNtCslJiobkLta79_5alloc3vec21spec_from_iter_nestedINtB6_3VecNtCsaKzlTDPUHDb_11proc_macro25IdentEINtB4_18SpecFromIterNestedB13_INtNtNtNtCsieiGu2EXtoJ_4core4iter8adapters3map3MapINtNtNtB2g_3ops5range5RangejENCNCNvNtCssR9xeAO3IU_12serde_derive7pretend21pretend_variants_used00EE9from_iterB3w_, symObjAddr: 0x83F0, symBinAddr: 0x2AD20, symSize: 0x1B0 }
  - { offset: 0x3F835, size: 0x8, addend: 0x0, symName: __RNvXs_NtNtCslJiobkLta79_5alloc3vec21spec_from_iter_nestedINtB6_3VecNtNtCsdGrGZaRBwMb_3syn4expr6MemberEINtB4_18SpecFromIterNestedB13_INtNtNtNtCsieiGu2EXtoJ_4core4iter8adapters3map3MapINtNtNtB2f_3ops5range5RangejENCNvNtCssR9xeAO3IU_12serde_derive3ser35serialize_adjacently_tagged_variants_0EE9from_iterB3t_, symObjAddr: 0x85A0, symBinAddr: 0x2AED0, symSize: 0x1B0 }
  - { offset: 0x3F90D, size: 0x8, addend: 0x0, symName: __RNvXs_NtNtCslJiobkLta79_5alloc3vec21spec_from_iter_nestedINtB6_3VecNtNtCsdGrGZaRBwMb_3syn4expr6MemberEINtB4_18SpecFromIterNestedB13_INtNtNtNtCsieiGu2EXtoJ_4core4iter8adapters3map3MapINtNtNtB2f_5slice4iter4IterNtNtNtCssR9xeAO3IU_12serde_derive9internals3ast5FieldENCNvNtB3r_3ser35serialize_adjacently_tagged_variants0_0EE9from_iterB3r_, symObjAddr: 0x8750, symBinAddr: 0x2B080, symSize: 0x1B0 }
  - { offset: 0x3F9E5, size: 0x8, addend: 0x0, symName: __RNvXs_NtNtCslJiobkLta79_5alloc3vec21spec_from_iter_nestedINtB6_3VecNtNtCssR9xeAO3IU_12serde_derive2de16FieldWithAliasesEINtB4_18SpecFromIterNestedB13_INtNtNtNtCsieiGu2EXtoJ_4core4iter8adapters3map3MapINtNtNtB2x_5slice4iter4IterNtNtNtB17_9internals3ast7VariantENCNvNtB15_10identifier18deserialize_customs_0EE9from_iterB17_, symObjAddr: 0x8900, symBinAddr: 0x2B230, symSize: 0x1B0 }
  - { offset: 0x3FABD, size: 0x8, addend: 0x0, symName: __RNvXs_NtNtCslJiobkLta79_5alloc3vec21spec_from_iter_nestedINtB6_3VecRNtCsaKzlTDPUHDb_11proc_macro25IdentEINtB4_18SpecFromIterNestedB13_INtNtNtNtCsieiGu2EXtoJ_4core4iter8adapters3map3MapINtNtNtB2h_5slice4iter4IterNtNtCssR9xeAO3IU_12serde_derive2de16FieldWithAliasesENCNvNtB3p_10identifier21deserialize_generated0EE9from_iterB3r_, symObjAddr: 0x8AB0, symBinAddr: 0x2B3E0, symSize: 0x1A0 }
  - { offset: 0x3FB95, size: 0x8, addend: 0x0, symName: __RNvXs_NtNtCslJiobkLta79_5alloc3vec21spec_from_iter_nestedINtB6_3VecRNtNtCsdGrGZaRBwMb_3syn2ty4TypeEINtB4_18SpecFromIterNestedB13_INtNtNtNtCsieiGu2EXtoJ_4core4iter8adapters3map3MapINtNtNtB2c_5slice4iter4IterNtNtNtCssR9xeAO3IU_12serde_derive9internals3ast5FieldENCNvNtB3o_3ser27wrap_serialize_variant_with0EE9from_iterB3o_, symObjAddr: 0x8C50, symBinAddr: 0x2B580, symSize: 0x1A0 }
  - { offset: 0x3FC6D, size: 0x8, addend: 0x0, symName: __RNvXs_NtNtCslJiobkLta79_5alloc3vec21spec_from_iter_nestedINtB6_3VecRNtNtCsdGrGZaRBwMb_3syn4expr6MemberEINtB4_18SpecFromIterNestedB13_INtNtNtNtCsieiGu2EXtoJ_4core4iter8adapters3map3MapINtNtNtB2g_5slice4iter4IterNtNtNtCssR9xeAO3IU_12serde_derive9internals3ast5FieldENCNvNtB3s_3ser37serialize_struct_variant_with_flattens0_0EE9from_iterB3s_, symObjAddr: 0x8DF0, symBinAddr: 0x2B720, symSize: 0x1A0 }
  - { offset: 0x3FD45, size: 0x8, addend: 0x0, symName: __RNvXs_NtNtCslJiobkLta79_5alloc3vec21spec_from_iter_nestedINtB6_3VecRNtNtCsdGrGZaRBwMb_3syn4expr6MemberEINtB4_18SpecFromIterNestedB13_INtNtNtNtCsieiGu2EXtoJ_4core4iter8adapters3map3MapINtNtNtB2g_5slice4iter4IterNtNtNtCssR9xeAO3IU_12serde_derive9internals3ast5FieldENCNvNtB3s_7pretend33pretend_fields_used_struct_packed0EE9from_iterB3s_, symObjAddr: 0x8F90, symBinAddr: 0x2B8C0, symSize: 0x1A0 }
  - { offset: 0x3FE1D, size: 0x8, addend: 0x0, symName: __RNvXs_NtNtCslJiobkLta79_5alloc3vec21spec_from_iter_nestedINtB6_3VecTRNtNtNtCssR9xeAO3IU_12serde_derive9internals3ast5FieldNtCsaKzlTDPUHDb_11proc_macro25IdentEEINtB4_18SpecFromIterNestedB13_INtNtNtNtCsieiGu2EXtoJ_4core4iter8adapters3map3MapINtNtB36_9enumerate9EnumerateINtNtNtB3a_5slice4iter4IterB15_EENCNvNtNtB1b_2de7struct_15deserialize_map0EE9from_iterB1b_, symObjAddr: 0x9130, symBinAddr: 0x2BA60, symSize: 0x1C0 }
  - { offset: 0x3FEF5, size: 0x8, addend: 0x0, symName: __RNvXs_NtNtCslJiobkLta79_5alloc3vec21spec_from_iter_nestedINtB6_3VechEINtB4_18SpecFromIterNestedhINtNtNtNtCsieiGu2EXtoJ_4core4iter8adapters3map3MapINtNtNtB1F_5slice4iter4IterhENCNvNtB8_3str13replace_ascii0EE9from_iterCssR9xeAO3IU_12serde_derive, symObjAddr: 0x92F0, symBinAddr: 0x2BC20, symSize: 0x1C0 }
  - { offset: 0x3FFD4, size: 0x8, addend: 0x0, symName: __RNvXs6_NtCslJiobkLta79_5alloc3vecINtB5_3VecNtCsaKzlTDPUHDb_11proc_macro211TokenStreamENtNtNtCsieiGu2EXtoJ_4core3ops5deref5Deref5derefCssR9xeAO3IU_12serde_derive, symObjAddr: 0x7C60, symBinAddr: 0x2A590, symSize: 0x20 }
  - { offset: 0x40014, size: 0x8, addend: 0x0, symName: __RNvXs6_NtCslJiobkLta79_5alloc3vecINtB5_3VecNtCsaKzlTDPUHDb_11proc_macro25IdentENtNtNtCsieiGu2EXtoJ_4core3ops5deref5Deref5derefCssR9xeAO3IU_12serde_derive, symObjAddr: 0x7C80, symBinAddr: 0x2A5B0, symSize: 0x20 }
  - { offset: 0x40054, size: 0x8, addend: 0x0, symName: __RNvXs6_NtCslJiobkLta79_5alloc3vecINtB5_3VecNtNtCsdGrGZaRBwMb_3syn4expr6MemberENtNtNtCsieiGu2EXtoJ_4core3ops5deref5Deref5derefCssR9xeAO3IU_12serde_derive, symObjAddr: 0x7CA0, symBinAddr: 0x2A5D0, symSize: 0x20 }
  - { offset: 0x40094, size: 0x8, addend: 0x0, symName: __RNvXs6_NtCslJiobkLta79_5alloc3vecINtB5_3VecNtNtCssR9xeAO3IU_12serde_derive2de16FieldWithAliasesENtNtNtCsieiGu2EXtoJ_4core3ops5deref5Deref5derefBJ_, symObjAddr: 0x7CC0, symBinAddr: 0x2A5F0, symSize: 0x20 }
  - { offset: 0x400D4, size: 0x8, addend: 0x0, symName: __RNvXs6_NtCslJiobkLta79_5alloc3vecINtB5_3VecNtNtNtCssR9xeAO3IU_12serde_derive9internals3ast5FieldENtNtNtCsieiGu2EXtoJ_4core3ops5deref5Deref5derefBL_, symObjAddr: 0x7CE0, symBinAddr: 0x2A610, symSize: 0x20 }
  - { offset: 0x40114, size: 0x8, addend: 0x0, symName: __RNvXs6_NtCslJiobkLta79_5alloc3vecINtB5_3VecNtNtNtCssR9xeAO3IU_12serde_derive9internals3ast7VariantENtNtNtCsieiGu2EXtoJ_4core3ops5deref5Deref5derefBL_, symObjAddr: 0x7D00, symBinAddr: 0x2A630, symSize: 0x20 }
  - { offset: 0x40154, size: 0x8, addend: 0x0, symName: __RNvXs6_NtCslJiobkLta79_5alloc3vecINtB5_3VecRNtCsaKzlTDPUHDb_11proc_macro25IdentENtNtNtCsieiGu2EXtoJ_4core3ops5deref5Deref5derefCssR9xeAO3IU_12serde_derive, symObjAddr: 0x7D20, symBinAddr: 0x2A650, symSize: 0x20 }
  - { offset: 0x40194, size: 0x8, addend: 0x0, symName: __RNvXs6_NtCslJiobkLta79_5alloc3vecINtB5_3VecRNtNtCsdGrGZaRBwMb_3syn4expr6MemberENtNtNtCsieiGu2EXtoJ_4core3ops5deref5Deref5derefCssR9xeAO3IU_12serde_derive, symObjAddr: 0x7D40, symBinAddr: 0x2A670, symSize: 0x20 }
  - { offset: 0x401D4, size: 0x8, addend: 0x0, symName: __RNvXs6_NtCslJiobkLta79_5alloc3vecINtB5_3VecTRNtNtNtCssR9xeAO3IU_12serde_derive9internals3ast5FieldNtCsaKzlTDPUHDb_11proc_macro25IdentEENtNtNtCsieiGu2EXtoJ_4core3ops5deref5Deref5derefBN_, symObjAddr: 0x7D60, symBinAddr: 0x2A690, symSize: 0x20 }
  - { offset: 0x4036A, size: 0x8, addend: 0x0, symName: __RNvXs7_NtCslJiobkLta79_5alloc3vecINtB5_3VecTNtNtCsdGrGZaRBwMb_3syn2ty4TypeNtNtBK_5token5CommaEENtNtNtCsieiGu2EXtoJ_4core3ops5deref8DerefMut9deref_mutCssR9xeAO3IU_12serde_derive, symObjAddr: 0x7D80, symBinAddr: 0x2A6B0, symSize: 0x20 }
  - { offset: 0x403AA, size: 0x8, addend: 0x0, symName: __RNvXs7_NtCslJiobkLta79_5alloc3vecINtB5_3VecTNtNtCsdGrGZaRBwMb_3syn2ty9BareFnArgNtNtBK_5token5CommaEENtNtNtCsieiGu2EXtoJ_4core3ops5deref8DerefMut9deref_mutCssR9xeAO3IU_12serde_derive, symObjAddr: 0x7DA0, symBinAddr: 0x2A6D0, symSize: 0x20 }
  - { offset: 0x403EA, size: 0x8, addend: 0x0, symName: __RNvXs7_NtCslJiobkLta79_5alloc3vecINtB5_3VecTNtNtCsdGrGZaRBwMb_3syn4data7VariantNtNtBK_5token5CommaEENtNtNtCsieiGu2EXtoJ_4core3ops5deref8DerefMut9deref_mutCssR9xeAO3IU_12serde_derive, symObjAddr: 0x7DC0, symBinAddr: 0x2A6F0, symSize: 0x20 }
  - { offset: 0x4042A, size: 0x8, addend: 0x0, symName: __RNvXs7_NtCslJiobkLta79_5alloc3vecINtB5_3VecTNtNtCsdGrGZaRBwMb_3syn4expr4ExprNtNtBK_5token5CommaEENtNtNtCsieiGu2EXtoJ_4core3ops5deref8DerefMut9deref_mutCssR9xeAO3IU_12serde_derive, symObjAddr: 0x7DE0, symBinAddr: 0x2A710, symSize: 0x20 }
  - { offset: 0x4046A, size: 0x8, addend: 0x0, symName: __RNvXs7_NtCslJiobkLta79_5alloc3vecINtB5_3VecTNtNtCsdGrGZaRBwMb_3syn4path15GenericArgumentNtNtBK_5token5CommaEENtNtNtCsieiGu2EXtoJ_4core3ops5deref8DerefMut9deref_mutCssR9xeAO3IU_12serde_derive, symObjAddr: 0x7E00, symBinAddr: 0x2A730, symSize: 0x20 }
  - { offset: 0x404AA, size: 0x8, addend: 0x0, symName: __RNvXs7_NtCslJiobkLta79_5alloc3vecINtB5_3VecTNtNtCsdGrGZaRBwMb_3syn8generics14TypeParamBoundNtNtBK_5token4PlusEENtNtNtCsieiGu2EXtoJ_4core3ops5deref8DerefMut9deref_mutCssR9xeAO3IU_12serde_derive, symObjAddr: 0x7E20, symBinAddr: 0x2A750, symSize: 0x20 }
  - { offset: 0x404EA, size: 0x8, addend: 0x0, symName: __RNvXs7_NtCslJiobkLta79_5alloc3vecINtB5_3VecTNtNtCsdGrGZaRBwMb_3syn8generics14WherePredicateNtNtBK_5token5CommaEENtNtNtCsieiGu2EXtoJ_4core3ops5deref8DerefMut9deref_mutCssR9xeAO3IU_12serde_derive, symObjAddr: 0x7E40, symBinAddr: 0x2A770, symSize: 0x20 }
  - { offset: 0x40590, size: 0x8, addend: 0x0, symName: __RNvXs9_NtCslJiobkLta79_5alloc3vecINtB5_3VecNtNtCsdGrGZaRBwMb_3syn8generics14WherePredicateENtNtCsieiGu2EXtoJ_4core5clone5Clone5cloneCssR9xeAO3IU_12serde_derive, symObjAddr: 0x7E60, symBinAddr: 0x2A790, symSize: 0x90 }
  - { offset: 0x40767, size: 0x8, addend: 0x0, symName: __RNvXsb_NtCslJiobkLta79_5alloc3vecINtB5_3VecNtNtCsdGrGZaRBwMb_3syn8generics14WherePredicateEINtNtNtCsieiGu2EXtoJ_4core3ops5index5IndexNtNtB1w_5range9RangeFullE5indexCssR9xeAO3IU_12serde_derive, symObjAddr: 0x94B0, symBinAddr: 0x2BDE0, symSize: 0x70 }
  - { offset: 0x408E9, size: 0x8, addend: 0x0, symName: __RNvXsb_NtCslJiobkLta79_5alloc3vecINtB5_3VecNtNtNtCssR9xeAO3IU_12serde_derive9internals3ast5FieldEINtNtNtCsieiGu2EXtoJ_4core3ops5index5IndexjE5indexBL_, symObjAddr: 0x9520, symBinAddr: 0x2BE50, symSize: 0x80 }
  - { offset: 0x40A6B, size: 0x8, addend: 0x0, symName: __RNvXsb_NtCslJiobkLta79_5alloc3vecINtB5_3VecNtNtNtCssR9xeAO3IU_12serde_derive9internals3ast7VariantEINtNtNtCsieiGu2EXtoJ_4core3ops5index5IndexINtNtB1E_5range7RangeTojEE5indexBL_, symObjAddr: 0x95A0, symBinAddr: 0x2BED0, symSize: 0x110 }
  - { offset: 0x40C74, size: 0x8, addend: 0x0, symName: __RNvXsb_NtCslJiobkLta79_5alloc3vecINtB5_3VecTNtNtCsdGrGZaRBwMb_3syn4path15GenericArgumentNtNtBK_5token5CommaEEINtNtNtCsieiGu2EXtoJ_4core3ops5index5IndexjE5indexCssR9xeAO3IU_12serde_derive, symObjAddr: 0x96B0, symBinAddr: 0x2BFE0, symSize: 0x80 }
  - { offset: 0x40DFC, size: 0x8, addend: 0x0, symName: __RNvXse_NtCslJiobkLta79_5alloc3vecINtB5_3VecNtNtCsdGrGZaRBwMb_3syn3lit6LitStrENtNtNtNtCsieiGu2EXtoJ_4core4iter6traits7collect12IntoIterator9into_iterCssR9xeAO3IU_12serde_derive, symObjAddr: 0x9730, symBinAddr: 0x2C060, symSize: 0x140 }
  - { offset: 0x4108C, size: 0x8, addend: 0x0, symName: __RNvXse_NtCslJiobkLta79_5alloc3vecINtB5_3VecNtNtCsdGrGZaRBwMb_3syn4path11PathSegmentENtNtNtNtCsieiGu2EXtoJ_4core4iter6traits7collect12IntoIterator9into_iterCssR9xeAO3IU_12serde_derive, symObjAddr: 0x9870, symBinAddr: 0x2C1A0, symSize: 0x140 }
  - { offset: 0x4131C, size: 0x8, addend: 0x0, symName: __RNvXse_NtCslJiobkLta79_5alloc3vecINtB5_3VecNtNtCsdGrGZaRBwMb_3syn5error5ErrorENtNtNtNtCsieiGu2EXtoJ_4core4iter6traits7collect12IntoIterator9into_iterCssR9xeAO3IU_12serde_derive, symObjAddr: 0x99B0, symBinAddr: 0x2C2E0, symSize: 0x140 }
  - { offset: 0x415AC, size: 0x8, addend: 0x0, symName: __RNvXse_NtCslJiobkLta79_5alloc3vecINtB5_3VecNtNtCsdGrGZaRBwMb_3syn8generics12GenericParamENtNtNtNtCsieiGu2EXtoJ_4core4iter6traits7collect12IntoIterator9into_iterCssR9xeAO3IU_12serde_derive, symObjAddr: 0x9AF0, symBinAddr: 0x2C420, symSize: 0x140 }
  - { offset: 0x4183C, size: 0x8, addend: 0x0, symName: __RNvXse_NtCslJiobkLta79_5alloc3vecINtB5_3VecNtNtCsdGrGZaRBwMb_3syn8generics14WherePredicateENtNtNtNtCsieiGu2EXtoJ_4core4iter6traits7collect12IntoIterator9into_iterCssR9xeAO3IU_12serde_derive, symObjAddr: 0x9C30, symBinAddr: 0x2C560, symSize: 0x140 }
  - { offset: 0x41ACC, size: 0x8, addend: 0x0, symName: __RNvXse_NtCslJiobkLta79_5alloc3vecINtB5_3VecNtNtNtCssR9xeAO3IU_12serde_derive9internals4name4NameENtNtNtNtCsieiGu2EXtoJ_4core4iter6traits7collect12IntoIterator9into_iterBL_, symObjAddr: 0x9D70, symBinAddr: 0x2C6A0, symSize: 0x140 }
  - { offset: 0x41D5C, size: 0x8, addend: 0x0, symName: __RNvXse_NtCslJiobkLta79_5alloc3vecINtB5_3VecRNtNtCsdGrGZaRBwMb_3syn2ty8TypePathENtNtNtNtCsieiGu2EXtoJ_4core4iter6traits7collect12IntoIterator9into_iterCssR9xeAO3IU_12serde_derive, symObjAddr: 0x9EB0, symBinAddr: 0x2C7E0, symSize: 0x140 }
  - { offset: 0x41FEC, size: 0x8, addend: 0x0, symName: __RNvXse_NtCslJiobkLta79_5alloc3vecINtB5_3VecTNtNtCsdGrGZaRBwMb_3syn8generics12GenericParamNtNtBK_5token5CommaEENtNtNtNtCsieiGu2EXtoJ_4core4iter6traits7collect12IntoIterator9into_iterCssR9xeAO3IU_12serde_derive, symObjAddr: 0x9FF0, symBinAddr: 0x2C920, symSize: 0x140 }
  - { offset: 0x4227C, size: 0x8, addend: 0x0, symName: __RNvXse_NtCslJiobkLta79_5alloc3vecINtB5_3VecTNtNtCsdGrGZaRBwMb_3syn8generics14WherePredicateNtNtBK_5token5CommaEENtNtNtNtCsieiGu2EXtoJ_4core4iter6traits7collect12IntoIterator9into_iterCssR9xeAO3IU_12serde_derive, symObjAddr: 0xA130, symBinAddr: 0x2CA60, symSize: 0x140 }
  - { offset: 0x42512, size: 0x8, addend: 0x0, symName: __RNvXsf_NtCslJiobkLta79_5alloc3vecRINtB5_3VecNtNtNtCssR9xeAO3IU_12serde_derive9internals3ast5FieldENtNtNtNtCsieiGu2EXtoJ_4core4iter6traits7collect12IntoIterator9into_iterBM_, symObjAddr: 0xA270, symBinAddr: 0x2CBA0, symSize: 0x80 }
  - { offset: 0x4273F, size: 0x8, addend: 0x0, symName: __RNvXsf_NtCslJiobkLta79_5alloc3vecRINtB5_3VecNtNtNtCssR9xeAO3IU_12serde_derive9internals3ast7VariantENtNtNtNtCsieiGu2EXtoJ_4core4iter6traits7collect12IntoIterator9into_iterBM_, symObjAddr: 0xA2F0, symBinAddr: 0x2CC20, symSize: 0x80 }
  - { offset: 0x42972, size: 0x8, addend: 0x0, symName: __RNvXsg_NtCslJiobkLta79_5alloc3vecQINtB5_3VecNtNtNtCssR9xeAO3IU_12serde_derive9internals3ast5FieldENtNtNtNtCsieiGu2EXtoJ_4core4iter6traits7collect12IntoIterator9into_iterBM_, symObjAddr: 0xA370, symBinAddr: 0x2CCA0, symSize: 0x90 }
  - { offset: 0x42B93, size: 0x8, addend: 0x0, symName: __RNvXsg_NtCslJiobkLta79_5alloc3vecQINtB5_3VecNtNtNtCssR9xeAO3IU_12serde_derive9internals3ast7VariantENtNtNtNtCsieiGu2EXtoJ_4core4iter6traits7collect12IntoIterator9into_iterBM_, symObjAddr: 0xA400, symBinAddr: 0x2CD30, symSize: 0x90 }
  - { offset: 0x42DBA, size: 0x8, addend: 0x0, symName: __RNvXsn_NtCslJiobkLta79_5alloc3vecINtB5_3VecIBw_NtNtCsdGrGZaRBwMb_3syn8generics14WherePredicateEENtNtNtCsieiGu2EXtoJ_4core3ops4drop4Drop4dropCssR9xeAO3IU_12serde_derive, symObjAddr: 0xA490, symBinAddr: 0x2CDC0, symSize: 0x30 }
  - { offset: 0x42E6A, size: 0x8, addend: 0x0, symName: __RNvXsn_NtCslJiobkLta79_5alloc3vecINtB5_3VecNtCsaKzlTDPUHDb_11proc_macro211TokenStreamENtNtNtCsieiGu2EXtoJ_4core3ops4drop4Drop4dropCssR9xeAO3IU_12serde_derive, symObjAddr: 0xA4C0, symBinAddr: 0x2CDF0, symSize: 0x30 }
  - { offset: 0x42F1A, size: 0x8, addend: 0x0, symName: __RNvXsn_NtCslJiobkLta79_5alloc3vecINtB5_3VecNtCsaKzlTDPUHDb_11proc_macro25IdentENtNtNtCsieiGu2EXtoJ_4core3ops4drop4Drop4dropCssR9xeAO3IU_12serde_derive, symObjAddr: 0xA4F0, symBinAddr: 0x2CE20, symSize: 0x30 }
  - { offset: 0x42FCA, size: 0x8, addend: 0x0, symName: __RNvXsn_NtCslJiobkLta79_5alloc3vecINtB5_3VecNtNtCsdGrGZaRBwMb_3syn3lit6LitStrENtNtNtCsieiGu2EXtoJ_4core3ops4drop4Drop4dropCssR9xeAO3IU_12serde_derive, symObjAddr: 0xA520, symBinAddr: 0x2CE50, symSize: 0x30 }
  - { offset: 0x4307A, size: 0x8, addend: 0x0, symName: __RNvXsn_NtCslJiobkLta79_5alloc3vecINtB5_3VecNtNtCsdGrGZaRBwMb_3syn4expr6MemberENtNtNtCsieiGu2EXtoJ_4core3ops4drop4Drop4dropCssR9xeAO3IU_12serde_derive, symObjAddr: 0xA550, symBinAddr: 0x2CE80, symSize: 0x30 }
  - { offset: 0x4312A, size: 0x8, addend: 0x0, symName: __RNvXsn_NtCslJiobkLta79_5alloc3vecINtB5_3VecNtNtCsdGrGZaRBwMb_3syn5error5ErrorENtNtNtCsieiGu2EXtoJ_4core3ops4drop4Drop4dropCssR9xeAO3IU_12serde_derive, symObjAddr: 0xA580, symBinAddr: 0x2CEB0, symSize: 0x30 }
  - { offset: 0x431DA, size: 0x8, addend: 0x0, symName: __RNvXsn_NtCslJiobkLta79_5alloc3vecINtB5_3VecNtNtCsdGrGZaRBwMb_3syn8generics12GenericParamENtNtNtCsieiGu2EXtoJ_4core3ops4drop4Drop4dropCssR9xeAO3IU_12serde_derive, symObjAddr: 0xA5B0, symBinAddr: 0x2CEE0, symSize: 0x30 }
  - { offset: 0x4328A, size: 0x8, addend: 0x0, symName: __RNvXsn_NtCslJiobkLta79_5alloc3vecINtB5_3VecNtNtCsdGrGZaRBwMb_3syn8generics14WherePredicateENtNtNtCsieiGu2EXtoJ_4core3ops4drop4Drop4dropCssR9xeAO3IU_12serde_derive, symObjAddr: 0xA5E0, symBinAddr: 0x2CF10, symSize: 0x30 }
  - { offset: 0x4333A, size: 0x8, addend: 0x0, symName: __RNvXsn_NtCslJiobkLta79_5alloc3vecINtB5_3VecNtNtCssR9xeAO3IU_12serde_derive2de16FieldWithAliasesENtNtNtCsieiGu2EXtoJ_4core3ops4drop4Drop4dropBJ_, symObjAddr: 0xA610, symBinAddr: 0x2CF40, symSize: 0x30 }
  - { offset: 0x433EA, size: 0x8, addend: 0x0, symName: __RNvXsn_NtCslJiobkLta79_5alloc3vecINtB5_3VecNtNtNtCssR9xeAO3IU_12serde_derive9internals3ast5FieldENtNtNtCsieiGu2EXtoJ_4core3ops4drop4Drop4dropBL_, symObjAddr: 0xA640, symBinAddr: 0x2CF70, symSize: 0x30 }
  - { offset: 0x4349A, size: 0x8, addend: 0x0, symName: __RNvXsn_NtCslJiobkLta79_5alloc3vecINtB5_3VecNtNtNtCssR9xeAO3IU_12serde_derive9internals3ast7VariantENtNtNtCsieiGu2EXtoJ_4core3ops4drop4Drop4dropBL_, symObjAddr: 0xA670, symBinAddr: 0x2CFA0, symSize: 0x30 }
  - { offset: 0x4354A, size: 0x8, addend: 0x0, symName: __RNvXsn_NtCslJiobkLta79_5alloc3vecINtB5_3VecNtNtNtCssR9xeAO3IU_12serde_derive9internals4name4NameENtNtNtCsieiGu2EXtoJ_4core3ops4drop4Drop4dropBL_, symObjAddr: 0xA6A0, symBinAddr: 0x2CFD0, symSize: 0x30 }
  - { offset: 0x435FA, size: 0x8, addend: 0x0, symName: __RNvXsn_NtCslJiobkLta79_5alloc3vecINtB5_3VecRNtCsaKzlTDPUHDb_11proc_macro25IdentENtNtNtCsieiGu2EXtoJ_4core3ops4drop4Drop4dropCssR9xeAO3IU_12serde_derive, symObjAddr: 0xA6D0, symBinAddr: 0x2D000, symSize: 0x20 }
  - { offset: 0x436AA, size: 0x8, addend: 0x0, symName: __RNvXsn_NtCslJiobkLta79_5alloc3vecINtB5_3VecRNtNtCsdGrGZaRBwMb_3syn2ty4TypeENtNtNtCsieiGu2EXtoJ_4core3ops4drop4Drop4dropCssR9xeAO3IU_12serde_derive, symObjAddr: 0xA6F0, symBinAddr: 0x2D020, symSize: 0x20 }
  - { offset: 0x4375A, size: 0x8, addend: 0x0, symName: __RNvXsn_NtCslJiobkLta79_5alloc3vecINtB5_3VecRNtNtCsdGrGZaRBwMb_3syn2ty8TypePathENtNtNtCsieiGu2EXtoJ_4core3ops4drop4Drop4dropCssR9xeAO3IU_12serde_derive, symObjAddr: 0xA710, symBinAddr: 0x2D040, symSize: 0x20 }
  - { offset: 0x4380A, size: 0x8, addend: 0x0, symName: __RNvXsn_NtCslJiobkLta79_5alloc3vecINtB5_3VecRNtNtCsdGrGZaRBwMb_3syn4expr6MemberENtNtNtCsieiGu2EXtoJ_4core3ops4drop4Drop4dropCssR9xeAO3IU_12serde_derive, symObjAddr: 0xA730, symBinAddr: 0x2D060, symSize: 0x20 }
  - { offset: 0x438BA, size: 0x8, addend: 0x0, symName: __RNvXsn_NtCslJiobkLta79_5alloc3vecINtB5_3VecTRNtNtNtCssR9xeAO3IU_12serde_derive9internals3ast5FieldNtCsaKzlTDPUHDb_11proc_macro25IdentEENtNtNtCsieiGu2EXtoJ_4core3ops4drop4Drop4dropBN_, symObjAddr: 0xA750, symBinAddr: 0x2D080, symSize: 0x30 }
  - { offset: 0x492A3, size: 0x8, addend: 0x0, symName: __RINvMsi_NtCslJiobkLta79_5alloc3vecINtB6_3VecNtCsaKzlTDPUHDb_11proc_macro211TokenStreamE14extend_trustedINtNtNtNtCsieiGu2EXtoJ_4core4iter8adapters3map3MapINtNtB1I_9enumerate9EnumerateINtNtNtB1M_5slice4iter4IterNtNtNtCssR9xeAO3IU_12serde_derive9internals3ast7VariantEENCNvNtB3r_3ser14serialize_enum0EEB3r_, symObjAddr: 0x0, symBinAddr: 0x22930, symSize: 0x1D0 }
  - { offset: 0x49574, size: 0x8, addend: 0x0, symName: __RINvMsi_NtCslJiobkLta79_5alloc3vecINtB6_3VecNtCsaKzlTDPUHDb_11proc_macro211TokenStreamE14extend_trustedINtNtNtNtCsieiGu2EXtoJ_4core4iter8adapters3map3MapINtNtNtB1M_5slice4iter4IterNtNtNtCssR9xeAO3IU_12serde_derive9internals3ast5FieldENCNvNtB2Y_3ser27wrap_serialize_variant_withs_0EEB2Y_, symObjAddr: 0x1D0, symBinAddr: 0x22B00, symSize: 0x1A0 }
  - { offset: 0x49910, size: 0x8, addend: 0x0, symName: __RINvMsi_NtCslJiobkLta79_5alloc3vecINtB6_3VecNtCsaKzlTDPUHDb_11proc_macro211TokenStreamE16extend_desugaredINtNtNtNtCsieiGu2EXtoJ_4core4iter8adapters10filter_map9FilterMapINtNtB1K_6filter6FilterINtNtB1K_9enumerate9EnumerateINtNtNtB1O_5slice4iter4IterNtNtNtCssR9xeAO3IU_12serde_derive9internals3ast7VariantEENCNvNtNtB44_2de15enum_adjacently11deserializes0_0ENCB4V_s1_0EEB44_, symObjAddr: 0x370, symBinAddr: 0x22CA0, symSize: 0x280 }
  - { offset: 0x49D3E, size: 0x8, addend: 0x0, symName: __RINvMsi_NtCslJiobkLta79_5alloc3vecINtB6_3VecNtCsaKzlTDPUHDb_11proc_macro211TokenStreamE16extend_desugaredINtNtNtNtCsieiGu2EXtoJ_4core4iter8adapters10filter_map9FilterMapINtNtNtB1O_5slice4iter4IterNtNtNtCssR9xeAO3IU_12serde_derive9internals3ast7VariantENCNvNtB3e_7pretend24pretend_fields_used_enum0EEB3e_, symObjAddr: 0x5F0, symBinAddr: 0x22F20, symSize: 0x280 }
  - { offset: 0x4A16C, size: 0x8, addend: 0x0, symName: __RINvMsi_NtCslJiobkLta79_5alloc3vecINtB6_3VecNtCsaKzlTDPUHDb_11proc_macro211TokenStreamE16extend_desugaredINtNtNtNtCsieiGu2EXtoJ_4core4iter8adapters3map3MapINtNtB1K_6filter6FilterINtNtB1K_9enumerate9EnumerateINtNtNtB1O_5slice4iter4IterNtNtNtCssR9xeAO3IU_12serde_derive9internals3ast5FieldEENCNvNtB3Q_3ser30serialize_tuple_struct_visitor0ENCB4F_s_0EEB3Q_, symObjAddr: 0x870, symBinAddr: 0x231A0, symSize: 0x280 }
  - { offset: 0x4A58D, size: 0x8, addend: 0x0, symName: __RINvMsi_NtCslJiobkLta79_5alloc3vecINtB6_3VecNtCsaKzlTDPUHDb_11proc_macro211TokenStreamE16extend_desugaredINtNtNtNtCsieiGu2EXtoJ_4core4iter8adapters3map3MapINtNtB1K_6filter6FilterINtNtB1K_9enumerate9EnumerateINtNtNtB1O_5slice4iter4IterNtNtNtCssR9xeAO3IU_12serde_derive9internals3ast7VariantEENCNvNtNtB3Q_2de15enum_adjacently11deserialize0ENCB4H_s_0EEB3Q_, symObjAddr: 0xAF0, symBinAddr: 0x23420, symSize: 0x280 }
  - { offset: 0x4A9AE, size: 0x8, addend: 0x0, symName: __RINvMsi_NtCslJiobkLta79_5alloc3vecINtB6_3VecNtCsaKzlTDPUHDb_11proc_macro211TokenStreamE16extend_desugaredINtNtNtNtCsieiGu2EXtoJ_4core4iter8adapters3map3MapINtNtB1K_6filter6FilterINtNtNtB1O_5slice4iter4IterNtNtNtCssR9xeAO3IU_12serde_derive9internals3ast5FieldENCNvNtB3n_3ser24serialize_struct_visitor0ENCB4b_s_0EEB3n_, symObjAddr: 0xD70, symBinAddr: 0x236A0, symSize: 0x280 }
  - { offset: 0x4AD5F, size: 0x8, addend: 0x0, symName: __RINvMsi_NtCslJiobkLta79_5alloc3vecINtB6_3VecNtCsaKzlTDPUHDb_11proc_macro25IdentE14extend_trustedINtNtNtNtCsieiGu2EXtoJ_4core4iter8adapters3map3MapINtNtNtB1F_3ops5range5RangejENCNCNvNtCssR9xeAO3IU_12serde_derive7pretend21pretend_variants_used00EEB2V_, symObjAddr: 0xFF0, symBinAddr: 0x23920, symSize: 0x1A0 }
  - { offset: 0x4B04A, size: 0x8, addend: 0x0, symName: __RINvMsi_NtCslJiobkLta79_5alloc3vecINtB6_3VecNtNtCsdGrGZaRBwMb_3syn4expr6MemberE14extend_trustedINtNtNtNtCsieiGu2EXtoJ_4core4iter8adapters3map3MapINtNtNtB1E_3ops5range5RangejENCNvNtCssR9xeAO3IU_12serde_derive3ser35serialize_adjacently_tagged_variants_0EEB2S_, symObjAddr: 0x1190, symBinAddr: 0x23AC0, symSize: 0x1A0 }
  - { offset: 0x4B301, size: 0x8, addend: 0x0, symName: __RINvMsi_NtCslJiobkLta79_5alloc3vecINtB6_3VecNtNtCsdGrGZaRBwMb_3syn4expr6MemberE14extend_trustedINtNtNtNtCsieiGu2EXtoJ_4core4iter8adapters3map3MapINtNtNtB1E_5slice4iter4IterNtNtNtCssR9xeAO3IU_12serde_derive9internals3ast5FieldENCNvNtB2Q_3ser35serialize_adjacently_tagged_variants0_0EEB2Q_, symObjAddr: 0x1330, symBinAddr: 0x23C60, symSize: 0x1A0 }
  - { offset: 0x4B690, size: 0x8, addend: 0x0, symName: __RINvMsi_NtCslJiobkLta79_5alloc3vecINtB6_3VecNtNtCsdGrGZaRBwMb_3syn8generics14WherePredicateE16extend_desugaredINtNtBK_10punctuated8IntoIterBG_EECssR9xeAO3IU_12serde_derive, symObjAddr: 0x14D0, symBinAddr: 0x23E00, symSize: 0x250 }
  - { offset: 0x4BA4E, size: 0x8, addend: 0x0, symName: __RINvMsi_NtCslJiobkLta79_5alloc3vecINtB6_3VecNtNtCssR9xeAO3IU_12serde_derive2de16FieldWithAliasesE14extend_trustedINtNtNtNtCsieiGu2EXtoJ_4core4iter8adapters3map3MapINtNtNtB1W_5slice4iter4IterNtNtNtBK_9internals3ast7VariantENCNvNtBI_10identifier18deserialize_customs_0EEBK_, symObjAddr: 0x1720, symBinAddr: 0x24050, symSize: 0x1A0 }
  - { offset: 0x4BDA9, size: 0x8, addend: 0x0, symName: __RINvMsi_NtCslJiobkLta79_5alloc3vecINtB6_3VecNtNtCssR9xeAO3IU_12serde_derive2de16FieldWithAliasesE16extend_desugaredINtNtNtNtCsieiGu2EXtoJ_4core4iter8adapters3map3MapINtNtB1U_6filter6FilterINtNtB1U_9enumerate9EnumerateINtNtNtB1Y_5slice4iter4IterNtNtNtBK_9internals3ast5FieldEENCNvNtBI_7struct_11deserialize0ENCB4r_s_0EEBK_, symObjAddr: 0x18C0, symBinAddr: 0x241F0, symSize: 0x270 }
  - { offset: 0x4C1BD, size: 0x8, addend: 0x0, symName: __RINvMsi_NtCslJiobkLta79_5alloc3vecINtB6_3VecNtNtCssR9xeAO3IU_12serde_derive2de16FieldWithAliasesE16extend_desugaredINtNtNtNtCsieiGu2EXtoJ_4core4iter8adapters3map3MapINtNtB1U_6filter6FilterINtNtB1U_9enumerate9EnumerateINtNtNtB1Y_5slice4iter4IterNtNtNtBK_9internals3ast7VariantEENCNvNtBI_5enum_25prepare_enum_variant_enum0ENCB4t_s2_0EEBK_, symObjAddr: 0x1B30, symBinAddr: 0x24460, symSize: 0x270 }
  - { offset: 0x4C6A9, size: 0x8, addend: 0x0, symName: __RINvMsi_NtCslJiobkLta79_5alloc3vecINtB6_3VecNtNtNtCssR9xeAO3IU_12serde_derive9internals3ast5FieldE16extend_desugaredINtNtNtNtCsieiGu2EXtoJ_4core4iter8adapters3map3MapINtNtB1V_9enumerate9EnumerateINtNtCsdGrGZaRBwMb_3syn10punctuated4IterNtNtB3c_4data5FieldEENCNvBI_15fields_from_ast0EEBM_, symObjAddr: 0x1DA0, symBinAddr: 0x246D0, symSize: 0x250 }
  - { offset: 0x4CB1F, size: 0x8, addend: 0x0, symName: __RINvMsi_NtCslJiobkLta79_5alloc3vecINtB6_3VecNtNtNtCssR9xeAO3IU_12serde_derive9internals3ast7VariantE16extend_desugaredINtNtNtNtCsieiGu2EXtoJ_4core4iter8adapters3map3MapINtNtCsdGrGZaRBwMb_3syn10punctuated4IterNtNtB2L_4data7VariantENCNvBI_13enum_from_ast0EEBM_, symObjAddr: 0x1FF0, symBinAddr: 0x24920, symSize: 0x250 }
  - { offset: 0x4CEDD, size: 0x8, addend: 0x0, symName: __RINvMsi_NtCslJiobkLta79_5alloc3vecINtB6_3VecRNtCsaKzlTDPUHDb_11proc_macro25IdentE14extend_trustedINtNtNtNtCsieiGu2EXtoJ_4core4iter8adapters3map3MapINtNtNtB1G_5slice4iter4IterNtNtCssR9xeAO3IU_12serde_derive2de16FieldWithAliasesENCNvNtB2O_10identifier21deserialize_generated0EEB2Q_, symObjAddr: 0x2240, symBinAddr: 0x24B70, symSize: 0x1A0 }
  - { offset: 0x4D1C8, size: 0x8, addend: 0x0, symName: __RINvMsi_NtCslJiobkLta79_5alloc3vecINtB6_3VecRNtNtCsdGrGZaRBwMb_3syn2ty4TypeE14extend_trustedINtNtNtNtCsieiGu2EXtoJ_4core4iter8adapters3map3MapINtNtNtB1B_5slice4iter4IterNtNtNtCssR9xeAO3IU_12serde_derive9internals3ast5FieldENCNvNtB2N_3ser27wrap_serialize_variant_with0EEB2N_, symObjAddr: 0x23E0, symBinAddr: 0x24D10, symSize: 0x1A0 }
  - { offset: 0x4D4C0, size: 0x8, addend: 0x0, symName: __RINvMsi_NtCslJiobkLta79_5alloc3vecINtB6_3VecRNtNtCsdGrGZaRBwMb_3syn4expr6MemberE14extend_trustedINtNtNtNtCsieiGu2EXtoJ_4core4iter8adapters3map3MapINtNtNtB1F_5slice4iter4IterNtNtNtCssR9xeAO3IU_12serde_derive9internals3ast5FieldENCNvNtB2R_3ser37serialize_struct_variant_with_flattens0_0EEB2R_, symObjAddr: 0x2580, symBinAddr: 0x24EB0, symSize: 0x1A0 }
  - { offset: 0x4D777, size: 0x8, addend: 0x0, symName: __RINvMsi_NtCslJiobkLta79_5alloc3vecINtB6_3VecRNtNtCsdGrGZaRBwMb_3syn4expr6MemberE14extend_trustedINtNtNtNtCsieiGu2EXtoJ_4core4iter8adapters3map3MapINtNtNtB1F_5slice4iter4IterNtNtNtCssR9xeAO3IU_12serde_derive9internals3ast5FieldENCNvNtB2R_7pretend33pretend_fields_used_struct_packed0EEB2R_, symObjAddr: 0x2720, symBinAddr: 0x25050, symSize: 0x1A0 }
  - { offset: 0x4DA80, size: 0x8, addend: 0x0, symName: __RINvMsi_NtCslJiobkLta79_5alloc3vecINtB6_3VecTRNtNtNtCssR9xeAO3IU_12serde_derive9internals3ast5FieldNtCsaKzlTDPUHDb_11proc_macro25IdentEE14extend_trustedINtNtNtNtCsieiGu2EXtoJ_4core4iter8adapters3map3MapINtNtB2v_9enumerate9EnumerateINtNtNtB2z_5slice4iter4IterBI_EENCNvNtNtBO_2de7struct_15deserialize_map0EEBO_, symObjAddr: 0x28C0, symBinAddr: 0x251F0, symSize: 0x1B0 }
  - { offset: 0x4DD6B, size: 0x8, addend: 0x0, symName: __RINvMsi_NtCslJiobkLta79_5alloc3vecINtB6_3VechE14extend_trustedINtNtNtNtCsieiGu2EXtoJ_4core4iter8adapters3map3MapINtNtNtB17_5slice4iter4IterhENCNvNtB8_3str13replace_ascii0EECssR9xeAO3IU_12serde_derive, symObjAddr: 0x2A70, symBinAddr: 0x253A0, symSize: 0x1C0 }
  - { offset: 0x4DFF7, size: 0x8, addend: 0x0, symName: __RNvMNtCslJiobkLta79_5alloc3vecINtB2_3VecIBt_NtNtCsdGrGZaRBwMb_3syn8generics14WherePredicateEE3newCssR9xeAO3IU_12serde_derive, symObjAddr: 0x35C0, symBinAddr: 0x25EF0, symSize: 0x30 }
  - { offset: 0x4E014, size: 0x8, addend: 0x0, symName: __RNvMNtCslJiobkLta79_5alloc3vecINtB2_3VecNtNtCsdGrGZaRBwMb_3syn3lit6LitStrE3newCssR9xeAO3IU_12serde_derive, symObjAddr: 0x35F0, symBinAddr: 0x25F20, symSize: 0x30 }
  - { offset: 0x4E031, size: 0x8, addend: 0x0, symName: __RNvMNtCslJiobkLta79_5alloc3vecINtB2_3VecNtNtCsdGrGZaRBwMb_3syn4expr6MemberE3newCssR9xeAO3IU_12serde_derive, symObjAddr: 0x3620, symBinAddr: 0x25F50, symSize: 0x30 }
  - { offset: 0x4E04E, size: 0x8, addend: 0x0, symName: __RNvMNtCslJiobkLta79_5alloc3vecINtB2_3VecNtNtCsdGrGZaRBwMb_3syn5error5ErrorE3newCssR9xeAO3IU_12serde_derive, symObjAddr: 0x3650, symBinAddr: 0x25F80, symSize: 0x30 }
  - { offset: 0x4E0CD, size: 0x8, addend: 0x0, symName: __RNvMNtCslJiobkLta79_5alloc3vecINtB2_3VecNtNtCsdGrGZaRBwMb_3syn8generics12GenericParamE13with_capacityCssR9xeAO3IU_12serde_derive, symObjAddr: 0x3680, symBinAddr: 0x25FB0, symSize: 0x60 }
  - { offset: 0x4E1A7, size: 0x8, addend: 0x0, symName: __RNvMNtCslJiobkLta79_5alloc3vecINtB2_3VecNtNtCsdGrGZaRBwMb_3syn8generics14WherePredicateE13with_capacityCssR9xeAO3IU_12serde_derive, symObjAddr: 0x36E0, symBinAddr: 0x26010, symSize: 0x60 }
  - { offset: 0x4E21F, size: 0x8, addend: 0x0, symName: __RNvMNtCslJiobkLta79_5alloc3vecINtB2_3VecNtNtCsdGrGZaRBwMb_3syn8generics14WherePredicateE3newCssR9xeAO3IU_12serde_derive, symObjAddr: 0x3740, symBinAddr: 0x26070, symSize: 0x30 }
  - { offset: 0x4E23C, size: 0x8, addend: 0x0, symName: __RNvMNtCslJiobkLta79_5alloc3vecINtB2_3VecNtNtNtCssR9xeAO3IU_12serde_derive9internals3ast5FieldE3newBI_, symObjAddr: 0x3770, symBinAddr: 0x260A0, symSize: 0x30 }
  - { offset: 0x4E259, size: 0x8, addend: 0x0, symName: __RNvMNtCslJiobkLta79_5alloc3vecINtB2_3VecNtNtNtCssR9xeAO3IU_12serde_derive9internals4name4NameE3newBI_, symObjAddr: 0x37A0, symBinAddr: 0x260D0, symSize: 0x30 }
  - { offset: 0x4E283, size: 0x8, addend: 0x0, symName: __RNvMNtCslJiobkLta79_5alloc3vecINtB2_3VecRNtNtCsdGrGZaRBwMb_3syn2ty8TypePathE3newCssR9xeAO3IU_12serde_derive, symObjAddr: 0x37D0, symBinAddr: 0x26100, symSize: 0x30 }
  - { offset: 0x4E2AD, size: 0x8, addend: 0x0, symName: __RNvMs_NtCslJiobkLta79_5alloc3vecINtB4_3VecIBv_NtNtCsdGrGZaRBwMb_3syn8generics14WherePredicateEE3lenCssR9xeAO3IU_12serde_derive, symObjAddr: 0x3800, symBinAddr: 0x26130, symSize: 0x10 }
  - { offset: 0x4E42F, size: 0x8, addend: 0x0, symName: __RNvMs_NtCslJiobkLta79_5alloc3vecINtB4_3VecIBv_NtNtCsdGrGZaRBwMb_3syn8generics14WherePredicateEE3popCssR9xeAO3IU_12serde_derive, symObjAddr: 0x3810, symBinAddr: 0x26140, symSize: 0x110 }
  - { offset: 0x4E5C4, size: 0x8, addend: 0x0, symName: __RNvMs_NtCslJiobkLta79_5alloc3vecINtB4_3VecIBv_NtNtCsdGrGZaRBwMb_3syn8generics14WherePredicateEE4pushCssR9xeAO3IU_12serde_derive, symObjAddr: 0x3920, symBinAddr: 0x26250, symSize: 0x20 }
  - { offset: 0x4E6E8, size: 0x8, addend: 0x0, symName: __RNvMs_NtCslJiobkLta79_5alloc3vecINtB4_3VecIBv_NtNtCsdGrGZaRBwMb_3syn8generics14WherePredicateEE8push_mutCssR9xeAO3IU_12serde_derive, symObjAddr: 0x3940, symBinAddr: 0x26270, symSize: 0x110 }
  - { offset: 0x4E89D, size: 0x8, addend: 0x0, symName: __RNvMs_NtCslJiobkLta79_5alloc3vecINtB4_3VecNtCsaKzlTDPUHDb_11proc_macro211TokenStreamE4pushCssR9xeAO3IU_12serde_derive, symObjAddr: 0x3A50, symBinAddr: 0x26380, symSize: 0x20 }
  - { offset: 0x4EA12, size: 0x8, addend: 0x0, symName: __RNvMs_NtCslJiobkLta79_5alloc3vecINtB4_3VecNtCsaKzlTDPUHDb_11proc_macro211TokenStreamE7reserveCssR9xeAO3IU_12serde_derive, symObjAddr: 0x3A70, symBinAddr: 0x263A0, symSize: 0xB0 }
  - { offset: 0x4EC16, size: 0x8, addend: 0x0, symName: __RNvMs_NtCslJiobkLta79_5alloc3vecINtB4_3VecNtCsaKzlTDPUHDb_11proc_macro211TokenStreamE8as_sliceCssR9xeAO3IU_12serde_derive, symObjAddr: 0x3B20, symBinAddr: 0x26450, symSize: 0x50 }
  - { offset: 0x4ECF5, size: 0x8, addend: 0x0, symName: __RNvMs_NtCslJiobkLta79_5alloc3vecINtB4_3VecNtCsaKzlTDPUHDb_11proc_macro211TokenStreamE8is_emptyCssR9xeAO3IU_12serde_derive, symObjAddr: 0x3B70, symBinAddr: 0x264A0, symSize: 0x20 }
  - { offset: 0x4EE27, size: 0x8, addend: 0x0, symName: __RNvMs_NtCslJiobkLta79_5alloc3vecINtB4_3VecNtCsaKzlTDPUHDb_11proc_macro211TokenStreamE8push_mutCssR9xeAO3IU_12serde_derive, symObjAddr: 0x3B90, symBinAddr: 0x264C0, symSize: 0x120 }
  - { offset: 0x4F0F2, size: 0x8, addend: 0x0, symName: __RNvMs_NtCslJiobkLta79_5alloc3vecINtB4_3VecNtCsaKzlTDPUHDb_11proc_macro25IdentE7reserveCssR9xeAO3IU_12serde_derive, symObjAddr: 0x3CB0, symBinAddr: 0x265E0, symSize: 0xB0 }
  - { offset: 0x4F303, size: 0x8, addend: 0x0, symName: __RNvMs_NtCslJiobkLta79_5alloc3vecINtB4_3VecNtCsaKzlTDPUHDb_11proc_macro25IdentE8as_sliceCssR9xeAO3IU_12serde_derive, symObjAddr: 0x3D60, symBinAddr: 0x26690, symSize: 0x50 }
  - { offset: 0x4F3CA, size: 0x8, addend: 0x0, symName: __RNvMs_NtCslJiobkLta79_5alloc3vecINtB4_3VecNtNtCsdGrGZaRBwMb_3syn3lit6LitStrE3lenCssR9xeAO3IU_12serde_derive, symObjAddr: 0x3DB0, symBinAddr: 0x266E0, symSize: 0x10 }
  - { offset: 0x4F54C, size: 0x8, addend: 0x0, symName: __RNvMs_NtCslJiobkLta79_5alloc3vecINtB4_3VecNtNtCsdGrGZaRBwMb_3syn3lit6LitStrE3popCssR9xeAO3IU_12serde_derive, symObjAddr: 0x3DC0, symBinAddr: 0x266F0, symSize: 0xC0 }
  - { offset: 0x4F6E1, size: 0x8, addend: 0x0, symName: __RNvMs_NtCslJiobkLta79_5alloc3vecINtB4_3VecNtNtCsdGrGZaRBwMb_3syn3lit6LitStrE4pushCssR9xeAO3IU_12serde_derive, symObjAddr: 0x3E80, symBinAddr: 0x267B0, symSize: 0x20 }
  - { offset: 0x4F811, size: 0x8, addend: 0x0, symName: __RNvMs_NtCslJiobkLta79_5alloc3vecINtB4_3VecNtNtCsdGrGZaRBwMb_3syn3lit6LitStrE8push_mutCssR9xeAO3IU_12serde_derive, symObjAddr: 0x3EA0, symBinAddr: 0x267D0, symSize: 0xD0 }
  - { offset: 0x4FA9A, size: 0x8, addend: 0x0, symName: __RNvMs_NtCslJiobkLta79_5alloc3vecINtB4_3VecNtNtCsdGrGZaRBwMb_3syn4expr6MemberE17from_raw_parts_inCssR9xeAO3IU_12serde_derive, symObjAddr: 0x3F70, symBinAddr: 0x268A0, symSize: 0xA0 }
  - { offset: 0x4FD37, size: 0x8, addend: 0x0, symName: __RNvMs_NtCslJiobkLta79_5alloc3vecINtB4_3VecNtNtCsdGrGZaRBwMb_3syn4expr6MemberE7reserveCssR9xeAO3IU_12serde_derive, symObjAddr: 0x4010, symBinAddr: 0x26940, symSize: 0xB0 }
  - { offset: 0x4FF48, size: 0x8, addend: 0x0, symName: __RNvMs_NtCslJiobkLta79_5alloc3vecINtB4_3VecNtNtCsdGrGZaRBwMb_3syn4expr6MemberE8as_sliceCssR9xeAO3IU_12serde_derive, symObjAddr: 0x40C0, symBinAddr: 0x269F0, symSize: 0x50 }
  - { offset: 0x500E3, size: 0x8, addend: 0x0, symName: __RNvMs_NtCslJiobkLta79_5alloc3vecINtB4_3VecNtNtCsdGrGZaRBwMb_3syn4path11PathSegmentE17from_raw_parts_inCssR9xeAO3IU_12serde_derive, symObjAddr: 0x4110, symBinAddr: 0x26A40, symSize: 0xA0 }
  - { offset: 0x50277, size: 0x8, addend: 0x0, symName: __RNvMs_NtCslJiobkLta79_5alloc3vecINtB4_3VecNtNtCsdGrGZaRBwMb_3syn5error5ErrorE4pushCssR9xeAO3IU_12serde_derive, symObjAddr: 0x41B0, symBinAddr: 0x26AE0, symSize: 0x20 }
  - { offset: 0x503CF, size: 0x8, addend: 0x0, symName: __RNvMs_NtCslJiobkLta79_5alloc3vecINtB4_3VecNtNtCsdGrGZaRBwMb_3syn5error5ErrorE8push_mutCssR9xeAO3IU_12serde_derive, symObjAddr: 0x41D0, symBinAddr: 0x26B00, symSize: 0x110 }
  - { offset: 0x50591, size: 0x8, addend: 0x0, symName: __RNvMs_NtCslJiobkLta79_5alloc3vecINtB4_3VecNtNtCsdGrGZaRBwMb_3syn8generics12GenericParamE4pushCssR9xeAO3IU_12serde_derive, symObjAddr: 0x42E0, symBinAddr: 0x26C10, symSize: 0x20 }
  - { offset: 0x506E9, size: 0x8, addend: 0x0, symName: __RNvMs_NtCslJiobkLta79_5alloc3vecINtB4_3VecNtNtCsdGrGZaRBwMb_3syn8generics12GenericParamE8push_mutCssR9xeAO3IU_12serde_derive, symObjAddr: 0x4300, symBinAddr: 0x26C30, symSize: 0x140 }
  - { offset: 0x5097F, size: 0x8, addend: 0x0, symName: __RNvMs_NtCslJiobkLta79_5alloc3vecINtB4_3VecNtNtCsdGrGZaRBwMb_3syn8generics14TypeParamBoundE17from_raw_parts_inCssR9xeAO3IU_12serde_derive, symObjAddr: 0x4440, symBinAddr: 0x26D70, symSize: 0xA0 }
  - { offset: 0x50B06, size: 0x8, addend: 0x0, symName: __RNvMs_NtCslJiobkLta79_5alloc3vecINtB4_3VecNtNtCsdGrGZaRBwMb_3syn8generics14WherePredicateE4pushCssR9xeAO3IU_12serde_derive, symObjAddr: 0x44E0, symBinAddr: 0x26E10, symSize: 0x20 }
  - { offset: 0x50C61, size: 0x8, addend: 0x0, symName: __RNvMs_NtCslJiobkLta79_5alloc3vecINtB4_3VecNtNtCsdGrGZaRBwMb_3syn8generics14WherePredicateE7reserveCssR9xeAO3IU_12serde_derive, symObjAddr: 0x4500, symBinAddr: 0x26E30, symSize: 0xB0 }
  - { offset: 0x50E52, size: 0x8, addend: 0x0, symName: __RNvMs_NtCslJiobkLta79_5alloc3vecINtB4_3VecNtNtCsdGrGZaRBwMb_3syn8generics14WherePredicateE7set_lenCssR9xeAO3IU_12serde_derive, symObjAddr: 0x45B0, symBinAddr: 0x26EE0, symSize: 0x70 }
  - { offset: 0x51017, size: 0x8, addend: 0x0, symName: __RNvMs_NtCslJiobkLta79_5alloc3vecINtB4_3VecNtNtCsdGrGZaRBwMb_3syn8generics14WherePredicateE8push_mutCssR9xeAO3IU_12serde_derive, symObjAddr: 0x4620, symBinAddr: 0x26F50, symSize: 0x140 }
  - { offset: 0x512E2, size: 0x8, addend: 0x0, symName: __RNvMs_NtCslJiobkLta79_5alloc3vecINtB4_3VecNtNtCssR9xeAO3IU_12serde_derive2de16FieldWithAliasesE7reserveBI_, symObjAddr: 0x4760, symBinAddr: 0x27090, symSize: 0xB0 }
  - { offset: 0x514E6, size: 0x8, addend: 0x0, symName: __RNvMs_NtCslJiobkLta79_5alloc3vecINtB4_3VecNtNtCssR9xeAO3IU_12serde_derive2de16FieldWithAliasesE8as_sliceBI_, symObjAddr: 0x4810, symBinAddr: 0x27140, symSize: 0x50 }
  - { offset: 0x515C5, size: 0x8, addend: 0x0, symName: __RNvMs_NtCslJiobkLta79_5alloc3vecINtB4_3VecNtNtCssR9xeAO3IU_12serde_derive2de16FieldWithAliasesE8is_emptyBI_, symObjAddr: 0x4860, symBinAddr: 0x27190, symSize: 0x20 }
  - { offset: 0x51618, size: 0x8, addend: 0x0, symName: __RNvMs_NtCslJiobkLta79_5alloc3vecINtB4_3VecNtNtNtCssR9xeAO3IU_12serde_derive9internals3ast5FieldE3lenBK_, symObjAddr: 0x4880, symBinAddr: 0x271B0, symSize: 0x10 }
  - { offset: 0x51763, size: 0x8, addend: 0x0, symName: __RNvMs_NtCslJiobkLta79_5alloc3vecINtB4_3VecNtNtNtCssR9xeAO3IU_12serde_derive9internals3ast5FieldE7reserveBK_, symObjAddr: 0x4890, symBinAddr: 0x271C0, symSize: 0xB0 }
  - { offset: 0x51967, size: 0x8, addend: 0x0, symName: __RNvMs_NtCslJiobkLta79_5alloc3vecINtB4_3VecNtNtNtCssR9xeAO3IU_12serde_derive9internals3ast5FieldE8as_sliceBK_, symObjAddr: 0x4940, symBinAddr: 0x27270, symSize: 0x50 }
  - { offset: 0x51A21, size: 0x8, addend: 0x0, symName: __RNvMs_NtCslJiobkLta79_5alloc3vecINtB4_3VecNtNtNtCssR9xeAO3IU_12serde_derive9internals3ast7VariantE3lenBK_, symObjAddr: 0x4990, symBinAddr: 0x272C0, symSize: 0x10 }
  - { offset: 0x51B6C, size: 0x8, addend: 0x0, symName: __RNvMs_NtCslJiobkLta79_5alloc3vecINtB4_3VecNtNtNtCssR9xeAO3IU_12serde_derive9internals3ast7VariantE7reserveBK_, symObjAddr: 0x49A0, symBinAddr: 0x272D0, symSize: 0xB0 }
  - { offset: 0x51D70, size: 0x8, addend: 0x0, symName: __RNvMs_NtCslJiobkLta79_5alloc3vecINtB4_3VecNtNtNtCssR9xeAO3IU_12serde_derive9internals3ast7VariantE8as_sliceBK_, symObjAddr: 0x4A50, symBinAddr: 0x27380, symSize: 0x50 }
  - { offset: 0x51E37, size: 0x8, addend: 0x0, symName: __RNvMs_NtCslJiobkLta79_5alloc3vecINtB4_3VecNtNtNtCssR9xeAO3IU_12serde_derive9internals4name4NameE3lenBK_, symObjAddr: 0x4AA0, symBinAddr: 0x273D0, symSize: 0x10 }
  - { offset: 0x51E79, size: 0x8, addend: 0x0, symName: __RNvMs_NtCslJiobkLta79_5alloc3vecINtB4_3VecNtNtNtCssR9xeAO3IU_12serde_derive9internals4name4NameE4pushBK_, symObjAddr: 0x4AB0, symBinAddr: 0x273E0, symSize: 0x20 }
  - { offset: 0x51FD1, size: 0x8, addend: 0x0, symName: __RNvMs_NtCslJiobkLta79_5alloc3vecINtB4_3VecNtNtNtCssR9xeAO3IU_12serde_derive9internals4name4NameE8push_mutBK_, symObjAddr: 0x4AD0, symBinAddr: 0x27400, symSize: 0x120 }
  - { offset: 0x5229C, size: 0x8, addend: 0x0, symName: __RNvMs_NtCslJiobkLta79_5alloc3vecINtB4_3VecRNtCsaKzlTDPUHDb_11proc_macro25IdentE7reserveCssR9xeAO3IU_12serde_derive, symObjAddr: 0x4BF0, symBinAddr: 0x27520, symSize: 0xB0 }
  - { offset: 0x524AD, size: 0x8, addend: 0x0, symName: __RNvMs_NtCslJiobkLta79_5alloc3vecINtB4_3VecRNtCsaKzlTDPUHDb_11proc_macro25IdentE8as_sliceCssR9xeAO3IU_12serde_derive, symObjAddr: 0x4CA0, symBinAddr: 0x275D0, symSize: 0x50 }
  - { offset: 0x5267D, size: 0x8, addend: 0x0, symName: __RNvMs_NtCslJiobkLta79_5alloc3vecINtB4_3VecRNtNtCsdGrGZaRBwMb_3syn2ty4TypeE7reserveCssR9xeAO3IU_12serde_derive, symObjAddr: 0x4CF0, symBinAddr: 0x27620, symSize: 0xB0 }
  - { offset: 0x5288E, size: 0x8, addend: 0x0, symName: __RNvMs_NtCslJiobkLta79_5alloc3vecINtB4_3VecRNtNtCsdGrGZaRBwMb_3syn2ty4TypeE8as_sliceCssR9xeAO3IU_12serde_derive, symObjAddr: 0x4DA0, symBinAddr: 0x276D0, symSize: 0x50 }
  - { offset: 0x52955, size: 0x8, addend: 0x0, symName: __RNvMs_NtCslJiobkLta79_5alloc3vecINtB4_3VecRNtNtCsdGrGZaRBwMb_3syn2ty8TypePathE4pushCssR9xeAO3IU_12serde_derive, symObjAddr: 0x4DF0, symBinAddr: 0x27720, symSize: 0x20 }
  - { offset: 0x52AAC, size: 0x8, addend: 0x0, symName: __RNvMs_NtCslJiobkLta79_5alloc3vecINtB4_3VecRNtNtCsdGrGZaRBwMb_3syn2ty8TypePathE8push_mutCssR9xeAO3IU_12serde_derive, symObjAddr: 0x4E10, symBinAddr: 0x27740, symSize: 0xD0 }
  - { offset: 0x52D77, size: 0x8, addend: 0x0, symName: __RNvMs_NtCslJiobkLta79_5alloc3vecINtB4_3VecRNtNtCsdGrGZaRBwMb_3syn4expr6MemberE7reserveCssR9xeAO3IU_12serde_derive, symObjAddr: 0x4EE0, symBinAddr: 0x27810, symSize: 0xB0 }
  - { offset: 0x52F88, size: 0x8, addend: 0x0, symName: __RNvMs_NtCslJiobkLta79_5alloc3vecINtB4_3VecRNtNtCsdGrGZaRBwMb_3syn4expr6MemberE8as_sliceCssR9xeAO3IU_12serde_derive, symObjAddr: 0x4F90, symBinAddr: 0x278C0, symSize: 0x50 }
  - { offset: 0x5311D, size: 0x8, addend: 0x0, symName: __RNvMs_NtCslJiobkLta79_5alloc3vecINtB4_3VecTNtNtCsdGrGZaRBwMb_3syn2ty4TypeNtNtBJ_5token5CommaEE12as_mut_sliceCssR9xeAO3IU_12serde_derive, symObjAddr: 0x4FE0, symBinAddr: 0x27910, symSize: 0x50 }
  - { offset: 0x532C7, size: 0x8, addend: 0x0, symName: __RNvMs_NtCslJiobkLta79_5alloc3vecINtB4_3VecTNtNtCsdGrGZaRBwMb_3syn2ty9BareFnArgNtNtBJ_5token5CommaEE12as_mut_sliceCssR9xeAO3IU_12serde_derive, symObjAddr: 0x5030, symBinAddr: 0x27960, symSize: 0x50 }
  - { offset: 0x53471, size: 0x8, addend: 0x0, symName: __RNvMs_NtCslJiobkLta79_5alloc3vecINtB4_3VecTNtNtCsdGrGZaRBwMb_3syn4data7VariantNtNtBJ_5token5CommaEE12as_mut_sliceCssR9xeAO3IU_12serde_derive, symObjAddr: 0x5080, symBinAddr: 0x279B0, symSize: 0x50 }
  - { offset: 0x5361B, size: 0x8, addend: 0x0, symName: __RNvMs_NtCslJiobkLta79_5alloc3vecINtB4_3VecTNtNtCsdGrGZaRBwMb_3syn4expr4ExprNtNtBJ_5token5CommaEE12as_mut_sliceCssR9xeAO3IU_12serde_derive, symObjAddr: 0x50D0, symBinAddr: 0x27A00, symSize: 0x50 }
  - { offset: 0x537C5, size: 0x8, addend: 0x0, symName: __RNvMs_NtCslJiobkLta79_5alloc3vecINtB4_3VecTNtNtCsdGrGZaRBwMb_3syn4path15GenericArgumentNtNtBJ_5token5CommaEE12as_mut_sliceCssR9xeAO3IU_12serde_derive, symObjAddr: 0x5120, symBinAddr: 0x27A50, symSize: 0x50 }
  - { offset: 0x5396F, size: 0x8, addend: 0x0, symName: __RNvMs_NtCslJiobkLta79_5alloc3vecINtB4_3VecTNtNtCsdGrGZaRBwMb_3syn8generics14TypeParamBoundNtNtBJ_5token4PlusEE12as_mut_sliceCssR9xeAO3IU_12serde_derive, symObjAddr: 0x5170, symBinAddr: 0x27AA0, symSize: 0x50 }
  - { offset: 0x53B19, size: 0x8, addend: 0x0, symName: __RNvMs_NtCslJiobkLta79_5alloc3vecINtB4_3VecTNtNtCsdGrGZaRBwMb_3syn8generics14WherePredicateNtNtBJ_5token5CommaEE12as_mut_sliceCssR9xeAO3IU_12serde_derive, symObjAddr: 0x51C0, symBinAddr: 0x27AF0, symSize: 0x50 }
  - { offset: 0x53CFE, size: 0x8, addend: 0x0, symName: __RNvMs_NtCslJiobkLta79_5alloc3vecINtB4_3VecTRNtNtNtCssR9xeAO3IU_12serde_derive9internals3ast5FieldNtCsaKzlTDPUHDb_11proc_macro25IdentEE7reserveBM_, symObjAddr: 0x5210, symBinAddr: 0x27B40, symSize: 0xB0 }
  - { offset: 0x53F0F, size: 0x8, addend: 0x0, symName: __RNvMs_NtCslJiobkLta79_5alloc3vecINtB4_3VecTRNtNtNtCssR9xeAO3IU_12serde_derive9internals3ast5FieldNtCsaKzlTDPUHDb_11proc_macro25IdentEE8as_sliceBM_, symObjAddr: 0x52C0, symBinAddr: 0x27BF0, symSize: 0x50 }
  - { offset: 0x551A9, size: 0x8, addend: 0x0, symName: __RNvXs4_NtNtCs9OU1sGv5X54_5quote9___private3extINtNtCslJiobkLta79_5alloc3vec3VecNtCsaKzlTDPUHDb_11proc_macro211TokenStreamENtB5_16RepAsIteratorExt15quote_into_iterCssR9xeAO3IU_12serde_derive, symObjAddr: 0x7BA0, symBinAddr: 0x2A4D0, symSize: 0x30 }
  - { offset: 0x551DE, size: 0x8, addend: 0x0, symName: __RNvXs4_NtNtCs9OU1sGv5X54_5quote9___private3extINtNtCslJiobkLta79_5alloc3vec3VecNtCsaKzlTDPUHDb_11proc_macro25IdentENtB5_16RepAsIteratorExt15quote_into_iterCssR9xeAO3IU_12serde_derive, symObjAddr: 0x7BD0, symBinAddr: 0x2A500, symSize: 0x30 }
  - { offset: 0x55213, size: 0x8, addend: 0x0, symName: __RNvXs4_NtNtCs9OU1sGv5X54_5quote9___private3extINtNtCslJiobkLta79_5alloc3vec3VecRNtCsaKzlTDPUHDb_11proc_macro25IdentENtB5_16RepAsIteratorExt15quote_into_iterCssR9xeAO3IU_12serde_derive, symObjAddr: 0x7C00, symBinAddr: 0x2A530, symSize: 0x30 }
  - { offset: 0x55248, size: 0x8, addend: 0x0, symName: __RNvXs4_NtNtCs9OU1sGv5X54_5quote9___private3extINtNtCslJiobkLta79_5alloc3vec3VecRNtNtCsdGrGZaRBwMb_3syn4expr6MemberENtB5_16RepAsIteratorExt15quote_into_iterCssR9xeAO3IU_12serde_derive, symObjAddr: 0x7C30, symBinAddr: 0x2A560, symSize: 0x30 }
  - { offset: 0x57725, size: 0x8, addend: 0x0, symName: __RINvXs2E_NtNtCsieiGu2EXtoJ_4core5slice4iterINtB7_4IterNtNtCssR9xeAO3IU_12serde_derive2de16FieldWithAliasesENtNtNtNtBb_4iter6traits8iterator8Iterator4folduNCINvNtNtB1N_8adapters3map8map_foldRBQ_RNtCsaKzlTDPUHDb_11proc_macro25IdentuNCNvNtBS_10identifier21deserialize_generated0NCINvNvB1H_8for_each4callB35_NCINvMsi_NtCslJiobkLta79_5alloc3vecINtB51_3VecB35_E14extend_trustedINtB2x_3MapBF_B3G_EE0E0E0EBU_, symObjAddr: 0x0, symBinAddr: 0x2D0B0, symSize: 0x190 }
  - { offset: 0x5EED7, size: 0x8, addend: 0x0, symName: __RINvXs2E_NtNtCsieiGu2EXtoJ_4core5slice4iterINtB7_4IterNtNtCssR9xeAO3IU_12serde_derive2de16FieldWithAliasesENtNtNtNtBb_4iter6traits8iterator8Iterator4folduNCINvNtNtB1N_8adapters3map8map_foldRBQ_RNtCsaKzlTDPUHDb_11proc_macro25IdentuNCNvNtBS_10identifier21deserialize_generated0NCINvNvB1H_8for_each4callB35_NCINvMsi_NtCslJiobkLta79_5alloc3vecINtB51_3VecB35_E14extend_trustedINtB2x_3MapBF_B3G_EE0E0E0EBU_, symObjAddr: 0x0, symBinAddr: 0x2D0B0, symSize: 0x190 }
  - { offset: 0x5F018, size: 0x8, addend: 0x0, symName: __RINvXs2E_NtNtCsieiGu2EXtoJ_4core5slice4iterINtB7_4IterNtNtNtCssR9xeAO3IU_12serde_derive9internals3ast5FieldENtNtNtNtBb_4iter6traits8iterator8Iterator3allNCNvNtNtBW_2de7struct_15deserialize_maps3_0EBW_, symObjAddr: 0x190, symBinAddr: 0x2D240, symSize: 0xA0 }
  - { offset: 0x5F07D, size: 0x8, addend: 0x0, symName: __RINvXs2E_NtNtCsieiGu2EXtoJ_4core5slice4iterINtB7_4IterNtNtNtCssR9xeAO3IU_12serde_derive9internals3ast5FieldENtNtNtNtBb_4iter6traits8iterator8Iterator3anyNCNvNtBW_2de11has_flatten0EBW_, symObjAddr: 0x230, symBinAddr: 0x2D2E0, symSize: 0x90 }
  - { offset: 0x5F0E2, size: 0x8, addend: 0x0, symName: __RINvXs2E_NtNtCsieiGu2EXtoJ_4core5slice4iterINtB7_4IterNtNtNtCssR9xeAO3IU_12serde_derive9internals3ast5FieldENtNtNtNtBb_4iter6traits8iterator8Iterator3anyNCNvNtBW_3ser16serialize_struct0EBW_, symObjAddr: 0x2C0, symBinAddr: 0x2D370, symSize: 0x90 }
  - { offset: 0x5F147, size: 0x8, addend: 0x0, symName: __RINvXs2E_NtNtCsieiGu2EXtoJ_4core5slice4iterINtB7_4IterNtNtNtCssR9xeAO3IU_12serde_derive9internals3ast5FieldENtNtNtNtBb_4iter6traits8iterator8Iterator3anyNCNvNtBW_3ser24serialize_struct_variant0EBW_, symObjAddr: 0x350, symBinAddr: 0x2D400, symSize: 0x90 }
  - { offset: 0x5F1AC, size: 0x8, addend: 0x0, symName: __RINvXs2E_NtNtCsieiGu2EXtoJ_4core5slice4iterINtB7_4IterNtNtNtCssR9xeAO3IU_12serde_derive9internals3ast5FieldENtNtNtNtBb_4iter6traits8iterator8Iterator4findNCNvNtBW_2de23deserialize_transparent0EBW_, symObjAddr: 0x3E0, symBinAddr: 0x2D490, symSize: 0xA0 }
  - { offset: 0x5F211, size: 0x8, addend: 0x0, symName: __RINvXs2E_NtNtCsieiGu2EXtoJ_4core5slice4iterINtB7_4IterNtNtNtCssR9xeAO3IU_12serde_derive9internals3ast5FieldENtNtNtNtBb_4iter6traits8iterator8Iterator4findNCNvNtBW_3ser21serialize_transparent0EBW_, symObjAddr: 0x480, symBinAddr: 0x2D530, symSize: 0xA0 }
  - { offset: 0x5F276, size: 0x8, addend: 0x0, symName: __RINvXs2E_NtNtCsieiGu2EXtoJ_4core5slice4iterINtB7_4IterNtNtNtCssR9xeAO3IU_12serde_derive9internals3ast5FieldENtNtNtNtBb_4iter6traits8iterator8Iterator4findQNCNvNtBW_3ser23serialize_struct_as_map0EBW_, symObjAddr: 0x520, symBinAddr: 0x2D5D0, symSize: 0xA0 }
  - { offset: 0x5F2DB, size: 0x8, addend: 0x0, symName: __RINvXs2E_NtNtCsieiGu2EXtoJ_4core5slice4iterINtB7_4IterNtNtNtCssR9xeAO3IU_12serde_derive9internals3ast5FieldENtNtNtNtBb_4iter6traits8iterator8Iterator4findQNCNvNtBW_3ser24serialize_struct_variants_0EBW_, symObjAddr: 0x5C0, symBinAddr: 0x2D670, symSize: 0xA0 }
  - { offset: 0x5F340, size: 0x8, addend: 0x0, symName: __RINvXs2E_NtNtCsieiGu2EXtoJ_4core5slice4iterINtB7_4IterNtNtNtCssR9xeAO3IU_12serde_derive9internals3ast5FieldENtNtNtNtBb_4iter6traits8iterator8Iterator4findQNCNvNtBW_3ser24serialize_struct_visitor0EBW_, symObjAddr: 0x660, symBinAddr: 0x2D710, symSize: 0xA0 }
  - { offset: 0x5F3A5, size: 0x8, addend: 0x0, symName: __RINvXs2E_NtNtCsieiGu2EXtoJ_4core5slice4iterINtB7_4IterNtNtNtCssR9xeAO3IU_12serde_derive9internals3ast5FieldENtNtNtNtBb_4iter6traits8iterator8Iterator4findQNCNvNtBW_3ser26serialize_struct_as_struct0EBW_, symObjAddr: 0x700, symBinAddr: 0x2D7B0, symSize: 0xA0 }
  - { offset: 0x5F40A, size: 0x8, addend: 0x0, symName: __RINvXs2E_NtNtCsieiGu2EXtoJ_4core5slice4iterINtB7_4IterNtNtNtCssR9xeAO3IU_12serde_derive9internals3ast5FieldENtNtNtNtBb_4iter6traits8iterator8Iterator4findQNCNvNtBW_3ser37serialize_struct_variant_with_flatten0EBW_, symObjAddr: 0x7A0, symBinAddr: 0x2D850, symSize: 0xA0 }
  - { offset: 0x5F46F, size: 0x8, addend: 0x0, symName: __RINvXs2E_NtNtCsieiGu2EXtoJ_4core5slice4iterINtB7_4IterNtNtNtCssR9xeAO3IU_12serde_derive9internals3ast5FieldENtNtNtNtBb_4iter6traits8iterator8Iterator4findQNCNvNtBW_5bound10with_bounds0_0EBW_, symObjAddr: 0x840, symBinAddr: 0x2D8F0, symSize: 0xA0 }
  - { offset: 0x5F4D4, size: 0x8, addend: 0x0, symName: __RINvXs2E_NtNtCsieiGu2EXtoJ_4core5slice4iterINtB7_4IterNtNtNtCssR9xeAO3IU_12serde_derive9internals3ast5FieldENtNtNtNtBb_4iter6traits8iterator8Iterator4findQNCNvNtBW_5bound10with_bounds_0EBW_, symObjAddr: 0x8E0, symBinAddr: 0x2D990, symSize: 0xA0 }
  - { offset: 0x5F539, size: 0x8, addend: 0x0, symName: __RINvXs2E_NtNtCsieiGu2EXtoJ_4core5slice4iterINtB7_4IterNtNtNtCssR9xeAO3IU_12serde_derive9internals3ast5FieldENtNtNtNtBb_4iter6traits8iterator8Iterator4foldNtCsaKzlTDPUHDb_11proc_macro211TokenStreamNCINvNtNtB1O_8adapters6filter11filter_foldRBQ_B2s_NCNvNtBW_3ser24serialize_struct_variants_0NCINvNtB3f_3map8map_foldB3O_B2s_B2s_NCB3Y_s0_0NCB3Y_s1_0E0E0EBW_, symObjAddr: 0x980, symBinAddr: 0x2DA30, symSize: 0x2F0 }
  - { offset: 0x5F67E, size: 0x8, addend: 0x0, symName: __RINvXs2E_NtNtCsieiGu2EXtoJ_4core5slice4iterINtB7_4IterNtNtNtCssR9xeAO3IU_12serde_derive9internals3ast5FieldENtNtNtNtBb_4iter6traits8iterator8Iterator4foldNtCsaKzlTDPUHDb_11proc_macro211TokenStreamNCINvNtNtB1O_8adapters6filter11filter_foldRBQ_B2s_NCNvNtBW_3ser26serialize_struct_as_struct0NCINvNtB3f_3map8map_foldB3O_B2s_B2s_NCB3Y_s_0NCB3Y_s0_0E0E0EBW_, symObjAddr: 0xC70, symBinAddr: 0x2DD20, symSize: 0x2F0 }
  - { offset: 0x5F7C3, size: 0x8, addend: 0x0, symName: __RINvXs2E_NtNtCsieiGu2EXtoJ_4core5slice4iterINtB7_4IterNtNtNtCssR9xeAO3IU_12serde_derive9internals3ast5FieldENtNtNtNtBb_4iter6traits8iterator8Iterator4foldNtCsaKzlTDPUHDb_11proc_macro211TokenStreamNCINvNvXs_NtNtB1O_8adapters9enumerateINtB3i_9EnumeratepEB1I_4fold9enumerateRBQ_B2s_NCINvNtB3k_6filter11filter_foldTjB4l_EB2s_NCNvNtBW_3ser22serialize_tuple_struct0NCINvNtB3k_3map8map_foldB4Y_B2s_B2s_NCB5b_s_0NCB5b_s0_0E0E0E0EBW_, symObjAddr: 0xF60, symBinAddr: 0x2E010, symSize: 0x300 }
  - { offset: 0x5F908, size: 0x8, addend: 0x0, symName: __RINvXs2E_NtNtCsieiGu2EXtoJ_4core5slice4iterINtB7_4IterNtNtNtCssR9xeAO3IU_12serde_derive9internals3ast5FieldENtNtNtNtBb_4iter6traits8iterator8Iterator4foldNtCsaKzlTDPUHDb_11proc_macro211TokenStreamNCINvNvXs_NtNtB1O_8adapters9enumerateINtB3i_9EnumeratepEB1I_4fold9enumerateRBQ_B2s_NCINvNtB3k_6filter11filter_foldTjB4l_EB2s_NCNvNtBW_3ser23serialize_tuple_variant0NCINvNtB3k_3map8map_foldB4Y_B2s_B2s_NCB5b_s_0NCB5b_s0_0E0E0E0EBW_, symObjAddr: 0x1260, symBinAddr: 0x2E310, symSize: 0x2F0 }
  - { offset: 0x5FA4D, size: 0x8, addend: 0x0, symName: __RINvXs2E_NtNtCsieiGu2EXtoJ_4core5slice4iterINtB7_4IterNtNtNtCssR9xeAO3IU_12serde_derive9internals3ast5FieldENtNtNtNtBb_4iter6traits8iterator8Iterator4foldjNCINvNtNtB1O_8adapters3map8map_foldRBQ_jjNCINvNvXs1_NtB2A_6filterINtB3j_6FilterppEB1I_5count8to_usizeB32_NCNvNtBW_2de15deserialize_seq0E0NCINvXsK_NtB1M_5accumjNtB4P_3Sum3sumINtB2y_3MapBF_B38_EE0E0EBW_, symObjAddr: 0x1550, symBinAddr: 0x2E600, symSize: 0x1B0 }
  - { offset: 0x5FB92, size: 0x8, addend: 0x0, symName: __RINvXs2E_NtNtCsieiGu2EXtoJ_4core5slice4iterINtB7_4IterNtNtNtCssR9xeAO3IU_12serde_derive9internals3ast5FieldENtNtNtNtBb_4iter6traits8iterator8Iterator4foldjNCINvNtNtB1O_8adapters3map8map_foldRBQ_jjNCINvNvXs1_NtB2A_6filterINtB3j_6FilterppEB1I_5count8to_usizeB32_NCNvNtNtBW_2de5tuple11deserialize0E0NCINvXsK_NtB1M_5accumjNtB4T_3Sum3sumINtB2y_3MapBF_B38_EE0E0EBW_, symObjAddr: 0x1700, symBinAddr: 0x2E7B0, symSize: 0x1B0 }
  - { offset: 0x5FCD7, size: 0x8, addend: 0x0, symName: __RINvXs2E_NtNtCsieiGu2EXtoJ_4core5slice4iterINtB7_4IterNtNtNtCssR9xeAO3IU_12serde_derive9internals3ast5FieldENtNtNtNtBb_4iter6traits8iterator8Iterator4folduNCINvNtNtB1O_8adapters3map8map_foldRBQ_NtCsaKzlTDPUHDb_11proc_macro211TokenStreamuNCNvNtBW_3ser27wrap_serialize_variant_withs_0NCINvNvB1I_8for_each4callB36_NCINvMsi_NtCslJiobkLta79_5alloc3vecINtB58_3VecB36_E14extend_trustedINtB2y_3MapBF_B3N_EE0E0E0EBW_, symObjAddr: 0x18B0, symBinAddr: 0x2E960, symSize: 0x190 }
  - { offset: 0x5FE18, size: 0x8, addend: 0x0, symName: __RINvXs2E_NtNtCsieiGu2EXtoJ_4core5slice4iterINtB7_4IterNtNtNtCssR9xeAO3IU_12serde_derive9internals3ast5FieldENtNtNtNtBb_4iter6traits8iterator8Iterator4folduNCINvNtNtB1O_8adapters3map8map_foldRBQ_NtNtCsdGrGZaRBwMb_3syn4expr6MemberuNCNvNtBW_3ser35serialize_adjacently_tagged_variants0_0NCINvNvB1I_8for_each4callB36_NCINvMsi_NtCslJiobkLta79_5alloc3vecINtB59_3VecB36_E14extend_trustedINtB2y_3MapBF_B3F_EE0E0E0EBW_, symObjAddr: 0x1A40, symBinAddr: 0x2EAF0, symSize: 0x190 }
  - { offset: 0x5FF59, size: 0x8, addend: 0x0, symName: __RINvXs2E_NtNtCsieiGu2EXtoJ_4core5slice4iterINtB7_4IterNtNtNtCssR9xeAO3IU_12serde_derive9internals3ast5FieldENtNtNtNtBb_4iter6traits8iterator8Iterator4folduNCINvNtNtB1O_8adapters3map8map_foldRBQ_RNtNtCsdGrGZaRBwMb_3syn2ty4TypeuNCNvNtBW_3ser27wrap_serialize_variant_with0NCINvNvB1I_8for_each4callB36_NCINvMsi_NtCslJiobkLta79_5alloc3vecINtB4V_3VecB36_E14extend_trustedINtB2y_3MapBF_B3C_EE0E0E0EBW_, symObjAddr: 0x1BD0, symBinAddr: 0x2EC80, symSize: 0x190 }
  - { offset: 0x6009A, size: 0x8, addend: 0x0, symName: __RINvXs2E_NtNtCsieiGu2EXtoJ_4core5slice4iterINtB7_4IterNtNtNtCssR9xeAO3IU_12serde_derive9internals3ast5FieldENtNtNtNtBb_4iter6traits8iterator8Iterator4folduNCINvNtNtB1O_8adapters3map8map_foldRBQ_RNtNtCsdGrGZaRBwMb_3syn4expr6MemberuNCNvNtBW_3ser37serialize_struct_variant_with_flattens0_0NCINvNvB1I_8for_each4callB36_NCINvMsi_NtCslJiobkLta79_5alloc3vecINtB5c_3VecB36_E14extend_trustedINtB2y_3MapBF_B3G_EE0E0E0EBW_, symObjAddr: 0x1D60, symBinAddr: 0x2EE10, symSize: 0x190 }
  - { offset: 0x601DB, size: 0x8, addend: 0x0, symName: __RINvXs2E_NtNtCsieiGu2EXtoJ_4core5slice4iterINtB7_4IterNtNtNtCssR9xeAO3IU_12serde_derive9internals3ast5FieldENtNtNtNtBb_4iter6traits8iterator8Iterator4folduNCINvNtNtB1O_8adapters3map8map_foldRBQ_RNtNtCsdGrGZaRBwMb_3syn4expr6MemberuNCNvNtBW_7pretend33pretend_fields_used_struct_packed0NCINvNvB1I_8for_each4callB36_NCINvMsi_NtCslJiobkLta79_5alloc3vecINtB59_3VecB36_E14extend_trustedINtB2y_3MapBF_B3G_EE0E0E0EBW_, symObjAddr: 0x1EF0, symBinAddr: 0x2EFA0, symSize: 0x190 }
  - { offset: 0x6031C, size: 0x8, addend: 0x0, symName: __RINvXs2E_NtNtCsieiGu2EXtoJ_4core5slice4iterINtB7_4IterNtNtNtCssR9xeAO3IU_12serde_derive9internals3ast5FieldENtNtNtNtBb_4iter6traits8iterator8Iterator4folduNCINvNvXs_NtNtB1O_8adapters9enumerateINtB2D_9EnumeratepEB1I_4fold9enumerateRBQ_uNCINvNtB2F_3map8map_foldTjB3G_ETB3G_NtCsaKzlTDPUHDb_11proc_macro25IdentEuNCNvNtNtBW_2de7struct_15deserialize_map0NCINvNvB1I_8for_each4callB4g_NCINvMsi_NtCslJiobkLta79_5alloc3vecINtB6c_3VecB4g_E14extend_trustedINtB3Q_3MapIB35_BF_EB4W_EE0E0E0E0EBW_, symObjAddr: 0x2080, symBinAddr: 0x2F130, symSize: 0x190 }
  - { offset: 0x6045D, size: 0x8, addend: 0x0, symName: __RINvXs2E_NtNtCsieiGu2EXtoJ_4core5slice4iterINtB7_4IterNtNtNtCssR9xeAO3IU_12serde_derive9internals3ast7VariantENtNtNtNtBb_4iter6traits8iterator8Iterator3allNCNvNtNtBW_2de15enum_externally11deserializes0_0EBW_, symObjAddr: 0x2210, symBinAddr: 0x2F2C0, symSize: 0xA0 }
  - { offset: 0x604C2, size: 0x8, addend: 0x0, symName: __RINvXs2E_NtNtCsieiGu2EXtoJ_4core5slice4iterINtB7_4IterNtNtNtCssR9xeAO3IU_12serde_derive9internals3ast7VariantENtNtNtNtBb_4iter6traits8iterator8Iterator4findQNCNvNtNtBW_2de13enum_untagged11deserialize0EBW_, symObjAddr: 0x22B0, symBinAddr: 0x2F360, symSize: 0xA0 }
  - { offset: 0x60527, size: 0x8, addend: 0x0, symName: __RINvXs2E_NtNtCsieiGu2EXtoJ_4core5slice4iterINtB7_4IterNtNtNtCssR9xeAO3IU_12serde_derive9internals3ast7VariantENtNtNtNtBb_4iter6traits8iterator8Iterator4folduNCINvNtNtB1Q_8adapters3map8map_foldRBQ_NtNtBW_2de16FieldWithAliasesuNCNvNtB3a_10identifier18deserialize_customs_0NCINvNvB1K_8for_each4callB38_NCINvMsi_NtCslJiobkLta79_5alloc3vecINtB4W_3VecB38_E14extend_trustedINtB2A_3MapBF_B3B_EE0E0E0EBW_, symObjAddr: 0x2350, symBinAddr: 0x2F400, symSize: 0x190 }
  - { offset: 0x60668, size: 0x8, addend: 0x0, symName: __RINvXs2E_NtNtCsieiGu2EXtoJ_4core5slice4iterINtB7_4IterNtNtNtCssR9xeAO3IU_12serde_derive9internals3ast7VariantENtNtNtNtBb_4iter6traits8iterator8Iterator4folduNCINvNvXs_NtNtB1Q_8adapters9enumerateINtB2F_9EnumeratepEB1K_4fold9enumerateRBQ_uNCINvNtB2H_3map8map_foldTjB3I_ENtCsaKzlTDPUHDb_11proc_macro211TokenStreamuNCNvNtBW_3ser14serialize_enum0NCINvNvB1K_8for_each4callB4i_NCINvMsi_NtCslJiobkLta79_5alloc3vecINtB65_3VecB4i_E14extend_trustedINtB3S_3MapIB37_BF_EB4Z_EE0E0E0E0EBW_, symObjAddr: 0x24E0, symBinAddr: 0x2F590, symSize: 0x190 }
  - { offset: 0x607A9, size: 0x8, addend: 0x0, symName: __RINvXs2E_NtNtCsieiGu2EXtoJ_4core5slice4iterINtB7_4IterNtNtNtCssR9xeAO3IU_12serde_derive9internals3ast7VariantENtNtNtNtBb_4iter6traits8iterator8Iterator8find_mapNtCsaKzlTDPUHDb_11proc_macro211TokenStreamQNCNvNtBW_7pretend24pretend_fields_used_enum0EBW_, symObjAddr: 0x2670, symBinAddr: 0x2F720, symSize: 0x120 }
  - { offset: 0x6082E, size: 0x8, addend: 0x0, symName: __RINvXs2E_NtNtCsieiGu2EXtoJ_4core5slice4iterINtB7_4IterNtNtNtCssR9xeAO3IU_12serde_derive9internals3ast7VariantENtNtNtNtBb_4iter6traits8iterator8Iterator8find_mapRSNtNtCsdGrGZaRBwMb_3syn8generics14WherePredicateQNCNvNtBW_5bound35with_where_predicates_from_variants0EBW_, symObjAddr: 0x2790, symBinAddr: 0x2F840, symSize: 0xF0 }
  - { offset: 0x608B3, size: 0x8, addend: 0x0, symName: __RINvXs2E_NtNtCsieiGu2EXtoJ_4core5slice4iterINtB7_4IterNtNtNtCssR9xeAO3IU_12serde_derive9internals3ast7VariantENtNtNtNtBb_4iter6traits8iterator8Iterator8positionNCNvNtNtBW_2de5enum_11deserialize0EBW_, symObjAddr: 0x2880, symBinAddr: 0x2F930, symSize: 0x150 }
  - { offset: 0x60971, size: 0x8, addend: 0x0, symName: __RINvXs2E_NtNtCsieiGu2EXtoJ_4core5slice4iterINtB7_4IterNtNtNtCssR9xeAO3IU_12serde_derive9internals3ast7VariantENtNtNtNtBb_4iter6traits8iterator8Iterator9rpositionNCNvBS_13enum_from_asts_0EBW_, symObjAddr: 0x29D0, symBinAddr: 0x2FA80, symSize: 0x120 }
  - { offset: 0x60A37, size: 0x8, addend: 0x0, symName: __RINvXs2E_NtNtCsieiGu2EXtoJ_4core5slice4iterINtB7_4IterTRNtNtNtCssR9xeAO3IU_12serde_derive9internals3ast5FieldNtCsaKzlTDPUHDb_11proc_macro25IdentEENtNtNtNtBb_4iter6traits8iterator8Iterator4findQNCNvNtNtBY_2de7struct_15deserialize_maps1_0EBY_, symObjAddr: 0x2AF0, symBinAddr: 0x2FBA0, symSize: 0xA0 }
  - { offset: 0x60A9C, size: 0x8, addend: 0x0, symName: __RINvXs2E_NtNtCsieiGu2EXtoJ_4core5slice4iterINtB7_4IterTRNtNtNtCssR9xeAO3IU_12serde_derive9internals3ast5FieldNtCsaKzlTDPUHDb_11proc_macro25IdentEENtNtNtNtBb_4iter6traits8iterator8Iterator4findQNCNvNtNtBY_2de7struct_15deserialize_maps4_0EBY_, symObjAddr: 0x2B90, symBinAddr: 0x2FC40, symSize: 0xA0 }
  - { offset: 0x60B01, size: 0x8, addend: 0x0, symName: __RINvXs2E_NtNtCsieiGu2EXtoJ_4core5slice4iterINtB7_4IterTRNtNtNtCssR9xeAO3IU_12serde_derive9internals3ast5FieldNtCsaKzlTDPUHDb_11proc_macro25IdentEENtNtNtNtBb_4iter6traits8iterator8Iterator4findQNCNvNtNtBY_2de7struct_15deserialize_maps6_0EBY_, symObjAddr: 0x2C30, symBinAddr: 0x2FCE0, symSize: 0xA0 }
  - { offset: 0x60B66, size: 0x8, addend: 0x0, symName: __RINvXs2E_NtNtCsieiGu2EXtoJ_4core5slice4iterINtB7_4IterTRNtNtNtCssR9xeAO3IU_12serde_derive9internals3ast5FieldNtCsaKzlTDPUHDb_11proc_macro25IdentEENtNtNtNtBb_4iter6traits8iterator8Iterator4findQNCNvNtNtBY_2de7struct_15deserialize_maps_0EBY_, symObjAddr: 0x2CD0, symBinAddr: 0x2FD80, symSize: 0xA0 }
  - { offset: 0x60BCB, size: 0x8, addend: 0x0, symName: __RINvXs2E_NtNtCsieiGu2EXtoJ_4core5slice4iterINtB7_4IterhENtNtNtNtBb_4iter6traits8iterator8Iterator4folduNCINvNtNtBY_8adapters3map8map_foldRhhuNCNvNtCslJiobkLta79_5alloc3str13replace_ascii0NCINvNvBS_8for_each4callhNCINvMsi_NtB2l_3vecINtB3x_3VechE14extend_trustedINtB1I_3MapBF_B2f_EE0E0E0ECssR9xeAO3IU_12serde_derive, symObjAddr: 0x2D70, symBinAddr: 0x2FE20, symSize: 0x190 }
  - { offset: 0x60D0C, size: 0x8, addend: 0x0, symName: __RNvXs2E_NtNtCsieiGu2EXtoJ_4core5slice4iterINtB6_4IterNtCsaKzlTDPUHDb_11proc_macro211TokenStreamENtNtNtNtBa_4iter6traits8iterator8Iterator4nextCssR9xeAO3IU_12serde_derive, symObjAddr: 0x4DA0, symBinAddr: 0x31E50, symSize: 0x90 }
  - { offset: 0x60E2D, size: 0x8, addend: 0x0, symName: __RNvXs2E_NtNtCsieiGu2EXtoJ_4core5slice4iterINtB6_4IterNtCsaKzlTDPUHDb_11proc_macro25IdentENtNtNtNtBa_4iter6traits8iterator8Iterator4nextCssR9xeAO3IU_12serde_derive, symObjAddr: 0x4E30, symBinAddr: 0x31EE0, symSize: 0x90 }
  - { offset: 0x60F4E, size: 0x8, addend: 0x0, symName: __RNvXs2E_NtNtCsieiGu2EXtoJ_4core5slice4iterINtB6_4IterNtNtCsdGrGZaRBwMb_3syn4expr6MemberENtNtNtNtBa_4iter6traits8iterator8Iterator4nextCssR9xeAO3IU_12serde_derive, symObjAddr: 0x4EC0, symBinAddr: 0x31F70, symSize: 0x90 }
  - { offset: 0x6106F, size: 0x8, addend: 0x0, symName: __RNvXs2E_NtNtCsieiGu2EXtoJ_4core5slice4iterINtB6_4IterNtNtCsdGrGZaRBwMb_3syn8generics14WherePredicateENtNtNtNtBa_4iter6traits8iterator8Iterator4nextCssR9xeAO3IU_12serde_derive, symObjAddr: 0x4F50, symBinAddr: 0x32000, symSize: 0x90 }
  - { offset: 0x61190, size: 0x8, addend: 0x0, symName: __RNvXs2E_NtNtCsieiGu2EXtoJ_4core5slice4iterINtB6_4IterNtNtCsdGrGZaRBwMb_3syn8lifetime8LifetimeENtNtNtNtBa_4iter6traits8iterator8Iterator4nextCssR9xeAO3IU_12serde_derive, symObjAddr: 0x4FE0, symBinAddr: 0x32090, symSize: 0x90 }
  - { offset: 0x612B1, size: 0x8, addend: 0x0, symName: __RNvXs2E_NtNtCsieiGu2EXtoJ_4core5slice4iterINtB6_4IterNtNtCssR9xeAO3IU_12serde_derive2de16FieldWithAliasesENtNtNtNtBa_4iter6traits8iterator8Iterator4nextBT_, symObjAddr: 0x5070, symBinAddr: 0x32120, symSize: 0x90 }
  - { offset: 0x613D2, size: 0x8, addend: 0x0, symName: __RNvXs2E_NtNtCsieiGu2EXtoJ_4core5slice4iterINtB6_4IterNtNtCssR9xeAO3IU_12serde_derive2de16FieldWithAliasesENtNtNtNtBa_4iter6traits8iterator8Iterator9size_hintBT_, symObjAddr: 0x5100, symBinAddr: 0x321B0, symSize: 0x60 }
  - { offset: 0x61441, size: 0x8, addend: 0x0, symName: __RNvXs2E_NtNtCsieiGu2EXtoJ_4core5slice4iterINtB6_4IterNtNtNtCssR9xeAO3IU_12serde_derive9internals3ast5FieldENtNtNtNtBa_4iter6traits8iterator8Iterator10advance_byBV_, symObjAddr: 0x5160, symBinAddr: 0x32210, symSize: 0xA0 }
  - { offset: 0x61581, size: 0x8, addend: 0x0, symName: __RNvXs2E_NtNtCsieiGu2EXtoJ_4core5slice4iterINtB6_4IterNtNtNtCssR9xeAO3IU_12serde_derive9internals3ast5FieldENtNtNtNtBa_4iter6traits8iterator8Iterator24___iterator_get_uncheckedBV_, symObjAddr: 0x5200, symBinAddr: 0x322B0, symSize: 0x20 }
  - { offset: 0x615DC, size: 0x8, addend: 0x0, symName: __RNvXs2E_NtNtCsieiGu2EXtoJ_4core5slice4iterINtB6_4IterNtNtNtCssR9xeAO3IU_12serde_derive9internals3ast5FieldENtNtNtNtBa_4iter6traits8iterator8Iterator3nthBV_, symObjAddr: 0x5220, symBinAddr: 0x322D0, symSize: 0x130 }
  - { offset: 0x617D5, size: 0x8, addend: 0x0, symName: __RNvXs2E_NtNtCsieiGu2EXtoJ_4core5slice4iterINtB6_4IterNtNtNtCssR9xeAO3IU_12serde_derive9internals3ast5FieldENtNtNtNtBa_4iter6traits8iterator8Iterator4nextBV_, symObjAddr: 0x5350, symBinAddr: 0x32400, symSize: 0x90 }
  - { offset: 0x618F6, size: 0x8, addend: 0x0, symName: __RNvXs2E_NtNtCsieiGu2EXtoJ_4core5slice4iterINtB6_4IterNtNtNtCssR9xeAO3IU_12serde_derive9internals3ast5FieldENtNtNtNtBa_4iter6traits8iterator8Iterator9size_hintBV_, symObjAddr: 0x53E0, symBinAddr: 0x32490, symSize: 0x60 }
  - { offset: 0x61965, size: 0x8, addend: 0x0, symName: __RNvXs2E_NtNtCsieiGu2EXtoJ_4core5slice4iterINtB6_4IterNtNtNtCssR9xeAO3IU_12serde_derive9internals3ast7VariantENtNtNtNtBa_4iter6traits8iterator8Iterator4nextBV_, symObjAddr: 0x5440, symBinAddr: 0x324F0, symSize: 0x90 }
  - { offset: 0x61A86, size: 0x8, addend: 0x0, symName: __RNvXs2E_NtNtCsieiGu2EXtoJ_4core5slice4iterINtB6_4IterNtNtNtCssR9xeAO3IU_12serde_derive9internals3ast7VariantENtNtNtNtBa_4iter6traits8iterator8Iterator9size_hintBV_, symObjAddr: 0x54D0, symBinAddr: 0x32580, symSize: 0x60 }
  - { offset: 0x61AF5, size: 0x8, addend: 0x0, symName: __RNvXs2E_NtNtCsieiGu2EXtoJ_4core5slice4iterINtB6_4IterNtNtNtCssR9xeAO3IU_12serde_derive9internals4name4NameENtNtNtNtBa_4iter6traits8iterator8Iterator4nextBV_, symObjAddr: 0x5530, symBinAddr: 0x325E0, symSize: 0x90 }
  - { offset: 0x61C16, size: 0x8, addend: 0x0, symName: __RNvXs2E_NtNtCsieiGu2EXtoJ_4core5slice4iterINtB6_4IterRNtCsaKzlTDPUHDb_11proc_macro25IdentENtNtNtNtBa_4iter6traits8iterator8Iterator4nextCssR9xeAO3IU_12serde_derive, symObjAddr: 0x55C0, symBinAddr: 0x32670, symSize: 0x90 }
  - { offset: 0x61D37, size: 0x8, addend: 0x0, symName: __RNvXs2E_NtNtCsieiGu2EXtoJ_4core5slice4iterINtB6_4IterRNtNtCsdGrGZaRBwMb_3syn2ty4TypeENtNtNtNtBa_4iter6traits8iterator8Iterator4nextCssR9xeAO3IU_12serde_derive, symObjAddr: 0x5650, symBinAddr: 0x32700, symSize: 0x90 }
  - { offset: 0x61E58, size: 0x8, addend: 0x0, symName: __RNvXs2E_NtNtCsieiGu2EXtoJ_4core5slice4iterINtB6_4IterRNtNtCsdGrGZaRBwMb_3syn4expr6MemberENtNtNtNtBa_4iter6traits8iterator8Iterator4nextCssR9xeAO3IU_12serde_derive, symObjAddr: 0x56E0, symBinAddr: 0x32790, symSize: 0x90 }
  - { offset: 0x61F79, size: 0x8, addend: 0x0, symName: __RNvXs2E_NtNtCsieiGu2EXtoJ_4core5slice4iterINtB6_4IterTRNtNtNtCssR9xeAO3IU_12serde_derive9internals3ast5FieldNtCsaKzlTDPUHDb_11proc_macro25IdentEENtNtNtNtBa_4iter6traits8iterator8Iterator4nextBX_, symObjAddr: 0x5770, symBinAddr: 0x32820, symSize: 0x90 }
  - { offset: 0x6209A, size: 0x8, addend: 0x0, symName: __RNvXs2E_NtNtCsieiGu2EXtoJ_4core5slice4iterINtB6_4IterTReNtNtNtCssR9xeAO3IU_12serde_derive9internals4case10RenameRuleEENtNtNtNtBa_4iter6traits8iterator8Iterator4nextBY_, symObjAddr: 0x5800, symBinAddr: 0x328B0, symSize: 0x90 }
  - { offset: 0x62A55, size: 0x8, addend: 0x0, symName: __RNvXs2F_NtNtCsieiGu2EXtoJ_4core5slice4iterINtB6_4IterNtNtNtCssR9xeAO3IU_12serde_derive9internals3ast7VariantENtNtNtNtBa_4iter6traits12double_ended19DoubleEndedIterator9next_backBV_, symObjAddr: 0x5890, symBinAddr: 0x32940, symSize: 0x100 }
  - { offset: 0x62BA4, size: 0x8, addend: 0x0, symName: __RNvXs2F_NtNtCsieiGu2EXtoJ_4core5slice4iterINtB6_4IterTNtNtCsdGrGZaRBwMb_3syn2ty4TypeNtNtBU_5token5CommaEENtNtNtNtBa_4iter6traits12double_ended19DoubleEndedIterator9next_backCssR9xeAO3IU_12serde_derive, symObjAddr: 0x5990, symBinAddr: 0x32A40, symSize: 0x100 }
  - { offset: 0x62CF3, size: 0x8, addend: 0x0, symName: __RNvXs2F_NtNtCsieiGu2EXtoJ_4core5slice4iterINtB6_4IterTNtNtCsdGrGZaRBwMb_3syn2ty9BareFnArgNtNtBU_5token5CommaEENtNtNtNtBa_4iter6traits12double_ended19DoubleEndedIterator9next_backCssR9xeAO3IU_12serde_derive, symObjAddr: 0x5A90, symBinAddr: 0x32B40, symSize: 0x100 }
  - { offset: 0x62E42, size: 0x8, addend: 0x0, symName: __RNvXs2F_NtNtCsieiGu2EXtoJ_4core5slice4iterINtB6_4IterTNtNtCsdGrGZaRBwMb_3syn4data7VariantNtNtBU_5token5CommaEENtNtNtNtBa_4iter6traits12double_ended19DoubleEndedIterator9next_backCssR9xeAO3IU_12serde_derive, symObjAddr: 0x5B90, symBinAddr: 0x32C40, symSize: 0x100 }
  - { offset: 0x62F91, size: 0x8, addend: 0x0, symName: __RNvXs2F_NtNtCsieiGu2EXtoJ_4core5slice4iterINtB6_4IterTNtNtCsdGrGZaRBwMb_3syn4path15GenericArgumentNtNtBU_5token5CommaEENtNtNtNtBa_4iter6traits12double_ended19DoubleEndedIterator9next_backCssR9xeAO3IU_12serde_derive, symObjAddr: 0x5C90, symBinAddr: 0x32D40, symSize: 0x100 }
  - { offset: 0x632C2, size: 0x8, addend: 0x0, symName: __RNvXs2M_NtNtCsieiGu2EXtoJ_4core5slice4iterINtB6_7IterMutNtNtNtCssR9xeAO3IU_12serde_derive9internals3ast5FieldENtNtNtNtBa_4iter6traits8iterator8Iterator4nextBY_, symObjAddr: 0x5D90, symBinAddr: 0x32E40, symSize: 0x90 }
  - { offset: 0x633CE, size: 0x8, addend: 0x0, symName: __RNvXs2M_NtNtCsieiGu2EXtoJ_4core5slice4iterINtB6_7IterMutNtNtNtCssR9xeAO3IU_12serde_derive9internals3ast7VariantENtNtNtNtBa_4iter6traits8iterator8Iterator4nextBY_, symObjAddr: 0x5E20, symBinAddr: 0x32ED0, symSize: 0x90 }
  - { offset: 0x634DA, size: 0x8, addend: 0x0, symName: __RNvXs2M_NtNtCsieiGu2EXtoJ_4core5slice4iterINtB6_7IterMutTNtNtCsdGrGZaRBwMb_3syn2ty4TypeNtNtBX_5token5CommaEENtNtNtNtBa_4iter6traits8iterator8Iterator4nextCssR9xeAO3IU_12serde_derive, symObjAddr: 0x5EB0, symBinAddr: 0x32F60, symSize: 0x90 }
  - { offset: 0x635E6, size: 0x8, addend: 0x0, symName: __RNvXs2M_NtNtCsieiGu2EXtoJ_4core5slice4iterINtB6_7IterMutTNtNtCsdGrGZaRBwMb_3syn2ty9BareFnArgNtNtBX_5token5CommaEENtNtNtNtBa_4iter6traits8iterator8Iterator4nextCssR9xeAO3IU_12serde_derive, symObjAddr: 0x5F40, symBinAddr: 0x32FF0, symSize: 0x90 }
  - { offset: 0x636F2, size: 0x8, addend: 0x0, symName: __RNvXs2M_NtNtCsieiGu2EXtoJ_4core5slice4iterINtB6_7IterMutTNtNtCsdGrGZaRBwMb_3syn4data7VariantNtNtBX_5token5CommaEENtNtNtNtBa_4iter6traits8iterator8Iterator4nextCssR9xeAO3IU_12serde_derive, symObjAddr: 0x5FD0, symBinAddr: 0x33080, symSize: 0x90 }
  - { offset: 0x637FE, size: 0x8, addend: 0x0, symName: __RNvXs2M_NtNtCsieiGu2EXtoJ_4core5slice4iterINtB6_7IterMutTNtNtCsdGrGZaRBwMb_3syn4expr4ExprNtNtBX_5token5CommaEENtNtNtNtBa_4iter6traits8iterator8Iterator4nextCssR9xeAO3IU_12serde_derive, symObjAddr: 0x6060, symBinAddr: 0x33110, symSize: 0x90 }
  - { offset: 0x6390A, size: 0x8, addend: 0x0, symName: __RNvXs2M_NtNtCsieiGu2EXtoJ_4core5slice4iterINtB6_7IterMutTNtNtCsdGrGZaRBwMb_3syn4path15GenericArgumentNtNtBX_5token5CommaEENtNtNtNtBa_4iter6traits8iterator8Iterator4nextCssR9xeAO3IU_12serde_derive, symObjAddr: 0x60F0, symBinAddr: 0x331A0, symSize: 0x90 }
  - { offset: 0x63A16, size: 0x8, addend: 0x0, symName: __RNvXs2M_NtNtCsieiGu2EXtoJ_4core5slice4iterINtB6_7IterMutTNtNtCsdGrGZaRBwMb_3syn8generics14TypeParamBoundNtNtBX_5token4PlusEENtNtNtNtBa_4iter6traits8iterator8Iterator4nextCssR9xeAO3IU_12serde_derive, symObjAddr: 0x6180, symBinAddr: 0x33230, symSize: 0x90 }
  - { offset: 0x63B22, size: 0x8, addend: 0x0, symName: __RNvXs2M_NtNtCsieiGu2EXtoJ_4core5slice4iterINtB6_7IterMutTNtNtCsdGrGZaRBwMb_3syn8generics14WherePredicateNtNtBX_5token5CommaEENtNtNtNtBa_4iter6traits8iterator8Iterator4nextCssR9xeAO3IU_12serde_derive, symObjAddr: 0x6210, symBinAddr: 0x332C0, symSize: 0x90 }
  - { offset: 0x63C34, size: 0x8, addend: 0x0, symName: __RNvXs2N_NtNtCsieiGu2EXtoJ_4core5slice4iterINtB6_7IterMutTNtNtCsdGrGZaRBwMb_3syn2ty4TypeNtNtBX_5token5CommaEENtNtNtNtBa_4iter6traits12double_ended19DoubleEndedIterator9next_backCssR9xeAO3IU_12serde_derive, symObjAddr: 0x62A0, symBinAddr: 0x33350, symSize: 0x100 }
  - { offset: 0x63D83, size: 0x8, addend: 0x0, symName: __RNvXs2N_NtNtCsieiGu2EXtoJ_4core5slice4iterINtB6_7IterMutTNtNtCsdGrGZaRBwMb_3syn2ty9BareFnArgNtNtBX_5token5CommaEENtNtNtNtBa_4iter6traits12double_ended19DoubleEndedIterator9next_backCssR9xeAO3IU_12serde_derive, symObjAddr: 0x63A0, symBinAddr: 0x33450, symSize: 0x100 }
  - { offset: 0x63ED2, size: 0x8, addend: 0x0, symName: __RNvXs2N_NtNtCsieiGu2EXtoJ_4core5slice4iterINtB6_7IterMutTNtNtCsdGrGZaRBwMb_3syn4data7VariantNtNtBX_5token5CommaEENtNtNtNtBa_4iter6traits12double_ended19DoubleEndedIterator9next_backCssR9xeAO3IU_12serde_derive, symObjAddr: 0x64A0, symBinAddr: 0x33550, symSize: 0x100 }
  - { offset: 0x64021, size: 0x8, addend: 0x0, symName: __RNvXs2N_NtNtCsieiGu2EXtoJ_4core5slice4iterINtB6_7IterMutTNtNtCsdGrGZaRBwMb_3syn4expr4ExprNtNtBX_5token5CommaEENtNtNtNtBa_4iter6traits12double_ended19DoubleEndedIterator9next_backCssR9xeAO3IU_12serde_derive, symObjAddr: 0x65A0, symBinAddr: 0x33650, symSize: 0x100 }
  - { offset: 0x64170, size: 0x8, addend: 0x0, symName: __RNvXs2N_NtNtCsieiGu2EXtoJ_4core5slice4iterINtB6_7IterMutTNtNtCsdGrGZaRBwMb_3syn4path15GenericArgumentNtNtBX_5token5CommaEENtNtNtNtBa_4iter6traits12double_ended19DoubleEndedIterator9next_backCssR9xeAO3IU_12serde_derive, symObjAddr: 0x66A0, symBinAddr: 0x33750, symSize: 0x100 }
  - { offset: 0x642BF, size: 0x8, addend: 0x0, symName: __RNvXs2N_NtNtCsieiGu2EXtoJ_4core5slice4iterINtB6_7IterMutTNtNtCsdGrGZaRBwMb_3syn8generics14TypeParamBoundNtNtBX_5token4PlusEENtNtNtNtBa_4iter6traits12double_ended19DoubleEndedIterator9next_backCssR9xeAO3IU_12serde_derive, symObjAddr: 0x67A0, symBinAddr: 0x33850, symSize: 0x100 }
  - { offset: 0x6440E, size: 0x8, addend: 0x0, symName: __RNvXs2N_NtNtCsieiGu2EXtoJ_4core5slice4iterINtB6_7IterMutTNtNtCsdGrGZaRBwMb_3syn8generics14WherePredicateNtNtBX_5token5CommaEENtNtNtNtBa_4iter6traits12double_ended19DoubleEndedIterator9next_backCssR9xeAO3IU_12serde_derive, symObjAddr: 0x68A0, symBinAddr: 0x33950, symSize: 0x100 }
  - { offset: 0x64563, size: 0x8, addend: 0x0, symName: __RNvXs5_NtNtCsieiGu2EXtoJ_4core5slice4iterINtB5_4IterNtNtCssR9xeAO3IU_12serde_derive2de16FieldWithAliasesENtNtB9_5clone5Clone5cloneBS_, symObjAddr: 0x69A0, symBinAddr: 0x33A50, symSize: 0x20 }
  - { offset: 0x64598, size: 0x8, addend: 0x0, symName: __RNvXs5_NtNtCsieiGu2EXtoJ_4core5slice4iterINtB5_4IterNtNtNtCssR9xeAO3IU_12serde_derive9internals3ast7VariantENtNtB9_5clone5Clone5cloneBU_, symObjAddr: 0x69C0, symBinAddr: 0x33A70, symSize: 0x20 }
  - { offset: 0x645CD, size: 0x8, addend: 0x0, symName: __RNvXs5_NtNtCsieiGu2EXtoJ_4core5slice4iterINtB5_4IterTNtNtCsdGrGZaRBwMb_3syn2ty4TypeNtNtBT_5token5CommaEENtNtB9_5clone5Clone5cloneCssR9xeAO3IU_12serde_derive, symObjAddr: 0x69E0, symBinAddr: 0x33A90, symSize: 0x20 }
  - { offset: 0x64602, size: 0x8, addend: 0x0, symName: __RNvXs5_NtNtCsieiGu2EXtoJ_4core5slice4iterINtB5_4IterTNtNtCsdGrGZaRBwMb_3syn2ty9BareFnArgNtNtBT_5token5CommaEENtNtB9_5clone5Clone5cloneCssR9xeAO3IU_12serde_derive, symObjAddr: 0x6A00, symBinAddr: 0x33AB0, symSize: 0x20 }
  - { offset: 0x64637, size: 0x8, addend: 0x0, symName: __RNvXs5_NtNtCsieiGu2EXtoJ_4core5slice4iterINtB5_4IterTNtNtCsdGrGZaRBwMb_3syn4data7VariantNtNtBT_5token5CommaEENtNtB9_5clone5Clone5cloneCssR9xeAO3IU_12serde_derive, symObjAddr: 0x6A20, symBinAddr: 0x33AD0, symSize: 0x20 }
  - { offset: 0x6466C, size: 0x8, addend: 0x0, symName: __RNvXs5_NtNtCsieiGu2EXtoJ_4core5slice4iterINtB5_4IterTNtNtCsdGrGZaRBwMb_3syn4path15GenericArgumentNtNtBT_5token5CommaEENtNtB9_5clone5Clone5cloneCssR9xeAO3IU_12serde_derive, symObjAddr: 0x6A40, symBinAddr: 0x33AF0, symSize: 0x20 }
  - { offset: 0x647FC, size: 0x8, addend: 0x0, symName: __RINvYINtNtNtCsieiGu2EXtoJ_4core5slice4iter4IterNtNtCsdGrGZaRBwMb_3syn8generics14WherePredicateENtNtNtNtBa_4iter6traits8iterator8Iterator6clonedBJ_ECssR9xeAO3IU_12serde_derive, symObjAddr: 0x2F00, symBinAddr: 0x2FFB0, symSize: 0x20 }
  - { offset: 0x6483C, size: 0x8, addend: 0x0, symName: __RINvYINtNtNtCsieiGu2EXtoJ_4core5slice4iter4IterNtNtCssR9xeAO3IU_12serde_derive2de16FieldWithAliasesENtNtNtNtBa_4iter6traits8iterator8Iterator3mapNtCsaKzlTDPUHDb_11proc_macro211TokenStreamNCNvNtBL_10identifier22deserialize_identifier0EBN_, symObjAddr: 0x2F20, symBinAddr: 0x2FFD0, symSize: 0x20 }
  - { offset: 0x648A9, size: 0x8, addend: 0x0, symName: __RINvYINtNtNtCsieiGu2EXtoJ_4core5slice4iter4IterNtNtCssR9xeAO3IU_12serde_derive2de16FieldWithAliasesENtNtNtNtBa_4iter6traits8iterator8Iterator3mapNtCsaKzlTDPUHDb_11proc_macro211TokenStreamNCNvNtBL_10identifier22deserialize_identifiers_0EBN_, symObjAddr: 0x2F40, symBinAddr: 0x2FFF0, symSize: 0x20 }
  - { offset: 0x64916, size: 0x8, addend: 0x0, symName: __RINvYINtNtNtCsieiGu2EXtoJ_4core5slice4iter4IterNtNtCssR9xeAO3IU_12serde_derive2de16FieldWithAliasesENtNtNtNtBa_4iter6traits8iterator8Iterator3mapRINtNtNtNtCslJiobkLta79_5alloc11collections5btree3set8BTreeSetNtNtNtBN_9internals4name4NameENCNvNtBL_10identifier18deserialize_customs0_0EBN_, symObjAddr: 0x2F60, symBinAddr: 0x30010, symSize: 0x20 }
  - { offset: 0x6496E, size: 0x8, addend: 0x0, symName: __RINvYINtNtNtCsieiGu2EXtoJ_4core5slice4iter4IterNtNtCssR9xeAO3IU_12serde_derive2de16FieldWithAliasesENtNtNtNtBa_4iter6traits8iterator8Iterator3mapRINtNtNtNtCslJiobkLta79_5alloc11collections5btree3set8BTreeSetNtNtNtBN_9internals4name4NameENCNvNtBL_7struct_11deserializes0_0EBN_, symObjAddr: 0x2F80, symBinAddr: 0x30030, symSize: 0x20 }
  - { offset: 0x649C6, size: 0x8, addend: 0x0, symName: __RINvYINtNtNtCsieiGu2EXtoJ_4core5slice4iter4IterNtNtCssR9xeAO3IU_12serde_derive2de16FieldWithAliasesENtNtNtNtBa_4iter6traits8iterator8Iterator3mapRNtCsaKzlTDPUHDb_11proc_macro25IdentNCNvNtBL_10identifier21deserialize_generated0EBN_, symObjAddr: 0x2FA0, symBinAddr: 0x30050, symSize: 0x20 }
  - { offset: 0x64A1E, size: 0x8, addend: 0x0, symName: __RINvYINtNtNtCsieiGu2EXtoJ_4core5slice4iter4IterNtNtCssR9xeAO3IU_12serde_derive2de16FieldWithAliasesENtNtNtNtBa_4iter6traits8iterator8Iterator8flat_mapRINtNtNtNtCslJiobkLta79_5alloc11collections5btree3set8BTreeSetNtNtNtBN_9internals4name4NameENCNvNtBL_10identifier18deserialize_customs0_0EBN_, symObjAddr: 0x2FC0, symBinAddr: 0x30070, symSize: 0xC0 }
  - { offset: 0x64AB9, size: 0x8, addend: 0x0, symName: __RINvYINtNtNtCsieiGu2EXtoJ_4core5slice4iter4IterNtNtCssR9xeAO3IU_12serde_derive2de16FieldWithAliasesENtNtNtNtBa_4iter6traits8iterator8Iterator8flat_mapRINtNtNtNtCslJiobkLta79_5alloc11collections5btree3set8BTreeSetNtNtNtBN_9internals4name4NameENCNvNtBL_7struct_11deserializes0_0EBN_, symObjAddr: 0x3080, symBinAddr: 0x30130, symSize: 0xC0 }
  - { offset: 0x64B54, size: 0x8, addend: 0x0, symName: __RINvYINtNtNtCsieiGu2EXtoJ_4core5slice4iter4IterNtNtNtCssR9xeAO3IU_12serde_derive9internals3ast5FieldENtNtNtNtBa_4iter6traits8iterator8Iterator3mapNtCsaKzlTDPUHDb_11proc_macro211TokenStreamNCNvNtBP_2de23deserialize_transparents_0EBP_, symObjAddr: 0x3140, symBinAddr: 0x301F0, symSize: 0x20 }
  - { offset: 0x64BC1, size: 0x8, addend: 0x0, symName: __RINvYINtNtNtCsieiGu2EXtoJ_4core5slice4iter4IterNtNtNtCssR9xeAO3IU_12serde_derive9internals3ast5FieldENtNtNtNtBa_4iter6traits8iterator8Iterator3mapNtCsaKzlTDPUHDb_11proc_macro211TokenStreamNCNvNtBP_3ser27wrap_serialize_variant_withs_0EBP_, symObjAddr: 0x3160, symBinAddr: 0x30210, symSize: 0x20 }
  - { offset: 0x64C19, size: 0x8, addend: 0x0, symName: __RINvYINtNtNtCsieiGu2EXtoJ_4core5slice4iter4IterNtNtNtCssR9xeAO3IU_12serde_derive9internals3ast5FieldENtNtNtNtBa_4iter6traits8iterator8Iterator3mapNtNtCsdGrGZaRBwMb_3syn4expr6MemberNCNvNtBP_3ser35serialize_adjacently_tagged_variants0_0EBP_, symObjAddr: 0x3180, symBinAddr: 0x30230, symSize: 0x20 }
  - { offset: 0x64C71, size: 0x8, addend: 0x0, symName: __RINvYINtNtNtCsieiGu2EXtoJ_4core5slice4iter4IterNtNtNtCssR9xeAO3IU_12serde_derive9internals3ast5FieldENtNtNtNtBa_4iter6traits8iterator8Iterator3mapRNtNtCsdGrGZaRBwMb_3syn2ty4TypeNCNvNtBP_2de25unwrap_to_variant_closure0EBP_, symObjAddr: 0x31A0, symBinAddr: 0x30250, symSize: 0x20 }
  - { offset: 0x64CC9, size: 0x8, addend: 0x0, symName: __RINvYINtNtNtCsieiGu2EXtoJ_4core5slice4iter4IterNtNtNtCssR9xeAO3IU_12serde_derive9internals3ast5FieldENtNtNtNtBa_4iter6traits8iterator8Iterator3mapRNtNtCsdGrGZaRBwMb_3syn2ty4TypeNCNvNtBP_3ser27wrap_serialize_variant_with0EBP_, symObjAddr: 0x31C0, symBinAddr: 0x30270, symSize: 0x20 }
  - { offset: 0x64D21, size: 0x8, addend: 0x0, symName: __RINvYINtNtNtCsieiGu2EXtoJ_4core5slice4iter4IterNtNtNtCssR9xeAO3IU_12serde_derive9internals3ast5FieldENtNtNtNtBa_4iter6traits8iterator8Iterator3mapRNtNtCsdGrGZaRBwMb_3syn2ty4TypeNCNvNtNtBP_2de15enum_externally29wrap_deserialize_variant_with0EBP_, symObjAddr: 0x31E0, symBinAddr: 0x30290, symSize: 0x20 }
  - { offset: 0x64D79, size: 0x8, addend: 0x0, symName: __RINvYINtNtNtCsieiGu2EXtoJ_4core5slice4iter4IterNtNtNtCssR9xeAO3IU_12serde_derive9internals3ast5FieldENtNtNtNtBa_4iter6traits8iterator8Iterator3mapRNtNtCsdGrGZaRBwMb_3syn4expr6MemberNCNCNvNtBP_7pretend21pretend_variants_used0s_0EBP_, symObjAddr: 0x3200, symBinAddr: 0x302B0, symSize: 0x20 }
  - { offset: 0x64DD1, size: 0x8, addend: 0x0, symName: __RINvYINtNtNtCsieiGu2EXtoJ_4core5slice4iter4IterNtNtNtCssR9xeAO3IU_12serde_derive9internals3ast5FieldENtNtNtNtBa_4iter6traits8iterator8Iterator3mapRNtNtCsdGrGZaRBwMb_3syn4expr6MemberNCNCNvNtBP_7pretend24pretend_fields_used_enum00EBP_, symObjAddr: 0x3220, symBinAddr: 0x302D0, symSize: 0x20 }
  - { offset: 0x64E29, size: 0x8, addend: 0x0, symName: __RINvYINtNtNtCsieiGu2EXtoJ_4core5slice4iter4IterNtNtNtCssR9xeAO3IU_12serde_derive9internals3ast5FieldENtNtNtNtBa_4iter6traits8iterator8Iterator3mapRNtNtCsdGrGZaRBwMb_3syn4expr6MemberNCNvNtBP_2de15deserialize_seqs0_0EBP_, symObjAddr: 0x3240, symBinAddr: 0x302F0, symSize: 0x20 }
  - { offset: 0x64E81, size: 0x8, addend: 0x0, symName: __RINvYINtNtNtCsieiGu2EXtoJ_4core5slice4iter4IterNtNtNtCssR9xeAO3IU_12serde_derive9internals3ast5FieldENtNtNtNtBa_4iter6traits8iterator8Iterator3mapRNtNtCsdGrGZaRBwMb_3syn4expr6MemberNCNvNtBP_2de25unwrap_to_variant_closures0_0EBP_, symObjAddr: 0x3260, symBinAddr: 0x30310, symSize: 0x20 }
  - { offset: 0x64ED9, size: 0x8, addend: 0x0, symName: __RINvYINtNtNtCsieiGu2EXtoJ_4core5slice4iter4IterNtNtNtCssR9xeAO3IU_12serde_derive9internals3ast5FieldENtNtNtNtBa_4iter6traits8iterator8Iterator3mapRNtNtCsdGrGZaRBwMb_3syn4expr6MemberNCNvNtBP_3ser17serialize_variants_0EBP_, symObjAddr: 0x3280, symBinAddr: 0x30330, symSize: 0x20 }
  - { offset: 0x64F31, size: 0x8, addend: 0x0, symName: __RINvYINtNtNtCsieiGu2EXtoJ_4core5slice4iter4IterNtNtNtCssR9xeAO3IU_12serde_derive9internals3ast5FieldENtNtNtNtBa_4iter6traits8iterator8Iterator3mapRNtNtCsdGrGZaRBwMb_3syn4expr6MemberNCNvNtBP_3ser37serialize_struct_variant_with_flattens0_0EBP_, symObjAddr: 0x32A0, symBinAddr: 0x30350, symSize: 0x20 }
  - { offset: 0x64F89, size: 0x8, addend: 0x0, symName: __RINvYINtNtNtCsieiGu2EXtoJ_4core5slice4iter4IterNtNtNtCssR9xeAO3IU_12serde_derive9internals3ast5FieldENtNtNtNtBa_4iter6traits8iterator8Iterator3mapRNtNtCsdGrGZaRBwMb_3syn4expr6MemberNCNvNtBP_7pretend26pretend_fields_used_struct0EBP_, symObjAddr: 0x32C0, symBinAddr: 0x30370, symSize: 0x20 }
  - { offset: 0x64FE1, size: 0x8, addend: 0x0, symName: __RINvYINtNtNtCsieiGu2EXtoJ_4core5slice4iter4IterNtNtNtCssR9xeAO3IU_12serde_derive9internals3ast5FieldENtNtNtNtBa_4iter6traits8iterator8Iterator3mapRNtNtCsdGrGZaRBwMb_3syn4expr6MemberNCNvNtBP_7pretend33pretend_fields_used_struct_packed0EBP_, symObjAddr: 0x32E0, symBinAddr: 0x30390, symSize: 0x20 }
  - { offset: 0x65039, size: 0x8, addend: 0x0, symName: __RINvYINtNtNtCsieiGu2EXtoJ_4core5slice4iter4IterNtNtNtCssR9xeAO3IU_12serde_derive9internals3ast5FieldENtNtNtNtBa_4iter6traits8iterator8Iterator3mapRRNtNtCsdGrGZaRBwMb_3syn2ty4TypeNCNvNtBP_3ser35serialize_adjacently_tagged_variant0EBP_, symObjAddr: 0x3300, symBinAddr: 0x303B0, symSize: 0x20 }
  - { offset: 0x65091, size: 0x8, addend: 0x0, symName: __RINvYINtNtNtCsieiGu2EXtoJ_4core5slice4iter4IterNtNtNtCssR9xeAO3IU_12serde_derive9internals3ast5FieldENtNtNtNtBa_4iter6traits8iterator8Iterator3mapRRNtNtCsdGrGZaRBwMb_3syn2ty4TypeNCNvNtBP_3ser37serialize_struct_variant_with_flattens_0EBP_, symObjAddr: 0x3320, symBinAddr: 0x303D0, symSize: 0x20 }
  - { offset: 0x650E9, size: 0x8, addend: 0x0, symName: __RINvYINtNtNtCsieiGu2EXtoJ_4core5slice4iter4IterNtNtNtCssR9xeAO3IU_12serde_derive9internals3ast5FieldENtNtNtNtBa_4iter6traits8iterator8Iterator3mapjNCINvNvXs1_NtNtB1H_8adapters6filterINtB2w_6FilterppEB1B_5count8to_usizeRBJ_NCNvNtBP_2de15deserialize_seq0E0EBP_, symObjAddr: 0x3340, symBinAddr: 0x303F0, symSize: 0x20 }
  - { offset: 0x65141, size: 0x8, addend: 0x0, symName: __RINvYINtNtNtCsieiGu2EXtoJ_4core5slice4iter4IterNtNtNtCssR9xeAO3IU_12serde_derive9internals3ast5FieldENtNtNtNtBa_4iter6traits8iterator8Iterator3mapjNCINvNvXs1_NtNtB1H_8adapters6filterINtB2w_6FilterppEB1B_5count8to_usizeRBJ_NCNvNtNtBP_2de5tuple11deserialize0E0EBP_, symObjAddr: 0x3360, symBinAddr: 0x30410, symSize: 0x20 }
  - { offset: 0x65199, size: 0x8, addend: 0x0, symName: __RINvYINtNtNtCsieiGu2EXtoJ_4core5slice4iter4IterNtNtNtCssR9xeAO3IU_12serde_derive9internals3ast5FieldENtNtNtNtBa_4iter6traits8iterator8Iterator6filterNCNvNtBP_2de15deserialize_seq0EBP_, symObjAddr: 0x3380, symBinAddr: 0x30430, symSize: 0x20 }
  - { offset: 0x651E8, size: 0x8, addend: 0x0, symName: __RINvYINtNtNtCsieiGu2EXtoJ_4core5slice4iter4IterNtNtNtCssR9xeAO3IU_12serde_derive9internals3ast5FieldENtNtNtNtBa_4iter6traits8iterator8Iterator6filterNCNvNtBP_3ser23serialize_struct_as_map0EBP_, symObjAddr: 0x33A0, symBinAddr: 0x30450, symSize: 0x20 }
  - { offset: 0x65237, size: 0x8, addend: 0x0, symName: __RINvYINtNtNtCsieiGu2EXtoJ_4core5slice4iter4IterNtNtNtCssR9xeAO3IU_12serde_derive9internals3ast5FieldENtNtNtNtBa_4iter6traits8iterator8Iterator6filterNCNvNtBP_3ser24serialize_struct_variants_0EBP_, symObjAddr: 0x33C0, symBinAddr: 0x30470, symSize: 0x20 }
  - { offset: 0x65286, size: 0x8, addend: 0x0, symName: __RINvYINtNtNtCsieiGu2EXtoJ_4core5slice4iter4IterNtNtNtCssR9xeAO3IU_12serde_derive9internals3ast5FieldENtNtNtNtBa_4iter6traits8iterator8Iterator6filterNCNvNtBP_3ser24serialize_struct_visitor0EBP_, symObjAddr: 0x33E0, symBinAddr: 0x30490, symSize: 0x20 }
  - { offset: 0x652D5, size: 0x8, addend: 0x0, symName: __RINvYINtNtNtCsieiGu2EXtoJ_4core5slice4iter4IterNtNtNtCssR9xeAO3IU_12serde_derive9internals3ast5FieldENtNtNtNtBa_4iter6traits8iterator8Iterator6filterNCNvNtBP_3ser26serialize_struct_as_struct0EBP_, symObjAddr: 0x3400, symBinAddr: 0x304B0, symSize: 0x20 }
  - { offset: 0x65324, size: 0x8, addend: 0x0, symName: __RINvYINtNtNtCsieiGu2EXtoJ_4core5slice4iter4IterNtNtNtCssR9xeAO3IU_12serde_derive9internals3ast5FieldENtNtNtNtBa_4iter6traits8iterator8Iterator6filterNCNvNtBP_3ser37serialize_struct_variant_with_flatten0EBP_, symObjAddr: 0x3420, symBinAddr: 0x304D0, symSize: 0x20 }
  - { offset: 0x65373, size: 0x8, addend: 0x0, symName: __RINvYINtNtNtCsieiGu2EXtoJ_4core5slice4iter4IterNtNtNtCssR9xeAO3IU_12serde_derive9internals3ast5FieldENtNtNtNtBa_4iter6traits8iterator8Iterator6filterNCNvNtBP_5bound10with_bounds0_0EBP_, symObjAddr: 0x3440, symBinAddr: 0x304F0, symSize: 0x20 }
  - { offset: 0x653D7, size: 0x8, addend: 0x0, symName: __RINvYINtNtNtCsieiGu2EXtoJ_4core5slice4iter4IterNtNtNtCssR9xeAO3IU_12serde_derive9internals3ast5FieldENtNtNtNtBa_4iter6traits8iterator8Iterator6filterNCNvNtBP_5bound10with_bounds_0EBP_, symObjAddr: 0x3460, symBinAddr: 0x30510, symSize: 0x30 }
  - { offset: 0x6543B, size: 0x8, addend: 0x0, symName: __RINvYINtNtNtCsieiGu2EXtoJ_4core5slice4iter4IterNtNtNtCssR9xeAO3IU_12serde_derive9internals3ast5FieldENtNtNtNtBa_4iter6traits8iterator8Iterator6filterNCNvNtNtBP_2de5tuple11deserialize0EBP_, symObjAddr: 0x3490, symBinAddr: 0x30540, symSize: 0x20 }
  - { offset: 0x6548A, size: 0x8, addend: 0x0, symName: __RINvYINtNtNtCsieiGu2EXtoJ_4core5slice4iter4IterNtNtNtCssR9xeAO3IU_12serde_derive9internals3ast5FieldENtNtNtNtBa_4iter6traits8iterator8Iterator8try_folduNCINvNvXs_NtNtB1H_8adapters9enumerateINtB2A_9EnumeratepEB1B_8try_fold9enumerateRBJ_uINtNtNtBa_3ops12control_flow11ControlFlowTjB3H_EENCINvNvB1B_4find5checkB4r_QNCNvNtBP_3ser22serialize_tuple_struct0E0E0B3M_EBP_, symObjAddr: 0x34B0, symBinAddr: 0x30560, symSize: 0x190 }
  - { offset: 0x6553D, size: 0x8, addend: 0x0, symName: __RINvYINtNtNtCsieiGu2EXtoJ_4core5slice4iter4IterNtNtNtCssR9xeAO3IU_12serde_derive9internals3ast5FieldENtNtNtNtBa_4iter6traits8iterator8Iterator8try_folduNCINvNvXs_NtNtB1H_8adapters9enumerateINtB2A_9EnumeratepEB1B_8try_fold9enumerateRBJ_uINtNtNtBa_3ops12control_flow11ControlFlowTjB3H_EENCINvNvB1B_4find5checkB4r_QNCNvNtBP_3ser23serialize_tuple_variant0E0E0B3M_EBP_, symObjAddr: 0x3640, symBinAddr: 0x306F0, symSize: 0x190 }
  - { offset: 0x655F0, size: 0x8, addend: 0x0, symName: __RINvYINtNtNtCsieiGu2EXtoJ_4core5slice4iter4IterNtNtNtCssR9xeAO3IU_12serde_derive9internals3ast5FieldENtNtNtNtBa_4iter6traits8iterator8Iterator8try_folduNCINvNvXs_NtNtB1H_8adapters9enumerateINtB2A_9EnumeratepEB1B_8try_fold9enumerateRBJ_uINtNtNtBa_3ops12control_flow11ControlFlowTjB3H_EENCINvNvB1B_4find5checkB4r_QNCNvNtBP_3ser30serialize_tuple_struct_visitor0E0E0B3M_EBP_, symObjAddr: 0x37D0, symBinAddr: 0x30880, symSize: 0x190 }
  - { offset: 0x656A3, size: 0x8, addend: 0x0, symName: __RINvYINtNtNtCsieiGu2EXtoJ_4core5slice4iter4IterNtNtNtCssR9xeAO3IU_12serde_derive9internals3ast5FieldENtNtNtNtBa_4iter6traits8iterator8Iterator8try_folduNCINvNvXs_NtNtB1H_8adapters9enumerateINtB2A_9EnumeratepEB1B_8try_fold9enumerateRBJ_uINtNtNtBa_3ops12control_flow11ControlFlowTjB3H_EENCINvNvB1B_4find5checkB4r_QNCNvNtNtBP_2de7struct_11deserialize0E0E0B3M_EBP_, symObjAddr: 0x3960, symBinAddr: 0x30A10, symSize: 0x190 }
  - { offset: 0x65756, size: 0x8, addend: 0x0, symName: __RINvYINtNtNtCsieiGu2EXtoJ_4core5slice4iter4IterNtNtNtCssR9xeAO3IU_12serde_derive9internals3ast7VariantENtNtNtNtBa_4iter6traits8iterator8Iterator10filter_mapNtCsaKzlTDPUHDb_11proc_macro211TokenStreamNCNvNtBP_7pretend24pretend_fields_used_enum0EBP_, symObjAddr: 0x3AF0, symBinAddr: 0x30BA0, symSize: 0x20 }
  - { offset: 0x657C3, size: 0x8, addend: 0x0, symName: __RINvYINtNtNtCsieiGu2EXtoJ_4core5slice4iter4IterNtNtNtCssR9xeAO3IU_12serde_derive9internals3ast7VariantENtNtNtNtBa_4iter6traits8iterator8Iterator10filter_mapRSNtNtCsdGrGZaRBwMb_3syn8generics14WherePredicateNCNvNtBP_5bound35with_where_predicates_from_variants0EBP_, symObjAddr: 0x3B10, symBinAddr: 0x30BC0, symSize: 0x20 }
  - { offset: 0x65830, size: 0x8, addend: 0x0, symName: __RINvYINtNtNtCsieiGu2EXtoJ_4core5slice4iter4IterNtNtNtCssR9xeAO3IU_12serde_derive9internals3ast7VariantENtNtNtNtBa_4iter6traits8iterator8Iterator3mapIB4_NtBL_5FieldENCNvMs_BL_NtBL_4Data10all_fields0EBP_, symObjAddr: 0x3B30, symBinAddr: 0x30BE0, symSize: 0x20 }
  - { offset: 0x65888, size: 0x8, addend: 0x0, symName: __RINvYINtNtNtCsieiGu2EXtoJ_4core5slice4iter4IterNtNtNtCssR9xeAO3IU_12serde_derive9internals3ast7VariantENtNtNtNtBa_4iter6traits8iterator8Iterator3mapNtCsaKzlTDPUHDb_11proc_macro211TokenStreamNCNvNtBP_7pretend21pretend_variants_used0EBP_, symObjAddr: 0x3B50, symBinAddr: 0x30C00, symSize: 0x30 }
  - { offset: 0x658F5, size: 0x8, addend: 0x0, symName: __RINvYINtNtNtCsieiGu2EXtoJ_4core5slice4iter4IterNtNtNtCssR9xeAO3IU_12serde_derive9internals3ast7VariantENtNtNtNtBa_4iter6traits8iterator8Iterator3mapNtNtBP_2de16FieldWithAliasesNCNvNtB2o_10identifier18deserialize_customs_0EBP_, symObjAddr: 0x3B80, symBinAddr: 0x30C30, symSize: 0x20 }
  - { offset: 0x6594D, size: 0x8, addend: 0x0, symName: __RINvYINtNtNtCsieiGu2EXtoJ_4core5slice4iter4IterNtNtNtCssR9xeAO3IU_12serde_derive9internals3ast7VariantENtNtNtNtBa_4iter6traits8iterator8Iterator6filterNCNvNtNtBP_2de13enum_untagged11deserialize0EBP_, symObjAddr: 0x3BA0, symBinAddr: 0x30C50, symSize: 0x20 }
  - { offset: 0x6599C, size: 0x8, addend: 0x0, symName: __RINvYINtNtNtCsieiGu2EXtoJ_4core5slice4iter4IterNtNtNtCssR9xeAO3IU_12serde_derive9internals3ast7VariantENtNtNtNtBa_4iter6traits8iterator8Iterator8flat_mapIB4_NtBL_5FieldENCNvMs_BL_NtBL_4Data10all_fields0EBP_, symObjAddr: 0x3BC0, symBinAddr: 0x30C70, symSize: 0x80 }
  - { offset: 0x65A37, size: 0x8, addend: 0x0, symName: __RINvYINtNtNtCsieiGu2EXtoJ_4core5slice4iter4IterNtNtNtCssR9xeAO3IU_12serde_derive9internals3ast7VariantENtNtNtNtBa_4iter6traits8iterator8Iterator8try_foldjNCINvNtNtB1J_8adapters3map12map_try_foldRBJ_IB4_NtBL_5FieldEjINtNtNtBa_3ops12control_flow11ControlFlowujENCNvMs_BL_NtBL_4Data10all_fields0NCINvNvMsg_NtB2z_7flattenINtB4R_13FlattenCompatppE13iter_try_fold7flattenB3a_jB3r_INvNvXsi_B4R_B55_B1D_10advance_by7advanceB3a_EE0E0B3r_EBP_, symObjAddr: 0x3C40, symBinAddr: 0x30CF0, symSize: 0x180 }
  - { offset: 0x65AEB, size: 0x8, addend: 0x0, symName: __RINvYINtNtNtCsieiGu2EXtoJ_4core5slice4iter4IterNtNtNtCssR9xeAO3IU_12serde_derive9internals3ast7VariantENtNtNtNtBa_4iter6traits8iterator8Iterator8try_folduNCINvNvXs_NtNtB1J_8adapters9enumerateINtB2C_9EnumeratepEB1D_8try_fold9enumerateRBJ_uINtNtNtBa_3ops12control_flow11ControlFlowNtCsaKzlTDPUHDb_11proc_macro211TokenStreamENCINvNtB2E_6filter15filter_try_foldTjB3J_EuB3O_NCNvNtNtBP_2de15enum_adjacently11deserializes0_0NCINvNvB1D_8find_map5checkB5J_B4t_QNCB5X_s1_0E0E0E0B3O_EBP_, symObjAddr: 0x3DC0, symBinAddr: 0x30E70, symSize: 0x160 }
  - { offset: 0x65BA7, size: 0x8, addend: 0x0, symName: __RINvYINtNtNtCsieiGu2EXtoJ_4core5slice4iter4IterNtNtNtCssR9xeAO3IU_12serde_derive9internals3ast7VariantENtNtNtNtBa_4iter6traits8iterator8Iterator8try_folduNCINvNvXs_NtNtB1J_8adapters9enumerateINtB2C_9EnumeratepEB1D_8try_fold9enumerateRBJ_uINtNtNtBa_3ops12control_flow11ControlFlowTjB3J_EENCINvNtB2E_6filter15filter_try_foldB4t_uB3O_NCNvNtNtBP_2de5enum_25prepare_enum_variant_enum0NCINvNvB1D_4find5checkB4t_NCB5l_s_0E0E0E0B3O_EBP_, symObjAddr: 0x3F20, symBinAddr: 0x30FD0, symSize: 0x190 }
  - { offset: 0x65C5A, size: 0x8, addend: 0x0, symName: __RINvYINtNtNtCsieiGu2EXtoJ_4core5slice4iter4IterNtNtNtCssR9xeAO3IU_12serde_derive9internals3ast7VariantENtNtNtNtBa_4iter6traits8iterator8Iterator8try_folduNCINvNvXs_NtNtB1J_8adapters9enumerateINtB2C_9EnumeratepEB1D_8try_fold9enumerateRBJ_uINtNtNtBa_3ops12control_flow11ControlFlowTjB3J_EENCINvNvB1D_4find5checkB4t_QNCNvNtNtBP_2de15enum_adjacently11deserialize0E0E0B3O_EBP_, symObjAddr: 0x40B0, symBinAddr: 0x31160, symSize: 0x190 }
  - { offset: 0x65D0D, size: 0x8, addend: 0x0, symName: __RINvYINtNtNtCsieiGu2EXtoJ_4core5slice4iter4IterNtNtNtCssR9xeAO3IU_12serde_derive9internals3ast7VariantENtNtNtNtBa_4iter6traits8iterator8Iterator8try_folduNCINvNvXs_NtNtB1J_8adapters9enumerateINtB2C_9EnumeratepEB1D_8try_fold9enumerateRBJ_uINtNtNtBa_3ops12control_flow11ControlFlowTjB3J_EENCINvNvB1D_4find5checkB4t_QNCNvNtNtBP_2de15enum_externally11deserialize0E0E0B3O_EBP_, symObjAddr: 0x4240, symBinAddr: 0x312F0, symSize: 0x190 }
  - { offset: 0x65DC0, size: 0x8, addend: 0x0, symName: __RINvYINtNtNtCsieiGu2EXtoJ_4core5slice4iter4IterNtNtNtCssR9xeAO3IU_12serde_derive9internals3ast7VariantENtNtNtNtBa_4iter6traits8iterator8Iterator8try_folduNCINvNvXs_NtNtB1J_8adapters9enumerateINtB2C_9EnumeratepEB1D_8try_fold9enumerateRBJ_uINtNtNtBa_3ops12control_flow11ControlFlowTjB3J_EENCINvNvB1D_4find5checkB4t_QNCNvNtNtBP_2de15enum_internally11deserialize0E0E0B3O_EBP_, symObjAddr: 0x43D0, symBinAddr: 0x31480, symSize: 0x190 }
  - { offset: 0x65E73, size: 0x8, addend: 0x0, symName: __RINvYINtNtNtCsieiGu2EXtoJ_4core5slice4iter4IterNtNtNtCssR9xeAO3IU_12serde_derive9internals3ast7VariantENtNtNtNtBa_4iter6traits8iterator8Iterator8try_folduNCINvNvXs_NtNtB1J_8adapters9enumerateINtB2C_9EnumeratepEB1D_8try_fold9enumerateRBJ_uINtNtNtBa_3ops12control_flow11ControlFlowTjB3J_EENCINvNvB1D_4find5checkB4t_QNCNvNtNtBP_2de5enum_25prepare_enum_variant_enum0E0E0B3O_EBP_, symObjAddr: 0x4560, symBinAddr: 0x31610, symSize: 0x190 }
  - { offset: 0x65F26, size: 0x8, addend: 0x0, symName: __RINvYINtNtNtCsieiGu2EXtoJ_4core5slice4iter4IterTRNtNtNtCssR9xeAO3IU_12serde_derive9internals3ast5FieldNtCsaKzlTDPUHDb_11proc_macro25IdentEENtNtNtNtBa_4iter6traits8iterator8Iterator3mapNtB1E_11TokenStreamNCNvNtNtBR_2de7struct_15deserialize_maps8_0EBR_, symObjAddr: 0x46F0, symBinAddr: 0x317A0, symSize: 0x20 }
  - { offset: 0x65F93, size: 0x8, addend: 0x0, symName: __RINvYINtNtNtCsieiGu2EXtoJ_4core5slice4iter4IterTRNtNtNtCssR9xeAO3IU_12serde_derive9internals3ast5FieldNtCsaKzlTDPUHDb_11proc_macro25IdentEENtNtNtNtBa_4iter6traits8iterator8Iterator6filterNCNvNtNtBR_2de7struct_15deserialize_maps1_0EBR_, symObjAddr: 0x4710, symBinAddr: 0x317C0, symSize: 0x20 }
  - { offset: 0x65FE2, size: 0x8, addend: 0x0, symName: __RINvYINtNtNtCsieiGu2EXtoJ_4core5slice4iter4IterTRNtNtNtCssR9xeAO3IU_12serde_derive9internals3ast5FieldNtCsaKzlTDPUHDb_11proc_macro25IdentEENtNtNtNtBa_4iter6traits8iterator8Iterator6filterNCNvNtNtBR_2de7struct_15deserialize_maps4_0EBR_, symObjAddr: 0x4730, symBinAddr: 0x317E0, symSize: 0x20 }
  - { offset: 0x66031, size: 0x8, addend: 0x0, symName: __RINvYINtNtNtCsieiGu2EXtoJ_4core5slice4iter4IterTRNtNtNtCssR9xeAO3IU_12serde_derive9internals3ast5FieldNtCsaKzlTDPUHDb_11proc_macro25IdentEENtNtNtNtBa_4iter6traits8iterator8Iterator6filterNCNvNtNtBR_2de7struct_15deserialize_maps6_0EBR_, symObjAddr: 0x4750, symBinAddr: 0x31800, symSize: 0x20 }
  - { offset: 0x66080, size: 0x8, addend: 0x0, symName: __RINvYINtNtNtCsieiGu2EXtoJ_4core5slice4iter4IterTRNtNtNtCssR9xeAO3IU_12serde_derive9internals3ast5FieldNtCsaKzlTDPUHDb_11proc_macro25IdentEENtNtNtNtBa_4iter6traits8iterator8Iterator6filterNCNvNtNtBR_2de7struct_15deserialize_maps_0EBR_, symObjAddr: 0x4770, symBinAddr: 0x31820, symSize: 0x20 }
  - { offset: 0x660CF, size: 0x8, addend: 0x0, symName: __RNvYINtNtNtCsieiGu2EXtoJ_4core5slice4iter4IterNtNtCssR9xeAO3IU_12serde_derive2de16FieldWithAliasesENtNtNtNtB9_4iter6traits8iterator8Iterator9enumerateBM_, symObjAddr: 0x6A80, symBinAddr: 0x33B30, symSize: 0x20 }
  - { offset: 0x6611B, size: 0x8, addend: 0x0, symName: __RNvYINtNtNtCsieiGu2EXtoJ_4core5slice4iter4IterNtNtNtCssR9xeAO3IU_12serde_derive9internals3ast5FieldENtNtNtNtB9_4iter6traits8iterator8Iterator9enumerateBO_, symObjAddr: 0x6AA0, symBinAddr: 0x33B50, symSize: 0x20 }
  - { offset: 0x66167, size: 0x8, addend: 0x0, symName: __RNvYINtNtNtCsieiGu2EXtoJ_4core5slice4iter4IterNtNtNtCssR9xeAO3IU_12serde_derive9internals3ast7VariantENtNtNtNtB9_4iter6traits8iterator8Iterator9enumerateBO_, symObjAddr: 0x6AF0, symBinAddr: 0x33BA0, symSize: 0x20 }
  - { offset: 0x661B3, size: 0x8, addend: 0x0, symName: __RNvYINtNtNtCsieiGu2EXtoJ_4core5slice4iter4IterTReNtNtNtCssR9xeAO3IU_12serde_derive9internals4case10RenameRuleEENtNtNtNtB9_4iter6traits8iterator8Iterator9enumerateBR_, symObjAddr: 0x6B10, symBinAddr: 0x33BC0, symSize: 0x20 }
  - { offset: 0x663AB, size: 0x8, addend: 0x0, symName: __RNvXNtNtNtCsieiGu2EXtoJ_4core4iter6traits7collectINtNtNtB8_5slice4iter4IterNtNtNtCssR9xeAO3IU_12serde_derive9internals3ast5FieldENtB2_12IntoIterator9into_iterB1h_, symObjAddr: 0x4D80, symBinAddr: 0x31E30, symSize: 0x20 }
  - { offset: 0x66EC5, size: 0x8, addend: 0x0, symName: __RNvXsn_NtNtNtCsieiGu2EXtoJ_4core4iter8adapters7flattenINtNtNtBb_5slice4iter4IterNtNtNtCssR9xeAO3IU_12serde_derive9internals3ast5FieldENtB5_21ConstSizeIntoIterator4sizeB1m_, symObjAddr: 0x6A60, symBinAddr: 0x33B10, symSize: 0x20 }
  - { offset: 0x67755, size: 0x8, addend: 0x0, symName: __RNvYINtNtNtCsieiGu2EXtoJ_4core5slice4iter4IterNtNtNtCssR9xeAO3IU_12serde_derive9internals3ast5FieldENtNtNtNtB9_4iter8adapters3zip27TrustedRandomAccessNoCoerce4sizeBO_, symObjAddr: 0x6AC0, symBinAddr: 0x33B70, symSize: 0x30 }
  - { offset: 0x6EA4D, size: 0x8, addend: 0x0, symName: __RNvMs4_NtNtCsieiGu2EXtoJ_4core5slice4iterINtB5_4IterNtCsaKzlTDPUHDb_11proc_macro211TokenStreamE3newCssR9xeAO3IU_12serde_derive, symObjAddr: 0x4790, symBinAddr: 0x31840, symSize: 0x50 }
  - { offset: 0x6EC07, size: 0x8, addend: 0x0, symName: __RNvMs4_NtNtCsieiGu2EXtoJ_4core5slice4iterINtB5_4IterNtCsaKzlTDPUHDb_11proc_macro25IdentE3newCssR9xeAO3IU_12serde_derive, symObjAddr: 0x47E0, symBinAddr: 0x31890, symSize: 0x50 }
  - { offset: 0x6EDCE, size: 0x8, addend: 0x0, symName: __RNvMs4_NtNtCsieiGu2EXtoJ_4core5slice4iterINtB5_4IterNtNtCsdGrGZaRBwMb_3syn4expr6MemberE3newCssR9xeAO3IU_12serde_derive, symObjAddr: 0x4830, symBinAddr: 0x318E0, symSize: 0x50 }
  - { offset: 0x6EF6E, size: 0x8, addend: 0x0, symName: __RNvMs4_NtNtCsieiGu2EXtoJ_4core5slice4iterINtB5_4IterNtNtCsdGrGZaRBwMb_3syn8generics14WherePredicateE3newCssR9xeAO3IU_12serde_derive, symObjAddr: 0x4880, symBinAddr: 0x31930, symSize: 0x50 }
  - { offset: 0x6F11B, size: 0x8, addend: 0x0, symName: __RNvMs4_NtNtCsieiGu2EXtoJ_4core5slice4iterINtB5_4IterNtNtCssR9xeAO3IU_12serde_derive2de16FieldWithAliasesE3newBS_, symObjAddr: 0x48D0, symBinAddr: 0x31980, symSize: 0x50 }
  - { offset: 0x6F2C8, size: 0x8, addend: 0x0, symName: __RNvMs4_NtNtCsieiGu2EXtoJ_4core5slice4iterINtB5_4IterNtNtNtCssR9xeAO3IU_12serde_derive9internals3ast5FieldE3newBU_, symObjAddr: 0x4920, symBinAddr: 0x319D0, symSize: 0x50 }
  - { offset: 0x6F475, size: 0x8, addend: 0x0, symName: __RNvMs4_NtNtCsieiGu2EXtoJ_4core5slice4iterINtB5_4IterNtNtNtCssR9xeAO3IU_12serde_derive9internals3ast7VariantE3newBU_, symObjAddr: 0x4970, symBinAddr: 0x31A20, symSize: 0x50 }
  - { offset: 0x6F62F, size: 0x8, addend: 0x0, symName: __RNvMs4_NtNtCsieiGu2EXtoJ_4core5slice4iterINtB5_4IterRNtCsaKzlTDPUHDb_11proc_macro25IdentE3newCssR9xeAO3IU_12serde_derive, symObjAddr: 0x49C0, symBinAddr: 0x31A70, symSize: 0x50 }
  - { offset: 0x6F7F6, size: 0x8, addend: 0x0, symName: __RNvMs4_NtNtCsieiGu2EXtoJ_4core5slice4iterINtB5_4IterRNtNtCsdGrGZaRBwMb_3syn2ty4TypeE3newCssR9xeAO3IU_12serde_derive, symObjAddr: 0x4A10, symBinAddr: 0x31AC0, symSize: 0x50 }
  - { offset: 0x6F9BD, size: 0x8, addend: 0x0, symName: __RNvMs4_NtNtCsieiGu2EXtoJ_4core5slice4iterINtB5_4IterRNtNtCsdGrGZaRBwMb_3syn4expr6MemberE3newCssR9xeAO3IU_12serde_derive, symObjAddr: 0x4A60, symBinAddr: 0x31B10, symSize: 0x50 }
  - { offset: 0x6FB6A, size: 0x8, addend: 0x0, symName: __RNvMs4_NtNtCsieiGu2EXtoJ_4core5slice4iterINtB5_4IterTRNtNtNtCssR9xeAO3IU_12serde_derive9internals3ast5FieldNtCsaKzlTDPUHDb_11proc_macro25IdentEE3newBW_, symObjAddr: 0x4AB0, symBinAddr: 0x31B60, symSize: 0x50 }
  - { offset: 0x6FD6D, size: 0x8, addend: 0x0, symName: __RNvMs4_NtNtCsieiGu2EXtoJ_4core5slice4iterINtB5_4IterTReNtNtNtCssR9xeAO3IU_12serde_derive9internals4case10RenameRuleEE3newBX_, symObjAddr: 0x4B00, symBinAddr: 0x31BB0, symSize: 0x50 }
  - { offset: 0x6FF34, size: 0x8, addend: 0x0, symName: __RNvMsa_NtNtCsieiGu2EXtoJ_4core5slice4iterINtB5_7IterMutTNtNtCsdGrGZaRBwMb_3syn2ty4TypeNtNtBW_5token5CommaEE3newCssR9xeAO3IU_12serde_derive, symObjAddr: 0x4B50, symBinAddr: 0x31C00, symSize: 0x50 }
  - { offset: 0x700FB, size: 0x8, addend: 0x0, symName: __RNvMsa_NtNtCsieiGu2EXtoJ_4core5slice4iterINtB5_7IterMutTNtNtCsdGrGZaRBwMb_3syn2ty9BareFnArgNtNtBW_5token5CommaEE3newCssR9xeAO3IU_12serde_derive, symObjAddr: 0x4BA0, symBinAddr: 0x31C50, symSize: 0x50 }
  - { offset: 0x702C2, size: 0x8, addend: 0x0, symName: __RNvMsa_NtNtCsieiGu2EXtoJ_4core5slice4iterINtB5_7IterMutTNtNtCsdGrGZaRBwMb_3syn4data7VariantNtNtBW_5token5CommaEE3newCssR9xeAO3IU_12serde_derive, symObjAddr: 0x4BF0, symBinAddr: 0x31CA0, symSize: 0x50 }
  - { offset: 0x70489, size: 0x8, addend: 0x0, symName: __RNvMsa_NtNtCsieiGu2EXtoJ_4core5slice4iterINtB5_7IterMutTNtNtCsdGrGZaRBwMb_3syn4expr4ExprNtNtBW_5token5CommaEE3newCssR9xeAO3IU_12serde_derive, symObjAddr: 0x4C40, symBinAddr: 0x31CF0, symSize: 0x50 }
  - { offset: 0x70650, size: 0x8, addend: 0x0, symName: __RNvMsa_NtNtCsieiGu2EXtoJ_4core5slice4iterINtB5_7IterMutTNtNtCsdGrGZaRBwMb_3syn4path15GenericArgumentNtNtBW_5token5CommaEE3newCssR9xeAO3IU_12serde_derive, symObjAddr: 0x4C90, symBinAddr: 0x31D40, symSize: 0x50 }
  - { offset: 0x70817, size: 0x8, addend: 0x0, symName: __RNvMsa_NtNtCsieiGu2EXtoJ_4core5slice4iterINtB5_7IterMutTNtNtCsdGrGZaRBwMb_3syn8generics14TypeParamBoundNtNtBW_5token4PlusEE3newCssR9xeAO3IU_12serde_derive, symObjAddr: 0x4CE0, symBinAddr: 0x31D90, symSize: 0x50 }
  - { offset: 0x709DE, size: 0x8, addend: 0x0, symName: __RNvMsa_NtNtCsieiGu2EXtoJ_4core5slice4iterINtB5_7IterMutTNtNtCsdGrGZaRBwMb_3syn8generics14WherePredicateNtNtBW_5token5CommaEE3newCssR9xeAO3IU_12serde_derive, symObjAddr: 0x4D30, symBinAddr: 0x31DE0, symSize: 0x50 }
  - { offset: 0x724E1, size: 0x8, addend: 0x0, symName: __RINvMNtNtCssR9xeAO3IU_12serde_derive9internals4attrINtB3_4AttrINtNtCslJiobkLta79_5alloc3vec3VecNtNtCsdGrGZaRBwMb_3syn8generics14WherePredicateEE3setRNtNtB1z_4path4PathEB7_, symObjAddr: 0x0, symBinAddr: 0x33BE0, symSize: 0x330 }
  - { offset: 0x73CC4, size: 0x8, addend: 0x0, symName: __RINvNtNtCssR9xeAO3IU_12serde_derive9internals4attr14get_ser_and_deINtNtCslJiobkLta79_5alloc3vec3VecNtNtCsdGrGZaRBwMb_3syn8generics14WherePredicateENvB2_20parse_lit_into_whereB12_EB6_, symObjAddr: 0x2F80, symBinAddr: 0x36B60, symSize: 0x6E0 }
  - { offset: 0x73DC6, size: 0x8, addend: 0x0, symName: __RINvNtNtCssR9xeAO3IU_12serde_derive9internals4attr14get_ser_and_deNtNtCsdGrGZaRBwMb_3syn3lit6LitStrNvB2_12get_lit_str2INtNtCsieiGu2EXtoJ_4core6option6OptionB12_EEB6_, symObjAddr: 0x3660, symBinAddr: 0x37240, symSize: 0x680 }
  - { offset: 0x73ECD, size: 0x8, addend: 0x0, symName: __RNCINvNtNtCssR9xeAO3IU_12serde_derive9internals4attr14get_ser_and_deINtNtCslJiobkLta79_5alloc3vec3VecNtNtCsdGrGZaRBwMb_3syn8generics14WherePredicateENvB4_20parse_lit_into_whereB14_E0B8_, symObjAddr: 0x3CE0, symBinAddr: 0x378C0, symSize: 0x550 }
  - { offset: 0x73FF4, size: 0x8, addend: 0x0, symName: __RNCINvNtNtCssR9xeAO3IU_12serde_derive9internals4attr14get_ser_and_deNtNtCsdGrGZaRBwMb_3syn3lit6LitStrNvB4_12get_lit_str2INtNtCsieiGu2EXtoJ_4core6option6OptionB14_EE0B8_, symObjAddr: 0x4230, symBinAddr: 0x37E10, symSize: 0x510 }
  - { offset: 0x74125, size: 0x8, addend: 0x0, symName: __RNCNvMs3_NtNtCssR9xeAO3IU_12serde_derive9internals4attrNtB7_9Container8de_bound0Bb_, symObjAddr: 0x4740, symBinAddr: 0x38320, symSize: 0x30 }
  - { offset: 0x7416B, size: 0x8, addend: 0x0, symName: __RNCNvMs3_NtNtCssR9xeAO3IU_12serde_derive9internals4attrNtB7_9Container8from_ast0Bb_, symObjAddr: 0x4770, symBinAddr: 0x38350, symSize: 0x2F30 }
  - { offset: 0x74921, size: 0x8, addend: 0x0, symName: __RNCNvMs3_NtNtCssR9xeAO3IU_12serde_derive9internals4attrNtB7_9Container8from_asts_0Bb_, symObjAddr: 0x76A0, symBinAddr: 0x3B280, symSize: 0x230 }
  - { offset: 0x749C6, size: 0x8, addend: 0x0, symName: __RNCNvMs3_NtNtCssR9xeAO3IU_12serde_derive9internals4attrNtB7_9Container9ser_bound0Bb_, symObjAddr: 0x78D0, symBinAddr: 0x3B4B0, symSize: 0x30 }
  - { offset: 0x74A12, size: 0x8, addend: 0x0, symName: __RNCNvMs4_NtNtCssR9xeAO3IU_12serde_derive9internals4attrNtB7_7Variant8de_bound0Bb_, symObjAddr: 0x7900, symBinAddr: 0x3B4E0, symSize: 0x30 }
  - { offset: 0x74A58, size: 0x8, addend: 0x0, symName: __RNCNvMs4_NtNtCssR9xeAO3IU_12serde_derive9internals4attrNtB7_7Variant8from_ast0Bb_, symObjAddr: 0x7930, symBinAddr: 0x3B510, symSize: 0x1BD0 }
  - { offset: 0x74F33, size: 0x8, addend: 0x0, symName: __RNCNvMs4_NtNtCssR9xeAO3IU_12serde_derive9internals4attrNtB7_7Variant9ser_bound0Bb_, symObjAddr: 0x9500, symBinAddr: 0x3D0E0, symSize: 0x30 }
  - { offset: 0x74F7F, size: 0x8, addend: 0x0, symName: __RNCNvMs6_NtNtCssR9xeAO3IU_12serde_derive9internals4attrNtB7_5Field8de_bound0Bb_, symObjAddr: 0x9530, symBinAddr: 0x3D110, symSize: 0x30 }
  - { offset: 0x74FC5, size: 0x8, addend: 0x0, symName: __RNCNvMs6_NtNtCssR9xeAO3IU_12serde_derive9internals4attrNtB7_5Field8from_ast0Bb_, symObjAddr: 0x9560, symBinAddr: 0x3D140, symSize: 0x20 }
  - { offset: 0x74FFE, size: 0x8, addend: 0x0, symName: __RNCNvMs6_NtNtCssR9xeAO3IU_12serde_derive9internals4attrNtB7_5Field8from_asts_0Bb_, symObjAddr: 0x9580, symBinAddr: 0x3D160, symSize: 0x1C00 }
  - { offset: 0x7550C, size: 0x8, addend: 0x0, symName: __RNCNvMs6_NtNtCssR9xeAO3IU_12serde_derive9internals4attrNtB7_5Field9ser_bound0Bb_, symObjAddr: 0xB180, symBinAddr: 0x3ED60, symSize: 0x30 }
  - { offset: 0x75553, size: 0x8, addend: 0x0, symName: __RNCNvNtNtCssR9xeAO3IU_12serde_derive9internals4attr24parse_lit_into_lifetimes0B7_, symObjAddr: 0xB1B0, symBinAddr: 0x3ED90, symSize: 0x410 }
  - { offset: 0x75DF6, size: 0x8, addend: 0x0, symName: __RNvNtNtCssR9xeAO3IU_12serde_derive9internals4attr10decide_tag, symObjAddr: 0x11BF0, symBinAddr: 0x457D0, symSize: 0xFB0 }
  - { offset: 0x76016, size: 0x8, addend: 0x0, symName: __RNvNtNtCssR9xeAO3IU_12serde_derive9internals4attr11get_lit_str, symObjAddr: 0x12BA0, symBinAddr: 0x46780, symSize: 0x50 }
  - { offset: 0x76062, size: 0x8, addend: 0x0, symName: __RNvNtNtCssR9xeAO3IU_12serde_derive9internals4attr11get_renames, symObjAddr: 0x12BF0, symBinAddr: 0x467D0, symSize: 0x260 }
  - { offset: 0x760F5, size: 0x8, addend: 0x0, symName: __RNvNtNtCssR9xeAO3IU_12serde_derive9internals4attr11is_slice_u8, symObjAddr: 0x12E50, symBinAddr: 0x46A30, symSize: 0xD0 }
  - { offset: 0x76139, size: 0x8, addend: 0x0, symName: __RNvNtNtCssR9xeAO3IU_12serde_derive9internals4attr12get_lit_str2, symObjAddr: 0x12F20, symBinAddr: 0x46B00, symSize: 0x5C0 }
  - { offset: 0x762FE, size: 0x8, addend: 0x0, symName: __RNvNtNtCssR9xeAO3IU_12serde_derive9internals4attr12is_reference, symObjAddr: 0x134E0, symBinAddr: 0x470C0, symSize: 0xF0 }
  - { offset: 0x76351, size: 0x8, addend: 0x0, symName: __RNvNtNtCssR9xeAO3IU_12serde_derive9internals4attr17collect_lifetimes, symObjAddr: 0x135D0, symBinAddr: 0x471B0, symSize: 0x880 }
  - { offset: 0x76558, size: 0x8, addend: 0x0, symName: __RNvNtNtCssR9xeAO3IU_12serde_derive9internals4attr17decide_identifier, symObjAddr: 0x13E50, symBinAddr: 0x47A30, symSize: 0x760 }
  - { offset: 0x766A9, size: 0x8, addend: 0x0, symName: __RNvNtNtCssR9xeAO3IU_12serde_derive9internals4attr17is_primitive_path, symObjAddr: 0x145B0, symBinAddr: 0x48190, symSize: 0xC0 }
  - { offset: 0x766E6, size: 0x8, addend: 0x0, symName: __RNvNtNtCssR9xeAO3IU_12serde_derive9internals4attr17is_primitive_type, symObjAddr: 0x14670, symBinAddr: 0x48250, symSize: 0xB0 }
  - { offset: 0x76739, size: 0x8, addend: 0x0, symName: __RNvNtNtCssR9xeAO3IU_12serde_derive9internals4attr17parse_lit_into_ty, symObjAddr: 0x14720, symBinAddr: 0x48300, symSize: 0x3B0 }
  - { offset: 0x7684D, size: 0x8, addend: 0x0, symName: __RNvNtNtCssR9xeAO3IU_12serde_derive9internals4attr19parse_lit_into_path, symObjAddr: 0x14AD0, symBinAddr: 0x486B0, symSize: 0x3C0 }
  - { offset: 0x7694A, size: 0x8, addend: 0x0, symName: __RNvNtNtCssR9xeAO3IU_12serde_derive9internals4attr20borrowable_lifetimes, symObjAddr: 0x14E90, symBinAddr: 0x48A70, symSize: 0x1F0 }
  - { offset: 0x76A0B, size: 0x8, addend: 0x0, symName: __RNvNtNtCssR9xeAO3IU_12serde_derive9internals4attr20get_multiple_renames, symObjAddr: 0x15080, symBinAddr: 0x48C60, symSize: 0x2B0 }
  - { offset: 0x76A8F, size: 0x8, addend: 0x0, symName: __RNvNtNtCssR9xeAO3IU_12serde_derive9internals4attr20get_where_predicates, symObjAddr: 0x15330, symBinAddr: 0x48F10, symSize: 0x290 }
  - { offset: 0x76B13, size: 0x8, addend: 0x0, symName: __RNvNtNtCssR9xeAO3IU_12serde_derive9internals4attr20parse_lit_into_where, symObjAddr: 0x155C0, symBinAddr: 0x491A0, symSize: 0x300 }
  - { offset: 0x76BF0, size: 0x8, addend: 0x0, symName: __RNvNtNtCssR9xeAO3IU_12serde_derive9internals4attr22is_implicitly_borrowed, symObjAddr: 0x158C0, symBinAddr: 0x494A0, symSize: 0x50 }
  - { offset: 0x76C1E, size: 0x8, addend: 0x0, symName: __RNvNtNtCssR9xeAO3IU_12serde_derive9internals4attr24parse_lit_into_expr_path, symObjAddr: 0x15910, symBinAddr: 0x494F0, symSize: 0x390 }
  - { offset: 0x76D1B, size: 0x8, addend: 0x0, symName: __RNvNtNtCssR9xeAO3IU_12serde_derive9internals4attr24parse_lit_into_lifetimes, symObjAddr: 0x15CA0, symBinAddr: 0x49880, symSize: 0x460 }
  - { offset: 0x76E01, size: 0x8, addend: 0x0, symName: __RNvNtNtCssR9xeAO3IU_12serde_derive9internals4attr29collect_lifetimes_from_tokens, symObjAddr: 0x16100, symBinAddr: 0x49CE0, symSize: 0x3C0 }
  - { offset: 0x76EDC, size: 0x8, addend: 0x0, symName: __RNvNtNtCssR9xeAO3IU_12serde_derive9internals4attr32is_implicitly_borrowed_reference, symObjAddr: 0x164C0, symBinAddr: 0x4A0A0, symSize: 0x60 }
  - { offset: 0x76F0A, size: 0x8, addend: 0x0, symName: __RNvNtNtCssR9xeAO3IU_12serde_derive9internals4attr5unraw, symObjAddr: 0x16520, symBinAddr: 0x4A100, symSize: 0xF0 }
  - { offset: 0x76F36, size: 0x8, addend: 0x0, symName: __RNvNtNtCssR9xeAO3IU_12serde_derive9internals4attr6is_cow, symObjAddr: 0x16610, symBinAddr: 0x4A1F0, symSize: 0x200 }
  - { offset: 0x7700F, size: 0x8, addend: 0x0, symName: __RNvNtNtCssR9xeAO3IU_12serde_derive9internals4attr6is_str, symObjAddr: 0x16810, symBinAddr: 0x4A3F0, symSize: 0x30 }
  - { offset: 0x7703D, size: 0x8, addend: 0x0, symName: __RNvNtNtCssR9xeAO3IU_12serde_derive9internals4attr9is_option, symObjAddr: 0x16840, symBinAddr: 0x4A420, symSize: 0x1B0 }
  - { offset: 0x80E89, size: 0x8, addend: 0x0, symName: __RNvXsh_NtCsdGrGZaRBwMb_3syn5parseNCNvMs3_NtNtCssR9xeAO3IU_12serde_derive9internals4attrNtBD_9Container8from_asts_0NtB5_6Parser14___parse_scopedBH_, symObjAddr: 0x169F0, symBinAddr: 0x4A5D0, symSize: 0x400 }
  - { offset: 0x80FD3, size: 0x8, addend: 0x0, symName: __RNvXsh_NtCsdGrGZaRBwMb_3syn5parseNCNvNtNtCssR9xeAO3IU_12serde_derive9internals4attr24parse_lit_into_lifetimes0NtB5_6Parser14___parse_scopedBD_, symObjAddr: 0x16DF0, symBinAddr: 0x4A9D0, symSize: 0x4D0 }
  - { offset: 0x8197D, size: 0x8, addend: 0x0, symName: __RINvMNtNtCssR9xeAO3IU_12serde_derive9internals4attrINtB3_4AttrINtNtCslJiobkLta79_5alloc3vec3VecNtNtCsdGrGZaRBwMb_3syn8generics14WherePredicateEE3setRNtNtB1z_4path4PathEB7_, symObjAddr: 0x0, symBinAddr: 0x33BE0, symSize: 0x330 }
  - { offset: 0x81A3E, size: 0x8, addend: 0x0, symName: __RINvMNtNtCssR9xeAO3IU_12serde_derive9internals4attrINtB3_4AttrINtNtCslJiobkLta79_5alloc3vec3VecNtNtCsdGrGZaRBwMb_3syn8generics14WherePredicateEE7set_optRNtNtB1z_4path4PathEB7_, symObjAddr: 0x330, symBinAddr: 0x33F10, symSize: 0xC0 }
  - { offset: 0x81B42, size: 0x8, addend: 0x0, symName: __RINvMNtNtCssR9xeAO3IU_12serde_derive9internals4attrINtB3_4AttrINtNtNtNtCslJiobkLta79_5alloc11collections5btree3set8BTreeSetNtNtCsdGrGZaRBwMb_3syn8lifetime8LifetimeEE3setRNtNtB21_4path4PathEB7_, symObjAddr: 0x3F0, symBinAddr: 0x33FD0, symSize: 0x340 }
  - { offset: 0x81C10, size: 0x8, addend: 0x0, symName: __RINvMNtNtCssR9xeAO3IU_12serde_derive9internals4attrINtB3_4AttrNtB3_15BorrowAttributeE3setRNtNtCsdGrGZaRBwMb_3syn4path4PathEB7_, symObjAddr: 0x730, symBinAddr: 0x34310, symSize: 0x350 }
  - { offset: 0x81CDE, size: 0x8, addend: 0x0, symName: __RINvMNtNtCssR9xeAO3IU_12serde_derive9internals4attrINtB3_4AttrNtB3_7DefaultE3setNtNtCsdGrGZaRBwMb_3syn4path4PathEB7_, symObjAddr: 0xA80, symBinAddr: 0x34660, symSize: 0x360 }
  - { offset: 0x81DA0, size: 0x8, addend: 0x0, symName: __RINvMNtNtCssR9xeAO3IU_12serde_derive9internals4attrINtB3_4AttrNtB3_7DefaultE3setRNtNtCsdGrGZaRBwMb_3syn4path4PathEB7_, symObjAddr: 0xDE0, symBinAddr: 0x349C0, symSize: 0x360 }
  - { offset: 0x81E6E, size: 0x8, addend: 0x0, symName: __RINvMNtNtCssR9xeAO3IU_12serde_derive9internals4attrINtB3_4AttrNtNtB5_4case10RenameRuleE3setRNtNtCsdGrGZaRBwMb_3syn4path4PathEB7_, symObjAddr: 0x1140, symBinAddr: 0x34D20, symSize: 0x280 }
  - { offset: 0x81F3B, size: 0x8, addend: 0x0, symName: __RINvMNtNtCssR9xeAO3IU_12serde_derive9internals4attrINtB3_4AttrNtNtB5_4name4NameE3setRNtNtCsdGrGZaRBwMb_3syn4path4PathEB7_, symObjAddr: 0x13C0, symBinAddr: 0x34FA0, symSize: 0x360 }
  - { offset: 0x81FFC, size: 0x8, addend: 0x0, symName: __RINvMNtNtCssR9xeAO3IU_12serde_derive9internals4attrINtB3_4AttrNtNtB5_4name4NameE7set_optRNtNtCsdGrGZaRBwMb_3syn4path4PathEB7_, symObjAddr: 0x1720, symBinAddr: 0x35300, symSize: 0xD0 }
  - { offset: 0x82070, size: 0x8, addend: 0x0, symName: __RINvMNtNtCssR9xeAO3IU_12serde_derive9internals4attrINtB3_4AttrNtNtCsdGrGZaRBwMb_3syn2ty4TypeE3setRNtNtB12_4path4PathEB7_, symObjAddr: 0x17F0, symBinAddr: 0x353D0, symSize: 0x370 }
  - { offset: 0x82131, size: 0x8, addend: 0x0, symName: __RINvMNtNtCssR9xeAO3IU_12serde_derive9internals4attrINtB3_4AttrNtNtCsdGrGZaRBwMb_3syn2ty4TypeE7set_optRNtNtB12_4path4PathEB7_, symObjAddr: 0x1B60, symBinAddr: 0x35740, symSize: 0xD0 }
  - { offset: 0x821A5, size: 0x8, addend: 0x0, symName: __RINvMNtNtCssR9xeAO3IU_12serde_derive9internals4attrINtB3_4AttrNtNtCsdGrGZaRBwMb_3syn4expr8ExprPathE3setRNtNtB12_4path4PathEB7_, symObjAddr: 0x1C30, symBinAddr: 0x35810, symSize: 0x360 }
  - { offset: 0x82273, size: 0x8, addend: 0x0, symName: __RINvMNtNtCssR9xeAO3IU_12serde_derive9internals4attrINtB3_4AttrNtNtCsdGrGZaRBwMb_3syn4path4PathE3setRBY_EB7_, symObjAddr: 0x1F90, symBinAddr: 0x35B70, symSize: 0x380 }
  - { offset: 0x82341, size: 0x8, addend: 0x0, symName: __RINvMNtNtCssR9xeAO3IU_12serde_derive9internals4attrINtB3_4AttrNtNtCslJiobkLta79_5alloc6string6StringE3setRNtNtCsdGrGZaRBwMb_3syn4path4PathEB7_, symObjAddr: 0x2310, symBinAddr: 0x35EF0, symSize: 0x330 }
  - { offset: 0x8240F, size: 0x8, addend: 0x0, symName: __RINvMNtNtCssR9xeAO3IU_12serde_derive9internals4attrINtB3_4AttruE3setNtNtCsdGrGZaRBwMb_3syn4path4PathEB7_, symObjAddr: 0x2640, symBinAddr: 0x36220, symSize: 0x270 }
  - { offset: 0x824D0, size: 0x8, addend: 0x0, symName: __RINvMNtNtCssR9xeAO3IU_12serde_derive9internals4attrINtB3_4AttruE3setRNtNtCsdGrGZaRBwMb_3syn4path4PathEB7_, symObjAddr: 0x28B0, symBinAddr: 0x36490, symSize: 0x270 }
  - { offset: 0x8259D, size: 0x8, addend: 0x0, symName: __RINvMs0_NtNtCssR9xeAO3IU_12serde_derive9internals4attrINtB6_7VecAttrINtNtCslJiobkLta79_5alloc3vec3VecNtNtCsdGrGZaRBwMb_3syn8generics14WherePredicateEE6insertRNtNtB1F_4path4PathEBa_, symObjAddr: 0x2B20, symBinAddr: 0x36700, symSize: 0x160 }
  - { offset: 0x825FB, size: 0x8, addend: 0x0, symName: __RINvMs0_NtNtCssR9xeAO3IU_12serde_derive9internals4attrINtB6_7VecAttrNtNtB8_4name4NameE6insertRNtNtCsdGrGZaRBwMb_3syn4path4PathEBa_, symObjAddr: 0x2C80, symBinAddr: 0x36860, symSize: 0x170 }
  - { offset: 0x82659, size: 0x8, addend: 0x0, symName: __RINvMs0_NtNtCssR9xeAO3IU_12serde_derive9internals4attrINtB6_7VecAttrNtNtCsdGrGZaRBwMb_3syn3lit6LitStrE6insertRNtNtB18_4path4PathEBa_, symObjAddr: 0x2DF0, symBinAddr: 0x369D0, symSize: 0x140 }
  - { offset: 0x826B7, size: 0x8, addend: 0x0, symName: __RINvMs_NtNtCssR9xeAO3IU_12serde_derive9internals4attrNtB5_8BoolAttr8set_trueNtNtCsdGrGZaRBwMb_3syn4path4PathEB9_, symObjAddr: 0x2F30, symBinAddr: 0x36B10, symSize: 0x20 }
  - { offset: 0x826F1, size: 0x8, addend: 0x0, symName: __RINvMs_NtNtCssR9xeAO3IU_12serde_derive9internals4attrNtB5_8BoolAttr8set_trueRNtNtCsdGrGZaRBwMb_3syn4path4PathEB9_, symObjAddr: 0x2F50, symBinAddr: 0x36B30, symSize: 0x30 }
  - { offset: 0x8272A, size: 0x8, addend: 0x0, symName: __RNvMNtNtCssR9xeAO3IU_12serde_derive9internals4attrINtB2_4AttrINtNtCslJiobkLta79_5alloc3vec3VecNtNtCsdGrGZaRBwMb_3syn8generics14WherePredicateEE3getB6_, symObjAddr: 0xB5C0, symBinAddr: 0x3F1A0, symSize: 0x50 }
  - { offset: 0x82756, size: 0x8, addend: 0x0, symName: __RNvMNtNtCssR9xeAO3IU_12serde_derive9internals4attrINtB2_4AttrINtNtCslJiobkLta79_5alloc3vec3VecNtNtCsdGrGZaRBwMb_3syn8generics14WherePredicateEE4noneB6_, symObjAddr: 0xB610, symBinAddr: 0x3F1F0, symSize: 0xB0 }
  - { offset: 0x8278F, size: 0x8, addend: 0x0, symName: __RNvMNtNtCssR9xeAO3IU_12serde_derive9internals4attrINtB2_4AttrINtNtNtNtCslJiobkLta79_5alloc11collections5btree3set8BTreeSetNtNtCsdGrGZaRBwMb_3syn8lifetime8LifetimeEE3getB6_, symObjAddr: 0xB6C0, symBinAddr: 0x3F2A0, symSize: 0x60 }
  - { offset: 0x827BB, size: 0x8, addend: 0x0, symName: __RNvMNtNtCssR9xeAO3IU_12serde_derive9internals4attrINtB2_4AttrINtNtNtNtCslJiobkLta79_5alloc11collections5btree3set8BTreeSetNtNtCsdGrGZaRBwMb_3syn8lifetime8LifetimeEE4noneB6_, symObjAddr: 0xB720, symBinAddr: 0x3F300, symSize: 0xB0 }
  - { offset: 0x827F4, size: 0x8, addend: 0x0, symName: __RNvMNtNtCssR9xeAO3IU_12serde_derive9internals4attrINtB2_4AttrNtB2_15BorrowAttributeE3getB6_, symObjAddr: 0xB7D0, symBinAddr: 0x3F3B0, symSize: 0x40 }
  - { offset: 0x82820, size: 0x8, addend: 0x0, symName: __RNvMNtNtCssR9xeAO3IU_12serde_derive9internals4attrINtB2_4AttrNtB2_15BorrowAttributeE4noneB6_, symObjAddr: 0xB810, symBinAddr: 0x3F3F0, symSize: 0xD0 }
  - { offset: 0x82859, size: 0x8, addend: 0x0, symName: __RNvMNtNtCssR9xeAO3IU_12serde_derive9internals4attrINtB2_4AttrNtB2_7DefaultE11set_if_noneB6_, symObjAddr: 0xB8E0, symBinAddr: 0x3F4C0, symSize: 0x150 }
  - { offset: 0x82893, size: 0x8, addend: 0x0, symName: __RNvMNtNtCssR9xeAO3IU_12serde_derive9internals4attrINtB2_4AttrNtB2_7DefaultE3getB6_, symObjAddr: 0xBA30, symBinAddr: 0x3F610, symSize: 0x40 }
  - { offset: 0x828BF, size: 0x8, addend: 0x0, symName: __RNvMNtNtCssR9xeAO3IU_12serde_derive9internals4attrINtB2_4AttrNtB2_7DefaultE4noneB6_, symObjAddr: 0xBA70, symBinAddr: 0x3F650, symSize: 0xE0 }
  - { offset: 0x828F8, size: 0x8, addend: 0x0, symName: __RNvMNtNtCssR9xeAO3IU_12serde_derive9internals4attrINtB2_4AttrNtNtB4_4case10RenameRuleE3getB6_, symObjAddr: 0xBB50, symBinAddr: 0x3F730, symSize: 0x30 }
  - { offset: 0x82924, size: 0x8, addend: 0x0, symName: __RNvMNtNtCssR9xeAO3IU_12serde_derive9internals4attrINtB2_4AttrNtNtB4_4case10RenameRuleE4noneB6_, symObjAddr: 0xBB80, symBinAddr: 0x3F760, symSize: 0x90 }
  - { offset: 0x8295D, size: 0x8, addend: 0x0, symName: __RNvMNtNtCssR9xeAO3IU_12serde_derive9internals4attrINtB2_4AttrNtNtB4_4name4NameE11set_if_noneB6_, symObjAddr: 0xBC10, symBinAddr: 0x3F7F0, symSize: 0x150 }
  - { offset: 0x82997, size: 0x8, addend: 0x0, symName: __RNvMNtNtCssR9xeAO3IU_12serde_derive9internals4attrINtB2_4AttrNtNtB4_4name4NameE3getB6_, symObjAddr: 0xBD60, symBinAddr: 0x3F940, symSize: 0x50 }
  - { offset: 0x829C3, size: 0x8, addend: 0x0, symName: __RNvMNtNtCssR9xeAO3IU_12serde_derive9internals4attrINtB2_4AttrNtNtB4_4name4NameE4noneB6_, symObjAddr: 0xBDB0, symBinAddr: 0x3F990, symSize: 0xC0 }
  - { offset: 0x829FC, size: 0x8, addend: 0x0, symName: __RNvMNtNtCssR9xeAO3IU_12serde_derive9internals4attrINtB2_4AttrNtNtCsdGrGZaRBwMb_3syn2ty4TypeE3getB6_, symObjAddr: 0xBE70, symBinAddr: 0x3FA50, symSize: 0x40 }
  - { offset: 0x82A28, size: 0x8, addend: 0x0, symName: __RNvMNtNtCssR9xeAO3IU_12serde_derive9internals4attrINtB2_4AttrNtNtCsdGrGZaRBwMb_3syn2ty4TypeE4noneB6_, symObjAddr: 0xBEB0, symBinAddr: 0x3FA90, symSize: 0xF0 }
  - { offset: 0x82A61, size: 0x8, addend: 0x0, symName: __RNvMNtNtCssR9xeAO3IU_12serde_derive9internals4attrINtB2_4AttrNtNtCsdGrGZaRBwMb_3syn4expr8ExprPathE11set_if_noneB6_, symObjAddr: 0xBFA0, symBinAddr: 0x3FB80, symSize: 0x150 }
  - { offset: 0x82A9B, size: 0x8, addend: 0x0, symName: __RNvMNtNtCssR9xeAO3IU_12serde_derive9internals4attrINtB2_4AttrNtNtCsdGrGZaRBwMb_3syn4expr8ExprPathE3getB6_, symObjAddr: 0xC0F0, symBinAddr: 0x3FCD0, symSize: 0x40 }
  - { offset: 0x82AC7, size: 0x8, addend: 0x0, symName: __RNvMNtNtCssR9xeAO3IU_12serde_derive9internals4attrINtB2_4AttrNtNtCsdGrGZaRBwMb_3syn4expr8ExprPathE4noneB6_, symObjAddr: 0xC130, symBinAddr: 0x3FD10, symSize: 0xE0 }
  - { offset: 0x82B00, size: 0x8, addend: 0x0, symName: __RNvMNtNtCssR9xeAO3IU_12serde_derive9internals4attrINtB2_4AttrNtNtCsdGrGZaRBwMb_3syn4path4PathE3getB6_, symObjAddr: 0xC210, symBinAddr: 0x3FDF0, symSize: 0x40 }
  - { offset: 0x82B2C, size: 0x8, addend: 0x0, symName: __RNvMNtNtCssR9xeAO3IU_12serde_derive9internals4attrINtB2_4AttrNtNtCsdGrGZaRBwMb_3syn4path4PathE4noneB6_, symObjAddr: 0xC250, symBinAddr: 0x3FE30, symSize: 0xB0 }
  - { offset: 0x82B83, size: 0x8, addend: 0x0, symName: __RNvMNtNtCssR9xeAO3IU_12serde_derive9internals4attrINtB2_4AttrNtNtCslJiobkLta79_5alloc6string6StringE15get_with_tokensB6_, symObjAddr: 0xC300, symBinAddr: 0x3FEE0, symSize: 0x130 }
  - { offset: 0x82BCD, size: 0x8, addend: 0x0, symName: __RNvMNtNtCssR9xeAO3IU_12serde_derive9internals4attrINtB2_4AttrNtNtCslJiobkLta79_5alloc6string6StringE3getB6_, symObjAddr: 0xC430, symBinAddr: 0x40010, symSize: 0x50 }
  - { offset: 0x82BF9, size: 0x8, addend: 0x0, symName: __RNvMNtNtCssR9xeAO3IU_12serde_derive9internals4attrINtB2_4AttrNtNtCslJiobkLta79_5alloc6string6StringE4noneB6_, symObjAddr: 0xC480, symBinAddr: 0x40060, symSize: 0xB0 }
  - { offset: 0x82C50, size: 0x8, addend: 0x0, symName: __RNvMNtNtCssR9xeAO3IU_12serde_derive9internals4attrINtB2_4AttruE15get_with_tokensB6_, symObjAddr: 0xC530, symBinAddr: 0x40110, symSize: 0xE0 }
  - { offset: 0x82C99, size: 0x8, addend: 0x0, symName: __RNvMNtNtCssR9xeAO3IU_12serde_derive9internals4attrINtB2_4AttruE4noneB6_, symObjAddr: 0xC610, symBinAddr: 0x401F0, symSize: 0x90 }
  - { offset: 0x82CD2, size: 0x8, addend: 0x0, symName: __RNvMs0_NtNtCssR9xeAO3IU_12serde_derive9internals4attrINtB5_7VecAttrINtNtCslJiobkLta79_5alloc3vec3VecNtNtCsdGrGZaRBwMb_3syn8generics14WherePredicateEE11at_most_oneB9_, symObjAddr: 0xC6A0, symBinAddr: 0x40280, symSize: 0x270 }
  - { offset: 0x82D6F, size: 0x8, addend: 0x0, symName: __RNvMs0_NtNtCssR9xeAO3IU_12serde_derive9internals4attrINtB5_7VecAttrINtNtCslJiobkLta79_5alloc3vec3VecNtNtCsdGrGZaRBwMb_3syn8generics14WherePredicateEE4noneB9_, symObjAddr: 0xC910, symBinAddr: 0x404F0, symSize: 0xE0 }
  - { offset: 0x82DA8, size: 0x8, addend: 0x0, symName: __RNvMs0_NtNtCssR9xeAO3IU_12serde_derive9internals4attrINtB5_7VecAttrNtNtB7_4name4NameE3getB9_, symObjAddr: 0xC9F0, symBinAddr: 0x405D0, symSize: 0x50 }
  - { offset: 0x82DD4, size: 0x8, addend: 0x0, symName: __RNvMs0_NtNtCssR9xeAO3IU_12serde_derive9internals4attrINtB5_7VecAttrNtNtB7_4name4NameE4noneB9_, symObjAddr: 0xCA40, symBinAddr: 0x40620, symSize: 0xE0 }
  - { offset: 0x82E0D, size: 0x8, addend: 0x0, symName: __RNvMs0_NtNtCssR9xeAO3IU_12serde_derive9internals4attrINtB5_7VecAttrNtNtCsdGrGZaRBwMb_3syn3lit6LitStrE11at_most_oneB9_, symObjAddr: 0xCB20, symBinAddr: 0x40700, symSize: 0x260 }
  - { offset: 0x82EA9, size: 0x8, addend: 0x0, symName: __RNvMs0_NtNtCssR9xeAO3IU_12serde_derive9internals4attrINtB5_7VecAttrNtNtCsdGrGZaRBwMb_3syn3lit6LitStrE3getB9_, symObjAddr: 0xCD80, symBinAddr: 0x40960, symSize: 0x50 }
  - { offset: 0x82ED5, size: 0x8, addend: 0x0, symName: __RNvMs0_NtNtCssR9xeAO3IU_12serde_derive9internals4attrINtB5_7VecAttrNtNtCsdGrGZaRBwMb_3syn3lit6LitStrE4noneB9_, symObjAddr: 0xCDD0, symBinAddr: 0x409B0, symSize: 0xE0 }
  - { offset: 0x82F0E, size: 0x8, addend: 0x0, symName: __RNvMs1_NtNtCssR9xeAO3IU_12serde_derive9internals4attrNtB5_14RenameAllRules2or, symObjAddr: 0xCEB0, symBinAddr: 0x40A90, symSize: 0x60 }
  - { offset: 0x82FAA, size: 0x8, addend: 0x0, symName: __RNvMs3_NtNtCssR9xeAO3IU_12serde_derive9internals4attrNtB5_9Container10identifier, symObjAddr: 0xCF10, symBinAddr: 0x40AF0, symSize: 0x20 }
  - { offset: 0x82FCD, size: 0x8, addend: 0x0, symName: __RNvMs3_NtNtCssR9xeAO3IU_12serde_derive9internals4attrNtB5_9Container11transparent, symObjAddr: 0xCF30, symBinAddr: 0x40B10, symSize: 0x20 }
  - { offset: 0x82FFD, size: 0x8, addend: 0x0, symName: __RNvMs3_NtNtCssR9xeAO3IU_12serde_derive9internals4attrNtB5_9Container13type_try_from, symObjAddr: 0xCF50, symBinAddr: 0x40B30, symSize: 0x30 }
  - { offset: 0x83020, size: 0x8, addend: 0x0, symName: __RNvMs3_NtNtCssR9xeAO3IU_12serde_derive9internals4attrNtB5_9Container14non_exhaustive, symObjAddr: 0xCF80, symBinAddr: 0x40B60, symSize: 0x20 }
  - { offset: 0x83043, size: 0x8, addend: 0x0, symName: __RNvMs3_NtNtCssR9xeAO3IU_12serde_derive9internals4attrNtB5_9Container16rename_all_rules, symObjAddr: 0xCFA0, symBinAddr: 0x40B80, symSize: 0x20 }
  - { offset: 0x83066, size: 0x8, addend: 0x0, symName: __RNvMs3_NtNtCssR9xeAO3IU_12serde_derive9internals4attrNtB5_9Container17custom_serde_path, symObjAddr: 0xCFC0, symBinAddr: 0x40BA0, symSize: 0x30 }
  - { offset: 0x83089, size: 0x8, addend: 0x0, symName: __RNvMs3_NtNtCssR9xeAO3IU_12serde_derive9internals4attrNtB5_9Container19deny_unknown_fields, symObjAddr: 0xCFF0, symBinAddr: 0x40BD0, symSize: 0x20 }
  - { offset: 0x830AC, size: 0x8, addend: 0x0, symName: __RNvMs3_NtNtCssR9xeAO3IU_12serde_derive9internals4attrNtB5_9Container23rename_all_fields_rules, symObjAddr: 0xD010, symBinAddr: 0x40BF0, symSize: 0x20 }
  - { offset: 0x830DC, size: 0x8, addend: 0x0, symName: __RNvMs3_NtNtCssR9xeAO3IU_12serde_derive9internals4attrNtB5_9Container3tag, symObjAddr: 0xD030, symBinAddr: 0x40C10, symSize: 0x20 }
  - { offset: 0x8310C, size: 0x8, addend: 0x0, symName: __RNvMs3_NtNtCssR9xeAO3IU_12serde_derive9internals4attrNtB5_9Container4name, symObjAddr: 0xD050, symBinAddr: 0x40C30, symSize: 0x20 }
  - { offset: 0x8312F, size: 0x8, addend: 0x0, symName: __RNvMs3_NtNtCssR9xeAO3IU_12serde_derive9internals4attrNtB5_9Container6remote, symObjAddr: 0xD070, symBinAddr: 0x40C50, symSize: 0x30 }
  - { offset: 0x8315F, size: 0x8, addend: 0x0, symName: __RNvMs3_NtNtCssR9xeAO3IU_12serde_derive9internals4attrNtB5_9Container7default, symObjAddr: 0xD0A0, symBinAddr: 0x40C80, symSize: 0x20 }
  - { offset: 0x831A9, size: 0x8, addend: 0x0, symName: __RNvMs3_NtNtCssR9xeAO3IU_12serde_derive9internals4attrNtB5_9Container8de_bound, symObjAddr: 0xD0C0, symBinAddr: 0x40CA0, symSize: 0x30 }
  - { offset: 0x831D9, size: 0x8, addend: 0x0, symName: __RNvMs3_NtNtCssR9xeAO3IU_12serde_derive9internals4attrNtB5_9Container8from_ast, symObjAddr: 0xD0F0, symBinAddr: 0x40CD0, symSize: 0x1920 }
  - { offset: 0x834D5, size: 0x8, addend: 0x0, symName: __RNvMs3_NtNtCssR9xeAO3IU_12serde_derive9internals4attrNtB5_9Container9expecting, symObjAddr: 0xEA10, symBinAddr: 0x425F0, symSize: 0x30 }
  - { offset: 0x834F8, size: 0x8, addend: 0x0, symName: __RNvMs3_NtNtCssR9xeAO3IU_12serde_derive9internals4attrNtB5_9Container9is_packed, symObjAddr: 0xEA40, symBinAddr: 0x42620, symSize: 0x20 }
  - { offset: 0x8351B, size: 0x8, addend: 0x0, symName: __RNvMs3_NtNtCssR9xeAO3IU_12serde_derive9internals4attrNtB5_9Container9ser_bound, symObjAddr: 0xEA60, symBinAddr: 0x42640, symSize: 0x30 }
  - { offset: 0x8353E, size: 0x8, addend: 0x0, symName: __RNvMs3_NtNtCssR9xeAO3IU_12serde_derive9internals4attrNtB5_9Container9type_from, symObjAddr: 0xEA90, symBinAddr: 0x42670, symSize: 0x20 }
  - { offset: 0x83561, size: 0x8, addend: 0x0, symName: __RNvMs3_NtNtCssR9xeAO3IU_12serde_derive9internals4attrNtB5_9Container9type_into, symObjAddr: 0xEAB0, symBinAddr: 0x42690, symSize: 0x30 }
  - { offset: 0x8359E, size: 0x8, addend: 0x0, symName: __RNvMs4_NtNtCssR9xeAO3IU_12serde_derive9internals4attrNtB5_7Variant14serialize_with, symObjAddr: 0xEAE0, symBinAddr: 0x426C0, symSize: 0x30 }
  - { offset: 0x835CE, size: 0x8, addend: 0x0, symName: __RNvMs4_NtNtCssR9xeAO3IU_12serde_derive9internals4attrNtB5_7Variant15rename_by_rules, symObjAddr: 0xEB10, symBinAddr: 0x426F0, symSize: 0x1D0 }
  - { offset: 0x83600, size: 0x8, addend: 0x0, symName: __RNvMs4_NtNtCssR9xeAO3IU_12serde_derive9internals4attrNtB5_7Variant16deserialize_with, symObjAddr: 0xECE0, symBinAddr: 0x428C0, symSize: 0x30 }
  - { offset: 0x83623, size: 0x8, addend: 0x0, symName: __RNvMs4_NtNtCssR9xeAO3IU_12serde_derive9internals4attrNtB5_7Variant16rename_all_rules, symObjAddr: 0xED10, symBinAddr: 0x428F0, symSize: 0x20 }
  - { offset: 0x83646, size: 0x8, addend: 0x0, symName: __RNvMs4_NtNtCssR9xeAO3IU_12serde_derive9internals4attrNtB5_7Variant16skip_serializing, symObjAddr: 0xED30, symBinAddr: 0x42910, symSize: 0x20 }
  - { offset: 0x83669, size: 0x8, addend: 0x0, symName: __RNvMs4_NtNtCssR9xeAO3IU_12serde_derive9internals4attrNtB5_7Variant18skip_deserializing, symObjAddr: 0xED50, symBinAddr: 0x42930, symSize: 0x20 }
  - { offset: 0x8368C, size: 0x8, addend: 0x0, symName: __RNvMs4_NtNtCssR9xeAO3IU_12serde_derive9internals4attrNtB5_7Variant4name, symObjAddr: 0xED70, symBinAddr: 0x42950, symSize: 0x20 }
  - { offset: 0x836AF, size: 0x8, addend: 0x0, symName: __RNvMs4_NtNtCssR9xeAO3IU_12serde_derive9internals4attrNtB5_7Variant5other, symObjAddr: 0xED90, symBinAddr: 0x42970, symSize: 0x20 }
  - { offset: 0x836DF, size: 0x8, addend: 0x0, symName: __RNvMs4_NtNtCssR9xeAO3IU_12serde_derive9internals4attrNtB5_7Variant7aliases, symObjAddr: 0xEDB0, symBinAddr: 0x42990, symSize: 0x30 }
  - { offset: 0x83702, size: 0x8, addend: 0x0, symName: __RNvMs4_NtNtCssR9xeAO3IU_12serde_derive9internals4attrNtB5_7Variant8de_bound, symObjAddr: 0xEDE0, symBinAddr: 0x429C0, symSize: 0x30 }
  - { offset: 0x83732, size: 0x8, addend: 0x0, symName: __RNvMs4_NtNtCssR9xeAO3IU_12serde_derive9internals4attrNtB5_7Variant8from_ast, symObjAddr: 0xEE10, symBinAddr: 0x429F0, symSize: 0xE10 }
  - { offset: 0x83901, size: 0x8, addend: 0x0, symName: __RNvMs4_NtNtCssR9xeAO3IU_12serde_derive9internals4attrNtB5_7Variant8untagged, symObjAddr: 0xFC20, symBinAddr: 0x43800, symSize: 0x20 }
  - { offset: 0x83924, size: 0x8, addend: 0x0, symName: __RNvMs4_NtNtCssR9xeAO3IU_12serde_derive9internals4attrNtB5_7Variant9ser_bound, symObjAddr: 0xFC40, symBinAddr: 0x43820, symSize: 0x30 }
  - { offset: 0x83947, size: 0x8, addend: 0x0, symName: __RNvMs5_NtNtCssR9xeAO3IU_12serde_derive9internals4attrNtB5_7Default7is_none, symObjAddr: 0xFC70, symBinAddr: 0x43850, symSize: 0x60 }
  - { offset: 0x83977, size: 0x8, addend: 0x0, symName: __RNvMs6_NtNtCssR9xeAO3IU_12serde_derive9internals4attrNtB5_5Field11transparent, symObjAddr: 0xFCD0, symBinAddr: 0x438B0, symSize: 0x20 }
  - { offset: 0x8399A, size: 0x8, addend: 0x0, symName: __RNvMs6_NtNtCssR9xeAO3IU_12serde_derive9internals4attrNtB5_5Field14serialize_with, symObjAddr: 0xFCF0, symBinAddr: 0x438D0, symSize: 0x30 }
  - { offset: 0x839CA, size: 0x8, addend: 0x0, symName: __RNvMs6_NtNtCssR9xeAO3IU_12serde_derive9internals4attrNtB5_5Field15rename_by_rules, symObjAddr: 0xFD20, symBinAddr: 0x43900, symSize: 0x1A0 }
  - { offset: 0x839FC, size: 0x8, addend: 0x0, symName: __RNvMs6_NtNtCssR9xeAO3IU_12serde_derive9internals4attrNtB5_5Field16deserialize_with, symObjAddr: 0xFEC0, symBinAddr: 0x43AA0, symSize: 0x30 }
  - { offset: 0x83A1F, size: 0x8, addend: 0x0, symName: __RNvMs6_NtNtCssR9xeAO3IU_12serde_derive9internals4attrNtB5_5Field16mark_transparent, symObjAddr: 0xFEF0, symBinAddr: 0x43AD0, symSize: 0x20 }
  - { offset: 0x83A42, size: 0x8, addend: 0x0, symName: __RNvMs6_NtNtCssR9xeAO3IU_12serde_derive9internals4attrNtB5_5Field16skip_serializing, symObjAddr: 0xFF10, symBinAddr: 0x43AF0, symSize: 0x20 }
  - { offset: 0x83A72, size: 0x8, addend: 0x0, symName: __RNvMs6_NtNtCssR9xeAO3IU_12serde_derive9internals4attrNtB5_5Field18borrowed_lifetimes, symObjAddr: 0xFF30, symBinAddr: 0x43B10, symSize: 0x20 }
  - { offset: 0x83A95, size: 0x8, addend: 0x0, symName: __RNvMs6_NtNtCssR9xeAO3IU_12serde_derive9internals4attrNtB5_5Field18skip_deserializing, symObjAddr: 0xFF50, symBinAddr: 0x43B30, symSize: 0x20 }
  - { offset: 0x83AB8, size: 0x8, addend: 0x0, symName: __RNvMs6_NtNtCssR9xeAO3IU_12serde_derive9internals4attrNtB5_5Field19skip_serializing_if, symObjAddr: 0xFF70, symBinAddr: 0x43B50, symSize: 0x30 }
  - { offset: 0x83ADB, size: 0x8, addend: 0x0, symName: __RNvMs6_NtNtCssR9xeAO3IU_12serde_derive9internals4attrNtB5_5Field4name, symObjAddr: 0xFFA0, symBinAddr: 0x43B80, symSize: 0x20 }
  - { offset: 0x83AFE, size: 0x8, addend: 0x0, symName: __RNvMs6_NtNtCssR9xeAO3IU_12serde_derive9internals4attrNtB5_5Field6getter, symObjAddr: 0xFFC0, symBinAddr: 0x43BA0, symSize: 0x30 }
  - { offset: 0x83B21, size: 0x8, addend: 0x0, symName: __RNvMs6_NtNtCssR9xeAO3IU_12serde_derive9internals4attrNtB5_5Field7aliases, symObjAddr: 0xFFF0, symBinAddr: 0x43BD0, symSize: 0x20 }
  - { offset: 0x83B44, size: 0x8, addend: 0x0, symName: __RNvMs6_NtNtCssR9xeAO3IU_12serde_derive9internals4attrNtB5_5Field7default, symObjAddr: 0x10010, symBinAddr: 0x43BF0, symSize: 0x20 }
  - { offset: 0x83B67, size: 0x8, addend: 0x0, symName: __RNvMs6_NtNtCssR9xeAO3IU_12serde_derive9internals4attrNtB5_5Field7flatten, symObjAddr: 0x10030, symBinAddr: 0x43C10, symSize: 0x20 }
  - { offset: 0x83B8A, size: 0x8, addend: 0x0, symName: __RNvMs6_NtNtCssR9xeAO3IU_12serde_derive9internals4attrNtB5_5Field8de_bound, symObjAddr: 0x10050, symBinAddr: 0x43C30, symSize: 0x30 }
  - { offset: 0x83BC7, size: 0x8, addend: 0x0, symName: __RNvMs6_NtNtCssR9xeAO3IU_12serde_derive9internals4attrNtB5_5Field8from_ast, symObjAddr: 0x10080, symBinAddr: 0x43C60, symSize: 0x1AC0 }
  - { offset: 0x83FA6, size: 0x8, addend: 0x0, symName: __RNvMs6_NtNtCssR9xeAO3IU_12serde_derive9internals4attrNtB5_5Field9ser_bound, symObjAddr: 0x11B40, symBinAddr: 0x45720, symSize: 0x30 }
  - { offset: 0x83FD6, size: 0x8, addend: 0x0, symName: __RNvMs_NtNtCssR9xeAO3IU_12serde_derive9internals4attrNtB4_8BoolAttr3get, symObjAddr: 0x11B70, symBinAddr: 0x45750, symSize: 0x30 }
  - { offset: 0x83FF8, size: 0x8, addend: 0x0, symName: __RNvMs_NtNtCssR9xeAO3IU_12serde_derive9internals4attrNtB4_8BoolAttr4none, symObjAddr: 0x11BA0, symBinAddr: 0x45780, symSize: 0x50 }
  - { offset: 0x845E7, size: 0x8, addend: 0x0, symName: __RINvMNtCsieiGu2EXtoJ_4core6resultINtB3_6ResultNtCsaKzlTDPUHDb_11proc_macro211TokenStreamNtNtCsdGrGZaRBwMb_3syn5error5ErrorE14unwrap_or_elseNvMB1q_B1o_18into_compile_errorECssR9xeAO3IU_12serde_derive, symObjAddr: 0x0, symBinAddr: 0x4AEA0, symSize: 0xD0 }
  - { offset: 0x84A4E, size: 0x8, addend: 0x0, symName: __RNvXsV_NtCscKtU6MdFI5n_10proc_macro6bridgeINtNtCsieiGu2EXtoJ_4core6result6ResultINtNtBJ_6option6OptionNtNtB5_6client11TokenStreamEuEINtNtB5_3rpc6EncodeuE6encodeCssR9xeAO3IU_12serde_derive, symObjAddr: 0xED00, symBinAddr: 0x59BA0, symSize: 0xE0 }
  - { offset: 0x84B12, size: 0x8, addend: 0x0, symName: __RNvXsV_NtCscKtU6MdFI5n_10proc_macro6bridgeINtNtCsieiGu2EXtoJ_4core6result6ResultuNtNtB5_3rpc12PanicMessageEINtB1j_6EncodeuE6encodeCssR9xeAO3IU_12serde_derive, symObjAddr: 0xEDE0, symBinAddr: 0x59C80, symSize: 0x120 }
  - { offset: 0x85B19, size: 0x8, addend: 0x0, symName: __RNCNvNtNtCssR9xeAO3IU_12serde_derive2de13enum_untagged11deserialize0B7_, symObjAddr: 0xEF0, symBinAddr: 0x4BD90, symSize: 0x30 }
  - { offset: 0x85B4F, size: 0x8, addend: 0x0, symName: __RNCNvNtNtCssR9xeAO3IU_12serde_derive2de13enum_untagged11deserializes_0B7_, symObjAddr: 0xF20, symBinAddr: 0x4BDC0, symSize: 0x50 }
  - { offset: 0x85BCA, size: 0x8, addend: 0x0, symName: __RNCNvNtNtCssR9xeAO3IU_12serde_derive2de13enum_untagged19deserialize_variant0B7_, symObjAddr: 0xF70, symBinAddr: 0x4BE10, symSize: 0x190 }
  - { offset: 0x85C48, size: 0x8, addend: 0x0, symName: __RNvNtNtCssR9xeAO3IU_12serde_derive2de13enum_untagged11deserialize, symObjAddr: 0x3E30, symBinAddr: 0x4ECD0, symSize: 0xF30 }
  - { offset: 0x85F3F, size: 0x8, addend: 0x0, symName: __RNvNtNtCssR9xeAO3IU_12serde_derive2de13enum_untagged19deserialize_variant, symObjAddr: 0x4D60, symBinAddr: 0x4FC00, symSize: 0xDB0 }
  - { offset: 0x86113, size: 0x8, addend: 0x0, symName: __RNvNtNtCssR9xeAO3IU_12serde_derive2de13enum_untagged27deserialize_newtype_variant, symObjAddr: 0x5B10, symBinAddr: 0x509B0, symSize: 0x8A0 }
  - { offset: 0x86293, size: 0x8, addend: 0x0, symName: __RNCNvNtNtCssR9xeAO3IU_12serde_derive2de7struct_11deserialize0B7_, symObjAddr: 0x1100, symBinAddr: 0x4BFA0, symSize: 0x60 }
  - { offset: 0x862DA, size: 0x8, addend: 0x0, symName: __RNCNvNtNtCssR9xeAO3IU_12serde_derive2de7struct_11deserializes0_0B7_, symObjAddr: 0x1160, symBinAddr: 0x4C000, symSize: 0x20 }
  - { offset: 0x86310, size: 0x8, addend: 0x0, symName: __RNCNvNtNtCssR9xeAO3IU_12serde_derive2de7struct_11deserializes_0B7_, symObjAddr: 0x1180, symBinAddr: 0x4C020, symSize: 0xB0 }
  - { offset: 0x86381, size: 0x8, addend: 0x0, symName: __RNCNvNtNtCssR9xeAO3IU_12serde_derive2de7struct_15deserialize_map0B7_, symObjAddr: 0x1230, symBinAddr: 0x4C0D0, symSize: 0x80 }
  - { offset: 0x863D7, size: 0x8, addend: 0x0, symName: __RNCNvNtNtCssR9xeAO3IU_12serde_derive2de7struct_15deserialize_maps0_0B7_, symObjAddr: 0x12B0, symBinAddr: 0x4C150, symSize: 0x1D0 }
  - { offset: 0x8645A, size: 0x8, addend: 0x0, symName: __RNCNvNtNtCssR9xeAO3IU_12serde_derive2de7struct_15deserialize_maps1_0B7_, symObjAddr: 0x1480, symBinAddr: 0x4C320, symSize: 0x60 }
  - { offset: 0x864A1, size: 0x8, addend: 0x0, symName: __RNCNvNtNtCssR9xeAO3IU_12serde_derive2de7struct_15deserialize_maps2_0B7_, symObjAddr: 0x14E0, symBinAddr: 0x4C380, symSize: 0x12D0 }
  - { offset: 0x86767, size: 0x8, addend: 0x0, symName: __RNCNvNtNtCssR9xeAO3IU_12serde_derive2de7struct_15deserialize_maps3_0B7_, symObjAddr: 0x27B0, symBinAddr: 0x4D650, symSize: 0x30 }
  - { offset: 0x867A0, size: 0x8, addend: 0x0, symName: __RNCNvNtNtCssR9xeAO3IU_12serde_derive2de7struct_15deserialize_maps4_0B7_, symObjAddr: 0x27E0, symBinAddr: 0x4D680, symSize: 0x60 }
  - { offset: 0x867EB, size: 0x8, addend: 0x0, symName: __RNCNvNtNtCssR9xeAO3IU_12serde_derive2de7struct_15deserialize_maps5_0B7_, symObjAddr: 0x2840, symBinAddr: 0x4D6E0, symSize: 0x3C0 }
  - { offset: 0x868A9, size: 0x8, addend: 0x0, symName: __RNCNvNtNtCssR9xeAO3IU_12serde_derive2de7struct_15deserialize_maps6_0B7_, symObjAddr: 0x2C00, symBinAddr: 0x4DAA0, symSize: 0x60 }
  - { offset: 0x868F4, size: 0x8, addend: 0x0, symName: __RNCNvNtNtCssR9xeAO3IU_12serde_derive2de7struct_15deserialize_maps7_0B7_, symObjAddr: 0x2C60, symBinAddr: 0x4DB00, symSize: 0x5B0 }
  - { offset: 0x86A44, size: 0x8, addend: 0x0, symName: __RNCNvNtNtCssR9xeAO3IU_12serde_derive2de7struct_15deserialize_maps8_0B7_, symObjAddr: 0x3210, symBinAddr: 0x4E0B0, symSize: 0x220 }
  - { offset: 0x86B02, size: 0x8, addend: 0x0, symName: __RNCNvNtNtCssR9xeAO3IU_12serde_derive2de7struct_15deserialize_maps_0B7_, symObjAddr: 0x3430, symBinAddr: 0x4E2D0, symSize: 0x60 }
  - { offset: 0x86BBB, size: 0x8, addend: 0x0, symName: __RNvNtNtCssR9xeAO3IU_12serde_derive2de7struct_11deserialize, symObjAddr: 0x63B0, symBinAddr: 0x51250, symSize: 0x3CE0 }
  - { offset: 0x8738C, size: 0x8, addend: 0x0, symName: __RNvNtNtCssR9xeAO3IU_12serde_derive2de7struct_15deserialize_map, symObjAddr: 0xA090, symBinAddr: 0x54F30, symSize: 0x3C30 }
  - { offset: 0x87C55, size: 0x8, addend: 0x0, symName: __RNvNtNtCssR9xeAO3IU_12serde_derive2de7struct_28deserialize_field_identifier, symObjAddr: 0xDCC0, symBinAddr: 0x58B60, symSize: 0xB20 }
  - { offset: 0x888F7, size: 0x8, addend: 0x0, symName: __RNcNtINtNtCsieiGu2EXtoJ_4core6result6ResultuINtNtNtB8_3num7nonzero7NonZerojEE3Err0CssR9xeAO3IU_12serde_derive, symObjAddr: 0x3630, symBinAddr: 0x4E4D0, symSize: 0x10 }
  - { offset: 0x88AB5, size: 0x8, addend: 0x0, symName: __RNvXsq_NtCsieiGu2EXtoJ_4core6resultINtB5_6ResultINtNtB7_6option6OptionNtCsaKzlTDPUHDb_11proc_macro29TokenTreeENtNtCsdGrGZaRBwMb_3syn5error5ErrorEINtNtNtB7_3ops9try_trait12FromResidualIBy_NtNtB7_7convert10InfallibleB1K_EE13from_residualCssR9xeAO3IU_12serde_derive, symObjAddr: 0xFCC0, symBinAddr: 0x5AB60, symSize: 0x60 }
  - { offset: 0x88B3A, size: 0x8, addend: 0x0, symName: __RNvXsq_NtCsieiGu2EXtoJ_4core6resultINtB5_6ResultINtNtB7_6option6OptionNtNtCsdGrGZaRBwMb_3syn2ty4TypeENtNtB1a_5error5ErrorEINtNtNtB7_3ops9try_trait12FromResidualIBy_NtNtB7_7convert10InfallibleB1B_EE13from_residualCssR9xeAO3IU_12serde_derive, symObjAddr: 0xFD20, symBinAddr: 0x5ABC0, symSize: 0x60 }
  - { offset: 0x88BBF, size: 0x8, addend: 0x0, symName: __RNvXsq_NtCsieiGu2EXtoJ_4core6resultINtB5_6ResultINtNtB7_6option6OptionNtNtCsdGrGZaRBwMb_3syn4expr8ExprPathENtNtB1a_5error5ErrorEINtNtNtB7_3ops9try_trait12FromResidualIBy_NtNtB7_7convert10InfallibleB1H_EE13from_residualCssR9xeAO3IU_12serde_derive, symObjAddr: 0xFD80, symBinAddr: 0x5AC20, symSize: 0x60 }
  - { offset: 0x88C44, size: 0x8, addend: 0x0, symName: __RNvXsq_NtCsieiGu2EXtoJ_4core6resultINtB5_6ResultINtNtB7_6option6OptionNtNtCsdGrGZaRBwMb_3syn4path4PathENtNtB1a_5error5ErrorEINtNtNtB7_3ops9try_trait12FromResidualIBy_NtNtB7_7convert10InfallibleB1D_EE13from_residualCssR9xeAO3IU_12serde_derive, symObjAddr: 0xFDE0, symBinAddr: 0x5AC80, symSize: 0x60 }
  - { offset: 0x88CC9, size: 0x8, addend: 0x0, symName: __RNvXsq_NtCsieiGu2EXtoJ_4core6resultINtB5_6ResultINtNtCsdGrGZaRBwMb_3syn10punctuated10PunctuatedNtNtBP_8generics14WherePredicateNtNtBP_5token5CommaENtNtBP_5error5ErrorEINtNtNtB7_3ops9try_trait12FromResidualIBy_NtNtB7_7convert10InfallibleB2l_EE13from_residualCssR9xeAO3IU_12serde_derive, symObjAddr: 0xFE40, symBinAddr: 0x5ACE0, symSize: 0x60 }
  - { offset: 0x88D4E, size: 0x8, addend: 0x0, symName: __RNvXsq_NtCsieiGu2EXtoJ_4core6resultINtB5_6ResultINtNtCsdGrGZaRBwMb_3syn10punctuated10PunctuatedNtNtBP_8generics14WherePredicateNtNtBP_5token5CommaENtNtBP_5error5ErrorEINtNtNtB7_3ops9try_trait12FromResidualIBy_NtNtB7_7convert10InfallibleNtCsaKzlTDPUHDb_11proc_macro28LexErrorEE13from_residualCssR9xeAO3IU_12serde_derive, symObjAddr: 0xFEA0, symBinAddr: 0x5AD40, symSize: 0x60 }
  - { offset: 0x88DB5, size: 0x8, addend: 0x0, symName: __RNvXsq_NtCsieiGu2EXtoJ_4core6resultINtB5_6ResultINtNtCslJiobkLta79_5alloc3vec3VecNtNtCsdGrGZaRBwMb_3syn8generics14WherePredicateENtNtB1l_5error5ErrorEINtNtNtB7_3ops9try_trait12FromResidualIBy_NtNtB7_7convert10InfallibleB23_EE13from_residualCssR9xeAO3IU_12serde_derive, symObjAddr: 0xFF00, symBinAddr: 0x5ADA0, symSize: 0x60 }
  - { offset: 0x88E3A, size: 0x8, addend: 0x0, symName: __RNvXsq_NtCsieiGu2EXtoJ_4core6resultINtB5_6ResultINtNtNtNtCslJiobkLta79_5alloc11collections5btree3set8BTreeSetNtNtCsdGrGZaRBwMb_3syn8lifetime8LifetimeENtNtB1N_5error5ErrorEINtNtNtB7_3ops9try_trait12FromResidualIBy_NtNtB7_7convert10InfallibleB2o_EE13from_residualCssR9xeAO3IU_12serde_derive, symObjAddr: 0xFF60, symBinAddr: 0x5AE00, symSize: 0x60 }
  - { offset: 0x88EBF, size: 0x8, addend: 0x0, symName: __RNvXsq_NtCsieiGu2EXtoJ_4core6resultINtB5_6ResultINtNtNtNtCslJiobkLta79_5alloc11collections5btree3set8BTreeSetNtNtCsdGrGZaRBwMb_3syn8lifetime8LifetimeENtNtB1N_5error5ErrorEINtNtNtB7_3ops9try_trait12FromResidualIBy_NtNtB7_7convert10InfallibleNtCsaKzlTDPUHDb_11proc_macro28LexErrorEE13from_residualCssR9xeAO3IU_12serde_derive, symObjAddr: 0xFFC0, symBinAddr: 0x5AE60, symSize: 0x60 }
  - { offset: 0x88F26, size: 0x8, addend: 0x0, symName: __RNvXsq_NtCsieiGu2EXtoJ_4core6resultINtB5_6ResultNtNtCsdGrGZaRBwMb_3syn2ty4TypeNtNtBO_5error5ErrorEINtNtNtB7_3ops9try_trait12FromResidualIBy_NtNtB7_7convert10InfallibleNtCsaKzlTDPUHDb_11proc_macro28LexErrorEE13from_residualCssR9xeAO3IU_12serde_derive, symObjAddr: 0x10020, symBinAddr: 0x5AEC0, symSize: 0x60 }
  - { offset: 0x88F8D, size: 0x8, addend: 0x0, symName: __RNvXsq_NtCsieiGu2EXtoJ_4core6resultINtB5_6ResultNtNtCsdGrGZaRBwMb_3syn4expr8ExprPathNtNtBO_5error5ErrorEINtNtNtB7_3ops9try_trait12FromResidualIBy_NtNtB7_7convert10InfallibleNtCsaKzlTDPUHDb_11proc_macro28LexErrorEE13from_residualCssR9xeAO3IU_12serde_derive, symObjAddr: 0x10080, symBinAddr: 0x5AF20, symSize: 0x60 }
  - { offset: 0x88FF4, size: 0x8, addend: 0x0, symName: __RNvXsq_NtCsieiGu2EXtoJ_4core6resultINtB5_6ResultNtNtCsdGrGZaRBwMb_3syn4path4PathNtNtBO_5error5ErrorEINtNtNtB7_3ops9try_trait12FromResidualIBy_NtNtB7_7convert10InfallibleNtCsaKzlTDPUHDb_11proc_macro28LexErrorEE13from_residualCssR9xeAO3IU_12serde_derive, symObjAddr: 0x100E0, symBinAddr: 0x5AF80, symSize: 0x60 }
  - { offset: 0x8905B, size: 0x8, addend: 0x0, symName: __RNvXsq_NtCsieiGu2EXtoJ_4core6resultINtB5_6ResultTINtNtB7_6option6OptionINtNtCslJiobkLta79_5alloc3vec3VecNtNtCsdGrGZaRBwMb_3syn8generics14WherePredicateEEBL_ENtNtB1I_5error5ErrorEINtNtNtB7_3ops9try_trait12FromResidualIBy_NtNtB7_7convert10InfallibleB2v_EE13from_residualCssR9xeAO3IU_12serde_derive, symObjAddr: 0x10140, symBinAddr: 0x5AFE0, symSize: 0x60 }
  - { offset: 0x890E0, size: 0x8, addend: 0x0, symName: __RNvXsq_NtCsieiGu2EXtoJ_4core6resultINtB5_6ResultTINtNtB7_6option6OptionNtNtCsdGrGZaRBwMb_3syn3lit6LitStrEBL_ENtNtB1b_5error5ErrorEINtNtNtB7_3ops9try_trait12FromResidualIBy_NtNtB7_7convert10InfallibleB1J_EE13from_residualCssR9xeAO3IU_12serde_derive, symObjAddr: 0x101A0, symBinAddr: 0x5B040, symSize: 0x50 }
  - { offset: 0x89165, size: 0x8, addend: 0x0, symName: __RNvXsq_NtCsieiGu2EXtoJ_4core6resultINtB5_6ResultTINtNtB7_6option6OptionNtNtCsdGrGZaRBwMb_3syn3lit6LitStrEINtNtCslJiobkLta79_5alloc3vec3VecB17_EENtNtB1b_5error5ErrorEINtNtNtB7_3ops9try_trait12FromResidualIBy_NtNtB7_7convert10InfallibleB2i_EE13from_residualCssR9xeAO3IU_12serde_derive, symObjAddr: 0x101F0, symBinAddr: 0x5B090, symSize: 0x60 }
  - { offset: 0x891EA, size: 0x8, addend: 0x0, symName: __RNvXsq_NtCsieiGu2EXtoJ_4core6resultINtB5_6ResultTINtNtNtCssR9xeAO3IU_12serde_derive9internals4attr7VecAttrINtNtCslJiobkLta79_5alloc3vec3VecNtNtCsdGrGZaRBwMb_3syn8generics14WherePredicateEEBL_ENtNtB2h_5error5ErrorEINtNtNtB7_3ops9try_trait12FromResidualIBy_NtNtB7_7convert10InfallibleB34_EE13from_residualBS_, symObjAddr: 0x10250, symBinAddr: 0x5B0F0, symSize: 0x60 }
  - { offset: 0x8926F, size: 0x8, addend: 0x0, symName: __RNvXsq_NtCsieiGu2EXtoJ_4core6resultINtB5_6ResultTINtNtNtCssR9xeAO3IU_12serde_derive9internals4attr7VecAttrNtNtCsdGrGZaRBwMb_3syn3lit6LitStrEBL_ENtNtB1K_5error5ErrorEINtNtNtB7_3ops9try_trait12FromResidualIBy_NtNtB7_7convert10InfallibleB2i_EE13from_residualBS_, symObjAddr: 0x102B0, symBinAddr: 0x5B150, symSize: 0x60 }
  - { offset: 0x8943A, size: 0x8, addend: 0x0, symName: __RNvXsp_NtCsieiGu2EXtoJ_4core6resultINtB5_6ResultINtNtB7_6option6OptionNtCsaKzlTDPUHDb_11proc_macro29TokenTreeENtNtCsdGrGZaRBwMb_3syn5error5ErrorENtNtNtB7_3ops9try_trait3Try6branchCssR9xeAO3IU_12serde_derive, symObjAddr: 0xF050, symBinAddr: 0x59EF0, symSize: 0xD0 }
  - { offset: 0x894B8, size: 0x8, addend: 0x0, symName: __RNvXsp_NtCsieiGu2EXtoJ_4core6resultINtB5_6ResultINtNtB7_6option6OptionNtNtCsdGrGZaRBwMb_3syn2ty4TypeENtNtB1a_5error5ErrorENtNtNtB7_3ops9try_trait3Try6branchCssR9xeAO3IU_12serde_derive, symObjAddr: 0xF120, symBinAddr: 0x59FC0, symSize: 0xE0 }
  - { offset: 0x89536, size: 0x8, addend: 0x0, symName: __RNvXsp_NtCsieiGu2EXtoJ_4core6resultINtB5_6ResultINtNtB7_6option6OptionNtNtCsdGrGZaRBwMb_3syn4expr8ExprPathENtNtB1a_5error5ErrorENtNtNtB7_3ops9try_trait3Try6branchCssR9xeAO3IU_12serde_derive, symObjAddr: 0xF200, symBinAddr: 0x5A0A0, symSize: 0xF0 }
  - { offset: 0x895B4, size: 0x8, addend: 0x0, symName: __RNvXsp_NtCsieiGu2EXtoJ_4core6resultINtB5_6ResultINtNtB7_6option6OptionNtNtCsdGrGZaRBwMb_3syn4path4PathENtNtB1a_5error5ErrorENtNtNtB7_3ops9try_trait3Try6branchCssR9xeAO3IU_12serde_derive, symObjAddr: 0xF2F0, symBinAddr: 0x5A190, symSize: 0xD0 }
  - { offset: 0x89632, size: 0x8, addend: 0x0, symName: __RNvXsp_NtCsieiGu2EXtoJ_4core6resultINtB5_6ResultINtNtCsdGrGZaRBwMb_3syn10punctuated10PunctuatedNtNtBP_8generics14WherePredicateNtNtBP_5token5CommaENtNtBP_5error5ErrorENtNtNtB7_3ops9try_trait3Try6branchCssR9xeAO3IU_12serde_derive, symObjAddr: 0xF3C0, symBinAddr: 0x5A260, symSize: 0xE0 }
  - { offset: 0x896B0, size: 0x8, addend: 0x0, symName: __RNvXsp_NtCsieiGu2EXtoJ_4core6resultINtB5_6ResultINtNtCslJiobkLta79_5alloc3vec3VecNtNtCsdGrGZaRBwMb_3syn8generics14WherePredicateENtNtB1l_5error5ErrorENtNtNtB7_3ops9try_trait3Try6branchCssR9xeAO3IU_12serde_derive, symObjAddr: 0xF4A0, symBinAddr: 0x5A340, symSize: 0xC0 }
  - { offset: 0x8972E, size: 0x8, addend: 0x0, symName: __RNvXsp_NtCsieiGu2EXtoJ_4core6resultINtB5_6ResultINtNtNtNtCslJiobkLta79_5alloc11collections5btree3set8BTreeSetNtNtCsdGrGZaRBwMb_3syn8lifetime8LifetimeENtNtB1N_5error5ErrorENtNtNtB7_3ops9try_trait3Try6branchCssR9xeAO3IU_12serde_derive, symObjAddr: 0xF560, symBinAddr: 0x5A400, symSize: 0xC0 }
  - { offset: 0x897AC, size: 0x8, addend: 0x0, symName: __RNvXsp_NtCsieiGu2EXtoJ_4core6resultINtB5_6ResultNtCsaKzlTDPUHDb_11proc_macro29TokenTreeNtNtCsdGrGZaRBwMb_3syn5error5ErrorENtNtNtB7_3ops9try_trait3Try6branchCssR9xeAO3IU_12serde_derive, symObjAddr: 0xF620, symBinAddr: 0x5A4C0, symSize: 0xD0 }
  - { offset: 0x8982A, size: 0x8, addend: 0x0, symName: __RNvXsp_NtCsieiGu2EXtoJ_4core6resultINtB5_6ResultNtNtCsdGrGZaRBwMb_3syn6derive11DeriveInputNtNtBO_5error5ErrorENtNtNtB7_3ops9try_trait3Try6branchCssR9xeAO3IU_12serde_derive, symObjAddr: 0xF6F0, symBinAddr: 0x5A590, symSize: 0xE0 }
  - { offset: 0x898A8, size: 0x8, addend: 0x0, symName: __RNvXsp_NtCsieiGu2EXtoJ_4core6resultINtB5_6ResultRNtNtCsdGrGZaRBwMb_3syn5parse11ParseBufferNtNtBP_5error5ErrorENtNtNtB7_3ops9try_trait3Try6branchCssR9xeAO3IU_12serde_derive, symObjAddr: 0xF7D0, symBinAddr: 0x5A670, symSize: 0xB0 }
  - { offset: 0x89925, size: 0x8, addend: 0x0, symName: __RNvXsp_NtCsieiGu2EXtoJ_4core6resultINtB5_6ResultTINtNtB7_6option6OptionINtNtCslJiobkLta79_5alloc3vec3VecNtNtCsdGrGZaRBwMb_3syn8generics14WherePredicateEEBL_ENtNtB1I_5error5ErrorENtNtNtB7_3ops9try_trait3Try6branchCssR9xeAO3IU_12serde_derive, symObjAddr: 0xF880, symBinAddr: 0x5A720, symSize: 0xD0 }
  - { offset: 0x899A3, size: 0x8, addend: 0x0, symName: __RNvXsp_NtCsieiGu2EXtoJ_4core6resultINtB5_6ResultTINtNtB7_6option6OptionNtNtCsdGrGZaRBwMb_3syn3lit6LitStrEBL_ENtNtB1b_5error5ErrorENtNtNtB7_3ops9try_trait3Try6branchCssR9xeAO3IU_12serde_derive, symObjAddr: 0xF950, symBinAddr: 0x5A7F0, symSize: 0xC0 }
  - { offset: 0x89A20, size: 0x8, addend: 0x0, symName: __RNvXsp_NtCsieiGu2EXtoJ_4core6resultINtB5_6ResultTINtNtB7_6option6OptionNtNtCsdGrGZaRBwMb_3syn3lit6LitStrEINtNtCslJiobkLta79_5alloc3vec3VecB17_EENtNtB1b_5error5ErrorENtNtNtB7_3ops9try_trait3Try6branchCssR9xeAO3IU_12serde_derive, symObjAddr: 0xFA10, symBinAddr: 0x5A8B0, symSize: 0xD0 }
  - { offset: 0x89A9E, size: 0x8, addend: 0x0, symName: __RNvXsp_NtCsieiGu2EXtoJ_4core6resultINtB5_6ResultTINtNtNtCssR9xeAO3IU_12serde_derive9internals4attr7VecAttrINtNtCslJiobkLta79_5alloc3vec3VecNtNtCsdGrGZaRBwMb_3syn8generics14WherePredicateEEBL_ENtNtB2h_5error5ErrorENtNtNtB7_3ops9try_trait3Try6branchBS_, symObjAddr: 0xFAE0, symBinAddr: 0x5A980, symSize: 0xF0 }
  - { offset: 0x89B1C, size: 0x8, addend: 0x0, symName: __RNvXsp_NtCsieiGu2EXtoJ_4core6resultINtB5_6ResultTINtNtNtCssR9xeAO3IU_12serde_derive9internals4attr7VecAttrNtNtCsdGrGZaRBwMb_3syn3lit6LitStrEBL_ENtNtB1K_5error5ErrorENtNtNtB7_3ops9try_trait3Try6branchBS_, symObjAddr: 0xFBD0, symBinAddr: 0x5AA70, symSize: 0xF0 }
  - { offset: 0x8DAAC, size: 0x8, addend: 0x0, symName: __RINvNtCsieiGu2EXtoJ_4core3mem4takeINtNtCsdGrGZaRBwMb_3syn10punctuated10PunctuatedNtNtBB_4path11PathSegmentNtNtBB_5token7PathSepEECssR9xeAO3IU_12serde_derive, symObjAddr: 0x370, symBinAddr: 0x4B210, symSize: 0x70 }
  - { offset: 0x8DB09, size: 0x8, addend: 0x0, symName: __RINvNtCsieiGu2EXtoJ_4core3mem7replaceNtNtCsdGrGZaRBwMb_3syn4path4PathECssR9xeAO3IU_12serde_derive, symObjAddr: 0x3E0, symBinAddr: 0x4B280, symSize: 0x50 }
  - { offset: 0x8E360, size: 0x8, addend: 0x0, symName: __RINvYINtNtNtNtCsieiGu2EXtoJ_4core4iter8adapters4skip4SkipINtNtCsdGrGZaRBwMb_3syn10punctuated9IntoPairsNtNtBY_4path11PathSegmentNtNtBY_5token7PathSepEENtNtNtBa_6traits8iterator8Iterator7collectINtBW_10PunctuatedB1C_B21_EECssR9xeAO3IU_12serde_derive, symObjAddr: 0x430, symBinAddr: 0x4B2D0, symSize: 0x80 }
  - { offset: 0x8E400, size: 0x8, addend: 0x0, symName: __RNCINvNvNtNtNtNtCsieiGu2EXtoJ_4core4iter6traits8iterator8Iterator3any5checkRNtNtCsdGrGZaRBwMb_3syn8lifetime8LifetimeNCNvNtCssR9xeAO3IU_12serde_derive2de18borrowed_lifetimes0E0B1W_, symObjAddr: 0x4B0, symBinAddr: 0x4B350, symSize: 0x30 }
  - { offset: 0x8E45C, size: 0x8, addend: 0x0, symName: __RNCINvNvNtNtNtNtCsieiGu2EXtoJ_4core4iter6traits8iterator8Iterator3any5checkRNtNtNtCssR9xeAO3IU_12serde_derive9internals3ast5FieldNCNvMs_B1e_NtB1e_4Data10has_getter0E0B1i_, symObjAddr: 0x4E0, symBinAddr: 0x4B380, symSize: 0x30 }
  - { offset: 0x8E4C4, size: 0x8, addend: 0x0, symName: __RNCINvNvNtNtNtNtCsieiGu2EXtoJ_4core4iter6traits8iterator8Iterator4find5checkNtCsaKzlTDPUHDb_11proc_macro25IdentQNCNvNtCssR9xeAO3IU_12serde_derive5bound10with_bounds2_0E0B1S_, symObjAddr: 0x510, symBinAddr: 0x4B3B0, symSize: 0xC0 }
  - { offset: 0x8E522, size: 0x8, addend: 0x0, symName: __RNCINvNvNtNtNtNtCsieiGu2EXtoJ_4core4iter6traits8iterator8Iterator4find5checkTjRNtNtNtCssR9xeAO3IU_12serde_derive9internals3ast5FieldEQNCNvNtB1l_3ser22serialize_tuple_struct0E0B1l_, symObjAddr: 0x5D0, symBinAddr: 0x4B470, symSize: 0x70 }
  - { offset: 0x8E57E, size: 0x8, addend: 0x0, symName: __RNCINvNvNtNtNtNtCsieiGu2EXtoJ_4core4iter6traits8iterator8Iterator4find5checkTjRNtNtNtCssR9xeAO3IU_12serde_derive9internals3ast5FieldEQNCNvNtB1l_3ser23serialize_tuple_variant0E0B1l_, symObjAddr: 0x640, symBinAddr: 0x4B4E0, symSize: 0x70 }
  - { offset: 0x8E5DA, size: 0x8, addend: 0x0, symName: __RNCINvNvNtNtNtNtCsieiGu2EXtoJ_4core4iter6traits8iterator8Iterator4find5checkTjRNtNtNtCssR9xeAO3IU_12serde_derive9internals3ast5FieldEQNCNvNtB1l_3ser30serialize_tuple_struct_visitor0E0B1l_, symObjAddr: 0x6B0, symBinAddr: 0x4B550, symSize: 0x70 }
  - { offset: 0x8E636, size: 0x8, addend: 0x0, symName: __RNCINvNvNtNtNtNtCsieiGu2EXtoJ_4core4iter6traits8iterator8Iterator4find5checkTjRNtNtNtCssR9xeAO3IU_12serde_derive9internals3ast5FieldEQNCNvNtNtB1l_2de7struct_11deserialize0E0B1l_, symObjAddr: 0x720, symBinAddr: 0x4B5C0, symSize: 0x70 }
  - { offset: 0x8E692, size: 0x8, addend: 0x0, symName: __RNCINvNvNtNtNtNtCsieiGu2EXtoJ_4core4iter6traits8iterator8Iterator4find5checkTjRNtNtNtCssR9xeAO3IU_12serde_derive9internals3ast7VariantENCNvNtNtB1l_2de5enum_25prepare_enum_variant_enums_0E0B1l_, symObjAddr: 0x790, symBinAddr: 0x4B630, symSize: 0x70 }
  - { offset: 0x8E6EE, size: 0x8, addend: 0x0, symName: __RNCINvNvNtNtNtNtCsieiGu2EXtoJ_4core4iter6traits8iterator8Iterator4find5checkTjRNtNtNtCssR9xeAO3IU_12serde_derive9internals3ast7VariantEQNCNvNtNtB1l_2de15enum_adjacently11deserialize0E0B1l_, symObjAddr: 0x800, symBinAddr: 0x4B6A0, symSize: 0x70 }
  - { offset: 0x8E74A, size: 0x8, addend: 0x0, symName: __RNCINvNvNtNtNtNtCsieiGu2EXtoJ_4core4iter6traits8iterator8Iterator4find5checkTjRNtNtNtCssR9xeAO3IU_12serde_derive9internals3ast7VariantEQNCNvNtNtB1l_2de15enum_externally11deserialize0E0B1l_, symObjAddr: 0x870, symBinAddr: 0x4B710, symSize: 0x70 }
  - { offset: 0x8E7A6, size: 0x8, addend: 0x0, symName: __RNCINvNvNtNtNtNtCsieiGu2EXtoJ_4core4iter6traits8iterator8Iterator4find5checkTjRNtNtNtCssR9xeAO3IU_12serde_derive9internals3ast7VariantEQNCNvNtNtB1l_2de15enum_internally11deserialize0E0B1l_, symObjAddr: 0x8E0, symBinAddr: 0x4B780, symSize: 0x70 }
  - { offset: 0x8E802, size: 0x8, addend: 0x0, symName: __RNCINvNvNtNtNtNtCsieiGu2EXtoJ_4core4iter6traits8iterator8Iterator4find5checkTjRNtNtNtCssR9xeAO3IU_12serde_derive9internals3ast7VariantEQNCNvNtNtB1l_2de5enum_25prepare_enum_variant_enum0E0B1l_, symObjAddr: 0x950, symBinAddr: 0x4B7F0, symSize: 0x70 }
  - { offset: 0x8E86A, size: 0x8, addend: 0x0, symName: __RNCINvNvNtNtNtNtCsieiGu2EXtoJ_4core4iter6traits8iterator8Iterator8find_map5checkRNtNtNtCssR9xeAO3IU_12serde_derive9internals3ast5FieldRSNtNtCsdGrGZaRBwMb_3syn8generics14WherePredicateQNCNvNtB1n_5bound33with_where_predicates_from_fields0E0B1n_, symObjAddr: 0x9C0, symBinAddr: 0x4B860, symSize: 0x70 }
  - { offset: 0x8E8ED, size: 0x8, addend: 0x0, symName: __RNCINvNvNtNtNtNtCsieiGu2EXtoJ_4core4iter6traits8iterator8Iterator8find_map5checkTjRNtNtNtCssR9xeAO3IU_12serde_derive9internals3ast7VariantENtCsaKzlTDPUHDb_11proc_macro211TokenStreamQNCNvNtNtB1p_2de15enum_adjacently11deserializes1_0E0B1p_, symObjAddr: 0xA30, symBinAddr: 0x4B8D0, symSize: 0xB0 }
  - { offset: 0x8E97C, size: 0x8, addend: 0x0, symName: __RNCINvNvNtNtNtNtCsieiGu2EXtoJ_4core4iter6traits8iterator8Iterator8for_each4callNtCsaKzlTDPUHDb_11proc_macro211TokenStreamNCINvMsi_NtCslJiobkLta79_5alloc3vecINtB24_3VecB1f_E14extend_trustedINtNtNtBc_8adapters3map3MapINtNtB35_9enumerate9EnumerateINtNtNtBe_5slice4iter4IterNtNtNtCssR9xeAO3IU_12serde_derive9internals3ast7VariantEENCNvNtB4q_3ser14serialize_enum0EE0E0B4q_, symObjAddr: 0xAE0, symBinAddr: 0x4B980, symSize: 0x40 }
  - { offset: 0x8E9D5, size: 0x8, addend: 0x0, symName: __RNCINvNvNtNtNtNtCsieiGu2EXtoJ_4core4iter6traits8iterator8Iterator8for_each4callNtCsaKzlTDPUHDb_11proc_macro211TokenStreamNCINvMsi_NtCslJiobkLta79_5alloc3vecINtB24_3VecB1f_E14extend_trustedINtNtNtBc_8adapters3map3MapINtNtNtBe_5slice4iter4IterNtNtNtCssR9xeAO3IU_12serde_derive9internals3ast5FieldENCNvNtB3X_3ser27wrap_serialize_variant_withs_0EE0E0B3X_, symObjAddr: 0xB20, symBinAddr: 0x4B9C0, symSize: 0x40 }
  - { offset: 0x8EA2E, size: 0x8, addend: 0x0, symName: __RNCINvNvNtNtNtNtCsieiGu2EXtoJ_4core4iter6traits8iterator8Iterator8for_each4callNtCsaKzlTDPUHDb_11proc_macro25IdentNCINvMsi_NtCslJiobkLta79_5alloc3vecINtB1X_3VecB1f_E14extend_trustedINtNtNtBc_8adapters3map3MapINtNtNtBe_3ops5range5RangejENCNCNvNtCssR9xeAO3IU_12serde_derive7pretend21pretend_variants_used00EE0E0B3U_, symObjAddr: 0xB60, symBinAddr: 0x4BA00, symSize: 0x40 }
  - { offset: 0x8EA87, size: 0x8, addend: 0x0, symName: __RNCINvNvNtNtNtNtCsieiGu2EXtoJ_4core4iter6traits8iterator8Iterator8for_each4callNtCsaKzlTDPUHDb_11proc_macro29TokenTreeNCINvXsa_NtB1h_8fallbackNtB21_11TokenStreamINtNtBa_7collect6ExtendB1f_E6extendINtNtNtBc_8adapters3map3MapNtNtB1h_12token_stream8IntoIterNCNvNtNtCssR9xeAO3IU_12serde_derive9internals6respan6respan0EE0E0B4c_, symObjAddr: 0xBA0, symBinAddr: 0x4BA40, symSize: 0x40 }
  - { offset: 0x8EAE0, size: 0x8, addend: 0x0, symName: __RNCINvNvNtNtNtNtCsieiGu2EXtoJ_4core4iter6traits8iterator8Iterator8for_each4callNtCscKtU6MdFI5n_10proc_macro9TokenTreeNCINvXsg_B1h_NtB1h_11TokenStreamINtNtBa_7collect12FromIteratorB1f_E9from_iterINtNtNtBc_8adapters3map3MapIB37_NtNtCsaKzlTDPUHDb_11proc_macro212token_stream8IntoIterNCNvNtNtCssR9xeAO3IU_12serde_derive9internals6respan6respan0ENvNtB3G_3imp19into_compiler_tokenEE0E0B4C_, symObjAddr: 0xBE0, symBinAddr: 0x4BA80, symSize: 0x30 }
  - { offset: 0x8EB39, size: 0x8, addend: 0x0, symName: __RNCINvNvNtNtNtNtCsieiGu2EXtoJ_4core4iter6traits8iterator8Iterator8for_each4callNtNtCsdGrGZaRBwMb_3syn4expr6MemberNCINvMsi_NtCslJiobkLta79_5alloc3vecINtB1W_3VecB1f_E14extend_trustedINtNtNtBc_8adapters3map3MapINtNtNtBe_3ops5range5RangejENCNvNtCssR9xeAO3IU_12serde_derive3ser35serialize_adjacently_tagged_variants_0EE0E0B3R_, symObjAddr: 0xC10, symBinAddr: 0x4BAB0, symSize: 0x40 }
  - { offset: 0x8EB92, size: 0x8, addend: 0x0, symName: __RNCINvNvNtNtNtNtCsieiGu2EXtoJ_4core4iter6traits8iterator8Iterator8for_each4callNtNtCsdGrGZaRBwMb_3syn4expr6MemberNCINvMsi_NtCslJiobkLta79_5alloc3vecINtB1W_3VecB1f_E14extend_trustedINtNtNtBc_8adapters3map3MapINtNtNtBe_5slice4iter4IterNtNtNtCssR9xeAO3IU_12serde_derive9internals3ast5FieldENCNvNtB3P_3ser35serialize_adjacently_tagged_variants0_0EE0E0B3P_, symObjAddr: 0xC50, symBinAddr: 0x4BAF0, symSize: 0x40 }
  - { offset: 0x8EBEB, size: 0x8, addend: 0x0, symName: __RNCINvNvNtNtNtNtCsieiGu2EXtoJ_4core4iter6traits8iterator8Iterator8for_each4callNtNtCsdGrGZaRBwMb_3syn8lifetime8LifetimeNCINvXsl_NtNtNtCslJiobkLta79_5alloc11collections5btree3setINtB22_8BTreeSetB1f_EINtNtBa_7collect6ExtendB1f_E6extendINtNtNtBc_8adapters6cloned6ClonedINtB22_4IterB1f_EEE0E0CssR9xeAO3IU_12serde_derive, symObjAddr: 0xC90, symBinAddr: 0x4BB30, symSize: 0x40 }
  - { offset: 0x8EC44, size: 0x8, addend: 0x0, symName: __RNCINvNvNtNtNtNtCsieiGu2EXtoJ_4core4iter6traits8iterator8Iterator8for_each4callNtNtCsdGrGZaRBwMb_3syn8lifetime8LifetimeNCINvXsl_NtNtNtCslJiobkLta79_5alloc11collections5btree3setINtB22_8BTreeSetB1f_EINtNtBa_7collect6ExtendB1f_E6extendINtNtNtBc_8adapters6cloned6ClonedINtNtBe_6option4IterB1f_EEE0E0CssR9xeAO3IU_12serde_derive, symObjAddr: 0xCD0, symBinAddr: 0x4BB70, symSize: 0x40 }
  - { offset: 0x8EC9D, size: 0x8, addend: 0x0, symName: __RNCINvNvNtNtNtNtCsieiGu2EXtoJ_4core4iter6traits8iterator8Iterator8for_each4callNtNtCssR9xeAO3IU_12serde_derive2de16FieldWithAliasesNCINvMsi_NtCslJiobkLta79_5alloc3vecINtB2e_3VecB1f_E14extend_trustedINtNtNtBc_8adapters3map3MapINtNtNtBe_5slice4iter4IterNtNtNtB1j_9internals3ast7VariantENCNvNtB1h_10identifier18deserialize_customs_0EE0E0B1j_, symObjAddr: 0xD10, symBinAddr: 0x4BBB0, symSize: 0x40 }
  - { offset: 0x8ECF6, size: 0x8, addend: 0x0, symName: __RNCINvNvNtNtNtNtCsieiGu2EXtoJ_4core4iter6traits8iterator8Iterator8for_each4callRNtCsaKzlTDPUHDb_11proc_macro25IdentNCINvMsi_NtCslJiobkLta79_5alloc3vecINtB1Y_3VecB1f_E14extend_trustedINtNtNtBc_8adapters3map3MapINtNtNtBe_5slice4iter4IterNtNtCssR9xeAO3IU_12serde_derive2de16FieldWithAliasesENCNvNtB3N_10identifier21deserialize_generated0EE0E0B3P_, symObjAddr: 0xD50, symBinAddr: 0x4BBF0, symSize: 0x20 }
  - { offset: 0x8ED4E, size: 0x8, addend: 0x0, symName: __RNCINvNvNtNtNtNtCsieiGu2EXtoJ_4core4iter6traits8iterator8Iterator8for_each4callRNtNtCsdGrGZaRBwMb_3syn2ty4TypeNCINvMsi_NtCslJiobkLta79_5alloc3vecINtB1T_3VecB1f_E14extend_trustedINtNtNtBc_8adapters3map3MapINtNtNtBe_5slice4iter4IterNtNtNtCssR9xeAO3IU_12serde_derive9internals3ast5FieldENCNvNtB3M_3ser27wrap_serialize_variant_with0EE0E0B3M_, symObjAddr: 0xD70, symBinAddr: 0x4BC10, symSize: 0x20 }
  - { offset: 0x8EDA6, size: 0x8, addend: 0x0, symName: __RNCINvNvNtNtNtNtCsieiGu2EXtoJ_4core4iter6traits8iterator8Iterator8for_each4callRNtNtCsdGrGZaRBwMb_3syn4expr6MemberNCINvMsi_NtCslJiobkLta79_5alloc3vecINtB1X_3VecB1f_E14extend_trustedINtNtNtBc_8adapters3map3MapINtNtNtBe_5slice4iter4IterNtNtNtCssR9xeAO3IU_12serde_derive9internals3ast5FieldENCNvNtB3Q_3ser37serialize_struct_variant_with_flattens0_0EE0E0B3Q_, symObjAddr: 0xD90, symBinAddr: 0x4BC30, symSize: 0x20 }
  - { offset: 0x8EDFE, size: 0x8, addend: 0x0, symName: __RNCINvNvNtNtNtNtCsieiGu2EXtoJ_4core4iter6traits8iterator8Iterator8for_each4callRNtNtCsdGrGZaRBwMb_3syn4expr6MemberNCINvMsi_NtCslJiobkLta79_5alloc3vecINtB1X_3VecB1f_E14extend_trustedINtNtNtBc_8adapters3map3MapINtNtNtBe_5slice4iter4IterNtNtNtCssR9xeAO3IU_12serde_derive9internals3ast5FieldENCNvNtB3Q_7pretend33pretend_fields_used_struct_packed0EE0E0B3Q_, symObjAddr: 0xDB0, symBinAddr: 0x4BC50, symSize: 0x20 }
  - { offset: 0x8EE56, size: 0x8, addend: 0x0, symName: __RNCINvNvNtNtNtNtCsieiGu2EXtoJ_4core4iter6traits8iterator8Iterator8for_each4callTNtCsaKzlTDPUHDb_11proc_macro25IdentuENCINvXs1i_NtCsjK30CmJ87bX_9hashbrown3mapINtB21_7HashMapB1g_uNtNtNtCsHUR1vrdMJt_3std4hash6random11RandomStateEINtNtBa_7collect6ExtendB1f_E6extendINtNtNtBc_8adapters3map3MapIB4c_NtNtCsdGrGZaRBwMb_3syn8generics10TypeParamsNCNvNtCssR9xeAO3IU_12serde_derive5bound10with_bound0ENCINvXs8_NtB23_3setINtB6o_7HashSetB1g_B2P_EIB3D_B1g_E6extendB4C_E0EE0E0B5u_, symObjAddr: 0xDD0, symBinAddr: 0x4BC70, symSize: 0x40 }
  - { offset: 0x8EEAF, size: 0x8, addend: 0x0, symName: __RNCINvNvNtNtNtNtCsieiGu2EXtoJ_4core4iter6traits8iterator8Iterator8for_each4callTRNtNtNtCssR9xeAO3IU_12serde_derive9internals3ast5FieldNtCsaKzlTDPUHDb_11proc_macro25IdentENCINvMsi_NtCslJiobkLta79_5alloc3vecINtB2R_3VecB1f_E14extend_trustedINtNtNtBc_8adapters3map3MapINtNtB3S_9enumerate9EnumerateINtNtNtBe_5slice4iter4IterB1h_EENCNvNtNtB1n_2de7struct_15deserialize_map0EE0E0B1n_, symObjAddr: 0xE10, symBinAddr: 0x4BCB0, symSize: 0x40 }
  - { offset: 0x8EF08, size: 0x8, addend: 0x0, symName: __RNCINvNvNtNtNtNtCsieiGu2EXtoJ_4core4iter6traits8iterator8Iterator8for_each4callhNCINvMsi_NtCslJiobkLta79_5alloc3vecINtB1p_3VechE14extend_trustedINtNtNtBc_8adapters3map3MapINtNtNtBe_5slice4iter4IterhENCNvNtB1r_3str13replace_ascii0EE0E0CssR9xeAO3IU_12serde_derive, symObjAddr: 0xE50, symBinAddr: 0x4BCF0, symSize: 0x20 }
  - { offset: 0x8EF71, size: 0x8, addend: 0x0, symName: __RNCNvXs_NvNtNtNtNtCsieiGu2EXtoJ_4core4iter6traits8iterator8Iterator10advance_byINtNtCsdGrGZaRBwMb_3syn10punctuated11PrivateIterNtNtB1k_2ty4TypeNtNtB1k_5token5CommaENtB6_13SpecAdvanceBy15spec_advance_by0CssR9xeAO3IU_12serde_derive, symObjAddr: 0x3490, symBinAddr: 0x4E330, symSize: 0x20 }
  - { offset: 0x8EFBE, size: 0x8, addend: 0x0, symName: __RNCNvXs_NvNtNtNtNtCsieiGu2EXtoJ_4core4iter6traits8iterator8Iterator10advance_byINtNtCsdGrGZaRBwMb_3syn10punctuated11PrivateIterNtNtB1k_2ty9BareFnArgNtNtB1k_5token5CommaENtB6_13SpecAdvanceBy15spec_advance_by0CssR9xeAO3IU_12serde_derive, symObjAddr: 0x34B0, symBinAddr: 0x4E350, symSize: 0x20 }
  - { offset: 0x8F00B, size: 0x8, addend: 0x0, symName: __RNCNvXs_NvNtNtNtNtCsieiGu2EXtoJ_4core4iter6traits8iterator8Iterator10advance_byINtNtCsdGrGZaRBwMb_3syn10punctuated11PrivateIterNtNtB1k_4data7VariantNtNtB1k_5token5CommaENtB6_13SpecAdvanceBy15spec_advance_by0CssR9xeAO3IU_12serde_derive, symObjAddr: 0x34D0, symBinAddr: 0x4E370, symSize: 0x20 }
  - { offset: 0x8F058, size: 0x8, addend: 0x0, symName: __RNCNvXs_NvNtNtNtNtCsieiGu2EXtoJ_4core4iter6traits8iterator8Iterator10advance_byINtNtCsdGrGZaRBwMb_3syn10punctuated11PrivateIterNtNtB1k_4path15GenericArgumentNtNtB1k_5token5CommaENtB6_13SpecAdvanceBy15spec_advance_by0CssR9xeAO3IU_12serde_derive, symObjAddr: 0x34F0, symBinAddr: 0x4E390, symSize: 0x20 }
  - { offset: 0x8F0A5, size: 0x8, addend: 0x0, symName: __RNCNvXs_NvNtNtNtNtCsieiGu2EXtoJ_4core4iter6traits8iterator8Iterator10advance_byINtNtCsdGrGZaRBwMb_3syn10punctuated14PrivateIterMutNtNtB1k_2ty4TypeNtNtB1k_5token5CommaENtB6_13SpecAdvanceBy15spec_advance_by0CssR9xeAO3IU_12serde_derive, symObjAddr: 0x3510, symBinAddr: 0x4E3B0, symSize: 0x20 }
  - { offset: 0x8F0F2, size: 0x8, addend: 0x0, symName: __RNCNvXs_NvNtNtNtNtCsieiGu2EXtoJ_4core4iter6traits8iterator8Iterator10advance_byINtNtCsdGrGZaRBwMb_3syn10punctuated14PrivateIterMutNtNtB1k_2ty9BareFnArgNtNtB1k_5token5CommaENtB6_13SpecAdvanceBy15spec_advance_by0CssR9xeAO3IU_12serde_derive, symObjAddr: 0x3530, symBinAddr: 0x4E3D0, symSize: 0x20 }
  - { offset: 0x8F13F, size: 0x8, addend: 0x0, symName: __RNCNvXs_NvNtNtNtNtCsieiGu2EXtoJ_4core4iter6traits8iterator8Iterator10advance_byINtNtCsdGrGZaRBwMb_3syn10punctuated14PrivateIterMutNtNtB1k_4data7VariantNtNtB1k_5token5CommaENtB6_13SpecAdvanceBy15spec_advance_by0CssR9xeAO3IU_12serde_derive, symObjAddr: 0x3550, symBinAddr: 0x4E3F0, symSize: 0x20 }
  - { offset: 0x8F18C, size: 0x8, addend: 0x0, symName: __RNCNvXs_NvNtNtNtNtCsieiGu2EXtoJ_4core4iter6traits8iterator8Iterator10advance_byINtNtCsdGrGZaRBwMb_3syn10punctuated14PrivateIterMutNtNtB1k_4expr4ExprNtNtB1k_5token5CommaENtB6_13SpecAdvanceBy15spec_advance_by0CssR9xeAO3IU_12serde_derive, symObjAddr: 0x3570, symBinAddr: 0x4E410, symSize: 0x20 }
  - { offset: 0x8F1D9, size: 0x8, addend: 0x0, symName: __RNCNvXs_NvNtNtNtNtCsieiGu2EXtoJ_4core4iter6traits8iterator8Iterator10advance_byINtNtCsdGrGZaRBwMb_3syn10punctuated14PrivateIterMutNtNtB1k_4path15GenericArgumentNtNtB1k_5token5CommaENtB6_13SpecAdvanceBy15spec_advance_by0CssR9xeAO3IU_12serde_derive, symObjAddr: 0x3590, symBinAddr: 0x4E430, symSize: 0x20 }
  - { offset: 0x8F226, size: 0x8, addend: 0x0, symName: __RNCNvXs_NvNtNtNtNtCsieiGu2EXtoJ_4core4iter6traits8iterator8Iterator10advance_byINtNtCsdGrGZaRBwMb_3syn10punctuated14PrivateIterMutNtNtB1k_8generics14TypeParamBoundNtNtB1k_5token4PlusENtB6_13SpecAdvanceBy15spec_advance_by0CssR9xeAO3IU_12serde_derive, symObjAddr: 0x35B0, symBinAddr: 0x4E450, symSize: 0x20 }
  - { offset: 0x8F273, size: 0x8, addend: 0x0, symName: __RNCNvXs_NvNtNtNtNtCsieiGu2EXtoJ_4core4iter6traits8iterator8Iterator10advance_byINtNtCsdGrGZaRBwMb_3syn10punctuated14PrivateIterMutNtNtB1k_8generics14WherePredicateNtNtB1k_5token5CommaENtB6_13SpecAdvanceBy15spec_advance_by0CssR9xeAO3IU_12serde_derive, symObjAddr: 0x35D0, symBinAddr: 0x4E470, symSize: 0x20 }
  - { offset: 0x8F2C0, size: 0x8, addend: 0x0, symName: __RNCNvXs_NvNtNtNtNtCsieiGu2EXtoJ_4core4iter6traits8iterator8Iterator10advance_byINtNtCsdGrGZaRBwMb_3syn10punctuated9IntoPairsNtNtB1k_4path11PathSegmentNtNtB1k_5token7PathSepENtB6_13SpecAdvanceBy15spec_advance_by0CssR9xeAO3IU_12serde_derive, symObjAddr: 0x35F0, symBinAddr: 0x4E490, symSize: 0x40 }
  - { offset: 0x8F376, size: 0x8, addend: 0x0, symName: __RNCINvXsK_NtNtNtCsieiGu2EXtoJ_4core4iter6traits5accumjNtB8_3Sum3sumINtNtNtBc_8adapters3map3MapINtNtNtBe_5slice4iter4IterNtNtNtCssR9xeAO3IU_12serde_derive9internals3ast5FieldENCINvNvXs1_NtB18_6filterINtB2X_6FilterppENtNtBa_8iterator8Iterator5count8to_usizeRB1U_NCNvNtB20_2de15deserialize_seq0E0EE0B20_, symObjAddr: 0xE70, symBinAddr: 0x4BD10, symSize: 0x40 }
  - { offset: 0x8F3C3, size: 0x8, addend: 0x0, symName: __RNCINvXsK_NtNtNtCsieiGu2EXtoJ_4core4iter6traits5accumjNtB8_3Sum3sumINtNtNtBc_8adapters3map3MapINtNtNtBe_5slice4iter4IterNtNtNtCssR9xeAO3IU_12serde_derive9internals3ast5FieldENCINvNvXs1_NtB18_6filterINtB2X_6FilterppENtNtBa_8iterator8Iterator5count8to_usizeRB1U_NCNvNtNtB20_2de5tuple11deserialize0E0EE0B20_, symObjAddr: 0xEB0, symBinAddr: 0x4BD50, symSize: 0x40 }
  - { offset: 0x8F42B, size: 0x8, addend: 0x0, symName: __RNvXNtNtNtCsieiGu2EXtoJ_4core4iter6traits7collectINtNtNtB6_8adapters4skip4SkipINtNtCsdGrGZaRBwMb_3syn10punctuated9IntoPairsNtNtB1j_4path11PathSegmentNtNtB1j_5token7PathSepEENtB2_12IntoIterator9into_iterCssR9xeAO3IU_12serde_derive, symObjAddr: 0xE8F0, symBinAddr: 0x59790, symSize: 0x30 }
  - { offset: 0x8F475, size: 0x8, addend: 0x0, symName: __RNvXs_NtNtNtCsieiGu2EXtoJ_4core4iter8adapters4skipINtB4_4SkipINtNtCsdGrGZaRBwMb_3syn10punctuated9IntoPairsNtNtB12_4path11PathSegmentNtNtB12_5token7PathSepEENtNtNtB8_6traits8iterator8Iterator4nextCssR9xeAO3IU_12serde_derive, symObjAddr: 0xEFD0, symBinAddr: 0x59E70, symSize: 0x80 }
  - { offset: 0x8FC75, size: 0x8, addend: 0x0, symName: __RNvMNtCsieiGu2EXtoJ_4core5sliceSNtNtCsdGrGZaRBwMb_3syn4expr6Member4iterCssR9xeAO3IU_12serde_derive, symObjAddr: 0x3900, symBinAddr: 0x4E7A0, symSize: 0x20 }
  - { offset: 0x8FCAC, size: 0x8, addend: 0x0, symName: __RNvMNtCsieiGu2EXtoJ_4core5sliceSNtNtCsdGrGZaRBwMb_3syn4expr6Member8is_emptyCssR9xeAO3IU_12serde_derive, symObjAddr: 0x3920, symBinAddr: 0x4E7C0, symSize: 0x20 }
  - { offset: 0x8FCE1, size: 0x8, addend: 0x0, symName: __RNvMNtCsieiGu2EXtoJ_4core5sliceSRNtNtCsdGrGZaRBwMb_3syn4expr6Member4iterCssR9xeAO3IU_12serde_derive, symObjAddr: 0x3940, symBinAddr: 0x4E7E0, symSize: 0x20 }
  - { offset: 0x8FD18, size: 0x8, addend: 0x0, symName: __RNvMNtCsieiGu2EXtoJ_4core5sliceSTNtNtCsdGrGZaRBwMb_3syn4expr4ExprNtNtBz_5token5CommaE8iter_mutCssR9xeAO3IU_12serde_derive, symObjAddr: 0x3960, symBinAddr: 0x4E800, symSize: 0x20 }
  - { offset: 0x8FD8A, size: 0x8, addend: 0x0, symName: __RNvNtNtCsieiGu2EXtoJ_4core5slice6memchr6memchrCssR9xeAO3IU_12serde_derive, symObjAddr: 0x3D50, symBinAddr: 0x4EBF0, symSize: 0xE0 }
  - { offset: 0x90A0C, size: 0x8, addend: 0x0, symName: __RNvXs1_NtNtNtCsieiGu2EXtoJ_4core3ops8function5implsQNCNvNtNtCssR9xeAO3IU_12serde_derive2de13enum_untagged11deserialize0INtB7_5FnMutTRRNtNtNtBW_9internals3ast7VariantEE8call_mutBW_, symObjAddr: 0xEBA0, symBinAddr: 0x59A40, symSize: 0x30 }
  - { offset: 0x90A5B, size: 0x8, addend: 0x0, symName: __RNvXs1_NtNtNtCsieiGu2EXtoJ_4core3ops8function5implsQNCNvNtNtCssR9xeAO3IU_12serde_derive2de7struct_11deserialize0INtB7_5FnMutTRTjRNtNtNtBW_9internals3ast5FieldEEE8call_mutBW_, symObjAddr: 0xEBD0, symBinAddr: 0x59A70, symSize: 0x30 }
  - { offset: 0x90AAA, size: 0x8, addend: 0x0, symName: __RNvXs1_NtNtNtCsieiGu2EXtoJ_4core3ops8function5implsQNCNvNtNtCssR9xeAO3IU_12serde_derive2de7struct_15deserialize_maps1_0INtB7_5FnMutTRRTRNtNtNtBW_9internals3ast5FieldNtCsaKzlTDPUHDb_11proc_macro25IdentEEE8call_mutBW_, symObjAddr: 0xEC00, symBinAddr: 0x59AA0, symSize: 0x30 }
  - { offset: 0x90AF9, size: 0x8, addend: 0x0, symName: __RNvXs1_NtNtNtCsieiGu2EXtoJ_4core3ops8function5implsQNCNvNtNtCssR9xeAO3IU_12serde_derive2de7struct_15deserialize_maps4_0INtB7_5FnMutTRRTRNtNtNtBW_9internals3ast5FieldNtCsaKzlTDPUHDb_11proc_macro25IdentEEE8call_mutBW_, symObjAddr: 0xEC30, symBinAddr: 0x59AD0, symSize: 0x30 }
  - { offset: 0x90B48, size: 0x8, addend: 0x0, symName: __RNvXs1_NtNtNtCsieiGu2EXtoJ_4core3ops8function5implsQNCNvNtNtCssR9xeAO3IU_12serde_derive2de7struct_15deserialize_maps6_0INtB7_5FnMutTRRTRNtNtNtBW_9internals3ast5FieldNtCsaKzlTDPUHDb_11proc_macro25IdentEEE8call_mutBW_, symObjAddr: 0xEC60, symBinAddr: 0x59B00, symSize: 0x30 }
  - { offset: 0x90B97, size: 0x8, addend: 0x0, symName: __RNvXs1_NtNtNtCsieiGu2EXtoJ_4core3ops8function5implsQNCNvNtNtCssR9xeAO3IU_12serde_derive2de7struct_15deserialize_maps_0INtB7_5FnMutTRRTRNtNtNtBW_9internals3ast5FieldNtCsaKzlTDPUHDb_11proc_macro25IdentEEE8call_mutBW_, symObjAddr: 0xEC90, symBinAddr: 0x59B30, symSize: 0x30 }
  - { offset: 0x9168A, size: 0x8, addend: 0x0, symName: __RNvXs_NtCslJiobkLta79_5alloc5allocNtB4_6GlobalNtNtCsieiGu2EXtoJ_4core5alloc9Allocator10deallocateCssR9xeAO3IU_12serde_derive, symObjAddr: 0xEF30, symBinAddr: 0x59DD0, symSize: 0x70 }
  - { offset: 0x91752, size: 0x8, addend: 0x0, symName: __RNvXs_NtCslJiobkLta79_5alloc5allocNtB4_6GlobalNtNtCsieiGu2EXtoJ_4core5alloc9Allocator8allocateCssR9xeAO3IU_12serde_derive, symObjAddr: 0xEFA0, symBinAddr: 0x59E40, symSize: 0x30 }
  - { offset: 0x9178D, size: 0x8, addend: 0x0, symName: __RNvNtCslJiobkLta79_5alloc5alloc15exchange_mallocCssR9xeAO3IU_12serde_derive, symObjAddr: 0x3CB0, symBinAddr: 0x4EB50, symSize: 0xA0 }
  - { offset: 0x91829, size: 0x8, addend: 0x0, symName: __RNvXs1_NtCslJiobkLta79_5alloc5allocNtB5_6GlobalNtNtCsieiGu2EXtoJ_4core5clone5Clone5cloneCssR9xeAO3IU_12serde_derive, symObjAddr: 0xEB90, symBinAddr: 0x59A30, symSize: 0x10 }
  - { offset: 0x91857, size: 0x8, addend: 0x0, symName: __RNvXs2_NtCslJiobkLta79_5alloc5allocNtB5_6GlobalNtNtCsieiGu2EXtoJ_4core7default7Default7defaultCssR9xeAO3IU_12serde_derive, symObjAddr: 0xECC0, symBinAddr: 0x59B60, symSize: 0x10 }
  - { offset: 0x9222A, size: 0x8, addend: 0x0, symName: __RINvMNtCslJiobkLta79_5alloc5sliceSNtNtCsdGrGZaRBwMb_3syn4expr6Member8into_vecNtNtB5_5alloc6GlobalECssR9xeAO3IU_12serde_derive, symObjAddr: 0xD0, symBinAddr: 0x4AF70, symSize: 0x40 }
  - { offset: 0x939EA, size: 0x8, addend: 0x0, symName: __RINvNtCsdGrGZaRBwMb_3syn5token7PathSepNtCsaKzlTDPUHDb_11proc_macro24SpanECssR9xeAO3IU_12serde_derive, symObjAddr: 0x330, symBinAddr: 0x4B1D0, symSize: 0x40 }
  - { offset: 0x97B8F, size: 0x8, addend: 0x0, symName: __RNvXs0_NtCsdGrGZaRBwMb_3syn5dropsINtB5_6NoDropDINtNtB7_10punctuated12IterMutTraitNtNtB7_2ty4TypeEp4ItemQB1h_EL_ENtNtNtCsieiGu2EXtoJ_4core3ops5deref8DerefMut9deref_mutCssR9xeAO3IU_12serde_derive, symObjAddr: 0xE950, symBinAddr: 0x597F0, symSize: 0x30 }
  - { offset: 0x97BC4, size: 0x8, addend: 0x0, symName: __RNvXs0_NtCsdGrGZaRBwMb_3syn5dropsINtB5_6NoDropDINtNtB7_10punctuated12IterMutTraitNtNtB7_2ty9BareFnArgEp4ItemQB1h_EL_ENtNtNtCsieiGu2EXtoJ_4core3ops5deref8DerefMut9deref_mutCssR9xeAO3IU_12serde_derive, symObjAddr: 0xE980, symBinAddr: 0x59820, symSize: 0x30 }
  - { offset: 0x97BF9, size: 0x8, addend: 0x0, symName: __RNvXs0_NtCsdGrGZaRBwMb_3syn5dropsINtB5_6NoDropDINtNtB7_10punctuated12IterMutTraitNtNtB7_4data5FieldEp4ItemQB1h_EL_ENtNtNtCsieiGu2EXtoJ_4core3ops5deref8DerefMut9deref_mutCssR9xeAO3IU_12serde_derive, symObjAddr: 0xE9B0, symBinAddr: 0x59850, symSize: 0x30 }
  - { offset: 0x97C2E, size: 0x8, addend: 0x0, symName: __RNvXs0_NtCsdGrGZaRBwMb_3syn5dropsINtB5_6NoDropDINtNtB7_10punctuated12IterMutTraitNtNtB7_4data7VariantEp4ItemQB1h_EL_ENtNtNtCsieiGu2EXtoJ_4core3ops5deref8DerefMut9deref_mutCssR9xeAO3IU_12serde_derive, symObjAddr: 0xE9E0, symBinAddr: 0x59880, symSize: 0x30 }
  - { offset: 0x97C63, size: 0x8, addend: 0x0, symName: __RNvXs0_NtCsdGrGZaRBwMb_3syn5dropsINtB5_6NoDropDINtNtB7_10punctuated12IterMutTraitNtNtB7_4expr4ExprEp4ItemQB1h_EL_ENtNtNtCsieiGu2EXtoJ_4core3ops5deref8DerefMut9deref_mutCssR9xeAO3IU_12serde_derive, symObjAddr: 0xEA10, symBinAddr: 0x598B0, symSize: 0x30 }
  - { offset: 0x97C98, size: 0x8, addend: 0x0, symName: __RNvXs0_NtCsdGrGZaRBwMb_3syn5dropsINtB5_6NoDropDINtNtB7_10punctuated12IterMutTraitNtNtB7_4path15GenericArgumentEp4ItemQB1h_EL_ENtNtNtCsieiGu2EXtoJ_4core3ops5deref8DerefMut9deref_mutCssR9xeAO3IU_12serde_derive, symObjAddr: 0xEA40, symBinAddr: 0x598E0, symSize: 0x30 }
  - { offset: 0x97CCD, size: 0x8, addend: 0x0, symName: __RNvXs0_NtCsdGrGZaRBwMb_3syn5dropsINtB5_6NoDropDINtNtB7_10punctuated12IterMutTraitNtNtB7_8generics14TypeParamBoundEp4ItemQB1h_EL_ENtNtNtCsieiGu2EXtoJ_4core3ops5deref8DerefMut9deref_mutCssR9xeAO3IU_12serde_derive, symObjAddr: 0xEA70, symBinAddr: 0x59910, symSize: 0x30 }
  - { offset: 0x97D02, size: 0x8, addend: 0x0, symName: __RNvXs0_NtCsdGrGZaRBwMb_3syn5dropsINtB5_6NoDropDINtNtB7_10punctuated12IterMutTraitNtNtB7_8generics14WherePredicateEp4ItemQB1h_EL_ENtNtNtCsieiGu2EXtoJ_4core3ops5deref8DerefMut9deref_mutCssR9xeAO3IU_12serde_derive, symObjAddr: 0xEAA0, symBinAddr: 0x59940, symSize: 0x30 }
  - { offset: 0x97D37, size: 0x8, addend: 0x0, symName: __RNvXs0_NtCsdGrGZaRBwMb_3syn5dropsINtB5_6NoDropDINtNtB7_10punctuated9IterTraitNtNtB7_2ty4TypeEp4ItemRB1d_EL_ENtNtNtCsieiGu2EXtoJ_4core3ops5deref8DerefMut9deref_mutCssR9xeAO3IU_12serde_derive, symObjAddr: 0xEAD0, symBinAddr: 0x59970, symSize: 0x30 }
  - { offset: 0x97D6C, size: 0x8, addend: 0x0, symName: __RNvXs0_NtCsdGrGZaRBwMb_3syn5dropsINtB5_6NoDropDINtNtB7_10punctuated9IterTraitNtNtB7_2ty9BareFnArgEp4ItemRB1d_EL_ENtNtNtCsieiGu2EXtoJ_4core3ops5deref8DerefMut9deref_mutCssR9xeAO3IU_12serde_derive, symObjAddr: 0xEB00, symBinAddr: 0x599A0, symSize: 0x30 }
  - { offset: 0x97DA1, size: 0x8, addend: 0x0, symName: __RNvXs0_NtCsdGrGZaRBwMb_3syn5dropsINtB5_6NoDropDINtNtB7_10punctuated9IterTraitNtNtB7_4data7VariantEp4ItemRB1d_EL_ENtNtNtCsieiGu2EXtoJ_4core3ops5deref8DerefMut9deref_mutCssR9xeAO3IU_12serde_derive, symObjAddr: 0xEB30, symBinAddr: 0x599D0, symSize: 0x30 }
  - { offset: 0x97DD6, size: 0x8, addend: 0x0, symName: __RNvXs0_NtCsdGrGZaRBwMb_3syn5dropsINtB5_6NoDropDINtNtB7_10punctuated9IterTraitNtNtB7_4path15GenericArgumentEp4ItemRB1d_EL_ENtNtNtCsieiGu2EXtoJ_4core3ops5deref8DerefMut9deref_mutCssR9xeAO3IU_12serde_derive, symObjAddr: 0xEB60, symBinAddr: 0x59A00, symSize: 0x30 }
  - { offset: 0x97E11, size: 0x8, addend: 0x0, symName: __RNvXs_NtCsdGrGZaRBwMb_3syn5dropsINtB4_6NoDropDINtNtB6_10punctuated9IterTraitNtNtB6_4data7VariantEp4ItemRB1c_EL_ENtNtNtCsieiGu2EXtoJ_4core3ops5deref5Deref5derefCssR9xeAO3IU_12serde_derive, symObjAddr: 0xEF00, symBinAddr: 0x59DA0, symSize: 0x30 }
  - { offset: 0x97FBA, size: 0x8, addend: 0x0, symName: __RNvXNtCsdGrGZaRBwMb_3syn7spannedNtNtB4_4expr8ExprPathNtB2_7Spanned4spanCssR9xeAO3IU_12serde_derive, symObjAddr: 0xE8D0, symBinAddr: 0x59770, symSize: 0x20 }
  - { offset: 0x983EA, size: 0x8, addend: 0x0, symName: __RINvMNtCsieiGu2EXtoJ_4core6resultINtB3_6ResultNtCsaKzlTDPUHDb_11proc_macro211TokenStreamNtNtCsdGrGZaRBwMb_3syn5error5ErrorE14unwrap_or_elseNvMB1q_B1o_18into_compile_errorECssR9xeAO3IU_12serde_derive, symObjAddr: 0x0, symBinAddr: 0x4AEA0, symSize: 0xD0 }
  - { offset: 0x984FF, size: 0x8, addend: 0x0, symName: __RINvMsiX_NtCsdGrGZaRBwMb_3syn5tokenNtB7_5Brace8surroundNCNvXNtCssR9xeAO3IU_12serde_derive8fragmentNtBW_4ExprNtNtCs9OU1sGv5X54_5quote9to_tokens8ToTokens9to_tokens0EBY_, symObjAddr: 0x110, symBinAddr: 0x4AFB0, symSize: 0x110 }
  - { offset: 0x98560, size: 0x8, addend: 0x0, symName: __RINvMsiX_NtCsdGrGZaRBwMb_3syn5tokenNtB7_5Brace8surroundNCNvXs0_NtCssR9xeAO3IU_12serde_derive8fragmentNtBZ_5MatchNtNtCs9OU1sGv5X54_5quote9to_tokens8ToTokens9to_tokens0EB11_, symObjAddr: 0x220, symBinAddr: 0x4B0C0, symSize: 0x110 }
  - { offset: 0x98C26, size: 0x8, addend: 0x0, symName: __RNvMNtCsdGrGZaRBwMb_3syn5dropsINtB2_6NoDropINtNtB4_10punctuated11PrivateIterNtNtB4_2ty4TypeNtNtB4_5token5CommaEE3newCssR9xeAO3IU_12serde_derive, symObjAddr: 0x3640, symBinAddr: 0x4E4E0, symSize: 0x40 }
  - { offset: 0x98CB0, size: 0x8, addend: 0x0, symName: __RNvMNtCsdGrGZaRBwMb_3syn5dropsINtB2_6NoDropINtNtB4_10punctuated11PrivateIterNtNtB4_2ty9BareFnArgNtNtB4_5token5CommaEE3newCssR9xeAO3IU_12serde_derive, symObjAddr: 0x3680, symBinAddr: 0x4E520, symSize: 0x40 }
  - { offset: 0x98D3A, size: 0x8, addend: 0x0, symName: __RNvMNtCsdGrGZaRBwMb_3syn5dropsINtB2_6NoDropINtNtB4_10punctuated11PrivateIterNtNtB4_4data7VariantNtNtB4_5token5CommaEE3newCssR9xeAO3IU_12serde_derive, symObjAddr: 0x36C0, symBinAddr: 0x4E560, symSize: 0x40 }
  - { offset: 0x98DC4, size: 0x8, addend: 0x0, symName: __RNvMNtCsdGrGZaRBwMb_3syn5dropsINtB2_6NoDropINtNtB4_10punctuated11PrivateIterNtNtB4_4path15GenericArgumentNtNtB4_5token5CommaEE3newCssR9xeAO3IU_12serde_derive, symObjAddr: 0x3700, symBinAddr: 0x4E5A0, symSize: 0x40 }
  - { offset: 0x98E4E, size: 0x8, addend: 0x0, symName: __RNvMNtCsdGrGZaRBwMb_3syn5dropsINtB2_6NoDropINtNtB4_10punctuated14PrivateIterMutNtNtB4_2ty4TypeNtNtB4_5token5CommaEE3newCssR9xeAO3IU_12serde_derive, symObjAddr: 0x3740, symBinAddr: 0x4E5E0, symSize: 0x40 }
  - { offset: 0x98ED8, size: 0x8, addend: 0x0, symName: __RNvMNtCsdGrGZaRBwMb_3syn5dropsINtB2_6NoDropINtNtB4_10punctuated14PrivateIterMutNtNtB4_2ty9BareFnArgNtNtB4_5token5CommaEE3newCssR9xeAO3IU_12serde_derive, symObjAddr: 0x3780, symBinAddr: 0x4E620, symSize: 0x40 }
  - { offset: 0x98F62, size: 0x8, addend: 0x0, symName: __RNvMNtCsdGrGZaRBwMb_3syn5dropsINtB2_6NoDropINtNtB4_10punctuated14PrivateIterMutNtNtB4_4data7VariantNtNtB4_5token5CommaEE3newCssR9xeAO3IU_12serde_derive, symObjAddr: 0x37C0, symBinAddr: 0x4E660, symSize: 0x40 }
  - { offset: 0x98FF9, size: 0x8, addend: 0x0, symName: __RNvMNtCsdGrGZaRBwMb_3syn5dropsINtB2_6NoDropINtNtB4_10punctuated14PrivateIterMutNtNtB4_4expr4ExprNtNtB4_5token5CommaEE3newCssR9xeAO3IU_12serde_derive, symObjAddr: 0x3800, symBinAddr: 0x4E6A0, symSize: 0x40 }
  - { offset: 0x99083, size: 0x8, addend: 0x0, symName: __RNvMNtCsdGrGZaRBwMb_3syn5dropsINtB2_6NoDropINtNtB4_10punctuated14PrivateIterMutNtNtB4_4path15GenericArgumentNtNtB4_5token5CommaEE3newCssR9xeAO3IU_12serde_derive, symObjAddr: 0x3840, symBinAddr: 0x4E6E0, symSize: 0x40 }
  - { offset: 0x9911A, size: 0x8, addend: 0x0, symName: __RNvMNtCsdGrGZaRBwMb_3syn5dropsINtB2_6NoDropINtNtB4_10punctuated14PrivateIterMutNtNtB4_8generics14TypeParamBoundNtNtB4_5token4PlusEE3newCssR9xeAO3IU_12serde_derive, symObjAddr: 0x3880, symBinAddr: 0x4E720, symSize: 0x40 }
  - { offset: 0x991B1, size: 0x8, addend: 0x0, symName: __RNvMNtCsdGrGZaRBwMb_3syn5dropsINtB2_6NoDropINtNtB4_10punctuated14PrivateIterMutNtNtB4_8generics14WherePredicateNtNtB4_5token5CommaEE3newCssR9xeAO3IU_12serde_derive, symObjAddr: 0x38C0, symBinAddr: 0x4E760, symSize: 0x40 }
  - { offset: 0x991F9, size: 0x8, addend: 0x0, symName: __RNvMNtCsieiGu2EXtoJ_4core6resultINtB2_6ResultuNtNtCsdGrGZaRBwMb_3syn5error5ErrorE10unwrap_errCssR9xeAO3IU_12serde_derive, symObjAddr: 0x3980, symBinAddr: 0x4E820, symSize: 0xA0 }
  - { offset: 0x993DA, size: 0x8, addend: 0x0, symName: __RNvMNtCslJiobkLta79_5alloc5allocNtB2_6Global10alloc_implCssR9xeAO3IU_12serde_derive, symObjAddr: 0x3A20, symBinAddr: 0x4E8C0, symSize: 0x290 }
  - { offset: 0x9979E, size: 0x8, addend: 0x0, symName: __RNvXNtCs9OU1sGv5X54_5quote9to_tokensRNtNtCsdGrGZaRBwMb_3syn4expr6MemberNtB2_8ToTokens9to_tokensCssR9xeAO3IU_12serde_derive, symObjAddr: 0xE7E0, symBinAddr: 0x59680, symSize: 0x30 }
  - { offset: 0x997DD, size: 0x8, addend: 0x0, symName: __RNvXNtCs9OU1sGv5X54_5quote9to_tokensRNtNtCsdGrGZaRBwMb_3syn4expr8ExprPathNtB2_8ToTokens9to_tokensCssR9xeAO3IU_12serde_derive, symObjAddr: 0xE810, symBinAddr: 0x596B0, symSize: 0x30 }
  - { offset: 0x9981C, size: 0x8, addend: 0x0, symName: __RNvXNtCs9OU1sGv5X54_5quote9to_tokensRNtNtCsdGrGZaRBwMb_3syn5token5UnionNtB2_8ToTokens9to_tokensCssR9xeAO3IU_12serde_derive, symObjAddr: 0xE840, symBinAddr: 0x596E0, symSize: 0x30 }
  - { offset: 0x9985B, size: 0x8, addend: 0x0, symName: __RNvXNtCs9OU1sGv5X54_5quote9to_tokensRNtNtCsdGrGZaRBwMb_3syn5token6StructNtB2_8ToTokens9to_tokensCssR9xeAO3IU_12serde_derive, symObjAddr: 0xE870, symBinAddr: 0x59710, symSize: 0x30 }
  - { offset: 0x9989A, size: 0x8, addend: 0x0, symName: __RNvXNtCs9OU1sGv5X54_5quote9to_tokensRRNtNtCsdGrGZaRBwMb_3syn4expr6MemberNtB2_8ToTokens9to_tokensCssR9xeAO3IU_12serde_derive, symObjAddr: 0xE8A0, symBinAddr: 0x59740, symSize: 0x30 }
  - { offset: 0x998DF, size: 0x8, addend: 0x0, symName: __RNvYRNtNtCsdGrGZaRBwMb_3syn4expr8ExprPathNtNtCs9OU1sGv5X54_5quote9to_tokens8ToTokens15to_token_streamCssR9xeAO3IU_12serde_derive, symObjAddr: 0x10310, symBinAddr: 0x5B1B0, symSize: 0x90 }
  - { offset: 0x99929, size: 0x8, addend: 0x0, symName: __RNvYRNtNtCsdGrGZaRBwMb_3syn4expr8ExprPathNtNtCs9OU1sGv5X54_5quote9to_tokens8ToTokens17into_token_streamCssR9xeAO3IU_12serde_derive, symObjAddr: 0x103A0, symBinAddr: 0x5B240, symSize: 0x50 }
  - { offset: 0x9995E, size: 0x8, addend: 0x0, symName: __RNvYRNtNtCsdGrGZaRBwMb_3syn5token5UnionNtNtCs9OU1sGv5X54_5quote9to_tokens8ToTokens15to_token_streamCssR9xeAO3IU_12serde_derive, symObjAddr: 0x103F0, symBinAddr: 0x5B290, symSize: 0x90 }
  - { offset: 0x999A8, size: 0x8, addend: 0x0, symName: __RNvYRNtNtCsdGrGZaRBwMb_3syn5token5UnionNtNtCs9OU1sGv5X54_5quote9to_tokens8ToTokens17into_token_streamCssR9xeAO3IU_12serde_derive, symObjAddr: 0x10480, symBinAddr: 0x5B320, symSize: 0x50 }
  - { offset: 0x999DD, size: 0x8, addend: 0x0, symName: __RNvYRNtNtCsdGrGZaRBwMb_3syn5token6StructNtNtCs9OU1sGv5X54_5quote9to_tokens8ToTokens15to_token_streamCssR9xeAO3IU_12serde_derive, symObjAddr: 0x104D0, symBinAddr: 0x5B370, symSize: 0x90 }
  - { offset: 0x99A27, size: 0x8, addend: 0x0, symName: __RNvYRNtNtCsdGrGZaRBwMb_3syn5token6StructNtNtCs9OU1sGv5X54_5quote9to_tokens8ToTokens17into_token_streamCssR9xeAO3IU_12serde_derive, symObjAddr: 0x10560, symBinAddr: 0x5B400, symSize: 0x50 }
  - { offset: 0x99A68, size: 0x8, addend: 0x0, symName: __RNvXs0_NtCs9OU1sGv5X54_5quote7spannedNtNtCsdGrGZaRBwMb_3syn4expr8ExprPathNtB5_7Spanned6___spanCssR9xeAO3IU_12serde_derive, symObjAddr: 0xE920, symBinAddr: 0x597C0, symSize: 0x30 }
  - { offset: 0x99AAE, size: 0x8, addend: 0x0, symName: __RNvXs2_NtNtCs9OU1sGv5X54_5quote9___private3extSNtNtCsdGrGZaRBwMb_3syn4expr6MemberNtB5_16RepAsIteratorExt15quote_into_iterCssR9xeAO3IU_12serde_derive, symObjAddr: 0xECD0, symBinAddr: 0x59B70, symSize: 0x30 }
  - { offset: 0x9AAF7, size: 0x8, addend: 0x0, symName: __RINvMNtCslJiobkLta79_5alloc5sliceSNtNtCsdGrGZaRBwMb_3syn8generics14TypeParamBound8into_vecNtNtB5_5alloc6GlobalECssR9xeAO3IU_12serde_derive, symObjAddr: 0x0, symBinAddr: 0x5B450, symSize: 0x40 }
  - { offset: 0x9ABD3, size: 0x8, addend: 0x0, symName: __RNCNvXs1_NtNtNtCsHUR1vrdMJt_3std2io5error14repr_bitpackedNtB7_4ReprNtNtNtCsieiGu2EXtoJ_4core3ops4drop4Drop4drop0CssR9xeAO3IU_12serde_derive, symObjAddr: 0x1680, symBinAddr: 0x5CA20, symSize: 0x30 }
  - { offset: 0x9AC88, size: 0x8, addend: 0x0, symName: __RNvXs1_NtNtNtCsHUR1vrdMJt_3std2io5error14repr_bitpackedNtB5_4ReprNtNtNtCsieiGu2EXtoJ_4core3ops4drop4Drop4dropCssR9xeAO3IU_12serde_derive, symObjAddr: 0xAB60, symBinAddr: 0x65F00, symSize: 0x30 }
  - { offset: 0x9ACB1, size: 0x8, addend: 0x0, symName: __RINvNtNtNtCsHUR1vrdMJt_3std2io5error14repr_bitpacked11decode_reprINtNtCslJiobkLta79_5alloc5boxed3BoxNtB4_6CustomENCNvXs1_B2_NtB2_4ReprNtNtNtCsieiGu2EXtoJ_4core3ops4drop4Drop4drop0ECssR9xeAO3IU_12serde_derive, symObjAddr: 0x260, symBinAddr: 0x5B600, symSize: 0x200 }
  - { offset: 0x9AF12, size: 0x8, addend: 0x0, symName: __RNvNtNtNtCsHUR1vrdMJt_3std2io5error14repr_bitpacked14kind_from_primCssR9xeAO3IU_12serde_derive, symObjAddr: 0x92B0, symBinAddr: 0x64650, symSize: 0x5B0 }
  - { offset: 0x9D185, size: 0x8, addend: 0x0, symName: __RINvNtCsieiGu2EXtoJ_4core3ptr10swap_chunkKj1_ECssR9xeAO3IU_12serde_derive, symObjAddr: 0x40, symBinAddr: 0x5B490, symSize: 0x30 }
  - { offset: 0x9D1BE, size: 0x8, addend: 0x0, symName: __RINvNtCsieiGu2EXtoJ_4core3ptr10swap_chunkKj2_ECssR9xeAO3IU_12serde_derive, symObjAddr: 0x70, symBinAddr: 0x5B4C0, symSize: 0x30 }
  - { offset: 0x9D1F7, size: 0x8, addend: 0x0, symName: __RINvNtCsieiGu2EXtoJ_4core3ptr10swap_chunkKj4_ECssR9xeAO3IU_12serde_derive, symObjAddr: 0xA0, symBinAddr: 0x5B4F0, symSize: 0x30 }
  - { offset: 0x9D230, size: 0x8, addend: 0x0, symName: __RINvNtCsieiGu2EXtoJ_4core3ptr10swap_chunkKj8_ECssR9xeAO3IU_12serde_derive, symObjAddr: 0xD0, symBinAddr: 0x5B520, symSize: 0x30 }
  - { offset: 0x9D350, size: 0x8, addend: 0x0, symName: __RNvNvNtCsieiGu2EXtoJ_4core3ptr19swap_nonoverlapping18precondition_checkCssR9xeAO3IU_12serde_derive, symObjAddr: 0x9E30, symBinAddr: 0x651D0, symSize: 0x4E0 }
  - { offset: 0x9D690, size: 0x8, addend: 0x0, symName: __RINvNtCsieiGu2EXtoJ_4core3ptr19swap_nonoverlappinghECssR9xeAO3IU_12serde_derive, symObjAddr: 0x1B0, symBinAddr: 0x5B550, symSize: 0xB0 }
  - { offset: 0x9DA0C, size: 0x8, addend: 0x0, symName: __RINvNvNtCsieiGu2EXtoJ_4core3ptr25swap_nonoverlapping_bytes26swap_nonoverlapping_chunksKj8_ECssR9xeAO3IU_12serde_derive, symObjAddr: 0x460, symBinAddr: 0x5B800, symSize: 0x110 }
  - { offset: 0x9DBB1, size: 0x8, addend: 0x0, symName: __RNvNvNtCsieiGu2EXtoJ_4core3ptr25swap_nonoverlapping_bytes25swap_nonoverlapping_shortCssR9xeAO3IU_12serde_derive, symObjAddr: 0xA310, symBinAddr: 0x656B0, symSize: 0x160 }
  - { offset: 0x9DDB1, size: 0x8, addend: 0x0, symName: __RNvNtCsieiGu2EXtoJ_4core3ptr25swap_nonoverlapping_bytesCssR9xeAO3IU_12serde_derive, symObjAddr: 0x2470, symBinAddr: 0x5D810, symSize: 0xD0 }
  - { offset: 0x9DFA5, size: 0x8, addend: 0x0, symName: __RNvNvMNtNtCsieiGu2EXtoJ_4core3ptr9const_ptrPp20offset_from_unsigned18precondition_checkCssR9xeAO3IU_12serde_derive, symObjAddr: 0x9860, symBinAddr: 0x64C00, symSize: 0xA0 }
  - { offset: 0x9E244, size: 0x8, addend: 0x0, symName: __RNvNvNtCsieiGu2EXtoJ_4core3ptr19copy_nonoverlapping18precondition_checkCssR9xeAO3IU_12serde_derive, symObjAddr: 0x9980, symBinAddr: 0x64D20, symSize: 0x4B0 }
  - { offset: 0x9E555, size: 0x8, addend: 0x0, symName: __RNvNvNtCsieiGu2EXtoJ_4core3ptr4copy18precondition_checkCssR9xeAO3IU_12serde_derive, symObjAddr: 0xA470, symBinAddr: 0x65810, symSize: 0x330 }
  - { offset: 0x9E803, size: 0x8, addend: 0x0, symName: __RNvNvNtCsieiGu2EXtoJ_4core3ptr7replace18precondition_checkCssR9xeAO3IU_12serde_derive, symObjAddr: 0xA7A0, symBinAddr: 0x65B40, symSize: 0x1E0 }
  - { offset: 0xA16D3, size: 0x8, addend: 0x0, symName: __RNvNvMsd_NtNtCsieiGu2EXtoJ_4core3num7nonzeroINtB7_7NonZeropE13new_unchecked18precondition_checkCssR9xeAO3IU_12serde_derive, symObjAddr: 0x9900, symBinAddr: 0x64CA0, symSize: 0x80 }
  - { offset: 0xA2C7F, size: 0x8, addend: 0x0, symName: __RNvXs1b_NtCsieiGu2EXtoJ_4core3fmtRNtNtNtCssR9xeAO3IU_12serde_derive9internals4name4NameNtB6_7Display3fmtBC_, symObjAddr: 0xABC0, symBinAddr: 0x65F60, symSize: 0x20 }
  - { offset: 0xA3752, size: 0x8, addend: 0x0, symName: __RINvYINtNtCslJiobkLta79_5alloc5boxed3BoxDNtNtNtNtCsieiGu2EXtoJ_4core4iter6traits8iterator8Iteratorp4ItemRNtNtNtCssR9xeAO3IU_12serde_derive9internals3ast5FieldEL_EBD_10filter_mapRSNtNtCsdGrGZaRBwMb_3syn8generics14WherePredicateNCNvNtB1L_5bound33with_where_predicates_from_fields0EB1L_, symObjAddr: 0xBB0, symBinAddr: 0x5BF50, symSize: 0x20 }
  - { offset: 0xA37BF, size: 0x8, addend: 0x0, symName: __RINvYINtNtCslJiobkLta79_5alloc5boxed3BoxDNtNtNtNtCsieiGu2EXtoJ_4core4iter6traits8iterator8Iteratorp4ItemRNtNtNtCssR9xeAO3IU_12serde_derive9internals3ast5FieldEL_EBD_3anyNCNvMs_B1H_NtB1H_4Data10has_getter0EB1L_, symObjAddr: 0xBD0, symBinAddr: 0x5BF70, symSize: 0x30 }
  - { offset: 0xA380E, size: 0x8, addend: 0x0, symName: __RINvYINtNtCslJiobkLta79_5alloc5boxed3BoxDNtNtNtNtCsieiGu2EXtoJ_4core4iter6traits8iterator8Iteratorp4ItemRNtNtNtCssR9xeAO3IU_12serde_derive9internals3ast5FieldEL_EBD_8find_mapRSNtNtCsdGrGZaRBwMb_3syn8generics14WherePredicateQNCNvNtB1L_5bound33with_where_predicates_from_fields0EB1L_, symObjAddr: 0xC00, symBinAddr: 0x5BFA0, symSize: 0x90 }
  - { offset: 0xA3896, size: 0x8, addend: 0x0, symName: __RINvYINtNtCslJiobkLta79_5alloc5boxed3BoxDNtNtNtNtCsieiGu2EXtoJ_4core4iter6traits8iterator8Iteratorp4ItemRNtNtNtCssR9xeAO3IU_12serde_derive9internals3ast5FieldEL_EBD_8try_folduNCINvNvBD_3any5checkB1E_NCNvMs_B1H_NtB1H_4Data10has_getter0E0INtNtNtBL_3ops12control_flow11ControlFlowuEEB1L_, symObjAddr: 0xC90, symBinAddr: 0x5C030, symSize: 0x100 }
  - { offset: 0xA3948, size: 0x8, addend: 0x0, symName: __RINvYINtNtCslJiobkLta79_5alloc5boxed3BoxDNtNtNtNtCsieiGu2EXtoJ_4core4iter6traits8iterator8Iteratorp4ItemRNtNtNtCssR9xeAO3IU_12serde_derive9internals3ast5FieldEL_EBD_8try_folduNCINvNvBD_8find_map5checkB1E_RSNtNtCsdGrGZaRBwMb_3syn8generics14WherePredicateQNCNvNtB1L_5bound33with_where_predicates_from_fields0E0INtNtNtBL_3ops12control_flow11ControlFlowB3g_EEB1L_, symObjAddr: 0xD90, symBinAddr: 0x5C130, symSize: 0x180 }
  - { offset: 0xA39FB, size: 0x8, addend: 0x0, symName: __RINvYNtNtCsdGrGZaRBwMb_3syn8generics10TypeParamsNtNtNtNtCsieiGu2EXtoJ_4core4iter6traits8iterator8Iterator3mapNtCsaKzlTDPUHDb_11proc_macro25IdentNCNvNtCssR9xeAO3IU_12serde_derive5bound10with_bound0EB2o_, symObjAddr: 0xF10, symBinAddr: 0x5C2B0, symSize: 0x20 }
  - { offset: 0xA3A53, size: 0x8, addend: 0x0, symName: __RINvYNtNtCsdGrGZaRBwMb_3syn8generics10TypeParamsNtNtNtNtCsieiGu2EXtoJ_4core4iter6traits8iterator8Iterator3mapNtCsaKzlTDPUHDb_11proc_macro25IdentNCNvNtCssR9xeAO3IU_12serde_derive5bound10with_bounds1_0EB2o_, symObjAddr: 0xF30, symBinAddr: 0x5C2D0, symSize: 0x20 }
  - { offset: 0xA3AAB, size: 0x8, addend: 0x0, symName: __RINvYNtNtCsdGrGZaRBwMb_3syn8generics10TypeParamsNtNtNtNtCsieiGu2EXtoJ_4core4iter6traits8iterator8Iterator4folduNCINvNtNtBQ_8adapters3map8map_foldRNtB5_9TypeParamNtCsaKzlTDPUHDb_11proc_macro25IdentuNCNvNtCssR9xeAO3IU_12serde_derive5bound10with_bound0NCIB1O_B2z_TB2z_uEuNCINvXs8_NtCsjK30CmJ87bX_9hashbrown3setINtB4r_7HashSetB2z_NtNtNtCsHUR1vrdMJt_3std4hash6random11RandomStateEINtNtBO_7collect6ExtendB2z_E6extendINtB1Q_3MapB3_B39_EE0NCINvNvBK_8for_each4callB4a_NCINvXs1i_NtB4t_3mapINtB7x_7HashMapB2z_uB5e_EIB62_B4a_E6extendIB6B_B6A_B4i_EE0E0E0E0EB3f_, symObjAddr: 0xF50, symBinAddr: 0x5C2F0, symSize: 0xB0 }
  - { offset: 0xA3B3A, size: 0x8, addend: 0x0, symName: __RINvYNtNtCsdGrGZaRBwMb_3syn8generics10TypeParamsNtNtNtNtCsieiGu2EXtoJ_4core4iter6traits8iterator8Iterator8try_folduNCINvNtNtBQ_8adapters3map12map_try_foldRNtB5_9TypeParamNtCsaKzlTDPUHDb_11proc_macro25IdentuINtNtNtBS_3ops12control_flow11ControlFlowB2I_ENCNvNtCssR9xeAO3IU_12serde_derive5bound10with_bounds1_0NCINvNvBK_4find5checkB2I_QNCB44_s2_0E0E0B3i_EB48_, symObjAddr: 0x1000, symBinAddr: 0x5C3A0, symSize: 0x140 }
  - { offset: 0xA3BF6, size: 0x8, addend: 0x0, symName: __RNvYNtNtCsdGrGZaRBwMb_3syn8generics10TypeParamsNtNtNtNtCsieiGu2EXtoJ_4core4iter6traits8iterator8Iterator9size_hintCssR9xeAO3IU_12serde_derive, symObjAddr: 0xCB10, symBinAddr: 0x67EB0, symSize: 0x30 }
  - { offset: 0xA3CB3, size: 0x8, addend: 0x0, symName: __RNvXNtNtNtCsieiGu2EXtoJ_4core4iter6traits7collectINtNtCslJiobkLta79_5alloc5boxed3BoxDNtNtB4_8iterator8Iteratorp4ItemRNtNtNtCssR9xeAO3IU_12serde_derive9internals3ast5FieldEL_ENtB2_12IntoIterator9into_iterB1X_, symObjAddr: 0xAA90, symBinAddr: 0x65E30, symSize: 0x20 }
  - { offset: 0xA3CEA, size: 0x8, addend: 0x0, symName: __RNvXNtNtNtCsieiGu2EXtoJ_4core4iter6traits7collectNtNtCsdGrGZaRBwMb_3syn8generics9LifetimesNtB2_12IntoIterator9into_iterCssR9xeAO3IU_12serde_derive, symObjAddr: 0xAAB0, symBinAddr: 0x65E50, symSize: 0x20 }
  - { offset: 0xA4128, size: 0x8, addend: 0x0, symName: __RNvXs1_NtNtNtCsieiGu2EXtoJ_4core3ops8function5implsQNCNvNtNtCssR9xeAO3IU_12serde_derive2de15enum_internally11deserialize0INtB7_5FnMutTRTjRNtNtNtBW_9internals3ast7VariantEEE8call_mutBW_, symObjAddr: 0xAB90, symBinAddr: 0x65F30, symSize: 0x30 }
  - { offset: 0xA43B0, size: 0x8, addend: 0x0, symName: __RNvMNtCsieiGu2EXtoJ_4core5sliceSNtNtCsdGrGZaRBwMb_3syn8generics14WherePredicate4iterCssR9xeAO3IU_12serde_derive, symObjAddr: 0x16B0, symBinAddr: 0x5CA50, symSize: 0x20 }
  - { offset: 0xA43E7, size: 0x8, addend: 0x0, symName: __RNvMNtCsieiGu2EXtoJ_4core5sliceSTNtNtCsdGrGZaRBwMb_3syn4data7VariantNtNtBz_5token5CommaE8iter_mutCssR9xeAO3IU_12serde_derive, symObjAddr: 0x16D0, symBinAddr: 0x5CA70, symSize: 0x20 }
  - { offset: 0xA441E, size: 0x8, addend: 0x0, symName: __RNvMNtCsieiGu2EXtoJ_4core5sliceSTNtNtCsdGrGZaRBwMb_3syn8generics14TypeParamBoundNtNtBz_5token4PlusE8iter_mutCssR9xeAO3IU_12serde_derive, symObjAddr: 0x16F0, symBinAddr: 0x5CA90, symSize: 0x20 }
  - { offset: 0xA4455, size: 0x8, addend: 0x0, symName: __RNvMNtCsieiGu2EXtoJ_4core5sliceSTNtNtCsdGrGZaRBwMb_3syn8generics14WherePredicateNtNtBz_5token5CommaE8iter_mutCssR9xeAO3IU_12serde_derive, symObjAddr: 0x1710, symBinAddr: 0x5CAB0, symSize: 0x20 }
  - { offset: 0xA4D40, size: 0x8, addend: 0x0, symName: __RNvXNtCsieiGu2EXtoJ_4core6borrowNtNtNtCssR9xeAO3IU_12serde_derive9internals4name4NameINtB2_6BorrowBu_E6borrowBA_, symObjAddr: 0xAA50, symBinAddr: 0x65DF0, symSize: 0x10 }
  - { offset: 0xA512A, size: 0x8, addend: 0x0, symName: __RNvXNtNtCscKtU6MdFI5n_10proc_macro6bridge3rpcuINtB2_6EncodeuE6encodeCssR9xeAO3IU_12serde_derive, symObjAddr: 0xAA60, symBinAddr: 0x65E00, symSize: 0x10 }
  - { offset: 0xA5171, size: 0x8, addend: 0x0, symName: __RNvXs7_NtNtCscKtU6MdFI5n_10proc_macro6bridge3rpcINtNtNtCsieiGu2EXtoJ_4core3num7nonzero7NonZeromEINtB5_9DecodeMutuE6decodeCssR9xeAO3IU_12serde_derive, symObjAddr: 0xC510, symBinAddr: 0x678B0, symSize: 0x50 }
  - { offset: 0xA521E, size: 0x8, addend: 0x0, symName: __RNvXsa_NtNtCscKtU6MdFI5n_10proc_macro6bridge3rpcRShINtB5_6EncodeuE6encodeCssR9xeAO3IU_12serde_derive, symObjAddr: 0xC770, symBinAddr: 0x67B10, symSize: 0xD0 }
  - { offset: 0xA5326, size: 0x8, addend: 0x0, symName: __RNvXsc_NtNtCscKtU6MdFI5n_10proc_macro6bridge3rpcReINtB5_6EncodeuE6encodeCssR9xeAO3IU_12serde_derive, symObjAddr: 0xC840, symBinAddr: 0x67BE0, symSize: 0x30 }
  - { offset: 0xA540E, size: 0x8, addend: 0x0, symName: __RNvXsl_NtNtCscKtU6MdFI5n_10proc_macro6bridge3rpcNtB5_12PanicMessageINtB5_6EncodeuE6encodeCssR9xeAO3IU_12serde_derive, symObjAddr: 0xC870, symBinAddr: 0x67C10, symSize: 0x130 }
  - { offset: 0xA55DE, size: 0x8, addend: 0x0, symName: __RNvXso_NtNtCscKtU6MdFI5n_10proc_macro6bridge3rpcmINtB5_9DecodeMutuE6decodeCssR9xeAO3IU_12serde_derive, symObjAddr: 0xC9A0, symBinAddr: 0x67D40, symSize: 0x140 }
  - { offset: 0xA5B70, size: 0x8, addend: 0x0, symName: __RINvXs8_NtCsaKzlTDPUHDb_11proc_macro28fallbackNtB6_11TokenStreamINtNtNtNtCsieiGu2EXtoJ_4core4iter6traits7collect12FromIteratorNtB8_9TokenTreeE9from_iterINtNtNtB17_8adapters3map3MapNtNtB8_12token_stream8IntoIterNCNvNtNtCssR9xeAO3IU_12serde_derive9internals6respan6respan0EEB3u_, symObjAddr: 0xA00, symBinAddr: 0x5BDA0, symSize: 0xD0 }
  - { offset: 0xA5BC5, size: 0x8, addend: 0x0, symName: __RINvXsa_NtCsaKzlTDPUHDb_11proc_macro28fallbackNtB6_11TokenStreamINtNtNtNtCsieiGu2EXtoJ_4core4iter6traits7collect6ExtendNtB8_9TokenTreeE6extendINtNtNtB17_8adapters3map3MapNtNtB8_12token_stream8IntoIterNCNvNtNtCssR9xeAO3IU_12serde_derive9internals6respan6respan0EEB3k_, symObjAddr: 0xAD0, symBinAddr: 0x5BE70, symSize: 0xE0 }
  - { offset: 0xA5C2C, size: 0x8, addend: 0x0, symName: __RNCINvXsa_NtCsaKzlTDPUHDb_11proc_macro28fallbackNtB8_11TokenStreamINtNtNtNtCsieiGu2EXtoJ_4core4iter6traits7collect6ExtendNtBa_9TokenTreeE6extendINtNtNtB19_8adapters3map3MapNtNtBa_12token_stream8IntoIterNCNvNtNtCssR9xeAO3IU_12serde_derive9internals6respan6respan0EE0B3m_, symObjAddr: 0x1140, symBinAddr: 0x5C4E0, symSize: 0xA0 }
  - { offset: 0xA5C79, size: 0x8, addend: 0x0, symName: __RNvXsA_NtCsaKzlTDPUHDb_11proc_macro28fallbackNtB5_5IdentNtNtCsieiGu2EXtoJ_4core5clone5Clone5cloneCssR9xeAO3IU_12serde_derive, symObjAddr: 0xC5F0, symBinAddr: 0x67990, symSize: 0x90 }
  - { offset: 0xA5CAD, size: 0x8, addend: 0x0, symName: __RNvXss_NtCsaKzlTDPUHDb_11proc_macro28fallbackNtB5_11TokenStreamNtNtCsieiGu2EXtoJ_4core5clone5Clone5cloneCssR9xeAO3IU_12serde_derive, symObjAddr: 0xCAE0, symBinAddr: 0x67E80, symSize: 0x20 }
  - { offset: 0xA5CDF, size: 0x8, addend: 0x0, symName: __RNvXsu_NtCsaKzlTDPUHDb_11proc_macro28fallbackNtB5_4SpanNtNtCsieiGu2EXtoJ_4core5clone5Clone5cloneCssR9xeAO3IU_12serde_derive, symObjAddr: 0xCB00, symBinAddr: 0x67EA0, symSize: 0x10 }
  - { offset: 0xA6867, size: 0x8, addend: 0x0, symName: __RNCNvMNtNtCssR9xeAO3IU_12serde_derive9internals4nameNtB4_9MultiName10from_attrs0B8_, symObjAddr: 0x11E0, symBinAddr: 0x5C580, symSize: 0x30 }
  - { offset: 0xA689C, size: 0x8, addend: 0x0, symName: __RNvXs0_NtNtCssR9xeAO3IU_12serde_derive9internals4nameNtB5_4NameNtNtCsieiGu2EXtoJ_4core3cmp3Ord3cmp, symObjAddr: 0xAB30, symBinAddr: 0x65ED0, symSize: 0x30 }
  - { offset: 0xA68DC, size: 0x8, addend: 0x0, symName: __RNvXs4_NtNtCssR9xeAO3IU_12serde_derive9internals4nameNtB5_4NameINtNtCsieiGu2EXtoJ_4core7convert4FromRNtCsaKzlTDPUHDb_11proc_macro25IdentE4from, symObjAddr: 0xABE0, symBinAddr: 0x65F80, symSize: 0x90 }
  - { offset: 0xA690E, size: 0x8, addend: 0x0, symName: __RNvXs5_NtNtCssR9xeAO3IU_12serde_derive9internals4nameNtB5_4NameINtNtCsieiGu2EXtoJ_4core7convert4FromRNtNtCsdGrGZaRBwMb_3syn3lit6LitStrE4from, symObjAddr: 0xAC70, symBinAddr: 0x66010, symSize: 0x90 }
  - { offset: 0xA6940, size: 0x8, addend: 0x0, symName: __RNvXs6_NtNtCssR9xeAO3IU_12serde_derive9internals4nameNtB5_4NameNtNtCsieiGu2EXtoJ_4core3fmt7Display3fmt, symObjAddr: 0xC4E0, symBinAddr: 0x67880, symSize: 0x30 }
  - { offset: 0xA6980, size: 0x8, addend: 0x0, symName: __RNvXs7_NtNtCssR9xeAO3IU_12serde_derive9internals4nameNtB5_4NameNtNtCsieiGu2EXtoJ_4core5clone5Clone5cloneB9_, symObjAddr: 0xC560, symBinAddr: 0x67900, symSize: 0x90 }
  - { offset: 0xA69B2, size: 0x8, addend: 0x0, symName: __RNvXs_NtNtCssR9xeAO3IU_12serde_derive9internals4nameNtB4_4NameNtNtCs9OU1sGv5X54_5quote9to_tokens8ToTokens9to_tokens, symObjAddr: 0xC6F0, symBinAddr: 0x67A90, symSize: 0x80 }
  - { offset: 0xA69F4, size: 0x8, addend: 0x0, symName: __RNCNvNtNtCssR9xeAO3IU_12serde_derive9internals5check38check_internal_tag_field_name_conflict0B7_, symObjAddr: 0x15D0, symBinAddr: 0x5C970, symSize: 0xB0 }
  - { offset: 0xA6AB0, size: 0x8, addend: 0x0, symName: __RNvNtNtCssR9xeAO3IU_12serde_derive9internals5check12check_getter, symObjAddr: 0x70A0, symBinAddr: 0x62440, symSize: 0x100 }
  - { offset: 0xA6AE6, size: 0x8, addend: 0x0, symName: __RNvNtNtCssR9xeAO3IU_12serde_derive9internals5check13check_flatten, symObjAddr: 0x71A0, symBinAddr: 0x62540, symSize: 0x1C0 }
  - { offset: 0xA6BE6, size: 0x8, addend: 0x0, symName: __RNvNtNtCssR9xeAO3IU_12serde_derive9internals5check14member_message, symObjAddr: 0x7360, symBinAddr: 0x62700, symSize: 0x160 }
  - { offset: 0xA6CC4, size: 0x8, addend: 0x0, symName: __RNvNtNtCssR9xeAO3IU_12serde_derive9internals5check16check_identifier, symObjAddr: 0x74C0, symBinAddr: 0x62860, symSize: 0x580 }
  - { offset: 0xA6D85, size: 0x8, addend: 0x0, symName: __RNvNtNtCssR9xeAO3IU_12serde_derive9internals5check17allow_transparent, symObjAddr: 0x7A40, symBinAddr: 0x62DE0, symSize: 0x130 }
  - { offset: 0xA6DEE, size: 0x8, addend: 0x0, symName: __RNvNtNtCssR9xeAO3IU_12serde_derive9internals5check17check_transparent, symObjAddr: 0x7B70, symBinAddr: 0x62F10, symSize: 0x330 }
  - { offset: 0xA6EAE, size: 0x8, addend: 0x0, symName: __RNvNtNtCssR9xeAO3IU_12serde_derive9internals5check19check_flatten_field, symObjAddr: 0x7EA0, symBinAddr: 0x63240, symSize: 0xC0 }
  - { offset: 0xA6EF2, size: 0x8, addend: 0x0, symName: __RNvNtNtCssR9xeAO3IU_12serde_derive9internals5check20check_remote_generic, symObjAddr: 0x7F60, symBinAddr: 0x63300, symSize: 0x120 }
  - { offset: 0xA6F84, size: 0x8, addend: 0x0, symName: __RNvNtNtCssR9xeAO3IU_12serde_derive9internals5check22check_default_on_tuple, symObjAddr: 0x8080, symBinAddr: 0x63420, symSize: 0x330 }
  - { offset: 0xA7071, size: 0x8, addend: 0x0, symName: __RNvNtNtCssR9xeAO3IU_12serde_derive9internals5check23check_from_and_try_from, symObjAddr: 0x83B0, symBinAddr: 0x63750, symSize: 0xA0 }
  - { offset: 0xA70AA, size: 0x8, addend: 0x0, symName: __RNvNtNtCssR9xeAO3IU_12serde_derive9internals5check24check_variant_skip_attrs, symObjAddr: 0x8450, symBinAddr: 0x637F0, symSize: 0x800 }
  - { offset: 0xA731E, size: 0x8, addend: 0x0, symName: __RNvNtNtCssR9xeAO3IU_12serde_derive9internals5check27check_adjacent_tag_conflict, symObjAddr: 0x8C50, symBinAddr: 0x63FF0, symSize: 0x190 }
  - { offset: 0xA73C4, size: 0x8, addend: 0x0, symName: __RNvNtNtCssR9xeAO3IU_12serde_derive9internals5check38check_internal_tag_field_name_conflict, symObjAddr: 0x8DE0, symBinAddr: 0x64180, symSize: 0x410 }
  - { offset: 0xA7540, size: 0x8, addend: 0x0, symName: __RNvNtNtCssR9xeAO3IU_12serde_derive9internals5check5check, symObjAddr: 0x91F0, symBinAddr: 0x64590, symSize: 0xC0 }
  - { offset: 0xA7630, size: 0x8, addend: 0x0, symName: __RNCNvNtNtCssR9xeAO3IU_12serde_derive2de15enum_internally11deserialize0B7_, symObjAddr: 0x1210, symBinAddr: 0x5C5B0, symSize: 0x30 }
  - { offset: 0xA7677, size: 0x8, addend: 0x0, symName: __RNCNvNtNtCssR9xeAO3IU_12serde_derive2de15enum_internally11deserializes_0B7_, symObjAddr: 0x1240, symBinAddr: 0x5C5E0, symSize: 0x1D0 }
  - { offset: 0xA7754, size: 0x8, addend: 0x0, symName: __RNCNvNtNtCssR9xeAO3IU_12serde_derive2de15enum_internally37deserialize_internally_tagged_variant0B7_, symObjAddr: 0x1410, symBinAddr: 0x5C7B0, symSize: 0x190 }
  - { offset: 0xA77D2, size: 0x8, addend: 0x0, symName: __RNvNtNtCssR9xeAO3IU_12serde_derive2de15enum_internally11deserialize, symObjAddr: 0x2540, symBinAddr: 0x5D8E0, symSize: 0xBF0 }
  - { offset: 0xA79DC, size: 0x8, addend: 0x0, symName: __RNvNtNtCssR9xeAO3IU_12serde_derive2de15enum_internally37deserialize_internally_tagged_variant, symObjAddr: 0x3130, symBinAddr: 0x5E4D0, symSize: 0x9E0 }
  - { offset: 0xA7B63, size: 0x8, addend: 0x0, symName: __RNCNvNtNtCssR9xeAO3IU_12serde_derive2de5tuple11deserialize0B7_, symObjAddr: 0x15A0, symBinAddr: 0x5C940, symSize: 0x30 }
  - { offset: 0xA7BA1, size: 0x8, addend: 0x0, symName: __RNvNtNtCssR9xeAO3IU_12serde_derive2de5tuple11deserialize, symObjAddr: 0x3B10, symBinAddr: 0x5EEB0, symSize: 0x2550 }
  - { offset: 0xA80E7, size: 0x8, addend: 0x0, symName: __RNvNtNtCssR9xeAO3IU_12serde_derive2de5tuple26deserialize_newtype_struct, symObjAddr: 0x6060, symBinAddr: 0x61400, symSize: 0x1040 }
  - { offset: 0xA8739, size: 0x8, addend: 0x0, symName: __RNvMs_NtCslJiobkLta79_5alloc5boxedINtB4_3BoxINtNtNtNtB6_11collections5btree4node12InternalNodeNtNtCsdGrGZaRBwMb_3syn8lifetime8LifetimeNtNtBL_7set_val9SetValZSTEE13new_uninit_inCssR9xeAO3IU_12serde_derive, symObjAddr: 0x1D70, symBinAddr: 0x5D110, symSize: 0x80 }
  - { offset: 0xA8831, size: 0x8, addend: 0x0, symName: __RNvMs_NtCslJiobkLta79_5alloc5boxedINtB4_3BoxINtNtNtNtB6_11collections5btree4node12InternalNodeNtNtCsdGrGZaRBwMb_3syn8lifetime8LifetimeNtNtBL_7set_val9SetValZSTEE17try_new_uninit_inCssR9xeAO3IU_12serde_derive, symObjAddr: 0x1DF0, symBinAddr: 0x5D190, symSize: 0x140 }
  - { offset: 0xA8A6F, size: 0x8, addend: 0x0, symName: __RNvMs_NtCslJiobkLta79_5alloc5boxedINtB4_3BoxINtNtNtNtB6_11collections5btree4node12InternalNodeNtNtNtCssR9xeAO3IU_12serde_derive9internals4name4NameNtNtBL_7set_val9SetValZSTEE13new_uninit_inB1A_, symObjAddr: 0x1F30, symBinAddr: 0x5D2D0, symSize: 0x80 }
  - { offset: 0xA8B67, size: 0x8, addend: 0x0, symName: __RNvMs_NtCslJiobkLta79_5alloc5boxedINtB4_3BoxINtNtNtNtB6_11collections5btree4node12InternalNodeNtNtNtCssR9xeAO3IU_12serde_derive9internals4name4NameNtNtBL_7set_val9SetValZSTEE17try_new_uninit_inB1A_, symObjAddr: 0x1FB0, symBinAddr: 0x5D350, symSize: 0x140 }
  - { offset: 0xA8DA5, size: 0x8, addend: 0x0, symName: __RNvMs_NtCslJiobkLta79_5alloc5boxedINtB4_3BoxINtNtNtNtB6_11collections5btree4node8LeafNodeNtNtCsdGrGZaRBwMb_3syn8lifetime8LifetimeNtNtBL_7set_val9SetValZSTEE13new_uninit_inCssR9xeAO3IU_12serde_derive, symObjAddr: 0x20F0, symBinAddr: 0x5D490, symSize: 0x80 }
  - { offset: 0xA8E9D, size: 0x8, addend: 0x0, symName: __RNvMs_NtCslJiobkLta79_5alloc5boxedINtB4_3BoxINtNtNtNtB6_11collections5btree4node8LeafNodeNtNtCsdGrGZaRBwMb_3syn8lifetime8LifetimeNtNtBL_7set_val9SetValZSTEE17try_new_uninit_inCssR9xeAO3IU_12serde_derive, symObjAddr: 0x2170, symBinAddr: 0x5D510, symSize: 0x140 }
  - { offset: 0xA90DB, size: 0x8, addend: 0x0, symName: __RNvMs_NtCslJiobkLta79_5alloc5boxedINtB4_3BoxINtNtNtNtB6_11collections5btree4node8LeafNodeNtNtNtCssR9xeAO3IU_12serde_derive9internals4name4NameNtNtBL_7set_val9SetValZSTEE13new_uninit_inB1v_, symObjAddr: 0x22B0, symBinAddr: 0x5D650, symSize: 0x80 }
  - { offset: 0xA91D3, size: 0x8, addend: 0x0, symName: __RNvMs_NtCslJiobkLta79_5alloc5boxedINtB4_3BoxINtNtNtNtB6_11collections5btree4node8LeafNodeNtNtNtCssR9xeAO3IU_12serde_derive9internals4name4NameNtNtBL_7set_val9SetValZSTEE17try_new_uninit_inB1v_, symObjAddr: 0x2330, symBinAddr: 0x5D6D0, symSize: 0x140 }
  - { offset: 0xA941C, size: 0x8, addend: 0x0, symName: __RNvXNtNtCslJiobkLta79_5alloc5boxed4iterINtB4_3BoxDNtNtNtNtCsieiGu2EXtoJ_4core4iter6traits8iterator8Iteratorp4ItemRNtNtNtCssR9xeAO3IU_12serde_derive9internals3ast5FieldEL_EBM_4nextB1U_, symObjAddr: 0xAA70, symBinAddr: 0x65E10, symSize: 0x20 }
  - { offset: 0xA9461, size: 0x8, addend: 0x0, symName: __RNvXs6_NtCslJiobkLta79_5alloc5boxedINtB5_3BoxANtNtCsdGrGZaRBwMb_3syn4expr6Memberj1_ENtNtNtCsieiGu2EXtoJ_4core3ops4drop4Drop4dropCssR9xeAO3IU_12serde_derive, symObjAddr: 0xAD00, symBinAddr: 0x660A0, symSize: 0xB0 }
  - { offset: 0xA959C, size: 0x8, addend: 0x0, symName: __RNvXs6_NtCslJiobkLta79_5alloc5boxedINtB5_3BoxANtNtCsdGrGZaRBwMb_3syn4path11PathSegmentj1_ENtNtNtCsieiGu2EXtoJ_4core3ops4drop4Drop4dropCssR9xeAO3IU_12serde_derive, symObjAddr: 0xADB0, symBinAddr: 0x66150, symSize: 0xB0 }
  - { offset: 0xA96D7, size: 0x8, addend: 0x0, symName: __RNvXs6_NtCslJiobkLta79_5alloc5boxedINtB5_3BoxANtNtCsdGrGZaRBwMb_3syn8generics14TypeParamBoundj1_ENtNtNtCsieiGu2EXtoJ_4core3ops4drop4Drop4dropCssR9xeAO3IU_12serde_derive, symObjAddr: 0xAE60, symBinAddr: 0x66200, symSize: 0xB0 }
  - { offset: 0xA9812, size: 0x8, addend: 0x0, symName: __RNvXs6_NtCslJiobkLta79_5alloc5boxedINtB5_3BoxDNtNtCsieiGu2EXtoJ_4core5error5ErrorNtNtBM_6marker4SyncNtB1j_4SendEL_ENtNtNtBM_3ops4drop4Drop4dropCssR9xeAO3IU_12serde_derive, symObjAddr: 0xAF10, symBinAddr: 0x662B0, symSize: 0xC0 }
  - { offset: 0xA994F, size: 0x8, addend: 0x0, symName: __RNvXs6_NtCslJiobkLta79_5alloc5boxedINtB5_3BoxDNtNtNtNtCsieiGu2EXtoJ_4core4iter6traits8iterator8Iteratorp4ItemRNtNtNtCssR9xeAO3IU_12serde_derive9internals3ast5FieldEL_ENtNtNtBQ_3ops4drop4Drop4dropB1Q_, symObjAddr: 0xAFD0, symBinAddr: 0x66370, symSize: 0xC0 }
  - { offset: 0xA9A8C, size: 0x8, addend: 0x0, symName: __RNvXs6_NtCslJiobkLta79_5alloc5boxedINtB5_3BoxINtNtCsdGrGZaRBwMb_3syn5drops6NoDropDINtNtBM_10punctuated12IterMutTraitNtNtBM_2ty4TypeEp4ItemQB1Q_EL_EENtNtNtCsieiGu2EXtoJ_4core3ops4drop4Drop4dropCssR9xeAO3IU_12serde_derive, symObjAddr: 0xB090, symBinAddr: 0x66430, symSize: 0x120 }
  - { offset: 0xA9BC9, size: 0x8, addend: 0x0, symName: __RNvXs6_NtCslJiobkLta79_5alloc5boxedINtB5_3BoxINtNtCsdGrGZaRBwMb_3syn5drops6NoDropDINtNtBM_10punctuated12IterMutTraitNtNtBM_2ty9BareFnArgEp4ItemQB1Q_EL_EENtNtNtCsieiGu2EXtoJ_4core3ops4drop4Drop4dropCssR9xeAO3IU_12serde_derive, symObjAddr: 0xB1B0, symBinAddr: 0x66550, symSize: 0x120 }
  - { offset: 0xA9D06, size: 0x8, addend: 0x0, symName: __RNvXs6_NtCslJiobkLta79_5alloc5boxedINtB5_3BoxINtNtCsdGrGZaRBwMb_3syn5drops6NoDropDINtNtBM_10punctuated12IterMutTraitNtNtBM_4data5FieldEp4ItemQB1Q_EL_EENtNtNtCsieiGu2EXtoJ_4core3ops4drop4Drop4dropCssR9xeAO3IU_12serde_derive, symObjAddr: 0xB2D0, symBinAddr: 0x66670, symSize: 0x120 }
  - { offset: 0xA9E43, size: 0x8, addend: 0x0, symName: __RNvXs6_NtCslJiobkLta79_5alloc5boxedINtB5_3BoxINtNtCsdGrGZaRBwMb_3syn5drops6NoDropDINtNtBM_10punctuated12IterMutTraitNtNtBM_4data7VariantEp4ItemQB1Q_EL_EENtNtNtCsieiGu2EXtoJ_4core3ops4drop4Drop4dropCssR9xeAO3IU_12serde_derive, symObjAddr: 0xB3F0, symBinAddr: 0x66790, symSize: 0x120 }
  - { offset: 0xA9F80, size: 0x8, addend: 0x0, symName: __RNvXs6_NtCslJiobkLta79_5alloc5boxedINtB5_3BoxINtNtCsdGrGZaRBwMb_3syn5drops6NoDropDINtNtBM_10punctuated12IterMutTraitNtNtBM_4expr4ExprEp4ItemQB1Q_EL_EENtNtNtCsieiGu2EXtoJ_4core3ops4drop4Drop4dropCssR9xeAO3IU_12serde_derive, symObjAddr: 0xB510, symBinAddr: 0x668B0, symSize: 0x120 }
  - { offset: 0xAA0BD, size: 0x8, addend: 0x0, symName: __RNvXs6_NtCslJiobkLta79_5alloc5boxedINtB5_3BoxINtNtCsdGrGZaRBwMb_3syn5drops6NoDropDINtNtBM_10punctuated12IterMutTraitNtNtBM_4path15GenericArgumentEp4ItemQB1Q_EL_EENtNtNtCsieiGu2EXtoJ_4core3ops4drop4Drop4dropCssR9xeAO3IU_12serde_derive, symObjAddr: 0xB630, symBinAddr: 0x669D0, symSize: 0x120 }
  - { offset: 0xAA1FA, size: 0x8, addend: 0x0, symName: __RNvXs6_NtCslJiobkLta79_5alloc5boxedINtB5_3BoxINtNtCsdGrGZaRBwMb_3syn5drops6NoDropDINtNtBM_10punctuated12IterMutTraitNtNtBM_8generics12GenericParamEp4ItemQB1Q_EL_EENtNtNtCsieiGu2EXtoJ_4core3ops4drop4Drop4dropCssR9xeAO3IU_12serde_derive, symObjAddr: 0xB750, symBinAddr: 0x66AF0, symSize: 0x120 }
  - { offset: 0xAA337, size: 0x8, addend: 0x0, symName: __RNvXs6_NtCslJiobkLta79_5alloc5boxedINtB5_3BoxINtNtCsdGrGZaRBwMb_3syn5drops6NoDropDINtNtBM_10punctuated12IterMutTraitNtNtBM_8generics14TypeParamBoundEp4ItemQB1Q_EL_EENtNtNtCsieiGu2EXtoJ_4core3ops4drop4Drop4dropCssR9xeAO3IU_12serde_derive, symObjAddr: 0xB870, symBinAddr: 0x66C10, symSize: 0x120 }
  - { offset: 0xAA474, size: 0x8, addend: 0x0, symName: __RNvXs6_NtCslJiobkLta79_5alloc5boxedINtB5_3BoxINtNtCsdGrGZaRBwMb_3syn5drops6NoDropDINtNtBM_10punctuated12IterMutTraitNtNtBM_8generics14WherePredicateEp4ItemQB1Q_EL_EENtNtNtCsieiGu2EXtoJ_4core3ops4drop4Drop4dropCssR9xeAO3IU_12serde_derive, symObjAddr: 0xB990, symBinAddr: 0x66D30, symSize: 0x120 }
  - { offset: 0xAA5B1, size: 0x8, addend: 0x0, symName: __RNvXs6_NtCslJiobkLta79_5alloc5boxedINtB5_3BoxINtNtCsdGrGZaRBwMb_3syn5drops6NoDropDINtNtBM_10punctuated9IterTraitNtNtBM_2ty4TypeEp4ItemRB1M_EL_EENtNtNtCsieiGu2EXtoJ_4core3ops4drop4Drop4dropCssR9xeAO3IU_12serde_derive, symObjAddr: 0xBAB0, symBinAddr: 0x66E50, symSize: 0x120 }
  - { offset: 0xAA6EE, size: 0x8, addend: 0x0, symName: __RNvXs6_NtCslJiobkLta79_5alloc5boxedINtB5_3BoxINtNtCsdGrGZaRBwMb_3syn5drops6NoDropDINtNtBM_10punctuated9IterTraitNtNtBM_2ty9BareFnArgEp4ItemRB1M_EL_EENtNtNtCsieiGu2EXtoJ_4core3ops4drop4Drop4dropCssR9xeAO3IU_12serde_derive, symObjAddr: 0xBBD0, symBinAddr: 0x66F70, symSize: 0x120 }
  - { offset: 0xAA82B, size: 0x8, addend: 0x0, symName: __RNvXs6_NtCslJiobkLta79_5alloc5boxedINtB5_3BoxINtNtCsdGrGZaRBwMb_3syn5drops6NoDropDINtNtBM_10punctuated9IterTraitNtNtBM_4data5FieldEp4ItemRB1M_EL_EENtNtNtCsieiGu2EXtoJ_4core3ops4drop4Drop4dropCssR9xeAO3IU_12serde_derive, symObjAddr: 0xBCF0, symBinAddr: 0x67090, symSize: 0x120 }
  - { offset: 0xAA968, size: 0x8, addend: 0x0, symName: __RNvXs6_NtCslJiobkLta79_5alloc5boxedINtB5_3BoxINtNtCsdGrGZaRBwMb_3syn5drops6NoDropDINtNtBM_10punctuated9IterTraitNtNtBM_4data7VariantEp4ItemRB1M_EL_EENtNtNtCsieiGu2EXtoJ_4core3ops4drop4Drop4dropCssR9xeAO3IU_12serde_derive, symObjAddr: 0xBE10, symBinAddr: 0x671B0, symSize: 0x120 }
  - { offset: 0xAAAA5, size: 0x8, addend: 0x0, symName: __RNvXs6_NtCslJiobkLta79_5alloc5boxedINtB5_3BoxINtNtCsdGrGZaRBwMb_3syn5drops6NoDropDINtNtBM_10punctuated9IterTraitNtNtBM_4path15GenericArgumentEp4ItemRB1M_EL_EENtNtNtCsieiGu2EXtoJ_4core3ops4drop4Drop4dropCssR9xeAO3IU_12serde_derive, symObjAddr: 0xBF30, symBinAddr: 0x672D0, symSize: 0x120 }
  - { offset: 0xAABE2, size: 0x8, addend: 0x0, symName: __RNvXs6_NtCslJiobkLta79_5alloc5boxedINtB5_3BoxINtNtCsdGrGZaRBwMb_3syn5drops6NoDropDINtNtBM_10punctuated9IterTraitNtNtBM_8generics12GenericParamEp4ItemRB1M_EL_EENtNtNtCsieiGu2EXtoJ_4core3ops4drop4Drop4dropCssR9xeAO3IU_12serde_derive, symObjAddr: 0xC050, symBinAddr: 0x673F0, symSize: 0x120 }
  - { offset: 0xAAD1F, size: 0x8, addend: 0x0, symName: __RNvXs6_NtCslJiobkLta79_5alloc5boxedINtB5_3BoxINtNtNtNtB7_11collections5btree4node12InternalNodeNtNtCsdGrGZaRBwMb_3syn8lifetime8LifetimeNtNtBM_7set_val9SetValZSTEENtNtNtCsieiGu2EXtoJ_4core3ops4drop4Drop4dropCssR9xeAO3IU_12serde_derive, symObjAddr: 0xC170, symBinAddr: 0x67510, symSize: 0xB0 }
  - { offset: 0xAAE5A, size: 0x8, addend: 0x0, symName: __RNvXs6_NtCslJiobkLta79_5alloc5boxedINtB5_3BoxINtNtNtNtB7_11collections5btree4node12InternalNodeNtNtNtCssR9xeAO3IU_12serde_derive9internals4name4NameNtNtBM_7set_val9SetValZSTEENtNtNtCsieiGu2EXtoJ_4core3ops4drop4Drop4dropB1B_, symObjAddr: 0xC220, symBinAddr: 0x675C0, symSize: 0xB0 }
  - { offset: 0xAAF95, size: 0x8, addend: 0x0, symName: __RNvXs6_NtCslJiobkLta79_5alloc5boxedINtB5_3BoxINtNtNtNtB7_11collections5btree4node8LeafNodeNtNtCsdGrGZaRBwMb_3syn8lifetime8LifetimeNtNtBM_7set_val9SetValZSTEENtNtNtCsieiGu2EXtoJ_4core3ops4drop4Drop4dropCssR9xeAO3IU_12serde_derive, symObjAddr: 0xC2D0, symBinAddr: 0x67670, symSize: 0xB0 }
  - { offset: 0xAB0D0, size: 0x8, addend: 0x0, symName: __RNvXs6_NtCslJiobkLta79_5alloc5boxedINtB5_3BoxINtNtNtNtB7_11collections5btree4node8LeafNodeNtNtNtCssR9xeAO3IU_12serde_derive9internals4name4NameNtNtBM_7set_val9SetValZSTEENtNtNtCsieiGu2EXtoJ_4core3ops4drop4Drop4dropB1w_, symObjAddr: 0xC380, symBinAddr: 0x67720, symSize: 0xB0 }
  - { offset: 0xAB20B, size: 0x8, addend: 0x0, symName: __RNvXs6_NtCslJiobkLta79_5alloc5boxedINtB5_3BoxNtNtNtCsHUR1vrdMJt_3std2io5error6CustomENtNtNtCsieiGu2EXtoJ_4core3ops4drop4Drop4dropCssR9xeAO3IU_12serde_derive, symObjAddr: 0xC430, symBinAddr: 0x677D0, symSize: 0xB0 }
  - { offset: 0xAB34C, size: 0x8, addend: 0x0, symName: __RNvXsD_NtCslJiobkLta79_5alloc5boxedINtB5_3BoxNtNtCsdGrGZaRBwMb_3syn2ty4TypeEINtNtCsieiGu2EXtoJ_4core7convert5AsMutBH_E6as_mutCssR9xeAO3IU_12serde_derive, symObjAddr: 0xC680, symBinAddr: 0x67A20, symSize: 0x10 }
  - { offset: 0xAB38C, size: 0x8, addend: 0x0, symName: __RNvXsD_NtCslJiobkLta79_5alloc5boxedINtB5_3BoxNtNtCsdGrGZaRBwMb_3syn2ty9BareFnArgEINtNtCsieiGu2EXtoJ_4core7convert5AsMutBH_E6as_mutCssR9xeAO3IU_12serde_derive, symObjAddr: 0xC690, symBinAddr: 0x67A30, symSize: 0x10 }
  - { offset: 0xAB3CC, size: 0x8, addend: 0x0, symName: __RNvXsD_NtCslJiobkLta79_5alloc5boxedINtB5_3BoxNtNtCsdGrGZaRBwMb_3syn4data7VariantEINtNtCsieiGu2EXtoJ_4core7convert5AsMutBH_E6as_mutCssR9xeAO3IU_12serde_derive, symObjAddr: 0xC6A0, symBinAddr: 0x67A40, symSize: 0x10 }
  - { offset: 0xAB40C, size: 0x8, addend: 0x0, symName: __RNvXsD_NtCslJiobkLta79_5alloc5boxedINtB5_3BoxNtNtCsdGrGZaRBwMb_3syn4expr4ExprEINtNtCsieiGu2EXtoJ_4core7convert5AsMutBH_E6as_mutCssR9xeAO3IU_12serde_derive, symObjAddr: 0xC6B0, symBinAddr: 0x67A50, symSize: 0x10 }
  - { offset: 0xAB44C, size: 0x8, addend: 0x0, symName: __RNvXsD_NtCslJiobkLta79_5alloc5boxedINtB5_3BoxNtNtCsdGrGZaRBwMb_3syn4path15GenericArgumentEINtNtCsieiGu2EXtoJ_4core7convert5AsMutBH_E6as_mutCssR9xeAO3IU_12serde_derive, symObjAddr: 0xC6C0, symBinAddr: 0x67A60, symSize: 0x10 }
  - { offset: 0xAB48C, size: 0x8, addend: 0x0, symName: __RNvXsD_NtCslJiobkLta79_5alloc5boxedINtB5_3BoxNtNtCsdGrGZaRBwMb_3syn8generics14TypeParamBoundEINtNtCsieiGu2EXtoJ_4core7convert5AsMutBH_E6as_mutCssR9xeAO3IU_12serde_derive, symObjAddr: 0xC6D0, symBinAddr: 0x67A70, symSize: 0x10 }
  - { offset: 0xAB4CC, size: 0x8, addend: 0x0, symName: __RNvXsD_NtCslJiobkLta79_5alloc5boxedINtB5_3BoxNtNtCsdGrGZaRBwMb_3syn8generics14WherePredicateEINtNtCsieiGu2EXtoJ_4core7convert5AsMutBH_E6as_mutCssR9xeAO3IU_12serde_derive, symObjAddr: 0xC6E0, symBinAddr: 0x67A80, symSize: 0x10 }
  - { offset: 0xAC85E, size: 0x8, addend: 0x0, symName: __RINvMNtCslJiobkLta79_5alloc5sliceSNtNtCsdGrGZaRBwMb_3syn8generics14TypeParamBound8into_vecNtNtB5_5alloc6GlobalECssR9xeAO3IU_12serde_derive, symObjAddr: 0x0, symBinAddr: 0x5B450, symSize: 0x40 }
  - { offset: 0xAC912, size: 0x8, addend: 0x0, symName: __RINvXNvMNtCslJiobkLta79_5alloc5sliceSp9to_vec_inNtNtCsdGrGZaRBwMb_3syn8generics14WherePredicateNtB3_10ConvertVec6to_vecNtNtB8_5alloc6GlobalECssR9xeAO3IU_12serde_derive, symObjAddr: 0x570, symBinAddr: 0x5B910, symSize: 0x490 }
  - { offset: 0xACEDE, size: 0x8, addend: 0x0, symName: __RNvMNtCslJiobkLta79_5alloc5sliceSNtNtCsdGrGZaRBwMb_3syn8generics14WherePredicate6to_vecCssR9xeAO3IU_12serde_derive, symObjAddr: 0x1730, symBinAddr: 0x5CAD0, symSize: 0x30 }
  - { offset: 0xB21A5, size: 0x8, addend: 0x0, symName: __RNvXNtCsdGrGZaRBwMb_3syn7spannedNtNtB4_4data5FieldNtB2_7Spanned4spanCssR9xeAO3IU_12serde_derive, symObjAddr: 0xAA10, symBinAddr: 0x65DB0, symSize: 0x20 }
  - { offset: 0xB21DA, size: 0x8, addend: 0x0, symName: __RNvXNtCsdGrGZaRBwMb_3syn7spannedNtNtB4_4data7VariantNtB2_7Spanned4spanCssR9xeAO3IU_12serde_derive, symObjAddr: 0xAA30, symBinAddr: 0x65DD0, symSize: 0x20 }
  - { offset: 0xB3498, size: 0x8, addend: 0x0, symName: __RNvXNtCs9OU1sGv5X54_5quote9to_tokensRNtNtCsdGrGZaRBwMb_3syn4data6FieldsNtB2_8ToTokens9to_tokensCssR9xeAO3IU_12serde_derive, symObjAddr: 0xA980, symBinAddr: 0x65D20, symSize: 0x30 }
  - { offset: 0xB34D7, size: 0x8, addend: 0x0, symName: __RNvXNtCs9OU1sGv5X54_5quote9to_tokensRNtNtCsdGrGZaRBwMb_3syn8generics11WhereClauseNtB2_8ToTokens9to_tokensCssR9xeAO3IU_12serde_derive, symObjAddr: 0xA9B0, symBinAddr: 0x65D50, symSize: 0x30 }
  - { offset: 0xB3516, size: 0x8, addend: 0x0, symName: __RNvXNtCs9OU1sGv5X54_5quote9to_tokensRNtNtNtCssR9xeAO3IU_12serde_derive9internals4name4NameNtB2_8ToTokens9to_tokensBF_, symObjAddr: 0xA9E0, symBinAddr: 0x65D80, symSize: 0x30 }
  - { offset: 0xB355B, size: 0x8, addend: 0x0, symName: __RNvYRNtNtCsdGrGZaRBwMb_3syn4data5FieldNtNtCs9OU1sGv5X54_5quote9to_tokens8ToTokens15to_token_streamCssR9xeAO3IU_12serde_derive, symObjAddr: 0xCB40, symBinAddr: 0x67EE0, symSize: 0x90 }
  - { offset: 0xB35A5, size: 0x8, addend: 0x0, symName: __RNvYRNtNtCsdGrGZaRBwMb_3syn4data5FieldNtNtCs9OU1sGv5X54_5quote9to_tokens8ToTokens17into_token_streamCssR9xeAO3IU_12serde_derive, symObjAddr: 0xCBD0, symBinAddr: 0x67F70, symSize: 0x50 }
  - { offset: 0xB35DA, size: 0x8, addend: 0x0, symName: __RNvYRNtNtCsdGrGZaRBwMb_3syn4data6FieldsNtNtCs9OU1sGv5X54_5quote9to_tokens8ToTokens15to_token_streamCssR9xeAO3IU_12serde_derive, symObjAddr: 0xCC20, symBinAddr: 0x67FC0, symSize: 0x90 }
  - { offset: 0xB3624, size: 0x8, addend: 0x0, symName: __RNvYRNtNtCsdGrGZaRBwMb_3syn4data6FieldsNtNtCs9OU1sGv5X54_5quote9to_tokens8ToTokens17into_token_streamCssR9xeAO3IU_12serde_derive, symObjAddr: 0xCCB0, symBinAddr: 0x68050, symSize: 0x50 }
  - { offset: 0xB3659, size: 0x8, addend: 0x0, symName: __RNvYRNtNtCsdGrGZaRBwMb_3syn4data7VariantNtNtCs9OU1sGv5X54_5quote9to_tokens8ToTokens15to_token_streamCssR9xeAO3IU_12serde_derive, symObjAddr: 0xCD00, symBinAddr: 0x680A0, symSize: 0x90 }
  - { offset: 0xB36A3, size: 0x8, addend: 0x0, symName: __RNvYRNtNtCsdGrGZaRBwMb_3syn4data7VariantNtNtCs9OU1sGv5X54_5quote9to_tokens8ToTokens17into_token_streamCssR9xeAO3IU_12serde_derive, symObjAddr: 0xCD90, symBinAddr: 0x68130, symSize: 0x50 }
  - { offset: 0xB36E4, size: 0x8, addend: 0x0, symName: __RNvXs0_NtCs9OU1sGv5X54_5quote7spannedNtNtCsdGrGZaRBwMb_3syn4data5FieldNtB5_7Spanned6___spanCssR9xeAO3IU_12serde_derive, symObjAddr: 0xAAD0, symBinAddr: 0x65E70, symSize: 0x30 }
  - { offset: 0xB3719, size: 0x8, addend: 0x0, symName: __RNvXs0_NtCs9OU1sGv5X54_5quote7spannedNtNtCsdGrGZaRBwMb_3syn4data7VariantNtB5_7Spanned6___spanCssR9xeAO3IU_12serde_derive, symObjAddr: 0xAB00, symBinAddr: 0x65EA0, symSize: 0x30 }
  - { offset: 0xB3751, size: 0x8, addend: 0x0, symName: __RNvMNtNtCs9OU1sGv5X54_5quote9___private8get_spanINtB2_7GetSpanNtCsaKzlTDPUHDb_11proc_macro24SpanE11___into_spanCssR9xeAO3IU_12serde_derive, symObjAddr: 0x1760, symBinAddr: 0x5CB00, symSize: 0x20 }
  - { offset: 0xB3780, size: 0x8, addend: 0x0, symName: __RNvMNtNtCssR9xeAO3IU_12serde_derive9internals4nameNtB2_9MultiName10from_attrs, symObjAddr: 0x1780, symBinAddr: 0x5CB20, symSize: 0x570 }
  - { offset: 0xB38A0, size: 0x8, addend: 0x0, symName: __RNvMNtNtCssR9xeAO3IU_12serde_derive9internals4nameNtB2_9MultiName14serialize_name, symObjAddr: 0x1CF0, symBinAddr: 0x5D090, symSize: 0x20 }
  - { offset: 0xB38C2, size: 0x8, addend: 0x0, symName: __RNvMNtNtCssR9xeAO3IU_12serde_derive9internals4nameNtB2_9MultiName16deserialize_name, symObjAddr: 0x1D10, symBinAddr: 0x5D0B0, symSize: 0x20 }
  - { offset: 0xB38F1, size: 0x8, addend: 0x0, symName: __RNvMNtNtCssR9xeAO3IU_12serde_derive9internals4nameNtB2_9MultiName19deserialize_aliases, symObjAddr: 0x1D30, symBinAddr: 0x5D0D0, symSize: 0x20 }
  - { offset: 0xB3934, size: 0x8, addend: 0x0, symName: __RNvMs10_NtNtCsieiGu2EXtoJ_4core9core_arch3x86NtB6_7___m128i8as_i8x16CssR9xeAO3IU_12serde_derive, symObjAddr: 0x1D50, symBinAddr: 0x5D0F0, symSize: 0x20 }
  - { offset: 0xB5D30, size: 0x8, addend: 0x0, symName: __RINvCsdGrGZaRBwMb_3syn5parseNtNtB2_6derive11DeriveInputECssR9xeAO3IU_12serde_derive, symObjAddr: 0x0, symBinAddr: 0x68180, symSize: 0x30 }
  - { offset: 0xB5D7F, size: 0x8, addend: 0x0, symName: __RNvXsw_NtCslJiobkLta79_5alloc6stringNtNtCsdGrGZaRBwMb_3syn8lifetime8LifetimeNtB5_8ToString9to_stringCssR9xeAO3IU_12serde_derive, symObjAddr: 0x9F30, symBinAddr: 0x720B0, symSize: 0x30 }
  - { offset: 0xB5DBC, size: 0x8, addend: 0x0, symName: __RNvXsx_NtCslJiobkLta79_5alloc6stringNtNtCsdGrGZaRBwMb_3syn8lifetime8LifetimeNtB5_12SpecToString14spec_to_stringCssR9xeAO3IU_12serde_derive, symObjAddr: 0xA0A0, symBinAddr: 0x72220, symSize: 0x120 }
  - { offset: 0xB6F23, size: 0x8, addend: 0x0, symName: __RNvXs1_NtCslJiobkLta79_5alloc7raw_vecINtB5_6RawVecINtNtB7_3vec3VecNtNtCsdGrGZaRBwMb_3syn8generics14WherePredicateEENtNtNtCsieiGu2EXtoJ_4core3ops4drop4Drop4dropCssR9xeAO3IU_12serde_derive, symObjAddr: 0x7A50, symBinAddr: 0x6FBD0, symSize: 0x30 }
  - { offset: 0xB6F5F, size: 0x8, addend: 0x0, symName: __RNvXs1_NtCslJiobkLta79_5alloc7raw_vecINtB5_6RawVecNtCsaKzlTDPUHDb_11proc_macro211TokenStreamENtNtNtCsieiGu2EXtoJ_4core3ops4drop4Drop4dropCssR9xeAO3IU_12serde_derive, symObjAddr: 0x7A80, symBinAddr: 0x6FC00, symSize: 0x30 }
  - { offset: 0xB6F9B, size: 0x8, addend: 0x0, symName: __RNvXs1_NtCslJiobkLta79_5alloc7raw_vecINtB5_6RawVecNtCsaKzlTDPUHDb_11proc_macro25IdentENtNtNtCsieiGu2EXtoJ_4core3ops4drop4Drop4dropCssR9xeAO3IU_12serde_derive, symObjAddr: 0x7AB0, symBinAddr: 0x6FC30, symSize: 0x30 }
  - { offset: 0xB6FD7, size: 0x8, addend: 0x0, symName: __RNvXs1_NtCslJiobkLta79_5alloc7raw_vecINtB5_6RawVecNtNtCsdGrGZaRBwMb_3syn3lit6LitStrENtNtNtCsieiGu2EXtoJ_4core3ops4drop4Drop4dropCssR9xeAO3IU_12serde_derive, symObjAddr: 0x7AE0, symBinAddr: 0x6FC60, symSize: 0x20 }
  - { offset: 0xB7013, size: 0x8, addend: 0x0, symName: __RNvXs1_NtCslJiobkLta79_5alloc7raw_vecINtB5_6RawVecNtNtCsdGrGZaRBwMb_3syn4expr6MemberENtNtNtCsieiGu2EXtoJ_4core3ops4drop4Drop4dropCssR9xeAO3IU_12serde_derive, symObjAddr: 0x7B00, symBinAddr: 0x6FC80, symSize: 0x30 }
  - { offset: 0xB704F, size: 0x8, addend: 0x0, symName: __RNvXs1_NtCslJiobkLta79_5alloc7raw_vecINtB5_6RawVecNtNtCsdGrGZaRBwMb_3syn4path11PathSegmentENtNtNtCsieiGu2EXtoJ_4core3ops4drop4Drop4dropCssR9xeAO3IU_12serde_derive, symObjAddr: 0x7B30, symBinAddr: 0x6FCB0, symSize: 0x30 }
  - { offset: 0xB708B, size: 0x8, addend: 0x0, symName: __RNvXs1_NtCslJiobkLta79_5alloc7raw_vecINtB5_6RawVecNtNtCsdGrGZaRBwMb_3syn5error5ErrorENtNtNtCsieiGu2EXtoJ_4core3ops4drop4Drop4dropCssR9xeAO3IU_12serde_derive, symObjAddr: 0x7B60, symBinAddr: 0x6FCE0, symSize: 0x30 }
  - { offset: 0xB70C7, size: 0x8, addend: 0x0, symName: __RNvXs1_NtCslJiobkLta79_5alloc7raw_vecINtB5_6RawVecNtNtCsdGrGZaRBwMb_3syn8generics12GenericParamENtNtNtCsieiGu2EXtoJ_4core3ops4drop4Drop4dropCssR9xeAO3IU_12serde_derive, symObjAddr: 0x7B90, symBinAddr: 0x6FD10, symSize: 0x30 }
  - { offset: 0xB7103, size: 0x8, addend: 0x0, symName: __RNvXs1_NtCslJiobkLta79_5alloc7raw_vecINtB5_6RawVecNtNtCsdGrGZaRBwMb_3syn8generics14WherePredicateENtNtNtCsieiGu2EXtoJ_4core3ops4drop4Drop4dropCssR9xeAO3IU_12serde_derive, symObjAddr: 0x7BC0, symBinAddr: 0x6FD40, symSize: 0x30 }
  - { offset: 0xB713F, size: 0x8, addend: 0x0, symName: __RNvXs1_NtCslJiobkLta79_5alloc7raw_vecINtB5_6RawVecNtNtCssR9xeAO3IU_12serde_derive2de16FieldWithAliasesENtNtNtCsieiGu2EXtoJ_4core3ops4drop4Drop4dropBQ_, symObjAddr: 0x7BF0, symBinAddr: 0x6FD70, symSize: 0x30 }
  - { offset: 0xB717B, size: 0x8, addend: 0x0, symName: __RNvXs1_NtCslJiobkLta79_5alloc7raw_vecINtB5_6RawVecNtNtNtCssR9xeAO3IU_12serde_derive9internals3ast5FieldENtNtNtCsieiGu2EXtoJ_4core3ops4drop4Drop4dropBS_, symObjAddr: 0x7C20, symBinAddr: 0x6FDA0, symSize: 0x30 }
  - { offset: 0xB71B7, size: 0x8, addend: 0x0, symName: __RNvXs1_NtCslJiobkLta79_5alloc7raw_vecINtB5_6RawVecNtNtNtCssR9xeAO3IU_12serde_derive9internals3ast7VariantENtNtNtCsieiGu2EXtoJ_4core3ops4drop4Drop4dropBS_, symObjAddr: 0x7C50, symBinAddr: 0x6FDD0, symSize: 0x30 }
  - { offset: 0xB71F3, size: 0x8, addend: 0x0, symName: __RNvXs1_NtCslJiobkLta79_5alloc7raw_vecINtB5_6RawVecNtNtNtCssR9xeAO3IU_12serde_derive9internals4name4NameENtNtNtCsieiGu2EXtoJ_4core3ops4drop4Drop4dropBS_, symObjAddr: 0x7C80, symBinAddr: 0x6FE00, symSize: 0x30 }
  - { offset: 0xB722F, size: 0x8, addend: 0x0, symName: __RNvXs1_NtCslJiobkLta79_5alloc7raw_vecINtB5_6RawVecRNtCsaKzlTDPUHDb_11proc_macro25IdentENtNtNtCsieiGu2EXtoJ_4core3ops4drop4Drop4dropCssR9xeAO3IU_12serde_derive, symObjAddr: 0x7CB0, symBinAddr: 0x6FE30, symSize: 0x20 }
  - { offset: 0xB726B, size: 0x8, addend: 0x0, symName: __RNvXs1_NtCslJiobkLta79_5alloc7raw_vecINtB5_6RawVecRNtNtCsdGrGZaRBwMb_3syn2ty4TypeENtNtNtCsieiGu2EXtoJ_4core3ops4drop4Drop4dropCssR9xeAO3IU_12serde_derive, symObjAddr: 0x7CD0, symBinAddr: 0x6FE50, symSize: 0x20 }
  - { offset: 0xB72A7, size: 0x8, addend: 0x0, symName: __RNvXs1_NtCslJiobkLta79_5alloc7raw_vecINtB5_6RawVecRNtNtCsdGrGZaRBwMb_3syn2ty8TypePathENtNtNtCsieiGu2EXtoJ_4core3ops4drop4Drop4dropCssR9xeAO3IU_12serde_derive, symObjAddr: 0x7CF0, symBinAddr: 0x6FE70, symSize: 0x20 }
  - { offset: 0xB72E3, size: 0x8, addend: 0x0, symName: __RNvXs1_NtCslJiobkLta79_5alloc7raw_vecINtB5_6RawVecRNtNtCsdGrGZaRBwMb_3syn4expr6MemberENtNtNtCsieiGu2EXtoJ_4core3ops4drop4Drop4dropCssR9xeAO3IU_12serde_derive, symObjAddr: 0x7D10, symBinAddr: 0x6FE90, symSize: 0x20 }
  - { offset: 0xB731F, size: 0x8, addend: 0x0, symName: __RNvXs1_NtCslJiobkLta79_5alloc7raw_vecINtB5_6RawVecTRNtNtNtCssR9xeAO3IU_12serde_derive9internals3ast5FieldNtCsaKzlTDPUHDb_11proc_macro25IdentEENtNtNtCsieiGu2EXtoJ_4core3ops4drop4Drop4dropBU_, symObjAddr: 0x7D30, symBinAddr: 0x6FEB0, symSize: 0x30 }
  - { offset: 0xB7983, size: 0x8, addend: 0x0, symName: __RINvNvXs0_NtNtNtCslJiobkLta79_5alloc11collections5btree3mapINtB8_8BTreeMappppENtNtCsieiGu2EXtoJ_4core5clone5Clone5clone13clone_subtreeNtNtCsdGrGZaRBwMb_3syn8lifetime8LifetimeNtNtBa_7set_val9SetValZSTNtNtBe_5alloc6GlobalECssR9xeAO3IU_12serde_derive, symObjAddr: 0x2EA0, symBinAddr: 0x6B020, symSize: 0xC90 }
  - { offset: 0xB8182, size: 0x8, addend: 0x0, symName: __RNvXs0_NtNtNtCslJiobkLta79_5alloc11collections5btree3mapINtB5_8BTreeMapNtNtCsdGrGZaRBwMb_3syn8lifetime8LifetimeNtNtB7_7set_val9SetValZSTENtNtCsieiGu2EXtoJ_4core5clone5Clone5cloneCssR9xeAO3IU_12serde_derive, symObjAddr: 0x7940, symBinAddr: 0x6FAC0, symSize: 0xF0 }
  - { offset: 0xB82F1, size: 0x8, addend: 0x0, symName: __RNCNvMs6_NtNtNtNtCslJiobkLta79_5alloc11collections5btree3map5entryINtB7_11VacantEntryNtNtCsdGrGZaRBwMb_3syn8lifetime8LifetimeNtNtBb_7set_val9SetValZSTE12insert_entry0CssR9xeAO3IU_12serde_derive, symObjAddr: 0x4BF0, symBinAddr: 0x6CD70, symSize: 0x180 }
  - { offset: 0xB8450, size: 0x8, addend: 0x0, symName: __RNCNvMs6_NtNtNtNtCslJiobkLta79_5alloc11collections5btree3map5entryINtB7_11VacantEntryNtNtNtCssR9xeAO3IU_12serde_derive9internals4name4NameNtNtBb_7set_val9SetValZSTE12insert_entry0B1r_, symObjAddr: 0x4D70, symBinAddr: 0x6CEF0, symSize: 0x180 }
  - { offset: 0xB8B3A, size: 0x8, addend: 0x0, symName: __RNvXNtNtNtCslJiobkLta79_5alloc11collections5btree3mapINtB2_8BTreeMapNtNtCsdGrGZaRBwMb_3syn8lifetime8LifetimeNtNtB4_7set_val9SetValZSTENtNtNtCsieiGu2EXtoJ_4core3ops4drop4Drop4dropCssR9xeAO3IU_12serde_derive, symObjAddr: 0x77D0, symBinAddr: 0x6F950, symSize: 0x40 }
  - { offset: 0xB8BB8, size: 0x8, addend: 0x0, symName: __RNvXNtNtNtCslJiobkLta79_5alloc11collections5btree3mapINtB2_8BTreeMapNtNtNtCssR9xeAO3IU_12serde_derive9internals4name4NameNtNtB4_7set_val9SetValZSTENtNtNtCsieiGu2EXtoJ_4core3ops4drop4Drop4dropB1a_, symObjAddr: 0x7810, symBinAddr: 0x6F990, symSize: 0x40 }
  - { offset: 0xB8C46, size: 0x8, addend: 0x0, symName: __RNvXNvXsw_NtNtNtCslJiobkLta79_5alloc11collections5btree3mapINtB8_8IntoIterpppENtNtNtCsieiGu2EXtoJ_4core3ops4drop4Drop4dropINtB2_9DropGuardNtNtCsdGrGZaRBwMb_3syn8lifetime8LifetimeNtNtBa_7set_val9SetValZSTNtNtBe_5alloc6GlobalEB1e_4dropCssR9xeAO3IU_12serde_derive, symObjAddr: 0x7860, symBinAddr: 0x6F9E0, symSize: 0x70 }
  - { offset: 0xB8CA9, size: 0x8, addend: 0x0, symName: __RNvXNvXsw_NtNtNtCslJiobkLta79_5alloc11collections5btree3mapINtB8_8IntoIterpppENtNtNtCsieiGu2EXtoJ_4core3ops4drop4Drop4dropINtB2_9DropGuardNtNtNtCssR9xeAO3IU_12serde_derive9internals4name4NameNtNtBa_7set_val9SetValZSTNtNtBe_5alloc6GlobalEB1e_4dropB2i_, symObjAddr: 0x78D0, symBinAddr: 0x6FA50, symSize: 0x70 }
  - { offset: 0xB8D6E, size: 0x8, addend: 0x0, symName: __RNvXsw_NtNtNtCslJiobkLta79_5alloc11collections5btree3mapINtB5_8IntoIterNtNtCsdGrGZaRBwMb_3syn8lifetime8LifetimeNtNtB7_7set_val9SetValZSTENtNtNtCsieiGu2EXtoJ_4core3ops4drop4Drop4dropCssR9xeAO3IU_12serde_derive, symObjAddr: 0x9F60, symBinAddr: 0x720E0, symSize: 0xA0 }
  - { offset: 0xB8DDF, size: 0x8, addend: 0x0, symName: __RNvXsw_NtNtNtCslJiobkLta79_5alloc11collections5btree3mapINtB5_8IntoIterNtNtNtCssR9xeAO3IU_12serde_derive9internals4name4NameNtNtB7_7set_val9SetValZSTENtNtNtCsieiGu2EXtoJ_4core3ops4drop4Drop4dropB1d_, symObjAddr: 0xA000, symBinAddr: 0x72180, symSize: 0xA0 }
  - { offset: 0xB8E56, size: 0x8, addend: 0x0, symName: __RNvXsk_NtNtNtCslJiobkLta79_5alloc11collections5btree3mapINtB5_4IterNtNtCsdGrGZaRBwMb_3syn8lifetime8LifetimeNtNtB7_7set_val9SetValZSTENtNtNtNtCsieiGu2EXtoJ_4core4iter6traits8iterator8Iterator4nextCssR9xeAO3IU_12serde_derive, symObjAddr: 0x94E0, symBinAddr: 0x71660, symSize: 0xA0 }
  - { offset: 0xB8EDE, size: 0x8, addend: 0x0, symName: __RNvXsk_NtNtNtCslJiobkLta79_5alloc11collections5btree3mapINtB5_4IterNtNtNtCssR9xeAO3IU_12serde_derive9internals4name4NameNtNtB7_7set_val9SetValZSTENtNtNtNtCsieiGu2EXtoJ_4core4iter6traits8iterator8Iterator4nextB19_, symObjAddr: 0x9580, symBinAddr: 0x71700, symSize: 0xA0 }
  - { offset: 0xB8F6C, size: 0x8, addend: 0x0, symName: __RNvXsv_NtNtNtCslJiobkLta79_5alloc11collections5btree3mapINtB5_8BTreeMapNtNtCsdGrGZaRBwMb_3syn8lifetime8LifetimeNtNtB7_7set_val9SetValZSTENtNtNtNtCsieiGu2EXtoJ_4core4iter6traits7collect12IntoIterator9into_iterCssR9xeAO3IU_12serde_derive, symObjAddr: 0x96A0, symBinAddr: 0x71820, symSize: 0x2A0 }
  - { offset: 0xB90E2, size: 0x8, addend: 0x0, symName: __RNvXsv_NtNtNtCslJiobkLta79_5alloc11collections5btree3mapINtB5_8BTreeMapNtNtNtCssR9xeAO3IU_12serde_derive9internals4name4NameNtNtB7_7set_val9SetValZSTENtNtNtNtCsieiGu2EXtoJ_4core4iter6traits7collect12IntoIterator9into_iterB1d_, symObjAddr: 0x9940, symBinAddr: 0x71AC0, symSize: 0x2A0 }
  - { offset: 0xBA854, size: 0x8, addend: 0x0, symName: __RINvNtNtNtCslJiobkLta79_5alloc11collections5btree3mem7replaceINtNtB4_4node6HandleINtB10_7NodeRefNtNtB10_6marker5DyingNtNtCsdGrGZaRBwMb_3syn8lifetime8LifetimeNtNtB4_7set_val9SetValZSTNtB1y_4LeafENtB1y_4EdgeEIBY_IB1i_B1w_B1R_B2v_NtB1y_14LeafOrInternalENtB1y_2KVENCINvMsm_NtB4_8navigateBX_27deallocating_next_uncheckedNtNtB8_5alloc6GlobalE0ECssR9xeAO3IU_12serde_derive, symObjAddr: 0x29A0, symBinAddr: 0x6AB20, symSize: 0x110 }
  - { offset: 0xBA946, size: 0x8, addend: 0x0, symName: __RINvNtNtNtCslJiobkLta79_5alloc11collections5btree3mem7replaceINtNtB4_4node6HandleINtB10_7NodeRefNtNtB10_6marker5DyingNtNtNtCssR9xeAO3IU_12serde_derive9internals4name4NameNtNtB4_7set_val9SetValZSTNtB1y_4LeafENtB1y_4EdgeEIBY_IB1i_B1w_B1R_B2I_NtB1y_14LeafOrInternalENtB1y_2KVENCINvMsm_NtB4_8navigateBX_27deallocating_next_uncheckedNtNtB8_5alloc6GlobalE0EB1X_, symObjAddr: 0x2AB0, symBinAddr: 0x6AC30, symSize: 0x110 }
  - { offset: 0xBAA38, size: 0x8, addend: 0x0, symName: __RINvNtNtNtCslJiobkLta79_5alloc11collections5btree3mem7replaceINtNtB4_4node6HandleINtB10_7NodeRefNtNtB10_6marker5ImmutNtNtCsdGrGZaRBwMb_3syn8lifetime8LifetimeNtNtB4_7set_val9SetValZSTNtB1y_4LeafENtB1y_4EdgeETRB1R_RB2v_ENCNvMsk_NtB4_8navigateBX_14next_unchecked0ECssR9xeAO3IU_12serde_derive, symObjAddr: 0x2BC0, symBinAddr: 0x6AD40, symSize: 0xF0 }
  - { offset: 0xBAB28, size: 0x8, addend: 0x0, symName: __RINvNtNtNtCslJiobkLta79_5alloc11collections5btree3mem7replaceINtNtB4_4node6HandleINtB10_7NodeRefNtNtB10_6marker5ImmutNtNtNtCssR9xeAO3IU_12serde_derive9internals4name4NameNtNtB4_7set_val9SetValZSTNtB1y_4LeafENtB1y_4EdgeETRB1R_RB2I_ENCNvMsk_NtB4_8navigateBX_14next_unchecked0EB1X_, symObjAddr: 0x2CB0, symBinAddr: 0x6AE30, symSize: 0xF0 }
  - { offset: 0xBAC18, size: 0x8, addend: 0x0, symName: __RINvNtNtNtCslJiobkLta79_5alloc11collections5btree3mem7replaceINtNtB4_4node7NodeRefNtNtB10_6marker5OwnedNtNtCsdGrGZaRBwMb_3syn8lifetime8LifetimeNtNtB4_7set_val9SetValZSTNtB1k_14LeafOrInternalEuNCINvB2_8take_mutBX_NCINvMss_B10_BX_19push_internal_levelNtNtB8_5alloc6GlobalE0E0ECssR9xeAO3IU_12serde_derive, symObjAddr: 0x2DA0, symBinAddr: 0x6AF20, symSize: 0x80 }
  - { offset: 0xBAD02, size: 0x8, addend: 0x0, symName: __RINvNtNtNtCslJiobkLta79_5alloc11collections5btree3mem7replaceINtNtB4_4node7NodeRefNtNtB10_6marker5OwnedNtNtNtCssR9xeAO3IU_12serde_derive9internals4name4NameNtNtB4_7set_val9SetValZSTNtB1k_14LeafOrInternalEuNCINvB2_8take_mutBX_NCINvMss_B10_BX_19push_internal_levelNtNtB8_5alloc6GlobalE0E0EB1J_, symObjAddr: 0x2E20, symBinAddr: 0x6AFA0, symSize: 0x80 }
  - { offset: 0xBAE26, size: 0x8, addend: 0x0, symName: __RNCINvNtNtNtCslJiobkLta79_5alloc11collections5btree3mem8take_mutINtNtB6_4node7NodeRefNtNtB13_6marker5OwnedNtNtCsdGrGZaRBwMb_3syn8lifetime8LifetimeNtNtB6_7set_val9SetValZSTNtB1n_14LeafOrInternalENCINvMss_B13_B10_19push_internal_levelNtNtBa_5alloc6GlobalE0E0CssR9xeAO3IU_12serde_derive, symObjAddr: 0x4B10, symBinAddr: 0x6CC90, symSize: 0x20 }
  - { offset: 0xBAE73, size: 0x8, addend: 0x0, symName: __RNCINvNtNtNtCslJiobkLta79_5alloc11collections5btree3mem8take_mutINtNtB6_4node7NodeRefNtNtB13_6marker5OwnedNtNtNtCssR9xeAO3IU_12serde_derive9internals4name4NameNtNtB6_7set_val9SetValZSTNtB1n_14LeafOrInternalENCINvMss_B13_B10_19push_internal_levelNtNtBa_5alloc6GlobalE0E0B1M_, symObjAddr: 0x4B30, symBinAddr: 0x6CCB0, symSize: 0x20 }
  - { offset: 0xBAF5B, size: 0x8, addend: 0x0, symName: __RNvXNvNtNtNtCslJiobkLta79_5alloc11collections5btree3mem7replaceNtB2_10PanicGuardNtNtNtCsieiGu2EXtoJ_4core3ops4drop4Drop4dropCssR9xeAO3IU_12serde_derive, symObjAddr: 0x7850, symBinAddr: 0x6F9D0, symSize: 0x10 }
  - { offset: 0xC2414, size: 0x8, addend: 0x0, symName: __RNvXs6_NtCsieiGu2EXtoJ_4core6optionINtB5_6OptionNtNtCsdGrGZaRBwMb_3syn8generics12GenericParamENtNtNtNtB7_4iter6traits7collect12IntoIterator9into_iterCssR9xeAO3IU_12serde_derive, symObjAddr: 0x8660, symBinAddr: 0x707E0, symSize: 0x60 }
  - { offset: 0xC244C, size: 0x8, addend: 0x0, symName: __RNvXs6_NtCsieiGu2EXtoJ_4core6optionINtB5_6OptionQNtNtCsdGrGZaRBwMb_3syn2ty4TypeENtNtNtNtB7_4iter6traits7collect12IntoIterator9into_iterCssR9xeAO3IU_12serde_derive, symObjAddr: 0x86C0, symBinAddr: 0x70840, symSize: 0x10 }
  - { offset: 0xC2483, size: 0x8, addend: 0x0, symName: __RNvXs6_NtCsieiGu2EXtoJ_4core6optionINtB5_6OptionQNtNtCsdGrGZaRBwMb_3syn2ty9BareFnArgENtNtNtNtB7_4iter6traits7collect12IntoIterator9into_iterCssR9xeAO3IU_12serde_derive, symObjAddr: 0x86D0, symBinAddr: 0x70850, symSize: 0x10 }
  - { offset: 0xC24BA, size: 0x8, addend: 0x0, symName: __RNvXs6_NtCsieiGu2EXtoJ_4core6optionINtB5_6OptionQNtNtCsdGrGZaRBwMb_3syn4data7VariantENtNtNtNtB7_4iter6traits7collect12IntoIterator9into_iterCssR9xeAO3IU_12serde_derive, symObjAddr: 0x86E0, symBinAddr: 0x70860, symSize: 0x10 }
  - { offset: 0xC24F1, size: 0x8, addend: 0x0, symName: __RNvXs6_NtCsieiGu2EXtoJ_4core6optionINtB5_6OptionQNtNtCsdGrGZaRBwMb_3syn4expr4ExprENtNtNtNtB7_4iter6traits7collect12IntoIterator9into_iterCssR9xeAO3IU_12serde_derive, symObjAddr: 0x86F0, symBinAddr: 0x70870, symSize: 0x10 }
  - { offset: 0xC2528, size: 0x8, addend: 0x0, symName: __RNvXs6_NtCsieiGu2EXtoJ_4core6optionINtB5_6OptionQNtNtCsdGrGZaRBwMb_3syn4path15GenericArgumentENtNtNtNtB7_4iter6traits7collect12IntoIterator9into_iterCssR9xeAO3IU_12serde_derive, symObjAddr: 0x8700, symBinAddr: 0x70880, symSize: 0x10 }
  - { offset: 0xC255F, size: 0x8, addend: 0x0, symName: __RNvXs6_NtCsieiGu2EXtoJ_4core6optionINtB5_6OptionQNtNtCsdGrGZaRBwMb_3syn8generics14TypeParamBoundENtNtNtNtB7_4iter6traits7collect12IntoIterator9into_iterCssR9xeAO3IU_12serde_derive, symObjAddr: 0x8710, symBinAddr: 0x70890, symSize: 0x10 }
  - { offset: 0xC2596, size: 0x8, addend: 0x0, symName: __RNvXs6_NtCsieiGu2EXtoJ_4core6optionINtB5_6OptionQNtNtCsdGrGZaRBwMb_3syn8generics14WherePredicateENtNtNtNtB7_4iter6traits7collect12IntoIterator9into_iterCssR9xeAO3IU_12serde_derive, symObjAddr: 0x8720, symBinAddr: 0x708A0, symSize: 0x10 }
  - { offset: 0xC25D3, size: 0x8, addend: 0x0, symName: __RNvXs9_NtCsieiGu2EXtoJ_4core6optionINtB5_6OptionINtNtCslJiobkLta79_5alloc3vec3VecNtNtCsdGrGZaRBwMb_3syn8generics14WherePredicateEEINtNtB7_7convert4FromBK_E4fromCssR9xeAO3IU_12serde_derive, symObjAddr: 0x87D0, symBinAddr: 0x70950, symSize: 0x20 }
  - { offset: 0xC2790, size: 0x8, addend: 0x0, symName: __RNvXsP_NtCsieiGu2EXtoJ_4core6optionINtB5_8IntoIterRNtNtCsdGrGZaRBwMb_3syn2ty4TypeENtNtB7_5clone5Clone5cloneCssR9xeAO3IU_12serde_derive, symObjAddr: 0x87F0, symBinAddr: 0x70970, symSize: 0x60 }
  - { offset: 0xC283B, size: 0x8, addend: 0x0, symName: __RNvXsP_NtCsieiGu2EXtoJ_4core6optionINtB5_8IntoIterRNtNtCsdGrGZaRBwMb_3syn2ty9BareFnArgENtNtB7_5clone5Clone5cloneCssR9xeAO3IU_12serde_derive, symObjAddr: 0x8850, symBinAddr: 0x709D0, symSize: 0x60 }
  - { offset: 0xC28E6, size: 0x8, addend: 0x0, symName: __RNvXsP_NtCsieiGu2EXtoJ_4core6optionINtB5_8IntoIterRNtNtCsdGrGZaRBwMb_3syn4data7VariantENtNtB7_5clone5Clone5cloneCssR9xeAO3IU_12serde_derive, symObjAddr: 0x88B0, symBinAddr: 0x70A30, symSize: 0x60 }
  - { offset: 0xC2991, size: 0x8, addend: 0x0, symName: __RNvXsP_NtCsieiGu2EXtoJ_4core6optionINtB5_8IntoIterRNtNtCsdGrGZaRBwMb_3syn4path15GenericArgumentENtNtB7_5clone5Clone5cloneCssR9xeAO3IU_12serde_derive, symObjAddr: 0x8910, symBinAddr: 0x70A90, symSize: 0x60 }
  - { offset: 0xC2DD0, size: 0x8, addend: 0x0, symName: __RNvXsl_NtCsieiGu2EXtoJ_4core6optionINtB5_4IterNtNtCsdGrGZaRBwMb_3syn8lifetime8LifetimeENtNtNtNtB7_4iter6traits8iterator8Iterator4nextCssR9xeAO3IU_12serde_derive, symObjAddr: 0x9620, symBinAddr: 0x717A0, symSize: 0x20 }
  - { offset: 0xC2E4E, size: 0x8, addend: 0x0, symName: __RNvXsw_NtCsieiGu2EXtoJ_4core6optionINtB5_8IntoIterNtNtCsdGrGZaRBwMb_3syn8generics12GenericParamENtNtNtNtB7_4iter6traits8iterator8Iterator4nextCssR9xeAO3IU_12serde_derive, symObjAddr: 0x9BE0, symBinAddr: 0x71D60, symSize: 0x60 }
  - { offset: 0xC2EC6, size: 0x8, addend: 0x0, symName: __RNvXsw_NtCsieiGu2EXtoJ_4core6optionINtB5_8IntoIterQNtNtCsdGrGZaRBwMb_3syn2ty4TypeENtNtNtNtB7_4iter6traits8iterator8Iterator4nextCssR9xeAO3IU_12serde_derive, symObjAddr: 0x9C40, symBinAddr: 0x71DC0, symSize: 0x20 }
  - { offset: 0xC2F3E, size: 0x8, addend: 0x0, symName: __RNvXsw_NtCsieiGu2EXtoJ_4core6optionINtB5_8IntoIterQNtNtCsdGrGZaRBwMb_3syn2ty4TypeENtNtNtNtB7_4iter6traits8iterator8Iterator9size_hintCssR9xeAO3IU_12serde_derive, symObjAddr: 0x9C60, symBinAddr: 0x71DE0, symSize: 0x30 }
  - { offset: 0xC2FB6, size: 0x8, addend: 0x0, symName: __RNvXsw_NtCsieiGu2EXtoJ_4core6optionINtB5_8IntoIterQNtNtCsdGrGZaRBwMb_3syn2ty9BareFnArgENtNtNtNtB7_4iter6traits8iterator8Iterator4nextCssR9xeAO3IU_12serde_derive, symObjAddr: 0x9C90, symBinAddr: 0x71E10, symSize: 0x20 }
  - { offset: 0xC302E, size: 0x8, addend: 0x0, symName: __RNvXsw_NtCsieiGu2EXtoJ_4core6optionINtB5_8IntoIterQNtNtCsdGrGZaRBwMb_3syn2ty9BareFnArgENtNtNtNtB7_4iter6traits8iterator8Iterator9size_hintCssR9xeAO3IU_12serde_derive, symObjAddr: 0x9CB0, symBinAddr: 0x71E30, symSize: 0x30 }
  - { offset: 0xC30A6, size: 0x8, addend: 0x0, symName: __RNvXsw_NtCsieiGu2EXtoJ_4core6optionINtB5_8IntoIterQNtNtCsdGrGZaRBwMb_3syn4data7VariantENtNtNtNtB7_4iter6traits8iterator8Iterator4nextCssR9xeAO3IU_12serde_derive, symObjAddr: 0x9CE0, symBinAddr: 0x71E60, symSize: 0x20 }
  - { offset: 0xC311E, size: 0x8, addend: 0x0, symName: __RNvXsw_NtCsieiGu2EXtoJ_4core6optionINtB5_8IntoIterQNtNtCsdGrGZaRBwMb_3syn4data7VariantENtNtNtNtB7_4iter6traits8iterator8Iterator9size_hintCssR9xeAO3IU_12serde_derive, symObjAddr: 0x9D00, symBinAddr: 0x71E80, symSize: 0x30 }
  - { offset: 0xC3196, size: 0x8, addend: 0x0, symName: __RNvXsw_NtCsieiGu2EXtoJ_4core6optionINtB5_8IntoIterQNtNtCsdGrGZaRBwMb_3syn4expr4ExprENtNtNtNtB7_4iter6traits8iterator8Iterator4nextCssR9xeAO3IU_12serde_derive, symObjAddr: 0x9D30, symBinAddr: 0x71EB0, symSize: 0x20 }
  - { offset: 0xC320E, size: 0x8, addend: 0x0, symName: __RNvXsw_NtCsieiGu2EXtoJ_4core6optionINtB5_8IntoIterQNtNtCsdGrGZaRBwMb_3syn4expr4ExprENtNtNtNtB7_4iter6traits8iterator8Iterator9size_hintCssR9xeAO3IU_12serde_derive, symObjAddr: 0x9D50, symBinAddr: 0x71ED0, symSize: 0x30 }
  - { offset: 0xC3286, size: 0x8, addend: 0x0, symName: __RNvXsw_NtCsieiGu2EXtoJ_4core6optionINtB5_8IntoIterQNtNtCsdGrGZaRBwMb_3syn4path15GenericArgumentENtNtNtNtB7_4iter6traits8iterator8Iterator4nextCssR9xeAO3IU_12serde_derive, symObjAddr: 0x9D80, symBinAddr: 0x71F00, symSize: 0x20 }
  - { offset: 0xC32FE, size: 0x8, addend: 0x0, symName: __RNvXsw_NtCsieiGu2EXtoJ_4core6optionINtB5_8IntoIterQNtNtCsdGrGZaRBwMb_3syn4path15GenericArgumentENtNtNtNtB7_4iter6traits8iterator8Iterator9size_hintCssR9xeAO3IU_12serde_derive, symObjAddr: 0x9DA0, symBinAddr: 0x71F20, symSize: 0x30 }
  - { offset: 0xC3376, size: 0x8, addend: 0x0, symName: __RNvXsw_NtCsieiGu2EXtoJ_4core6optionINtB5_8IntoIterQNtNtCsdGrGZaRBwMb_3syn8generics14TypeParamBoundENtNtNtNtB7_4iter6traits8iterator8Iterator4nextCssR9xeAO3IU_12serde_derive, symObjAddr: 0x9DD0, symBinAddr: 0x71F50, symSize: 0x20 }
  - { offset: 0xC33EE, size: 0x8, addend: 0x0, symName: __RNvXsw_NtCsieiGu2EXtoJ_4core6optionINtB5_8IntoIterQNtNtCsdGrGZaRBwMb_3syn8generics14TypeParamBoundENtNtNtNtB7_4iter6traits8iterator8Iterator9size_hintCssR9xeAO3IU_12serde_derive, symObjAddr: 0x9DF0, symBinAddr: 0x71F70, symSize: 0x30 }
  - { offset: 0xC3466, size: 0x8, addend: 0x0, symName: __RNvXsw_NtCsieiGu2EXtoJ_4core6optionINtB5_8IntoIterQNtNtCsdGrGZaRBwMb_3syn8generics14WherePredicateENtNtNtNtB7_4iter6traits8iterator8Iterator4nextCssR9xeAO3IU_12serde_derive, symObjAddr: 0x9E20, symBinAddr: 0x71FA0, symSize: 0x20 }
  - { offset: 0xC34DE, size: 0x8, addend: 0x0, symName: __RNvXsw_NtCsieiGu2EXtoJ_4core6optionINtB5_8IntoIterQNtNtCsdGrGZaRBwMb_3syn8generics14WherePredicateENtNtNtNtB7_4iter6traits8iterator8Iterator9size_hintCssR9xeAO3IU_12serde_derive, symObjAddr: 0x9E40, symBinAddr: 0x71FC0, symSize: 0x30 }
  - { offset: 0xC3556, size: 0x8, addend: 0x0, symName: __RNvXsw_NtCsieiGu2EXtoJ_4core6optionINtB5_8IntoIterRNtNtCsdGrGZaRBwMb_3syn2ty4TypeENtNtNtNtB7_4iter6traits8iterator8Iterator9size_hintCssR9xeAO3IU_12serde_derive, symObjAddr: 0x9E70, symBinAddr: 0x71FF0, symSize: 0x30 }
  - { offset: 0xC35CE, size: 0x8, addend: 0x0, symName: __RNvXsw_NtCsieiGu2EXtoJ_4core6optionINtB5_8IntoIterRNtNtCsdGrGZaRBwMb_3syn2ty9BareFnArgENtNtNtNtB7_4iter6traits8iterator8Iterator9size_hintCssR9xeAO3IU_12serde_derive, symObjAddr: 0x9EA0, symBinAddr: 0x72020, symSize: 0x30 }
  - { offset: 0xC3646, size: 0x8, addend: 0x0, symName: __RNvXsw_NtCsieiGu2EXtoJ_4core6optionINtB5_8IntoIterRNtNtCsdGrGZaRBwMb_3syn4data7VariantENtNtNtNtB7_4iter6traits8iterator8Iterator9size_hintCssR9xeAO3IU_12serde_derive, symObjAddr: 0x9ED0, symBinAddr: 0x72050, symSize: 0x30 }
  - { offset: 0xC36BE, size: 0x8, addend: 0x0, symName: __RNvXsw_NtCsieiGu2EXtoJ_4core6optionINtB5_8IntoIterRNtNtCsdGrGZaRBwMb_3syn4path15GenericArgumentENtNtNtNtB7_4iter6traits8iterator8Iterator9size_hintCssR9xeAO3IU_12serde_derive, symObjAddr: 0x9F00, symBinAddr: 0x72080, symSize: 0x30 }
  - { offset: 0xC445D, size: 0x8, addend: 0x0, symName: __RNvXsn_NtNtCsieiGu2EXtoJ_4core5panic11unwind_safeINtB5_16AssertUnwindSafeNCINvNtNtCscKtU6MdFI5n_10proc_macro6bridge6client10run_clientNtB1e_11TokenStreamINtNtB9_6option6OptionB28_ENCNCINvMs6_B1e_INtB1e_6ClientNtB1i_11TokenStreamB3l_E7expand1NvCssR9xeAO3IU_12serde_derive16derive_serializeE00E0EINtNtNtB9_3ops8function6FnOnceuE9call_onceB3T_, symObjAddr: 0x9640, symBinAddr: 0x717C0, symSize: 0x30 }
  - { offset: 0xC44B5, size: 0x8, addend: 0x0, symName: __RNvXsn_NtNtCsieiGu2EXtoJ_4core5panic11unwind_safeINtB5_16AssertUnwindSafeNCINvNtNtCscKtU6MdFI5n_10proc_macro6bridge6client10run_clientNtB1e_11TokenStreamINtNtB9_6option6OptionB28_ENCNCINvMs6_B1e_INtB1e_6ClientNtB1i_11TokenStreamB3l_E7expand1NvCssR9xeAO3IU_12serde_derive18derive_deserializeE00E0EINtNtNtB9_3ops8function6FnOnceuE9call_onceB3T_, symObjAddr: 0x9670, symBinAddr: 0x717F0, symSize: 0x30 }
  - { offset: 0xC4938, size: 0x8, addend: 0x0, symName: __RINvXs1_NtNtNtCsieiGu2EXtoJ_4core4iter8adapters6filterINtB6_6FilterINtNtB8_9enumerate9EnumerateINtNtNtBc_5slice4iter4IterNtNtNtCssR9xeAO3IU_12serde_derive9internals3ast5FieldEENCNvNtB21_3ser22serialize_tuple_struct0ENtNtNtBa_6traits8iterator8Iterator4foldNtCsaKzlTDPUHDb_11proc_macro211TokenStreamNCINvNtB8_3map8map_foldTjRB1V_EB45_B45_NCB2Q_s_0NCB2Q_s0_0E0EB21_, symObjAddr: 0x3B30, symBinAddr: 0x6BCB0, symSize: 0x40 }
  - { offset: 0xC49A6, size: 0x8, addend: 0x0, symName: __RINvXs1_NtNtNtCsieiGu2EXtoJ_4core4iter8adapters6filterINtB6_6FilterINtNtB8_9enumerate9EnumerateINtNtNtBc_5slice4iter4IterNtNtNtCssR9xeAO3IU_12serde_derive9internals3ast5FieldEENCNvNtB21_3ser23serialize_tuple_variant0ENtNtNtBa_6traits8iterator8Iterator4foldNtCsaKzlTDPUHDb_11proc_macro211TokenStreamNCINvNtB8_3map8map_foldTjRB1V_EB46_B46_NCB2Q_s_0NCB2Q_s0_0E0EB21_, symObjAddr: 0x3B70, symBinAddr: 0x6BCF0, symSize: 0x40 }
  - { offset: 0xC4A14, size: 0x8, addend: 0x0, symName: __RINvXs1_NtNtNtCsieiGu2EXtoJ_4core4iter8adapters6filterINtB6_6FilterINtNtB8_9enumerate9EnumerateINtNtNtBc_5slice4iter4IterNtNtNtCssR9xeAO3IU_12serde_derive9internals3ast7VariantEENCNvNtNtB21_2de15enum_adjacently11deserializes0_0ENtNtNtBa_6traits8iterator8Iterator8try_folduNCINvNvB3E_8find_map5checkTjRB1V_ENtCsaKzlTDPUHDb_11proc_macro211TokenStreamQNCB2S_s1_0E0INtNtNtBc_3ops12control_flow11ControlFlowB4U_EEB21_, symObjAddr: 0x3BB0, symBinAddr: 0x6BD30, symSize: 0x40 }
  - { offset: 0xC4A89, size: 0x8, addend: 0x0, symName: __RINvXs1_NtNtNtCsieiGu2EXtoJ_4core4iter8adapters6filterINtB6_6FilterINtNtB8_9enumerate9EnumerateINtNtNtBc_5slice4iter4IterNtNtNtCssR9xeAO3IU_12serde_derive9internals3ast7VariantEENCNvNtNtB21_2de5enum_25prepare_enum_variant_enum0ENtNtNtBa_6traits8iterator8Iterator8try_folduNCINvNvB3E_4find5checkTjRB1V_ENCB2S_s_0E0INtNtNtBc_3ops12control_flow11ControlFlowB4I_EEB21_, symObjAddr: 0x3BF0, symBinAddr: 0x6BD70, symSize: 0x30 }
  - { offset: 0xC4AFE, size: 0x8, addend: 0x0, symName: __RINvXs1_NtNtNtCsieiGu2EXtoJ_4core4iter8adapters6filterINtB6_6FilterINtNtNtBc_5slice4iter4IterNtNtNtCssR9xeAO3IU_12serde_derive9internals3ast5FieldENCNvNtB1z_3ser24serialize_struct_variants_0ENtNtNtBa_6traits8iterator8Iterator4foldNtCsaKzlTDPUHDb_11proc_macro211TokenStreamNCINvNtB8_3map8map_foldRB1t_B3G_B3G_NCB2n_s0_0NCB2n_s1_0E0EB1z_, symObjAddr: 0x3C20, symBinAddr: 0x6BDA0, symSize: 0x30 }
  - { offset: 0xC4B6B, size: 0x8, addend: 0x0, symName: __RINvXs1_NtNtNtCsieiGu2EXtoJ_4core4iter8adapters6filterINtB6_6FilterINtNtNtBc_5slice4iter4IterNtNtNtCssR9xeAO3IU_12serde_derive9internals3ast5FieldENCNvNtB1z_3ser26serialize_struct_as_struct0ENtNtNtBa_6traits8iterator8Iterator4foldNtCsaKzlTDPUHDb_11proc_macro211TokenStreamNCINvNtB8_3map8map_foldRB1t_B3G_B3G_NCB2n_s_0NCB2n_s0_0E0EB1z_, symObjAddr: 0x3C50, symBinAddr: 0x6BDD0, symSize: 0x30 }
  - { offset: 0xC4BE2, size: 0x8, addend: 0x0, symName: __RNCINvNvXs1_NtNtNtCsieiGu2EXtoJ_4core4iter8adapters6filterINtBa_6FilterppENtNtNtBe_6traits8iterator8Iterator5count8to_usizeRNtNtNtCssR9xeAO3IU_12serde_derive9internals3ast5FieldNCNvNtB24_2de15deserialize_seq0E0B24_, symObjAddr: 0x4B50, symBinAddr: 0x6CCD0, symSize: 0x50 }
  - { offset: 0xC4C30, size: 0x8, addend: 0x0, symName: __RNCINvNvXs1_NtNtNtCsieiGu2EXtoJ_4core4iter8adapters6filterINtBa_6FilterppENtNtNtBe_6traits8iterator8Iterator5count8to_usizeRNtNtNtCssR9xeAO3IU_12serde_derive9internals3ast5FieldNCNvNtNtB24_2de5tuple11deserialize0E0B24_, symObjAddr: 0x4BA0, symBinAddr: 0x6CD20, symSize: 0x50 }
  - { offset: 0xC4CA6, size: 0x8, addend: 0x0, symName: __RNvXs1_NtNtNtCsieiGu2EXtoJ_4core4iter8adapters6filterINtB5_6FilterINtNtB7_3map3MapNtNtCsdGrGZaRBwMb_3syn8generics10TypeParamsNCNvNtCssR9xeAO3IU_12serde_derive5bound10with_bounds1_0ENCB21_s2_0ENtNtNtB9_6traits8iterator8Iterator4nextB25_, symObjAddr: 0x7D60, symBinAddr: 0x6FEE0, symSize: 0x30 }
  - { offset: 0xC4CE4, size: 0x8, addend: 0x0, symName: __RNvXs1_NtNtNtCsieiGu2EXtoJ_4core4iter8adapters6filterINtB5_6FilterINtNtB7_9enumerate9EnumerateINtNtNtBb_5slice4iter4IterNtNtNtCssR9xeAO3IU_12serde_derive9internals3ast5FieldEENCNvNtB20_3ser22serialize_tuple_struct0ENtNtNtB9_6traits8iterator8Iterator4nextB20_, symObjAddr: 0x7D90, symBinAddr: 0x6FF10, symSize: 0x20 }
  - { offset: 0xC4D22, size: 0x8, addend: 0x0, symName: __RNvXs1_NtNtNtCsieiGu2EXtoJ_4core4iter8adapters6filterINtB5_6FilterINtNtB7_9enumerate9EnumerateINtNtNtBb_5slice4iter4IterNtNtNtCssR9xeAO3IU_12serde_derive9internals3ast5FieldEENCNvNtB20_3ser23serialize_tuple_variant0ENtNtNtB9_6traits8iterator8Iterator4nextB20_, symObjAddr: 0x7DB0, symBinAddr: 0x6FF30, symSize: 0x20 }
  - { offset: 0xC4D60, size: 0x8, addend: 0x0, symName: __RNvXs1_NtNtNtCsieiGu2EXtoJ_4core4iter8adapters6filterINtB5_6FilterINtNtB7_9enumerate9EnumerateINtNtNtBb_5slice4iter4IterNtNtNtCssR9xeAO3IU_12serde_derive9internals3ast5FieldEENCNvNtB20_3ser30serialize_tuple_struct_visitor0ENtNtNtB9_6traits8iterator8Iterator4nextB20_, symObjAddr: 0x7DD0, symBinAddr: 0x6FF50, symSize: 0x20 }
  - { offset: 0xC4D9E, size: 0x8, addend: 0x0, symName: __RNvXs1_NtNtNtCsieiGu2EXtoJ_4core4iter8adapters6filterINtB5_6FilterINtNtB7_9enumerate9EnumerateINtNtNtBb_5slice4iter4IterNtNtNtCssR9xeAO3IU_12serde_derive9internals3ast5FieldEENCNvNtB20_3ser30serialize_tuple_struct_visitor0ENtNtNtB9_6traits8iterator8Iterator9size_hintB20_, symObjAddr: 0x7DF0, symBinAddr: 0x6FF70, symSize: 0x50 }
  - { offset: 0xC4DF9, size: 0x8, addend: 0x0, symName: __RNvXs1_NtNtNtCsieiGu2EXtoJ_4core4iter8adapters6filterINtB5_6FilterINtNtB7_9enumerate9EnumerateINtNtNtBb_5slice4iter4IterNtNtNtCssR9xeAO3IU_12serde_derive9internals3ast5FieldEENCNvNtNtB20_2de7struct_11deserialize0ENtNtNtB9_6traits8iterator8Iterator4nextB20_, symObjAddr: 0x7E40, symBinAddr: 0x6FFC0, symSize: 0x20 }
  - { offset: 0xC4E37, size: 0x8, addend: 0x0, symName: __RNvXs1_NtNtNtCsieiGu2EXtoJ_4core4iter8adapters6filterINtB5_6FilterINtNtB7_9enumerate9EnumerateINtNtNtBb_5slice4iter4IterNtNtNtCssR9xeAO3IU_12serde_derive9internals3ast5FieldEENCNvNtNtB20_2de7struct_11deserialize0ENtNtNtB9_6traits8iterator8Iterator9size_hintB20_, symObjAddr: 0x7E60, symBinAddr: 0x6FFE0, symSize: 0x50 }
  - { offset: 0xC4E92, size: 0x8, addend: 0x0, symName: __RNvXs1_NtNtNtCsieiGu2EXtoJ_4core4iter8adapters6filterINtB5_6FilterINtNtB7_9enumerate9EnumerateINtNtNtBb_5slice4iter4IterNtNtNtCssR9xeAO3IU_12serde_derive9internals3ast7VariantEENCNvNtNtB20_2de15enum_adjacently11deserialize0ENtNtNtB9_6traits8iterator8Iterator4nextB20_, symObjAddr: 0x7EB0, symBinAddr: 0x70030, symSize: 0x20 }
  - { offset: 0xC4ED0, size: 0x8, addend: 0x0, symName: __RNvXs1_NtNtNtCsieiGu2EXtoJ_4core4iter8adapters6filterINtB5_6FilterINtNtB7_9enumerate9EnumerateINtNtNtBb_5slice4iter4IterNtNtNtCssR9xeAO3IU_12serde_derive9internals3ast7VariantEENCNvNtNtB20_2de15enum_adjacently11deserialize0ENtNtNtB9_6traits8iterator8Iterator9size_hintB20_, symObjAddr: 0x7ED0, symBinAddr: 0x70050, symSize: 0x50 }
  - { offset: 0xC4F2B, size: 0x8, addend: 0x0, symName: __RNvXs1_NtNtNtCsieiGu2EXtoJ_4core4iter8adapters6filterINtB5_6FilterINtNtB7_9enumerate9EnumerateINtNtNtBb_5slice4iter4IterNtNtNtCssR9xeAO3IU_12serde_derive9internals3ast7VariantEENCNvNtNtB20_2de15enum_adjacently11deserializes0_0ENtNtNtB9_6traits8iterator8Iterator9size_hintB20_, symObjAddr: 0x7F20, symBinAddr: 0x700A0, symSize: 0x50 }
  - { offset: 0xC4F86, size: 0x8, addend: 0x0, symName: __RNvXs1_NtNtNtCsieiGu2EXtoJ_4core4iter8adapters6filterINtB5_6FilterINtNtB7_9enumerate9EnumerateINtNtNtBb_5slice4iter4IterNtNtNtCssR9xeAO3IU_12serde_derive9internals3ast7VariantEENCNvNtNtB20_2de15enum_externally11deserialize0ENtNtNtB9_6traits8iterator8Iterator4nextB20_, symObjAddr: 0x7F70, symBinAddr: 0x700F0, symSize: 0x20 }
  - { offset: 0xC4FC4, size: 0x8, addend: 0x0, symName: __RNvXs1_NtNtNtCsieiGu2EXtoJ_4core4iter8adapters6filterINtB5_6FilterINtNtB7_9enumerate9EnumerateINtNtNtBb_5slice4iter4IterNtNtNtCssR9xeAO3IU_12serde_derive9internals3ast7VariantEENCNvNtNtB20_2de15enum_internally11deserialize0ENtNtNtB9_6traits8iterator8Iterator4nextB20_, symObjAddr: 0x7F90, symBinAddr: 0x70110, symSize: 0x20 }
  - { offset: 0xC5002, size: 0x8, addend: 0x0, symName: __RNvXs1_NtNtNtCsieiGu2EXtoJ_4core4iter8adapters6filterINtB5_6FilterINtNtB7_9enumerate9EnumerateINtNtNtBb_5slice4iter4IterNtNtNtCssR9xeAO3IU_12serde_derive9internals3ast7VariantEENCNvNtNtB20_2de5enum_25prepare_enum_variant_enum0ENtNtNtB9_6traits8iterator8Iterator4nextB20_, symObjAddr: 0x7FB0, symBinAddr: 0x70130, symSize: 0x20 }
  - { offset: 0xC5040, size: 0x8, addend: 0x0, symName: __RNvXs1_NtNtNtCsieiGu2EXtoJ_4core4iter8adapters6filterINtB5_6FilterINtNtB7_9enumerate9EnumerateINtNtNtBb_5slice4iter4IterNtNtNtCssR9xeAO3IU_12serde_derive9internals3ast7VariantEENCNvNtNtB20_2de5enum_25prepare_enum_variant_enum0ENtNtNtB9_6traits8iterator8Iterator9size_hintB20_, symObjAddr: 0x7FD0, symBinAddr: 0x70150, symSize: 0x50 }
  - { offset: 0xC509B, size: 0x8, addend: 0x0, symName: __RNvXs1_NtNtNtCsieiGu2EXtoJ_4core4iter8adapters6filterINtB5_6FilterINtNtNtBb_5slice4iter4IterNtNtNtCssR9xeAO3IU_12serde_derive9internals3ast5FieldENCNvNtB1y_2de15deserialize_seq0ENtNtNtB9_6traits8iterator8Iterator5countB1y_, symObjAddr: 0x8020, symBinAddr: 0x701A0, symSize: 0x40 }
  - { offset: 0xC5129, size: 0x8, addend: 0x0, symName: __RNvXs1_NtNtNtCsieiGu2EXtoJ_4core4iter8adapters6filterINtB5_6FilterINtNtNtBb_5slice4iter4IterNtNtNtCssR9xeAO3IU_12serde_derive9internals3ast5FieldENCNvNtB1y_3ser23serialize_struct_as_map0ENtNtNtB9_6traits8iterator8Iterator4nextB1y_, symObjAddr: 0x8060, symBinAddr: 0x701E0, symSize: 0x20 }
  - { offset: 0xC5167, size: 0x8, addend: 0x0, symName: __RNvXs1_NtNtNtCsieiGu2EXtoJ_4core4iter8adapters6filterINtB5_6FilterINtNtNtBb_5slice4iter4IterNtNtNtCssR9xeAO3IU_12serde_derive9internals3ast5FieldENCNvNtB1y_3ser24serialize_struct_variants_0ENtNtNtB9_6traits8iterator8Iterator4nextB1y_, symObjAddr: 0x8080, symBinAddr: 0x70200, symSize: 0x20 }
  - { offset: 0xC51A5, size: 0x8, addend: 0x0, symName: __RNvXs1_NtNtNtCsieiGu2EXtoJ_4core4iter8adapters6filterINtB5_6FilterINtNtNtBb_5slice4iter4IterNtNtNtCssR9xeAO3IU_12serde_derive9internals3ast5FieldENCNvNtB1y_3ser24serialize_struct_visitor0ENtNtNtB9_6traits8iterator8Iterator4nextB1y_, symObjAddr: 0x80A0, symBinAddr: 0x70220, symSize: 0x20 }
  - { offset: 0xC51E3, size: 0x8, addend: 0x0, symName: __RNvXs1_NtNtNtCsieiGu2EXtoJ_4core4iter8adapters6filterINtB5_6FilterINtNtNtBb_5slice4iter4IterNtNtNtCssR9xeAO3IU_12serde_derive9internals3ast5FieldENCNvNtB1y_3ser24serialize_struct_visitor0ENtNtNtB9_6traits8iterator8Iterator9size_hintB1y_, symObjAddr: 0x80C0, symBinAddr: 0x70240, symSize: 0x50 }
  - { offset: 0xC523E, size: 0x8, addend: 0x0, symName: __RNvXs1_NtNtNtCsieiGu2EXtoJ_4core4iter8adapters6filterINtB5_6FilterINtNtNtBb_5slice4iter4IterNtNtNtCssR9xeAO3IU_12serde_derive9internals3ast5FieldENCNvNtB1y_3ser26serialize_struct_as_struct0ENtNtNtB9_6traits8iterator8Iterator4nextB1y_, symObjAddr: 0x8110, symBinAddr: 0x70290, symSize: 0x20 }
  - { offset: 0xC527C, size: 0x8, addend: 0x0, symName: __RNvXs1_NtNtNtCsieiGu2EXtoJ_4core4iter8adapters6filterINtB5_6FilterINtNtNtBb_5slice4iter4IterNtNtNtCssR9xeAO3IU_12serde_derive9internals3ast5FieldENCNvNtB1y_3ser37serialize_struct_variant_with_flatten0ENtNtNtB9_6traits8iterator8Iterator4nextB1y_, symObjAddr: 0x8130, symBinAddr: 0x702B0, symSize: 0x20 }
  - { offset: 0xC52BA, size: 0x8, addend: 0x0, symName: __RNvXs1_NtNtNtCsieiGu2EXtoJ_4core4iter8adapters6filterINtB5_6FilterINtNtNtBb_5slice4iter4IterNtNtNtCssR9xeAO3IU_12serde_derive9internals3ast5FieldENCNvNtB1y_5bound10with_bounds0_0ENtNtNtB9_6traits8iterator8Iterator4nextB1y_, symObjAddr: 0x8150, symBinAddr: 0x702D0, symSize: 0x20 }
  - { offset: 0xC52F8, size: 0x8, addend: 0x0, symName: __RNvXs1_NtNtNtCsieiGu2EXtoJ_4core4iter8adapters6filterINtB5_6FilterINtNtNtBb_5slice4iter4IterNtNtNtCssR9xeAO3IU_12serde_derive9internals3ast5FieldENCNvNtB1y_5bound10with_bounds_0ENtNtNtB9_6traits8iterator8Iterator4nextB1y_, symObjAddr: 0x8170, symBinAddr: 0x702F0, symSize: 0x20 }
  - { offset: 0xC5336, size: 0x8, addend: 0x0, symName: __RNvXs1_NtNtNtCsieiGu2EXtoJ_4core4iter8adapters6filterINtB5_6FilterINtNtNtBb_5slice4iter4IterNtNtNtCssR9xeAO3IU_12serde_derive9internals3ast5FieldENCNvNtNtB1y_2de5tuple11deserialize0ENtNtNtB9_6traits8iterator8Iterator5countB1y_, symObjAddr: 0x8190, symBinAddr: 0x70310, symSize: 0x40 }
  - { offset: 0xC53C4, size: 0x8, addend: 0x0, symName: __RNvXs1_NtNtNtCsieiGu2EXtoJ_4core4iter8adapters6filterINtB5_6FilterINtNtNtBb_5slice4iter4IterNtNtNtCssR9xeAO3IU_12serde_derive9internals3ast7VariantENCNvNtNtB1y_2de13enum_untagged11deserialize0ENtNtNtB9_6traits8iterator8Iterator4nextB1y_, symObjAddr: 0x81D0, symBinAddr: 0x70350, symSize: 0x20 }
  - { offset: 0xC5402, size: 0x8, addend: 0x0, symName: __RNvXs1_NtNtNtCsieiGu2EXtoJ_4core4iter8adapters6filterINtB5_6FilterINtNtNtBb_5slice4iter4IterTRNtNtNtCssR9xeAO3IU_12serde_derive9internals3ast5FieldNtCsaKzlTDPUHDb_11proc_macro25IdentEENCNvNtNtB1A_2de7struct_15deserialize_maps1_0ENtNtNtB9_6traits8iterator8Iterator4nextB1A_, symObjAddr: 0x81F0, symBinAddr: 0x70370, symSize: 0x20 }
  - { offset: 0xC5440, size: 0x8, addend: 0x0, symName: __RNvXs1_NtNtNtCsieiGu2EXtoJ_4core4iter8adapters6filterINtB5_6FilterINtNtNtBb_5slice4iter4IterTRNtNtNtCssR9xeAO3IU_12serde_derive9internals3ast5FieldNtCsaKzlTDPUHDb_11proc_macro25IdentEENCNvNtNtB1A_2de7struct_15deserialize_maps4_0ENtNtNtB9_6traits8iterator8Iterator4nextB1A_, symObjAddr: 0x8210, symBinAddr: 0x70390, symSize: 0x20 }
  - { offset: 0xC547E, size: 0x8, addend: 0x0, symName: __RNvXs1_NtNtNtCsieiGu2EXtoJ_4core4iter8adapters6filterINtB5_6FilterINtNtNtBb_5slice4iter4IterTRNtNtNtCssR9xeAO3IU_12serde_derive9internals3ast5FieldNtCsaKzlTDPUHDb_11proc_macro25IdentEENCNvNtNtB1A_2de7struct_15deserialize_maps6_0ENtNtNtB9_6traits8iterator8Iterator4nextB1A_, symObjAddr: 0x8230, symBinAddr: 0x703B0, symSize: 0x20 }
  - { offset: 0xC54BC, size: 0x8, addend: 0x0, symName: __RNvXs1_NtNtNtCsieiGu2EXtoJ_4core4iter8adapters6filterINtB5_6FilterINtNtNtBb_5slice4iter4IterTRNtNtNtCssR9xeAO3IU_12serde_derive9internals3ast5FieldNtCsaKzlTDPUHDb_11proc_macro25IdentEENCNvNtNtB1A_2de7struct_15deserialize_maps_0ENtNtNtB9_6traits8iterator8Iterator4nextB1A_, symObjAddr: 0x8250, symBinAddr: 0x703D0, symSize: 0x20 }
  - { offset: 0xC5764, size: 0x8, addend: 0x0, symName: __RNCINvNtNtNtCsieiGu2EXtoJ_4core4iter8adapters6filter11filter_foldRNtNtNtCssR9xeAO3IU_12serde_derive9internals3ast5FieldNtCsaKzlTDPUHDb_11proc_macro211TokenStreamNCNvNtB18_3ser24serialize_struct_variants_0NCINvNtB6_3map8map_foldB11_B1T_B1T_NCB2B_s0_0NCB2B_s1_0E0E0B18_, symObjAddr: 0x4400, symBinAddr: 0x6C580, symSize: 0x150 }
  - { offset: 0xC57E4, size: 0x8, addend: 0x0, symName: __RNCINvNtNtNtCsieiGu2EXtoJ_4core4iter8adapters6filter11filter_foldRNtNtNtCssR9xeAO3IU_12serde_derive9internals3ast5FieldNtCsaKzlTDPUHDb_11proc_macro211TokenStreamNCNvNtB18_3ser26serialize_struct_as_struct0NCINvNtB6_3map8map_foldB11_B1T_B1T_NCB2B_s_0NCB2B_s0_0E0E0B18_, symObjAddr: 0x4550, symBinAddr: 0x6C6D0, symSize: 0x150 }
  - { offset: 0xC5866, size: 0x8, addend: 0x0, symName: __RNCINvNtNtNtCsieiGu2EXtoJ_4core4iter8adapters6filter11filter_foldTjRNtNtNtCssR9xeAO3IU_12serde_derive9internals3ast5FieldENtCsaKzlTDPUHDb_11proc_macro211TokenStreamNCNvNtB1a_3ser22serialize_tuple_struct0NCINvNtB6_3map8map_foldB11_B1W_B1W_NCB2E_s_0NCB2E_s0_0E0E0B1a_, symObjAddr: 0x46A0, symBinAddr: 0x6C820, symSize: 0x170 }
  - { offset: 0xC58E8, size: 0x8, addend: 0x0, symName: __RNCINvNtNtNtCsieiGu2EXtoJ_4core4iter8adapters6filter11filter_foldTjRNtNtNtCssR9xeAO3IU_12serde_derive9internals3ast5FieldENtCsaKzlTDPUHDb_11proc_macro211TokenStreamNCNvNtB1a_3ser23serialize_tuple_variant0NCINvNtB6_3map8map_foldB11_B1W_B1W_NCB2E_s_0NCB2E_s0_0E0E0B1a_, symObjAddr: 0x4810, symBinAddr: 0x6C990, symSize: 0x170 }
  - { offset: 0xC596E, size: 0x8, addend: 0x0, symName: __RNCINvNtNtNtCsieiGu2EXtoJ_4core4iter8adapters6filter15filter_try_foldTjRNtNtNtCssR9xeAO3IU_12serde_derive9internals3ast7VariantEuINtNtNtBa_3ops12control_flow11ControlFlowB15_ENCNvNtNtB1e_2de5enum_25prepare_enum_variant_enum0NCINvNvNtNtNtB8_6traits8iterator8Iterator4find5checkB15_NCB2P_s_0E0E0B1e_, symObjAddr: 0x4980, symBinAddr: 0x6CB00, symSize: 0xE0 }
  - { offset: 0xC59F8, size: 0x8, addend: 0x0, symName: __RNCINvNtNtNtCsieiGu2EXtoJ_4core4iter8adapters6filter15filter_try_foldTjRNtNtNtCssR9xeAO3IU_12serde_derive9internals3ast7VariantEuINtNtNtBa_3ops12control_flow11ControlFlowNtCsaKzlTDPUHDb_11proc_macro211TokenStreamENCNvNtNtB1e_2de15enum_adjacently11deserializes0_0NCINvNvNtNtNtB8_6traits8iterator8Iterator8find_map5checkB15_B2I_QNCB3r_s1_0E0E0B1e_, symObjAddr: 0x4A60, symBinAddr: 0x6CBE0, symSize: 0xB0 }
  - { offset: 0xC5A87, size: 0x8, addend: 0x0, symName: __RNvXs7_NtNtNtCsieiGu2EXtoJ_4core4iter8adapters6filterINtB5_6FilterINtNtB7_9enumerate9EnumerateINtNtNtBb_5slice4iter4IterNtNtNtCssR9xeAO3IU_12serde_derive9internals3ast7VariantEENCNvNtNtB20_2de5enum_25prepare_enum_variant_enum0ENtNtBb_5clone5Clone5cloneB20_, symObjAddr: 0x8760, symBinAddr: 0x708E0, symSize: 0x70 }
  - { offset: 0xC668C, size: 0x8, addend: 0x0, symName: __RINvYINtNtCsieiGu2EXtoJ_4core6option4IterNtNtCsdGrGZaRBwMb_3syn8lifetime8LifetimeENtNtNtNtB8_4iter6traits8iterator8Iterator3mapBD_NvYBD_NtNtB8_5clone5Clone5cloneECssR9xeAO3IU_12serde_derive, symObjAddr: 0x3C80, symBinAddr: 0x6BE00, symSize: 0x10 }
  - { offset: 0xC66E4, size: 0x8, addend: 0x0, symName: __RINvYINtNtCsieiGu2EXtoJ_4core6option4IterNtNtCsdGrGZaRBwMb_3syn8lifetime8LifetimeENtNtNtNtB8_4iter6traits8iterator8Iterator4folduNCINvNtNtB1o_8adapters3map8map_foldRBD_BD_uNvYBD_NtNtB8_5clone5Clone5cloneNCINvNvB1i_8for_each4callBD_NCINvXsl_NtNtNtCslJiobkLta79_5alloc11collections5btree3setINtB3Q_8BTreeSetBD_EINtNtB1m_7collect6ExtendBD_E6extendINtNtB2a_6cloned6ClonedB3_EE0E0E0ECssR9xeAO3IU_12serde_derive, symObjAddr: 0x3C90, symBinAddr: 0x6BE10, symSize: 0x90 }
  - { offset: 0xC6773, size: 0x8, addend: 0x0, symName: __RINvYINtNtCsieiGu2EXtoJ_4core6option4IterNtNtCsdGrGZaRBwMb_3syn8lifetime8LifetimeENtNtNtNtB8_4iter6traits8iterator8Iterator6clonedBD_ECssR9xeAO3IU_12serde_derive, symObjAddr: 0x3D20, symBinAddr: 0x6BEA0, symSize: 0x10 }
  - { offset: 0xC67B3, size: 0x8, addend: 0x0, symName: __RINvYINtNtCsieiGu2EXtoJ_4core6option8IntoIterNtNtCsdGrGZaRBwMb_3syn8generics12GenericParamENtNtNtNtB8_4iter6traits8iterator8Iterator5chainINtNtBL_10punctuated10PunctuatedBH_NtNtBL_5token5CommaEECssR9xeAO3IU_12serde_derive, symObjAddr: 0x3D30, symBinAddr: 0x6BEB0, symSize: 0x120 }
  - { offset: 0xC682D, size: 0x8, addend: 0x0, symName: __RINvYINtNtCsieiGu2EXtoJ_4core6option8IntoIterNtNtCsdGrGZaRBwMb_3syn8generics12GenericParamENtNtNtNtB8_4iter6traits8iterator8Iterator5chainINtNtNtB1x_8adapters3map3MapINtNtB2h_6cloned6ClonedINtNtBL_10punctuated4IterBH_EENCNvNtCssR9xeAO3IU_12serde_derive5bound19with_lifetime_bound0EEB3B_, symObjAddr: 0x3E50, symBinAddr: 0x6BFD0, symSize: 0x100 }
  - { offset: 0xC68A7, size: 0x8, addend: 0x0, symName: __RINvYINtNtNtNtCsieiGu2EXtoJ_4core4iter8adapters6filter6FilterINtNtB8_3map3MapNtNtCsdGrGZaRBwMb_3syn8generics10TypeParamsNCNvNtCssR9xeAO3IU_12serde_derive5bound10with_bounds1_0ENCB1W_s2_0ENtNtNtBa_6traits8iterator8Iterator3mapNtNtB1h_2ty8TypePathNCB1W_s3_0EB20_, symObjAddr: 0x3F50, symBinAddr: 0x6C0D0, symSize: 0x20 }
  - { offset: 0xC6914, size: 0x8, addend: 0x0, symName: __RINvYINtNtNtNtCsieiGu2EXtoJ_4core4iter8adapters6filter6FilterINtNtB8_9enumerate9EnumerateINtNtNtBc_5slice4iter4IterNtNtNtCssR9xeAO3IU_12serde_derive9internals3ast5FieldEENCNvNtB1V_3ser30serialize_tuple_struct_visitor0ENtNtNtBa_6traits8iterator8Iterator3mapNtCsaKzlTDPUHDb_11proc_macro211TokenStreamNCB2K_s_0EB1V_, symObjAddr: 0x3F70, symBinAddr: 0x6C0F0, symSize: 0x40 }
  - { offset: 0xC6981, size: 0x8, addend: 0x0, symName: __RINvYINtNtNtNtCsieiGu2EXtoJ_4core4iter8adapters6filter6FilterINtNtB8_9enumerate9EnumerateINtNtNtBc_5slice4iter4IterNtNtNtCssR9xeAO3IU_12serde_derive9internals3ast5FieldEENCNvNtNtB1V_2de7struct_11deserialize0ENtNtNtBa_6traits8iterator8Iterator3mapNtB2O_16FieldWithAliasesNCB2K_s_0EB1V_, symObjAddr: 0x3FB0, symBinAddr: 0x6C130, symSize: 0x20 }
  - { offset: 0xC69EE, size: 0x8, addend: 0x0, symName: __RINvYINtNtNtNtCsieiGu2EXtoJ_4core4iter8adapters6filter6FilterINtNtB8_9enumerate9EnumerateINtNtNtBc_5slice4iter4IterNtNtNtCssR9xeAO3IU_12serde_derive9internals3ast7VariantEENCNvNtNtB1V_2de15enum_adjacently11deserialize0ENtNtNtBa_6traits8iterator8Iterator3mapNtCsaKzlTDPUHDb_11proc_macro211TokenStreamNCB2M_s_0EB1V_, symObjAddr: 0x3FD0, symBinAddr: 0x6C150, symSize: 0x30 }
  - { offset: 0xC6A5C, size: 0x8, addend: 0x0, symName: __RINvYINtNtNtNtCsieiGu2EXtoJ_4core4iter8adapters6filter6FilterINtNtB8_9enumerate9EnumerateINtNtNtBc_5slice4iter4IterNtNtNtCssR9xeAO3IU_12serde_derive9internals3ast7VariantEENCNvNtNtB1V_2de15enum_adjacently11deserializes0_0ENtNtNtBa_6traits8iterator8Iterator10filter_mapNtCsaKzlTDPUHDb_11proc_macro211TokenStreamNCB2M_s1_0EB1V_, symObjAddr: 0x4000, symBinAddr: 0x6C180, symSize: 0x40 }
  - { offset: 0xC6AC9, size: 0x8, addend: 0x0, symName: __RINvYINtNtNtNtCsieiGu2EXtoJ_4core4iter8adapters6filter6FilterINtNtB8_9enumerate9EnumerateINtNtNtBc_5slice4iter4IterNtNtNtCssR9xeAO3IU_12serde_derive9internals3ast7VariantEENCNvNtNtB1V_2de15enum_adjacently11deserializes0_0ENtNtNtBa_6traits8iterator8Iterator8find_mapNtCsaKzlTDPUHDb_11proc_macro211TokenStreamQNCB2M_s1_0EB1V_, symObjAddr: 0x4040, symBinAddr: 0x6C1C0, symSize: 0xD0 }
  - { offset: 0xC6B52, size: 0x8, addend: 0x0, symName: __RINvYINtNtNtNtCsieiGu2EXtoJ_4core4iter8adapters6filter6FilterINtNtB8_9enumerate9EnumerateINtNtNtBc_5slice4iter4IterNtNtNtCssR9xeAO3IU_12serde_derive9internals3ast7VariantEENCNvNtNtB1V_2de15enum_externally11deserialize0ENtNtNtBa_6traits8iterator8Iterator3mapNtCsaKzlTDPUHDb_11proc_macro211TokenStreamNCB2M_s_0EB1V_, symObjAddr: 0x4110, symBinAddr: 0x6C290, symSize: 0x30 }
  - { offset: 0xC6BC0, size: 0x8, addend: 0x0, symName: __RINvYINtNtNtNtCsieiGu2EXtoJ_4core4iter8adapters6filter6FilterINtNtB8_9enumerate9EnumerateINtNtNtBc_5slice4iter4IterNtNtNtCssR9xeAO3IU_12serde_derive9internals3ast7VariantEENCNvNtNtB1V_2de15enum_internally11deserialize0ENtNtNtBa_6traits8iterator8Iterator3mapNtCsaKzlTDPUHDb_11proc_macro211TokenStreamNCB2M_s_0EB1V_, symObjAddr: 0x4140, symBinAddr: 0x6C2C0, symSize: 0x30 }
  - { offset: 0xC6C2E, size: 0x8, addend: 0x0, symName: __RINvYINtNtNtNtCsieiGu2EXtoJ_4core4iter8adapters6filter6FilterINtNtB8_9enumerate9EnumerateINtNtNtBc_5slice4iter4IterNtNtNtCssR9xeAO3IU_12serde_derive9internals3ast7VariantEENCNvNtNtB1V_2de5enum_25prepare_enum_variant_enum0ENtNtNtBa_6traits8iterator8Iterator3mapNtB2Q_16FieldWithAliasesNCB2M_s2_0EB1V_, symObjAddr: 0x4170, symBinAddr: 0x6C2F0, symSize: 0x20 }
  - { offset: 0xC6C9B, size: 0x8, addend: 0x0, symName: __RINvYINtNtNtNtCsieiGu2EXtoJ_4core4iter8adapters6filter6FilterINtNtB8_9enumerate9EnumerateINtNtNtBc_5slice4iter4IterNtNtNtCssR9xeAO3IU_12serde_derive9internals3ast7VariantEENCNvNtNtB1V_2de5enum_25prepare_enum_variant_enum0ENtNtNtBa_6traits8iterator8Iterator3mapRINtNtNtNtCslJiobkLta79_5alloc11collections5btree3set8BTreeSetNtNtB1T_4name4NameENCB2M_s1_0EB1V_, symObjAddr: 0x4190, symBinAddr: 0x6C310, symSize: 0x20 }
  - { offset: 0xC6D08, size: 0x8, addend: 0x0, symName: __RINvYINtNtNtNtCsieiGu2EXtoJ_4core4iter8adapters6filter6FilterINtNtB8_9enumerate9EnumerateINtNtNtBc_5slice4iter4IterNtNtNtCssR9xeAO3IU_12serde_derive9internals3ast7VariantEENCNvNtNtB1V_2de5enum_25prepare_enum_variant_enum0ENtNtNtBa_6traits8iterator8Iterator4findNCB2M_s_0EB1V_, symObjAddr: 0x41B0, symBinAddr: 0x6C330, symSize: 0x90 }
  - { offset: 0xC6DAE, size: 0x8, addend: 0x0, symName: __RINvYINtNtNtNtCsieiGu2EXtoJ_4core4iter8adapters6filter6FilterINtNtB8_9enumerate9EnumerateINtNtNtBc_5slice4iter4IterNtNtNtCssR9xeAO3IU_12serde_derive9internals3ast7VariantEENCNvNtNtB1V_2de5enum_25prepare_enum_variant_enum0ENtNtNtBa_6traits8iterator8Iterator8flat_mapRINtNtNtNtCslJiobkLta79_5alloc11collections5btree3set8BTreeSetNtNtB1T_4name4NameENCB2M_s1_0EB1V_, symObjAddr: 0x4240, symBinAddr: 0x6C3C0, symSize: 0xE0 }
  - { offset: 0xC6E80, size: 0x8, addend: 0x0, symName: __RINvYINtNtNtNtCsieiGu2EXtoJ_4core4iter8adapters6filter6FilterINtNtNtBc_5slice4iter4IterNtNtNtCssR9xeAO3IU_12serde_derive9internals3ast5FieldENCNvNtB1t_3ser24serialize_struct_visitor0ENtNtNtBa_6traits8iterator8Iterator3mapNtCsaKzlTDPUHDb_11proc_macro211TokenStreamNCB2h_s_0EB1t_, symObjAddr: 0x4320, symBinAddr: 0x6C4A0, symSize: 0x30 }
  - { offset: 0xC6EEE, size: 0x8, addend: 0x0, symName: __RINvYINtNtNtNtCsieiGu2EXtoJ_4core4iter8adapters6filter6FilterINtNtNtBc_5slice4iter4IterNtNtNtCssR9xeAO3IU_12serde_derive9internals3ast7VariantENCNvNtNtB1t_2de13enum_untagged11deserialize0ENtNtNtBa_6traits8iterator8Iterator3mapNtNtB1t_8fragment4ExprNCB2j_s_0EB1t_, symObjAddr: 0x4350, symBinAddr: 0x6C4D0, symSize: 0x30 }
  - { offset: 0xC6F5B, size: 0x8, addend: 0x0, symName: __RINvYINtNtNtNtCsieiGu2EXtoJ_4core4iter8adapters6filter6FilterINtNtNtBc_5slice4iter4IterTRNtNtNtCssR9xeAO3IU_12serde_derive9internals3ast5FieldNtCsaKzlTDPUHDb_11proc_macro25IdentEENCNvNtNtB1v_2de7struct_15deserialize_maps1_0ENtNtNtBa_6traits8iterator8Iterator3mapNtB2i_11TokenStreamNCB2T_s2_0EB1v_, symObjAddr: 0x4380, symBinAddr: 0x6C500, symSize: 0x20 }
  - { offset: 0xC6FC8, size: 0x8, addend: 0x0, symName: __RINvYINtNtNtNtCsieiGu2EXtoJ_4core4iter8adapters6filter6FilterINtNtNtBc_5slice4iter4IterTRNtNtNtCssR9xeAO3IU_12serde_derive9internals3ast5FieldNtCsaKzlTDPUHDb_11proc_macro25IdentEENCNvNtNtB1v_2de7struct_15deserialize_maps4_0ENtNtNtBa_6traits8iterator8Iterator3mapNtB2i_11TokenStreamNCB2T_s5_0EB1v_, symObjAddr: 0x43A0, symBinAddr: 0x6C520, symSize: 0x20 }
  - { offset: 0xC7035, size: 0x8, addend: 0x0, symName: __RINvYINtNtNtNtCsieiGu2EXtoJ_4core4iter8adapters6filter6FilterINtNtNtBc_5slice4iter4IterTRNtNtNtCssR9xeAO3IU_12serde_derive9internals3ast5FieldNtCsaKzlTDPUHDb_11proc_macro25IdentEENCNvNtNtB1v_2de7struct_15deserialize_maps6_0ENtNtNtBa_6traits8iterator8Iterator3mapNtB2i_11TokenStreamNCB2T_s7_0EB1v_, symObjAddr: 0x43C0, symBinAddr: 0x6C540, symSize: 0x20 }
  - { offset: 0xC708D, size: 0x8, addend: 0x0, symName: __RINvYINtNtNtNtCsieiGu2EXtoJ_4core4iter8adapters6filter6FilterINtNtNtBc_5slice4iter4IterTRNtNtNtCssR9xeAO3IU_12serde_derive9internals3ast5FieldNtCsaKzlTDPUHDb_11proc_macro25IdentEENCNvNtNtB1v_2de7struct_15deserialize_maps_0ENtNtNtBa_6traits8iterator8Iterator3mapNtB2i_11TokenStreamNCB2T_s0_0EB1v_, symObjAddr: 0x43E0, symBinAddr: 0x6C560, symSize: 0x20 }
  - { offset: 0xC7145, size: 0x8, addend: 0x0, symName: __RNvYINtNtNtNtCsieiGu2EXtoJ_4core4iter8adapters6filter6FilterINtNtB7_9enumerate9EnumerateINtNtNtBb_5slice4iter4IterNtNtNtCssR9xeAO3IU_12serde_derive9internals3ast5FieldEENCNvNtB1U_3ser22serialize_tuple_struct0ENtNtNtB9_6traits8iterator8Iterator8peekableB1U_, symObjAddr: 0xAB70, symBinAddr: 0x72CF0, symSize: 0x40 }
  - { offset: 0xC7191, size: 0x8, addend: 0x0, symName: __RNvYINtNtNtNtCsieiGu2EXtoJ_4core4iter8adapters6filter6FilterINtNtB7_9enumerate9EnumerateINtNtNtBb_5slice4iter4IterNtNtNtCssR9xeAO3IU_12serde_derive9internals3ast5FieldEENCNvNtB1U_3ser23serialize_tuple_variant0ENtNtNtB9_6traits8iterator8Iterator8peekableB1U_, symObjAddr: 0xABB0, symBinAddr: 0x72D30, symSize: 0x40 }
  - { offset: 0xC71DD, size: 0x8, addend: 0x0, symName: __RNvYINtNtNtNtCsieiGu2EXtoJ_4core4iter8adapters6filter6FilterINtNtNtBb_5slice4iter4IterNtNtNtCssR9xeAO3IU_12serde_derive9internals3ast5FieldENCNvNtB1s_3ser23serialize_struct_as_map0ENtNtNtB9_6traits8iterator8Iterator8peekableB1s_, symObjAddr: 0xABF0, symBinAddr: 0x72D70, symSize: 0x30 }
  - { offset: 0xC7229, size: 0x8, addend: 0x0, symName: __RNvYINtNtNtNtCsieiGu2EXtoJ_4core4iter8adapters6filter6FilterINtNtNtBb_5slice4iter4IterNtNtNtCssR9xeAO3IU_12serde_derive9internals3ast5FieldENCNvNtB1s_3ser24serialize_struct_variants_0ENtNtNtB9_6traits8iterator8Iterator8peekableB1s_, symObjAddr: 0xAC20, symBinAddr: 0x72DA0, symSize: 0x30 }
  - { offset: 0xC7275, size: 0x8, addend: 0x0, symName: __RNvYINtNtNtNtCsieiGu2EXtoJ_4core4iter8adapters6filter6FilterINtNtNtBb_5slice4iter4IterNtNtNtCssR9xeAO3IU_12serde_derive9internals3ast5FieldENCNvNtB1s_3ser26serialize_struct_as_struct0ENtNtNtB9_6traits8iterator8Iterator8peekableB1s_, symObjAddr: 0xAC50, symBinAddr: 0x72DD0, symSize: 0x30 }
  - { offset: 0xC72C1, size: 0x8, addend: 0x0, symName: __RNvYINtNtNtNtCsieiGu2EXtoJ_4core4iter8adapters6filter6FilterINtNtNtBb_5slice4iter4IterNtNtNtCssR9xeAO3IU_12serde_derive9internals3ast5FieldENCNvNtB1s_3ser37serialize_struct_variant_with_flatten0ENtNtNtB9_6traits8iterator8Iterator8peekableB1s_, symObjAddr: 0xAC80, symBinAddr: 0x72E00, symSize: 0x30 }
  - { offset: 0xC7376, size: 0x8, addend: 0x0, symName: __RNvXNtNtNtCsieiGu2EXtoJ_4core4iter6traits7collectINtNtNtB6_8adapters6filter6FilterINtNtNtB8_5slice4iter4IterNtNtNtCssR9xeAO3IU_12serde_derive9internals3ast5FieldENCNvNtB1O_5bound10with_bounds0_0ENtB2_12IntoIterator9into_iterB1O_, symObjAddr: 0x7780, symBinAddr: 0x6F900, symSize: 0x20 }
  - { offset: 0xC73AD, size: 0x8, addend: 0x0, symName: __RNvXNtNtNtCsieiGu2EXtoJ_4core4iter6traits7collectINtNtNtB6_8adapters6filter6FilterINtNtNtB8_5slice4iter4IterNtNtNtCssR9xeAO3IU_12serde_derive9internals3ast5FieldENCNvNtB1O_5bound10with_bounds_0ENtB2_12IntoIterator9into_iterB1O_, symObjAddr: 0x77A0, symBinAddr: 0x6F920, symSize: 0x30 }
  - { offset: 0xC745A, size: 0x8, addend: 0x0, symName: __RNvYINtNtCsieiGu2EXtoJ_4core6option8IntoIterQNtNtCsdGrGZaRBwMb_3syn2ty4TypeENtNtNtNtB7_4iter6traits10exact_size17ExactSizeIterator3lenCssR9xeAO3IU_12serde_derive, symObjAddr: 0xA1D0, symBinAddr: 0x72350, symSize: 0xE0 }
  - { offset: 0xC755A, size: 0x8, addend: 0x0, symName: __RNvYINtNtCsieiGu2EXtoJ_4core6option8IntoIterQNtNtCsdGrGZaRBwMb_3syn2ty9BareFnArgENtNtNtNtB7_4iter6traits10exact_size17ExactSizeIterator3lenCssR9xeAO3IU_12serde_derive, symObjAddr: 0xA2B0, symBinAddr: 0x72430, symSize: 0xE0 }
  - { offset: 0xC765A, size: 0x8, addend: 0x0, symName: __RNvYINtNtCsieiGu2EXtoJ_4core6option8IntoIterQNtNtCsdGrGZaRBwMb_3syn4data7VariantENtNtNtNtB7_4iter6traits10exact_size17ExactSizeIterator3lenCssR9xeAO3IU_12serde_derive, symObjAddr: 0xA390, symBinAddr: 0x72510, symSize: 0xE0 }
  - { offset: 0xC775A, size: 0x8, addend: 0x0, symName: __RNvYINtNtCsieiGu2EXtoJ_4core6option8IntoIterQNtNtCsdGrGZaRBwMb_3syn4expr4ExprENtNtNtNtB7_4iter6traits10exact_size17ExactSizeIterator3lenCssR9xeAO3IU_12serde_derive, symObjAddr: 0xA470, symBinAddr: 0x725F0, symSize: 0xE0 }
  - { offset: 0xC785A, size: 0x8, addend: 0x0, symName: __RNvYINtNtCsieiGu2EXtoJ_4core6option8IntoIterQNtNtCsdGrGZaRBwMb_3syn4path15GenericArgumentENtNtNtNtB7_4iter6traits10exact_size17ExactSizeIterator3lenCssR9xeAO3IU_12serde_derive, symObjAddr: 0xA550, symBinAddr: 0x726D0, symSize: 0xE0 }
  - { offset: 0xC795A, size: 0x8, addend: 0x0, symName: __RNvYINtNtCsieiGu2EXtoJ_4core6option8IntoIterQNtNtCsdGrGZaRBwMb_3syn8generics14TypeParamBoundENtNtNtNtB7_4iter6traits10exact_size17ExactSizeIterator3lenCssR9xeAO3IU_12serde_derive, symObjAddr: 0xA630, symBinAddr: 0x727B0, symSize: 0xE0 }
  - { offset: 0xC7A5A, size: 0x8, addend: 0x0, symName: __RNvYINtNtCsieiGu2EXtoJ_4core6option8IntoIterQNtNtCsdGrGZaRBwMb_3syn8generics14WherePredicateENtNtNtNtB7_4iter6traits10exact_size17ExactSizeIterator3lenCssR9xeAO3IU_12serde_derive, symObjAddr: 0xA710, symBinAddr: 0x72890, symSize: 0xE0 }
  - { offset: 0xC7B5A, size: 0x8, addend: 0x0, symName: __RNvYINtNtCsieiGu2EXtoJ_4core6option8IntoIterRNtNtCsdGrGZaRBwMb_3syn2ty4TypeENtNtNtNtB7_4iter6traits10exact_size17ExactSizeIterator3lenCssR9xeAO3IU_12serde_derive, symObjAddr: 0xA7F0, symBinAddr: 0x72970, symSize: 0xE0 }
  - { offset: 0xC7C5A, size: 0x8, addend: 0x0, symName: __RNvYINtNtCsieiGu2EXtoJ_4core6option8IntoIterRNtNtCsdGrGZaRBwMb_3syn2ty9BareFnArgENtNtNtNtB7_4iter6traits10exact_size17ExactSizeIterator3lenCssR9xeAO3IU_12serde_derive, symObjAddr: 0xA8D0, symBinAddr: 0x72A50, symSize: 0xE0 }
  - { offset: 0xC7D5A, size: 0x8, addend: 0x0, symName: __RNvYINtNtCsieiGu2EXtoJ_4core6option8IntoIterRNtNtCsdGrGZaRBwMb_3syn4data7VariantENtNtNtNtB7_4iter6traits10exact_size17ExactSizeIterator3lenCssR9xeAO3IU_12serde_derive, symObjAddr: 0xA9B0, symBinAddr: 0x72B30, symSize: 0xE0 }
  - { offset: 0xC7E5A, size: 0x8, addend: 0x0, symName: __RNvYINtNtCsieiGu2EXtoJ_4core6option8IntoIterRNtNtCsdGrGZaRBwMb_3syn4path15GenericArgumentENtNtNtNtB7_4iter6traits10exact_size17ExactSizeIterator3lenCssR9xeAO3IU_12serde_derive, symObjAddr: 0xAA90, symBinAddr: 0x72C10, symSize: 0xE0 }
  - { offset: 0xC88EE, size: 0x8, addend: 0x0, symName: __RNvXs1_NtCsieiGu2EXtoJ_4core7convertINtNtB7_6option6OptionNtNtCsdGrGZaRBwMb_3syn3lit6LitStrEINtB5_4IntoBy_E4intoCssR9xeAO3IU_12serde_derive, symObjAddr: 0x7A30, symBinAddr: 0x6FBB0, symSize: 0x20 }
  - { offset: 0xC8967, size: 0x8, addend: 0x0, symName: __RNvXNtCsieiGu2EXtoJ_4core6borrowNtNtCsdGrGZaRBwMb_3syn8lifetime8LifetimeINtB2_6BorrowBu_E6borrowCssR9xeAO3IU_12serde_derive, symObjAddr: 0x7770, symBinAddr: 0x6F8F0, symSize: 0x10 }
  - { offset: 0xC89A8, size: 0x8, addend: 0x0, symName: __RNvXs1b_NtCsieiGu2EXtoJ_4core3fmtRNtNtCsdGrGZaRBwMb_3syn8lifetime8LifetimeNtB6_7Display3fmtCssR9xeAO3IU_12serde_derive, symObjAddr: 0x8270, symBinAddr: 0x703F0, symSize: 0x20 }
  - { offset: 0xC9173, size: 0x8, addend: 0x0, symName: __RNvXsR_NtCscKtU6MdFI5n_10proc_macro6bridgeINtNtCsieiGu2EXtoJ_4core6option6OptionNtNtB5_6client11TokenStreamEINtNtB5_3rpc6EncodeuE6encodeCssR9xeAO3IU_12serde_derive, symObjAddr: 0x8970, symBinAddr: 0x70AF0, symSize: 0xB0 }
  - { offset: 0xC9219, size: 0x8, addend: 0x0, symName: __RNvXsR_NtCscKtU6MdFI5n_10proc_macro6bridgeINtNtCsieiGu2EXtoJ_4core6option6OptionReEINtNtB5_3rpc6EncodeuE6encodeCssR9xeAO3IU_12serde_derive, symObjAddr: 0x8A20, symBinAddr: 0x70BA0, symSize: 0xC0 }
  - { offset: 0xC9EF3, size: 0x8, addend: 0x0, symName: __RNCNvNtNtCssR9xeAO3IU_12serde_derive9internals6respan6respan0B7_, symObjAddr: 0x4EF0, symBinAddr: 0x6D070, symSize: 0x40 }
  - { offset: 0xC9F32, size: 0x8, addend: 0x0, symName: __RNvNtNtCssR9xeAO3IU_12serde_derive9internals6respan12respan_token, symObjAddr: 0x75A0, symBinAddr: 0x6F720, symSize: 0x180 }
  - { offset: 0xC9F82, size: 0x8, addend: 0x0, symName: __RNvNtNtCssR9xeAO3IU_12serde_derive9internals6respan6respan, symObjAddr: 0x7720, symBinAddr: 0x6F8A0, symSize: 0x50 }
  - { offset: 0xCA584, size: 0x8, addend: 0x0, symName: __RINvCsdGrGZaRBwMb_3syn5parseNtNtB2_6derive11DeriveInputECssR9xeAO3IU_12serde_derive, symObjAddr: 0x0, symBinAddr: 0x68180, symSize: 0x30 }
  - { offset: 0xCA5BB, size: 0x8, addend: 0x0, symName: __RINvCsdGrGZaRBwMb_3syn6parse2NtNtB2_2ty8TypePathECssR9xeAO3IU_12serde_derive, symObjAddr: 0x30, symBinAddr: 0x681B0, symSize: 0x30 }
  - { offset: 0xCF4FE, size: 0x8, addend: 0x0, symName: __RINvNtCsdGrGZaRBwMb_3syn11parse_quote5parseNtNtB4_2ty8TypePathECssR9xeAO3IU_12serde_derive, symObjAddr: 0x2800, symBinAddr: 0x6A980, symSize: 0xE0 }
  - { offset: 0xCF55E, size: 0x8, addend: 0x0, symName: __RINvNtCsdGrGZaRBwMb_3syn11parse_quote5parseNtNtB4_4path4PathECssR9xeAO3IU_12serde_derive, symObjAddr: 0x28E0, symBinAddr: 0x6AA60, symSize: 0xC0 }
  - { offset: 0xCF656, size: 0x8, addend: 0x0, symName: __RNvXsb_NtCsdGrGZaRBwMb_3syn5parseINtNtCsieiGu2EXtoJ_4core6option6OptionNtCsaKzlTDPUHDb_11proc_macro29TokenTreeENtB5_5Parse5parseCssR9xeAO3IU_12serde_derive, symObjAddr: 0x8AE0, symBinAddr: 0x70C60, symSize: 0x1B0 }
  - { offset: 0xCF6B2, size: 0x8, addend: 0x0, symName: __RNvXsh_NtCsdGrGZaRBwMb_3syn5parseNvYNtNtB7_2ty8TypePathNtNtB7_11parse_quote10ParseQuote5parseNtB5_6Parser6parse2CssR9xeAO3IU_12serde_derive, symObjAddr: 0x8C90, symBinAddr: 0x70E10, symSize: 0x400 }
  - { offset: 0xCF7C3, size: 0x8, addend: 0x0, symName: __RNvXsh_NtCsdGrGZaRBwMb_3syn5parseNvYNtNtB7_4path4PathNtNtB7_11parse_quote10ParseQuote5parseNtB5_6Parser6parse2CssR9xeAO3IU_12serde_derive, symObjAddr: 0x9090, symBinAddr: 0x71210, symSize: 0x450 }
  - { offset: 0xD030C, size: 0x8, addend: 0x0, symName: __RINvMNtCsieiGu2EXtoJ_4core6optionINtB3_6OptionIBw_RNtNtNtCssR9xeAO3IU_12serde_derive9internals3ast5FieldEE18get_or_insert_withNCNvMs3_NtNtNtB5_4iter8adapters8peekableINtB28_8PeekableINtNtB2a_6filter6FilterINtNtNtB5_5slice4iter4IterBN_ENCNvNtBT_3ser23serialize_struct_as_map0EE4peek0EBT_, symObjAddr: 0x60, symBinAddr: 0x681E0, symSize: 0xD0 }
  - { offset: 0xD040E, size: 0x8, addend: 0x0, symName: __RINvMNtCsieiGu2EXtoJ_4core6optionINtB3_6OptionIBw_RNtNtNtCssR9xeAO3IU_12serde_derive9internals3ast5FieldEE18get_or_insert_withNCNvMs3_NtNtNtB5_4iter8adapters8peekableINtB28_8PeekableINtNtB2a_6filter6FilterINtNtNtB5_5slice4iter4IterBN_ENCNvNtBT_3ser24serialize_struct_variants_0EE4peek0EBT_, symObjAddr: 0x130, symBinAddr: 0x682B0, symSize: 0xD0 }
  - { offset: 0xD0510, size: 0x8, addend: 0x0, symName: __RINvMNtCsieiGu2EXtoJ_4core6optionINtB3_6OptionIBw_RNtNtNtCssR9xeAO3IU_12serde_derive9internals3ast5FieldEE18get_or_insert_withNCNvMs3_NtNtNtB5_4iter8adapters8peekableINtB28_8PeekableINtNtB2a_6filter6FilterINtNtNtB5_5slice4iter4IterBN_ENCNvNtBT_3ser26serialize_struct_as_struct0EE4peek0EBT_, symObjAddr: 0x200, symBinAddr: 0x68380, symSize: 0xD0 }
  - { offset: 0xD0612, size: 0x8, addend: 0x0, symName: __RINvMNtCsieiGu2EXtoJ_4core6optionINtB3_6OptionIBw_RNtNtNtCssR9xeAO3IU_12serde_derive9internals3ast5FieldEE18get_or_insert_withNCNvMs3_NtNtNtB5_4iter8adapters8peekableINtB28_8PeekableINtNtB2a_6filter6FilterINtNtNtB5_5slice4iter4IterBN_ENCNvNtBT_3ser37serialize_struct_variant_with_flatten0EE4peek0EBT_, symObjAddr: 0x2D0, symBinAddr: 0x68450, symSize: 0xD0 }
  - { offset: 0xD074C, size: 0x8, addend: 0x0, symName: __RINvMNtCsieiGu2EXtoJ_4core6optionINtB3_6OptionIBw_TjRNtNtNtCssR9xeAO3IU_12serde_derive9internals3ast5FieldEEE18get_or_insert_withNCNvMs3_NtNtNtB5_4iter8adapters8peekableINtB2b_8PeekableINtNtB2d_6filter6FilterINtNtB2d_9enumerate9EnumerateINtNtNtB5_5slice4iter4IterBP_EENCNvNtBV_3ser22serialize_tuple_struct0EE4peek0EBV_, symObjAddr: 0x3A0, symBinAddr: 0x68520, symSize: 0xF0 }
  - { offset: 0xD084E, size: 0x8, addend: 0x0, symName: __RINvMNtCsieiGu2EXtoJ_4core6optionINtB3_6OptionIBw_TjRNtNtNtCssR9xeAO3IU_12serde_derive9internals3ast5FieldEEE18get_or_insert_withNCNvMs3_NtNtNtB5_4iter8adapters8peekableINtB2b_8PeekableINtNtB2d_6filter6FilterINtNtB2d_9enumerate9EnumerateINtNtNtB5_5slice4iter4IterBP_EENCNvNtBV_3ser23serialize_tuple_variant0EE4peek0EBV_, symObjAddr: 0x490, symBinAddr: 0x68610, symSize: 0xF0 }
  - { offset: 0xD0905, size: 0x8, addend: 0x0, symName: __RINvMNtCsieiGu2EXtoJ_4core6optionINtB3_6OptionINtNtNtB5_3num7nonzero7NonZerojEE6map_orINtNtB5_6result6ResultuBI_ENcNtB1m_3Err0ECssR9xeAO3IU_12serde_derive, symObjAddr: 0x580, symBinAddr: 0x68700, symSize: 0x90 }
  - { offset: 0xD099E, size: 0x8, addend: 0x0, symName: __RINvMNtCsieiGu2EXtoJ_4core6optionINtB3_6OptionNtNtCsdGrGZaRBwMb_3syn2ty8TypePathE7or_elseNCNvXs_NtNtNtB5_4iter8adapters5chainINtB1w_5ChainINtNtB1y_3map3MapINtNtB1y_6filter6FilterIB2d_NtNtBM_8generics10TypeParamsNCNvNtCssR9xeAO3IU_12serde_derive5bound10with_bounds1_0ENCB3p_s2_0ENCB3p_s3_0EINtNtB1y_6cloned6ClonedINtNtNtCslJiobkLta79_5alloc3vec9into_iter8IntoIterRBI_EEENtNtNtB1A_6traits8iterator8Iterator4next0EB3t_, symObjAddr: 0x610, symBinAddr: 0x68790, symSize: 0xE0 }
  - { offset: 0xD0A64, size: 0x8, addend: 0x0, symName: __RINvMNtCsieiGu2EXtoJ_4core6optionINtB3_6OptionNtNtCsdGrGZaRBwMb_3syn8generics12GenericParamE7or_elseNCNvXs_NtNtNtB5_4iter8adapters5chainINtB1H_5ChainINtB3_8IntoIterBI_EINtNtB1J_3map3MapINtNtB1J_6cloned6ClonedINtNtBM_10punctuated4IterBI_EENCNvNtCssR9xeAO3IU_12serde_derive5bound19with_lifetime_bound0EENtNtNtB1L_6traits8iterator8Iterator4next0EB3U_, symObjAddr: 0x6F0, symBinAddr: 0x68870, symSize: 0xF0 }
  - { offset: 0xD0AE2, size: 0x8, addend: 0x0, symName: __RINvMNtCsieiGu2EXtoJ_4core6optionINtB3_6OptionNtNtCsdGrGZaRBwMb_3syn8generics12GenericParamE7or_elseNCNvXs_NtNtNtB5_4iter8adapters5chainINtB1H_5ChainINtB3_8IntoIterBI_EINtNtBM_10punctuated8IntoIterBI_EENtNtNtB1L_6traits8iterator8Iterator4next0ECssR9xeAO3IU_12serde_derive, symObjAddr: 0x7E0, symBinAddr: 0x68960, symSize: 0xF0 }
  - { offset: 0xD0B53, size: 0x8, addend: 0x0, symName: __RINvMNtCsieiGu2EXtoJ_4core6optionINtB3_6OptionNtNtNtCssR9xeAO3IU_12serde_derive9internals4name4NameE14unwrap_or_elseNCNvMBK_NtBK_9MultiName10from_attrs0EBO_, symObjAddr: 0x8D0, symBinAddr: 0x68A50, symSize: 0xA0 }
  - { offset: 0xD0BE8, size: 0x8, addend: 0x0, symName: __RINvMNtCsieiGu2EXtoJ_4core6optionINtB3_6OptionQINtNtCslJiobkLta79_5alloc5boxed3BoxNtNtCsdGrGZaRBwMb_3syn2ty4TypeEE3mapQB1i_NvYBJ_INtNtB5_7convert5AsMutB1i_E6as_mutECssR9xeAO3IU_12serde_derive, symObjAddr: 0x970, symBinAddr: 0x68AF0, symSize: 0x50 }
  - { offset: 0xD0C85, size: 0x8, addend: 0x0, symName: __RINvMNtCsieiGu2EXtoJ_4core6optionINtB3_6OptionQINtNtCslJiobkLta79_5alloc5boxed3BoxNtNtCsdGrGZaRBwMb_3syn2ty9BareFnArgEE3mapQB1i_NvYBJ_INtNtB5_7convert5AsMutB1i_E6as_mutECssR9xeAO3IU_12serde_derive, symObjAddr: 0x9C0, symBinAddr: 0x68B40, symSize: 0x50 }
  - { offset: 0xD0D22, size: 0x8, addend: 0x0, symName: __RINvMNtCsieiGu2EXtoJ_4core6optionINtB3_6OptionQINtNtCslJiobkLta79_5alloc5boxed3BoxNtNtCsdGrGZaRBwMb_3syn4data7VariantEE3mapQB1i_NvYBJ_INtNtB5_7convert5AsMutB1i_E6as_mutECssR9xeAO3IU_12serde_derive, symObjAddr: 0xA10, symBinAddr: 0x68B90, symSize: 0x50 }
  - { offset: 0xD0DBF, size: 0x8, addend: 0x0, symName: __RINvMNtCsieiGu2EXtoJ_4core6optionINtB3_6OptionQINtNtCslJiobkLta79_5alloc5boxed3BoxNtNtCsdGrGZaRBwMb_3syn4expr4ExprEE3mapQB1i_NvYBJ_INtNtB5_7convert5AsMutB1i_E6as_mutECssR9xeAO3IU_12serde_derive, symObjAddr: 0xA60, symBinAddr: 0x68BE0, symSize: 0x50 }
  - { offset: 0xD0E5C, size: 0x8, addend: 0x0, symName: __RINvMNtCsieiGu2EXtoJ_4core6optionINtB3_6OptionQINtNtCslJiobkLta79_5alloc5boxed3BoxNtNtCsdGrGZaRBwMb_3syn4path15GenericArgumentEE3mapQB1i_NvYBJ_INtNtB5_7convert5AsMutB1i_E6as_mutECssR9xeAO3IU_12serde_derive, symObjAddr: 0xAB0, symBinAddr: 0x68C30, symSize: 0x50 }
  - { offset: 0xD0EF9, size: 0x8, addend: 0x0, symName: __RINvMNtCsieiGu2EXtoJ_4core6optionINtB3_6OptionQINtNtCslJiobkLta79_5alloc5boxed3BoxNtNtCsdGrGZaRBwMb_3syn8generics14TypeParamBoundEE3mapQB1i_NvYBJ_INtNtB5_7convert5AsMutB1i_E6as_mutECssR9xeAO3IU_12serde_derive, symObjAddr: 0xB00, symBinAddr: 0x68C80, symSize: 0x50 }
  - { offset: 0xD0F96, size: 0x8, addend: 0x0, symName: __RINvMNtCsieiGu2EXtoJ_4core6optionINtB3_6OptionQINtNtCslJiobkLta79_5alloc5boxed3BoxNtNtCsdGrGZaRBwMb_3syn8generics14WherePredicateEE3mapQB1i_NvYBJ_INtNtB5_7convert5AsMutB1i_E6as_mutECssR9xeAO3IU_12serde_derive, symObjAddr: 0xB50, symBinAddr: 0x68CD0, symSize: 0x50 }
  - { offset: 0xD100E, size: 0x8, addend: 0x0, symName: __RINvMNtCsieiGu2EXtoJ_4core6optionINtB3_6OptionQNtNtCsdGrGZaRBwMb_3syn2ty4TypeE7or_elseNCNvXsF_NtBN_10punctuatedINtB1u_14PrivateIterMutBJ_NtNtBN_5token5CommaENtNtNtNtB5_4iter6traits8iterator8Iterator4nexts_0ECssR9xeAO3IU_12serde_derive, symObjAddr: 0xBA0, symBinAddr: 0x68D20, symSize: 0x90 }
  - { offset: 0xD10A4, size: 0x8, addend: 0x0, symName: __RINvMNtCsieiGu2EXtoJ_4core6optionINtB3_6OptionQNtNtCsdGrGZaRBwMb_3syn2ty4TypeE7or_elseNCNvXsG_NtBN_10punctuatedINtB1u_14PrivateIterMutBJ_NtNtBN_5token5CommaENtNtNtNtB5_4iter6traits12double_ended19DoubleEndedIterator9next_back0ECssR9xeAO3IU_12serde_derive, symObjAddr: 0xC30, symBinAddr: 0x68DB0, symSize: 0x90 }
  - { offset: 0xD1113, size: 0x8, addend: 0x0, symName: __RINvMNtCsieiGu2EXtoJ_4core6optionINtB3_6OptionQNtNtCsdGrGZaRBwMb_3syn2ty9BareFnArgE7or_elseNCNvXsF_NtBN_10punctuatedINtB1z_14PrivateIterMutBJ_NtNtBN_5token5CommaENtNtNtNtB5_4iter6traits8iterator8Iterator4nexts_0ECssR9xeAO3IU_12serde_derive, symObjAddr: 0xCC0, symBinAddr: 0x68E40, symSize: 0x90 }
  - { offset: 0xD11A9, size: 0x8, addend: 0x0, symName: __RINvMNtCsieiGu2EXtoJ_4core6optionINtB3_6OptionQNtNtCsdGrGZaRBwMb_3syn2ty9BareFnArgE7or_elseNCNvXsG_NtBN_10punctuatedINtB1z_14PrivateIterMutBJ_NtNtBN_5token5CommaENtNtNtNtB5_4iter6traits12double_ended19DoubleEndedIterator9next_back0ECssR9xeAO3IU_12serde_derive, symObjAddr: 0xD50, symBinAddr: 0x68ED0, symSize: 0x90 }
  - { offset: 0xD1218, size: 0x8, addend: 0x0, symName: __RINvMNtCsieiGu2EXtoJ_4core6optionINtB3_6OptionQNtNtCsdGrGZaRBwMb_3syn4data7VariantE7or_elseNCNvXsF_NtBN_10punctuatedINtB1z_14PrivateIterMutBJ_NtNtBN_5token5CommaENtNtNtNtB5_4iter6traits8iterator8Iterator4nexts_0ECssR9xeAO3IU_12serde_derive, symObjAddr: 0xDE0, symBinAddr: 0x68F60, symSize: 0x90 }
  - { offset: 0xD12AE, size: 0x8, addend: 0x0, symName: __RINvMNtCsieiGu2EXtoJ_4core6optionINtB3_6OptionQNtNtCsdGrGZaRBwMb_3syn4data7VariantE7or_elseNCNvXsG_NtBN_10punctuatedINtB1z_14PrivateIterMutBJ_NtNtBN_5token5CommaENtNtNtNtB5_4iter6traits12double_ended19DoubleEndedIterator9next_back0ECssR9xeAO3IU_12serde_derive, symObjAddr: 0xE70, symBinAddr: 0x68FF0, symSize: 0x90 }
  - { offset: 0xD131D, size: 0x8, addend: 0x0, symName: __RINvMNtCsieiGu2EXtoJ_4core6optionINtB3_6OptionQNtNtCsdGrGZaRBwMb_3syn4expr4ExprE7or_elseNCNvXsF_NtBN_10punctuatedINtB1w_14PrivateIterMutBJ_NtNtBN_5token5CommaENtNtNtNtB5_4iter6traits8iterator8Iterator4nexts_0ECssR9xeAO3IU_12serde_derive, symObjAddr: 0xF00, symBinAddr: 0x69080, symSize: 0x90 }
  - { offset: 0xD13B3, size: 0x8, addend: 0x0, symName: __RINvMNtCsieiGu2EXtoJ_4core6optionINtB3_6OptionQNtNtCsdGrGZaRBwMb_3syn4expr4ExprE7or_elseNCNvXsG_NtBN_10punctuatedINtB1w_14PrivateIterMutBJ_NtNtBN_5token5CommaENtNtNtNtB5_4iter6traits12double_ended19DoubleEndedIterator9next_back0ECssR9xeAO3IU_12serde_derive, symObjAddr: 0xF90, symBinAddr: 0x69110, symSize: 0x90 }
  - { offset: 0xD1422, size: 0x8, addend: 0x0, symName: __RINvMNtCsieiGu2EXtoJ_4core6optionINtB3_6OptionQNtNtCsdGrGZaRBwMb_3syn4path15GenericArgumentE7or_elseNCNvXsF_NtBN_10punctuatedINtB1I_14PrivateIterMutBJ_NtNtBN_5token5CommaENtNtNtNtB5_4iter6traits8iterator8Iterator4nexts_0ECssR9xeAO3IU_12serde_derive, symObjAddr: 0x1020, symBinAddr: 0x691A0, symSize: 0x90 }
  - { offset: 0xD14B8, size: 0x8, addend: 0x0, symName: __RINvMNtCsieiGu2EXtoJ_4core6optionINtB3_6OptionQNtNtCsdGrGZaRBwMb_3syn4path15GenericArgumentE7or_elseNCNvXsG_NtBN_10punctuatedINtB1I_14PrivateIterMutBJ_NtNtBN_5token5CommaENtNtNtNtB5_4iter6traits12double_ended19DoubleEndedIterator9next_back0ECssR9xeAO3IU_12serde_derive, symObjAddr: 0x10B0, symBinAddr: 0x69230, symSize: 0x90 }
  - { offset: 0xD1527, size: 0x8, addend: 0x0, symName: __RINvMNtCsieiGu2EXtoJ_4core6optionINtB3_6OptionQNtNtCsdGrGZaRBwMb_3syn8generics14TypeParamBoundE7or_elseNCNvXsF_NtBN_10punctuatedINtB1L_14PrivateIterMutBJ_NtNtBN_5token4PlusENtNtNtNtB5_4iter6traits8iterator8Iterator4nexts_0ECssR9xeAO3IU_12serde_derive, symObjAddr: 0x1140, symBinAddr: 0x692C0, symSize: 0x90 }
  - { offset: 0xD15BD, size: 0x8, addend: 0x0, symName: __RINvMNtCsieiGu2EXtoJ_4core6optionINtB3_6OptionQNtNtCsdGrGZaRBwMb_3syn8generics14TypeParamBoundE7or_elseNCNvXsG_NtBN_10punctuatedINtB1L_14PrivateIterMutBJ_NtNtBN_5token4PlusENtNtNtNtB5_4iter6traits12double_ended19DoubleEndedIterator9next_back0ECssR9xeAO3IU_12serde_derive, symObjAddr: 0x11D0, symBinAddr: 0x69350, symSize: 0x90 }
  - { offset: 0xD162C, size: 0x8, addend: 0x0, symName: __RINvMNtCsieiGu2EXtoJ_4core6optionINtB3_6OptionQNtNtCsdGrGZaRBwMb_3syn8generics14WherePredicateE7or_elseNCNvXsF_NtBN_10punctuatedINtB1L_14PrivateIterMutBJ_NtNtBN_5token5CommaENtNtNtNtB5_4iter6traits8iterator8Iterator4nexts_0ECssR9xeAO3IU_12serde_derive, symObjAddr: 0x1260, symBinAddr: 0x693E0, symSize: 0x90 }
  - { offset: 0xD16C2, size: 0x8, addend: 0x0, symName: __RINvMNtCsieiGu2EXtoJ_4core6optionINtB3_6OptionQNtNtCsdGrGZaRBwMb_3syn8generics14WherePredicateE7or_elseNCNvXsG_NtBN_10punctuatedINtB1L_14PrivateIterMutBJ_NtNtBN_5token5CommaENtNtNtNtB5_4iter6traits12double_ended19DoubleEndedIterator9next_back0ECssR9xeAO3IU_12serde_derive, symObjAddr: 0x12F0, symBinAddr: 0x69470, symSize: 0x90 }
  - { offset: 0xD1724, size: 0x8, addend: 0x0, symName: __RINvMNtCsieiGu2EXtoJ_4core6optionINtB3_6OptionQTNtNtCsdGrGZaRBwMb_3syn2ty4TypeNtNtBO_5token5CommaEE3mapQBK_NCNCNvXsG_NtBO_10punctuatedINtB1R_14PrivateIterMutBK_B1e_ENtNtNtNtB5_4iter6traits12double_ended19DoubleEndedIterator9next_back00ECssR9xeAO3IU_12serde_derive, symObjAddr: 0x1380, symBinAddr: 0x69500, symSize: 0x50 }
  - { offset: 0xD178F, size: 0x8, addend: 0x0, symName: __RINvMNtCsieiGu2EXtoJ_4core6optionINtB3_6OptionQTNtNtCsdGrGZaRBwMb_3syn2ty4TypeNtNtBO_5token5CommaEE3mapQBK_NCNvXsF_NtBO_10punctuatedINtB1P_14PrivateIterMutBK_B1e_ENtNtNtNtB5_4iter6traits8iterator8Iterator4next0ECssR9xeAO3IU_12serde_derive, symObjAddr: 0x13D0, symBinAddr: 0x69550, symSize: 0x50 }
  - { offset: 0xD17FA, size: 0x8, addend: 0x0, symName: __RINvMNtCsieiGu2EXtoJ_4core6optionINtB3_6OptionQTNtNtCsdGrGZaRBwMb_3syn2ty9BareFnArgNtNtBO_5token5CommaEE3mapQBK_NCNCNvXsG_NtBO_10punctuatedINtB1W_14PrivateIterMutBK_B1j_ENtNtNtNtB5_4iter6traits12double_ended19DoubleEndedIterator9next_back00ECssR9xeAO3IU_12serde_derive, symObjAddr: 0x1420, symBinAddr: 0x695A0, symSize: 0x50 }
  - { offset: 0xD1865, size: 0x8, addend: 0x0, symName: __RINvMNtCsieiGu2EXtoJ_4core6optionINtB3_6OptionQTNtNtCsdGrGZaRBwMb_3syn2ty9BareFnArgNtNtBO_5token5CommaEE3mapQBK_NCNvXsF_NtBO_10punctuatedINtB1U_14PrivateIterMutBK_B1j_ENtNtNtNtB5_4iter6traits8iterator8Iterator4next0ECssR9xeAO3IU_12serde_derive, symObjAddr: 0x1470, symBinAddr: 0x695F0, symSize: 0x50 }
  - { offset: 0xD18D0, size: 0x8, addend: 0x0, symName: __RINvMNtCsieiGu2EXtoJ_4core6optionINtB3_6OptionQTNtNtCsdGrGZaRBwMb_3syn4data7VariantNtNtBO_5token5CommaEE3mapQBK_NCNCNvXsG_NtBO_10punctuatedINtB1W_14PrivateIterMutBK_B1j_ENtNtNtNtB5_4iter6traits12double_ended19DoubleEndedIterator9next_back00ECssR9xeAO3IU_12serde_derive, symObjAddr: 0x14C0, symBinAddr: 0x69640, symSize: 0x50 }
  - { offset: 0xD193B, size: 0x8, addend: 0x0, symName: __RINvMNtCsieiGu2EXtoJ_4core6optionINtB3_6OptionQTNtNtCsdGrGZaRBwMb_3syn4data7VariantNtNtBO_5token5CommaEE3mapQBK_NCNvXsF_NtBO_10punctuatedINtB1U_14PrivateIterMutBK_B1j_ENtNtNtNtB5_4iter6traits8iterator8Iterator4next0ECssR9xeAO3IU_12serde_derive, symObjAddr: 0x1510, symBinAddr: 0x69690, symSize: 0x50 }
  - { offset: 0xD19A6, size: 0x8, addend: 0x0, symName: __RINvMNtCsieiGu2EXtoJ_4core6optionINtB3_6OptionQTNtNtCsdGrGZaRBwMb_3syn4expr4ExprNtNtBO_5token5CommaEE3mapQBK_NCNCNvXsG_NtBO_10punctuatedINtB1T_14PrivateIterMutBK_B1g_ENtNtNtNtB5_4iter6traits12double_ended19DoubleEndedIterator9next_back00ECssR9xeAO3IU_12serde_derive, symObjAddr: 0x1560, symBinAddr: 0x696E0, symSize: 0x50 }
  - { offset: 0xD1A11, size: 0x8, addend: 0x0, symName: __RINvMNtCsieiGu2EXtoJ_4core6optionINtB3_6OptionQTNtNtCsdGrGZaRBwMb_3syn4expr4ExprNtNtBO_5token5CommaEE3mapQBK_NCNvXsF_NtBO_10punctuatedINtB1R_14PrivateIterMutBK_B1g_ENtNtNtNtB5_4iter6traits8iterator8Iterator4next0ECssR9xeAO3IU_12serde_derive, symObjAddr: 0x15B0, symBinAddr: 0x69730, symSize: 0x50 }
  - { offset: 0xD1A7C, size: 0x8, addend: 0x0, symName: __RINvMNtCsieiGu2EXtoJ_4core6optionINtB3_6OptionQTNtNtCsdGrGZaRBwMb_3syn4path15GenericArgumentNtNtBO_5token5CommaEE3mapQBK_NCNCNvXsG_NtBO_10punctuatedINtB25_14PrivateIterMutBK_B1s_ENtNtNtNtB5_4iter6traits12double_ended19DoubleEndedIterator9next_back00ECssR9xeAO3IU_12serde_derive, symObjAddr: 0x1600, symBinAddr: 0x69780, symSize: 0x50 }
  - { offset: 0xD1AE7, size: 0x8, addend: 0x0, symName: __RINvMNtCsieiGu2EXtoJ_4core6optionINtB3_6OptionQTNtNtCsdGrGZaRBwMb_3syn4path15GenericArgumentNtNtBO_5token5CommaEE3mapQBK_NCNvXsF_NtBO_10punctuatedINtB23_14PrivateIterMutBK_B1s_ENtNtNtNtB5_4iter6traits8iterator8Iterator4next0ECssR9xeAO3IU_12serde_derive, symObjAddr: 0x1650, symBinAddr: 0x697D0, symSize: 0x50 }
  - { offset: 0xD1B52, size: 0x8, addend: 0x0, symName: __RINvMNtCsieiGu2EXtoJ_4core6optionINtB3_6OptionQTNtNtCsdGrGZaRBwMb_3syn8generics14TypeParamBoundNtNtBO_5token4PlusEE3mapQBK_NCNCNvXsG_NtBO_10punctuatedINtB27_14PrivateIterMutBK_B1v_ENtNtNtNtB5_4iter6traits12double_ended19DoubleEndedIterator9next_back00ECssR9xeAO3IU_12serde_derive, symObjAddr: 0x16A0, symBinAddr: 0x69820, symSize: 0x50 }
  - { offset: 0xD1BBD, size: 0x8, addend: 0x0, symName: __RINvMNtCsieiGu2EXtoJ_4core6optionINtB3_6OptionQTNtNtCsdGrGZaRBwMb_3syn8generics14TypeParamBoundNtNtBO_5token4PlusEE3mapQBK_NCNvXsF_NtBO_10punctuatedINtB25_14PrivateIterMutBK_B1v_ENtNtNtNtB5_4iter6traits8iterator8Iterator4next0ECssR9xeAO3IU_12serde_derive, symObjAddr: 0x16F0, symBinAddr: 0x69870, symSize: 0x50 }
  - { offset: 0xD1C28, size: 0x8, addend: 0x0, symName: __RINvMNtCsieiGu2EXtoJ_4core6optionINtB3_6OptionQTNtNtCsdGrGZaRBwMb_3syn8generics14WherePredicateNtNtBO_5token5CommaEE3mapQBK_NCNCNvXsG_NtBO_10punctuatedINtB28_14PrivateIterMutBK_B1v_ENtNtNtNtB5_4iter6traits12double_ended19DoubleEndedIterator9next_back00ECssR9xeAO3IU_12serde_derive, symObjAddr: 0x1740, symBinAddr: 0x698C0, symSize: 0x50 }
  - { offset: 0xD1C93, size: 0x8, addend: 0x0, symName: __RINvMNtCsieiGu2EXtoJ_4core6optionINtB3_6OptionQTNtNtCsdGrGZaRBwMb_3syn8generics14WherePredicateNtNtBO_5token5CommaEE3mapQBK_NCNvXsF_NtBO_10punctuatedINtB26_14PrivateIterMutBK_B1v_ENtNtNtNtB5_4iter6traits8iterator8Iterator4next0ECssR9xeAO3IU_12serde_derive, symObjAddr: 0x1790, symBinAddr: 0x69910, symSize: 0x50 }
  - { offset: 0xD1D32, size: 0x8, addend: 0x0, symName: __RINvMNtCsieiGu2EXtoJ_4core6optionINtB3_6OptionRINtNtCslJiobkLta79_5alloc3vec3VecNtNtCsdGrGZaRBwMb_3syn8generics14WherePredicateEE3mapRSB1g_NCNvMs3_NtNtCssR9xeAO3IU_12serde_derive9internals4attrNtB2l_9Container8de_bound0EB2p_, symObjAddr: 0x17E0, symBinAddr: 0x69960, symSize: 0x60 }
  - { offset: 0xD1D9D, size: 0x8, addend: 0x0, symName: __RINvMNtCsieiGu2EXtoJ_4core6optionINtB3_6OptionRINtNtCslJiobkLta79_5alloc3vec3VecNtNtCsdGrGZaRBwMb_3syn8generics14WherePredicateEE3mapRSB1g_NCNvMs3_NtNtCssR9xeAO3IU_12serde_derive9internals4attrNtB2l_9Container9ser_bound0EB2p_, symObjAddr: 0x1840, symBinAddr: 0x699C0, symSize: 0x60 }
  - { offset: 0xD1E08, size: 0x8, addend: 0x0, symName: __RINvMNtCsieiGu2EXtoJ_4core6optionINtB3_6OptionRINtNtCslJiobkLta79_5alloc3vec3VecNtNtCsdGrGZaRBwMb_3syn8generics14WherePredicateEE3mapRSB1g_NCNvMs4_NtNtCssR9xeAO3IU_12serde_derive9internals4attrNtB2l_7Variant8de_bound0EB2p_, symObjAddr: 0x18A0, symBinAddr: 0x69A20, symSize: 0x60 }
  - { offset: 0xD1E73, size: 0x8, addend: 0x0, symName: __RINvMNtCsieiGu2EXtoJ_4core6optionINtB3_6OptionRINtNtCslJiobkLta79_5alloc3vec3VecNtNtCsdGrGZaRBwMb_3syn8generics14WherePredicateEE3mapRSB1g_NCNvMs4_NtNtCssR9xeAO3IU_12serde_derive9internals4attrNtB2l_7Variant9ser_bound0EB2p_, symObjAddr: 0x1900, symBinAddr: 0x69A80, symSize: 0x60 }
  - { offset: 0xD1EDE, size: 0x8, addend: 0x0, symName: __RINvMNtCsieiGu2EXtoJ_4core6optionINtB3_6OptionRINtNtCslJiobkLta79_5alloc3vec3VecNtNtCsdGrGZaRBwMb_3syn8generics14WherePredicateEE3mapRSB1g_NCNvMs6_NtNtCssR9xeAO3IU_12serde_derive9internals4attrNtB2l_5Field8de_bound0EB2p_, symObjAddr: 0x1960, symBinAddr: 0x69AE0, symSize: 0x60 }
  - { offset: 0xD1F49, size: 0x8, addend: 0x0, symName: __RINvMNtCsieiGu2EXtoJ_4core6optionINtB3_6OptionRINtNtCslJiobkLta79_5alloc3vec3VecNtNtCsdGrGZaRBwMb_3syn8generics14WherePredicateEE3mapRSB1g_NCNvMs6_NtNtCssR9xeAO3IU_12serde_derive9internals4attrNtB2l_5Field9ser_bound0EB2p_, symObjAddr: 0x19C0, symBinAddr: 0x69B40, symSize: 0x60 }
  - { offset: 0xD1FF7, size: 0x8, addend: 0x0, symName: __RINvMNtCsieiGu2EXtoJ_4core6optionINtB3_6OptionRINtNtNtB5_5slice4iter4IterNtNtNtCssR9xeAO3IU_12serde_derive9internals3ast5FieldEE6map_orTjIBw_jEENvYBJ_NtNtNtNtB5_4iter6traits8iterator8Iterator9size_hintEB1f_, symObjAddr: 0x1A20, symBinAddr: 0x69BA0, symSize: 0xA0 }
  - { offset: 0xD207F, size: 0x8, addend: 0x0, symName: __RINvMNtCsieiGu2EXtoJ_4core6optionINtB3_6OptionRNtNtCsdGrGZaRBwMb_3syn2ty4TypeE7or_elseNCNvXsw_NtBN_10punctuatedINtB1u_11PrivateIterBJ_NtNtBN_5token5CommaENtNtNtNtB5_4iter6traits8iterator8Iterator4nexts_0ECssR9xeAO3IU_12serde_derive, symObjAddr: 0x1AC0, symBinAddr: 0x69C40, symSize: 0x90 }
  - { offset: 0xD20FB, size: 0x8, addend: 0x0, symName: __RINvMNtCsieiGu2EXtoJ_4core6optionINtB3_6OptionRNtNtCsdGrGZaRBwMb_3syn2ty4TypeE7or_elseNCNvXsx_NtBN_10punctuatedINtB1u_11PrivateIterBJ_NtNtBN_5token5CommaENtNtNtNtB5_4iter6traits12double_ended19DoubleEndedIterator9next_back0ECssR9xeAO3IU_12serde_derive, symObjAddr: 0x1B50, symBinAddr: 0x69CD0, symSize: 0x90 }
  - { offset: 0xD2177, size: 0x8, addend: 0x0, symName: __RINvMNtCsieiGu2EXtoJ_4core6optionINtB3_6OptionRNtNtCsdGrGZaRBwMb_3syn2ty9BareFnArgE7or_elseNCNvXsw_NtBN_10punctuatedINtB1z_11PrivateIterBJ_NtNtBN_5token5CommaENtNtNtNtB5_4iter6traits8iterator8Iterator4nexts_0ECssR9xeAO3IU_12serde_derive, symObjAddr: 0x1BE0, symBinAddr: 0x69D60, symSize: 0x90 }
  - { offset: 0xD21F3, size: 0x8, addend: 0x0, symName: __RINvMNtCsieiGu2EXtoJ_4core6optionINtB3_6OptionRNtNtCsdGrGZaRBwMb_3syn2ty9BareFnArgE7or_elseNCNvXsx_NtBN_10punctuatedINtB1z_11PrivateIterBJ_NtNtBN_5token5CommaENtNtNtNtB5_4iter6traits12double_ended19DoubleEndedIterator9next_back0ECssR9xeAO3IU_12serde_derive, symObjAddr: 0x1C70, symBinAddr: 0x69DF0, symSize: 0x90 }
  - { offset: 0xD227A, size: 0x8, addend: 0x0, symName: __RINvMNtCsieiGu2EXtoJ_4core6optionINtB3_6OptionRNtNtCsdGrGZaRBwMb_3syn3lit6LitStrE3mapNtNtNtCssR9xeAO3IU_12serde_derive9internals4name4NameNvYB1l_INtNtB5_7convert4FromBI_E4fromEB1r_, symObjAddr: 0x1D00, symBinAddr: 0x69E80, symSize: 0x80 }
  - { offset: 0xD22FF, size: 0x8, addend: 0x0, symName: __RINvMNtCsieiGu2EXtoJ_4core6optionINtB3_6OptionRNtNtCsdGrGZaRBwMb_3syn4data7VariantE7or_elseNCNvXsw_NtBN_10punctuatedINtB1z_11PrivateIterBJ_NtNtBN_5token5CommaENtNtNtNtB5_4iter6traits8iterator8Iterator4nexts_0ECssR9xeAO3IU_12serde_derive, symObjAddr: 0x1D80, symBinAddr: 0x69F00, symSize: 0x90 }
  - { offset: 0xD237B, size: 0x8, addend: 0x0, symName: __RINvMNtCsieiGu2EXtoJ_4core6optionINtB3_6OptionRNtNtCsdGrGZaRBwMb_3syn4data7VariantE7or_elseNCNvXsx_NtBN_10punctuatedINtB1z_11PrivateIterBJ_NtNtBN_5token5CommaENtNtNtNtB5_4iter6traits12double_ended19DoubleEndedIterator9next_back0ECssR9xeAO3IU_12serde_derive, symObjAddr: 0x1E10, symBinAddr: 0x69F90, symSize: 0x90 }
  - { offset: 0xD23F7, size: 0x8, addend: 0x0, symName: __RINvMNtCsieiGu2EXtoJ_4core6optionINtB3_6OptionRNtNtCsdGrGZaRBwMb_3syn4expr8ExprPathE3mapNtCsaKzlTDPUHDb_11proc_macro211TokenStreamNCNCNvNtCssR9xeAO3IU_12serde_derive3ser24serialize_struct_visitors_00EB2c_, symObjAddr: 0x1EA0, symBinAddr: 0x6A020, symSize: 0x90 }
  - { offset: 0xD2462, size: 0x8, addend: 0x0, symName: __RINvMNtCsieiGu2EXtoJ_4core6optionINtB3_6OptionRNtNtCsdGrGZaRBwMb_3syn4expr8ExprPathE3mapNtCsaKzlTDPUHDb_11proc_macro211TokenStreamNCNCNvNtCssR9xeAO3IU_12serde_derive3ser30serialize_tuple_struct_visitors_00EB2c_, symObjAddr: 0x1F30, symBinAddr: 0x6A0B0, symSize: 0x90 }
  - { offset: 0xD24E7, size: 0x8, addend: 0x0, symName: __RINvMNtCsieiGu2EXtoJ_4core6optionINtB3_6OptionRNtNtCsdGrGZaRBwMb_3syn4path15GenericArgumentE7or_elseNCNvXsw_NtBN_10punctuatedINtB1I_11PrivateIterBJ_NtNtBN_5token5CommaENtNtNtNtB5_4iter6traits8iterator8Iterator4nexts_0ECssR9xeAO3IU_12serde_derive, symObjAddr: 0x1FC0, symBinAddr: 0x6A140, symSize: 0x90 }
  - { offset: 0xD2563, size: 0x8, addend: 0x0, symName: __RINvMNtCsieiGu2EXtoJ_4core6optionINtB3_6OptionRNtNtCsdGrGZaRBwMb_3syn4path15GenericArgumentE7or_elseNCNvXsx_NtBN_10punctuatedINtB1I_11PrivateIterBJ_NtNtBN_5token5CommaENtNtNtNtB5_4iter6traits12double_ended19DoubleEndedIterator9next_back0ECssR9xeAO3IU_12serde_derive, symObjAddr: 0x2050, symBinAddr: 0x6A1D0, symSize: 0x90 }
  - { offset: 0xD25EA, size: 0x8, addend: 0x0, symName: __RINvMNtCsieiGu2EXtoJ_4core6optionINtB3_6OptionRNtNtCslJiobkLta79_5alloc6string6StringE3mapReNvYBJ_INtNtB5_7convert5AsRefeE6as_refECssR9xeAO3IU_12serde_derive, symObjAddr: 0x20E0, symBinAddr: 0x6A260, symSize: 0x60 }
  - { offset: 0xD2662, size: 0x8, addend: 0x0, symName: __RINvMNtCsieiGu2EXtoJ_4core6optionINtB3_6OptionRNtNtNtCssR9xeAO3IU_12serde_derive9internals3ast5FieldE3mapNtCsaKzlTDPUHDb_11proc_macro211TokenStreamNCNvNtNtBP_2de13enum_untagged19deserialize_variant0EBP_, symObjAddr: 0x2140, symBinAddr: 0x6A2C0, symSize: 0x90 }
  - { offset: 0xD26CD, size: 0x8, addend: 0x0, symName: __RINvMNtCsieiGu2EXtoJ_4core6optionINtB3_6OptionRNtNtNtCssR9xeAO3IU_12serde_derive9internals3ast5FieldE3mapNtCsaKzlTDPUHDb_11proc_macro211TokenStreamNCNvNtNtBP_2de15enum_internally37deserialize_internally_tagged_variant0EBP_, symObjAddr: 0x21D0, symBinAddr: 0x6A350, symSize: 0x90 }
  - { offset: 0xD2745, size: 0x8, addend: 0x0, symName: __RINvMNtCsieiGu2EXtoJ_4core6optionINtB3_6OptionRNtNtNtCssR9xeAO3IU_12serde_derive9internals4attr7VariantE6map_orbNCNvNtBP_2de23needs_deserialize_bound0EBP_, symObjAddr: 0x2260, symBinAddr: 0x6A3E0, symSize: 0x90 }
  - { offset: 0xD27B7, size: 0x8, addend: 0x0, symName: __RINvMNtCsieiGu2EXtoJ_4core6optionINtB3_6OptionRNtNtNtCssR9xeAO3IU_12serde_derive9internals4attr7VariantE6map_orbNCNvNtBP_3ser21needs_serialize_bound0EBP_, symObjAddr: 0x22F0, symBinAddr: 0x6A470, symSize: 0x90 }
  - { offset: 0xD2836, size: 0x8, addend: 0x0, symName: __RINvMNtCsieiGu2EXtoJ_4core6optionINtB3_6OptionRNtNtNtCssR9xeAO3IU_12serde_derive9internals4attr7VariantE8and_thenRNtBL_15BorrowAttributeNCNvMs6_BL_NtBL_5Field8from_ast0EBP_, symObjAddr: 0x2380, symBinAddr: 0x6A500, symSize: 0x50 }
  - { offset: 0xD28A1, size: 0x8, addend: 0x0, symName: __RINvMNtCsieiGu2EXtoJ_4core6optionINtB3_6OptionRTNtNtCsdGrGZaRBwMb_3syn2ty4TypeNtNtBO_5token5CommaEE3mapRBK_NCNCNvXsx_NtBO_10punctuatedINtB1R_11PrivateIterBK_B1e_ENtNtNtNtB5_4iter6traits12double_ended19DoubleEndedIterator9next_back00ECssR9xeAO3IU_12serde_derive, symObjAddr: 0x23D0, symBinAddr: 0x6A550, symSize: 0x50 }
  - { offset: 0xD290C, size: 0x8, addend: 0x0, symName: __RINvMNtCsieiGu2EXtoJ_4core6optionINtB3_6OptionRTNtNtCsdGrGZaRBwMb_3syn2ty4TypeNtNtBO_5token5CommaEE3mapRBK_NCNvXsw_NtBO_10punctuatedINtB1P_11PrivateIterBK_B1e_ENtNtNtNtB5_4iter6traits8iterator8Iterator4next0ECssR9xeAO3IU_12serde_derive, symObjAddr: 0x2420, symBinAddr: 0x6A5A0, symSize: 0x50 }
  - { offset: 0xD2977, size: 0x8, addend: 0x0, symName: __RINvMNtCsieiGu2EXtoJ_4core6optionINtB3_6OptionRTNtNtCsdGrGZaRBwMb_3syn2ty9BareFnArgNtNtBO_5token5CommaEE3mapRBK_NCNCNvXsx_NtBO_10punctuatedINtB1W_11PrivateIterBK_B1j_ENtNtNtNtB5_4iter6traits12double_ended19DoubleEndedIterator9next_back00ECssR9xeAO3IU_12serde_derive, symObjAddr: 0x2470, symBinAddr: 0x6A5F0, symSize: 0x50 }
  - { offset: 0xD29E2, size: 0x8, addend: 0x0, symName: __RINvMNtCsieiGu2EXtoJ_4core6optionINtB3_6OptionRTNtNtCsdGrGZaRBwMb_3syn2ty9BareFnArgNtNtBO_5token5CommaEE3mapRBK_NCNvXsw_NtBO_10punctuatedINtB1U_11PrivateIterBK_B1j_ENtNtNtNtB5_4iter6traits8iterator8Iterator4next0ECssR9xeAO3IU_12serde_derive, symObjAddr: 0x24C0, symBinAddr: 0x6A640, symSize: 0x50 }
  - { offset: 0xD2A4D, size: 0x8, addend: 0x0, symName: __RINvMNtCsieiGu2EXtoJ_4core6optionINtB3_6OptionRTNtNtCsdGrGZaRBwMb_3syn4data7VariantNtNtBO_5token5CommaEE3mapRBK_NCNCNvXsx_NtBO_10punctuatedINtB1W_11PrivateIterBK_B1j_ENtNtNtNtB5_4iter6traits12double_ended19DoubleEndedIterator9next_back00ECssR9xeAO3IU_12serde_derive, symObjAddr: 0x2510, symBinAddr: 0x6A690, symSize: 0x50 }
  - { offset: 0xD2AB8, size: 0x8, addend: 0x0, symName: __RINvMNtCsieiGu2EXtoJ_4core6optionINtB3_6OptionRTNtNtCsdGrGZaRBwMb_3syn4data7VariantNtNtBO_5token5CommaEE3mapRBK_NCNvXsw_NtBO_10punctuatedINtB1U_11PrivateIterBK_B1j_ENtNtNtNtB5_4iter6traits8iterator8Iterator4next0ECssR9xeAO3IU_12serde_derive, symObjAddr: 0x2560, symBinAddr: 0x6A6E0, symSize: 0x50 }
  - { offset: 0xD2B23, size: 0x8, addend: 0x0, symName: __RINvMNtCsieiGu2EXtoJ_4core6optionINtB3_6OptionRTNtNtCsdGrGZaRBwMb_3syn4path15GenericArgumentNtNtBO_5token5CommaEE3mapRBK_NCNCNvXsx_NtBO_10punctuatedINtB25_11PrivateIterBK_B1s_ENtNtNtNtB5_4iter6traits12double_ended19DoubleEndedIterator9next_back00ECssR9xeAO3IU_12serde_derive, symObjAddr: 0x25B0, symBinAddr: 0x6A730, symSize: 0x50 }
  - { offset: 0xD2B8E, size: 0x8, addend: 0x0, symName: __RINvMNtCsieiGu2EXtoJ_4core6optionINtB3_6OptionRTNtNtCsdGrGZaRBwMb_3syn4path15GenericArgumentNtNtBO_5token5CommaEE3mapRBK_NCNvXsw_NtBO_10punctuatedINtB23_11PrivateIterBK_B1s_ENtNtNtNtB5_4iter6traits8iterator8Iterator4next0ECssR9xeAO3IU_12serde_derive, symObjAddr: 0x2600, symBinAddr: 0x6A780, symSize: 0x50 }
  - { offset: 0xD2C24, size: 0x8, addend: 0x0, symName: __RINvMNtCsieiGu2EXtoJ_4core6optionINtB3_6OptionTjRNtNtNtCssR9xeAO3IU_12serde_derive9internals3ast7VariantEE3mapNtCsaKzlTDPUHDb_11proc_macro211TokenStreamNCNvNtNtBR_2de5enum_25prepare_enum_variant_enums0_0EBR_, symObjAddr: 0x2650, symBinAddr: 0x6A7D0, symSize: 0x90 }
  - { offset: 0xD2D51, size: 0x8, addend: 0x0, symName: __RINvMsi_NtNtNtCslJiobkLta79_5alloc11collections5btree3mapINtB6_8BTreeMapNtNtCsdGrGZaRBwMb_3syn8lifetime8LifetimeNtNtB8_7set_val9SetValZSTE3getB18_ECssR9xeAO3IU_12serde_derive, symObjAddr: 0x26E0, symBinAddr: 0x6A860, symSize: 0x100 }
  - { offset: 0xD2EA2, size: 0x8, addend: 0x0, symName: __RINvNtCs9OU1sGv5X54_5quote9___private8get_spanNtCsaKzlTDPUHDb_11proc_macro24SpanECssR9xeAO3IU_12serde_derive, symObjAddr: 0x27E0, symBinAddr: 0x6A960, symSize: 0x20 }
  - { offset: 0xD2F55, size: 0x8, addend: 0x0, symName: __RNvXs5_NtCs9OU1sGv5X54_5quote9___privateINtB5_9RepInterpNtCsaKzlTDPUHDb_11proc_macro211TokenStreamENtNtB7_9to_tokens8ToTokens9to_tokensCssR9xeAO3IU_12serde_derive, symObjAddr: 0x83C0, symBinAddr: 0x70540, symSize: 0x30 }
  - { offset: 0xD2F94, size: 0x8, addend: 0x0, symName: __RNvXs5_NtCs9OU1sGv5X54_5quote9___privateINtB5_9RepInterpNtCsaKzlTDPUHDb_11proc_macro25IdentENtNtB7_9to_tokens8ToTokens9to_tokensCssR9xeAO3IU_12serde_derive, symObjAddr: 0x83F0, symBinAddr: 0x70570, symSize: 0x30 }
  - { offset: 0xD2FD3, size: 0x8, addend: 0x0, symName: __RNvXs5_NtCs9OU1sGv5X54_5quote9___privateINtB5_9RepInterpNtCsaKzlTDPUHDb_11proc_macro27LiteralENtNtB7_9to_tokens8ToTokens9to_tokensCssR9xeAO3IU_12serde_derive, symObjAddr: 0x8420, symBinAddr: 0x705A0, symSize: 0x30 }
  - { offset: 0xD3012, size: 0x8, addend: 0x0, symName: __RNvXs5_NtCs9OU1sGv5X54_5quote9___privateINtB5_9RepInterpNtNtCsdGrGZaRBwMb_3syn4expr6MemberENtNtB7_9to_tokens8ToTokens9to_tokensCssR9xeAO3IU_12serde_derive, symObjAddr: 0x8450, symBinAddr: 0x705D0, symSize: 0x30 }
  - { offset: 0xD3051, size: 0x8, addend: 0x0, symName: __RNvXs5_NtCs9OU1sGv5X54_5quote9___privateINtB5_9RepInterpNtNtCssR9xeAO3IU_12serde_derive8fragment4ExprENtNtB7_9to_tokens8ToTokens9to_tokensBW_, symObjAddr: 0x8480, symBinAddr: 0x70600, symSize: 0x30 }
  - { offset: 0xD3090, size: 0x8, addend: 0x0, symName: __RNvXs5_NtCs9OU1sGv5X54_5quote9___privateINtB5_9RepInterpRNtCsaKzlTDPUHDb_11proc_macro211TokenStreamENtNtB7_9to_tokens8ToTokens9to_tokensCssR9xeAO3IU_12serde_derive, symObjAddr: 0x84B0, symBinAddr: 0x70630, symSize: 0x30 }
  - { offset: 0xD30CF, size: 0x8, addend: 0x0, symName: __RNvXs5_NtCs9OU1sGv5X54_5quote9___privateINtB5_9RepInterpRNtCsaKzlTDPUHDb_11proc_macro25IdentENtNtB7_9to_tokens8ToTokens9to_tokensCssR9xeAO3IU_12serde_derive, symObjAddr: 0x84E0, symBinAddr: 0x70660, symSize: 0x30 }
  - { offset: 0xD310E, size: 0x8, addend: 0x0, symName: __RNvXs5_NtCs9OU1sGv5X54_5quote9___privateINtB5_9RepInterpRNtCssR9xeAO3IU_12serde_derive7privateENtNtB7_9to_tokens8ToTokens9to_tokensBV_, symObjAddr: 0x8510, symBinAddr: 0x70690, symSize: 0x30 }
  - { offset: 0xD314D, size: 0x8, addend: 0x0, symName: __RNvXs5_NtCs9OU1sGv5X54_5quote9___privateINtB5_9RepInterpRNtNtCsdGrGZaRBwMb_3syn2ty4TypeENtNtB7_9to_tokens8ToTokens9to_tokensCssR9xeAO3IU_12serde_derive, symObjAddr: 0x8540, symBinAddr: 0x706C0, symSize: 0x30 }
  - { offset: 0xD318C, size: 0x8, addend: 0x0, symName: __RNvXs5_NtCs9OU1sGv5X54_5quote9___privateINtB5_9RepInterpRNtNtCsdGrGZaRBwMb_3syn4expr6MemberENtNtB7_9to_tokens8ToTokens9to_tokensCssR9xeAO3IU_12serde_derive, symObjAddr: 0x8570, symBinAddr: 0x706F0, symSize: 0x30 }
  - { offset: 0xD31CB, size: 0x8, addend: 0x0, symName: __RNvXs5_NtCs9OU1sGv5X54_5quote9___privateINtB5_9RepInterpRNtNtNtCssR9xeAO3IU_12serde_derive9internals4name4NameENtNtB7_9to_tokens8ToTokens9to_tokensBZ_, symObjAddr: 0x85A0, symBinAddr: 0x70720, symSize: 0x30 }
  - { offset: 0xD320A, size: 0x8, addend: 0x0, symName: __RNvXs5_NtCs9OU1sGv5X54_5quote9___privateINtB5_9RepInterpRRNtCsaKzlTDPUHDb_11proc_macro25IdentENtNtB7_9to_tokens8ToTokens9to_tokensCssR9xeAO3IU_12serde_derive, symObjAddr: 0x85D0, symBinAddr: 0x70750, symSize: 0x30 }
  - { offset: 0xD3249, size: 0x8, addend: 0x0, symName: __RNvXs5_NtCs9OU1sGv5X54_5quote9___privateINtB5_9RepInterpRRNtNtCsdGrGZaRBwMb_3syn2ty4TypeENtNtB7_9to_tokens8ToTokens9to_tokensCssR9xeAO3IU_12serde_derive, symObjAddr: 0x8600, symBinAddr: 0x70780, symSize: 0x30 }
  - { offset: 0xD3288, size: 0x8, addend: 0x0, symName: __RNvXs5_NtCs9OU1sGv5X54_5quote9___privateINtB5_9RepInterpRRNtNtCsdGrGZaRBwMb_3syn4expr6MemberENtNtB7_9to_tokens8ToTokens9to_tokensCssR9xeAO3IU_12serde_derive, symObjAddr: 0x8630, symBinAddr: 0x707B0, symSize: 0x30 }
  - { offset: 0xD32CD, size: 0x8, addend: 0x0, symName: __RNvXs7_NtCs9OU1sGv5X54_5quote9___privateINtB5_20IdentFragmentAdapterRjENtNtCsieiGu2EXtoJ_4core3fmt7Display3fmtCssR9xeAO3IU_12serde_derive, symObjAddr: 0x8730, symBinAddr: 0x708B0, symSize: 0x30 }
  - { offset: 0xD3319, size: 0x8, addend: 0x0, symName: __RNvYINtNtCs9OU1sGv5X54_5quote9___private11HasIteratorKb1_EINtB5_16CheckHasIteratorKBQ_E5checkCssR9xeAO3IU_12serde_derive, symObjAddr: 0xA1C0, symBinAddr: 0x72340, symSize: 0x10 }
  - { offset: 0xD3544, size: 0x8, addend: 0x0, symName: __RNvXs3_NtCs9OU1sGv5X54_5quote9to_tokensINtNtCsieiGu2EXtoJ_4core6option6OptionNtCsaKzlTDPUHDb_11proc_macro211TokenStreamENtB5_8ToTokens9to_tokensCssR9xeAO3IU_12serde_derive, symObjAddr: 0x8290, symBinAddr: 0x70410, symSize: 0x70 }
  - { offset: 0xD35A0, size: 0x8, addend: 0x0, symName: __RNvXs3_NtCs9OU1sGv5X54_5quote9to_tokensINtNtCsieiGu2EXtoJ_4core6option6OptionNtNtCssR9xeAO3IU_12serde_derive8fragment5StmtsENtB5_8ToTokens9to_tokensB1h_, symObjAddr: 0x8300, symBinAddr: 0x70480, symSize: 0x60 }
  - { offset: 0xD35FC, size: 0x8, addend: 0x0, symName: __RNvXs3_NtCs9OU1sGv5X54_5quote9to_tokensINtNtCsieiGu2EXtoJ_4core6option6OptionRNtNtCsdGrGZaRBwMb_3syn8generics11WhereClauseENtB5_8ToTokens9to_tokensCssR9xeAO3IU_12serde_derive, symObjAddr: 0x8360, symBinAddr: 0x704E0, symSize: 0x60 }
  - { offset: 0xD365E, size: 0x8, addend: 0x0, symName: __RNvYRNtNtCsdGrGZaRBwMb_3syn8lifetime8LifetimeNtNtCs9OU1sGv5X54_5quote9to_tokens8ToTokens15to_token_streamCssR9xeAO3IU_12serde_derive, symObjAddr: 0xACB0, symBinAddr: 0x72E30, symSize: 0x90 }
  - { offset: 0xD36A8, size: 0x8, addend: 0x0, symName: __RNvYRNtNtCsdGrGZaRBwMb_3syn8lifetime8LifetimeNtNtCs9OU1sGv5X54_5quote9to_tokens8ToTokens17into_token_streamCssR9xeAO3IU_12serde_derive, symObjAddr: 0xAD40, symBinAddr: 0x72EC0, symSize: 0x50 }
  - { offset: 0xD4517, size: 0x8, addend: 0x0, symName: __RNvMNtCsieiGu2EXtoJ_4core6optionINtB2_6OptionINtNtCslJiobkLta79_5alloc3vec3VecNtNtCsdGrGZaRBwMb_3syn5error5ErrorEE4takeCssR9xeAO3IU_12serde_derive, symObjAddr: 0x4F30, symBinAddr: 0x6D0B0, symSize: 0x50 }
  - { offset: 0xD456E, size: 0x8, addend: 0x0, symName: __RNvMNtCsieiGu2EXtoJ_4core6optionINtB2_6OptionINtNtCslJiobkLta79_5alloc3vec3VecNtNtCsdGrGZaRBwMb_3syn5error5ErrorEE6as_mutCssR9xeAO3IU_12serde_derive, symObjAddr: 0x4F80, symBinAddr: 0x6D100, symSize: 0x50 }
  - { offset: 0xD45C5, size: 0x8, addend: 0x0, symName: __RNvMNtCsieiGu2EXtoJ_4core6optionINtB2_6OptionINtNtCslJiobkLta79_5alloc3vec3VecNtNtCsdGrGZaRBwMb_3syn5error5ErrorEE7is_someCssR9xeAO3IU_12serde_derive, symObjAddr: 0x4FD0, symBinAddr: 0x6D150, symSize: 0x30 }
  - { offset: 0xD45FE, size: 0x8, addend: 0x0, symName: __RNvMNtCsieiGu2EXtoJ_4core6optionINtB2_6OptionINtNtCslJiobkLta79_5alloc3vec3VecNtNtCsdGrGZaRBwMb_3syn8generics14WherePredicateEE6as_refCssR9xeAO3IU_12serde_derive, symObjAddr: 0x5000, symBinAddr: 0x6D180, symSize: 0x50 }
  - { offset: 0xD4648, size: 0x8, addend: 0x0, symName: __RNvMNtCsieiGu2EXtoJ_4core6optionINtB2_6OptionINtNtCslJiobkLta79_5alloc3vec3VecNtNtCsdGrGZaRBwMb_3syn8generics14WherePredicateEE7is_someCssR9xeAO3IU_12serde_derive, symObjAddr: 0x5050, symBinAddr: 0x6D1D0, symSize: 0x30 }
  - { offset: 0xD4681, size: 0x8, addend: 0x0, symName: __RNvMNtCsieiGu2EXtoJ_4core6optionINtB2_6OptionINtNtCslJiobkLta79_5alloc5boxed3BoxNtNtCsdGrGZaRBwMb_3syn2ty4TypeEE6as_mutCssR9xeAO3IU_12serde_derive, symObjAddr: 0x5080, symBinAddr: 0x6D200, symSize: 0x50 }
  - { offset: 0xD46D8, size: 0x8, addend: 0x0, symName: __RNvMNtCsieiGu2EXtoJ_4core6optionINtB2_6OptionINtNtCslJiobkLta79_5alloc5boxed3BoxNtNtCsdGrGZaRBwMb_3syn2ty9BareFnArgEE6as_mutCssR9xeAO3IU_12serde_derive, symObjAddr: 0x50D0, symBinAddr: 0x6D250, symSize: 0x50 }
  - { offset: 0xD472F, size: 0x8, addend: 0x0, symName: __RNvMNtCsieiGu2EXtoJ_4core6optionINtB2_6OptionINtNtCslJiobkLta79_5alloc5boxed3BoxNtNtCsdGrGZaRBwMb_3syn4data7VariantEE6as_mutCssR9xeAO3IU_12serde_derive, symObjAddr: 0x5120, symBinAddr: 0x6D2A0, symSize: 0x50 }
  - { offset: 0xD4786, size: 0x8, addend: 0x0, symName: __RNvMNtCsieiGu2EXtoJ_4core6optionINtB2_6OptionINtNtCslJiobkLta79_5alloc5boxed3BoxNtNtCsdGrGZaRBwMb_3syn4expr4ExprEE6as_mutCssR9xeAO3IU_12serde_derive, symObjAddr: 0x5170, symBinAddr: 0x6D2F0, symSize: 0x50 }
  - { offset: 0xD47DD, size: 0x8, addend: 0x0, symName: __RNvMNtCsieiGu2EXtoJ_4core6optionINtB2_6OptionINtNtCslJiobkLta79_5alloc5boxed3BoxNtNtCsdGrGZaRBwMb_3syn4path15GenericArgumentEE6as_mutCssR9xeAO3IU_12serde_derive, symObjAddr: 0x51C0, symBinAddr: 0x6D340, symSize: 0x50 }
  - { offset: 0xD4834, size: 0x8, addend: 0x0, symName: __RNvMNtCsieiGu2EXtoJ_4core6optionINtB2_6OptionINtNtCslJiobkLta79_5alloc5boxed3BoxNtNtCsdGrGZaRBwMb_3syn8generics14TypeParamBoundEE6as_mutCssR9xeAO3IU_12serde_derive, symObjAddr: 0x5210, symBinAddr: 0x6D390, symSize: 0x50 }
  - { offset: 0xD488B, size: 0x8, addend: 0x0, symName: __RNvMNtCsieiGu2EXtoJ_4core6optionINtB2_6OptionINtNtCslJiobkLta79_5alloc5boxed3BoxNtNtCsdGrGZaRBwMb_3syn8generics14WherePredicateEE6as_mutCssR9xeAO3IU_12serde_derive, symObjAddr: 0x5260, symBinAddr: 0x6D3E0, symSize: 0x50 }
  - { offset: 0xD4945, size: 0x8, addend: 0x0, symName: __RNvMNtCsieiGu2EXtoJ_4core6optionINtB2_6OptionINtNtNtB4_5slice4iter4IterNtNtNtCssR9xeAO3IU_12serde_derive9internals3ast5FieldEE6insertB1d_, symObjAddr: 0x52B0, symBinAddr: 0x6D430, symSize: 0x80 }
  - { offset: 0xD49DB, size: 0x8, addend: 0x0, symName: __RNvMNtCsieiGu2EXtoJ_4core6optionINtB2_6OptionINtNtNtNtCslJiobkLta79_5alloc11collections5btree3set8BTreeSetNtNtCsdGrGZaRBwMb_3syn8lifetime8LifetimeEE17unwrap_or_defaultCssR9xeAO3IU_12serde_derive, symObjAddr: 0x5330, symBinAddr: 0x6D4B0, symSize: 0x70 }
  - { offset: 0xD4A33, size: 0x8, addend: 0x0, symName: __RNvMNtCsieiGu2EXtoJ_4core6optionINtB2_6OptionINtNtNtNtCslJiobkLta79_5alloc11collections5btree3set8BTreeSetNtNtCsdGrGZaRBwMb_3syn8lifetime8LifetimeEE7is_someCssR9xeAO3IU_12serde_derive, symObjAddr: 0x53A0, symBinAddr: 0x6D520, symSize: 0x20 }
  - { offset: 0xD4A6C, size: 0x8, addend: 0x0, symName: __RNvMNtCsieiGu2EXtoJ_4core6optionINtB2_6OptionNtCsaKzlTDPUHDb_11proc_macro211TokenStreamE6as_refCssR9xeAO3IU_12serde_derive, symObjAddr: 0x53C0, symBinAddr: 0x6D540, symSize: 0x50 }
  - { offset: 0xD4AB6, size: 0x8, addend: 0x0, symName: __RNvMNtCsieiGu2EXtoJ_4core6optionINtB2_6OptionNtCsaKzlTDPUHDb_11proc_macro211TokenStreamE7is_someCssR9xeAO3IU_12serde_derive, symObjAddr: 0x5410, symBinAddr: 0x6D590, symSize: 0x30 }
  - { offset: 0xD4AE2, size: 0x8, addend: 0x0, symName: __RNvMNtCsieiGu2EXtoJ_4core6optionINtB2_6OptionNtCsaKzlTDPUHDb_11proc_macro24SpanE2orCssR9xeAO3IU_12serde_derive, symObjAddr: 0x5440, symBinAddr: 0x6D5C0, symSize: 0x60 }
  - { offset: 0xD4B48, size: 0x8, addend: 0x0, symName: __RNvMNtCsieiGu2EXtoJ_4core6optionINtB2_6OptionNtNtCsdGrGZaRBwMb_3syn2ty4TypeE6as_refCssR9xeAO3IU_12serde_derive, symObjAddr: 0x54A0, symBinAddr: 0x6D620, symSize: 0x40 }
  - { offset: 0xD4B92, size: 0x8, addend: 0x0, symName: __RNvMNtCsieiGu2EXtoJ_4core6optionINtB2_6OptionNtNtCsdGrGZaRBwMb_3syn2ty4TypeE7is_someCssR9xeAO3IU_12serde_derive, symObjAddr: 0x54E0, symBinAddr: 0x6D660, symSize: 0x30 }
  - { offset: 0xD4BCB, size: 0x8, addend: 0x0, symName: __RNvMNtCsieiGu2EXtoJ_4core6optionINtB2_6OptionNtNtCsdGrGZaRBwMb_3syn3lit6LitStrE6as_refCssR9xeAO3IU_12serde_derive, symObjAddr: 0x5510, symBinAddr: 0x6D690, symSize: 0x50 }
  - { offset: 0xD4C22, size: 0x8, addend: 0x0, symName: __RNvMNtCsieiGu2EXtoJ_4core6optionINtB2_6OptionNtNtCsdGrGZaRBwMb_3syn4expr8ExprPathE6as_refCssR9xeAO3IU_12serde_derive, symObjAddr: 0x5560, symBinAddr: 0x6D6E0, symSize: 0x50 }
  - { offset: 0xD4C88, size: 0x8, addend: 0x0, symName: __RNvMNtCsieiGu2EXtoJ_4core6optionINtB2_6OptionNtNtCsdGrGZaRBwMb_3syn4expr8ExprPathE7is_noneCssR9xeAO3IU_12serde_derive, symObjAddr: 0x55B0, symBinAddr: 0x6D730, symSize: 0x30 }
  - { offset: 0xD4CD2, size: 0x8, addend: 0x0, symName: __RNvMNtCsieiGu2EXtoJ_4core6optionINtB2_6OptionNtNtCsdGrGZaRBwMb_3syn4expr8ExprPathE7is_someCssR9xeAO3IU_12serde_derive, symObjAddr: 0x55E0, symBinAddr: 0x6D760, symSize: 0x30 }
  - { offset: 0xD4D0B, size: 0x8, addend: 0x0, symName: __RNvMNtCsieiGu2EXtoJ_4core6optionINtB2_6OptionNtNtCsdGrGZaRBwMb_3syn4path4PathE6as_refCssR9xeAO3IU_12serde_derive, symObjAddr: 0x5610, symBinAddr: 0x6D790, symSize: 0x50 }
  - { offset: 0xD4D55, size: 0x8, addend: 0x0, symName: __RNvMNtCsieiGu2EXtoJ_4core6optionINtB2_6OptionNtNtCsdGrGZaRBwMb_3syn4path4PathE7is_someCssR9xeAO3IU_12serde_derive, symObjAddr: 0x5660, symBinAddr: 0x6D7E0, symSize: 0x30 }
  - { offset: 0xD4D8E, size: 0x8, addend: 0x0, symName: __RNvMNtCsieiGu2EXtoJ_4core6optionINtB2_6OptionNtNtCsdGrGZaRBwMb_3syn8generics13LifetimeParamE7is_someCssR9xeAO3IU_12serde_derive, symObjAddr: 0x5690, symBinAddr: 0x6D810, symSize: 0x30 }
  - { offset: 0xD4DF2, size: 0x8, addend: 0x0, symName: __RNvMNtCsieiGu2EXtoJ_4core6optionINtB2_6OptionNtNtCsdGrGZaRBwMb_3syn8lifetime8LifetimeE4iterCssR9xeAO3IU_12serde_derive, symObjAddr: 0x56C0, symBinAddr: 0x6D840, symSize: 0x40 }
  - { offset: 0xD4E63, size: 0x8, addend: 0x0, symName: __RNvMNtCsieiGu2EXtoJ_4core6optionINtB2_6OptionNtNtCslJiobkLta79_5alloc6string6StringE6as_refCssR9xeAO3IU_12serde_derive, symObjAddr: 0x5700, symBinAddr: 0x6D880, symSize: 0x50 }
  - { offset: 0xD4EAD, size: 0x8, addend: 0x0, symName: __RNvMNtCsieiGu2EXtoJ_4core6optionINtB2_6OptionNtNtCslJiobkLta79_5alloc6string6StringE7is_someCssR9xeAO3IU_12serde_derive, symObjAddr: 0x5750, symBinAddr: 0x6D8D0, symSize: 0x30 }
  - { offset: 0xD4EE6, size: 0x8, addend: 0x0, symName: __RNvMNtCsieiGu2EXtoJ_4core6optionINtB2_6OptionNtNtNtCssR9xeAO3IU_12serde_derive9internals4attr15BorrowAttributeE6as_refBN_, symObjAddr: 0x5780, symBinAddr: 0x6D900, symSize: 0x40 }
  - { offset: 0xD4F30, size: 0x8, addend: 0x0, symName: __RNvMNtCsieiGu2EXtoJ_4core6optionINtB2_6OptionNtNtNtCssR9xeAO3IU_12serde_derive9internals4attr15BorrowAttributeE7is_someBN_, symObjAddr: 0x57C0, symBinAddr: 0x6D940, symSize: 0x30 }
  - { offset: 0xD4F85, size: 0x8, addend: 0x0, symName: __RNvMNtCsieiGu2EXtoJ_4core6optionINtB2_6OptionNtNtNtCssR9xeAO3IU_12serde_derive9internals4attr7DefaultE7is_noneBN_, symObjAddr: 0x57F0, symBinAddr: 0x6D970, symSize: 0x30 }
  - { offset: 0xD4FCF, size: 0x8, addend: 0x0, symName: __RNvMNtCsieiGu2EXtoJ_4core6optionINtB2_6OptionNtNtNtCssR9xeAO3IU_12serde_derive9internals4attr7DefaultE7is_someBN_, symObjAddr: 0x5820, symBinAddr: 0x6D9A0, symSize: 0x30 }
  - { offset: 0xD4FFB, size: 0x8, addend: 0x0, symName: __RNvMNtCsieiGu2EXtoJ_4core6optionINtB2_6OptionNtNtNtCssR9xeAO3IU_12serde_derive9internals4attr7DefaultE9unwrap_orBN_, symObjAddr: 0x5850, symBinAddr: 0x6D9D0, symSize: 0xA0 }
  - { offset: 0xD5064, size: 0x8, addend: 0x0, symName: __RNvMNtCsieiGu2EXtoJ_4core6optionINtB2_6OptionNtNtNtCssR9xeAO3IU_12serde_derive9internals4case10RenameRuleE7is_someBN_, symObjAddr: 0x58F0, symBinAddr: 0x6DA70, symSize: 0x30 }
  - { offset: 0xD5090, size: 0x8, addend: 0x0, symName: __RNvMNtCsieiGu2EXtoJ_4core6optionINtB2_6OptionNtNtNtCssR9xeAO3IU_12serde_derive9internals4case10RenameRuleE9unwrap_orBN_, symObjAddr: 0x5920, symBinAddr: 0x6DAA0, symSize: 0x40 }
  - { offset: 0xD5112, size: 0x8, addend: 0x0, symName: __RNvMNtCsieiGu2EXtoJ_4core6optionINtB2_6OptionNtNtNtCssR9xeAO3IU_12serde_derive9internals4name4NameE7is_noneBN_, symObjAddr: 0x5960, symBinAddr: 0x6DAE0, symSize: 0x30 }
  - { offset: 0xD515C, size: 0x8, addend: 0x0, symName: __RNvMNtCsieiGu2EXtoJ_4core6optionINtB2_6OptionNtNtNtCssR9xeAO3IU_12serde_derive9internals4name4NameE7is_someBN_, symObjAddr: 0x5990, symBinAddr: 0x6DB10, symSize: 0x30 }
  - { offset: 0xD5188, size: 0x8, addend: 0x0, symName: __RNvMNtCsieiGu2EXtoJ_4core6optionINtB2_6OptionNtNtNtCssR9xeAO3IU_12serde_derive9internals4name4NameE9unwrap_orBN_, symObjAddr: 0x59C0, symBinAddr: 0x6DB40, symSize: 0xC0 }
  - { offset: 0xD51FD, size: 0x8, addend: 0x0, symName: __RNvMNtCsieiGu2EXtoJ_4core6optionINtB2_6OptionQNtNtNtCssR9xeAO3IU_12serde_derive9internals3ast5FieldE7is_someBO_, symObjAddr: 0x5A80, symBinAddr: 0x6DC00, symSize: 0x30 }
  - { offset: 0xD5229, size: 0x8, addend: 0x0, symName: __RNvMNtCsieiGu2EXtoJ_4core6optionINtB2_6OptionRNtCsaKzlTDPUHDb_11proc_macro211TokenStreamE9unwrap_orCssR9xeAO3IU_12serde_derive, symObjAddr: 0x5AB0, symBinAddr: 0x6DC30, symSize: 0x50 }
  - { offset: 0xD528F, size: 0x8, addend: 0x0, symName: __RNvMNtCsieiGu2EXtoJ_4core6optionINtB2_6OptionRNtNtCsdGrGZaRBwMb_3syn2ty4TypeE7is_someCssR9xeAO3IU_12serde_derive, symObjAddr: 0x5B00, symBinAddr: 0x6DC80, symSize: 0x30 }
  - { offset: 0xD52E4, size: 0x8, addend: 0x0, symName: __RNvMNtCsieiGu2EXtoJ_4core6optionINtB2_6OptionRNtNtCsdGrGZaRBwMb_3syn4expr8ExprPathE7is_noneCssR9xeAO3IU_12serde_derive, symObjAddr: 0x5B30, symBinAddr: 0x6DCB0, symSize: 0x30 }
  - { offset: 0xD532E, size: 0x8, addend: 0x0, symName: __RNvMNtCsieiGu2EXtoJ_4core6optionINtB2_6OptionRNtNtCsdGrGZaRBwMb_3syn4expr8ExprPathE7is_someCssR9xeAO3IU_12serde_derive, symObjAddr: 0x5B60, symBinAddr: 0x6DCE0, symSize: 0x30 }
  - { offset: 0xD5383, size: 0x8, addend: 0x0, symName: __RNvMNtCsieiGu2EXtoJ_4core6optionINtB2_6OptionRNtNtCsdGrGZaRBwMb_3syn4path4PathE7is_noneCssR9xeAO3IU_12serde_derive, symObjAddr: 0x5B90, symBinAddr: 0x6DD10, symSize: 0x30 }
  - { offset: 0xD53CD, size: 0x8, addend: 0x0, symName: __RNvMNtCsieiGu2EXtoJ_4core6optionINtB2_6OptionRNtNtCsdGrGZaRBwMb_3syn4path4PathE7is_someCssR9xeAO3IU_12serde_derive, symObjAddr: 0x5BC0, symBinAddr: 0x6DD40, symSize: 0x30 }
  - { offset: 0xD5413, size: 0x8, addend: 0x0, symName: __RNvMNtCsieiGu2EXtoJ_4core6optionINtB2_6OptionRRNtNtNtCssR9xeAO3IU_12serde_derive9internals3ast5FieldE7is_someBP_, symObjAddr: 0x5BF0, symBinAddr: 0x6DD70, symSize: 0x30 }
  - { offset: 0xD5468, size: 0x8, addend: 0x0, symName: __RNvMNtCsieiGu2EXtoJ_4core6optionINtB2_6OptionRSNtNtCsdGrGZaRBwMb_3syn8generics14WherePredicateE7is_noneCssR9xeAO3IU_12serde_derive, symObjAddr: 0x5C20, symBinAddr: 0x6DDA0, symSize: 0x30 }
  - { offset: 0xD54CC, size: 0x8, addend: 0x0, symName: __RNvMNtCsieiGu2EXtoJ_4core6optionINtB2_6OptionRTjRNtNtNtCssR9xeAO3IU_12serde_derive9internals3ast5FieldEE7is_someBR_, symObjAddr: 0x5C50, symBinAddr: 0x6DDD0, symSize: 0x30 }
  - { offset: 0xD54F8, size: 0x8, addend: 0x0, symName: __RNvMNtCsieiGu2EXtoJ_4core6optionINtB2_6OptionReE9unwrap_orCssR9xeAO3IU_12serde_derive, symObjAddr: 0x5C80, symBinAddr: 0x6DE00, symSize: 0x70 }
  - { offset: 0xD557A, size: 0x8, addend: 0x0, symName: __RNvMNtCsieiGu2EXtoJ_4core6optionINtB2_6OptionjE7is_noneCssR9xeAO3IU_12serde_derive, symObjAddr: 0x5CF0, symBinAddr: 0x6DE70, symSize: 0x20 }
  - { offset: 0xD55D1, size: 0x8, addend: 0x0, symName: __RNvMNtCsieiGu2EXtoJ_4core6optionINtB2_6OptionuE7is_someCssR9xeAO3IU_12serde_derive, symObjAddr: 0x5D10, symBinAddr: 0x6DE90, symSize: 0x20 }
  - { offset: 0xD564F, size: 0x8, addend: 0x0, symName: __RNvMs0_NtCslJiobkLta79_5alloc7raw_vecINtB5_6RawVecINtNtB7_3vec3VecNtNtCsdGrGZaRBwMb_3syn8generics14WherePredicateEE8grow_oneCssR9xeAO3IU_12serde_derive, symObjAddr: 0x5D30, symBinAddr: 0x6DEB0, symSize: 0x90 }
  - { offset: 0xD5701, size: 0x8, addend: 0x0, symName: __RNvMs0_NtCslJiobkLta79_5alloc7raw_vecINtB5_6RawVecNtCsaKzlTDPUHDb_11proc_macro211TokenStreamE8grow_oneCssR9xeAO3IU_12serde_derive, symObjAddr: 0x5DC0, symBinAddr: 0x6DF40, symSize: 0x90 }
  - { offset: 0xD57B3, size: 0x8, addend: 0x0, symName: __RNvMs0_NtCslJiobkLta79_5alloc7raw_vecINtB5_6RawVecNtNtCsdGrGZaRBwMb_3syn3lit6LitStrE8grow_oneCssR9xeAO3IU_12serde_derive, symObjAddr: 0x5E50, symBinAddr: 0x6DFD0, symSize: 0x90 }
  - { offset: 0xD5865, size: 0x8, addend: 0x0, symName: __RNvMs0_NtCslJiobkLta79_5alloc7raw_vecINtB5_6RawVecNtNtCsdGrGZaRBwMb_3syn5error5ErrorE8grow_oneCssR9xeAO3IU_12serde_derive, symObjAddr: 0x5EE0, symBinAddr: 0x6E060, symSize: 0x90 }
  - { offset: 0xD5917, size: 0x8, addend: 0x0, symName: __RNvMs0_NtCslJiobkLta79_5alloc7raw_vecINtB5_6RawVecNtNtCsdGrGZaRBwMb_3syn8generics12GenericParamE8grow_oneCssR9xeAO3IU_12serde_derive, symObjAddr: 0x5F70, symBinAddr: 0x6E0F0, symSize: 0x90 }
  - { offset: 0xD59C9, size: 0x8, addend: 0x0, symName: __RNvMs0_NtCslJiobkLta79_5alloc7raw_vecINtB5_6RawVecNtNtCsdGrGZaRBwMb_3syn8generics14WherePredicateE8grow_oneCssR9xeAO3IU_12serde_derive, symObjAddr: 0x6000, symBinAddr: 0x6E180, symSize: 0x90 }
  - { offset: 0xD5A7B, size: 0x8, addend: 0x0, symName: __RNvMs0_NtCslJiobkLta79_5alloc7raw_vecINtB5_6RawVecNtNtNtCssR9xeAO3IU_12serde_derive9internals4name4NameE8grow_oneBS_, symObjAddr: 0x6090, symBinAddr: 0x6E210, symSize: 0x90 }
  - { offset: 0xD5B2D, size: 0x8, addend: 0x0, symName: __RNvMs0_NtCslJiobkLta79_5alloc7raw_vecINtB5_6RawVecRNtNtCsdGrGZaRBwMb_3syn2ty8TypePathE8grow_oneCssR9xeAO3IU_12serde_derive, symObjAddr: 0x6120, symBinAddr: 0x6E2A0, symSize: 0x90 }
  - { offset: 0xD5BA7, size: 0x8, addend: 0x0, symName: __RNvMs3_NtCs9OU1sGv5X54_5quote9___privateINtB5_9RepInterpRNtCssR9xeAO3IU_12serde_derive7privateE4nextBV_, symObjAddr: 0x61B0, symBinAddr: 0x6E330, symSize: 0x20 }
  - { offset: 0xD5BEC, size: 0x8, addend: 0x0, symName: __RNvMs6_NtCs9OU1sGv5X54_5quote9___privateINtB5_20IdentFragmentAdapterRjE4spanCssR9xeAO3IU_12serde_derive, symObjAddr: 0x61D0, symBinAddr: 0x6E350, symSize: 0x20 }
  - { offset: 0xD5E15, size: 0x8, addend: 0x0, symName: __RNvMs6_NtNtNtNtCslJiobkLta79_5alloc11collections5btree3map5entryINtB5_11VacantEntryNtNtCsdGrGZaRBwMb_3syn8lifetime8LifetimeNtNtB9_7set_val9SetValZSTE12insert_entryCssR9xeAO3IU_12serde_derive, symObjAddr: 0x61F0, symBinAddr: 0x6E370, symSize: 0x370 }
  - { offset: 0xD62D7, size: 0x8, addend: 0x0, symName: __RNvMs6_NtNtNtNtCslJiobkLta79_5alloc11collections5btree3map5entryINtB5_11VacantEntryNtNtNtCssR9xeAO3IU_12serde_derive9internals4name4NameNtNtB9_7set_val9SetValZSTE12insert_entryB1p_, symObjAddr: 0x6560, symBinAddr: 0x6E6E0, symSize: 0x370 }
  - { offset: 0xD65CA, size: 0x8, addend: 0x0, symName: __RNvMs7_NtNtNtNtCslJiobkLta79_5alloc11collections5btree3map5entryINtB5_13OccupiedEntryNtNtCsdGrGZaRBwMb_3syn8lifetime8LifetimeNtNtB9_7set_val9SetValZSTE6insertCssR9xeAO3IU_12serde_derive, symObjAddr: 0x68D0, symBinAddr: 0x6EA50, symSize: 0x40 }
  - { offset: 0xD662D, size: 0x8, addend: 0x0, symName: __RNvMs7_NtNtNtNtCslJiobkLta79_5alloc11collections5btree3map5entryINtB5_13OccupiedEntryNtNtCsdGrGZaRBwMb_3syn8lifetime8LifetimeNtNtB9_7set_val9SetValZSTE8into_mutCssR9xeAO3IU_12serde_derive, symObjAddr: 0x6910, symBinAddr: 0x6EA90, symSize: 0x50 }
  - { offset: 0xD66A7, size: 0x8, addend: 0x0, symName: __RNvMs7_NtNtNtNtCslJiobkLta79_5alloc11collections5btree3map5entryINtB5_13OccupiedEntryNtNtNtCssR9xeAO3IU_12serde_derive9internals4name4NameNtNtB9_7set_val9SetValZSTE6insertB1r_, symObjAddr: 0x6960, symBinAddr: 0x6EAE0, symSize: 0x40 }
  - { offset: 0xD670A, size: 0x8, addend: 0x0, symName: __RNvMs7_NtNtNtNtCslJiobkLta79_5alloc11collections5btree3map5entryINtB5_13OccupiedEntryNtNtNtCssR9xeAO3IU_12serde_derive9internals4name4NameNtNtB9_7set_val9SetValZSTE8into_mutB1r_, symObjAddr: 0x69A0, symBinAddr: 0x6EB20, symSize: 0x50 }
  - { offset: 0xD67B0, size: 0x8, addend: 0x0, symName: __RNvMsi_NtNtNtCslJiobkLta79_5alloc11collections5btree3mapINtB5_8BTreeMapNtNtCsdGrGZaRBwMb_3syn8lifetime8LifetimeNtNtB7_7set_val9SetValZSTE5entryCssR9xeAO3IU_12serde_derive, symObjAddr: 0x69F0, symBinAddr: 0x6EB70, symSize: 0x3D0 }
  - { offset: 0xD68E8, size: 0x8, addend: 0x0, symName: __RNvMsi_NtNtNtCslJiobkLta79_5alloc11collections5btree3mapINtB5_8BTreeMapNtNtCsdGrGZaRBwMb_3syn8lifetime8LifetimeNtNtB7_7set_val9SetValZSTE6insertCssR9xeAO3IU_12serde_derive, symObjAddr: 0x6DC0, symBinAddr: 0x6EF40, symSize: 0x170 }
  - { offset: 0xD6A09, size: 0x8, addend: 0x0, symName: __RNvMsi_NtNtNtCslJiobkLta79_5alloc11collections5btree3mapINtB5_8BTreeMapNtNtNtCssR9xeAO3IU_12serde_derive9internals4name4NameNtNtB7_7set_val9SetValZSTE5entryB1d_, symObjAddr: 0x6F30, symBinAddr: 0x6F0B0, symSize: 0x3E0 }
  - { offset: 0xD6B41, size: 0x8, addend: 0x0, symName: __RNvMsi_NtNtNtCslJiobkLta79_5alloc11collections5btree3mapINtB5_8BTreeMapNtNtNtCssR9xeAO3IU_12serde_derive9internals4name4NameNtNtB7_7set_val9SetValZSTE6insertB1d_, symObjAddr: 0x7310, symBinAddr: 0x6F490, symSize: 0x170 }
  - { offset: 0xD6C26, size: 0x8, addend: 0x0, symName: __RNvMsx_NtNtNtCslJiobkLta79_5alloc11collections5btree3mapINtB5_8IntoIterNtNtCsdGrGZaRBwMb_3syn8lifetime8LifetimeNtNtB7_7set_val9SetValZSTE10dying_nextCssR9xeAO3IU_12serde_derive, symObjAddr: 0x7480, symBinAddr: 0x6F600, symSize: 0x90 }
  - { offset: 0xD6C71, size: 0x8, addend: 0x0, symName: __RNvMsx_NtNtNtCslJiobkLta79_5alloc11collections5btree3mapINtB5_8IntoIterNtNtNtCssR9xeAO3IU_12serde_derive9internals4name4NameNtNtB7_7set_val9SetValZSTE10dying_nextB1d_, symObjAddr: 0x7510, symBinAddr: 0x6F690, symSize: 0x90 }
  - { offset: 0xD7983, size: 0x8, addend: 0x0, symName: __RINvMNtCsdGrGZaRBwMb_3syn3litNtB3_6LitStr10parse_withNCNvNtNtCssR9xeAO3IU_12serde_derive9internals4attr24parse_lit_into_lifetimes0EBX_, symObjAddr: 0x0, symBinAddr: 0x72F10, symSize: 0x5D0 }
  - { offset: 0xD7EB7, size: 0x8, addend: 0x0, symName: __RINvXsg_CscKtU6MdFI5n_10proc_macroNtB6_11TokenStreamINtNtNtNtCsieiGu2EXtoJ_4core4iter6traits7collect12FromIteratorNtB6_9TokenTreeE9from_iterINtNtNtBV_8adapters3map3MapIB2f_NtNtCsaKzlTDPUHDb_11proc_macro212token_stream8IntoIterNCNvNtNtCssR9xeAO3IU_12serde_derive9internals6respan6respan0ENvNtB2O_3imp19into_compiler_tokenEEB3K_, symObjAddr: 0x4450, symBinAddr: 0x77100, symSize: 0x150 }
  - { offset: 0xD7F22, size: 0x8, addend: 0x0, symName: __RNCINvXsg_CscKtU6MdFI5n_10proc_macroNtB8_11TokenStreamINtNtNtNtCsieiGu2EXtoJ_4core4iter6traits7collect12FromIteratorNtB8_9TokenTreeE9from_iterINtNtNtBX_8adapters3map3MapIB2h_NtNtCsaKzlTDPUHDb_11proc_macro212token_stream8IntoIterNCNvNtNtCssR9xeAO3IU_12serde_derive9internals6respan6respan0ENvNtB2Q_3imp19into_compiler_tokenEE0B3M_, symObjAddr: 0x4B40, symBinAddr: 0x777F0, symSize: 0x20 }
  - { offset: 0xD7F6F, size: 0x8, addend: 0x0, symName: __RNvXs1e_CscKtU6MdFI5n_10proc_macroNtB6_5IdentNtNtCsieiGu2EXtoJ_4core5clone5Clone5cloneCssR9xeAO3IU_12serde_derive, symObjAddr: 0xF510, symBinAddr: 0x821C0, symSize: 0x40 }
  - { offset: 0xD7FA3, size: 0x8, addend: 0x0, symName: __RNvXsU_CscKtU6MdFI5n_10proc_macroNtB5_11TokenStreamNtNtCsieiGu2EXtoJ_4core5clone5Clone5cloneCssR9xeAO3IU_12serde_derive, symObjAddr: 0xFA90, symBinAddr: 0x82740, symSize: 0x50 }
  - { offset: 0xD8F7D, size: 0x8, addend: 0x0, symName: __RNvXs_NtNtCssR9xeAO3IU_12serde_derive9internals4ctxtNtB4_4CtxtNtNtNtCsieiGu2EXtoJ_4core3ops4drop4Drop4drop, symObjAddr: 0xFAE0, symBinAddr: 0x82790, symSize: 0xD0 }
  - { offset: 0xD907A, size: 0x8, addend: 0x0, symName: __RNCNvNtNtCssR9xeAO3IU_12serde_derive2de15enum_adjacently11deserialize0B7_, symObjAddr: 0x4B60, symBinAddr: 0x77810, symSize: 0x30 }
  - { offset: 0xD90C1, size: 0x8, addend: 0x0, symName: __RNCNvNtNtCssR9xeAO3IU_12serde_derive2de15enum_adjacently11deserializes0_0B7_, symObjAddr: 0x4B90, symBinAddr: 0x77840, symSize: 0x30 }
  - { offset: 0xD9108, size: 0x8, addend: 0x0, symName: __RNCNvNtNtCssR9xeAO3IU_12serde_derive2de15enum_adjacently11deserializes1_0B7_, symObjAddr: 0x4BC0, symBinAddr: 0x77870, symSize: 0x890 }
  - { offset: 0xD92E0, size: 0x8, addend: 0x0, symName: __RNCNvNtNtCssR9xeAO3IU_12serde_derive2de15enum_adjacently11deserializes_0B7_, symObjAddr: 0x5450, symBinAddr: 0x78100, symSize: 0x1D0 }
  - { offset: 0xD93D5, size: 0x8, addend: 0x0, symName: __RNvNtNtCssR9xeAO3IU_12serde_derive2de15enum_adjacently11deserialize, symObjAddr: 0x60B0, symBinAddr: 0x78D60, symSize: 0x9160 }
  - { offset: 0xDDBC2, size: 0x8, addend: 0x0, symName: __RNvXs1_NtNtNtCsieiGu2EXtoJ_4core3ops8function5implsQNCNvNtNtCssR9xeAO3IU_12serde_derive2de15enum_adjacently11deserialize0INtB7_5FnMutTRTjRNtNtNtBW_9internals3ast7VariantEEE8call_mutBW_, symObjAddr: 0xF4A0, symBinAddr: 0x82150, symSize: 0x30 }
  - { offset: 0xDDC11, size: 0x8, addend: 0x0, symName: __RNvXs1_NtNtNtCsieiGu2EXtoJ_4core3ops8function5implsQNCNvNtNtCssR9xeAO3IU_12serde_derive2de15enum_adjacently11deserializes1_0INtB7_5FnMutTTjRNtNtNtBW_9internals3ast7VariantEEE8call_mutBW_, symObjAddr: 0xF4D0, symBinAddr: 0x82180, symSize: 0x40 }
  - { offset: 0xDDCD3, size: 0x8, addend: 0x0, symName: __RNvXsI_NtNtCsieiGu2EXtoJ_4core3ops5rangeINtB5_5RangejENtNtB9_5clone5Clone5cloneCssR9xeAO3IU_12serde_derive, symObjAddr: 0xFA60, symBinAddr: 0x82710, symSize: 0x30 }
  - { offset: 0xDE004, size: 0x8, addend: 0x0, symName: __RNvXsr_NtCsieiGu2EXtoJ_4core3fmtuNtB5_5Debug3fmtCssR9xeAO3IU_12serde_derive, symObjAddr: 0xFE20, symBinAddr: 0x82AD0, symSize: 0x40 }
  - { offset: 0xDE3ED, size: 0x8, addend: 0x0, symName: __RNvXs0_NtNtNtCsieiGu2EXtoJ_4core4iter8adapters10filter_mapINtB5_9FilterMapINtNtB7_6filter6FilterINtNtB7_9enumerate9EnumerateINtNtNtBb_5slice4iter4IterNtNtNtCssR9xeAO3IU_12serde_derive9internals3ast7VariantEENCNvNtNtB2u_2de15enum_adjacently11deserializes0_0ENCB3l_s1_0ENtNtNtB9_6traits8iterator8Iterator4nextB2u_, symObjAddr: 0xF360, symBinAddr: 0x82010, symSize: 0x30 }
  - { offset: 0xDE434, size: 0x8, addend: 0x0, symName: __RNvXs0_NtNtNtCsieiGu2EXtoJ_4core4iter8adapters10filter_mapINtB5_9FilterMapINtNtB7_6filter6FilterINtNtB7_9enumerate9EnumerateINtNtNtBb_5slice4iter4IterNtNtNtCssR9xeAO3IU_12serde_derive9internals3ast7VariantEENCNvNtNtB2u_2de15enum_adjacently11deserializes0_0ENCB3l_s1_0ENtNtNtB9_6traits8iterator8Iterator9size_hintB2u_, symObjAddr: 0xF390, symBinAddr: 0x82040, symSize: 0x50 }
  - { offset: 0xDE498, size: 0x8, addend: 0x0, symName: __RNvXs0_NtNtNtCsieiGu2EXtoJ_4core4iter8adapters10filter_mapINtB5_9FilterMapINtNtCslJiobkLta79_5alloc5boxed3BoxDNtNtNtB9_6traits8iterator8Iteratorp4ItemRNtNtNtCssR9xeAO3IU_12serde_derive9internals3ast5FieldEL_ENCNvNtB2v_5bound33with_where_predicates_from_fields0EB1K_4nextB2v_, symObjAddr: 0xF3E0, symBinAddr: 0x82090, symSize: 0x20 }
  - { offset: 0xDE4DF, size: 0x8, addend: 0x0, symName: __RNvXs0_NtNtNtCsieiGu2EXtoJ_4core4iter8adapters10filter_mapINtB5_9FilterMapINtNtNtBb_5slice4iter4IterNtNtNtCssR9xeAO3IU_12serde_derive9internals3ast7VariantENCNvNtB1G_5bound35with_where_predicates_from_variants0ENtNtNtB9_6traits8iterator8Iterator4nextB1G_, symObjAddr: 0xF400, symBinAddr: 0x820B0, symSize: 0x20 }
  - { offset: 0xDE526, size: 0x8, addend: 0x0, symName: __RNvXs0_NtNtNtCsieiGu2EXtoJ_4core4iter8adapters10filter_mapINtB5_9FilterMapINtNtNtBb_5slice4iter4IterNtNtNtCssR9xeAO3IU_12serde_derive9internals3ast7VariantENCNvNtB1G_7pretend24pretend_fields_used_enum0ENtNtNtB9_6traits8iterator8Iterator4nextB1G_, symObjAddr: 0xF420, symBinAddr: 0x820D0, symSize: 0x30 }
  - { offset: 0xDE56D, size: 0x8, addend: 0x0, symName: __RNvXs0_NtNtNtCsieiGu2EXtoJ_4core4iter8adapters10filter_mapINtB5_9FilterMapINtNtNtBb_5slice4iter4IterNtNtNtCssR9xeAO3IU_12serde_derive9internals3ast7VariantENCNvNtB1G_7pretend24pretend_fields_used_enum0ENtNtNtB9_6traits8iterator8Iterator9size_hintB1G_, symObjAddr: 0xF450, symBinAddr: 0x82100, symSize: 0x50 }
  - { offset: 0xDE85F, size: 0x8, addend: 0x0, symName: __RNvXsh_NtNtNtCsieiGu2EXtoJ_4core4iter8adapters3zipINtNtNtBb_3ops5range5RangejENtB5_23SpecTrustedRandomAccess17try_get_uncheckedCssR9xeAO3IU_12serde_derive, symObjAddr: 0xFCA0, symBinAddr: 0x82950, symSize: 0x20 }
  - { offset: 0xDE8B1, size: 0x8, addend: 0x0, symName: __RNvXsh_NtNtNtCsieiGu2EXtoJ_4core4iter8adapters7step_byINtNtNtBb_3ops5range5RangejEINtB5_14SpecRangeSetupBQ_E5setupCssR9xeAO3IU_12serde_derive, symObjAddr: 0xFCC0, symBinAddr: 0x82970, symSize: 0x160 }
  - { offset: 0xDEA58, size: 0x8, addend: 0x0, symName: __RINvYINtNtNtCsieiGu2EXtoJ_4core3ops5range5RangejENtNtNtNtBa_4iter6traits8iterator8Iterator3mapNtCsaKzlTDPUHDb_11proc_macro25IdentFjEB1u_ECssR9xeAO3IU_12serde_derive, symObjAddr: 0x45A0, symBinAddr: 0x77250, symSize: 0x20 }
  - { offset: 0xDEAC5, size: 0x8, addend: 0x0, symName: __RINvYINtNtNtCsieiGu2EXtoJ_4core3ops5range5RangejENtNtNtNtBa_4iter6traits8iterator8Iterator3mapNtCsaKzlTDPUHDb_11proc_macro25IdentNCNCNvNtCssR9xeAO3IU_12serde_derive7pretend21pretend_variants_used00EB2b_, symObjAddr: 0x45C0, symBinAddr: 0x77270, symSize: 0x20 }
  - { offset: 0xDEB1D, size: 0x8, addend: 0x0, symName: __RINvYINtNtNtCsieiGu2EXtoJ_4core3ops5range5RangejENtNtNtNtBa_4iter6traits8iterator8Iterator3mapNtCsaKzlTDPUHDb_11proc_macro25IdentNCNvNtCssR9xeAO3IU_12serde_derive3ser17serialize_variant0EB29_, symObjAddr: 0x45E0, symBinAddr: 0x77290, symSize: 0x20 }
  - { offset: 0xDEB75, size: 0x8, addend: 0x0, symName: __RINvYINtNtNtCsieiGu2EXtoJ_4core3ops5range5RangejENtNtNtNtBa_4iter6traits8iterator8Iterator3mapNtNtCsdGrGZaRBwMb_3syn4expr6MemberNCNvNtCssR9xeAO3IU_12serde_derive2de25unwrap_to_variant_closures_0EB28_, symObjAddr: 0x4600, symBinAddr: 0x772B0, symSize: 0x20 }
  - { offset: 0xDEBCD, size: 0x8, addend: 0x0, symName: __RINvYINtNtNtCsieiGu2EXtoJ_4core3ops5range5RangejENtNtNtNtBa_4iter6traits8iterator8Iterator3mapNtNtCsdGrGZaRBwMb_3syn4expr6MemberNCNvNtCssR9xeAO3IU_12serde_derive3ser19wrap_serialize_with0EB28_, symObjAddr: 0x4620, symBinAddr: 0x772D0, symSize: 0x20 }
  - { offset: 0xDEC25, size: 0x8, addend: 0x0, symName: __RINvYINtNtNtCsieiGu2EXtoJ_4core3ops5range5RangejENtNtNtNtBa_4iter6traits8iterator8Iterator3mapNtNtCsdGrGZaRBwMb_3syn4expr6MemberNCNvNtCssR9xeAO3IU_12serde_derive3ser35serialize_adjacently_tagged_variants_0EB28_, symObjAddr: 0x4640, symBinAddr: 0x772F0, symSize: 0x20 }
  - { offset: 0xDEC7D, size: 0x8, addend: 0x0, symName: __RINvYINtNtNtCsieiGu2EXtoJ_4core3ops5range5RangejENtNtNtNtBa_4iter6traits8iterator8Iterator4folduNCINvNtNtBR_8adapters3map8map_foldjNtCsaKzlTDPUHDb_11proc_macro25IdentuNCNCNvNtCssR9xeAO3IU_12serde_derive7pretend21pretend_variants_used00NCINvNvBL_8for_each4callB25_NCINvMsi_NtCslJiobkLta79_5alloc3vecINtB4m_3VecB25_E14extend_trustedINtB1B_3MapB3_B2F_EE0E0E0EB2N_, symObjAddr: 0x4660, symBinAddr: 0x77310, symSize: 0xC0 }
  - { offset: 0xDED0D, size: 0x8, addend: 0x0, symName: __RINvYINtNtNtCsieiGu2EXtoJ_4core3ops5range5RangejENtNtNtNtBa_4iter6traits8iterator8Iterator4folduNCINvNtNtBR_8adapters3map8map_foldjNtNtCsdGrGZaRBwMb_3syn4expr6MemberuNCNvNtCssR9xeAO3IU_12serde_derive3ser35serialize_adjacently_tagged_variants_0NCINvNvBL_8for_each4callB25_NCINvMsi_NtCslJiobkLta79_5alloc3vecINtB4u_3VecB25_E14extend_trustedINtB1B_3MapB3_B2E_EE0E0E0EB2K_, symObjAddr: 0x4720, symBinAddr: 0x773D0, symSize: 0xC0 }
  - { offset: 0xDED9D, size: 0x8, addend: 0x0, symName: __RINvYINtNtNtCsieiGu2EXtoJ_4core3ops5range9RangeFromjENtNtNtNtBa_4iter6traits8iterator8Iterator3mapNtCsaKzlTDPUHDb_11proc_macro25IdentNCNCNvNtCssR9xeAO3IU_12serde_derive7pretend24pretend_fields_used_enum0s_0EB2f_, symObjAddr: 0x47E0, symBinAddr: 0x77490, symSize: 0x10 }
  - { offset: 0xDEDF5, size: 0x8, addend: 0x0, symName: __RINvYINtNtNtCsieiGu2EXtoJ_4core3ops5range9RangeFromjENtNtNtNtBa_4iter6traits8iterator8Iterator3mapNtCsaKzlTDPUHDb_11proc_macro25IdentNCNvNtCssR9xeAO3IU_12serde_derive7pretend26pretend_fields_used_structs_0EB2d_, symObjAddr: 0x47F0, symBinAddr: 0x774A0, symSize: 0x10 }
  - { offset: 0xDEE4D, size: 0x8, addend: 0x0, symName: __RINvYINtNtNtNtCsieiGu2EXtoJ_4core4iter8adapters10filter_map9FilterMapINtNtB8_6filter6FilterINtNtB8_9enumerate9EnumerateINtNtNtBc_5slice4iter4IterNtNtNtCssR9xeAO3IU_12serde_derive9internals3ast7VariantEENCNvNtNtB2p_2de15enum_adjacently11deserializes0_0ENCB3g_s1_0ENtNtNtBa_6traits8iterator8Iterator7collectINtNtCslJiobkLta79_5alloc3vec3VecNtCsaKzlTDPUHDb_11proc_macro211TokenStreamEEB2p_, symObjAddr: 0x4800, symBinAddr: 0x774B0, symSize: 0x90 }
  - { offset: 0xDEEE3, size: 0x8, addend: 0x0, symName: __RINvYINtNtNtNtCsieiGu2EXtoJ_4core4iter8adapters10filter_map9FilterMapINtNtCslJiobkLta79_5alloc5boxed3BoxDNtNtNtBa_6traits8iterator8Iteratorp4ItemRNtNtNtCssR9xeAO3IU_12serde_derive9internals3ast5FieldEL_ENCNvNtB2q_5bound33with_where_predicates_from_fields0EB1F_3mapINtNtB1a_3vec3VecNtNtCsdGrGZaRBwMb_3syn8generics14WherePredicateENvMNtB1a_5sliceSB4v_6to_vecEB2q_, symObjAddr: 0x4890, symBinAddr: 0x77540, symSize: 0x20 }
  - { offset: 0xDEF77, size: 0x8, addend: 0x0, symName: __RINvYINtNtNtNtCsieiGu2EXtoJ_4core4iter8adapters10filter_map9FilterMapINtNtCslJiobkLta79_5alloc5boxed3BoxDNtNtNtBa_6traits8iterator8Iteratorp4ItemRNtNtNtCssR9xeAO3IU_12serde_derive9internals3ast5FieldEL_ENCNvNtB2q_5bound33with_where_predicates_from_fields0EB1F_8flat_mapINtNtB1a_3vec3VecNtNtCsdGrGZaRBwMb_3syn8generics14WherePredicateENvMNtB1a_5sliceSB4A_6to_vecEB2q_, symObjAddr: 0x48B0, symBinAddr: 0x77560, symSize: 0x100 }
  - { offset: 0xDF049, size: 0x8, addend: 0x0, symName: __RINvYINtNtNtNtCsieiGu2EXtoJ_4core4iter8adapters10filter_map9FilterMapINtNtNtBc_5slice4iter4IterNtNtNtCssR9xeAO3IU_12serde_derive9internals3ast7VariantENCNvNtB1B_5bound35with_where_predicates_from_variants0ENtNtNtBa_6traits8iterator8Iterator3mapINtNtCslJiobkLta79_5alloc3vec3VecNtNtCsdGrGZaRBwMb_3syn8generics14WherePredicateENvMNtB3Z_5sliceSB4r_6to_vecEB1B_, symObjAddr: 0x49B0, symBinAddr: 0x77660, symSize: 0x20 }
  - { offset: 0xDF0DD, size: 0x8, addend: 0x0, symName: __RINvYINtNtNtNtCsieiGu2EXtoJ_4core4iter8adapters10filter_map9FilterMapINtNtNtBc_5slice4iter4IterNtNtNtCssR9xeAO3IU_12serde_derive9internals3ast7VariantENCNvNtB1B_5bound35with_where_predicates_from_variants0ENtNtNtBa_6traits8iterator8Iterator8flat_mapINtNtCslJiobkLta79_5alloc3vec3VecNtNtCsdGrGZaRBwMb_3syn8generics14WherePredicateENvMNtB44_5sliceSB4w_6to_vecEB1B_, symObjAddr: 0x49D0, symBinAddr: 0x77680, symSize: 0x100 }
  - { offset: 0xDF1AF, size: 0x8, addend: 0x0, symName: __RINvYINtNtNtNtCsieiGu2EXtoJ_4core4iter8adapters10filter_map9FilterMapINtNtNtBc_5slice4iter4IterNtNtNtCssR9xeAO3IU_12serde_derive9internals3ast7VariantENCNvNtB1B_7pretend24pretend_fields_used_enum0ENtNtNtBa_6traits8iterator8Iterator7collectINtNtCslJiobkLta79_5alloc3vec3VecNtCsaKzlTDPUHDb_11proc_macro211TokenStreamEEB1B_, symObjAddr: 0x4AD0, symBinAddr: 0x77780, symSize: 0x70 }
  - { offset: 0xDF283, size: 0x8, addend: 0x0, symName: __RNvXNtNtNtCsieiGu2EXtoJ_4core4iter6traits7collectINtNtNtB6_8adapters10filter_map9FilterMapINtNtBQ_6filter6FilterINtNtBQ_9enumerate9EnumerateINtNtNtB8_5slice4iter4IterNtNtNtCssR9xeAO3IU_12serde_derive9internals3ast7VariantEENCNvNtNtB2K_2de15enum_adjacently11deserializes0_0ENCB3B_s1_0ENtB2_12IntoIterator9into_iterB2K_, symObjAddr: 0xF2E0, symBinAddr: 0x81F90, symSize: 0x30 }
  - { offset: 0xDF2BB, size: 0x8, addend: 0x0, symName: __RNvXNtNtNtCsieiGu2EXtoJ_4core4iter6traits7collectINtNtNtB6_8adapters10filter_map9FilterMapINtNtNtB8_5slice4iter4IterNtNtNtCssR9xeAO3IU_12serde_derive9internals3ast7VariantENCNvNtB1W_7pretend24pretend_fields_used_enum0ENtB2_12IntoIterator9into_iterB1W_, symObjAddr: 0xF310, symBinAddr: 0x81FC0, symSize: 0x20 }
  - { offset: 0xDF2FF, size: 0x8, addend: 0x0, symName: __RNvXs3_NtNtCsieiGu2EXtoJ_4core4iter5rangeINtNtNtB9_3ops5range5RangejENtB5_17RangeIteratorImpl9spec_nextCssR9xeAO3IU_12serde_derive, symObjAddr: 0xF550, symBinAddr: 0x82200, symSize: 0x80 }
  - { offset: 0xDF380, size: 0x8, addend: 0x0, symName: __RNvXs4_NtNtCsieiGu2EXtoJ_4core4iter5rangeINtNtNtB9_3ops5range5RangejENtNtNtB7_6traits8iterator8Iterator24___iterator_get_uncheckedCssR9xeAO3IU_12serde_derive, symObjAddr: 0xF5D0, symBinAddr: 0x82280, symSize: 0x30 }
  - { offset: 0xDF3E4, size: 0x8, addend: 0x0, symName: __RNvXs4_NtNtCsieiGu2EXtoJ_4core4iter5rangeINtNtNtB9_3ops5range5RangejENtNtNtB7_6traits8iterator8Iterator4nextCssR9xeAO3IU_12serde_derive, symObjAddr: 0xF600, symBinAddr: 0x822B0, symSize: 0x20 }
  - { offset: 0xDF41B, size: 0x8, addend: 0x0, symName: __RNvXs4_NtNtCsieiGu2EXtoJ_4core4iter5rangeINtNtNtB9_3ops5range5RangejENtNtNtB7_6traits8iterator8Iterator9size_hintCssR9xeAO3IU_12serde_derive, symObjAddr: 0xF620, symBinAddr: 0x822D0, symSize: 0x80 }
  - { offset: 0xDF4A5, size: 0x8, addend: 0x0, symName: __RNvXs8_NtNtCsieiGu2EXtoJ_4core4iter5rangeINtNtNtB9_3ops5range9RangeFromjENtNtNtB7_6traits8iterator8Iterator4nextCssR9xeAO3IU_12serde_derive, symObjAddr: 0xF850, symBinAddr: 0x82500, symSize: 0x50 }
  - { offset: 0xDF544, size: 0x8, addend: 0x0, symName: __RNvXsc_NtNtCsieiGu2EXtoJ_4core4iter5rangeINtNtNtB9_3ops5range14RangeInclusivejENtB5_26RangeInclusiveIteratorImpl9spec_nextCssR9xeAO3IU_12serde_derive, symObjAddr: 0xFBB0, symBinAddr: 0x82860, symSize: 0xD0 }
  - { offset: 0xDF645, size: 0x8, addend: 0x0, symName: __RNvXsd_NtNtCsieiGu2EXtoJ_4core4iter5rangeINtNtNtB9_3ops5range14RangeInclusivejENtNtNtB7_6traits8iterator8Iterator4nextCssR9xeAO3IU_12serde_derive, symObjAddr: 0xFC80, symBinAddr: 0x82930, symSize: 0x20 }
  - { offset: 0xDF788, size: 0x8, addend: 0x0, symName: __RNvMNtCsieiGu2EXtoJ_4core5sliceSh15copy_from_sliceCssR9xeAO3IU_12serde_derive, symObjAddr: 0x5620, symBinAddr: 0x782D0, symSize: 0xA0 }
  - { offset: 0xDF858, size: 0x8, addend: 0x0, symName: __RNvNvMNtCsieiGu2EXtoJ_4core5sliceSp18split_at_unchecked18precondition_checkCssR9xeAO3IU_12serde_derive, symObjAddr: 0xF210, symBinAddr: 0x81EC0, symSize: 0xA0 }
  - { offset: 0xDF902, size: 0x8, addend: 0x0, symName: __RNvXs7_NtNtCsieiGu2EXtoJ_4core5slice5indexNtNtNtB9_3ops5range9RangeFullINtB5_10SliceIndexSNtNtCsdGrGZaRBwMb_3syn8generics14WherePredicateE5indexCssR9xeAO3IU_12serde_derive, symObjAddr: 0xF6A0, symBinAddr: 0x82350, symSize: 0x20 }
  - { offset: 0xDF956, size: 0x8, addend: 0x0, symName: __RNvMNtNtCsieiGu2EXtoJ_4core4char7methodsc12is_uppercaseCssR9xeAO3IU_12serde_derive, symObjAddr: 0x56C0, symBinAddr: 0x78370, symSize: 0x50 }
  - { offset: 0xDF9B8, size: 0x8, addend: 0x0, symName: __RNvMNtNtCsieiGu2EXtoJ_4core4char7methodsc18to_ascii_lowercaseCssR9xeAO3IU_12serde_derive, symObjAddr: 0x5710, symBinAddr: 0x783C0, symSize: 0x50 }
  - { offset: 0xDFA38, size: 0x8, addend: 0x0, symName: __RNvMNtNtCsieiGu2EXtoJ_4core4char7methodsc18to_ascii_uppercaseCssR9xeAO3IU_12serde_derive, symObjAddr: 0x5760, symBinAddr: 0x78410, symSize: 0x50 }
  - { offset: 0xDFAED, size: 0x8, addend: 0x0, symName: __RNvNtNtCsieiGu2EXtoJ_4core4char7methods15encode_utf8_rawCssR9xeAO3IU_12serde_derive, symObjAddr: 0x5E90, symBinAddr: 0x78B40, symSize: 0xE0 }
  - { offset: 0xDFBED, size: 0x8, addend: 0x0, symName: __RNvNtNtCsieiGu2EXtoJ_4core4char7methods25encode_utf8_raw_uncheckedCssR9xeAO3IU_12serde_derive, symObjAddr: 0x5F70, symBinAddr: 0x78C20, symSize: 0x140 }
  - { offset: 0xDFF3C, size: 0x8, addend: 0x0, symName: __RNvXs8_NtNtCsieiGu2EXtoJ_4core3str6traitsINtNtNtB9_3ops5range7RangeTojEINtNtNtB9_5slice5index10SliceIndexeE3getCssR9xeAO3IU_12serde_derive, symObjAddr: 0xF6C0, symBinAddr: 0x82370, symSize: 0x110 }
  - { offset: 0xE0062, size: 0x8, addend: 0x0, symName: __RNvXs8_NtNtCsieiGu2EXtoJ_4core3str6traitsINtNtNtB9_3ops5range7RangeTojEINtNtNtB9_5slice5index10SliceIndexeE5indexCssR9xeAO3IU_12serde_derive, symObjAddr: 0xF7D0, symBinAddr: 0x82480, symSize: 0x80 }
  - { offset: 0xE00F5, size: 0x8, addend: 0x0, symName: __RNvXs9_NtNtCsieiGu2EXtoJ_4core3str6traitsINtNtNtB9_3ops5range9RangeFromjEINtNtNtB9_5slice5index10SliceIndexeE3getCssR9xeAO3IU_12serde_derive, symObjAddr: 0xF8A0, symBinAddr: 0x82550, symSize: 0x130 }
  - { offset: 0xE0271, size: 0x8, addend: 0x0, symName: __RNvXs9_NtNtCsieiGu2EXtoJ_4core3str6traitsINtNtNtB9_3ops5range9RangeFromjEINtNtNtB9_5slice5index10SliceIndexeE5indexCssR9xeAO3IU_12serde_derive, symObjAddr: 0xF9D0, symBinAddr: 0x82680, symSize: 0x90 }
  - { offset: 0xE17FC, size: 0x8, addend: 0x0, symName: __RNvXNvXNvMNtCslJiobkLta79_5alloc5sliceSp9to_vec_inpNtB5_10ConvertVec6to_vecINtB2_9DropGuardNtNtCsdGrGZaRBwMb_3syn8generics14WherePredicateNtNtBa_5alloc6GlobalENtNtNtCsieiGu2EXtoJ_4core3ops4drop4Drop4dropCssR9xeAO3IU_12serde_derive, symObjAddr: 0xF330, symBinAddr: 0x81FE0, symSize: 0x30 }
  - { offset: 0xE6B32, size: 0x8, addend: 0x0, symName: __RINvXNtNtNtNtCsHUR1vrdMJt_3std3sys12thread_local6native4lazyzNtB3_14DestroyedState13register_dtorINtNtCsieiGu2EXtoJ_4core4cell4CellTyyEEECssR9xeAO3IU_12serde_derive, symObjAddr: 0x4440, symBinAddr: 0x770F0, symSize: 0x10 }
  - { offset: 0xE6C18, size: 0x8, addend: 0x0, symName: __RINvMNtCsdGrGZaRBwMb_3syn3litNtB3_6LitStr10parse_withNCNvNtNtCssR9xeAO3IU_12serde_derive9internals4attr24parse_lit_into_lifetimes0EBX_, symObjAddr: 0x0, symBinAddr: 0x72F10, symSize: 0x5D0 }
  - { offset: 0xE7262, size: 0x8, addend: 0x0, symName: __RINvMNtCsdGrGZaRBwMb_3syn3litNtB3_6LitStr10parse_withNvMNtB5_10punctuatedINtBS_10PunctuatedNtNtB5_8generics14WherePredicateNtNtB5_5token5CommaE16parse_terminatedECssR9xeAO3IU_12serde_derive, symObjAddr: 0x5D0, symBinAddr: 0x734E0, symSize: 0x5F0 }
  - { offset: 0xE73AF, size: 0x8, addend: 0x0, symName: __RINvMNtCsdGrGZaRBwMb_3syn3litNtB3_6LitStr10parse_withNvYNtNtB5_2ty4TypeNtNtB5_5parse5Parse5parseECssR9xeAO3IU_12serde_derive, symObjAddr: 0xBC0, symBinAddr: 0x73AD0, symSize: 0x5A0 }
  - { offset: 0xE74FC, size: 0x8, addend: 0x0, symName: __RINvMNtCsdGrGZaRBwMb_3syn3litNtB3_6LitStr10parse_withNvYNtNtB5_4expr8ExprPathNtNtB5_5parse5Parse5parseECssR9xeAO3IU_12serde_derive, symObjAddr: 0x1160, symBinAddr: 0x74070, symSize: 0x5B0 }
  - { offset: 0xE7649, size: 0x8, addend: 0x0, symName: __RINvMNtCsdGrGZaRBwMb_3syn3litNtB3_6LitStr10parse_withNvYNtNtB5_4path4PathNtNtB5_5parse5Parse5parseECssR9xeAO3IU_12serde_derive, symObjAddr: 0x1710, symBinAddr: 0x74620, symSize: 0x600 }
  - { offset: 0xE777E, size: 0x8, addend: 0x0, symName: __RINvMNtCsdGrGZaRBwMb_3syn3litNtB3_6LitStr5parseNtNtB5_2ty4TypeECssR9xeAO3IU_12serde_derive, symObjAddr: 0x1D10, symBinAddr: 0x74C20, symSize: 0x30 }
  - { offset: 0xE77A9, size: 0x8, addend: 0x0, symName: __RINvMNtCsdGrGZaRBwMb_3syn3litNtB3_6LitStr5parseNtNtB5_4expr8ExprPathECssR9xeAO3IU_12serde_derive, symObjAddr: 0x1D40, symBinAddr: 0x74C50, symSize: 0x30 }
  - { offset: 0xE77D4, size: 0x8, addend: 0x0, symName: __RINvMNtCsdGrGZaRBwMb_3syn3litNtB3_6LitStr5parseNtNtB5_4path4PathECssR9xeAO3IU_12serde_derive, symObjAddr: 0x1D70, symBinAddr: 0x74C80, symSize: 0x30 }
  - { offset: 0xE7880, size: 0x8, addend: 0x0, symName: __RINvMNtNtCssR9xeAO3IU_12serde_derive9internals4ctxtNtB3_4Ctxt16error_spanned_byNtCsaKzlTDPUHDb_11proc_macro211TokenStreamNtNtCslJiobkLta79_5alloc6string6StringEB7_, symObjAddr: 0x1DA0, symBinAddr: 0x74CB0, symSize: 0x200 }
  - { offset: 0xE78EF, size: 0x8, addend: 0x0, symName: __RINvMNtNtCssR9xeAO3IU_12serde_derive9internals4ctxtNtB3_4Ctxt16error_spanned_byNtCsaKzlTDPUHDb_11proc_macro211TokenStreamReEB7_, symObjAddr: 0x1FA0, symBinAddr: 0x74EB0, symSize: 0x1E0 }
  - { offset: 0xE795D, size: 0x8, addend: 0x0, symName: __RINvMNtNtCssR9xeAO3IU_12serde_derive9internals4ctxtNtB3_4Ctxt16error_spanned_byNtNtCsdGrGZaRBwMb_3syn3lit6LitStrNtNtB1j_5error5ErrorEB7_, symObjAddr: 0x2180, symBinAddr: 0x75090, symSize: 0x1D0 }
  - { offset: 0xE79CC, size: 0x8, addend: 0x0, symName: __RINvMNtNtCssR9xeAO3IU_12serde_derive9internals4ctxtNtB3_4Ctxt16error_spanned_byNtNtCsdGrGZaRBwMb_3syn3lit6LitStrNtNtB5_4case10ParseErrorEB7_, symObjAddr: 0x2350, symBinAddr: 0x75260, symSize: 0x1B0 }
  - { offset: 0xE7A3A, size: 0x8, addend: 0x0, symName: __RINvMNtNtCssR9xeAO3IU_12serde_derive9internals4ctxtNtB3_4Ctxt16error_spanned_byNtNtCsdGrGZaRBwMb_3syn3lit6LitStrReEB7_, symObjAddr: 0x2500, symBinAddr: 0x75410, symSize: 0x1B0 }
  - { offset: 0xE7AA8, size: 0x8, addend: 0x0, symName: __RINvMNtNtCssR9xeAO3IU_12serde_derive9internals4ctxtNtB3_4Ctxt16error_spanned_byNtNtCsdGrGZaRBwMb_3syn4expr4ExprNtNtCslJiobkLta79_5alloc6string6StringEB7_, symObjAddr: 0x26B0, symBinAddr: 0x755C0, symSize: 0x1F0 }
  - { offset: 0xE7B24, size: 0x8, addend: 0x0, symName: __RINvMNtNtCssR9xeAO3IU_12serde_derive9internals4ctxtNtB3_4Ctxt16error_spanned_byRNtCsaKzlTDPUHDb_11proc_macro25IdentReEB7_, symObjAddr: 0x28A0, symBinAddr: 0x757B0, symSize: 0x1B0 }
  - { offset: 0xE7B9E, size: 0x8, addend: 0x0, symName: __RINvMNtNtCssR9xeAO3IU_12serde_derive9internals4ctxtNtB3_4Ctxt16error_spanned_byRNtNtCsdGrGZaRBwMb_3syn2ty4TypeNtNtCslJiobkLta79_5alloc6string6StringEB7_, symObjAddr: 0x2A50, symBinAddr: 0x75960, symSize: 0x1C0 }
  - { offset: 0xE7C0C, size: 0x8, addend: 0x0, symName: __RINvMNtNtCssR9xeAO3IU_12serde_derive9internals4ctxtNtB3_4Ctxt16error_spanned_byRNtNtCsdGrGZaRBwMb_3syn3lit6LitStrNtNtCslJiobkLta79_5alloc6string6StringEB7_, symObjAddr: 0x2C10, symBinAddr: 0x75B20, symSize: 0x1C0 }
  - { offset: 0xE7C87, size: 0x8, addend: 0x0, symName: __RINvMNtNtCssR9xeAO3IU_12serde_derive9internals4ctxtNtB3_4Ctxt16error_spanned_byRNtNtCsdGrGZaRBwMb_3syn4data5FieldNtNtCslJiobkLta79_5alloc6string6StringEB7_, symObjAddr: 0x2DD0, symBinAddr: 0x75CE0, symSize: 0x1C0 }
  - { offset: 0xE7CF5, size: 0x8, addend: 0x0, symName: __RINvMNtNtCssR9xeAO3IU_12serde_derive9internals4ctxtNtB3_4Ctxt16error_spanned_byRNtNtCsdGrGZaRBwMb_3syn4data5FieldReEB7_, symObjAddr: 0x2F90, symBinAddr: 0x75EA0, symSize: 0x1B0 }
  - { offset: 0xE7D6F, size: 0x8, addend: 0x0, symName: __RINvMNtNtCssR9xeAO3IU_12serde_derive9internals4ctxtNtB3_4Ctxt16error_spanned_byRNtNtCsdGrGZaRBwMb_3syn4data6FieldsReEB7_, symObjAddr: 0x3140, symBinAddr: 0x76050, symSize: 0x1B0 }
  - { offset: 0xE7DE9, size: 0x8, addend: 0x0, symName: __RINvMNtNtCssR9xeAO3IU_12serde_derive9internals4ctxtNtB3_4Ctxt16error_spanned_byRNtNtCsdGrGZaRBwMb_3syn4data7VariantNtNtCslJiobkLta79_5alloc6string6StringEB7_, symObjAddr: 0x32F0, symBinAddr: 0x76200, symSize: 0x1C0 }
  - { offset: 0xE7E57, size: 0x8, addend: 0x0, symName: __RINvMNtNtCssR9xeAO3IU_12serde_derive9internals4ctxtNtB3_4Ctxt16error_spanned_byRNtNtCsdGrGZaRBwMb_3syn4data7VariantReEB7_, symObjAddr: 0x34B0, symBinAddr: 0x763C0, symSize: 0x1B0 }
  - { offset: 0xE7ED1, size: 0x8, addend: 0x0, symName: __RINvMNtNtCssR9xeAO3IU_12serde_derive9internals4ctxtNtB3_4Ctxt16error_spanned_byRNtNtCsdGrGZaRBwMb_3syn4path4PathReEB7_, symObjAddr: 0x3660, symBinAddr: 0x76570, symSize: 0x1B0 }
  - { offset: 0xE7F4B, size: 0x8, addend: 0x0, symName: __RINvMNtNtCssR9xeAO3IU_12serde_derive9internals4ctxtNtB3_4Ctxt16error_spanned_byRNtNtCsdGrGZaRBwMb_3syn5token5UnionReEB7_, symObjAddr: 0x3810, symBinAddr: 0x76720, symSize: 0x1B0 }
  - { offset: 0xE7FC5, size: 0x8, addend: 0x0, symName: __RINvMNtNtCssR9xeAO3IU_12serde_derive9internals4ctxtNtB3_4Ctxt16error_spanned_byRNtNtCsdGrGZaRBwMb_3syn5token6StructReEB7_, symObjAddr: 0x39C0, symBinAddr: 0x768D0, symSize: 0x1B0 }
  - { offset: 0xE803F, size: 0x8, addend: 0x0, symName: __RINvMNtNtCssR9xeAO3IU_12serde_derive9internals4ctxtNtB3_4Ctxt16error_spanned_byRNtNtCsdGrGZaRBwMb_3syn6derive11DeriveInputNtNtCslJiobkLta79_5alloc6string6StringEB7_, symObjAddr: 0x3B70, symBinAddr: 0x76A80, symSize: 0x1C0 }
  - { offset: 0xE80AD, size: 0x8, addend: 0x0, symName: __RINvMNtNtCssR9xeAO3IU_12serde_derive9internals4ctxtNtB3_4Ctxt16error_spanned_byRNtNtCsdGrGZaRBwMb_3syn6derive11DeriveInputReEB7_, symObjAddr: 0x3D30, symBinAddr: 0x76C40, symSize: 0x1B0 }
  - { offset: 0xE8127, size: 0x8, addend: 0x0, symName: __RINvMNtNtCssR9xeAO3IU_12serde_derive9internals4ctxtNtB3_4Ctxt16error_spanned_byRNtNtCsdGrGZaRBwMb_3syn8lifetime8LifetimeReEB7_, symObjAddr: 0x3EE0, symBinAddr: 0x76DF0, symSize: 0x1B0 }
  - { offset: 0xE8251, size: 0x8, addend: 0x0, symName: __RINvMs0_NtNtNtNtCsHUR1vrdMJt_3std3sys12thread_local6native4lazyINtB6_7StorageINtNtCsieiGu2EXtoJ_4core4cell4CellTyyEEzE11get_or_initNvNvNvMNtNtBe_4hash6randomNtB2c_11RandomState3new4KEYS6___initECssR9xeAO3IU_12serde_derive, symObjAddr: 0x4090, symBinAddr: 0x76FA0, symSize: 0x90 }
  - { offset: 0xE8431, size: 0x8, addend: 0x0, symName: __RINvMs0_NtNtNtNtCsHUR1vrdMJt_3std3sys12thread_local6native4lazyINtB6_7StorageINtNtCsieiGu2EXtoJ_4core4cell4CellTyyEEzE16get_or_init_slowNvNvNvMNtNtBe_4hash6randomNtB2h_11RandomState3new4KEYS6___initECssR9xeAO3IU_12serde_derive, symObjAddr: 0x4120, symBinAddr: 0x2601F0, symSize: 0x260 }
  - { offset: 0xE8834, size: 0x8, addend: 0x0, symName: __RINvMs_NtNtCsieiGu2EXtoJ_4core3fmt2rtNtB7_9Arguments6new_v1Kj1_Kj0_ECssR9xeAO3IU_12serde_derive, symObjAddr: 0x4380, symBinAddr: 0x77030, symSize: 0x40 }
  - { offset: 0xE8898, size: 0x8, addend: 0x0, symName: __RINvMs_NtNtCsieiGu2EXtoJ_4core3fmt2rtNtB7_9Arguments6new_v1Kj3_KBW_ECssR9xeAO3IU_12serde_derive, symObjAddr: 0x43C0, symBinAddr: 0x77070, symSize: 0x40 }
  - { offset: 0xE88E2, size: 0x8, addend: 0x0, symName: __RINvMs_NtNtCsieiGu2EXtoJ_4core3fmt2rtNtB7_9Arguments6new_v1Kj3_Kj2_ECssR9xeAO3IU_12serde_derive, symObjAddr: 0x4400, symBinAddr: 0x770B0, symSize: 0x40 }
  - { offset: 0xE8C79, size: 0x8, addend: 0x0, symName: __RNvMNtNtCssR9xeAO3IU_12serde_derive9internals4ctxtNtB2_4Ctxt3new, symObjAddr: 0x57B0, symBinAddr: 0x78460, symSize: 0x80 }
  - { offset: 0xE8CB7, size: 0x8, addend: 0x0, symName: __RNvMNtNtCssR9xeAO3IU_12serde_derive9internals4ctxtNtB2_4Ctxt5check, symObjAddr: 0x5830, symBinAddr: 0x784E0, symSize: 0x3F0 }
  - { offset: 0xE8D6F, size: 0x8, addend: 0x0, symName: __RNvMNtNtCssR9xeAO3IU_12serde_derive9internals4ctxtNtB2_4Ctxt9syn_error, symObjAddr: 0x5C20, symBinAddr: 0x788D0, symSize: 0x150 }
  - { offset: 0xE8E13, size: 0x8, addend: 0x0, symName: __RNvMNtNtNtCsjK30CmJ87bX_9hashbrown7control5group4sse2NtB2_5Group44convert_special_to_empty_and_full_to_deletedCssR9xeAO3IU_12serde_derive, symObjAddr: 0x5D70, symBinAddr: 0x78A20, symSize: 0xD0 }
  - { offset: 0xE8E73, size: 0x8, addend: 0x0, symName: __RNvMs_NtNtCsieiGu2EXtoJ_4core3fmt2rtNtB6_9Arguments16new_v1_formattedCssR9xeAO3IU_12serde_derive, symObjAddr: 0x5E40, symBinAddr: 0x78AF0, symSize: 0x50 }
  - { offset: 0xE8ED2, size: 0x8, addend: 0x0, symName: __RNvXNtCs9OU1sGv5X54_5quote9to_tokensRNtNtCsdGrGZaRBwMb_3syn3lit6LitStrNtB2_8ToTokens9to_tokensCssR9xeAO3IU_12serde_derive, symObjAddr: 0xF2B0, symBinAddr: 0x81F60, symSize: 0x30 }
  - { offset: 0xE8F17, size: 0x8, addend: 0x0, symName: __RNvYNtNtCsdGrGZaRBwMb_3syn3lit6LitStrNtNtCs9OU1sGv5X54_5quote9to_tokens8ToTokens15to_token_streamCssR9xeAO3IU_12serde_derive, symObjAddr: 0xFE60, symBinAddr: 0x82B10, symSize: 0x90 }
  - { offset: 0xE8F61, size: 0x8, addend: 0x0, symName: __RNvYNtNtCsdGrGZaRBwMb_3syn3lit6LitStrNtNtCs9OU1sGv5X54_5quote9to_tokens8ToTokens17into_token_streamCssR9xeAO3IU_12serde_derive, symObjAddr: 0xFEF0, symBinAddr: 0x82BA0, symSize: 0x60 }
  - { offset: 0xE8F96, size: 0x8, addend: 0x0, symName: __RNvYRNtNtCsdGrGZaRBwMb_3syn3lit6LitStrNtNtCs9OU1sGv5X54_5quote9to_tokens8ToTokens15to_token_streamCssR9xeAO3IU_12serde_derive, symObjAddr: 0xFF50, symBinAddr: 0x82C00, symSize: 0x90 }
  - { offset: 0xE8FE0, size: 0x8, addend: 0x0, symName: __RNvYRNtNtCsdGrGZaRBwMb_3syn3lit6LitStrNtNtCs9OU1sGv5X54_5quote9to_tokens8ToTokens17into_token_streamCssR9xeAO3IU_12serde_derive, symObjAddr: 0xFFE0, symBinAddr: 0x82C90, symSize: 0x50 }
  - { offset: 0xE938E, size: 0x8, addend: 0x0, symName: __RINvMNtCsdGrGZaRBwMb_3syn5errorNtB3_5Error11new_spannedNtCsaKzlTDPUHDb_11proc_macro211TokenStreamBt_ECssR9xeAO3IU_12serde_derive, symObjAddr: 0x0, symBinAddr: 0x82CE0, symSize: 0xC0 }
  - { offset: 0xE93CA, size: 0x8, addend: 0x0, symName: __RNCINvMs6_NtCsjK30CmJ87bX_9hashbrown3rawINtB8_8RawTableTNtCsaKzlTDPUHDb_11proc_macro25IdentuEE14reserve_rehashNCINvNtBa_3map11make_hasherBS_uNtNtNtCsHUR1vrdMJt_3std4hash6random11RandomStateE0E0CssR9xeAO3IU_12serde_derive, symObjAddr: 0x2C50, symBinAddr: 0x84BC0, symSize: 0xB0 }
  - { offset: 0xE9590, size: 0x8, addend: 0x0, symName: __RNCINvMs6_NtCsjK30CmJ87bX_9hashbrown3rawINtB8_8RawTableTNtCsaKzlTDPUHDb_11proc_macro25IdentuEE14reserve_rehashNCINvNtBa_3map11make_hasherBS_uNtNtNtCsHUR1vrdMJt_3std4hash6random11RandomStateE0Es_0CssR9xeAO3IU_12serde_derive, symObjAddr: 0x2D00, symBinAddr: 0x84C70, symSize: 0x30 }
  - { offset: 0xE95ED, size: 0x8, addend: 0x0, symName: __RNCINvMs6_NtCsjK30CmJ87bX_9hashbrown3rawINtB8_8RawTableTNtCsaKzlTDPUHDb_11proc_macro25IdentuEE24find_or_find_insert_slotNCINvNtBa_3map14equivalent_keyBS_BS_uE0NCINvB1Z_11make_hasherBS_uNtNtNtCsHUR1vrdMJt_3std4hash6random11RandomStateE0E0CssR9xeAO3IU_12serde_derive, symObjAddr: 0x2D30, symBinAddr: 0x84CA0, symSize: 0xB0 }
  - { offset: 0xE97C9, size: 0x8, addend: 0x0, symName: __RNCINvMs6_NtCsjK30CmJ87bX_9hashbrown3rawINtB8_8RawTableTNtCsaKzlTDPUHDb_11proc_macro25IdentuEE4findNCINvNtBa_3map14equivalent_keyBS_BS_uE0E0CssR9xeAO3IU_12serde_derive, symObjAddr: 0x2DE0, symBinAddr: 0x84D50, symSize: 0xB0 }
  - { offset: 0xEA0D6, size: 0x8, addend: 0x0, symName: __RNCINvMsa_NtCsjK30CmJ87bX_9hashbrown3rawNtB8_13RawTableInner14prepare_resizeNtNtCslJiobkLta79_5alloc5alloc6GlobalE0CssR9xeAO3IU_12serde_derive, symObjAddr: 0x2E90, symBinAddr: 0x84E00, symSize: 0xD0 }
  - { offset: 0xEA2A4, size: 0x8, addend: 0x0, symName: __RNCNvMsa_NtCsjK30CmJ87bX_9hashbrown3rawNtB7_13RawTableInner15rehash_in_place0CssR9xeAO3IU_12serde_derive, symObjAddr: 0x2FA0, symBinAddr: 0x84F10, symSize: 0x250 }
  - { offset: 0xEA887, size: 0x8, addend: 0x0, symName: __RNvNtCsjK30CmJ87bX_9hashbrown3raw19capacity_to_bucketsCssR9xeAO3IU_12serde_derive, symObjAddr: 0x7090, symBinAddr: 0x89000, symSize: 0x280 }
  - { offset: 0xEAA9D, size: 0x8, addend: 0x0, symName: __RNvXsg_NtCsjK30CmJ87bX_9hashbrown3rawINtB5_8RawTableTNtCsaKzlTDPUHDb_11proc_macro25IdentuEENtNtNtCsieiGu2EXtoJ_4core3ops4drop4Drop4dropCssR9xeAO3IU_12serde_derive, symObjAddr: 0xA290, symBinAddr: 0x8C200, symSize: 0x30 }
  - { offset: 0xEB219, size: 0x8, addend: 0x0, symName: __RNCNvMs3_NtNtCsHUR1vrdMJt_3std6thread5localINtB7_8LocalKeyINtNtCsieiGu2EXtoJ_4core4cell4CellPuEE7replace0CssR9xeAO3IU_12serde_derive, symObjAddr: 0x2F80, symBinAddr: 0x84EF0, symSize: 0x20 }
  - { offset: 0xEB328, size: 0x8, addend: 0x0, symName: __RNvNtCsHUR1vrdMJt_3std6thread9panickingCssR9xeAO3IU_12serde_derive, symObjAddr: 0x7080, symBinAddr: 0x88FF0, symSize: 0x10 }
  - { offset: 0xEB367, size: 0x8, addend: 0x0, symName: __RINvNvNtCsHUR1vrdMJt_3std9panicking12catch_unwind7do_callINtNtNtCsieiGu2EXtoJ_4core5panic11unwind_safe16AssertUnwindSafeNCINvNtNtCscKtU6MdFI5n_10proc_macro6bridge6client10run_clientNtB1Z_11TokenStreamINtNtB10_6option6OptionB2T_ENCNCINvMs6_B1Z_INtB1Z_6ClientNtB23_11TokenStreamB47_E7expand1NvCssR9xeAO3IU_12serde_derive16derive_serializeE00E0EuEB4F_, symObjAddr: 0x2B10, symBinAddr: 0x84A80, symSize: 0x40 }
  - { offset: 0xEB430, size: 0x8, addend: 0x0, symName: __RINvNvNtCsHUR1vrdMJt_3std9panicking12catch_unwind7do_callINtNtNtCsieiGu2EXtoJ_4core5panic11unwind_safe16AssertUnwindSafeNCINvNtNtCscKtU6MdFI5n_10proc_macro6bridge6client10run_clientNtB1Z_11TokenStreamINtNtB10_6option6OptionB2T_ENCNCINvMs6_B1Z_INtB1Z_6ClientNtB23_11TokenStreamB47_E7expand1NvCssR9xeAO3IU_12serde_derive18derive_deserializeE00E0EuEB4F_, symObjAddr: 0x2B50, symBinAddr: 0x84AC0, symSize: 0x40 }
  - { offset: 0xEB4F9, size: 0x8, addend: 0x0, symName: __RINvNvNtCsHUR1vrdMJt_3std9panicking12catch_unwind8do_catchINtNtNtCsieiGu2EXtoJ_4core5panic11unwind_safe16AssertUnwindSafeNCINvNtNtCscKtU6MdFI5n_10proc_macro6bridge6client10run_clientNtB20_11TokenStreamINtNtB11_6option6OptionB2U_ENCNCINvMs6_B20_INtB20_6ClientNtB24_11TokenStreamB48_E7expand1NvCssR9xeAO3IU_12serde_derive16derive_serializeE00E0EuEB4G_, symObjAddr: 0x2B90, symBinAddr: 0x84B00, symSize: 0x60 }
  - { offset: 0xEB58E, size: 0x8, addend: 0x0, symName: __RINvNvNtCsHUR1vrdMJt_3std9panicking12catch_unwind8do_catchINtNtNtCsieiGu2EXtoJ_4core5panic11unwind_safe16AssertUnwindSafeNCINvNtNtCscKtU6MdFI5n_10proc_macro6bridge6client10run_clientNtB20_11TokenStreamINtNtB11_6option6OptionB2U_ENCNCINvMs6_B20_INtB20_6ClientNtB24_11TokenStreamB48_E7expand1NvCssR9xeAO3IU_12serde_derive18derive_deserializeE00E0EuEB4G_, symObjAddr: 0x2BF0, symBinAddr: 0x84B60, symSize: 0x60 }
  - { offset: 0xEBCF6, size: 0x8, addend: 0x0, symName: __RINvNtNtNtCscKtU6MdFI5n_10proc_macro6bridge6client5state3setINtNtCsieiGu2EXtoJ_4core6option6OptionNtB4_11TokenStreamENCNCINvB4_10run_clientB1y_BW_NCNCINvMs6_B4_INtB4_6ClientNtB8_11TokenStreamB2L_E7expand1NvCssR9xeAO3IU_12serde_derive16derive_serializeE00E00EB3i_, symObjAddr: 0x2990, symBinAddr: 0x84900, symSize: 0xC0 }
  - { offset: 0xEBDCC, size: 0x8, addend: 0x0, symName: __RINvNtNtNtCscKtU6MdFI5n_10proc_macro6bridge6client5state3setINtNtCsieiGu2EXtoJ_4core6option6OptionNtB4_11TokenStreamENCNCINvB4_10run_clientB1y_BW_NCNCINvMs6_B4_INtB4_6ClientNtB8_11TokenStreamB2L_E7expand1NvCssR9xeAO3IU_12serde_derive18derive_deserializeE00E00EB3i_, symObjAddr: 0x2A50, symBinAddr: 0x849C0, symSize: 0xC0 }
  - { offset: 0xEBEAC, size: 0x8, addend: 0x0, symName: __RNCNkNvNtNtNtCscKtU6MdFI5n_10proc_macro6bridge6client5state12BRIDGE_STATE0s_0CssR9xeAO3IU_12serde_derive, symObjAddr: 0x2F60, symBinAddr: 0x84ED0, symSize: 0x20 }
  - { offset: 0xEC394, size: 0x8, addend: 0x0, symName: __RNvXs5_NtNtCscKtU6MdFI5n_10proc_macro6bridge6bufferNtB5_6BufferNtNtNtCsieiGu2EXtoJ_4core3ops4drop4Drop4dropCssR9xeAO3IU_12serde_derive, symObjAddr: 0xA1F0, symBinAddr: 0x8C160, symSize: 0xA0 }
  - { offset: 0xED72E, size: 0x8, addend: 0x0, symName: __RNvNvMs1_NtNtCsieiGu2EXtoJ_4core3ptr8non_nullINtB7_7NonNullpE13new_unchecked18precondition_checkCssR9xeAO3IU_12serde_derive, symObjAddr: 0x9FE0, symBinAddr: 0x8BF50, symSize: 0x90 }
  - { offset: 0xF2975, size: 0x8, addend: 0x0, symName: __RNvXs1_NtNtNtCsieiGu2EXtoJ_4core3ops8function5implsQNCNvNtCssR9xeAO3IU_12serde_derive5bound10with_bounds0_0INtB7_5FnMutTRRNtNtNtBU_9internals3ast5FieldEE8call_mutBU_, symObjAddr: 0xA0D0, symBinAddr: 0x8C040, symSize: 0x30 }
  - { offset: 0xF29C4, size: 0x8, addend: 0x0, symName: __RNvXs1_NtNtNtCsieiGu2EXtoJ_4core3ops8function5implsQNCNvNtCssR9xeAO3IU_12serde_derive5bound10with_bounds2_0INtB7_5FnMutTRNtCsaKzlTDPUHDb_11proc_macro25IdentEE8call_mutBU_, symObjAddr: 0xA100, symBinAddr: 0x8C070, symSize: 0x30 }
  - { offset: 0xF2A13, size: 0x8, addend: 0x0, symName: __RNvXs1_NtNtNtCsieiGu2EXtoJ_4core3ops8function5implsQNCNvNtCssR9xeAO3IU_12serde_derive5bound10with_bounds_0INtB7_5FnMutTRRNtNtNtBU_9internals3ast5FieldEE8call_mutBU_, symObjAddr: 0xA130, symBinAddr: 0x8C0A0, symSize: 0x30 }
  - { offset: 0xF2A62, size: 0x8, addend: 0x0, symName: __RNvXs1_NtNtNtCsieiGu2EXtoJ_4core3ops8function5implsQNCNvNtCssR9xeAO3IU_12serde_derive5bound33with_where_predicates_from_fields0INtB7_5FnMutTRNtNtNtBU_9internals3ast5FieldEE8call_mutBU_, symObjAddr: 0xA160, symBinAddr: 0x8C0D0, symSize: 0x30 }
  - { offset: 0xF2AB1, size: 0x8, addend: 0x0, symName: __RNvXs1_NtNtNtCsieiGu2EXtoJ_4core3ops8function5implsQNCNvNtCssR9xeAO3IU_12serde_derive5bound35with_where_predicates_from_variants0INtB7_5FnMutTRNtNtNtBU_9internals3ast7VariantEE8call_mutBU_, symObjAddr: 0xA190, symBinAddr: 0x8C100, symSize: 0x30 }
  - { offset: 0xF2B00, size: 0x8, addend: 0x0, symName: __RNvXs1_NtNtNtCsieiGu2EXtoJ_4core3ops8function5implsQNCNvNtNtCssR9xeAO3IU_12serde_derive2de5enum_25prepare_enum_variant_enum0INtB7_5FnMutTRTjRNtNtNtBW_9internals3ast7VariantEEE8call_mutBW_, symObjAddr: 0xA1C0, symBinAddr: 0x8C130, symSize: 0x30 }
  - { offset: 0xF34E4, size: 0x8, addend: 0x0, symName: __RNvNtNtNtCsieiGu2EXtoJ_4core9core_arch3x864sse212__mm_or_si128CssR9xeAO3IU_12serde_derive, symObjAddr: 0x9D00, symBinAddr: 0x8BC70, symSize: 0x20 }
  - { offset: 0xF35F3, size: 0x8, addend: 0x0, symName: __RNvNtNtNtCsieiGu2EXtoJ_4core9core_arch3x864sse213__mm_set1_epi8CssR9xeAO3IU_12serde_derive, symObjAddr: 0x9D20, symBinAddr: 0x8BC90, symSize: 0x90 }
  - { offset: 0xF374D, size: 0x8, addend: 0x0, symName: __RNvNtNtNtCsieiGu2EXtoJ_4core9core_arch3x864sse214__mm_cmpeq_epi8CssR9xeAO3IU_12serde_derive, symObjAddr: 0x9DB0, symBinAddr: 0x8BD20, symSize: 0x80 }
  - { offset: 0xF378D, size: 0x8, addend: 0x0, symName: __RNvNtNtNtCsieiGu2EXtoJ_4core9core_arch3x864sse214__mm_cmpgt_epi8CssR9xeAO3IU_12serde_derive, symObjAddr: 0x9E30, symBinAddr: 0x8BDA0, symSize: 0x80 }
  - { offset: 0xF37CD, size: 0x8, addend: 0x0, symName: __RNvNtNtNtCsieiGu2EXtoJ_4core9core_arch3x864sse214__mm_load_si128CssR9xeAO3IU_12serde_derive, symObjAddr: 0x9EB0, symBinAddr: 0x8BE20, symSize: 0x20 }
  - { offset: 0xF380C, size: 0x8, addend: 0x0, symName: __RNvNtNtNtCsieiGu2EXtoJ_4core9core_arch3x864sse215__mm_loadu_si128CssR9xeAO3IU_12serde_derive, symObjAddr: 0x9ED0, symBinAddr: 0x8BE40, symSize: 0x90 }
  - { offset: 0xF389B, size: 0x8, addend: 0x0, symName: __RNvNtNtNtCsieiGu2EXtoJ_4core9core_arch3x864sse215__mm_store_si128CssR9xeAO3IU_12serde_derive, symObjAddr: 0x9F60, symBinAddr: 0x8BED0, symSize: 0x20 }
  - { offset: 0xF38D4, size: 0x8, addend: 0x0, symName: __RNvNtNtNtCsieiGu2EXtoJ_4core9core_arch3x864sse217__mm_movemask_epi8CssR9xeAO3IU_12serde_derive, symObjAddr: 0x9F80, symBinAddr: 0x8BEF0, symSize: 0x50 }
  - { offset: 0xF3940, size: 0x8, addend: 0x0, symName: __RNvNtNtNtCsieiGu2EXtoJ_4core9core_arch3x864sse217__mm_setzero_si128CssR9xeAO3IU_12serde_derive, symObjAddr: 0x9FD0, symBinAddr: 0x8BF40, symSize: 0x10 }
  - { offset: 0xF5F94, size: 0x8, addend: 0x0, symName: __RNCNvNtCssR9xeAO3IU_12serde_derive5bound10with_bound0B5_, symObjAddr: 0x31F0, symBinAddr: 0x85160, symSize: 0x40 }
  - { offset: 0xF5FCA, size: 0x8, addend: 0x0, symName: __RNCNvNtCssR9xeAO3IU_12serde_derive5bound10with_bounds0_0B5_, symObjAddr: 0x3230, symBinAddr: 0x851A0, symSize: 0x30 }
  - { offset: 0xF6009, size: 0x8, addend: 0x0, symName: __RNCNvNtCssR9xeAO3IU_12serde_derive5bound10with_bounds1_0B5_, symObjAddr: 0x3260, symBinAddr: 0x851D0, symSize: 0x40 }
  - { offset: 0xF6042, size: 0x8, addend: 0x0, symName: __RNCNvNtCssR9xeAO3IU_12serde_derive5bound10with_bounds2_0B5_, symObjAddr: 0x32A0, symBinAddr: 0x85210, symSize: 0x30 }
  - { offset: 0xF6082, size: 0x8, addend: 0x0, symName: __RNCNvNtCssR9xeAO3IU_12serde_derive5bound10with_bounds3_0B5_, symObjAddr: 0x32D0, symBinAddr: 0x85240, symSize: 0xB0 }
  - { offset: 0xF60BD, size: 0x8, addend: 0x0, symName: __RNCNvNtCssR9xeAO3IU_12serde_derive5bound10with_bounds4_0B5_, symObjAddr: 0x3380, symBinAddr: 0x852F0, symSize: 0x310 }
  - { offset: 0xF60FE, size: 0x8, addend: 0x0, symName: __RNCNvNtCssR9xeAO3IU_12serde_derive5bound10with_bounds_0B5_, symObjAddr: 0x3690, symBinAddr: 0x85600, symSize: 0x40 }
  - { offset: 0xF62A0, size: 0x8, addend: 0x0, symName: __RNCNvNtCssR9xeAO3IU_12serde_derive5bound12type_of_item0B5_, symObjAddr: 0x36D0, symBinAddr: 0x85640, symSize: 0x220 }
  - { offset: 0xF631A, size: 0x8, addend: 0x0, symName: __RNCNvNtCssR9xeAO3IU_12serde_derive5bound16without_defaults0B5_, symObjAddr: 0x38F0, symBinAddr: 0x85860, symSize: 0x1C0 }
  - { offset: 0xF6372, size: 0x8, addend: 0x0, symName: __RNCNvNtCssR9xeAO3IU_12serde_derive5bound19with_lifetime_bound0B5_, symObjAddr: 0x3AB0, symBinAddr: 0x85A20, symSize: 0x1B0 }
  - { offset: 0xF63E5, size: 0x8, addend: 0x0, symName: __RNCNvNtCssR9xeAO3IU_12serde_derive5bound33with_where_predicates_from_fields0B5_, symObjAddr: 0x3C60, symBinAddr: 0x85BD0, symSize: 0x40 }
  - { offset: 0xF643B, size: 0x8, addend: 0x0, symName: __RNCNvNtCssR9xeAO3IU_12serde_derive5bound35with_where_predicates_from_variants0B5_, symObjAddr: 0x3CA0, symBinAddr: 0x85C10, symSize: 0x40 }
  - { offset: 0xF648C, size: 0x8, addend: 0x0, symName: __RNvNtCssR9xeAO3IU_12serde_derive5bound10with_bound, symObjAddr: 0x7310, symBinAddr: 0x89280, symSize: 0x870 }
  - { offset: 0xF6637, size: 0x8, addend: 0x0, symName: __RNvNtCssR9xeAO3IU_12serde_derive5bound12type_of_item, symObjAddr: 0x7B80, symBinAddr: 0x89AF0, symSize: 0x3F0 }
  - { offset: 0xF6665, size: 0x8, addend: 0x0, symName: __RNvNtCssR9xeAO3IU_12serde_derive5bound15with_self_bound, symObjAddr: 0x7F70, symBinAddr: 0x89EE0, symSize: 0x3F0 }
  - { offset: 0xF66C8, size: 0x8, addend: 0x0, symName: __RNvNtCssR9xeAO3IU_12serde_derive5bound16without_defaults, symObjAddr: 0x8360, symBinAddr: 0x8A2D0, symSize: 0x100 }
  - { offset: 0xF66F4, size: 0x8, addend: 0x0, symName: __RNvNtCssR9xeAO3IU_12serde_derive5bound19with_lifetime_bound, symObjAddr: 0x8460, symBinAddr: 0x8A3D0, symSize: 0x3F0 }
  - { offset: 0xF677E, size: 0x8, addend: 0x0, symName: __RNvNtCssR9xeAO3IU_12serde_derive5bound21with_where_predicates, symObjAddr: 0x8850, symBinAddr: 0x8A7C0, symSize: 0x120 }
  - { offset: 0xF67CE, size: 0x8, addend: 0x0, symName: __RNvNtCssR9xeAO3IU_12serde_derive5bound33with_where_predicates_from_fields, symObjAddr: 0x8970, symBinAddr: 0x8A8E0, symSize: 0x170 }
  - { offset: 0xF6843, size: 0x8, addend: 0x0, symName: __RNvNtCssR9xeAO3IU_12serde_derive5bound35with_where_predicates_from_variants, symObjAddr: 0x8AE0, symBinAddr: 0x8AA50, symSize: 0x1D0 }
  - { offset: 0xF68DD, size: 0x8, addend: 0x0, symName: __RNCNvNtNtCssR9xeAO3IU_12serde_derive2de5enum_11deserialize0B7_, symObjAddr: 0x3CE0, symBinAddr: 0x85C50, symSize: 0x30 }
  - { offset: 0xF6920, size: 0x8, addend: 0x0, symName: __RNCNvNtNtCssR9xeAO3IU_12serde_derive2de5enum_25prepare_enum_variant_enum0B7_, symObjAddr: 0x3D10, symBinAddr: 0x85C80, symSize: 0x40 }
  - { offset: 0xF6976, size: 0x8, addend: 0x0, symName: __RNCNvNtNtCssR9xeAO3IU_12serde_derive2de5enum_25prepare_enum_variant_enums0_0B7_, symObjAddr: 0x3D50, symBinAddr: 0x85CC0, symSize: 0x1E0 }
  - { offset: 0xF6A0E, size: 0x8, addend: 0x0, symName: __RNCNvNtNtCssR9xeAO3IU_12serde_derive2de5enum_25prepare_enum_variant_enums1_0B7_, symObjAddr: 0x3F30, symBinAddr: 0x85EA0, symSize: 0x40 }
  - { offset: 0xF6A64, size: 0x8, addend: 0x0, symName: __RNCNvNtNtCssR9xeAO3IU_12serde_derive2de5enum_25prepare_enum_variant_enums2_0B7_, symObjAddr: 0x3F70, symBinAddr: 0x85EE0, symSize: 0xB0 }
  - { offset: 0xF6ABA, size: 0x8, addend: 0x0, symName: __RNCNvNtNtCssR9xeAO3IU_12serde_derive2de5enum_25prepare_enum_variant_enums_0B7_, symObjAddr: 0x4020, symBinAddr: 0x85F90, symSize: 0x40 }
  - { offset: 0xF6B34, size: 0x8, addend: 0x0, symName: __RNvNtNtCssR9xeAO3IU_12serde_derive2de5enum_11deserialize, symObjAddr: 0x8CB0, symBinAddr: 0x8AC20, symSize: 0x6F0 }
  - { offset: 0xF6C59, size: 0x8, addend: 0x0, symName: __RNvNtNtCssR9xeAO3IU_12serde_derive2de5enum_25prepare_enum_variant_enum, symObjAddr: 0x93A0, symBinAddr: 0x8B310, symSize: 0x770 }
  - { offset: 0xF6E17, size: 0x8, addend: 0x0, symName: __RNvNtNtCssR9xeAO3IU_12serde_derive2de5enum_28deserialize_homogeneous_enum, symObjAddr: 0x9B10, symBinAddr: 0x8BA80, symSize: 0x1F0 }
  - { offset: 0xF7115, size: 0x8, addend: 0x0, symName: __RINvNtCsdGrGZaRBwMb_3syn5error4new2NtNtCsieiGu2EXtoJ_4core3fmt9ArgumentsECssR9xeAO3IU_12serde_derive, symObjAddr: 0x2920, symBinAddr: 0x84890, symSize: 0x70 }
  - { offset: 0xFC092, size: 0x8, addend: 0x0, symName: __RINvMNtCsdGrGZaRBwMb_3syn5errorNtB3_5Error11new_spannedNtCsaKzlTDPUHDb_11proc_macro211TokenStreamBt_ECssR9xeAO3IU_12serde_derive, symObjAddr: 0x0, symBinAddr: 0x82CE0, symSize: 0xC0 }
  - { offset: 0xFC0D6, size: 0x8, addend: 0x0, symName: __RINvMNtCsdGrGZaRBwMb_3syn5errorNtB3_5Error11new_spannedNtCsaKzlTDPUHDb_11proc_macro211TokenStreamNtNtCslJiobkLta79_5alloc6string6StringECssR9xeAO3IU_12serde_derive, symObjAddr: 0xC0, symBinAddr: 0x82DA0, symSize: 0xC0 }
  - { offset: 0xFC138, size: 0x8, addend: 0x0, symName: __RINvMNtCsdGrGZaRBwMb_3syn5errorNtB3_5Error11new_spannedNtCsaKzlTDPUHDb_11proc_macro211TokenStreamNtNtNtCssR9xeAO3IU_12serde_derive9internals4case10ParseErrorEB1D_, symObjAddr: 0x180, symBinAddr: 0x82E60, symSize: 0xB0 }
  - { offset: 0xFC17C, size: 0x8, addend: 0x0, symName: __RINvMNtCsdGrGZaRBwMb_3syn5errorNtB3_5Error11new_spannedNtCsaKzlTDPUHDb_11proc_macro211TokenStreamReECssR9xeAO3IU_12serde_derive, symObjAddr: 0x230, symBinAddr: 0x82F10, symSize: 0xB0 }
  - { offset: 0xFC1FF, size: 0x8, addend: 0x0, symName: __RINvMs2_NtNtCsHUR1vrdMJt_3std6thread5localINtB6_8LocalKeyINtNtCsieiGu2EXtoJ_4core4cell4CellPuEE4withNCNvMs3_B6_BE_7replace0B1r_ECssR9xeAO3IU_12serde_derive, symObjAddr: 0x2E0, symBinAddr: 0x82FC0, symSize: 0x50 }
  - { offset: 0xFC2B8, size: 0x8, addend: 0x0, symName: __RINvMs2_NtNtCsHUR1vrdMJt_3std6thread5localINtB6_8LocalKeyINtNtCsieiGu2EXtoJ_4core4cell4CellPuEE8try_withNCNvMs3_B6_BE_7replace0B1r_ECssR9xeAO3IU_12serde_derive, symObjAddr: 0x330, symBinAddr: 0x83010, symSize: 0xF0 }
  - { offset: 0xFC458, size: 0x8, addend: 0x0, symName: __RINvMs2_NtNtCsHUR1vrdMJt_3std6thread5localINtB6_8LocalKeyINtNtCsieiGu2EXtoJ_4core4cell4CellTyyEEE4withNCNvMNtNtBa_4hash6randomNtB1H_11RandomState3new0B20_ECssR9xeAO3IU_12serde_derive, symObjAddr: 0x420, symBinAddr: 0x83100, symSize: 0x50 }
  - { offset: 0xFC511, size: 0x8, addend: 0x0, symName: __RINvMs2_NtNtCsHUR1vrdMJt_3std6thread5localINtB6_8LocalKeyINtNtCsieiGu2EXtoJ_4core4cell4CellTyyEEE8try_withNCNvMNtNtBa_4hash6randomNtB1L_11RandomState3new0B24_ECssR9xeAO3IU_12serde_derive, symObjAddr: 0x470, symBinAddr: 0x83150, symSize: 0xF0 }
  - { offset: 0xFC6EF, size: 0x8, addend: 0x0, symName: __RINvMs3_NtNtCscKtU6MdFI5n_10proc_macro6bridge6bufferNtB6_6Buffer17extend_from_arrayKj4_ECssR9xeAO3IU_12serde_derive, symObjAddr: 0x560, symBinAddr: 0x83240, symSize: 0x1E0 }
  - { offset: 0xFC877, size: 0x8, addend: 0x0, symName: __RINvMs3_NtNtCscKtU6MdFI5n_10proc_macro6bridge6bufferNtB6_6Buffer17extend_from_arrayKj8_ECssR9xeAO3IU_12serde_derive, symObjAddr: 0x740, symBinAddr: 0x83420, symSize: 0x1E0 }
  - { offset: 0xFD05B, size: 0x8, addend: 0x0, symName: __RINvMs6_NtCsjK30CmJ87bX_9hashbrown3rawINtB6_8RawTableTNtCsaKzlTDPUHDb_11proc_macro25IdentuEE14reserve_rehashNCINvNtB8_3map11make_hasherBQ_uNtNtNtCsHUR1vrdMJt_3std4hash6random11RandomStateE0ECssR9xeAO3IU_12serde_derive, symObjAddr: 0x920, symBinAddr: 0x260450, symSize: 0xD70 }
  - { offset: 0xFDB2E, size: 0x8, addend: 0x0, symName: __RINvMs6_NtCsjK30CmJ87bX_9hashbrown3rawINtB6_8RawTableTNtCsaKzlTDPUHDb_11proc_macro25IdentuEE24find_or_find_insert_slotNCINvNtB8_3map14equivalent_keyBQ_BQ_uE0NCINvB1X_11make_hasherBQ_uNtNtNtCsHUR1vrdMJt_3std4hash6random11RandomStateE0ECssR9xeAO3IU_12serde_derive, symObjAddr: 0x1690, symBinAddr: 0x83600, symSize: 0x160 }
  - { offset: 0xFDFF8, size: 0x8, addend: 0x0, symName: __RINvMs6_NtCsjK30CmJ87bX_9hashbrown3rawINtB6_8RawTableTNtCsaKzlTDPUHDb_11proc_macro25IdentuEE4findNCINvNtB8_3map14equivalent_keyBQ_BQ_uE0ECssR9xeAO3IU_12serde_derive, symObjAddr: 0x17F0, symBinAddr: 0x83760, symSize: 0x480 }
  - { offset: 0xFE511, size: 0x8, addend: 0x0, symName: __RINvMs6_NtCsjK30CmJ87bX_9hashbrown3rawINtB6_8RawTableTNtCsaKzlTDPUHDb_11proc_macro25IdentuEE7reserveNCINvNtB8_3map11make_hasherBQ_uNtNtNtCsHUR1vrdMJt_3std4hash6random11RandomStateE0ECssR9xeAO3IU_12serde_derive, symObjAddr: 0x1C70, symBinAddr: 0x83BE0, symSize: 0xC0 }
  - { offset: 0xFE703, size: 0x8, addend: 0x0, symName: __RINvMsa_NtCsjK30CmJ87bX_9hashbrown3rawNtB6_13RawTableInner13drop_elementsTNtCsaKzlTDPUHDb_11proc_macro25IdentuEECssR9xeAO3IU_12serde_derive, symObjAddr: 0x1D30, symBinAddr: 0x83CA0, symSize: 0x1D0 }
  - { offset: 0xFEA66, size: 0x8, addend: 0x0, symName: __RINvMsa_NtCsjK30CmJ87bX_9hashbrown3rawNtB6_13RawTableInner16drop_inner_tableTNtCsaKzlTDPUHDb_11proc_macro25IdentuENtNtCslJiobkLta79_5alloc5alloc6GlobalECssR9xeAO3IU_12serde_derive, symObjAddr: 0x1F00, symBinAddr: 0x83E70, symSize: 0xD0 }
  - { offset: 0xFEC62, size: 0x8, addend: 0x0, symName: __RINvMsa_NtCsjK30CmJ87bX_9hashbrown3rawNtB6_13RawTableInner17new_uninitializedNtNtCslJiobkLta79_5alloc5alloc6GlobalECssR9xeAO3IU_12serde_derive, symObjAddr: 0x1FD0, symBinAddr: 0x83F40, symSize: 0x290 }
  - { offset: 0xFEEB6, size: 0x8, addend: 0x0, symName: __RINvMsa_NtCsjK30CmJ87bX_9hashbrown3rawNtB6_13RawTableInner22fallible_with_capacityNtNtCslJiobkLta79_5alloc5alloc6GlobalECssR9xeAO3IU_12serde_derive, symObjAddr: 0x2260, symBinAddr: 0x841D0, symSize: 0x430 }
  - { offset: 0xFF37F, size: 0x8, addend: 0x0, symName: __RINvMsi_NtCsjK30CmJ87bX_9hashbrown3rawINtB6_12RawIterRangeTNtCsaKzlTDPUHDb_11proc_macro25IdentuEE9next_implKb0_ECssR9xeAO3IU_12serde_derive, symObjAddr: 0x2690, symBinAddr: 0x84600, symSize: 0x290 }
  - { offset: 0x1002D1, size: 0x8, addend: 0x0, symName: __RNvMNvNtCssR9xeAO3IU_12serde_derive5bound10with_boundNtB2_12FindTyParams10visit_path, symObjAddr: 0x4060, symBinAddr: 0x85FD0, symSize: 0x1E0 }
  - { offset: 0x10036B, size: 0x8, addend: 0x0, symName: __RNvMNvNtCssR9xeAO3IU_12serde_derive5bound10with_boundNtB2_12FindTyParams10visit_type, symObjAddr: 0x4240, symBinAddr: 0x861B0, symSize: 0x860 }
  - { offset: 0x100578, size: 0x8, addend: 0x0, symName: __RNvMNvNtCssR9xeAO3IU_12serde_derive5bound10with_boundNtB2_12FindTyParams11visit_field, symObjAddr: 0x4AA0, symBinAddr: 0x86A10, symSize: 0x110 }
  - { offset: 0x1005DF, size: 0x8, addend: 0x0, symName: __RNvMNvNtCssR9xeAO3IU_12serde_derive5bound10with_boundNtB2_12FindTyParams11visit_macro, symObjAddr: 0x4BB0, symBinAddr: 0x86B20, symSize: 0x20 }
  - { offset: 0x10061C, size: 0x8, addend: 0x0, symName: __RNvMNvNtCssR9xeAO3IU_12serde_derive5bound10with_boundNtB2_12FindTyParams17visit_return_type, symObjAddr: 0x4BD0, symBinAddr: 0x86B40, symSize: 0xB0 }
  - { offset: 0x10066E, size: 0x8, addend: 0x0, symName: __RNvMNvNtCssR9xeAO3IU_12serde_derive5bound10with_boundNtB2_12FindTyParams18visit_path_segment, symObjAddr: 0x4C80, symBinAddr: 0x86BF0, symSize: 0x30 }
  - { offset: 0x1006AB, size: 0x8, addend: 0x0, symName: __RNvMNvNtCssR9xeAO3IU_12serde_derive5bound10with_boundNtB2_12FindTyParams20visit_path_arguments, symObjAddr: 0x4CB0, symBinAddr: 0x86C20, symSize: 0x290 }
  - { offset: 0x100794, size: 0x8, addend: 0x0, symName: __RNvMNvNtCssR9xeAO3IU_12serde_derive5bound10with_boundNtB2_12FindTyParams22visit_type_param_bound, symObjAddr: 0x4F40, symBinAddr: 0x86EB0, symSize: 0x70 }
  - { offset: 0x1007FF, size: 0x8, addend: 0x0, symName: __RNvMs1_NtCsjK30CmJ87bX_9hashbrown3rawNtB5_11TableLayout20calculate_layout_forCssR9xeAO3IU_12serde_derive, symObjAddr: 0x4FB0, symBinAddr: 0x86F20, symSize: 0x2F0 }
  - { offset: 0x100AF5, size: 0x8, addend: 0x0, symName: __RNvMs1_NtNtCsieiGu2EXtoJ_4core3ptr8non_nullINtB5_7NonNullNtNtCsdGrGZaRBwMb_3syn3lit6LitStrE20offset_from_unsignedCssR9xeAO3IU_12serde_derive, symObjAddr: 0x52A0, symBinAddr: 0x87210, symSize: 0x60 }
  - { offset: 0x100BFF, size: 0x8, addend: 0x0, symName: __RNvMs1_NtNtCsieiGu2EXtoJ_4core3ptr8non_nullINtB5_7NonNullNtNtCsdGrGZaRBwMb_3syn4path11PathSegmentE20offset_from_unsignedCssR9xeAO3IU_12serde_derive, symObjAddr: 0x5300, symBinAddr: 0x87270, symSize: 0x70 }
  - { offset: 0x100D09, size: 0x8, addend: 0x0, symName: __RNvMs1_NtNtCsieiGu2EXtoJ_4core3ptr8non_nullINtB5_7NonNullNtNtCsdGrGZaRBwMb_3syn5error5ErrorE20offset_from_unsignedCssR9xeAO3IU_12serde_derive, symObjAddr: 0x5370, symBinAddr: 0x872E0, symSize: 0x70 }
  - { offset: 0x100E13, size: 0x8, addend: 0x0, symName: __RNvMs1_NtNtCsieiGu2EXtoJ_4core3ptr8non_nullINtB5_7NonNullNtNtCsdGrGZaRBwMb_3syn8generics12GenericParamE20offset_from_unsignedCssR9xeAO3IU_12serde_derive, symObjAddr: 0x53E0, symBinAddr: 0x87350, symSize: 0x70 }
  - { offset: 0x100F1D, size: 0x8, addend: 0x0, symName: __RNvMs1_NtNtCsieiGu2EXtoJ_4core3ptr8non_nullINtB5_7NonNullNtNtCsdGrGZaRBwMb_3syn8generics14WherePredicateE20offset_from_unsignedCssR9xeAO3IU_12serde_derive, symObjAddr: 0x5450, symBinAddr: 0x873C0, symSize: 0x70 }
  - { offset: 0x1010BE, size: 0x8, addend: 0x0, symName: __RNvMs1_NtNtCsieiGu2EXtoJ_4core3ptr8non_nullINtB5_7NonNullNtNtCssR9xeAO3IU_12serde_derive2de16FieldWithAliasesE20offset_from_unsignedBX_, symObjAddr: 0x54C0, symBinAddr: 0x87430, symSize: 0x60 }
  - { offset: 0x101227, size: 0x8, addend: 0x0, symName: __RNvMs1_NtNtCsieiGu2EXtoJ_4core3ptr8non_nullINtB5_7NonNullNtNtNtCssR9xeAO3IU_12serde_derive9internals3ast5FieldE20offset_from_unsignedBZ_, symObjAddr: 0x5520, symBinAddr: 0x87490, symSize: 0x70 }
  - { offset: 0x10133E, size: 0x8, addend: 0x0, symName: __RNvMs1_NtNtCsieiGu2EXtoJ_4core3ptr8non_nullINtB5_7NonNullNtNtNtCssR9xeAO3IU_12serde_derive9internals3ast7VariantE20offset_from_unsignedBZ_, symObjAddr: 0x5590, symBinAddr: 0x87500, symSize: 0x70 }
  - { offset: 0x101448, size: 0x8, addend: 0x0, symName: __RNvMs1_NtNtCsieiGu2EXtoJ_4core3ptr8non_nullINtB5_7NonNullNtNtNtCssR9xeAO3IU_12serde_derive9internals4name4NameE20offset_from_unsignedBZ_, symObjAddr: 0x5600, symBinAddr: 0x87570, symSize: 0x60 }
  - { offset: 0x101552, size: 0x8, addend: 0x0, symName: __RNvMs1_NtNtCsieiGu2EXtoJ_4core3ptr8non_nullINtB5_7NonNullRNtNtCsdGrGZaRBwMb_3syn2ty8TypePathE20offset_from_unsignedCssR9xeAO3IU_12serde_derive, symObjAddr: 0x5660, symBinAddr: 0x875D0, symSize: 0x60 }
  - { offset: 0x10165C, size: 0x8, addend: 0x0, symName: __RNvMs1_NtNtCsieiGu2EXtoJ_4core3ptr8non_nullINtB5_7NonNullTNtNtCsdGrGZaRBwMb_3syn2ty4TypeNtNtBY_5token5CommaEE20offset_from_unsignedCssR9xeAO3IU_12serde_derive, symObjAddr: 0x56C0, symBinAddr: 0x87630, symSize: 0x70 }
  - { offset: 0x101766, size: 0x8, addend: 0x0, symName: __RNvMs1_NtNtCsieiGu2EXtoJ_4core3ptr8non_nullINtB5_7NonNullTNtNtCsdGrGZaRBwMb_3syn2ty9BareFnArgNtNtBY_5token5CommaEE20offset_from_unsignedCssR9xeAO3IU_12serde_derive, symObjAddr: 0x5730, symBinAddr: 0x876A0, symSize: 0x70 }
  - { offset: 0x101870, size: 0x8, addend: 0x0, symName: __RNvMs1_NtNtCsieiGu2EXtoJ_4core3ptr8non_nullINtB5_7NonNullTNtNtCsdGrGZaRBwMb_3syn4data7VariantNtNtBY_5token5CommaEE20offset_from_unsignedCssR9xeAO3IU_12serde_derive, symObjAddr: 0x57A0, symBinAddr: 0x87710, symSize: 0x70 }
  - { offset: 0x10197A, size: 0x8, addend: 0x0, symName: __RNvMs1_NtNtCsieiGu2EXtoJ_4core3ptr8non_nullINtB5_7NonNullTNtNtCsdGrGZaRBwMb_3syn4expr4ExprNtNtBY_5token5CommaEE20offset_from_unsignedCssR9xeAO3IU_12serde_derive, symObjAddr: 0x5810, symBinAddr: 0x87780, symSize: 0x70 }
  - { offset: 0x101A84, size: 0x8, addend: 0x0, symName: __RNvMs1_NtNtCsieiGu2EXtoJ_4core3ptr8non_nullINtB5_7NonNullTNtNtCsdGrGZaRBwMb_3syn4path15GenericArgumentNtNtBY_5token5CommaEE20offset_from_unsignedCssR9xeAO3IU_12serde_derive, symObjAddr: 0x5880, symBinAddr: 0x877F0, symSize: 0x70 }
  - { offset: 0x101B8E, size: 0x8, addend: 0x0, symName: __RNvMs1_NtNtCsieiGu2EXtoJ_4core3ptr8non_nullINtB5_7NonNullTNtNtCsdGrGZaRBwMb_3syn8generics14WherePredicateNtNtBY_5token5CommaEE20offset_from_unsignedCssR9xeAO3IU_12serde_derive, symObjAddr: 0x58F0, symBinAddr: 0x87860, symSize: 0x70 }
  - { offset: 0x101C74, size: 0x8, addend: 0x0, symName: __RNvMs3_NtNtCscKtU6MdFI5n_10proc_macro6bridge6bufferNtB5_6Buffer17extend_from_sliceCssR9xeAO3IU_12serde_derive, symObjAddr: 0x5960, symBinAddr: 0x878D0, symSize: 0x1E0 }
  - { offset: 0x101DF1, size: 0x8, addend: 0x0, symName: __RNvMs3_NtNtCscKtU6MdFI5n_10proc_macro6bridge6bufferNtB5_6Buffer4pushCssR9xeAO3IU_12serde_derive, symObjAddr: 0x5B40, symBinAddr: 0x87AB0, symSize: 0x1A0 }
  - { offset: 0x10209C, size: 0x8, addend: 0x0, symName: __RNvMs6_NtCsjK30CmJ87bX_9hashbrown3rawINtB5_8RawTableTNtCsaKzlTDPUHDb_11proc_macro25IdentuEE14insert_in_slotCssR9xeAO3IU_12serde_derive, symObjAddr: 0x5CE0, symBinAddr: 0x87C50, symSize: 0x150 }
  - { offset: 0x10253C, size: 0x8, addend: 0x0, symName: __RNvMsa_NtCsjK30CmJ87bX_9hashbrown3rawNtB5_13RawTableInner15fix_insert_slotCssR9xeAO3IU_12serde_derive, symObjAddr: 0x5E30, symBinAddr: 0x87DA0, symSize: 0x140 }
  - { offset: 0x1028D5, size: 0x8, addend: 0x0, symName: __RNvMsa_NtCsjK30CmJ87bX_9hashbrown3rawNtB5_13RawTableInner15rehash_in_placeCssR9xeAO3IU_12serde_derive, symObjAddr: 0x5F70, symBinAddr: 0x87EE0, symSize: 0x5B0 }
  - { offset: 0x1030A1, size: 0x8, addend: 0x0, symName: __RNvMsa_NtCsjK30CmJ87bX_9hashbrown3rawNtB5_13RawTableInner16find_insert_slotCssR9xeAO3IU_12serde_derive, symObjAddr: 0x6520, symBinAddr: 0x88490, symSize: 0x130 }
  - { offset: 0x1032A0, size: 0x8, addend: 0x0, symName: __RNvMsa_NtCsjK30CmJ87bX_9hashbrown3rawNtB5_13RawTableInner19prepare_insert_slotCssR9xeAO3IU_12serde_derive, symObjAddr: 0x6650, symBinAddr: 0x885C0, symSize: 0x60 }
  - { offset: 0x103591, size: 0x8, addend: 0x0, symName: __RNvMsa_NtCsjK30CmJ87bX_9hashbrown3rawNtB5_13RawTableInner23prepare_rehash_in_placeCssR9xeAO3IU_12serde_derive, symObjAddr: 0x66B0, symBinAddr: 0x88620, symSize: 0x340 }
  - { offset: 0x103CB8, size: 0x8, addend: 0x0, symName: __RNvMsa_NtCsjK30CmJ87bX_9hashbrown3rawNtB5_13RawTableInner25find_insert_slot_in_groupCssR9xeAO3IU_12serde_derive, symObjAddr: 0x69F0, symBinAddr: 0x88960, symSize: 0x160 }
  - { offset: 0x103FB6, size: 0x8, addend: 0x0, symName: __RNvMsa_NtCsjK30CmJ87bX_9hashbrown3rawNtB5_13RawTableInner30find_or_find_insert_slot_innerCssR9xeAO3IU_12serde_derive, symObjAddr: 0x6B50, symBinAddr: 0x88AC0, symSize: 0x410 }
  - { offset: 0x104445, size: 0x8, addend: 0x0, symName: __RNvMsi_NtCsjK30CmJ87bX_9hashbrown3rawINtB5_12RawIterRangeTNtCsaKzlTDPUHDb_11proc_macro25IdentuEE3newCssR9xeAO3IU_12serde_derive, symObjAddr: 0x6F60, symBinAddr: 0x88ED0, symSize: 0x120 }
  - { offset: 0x1047CC, size: 0x8, addend: 0x0, symName: __RNvXNtCs9OU1sGv5X54_5quote14ident_fragmentRjNtB2_13IdentFragment3fmtCssR9xeAO3IU_12serde_derive, symObjAddr: 0xA070, symBinAddr: 0x8BFE0, symSize: 0x30 }
  - { offset: 0x10480F, size: 0x8, addend: 0x0, symName: __RNvXNtCs9OU1sGv5X54_5quote14ident_fragmentRjNtB2_13IdentFragment4spanCssR9xeAO3IU_12serde_derive, symObjAddr: 0xA0A0, symBinAddr: 0x8C010, symSize: 0x30 }
  - { offset: 0x10484A, size: 0x8, addend: 0x0, symName: __RNvYjNtNtCs9OU1sGv5X54_5quote14ident_fragment13IdentFragment4spanCssR9xeAO3IU_12serde_derive, symObjAddr: 0xA2C0, symBinAddr: 0x8C230, symSize: 0x20 }
  - { offset: 0x104FEA, size: 0x8, addend: 0x0, symName: __RINvMsb_NtNtNtCslJiobkLta79_5alloc11collections5btree8navigateINtB6_13LazyLeafRangeNtNtNtB8_4node6marker5DyingNtNtCsdGrGZaRBwMb_3syn8lifetime8LifetimeNtNtB8_7set_val9SetValZSTE16deallocating_endNtNtBc_5alloc6GlobalECssR9xeAO3IU_12serde_derive, symObjAddr: 0x0, symBinAddr: 0x8C250, symSize: 0x90 }
  - { offset: 0x10500C, size: 0x8, addend: 0x0, symName: ___rustc_proc_macro_decls_56bd8ad3952c59e__, symObjAddr: 0x11D18, symBinAddr: 0x2C04F8, symSize: 0x0 }
  - { offset: 0x105B76, size: 0x8, addend: 0x0, symName: __RNCNCNvNtCssR9xeAO3IU_12serde_derive7pretend21pretend_variants_used00B7_, symObjAddr: 0x4970, symBinAddr: 0x90B40, symSize: 0x190 }
  - { offset: 0x105BFE, size: 0x8, addend: 0x0, symName: __RNCNCNvNtCssR9xeAO3IU_12serde_derive7pretend21pretend_variants_used0s_0B7_, symObjAddr: 0x4B00, symBinAddr: 0x90CD0, symSize: 0x20 }
  - { offset: 0x105C43, size: 0x8, addend: 0x0, symName: __RNCNvNtCssR9xeAO3IU_12serde_derive7pretend21pretend_variants_used0B5_, symObjAddr: 0x5000, symBinAddr: 0x911D0, symSize: 0xB40 }
  - { offset: 0x106006, size: 0x8, addend: 0x0, symName: __RNCNCNvNtCssR9xeAO3IU_12serde_derive7pretend24pretend_fields_used_enum00B7_, symObjAddr: 0x4B20, symBinAddr: 0x90CF0, symSize: 0x20 }
  - { offset: 0x10603C, size: 0x8, addend: 0x0, symName: __RNCNCNvNtCssR9xeAO3IU_12serde_derive7pretend24pretend_fields_used_enum0s_0B7_, symObjAddr: 0x4B40, symBinAddr: 0x90D10, symSize: 0x190 }
  - { offset: 0x1060D3, size: 0x8, addend: 0x0, symName: __RNCNvNtCssR9xeAO3IU_12serde_derive7pretend24pretend_fields_used_enum0B5_, symObjAddr: 0x5B40, symBinAddr: 0x91D10, symSize: 0x420 }
  - { offset: 0x10629C, size: 0x8, addend: 0x0, symName: __RNCNvNtCssR9xeAO3IU_12serde_derive7pretend26pretend_fields_used_struct0B5_, symObjAddr: 0x5F60, symBinAddr: 0x92130, symSize: 0x20 }
  - { offset: 0x1062D2, size: 0x8, addend: 0x0, symName: __RNCNvNtCssR9xeAO3IU_12serde_derive7pretend26pretend_fields_used_structs_0B5_, symObjAddr: 0x5F80, symBinAddr: 0x92150, symSize: 0x190 }
  - { offset: 0x10636E, size: 0x8, addend: 0x0, symName: __RNCNvNtCssR9xeAO3IU_12serde_derive7pretend33pretend_fields_used_struct_packed0B5_, symObjAddr: 0x6110, symBinAddr: 0x922E0, symSize: 0x20 }
  - { offset: 0x1063AC, size: 0x8, addend: 0x0, symName: __RNvNtCssR9xeAO3IU_12serde_derive7pretend12pretend_used, symObjAddr: 0x7F80, symBinAddr: 0x94150, symSize: 0x130 }
  - { offset: 0x106427, size: 0x8, addend: 0x0, symName: __RNvNtCssR9xeAO3IU_12serde_derive7pretend19pretend_fields_used, symObjAddr: 0x80B0, symBinAddr: 0x94280, symSize: 0x120 }
  - { offset: 0x106493, size: 0x8, addend: 0x0, symName: __RNvNtCssR9xeAO3IU_12serde_derive7pretend21pretend_variants_used, symObjAddr: 0x81D0, symBinAddr: 0x943A0, symSize: 0x2B0 }
  - { offset: 0x1065CD, size: 0x8, addend: 0x0, symName: __RNvNtCssR9xeAO3IU_12serde_derive7pretend24pretend_fields_used_enum, symObjAddr: 0x8480, symBinAddr: 0x94650, symSize: 0x540 }
  - { offset: 0x10678F, size: 0x8, addend: 0x0, symName: __RNvNtCssR9xeAO3IU_12serde_derive7pretend26pretend_fields_used_struct, symObjAddr: 0x89C0, symBinAddr: 0x94B90, symSize: 0x680 }
  - { offset: 0x10697F, size: 0x8, addend: 0x0, symName: __RNvNtCssR9xeAO3IU_12serde_derive7pretend33pretend_fields_used_struct_packed, symObjAddr: 0x9040, symBinAddr: 0x95210, symSize: 0x8C0 }
  - { offset: 0x106C27, size: 0x8, addend: 0x0, symName: __RNCNvNtCssR9xeAO3IU_12serde_derive10deprecated19contains_deprecated0B5_, symObjAddr: 0x4F50, symBinAddr: 0x91120, symSize: 0xB0 }
  - { offset: 0x106C66, size: 0x8, addend: 0x0, symName: __RNvNtCssR9xeAO3IU_12serde_derive10deprecated16allow_deprecated, symObjAddr: 0x7AC0, symBinAddr: 0x93C90, symSize: 0x220 }
  - { offset: 0x106CD3, size: 0x8, addend: 0x0, symName: __RNvNtCssR9xeAO3IU_12serde_derive10deprecated19contains_deprecated, symObjAddr: 0x7CE0, symBinAddr: 0x93EB0, symSize: 0x140 }
  - { offset: 0x106D54, size: 0x8, addend: 0x0, symName: __RNvNtCssR9xeAO3IU_12serde_derive10deprecated23should_allow_deprecated, symObjAddr: 0x7E20, symBinAddr: 0x93FF0, symSize: 0x160 }
  - { offset: 0x106DCF, size: 0x8, addend: 0x0, symName: __RNCNvNtNtCssR9xeAO3IU_12serde_derive2de15enum_externally11deserialize0B7_, symObjAddr: 0x6130, symBinAddr: 0x92300, symSize: 0x30 }
  - { offset: 0x106E16, size: 0x8, addend: 0x0, symName: __RNCNvNtNtCssR9xeAO3IU_12serde_derive2de15enum_externally11deserializes0_0B7_, symObjAddr: 0x6160, symBinAddr: 0x92330, symSize: 0x30 }
  - { offset: 0x106E4C, size: 0x8, addend: 0x0, symName: __RNCNvNtNtCssR9xeAO3IU_12serde_derive2de15enum_externally11deserializes_0B7_, symObjAddr: 0x6190, symBinAddr: 0x92360, symSize: 0x270 }
  - { offset: 0x106F46, size: 0x8, addend: 0x0, symName: __RNCNvNtNtCssR9xeAO3IU_12serde_derive2de15enum_externally29wrap_deserialize_variant_with0B7_, symObjAddr: 0x6400, symBinAddr: 0x925D0, symSize: 0x20 }
  - { offset: 0x106F84, size: 0x8, addend: 0x0, symName: __RNvNtNtCssR9xeAO3IU_12serde_derive2de15enum_externally11deserialize, symObjAddr: 0x9900, symBinAddr: 0x95AD0, symSize: 0x1F10 }
  - { offset: 0x107366, size: 0x8, addend: 0x0, symName: __RNvNtNtCssR9xeAO3IU_12serde_derive2de15enum_externally29wrap_deserialize_variant_with, symObjAddr: 0xB810, symBinAddr: 0x979E0, symSize: 0x450 }
  - { offset: 0x1074D4, size: 0x8, addend: 0x0, symName: __RNvNtNtCssR9xeAO3IU_12serde_derive2de15enum_externally37deserialize_externally_tagged_variant, symObjAddr: 0xBC60, symBinAddr: 0x97E30, symSize: 0x970 }
  - { offset: 0x107617, size: 0x8, addend: 0x0, symName: __RNvNtNtCssR9xeAO3IU_12serde_derive2de15enum_externally45deserialize_externally_tagged_newtype_variant, symObjAddr: 0xC5D0, symBinAddr: 0x987A0, symSize: 0xEA0 }
  - { offset: 0x107851, size: 0x8, addend: 0x0, symName: __RNvNtNtCssR9xeAO3IU_12serde_derive2de4unit11deserialize, symObjAddr: 0xD470, symBinAddr: 0x99640, symSize: 0x15A0 }
  - { offset: 0x107C87, size: 0x8, addend: 0x0, symName: __RNCNvXNtCssR9xeAO3IU_12serde_derive8fragmentNtB4_4ExprNtNtCs9OU1sGv5X54_5quote9to_tokens8ToTokens9to_tokens0B6_, symObjAddr: 0x6420, symBinAddr: 0x925F0, symSize: 0x30 }
  - { offset: 0x107CC0, size: 0x8, addend: 0x0, symName: __RNvXNtCssR9xeAO3IU_12serde_derive8fragmentNtB2_4ExprNtNtCs9OU1sGv5X54_5quote9to_tokens8ToTokens9to_tokens, symObjAddr: 0xEC70, symBinAddr: 0x9AE40, symSize: 0x80 }
  - { offset: 0x107D33, size: 0x8, addend: 0x0, symName: __RNCNvXs0_NtCssR9xeAO3IU_12serde_derive8fragmentNtB7_5MatchNtNtCs9OU1sGv5X54_5quote9to_tokens8ToTokens9to_tokens0B9_, symObjAddr: 0x6450, symBinAddr: 0x92620, symSize: 0x30 }
  - { offset: 0x107D6C, size: 0x8, addend: 0x0, symName: __RNvXs0_NtCssR9xeAO3IU_12serde_derive8fragmentNtB5_5MatchNtNtCs9OU1sGv5X54_5quote9to_tokens8ToTokens9to_tokens, symObjAddr: 0xF000, symBinAddr: 0x9B1D0, symSize: 0xA0 }
  - { offset: 0x107DDA, size: 0x8, addend: 0x0, symName: __RNvXs_NtCssR9xeAO3IU_12serde_derive8fragmentNtB4_5StmtsNtNtCs9OU1sGv5X54_5quote9to_tokens8ToTokens9to_tokens, symObjAddr: 0xF640, symBinAddr: 0x9B810, symSize: 0x70 }
  - { offset: 0x107EDF, size: 0x8, addend: 0x0, symName: __RNvCssR9xeAO3IU_12serde_derive16derive_serialize, symObjAddr: 0x6510, symBinAddr: 0x926E0, symSize: 0x1B0 }
  - { offset: 0x107F55, size: 0x8, addend: 0x0, symName: __RNvCssR9xeAO3IU_12serde_derive18derive_deserialize, symObjAddr: 0x66C0, symBinAddr: 0x92890, symSize: 0x1B0 }
  - { offset: 0x107FEE, size: 0x8, addend: 0x0, symName: __RNvXs_CssR9xeAO3IU_12serde_deriveNtB4_7privateNtNtCs9OU1sGv5X54_5quote9to_tokens8ToTokens9to_tokens, symObjAddr: 0xF600, symBinAddr: 0x9B7D0, symSize: 0x40 }
  - { offset: 0x10D472, size: 0x8, addend: 0x0, symName: __RINvNtCsieiGu2EXtoJ_4core3ptr13drop_in_placeANtCsaKzlTDPUHDb_11proc_macro211TokenStreamj1_ECssR9xeAO3IU_12serde_derive, symObjAddr: 0x280, symBinAddr: 0x8C4D0, symSize: 0x90 }
  - { offset: 0x10D4A1, size: 0x8, addend: 0x0, symName: __RINvNtCsieiGu2EXtoJ_4core3ptr13drop_in_placeINtNtB4_4cell10UnsafeCellINtNtB4_6option6OptionINtNtCslJiobkLta79_5alloc3vec3VecNtNtCsdGrGZaRBwMb_3syn5error5ErrorEEEECssR9xeAO3IU_12serde_derive, symObjAddr: 0x390, symBinAddr: 0x8C560, symSize: 0x20 }
  - { offset: 0x10D4D0, size: 0x8, addend: 0x0, symName: __RINvNtCsieiGu2EXtoJ_4core3ptr13drop_in_placeINtNtB4_4cell10UnsafeCellNtNtNtCscKtU6MdFI5n_10proc_macro6bridge6client6BridgeEECssR9xeAO3IU_12serde_derive, symObjAddr: 0x3B0, symBinAddr: 0x8C580, symSize: 0x20 }
  - { offset: 0x10D4FF, size: 0x8, addend: 0x0, symName: __RINvNtCsieiGu2EXtoJ_4core3ptr13drop_in_placeINtNtB4_4cell3RefINtNtB4_6option6OptionINtNtCslJiobkLta79_5alloc3vec3VecNtNtCsdGrGZaRBwMb_3syn5error5ErrorEEEECssR9xeAO3IU_12serde_derive, symObjAddr: 0x3D0, symBinAddr: 0x8C5A0, symSize: 0x20 }
  - { offset: 0x10D52E, size: 0x8, addend: 0x0, symName: __RINvNtCsieiGu2EXtoJ_4core3ptr13drop_in_placeINtNtB4_4cell6RefMutINtNtB4_6option6OptionINtNtCslJiobkLta79_5alloc3vec3VecNtNtCsdGrGZaRBwMb_3syn5error5ErrorEEEECssR9xeAO3IU_12serde_derive, symObjAddr: 0x3F0, symBinAddr: 0x8C5C0, symSize: 0x20 }
  - { offset: 0x10D55D, size: 0x8, addend: 0x0, symName: __RINvNtCsieiGu2EXtoJ_4core3ptr13drop_in_placeINtNtB4_4cell7RefCellINtNtB4_6option6OptionINtNtCslJiobkLta79_5alloc3vec3VecNtNtCsdGrGZaRBwMb_3syn5error5ErrorEEEECssR9xeAO3IU_12serde_derive, symObjAddr: 0x410, symBinAddr: 0x8C5E0, symSize: 0x20 }
  - { offset: 0x10D58C, size: 0x8, addend: 0x0, symName: __RINvNtCsieiGu2EXtoJ_4core3ptr13drop_in_placeINtNtB4_4cell7RefCellNtNtNtCscKtU6MdFI5n_10proc_macro6bridge6client6BridgeEECssR9xeAO3IU_12serde_derive, symObjAddr: 0x430, symBinAddr: 0x8C600, symSize: 0x20 }
  - { offset: 0x10D5BB, size: 0x8, addend: 0x0, symName: __RINvNtCsieiGu2EXtoJ_4core3ptr13drop_in_placeINtNtB4_6option4ItemNtNtCsdGrGZaRBwMb_3syn8generics12GenericParamEECssR9xeAO3IU_12serde_derive, symObjAddr: 0x450, symBinAddr: 0x8C620, symSize: 0x20 }
  - { offset: 0x10D5EA, size: 0x8, addend: 0x0, symName: __RINvNtCsieiGu2EXtoJ_4core3ptr13drop_in_placeINtNtB4_6option6OptionINtBJ_8IntoIterNtNtCsdGrGZaRBwMb_3syn8generics12GenericParamEEECssR9xeAO3IU_12serde_derive, symObjAddr: 0x470, symBinAddr: 0x8C640, symSize: 0x40 }
  - { offset: 0x10D619, size: 0x8, addend: 0x0, symName: __RINvNtCsieiGu2EXtoJ_4core3ptr13drop_in_placeINtNtB4_6option6OptionINtNtCsdGrGZaRBwMb_3syn10punctuated8IntoIterNtNtB17_8generics12GenericParamEEECssR9xeAO3IU_12serde_derive, symObjAddr: 0x4B0, symBinAddr: 0x8C680, symSize: 0x40 }
  - { offset: 0x10D648, size: 0x8, addend: 0x0, symName: __RINvNtCsieiGu2EXtoJ_4core3ptr13drop_in_placeINtNtB4_6option6OptionINtNtCslJiobkLta79_5alloc3vec3VecNtNtCsdGrGZaRBwMb_3syn5error5ErrorEEECssR9xeAO3IU_12serde_derive, symObjAddr: 0x4F0, symBinAddr: 0x8C6C0, symSize: 0x40 }
  - { offset: 0x10D677, size: 0x8, addend: 0x0, symName: __RINvNtCsieiGu2EXtoJ_4core3ptr13drop_in_placeINtNtB4_6option6OptionINtNtCslJiobkLta79_5alloc3vec3VecNtNtCsdGrGZaRBwMb_3syn8generics14WherePredicateEEECssR9xeAO3IU_12serde_derive, symObjAddr: 0x530, symBinAddr: 0x8C700, symSize: 0x40 }
  - { offset: 0x10D6A6, size: 0x8, addend: 0x0, symName: __RINvNtCsieiGu2EXtoJ_4core3ptr13drop_in_placeINtNtB4_6option6OptionINtNtNtCslJiobkLta79_5alloc3vec9into_iter8IntoIterNtNtCsdGrGZaRBwMb_3syn8generics14WherePredicateEEECssR9xeAO3IU_12serde_derive, symObjAddr: 0x570, symBinAddr: 0x8C740, symSize: 0x40 }
  - { offset: 0x10D6D5, size: 0x8, addend: 0x0, symName: __RINvNtCsieiGu2EXtoJ_4core3ptr13drop_in_placeINtNtB4_6option6OptionINtNtNtNtB4_4iter8adapters3map3MapINtNtB17_10filter_map9FilterMapINtNtCslJiobkLta79_5alloc5boxed3BoxDNtNtNtB19_6traits8iterator8Iteratorp4ItemRNtNtNtCssR9xeAO3IU_12serde_derive9internals3ast5FieldEL_ENCNvNtB3r_5bound33with_where_predicates_from_fields0ENvMNtB2a_5sliceSNtNtCsdGrGZaRBwMb_3syn8generics14WherePredicate6to_vecEEEB3r_, symObjAddr: 0x5B0, symBinAddr: 0x8C780, symSize: 0x40 }
  - { offset: 0x10D704, size: 0x8, addend: 0x0, symName: __RINvNtCsieiGu2EXtoJ_4core3ptr13drop_in_placeINtNtB4_6option6OptionINtNtNtNtB4_4iter8adapters3map3MapINtNtB17_6cloned6ClonedINtNtCsdGrGZaRBwMb_3syn10punctuated4IterNtNtB22_8generics12GenericParamEENCNvNtCssR9xeAO3IU_12serde_derive5bound19with_lifetime_bound0EEEB3e_, symObjAddr: 0x5F0, symBinAddr: 0x8C7C0, symSize: 0x40 }
  - { offset: 0x10D733, size: 0x8, addend: 0x0, symName: __RINvNtCsieiGu2EXtoJ_4core3ptr13drop_in_placeINtNtB4_6option6OptionINtNtNtNtB4_4iter8adapters3map3MapINtNtB17_6filter6FilterIB13_NtNtCsdGrGZaRBwMb_3syn8generics10TypeParamsNCNvNtCssR9xeAO3IU_12serde_derive5bound10with_bounds1_0ENCB2L_s2_0ENCB2L_s3_0EEEB2P_, symObjAddr: 0x630, symBinAddr: 0x8C800, symSize: 0x40 }
  - { offset: 0x10D762, size: 0x8, addend: 0x0, symName: __RINvNtCsieiGu2EXtoJ_4core3ptr13drop_in_placeINtNtB4_6option6OptionINtNtNtNtB4_4iter8adapters6cloned6ClonedINtNtNtCslJiobkLta79_5alloc3vec9into_iter8IntoIterRNtNtCsdGrGZaRBwMb_3syn2ty8TypePathEEEECssR9xeAO3IU_12serde_derive, symObjAddr: 0x670, symBinAddr: 0x8C840, symSize: 0x40 }
  - { offset: 0x10D791, size: 0x8, addend: 0x0, symName: __RINvNtCsieiGu2EXtoJ_4core3ptr13drop_in_placeINtNtB4_6option6OptionINtNtNtNtCslJiobkLta79_5alloc11collections5btree3set8BTreeSetNtNtCsdGrGZaRBwMb_3syn8lifetime8LifetimeEEECssR9xeAO3IU_12serde_derive, symObjAddr: 0x6B0, symBinAddr: 0x8C880, symSize: 0x30 }
  - { offset: 0x10D7C0, size: 0x8, addend: 0x0, symName: __RINvNtCsieiGu2EXtoJ_4core3ptr13drop_in_placeINtNtB4_6option6OptionNtNtCsdGrGZaRBwMb_3syn2ty8TypePathEECssR9xeAO3IU_12serde_derive, symObjAddr: 0x6E0, symBinAddr: 0x8C8B0, symSize: 0x40 }
  - { offset: 0x10D7EF, size: 0x8, addend: 0x0, symName: __RINvNtCsieiGu2EXtoJ_4core3ptr13drop_in_placeINtNtB4_6option6OptionNtNtCsdGrGZaRBwMb_3syn4expr8ExprPathEECssR9xeAO3IU_12serde_derive, symObjAddr: 0x720, symBinAddr: 0x8C8F0, symSize: 0x40 }
