---
triple:          'x86_64-apple-darwin'
binary-path:     '/Users/kema/git/rust-serv/target/debug/build/cpp_demangle-92f68cb4f73c05d6/build_script_build-92f68cb4f73c05d6'
relocations:
  - { offset: 0x1E, size: 0x8, addend: 0x0, symName: __RINvMsx_NtNtCsieiGu2EXtoJ_4core3str7patternNtB6_14TwoWaySearcher4nextNtB6_14RejectAndMatchECsfhqpD1X5bFv_18build_script_build, symObjAddr: 0x0, symBinAddr: 0x100000B90, symSize: 0x620 }
  - { offset: 0xAE, size: 0x8, addend: 0x0, symName: __RNvXNvNtCsHUR1vrdMJt_3std2io17default_write_fmtINtB2_7AdapterNtNtB6_2fs4FileENtNtCsieiGu2EXtoJ_4core3fmt5Write9write_strCsfhqpD1X5bFv_18build_script_build, symObjAddr: 0x5290, symBinAddr: 0x100005C00, symSize: 0xA0 }
  - { offset: 0x10A, size: 0x8, addend: 0x0, symName: __RNvXNvNtCsHUR1vrdMJt_3std2io17default_write_fmtINtB2_7AdapterNtNtNtNtB6_3sys5stdio4unix6StderrENtNtCsieiGu2EXtoJ_4core3fmt5Write9write_strCsfhqpD1X5bFv_18build_script_build, symObjAddr: 0x5330, symBinAddr: 0x100005CA0, symSize: 0xA0 }
  - { offset: 0x4D9, size: 0x8, addend: 0x0, symName: __RINvNtCsHUR1vrdMJt_3std2io10read_untilINtNtNtB2_8buffered9bufreader9BufReaderNtNtB4_2fs4FileEECsfhqpD1X5bFv_18build_script_build, symObjAddr: 0xC40, symBinAddr: 0x1000017D0, symSize: 0x440 }
  - { offset: 0x965, size: 0x8, addend: 0x0, symName: __RNCNvYINtNtNtNtCsHUR1vrdMJt_3std2io8buffered9bufreader9BufReaderNtNtBd_2fs4FileENtBb_7BufRead9read_line0CsfhqpD1X5bFv_18build_script_build, symObjAddr: 0x1E50, symBinAddr: 0x1000027C0, symSize: 0x30 }
  - { offset: 0xA24, size: 0x8, addend: 0x0, symName: __RINvNtCsHUR1vrdMJt_3std2io16append_to_stringNCNvYINtNtNtB2_8buffered9bufreader9BufReaderNtNtB4_2fs4FileENtB2_7BufRead9read_line0ECsfhqpD1X5bFv_18build_script_build, symObjAddr: 0x1080, symBinAddr: 0x100001C10, symSize: 0x2A0 }
  - { offset: 0xDB9, size: 0x8, addend: 0x0, symName: __RINvNtCsHUR1vrdMJt_3std2io17default_write_fmtNtNtB4_2fs4FileECsfhqpD1X5bFv_18build_script_build, symObjAddr: 0x1320, symBinAddr: 0x100001EB0, symSize: 0x120 }
  - { offset: 0xE69, size: 0x8, addend: 0x0, symName: __RINvNtCsHUR1vrdMJt_3std2io17default_write_fmtNtNtNtNtB4_3sys5stdio4unix6StderrECsfhqpD1X5bFv_18build_script_build, symObjAddr: 0x1440, symBinAddr: 0x100001FD0, symSize: 0x120 }
  - { offset: 0xF3C, size: 0x8, addend: 0x0, symName: __RNvXsq_NtCsHUR1vrdMJt_3std2ioINtB5_5LinesINtNtNtB5_8buffered9bufreader9BufReaderNtNtB7_2fs4FileEENtNtNtNtCsieiGu2EXtoJ_4core4iter6traits8iterator8Iterator4nextCsfhqpD1X5bFv_18build_script_build, symObjAddr: 0x5B30, symBinAddr: 0x1000064A0, symSize: 0x4A0 }
  - { offset: 0x28DF, size: 0x8, addend: 0x0, symName: __RINvYINtNtCsHUR1vrdMJt_3std2io5LinesINtNtNtB6_8buffered9bufreader9BufReaderNtNtB8_2fs4FileEENtNtNtNtCsieiGu2EXtoJ_4core4iter6traits8iterator8Iterator4findQNCNvCsfhqpD1X5bFv_18build_script_build43generate_compatibility_tests_from_libiberty0EB2x_, symObjAddr: 0x1560, symBinAddr: 0x1000020F0, symSize: 0xC0 }
  - { offset: 0x295E, size: 0x8, addend: 0x0, symName: __RINvYINtNtCsHUR1vrdMJt_3std2io5LinesINtNtNtB6_8buffered9bufreader9BufReaderNtNtB8_2fs4FileEENtNtNtNtCsieiGu2EXtoJ_4core4iter6traits8iterator8Iterator6filterNCNvCsfhqpD1X5bFv_18build_script_build43generate_compatibility_tests_from_libiberty0EB2y_, symObjAddr: 0x1620, symBinAddr: 0x1000021B0, symSize: 0x30 }
  - { offset: 0x29C3, size: 0x8, addend: 0x0, symName: __RINvYINtNtCsHUR1vrdMJt_3std2io5LinesINtNtNtB6_8buffered9bufreader9BufReaderNtNtB8_2fs4FileEENtNtNtNtCsieiGu2EXtoJ_4core4iter6traits8iterator8Iterator8try_folduNCINvNvB1s_4find5checkINtNtB1A_6result6ResultNtNtCslJiobkLta79_5alloc6string6StringNtNtB6_5error5ErrorEQNCNvCsfhqpD1X5bFv_18build_script_build43generate_compatibility_tests_from_libiberty0E0INtNtNtB1A_3ops12control_flow11ControlFlowB2T_EEB4h_, symObjAddr: 0x1650, symBinAddr: 0x1000021E0, symSize: 0x190 }
  - { offset: 0x340D, size: 0x8, addend: 0x0, symName: __RNvXs1_NtNtNtCsieiGu2EXtoJ_4core3ops8function5implsQNCNvCsfhqpD1X5bFv_18build_script_build43generate_compatibility_tests_from_libiberty0INtB7_5FnMutTRINtNtBb_6result6ResultNtNtCslJiobkLta79_5alloc6string6StringNtNtNtCsHUR1vrdMJt_3std2io5error5ErrorEEE8call_mutBS_, symObjAddr: 0x53D0, symBinAddr: 0x100005D40, symSize: 0x30 }
  - { offset: 0x3E49, size: 0x8, addend: 0x0, symName: __RNCNvNtNtCsieiGu2EXtoJ_4core3str7pattern13simd_contains0CsfhqpD1X5bFv_18build_script_build, symObjAddr: 0x1980, symBinAddr: 0x100002510, symSize: 0x60 }
  - { offset: 0x3EAF, size: 0x8, addend: 0x0, symName: __RNCNvNtNtCsieiGu2EXtoJ_4core3str7pattern13simd_containss0_0CsfhqpD1X5bFv_18build_script_build, symObjAddr: 0x19E0, symBinAddr: 0x1000559C0, symSize: 0x220 }
  - { offset: 0x412C, size: 0x8, addend: 0x0, symName: __RNCNvNtNtCsieiGu2EXtoJ_4core3str7pattern13simd_containss1_0CsfhqpD1X5bFv_18build_script_build, symObjAddr: 0x1C00, symBinAddr: 0x100002570, symSize: 0x1D0 }
  - { offset: 0x4474, size: 0x8, addend: 0x0, symName: __RNCNvNtNtCsieiGu2EXtoJ_4core3str7pattern13simd_containss_0CsfhqpD1X5bFv_18build_script_build, symObjAddr: 0x1DD0, symBinAddr: 0x100002740, symSize: 0x80 }
  - { offset: 0x4602, size: 0x8, addend: 0x0, symName: __RNvNtNtCsieiGu2EXtoJ_4core3str7pattern13simd_containsCsfhqpD1X5bFv_18build_script_build, symObjAddr: 0x4600, symBinAddr: 0x100004F70, symSize: 0x9D0 }
  - { offset: 0x4C8B, size: 0x8, addend: 0x0, symName: __RNvNtNtCsieiGu2EXtoJ_4core3str7pattern14small_slice_eqCsfhqpD1X5bFv_18build_script_build, symObjAddr: 0x4FD0, symBinAddr: 0x100005940, symSize: 0x2C0 }
  - { offset: 0x507B, size: 0x8, addend: 0x0, symName: __RNvXst_NtNtCsieiGu2EXtoJ_4core3str7patternReNtB5_7Pattern13into_searcherCsfhqpD1X5bFv_18build_script_build, symObjAddr: 0x5FD0, symBinAddr: 0x100006940, symSize: 0x50 }
  - { offset: 0x50B8, size: 0x8, addend: 0x0, symName: __RNvXst_NtNtCsieiGu2EXtoJ_4core3str7patternReNtB5_7Pattern15as_utf8_patternCsfhqpD1X5bFv_18build_script_build, symObjAddr: 0x6020, symBinAddr: 0x100006990, symSize: 0x40 }
  - { offset: 0x5110, size: 0x8, addend: 0x0, symName: __RNvXst_NtNtCsieiGu2EXtoJ_4core3str7patternReNtB5_7Pattern15is_contained_inCsfhqpD1X5bFv_18build_script_build, symObjAddr: 0x6060, symBinAddr: 0x1000069D0, symSize: 0x2F0 }
  - { offset: 0x53FA, size: 0x8, addend: 0x0, symName: __RNvXs2_NtNtCsieiGu2EXtoJ_4core3str7patterncNtB5_7Pattern12is_prefix_ofCsfhqpD1X5bFv_18build_script_build, symObjAddr: 0x5400, symBinAddr: 0x100005D70, symSize: 0x80 }
  - { offset: 0x54D4, size: 0x8, addend: 0x0, symName: __RNvXs7_NtNtCsieiGu2EXtoJ_4core3str7patternINtB5_18MultiCharEqPatternNvMNtNtB9_4char7methodsc13is_whitespaceENtB5_7Pattern13into_searcherCsfhqpD1X5bFv_18build_script_build, symObjAddr: 0x5480, symBinAddr: 0x100005DF0, symSize: 0xB0 }
  - { offset: 0x5536, size: 0x8, addend: 0x0, symName: __RNvXs8_NtNtCsieiGu2EXtoJ_4core3str7patternINtB5_19MultiCharEqSearcherNvMNtNtB9_4char7methodsc13is_whitespaceENtB5_8Searcher4nextCsfhqpD1X5bFv_18build_script_build, symObjAddr: 0x5530, symBinAddr: 0x100005EA0, symSize: 0x160 }
  - { offset: 0x5664, size: 0x8, addend: 0x0, symName: __RNvXs9_NtNtCsieiGu2EXtoJ_4core3str7patternINtB5_19MultiCharEqSearcherNvMNtNtB9_4char7methodsc13is_whitespaceENtB5_15ReverseSearcher9next_backCsfhqpD1X5bFv_18build_script_build, symObjAddr: 0x5690, symBinAddr: 0x100006000, symSize: 0x160 }
  - { offset: 0x5792, size: 0x8, addend: 0x0, symName: __RNvXso_NtNtCsieiGu2EXtoJ_4core3str7patternINtB5_21CharPredicateSearcherNvMNtNtB9_4char7methodsc13is_whitespaceENtB5_8Searcher11next_rejectCsfhqpD1X5bFv_18build_script_build, symObjAddr: 0x5AD0, symBinAddr: 0x100006440, symSize: 0x30 }
  - { offset: 0x57CF, size: 0x8, addend: 0x0, symName: __RNvXsp_NtNtCsieiGu2EXtoJ_4core3str7patternINtB5_21CharPredicateSearcherNvMNtNtB9_4char7methodsc13is_whitespaceENtB5_15ReverseSearcher16next_reject_backCsfhqpD1X5bFv_18build_script_build, symObjAddr: 0x5B00, symBinAddr: 0x100006470, symSize: 0x30 }
  - { offset: 0x58DA, size: 0x8, addend: 0x0, symName: __RNvXsv_NtNtCsieiGu2EXtoJ_4core3str7patternNtB5_11StrSearcherNtB5_8Searcher10next_matchCsfhqpD1X5bFv_18build_script_build, symObjAddr: 0x6350, symBinAddr: 0x100006CC0, symSize: 0x170 }
  - { offset: 0x5967, size: 0x8, addend: 0x0, symName: __RNvXsv_NtNtCsieiGu2EXtoJ_4core3str7patternNtB5_11StrSearcherNtB5_8Searcher4nextCsfhqpD1X5bFv_18build_script_build, symObjAddr: 0x64C0, symBinAddr: 0x100006E30, symSize: 0x500 }
  - { offset: 0x5C73, size: 0x8, addend: 0x0, symName: __RNvXsv_NtNtCsieiGu2EXtoJ_4core3str7patternNtB5_11StrSearcherNtB5_8Searcher8haystackCsfhqpD1X5bFv_18build_script_build, symObjAddr: 0x69C0, symBinAddr: 0x100007330, symSize: 0x20 }
  - { offset: 0x5CA7, size: 0x8, addend: 0x0, symName: __RNvXsy_NtNtCsieiGu2EXtoJ_4core3str7patternNtB5_9MatchOnlyNtB5_14TwoWayStrategy16use_early_rejectCsfhqpD1X5bFv_18build_script_build, symObjAddr: 0x69E0, symBinAddr: 0x100007350, symSize: 0x10 }
  - { offset: 0x5CC5, size: 0x8, addend: 0x0, symName: __RNvXsy_NtNtCsieiGu2EXtoJ_4core3str7patternNtB5_9MatchOnlyNtB5_14TwoWayStrategy8matchingCsfhqpD1X5bFv_18build_script_build, symObjAddr: 0x69F0, symBinAddr: 0x100007360, symSize: 0x20 }
  - { offset: 0x5D02, size: 0x8, addend: 0x0, symName: __RNvXsy_NtNtCsieiGu2EXtoJ_4core3str7patternNtB5_9MatchOnlyNtB5_14TwoWayStrategy9rejectingCsfhqpD1X5bFv_18build_script_build, symObjAddr: 0x6A10, symBinAddr: 0x100007380, symSize: 0x20 }
  - { offset: 0x5D45, size: 0x8, addend: 0x0, symName: __RNvXsz_NtNtCsieiGu2EXtoJ_4core3str7patternNtB5_14RejectAndMatchNtB5_14TwoWayStrategy16use_early_rejectCsfhqpD1X5bFv_18build_script_build, symObjAddr: 0x6A30, symBinAddr: 0x1000073A0, symSize: 0x10 }
  - { offset: 0x5D63, size: 0x8, addend: 0x0, symName: __RNvXsz_NtNtCsieiGu2EXtoJ_4core3str7patternNtB5_14RejectAndMatchNtB5_14TwoWayStrategy8matchingCsfhqpD1X5bFv_18build_script_build, symObjAddr: 0x6A40, symBinAddr: 0x1000073B0, symSize: 0x20 }
  - { offset: 0x5DA0, size: 0x8, addend: 0x0, symName: __RNvXsz_NtNtCsieiGu2EXtoJ_4core3str7patternNtB5_14RejectAndMatchNtB5_14TwoWayStrategy9rejectingCsfhqpD1X5bFv_18build_script_build, symObjAddr: 0x6A60, symBinAddr: 0x1000073D0, symSize: 0x20 }
  - { offset: 0x5DE3, size: 0x8, addend: 0x0, symName: __RNvYINtNtNtCsieiGu2EXtoJ_4core3str7pattern19MultiCharEqSearcherNvMNtNtB9_4char7methodsc13is_whitespaceENtB5_15ReverseSearcher16next_reject_backCsfhqpD1X5bFv_18build_script_build, symObjAddr: 0x6A80, symBinAddr: 0x1000073F0, symSize: 0x90 }
  - { offset: 0x5E4E, size: 0x8, addend: 0x0, symName: __RNvYINtNtNtCsieiGu2EXtoJ_4core3str7pattern19MultiCharEqSearcherNvMNtNtB9_4char7methodsc13is_whitespaceENtB5_8Searcher11next_rejectCsfhqpD1X5bFv_18build_script_build, symObjAddr: 0x6B10, symBinAddr: 0x100007480, symSize: 0x90 }
  - { offset: 0x655E, size: 0x8, addend: 0x0, symName: __RNvXs_NvNtNtCsieiGu2EXtoJ_4core3fmt5Write9write_fmtQINtNvNtCsHUR1vrdMJt_3std2io17default_write_fmt7AdapterNtNtBV_2fs4FileENtB4_12SpecWriteFmt14spec_write_fmtCsfhqpD1X5bFv_18build_script_build, symObjAddr: 0x57F0, symBinAddr: 0x100006160, symSize: 0x170 }
  - { offset: 0x6613, size: 0x8, addend: 0x0, symName: __RNvXs_NvNtNtCsieiGu2EXtoJ_4core3fmt5Write9write_fmtQINtNvNtCsHUR1vrdMJt_3std2io17default_write_fmt7AdapterNtNtNtNtBV_3sys5stdio4unix6StderrENtB4_12SpecWriteFmt14spec_write_fmtCsfhqpD1X5bFv_18build_script_build, symObjAddr: 0x5960, symBinAddr: 0x1000062D0, symSize: 0x170 }
  - { offset: 0x66CA, size: 0x8, addend: 0x0, symName: __RNvYINtNvNtCsHUR1vrdMJt_3std2io17default_write_fmt7AdapterNtNtB9_2fs4FileENtNtCsieiGu2EXtoJ_4core3fmt5Write10write_charCsfhqpD1X5bFv_18build_script_build, symObjAddr: 0x6BA0, symBinAddr: 0x100007510, symSize: 0x70 }
  - { offset: 0x6732, size: 0x8, addend: 0x0, symName: __RNvYINtNvNtCsHUR1vrdMJt_3std2io17default_write_fmt7AdapterNtNtB9_2fs4FileENtNtCsieiGu2EXtoJ_4core3fmt5Write9write_fmtCsfhqpD1X5bFv_18build_script_build, symObjAddr: 0x6C10, symBinAddr: 0x100007580, symSize: 0x20 }
  - { offset: 0x6776, size: 0x8, addend: 0x0, symName: __RNvYINtNvNtCsHUR1vrdMJt_3std2io17default_write_fmt7AdapterNtNtNtNtB9_3sys5stdio4unix6StderrENtNtCsieiGu2EXtoJ_4core3fmt5Write10write_charCsfhqpD1X5bFv_18build_script_build, symObjAddr: 0x6C30, symBinAddr: 0x1000075A0, symSize: 0x70 }
  - { offset: 0x67DE, size: 0x8, addend: 0x0, symName: __RNvYINtNvNtCsHUR1vrdMJt_3std2io17default_write_fmt7AdapterNtNtNtNtB9_3sys5stdio4unix6StderrENtNtCsieiGu2EXtoJ_4core3fmt5Write9write_fmtCsfhqpD1X5bFv_18build_script_build, symObjAddr: 0x6CA0, symBinAddr: 0x100007610, symSize: 0x20 }
  - { offset: 0x6D96, size: 0x8, addend: 0x0, symName: __RINvMsx_NtNtCsieiGu2EXtoJ_4core3str7patternNtB6_14TwoWaySearcher4nextNtB6_14RejectAndMatchECsfhqpD1X5bFv_18build_script_build, symObjAddr: 0x0, symBinAddr: 0x100000B90, symSize: 0x620 }
  - { offset: 0x7133, size: 0x8, addend: 0x0, symName: __RINvMsx_NtNtCsieiGu2EXtoJ_4core3str7patternNtB6_14TwoWaySearcher4nextNtB6_9MatchOnlyECsfhqpD1X5bFv_18build_script_build, symObjAddr: 0x620, symBinAddr: 0x1000011B0, symSize: 0x620 }
  - { offset: 0x7E53, size: 0x8, addend: 0x0, symName: __RNCNCNvCsfhqpD1X5bFv_18build_script_build43generate_compatibility_tests_from_libiberty00B5_, symObjAddr: 0x17E0, symBinAddr: 0x100002370, symSize: 0x40 }
  - { offset: 0x7E91, size: 0x8, addend: 0x0, symName: __RNCNvCsfhqpD1X5bFv_18build_script_build43generate_compatibility_tests_from_libiberty0B3_, symObjAddr: 0x1930, symBinAddr: 0x1000024C0, symSize: 0x50 }
  - { offset: 0x7ECD, size: 0x8, addend: 0x0, symName: __RNCNvCsfhqpD1X5bFv_18build_script_build11get_out_dir0B3_, symObjAddr: 0x1820, symBinAddr: 0x1000023B0, symSize: 0x70 }
  - { offset: 0x7F0D, size: 0x8, addend: 0x0, symName: __RNCNvCsfhqpD1X5bFv_18build_script_build13get_crate_dir0B3_, symObjAddr: 0x1890, symBinAddr: 0x100002420, symSize: 0x70 }
  - { offset: 0x7F4D, size: 0x8, addend: 0x0, symName: __RNCNvCsfhqpD1X5bFv_18build_script_build36generate_sanity_tests_from_afl_seeds0B3_, symObjAddr: 0x1900, symBinAddr: 0x100002490, symSize: 0x30 }
  - { offset: 0x7F7D, size: 0x8, addend: 0x0, symName: __RNvCsfhqpD1X5bFv_18build_script_build11get_out_dir, symObjAddr: 0x1E80, symBinAddr: 0x1000027F0, symSize: 0xF0 }
  - { offset: 0x7FB8, size: 0x8, addend: 0x0, symName: __RNvCsfhqpD1X5bFv_18build_script_build13get_crate_dir, symObjAddr: 0x1F70, symBinAddr: 0x1000028E0, symSize: 0xF0 }
  - { offset: 0x7FF3, size: 0x8, addend: 0x0, symName: __RNvCsfhqpD1X5bFv_18build_script_build13get_test_path, symObjAddr: 0x2060, symBinAddr: 0x1000029D0, symSize: 0x1E0 }
  - { offset: 0x8070, size: 0x8, addend: 0x0, symName: __RNvCsfhqpD1X5bFv_18build_script_build19get_crate_test_path, symObjAddr: 0x2240, symBinAddr: 0x100002BB0, symSize: 0x200 }
  - { offset: 0x80ED, size: 0x8, addend: 0x0, symName: __RNvCsfhqpD1X5bFv_18build_script_build36generate_sanity_tests_from_afl_seeds, symObjAddr: 0x2440, symBinAddr: 0x100002DB0, symSize: 0xC30 }
  - { offset: 0x837F, size: 0x8, addend: 0x0, symName: __RNvCsfhqpD1X5bFv_18build_script_build43generate_compatibility_tests_from_libiberty, symObjAddr: 0x3070, symBinAddr: 0x1000039E0, symSize: 0x1520 }
  - { offset: 0x86F0, size: 0x8, addend: 0x0, symName: __RNvCsfhqpD1X5bFv_18build_script_build4main, symObjAddr: 0x4590, symBinAddr: 0x100004F00, symSize: 0x70 }
  - { offset: 0x8F68, size: 0x8, addend: 0x0, symName: __RINvMs6_NtCsjK30CmJ87bX_9hashbrown3rawINtB6_8RawTableTluEE14reserve_rehashNCINvNtB8_3map11make_hasherluNtNtNtCsHUR1vrdMJt_3std4hash6random11RandomStateE0ECsfhqpD1X5bFv_18build_script_build, symObjAddr: 0x0, symBinAddr: 0x100055BE0, symSize: 0xD50 }
  - { offset: 0x8FA4, size: 0x8, addend: 0x0, symName: __RNCINvMs6_NtCsjK30CmJ87bX_9hashbrown3rawINtB8_8RawTableTluEE14reserve_rehashNCINvNtBa_3map11make_hasherluNtNtNtCsHUR1vrdMJt_3std4hash6random11RandomStateE0E0CsfhqpD1X5bFv_18build_script_build, symObjAddr: 0x1BB0, symBinAddr: 0x1000084B0, symSize: 0xB0 }
  - { offset: 0x9170, size: 0x8, addend: 0x0, symName: __RNCINvMs6_NtCsjK30CmJ87bX_9hashbrown3rawINtB8_8RawTableTluEE24find_or_find_insert_slotNCINvNtBa_3map14equivalent_keylluE0NCINvB1r_11make_hasherluNtNtNtCsHUR1vrdMJt_3std4hash6random11RandomStateE0E0CsfhqpD1X5bFv_18build_script_build, symObjAddr: 0x1C60, symBinAddr: 0x100008560, symSize: 0xB0 }
  - { offset: 0x934C, size: 0x8, addend: 0x0, symName: __RNCINvMs6_NtCsjK30CmJ87bX_9hashbrown3rawINtB8_8RawTableTluEE4findNCINvNtBa_3map14equivalent_keylluE0E0CsfhqpD1X5bFv_18build_script_build, symObjAddr: 0x1D10, symBinAddr: 0x100008610, symSize: 0xB0 }
  - { offset: 0x9C59, size: 0x8, addend: 0x0, symName: __RNCINvMsa_NtCsjK30CmJ87bX_9hashbrown3rawNtB8_13RawTableInner14prepare_resizeNtNtCslJiobkLta79_5alloc5alloc6GlobalE0CsfhqpD1X5bFv_18build_script_build, symObjAddr: 0x1DC0, symBinAddr: 0x1000086C0, symSize: 0xD0 }
  - { offset: 0x9E27, size: 0x8, addend: 0x0, symName: __RNCNvMsa_NtCsjK30CmJ87bX_9hashbrown3rawNtB7_13RawTableInner15rehash_in_place0CsfhqpD1X5bFv_18build_script_build, symObjAddr: 0x1E90, symBinAddr: 0x100008790, symSize: 0x250 }
  - { offset: 0xA362, size: 0x8, addend: 0x0, symName: __RNvNtCsjK30CmJ87bX_9hashbrown3raw19capacity_to_bucketsCsfhqpD1X5bFv_18build_script_build, symObjAddr: 0x3640, symBinAddr: 0x100009F40, symSize: 0x280 }
  - { offset: 0xA578, size: 0x8, addend: 0x0, symName: __RNvXsg_NtCsjK30CmJ87bX_9hashbrown3rawINtB5_8RawTableTluEENtNtNtCsieiGu2EXtoJ_4core3ops4drop4Drop4dropCsfhqpD1X5bFv_18build_script_build, symObjAddr: 0x38C0, symBinAddr: 0x10000A1C0, symSize: 0x30 }
  - { offset: 0xD93E, size: 0x8, addend: 0x0, symName: __RINvMs6_NtCsjK30CmJ87bX_9hashbrown3rawINtB6_8RawTableTluEE14reserve_rehashNCINvNtB8_3map11make_hasherluNtNtNtCsHUR1vrdMJt_3std4hash6random11RandomStateE0ECsfhqpD1X5bFv_18build_script_build, symObjAddr: 0x0, symBinAddr: 0x100055BE0, symSize: 0xD50 }
  - { offset: 0xE411, size: 0x8, addend: 0x0, symName: __RINvMs6_NtCsjK30CmJ87bX_9hashbrown3rawINtB6_8RawTableTluEE24find_or_find_insert_slotNCINvNtB8_3map14equivalent_keylluE0NCINvB1p_11make_hasherluNtNtNtCsHUR1vrdMJt_3std4hash6random11RandomStateE0ECsfhqpD1X5bFv_18build_script_build, symObjAddr: 0xD50, symBinAddr: 0x100007650, symSize: 0x160 }
  - { offset: 0xE8DB, size: 0x8, addend: 0x0, symName: __RINvMs6_NtCsjK30CmJ87bX_9hashbrown3rawINtB6_8RawTableTluEE4findNCINvNtB8_3map14equivalent_keylluE0ECsfhqpD1X5bFv_18build_script_build, symObjAddr: 0xEB0, symBinAddr: 0x1000077B0, symSize: 0x480 }
  - { offset: 0xEDF4, size: 0x8, addend: 0x0, symName: __RINvMs6_NtCsjK30CmJ87bX_9hashbrown3rawINtB6_8RawTableTluEE7reserveNCINvNtB8_3map11make_hasherluNtNtNtCsHUR1vrdMJt_3std4hash6random11RandomStateE0ECsfhqpD1X5bFv_18build_script_build, symObjAddr: 0x1330, symBinAddr: 0x100007C30, symSize: 0xC0 }
  - { offset: 0xEF68, size: 0x8, addend: 0x0, symName: __RINvMsa_NtCsjK30CmJ87bX_9hashbrown3rawNtB6_13RawTableInner13drop_elementsTluEECsfhqpD1X5bFv_18build_script_build, symObjAddr: 0x13F0, symBinAddr: 0x100007CF0, symSize: 0x30 }
  - { offset: 0xF1BF, size: 0x8, addend: 0x0, symName: __RINvMsa_NtCsjK30CmJ87bX_9hashbrown3rawNtB6_13RawTableInner16drop_inner_tableTluENtNtCslJiobkLta79_5alloc5alloc6GlobalECsfhqpD1X5bFv_18build_script_build, symObjAddr: 0x1420, symBinAddr: 0x100007D20, symSize: 0xD0 }
  - { offset: 0xF3BB, size: 0x8, addend: 0x0, symName: __RINvMsa_NtCsjK30CmJ87bX_9hashbrown3rawNtB6_13RawTableInner17new_uninitializedNtNtCslJiobkLta79_5alloc5alloc6GlobalECsfhqpD1X5bFv_18build_script_build, symObjAddr: 0x14F0, symBinAddr: 0x100007DF0, symSize: 0x290 }
  - { offset: 0xF60F, size: 0x8, addend: 0x0, symName: __RINvMsa_NtCsjK30CmJ87bX_9hashbrown3rawNtB6_13RawTableInner22fallible_with_capacityNtNtCslJiobkLta79_5alloc5alloc6GlobalECsfhqpD1X5bFv_18build_script_build, symObjAddr: 0x1780, symBinAddr: 0x100008080, symSize: 0x430 }
  - { offset: 0xFF0D, size: 0x8, addend: 0x0, symName: __RNvMs1_NtCsjK30CmJ87bX_9hashbrown3rawNtB5_11TableLayout20calculate_layout_forCsfhqpD1X5bFv_18build_script_build, symObjAddr: 0x20E0, symBinAddr: 0x1000089E0, symSize: 0x2F0 }
  - { offset: 0x103B0, size: 0x8, addend: 0x0, symName: __RNvMs6_NtCsjK30CmJ87bX_9hashbrown3rawINtB5_8RawTableTluEE14insert_in_slotCsfhqpD1X5bFv_18build_script_build, symObjAddr: 0x23D0, symBinAddr: 0x100008CD0, symSize: 0x140 }
  - { offset: 0x10859, size: 0x8, addend: 0x0, symName: __RNvMsa_NtCsjK30CmJ87bX_9hashbrown3rawNtB5_13RawTableInner15fix_insert_slotCsfhqpD1X5bFv_18build_script_build, symObjAddr: 0x2510, symBinAddr: 0x100008E10, symSize: 0x140 }
  - { offset: 0x10BF2, size: 0x8, addend: 0x0, symName: __RNvMsa_NtCsjK30CmJ87bX_9hashbrown3rawNtB5_13RawTableInner15rehash_in_placeCsfhqpD1X5bFv_18build_script_build, symObjAddr: 0x2650, symBinAddr: 0x100008F50, symSize: 0x5B0 }
  - { offset: 0x113BE, size: 0x8, addend: 0x0, symName: __RNvMsa_NtCsjK30CmJ87bX_9hashbrown3rawNtB5_13RawTableInner16find_insert_slotCsfhqpD1X5bFv_18build_script_build, symObjAddr: 0x2C00, symBinAddr: 0x100009500, symSize: 0x130 }
  - { offset: 0x115BD, size: 0x8, addend: 0x0, symName: __RNvMsa_NtCsjK30CmJ87bX_9hashbrown3rawNtB5_13RawTableInner19prepare_insert_slotCsfhqpD1X5bFv_18build_script_build, symObjAddr: 0x2D30, symBinAddr: 0x100009630, symSize: 0x60 }
  - { offset: 0x118AE, size: 0x8, addend: 0x0, symName: __RNvMsa_NtCsjK30CmJ87bX_9hashbrown3rawNtB5_13RawTableInner23prepare_rehash_in_placeCsfhqpD1X5bFv_18build_script_build, symObjAddr: 0x2D90, symBinAddr: 0x100009690, symSize: 0x340 }
  - { offset: 0x11FD5, size: 0x8, addend: 0x0, symName: __RNvMsa_NtCsjK30CmJ87bX_9hashbrown3rawNtB5_13RawTableInner25find_insert_slot_in_groupCsfhqpD1X5bFv_18build_script_build, symObjAddr: 0x30D0, symBinAddr: 0x1000099D0, symSize: 0x160 }
  - { offset: 0x122D3, size: 0x8, addend: 0x0, symName: __RNvMsa_NtCsjK30CmJ87bX_9hashbrown3rawNtB5_13RawTableInner30find_or_find_insert_slot_innerCsfhqpD1X5bFv_18build_script_build, symObjAddr: 0x3230, symBinAddr: 0x100009B30, symSize: 0x410 }
  - { offset: 0x12708, size: 0x8, addend: 0x0, symName: __RINvMs0_NtNtNtCsHUR1vrdMJt_3std11collections4hash3setINtB6_7HashSetlE8containslECsfhqpD1X5bFv_18build_script_build, symObjAddr: 0x0, symBinAddr: 0x10000A1F0, symSize: 0x50 }
  - { offset: 0x12C47, size: 0x8, addend: 0x0, symName: __RNvNvMs1_NtNtCsieiGu2EXtoJ_4core3ptr8non_nullINtB7_7NonNullpE13new_unchecked18precondition_checkCsfhqpD1X5bFv_18build_script_build, symObjAddr: 0x2B80, symBinAddr: 0x10000CD30, symSize: 0x90 }
  - { offset: 0x12DE1, size: 0x8, addend: 0x0, symName: __RNvNvMNtNtCsieiGu2EXtoJ_4core3ptr9const_ptrPp20offset_from_unsigned18precondition_checkCsfhqpD1X5bFv_18build_script_build, symObjAddr: 0x2AE0, symBinAddr: 0x10000CC90, symSize: 0xA0 }
  - { offset: 0x12FA7, size: 0x8, addend: 0x0, symName: __RINvNtCsieiGu2EXtoJ_4core3ptr13drop_in_placeINtNtB4_6result6ResultNtNtCslJiobkLta79_5alloc6string6StringNtNtNtCsHUR1vrdMJt_3std2io5error5ErrorEECsfhqpD1X5bFv_18build_script_build, symObjAddr: 0x4F0, symBinAddr: 0x10000A6A0, symSize: 0x50 }
  - { offset: 0x12FD6, size: 0x8, addend: 0x0, symName: __RINvNtCsieiGu2EXtoJ_4core3ptr13drop_in_placeINtNtB4_6result6ResultRShNtNtNtCsHUR1vrdMJt_3std2io5error5ErrorEECsfhqpD1X5bFv_18build_script_build, symObjAddr: 0x540, symBinAddr: 0x10000A6F0, symSize: 0x40 }
  - { offset: 0x13005, size: 0x8, addend: 0x0, symName: __RINvNtCsieiGu2EXtoJ_4core3ptr13drop_in_placeINtNtB4_6result6ResultjNtNtNtCsHUR1vrdMJt_3std2io5error5ErrorEECsfhqpD1X5bFv_18build_script_build, symObjAddr: 0x580, symBinAddr: 0x10000A730, symSize: 0x30 }
  - { offset: 0x13034, size: 0x8, addend: 0x0, symName: __RINvNtCsieiGu2EXtoJ_4core3ptr13drop_in_placeINtNtB4_6result6ResultuNtNtNtCsHUR1vrdMJt_3std2io5error5ErrorEECsfhqpD1X5bFv_18build_script_build, symObjAddr: 0x5B0, symBinAddr: 0x10000A760, symSize: 0x40 }
  - { offset: 0x13063, size: 0x8, addend: 0x0, symName: __RINvNtCsieiGu2EXtoJ_4core3ptr13drop_in_placeINtNtCsHUR1vrdMJt_3std2io5LinesINtNtNtBJ_8buffered9bufreader9BufReaderNtNtBL_2fs4FileEEECsfhqpD1X5bFv_18build_script_build, symObjAddr: 0x5F0, symBinAddr: 0x10000A7A0, symSize: 0x20 }
  - { offset: 0x13092, size: 0x8, addend: 0x0, symName: __RINvNtCsieiGu2EXtoJ_4core3ptr13drop_in_placeINtNtCsjK30CmJ87bX_9hashbrown10scopeguard10ScopeGuardNtNtBL_3raw13RawTableInnerNCINvMsa_B1z_B1x_14prepare_resizeNtNtCslJiobkLta79_5alloc5alloc6GlobalE0EECsfhqpD1X5bFv_18build_script_build, symObjAddr: 0x610, symBinAddr: 0x10000A7C0, symSize: 0x20 }
  - { offset: 0x130C1, size: 0x8, addend: 0x0, symName: __RINvNtCsieiGu2EXtoJ_4core3ptr13drop_in_placeINtNtCsjK30CmJ87bX_9hashbrown10scopeguard10ScopeGuardQNtNtBL_3raw13RawTableInnerNCNvMsa_B1A_B1y_15rehash_in_place0EECsfhqpD1X5bFv_18build_script_build, symObjAddr: 0x630, symBinAddr: 0x10000A7E0, symSize: 0x20 }
  - { offset: 0x130F0, size: 0x8, addend: 0x0, symName: __RINvNtCsieiGu2EXtoJ_4core3ptr13drop_in_placeINtNtCsjK30CmJ87bX_9hashbrown3map7HashMapluNtNtNtCsHUR1vrdMJt_3std4hash6random11RandomStateEECsfhqpD1X5bFv_18build_script_build, symObjAddr: 0x650, symBinAddr: 0x10000A800, symSize: 0x20 }
  - { offset: 0x1311F, size: 0x8, addend: 0x0, symName: __RINvNtCsieiGu2EXtoJ_4core3ptr13drop_in_placeINtNtCsjK30CmJ87bX_9hashbrown3raw8RawTableTluEEECsfhqpD1X5bFv_18build_script_build, symObjAddr: 0x670, symBinAddr: 0x10000A820, symSize: 0x20 }
  - { offset: 0x1314E, size: 0x8, addend: 0x0, symName: __RINvNtCsieiGu2EXtoJ_4core3ptr13drop_in_placeINtNtCsjK30CmJ87bX_9hashbrown3set7HashSetlNtNtNtCsHUR1vrdMJt_3std4hash6random11RandomStateEECsfhqpD1X5bFv_18build_script_build, symObjAddr: 0x690, symBinAddr: 0x10000A840, symSize: 0x20 }
  - { offset: 0x1317D, size: 0x8, addend: 0x0, symName: __RINvNtCsieiGu2EXtoJ_4core3ptr13drop_in_placeINtNtCslJiobkLta79_5alloc3vec3VechEECsfhqpD1X5bFv_18build_script_build, symObjAddr: 0x6B0, symBinAddr: 0x10000A860, symSize: 0x50 }
  - { offset: 0x131AC, size: 0x8, addend: 0x0, symName: __RINvNtCsieiGu2EXtoJ_4core3ptr13drop_in_placeINtNtCslJiobkLta79_5alloc4sync3ArcNtNtNtNtCsHUR1vrdMJt_3std3sys2fs4unix12InnerReadDirEECsfhqpD1X5bFv_18build_script_build, symObjAddr: 0x700, symBinAddr: 0x10000A8B0, symSize: 0x20 }
  - { offset: 0x131DB, size: 0x8, addend: 0x0, symName: __RINvNtCsieiGu2EXtoJ_4core3ptr13drop_in_placeINtNtCslJiobkLta79_5alloc5boxed3BoxDNtNtB4_5error5ErrorNtNtB4_6marker4SyncNtB1B_4SendEL_EECsfhqpD1X5bFv_18build_script_build, symObjAddr: 0x720, symBinAddr: 0x10000A8D0, symSize: 0x70 }
  - { offset: 0x1320A, size: 0x8, addend: 0x0, symName: __RINvNtCsieiGu2EXtoJ_4core3ptr13drop_in_placeINtNtCslJiobkLta79_5alloc5boxed3BoxNtNtNtCsHUR1vrdMJt_3std2io5error6CustomEECsfhqpD1X5bFv_18build_script_build, symObjAddr: 0x790, symBinAddr: 0x10000A940, symSize: 0x50 }
  - { offset: 0x13239, size: 0x8, addend: 0x0, symName: __RINvNtCsieiGu2EXtoJ_4core3ptr13drop_in_placeINtNtCslJiobkLta79_5alloc5boxed3BoxSINtNtNtB4_3mem12maybe_uninit11MaybeUninithEEECsfhqpD1X5bFv_18build_script_build, symObjAddr: 0x7E0, symBinAddr: 0x10000A990, symSize: 0x20 }
  - { offset: 0x13268, size: 0x8, addend: 0x0, symName: __RINvNtCsieiGu2EXtoJ_4core3ptr13drop_in_placeINtNtCslJiobkLta79_5alloc6borrow3CoweEECsfhqpD1X5bFv_18build_script_build, symObjAddr: 0x800, symBinAddr: 0x10000A9B0, symSize: 0x40 }
  - { offset: 0x13297, size: 0x8, addend: 0x0, symName: __RINvNtCsieiGu2EXtoJ_4core3ptr13drop_in_placeINtNtCslJiobkLta79_5alloc7raw_vec6RawVechEECsfhqpD1X5bFv_18build_script_build, symObjAddr: 0x840, symBinAddr: 0x10000A9F0, symSize: 0x20 }
  - { offset: 0x132C6, size: 0x8, addend: 0x0, symName: __RINvNtCsieiGu2EXtoJ_4core3ptr13drop_in_placeINtNtNtB4_3ops12control_flow11ControlFlowINtNtB4_6result6ResultNtNtCslJiobkLta79_5alloc6string6StringNtNtNtCsHUR1vrdMJt_3std2io5error5ErrorEEECsfhqpD1X5bFv_18build_script_build, symObjAddr: 0x860, symBinAddr: 0x10000AA10, symSize: 0x40 }
  - { offset: 0x132F5, size: 0x8, addend: 0x0, symName: __RINvNtCsieiGu2EXtoJ_4core3ptr13drop_in_placeINtNtNtCsHUR1vrdMJt_3std2io5error9ErrorDataINtNtCslJiobkLta79_5alloc5boxed3BoxNtBJ_6CustomEEECsfhqpD1X5bFv_18build_script_build, symObjAddr: 0x8A0, symBinAddr: 0x10000AA50, symSize: 0x30 }
  - { offset: 0x13324, size: 0x8, addend: 0x0, symName: __RINvNtCsieiGu2EXtoJ_4core3ptr13drop_in_placeINtNtNtNtB4_4iter8adapters6filter6FilterINtNtCsHUR1vrdMJt_3std2io5LinesINtNtNtB1n_8buffered9bufreader9BufReaderNtNtB1p_2fs4FileEENCNvCsfhqpD1X5bFv_18build_script_build43generate_compatibility_tests_from_libiberty0EEB2P_, symObjAddr: 0x8D0, symBinAddr: 0x10000AA80, symSize: 0x20 }
  - { offset: 0x13353, size: 0x8, addend: 0x0, symName: __RINvNtCsieiGu2EXtoJ_4core3ptr13drop_in_placeINtNtNtNtCsHUR1vrdMJt_3std11collections4hash3set7HashSetlEECsfhqpD1X5bFv_18build_script_build, symObjAddr: 0x8F0, symBinAddr: 0x10000AAA0, symSize: 0x20 }
  - { offset: 0x13382, size: 0x8, addend: 0x0, symName: __RINvNtCsieiGu2EXtoJ_4core3ptr13drop_in_placeINtNtNtNtCsHUR1vrdMJt_3std2io8buffered9bufreader9BufReaderNtNtBP_2fs4FileEECsfhqpD1X5bFv_18build_script_build, symObjAddr: 0x910, symBinAddr: 0x10000AAC0, symSize: 0x60 }
  - { offset: 0x133B1, size: 0x8, addend: 0x0, symName: __RINvNtCsieiGu2EXtoJ_4core3ptr13drop_in_placeINtNvNtCsHUR1vrdMJt_3std2io17default_write_fmt7AdapterNtNtBN_2fs4FileEECsfhqpD1X5bFv_18build_script_build, symObjAddr: 0x970, symBinAddr: 0x10000AB20, symSize: 0x20 }
  - { offset: 0x133E0, size: 0x8, addend: 0x0, symName: __RINvNtCsieiGu2EXtoJ_4core3ptr13drop_in_placeINtNvNtCsHUR1vrdMJt_3std2io17default_write_fmt7AdapterNtNtNtNtBN_3sys5stdio4unix6StderrEECsfhqpD1X5bFv_18build_script_build, symObjAddr: 0x990, symBinAddr: 0x10000AB40, symSize: 0x20 }
  - { offset: 0x1340F, size: 0x8, addend: 0x0, symName: __RINvNtCsieiGu2EXtoJ_4core3ptr13drop_in_placeNCINvMsi_NtCslJiobkLta79_5alloc3vecINtBP_3VechE14extend_trustedINtNtNtNtB4_4iter8adapters3map3MapINtNtNtB4_5slice4iter4IterhENCNvNtBR_3str13replace_ascii0EE0ECsfhqpD1X5bFv_18build_script_build, symObjAddr: 0x9B0, symBinAddr: 0x10000AB60, symSize: 0x20 }
  - { offset: 0x1343E, size: 0x8, addend: 0x0, symName: __RINvNtCsieiGu2EXtoJ_4core3ptr13drop_in_placeNCINvNtNtNtB4_4iter8adapters3map8map_foldRhhuNCNvNtCslJiobkLta79_5alloc3str13replace_ascii0NCINvNvNtNtNtBP_6traits8iterator8Iterator8for_each4callhNCINvMsi_NtB1v_3vecINtB3c_3VechE14extend_trustedINtBL_3MapINtNtNtB4_5slice4iter4IterhEB1p_EE0E0E0ECsfhqpD1X5bFv_18build_script_build, symObjAddr: 0x9D0, symBinAddr: 0x10000AB80, symSize: 0x20 }
  - { offset: 0x1346D, size: 0x8, addend: 0x0, symName: __RINvNtCsieiGu2EXtoJ_4core3ptr13drop_in_placeNCINvNvNtNtNtNtB4_4iter6traits8iterator8Iterator8for_each4callhNCINvMsi_NtCslJiobkLta79_5alloc3vecINtB1Q_3VechE14extend_trustedINtNtNtBT_8adapters3map3MapINtNtNtB4_5slice4iter4IterhENCNvNtB1S_3str13replace_ascii0EE0E0ECsfhqpD1X5bFv_18build_script_build, symObjAddr: 0x9F0, symBinAddr: 0x10000ABA0, symSize: 0x20 }
  - { offset: 0x1349C, size: 0x8, addend: 0x0, symName: __RINvNtCsieiGu2EXtoJ_4core3ptr13drop_in_placeNtNtCsHUR1vrdMJt_3std2fs4FileECsfhqpD1X5bFv_18build_script_build, symObjAddr: 0xA10, symBinAddr: 0x10000ABC0, symSize: 0x20 }
  - { offset: 0x134CB, size: 0x8, addend: 0x0, symName: __RINvNtCsieiGu2EXtoJ_4core3ptr13drop_in_placeNtNtCsHUR1vrdMJt_3std2fs7ReadDirECsfhqpD1X5bFv_18build_script_build, symObjAddr: 0xA30, symBinAddr: 0x10000ABE0, symSize: 0x20 }
  - { offset: 0x134FA, size: 0x8, addend: 0x0, symName: __RINvNtCsieiGu2EXtoJ_4core3ptr13drop_in_placeNtNtCsHUR1vrdMJt_3std2fs8DirEntryECsfhqpD1X5bFv_18build_script_build, symObjAddr: 0xA50, symBinAddr: 0x10000AC00, symSize: 0x20 }
  - { offset: 0x13529, size: 0x8, addend: 0x0, symName: __RINvNtCsieiGu2EXtoJ_4core3ptr13drop_in_placeNtNtCsHUR1vrdMJt_3std2io5GuardECsfhqpD1X5bFv_18build_script_build, symObjAddr: 0xA70, symBinAddr: 0x10000AC20, symSize: 0x20 }
  - { offset: 0x13558, size: 0x8, addend: 0x0, symName: __RINvNtCsieiGu2EXtoJ_4core3ptr13drop_in_placeNtNtCsHUR1vrdMJt_3std3env8VarErrorECsfhqpD1X5bFv_18build_script_build, symObjAddr: 0xA90, symBinAddr: 0x10000AC40, symSize: 0x40 }
  - { offset: 0x13587, size: 0x8, addend: 0x0, symName: __RINvNtCsieiGu2EXtoJ_4core3ptr13drop_in_placeNtNtCsHUR1vrdMJt_3std4path7PathBufECsfhqpD1X5bFv_18build_script_build, symObjAddr: 0xAD0, symBinAddr: 0x10000AC80, symSize: 0x20 }
  - { offset: 0x135B6, size: 0x8, addend: 0x0, symName: __RINvNtCsieiGu2EXtoJ_4core3ptr13drop_in_placeNtNtCslJiobkLta79_5alloc6string6StringECsfhqpD1X5bFv_18build_script_build, symObjAddr: 0xAF0, symBinAddr: 0x10000ACA0, symSize: 0x20 }
  - { offset: 0x135E5, size: 0x8, addend: 0x0, symName: __RINvNtCsieiGu2EXtoJ_4core3ptr13drop_in_placeNtNtNtCsHUR1vrdMJt_3std2io5error5ErrorECsfhqpD1X5bFv_18build_script_build, symObjAddr: 0xB10, symBinAddr: 0x10000ACC0, symSize: 0x20 }
  - { offset: 0x13614, size: 0x8, addend: 0x0, symName: __RINvNtCsieiGu2EXtoJ_4core3ptr13drop_in_placeNtNtNtCsHUR1vrdMJt_3std2io5error6CustomECsfhqpD1X5bFv_18build_script_build, symObjAddr: 0xB30, symBinAddr: 0x10000ACE0, symSize: 0x20 }
  - { offset: 0x13643, size: 0x8, addend: 0x0, symName: __RINvNtCsieiGu2EXtoJ_4core3ptr13drop_in_placeNtNtNtCsHUR1vrdMJt_3std3ffi6os_str8OsStringECsfhqpD1X5bFv_18build_script_build, symObjAddr: 0xB50, symBinAddr: 0x10000AD00, symSize: 0x20 }
  - { offset: 0x13672, size: 0x8, addend: 0x0, symName: __RINvNtCsieiGu2EXtoJ_4core3ptr13drop_in_placeNtNtNtCslJiobkLta79_5alloc3vec15set_len_on_drop12SetLenOnDropECsfhqpD1X5bFv_18build_script_build, symObjAddr: 0xB70, symBinAddr: 0x10000AD20, symSize: 0x20 }
  - { offset: 0x136A1, size: 0x8, addend: 0x0, symName: __RINvNtCsieiGu2EXtoJ_4core3ptr13drop_in_placeNtNtNtNtCsHUR1vrdMJt_3std2io5error14repr_bitpacked4ReprECsfhqpD1X5bFv_18build_script_build, symObjAddr: 0xB90, symBinAddr: 0x10000AD40, symSize: 0x20 }
  - { offset: 0x136D0, size: 0x8, addend: 0x0, symName: __RINvNtCsieiGu2EXtoJ_4core3ptr13drop_in_placeNtNtNtNtCsHUR1vrdMJt_3std2os2fd5owned7OwnedFdECsfhqpD1X5bFv_18build_script_build, symObjAddr: 0xBB0, symBinAddr: 0x10000AD60, symSize: 0x20 }
  - { offset: 0x136FF, size: 0x8, addend: 0x0, symName: __RINvNtCsieiGu2EXtoJ_4core3ptr13drop_in_placeNtNtNtNtCsHUR1vrdMJt_3std3sys2fd4unix8FileDescECsfhqpD1X5bFv_18build_script_build, symObjAddr: 0xBD0, symBinAddr: 0x10000AD80, symSize: 0x20 }
  - { offset: 0x1372E, size: 0x8, addend: 0x0, symName: __RINvNtCsieiGu2EXtoJ_4core3ptr13drop_in_placeNtNtNtNtCsHUR1vrdMJt_3std3sys2fs4unix4FileECsfhqpD1X5bFv_18build_script_build, symObjAddr: 0xBF0, symBinAddr: 0x10000ADA0, symSize: 0x20 }
  - { offset: 0x1375D, size: 0x8, addend: 0x0, symName: __RINvNtCsieiGu2EXtoJ_4core3ptr13drop_in_placeNtNtNtNtCsHUR1vrdMJt_3std3sys2fs4unix7ReadDirECsfhqpD1X5bFv_18build_script_build, symObjAddr: 0xC10, symBinAddr: 0x10000ADC0, symSize: 0x20 }
  - { offset: 0x1378C, size: 0x8, addend: 0x0, symName: __RINvNtCsieiGu2EXtoJ_4core3ptr13drop_in_placeNtNtNtNtCsHUR1vrdMJt_3std3sys2fs4unix8DirEntryECsfhqpD1X5bFv_18build_script_build, symObjAddr: 0xC30, symBinAddr: 0x10000ADE0, symSize: 0x20 }
  - { offset: 0x137BB, size: 0x8, addend: 0x0, symName: __RINvNtCsieiGu2EXtoJ_4core3ptr13drop_in_placeNtNtNtNtCsHUR1vrdMJt_3std3sys6os_str5bytes3BufECsfhqpD1X5bFv_18build_script_build, symObjAddr: 0xC50, symBinAddr: 0x10000AE00, symSize: 0x20 }
  - { offset: 0x137EA, size: 0x8, addend: 0x0, symName: __RINvNtCsieiGu2EXtoJ_4core3ptr13drop_in_placeNtNtNtNtNtCsHUR1vrdMJt_3std2io8buffered9bufreader6buffer6BufferECsfhqpD1X5bFv_18build_script_build, symObjAddr: 0xC70, symBinAddr: 0x10000AE20, symSize: 0x20 }
  - { offset: 0x14FC7, size: 0x8, addend: 0x0, symName: __RNSNvYNCINvMs6_NtCsjK30CmJ87bX_9hashbrown3rawINtBd_8RawTableTluEE14reserve_rehashNCINvNtBf_3map11make_hasherluNtNtNtCsHUR1vrdMJt_3std4hash6random11RandomStateE0E0INtNtNtCsieiGu2EXtoJ_4core3ops8function6FnOnceTQNtBd_13RawTableInnerjEE9call_once6vtableCsfhqpD1X5bFv_18build_script_build, symObjAddr: 0x1470, symBinAddr: 0x10000B620, symSize: 0x30 }
  - { offset: 0x1500B, size: 0x8, addend: 0x0, symName: __RNSNvYNCINvMs6_NtCsjK30CmJ87bX_9hashbrown3rawINtBd_8RawTableTluEE24find_or_find_insert_slotNCINvNtBf_3map14equivalent_keylluE0NCINvB1w_11make_hasherluNtNtNtCsHUR1vrdMJt_3std4hash6random11RandomStateE0E0INtNtNtCsieiGu2EXtoJ_4core3ops8function6FnOnceTjEE9call_once6vtableCsfhqpD1X5bFv_18build_script_build, symObjAddr: 0x14A0, symBinAddr: 0x10000B650, symSize: 0x30 }
  - { offset: 0x1504F, size: 0x8, addend: 0x0, symName: __RNSNvYNCINvMs6_NtCsjK30CmJ87bX_9hashbrown3rawINtBd_8RawTableTluEE4findNCINvNtBf_3map14equivalent_keylluE0E0INtNtNtCsieiGu2EXtoJ_4core3ops8function6FnOnceTjEE9call_once6vtableCsfhqpD1X5bFv_18build_script_build, symObjAddr: 0x14D0, symBinAddr: 0x10000B680, symSize: 0x30 }
  - { offset: 0x15093, size: 0x8, addend: 0x0, symName: __RNSNvYNCINvNtCsHUR1vrdMJt_3std2rt10lang_startuE0INtNtNtCsieiGu2EXtoJ_4core3ops8function6FnOnceuE9call_once6vtableCsfhqpD1X5bFv_18build_script_build, symObjAddr: 0x1500, symBinAddr: 0x10000B6B0, symSize: 0x20 }
  - { offset: 0x150D7, size: 0x8, addend: 0x0, symName: __RNvYFEuINtNtNtCsieiGu2EXtoJ_4core3ops8function6FnOnceuE9call_onceCsfhqpD1X5bFv_18build_script_build, symObjAddr: 0x3E30, symBinAddr: 0x10000DFE0, symSize: 0x20 }
  - { offset: 0x15117, size: 0x8, addend: 0x0, symName: __RNvYNCINvMs6_NtCsjK30CmJ87bX_9hashbrown3rawINtBb_8RawTableTluEE14reserve_rehashNCINvNtBd_3map11make_hasherluNtNtNtCsHUR1vrdMJt_3std4hash6random11RandomStateE0E0INtNtNtCsieiGu2EXtoJ_4core3ops8function6FnOnceTQNtBb_13RawTableInnerjEE9call_onceCsfhqpD1X5bFv_18build_script_build, symObjAddr: 0x3EB0, symBinAddr: 0x10000E060, symSize: 0x50 }
  - { offset: 0x1515B, size: 0x8, addend: 0x0, symName: __RNvYNCINvMs6_NtCsjK30CmJ87bX_9hashbrown3rawINtBb_8RawTableTluEE24find_or_find_insert_slotNCINvNtBd_3map14equivalent_keylluE0NCINvB1u_11make_hasherluNtNtNtCsHUR1vrdMJt_3std4hash6random11RandomStateE0E0INtNtNtCsieiGu2EXtoJ_4core3ops8function6FnOnceTjEE9call_onceCsfhqpD1X5bFv_18build_script_build, symObjAddr: 0x3F00, symBinAddr: 0x10000E0B0, symSize: 0x50 }
  - { offset: 0x1519F, size: 0x8, addend: 0x0, symName: __RNvYNCINvMs6_NtCsjK30CmJ87bX_9hashbrown3rawINtBb_8RawTableTluEE4findNCINvNtBd_3map14equivalent_keylluE0E0INtNtNtCsieiGu2EXtoJ_4core3ops8function6FnOnceTjEE9call_onceCsfhqpD1X5bFv_18build_script_build, symObjAddr: 0x3F50, symBinAddr: 0x10000E100, symSize: 0x50 }
  - { offset: 0x151E3, size: 0x8, addend: 0x0, symName: __RNvYNCINvNtCsHUR1vrdMJt_3std2rt10lang_startuE0INtNtNtCsieiGu2EXtoJ_4core3ops8function6FnOnceuE9call_onceCsfhqpD1X5bFv_18build_script_build, symObjAddr: 0x3FA0, symBinAddr: 0x10000E150, symSize: 0x40 }
  - { offset: 0x15227, size: 0x8, addend: 0x0, symName: __RNvYNCNkNvNvMNtNtCsHUR1vrdMJt_3std4hash6randomNtBb_11RandomState3new4KEYS0s_0INtNtNtCsieiGu2EXtoJ_4core3ops8function6FnOnceTINtNtB1k_6option6OptionQIB1Z_INtNtB1k_4cell4CellTyyEEEEEE9call_onceCsfhqpD1X5bFv_18build_script_build, symObjAddr: 0x3FE0, symBinAddr: 0x10000E190, symSize: 0x40 }
  - { offset: 0x1526B, size: 0x8, addend: 0x0, symName: __RNvYNvNvNvMNtNtCsHUR1vrdMJt_3std4hash6randomNtB9_11RandomState3new4KEYS6___initINtNtNtCsieiGu2EXtoJ_4core3ops8function6FnOnceuE9call_onceCsfhqpD1X5bFv_18build_script_build, symObjAddr: 0x4040, symBinAddr: 0x10000E1F0, symSize: 0x20 }
  - { offset: 0x152B5, size: 0x8, addend: 0x0, symName: __RNvYNvMNtNtCsieiGu2EXtoJ_4core4char7methodsc13is_whitespaceINtNtNtB9_3ops8function5FnMutTcEE8call_mutCsfhqpD1X5bFv_18build_script_build, symObjAddr: 0x4020, symBinAddr: 0x10000E1D0, symSize: 0x20 }
  - { offset: 0x15C1E, size: 0x8, addend: 0x0, symName: __RINvXs3_NtNtCsieiGu2EXtoJ_4core4hash5implsRlNtB8_4Hash4hashNtNtNtCsHUR1vrdMJt_3std4hash6random13DefaultHasherECsfhqpD1X5bFv_18build_script_build, symObjAddr: 0x1090, symBinAddr: 0x10000B240, symSize: 0x20 }
  - { offset: 0x15C6F, size: 0x8, addend: 0x0, symName: __RINvXse_NtNtCsieiGu2EXtoJ_4core4hash5implslNtB8_4Hash4hashNtNtNtCsHUR1vrdMJt_3std4hash6random13DefaultHasherECsfhqpD1X5bFv_18build_script_build, symObjAddr: 0x1300, symBinAddr: 0x10000B4B0, symSize: 0x30 }
  - { offset: 0x15D79, size: 0x8, addend: 0x0, symName: __RNvNtNtCsieiGu2EXtoJ_4core4hash3sip9u8to64_leCsfhqpD1X5bFv_18build_script_build, symObjAddr: 0x1FC0, symBinAddr: 0x10000C170, symSize: 0x290 }
  - { offset: 0x15F36, size: 0x8, addend: 0x0, symName: __RNvXs3_NtNtCsieiGu2EXtoJ_4core4hash3sipINtB5_6HasherNtB5_11Sip13RoundsENtB7_6Hasher5writeCsfhqpD1X5bFv_18build_script_build, symObjAddr: 0x2F00, symBinAddr: 0x10000D0B0, symSize: 0x260 }
  - { offset: 0x160AC, size: 0x8, addend: 0x0, symName: __RNvXs3_NtNtCsieiGu2EXtoJ_4core4hash3sipINtB5_6HasherNtB5_11Sip13RoundsENtB7_6Hasher6finishCsfhqpD1X5bFv_18build_script_build, symObjAddr: 0x3160, symBinAddr: 0x10000D310, symSize: 0x90 }
  - { offset: 0x16125, size: 0x8, addend: 0x0, symName: __RNvXs6_NtNtCsieiGu2EXtoJ_4core4hash3sipNtB5_11Sip13RoundsNtB5_3Sip8c_roundsCsfhqpD1X5bFv_18build_script_build, symObjAddr: 0x33F0, symBinAddr: 0x10000D5A0, symSize: 0x180 }
  - { offset: 0x162A1, size: 0x8, addend: 0x0, symName: __RNvXs6_NtNtCsieiGu2EXtoJ_4core4hash3sipNtB5_11Sip13RoundsNtB5_3Sip8d_roundsCsfhqpD1X5bFv_18build_script_build, symObjAddr: 0x3570, symBinAddr: 0x10000D720, symSize: 0x4C0 }
  - { offset: 0x167B1, size: 0x8, addend: 0x0, symName: __RNCNvMsp_NtNtCsieiGu2EXtoJ_4core3str4iterINtB7_20MatchIndicesInternalReE4next0CsfhqpD1X5bFv_18build_script_build, symObjAddr: 0x1370, symBinAddr: 0x10000B520, symSize: 0xD0 }
  - { offset: 0x169E1, size: 0x8, addend: 0x0, symName: __RNvXs3_NtNtCsieiGu2EXtoJ_4core3str4iterNtB5_11CharIndicesNtNtNtNtB9_4iter6traits8iterator8Iterator4nextCsfhqpD1X5bFv_18build_script_build, symObjAddr: 0x2DF0, symBinAddr: 0x10000CFA0, symSize: 0x110 }
  - { offset: 0x16BDB, size: 0x8, addend: 0x0, symName: __RNvXs4_NtNtCsieiGu2EXtoJ_4core3str4iterNtB5_11CharIndicesNtNtNtNtB9_4iter6traits12double_ended19DoubleEndedIterator9next_backCsfhqpD1X5bFv_18build_script_build, symObjAddr: 0x31F0, symBinAddr: 0x10000D3A0, symSize: 0x150 }
  - { offset: 0x17458, size: 0x8, addend: 0x0, symName: __RNvNtNtNtCsieiGu2EXtoJ_4core9core_arch3x864sse212__mm_or_si128CsfhqpD1X5bFv_18build_script_build, symObjAddr: 0x2800, symBinAddr: 0x10000C9B0, symSize: 0x20 }
  - { offset: 0x17567, size: 0x8, addend: 0x0, symName: __RNvNtNtNtCsieiGu2EXtoJ_4core9core_arch3x864sse213__mm_set1_epi8CsfhqpD1X5bFv_18build_script_build, symObjAddr: 0x2820, symBinAddr: 0x10000C9D0, symSize: 0x90 }
  - { offset: 0x176C1, size: 0x8, addend: 0x0, symName: __RNvNtNtNtCsieiGu2EXtoJ_4core9core_arch3x864sse214__mm_cmpeq_epi8CsfhqpD1X5bFv_18build_script_build, symObjAddr: 0x28B0, symBinAddr: 0x10000CA60, symSize: 0x80 }
  - { offset: 0x17701, size: 0x8, addend: 0x0, symName: __RNvNtNtNtCsieiGu2EXtoJ_4core9core_arch3x864sse214__mm_cmpgt_epi8CsfhqpD1X5bFv_18build_script_build, symObjAddr: 0x2930, symBinAddr: 0x10000CAE0, symSize: 0x80 }
  - { offset: 0x17741, size: 0x8, addend: 0x0, symName: __RNvNtNtNtCsieiGu2EXtoJ_4core9core_arch3x864sse214__mm_load_si128CsfhqpD1X5bFv_18build_script_build, symObjAddr: 0x29B0, symBinAddr: 0x10000CB60, symSize: 0x20 }
  - { offset: 0x17780, size: 0x8, addend: 0x0, symName: __RNvNtNtNtCsieiGu2EXtoJ_4core9core_arch3x864sse215__mm_loadu_si128CsfhqpD1X5bFv_18build_script_build, symObjAddr: 0x29D0, symBinAddr: 0x10000CB80, symSize: 0x90 }
  - { offset: 0x1780F, size: 0x8, addend: 0x0, symName: __RNvNtNtNtCsieiGu2EXtoJ_4core9core_arch3x864sse215__mm_store_si128CsfhqpD1X5bFv_18build_script_build, symObjAddr: 0x2A60, symBinAddr: 0x10000CC10, symSize: 0x20 }
  - { offset: 0x17848, size: 0x8, addend: 0x0, symName: __RNvNtNtNtCsieiGu2EXtoJ_4core9core_arch3x864sse217__mm_movemask_epi8CsfhqpD1X5bFv_18build_script_build, symObjAddr: 0x2A80, symBinAddr: 0x10000CC30, symSize: 0x50 }
  - { offset: 0x178B4, size: 0x8, addend: 0x0, symName: __RNvNtNtNtCsieiGu2EXtoJ_4core9core_arch3x864sse217__mm_setzero_si128CsfhqpD1X5bFv_18build_script_build, symObjAddr: 0x2AD0, symBinAddr: 0x10000CC80, symSize: 0x10 }
  - { offset: 0x17C5D, size: 0x8, addend: 0x0, symName: __RNCNvXs1_NtNtNtCsHUR1vrdMJt_3std2io5error14repr_bitpackedNtB7_4ReprNtNtNtCsieiGu2EXtoJ_4core3ops4drop4Drop4drop0CsfhqpD1X5bFv_18build_script_build, symObjAddr: 0x1440, symBinAddr: 0x10000B5F0, symSize: 0x30 }
  - { offset: 0x17D12, size: 0x8, addend: 0x0, symName: __RNvXs1_NtNtNtCsHUR1vrdMJt_3std2io5error14repr_bitpackedNtB5_4ReprNtNtNtCsieiGu2EXtoJ_4core3ops4drop4Drop4dropCsfhqpD1X5bFv_18build_script_build, symObjAddr: 0x2D40, symBinAddr: 0x10000CEF0, symSize: 0x30 }
  - { offset: 0x17D3B, size: 0x8, addend: 0x0, symName: __RINvNtNtNtCsHUR1vrdMJt_3std2io5error14repr_bitpacked11decode_reprINtNtCslJiobkLta79_5alloc5boxed3BoxNtB4_6CustomENCNvXs1_B2_NtB2_4ReprNtNtNtCsieiGu2EXtoJ_4core3ops4drop4Drop4drop0ECsfhqpD1X5bFv_18build_script_build, symObjAddr: 0xC90, symBinAddr: 0x10000AE40, symSize: 0x200 }
  - { offset: 0x17FAD, size: 0x8, addend: 0x0, symName: __RNCNvMs0_NtNtNtCsHUR1vrdMJt_3std2io5error14repr_bitpackedNtB7_4Repr4data0CsfhqpD1X5bFv_18build_script_build, symObjAddr: 0x1360, symBinAddr: 0x10000B510, symSize: 0x10 }
  - { offset: 0x17FE5, size: 0x8, addend: 0x0, symName: __RINvNtNtNtCsHUR1vrdMJt_3std2io5error14repr_bitpacked11decode_reprRNtB4_6CustomNCNvMs0_B2_NtB2_4Repr4data0ECsfhqpD1X5bFv_18build_script_build, symObjAddr: 0xE90, symBinAddr: 0x10000B040, symSize: 0x200 }
  - { offset: 0x18246, size: 0x8, addend: 0x0, symName: __RNvNtNtNtCsHUR1vrdMJt_3std2io5error14repr_bitpacked14kind_from_primCsfhqpD1X5bFv_18build_script_build, symObjAddr: 0x2250, symBinAddr: 0x10000C400, symSize: 0x5B0 }
  - { offset: 0x18CF5, size: 0x8, addend: 0x0, symName: __RNvXs4_NtNtNtCsHUR1vrdMJt_3std2io8buffered9bufreaderINtB5_9BufReaderNtNtBb_2fs4FileENtB9_7BufRead7consumeCsfhqpD1X5bFv_18build_script_build, symObjAddr: 0x3340, symBinAddr: 0x10000D4F0, symSize: 0x50 }
  - { offset: 0x18D82, size: 0x8, addend: 0x0, symName: __RNvXs4_NtNtNtCsHUR1vrdMJt_3std2io8buffered9bufreaderINtB5_9BufReaderNtNtBb_2fs4FileENtB9_7BufRead8fill_bufCsfhqpD1X5bFv_18build_script_build, symObjAddr: 0x3390, symBinAddr: 0x10000D540, symSize: 0x30 }
  - { offset: 0x18DC1, size: 0x8, addend: 0x0, symName: __RNvYINtNtNtNtCsHUR1vrdMJt_3std2io8buffered9bufreader9BufReaderNtNtBb_2fs4FileENtB9_7BufRead5linesCsfhqpD1X5bFv_18build_script_build, symObjAddr: 0x3E50, symBinAddr: 0x10000E000, symSize: 0x30 }
  - { offset: 0x18DF9, size: 0x8, addend: 0x0, symName: __RNvYINtNtNtNtCsHUR1vrdMJt_3std2io8buffered9bufreader9BufReaderNtNtBb_2fs4FileENtB9_7BufRead9read_lineCsfhqpD1X5bFv_18build_script_build, symObjAddr: 0x3E80, symBinAddr: 0x10000E030, symSize: 0x30 }
  - { offset: 0x1901C, size: 0x8, addend: 0x0, symName: __RINvXs7_NtNtNtCsHUR1vrdMJt_3std11collections4hash3setINtB6_7HashSetlEINtNtNtNtCsieiGu2EXtoJ_4core4iter6traits7collect6ExtendlE6extendINtNtNtB1e_3ops5range5RangelEECsfhqpD1X5bFv_18build_script_build, symObjAddr: 0x12A0, symBinAddr: 0x10000B450, symSize: 0x20 }
  - { offset: 0x19076, size: 0x8, addend: 0x0, symName: __RINvXs5_NtNtNtCsHUR1vrdMJt_3std11collections4hash3setINtB6_7HashSetlEINtNtNtNtCsieiGu2EXtoJ_4core4iter6traits7collect12FromIteratorlE9from_iterINtNtNtB1e_3ops5range5RangelEECsfhqpD1X5bFv_18build_script_build, symObjAddr: 0x10B0, symBinAddr: 0x10000B260, symSize: 0x1F0 }
  - { offset: 0x19202, size: 0x8, addend: 0x0, symName: __RINvNtCsHUR1vrdMJt_3std3env3varReECsfhqpD1X5bFv_18build_script_build, symObjAddr: 0x450, symBinAddr: 0x10000A640, symSize: 0x60 }
  - { offset: 0x193F2, size: 0x8, addend: 0x0, symName: __RNvXs5_NtNtNtCsHUR1vrdMJt_3std2os2fd5ownedNtB5_7OwnedFdNtNtNtCsieiGu2EXtoJ_4core3ops4drop4Drop4dropCsfhqpD1X5bFv_18build_script_build, symObjAddr: 0x33C0, symBinAddr: 0x10000D570, symSize: 0x30 }
  - { offset: 0x1978C, size: 0x8, addend: 0x0, symName: __RNvXCsjK30CmJ87bX_9hashbrownlINtB2_10EquivalentlE10equivalentCsfhqpD1X5bFv_18build_script_build, symObjAddr: 0x2CB0, symBinAddr: 0x10000CE60, symSize: 0x50 }
  - { offset: 0x19904, size: 0x8, addend: 0x0, symName: __RNvXs_NtCslJiobkLta79_5alloc5allocNtB4_6GlobalNtNtCsieiGu2EXtoJ_4core5alloc9Allocator10deallocateCsfhqpD1X5bFv_18build_script_build, symObjAddr: 0x3A30, symBinAddr: 0x10000DBE0, symSize: 0x70 }
  - { offset: 0x199CC, size: 0x8, addend: 0x0, symName: __RNvXs_NtCslJiobkLta79_5alloc5allocNtB4_6GlobalNtNtCsieiGu2EXtoJ_4core5alloc9Allocator8allocateCsfhqpD1X5bFv_18build_script_build, symObjAddr: 0x3AA0, symBinAddr: 0x10000DC50, symSize: 0x30 }
  - { offset: 0x19E16, size: 0x8, addend: 0x0, symName: __RINvXsd_NtCslJiobkLta79_5alloc3vecINtB6_3VechEINtNtNtNtCsieiGu2EXtoJ_4core4iter6traits7collect12FromIteratorhE9from_iterINtNtNtBP_8adapters3map3MapINtNtNtBR_5slice4iter4IterhENCNvNtB8_3str13replace_ascii0EECsfhqpD1X5bFv_18build_script_build, symObjAddr: 0x12C0, symBinAddr: 0x10000B470, symSize: 0x40 }
  - { offset: 0x19E62, size: 0x8, addend: 0x0, symName: __RNCINvMsi_NtCslJiobkLta79_5alloc3vecINtB8_3VechE14extend_trustedINtNtNtNtCsieiGu2EXtoJ_4core4iter8adapters3map3MapINtNtNtB19_5slice4iter4IterhENCNvNtBa_3str13replace_ascii0EE0CsfhqpD1X5bFv_18build_script_build, symObjAddr: 0x1330, symBinAddr: 0x10000B4E0, symSize: 0x30 }
  - { offset: 0x19F34, size: 0x8, addend: 0x0, symName: __RNvNvMs_NtCslJiobkLta79_5alloc3vecINtB6_3VecppE7set_len18precondition_checkCsfhqpD1X5bFv_18build_script_build, symObjAddr: 0x2C10, symBinAddr: 0x10000CDC0, symSize: 0xA0 }
  - { offset: 0x19FA8, size: 0x8, addend: 0x0, symName: __RNvXNtNtCslJiobkLta79_5alloc3vec14spec_from_iterINtB4_3VechEINtB2_12SpecFromIterhINtNtNtNtCsieiGu2EXtoJ_4core4iter8adapters3map3MapINtNtNtB1q_5slice4iter4IterhENCNvNtB6_3str13replace_ascii0EE9from_iterCsfhqpD1X5bFv_18build_script_build, symObjAddr: 0x2D00, symBinAddr: 0x10000CEB0, symSize: 0x20 }
  - { offset: 0x19FF3, size: 0x8, addend: 0x0, symName: __RNvXs_NtNtCslJiobkLta79_5alloc3vec11spec_extendINtB6_3VechEINtB4_10SpecExtendhINtNtNtNtCsieiGu2EXtoJ_4core4iter8adapters3map3MapINtNtNtB1n_5slice4iter4IterhENCNvNtB8_3str13replace_ascii0EE11spec_extendCsfhqpD1X5bFv_18build_script_build, symObjAddr: 0x3AD0, symBinAddr: 0x10000DC80, symSize: 0x20 }
  - { offset: 0x1A051, size: 0x8, addend: 0x0, symName: __RNvXs_NtNtCslJiobkLta79_5alloc3vec21spec_from_iter_nestedINtB6_3VechEINtB4_18SpecFromIterNestedhINtNtNtNtCsieiGu2EXtoJ_4core4iter8adapters3map3MapINtNtNtB1F_5slice4iter4IterhENCNvNtB8_3str13replace_ascii0EE9from_iterCsfhqpD1X5bFv_18build_script_build, symObjAddr: 0x3AF0, symBinAddr: 0x10000DCA0, symSize: 0x1C0 }
  - { offset: 0x1A15A, size: 0x8, addend: 0x0, symName: __RNvXs0_NtCslJiobkLta79_5alloc3strNtNtB7_6string6StringINtNtCsieiGu2EXtoJ_4core6borrow6BorroweE6borrowCsfhqpD1X5bFv_18build_script_build, symObjAddr: 0x2D20, symBinAddr: 0x10000CED0, symSize: 0x20 }
  - { offset: 0x1A2D7, size: 0x8, addend: 0x0, symName: __RNvXss_NtCslJiobkLta79_5alloc6stringNtB5_6StringNtNtNtCsieiGu2EXtoJ_4core3ops5deref5Deref5derefCsfhqpD1X5bFv_18build_script_build, symObjAddr: 0x3E10, symBinAddr: 0x10000DFC0, symSize: 0x20 }
  - { offset: 0x1A30B, size: 0x8, addend: 0x0, symName: __RNvXsl_NtCslJiobkLta79_5alloc6stringNtB5_6StringNtNtCsieiGu2EXtoJ_4core3fmt7Display3fmtCsfhqpD1X5bFv_18build_script_build, symObjAddr: 0x3D30, symBinAddr: 0x10000DEE0, symSize: 0x70 }
  - { offset: 0x1A470, size: 0x8, addend: 0x0, symName: __RNvXsq_NtCslJiobkLta79_5alloc6stringNtB5_6StringINtNtNtCsieiGu2EXtoJ_4core3ops5index5IndexNtNtBP_5range9RangeFullE5indexCsfhqpD1X5bFv_18build_script_build, symObjAddr: 0x3DA0, symBinAddr: 0x10000DF50, symSize: 0x70 }
  - { offset: 0x1A5C6, size: 0x8, addend: 0x0, symName: __RNvXs2_NtCslJiobkLta79_5alloc6borrowINtB5_3CoweENtNtNtCsieiGu2EXtoJ_4core3ops5deref5Deref5derefCsfhqpD1X5bFv_18build_script_build, symObjAddr: 0x2D70, symBinAddr: 0x10000CF20, symSize: 0x80 }
  - { offset: 0x1A63F, size: 0x8, addend: 0x0, symName: __RNvXsb_NtCslJiobkLta79_5alloc6borrowINtB5_3CoweENtNtCsieiGu2EXtoJ_4core3fmt7Display3fmtCsfhqpD1X5bFv_18build_script_build, symObjAddr: 0x3CB0, symBinAddr: 0x10000DE60, symSize: 0x80 }
  - { offset: 0x1A987, size: 0x8, addend: 0x0, symName: __RINvMs0_NtNtNtCsHUR1vrdMJt_3std11collections4hash3setINtB6_7HashSetlE8containslECsfhqpD1X5bFv_18build_script_build, symObjAddr: 0x0, symBinAddr: 0x10000A1F0, symSize: 0x50 }
  - { offset: 0x1AA9B, size: 0x8, addend: 0x0, symName: __RINvMs2_NtNtCsHUR1vrdMJt_3std6thread5localINtB6_8LocalKeyINtNtCsieiGu2EXtoJ_4core4cell4CellTyyEEE4withNCNvMNtNtBa_4hash6randomNtB1H_11RandomState3new0B20_ECsfhqpD1X5bFv_18build_script_build, symObjAddr: 0x50, symBinAddr: 0x10000A240, symSize: 0x50 }
  - { offset: 0x1AB54, size: 0x8, addend: 0x0, symName: __RINvMs2_NtNtCsHUR1vrdMJt_3std6thread5localINtB6_8LocalKeyINtNtCsieiGu2EXtoJ_4core4cell4CellTyyEEE8try_withNCNvMNtNtBa_4hash6randomNtB1L_11RandomState3new0B24_ECsfhqpD1X5bFv_18build_script_build, symObjAddr: 0xA0, symBinAddr: 0x10000A290, symSize: 0xF0 }
  - { offset: 0x1AE07, size: 0x8, addend: 0x0, symName: __RINvMs_NtNtCsieiGu2EXtoJ_4core3fmt2rtNtB7_9Arguments6new_v1Kj2_Kj1_ECsfhqpD1X5bFv_18build_script_build, symObjAddr: 0x190, symBinAddr: 0x10000A380, symSize: 0x40 }
  - { offset: 0x1AE6B, size: 0x8, addend: 0x0, symName: __RINvMs_NtNtCsieiGu2EXtoJ_4core3fmt2rtNtB7_9Arguments6new_v1Kj3_Kj2_ECsfhqpD1X5bFv_18build_script_build, symObjAddr: 0x1D0, symBinAddr: 0x10000A3C0, symSize: 0x40 }
  - { offset: 0x1AECF, size: 0x8, addend: 0x0, symName: __RINvMs_NtNtCsieiGu2EXtoJ_4core3fmt2rtNtB7_9Arguments6new_v1Kj5_Kj4_ECsfhqpD1X5bFv_18build_script_build, symObjAddr: 0x210, symBinAddr: 0x10000A400, symSize: 0x40 }
  - { offset: 0x1AF19, size: 0x8, addend: 0x0, symName: __RINvMs_NtNtCsieiGu2EXtoJ_4core3fmt2rtNtB7_9Arguments9new_constKj1_ECsfhqpD1X5bFv_18build_script_build, symObjAddr: 0x250, symBinAddr: 0x10000A440, symSize: 0x40 }
  - { offset: 0x1B077, size: 0x8, addend: 0x0, symName: __RINvMsi_NtCslJiobkLta79_5alloc3vecINtB6_3VechE14extend_trustedINtNtNtNtCsieiGu2EXtoJ_4core4iter8adapters3map3MapINtNtNtB17_5slice4iter4IterhENCNvNtB8_3str13replace_ascii0EECsfhqpD1X5bFv_18build_script_build, symObjAddr: 0x290, symBinAddr: 0x10000A480, symSize: 0x1C0 }
  - { offset: 0x1B672, size: 0x8, addend: 0x0, symName: __RNvMNtCslJiobkLta79_5alloc5allocNtB2_6Global10alloc_implCsfhqpD1X5bFv_18build_script_build, symObjAddr: 0x1520, symBinAddr: 0x10000B6D0, symSize: 0x290 }
  - { offset: 0x1BC34, size: 0x8, addend: 0x0, symName: __RNvMNtCslJiobkLta79_5alloc6stringNtB2_6String3popCsfhqpD1X5bFv_18build_script_build, symObjAddr: 0x17B0, symBinAddr: 0x10000B960, symSize: 0x230 }
  - { offset: 0x1C0DF, size: 0x8, addend: 0x0, symName: __RNvMNtCslJiobkLta79_5alloc6stringNtB2_6String6as_strCsfhqpD1X5bFv_18build_script_build, symObjAddr: 0x19E0, symBinAddr: 0x10000BB90, symSize: 0x60 }
  - { offset: 0x1C22F, size: 0x8, addend: 0x0, symName: __RNvMNtNtNtCsHUR1vrdMJt_3std2io8buffered9bufreaderINtB2_9BufReaderNtNtB8_2fs4FileE13with_capacityCsfhqpD1X5bFv_18build_script_build, symObjAddr: 0x1A40, symBinAddr: 0x10000BBF0, symSize: 0xC0 }
  - { offset: 0x1C297, size: 0x8, addend: 0x0, symName: __RNvMNtNtNtCsHUR1vrdMJt_3std2io8buffered9bufreaderINtB2_9BufReaderNtNtB8_2fs4FileE3newCsfhqpD1X5bFv_18build_script_build, symObjAddr: 0x1B00, symBinAddr: 0x10000BCB0, symSize: 0x30 }
  - { offset: 0x1C2C2, size: 0x8, addend: 0x0, symName: __RNvMNtNtNtCsieiGu2EXtoJ_4core4iter8adapters7step_byINtB2_6StepByINtNtNtB8_3ops5range5RangejEE3newCsfhqpD1X5bFv_18build_script_build, symObjAddr: 0x1B30, symBinAddr: 0x10000BCE0, symSize: 0xD0 }
  - { offset: 0x1C429, size: 0x8, addend: 0x0, symName: __RNvMs0_NtCslJiobkLta79_5alloc7raw_vecINtB5_6RawVechE8into_boxCsfhqpD1X5bFv_18build_script_build, symObjAddr: 0x1C00, symBinAddr: 0x10000BDB0, symSize: 0x90 }
  - { offset: 0x1C5F1, size: 0x8, addend: 0x0, symName: __RNvMs0_NtNtCsieiGu2EXtoJ_4core4hash3sipINtB5_6HasherNtB5_11Sip13RoundsE5resetCsfhqpD1X5bFv_18build_script_build, symObjAddr: 0x1C90, symBinAddr: 0x10000BE40, symSize: 0x70 }
  - { offset: 0x1C638, size: 0x8, addend: 0x0, symName: __RNvMs1_NtNtCsieiGu2EXtoJ_4core3ptr8non_nullINtB5_7NonNullhE20offset_from_unsignedCsfhqpD1X5bFv_18build_script_build, symObjAddr: 0x1D00, symBinAddr: 0x10000BEB0, symSize: 0x60 }
  - { offset: 0x1C799, size: 0x8, addend: 0x0, symName: __RNvMs2_NtCslJiobkLta79_5alloc7raw_vecNtB5_11RawVecInner16with_capacity_inCsfhqpD1X5bFv_18build_script_build, symObjAddr: 0x1D60, symBinAddr: 0x10000BF10, symSize: 0x150 }
  - { offset: 0x1CB12, size: 0x8, addend: 0x0, symName: __RNvMs4_NtNtNtCsieiGu2EXtoJ_4core9core_simd5masks9mask_implINtB5_4MaskaKj10_E18to_bitmask_integerCsfhqpD1X5bFv_18build_script_build, symObjAddr: 0x1EB0, symBinAddr: 0x10000C060, symSize: 0x110 }
  - { offset: 0x1D711, size: 0x8, addend: 0x0, symName: __RINvMNtCsieiGu2EXtoJ_4core3stre11starts_withcECsfhqpD1X5bFv_18build_script_build, symObjAddr: 0x0, symBinAddr: 0x10000E210, symSize: 0x30 }
  - { offset: 0x1DB66, size: 0x8, addend: 0x0, symName: __RNvYNtNtNtNtCsHUR1vrdMJt_3std3sys5stdio4unix6StderrNtNtBa_2io5Write9write_allCsfhqpD1X5bFv_18build_script_build, symObjAddr: 0x3340, symBinAddr: 0x1000114F0, symSize: 0x2E0 }
  - { offset: 0x1DD0C, size: 0x8, addend: 0x0, symName: __RNvYNtNtNtNtCsHUR1vrdMJt_3std3sys5stdio4unix6StderrNtNtBa_2io5Write9write_fmtCsfhqpD1X5bFv_18build_script_build, symObjAddr: 0x3620, symBinAddr: 0x1000117D0, symSize: 0x170 }
  - { offset: 0x1DECE, size: 0x8, addend: 0x0, symName: __RNvXs3_NtNtCsHUR1vrdMJt_3std3ffi6os_strNtB5_8OsStringINtNtNtCsieiGu2EXtoJ_4core3ops5index5IndexNtNtBU_5range9RangeFullE5indexCsfhqpD1X5bFv_18build_script_build, symObjAddr: 0x23A0, symBinAddr: 0x100010550, symSize: 0x60 }
  - { offset: 0x1DFF4, size: 0x8, addend: 0x0, symName: __RNvXsU_NtNtCsHUR1vrdMJt_3std3ffi6os_strNtB5_5OsStrINtNtCsieiGu2EXtoJ_4core7convert5AsRefBB_E6as_refCsfhqpD1X5bFv_18build_script_build, symObjAddr: 0x2BD0, symBinAddr: 0x100010D80, symSize: 0x20 }
  - { offset: 0x1E028, size: 0x8, addend: 0x0, symName: __RNvXsW_NtNtCsHUR1vrdMJt_3std3ffi6os_streINtNtCsieiGu2EXtoJ_4core7convert5AsRefNtB5_5OsStrE6as_refCsfhqpD1X5bFv_18build_script_build, symObjAddr: 0x2BF0, symBinAddr: 0x100010DA0, symSize: 0x20 }
  - { offset: 0x1E0F3, size: 0x8, addend: 0x0, symName: __RNvNtNtNtCsHUR1vrdMJt_3std3sys2fs4unix23debug_assert_fd_is_openCsfhqpD1X5bFv_18build_script_build, symObjAddr: 0x1A20, symBinAddr: 0x10000FBD0, symSize: 0xB0 }
  - { offset: 0x1E3A8, size: 0x8, addend: 0x0, symName: __RNvXs1l_NtCsHUR1vrdMJt_3std4pathNtB6_4PathINtNtCsieiGu2EXtoJ_4core7convert5AsRefBu_E6as_refCsfhqpD1X5bFv_18build_script_build, symObjAddr: 0x2120, symBinAddr: 0x1000102D0, symSize: 0x20 }
  - { offset: 0x1E3DC, size: 0x8, addend: 0x0, symName: __RNvXs1p_NtCsHUR1vrdMJt_3std4patheINtNtCsieiGu2EXtoJ_4core7convert5AsRefNtB6_4PathE6as_refCsfhqpD1X5bFv_18build_script_build, symObjAddr: 0x2140, symBinAddr: 0x1000102F0, symSize: 0x20 }
  - { offset: 0x1E42E, size: 0x8, addend: 0x0, symName: __RNvXsH_NtCsHUR1vrdMJt_3std4pathNtB5_7PathBufNtNtNtCsieiGu2EXtoJ_4core3ops5deref5Deref5derefCsfhqpD1X5bFv_18build_script_build, symObjAddr: 0x2BA0, symBinAddr: 0x100010D50, symSize: 0x30 }
  - { offset: 0x1E4BC, size: 0x8, addend: 0x0, symName: __RNvXs1r_NtCsHUR1vrdMJt_3std4pathNtB6_7PathBufINtNtCsieiGu2EXtoJ_4core7convert5AsRefNtB6_4PathE6as_refCsfhqpD1X5bFv_18build_script_build, symObjAddr: 0x2160, symBinAddr: 0x100010310, symSize: 0x30 }
  - { offset: 0x1E57F, size: 0x8, addend: 0x0, symName: __RNvXsC_NtCsHUR1vrdMJt_3std4pathNtB5_7PathBufINtNtCsieiGu2EXtoJ_4core7convert4FromNtNtCslJiobkLta79_5alloc6string6StringE4fromCsfhqpD1X5bFv_18build_script_build, symObjAddr: 0x2B30, symBinAddr: 0x100010CE0, symSize: 0x70 }
  - { offset: 0x1E693, size: 0x8, addend: 0x0, symName: __RNvXsZ_NtCsHUR1vrdMJt_3std7processuNtB5_11Termination6reportCsfhqpD1X5bFv_18build_script_build, symObjAddr: 0x2D60, symBinAddr: 0x100010F10, symSize: 0x10 }
  - { offset: 0x1F438, size: 0x8, addend: 0x0, symName: __RINvMNtCsieiGu2EXtoJ_4core3stre11starts_withcECsfhqpD1X5bFv_18build_script_build, symObjAddr: 0x0, symBinAddr: 0x10000E210, symSize: 0x30 }
  - { offset: 0x1F4B2, size: 0x8, addend: 0x0, symName: __RINvMNtCsieiGu2EXtoJ_4core3stre12trim_matchesNvMNtNtB5_4char7methodsc13is_whitespaceECsfhqpD1X5bFv_18build_script_build, symObjAddr: 0x30, symBinAddr: 0x10000E240, symSize: 0x180 }
  - { offset: 0x1F655, size: 0x8, addend: 0x0, symName: __RINvMNtCsieiGu2EXtoJ_4core3stre8containsReECsfhqpD1X5bFv_18build_script_build, symObjAddr: 0x1B0, symBinAddr: 0x10000E3C0, symSize: 0x40 }
  - { offset: 0x1F69B, size: 0x8, addend: 0x0, symName: __RNvMNtCsieiGu2EXtoJ_4core3stre4trimCsfhqpD1X5bFv_18build_script_build, symObjAddr: 0x1200, symBinAddr: 0x10000F3C0, symSize: 0x20 }
  - { offset: 0x1F6C9, size: 0x8, addend: 0x0, symName: __RNvMNtCsieiGu2EXtoJ_4core3stre5charsCsfhqpD1X5bFv_18build_script_build, symObjAddr: 0x1220, symBinAddr: 0x10000F3E0, symSize: 0x20 }
  - { offset: 0x1F7B5, size: 0x8, addend: 0x0, symName: __RNvNvXs5_NtNtCsieiGu2EXtoJ_4core3str6traitsINtNtNtBb_3ops5range5RangejEINtNtNtBb_5slice5index10SliceIndexeE13get_unchecked18precondition_checkCsfhqpD1X5bFv_18build_script_build, symObjAddr: 0x1FD0, symBinAddr: 0x100010180, symSize: 0xC0 }
  - { offset: 0x1F876, size: 0x8, addend: 0x0, symName: __RNvXs4_NtNtCsieiGu2EXtoJ_4core3str6traitsNtNtNtB9_3ops5range9RangeFullINtNtNtB9_5slice5index10SliceIndexeE5indexCsfhqpD1X5bFv_18build_script_build, symObjAddr: 0x2500, symBinAddr: 0x1000106B0, symSize: 0x20 }
  - { offset: 0x1F8EC, size: 0x8, addend: 0x0, symName: __RNvXs9_NtNtCsieiGu2EXtoJ_4core3str6traitsINtNtNtB9_3ops5range9RangeFromjEINtNtNtB9_5slice5index10SliceIndexeE3getCsfhqpD1X5bFv_18build_script_build, symObjAddr: 0x2980, symBinAddr: 0x100010B30, symSize: 0x130 }
  - { offset: 0x1FA74, size: 0x8, addend: 0x0, symName: __RNvXs3_NtNtCsieiGu2EXtoJ_4core3str7patternNvMNtNtB9_4char7methodsc13is_whitespaceNtB5_11MultiCharEq7matchesCsfhqpD1X5bFv_18build_script_build, symObjAddr: 0x2400, symBinAddr: 0x1000105B0, symSize: 0x20 }
  - { offset: 0x1FAC0, size: 0x8, addend: 0x0, symName: __RNvXsr_NtNtCsieiGu2EXtoJ_4core3str7patternNvMNtNtB9_4char7methodsc13is_whitespaceNtB5_7Pattern13into_searcherCsfhqpD1X5bFv_18build_script_build, symObjAddr: 0x32D0, symBinAddr: 0x100011480, symSize: 0x40 }
  - { offset: 0x20B26, size: 0x8, addend: 0x0, symName: __RNvXsp_NtCsieiGu2EXtoJ_4core6resultINtB5_6ResultNtNtCsHUR1vrdMJt_3std2fs4FileNtNtNtBO_2io5error5ErrorENtNtNtB7_3ops9try_trait3Try6branchCsfhqpD1X5bFv_18build_script_build, symObjAddr: 0x2F40, symBinAddr: 0x1000110F0, symSize: 0x60 }
  - { offset: 0x20BA3, size: 0x8, addend: 0x0, symName: __RNvXsp_NtCsieiGu2EXtoJ_4core6resultINtB5_6ResultNtNtCsHUR1vrdMJt_3std2fs7ReadDirNtNtNtBO_2io5error5ErrorENtNtNtB7_3ops9try_trait3Try6branchCsfhqpD1X5bFv_18build_script_build, symObjAddr: 0x2FA0, symBinAddr: 0x100011150, symSize: 0x70 }
  - { offset: 0x20C20, size: 0x8, addend: 0x0, symName: __RNvXsp_NtCsieiGu2EXtoJ_4core6resultINtB5_6ResultNtNtCsHUR1vrdMJt_3std2fs8DirEntryNtNtNtBO_2io5error5ErrorENtNtNtB7_3ops9try_trait3Try6branchCsfhqpD1X5bFv_18build_script_build, symObjAddr: 0x3010, symBinAddr: 0x1000111C0, symSize: 0xA0 }
  - { offset: 0x20C9E, size: 0x8, addend: 0x0, symName: __RNvXsp_NtCsieiGu2EXtoJ_4core6resultINtB5_6ResultNtNtCsHUR1vrdMJt_3std4path7PathBufNtNtNtBO_2io5error5ErrorENtNtNtB7_3ops9try_trait3Try6branchCsfhqpD1X5bFv_18build_script_build, symObjAddr: 0x30B0, symBinAddr: 0x100011260, symSize: 0x90 }
  - { offset: 0x20D1B, size: 0x8, addend: 0x0, symName: __RNvXsp_NtCsieiGu2EXtoJ_4core6resultINtB5_6ResultNtNtCslJiobkLta79_5alloc6string6StringNtNtNtCsHUR1vrdMJt_3std2io5error5ErrorENtNtNtB7_3ops9try_trait3Try6branchCsfhqpD1X5bFv_18build_script_build, symObjAddr: 0x3140, symBinAddr: 0x1000112F0, symSize: 0x90 }
  - { offset: 0x20D98, size: 0x8, addend: 0x0, symName: __RNvXsp_NtCsieiGu2EXtoJ_4core6resultINtB5_6ResultRNtNtNtCsHUR1vrdMJt_3std3ffi6os_str5OsStrNtNtNtBR_2io5error5ErrorENtNtNtB7_3ops9try_trait3Try6branchCsfhqpD1X5bFv_18build_script_build, symObjAddr: 0x31D0, symBinAddr: 0x100011380, symSize: 0x70 }
  - { offset: 0x20E15, size: 0x8, addend: 0x0, symName: __RNvXsp_NtCsieiGu2EXtoJ_4core6resultINtB5_6ResultuNtNtNtCsHUR1vrdMJt_3std2io5error5ErrorENtNtNtB7_3ops9try_trait3Try6branchCsfhqpD1X5bFv_18build_script_build, symObjAddr: 0x3240, symBinAddr: 0x1000113F0, symSize: 0x40 }
  - { offset: 0x20FFF, size: 0x8, addend: 0x0, symName: __RNvXsq_NtCsieiGu2EXtoJ_4core6resultINtB5_6ResultNtNtCsHUR1vrdMJt_3std4path7PathBufNtNtNtBO_2io5error5ErrorEINtNtNtB7_3ops9try_trait12FromResidualIBy_NtNtB7_7convert10InfallibleB1i_EE13from_residualCsfhqpD1X5bFv_18build_script_build, symObjAddr: 0x3280, symBinAddr: 0x100011430, symSize: 0x30 }
  - { offset: 0x21066, size: 0x8, addend: 0x0, symName: __RNvXsq_NtCsieiGu2EXtoJ_4core6resultINtB5_6ResultuNtNtNtCsHUR1vrdMJt_3std2io5error5ErrorEINtNtNtB7_3ops9try_trait12FromResidualIBy_NtNtB7_7convert10InfallibleBL_EE13from_residualCsfhqpD1X5bFv_18build_script_build, symObjAddr: 0x32B0, symBinAddr: 0x100011460, symSize: 0x20 }
  - { offset: 0x21CAB, size: 0x8, addend: 0x0, symName: __RNvYjNtNtCsieiGu2EXtoJ_4core3cmp3Ord3maxCsfhqpD1X5bFv_18build_script_build, symObjAddr: 0x3790, symBinAddr: 0x100011940, symSize: 0x60 }
  - { offset: 0x21D17, size: 0x8, addend: 0x0, symName: __RNvYjNtNtCsieiGu2EXtoJ_4core3cmp3Ord3minCsfhqpD1X5bFv_18build_script_build, symObjAddr: 0x37F0, symBinAddr: 0x1000119A0, symSize: 0x60 }
  - { offset: 0x21DDC, size: 0x8, addend: 0x0, symName: __RNvNvXs2_NtNtCsieiGu2EXtoJ_4core5slice5indexINtNtNtBb_3ops5range5RangejEINtB7_10SliceIndexSpE13get_unchecked18precondition_checkCsfhqpD1X5bFv_18build_script_build, symObjAddr: 0x1F10, symBinAddr: 0x1000100C0, symSize: 0xC0 }
  - { offset: 0x21F1D, size: 0x8, addend: 0x0, symName: __RNvNvXs0_NtNtCsieiGu2EXtoJ_4core5slice5indexjINtB7_10SliceIndexSpE13get_unchecked18precondition_checkCsfhqpD1X5bFv_18build_script_build, symObjAddr: 0x1E70, symBinAddr: 0x100010020, symSize: 0xA0 }
  - { offset: 0x21FC0, size: 0x8, addend: 0x0, symName: __RNvXs5_NtNtCsieiGu2EXtoJ_4core5slice5indexINtNtNtB9_3ops5range9RangeFromjEINtB5_10SliceIndexShE5indexCsfhqpD1X5bFv_18build_script_build, symObjAddr: 0x25D0, symBinAddr: 0x100010780, symSize: 0x80 }
  - { offset: 0x2210C, size: 0x8, addend: 0x0, symName: __RNvXs8_NtNtCsieiGu2EXtoJ_4core5slice5indexINtNtNtB9_3ops5range14RangeInclusivejEINtB5_10SliceIndexShE5indexCsfhqpD1X5bFv_18build_script_build, symObjAddr: 0x2880, symBinAddr: 0x100010A30, symSize: 0x100 }
  - { offset: 0x223F4, size: 0x8, addend: 0x0, symName: __RINvXs2E_NtNtCsieiGu2EXtoJ_4core5slice4iterINtB7_4IterhENtNtNtNtBb_4iter6traits8iterator8Iterator4folduNCINvNtNtBY_8adapters3map8map_foldRhhuNCNvNtCslJiobkLta79_5alloc3str13replace_ascii0NCINvNvBS_8for_each4callhNCINvMsi_NtB2l_3vecINtB3x_3VechE14extend_trustedINtB1I_3MapBF_B2f_EE0E0E0ECsfhqpD1X5bFv_18build_script_build, symObjAddr: 0xA30, symBinAddr: 0x10000EBF0, symSize: 0x190 }
  - { offset: 0x22535, size: 0x8, addend: 0x0, symName: __RNvXs2E_NtNtCsieiGu2EXtoJ_4core5slice4iterINtB6_4IterhENtNtNtNtBa_4iter6traits8iterator8Iterator24___iterator_get_uncheckedCsfhqpD1X5bFv_18build_script_build, symObjAddr: 0x2190, symBinAddr: 0x100010340, symSize: 0x20 }
  - { offset: 0x22590, size: 0x8, addend: 0x0, symName: __RNvXs2E_NtNtCsieiGu2EXtoJ_4core5slice4iterINtB6_4IterhENtNtNtNtBa_4iter6traits8iterator8Iterator4nextCsfhqpD1X5bFv_18build_script_build, symObjAddr: 0x21B0, symBinAddr: 0x100010360, symSize: 0x90 }
  - { offset: 0x226B1, size: 0x8, addend: 0x0, symName: __RNvXs2E_NtNtCsieiGu2EXtoJ_4core5slice4iterINtB6_4IterhENtNtNtNtBa_4iter6traits8iterator8Iterator9size_hintCsfhqpD1X5bFv_18build_script_build, symObjAddr: 0x2240, symBinAddr: 0x1000103F0, symSize: 0x60 }
  - { offset: 0x227BB, size: 0x8, addend: 0x0, symName: __RNvXs2F_NtNtCsieiGu2EXtoJ_4core5slice4iterINtB6_4IterhENtNtNtNtBa_4iter6traits12double_ended19DoubleEndedIterator9next_backCsfhqpD1X5bFv_18build_script_build, symObjAddr: 0x22A0, symBinAddr: 0x100010450, symSize: 0x100 }
  - { offset: 0x22910, size: 0x8, addend: 0x0, symName: __RNvXsY_NtNtCsieiGu2EXtoJ_4core5slice4iterINtB5_7WindowshENtNtNtNtB9_4iter6traits8iterator8Iterator4nextCsfhqpD1X5bFv_18build_script_build, symObjAddr: 0x2C10, symBinAddr: 0x100010DC0, symSize: 0x150 }
  - { offset: 0x22A57, size: 0x8, addend: 0x0, symName: __RNvXs_NtNtCsieiGu2EXtoJ_4core5slice4iterRShNtNtNtNtB8_4iter6traits7collect12IntoIterator9into_iterCsfhqpD1X5bFv_18build_script_build, symObjAddr: 0x2D70, symBinAddr: 0x100010F20, symSize: 0x50 }
  - { offset: 0x22C38, size: 0x8, addend: 0x0, symName: __RNvXNtCsieiGu2EXtoJ_4core7convertRNtNtCsHUR1vrdMJt_3std4path4PathINtB2_5AsRefBw_E6as_refCsfhqpD1X5bFv_18build_script_build, symObjAddr: 0x2090, symBinAddr: 0x100010240, symSize: 0x30 }
  - { offset: 0x22C78, size: 0x8, addend: 0x0, symName: __RNvXNtCsieiGu2EXtoJ_4core7convertRNtNtCsHUR1vrdMJt_3std4path7PathBufINtB2_5AsRefNtBy_4PathE6as_refCsfhqpD1X5bFv_18build_script_build, symObjAddr: 0x20C0, symBinAddr: 0x100010270, symSize: 0x20 }
  - { offset: 0x22CF2, size: 0x8, addend: 0x0, symName: __RINvYINtNtNtCsieiGu2EXtoJ_4core3ops5range5RangejENtNtNtNtBa_4iter6traits12double_ended19DoubleEndedIterator9try_rfolduNCINvNvBL_5rfind5checkjNCNvNtNtBa_3str7pattern13simd_contains0E0INtNtB8_12control_flow11ControlFlowjEECsfhqpD1X5bFv_18build_script_build, symObjAddr: 0xC10, symBinAddr: 0x10000EDD0, symSize: 0x160 }
  - { offset: 0x22DC9, size: 0x8, addend: 0x0, symName: __RINvYINtNtNtCsieiGu2EXtoJ_4core3ops5range5RangelENtNtNtNtBa_4iter6traits8iterator8Iterator3mapTluENCINvXs8_NtCsjK30CmJ87bX_9hashbrown3setINtB1H_7HashSetlNtNtNtCsHUR1vrdMJt_3std4hash6random11RandomStateEINtNtBP_7collect6ExtendlE6extendB3_E0ECsfhqpD1X5bFv_18build_script_build, symObjAddr: 0xD70, symBinAddr: 0x10000EF30, symSize: 0x10 }
  - { offset: 0x22E21, size: 0x8, addend: 0x0, symName: __RINvYINtNtNtCsieiGu2EXtoJ_4core3ops5range5RangelENtNtNtNtBa_4iter6traits8iterator8Iterator4folduNCINvNtNtBR_8adapters3map8map_foldlTluEuNCINvXs8_NtCsjK30CmJ87bX_9hashbrown3setINtB2j_7HashSetlNtNtNtCsHUR1vrdMJt_3std4hash6random11RandomStateEINtNtBP_7collect6ExtendlE6extendB3_E0NCINvNvBL_8for_each4callB25_NCINvXs1i_NtB2l_3mapINtB53_7HashMapluB33_EIB3R_B25_E6extendINtB1B_3MapB3_B2a_EE0E0E0ECsfhqpD1X5bFv_18build_script_build, symObjAddr: 0xD80, symBinAddr: 0x10000EF40, symSize: 0x90 }
  - { offset: 0x22EB0, size: 0x8, addend: 0x0, symName: __RINvYINtNtNtCsieiGu2EXtoJ_4core3ops5range5RangelENtNtNtNtBa_4iter6traits8iterator8Iterator7collectINtNtNtNtCsHUR1vrdMJt_3std11collections4hash3set7HashSetlEECsfhqpD1X5bFv_18build_script_build, symObjAddr: 0xE10, symBinAddr: 0x10000EFD0, symSize: 0x50 }
  - { offset: 0x22F45, size: 0x8, addend: 0x0, symName: __RINvYINtNtNtCsieiGu2EXtoJ_4core5slice4iter4IterhENtNtNtNtBa_4iter6traits8iterator8Iterator3zipRShECsfhqpD1X5bFv_18build_script_build, symObjAddr: 0xE60, symBinAddr: 0x10000F020, symSize: 0xD0 }
  - { offset: 0x22FBB, size: 0x8, addend: 0x0, symName: __RINvYINtNtNtCsieiGu2EXtoJ_4core5slice4iter7WindowshENtNtNtNtBa_4iter6traits8iterator8Iterator8try_folduNCINvNvBO_3any5checkRShNCNvNtNtBa_3str7pattern13simd_containss_0E0INtNtNtBa_3ops12control_flow11ControlFlowuEECsfhqpD1X5bFv_18build_script_build, symObjAddr: 0xF30, symBinAddr: 0x10000F0F0, symSize: 0x110 }
  - { offset: 0x23078, size: 0x8, addend: 0x0, symName: __RNCINvNvNtNtNtNtCsieiGu2EXtoJ_4core4iter6traits8iterator8Iterator3any5checkRShNCNvNtNtBe_3str7pattern13simd_containss_0E0CsfhqpD1X5bFv_18build_script_build, symObjAddr: 0x1090, symBinAddr: 0x10000F250, symSize: 0x40 }
  - { offset: 0x230F3, size: 0x8, addend: 0x0, symName: __RNCINvNvNtNtNtNtCsieiGu2EXtoJ_4core4iter6traits8iterator8Iterator4find5checkINtNtBe_6result6ResultNtNtCslJiobkLta79_5alloc6string6StringNtNtNtCsHUR1vrdMJt_3std2io5error5ErrorEQNCNvCsfhqpD1X5bFv_18build_script_build43generate_compatibility_tests_from_libiberty0E0B2S_, symObjAddr: 0x10D0, symBinAddr: 0x10000F290, symSize: 0xC0 }
  - { offset: 0x2315D, size: 0x8, addend: 0x0, symName: __RNCINvNvNtNtNtNtCsieiGu2EXtoJ_4core4iter6traits8iterator8Iterator8for_each4callTluENCINvXs1i_NtCsjK30CmJ87bX_9hashbrown3mapINtB1t_7HashMapluNtNtNtCsHUR1vrdMJt_3std4hash6random11RandomStateEINtNtBa_7collect6ExtendB1f_E6extendINtNtNtBc_8adapters3map3MapINtNtNtBe_3ops5range5RangelENCINvXs8_NtB1v_3setINtB4C_7HashSetlB2e_EIB32_lE6extendB41_E0EE0E0CsfhqpD1X5bFv_18build_script_build, symObjAddr: 0x1190, symBinAddr: 0x10000F350, symSize: 0x20 }
  - { offset: 0x231B5, size: 0x8, addend: 0x0, symName: __RNCINvNvNtNtNtNtCsieiGu2EXtoJ_4core4iter6traits8iterator8Iterator8for_each4callhNCINvMsi_NtCslJiobkLta79_5alloc3vecINtB1p_3VechE14extend_trustedINtNtNtBc_8adapters3map3MapINtNtNtBe_5slice4iter4IterhENCNvNtB1r_3str13replace_ascii0EE0E0CsfhqpD1X5bFv_18build_script_build, symObjAddr: 0x11B0, symBinAddr: 0x10000F370, symSize: 0x20 }
  - { offset: 0x23241, size: 0x8, addend: 0x0, symName: __RNvXNtNtNtCsieiGu2EXtoJ_4core4iter6traits7collectINtNtNtB8_3ops5range5RangelENtB2_12IntoIterator9into_iterCsfhqpD1X5bFv_18build_script_build, symObjAddr: 0x20E0, symBinAddr: 0x100010290, symSize: 0x10 }
  - { offset: 0x23301, size: 0x8, addend: 0x0, symName: __RNvYINtNtNtCsieiGu2EXtoJ_4core5slice4iter4IterhENtNtNtNtB9_4iter8adapters3zip27TrustedRandomAccessNoCoerce4sizeCsfhqpD1X5bFv_18build_script_build, symObjAddr: 0x3310, symBinAddr: 0x1000114C0, symSize: 0x30 }
  - { offset: 0x23344, size: 0x8, addend: 0x0, symName: __RNvXs1_NtNtNtCsieiGu2EXtoJ_4core4iter8adapters6filterINtB5_6FilterINtNtCsHUR1vrdMJt_3std2io5LinesINtNtNtB15_8buffered9bufreader9BufReaderNtNtB17_2fs4FileEENCNvCsfhqpD1X5bFv_18build_script_build43generate_compatibility_tests_from_libiberty0ENtNtNtB9_6traits8iterator8Iterator4nextB2x_, symObjAddr: 0x20F0, symBinAddr: 0x1000102A0, symSize: 0x30 }
  - { offset: 0x233C1, size: 0x8, addend: 0x0, symName: __RNvXsh_NtNtNtCsieiGu2EXtoJ_4core4iter8adapters7step_byINtNtNtBb_3ops5range5RangejEINtB5_14SpecRangeSetupBQ_E5setupCsfhqpD1X5bFv_18build_script_build, symObjAddr: 0x2DE0, symBinAddr: 0x100010F90, symSize: 0x160 }
  - { offset: 0x23575, size: 0x8, addend: 0x0, symName: __RNvXs3_NtNtCsieiGu2EXtoJ_4core4iter5rangeINtNtNtB9_3ops5range5RangejENtB5_17RangeIteratorImpl14spec_next_backCsfhqpD1X5bFv_18build_script_build, symObjAddr: 0x2420, symBinAddr: 0x1000105D0, symSize: 0x70 }
  - { offset: 0x235D2, size: 0x8, addend: 0x0, symName: __RNvXs3_NtNtCsieiGu2EXtoJ_4core4iter5rangeINtNtNtB9_3ops5range5RangelENtB5_17RangeIteratorImpl9spec_nextCsfhqpD1X5bFv_18build_script_build, symObjAddr: 0x2490, symBinAddr: 0x100010640, symSize: 0x70 }
  - { offset: 0x23653, size: 0x8, addend: 0x0, symName: __RNvXs4_NtNtCsieiGu2EXtoJ_4core4iter5rangeINtNtNtB9_3ops5range5RangelENtNtNtB7_6traits8iterator8Iterator4nextCsfhqpD1X5bFv_18build_script_build, symObjAddr: 0x2520, symBinAddr: 0x1000106D0, symSize: 0x20 }
  - { offset: 0x2368A, size: 0x8, addend: 0x0, symName: __RNvXs4_NtNtCsieiGu2EXtoJ_4core4iter5rangeINtNtNtB9_3ops5range5RangelENtNtNtB7_6traits8iterator8Iterator9size_hintCsfhqpD1X5bFv_18build_script_build, symObjAddr: 0x2540, symBinAddr: 0x1000106F0, symSize: 0x70 }
  - { offset: 0x23714, size: 0x8, addend: 0x0, symName: __RNvXs5_NtNtCsieiGu2EXtoJ_4core4iter5rangeINtNtNtB9_3ops5range5RangejENtNtNtB7_6traits12double_ended19DoubleEndedIterator9next_backCsfhqpD1X5bFv_18build_script_build, symObjAddr: 0x25B0, symBinAddr: 0x100010760, symSize: 0x20 }
  - { offset: 0x237E1, size: 0x8, addend: 0x0, symName: __RNvMNtNtCsieiGu2EXtoJ_4core4char7methodsc13is_whitespaceCsfhqpD1X5bFv_18build_script_build, symObjAddr: 0x13A0, symBinAddr: 0x10000F560, symSize: 0x60 }
  - { offset: 0x23878, size: 0x8, addend: 0x0, symName: __RNvNtNtCsieiGu2EXtoJ_4core4char7methods15encode_utf8_rawCsfhqpD1X5bFv_18build_script_build, symObjAddr: 0x1800, symBinAddr: 0x10000F9B0, symSize: 0xE0 }
  - { offset: 0x23978, size: 0x8, addend: 0x0, symName: __RNvNtNtCsieiGu2EXtoJ_4core4char7methods25encode_utf8_raw_uncheckedCsfhqpD1X5bFv_18build_script_build, symObjAddr: 0x18E0, symBinAddr: 0x10000FA90, symSize: 0x140 }
  - { offset: 0x23C50, size: 0x8, addend: 0x0, symName: __RNvNvMNtNtCsieiGu2EXtoJ_4core5alloc6layoutNtB4_6Layout25from_size_align_unchecked18precondition_checkCsfhqpD1X5bFv_18build_script_build, symObjAddr: 0x1BE0, symBinAddr: 0x10000FD90, symSize: 0xB0 }
  - { offset: 0x23D1D, size: 0x8, addend: 0x0, symName: __RNvNtNtNtCsieiGu2EXtoJ_4core7unicode12unicode_data11white_space6lookupCsfhqpD1X5bFv_18build_script_build, symObjAddr: 0x1AD0, symBinAddr: 0x10000FC80, symSize: 0x110 }
  - { offset: 0x23D58, size: 0x8, addend: 0x0, symName: __RNvNvNtCsieiGu2EXtoJ_4core4hint16assert_unchecked18precondition_checkCsfhqpD1X5bFv_18build_script_build, symObjAddr: 0x1C90, symBinAddr: 0x10000FE40, symSize: 0xA0 }
  - { offset: 0x23DB8, size: 0x8, addend: 0x0, symName: __RNvNvNtCsieiGu2EXtoJ_4core4hint21unreachable_unchecked18precondition_checkCsfhqpD1X5bFv_18build_script_build, symObjAddr: 0x1D30, symBinAddr: 0x10000FEE0, symSize: 0x80 }
  - { offset: 0x23E18, size: 0x8, addend: 0x0, symName: __RNvNvNtCsieiGu2EXtoJ_4core9ub_checks23maybe_is_nonoverlapping7runtimeCsfhqpD1X5bFv_18build_script_build, symObjAddr: 0x1DB0, symBinAddr: 0x10000FF60, symSize: 0xC0 }
  - { offset: 0x24166, size: 0x8, addend: 0x0, symName: __RINvMNtCsieiGu2EXtoJ_4core6optionINtB3_6OptionRNtNtNtCsHUR1vrdMJt_3std3ffi6os_str5OsStrE10ok_or_elseNtNtNtBP_2io5error5ErrorNCNvCsfhqpD1X5bFv_18build_script_build36generate_sanity_tests_from_afl_seeds0EB22_, symObjAddr: 0x1F0, symBinAddr: 0x10000E400, symSize: 0x80 }
  - { offset: 0x24283, size: 0x8, addend: 0x0, symName: __RNvXs_NtNtCslJiobkLta79_5alloc3vec15set_len_on_dropNtB4_12SetLenOnDropNtNtNtCsieiGu2EXtoJ_4core3ops4drop4Drop4dropCsfhqpD1X5bFv_18build_script_build, symObjAddr: 0x2DC0, symBinAddr: 0x100010F70, symSize: 0x20 }
  - { offset: 0x24529, size: 0x8, addend: 0x0, symName: __RNvMs0_NtCslJiobkLta79_5alloc5boxedINtB5_3BoxShE16new_uninit_sliceCsfhqpD1X5bFv_18build_script_build, symObjAddr: 0x1520, symBinAddr: 0x10000F6E0, symSize: 0x80 }
  - { offset: 0x245C3, size: 0x8, addend: 0x0, symName: __RNvXs6_NtCslJiobkLta79_5alloc5boxedINtB5_3BoxDNtNtCsieiGu2EXtoJ_4core5error5ErrorNtNtBM_6marker4SyncNtB1j_4SendEL_ENtNtNtBM_3ops4drop4Drop4dropCsfhqpD1X5bFv_18build_script_build, symObjAddr: 0x2650, symBinAddr: 0x100010800, symSize: 0xC0 }
  - { offset: 0x24700, size: 0x8, addend: 0x0, symName: __RNvXs6_NtCslJiobkLta79_5alloc5boxedINtB5_3BoxNtNtNtCsHUR1vrdMJt_3std2io5error6CustomENtNtNtCsieiGu2EXtoJ_4core3ops4drop4Drop4dropCsfhqpD1X5bFv_18build_script_build, symObjAddr: 0x2710, symBinAddr: 0x1000108C0, symSize: 0xB0 }
  - { offset: 0x2483B, size: 0x8, addend: 0x0, symName: __RNvXs6_NtCslJiobkLta79_5alloc5boxedINtB5_3BoxSINtNtNtCsieiGu2EXtoJ_4core3mem12maybe_uninit11MaybeUninithEENtNtNtBP_3ops4drop4Drop4dropCsfhqpD1X5bFv_18build_script_build, symObjAddr: 0x27C0, symBinAddr: 0x100010970, symSize: 0xC0 }
  - { offset: 0x24A21, size: 0x8, addend: 0x0, symName: __RNvXsA_NtCslJiobkLta79_5alloc4syncINtB5_3ArcNtNtNtNtCsHUR1vrdMJt_3std3sys2fs4unix12InnerReadDirENtNtNtCsieiGu2EXtoJ_4core3ops4drop4Drop4dropCsfhqpD1X5bFv_18build_script_build, symObjAddr: 0x2AB0, symBinAddr: 0x100010C60, symSize: 0x80 }
  - { offset: 0x24B84, size: 0x8, addend: 0x0, symName: __RINvMNtCsieiGu2EXtoJ_4core6resultINtB3_6ResultNtNtCslJiobkLta79_5alloc6string6StringNtNtCsHUR1vrdMJt_3std3env8VarErrorE7map_errNtNtNtB1o_2io5error5ErrorNCNvCsfhqpD1X5bFv_18build_script_build11get_out_dir0EB2u_, symObjAddr: 0x270, symBinAddr: 0x10000E480, symSize: 0xC0 }
  - { offset: 0x24C18, size: 0x8, addend: 0x0, symName: __RINvMNtCsieiGu2EXtoJ_4core6resultINtB3_6ResultNtNtCslJiobkLta79_5alloc6string6StringNtNtCsHUR1vrdMJt_3std3env8VarErrorE7map_errNtNtNtB1o_2io5error5ErrorNCNvCsfhqpD1X5bFv_18build_script_build13get_crate_dir0EB2u_, symObjAddr: 0x330, symBinAddr: 0x10000E540, symSize: 0xC0 }
  - { offset: 0x24CCD, size: 0x8, addend: 0x0, symName: __RINvMNtCsieiGu2EXtoJ_4core6resultINtB3_6ResultRNtNtCslJiobkLta79_5alloc6string6StringRNtNtNtCsHUR1vrdMJt_3std2io5error5ErrorE3mapbNCNCNvCsfhqpD1X5bFv_18build_script_build43generate_compatibility_tests_from_libiberty00EB2a_, symObjAddr: 0x3F0, symBinAddr: 0x10000E600, symSize: 0x60 }
  - { offset: 0x24DF9, size: 0x8, addend: 0x0, symName: __RINvMNtNtCsieiGu2EXtoJ_4core3fmt2rtNtB3_8Argument11new_displayINtNtCslJiobkLta79_5alloc6borrow3CoweEECsfhqpD1X5bFv_18build_script_build, symObjAddr: 0x450, symBinAddr: 0x10000E660, symSize: 0x30 }
  - { offset: 0x24E31, size: 0x8, addend: 0x0, symName: __RINvMNtNtCsieiGu2EXtoJ_4core3fmt2rtNtB3_8Argument11new_displayNtNtCsHUR1vrdMJt_3std4path7DisplayECsfhqpD1X5bFv_18build_script_build, symObjAddr: 0x480, symBinAddr: 0x10000E690, symSize: 0x30 }
  - { offset: 0x24E5C, size: 0x8, addend: 0x0, symName: __RINvMNtNtCsieiGu2EXtoJ_4core3fmt2rtNtB3_8Argument11new_displayNtNtCslJiobkLta79_5alloc6string6StringECsfhqpD1X5bFv_18build_script_build, symObjAddr: 0x4B0, symBinAddr: 0x10000E6C0, symSize: 0x30 }
  - { offset: 0x24E94, size: 0x8, addend: 0x0, symName: __RINvMNtNtCsieiGu2EXtoJ_4core3fmt2rtNtB3_8Argument11new_displayReECsfhqpD1X5bFv_18build_script_build, symObjAddr: 0x4E0, symBinAddr: 0x10000E6F0, symSize: 0x30 }
  - { offset: 0x24ECC, size: 0x8, addend: 0x0, symName: __RINvMNtNtCsieiGu2EXtoJ_4core3fmt2rtNtB3_8Argument11new_displaylECsfhqpD1X5bFv_18build_script_build, symObjAddr: 0x510, symBinAddr: 0x10000E720, symSize: 0x30 }
  - { offset: 0x2502A, size: 0x8, addend: 0x0, symName: __RINvMNtNtNtNtCsHUR1vrdMJt_3std2io8buffered9bufreader6bufferNtB3_6Buffer8fill_bufQNtNtBb_2fs4FileECsfhqpD1X5bFv_18build_script_build, symObjAddr: 0x540, symBinAddr: 0x10000E750, symSize: 0x240 }
  - { offset: 0x25295, size: 0x8, addend: 0x0, symName: __RINvMs16_NtCsHUR1vrdMJt_3std4pathNtB7_4Path3newNtNtNtB9_3ffi6os_str5OsStrECsfhqpD1X5bFv_18build_script_build, symObjAddr: 0x780, symBinAddr: 0x10000E990, symSize: 0x20 }
  - { offset: 0x25457, size: 0x8, addend: 0x0, symName: __RNCINvNtCsjK30CmJ87bX_9hashbrown3map14equivalent_keylluE0CsfhqpD1X5bFv_18build_script_build, symObjAddr: 0x1070, symBinAddr: 0x10000F230, symSize: 0x20 }
  - { offset: 0x2567D, size: 0x8, addend: 0x0, symName: __RINvXs1i_NtCsjK30CmJ87bX_9hashbrown3mapINtB7_7HashMapluNtNtNtCsHUR1vrdMJt_3std4hash6random11RandomStateEINtNtNtNtCsieiGu2EXtoJ_4core4iter6traits7collect6ExtendTluEE6extendINtNtNtB1L_8adapters3map3MapINtNtNtB1N_3ops5range5RangelENCINvXs8_NtB9_3setINtB3N_7HashSetlBR_EIB1F_lE6extendB3b_E0EECsfhqpD1X5bFv_18build_script_build, symObjAddr: 0x940, symBinAddr: 0x10000EB00, symSize: 0xF0 }
  - { offset: 0x2573C, size: 0x8, addend: 0x0, symName: __RNCINvXs1i_NtCsjK30CmJ87bX_9hashbrown3mapINtB9_7HashMapluNtNtNtCsHUR1vrdMJt_3std4hash6random11RandomStateEINtNtNtNtCsieiGu2EXtoJ_4core4iter6traits7collect6ExtendTluEE6extendINtNtNtB1N_8adapters3map3MapINtNtNtB1P_3ops5range5RangelENCINvXs8_NtBb_3setINtB3P_7HashSetlBT_EIB1H_lE6extendB3d_E0EE0CsfhqpD1X5bFv_18build_script_build, symObjAddr: 0x11D0, symBinAddr: 0x10000F390, symSize: 0x20 }
  - { offset: 0x25821, size: 0x8, addend: 0x0, symName: __RNCINvNtCsjK30CmJ87bX_9hashbrown3map11make_hasherluNtNtNtCsHUR1vrdMJt_3std4hash6random11RandomStateE0CsfhqpD1X5bFv_18build_script_build, symObjAddr: 0x1040, symBinAddr: 0x10000F200, symSize: 0x30 }
  - { offset: 0x258E2, size: 0x8, addend: 0x0, symName: __RINvXs8_NtCsjK30CmJ87bX_9hashbrown3setINtB6_7HashSetlNtNtNtCsHUR1vrdMJt_3std4hash6random11RandomStateEINtNtNtNtCsieiGu2EXtoJ_4core4iter6traits7collect6ExtendlE6extendINtNtNtB1L_3ops5range5RangelEECsfhqpD1X5bFv_18build_script_build, symObjAddr: 0xBC0, symBinAddr: 0x10000ED80, symSize: 0x50 }
  - { offset: 0x25944, size: 0x8, addend: 0x0, symName: __RNCINvXs8_NtCsjK30CmJ87bX_9hashbrown3setINtB8_7HashSetlNtNtNtCsHUR1vrdMJt_3std4hash6random11RandomStateEINtNtNtNtCsieiGu2EXtoJ_4core4iter6traits7collect6ExtendlE6extendINtNtNtB1N_3ops5range5RangelEE0CsfhqpD1X5bFv_18build_script_build, symObjAddr: 0x11F0, symBinAddr: 0x10000F3B0, symSize: 0x10 }
  - { offset: 0x25AD3, size: 0x8, addend: 0x0, symName: __RINvMs1_NtCsjK30CmJ87bX_9hashbrown3mapINtB6_7HashMapluNtNtNtCsHUR1vrdMJt_3std4hash6random11RandomStateE9get_innerlECsfhqpD1X5bFv_18build_script_build, symObjAddr: 0x7A0, symBinAddr: 0x10000E9B0, symSize: 0xF0 }
  - { offset: 0x25C3F, size: 0x8, addend: 0x0, symName: __RINvMsr_NtCsHUR1vrdMJt_3std4pathNtB6_7PathBuf4pushReECsfhqpD1X5bFv_18build_script_build, symObjAddr: 0x890, symBinAddr: 0x10000EAA0, symSize: 0x60 }
  - { offset: 0x25E2C, size: 0x8, addend: 0x0, symName: __RNvMNtCsieiGu2EXtoJ_4core6resultINtB2_6ResultNtNtCslJiobkLta79_5alloc6string6StringNtNtNtCsHUR1vrdMJt_3std2io5error5ErrorE6as_refCsfhqpD1X5bFv_18build_script_build, symObjAddr: 0x1240, symBinAddr: 0x10000F400, symSize: 0x70 }
  - { offset: 0x25E9D, size: 0x8, addend: 0x0, symName: __RNvMNtCsieiGu2EXtoJ_4core6resultINtB2_6ResultbRNtNtNtCsHUR1vrdMJt_3std2io5error5ErrorE9unwrap_orCsfhqpD1X5bFv_18build_script_build, symObjAddr: 0x12B0, symBinAddr: 0x10000F470, symSize: 0x60 }
  - { offset: 0x25F0D, size: 0x8, addend: 0x0, symName: __RNvMNtCsieiGu2EXtoJ_4core6resultINtB2_6ResultuNtNtNtCsHUR1vrdMJt_3std2io5error5ErrorE6expectCsfhqpD1X5bFv_18build_script_build, symObjAddr: 0x1310, symBinAddr: 0x10000F4D0, symSize: 0x90 }
  - { offset: 0x26009, size: 0x8, addend: 0x0, symName: __RNvMNtNtCsieiGu2EXtoJ_4core9core_simd6vectorINtB2_4SimdaKj1_E4loadCsfhqpD1X5bFv_18build_script_build, symObjAddr: 0x1400, symBinAddr: 0x10000F5C0, symSize: 0x90 }
  - { offset: 0x261BA, size: 0x8, addend: 0x0, symName: __RNvMNtNtCsieiGu2EXtoJ_4core9core_simd6vectorINtB2_4SimdhKj1_E4loadCsfhqpD1X5bFv_18build_script_build, symObjAddr: 0x1490, symBinAddr: 0x10000F650, symSize: 0x90 }
  - { offset: 0x2634E, size: 0x8, addend: 0x0, symName: __RNvMs10_NtNtCsieiGu2EXtoJ_4core9core_arch3x86NtB6_7___m128i8as_i8x16CsfhqpD1X5bFv_18build_script_build, symObjAddr: 0x15A0, symBinAddr: 0x10000F760, symSize: 0x20 }
  - { offset: 0x263BE, size: 0x8, addend: 0x0, symName: __RNvMs16_NtCsHUR1vrdMJt_3std4pathNtB6_4Path15to_string_lossyCsfhqpD1X5bFv_18build_script_build, symObjAddr: 0x15C0, symBinAddr: 0x10000F780, symSize: 0x40 }
  - { offset: 0x2641D, size: 0x8, addend: 0x0, symName: __RNvMs16_NtCsHUR1vrdMJt_3std4pathNtB6_4Path7displayCsfhqpD1X5bFv_18build_script_build, symObjAddr: 0x1600, symBinAddr: 0x10000F7C0, symSize: 0x20 }
  - { offset: 0x264F9, size: 0x8, addend: 0x0, symName: __RNvMs1_NtCsjK30CmJ87bX_9hashbrown3mapINtB5_7HashMapluNtNtNtCsHUR1vrdMJt_3std4hash6random11RandomStateE6insertCsfhqpD1X5bFv_18build_script_build, symObjAddr: 0x1620, symBinAddr: 0x10000F7E0, symSize: 0x1A0 }
  - { offset: 0x2666F, size: 0x8, addend: 0x0, symName: __RNvMsl_NtNtCsHUR1vrdMJt_3std3ffi6os_strNtB5_5OsStr15to_string_lossyCsfhqpD1X5bFv_18build_script_build, symObjAddr: 0x17C0, symBinAddr: 0x10000F980, symSize: 0x30 }
  - { offset: 0x2707A, size: 0x8, addend: 0x0, symName: __RINvMs0_NtNtNtNtCsHUR1vrdMJt_3std3sys12thread_local6native4lazyINtB6_7StorageINtNtCsieiGu2EXtoJ_4core4cell4CellTyyEEzE11get_or_initNvNvNvMNtNtBe_4hash6randomNtB2c_11RandomState3new4KEYS6___initECsfhqpD1X5bFv_18build_script_build, symObjAddr: 0x0, symBinAddr: 0x100011A00, symSize: 0x90 }
  - { offset: 0x270B1, size: 0x8, addend: 0x0, symName: __RNCINvNtCsHUR1vrdMJt_3std2rt10lang_startuE0CsfhqpD1X5bFv_18build_script_build, symObjAddr: 0x1BE0, symBinAddr: 0x1000132D0, symSize: 0x30 }
  - { offset: 0x2711B, size: 0x8, addend: 0x0, symName: __RINvNtCsHUR1vrdMJt_3std2rt10lang_startuECsfhqpD1X5bFv_18build_script_build, symObjAddr: 0xF30, symBinAddr: 0x1000126D0, symSize: 0x40 }
  - { offset: 0x274FB, size: 0x8, addend: 0x0, symName: __RNvXNtNtCsHUR1vrdMJt_3std2io5implsQNtNtB6_2fs4FileNtB4_4Read8read_bufCsfhqpD1X5bFv_18build_script_build, symObjAddr: 0x3560, symBinAddr: 0x100014C50, symSize: 0x20 }
  - { offset: 0x27545, size: 0x8, addend: 0x0, symName: __RNvYNtNtCsHUR1vrdMJt_3std2fs4FileNtNtB6_2io5Write9write_allCsfhqpD1X5bFv_18build_script_build, symObjAddr: 0x3D60, symBinAddr: 0x100015450, symSize: 0x2E0 }
  - { offset: 0x276EB, size: 0x8, addend: 0x0, symName: __RNvYNtNtCsHUR1vrdMJt_3std2fs4FileNtNtB6_2io5Write9write_fmtCsfhqpD1X5bFv_18build_script_build, symObjAddr: 0x4040, symBinAddr: 0x100015730, symSize: 0x170 }
  - { offset: 0x278E9, size: 0x8, addend: 0x0, symName: __RINvXNtNtNtNtCsHUR1vrdMJt_3std3sys12thread_local6native4lazyzNtB3_14DestroyedState13register_dtorINtNtCsieiGu2EXtoJ_4core4cell4CellTyyEEECsfhqpD1X5bFv_18build_script_build, symObjAddr: 0x18D0, symBinAddr: 0x100012FC0, symSize: 0x10 }
  - { offset: 0x27AC3, size: 0x8, addend: 0x0, symName: __RINvNtNtCsHUR1vrdMJt_3std3sys9backtrace28___rust_begin_short_backtraceFEuuECsfhqpD1X5bFv_18build_script_build, symObjAddr: 0x12B0, symBinAddr: 0x1000129A0, symSize: 0x20 }
  - { offset: 0x27CAB, size: 0x8, addend: 0x0, symName: __RINvNtCsHUR1vrdMJt_3std2fs11remove_fileRNtNtB4_4path7PathBufECsfhqpD1X5bFv_18build_script_build, symObjAddr: 0xE00, symBinAddr: 0x1000125A0, symSize: 0x60 }
  - { offset: 0x27CF7, size: 0x8, addend: 0x0, symName: __RINvNtCsHUR1vrdMJt_3std2fs8read_dirNtNtB4_4path7PathBufECsfhqpD1X5bFv_18build_script_build, symObjAddr: 0xE60, symBinAddr: 0x100012600, symSize: 0xD0 }
  - { offset: 0x27E67, size: 0x8, addend: 0x0, symName: __RNCNkNvNvMNtNtCsHUR1vrdMJt_3std4hash6randomNtB8_11RandomState3new4KEYS0s_0CsfhqpD1X5bFv_18build_script_build, symObjAddr: 0x1D50, symBinAddr: 0x100013440, symSize: 0x30 }
  - { offset: 0x27EA5, size: 0x8, addend: 0x0, symName: __RNvNvNvMNtNtCsHUR1vrdMJt_3std4hash6randomNtB6_11RandomState3new4KEYS6___initCsfhqpD1X5bFv_18build_script_build, symObjAddr: 0x34D0, symBinAddr: 0x100014BC0, symSize: 0x20 }
  - { offset: 0x27EC3, size: 0x8, addend: 0x0, symName: __RNCNvMNtNtCsHUR1vrdMJt_3std4hash6randomNtB4_11RandomState3new0CsfhqpD1X5bFv_18build_script_build, symObjAddr: 0x1D80, symBinAddr: 0x100013470, symSize: 0x20 }
  - { offset: 0x27F88, size: 0x8, addend: 0x0, symName: __RNvXs2_NtNtCsHUR1vrdMJt_3std4hash6randomNtB5_13DefaultHasherNtNtCsieiGu2EXtoJ_4core4hash6Hasher5writeCsfhqpD1X5bFv_18build_script_build, symObjAddr: 0x3800, symBinAddr: 0x100014EF0, symSize: 0x30 }
  - { offset: 0x27FE3, size: 0x8, addend: 0x0, symName: __RNvXs2_NtNtCsHUR1vrdMJt_3std4hash6randomNtB5_13DefaultHasherNtNtCsieiGu2EXtoJ_4core4hash6Hasher6finishCsfhqpD1X5bFv_18build_script_build, symObjAddr: 0x3830, symBinAddr: 0x100014F20, symSize: 0x20 }
  - { offset: 0x28062, size: 0x8, addend: 0x0, symName: __RNvXs3_NtNtCsHUR1vrdMJt_3std4hash6randomNtB5_11RandomStateNtNtCsieiGu2EXtoJ_4core7default7Default7defaultCsfhqpD1X5bFv_18build_script_build, symObjAddr: 0x3850, symBinAddr: 0x100014F40, symSize: 0x20 }
  - { offset: 0x2809A, size: 0x8, addend: 0x0, symName: __RNvXs_NtNtCsHUR1vrdMJt_3std4hash6randomNtB4_11RandomStateNtNtCsieiGu2EXtoJ_4core4hash11BuildHasher12build_hasherCsfhqpD1X5bFv_18build_script_build, symObjAddr: 0x3BE0, symBinAddr: 0x1000152D0, symSize: 0xF0 }
  - { offset: 0x297D0, size: 0x8, addend: 0x0, symName: __RINvNtCsieiGu2EXtoJ_4core3ptr10swap_chunkKj1_ECsfhqpD1X5bFv_18build_script_build, symObjAddr: 0xF70, symBinAddr: 0x100012710, symSize: 0x30 }
  - { offset: 0x29809, size: 0x8, addend: 0x0, symName: __RINvNtCsieiGu2EXtoJ_4core3ptr10swap_chunkKj2_ECsfhqpD1X5bFv_18build_script_build, symObjAddr: 0xFA0, symBinAddr: 0x100012740, symSize: 0x30 }
  - { offset: 0x29842, size: 0x8, addend: 0x0, symName: __RINvNtCsieiGu2EXtoJ_4core3ptr10swap_chunkKj4_ECsfhqpD1X5bFv_18build_script_build, symObjAddr: 0xFD0, symBinAddr: 0x100012770, symSize: 0x30 }
  - { offset: 0x2987B, size: 0x8, addend: 0x0, symName: __RINvNtCsieiGu2EXtoJ_4core3ptr10swap_chunkKj8_ECsfhqpD1X5bFv_18build_script_build, symObjAddr: 0x1000, symBinAddr: 0x1000127A0, symSize: 0x30 }
  - { offset: 0x29916, size: 0x8, addend: 0x0, symName: __RINvNtCsieiGu2EXtoJ_4core3ptr14read_unalignedINtNtNtB4_9core_simd6vector4SimdhKj10_EECsfhqpD1X5bFv_18build_script_build, symObjAddr: 0x1030, symBinAddr: 0x1000127D0, symSize: 0xA0 }
  - { offset: 0x29A8A, size: 0x8, addend: 0x0, symName: __RINvNtCsieiGu2EXtoJ_4core3ptr14read_unalignedmECsfhqpD1X5bFv_18build_script_build, symObjAddr: 0x10D0, symBinAddr: 0x100012870, symSize: 0x80 }
  - { offset: 0x29C07, size: 0x8, addend: 0x0, symName: __RNvNvNtCsieiGu2EXtoJ_4core3ptr19swap_nonoverlapping18precondition_checkCsfhqpD1X5bFv_18build_script_build, symObjAddr: 0x2700, symBinAddr: 0x100013DF0, symSize: 0x4E0 }
  - { offset: 0x29F47, size: 0x8, addend: 0x0, symName: __RINvNtCsieiGu2EXtoJ_4core3ptr19swap_nonoverlappinghECsfhqpD1X5bFv_18build_script_build, symObjAddr: 0x1200, symBinAddr: 0x1000128F0, symSize: 0xB0 }
  - { offset: 0x2A095, size: 0x8, addend: 0x0, symName: __RINvNvNtCsieiGu2EXtoJ_4core3ptr25swap_nonoverlapping_bytes26swap_nonoverlapping_chunksKj8_ECsfhqpD1X5bFv_18build_script_build, symObjAddr: 0x17C0, symBinAddr: 0x100012EB0, symSize: 0x110 }
  - { offset: 0x2A23A, size: 0x8, addend: 0x0, symName: __RNvNvNtCsieiGu2EXtoJ_4core3ptr25swap_nonoverlapping_bytes25swap_nonoverlapping_shortCsfhqpD1X5bFv_18build_script_build, symObjAddr: 0x2BE0, symBinAddr: 0x1000142D0, symSize: 0x160 }
  - { offset: 0x2A407, size: 0x8, addend: 0x0, symName: __RNvNtCsieiGu2EXtoJ_4core3ptr25swap_nonoverlapping_bytesCsfhqpD1X5bFv_18build_script_build, symObjAddr: 0x1EB0, symBinAddr: 0x1000135A0, symSize: 0xD0 }
  - { offset: 0x2A5B0, size: 0x8, addend: 0x0, symName: __RNvNvNtCsieiGu2EXtoJ_4core3ptr19copy_nonoverlapping18precondition_checkCsfhqpD1X5bFv_18build_script_build, symObjAddr: 0x2250, symBinAddr: 0x100013940, symSize: 0x4B0 }
  - { offset: 0x2A8C1, size: 0x8, addend: 0x0, symName: __RNvNvNtCsieiGu2EXtoJ_4core3ptr7replace18precondition_checkCsfhqpD1X5bFv_18build_script_build, symObjAddr: 0x2D40, symBinAddr: 0x100014430, symSize: 0x1E0 }
  - { offset: 0x2AB71, size: 0x8, addend: 0x0, symName: __RNvXNtNtCsieiGu2EXtoJ_4core3ops12control_flowINtB2_11ControlFlowINtNtB6_6result6ResultNtNtCslJiobkLta79_5alloc6string6StringNtNtNtCsHUR1vrdMJt_3std2io5error5ErrorEENtNtB4_9try_trait3Try11from_outputCsfhqpD1X5bFv_18build_script_build, symObjAddr: 0x35A0, symBinAddr: 0x100014C90, symSize: 0x20 }
  - { offset: 0x2ABAF, size: 0x8, addend: 0x0, symName: __RNvXNtNtCsieiGu2EXtoJ_4core3ops12control_flowINtB2_11ControlFlowINtNtB6_6result6ResultNtNtCslJiobkLta79_5alloc6string6StringNtNtNtCsHUR1vrdMJt_3std2io5error5ErrorEENtNtB4_9try_trait3Try6branchCsfhqpD1X5bFv_18build_script_build, symObjAddr: 0x35C0, symBinAddr: 0x100014CB0, symSize: 0xA0 }
  - { offset: 0x2AC28, size: 0x8, addend: 0x0, symName: __RNvXNtNtCsieiGu2EXtoJ_4core3ops12control_flowINtB2_11ControlFlowjENtNtB4_9try_trait3Try11from_outputCsfhqpD1X5bFv_18build_script_build, symObjAddr: 0x3660, symBinAddr: 0x100014D50, symSize: 0x10 }
  - { offset: 0x2AC66, size: 0x8, addend: 0x0, symName: __RNvXNtNtCsieiGu2EXtoJ_4core3ops12control_flowINtB2_11ControlFlowjENtNtB4_9try_trait3Try6branchCsfhqpD1X5bFv_18build_script_build, symObjAddr: 0x3670, symBinAddr: 0x100014D60, symSize: 0x40 }
  - { offset: 0x2ACDE, size: 0x8, addend: 0x0, symName: __RNvXNtNtCsieiGu2EXtoJ_4core3ops12control_flowINtB2_11ControlFlowuENtNtB4_9try_trait3Try11from_outputCsfhqpD1X5bFv_18build_script_build, symObjAddr: 0x36B0, symBinAddr: 0x100014DA0, symSize: 0x10 }
  - { offset: 0x2AD1C, size: 0x8, addend: 0x0, symName: __RNvXNtNtCsieiGu2EXtoJ_4core3ops12control_flowINtB2_11ControlFlowuENtNtB4_9try_trait3Try6branchCsfhqpD1X5bFv_18build_script_build, symObjAddr: 0x36C0, symBinAddr: 0x100014DB0, symSize: 0x30 }
  - { offset: 0x2AD9A, size: 0x8, addend: 0x0, symName: __RNvXs9_NtNtCsieiGu2EXtoJ_4core3ops12control_flowINtB5_11ControlFlowuENtNtB9_3cmp9PartialEq2eqCsfhqpD1X5bFv_18build_script_build, symObjAddr: 0x39D0, symBinAddr: 0x1000150C0, symSize: 0xE0 }
  - { offset: 0x2AEBC, size: 0x8, addend: 0x0, symName: __RNvXs_NtNtCsieiGu2EXtoJ_4core3ops12control_flowINtB4_11ControlFlowINtNtB8_6result6ResultNtNtCslJiobkLta79_5alloc6string6StringNtNtNtCsHUR1vrdMJt_3std2io5error5ErrorEEINtNtB6_9try_trait12FromResidualIBK_B12_NtNtB8_7convert10InfallibleEE13from_residualCsfhqpD1X5bFv_18build_script_build, symObjAddr: 0x3CD0, symBinAddr: 0x1000153C0, symSize: 0x40 }
  - { offset: 0x2AEFA, size: 0x8, addend: 0x0, symName: __RNvXs_NtNtCsieiGu2EXtoJ_4core3ops12control_flowINtB4_11ControlFlowjEINtNtB6_9try_trait12FromResidualIBK_jNtNtB8_7convert10InfallibleEE13from_residualCsfhqpD1X5bFv_18build_script_build, symObjAddr: 0x3D10, symBinAddr: 0x100015400, symSize: 0x20 }
  - { offset: 0x2AF38, size: 0x8, addend: 0x0, symName: __RNvXs_NtNtCsieiGu2EXtoJ_4core3ops12control_flowINtB4_11ControlFlowuEINtNtB6_9try_trait12FromResidualIBK_uNtNtB8_7convert10InfallibleEE13from_residualCsfhqpD1X5bFv_18build_script_build, symObjAddr: 0x3D30, symBinAddr: 0x100015420, symSize: 0x10 }
  - { offset: 0x2B5C4, size: 0x8, addend: 0x0, symName: __RNvNvMs9_NtCsieiGu2EXtoJ_4core3numj13unchecked_add18precondition_checkCsfhqpD1X5bFv_18build_script_build, symObjAddr: 0x2110, symBinAddr: 0x100013800, symSize: 0xA0 }
  - { offset: 0x2B682, size: 0x8, addend: 0x0, symName: __RNvNvMs9_NtCsieiGu2EXtoJ_4core3numj13unchecked_sub18precondition_checkCsfhqpD1X5bFv_18build_script_build, symObjAddr: 0x21B0, symBinAddr: 0x1000138A0, symSize: 0xA0 }
  - { offset: 0x2B89D, size: 0x8, addend: 0x0, symName: __RNvNvMs3_NtCsieiGu2EXtoJ_4core3numi13unchecked_neg18precondition_checkCsfhqpD1X5bFv_18build_script_build, symObjAddr: 0x2060, symBinAddr: 0x100013750, symSize: 0xB0 }
  - { offset: 0x2BEEC, size: 0x8, addend: 0x0, symName: __RNvNvNtNtCsieiGu2EXtoJ_4core4char7convert18from_u32_unchecked18precondition_checkCsfhqpD1X5bFv_18build_script_build, symObjAddr: 0x2F20, symBinAddr: 0x100014610, symSize: 0xF0 }
  - { offset: 0x2C31A, size: 0x8, addend: 0x0, symName: __RINvNtNtCsieiGu2EXtoJ_4core3str11validations15next_code_pointINtNtNtB6_5slice4iter4IterhEECsfhqpD1X5bFv_18build_script_build, symObjAddr: 0x12D0, symBinAddr: 0x1000129C0, symSize: 0x260 }
  - { offset: 0x2C5D3, size: 0x8, addend: 0x0, symName: __RINvNtNtCsieiGu2EXtoJ_4core3str11validations23next_code_point_reverseINtNtNtB6_5slice4iter4IterhEECsfhqpD1X5bFv_18build_script_build, symObjAddr: 0x1530, symBinAddr: 0x100012C20, symSize: 0x290 }
  - { offset: 0x2C95C, size: 0x8, addend: 0x0, symName: __RNvNtNtCsieiGu2EXtoJ_4core5slice6memchr6memchrCsfhqpD1X5bFv_18build_script_build, symObjAddr: 0x1F80, symBinAddr: 0x100013670, symSize: 0xE0 }
  - { offset: 0x2C9D0, size: 0x8, addend: 0x0, symName: __RNvNvNtNtCsieiGu2EXtoJ_4core5slice3raw14from_raw_parts18precondition_checkCsfhqpD1X5bFv_18build_script_build, symObjAddr: 0x3010, symBinAddr: 0x100014700, symSize: 0x260 }
  - { offset: 0x2CB9E, size: 0x8, addend: 0x0, symName: __RNvNvNtNtCsieiGu2EXtoJ_4core5slice3raw18from_raw_parts_mut18precondition_checkCsfhqpD1X5bFv_18build_script_build, symObjAddr: 0x3270, symBinAddr: 0x100014960, symSize: 0x260 }
  - { offset: 0x2CE21, size: 0x8, addend: 0x0, symName: __RINvXs0_NtNtNtCsieiGu2EXtoJ_4core4iter8adapters3mapINtB6_3MapINtNtNtBc_3ops5range5RangelENCINvXs8_NtCsjK30CmJ87bX_9hashbrown3setINtB1y_7HashSetlNtNtNtCsHUR1vrdMJt_3std4hash6random11RandomStateEINtNtNtBa_6traits7collect6ExtendlE6extendBX_E0ENtNtB3a_8iterator8Iterator4folduNCINvNvB3Q_8for_each4callTluENCINvXs1i_NtB1A_3mapINtB4Z_7HashMapluB2i_EIB36_B4L_E6extendBN_E0E0ECsfhqpD1X5bFv_18build_script_build, symObjAddr: 0x18E0, symBinAddr: 0x100012FD0, symSize: 0x20 }
  - { offset: 0x2CE92, size: 0x8, addend: 0x0, symName: __RINvXs0_NtNtNtCsieiGu2EXtoJ_4core4iter8adapters3mapINtB6_3MapINtNtNtBc_5slice4iter4IterhENCNvNtCslJiobkLta79_5alloc3str13replace_ascii0ENtNtNtBa_6traits8iterator8Iterator4folduNCINvNvB2a_8for_each4callhNCINvMsi_NtB1v_3vecINtB3n_3VechE14extend_trustedBN_E0E0ECsfhqpD1X5bFv_18build_script_build, symObjAddr: 0x1900, symBinAddr: 0x100012FF0, symSize: 0x60 }
  - { offset: 0x2CF2B, size: 0x8, addend: 0x0, symName: __RNvXs0_NtNtNtCsieiGu2EXtoJ_4core4iter8adapters3mapINtB5_3MapINtNtNtBb_3ops5range5RangelENCINvXs8_NtCsjK30CmJ87bX_9hashbrown3setINtB1x_7HashSetlNtNtNtCsHUR1vrdMJt_3std4hash6random11RandomStateEINtNtNtB9_6traits7collect6ExtendlE6extendBW_E0ENtNtB39_8iterator8Iterator9size_hintCsfhqpD1X5bFv_18build_script_build, symObjAddr: 0x3750, symBinAddr: 0x100014E40, symSize: 0x30 }
  - { offset: 0x2CF72, size: 0x8, addend: 0x0, symName: __RNvXs0_NtNtNtCsieiGu2EXtoJ_4core4iter8adapters3mapINtB5_3MapINtNtNtBb_5slice4iter4IterhENCNvNtCslJiobkLta79_5alloc3str13replace_ascii0ENtNtNtB9_6traits8iterator8Iterator9size_hintCsfhqpD1X5bFv_18build_script_build, symObjAddr: 0x3780, symBinAddr: 0x100014E70, symSize: 0x30 }
  - { offset: 0x2D031, size: 0x8, addend: 0x0, symName: __RNCINvNtNtNtCsieiGu2EXtoJ_4core4iter8adapters3map8map_foldRhhuNCNvNtCslJiobkLta79_5alloc3str13replace_ascii0NCINvNvNtNtNtB8_6traits8iterator8Iterator8for_each4callhNCINvMsi_NtB14_3vecINtB2L_3VechE14extend_trustedINtB4_3MapINtNtNtBa_5slice4iter4IterhEBY_EE0E0E0CsfhqpD1X5bFv_18build_script_build, symObjAddr: 0x1C10, symBinAddr: 0x100013300, symSize: 0x70 }
  - { offset: 0x2D0B6, size: 0x8, addend: 0x0, symName: __RNCINvNtNtNtCsieiGu2EXtoJ_4core4iter8adapters3map8map_foldlTluEuNCINvXs8_NtCsjK30CmJ87bX_9hashbrown3setINtB19_7HashSetlNtNtNtCsHUR1vrdMJt_3std4hash6random11RandomStateEINtNtNtB8_6traits7collect6ExtendlE6extendINtNtNtBa_3ops5range5RangelEE0NCINvNvNtNtB2L_8iterator8Iterator8for_each4callBV_NCINvXs1i_NtB1b_3mapINtB4N_7HashMapluB1T_EIB2H_BV_E6extendINtB4_3MapB3l_B10_EE0E0E0CsfhqpD1X5bFv_18build_script_build, symObjAddr: 0x1C80, symBinAddr: 0x100013370, symSize: 0x60 }
  - { offset: 0x2D17A, size: 0x8, addend: 0x0, symName: __RNvXs3_NtNtNtCsieiGu2EXtoJ_4core4iter8adapters3zipINtB5_3ZipINtNtNtBb_5slice4iter4IterhEBW_EINtB5_7ZipImplBW_BW_E3newCsfhqpD1X5bFv_18build_script_build, symObjAddr: 0x3870, symBinAddr: 0x100014F60, symSize: 0xC0 }
  - { offset: 0x2D20E, size: 0x8, addend: 0x0, symName: __RNvXs3_NtNtNtCsieiGu2EXtoJ_4core4iter8adapters3zipINtB5_3ZipINtNtNtBb_5slice4iter4IterhEBW_EINtB5_7ZipImplBW_BW_E4nextCsfhqpD1X5bFv_18build_script_build, symObjAddr: 0x3930, symBinAddr: 0x100015020, symSize: 0xA0 }
  - { offset: 0x2D368, size: 0x8, addend: 0x0, symName: __RINvYINtNtNtNtCsieiGu2EXtoJ_4core4iter8adapters3map3MapINtNtNtBc_3ops5range5RangelENCINvXs8_NtCsjK30CmJ87bX_9hashbrown3setINtB1s_7HashSetlNtNtNtCsHUR1vrdMJt_3std4hash6random11RandomStateEINtNtNtBa_6traits7collect6ExtendlE6extendBR_E0ENtNtB34_8iterator8Iterator8for_eachNCINvXs1i_NtB1u_3mapINtB4t_7HashMapluB2c_EIB30_TluEE6extendB3_E0ECsfhqpD1X5bFv_18build_script_build, symObjAddr: 0x1AA0, symBinAddr: 0x100013190, symSize: 0x20 }
  - { offset: 0x2D3B3, size: 0x8, addend: 0x0, symName: __RINvYINtNtNtNtCsieiGu2EXtoJ_4core4iter8adapters3map3MapINtNtNtBc_5slice4iter4IterhENCNvNtCslJiobkLta79_5alloc3str13replace_ascii0ENtNtNtBa_6traits8iterator8Iterator7collectINtNtB1p_3vec3VechEECsfhqpD1X5bFv_18build_script_build, symObjAddr: 0x1AC0, symBinAddr: 0x1000131B0, symSize: 0x70 }
  - { offset: 0x2D449, size: 0x8, addend: 0x0, symName: __RINvYINtNtNtNtCsieiGu2EXtoJ_4core4iter8adapters3map3MapINtNtNtBc_5slice4iter4IterhENCNvNtCslJiobkLta79_5alloc3str13replace_ascii0ENtNtNtBa_6traits8iterator8Iterator8for_eachNCINvMsi_NtB1p_3vecINtB2U_3VechE14extend_trustedB3_E0ECsfhqpD1X5bFv_18build_script_build, symObjAddr: 0x1B30, symBinAddr: 0x100013220, symSize: 0x30 }
  - { offset: 0x2D4CA, size: 0x8, addend: 0x0, symName: __RNCINvNvNtNtNtNtCsieiGu2EXtoJ_4core4iter6traits12double_ended19DoubleEndedIterator5rfind5checkjNCNvNtNtBe_3str7pattern13simd_contains0E0CsfhqpD1X5bFv_18build_script_build, symObjAddr: 0x1CE0, symBinAddr: 0x1000133D0, symSize: 0x70 }
  - { offset: 0x2D534, size: 0x8, addend: 0x0, symName: __RNvXNtNtNtCsieiGu2EXtoJ_4core4iter6traits7collectINtNtNtB6_8adapters3map3MapINtNtNtB8_3ops5range5RangelENCINvXs8_NtCsjK30CmJ87bX_9hashbrown3setINtB1N_7HashSetlNtNtNtCsHUR1vrdMJt_3std4hash6random11RandomStateEINtB2_6ExtendlE6extendB1c_E0ENtB2_12IntoIterator9into_iterCsfhqpD1X5bFv_18build_script_build, symObjAddr: 0x36F0, symBinAddr: 0x100014DE0, symSize: 0x10 }
  - { offset: 0x2D56B, size: 0x8, addend: 0x0, symName: __RNvXNtNtNtCsieiGu2EXtoJ_4core4iter6traits7collectINtNtNtB6_8adapters3map3MapINtNtNtB8_5slice4iter4IterhENCNvNtCslJiobkLta79_5alloc3str13replace_ascii0ENtB2_12IntoIterator9into_iterCsfhqpD1X5bFv_18build_script_build, symObjAddr: 0x3700, symBinAddr: 0x100014DF0, symSize: 0x30 }
  - { offset: 0x2D5A2, size: 0x8, addend: 0x0, symName: __RNvXNtNtNtCsieiGu2EXtoJ_4core4iter6traits7collectNtNtCsHUR1vrdMJt_3std2fs7ReadDirNtB2_12IntoIterator9into_iterCsfhqpD1X5bFv_18build_script_build, symObjAddr: 0x3730, symBinAddr: 0x100014E20, symSize: 0x20 }
  - { offset: 0x2D60E, size: 0x8, addend: 0x0, symName: __RNvXsF_NtNtCsieiGu2EXtoJ_4core4iter5rangejNtB5_4Step18backward_uncheckedCsfhqpD1X5bFv_18build_script_build, symObjAddr: 0x3BA0, symBinAddr: 0x100015290, symSize: 0x40 }
  - { offset: 0x2D6DC, size: 0x8, addend: 0x0, symName: __RNvXsC_NtNtCsieiGu2EXtoJ_4core4iter5rangelNtB5_4Step13steps_betweenCsfhqpD1X5bFv_18build_script_build, symObjAddr: 0x3AB0, symBinAddr: 0x1000151A0, symSize: 0x80 }
  - { offset: 0x2D75D, size: 0x8, addend: 0x0, symName: __RNvXsC_NtNtCsieiGu2EXtoJ_4core4iter5rangelNtB5_4Step17forward_uncheckedCsfhqpD1X5bFv_18build_script_build, symObjAddr: 0x3B30, symBinAddr: 0x100015220, symSize: 0x70 }
  - { offset: 0x2D9C7, size: 0x8, addend: 0x0, symName: __RINvXsn_NtNtCsieiGu2EXtoJ_4core9core_simd5masksaNtNtB6_6sealed6Sealed5validKj10_ECsfhqpD1X5bFv_18build_script_build, symObjAddr: 0x1960, symBinAddr: 0x100013050, symSize: 0x140 }
  - { offset: 0x2DB8C, size: 0x8, addend: 0x0, symName: __RNvXNtCsieiGu2EXtoJ_4core7convertReINtB2_5AsRefNtNtCsHUR1vrdMJt_3std4path4PathE6as_refCsfhqpD1X5bFv_18build_script_build, symObjAddr: 0x3500, symBinAddr: 0x100014BF0, symSize: 0x30 }
  - { offset: 0x2DBCC, size: 0x8, addend: 0x0, symName: __RNvXNtCsieiGu2EXtoJ_4core7convertReINtB2_5AsRefNtNtNtCsHUR1vrdMJt_3std3ffi6os_str5OsStrE6as_refCsfhqpD1X5bFv_18build_script_build, symObjAddr: 0x3530, symBinAddr: 0x100014C20, symSize: 0x30 }
  - { offset: 0x2DC4D, size: 0x8, addend: 0x0, symName: __RNvXNtNtCsieiGu2EXtoJ_4core3cmp5implsuNtB4_9PartialEq2eqCsfhqpD1X5bFv_18build_script_build, symObjAddr: 0x3580, symBinAddr: 0x100014C70, symSize: 0x20 }
  - { offset: 0x2DCD2, size: 0x8, addend: 0x0, symName: __RNvXss_NtNtCsieiGu2EXtoJ_4core3cmp5implslNtB7_9PartialEq2eqCsfhqpD1X5bFv_18build_script_build, symObjAddr: 0x3D40, symBinAddr: 0x100015430, symSize: 0x20 }
  - { offset: 0x2DF6C, size: 0x8, addend: 0x0, symName: __RINvYNtNtNtCsHUR1vrdMJt_3std4hash6random11RandomStateNtNtCsieiGu2EXtoJ_4core4hash11BuildHasher8hash_oneRlECsfhqpD1X5bFv_18build_script_build, symObjAddr: 0x1B60, symBinAddr: 0x100013250, symSize: 0x80 }
  - { offset: 0x2E11D, size: 0x8, addend: 0x0, symName: __RNvYNtNtNtCsHUR1vrdMJt_3std4hash6random13DefaultHasherNtNtCsieiGu2EXtoJ_4core4hash6Hasher9write_i32CsfhqpD1X5bFv_18build_script_build, symObjAddr: 0x41B0, symBinAddr: 0x1000158A0, symSize: 0x20 }
  - { offset: 0x2E15F, size: 0x8, addend: 0x0, symName: __RNvYNtNtNtCsHUR1vrdMJt_3std4hash6random13DefaultHasherNtNtCsieiGu2EXtoJ_4core4hash6Hasher9write_u32CsfhqpD1X5bFv_18build_script_build, symObjAddr: 0x41D0, symBinAddr: 0x1000158C0, symSize: 0x30 }
  - { offset: 0x2E5AF, size: 0x8, addend: 0x0, symName: __RNvXNtCsieiGu2EXtoJ_4core6borrowlINtB2_6BorrowlE6borrowCsfhqpD1X5bFv_18build_script_build, symObjAddr: 0x34F0, symBinAddr: 0x100014BE0, symSize: 0x10 }
  - { offset: 0x2E6F9, size: 0x8, addend: 0x0, symName: __RINvMs0_NtNtNtNtCsHUR1vrdMJt_3std3sys12thread_local6native4lazyINtB6_7StorageINtNtCsieiGu2EXtoJ_4core4cell4CellTyyEEzE11get_or_initNvNvNvMNtNtBe_4hash6randomNtB2c_11RandomState3new4KEYS6___initECsfhqpD1X5bFv_18build_script_build, symObjAddr: 0x0, symBinAddr: 0x100011A00, symSize: 0x90 }
  - { offset: 0x2E932, size: 0x8, addend: 0x0, symName: __RINvMs0_NtNtNtNtCsHUR1vrdMJt_3std3sys12thread_local6native4lazyINtB6_7StorageINtNtCsieiGu2EXtoJ_4core4cell4CellTyyEEzE16get_or_init_slowNvNvNvMNtNtBe_4hash6randomNtB2h_11RandomState3new4KEYS6___initECsfhqpD1X5bFv_18build_script_build, symObjAddr: 0x90, symBinAddr: 0x100056930, symSize: 0x260 }
  - { offset: 0x2EE39, size: 0x8, addend: 0x0, symName: __RINvMs3_NtCslJiobkLta79_5alloc3stre7replaceReECsfhqpD1X5bFv_18build_script_build, symObjAddr: 0x480, symBinAddr: 0x100011C20, symSize: 0x910 }
  - { offset: 0x2F965, size: 0x8, addend: 0x0, symName: __RNCNvNtCslJiobkLta79_5alloc3str13replace_ascii0CsfhqpD1X5bFv_18build_script_build, symObjAddr: 0x1DA0, symBinAddr: 0x100013490, symSize: 0x40 }
  - { offset: 0x2FB10, size: 0x8, addend: 0x0, symName: __RINvMs2_NtCsHUR1vrdMJt_3std2fsNtB6_4File4openNtNtB8_4path7PathBufECsfhqpD1X5bFv_18build_script_build, symObjAddr: 0x2F0, symBinAddr: 0x100011A90, symSize: 0xC0 }
  - { offset: 0x2FC1A, size: 0x8, addend: 0x0, symName: __RINvMs2_NtCsHUR1vrdMJt_3std2fsNtB6_4File6createNtNtB8_4path7PathBufECsfhqpD1X5bFv_18build_script_build, symObjAddr: 0x3B0, symBinAddr: 0x100011B50, symSize: 0xD0 }
  - { offset: 0x300E8, size: 0x8, addend: 0x0, symName: __RINvMsg_NtCsHUR1vrdMJt_3std2fsNtB6_11OpenOptions4openRNtNtB8_4path4PathECsfhqpD1X5bFv_18build_script_build, symObjAddr: 0xD90, symBinAddr: 0x100012530, symSize: 0x70 }
  - { offset: 0x3037E, size: 0x8, addend: 0x0, symName: __RNvXs1_NtCsjK30CmJ87bX_9hashbrown10scopeguardINtB5_10ScopeGuardNtNtB7_3raw13RawTableInnerNCINvMsa_B11_BZ_14prepare_resizeNtNtCslJiobkLta79_5alloc5alloc6GlobalE0ENtNtNtCsieiGu2EXtoJ_4core3ops4drop4Drop4dropCsfhqpD1X5bFv_18build_script_build, symObjAddr: 0x37B0, symBinAddr: 0x100014EA0, symSize: 0x20 }
  - { offset: 0x303B8, size: 0x8, addend: 0x0, symName: __RNvXs1_NtCsjK30CmJ87bX_9hashbrown10scopeguardINtB5_10ScopeGuardQNtNtB7_3raw13RawTableInnerNCNvMsa_B12_B10_15rehash_in_place0ENtNtNtCsieiGu2EXtoJ_4core3ops4drop4Drop4dropCsfhqpD1X5bFv_18build_script_build, symObjAddr: 0x37D0, symBinAddr: 0x100014EC0, symSize: 0x30 }
  - { offset: 0x30840, size: 0x8, addend: 0x0, symName: __RNvMNtNtNtCsjK30CmJ87bX_9hashbrown7control5group4sse2NtB2_5Group44convert_special_to_empty_and_full_to_deletedCsfhqpD1X5bFv_18build_script_build, symObjAddr: 0x1DE0, symBinAddr: 0x1000134D0, symSize: 0xD0 }
  - { offset: 0x30E87, size: 0x8, addend: 0x0, symName: ___llvm_profile_get_magic, symObjAddr: 0x20, symBinAddr: 0x100015960, symSize: 0x10 }
  - { offset: 0x30EA8, size: 0x8, addend: 0x0, symName: ___llvm_profile_get_num_padding_bytes, symObjAddr: 0x40, symBinAddr: 0x100015970, symSize: 0x10 }
  - { offset: 0x30ED9, size: 0x8, addend: 0x0, symName: ___llvm_profile_get_version, symObjAddr: 0x50, symBinAddr: 0x100015980, symSize: 0x10 }
  - { offset: 0x30F4E, size: 0x8, addend: 0x0, symName: ___llvm_profile_is_continuous_mode_enabled, symObjAddr: 0x0, symBinAddr: 0x100015990, symSize: 0x20 }
  - { offset: 0x30F6B, size: 0x8, addend: 0x0, symName: _ContinuouslySyncProfile, symObjAddr: 0x40E0, symBinAddr: 0x10006F890, symSize: 0x0 }
  - { offset: 0x30F8D, size: 0x8, addend: 0x0, symName: _PageSize, symObjAddr: 0x40E4, symBinAddr: 0x10006F894, symSize: 0x0 }
  - { offset: 0x30FBB, size: 0x8, addend: 0x0, symName: ___llvm_profile_is_continuous_mode_enabled, symObjAddr: 0x0, symBinAddr: 0x100015990, symSize: 0x20 }
  - { offset: 0x30FDC, size: 0x8, addend: 0x0, symName: ___llvm_profile_enable_continuous_mode, symObjAddr: 0x20, symBinAddr: 0x1000159B0, symSize: 0x10 }
  - { offset: 0x30FF9, size: 0x8, addend: 0x0, symName: ___llvm_profile_disable_continuous_mode, symObjAddr: 0x30, symBinAddr: 0x1000159C0, symSize: 0x10 }
  - { offset: 0x31016, size: 0x8, addend: 0x0, symName: ___llvm_profile_set_page_size, symObjAddr: 0x40, symBinAddr: 0x1000159D0, symSize: 0x10 }
  - { offset: 0x31041, size: 0x8, addend: 0x0, symName: ___llvm_profile_get_size_for_buffer, symObjAddr: 0x50, symBinAddr: 0x1000159E0, symSize: 0xD0 }
  - { offset: 0x3148F, size: 0x8, addend: 0x0, symName: ___llvm_profile_get_size_for_buffer_internal, symObjAddr: 0x120, symBinAddr: 0x100015AB0, symSize: 0x210 }
  - { offset: 0x31833, size: 0x8, addend: 0x0, symName: ___llvm_profile_get_num_data, symObjAddr: 0x330, symBinAddr: 0x100015CC0, symSize: 0x10 }
  - { offset: 0x3186C, size: 0x8, addend: 0x0, symName: ___llvm_profile_get_data_size, symObjAddr: 0x340, symBinAddr: 0x100015CD0, symSize: 0x10 }
  - { offset: 0x31898, size: 0x8, addend: 0x0, symName: ___llvm_profile_get_data_size, symObjAddr: 0x340, symBinAddr: 0x100015CD0, symSize: 0x10 }
  - { offset: 0x318CE, size: 0x8, addend: 0x0, symName: ___llvm_profile_get_num_vtable, symObjAddr: 0x350, symBinAddr: 0x100015CE0, symSize: 0x20 }
  - { offset: 0x31924, size: 0x8, addend: 0x0, symName: ___llvm_profile_get_vtable_section_size, symObjAddr: 0x370, symBinAddr: 0x100015D00, symSize: 0x10 }
  - { offset: 0x3194B, size: 0x8, addend: 0x0, symName: ___llvm_profile_counter_entry_size, symObjAddr: 0x380, symBinAddr: 0x100015D10, symSize: 0x20 }
  - { offset: 0x31963, size: 0x8, addend: 0x0, symName: ___llvm_profile_get_num_counters, symObjAddr: 0x3A0, symBinAddr: 0x100015D30, symSize: 0x50 }
  - { offset: 0x319B8, size: 0x8, addend: 0x0, symName: ___llvm_profile_get_counters_size, symObjAddr: 0x3F0, symBinAddr: 0x100015D80, symSize: 0x60 }
  - { offset: 0x31A4C, size: 0x8, addend: 0x0, symName: ___llvm_profile_get_num_bitmap_bytes, symObjAddr: 0x450, symBinAddr: 0x100015DE0, symSize: 0x10 }
  - { offset: 0x31A73, size: 0x8, addend: 0x0, symName: ___llvm_profile_get_name_size, symObjAddr: 0x460, symBinAddr: 0x100015DF0, symSize: 0x10 }
  - { offset: 0x31A9A, size: 0x8, addend: 0x0, symName: ___llvm_profile_get_padding_sizes_for_counters, symObjAddr: 0x470, symBinAddr: 0x100015E00, symSize: 0x1B0 }
  - { offset: 0x31BB9, size: 0x8, addend: 0x0, symName: _initBufferWriter, symObjAddr: 0x620, symBinAddr: 0x100015FB0, symSize: 0x10 }
  - { offset: 0x31D23, size: 0x8, addend: 0x0, symName: _lprofCurFilename, symObjAddr: 0xA6F8, symBinAddr: 0x10006F898, symSize: 0x0 }
  - { offset: 0x31E4E, size: 0x8, addend: 0x0, symName: _ProfileFile, symObjAddr: 0xA7C8, symBinAddr: 0x10006F968, symSize: 0x0 }
  - { offset: 0x3207D, size: 0x8, addend: 0x0, symName: _ProfileMergeRequested, symObjAddr: 0xA7D0, symBinAddr: 0x10006F970, symSize: 0x0 }
  - { offset: 0x32223, size: 0x8, addend: 0x0, symName: _getCurFilenameLength, symObjAddr: 0x180, symBinAddr: 0x100015FC0, symSize: 0xE0 }
  - { offset: 0x322AE, size: 0x8, addend: 0x0, symName: _getCurFilename, symObjAddr: 0x260, symBinAddr: 0x1000160A0, symSize: 0x380 }
  - { offset: 0x3253E, size: 0x8, addend: 0x0, symName: _parseAndSetFilename, symObjAddr: 0x6B0, symBinAddr: 0x100016420, symSize: 0x590 }
  - { offset: 0x3275C, size: 0x8, addend: 0x0, symName: ___llvm_profile_initialize, symObjAddr: 0xC40, symBinAddr: 0x1000169B0, symSize: 0x90 }
  - { offset: 0x327D8, size: 0x8, addend: 0x0, symName: ___llvm_profile_write_file, symObjAddr: 0xD30, symBinAddr: 0x100016A40, symSize: 0x160 }
  - { offset: 0x329AB, size: 0x8, addend: 0x0, symName: _writeFile, symObjAddr: 0xE90, symBinAddr: 0x100016BA0, symSize: 0x2B0 }
  - { offset: 0x32B54, size: 0x8, addend: 0x0, symName: _writeFileWithoutReturn, symObjAddr: 0x1190, symBinAddr: 0x100016E50, symSize: 0x10 }
  - { offset: 0x32B8B, size: 0x8, addend: 0x0, symName: _getProfileFileSizeForMerging, symObjAddr: 0x13C0, symBinAddr: 0x100016E60, symSize: 0xC0 }
  - { offset: 0x32BD0, size: 0x8, addend: 0x0, symName: _mmapForContinuousMode, symObjAddr: 0x1480, symBinAddr: 0x100016F20, symSize: 0x2D0 }
  - { offset: 0x32D8F, size: 0x8, addend: 0x0, symName: _fileWriter, symObjAddr: 0x1750, symBinAddr: 0x1000171F0, symSize: 0x150 }
  - { offset: 0x32E5F, size: 0x8, addend: 0x0, symName: _binaryIdsStringWriter, symObjAddr: 0x18A0, symBinAddr: 0x100017340, symSize: 0xA0 }
  - { offset: 0x32F00, size: 0x8, addend: 0x0, symName: _truncateCurrentFile, symObjAddr: 0x1940, symBinAddr: 0x1000173E0, symSize: 0xB0 }
  - { offset: 0x32FA6, size: 0x8, addend: 0x0, symName: _initializeProfileForContinuousMode, symObjAddr: 0x19F0, symBinAddr: 0x100017490, symSize: 0x2C0 }
  - { offset: 0x33195, size: 0x8, addend: 0x0, symName: _createProfileDir, symObjAddr: 0x1CB0, symBinAddr: 0x100017750, symSize: 0x7F }
  - { offset: 0x33306, size: 0x8, addend: 0x0, symName: _lprofProfileDumped, symObjAddr: 0x0, symBinAddr: 0x1000177D0, symSize: 0x10 }
  - { offset: 0x33323, size: 0x8, addend: 0x0, symName: _ProfileDumped, symObjAddr: 0x4E0, symBinAddr: 0x10006F974, symSize: 0x0 }
  - { offset: 0x33333, size: 0x8, addend: 0x0, symName: _lprofProfileDumped, symObjAddr: 0x0, symBinAddr: 0x1000177D0, symSize: 0x10 }
  - { offset: 0x3337B, size: 0x8, addend: 0x0, symName: _lprofGetLoadModuleSignature, symObjAddr: 0x0, symBinAddr: 0x1000177E0, symSize: 0xE0 }
  - { offset: 0x333A8, size: 0x8, addend: 0x0, symName: _VPMergeHook, symObjAddr: 0x2AA0, symBinAddr: 0x100071B60, symSize: 0x0 }
  - { offset: 0x33610, size: 0x8, addend: 0x0, symName: _lprofGetLoadModuleSignature, symObjAddr: 0x0, symBinAddr: 0x1000177E0, symSize: 0xE0 }
  - { offset: 0x33684, size: 0x8, addend: 0x0, symName: ___llvm_profile_check_compatibility, symObjAddr: 0xE0, symBinAddr: 0x1000178C0, symSize: 0x190 }
  - { offset: 0x33764, size: 0x8, addend: 0x0, symName: ___llvm_profile_merge_from_buffer, symObjAddr: 0x270, symBinAddr: 0x100017A50, symSize: 0x4D8 }
  - { offset: 0x339C4, size: 0x8, addend: 0x0, symName: _lprofMergeValueProfData, symObjAddr: 0x0, symBinAddr: 0x100017F30, symSize: 0xF1 }
  - { offset: 0x339D5, size: 0x8, addend: 0x0, symName: _lprofMergeValueProfData, symObjAddr: 0x0, symBinAddr: 0x100017F30, symSize: 0xF1 }
  - { offset: 0x33CA0, size: 0x8, addend: 0x0, symName: ___llvm_profile_begin_data, symObjAddr: 0x0, symBinAddr: 0x100018030, symSize: 0x10 }
  - { offset: 0x33CBF, size: 0x8, addend: 0x0, symName: _CurrentVNode, symObjAddr: 0xE8, symBinAddr: 0x10006ED48, symSize: 0x0 }
  - { offset: 0x33D3B, size: 0x8, addend: 0x0, symName: _EndVNode, symObjAddr: 0xF0, symBinAddr: 0x10006ED50, symSize: 0x0 }
  - { offset: 0x33D44, size: 0x8, addend: 0x0, symName: ___llvm_profile_begin_data, symObjAddr: 0x0, symBinAddr: 0x100018030, symSize: 0x10 }
  - { offset: 0x33D65, size: 0x8, addend: 0x0, symName: ___llvm_profile_end_data, symObjAddr: 0x10, symBinAddr: 0x100018040, symSize: 0x10 }
  - { offset: 0x33D86, size: 0x8, addend: 0x0, symName: ___llvm_profile_begin_names, symObjAddr: 0x20, symBinAddr: 0x100018050, symSize: 0x10 }
  - { offset: 0x33DA7, size: 0x8, addend: 0x0, symName: ___llvm_profile_end_names, symObjAddr: 0x30, symBinAddr: 0x100018060, symSize: 0x10 }
  - { offset: 0x33DC8, size: 0x8, addend: 0x0, symName: ___llvm_profile_begin_counters, symObjAddr: 0x40, symBinAddr: 0x100018070, symSize: 0x10 }
  - { offset: 0x33DE9, size: 0x8, addend: 0x0, symName: ___llvm_profile_end_counters, symObjAddr: 0x50, symBinAddr: 0x100018080, symSize: 0x10 }
  - { offset: 0x33E0A, size: 0x8, addend: 0x0, symName: ___llvm_profile_begin_bitmap, symObjAddr: 0x60, symBinAddr: 0x100018090, symSize: 0x10 }
  - { offset: 0x33E2B, size: 0x8, addend: 0x0, symName: ___llvm_profile_end_bitmap, symObjAddr: 0x70, symBinAddr: 0x1000180A0, symSize: 0x10 }
  - { offset: 0x33E4C, size: 0x8, addend: 0x0, symName: ___llvm_profile_begin_vtables, symObjAddr: 0x80, symBinAddr: 0x1000180B0, symSize: 0x10 }
  - { offset: 0x33E6D, size: 0x8, addend: 0x0, symName: ___llvm_profile_end_vtables, symObjAddr: 0x90, symBinAddr: 0x1000180C0, symSize: 0x10 }
  - { offset: 0x33E8E, size: 0x8, addend: 0x0, symName: ___llvm_profile_begin_vtabnames, symObjAddr: 0xA0, symBinAddr: 0x1000180D0, symSize: 0x10 }
  - { offset: 0x33EAF, size: 0x8, addend: 0x0, symName: ___llvm_profile_end_vtabnames, symObjAddr: 0xB0, symBinAddr: 0x1000180E0, symSize: 0x10 }
  - { offset: 0x33ED0, size: 0x8, addend: 0x0, symName: ___llvm_profile_begin_vnodes, symObjAddr: 0xC0, symBinAddr: 0x1000180F0, symSize: 0x10 }
  - { offset: 0x33EF1, size: 0x8, addend: 0x0, symName: ___llvm_profile_end_vnodes, symObjAddr: 0xD0, symBinAddr: 0x100018100, symSize: 0x10 }
  - { offset: 0x33F12, size: 0x8, addend: 0x0, symName: ___llvm_write_binary_ids, symObjAddr: 0xE0, symBinAddr: 0x100018110, symSize: 0x3 }
  - { offset: 0x34196, size: 0x8, addend: 0x0, symName: __GLOBAL__sub_I_InstrProfilingRuntime.cpp, symObjAddr: 0x0, symBinAddr: 0x100018120, symSize: 0x12 }
  - { offset: 0x341B9, size: 0x8, addend: 0x0, symName: ___llvm_profile_runtime, symObjAddr: 0x580, symBinAddr: 0x100071B68, symSize: 0x0 }
  - { offset: 0x341EA, size: 0x8, addend: 0x0, symName: __GLOBAL__sub_I_InstrProfilingRuntime.cpp, symObjAddr: 0x0, symBinAddr: 0x100018120, symSize: 0x12 }
  - { offset: 0x34266, size: 0x8, addend: 0x0, symName: ___llvm_profile_recursive_mkdir, symObjAddr: 0x0, symBinAddr: 0x100018140, symSize: 0x40 }
  - { offset: 0x34285, size: 0x8, addend: 0x0, symName: _lprofDirMode, symObjAddr: 0x6F8, symBinAddr: 0x10006ED58, symSize: 0x0 }
  - { offset: 0x342F1, size: 0x8, addend: 0x0, symName: ___llvm_profile_recursive_mkdir, symObjAddr: 0x0, symBinAddr: 0x100018140, symSize: 0x40 }
  - { offset: 0x34370, size: 0x8, addend: 0x0, symName: _lprofGetHostName, symObjAddr: 0x60, symBinAddr: 0x100018180, symSize: 0x70 }
  - { offset: 0x344A5, size: 0x8, addend: 0x0, symName: _lprofLockFileHandle, symObjAddr: 0x1B0, symBinAddr: 0x1000181F0, symSize: 0x70 }
  - { offset: 0x34533, size: 0x8, addend: 0x0, symName: _lprofUnlockFileHandle, symObjAddr: 0x220, symBinAddr: 0x100018260, symSize: 0x70 }
  - { offset: 0x3459B, size: 0x8, addend: 0x0, symName: _lprofOpenFileEx, symObjAddr: 0x290, symBinAddr: 0x1000182D0, symSize: 0xB0 }
  - { offset: 0x3462D, size: 0x8, addend: 0x0, symName: _lprofGetFileContentBuffer, symObjAddr: 0x340, symBinAddr: 0x100018380, symSize: 0x1B0 }
  - { offset: 0x346BC, size: 0x8, addend: 0x0, symName: _lprofReleaseBuffer, symObjAddr: 0x4F0, symBinAddr: 0x100018530, symSize: 0x70 }
  - { offset: 0x346FE, size: 0x8, addend: 0x0, symName: _lprofFindFirstDirSeparator, symObjAddr: 0x660, symBinAddr: 0x1000185A0, symSize: 0x10 }
  - { offset: 0x3473E, size: 0x8, addend: 0x0, symName: _lprofSuspendSigKill, symObjAddr: 0x680, symBinAddr: 0x1000185B0, symSize: 0x10 }
  - { offset: 0x34761, size: 0x8, addend: 0x0, symName: _lprofRestoreSigKill, symObjAddr: 0x690, symBinAddr: 0x1000185C0, symSize: 0x10 }
  - { offset: 0x34780, size: 0x8, addend: 0x0, symName: _lprofAtExit, symObjAddr: 0x6F0, symBinAddr: 0x1000185D0, symSize: 0x5 }
  - { offset: 0x34A92, size: 0x8, addend: 0x0, symName: _getValueProfRecordHeaderSize, symObjAddr: 0x0, symBinAddr: 0x1000185E0, symSize: 0x10 }
  - { offset: 0x34AB1, size: 0x8, addend: 0x0, symName: _VPMaxNumValsPerSite, symObjAddr: 0x1468, symBinAddr: 0x10006ED60, symSize: 0x0 }
  - { offset: 0x34B46, size: 0x8, addend: 0x0, symName: _hasNonDefaultValsPerSite, symObjAddr: 0xEE78, symBinAddr: 0x10006F978, symSize: 0x0 }
  - { offset: 0x34B6D, size: 0x8, addend: 0x0, symName: _OutOfNodesWarnings, symObjAddr: 0xEE80, symBinAddr: 0x10006F980, symSize: 0x0 }
  - { offset: 0x34B82, size: 0x8, addend: 0x0, symName: _hasStaticCounters, symObjAddr: 0xEE7C, symBinAddr: 0x10006F97C, symSize: 0x0 }
  - { offset: 0x34BA0, size: 0x8, addend: 0x0, symName: _TheVPDataReader, symObjAddr: 0x1470, symBinAddr: 0x10006ED68, symSize: 0x0 }
  - { offset: 0x34E41, size: 0x8, addend: 0x0, symName: _RTRecord, symObjAddr: 0xEE88, symBinAddr: 0x10006F988, symSize: 0x0 }
  - { offset: 0x35035, size: 0x8, addend: 0x0, symName: _getValueProfRecordHeaderSize, symObjAddr: 0x0, symBinAddr: 0x1000185E0, symSize: 0x10 }
  - { offset: 0x35089, size: 0x8, addend: 0x0, symName: _getValueProfRecordValueData, symObjAddr: 0x20, symBinAddr: 0x1000185F0, symSize: 0x10 }
  - { offset: 0x35135, size: 0x8, addend: 0x0, symName: _getValueProfRecordNext, symObjAddr: 0x130, symBinAddr: 0x100018600, symSize: 0x100 }
  - { offset: 0x3513D, size: 0x8, addend: 0x0, symName: _getFirstValueProfRecord, symObjAddr: 0x230, symBinAddr: 0x100018700, symSize: 0x10 }
  - { offset: 0x351C3, size: 0x8, addend: 0x0, symName: _getFirstValueProfRecord, symObjAddr: 0x230, symBinAddr: 0x100018700, symSize: 0x10 }
  - { offset: 0x352A3, size: 0x8, addend: 0x0, symName: _lprofSetupValueProfiler, symObjAddr: 0x8C0, symBinAddr: 0x100018710, symSize: 0x50 }
  - { offset: 0x353B5, size: 0x8, addend: 0x0, symName: ___llvm_profile_instrument_target_value, symObjAddr: 0xB90, symBinAddr: 0x100018760, symSize: 0x240 }
  - { offset: 0x354D0, size: 0x8, addend: 0x0, symName: _lprofGetVPDataReader, symObjAddr: 0xE20, symBinAddr: 0x1000189A0, symSize: 0x10 }
  - { offset: 0x354F3, size: 0x8, addend: 0x0, symName: _initializeValueProfRuntimeRecord, symObjAddr: 0xE30, symBinAddr: 0x1000189B0, symSize: 0x390 }
  - { offset: 0x35618, size: 0x8, addend: 0x0, symName: _getNumValueDataForSiteWrapper, symObjAddr: 0x11C0, symBinAddr: 0x100018D40, symSize: 0x20 }
  - { offset: 0x3565C, size: 0x8, addend: 0x0, symName: _getNumValueDataForSiteWrapper, symObjAddr: 0x11C0, symBinAddr: 0x100018D40, symSize: 0x20 }
  - { offset: 0x35682, size: 0x8, addend: 0x0, symName: _getValueProfDataSizeWrapper, symObjAddr: 0x11E0, symBinAddr: 0x100018D60, symSize: 0xB0 }
  - { offset: 0x356A8, size: 0x8, addend: 0x0, symName: _getValueProfDataSizeWrapper, symObjAddr: 0x11E0, symBinAddr: 0x100018D60, symSize: 0xB0 }
  - { offset: 0x356D9, size: 0x8, addend: 0x0, symName: _getValueProfDataSizeWrapper, symObjAddr: 0x11E0, symBinAddr: 0x100018D60, symSize: 0xB0 }
  - { offset: 0x35736, size: 0x8, addend: 0x0, symName: _getNextNValueData, symObjAddr: 0x1290, symBinAddr: 0x100018E10, symSize: 0xC0 }
  - { offset: 0x357D0, size: 0x8, addend: 0x0, symName: _getNumValueSitesRT, symObjAddr: 0x1350, symBinAddr: 0x100018ED0, symSize: 0x10 }
  - { offset: 0x35811, size: 0x8, addend: 0x0, symName: _getNumValueDataRT, symObjAddr: 0x1360, symBinAddr: 0x100018EE0, symSize: 0x101 }
  - { offset: 0x358C9, size: 0x8, addend: 0x0, symName: ___llvm_profile_raw_version, symObjAddr: 0x0, symBinAddr: 0x10006ED98, symSize: 0x0 }
  - { offset: 0x3590B, size: 0x8, addend: 0x0, symName: _lprofBufferWriter, symObjAddr: 0x0, symBinAddr: 0x100018FF0, symSize: 0x60 }
  - { offset: 0x3592A, size: 0x8, addend: 0x0, symName: _FreeHook, symObjAddr: 0x55B0, symBinAddr: 0x100071B70, symSize: 0x0 }
  - { offset: 0x35950, size: 0x8, addend: 0x0, symName: _DynamicBufferIOBuffer, symObjAddr: 0x55B8, symBinAddr: 0x100071B78, symSize: 0x0 }
  - { offset: 0x3597E, size: 0x8, addend: 0x0, symName: _VPBufferSize, symObjAddr: 0x55C0, symBinAddr: 0x100071B80, symSize: 0x0 }
  - { offset: 0x359A5, size: 0x8, addend: 0x0, symName: _TheBufferIO, symObjAddr: 0x75D0, symBinAddr: 0x1000719B0, symSize: 0x0 }
  - { offset: 0x35AEF, size: 0x8, addend: 0x0, symName: _BufferIOBuffer, symObjAddr: 0x55D0, symBinAddr: 0x10006F9B0, symSize: 0x0 }
  - { offset: 0x35B19, size: 0x8, addend: 0x0, symName: _VPDataArray, symObjAddr: 0x75F0, symBinAddr: 0x1000719D0, symSize: 0x0 }
  - { offset: 0x35B93, size: 0x8, addend: 0x0, symName: _lprofBufferWriter, symObjAddr: 0x0, symBinAddr: 0x100018FF0, symSize: 0x60 }
  - { offset: 0x35CAC, size: 0x8, addend: 0x0, symName: _lprofBufferIOWrite, symObjAddr: 0x100, symBinAddr: 0x100019050, symSize: 0x110 }
  - { offset: 0x35DC5, size: 0x8, addend: 0x0, symName: _lprofWriteData, symObjAddr: 0x2A0, symBinAddr: 0x100019160, symSize: 0x120 }
  - { offset: 0x36204, size: 0x8, addend: 0x0, symName: _lprofWriteDataImpl, symObjAddr: 0x3C0, symBinAddr: 0x100019280, symSize: 0x6E0 }
  - { offset: 0x3655F, size: 0x8, addend: 0x0, symName: _writeOneValueProfData, symObjAddr: 0xB40, symBinAddr: 0x100019960, symSize: 0x438 }
  - { offset: 0x3681B, size: 0x8, addend: 0x0, symName: __RNvCskdKJRKLKjqM_7___rustc10rust_panic, symObjAddr: 0x0, symBinAddr: 0x100056B90, symSize: 0x70 }
  - { offset: 0x36B63, size: 0x8, addend: 0x0, symName: '__ZN42_$LT$$RF$T$u20$as$u20$core..fmt..Debug$GT$3fmt17h611062ea6589b381E', symObjAddr: 0x27920, symBinAddr: 0x100029DB0, symSize: 0x30 }
  - { offset: 0x36BA9, size: 0x8, addend: 0x0, symName: '__ZN42_$LT$$RF$T$u20$as$u20$core..fmt..Debug$GT$3fmt17h67462dcd352e9f70E', symObjAddr: 0x27A20, symBinAddr: 0x100029DE0, symSize: 0x30 }
  - { offset: 0x36BEF, size: 0x8, addend: 0x0, symName: '__ZN42_$LT$$RF$T$u20$as$u20$core..fmt..Debug$GT$3fmt17ha3f9e4fd80ade547E', symObjAddr: 0x27D30, symBinAddr: 0x100029E10, symSize: 0x20 }
  - { offset: 0x36C03, size: 0x8, addend: 0x0, symName: '__ZN42_$LT$$RF$T$u20$as$u20$core..fmt..Debug$GT$3fmt17hd6b383e11abcf534E', symObjAddr: 0x27FB0, symBinAddr: 0x100029E30, symSize: 0x20 }
  - { offset: 0x36C34, size: 0x8, addend: 0x0, symName: '__ZN42_$LT$$RF$T$u20$as$u20$core..fmt..Debug$GT$3fmt17hedcae28885211270E', symObjAddr: 0x28060, symBinAddr: 0x100029E50, symSize: 0x80 }
  - { offset: 0x36D58, size: 0x8, addend: 0x0, symName: '__ZN44_$LT$$RF$T$u20$as$u20$core..fmt..Display$GT$3fmt17h2befab159451fc05E', symObjAddr: 0x28130, symBinAddr: 0x100029ED0, symSize: 0x20 }
  - { offset: 0x36D73, size: 0x8, addend: 0x0, symName: '__ZN44_$LT$$RF$T$u20$as$u20$core..fmt..Display$GT$3fmt17had011a6e3beb8b51E', symObjAddr: 0x28150, symBinAddr: 0x100029EF0, symSize: 0x90 }
  - { offset: 0x36E1D, size: 0x8, addend: 0x0, symName: '__ZN4core3fmt3num50_$LT$impl$u20$core..fmt..Debug$u20$for$u20$i32$GT$3fmt17h0317b62489790191E', symObjAddr: 0x284D0, symBinAddr: 0x10002A040, symSize: 0x30 }
  - { offset: 0x36E4C, size: 0x8, addend: 0x0, symName: '__ZN4core3fmt3num52_$LT$impl$u20$core..fmt..Debug$u20$for$u20$usize$GT$3fmt17h4806199c82f902ceE', symObjAddr: 0x28590, symBinAddr: 0x10002A070, symSize: 0x30 }
  - { offset: 0x36E9D, size: 0x8, addend: 0x0, symName: __ZN4core3fmt5Write10write_char17h2203fddc9d642afeE, symObjAddr: 0x285C0, symBinAddr: 0x10002A0A0, symSize: 0xF0 }
  - { offset: 0x36FE4, size: 0x8, addend: 0x0, symName: __ZN4core3fmt5Write10write_char17h80d2a9496aca00b0E, symObjAddr: 0x28810, symBinAddr: 0x10002A190, symSize: 0xE0 }
  - { offset: 0x37068, size: 0x8, addend: 0x0, symName: __ZN4core3fmt5Write10write_char17hc46b6f7c3c3194cbE, symObjAddr: 0x288F0, symBinAddr: 0x10002A270, symSize: 0x130 }
  - { offset: 0x3720A, size: 0x8, addend: 0x0, symName: __ZN4core3fmt5Write10write_char17hdac7d1ed87bd809bE, symObjAddr: 0x28B00, symBinAddr: 0x10002A3A0, symSize: 0x160 }
  - { offset: 0x373BD, size: 0x8, addend: 0x0, symName: __ZN4core3fmt5Write9write_fmt17hd3928726ab1abb27E, symObjAddr: 0x28D00, symBinAddr: 0x10002A500, symSize: 0x50 }
  - { offset: 0x373EC, size: 0x8, addend: 0x0, symName: __ZN4core3fmt5Write9write_fmt17he343009274951ef4E, symObjAddr: 0x28D50, symBinAddr: 0x10002A550, symSize: 0x50 }
  - { offset: 0x3741B, size: 0x8, addend: 0x0, symName: __ZN4core3fmt5Write9write_fmt17he408d8c37cd4c2c5E, symObjAddr: 0x28DA0, symBinAddr: 0x10002A5A0, symSize: 0x50 }
  - { offset: 0x3744A, size: 0x8, addend: 0x0, symName: __ZN4core3fmt5Write9write_fmt17hec70cb0fc9ef19e4E, symObjAddr: 0x28DF0, symBinAddr: 0x10002A5F0, symSize: 0x50 }
  - { offset: 0x37479, size: 0x8, addend: 0x0, symName: __ZN4core3fmt5Write9write_fmt17hfbfca6c33e82dca5E, symObjAddr: 0x28E40, symBinAddr: 0x10002A640, symSize: 0x50 }
  - { offset: 0x374D6, size: 0x8, addend: 0x0, symName: '__ZN50_$LT$$BP$mut$u20$T$u20$as$u20$core..fmt..Debug$GT$3fmt17h461ef72b23c2334dE', symObjAddr: 0x3AB30, symBinAddr: 0x100036EA0, symSize: 0x10 }
  - { offset: 0x37523, size: 0x8, addend: 0x0, symName: '__ZN52_$LT$$RF$mut$u20$T$u20$as$u20$core..fmt..Display$GT$3fmt17he99623082ea1fa3dE', symObjAddr: 0x3B1B0, symBinAddr: 0x100036EB0, symSize: 0x20 }
  - { offset: 0x39817, size: 0x8, addend: 0x0, symName: '__ZN4core3ptr107drop_in_place$LT$core..pin..Pin$LT$alloc..boxed..Box$LT$std..sys..pal..unix..sync..mutex..Mutex$GT$$GT$$GT$17he4bee0bcfb03f75fE', symObjAddr: 0x294F0, symBinAddr: 0x10002A970, symSize: 0x30 }
  - { offset: 0x398AE, size: 0x8, addend: 0x0, symName: '__ZN4core3ptr109drop_in_place$LT$alloc..sync..Arc$LT$std..sync..poison..mutex..Mutex$LT$alloc..vec..Vec$LT$u8$GT$$GT$$GT$$GT$17he5b3c9d5553080edE', symObjAddr: 0x29520, symBinAddr: 0x10002A9A0, symSize: 0x20 }
  - { offset: 0x3992F, size: 0x8, addend: 0x0, symName: '__ZN4core3ptr119drop_in_place$LT$std..io..default_write_fmt..Adapter$LT$std..io..cursor..Cursor$LT$$RF$mut$u20$$u5b$u8$u5d$$GT$$GT$$GT$17h8ef58680b6ede286E', symObjAddr: 0x295C0, symBinAddr: 0x10002A9C0, symSize: 0x20 }
  - { offset: 0x39952, size: 0x8, addend: 0x0, symName: '__ZN4core3ptr123drop_in_place$LT$addr2line..Context$LT$gimli..read..endian_slice..EndianSlice$LT$gimli..endianity..LittleEndian$GT$$GT$$GT$17h4096ebf47a84add1E', symObjAddr: 0x295E0, symBinAddr: 0x10002A9E0, symSize: 0x60 }
  - { offset: 0x399F7, size: 0x8, addend: 0x0, symName: '__ZN4core3ptr128drop_in_place$LT$core..result..Result$LT$$RF$std..thread..Thread$C$$LP$$RF$std..thread..Thread$C$std..thread..Thread$RP$$GT$$GT$17h5b35dce14f68d27eE', symObjAddr: 0x29640, symBinAddr: 0x10002AA40, symSize: 0x20 }
  - { offset: 0x39B19, size: 0x8, addend: 0x0, symName: '__ZN4core3ptr129drop_in_place$LT$addr2line..unit..ResUnit$LT$gimli..read..endian_slice..EndianSlice$LT$gimli..endianity..LittleEndian$GT$$GT$$GT$17h5b41b59ec8c6acd1E', symObjAddr: 0x29660, symBinAddr: 0x10002AA60, symSize: 0x100 }
  - { offset: 0x39D27, size: 0x8, addend: 0x0, symName: '__ZN4core3ptr129drop_in_place$LT$addr2line..unit..SupUnit$LT$gimli..read..endian_slice..EndianSlice$LT$gimli..endianity..LittleEndian$GT$$GT$$GT$17h7745e598093ea497E', symObjAddr: 0x29760, symBinAddr: 0x10002AB60, symSize: 0x50 }
  - { offset: 0x39DD2, size: 0x8, addend: 0x0, symName: '__ZN4core3ptr130drop_in_place$LT$addr2line..unit..ResUnits$LT$gimli..read..endian_slice..EndianSlice$LT$gimli..endianity..LittleEndian$GT$$GT$$GT$17h8ac001c378159224E', symObjAddr: 0x297B0, symBinAddr: 0x10002ABB0, symSize: 0xE0 }
  - { offset: 0x39F7B, size: 0x8, addend: 0x0, symName: '__ZN4core3ptr130drop_in_place$LT$addr2line..unit..SupUnits$LT$gimli..read..endian_slice..EndianSlice$LT$gimli..endianity..LittleEndian$GT$$GT$$GT$17hf4d4e85b8cf1677eE', symObjAddr: 0x29890, symBinAddr: 0x10002AC90, symSize: 0xE0 }
  - { offset: 0x3A117, size: 0x8, addend: 0x0, symName: '__ZN4core3ptr130drop_in_place$LT$gimli..read..dwarf..Dwarf$LT$gimli..read..endian_slice..EndianSlice$LT$gimli..endianity..LittleEndian$GT$$GT$$GT$17h00351692336cc8a5E', symObjAddr: 0x29970, symBinAddr: 0x10002AD70, symSize: 0x60 }
  - { offset: 0x3A181, size: 0x8, addend: 0x0, symName: '__ZN4core3ptr131drop_in_place$LT$$u5b$core..option..Option$LT$core..option..Option$LT$std..backtrace_rs..symbolize..gimli..Mapping$GT$$GT$$u5d$$GT$17h5e49fcba991e0fefE', symObjAddr: 0x299D0, symBinAddr: 0x10002ADD0, symSize: 0xE0 }
  - { offset: 0x3A22B, size: 0x8, addend: 0x0, symName: '__ZN4core3ptr131drop_in_place$LT$alloc..boxed..Box$LT$dyn$u20$core..ops..function..FnOnce$LT$$LP$$RP$$GT$$u2b$Output$u20$$u3d$$u20$$LP$$RP$$GT$$GT$17h34dfa6de81a90f60E', symObjAddr: 0x29AB0, symBinAddr: 0x10002AEB0, symSize: 0x70 }
  - { offset: 0x3A316, size: 0x8, addend: 0x0, symName: '__ZN4core3ptr137drop_in_place$LT$gimli..read..dwarf..Unit$LT$gimli..read..endian_slice..EndianSlice$LT$gimli..endianity..LittleEndian$GT$$C$usize$GT$$GT$17h8a3dedf63945c7ffE', symObjAddr: 0x29B20, symBinAddr: 0x10002AF20, symSize: 0x50 }
  - { offset: 0x3A3FF, size: 0x8, addend: 0x0, symName: '__ZN4core3ptr138drop_in_place$LT$addr2line..function..LazyFunction$LT$gimli..read..endian_slice..EndianSlice$LT$gimli..endianity..LittleEndian$GT$$GT$$GT$17h0f8e66548b648d63E', symObjAddr: 0x29B70, symBinAddr: 0x10002AF70, symSize: 0x60 }
  - { offset: 0x3A416, size: 0x8, addend: 0x0, symName: '__ZN4core3ptr138drop_in_place$LT$addr2line..function..LazyFunction$LT$gimli..read..endian_slice..EndianSlice$LT$gimli..endianity..LittleEndian$GT$$GT$$GT$17h0f8e66548b648d63E', symObjAddr: 0x29B70, symBinAddr: 0x10002AF70, symSize: 0x60 }
  - { offset: 0x3A42B, size: 0x8, addend: 0x0, symName: '__ZN4core3ptr138drop_in_place$LT$addr2line..function..LazyFunction$LT$gimli..read..endian_slice..EndianSlice$LT$gimli..endianity..LittleEndian$GT$$GT$$GT$17h0f8e66548b648d63E', symObjAddr: 0x29B70, symBinAddr: 0x10002AF70, symSize: 0x60 }
  - { offset: 0x3A440, size: 0x8, addend: 0x0, symName: '__ZN4core3ptr138drop_in_place$LT$addr2line..function..LazyFunction$LT$gimli..read..endian_slice..EndianSlice$LT$gimli..endianity..LittleEndian$GT$$GT$$GT$17h0f8e66548b648d63E', symObjAddr: 0x29B70, symBinAddr: 0x10002AF70, symSize: 0x60 }
  - { offset: 0x3A574, size: 0x8, addend: 0x0, symName: '__ZN4core3ptr144drop_in_place$LT$alloc..vec..Vec$LT$core..option..Option$LT$core..option..Option$LT$std..backtrace_rs..symbolize..gimli..Mapping$GT$$GT$$GT$$GT$17hd133ee3f082661a3E', symObjAddr: 0x29BD0, symBinAddr: 0x10002AFD0, symSize: 0x80 }
  - { offset: 0x3A6CE, size: 0x8, addend: 0x0, symName: '__ZN4core3ptr152drop_in_place$LT$alloc..vec..Vec$LT$addr2line..unit..ResUnit$LT$gimli..read..endian_slice..EndianSlice$LT$gimli..endianity..LittleEndian$GT$$GT$$GT$$GT$17h687eea1ef8e4dccbE', symObjAddr: 0x29D40, symBinAddr: 0x10002B050, symSize: 0xD0 }
  - { offset: 0x3A83D, size: 0x8, addend: 0x0, symName: '__ZN4core3ptr152drop_in_place$LT$alloc..vec..Vec$LT$addr2line..unit..SupUnit$LT$gimli..read..endian_slice..EndianSlice$LT$gimli..endianity..LittleEndian$GT$$GT$$GT$$GT$17h43b55f1c1ec40770E', symObjAddr: 0x29E10, symBinAddr: 0x10002B120, symSize: 0x100 }
  - { offset: 0x3AA41, size: 0x8, addend: 0x0, symName: '__ZN4core3ptr156drop_in_place$LT$alloc..boxed..Box$LT$$u5b$core..option..Option$LT$core..option..Option$LT$std..backtrace_rs..symbolize..gimli..Mapping$GT$$GT$$u5d$$GT$$GT$17h64285ccbe01a68bbE', symObjAddr: 0x29F10, symBinAddr: 0x10002B220, symSize: 0xF0 }
  - { offset: 0x3AB6B, size: 0x8, addend: 0x0, symName: '__ZN4core3ptr159drop_in_place$LT$alloc..sync..ArcInner$LT$gimli..read..dwarf..Dwarf$LT$gimli..read..endian_slice..EndianSlice$LT$gimli..endianity..LittleEndian$GT$$GT$$GT$$GT$17ha7d070261ff0f422E', symObjAddr: 0x2A0A0, symBinAddr: 0x10002B310, symSize: 0x60 }
  - { offset: 0x3AC1C, size: 0x8, addend: 0x0, symName: '__ZN4core3ptr161drop_in_place$LT$alloc..vec..Vec$LT$addr2line..function..LazyFunction$LT$gimli..read..endian_slice..EndianSlice$LT$gimli..endianity..LittleEndian$GT$$GT$$GT$$GT$17h224d020c77f1c5c5E', symObjAddr: 0x2A100, symBinAddr: 0x10002B370, symSize: 0xC0 }
  - { offset: 0x3AE59, size: 0x8, addend: 0x0, symName: '__ZN4core3ptr172drop_in_place$LT$core..result..Result$LT$addr2line..Context$LT$gimli..read..endian_slice..EndianSlice$LT$gimli..endianity..LittleEndian$GT$$GT$$C$gimli..read..Error$GT$$GT$17h9689e9d3357a2b29E', symObjAddr: 0x2A270, symBinAddr: 0x10002B430, symSize: 0x70 }
  - { offset: 0x3AEDA, size: 0x8, addend: 0x0, symName: '__ZN4core3ptr173drop_in_place$LT$alloc..boxed..Box$LT$$u5b$addr2line..function..LazyFunction$LT$gimli..read..endian_slice..EndianSlice$LT$gimli..endianity..LittleEndian$GT$$GT$$u5d$$GT$$GT$17h854691247aa87af0E', symObjAddr: 0x2A2E0, symBinAddr: 0x10002B4A0, symSize: 0xA0 }
  - { offset: 0x3AEF1, size: 0x8, addend: 0x0, symName: '__ZN4core3ptr173drop_in_place$LT$alloc..boxed..Box$LT$$u5b$addr2line..function..LazyFunction$LT$gimli..read..endian_slice..EndianSlice$LT$gimli..endianity..LittleEndian$GT$$GT$$u5d$$GT$$GT$17h854691247aa87af0E', symObjAddr: 0x2A2E0, symBinAddr: 0x10002B4A0, symSize: 0xA0 }
  - { offset: 0x3B0C6, size: 0x8, addend: 0x0, symName: '__ZN4core3ptr181drop_in_place$LT$core..option..Option$LT$gimli..read..line..IncompleteLineProgram$LT$gimli..read..endian_slice..EndianSlice$LT$gimli..endianity..LittleEndian$GT$$C$usize$GT$$GT$$GT$17ha2da1af52ac50966E', symObjAddr: 0x2A3F0, symBinAddr: 0x10002B540, symSize: 0xA0 }
  - { offset: 0x3B31F, size: 0x8, addend: 0x0, symName: '__ZN4core3ptr181drop_in_place$LT$core..result..Result$LT$addr2line..frame..FrameIter$LT$gimli..read..endian_slice..EndianSlice$LT$gimli..endianity..LittleEndian$GT$$GT$$C$gimli..read..Error$GT$$GT$17hb41a886cf8fb4359E', symObjAddr: 0x2A490, symBinAddr: 0x10002B5E0, symSize: 0x40 }
  - { offset: 0x3B45D, size: 0x8, addend: 0x0, symName: '__ZN4core3ptr184drop_in_place$LT$core..result..Result$LT$addr2line..function..Functions$LT$gimli..read..endian_slice..EndianSlice$LT$gimli..endianity..LittleEndian$GT$$GT$$C$gimli..read..Error$GT$$GT$17h16817f6f8b785913E', symObjAddr: 0x2A4D0, symBinAddr: 0x10002B620, symSize: 0xE0 }
  - { offset: 0x3B6ED, size: 0x8, addend: 0x0, symName: '__ZN4core3ptr194drop_in_place$LT$core..result..Result$LT$std..sync..poison..mutex..MutexGuard$LT$$LP$$RP$$GT$$C$std..sync..poison..PoisonError$LT$std..sync..poison..mutex..MutexGuard$LT$$LP$$RP$$GT$$GT$$GT$$GT$17h05108be9b923664fE', symObjAddr: 0x2A620, symBinAddr: 0x10002B700, symSize: 0x50 }
  - { offset: 0x3B72B, size: 0x8, addend: 0x0, symName: '__ZN4core3ptr231drop_in_place$LT$core..result..Result$LT$core..option..Option$LT$alloc..boxed..Box$LT$addr2line..unit..DwoUnit$LT$gimli..read..endian_slice..EndianSlice$LT$gimli..endianity..LittleEndian$GT$$GT$$GT$$GT$$C$gimli..read..Error$GT$$GT$17h77faee68108766d7E', symObjAddr: 0x2A670, symBinAddr: 0x10002B750, symSize: 0xB0 }
  - { offset: 0x3B8F5, size: 0x8, addend: 0x0, symName: '__ZN4core3ptr238drop_in_place$LT$alloc..boxed..convert..$LT$impl$u20$core..convert..From$LT$alloc..string..String$GT$$u20$for$u20$alloc..boxed..Box$LT$dyn$u20$core..error..Error$u2b$core..marker..Sync$u2b$core..marker..Send$GT$$GT$..from..StringError$GT$17h77c71369405e109cE', symObjAddr: 0x2A720, symBinAddr: 0x10002B800, symSize: 0x20 }
  - { offset: 0x3B9A0, size: 0x8, addend: 0x0, symName: '__ZN4core3ptr275drop_in_place$LT$gimli..read..line..LineRows$LT$gimli..read..endian_slice..EndianSlice$LT$gimli..endianity..LittleEndian$GT$$C$gimli..read..line..IncompleteLineProgram$LT$gimli..read..endian_slice..EndianSlice$LT$gimli..endianity..LittleEndian$GT$$C$usize$GT$$C$usize$GT$$GT$17hadd9cd2441f7544fE', symObjAddr: 0x2A740, symBinAddr: 0x10002B820, symSize: 0xA0 }
  - { offset: 0x3BC15, size: 0x8, addend: 0x0, symName: '__ZN4core3ptr280drop_in_place$LT$$LT$alloc..collections..btree..map..IntoIter$LT$K$C$V$C$A$GT$$u20$as$u20$core..ops..drop..Drop$GT$..drop..DropGuard$LT$u64$C$core..result..Result$LT$alloc..sync..Arc$LT$gimli..read..abbrev..Abbreviations$GT$$C$gimli..read..Error$GT$$C$alloc..alloc..Global$GT$$GT$17h12b50f4912f8d053E', symObjAddr: 0x2A7E0, symBinAddr: 0x10002B8C0, symSize: 0x80 }
  - { offset: 0x3BD41, size: 0x8, addend: 0x0, symName: '__ZN4core3ptr284drop_in_place$LT$core..result..Result$LT$$RF$core..result..Result$LT$addr2line..line..Lines$C$gimli..read..Error$GT$$C$$LP$$RF$core..result..Result$LT$addr2line..line..Lines$C$gimli..read..Error$GT$$C$core..result..Result$LT$addr2line..line..Lines$C$gimli..read..Error$GT$$RP$$GT$$GT$17h10f406cda706aac9E', symObjAddr: 0x2A860, symBinAddr: 0x10002B940, symSize: 0x20 }
  - { offset: 0x3BD72, size: 0x8, addend: 0x0, symName: '__ZN4core3ptr42drop_in_place$LT$alloc..string..String$GT$17h13a2c872d6de9b78E', symObjAddr: 0x2AA20, symBinAddr: 0x10002B960, symSize: 0x20 }
  - { offset: 0x3BE07, size: 0x8, addend: 0x0, symName: '__ZN4core3ptr42drop_in_place$LT$std..io..error..Error$GT$17hf3cc5d9531ccf1c0E', symObjAddr: 0x2AA40, symBinAddr: 0x10002B980, symSize: 0xA0 }
  - { offset: 0x3C025, size: 0x8, addend: 0x0, symName: '__ZN4core3ptr44drop_in_place$LT$object..read..ObjectMap$GT$17h9dfc9bd6f6ee5a53E', symObjAddr: 0x2AAE0, symBinAddr: 0x10002BA20, symSize: 0x50 }
  - { offset: 0x3C154, size: 0x8, addend: 0x0, symName: '__ZN4core3ptr46drop_in_place$LT$alloc..vec..Vec$LT$u8$GT$$GT$17h50cadf63df0efd66E', symObjAddr: 0x2AB90, symBinAddr: 0x10002BA70, symSize: 0x20 }
  - { offset: 0x3C1D3, size: 0x8, addend: 0x0, symName: '__ZN4core3ptr46drop_in_place$LT$std..io..stdio..StdinLock$GT$17h859807256c432efeE', symObjAddr: 0x2ABB0, symBinAddr: 0x10002BA90, symSize: 0x50 }
  - { offset: 0x3C1EA, size: 0x8, addend: 0x0, symName: '__ZN4core3ptr46drop_in_place$LT$std..io..stdio..StdinLock$GT$17h859807256c432efeE', symObjAddr: 0x2ABB0, symBinAddr: 0x10002BA90, symSize: 0x50 }
  - { offset: 0x3C1FF, size: 0x8, addend: 0x0, symName: '__ZN4core3ptr46drop_in_place$LT$std..io..stdio..StdinLock$GT$17h859807256c432efeE', symObjAddr: 0x2ABB0, symBinAddr: 0x10002BA90, symSize: 0x50 }
  - { offset: 0x3C2E3, size: 0x8, addend: 0x0, symName: '__ZN4core3ptr48drop_in_place$LT$alloc..ffi..c_str..NulError$GT$17h05fdddfd5dec9957E', symObjAddr: 0x2AD00, symBinAddr: 0x10002BAE0, symSize: 0x20 }
  - { offset: 0x3C386, size: 0x8, addend: 0x0, symName: '__ZN4core3ptr557drop_in_place$LT$core..result..Result$LT$$RF$core..result..Result$LT$addr2line..function..Function$LT$gimli..read..endian_slice..EndianSlice$LT$gimli..endianity..LittleEndian$GT$$GT$$C$gimli..read..Error$GT$$C$$LP$$RF$core..result..Result$LT$addr2line..function..Function$LT$gimli..read..endian_slice..EndianSlice$LT$gimli..endianity..LittleEndian$GT$$GT$$C$gimli..read..Error$GT$$C$core..result..Result$LT$addr2line..function..Function$LT$gimli..read..endian_slice..EndianSlice$LT$gimli..endianity..LittleEndian$GT$$GT$$C$gimli..read..Error$GT$$RP$$GT$$GT$17hc44de9d152e84349E', symObjAddr: 0x2AFE0, symBinAddr: 0x10002BB00, symSize: 0x60 }
  - { offset: 0x3C570, size: 0x8, addend: 0x0, symName: '__ZN4core3ptr55drop_in_place$LT$gimli..read..abbrev..Abbreviations$GT$17h650fa2a70ecf9e05E', symObjAddr: 0x2B040, symBinAddr: 0x10002BB60, symSize: 0x130 }
  - { offset: 0x3C8B9, size: 0x8, addend: 0x0, symName: '__ZN4core3ptr560drop_in_place$LT$core..result..Result$LT$$RF$core..result..Result$LT$addr2line..function..Functions$LT$gimli..read..endian_slice..EndianSlice$LT$gimli..endianity..LittleEndian$GT$$GT$$C$gimli..read..Error$GT$$C$$LP$$RF$core..result..Result$LT$addr2line..function..Functions$LT$gimli..read..endian_slice..EndianSlice$LT$gimli..endianity..LittleEndian$GT$$GT$$C$gimli..read..Error$GT$$C$core..result..Result$LT$addr2line..function..Functions$LT$gimli..read..endian_slice..EndianSlice$LT$gimli..endianity..LittleEndian$GT$$GT$$C$gimli..read..Error$GT$$RP$$GT$$GT$17h6cf82f479787438aE', symObjAddr: 0x2B270, symBinAddr: 0x10002BC90, symSize: 0x20 }
  - { offset: 0x3C914, size: 0x8, addend: 0x0, symName: '__ZN4core3ptr60drop_in_place$LT$gimli..read..abbrev..AbbreviationsCache$GT$17h8ea9413fce52b0aeE', symObjAddr: 0x2B290, symBinAddr: 0x10002BCB0, symSize: 0xE0 }
  - { offset: 0x3CA7B, size: 0x8, addend: 0x0, symName: '__ZN4core3ptr64drop_in_place$LT$std..sys..pal..unix..sync..mutex..AttrGuard$GT$17h07975ffc5879c9b3E', symObjAddr: 0x2B3E0, symBinAddr: 0x10002BD90, symSize: 0x40 }
  - { offset: 0x3CABA, size: 0x8, addend: 0x0, symName: '__ZN4core3ptr65drop_in_place$LT$alloc..vec..Vec$LT$alloc..string..String$GT$$GT$17h7048242ed88ea37eE', symObjAddr: 0x2B4B0, symBinAddr: 0x10002BDD0, symSize: 0x90 }
  - { offset: 0x3CC20, size: 0x8, addend: 0x0, symName: '__ZN4core3ptr65drop_in_place$LT$std..backtrace_rs..symbolize..gimli..Context$GT$17hc7e1db2a9c32a85bE', symObjAddr: 0x2B540, symBinAddr: 0x10002BE60, symSize: 0x100 }
  - { offset: 0x3CE9E, size: 0x8, addend: 0x0, symName: '__ZN4core3ptr66drop_in_place$LT$std..backtrace_rs..backtrace..libunwind..Bomb$GT$17hd5948bcabaf539edE', symObjAddr: 0x2B640, symBinAddr: 0x10002BF60, symSize: 0x50 }
  - { offset: 0x3CEEA, size: 0x8, addend: 0x0, symName: '__ZN4core3ptr701drop_in_place$LT$core..result..Result$LT$$RF$core..result..Result$LT$core..option..Option$LT$alloc..boxed..Box$LT$addr2line..unit..DwoUnit$LT$gimli..read..endian_slice..EndianSlice$LT$gimli..endianity..LittleEndian$GT$$GT$$GT$$GT$$C$gimli..read..Error$GT$$C$$LP$$RF$core..result..Result$LT$core..option..Option$LT$alloc..boxed..Box$LT$addr2line..unit..DwoUnit$LT$gimli..read..endian_slice..EndianSlice$LT$gimli..endianity..LittleEndian$GT$$GT$$GT$$GT$$C$gimli..read..Error$GT$$C$core..result..Result$LT$core..option..Option$LT$alloc..boxed..Box$LT$addr2line..unit..DwoUnit$LT$gimli..read..endian_slice..EndianSlice$LT$gimli..endianity..LittleEndian$GT$$GT$$GT$$GT$$C$gimli..read..Error$GT$$RP$$GT$$GT$17h4c871d662e9baba8E', symObjAddr: 0x2B690, symBinAddr: 0x10002BFB0, symSize: 0x20 }
  - { offset: 0x3CF8B, size: 0x8, addend: 0x0, symName: '__ZN4core3ptr70drop_in_place$LT$std..backtrace_rs..symbolize..gimli..stash..Stash$GT$17h9192affd8a73d22bE', symObjAddr: 0x2B6B0, symBinAddr: 0x10002BFD0, symSize: 0xE0 }
  - { offset: 0x3D231, size: 0x8, addend: 0x0, symName: '__ZN4core3ptr71drop_in_place$LT$std..backtrace_rs..symbolize..gimli..macho..Object$GT$17he8bfbbbc576ba26bE', symObjAddr: 0x2B790, symBinAddr: 0x10002C0B0, symSize: 0xD0 }
  - { offset: 0x3D4F6, size: 0x8, addend: 0x0, symName: '__ZN4core3ptr71drop_in_place$LT$std..panicking..panic_handler..FormatStringPayload$GT$17he2832ae2b85e7af7E', symObjAddr: 0x2B860, symBinAddr: 0x10002C180, symSize: 0x30 }
  - { offset: 0x3D5B2, size: 0x8, addend: 0x0, symName: '__ZN4core3ptr72drop_in_place$LT$core..option..Option$LT$object..read..ObjectMap$GT$$GT$17hfcefd03af094224dE', symObjAddr: 0x2B890, symBinAddr: 0x10002C1B0, symSize: 0x60 }
  - { offset: 0x3D72F, size: 0x8, addend: 0x0, symName: '__ZN4core3ptr73drop_in_place$LT$alloc..vec..Vec$LT$addr2line..line..LineSequence$GT$$GT$17ha6ada6d850d6bfd7E', symObjAddr: 0x2B8F0, symBinAddr: 0x10002C210, symSize: 0x90 }
  - { offset: 0x3D887, size: 0x8, addend: 0x0, symName: '__ZN4core3ptr77drop_in_place$LT$alloc..boxed..Box$LT$$u5b$alloc..string..String$u5d$$GT$$GT$17hb3442e265eb8e1dcE', symObjAddr: 0x2B9D0, symBinAddr: 0x10002C2A0, symSize: 0x60 }
  - { offset: 0x3D89E, size: 0x8, addend: 0x0, symName: '__ZN4core3ptr77drop_in_place$LT$alloc..boxed..Box$LT$$u5b$alloc..string..String$u5d$$GT$$GT$17hb3442e265eb8e1dcE', symObjAddr: 0x2B9D0, symBinAddr: 0x10002C2A0, symSize: 0x60 }
  - { offset: 0x3D99C, size: 0x8, addend: 0x0, symName: '__ZN4core3ptr79drop_in_place$LT$std..sync..poison..rwlock..RwLockReadGuard$LT$$LP$$RP$$GT$$GT$17h4fa0e4fa5e15bd74E', symObjAddr: 0x2BA50, symBinAddr: 0x10002C300, symSize: 0x50 }
  - { offset: 0x3DA38, size: 0x8, addend: 0x0, symName: '__ZN4core3ptr81drop_in_place$LT$core..result..Result$LT$$LP$$RP$$C$std..io..error..Error$GT$$GT$17h1c1edd567460b3feE', symObjAddr: 0x2BB50, symBinAddr: 0x10002C350, symSize: 0x20 }
  - { offset: 0x3DA68, size: 0x8, addend: 0x0, symName: '__ZN4core3ptr82drop_in_place$LT$alloc..sync..ArcInner$LT$std..sys..fs..unix..InnerReadDir$GT$$GT$17ha8fbff3aaada4fb8E', symObjAddr: 0x2BC40, symBinAddr: 0x10002C370, symSize: 0x60 }
  - { offset: 0x3DC0B, size: 0x8, addend: 0x0, symName: '__ZN4core3ptr90drop_in_place$LT$std..io..buffered..bufwriter..BufWriter$LT$W$GT$..flush_buf..BufGuard$GT$17he4170abc552595a7E', symObjAddr: 0x2BD40, symBinAddr: 0x10002C3D0, symSize: 0x50 }
  - { offset: 0x3DD92, size: 0x8, addend: 0x0, symName: '__ZN4core3ptr92drop_in_place$LT$core..result..Result$LT$addr2line..line..Lines$C$gimli..read..Error$GT$$GT$17h2e8e0626d3a84d8eE', symObjAddr: 0x2BDF0, symBinAddr: 0x10002C420, symSize: 0xE0 }
  - { offset: 0x3DFD8, size: 0x8, addend: 0x0, symName: '__ZN4core3ptr93drop_in_place$LT$core..option..Option$LT$std..backtrace_rs..symbolize..gimli..Mapping$GT$$GT$17h136f8c1ae5619cc2E', symObjAddr: 0x2BED0, symBinAddr: 0x10002C500, symSize: 0x70 }
  - { offset: 0x3E067, size: 0x8, addend: 0x0, symName: '__ZN4core3ptr95drop_in_place$LT$std..io..buffered..linewriter..LineWriter$LT$std..io..stdio..StdoutRaw$GT$$GT$17h9eac947b14297a02E', symObjAddr: 0x2BF40, symBinAddr: 0x10002C570, symSize: 0x100 }
  - { offset: 0x3FFF3, size: 0x8, addend: 0x0, symName: __ZN4core5panic12PanicPayload6as_str17h0a0af93859b241b1E, symObjAddr: 0x302B0, symBinAddr: 0x10002C6E0, symSize: 0x10 }
  - { offset: 0x41FD5, size: 0x8, addend: 0x0, symName: __ZN4core5slice4sort8unstable7ipnsort17h2b4a537af7352546E, symObjAddr: 0x39850, symBinAddr: 0x100035C80, symSize: 0x1A0 }
  - { offset: 0x4227D, size: 0x8, addend: 0x0, symName: __ZN4core5slice4sort8unstable7ipnsort17h52ef4485ec8e6977E, symObjAddr: 0x399F0, symBinAddr: 0x100035E20, symSize: 0xE0 }
  - { offset: 0x4243F, size: 0x8, addend: 0x0, symName: __ZN4core5slice4sort8unstable8heapsort8heapsort17h4b4721c6bb82e1c1E, symObjAddr: 0x39AD0, symBinAddr: 0x100035F00, symSize: 0x120 }
  - { offset: 0x42685, size: 0x8, addend: 0x0, symName: __ZN4core5slice4sort8unstable8heapsort8heapsort17hab9566a01254ecddE, symObjAddr: 0x39BF0, symBinAddr: 0x100036020, symSize: 0x1D0 }
  - { offset: 0x42A37, size: 0x8, addend: 0x0, symName: __ZN4core5slice4sort8unstable9quicksort9quicksort17h0b8d9e0f156a468cE, symObjAddr: 0x39DC0, symBinAddr: 0x1000361F0, symSize: 0x540 }
  - { offset: 0x432D7, size: 0x8, addend: 0x0, symName: __ZN4core5slice4sort8unstable9quicksort9quicksort17h5a50d5c9a636cab4E, symObjAddr: 0x3A300, symBinAddr: 0x100036730, symSize: 0x761 }
  - { offset: 0x43F3A, size: 0x8, addend: 0x0, symName: __ZN4core5slice4sort6stable14driftsort_main17h3220260173ca707fE, symObjAddr: 0x31FD0, symBinAddr: 0x10002E400, symSize: 0x150 }
  - { offset: 0x44212, size: 0x8, addend: 0x0, symName: __ZN4core5slice4sort6stable14driftsort_main17h4699f0e78e45ec48E, symObjAddr: 0x32120, symBinAddr: 0x10002E550, symSize: 0x150 }
  - { offset: 0x444EA, size: 0x8, addend: 0x0, symName: __ZN4core5slice4sort6stable14driftsort_main17h9e6c77f5f42fb271E, symObjAddr: 0x32270, symBinAddr: 0x10002E6A0, symSize: 0x160 }
  - { offset: 0x44818, size: 0x8, addend: 0x0, symName: __ZN4core5slice4sort6stable14driftsort_main17ha76b3f8bfe5161d7E, symObjAddr: 0x323D0, symBinAddr: 0x10002E800, symSize: 0x160 }
  - { offset: 0x44B46, size: 0x8, addend: 0x0, symName: __ZN4core5slice4sort6stable14driftsort_main17hdb3cc37e344db5cdE, symObjAddr: 0x32530, symBinAddr: 0x10002E960, symSize: 0x150 }
  - { offset: 0x44E1E, size: 0x8, addend: 0x0, symName: __ZN4core5slice4sort6stable14driftsort_main17hf9b576397ab84e46E, symObjAddr: 0x32680, symBinAddr: 0x10002EAB0, symSize: 0x160 }
  - { offset: 0x45288, size: 0x8, addend: 0x0, symName: __ZN4core5slice4sort6stable5drift4sort17h0344cd1179273fdfE, symObjAddr: 0x327E0, symBinAddr: 0x10002EC10, symSize: 0x6E0 }
  - { offset: 0x45A30, size: 0x8, addend: 0x0, symName: __ZN4core5slice4sort6stable5drift4sort17h5d73a28370e736e7E, symObjAddr: 0x32EC0, symBinAddr: 0x10002F2F0, symSize: 0x690 }
  - { offset: 0x461E7, size: 0x8, addend: 0x0, symName: __ZN4core5slice4sort6stable5drift4sort17h7d35ffbcc89f38d4E, symObjAddr: 0x33550, symBinAddr: 0x10002F980, symSize: 0x6D0 }
  - { offset: 0x469A4, size: 0x8, addend: 0x0, symName: __ZN4core5slice4sort6stable5drift4sort17h8e4dd7b37e0e34b5E, symObjAddr: 0x33C20, symBinAddr: 0x100030050, symSize: 0x6E0 }
  - { offset: 0x47136, size: 0x8, addend: 0x0, symName: __ZN4core5slice4sort6stable5drift4sort17hd3daeb0e07815f37E, symObjAddr: 0x34300, symBinAddr: 0x100030730, symSize: 0x690 }
  - { offset: 0x478ED, size: 0x8, addend: 0x0, symName: __ZN4core5slice4sort6stable5drift4sort17hdee5488c31b7bf79E, symObjAddr: 0x34990, symBinAddr: 0x100030DC0, symSize: 0x6B0 }
  - { offset: 0x4832E, size: 0x8, addend: 0x0, symName: __ZN4core5slice4sort6stable9quicksort9quicksort17h49e735213ea776e8E, symObjAddr: 0x35040, symBinAddr: 0x100031470, symSize: 0xC20 }
  - { offset: 0x490A7, size: 0x8, addend: 0x0, symName: __ZN4core5slice4sort6stable9quicksort9quicksort17h4e0f96bb5e50204eE, symObjAddr: 0x35C60, symBinAddr: 0x100032090, symSize: 0xD60 }
  - { offset: 0x49E56, size: 0x8, addend: 0x0, symName: __ZN4core5slice4sort6stable9quicksort9quicksort17h5039615b86acfb17E, symObjAddr: 0x369C0, symBinAddr: 0x100032DF0, symSize: 0xB50 }
  - { offset: 0x4AC50, size: 0x8, addend: 0x0, symName: __ZN4core5slice4sort6stable9quicksort9quicksort17h54d5655b54e85608E, symObjAddr: 0x37510, symBinAddr: 0x100033940, symSize: 0xC40 }
  - { offset: 0x4B9D9, size: 0x8, addend: 0x0, symName: __ZN4core5slice4sort6stable9quicksort9quicksort17h563ccb161c809bb9E, symObjAddr: 0x38150, symBinAddr: 0x100034580, symSize: 0xB50 }
  - { offset: 0x4C2B1, size: 0x8, addend: 0x0, symName: __ZN4core5slice4sort6stable9quicksort9quicksort17ha4eccc1b33417963E, symObjAddr: 0x38CA0, symBinAddr: 0x1000350D0, symSize: 0xBB0 }
  - { offset: 0x4D7DC, size: 0x8, addend: 0x0, symName: __ZN4core5slice4sort6shared9smallsort12sort4_stable17h429c53b39c3949acE, symObjAddr: 0x30980, symBinAddr: 0x10002CDB0, symSize: 0x1B0 }
  - { offset: 0x4D9B3, size: 0x8, addend: 0x0, symName: __ZN4core5slice4sort6shared9smallsort12sort4_stable17h8e40b2e7e5f636d6E, symObjAddr: 0x30B30, symBinAddr: 0x10002CF60, symSize: 0x1F0 }
  - { offset: 0x4DDBE, size: 0x8, addend: 0x0, symName: __ZN4core5slice4sort6shared9smallsort12sort8_stable17hd86b794b574b633cE, symObjAddr: 0x30D20, symBinAddr: 0x10002D150, symSize: 0x3E0 }
  - { offset: 0x4E476, size: 0x8, addend: 0x0, symName: __ZN4core5slice4sort6shared9smallsort18small_sort_general17h0ffd90b03ee23f71E, symObjAddr: 0x31100, symBinAddr: 0x10002D530, symSize: 0x510 }
  - { offset: 0x4E993, size: 0x8, addend: 0x0, symName: __ZN4core5slice4sort6shared9smallsort18small_sort_general17h7a2a4ab0b4034136E, symObjAddr: 0x31610, symBinAddr: 0x10002DA40, symSize: 0x600 }
  - { offset: 0x4F196, size: 0x8, addend: 0x0, symName: __ZN4core5slice4sort6shared9smallsort25insertion_sort_shift_left17h0b99a1dace0461e0E, symObjAddr: 0x31C10, symBinAddr: 0x10002E040, symSize: 0x120 }
  - { offset: 0x4F35B, size: 0x8, addend: 0x0, symName: __ZN4core5slice4sort6shared9smallsort25insertion_sort_shift_left17h1aa889efeb4092c1E, symObjAddr: 0x31D30, symBinAddr: 0x10002E160, symSize: 0xF0 }
  - { offset: 0x4F489, size: 0x8, addend: 0x0, symName: __ZN4core5slice4sort6shared9smallsort25insertion_sort_shift_left17h39fda689822c34e3E, symObjAddr: 0x31E20, symBinAddr: 0x10002E250, symSize: 0xF0 }
  - { offset: 0x4F5B8, size: 0x8, addend: 0x0, symName: __ZN4core5slice4sort6shared9smallsort25insertion_sort_shift_left17h519a67896e46d7b4E, symObjAddr: 0x31F10, symBinAddr: 0x10002E340, symSize: 0xC0 }
  - { offset: 0x4F8D8, size: 0x8, addend: 0x0, symName: __ZN4core5slice4sort6shared5pivot11median3_rec17h0bad552e41eb9dc6E, symObjAddr: 0x302C0, symBinAddr: 0x10002C6F0, symSize: 0xC0 }
  - { offset: 0x4F9DF, size: 0x8, addend: 0x0, symName: __ZN4core5slice4sort6shared5pivot11median3_rec17h69042159816e04f4E, symObjAddr: 0x30380, symBinAddr: 0x10002C7B0, symSize: 0xC0 }
  - { offset: 0x4FAE8, size: 0x8, addend: 0x0, symName: __ZN4core5slice4sort6shared5pivot11median3_rec17h6b39c5ff16384b97E, symObjAddr: 0x30440, symBinAddr: 0x10002C870, symSize: 0xB0 }
  - { offset: 0x4FC1B, size: 0x8, addend: 0x0, symName: __ZN4core5slice4sort6shared5pivot11median3_rec17h78bc361aba28d375E, symObjAddr: 0x304F0, symBinAddr: 0x10002C920, symSize: 0x140 }
  - { offset: 0x4FE50, size: 0x8, addend: 0x0, symName: __ZN4core5slice4sort6shared5pivot11median3_rec17h864e4c2ed0405f91E, symObjAddr: 0x30630, symBinAddr: 0x10002CA60, symSize: 0xC0 }
  - { offset: 0x4FF57, size: 0x8, addend: 0x0, symName: __ZN4core5slice4sort6shared5pivot11median3_rec17h9ee77f2cab2d4c5dE, symObjAddr: 0x306F0, symBinAddr: 0x10002CB20, symSize: 0xC0 }
  - { offset: 0x5005E, size: 0x8, addend: 0x0, symName: __ZN4core5slice4sort6shared5pivot11median3_rec17ha14fc07cd9e49161E, symObjAddr: 0x307B0, symBinAddr: 0x10002CBE0, symSize: 0xC0 }
  - { offset: 0x50165, size: 0x8, addend: 0x0, symName: __ZN4core5slice4sort6shared5pivot11median3_rec17hfa048ff775602914E, symObjAddr: 0x30870, symBinAddr: 0x10002CCA0, symSize: 0x110 }
  - { offset: 0x50371, size: 0x8, addend: 0x0, symName: '__ZN55_$LT$$RF$str$u20$as$u20$core..str..pattern..Pattern$GT$15is_contained_in17hc8794a96b582b38aE', symObjAddr: 0x3B790, symBinAddr: 0x100036ED0, symSize: 0x860 }
  - { offset: 0x50B0C, size: 0x8, addend: 0x0, symName: '__ZN4core3str7pattern13simd_contains28_$u7b$$u7b$closure$u7d$$u7d$17ha6d539c15f4ab7c0E', symObjAddr: 0x2C040, symBinAddr: 0x1000578E0, symSize: 0x100 }
  - { offset: 0x522AB, size: 0x8, addend: 0x0, symName: '__ZN4core3ops8function6FnOnce40call_once$u7b$$u7b$vtable.shim$u7d$$u7d$17h0d3238feb6ae2c7dE', symObjAddr: 0x29150, symBinAddr: 0x10002A760, symSize: 0x10 }
  - { offset: 0x522E7, size: 0x8, addend: 0x0, symName: '__ZN4core3ops8function6FnOnce40call_once$u7b$$u7b$vtable.shim$u7d$$u7d$17h3292d6654d591370E', symObjAddr: 0x29160, symBinAddr: 0x10002A770, symSize: 0x90 }
  - { offset: 0x523CB, size: 0x8, addend: 0x0, symName: '__ZN4core3ops8function6FnOnce40call_once$u7b$$u7b$vtable.shim$u7d$$u7d$17h59b44727da8ea4adE', symObjAddr: 0x29280, symBinAddr: 0x10002A800, symSize: 0x90 }
  - { offset: 0x52535, size: 0x8, addend: 0x0, symName: '__ZN4core3ops8function6FnOnce40call_once$u7b$$u7b$vtable.shim$u7d$$u7d$17h8ff5d8d366cb3dcdE', symObjAddr: 0x29350, symBinAddr: 0x10002A890, symSize: 0x90 }
  - { offset: 0x5267B, size: 0x8, addend: 0x0, symName: '__ZN4core3ops8function6FnOnce40call_once$u7b$$u7b$vtable.shim$u7d$$u7d$17h994b7e277a3827ddE', symObjAddr: 0x293E0, symBinAddr: 0x10002A920, symSize: 0x10 }
  - { offset: 0x526CC, size: 0x8, addend: 0x0, symName: '__ZN4core3ops8function6FnOnce40call_once$u7b$$u7b$vtable.shim$u7d$$u7d$17h9e6dbb12aa376ac1E', symObjAddr: 0x29400, symBinAddr: 0x10002A930, symSize: 0x10 }
  - { offset: 0x52708, size: 0x8, addend: 0x0, symName: '__ZN4core3ops8function6FnOnce40call_once$u7b$$u7b$vtable.shim$u7d$$u7d$17hdb0d13364863d228E', symObjAddr: 0x29420, symBinAddr: 0x10002A940, symSize: 0x20 }
  - { offset: 0x52744, size: 0x8, addend: 0x0, symName: '__ZN4core3ops8function6FnOnce40call_once$u7b$$u7b$vtable.shim$u7d$$u7d$17hf1524fee5c53f54cE', symObjAddr: 0x294E0, symBinAddr: 0x10002A960, symSize: 0x10 }
  - { offset: 0x528B3, size: 0x8, addend: 0x0, symName: __ZN4core3ops8function2Fn4call17h338481cfccfcf83dE, symObjAddr: 0x28EA0, symBinAddr: 0x10002A690, symSize: 0xA0 }
  - { offset: 0x529C3, size: 0x8, addend: 0x0, symName: __ZN4core3ops8function2Fn4call17hc37bf41f1a522bbdE, symObjAddr: 0x29110, symBinAddr: 0x10002A730, symSize: 0x30 }
  - { offset: 0x5366E, size: 0x8, addend: 0x0, symName: '__ZN36_$LT$T$u20$as$u20$core..any..Any$GT$7type_id17hf38d30a50d909875E', symObjAddr: 0x1250, symBinAddr: 0x10001A250, symSize: 0x30 }
  - { offset: 0x5369D, size: 0x8, addend: 0x0, symName: '__ZN36_$LT$T$u20$as$u20$core..any..Any$GT$7type_id17hfe9fbb449010764eE', symObjAddr: 0x1280, symBinAddr: 0x10001A280, symSize: 0x30 }
  - { offset: 0x546C5, size: 0x8, addend: 0x0, symName: '__ZN4core4cell4once17OnceCell$LT$T$GT$8try_init17h164ad122d3fdde11E', symObjAddr: 0x2C140, symBinAddr: 0x1000579E0, symSize: 0x70 }
  - { offset: 0x546E3, size: 0x8, addend: 0x0, symName: '__ZN4core4cell4once17OnceCell$LT$T$GT$8try_init17h164ad122d3fdde11E', symObjAddr: 0x2C140, symBinAddr: 0x1000579E0, symSize: 0x70 }
  - { offset: 0x546F8, size: 0x8, addend: 0x0, symName: '__ZN4core4cell4once17OnceCell$LT$T$GT$8try_init17h164ad122d3fdde11E', symObjAddr: 0x2C140, symBinAddr: 0x1000579E0, symSize: 0x70 }
  - { offset: 0x5470C, size: 0x8, addend: 0x0, symName: '__ZN4core4cell4once17OnceCell$LT$T$GT$8try_init17h164ad122d3fdde11E', symObjAddr: 0x2C140, symBinAddr: 0x1000579E0, symSize: 0x70 }
  - { offset: 0x54763, size: 0x8, addend: 0x0, symName: '__ZN4core4cell4once17OnceCell$LT$T$GT$8try_init17h5eaa6e42f622c98bE', symObjAddr: 0x2C1B0, symBinAddr: 0x100057A50, symSize: 0x80 }
  - { offset: 0x54816, size: 0x8, addend: 0x0, symName: '__ZN4core4cell4once17OnceCell$LT$T$GT$8try_init17h8d9b52977b5ff1b0E', symObjAddr: 0x2C230, symBinAddr: 0x100057AD0, symSize: 0x8B0 }
  - { offset: 0x553D3, size: 0x8, addend: 0x0, symName: '__ZN4core4cell4once17OnceCell$LT$T$GT$8try_init17h963735826f59da1dE', symObjAddr: 0x2CAE0, symBinAddr: 0x100058380, symSize: 0x110 }
  - { offset: 0x55633, size: 0x8, addend: 0x0, symName: '__ZN4core4cell4once17OnceCell$LT$T$GT$8try_init17hbb32d690264a29aeE', symObjAddr: 0x2CBF0, symBinAddr: 0x100058490, symSize: 0x25C0 }
  - { offset: 0x587DF, size: 0x8, addend: 0x0, symName: '__ZN4core4cell4once17OnceCell$LT$T$GT$8try_init17he85fbe2a3a1ae7fbE', symObjAddr: 0x2F1B0, symBinAddr: 0x10005AA50, symSize: 0xF30 }
  - { offset: 0x5A3B6, size: 0x8, addend: 0x0, symName: __ZN4core5error5Error11description17ha6a6a08fd0b06ebcE, symObjAddr: 0x301F0, symBinAddr: 0x10002C670, symSize: 0x20 }
  - { offset: 0x5A3D0, size: 0x8, addend: 0x0, symName: __ZN4core5error5Error5cause17h5b5fd61b0af24bd8E, symObjAddr: 0x30210, symBinAddr: 0x10002C690, symSize: 0x10 }
  - { offset: 0x5A3EA, size: 0x8, addend: 0x0, symName: __ZN4core5error5Error7provide17hcf50e4f5391fe1b4E, symObjAddr: 0x30240, symBinAddr: 0x10002C6A0, symSize: 0x10 }
  - { offset: 0x5A404, size: 0x8, addend: 0x0, symName: __ZN4core5error5Error7type_id17h1548aa106e60bc02E, symObjAddr: 0x30250, symBinAddr: 0x10002C6B0, symSize: 0x30 }
  - { offset: 0x5A43A, size: 0x8, addend: 0x0, symName: __ZN4core9panicking13assert_failed17hd751ab4adab24333E, symObjAddr: 0x3AAF2, symBinAddr: 0x10005B982, symSize: 0x3E }
  - { offset: 0x5A51F, size: 0x8, addend: 0x0, symName: __RNvCskdKJRKLKjqM_7___rustc10rust_panic, symObjAddr: 0x0, symBinAddr: 0x100056B90, symSize: 0x70 }
  - { offset: 0x5A550, size: 0x8, addend: 0x0, symName: __RNvCskdKJRKLKjqM_7___rustc17___rust_drop_panic, symObjAddr: 0x1D0, symBinAddr: 0x100019EF0, symSize: 0xD0 }
  - { offset: 0x5A79B, size: 0x8, addend: 0x0, symName: __RNvCskdKJRKLKjqM_7___rustc17rust_begin_unwind, symObjAddr: 0x2A0, symBinAddr: 0x100019FC0, symSize: 0x30 }
  - { offset: 0x5A7E1, size: 0x8, addend: 0x0, symName: __RNvCskdKJRKLKjqM_7___rustc24___rust_foreign_exception, symObjAddr: 0x360, symBinAddr: 0x10001A080, symSize: 0xD0 }
  - { offset: 0x5AA9C, size: 0x8, addend: 0x0, symName: __ZN3std9panicking11panic_count17is_zero_slow_path17hc9cf2ba853cb1a44E, symObjAddr: 0x26310, symBinAddr: 0x1000578C0, symSize: 0x20 }
  - { offset: 0x5AB4B, size: 0x8, addend: 0x0, symName: __ZN3std9panicking11panic_count8increase17hf57f6317579ad19bE, symObjAddr: 0x26370, symBinAddr: 0x1000290E0, symSize: 0x40 }
  - { offset: 0x5AB62, size: 0x8, addend: 0x0, symName: __ZN3std9panicking11panic_count8increase17hf57f6317579ad19bE, symObjAddr: 0x26370, symBinAddr: 0x1000290E0, symSize: 0x40 }
  - { offset: 0x5AB77, size: 0x8, addend: 0x0, symName: __ZN3std9panicking11panic_count8increase17hf57f6317579ad19bE, symObjAddr: 0x26370, symBinAddr: 0x1000290E0, symSize: 0x40 }
  - { offset: 0x5AD2D, size: 0x8, addend: 0x0, symName: __ZN3std9panicking12default_hook17hfd692237a6812b4aE, symObjAddr: 0x263EB, symBinAddr: 0x10002912B, symSize: 0x12B }
  - { offset: 0x5AEC4, size: 0x8, addend: 0x0, symName: '__ZN3std9panicking12default_hook28_$u7b$$u7b$closure$u7d$$u7d$17h4c39689ecd8341bfE', symObjAddr: 0x26516, symBinAddr: 0x100029256, symSize: 0x18A }
  - { offset: 0x5B08B, size: 0x8, addend: 0x0, symName: '__ZN3std9panicking12default_hook28_$u7b$$u7b$closure$u7d$$u7d$28_$u7b$$u7b$closure$u7d$$u7d$17h141942b3ab6b1748E', symObjAddr: 0x266A0, symBinAddr: 0x1000293E0, symSize: 0x380 }
  - { offset: 0x5B7BB, size: 0x8, addend: 0x0, symName: __ZN3std9panicking13panic_handler19FormatStringPayload4fill17hd583736f0adc2b9eE, symObjAddr: 0x26A20, symBinAddr: 0x100029760, symSize: 0xC0 }
  - { offset: 0x5B8D8, size: 0x8, addend: 0x0, symName: '__ZN3std9panicking13panic_handler28_$u7b$$u7b$closure$u7d$$u7d$17h0449b52d62cc4acdE', symObjAddr: 0x26AE0, symBinAddr: 0x100029820, symSize: 0xD0 }
  - { offset: 0x5BA34, size: 0x8, addend: 0x0, symName: '__ZN86_$LT$std..panicking..panic_handler..StaticStrPayload$u20$as$u20$core..fmt..Display$GT$3fmt17h611d737e25d39e04E', symObjAddr: 0x58C20, symBinAddr: 0x100044A50, symSize: 0x20 }
  - { offset: 0x5BA55, size: 0x8, addend: 0x0, symName: '__ZN89_$LT$std..panicking..panic_handler..FormatStringPayload$u20$as$u20$core..fmt..Display$GT$3fmt17h2c418704e9a80b67E', symObjAddr: 0x59030, symBinAddr: 0x100044BD0, symSize: 0x70 }
  - { offset: 0x5BB49, size: 0x8, addend: 0x0, symName: '__ZN93_$LT$std..panicking..panic_handler..StaticStrPayload$u20$as$u20$core..panic..PanicPayload$GT$3get17h54b2dcb3b150a54cE', symObjAddr: 0x59900, symBinAddr: 0x100044D60, symSize: 0x10 }
  - { offset: 0x5BB64, size: 0x8, addend: 0x0, symName: '__ZN93_$LT$std..panicking..panic_handler..StaticStrPayload$u20$as$u20$core..panic..PanicPayload$GT$6as_str17h5a1a7c38fda21c29E', symObjAddr: 0x59910, symBinAddr: 0x100044D70, symSize: 0x10 }
  - { offset: 0x5BB7F, size: 0x8, addend: 0x0, symName: '__ZN93_$LT$std..panicking..panic_handler..StaticStrPayload$u20$as$u20$core..panic..PanicPayload$GT$8take_box17hdf5e7dcb860e8869E', symObjAddr: 0x59920, symBinAddr: 0x100044D80, symSize: 0x50 }
  - { offset: 0x5BBFC, size: 0x8, addend: 0x0, symName: '__ZN96_$LT$std..panicking..panic_handler..FormatStringPayload$u20$as$u20$core..panic..PanicPayload$GT$3get17he619996a915dba5aE', symObjAddr: 0x5A150, symBinAddr: 0x1000451F0, symSize: 0x20 }
  - { offset: 0x5BC17, size: 0x8, addend: 0x0, symName: '__ZN96_$LT$std..panicking..panic_handler..FormatStringPayload$u20$as$u20$core..panic..PanicPayload$GT$8take_box17h1d68480d8bee4f17E', symObjAddr: 0x5A170, symBinAddr: 0x100045210, symSize: 0xA0 }
  - { offset: 0x5BD69, size: 0x8, addend: 0x0, symName: __ZN3std9panicking14payload_as_str17h7b83b1c48b989ea0E, symObjAddr: 0x26C50, symBinAddr: 0x1000298F0, symSize: 0x7D }
  - { offset: 0x5BEAE, size: 0x8, addend: 0x0, symName: __ZN3std9panicking15panic_with_hook17he1033abc98626357E, symObjAddr: 0x26CCD, symBinAddr: 0x10002996D, symSize: 0x43D }
  - { offset: 0x5C858, size: 0x8, addend: 0x0, symName: __ZN3std3sys3pal6common14small_c_string24run_with_cstr_allocating17h5cc89072fa4ee439E, symObjAddr: 0x19EE0, symBinAddr: 0x100056EB0, symSize: 0x90 }
  - { offset: 0x5C9C7, size: 0x8, addend: 0x0, symName: __ZN3std3sys3pal6common14small_c_string24run_with_cstr_allocating17h65d9406162e2b0deE, symObjAddr: 0x19F70, symBinAddr: 0x100056F40, symSize: 0xB0 }
  - { offset: 0x5CBA3, size: 0x8, addend: 0x0, symName: __ZN3std3sys3pal6common14small_c_string24run_with_cstr_allocating17hc579900339e23d19E, symObjAddr: 0x1A190, symBinAddr: 0x100056FF0, symSize: 0xB0 }
  - { offset: 0x5CD7F, size: 0x8, addend: 0x0, symName: __ZN3std3sys3pal6common14small_c_string24run_with_cstr_allocating17he476d4c4f028b54aE, symObjAddr: 0x1A240, symBinAddr: 0x1000570A0, symSize: 0xB0 }
  - { offset: 0x5CF5B, size: 0x8, addend: 0x0, symName: __ZN3std3sys3pal6common14small_c_string24run_with_cstr_allocating17he4af3d6cbd61cc52E, symObjAddr: 0x1A2F0, symBinAddr: 0x100057150, symSize: 0xB0 }
  - { offset: 0x5D17C, size: 0x8, addend: 0x0, symName: __ZN3std3sys3pal4unix14stack_overflow11thread_info16set_current_info17h9c07c7c3f5a792f2E, symObjAddr: 0x17860, symBinAddr: 0x100025360, symSize: 0xEA0 }
  - { offset: 0x5E46E, size: 0x8, addend: 0x0, symName: __ZN3std3sys3pal4unix14stack_overflow3imp12drop_handler17h10e97a4f0d9b05d8E, symObjAddr: 0x18700, symBinAddr: 0x100026200, symSize: 0x520 }
  - { offset: 0x5ECEF, size: 0x8, addend: 0x0, symName: __ZN3std3sys3pal4unix14stack_overflow3imp12make_handler17h7ea0af42963bc428E, symObjAddr: 0x18C20, symBinAddr: 0x100026720, symSize: 0x290 }
  - { offset: 0x5F0C2, size: 0x8, addend: 0x0, symName: __ZN3std3sys3pal4unix14stack_overflow3imp14signal_handler17ha77e123931615aa3E, symObjAddr: 0x18EB0, symBinAddr: 0x1000269B0, symSize: 0x380 }
  - { offset: 0x5F7C0, size: 0x8, addend: 0x0, symName: __ZN3std3sys3pal4unix4sync5mutex5Mutex4init17hc0cd42f50e15ec42E, symObjAddr: 0x199B0, symBinAddr: 0x100026F80, symSize: 0x160 }
  - { offset: 0x5F87C, size: 0x8, addend: 0x0, symName: __ZN3std3sys3pal4unix4sync5mutex5Mutex4lock4fail17ha33bd018f471c78aE, symObjAddr: 0x19B30, symBinAddr: 0x100056DB0, symSize: 0x100 }
  - { offset: 0x5FB7E, size: 0x8, addend: 0x0, symName: __ZN3std3sys3pal4unix14abort_internal17h2d7ebcba1920d509E, symObjAddr: 0x17850, symBinAddr: 0x100056DA0, symSize: 0x10 }
  - { offset: 0x5FB99, size: 0x8, addend: 0x0, symName: __ZN3std3sys3pal4unix17decode_error_kind17h447b85d7b88dc1dcE, symObjAddr: 0x19230, symBinAddr: 0x100026D30, symSize: 0x250 }
  - { offset: 0x5FC1F, size: 0x8, addend: 0x0, symName: __ZN3std3sys12thread_local6native5eager7destroy17h52ab99797ee9e6c0E, symObjAddr: 0x122C0, symBinAddr: 0x100024B70, symSize: 0x20 }
  - { offset: 0x5FDA1, size: 0x8, addend: 0x0, symName: __ZN3std3sys12thread_local5guard5apple6enable9run_dtors17h38edc9b0697859adE, symObjAddr: 0x121D0, symBinAddr: 0x100024A80, symSize: 0xF0 }
  - { offset: 0x6023F, size: 0x8, addend: 0x0, symName: __ZN3std3sys12thread_local11destructors4list8register17h1d9ec60dd9886de7E, symObjAddr: 0x120E0, symBinAddr: 0x100024990, symSize: 0xF0 }
  - { offset: 0x604CE, size: 0x8, addend: 0x0, symName: __ZN3std3sys3env4unix13env_read_lock17h6b780f3777072ce3E, symObjAddr: 0x165B0, symBinAddr: 0x100024FC0, symSize: 0x280 }
  - { offset: 0x60B95, size: 0x8, addend: 0x0, symName: '__ZN3std3sys3env4unix6getenv28_$u7b$$u7b$closure$u7d$$u7d$17hbced0c0771611cafE', symObjAddr: 0x16830, symBinAddr: 0x100025240, symSize: 0x120 }
  - { offset: 0x60E36, size: 0x8, addend: 0x0, symName: __ZN3std3sys2fs4unix4File6open_c17he05b2f9a6cd0c0a5E, symObjAddr: 0x14FB0, symBinAddr: 0x100024C40, symSize: 0x180 }
  - { offset: 0x60F77, size: 0x8, addend: 0x0, symName: '__ZN86_$LT$std..sys..fs..unix..ReadDir$u20$as$u20$core..iter..traits..iterator..Iterator$GT$4next17h6b3c5487c6bbb501E', symObjAddr: 0x58C70, symBinAddr: 0x100044A70, symSize: 0x160 }
  - { offset: 0x61225, size: 0x8, addend: 0x0, symName: '__ZN65_$LT$std..sys..fs..unix..Dir$u20$as$u20$core..ops..drop..Drop$GT$4drop17h00566fb81437571eE', symObjAddr: 0x531C0, symBinAddr: 0x100043CD0, symSize: 0xD0 }
  - { offset: 0x6131B, size: 0x8, addend: 0x0, symName: __ZN3std3sys2fs11remove_file17h61ad28dfa4e0cb99E, symObjAddr: 0x13FF0, symBinAddr: 0x100024B90, symSize: 0xB0 }
  - { offset: 0x6145B, size: 0x8, addend: 0x0, symName: __ZN3std3sys2fs8read_dir17he96197a45d71fcd1E, symObjAddr: 0x160D0, symBinAddr: 0x100024DC0, symSize: 0x200 }
  - { offset: 0x6187F, size: 0x8, addend: 0x0, symName: '__ZN64_$LT$std..sys..stdio..unix..Stderr$u20$as$u20$std..io..Write$GT$14write_vectored17h2dbb79a2e8dce948E', symObjAddr: 0x52F00, symBinAddr: 0x100043C10, symSize: 0x50 }
  - { offset: 0x6194E, size: 0x8, addend: 0x0, symName: '__ZN64_$LT$std..sys..stdio..unix..Stderr$u20$as$u20$std..io..Write$GT$17is_write_vectored17h9d9019aa34dca71eE', symObjAddr: 0x52F50, symBinAddr: 0x100043C60, symSize: 0x10 }
  - { offset: 0x61968, size: 0x8, addend: 0x0, symName: '__ZN64_$LT$std..sys..stdio..unix..Stderr$u20$as$u20$std..io..Write$GT$5flush17haca374bc2fb40ebcE', symObjAddr: 0x52F60, symBinAddr: 0x100043C70, symSize: 0x10 }
  - { offset: 0x61982, size: 0x8, addend: 0x0, symName: '__ZN64_$LT$std..sys..stdio..unix..Stderr$u20$as$u20$std..io..Write$GT$5write17h4b5035fe5e5f2032E', symObjAddr: 0x52F70, symBinAddr: 0x100043C80, symSize: 0x50 }
  - { offset: 0x61ACF, size: 0x8, addend: 0x0, symName: '__ZN3std3sys4sync8once_box16OnceBox$LT$T$GT$10initialize17h6aa2ce4cfc78c157E', symObjAddr: 0x1B490, symBinAddr: 0x1000574A0, symSize: 0x120 }
  - { offset: 0x61D91, size: 0x8, addend: 0x0, symName: __ZN3std3sys4sync4once5queue4Once4call17h8e466067d86cbcb3E, symObjAddr: 0x1A7E0, symBinAddr: 0x100057200, symSize: 0x210 }
  - { offset: 0x6204B, size: 0x8, addend: 0x0, symName: '__ZN82_$LT$std..sys..sync..once..queue..WaiterQueue$u20$as$u20$core..ops..drop..Drop$GT$4drop17h17a27c240e6095eaE', symObjAddr: 0x586D0, symBinAddr: 0x100044980, symSize: 0xD0 }
  - { offset: 0x62200, size: 0x8, addend: 0x0, symName: __ZN3std3sys4sync4once5queue4wait17hcf137e24f8369e0fE, symObjAddr: 0x1ABE0, symBinAddr: 0x1000270E0, symSize: 0x160 }
  - { offset: 0x626E3, size: 0x8, addend: 0x0, symName: __ZN3std3sys4sync6rwlock5queue6RwLock12unlock_queue17h2b38c5d2f4e14db6E, symObjAddr: 0x1AD60, symBinAddr: 0x100027240, symSize: 0x180 }
  - { offset: 0x62D02, size: 0x8, addend: 0x0, symName: __ZN3std3sys4sync6rwlock5queue6RwLock16unlock_contended17h434533e27b51e3a9E, symObjAddr: 0x1B1F0, symBinAddr: 0x100057410, symSize: 0x40 }
  - { offset: 0x62DDE, size: 0x8, addend: 0x0, symName: __ZN3std3sys4sync6rwlock5queue6RwLock21read_unlock_contended17ha0f88a0fd7df0d66E, symObjAddr: 0x1B230, symBinAddr: 0x100057450, symSize: 0x50 }
  - { offset: 0x63036, size: 0x8, addend: 0x0, symName: __ZN3std3sys4sync6rwlock5queue9read_lock17h5e2659437ef5e87cE, symObjAddr: 0x1B280, symBinAddr: 0x1000273C0, symSize: 0x30 }
  - { offset: 0x6304F, size: 0x8, addend: 0x0, symName: '__ZN83_$LT$std..sys..sync..rwlock..queue..PanicGuard$u20$as$u20$core..ops..drop..Drop$GT$4drop17h9abf048048014633E', symObjAddr: 0x58950, symBinAddr: 0x10005BB10, symSize: 0x60 }
  - { offset: 0x63114, size: 0x8, addend: 0x0, symName: '__ZN3std3sys11personality3gcc14find_eh_action28_$u7b$$u7b$closure$u7d$$u7d$17h71a716f7697f7c23E', symObjAddr: 0x120C0, symBinAddr: 0x100024970, symSize: 0x10 }
  - { offset: 0x63128, size: 0x8, addend: 0x0, symName: '__ZN3std3sys11personality3gcc14find_eh_action28_$u7b$$u7b$closure$u7d$$u7d$17hf3d297c424dd88bbE', symObjAddr: 0x120D0, symBinAddr: 0x100024980, symSize: 0x10 }
  - { offset: 0x63174, size: 0x8, addend: 0x0, symName: _rust_eh_personality, symObjAddr: 0x5D880, symBinAddr: 0x100048680, symSize: 0x640 }
  - { offset: 0x63C71, size: 0x8, addend: 0x0, symName: __ZN3std3sys6random19hashmap_random_keys17hdf0d5c6761cd11c1E, symObjAddr: 0x1B8A0, symBinAddr: 0x1000273F0, symSize: 0x80 }
  - { offset: 0x63D26, size: 0x8, addend: 0x0, symName: '__ZN3std3sys9backtrace10_print_fmt28_$u7b$$u7b$closure$u7d$$u7d$17h240c89470c2fecd8E', symObjAddr: 0x1F310, symBinAddr: 0x100027470, symSize: 0x130 }
  - { offset: 0x63E0E, size: 0x8, addend: 0x0, symName: '__ZN3std3sys9backtrace10_print_fmt28_$u7b$$u7b$closure$u7d$$u7d$17h32646e4212c9eef0E', symObjAddr: 0x1F440, symBinAddr: 0x1000275A0, symSize: 0x20 }
  - { offset: 0x63E4F, size: 0x8, addend: 0x0, symName: '__ZN3std3sys9backtrace10_print_fmt28_$u7b$$u7b$closure$u7d$$u7d$28_$u7b$$u7b$closure$u7d$$u7d$17h9218d583d276298aE', symObjAddr: 0x1F460, symBinAddr: 0x1000275C0, symSize: 0x2A0 }
  - { offset: 0x64042, size: 0x8, addend: 0x0, symName: __ZN3std3sys9backtrace13BacktraceLock5print17h5e73de0c808691a4E, symObjAddr: 0x1F700, symBinAddr: 0x100027860, symSize: 0x60 }
  - { offset: 0x64073, size: 0x8, addend: 0x0, symName: __ZN3std3sys9backtrace15output_filename17ha87664c578f770efE, symObjAddr: 0x1F760, symBinAddr: 0x1000278C0, symSize: 0x120 }
  - { offset: 0x641DF, size: 0x8, addend: 0x0, symName: __ZN3std3sys9backtrace26__rust_end_short_backtrace17h3fc1fab9d4b6800aE, symObjAddr: 0x1F880, symBinAddr: 0x1000279E0, symSize: 0x10 }
  - { offset: 0x641F9, size: 0x8, addend: 0x0, symName: __ZN3std3sys9backtrace4lock17h2bb35fe2884a3a88E, symObjAddr: 0x1F8A0, symBinAddr: 0x1000279F0, symSize: 0x80 }
  - { offset: 0x6434F, size: 0x8, addend: 0x0, symName: '__ZN98_$LT$std..sys..backtrace..BacktraceLock..print..DisplayBacktrace$u20$as$u20$core..fmt..Display$GT$3fmt17hbb4f642dcc320b1dE', symObjAddr: 0x5A3B0, symBinAddr: 0x1000452B0, symSize: 0x280 }
  - { offset: 0x648AE, size: 0x8, addend: 0x0, symName: __RNvCskdKJRKLKjqM_7___rustc11___rdl_alloc, symObjAddr: 0x70, symBinAddr: 0x100019DA0, symSize: 0x70 }
  - { offset: 0x6492C, size: 0x8, addend: 0x0, symName: __RNvCskdKJRKLKjqM_7___rustc13___rdl_dealloc, symObjAddr: 0xF0, symBinAddr: 0x100019E10, symSize: 0x10 }
  - { offset: 0x6495D, size: 0x8, addend: 0x0, symName: __RNvCskdKJRKLKjqM_7___rustc13___rdl_realloc, symObjAddr: 0x100, symBinAddr: 0x100019E20, symSize: 0xD0 }
  - { offset: 0x64A41, size: 0x8, addend: 0x0, symName: __RNvCskdKJRKLKjqM_7___rustc18___rdl_alloc_zeroed, symObjAddr: 0x2D0, symBinAddr: 0x100019FF0, symSize: 0x90 }
  - { offset: 0x64AE6, size: 0x8, addend: 0x0, symName: __RNvCskdKJRKLKjqM_7___rustc8___rg_oom, symObjAddr: 0x430, symBinAddr: 0x100056C00, symSize: 0x20 }
  - { offset: 0x64B02, size: 0x8, addend: 0x0, symName: __ZN3std5alloc24default_alloc_error_hook17h037631a9e9542696E, symObjAddr: 0x23AD0, symBinAddr: 0x100028CF0, symSize: 0x160 }
  - { offset: 0x64D8F, size: 0x8, addend: 0x0, symName: __ZN3std5alloc8rust_oom17he6554ab5e3e4bfbfE, symObjAddr: 0x23C30, symBinAddr: 0x100057680, symSize: 0x20 }
  - { offset: 0x64DDC, size: 0x8, addend: 0x0, symName: __ZN3std2rt15handle_rt_panic17hc19cb4ec1bf553a3E, symObjAddr: 0xF090, symBinAddr: 0x100056D40, symSize: 0x60 }
  - { offset: 0x64E6C, size: 0x8, addend: 0x0, symName: __ZN3std2rt19lang_start_internal17he54b1e510ff92df3E, symObjAddr: 0xF0F0, symBinAddr: 0x100023EE0, symSize: 0x6C0 }
  - { offset: 0x65A8F, size: 0x8, addend: 0x0, symName: __ZN3std2io5error5Error3new17hca09cf106a8bb92bE, symObjAddr: 0xC960, symBinAddr: 0x100023010, symSize: 0x120 }
  - { offset: 0x65E54, size: 0x8, addend: 0x0, symName: '__ZN3std2io5error83_$LT$impl$u20$core..fmt..Debug$u20$for$u20$std..io..error..repr_bitpacked..Repr$GT$3fmt17h0c2c47996b5c8151E', symObjAddr: 0xCB00, symBinAddr: 0x100023130, symSize: 0x300 }
  - { offset: 0x660AC, size: 0x8, addend: 0x0, symName: '__ZN58_$LT$std..io..error..Error$u20$as$u20$core..fmt..Debug$GT$3fmt17h4e87839884dfef9aE', symObjAddr: 0x3D080, symBinAddr: 0x100037910, symSize: 0x10 }
  - { offset: 0x660C6, size: 0x8, addend: 0x0, symName: '__ZN60_$LT$std..io..error..Error$u20$as$u20$core..fmt..Display$GT$3fmt17hb9b71bb9d61087ecE', symObjAddr: 0x4F030, symBinAddr: 0x100043340, symSize: 0x280 }
  - { offset: 0x662F9, size: 0x8, addend: 0x0, symName: '__ZN62_$LT$std..io..error..ErrorKind$u20$as$u20$core..fmt..Debug$GT$3fmt17hd88fc964aff56ab8E', symObjAddr: 0x51C40, symBinAddr: 0x100043AC0, symSize: 0x30 }
  - { offset: 0x6638C, size: 0x8, addend: 0x0, symName: '__ZN3std2io8buffered9bufwriter18BufWriter$LT$W$GT$14write_all_cold17h4cf021826987ea15E', symObjAddr: 0xDCD0, symBinAddr: 0x100056C20, symSize: 0x120 }
  - { offset: 0x665CB, size: 0x8, addend: 0x0, symName: '__ZN3std2io8buffered9bufwriter18BufWriter$LT$W$GT$9flush_buf17h223037aba0b50117E', symObjAddr: 0xDDF0, symBinAddr: 0x100023CA0, symSize: 0x240 }
  - { offset: 0x66BF1, size: 0x8, addend: 0x0, symName: '__ZN56_$LT$std..io..Guard$u20$as$u20$core..ops..drop..Drop$GT$4drop17h87a3c6b4739eee36E', symObjAddr: 0x3C6E0, symBinAddr: 0x100037730, symSize: 0x20 }
  - { offset: 0x66C21, size: 0x8, addend: 0x0, symName: __ZN3std2io5Write18write_all_vectored17hc2fed901070b4d06E, symObjAddr: 0xC160, symBinAddr: 0x100022950, symSize: 0x1D0 }
  - { offset: 0x66E66, size: 0x8, addend: 0x0, symName: __ZN3std2io5Write9write_all17ha0278d11ab8e55b7E, symObjAddr: 0xC330, symBinAddr: 0x100022B20, symSize: 0xA0 }
  - { offset: 0x66F56, size: 0x8, addend: 0x0, symName: __ZN3std2io5Write9write_fmt17h0157f34dfbceefe5E, symObjAddr: 0xC3D0, symBinAddr: 0x100022BC0, symSize: 0x170 }
  - { offset: 0x67230, size: 0x8, addend: 0x0, symName: __ZN3std2io5Write9write_fmt17h24b62528f4d1168aE, symObjAddr: 0xC540, symBinAddr: 0x100022D30, symSize: 0x170 }
  - { offset: 0x6750A, size: 0x8, addend: 0x0, symName: __ZN3std2io5Write9write_fmt17h5e34a6300392fe22E, symObjAddr: 0xC6B0, symBinAddr: 0x100022EA0, symSize: 0x170 }
  - { offset: 0x6784F, size: 0x8, addend: 0x0, symName: __ZN3std2io5stdio22try_set_output_capture17hb613035c20b6d0f1E, symObjAddr: 0xD2C0, symBinAddr: 0x100023820, symSize: 0xB0 }
  - { offset: 0x67AE4, size: 0x8, addend: 0x0, symName: __ZN3std2io5stdio31print_to_buffer_if_capture_used17hde0c84d24b5006f1E, symObjAddr: 0xD440, symBinAddr: 0x1000238D0, symSize: 0x220 }
  - { offset: 0x681F6, size: 0x8, addend: 0x0, symName: __ZN3std2io5stdio6Stderr4lock17h9794f8e40f87e1fdE, symObjAddr: 0xD8C0, symBinAddr: 0x100023AF0, symSize: 0xC0 }
  - { offset: 0x684C5, size: 0x8, addend: 0x0, symName: __ZN3std2io5stdio6_print17he5f702afc7c35b8cE, symObjAddr: 0xD980, symBinAddr: 0x100023BB0, symSize: 0xF0 }
  - { offset: 0x6863A, size: 0x8, addend: 0x0, symName: '__ZN61_$LT$$RF$std..io..stdio..Stdout$u20$as$u20$std..io..Write$GT$9write_fmt17h0eee9ce97af14d23E', symObjAddr: 0x50590, symBinAddr: 0x1000435C0, symSize: 0x1C0 }
  - { offset: 0x68ABE, size: 0x8, addend: 0x0, symName: '__ZN61_$LT$std..io..stdio..StdoutLock$u20$as$u20$std..io..Write$GT$9write_all17h054337cb99b92b16E', symObjAddr: 0x51070, symBinAddr: 0x100043780, symSize: 0x260 }
  - { offset: 0x69140, size: 0x8, addend: 0x0, symName: '__ZN3std2io5impls74_$LT$impl$u20$std..io..Write$u20$for$u20$alloc..vec..Vec$LT$u8$C$A$GT$$GT$14write_vectored17h396066abfc006fcaE', symObjAddr: 0xCE00, symBinAddr: 0x100023430, symSize: 0x180 }
  - { offset: 0x69342, size: 0x8, addend: 0x0, symName: '__ZN3std2io5impls74_$LT$impl$u20$std..io..Write$u20$for$u20$alloc..vec..Vec$LT$u8$C$A$GT$$GT$17is_write_vectored17h473fffb9382bf9c6E', symObjAddr: 0xCF80, symBinAddr: 0x1000235B0, symSize: 0x10 }
  - { offset: 0x6936B, size: 0x8, addend: 0x0, symName: '__ZN3std2io5impls74_$LT$impl$u20$std..io..Write$u20$for$u20$alloc..vec..Vec$LT$u8$C$A$GT$$GT$18write_all_vectored17hcfe81a52ebadbc0bE', symObjAddr: 0xCF90, symBinAddr: 0x1000235C0, symSize: 0x170 }
  - { offset: 0x69396, size: 0x8, addend: 0x0, symName: '__ZN3std2io5impls74_$LT$impl$u20$std..io..Write$u20$for$u20$alloc..vec..Vec$LT$u8$C$A$GT$$GT$18write_all_vectored17hcfe81a52ebadbc0bE', symObjAddr: 0xCF90, symBinAddr: 0x1000235C0, symSize: 0x170 }
  - { offset: 0x693AB, size: 0x8, addend: 0x0, symName: '__ZN3std2io5impls74_$LT$impl$u20$std..io..Write$u20$for$u20$alloc..vec..Vec$LT$u8$C$A$GT$$GT$18write_all_vectored17hcfe81a52ebadbc0bE', symObjAddr: 0xCF90, symBinAddr: 0x1000235C0, symSize: 0x170 }
  - { offset: 0x693C0, size: 0x8, addend: 0x0, symName: '__ZN3std2io5impls74_$LT$impl$u20$std..io..Write$u20$for$u20$alloc..vec..Vec$LT$u8$C$A$GT$$GT$18write_all_vectored17hcfe81a52ebadbc0bE', symObjAddr: 0xCF90, symBinAddr: 0x1000235C0, symSize: 0x170 }
  - { offset: 0x693D4, size: 0x8, addend: 0x0, symName: '__ZN3std2io5impls74_$LT$impl$u20$std..io..Write$u20$for$u20$alloc..vec..Vec$LT$u8$C$A$GT$$GT$18write_all_vectored17hcfe81a52ebadbc0bE', symObjAddr: 0xCF90, symBinAddr: 0x1000235C0, symSize: 0x170 }
  - { offset: 0x693E8, size: 0x8, addend: 0x0, symName: '__ZN3std2io5impls74_$LT$impl$u20$std..io..Write$u20$for$u20$alloc..vec..Vec$LT$u8$C$A$GT$$GT$18write_all_vectored17hcfe81a52ebadbc0bE', symObjAddr: 0xCF90, symBinAddr: 0x1000235C0, symSize: 0x170 }
  - { offset: 0x695A2, size: 0x8, addend: 0x0, symName: '__ZN3std2io5impls74_$LT$impl$u20$std..io..Write$u20$for$u20$alloc..vec..Vec$LT$u8$C$A$GT$$GT$5flush17hc83d241489517b1fE', symObjAddr: 0xD100, symBinAddr: 0x100023730, symSize: 0x10 }
  - { offset: 0x695BD, size: 0x8, addend: 0x0, symName: '__ZN3std2io5impls74_$LT$impl$u20$std..io..Write$u20$for$u20$alloc..vec..Vec$LT$u8$C$A$GT$$GT$5write17h0e0da068fc5acedeE', symObjAddr: 0xD110, symBinAddr: 0x100023740, symSize: 0x70 }
  - { offset: 0x696A3, size: 0x8, addend: 0x0, symName: '__ZN3std2io5impls74_$LT$impl$u20$std..io..Write$u20$for$u20$alloc..vec..Vec$LT$u8$C$A$GT$$GT$9write_all17h7bccd6e9d3e19e7fE', symObjAddr: 0xD180, symBinAddr: 0x1000237B0, symSize: 0x70 }
  - { offset: 0x6989E, size: 0x8, addend: 0x0, symName: '__ZN81_$LT$std..io..default_write_fmt..Adapter$LT$T$GT$$u20$as$u20$core..fmt..Write$GT$9write_str17h1649a3991f2ea191E', symObjAddr: 0x57A70, symBinAddr: 0x100044750, symSize: 0xD0 }
  - { offset: 0x699AA, size: 0x8, addend: 0x0, symName: '__ZN81_$LT$std..io..default_write_fmt..Adapter$LT$T$GT$$u20$as$u20$core..fmt..Write$GT$9write_str17h65288afb60bc4b22E', symObjAddr: 0x57C60, symBinAddr: 0x100044820, symSize: 0x70 }
  - { offset: 0x69A97, size: 0x8, addend: 0x0, symName: '__ZN81_$LT$std..io..default_write_fmt..Adapter$LT$T$GT$$u20$as$u20$core..fmt..Write$GT$9write_str17h9ddd3fd8700ebc6eE', symObjAddr: 0x57CD0, symBinAddr: 0x100044890, symSize: 0x50 }
  - { offset: 0x69AC1, size: 0x8, addend: 0x0, symName: '__ZN81_$LT$std..io..default_write_fmt..Adapter$LT$T$GT$$u20$as$u20$core..fmt..Write$GT$9write_str17hf60e64c5a7fc0711E', symObjAddr: 0x57D20, symBinAddr: 0x1000448E0, symSize: 0xA0 }
  - { offset: 0x69D12, size: 0x8, addend: 0x0, symName: __ZN3std4path4Path13_strip_prefix17h57206cfe16291a76E, symObjAddr: 0x20BD0, symBinAddr: 0x1000280B0, symSize: 0x3C0 }
  - { offset: 0x69E22, size: 0x8, addend: 0x0, symName: __ZN3std4path4Path5_join17hf8c84868fde1d922E, symObjAddr: 0x21720, symBinAddr: 0x100028470, symSize: 0x190 }
  - { offset: 0x6A40F, size: 0x8, addend: 0x0, symName: __ZN3std4path4Path6is_dir17ha85723d377dee2d9E, symObjAddr: 0x218B0, symBinAddr: 0x100028600, symSize: 0x1E0 }
  - { offset: 0x6A852, size: 0x8, addend: 0x0, symName: __ZN3std4path4Path9file_name17h170baf94e8f0cf66E, symObjAddr: 0x21DA0, symBinAddr: 0x1000287E0, symSize: 0x60 }
  - { offset: 0x6A869, size: 0x8, addend: 0x0, symName: __ZN3std4path4Path9file_name17h170baf94e8f0cf66E, symObjAddr: 0x21DA0, symBinAddr: 0x1000287E0, symSize: 0x60 }
  - { offset: 0x6A87E, size: 0x8, addend: 0x0, symName: __ZN3std4path4Path9file_name17h170baf94e8f0cf66E, symObjAddr: 0x21DA0, symBinAddr: 0x1000287E0, symSize: 0x60 }
  - { offset: 0x6A9AB, size: 0x8, addend: 0x0, symName: __ZN3std4path10Components15len_before_body17hc0c9c8c5c44312a5E, symObjAddr: 0x1F920, symBinAddr: 0x100027A70, symSize: 0x170 }
  - { offset: 0x6A9C2, size: 0x8, addend: 0x0, symName: __ZN3std4path10Components15len_before_body17hc0c9c8c5c44312a5E, symObjAddr: 0x1F920, symBinAddr: 0x100027A70, symSize: 0x170 }
  - { offset: 0x6A9D7, size: 0x8, addend: 0x0, symName: __ZN3std4path10Components15len_before_body17hc0c9c8c5c44312a5E, symObjAddr: 0x1F920, symBinAddr: 0x100027A70, symSize: 0x170 }
  - { offset: 0x6ABAF, size: 0x8, addend: 0x0, symName: __ZN3std4path10Components25parse_next_component_back17h39a0247b7cda8e0bE, symObjAddr: 0x1FA90, symBinAddr: 0x100027BE0, symSize: 0xF0 }
  - { offset: 0x6AD4E, size: 0x8, addend: 0x0, symName: __ZN3std4path10Components7as_path17h069c6a5a65b7ff44E, symObjAddr: 0x1FB80, symBinAddr: 0x100027CD0, symSize: 0x3E0 }
  - { offset: 0x6B08B, size: 0x8, addend: 0x0, symName: __ZN3std4path7PathBuf5_push17hf777a1c0eafe318fE, symObjAddr: 0x22800, symBinAddr: 0x100028840, symSize: 0xE0 }
  - { offset: 0x6B43E, size: 0x8, addend: 0x0, symName: '__ZN57_$LT$std..path..Display$u20$as$u20$core..fmt..Display$GT$3fmt17h4b31f13031a7fa47E', symObjAddr: 0x3CD90, symBinAddr: 0x100037750, symSize: 0x10 }
  - { offset: 0x6B518, size: 0x8, addend: 0x0, symName: '__ZN61_$LT$std..path..Component$u20$as$u20$core..cmp..PartialEq$GT$2eq17h491fa3e2db060d13E', symObjAddr: 0x512F0, symBinAddr: 0x1000439E0, symSize: 0xE0 }
  - { offset: 0x6B5D2, size: 0x8, addend: 0x0, symName: '__ZN80_$LT$std..path..Components$u20$as$u20$core..iter..traits..iterator..Iterator$GT$4next17hee0b9dd08b602416E', symObjAddr: 0x57330, symBinAddr: 0x100044340, symSize: 0x410 }
  - { offset: 0x6B973, size: 0x8, addend: 0x0, symName: '__ZN95_$LT$std..path..Components$u20$as$u20$core..iter..traits..double_ended..DoubleEndedIterator$GT$9next_back17h714e7cb7d2d85f84E', symObjAddr: 0x59CE0, symBinAddr: 0x100044DD0, symSize: 0x420 }
  - { offset: 0x6BB7F, size: 0x8, addend: 0x0, symName: __ZN3std7process5abort17h0d4477327f66e8fbE, symObjAddr: 0x25400, symBinAddr: 0x1000578B0, symSize: 0x10 }
  - { offset: 0x6BBAA, size: 0x8, addend: 0x0, symName: '__ZN118_$LT$std..thread..thread_name_string..ThreadNameString$u20$as$u20$core..convert..From$LT$alloc..string..String$GT$$GT$4from17h61e83cd51d9b6e6aE', symObjAddr: 0x10C0, symBinAddr: 0x10001A150, symSize: 0x100 }
  - { offset: 0x6BE3C, size: 0x8, addend: 0x0, symName: __ZN3std6thread5local18panic_access_error17h1e9c6bd8f0d440e3E, symObjAddr: 0x24040, symBinAddr: 0x1000576A0, symSize: 0x60 }
  - { offset: 0x6BE71, size: 0x8, addend: 0x0, symName: '__ZN68_$LT$std..thread..local..AccessError$u20$as$u20$core..fmt..Debug$GT$3fmt17h19d84e0a8b904c5cE', symObjAddr: 0x53E10, symBinAddr: 0x100043DA0, symSize: 0x30 }
  - { offset: 0x6BFB2, size: 0x8, addend: 0x0, symName: __ZN3std6thread7current12init_current17h90dce586534f49cdE, symObjAddr: 0x245B0, symBinAddr: 0x100057700, symSize: 0x160 }
  - { offset: 0x6C2CA, size: 0x8, addend: 0x0, symName: __ZN3std6thread7current13current_os_id17h7dd262076b74b984E, symObjAddr: 0x24710, symBinAddr: 0x100029060, symSize: 0x80 }
  - { offset: 0x6C4DD, size: 0x8, addend: 0x0, symName: __ZN3std6thread6Thread3new17haba3f9a731f34843E, symObjAddr: 0x241F0, symBinAddr: 0x100028F20, symSize: 0x140 }
  - { offset: 0x6C824, size: 0x8, addend: 0x0, symName: __ZN3std6thread8ThreadId3new9exhausted17h406b0b054c541c40E, symObjAddr: 0x248A0, symBinAddr: 0x100057860, symSize: 0x50 }
  - { offset: 0x6C8A4, size: 0x8, addend: 0x0, symName: __ZN3std12backtrace_rs5print17BacktraceFrameFmt21print_raw_with_column17h124737e9f41c54b0E, symObjAddr: 0x12B0, symBinAddr: 0x10001A2B0, symSize: 0x560 }
  - { offset: 0x6CA9A, size: 0x8, addend: 0x0, symName: __ZN3std12backtrace_rs9backtrace9libunwind5trace8trace_fn17hc5d3caa7e26e2d87E, symObjAddr: 0x1810, symBinAddr: 0x10001A810, symSize: 0x50 }
  - { offset: 0x6CB55, size: 0x8, addend: 0x0, symName: __ZN3std12backtrace_rs9symbolize5gimli4mmap17h12ebabe808a68383E, symObjAddr: 0x1860, symBinAddr: 0x10001A860, symSize: 0x210 }
  - { offset: 0x6D042, size: 0x8, addend: 0x0, symName: __ZN3std12backtrace_rs9symbolize5gimli5macho11find_header17hde9f2a87e444cec9E, symObjAddr: 0x1A70, symBinAddr: 0x10001AA70, symSize: 0x190 }
  - { offset: 0x6D720, size: 0x8, addend: 0x0, symName: __ZN3std12backtrace_rs9symbolize5gimli5macho6Object5parse17h400ac0874d941337E, symObjAddr: 0x1C00, symBinAddr: 0x10001AC00, symSize: 0x1040 }
  - { offset: 0x6F647, size: 0x8, addend: 0x0, symName: __ZN3std12backtrace_rs9symbolize5gimli5macho6Object7section17hf53b9a42818e2c3dE, symObjAddr: 0x2C40, symBinAddr: 0x10001BC40, symSize: 0x180 }
  - { offset: 0x6FA81, size: 0x8, addend: 0x0, symName: __ZN3std12backtrace_rs9symbolize5gimli7Context11find_frames17h15418eb91b7e6263E, symObjAddr: 0x2DC0, symBinAddr: 0x10001BDC0, symSize: 0x3D0 }
  - { offset: 0x6FE61, size: 0x8, addend: 0x0, symName: __ZN3std12backtrace_rs9symbolize5gimli7Context3new17hb329d27e4d696e6aE, symObjAddr: 0x3190, symBinAddr: 0x10001C190, symSize: 0x3050 }
  - { offset: 0x73FBF, size: 0x8, addend: 0x0, symName: __ZN3std12backtrace_rs9symbolize5gimli7resolve17h34165e1bf34eef53E, symObjAddr: 0x61E0, symBinAddr: 0x10001F1E0, symSize: 0x3560 }
  - { offset: 0x7A04B, size: 0x8, addend: 0x0, symName: __ZN3std12backtrace_rs9symbolize6Symbol4name17hd612854ad8f0ffd0E, symObjAddr: 0x9780, symBinAddr: 0x100022740, symSize: 0x110 }
  - { offset: 0x7A184, size: 0x8, addend: 0x0, symName: '__ZN79_$LT$std..backtrace_rs..symbolize..SymbolName$u20$as$u20$core..fmt..Display$GT$3fmt17hdc33297e1ed74ca2E', symObjAddr: 0x56AE0, symBinAddr: 0x100044260, symSize: 0xE0 }
  - { offset: 0x7A28E, size: 0x8, addend: 0x0, symName: __ZN3std2fs11OpenOptions5_open17hf30a08b257e0657bE, symObjAddr: 0x9EE0, symBinAddr: 0x100022850, symSize: 0xD0 }
  - { offset: 0x7A391, size: 0x8, addend: 0x0, symName: '__ZN75_$LT$std..fs..ReadDir$u20$as$u20$core..iter..traits..iterator..Iterator$GT$4next17ha20dfd7fbb148525E', symObjAddr: 0x55030, symBinAddr: 0x1000441D0, symSize: 0x90 }
  - { offset: 0x7A3FA, size: 0x8, addend: 0x0, symName: __ZN3std2fs8DirEntry4path17h56d7589be75598f9E, symObjAddr: 0xAD90, symBinAddr: 0x100022920, symSize: 0x30 }
  - { offset: 0x7A5BF, size: 0x8, addend: 0x0, symName: '__ZN48_$LT$std..fs..File$u20$as$u20$std..io..Write$GT$5write17h6aa997d699243505E', symObjAddr: 0x28450, symBinAddr: 0x100029FF0, symSize: 0x50 }
  - { offset: 0x7A6F7, size: 0x8, addend: 0x0, symName: '__ZN47_$LT$std..fs..File$u20$as$u20$std..io..Read$GT$8read_buf17h775342cd8cd62617E', symObjAddr: 0x282E0, symBinAddr: 0x100029F80, symSize: 0x70 }
  - { offset: 0x7AAA7, size: 0x8, addend: 0x0, symName: '__ZN64_$LT$std..ffi..os_str..Display$u20$as$u20$core..fmt..Display$GT$3fmt17hc3b4edbdc1de5d2aE', symObjAddr: 0x52BC0, symBinAddr: 0x100043B40, symSize: 0xD0 }
  - { offset: 0x7AB2C, size: 0x8, addend: 0x0, symName: '__ZN3std4sync6poison5mutex14Mutex$LT$T$GT$4lock17hc2ce4f843db9b8deE', symObjAddr: 0x23070, symBinAddr: 0x100028C80, symSize: 0x70 }
  - { offset: 0x7AD8B, size: 0x8, addend: 0x0, symName: '__ZN3std4sync6poison4once4Once15call_once_force28_$u7b$$u7b$closure$u7d$$u7d$17h3fd27ef06f442f06E', symObjAddr: 0x22AF0, symBinAddr: 0x100028920, symSize: 0x90 }
  - { offset: 0x7AE42, size: 0x8, addend: 0x0, symName: '__ZN3std4sync6poison4once4Once15call_once_force28_$u7b$$u7b$closure$u7d$$u7d$17hcef2943343630694E', symObjAddr: 0x22D80, symBinAddr: 0x1000289B0, symSize: 0x90 }
  - { offset: 0x7AF9F, size: 0x8, addend: 0x0, symName: '__ZN3std4sync6poison4once4Once9call_once28_$u7b$$u7b$closure$u7d$$u7d$17h5c617ced4614c08fE', symObjAddr: 0x22E30, symBinAddr: 0x100028A40, symSize: 0x240 }
  - { offset: 0x7B742, size: 0x8, addend: 0x0, symName: '__ZN3std4sync9once_lock17OnceLock$LT$T$GT$10initialize17h9ad90c5bfd166a66E', symObjAddr: 0x23793, symBinAddr: 0x1000575C3, symSize: 0x59 }
  - { offset: 0x7B76D, size: 0x8, addend: 0x0, symName: '__ZN3std4sync9once_lock17OnceLock$LT$T$GT$10initialize17h9ad90c5bfd166a66E', symObjAddr: 0x23793, symBinAddr: 0x1000575C3, symSize: 0x59 }
  - { offset: 0x7B781, size: 0x8, addend: 0x0, symName: '__ZN3std4sync9once_lock17OnceLock$LT$T$GT$10initialize17h9ad90c5bfd166a66E', symObjAddr: 0x23793, symBinAddr: 0x1000575C3, symSize: 0x59 }
  - { offset: 0x7B795, size: 0x8, addend: 0x0, symName: '__ZN3std4sync9once_lock17OnceLock$LT$T$GT$10initialize17h9ad90c5bfd166a66E', symObjAddr: 0x23793, symBinAddr: 0x1000575C3, symSize: 0x59 }
  - { offset: 0x7B7AB, size: 0x8, addend: 0x0, symName: '__ZN3std4sync9once_lock17OnceLock$LT$T$GT$10initialize17hdc61a2003d8acd11E', symObjAddr: 0x23841, symBinAddr: 0x100057621, symSize: 0x5F }
  - { offset: 0x7B7D6, size: 0x8, addend: 0x0, symName: '__ZN3std4sync9once_lock17OnceLock$LT$T$GT$10initialize17hdc61a2003d8acd11E', symObjAddr: 0x23841, symBinAddr: 0x100057621, symSize: 0x5F }
  - { offset: 0x7B7EA, size: 0x8, addend: 0x0, symName: '__ZN3std4sync9once_lock17OnceLock$LT$T$GT$10initialize17hdc61a2003d8acd11E', symObjAddr: 0x23841, symBinAddr: 0x100057621, symSize: 0x5F }
  - { offset: 0x7B7FE, size: 0x8, addend: 0x0, symName: '__ZN3std4sync9once_lock17OnceLock$LT$T$GT$10initialize17hdc61a2003d8acd11E', symObjAddr: 0x23841, symBinAddr: 0x100057621, symSize: 0x5F }
  - { offset: 0x7B972, size: 0x8, addend: 0x0, symName: __ZN3std5panic19get_backtrace_style17h4c7362303865842eE, symObjAddr: 0x23C60, symBinAddr: 0x100028E50, symSize: 0xD0 }
  - { offset: 0x7B990, size: 0x8, addend: 0x0, symName: __ZN3std5panic19get_backtrace_style17h4c7362303865842eE, symObjAddr: 0x23C60, symBinAddr: 0x100028E50, symSize: 0xD0 }
  - { offset: 0x7B9A5, size: 0x8, addend: 0x0, symName: __ZN3std5panic19get_backtrace_style17h4c7362303865842eE, symObjAddr: 0x23C60, symBinAddr: 0x100028E50, symSize: 0xD0 }
  - { offset: 0x7BC12, size: 0x8, addend: 0x0, symName: __ZN3std3env11current_dir17h09876c9b4b89060dE, symObjAddr: 0xF800, symBinAddr: 0x1000245A0, symSize: 0x1C0 }
  - { offset: 0x7C04F, size: 0x8, addend: 0x0, symName: __ZN3std3env4_var17h75d65b34efbdced7E, symObjAddr: 0xFAA0, symBinAddr: 0x100024760, symSize: 0xA0 }
  - { offset: 0x7C14B, size: 0x8, addend: 0x0, symName: __ZN3std3env7_var_os17ha90d6152c34619e1E, symObjAddr: 0xFB80, symBinAddr: 0x100024800, symSize: 0x170 }
  - { offset: 0x7C789, size: 0x8, addend: 0x0, symName: __ZN5alloc5alloc15exchange_malloc17hdc54b6ad35f557b1E, symObjAddr: 0x452D0, symBinAddr: 0x100039B70, symSize: 0x40 }
  - { offset: 0x7D751, size: 0x8, addend: 0x0, symName: '__ZN64_$LT$alloc..ffi..c_str..NulError$u20$as$u20$core..fmt..Debug$GT$3fmt17h42a8844572b8105bE', symObjAddr: 0x524F0, symBinAddr: 0x100043AF0, symSize: 0x50 }
  - { offset: 0x7E0D3, size: 0x8, addend: 0x0, symName: '__ZN5alloc11collections5btree4node208Handle$LT$alloc..collections..btree..node..NodeRef$LT$alloc..collections..btree..node..marker..Mut$C$K$C$V$C$alloc..collections..btree..node..marker..Leaf$GT$$C$alloc..collections..btree..node..marker..KV$GT$5split17h2e0ddf5cd10d99d6E', symObjAddr: 0x40F70, symBinAddr: 0x1000380A0, symSize: 0x1C0 }
  - { offset: 0x7E4AF, size: 0x8, addend: 0x0, symName: '__ZN5alloc11collections5btree4node212Handle$LT$alloc..collections..btree..node..NodeRef$LT$alloc..collections..btree..node..marker..Mut$C$K$C$V$C$alloc..collections..btree..node..marker..Internal$GT$$C$alloc..collections..btree..node..marker..KV$GT$5split17h17c643d4c82620a0E', symObjAddr: 0x41820, symBinAddr: 0x100038260, symSize: 0x280 }
  - { offset: 0x7EA31, size: 0x8, addend: 0x0, symName: '__ZN5alloc11collections5btree6remove259_$LT$impl$u20$alloc..collections..btree..node..Handle$LT$alloc..collections..btree..node..NodeRef$LT$alloc..collections..btree..node..marker..Mut$C$K$C$V$C$alloc..collections..btree..node..marker..Leaf$GT$$C$alloc..collections..btree..node..marker..KV$GT$$GT$14remove_leaf_kv17h2a34ebe0da4333d8E', symObjAddr: 0x434D0, symBinAddr: 0x100038FE0, symSize: 0x8C0 }
  - { offset: 0x7F7A6, size: 0x8, addend: 0x0, symName: '__ZN5alloc11collections5btree4node29BalancingContext$LT$K$C$V$GT$15bulk_steal_left17h66a91518f6da12fdE', symObjAddr: 0x42190, symBinAddr: 0x1000384E0, symSize: 0x370 }
  - { offset: 0x7FC8A, size: 0x8, addend: 0x0, symName: '__ZN5alloc11collections5btree4node29BalancingContext$LT$K$C$V$GT$16bulk_steal_right17h4e21d715a5e05da5E', symObjAddr: 0x42500, symBinAddr: 0x100038850, symSize: 0x3C0 }
  - { offset: 0x802A4, size: 0x8, addend: 0x0, symName: '__ZN5alloc11collections5btree4node29BalancingContext$LT$K$C$V$GT$8do_merge17h59e33ac8b4f1aedbE', symObjAddr: 0x43100, symBinAddr: 0x100038C10, symSize: 0x3D0 }
  - { offset: 0x80AB8, size: 0x8, addend: 0x0, symName: '__ZN5alloc11collections5btree3map25IntoIter$LT$K$C$V$C$A$GT$10dying_next17h0137cfdaf279346fE', symObjAddr: 0x40430, symBinAddr: 0x100037920, symSize: 0x3C0 }
  - { offset: 0x80E24, size: 0x8, addend: 0x0, symName: '__ZN5alloc11collections5btree3map25IntoIter$LT$K$C$V$C$A$GT$10dying_next17h74ba4dc90cd3bd84E', symObjAddr: 0x407F0, symBinAddr: 0x100037CE0, symSize: 0x3C0 }
  - { offset: 0x81BF9, size: 0x8, addend: 0x0, symName: '__ZN5alloc7raw_vec19RawVec$LT$T$C$A$GT$8grow_one17h1578391f1dd2c7daE', symObjAddr: 0x45380, symBinAddr: 0x100039BB0, symSize: 0xC0 }
  - { offset: 0x81D0F, size: 0x8, addend: 0x0, symName: '__ZN5alloc7raw_vec19RawVec$LT$T$C$A$GT$8grow_one17h1a8e605a6c9c7a9cE', symObjAddr: 0x45440, symBinAddr: 0x100039C70, symSize: 0xC0 }
  - { offset: 0x81E3A, size: 0x8, addend: 0x0, symName: '__ZN5alloc7raw_vec19RawVec$LT$T$C$A$GT$8grow_one17h496d6c99f941dcd8E', symObjAddr: 0x45500, symBinAddr: 0x100039D30, symSize: 0xB0 }
  - { offset: 0x81F50, size: 0x8, addend: 0x0, symName: '__ZN5alloc7raw_vec19RawVec$LT$T$C$A$GT$8grow_one17h62d92001f5fd4088E', symObjAddr: 0x455B0, symBinAddr: 0x100039DE0, symSize: 0xC0 }
  - { offset: 0x82066, size: 0x8, addend: 0x0, symName: '__ZN5alloc7raw_vec19RawVec$LT$T$C$A$GT$8grow_one17h882f0afd17fb4cf1E', symObjAddr: 0x45670, symBinAddr: 0x100039EA0, symSize: 0xC0 }
  - { offset: 0x82191, size: 0x8, addend: 0x0, symName: '__ZN5alloc7raw_vec19RawVec$LT$T$C$A$GT$8grow_one17h9215a3a3eddacbe8E', symObjAddr: 0x45730, symBinAddr: 0x100039F60, symSize: 0xC0 }
  - { offset: 0x822A7, size: 0x8, addend: 0x0, symName: '__ZN5alloc7raw_vec19RawVec$LT$T$C$A$GT$8grow_one17h944deff35e2917e9E', symObjAddr: 0x457F0, symBinAddr: 0x10003A020, symSize: 0xC0 }
  - { offset: 0x823D2, size: 0x8, addend: 0x0, symName: '__ZN5alloc7raw_vec19RawVec$LT$T$C$A$GT$8grow_one17h9e141b6ec2b6b304E', symObjAddr: 0x458B0, symBinAddr: 0x10003A0E0, symSize: 0xB0 }
  - { offset: 0x824E8, size: 0x8, addend: 0x0, symName: '__ZN5alloc7raw_vec19RawVec$LT$T$C$A$GT$8grow_one17haba969b9d90e429dE', symObjAddr: 0x45960, symBinAddr: 0x10003A190, symSize: 0xC0 }
  - { offset: 0x82613, size: 0x8, addend: 0x0, symName: '__ZN5alloc7raw_vec19RawVec$LT$T$C$A$GT$8grow_one17hea102eabff85231dE', symObjAddr: 0x45AD0, symBinAddr: 0x10003A250, symSize: 0xB0 }
  - { offset: 0x82729, size: 0x8, addend: 0x0, symName: '__ZN5alloc7raw_vec19RawVec$LT$T$C$A$GT$8grow_one17hf1b3041c36e8ca25E', symObjAddr: 0x45B80, symBinAddr: 0x10003A300, symSize: 0xB0 }
  - { offset: 0x82A83, size: 0x8, addend: 0x0, symName: __ZN5alloc7raw_vec11finish_grow17h446b951c64c58a29E, symObjAddr: 0x45310, symBinAddr: 0x10005B9C0, symSize: 0x70 }
  - { offset: 0x82B0F, size: 0x8, addend: 0x0, symName: '__ZN5alloc7raw_vec20RawVecInner$LT$A$GT$7reserve21do_reserve_and_handle17ha31d691a92aa6984E', symObjAddr: 0x45C30, symBinAddr: 0x10005BA30, symSize: 0xE0 }
  - { offset: 0x82DC7, size: 0x8, addend: 0x0, symName: '__ZN58_$LT$alloc..string..String$u20$as$u20$core..fmt..Debug$GT$3fmt17hc75db25d6de527ebE', symObjAddr: 0x3CEA0, symBinAddr: 0x100037760, symSize: 0x20 }
  - { offset: 0x82E82, size: 0x8, addend: 0x0, symName: '__ZN58_$LT$alloc..string..String$u20$as$u20$core..fmt..Write$GT$10write_char17hba3be11e36d4a54fE', symObjAddr: 0x3CEC0, symBinAddr: 0x100037780, symSize: 0x120 }
  - { offset: 0x83008, size: 0x8, addend: 0x0, symName: '__ZN58_$LT$alloc..string..String$u20$as$u20$core..fmt..Write$GT$9write_str17h0e3a6c0844845614E', symObjAddr: 0x3CFE0, symBinAddr: 0x1000378A0, symSize: 0x70 }
  - { offset: 0x83102, size: 0x8, addend: 0x0, symName: '__ZN60_$LT$alloc..string..String$u20$as$u20$core..fmt..Display$GT$3fmt17h3ce6768c6f20d89dE', symObjAddr: 0x4EC80, symBinAddr: 0x100043320, symSize: 0x20 }
  - { offset: 0x83583, size: 0x8, addend: 0x0, symName: '__ZN5alloc4sync16Arc$LT$T$C$A$GT$9drop_slow17h165e22aa5ecb5c14E', symObjAddr: 0x44F90, symBinAddr: 0x1000398A0, symSize: 0x90 }
  - { offset: 0x8387F, size: 0x8, addend: 0x0, symName: '__ZN5alloc4sync16Arc$LT$T$C$A$GT$9drop_slow17h1b88c69b37654d90E', symObjAddr: 0x45020, symBinAddr: 0x100039930, symSize: 0xA0 }
  - { offset: 0x83A88, size: 0x8, addend: 0x0, symName: '__ZN5alloc4sync16Arc$LT$T$C$A$GT$9drop_slow17h38a2709360a70488E', symObjAddr: 0x450C0, symBinAddr: 0x1000399D0, symSize: 0x60 }
  - { offset: 0x83C50, size: 0x8, addend: 0x0, symName: '__ZN5alloc4sync16Arc$LT$T$C$A$GT$9drop_slow17h4fe547a59c8e5f5cE', symObjAddr: 0x45120, symBinAddr: 0x100039A30, symSize: 0x30 }
  - { offset: 0x83D31, size: 0x8, addend: 0x0, symName: '__ZN5alloc4sync16Arc$LT$T$C$A$GT$9drop_slow17h5dbc3385cf3806bdE', symObjAddr: 0x45150, symBinAddr: 0x100039A60, symSize: 0x70 }
  - { offset: 0x83ED7, size: 0x8, addend: 0x0, symName: '__ZN5alloc4sync16Arc$LT$T$C$A$GT$9drop_slow17h6f3c55e925f13c23E', symObjAddr: 0x451C0, symBinAddr: 0x100039AD0, symSize: 0xA0 }
  - { offset: 0x84AC5, size: 0x8, addend: 0x0, symName: __ZN6object4read7archive13ArchiveMember5parse17hd3e51da29e5488c1E, symObjAddr: 0x53F80, symBinAddr: 0x100043DD0, symSize: 0x350 }
  - { offset: 0x8521C, size: 0x8, addend: 0x0, symName: __ZN6object4read7archive23parse_bsd_extended_name17h1aeb333c92faa5e9E, symObjAddr: 0x542D0, symBinAddr: 0x100044120, symSize: 0xB0 }
  - { offset: 0x85630, size: 0x8, addend: 0x0, symName: '__ZN9addr2line4unit16ResUnit$LT$R$GT$25find_function_or_location28_$u7b$$u7b$closure$u7d$$u7d$17h74f8b46b09233272E', symObjAddr: 0x5B2C0, symBinAddr: 0x1000461C0, symSize: 0x2F0 }
  - { offset: 0x859D6, size: 0x8, addend: 0x0, symName: '__ZN9addr2line4unit16ResUnit$LT$R$GT$25find_function_or_location17h779b8cc8975ca827E', symObjAddr: 0x5AE20, symBinAddr: 0x100045D20, symSize: 0x4A0 }
  - { offset: 0x85F01, size: 0x8, addend: 0x0, symName: '__ZN9addr2line16Context$LT$R$GT$9find_unit17hafe5c4000e4dcc90E', symObjAddr: 0x5A630, symBinAddr: 0x100045530, symSize: 0x150 }
  - { offset: 0x860E6, size: 0x8, addend: 0x0, symName: '__ZN9addr2line6lookup30LoopingLookup$LT$T$C$L$C$F$GT$10new_lookup17hcb3afea57a5db3abE', symObjAddr: 0x5B900, symBinAddr: 0x100046800, symSize: 0x530 }
  - { offset: 0x8660E, size: 0x8, addend: 0x0, symName: __ZN9addr2line4line11render_file17h1c7a4084725a11a9E, symObjAddr: 0x5A780, symBinAddr: 0x100045680, symSize: 0x6A0 }
  - { offset: 0x86FA4, size: 0x8, addend: 0x0, symName: '__ZN9addr2line8function17Function$LT$R$GT$14parse_children17h1b46ddfba7fb182cE', symObjAddr: 0x5C240, symBinAddr: 0x100047140, symSize: 0x1390 }
  - { offset: 0x885C0, size: 0x8, addend: 0x0, symName: __ZN9addr2line8function10name_entry17h5deb9017d935ead1E, symObjAddr: 0x5BE30, symBinAddr: 0x100046D30, symSize: 0x410 }
  - { offset: 0x88A1C, size: 0x8, addend: 0x0, symName: __ZN9addr2line8function9name_attr17hc5ba8693362fa215E, symObjAddr: 0x5D5D0, symBinAddr: 0x1000484D0, symSize: 0x1B0 }
  - { offset: 0x88C41, size: 0x8, addend: 0x0, symName: '__ZN9addr2line5frame18FrameIter$LT$R$GT$4next17h7dae5ed4e94f9885E', symObjAddr: 0x5B5B0, symBinAddr: 0x1000464B0, symSize: 0x350 }
  - { offset: 0x894F4, size: 0x8, addend: 0x0, symName: '__ZN5gimli4read5dwarf14Dwarf$LT$R$GT$11attr_string17hc5d4d70dcc99f435E', symObjAddr: 0x4CCF0, symBinAddr: 0x100041390, symSize: 0x210 }
  - { offset: 0x89D11, size: 0x8, addend: 0x0, symName: '__ZN5gimli4read5dwarf13Unit$LT$R$GT$3new17h575ffe3f9752d03fE', symObjAddr: 0x4A4A0, symBinAddr: 0x10003EB40, symSize: 0x2850 }
  - { offset: 0x8D28C, size: 0x8, addend: 0x0, symName: '__ZN5gimli4read7aranges30ArangeHeader$LT$R$C$Offset$GT$5parse17h9e159263f6fe8401E', symObjAddr: 0x4DA20, symBinAddr: 0x1000420C0, symSize: 0x2A0 }
  - { offset: 0x8DD8F, size: 0x8, addend: 0x0, symName: '__ZN5gimli4read4unit18Attribute$LT$R$GT$5value17h523c462abedaae9bE', symObjAddr: 0x492D0, symBinAddr: 0x10003D970, symSize: 0x7C0 }
  - { offset: 0x8E19A, size: 0x8, addend: 0x0, symName: '__ZN90_$LT$gimli..read..unit..AttributeValue$LT$R$C$Offset$GT$$u20$as$u20$core..clone..Clone$GT$5clone17h098c211905b07158E', symObjAddr: 0x590A0, symBinAddr: 0x100044C40, symSize: 0x120 }
  - { offset: 0x8E1FA, size: 0x8, addend: 0x0, symName: '__ZN5gimli4read4unit32AttributeValue$LT$R$C$Offset$GT$11udata_value17h684c5d824dd1bde2E', symObjAddr: 0x49DC0, symBinAddr: 0x10003E460, symSize: 0x80 }
  - { offset: 0x8E255, size: 0x8, addend: 0x0, symName: __ZN5gimli4read4unit15parse_attribute17h3d2d3a95c0efe23eE, symObjAddr: 0x47250, symBinAddr: 0x10003B8F0, symSize: 0x1960 }
  - { offset: 0x915F0, size: 0x8, addend: 0x0, symName: __ZN5gimli4read4unit15skip_attributes17h92846bd14a53eed5E, symObjAddr: 0x48BB0, symBinAddr: 0x10003D250, symSize: 0x720 }
  - { offset: 0x91FBE, size: 0x8, addend: 0x0, symName: '__ZN5gimli4read4unit22EntriesCursor$LT$R$GT$10next_entry17hd847dc3188d94e5bE', symObjAddr: 0x49A90, symBinAddr: 0x10003E130, symSize: 0x330 }
  - { offset: 0x92505, size: 0x8, addend: 0x0, symName: '__ZN5gimli4read4unit33DebugInfoUnitHeadersIter$LT$R$GT$4next17hed0a8460df0391bfE', symObjAddr: 0x49E40, symBinAddr: 0x10003E4E0, symSize: 0x660 }
  - { offset: 0x936E2, size: 0x8, addend: 0x0, symName: __ZN5gimli4read6reader6Reader11read_offset17h5a1a189216526f37E, symObjAddr: 0x4D790, symBinAddr: 0x100041E30, symSize: 0xB0 }
  - { offset: 0x9391F, size: 0x8, addend: 0x0, symName: __ZN5gimli4read6reader6Reader12read_uleb12817hf97552d5eed3df2dE, symObjAddr: 0x4D840, symBinAddr: 0x100041EE0, symSize: 0xB0 }
  - { offset: 0x939CD, size: 0x8, addend: 0x0, symName: __ZN5gimli4read6reader6Reader17read_sized_offset17h97b79870f9951699E, symObjAddr: 0x4D8F0, symBinAddr: 0x100041F90, symSize: 0x130 }
  - { offset: 0x9409D, size: 0x8, addend: 0x0, symName: '__ZN5gimli4read8rnglists20RngListIter$LT$R$GT$4next17h8b60fae141bf2d6cE', symObjAddr: 0x4DCC0, symBinAddr: 0x100042360, symSize: 0xFC0 }
  - { offset: 0x96765, size: 0x8, addend: 0x0, symName: '__ZN5gimli4read5index18UnitIndex$LT$R$GT$5parse17h95a74f9af645c1edE', symObjAddr: 0x4CF00, symBinAddr: 0x1000415A0, symSize: 0x890 }
  - { offset: 0x96782, size: 0x8, addend: 0x0, symName: '__ZN5gimli4read5index18UnitIndex$LT$R$GT$5parse17h95a74f9af645c1edE', symObjAddr: 0x4CF00, symBinAddr: 0x1000415A0, symSize: 0x890 }
  - { offset: 0x96796, size: 0x8, addend: 0x0, symName: '__ZN5gimli4read5index18UnitIndex$LT$R$GT$5parse17h95a74f9af645c1edE', symObjAddr: 0x4CF00, symBinAddr: 0x1000415A0, symSize: 0x890 }
  - { offset: 0x96E5B, size: 0x8, addend: 0x0, symName: '__ZN5gimli4read4line27FileEntry$LT$R$C$Offset$GT$5parse17hd9bc2270faf33decE', symObjAddr: 0x46FF0, symBinAddr: 0x10003B690, symSize: 0x260 }
  - { offset: 0x970A7, size: 0x8, addend: 0x0, symName: __ZN5gimli4read4line13parse_file_v517hd02b9988ac8f9c5bE, symObjAddr: 0x45D10, symBinAddr: 0x10003A3B0, symSize: 0x350 }
  - { offset: 0x97220, size: 0x8, addend: 0x0, symName: __ZN5gimli4read4line15FileEntryFormat5parse17h2a60ff0d29a79605E, symObjAddr: 0x46060, symBinAddr: 0x10003A700, symSize: 0x3B0 }
  - { offset: 0x979BA, size: 0x8, addend: 0x0, symName: __ZN5gimli4read4line15parse_attribute17h7d59469e6c7378d7E, symObjAddr: 0x46410, symBinAddr: 0x10003AAB0, symSize: 0xAD0 }
  - { offset: 0x993BF, size: 0x8, addend: 0x0, symName: __ZN5gimli4read4line18parse_directory_v517hb56c57b85d13b5daE, symObjAddr: 0x46EE0, symBinAddr: 0x10003B580, symSize: 0x110 }
  - { offset: 0x99673, size: 0x8, addend: 0x0, symName: __RNvCskdKJRKLKjqM_7___rustc18___rust_start_panic, symObjAddr: 0x0, symBinAddr: 0x100048CC0, symSize: 0xB0 }
  - { offset: 0x9974E, size: 0x8, addend: 0x0, symName: __ZN12panic_unwind3imp5panic17exception_cleanup17hb98a4cfa7a07ae95E, symObjAddr: 0x100, symBinAddr: 0x100048DC0, symSize: 0x20 }
  - { offset: 0x9976A, size: 0x8, addend: 0x0, symName: __RNvCskdKJRKLKjqM_7___rustc18___rust_start_panic, symObjAddr: 0x0, symBinAddr: 0x100048CC0, symSize: 0xB0 }
  - { offset: 0x997F4, size: 0x8, addend: 0x0, symName: __RNvCskdKJRKLKjqM_7___rustc20___rust_panic_cleanup, symObjAddr: 0xB0, symBinAddr: 0x100048D70, symSize: 0x50 }
  - { offset: 0x99897, size: 0x8, addend: 0x0, symName: '__ZN4core3ptr49drop_in_place$LT$panic_unwind..imp..Exception$GT$17h0f7b2fc4f2fea7f1E', symObjAddr: 0x120, symBinAddr: 0x100048DE0, symSize: 0x70 }
  - { offset: 0x9999E, size: 0x8, addend: 0x0, symName: '__ZN4core3ptr74drop_in_place$LT$alloc..boxed..Box$LT$panic_unwind..imp..Exception$GT$$GT$17hcd43110ac76b9736E', symObjAddr: 0x190, symBinAddr: 0x100048E50, symSize: 0x89 }
  - { offset: 0x99DE8, size: 0x8, addend: 0x0, symName: __ZN6memchr4arch6x86_646memchr10memchr_raw6detect17h2099730146b20b08E, symObjAddr: 0xF90, symBinAddr: 0x100049200, symSize: 0x1C0 }
  - { offset: 0x9A39D, size: 0x8, addend: 0x0, symName: __ZN6memchr4arch6x86_646memchr10memchr_raw9find_sse217ha1fdf339af5e94d5E, symObjAddr: 0x1150, symBinAddr: 0x1000493C0, symSize: 0x1B0 }
  - { offset: 0x9A928, size: 0x8, addend: 0x0, symName: __ZN6memchr4arch6x86_646memchr11memchr2_raw6detect17h84a70ada683e86a1E, symObjAddr: 0x1300, symBinAddr: 0x100049570, symSize: 0x1A0 }
  - { offset: 0x9AFBB, size: 0x8, addend: 0x0, symName: __ZN6memchr4arch6x86_646memchr11memchr2_raw9find_sse217hc70ae4e2a27bbbefE, symObjAddr: 0x14A0, symBinAddr: 0x100049710, symSize: 0x1A0 }
  - { offset: 0x9B71C, size: 0x8, addend: 0x0, symName: __ZN9hashbrown3raw11Fallibility17capacity_overflow17hc92e32d4ab7d6e63E, symObjAddr: 0x170, symBinAddr: 0x100050D50, symSize: 0x50 }
  - { offset: 0x9B74B, size: 0x8, addend: 0x0, symName: __ZN9hashbrown3raw11Fallibility9alloc_err17h8d4ad82e4949f018E, symObjAddr: 0x1C0, symBinAddr: 0x100050DA0, symSize: 0x20 }
  - { offset: 0x9B8C5, size: 0x8, addend: 0x0, symName: '__ZN69_$LT$core..alloc..layout..LayoutError$u20$as$u20$core..fmt..Debug$GT$3fmt17hb904d59a11340822E', symObjAddr: 0x57F0, symBinAddr: 0x100051200, symSize: 0x20 }
  - { offset: 0x9BB26, size: 0x8, addend: 0x0, symName: __ZN5alloc5alloc18handle_alloc_error17h3762db9dd870b9a9E, symObjAddr: 0x35BA, symBinAddr: 0x10005BC1A, symSize: 0x16 }
  - { offset: 0x9BDA9, size: 0x8, addend: 0x0, symName: __ZN5alloc7raw_vec11finish_grow17h3ef34721aec5e3b7E, symObjAddr: 0x52C0, symBinAddr: 0x10005BC30, symSize: 0x6E }
  - { offset: 0x9BE1E, size: 0x8, addend: 0x0, symName: __ZN5alloc7raw_vec12handle_error17h937a4fa340d4a4b8E, symObjAddr: 0x532E, symBinAddr: 0x10005BC9E, symSize: 0x22 }
  - { offset: 0x9BE5D, size: 0x8, addend: 0x0, symName: __ZN5alloc7raw_vec17capacity_overflow17hfafd9746150329d6E, symObjAddr: 0x5350, symBinAddr: 0x10005BCC0, symSize: 0x40 }
  - { offset: 0x9BE96, size: 0x8, addend: 0x0, symName: '__ZN5alloc7raw_vec20RawVecInner$LT$A$GT$7reserve21do_reserve_and_handle17h05c0f4d79cdd84bfE', symObjAddr: 0x5430, symBinAddr: 0x10005BD00, symSize: 0xB0 }
  - { offset: 0x9BFFC, size: 0x8, addend: 0x0, symName: '__ZN254_$LT$alloc..boxed..convert..$LT$impl$u20$core..convert..From$LT$alloc..string..String$GT$$u20$for$u20$alloc..boxed..Box$LT$dyn$u20$core..error..Error$u2b$core..marker..Sync$u2b$core..marker..Send$GT$$GT$..from..StringError$u20$as$u20$core..fmt..Debug$GT$3fmt17hcf569323b84bf267E', symObjAddr: 0x140, symBinAddr: 0x100050DC0, symSize: 0x20 }
  - { offset: 0x9C0CD, size: 0x8, addend: 0x0, symName: '__ZN256_$LT$alloc..boxed..convert..$LT$impl$u20$core..convert..From$LT$alloc..string..String$GT$$u20$for$u20$alloc..boxed..Box$LT$dyn$u20$core..error..Error$u2b$core..marker..Sync$u2b$core..marker..Send$GT$$GT$..from..StringError$u20$as$u20$core..fmt..Display$GT$3fmt17h1b1a69dfec465030E', symObjAddr: 0x160, symBinAddr: 0x100050DE0, symSize: 0x20 }
  - { offset: 0x9C1AC, size: 0x8, addend: 0x0, symName: __ZN5alloc3ffi5c_str7CString19_from_vec_unchecked17ha526334e500b1abdE, symObjAddr: 0xC50, symBinAddr: 0x100050E00, symSize: 0x120 }
  - { offset: 0x9C51A, size: 0x8, addend: 0x0, symName: '__ZN72_$LT$$RF$str$u20$as$u20$alloc..ffi..c_str..CString..new..SpecNewImpl$GT$13spec_new_impl17h86c6e2e3ca147532E', symObjAddr: 0x5810, symBinAddr: 0x100051220, symSize: 0x120 }
  - { offset: 0x9C930, size: 0x8, addend: 0x0, symName: __ZN5alloc6string6String15from_utf8_lossy17h0471d885b3e9b3ebE, symObjAddr: 0x4790, symBinAddr: 0x100050F90, symSize: 0x270 }
  - { offset: 0x9CFDC, size: 0x8, addend: 0x0, symName: '__ZN98_$LT$alloc..string..String$u20$as$u20$core..convert..From$LT$alloc..borrow..Cow$LT$str$GT$$GT$$GT$4from17h1463175ae5508b78E', symObjAddr: 0x61F0, symBinAddr: 0x100051340, symSize: 0xAB }
  - { offset: 0x9D1DC, size: 0x8, addend: 0x0, symName: __ZN5alloc4sync32arcinner_layout_for_value_layout17h6aceeaaa01c07cfaE, symObjAddr: 0x2690, symBinAddr: 0x100050F20, symSize: 0x70 }
  - { offset: 0x9D1F3, size: 0x8, addend: 0x0, symName: __ZN5alloc4sync32arcinner_layout_for_value_layout17h6aceeaaa01c07cfaE, symObjAddr: 0x2690, symBinAddr: 0x100050F20, symSize: 0x70 }
  - { offset: 0x9D208, size: 0x8, addend: 0x0, symName: __ZN5alloc4sync32arcinner_layout_for_value_layout17h6aceeaaa01c07cfaE, symObjAddr: 0x2690, symBinAddr: 0x100050F20, symSize: 0x70 }
  - { offset: 0x9D331, size: 0x8, addend: 0x0, symName: '__ZN71_$LT$core..ops..range..Range$LT$Idx$GT$$u20$as$u20$core..fmt..Debug$GT$3fmt17hc330239f60cc9eb3E', symObjAddr: 0x1F4B0, symBinAddr: 0x1000557D0, symSize: 0x50 }
  - { offset: 0x9D5A8, size: 0x8, addend: 0x0, symName: '__ZN4core4char7methods22_$LT$impl$u20$char$GT$16escape_debug_ext17hb449749641e3affeE', symObjAddr: 0x176B0, symBinAddr: 0x100054BE0, symSize: 0x2D0 }
  - { offset: 0x9D7A0, size: 0x8, addend: 0x0, symName: __ZN4core4char7methods15encode_utf8_raw8do_panic7runtime17hb720cf973e12fcdfE, symObjAddr: 0x17590, symBinAddr: 0x10005BE30, symSize: 0x90 }
  - { offset: 0x9DBB8, size: 0x8, addend: 0x0, symName: __ZN4core6option13expect_failed17h1ec281f12b35982eE, symObjAddr: 0x18040, symBinAddr: 0x10005C0A0, symSize: 0x60 }
  - { offset: 0x9DC00, size: 0x8, addend: 0x0, symName: __ZN4core6option13unwrap_failed17hd0abc7d118070f58E, symObjAddr: 0x180A0, symBinAddr: 0x10005C100, symSize: 0x20 }
  - { offset: 0x9E108, size: 0x8, addend: 0x0, symName: __ZN4core5slice5index16slice_index_fail8do_panic7runtime17h41282b038f05ddfaE, symObjAddr: 0x17D00, symBinAddr: 0x10005BF50, symSize: 0x70 }
  - { offset: 0x9E139, size: 0x8, addend: 0x0, symName: __ZN4core5slice5index16slice_index_fail8do_panic7runtime17haaf49c781c78a5c0E, symObjAddr: 0x17D70, symBinAddr: 0x10005BFC0, symSize: 0x70 }
  - { offset: 0x9E16A, size: 0x8, addend: 0x0, symName: __ZN4core5slice5index16slice_index_fail8do_panic7runtime17hae4da62edc07a39fE, symObjAddr: 0x17DE0, symBinAddr: 0x10005C030, symSize: 0x70 }
  - { offset: 0x9E19D, size: 0x8, addend: 0x0, symName: __ZN4core5slice5index16slice_index_fail17h1a065c4e1a1e0b41E, symObjAddr: 0x17CC0, symBinAddr: 0x10005BF10, symSize: 0x40 }
  - { offset: 0x9E249, size: 0x8, addend: 0x0, symName: __ZN4core5slice6memchr14memchr_aligned17hbe324882bd8e8f20E, symObjAddr: 0x17E50, symBinAddr: 0x100054F10, symSize: 0xE0 }
  - { offset: 0x9E343, size: 0x8, addend: 0x0, symName: __ZN4core5slice6memchr7memrchr17h3060eb51c807ecd7E, symObjAddr: 0x17F30, symBinAddr: 0x100054FF0, symSize: 0x110 }
  - { offset: 0x9E533, size: 0x8, addend: 0x0, symName: __ZN4core5slice4sort6shared9smallsort22panic_on_ord_violation17hd9a4c3c4a8ebe09aE, symObjAddr: 0x17BA0, symBinAddr: 0x10005BEC0, symSize: 0x50 }
  - { offset: 0x9E570, size: 0x8, addend: 0x0, symName: __ZN4core5slice4sort6stable5drift11sqrt_approx17h5b54c8126d8482dbE, symObjAddr: 0x17BF0, symBinAddr: 0x100054EE0, symSize: 0x30 }
  - { offset: 0x9E657, size: 0x8, addend: 0x0, symName: __ZN4core3fmt9Formatter10debug_list17h9d2456a350d67ad8E, symObjAddr: 0xA1C0, symBinAddr: 0x100052CC0, symSize: 0x40 }
  - { offset: 0x9E697, size: 0x8, addend: 0x0, symName: __ZN4core3fmt9Formatter11debug_tuple17hdcc53271f394ac41E, symObjAddr: 0xA200, symBinAddr: 0x100052D00, symSize: 0x50 }
  - { offset: 0x9E6EC, size: 0x8, addend: 0x0, symName: __ZN4core3fmt9Formatter12debug_struct17h8c9b9889fabaa42eE, symObjAddr: 0xA250, symBinAddr: 0x100052D50, symSize: 0x40 }
  - { offset: 0x9E755, size: 0x8, addend: 0x0, symName: __ZN4core3fmt9Formatter12pad_integral17h5b6fb6906b7fe010E, symObjAddr: 0xA2F0, symBinAddr: 0x100052DF0, symSize: 0x4A0 }
  - { offset: 0x9E9E4, size: 0x8, addend: 0x0, symName: __ZN4core3fmt9Formatter25debug_tuple_field2_finish17h3020954311064adeE, symObjAddr: 0xADF0, symBinAddr: 0x100053290, symSize: 0x1A0 }
  - { offset: 0x9ECDC, size: 0x8, addend: 0x0, symName: __ZN4core3fmt9Formatter26debug_struct_field1_finish17h161bc6caec1550cdE, symObjAddr: 0xBA70, symBinAddr: 0x100053430, symSize: 0xB0 }
  - { offset: 0x9EDB3, size: 0x8, addend: 0x0, symName: __ZN4core3fmt9Formatter26debug_struct_field2_finish17h9392189e9ab00f59E, symObjAddr: 0xBB20, symBinAddr: 0x1000534E0, symSize: 0xD0 }
  - { offset: 0x9EE8A, size: 0x8, addend: 0x0, symName: __ZN4core3fmt9Formatter3pad17h37b5dfd85e2b0428E, symObjAddr: 0xC000, symBinAddr: 0x1000535B0, symSize: 0x3D0 }
  - { offset: 0x9F0FC, size: 0x8, addend: 0x0, symName: __ZN4core3fmt9Formatter9write_str17h532155584af4b419E, symObjAddr: 0xC460, symBinAddr: 0x100053980, symSize: 0x20 }
  - { offset: 0x9F16C, size: 0x8, addend: 0x0, symName: __ZN4core3fmt8builders11DebugStruct5field17h99bfe0cd343e038aE, symObjAddr: 0x97F0, symBinAddr: 0x100052970, symSize: 0x190 }
  - { offset: 0x9F380, size: 0x8, addend: 0x0, symName: __ZN4core3fmt8builders11DebugStruct6finish17h759eca09f088587cE, symObjAddr: 0x9980, symBinAddr: 0x100052B00, symSize: 0x60 }
  - { offset: 0x9F4A8, size: 0x8, addend: 0x0, symName: __ZN4core3fmt8builders10DebugTuple5field17hcff3261d35d211e6E, symObjAddr: 0x9550, symBinAddr: 0x1000527B0, symSize: 0x130 }
  - { offset: 0x9F616, size: 0x8, addend: 0x0, symName: __ZN4core3fmt8builders10DebugTuple6finish17hee865a46ed84494bE, symObjAddr: 0x9680, symBinAddr: 0x1000528E0, symSize: 0x90 }
  - { offset: 0x9F751, size: 0x8, addend: 0x0, symName: __ZN4core3fmt8builders8DebugSet5entry17h9ad4bd41e6760f90E, symObjAddr: 0x9F60, symBinAddr: 0x100052B60, symSize: 0x120 }
  - { offset: 0x9F932, size: 0x8, addend: 0x0, symName: __ZN4core3fmt8builders9DebugList6finish17he5544af857123449E, symObjAddr: 0xA180, symBinAddr: 0x100052C80, symSize: 0x40 }
  - { offset: 0x9F9AF, size: 0x8, addend: 0x0, symName: '__ZN68_$LT$core..fmt..builders..PadAdapter$u20$as$u20$core..fmt..Write$GT$10write_char17h8781eb8fef702588E', symObjAddr: 0x1E270, symBinAddr: 0x1000554F0, symSize: 0x60 }
  - { offset: 0x9F9D8, size: 0x8, addend: 0x0, symName: '__ZN68_$LT$core..fmt..builders..PadAdapter$u20$as$u20$core..fmt..Write$GT$9write_str17h3ac9bf90fc6b2989E', symObjAddr: 0x1E2D0, symBinAddr: 0x100055550, symSize: 0x280 }
  - { offset: 0x9FC3A, size: 0x8, addend: 0x0, symName: '__ZN57_$LT$core..fmt..Formatter$u20$as$u20$core..fmt..Write$GT$10write_char17h4978b0c667a9d8b0E', symObjAddr: 0x1A5E0, symBinAddr: 0x100055490, symSize: 0x20 }
  - { offset: 0x9FC76, size: 0x8, addend: 0x0, symName: '__ZN40_$LT$str$u20$as$u20$core..fmt..Debug$GT$3fmt17h3cbb4b7bcf7be3d7E', symObjAddr: 0x240, symBinAddr: 0x1000513F0, symSize: 0x3A0 }
  - { offset: 0xA00D9, size: 0x8, addend: 0x0, symName: '__ZN41_$LT$char$u20$as$u20$core..fmt..Debug$GT$3fmt17h4e11ed1b5452e387E', symObjAddr: 0x5E0, symBinAddr: 0x100051790, symSize: 0xA0 }
  - { offset: 0xA0202, size: 0x8, addend: 0x0, symName: '__ZN42_$LT$$RF$T$u20$as$u20$core..fmt..Debug$GT$3fmt17h0f40b67a922b1ec5E', symObjAddr: 0x680, symBinAddr: 0x100051830, symSize: 0x10 }
  - { offset: 0xA021D, size: 0x8, addend: 0x0, symName: '__ZN42_$LT$$RF$T$u20$as$u20$core..fmt..Debug$GT$3fmt17h7680cd2a2d1e04fdE', symObjAddr: 0x6B0, symBinAddr: 0x100051840, symSize: 0x20 }
  - { offset: 0xA023F, size: 0x8, addend: 0x0, symName: '__ZN42_$LT$$RF$T$u20$as$u20$core..fmt..Debug$GT$3fmt17he2aa20ce460ddad7E', symObjAddr: 0x860, symBinAddr: 0x100051860, symSize: 0x10 }
  - { offset: 0xA0267, size: 0x8, addend: 0x0, symName: '__ZN42_$LT$str$u20$as$u20$core..fmt..Display$GT$3fmt17h83ec9ba80990d67aE', symObjAddr: 0x870, symBinAddr: 0x100051870, symSize: 0x20 }
  - { offset: 0xA028F, size: 0x8, addend: 0x0, symName: '__ZN43_$LT$char$u20$as$u20$core..fmt..Display$GT$3fmt17ha887c9494bff9603E', symObjAddr: 0x8D0, symBinAddr: 0x100051890, symSize: 0xC0 }
  - { offset: 0xA02FE, size: 0x8, addend: 0x0, symName: '__ZN44_$LT$$RF$T$u20$as$u20$core..fmt..Display$GT$3fmt17h1fb02a4f1d7d14b9E', symObjAddr: 0x990, symBinAddr: 0x100051950, symSize: 0x20 }
  - { offset: 0xA03D2, size: 0x8, addend: 0x0, symName: '__ZN4core3fmt3num3imp51_$LT$impl$u20$core..fmt..Display$u20$for$u20$u8$GT$3fmt17h1a13e7c6295dbb75E', symObjAddr: 0x2630, symBinAddr: 0x100051B30, symSize: 0xA0 }
  - { offset: 0xA04B7, size: 0x8, addend: 0x0, symName: '__ZN4core3fmt3num3imp52_$LT$impl$u20$core..fmt..Display$u20$for$u20$i32$GT$3fmt17h4add2573f547cd42E', symObjAddr: 0x27D0, symBinAddr: 0x100051BD0, symSize: 0x120 }
  - { offset: 0xA05D7, size: 0x8, addend: 0x0, symName: '__ZN4core3fmt3num3imp52_$LT$impl$u20$core..fmt..Display$u20$for$u20$u32$GT$3fmt17haa57ce01fac3917eE', symObjAddr: 0x2B00, symBinAddr: 0x100051CF0, symSize: 0x110 }
  - { offset: 0xA06E4, size: 0x8, addend: 0x0, symName: '__ZN4core3fmt3num3imp52_$LT$impl$u20$core..fmt..Display$u20$for$u20$u64$GT$3fmt17h8b8600c70b3a3ac8E', symObjAddr: 0x2C10, symBinAddr: 0x100051E00, symSize: 0x110 }
  - { offset: 0xA081F, size: 0x8, addend: 0x0, symName: '__ZN4core3fmt3num52_$LT$impl$u20$core..fmt..LowerHex$u20$for$u20$u8$GT$3fmt17h39a52b6e10cf70aeE', symObjAddr: 0x4AE0, symBinAddr: 0x100052260, symSize: 0x70 }
  - { offset: 0xA08B0, size: 0x8, addend: 0x0, symName: '__ZN4core3fmt3num52_$LT$impl$u20$core..fmt..UpperHex$u20$for$u20$u8$GT$3fmt17h865b83e01c77f87fE', symObjAddr: 0x4BC0, symBinAddr: 0x1000522D0, symSize: 0x70 }
  - { offset: 0xA0954, size: 0x8, addend: 0x0, symName: '__ZN4core3fmt3num53_$LT$impl$u20$core..fmt..UpperHex$u20$for$u20$u32$GT$3fmt17he24323287b2084c2E', symObjAddr: 0x5170, symBinAddr: 0x100052490, symSize: 0x70 }
  - { offset: 0xA09E5, size: 0x8, addend: 0x0, symName: '__ZN4core3fmt3num53_$LT$impl$u20$core..fmt..LowerHex$u20$for$u20$u64$GT$3fmt17h3112ef8c0abad7d1E', symObjAddr: 0x4F40, symBinAddr: 0x1000523B0, symSize: 0x70 }
  - { offset: 0xA0A76, size: 0x8, addend: 0x0, symName: '__ZN4core3fmt3num53_$LT$impl$u20$core..fmt..UpperHex$u20$for$u20$u64$GT$3fmt17hf363a6f2e4cad34eE', symObjAddr: 0x51E0, symBinAddr: 0x100052500, symSize: 0x70 }
  - { offset: 0xA0AFA, size: 0x8, addend: 0x0, symName: '__ZN4core3fmt3num50_$LT$impl$u20$core..fmt..Debug$u20$for$u20$u64$GT$3fmt17h376bce9b57b8a762E', symObjAddr: 0x3E60, symBinAddr: 0x100051F10, symSize: 0x1A0 }
  - { offset: 0xA0C8E, size: 0x8, addend: 0x0, symName: '__ZN4core3fmt3num52_$LT$impl$u20$core..fmt..Debug$u20$for$u20$usize$GT$3fmt17h4806199c82f902ceE', symObjAddr: 0x48C0, symBinAddr: 0x1000520B0, symSize: 0x1B0 }
  - { offset: 0xA0E0F, size: 0x8, addend: 0x0, symName: '__ZN4core3fmt3num53_$LT$impl$u20$core..fmt..LowerHex$u20$for$u20$i32$GT$3fmt17hfee837de970427b1E', symObjAddr: 0x4D80, symBinAddr: 0x100052340, symSize: 0x70 }
  - { offset: 0xA0EB5, size: 0x8, addend: 0x0, symName: '__ZN4core3fmt3num53_$LT$impl$u20$core..fmt..UpperHex$u20$for$u20$i32$GT$3fmt17h26acf60f65152f77E', symObjAddr: 0x5020, symBinAddr: 0x100052420, symSize: 0x70 }
  - { offset: 0xA10C9, size: 0x8, addend: 0x0, symName: __ZN4core3fmt17pointer_fmt_inner17h97023b135e02a0e7E, symObjAddr: 0x1240, symBinAddr: 0x100051A90, symSize: 0xA0 }
  - { offset: 0xA11BA, size: 0x8, addend: 0x0, symName: __ZN4core3fmt5Write9write_fmt17h852655db2bea3a71E, symObjAddr: 0x6270, symBinAddr: 0x100052570, symSize: 0x20 }
  - { offset: 0xA1239, size: 0x8, addend: 0x0, symName: __ZN4core3fmt5write17h32d512c5550f2c71E, symObjAddr: 0x9280, symBinAddr: 0x100052590, symSize: 0x220 }
  - { offset: 0xA13E7, size: 0x8, addend: 0x0, symName: __ZN4core3fmt9Formatter12pad_integral12write_prefix17he3bb54c358307d3fE, symObjAddr: 0xA290, symBinAddr: 0x100052D90, symSize: 0x60 }
  - { offset: 0xA144F, size: 0x8, addend: 0x0, symName: '__ZN59_$LT$core..fmt..Arguments$u20$as$u20$core..fmt..Display$GT$3fmt17hfd1b80e04662b19aE', symObjAddr: 0x1B480, symBinAddr: 0x1000554B0, symSize: 0x20 }
  - { offset: 0xA1572, size: 0x8, addend: 0x0, symName: __ZN4core6result13unwrap_failed17h5b5681f5bd639151E, symObjAddr: 0x180C0, symBinAddr: 0x10005C120, symSize: 0x80 }
  - { offset: 0xA1794, size: 0x8, addend: 0x0, symName: __ZN4core3str5count14do_count_chars17hc493e781e0338f55E, symObjAddr: 0x16370, symBinAddr: 0x100053D40, symSize: 0x5A0 }
  - { offset: 0xA1BDC, size: 0x8, addend: 0x0, symName: __ZN4core3str5count23char_count_general_case17h45b75eff409d0732E, symObjAddr: 0x16910, symBinAddr: 0x1000542E0, symSize: 0xB0 }
  - { offset: 0xA1C30, size: 0x8, addend: 0x0, symName: __ZN4core3str5count23char_count_general_case17h45b75eff409d0732E, symObjAddr: 0x16910, symBinAddr: 0x1000542E0, symSize: 0xB0 }
  - { offset: 0xA1CAD, size: 0x8, addend: 0x0, symName: __ZN4core3str16slice_error_fail17h7ebf3d4aa8bf503fE, symObjAddr: 0x15DF0, symBinAddr: 0x10005BDB0, symSize: 0x10 }
  - { offset: 0xA1CC7, size: 0x8, addend: 0x0, symName: __ZN4core3str19slice_error_fail_rt17hfa55243860877ddbE, symObjAddr: 0x15E40, symBinAddr: 0x1000539A0, symSize: 0x3A0 }
  - { offset: 0xA1EAE, size: 0x8, addend: 0x0, symName: __ZN4core3str7pattern11StrSearcher3new17hfab9aab88f91478aE, symObjAddr: 0x16A00, symBinAddr: 0x100054390, symSize: 0x640 }
  - { offset: 0xA216E, size: 0x8, addend: 0x0, symName: __ZN4core3str8converts9from_utf817hab685de2f5c40023E, symObjAddr: 0x17250, symBinAddr: 0x1000549D0, symSize: 0x210 }
  - { offset: 0xA21DC, size: 0x8, addend: 0x0, symName: '__ZN87_$LT$core..str..lossy..Utf8Chunks$u20$as$u20$core..iter..traits..iterator..Iterator$GT$4next17hc6bf0146e235ca7cE', symObjAddr: 0x217F0, symBinAddr: 0x100055820, symSize: 0x1A0 }
  - { offset: 0xA23F0, size: 0x8, addend: 0x0, symName: __ZN4core3ffi5c_str4CStr19from_bytes_with_nul17h663354f457718412E, symObjAddr: 0xFF0, symBinAddr: 0x100051970, symSize: 0x120 }
  - { offset: 0xA2506, size: 0x8, addend: 0x0, symName: __ZN4core4cell22panic_already_borrowed8do_panic7runtime17hb02334c284ba6668E, symObjAddr: 0x17470, symBinAddr: 0x10005BDD0, symSize: 0x60 }
  - { offset: 0xA2539, size: 0x8, addend: 0x0, symName: __ZN4core4cell22panic_already_borrowed17h380a7ae12b05c21bE, symObjAddr: 0x17460, symBinAddr: 0x10005BDC0, symSize: 0x10 }
  - { offset: 0xA256E, size: 0x8, addend: 0x0, symName: '__ZN65_$LT$core..cell..BorrowMutError$u20$as$u20$core..fmt..Display$GT$3fmt17hbdc0278247eb0cacE', symObjAddr: 0x1C610, symBinAddr: 0x1000554D0, symSize: 0x20 }
  - { offset: 0xA25BE, size: 0x8, addend: 0x0, symName: __ZN4core7unicode12unicode_data15grapheme_extend11lookup_slow17hdcf8fe3bcaa288d6E, symObjAddr: 0x185E0, symBinAddr: 0x100055100, symSize: 0x100 }
  - { offset: 0xA27D9, size: 0x8, addend: 0x0, symName: __ZN4core7unicode9printable12is_printable17hc67588a861ee36a9E, symObjAddr: 0x18AB0, symBinAddr: 0x100055200, symSize: 0x290 }
  - { offset: 0xA2B0A, size: 0x8, addend: 0x0, symName: __ZN4core5alloc6layout6Layout19is_size_align_valid17h9b309ba4c67ddf6eE, symObjAddr: 0x17A30, symBinAddr: 0x100054EB0, symSize: 0x30 }
  - { offset: 0xA2B54, size: 0x8, addend: 0x0, symName: __ZN4core9panicking11panic_const23panic_const_div_by_zero17h1817bf4a5c63dcf1E, symObjAddr: 0x18D40, symBinAddr: 0x10005C1A0, symSize: 0x40 }
  - { offset: 0xA2B83, size: 0x8, addend: 0x0, symName: __ZN4core9panicking11panic_const23panic_const_rem_by_zero17h66d921d73263a198E, symObjAddr: 0x18DC0, symBinAddr: 0x10005C1E0, symSize: 0x40 }
  - { offset: 0xA2BB2, size: 0x8, addend: 0x0, symName: __ZN4core9panicking11panic_const24panic_const_add_overflow17hbc5e9fcbe302c148E, symObjAddr: 0x18E00, symBinAddr: 0x10005C220, symSize: 0x40 }
  - { offset: 0xA2BE2, size: 0x8, addend: 0x0, symName: __ZN4core9panicking13assert_failed17haff998095acd4f8eE, symObjAddr: 0x192EE, symBinAddr: 0x10005C26E, symSize: 0x2F }
  - { offset: 0xA2BFD, size: 0x8, addend: 0x0, symName: __ZN4core9panicking13assert_failed17hf790c8989ead8b5cE, symObjAddr: 0x1931D, symBinAddr: 0x10005C29D, symSize: 0x33 }
  - { offset: 0xA2C18, size: 0x8, addend: 0x0, symName: __ZN4core9panicking14panic_nounwind17h4e71c9dba73fe19eE, symObjAddr: 0x19350, symBinAddr: 0x10005C2D0, symSize: 0x50 }
  - { offset: 0xA2C47, size: 0x8, addend: 0x0, symName: __ZN4core9panicking16panic_in_cleanup17h278dcedb7b834eecE, symObjAddr: 0x19418, symBinAddr: 0x10005C328, symSize: 0x13 }
  - { offset: 0xA2C62, size: 0x8, addend: 0x0, symName: __ZN4core9panicking18panic_bounds_check17hd6c879668b498650E, symObjAddr: 0x1942B, symBinAddr: 0x10005C33B, symSize: 0x65 }
  - { offset: 0xA2CA1, size: 0x8, addend: 0x0, symName: __ZN4core9panicking18panic_nounwind_fmt17h13cf4419fe26bc7eE, symObjAddr: 0x19490, symBinAddr: 0x10005C3A0, symSize: 0x5B }
  - { offset: 0xA2CE6, size: 0x8, addend: 0x0, symName: __ZN4core9panicking19assert_failed_inner17h4305f0dee9388e3cE, symObjAddr: 0x194EB, symBinAddr: 0x10005C3FB, symSize: 0x127 }
  - { offset: 0xA2D20, size: 0x8, addend: 0x0, symName: __ZN4core9panicking19panic_cannot_unwind17ha66eab6f79487262E, symObjAddr: 0x19612, symBinAddr: 0x10005C522, symSize: 0x1E }
  - { offset: 0xA2D3B, size: 0x8, addend: 0x0, symName: __ZN4core9panicking26panic_nounwind_nobacktrace17hb4fbf937932f35e4E, symObjAddr: 0x19630, symBinAddr: 0x10005C540, symSize: 0x4D }
  - { offset: 0xA2D6A, size: 0x8, addend: 0x0, symName: __ZN4core9panicking5panic17hea69a7d4c28c810cE, symObjAddr: 0x19780, symBinAddr: 0x10005C590, symSize: 0x50 }
  - { offset: 0xA2D99, size: 0x8, addend: 0x0, symName: __ZN4core9panicking9panic_fmt17h46fb0d6076d2bd77E, symObjAddr: 0x197D0, symBinAddr: 0x10005C5E0, symSize: 0x20 }
...
