---
triple:          'x86_64-apple-darwin'
binary-path:     '/Users/kema/git/rust-serv/target/debug/build/wasmtime-fiber-3171b9c3b0a6b87a/build_script_build-3171b9c3b0a6b87a'
relocations:
  - { offset: 0x1E, size: 0x8, addend: 0x0, symName: __RINvMNtCsieiGu2EXtoJ_4core6optionINtB3_6OptionReE3mapINtNtCslJiobkLta79_5alloc4sync3ArceENvYBI_INtNtB5_7convert4IntoBP_E4intoECsbDBb48bxiOS_18build_script_build, symObjAddr: 0x0, symBinAddr: 0x100000BC0, symSize: 0x60 }
  - { offset: 0x68, size: 0x8, addend: 0x0, symName: __RNCINvNtCsHUR1vrdMJt_3std2rt10lang_startuE0CsbDBb48bxiOS_18build_script_build, symObjAddr: 0x2E0, symBinAddr: 0x100000EA0, symSize: 0x30 }
  - { offset: 0xD2, size: 0x8, addend: 0x0, symName: __RINvNtCsHUR1vrdMJt_3std2rt10lang_startuECsbDBb48bxiOS_18build_script_build, symObjAddr: 0x280, symBinAddr: 0x100000E40, symSize: 0x40 }
  - { offset: 0x191, size: 0x8, addend: 0x0, symName: __RNvXsk_NtCsHUR1vrdMJt_3std3envNtB5_8VarErrorNtNtCsieiGu2EXtoJ_4core3fmt5Debug3fmtCsbDBb48bxiOS_18build_script_build, symObjAddr: 0x1320, symBinAddr: 0x100001EE0, symSize: 0x90 }
  - { offset: 0x2AC, size: 0x8, addend: 0x0, symName: __RINvNtNtCsHUR1vrdMJt_3std3sys9backtrace28___rust_begin_short_backtraceFEuuECsbDBb48bxiOS_18build_script_build, symObjAddr: 0x2C0, symBinAddr: 0x100000E80, symSize: 0x20 }
  - { offset: 0x62E, size: 0x8, addend: 0x0, symName: __RNvXsZ_NtCsHUR1vrdMJt_3std7processuNtB5_11Termination6reportCsbDBb48bxiOS_18build_script_build, symObjAddr: 0x1310, symBinAddr: 0x100001ED0, symSize: 0x10 }
  - { offset: 0xFAF, size: 0x8, addend: 0x0, symName: __RNvXs1n_NtCslJiobkLta79_5alloc6stringNtB6_6StringINtNtCsieiGu2EXtoJ_4core3cmp9PartialEqReE2eqCsbDBb48bxiOS_18build_script_build, symObjAddr: 0x11E0, symBinAddr: 0x100001DA0, symSize: 0x130 }
  - { offset: 0x1291, size: 0x8, addend: 0x0, symName: __RNvXss_NtCslJiobkLta79_5alloc6stringNtB5_6StringNtNtNtCsieiGu2EXtoJ_4core3ops5deref5Deref5derefCsbDBb48bxiOS_18build_script_build, symObjAddr: 0x13B0, symBinAddr: 0x100001F70, symSize: 0x20 }
  - { offset: 0x133B, size: 0x8, addend: 0x0, symName: __RNvNtCslJiobkLta79_5alloc3fmt6formatCsbDBb48bxiOS_18build_script_build, symObjAddr: 0xEA0, symBinAddr: 0x100001A60, symSize: 0xC0 }
  - { offset: 0x22DF, size: 0x8, addend: 0x0, symName: __RNSNvYNCINvNtCsHUR1vrdMJt_3std2rt10lang_startuE0INtNtNtCsieiGu2EXtoJ_4core3ops8function6FnOnceuE9call_once6vtableCsbDBb48bxiOS_18build_script_build, symObjAddr: 0x310, symBinAddr: 0x100000ED0, symSize: 0x20 }
  - { offset: 0x2323, size: 0x8, addend: 0x0, symName: __RNvYFEuINtNtNtCsieiGu2EXtoJ_4core3ops8function6FnOnceuE9call_onceCsbDBb48bxiOS_18build_script_build, symObjAddr: 0x13D0, symBinAddr: 0x100001F90, symSize: 0x20 }
  - { offset: 0x2363, size: 0x8, addend: 0x0, symName: __RNvYNCINvNtCsHUR1vrdMJt_3std2rt10lang_startuE0INtNtNtCsieiGu2EXtoJ_4core3ops8function6FnOnceuE9call_onceCsbDBb48bxiOS_18build_script_build, symObjAddr: 0x13F0, symBinAddr: 0x100001FB0, symSize: 0x40 }
  - { offset: 0x23A7, size: 0x8, addend: 0x0, symName: __RNvYNvYReINtNtCsieiGu2EXtoJ_4core7convert4IntoINtNtCslJiobkLta79_5alloc4sync3ArceEE4intoINtNtNtBc_3ops8function6FnOnceTB5_EE9call_onceCsbDBb48bxiOS_18build_script_build, symObjAddr: 0x1430, symBinAddr: 0x100001FF0, symSize: 0x30 }
  - { offset: 0x2480, size: 0x8, addend: 0x0, symName: __RNvNvNtNtCsieiGu2EXtoJ_4core5slice3raw14from_raw_parts18precondition_checkCsbDBb48bxiOS_18build_script_build, symObjAddr: 0xF60, symBinAddr: 0x100001B20, symSize: 0x260 }
  - { offset: 0x2A23, size: 0x8, addend: 0x0, symName: __RNvXs1_NtCsieiGu2EXtoJ_4core7convertINtNtB7_6option6OptionReEINtB5_4IntoBy_E4intoCsbDBb48bxiOS_18build_script_build, symObjAddr: 0x11C0, symBinAddr: 0x100001D80, symSize: 0x20 }
  - { offset: 0x309A, size: 0x8, addend: 0x0, symName: __RINvMNtCsieiGu2EXtoJ_4core6optionINtB3_6OptionReE3mapINtNtCslJiobkLta79_5alloc4sync3ArceENvYBI_INtNtB5_7convert4IntoBP_E4intoECsbDBb48bxiOS_18build_script_build, symObjAddr: 0x0, symBinAddr: 0x100000BC0, symSize: 0x60 }
  - { offset: 0x35D2, size: 0x8, addend: 0x0, symName: __RINvMs3_CseYC8vFNOjrM_2ccNtB6_5Build4fileReECsbDBb48bxiOS_18build_script_build, symObjAddr: 0x60, symBinAddr: 0x100000C20, symSize: 0xA0 }
  - { offset: 0x360D, size: 0x8, addend: 0x0, symName: __RINvMs3_CseYC8vFNOjrM_2ccNtB6_5Build6defineINtNtCsieiGu2EXtoJ_4core6option6OptionReEECsbDBb48bxiOS_18build_script_build, symObjAddr: 0x100, symBinAddr: 0x100000CC0, symSize: 0x180 }
  - { offset: 0x36FE, size: 0x8, addend: 0x0, symName: __RNvCsbDBb48bxiOS_18build_script_build4main, symObjAddr: 0x330, symBinAddr: 0x100000EF0, symSize: 0x7A0 }
  - { offset: 0x397C, size: 0x8, addend: 0x0, symName: __RNvMNtCslJiobkLta79_5alloc6stringNtB2_6String6as_strCsbDBb48bxiOS_18build_script_build, symObjAddr: 0xAD0, symBinAddr: 0x100001690, symSize: 0x60 }
  - { offset: 0x3AD7, size: 0x8, addend: 0x0, symName: __RNvMs0_NtCslJiobkLta79_5alloc7raw_vecINtB5_6RawVecINtNtB7_4sync3ArcNtNtCsHUR1vrdMJt_3std4path4PathEE8grow_oneCsbDBb48bxiOS_18build_script_build, symObjAddr: 0xB30, symBinAddr: 0x1000016F0, symSize: 0x90 }
  - { offset: 0x3B89, size: 0x8, addend: 0x0, symName: __RNvMs0_NtCslJiobkLta79_5alloc7raw_vecINtB5_6RawVecTINtNtB7_4sync3ArceEINtNtCsieiGu2EXtoJ_4core6option6OptionBN_EEE8grow_oneCsbDBb48bxiOS_18build_script_build, symObjAddr: 0xBC0, symBinAddr: 0x100001780, symSize: 0x90 }
  - { offset: 0x3C03, size: 0x8, addend: 0x0, symName: __RNvMs_NtCslJiobkLta79_5alloc3vecINtB4_3VecINtNtB6_4sync3ArcNtNtCsHUR1vrdMJt_3std4path4PathEE4pushCsbDBb48bxiOS_18build_script_build, symObjAddr: 0xC50, symBinAddr: 0x100001810, symSize: 0x20 }
  - { offset: 0x3D5A, size: 0x8, addend: 0x0, symName: __RNvMs_NtCslJiobkLta79_5alloc3vecINtB4_3VecINtNtB6_4sync3ArcNtNtCsHUR1vrdMJt_3std4path4PathEE8push_mutCsbDBb48bxiOS_18build_script_build, symObjAddr: 0xC70, symBinAddr: 0x100001830, symSize: 0xF0 }
  - { offset: 0x3F1D, size: 0x8, addend: 0x0, symName: __RNvMs_NtCslJiobkLta79_5alloc3vecINtB4_3VecTINtNtB6_4sync3ArceEINtNtCsieiGu2EXtoJ_4core6option6OptionBF_EEE4pushCsbDBb48bxiOS_18build_script_build, symObjAddr: 0xD60, symBinAddr: 0x100001920, symSize: 0x20 }
  - { offset: 0x4075, size: 0x8, addend: 0x0, symName: __RNvMs_NtCslJiobkLta79_5alloc3vecINtB4_3VecTINtNtB6_4sync3ArceEINtNtCsieiGu2EXtoJ_4core6option6OptionBF_EEE8push_mutCsbDBb48bxiOS_18build_script_build, symObjAddr: 0xD80, symBinAddr: 0x100001940, symSize: 0x120 }
  - { offset: 0x44C1, size: 0x8, addend: 0x0, symName: __RINvMCseYC8vFNOjrM_2ccNtB3_5Error3newNtNtCslJiobkLta79_5alloc6string6StringEB3_, symObjAddr: 0x0, symBinAddr: 0x1000020B0, symSize: 0x70 }
  - { offset: 0x695E, size: 0x8, addend: 0x0, symName: __RNvXs_NtNtCsieiGu2EXtoJ_4core5slice4iterRSNtCseYC8vFNOjrM_2cc6ObjectNtNtNtNtB8_4iter6traits7collect12IntoIterator9into_iterBG_, symObjAddr: 0x220D0, symBinAddr: 0x1000223A0, symSize: 0x50 }
  - { offset: 0x6C43, size: 0x8, addend: 0x0, symName: __RNvMNtCsieiGu2EXtoJ_4core5sliceSNtCseYC8vFNOjrM_2cc6Object4iterBw_, symObjAddr: 0x68E0, symBinAddr: 0x1000087B0, symSize: 0x20 }
  - { offset: 0x6E3B, size: 0x8, addend: 0x0, symName: __RINvXs3_NtNtCsieiGu2EXtoJ_4core4hash5implsRNtCseYC8vFNOjrM_2cc12CompilerFlagNtB8_4Hash4hashNtNtNtCsHUR1vrdMJt_3std4hash6random13DefaultHasherEBH_, symObjAddr: 0x8D0, symBinAddr: 0x100002980, symSize: 0x20 }
  - { offset: 0x7015, size: 0x8, addend: 0x0, symName: __RNvXNtCsieiGu2EXtoJ_4core6borrowNtCseYC8vFNOjrM_2cc12CompilerFlagINtB2_6BorrowBu_E6borrowBw_, symObjAddr: 0x21E30, symBinAddr: 0x100022130, symSize: 0x10 }
  - { offset: 0x7060, size: 0x8, addend: 0x0, symName: __RNvXs1_NtNtNtCsieiGu2EXtoJ_4core3ops8function5implsQNCNvMs4_CseYC8vFNOjrM_2ccNtBW_5Build25get_base_archiver_variants1_0INtB7_5FnMutTRReEE8call_mutBW_, symObjAddr: 0x21F50, symBinAddr: 0x100022250, symSize: 0x30 }
  - { offset: 0x70AF, size: 0x8, addend: 0x0, symName: __RNvXs1_NtNtNtCsieiGu2EXtoJ_4core3ops8function5implsQNCNvMs4_CseYC8vFNOjrM_2ccNtBW_5Build27getenv_with_target_prefixes0INtB7_5FnMutTRNtNtCslJiobkLta79_5alloc6string6StringEE8call_mutBW_, symObjAddr: 0x21F80, symBinAddr: 0x100022280, symSize: 0x30 }
  - { offset: 0x74B7, size: 0x8, addend: 0x0, symName: __RNvCseYC8vFNOjrM_2cc32NEW_STANDALONE_ANDROID_COMPILERS, symObjAddr: 0x247C0, symBinAddr: 0x100135AF0, symSize: 0x0 }
  - { offset: 0x75E2, size: 0x8, addend: 0x0, symName: __RNCNvMs4_CseYC8vFNOjrM_2ccNtB7_5Build15compile_objects0B7_, symObjAddr: 0x13E0, symBinAddr: 0x100003300, symSize: 0x40 }
  - { offset: 0x7642, size: 0x8, addend: 0x0, symName: __RNvXNvMs4_CseYC8vFNOjrM_2ccNtB8_5Build25find_msvc_tools_find_toolNtB2_14BuildEnvGetterNtNtCsj2uhnLB4L8S_15find_msvc_tools10find_tools9EnvGetter7get_env, symObjAddr: 0x21E40, symBinAddr: 0x100022140, symSize: 0x60 }
  - { offset: 0x7690, size: 0x8, addend: 0x0, symName: __RNCNCNCNvMs4_CseYC8vFNOjrM_2ccNtBb_5Build11try_compiles_000Bb_, symObjAddr: 0x930, symBinAddr: 0x1000029E0, symSize: 0x50 }
  - { offset: 0x76D0, size: 0x8, addend: 0x0, symName: __RNCNCNvMs4_CseYC8vFNOjrM_2ccNtB9_5Build11try_compiles_00B9_, symObjAddr: 0x9C0, symBinAddr: 0x100002A70, symSize: 0xA0 }
  - { offset: 0x772F, size: 0x8, addend: 0x0, symName: __RNCNvMs4_CseYC8vFNOjrM_2ccNtB7_5Build11try_compile0B7_, symObjAddr: 0x1330, symBinAddr: 0x100003250, symSize: 0x60 }
  - { offset: 0x777A, size: 0x8, addend: 0x0, symName: __RNCNvMs4_CseYC8vFNOjrM_2ccNtB7_5Build11try_compiles_0B7_, symObjAddr: 0x1390, symBinAddr: 0x1000032B0, symSize: 0x50 }
  - { offset: 0x77DE, size: 0x8, addend: 0x0, symName: __RNCNCNvMs4_CseYC8vFNOjrM_2ccNtB9_5Build17prefix_for_targets_00B9_, symObjAddr: 0xA60, symBinAddr: 0x100002B10, symSize: 0x120 }
  - { offset: 0x7820, size: 0x8, addend: 0x0, symName: __RNCNvMs4_CseYC8vFNOjrM_2ccNtB7_5Build17prefix_for_target0B7_, symObjAddr: 0x1C10, symBinAddr: 0x100003B30, symSize: 0xB0 }
  - { offset: 0x7859, size: 0x8, addend: 0x0, symName: __RNCNvMs4_CseYC8vFNOjrM_2ccNtB7_5Build17prefix_for_targets0_0B7_, symObjAddr: 0x1CC0, symBinAddr: 0x100003BE0, symSize: 0x1AF0 }
  - { offset: 0x789C, size: 0x8, addend: 0x0, symName: __RNCNvMs4_CseYC8vFNOjrM_2ccNtB7_5Build17prefix_for_targets_0B7_, symObjAddr: 0x37B0, symBinAddr: 0x1000056D0, symSize: 0x50 }
  - { offset: 0x78DE, size: 0x8, addend: 0x0, symName: __RNCNCNvMs4_CseYC8vFNOjrM_2ccNtB9_5Build20apple_sdk_root_inner00B9_, symObjAddr: 0xB80, symBinAddr: 0x100002C30, symSize: 0x40 }
  - { offset: 0x791F, size: 0x8, addend: 0x0, symName: __RNCNvMs4_CseYC8vFNOjrM_2ccNtB7_5Build20apple_sdk_root_inner0B7_, symObjAddr: 0x3800, symBinAddr: 0x100005720, symSize: 0xC0 }
  - { offset: 0x7994, size: 0x8, addend: 0x0, symName: __RNCNCNvMs4_CseYC8vFNOjrM_2ccNtB9_5Build23apple_deployment_targets0_00B9_, symObjAddr: 0xBC0, symBinAddr: 0x100002C70, symSize: 0x70 }
  - { offset: 0x79DA, size: 0x8, addend: 0x0, symName: __RNCNCNvMs4_CseYC8vFNOjrM_2ccNtB9_5Build23apple_deployment_targets_00B9_, symObjAddr: 0xC30, symBinAddr: 0x100002CE0, symSize: 0x60 }
  - { offset: 0x7A2C, size: 0x8, addend: 0x0, symName: __RNCNCNvMs4_CseYC8vFNOjrM_2ccNtB9_5Build23apple_deployment_targets_0s0_0B9_, symObjAddr: 0xC90, symBinAddr: 0x100002D40, symSize: 0x30 }
  - { offset: 0x7A6F, size: 0x8, addend: 0x0, symName: __RNCNCNvMs4_CseYC8vFNOjrM_2ccNtB9_5Build23apple_deployment_targets_0s_0B9_, symObjAddr: 0xCC0, symBinAddr: 0x100002D70, symSize: 0x20 }
  - { offset: 0x7AAC, size: 0x8, addend: 0x0, symName: __RNCNvMs4_CseYC8vFNOjrM_2ccNtB7_5Build23apple_deployment_target0B7_, symObjAddr: 0x3960, symBinAddr: 0x100005880, symSize: 0x380 }
  - { offset: 0x7B53, size: 0x8, addend: 0x0, symName: __RNCNvMs4_CseYC8vFNOjrM_2ccNtB7_5Build23apple_deployment_targets0_0B7_, symObjAddr: 0x3CE0, symBinAddr: 0x100005C00, symSize: 0x3E0 }
  - { offset: 0x7C3F, size: 0x8, addend: 0x0, symName: __RNCNvMs4_CseYC8vFNOjrM_2ccNtB7_5Build23apple_deployment_targets1_0B7_, symObjAddr: 0x40C0, symBinAddr: 0x100005FE0, symSize: 0x130 }
  - { offset: 0x7C98, size: 0x8, addend: 0x0, symName: __RNCNvMs4_CseYC8vFNOjrM_2ccNtB7_5Build23apple_deployment_targets2_0B7_, symObjAddr: 0x41F0, symBinAddr: 0x100006110, symSize: 0x30 }
  - { offset: 0x7CC2, size: 0x8, addend: 0x0, symName: __RNCNvMs4_CseYC8vFNOjrM_2ccNtB7_5Build23apple_deployment_targets3_0B7_, symObjAddr: 0x4220, symBinAddr: 0x100006140, symSize: 0x30 }
  - { offset: 0x7CEC, size: 0x8, addend: 0x0, symName: __RNCNvMs4_CseYC8vFNOjrM_2ccNtB7_5Build23apple_deployment_targets4_0B7_, symObjAddr: 0x4250, symBinAddr: 0x100006170, symSize: 0x30 }
  - { offset: 0x7D16, size: 0x8, addend: 0x0, symName: __RNCNvMs4_CseYC8vFNOjrM_2ccNtB7_5Build23apple_deployment_targets5_0B7_, symObjAddr: 0x4280, symBinAddr: 0x1000061A0, symSize: 0x30 }
  - { offset: 0x7D40, size: 0x8, addend: 0x0, symName: __RNCNvMs4_CseYC8vFNOjrM_2ccNtB7_5Build23apple_deployment_targets_0B7_, symObjAddr: 0x42B0, symBinAddr: 0x1000061D0, symSize: 0x1A0 }
  - { offset: 0x7E33, size: 0x8, addend: 0x0, symName: __RNCNCNvMs4_CseYC8vFNOjrM_2ccNtB9_5Build23find_working_gnu_prefix00B9_, symObjAddr: 0xCE0, symBinAddr: 0x100002D90, symSize: 0x310 }
  - { offset: 0x7F37, size: 0x8, addend: 0x0, symName: __RNCNvMs4_CseYC8vFNOjrM_2ccNtB7_5Build23find_working_gnu_prefix0B7_, symObjAddr: 0x4450, symBinAddr: 0x100006370, symSize: 0x50 }
  - { offset: 0x7F9F, size: 0x8, addend: 0x0, symName: __RNCNvMs4_CseYC8vFNOjrM_2ccNtB7_5Build23find_working_gnu_prefixs_0B7_, symObjAddr: 0x44A0, symBinAddr: 0x1000063C0, symSize: 0x40 }
  - { offset: 0x7FDA, size: 0x8, addend: 0x0, symName: __RNCNCNvMs4_CseYC8vFNOjrM_2ccNtB9_5Build25get_base_archiver_variants_00B9_, symObjAddr: 0xFF0, symBinAddr: 0x1000030A0, symSize: 0x30 }
  - { offset: 0x801B, size: 0x8, addend: 0x0, symName: __RNCNvMs4_CseYC8vFNOjrM_2ccNtB7_5Build25get_base_archiver_variant0B7_, symObjAddr: 0x4540, symBinAddr: 0x100006460, symSize: 0x200 }
  - { offset: 0x80BA, size: 0x8, addend: 0x0, symName: __RNCNvMs4_CseYC8vFNOjrM_2ccNtB7_5Build25get_base_archiver_variants0_0B7_, symObjAddr: 0x4740, symBinAddr: 0x100006660, symSize: 0x160 }
  - { offset: 0x8113, size: 0x8, addend: 0x0, symName: __RNCNvMs4_CseYC8vFNOjrM_2ccNtB7_5Build25get_base_archiver_variants1_0B7_, symObjAddr: 0x48A0, symBinAddr: 0x1000067C0, symSize: 0x3A0 }
  - { offset: 0x822F, size: 0x8, addend: 0x0, symName: __RNCNvMs4_CseYC8vFNOjrM_2ccNtB7_5Build25get_base_archiver_variants2_0B7_, symObjAddr: 0x4C40, symBinAddr: 0x100006B60, symSize: 0x40 }
  - { offset: 0x825F, size: 0x8, addend: 0x0, symName: __RNCNvMs4_CseYC8vFNOjrM_2ccNtB7_5Build25get_base_archiver_variants_0B7_, symObjAddr: 0x4C80, symBinAddr: 0x100006BA0, symSize: 0x550 }
  - { offset: 0x83BB, size: 0x8, addend: 0x0, symName: __RNCNCNvMs4_CseYC8vFNOjrM_2ccNtB9_5Build5which00B9_, symObjAddr: 0x1020, symBinAddr: 0x1000030D0, symSize: 0xB0 }
  - { offset: 0x83FE, size: 0x8, addend: 0x0, symName: __RNCNvMs4_CseYC8vFNOjrM_2ccNtB7_5Build5which0B7_, symObjAddr: 0x5270, symBinAddr: 0x100007140, symSize: 0x70 }
  - { offset: 0x843E, size: 0x8, addend: 0x0, symName: __RNCNvMs4_CseYC8vFNOjrM_2ccNtB7_5Build5whichs_0B7_, symObjAddr: 0x52E0, symBinAddr: 0x1000071B0, symSize: 0x100 }
  - { offset: 0x84DB, size: 0x8, addend: 0x0, symName: __RNCNCNvMs4_CseYC8vFNOjrM_2ccNtB9_5Build8assembles_00B9_, symObjAddr: 0x10D0, symBinAddr: 0x100003180, symSize: 0x10 }
  - { offset: 0x8514, size: 0x8, addend: 0x0, symName: __RNCNvMs4_CseYC8vFNOjrM_2ccNtB7_5Build8assemble0B7_, symObjAddr: 0x54A0, symBinAddr: 0x100007370, symSize: 0x40 }
  - { offset: 0x854D, size: 0x8, addend: 0x0, symName: __RNCNvMs4_CseYC8vFNOjrM_2ccNtB7_5Build8assembles_0B7_, symObjAddr: 0x54E0, symBinAddr: 0x1000073B0, symSize: 0x90 }
  - { offset: 0x85A8, size: 0x8, addend: 0x0, symName: __RNCNvMs4_CseYC8vFNOjrM_2ccNtB7_5Build11get_out_dir0B7_, symObjAddr: 0x12F0, symBinAddr: 0x100003210, symSize: 0x40 }
  - { offset: 0x85DF, size: 0x8, addend: 0x0, symName: __RNCNvMs4_CseYC8vFNOjrM_2ccNtB7_5Build15cuda_file_count0B7_, symObjAddr: 0x1420, symBinAddr: 0x100003340, symSize: 0x70 }
  - { offset: 0x8625, size: 0x8, addend: 0x0, symName: __RNCNvMs4_CseYC8vFNOjrM_2ccNtB7_5Build17get_base_compiler0B7_, symObjAddr: 0x1490, symBinAddr: 0x1000033B0, symSize: 0x500 }
  - { offset: 0x8709, size: 0x8, addend: 0x0, symName: __RNCNvMs4_CseYC8vFNOjrM_2ccNtB7_5Build17get_base_compilers0_0B7_, symObjAddr: 0x1990, symBinAddr: 0x1000038B0, symSize: 0x30 }
  - { offset: 0x8739, size: 0x8, addend: 0x0, symName: __RNCNvMs4_CseYC8vFNOjrM_2ccNtB7_5Build17get_base_compilers_0B7_, symObjAddr: 0x19C0, symBinAddr: 0x1000038E0, symSize: 0x1A0 }
  - { offset: 0x87A8, size: 0x8, addend: 0x0, symName: __RNCNvMs4_CseYC8vFNOjrM_2ccNtB7_5Build17getenv_unwrap_str0B7_, symObjAddr: 0x1B60, symBinAddr: 0x100003A80, symSize: 0xB0 }
  - { offset: 0x881B, size: 0x8, addend: 0x0, symName: __RNCNvMs4_CseYC8vFNOjrM_2ccNtB7_5Build20find_msvc_tools_find0B7_, symObjAddr: 0x38C0, symBinAddr: 0x1000057E0, symSize: 0x60 }
  - { offset: 0x8862, size: 0x8, addend: 0x0, symName: __RNCNvMs4_CseYC8vFNOjrM_2ccNtB7_5Build20msvc_macro_assembler0B7_, symObjAddr: 0x3920, symBinAddr: 0x100005840, symSize: 0x40 }
  - { offset: 0x88AB, size: 0x8, addend: 0x0, symName: __RNCNvMs4_CseYC8vFNOjrM_2ccNtB7_5Build23get_force_frame_pointer0B7_, symObjAddr: 0x44E0, symBinAddr: 0x100006400, symSize: 0x30 }
  - { offset: 0x88E1, size: 0x8, addend: 0x0, symName: __RNCNvMs4_CseYC8vFNOjrM_2ccNtB7_5Build23get_shell_escaped_flags0B7_, symObjAddr: 0x4510, symBinAddr: 0x100006430, symSize: 0x30 }
  - { offset: 0x8917, size: 0x8, addend: 0x0, symName: __RNCNvMs4_CseYC8vFNOjrM_2ccNtB7_5Build27getenv_with_target_prefixes0B7_, symObjAddr: 0x5220, symBinAddr: 0x1000070F0, symSize: 0x50 }
  - { offset: 0x8970, size: 0x8, addend: 0x0, symName: __RNCNvMs4_CseYC8vFNOjrM_2ccNtB7_5Build6getenv0B7_, symObjAddr: 0x53E0, symBinAddr: 0x1000072B0, symSize: 0x50 }
  - { offset: 0x89C2, size: 0x8, addend: 0x0, symName: __RNCNvMs4_CseYC8vFNOjrM_2ccNtB7_5Build6getenvs0_0B7_, symObjAddr: 0x5430, symBinAddr: 0x100007300, symSize: 0x40 }
  - { offset: 0x89F2, size: 0x8, addend: 0x0, symName: __RNCNvMs4_CseYC8vFNOjrM_2ccNtB7_5Build6getenvs_0B7_, symObjAddr: 0x5470, symBinAddr: 0x100007340, symSize: 0x30 }
  - { offset: 0x8A3D, size: 0x8, addend: 0x0, symName: __RNvNvMs4_CseYC8vFNOjrM_2ccNtB7_5Build6getenv17provided_by_cargo, symObjAddr: 0x21BE0, symBinAddr: 0x100021EE0, symSize: 0x200 }
  - { offset: 0x8AA6, size: 0x8, addend: 0x0, symName: __RNCNvMs4_CseYC8vFNOjrM_2ccNtB7_5Build8env_tool0B7_, symObjAddr: 0x5570, symBinAddr: 0x100007440, symSize: 0x50 }
  - { offset: 0x8ADF, size: 0x8, addend: 0x0, symName: __RNCNvMs4_CseYC8vFNOjrM_2ccNtB7_5Build8env_tools_0B7_, symObjAddr: 0x55C0, symBinAddr: 0x100007490, symSize: 0x50 }
  - { offset: 0x9ADC, size: 0x8, addend: 0x0, symName: __RNvNvCseYC8vFNOjrM_2cc11is_disabled5CACHE, symObjAddr: 0x7312D, symBinAddr: 0x10014E300, symSize: 0x0 }
  - { offset: 0x9AE9, size: 0x8, addend: 0x0, symName: __RNvNvCseYC8vFNOjrM_2cc11is_disabled19compute_is_disabled, symObjAddr: 0x21A10, symBinAddr: 0x100021D10, symSize: 0x1D0 }
  - { offset: 0x9B53, size: 0x8, addend: 0x0, symName: __RINvXsb_CseYC8vFNOjrM_2ccNtB6_12CompilerFlagNtNtCsieiGu2EXtoJ_4core4hash4Hash4hashNtNtNtCsHUR1vrdMJt_3std4hash6random13DefaultHasherEB6_, symObjAddr: 0x8F0, symBinAddr: 0x1000029A0, symSize: 0x40 }
  - { offset: 0x9BA0, size: 0x8, addend: 0x0, symName: __RNCNCNvCseYC8vFNOjrM_2cc27autodetect_android_compiler00B5_, symObjAddr: 0x980, symBinAddr: 0x100002A30, symSize: 0x40 }
  - { offset: 0x9BE1, size: 0x8, addend: 0x0, symName: __RNCNvCseYC8vFNOjrM_2cc27autodetect_android_compiler0B3_, symObjAddr: 0x1110, symBinAddr: 0x1000031C0, symSize: 0x50 }
  - { offset: 0x9C27, size: 0x8, addend: 0x0, symName: __RNCNvCseYC8vFNOjrM_2cc21is_llvm_mingw_wrapper0B3_, symObjAddr: 0x10E0, symBinAddr: 0x100003190, symSize: 0x30 }
  - { offset: 0x9C68, size: 0x8, addend: 0x0, symName: __RNvCseYC8vFNOjrM_2cc11is_disabled, symObjAddr: 0x5610, symBinAddr: 0x1000074E0, symSize: 0xD0 }
  - { offset: 0x9CD1, size: 0x8, addend: 0x0, symName: __RNvCseYC8vFNOjrM_2cc14check_disabled, symObjAddr: 0x56E0, symBinAddr: 0x1000075B0, symSize: 0x90 }
  - { offset: 0x9CEF, size: 0x8, addend: 0x0, symName: __RNvCseYC8vFNOjrM_2cc21is_llvm_mingw_wrapper, symObjAddr: 0x5770, symBinAddr: 0x100007640, symSize: 0xD0 }
  - { offset: 0x9D33, size: 0x8, addend: 0x0, symName: __RNvCseYC8vFNOjrM_2cc27autodetect_android_compiler, symObjAddr: 0x5840, symBinAddr: 0x100007710, symSize: 0x9B0 }
  - { offset: 0x9F27, size: 0x8, addend: 0x0, symName: __RNvCseYC8vFNOjrM_2cc49android_clang_compiler_uses_target_arg_internally, symObjAddr: 0x61F0, symBinAddr: 0x1000080C0, symSize: 0x150 }
  - { offset: 0x9F97, size: 0x8, addend: 0x0, symName: __RNvCseYC8vFNOjrM_2cc4fail, symObjAddr: 0x6340, symBinAddr: 0x100008210, symSize: 0x60 }
  - { offset: 0x9FE0, size: 0x8, addend: 0x0, symName: __RNvCseYC8vFNOjrM_2cc52map_darwin_target_from_rust_to_compiler_architecture, symObjAddr: 0x63A0, symBinAddr: 0x100008270, symSize: 0x310 }
  - { offset: 0xA02C, size: 0x8, addend: 0x0, symName: __RNvCseYC8vFNOjrM_2cc6is_arm, symObjAddr: 0x66B0, symBinAddr: 0x100008580, symSize: 0xB0 }
  - { offset: 0xA05A, size: 0x8, addend: 0x0, symName: __RNvCseYC8vFNOjrM_2cc9check_exe, symObjAddr: 0x6760, symBinAddr: 0x100008630, symSize: 0x180 }
  - { offset: 0xA0C4, size: 0x8, addend: 0x0, symName: __RNvXs0_CseYC8vFNOjrM_2ccNtB5_5ErrorNtNtCsieiGu2EXtoJ_4core3fmt7Display3fmt, symObjAddr: 0x21EA0, symBinAddr: 0x1000221A0, symSize: 0xB0 }
  - { offset: 0xA13C, size: 0x8, addend: 0x0, symName: __RNvXs_CseYC8vFNOjrM_2ccNtB4_5ErrorINtNtCsieiGu2EXtoJ_4core7convert4FromNtNtNtCsHUR1vrdMJt_3std2io5error5ErrorE4from, symObjAddr: 0x21FE0, symBinAddr: 0x1000222B0, symSize: 0xF0 }
  - { offset: 0xA1AE, size: 0x8, addend: 0x0, symName: __RNvXsa_CseYC8vFNOjrM_2ccNtB5_12CompilerFlagNtNtCsieiGu2EXtoJ_4core3cmp9PartialEq2eqB5_, symObjAddr: 0x22120, symBinAddr: 0x1000223F0, symSize: 0x50 }
  - { offset: 0xA1F1, size: 0x8, addend: 0x0, symName: __RNvXsd_CseYC8vFNOjrM_2ccNtB5_10BuildCacheNtNtCsieiGu2EXtoJ_4core7default7Default7defaultB5_, symObjAddr: 0x22170, symBinAddr: 0x100022440, symSize: 0x1D0 }
  - { offset: 0xA215, size: 0x8, addend: 0x0, symName: __RNvXsg_CseYC8vFNOjrM_2ccNtB5_9ErrorKindNtNtCsieiGu2EXtoJ_4core5clone5Clone5cloneB5_, symObjAddr: 0x22340, symBinAddr: 0x100022610, symSize: 0xA0 }
  - { offset: 0xA249, size: 0x8, addend: 0x0, symName: __RNvXsh_CseYC8vFNOjrM_2ccNtB5_9ErrorKindNtNtCsieiGu2EXtoJ_4core3fmt5Debug3fmtB5_, symObjAddr: 0x223E0, symBinAddr: 0x1000226B0, symSize: 0x170 }
  - { offset: 0xA28C, size: 0x8, addend: 0x0, symName: __RNvXsi_CseYC8vFNOjrM_2ccNtB5_5ErrorNtNtCsieiGu2EXtoJ_4core5clone5Clone5cloneB5_, symObjAddr: 0x22550, symBinAddr: 0x100022820, symSize: 0x70 }
  - { offset: 0xA2C0, size: 0x8, addend: 0x0, symName: __RNvXsj_CseYC8vFNOjrM_2ccNtB5_5ErrorNtNtCsieiGu2EXtoJ_4core3fmt5Debug3fmtB5_, symObjAddr: 0x225C0, symBinAddr: 0x100022890, symSize: 0x90 }
  - { offset: 0xA303, size: 0x8, addend: 0x0, symName: __RNvXsp_CseYC8vFNOjrM_2ccNtB5_10AsmFileExtNtNtCsieiGu2EXtoJ_4core3cmp9PartialEq2eqB5_, symObjAddr: 0x22650, symBinAddr: 0x100022920, symSize: 0x30 }
  - { offset: 0xBE69, size: 0x8, addend: 0x0, symName: __RNvXCsjK30CmJ87bX_9hashbrownNtCseYC8vFNOjrM_2cc12CompilerFlagINtB2_10EquivalentBq_E10equivalentBs_, symObjAddr: 0x21DE0, symBinAddr: 0x1000220E0, symSize: 0x50 }
  - { offset: 0xC121, size: 0x8, addend: 0x0, symName: __RINvMCseYC8vFNOjrM_2ccNtB3_5Error3newNtNtCslJiobkLta79_5alloc6string6StringEB3_, symObjAddr: 0x0, symBinAddr: 0x1000020B0, symSize: 0x70 }
  - { offset: 0xC15D, size: 0x8, addend: 0x0, symName: __RINvMCseYC8vFNOjrM_2ccNtB3_5Error3newReEB3_, symObjAddr: 0x70, symBinAddr: 0x100002120, symSize: 0x80 }
  - { offset: 0xC1C3, size: 0x8, addend: 0x0, symName: __RINvMs3_CseYC8vFNOjrM_2ccNtB6_5Build4flagRNtNtNtCsHUR1vrdMJt_3std3ffi6os_str5OsStrEB6_, symObjAddr: 0xF0, symBinAddr: 0x1000021A0, symSize: 0xA0 }
  - { offset: 0xC21C, size: 0x8, addend: 0x0, symName: __RINvMs3_CseYC8vFNOjrM_2ccNtB6_5Build8compilerRNtNtCsHUR1vrdMJt_3std4path4PathEB6_, symObjAddr: 0x190, symBinAddr: 0x100002240, symSize: 0xE0 }
  - { offset: 0xC396, size: 0x8, addend: 0x0, symName: __RINvMs4_CseYC8vFNOjrM_2ccNtB6_5Build3cmdNtNtCsHUR1vrdMJt_3std4path7PathBufEB6_, symObjAddr: 0x270, symBinAddr: 0x100002320, symSize: 0x190 }
  - { offset: 0xC426, size: 0x8, addend: 0x0, symName: __RINvMs4_CseYC8vFNOjrM_2ccNtB6_5Build3cmdRNtNtCsHUR1vrdMJt_3std4path4PathEB6_, symObjAddr: 0x400, symBinAddr: 0x1000024B0, symSize: 0x1A0 }
  - { offset: 0xC4C2, size: 0x8, addend: 0x0, symName: __RINvMs4_CseYC8vFNOjrM_2ccNtB6_5Build3cmdRNtNtCsHUR1vrdMJt_3std4path7PathBufEB6_, symObjAddr: 0x5A0, symBinAddr: 0x100002650, symSize: 0x190 }
  - { offset: 0xC551, size: 0x8, addend: 0x0, symName: __RINvMs4_CseYC8vFNOjrM_2ccNtB6_5Build3cmdReEB6_, symObjAddr: 0x730, symBinAddr: 0x1000027E0, symSize: 0x1A0 }
  - { offset: 0xC5E0, size: 0x8, addend: 0x0, symName: __RNvMs2_CseYC8vFNOjrM_2ccNtB5_6Object3new, symObjAddr: 0x6900, symBinAddr: 0x1000087D0, symSize: 0x40 }
  - { offset: 0xC612, size: 0x8, addend: 0x0, symName: __RNvMs3_CseYC8vFNOjrM_2ccNtB5_5Build14cargo_metadata, symObjAddr: 0x6B40, symBinAddr: 0x100008810, symSize: 0x30 }
  - { offset: 0xC644, size: 0x8, addend: 0x0, symName: __RNvMs3_CseYC8vFNOjrM_2ccNtB5_5Build17inherit_rustflags, symObjAddr: 0x6C00, symBinAddr: 0x100008840, symSize: 0x30 }
  - { offset: 0xC676, size: 0x8, addend: 0x0, symName: __RNvMs3_CseYC8vFNOjrM_2ccNtB5_5Build25emit_rerun_if_env_changed, symObjAddr: 0x6CF0, symBinAddr: 0x100008870, symSize: 0x30 }
  - { offset: 0xC6A8, size: 0x8, addend: 0x0, symName: __RNvMs3_CseYC8vFNOjrM_2ccNtB5_5Build3cpp, symObjAddr: 0x7050, symBinAddr: 0x1000088A0, symSize: 0x30 }
  - { offset: 0xC6DA, size: 0x8, addend: 0x0, symName: __RNvMs3_CseYC8vFNOjrM_2ccNtB5_5Build3new, symObjAddr: 0x7080, symBinAddr: 0x1000088D0, symSize: 0x690 }
  - { offset: 0xC6ED, size: 0x8, addend: 0x0, symName: __RNvMs3_CseYC8vFNOjrM_2ccNtB5_5Build4cuda, symObjAddr: 0x77F0, symBinAddr: 0x100008F60, symSize: 0xD0 }
  - { offset: 0xC71F, size: 0x8, addend: 0x0, symName: __RNvMs3_CseYC8vFNOjrM_2ccNtB5_5Build4host, symObjAddr: 0x78C0, symBinAddr: 0x100009030, symSize: 0xB0 }
  - { offset: 0xC751, size: 0x8, addend: 0x0, symName: __RNvMs3_CseYC8vFNOjrM_2ccNtB5_5Build5debug, symObjAddr: 0x79A0, symBinAddr: 0x1000090E0, symSize: 0xB0 }
  - { offset: 0xC783, size: 0x8, addend: 0x0, symName: __RNvMs3_CseYC8vFNOjrM_2ccNtB5_5Build6target, symObjAddr: 0x7B10, symBinAddr: 0x100009190, symSize: 0xB0 }
  - { offset: 0xC7E7, size: 0x8, addend: 0x0, symName: __RNvMs3_CseYC8vFNOjrM_2ccNtB5_5Build9opt_level, symObjAddr: 0x7D20, symBinAddr: 0x100009240, symSize: 0xB0 }
  - { offset: 0xC819, size: 0x8, addend: 0x0, symName: __RNvMs4_CseYC8vFNOjrM_2ccNtB5_5Build10get_target, symObjAddr: 0x7EE0, symBinAddr: 0x1000092F0, symSize: 0x1C0 }
  - { offset: 0xC896, size: 0x8, addend: 0x0, symName: __RNvMs4_CseYC8vFNOjrM_2ccNtB5_5Build11apple_flags, symObjAddr: 0x8550, symBinAddr: 0x1000094B0, symSize: 0xC00 }
  - { offset: 0xCA2A, size: 0x8, addend: 0x0, symName: __RNvMs4_CseYC8vFNOjrM_2ccNtB5_5Build11get_out_dir, symObjAddr: 0x9150, symBinAddr: 0x10000A0B0, symSize: 0x170 }
  - { offset: 0xCA78, size: 0x8, addend: 0x0, symName: __RNvMs4_CseYC8vFNOjrM_2ccNtB5_5Build11target_envs, symObjAddr: 0x92C0, symBinAddr: 0x10000A220, symSize: 0x6A0 }
  - { offset: 0xCCC0, size: 0x8, addend: 0x0, symName: __RNvMs4_CseYC8vFNOjrM_2ccNtB5_5Build11try_compile, symObjAddr: 0x9960, symBinAddr: 0x10000A8C0, symSize: 0x1F50 }
  - { offset: 0xD1D2, size: 0x8, addend: 0x0, symName: __RNvMs4_CseYC8vFNOjrM_2ccNtB5_5Build12get_compiler, symObjAddr: 0xB9C0, symBinAddr: 0x10000C810, symSize: 0x110 }
  - { offset: 0xD20B, size: 0x8, addend: 0x0, symName: __RNvMs4_CseYC8vFNOjrM_2ccNtB5_5Build12prefer_clang, symObjAddr: 0xBAD0, symBinAddr: 0x10000C920, symSize: 0x130 }
  - { offset: 0xD244, size: 0x8, addend: 0x0, symName: __RNvMs4_CseYC8vFNOjrM_2ccNtB5_5Build12wasi_sysroot, symObjAddr: 0xBC00, symBinAddr: 0x10000CA50, symSize: 0xE0 }
  - { offset: 0xD285, size: 0x8, addend: 0x0, symName: __RNvMs4_CseYC8vFNOjrM_2ccNtB5_5Build13get_debug_str, symObjAddr: 0xBCE0, symBinAddr: 0x10000CB30, symSize: 0xE0 }
  - { offset: 0xD2C6, size: 0x8, addend: 0x0, symName: __RNvMs4_CseYC8vFNOjrM_2ccNtB5_5Build13get_opt_level, symObjAddr: 0xBDC0, symBinAddr: 0x10000CC10, symSize: 0xE0 }
  - { offset: 0xD307, size: 0x8, addend: 0x0, symName: __RNvMs4_CseYC8vFNOjrM_2ccNtB5_5Build13getenv_unwrap, symObjAddr: 0xBEA0, symBinAddr: 0x10000CCF0, symSize: 0x180 }
  - { offset: 0xD3A2, size: 0x8, addend: 0x0, symName: __RNvMs4_CseYC8vFNOjrM_2ccNtB5_5Build14apple_sdk_root, symObjAddr: 0xC020, symBinAddr: 0x10000CE70, symSize: 0x4C0 }
  - { offset: 0xD456, size: 0x8, addend: 0x0, symName: __RNvMs4_CseYC8vFNOjrM_2ccNtB5_5Build14get_raw_target, symObjAddr: 0xC4E0, symBinAddr: 0x10000D330, symSize: 0xE0 }
  - { offset: 0xD497, size: 0x8, addend: 0x0, symName: __RNvMs4_CseYC8vFNOjrM_2ccNtB5_5Build14getenv_boolean, symObjAddr: 0xC5C0, symBinAddr: 0x10000D410, symSize: 0x1A0 }
  - { offset: 0xD507, size: 0x8, addend: 0x0, symName: __RNvMs4_CseYC8vFNOjrM_2ccNtB5_5Build15compile_objects, symObjAddr: 0xCA40, symBinAddr: 0x10000D5B0, symSize: 0x3D0 }
  - { offset: 0xD5FA, size: 0x8, addend: 0x0, symName: __RNvMs4_CseYC8vFNOjrM_2ccNtB5_5Build15cuda_file_count, symObjAddr: 0xCE10, symBinAddr: 0x10000D980, symSize: 0x50 }
  - { offset: 0xD62A, size: 0x8, addend: 0x0, symName: __RNvMs4_CseYC8vFNOjrM_2ccNtB5_5Build15search_programs, symObjAddr: 0xD050, symBinAddr: 0x10000D9D0, symSize: 0x480 }
  - { offset: 0xD742, size: 0x8, addend: 0x0, symName: __RNvMs4_CseYC8vFNOjrM_2ccNtB5_5Build16try_get_archiver, symObjAddr: 0xD4D0, symBinAddr: 0x10000DE50, symSize: 0x150 }
  - { offset: 0xD7A3, size: 0x8, addend: 0x0, symName: __RNvMs4_CseYC8vFNOjrM_2ccNtB5_5Build16try_get_compiler, symObjAddr: 0xD620, symBinAddr: 0x10000DFA0, symSize: 0x1700 }
  - { offset: 0xDC27, size: 0x8, addend: 0x0, symName: __RNvMs4_CseYC8vFNOjrM_2ccNtB5_5Build17add_default_flags, symObjAddr: 0xED20, symBinAddr: 0x10000F6A0, symSize: 0x4910 }
  - { offset: 0xE1AE, size: 0x8, addend: 0x0, symName: __RNvMs4_CseYC8vFNOjrM_2ccNtB5_5Build17ensure_check_file, symObjAddr: 0x13630, symBinAddr: 0x100013FB0, symSize: 0x4E0 }
  - { offset: 0xE2C4, size: 0x8, addend: 0x0, symName: __RNvMs4_CseYC8vFNOjrM_2ccNtB5_5Build17get_base_archiver, symObjAddr: 0x13B10, symBinAddr: 0x100014490, symSize: 0x180 }
  - { offset: 0xE313, size: 0x8, addend: 0x0, symName: __RNvMs4_CseYC8vFNOjrM_2ccNtB5_5Build17get_base_compiler, symObjAddr: 0x13C90, symBinAddr: 0x100014610, symSize: 0x22B0 }
  - { offset: 0xE7EB, size: 0x8, addend: 0x0, symName: __RNvMs4_CseYC8vFNOjrM_2ccNtB5_5Build17get_dwarf_version, symObjAddr: 0x15F40, symBinAddr: 0x1000168C0, symSize: 0x2A0 }
  - { offset: 0xE86A, size: 0x8, addend: 0x0, symName: __RNvMs4_CseYC8vFNOjrM_2ccNtB5_5Build17getenv_unwrap_str, symObjAddr: 0x161E0, symBinAddr: 0x100016B60, symSize: 0x1B0 }
  - { offset: 0xE8F1, size: 0x8, addend: 0x0, symName: __RNvMs4_CseYC8vFNOjrM_2ccNtB5_5Build17prefix_for_target, symObjAddr: 0x16390, symBinAddr: 0x100016D10, symSize: 0x100 }
  - { offset: 0xE925, size: 0x8, addend: 0x0, symName: __RNvMs4_CseYC8vFNOjrM_2ccNtB5_5Build17wasm_musl_sysroot, symObjAddr: 0x16490, symBinAddr: 0x100016E10, symSize: 0xE0 }
  - { offset: 0xE966, size: 0x8, addend: 0x0, symName: __RNvMs4_CseYC8vFNOjrM_2ccNtB5_5Build19get_cpp_link_stdlib, symObjAddr: 0x16570, symBinAddr: 0x100016EF0, symSize: 0x830 }
  - { offset: 0xEA1B, size: 0x8, addend: 0x0, symName: __RNvMs4_CseYC8vFNOjrM_2ccNtB5_5Build20apple_sdk_root_inner, symObjAddr: 0x16DA0, symBinAddr: 0x100017720, symSize: 0xB10 }
  - { offset: 0xEB44, size: 0x8, addend: 0x0, symName: __RNvMs4_CseYC8vFNOjrM_2ccNtB5_5Build20assemble_progressive, symObjAddr: 0x178B0, symBinAddr: 0x100018230, symSize: 0x740 }
  - { offset: 0xEC7E, size: 0x8, addend: 0x0, symName: __RNvMs4_CseYC8vFNOjrM_2ccNtB5_5Build20find_msvc_tools_find, symObjAddr: 0x17FF0, symBinAddr: 0x100018970, symSize: 0x60 }
  - { offset: 0xECCC, size: 0x8, addend: 0x0, symName: __RNvMs4_CseYC8vFNOjrM_2ccNtB5_5Build20fix_env_for_apple_os, symObjAddr: 0x18050, symBinAddr: 0x1000189D0, symSize: 0x170 }
  - { offset: 0xED5B, size: 0x8, addend: 0x0, symName: __RNvMs4_CseYC8vFNOjrM_2ccNtB5_5Build20get_is_cross_compile, symObjAddr: 0x181C0, symBinAddr: 0x100018B40, symSize: 0x360 }
  - { offset: 0xEE1F, size: 0x8, addend: 0x0, symName: __RNvMs4_CseYC8vFNOjrM_2ccNtB5_5Build20msvc_macro_assembler, symObjAddr: 0x18520, symBinAddr: 0x100018EA0, symSize: 0xE40 }
  - { offset: 0xF18B, size: 0x8, addend: 0x0, symName: __RNvMs4_CseYC8vFNOjrM_2ccNtB5_5Build22rustc_wrapper_fallback, symObjAddr: 0x19450, symBinAddr: 0x100019CE0, symSize: 0x340 }
  - { offset: 0xF27C, size: 0x8, addend: 0x0, symName: __RNvMs4_CseYC8vFNOjrM_2ccNtB5_5Build23add_inherited_rustflags, symObjAddr: 0x19790, symBinAddr: 0x10001A020, symSize: 0x2E0 }
  - { offset: 0xF366, size: 0x8, addend: 0x0, symName: __RNvMs4_CseYC8vFNOjrM_2ccNtB5_5Build23apple_deployment_target, symObjAddr: 0x19A70, symBinAddr: 0x10001A300, symSize: 0x720 }
  - { offset: 0xF460, size: 0x8, addend: 0x0, symName: __RNvMs4_CseYC8vFNOjrM_2ccNtB5_5Build23find_working_gnu_prefix, symObjAddr: 0x1A190, symBinAddr: 0x10001AA20, symSize: 0x160 }
  - { offset: 0xF4C1, size: 0x8, addend: 0x0, symName: __RNvMs4_CseYC8vFNOjrM_2ccNtB5_5Build23get_force_frame_pointer, symObjAddr: 0x1A2F0, symBinAddr: 0x10001AB80, symSize: 0x40 }
  - { offset: 0xF4E4, size: 0x8, addend: 0x0, symName: __RNvMs4_CseYC8vFNOjrM_2ccNtB5_5Build23get_shell_escaped_flags, symObjAddr: 0x1A330, symBinAddr: 0x10001ABC0, symSize: 0x40 }
  - { offset: 0xF59A, size: 0x8, addend: 0x0, symName: __RNvMs4_CseYC8vFNOjrM_2ccNtB5_5Build23is_flag_supported_inner, symObjAddr: 0x1A370, symBinAddr: 0x10001AC00, symSize: 0x1280 }
  - { offset: 0xF89C, size: 0x8, addend: 0x0, symName: __RNvMs4_CseYC8vFNOjrM_2ccNtB5_5Build24autodetect_wasi_compiler, symObjAddr: 0x1B5F0, symBinAddr: 0x10001BE80, symSize: 0x360 }
  - { offset: 0xF970, size: 0x8, addend: 0x0, symName: __RNvMs4_CseYC8vFNOjrM_2ccNtB5_5Build25create_compile_object_cmd, symObjAddr: 0x1B950, symBinAddr: 0x10001C1E0, symSize: 0x960 }
  - { offset: 0xFB85, size: 0x8, addend: 0x0, symName: __RNvMs4_CseYC8vFNOjrM_2ccNtB5_5Build25find_msvc_tools_find_tool, symObjAddr: 0x1C2B0, symBinAddr: 0x10001CB40, symSize: 0xD0 }
  - { offset: 0xFBC6, size: 0x8, addend: 0x0, symName: __RNvMs4_CseYC8vFNOjrM_2ccNtB5_5Build25get_base_archiver_variant, symObjAddr: 0x1C380, symBinAddr: 0x10001CC10, symSize: 0x1AE0 }
  - { offset: 0x1005B, size: 0x8, addend: 0x0, symName: __RNvMs4_CseYC8vFNOjrM_2ccNtB5_5Build26try_get_archiver_and_flags, symObjAddr: 0x1E300, symBinAddr: 0x10001E6F0, symSize: 0x480 }
  - { offset: 0x1013F, size: 0x8, addend: 0x0, symName: __RNvMs4_CseYC8vFNOjrM_2ccNtB5_5Build27getenv_with_target_prefixes, symObjAddr: 0x1E780, symBinAddr: 0x10001EB70, symSize: 0x370 }
  - { offset: 0x1022C, size: 0x8, addend: 0x0, symName: __RNvMs4_CseYC8vFNOjrM_2ccNtB5_5Build5which, symObjAddr: 0x1EAF0, symBinAddr: 0x10001EEE0, symSize: 0x100 }
  - { offset: 0x1030C, size: 0x8, addend: 0x0, symName: __RNvMs4_CseYC8vFNOjrM_2ccNtB5_5Build6getenv, symObjAddr: 0x1ECE0, symBinAddr: 0x10001EFE0, symSize: 0x6B0 }
  - { offset: 0x1043E, size: 0x8, addend: 0x0, symName: __RNvMs4_CseYC8vFNOjrM_2ccNtB5_5Build7compile, symObjAddr: 0x1F390, symBinAddr: 0x10001F690, symSize: 0xD0 }
  - { offset: 0x10487, size: 0x8, addend: 0x0, symName: __RNvMs4_CseYC8vFNOjrM_2ccNtB5_5Build8assemble, symObjAddr: 0x1F460, symBinAddr: 0x10001F760, symSize: 0xDF0 }
  - { offset: 0x1076A, size: 0x8, addend: 0x0, symName: __RNvMs4_CseYC8vFNOjrM_2ccNtB5_5Build8env_tool, symObjAddr: 0x20250, symBinAddr: 0x100020550, symSize: 0xE70 }
  - { offset: 0x10981, size: 0x8, addend: 0x0, symName: __RNvMs4_CseYC8vFNOjrM_2ccNtB5_5Build8envflags, symObjAddr: 0x210C0, symBinAddr: 0x1000213C0, symSize: 0x580 }
  - { offset: 0x10A7A, size: 0x8, addend: 0x0, symName: __RNvMs4_CseYC8vFNOjrM_2ccNtB5_5Build9get_debug, symObjAddr: 0x21640, symBinAddr: 0x100021940, symSize: 0x210 }
  - { offset: 0x10AB3, size: 0x8, addend: 0x0, symName: __RNvMs6_CseYC8vFNOjrM_2ccNtB5_10AsmFileExt9from_path, symObjAddr: 0x21850, symBinAddr: 0x100021B50, symSize: 0x1C0 }
  - { offset: 0x111ED, size: 0x8, addend: 0x0, symName: __RINvMs6_NtCsjK30CmJ87bX_9hashbrown3rawINtB6_8RawTableTINtNtCslJiobkLta79_5alloc5boxed3BoxSIBR_NtNtNtCsHUR1vrdMJt_3std3ffi6os_str5OsStrEENtNtCseYC8vFNOjrM_2cc4tool10ToolFamilyEE14reserve_rehashNCINvNtB8_3map11make_hasherBQ_B2a_NtNtNtB1A_4hash6random11RandomStateE0EB2e_, symObjAddr: 0x0, symBinAddr: 0x1000FB460, symSize: 0xD70 }
  - { offset: 0x11229, size: 0x8, addend: 0x0, symName: __RNCINvMs6_NtCsjK30CmJ87bX_9hashbrown3rawINtB8_8RawTableTINtNtCslJiobkLta79_5alloc5boxed3BoxSIBT_NtNtNtCsHUR1vrdMJt_3std3ffi6os_str5OsStrEENtNtCseYC8vFNOjrM_2cc4tool10ToolFamilyEE14reserve_rehashNCINvNtBa_3map11make_hasherBS_B2c_NtNtNtB1C_4hash6random11RandomStateE0E0B2g_, symObjAddr: 0x8510, symBinAddr: 0x100026B50, symSize: 0xB0 }
  - { offset: 0x113EF, size: 0x8, addend: 0x0, symName: __RNCINvMs6_NtCsjK30CmJ87bX_9hashbrown3rawINtB8_8RawTableTINtNtCslJiobkLta79_5alloc5boxed3BoxSIBT_NtNtNtCsHUR1vrdMJt_3std3ffi6os_str5OsStrEENtNtCseYC8vFNOjrM_2cc4tool10ToolFamilyEE14reserve_rehashNCINvNtBa_3map11make_hasherBS_B2c_NtNtNtB1C_4hash6random11RandomStateE0Es_0B2g_, symObjAddr: 0x85C0, symBinAddr: 0x100026C00, symSize: 0x30 }
  - { offset: 0x1143F, size: 0x8, addend: 0x0, symName: __RNCINvMs6_NtCsjK30CmJ87bX_9hashbrown3rawINtB8_8RawTableTINtNtCslJiobkLta79_5alloc5boxed3BoxeEINtNtBX_4sync3ArcNtNtNtCsHUR1vrdMJt_3std3ffi6os_str5OsStrEEE14reserve_rehashNCINvNtBa_3map11make_hasherBS_B1t_NtNtNtB1Q_4hash6random11RandomStateE0E0CseYC8vFNOjrM_2cc, symObjAddr: 0x8750, symBinAddr: 0x100026D90, symSize: 0xB0 }
  - { offset: 0x11605, size: 0x8, addend: 0x0, symName: __RNCINvMs6_NtCsjK30CmJ87bX_9hashbrown3rawINtB8_8RawTableTINtNtCslJiobkLta79_5alloc5boxed3BoxeEINtNtBX_4sync3ArcNtNtNtCsHUR1vrdMJt_3std3ffi6os_str5OsStrEEE14reserve_rehashNCINvNtBa_3map11make_hasherBS_B1t_NtNtNtB1Q_4hash6random11RandomStateE0Es_0CseYC8vFNOjrM_2cc, symObjAddr: 0x8800, symBinAddr: 0x100026E40, symSize: 0x30 }
  - { offset: 0x11655, size: 0x8, addend: 0x0, symName: __RNCINvMs6_NtCsjK30CmJ87bX_9hashbrown3rawINtB8_8RawTableTINtNtCslJiobkLta79_5alloc5boxed3BoxeEINtNtBX_4sync3ArceEEE14reserve_rehashNCINvNtBa_3map11make_hasherBS_B1t_NtNtNtCsHUR1vrdMJt_3std4hash6random11RandomStateE0E0CseYC8vFNOjrM_2cc, symObjAddr: 0x8990, symBinAddr: 0x100026FD0, symSize: 0xB0 }
  - { offset: 0x1181B, size: 0x8, addend: 0x0, symName: __RNCINvMs6_NtCsjK30CmJ87bX_9hashbrown3rawINtB8_8RawTableTINtNtCslJiobkLta79_5alloc5boxed3BoxeEINtNtBX_4sync3ArceEEE14reserve_rehashNCINvNtBa_3map11make_hasherBS_B1t_NtNtNtCsHUR1vrdMJt_3std4hash6random11RandomStateE0Es_0CseYC8vFNOjrM_2cc, symObjAddr: 0x8A40, symBinAddr: 0x100027080, symSize: 0x30 }
  - { offset: 0x1186B, size: 0x8, addend: 0x0, symName: __RNCINvMs6_NtCsjK30CmJ87bX_9hashbrown3rawINtB8_8RawTableTINtNtCslJiobkLta79_5alloc5boxed3BoxeEINtNtCsieiGu2EXtoJ_4core6option6OptionINtNtBX_4sync3ArcNtNtNtCsHUR1vrdMJt_3std3ffi6os_str5OsStrEEEE14reserve_rehashNCINvNtBa_3map11make_hasherBS_B1t_NtNtNtB2s_4hash6random11RandomStateE0E0CseYC8vFNOjrM_2cc, symObjAddr: 0x8BD0, symBinAddr: 0x100027210, symSize: 0xB0 }
  - { offset: 0x11A31, size: 0x8, addend: 0x0, symName: __RNCINvMs6_NtCsjK30CmJ87bX_9hashbrown3rawINtB8_8RawTableTINtNtCslJiobkLta79_5alloc5boxed3BoxeEINtNtCsieiGu2EXtoJ_4core6option6OptionINtNtBX_4sync3ArcNtNtNtCsHUR1vrdMJt_3std3ffi6os_str5OsStrEEEE14reserve_rehashNCINvNtBa_3map11make_hasherBS_B1t_NtNtNtB2s_4hash6random11RandomStateE0Es_0CseYC8vFNOjrM_2cc, symObjAddr: 0x8C80, symBinAddr: 0x1000272C0, symSize: 0x30 }
  - { offset: 0x11A81, size: 0x8, addend: 0x0, symName: __RNCINvMs6_NtCsjK30CmJ87bX_9hashbrown3rawINtB8_8RawTableTNtCseYC8vFNOjrM_2cc12CompilerFlagbEE14reserve_rehashNCINvNtBa_3map11make_hasherBS_bNtNtNtCsHUR1vrdMJt_3std4hash6random11RandomStateE0E0BU_, symObjAddr: 0x8E10, symBinAddr: 0x100027450, symSize: 0xB0 }
  - { offset: 0x11C47, size: 0x8, addend: 0x0, symName: __RNCINvMs6_NtCsjK30CmJ87bX_9hashbrown3rawINtB8_8RawTableTNtCseYC8vFNOjrM_2cc12CompilerFlagbEE14reserve_rehashNCINvNtBa_3map11make_hasherBS_bNtNtNtCsHUR1vrdMJt_3std4hash6random11RandomStateE0Es_0BU_, symObjAddr: 0x8EC0, symBinAddr: 0x100027500, symSize: 0x30 }
  - { offset: 0x11CC0, size: 0x8, addend: 0x0, symName: __RNCINvMs6_NtCsjK30CmJ87bX_9hashbrown3rawINtB8_8RawTableTINtNtCslJiobkLta79_5alloc5boxed3BoxSIBT_NtNtNtCsHUR1vrdMJt_3std3ffi6os_str5OsStrEENtNtCseYC8vFNOjrM_2cc4tool10ToolFamilyEE24find_or_find_insert_slotNCINvNtBa_3map14equivalent_keyBS_BS_B2c_E0NCINvB3l_11make_hasherBS_B2c_NtNtNtB1C_4hash6random11RandomStateE0E0B2g_, symObjAddr: 0x85F0, symBinAddr: 0x100026C30, symSize: 0xB0 }
  - { offset: 0x11E96, size: 0x8, addend: 0x0, symName: __RNCINvMs6_NtCsjK30CmJ87bX_9hashbrown3rawINtB8_8RawTableTINtNtCslJiobkLta79_5alloc5boxed3BoxeEINtNtBX_4sync3ArcNtNtNtCsHUR1vrdMJt_3std3ffi6os_str5OsStrEEE24find_or_find_insert_slotNCINvNtBa_3map14equivalent_keyBS_BS_B1t_E0NCINvB2W_11make_hasherBS_B1t_NtNtNtB1Q_4hash6random11RandomStateE0E0CseYC8vFNOjrM_2cc, symObjAddr: 0x8830, symBinAddr: 0x100026E70, symSize: 0xB0 }
  - { offset: 0x1206C, size: 0x8, addend: 0x0, symName: __RNCINvMs6_NtCsjK30CmJ87bX_9hashbrown3rawINtB8_8RawTableTINtNtCslJiobkLta79_5alloc5boxed3BoxeEINtNtBX_4sync3ArceEEE24find_or_find_insert_slotNCINvNtBa_3map14equivalent_keyBS_BS_B1t_E0NCINvB2j_11make_hasherBS_B1t_NtNtNtCsHUR1vrdMJt_3std4hash6random11RandomStateE0E0CseYC8vFNOjrM_2cc, symObjAddr: 0x8A70, symBinAddr: 0x1000270B0, symSize: 0xB0 }
  - { offset: 0x12242, size: 0x8, addend: 0x0, symName: __RNCINvMs6_NtCsjK30CmJ87bX_9hashbrown3rawINtB8_8RawTableTINtNtCslJiobkLta79_5alloc5boxed3BoxeEINtNtCsieiGu2EXtoJ_4core6option6OptionINtNtBX_4sync3ArcNtNtNtCsHUR1vrdMJt_3std3ffi6os_str5OsStrEEEE24find_or_find_insert_slotNCINvNtBa_3map14equivalent_keyBS_BS_B1t_E0NCINvB3z_11make_hasherBS_B1t_NtNtNtB2s_4hash6random11RandomStateE0E0CseYC8vFNOjrM_2cc, symObjAddr: 0x8CB0, symBinAddr: 0x1000272F0, symSize: 0xB0 }
  - { offset: 0x12418, size: 0x8, addend: 0x0, symName: __RNCINvMs6_NtCsjK30CmJ87bX_9hashbrown3rawINtB8_8RawTableTNtCseYC8vFNOjrM_2cc12CompilerFlagbEE24find_or_find_insert_slotNCINvNtBa_3map14equivalent_keyBS_BS_bE0NCINvB1X_11make_hasherBS_bNtNtNtCsHUR1vrdMJt_3std4hash6random11RandomStateE0E0BU_, symObjAddr: 0x8EF0, symBinAddr: 0x100027530, symSize: 0xB0 }
  - { offset: 0x125F4, size: 0x8, addend: 0x0, symName: __RNCINvMs6_NtCsjK30CmJ87bX_9hashbrown3rawINtB8_8RawTableTINtNtCslJiobkLta79_5alloc5boxed3BoxSIBT_NtNtNtCsHUR1vrdMJt_3std3ffi6os_str5OsStrEENtNtCseYC8vFNOjrM_2cc4tool10ToolFamilyEE4findNCINvNtBa_3map14equivalent_keyBS_BS_B2c_E0E0B2g_, symObjAddr: 0x86A0, symBinAddr: 0x100026CE0, symSize: 0xB0 }
  - { offset: 0x127C1, size: 0x8, addend: 0x0, symName: __RNCINvMs6_NtCsjK30CmJ87bX_9hashbrown3rawINtB8_8RawTableTINtNtCslJiobkLta79_5alloc5boxed3BoxeEINtNtBX_4sync3ArcNtNtNtCsHUR1vrdMJt_3std3ffi6os_str5OsStrEEE4findNCINvNtBa_3map14equivalent_keyeBS_B1t_E0E0CseYC8vFNOjrM_2cc, symObjAddr: 0x88E0, symBinAddr: 0x100026F20, symSize: 0xB0 }
  - { offset: 0x1298E, size: 0x8, addend: 0x0, symName: __RNCINvMs6_NtCsjK30CmJ87bX_9hashbrown3rawINtB8_8RawTableTINtNtCslJiobkLta79_5alloc5boxed3BoxeEINtNtBX_4sync3ArceEEE4findNCINvNtBa_3map14equivalent_keyeBS_B1t_E0E0CseYC8vFNOjrM_2cc, symObjAddr: 0x8B20, symBinAddr: 0x100027160, symSize: 0xB0 }
  - { offset: 0x12B5B, size: 0x8, addend: 0x0, symName: __RNCINvMs6_NtCsjK30CmJ87bX_9hashbrown3rawINtB8_8RawTableTINtNtCslJiobkLta79_5alloc5boxed3BoxeEINtNtCsieiGu2EXtoJ_4core6option6OptionINtNtBX_4sync3ArcNtNtNtCsHUR1vrdMJt_3std3ffi6os_str5OsStrEEEE4findNCINvNtBa_3map14equivalent_keyeBS_B1t_E0E0CseYC8vFNOjrM_2cc, symObjAddr: 0x8D60, symBinAddr: 0x1000273A0, symSize: 0xB0 }
  - { offset: 0x12D28, size: 0x8, addend: 0x0, symName: __RNCINvMs6_NtCsjK30CmJ87bX_9hashbrown3rawINtB8_8RawTableTNtCseYC8vFNOjrM_2cc12CompilerFlagbEE4findNCINvNtBa_3map14equivalent_keyBS_BS_bE0E0BU_, symObjAddr: 0x8FA0, symBinAddr: 0x1000275E0, symSize: 0xB0 }
  - { offset: 0x13FF9, size: 0x8, addend: 0x0, symName: __RNCINvMsa_NtCsjK30CmJ87bX_9hashbrown3rawNtB8_13RawTableInner14prepare_resizeNtNtCslJiobkLta79_5alloc5alloc6GlobalE0CseYC8vFNOjrM_2cc, symObjAddr: 0x9050, symBinAddr: 0x100027690, symSize: 0xD0 }
  - { offset: 0x141C7, size: 0x8, addend: 0x0, symName: __RNCNvMsa_NtCsjK30CmJ87bX_9hashbrown3rawNtB7_13RawTableInner15rehash_in_place0CseYC8vFNOjrM_2cc, symObjAddr: 0x9120, symBinAddr: 0x100027760, symSize: 0x250 }
  - { offset: 0x14ECE, size: 0x8, addend: 0x0, symName: __RNvNtCsjK30CmJ87bX_9hashbrown3raw19capacity_to_bucketsCseYC8vFNOjrM_2cc, symObjAddr: 0xB3B0, symBinAddr: 0x1000299F0, symSize: 0x280 }
  - { offset: 0x150E4, size: 0x8, addend: 0x0, symName: __RNvXsg_NtCsjK30CmJ87bX_9hashbrown3rawINtB5_8RawTableTINtNtCslJiobkLta79_5alloc5boxed3BoxSIBQ_NtNtNtCsHUR1vrdMJt_3std3ffi6os_str5OsStrEENtNtCseYC8vFNOjrM_2cc4tool10ToolFamilyEENtNtNtCsieiGu2EXtoJ_4core3ops4drop4Drop4dropB2d_, symObjAddr: 0xB630, symBinAddr: 0x100029C70, symSize: 0x30 }
  - { offset: 0x15120, size: 0x8, addend: 0x0, symName: __RNvXsg_NtCsjK30CmJ87bX_9hashbrown3rawINtB5_8RawTableTINtNtCslJiobkLta79_5alloc5boxed3BoxeEINtNtBU_4sync3ArcNtNtNtCsHUR1vrdMJt_3std3ffi6os_str5OsStrEEENtNtNtCsieiGu2EXtoJ_4core3ops4drop4Drop4dropCseYC8vFNOjrM_2cc, symObjAddr: 0xB660, symBinAddr: 0x100029CA0, symSize: 0x30 }
  - { offset: 0x1515C, size: 0x8, addend: 0x0, symName: __RNvXsg_NtCsjK30CmJ87bX_9hashbrown3rawINtB5_8RawTableTINtNtCslJiobkLta79_5alloc5boxed3BoxeEINtNtBU_4sync3ArceEEENtNtNtCsieiGu2EXtoJ_4core3ops4drop4Drop4dropCseYC8vFNOjrM_2cc, symObjAddr: 0xB690, symBinAddr: 0x100029CD0, symSize: 0x30 }
  - { offset: 0x15198, size: 0x8, addend: 0x0, symName: __RNvXsg_NtCsjK30CmJ87bX_9hashbrown3rawINtB5_8RawTableTINtNtCslJiobkLta79_5alloc5boxed3BoxeEINtNtCsieiGu2EXtoJ_4core6option6OptionINtNtBU_4sync3ArcNtNtNtCsHUR1vrdMJt_3std3ffi6os_str5OsStrEEEENtNtNtB1v_3ops4drop4Drop4dropCseYC8vFNOjrM_2cc, symObjAddr: 0xB6C0, symBinAddr: 0x100029D00, symSize: 0x30 }
  - { offset: 0x151D4, size: 0x8, addend: 0x0, symName: __RNvXsg_NtCsjK30CmJ87bX_9hashbrown3rawINtB5_8RawTableTNtCseYC8vFNOjrM_2cc12CompilerFlagbEENtNtNtCsieiGu2EXtoJ_4core3ops4drop4Drop4dropBR_, symObjAddr: 0xB6F0, symBinAddr: 0x100029D30, symSize: 0x30 }
  - { offset: 0x1A8BC, size: 0x8, addend: 0x0, symName: __RINvMs6_NtCsjK30CmJ87bX_9hashbrown3rawINtB6_8RawTableTINtNtCslJiobkLta79_5alloc5boxed3BoxSIBR_NtNtNtCsHUR1vrdMJt_3std3ffi6os_str5OsStrEENtNtCseYC8vFNOjrM_2cc4tool10ToolFamilyEE14reserve_rehashNCINvNtB8_3map11make_hasherBQ_B2a_NtNtNtB1A_4hash6random11RandomStateE0EB2e_, symObjAddr: 0x0, symBinAddr: 0x1000FB460, symSize: 0xD70 }
  - { offset: 0x1B38F, size: 0x8, addend: 0x0, symName: __RINvMs6_NtCsjK30CmJ87bX_9hashbrown3rawINtB6_8RawTableTINtNtCslJiobkLta79_5alloc5boxed3BoxSIBR_NtNtNtCsHUR1vrdMJt_3std3ffi6os_str5OsStrEENtNtCseYC8vFNOjrM_2cc4tool10ToolFamilyEE24find_or_find_insert_slotNCINvNtB8_3map14equivalent_keyBQ_BQ_B2a_E0NCINvB3j_11make_hasherBQ_B2a_NtNtNtB1A_4hash6random11RandomStateE0EB2e_, symObjAddr: 0xD70, symBinAddr: 0x100022950, symSize: 0x160 }
  - { offset: 0x1B859, size: 0x8, addend: 0x0, symName: __RINvMs6_NtCsjK30CmJ87bX_9hashbrown3rawINtB6_8RawTableTINtNtCslJiobkLta79_5alloc5boxed3BoxSIBR_NtNtNtCsHUR1vrdMJt_3std3ffi6os_str5OsStrEENtNtCseYC8vFNOjrM_2cc4tool10ToolFamilyEE4findNCINvNtB8_3map14equivalent_keyBQ_BQ_B2a_E0EB2e_, symObjAddr: 0xED0, symBinAddr: 0x100022AB0, symSize: 0x480 }
  - { offset: 0x1BD72, size: 0x8, addend: 0x0, symName: __RINvMs6_NtCsjK30CmJ87bX_9hashbrown3rawINtB6_8RawTableTINtNtCslJiobkLta79_5alloc5boxed3BoxSIBR_NtNtNtCsHUR1vrdMJt_3std3ffi6os_str5OsStrEENtNtCseYC8vFNOjrM_2cc4tool10ToolFamilyEE7reserveNCINvNtB8_3map11make_hasherBQ_B2a_NtNtNtB1A_4hash6random11RandomStateE0EB2e_, symObjAddr: 0x1350, symBinAddr: 0x100022F30, symSize: 0xC0 }
  - { offset: 0x1BE4A, size: 0x8, addend: 0x0, symName: __RINvMs6_NtCsjK30CmJ87bX_9hashbrown3rawINtB6_8RawTableTINtNtCslJiobkLta79_5alloc5boxed3BoxeEINtNtBV_4sync3ArcNtNtNtCsHUR1vrdMJt_3std3ffi6os_str5OsStrEEE14reserve_rehashNCINvNtB8_3map11make_hasherBQ_B1r_NtNtNtB1O_4hash6random11RandomStateE0ECseYC8vFNOjrM_2cc, symObjAddr: 0x1410, symBinAddr: 0x1000FC1D0, symSize: 0xD70 }
  - { offset: 0x1C91D, size: 0x8, addend: 0x0, symName: __RINvMs6_NtCsjK30CmJ87bX_9hashbrown3rawINtB6_8RawTableTINtNtCslJiobkLta79_5alloc5boxed3BoxeEINtNtBV_4sync3ArcNtNtNtCsHUR1vrdMJt_3std3ffi6os_str5OsStrEEE24find_or_find_insert_slotNCINvNtB8_3map14equivalent_keyBQ_BQ_B1r_E0NCINvB2U_11make_hasherBQ_B1r_NtNtNtB1O_4hash6random11RandomStateE0ECseYC8vFNOjrM_2cc, symObjAddr: 0x2180, symBinAddr: 0x100022FF0, symSize: 0x160 }
  - { offset: 0x1CBAA, size: 0x8, addend: 0x0, symName: __RINvMs6_NtCsjK30CmJ87bX_9hashbrown3rawINtB6_8RawTableTINtNtCslJiobkLta79_5alloc5boxed3BoxeEINtNtBV_4sync3ArcNtNtNtCsHUR1vrdMJt_3std3ffi6os_str5OsStrEEE4findNCINvNtB8_3map14equivalent_keyeBQ_B1r_E0ECseYC8vFNOjrM_2cc, symObjAddr: 0x22E0, symBinAddr: 0x100023150, symSize: 0x490 }
  - { offset: 0x1D0B6, size: 0x8, addend: 0x0, symName: __RINvMs6_NtCsjK30CmJ87bX_9hashbrown3rawINtB6_8RawTableTINtNtCslJiobkLta79_5alloc5boxed3BoxeEINtNtBV_4sync3ArcNtNtNtCsHUR1vrdMJt_3std3ffi6os_str5OsStrEEE7reserveNCINvNtB8_3map11make_hasherBQ_B1r_NtNtNtB1O_4hash6random11RandomStateE0ECseYC8vFNOjrM_2cc, symObjAddr: 0x2770, symBinAddr: 0x1000235E0, symSize: 0xC0 }
  - { offset: 0x1D18E, size: 0x8, addend: 0x0, symName: __RINvMs6_NtCsjK30CmJ87bX_9hashbrown3rawINtB6_8RawTableTINtNtCslJiobkLta79_5alloc5boxed3BoxeEINtNtBV_4sync3ArceEEE14reserve_rehashNCINvNtB8_3map11make_hasherBQ_B1r_NtNtNtCsHUR1vrdMJt_3std4hash6random11RandomStateE0ECseYC8vFNOjrM_2cc, symObjAddr: 0x2830, symBinAddr: 0x1000FCF40, symSize: 0xD70 }
  - { offset: 0x1DC61, size: 0x8, addend: 0x0, symName: __RINvMs6_NtCsjK30CmJ87bX_9hashbrown3rawINtB6_8RawTableTINtNtCslJiobkLta79_5alloc5boxed3BoxeEINtNtBV_4sync3ArceEEE24find_or_find_insert_slotNCINvNtB8_3map14equivalent_keyBQ_BQ_B1r_E0NCINvB2h_11make_hasherBQ_B1r_NtNtNtCsHUR1vrdMJt_3std4hash6random11RandomStateE0ECseYC8vFNOjrM_2cc, symObjAddr: 0x35A0, symBinAddr: 0x1000236A0, symSize: 0x160 }
  - { offset: 0x1DEEE, size: 0x8, addend: 0x0, symName: __RINvMs6_NtCsjK30CmJ87bX_9hashbrown3rawINtB6_8RawTableTINtNtCslJiobkLta79_5alloc5boxed3BoxeEINtNtBV_4sync3ArceEEE4findNCINvNtB8_3map14equivalent_keyeBQ_B1r_E0ECseYC8vFNOjrM_2cc, symObjAddr: 0x3700, symBinAddr: 0x100023800, symSize: 0x490 }
  - { offset: 0x1E3FA, size: 0x8, addend: 0x0, symName: __RINvMs6_NtCsjK30CmJ87bX_9hashbrown3rawINtB6_8RawTableTINtNtCslJiobkLta79_5alloc5boxed3BoxeEINtNtBV_4sync3ArceEEE7reserveNCINvNtB8_3map11make_hasherBQ_B1r_NtNtNtCsHUR1vrdMJt_3std4hash6random11RandomStateE0ECseYC8vFNOjrM_2cc, symObjAddr: 0x3B90, symBinAddr: 0x100023C90, symSize: 0xC0 }
  - { offset: 0x1E4D2, size: 0x8, addend: 0x0, symName: __RINvMs6_NtCsjK30CmJ87bX_9hashbrown3rawINtB6_8RawTableTINtNtCslJiobkLta79_5alloc5boxed3BoxeEINtNtCsieiGu2EXtoJ_4core6option6OptionINtNtBV_4sync3ArcNtNtNtCsHUR1vrdMJt_3std3ffi6os_str5OsStrEEEE14reserve_rehashNCINvNtB8_3map11make_hasherBQ_B1r_NtNtNtB2q_4hash6random11RandomStateE0ECseYC8vFNOjrM_2cc, symObjAddr: 0x3C50, symBinAddr: 0x1000FDCB0, symSize: 0xD70 }
  - { offset: 0x1EFA5, size: 0x8, addend: 0x0, symName: __RINvMs6_NtCsjK30CmJ87bX_9hashbrown3rawINtB6_8RawTableTINtNtCslJiobkLta79_5alloc5boxed3BoxeEINtNtCsieiGu2EXtoJ_4core6option6OptionINtNtBV_4sync3ArcNtNtNtCsHUR1vrdMJt_3std3ffi6os_str5OsStrEEEE24find_or_find_insert_slotNCINvNtB8_3map14equivalent_keyBQ_BQ_B1r_E0NCINvB3x_11make_hasherBQ_B1r_NtNtNtB2q_4hash6random11RandomStateE0ECseYC8vFNOjrM_2cc, symObjAddr: 0x49C0, symBinAddr: 0x100023D50, symSize: 0x160 }
  - { offset: 0x1F232, size: 0x8, addend: 0x0, symName: __RINvMs6_NtCsjK30CmJ87bX_9hashbrown3rawINtB6_8RawTableTINtNtCslJiobkLta79_5alloc5boxed3BoxeEINtNtCsieiGu2EXtoJ_4core6option6OptionINtNtBV_4sync3ArcNtNtNtCsHUR1vrdMJt_3std3ffi6os_str5OsStrEEEE4findNCINvNtB8_3map14equivalent_keyeBQ_B1r_E0ECseYC8vFNOjrM_2cc, symObjAddr: 0x4B20, symBinAddr: 0x100023EB0, symSize: 0x490 }
  - { offset: 0x1F73E, size: 0x8, addend: 0x0, symName: __RINvMs6_NtCsjK30CmJ87bX_9hashbrown3rawINtB6_8RawTableTINtNtCslJiobkLta79_5alloc5boxed3BoxeEINtNtCsieiGu2EXtoJ_4core6option6OptionINtNtBV_4sync3ArcNtNtNtCsHUR1vrdMJt_3std3ffi6os_str5OsStrEEEE7reserveNCINvNtB8_3map11make_hasherBQ_B1r_NtNtNtB2q_4hash6random11RandomStateE0ECseYC8vFNOjrM_2cc, symObjAddr: 0x4FB0, symBinAddr: 0x100024340, symSize: 0xC0 }
  - { offset: 0x1F816, size: 0x8, addend: 0x0, symName: __RINvMs6_NtCsjK30CmJ87bX_9hashbrown3rawINtB6_8RawTableTNtCseYC8vFNOjrM_2cc12CompilerFlagbEE14reserve_rehashNCINvNtB8_3map11make_hasherBQ_bNtNtNtCsHUR1vrdMJt_3std4hash6random11RandomStateE0EBS_, symObjAddr: 0x5070, symBinAddr: 0x1000FEA20, symSize: 0xD50 }
  - { offset: 0x202E9, size: 0x8, addend: 0x0, symName: __RINvMs6_NtCsjK30CmJ87bX_9hashbrown3rawINtB6_8RawTableTNtCseYC8vFNOjrM_2cc12CompilerFlagbEE24find_or_find_insert_slotNCINvNtB8_3map14equivalent_keyBQ_BQ_bE0NCINvB1V_11make_hasherBQ_bNtNtNtCsHUR1vrdMJt_3std4hash6random11RandomStateE0EBS_, symObjAddr: 0x5DC0, symBinAddr: 0x100024400, symSize: 0x160 }
  - { offset: 0x20576, size: 0x8, addend: 0x0, symName: __RINvMs6_NtCsjK30CmJ87bX_9hashbrown3rawINtB6_8RawTableTNtCseYC8vFNOjrM_2cc12CompilerFlagbEE4findNCINvNtB8_3map14equivalent_keyBQ_BQ_bE0EBS_, symObjAddr: 0x5F20, symBinAddr: 0x100024560, symSize: 0x480 }
  - { offset: 0x20A82, size: 0x8, addend: 0x0, symName: __RINvMs6_NtCsjK30CmJ87bX_9hashbrown3rawINtB6_8RawTableTNtCseYC8vFNOjrM_2cc12CompilerFlagbEE7reserveNCINvNtB8_3map11make_hasherBQ_bNtNtNtCsHUR1vrdMJt_3std4hash6random11RandomStateE0EBS_, symObjAddr: 0x63A0, symBinAddr: 0x1000249E0, symSize: 0xC0 }
  - { offset: 0x20C74, size: 0x8, addend: 0x0, symName: __RINvMsa_NtCsjK30CmJ87bX_9hashbrown3rawNtB6_13RawTableInner13drop_elementsTINtNtCslJiobkLta79_5alloc5boxed3BoxSIB1b_NtNtNtCsHUR1vrdMJt_3std3ffi6os_str5OsStrEENtNtCseYC8vFNOjrM_2cc4tool10ToolFamilyEEB2z_, symObjAddr: 0x6460, symBinAddr: 0x100024AA0, symSize: 0x1D0 }
  - { offset: 0x20FCB, size: 0x8, addend: 0x0, symName: __RINvMsa_NtCsjK30CmJ87bX_9hashbrown3rawNtB6_13RawTableInner13drop_elementsTINtNtCslJiobkLta79_5alloc5boxed3BoxeEINtNtB1f_4sync3ArcNtNtNtCsHUR1vrdMJt_3std3ffi6os_str5OsStrEEECseYC8vFNOjrM_2cc, symObjAddr: 0x6630, symBinAddr: 0x100024C70, symSize: 0x1D0 }
  - { offset: 0x21322, size: 0x8, addend: 0x0, symName: __RINvMsa_NtCsjK30CmJ87bX_9hashbrown3rawNtB6_13RawTableInner13drop_elementsTINtNtCslJiobkLta79_5alloc5boxed3BoxeEINtNtB1f_4sync3ArceEEECseYC8vFNOjrM_2cc, symObjAddr: 0x6800, symBinAddr: 0x100024E40, symSize: 0x1D0 }
  - { offset: 0x21679, size: 0x8, addend: 0x0, symName: __RINvMsa_NtCsjK30CmJ87bX_9hashbrown3rawNtB6_13RawTableInner13drop_elementsTINtNtCslJiobkLta79_5alloc5boxed3BoxeEINtNtCsieiGu2EXtoJ_4core6option6OptionINtNtB1f_4sync3ArcNtNtNtCsHUR1vrdMJt_3std3ffi6os_str5OsStrEEEECseYC8vFNOjrM_2cc, symObjAddr: 0x69D0, symBinAddr: 0x100025010, symSize: 0x1D0 }
  - { offset: 0x219D0, size: 0x8, addend: 0x0, symName: __RINvMsa_NtCsjK30CmJ87bX_9hashbrown3rawNtB6_13RawTableInner13drop_elementsTNtCseYC8vFNOjrM_2cc12CompilerFlagbEEB1c_, symObjAddr: 0x6BA0, symBinAddr: 0x1000251E0, symSize: 0x1D0 }
  - { offset: 0x21D33, size: 0x8, addend: 0x0, symName: __RINvMsa_NtCsjK30CmJ87bX_9hashbrown3rawNtB6_13RawTableInner16drop_inner_tableTINtNtCslJiobkLta79_5alloc5boxed3BoxSIB1e_NtNtNtCsHUR1vrdMJt_3std3ffi6os_str5OsStrEENtNtCseYC8vFNOjrM_2cc4tool10ToolFamilyENtNtB1i_5alloc6GlobalEB2C_, symObjAddr: 0x6D70, symBinAddr: 0x1000253B0, symSize: 0xD0 }
  - { offset: 0x21FAC, size: 0x8, addend: 0x0, symName: __RINvMsa_NtCsjK30CmJ87bX_9hashbrown3rawNtB6_13RawTableInner16drop_inner_tableTINtNtCslJiobkLta79_5alloc5boxed3BoxeEINtNtB1i_4sync3ArcNtNtNtCsHUR1vrdMJt_3std3ffi6os_str5OsStrEENtNtB1i_5alloc6GlobalECseYC8vFNOjrM_2cc, symObjAddr: 0x6E40, symBinAddr: 0x100025480, symSize: 0xD0 }
  - { offset: 0x22225, size: 0x8, addend: 0x0, symName: __RINvMsa_NtCsjK30CmJ87bX_9hashbrown3rawNtB6_13RawTableInner16drop_inner_tableTINtNtCslJiobkLta79_5alloc5boxed3BoxeEINtNtB1i_4sync3ArceEENtNtB1i_5alloc6GlobalECseYC8vFNOjrM_2cc, symObjAddr: 0x6F10, symBinAddr: 0x100025550, symSize: 0xD0 }
  - { offset: 0x2249E, size: 0x8, addend: 0x0, symName: __RINvMsa_NtCsjK30CmJ87bX_9hashbrown3rawNtB6_13RawTableInner16drop_inner_tableTINtNtCslJiobkLta79_5alloc5boxed3BoxeEINtNtCsieiGu2EXtoJ_4core6option6OptionINtNtB1i_4sync3ArcNtNtNtCsHUR1vrdMJt_3std3ffi6os_str5OsStrEEENtNtB1i_5alloc6GlobalECseYC8vFNOjrM_2cc, symObjAddr: 0x6FE0, symBinAddr: 0x100025620, symSize: 0xD0 }
  - { offset: 0x22717, size: 0x8, addend: 0x0, symName: __RINvMsa_NtCsjK30CmJ87bX_9hashbrown3rawNtB6_13RawTableInner16drop_inner_tableTNtCseYC8vFNOjrM_2cc12CompilerFlagbENtNtCslJiobkLta79_5alloc5alloc6GlobalEB1f_, symObjAddr: 0x70B0, symBinAddr: 0x1000256F0, symSize: 0xD0 }
  - { offset: 0x22913, size: 0x8, addend: 0x0, symName: __RINvMsa_NtCsjK30CmJ87bX_9hashbrown3rawNtB6_13RawTableInner17new_uninitializedNtNtCslJiobkLta79_5alloc5alloc6GlobalECseYC8vFNOjrM_2cc, symObjAddr: 0x7180, symBinAddr: 0x1000257C0, symSize: 0x290 }
  - { offset: 0x22B67, size: 0x8, addend: 0x0, symName: __RINvMsa_NtCsjK30CmJ87bX_9hashbrown3rawNtB6_13RawTableInner22fallible_with_capacityNtNtCslJiobkLta79_5alloc5alloc6GlobalECseYC8vFNOjrM_2cc, symObjAddr: 0x7410, symBinAddr: 0x100025A50, symSize: 0x430 }
  - { offset: 0x23030, size: 0x8, addend: 0x0, symName: __RINvMsi_NtCsjK30CmJ87bX_9hashbrown3rawINtB6_12RawIterRangeTINtNtCslJiobkLta79_5alloc5boxed3BoxSIBW_NtNtNtCsHUR1vrdMJt_3std3ffi6os_str5OsStrEENtNtCseYC8vFNOjrM_2cc4tool10ToolFamilyEE9next_implKb0_EB2j_, symObjAddr: 0x7840, symBinAddr: 0x100025E80, symSize: 0x290 }
  - { offset: 0x2353A, size: 0x8, addend: 0x0, symName: __RINvMsi_NtCsjK30CmJ87bX_9hashbrown3rawINtB6_12RawIterRangeTINtNtCslJiobkLta79_5alloc5boxed3BoxeEINtNtB10_4sync3ArcNtNtNtCsHUR1vrdMJt_3std3ffi6os_str5OsStrEEE9next_implKb0_ECseYC8vFNOjrM_2cc, symObjAddr: 0x7AD0, symBinAddr: 0x100026110, symSize: 0x290 }
  - { offset: 0x23A44, size: 0x8, addend: 0x0, symName: __RINvMsi_NtCsjK30CmJ87bX_9hashbrown3rawINtB6_12RawIterRangeTINtNtCslJiobkLta79_5alloc5boxed3BoxeEINtNtB10_4sync3ArceEEE9next_implKb0_ECseYC8vFNOjrM_2cc, symObjAddr: 0x7D60, symBinAddr: 0x1000263A0, symSize: 0x290 }
  - { offset: 0x23F4E, size: 0x8, addend: 0x0, symName: __RINvMsi_NtCsjK30CmJ87bX_9hashbrown3rawINtB6_12RawIterRangeTINtNtCslJiobkLta79_5alloc5boxed3BoxeEINtNtCsieiGu2EXtoJ_4core6option6OptionINtNtB10_4sync3ArcNtNtNtCsHUR1vrdMJt_3std3ffi6os_str5OsStrEEEE9next_implKb0_ECseYC8vFNOjrM_2cc, symObjAddr: 0x7FF0, symBinAddr: 0x100026630, symSize: 0x290 }
  - { offset: 0x24458, size: 0x8, addend: 0x0, symName: __RINvMsi_NtCsjK30CmJ87bX_9hashbrown3rawINtB6_12RawIterRangeTNtCseYC8vFNOjrM_2cc12CompilerFlagbEE9next_implKb0_EBX_, symObjAddr: 0x8280, symBinAddr: 0x1000268C0, symSize: 0x290 }
  - { offset: 0x25D2B, size: 0x8, addend: 0x0, symName: __RNvMs1_NtCsjK30CmJ87bX_9hashbrown3rawNtB5_11TableLayout20calculate_layout_forCseYC8vFNOjrM_2cc, symObjAddr: 0x9370, symBinAddr: 0x1000279B0, symSize: 0x2F0 }
  - { offset: 0x261CE, size: 0x8, addend: 0x0, symName: __RNvMs6_NtCsjK30CmJ87bX_9hashbrown3rawINtB5_8RawTableTINtNtCslJiobkLta79_5alloc5boxed3BoxSIBQ_NtNtNtCsHUR1vrdMJt_3std3ffi6os_str5OsStrEENtNtCseYC8vFNOjrM_2cc4tool10ToolFamilyEE14insert_in_slotB2d_, symObjAddr: 0x9660, symBinAddr: 0x100027CA0, symSize: 0x150 }
  - { offset: 0x26711, size: 0x8, addend: 0x0, symName: __RNvMs6_NtCsjK30CmJ87bX_9hashbrown3rawINtB5_8RawTableTINtNtCslJiobkLta79_5alloc5boxed3BoxeEINtNtBU_4sync3ArcNtNtNtCsHUR1vrdMJt_3std3ffi6os_str5OsStrEEE14insert_in_slotCseYC8vFNOjrM_2cc, symObjAddr: 0x97B0, symBinAddr: 0x100027DF0, symSize: 0x150 }
  - { offset: 0x26C54, size: 0x8, addend: 0x0, symName: __RNvMs6_NtCsjK30CmJ87bX_9hashbrown3rawINtB5_8RawTableTINtNtCslJiobkLta79_5alloc5boxed3BoxeEINtNtBU_4sync3ArceEEE14insert_in_slotCseYC8vFNOjrM_2cc, symObjAddr: 0x9900, symBinAddr: 0x100027F40, symSize: 0x150 }
  - { offset: 0x27197, size: 0x8, addend: 0x0, symName: __RNvMs6_NtCsjK30CmJ87bX_9hashbrown3rawINtB5_8RawTableTINtNtCslJiobkLta79_5alloc5boxed3BoxeEINtNtCsieiGu2EXtoJ_4core6option6OptionINtNtBU_4sync3ArcNtNtNtCsHUR1vrdMJt_3std3ffi6os_str5OsStrEEEE14insert_in_slotCseYC8vFNOjrM_2cc, symObjAddr: 0x9A50, symBinAddr: 0x100028090, symSize: 0x150 }
  - { offset: 0x276DA, size: 0x8, addend: 0x0, symName: __RNvMs6_NtCsjK30CmJ87bX_9hashbrown3rawINtB5_8RawTableTNtCseYC8vFNOjrM_2cc12CompilerFlagbEE14insert_in_slotBR_, symObjAddr: 0x9BA0, symBinAddr: 0x1000281E0, symSize: 0x140 }
  - { offset: 0x27B7A, size: 0x8, addend: 0x0, symName: __RNvMsa_NtCsjK30CmJ87bX_9hashbrown3rawNtB5_13RawTableInner15fix_insert_slotCseYC8vFNOjrM_2cc, symObjAddr: 0x9CE0, symBinAddr: 0x100028320, symSize: 0x140 }
  - { offset: 0x27F13, size: 0x8, addend: 0x0, symName: __RNvMsa_NtCsjK30CmJ87bX_9hashbrown3rawNtB5_13RawTableInner15rehash_in_placeCseYC8vFNOjrM_2cc, symObjAddr: 0x9E20, symBinAddr: 0x100028460, symSize: 0x5B0 }
  - { offset: 0x286DF, size: 0x8, addend: 0x0, symName: __RNvMsa_NtCsjK30CmJ87bX_9hashbrown3rawNtB5_13RawTableInner16find_insert_slotCseYC8vFNOjrM_2cc, symObjAddr: 0xA3D0, symBinAddr: 0x100028A10, symSize: 0x130 }
  - { offset: 0x288DE, size: 0x8, addend: 0x0, symName: __RNvMsa_NtCsjK30CmJ87bX_9hashbrown3rawNtB5_13RawTableInner19prepare_insert_slotCseYC8vFNOjrM_2cc, symObjAddr: 0xA500, symBinAddr: 0x100028B40, symSize: 0x60 }
  - { offset: 0x28BCF, size: 0x8, addend: 0x0, symName: __RNvMsa_NtCsjK30CmJ87bX_9hashbrown3rawNtB5_13RawTableInner23prepare_rehash_in_placeCseYC8vFNOjrM_2cc, symObjAddr: 0xA560, symBinAddr: 0x100028BA0, symSize: 0x340 }
  - { offset: 0x292F6, size: 0x8, addend: 0x0, symName: __RNvMsa_NtCsjK30CmJ87bX_9hashbrown3rawNtB5_13RawTableInner25find_insert_slot_in_groupCseYC8vFNOjrM_2cc, symObjAddr: 0xA8A0, symBinAddr: 0x100028EE0, symSize: 0x160 }
  - { offset: 0x295F4, size: 0x8, addend: 0x0, symName: __RNvMsa_NtCsjK30CmJ87bX_9hashbrown3rawNtB5_13RawTableInner30find_or_find_insert_slot_innerCseYC8vFNOjrM_2cc, symObjAddr: 0xAA00, symBinAddr: 0x100029040, symSize: 0x410 }
  - { offset: 0x29A83, size: 0x8, addend: 0x0, symName: __RNvMsi_NtCsjK30CmJ87bX_9hashbrown3rawINtB5_12RawIterRangeTINtNtCslJiobkLta79_5alloc5boxed3BoxSIBV_NtNtNtCsHUR1vrdMJt_3std3ffi6os_str5OsStrEENtNtCseYC8vFNOjrM_2cc4tool10ToolFamilyEE3newB2i_, symObjAddr: 0xAE10, symBinAddr: 0x100029450, symSize: 0x120 }
  - { offset: 0x29DA3, size: 0x8, addend: 0x0, symName: __RNvMsi_NtCsjK30CmJ87bX_9hashbrown3rawINtB5_12RawIterRangeTINtNtCslJiobkLta79_5alloc5boxed3BoxeEINtNtBZ_4sync3ArcNtNtNtCsHUR1vrdMJt_3std3ffi6os_str5OsStrEEE3newCseYC8vFNOjrM_2cc, symObjAddr: 0xAF30, symBinAddr: 0x100029570, symSize: 0x120 }
  - { offset: 0x2A0C3, size: 0x8, addend: 0x0, symName: __RNvMsi_NtCsjK30CmJ87bX_9hashbrown3rawINtB5_12RawIterRangeTINtNtCslJiobkLta79_5alloc5boxed3BoxeEINtNtBZ_4sync3ArceEEE3newCseYC8vFNOjrM_2cc, symObjAddr: 0xB050, symBinAddr: 0x100029690, symSize: 0x120 }
  - { offset: 0x2A3E3, size: 0x8, addend: 0x0, symName: __RNvMsi_NtCsjK30CmJ87bX_9hashbrown3rawINtB5_12RawIterRangeTINtNtCslJiobkLta79_5alloc5boxed3BoxeEINtNtCsieiGu2EXtoJ_4core6option6OptionINtNtBZ_4sync3ArcNtNtNtCsHUR1vrdMJt_3std3ffi6os_str5OsStrEEEE3newCseYC8vFNOjrM_2cc, symObjAddr: 0xB170, symBinAddr: 0x1000297B0, symSize: 0x120 }
  - { offset: 0x2A703, size: 0x8, addend: 0x0, symName: __RNvMsi_NtCsjK30CmJ87bX_9hashbrown3rawINtB5_12RawIterRangeTNtCseYC8vFNOjrM_2cc12CompilerFlagbEE3newBW_, symObjAddr: 0xB290, symBinAddr: 0x1000298D0, symSize: 0x120 }
  - { offset: 0x2E2C2, size: 0x8, addend: 0x0, symName: __RNvMNtCsieiGu2EXtoJ_4core5sliceSRINtNtCslJiobkLta79_5alloc3vec3VechE4iterCseYC8vFNOjrM_2cc, symObjAddr: 0x2370, symBinAddr: 0x10002BA90, symSize: 0x20 }
  - { offset: 0x2FBAB, size: 0x8, addend: 0x0, symName: __RINvNvMs_NtCslJiobkLta79_5alloc3vecINtB7_3VecppE10retain_mut12process_loopNCNCNCNvNtNtCseYC8vFNOjrM_2cc8parallel14command_runner24run_commands_in_parallel000TNtNtCsHUR1vrdMJt_3std7process7CommandNtB1i_10KillOnDropNtNtB1k_9job_token8JobTokenENtNtB9_5alloc6GlobalKb0_EB1m_, symObjAddr: 0x1CC0, symBinAddr: 0x10002B4C0, symSize: 0xC0 }
  - { offset: 0x2FCFF, size: 0x8, addend: 0x0, symName: __RINvNvMs_NtCslJiobkLta79_5alloc3vecINtB7_3VecppE10retain_mut12process_loopNCNCNCNvNtNtCseYC8vFNOjrM_2cc8parallel14command_runner24run_commands_in_parallel000TNtNtCsHUR1vrdMJt_3std7process7CommandNtB1i_10KillOnDropNtNtB1k_9job_token8JobTokenENtNtB9_5alloc6GlobalKb1_EB1m_, symObjAddr: 0x1D80, symBinAddr: 0x10002B580, symSize: 0x130 }
  - { offset: 0x2FEF5, size: 0x8, addend: 0x0, symName: __RNvXNvMs_NtCslJiobkLta79_5alloc3vecINtB7_3VecppE10retain_mutINtB2_15BackshiftOnDropTNtNtCsHUR1vrdMJt_3std7process7CommandNtNtNtCseYC8vFNOjrM_2cc8parallel14command_runner10KillOnDropNtNtB1Z_9job_token8JobTokenENtNtB9_5alloc6GlobalENtNtNtCsieiGu2EXtoJ_4core3ops4drop4Drop4dropB21_, symObjAddr: 0x50F0, symBinAddr: 0x10002E520, symSize: 0x190 }
  - { offset: 0x30154, size: 0x8, addend: 0x0, symName: __RNvNvMs_NtCslJiobkLta79_5alloc3vecINtB6_3VecppE17from_raw_parts_in18precondition_checkCseYC8vFNOjrM_2cc, symObjAddr: 0x4250, symBinAddr: 0x10002D810, symSize: 0xA0 }
  - { offset: 0x301C2, size: 0x8, addend: 0x0, symName: __RNvNvMs_NtCslJiobkLta79_5alloc3vecINtB6_3VecppE7set_len18precondition_checkCseYC8vFNOjrM_2cc, symObjAddr: 0x42F0, symBinAddr: 0x10002D8B0, symSize: 0xA0 }
  - { offset: 0x31707, size: 0x8, addend: 0x0, symName: __RINvXsd_NtCslJiobkLta79_5alloc3vecINtB6_3VecINtNtB8_5boxed3BoxNtNtNtCsHUR1vrdMJt_3std3ffi6os_str5OsStrEEINtNtNtNtCsieiGu2EXtoJ_4core4iter6traits7collect12FromIteratorBG_E9from_iterINtNtNtB1L_8adapters3map3MapINtNtB2X_5chain5ChainINtNtB2X_6cloned6ClonedINtNtNtB1N_5slice4iter4IterRBY_EEIB2T_IB43_NtNtB8_6string6StringEINvMsl_B10_BY_3newB4J_EEENvYB4t_INtNtB1N_7convert4IntoBG_E4intoEECseYC8vFNOjrM_2cc, symObjAddr: 0x1EB0, symBinAddr: 0x10002B6B0, symSize: 0x40 }
  - { offset: 0x31748, size: 0x8, addend: 0x0, symName: __RINvXsd_NtCslJiobkLta79_5alloc3vecINtB6_3VecNtNtB8_6string6StringEINtNtNtNtCsieiGu2EXtoJ_4core4iter6traits7collect12FromIteratorBG_E9from_iterINtNtNtB19_8adapters3map3MapNtNtNtB1b_3str4iter15SplitWhitespaceNCNvMs4_CseYC8vFNOjrM_2ccNtB3q_5Build8env_tool0EEB3q_, symObjAddr: 0x1EF0, symBinAddr: 0x10002B6F0, symSize: 0x40 }
  - { offset: 0x31789, size: 0x8, addend: 0x0, symName: __RINvXsd_NtCslJiobkLta79_5alloc3vecINtB6_3VecNtNtB8_6string6StringEINtNtNtNtCsieiGu2EXtoJ_4core4iter6traits7collect12FromIteratorBG_E9from_iterINtNtNtB19_8adapters3map3MapNtNtNtB1b_3str4iter15SplitWhitespaceNCNvMs4_CseYC8vFNOjrM_2ccNtB3q_5Build8env_tools_0EEB3q_, symObjAddr: 0x1F30, symBinAddr: 0x10002B730, symSize: 0x40 }
  - { offset: 0x317CA, size: 0x8, addend: 0x0, symName: __RINvXsd_NtCslJiobkLta79_5alloc3vecINtB6_3VecRNtNtCsHUR1vrdMJt_3std4path4PathEINtNtNtNtCsieiGu2EXtoJ_4core4iter6traits7collect12FromIteratorBG_E9from_iterINtNtNtB1k_8adapters5chain5ChainINtNtB2w_3map3MapINtNtNtB1m_5slice4iter4IterNtCseYC8vFNOjrM_2cc6ObjectENCNvMs4_B3H_NtB3H_5Build8assemble0EIB2Y_IB3f_INtNtB8_4sync3ArcBH_EENvYB4P_NtNtNtB1m_3ops5deref5Deref5derefEEEB3H_, symObjAddr: 0x1FB0, symBinAddr: 0x10002B770, symSize: 0x40 }
  - { offset: 0x3180B, size: 0x8, addend: 0x0, symName: __RINvXsd_NtCslJiobkLta79_5alloc3vecINtB6_3VecReEINtNtNtNtCsieiGu2EXtoJ_4core4iter6traits7collect12FromIteratorBG_E9from_iterINtNtNtBS_3str4iter5SplitcEECseYC8vFNOjrM_2cc, symObjAddr: 0x1FF0, symBinAddr: 0x10002B7B0, symSize: 0x40 }
  - { offset: 0x3184C, size: 0x8, addend: 0x0, symName: __RINvXsd_NtCslJiobkLta79_5alloc3vecINtB6_3VecTNtNtNtCsHUR1vrdMJt_3std3ffi6os_str8OsStringBH_EEINtNtNtNtCsieiGu2EXtoJ_4core4iter6traits7collect12FromIteratorBG_E9from_iterINtNtNtB1A_8adapters3map3MapINtNtNtB1C_5slice4iter4IterBG_ENCNvMNtCseYC8vFNOjrM_2cc4toolNtB3J_4Tool20from_find_msvc_tools0EEB3L_, symObjAddr: 0x2030, symBinAddr: 0x10002B7F0, symSize: 0x60 }
  - { offset: 0x3188C, size: 0x8, addend: 0x0, symName: __RINvXsd_NtCslJiobkLta79_5alloc3vecINtB6_3VechEINtNtNtNtCsieiGu2EXtoJ_4core4iter6traits7collect12FromIteratorhE9from_iterINtNtNtBP_8adapters3map3MapINtNtNtBR_5slice4iter4IterhENCNvNtB8_3str13replace_ascii0EECseYC8vFNOjrM_2cc, symObjAddr: 0x2090, symBinAddr: 0x10002B850, symSize: 0x40 }
  - { offset: 0x318D3, size: 0x8, addend: 0x0, symName: __RINvXsh_NtCslJiobkLta79_5alloc3vecINtB6_3VecNtNtB8_6string6StringEINtNtNtNtCsieiGu2EXtoJ_4core4iter6traits7collect6ExtendBG_E6extendINtNtNtB19_8adapters3map3MapNtNtNtB1b_3str4iter20SplitAsciiWhitespaceNvYeNtBI_8ToString9to_stringEECseYC8vFNOjrM_2cc, symObjAddr: 0x2110, symBinAddr: 0x10002B890, symSize: 0x40 }
  - { offset: 0x31928, size: 0x8, addend: 0x0, symName: __RINvXsh_NtCslJiobkLta79_5alloc3vecINtB6_3VecNtNtB8_6string6StringEINtNtNtNtCsieiGu2EXtoJ_4core4iter6traits7collect6ExtendBG_E6extendNtCs6EOBT9HYl7a_5shlex5ShlexECseYC8vFNOjrM_2cc, symObjAddr: 0x2150, symBinAddr: 0x10002B8D0, symSize: 0x40 }
  - { offset: 0x3197D, size: 0x8, addend: 0x0, symName: __RINvXsh_NtCslJiobkLta79_5alloc3vecINtB6_3VecNtNtNtCsHUR1vrdMJt_3std3ffi6os_str8OsStringEINtNtNtNtCsieiGu2EXtoJ_4core4iter6traits7collect6ExtendBG_E6extendABG_j6_ECseYC8vFNOjrM_2cc, symObjAddr: 0x2190, symBinAddr: 0x10002B910, symSize: 0x50 }
  - { offset: 0x319DD, size: 0x8, addend: 0x0, symName: __RNCINvMsi_NtCslJiobkLta79_5alloc3vecINtB8_3VecINtNtBa_5boxed3BoxNtNtNtCsHUR1vrdMJt_3std3ffi6os_str5OsStrEE14extend_trustedINtNtNtNtCsieiGu2EXtoJ_4core4iter8adapters3map3MapINtNtB21_5chain5ChainINtNtB21_6cloned6ClonedINtNtNtB25_5slice4iter4IterRB10_EEIB1X_IB3t_NtNtBa_6string6StringEINvMsl_B12_B10_3newB4a_EEENvYB3T_INtNtB25_7convert4IntoBI_E4intoEE0CseYC8vFNOjrM_2cc, symObjAddr: 0x2240, symBinAddr: 0x10002B960, symSize: 0x40 }
  - { offset: 0x31A9A, size: 0x8, addend: 0x0, symName: __RNCINvMsi_NtCslJiobkLta79_5alloc3vecINtB8_3VecNtNtNtCsHUR1vrdMJt_3std3ffi6os_str8OsStringE14extend_trustedINtNtNtCsieiGu2EXtoJ_4core5array4iter8IntoIterBI_Kj6_EE0CseYC8vFNOjrM_2cc, symObjAddr: 0x2280, symBinAddr: 0x10002B9A0, symSize: 0x40 }
  - { offset: 0x31B42, size: 0x8, addend: 0x0, symName: __RNCINvMsi_NtCslJiobkLta79_5alloc3vecINtB8_3VecRNtNtCsHUR1vrdMJt_3std4path4PathE14extend_trustedINtNtNtNtCsieiGu2EXtoJ_4core4iter8adapters5chain5ChainINtNtB1A_3map3MapINtNtNtB1E_5slice4iter4IterNtCseYC8vFNOjrM_2cc6ObjectENCNvMs4_B37_NtB37_5Build8assemble0EIB2o_IB2F_INtNtBa_4sync3ArcBJ_EENvYB4f_NtNtNtB1E_3ops5deref5Deref5derefEEE0B37_, symObjAddr: 0x22C0, symBinAddr: 0x10002B9E0, symSize: 0x40 }
  - { offset: 0x31BFF, size: 0x8, addend: 0x0, symName: __RNCINvMsi_NtCslJiobkLta79_5alloc3vecINtB8_3VecTNtNtNtCsHUR1vrdMJt_3std3ffi6os_str8OsStringBJ_EE14extend_trustedINtNtNtNtCsieiGu2EXtoJ_4core4iter8adapters3map3MapINtNtNtB1U_5slice4iter4IterBI_ENCNvMNtCseYC8vFNOjrM_2cc4toolNtB39_4Tool20from_find_msvc_tools0EE0B3b_, symObjAddr: 0x2300, symBinAddr: 0x10002BA20, symSize: 0x40 }
  - { offset: 0x31CA8, size: 0x8, addend: 0x0, symName: __RNCINvMsi_NtCslJiobkLta79_5alloc3vecINtB8_3VechE14extend_trustedINtNtNtNtCsieiGu2EXtoJ_4core4iter8adapters3map3MapINtNtNtB19_5slice4iter4IterhENCNvNtBa_3str13replace_ascii0EE0CseYC8vFNOjrM_2cc, symObjAddr: 0x2340, symBinAddr: 0x10002BA60, symSize: 0x30 }
  - { offset: 0x3215C, size: 0x8, addend: 0x0, symName: __RNvXNtNtCslJiobkLta79_5alloc3vec11spec_extendINtB4_3VecNtNtB6_6string6StringEINtB2_10SpecExtendBR_INtNtNtNtCsieiGu2EXtoJ_4core4iter8adapters3map3MapNtNtNtB1H_3str4iter15SplitWhitespaceNCNvMs4_CseYC8vFNOjrM_2ccNtB34_5Build8env_tool0EE11spec_extendB34_, symObjAddr: 0x4390, symBinAddr: 0x10002D950, symSize: 0x20 }
  - { offset: 0x321AE, size: 0x8, addend: 0x0, symName: __RNvXNtNtCslJiobkLta79_5alloc3vec11spec_extendINtB4_3VecNtNtB6_6string6StringEINtB2_10SpecExtendBR_INtNtNtNtCsieiGu2EXtoJ_4core4iter8adapters3map3MapNtNtNtB1H_3str4iter15SplitWhitespaceNCNvMs4_CseYC8vFNOjrM_2ccNtB34_5Build8env_tools_0EE11spec_extendB34_, symObjAddr: 0x43B0, symBinAddr: 0x10002D970, symSize: 0x20 }
  - { offset: 0x32200, size: 0x8, addend: 0x0, symName: __RNvXNtNtCslJiobkLta79_5alloc3vec11spec_extendINtB4_3VecNtNtB6_6string6StringEINtB2_10SpecExtendBR_INtNtNtNtCsieiGu2EXtoJ_4core4iter8adapters3map3MapNtNtNtB1H_3str4iter20SplitAsciiWhitespaceNvYeNtBT_8ToString9to_stringEE11spec_extendCseYC8vFNOjrM_2cc, symObjAddr: 0x43D0, symBinAddr: 0x10002D990, symSize: 0x20 }
  - { offset: 0x32252, size: 0x8, addend: 0x0, symName: __RNvXNtNtCslJiobkLta79_5alloc3vec11spec_extendINtB4_3VecNtNtB6_6string6StringEINtB2_10SpecExtendBR_NtCs6EOBT9HYl7a_5shlex5ShlexE11spec_extendCseYC8vFNOjrM_2cc, symObjAddr: 0x43F0, symBinAddr: 0x10002D9B0, symSize: 0x20 }
  - { offset: 0x322A4, size: 0x8, addend: 0x0, symName: __RNvXNtNtCslJiobkLta79_5alloc3vec11spec_extendINtB4_3VecReEINtB2_10SpecExtendBR_INtNtNtCsieiGu2EXtoJ_4core3str4iter5SplitcEE11spec_extendCseYC8vFNOjrM_2cc, symObjAddr: 0x4410, symBinAddr: 0x10002D9D0, symSize: 0x20 }
  - { offset: 0x322FC, size: 0x8, addend: 0x0, symName: __RNvXs_NtNtCslJiobkLta79_5alloc3vec11spec_extendINtB6_3VecINtNtB8_5boxed3BoxNtNtNtCsHUR1vrdMJt_3std3ffi6os_str5OsStrEEINtB4_10SpecExtendBT_INtNtNtNtCsieiGu2EXtoJ_4core4iter8adapters3map3MapINtNtB2h_5chain5ChainINtNtB2h_6cloned6ClonedINtNtNtB2l_5slice4iter4IterRB1b_EEIB2d_IB3J_NtNtB8_6string6StringEINvMsl_B1d_B1b_3newB4q_EEENvYB49_INtNtB2l_7convert4IntoBT_E4intoEE11spec_extendCseYC8vFNOjrM_2cc, symObjAddr: 0x56A0, symBinAddr: 0x10002EAB0, symSize: 0x20 }
  - { offset: 0x3234E, size: 0x8, addend: 0x0, symName: __RNvXs_NtNtCslJiobkLta79_5alloc3vec11spec_extendINtB6_3VecNtNtNtCsHUR1vrdMJt_3std3ffi6os_str8OsStringEINtB4_10SpecExtendBT_INtNtNtCsieiGu2EXtoJ_4core5array4iter8IntoIterBT_Kj6_EE11spec_extendCseYC8vFNOjrM_2cc, symObjAddr: 0x56C0, symBinAddr: 0x10002EAD0, symSize: 0x20 }
  - { offset: 0x323A0, size: 0x8, addend: 0x0, symName: __RNvXs_NtNtCslJiobkLta79_5alloc3vec11spec_extendINtB6_3VecRNtNtCsHUR1vrdMJt_3std4path4PathEINtB4_10SpecExtendBT_INtNtNtNtCsieiGu2EXtoJ_4core4iter8adapters5chain5ChainINtNtB1Q_3map3MapINtNtNtB1U_5slice4iter4IterNtCseYC8vFNOjrM_2cc6ObjectENCNvMs4_B3n_NtB3n_5Build8assemble0EIB2E_IB2V_INtNtB8_4sync3ArcBU_EENvYB4v_NtNtNtB1U_3ops5deref5Deref5derefEEE11spec_extendB3n_, symObjAddr: 0x56E0, symBinAddr: 0x10002EAF0, symSize: 0x20 }
  - { offset: 0x323F2, size: 0x8, addend: 0x0, symName: __RNvXs_NtNtCslJiobkLta79_5alloc3vec11spec_extendINtB6_3VecTNtNtNtCsHUR1vrdMJt_3std3ffi6os_str8OsStringBU_EEINtB4_10SpecExtendBT_INtNtNtNtCsieiGu2EXtoJ_4core4iter8adapters3map3MapINtNtNtB2a_5slice4iter4IterBT_ENCNvMNtCseYC8vFNOjrM_2cc4toolNtB3p_4Tool20from_find_msvc_tools0EE11spec_extendB3r_, symObjAddr: 0x5700, symBinAddr: 0x10002EB10, symSize: 0x20 }
  - { offset: 0x32443, size: 0x8, addend: 0x0, symName: __RNvXs_NtNtCslJiobkLta79_5alloc3vec11spec_extendINtB6_3VechEINtB4_10SpecExtendhINtNtNtNtCsieiGu2EXtoJ_4core4iter8adapters3map3MapINtNtNtB1n_5slice4iter4IterhENCNvNtB8_3str13replace_ascii0EE11spec_extendCseYC8vFNOjrM_2cc, symObjAddr: 0x5720, symBinAddr: 0x10002EB30, symSize: 0x20 }
  - { offset: 0x324A1, size: 0x8, addend: 0x0, symName: __RNvXNtNtCslJiobkLta79_5alloc3vec14spec_from_iterINtB4_3VecINtNtB6_5boxed3BoxNtNtNtCsHUR1vrdMJt_3std3ffi6os_str5OsStrEEINtB2_12SpecFromIterBU_INtNtNtNtCsieiGu2EXtoJ_4core4iter8adapters3map3MapINtNtB2k_5chain5ChainINtNtB2k_6cloned6ClonedINtNtNtB2o_5slice4iter4IterRB1c_EEIB2g_IB3M_NtNtB6_6string6StringEINvMsl_B1e_B1c_3newB4t_EEENvYB4c_INtNtB2o_7convert4IntoBU_E4intoEE9from_iterCseYC8vFNOjrM_2cc, symObjAddr: 0x4430, symBinAddr: 0x10002D9F0, symSize: 0x20 }
  - { offset: 0x324E0, size: 0x8, addend: 0x0, symName: __RNvXNtNtCslJiobkLta79_5alloc3vec14spec_from_iterINtB4_3VecNtNtB6_6string6StringEINtB2_12SpecFromIterBU_INtNtNtNtCsieiGu2EXtoJ_4core4iter8adapters3map3MapNtNtNtB1M_3str4iter15SplitWhitespaceNCNvMs4_CseYC8vFNOjrM_2ccNtB39_5Build8env_tool0EE9from_iterB39_, symObjAddr: 0x4450, symBinAddr: 0x10002DA10, symSize: 0x20 }
  - { offset: 0x3251F, size: 0x8, addend: 0x0, symName: __RNvXNtNtCslJiobkLta79_5alloc3vec14spec_from_iterINtB4_3VecNtNtB6_6string6StringEINtB2_12SpecFromIterBU_INtNtNtNtCsieiGu2EXtoJ_4core4iter8adapters3map3MapNtNtNtB1M_3str4iter15SplitWhitespaceNCNvMs4_CseYC8vFNOjrM_2ccNtB39_5Build8env_tools_0EE9from_iterB39_, symObjAddr: 0x4470, symBinAddr: 0x10002DA30, symSize: 0x20 }
  - { offset: 0x3255E, size: 0x8, addend: 0x0, symName: __RNvXNtNtCslJiobkLta79_5alloc3vec14spec_from_iterINtB4_3VecRNtNtCsHUR1vrdMJt_3std4path4PathEINtB2_12SpecFromIterBU_INtNtNtNtCsieiGu2EXtoJ_4core4iter8adapters5chain5ChainINtNtB1T_3map3MapINtNtNtB1X_5slice4iter4IterNtCseYC8vFNOjrM_2cc6ObjectENCNvMs4_B3q_NtB3q_5Build8assemble0EIB2H_IB2Y_INtNtB6_4sync3ArcBV_EENvYB4y_NtNtNtB1X_3ops5deref5Deref5derefEEE9from_iterB3q_, symObjAddr: 0x4490, symBinAddr: 0x10002DA50, symSize: 0x20 }
  - { offset: 0x3259D, size: 0x8, addend: 0x0, symName: __RNvXNtNtCslJiobkLta79_5alloc3vec14spec_from_iterINtB4_3VecReEINtB2_12SpecFromIterBU_INtNtNtCsieiGu2EXtoJ_4core3str4iter5SplitcEE9from_iterCseYC8vFNOjrM_2cc, symObjAddr: 0x44B0, symBinAddr: 0x10002DA70, symSize: 0x20 }
  - { offset: 0x325DC, size: 0x8, addend: 0x0, symName: __RNvXNtNtCslJiobkLta79_5alloc3vec14spec_from_iterINtB4_3VecTNtNtNtCsHUR1vrdMJt_3std3ffi6os_str8OsStringBV_EEINtB2_12SpecFromIterBU_INtNtNtNtCsieiGu2EXtoJ_4core4iter8adapters3map3MapINtNtNtB2d_5slice4iter4IterBU_ENCNvMNtCseYC8vFNOjrM_2cc4toolNtB3s_4Tool20from_find_msvc_tools0EE9from_iterB3u_, symObjAddr: 0x44D0, symBinAddr: 0x10002DA90, symSize: 0x30 }
  - { offset: 0x3261A, size: 0x8, addend: 0x0, symName: __RNvXNtNtCslJiobkLta79_5alloc3vec14spec_from_iterINtB4_3VechEINtB2_12SpecFromIterhINtNtNtNtCsieiGu2EXtoJ_4core4iter8adapters3map3MapINtNtNtB1q_5slice4iter4IterhENCNvNtB6_3str13replace_ascii0EE9from_iterCseYC8vFNOjrM_2cc, symObjAddr: 0x4500, symBinAddr: 0x10002DAC0, symSize: 0x20 }
  - { offset: 0x32665, size: 0x8, addend: 0x0, symName: __RNvXNtNtCslJiobkLta79_5alloc3vec21spec_from_iter_nestedINtB4_3VecNtNtB6_6string6StringEINtB2_18SpecFromIterNestedB11_INtNtNtNtCsieiGu2EXtoJ_4core4iter8adapters3map3MapNtNtNtB20_3str4iter15SplitWhitespaceNCNvMs4_CseYC8vFNOjrM_2ccNtB3n_5Build8env_tool0EE9from_iterB3n_, symObjAddr: 0x4520, symBinAddr: 0x10002DAE0, symSize: 0x380 }
  - { offset: 0x3291A, size: 0x8, addend: 0x0, symName: __RNvXNtNtCslJiobkLta79_5alloc3vec21spec_from_iter_nestedINtB4_3VecNtNtB6_6string6StringEINtB2_18SpecFromIterNestedB11_INtNtNtNtCsieiGu2EXtoJ_4core4iter8adapters3map3MapNtNtNtB20_3str4iter15SplitWhitespaceNCNvMs4_CseYC8vFNOjrM_2ccNtB3n_5Build8env_tools_0EE9from_iterB3n_, symObjAddr: 0x48A0, symBinAddr: 0x10002DE60, symSize: 0x380 }
  - { offset: 0x32BCF, size: 0x8, addend: 0x0, symName: __RNvXNtNtCslJiobkLta79_5alloc3vec21spec_from_iter_nestedINtB4_3VecReEINtB2_18SpecFromIterNestedB11_INtNtNtCsieiGu2EXtoJ_4core3str4iter5SplitcEE9from_iterCseYC8vFNOjrM_2cc, symObjAddr: 0x4C20, symBinAddr: 0x10002E1E0, symSize: 0x340 }
  - { offset: 0x32E8F, size: 0x8, addend: 0x0, symName: __RNvXs_NtNtCslJiobkLta79_5alloc3vec21spec_from_iter_nestedINtB6_3VecINtNtB8_5boxed3BoxNtNtNtCsHUR1vrdMJt_3std3ffi6os_str5OsStrEEINtB4_18SpecFromIterNestedB13_INtNtNtNtCsieiGu2EXtoJ_4core4iter8adapters3map3MapINtNtB2A_5chain5ChainINtNtB2A_6cloned6ClonedINtNtNtB2E_5slice4iter4IterRB1l_EEIB2w_IB42_NtNtB8_6string6StringEINvMsl_B1n_B1l_3newB4J_EEENvYB4s_INtNtB2E_7convert4IntoB13_E4intoEE9from_iterCseYC8vFNOjrM_2cc, symObjAddr: 0x5770, symBinAddr: 0x10002EB50, symSize: 0x1C0 }
  - { offset: 0x32F67, size: 0x8, addend: 0x0, symName: __RNvXs_NtNtCslJiobkLta79_5alloc3vec21spec_from_iter_nestedINtB6_3VecRNtNtCsHUR1vrdMJt_3std4path4PathEINtB4_18SpecFromIterNestedB13_INtNtNtNtCsieiGu2EXtoJ_4core4iter8adapters5chain5ChainINtNtB29_3map3MapINtNtNtB2d_5slice4iter4IterNtCseYC8vFNOjrM_2cc6ObjectENCNvMs4_B3G_NtB3G_5Build8assemble0EIB2X_IB3e_INtNtB8_4sync3ArcB14_EENvYB4O_NtNtNtB2d_3ops5deref5Deref5derefEEE9from_iterB3G_, symObjAddr: 0x5930, symBinAddr: 0x10002ED10, symSize: 0x1C0 }
  - { offset: 0x3303F, size: 0x8, addend: 0x0, symName: __RNvXs_NtNtCslJiobkLta79_5alloc3vec21spec_from_iter_nestedINtB6_3VecTNtNtNtCsHUR1vrdMJt_3std3ffi6os_str8OsStringB14_EEINtB4_18SpecFromIterNestedB13_INtNtNtNtCsieiGu2EXtoJ_4core4iter8adapters3map3MapINtNtNtB2u_5slice4iter4IterB13_ENCNvMNtCseYC8vFNOjrM_2cc4toolNtB3K_4Tool20from_find_msvc_tools0EE9from_iterB3M_, symObjAddr: 0x5AF0, symBinAddr: 0x10002EED0, symSize: 0x1B0 }
  - { offset: 0x33117, size: 0x8, addend: 0x0, symName: __RNvXs_NtNtCslJiobkLta79_5alloc3vec21spec_from_iter_nestedINtB6_3VechEINtB4_18SpecFromIterNestedhINtNtNtNtCsieiGu2EXtoJ_4core4iter8adapters3map3MapINtNtNtB1F_5slice4iter4IterhENCNvNtB8_3str13replace_ascii0EE9from_iterCseYC8vFNOjrM_2cc, symObjAddr: 0x5CA0, symBinAddr: 0x10002F080, symSize: 0x1C0 }
  - { offset: 0x331F6, size: 0x8, addend: 0x0, symName: __RNvXs6_NtCslJiobkLta79_5alloc3vecINtB5_3VecINtNtB7_4sync3ArcNtNtCsHUR1vrdMJt_3std4path4PathEENtNtNtCsieiGu2EXtoJ_4core3ops5deref5Deref5derefCseYC8vFNOjrM_2cc, symObjAddr: 0x5280, symBinAddr: 0x10002E6B0, symSize: 0x20 }
  - { offset: 0x33236, size: 0x8, addend: 0x0, symName: __RNvXs6_NtCslJiobkLta79_5alloc3vecINtB5_3VecINtNtB7_4sync3ArcNtNtNtCsHUR1vrdMJt_3std3ffi6os_str5OsStrEENtNtNtCsieiGu2EXtoJ_4core3ops5deref5Deref5derefCseYC8vFNOjrM_2cc, symObjAddr: 0x52A0, symBinAddr: 0x10002E6D0, symSize: 0x20 }
  - { offset: 0x33276, size: 0x8, addend: 0x0, symName: __RNvXs6_NtCslJiobkLta79_5alloc3vecINtB5_3VecNtCseYC8vFNOjrM_2cc6ObjectENtNtNtCsieiGu2EXtoJ_4core3ops5deref5Deref5derefBH_, symObjAddr: 0x52C0, symBinAddr: 0x10002E6F0, symSize: 0x20 }
  - { offset: 0x332B6, size: 0x8, addend: 0x0, symName: __RNvXs6_NtCslJiobkLta79_5alloc3vecINtB5_3VecNtNtB7_6string6StringENtNtNtCsieiGu2EXtoJ_4core3ops5deref5Deref5derefCseYC8vFNOjrM_2cc, symObjAddr: 0x52E0, symBinAddr: 0x10002E710, symSize: 0x20 }
  - { offset: 0x332F6, size: 0x8, addend: 0x0, symName: __RNvXs6_NtCslJiobkLta79_5alloc3vecINtB5_3VecNtNtNtCsHUR1vrdMJt_3std3ffi6os_str8OsStringENtNtNtCsieiGu2EXtoJ_4core3ops5deref5Deref5derefCseYC8vFNOjrM_2cc, symObjAddr: 0x5300, symBinAddr: 0x10002E730, symSize: 0x20 }
  - { offset: 0x33336, size: 0x8, addend: 0x0, symName: __RNvXs6_NtCslJiobkLta79_5alloc3vecINtB5_3VecRNtNtCsHUR1vrdMJt_3std4path4PathENtNtNtCsieiGu2EXtoJ_4core3ops5deref5Deref5derefCseYC8vFNOjrM_2cc, symObjAddr: 0x5320, symBinAddr: 0x10002E750, symSize: 0x20 }
  - { offset: 0x33376, size: 0x8, addend: 0x0, symName: __RNvXs6_NtCslJiobkLta79_5alloc3vecINtB5_3VecReENtNtNtCsieiGu2EXtoJ_4core3ops5deref5Deref5derefCseYC8vFNOjrM_2cc, symObjAddr: 0x5340, symBinAddr: 0x10002E770, symSize: 0x20 }
  - { offset: 0x333B6, size: 0x8, addend: 0x0, symName: __RNvXs6_NtCslJiobkLta79_5alloc3vecINtB5_3VecTINtNtB7_4sync3ArcNtNtNtCsHUR1vrdMJt_3std3ffi6os_str5OsStrEBG_EENtNtNtCsieiGu2EXtoJ_4core3ops5deref5Deref5derefCseYC8vFNOjrM_2cc, symObjAddr: 0x5360, symBinAddr: 0x10002E790, symSize: 0x20 }
  - { offset: 0x333F6, size: 0x8, addend: 0x0, symName: __RNvXs6_NtCslJiobkLta79_5alloc3vecINtB5_3VecTINtNtB7_4sync3ArceEINtNtCsieiGu2EXtoJ_4core6option6OptionBG_EEENtNtNtB14_3ops5deref5Deref5derefCseYC8vFNOjrM_2cc, symObjAddr: 0x5380, symBinAddr: 0x10002E7B0, symSize: 0x20 }
  - { offset: 0x33436, size: 0x8, addend: 0x0, symName: __RNvXs6_NtCslJiobkLta79_5alloc3vecINtB5_3VechENtNtNtCsieiGu2EXtoJ_4core3ops5deref5Deref5derefCseYC8vFNOjrM_2cc, symObjAddr: 0x53A0, symBinAddr: 0x10002E7D0, symSize: 0x20 }
  - { offset: 0x3362C, size: 0x8, addend: 0x0, symName: __RNvXs7_NtCslJiobkLta79_5alloc3vecINtB5_3VechENtNtNtCsieiGu2EXtoJ_4core3ops5deref8DerefMut9deref_mutCseYC8vFNOjrM_2cc, symObjAddr: 0x53C0, symBinAddr: 0x10002E7F0, symSize: 0x20 }
  - { offset: 0x336A2, size: 0x8, addend: 0x0, symName: __RNvXs9_NtCslJiobkLta79_5alloc3vecINtB5_3VecNtNtB7_6string6StringENtNtCsieiGu2EXtoJ_4core5clone5Clone5cloneCseYC8vFNOjrM_2cc, symObjAddr: 0x53E0, symBinAddr: 0x10002E810, symSize: 0x90 }
  - { offset: 0x33873, size: 0x8, addend: 0x0, symName: __RNvXs9_NtCslJiobkLta79_5alloc3vecINtB5_3VecNtNtNtCsHUR1vrdMJt_3std3ffi6os_str8OsStringENtNtCsieiGu2EXtoJ_4core5clone5Clone5cloneCseYC8vFNOjrM_2cc, symObjAddr: 0x5470, symBinAddr: 0x10002E8A0, symSize: 0x90 }
  - { offset: 0x33A44, size: 0x8, addend: 0x0, symName: __RNvXs9_NtCslJiobkLta79_5alloc3vecINtB5_3VecTNtNtNtCsHUR1vrdMJt_3std3ffi6os_str8OsStringBG_EENtNtCsieiGu2EXtoJ_4core5clone5Clone5cloneCseYC8vFNOjrM_2cc, symObjAddr: 0x5500, symBinAddr: 0x10002E930, symSize: 0x90 }
  - { offset: 0x33C15, size: 0x8, addend: 0x0, symName: __RNvXs9_NtCslJiobkLta79_5alloc3vecINtB5_3VechENtNtCsieiGu2EXtoJ_4core5clone5Clone10clone_fromCseYC8vFNOjrM_2cc, symObjAddr: 0x5590, symBinAddr: 0x10002E9C0, symSize: 0x60 }
  - { offset: 0x33D03, size: 0x8, addend: 0x0, symName: __RNvXs9_NtCslJiobkLta79_5alloc3vecINtB5_3VechENtNtCsieiGu2EXtoJ_4core5clone5Clone5cloneCseYC8vFNOjrM_2cc, symObjAddr: 0x55F0, symBinAddr: 0x10002EA20, symSize: 0x90 }
  - { offset: 0x33EDA, size: 0x8, addend: 0x0, symName: __RNvXsb_NtCslJiobkLta79_5alloc3vecINtB5_3VechEINtNtNtCsieiGu2EXtoJ_4core3ops5index5IndexINtNtBM_5range7RangeTojEE5indexCseYC8vFNOjrM_2cc, symObjAddr: 0x5E60, symBinAddr: 0x10002F240, symSize: 0x110 }
  - { offset: 0x340E9, size: 0x8, addend: 0x0, symName: __RNvXsc_NtCslJiobkLta79_5alloc3vecINtB5_3VechEINtNtNtCsieiGu2EXtoJ_4core3ops5index8IndexMutINtNtBM_5range9RangeFromjEE9index_mutCseYC8vFNOjrM_2cc, symObjAddr: 0x5F70, symBinAddr: 0x10002F350, symSize: 0x70 }
  - { offset: 0x34243, size: 0x8, addend: 0x0, symName: __RNvXse_NtCslJiobkLta79_5alloc3vecINtB5_3VecNtNtB7_6string6StringENtNtNtNtCsieiGu2EXtoJ_4core4iter6traits7collect12IntoIterator9into_iterCseYC8vFNOjrM_2cc, symObjAddr: 0x6120, symBinAddr: 0x10002F3C0, symSize: 0x140 }
  - { offset: 0x344D9, size: 0x8, addend: 0x0, symName: __RNvXsf_NtCslJiobkLta79_5alloc3vecRINtB5_3VecINtNtB7_4sync3ArcNtNtNtCsHUR1vrdMJt_3std3ffi6os_str5OsStrEENtNtNtNtCsieiGu2EXtoJ_4core4iter6traits7collect12IntoIterator9into_iterCseYC8vFNOjrM_2cc, symObjAddr: 0x6260, symBinAddr: 0x10002F500, symSize: 0x80 }
  - { offset: 0x34706, size: 0x8, addend: 0x0, symName: __RNvXsf_NtCslJiobkLta79_5alloc3vecRINtB5_3VecNtNtB7_6string6StringENtNtNtNtCsieiGu2EXtoJ_4core4iter6traits7collect12IntoIterator9into_iterCseYC8vFNOjrM_2cc, symObjAddr: 0x62E0, symBinAddr: 0x10002F580, symSize: 0x80 }
  - { offset: 0x34933, size: 0x8, addend: 0x0, symName: __RNvXsf_NtCslJiobkLta79_5alloc3vecRINtB5_3VecNtNtNtCsHUR1vrdMJt_3std3ffi6os_str8OsStringENtNtNtNtCsieiGu2EXtoJ_4core4iter6traits7collect12IntoIterator9into_iterCseYC8vFNOjrM_2cc, symObjAddr: 0x6360, symBinAddr: 0x10002F600, symSize: 0x80 }
  - { offset: 0x34B60, size: 0x8, addend: 0x0, symName: __RNvXsf_NtCslJiobkLta79_5alloc3vecRINtB5_3VecTNtNtNtCsHUR1vrdMJt_3std3ffi6os_str8OsStringBH_EENtNtNtNtCsieiGu2EXtoJ_4core4iter6traits7collect12IntoIterator9into_iterCseYC8vFNOjrM_2cc, symObjAddr: 0x63E0, symBinAddr: 0x10002F680, symSize: 0x80 }
  - { offset: 0x34D93, size: 0x8, addend: 0x0, symName: __RNvXsn_NtCslJiobkLta79_5alloc3vecINtB5_3VecINtNtB7_4sync3ArcNtNtCsHUR1vrdMJt_3std4path4PathEENtNtNtCsieiGu2EXtoJ_4core3ops4drop4Drop4dropCseYC8vFNOjrM_2cc, symObjAddr: 0x6460, symBinAddr: 0x10002F700, symSize: 0x30 }
  - { offset: 0x34E43, size: 0x8, addend: 0x0, symName: __RNvXsn_NtCslJiobkLta79_5alloc3vecINtB5_3VecINtNtB7_4sync3ArcNtNtNtCsHUR1vrdMJt_3std3ffi6os_str5OsStrEENtNtNtCsieiGu2EXtoJ_4core3ops4drop4Drop4dropCseYC8vFNOjrM_2cc, symObjAddr: 0x6490, symBinAddr: 0x10002F730, symSize: 0x30 }
  - { offset: 0x34EF3, size: 0x8, addend: 0x0, symName: __RNvXsn_NtCslJiobkLta79_5alloc3vecINtB5_3VecINtNtB7_5boxed3BoxNtNtNtCsHUR1vrdMJt_3std3ffi6os_str5OsStrEENtNtNtCsieiGu2EXtoJ_4core3ops4drop4Drop4dropCseYC8vFNOjrM_2cc, symObjAddr: 0x64C0, symBinAddr: 0x10002F760, symSize: 0x30 }
  - { offset: 0x34FA3, size: 0x8, addend: 0x0, symName: __RNvXsn_NtCslJiobkLta79_5alloc3vecINtB5_3VecNtCseYC8vFNOjrM_2cc6ObjectENtNtNtCsieiGu2EXtoJ_4core3ops4drop4Drop4dropBH_, symObjAddr: 0x64F0, symBinAddr: 0x10002F790, symSize: 0x30 }
  - { offset: 0x35053, size: 0x8, addend: 0x0, symName: __RNvXsn_NtCslJiobkLta79_5alloc3vecINtB5_3VecNtNtNtCsHUR1vrdMJt_3std3ffi6os_str8OsStringENtNtNtCsieiGu2EXtoJ_4core3ops4drop4Drop4dropCseYC8vFNOjrM_2cc, symObjAddr: 0x6520, symBinAddr: 0x10002F7C0, symSize: 0x30 }
  - { offset: 0x35103, size: 0x8, addend: 0x0, symName: __RNvXsn_NtCslJiobkLta79_5alloc3vecINtB5_3VecNtNtNtNtCsHUR1vrdMJt_3std4sync4mpmc5waker5EntryENtNtNtCsieiGu2EXtoJ_4core3ops4drop4Drop4dropCseYC8vFNOjrM_2cc, symObjAddr: 0x6550, symBinAddr: 0x10002F7F0, symSize: 0x30 }
  - { offset: 0x351B3, size: 0x8, addend: 0x0, symName: __RNvXsn_NtCslJiobkLta79_5alloc3vecINtB5_3VecRNtNtCsHUR1vrdMJt_3std4path4PathENtNtNtCsieiGu2EXtoJ_4core3ops4drop4Drop4dropCseYC8vFNOjrM_2cc, symObjAddr: 0x6580, symBinAddr: 0x10002F820, symSize: 0x20 }
  - { offset: 0x35263, size: 0x8, addend: 0x0, symName: __RNvXsn_NtCslJiobkLta79_5alloc3vecINtB5_3VecReENtNtNtCsieiGu2EXtoJ_4core3ops4drop4Drop4dropCseYC8vFNOjrM_2cc, symObjAddr: 0x65A0, symBinAddr: 0x10002F840, symSize: 0x20 }
  - { offset: 0x35313, size: 0x8, addend: 0x0, symName: __RNvXsn_NtCslJiobkLta79_5alloc3vecINtB5_3VecTINtNtB7_4sync3ArcNtNtNtCsHUR1vrdMJt_3std3ffi6os_str5OsStrEBG_EENtNtNtCsieiGu2EXtoJ_4core3ops4drop4Drop4dropCseYC8vFNOjrM_2cc, symObjAddr: 0x65C0, symBinAddr: 0x10002F860, symSize: 0x30 }
  - { offset: 0x353C3, size: 0x8, addend: 0x0, symName: __RNvXsn_NtCslJiobkLta79_5alloc3vecINtB5_3VecTINtNtB7_4sync3ArceEINtNtCsieiGu2EXtoJ_4core6option6OptionBG_EEENtNtNtB14_3ops4drop4Drop4dropCseYC8vFNOjrM_2cc, symObjAddr: 0x65F0, symBinAddr: 0x10002F890, symSize: 0x30 }
  - { offset: 0x35473, size: 0x8, addend: 0x0, symName: __RNvXsn_NtCslJiobkLta79_5alloc3vecINtB5_3VecTNtNtCsHUR1vrdMJt_3std7process7CommandNtNtNtCseYC8vFNOjrM_2cc8parallel14command_runner10KillOnDropNtNtB1l_9job_token8JobTokenEENtNtNtCsieiGu2EXtoJ_4core3ops4drop4Drop4dropB1n_, symObjAddr: 0x6620, symBinAddr: 0x10002F8C0, symSize: 0x30 }
  - { offset: 0x35529, size: 0x8, addend: 0x0, symName: __RNvXso_NtCslJiobkLta79_5alloc3vecINtB5_3VecTNtNtCsHUR1vrdMJt_3std7process7CommandNtNtNtCseYC8vFNOjrM_2cc8parallel14command_runner10KillOnDropNtNtB1l_9job_token8JobTokenEENtNtCsieiGu2EXtoJ_4core7default7Default7defaultB1n_, symObjAddr: 0x6650, symBinAddr: 0x10002F8F0, symSize: 0x30 }
  - { offset: 0x3719C, size: 0x8, addend: 0x0, symName: __RINvMs_NtCslJiobkLta79_5alloc3vecINtB5_3VecNtNtNtNtCsHUR1vrdMJt_3std4sync4mpmc5waker5EntryE5drainNtNtNtCsieiGu2EXtoJ_4core3ops5range9RangeFullECseYC8vFNOjrM_2cc, symObjAddr: 0x1A0, symBinAddr: 0x100029D60, symSize: 0x1C0 }
  - { offset: 0x37853, size: 0x8, addend: 0x0, symName: __RINvMs_NtCslJiobkLta79_5alloc3vecINtB5_3VecTNtNtCsHUR1vrdMJt_3std7process7CommandNtNtNtCseYC8vFNOjrM_2cc8parallel14command_runner10KillOnDropNtNtB1l_9job_token8JobTokenEE10retain_mutNCNCNCNvB1j_24run_commands_in_parallel000EB1n_, symObjAddr: 0x360, symBinAddr: 0x100029F20, symSize: 0x160 }
  - { offset: 0x37CE9, size: 0x8, addend: 0x0, symName: __RINvMsi_NtCslJiobkLta79_5alloc3vecINtB6_3VecINtNtB8_5boxed3BoxNtNtNtCsHUR1vrdMJt_3std3ffi6os_str5OsStrEE14extend_trustedINtNtNtNtCsieiGu2EXtoJ_4core4iter8adapters3map3MapINtNtB1Z_5chain5ChainINtNtB1Z_6cloned6ClonedINtNtNtB23_5slice4iter4IterRBY_EEIB1V_IB3r_NtNtB8_6string6StringEINvMsl_B10_BY_3newB47_EEENvYB3R_INtNtB23_7convert4IntoBG_E4intoEECseYC8vFNOjrM_2cc, symObjAddr: 0x690, symBinAddr: 0x10002A080, symSize: 0x1C0 }
  - { offset: 0x38078, size: 0x8, addend: 0x0, symName: __RINvMsi_NtCslJiobkLta79_5alloc3vecINtB6_3VecNtNtB8_6string6StringE16extend_desugaredINtNtNtNtCsieiGu2EXtoJ_4core4iter8adapters3map3MapNtNtNtB1t_3str4iter15SplitWhitespaceNCNvMs4_CseYC8vFNOjrM_2ccNtB2Q_5Build8env_tool0EEB2Q_, symObjAddr: 0x850, symBinAddr: 0x10002A240, symSize: 0x250 }
  - { offset: 0x3848C, size: 0x8, addend: 0x0, symName: __RINvMsi_NtCslJiobkLta79_5alloc3vecINtB6_3VecNtNtB8_6string6StringE16extend_desugaredINtNtNtNtCsieiGu2EXtoJ_4core4iter8adapters3map3MapNtNtNtB1t_3str4iter15SplitWhitespaceNCNvMs4_CseYC8vFNOjrM_2ccNtB2Q_5Build8env_tools_0EEB2Q_, symObjAddr: 0xAA0, symBinAddr: 0x10002A490, symSize: 0x250 }
  - { offset: 0x388D6, size: 0x8, addend: 0x0, symName: __RINvMsi_NtCslJiobkLta79_5alloc3vecINtB6_3VecNtNtB8_6string6StringE16extend_desugaredINtNtNtNtCsieiGu2EXtoJ_4core4iter8adapters3map3MapNtNtNtB1t_3str4iter20SplitAsciiWhitespaceNvYeNtBI_8ToString9to_stringEECseYC8vFNOjrM_2cc, symObjAddr: 0xCF0, symBinAddr: 0x10002A6E0, symSize: 0x250 }
  - { offset: 0x38D38, size: 0x8, addend: 0x0, symName: __RINvMsi_NtCslJiobkLta79_5alloc3vecINtB6_3VecNtNtB8_6string6StringE16extend_desugaredNtCs6EOBT9HYl7a_5shlex5ShlexECseYC8vFNOjrM_2cc, symObjAddr: 0xF40, symBinAddr: 0x10002A930, symSize: 0x250 }
  - { offset: 0x390F6, size: 0x8, addend: 0x0, symName: __RINvMsi_NtCslJiobkLta79_5alloc3vecINtB6_3VecNtNtNtCsHUR1vrdMJt_3std3ffi6os_str8OsStringE14extend_trustedINtNtNtCsieiGu2EXtoJ_4core5array4iter8IntoIterBG_Kj6_EECseYC8vFNOjrM_2cc, symObjAddr: 0x1190, symBinAddr: 0x10002AB80, symSize: 0x1E0 }
  - { offset: 0x3947B, size: 0x8, addend: 0x0, symName: __RINvMsi_NtCslJiobkLta79_5alloc3vecINtB6_3VecRNtNtCsHUR1vrdMJt_3std4path4PathE14extend_trustedINtNtNtNtCsieiGu2EXtoJ_4core4iter8adapters5chain5ChainINtNtB1y_3map3MapINtNtNtB1C_5slice4iter4IterNtCseYC8vFNOjrM_2cc6ObjectENCNvMs4_B35_NtB35_5Build8assemble0EIB2m_IB2D_INtNtB8_4sync3ArcBH_EENvYB4d_NtNtNtB1C_3ops5deref5Deref5derefEEEB35_, symObjAddr: 0x1370, symBinAddr: 0x10002AD60, symSize: 0x1C0 }
  - { offset: 0x3981E, size: 0x8, addend: 0x0, symName: __RINvMsi_NtCslJiobkLta79_5alloc3vecINtB6_3VecReE16extend_desugaredINtNtNtCsieiGu2EXtoJ_4core3str4iter5SplitcEECseYC8vFNOjrM_2cc, symObjAddr: 0x1530, symBinAddr: 0x10002AF20, symSize: 0x240 }
  - { offset: 0x39BFB, size: 0x8, addend: 0x0, symName: __RINvMsi_NtCslJiobkLta79_5alloc3vecINtB6_3VecTNtNtNtCsHUR1vrdMJt_3std3ffi6os_str8OsStringBH_EE14extend_trustedINtNtNtNtCsieiGu2EXtoJ_4core4iter8adapters3map3MapINtNtNtB1S_5slice4iter4IterBG_ENCNvMNtCseYC8vFNOjrM_2cc4toolNtB37_4Tool20from_find_msvc_tools0EEB39_, symObjAddr: 0x1770, symBinAddr: 0x10002B160, symSize: 0x1A0 }
  - { offset: 0x39ED9, size: 0x8, addend: 0x0, symName: __RINvMsi_NtCslJiobkLta79_5alloc3vecINtB6_3VechE14extend_trustedINtNtNtNtCsieiGu2EXtoJ_4core4iter8adapters3map3MapINtNtNtB17_5slice4iter4IterhENCNvNtB8_3str13replace_ascii0EECseYC8vFNOjrM_2cc, symObjAddr: 0x1910, symBinAddr: 0x10002B300, symSize: 0x1C0 }
  - { offset: 0x3A24B, size: 0x8, addend: 0x0, symName: __RNvMNtCslJiobkLta79_5alloc3vecINtB2_3VecINtNtB4_4sync3ArcNtNtCsHUR1vrdMJt_3std4path4PathEE3newCseYC8vFNOjrM_2cc, symObjAddr: 0x2390, symBinAddr: 0x10002BAB0, symSize: 0x30 }
  - { offset: 0x3A268, size: 0x8, addend: 0x0, symName: __RNvMNtCslJiobkLta79_5alloc3vecINtB2_3VecINtNtB4_4sync3ArcNtNtNtCsHUR1vrdMJt_3std3ffi6os_str5OsStrEE3newCseYC8vFNOjrM_2cc, symObjAddr: 0x23C0, symBinAddr: 0x10002BAE0, symSize: 0x30 }
  - { offset: 0x3A2E7, size: 0x8, addend: 0x0, symName: __RNvMNtCslJiobkLta79_5alloc3vecINtB2_3VecNtCseYC8vFNOjrM_2cc6ObjectE13with_capacityBE_, symObjAddr: 0x23F0, symBinAddr: 0x10002BB10, symSize: 0x60 }
  - { offset: 0x3A35F, size: 0x8, addend: 0x0, symName: __RNvMNtCslJiobkLta79_5alloc3vecINtB2_3VecNtNtB4_6string6StringE3newCseYC8vFNOjrM_2cc, symObjAddr: 0x2450, symBinAddr: 0x10002BB70, symSize: 0x30 }
  - { offset: 0x3A37C, size: 0x8, addend: 0x0, symName: __RNvMNtCslJiobkLta79_5alloc3vecINtB2_3VecNtNtNtCsHUR1vrdMJt_3std3ffi6os_str8OsStringE3newCseYC8vFNOjrM_2cc, symObjAddr: 0x2480, symBinAddr: 0x10002BBA0, symSize: 0x30 }
  - { offset: 0x3A3B7, size: 0x8, addend: 0x0, symName: __RNvMNtCslJiobkLta79_5alloc3vecINtB2_3VecTINtNtB4_4sync3ArcNtNtNtCsHUR1vrdMJt_3std3ffi6os_str5OsStrEBD_EE3newCseYC8vFNOjrM_2cc, symObjAddr: 0x24B0, symBinAddr: 0x10002BBD0, symSize: 0x30 }
  - { offset: 0x3A419, size: 0x8, addend: 0x0, symName: __RNvMNtCslJiobkLta79_5alloc3vecINtB2_3VecTINtNtB4_4sync3ArceEINtNtCsieiGu2EXtoJ_4core6option6OptionBD_EEE3newCseYC8vFNOjrM_2cc, symObjAddr: 0x24E0, symBinAddr: 0x10002BC00, symSize: 0x30 }
  - { offset: 0x3A436, size: 0x8, addend: 0x0, symName: __RNvMNtCslJiobkLta79_5alloc3vecINtB2_3VecTNtNtCsHUR1vrdMJt_3std7process7CommandNtNtNtCseYC8vFNOjrM_2cc8parallel14command_runner10KillOnDropNtNtB1i_9job_token8JobTokenEE3newB1k_, symObjAddr: 0x2510, symBinAddr: 0x10002BC30, symSize: 0x30 }
  - { offset: 0x3A4B5, size: 0x8, addend: 0x0, symName: __RNvMNtCslJiobkLta79_5alloc3vecINtB2_3VechE13with_capacityCseYC8vFNOjrM_2cc, symObjAddr: 0x2540, symBinAddr: 0x10002BC60, symSize: 0x50 }
  - { offset: 0x3A64C, size: 0x8, addend: 0x0, symName: __RNvMs0_NtCslJiobkLta79_5alloc3vecINtB5_3VechE6resizeCseYC8vFNOjrM_2cc, symObjAddr: 0x2590, symBinAddr: 0x10002BCB0, symSize: 0xE0 }
  - { offset: 0x3A8F9, size: 0x8, addend: 0x0, symName: __RNvMs2_NtCslJiobkLta79_5alloc3vecINtB5_3VechE11extend_withCseYC8vFNOjrM_2cc, symObjAddr: 0x2670, symBinAddr: 0x10002BD90, symSize: 0x280 }
  - { offset: 0x3AC9B, size: 0x8, addend: 0x0, symName: __RNvMs_NtCslJiobkLta79_5alloc3vecINtB4_3VecINtNtB6_4sync3ArcNtNtCsHUR1vrdMJt_3std4path4PathEE8as_sliceCseYC8vFNOjrM_2cc, symObjAddr: 0x2900, symBinAddr: 0x10002C010, symSize: 0x50 }
  - { offset: 0x3AD55, size: 0x8, addend: 0x0, symName: __RNvMs_NtCslJiobkLta79_5alloc3vecINtB4_3VecINtNtB6_4sync3ArcNtNtNtCsHUR1vrdMJt_3std3ffi6os_str5OsStrEE4pushCseYC8vFNOjrM_2cc, symObjAddr: 0x2950, symBinAddr: 0x10002C060, symSize: 0x20 }
  - { offset: 0x3AE57, size: 0x8, addend: 0x0, symName: __RNvMs_NtCslJiobkLta79_5alloc3vecINtB4_3VecINtNtB6_4sync3ArcNtNtNtCsHUR1vrdMJt_3std3ffi6os_str5OsStrEE8as_sliceCseYC8vFNOjrM_2cc, symObjAddr: 0x2A20, symBinAddr: 0x10002C080, symSize: 0x50 }
  - { offset: 0x3AF36, size: 0x8, addend: 0x0, symName: __RNvMs_NtCslJiobkLta79_5alloc3vecINtB4_3VecINtNtB6_4sync3ArcNtNtNtCsHUR1vrdMJt_3std3ffi6os_str5OsStrEE8is_emptyCseYC8vFNOjrM_2cc, symObjAddr: 0x2A70, symBinAddr: 0x10002C0D0, symSize: 0x20 }
  - { offset: 0x3B068, size: 0x8, addend: 0x0, symName: __RNvMs_NtCslJiobkLta79_5alloc3vecINtB4_3VecINtNtB6_4sync3ArcNtNtNtCsHUR1vrdMJt_3std3ffi6os_str5OsStrEE8push_mutCseYC8vFNOjrM_2cc, symObjAddr: 0x2A90, symBinAddr: 0x10002C0F0, symSize: 0xF0 }
  - { offset: 0x3B331, size: 0x8, addend: 0x0, symName: __RNvMs_NtCslJiobkLta79_5alloc3vecINtB4_3VecINtNtB6_5boxed3BoxNtNtNtCsHUR1vrdMJt_3std3ffi6os_str5OsStrEE13shrink_to_fitCseYC8vFNOjrM_2cc, symObjAddr: 0x2B80, symBinAddr: 0x10002C1E0, symSize: 0xE0 }
  - { offset: 0x3B5AB, size: 0x8, addend: 0x0, symName: __RNvMs_NtCslJiobkLta79_5alloc3vecINtB4_3VecINtNtB6_5boxed3BoxNtNtNtCsHUR1vrdMJt_3std3ffi6os_str5OsStrEE16into_boxed_sliceCseYC8vFNOjrM_2cc, symObjAddr: 0x2C60, symBinAddr: 0x10002C2C0, symSize: 0x160 }
  - { offset: 0x3B884, size: 0x8, addend: 0x0, symName: __RNvMs_NtCslJiobkLta79_5alloc3vecINtB4_3VecINtNtB6_5boxed3BoxNtNtNtCsHUR1vrdMJt_3std3ffi6os_str5OsStrEE7reserveCseYC8vFNOjrM_2cc, symObjAddr: 0x2DC0, symBinAddr: 0x10002C420, symSize: 0xB0 }
  - { offset: 0x3B9FE, size: 0x8, addend: 0x0, symName: __RNvMs_NtCslJiobkLta79_5alloc3vecINtB4_3VecNtCseYC8vFNOjrM_2cc6ObjectE4pushBG_, symObjAddr: 0x2E70, symBinAddr: 0x10002C4D0, symSize: 0x20 }
  - { offset: 0x3BB01, size: 0x8, addend: 0x0, symName: __RNvMs_NtCslJiobkLta79_5alloc3vecINtB4_3VecNtCseYC8vFNOjrM_2cc6ObjectE8as_sliceBG_, symObjAddr: 0x2E90, symBinAddr: 0x10002C4F0, symSize: 0x50 }
  - { offset: 0x3BCA7, size: 0x8, addend: 0x0, symName: __RNvMs_NtCslJiobkLta79_5alloc3vecINtB4_3VecNtCseYC8vFNOjrM_2cc6ObjectE8push_mutBG_, symObjAddr: 0x2EE0, symBinAddr: 0x10002C540, symSize: 0x130 }
  - { offset: 0x3BEE0, size: 0x8, addend: 0x0, symName: __RNvMs_NtCslJiobkLta79_5alloc3vecINtB4_3VecNtNtB6_6string6StringE7set_lenCseYC8vFNOjrM_2cc, symObjAddr: 0x3010, symBinAddr: 0x10002C670, symSize: 0x70 }
  - { offset: 0x3C050, size: 0x8, addend: 0x0, symName: __RNvMs_NtCslJiobkLta79_5alloc3vecINtB4_3VecNtNtB6_6string6StringE8as_sliceCseYC8vFNOjrM_2cc, symObjAddr: 0x3080, symBinAddr: 0x10002C6E0, symSize: 0x50 }
  - { offset: 0x3C10A, size: 0x8, addend: 0x0, symName: __RNvMs_NtCslJiobkLta79_5alloc3vecINtB4_3VecNtNtNtCsHUR1vrdMJt_3std3ffi6os_str8OsStringE4pushCseYC8vFNOjrM_2cc, symObjAddr: 0x30D0, symBinAddr: 0x10002C730, symSize: 0x20 }
  - { offset: 0x3C265, size: 0x8, addend: 0x0, symName: __RNvMs_NtCslJiobkLta79_5alloc3vecINtB4_3VecNtNtNtCsHUR1vrdMJt_3std3ffi6os_str8OsStringE7reserveCseYC8vFNOjrM_2cc, symObjAddr: 0x30F0, symBinAddr: 0x10002C750, symSize: 0xB0 }
  - { offset: 0x3C463, size: 0x8, addend: 0x0, symName: __RNvMs_NtCslJiobkLta79_5alloc3vecINtB4_3VecNtNtNtCsHUR1vrdMJt_3std3ffi6os_str8OsStringE7set_lenCseYC8vFNOjrM_2cc, symObjAddr: 0x31A0, symBinAddr: 0x10002C800, symSize: 0x70 }
  - { offset: 0x3C5D3, size: 0x8, addend: 0x0, symName: __RNvMs_NtCslJiobkLta79_5alloc3vecINtB4_3VecNtNtNtCsHUR1vrdMJt_3std3ffi6os_str8OsStringE8as_sliceCseYC8vFNOjrM_2cc, symObjAddr: 0x3210, symBinAddr: 0x10002C870, symSize: 0x50 }
  - { offset: 0x3C6B2, size: 0x8, addend: 0x0, symName: __RNvMs_NtCslJiobkLta79_5alloc3vecINtB4_3VecNtNtNtCsHUR1vrdMJt_3std3ffi6os_str8OsStringE8is_emptyCseYC8vFNOjrM_2cc, symObjAddr: 0x3260, symBinAddr: 0x10002C8C0, symSize: 0x20 }
  - { offset: 0x3C7F1, size: 0x8, addend: 0x0, symName: __RNvMs_NtCslJiobkLta79_5alloc3vecINtB4_3VecNtNtNtCsHUR1vrdMJt_3std3ffi6os_str8OsStringE8push_mutCseYC8vFNOjrM_2cc, symObjAddr: 0x3280, symBinAddr: 0x10002C8E0, symSize: 0x110 }
  - { offset: 0x3CB00, size: 0x8, addend: 0x0, symName: __RNvMs_NtCslJiobkLta79_5alloc3vecINtB4_3VecNtNtNtNtCsHUR1vrdMJt_3std4sync4mpmc5waker5EntryE6removeCseYC8vFNOjrM_2cc, symObjAddr: 0x3390, symBinAddr: 0x10002C9F0, symSize: 0x1C0 }
  - { offset: 0x3CE55, size: 0x8, addend: 0x0, symName: __RNvMs_NtCslJiobkLta79_5alloc3vecINtB4_3VecNtNtNtNtCsHUR1vrdMJt_3std4sync4mpmc5waker5EntryE8push_mutCseYC8vFNOjrM_2cc, symObjAddr: 0x3550, symBinAddr: 0x10002CBB0, symSize: 0x110 }
  - { offset: 0x3D120, size: 0x8, addend: 0x0, symName: __RNvMs_NtCslJiobkLta79_5alloc3vecINtB4_3VecRNtNtCsHUR1vrdMJt_3std4path4PathE7reserveCseYC8vFNOjrM_2cc, symObjAddr: 0x3660, symBinAddr: 0x10002CCC0, symSize: 0xB0 }
  - { offset: 0x3D331, size: 0x8, addend: 0x0, symName: __RNvMs_NtCslJiobkLta79_5alloc3vecINtB4_3VecRNtNtCsHUR1vrdMJt_3std4path4PathE8as_sliceCseYC8vFNOjrM_2cc, symObjAddr: 0x3710, symBinAddr: 0x10002CD70, symSize: 0x50 }
  - { offset: 0x3D4BF, size: 0x8, addend: 0x0, symName: __RNvMs_NtCslJiobkLta79_5alloc3vecINtB4_3VecReE17from_raw_parts_inCseYC8vFNOjrM_2cc, symObjAddr: 0x3760, symBinAddr: 0x10002CDC0, symSize: 0xA0 }
  - { offset: 0x3D646, size: 0x8, addend: 0x0, symName: __RNvMs_NtCslJiobkLta79_5alloc3vecINtB4_3VecReE4pushCseYC8vFNOjrM_2cc, symObjAddr: 0x3800, symBinAddr: 0x10002CE60, symSize: 0x20 }
  - { offset: 0x3D7A0, size: 0x8, addend: 0x0, symName: __RNvMs_NtCslJiobkLta79_5alloc3vecINtB4_3VecReE7reserveCseYC8vFNOjrM_2cc, symObjAddr: 0x3820, symBinAddr: 0x10002CE80, symSize: 0xB0 }
  - { offset: 0x3D97D, size: 0x8, addend: 0x0, symName: __RNvMs_NtCslJiobkLta79_5alloc3vecINtB4_3VecReE8as_sliceCseYC8vFNOjrM_2cc, symObjAddr: 0x38D0, symBinAddr: 0x10002CF30, symSize: 0x50 }
  - { offset: 0x3DB23, size: 0x8, addend: 0x0, symName: __RNvMs_NtCslJiobkLta79_5alloc3vecINtB4_3VecReE8push_mutCseYC8vFNOjrM_2cc, symObjAddr: 0x3920, symBinAddr: 0x10002CF80, symSize: 0xF0 }
  - { offset: 0x3DDA4, size: 0x8, addend: 0x0, symName: __RNvMs_NtCslJiobkLta79_5alloc3vecINtB4_3VecTINtNtB6_4sync3ArcNtNtNtCsHUR1vrdMJt_3std3ffi6os_str5OsStrEBF_EE8as_sliceCseYC8vFNOjrM_2cc, symObjAddr: 0x3A10, symBinAddr: 0x10002D070, symSize: 0x50 }
  - { offset: 0x3DF29, size: 0x8, addend: 0x0, symName: __RNvMs_NtCslJiobkLta79_5alloc3vecINtB4_3VecTINtNtB6_4sync3ArceEINtNtCsieiGu2EXtoJ_4core6option6OptionBF_EEE8as_sliceCseYC8vFNOjrM_2cc, symObjAddr: 0x3A60, symBinAddr: 0x10002D0C0, symSize: 0x50 }
  - { offset: 0x3DFE3, size: 0x8, addend: 0x0, symName: __RNvMs_NtCslJiobkLta79_5alloc3vecINtB4_3VecTNtNtCsHUR1vrdMJt_3std7process7CommandNtNtNtCseYC8vFNOjrM_2cc8parallel14command_runner10KillOnDropNtNtB1k_9job_token8JobTokenEE4pushB1m_, symObjAddr: 0x3AB0, symBinAddr: 0x10002D110, symSize: 0x20 }
  - { offset: 0x3E04D, size: 0x8, addend: 0x0, symName: __RNvMs_NtCslJiobkLta79_5alloc3vecINtB4_3VecTNtNtCsHUR1vrdMJt_3std7process7CommandNtNtNtCseYC8vFNOjrM_2cc8parallel14command_runner10KillOnDropNtNtB1k_9job_token8JobTokenEE8is_emptyB1m_, symObjAddr: 0x3AD0, symBinAddr: 0x10002D130, symSize: 0x20 }
  - { offset: 0x3E17F, size: 0x8, addend: 0x0, symName: __RNvMs_NtCslJiobkLta79_5alloc3vecINtB4_3VecTNtNtCsHUR1vrdMJt_3std7process7CommandNtNtNtCseYC8vFNOjrM_2cc8parallel14command_runner10KillOnDropNtNtB1k_9job_token8JobTokenEE8push_mutB1m_, symObjAddr: 0x3AF0, symBinAddr: 0x10002D150, symSize: 0x140 }
  - { offset: 0x3E334, size: 0x8, addend: 0x0, symName: __RNvMs_NtCslJiobkLta79_5alloc3vecINtB4_3VecTNtNtNtCsHUR1vrdMJt_3std3ffi6os_str8OsStringBF_EE4pushCseYC8vFNOjrM_2cc, symObjAddr: 0x3C30, symBinAddr: 0x10002D290, symSize: 0x20 }
  - { offset: 0x3E48F, size: 0x8, addend: 0x0, symName: __RNvMs_NtCslJiobkLta79_5alloc3vecINtB4_3VecTNtNtNtCsHUR1vrdMJt_3std3ffi6os_str8OsStringBF_EE7reserveCseYC8vFNOjrM_2cc, symObjAddr: 0x3C50, symBinAddr: 0x10002D2B0, symSize: 0xB0 }
  - { offset: 0x3E68D, size: 0x8, addend: 0x0, symName: __RNvMs_NtCslJiobkLta79_5alloc3vecINtB4_3VecTNtNtNtCsHUR1vrdMJt_3std3ffi6os_str8OsStringBF_EE7set_lenCseYC8vFNOjrM_2cc, symObjAddr: 0x3D00, symBinAddr: 0x10002D360, symSize: 0x70 }
  - { offset: 0x3E78B, size: 0x8, addend: 0x0, symName: __RNvMs_NtCslJiobkLta79_5alloc3vecINtB4_3VecTNtNtNtCsHUR1vrdMJt_3std3ffi6os_str8OsStringBF_EE8is_emptyCseYC8vFNOjrM_2cc, symObjAddr: 0x3D70, symBinAddr: 0x10002D3D0, symSize: 0x20 }
  - { offset: 0x3E8CA, size: 0x8, addend: 0x0, symName: __RNvMs_NtCslJiobkLta79_5alloc3vecINtB4_3VecTNtNtNtCsHUR1vrdMJt_3std3ffi6os_str8OsStringBF_EE8push_mutCseYC8vFNOjrM_2cc, symObjAddr: 0x3D90, symBinAddr: 0x10002D3F0, symSize: 0x130 }
  - { offset: 0x3EB1D, size: 0x8, addend: 0x0, symName: __RNvMs_NtCslJiobkLta79_5alloc3vecINtB4_3VechE12as_mut_sliceCseYC8vFNOjrM_2cc, symObjAddr: 0x3EC0, symBinAddr: 0x10002D520, symSize: 0x50 }
  - { offset: 0x3ECF2, size: 0x8, addend: 0x0, symName: __RNvMs_NtCslJiobkLta79_5alloc3vecINtB4_3VechE13shrink_to_fitCseYC8vFNOjrM_2cc, symObjAddr: 0x3F10, symBinAddr: 0x10002D570, symSize: 0xE0 }
  - { offset: 0x3EF27, size: 0x8, addend: 0x0, symName: __RNvMs_NtCslJiobkLta79_5alloc3vecINtB4_3VechE16into_boxed_sliceCseYC8vFNOjrM_2cc, symObjAddr: 0x3FF0, symBinAddr: 0x10002D650, symSize: 0x160 }
  - { offset: 0x3F0F7, size: 0x8, addend: 0x0, symName: __RNvMs_NtCslJiobkLta79_5alloc3vecINtB4_3VechE3lenCseYC8vFNOjrM_2cc, symObjAddr: 0x4150, symBinAddr: 0x10002D7B0, symSize: 0x10 }
  - { offset: 0x3F19C, size: 0x8, addend: 0x0, symName: __RNvMs_NtCslJiobkLta79_5alloc3vecINtB4_3VechE8as_sliceCseYC8vFNOjrM_2cc, symObjAddr: 0x4160, symBinAddr: 0x10002D7C0, symSize: 0x50 }
  - { offset: 0x40D6A, size: 0x8, addend: 0x0, symName: __RINvXs2E_NtNtCsieiGu2EXtoJ_4core5slice4iterINtB7_4IterINtNtCslJiobkLta79_5alloc4sync3ArcNtNtCsHUR1vrdMJt_3std4path4PathEENtNtNtNtBb_4iter6traits8iterator8Iterator4foldjNCINvNtNtB21_8adapters3map8map_foldRBQ_jjNCINvNvXs1_NtB2N_6filterINtB3w_6FilterppEB1V_5count8to_usizeB3f_NCNvMs4_CseYC8vFNOjrM_2ccNtB4v_5Build15cuda_file_count0E0NCINvXsK_NtB1Z_5accumjNtB5r_3Sum3sumINtB2L_3MapBF_B3l_EE0E0EB4v_, symObjAddr: 0x0, symBinAddr: 0x10002F920, symSize: 0x1B0 }
  - { offset: 0x434AA, size: 0x8, addend: 0x0, symName: __RINvXs2E_NtNtCsieiGu2EXtoJ_4core5slice4iterINtB7_4IterINtNtCslJiobkLta79_5alloc4sync3ArcNtNtCsHUR1vrdMJt_3std4path4PathEENtNtNtNtBb_4iter6traits8iterator8Iterator4foldjNCINvNtNtB21_8adapters3map8map_foldRBQ_jjNCINvNvXs1_NtB2N_6filterINtB3w_6FilterppEB1V_5count8to_usizeB3f_NCNvMs4_CseYC8vFNOjrM_2ccNtB4v_5Build15cuda_file_count0E0NCINvXsK_NtB1Z_5accumjNtB5r_3Sum3sumINtB2L_3MapBF_B3l_EE0E0EB4v_, symObjAddr: 0x0, symBinAddr: 0x10002F920, symSize: 0x1B0 }
  - { offset: 0x435EF, size: 0x8, addend: 0x0, symName: __RINvXs2E_NtNtCsieiGu2EXtoJ_4core5slice4iterINtB7_4IterINtNtCslJiobkLta79_5alloc4sync3ArcNtNtCsHUR1vrdMJt_3std4path4PathEENtNtNtNtBb_4iter6traits8iterator8Iterator4folduNCINvNtNtB21_8adapters3map8map_foldRBQ_RB1o_uNvYBQ_NtNtNtBb_3ops5deref5Deref5derefNCINvNvB1V_8for_each4callB3j_NCINvMsi_NtBV_3vecINtB4C_3VecB3j_E14extend_trustedINtNtB2N_5chain5ChainINtB2L_3MapIBG_NtCseYC8vFNOjrM_2cc6ObjectENCNvMs4_B5T_NtB5T_5Build8assemble0EIB5D_BF_B3p_EEE0E0E0EB5T_, symObjAddr: 0x1B0, symBinAddr: 0x10002FAD0, symSize: 0x190 }
  - { offset: 0x43730, size: 0x8, addend: 0x0, symName: __RINvXs2E_NtNtCsieiGu2EXtoJ_4core5slice4iterINtB7_4IterNtCseYC8vFNOjrM_2cc6ObjectENtNtNtNtBb_4iter6traits8iterator8Iterator4folduNCINvNtNtB1n_8adapters3map8map_foldRBQ_RNtNtCsHUR1vrdMJt_3std4path4PathuNCNvMs4_BS_NtBS_5Build8assemble0QNCINvNvB1h_8for_each4callB2F_NCINvMsi_NtCslJiobkLta79_5alloc3vecINtB4l_3VecB2F_E14extend_trustedINtNtB29_5chain5ChainINtB27_3MapBF_B3c_EIB5D_IBG_INtNtB4n_4sync3ArcB2G_EENvYB64_NtNtNtBb_3ops5deref5Deref5derefEEE0E0E0EBS_, symObjAddr: 0x340, symBinAddr: 0x10002FC60, symSize: 0x160 }
  - { offset: 0x43871, size: 0x8, addend: 0x0, symName: __RINvXs2E_NtNtCsieiGu2EXtoJ_4core5slice4iterINtB7_4IterNtNtCslJiobkLta79_5alloc6string6StringENtNtNtNtBb_4iter6traits8iterator8Iterator3anyNCNCNvMNtCseYC8vFNOjrM_2cc4toolNtB2j_4Tool13with_featuress_00EB2l_, symObjAddr: 0x4A0, symBinAddr: 0x10002FDC0, symSize: 0x90 }
  - { offset: 0x438D6, size: 0x8, addend: 0x0, symName: __RINvXs2E_NtNtCsieiGu2EXtoJ_4core5slice4iterINtB7_4IterNtNtCslJiobkLta79_5alloc6string6StringENtNtNtNtBb_4iter6traits8iterator8Iterator4folduNCINvNtNtB1z_8adapters3map8map_foldRBQ_RNtNtNtCsHUR1vrdMJt_3std3ffi6os_str5OsStruINvMsl_B2U_B2S_3newBQ_ENCIB2h_B2R_INtNtBU_5boxed3BoxB2S_EuNvYB2R_INtNtBb_7convert4IntoB45_E4intoNCINvNvB1t_8for_each4callB45_NCINvMsi_NtBU_3vecINtB5H_3VecB45_E14extend_trustedINtB2j_3MapINtNtB2l_5chain5ChainINtNtB2l_6cloned6ClonedIBG_B2R_EEIB6n_BF_B3x_EEB4t_EE0E0E0E0ECseYC8vFNOjrM_2cc, symObjAddr: 0x530, symBinAddr: 0x10002FE50, symSize: 0x190 }
  - { offset: 0x43A17, size: 0x8, addend: 0x0, symName: __RINvXs2E_NtNtCsieiGu2EXtoJ_4core5slice4iterINtB7_4IterNtNtCslJiobkLta79_5alloc6string6StringENtNtNtNtBb_4iter6traits8iterator8Iterator8find_mapINtNtBU_4sync3ArcNtNtNtCsHUR1vrdMJt_3std3ffi6os_str5OsStrEQNCNvMs4_CseYC8vFNOjrM_2ccNtB3m_5Build27getenv_with_target_prefixes0EB3m_, symObjAddr: 0x6C0, symBinAddr: 0x10002FFE0, symSize: 0xF0 }
  - { offset: 0x43A9C, size: 0x8, addend: 0x0, symName: __RINvXs2E_NtNtCsieiGu2EXtoJ_4core5slice4iterINtB7_4IterNtNtNtCsHUR1vrdMJt_3std3ffi6os_str8OsStringENtNtNtNtBb_4iter6traits8iterator8Iterator3anyNCNvMNtCseYC8vFNOjrM_2cc4toolNtB2m_4Tool20is_duplicate_opt_arg0EB2o_, symObjAddr: 0x7B0, symBinAddr: 0x1000300D0, symSize: 0x90 }
  - { offset: 0x43B01, size: 0x8, addend: 0x0, symName: __RINvXs2E_NtNtCsieiGu2EXtoJ_4core5slice4iterINtB7_4IterNtNtNtCsHUR1vrdMJt_3std3ffi6os_str8OsStringENtNtNtNtBb_4iter6traits8iterator8Iterator3anyNCNvXsf_NtB9_3cmpBQ_NtB2p_13SliceContains14slice_contains0ECseYC8vFNOjrM_2cc, symObjAddr: 0x840, symBinAddr: 0x100030160, symSize: 0xA0 }
  - { offset: 0x43B66, size: 0x8, addend: 0x0, symName: __RINvXs2E_NtNtCsieiGu2EXtoJ_4core5slice4iterINtB7_4IterNtNtNtCsHUR1vrdMJt_3std3ffi6os_str8OsStringENtNtNtNtBb_4iter6traits8iterator8Iterator4findQNCNvMNtCseYC8vFNOjrM_2cc4toolNtB2o_4Tool10to_command0EB2q_, symObjAddr: 0x8E0, symBinAddr: 0x100030200, symSize: 0xA0 }
  - { offset: 0x43BCB, size: 0x8, addend: 0x0, symName: __RINvXs2E_NtNtCsieiGu2EXtoJ_4core5slice4iterINtB7_4IterNtNtNtNtCsHUR1vrdMJt_3std4sync4mpmc5waker5EntryENtNtNtNtBb_4iter6traits8iterator8Iterator8positionNCNvMBS_NtBS_5Waker10try_select0ECseYC8vFNOjrM_2cc, symObjAddr: 0x980, symBinAddr: 0x1000302A0, symSize: 0x150 }
  - { offset: 0x43C89, size: 0x8, addend: 0x0, symName: __RINvXs2E_NtNtCsieiGu2EXtoJ_4core5slice4iterINtB7_4IterRINtNtCslJiobkLta79_5alloc3vec3VechEENtNtNtNtBb_4iter6traits8iterator8Iterator3anyNCNvNvMNtCseYC8vFNOjrM_2cc4toolNtB2h_4Tool13with_features19detect_family_inners1_0EB2j_, symObjAddr: 0xAD0, symBinAddr: 0x1000303F0, symSize: 0x90 }
  - { offset: 0x43CEE, size: 0x8, addend: 0x0, symName: __RINvXs2E_NtNtCsieiGu2EXtoJ_4core5slice4iterINtB7_4IterRNtNtNtCsHUR1vrdMJt_3std3ffi6os_str5OsStrENtNtNtNtBb_4iter6traits8iterator8Iterator4folduNCINvNtNtB1C_8adapters3map8map_foldRBQ_BQ_uNvYBQ_NtNtBb_5clone5Clone5cloneQNCIB2k_BQ_INtNtCslJiobkLta79_5alloc5boxed3BoxBR_EuNvYBQ_INtNtBb_7convert4IntoB3E_E4intoNCINvNvB1w_8for_each4callB3E_NCINvMsi_NtB3J_3vecINtB5v_3VecB3E_E14extend_trustedINtB2m_3MapINtNtB2o_5chain5ChainINtNtB2o_6cloned6ClonedBF_EIB6c_IBG_NtNtB3J_6string6StringEINvMsl_BT_BR_3newB7h_EEEB4i_EE0E0E0E0ECseYC8vFNOjrM_2cc, symObjAddr: 0xB60, symBinAddr: 0x100030480, symSize: 0x150 }
  - { offset: 0x43E2F, size: 0x8, addend: 0x0, symName: __RINvXs2E_NtNtCsieiGu2EXtoJ_4core5slice4iterINtB7_4IterReENtNtNtNtBb_4iter6traits8iterator8Iterator3anyNCNCNvMs4_CseYC8vFNOjrM_2ccNtB1M_5Build20apple_sdk_root_inner00EB1M_, symObjAddr: 0xCB0, symBinAddr: 0x1000305D0, symSize: 0xA0 }
  - { offset: 0x43E94, size: 0x8, addend: 0x0, symName: __RINvXs2E_NtNtCsieiGu2EXtoJ_4core5slice4iterINtB7_4IterReENtNtNtNtBb_4iter6traits8iterator8Iterator3anyNCNvXsf_NtB9_3cmpBQ_NtB1K_13SliceContains14slice_contains0ECseYC8vFNOjrM_2cc, symObjAddr: 0xD50, symBinAddr: 0x100030670, symSize: 0xA0 }
  - { offset: 0x43EF9, size: 0x8, addend: 0x0, symName: __RINvXs2E_NtNtCsieiGu2EXtoJ_4core5slice4iterINtB7_4IterReENtNtNtNtBb_4iter6traits8iterator8Iterator4findNCNCNvCseYC8vFNOjrM_2cc27autodetect_android_compiler00EB1J_, symObjAddr: 0xDF0, symBinAddr: 0x100030710, symSize: 0xA0 }
  - { offset: 0x43F5E, size: 0x8, addend: 0x0, symName: __RINvXs2E_NtNtCsieiGu2EXtoJ_4core5slice4iterINtB7_4IterReENtNtNtNtBb_4iter6traits8iterator8Iterator8find_mapNtNtCslJiobkLta79_5alloc6string6StringQNCNvMs4_CseYC8vFNOjrM_2ccNtB2s_5Build25get_base_archiver_variants1_0EB2s_, symObjAddr: 0xE90, symBinAddr: 0x1000307B0, symSize: 0x100 }
  - { offset: 0x43FE3, size: 0x8, addend: 0x0, symName: __RINvXs2E_NtNtCsieiGu2EXtoJ_4core5slice4iterINtB7_4IterTINtNtCslJiobkLta79_5alloc4sync3ArcNtNtNtCsHUR1vrdMJt_3std3ffi6os_str5OsStrEBR_EENtNtNtNtBb_4iter6traits8iterator8Iterator4findNCNCNvMs4_CseYC8vFNOjrM_2ccNtB33_5Build23apple_deployment_targets_00EB33_, symObjAddr: 0xF90, symBinAddr: 0x1000308B0, symSize: 0xA0 }
  - { offset: 0x44048, size: 0x8, addend: 0x0, symName: __RINvXs2E_NtNtCsieiGu2EXtoJ_4core5slice4iterINtB7_4IterTINtNtCslJiobkLta79_5alloc4sync3ArcNtNtNtCsHUR1vrdMJt_3std3ffi6os_str5OsStrEBR_EENtNtNtNtBb_4iter6traits8iterator8Iterator4findNCNvMs4_CseYC8vFNOjrM_2ccNtB31_5Build6getenv0EB31_, symObjAddr: 0x1030, symBinAddr: 0x100030950, symSize: 0xA0 }
  - { offset: 0x440AD, size: 0x8, addend: 0x0, symName: __RINvXs2E_NtNtCsieiGu2EXtoJ_4core5slice4iterINtB7_4IterTNtNtNtCsHUR1vrdMJt_3std3ffi6os_str8OsStringBR_EENtNtNtNtBb_4iter6traits8iterator8Iterator4findNCNvMs4_CseYC8vFNOjrM_2ccNtB2v_5Build11try_compile0EB2v_, symObjAddr: 0x10D0, symBinAddr: 0x1000309F0, symSize: 0xA0 }
  - { offset: 0x44112, size: 0x8, addend: 0x0, symName: __RINvXs2E_NtNtCsieiGu2EXtoJ_4core5slice4iterINtB7_4IterTNtNtNtCsHUR1vrdMJt_3std3ffi6os_str8OsStringBR_EENtNtNtNtBb_4iter6traits8iterator8Iterator4folduNCINvNtNtB1J_8adapters3map8map_foldRBQ_BQ_uNCNvMNtCseYC8vFNOjrM_2cc4toolNtB3a_4Tool20from_find_msvc_tools0NCINvNvB1D_8for_each4callBQ_NCINvMsi_NtCslJiobkLta79_5alloc3vecINtB4H_3VecBQ_E14extend_trustedINtB2t_3MapBF_B35_EE0E0E0EB3c_, symObjAddr: 0x1170, symBinAddr: 0x100030A90, symSize: 0x190 }
  - { offset: 0x44253, size: 0x8, addend: 0x0, symName: __RINvXs2E_NtNtCsieiGu2EXtoJ_4core5slice4iterINtB7_4ItercENtNtNtNtBb_4iter6traits8iterator8Iterator3anyNCNvXsL_NtB9_3cmpcNtB1J_13SliceContains14slice_containss_0ECseYC8vFNOjrM_2cc, symObjAddr: 0x1300, symBinAddr: 0x100030C20, symSize: 0xA0 }
  - { offset: 0x442B8, size: 0x8, addend: 0x0, symName: __RINvXs2E_NtNtCsieiGu2EXtoJ_4core5slice4iterINtB7_4ItercENtNtNtNtBb_4iter6traits8iterator8Iterator4foldbNCNvXsL_NtB9_3cmpcNtB1L_13SliceContains14slice_contains0ECseYC8vFNOjrM_2cc, symObjAddr: 0x13A0, symBinAddr: 0x100030CC0, symSize: 0x1A0 }
  - { offset: 0x443FD, size: 0x8, addend: 0x0, symName: __RINvXs2E_NtNtCsieiGu2EXtoJ_4core5slice4iterINtB7_4IterhENtNtNtNtBb_4iter6traits8iterator8Iterator4folduNCINvNtNtBY_8adapters3map8map_foldRhhuNCNvNtCslJiobkLta79_5alloc3str13replace_ascii0NCINvNvBS_8for_each4callhNCINvMsi_NtB2l_3vecINtB3x_3VechE14extend_trustedINtB1I_3MapBF_B2f_EE0E0E0ECseYC8vFNOjrM_2cc, symObjAddr: 0x1540, symBinAddr: 0x100030E60, symSize: 0x190 }
  - { offset: 0x4453E, size: 0x8, addend: 0x0, symName: __RINvXs2E_NtNtCsieiGu2EXtoJ_4core5slice4iterINtB7_4IterhENtNtNtNtBb_4iter6traits8iterator8Iterator8positionNCNvXsf_B7_INtB7_5SplithNCNvNtCseYC8vFNOjrM_2cc15command_helpers10run_output0EBS_4next0EB2a_, symObjAddr: 0x16D0, symBinAddr: 0x100030FF0, symSize: 0x150 }
  - { offset: 0x445FC, size: 0x8, addend: 0x0, symName: __RINvXs2E_NtNtCsieiGu2EXtoJ_4core5slice4iterINtB7_4IterhENtNtNtNtBb_4iter6traits8iterator8Iterator8positionNCNvXsf_B7_INtB7_5SplithNtNtBb_3str17IsAsciiWhitespaceEBS_4next0ECseYC8vFNOjrM_2cc, symObjAddr: 0x1820, symBinAddr: 0x100031140, symSize: 0x150 }
  - { offset: 0x446BA, size: 0x8, addend: 0x0, symName: __RINvXs2E_NtNtCsieiGu2EXtoJ_4core5slice4iterINtB7_4IterhENtNtNtNtBb_4iter6traits8iterator8Iterator8positionNCNvXsm_B7_INtB7_14SplitInclusivehNCNvMs_NtCseYC8vFNOjrM_2cc15command_helpersNtB2l_15StderrForwarder17forward_available0EBS_4next0EB2n_, symObjAddr: 0x1970, symBinAddr: 0x100031290, symSize: 0x150 }
  - { offset: 0x44778, size: 0x8, addend: 0x0, symName: __RNvXs2E_NtNtCsieiGu2EXtoJ_4core5slice4iterINtB6_4IterAhj20_ENtNtNtNtBa_4iter6traits8iterator8Iterator4nextCseYC8vFNOjrM_2cc, symObjAddr: 0x2A40, symBinAddr: 0x100032220, symSize: 0x90 }
  - { offset: 0x44899, size: 0x8, addend: 0x0, symName: __RNvXs2E_NtNtCsieiGu2EXtoJ_4core5slice4iterINtB6_4IterINtNtCslJiobkLta79_5alloc4sync3ArcNtNtCsHUR1vrdMJt_3std4path4PathEENtNtNtNtBa_4iter6traits8iterator8Iterator4nextCseYC8vFNOjrM_2cc, symObjAddr: 0x2AD0, symBinAddr: 0x1000322B0, symSize: 0x90 }
  - { offset: 0x449BA, size: 0x8, addend: 0x0, symName: __RNvXs2E_NtNtCsieiGu2EXtoJ_4core5slice4iterINtB6_4IterINtNtCslJiobkLta79_5alloc4sync3ArcNtNtCsHUR1vrdMJt_3std4path4PathEENtNtNtNtBa_4iter6traits8iterator8Iterator9size_hintCseYC8vFNOjrM_2cc, symObjAddr: 0x2B60, symBinAddr: 0x100032340, symSize: 0x60 }
  - { offset: 0x44A29, size: 0x8, addend: 0x0, symName: __RNvXs2E_NtNtCsieiGu2EXtoJ_4core5slice4iterINtB6_4IterINtNtCslJiobkLta79_5alloc4sync3ArcNtNtNtCsHUR1vrdMJt_3std3ffi6os_str5OsStrEENtNtNtNtBa_4iter6traits8iterator8Iterator4nextCseYC8vFNOjrM_2cc, symObjAddr: 0x2BC0, symBinAddr: 0x1000323A0, symSize: 0x90 }
  - { offset: 0x44B4A, size: 0x8, addend: 0x0, symName: __RNvXs2E_NtNtCsieiGu2EXtoJ_4core5slice4iterINtB6_4IterINtNtCslJiobkLta79_5alloc5boxed3BoxNtNtNtCsHUR1vrdMJt_3std3ffi6os_str5OsStrEENtNtNtNtBa_4iter6traits8iterator8Iterator4nextCseYC8vFNOjrM_2cc, symObjAddr: 0x2C50, symBinAddr: 0x100032430, symSize: 0x90 }
  - { offset: 0x44C6B, size: 0x8, addend: 0x0, symName: __RNvXs2E_NtNtCsieiGu2EXtoJ_4core5slice4iterINtB6_4IterNtCseYC8vFNOjrM_2cc6ObjectENtNtNtNtBa_4iter6traits8iterator8Iterator4nextBR_, symObjAddr: 0x2CE0, symBinAddr: 0x1000324C0, symSize: 0x90 }
  - { offset: 0x44D8C, size: 0x8, addend: 0x0, symName: __RNvXs2E_NtNtCsieiGu2EXtoJ_4core5slice4iterINtB6_4IterNtCseYC8vFNOjrM_2cc6ObjectENtNtNtNtBa_4iter6traits8iterator8Iterator9size_hintBR_, symObjAddr: 0x2D70, symBinAddr: 0x100032550, symSize: 0x60 }
  - { offset: 0x44DFB, size: 0x8, addend: 0x0, symName: __RNvXs2E_NtNtCsieiGu2EXtoJ_4core5slice4iterINtB6_4IterNtNtCslJiobkLta79_5alloc6string6StringENtNtNtNtBa_4iter6traits8iterator8Iterator4nextCseYC8vFNOjrM_2cc, symObjAddr: 0x2DD0, symBinAddr: 0x1000325B0, symSize: 0x90 }
  - { offset: 0x44F1C, size: 0x8, addend: 0x0, symName: __RNvXs2E_NtNtCsieiGu2EXtoJ_4core5slice4iterINtB6_4IterNtNtCslJiobkLta79_5alloc6string6StringENtNtNtNtBa_4iter6traits8iterator8Iterator9size_hintCseYC8vFNOjrM_2cc, symObjAddr: 0x2E60, symBinAddr: 0x100032640, symSize: 0x60 }
  - { offset: 0x44F8B, size: 0x8, addend: 0x0, symName: __RNvXs2E_NtNtCsieiGu2EXtoJ_4core5slice4iterINtB6_4IterNtNtNtCsHUR1vrdMJt_3std3ffi6os_str8OsStringENtNtNtNtBa_4iter6traits8iterator8Iterator4nextCseYC8vFNOjrM_2cc, symObjAddr: 0x2EC0, symBinAddr: 0x1000326A0, symSize: 0x90 }
  - { offset: 0x450AC, size: 0x8, addend: 0x0, symName: __RNvXs2E_NtNtCsieiGu2EXtoJ_4core5slice4iterINtB6_4IterNtNtNtNtCsHUR1vrdMJt_3std4sync4mpmc5waker5EntryENtNtNtNtBa_4iter6traits8iterator8Iterator4nextCseYC8vFNOjrM_2cc, symObjAddr: 0x2F50, symBinAddr: 0x100032730, symSize: 0x90 }
  - { offset: 0x451CD, size: 0x8, addend: 0x0, symName: __RNvXs2E_NtNtCsieiGu2EXtoJ_4core5slice4iterINtB6_4IterRINtNtCslJiobkLta79_5alloc3vec3VechEENtNtNtNtBa_4iter6traits8iterator8Iterator4nextCseYC8vFNOjrM_2cc, symObjAddr: 0x2FE0, symBinAddr: 0x1000327C0, symSize: 0x90 }
  - { offset: 0x452EE, size: 0x8, addend: 0x0, symName: __RNvXs2E_NtNtCsieiGu2EXtoJ_4core5slice4iterINtB6_4IterRNtNtCsHUR1vrdMJt_3std4path4PathENtNtNtNtBa_4iter6traits8iterator8Iterator4nextCseYC8vFNOjrM_2cc, symObjAddr: 0x3070, symBinAddr: 0x100032850, symSize: 0x90 }
  - { offset: 0x4540F, size: 0x8, addend: 0x0, symName: __RNvXs2E_NtNtCsieiGu2EXtoJ_4core5slice4iterINtB6_4IterRNtNtNtCsHUR1vrdMJt_3std3ffi6os_str5OsStrENtNtNtNtBa_4iter6traits8iterator8Iterator9size_hintCseYC8vFNOjrM_2cc, symObjAddr: 0x3100, symBinAddr: 0x1000328E0, symSize: 0x60 }
  - { offset: 0x4547E, size: 0x8, addend: 0x0, symName: __RNvXs2E_NtNtCsieiGu2EXtoJ_4core5slice4iterINtB6_4IterTINtNtCslJiobkLta79_5alloc4sync3ArcNtNtNtCsHUR1vrdMJt_3std3ffi6os_str5OsStrEBQ_EENtNtNtNtBa_4iter6traits8iterator8Iterator4nextCseYC8vFNOjrM_2cc, symObjAddr: 0x3160, symBinAddr: 0x100032940, symSize: 0x90 }
  - { offset: 0x4559F, size: 0x8, addend: 0x0, symName: __RNvXs2E_NtNtCsieiGu2EXtoJ_4core5slice4iterINtB6_4IterTINtNtCslJiobkLta79_5alloc4sync3ArceEINtNtBa_6option6OptionBQ_EEENtNtNtNtBa_4iter6traits8iterator8Iterator4nextCseYC8vFNOjrM_2cc, symObjAddr: 0x31F0, symBinAddr: 0x1000329D0, symSize: 0x90 }
  - { offset: 0x456C0, size: 0x8, addend: 0x0, symName: __RNvXs2E_NtNtCsieiGu2EXtoJ_4core5slice4iterINtB6_4IterTNtNtNtCsHUR1vrdMJt_3std3ffi6os_str8OsStringBQ_EENtNtNtNtBa_4iter6traits8iterator8Iterator9size_hintCseYC8vFNOjrM_2cc, symObjAddr: 0x3280, symBinAddr: 0x100032A60, symSize: 0x60 }
  - { offset: 0x4572F, size: 0x8, addend: 0x0, symName: __RNvXs2E_NtNtCsieiGu2EXtoJ_4core5slice4iterINtB6_4ItercENtNtNtNtBa_4iter6traits8iterator8Iterator4nextCseYC8vFNOjrM_2cc, symObjAddr: 0x32E0, symBinAddr: 0x100032AC0, symSize: 0x90 }
  - { offset: 0x45850, size: 0x8, addend: 0x0, symName: __RNvXs2E_NtNtCsieiGu2EXtoJ_4core5slice4iterINtB6_4IterhENtNtNtNtBa_4iter6traits8iterator8Iterator10advance_byCseYC8vFNOjrM_2cc, symObjAddr: 0x3370, symBinAddr: 0x100032B50, symSize: 0xA0 }
  - { offset: 0x45B6B, size: 0x8, addend: 0x0, symName: __RNCNvXsf_NtNtCsieiGu2EXtoJ_4core5slice4iterINtB7_5SplithNCNvNtCseYC8vFNOjrM_2cc15command_helpers10run_output0ENtNtNtNtBb_4iter6traits8iterator8Iterator4next0BY_, symObjAddr: 0x2340, symBinAddr: 0x100031B40, symSize: 0x20 }
  - { offset: 0x45BBD, size: 0x8, addend: 0x0, symName: __RNCNvXsf_NtNtCsieiGu2EXtoJ_4core5slice4iterINtB7_5SplithNtNtBb_3str17IsAsciiWhitespaceENtNtNtNtBb_4iter6traits8iterator8Iterator4next0CseYC8vFNOjrM_2cc, symObjAddr: 0x2360, symBinAddr: 0x100031B60, symSize: 0x20 }
  - { offset: 0x45C36, size: 0x8, addend: 0x0, symName: __RNvXsf_NtNtCsieiGu2EXtoJ_4core5slice4iterINtB5_5SplithNCNvNtCseYC8vFNOjrM_2cc15command_helpers10run_output0ENtNtNtNtB9_4iter6traits8iterator8Iterator4nextBW_, symObjAddr: 0x3560, symBinAddr: 0x100032D40, symSize: 0x2D0 }
  - { offset: 0x45FA4, size: 0x8, addend: 0x0, symName: __RNvXsf_NtNtCsieiGu2EXtoJ_4core5slice4iterINtB5_5SplithNtNtB9_3str17IsAsciiWhitespaceENtNtNtNtB9_4iter6traits8iterator8Iterator4nextCseYC8vFNOjrM_2cc, symObjAddr: 0x3830, symBinAddr: 0x100033010, symSize: 0x2D0 }
  - { offset: 0x46312, size: 0x8, addend: 0x0, symName: __RNvXsf_NtNtCsieiGu2EXtoJ_4core5slice4iterINtB5_5SplithNtNtB9_3str17IsAsciiWhitespaceENtNtNtNtB9_4iter6traits8iterator8Iterator9size_hintCseYC8vFNOjrM_2cc, symObjAddr: 0x3B00, symBinAddr: 0x1000332E0, symSize: 0x70 }
  - { offset: 0x4635D, size: 0x8, addend: 0x0, symName: __RNCNvXsm_NtNtCsieiGu2EXtoJ_4core5slice4iterINtB7_14SplitInclusivehNCNvMs_NtCseYC8vFNOjrM_2cc15command_helpersNtB19_15StderrForwarder17forward_available0ENtNtNtNtBb_4iter6traits8iterator8Iterator4next0B1b_, symObjAddr: 0x2380, symBinAddr: 0x100031B80, symSize: 0x20 }
  - { offset: 0x463FA, size: 0x8, addend: 0x0, symName: __RNvXsm_NtNtCsieiGu2EXtoJ_4core5slice4iterINtB5_14SplitInclusivehNCNvMs_NtCseYC8vFNOjrM_2cc15command_helpersNtB17_15StderrForwarder17forward_available0ENtNtNtNtB9_4iter6traits8iterator8Iterator4nextB19_, symObjAddr: 0x3B70, symBinAddr: 0x100033350, symSize: 0x2E0 }
  - { offset: 0x468CF, size: 0x8, addend: 0x0, symName: __RNvXs17_NtNtCsieiGu2EXtoJ_4core5slice4iterINtB6_6ChunksRNtNtCsHUR1vrdMJt_3std4path4PathENtNtNtNtBa_4iter6traits8iterator8Iterator4nextCseYC8vFNOjrM_2cc, symObjAddr: 0x2750, symBinAddr: 0x100031F30, symSize: 0x190 }
  - { offset: 0x469CB, size: 0x8, addend: 0x0, symName: __RNvXs1q_NtNtCsieiGu2EXtoJ_4core5slice4iterINtB6_11ChunksExactcENtNtNtNtBa_4iter6traits8iterator8Iterator4nextCseYC8vFNOjrM_2cc, symObjAddr: 0x28E0, symBinAddr: 0x1000320C0, symSize: 0x160 }
  - { offset: 0x46B00, size: 0x8, addend: 0x0, symName: __RNvXs2F_NtNtCsieiGu2EXtoJ_4core5slice4iterINtB6_4IterNtNtCslJiobkLta79_5alloc6string6StringENtNtNtNtBa_4iter6traits12double_ended19DoubleEndedIterator9next_backCseYC8vFNOjrM_2cc, symObjAddr: 0x3410, symBinAddr: 0x100032BF0, symSize: 0x100 }
  - { offset: 0x46C55, size: 0x8, addend: 0x0, symName: __RNvXs_NtNtCsieiGu2EXtoJ_4core5slice4iterRSReNtNtNtNtB8_4iter6traits7collect12IntoIterator9into_iterCseYC8vFNOjrM_2cc, symObjAddr: 0x3510, symBinAddr: 0x100032CF0, symSize: 0x50 }
  - { offset: 0x476C2, size: 0x8, addend: 0x0, symName: __RINvYINtNtNtCsieiGu2EXtoJ_4core5slice4iter4IterINtNtCslJiobkLta79_5alloc4sync3ArcNtNtCsHUR1vrdMJt_3std4path4PathEENtNtNtNtBa_4iter6traits8iterator8Iterator3mapRB1h_NvYBJ_NtNtNtBa_3ops5deref5Deref5derefECseYC8vFNOjrM_2cc, symObjAddr: 0x1AE0, symBinAddr: 0x1000313E0, symSize: 0x20 }
  - { offset: 0x4771A, size: 0x8, addend: 0x0, symName: __RINvYINtNtNtCsieiGu2EXtoJ_4core5slice4iter4IterINtNtCslJiobkLta79_5alloc4sync3ArcNtNtCsHUR1vrdMJt_3std4path4PathEENtNtNtNtBa_4iter6traits8iterator8Iterator3mapjNCINvNvXs1_NtNtB1U_8adapters6filterINtB2J_6FilterppEB1O_5count8to_usizeRBJ_NCNvMs4_CseYC8vFNOjrM_2ccNtB3T_5Build15cuda_file_count0E0EB3T_, symObjAddr: 0x1B00, symBinAddr: 0x100031400, symSize: 0x20 }
  - { offset: 0x47772, size: 0x8, addend: 0x0, symName: __RINvYINtNtNtCsieiGu2EXtoJ_4core5slice4iter4IterINtNtCslJiobkLta79_5alloc4sync3ArcNtNtCsHUR1vrdMJt_3std4path4PathEENtNtNtNtBa_4iter6traits8iterator8Iterator6filterNCNvMs4_CseYC8vFNOjrM_2ccNtB2I_5Build15cuda_file_count0EB2I_, symObjAddr: 0x1B20, symBinAddr: 0x100031420, symSize: 0x20 }
  - { offset: 0x477C1, size: 0x8, addend: 0x0, symName: __RINvYINtNtNtCsieiGu2EXtoJ_4core5slice4iter4IterINtNtCslJiobkLta79_5alloc4sync3ArcNtNtNtCsHUR1vrdMJt_3std3ffi6os_str5OsStrEENtNtNtNtBa_4iter6traits8iterator8Iterator3mapRB1h_NvYBJ_NtNtNtBa_3ops5deref5Deref5derefECseYC8vFNOjrM_2cc, symObjAddr: 0x1C40, symBinAddr: 0x100031440, symSize: 0x20 }
  - { offset: 0x47819, size: 0x8, addend: 0x0, symName: __RINvYINtNtNtCsieiGu2EXtoJ_4core5slice4iter4IterNtCseYC8vFNOjrM_2cc6ObjectENtNtNtNtBa_4iter6traits8iterator8Iterator3mapINtNtBa_6result6ResultNtNtCsHUR1vrdMJt_3std7process7CommandNtBL_5ErrorENCNvMs4_BL_NtBL_5Build15compile_objects0EBL_, symObjAddr: 0x1C60, symBinAddr: 0x100031460, symSize: 0x20 }
  - { offset: 0x47886, size: 0x8, addend: 0x0, symName: __RINvYINtNtNtCsieiGu2EXtoJ_4core5slice4iter4IterNtCseYC8vFNOjrM_2cc6ObjectENtNtNtNtBa_4iter6traits8iterator8Iterator3mapRNtNtCsHUR1vrdMJt_3std4path4PathNCNvMs4_BL_NtBL_5Build8assemble0EBL_, symObjAddr: 0x1C80, symBinAddr: 0x100031480, symSize: 0x20 }
  - { offset: 0x478DE, size: 0x8, addend: 0x0, symName: __RINvYINtNtNtCsieiGu2EXtoJ_4core5slice4iter4IterNtCseYC8vFNOjrM_2cc6ObjectENtNtNtNtBa_4iter6traits8iterator8Iterator8try_foldINtNtNtBa_3num7nonzero7NonZerojENCINvNtNtB1g_8adapters3map12map_try_foldRBJ_INtNtBa_6result6ResultNtNtCsHUR1vrdMJt_3std7process7CommandNtBL_5ErrorEB1Y_INtNtBa_6option6OptionB1Y_ENCNvMs4_BL_NtBL_5Build15compile_objects0NCNvXs_NvB1a_10advance_byINtB2z_3MapB3_B4Q_ENtB5B_13SpecAdvanceBy15spec_advance_by0E0B4p_EBL_, symObjAddr: 0x1CA0, symBinAddr: 0x1000314A0, symSize: 0x130 }
  - { offset: 0x47992, size: 0x8, addend: 0x0, symName: __RINvYINtNtNtCsieiGu2EXtoJ_4core5slice4iter4IterNtNtCslJiobkLta79_5alloc6string6StringENtNtNtNtBa_4iter6traits8iterator8Iterator10filter_mapINtNtBN_4sync3ArcNtNtNtCsHUR1vrdMJt_3std3ffi6os_str5OsStrENCNvMs4_CseYC8vFNOjrM_2ccNtB3h_5Build27getenv_with_target_prefixes0EB3h_, symObjAddr: 0x1DD0, symBinAddr: 0x1000315D0, symSize: 0x20 }
  - { offset: 0x479FF, size: 0x8, addend: 0x0, symName: __RINvYINtNtNtCsieiGu2EXtoJ_4core5slice4iter4IterNtNtCslJiobkLta79_5alloc6string6StringENtNtNtNtBa_4iter6traits8iterator8Iterator3mapRNtNtNtCsHUR1vrdMJt_3std3ffi6os_str5OsStrINvMsl_B28_B26_3newBJ_EECseYC8vFNOjrM_2cc, symObjAddr: 0x1DF0, symBinAddr: 0x1000315F0, symSize: 0x20 }
  - { offset: 0x47A57, size: 0x8, addend: 0x0, symName: __RINvYINtNtNtCsieiGu2EXtoJ_4core5slice4iter4IterNtNtNtCsHUR1vrdMJt_3std3ffi6os_str8OsStringENtNtNtNtBa_4iter6traits8iterator8Iterator6filterNCNvMNtCseYC8vFNOjrM_2cc4toolNtB2i_4Tool10to_command0EB2k_, symObjAddr: 0x1E10, symBinAddr: 0x100031610, symSize: 0x20 }
  - { offset: 0x47ABB, size: 0x8, addend: 0x0, symName: __RINvYINtNtNtCsieiGu2EXtoJ_4core5slice4iter4IterNtNtNtNtCsHUR1vrdMJt_3std4sync4mpmc5waker5EntryENtNtNtNtBa_4iter6traits8iterator8Iterator8try_folduNCINvNvXs_NtNtB1B_8adapters9enumerateINtB2u_9EnumeratepEB1v_8try_fold9enumerateRBJ_uINtNtNtBa_3ops12control_flow11ControlFlowTjB3B_EENCINvNvB1v_4find5checkB4l_NCNvMBL_NtBL_5Waker10unregister0E0E0B3G_ECseYC8vFNOjrM_2cc, symObjAddr: 0x1E30, symBinAddr: 0x100031630, symSize: 0x190 }
  - { offset: 0x47B6E, size: 0x8, addend: 0x0, symName: __RINvYINtNtNtCsieiGu2EXtoJ_4core5slice4iter4IterRNtNtNtCsHUR1vrdMJt_3std3ffi6os_str5OsStrENtNtNtNtBa_4iter6traits8iterator8Iterator3mapBJ_NvYBJ_NtNtBa_5clone5Clone5cloneECseYC8vFNOjrM_2cc, symObjAddr: 0x1FC0, symBinAddr: 0x1000317C0, symSize: 0x20 }
  - { offset: 0x47BC6, size: 0x8, addend: 0x0, symName: __RINvYINtNtNtCsieiGu2EXtoJ_4core5slice4iter4IterRNtNtNtCsHUR1vrdMJt_3std3ffi6os_str5OsStrENtNtNtNtBa_4iter6traits8iterator8Iterator6clonedBJ_ECseYC8vFNOjrM_2cc, symObjAddr: 0x1FE0, symBinAddr: 0x1000317E0, symSize: 0x20 }
  - { offset: 0x47C06, size: 0x8, addend: 0x0, symName: __RINvYINtNtNtCsieiGu2EXtoJ_4core5slice4iter4IterReENtNtNtNtBa_4iter6traits8iterator8Iterator10filter_mapNtNtCslJiobkLta79_5alloc6string6StringNCNvMs4_CseYC8vFNOjrM_2ccNtB2n_5Build25get_base_archiver_variants1_0EB2n_, symObjAddr: 0x2000, symBinAddr: 0x100031800, symSize: 0x30 }
  - { offset: 0x47C73, size: 0x8, addend: 0x0, symName: __RINvYINtNtNtCsieiGu2EXtoJ_4core5slice4iter4IterTNtNtNtCsHUR1vrdMJt_3std3ffi6os_str8OsStringBK_EENtNtNtNtBa_4iter6traits8iterator8Iterator3mapBJ_NCNvMNtCseYC8vFNOjrM_2cc4toolNtB2n_4Tool20from_find_msvc_tools0EB2p_, symObjAddr: 0x2030, symBinAddr: 0x100031830, symSize: 0x20 }
  - { offset: 0x47CCB, size: 0x8, addend: 0x0, symName: __RINvYINtNtNtCsieiGu2EXtoJ_4core5slice4iter5SplithNCNvNtCseYC8vFNOjrM_2cc15command_helpers10run_output0ENtNtNtNtBa_4iter6traits8iterator8Iterator4folduNCINvNtNtB1J_8adapters6filter11filter_foldRShuNCBN_s_0NCINvNvB1D_8for_each4callB34_NvBP_13write_warningE0E0EBR_, symObjAddr: 0x2050, symBinAddr: 0x100031850, symSize: 0xA0 }
  - { offset: 0x47D5B, size: 0x8, addend: 0x0, symName: __RINvYINtNtNtCsieiGu2EXtoJ_4core5slice4iter5SplithNCNvNtCseYC8vFNOjrM_2cc15command_helpers10run_output0ENtNtNtNtBa_4iter6traits8iterator8Iterator6filterNCBN_s_0EBR_, symObjAddr: 0x20F0, symBinAddr: 0x1000318F0, symSize: 0x20 }
  - { offset: 0x47DBF, size: 0x8, addend: 0x0, symName: __RINvYINtNtNtCsieiGu2EXtoJ_4core5slice4iter5SplithNtNtBa_3str17IsAsciiWhitespaceENtNtNtNtBa_4iter6traits8iterator8Iterator4findQNtBN_15BytesIsNotEmptyECseYC8vFNOjrM_2cc, symObjAddr: 0x2110, symBinAddr: 0x100031910, symSize: 0x90 }
  - { offset: 0x47E3E, size: 0x8, addend: 0x0, symName: __RINvYINtNtNtCsieiGu2EXtoJ_4core5slice4iter5SplithNtNtBa_3str17IsAsciiWhitespaceENtNtNtNtBa_4iter6traits8iterator8Iterator8try_folduNCINvNvB1g_4find5checkRShQNtBN_15BytesIsNotEmptyE0INtNtNtBa_3ops12control_flow11ControlFlowB2r_EECseYC8vFNOjrM_2cc, symObjAddr: 0x21A0, symBinAddr: 0x1000319A0, symSize: 0x1A0 }
  - { offset: 0x47EF1, size: 0x8, addend: 0x0, symName: __RNvYINtNtNtCsieiGu2EXtoJ_4core5slice4iter4IterINtNtCslJiobkLta79_5alloc4sync3ArcNtNtNtCsHUR1vrdMJt_3std3ffi6os_str5OsStrEENtNtNtNtB9_4iter6traits8iterator8Iterator9enumerateCseYC8vFNOjrM_2cc, symObjAddr: 0x3E50, symBinAddr: 0x100033630, symSize: 0x20 }
  - { offset: 0x47F3D, size: 0x8, addend: 0x0, symName: __RNvYINtNtNtCsieiGu2EXtoJ_4core5slice4iter4IterNtNtCslJiobkLta79_5alloc6string6StringENtNtNtNtB9_4iter6traits8iterator8Iterator3revCseYC8vFNOjrM_2cc, symObjAddr: 0x3E70, symBinAddr: 0x100033650, symSize: 0x20 }
  - { offset: 0x48036, size: 0x8, addend: 0x0, symName: __RNvXNtNtNtCsieiGu2EXtoJ_4core4iter6traits7collectINtNtNtB8_5slice4iter14SplitInclusivehNCNvMs_NtCseYC8vFNOjrM_2cc15command_helpersNtB1u_15StderrForwarder17forward_available0ENtB2_12IntoIterator9into_iterB1w_, symObjAddr: 0x2670, symBinAddr: 0x100031E70, symSize: 0x20 }
  - { offset: 0x4806D, size: 0x8, addend: 0x0, symName: __RNvXNtNtNtCsieiGu2EXtoJ_4core4iter6traits7collectINtNtNtB8_5slice4iter4IterINtNtCslJiobkLta79_5alloc4sync3ArcNtNtCsHUR1vrdMJt_3std4path4PathEENtB2_12IntoIterator9into_iterCseYC8vFNOjrM_2cc, symObjAddr: 0x2690, symBinAddr: 0x100031E90, symSize: 0x20 }
  - { offset: 0x480A4, size: 0x8, addend: 0x0, symName: __RNvXNtNtNtCsieiGu2EXtoJ_4core4iter6traits7collectINtNtNtB8_5slice4iter4IterINtNtCslJiobkLta79_5alloc4sync3ArcNtNtNtCsHUR1vrdMJt_3std3ffi6os_str5OsStrEENtB2_12IntoIterator9into_iterCseYC8vFNOjrM_2cc, symObjAddr: 0x26B0, symBinAddr: 0x100031EB0, symSize: 0x20 }
  - { offset: 0x480DB, size: 0x8, addend: 0x0, symName: __RNvXNtNtNtCsieiGu2EXtoJ_4core4iter6traits7collectINtNtNtB8_5slice4iter4IterTINtNtCslJiobkLta79_5alloc4sync3ArcNtNtNtCsHUR1vrdMJt_3std3ffi6os_str5OsStrEB1c_EENtB2_12IntoIterator9into_iterCseYC8vFNOjrM_2cc, symObjAddr: 0x26F0, symBinAddr: 0x100031ED0, symSize: 0x20 }
  - { offset: 0x48112, size: 0x8, addend: 0x0, symName: __RNvXNtNtNtCsieiGu2EXtoJ_4core4iter6traits7collectINtNtNtB8_5slice4iter4IterTINtNtCslJiobkLta79_5alloc4sync3ArceEINtNtB8_6option6OptionB1c_EEENtB2_12IntoIterator9into_iterCseYC8vFNOjrM_2cc, symObjAddr: 0x2710, symBinAddr: 0x100031EF0, symSize: 0x20 }
  - { offset: 0x48149, size: 0x8, addend: 0x0, symName: __RNvXNtNtNtCsieiGu2EXtoJ_4core4iter6traits7collectINtNtNtB8_5slice4iter6ChunksRNtNtCsHUR1vrdMJt_3std4path4PathENtB2_12IntoIterator9into_iterCseYC8vFNOjrM_2cc, symObjAddr: 0x2730, symBinAddr: 0x100031F10, symSize: 0x20 }
  - { offset: 0x4BA73, size: 0x8, addend: 0x0, symName: __RNvMs4_NtNtCsieiGu2EXtoJ_4core5slice4iterINtB5_4IterINtNtCslJiobkLta79_5alloc4sync3ArcNtNtCsHUR1vrdMJt_3std4path4PathEE3newCseYC8vFNOjrM_2cc, symObjAddr: 0x23A0, symBinAddr: 0x100031BA0, symSize: 0x50 }
  - { offset: 0x4BC3A, size: 0x8, addend: 0x0, symName: __RNvMs4_NtNtCsieiGu2EXtoJ_4core5slice4iterINtB5_4IterINtNtCslJiobkLta79_5alloc4sync3ArcNtNtNtCsHUR1vrdMJt_3std3ffi6os_str5OsStrEE3newCseYC8vFNOjrM_2cc, symObjAddr: 0x23F0, symBinAddr: 0x100031BF0, symSize: 0x50 }
  - { offset: 0x4BDE7, size: 0x8, addend: 0x0, symName: __RNvMs4_NtNtCsieiGu2EXtoJ_4core5slice4iterINtB5_4IterNtCseYC8vFNOjrM_2cc6ObjectE3newBQ_, symObjAddr: 0x2440, symBinAddr: 0x100031C40, symSize: 0x50 }
  - { offset: 0x4BF94, size: 0x8, addend: 0x0, symName: __RNvMs4_NtNtCsieiGu2EXtoJ_4core5slice4iterINtB5_4IterNtNtCslJiobkLta79_5alloc6string6StringE3newCseYC8vFNOjrM_2cc, symObjAddr: 0x2490, symBinAddr: 0x100031C90, symSize: 0x50 }
  - { offset: 0x4C141, size: 0x8, addend: 0x0, symName: __RNvMs4_NtNtCsieiGu2EXtoJ_4core5slice4iterINtB5_4IterNtNtNtCsHUR1vrdMJt_3std3ffi6os_str8OsStringE3newCseYC8vFNOjrM_2cc, symObjAddr: 0x24E0, symBinAddr: 0x100031CE0, symSize: 0x50 }
  - { offset: 0x4C315, size: 0x8, addend: 0x0, symName: __RNvMs4_NtNtCsieiGu2EXtoJ_4core5slice4iterINtB5_4IterRINtNtCslJiobkLta79_5alloc3vec3VechEE3newCseYC8vFNOjrM_2cc, symObjAddr: 0x2530, symBinAddr: 0x100031D30, symSize: 0x50 }
  - { offset: 0x4C4CF, size: 0x8, addend: 0x0, symName: __RNvMs4_NtNtCsieiGu2EXtoJ_4core5slice4iterINtB5_4IterRNtNtNtCsHUR1vrdMJt_3std3ffi6os_str5OsStrE3newCseYC8vFNOjrM_2cc, symObjAddr: 0x2580, symBinAddr: 0x100031D80, symSize: 0x50 }
  - { offset: 0x4C696, size: 0x8, addend: 0x0, symName: __RNvMs4_NtNtCsieiGu2EXtoJ_4core5slice4iterINtB5_4IterTINtNtCslJiobkLta79_5alloc4sync3ArcNtNtNtCsHUR1vrdMJt_3std3ffi6os_str5OsStrEBP_EE3newCseYC8vFNOjrM_2cc, symObjAddr: 0x25D0, symBinAddr: 0x100031DD0, symSize: 0x50 }
  - { offset: 0x4C85D, size: 0x8, addend: 0x0, symName: __RNvMs4_NtNtCsieiGu2EXtoJ_4core5slice4iterINtB5_4IterTINtNtCslJiobkLta79_5alloc4sync3ArceEINtNtB9_6option6OptionBP_EEE3newCseYC8vFNOjrM_2cc, symObjAddr: 0x2620, symBinAddr: 0x100031E20, symSize: 0x50 }
  - { offset: 0x4DA5C, size: 0x8, addend: 0x0, symName: __RINvMNtCsieiGu2EXtoJ_4core4boolb9then_someNtNtCsHUR1vrdMJt_3std4path7PathBufECseYC8vFNOjrM_2cc, symObjAddr: 0x0, symBinAddr: 0x100033670, symSize: 0x80 }
  - { offset: 0x4DAEC, size: 0x8, addend: 0x0, symName: __RNvXNvNtCsHUR1vrdMJt_3std2io17default_write_fmtINtB2_7AdapterINtNtNtB4_8buffered9bufwriter9BufWriterNtNtB4_5stdio6StdoutEENtNtCsieiGu2EXtoJ_4core3fmt5Write9write_strCseYC8vFNOjrM_2cc, symObjAddr: 0x64D0, symBinAddr: 0x100039A10, symSize: 0xA0 }
  - { offset: 0x4DB48, size: 0x8, addend: 0x0, symName: __RNvXNvNtCsHUR1vrdMJt_3std2io17default_write_fmtINtB2_7AdapterNtNtB6_2fs4FileENtNtCsieiGu2EXtoJ_4core3fmt5Write9write_strCseYC8vFNOjrM_2cc, symObjAddr: 0x6570, symBinAddr: 0x100039AB0, symSize: 0xA0 }
  - { offset: 0x4DEC4, size: 0x8, addend: 0x0, symName: __RINvNtCsHUR1vrdMJt_3std2io17default_write_fmtINtNtNtB2_8buffered9bufwriter9BufWriterNtNtB2_5stdio6StdoutEECseYC8vFNOjrM_2cc, symObjAddr: 0x2D60, symBinAddr: 0x100036310, symSize: 0x120 }
  - { offset: 0x4DF74, size: 0x8, addend: 0x0, symName: __RINvNtCsHUR1vrdMJt_3std2io17default_write_fmtNtNtB4_2fs4FileECseYC8vFNOjrM_2cc, symObjAddr: 0x2E80, symBinAddr: 0x100036430, symSize: 0x120 }
  - { offset: 0x4E51B, size: 0x8, addend: 0x0, symName: __RNCNvMs1_NtNtNtCsHUR1vrdMJt_3std4sync4mpmc4zeroINtB7_7ChannelINtNtCsieiGu2EXtoJ_4core6result6ResultNtCslzRnRZxZnvp_9jobserver8AcquiredNtNtNtBd_2io5error5ErrorEE4send0CseYC8vFNOjrM_2cc, symObjAddr: 0x31F0, symBinAddr: 0x1000367A0, symSize: 0x880 }
  - { offset: 0x4F8A9, size: 0x8, addend: 0x0, symName: __RNCNkNvNvMNtNtCsHUR1vrdMJt_3std4hash6randomNtB8_11RandomState3new4KEYS0s_0CseYC8vFNOjrM_2cc, symObjAddr: 0x31A0, symBinAddr: 0x100036750, symSize: 0x30 }
  - { offset: 0x4F8E7, size: 0x8, addend: 0x0, symName: __RNvNvNvMNtNtCsHUR1vrdMJt_3std4hash6randomNtB6_11RandomState3new4KEYS6___initCseYC8vFNOjrM_2cc, symObjAddr: 0x64B0, symBinAddr: 0x1000399F0, symSize: 0x20 }
  - { offset: 0x4F905, size: 0x8, addend: 0x0, symName: __RNCNvMNtNtCsHUR1vrdMJt_3std4hash6randomNtB4_11RandomState3new0CseYC8vFNOjrM_2cc, symObjAddr: 0x31D0, symBinAddr: 0x100036780, symSize: 0x20 }
  - { offset: 0x4F9EE, size: 0x8, addend: 0x0, symName: __RNvXs2_NtNtCsHUR1vrdMJt_3std4hash6randomNtB5_13DefaultHasherNtNtCsieiGu2EXtoJ_4core4hash6Hasher5writeCseYC8vFNOjrM_2cc, symObjAddr: 0x68E0, symBinAddr: 0x100039D60, symSize: 0x30 }
  - { offset: 0x4FA49, size: 0x8, addend: 0x0, symName: __RNvXs2_NtNtCsHUR1vrdMJt_3std4hash6randomNtB5_13DefaultHasherNtNtCsieiGu2EXtoJ_4core4hash6Hasher6finishCseYC8vFNOjrM_2cc, symObjAddr: 0x6910, symBinAddr: 0x100039D90, symSize: 0x20 }
  - { offset: 0x4FA92, size: 0x8, addend: 0x0, symName: __RNvXs2_NtNtCsHUR1vrdMJt_3std4hash6randomNtB5_13DefaultHasherNtNtCsieiGu2EXtoJ_4core4hash6Hasher9write_strCseYC8vFNOjrM_2cc, symObjAddr: 0x6930, symBinAddr: 0x100039DB0, symSize: 0x30 }
  - { offset: 0x4FAF3, size: 0x8, addend: 0x0, symName: __RNvXs3_NtNtCsHUR1vrdMJt_3std4hash6randomNtB5_11RandomStateNtNtCsieiGu2EXtoJ_4core7default7Default7defaultCseYC8vFNOjrM_2cc, symObjAddr: 0x6AF0, symBinAddr: 0x100039F70, symSize: 0x20 }
  - { offset: 0x4FB2B, size: 0x8, addend: 0x0, symName: __RNvXs_NtNtCsHUR1vrdMJt_3std4hash6randomNtB4_11RandomStateNtNtCsieiGu2EXtoJ_4core4hash11BuildHasher12build_hasherCseYC8vFNOjrM_2cc, symObjAddr: 0x6F40, symBinAddr: 0x10003A3C0, symSize: 0xF0 }
  - { offset: 0x5547B, size: 0x8, addend: 0x0, symName: __RNvXs3_NtCsieiGu2EXtoJ_4core6optionINtB5_6OptionINtNtCslJiobkLta79_5alloc4sync3ArcNtNtNtCsHUR1vrdMJt_3std3ffi6os_str5OsStrEENtNtB7_5clone5Clone5cloneCseYC8vFNOjrM_2cc, symObjAddr: 0x6960, symBinAddr: 0x100039DE0, symSize: 0x60 }
  - { offset: 0x554D0, size: 0x8, addend: 0x0, symName: __RNvXs3_NtCsieiGu2EXtoJ_4core6optionINtB5_6OptionNtNtCsHUR1vrdMJt_3std4path7PathBufENtNtB7_5clone5Clone5cloneCseYC8vFNOjrM_2cc, symObjAddr: 0x69C0, symBinAddr: 0x100039E40, symSize: 0x90 }
  - { offset: 0x55525, size: 0x8, addend: 0x0, symName: __RNvXs3_NtCsieiGu2EXtoJ_4core6optionINtB5_6OptionNtNtCseYC8vFNOjrM_2cc4tool4ToolENtNtB7_5clone5Clone5cloneBO_, symObjAddr: 0x6A50, symBinAddr: 0x100039ED0, symSize: 0xA0 }
  - { offset: 0x55580, size: 0x8, addend: 0x0, symName: __RNvXs5_NtCsieiGu2EXtoJ_4core6optionINtB5_6OptionReENtNtB7_7default7Default7defaultCseYC8vFNOjrM_2cc, symObjAddr: 0x6B10, symBinAddr: 0x100039F90, symSize: 0x10 }
  - { offset: 0x555A8, size: 0x8, addend: 0x0, symName: __RNvXs5_NtCsieiGu2EXtoJ_4core6optionINtB5_6OptionbENtNtB7_7default7Default7defaultCseYC8vFNOjrM_2cc, symObjAddr: 0x6B20, symBinAddr: 0x100039FA0, symSize: 0x10 }
  - { offset: 0x555D0, size: 0x8, addend: 0x0, symName: __RNvXs5_NtCsieiGu2EXtoJ_4core6optionINtB5_6OptionmENtNtB7_7default7Default7defaultCseYC8vFNOjrM_2cc, symObjAddr: 0x6B30, symBinAddr: 0x100039FB0, symSize: 0x10 }
  - { offset: 0x555FE, size: 0x8, addend: 0x0, symName: __RNvXsC_NtCsieiGu2EXtoJ_4core6optionINtB5_6OptionINtNtCslJiobkLta79_5alloc3vec3VechEENtNtNtB7_3ops9try_trait3Try6branchCseYC8vFNOjrM_2cc, symObjAddr: 0x6B40, symBinAddr: 0x100039FC0, symSize: 0x80 }
  - { offset: 0x55654, size: 0x8, addend: 0x0, symName: __RNvXsC_NtCsieiGu2EXtoJ_4core6optionINtB5_6OptionINtNtCslJiobkLta79_5alloc4sync3ArcNtNtNtCsHUR1vrdMJt_3std3ffi6os_str5OsStrEENtNtNtB7_3ops9try_trait3Try6branchCseYC8vFNOjrM_2cc, symObjAddr: 0x6BC0, symBinAddr: 0x10003A040, symSize: 0x60 }
  - { offset: 0x556A9, size: 0x8, addend: 0x0, symName: __RNvXsC_NtCsieiGu2EXtoJ_4core6optionINtB5_6OptionINtNtNtB7_3num7nonzero7NonZerojEENtNtNtB7_3ops9try_trait3Try11from_outputCseYC8vFNOjrM_2cc, symObjAddr: 0x6C20, symBinAddr: 0x10003A0A0, symSize: 0x10 }
  - { offset: 0x556E0, size: 0x8, addend: 0x0, symName: __RNvXsC_NtCsieiGu2EXtoJ_4core6optionINtB5_6OptionINtNtNtB7_3num7nonzero7NonZerojEENtNtNtB7_3ops9try_trait3Try6branchCseYC8vFNOjrM_2cc, symObjAddr: 0x6C30, symBinAddr: 0x10003A0B0, symSize: 0x40 }
  - { offset: 0x55735, size: 0x8, addend: 0x0, symName: __RNvXsC_NtCsieiGu2EXtoJ_4core6optionINtB5_6OptionNtNtCsHUR1vrdMJt_3std7process10ExitStatusENtNtNtB7_3ops9try_trait3Try6branchCseYC8vFNOjrM_2cc, symObjAddr: 0x6C70, symBinAddr: 0x10003A0F0, symSize: 0x40 }
  - { offset: 0x5578A, size: 0x8, addend: 0x0, symName: __RNvXsC_NtCsieiGu2EXtoJ_4core6optionINtB5_6OptionNtNtCseYC8vFNOjrM_2cc4tool4ToolENtNtNtB7_3ops9try_trait3Try6branchBO_, symObjAddr: 0x6CB0, symBinAddr: 0x10003A130, symSize: 0xA0 }
  - { offset: 0x557E1, size: 0x8, addend: 0x0, symName: __RNvXsC_NtCsieiGu2EXtoJ_4core6optionINtB5_6OptionNtNtCseYC8vFNOjrM_2cc6target10TargetInfoENtNtNtB7_3ops9try_trait3Try6branchBO_, symObjAddr: 0x6D50, symBinAddr: 0x10003A1D0, symSize: 0x70 }
  - { offset: 0x55838, size: 0x8, addend: 0x0, symName: __RNvXsC_NtCsieiGu2EXtoJ_4core6optionINtB5_6OptionRNtNtNtCsHUR1vrdMJt_3std3ffi6os_str5OsStrENtNtNtB7_3ops9try_trait3Try6branchCseYC8vFNOjrM_2cc, symObjAddr: 0x6DC0, symBinAddr: 0x10003A240, symSize: 0x60 }
  - { offset: 0x5588D, size: 0x8, addend: 0x0, symName: __RNvXsC_NtCsieiGu2EXtoJ_4core6optionINtB5_6OptionReENtNtNtB7_3ops9try_trait3Try6branchCseYC8vFNOjrM_2cc, symObjAddr: 0x6E20, symBinAddr: 0x10003A2A0, symSize: 0x60 }
  - { offset: 0x558E8, size: 0x8, addend: 0x0, symName: __RNvXsD_NtCsieiGu2EXtoJ_4core6optionINtB5_6OptionINtNtCslJiobkLta79_5alloc4sync3ArcNtNtNtCsHUR1vrdMJt_3std3ffi6os_str5OsStrEEINtNtNtB7_3ops9try_trait12FromResidualIBy_NtNtB7_7convert10InfallibleEE13from_residualCseYC8vFNOjrM_2cc, symObjAddr: 0x6E80, symBinAddr: 0x10003A300, symSize: 0x10 }
  - { offset: 0x5591B, size: 0x8, addend: 0x0, symName: __RNvXsD_NtCsieiGu2EXtoJ_4core6optionINtB5_6OptionINtNtCslJiobkLta79_5alloc4sync3ArceEEINtNtNtB7_3ops9try_trait12FromResidualIBy_NtNtB7_7convert10InfallibleEE13from_residualCseYC8vFNOjrM_2cc, symObjAddr: 0x6E90, symBinAddr: 0x10003A310, symSize: 0x10 }
  - { offset: 0x5594E, size: 0x8, addend: 0x0, symName: __RNvXsD_NtCsieiGu2EXtoJ_4core6optionINtB5_6OptionINtNtNtB7_3num7nonzero7NonZerojEEINtNtNtB7_3ops9try_trait12FromResidualIBy_NtNtB7_7convert10InfallibleEE13from_residualCseYC8vFNOjrM_2cc, symObjAddr: 0x6EA0, symBinAddr: 0x10003A320, symSize: 0x10 }
  - { offset: 0x55981, size: 0x8, addend: 0x0, symName: __RNvXsD_NtCsieiGu2EXtoJ_4core6optionINtB5_6OptionNtNtCsHUR1vrdMJt_3std4path7PathBufEINtNtNtB7_3ops9try_trait12FromResidualIBy_NtNtB7_7convert10InfallibleEE13from_residualCseYC8vFNOjrM_2cc, symObjAddr: 0x6EB0, symBinAddr: 0x10003A330, symSize: 0x20 }
  - { offset: 0x559B4, size: 0x8, addend: 0x0, symName: __RNvXsD_NtCsieiGu2EXtoJ_4core6optionINtB5_6OptionNtNtCsHUR1vrdMJt_3std7process7CommandEINtNtNtB7_3ops9try_trait12FromResidualIBy_NtNtB7_7convert10InfallibleEE13from_residualCseYC8vFNOjrM_2cc, symObjAddr: 0x6ED0, symBinAddr: 0x10003A350, symSize: 0x20 }
  - { offset: 0x559E7, size: 0x8, addend: 0x0, symName: __RNvXsD_NtCsieiGu2EXtoJ_4core6optionINtB5_6OptionNtNtCslJiobkLta79_5alloc6string6StringEINtNtNtB7_3ops9try_trait12FromResidualIBy_NtNtB7_7convert10InfallibleEE13from_residualCseYC8vFNOjrM_2cc, symObjAddr: 0x6EF0, symBinAddr: 0x10003A370, symSize: 0x20 }
  - { offset: 0x55A1A, size: 0x8, addend: 0x0, symName: __RNvXsD_NtCsieiGu2EXtoJ_4core6optionINtB5_6OptionTNtNtCsHUR1vrdMJt_3std4path7PathBufIBy_INtNtCslJiobkLta79_5alloc4sync3ArcNtNtNtBP_3ffi6os_str5OsStrEEINtNtB1s_3vec3VecNtNtB1s_6string6StringEEEINtNtNtB7_3ops9try_trait12FromResidualIBy_NtNtB7_7convert10InfallibleEE13from_residualCseYC8vFNOjrM_2cc, symObjAddr: 0x6F10, symBinAddr: 0x10003A390, symSize: 0x20 }
  - { offset: 0x55A4D, size: 0x8, addend: 0x0, symName: __RNvXsD_NtCsieiGu2EXtoJ_4core6optionINtB5_6OptionmEINtNtNtB7_3ops9try_trait12FromResidualIBy_NtNtB7_7convert10InfallibleEE13from_residualCseYC8vFNOjrM_2cc, symObjAddr: 0x6F30, symBinAddr: 0x10003A3B0, symSize: 0x10 }
  - { offset: 0x55A86, size: 0x8, addend: 0x0, symName: __RNvXsd_NtCsieiGu2EXtoJ_4core6optionINtB5_6OptionNtCseYC8vFNOjrM_2cc10AsmFileExtENtNtB7_3cmp9PartialEq2eqBM_, symObjAddr: 0x7370, symBinAddr: 0x10003A790, symSize: 0xA0 }
  - { offset: 0x55AFA, size: 0x8, addend: 0x0, symName: __RNvXsd_NtCsieiGu2EXtoJ_4core6optionINtB5_6OptionRNtNtNtCsHUR1vrdMJt_3std3ffi6os_str5OsStrENtNtB7_3cmp9PartialEq2eqCseYC8vFNOjrM_2cc, symObjAddr: 0x7410, symBinAddr: 0x10003A830, symSize: 0xB0 }
  - { offset: 0x55B6E, size: 0x8, addend: 0x0, symName: __RNvXsd_NtCsieiGu2EXtoJ_4core6optionINtB5_6OptionReENtNtB7_3cmp9PartialEq2eqCseYC8vFNOjrM_2cc, symObjAddr: 0x74C0, symBinAddr: 0x10003A8E0, symSize: 0xB0 }
  - { offset: 0x55BE2, size: 0x8, addend: 0x0, symName: __RNvXsd_NtCsieiGu2EXtoJ_4core6optionINtB5_6OptioncENtNtB7_3cmp9PartialEq2eqCseYC8vFNOjrM_2cc, symObjAddr: 0x7570, symBinAddr: 0x10003A990, symSize: 0xA0 }
  - { offset: 0x55EC6, size: 0x8, addend: 0x0, symName: __RINvMNtCsieiGu2EXtoJ_4core4boolb9then_someNtNtCsHUR1vrdMJt_3std4path7PathBufECseYC8vFNOjrM_2cc, symObjAddr: 0x0, symBinAddr: 0x100033670, symSize: 0x80 }
  - { offset: 0x55F0A, size: 0x8, addend: 0x0, symName: __RINvMNtCsieiGu2EXtoJ_4core4boolb9then_someNtNtCslJiobkLta79_5alloc6string6StringECseYC8vFNOjrM_2cc, symObjAddr: 0x80, symBinAddr: 0x1000336F0, symSize: 0x80 }
  - { offset: 0x56673, size: 0x8, addend: 0x0, symName: __RNvXs_NvNtNtCsieiGu2EXtoJ_4core3fmt5Write9write_fmtQINtNvNtCsHUR1vrdMJt_3std2io17default_write_fmt7AdapterINtNtNtBT_8buffered9bufwriter9BufWriterNtNtBT_5stdio6StdoutEENtB4_12SpecWriteFmt14spec_write_fmtCseYC8vFNOjrM_2cc, symObjAddr: 0x7090, symBinAddr: 0x10003A4B0, symSize: 0x170 }
  - { offset: 0x56728, size: 0x8, addend: 0x0, symName: __RNvXs_NvNtNtCsieiGu2EXtoJ_4core3fmt5Write9write_fmtQINtNvNtCsHUR1vrdMJt_3std2io17default_write_fmt7AdapterNtNtBV_2fs4FileENtB4_12SpecWriteFmt14spec_write_fmtCseYC8vFNOjrM_2cc, symObjAddr: 0x7200, symBinAddr: 0x10003A620, symSize: 0x170 }
  - { offset: 0x567DF, size: 0x8, addend: 0x0, symName: __RNvYINtNvNtCsHUR1vrdMJt_3std2io17default_write_fmt7AdapterINtNtNtB7_8buffered9bufwriter9BufWriterNtNtB7_5stdio6StdoutEENtNtCsieiGu2EXtoJ_4core3fmt5Write10write_charCseYC8vFNOjrM_2cc, symObjAddr: 0x7650, symBinAddr: 0x10003AA70, symSize: 0x70 }
  - { offset: 0x56847, size: 0x8, addend: 0x0, symName: __RNvYINtNvNtCsHUR1vrdMJt_3std2io17default_write_fmt7AdapterINtNtNtB7_8buffered9bufwriter9BufWriterNtNtB7_5stdio6StdoutEENtNtCsieiGu2EXtoJ_4core3fmt5Write9write_fmtCseYC8vFNOjrM_2cc, symObjAddr: 0x76C0, symBinAddr: 0x10003AAE0, symSize: 0x20 }
  - { offset: 0x5688B, size: 0x8, addend: 0x0, symName: __RNvYINtNvNtCsHUR1vrdMJt_3std2io17default_write_fmt7AdapterNtNtB9_2fs4FileENtNtCsieiGu2EXtoJ_4core3fmt5Write10write_charCseYC8vFNOjrM_2cc, symObjAddr: 0x76E0, symBinAddr: 0x10003AB00, symSize: 0x70 }
  - { offset: 0x568F3, size: 0x8, addend: 0x0, symName: __RNvYINtNvNtCsHUR1vrdMJt_3std2io17default_write_fmt7AdapterNtNtB9_2fs4FileENtNtCsieiGu2EXtoJ_4core3fmt5Write9write_fmtCseYC8vFNOjrM_2cc, symObjAddr: 0x7750, symBinAddr: 0x10003AB70, symSize: 0x20 }
  - { offset: 0x56943, size: 0x8, addend: 0x0, symName: __RINvYNtNtNtCsHUR1vrdMJt_3std4hash6random11RandomStateNtNtCsieiGu2EXtoJ_4core4hash11BuildHasher8hash_oneRINtNtCslJiobkLta79_5alloc5boxed3BoxSIB1F_NtNtNtB9_3ffi6os_str5OsStrEEECseYC8vFNOjrM_2cc, symObjAddr: 0x2FA0, symBinAddr: 0x100036550, symSize: 0x80 }
  - { offset: 0x569AA, size: 0x8, addend: 0x0, symName: __RINvYNtNtNtCsHUR1vrdMJt_3std4hash6random11RandomStateNtNtCsieiGu2EXtoJ_4core4hash11BuildHasher8hash_oneRINtNtCslJiobkLta79_5alloc5boxed3BoxeEECseYC8vFNOjrM_2cc, symObjAddr: 0x3020, symBinAddr: 0x1000365D0, symSize: 0x80 }
  - { offset: 0x56A11, size: 0x8, addend: 0x0, symName: __RINvYNtNtNtCsHUR1vrdMJt_3std4hash6random11RandomStateNtNtCsieiGu2EXtoJ_4core4hash11BuildHasher8hash_oneRNtCseYC8vFNOjrM_2cc12CompilerFlagEB1G_, symObjAddr: 0x30A0, symBinAddr: 0x100036650, symSize: 0x80 }
  - { offset: 0x56A78, size: 0x8, addend: 0x0, symName: __RINvYNtNtNtCsHUR1vrdMJt_3std4hash6random11RandomStateNtNtCsieiGu2EXtoJ_4core4hash11BuildHasher8hash_oneReECseYC8vFNOjrM_2cc, symObjAddr: 0x3120, symBinAddr: 0x1000366D0, symSize: 0x80 }
  - { offset: 0x56C4C, size: 0x8, addend: 0x0, symName: __RNvYNtNtNtCsHUR1vrdMJt_3std4hash6random13DefaultHasherNtNtCsieiGu2EXtoJ_4core4hash6Hasher11write_usizeCseYC8vFNOjrM_2cc, symObjAddr: 0x7770, symBinAddr: 0x10003AB90, symSize: 0x30 }
  - { offset: 0x56CAC, size: 0x8, addend: 0x0, symName: __RNvYNtNtNtCsHUR1vrdMJt_3std4hash6random13DefaultHasherNtNtCsieiGu2EXtoJ_4core4hash6Hasher19write_length_prefixCseYC8vFNOjrM_2cc, symObjAddr: 0x77A0, symBinAddr: 0x10003ABC0, symSize: 0x20 }
  - { offset: 0x57336, size: 0x8, addend: 0x0, symName: __RNvNtNtNtCsieiGu2EXtoJ_4core9core_arch3x864sse212__mm_or_si128CseYC8vFNOjrM_2cc, symObjAddr: 0x60E0, symBinAddr: 0x100039620, symSize: 0x20 }
  - { offset: 0x57445, size: 0x8, addend: 0x0, symName: __RNvNtNtNtCsieiGu2EXtoJ_4core9core_arch3x864sse213__mm_set1_epi8CseYC8vFNOjrM_2cc, symObjAddr: 0x6100, symBinAddr: 0x100039640, symSize: 0x90 }
  - { offset: 0x5759F, size: 0x8, addend: 0x0, symName: __RNvNtNtNtCsieiGu2EXtoJ_4core9core_arch3x864sse214__mm_cmpeq_epi8CseYC8vFNOjrM_2cc, symObjAddr: 0x6190, symBinAddr: 0x1000396D0, symSize: 0x80 }
  - { offset: 0x575DF, size: 0x8, addend: 0x0, symName: __RNvNtNtNtCsieiGu2EXtoJ_4core9core_arch3x864sse214__mm_cmpgt_epi8CseYC8vFNOjrM_2cc, symObjAddr: 0x6210, symBinAddr: 0x100039750, symSize: 0x80 }
  - { offset: 0x5761F, size: 0x8, addend: 0x0, symName: __RNvNtNtNtCsieiGu2EXtoJ_4core9core_arch3x864sse214__mm_load_si128CseYC8vFNOjrM_2cc, symObjAddr: 0x6290, symBinAddr: 0x1000397D0, symSize: 0x20 }
  - { offset: 0x5765E, size: 0x8, addend: 0x0, symName: __RNvNtNtNtCsieiGu2EXtoJ_4core9core_arch3x864sse215__mm_loadu_si128CseYC8vFNOjrM_2cc, symObjAddr: 0x62B0, symBinAddr: 0x1000397F0, symSize: 0x90 }
  - { offset: 0x576ED, size: 0x8, addend: 0x0, symName: __RNvNtNtNtCsieiGu2EXtoJ_4core9core_arch3x864sse215__mm_store_si128CseYC8vFNOjrM_2cc, symObjAddr: 0x6340, symBinAddr: 0x100039880, symSize: 0x20 }
  - { offset: 0x57726, size: 0x8, addend: 0x0, symName: __RNvNtNtNtCsieiGu2EXtoJ_4core9core_arch3x864sse217__mm_movemask_epi8CseYC8vFNOjrM_2cc, symObjAddr: 0x6360, symBinAddr: 0x1000398A0, symSize: 0x50 }
  - { offset: 0x57792, size: 0x8, addend: 0x0, symName: __RNvNtNtNtCsieiGu2EXtoJ_4core9core_arch3x864sse217__mm_setzero_si128CseYC8vFNOjrM_2cc, symObjAddr: 0x63B0, symBinAddr: 0x1000398F0, symSize: 0x10 }
  - { offset: 0x57883, size: 0x8, addend: 0x0, symName: __RNvNvNtNtCsieiGu2EXtoJ_4core4char7convert18from_u32_unchecked18precondition_checkCseYC8vFNOjrM_2cc, symObjAddr: 0x63C0, symBinAddr: 0x100039900, symSize: 0xF0 }
  - { offset: 0x579A1, size: 0x8, addend: 0x0, symName: __RNvYINtNtCsieiGu2EXtoJ_4core6option6OptionReENtNtB7_3cmp9PartialEq2neCseYC8vFNOjrM_2cc, symObjAddr: 0x7610, symBinAddr: 0x10003AA30, symSize: 0x20 }
  - { offset: 0x579F0, size: 0x8, addend: 0x0, symName: __RNvYINtNtCsieiGu2EXtoJ_4core6option6OptioncENtNtB7_3cmp9PartialEq2neCseYC8vFNOjrM_2cc, symObjAddr: 0x7630, symBinAddr: 0x10003AA50, symSize: 0x20 }
  - { offset: 0x5836E, size: 0x8, addend: 0x0, symName: __RNvXs1_NtCslJiobkLta79_5alloc7raw_vecINtB5_6RawVecINtNtB7_4sync3ArcNtNtCsHUR1vrdMJt_3std4path4PathEENtNtNtCsieiGu2EXtoJ_4core3ops4drop4Drop4dropCseYC8vFNOjrM_2cc, symObjAddr: 0x66D0, symBinAddr: 0x100039B50, symSize: 0x30 }
  - { offset: 0x583AA, size: 0x8, addend: 0x0, symName: __RNvXs1_NtCslJiobkLta79_5alloc7raw_vecINtB5_6RawVecINtNtB7_4sync3ArcNtNtNtCsHUR1vrdMJt_3std3ffi6os_str5OsStrEENtNtNtCsieiGu2EXtoJ_4core3ops4drop4Drop4dropCseYC8vFNOjrM_2cc, symObjAddr: 0x6700, symBinAddr: 0x100039B80, symSize: 0x30 }
  - { offset: 0x583E6, size: 0x8, addend: 0x0, symName: __RNvXs1_NtCslJiobkLta79_5alloc7raw_vecINtB5_6RawVecINtNtB7_5boxed3BoxNtNtNtCsHUR1vrdMJt_3std3ffi6os_str5OsStrEENtNtNtCsieiGu2EXtoJ_4core3ops4drop4Drop4dropCseYC8vFNOjrM_2cc, symObjAddr: 0x6730, symBinAddr: 0x100039BB0, symSize: 0x30 }
  - { offset: 0x58422, size: 0x8, addend: 0x0, symName: __RNvXs1_NtCslJiobkLta79_5alloc7raw_vecINtB5_6RawVecNtCseYC8vFNOjrM_2cc6ObjectENtNtNtCsieiGu2EXtoJ_4core3ops4drop4Drop4dropBO_, symObjAddr: 0x6760, symBinAddr: 0x100039BE0, symSize: 0x30 }
  - { offset: 0x5845E, size: 0x8, addend: 0x0, symName: __RNvXs1_NtCslJiobkLta79_5alloc7raw_vecINtB5_6RawVecNtNtNtCsHUR1vrdMJt_3std3ffi6os_str8OsStringENtNtNtCsieiGu2EXtoJ_4core3ops4drop4Drop4dropCseYC8vFNOjrM_2cc, symObjAddr: 0x6790, symBinAddr: 0x100039C10, symSize: 0x30 }
  - { offset: 0x5849A, size: 0x8, addend: 0x0, symName: __RNvXs1_NtCslJiobkLta79_5alloc7raw_vecINtB5_6RawVecNtNtNtNtCsHUR1vrdMJt_3std4sync4mpmc5waker5EntryENtNtNtCsieiGu2EXtoJ_4core3ops4drop4Drop4dropCseYC8vFNOjrM_2cc, symObjAddr: 0x67C0, symBinAddr: 0x100039C40, symSize: 0x30 }
  - { offset: 0x584D6, size: 0x8, addend: 0x0, symName: __RNvXs1_NtCslJiobkLta79_5alloc7raw_vecINtB5_6RawVecRNtNtCsHUR1vrdMJt_3std4path4PathENtNtNtCsieiGu2EXtoJ_4core3ops4drop4Drop4dropCseYC8vFNOjrM_2cc, symObjAddr: 0x67F0, symBinAddr: 0x100039C70, symSize: 0x30 }
  - { offset: 0x58512, size: 0x8, addend: 0x0, symName: __RNvXs1_NtCslJiobkLta79_5alloc7raw_vecINtB5_6RawVecReENtNtNtCsieiGu2EXtoJ_4core3ops4drop4Drop4dropCseYC8vFNOjrM_2cc, symObjAddr: 0x6820, symBinAddr: 0x100039CA0, symSize: 0x30 }
  - { offset: 0x5854E, size: 0x8, addend: 0x0, symName: __RNvXs1_NtCslJiobkLta79_5alloc7raw_vecINtB5_6RawVecTINtNtB7_4sync3ArcNtNtNtCsHUR1vrdMJt_3std3ffi6os_str5OsStrEBN_EENtNtNtCsieiGu2EXtoJ_4core3ops4drop4Drop4dropCseYC8vFNOjrM_2cc, symObjAddr: 0x6850, symBinAddr: 0x100039CD0, symSize: 0x30 }
  - { offset: 0x5858A, size: 0x8, addend: 0x0, symName: __RNvXs1_NtCslJiobkLta79_5alloc7raw_vecINtB5_6RawVecTINtNtB7_4sync3ArceEINtNtCsieiGu2EXtoJ_4core6option6OptionBN_EEENtNtNtB1b_3ops4drop4Drop4dropCseYC8vFNOjrM_2cc, symObjAddr: 0x6880, symBinAddr: 0x100039D00, symSize: 0x30 }
  - { offset: 0x585C6, size: 0x8, addend: 0x0, symName: __RNvXs1_NtCslJiobkLta79_5alloc7raw_vecINtB5_6RawVecTNtNtCsHUR1vrdMJt_3std7process7CommandNtNtNtCseYC8vFNOjrM_2cc8parallel14command_runner10KillOnDropNtNtB1s_9job_token8JobTokenEENtNtNtCsieiGu2EXtoJ_4core3ops4drop4Drop4dropB1u_, symObjAddr: 0x68B0, symBinAddr: 0x100039D30, symSize: 0x30 }
  - { offset: 0x5A426, size: 0x8, addend: 0x0, symName: __RINvMNtCsieiGu2EXtoJ_4core6optionINtB3_6OptionINtNtCslJiobkLta79_5alloc4sync3ArcNtNtNtCsHUR1vrdMJt_3std3ffi6os_str5OsStrEE3mapNtNtCsj2uhnLB4L8S_15find_msvc_tools10find_tools3EnvNcNtB20_5Arced0ECseYC8vFNOjrM_2cc, symObjAddr: 0x1C0, symBinAddr: 0x100033770, symSize: 0x90 }
  - { offset: 0x5A957, size: 0x8, addend: 0x0, symName: __RINvMNtCsieiGu2EXtoJ_4core6optionINtB3_6OptionINtNtCslJiobkLta79_5alloc4sync3ArcNtNtNtCsHUR1vrdMJt_3std3ffi6os_str5OsStrEE7or_elseNCNCNvMs4_CseYC8vFNOjrM_2ccNtB2e_5Build23apple_deployment_targets_0s0_0EB2e_, symObjAddr: 0x250, symBinAddr: 0x100033800, symSize: 0xE0 }
  - { offset: 0x5A9BA, size: 0x8, addend: 0x0, symName: __RINvMNtCsieiGu2EXtoJ_4core6optionINtB3_6OptionINtNtCslJiobkLta79_5alloc4sync3ArcNtNtNtCsHUR1vrdMJt_3std3ffi6os_str5OsStrEE7or_elseNCNvMs4_CseYC8vFNOjrM_2ccNtB2c_5Build6getenvs0_0EB2c_, symObjAddr: 0x330, symBinAddr: 0x1000338E0, symSize: 0xD0 }
  - { offset: 0x5AA1D, size: 0x8, addend: 0x0, symName: __RINvMNtCsieiGu2EXtoJ_4core6optionINtB3_6OptionINtNtCslJiobkLta79_5alloc4sync3ArcNtNtNtCsHUR1vrdMJt_3std3ffi6os_str5OsStrEE8and_thenINtNtBN_6borrow3CoweENCNCNvMs4_CseYC8vFNOjrM_2ccNtB2A_5Build17prefix_for_targets_00EB2A_, symObjAddr: 0x400, symBinAddr: 0x1000339B0, symSize: 0x70 }
  - { offset: 0x5AADA, size: 0x8, addend: 0x0, symName: __RINvMNtCsieiGu2EXtoJ_4core6optionINtB3_6OptionINtNtCslJiobkLta79_5alloc4sync3ArceEE14unwrap_or_elseNCNvMs4_CseYC8vFNOjrM_2ccNtB1H_5Build23apple_deployment_targets1_0EB1H_, symObjAddr: 0x470, symBinAddr: 0x100033A20, symSize: 0x80 }
  - { offset: 0x5AB3C, size: 0x8, addend: 0x0, symName: __RINvMNtCsieiGu2EXtoJ_4core6optionINtB3_6OptionINtNtCslJiobkLta79_5alloc4sync3ArceEE14unwrap_or_elseNCNvMs4_CseYC8vFNOjrM_2ccNtB1H_5Build23apple_deployment_targets2_0EB1H_, symObjAddr: 0x4F0, symBinAddr: 0x100033AA0, symSize: 0x60 }
  - { offset: 0x5AB9E, size: 0x8, addend: 0x0, symName: __RINvMNtCsieiGu2EXtoJ_4core6optionINtB3_6OptionINtNtCslJiobkLta79_5alloc4sync3ArceEE14unwrap_or_elseNCNvMs4_CseYC8vFNOjrM_2ccNtB1H_5Build23apple_deployment_targets3_0EB1H_, symObjAddr: 0x550, symBinAddr: 0x100033B00, symSize: 0x60 }
  - { offset: 0x5AC00, size: 0x8, addend: 0x0, symName: __RINvMNtCsieiGu2EXtoJ_4core6optionINtB3_6OptionINtNtCslJiobkLta79_5alloc4sync3ArceEE14unwrap_or_elseNCNvMs4_CseYC8vFNOjrM_2ccNtB1H_5Build23apple_deployment_targets4_0EB1H_, symObjAddr: 0x5B0, symBinAddr: 0x100033B60, symSize: 0x60 }
  - { offset: 0x5AC62, size: 0x8, addend: 0x0, symName: __RINvMNtCsieiGu2EXtoJ_4core6optionINtB3_6OptionINtNtCslJiobkLta79_5alloc4sync3ArceEE14unwrap_or_elseNCNvMs4_CseYC8vFNOjrM_2ccNtB1H_5Build23apple_deployment_targets5_0EB1H_, symObjAddr: 0x610, symBinAddr: 0x100033BC0, symSize: 0x60 }
  - { offset: 0x5ACC4, size: 0x8, addend: 0x0, symName: __RINvMNtCsieiGu2EXtoJ_4core6optionINtB3_6OptionINtNtCslJiobkLta79_5alloc4sync3ArceEE7or_elseNCNvMs4_CseYC8vFNOjrM_2ccNtB1z_5Build23apple_deployment_target0EB1z_, symObjAddr: 0x670, symBinAddr: 0x100033C20, symSize: 0xE0 }
  - { offset: 0x5AD27, size: 0x8, addend: 0x0, symName: __RINvMNtCsieiGu2EXtoJ_4core6optionINtB3_6OptionINtNtCslJiobkLta79_5alloc4sync3ArceEE8and_thenBI_NCNvMs4_CseYC8vFNOjrM_2ccNtB1D_5Build23apple_deployment_targets0_0EB1D_, symObjAddr: 0x750, symBinAddr: 0x100033D00, symSize: 0x80 }
  - { offset: 0x5ADB0, size: 0x8, addend: 0x0, symName: __RINvMNtCsieiGu2EXtoJ_4core6optionINtB3_6OptionINtNtCslJiobkLta79_5alloc6borrow3CowNtNtCsHUR1vrdMJt_3std4path4PathEE10ok_or_elseNtCseYC8vFNOjrM_2cc5ErrorNCNvMs4_B23_NtB23_5Build11get_out_dir0EB23_, symObjAddr: 0x7D0, symBinAddr: 0x100033D80, symSize: 0xB0 }
  - { offset: 0x5AE1C, size: 0x8, addend: 0x0, symName: __RINvMNtCsieiGu2EXtoJ_4core6optionINtB3_6OptionINtNtCslJiobkLta79_5alloc6borrow3CowNtNtCsHUR1vrdMJt_3std4path4PathEE14unwrap_or_elseNCNvNvMNtCseYC8vFNOjrM_2cc4toolNtB2c_4Tool13with_features19detect_family_inner0EB2e_, symObjAddr: 0x880, symBinAddr: 0x100033E30, symSize: 0x80 }
  - { offset: 0x5AE7F, size: 0x8, addend: 0x0, symName: __RINvMNtCsieiGu2EXtoJ_4core6optionINtB3_6OptionINtNtCslJiobkLta79_5alloc6borrow3CoweEE7or_elseNCNvMs4_CseYC8vFNOjrM_2ccNtB1B_5Build17prefix_for_targets0_0EB1B_, symObjAddr: 0x900, symBinAddr: 0x100033EB0, symSize: 0xF0 }
  - { offset: 0x5AEE2, size: 0x8, addend: 0x0, symName: __RINvMNtCsieiGu2EXtoJ_4core6optionINtB3_6OptionINtNtCslJiobkLta79_5alloc6borrow3CoweEE7or_elseNCNvMs4_CseYC8vFNOjrM_2ccNtB1B_5Build17prefix_for_targets_0EB1B_, symObjAddr: 0x9F0, symBinAddr: 0x100033FA0, symSize: 0xE0 }
  - { offset: 0x5AF5D, size: 0x8, addend: 0x0, symName: __RINvMNtCsieiGu2EXtoJ_4core6optionINtB3_6OptionINtNtNtB5_3num7nonzero7NonZerojEE6map_orINtNtB5_6result6ResultuBI_ENcNtB1m_3Err0ECseYC8vFNOjrM_2cc, symObjAddr: 0xAD0, symBinAddr: 0x100034080, symSize: 0x90 }
  - { offset: 0x5B16F, size: 0x8, addend: 0x0, symName: __RINvMNtCsieiGu2EXtoJ_4core6optionINtB3_6OptionNtCslzRnRZxZnvp_9jobserver6ClientE3mapNtNtNtNtCseYC8vFNOjrM_2cc8parallel9job_token19inherited_jobserver9JobServerNCNvMB1m_B1k_8from_env0EB1s_, symObjAddr: 0xB60, symBinAddr: 0x100034110, symSize: 0x80 }
  - { offset: 0x5B1F2, size: 0x8, addend: 0x0, symName: __RINvMNtCsieiGu2EXtoJ_4core6optionINtB3_6OptionNtNtCsHUR1vrdMJt_3std4path7PathBufE3mapINtNtCslJiobkLta79_5alloc6borrow3CowNtBK_4PathENcNtB1l_5Owned0ECseYC8vFNOjrM_2cc, symObjAddr: 0xBE0, symBinAddr: 0x100034190, symSize: 0xB0 }
  - { offset: 0x5B379, size: 0x8, addend: 0x0, symName: __RINvMNtCsieiGu2EXtoJ_4core6optionINtB3_6OptionNtNtCsHUR1vrdMJt_3std4path7PathBufE3mapNtNtBM_7process7CommandNCNCNvMs4_CseYC8vFNOjrM_2ccNtB1S_5Build25get_base_archiver_variants_00EB1S_, symObjAddr: 0xC90, symBinAddr: 0x100034240, symSize: 0xF0 }
  - { offset: 0x5B411, size: 0x8, addend: 0x0, symName: __RINvMNtCsieiGu2EXtoJ_4core6optionINtB3_6OptionNtNtCsHUR1vrdMJt_3std4path7PathBufE7or_elseNCNvMs4_CseYC8vFNOjrM_2ccNtB1x_5Build25get_base_archiver_variants0_0EB1x_, symObjAddr: 0xD80, symBinAddr: 0x100034330, symSize: 0xF0 }
  - { offset: 0x5B48E, size: 0x8, addend: 0x0, symName: __RINvMNtCsieiGu2EXtoJ_4core6optionINtB3_6OptionNtNtCsHUR1vrdMJt_3std4path7PathBufE7or_elseNCNvMs4_CseYC8vFNOjrM_2ccNtB1x_5Build5whichs_0EB1x_, symObjAddr: 0xE70, symBinAddr: 0x100034420, symSize: 0xF0 }
  - { offset: 0x5B4F1, size: 0x8, addend: 0x0, symName: __RINvMNtCsieiGu2EXtoJ_4core6optionINtB3_6OptionNtNtCsHUR1vrdMJt_3std6thread8ThreadIdE6map_oryNCNvMsd_NtNtBM_4sync14reentrant_lockNtB1A_3Tid3set0ECseYC8vFNOjrM_2cc, symObjAddr: 0xF60, symBinAddr: 0x100034510, symSize: 0x90 }
  - { offset: 0x5B581, size: 0x8, addend: 0x0, symName: __RINvMNtCsieiGu2EXtoJ_4core6optionINtB3_6OptionNtNtCsHUR1vrdMJt_3std7process11ChildStderrE3mapTBI_INtNtCslJiobkLta79_5alloc3vec3VechEENCNvMs_NtCseYC8vFNOjrM_2cc15command_helpersNtB2e_15StderrForwarder3new0EB2g_, symObjAddr: 0xFF0, symBinAddr: 0x1000345A0, symSize: 0x80 }
  - { offset: 0x5B5EC, size: 0x8, addend: 0x0, symName: __RINvMNtCsieiGu2EXtoJ_4core6optionINtB3_6OptionNtNtCsHUR1vrdMJt_3std7process7CommandE14unwrap_or_elseNCNvMs4_CseYC8vFNOjrM_2ccNtB1I_5Build20msvc_macro_assembler0EB1I_, symObjAddr: 0x1070, symBinAddr: 0x100034620, symSize: 0xC0 }
  - { offset: 0x5B65D, size: 0x8, addend: 0x0, symName: __RINvMNtCsieiGu2EXtoJ_4core6optionINtB3_6OptionNtNtCsHUR1vrdMJt_3std7process7CommandE7or_elseNCNvMs4_CseYC8vFNOjrM_2ccNtB1A_5Build25get_base_archiver_variants_0EB1A_, symObjAddr: 0x1130, symBinAddr: 0x1000346E0, symSize: 0x110 }
  - { offset: 0x5B6C2, size: 0x8, addend: 0x0, symName: __RINvMNtCsieiGu2EXtoJ_4core6optionINtB3_6OptionNtNtCseYC8vFNOjrM_2cc4tool4ToolE3mapNtNtCsHUR1vrdMJt_3std7process7CommandNCNvMs4_BM_NtBM_5Build20find_msvc_tools_find0EBM_, symObjAddr: 0x1240, symBinAddr: 0x1000347F0, symSize: 0xD0 }
  - { offset: 0x5B73C, size: 0x8, addend: 0x0, symName: __RINvMNtCsieiGu2EXtoJ_4core6optionINtB3_6OptionNtNtCseYC8vFNOjrM_2cc4tool4ToolE7or_elseNCNvMs4_BM_NtBM_5Build17get_base_compilers0_0EBM_, symObjAddr: 0x1310, symBinAddr: 0x1000348C0, symSize: 0xF0 }
  - { offset: 0x5B7AD, size: 0x8, addend: 0x0, symName: __RINvMNtCsieiGu2EXtoJ_4core6optionINtB3_6OptionNtNtCseYC8vFNOjrM_2cc4tool4ToolE7or_elseNCNvMs4_BM_NtBM_5Build17get_base_compilers_0EBM_, symObjAddr: 0x1400, symBinAddr: 0x1000349B0, symSize: 0x110 }
  - { offset: 0x5B82A, size: 0x8, addend: 0x0, symName: __RINvMNtCsieiGu2EXtoJ_4core6optionINtB3_6OptionNtNtCsj2uhnLB4L8S_15find_msvc_tools4tool4ToolE3mapNtNtCseYC8vFNOjrM_2cc4tool4ToolNvMB1y_B1w_20from_find_msvc_toolsEB1A_, symObjAddr: 0x1510, symBinAddr: 0x100034AC0, symSize: 0xC0 }
  - { offset: 0x5B897, size: 0x8, addend: 0x0, symName: __RINvMNtCsieiGu2EXtoJ_4core6optionINtB3_6OptionNtNtCslJiobkLta79_5alloc6string6StringE10ok_or_elseNtCseYC8vFNOjrM_2cc5ErrorNCNvMs4_B1z_NtB1z_5Build17getenv_unwrap_str0EB1z_, symObjAddr: 0x15D0, symBinAddr: 0x100034B80, symSize: 0xC0 }
  - { offset: 0x5B903, size: 0x8, addend: 0x0, symName: __RINvMNtCsieiGu2EXtoJ_4core6optionINtB3_6OptionNtNtCslJiobkLta79_5alloc6string6StringE14unwrap_or_elseNCNvMs4_CseYC8vFNOjrM_2ccNtB1J_5Build25get_base_archiver_variants2_0EB1J_, symObjAddr: 0x1690, symBinAddr: 0x100034C40, symSize: 0x90 }
  - { offset: 0x5B97E, size: 0x8, addend: 0x0, symName: __RINvMNtCsieiGu2EXtoJ_4core6optionINtB3_6OptionNtNtCslJiobkLta79_5alloc6string6StringE3mapINtNtBM_6borrow3CoweENcNtB1p_5Owned0ECseYC8vFNOjrM_2cc, symObjAddr: 0x1720, symBinAddr: 0x100034CD0, symSize: 0xB0 }
  - { offset: 0x5B9EB, size: 0x8, addend: 0x0, symName: __RINvMNtCsieiGu2EXtoJ_4core6optionINtB3_6OptionNtNtCslJiobkLta79_5alloc6string6StringE8and_thenmNCNvMNtNtNtCseYC8vFNOjrM_2cc8parallel9job_token19inprocess_jobserverNtB1A_9JobServer3new0EB1G_, symObjAddr: 0x17D0, symBinAddr: 0x100034D80, symSize: 0x90 }
  - { offset: 0x5BA6F, size: 0x8, addend: 0x0, symName: __RINvMNtCsieiGu2EXtoJ_4core6optionINtB3_6OptionNtNtNtCsHUR1vrdMJt_3std3ffi6os_str8OsStringE3mapINtNtCslJiobkLta79_5alloc4sync3ArcNtBK_5OsStrENvYB1u_INtNtB5_7convert4FromBI_E4fromECseYC8vFNOjrM_2cc, symObjAddr: 0x1860, symBinAddr: 0x100034E10, symSize: 0x90 }
  - { offset: 0x5BADB, size: 0x8, addend: 0x0, symName: __RINvMNtCsieiGu2EXtoJ_4core6optionINtB3_6OptionNtNtNtCseYC8vFNOjrM_2cc8parallel9job_token14JobTokenServerE14unwrap_or_elseNCNCNvMs0_BK_BI_3new00EBO_, symObjAddr: 0x18F0, symBinAddr: 0x100034EA0, symSize: 0x70 }
  - { offset: 0x5BB56, size: 0x8, addend: 0x0, symName: __RINvMNtCsieiGu2EXtoJ_4core6optionINtB3_6OptionNtNtNtNtCseYC8vFNOjrM_2cc8parallel9job_token19inherited_jobserver9JobServerE3mapNtBM_14JobTokenServerNcNtB20_9Inherited0EBQ_, symObjAddr: 0x1960, symBinAddr: 0x100034F10, symSize: 0xB0 }
  - { offset: 0x5BC04, size: 0x8, addend: 0x0, symName: __RINvMNtCsieiGu2EXtoJ_4core6optionINtB3_6OptionRINtNtCslJiobkLta79_5alloc4sync3ArcNtNtNtCsHUR1vrdMJt_3std3ffi6os_str5OsStrEE8and_thenRReNCNvMs4_CseYC8vFNOjrM_2ccNtB2h_5Build23find_working_gnu_prefix0EB2h_, symObjAddr: 0x1A10, symBinAddr: 0x100034FC0, symSize: 0x70 }
  - { offset: 0x5BC70, size: 0x8, addend: 0x0, symName: __RINvMNtCsieiGu2EXtoJ_4core6optionINtB3_6OptionRNtNtCsHUR1vrdMJt_3std4path4PathE10ok_or_elseNtCseYC8vFNOjrM_2cc5ErrorNCNvNtB1t_15command_helpers18objects_from_filess_0EB1t_, symObjAddr: 0x1A80, symBinAddr: 0x100035030, symSize: 0xA0 }
  - { offset: 0x5BCF4, size: 0x8, addend: 0x0, symName: __RINvMNtCsieiGu2EXtoJ_4core6optionINtB3_6OptionRNtNtCsHUR1vrdMJt_3std4path4PathE3mapINtNtCslJiobkLta79_5alloc6borrow3CowBJ_ENcNtB1j_8Borrowed0ECseYC8vFNOjrM_2cc, symObjAddr: 0x1B20, symBinAddr: 0x1000350D0, symSize: 0x90 }
  - { offset: 0x5BD5F, size: 0x8, addend: 0x0, symName: __RINvMNtCsieiGu2EXtoJ_4core6optionINtB3_6OptionRNtNtCsHUR1vrdMJt_3std4path4PathE6map_orbNCNCNCNvMs4_CseYC8vFNOjrM_2ccNtB1z_5Build11try_compiles_000EB1z_, symObjAddr: 0x1BB0, symBinAddr: 0x100035160, symSize: 0xB0 }
  - { offset: 0x5BDD1, size: 0x8, addend: 0x0, symName: __RINvMNtCsieiGu2EXtoJ_4core6optionINtB3_6OptionRNtNtCseYC8vFNOjrM_2cc6target10TargetInfoE3mapReNCNvMNtBL_6parserNtB1z_21TargetInfoParserInner32from_cargo_environment_variabless0_0EBN_, symObjAddr: 0x1C60, symBinAddr: 0x100035210, symSize: 0x60 }
  - { offset: 0x5BE3C, size: 0x8, addend: 0x0, symName: __RINvMNtCsieiGu2EXtoJ_4core6optionINtB3_6OptionRNtNtCseYC8vFNOjrM_2cc6target10TargetInfoE3mapReNCNvMNtBL_6parserNtB1z_21TargetInfoParserInner32from_cargo_environment_variabless1_0EBN_, symObjAddr: 0x1CC0, symBinAddr: 0x100035270, symSize: 0x60 }
  - { offset: 0x5BEA7, size: 0x8, addend: 0x0, symName: __RINvMNtCsieiGu2EXtoJ_4core6optionINtB3_6OptionRNtNtCseYC8vFNOjrM_2cc6target10TargetInfoE3mapReNCNvMNtBL_6parserNtB1z_21TargetInfoParserInner32from_cargo_environment_variabless2_0EBN_, symObjAddr: 0x1D20, symBinAddr: 0x1000352D0, symSize: 0x60 }
  - { offset: 0x5BF12, size: 0x8, addend: 0x0, symName: __RINvMNtCsieiGu2EXtoJ_4core6optionINtB3_6OptionRNtNtCseYC8vFNOjrM_2cc6target10TargetInfoE3mapReNCNvMNtBL_6parserNtB1z_21TargetInfoParserInner32from_cargo_environment_variabless3_0EBN_, symObjAddr: 0x1D80, symBinAddr: 0x100035330, symSize: 0x60 }
  - { offset: 0x5BF7D, size: 0x8, addend: 0x0, symName: __RINvMNtCsieiGu2EXtoJ_4core6optionINtB3_6OptionRNtNtCseYC8vFNOjrM_2cc6target10TargetInfoE3mapReNCNvMNtBL_6parserNtB1z_21TargetInfoParserInner32from_cargo_environment_variabless4_0EBN_, symObjAddr: 0x1DE0, symBinAddr: 0x100035390, symSize: 0x60 }
  - { offset: 0x5C006, size: 0x8, addend: 0x0, symName: __RINvMNtCsieiGu2EXtoJ_4core6optionINtB3_6OptionRNtNtNtCsHUR1vrdMJt_3std3ffi6os_str5OsStrE10ok_or_elseNtCseYC8vFNOjrM_2cc5ErrorNCNvNtB1C_15command_helpers18objects_from_files0EB1C_, symObjAddr: 0x1E40, symBinAddr: 0x1000353F0, symSize: 0xA0 }
  - { offset: 0x5C08A, size: 0x8, addend: 0x0, symName: __RINvMNtCsieiGu2EXtoJ_4core6optionINtB3_6OptionRNtNtNtCsHUR1vrdMJt_3std3ffi6os_str5OsStrE3mapINtNtCslJiobkLta79_5alloc6borrow3CoweENvMsl_BL_BJ_15to_string_lossyECseYC8vFNOjrM_2cc, symObjAddr: 0x1EE0, symBinAddr: 0x100035490, symSize: 0x90 }
  - { offset: 0x5C10D, size: 0x8, addend: 0x0, symName: __RINvMNtCsieiGu2EXtoJ_4core6optionINtB3_6OptionRNtNtNtCsHUR1vrdMJt_3std3ffi6os_str5OsStrE3mapNtNtBP_4path7PathBufNvYB1s_INtNtB5_7convert4FromBI_E4fromECseYC8vFNOjrM_2cc, symObjAddr: 0x1F70, symBinAddr: 0x100035520, symSize: 0x90 }
  - { offset: 0x5C178, size: 0x8, addend: 0x0, symName: __RINvMNtCsieiGu2EXtoJ_4core6optionINtB3_6OptionRNtNtNtCsHUR1vrdMJt_3std3ffi6os_str5OsStrE3mapNtNtCslJiobkLta79_5alloc6string6StringNCNvMs4_CseYC8vFNOjrM_2ccNtB2c_5Build17prefix_for_target0EB2c_, symObjAddr: 0x2000, symBinAddr: 0x1000355B0, symSize: 0x90 }
  - { offset: 0x5C1E3, size: 0x8, addend: 0x0, symName: __RINvMNtCsieiGu2EXtoJ_4core6optionINtB3_6OptionRNtNtNtCsHUR1vrdMJt_3std3ffi6os_str5OsStrE8and_thenNtNtBP_4path7PathBufNCNvMs4_CseYC8vFNOjrM_2ccNtB1Z_5Build5which0EB1Z_, symObjAddr: 0x2090, symBinAddr: 0x100035640, symSize: 0x80 }
  - { offset: 0x5C24E, size: 0x8, addend: 0x0, symName: __RINvMNtCsieiGu2EXtoJ_4core6optionINtB3_6OptionRNtNtNtCsHUR1vrdMJt_3std3ffi6os_str5OsStrE8and_thenReNCNvCseYC8vFNOjrM_2cc21is_llvm_mingw_wrapper0EB1D_, symObjAddr: 0x2110, symBinAddr: 0x1000356C0, symSize: 0x60 }
  - { offset: 0x5C2C6, size: 0x8, addend: 0x0, symName: __RINvMNtCsieiGu2EXtoJ_4core6optionINtB3_6OptionRTINtNtCslJiobkLta79_5alloc4sync3ArcNtNtNtCsHUR1vrdMJt_3std3ffi6os_str5OsStrEBK_EE3mapBK_NCNvMs4_CseYC8vFNOjrM_2ccNtB2h_5Build6getenvs_0EB2h_, symObjAddr: 0x2170, symBinAddr: 0x100035720, symSize: 0x60 }
  - { offset: 0x5C331, size: 0x8, addend: 0x0, symName: __RINvMNtCsieiGu2EXtoJ_4core6optionINtB3_6OptionRTINtNtCslJiobkLta79_5alloc4sync3ArcNtNtNtCsHUR1vrdMJt_3std3ffi6os_str5OsStrEBK_EE3mapRBK_NCNCNvMs4_CseYC8vFNOjrM_2ccNtB2k_5Build23apple_deployment_targets_0s_0EB2k_, symObjAddr: 0x21D0, symBinAddr: 0x100035780, symSize: 0x50 }
  - { offset: 0x5C3A9, size: 0x8, addend: 0x0, symName: __RINvMNtCsieiGu2EXtoJ_4core6optionINtB3_6OptionRTNtNtNtCsHUR1vrdMJt_3std3ffi6os_str8OsStringBK_EE8and_thenNtNtBQ_4path7PathBufNCNvMs4_CseYC8vFNOjrM_2ccNtB27_5Build11try_compiles_0EB27_, symObjAddr: 0x2220, symBinAddr: 0x1000357D0, symSize: 0x60 }
  - { offset: 0x5C414, size: 0x8, addend: 0x0, symName: __RINvMNtCsieiGu2EXtoJ_4core6optionINtB3_6OptionReE10ok_or_elseNtCseYC8vFNOjrM_2cc5ErrorNCNvMs0_NtNtBZ_6target6parserNtB1w_10TargetInfo17from_rustc_target0EBZ_, symObjAddr: 0x2280, symBinAddr: 0x100035830, symSize: 0xA0 }
  - { offset: 0x5C480, size: 0x8, addend: 0x0, symName: __RINvMNtCsieiGu2EXtoJ_4core6optionINtB3_6OptionReE3mapIBw_RBI_ENCNvCseYC8vFNOjrM_2cc27autodetect_android_compiler0EB12_, symObjAddr: 0x2320, symBinAddr: 0x1000358D0, symSize: 0x70 }
  - { offset: 0x5C503, size: 0x8, addend: 0x0, symName: __RINvMNtCsieiGu2EXtoJ_4core6optionINtB3_6OptionReE3mapINtNtCslJiobkLta79_5alloc4sync3ArceENvYBP_INtNtB5_7convert4FromBI_E4fromECseYC8vFNOjrM_2cc, symObjAddr: 0x2390, symBinAddr: 0x100035940, symSize: 0x60 }
  - { offset: 0x5C586, size: 0x8, addend: 0x0, symName: __RINvMNtCsieiGu2EXtoJ_4core6optionINtB3_6OptionReE3mapINtNtCslJiobkLta79_5alloc6borrow3CoweENcNtBP_8Borrowed0ECseYC8vFNOjrM_2cc, symObjAddr: 0x23F0, symBinAddr: 0x1000359A0, symSize: 0x90 }
  - { offset: 0x5C609, size: 0x8, addend: 0x0, symName: __RINvMNtCsieiGu2EXtoJ_4core6optionINtB3_6OptionReE3mapNtNtCslJiobkLta79_5alloc6string6StringNvYBP_INtNtB5_7convert4FromBI_E4fromECseYC8vFNOjrM_2cc, symObjAddr: 0x2480, symBinAddr: 0x100035A30, symSize: 0x90 }
  - { offset: 0x5C674, size: 0x8, addend: 0x0, symName: __RINvMNtCsieiGu2EXtoJ_4core6optionINtB3_6OptionReE3mapNtNtCslJiobkLta79_5alloc6string6StringNvYeNtBR_8ToString9to_stringECseYC8vFNOjrM_2cc, symObjAddr: 0x2510, symBinAddr: 0x100035AC0, symSize: 0x90 }
  - { offset: 0x5C6F7, size: 0x8, addend: 0x0, symName: __RINvMNtCsieiGu2EXtoJ_4core6optionINtB3_6OptionReE3mapRNtNtCsHUR1vrdMJt_3std4path4PathINvMs16_BS_BQ_3neweEECseYC8vFNOjrM_2cc, symObjAddr: 0x25A0, symBinAddr: 0x100035B50, symSize: 0x60 }
  - { offset: 0x5C762, size: 0x8, addend: 0x0, symName: __RINvMNtCsieiGu2EXtoJ_4core6optionINtB3_6OptionReE5ok_orNtCseYC8vFNOjrM_2cc5ErrorEBT_, symObjAddr: 0x2600, symBinAddr: 0x100035BB0, symSize: 0xC0 }
  - { offset: 0x5C7DD, size: 0x8, addend: 0x0, symName: __RINvMNtCsieiGu2EXtoJ_4core6optionINtB3_6OptionReE6map_orIBw_bEINvNvMNtCseYC8vFNOjrM_2cc5flagsNtB14_17RustcCodegenFlags14set_rustc_flag11arg_to_boolBI_EEB16_, symObjAddr: 0x26C0, symBinAddr: 0x100035C70, symSize: 0xA0 }
  - { offset: 0x5C84F, size: 0x8, addend: 0x0, symName: __RINvMNtCsieiGu2EXtoJ_4core6optionINtB3_6OptionReE7or_elseNCNvMs4_CseYC8vFNOjrM_2ccNtB11_5Build23find_working_gnu_prefixs_0EB11_, symObjAddr: 0x2760, symBinAddr: 0x100035D10, symSize: 0xC0 }
  - { offset: 0x5C8C9, size: 0x8, addend: 0x0, symName: __RINvMNtCsieiGu2EXtoJ_4core6optionINtB3_6OptionReE8and_thenmINvNvMNtCseYC8vFNOjrM_2cc5flagsNtB11_17RustcCodegenFlags14set_rustc_flag10arg_to_u32BI_EEB13_, symObjAddr: 0x2820, symBinAddr: 0x100035DD0, symSize: 0x60 }
  - { offset: 0x5C95D, size: 0x8, addend: 0x0, symName: __RINvMNtCsieiGu2EXtoJ_4core6optionINtB3_6OptionTNtNtCsHUR1vrdMJt_3std4path7PathBufIBw_INtNtCslJiobkLta79_5alloc4sync3ArcNtNtNtBN_3ffi6os_str5OsStrEEINtNtB1q_3vec3VecNtNtB1q_6string6StringEEE3mapNtNtBN_7process7CommandNCNvMs4_CseYC8vFNOjrM_2ccNtB3A_5Build25get_base_archiver_variant0EB3A_, symObjAddr: 0x2880, symBinAddr: 0x100035E30, symSize: 0xE0 }
  - { offset: 0x5C9CA, size: 0x8, addend: 0x0, symName: __RINvMNtCsieiGu2EXtoJ_4core6optionINtB3_6OptionTNtNtCsHUR1vrdMJt_3std4path7PathBufIBw_INtNtCslJiobkLta79_5alloc4sync3ArcNtNtNtBN_3ffi6os_str5OsStrEEINtNtB1q_3vec3VecNtNtB1q_6string6StringEEE3mapNtNtCseYC8vFNOjrM_2cc4tool4ToolNCNvMs4_B39_NtB39_5Build17get_base_compiler0EB39_, symObjAddr: 0x2960, symBinAddr: 0x100035F10, symSize: 0xE0 }
  - { offset: 0x5CA62, size: 0x8, addend: 0x0, symName: __RINvMNtCsieiGu2EXtoJ_4core6optionINtB3_6OptionTReBJ_EE10ok_or_elseNtCseYC8vFNOjrM_2cc5ErrorNCNvMs0_NtNtB14_6target6parserNtB1B_10TargetInfo17from_rustc_targets_0EB14_, symObjAddr: 0x2A40, symBinAddr: 0x100035FF0, symSize: 0xE0 }
  - { offset: 0x5CACF, size: 0x8, addend: 0x0, symName: __RINvMNtCsieiGu2EXtoJ_4core6optionINtB3_6OptionTReBJ_EE5ok_orNtCseYC8vFNOjrM_2cc5ErrorEBY_, symObjAddr: 0x2B20, symBinAddr: 0x1000360D0, symSize: 0xF0 }
  - { offset: 0x5CB33, size: 0x8, addend: 0x0, symName: __RINvMNtCsieiGu2EXtoJ_4core6optionINtB3_6OptionbE14unwrap_or_elseNCNvMs4_CseYC8vFNOjrM_2ccNtB18_5Build23get_force_frame_pointer0EB18_, symObjAddr: 0x2C10, symBinAddr: 0x1000361C0, symSize: 0x60 }
  - { offset: 0x5CB95, size: 0x8, addend: 0x0, symName: __RINvMNtCsieiGu2EXtoJ_4core6optionINtB3_6OptionbE14unwrap_or_elseNCNvMs4_CseYC8vFNOjrM_2ccNtB18_5Build23get_shell_escaped_flags0EB18_, symObjAddr: 0x2C70, symBinAddr: 0x100036220, symSize: 0x60 }
  - { offset: 0x5CBF7, size: 0x8, addend: 0x0, symName: __RINvMNtCsieiGu2EXtoJ_4core6optionINtB3_6OptionmE7or_elseNCNvMNtNtNtCseYC8vFNOjrM_2cc8parallel9job_token19inprocess_jobserverNtBX_9JobServer3news_0EB13_, symObjAddr: 0x2CD0, symBinAddr: 0x100036280, symSize: 0x90 }
  - { offset: 0x5D01E, size: 0x8, addend: 0x0, symName: __RNvMNtCsieiGu2EXtoJ_4core4timeNtB2_8Duration11from_millisCseYC8vFNOjrM_2cc, symObjAddr: 0x3A70, symBinAddr: 0x100037020, symSize: 0x40 }
  - { offset: 0x5D040, size: 0x8, addend: 0x0, symName: __RNvMNtCsieiGu2EXtoJ_4core6optionINtB2_6OptionIBv_RReEE9unwrap_orCseYC8vFNOjrM_2cc, symObjAddr: 0x3AB0, symBinAddr: 0x100037060, symSize: 0x40 }
  - { offset: 0x5D11F, size: 0x8, addend: 0x0, symName: __RNvMNtCsieiGu2EXtoJ_4core6optionINtB2_6OptionINtNtB4_3pin3PinQNCNvNtNtCseYC8vFNOjrM_2cc8parallel14command_runner24run_commands_in_parallel0EE6as_mutB16_, symObjAddr: 0x3AF0, symBinAddr: 0x1000370A0, symSize: 0x50 }
  - { offset: 0x5D192, size: 0x8, addend: 0x0, symName: __RNvMNtCsieiGu2EXtoJ_4core6optionINtB2_6OptionINtNtB4_3pin3PinQNCNvNtNtCseYC8vFNOjrM_2cc8parallel14command_runner24run_commands_in_parallel0EE7is_noneB16_, symObjAddr: 0x3B40, symBinAddr: 0x1000370F0, symSize: 0x30 }
  - { offset: 0x5D37D, size: 0x8, addend: 0x0, symName: __RNvMNtCsieiGu2EXtoJ_4core6optionINtB2_6OptionINtNtB4_3pin3PinQNCNvNtNtCseYC8vFNOjrM_2cc8parallel14command_runner24run_commands_in_parallels_0EE6as_mutB16_, symObjAddr: 0x3B70, symBinAddr: 0x100037120, symSize: 0x50 }
  - { offset: 0x5D3F0, size: 0x8, addend: 0x0, symName: __RNvMNtCsieiGu2EXtoJ_4core6optionINtB2_6OptionINtNtB4_3pin3PinQNCNvNtNtCseYC8vFNOjrM_2cc8parallel14command_runner24run_commands_in_parallels_0EE7is_noneB16_, symObjAddr: 0x3BC0, symBinAddr: 0x100037170, symSize: 0x30 }
  - { offset: 0x5D463, size: 0x8, addend: 0x0, symName: __RNvMNtCsieiGu2EXtoJ_4core6optionINtB2_6OptionINtNtCslJiobkLta79_5alloc3vec3VecNtNtBM_6string6StringEE7is_noneCseYC8vFNOjrM_2cc, symObjAddr: 0x3BF0, symBinAddr: 0x1000371A0, symSize: 0x30 }
  - { offset: 0x5D4BA, size: 0x8, addend: 0x0, symName: __RNvMNtCsieiGu2EXtoJ_4core6optionINtB2_6OptionINtNtCslJiobkLta79_5alloc4sync3ArcNtNtNtCsHUR1vrdMJt_3std3ffi6os_str5OsStrEE6as_refCseYC8vFNOjrM_2cc, symObjAddr: 0x3C20, symBinAddr: 0x1000371D0, symSize: 0x50 }
  - { offset: 0x5D504, size: 0x8, addend: 0x0, symName: __RNvMNtCsieiGu2EXtoJ_4core6optionINtB2_6OptionINtNtCslJiobkLta79_5alloc4sync3ArcNtNtNtCsHUR1vrdMJt_3std3ffi6os_str5OsStrEE7is_someCseYC8vFNOjrM_2cc, symObjAddr: 0x3C70, symBinAddr: 0x100037220, symSize: 0x30 }
  - { offset: 0x5D5D0, size: 0x8, addend: 0x0, symName: __RNvMNtCsieiGu2EXtoJ_4core6optionINtB2_6OptionINtNtCslJiobkLta79_5alloc4sync3ArcNtNtNtCsHUR1vrdMJt_3std3ffi6os_str5OsStrEE8as_derefCseYC8vFNOjrM_2cc, symObjAddr: 0x3CA0, symBinAddr: 0x100037250, symSize: 0x70 }
  - { offset: 0x5D693, size: 0x8, addend: 0x0, symName: __RNvMNtCsieiGu2EXtoJ_4core6optionINtB2_6OptionINtNtCslJiobkLta79_5alloc4sync3ArceEE6as_refCseYC8vFNOjrM_2cc, symObjAddr: 0x3D10, symBinAddr: 0x1000372C0, symSize: 0x50 }
  - { offset: 0x5D6F9, size: 0x8, addend: 0x0, symName: __RNvMNtCsieiGu2EXtoJ_4core6optionINtB2_6OptionINtNtCslJiobkLta79_5alloc4sync3ArceEE7is_noneCseYC8vFNOjrM_2cc, symObjAddr: 0x3D60, symBinAddr: 0x100037310, symSize: 0x30 }
  - { offset: 0x5D7E3, size: 0x8, addend: 0x0, symName: __RNvMNtCsieiGu2EXtoJ_4core6optionINtB2_6OptionINtNtCslJiobkLta79_5alloc4sync3ArceEE8as_derefCseYC8vFNOjrM_2cc, symObjAddr: 0x3D90, symBinAddr: 0x100037340, symSize: 0x70 }
  - { offset: 0x5D88C, size: 0x8, addend: 0x0, symName: __RNvMNtCsieiGu2EXtoJ_4core6optionINtB2_6OptionINtNtCslJiobkLta79_5alloc4sync3ArceEE9unwrap_orCseYC8vFNOjrM_2cc, symObjAddr: 0x3E00, symBinAddr: 0x1000373B0, symSize: 0x80 }
  - { offset: 0x5D99F, size: 0x8, addend: 0x0, symName: __RNvMNtCsieiGu2EXtoJ_4core6optionINtB2_6OptionINtNtCslJiobkLta79_5alloc6borrow3CowNtNtCsHUR1vrdMJt_3std4path4PathEE8as_derefCseYC8vFNOjrM_2cc, symObjAddr: 0x3E80, symBinAddr: 0x100037430, symSize: 0x80 }
  - { offset: 0x5DA48, size: 0x8, addend: 0x0, symName: __RNvMNtCsieiGu2EXtoJ_4core6optionINtB2_6OptionINtNtCslJiobkLta79_5alloc6borrow3CowNtNtCsHUR1vrdMJt_3std4path4PathEE9unwrap_orCseYC8vFNOjrM_2cc, symObjAddr: 0x3F00, symBinAddr: 0x1000374B0, symSize: 0xB0 }
  - { offset: 0x5DAB0, size: 0x8, addend: 0x0, symName: __RNvMNtCsieiGu2EXtoJ_4core6optionINtB2_6OptionNtCseYC8vFNOjrM_2cc10AsmFileExtE7is_someBJ_, symObjAddr: 0x3FB0, symBinAddr: 0x100037560, symSize: 0x30 }
  - { offset: 0x5DAE9, size: 0x8, addend: 0x0, symName: __RNvMNtCsieiGu2EXtoJ_4core6optionINtB2_6OptionNtNtCsHUR1vrdMJt_3std2fs4FileE4takeCseYC8vFNOjrM_2cc, symObjAddr: 0x3FE0, symBinAddr: 0x100037590, symSize: 0x20 }
  - { offset: 0x5DB40, size: 0x8, addend: 0x0, symName: __RNvMNtCsieiGu2EXtoJ_4core6optionINtB2_6OptionNtNtCsHUR1vrdMJt_3std7process11ChildStderrE4takeCseYC8vFNOjrM_2cc, symObjAddr: 0x4000, symBinAddr: 0x1000375B0, symSize: 0x20 }
  - { offset: 0x5DB97, size: 0x8, addend: 0x0, symName: __RNvMNtCsieiGu2EXtoJ_4core6optionINtB2_6OptionNtNtCseYC8vFNOjrM_2cc6target10TargetInfoE6as_refBL_, symObjAddr: 0x4020, symBinAddr: 0x1000375D0, symSize: 0x50 }
  - { offset: 0x5DC9B, size: 0x8, addend: 0x0, symName: __RNvMNtCsieiGu2EXtoJ_4core6optionINtB2_6OptionNtNtCslJiobkLta79_5alloc6string6StringE8as_derefCseYC8vFNOjrM_2cc, symObjAddr: 0x4070, symBinAddr: 0x100037620, symSize: 0x80 }
  - { offset: 0x5DD5E, size: 0x8, addend: 0x0, symName: __RNvMNtCsieiGu2EXtoJ_4core6optionINtB2_6OptionNtNtNtNtCseYC8vFNOjrM_2cc8parallel9job_token19inherited_jobserver12HelperThreadE6as_refBP_, symObjAddr: 0x40F0, symBinAddr: 0x1000376A0, symSize: 0x40 }
  - { offset: 0x5DE18, size: 0x8, addend: 0x0, symName: __RNvMNtCsieiGu2EXtoJ_4core6optionINtB2_6OptionNtNtNtNtCseYC8vFNOjrM_2cc8parallel9job_token19inherited_jobserver12HelperThreadE6insertBP_, symObjAddr: 0x4130, symBinAddr: 0x1000376E0, symSize: 0xE0 }
  - { offset: 0x5DEAF, size: 0x8, addend: 0x0, symName: __RNvMNtCsieiGu2EXtoJ_4core6optionINtB2_6OptionRNtNtNtCsHUR1vrdMJt_3std3ffi6os_str5OsStrE17unwrap_or_defaultCseYC8vFNOjrM_2cc, symObjAddr: 0x4210, symBinAddr: 0x1000377C0, symSize: 0x60 }
  - { offset: 0x5DF13, size: 0x8, addend: 0x0, symName: __RNvMNtCsieiGu2EXtoJ_4core6optionINtB2_6OptionRNtNtNtCsHUR1vrdMJt_3std3ffi6os_str5OsStrE6as_refCseYC8vFNOjrM_2cc, symObjAddr: 0x4270, symBinAddr: 0x100037820, symSize: 0x50 }
  - { offset: 0x5DF5D, size: 0x8, addend: 0x0, symName: __RNvMNtCsieiGu2EXtoJ_4core6optionINtB2_6OptionReE2orCseYC8vFNOjrM_2cc, symObjAddr: 0x42C0, symBinAddr: 0x100037870, symSize: 0x80 }
  - { offset: 0x5DFC3, size: 0x8, addend: 0x0, symName: __RNvMNtCsieiGu2EXtoJ_4core6optionINtB2_6OptionReE4takeCseYC8vFNOjrM_2cc, symObjAddr: 0x4340, symBinAddr: 0x1000378F0, symSize: 0x20 }
  - { offset: 0x5E036, size: 0x8, addend: 0x0, symName: __RNvMNtCsieiGu2EXtoJ_4core6optionINtB2_6OptionReE7is_noneCseYC8vFNOjrM_2cc, symObjAddr: 0x4360, symBinAddr: 0x100037910, symSize: 0x30 }
  - { offset: 0x5E080, size: 0x8, addend: 0x0, symName: __RNvMNtCsieiGu2EXtoJ_4core6optionINtB2_6OptionReE9unwrap_orCseYC8vFNOjrM_2cc, symObjAddr: 0x4390, symBinAddr: 0x100037940, symSize: 0x70 }
  - { offset: 0x5E0E6, size: 0x8, addend: 0x0, symName: __RNvMNtCsieiGu2EXtoJ_4core6optionINtB2_6OptionTNtNtCsHUR1vrdMJt_3std7process11ChildStderrINtNtCslJiobkLta79_5alloc3vec3VechEEE4takeCseYC8vFNOjrM_2cc, symObjAddr: 0x4400, symBinAddr: 0x1000379B0, symSize: 0x60 }
  - { offset: 0x5E13D, size: 0x8, addend: 0x0, symName: __RNvMNtCsieiGu2EXtoJ_4core6optionINtB2_6OptionTNtNtCsHUR1vrdMJt_3std7process11ChildStderrINtNtCslJiobkLta79_5alloc3vec3VechEEE6as_mutCseYC8vFNOjrM_2cc, symObjAddr: 0x4460, symBinAddr: 0x100037A10, symSize: 0x50 }
  - { offset: 0x5E1A1, size: 0x8, addend: 0x0, symName: __RNvMNtCsieiGu2EXtoJ_4core6optionINtB2_6OptionTNtNtCsHUR1vrdMJt_3std7process11ChildStderrINtNtCslJiobkLta79_5alloc3vec3VechEEE6as_refCseYC8vFNOjrM_2cc, symObjAddr: 0x44B0, symBinAddr: 0x100037A60, symSize: 0x50 }
  - { offset: 0x5E214, size: 0x8, addend: 0x0, symName: __RNvMNtCsieiGu2EXtoJ_4core6optionINtB2_6OptionbE7is_noneCseYC8vFNOjrM_2cc, symObjAddr: 0x4500, symBinAddr: 0x100037AB0, symSize: 0x30 }
  - { offset: 0x5E25E, size: 0x8, addend: 0x0, symName: __RNvMNtCsieiGu2EXtoJ_4core6optionINtB2_6OptionbE9unwrap_orCseYC8vFNOjrM_2cc, symObjAddr: 0x4530, symBinAddr: 0x100037AE0, symSize: 0x50 }
  - { offset: 0x5E2B7, size: 0x8, addend: 0x0, symName: __RNvMNtCsieiGu2EXtoJ_4core6optionINtB2_6OptionmE9unwrap_orCseYC8vFNOjrM_2cc, symObjAddr: 0x4580, symBinAddr: 0x100037B30, symSize: 0x40 }
  - { offset: 0x5E310, size: 0x8, addend: 0x0, symName: __RNvMNtNtCsHUR1vrdMJt_3std4hash6randomNtB2_11RandomState3newCseYC8vFNOjrM_2cc, symObjAddr: 0x45C0, symBinAddr: 0x100037B70, symSize: 0x20 }
  - { offset: 0x5E323, size: 0x8, addend: 0x0, symName: __RNvMs0_NtCsieiGu2EXtoJ_4core6optionINtB5_6OptionRIBy_INtNtCslJiobkLta79_5alloc4sync3ArcNtNtNtCsHUR1vrdMJt_3std3ffi6os_str5OsStrEEE6clonedCseYC8vFNOjrM_2cc, symObjAddr: 0x4650, symBinAddr: 0x100037B90, symSize: 0x70 }
  - { offset: 0x5E36D, size: 0x8, addend: 0x0, symName: __RNvMs0_NtCsieiGu2EXtoJ_4core6optionINtB5_6OptionRINtNtCslJiobkLta79_5alloc4sync3ArcNtNtNtCsHUR1vrdMJt_3std3ffi6os_str5OsStrEE6clonedCseYC8vFNOjrM_2cc, symObjAddr: 0x46C0, symBinAddr: 0x100037C00, symSize: 0x60 }
  - { offset: 0x5E3B7, size: 0x8, addend: 0x0, symName: __RNvMs0_NtCsieiGu2EXtoJ_4core6optionINtB5_6OptionRINtNtCslJiobkLta79_5alloc4sync3ArceEE6clonedCseYC8vFNOjrM_2cc, symObjAddr: 0x4720, symBinAddr: 0x100037C60, symSize: 0x60 }
  - { offset: 0x5E401, size: 0x8, addend: 0x0, symName: __RNvMs0_NtCsieiGu2EXtoJ_4core6optionINtB5_6OptionRReE6copiedCseYC8vFNOjrM_2cc, symObjAddr: 0x4780, symBinAddr: 0x100037CC0, symSize: 0x60 }
  - { offset: 0x5E458, size: 0x8, addend: 0x0, symName: __RNvMs0_NtCsieiGu2EXtoJ_4core6optionINtB5_6OptionRbE6clonedCseYC8vFNOjrM_2cc, symObjAddr: 0x47E0, symBinAddr: 0x100037D20, symSize: 0x50 }
  - { offset: 0x5E512, size: 0x8, addend: 0x0, symName: __RNvMs0_NtCslJiobkLta79_5alloc7raw_vecINtB5_6RawVecINtNtB7_4sync3ArcNtNtNtCsHUR1vrdMJt_3std3ffi6os_str5OsStrEE8grow_oneCseYC8vFNOjrM_2cc, symObjAddr: 0x4830, symBinAddr: 0x100037D70, symSize: 0x90 }
  - { offset: 0x5E6EB, size: 0x8, addend: 0x0, symName: __RNvMs0_NtCslJiobkLta79_5alloc7raw_vecINtB5_6RawVecINtNtB7_5boxed3BoxNtNtNtCsHUR1vrdMJt_3std3ffi6os_str5OsStrEE8into_boxCseYC8vFNOjrM_2cc, symObjAddr: 0x48C0, symBinAddr: 0x100037E00, symSize: 0x90 }
  - { offset: 0x5E8EB, size: 0x8, addend: 0x0, symName: __RNvMs0_NtCslJiobkLta79_5alloc7raw_vecINtB5_6RawVecNtCseYC8vFNOjrM_2cc6ObjectE8grow_oneBO_, symObjAddr: 0x4950, symBinAddr: 0x100037E90, symSize: 0x90 }
  - { offset: 0x5E99D, size: 0x8, addend: 0x0, symName: __RNvMs0_NtCslJiobkLta79_5alloc7raw_vecINtB5_6RawVecNtNtNtNtCsHUR1vrdMJt_3std4sync4mpmc5waker5EntryE8grow_oneCseYC8vFNOjrM_2cc, symObjAddr: 0x49E0, symBinAddr: 0x100037F20, symSize: 0x90 }
  - { offset: 0x5EA4F, size: 0x8, addend: 0x0, symName: __RNvMs0_NtCslJiobkLta79_5alloc7raw_vecINtB5_6RawVecReE8grow_oneCseYC8vFNOjrM_2cc, symObjAddr: 0x4A70, symBinAddr: 0x100037FB0, symSize: 0x90 }
  - { offset: 0x5EB01, size: 0x8, addend: 0x0, symName: __RNvMs0_NtCslJiobkLta79_5alloc7raw_vecINtB5_6RawVecTNtNtCsHUR1vrdMJt_3std7process7CommandNtNtNtCseYC8vFNOjrM_2cc8parallel14command_runner10KillOnDropNtNtB1s_9job_token8JobTokenEE8grow_oneB1u_, symObjAddr: 0x4B00, symBinAddr: 0x100038040, symSize: 0x90 }
  - { offset: 0x5ECC0, size: 0x8, addend: 0x0, symName: __RNvMs0_NtCslJiobkLta79_5alloc7raw_vecINtB5_6RawVechE8into_boxCseYC8vFNOjrM_2cc, symObjAddr: 0x4B90, symBinAddr: 0x1000380D0, symSize: 0x90 }
  - { offset: 0x5EED0, size: 0x8, addend: 0x0, symName: __RNvMs0_NtNtCsHUR1vrdMJt_3std4hash6randomNtB5_13DefaultHasher3newCseYC8vFNOjrM_2cc, symObjAddr: 0x4C20, symBinAddr: 0x100038160, symSize: 0x110 }
  - { offset: 0x5EFB2, size: 0x8, addend: 0x0, symName: __RNvMs0_NtNtNtCsHUR1vrdMJt_3std4sync4mpmc4zeroINtB5_6PacketINtNtCsieiGu2EXtoJ_4core6result6ResultNtCslzRnRZxZnvp_9jobserver8AcquiredNtNtNtBb_2io5error5ErrorEE10wait_readyCseYC8vFNOjrM_2cc, symObjAddr: 0x4D30, symBinAddr: 0x100038270, symSize: 0x60 }
  - { offset: 0x5F078, size: 0x8, addend: 0x0, symName: __RNvMs1_NtNtNtCsHUR1vrdMJt_3std4sync4mpmc4zeroINtB5_7ChannelINtNtCsieiGu2EXtoJ_4core6result6ResultNtCslzRnRZxZnvp_9jobserver8AcquiredNtNtNtBb_2io5error5ErrorEE10disconnectCseYC8vFNOjrM_2cc, symObjAddr: 0x4D90, symBinAddr: 0x1000382D0, symSize: 0x170 }
  - { offset: 0x5F266, size: 0x8, addend: 0x0, symName: __RNvMs1_NtNtNtCsHUR1vrdMJt_3std4sync4mpmc4zeroINtB5_7ChannelINtNtCsieiGu2EXtoJ_4core6result6ResultNtCslzRnRZxZnvp_9jobserver8AcquiredNtNtNtBb_2io5error5ErrorEE4readCseYC8vFNOjrM_2cc, symObjAddr: 0x4F00, symBinAddr: 0x100038440, symSize: 0x300 }
  - { offset: 0x5F517, size: 0x8, addend: 0x0, symName: __RNvMs1_NtNtNtCsHUR1vrdMJt_3std4sync4mpmc4zeroINtB5_7ChannelINtNtCsieiGu2EXtoJ_4core6result6ResultNtCslzRnRZxZnvp_9jobserver8AcquiredNtNtNtBb_2io5error5ErrorEE4sendCseYC8vFNOjrM_2cc, symObjAddr: 0x5200, symBinAddr: 0x100038740, symSize: 0x4E0 }
  - { offset: 0x5F6F3, size: 0x8, addend: 0x0, symName: __RNvMs1_NtNtNtCsHUR1vrdMJt_3std4sync4mpmc4zeroINtB5_7ChannelINtNtCsieiGu2EXtoJ_4core6result6ResultNtCslzRnRZxZnvp_9jobserver8AcquiredNtNtNtBb_2io5error5ErrorEE5writeCseYC8vFNOjrM_2cc, symObjAddr: 0x56E0, symBinAddr: 0x100038C20, symSize: 0xD0 }
  - { offset: 0x5F867, size: 0x8, addend: 0x0, symName: __RNvMs1_NtNtNtCsHUR1vrdMJt_3std4sync4mpmc4zeroINtB5_7ChannelINtNtCsieiGu2EXtoJ_4core6result6ResultNtCslzRnRZxZnvp_9jobserver8AcquiredNtNtNtBb_2io5error5ErrorEE8try_recvCseYC8vFNOjrM_2cc, symObjAddr: 0x57B0, symBinAddr: 0x100038CF0, symSize: 0x300 }
  - { offset: 0x5FA70, size: 0x8, addend: 0x0, symName: __RNvMs2_NtCslJiobkLta79_5alloc7raw_vecNtB5_11RawVecInner14current_memoryCseYC8vFNOjrM_2cc, symObjAddr: 0x5AB0, symBinAddr: 0x100038FF0, symSize: 0x170 }
  - { offset: 0x5FCD0, size: 0x8, addend: 0x0, symName: __RNvMs2_NtCslJiobkLta79_5alloc7raw_vecNtB5_11RawVecInner16shrink_uncheckedCseYC8vFNOjrM_2cc, symObjAddr: 0x5C20, symBinAddr: 0x100039160, symSize: 0x3E0 }
  - { offset: 0x60079, size: 0x8, addend: 0x0, symName: __RNvMs2_NtCslJiobkLta79_5alloc7raw_vecNtB5_11RawVecInner6shrinkCseYC8vFNOjrM_2cc, symObjAddr: 0x6000, symBinAddr: 0x100039540, symSize: 0xE0 }
  - { offset: 0x60535, size: 0x8, addend: 0x0, symName: __RINvMNtCsieiGu2EXtoJ_4core3stre10split_oncecECseYC8vFNOjrM_2cc, symObjAddr: 0x0, symBinAddr: 0x10003ABE0, symSize: 0x280 }
  - { offset: 0x60D28, size: 0x8, addend: 0x0, symName: __RINvNtNtCseYC8vFNOjrM_2cc8parallel14async_executor8block_onNCNvNtB4_14command_runner24run_commands_in_parallel0NCBX_s_0EB6_, symObjAddr: 0x2770, symBinAddr: 0x10003D2B0, symSize: 0x6A0 }
  - { offset: 0x60F00, size: 0x8, addend: 0x0, symName: __RNCNvNtNtCseYC8vFNOjrM_2cc8parallel14async_executor17NOOP_WAKER_VTABLE0B7_, symObjAddr: 0x3690, symBinAddr: 0x10003DE20, symSize: 0x20 }
  - { offset: 0x60F32, size: 0x8, addend: 0x0, symName: __RNCNvNtNtCseYC8vFNOjrM_2cc8parallel14async_executor17NOOP_WAKER_VTABLEs0_0B7_, symObjAddr: 0x36B0, symBinAddr: 0x10003DE40, symSize: 0x20 }
  - { offset: 0x60F60, size: 0x8, addend: 0x0, symName: __RNCNvNtNtCseYC8vFNOjrM_2cc8parallel14async_executor17NOOP_WAKER_VTABLEs1_0B7_, symObjAddr: 0x36D0, symBinAddr: 0x10003DE60, symSize: 0x20 }
  - { offset: 0x60F8E, size: 0x8, addend: 0x0, symName: __RNCNvNtNtCseYC8vFNOjrM_2cc8parallel14async_executor17NOOP_WAKER_VTABLEs_0B7_, symObjAddr: 0x36F0, symBinAddr: 0x10003DE80, symSize: 0x20 }
  - { offset: 0x60FDE, size: 0x8, addend: 0x0, symName: __RNvXNtNtCseYC8vFNOjrM_2cc8parallel14async_executorNtB2_9YieldOnceNtNtNtCsieiGu2EXtoJ_4core6future6future6Future4poll, symObjAddr: 0x4BE0, symBinAddr: 0x10003F370, symSize: 0x50 }
  - { offset: 0x6103B, size: 0x8, addend: 0x0, symName: __RNvXs_NtNtCseYC8vFNOjrM_2cc8parallel14async_executorNtB4_9YieldOnceNtNtCsieiGu2EXtoJ_4core7default7Default7defaultB8_, symObjAddr: 0x4EA0, symBinAddr: 0x10003F630, symSize: 0x10 }
  - { offset: 0x63A06, size: 0x8, addend: 0x0, symName: __RNcNtINtNtCsieiGu2EXtoJ_4core6result6ResultuINtNtNtB8_3num7nonzero7NonZerojEE3Err0CseYC8vFNOjrM_2cc, symObjAddr: 0x3710, symBinAddr: 0x10003DEA0, symSize: 0x10 }
  - { offset: 0x644A2, size: 0x8, addend: 0x0, symName: __RNvXsp_NtCsieiGu2EXtoJ_4core6resultINtB5_6ResultANtNtCslJiobkLta79_5alloc6string6Stringj4_NtCseYC8vFNOjrM_2cc5ErrorENtNtNtB7_3ops9try_trait3Try6branchB1s_, symObjAddr: 0x5580, symBinAddr: 0x10003FD10, symSize: 0x100 }
  - { offset: 0x64520, size: 0x8, addend: 0x0, symName: __RNvXsp_NtCsieiGu2EXtoJ_4core6resultINtB5_6ResultINtNtB7_6option6OptionINtNtCslJiobkLta79_5alloc3vec3VecNtNtB1b_6string6StringEENtCseYC8vFNOjrM_2cc5ErrorENtNtNtB7_3ops9try_trait3Try6branchB23_, symObjAddr: 0x5680, symBinAddr: 0x10003FE10, symSize: 0xF0 }
  - { offset: 0x6459E, size: 0x8, addend: 0x0, symName: __RNvXsp_NtCsieiGu2EXtoJ_4core6resultINtB5_6ResultINtNtB7_6option6OptionINtNtCslJiobkLta79_5alloc6borrow3CowNtNtCsHUR1vrdMJt_3std4path4PathEENtCseYC8vFNOjrM_2cc5ErrorENtNtNtB7_3ops9try_trait3Try6branchB2f_, symObjAddr: 0x5770, symBinAddr: 0x10003FF00, symSize: 0xF0 }
  - { offset: 0x6461C, size: 0x8, addend: 0x0, symName: __RNvXsp_NtCsieiGu2EXtoJ_4core6resultINtB5_6ResultINtNtB7_6option6OptionReENtCseYC8vFNOjrM_2cc5ErrorENtNtNtB7_3ops9try_trait3Try6branchB1b_, symObjAddr: 0x5860, symBinAddr: 0x10003FFF0, symSize: 0xD0 }
  - { offset: 0x6469A, size: 0x8, addend: 0x0, symName: __RNvXsp_NtCsieiGu2EXtoJ_4core6resultINtB5_6ResultINtNtB7_6option6OptionmENtCseYC8vFNOjrM_2cc5ErrorENtNtNtB7_3ops9try_trait3Try6branchB1a_, symObjAddr: 0x5930, symBinAddr: 0x1000400C0, symSize: 0xD0 }
  - { offset: 0x64718, size: 0x8, addend: 0x0, symName: __RNvXsp_NtCsieiGu2EXtoJ_4core6resultINtB5_6ResultINtNtCslJiobkLta79_5alloc3vec3VecNtCseYC8vFNOjrM_2cc6ObjectENtB1j_5ErrorENtNtNtB7_3ops9try_trait3Try6branchB1j_, symObjAddr: 0x5A00, symBinAddr: 0x100040190, symSize: 0xF0 }
  - { offset: 0x64796, size: 0x8, addend: 0x0, symName: __RNvXsp_NtCsieiGu2EXtoJ_4core6resultINtB5_6ResultINtNtCslJiobkLta79_5alloc3vec3VechENtCseYC8vFNOjrM_2cc5ErrorENtNtNtB7_3ops9try_trait3Try6branchB1l_, symObjAddr: 0x5BE0, symBinAddr: 0x100040280, symSize: 0xF0 }
  - { offset: 0x64814, size: 0x8, addend: 0x0, symName: __RNvXsp_NtCsieiGu2EXtoJ_4core6resultINtB5_6ResultINtNtCslJiobkLta79_5alloc4sync3ArcNtNtNtCsHUR1vrdMJt_3std3ffi6os_str5OsStrENtCseYC8vFNOjrM_2cc5ErrorENtNtNtB7_3ops9try_trait3Try6branchB1Z_, symObjAddr: 0x5CD0, symBinAddr: 0x100040370, symSize: 0xD0 }
  - { offset: 0x64892, size: 0x8, addend: 0x0, symName: __RNvXsp_NtCsieiGu2EXtoJ_4core6resultINtB5_6ResultINtNtCslJiobkLta79_5alloc5boxed3BoxeENtCseYC8vFNOjrM_2cc5ErrorENtNtNtB7_3ops9try_trait3Try6branchB1n_, symObjAddr: 0x5DA0, symBinAddr: 0x100040440, symSize: 0xD0 }
  - { offset: 0x64910, size: 0x8, addend: 0x0, symName: __RNvXsp_NtCsieiGu2EXtoJ_4core6resultINtB5_6ResultINtNtCslJiobkLta79_5alloc6borrow3CowNtNtCsHUR1vrdMJt_3std4path4PathENtCseYC8vFNOjrM_2cc5ErrorENtNtNtB7_3ops9try_trait3Try6branchB1S_, symObjAddr: 0x5E70, symBinAddr: 0x100040510, symSize: 0xF0 }
  - { offset: 0x6498E, size: 0x8, addend: 0x0, symName: __RNvXsp_NtCsieiGu2EXtoJ_4core6resultINtB5_6ResultINtNtCslJiobkLta79_5alloc6borrow3CoweENtCseYC8vFNOjrM_2cc5ErrorENtNtNtB7_3ops9try_trait3Try6branchB1o_, symObjAddr: 0x5F60, symBinAddr: 0x100040600, symSize: 0xF0 }
  - { offset: 0x64A0C, size: 0x8, addend: 0x0, symName: __RNvXsp_NtCsieiGu2EXtoJ_4core6resultINtB5_6ResultNtCslzRnRZxZnvp_9jobserver12HelperThreadNtNtNtCsHUR1vrdMJt_3std2io5error5ErrorENtNtNtB7_3ops9try_trait3Try6branchCseYC8vFNOjrM_2cc, symObjAddr: 0x60A0, symBinAddr: 0x1000406F0, symSize: 0x80 }
  - { offset: 0x64A89, size: 0x8, addend: 0x0, symName: __RNvXsp_NtCsieiGu2EXtoJ_4core6resultINtB5_6ResultNtCslzRnRZxZnvp_9jobserver8AcquiredNtNtNtCsHUR1vrdMJt_3std2io5error5ErrorENtNtNtB7_3ops9try_trait3Try6branchCseYC8vFNOjrM_2cc, symObjAddr: 0x6120, symBinAddr: 0x100040770, symSize: 0x70 }
  - { offset: 0x64B06, size: 0x8, addend: 0x0, symName: __RNvXsp_NtCsieiGu2EXtoJ_4core6resultINtB5_6ResultNtNtCsHUR1vrdMJt_3std2fs4FileNtNtNtBO_2io5error5ErrorENtNtNtB7_3ops9try_trait3Try6branchCseYC8vFNOjrM_2cc, symObjAddr: 0x6190, symBinAddr: 0x1000407E0, symSize: 0x60 }
  - { offset: 0x64B83, size: 0x8, addend: 0x0, symName: __RNvXsp_NtCsieiGu2EXtoJ_4core6resultINtB5_6ResultNtNtCsHUR1vrdMJt_3std4path7PathBufNtCseYC8vFNOjrM_2cc5ErrorENtNtNtB7_3ops9try_trait3Try6branchB1k_, symObjAddr: 0x61F0, symBinAddr: 0x100040840, symSize: 0xF0 }
  - { offset: 0x64C01, size: 0x8, addend: 0x0, symName: __RNvXsp_NtCsieiGu2EXtoJ_4core6resultINtB5_6ResultNtNtCsHUR1vrdMJt_3std7process5ChildNtCseYC8vFNOjrM_2cc5ErrorENtNtNtB7_3ops9try_trait3Try6branchB1l_, symObjAddr: 0x62E0, symBinAddr: 0x100040930, symSize: 0xF0 }
  - { offset: 0x64C7F, size: 0x8, addend: 0x0, symName: __RNvXsp_NtCsieiGu2EXtoJ_4core6resultINtB5_6ResultNtNtCsHUR1vrdMJt_3std7process6OutputNtCseYC8vFNOjrM_2cc5ErrorENtNtNtB7_3ops9try_trait3Try6branchB1m_, symObjAddr: 0x63D0, symBinAddr: 0x100040A20, symSize: 0x100 }
  - { offset: 0x64CFD, size: 0x8, addend: 0x0, symName: __RNvXsp_NtCsieiGu2EXtoJ_4core6resultINtB5_6ResultNtNtCsHUR1vrdMJt_3std7process6OutputNtNtNtBO_2io5error5ErrorENtNtNtB7_3ops9try_trait3Try6branchCseYC8vFNOjrM_2cc, symObjAddr: 0x64D0, symBinAddr: 0x100040B20, symSize: 0x90 }
  - { offset: 0x64D7A, size: 0x8, addend: 0x0, symName: __RNvXsp_NtCsieiGu2EXtoJ_4core6resultINtB5_6ResultNtNtCsHUR1vrdMJt_3std7process7CommandNtCseYC8vFNOjrM_2cc5ErrorENtNtNtB7_3ops9try_trait3Try6branchB1n_, symObjAddr: 0x6560, symBinAddr: 0x100040BB0, symSize: 0x100 }
  - { offset: 0x64DF8, size: 0x8, addend: 0x0, symName: __RNvXsp_NtCsieiGu2EXtoJ_4core6resultINtB5_6ResultNtNtCseYC8vFNOjrM_2cc4tool10ToolFamilyNtBO_5ErrorENtNtNtB7_3ops9try_trait3Try6branchBO_, symObjAddr: 0x6660, symBinAddr: 0x100040CB0, symSize: 0xD0 }
  - { offset: 0x64E76, size: 0x8, addend: 0x0, symName: __RNvXsp_NtCsieiGu2EXtoJ_4core6resultINtB5_6ResultNtNtCseYC8vFNOjrM_2cc4tool4ToolNtBO_5ErrorENtNtNtB7_3ops9try_trait3Try6branchBO_, symObjAddr: 0x6730, symBinAddr: 0x100040D80, symSize: 0x100 }
  - { offset: 0x64EF4, size: 0x8, addend: 0x0, symName: __RNvXsp_NtCsieiGu2EXtoJ_4core6resultINtB5_6ResultNtNtCseYC8vFNOjrM_2cc5flags17RustcCodegenFlagsNtBO_5ErrorENtNtNtB7_3ops9try_trait3Try6branchBO_, symObjAddr: 0x6830, symBinAddr: 0x100040E80, symSize: 0xF0 }
  - { offset: 0x64F72, size: 0x8, addend: 0x0, symName: __RNvXsp_NtCsieiGu2EXtoJ_4core6resultINtB5_6ResultNtNtCseYC8vFNOjrM_2cc6target10TargetInfoNtBO_5ErrorENtNtNtB7_3ops9try_trait3Try6branchBO_, symObjAddr: 0x6920, symBinAddr: 0x100040F70, symSize: 0x100 }
  - { offset: 0x64FF0, size: 0x8, addend: 0x0, symName: __RNvXsp_NtCsieiGu2EXtoJ_4core6resultINtB5_6ResultNtNtCseYC8vFNOjrM_2cc8tempfile13NamedTempfileNtBO_5ErrorENtNtNtB7_3ops9try_trait3Try6branchBO_, symObjAddr: 0x6A20, symBinAddr: 0x100041070, symSize: 0xE0 }
  - { offset: 0x6506E, size: 0x8, addend: 0x0, symName: __RNvXsp_NtCsieiGu2EXtoJ_4core6resultINtB5_6ResultNtNtCslJiobkLta79_5alloc6string6StringNtCseYC8vFNOjrM_2cc5ErrorENtNtNtB7_3ops9try_trait3Try6branchB1o_, symObjAddr: 0x6B00, symBinAddr: 0x100041150, symSize: 0xF0 }
  - { offset: 0x650EC, size: 0x8, addend: 0x0, symName: __RNvXsp_NtCsieiGu2EXtoJ_4core6resultINtB5_6ResultNtNtCslzRnRZxZnvp_9jobserver3imp6HelperNtNtNtCsHUR1vrdMJt_3std2io5error5ErrorENtNtNtB7_3ops9try_trait3Try6branchCseYC8vFNOjrM_2cc, symObjAddr: 0x6BF0, symBinAddr: 0x100041240, symSize: 0xA0 }
  - { offset: 0x65169, size: 0x8, addend: 0x0, symName: __RNvXsp_NtCsieiGu2EXtoJ_4core6resultINtB5_6ResultNtNtNtCseYC8vFNOjrM_2cc8parallel9job_token8JobTokenNtBQ_5ErrorENtNtNtB7_3ops9try_trait3Try6branchBQ_, symObjAddr: 0x6C90, symBinAddr: 0x1000412E0, symSize: 0xB0 }
  - { offset: 0x651E7, size: 0x8, addend: 0x0, symName: __RNvXsp_NtCsieiGu2EXtoJ_4core6resultINtB5_6ResultNtNtNtNtCseYC8vFNOjrM_2cc8parallel9job_token19inherited_jobserver12HelperThreadNtBS_5ErrorENtNtNtB7_3ops9try_trait3Try6branchBS_, symObjAddr: 0x6D40, symBinAddr: 0x100041390, symSize: 0xF0 }
  - { offset: 0x65265, size: 0x8, addend: 0x0, symName: __RNvXsp_NtCsieiGu2EXtoJ_4core6resultINtB5_6ResultRNtNtCsHUR1vrdMJt_3std4path4PathNtCseYC8vFNOjrM_2cc5ErrorENtNtNtB7_3ops9try_trait3Try6branchB1i_, symObjAddr: 0x6E30, symBinAddr: 0x100041480, symSize: 0xD0 }
  - { offset: 0x652E3, size: 0x8, addend: 0x0, symName: __RNvXsp_NtCsieiGu2EXtoJ_4core6resultINtB5_6ResultRNtNtNtCsHUR1vrdMJt_3std3ffi6os_str5OsStrNtCseYC8vFNOjrM_2cc5ErrorENtNtNtB7_3ops9try_trait3Try6branchB1r_, symObjAddr: 0x6F00, symBinAddr: 0x100041550, symSize: 0xD0 }
  - { offset: 0x65361, size: 0x8, addend: 0x0, symName: __RNvXsp_NtCsieiGu2EXtoJ_4core6resultINtB5_6ResultReNtCseYC8vFNOjrM_2cc5ErrorENtNtNtB7_3ops9try_trait3Try6branchBO_, symObjAddr: 0x6FD0, symBinAddr: 0x100041620, symSize: 0xD0 }
  - { offset: 0x653DF, size: 0x8, addend: 0x0, symName: __RNvXsp_NtCsieiGu2EXtoJ_4core6resultINtB5_6ResultTNtNtCsHUR1vrdMJt_3std7process7CommandNtNtBP_4path7PathBufENtCseYC8vFNOjrM_2cc5ErrorENtNtNtB7_3ops9try_trait3Try6branchB1J_, symObjAddr: 0x70A0, symBinAddr: 0x1000416F0, symSize: 0x100 }
  - { offset: 0x6545D, size: 0x8, addend: 0x0, symName: __RNvXsp_NtCsieiGu2EXtoJ_4core6resultINtB5_6ResultTNtNtCsHUR1vrdMJt_3std7process7CommandNtNtBP_4path7PathBufbENtCseYC8vFNOjrM_2cc5ErrorENtNtNtB7_3ops9try_trait3Try6branchB1K_, symObjAddr: 0x71A0, symBinAddr: 0x1000417F0, symSize: 0x100 }
  - { offset: 0x654DB, size: 0x8, addend: 0x0, symName: __RNvXsp_NtCsieiGu2EXtoJ_4core6resultINtB5_6ResultTReBL_ENtCseYC8vFNOjrM_2cc5ErrorENtNtNtB7_3ops9try_trait3Try6branchBT_, symObjAddr: 0x72A0, symBinAddr: 0x1000418F0, symSize: 0xE0 }
  - { offset: 0x65559, size: 0x8, addend: 0x0, symName: __RNvXsp_NtCsieiGu2EXtoJ_4core6resultINtB5_6ResultbNtCseYC8vFNOjrM_2cc5ErrorENtNtNtB7_3ops9try_trait3Try6branchBN_, symObjAddr: 0x7380, symBinAddr: 0x1000419D0, symSize: 0xD0 }
  - { offset: 0x655D7, size: 0x8, addend: 0x0, symName: __RNvXsp_NtCsieiGu2EXtoJ_4core6resultINtB5_6ResultlNtCseYC8vFNOjrM_2cc5ErrorENtNtNtB7_3ops9try_trait3Try6branchBN_, symObjAddr: 0x7450, symBinAddr: 0x100041AA0, symSize: 0xC0 }
  - { offset: 0x65655, size: 0x8, addend: 0x0, symName: __RNvXsp_NtCsieiGu2EXtoJ_4core6resultINtB5_6ResultuNtCseYC8vFNOjrM_2cc5ErrorENtNtNtB7_3ops9try_trait3Try6branchBN_, symObjAddr: 0x7510, symBinAddr: 0x100041B60, symSize: 0xB0 }
  - { offset: 0x656D3, size: 0x8, addend: 0x0, symName: __RNvXsp_NtCsieiGu2EXtoJ_4core6resultINtB5_6ResultuNtNtB7_3fmt5ErrorENtNtNtB7_3ops9try_trait3Try6branchCseYC8vFNOjrM_2cc, symObjAddr: 0x75C0, symBinAddr: 0x100041C10, symSize: 0x30 }
  - { offset: 0x65755, size: 0x8, addend: 0x0, symName: __RNvXsq_NtCsieiGu2EXtoJ_4core6resultINtB5_6ResultANtNtCslJiobkLta79_5alloc6string6Stringj4_NtCseYC8vFNOjrM_2cc5ErrorEINtNtNtB7_3ops9try_trait12FromResidualIBy_NtNtB7_7convert10InfallibleB1q_EE13from_residualB1s_, symObjAddr: 0x75F0, symBinAddr: 0x100041C40, symSize: 0x80 }
  - { offset: 0x657DA, size: 0x8, addend: 0x0, symName: __RNvXsq_NtCsieiGu2EXtoJ_4core6resultINtB5_6ResultINtNtB7_6option6OptionINtNtCslJiobkLta79_5alloc3vec3VecNtNtB1b_6string6StringEENtCseYC8vFNOjrM_2cc5ErrorEINtNtNtB7_3ops9try_trait12FromResidualIBy_NtNtB7_7convert10InfallibleB21_EE13from_residualB23_, symObjAddr: 0x7670, symBinAddr: 0x100041CC0, symSize: 0x70 }
  - { offset: 0x6585F, size: 0x8, addend: 0x0, symName: __RNvXsq_NtCsieiGu2EXtoJ_4core6resultINtB5_6ResultINtNtB7_6option6OptionINtNtCslJiobkLta79_5alloc6borrow3CowNtNtCsHUR1vrdMJt_3std4path4PathEENtCseYC8vFNOjrM_2cc5ErrorEINtNtNtB7_3ops9try_trait12FromResidualIBy_NtNtB7_7convert10InfallibleB2d_EE13from_residualB2f_, symObjAddr: 0x76E0, symBinAddr: 0x100041D30, symSize: 0x70 }
  - { offset: 0x658E4, size: 0x8, addend: 0x0, symName: __RNvXsq_NtCsieiGu2EXtoJ_4core6resultINtB5_6ResultINtNtCslJiobkLta79_5alloc3vec3VecNtCseYC8vFNOjrM_2cc6ObjectENtB1j_5ErrorEINtNtNtB7_3ops9try_trait12FromResidualIBy_NtNtB7_7convert10InfallibleB1I_EE13from_residualB1j_, symObjAddr: 0x7750, symBinAddr: 0x100041DA0, symSize: 0x70 }
  - { offset: 0x65969, size: 0x8, addend: 0x0, symName: __RNvXsq_NtCsieiGu2EXtoJ_4core6resultINtB5_6ResultINtNtCslJiobkLta79_5alloc3vec3VecNtCseYC8vFNOjrM_2cc6ObjectENtB1j_5ErrorEINtNtNtB7_3ops9try_trait12FromResidualIBy_NtNtB7_7convert10InfallibleNtNtNtCsHUR1vrdMJt_3std2io5error5ErrorEE13from_residualB1j_, symObjAddr: 0x77C0, symBinAddr: 0x100041E10, symSize: 0x50 }
  - { offset: 0x659D0, size: 0x8, addend: 0x0, symName: __RNvXsq_NtCsieiGu2EXtoJ_4core6resultINtB5_6ResultINtNtCslJiobkLta79_5alloc3vec3VechENtCseYC8vFNOjrM_2cc5ErrorEINtNtNtB7_3ops9try_trait12FromResidualIBy_NtNtB7_7convert10InfallibleB1j_EE13from_residualB1l_, symObjAddr: 0x7880, symBinAddr: 0x100041E60, symSize: 0x70 }
  - { offset: 0x65A55, size: 0x8, addend: 0x0, symName: __RNvXsq_NtCsieiGu2EXtoJ_4core6resultINtB5_6ResultINtNtCslJiobkLta79_5alloc4sync3ArcNtNtNtCsHUR1vrdMJt_3std3ffi6os_str5OsStrENtCseYC8vFNOjrM_2cc5ErrorEINtNtNtB7_3ops9try_trait12FromResidualIBy_NtNtB7_7convert10InfallibleB1X_EE13from_residualB1Z_, symObjAddr: 0x78F0, symBinAddr: 0x100041ED0, symSize: 0x70 }
  - { offset: 0x65ADA, size: 0x8, addend: 0x0, symName: __RNvXsq_NtCsieiGu2EXtoJ_4core6resultINtB5_6ResultNtCslzRnRZxZnvp_9jobserver12HelperThreadNtNtNtCsHUR1vrdMJt_3std2io5error5ErrorEINtNtNtB7_3ops9try_trait12FromResidualIBy_NtNtB7_7convert10InfallibleB1o_EE13from_residualCseYC8vFNOjrM_2cc, symObjAddr: 0x7970, symBinAddr: 0x100041F40, symSize: 0x20 }
  - { offset: 0x65B41, size: 0x8, addend: 0x0, symName: __RNvXsq_NtCsieiGu2EXtoJ_4core6resultINtB5_6ResultNtNtCsHUR1vrdMJt_3std4path7PathBufNtCseYC8vFNOjrM_2cc5ErrorEINtNtNtB7_3ops9try_trait12FromResidualIBy_NtNtB7_7convert10InfallibleB1i_EE13from_residualB1k_, symObjAddr: 0x7990, symBinAddr: 0x100041F60, symSize: 0x70 }
  - { offset: 0x65BC6, size: 0x8, addend: 0x0, symName: __RNvXsq_NtCsieiGu2EXtoJ_4core6resultINtB5_6ResultNtNtCsHUR1vrdMJt_3std4path7PathBufNtCseYC8vFNOjrM_2cc5ErrorEINtNtNtB7_3ops9try_trait12FromResidualIBy_NtNtB7_7convert10InfallibleNtNtNtBO_2io5error5ErrorEE13from_residualB1k_, symObjAddr: 0x7A00, symBinAddr: 0x100041FD0, symSize: 0x50 }
  - { offset: 0x65C2D, size: 0x8, addend: 0x0, symName: __RNvXsq_NtCsieiGu2EXtoJ_4core6resultINtB5_6ResultNtNtCsHUR1vrdMJt_3std7process6OutputNtCseYC8vFNOjrM_2cc5ErrorEINtNtNtB7_3ops9try_trait12FromResidualIBy_NtNtB7_7convert10InfallibleB1k_EE13from_residualB1m_, symObjAddr: 0x7A50, symBinAddr: 0x100042020, symSize: 0x80 }
  - { offset: 0x65CB2, size: 0x8, addend: 0x0, symName: __RNvXsq_NtCsieiGu2EXtoJ_4core6resultINtB5_6ResultNtNtCsHUR1vrdMJt_3std7process7CommandNtCseYC8vFNOjrM_2cc5ErrorEINtNtNtB7_3ops9try_trait12FromResidualIBy_NtNtB7_7convert10InfallibleB1l_EE13from_residualB1n_, symObjAddr: 0x7AD0, symBinAddr: 0x1000420A0, symSize: 0x80 }
  - { offset: 0x65D37, size: 0x8, addend: 0x0, symName: __RNvXsq_NtCsieiGu2EXtoJ_4core6resultINtB5_6ResultNtNtCseYC8vFNOjrM_2cc4tool10ToolFamilyNtBO_5ErrorEINtNtNtB7_3ops9try_trait12FromResidualIBy_NtNtB7_7convert10InfallibleB1m_EE13from_residualBO_, symObjAddr: 0x7B50, symBinAddr: 0x100042120, symSize: 0x70 }
  - { offset: 0x65DBC, size: 0x8, addend: 0x0, symName: __RNvXsq_NtCsieiGu2EXtoJ_4core6resultINtB5_6ResultNtNtCseYC8vFNOjrM_2cc4tool10ToolFamilyNtBO_5ErrorEINtNtNtB7_3ops9try_trait12FromResidualIBy_NtNtB7_7convert10InfallibleNtNtNtCsHUR1vrdMJt_3std2io5error5ErrorEE13from_residualBO_, symObjAddr: 0x7BC0, symBinAddr: 0x100042190, symSize: 0x50 }
  - { offset: 0x65E23, size: 0x8, addend: 0x0, symName: __RNvXsq_NtCsieiGu2EXtoJ_4core6resultINtB5_6ResultNtNtCseYC8vFNOjrM_2cc4tool4ToolNtBO_5ErrorEINtNtNtB7_3ops9try_trait12FromResidualIBy_NtNtB7_7convert10InfallibleB1f_EE13from_residualBO_, symObjAddr: 0x7C10, symBinAddr: 0x1000421E0, symSize: 0x80 }
  - { offset: 0x65EA8, size: 0x8, addend: 0x0, symName: __RNvXsq_NtCsieiGu2EXtoJ_4core6resultINtB5_6ResultNtNtCseYC8vFNOjrM_2cc5flags17RustcCodegenFlagsNtBO_5ErrorEINtNtNtB7_3ops9try_trait12FromResidualIBy_NtNtB7_7convert10InfallibleB1u_EE13from_residualBO_, symObjAddr: 0x7C90, symBinAddr: 0x100042260, symSize: 0x70 }
  - { offset: 0x65F2D, size: 0x8, addend: 0x0, symName: __RNvXsq_NtCsieiGu2EXtoJ_4core6resultINtB5_6ResultNtNtCseYC8vFNOjrM_2cc6target10TargetInfoNtBO_5ErrorEINtNtNtB7_3ops9try_trait12FromResidualIBy_NtNtB7_7convert10InfallibleB1o_EE13from_residualBO_, symObjAddr: 0x7D00, symBinAddr: 0x1000422D0, symSize: 0x70 }
  - { offset: 0x65FB2, size: 0x8, addend: 0x0, symName: __RNvXsq_NtCsieiGu2EXtoJ_4core6resultINtB5_6ResultNtNtCslJiobkLta79_5alloc6string6StringNtCseYC8vFNOjrM_2cc5ErrorEINtNtNtB7_3ops9try_trait12FromResidualIBy_NtNtB7_7convert10InfallibleB1m_EE13from_residualB1o_, symObjAddr: 0x7D70, symBinAddr: 0x100042340, symSize: 0x70 }
  - { offset: 0x66037, size: 0x8, addend: 0x0, symName: __RNvXsq_NtCsieiGu2EXtoJ_4core6resultINtB5_6ResultNtNtNtCseYC8vFNOjrM_2cc6target6parser21TargetInfoParserInnerNtBQ_5ErrorEINtNtNtB7_3ops9try_trait12FromResidualIBy_NtNtB7_7convert10InfallibleB1I_EE13from_residualBQ_, symObjAddr: 0x7DE0, symBinAddr: 0x1000423B0, symSize: 0x70 }
  - { offset: 0x660BC, size: 0x8, addend: 0x0, symName: __RNvXsq_NtCsieiGu2EXtoJ_4core6resultINtB5_6ResultNtNtNtCseYC8vFNOjrM_2cc8parallel9job_token8JobTokenNtBQ_5ErrorEINtNtNtB7_3ops9try_trait12FromResidualIBy_NtNtB7_7convert10InfallibleB1z_EE13from_residualBQ_, symObjAddr: 0x7E50, symBinAddr: 0x100042420, symSize: 0x70 }
  - { offset: 0x66141, size: 0x8, addend: 0x0, symName: __RNvXsq_NtCsieiGu2EXtoJ_4core6resultINtB5_6ResultNtNtNtCseYC8vFNOjrM_2cc8parallel9job_token8JobTokenNtBQ_5ErrorEINtNtNtB7_3ops9try_trait12FromResidualIBy_NtNtB7_7convert10InfallibleNtNtNtCsHUR1vrdMJt_3std2io5error5ErrorEE13from_residualBQ_, symObjAddr: 0x7EC0, symBinAddr: 0x100042490, symSize: 0x50 }
  - { offset: 0x661A8, size: 0x8, addend: 0x0, symName: __RNvXsq_NtCsieiGu2EXtoJ_4core6resultINtB5_6ResultNtNtNtNtCseYC8vFNOjrM_2cc8parallel9job_token19inherited_jobserver12HelperThreadNtBS_5ErrorEINtNtNtB7_3ops9try_trait12FromResidualIBy_NtNtB7_7convert10InfallibleNtNtNtCsHUR1vrdMJt_3std2io5error5ErrorEE13from_residualBS_, symObjAddr: 0x7F10, symBinAddr: 0x1000424E0, symSize: 0x60 }
  - { offset: 0x6620F, size: 0x8, addend: 0x0, symName: __RNvXsq_NtCsieiGu2EXtoJ_4core6resultINtB5_6ResultTNtNtCsHUR1vrdMJt_3std7process7CommandNtNtBP_4path7PathBufENtCseYC8vFNOjrM_2cc5ErrorEINtNtNtB7_3ops9try_trait12FromResidualIBy_NtNtB7_7convert10InfallibleB1H_EE13from_residualB1J_, symObjAddr: 0x7FE0, symBinAddr: 0x100042540, symSize: 0x80 }
  - { offset: 0x66294, size: 0x8, addend: 0x0, symName: __RNvXsq_NtCsieiGu2EXtoJ_4core6resultINtB5_6ResultTNtNtCsHUR1vrdMJt_3std7process7CommandNtNtBP_4path7PathBufbENtCseYC8vFNOjrM_2cc5ErrorEINtNtNtB7_3ops9try_trait12FromResidualIBy_NtNtB7_7convert10InfallibleB1I_EE13from_residualB1K_, symObjAddr: 0x8060, symBinAddr: 0x1000425C0, symSize: 0x80 }
  - { offset: 0x66319, size: 0x8, addend: 0x0, symName: __RNvXsq_NtCsieiGu2EXtoJ_4core6resultINtB5_6ResultbNtCseYC8vFNOjrM_2cc5ErrorEINtNtNtB7_3ops9try_trait12FromResidualIBy_NtNtB7_7convert10InfallibleBL_EE13from_residualBN_, symObjAddr: 0x80E0, symBinAddr: 0x100042640, symSize: 0x70 }
  - { offset: 0x6639E, size: 0x8, addend: 0x0, symName: __RNvXsq_NtCsieiGu2EXtoJ_4core6resultINtB5_6ResultbNtCseYC8vFNOjrM_2cc5ErrorEINtNtNtB7_3ops9try_trait12FromResidualIBy_NtNtB7_7convert10InfallibleNtNtNtCsHUR1vrdMJt_3std2io5error5ErrorEE13from_residualBN_, symObjAddr: 0x8150, symBinAddr: 0x1000426B0, symSize: 0x50 }
  - { offset: 0x66405, size: 0x8, addend: 0x0, symName: __RNvXsq_NtCsieiGu2EXtoJ_4core6resultINtB5_6ResultuNtCseYC8vFNOjrM_2cc5ErrorEINtNtNtB7_3ops9try_trait12FromResidualIBy_NtNtB7_7convert10InfallibleBL_EE13from_residualBN_, symObjAddr: 0x81A0, symBinAddr: 0x100042700, symSize: 0x70 }
  - { offset: 0x6648A, size: 0x8, addend: 0x0, symName: __RNvXsq_NtCsieiGu2EXtoJ_4core6resultINtB5_6ResultuNtNtB7_3fmt5ErrorEINtNtNtB7_3ops9try_trait12FromResidualIBy_NtNtB7_7convert10InfallibleBL_EE13from_residualCseYC8vFNOjrM_2cc, symObjAddr: 0x8210, symBinAddr: 0x100042770, symSize: 0x10 }
  - { offset: 0x67276, size: 0x8, addend: 0x0, symName: __RNvNvMsd_NtNtCsieiGu2EXtoJ_4core3num7nonzeroINtB7_7NonZeropE13new_unchecked18precondition_checkCseYC8vFNOjrM_2cc, symObjAddr: 0x4B60, symBinAddr: 0x10003F2F0, symSize: 0x80 }
  - { offset: 0x6A4BB, size: 0x8, addend: 0x0, symName: __RINvMNtCsieiGu2EXtoJ_4core3stre10split_oncecECseYC8vFNOjrM_2cc, symObjAddr: 0x0, symBinAddr: 0x10003ABE0, symSize: 0x280 }
  - { offset: 0x6A7B1, size: 0x8, addend: 0x0, symName: __RINvMNtCsieiGu2EXtoJ_4core3stre11starts_withReECseYC8vFNOjrM_2cc, symObjAddr: 0x280, symBinAddr: 0x10003AE60, symSize: 0x40 }
  - { offset: 0x6A7F7, size: 0x8, addend: 0x0, symName: __RINvMNtCsieiGu2EXtoJ_4core3stre11starts_withcECseYC8vFNOjrM_2cc, symObjAddr: 0x2C0, symBinAddr: 0x10003AEA0, symSize: 0x30 }
  - { offset: 0x6A83D, size: 0x8, addend: 0x0, symName: __RINvMNtCsieiGu2EXtoJ_4core3stre12strip_prefixReECseYC8vFNOjrM_2cc, symObjAddr: 0x2F0, symBinAddr: 0x10003AED0, symSize: 0x40 }
  - { offset: 0x6A883, size: 0x8, addend: 0x0, symName: __RINvMNtCsieiGu2EXtoJ_4core3stre12strip_suffixReECseYC8vFNOjrM_2cc, symObjAddr: 0x330, symBinAddr: 0x10003AF10, symSize: 0x40 }
  - { offset: 0x6A8FD, size: 0x8, addend: 0x0, symName: __RINvMNtCsieiGu2EXtoJ_4core3stre12trim_matchesNvMNtNtB5_4char7methodsc13is_whitespaceECseYC8vFNOjrM_2cc, symObjAddr: 0x370, symBinAddr: 0x10003AF50, symSize: 0x180 }
  - { offset: 0x6AAD4, size: 0x8, addend: 0x0, symName: __RINvMNtCsieiGu2EXtoJ_4core3stre16trim_end_matchescECseYC8vFNOjrM_2cc, symObjAddr: 0x4F0, symBinAddr: 0x10003B0D0, symSize: 0x120 }
  - { offset: 0x6AC12, size: 0x8, addend: 0x0, symName: __RINvMNtCsieiGu2EXtoJ_4core3stre5parsemECseYC8vFNOjrM_2cc, symObjAddr: 0x610, symBinAddr: 0x10003B1F0, symSize: 0x30 }
  - { offset: 0x6AC56, size: 0x8, addend: 0x0, symName: __RINvMNtCsieiGu2EXtoJ_4core3stre5rfindcECseYC8vFNOjrM_2cc, symObjAddr: 0x640, symBinAddr: 0x10003B220, symSize: 0xD0 }
  - { offset: 0x6ACE3, size: 0x8, addend: 0x0, symName: __RINvMNtCsieiGu2EXtoJ_4core3stre5splitAcj2_ECseYC8vFNOjrM_2cc, symObjAddr: 0x710, symBinAddr: 0x10003B2F0, symSize: 0xC0 }
  - { offset: 0x6AD2A, size: 0x8, addend: 0x0, symName: __RINvMNtCsieiGu2EXtoJ_4core3stre5splitReECseYC8vFNOjrM_2cc, symObjAddr: 0x7D0, symBinAddr: 0x10003B3B0, symSize: 0xD0 }
  - { offset: 0x6AD70, size: 0x8, addend: 0x0, symName: __RINvMNtCsieiGu2EXtoJ_4core3stre8containsRReECseYC8vFNOjrM_2cc, symObjAddr: 0x8A0, symBinAddr: 0x10003B480, symSize: 0x30 }
  - { offset: 0x6ADB6, size: 0x8, addend: 0x0, symName: __RINvMNtCsieiGu2EXtoJ_4core3stre9ends_withReECseYC8vFNOjrM_2cc, symObjAddr: 0x8D0, symBinAddr: 0x10003B4B0, symSize: 0x40 }
  - { offset: 0x6ADFC, size: 0x8, addend: 0x0, symName: __RINvMNtCsieiGu2EXtoJ_4core3stre9ends_withcECseYC8vFNOjrM_2cc, symObjAddr: 0x910, symBinAddr: 0x10003B4F0, symSize: 0x30 }
  - { offset: 0x6AFAE, size: 0x8, addend: 0x0, symName: __RNvMNtCsieiGu2EXtoJ_4core3stre16split_at_checkedCseYC8vFNOjrM_2cc, symObjAddr: 0x3720, symBinAddr: 0x10003DEB0, symSize: 0xF0 }
  - { offset: 0x6B05B, size: 0x8, addend: 0x0, symName: __RNvMNtCsieiGu2EXtoJ_4core3stre16split_whitespaceCseYC8vFNOjrM_2cc, symObjAddr: 0x3810, symBinAddr: 0x10003DFA0, symSize: 0xE0 }
  - { offset: 0x6B14B, size: 0x8, addend: 0x0, symName: __RNvMNtCsieiGu2EXtoJ_4core3stre18split_at_uncheckedCseYC8vFNOjrM_2cc, symObjAddr: 0x38F0, symBinAddr: 0x10003E080, symSize: 0xF0 }
  - { offset: 0x6B320, size: 0x8, addend: 0x0, symName: __RNvMNtCsieiGu2EXtoJ_4core3stre22split_ascii_whitespaceCseYC8vFNOjrM_2cc, symObjAddr: 0x39E0, symBinAddr: 0x10003E170, symSize: 0x70 }
  - { offset: 0x6B3CF, size: 0x8, addend: 0x0, symName: __RNvMNtCsieiGu2EXtoJ_4core3stre3lenCseYC8vFNOjrM_2cc, symObjAddr: 0x3A50, symBinAddr: 0x10003E1E0, symSize: 0x20 }
  - { offset: 0x6B3FB, size: 0x8, addend: 0x0, symName: __RNvMNtCsieiGu2EXtoJ_4core3stre4trimCseYC8vFNOjrM_2cc, symObjAddr: 0x3A70, symBinAddr: 0x10003E200, symSize: 0x20 }
  - { offset: 0x6B429, size: 0x8, addend: 0x0, symName: __RNvMNtCsieiGu2EXtoJ_4core3stre5charsCseYC8vFNOjrM_2cc, symObjAddr: 0x3A90, symBinAddr: 0x10003E220, symSize: 0x20 }
  - { offset: 0x6B497, size: 0x8, addend: 0x0, symName: __RNvMNtCsieiGu2EXtoJ_4core3stre8is_emptyCseYC8vFNOjrM_2cc, symObjAddr: 0x3AB0, symBinAddr: 0x10003E240, symSize: 0x20 }
  - { offset: 0x6B4C3, size: 0x8, addend: 0x0, symName: __RNvMNtCsieiGu2EXtoJ_4core3stre8split_atCseYC8vFNOjrM_2cc, symObjAddr: 0x3AD0, symBinAddr: 0x10003E260, symSize: 0xA0 }
  - { offset: 0x6BA42, size: 0x8, addend: 0x0, symName: __RNvXs3_NtNtCsieiGu2EXtoJ_4core3str7patternNtB7_12IsWhitespaceNtB5_11MultiCharEq7matchesCseYC8vFNOjrM_2cc, symObjAddr: 0x4DD0, symBinAddr: 0x10003F560, symSize: 0x20 }
  - { offset: 0x6BBA5, size: 0x8, addend: 0x0, symName: __RNvXs0_NtCsieiGu2EXtoJ_4core3strReNtNtB7_7default7Default7defaultCseYC8vFNOjrM_2cc, symObjAddr: 0x4C80, symBinAddr: 0x10003F410, symSize: 0x10 }
  - { offset: 0x6BBF9, size: 0x8, addend: 0x0, symName: __RNvXsg_NtCsieiGu2EXtoJ_4core3strNtB5_12IsWhitespaceINtNtNtB7_3ops8function5FnMutTcEE8call_mutCseYC8vFNOjrM_2cc, symObjAddr: 0x5490, symBinAddr: 0x10003FC20, symSize: 0x30 }
  - { offset: 0x6BC89, size: 0x8, addend: 0x0, symName: __RNvXsi_NtCsieiGu2EXtoJ_4core3strNtB5_17IsAsciiWhitespaceINtNtNtB7_3ops8function2FnTRhEE4callCseYC8vFNOjrM_2cc, symObjAddr: 0x54C0, symBinAddr: 0x10003FC50, symSize: 0x50 }
  - { offset: 0x6BD00, size: 0x8, addend: 0x0, symName: __RNvXsj_NtCsieiGu2EXtoJ_4core3strNtB5_17IsAsciiWhitespaceINtNtNtB7_3ops8function5FnMutTRhEE8call_mutCseYC8vFNOjrM_2cc, symObjAddr: 0x5510, symBinAddr: 0x10003FCA0, symSize: 0x30 }
  - { offset: 0x6BD7B, size: 0x8, addend: 0x0, symName: __RNvXsm_NtCsieiGu2EXtoJ_4core3strNtB5_10IsNotEmptyINtNtNtB7_3ops8function5FnMutTRReEE8call_mutCseYC8vFNOjrM_2cc, symObjAddr: 0x5540, symBinAddr: 0x10003FCD0, symSize: 0x20 }
  - { offset: 0x6BE0B, size: 0x8, addend: 0x0, symName: __RNvXsp_NtCsieiGu2EXtoJ_4core3strNtB5_15BytesIsNotEmptyINtNtNtB7_3ops8function5FnMutTRRShEE8call_mutCseYC8vFNOjrM_2cc, symObjAddr: 0x5560, symBinAddr: 0x10003FCF0, symSize: 0x20 }
  - { offset: 0x6BE79, size: 0x8, addend: 0x0, symName: __RNvXss_NtCsieiGu2EXtoJ_4core3strNtB5_16UnsafeBytesToStrINtNtNtB7_3ops8function5FnMutTRShEE8call_mutCseYC8vFNOjrM_2cc, symObjAddr: 0x8220, symBinAddr: 0x100042780, symSize: 0x20 }
  - { offset: 0x6D382, size: 0x8, addend: 0x0, symName: __RNvXs1_NtNtNtCsieiGu2EXtoJ_4core3ops8function5implsQNtNtBb_3str10IsNotEmptyINtB7_5FnMutTRReEE8call_mutCseYC8vFNOjrM_2cc, symObjAddr: 0x4C90, symBinAddr: 0x10003F420, symSize: 0x30 }
  - { offset: 0x6D3D1, size: 0x8, addend: 0x0, symName: __RNvXs1_NtNtNtCsieiGu2EXtoJ_4core3ops8function5implsQNtNtBb_3str15BytesIsNotEmptyINtB7_5FnMutTRRShEE8call_mutCseYC8vFNOjrM_2cc, symObjAddr: 0x4CC0, symBinAddr: 0x10003F450, symSize: 0x30 }
  - { offset: 0x6DDBA, size: 0x8, addend: 0x0, symName: __RINvXs_NtNtNtCsieiGu2EXtoJ_4core4iter8adapters5chainINtB5_5ChainINtNtB7_3map3MapINtNtNtBb_5slice4iter4IterNtCseYC8vFNOjrM_2cc6ObjectENCNvMs4_B1I_NtB1I_5Build8assemble0EIB11_IB1h_INtNtCslJiobkLta79_5alloc4sync3ArcNtNtCsHUR1vrdMJt_3std4path4PathEENvYB2Q_NtNtNtBb_3ops5deref5Deref5derefEENtNtNtB9_6traits8iterator8Iterator4folduNCINvNvB4z_8for_each4callRB3o_NCINvMsi_NtB2V_3vecINtB5Q_3VecB5C_E14extend_trustedBO_E0E0EB1I_, symObjAddr: 0x3170, symBinAddr: 0x10003D950, symSize: 0x140 }
  - { offset: 0x6DE56, size: 0x8, addend: 0x0, symName: __RINvXs_NtNtNtCsieiGu2EXtoJ_4core4iter8adapters5chainINtB5_5ChainINtNtB7_6cloned6ClonedINtNtNtBb_5slice4iter4IterRNtNtNtCsHUR1vrdMJt_3std3ffi6os_str5OsStrEEINtNtB7_3map3MapIB1n_NtNtCslJiobkLta79_5alloc6string6StringEINvMsl_B1P_B1N_3newB2O_EEENtNtNtB9_6traits8iterator8Iterator4folduNCINvB2w_8map_foldB1M_INtNtB2S_5boxed3BoxB1N_EuNvYB1M_INtNtBb_7convert4IntoB4R_E4intoNCINvNvB3R_8for_each4callB4R_NCINvMsi_NtB2S_3vecINtB6u_3VecB4R_E14extend_trustedIB2u_BO_B5g_EE0E0E0ECseYC8vFNOjrM_2cc, symObjAddr: 0x32B0, symBinAddr: 0x10003DA90, symSize: 0x140 }
  - { offset: 0x6DEF2, size: 0x8, addend: 0x0, symName: __RNvXs_NtNtNtCsieiGu2EXtoJ_4core4iter8adapters5chainINtB4_5ChainINtNtB6_3map3MapINtNtNtBa_5slice4iter4IterNtCseYC8vFNOjrM_2cc6ObjectENCNvMs4_B1H_NtB1H_5Build8assemble0EIB10_IB1g_INtNtCslJiobkLta79_5alloc4sync3ArcNtNtCsHUR1vrdMJt_3std4path4PathEENvYB2P_NtNtNtBa_3ops5deref5Deref5derefEENtNtNtB8_6traits8iterator8Iterator9size_hintB1H_, symObjAddr: 0x4EB0, symBinAddr: 0x10003F640, symSize: 0x280 }
  - { offset: 0x6E0A3, size: 0x8, addend: 0x0, symName: __RNvXs_NtNtNtCsieiGu2EXtoJ_4core4iter8adapters5chainINtB4_5ChainINtNtB6_6cloned6ClonedINtNtNtBa_5slice4iter4IterRNtNtNtCsHUR1vrdMJt_3std3ffi6os_str5OsStrEEINtNtB6_3map3MapIB1m_NtNtCslJiobkLta79_5alloc6string6StringEINvMsl_B1O_B1M_3newB2N_EEENtNtNtB8_6traits8iterator8Iterator9size_hintCseYC8vFNOjrM_2cc, symObjAddr: 0x5130, symBinAddr: 0x10003F8C0, symSize: 0x280 }
  - { offset: 0x6E43E, size: 0x8, addend: 0x0, symName: __RINvYINtNtNtNtCsieiGu2EXtoJ_4core4iter8adapters5chain5ChainINtNtB8_3map3MapINtNtNtBc_5slice4iter4IterNtCseYC8vFNOjrM_2cc6ObjectENCNvMs4_B1D_NtB1D_5Build8assemble0EIBW_IB1c_INtNtCslJiobkLta79_5alloc4sync3ArcNtNtCsHUR1vrdMJt_3std4path4PathEENvYB2K_NtNtNtBc_3ops5deref5Deref5derefEENtNtNtBa_6traits8iterator8Iterator7collectINtNtB2P_3vec3VecRB3i_EEB1D_, symObjAddr: 0x33F0, symBinAddr: 0x10003DBD0, symSize: 0x70 }
  - { offset: 0x6E549, size: 0x8, addend: 0x0, symName: __RINvYINtNtNtNtCsieiGu2EXtoJ_4core4iter8adapters5chain5ChainINtNtB8_3map3MapINtNtNtBc_5slice4iter4IterNtCseYC8vFNOjrM_2cc6ObjectENCNvMs4_B1D_NtB1D_5Build8assemble0EIBW_IB1c_INtNtCslJiobkLta79_5alloc4sync3ArcNtNtCsHUR1vrdMJt_3std4path4PathEENvYB2K_NtNtNtBc_3ops5deref5Deref5derefEENtNtNtBa_6traits8iterator8Iterator8for_eachNCINvMsi_NtB2P_3vecINtB5j_3VecRB3i_E14extend_trustedB3_E0EB1D_, symObjAddr: 0x3460, symBinAddr: 0x10003DC40, symSize: 0x30 }
  - { offset: 0x6E5B4, size: 0x8, addend: 0x0, symName: __RINvYINtNtNtNtCsieiGu2EXtoJ_4core4iter8adapters5chain5ChainINtNtB8_6cloned6ClonedINtNtNtBc_5slice4iter4IterRNtNtNtCsHUR1vrdMJt_3std3ffi6os_str5OsStrEEINtNtB8_3map3MapIB1i_NtNtCslJiobkLta79_5alloc6string6StringEINvMsl_B1K_B1I_3newB2J_EEENtNtNtBa_6traits8iterator8Iterator3mapINtNtB2N_5boxed3BoxB1I_ENvYB1H_INtNtBc_7convert4IntoB4o_E4intoECseYC8vFNOjrM_2cc, symObjAddr: 0x3490, symBinAddr: 0x10003DC70, symSize: 0x30 }
  - { offset: 0x6E6EC, size: 0x8, addend: 0x0, symName: __RNvXNtNtNtCsieiGu2EXtoJ_4core4iter6traits7collectINtNtNtB6_8adapters5chain5ChainINtNtBQ_3map3MapINtNtNtB8_5slice4iter4IterNtCseYC8vFNOjrM_2cc6ObjectENCNvMs4_B1Y_NtB1Y_5Build8assemble0EIB1h_IB1x_INtNtCslJiobkLta79_5alloc4sync3ArcNtNtCsHUR1vrdMJt_3std4path4PathEENvYB36_NtNtNtB8_3ops5deref5Deref5derefEENtB2_12IntoIterator9into_iterB1Y_, symObjAddr: 0x4C50, symBinAddr: 0x10003F3E0, symSize: 0x30 }
  - { offset: 0x6E94A, size: 0x8, addend: 0x0, symName: __RNCINvMs6_NtNtNtCsieiGu2EXtoJ_4core5array4iter10iter_innerINtB8_15PolymorphicIterSINtNtNtBe_3mem12maybe_uninit11MaybeUninitNtNtNtCsHUR1vrdMJt_3std3ffi6os_str8OsStringEE8try_folduNCINvMNtNtBe_3ops9try_traitINtB2W_17NeverShortCircuituE10wrap_mut_2uB1X_NCINvNvNtNtNtNtBe_4iter6traits8iterator8Iterator8for_each4callB1X_NCINvMsi_NtCslJiobkLta79_5alloc3vecINtB5d_3VecB1X_E14extend_trustedINtBa_8IntoIterB1X_Kj6_EE0E0E0B3h_E0CseYC8vFNOjrM_2cc, symObjAddr: 0x34C0, symBinAddr: 0x10003DCA0, symSize: 0xB0 }
  - { offset: 0x6EAA6, size: 0x8, addend: 0x0, symName: __RNCINvMs6_NtNtNtCsieiGu2EXtoJ_4core5array4iter10iter_innerINtB8_15PolymorphicIterSINtNtNtBe_3mem12maybe_uninit11MaybeUninitbEE8try_foldhNCINvMNtNtBe_3ops9try_traitINtB2g_17NeverShortCircuithE10wrap_mut_2hbNCINvNtNtNtBe_4iter8adapters3map8map_foldbhhNCNvXNtNtBe_3str4iterNtB44_5CharsNtNtNtB3q_6traits8iterator8Iterator10advance_by0NCINvXsq_NtB4A_5accumhNtB5r_3Sum3sumINtB3m_3MapINtBa_8IntoIterbKj20_EB3Z_EE0E0E0B2B_E0CseYC8vFNOjrM_2cc, symObjAddr: 0x3570, symBinAddr: 0x10003DD50, symSize: 0x90 }
  - { offset: 0x6EC9E, size: 0x8, addend: 0x0, symName: __RNvXs1_NtNtNtCsieiGu2EXtoJ_4core5array4iter10iter_innerINtB5_15PolymorphicIterAINtNtNtBb_3mem12maybe_uninit11MaybeUninitNtNtNtCsHUR1vrdMJt_3std3ffi6os_str8OsStringEj6_ENtNtNtBb_3ops4drop4Drop4dropCseYC8vFNOjrM_2cc, symObjAddr: 0x4CF0, symBinAddr: 0x10003F480, symSize: 0x30 }
  - { offset: 0x6ECEC, size: 0x8, addend: 0x0, symName: __RNvXs1_NtNtNtCsieiGu2EXtoJ_4core5array4iter10iter_innerINtB5_15PolymorphicIterAINtNtNtBb_3mem12maybe_uninit11MaybeUninitReEj2_ENtNtNtBb_3ops4drop4Drop4dropCseYC8vFNOjrM_2cc, symObjAddr: 0x4D20, symBinAddr: 0x10003F4B0, symSize: 0x30 }
  - { offset: 0x6ED3A, size: 0x8, addend: 0x0, symName: __RNvXs1_NtNtNtCsieiGu2EXtoJ_4core5array4iter10iter_innerINtB5_15PolymorphicIterAINtNtNtBb_3mem12maybe_uninit11MaybeUninitbEj20_ENtNtNtBb_3ops4drop4Drop4dropCseYC8vFNOjrM_2cc, symObjAddr: 0x4D50, symBinAddr: 0x10003F4E0, symSize: 0x30 }
  - { offset: 0x6EE0E, size: 0x8, addend: 0x0, symName: __RNvXsb_NtCsieiGu2EXtoJ_4core5arrayRARej2_NtNtNtNtB7_4iter6traits7collect12IntoIterator9into_iterCseYC8vFNOjrM_2cc, symObjAddr: 0x53D0, symBinAddr: 0x10003FB60, symSize: 0x60 }
  - { offset: 0x6EF43, size: 0x8, addend: 0x0, symName: __RNvXsb_NtCsieiGu2EXtoJ_4core5arrayRARej5_NtNtNtNtB7_4iter6traits7collect12IntoIterator9into_iterCseYC8vFNOjrM_2cc, symObjAddr: 0x5430, symBinAddr: 0x10003FBC0, symSize: 0x60 }
  - { offset: 0x6F0A5, size: 0x8, addend: 0x0, symName: __RNvXNtNtCsieiGu2EXtoJ_4core6future11into_futureNtNtNtCseYC8vFNOjrM_2cc8parallel14async_executor9YieldOnceNtB2_10IntoFuture11into_futureBP_, symObjAddr: 0x4C30, symBinAddr: 0x10003F3C0, symSize: 0x20 }
  - { offset: 0x6F129, size: 0x8, addend: 0x0, symName: __RNvYNtNvXsh_NtNtCslJiobkLta79_5alloc5boxed7convertINtBc_3BoxDNtNtCsieiGu2EXtoJ_4core5error5ErrorNtNtB11_6marker4SyncNtB1y_4SendEL_EINtNtB11_7convert4FromNtNtBe_6string6StringE4from11StringErrorBX_11descriptionCseYC8vFNOjrM_2cc, symObjAddr: 0x8240, symBinAddr: 0x1000427A0, symSize: 0x20 }
  - { offset: 0x6F15E, size: 0x8, addend: 0x0, symName: __RNvYNtNvXsh_NtNtCslJiobkLta79_5alloc5boxed7convertINtBc_3BoxDNtNtCsieiGu2EXtoJ_4core5error5ErrorNtNtB11_6marker4SyncNtB1y_4SendEL_EINtNtB11_7convert4FromNtNtBe_6string6StringE4from11StringErrorBX_5causeCseYC8vFNOjrM_2cc, symObjAddr: 0x8260, symBinAddr: 0x1000427C0, symSize: 0x20 }
  - { offset: 0x6F193, size: 0x8, addend: 0x0, symName: __RNvYNtNvXsh_NtNtCslJiobkLta79_5alloc5boxed7convertINtBc_3BoxDNtNtCsieiGu2EXtoJ_4core5error5ErrorNtNtB11_6marker4SyncNtB1y_4SendEL_EINtNtB11_7convert4FromNtNtBe_6string6StringE4from11StringErrorBX_6sourceCseYC8vFNOjrM_2cc, symObjAddr: 0x8280, symBinAddr: 0x1000427E0, symSize: 0x20 }
  - { offset: 0x6F1C8, size: 0x8, addend: 0x0, symName: __RNvYNtNvXsh_NtNtCslJiobkLta79_5alloc5boxed7convertINtBc_3BoxDNtNtCsieiGu2EXtoJ_4core5error5ErrorNtNtB11_6marker4SyncNtB1y_4SendEL_EINtNtB11_7convert4FromNtNtBe_6string6StringE4from11StringErrorBX_7provideCseYC8vFNOjrM_2cc, symObjAddr: 0x82A0, symBinAddr: 0x100042800, symSize: 0x20 }
  - { offset: 0x6F207, size: 0x8, addend: 0x0, symName: __RNvYNtNvXsh_NtNtCslJiobkLta79_5alloc5boxed7convertINtBc_3BoxDNtNtCsieiGu2EXtoJ_4core5error5ErrorNtNtB11_6marker4SyncNtB1y_4SendEL_EINtNtB11_7convert4FromNtNtBe_6string6StringE4from11StringErrorBX_7type_idCseYC8vFNOjrM_2cc, symObjAddr: 0x82C0, symBinAddr: 0x100042820, symSize: 0x30 }
  - { offset: 0x6F660, size: 0x8, addend: 0x0, symName: __RNvXs5_CslzRnRZxZnvp_9jobserverNtB5_6ClientNtNtCsieiGu2EXtoJ_4core5clone5Clone5cloneCseYC8vFNOjrM_2cc, symObjAddr: 0x4DF0, symBinAddr: 0x10003F580, symSize: 0x20 }
  - { offset: 0x6F692, size: 0x8, addend: 0x0, symName: __RNvXs8_CslzRnRZxZnvp_9jobserverNtB5_11HelperStateNtNtCsieiGu2EXtoJ_4core7default7Default7defaultCseYC8vFNOjrM_2cc, symObjAddr: 0x4E10, symBinAddr: 0x10003F5A0, symSize: 0x90 }
  - { offset: 0x6F6B5, size: 0x8, addend: 0x0, symName: __RNvXsa_CslzRnRZxZnvp_9jobserverNtB5_11HelperInnerNtNtCsieiGu2EXtoJ_4core7default7Default7defaultCseYC8vFNOjrM_2cc, symObjAddr: 0x53B0, symBinAddr: 0x10003FB40, symSize: 0x20 }
  - { offset: 0x70450, size: 0x8, addend: 0x0, symName: __RINvMs3_NtCslJiobkLta79_5alloc3stre7replaceAcj2_ECseYC8vFNOjrM_2cc, symObjAddr: 0x1540, symBinAddr: 0x10003C080, symSize: 0x920 }
  - { offset: 0x70F13, size: 0x8, addend: 0x0, symName: __RINvMs3_NtCslJiobkLta79_5alloc3stre7replaceReECseYC8vFNOjrM_2cc, symObjAddr: 0x1E60, symBinAddr: 0x10003C9A0, symSize: 0x910 }
  - { offset: 0x71A3F, size: 0x8, addend: 0x0, symName: __RNCNvNtCslJiobkLta79_5alloc3str13replace_ascii0CseYC8vFNOjrM_2cc, symObjAddr: 0x3650, symBinAddr: 0x10003DDE0, symSize: 0x40 }
  - { offset: 0x71ADE, size: 0x8, addend: 0x0, symName: __RNvXs2_NtCslJiobkLta79_5alloc3streNtNtB7_6borrow7ToOwned8to_ownedCseYC8vFNOjrM_2cc, symObjAddr: 0x4D80, symBinAddr: 0x10003F510, symSize: 0x50 }
  - { offset: 0x72165, size: 0x8, addend: 0x0, symName: __RINvMNtCsieiGu2EXtoJ_4core6resultINtB3_6ResultINtNtCslJiobkLta79_5alloc3vec3VechENtCseYC8vFNOjrM_2cc5ErrorE3mapbNCNvNvMNtB1j_4toolNtB1T_4Tool13with_features9is_zig_cc0EB1j_, symObjAddr: 0x940, symBinAddr: 0x10003B520, symSize: 0xE0 }
  - { offset: 0x7220D, size: 0x8, addend: 0x0, symName: __RINvMNtCsieiGu2EXtoJ_4core6resultINtB3_6ResultINtNtCslJiobkLta79_5alloc5boxed3BoxeENtCseYC8vFNOjrM_2cc5ErrorE14unwrap_or_elseNCNvMNtNtB1l_6target6parserNtB24_21TargetInfoParserInner32from_cargo_environment_variabless5_0EB1l_, symObjAddr: 0xA20, symBinAddr: 0x10003B600, symSize: 0xB0 }
  - { offset: 0x722BD, size: 0x8, addend: 0x0, symName: __RINvMNtCsieiGu2EXtoJ_4core6resultINtB3_6ResultINtNtNtNtCsHUR1vrdMJt_3std4sync6poison5mutex10MutexGuardbEINtBN_11PoisonErrorBI_EE14unwrap_or_elseNvMs2_BN_B1E_10into_innerECseYC8vFNOjrM_2cc, symObjAddr: 0xAD0, symBinAddr: 0x10003B6B0, symSize: 0x70 }
  - { offset: 0x7247B, size: 0x8, addend: 0x0, symName: __RINvMNtCsieiGu2EXtoJ_4core6resultINtB3_6ResultNtNtCsHUR1vrdMJt_3std7process6OutputNtNtNtBM_2io5error5ErrorE7map_errNtCseYC8vFNOjrM_2cc5ErrorNCNvNtB1R_15command_helpers25spawn_and_wait_for_output0EB1R_, symObjAddr: 0xB40, symBinAddr: 0x10003B720, symSize: 0xD0 }
  - { offset: 0x72550, size: 0x8, addend: 0x0, symName: __RINvMNtCsieiGu2EXtoJ_4core6resultINtB3_6ResultNtNtCseYC8vFNOjrM_2cc4tool10ToolFamilyNtBM_5ErrorE14unwrap_or_elseNCNvMBK_NtBK_4Tool13with_featuress_0EBM_, symObjAddr: 0xC10, symBinAddr: 0x10003B7F0, symSize: 0xD0 }
  - { offset: 0x72607, size: 0x8, addend: 0x0, symName: __RINvMNtCsieiGu2EXtoJ_4core6resultINtB3_6ResultNtNtCseYC8vFNOjrM_2cc8tempfile13NamedTempfileNtNtNtCsHUR1vrdMJt_3std2io5error5ErrorE7map_errNtBM_5ErrorNCNvNvMNtBM_4toolNtB2u_4Tool13with_features19detect_family_inners0_0EBM_, symObjAddr: 0xCE0, symBinAddr: 0x10003B8C0, symSize: 0xE0 }
  - { offset: 0x726B3, size: 0x8, addend: 0x0, symName: __RINvMNtCsieiGu2EXtoJ_4core6resultINtB3_6ResultNtNtCslJiobkLta79_5alloc6string6StringNtCseYC8vFNOjrM_2cc5ErrorE3mapINtNtBM_6borrow3CoweENcNtB1O_5Owned0EB1m_, symObjAddr: 0xE60, symBinAddr: 0x10003B9A0, symSize: 0x100 }
  - { offset: 0x72747, size: 0x8, addend: 0x0, symName: __RINvMNtCsieiGu2EXtoJ_4core6resultINtB3_6ResultNtNtCslJiobkLta79_5alloc6string6StringNtNtCsHUR1vrdMJt_3std3env8VarErrorE7map_errNtCseYC8vFNOjrM_2cc5ErrorNCNvMNtNtB23_6target6parserNtB2v_21TargetInfoParserInner32from_cargo_environment_variables0EB23_, symObjAddr: 0xF60, symBinAddr: 0x10003BAA0, symSize: 0xF0 }
  - { offset: 0x727DC, size: 0x8, addend: 0x0, symName: __RINvMNtCsieiGu2EXtoJ_4core6resultINtB3_6ResultuNtNtNtCsHUR1vrdMJt_3std2io5error5ErrorE7map_errNtCseYC8vFNOjrM_2cc5ErrorNCNvNvMNtB1w_4toolNtB20_4Tool13with_features19detect_family_inners_0EB1w_, symObjAddr: 0x1050, symBinAddr: 0x10003BB90, symSize: 0x90 }
  - { offset: 0x7287B, size: 0x8, addend: 0x0, symName: __RINvMNtCsieiGu2EXtoJ_4core6resultINtB3_6ResultuNtNtNtCsHUR1vrdMJt_3std2io5error5ErrorE7or_elseBJ_NCNvMs4_CseYC8vFNOjrM_2ccNtB1F_5Build8assembles_0EB1F_, symObjAddr: 0x10E0, symBinAddr: 0x10003BC20, symSize: 0x70 }
  - { offset: 0x7290D, size: 0x8, addend: 0x0, symName: __RINvMNtCsieiGu2EXtoJ_4core6resultINtB3_6ResultyNtNtNtCsHUR1vrdMJt_3std2io5error5ErrorE3mapuNCNCNvMs4_CseYC8vFNOjrM_2ccNtB1B_5Build8assembles_00EB1B_, symObjAddr: 0x1150, symBinAddr: 0x10003BC90, symSize: 0x50 }
  - { offset: 0x72A42, size: 0x8, addend: 0x0, symName: __RINvMs0_CslzRnRZxZnvp_9jobserverNtB6_6Client18into_helper_threadNCNvMs_NtNtNtCseYC8vFNOjrM_2cc8parallel9job_token19inherited_jobserverNtB17_12HelperThread3new0EB1d_, symObjAddr: 0x11A0, symBinAddr: 0x10003BCE0, symSize: 0x3A0 }
  - { offset: 0x7365D, size: 0x8, addend: 0x0, symName: __RNvMNtCsieiGu2EXtoJ_4core6resultINtB2_6ResultINtNtCslJiobkLta79_5alloc3vec3VechENtCseYC8vFNOjrM_2cc5ErrorE2okB1i_, symObjAddr: 0x3B70, symBinAddr: 0x10003E300, symSize: 0xC0 }
  - { offset: 0x736B1, size: 0x8, addend: 0x0, symName: __RNvMNtCsieiGu2EXtoJ_4core6resultINtB2_6ResultINtNtCslJiobkLta79_5alloc4sync3ArcNtNtNtCsHUR1vrdMJt_3std3ffi6os_str5OsStrENtCseYC8vFNOjrM_2cc5ErrorE2okB1W_, symObjAddr: 0x3C30, symBinAddr: 0x10003E3C0, symSize: 0x90 }
  - { offset: 0x73705, size: 0x8, addend: 0x0, symName: __RNvMNtCsieiGu2EXtoJ_4core6resultINtB2_6ResultINtNtCslJiobkLta79_5alloc6borrow3CowNtNtCsHUR1vrdMJt_3std4path4PathENtCseYC8vFNOjrM_2cc5ErrorE2okB1P_, symObjAddr: 0x3CC0, symBinAddr: 0x10003E450, symSize: 0xC0 }
  - { offset: 0x73850, size: 0x8, addend: 0x0, symName: __RNvMNtCsieiGu2EXtoJ_4core6resultINtB2_6ResultINtNtCslJiobkLta79_5alloc6borrow3CoweENtCseYC8vFNOjrM_2cc5ErrorE8as_derefB1l_, symObjAddr: 0x3D80, symBinAddr: 0x10003E510, symSize: 0xB0 }
  - { offset: 0x73936, size: 0x8, addend: 0x0, symName: __RNvMNtCsieiGu2EXtoJ_4core6resultINtB2_6ResultINtNtNtB4_3num7nonzero7NonZerojENtNtNtCsHUR1vrdMJt_3std2io5error5ErrorE2okCseYC8vFNOjrM_2cc, symObjAddr: 0x3E30, symBinAddr: 0x10003E5C0, symSize: 0x50 }
  - { offset: 0x73989, size: 0x8, addend: 0x0, symName: __RNvMNtCsieiGu2EXtoJ_4core6resultINtB2_6ResultINtNtNtNtCsHUR1vrdMJt_3std4sync6poison6rwlock15RwLockReadGuardINtNtNtNtBQ_11collections4hash3map7HashMapINtNtCslJiobkLta79_5alloc5boxed3BoxeEINtNtB2s_4sync3ArcNtNtNtBQ_3ffi6os_str5OsStrEEEINtBM_11PoisonErrorBH_EE6expectCseYC8vFNOjrM_2cc, symObjAddr: 0x3E80, symBinAddr: 0x10003E610, symSize: 0xA0 }
  - { offset: 0x739EC, size: 0x8, addend: 0x0, symName: __RNvMNtCsieiGu2EXtoJ_4core6resultINtB2_6ResultINtNtNtNtCsHUR1vrdMJt_3std4sync6poison6rwlock15RwLockReadGuardINtNtNtNtBQ_11collections4hash3map7HashMapINtNtCslJiobkLta79_5alloc5boxed3BoxeEINtNtB2s_4sync3ArceEEEINtBM_11PoisonErrorBH_EE6expectCseYC8vFNOjrM_2cc, symObjAddr: 0x3F20, symBinAddr: 0x10003E6B0, symSize: 0xA0 }
  - { offset: 0x73A4F, size: 0x8, addend: 0x0, symName: __RNvMNtCsieiGu2EXtoJ_4core6resultINtB2_6ResultINtNtNtNtCsHUR1vrdMJt_3std4sync6poison6rwlock16RwLockWriteGuardINtNtNtNtBQ_11collections4hash3map7HashMapINtNtCslJiobkLta79_5alloc5boxed3BoxeEINtNtB2t_4sync3ArcNtNtNtBQ_3ffi6os_str5OsStrEEEINtBM_11PoisonErrorBH_EE6expectCseYC8vFNOjrM_2cc, symObjAddr: 0x3FC0, symBinAddr: 0x10003E750, symSize: 0xA0 }
  - { offset: 0x73AB2, size: 0x8, addend: 0x0, symName: __RNvMNtCsieiGu2EXtoJ_4core6resultINtB2_6ResultINtNtNtNtCsHUR1vrdMJt_3std4sync6poison6rwlock16RwLockWriteGuardINtNtNtNtBQ_11collections4hash3map7HashMapINtNtCslJiobkLta79_5alloc5boxed3BoxeEINtNtB2t_4sync3ArceEEEINtBM_11PoisonErrorBH_EE6expectCseYC8vFNOjrM_2cc, symObjAddr: 0x4060, symBinAddr: 0x10003E7F0, symSize: 0xA0 }
  - { offset: 0x73B15, size: 0x8, addend: 0x0, symName: __RNvMNtCsieiGu2EXtoJ_4core6resultINtB2_6ResultNtNtCsHUR1vrdMJt_3std7process10ExitStatusNtNtNtBL_2io5error5ErrorE2okCseYC8vFNOjrM_2cc, symObjAddr: 0x4100, symBinAddr: 0x10003E890, symSize: 0x60 }
  - { offset: 0x73B76, size: 0x8, addend: 0x0, symName: __RNvMNtCsieiGu2EXtoJ_4core6resultINtB2_6ResultNtNtCsHUR1vrdMJt_3std7process6OutputNtNtNtBL_2io5error5ErrorE5is_okCseYC8vFNOjrM_2cc, symObjAddr: 0x4160, symBinAddr: 0x10003E8F0, symSize: 0x30 }
  - { offset: 0x73BC9, size: 0x8, addend: 0x0, symName: __RNvMNtCsieiGu2EXtoJ_4core6resultINtB2_6ResultNtNtCseYC8vFNOjrM_2cc4tool4ToolNtBL_5ErrorE2okBL_, symObjAddr: 0x4190, symBinAddr: 0x10003E920, symSize: 0xD0 }
  - { offset: 0x73C1E, size: 0x8, addend: 0x0, symName: __RNvMNtCsieiGu2EXtoJ_4core6resultINtB2_6ResultNtNtCseYC8vFNOjrM_2cc6target10TargetInfoNtBL_5ErrorE2okBL_, symObjAddr: 0x4260, symBinAddr: 0x10003E9F0, symSize: 0xA0 }
  - { offset: 0x73C73, size: 0x8, addend: 0x0, symName: __RNvMNtCsieiGu2EXtoJ_4core6resultINtB2_6ResultNtNtCslJiobkLta79_5alloc6string6StringNtCseYC8vFNOjrM_2cc5ErrorE2okB1l_, symObjAddr: 0x4300, symBinAddr: 0x10003EA90, symSize: 0xC0 }
  - { offset: 0x73CC7, size: 0x8, addend: 0x0, symName: __RNvMNtCsieiGu2EXtoJ_4core6resultINtB2_6ResultNtNtCslJiobkLta79_5alloc6string6StringNtNtCsHUR1vrdMJt_3std3env8VarErrorE2okCseYC8vFNOjrM_2cc, symObjAddr: 0x43C0, symBinAddr: 0x10003EB50, symSize: 0x90 }
  - { offset: 0x73D1B, size: 0x8, addend: 0x0, symName: __RNvMNtCsieiGu2EXtoJ_4core6resultINtB2_6ResultReNtNtNtB4_3str5error9Utf8ErrorE2okCseYC8vFNOjrM_2cc, symObjAddr: 0x4450, symBinAddr: 0x10003EBE0, symSize: 0x50 }
  - { offset: 0x73D6F, size: 0x8, addend: 0x0, symName: __RNvMNtCsieiGu2EXtoJ_4core6resultINtB2_6ResultReRNtCseYC8vFNOjrM_2cc5ErrorE17unwrap_or_defaultBM_, symObjAddr: 0x44A0, symBinAddr: 0x10003EC30, symSize: 0xD0 }
  - { offset: 0x73DC3, size: 0x8, addend: 0x0, symName: __RNvMNtCsieiGu2EXtoJ_4core6resultINtB2_6ResultbNtCseYC8vFNOjrM_2cc5ErrorE17unwrap_or_defaultBK_, symObjAddr: 0x4570, symBinAddr: 0x10003ED00, symSize: 0x90 }
  - { offset: 0x73E2C, size: 0x8, addend: 0x0, symName: __RNvMNtCsieiGu2EXtoJ_4core6resultINtB2_6ResultbNtCseYC8vFNOjrM_2cc5ErrorE9unwrap_orBK_, symObjAddr: 0x4600, symBinAddr: 0x10003ED90, symSize: 0x90 }
  - { offset: 0x73E9C, size: 0x8, addend: 0x0, symName: __RNvMNtCsieiGu2EXtoJ_4core6resultINtB2_6ResultbbE5is_okCseYC8vFNOjrM_2cc, symObjAddr: 0x4690, symBinAddr: 0x10003EE20, symSize: 0x20 }
  - { offset: 0x73ED1, size: 0x8, addend: 0x0, symName: __RNvMNtCsieiGu2EXtoJ_4core6resultINtB2_6ResultmNtNtNtB4_3num5error13ParseIntErrorE2okCseYC8vFNOjrM_2cc, symObjAddr: 0x46B0, symBinAddr: 0x10003EE40, symSize: 0x60 }
  - { offset: 0x73F24, size: 0x8, addend: 0x0, symName: __RNvMNtCsieiGu2EXtoJ_4core6resultINtB2_6ResultmNtNtNtB4_3num5error13ParseIntErrorE6expectCseYC8vFNOjrM_2cc, symObjAddr: 0x4710, symBinAddr: 0x10003EEA0, symSize: 0x90 }
  - { offset: 0x73F93, size: 0x8, addend: 0x0, symName: __RNvMNtCsieiGu2EXtoJ_4core6resultINtB2_6ResultmmE5is_okCseYC8vFNOjrM_2cc, symObjAddr: 0x47A0, symBinAddr: 0x10003EF30, symSize: 0x20 }
  - { offset: 0x73FD5, size: 0x8, addend: 0x0, symName: __RNvMNtCsieiGu2EXtoJ_4core6resultINtB2_6ResultuNtCseYC8vFNOjrM_2cc5ErrorE5is_okBK_, symObjAddr: 0x47C0, symBinAddr: 0x10003EF50, symSize: 0x30 }
  - { offset: 0x7400A, size: 0x8, addend: 0x0, symName: __RNvMNtCsieiGu2EXtoJ_4core6resultINtB2_6ResultuNtNtNtCsHUR1vrdMJt_3std2io5error5ErrorE2okCseYC8vFNOjrM_2cc, symObjAddr: 0x47F0, symBinAddr: 0x10003EF80, symSize: 0x60 }
  - { offset: 0x741AD, size: 0x8, addend: 0x0, symName: __RNvMs6_NtNtNtCsieiGu2EXtoJ_4core5array4iter10iter_innerINtB5_15PolymorphicIterSINtNtNtBb_3mem12maybe_uninit11MaybeUninitReEE4nextCseYC8vFNOjrM_2cc, symObjAddr: 0x4850, symBinAddr: 0x10003EFE0, symSize: 0x1C0 }
  - { offset: 0x743FC, size: 0x8, addend: 0x0, symName: __RNvMs7_NtCsieiGu2EXtoJ_4core4cellINtB5_4CellINtNtCslJiobkLta79_5alloc3vec3VecTNtNtCsHUR1vrdMJt_3std7process7CommandNtNtNtCseYC8vFNOjrM_2cc8parallel14command_runner10KillOnDropNtNtB1T_9job_token8JobTokenEEE3newB1V_, symObjAddr: 0x4A10, symBinAddr: 0x10003F1A0, symSize: 0x40 }
  - { offset: 0x74465, size: 0x8, addend: 0x0, symName: __RNvMs7_NtCsieiGu2EXtoJ_4core4cellINtB5_4CellINtNtCslJiobkLta79_5alloc3vec3VecTNtNtCsHUR1vrdMJt_3std7process7CommandNtNtNtCseYC8vFNOjrM_2cc8parallel14command_runner10KillOnDropNtNtB1T_9job_token8JobTokenEEE3setB1V_, symObjAddr: 0x4A50, symBinAddr: 0x10003F1E0, symSize: 0x50 }
  - { offset: 0x744EC, size: 0x8, addend: 0x0, symName: __RNvMs7_NtCsieiGu2EXtoJ_4core4cellINtB5_4CellbE3newCseYC8vFNOjrM_2cc, symObjAddr: 0x4AA0, symBinAddr: 0x10003F230, symSize: 0x20 }
  - { offset: 0x74555, size: 0x8, addend: 0x0, symName: __RNvMs7_NtCsieiGu2EXtoJ_4core4cellINtB5_4CellbE3setCseYC8vFNOjrM_2cc, symObjAddr: 0x4AC0, symBinAddr: 0x10003F250, symSize: 0x20 }
  - { offset: 0x745CB, size: 0x8, addend: 0x0, symName: __RNvMs8_NtCsieiGu2EXtoJ_4core4cellINtB5_4CellbE3getCseYC8vFNOjrM_2cc, symObjAddr: 0x4AE0, symBinAddr: 0x10003F270, symSize: 0x10 }
  - { offset: 0x7461F, size: 0x8, addend: 0x0, symName: __RNvMsa_NtCsieiGu2EXtoJ_4core4cellINtB5_4CellINtNtCslJiobkLta79_5alloc3vec3VecTNtNtCsHUR1vrdMJt_3std7process7CommandNtNtNtCseYC8vFNOjrM_2cc8parallel14command_runner10KillOnDropNtNtB1T_9job_token8JobTokenEEE4takeB1V_, symObjAddr: 0x4AF0, symBinAddr: 0x10003F280, symSize: 0x60 }
  - { offset: 0x74686, size: 0x8, addend: 0x0, symName: __RNvMsd_NtNtCsieiGu2EXtoJ_4core3num7nonzeroINtB5_7NonZerojE3getCseYC8vFNOjrM_2cc, symObjAddr: 0x4B50, symBinAddr: 0x10003F2E0, symSize: 0x10 }
  - { offset: 0x74CD6, size: 0x8, addend: 0x0, symName: __RINvMs1_NtCsjK30CmJ87bX_9hashbrown3mapINtB6_7HashMapINtNtCslJiobkLta79_5alloc5boxed3BoxSIBP_NtNtNtCsHUR1vrdMJt_3std3ffi6os_str5OsStrEENtNtCseYC8vFNOjrM_2cc4tool10ToolFamilyNtNtNtB1y_4hash6random11RandomStateE9get_innerBO_EB2c_, symObjAddr: 0x0, symBinAddr: 0x100042850, symSize: 0xF0 }
  - { offset: 0x74EB1, size: 0x8, addend: 0x0, symName: __RNvXs5_NtNtCsieiGu2EXtoJ_4core3num5errorNtB5_15TryFromIntErrorNtNtB9_3fmt5Debug3fmtCseYC8vFNOjrM_2cc, symObjAddr: 0x4000, symBinAddr: 0x100046730, symSize: 0x50 }
  - { offset: 0x74EF1, size: 0x8, addend: 0x0, symName: __RNvXsb_NtNtCsieiGu2EXtoJ_4core3num5errorNtB5_13ParseIntErrorNtNtB9_3fmt5Debug3fmtCseYC8vFNOjrM_2cc, symObjAddr: 0x5230, symBinAddr: 0x100047960, symSize: 0x60 }
  - { offset: 0x74FA1, size: 0x8, addend: 0x0, symName: __RNvMs6_NtCsieiGu2EXtoJ_4core3numm11checked_subCseYC8vFNOjrM_2cc, symObjAddr: 0x28E0, symBinAddr: 0x100045030, symSize: 0x50 }
  - { offset: 0x74FDE, size: 0x8, addend: 0x0, symName: __RNvMs6_NtCsieiGu2EXtoJ_4core3numm3powCseYC8vFNOjrM_2cc, symObjAddr: 0x2930, symBinAddr: 0x100045080, symSize: 0x140 }
  - { offset: 0x7512C, size: 0x8, addend: 0x0, symName: __RNvNvMs6_NtCsieiGu2EXtoJ_4core3numm13unchecked_add18precondition_checkCseYC8vFNOjrM_2cc, symObjAddr: 0x3B40, symBinAddr: 0x100046290, symSize: 0xA0 }
  - { offset: 0x75201, size: 0x8, addend: 0x0, symName: __RNvMsA_NtCsieiGu2EXtoJ_4core3numm16from_ascii_radixCseYC8vFNOjrM_2cc, symObjAddr: 0x2A70, symBinAddr: 0x1000451C0, symSize: 0x640 }
  - { offset: 0x75544, size: 0x8, addend: 0x0, symName: __RNvNvMs9_NtCsieiGu2EXtoJ_4core3numj13unchecked_add18precondition_checkCseYC8vFNOjrM_2cc, symObjAddr: 0x3BE0, symBinAddr: 0x100046330, symSize: 0xA0 }
  - { offset: 0x75602, size: 0x8, addend: 0x0, symName: __RNvNvMs9_NtCsieiGu2EXtoJ_4core3numj13unchecked_mul18precondition_checkCseYC8vFNOjrM_2cc, symObjAddr: 0x3C80, symBinAddr: 0x1000463D0, symSize: 0xA0 }
  - { offset: 0x756BA, size: 0x8, addend: 0x0, symName: __RNvNvMs3_NtCsieiGu2EXtoJ_4core3numi13unchecked_neg18precondition_checkCseYC8vFNOjrM_2cc, symObjAddr: 0x3A90, symBinAddr: 0x1000461E0, symSize: 0xB0 }
  - { offset: 0x75757, size: 0x8, addend: 0x0, symName: __RNvXsz_NtCsieiGu2EXtoJ_4core3nummNtNtNtB7_3str6traits7FromStr8from_strCseYC8vFNOjrM_2cc, symObjAddr: 0x5730, symBinAddr: 0x100047E60, symSize: 0x40 }
  - { offset: 0x78A78, size: 0x8, addend: 0x0, symName: __RNCINvNvXs_NtNtNtCsieiGu2EXtoJ_4core4iter8adapters9enumerateINtB9_9EnumeratepENtNtNtBd_6traits8iterator8Iterator8try_fold9enumerateRNtNtNtNtCsHUR1vrdMJt_3std4sync4mpmc5waker5EntryuINtNtNtBf_3ops12control_flow11ControlFlowTjB25_EENCINvNvB1e_4find5checkB3x_NCNvMB28_NtB28_5Waker10unregister0E0E0CseYC8vFNOjrM_2cc, symObjAddr: 0x1AC0, symBinAddr: 0x100044210, symSize: 0xA0 }
  - { offset: 0x78B0F, size: 0x8, addend: 0x0, symName: __RNvXs_NtNtNtCsieiGu2EXtoJ_4core4iter8adapters9enumerateINtB4_9EnumerateINtNtNtBa_5slice4iter4IterINtNtCslJiobkLta79_5alloc4sync3ArcNtNtNtCsHUR1vrdMJt_3std3ffi6os_str5OsStrEEENtNtNtB8_6traits8iterator8Iterator4nextCseYC8vFNOjrM_2cc, symObjAddr: 0x4EB0, symBinAddr: 0x1000475E0, symSize: 0xE0 }
  - { offset: 0x78BF5, size: 0x8, addend: 0x0, symName: __RNvXs_NtNtNtCsieiGu2EXtoJ_4core4iter8adapters9enumerateINtB4_9EnumerateINtNtNtBa_5slice4iter4IterNtNtCslJiobkLta79_5alloc6string6StringEENtNtNtB8_6traits8iterator8Iterator4nextCseYC8vFNOjrM_2cc, symObjAddr: 0x4F90, symBinAddr: 0x1000476C0, symSize: 0xE0 }
  - { offset: 0x78CDB, size: 0x8, addend: 0x0, symName: __RNvXs_NtNtNtCsieiGu2EXtoJ_4core4iter8adapters9enumerateINtB4_9EnumerateINtNtNtBa_5slice4iter4IterNtNtNtCsHUR1vrdMJt_3std3ffi6os_str8OsStringEENtNtNtB8_6traits8iterator8Iterator4nextCseYC8vFNOjrM_2cc, symObjAddr: 0x5070, symBinAddr: 0x1000477A0, symSize: 0xE0 }
  - { offset: 0x78DC1, size: 0x8, addend: 0x0, symName: __RNvXs_NtNtNtCsieiGu2EXtoJ_4core4iter8adapters9enumerateINtB4_9EnumerateINtNtNtBa_5slice4iter4IterTNtNtNtCsHUR1vrdMJt_3std3ffi6os_str8OsStringB1y_EEENtNtNtB8_6traits8iterator8Iterator4nextCseYC8vFNOjrM_2cc, symObjAddr: 0x5150, symBinAddr: 0x100047880, symSize: 0xE0 }
  - { offset: 0x78F61, size: 0x8, addend: 0x0, symName: __RNvXNtNtNtCsieiGu2EXtoJ_4core4iter6traits7collectINtNtNtB6_8adapters9enumerate9EnumerateINtNtNtB8_5slice4iter4IterINtNtCslJiobkLta79_5alloc4sync3ArcNtNtNtCsHUR1vrdMJt_3std3ffi6os_str5OsStrEEENtB2_12IntoIterator9into_iterCseYC8vFNOjrM_2cc, symObjAddr: 0x3DA0, symBinAddr: 0x1000464F0, symSize: 0x20 }
  - { offset: 0x7916C, size: 0x8, addend: 0x0, symName: __RNvXs_NtNtCsieiGu2EXtoJ_4core5slice4iterRSINtNtCslJiobkLta79_5alloc4sync3ArcNtNtCsHUR1vrdMJt_3std4path4PathENtNtNtNtB8_4iter6traits7collect12IntoIterator9into_iterCseYC8vFNOjrM_2cc, symObjAddr: 0x4E60, symBinAddr: 0x100047590, symSize: 0x50 }
  - { offset: 0x79419, size: 0x8, addend: 0x0, symName: __RNCNvXsL_NtNtCsieiGu2EXtoJ_4core5slice3cmpcNtB7_13SliceContains14slice_contains0CseYC8vFNOjrM_2cc, symObjAddr: 0x1BC0, symBinAddr: 0x100044310, symSize: 0x30 }
  - { offset: 0x79468, size: 0x8, addend: 0x0, symName: __RNCNvXsL_NtNtCsieiGu2EXtoJ_4core5slice3cmpcNtB7_13SliceContains14slice_containss_0CseYC8vFNOjrM_2cc, symObjAddr: 0x1BF0, symBinAddr: 0x100044340, symSize: 0x20 }
  - { offset: 0x794A9, size: 0x8, addend: 0x0, symName: __RNvXsL_NtNtCsieiGu2EXtoJ_4core5slice3cmpcNtB5_13SliceContains14slice_containsCseYC8vFNOjrM_2cc, symObjAddr: 0x4B00, symBinAddr: 0x100047230, symSize: 0x190 }
  - { offset: 0x79777, size: 0x8, addend: 0x0, symName: __RNCNvXsf_NtNtCsieiGu2EXtoJ_4core5slice3cmpNtNtNtCsHUR1vrdMJt_3std3ffi6os_str8OsStringNtB7_13SliceContains14slice_contains0CseYC8vFNOjrM_2cc, symObjAddr: 0x1C10, symBinAddr: 0x100044360, symSize: 0x30 }
  - { offset: 0x797C0, size: 0x8, addend: 0x0, symName: __RNCNvXsf_NtNtCsieiGu2EXtoJ_4core5slice3cmpReNtB7_13SliceContains14slice_contains0CseYC8vFNOjrM_2cc, symObjAddr: 0x1C40, symBinAddr: 0x100044390, symSize: 0x30 }
  - { offset: 0x7980A, size: 0x8, addend: 0x0, symName: __RNvXsf_NtNtCsieiGu2EXtoJ_4core5slice3cmpReNtB5_13SliceContains14slice_containsCseYC8vFNOjrM_2cc, symObjAddr: 0x5360, symBinAddr: 0x100047A90, symSize: 0x70 }
  - { offset: 0x7995E, size: 0x8, addend: 0x0, symName: __RNvMNtCsieiGu2EXtoJ_4core5sliceSINtNtCslJiobkLta79_5alloc4sync3ArcNtNtCsHUR1vrdMJt_3std4path4PathE4iterCseYC8vFNOjrM_2cc, symObjAddr: 0x1C70, symBinAddr: 0x1000443C0, symSize: 0x20 }
  - { offset: 0x79995, size: 0x8, addend: 0x0, symName: __RNvMNtCsieiGu2EXtoJ_4core5sliceSINtNtCslJiobkLta79_5alloc4sync3ArcNtNtNtCsHUR1vrdMJt_3std3ffi6os_str5OsStrE4iterCseYC8vFNOjrM_2cc, symObjAddr: 0x1C90, symBinAddr: 0x1000443E0, symSize: 0x20 }
  - { offset: 0x799CC, size: 0x8, addend: 0x0, symName: __RNvMNtCsieiGu2EXtoJ_4core5sliceSTINtNtCslJiobkLta79_5alloc4sync3ArcNtNtNtCsHUR1vrdMJt_3std3ffi6os_str5OsStrEBv_E4iterCseYC8vFNOjrM_2cc, symObjAddr: 0x1CB0, symBinAddr: 0x100044400, symSize: 0x20 }
  - { offset: 0x79A03, size: 0x8, addend: 0x0, symName: __RNvMNtCsieiGu2EXtoJ_4core5sliceSTINtNtCslJiobkLta79_5alloc4sync3ArceEINtNtB4_6option6OptionBv_EE4iterCseYC8vFNOjrM_2cc, symObjAddr: 0x1CD0, symBinAddr: 0x100044420, symSize: 0x20 }
  - { offset: 0x7A2BA, size: 0x8, addend: 0x0, symName: __RNvXs1_NtCsieiGu2EXtoJ_4core7convertNtNtCsHUR1vrdMJt_3std7process5StdioINtB5_4IntoBy_E4intoCseYC8vFNOjrM_2cc, symObjAddr: 0x3F80, symBinAddr: 0x1000466B0, symSize: 0x20 }
  - { offset: 0x7A330, size: 0x8, addend: 0x0, symName: __RNvXNtCsieiGu2EXtoJ_4core7convertRINtNtCslJiobkLta79_5alloc4sync3ArcNtNtNtCsHUR1vrdMJt_3std3ffi6os_str5OsStrEINtB2_5AsRefB14_E6as_refCseYC8vFNOjrM_2cc, symObjAddr: 0x3D80, symBinAddr: 0x1000464D0, symSize: 0x20 }
  - { offset: 0x7A5AF, size: 0x8, addend: 0x0, symName: __RNvXs19_NtCsieiGu2EXtoJ_4core3fmtRNtNtCsHUR1vrdMJt_3std7process7CommandNtB6_5Debug3fmtCseYC8vFNOjrM_2cc, symObjAddr: 0x3F60, symBinAddr: 0x100046690, symSize: 0x20 }
  - { offset: 0x7A5FB, size: 0x8, addend: 0x0, symName: __RNvXs1a_NtCsieiGu2EXtoJ_4core3fmtQNtNtCsHUR1vrdMJt_3std7process7CommandNtB6_5Debug3fmtCseYC8vFNOjrM_2cc, symObjAddr: 0x3FA0, symBinAddr: 0x1000466D0, symSize: 0x20 }
  - { offset: 0x7A647, size: 0x8, addend: 0x0, symName: __RNvXs1b_NtCsieiGu2EXtoJ_4core3fmtRINtNtCslJiobkLta79_5alloc4sync3ArceENtB6_7Display3fmtCseYC8vFNOjrM_2cc, symObjAddr: 0x3FC0, symBinAddr: 0x1000466F0, symSize: 0x20 }
  - { offset: 0x7AF3C, size: 0x8, addend: 0x0, symName: __RNvXst_NtNtCsHUR1vrdMJt_3std3ffi6os_strINtNtCslJiobkLta79_5alloc4sync3ArcNtB5_5OsStrEINtNtCsieiGu2EXtoJ_4core7convert4FromNtB5_8OsStringE4fromCseYC8vFNOjrM_2cc, symObjAddr: 0x5610, symBinAddr: 0x100047D40, symSize: 0x90 }
  - { offset: 0x7AFE0, size: 0x8, addend: 0x0, symName: __RNvXsu_NtNtCsHUR1vrdMJt_3std3ffi6os_strINtNtCslJiobkLta79_5alloc4sync3ArcNtB5_5OsStrEINtNtCsieiGu2EXtoJ_4core7convert4FromRB19_E4fromCseYC8vFNOjrM_2cc, symObjAddr: 0x56A0, symBinAddr: 0x100047DD0, symSize: 0x90 }
  - { offset: 0x7B1AD, size: 0x8, addend: 0x0, symName: __RNvXsQ_NtCsHUR1vrdMJt_3std4pathINtNtCslJiobkLta79_5alloc4sync3ArcNtB5_4PathEINtNtCsieiGu2EXtoJ_4core7convert4FromRB11_E4fromCseYC8vFNOjrM_2cc, symObjAddr: 0x4C90, symBinAddr: 0x1000473C0, symSize: 0x50 }
  - { offset: 0x7B2B8, size: 0x8, addend: 0x0, symName: __RNvXs6_NtNtNtCsHUR1vrdMJt_3std2os4unix7processNtNtBb_7process11ChildStderrNtNtNtB9_2fd3raw7AsRawFd9as_raw_fdCseYC8vFNOjrM_2cc, symObjAddr: 0x4050, symBinAddr: 0x100046780, symSize: 0x10 }
  - { offset: 0x7B803, size: 0x8, addend: 0x0, symName: __RNCNvMsd_NtNtCsHUR1vrdMJt_3std4sync14reentrant_lockNtB7_3Tid3set0CseYC8vFNOjrM_2cc, symObjAddr: 0x1B60, symBinAddr: 0x1000442B0, symSize: 0x10 }
  - { offset: 0x7B872, size: 0x8, addend: 0x0, symName: __RNvXsc_NtNtCsHUR1vrdMJt_3std4sync14reentrant_lockINtB5_18ReentrantLockGuardINtNtCsieiGu2EXtoJ_4core4cell7RefCellINtNtNtNtB9_2io8buffered10linewriter10LineWriterNtNtB1T_5stdio9StdoutRawEEENtNtNtB1g_3ops4drop4Drop4dropCseYC8vFNOjrM_2cc, symObjAddr: 0x5290, symBinAddr: 0x1000479C0, symSize: 0xD0 }
  - { offset: 0x7C6E8, size: 0x8, addend: 0x0, symName: __RNCINvNtCsjK30CmJ87bX_9hashbrown3map14equivalent_keyINtNtCslJiobkLta79_5alloc5boxed3BoxSIBP_NtNtNtCsHUR1vrdMJt_3std3ffi6os_str5OsStrEEBO_NtNtCseYC8vFNOjrM_2cc4tool10ToolFamilyE0B2f_, symObjAddr: 0x1990, symBinAddr: 0x1000440E0, symSize: 0x20 }
  - { offset: 0x7C73F, size: 0x8, addend: 0x0, symName: __RNCINvNtCsjK30CmJ87bX_9hashbrown3map14equivalent_keyINtNtCslJiobkLta79_5alloc5boxed3BoxeEBO_INtNtBT_4sync3ArcNtNtNtCsHUR1vrdMJt_3std3ffi6os_str5OsStrEE0CseYC8vFNOjrM_2cc, symObjAddr: 0x19B0, symBinAddr: 0x100044100, symSize: 0x20 }
  - { offset: 0x7C796, size: 0x8, addend: 0x0, symName: __RNCINvNtCsjK30CmJ87bX_9hashbrown3map14equivalent_keyINtNtCslJiobkLta79_5alloc5boxed3BoxeEBO_INtNtBT_4sync3ArceEE0CseYC8vFNOjrM_2cc, symObjAddr: 0x19D0, symBinAddr: 0x100044120, symSize: 0x20 }
  - { offset: 0x7C7ED, size: 0x8, addend: 0x0, symName: __RNCINvNtCsjK30CmJ87bX_9hashbrown3map14equivalent_keyINtNtCslJiobkLta79_5alloc5boxed3BoxeEBO_INtNtCsieiGu2EXtoJ_4core6option6OptionINtNtBT_4sync3ArcNtNtNtCsHUR1vrdMJt_3std3ffi6os_str5OsStrEEE0CseYC8vFNOjrM_2cc, symObjAddr: 0x19F0, symBinAddr: 0x100044140, symSize: 0x20 }
  - { offset: 0x7C844, size: 0x8, addend: 0x0, symName: __RNCINvNtCsjK30CmJ87bX_9hashbrown3map14equivalent_keyNtCseYC8vFNOjrM_2cc12CompilerFlagBO_bE0BQ_, symObjAddr: 0x1A10, symBinAddr: 0x100044160, symSize: 0x20 }
  - { offset: 0x7C89B, size: 0x8, addend: 0x0, symName: __RNCINvNtCsjK30CmJ87bX_9hashbrown3map14equivalent_keyeINtNtCslJiobkLta79_5alloc5boxed3BoxeEINtNtBU_4sync3ArcNtNtNtCsHUR1vrdMJt_3std3ffi6os_str5OsStrEE0CseYC8vFNOjrM_2cc, symObjAddr: 0x1A30, symBinAddr: 0x100044180, symSize: 0x30 }
  - { offset: 0x7C8F2, size: 0x8, addend: 0x0, symName: __RNCINvNtCsjK30CmJ87bX_9hashbrown3map14equivalent_keyeINtNtCslJiobkLta79_5alloc5boxed3BoxeEINtNtBU_4sync3ArceEE0CseYC8vFNOjrM_2cc, symObjAddr: 0x1A60, symBinAddr: 0x1000441B0, symSize: 0x30 }
  - { offset: 0x7C949, size: 0x8, addend: 0x0, symName: __RNCINvNtCsjK30CmJ87bX_9hashbrown3map14equivalent_keyeINtNtCslJiobkLta79_5alloc5boxed3BoxeEINtNtCsieiGu2EXtoJ_4core6option6OptionINtNtBU_4sync3ArcNtNtNtCsHUR1vrdMJt_3std3ffi6os_str5OsStrEEE0CseYC8vFNOjrM_2cc, symObjAddr: 0x1A90, symBinAddr: 0x1000441E0, symSize: 0x30 }
  - { offset: 0x7D1A5, size: 0x8, addend: 0x0, symName: __RNCINvNtCsjK30CmJ87bX_9hashbrown3map11make_hasherINtNtCslJiobkLta79_5alloc5boxed3BoxSIBM_NtNtNtCsHUR1vrdMJt_3std3ffi6os_str5OsStrEENtNtCseYC8vFNOjrM_2cc4tool10ToolFamilyNtNtNtB1v_4hash6random11RandomStateE0B29_, symObjAddr: 0x18A0, symBinAddr: 0x100043FF0, symSize: 0x30 }
  - { offset: 0x7D221, size: 0x8, addend: 0x0, symName: __RNCINvNtCsjK30CmJ87bX_9hashbrown3map11make_hasherINtNtCslJiobkLta79_5alloc5boxed3BoxeEINtNtBQ_4sync3ArcNtNtNtCsHUR1vrdMJt_3std3ffi6os_str5OsStrENtNtNtB1J_4hash6random11RandomStateE0CseYC8vFNOjrM_2cc, symObjAddr: 0x18D0, symBinAddr: 0x100044020, symSize: 0x30 }
  - { offset: 0x7D29D, size: 0x8, addend: 0x0, symName: __RNCINvNtCsjK30CmJ87bX_9hashbrown3map11make_hasherINtNtCslJiobkLta79_5alloc5boxed3BoxeEINtNtBQ_4sync3ArceENtNtNtCsHUR1vrdMJt_3std4hash6random11RandomStateE0CseYC8vFNOjrM_2cc, symObjAddr: 0x1900, symBinAddr: 0x100044050, symSize: 0x30 }
  - { offset: 0x7D319, size: 0x8, addend: 0x0, symName: __RNCINvNtCsjK30CmJ87bX_9hashbrown3map11make_hasherINtNtCslJiobkLta79_5alloc5boxed3BoxeEINtNtCsieiGu2EXtoJ_4core6option6OptionINtNtBQ_4sync3ArcNtNtNtCsHUR1vrdMJt_3std3ffi6os_str5OsStrEENtNtNtB2l_4hash6random11RandomStateE0CseYC8vFNOjrM_2cc, symObjAddr: 0x1930, symBinAddr: 0x100044080, symSize: 0x30 }
  - { offset: 0x7D395, size: 0x8, addend: 0x0, symName: __RNCINvNtCsjK30CmJ87bX_9hashbrown3map11make_hasherNtCseYC8vFNOjrM_2cc12CompilerFlagbNtNtNtCsHUR1vrdMJt_3std4hash6random11RandomStateE0BN_, symObjAddr: 0x1960, symBinAddr: 0x1000440B0, symSize: 0x30 }
  - { offset: 0x7D619, size: 0x8, addend: 0x0, symName: __RNvXCsjK30CmJ87bX_9hashbrowneINtB2_10EquivalentINtNtCslJiobkLta79_5alloc5boxed3BoxeEE10equivalentCseYC8vFNOjrM_2cc, symObjAddr: 0x3D20, symBinAddr: 0x100046470, symSize: 0x60 }
  - { offset: 0x7DCD9, size: 0x8, addend: 0x0, symName: __RNCNvMsm_NtCslJiobkLta79_5alloc4syncINtB7_3ArcShE18allocate_for_slice0CseYC8vFNOjrM_2cc, symObjAddr: 0x1B70, symBinAddr: 0x1000442C0, symSize: 0x30 }
  - { offset: 0x7DD41, size: 0x8, addend: 0x0, symName: __RNCNvMsm_NtCslJiobkLta79_5alloc4syncINtB7_3ArcShE18allocate_for_slices_0CseYC8vFNOjrM_2cc, symObjAddr: 0x1BA0, symBinAddr: 0x1000442F0, symSize: 0x20 }
  - { offset: 0x7E357, size: 0x8, addend: 0x0, symName: __RNvNtCslJiobkLta79_5alloc4sync17data_offset_alignCseYC8vFNOjrM_2cc, symObjAddr: 0x3960, symBinAddr: 0x1000460B0, symSize: 0x130 }
  - { offset: 0x7E5E5, size: 0x8, addend: 0x0, symName: __RNvXs14_NtCslJiobkLta79_5alloc4syncINtB6_3ArceEINtNtCsieiGu2EXtoJ_4core7convert4FromReE4fromCseYC8vFNOjrM_2cc, symObjAddr: 0x3DE0, symBinAddr: 0x100046510, symSize: 0x50 }
  - { offset: 0x7E711, size: 0x8, addend: 0x0, symName: __RNvXs16_NtCslJiobkLta79_5alloc4syncINtB6_3ArceEINtNtCsieiGu2EXtoJ_4core7convert4FromNtNtB8_6string6StringE4fromCseYC8vFNOjrM_2cc, symObjAddr: 0x3E30, symBinAddr: 0x100046560, symSize: 0x130 }
  - { offset: 0x7E9C8, size: 0x8, addend: 0x0, symName: __RNvXss_NtCslJiobkLta79_5alloc4syncINtB5_3ArcNtCseYC8vFNOjrM_2cc10BuildCacheENtNtNtCsieiGu2EXtoJ_4core3ops5deref5Deref5derefBI_, symObjAddr: 0x5590, symBinAddr: 0x100047CC0, symSize: 0x20 }
  - { offset: 0x7EA3B, size: 0x8, addend: 0x0, symName: __RNvXss_NtCslJiobkLta79_5alloc4syncINtB5_3ArcNtNtCsHUR1vrdMJt_3std4path4PathENtNtNtCsieiGu2EXtoJ_4core3ops5deref5Deref5derefCseYC8vFNOjrM_2cc, symObjAddr: 0x55B0, symBinAddr: 0x100047CE0, symSize: 0x20 }
  - { offset: 0x7EAAE, size: 0x8, addend: 0x0, symName: __RNvXss_NtCslJiobkLta79_5alloc4syncINtB5_3ArcNtNtNtCsieiGu2EXtoJ_4core4sync6atomic10AtomicBoolENtNtNtBM_3ops5deref5Deref5derefCseYC8vFNOjrM_2cc, symObjAddr: 0x55D0, symBinAddr: 0x100047D00, symSize: 0x20 }
  - { offset: 0x7EB21, size: 0x8, addend: 0x0, symName: __RNvXss_NtCslJiobkLta79_5alloc4syncINtB5_3ArceENtNtNtCsieiGu2EXtoJ_4core3ops5deref5Deref5derefCseYC8vFNOjrM_2cc, symObjAddr: 0x55F0, symBinAddr: 0x100047D20, symSize: 0x20 }
  - { offset: 0x7EB9A, size: 0x8, addend: 0x0, symName: __RNvXs1g_NtCslJiobkLta79_5alloc4syncINtB6_3ArcNtNtNtCsHUR1vrdMJt_3std3ffi6os_str5OsStrEINtNtCsieiGu2EXtoJ_4core7convert5AsRefBH_E6as_refCseYC8vFNOjrM_2cc, symObjAddr: 0x3FE0, symBinAddr: 0x100046710, symSize: 0x20 }
  - { offset: 0x7EC31, size: 0x8, addend: 0x0, symName: __RNvXsA_NtCslJiobkLta79_5alloc4syncINtB5_3ArcNtCseYC8vFNOjrM_2cc10BuildCacheENtNtNtCsieiGu2EXtoJ_4core3ops4drop4Drop4dropBI_, symObjAddr: 0x4060, symBinAddr: 0x100046790, symSize: 0x80 }
  - { offset: 0x7ED67, size: 0x8, addend: 0x0, symName: __RNvXsA_NtCslJiobkLta79_5alloc4syncINtB5_3ArcNtNtCsHUR1vrdMJt_3std4path4PathENtNtNtCsieiGu2EXtoJ_4core3ops4drop4Drop4dropCseYC8vFNOjrM_2cc, symObjAddr: 0x40E0, symBinAddr: 0x100046810, symSize: 0x80 }
  - { offset: 0x7EE9D, size: 0x8, addend: 0x0, symName: __RNvXsA_NtCslJiobkLta79_5alloc4syncINtB5_3ArcNtNtNtCsieiGu2EXtoJ_4core4sync6atomic10AtomicBoolENtNtNtBM_3ops4drop4Drop4dropCseYC8vFNOjrM_2cc, symObjAddr: 0x4160, symBinAddr: 0x100046890, symSize: 0x80 }
  - { offset: 0x7EFD3, size: 0x8, addend: 0x0, symName: __RNvXsA_NtCslJiobkLta79_5alloc4syncINtB5_3ArcNtNtNtNtCsHUR1vrdMJt_3std4sync4mpmc7context5InnerENtNtNtCsieiGu2EXtoJ_4core3ops4drop4Drop4dropCseYC8vFNOjrM_2cc, symObjAddr: 0x41E0, symBinAddr: 0x100046910, symSize: 0x80 }
  - { offset: 0x7F109, size: 0x8, addend: 0x0, symName: __RNvXsA_NtCslJiobkLta79_5alloc4syncINtB5_3ArceENtNtNtCsieiGu2EXtoJ_4core3ops4drop4Drop4dropCseYC8vFNOjrM_2cc, symObjAddr: 0x4260, symBinAddr: 0x100046990, symSize: 0x80 }
  - { offset: 0x7F2C1, size: 0x8, addend: 0x0, symName: __RNvXsK_NtCslJiobkLta79_5alloc4syncINtB5_4WeakNtCseYC8vFNOjrM_2cc10BuildCacheRNtNtB7_5alloc6GlobalENtNtNtCsieiGu2EXtoJ_4core3ops4drop4Drop4dropBJ_, symObjAddr: 0x42E0, symBinAddr: 0x100046A10, symSize: 0x180 }
  - { offset: 0x7F50E, size: 0x8, addend: 0x0, symName: __RNvXsK_NtCslJiobkLta79_5alloc4syncINtB5_4WeakNtNtCsHUR1vrdMJt_3std4path4PathRNtNtB7_5alloc6GlobalENtNtNtCsieiGu2EXtoJ_4core3ops4drop4Drop4dropCseYC8vFNOjrM_2cc, symObjAddr: 0x4460, symBinAddr: 0x100046B90, symSize: 0x1E0 }
  - { offset: 0x7F75B, size: 0x8, addend: 0x0, symName: __RNvXsK_NtCslJiobkLta79_5alloc4syncINtB5_4WeakNtNtNtCsieiGu2EXtoJ_4core4sync6atomic10AtomicBoolRNtNtB7_5alloc6GlobalENtNtNtBN_3ops4drop4Drop4dropCseYC8vFNOjrM_2cc, symObjAddr: 0x4640, symBinAddr: 0x100046D70, symSize: 0x180 }
  - { offset: 0x7F9A8, size: 0x8, addend: 0x0, symName: __RNvXsK_NtCslJiobkLta79_5alloc4syncINtB5_4WeakNtNtNtNtCsHUR1vrdMJt_3std4sync4mpmc7context5InnerRNtNtB7_5alloc6GlobalENtNtNtCsieiGu2EXtoJ_4core3ops4drop4Drop4dropCseYC8vFNOjrM_2cc, symObjAddr: 0x47C0, symBinAddr: 0x100046EF0, symSize: 0x180 }
  - { offset: 0x7FBF5, size: 0x8, addend: 0x0, symName: __RNvXsK_NtCslJiobkLta79_5alloc4syncINtB5_4WeakeRNtNtB7_5alloc6GlobalENtNtNtCsieiGu2EXtoJ_4core3ops4drop4Drop4dropCseYC8vFNOjrM_2cc, symObjAddr: 0x4940, symBinAddr: 0x100047070, symSize: 0x1C0 }
  - { offset: 0x7FFB4, size: 0x8, addend: 0x0, symName: __RNvXsR_NtCslJiobkLta79_5alloc4syncINtB5_3ArceENtNtCsieiGu2EXtoJ_4core3fmt7Display3fmtCseYC8vFNOjrM_2cc, symObjAddr: 0x4CE0, symBinAddr: 0x100047410, symSize: 0x30 }
  - { offset: 0x8005A, size: 0x8, addend: 0x0, symName: __RNvXsU_NtCslJiobkLta79_5alloc4syncINtB5_3ArcNtCseYC8vFNOjrM_2cc10BuildCacheENtNtCsieiGu2EXtoJ_4core7default7Default7defaultBI_, symObjAddr: 0x4D10, symBinAddr: 0x100047440, symSize: 0x150 }
  - { offset: 0x80271, size: 0x8, addend: 0x0, symName: __RNvXsq_NtCslJiobkLta79_5alloc4syncINtB5_3ArcNtNtNtCsHUR1vrdMJt_3std3ffi6os_str5OsStrENtNtCsieiGu2EXtoJ_4core5clone5Clone5cloneCseYC8vFNOjrM_2cc, symObjAddr: 0x53D0, symBinAddr: 0x100047B00, symSize: 0xA0 }
  - { offset: 0x80369, size: 0x8, addend: 0x0, symName: __RNvXsq_NtCslJiobkLta79_5alloc4syncINtB5_3ArcNtNtNtCsieiGu2EXtoJ_4core4sync6atomic10AtomicBoolENtNtBM_5clone5Clone5cloneCseYC8vFNOjrM_2cc, symObjAddr: 0x5470, symBinAddr: 0x100047BA0, symSize: 0x80 }
  - { offset: 0x80460, size: 0x8, addend: 0x0, symName: __RNvXsq_NtCslJiobkLta79_5alloc4syncINtB5_3ArceENtNtCsieiGu2EXtoJ_4core5clone5Clone5cloneCseYC8vFNOjrM_2cc, symObjAddr: 0x54F0, symBinAddr: 0x100047C20, symSize: 0xA0 }
  - { offset: 0x80E39, size: 0x8, addend: 0x0, symName: __RNvNtCslJiobkLta79_5alloc3fmt6formatCseYC8vFNOjrM_2cc, symObjAddr: 0x38A0, symBinAddr: 0x100045FF0, symSize: 0xC0 }
  - { offset: 0x81015, size: 0x8, addend: 0x0, symName: __RINvMs1_NtCsjK30CmJ87bX_9hashbrown3mapINtB6_7HashMapINtNtCslJiobkLta79_5alloc5boxed3BoxSIBP_NtNtNtCsHUR1vrdMJt_3std3ffi6os_str5OsStrEENtNtCseYC8vFNOjrM_2cc4tool10ToolFamilyNtNtNtB1y_4hash6random11RandomStateE9get_innerBO_EB2c_, symObjAddr: 0x0, symBinAddr: 0x100042850, symSize: 0xF0 }
  - { offset: 0x812F5, size: 0x8, addend: 0x0, symName: __RINvMs1_NtCsjK30CmJ87bX_9hashbrown3mapINtB6_7HashMapINtNtCslJiobkLta79_5alloc5boxed3BoxeEINtNtBT_4sync3ArcNtNtNtCsHUR1vrdMJt_3std3ffi6os_str5OsStrENtNtNtB1M_4hash6random11RandomStateE9get_innereECseYC8vFNOjrM_2cc, symObjAddr: 0xF0, symBinAddr: 0x100042940, symSize: 0x120 }
  - { offset: 0x81590, size: 0x8, addend: 0x0, symName: __RINvMs1_NtCsjK30CmJ87bX_9hashbrown3mapINtB6_7HashMapINtNtCslJiobkLta79_5alloc5boxed3BoxeEINtNtBT_4sync3ArceENtNtNtCsHUR1vrdMJt_3std4hash6random11RandomStateE9get_innereECseYC8vFNOjrM_2cc, symObjAddr: 0x210, symBinAddr: 0x100042A60, symSize: 0x120 }
  - { offset: 0x81804, size: 0x8, addend: 0x0, symName: __RINvMs1_NtCsjK30CmJ87bX_9hashbrown3mapINtB6_7HashMapINtNtCslJiobkLta79_5alloc5boxed3BoxeEINtNtCsieiGu2EXtoJ_4core6option6OptionINtNtBT_4sync3ArcNtNtNtCsHUR1vrdMJt_3std3ffi6os_str5OsStrEENtNtNtB2o_4hash6random11RandomStateE9get_innereECseYC8vFNOjrM_2cc, symObjAddr: 0x330, symBinAddr: 0x100042B80, symSize: 0x120 }
  - { offset: 0x81AAC, size: 0x8, addend: 0x0, symName: __RINvMs1_NtCsjK30CmJ87bX_9hashbrown3mapINtB6_7HashMapNtCseYC8vFNOjrM_2cc12CompilerFlagbNtNtNtCsHUR1vrdMJt_3std4hash6random11RandomStateE9get_innerBO_EBQ_, symObjAddr: 0x450, symBinAddr: 0x100042CA0, symSize: 0xF0 }
  - { offset: 0x81D99, size: 0x8, addend: 0x0, symName: __RINvMsk_NtCsHUR1vrdMJt_3std7processNtB6_7Command10env_removeReECseYC8vFNOjrM_2cc, symObjAddr: 0x540, symBinAddr: 0x100042D90, symSize: 0x70 }
  - { offset: 0x81E10, size: 0x8, addend: 0x0, symName: __RINvMsk_NtCsHUR1vrdMJt_3std7processNtB6_7Command11current_dirINtNtCslJiobkLta79_5alloc6borrow3CowNtNtB8_4path4PathEECseYC8vFNOjrM_2cc, symObjAddr: 0x5B0, symBinAddr: 0x100042E00, symSize: 0x90 }
  - { offset: 0x81E4C, size: 0x8, addend: 0x0, symName: __RINvMsk_NtCsHUR1vrdMJt_3std7processNtB6_7Command3argNtNtCslJiobkLta79_5alloc6string6StringECseYC8vFNOjrM_2cc, symObjAddr: 0x640, symBinAddr: 0x100042E90, symSize: 0x80 }
  - { offset: 0x81E88, size: 0x8, addend: 0x0, symName: __RINvMsk_NtCsHUR1vrdMJt_3std7processNtB6_7Command3argNtNtNtB8_3ffi6os_str8OsStringECseYC8vFNOjrM_2cc, symObjAddr: 0x6C0, symBinAddr: 0x100042F10, symSize: 0x80 }
  - { offset: 0x81EC4, size: 0x8, addend: 0x0, symName: __RINvMsk_NtCsHUR1vrdMJt_3std7processNtB6_7Command3argRNtNtB8_4path4PathECseYC8vFNOjrM_2cc, symObjAddr: 0x740, symBinAddr: 0x100042F90, symSize: 0x60 }
  - { offset: 0x81F0C, size: 0x8, addend: 0x0, symName: __RINvMsk_NtCsHUR1vrdMJt_3std7processNtB6_7Command3argRNtNtB8_4path7PathBufECseYC8vFNOjrM_2cc, symObjAddr: 0x7A0, symBinAddr: 0x100042FF0, symSize: 0x60 }
  - { offset: 0x81F65, size: 0x8, addend: 0x0, symName: __RINvMsk_NtCsHUR1vrdMJt_3std7processNtB6_7Command3argRNtNtNtB8_3ffi6os_str5OsStrECseYC8vFNOjrM_2cc, symObjAddr: 0x800, symBinAddr: 0x100043050, symSize: 0x60 }
  - { offset: 0x81FA0, size: 0x8, addend: 0x0, symName: __RINvMsk_NtCsHUR1vrdMJt_3std7processNtB6_7Command3argReECseYC8vFNOjrM_2cc, symObjAddr: 0x860, symBinAddr: 0x1000430B0, symSize: 0x60 }
  - { offset: 0x81FFB, size: 0x8, addend: 0x0, symName: __RINvMsk_NtCsHUR1vrdMJt_3std7processNtB6_7Command3envRINtNtCslJiobkLta79_5alloc4sync3ArcNtNtNtB8_3ffi6os_str5OsStrEBO_ECseYC8vFNOjrM_2cc, symObjAddr: 0x8C0, symBinAddr: 0x100043110, symSize: 0xA0 }
  - { offset: 0x8207F, size: 0x8, addend: 0x0, symName: __RINvMsk_NtCsHUR1vrdMJt_3std7processNtB6_7Command3envReBO_ECseYC8vFNOjrM_2cc, symObjAddr: 0x960, symBinAddr: 0x1000431B0, symSize: 0xB0 }
  - { offset: 0x82110, size: 0x8, addend: 0x0, symName: __RINvMsk_NtCsHUR1vrdMJt_3std7processNtB6_7Command3envReRNtNtNtB8_3ffi6os_str8OsStringECseYC8vFNOjrM_2cc, symObjAddr: 0xA10, symBinAddr: 0x100043260, symSize: 0xB0 }
  - { offset: 0x82181, size: 0x8, addend: 0x0, symName: __RINvMsk_NtCsHUR1vrdMJt_3std7processNtB6_7Command3newNtNtB8_4path7PathBufECseYC8vFNOjrM_2cc, symObjAddr: 0xAC0, symBinAddr: 0x100043310, symSize: 0xC0 }
  - { offset: 0x821AF, size: 0x8, addend: 0x0, symName: __RINvMsk_NtCsHUR1vrdMJt_3std7processNtB6_7Command3newRNtNtB8_4path4PathECseYC8vFNOjrM_2cc, symObjAddr: 0xB80, symBinAddr: 0x1000433D0, symSize: 0xA0 }
  - { offset: 0x821E9, size: 0x8, addend: 0x0, symName: __RINvMsk_NtCsHUR1vrdMJt_3std7processNtB6_7Command3newRNtNtCslJiobkLta79_5alloc6string6StringECseYC8vFNOjrM_2cc, symObjAddr: 0xC20, symBinAddr: 0x100043470, symSize: 0xA0 }
  - { offset: 0x82223, size: 0x8, addend: 0x0, symName: __RINvMsk_NtCsHUR1vrdMJt_3std7processNtB6_7Command3newRReECseYC8vFNOjrM_2cc, symObjAddr: 0xCC0, symBinAddr: 0x100043510, symSize: 0xA0 }
  - { offset: 0x82250, size: 0x8, addend: 0x0, symName: __RINvMsk_NtCsHUR1vrdMJt_3std7processNtB6_7Command3newReECseYC8vFNOjrM_2cc, symObjAddr: 0xD60, symBinAddr: 0x1000435B0, symSize: 0xA0 }
  - { offset: 0x8228A, size: 0x8, addend: 0x0, symName: __RINvMsk_NtCsHUR1vrdMJt_3std7processNtB6_7Command4argsARej2_BQ_ECseYC8vFNOjrM_2cc, symObjAddr: 0xE00, symBinAddr: 0x100043650, symSize: 0x130 }
  - { offset: 0x822FC, size: 0x8, addend: 0x0, symName: __RINvMsk_NtCsHUR1vrdMJt_3std7processNtB6_7Command4argsINtNtCslJiobkLta79_5alloc3vec3VecNtNtBU_6string6StringEB1m_ECseYC8vFNOjrM_2cc, symObjAddr: 0xF30, symBinAddr: 0x100043780, symSize: 0x140 }
  - { offset: 0x823EC, size: 0x8, addend: 0x0, symName: __RINvMsk_NtCsHUR1vrdMJt_3std7processNtB6_7Command4argsINtNtNtNtCsieiGu2EXtoJ_4core4iter8adapters3map3MapINtNtNtBY_5slice4iter4IterINtNtCslJiobkLta79_5alloc4sync3ArcNtNtNtB8_3ffi6os_str5OsStrEENvYB23_NtNtNtBY_3ops5deref5Deref5derefERB2B_ECseYC8vFNOjrM_2cc, symObjAddr: 0x1170, symBinAddr: 0x1000438C0, symSize: 0x100 }
  - { offset: 0x824A2, size: 0x8, addend: 0x0, symName: __RINvMsk_NtCsHUR1vrdMJt_3std7processNtB6_7Command4argsINtNtNtNtCsieiGu2EXtoJ_4core4iter8adapters6filter6FilterINtNtNtBY_5slice4iter4IterNtNtNtB8_3ffi6os_str8OsStringENCNvMNtCseYC8vFNOjrM_2cc4toolNtB2I_4Tool10to_command0ERB29_EB2K_, symObjAddr: 0x1270, symBinAddr: 0x1000439C0, symSize: 0xD0 }
  - { offset: 0x82520, size: 0x8, addend: 0x0, symName: __RINvMsk_NtCsHUR1vrdMJt_3std7processNtB6_7Command4argsRINtNtCslJiobkLta79_5alloc3vec3VecNtNtNtB8_3ffi6os_str8OsStringERB1n_ECseYC8vFNOjrM_2cc, symObjAddr: 0x1340, symBinAddr: 0x100043A90, symSize: 0xD0 }
  - { offset: 0x825B7, size: 0x8, addend: 0x0, symName: __RINvMsk_NtCsHUR1vrdMJt_3std7processNtB6_7Command4argsRSNtNtCslJiobkLta79_5alloc6string6StringRBR_ECseYC8vFNOjrM_2cc, symObjAddr: 0x1410, symBinAddr: 0x100043B60, symSize: 0xE0 }
  - { offset: 0x8265C, size: 0x8, addend: 0x0, symName: __RINvMsk_NtCsHUR1vrdMJt_3std7processNtB6_7Command4argsRSRNtNtB8_4path4PathRBR_ECseYC8vFNOjrM_2cc, symObjAddr: 0x14F0, symBinAddr: 0x100043C40, symSize: 0xE0 }
  - { offset: 0x826CD, size: 0x8, addend: 0x0, symName: __RINvMsk_NtCsHUR1vrdMJt_3std7processNtB6_7Command5stdinNtB6_5StdioECseYC8vFNOjrM_2cc, symObjAddr: 0x15D0, symBinAddr: 0x100043D20, symSize: 0x50 }
  - { offset: 0x82708, size: 0x8, addend: 0x0, symName: __RINvMsk_NtCsHUR1vrdMJt_3std7processNtB6_7Command6stderrNtB6_5StdioECseYC8vFNOjrM_2cc, symObjAddr: 0x1620, symBinAddr: 0x100043D70, symSize: 0x50 }
  - { offset: 0x82743, size: 0x8, addend: 0x0, symName: __RINvMsk_NtCsHUR1vrdMJt_3std7processNtB6_7Command6stdoutNtB6_5StdioECseYC8vFNOjrM_2cc, symObjAddr: 0x1670, symBinAddr: 0x100043DC0, symSize: 0x50 }
  - { offset: 0x8294D, size: 0x8, addend: 0x0, symName: __RINvMsk_NtCslJiobkLta79_5alloc4syncINtB6_3ArcShE19allocate_for_layoutNCNvMsm_B6_Bx_18allocate_for_slice0NCB17_s_0ECseYC8vFNOjrM_2cc, symObjAddr: 0x16C0, symBinAddr: 0x100043E10, symSize: 0x1E0 }
  - { offset: 0x82C79, size: 0x8, addend: 0x0, symName: __RNvMs1_NtCsjK30CmJ87bX_9hashbrown3mapINtB5_7HashMapINtNtCslJiobkLta79_5alloc5boxed3BoxSIBO_NtNtNtCsHUR1vrdMJt_3std3ffi6os_str5OsStrEENtNtCseYC8vFNOjrM_2cc4tool10ToolFamilyNtNtNtB1x_4hash6random11RandomStateE6insertB2b_, symObjAddr: 0x1CF0, symBinAddr: 0x100044440, symSize: 0x250 }
  - { offset: 0x82ED7, size: 0x8, addend: 0x0, symName: __RNvMs1_NtCsjK30CmJ87bX_9hashbrown3mapINtB5_7HashMapINtNtCslJiobkLta79_5alloc5boxed3BoxeEINtNtBS_4sync3ArcNtNtNtCsHUR1vrdMJt_3std3ffi6os_str5OsStrENtNtNtB1L_4hash6random11RandomStateE6insertCseYC8vFNOjrM_2cc, symObjAddr: 0x1F40, symBinAddr: 0x100044690, symSize: 0x260 }
  - { offset: 0x83136, size: 0x8, addend: 0x0, symName: __RNvMs1_NtCsjK30CmJ87bX_9hashbrown3mapINtB5_7HashMapINtNtCslJiobkLta79_5alloc5boxed3BoxeEINtNtBS_4sync3ArceENtNtNtCsHUR1vrdMJt_3std4hash6random11RandomStateE6insertCseYC8vFNOjrM_2cc, symObjAddr: 0x21A0, symBinAddr: 0x1000448F0, symSize: 0x260 }
  - { offset: 0x83395, size: 0x8, addend: 0x0, symName: __RNvMs1_NtCsjK30CmJ87bX_9hashbrown3mapINtB5_7HashMapINtNtCslJiobkLta79_5alloc5boxed3BoxeEINtNtCsieiGu2EXtoJ_4core6option6OptionINtNtBS_4sync3ArcNtNtNtCsHUR1vrdMJt_3std3ffi6os_str5OsStrEENtNtNtB2n_4hash6random11RandomStateE6insertCseYC8vFNOjrM_2cc, symObjAddr: 0x2400, symBinAddr: 0x100044B50, symSize: 0x280 }
  - { offset: 0x835F4, size: 0x8, addend: 0x0, symName: __RNvMs1_NtCsjK30CmJ87bX_9hashbrown3mapINtB5_7HashMapNtCseYC8vFNOjrM_2cc12CompilerFlagbNtNtNtCsHUR1vrdMJt_3std4hash6random11RandomStateE6insertBP_, symObjAddr: 0x2680, symBinAddr: 0x100044DD0, symSize: 0x260 }
  - { offset: 0x83886, size: 0x8, addend: 0x0, symName: __RNvMsI_NtCsHUR1vrdMJt_3std7processNtB5_10ExitStatus7successCseYC8vFNOjrM_2cc, symObjAddr: 0x30B0, symBinAddr: 0x100045800, symSize: 0x60 }
  - { offset: 0x83ACC, size: 0x8, addend: 0x0, symName: __RNvMsc_NtCslJiobkLta79_5alloc4syncINtB5_3ArcNtCslzRnRZxZnvp_9jobserver11HelperStateE3newCseYC8vFNOjrM_2cc, symObjAddr: 0x3110, symBinAddr: 0x100045860, symSize: 0xE0 }
  - { offset: 0x83C79, size: 0x8, addend: 0x0, symName: __RNvMsc_NtCslJiobkLta79_5alloc4syncINtB5_3ArcNtNtNtCsieiGu2EXtoJ_4core4sync6atomic10AtomicBoolE3newCseYC8vFNOjrM_2cc, symObjAddr: 0x31F0, symBinAddr: 0x100045940, symSize: 0xA0 }
  - { offset: 0x83DCB, size: 0x8, addend: 0x0, symName: __RNvMsj_NtCslJiobkLta79_5alloc4syncINtB5_3ArcNtCseYC8vFNOjrM_2cc10BuildCacheE9drop_slowBI_, symObjAddr: 0x3290, symBinAddr: 0x1000459E0, symSize: 0x70 }
  - { offset: 0x83EA6, size: 0x8, addend: 0x0, symName: __RNvMsj_NtCslJiobkLta79_5alloc4syncINtB5_3ArcNtNtCsHUR1vrdMJt_3std4path4PathE11from_raw_inCseYC8vFNOjrM_2cc, symObjAddr: 0x3300, symBinAddr: 0x100045A50, symSize: 0xA0 }
  - { offset: 0x83FEC, size: 0x8, addend: 0x0, symName: __RNvMsj_NtCslJiobkLta79_5alloc4syncINtB5_3ArcNtNtCsHUR1vrdMJt_3std4path4PathE9drop_slowCseYC8vFNOjrM_2cc, symObjAddr: 0x33A0, symBinAddr: 0x100045AF0, symSize: 0x50 }
  - { offset: 0x840C7, size: 0x8, addend: 0x0, symName: __RNvMsj_NtCslJiobkLta79_5alloc4syncINtB5_3ArcNtNtNtCsHUR1vrdMJt_3std3ffi6os_str5OsStrE11from_raw_inCseYC8vFNOjrM_2cc, symObjAddr: 0x33F0, symBinAddr: 0x100045B40, symSize: 0xA0 }
  - { offset: 0x8420D, size: 0x8, addend: 0x0, symName: __RNvMsj_NtCslJiobkLta79_5alloc4syncINtB5_3ArcNtNtNtCsieiGu2EXtoJ_4core4sync6atomic10AtomicBoolE9drop_slowCseYC8vFNOjrM_2cc, symObjAddr: 0x3490, symBinAddr: 0x100045BE0, symSize: 0x40 }
  - { offset: 0x84318, size: 0x8, addend: 0x0, symName: __RNvMsj_NtCslJiobkLta79_5alloc4syncINtB5_3ArcNtNtNtNtCsHUR1vrdMJt_3std3sys6os_str5bytes5SliceE11from_raw_inCseYC8vFNOjrM_2cc, symObjAddr: 0x34D0, symBinAddr: 0x100045C20, symSize: 0xA0 }
  - { offset: 0x84485, size: 0x8, addend: 0x0, symName: __RNvMsj_NtCslJiobkLta79_5alloc4syncINtB5_3ArcNtNtNtNtCsHUR1vrdMJt_3std4sync4mpmc7context5InnerE9drop_slowCseYC8vFNOjrM_2cc, symObjAddr: 0x3570, symBinAddr: 0x100045CC0, symSize: 0x70 }
  - { offset: 0x84542, size: 0x8, addend: 0x0, symName: __RNvMsj_NtCslJiobkLta79_5alloc4syncINtB5_3ArceE11from_raw_inCseYC8vFNOjrM_2cc, symObjAddr: 0x35E0, symBinAddr: 0x100045D30, symSize: 0xA0 }
  - { offset: 0x8467B, size: 0x8, addend: 0x0, symName: __RNvMsj_NtCslJiobkLta79_5alloc4syncINtB5_3ArceE9drop_slowCseYC8vFNOjrM_2cc, symObjAddr: 0x3680, symBinAddr: 0x100045DD0, symSize: 0x50 }
  - { offset: 0x84744, size: 0x8, addend: 0x0, symName: __RNvMsm_NtCslJiobkLta79_5alloc4syncINtB5_3ArcShE15copy_from_sliceCseYC8vFNOjrM_2cc, symObjAddr: 0x36D0, symBinAddr: 0x100045E20, symSize: 0xD0 }
  - { offset: 0x8489F, size: 0x8, addend: 0x0, symName: __RNvMsm_NtCslJiobkLta79_5alloc4syncINtB5_3ArcShE18allocate_for_sliceCseYC8vFNOjrM_2cc, symObjAddr: 0x37A0, symBinAddr: 0x100045EF0, symSize: 0xA0 }
  - { offset: 0x84921, size: 0x8, addend: 0x0, symName: __RNvMsv_NtCsHUR1vrdMJt_3std7processNtB5_5Stdio4nullCseYC8vFNOjrM_2cc, symObjAddr: 0x3840, symBinAddr: 0x100045F90, symSize: 0x20 }
  - { offset: 0x84934, size: 0x8, addend: 0x0, symName: __RNvMsv_NtCsHUR1vrdMJt_3std7processNtB5_5Stdio5pipedCseYC8vFNOjrM_2cc, symObjAddr: 0x3860, symBinAddr: 0x100045FB0, symSize: 0x20 }
  - { offset: 0x84947, size: 0x8, addend: 0x0, symName: __RNvMsv_NtCsHUR1vrdMJt_3std7processNtB5_5Stdio7inheritCseYC8vFNOjrM_2cc, symObjAddr: 0x3880, symBinAddr: 0x100045FD0, symSize: 0x20 }
  - { offset: 0x863C6, size: 0x8, addend: 0x0, symName: __RINvMNtCslJiobkLta79_5alloc5sliceSRe8into_vecNtNtB5_5alloc6GlobalECseYC8vFNOjrM_2cc, symObjAddr: 0x0, symBinAddr: 0x100047EA0, symSize: 0x40 }
  - { offset: 0x8759C, size: 0x8, addend: 0x0, symName: __RINvNtNtCsieiGu2EXtoJ_4core5slice5index5rangeINtNtNtB6_3ops5range9RangeFromjEECseYC8vFNOjrM_2cc, symObjAddr: 0x40, symBinAddr: 0x100047EE0, symSize: 0x280 }
  - { offset: 0x87761, size: 0x8, addend: 0x0, symName: __RINvNtNtCsieiGu2EXtoJ_4core5slice5index5rangeNtNtNtB6_3ops5range9RangeFullECseYC8vFNOjrM_2cc, symObjAddr: 0x2C0, symBinAddr: 0x100048160, symSize: 0x280 }
  - { offset: 0x87930, size: 0x8, addend: 0x0, symName: __RNvNvXs0_NtNtCsieiGu2EXtoJ_4core5slice5indexjINtB7_10SliceIndexSpE13get_unchecked18precondition_checkCseYC8vFNOjrM_2cc, symObjAddr: 0x2420, symBinAddr: 0x100049DA0, symSize: 0xA0 }
  - { offset: 0x879A4, size: 0x8, addend: 0x0, symName: __RNvNvXs1_NtNtCsieiGu2EXtoJ_4core5slice5indexNtNtNtBb_3ops11index_range10IndexRangeINtB7_10SliceIndexSpE17get_unchecked_mut18precondition_checkCseYC8vFNOjrM_2cc, symObjAddr: 0x24C0, symBinAddr: 0x100049E40, symSize: 0xA0 }
  - { offset: 0x87A18, size: 0x8, addend: 0x0, symName: __RNvNvXs2_NtNtCsieiGu2EXtoJ_4core5slice5indexINtNtNtBb_3ops5range5RangejEINtB7_10SliceIndexSpE13get_unchecked18precondition_checkCseYC8vFNOjrM_2cc, symObjAddr: 0x2560, symBinAddr: 0x100049EE0, symSize: 0xC0 }
  - { offset: 0x87A94, size: 0x8, addend: 0x0, symName: __RNvNvXs2_NtNtCsieiGu2EXtoJ_4core5slice5indexINtNtNtBb_3ops5range5RangejEINtB7_10SliceIndexSpE17get_unchecked_mut18precondition_checkCseYC8vFNOjrM_2cc, symObjAddr: 0x2620, symBinAddr: 0x100049FA0, symSize: 0xC0 }
  - { offset: 0x87E99, size: 0x8, addend: 0x0, symName: __RNvNtNtCsieiGu2EXtoJ_4core5slice6memchr6memchrCseYC8vFNOjrM_2cc, symObjAddr: 0x2340, symBinAddr: 0x100049CC0, symSize: 0xE0 }
  - { offset: 0x88C40, size: 0x8, addend: 0x0, symName: __RINvYINtNtNtCsieiGu2EXtoJ_4core3str4iter5SplitNtB8_12IsWhitespaceENtNtNtNtBa_4iter6traits8iterator8Iterator4findQNtB8_10IsNotEmptyECseYC8vFNOjrM_2cc, symObjAddr: 0x950, symBinAddr: 0x1000483E0, symSize: 0x90 }
  - { offset: 0x88CBF, size: 0x8, addend: 0x0, symName: __RINvYINtNtNtCsieiGu2EXtoJ_4core3str4iter5SplitNtB8_12IsWhitespaceENtNtNtNtBa_4iter6traits8iterator8Iterator8try_folduNCINvNvB12_4find5checkReQNtB8_10IsNotEmptyE0INtNtNtBa_3ops12control_flow11ControlFlowB2d_EECseYC8vFNOjrM_2cc, symObjAddr: 0x9E0, symBinAddr: 0x100048470, symSize: 0x1A0 }
  - { offset: 0x88D72, size: 0x8, addend: 0x0, symName: __RINvYINtNtNtCsieiGu2EXtoJ_4core3str4iter5SplitcENtNtNtNtBa_4iter6traits8iterator8Iterator3mapmNCNCNvMs4_CseYC8vFNOjrM_2ccNtB1E_5Build23apple_deployment_targets0_00EB1E_, symObjAddr: 0xB80, symBinAddr: 0x100048610, symSize: 0x30 }
  - { offset: 0x88DE0, size: 0x8, addend: 0x0, symName: __RINvYINtNtNtCsieiGu2EXtoJ_4core3str4iter5SplitcENtNtNtNtBa_4iter6traits8iterator8Iterator7collectINtNtCslJiobkLta79_5alloc3vec3VecReEECseYC8vFNOjrM_2cc, symObjAddr: 0xBB0, symBinAddr: 0x100048640, symSize: 0x70 }
  - { offset: 0x88E76, size: 0x8, addend: 0x0, symName: __RINvYNtNtNtCsieiGu2EXtoJ_4core3str4iter15SplitWhitespaceNtNtNtNtB9_4iter6traits8iterator8Iterator3mapNtNtCslJiobkLta79_5alloc6string6StringNCNvMs4_CseYC8vFNOjrM_2ccNtB2l_5Build8env_tool0EB2l_, symObjAddr: 0xC80, symBinAddr: 0x1000486B0, symSize: 0x30 }
  - { offset: 0x88EE4, size: 0x8, addend: 0x0, symName: __RINvYNtNtNtCsieiGu2EXtoJ_4core3str4iter15SplitWhitespaceNtNtNtNtB9_4iter6traits8iterator8Iterator3mapNtNtCslJiobkLta79_5alloc6string6StringNCNvMs4_CseYC8vFNOjrM_2ccNtB2l_5Build8env_tools_0EB2l_, symObjAddr: 0xCB0, symBinAddr: 0x1000486E0, symSize: 0x30 }
  - { offset: 0x88F52, size: 0x8, addend: 0x0, symName: __RINvYNtNtNtCsieiGu2EXtoJ_4core3str4iter20SplitAsciiWhitespaceNtNtNtNtB9_4iter6traits8iterator8Iterator3mapNtNtCslJiobkLta79_5alloc6string6StringNvYeNtB1I_8ToString9to_stringECseYC8vFNOjrM_2cc, symObjAddr: 0xCE0, symBinAddr: 0x100048710, symSize: 0x20 }
  - { offset: 0x88FF0, size: 0x8, addend: 0x0, symName: __RNvYINtNtNtCsieiGu2EXtoJ_4core3str4iter5SplitcENtNtNtNtB9_4iter6traits8iterator8Iterator9size_hintCseYC8vFNOjrM_2cc, symObjAddr: 0x47A0, symBinAddr: 0x10004BFA0, symSize: 0x30 }
  - { offset: 0x89025, size: 0x8, addend: 0x0, symName: __RNvYNtNtNtCsieiGu2EXtoJ_4core3str4iter5CharsNtNtNtNtB8_4iter6traits8iterator8Iterator3nthCseYC8vFNOjrM_2cc, symObjAddr: 0x4990, symBinAddr: 0x10004C0B0, symSize: 0x70 }
  - { offset: 0x89125, size: 0x8, addend: 0x0, symName: __RNCINvXsK_NtNtNtCsieiGu2EXtoJ_4core4iter6traits5accumjNtB8_3Sum3sumINtNtNtBc_8adapters3map3MapINtNtNtBe_5slice4iter4IterINtNtCslJiobkLta79_5alloc4sync3ArcNtNtCsHUR1vrdMJt_3std4path4PathEENCINvNvXs1_NtB18_6filterINtB3a_6FilterppENtNtBa_8iterator8Iterator5count8to_usizeRB1U_NCNvMs4_CseYC8vFNOjrM_2ccNtB4v_5Build15cuda_file_count0E0EE0B4v_, symObjAddr: 0xD00, symBinAddr: 0x100048730, symSize: 0x40 }
  - { offset: 0x89185, size: 0x8, addend: 0x0, symName: __RNCINvXsq_NtNtNtCsieiGu2EXtoJ_4core4iter6traits5accumhNtB8_3Sum3sumINtNtNtBc_8adapters3map3MapINtNtNtBe_5array4iter8IntoIterbKj20_ENCNvXNtNtBe_3str4iterNtB2a_5CharsNtNtBa_8iterator8Iterator10advance_by0EE0CseYC8vFNOjrM_2cc, symObjAddr: 0xD40, symBinAddr: 0x100048770, symSize: 0x40 }
  - { offset: 0x89237, size: 0x8, addend: 0x0, symName: __RNvYINtNtNtCslJiobkLta79_5alloc3vec9into_iter8IntoIterNtNtB9_6string6StringENtNtNtNtCsieiGu2EXtoJ_4core4iter6traits10exact_size17ExactSizeIterator3lenCseYC8vFNOjrM_2cc, symObjAddr: 0x48B0, symBinAddr: 0x10004BFD0, symSize: 0xE0 }
  - { offset: 0x8936B, size: 0x8, addend: 0x0, symName: __RNvXNtNtNtCsieiGu2EXtoJ_4core4iter6traits7collectINtNtNtB8_3str4iter5SplitAcj2_ENtB2_12IntoIterator9into_iterCseYC8vFNOjrM_2cc, symObjAddr: 0x3030, symBinAddr: 0x10004A9B0, symSize: 0x30 }
  - { offset: 0x893A3, size: 0x8, addend: 0x0, symName: __RNvXNtNtNtCsieiGu2EXtoJ_4core4iter6traits7collectINtNtNtB8_3str4iter5SplitReENtB2_12IntoIterator9into_iterCseYC8vFNOjrM_2cc, symObjAddr: 0x3060, symBinAddr: 0x10004A9E0, symSize: 0x30 }
  - { offset: 0x893DB, size: 0x8, addend: 0x0, symName: __RNvXNtNtNtCsieiGu2EXtoJ_4core4iter6traits7collectINtNtNtB8_3str4iter5SplitcENtB2_12IntoIterator9into_iterCseYC8vFNOjrM_2cc, symObjAddr: 0x3090, symBinAddr: 0x10004AA10, symSize: 0x30 }
  - { offset: 0x89A7B, size: 0x8, addend: 0x0, symName: __RNCNvMsp_NtNtCsieiGu2EXtoJ_4core3str4iterINtB7_20MatchIndicesInternalAcj2_E4next0CseYC8vFNOjrM_2cc, symObjAddr: 0xFB0, symBinAddr: 0x1000489E0, symSize: 0xD0 }
  - { offset: 0x89BC1, size: 0x8, addend: 0x0, symName: __RNCNvMsp_NtNtCsieiGu2EXtoJ_4core3str4iterINtB7_20MatchIndicesInternalReE4next0CseYC8vFNOjrM_2cc, symObjAddr: 0x1080, symBinAddr: 0x100048AB0, symSize: 0xD0 }
  - { offset: 0x89D13, size: 0x8, addend: 0x0, symName: __RNCNvXNtNtCsieiGu2EXtoJ_4core3str4iterNtB4_5CharsNtNtNtNtB8_4iter6traits8iterator8Iterator10advance_by0CseYC8vFNOjrM_2cc, symObjAddr: 0x1150, symBinAddr: 0x100048B80, symSize: 0x20 }
  - { offset: 0x89D51, size: 0x8, addend: 0x0, symName: __RNvXNtNtCsieiGu2EXtoJ_4core3str4iterNtB2_5CharsNtNtNtNtB6_4iter6traits8iterator8Iterator10advance_byCseYC8vFNOjrM_2cc, symObjAddr: 0x27A0, symBinAddr: 0x10004A120, symSize: 0x750 }
  - { offset: 0x8A37B, size: 0x8, addend: 0x0, symName: __RNvXNtNtCsieiGu2EXtoJ_4core3str4iterNtB2_5CharsNtNtNtNtB6_4iter6traits8iterator8Iterator4nextCseYC8vFNOjrM_2cc, symObjAddr: 0x2EF0, symBinAddr: 0x10004A870, symSize: 0x60 }
  - { offset: 0x8A550, size: 0x8, addend: 0x0, symName: __RNvXs3_NtNtCsieiGu2EXtoJ_4core3str4iterNtB5_11CharIndicesNtNtNtNtB9_4iter6traits8iterator8Iterator4nextCseYC8vFNOjrM_2cc, symObjAddr: 0x3460, symBinAddr: 0x10004AD70, symSize: 0x110 }
  - { offset: 0x8A795, size: 0x8, addend: 0x0, symName: __RNvXs4_NtNtCsieiGu2EXtoJ_4core3str4iterNtB5_11CharIndicesNtNtNtNtB9_4iter6traits12double_ended19DoubleEndedIterator9next_backCseYC8vFNOjrM_2cc, symObjAddr: 0x3730, symBinAddr: 0x10004AFE0, symSize: 0x150 }
  - { offset: 0x8A8F5, size: 0x8, addend: 0x0, symName: __RNvXsD_NtNtCsieiGu2EXtoJ_4core3str4iterNtB5_20SplitAsciiWhitespaceNtNtNtNtB9_4iter6traits8iterator8Iterator4nextCseYC8vFNOjrM_2cc, symObjAddr: 0x3C20, symBinAddr: 0x10004B4D0, symSize: 0x20 }
  - { offset: 0x8A923, size: 0x8, addend: 0x0, symName: __RNvXsD_NtNtCsieiGu2EXtoJ_4core3str4iterNtB5_20SplitAsciiWhitespaceNtNtNtNtB9_4iter6traits8iterator8Iterator9size_hintCseYC8vFNOjrM_2cc, symObjAddr: 0x3C40, symBinAddr: 0x10004B4F0, symSize: 0x60 }
  - { offset: 0x8A9AC, size: 0x8, addend: 0x0, symName: __RNvXsX_NtNtCsieiGu2EXtoJ_4core3str4iterINtB5_5SplitAcj2_ENtNtNtNtB9_4iter6traits8iterator8Iterator4nextCseYC8vFNOjrM_2cc, symObjAddr: 0x3CA0, symBinAddr: 0x10004B550, symSize: 0x20 }
  - { offset: 0x8A9E3, size: 0x8, addend: 0x0, symName: __RNvXsX_NtNtCsieiGu2EXtoJ_4core3str4iterINtB5_5SplitNtB7_12IsWhitespaceENtNtNtNtB9_4iter6traits8iterator8Iterator4nextCseYC8vFNOjrM_2cc, symObjAddr: 0x3CC0, symBinAddr: 0x10004B570, symSize: 0x20 }
  - { offset: 0x8AA1A, size: 0x8, addend: 0x0, symName: __RNvXsX_NtNtCsieiGu2EXtoJ_4core3str4iterINtB5_5SplitReENtNtNtNtB9_4iter6traits8iterator8Iterator4nextCseYC8vFNOjrM_2cc, symObjAddr: 0x3CE0, symBinAddr: 0x10004B590, symSize: 0x20 }
  - { offset: 0x8AA57, size: 0x8, addend: 0x0, symName: __RNvXsz_NtNtCsieiGu2EXtoJ_4core3str4iterNtB5_15SplitWhitespaceNtNtNtNtB9_4iter6traits8iterator8Iterator4nextCseYC8vFNOjrM_2cc, symObjAddr: 0x4740, symBinAddr: 0x10004BF40, symSize: 0x30 }
  - { offset: 0x8AAA3, size: 0x8, addend: 0x0, symName: __RNvXsz_NtNtCsieiGu2EXtoJ_4core3str4iterNtB5_15SplitWhitespaceNtNtNtNtB9_4iter6traits8iterator8Iterator9size_hintCseYC8vFNOjrM_2cc, symObjAddr: 0x4770, symBinAddr: 0x10004BF70, symSize: 0x30 }
  - { offset: 0x8AFA8, size: 0x8, addend: 0x0, symName: __RNvNvXs5_NtNtCsieiGu2EXtoJ_4core3str6traitsINtNtNtBb_3ops5range5RangejEINtNtNtBb_5slice5index10SliceIndexeE13get_unchecked18precondition_checkCseYC8vFNOjrM_2cc, symObjAddr: 0x26E0, symBinAddr: 0x10004A060, symSize: 0xC0 }
  - { offset: 0x8B025, size: 0x8, addend: 0x0, symName: __RNvXNtNtCsieiGu2EXtoJ_4core3str6traitseNtNtB6_3cmp3Ord3cmpCseYC8vFNOjrM_2cc, symObjAddr: 0x2F50, symBinAddr: 0x10004A8D0, symSize: 0xE0 }
  - { offset: 0x8B197, size: 0x8, addend: 0x0, symName: __RNvXs2_NtNtCsieiGu2EXtoJ_4core3str6traitseINtNtNtB9_3ops5index5IndexINtNtBJ_5range5RangejEE5indexCseYC8vFNOjrM_2cc, symObjAddr: 0x33F0, symBinAddr: 0x10004AD00, symSize: 0x40 }
  - { offset: 0x8B1DA, size: 0x8, addend: 0x0, symName: __RNvXs2_NtNtCsieiGu2EXtoJ_4core3str6traitseINtNtNtB9_3ops5index5IndexINtNtBJ_5range9RangeFromjEE5indexCseYC8vFNOjrM_2cc, symObjAddr: 0x3430, symBinAddr: 0x10004AD40, symSize: 0x30 }
  - { offset: 0x8B223, size: 0x8, addend: 0x0, symName: __RNvXs_NtNtCsieiGu2EXtoJ_4core3str6traitseNtNtB8_3cmp9PartialEq2eqCseYC8vFNOjrM_2cc, symObjAddr: 0x3D00, symBinAddr: 0x10004B5B0, symSize: 0x90 }
  - { offset: 0x8C532, size: 0x8, addend: 0x0, symName: __RINvMNtCslJiobkLta79_5alloc5sliceSRe8into_vecNtNtB5_5alloc6GlobalECseYC8vFNOjrM_2cc, symObjAddr: 0x0, symBinAddr: 0x100047EA0, symSize: 0x40 }
  - { offset: 0x8C5F0, size: 0x8, addend: 0x0, symName: __RNvXNvXNvMNtCslJiobkLta79_5alloc5sliceSp9to_vec_inpNtB5_10ConvertVec6to_vecINtB2_9DropGuardNtNtBa_6string6StringNtNtBa_5alloc6GlobalENtNtNtCsieiGu2EXtoJ_4core3ops4drop4Drop4dropCseYC8vFNOjrM_2cc, symObjAddr: 0x30C0, symBinAddr: 0x10004AA40, symSize: 0x30 }
  - { offset: 0x8C62C, size: 0x8, addend: 0x0, symName: __RNvXNvXNvMNtCslJiobkLta79_5alloc5sliceSp9to_vec_inpNtB5_10ConvertVec6to_vecINtB2_9DropGuardNtNtNtCsHUR1vrdMJt_3std3ffi6os_str8OsStringNtNtBa_5alloc6GlobalENtNtNtCsieiGu2EXtoJ_4core3ops4drop4Drop4dropCseYC8vFNOjrM_2cc, symObjAddr: 0x30F0, symBinAddr: 0x10004AA70, symSize: 0x30 }
  - { offset: 0x8C668, size: 0x8, addend: 0x0, symName: __RNvXNvXNvMNtCslJiobkLta79_5alloc5sliceSp9to_vec_inpNtB5_10ConvertVec6to_vecINtB2_9DropGuardTNtNtNtCsHUR1vrdMJt_3std3ffi6os_str8OsStringB1s_ENtNtBa_5alloc6GlobalENtNtNtCsieiGu2EXtoJ_4core3ops4drop4Drop4dropCseYC8vFNOjrM_2cc, symObjAddr: 0x3120, symBinAddr: 0x10004AAA0, symSize: 0x30 }
  - { offset: 0x8C747, size: 0x8, addend: 0x0, symName: __RNvXs6_NtCslJiobkLta79_5alloc5sliceShINtB5_16SpecCloneIntoVechNtNtB7_5alloc6GlobalE10clone_intoCseYC8vFNOjrM_2cc, symObjAddr: 0x3B60, symBinAddr: 0x10004B410, symSize: 0xC0 }
  - { offset: 0x8CAB7, size: 0x8, addend: 0x0, symName: __RNvXs3_NtNtCslJiobkLta79_5alloc3vec9into_iterINtB5_8IntoIterNtNtB9_6string6StringENtNtNtNtCsieiGu2EXtoJ_4core4iter6traits8iterator8Iterator4nextCseYC8vFNOjrM_2cc, symObjAddr: 0x35D0, symBinAddr: 0x10004AE80, symSize: 0x100 }
  - { offset: 0x8CC15, size: 0x8, addend: 0x0, symName: __RNvXs3_NtNtCslJiobkLta79_5alloc3vec9into_iterINtB5_8IntoIterNtNtB9_6string6StringENtNtNtNtCsieiGu2EXtoJ_4core4iter6traits8iterator8Iterator9size_hintCseYC8vFNOjrM_2cc, symObjAddr: 0x36D0, symBinAddr: 0x10004AF80, symSize: 0x60 }
  - { offset: 0x8CD0A, size: 0x8, addend: 0x0, symName: __RNvXNvXsd_NtNtCslJiobkLta79_5alloc3vec9into_iterINtB8_8IntoIterppENtNtNtCsieiGu2EXtoJ_4core3ops4drop4Drop4dropINtB2_9DropGuardNtNtBc_6string6StringNtNtBc_5alloc6GlobalEB12_4dropCseYC8vFNOjrM_2cc, symObjAddr: 0x3380, symBinAddr: 0x10004AC90, symSize: 0x70 }
  - { offset: 0x8CE48, size: 0x8, addend: 0x0, symName: __RNvXsd_NtNtCslJiobkLta79_5alloc3vec9into_iterINtB5_8IntoIterNtNtB9_6string6StringENtNtNtCsieiGu2EXtoJ_4core3ops4drop4Drop4dropCseYC8vFNOjrM_2cc, symObjAddr: 0x40F0, symBinAddr: 0x10004B910, symSize: 0x90 }
  - { offset: 0x8CFF5, size: 0x8, addend: 0x0, symName: __RNvXNvXs5_NtNtCslJiobkLta79_5alloc3vec5drainINtB8_5DrainppENtNtNtCsieiGu2EXtoJ_4core3ops4drop4Drop4dropINtB2_9DropGuardNtNtNtNtCsHUR1vrdMJt_3std4sync4mpmc5waker5EntryNtNtBc_5alloc6GlobalEBV_4dropCseYC8vFNOjrM_2cc, symObjAddr: 0x3150, symBinAddr: 0x10004AAD0, symSize: 0x1C0 }
  - { offset: 0x8D32C, size: 0x8, addend: 0x0, symName: __RNvXs5_NtNtCslJiobkLta79_5alloc3vec5drainINtB5_5DrainNtNtNtNtCsHUR1vrdMJt_3std4sync4mpmc5waker5EntryENtNtNtCsieiGu2EXtoJ_4core3ops4drop4Drop4dropCseYC8vFNOjrM_2cc, symObjAddr: 0x3880, symBinAddr: 0x10004B130, symSize: 0x2E0 }
  - { offset: 0x8E30E, size: 0x8, addend: 0x0, symName: __RNCNvMsd_NtNtNtCsHUR1vrdMJt_3std4sync6poison6rwlockINtB7_15RwLockReadGuardINtNtNtNtBd_11collections4hash3map7HashMapINtNtCslJiobkLta79_5alloc5boxed3BoxSIB1R_NtNtNtBd_3ffi6os_str5OsStrEENtNtCseYC8vFNOjrM_2cc4tool10ToolFamilyEE3new0B31_, symObjAddr: 0xD80, symBinAddr: 0x1000487B0, symSize: 0x50 }
  - { offset: 0x8E38E, size: 0x8, addend: 0x0, symName: __RNCNvMsd_NtNtNtCsHUR1vrdMJt_3std4sync6poison6rwlockINtB7_15RwLockReadGuardINtNtNtNtBd_11collections4hash3map7HashMapINtNtCslJiobkLta79_5alloc5boxed3BoxeEINtNtB1V_4sync3ArcNtNtNtBd_3ffi6os_str5OsStrEEE3new0CseYC8vFNOjrM_2cc, symObjAddr: 0xDD0, symBinAddr: 0x100048800, symSize: 0x50 }
  - { offset: 0x8E40E, size: 0x8, addend: 0x0, symName: __RNCNvMsd_NtNtNtCsHUR1vrdMJt_3std4sync6poison6rwlockINtB7_15RwLockReadGuardINtNtNtNtBd_11collections4hash3map7HashMapINtNtCslJiobkLta79_5alloc5boxed3BoxeEINtNtB1V_4sync3ArceEEE3new0CseYC8vFNOjrM_2cc, symObjAddr: 0xE20, symBinAddr: 0x100048850, symSize: 0x50 }
  - { offset: 0x8E48E, size: 0x8, addend: 0x0, symName: __RNCNvMsd_NtNtNtCsHUR1vrdMJt_3std4sync6poison6rwlockINtB7_15RwLockReadGuardINtNtNtNtBd_11collections4hash3map7HashMapINtNtCslJiobkLta79_5alloc5boxed3BoxeEINtNtCsieiGu2EXtoJ_4core6option6OptionINtNtB1V_4sync3ArcNtNtNtBd_3ffi6os_str5OsStrEEEE3new0CseYC8vFNOjrM_2cc, symObjAddr: 0xE70, symBinAddr: 0x1000488A0, symSize: 0x50 }
  - { offset: 0x8E50E, size: 0x8, addend: 0x0, symName: __RNCNvMsd_NtNtNtCsHUR1vrdMJt_3std4sync6poison6rwlockINtB7_15RwLockReadGuardINtNtNtNtBd_11collections4hash3map7HashMapNtCseYC8vFNOjrM_2cc12CompilerFlagbEE3new0B1S_, symObjAddr: 0xEC0, symBinAddr: 0x1000488F0, symSize: 0x50 }
  - { offset: 0x8E59A, size: 0x8, addend: 0x0, symName: __RNCNvMse_NtNtNtCsHUR1vrdMJt_3std4sync6poison6rwlockINtB7_16RwLockWriteGuardINtNtNtNtBd_11collections4hash3map7HashMapINtNtCslJiobkLta79_5alloc5boxed3BoxSIB1S_NtNtNtBd_3ffi6os_str5OsStrEENtNtCseYC8vFNOjrM_2cc4tool10ToolFamilyEE3new0B32_, symObjAddr: 0xF10, symBinAddr: 0x100048940, symSize: 0x20 }
  - { offset: 0x8E5E2, size: 0x8, addend: 0x0, symName: __RNCNvMse_NtNtNtCsHUR1vrdMJt_3std4sync6poison6rwlockINtB7_16RwLockWriteGuardINtNtNtNtBd_11collections4hash3map7HashMapINtNtCslJiobkLta79_5alloc5boxed3BoxeEINtNtB1W_4sync3ArcNtNtNtBd_3ffi6os_str5OsStrEEE3new0CseYC8vFNOjrM_2cc, symObjAddr: 0xF30, symBinAddr: 0x100048960, symSize: 0x20 }
  - { offset: 0x8E62A, size: 0x8, addend: 0x0, symName: __RNCNvMse_NtNtNtCsHUR1vrdMJt_3std4sync6poison6rwlockINtB7_16RwLockWriteGuardINtNtNtNtBd_11collections4hash3map7HashMapINtNtCslJiobkLta79_5alloc5boxed3BoxeEINtNtB1W_4sync3ArceEEE3new0CseYC8vFNOjrM_2cc, symObjAddr: 0xF50, symBinAddr: 0x100048980, symSize: 0x20 }
  - { offset: 0x8E672, size: 0x8, addend: 0x0, symName: __RNCNvMse_NtNtNtCsHUR1vrdMJt_3std4sync6poison6rwlockINtB7_16RwLockWriteGuardINtNtNtNtBd_11collections4hash3map7HashMapINtNtCslJiobkLta79_5alloc5boxed3BoxeEINtNtCsieiGu2EXtoJ_4core6option6OptionINtNtB1W_4sync3ArcNtNtNtBd_3ffi6os_str5OsStrEEEE3new0CseYC8vFNOjrM_2cc, symObjAddr: 0xF70, symBinAddr: 0x1000489A0, symSize: 0x20 }
  - { offset: 0x8E6BA, size: 0x8, addend: 0x0, symName: __RNCNvMse_NtNtNtCsHUR1vrdMJt_3std4sync6poison6rwlockINtB7_16RwLockWriteGuardINtNtNtNtBd_11collections4hash3map7HashMapNtCseYC8vFNOjrM_2cc12CompilerFlagbEE3new0B1T_, symObjAddr: 0xF90, symBinAddr: 0x1000489C0, symSize: 0x20 }
  - { offset: 0x8ECBD, size: 0x8, addend: 0x0, symName: __RNvXsb_NtNtNtCsHUR1vrdMJt_3std4sync6poison6rwlockINtB5_6RwLockINtNtNtNtBb_11collections4hash3map7HashMapINtNtCslJiobkLta79_5alloc5boxed3BoxSIB1F_NtNtNtBb_3ffi6os_str5OsStrEENtNtCseYC8vFNOjrM_2cc4tool10ToolFamilyEENtNtCsieiGu2EXtoJ_4core7default7Default7defaultB2P_, symObjAddr: 0x3D90, symBinAddr: 0x10004B640, symSize: 0x90 }
  - { offset: 0x8ED6B, size: 0x8, addend: 0x0, symName: __RNvXsb_NtNtNtCsHUR1vrdMJt_3std4sync6poison6rwlockINtB5_6RwLockINtNtNtNtBb_11collections4hash3map7HashMapINtNtCslJiobkLta79_5alloc5boxed3BoxeEINtNtB1J_4sync3ArcNtNtNtBb_3ffi6os_str5OsStrEEENtNtCsieiGu2EXtoJ_4core7default7Default7defaultCseYC8vFNOjrM_2cc, symObjAddr: 0x3E20, symBinAddr: 0x10004B6D0, symSize: 0x90 }
  - { offset: 0x8EE19, size: 0x8, addend: 0x0, symName: __RNvXsb_NtNtNtCsHUR1vrdMJt_3std4sync6poison6rwlockINtB5_6RwLockINtNtNtNtBb_11collections4hash3map7HashMapINtNtCslJiobkLta79_5alloc5boxed3BoxeEINtNtB1J_4sync3ArceEEENtNtCsieiGu2EXtoJ_4core7default7Default7defaultCseYC8vFNOjrM_2cc, symObjAddr: 0x3EB0, symBinAddr: 0x10004B760, symSize: 0x90 }
  - { offset: 0x8EEC7, size: 0x8, addend: 0x0, symName: __RNvXsb_NtNtNtCsHUR1vrdMJt_3std4sync6poison6rwlockINtB5_6RwLockINtNtNtNtBb_11collections4hash3map7HashMapINtNtCslJiobkLta79_5alloc5boxed3BoxeEINtNtCsieiGu2EXtoJ_4core6option6OptionINtNtB1J_4sync3ArcNtNtNtBb_3ffi6os_str5OsStrEEEENtNtB2k_7default7Default7defaultCseYC8vFNOjrM_2cc, symObjAddr: 0x3F40, symBinAddr: 0x10004B7F0, symSize: 0x90 }
  - { offset: 0x8EF75, size: 0x8, addend: 0x0, symName: __RNvXsb_NtNtNtCsHUR1vrdMJt_3std4sync6poison6rwlockINtB5_6RwLockINtNtNtNtBb_11collections4hash3map7HashMapNtCseYC8vFNOjrM_2cc12CompilerFlagbEENtNtCsieiGu2EXtoJ_4core7default7Default7defaultB1G_, symObjAddr: 0x3FD0, symBinAddr: 0x10004B880, symSize: 0x90 }
  - { offset: 0x8F029, size: 0x8, addend: 0x0, symName: __RNvXsh_NtNtNtCsHUR1vrdMJt_3std4sync6poison6rwlockINtB5_15RwLockReadGuardINtNtNtNtBb_11collections4hash3map7HashMapINtNtCslJiobkLta79_5alloc5boxed3BoxSIB1P_NtNtNtBb_3ffi6os_str5OsStrEENtNtCseYC8vFNOjrM_2cc4tool10ToolFamilyEENtNtNtCsieiGu2EXtoJ_4core3ops4drop4Drop4dropB2Z_, symObjAddr: 0x41A0, symBinAddr: 0x10004B9A0, symSize: 0x50 }
  - { offset: 0x8F094, size: 0x8, addend: 0x0, symName: __RNvXsh_NtNtNtCsHUR1vrdMJt_3std4sync6poison6rwlockINtB5_15RwLockReadGuardINtNtNtNtBb_11collections4hash3map7HashMapINtNtCslJiobkLta79_5alloc5boxed3BoxeEINtNtB1T_4sync3ArcNtNtNtBb_3ffi6os_str5OsStrEEENtNtNtCsieiGu2EXtoJ_4core3ops4drop4Drop4dropCseYC8vFNOjrM_2cc, symObjAddr: 0x41F0, symBinAddr: 0x10004B9F0, symSize: 0x50 }
  - { offset: 0x8F0FF, size: 0x8, addend: 0x0, symName: __RNvXsh_NtNtNtCsHUR1vrdMJt_3std4sync6poison6rwlockINtB5_15RwLockReadGuardINtNtNtNtBb_11collections4hash3map7HashMapINtNtCslJiobkLta79_5alloc5boxed3BoxeEINtNtB1T_4sync3ArceEEENtNtNtCsieiGu2EXtoJ_4core3ops4drop4Drop4dropCseYC8vFNOjrM_2cc, symObjAddr: 0x4240, symBinAddr: 0x10004BA40, symSize: 0x50 }
  - { offset: 0x8F16A, size: 0x8, addend: 0x0, symName: __RNvXsh_NtNtNtCsHUR1vrdMJt_3std4sync6poison6rwlockINtB5_15RwLockReadGuardINtNtNtNtBb_11collections4hash3map7HashMapINtNtCslJiobkLta79_5alloc5boxed3BoxeEINtNtCsieiGu2EXtoJ_4core6option6OptionINtNtB1T_4sync3ArcNtNtNtBb_3ffi6os_str5OsStrEEEENtNtNtB2u_3ops4drop4Drop4dropCseYC8vFNOjrM_2cc, symObjAddr: 0x4290, symBinAddr: 0x10004BA90, symSize: 0x50 }
  - { offset: 0x8F1D5, size: 0x8, addend: 0x0, symName: __RNvXsh_NtNtNtCsHUR1vrdMJt_3std4sync6poison6rwlockINtB5_15RwLockReadGuardINtNtNtNtBb_11collections4hash3map7HashMapNtCseYC8vFNOjrM_2cc12CompilerFlagbEENtNtNtCsieiGu2EXtoJ_4core3ops4drop4Drop4dropB1Q_, symObjAddr: 0x42E0, symBinAddr: 0x10004BAE0, symSize: 0x50 }
  - { offset: 0x8F246, size: 0x8, addend: 0x0, symName: __RNvXsi_NtNtNtCsHUR1vrdMJt_3std4sync6poison6rwlockINtB5_16RwLockWriteGuardINtNtNtNtBb_11collections4hash3map7HashMapINtNtCslJiobkLta79_5alloc5boxed3BoxSIB1Q_NtNtNtBb_3ffi6os_str5OsStrEENtNtCseYC8vFNOjrM_2cc4tool10ToolFamilyEENtNtNtCsieiGu2EXtoJ_4core3ops4drop4Drop4dropB30_, symObjAddr: 0x4330, symBinAddr: 0x10004BB30, symSize: 0xA0 }
  - { offset: 0x8F2F6, size: 0x8, addend: 0x0, symName: __RNvXsi_NtNtNtCsHUR1vrdMJt_3std4sync6poison6rwlockINtB5_16RwLockWriteGuardINtNtNtNtBb_11collections4hash3map7HashMapINtNtCslJiobkLta79_5alloc5boxed3BoxeEINtNtB1U_4sync3ArcNtNtNtBb_3ffi6os_str5OsStrEEENtNtNtCsieiGu2EXtoJ_4core3ops4drop4Drop4dropCseYC8vFNOjrM_2cc, symObjAddr: 0x43D0, symBinAddr: 0x10004BBD0, symSize: 0xA0 }
  - { offset: 0x8F3A6, size: 0x8, addend: 0x0, symName: __RNvXsi_NtNtNtCsHUR1vrdMJt_3std4sync6poison6rwlockINtB5_16RwLockWriteGuardINtNtNtNtBb_11collections4hash3map7HashMapINtNtCslJiobkLta79_5alloc5boxed3BoxeEINtNtB1U_4sync3ArceEEENtNtNtCsieiGu2EXtoJ_4core3ops4drop4Drop4dropCseYC8vFNOjrM_2cc, symObjAddr: 0x4470, symBinAddr: 0x10004BC70, symSize: 0xA0 }
  - { offset: 0x8F456, size: 0x8, addend: 0x0, symName: __RNvXsi_NtNtNtCsHUR1vrdMJt_3std4sync6poison6rwlockINtB5_16RwLockWriteGuardINtNtNtNtBb_11collections4hash3map7HashMapINtNtCslJiobkLta79_5alloc5boxed3BoxeEINtNtCsieiGu2EXtoJ_4core6option6OptionINtNtB1U_4sync3ArcNtNtNtBb_3ffi6os_str5OsStrEEEENtNtNtB2v_3ops4drop4Drop4dropCseYC8vFNOjrM_2cc, symObjAddr: 0x4510, symBinAddr: 0x10004BD10, symSize: 0xA0 }
  - { offset: 0x8F506, size: 0x8, addend: 0x0, symName: __RNvXsi_NtNtNtCsHUR1vrdMJt_3std4sync6poison6rwlockINtB5_16RwLockWriteGuardINtNtNtNtBb_11collections4hash3map7HashMapNtCseYC8vFNOjrM_2cc12CompilerFlagbEENtNtNtCsieiGu2EXtoJ_4core3ops4drop4Drop4dropB1R_, symObjAddr: 0x45B0, symBinAddr: 0x10004BDB0, symSize: 0xA0 }
  - { offset: 0x8F5BC, size: 0x8, addend: 0x0, symName: __RNvXsl_NtNtNtCsHUR1vrdMJt_3std4sync6poison6rwlockINtB5_15RwLockReadGuardINtNtNtNtBb_11collections4hash3map7HashMapINtNtCslJiobkLta79_5alloc5boxed3BoxSIB1P_NtNtNtBb_3ffi6os_str5OsStrEENtNtCseYC8vFNOjrM_2cc4tool10ToolFamilyEENtNtNtCsieiGu2EXtoJ_4core3ops5deref5Deref5derefB2Z_, symObjAddr: 0x4650, symBinAddr: 0x10004BE50, symSize: 0x10 }
  - { offset: 0x8F608, size: 0x8, addend: 0x0, symName: __RNvXsl_NtNtNtCsHUR1vrdMJt_3std4sync6poison6rwlockINtB5_15RwLockReadGuardINtNtNtNtBb_11collections4hash3map7HashMapINtNtCslJiobkLta79_5alloc5boxed3BoxeEINtNtB1T_4sync3ArcNtNtNtBb_3ffi6os_str5OsStrEEENtNtNtCsieiGu2EXtoJ_4core3ops5deref5Deref5derefCseYC8vFNOjrM_2cc, symObjAddr: 0x4660, symBinAddr: 0x10004BE60, symSize: 0x10 }
  - { offset: 0x8F654, size: 0x8, addend: 0x0, symName: __RNvXsl_NtNtNtCsHUR1vrdMJt_3std4sync6poison6rwlockINtB5_15RwLockReadGuardINtNtNtNtBb_11collections4hash3map7HashMapINtNtCslJiobkLta79_5alloc5boxed3BoxeEINtNtB1T_4sync3ArceEEENtNtNtCsieiGu2EXtoJ_4core3ops5deref5Deref5derefCseYC8vFNOjrM_2cc, symObjAddr: 0x4670, symBinAddr: 0x10004BE70, symSize: 0x10 }
  - { offset: 0x8F6A0, size: 0x8, addend: 0x0, symName: __RNvXsl_NtNtNtCsHUR1vrdMJt_3std4sync6poison6rwlockINtB5_15RwLockReadGuardINtNtNtNtBb_11collections4hash3map7HashMapINtNtCslJiobkLta79_5alloc5boxed3BoxeEINtNtCsieiGu2EXtoJ_4core6option6OptionINtNtB1T_4sync3ArcNtNtNtBb_3ffi6os_str5OsStrEEEENtNtNtB2u_3ops5deref5Deref5derefCseYC8vFNOjrM_2cc, symObjAddr: 0x4680, symBinAddr: 0x10004BE80, symSize: 0x10 }
  - { offset: 0x8F6EC, size: 0x8, addend: 0x0, symName: __RNvXsl_NtNtNtCsHUR1vrdMJt_3std4sync6poison6rwlockINtB5_15RwLockReadGuardINtNtNtNtBb_11collections4hash3map7HashMapNtCseYC8vFNOjrM_2cc12CompilerFlagbEENtNtNtCsieiGu2EXtoJ_4core3ops5deref5Deref5derefB1Q_, symObjAddr: 0x4690, symBinAddr: 0x10004BE90, symSize: 0x10 }
  - { offset: 0x8F73E, size: 0x8, addend: 0x0, symName: __RNvXsn_NtNtNtCsHUR1vrdMJt_3std4sync6poison6rwlockINtB5_16RwLockWriteGuardINtNtNtNtBb_11collections4hash3map7HashMapINtNtCslJiobkLta79_5alloc5boxed3BoxSIB1Q_NtNtNtBb_3ffi6os_str5OsStrEENtNtCseYC8vFNOjrM_2cc4tool10ToolFamilyEENtNtNtCsieiGu2EXtoJ_4core3ops5deref8DerefMut9deref_mutB30_, symObjAddr: 0x46A0, symBinAddr: 0x10004BEA0, symSize: 0x20 }
  - { offset: 0x8F78A, size: 0x8, addend: 0x0, symName: __RNvXsn_NtNtNtCsHUR1vrdMJt_3std4sync6poison6rwlockINtB5_16RwLockWriteGuardINtNtNtNtBb_11collections4hash3map7HashMapINtNtCslJiobkLta79_5alloc5boxed3BoxeEINtNtB1U_4sync3ArcNtNtNtBb_3ffi6os_str5OsStrEEENtNtNtCsieiGu2EXtoJ_4core3ops5deref8DerefMut9deref_mutCseYC8vFNOjrM_2cc, symObjAddr: 0x46C0, symBinAddr: 0x10004BEC0, symSize: 0x20 }
  - { offset: 0x8F7D6, size: 0x8, addend: 0x0, symName: __RNvXsn_NtNtNtCsHUR1vrdMJt_3std4sync6poison6rwlockINtB5_16RwLockWriteGuardINtNtNtNtBb_11collections4hash3map7HashMapINtNtCslJiobkLta79_5alloc5boxed3BoxeEINtNtB1U_4sync3ArceEEENtNtNtCsieiGu2EXtoJ_4core3ops5deref8DerefMut9deref_mutCseYC8vFNOjrM_2cc, symObjAddr: 0x46E0, symBinAddr: 0x10004BEE0, symSize: 0x20 }
  - { offset: 0x8F822, size: 0x8, addend: 0x0, symName: __RNvXsn_NtNtNtCsHUR1vrdMJt_3std4sync6poison6rwlockINtB5_16RwLockWriteGuardINtNtNtNtBb_11collections4hash3map7HashMapINtNtCslJiobkLta79_5alloc5boxed3BoxeEINtNtCsieiGu2EXtoJ_4core6option6OptionINtNtB1U_4sync3ArcNtNtNtBb_3ffi6os_str5OsStrEEEENtNtNtB2v_3ops5deref8DerefMut9deref_mutCseYC8vFNOjrM_2cc, symObjAddr: 0x4700, symBinAddr: 0x10004BF00, symSize: 0x20 }
  - { offset: 0x8F86E, size: 0x8, addend: 0x0, symName: __RNvXsn_NtNtNtCsHUR1vrdMJt_3std4sync6poison6rwlockINtB5_16RwLockWriteGuardINtNtNtNtBb_11collections4hash3map7HashMapNtCseYC8vFNOjrM_2cc12CompilerFlagbEENtNtNtCsieiGu2EXtoJ_4core3ops5deref8DerefMut9deref_mutB1R_, symObjAddr: 0x4720, symBinAddr: 0x10004BF20, symSize: 0x20 }
  - { offset: 0x90496, size: 0x8, addend: 0x0, symName: __RNvMNtNtNtCsieiGu2EXtoJ_4core4iter8adapters7step_byINtB2_6StepByINtNtNtB8_3ops5range5RangejEE3newCseYC8vFNOjrM_2cc, symObjAddr: 0x1170, symBinAddr: 0x100048BA0, symSize: 0xD0 }
  - { offset: 0x90539, size: 0x8, addend: 0x0, symName: __RNvMs9_NtNtNtCsHUR1vrdMJt_3std4sync6poison6rwlockINtB5_6RwLockINtNtNtNtBb_11collections4hash3map7HashMapINtNtCslJiobkLta79_5alloc5boxed3BoxSIB1F_NtNtNtBb_3ffi6os_str5OsStrEENtNtCseYC8vFNOjrM_2cc4tool10ToolFamilyEE4readB2P_, symObjAddr: 0x1240, symBinAddr: 0x100048C70, symSize: 0x70 }
  - { offset: 0x9065C, size: 0x8, addend: 0x0, symName: __RNvMs9_NtNtNtCsHUR1vrdMJt_3std4sync6poison6rwlockINtB5_6RwLockINtNtNtNtBb_11collections4hash3map7HashMapINtNtCslJiobkLta79_5alloc5boxed3BoxSIB1F_NtNtNtBb_3ffi6os_str5OsStrEENtNtCseYC8vFNOjrM_2cc4tool10ToolFamilyEE5writeB2P_, symObjAddr: 0x12B0, symBinAddr: 0x100048CE0, symSize: 0xD0 }
  - { offset: 0x90773, size: 0x8, addend: 0x0, symName: __RNvMs9_NtNtNtCsHUR1vrdMJt_3std4sync6poison6rwlockINtB5_6RwLockINtNtNtNtBb_11collections4hash3map7HashMapINtNtCslJiobkLta79_5alloc5boxed3BoxeEINtNtB1J_4sync3ArcNtNtNtBb_3ffi6os_str5OsStrEEE4readCseYC8vFNOjrM_2cc, symObjAddr: 0x1380, symBinAddr: 0x100048DB0, symSize: 0x70 }
  - { offset: 0x9086F, size: 0x8, addend: 0x0, symName: __RNvMs9_NtNtNtCsHUR1vrdMJt_3std4sync6poison6rwlockINtB5_6RwLockINtNtNtNtBb_11collections4hash3map7HashMapINtNtCslJiobkLta79_5alloc5boxed3BoxeEINtNtB1J_4sync3ArcNtNtNtBb_3ffi6os_str5OsStrEEE5writeCseYC8vFNOjrM_2cc, symObjAddr: 0x13F0, symBinAddr: 0x100048E20, symSize: 0xD0 }
  - { offset: 0x90986, size: 0x8, addend: 0x0, symName: __RNvMs9_NtNtNtCsHUR1vrdMJt_3std4sync6poison6rwlockINtB5_6RwLockINtNtNtNtBb_11collections4hash3map7HashMapINtNtCslJiobkLta79_5alloc5boxed3BoxeEINtNtB1J_4sync3ArceEEE4readCseYC8vFNOjrM_2cc, symObjAddr: 0x14C0, symBinAddr: 0x100048EF0, symSize: 0x70 }
  - { offset: 0x90A82, size: 0x8, addend: 0x0, symName: __RNvMs9_NtNtNtCsHUR1vrdMJt_3std4sync6poison6rwlockINtB5_6RwLockINtNtNtNtBb_11collections4hash3map7HashMapINtNtCslJiobkLta79_5alloc5boxed3BoxeEINtNtB1J_4sync3ArceEEE5writeCseYC8vFNOjrM_2cc, symObjAddr: 0x1530, symBinAddr: 0x100048F60, symSize: 0xD0 }
  - { offset: 0x90B99, size: 0x8, addend: 0x0, symName: __RNvMs9_NtNtNtCsHUR1vrdMJt_3std4sync6poison6rwlockINtB5_6RwLockINtNtNtNtBb_11collections4hash3map7HashMapINtNtCslJiobkLta79_5alloc5boxed3BoxeEINtNtCsieiGu2EXtoJ_4core6option6OptionINtNtB1J_4sync3ArcNtNtNtBb_3ffi6os_str5OsStrEEEE4readCseYC8vFNOjrM_2cc, symObjAddr: 0x1600, symBinAddr: 0x100049030, symSize: 0x70 }
  - { offset: 0x90C95, size: 0x8, addend: 0x0, symName: __RNvMs9_NtNtNtCsHUR1vrdMJt_3std4sync6poison6rwlockINtB5_6RwLockINtNtNtNtBb_11collections4hash3map7HashMapINtNtCslJiobkLta79_5alloc5boxed3BoxeEINtNtCsieiGu2EXtoJ_4core6option6OptionINtNtB1J_4sync3ArcNtNtNtBb_3ffi6os_str5OsStrEEEE5writeCseYC8vFNOjrM_2cc, symObjAddr: 0x1670, symBinAddr: 0x1000490A0, symSize: 0xD0 }
  - { offset: 0x90DAC, size: 0x8, addend: 0x0, symName: __RNvMs9_NtNtNtCsHUR1vrdMJt_3std4sync6poison6rwlockINtB5_6RwLockINtNtNtNtBb_11collections4hash3map7HashMapNtCseYC8vFNOjrM_2cc12CompilerFlagbEE4readB1G_, symObjAddr: 0x1740, symBinAddr: 0x100049170, symSize: 0x70 }
  - { offset: 0x90EA8, size: 0x8, addend: 0x0, symName: __RNvMs9_NtNtNtCsHUR1vrdMJt_3std4sync6poison6rwlockINtB5_6RwLockINtNtNtNtBb_11collections4hash3map7HashMapNtCseYC8vFNOjrM_2cc12CompilerFlagbEE5writeB1G_, symObjAddr: 0x17B0, symBinAddr: 0x1000491E0, symSize: 0xD0 }
  - { offset: 0x9103A, size: 0x8, addend: 0x0, symName: __RNvMsd_NtNtNtCsHUR1vrdMJt_3std4sync6poison6rwlockINtB5_15RwLockReadGuardINtNtNtNtBb_11collections4hash3map7HashMapINtNtCslJiobkLta79_5alloc5boxed3BoxSIB1P_NtNtNtBb_3ffi6os_str5OsStrEENtNtCseYC8vFNOjrM_2cc4tool10ToolFamilyEE3newB2Z_, symObjAddr: 0x1930, symBinAddr: 0x1000492B0, symSize: 0x80 }
  - { offset: 0x9112C, size: 0x8, addend: 0x0, symName: __RNvMsd_NtNtNtCsHUR1vrdMJt_3std4sync6poison6rwlockINtB5_15RwLockReadGuardINtNtNtNtBb_11collections4hash3map7HashMapINtNtCslJiobkLta79_5alloc5boxed3BoxeEINtNtB1T_4sync3ArcNtNtNtBb_3ffi6os_str5OsStrEEE3newCseYC8vFNOjrM_2cc, symObjAddr: 0x19B0, symBinAddr: 0x100049330, symSize: 0x80 }
  - { offset: 0x9121E, size: 0x8, addend: 0x0, symName: __RNvMsd_NtNtNtCsHUR1vrdMJt_3std4sync6poison6rwlockINtB5_15RwLockReadGuardINtNtNtNtBb_11collections4hash3map7HashMapINtNtCslJiobkLta79_5alloc5boxed3BoxeEINtNtB1T_4sync3ArceEEE3newCseYC8vFNOjrM_2cc, symObjAddr: 0x1A30, symBinAddr: 0x1000493B0, symSize: 0x80 }
  - { offset: 0x91310, size: 0x8, addend: 0x0, symName: __RNvMsd_NtNtNtCsHUR1vrdMJt_3std4sync6poison6rwlockINtB5_15RwLockReadGuardINtNtNtNtBb_11collections4hash3map7HashMapINtNtCslJiobkLta79_5alloc5boxed3BoxeEINtNtCsieiGu2EXtoJ_4core6option6OptionINtNtB1T_4sync3ArcNtNtNtBb_3ffi6os_str5OsStrEEEE3newCseYC8vFNOjrM_2cc, symObjAddr: 0x1AB0, symBinAddr: 0x100049430, symSize: 0x80 }
  - { offset: 0x91402, size: 0x8, addend: 0x0, symName: __RNvMsd_NtNtNtCsHUR1vrdMJt_3std4sync6poison6rwlockINtB5_15RwLockReadGuardINtNtNtNtBb_11collections4hash3map7HashMapNtCseYC8vFNOjrM_2cc12CompilerFlagbEE3newB1Q_, symObjAddr: 0x1B30, symBinAddr: 0x1000494B0, symSize: 0x80 }
  - { offset: 0x914AE, size: 0x8, addend: 0x0, symName: __RNvMsf_NtNtCsieiGu2EXtoJ_4core3str4iterINtB5_13SplitInternalAcj2_E4nextCseYC8vFNOjrM_2cc, symObjAddr: 0x1BB0, symBinAddr: 0x100049530, symSize: 0x170 }
  - { offset: 0x915F2, size: 0x8, addend: 0x0, symName: __RNvMsf_NtNtCsieiGu2EXtoJ_4core3str4iterINtB5_13SplitInternalAcj2_E7get_endCseYC8vFNOjrM_2cc, symObjAddr: 0x1D20, symBinAddr: 0x1000496A0, symSize: 0x110 }
  - { offset: 0x91705, size: 0x8, addend: 0x0, symName: __RNvMsf_NtNtCsieiGu2EXtoJ_4core3str4iterINtB5_13SplitInternalNtB7_12IsWhitespaceE4nextCseYC8vFNOjrM_2cc, symObjAddr: 0x1E30, symBinAddr: 0x1000497B0, symSize: 0x180 }
  - { offset: 0x91849, size: 0x8, addend: 0x0, symName: __RNvMsf_NtNtCsieiGu2EXtoJ_4core3str4iterINtB5_13SplitInternalNtB7_12IsWhitespaceE7get_endCseYC8vFNOjrM_2cc, symObjAddr: 0x1FB0, symBinAddr: 0x100049930, symSize: 0x110 }
  - { offset: 0x9195C, size: 0x8, addend: 0x0, symName: __RNvMsf_NtNtCsieiGu2EXtoJ_4core3str4iterINtB5_13SplitInternalReE4nextCseYC8vFNOjrM_2cc, symObjAddr: 0x20C0, symBinAddr: 0x100049A40, symSize: 0x170 }
  - { offset: 0x91AA0, size: 0x8, addend: 0x0, symName: __RNvMsf_NtNtCsieiGu2EXtoJ_4core3str4iterINtB5_13SplitInternalReE7get_endCseYC8vFNOjrM_2cc, symObjAddr: 0x2230, symBinAddr: 0x100049BB0, symSize: 0x110 }
  - { offset: 0x9305F, size: 0x8, addend: 0x0, symName: __RINvMNtCsieiGu2EXtoJ_4core5sliceSTReBw_E16binary_search_byNCINvB2_20binary_search_by_keyBw_NCNvMNtNtCseYC8vFNOjrM_2cc6target4llvmNtB1y_10TargetInfo11llvm_target0E0EB1A_, symObjAddr: 0x0, symBinAddr: 0x10004C120, symSize: 0x3D0 }
  - { offset: 0x938E5, size: 0x8, addend: 0x0, symName: __RNvNtNtNtCsHUR1vrdMJt_3std3sys3pal4unix17decode_error_kindCseYC8vFNOjrM_2cc, symObjAddr: 0x68C0, symBinAddr: 0x1000529E0, symSize: 0x310 }
  - { offset: 0x93BCA, size: 0x8, addend: 0x0, symName: __RNCNvMs_NtNtNtCsHUR1vrdMJt_3std4sync4mpmc5arrayINtB6_7ChannelINtNtCsieiGu2EXtoJ_4core6result6ResultNtCslzRnRZxZnvp_9jobserver8AcquiredNtNtNtBc_2io5error5ErrorEE4send0CseYC8vFNOjrM_2cc, symObjAddr: 0xF40, symBinAddr: 0x10004D060, symSize: 0x1F0 }
  - { offset: 0x94737, size: 0x8, addend: 0x0, symName: __RNvNvMNtNtCsieiGu2EXtoJ_4core3ptr9const_ptrPp20offset_from_unsigned18precondition_checkCseYC8vFNOjrM_2cc, symObjAddr: 0x6D90, symBinAddr: 0x100052EB0, symSize: 0xA0 }
  - { offset: 0x951DA, size: 0x8, addend: 0x0, symName: __RNvXs19_NtCsieiGu2EXtoJ_4core3fmtRbNtB6_5Debug3fmtCseYC8vFNOjrM_2cc, symObjAddr: 0x6FC0, symBinAddr: 0x1000530E0, symSize: 0x20 }
  - { offset: 0x95226, size: 0x8, addend: 0x0, symName: __RNvXs1b_NtCsieiGu2EXtoJ_4core3fmtRDNtB6_7DisplayEL_Bx_3fmtCseYC8vFNOjrM_2cc, symObjAddr: 0x6FE0, symBinAddr: 0x100053100, symSize: 0x30 }
  - { offset: 0x9526C, size: 0x8, addend: 0x0, symName: __RNvXs1b_NtCsieiGu2EXtoJ_4core3fmtRReNtB6_7Display3fmtCseYC8vFNOjrM_2cc, symObjAddr: 0x7010, symBinAddr: 0x100053130, symSize: 0x20 }
  - { offset: 0x952B8, size: 0x8, addend: 0x0, symName: __RNvXse_NtCsieiGu2EXtoJ_4core3fmtbNtB5_5Debug3fmtCseYC8vFNOjrM_2cc, symObjAddr: 0x70E0, symBinAddr: 0x100053200, symSize: 0x20 }
  - { offset: 0x96B52, size: 0x8, addend: 0x0, symName: __RINvMNtCsieiGu2EXtoJ_4core5sliceSTReBw_E16binary_search_byNCINvB2_20binary_search_by_keyBw_NCNvMNtNtCseYC8vFNOjrM_2cc6target4llvmNtB1y_10TargetInfo11llvm_target0E0EB1A_, symObjAddr: 0x0, symBinAddr: 0x10004C120, symSize: 0x3D0 }
  - { offset: 0x96EF3, size: 0x8, addend: 0x0, symName: __RINvMNtCsieiGu2EXtoJ_4core5sliceSTReBw_E20binary_search_by_keyBw_NCNvMNtNtCseYC8vFNOjrM_2cc6target4llvmNtB18_10TargetInfo11llvm_target0EB1a_, symObjAddr: 0x3D0, symBinAddr: 0x10004C4F0, symSize: 0x50 }
  - { offset: 0x96F81, size: 0x8, addend: 0x0, symName: __RINvMNtCsieiGu2EXtoJ_4core5sliceSh11copy_withinINtNtNtB5_3ops5range9RangeFromjEECseYC8vFNOjrM_2cc, symObjAddr: 0x420, symBinAddr: 0x10004C540, symSize: 0x1A0 }
  - { offset: 0x97149, size: 0x8, addend: 0x0, symName: __RINvMNtCsieiGu2EXtoJ_4core5sliceSh15split_inclusiveNCNvMs_NtCseYC8vFNOjrM_2cc15command_helpersNtBU_15StderrForwarder17forward_available0EBW_, symObjAddr: 0x5C0, symBinAddr: 0x10004C6E0, symSize: 0x30 }
  - { offset: 0x971FB, size: 0x8, addend: 0x0, symName: __RINvMNtCsieiGu2EXtoJ_4core5sliceSh19as_chunks_uncheckedKj20_ECseYC8vFNOjrM_2cc, symObjAddr: 0x5F0, symBinAddr: 0x10004C710, symSize: 0x90 }
  - { offset: 0x972F5, size: 0x8, addend: 0x0, symName: __RINvMNtCsieiGu2EXtoJ_4core5sliceSh5splitNCNvNtCseYC8vFNOjrM_2cc15command_helpers10run_output0EBI_, symObjAddr: 0x680, symBinAddr: 0x10004C7A0, symSize: 0x20 }
  - { offset: 0x97362, size: 0x8, addend: 0x0, symName: __RINvMNtCsieiGu2EXtoJ_4core5sliceSh9as_chunksKj20_ECseYC8vFNOjrM_2cc, symObjAddr: 0x6A0, symBinAddr: 0x10004C7C0, symSize: 0xF0 }
  - { offset: 0x97427, size: 0x8, addend: 0x0, symName: __RNCINvMNtCsieiGu2EXtoJ_4core5sliceSTReBy_E20binary_search_by_keyBy_NCNvMNtNtCseYC8vFNOjrM_2cc6target4llvmNtB1a_10TargetInfo11llvm_target0E0B1c_, symObjAddr: 0xE20, symBinAddr: 0x10004CF40, symSize: 0x60 }
  - { offset: 0x974B5, size: 0x8, addend: 0x0, symName: __RNvMNtCsieiGu2EXtoJ_4core5sliceSRe5firstCseYC8vFNOjrM_2cc, symObjAddr: 0x1C20, symBinAddr: 0x10004DD40, symSize: 0x40 }
  - { offset: 0x974FF, size: 0x8, addend: 0x0, symName: __RNvMNtCsieiGu2EXtoJ_4core5sliceSRe8containsCseYC8vFNOjrM_2cc, symObjAddr: 0x1C60, symBinAddr: 0x10004DD80, symSize: 0x30 }
  - { offset: 0x97545, size: 0x8, addend: 0x0, symName: __RNvMNtCsieiGu2EXtoJ_4core5sliceSc12chunks_exactCseYC8vFNOjrM_2cc, symObjAddr: 0x1C90, symBinAddr: 0x10004DDB0, symSize: 0x160 }
  - { offset: 0x9763E, size: 0x8, addend: 0x0, symName: __RNvMNtCsieiGu2EXtoJ_4core5sliceSc18split_at_uncheckedCseYC8vFNOjrM_2cc, symObjAddr: 0x1DF0, symBinAddr: 0x10004DF10, symSize: 0xF0 }
  - { offset: 0x97798, size: 0x8, addend: 0x0, symName: __RNvMNtCsieiGu2EXtoJ_4core5sliceSh10split_lastCseYC8vFNOjrM_2cc, symObjAddr: 0x1EE0, symBinAddr: 0x10004E000, symSize: 0x90 }
  - { offset: 0x978D1, size: 0x8, addend: 0x0, symName: __RNvNvMNtCsieiGu2EXtoJ_4core5sliceSp18split_at_unchecked18precondition_checkCseYC8vFNOjrM_2cc, symObjAddr: 0x6BD0, symBinAddr: 0x100052CF0, symSize: 0xA0 }
  - { offset: 0x9793F, size: 0x8, addend: 0x0, symName: __RNvNvMNtCsieiGu2EXtoJ_4core5sliceSp19as_chunks_unchecked18precondition_checkCseYC8vFNOjrM_2cc, symObjAddr: 0x6C70, symBinAddr: 0x100052D90, symSize: 0x120 }
  - { offset: 0x97FBE, size: 0x8, addend: 0x0, symName: __RINvNtCsieiGu2EXtoJ_4core3mem4dropNtNtCsHUR1vrdMJt_3std2fs4FileECseYC8vFNOjrM_2cc, symObjAddr: 0xDB0, symBinAddr: 0x10004CED0, symSize: 0x20 }
  - { offset: 0x97FF1, size: 0x8, addend: 0x0, symName: __RINvNtCsieiGu2EXtoJ_4core3mem7replaceINtNtCslJiobkLta79_5alloc5boxed3BoxeEECseYC8vFNOjrM_2cc, symObjAddr: 0xDD0, symBinAddr: 0x10004CEF0, symSize: 0x30 }
  - { offset: 0x98037, size: 0x8, addend: 0x0, symName: __RINvNtCsieiGu2EXtoJ_4core3mem7replacebECseYC8vFNOjrM_2cc, symObjAddr: 0xE00, symBinAddr: 0x10004CF20, symSize: 0x20 }
  - { offset: 0x98589, size: 0x8, addend: 0x0, symName: __RNvMNtNtCsieiGu2EXtoJ_4core4char7methodsc13is_whitespaceCseYC8vFNOjrM_2cc, symObjAddr: 0x1F70, symBinAddr: 0x10004E090, symSize: 0x60 }
  - { offset: 0x985CD, size: 0x8, addend: 0x0, symName: __RNvMNtNtCsieiGu2EXtoJ_4core4char7methodsc8to_digitCseYC8vFNOjrM_2cc, symObjAddr: 0x1FD0, symBinAddr: 0x10004E0F0, symSize: 0xF0 }
  - { offset: 0x986CD, size: 0x8, addend: 0x0, symName: __RNvNtNtCsieiGu2EXtoJ_4core4char7methods15encode_utf8_rawCseYC8vFNOjrM_2cc, symObjAddr: 0x66A0, symBinAddr: 0x1000527C0, symSize: 0xE0 }
  - { offset: 0x987CD, size: 0x8, addend: 0x0, symName: __RNvNtNtCsieiGu2EXtoJ_4core4char7methods25encode_utf8_raw_uncheckedCseYC8vFNOjrM_2cc, symObjAddr: 0x6780, symBinAddr: 0x1000528A0, symSize: 0x140 }
  - { offset: 0x98A47, size: 0x8, addend: 0x0, symName: __RNvNvNtCsieiGu2EXtoJ_4core9ub_checks23maybe_is_nonoverlapping7runtimeCseYC8vFNOjrM_2cc, symObjAddr: 0x6E30, symBinAddr: 0x100052F50, symSize: 0xC0 }
  - { offset: 0x98C04, size: 0x8, addend: 0x0, symName: __RNvXs3_NtNtCsieiGu2EXtoJ_4core3str7patternNvMNtNtB9_4char7methodsc13is_whitespaceNtB5_11MultiCharEq7matchesCseYC8vFNOjrM_2cc, symObjAddr: 0x7070, symBinAddr: 0x100053190, symSize: 0x20 }
  - { offset: 0x98C50, size: 0x8, addend: 0x0, symName: __RNvXsr_NtNtCsieiGu2EXtoJ_4core3str7patternNvMNtNtB9_4char7methodsc13is_whitespaceNtB5_7Pattern13into_searcherCseYC8vFNOjrM_2cc, symObjAddr: 0x7100, symBinAddr: 0x100053220, symSize: 0x40 }
  - { offset: 0x99037, size: 0x8, addend: 0x0, symName: __RNCNvMs_NtCseYC8vFNOjrM_2cc15command_helpersNtB6_15StderrForwarder17forward_available0B8_, symObjAddr: 0xE80, symBinAddr: 0x10004CFA0, symSize: 0x30 }
  - { offset: 0x9908C, size: 0x8, addend: 0x0, symName: __RNCNvMs_NtCseYC8vFNOjrM_2cc15command_helpersNtB6_15StderrForwarder3new0B8_, symObjAddr: 0xEB0, symBinAddr: 0x10004CFD0, symSize: 0x90 }
  - { offset: 0x990D7, size: 0x8, addend: 0x0, symName: __RNCNvNtCseYC8vFNOjrM_2cc15command_helpers10run_output0B5_, symObjAddr: 0x1130, symBinAddr: 0x10004D250, symSize: 0x30 }
  - { offset: 0x9912A, size: 0x8, addend: 0x0, symName: __RNCNvNtCseYC8vFNOjrM_2cc15command_helpers10run_outputs_0B5_, symObjAddr: 0x1160, symBinAddr: 0x10004D280, symSize: 0x30 }
  - { offset: 0x99170, size: 0x8, addend: 0x0, symName: __RNCNvNtCseYC8vFNOjrM_2cc15command_helpers18objects_from_files0B5_, symObjAddr: 0x1190, symBinAddr: 0x10004D2B0, symSize: 0x40 }
  - { offset: 0x9919A, size: 0x8, addend: 0x0, symName: __RNCNvNtCseYC8vFNOjrM_2cc15command_helpers18objects_from_filess_0B5_, symObjAddr: 0x11D0, symBinAddr: 0x10004D2F0, symSize: 0x40 }
  - { offset: 0x991D8, size: 0x8, addend: 0x0, symName: __RNCNvNtCseYC8vFNOjrM_2cc15command_helpers25spawn_and_wait_for_output0B5_, symObjAddr: 0x1210, symBinAddr: 0x10004D330, symSize: 0x140 }
  - { offset: 0x993B6, size: 0x8, addend: 0x0, symName: __RNvNtCseYC8vFNOjrM_2cc15command_helpers10run_output, symObjAddr: 0x4280, symBinAddr: 0x1000503A0, symSize: 0x430 }
  - { offset: 0x994A0, size: 0x8, addend: 0x0, symName: __RNvNtCseYC8vFNOjrM_2cc15command_helpers13wait_on_child, symObjAddr: 0x46B0, symBinAddr: 0x1000507D0, symSize: 0x390 }
  - { offset: 0x995EE, size: 0x8, addend: 0x0, symName: __RNvNtCseYC8vFNOjrM_2cc15command_helpers13write_warning, symObjAddr: 0x4A40, symBinAddr: 0x100050B60, symSize: 0x2F0 }
  - { offset: 0x996F2, size: 0x8, addend: 0x0, symName: __RNvNtCseYC8vFNOjrM_2cc15command_helpers18objects_from_files, symObjAddr: 0x4D30, symBinAddr: 0x100050E50, symSize: 0xCF0 }
  - { offset: 0x998E5, size: 0x8, addend: 0x0, symName: __RNvNtCseYC8vFNOjrM_2cc15command_helpers23command_add_output_file, symObjAddr: 0x5A20, symBinAddr: 0x100051B40, symSize: 0x1A0 }
  - { offset: 0x99945, size: 0x8, addend: 0x0, symName: __RNvNtCseYC8vFNOjrM_2cc15command_helpers25spawn_and_wait_for_output, symObjAddr: 0x5BC0, symBinAddr: 0x100051CE0, symSize: 0x1B0 }
  - { offset: 0x999B9, size: 0x8, addend: 0x0, symName: __RNvNtCseYC8vFNOjrM_2cc15command_helpers3run, symObjAddr: 0x5D70, symBinAddr: 0x100051E90, symSize: 0x170 }
  - { offset: 0x99A52, size: 0x8, addend: 0x0, symName: __RNvNtCseYC8vFNOjrM_2cc15command_helpers5spawn, symObjAddr: 0x5EE0, symBinAddr: 0x100052000, symSize: 0x600 }
  - { offset: 0x99C0C, size: 0x8, addend: 0x0, symName: __RNvXNvNtCseYC8vFNOjrM_2cc15command_helpers5spawnNtB2_11ResetStderrNtNtNtCsieiGu2EXtoJ_4core3ops4drop4Drop4drop, symObjAddr: 0x6EF0, symBinAddr: 0x100053010, symSize: 0x40 }
  - { offset: 0x99C52, size: 0x8, addend: 0x0, symName: __RNvXs0_NtCseYC8vFNOjrM_2cc15command_helpersNtB5_11CargoOutputNtNtCsieiGu2EXtoJ_4core5clone5Clone5cloneB7_, symObjAddr: 0x6F30, symBinAddr: 0x100053050, symSize: 0x90 }
  - { offset: 0x99C84, size: 0x8, addend: 0x0, symName: __RNvXs2_NtCseYC8vFNOjrM_2cc15command_helpersNtB5_10OutputKindNtNtCsieiGu2EXtoJ_4core5clone5Clone5cloneB7_, symObjAddr: 0x7030, symBinAddr: 0x100053150, symSize: 0x40 }
  - { offset: 0x99E60, size: 0x8, addend: 0x0, symName: __RNvNtCseYC8vFNOjrM_2cc8tempfile12create_named, symObjAddr: 0x64E0, symBinAddr: 0x100052600, symSize: 0x90 }
  - { offset: 0x99EA9, size: 0x8, addend: 0x0, symName: __RNvNtCseYC8vFNOjrM_2cc8tempfile4rand, symObjAddr: 0x6570, symBinAddr: 0x100052690, symSize: 0x40 }
  - { offset: 0x99EC6, size: 0x8, addend: 0x0, symName: __RNvNtCseYC8vFNOjrM_2cc8tempfile7tmpname, symObjAddr: 0x65B0, symBinAddr: 0x1000526D0, symSize: 0xF0 }
  - { offset: 0x99F51, size: 0x8, addend: 0x0, symName: __RNvXs_NtCseYC8vFNOjrM_2cc8tempfileNtB4_13NamedTempfileNtNtNtCsieiGu2EXtoJ_4core3ops4drop4Drop4drop, symObjAddr: 0x7090, symBinAddr: 0x1000531B0, symSize: 0x50 }
  - { offset: 0x9AA2D, size: 0x8, addend: 0x0, symName: __RINvMNtNtCsieiGu2EXtoJ_4core3fmt2rtNtB3_8Argument11new_displayINtNtCseYC8vFNOjrM_2cc9utilities10JoinOsStrsINtNtCslJiobkLta79_5alloc4sync3ArcNtNtNtCsHUR1vrdMJt_3std3ffi6os_str5OsStrEEEB13_, symObjAddr: 0x790, symBinAddr: 0x10004C8B0, symSize: 0x30 }
  - { offset: 0x9AA8C, size: 0x8, addend: 0x0, symName: __RINvMNtNtCsieiGu2EXtoJ_4core3fmt2rtNtB3_8Argument11new_displayINtNtCseYC8vFNOjrM_2cc9utilities18OptionOsStrDisplayRNtNtNtCsHUR1vrdMJt_3std3ffi6os_str5OsStrEEB13_, symObjAddr: 0x7C0, symBinAddr: 0x10004C8E0, symSize: 0x30 }
  - { offset: 0x9AAEB, size: 0x8, addend: 0x0, symName: __RINvMNtNtCsieiGu2EXtoJ_4core3fmt2rtNtB3_8Argument11new_displayINtNtCslJiobkLta79_5alloc4sync3ArceEECseYC8vFNOjrM_2cc, symObjAddr: 0x7F0, symBinAddr: 0x10004C910, symSize: 0x30 }
  - { offset: 0x9AB23, size: 0x8, addend: 0x0, symName: __RINvMNtNtCsieiGu2EXtoJ_4core3fmt2rtNtB3_8Argument11new_displayINtNtCslJiobkLta79_5alloc6borrow3CoweEECseYC8vFNOjrM_2cc, symObjAddr: 0x820, symBinAddr: 0x10004C940, symSize: 0x30 }
  - { offset: 0x9AB5B, size: 0x8, addend: 0x0, symName: __RINvMNtNtCsieiGu2EXtoJ_4core3fmt2rtNtB3_8Argument11new_displayNtCseYC8vFNOjrM_2cc5ErrorEB10_, symObjAddr: 0x850, symBinAddr: 0x10004C970, symSize: 0x30 }
  - { offset: 0x9AB93, size: 0x8, addend: 0x0, symName: __RINvMNtNtCsieiGu2EXtoJ_4core3fmt2rtNtB3_8Argument11new_displayNtNtCsHUR1vrdMJt_3std3env8VarErrorECseYC8vFNOjrM_2cc, symObjAddr: 0x880, symBinAddr: 0x10004C9A0, symSize: 0x30 }
  - { offset: 0x9ABCB, size: 0x8, addend: 0x0, symName: __RINvMNtNtCsieiGu2EXtoJ_4core3fmt2rtNtB3_8Argument11new_displayNtNtCsHUR1vrdMJt_3std7process10ExitStatusECseYC8vFNOjrM_2cc, symObjAddr: 0x8B0, symBinAddr: 0x10004C9D0, symSize: 0x30 }
  - { offset: 0x9AC03, size: 0x8, addend: 0x0, symName: __RINvMNtNtCsieiGu2EXtoJ_4core3fmt2rtNtB3_8Argument11new_displayNtNtNtCsHUR1vrdMJt_3std2io5error5ErrorECseYC8vFNOjrM_2cc, symObjAddr: 0x8E0, symBinAddr: 0x10004CA00, symSize: 0x30 }
  - { offset: 0x9AC83, size: 0x8, addend: 0x0, symName: __RINvMNtNtCsieiGu2EXtoJ_4core3fmt2rtNtB3_8Argument11new_displayRDNtB5_7DisplayEL_ECseYC8vFNOjrM_2cc, symObjAddr: 0x910, symBinAddr: 0x10004CA30, symSize: 0x30 }
  - { offset: 0x9ACBB, size: 0x8, addend: 0x0, symName: __RINvMNtNtCsieiGu2EXtoJ_4core3fmt2rtNtB3_8Argument11new_displayRINtNtCslJiobkLta79_5alloc4sync3ArceEECseYC8vFNOjrM_2cc, symObjAddr: 0x940, symBinAddr: 0x10004CA60, symSize: 0x30 }
  - { offset: 0x9AD00, size: 0x8, addend: 0x0, symName: __RINvMNtNtCsieiGu2EXtoJ_4core3fmt2rtNtB3_8Argument11new_displayRReECseYC8vFNOjrM_2cc, symObjAddr: 0x970, symBinAddr: 0x10004CA90, symSize: 0x30 }
  - { offset: 0x9AD38, size: 0x8, addend: 0x0, symName: __RINvMNtNtCsieiGu2EXtoJ_4core3fmt2rtNtB3_8Argument11new_displaycECseYC8vFNOjrM_2cc, symObjAddr: 0x9A0, symBinAddr: 0x10004CAC0, symSize: 0x30 }
  - { offset: 0x9AD70, size: 0x8, addend: 0x0, symName: __RINvMNtNtCsieiGu2EXtoJ_4core3fmt2rtNtB3_8Argument11new_displaylECseYC8vFNOjrM_2cc, symObjAddr: 0x9D0, symBinAddr: 0x10004CAF0, symSize: 0x30 }
  - { offset: 0x9ADA8, size: 0x8, addend: 0x0, symName: __RINvMNtNtCsieiGu2EXtoJ_4core3fmt2rtNtB3_8Argument11new_displaymECseYC8vFNOjrM_2cc, symObjAddr: 0xA00, symBinAddr: 0x10004CB20, symSize: 0x30 }
  - { offset: 0x9ADE0, size: 0x8, addend: 0x0, symName: __RINvMNtNtCsieiGu2EXtoJ_4core3fmt2rtNtB3_8Argument11new_displayyECseYC8vFNOjrM_2cc, symObjAddr: 0xA30, symBinAddr: 0x10004CB50, symSize: 0x30 }
  - { offset: 0x9AE0B, size: 0x8, addend: 0x0, symName: __RINvMNtNtCsieiGu2EXtoJ_4core3fmt2rtNtB3_8Argument13new_lower_hexyECseYC8vFNOjrM_2cc, symObjAddr: 0xA60, symBinAddr: 0x10004CB80, symSize: 0x30 }
  - { offset: 0x9AE61, size: 0x8, addend: 0x0, symName: __RINvMNtNtCsieiGu2EXtoJ_4core3fmt2rtNtB3_8Argument9new_debugINtNtCslJiobkLta79_5alloc5boxed3BoxeEECseYC8vFNOjrM_2cc, symObjAddr: 0xA90, symBinAddr: 0x10004CBB0, symSize: 0x30 }
  - { offset: 0x9AE99, size: 0x8, addend: 0x0, symName: __RINvMNtNtCsieiGu2EXtoJ_4core3fmt2rtNtB3_8Argument9new_debugNtCseYC8vFNOjrM_2cc9ErrorKindEBX_, symObjAddr: 0xAC0, symBinAddr: 0x10004CBE0, symSize: 0x30 }
  - { offset: 0x9B002, size: 0x8, addend: 0x0, symName: __RINvMNtNtCsieiGu2EXtoJ_4core3fmt2rtNtB3_8Argument9new_debugNtNtCsHUR1vrdMJt_3std7process7CommandECseYC8vFNOjrM_2cc, symObjAddr: 0xAF0, symBinAddr: 0x10004CC10, symSize: 0x30 }
  - { offset: 0x9B03A, size: 0x8, addend: 0x0, symName: __RINvMNtNtCsieiGu2EXtoJ_4core3fmt2rtNtB3_8Argument9new_debugNtNtCseYC8vFNOjrM_2cc4tool10ToolFamilyEBZ_, symObjAddr: 0xB20, symBinAddr: 0x10004CC40, symSize: 0x30 }
  - { offset: 0x9B072, size: 0x8, addend: 0x0, symName: __RINvMNtNtCsieiGu2EXtoJ_4core3fmt2rtNtB3_8Argument9new_debugNtNtNtCsHUR1vrdMJt_3std3ffi6os_str8OsStringECseYC8vFNOjrM_2cc, symObjAddr: 0xB50, symBinAddr: 0x10004CC70, symSize: 0x30 }
  - { offset: 0x9B0B7, size: 0x8, addend: 0x0, symName: __RINvMNtNtCsieiGu2EXtoJ_4core3fmt2rtNtB3_8Argument9new_debugQNtNtCsHUR1vrdMJt_3std7process7CommandECseYC8vFNOjrM_2cc, symObjAddr: 0xB80, symBinAddr: 0x10004CCA0, symSize: 0x30 }
  - { offset: 0x9B0EF, size: 0x8, addend: 0x0, symName: __RINvMNtNtCsieiGu2EXtoJ_4core3fmt2rtNtB3_8Argument9new_debugRNtNtCsHUR1vrdMJt_3std7process7CommandECseYC8vFNOjrM_2cc, symObjAddr: 0xBB0, symBinAddr: 0x10004CCD0, symSize: 0x30 }
  - { offset: 0x9B127, size: 0x8, addend: 0x0, symName: __RINvMNtNtCsieiGu2EXtoJ_4core3fmt2rtNtB3_8Argument9new_debugRNtNtNtCsHUR1vrdMJt_3std3ffi6os_str5OsStrECseYC8vFNOjrM_2cc, symObjAddr: 0xBE0, symBinAddr: 0x10004CD00, symSize: 0x30 }
  - { offset: 0x9B15F, size: 0x8, addend: 0x0, symName: __RINvMNtNtCsieiGu2EXtoJ_4core3fmt2rtNtB3_8Argument9new_debugRNtNtNtCsHUR1vrdMJt_3std3ffi6os_str8OsStringECseYC8vFNOjrM_2cc, symObjAddr: 0xC10, symBinAddr: 0x10004CD30, symSize: 0x30 }
  - { offset: 0x9B18A, size: 0x8, addend: 0x0, symName: __RINvMNtNtCsieiGu2EXtoJ_4core3fmt2rtNtB3_8Argument9new_debugReECseYC8vFNOjrM_2cc, symObjAddr: 0xC40, symBinAddr: 0x10004CD60, symSize: 0x30 }
  - { offset: 0x9B1E9, size: 0x8, addend: 0x0, symName: __RINvMs_NtNtCsieiGu2EXtoJ_4core3fmt2rtNtB7_9Arguments6new_v1Kj3_KBW_ECseYC8vFNOjrM_2cc, symObjAddr: 0xC70, symBinAddr: 0x10004CD90, symSize: 0x40 }
  - { offset: 0x9B233, size: 0x8, addend: 0x0, symName: __RINvMs_NtNtCsieiGu2EXtoJ_4core3fmt2rtNtB7_9Arguments6new_v1Kj3_Kj2_ECseYC8vFNOjrM_2cc, symObjAddr: 0xCB0, symBinAddr: 0x10004CDD0, symSize: 0x40 }
  - { offset: 0x9B297, size: 0x8, addend: 0x0, symName: __RINvMs_NtNtCsieiGu2EXtoJ_4core3fmt2rtNtB7_9Arguments6new_v1Kj4_KBW_ECseYC8vFNOjrM_2cc, symObjAddr: 0xCF0, symBinAddr: 0x10004CE10, symSize: 0x40 }
  - { offset: 0x9B2FB, size: 0x8, addend: 0x0, symName: __RINvMs_NtNtCsieiGu2EXtoJ_4core3fmt2rtNtB7_9Arguments6new_v1Kj5_KBW_ECseYC8vFNOjrM_2cc, symObjAddr: 0xD30, symBinAddr: 0x10004CE50, symSize: 0x40 }
  - { offset: 0x9B35F, size: 0x8, addend: 0x0, symName: __RINvMs_NtNtCsieiGu2EXtoJ_4core3fmt2rtNtB7_9Arguments6new_v1Kj6_KBW_ECseYC8vFNOjrM_2cc, symObjAddr: 0xD70, symBinAddr: 0x10004CE90, symSize: 0x40 }
  - { offset: 0x9B66D, size: 0x8, addend: 0x0, symName: __RNvMNtCseYC8vFNOjrM_2cc15command_helpersNtB2_11CargoOutput11print_debug, symObjAddr: 0x1350, symBinAddr: 0x10004D470, symSize: 0x110 }
  - { offset: 0x9B6BB, size: 0x8, addend: 0x0, symName: __RNvMNtCseYC8vFNOjrM_2cc15command_helpersNtB2_11CargoOutput13print_warning, symObjAddr: 0x1460, symBinAddr: 0x10004D580, symSize: 0x70 }
  - { offset: 0x9B709, size: 0x8, addend: 0x0, symName: __RNvMNtCseYC8vFNOjrM_2cc15command_helpersNtB2_11CargoOutput14print_metadata, symObjAddr: 0x14D0, symBinAddr: 0x10004D5F0, symSize: 0x70 }
  - { offset: 0x9B757, size: 0x8, addend: 0x0, symName: __RNvMNtCseYC8vFNOjrM_2cc15command_helpersNtB2_11CargoOutput16stdio_for_output, symObjAddr: 0x1540, symBinAddr: 0x10004D660, symSize: 0x80 }
  - { offset: 0x9B779, size: 0x8, addend: 0x0, symName: __RNvMNtCseYC8vFNOjrM_2cc15command_helpersNtB2_11CargoOutput18stdio_for_warnings, symObjAddr: 0x15C0, symBinAddr: 0x10004D6E0, symSize: 0x50 }
  - { offset: 0x9B79B, size: 0x8, addend: 0x0, symName: __RNvMNtCseYC8vFNOjrM_2cc15command_helpersNtB2_11CargoOutput3new, symObjAddr: 0x1610, symBinAddr: 0x10004D730, symSize: 0x190 }
  - { offset: 0x9B7E2, size: 0x8, addend: 0x0, symName: __RNvMNtCseYC8vFNOjrM_2cc8tempfileNtB2_13NamedTempfile3new, symObjAddr: 0x17A0, symBinAddr: 0x10004D8C0, symSize: 0x430 }
  - { offset: 0x9B8E0, size: 0x8, addend: 0x0, symName: __RNvMNtCseYC8vFNOjrM_2cc8tempfileNtB2_13NamedTempfile4path, symObjAddr: 0x1BD0, symBinAddr: 0x10004DCF0, symSize: 0x20 }
  - { offset: 0x9B90F, size: 0x8, addend: 0x0, symName: __RNvMNtCseYC8vFNOjrM_2cc8tempfileNtB2_13NamedTempfile9take_file, symObjAddr: 0x1BF0, symBinAddr: 0x10004DD10, symSize: 0x30 }
  - { offset: 0x9BA5C, size: 0x8, addend: 0x0, symName: __RNvMs9_NtCsieiGu2EXtoJ_4core3fmtNtB5_9Formatter9write_fmtCseYC8vFNOjrM_2cc, symObjAddr: 0x20C0, symBinAddr: 0x10004E1E0, symSize: 0x190 }
  - { offset: 0x9BB2D, size: 0x8, addend: 0x0, symName: __RNvMs_NtCseYC8vFNOjrM_2cc15command_helpersNtB4_15StderrForwarder11forward_all, symObjAddr: 0x2250, symBinAddr: 0x10004E370, symSize: 0x40 }
  - { offset: 0x9BB4F, size: 0x8, addend: 0x0, symName: __RNvMs_NtCseYC8vFNOjrM_2cc15command_helpersNtB4_15StderrForwarder16set_non_blocking, symObjAddr: 0x2290, symBinAddr: 0x10004E3B0, symSize: 0x140 }
  - { offset: 0x9BBA3, size: 0x8, addend: 0x0, symName: __RNvMs_NtCseYC8vFNOjrM_2cc15command_helpersNtB4_15StderrForwarder17forward_available, symObjAddr: 0x23D0, symBinAddr: 0x10004E4F0, symSize: 0x990 }
  - { offset: 0x9BD34, size: 0x8, addend: 0x0, symName: __RNvMs_NtCseYC8vFNOjrM_2cc15command_helpersNtB4_15StderrForwarder3new, symObjAddr: 0x2D60, symBinAddr: 0x10004EE80, symSize: 0x80 }
  - { offset: 0x9BD56, size: 0x8, addend: 0x0, symName: __RNvMs_NtNtCsieiGu2EXtoJ_4core3fmt2rtNtB6_9Arguments16new_v1_formattedCseYC8vFNOjrM_2cc, symObjAddr: 0x2DE0, symBinAddr: 0x10004EF00, symSize: 0x50 }
  - { offset: 0x9BE66, size: 0x8, addend: 0x0, symName: __RNvMs_NtNtNtCsHUR1vrdMJt_3std4sync4mpmc5arrayINtB4_7ChannelINtNtCsieiGu2EXtoJ_4core6result6ResultNtCslzRnRZxZnvp_9jobserver8AcquiredNtNtNtBa_2io5error5ErrorEE10start_recvCseYC8vFNOjrM_2cc, symObjAddr: 0x2E30, symBinAddr: 0x10004EF50, symSize: 0x400 }
  - { offset: 0x9C2BD, size: 0x8, addend: 0x0, symName: __RNvMs_NtNtNtCsHUR1vrdMJt_3std4sync4mpmc5arrayINtB4_7ChannelINtNtCsieiGu2EXtoJ_4core6result6ResultNtCslzRnRZxZnvp_9jobserver8AcquiredNtNtNtBa_2io5error5ErrorEE10start_sendCseYC8vFNOjrM_2cc, symObjAddr: 0x3230, symBinAddr: 0x10004F350, symSize: 0x490 }
  - { offset: 0x9C74B, size: 0x8, addend: 0x0, symName: __RNvMs_NtNtNtCsHUR1vrdMJt_3std4sync4mpmc5arrayINtB4_7ChannelINtNtCsieiGu2EXtoJ_4core6result6ResultNtCslzRnRZxZnvp_9jobserver8AcquiredNtNtNtBa_2io5error5ErrorEE18disconnect_sendersCseYC8vFNOjrM_2cc, symObjAddr: 0x36C0, symBinAddr: 0x10004F7E0, symSize: 0xE0 }
  - { offset: 0x9C8DB, size: 0x8, addend: 0x0, symName: __RNvMs_NtNtNtCsHUR1vrdMJt_3std4sync4mpmc5arrayINtB4_7ChannelINtNtCsieiGu2EXtoJ_4core6result6ResultNtCslzRnRZxZnvp_9jobserver8AcquiredNtNtNtBa_2io5error5ErrorEE20discard_all_messagesCseYC8vFNOjrM_2cc, symObjAddr: 0x37A0, symBinAddr: 0x10004F8C0, symSize: 0x210 }
  - { offset: 0x9CB82, size: 0x8, addend: 0x0, symName: __RNvMs_NtNtNtCsHUR1vrdMJt_3std4sync4mpmc5arrayINtB4_7ChannelINtNtCsieiGu2EXtoJ_4core6result6ResultNtCslzRnRZxZnvp_9jobserver8AcquiredNtNtNtBa_2io5error5ErrorEE20disconnect_receiversCseYC8vFNOjrM_2cc, symObjAddr: 0x39B0, symBinAddr: 0x10004FAD0, symSize: 0xF0 }
  - { offset: 0x9CCF2, size: 0x8, addend: 0x0, symName: __RNvMs_NtNtNtCsHUR1vrdMJt_3std4sync4mpmc5arrayINtB4_7ChannelINtNtCsieiGu2EXtoJ_4core6result6ResultNtCslzRnRZxZnvp_9jobserver8AcquiredNtNtNtBa_2io5error5ErrorEE4readCseYC8vFNOjrM_2cc, symObjAddr: 0x3AA0, symBinAddr: 0x10004FBC0, symSize: 0x180 }
  - { offset: 0x9CFB3, size: 0x8, addend: 0x0, symName: __RNvMs_NtNtNtCsHUR1vrdMJt_3std4sync4mpmc5arrayINtB4_7ChannelINtNtCsieiGu2EXtoJ_4core6result6ResultNtCslzRnRZxZnvp_9jobserver8AcquiredNtNtNtBa_2io5error5ErrorEE4sendCseYC8vFNOjrM_2cc, symObjAddr: 0x3C20, symBinAddr: 0x10004FD40, symSize: 0x3C0 }
  - { offset: 0x9D30B, size: 0x8, addend: 0x0, symName: __RNvMs_NtNtNtCsHUR1vrdMJt_3std4sync4mpmc5arrayINtB4_7ChannelINtNtCsieiGu2EXtoJ_4core6result6ResultNtCslzRnRZxZnvp_9jobserver8AcquiredNtNtNtBa_2io5error5ErrorEE5writeCseYC8vFNOjrM_2cc, symObjAddr: 0x3FE0, symBinAddr: 0x100050100, symSize: 0x110 }
  - { offset: 0x9D47E, size: 0x8, addend: 0x0, symName: __RNvMs_NtNtNtCsHUR1vrdMJt_3std4sync4mpmc5arrayINtB4_7ChannelINtNtCsieiGu2EXtoJ_4core6result6ResultNtCslzRnRZxZnvp_9jobserver8AcquiredNtNtNtBa_2io5error5ErrorEE7is_fullCseYC8vFNOjrM_2cc, symObjAddr: 0x40F0, symBinAddr: 0x100050210, symSize: 0xB0 }
  - { offset: 0x9D600, size: 0x8, addend: 0x0, symName: __RNvMs_NtNtNtCsHUR1vrdMJt_3std4sync4mpmc5arrayINtB4_7ChannelINtNtCsieiGu2EXtoJ_4core6result6ResultNtCslzRnRZxZnvp_9jobserver8AcquiredNtNtNtBa_2io5error5ErrorEE8try_recvCseYC8vFNOjrM_2cc, symObjAddr: 0x41A0, symBinAddr: 0x1000502C0, symSize: 0xE0 }
  - { offset: 0x9DA58, size: 0x8, addend: 0x0, symName: __RINvMs0_NtNtNtNtCsHUR1vrdMJt_3std3sys12thread_local6native4lazyINtB6_7StorageINtNtCsieiGu2EXtoJ_4core4cell4CellINtNtB1i_6option6OptionNtNtNtNtBe_4sync4mpmc7context7ContextEEuE11get_or_initNvNvNvMB2a_B28_4with7CONTEXT6___initECseYC8vFNOjrM_2cc, symObjAddr: 0x0, symBinAddr: 0x100053260, symSize: 0x80 }
  - { offset: 0x9DAAF, size: 0x8, addend: 0x0, symName: __RNvXsh_NtNtCslJiobkLta79_5alloc5boxed7convertINtB7_3BoxDNtNtCsieiGu2EXtoJ_4core5error5ErrorNtNtBW_6marker4SyncNtB1t_4SendEL_EINtNtBW_7convert4FromNtNtB9_6string6StringE4fromCseYC8vFNOjrM_2cc, symObjAddr: 0x4EC0, symBinAddr: 0x100057B70, symSize: 0x90 }
  - { offset: 0x9DB02, size: 0x8, addend: 0x0, symName: __RNvXs1_NtNtCslJiobkLta79_5alloc5boxed7convertINtB7_3BoxShEINtB5_12BoxFromSlicehE10from_sliceCseYC8vFNOjrM_2cc, symObjAddr: 0x3E00, symBinAddr: 0x100056AB0, symSize: 0x190 }
  - { offset: 0x9DD7E, size: 0x8, addend: 0x0, symName: __RNvXs5_NtNtCslJiobkLta79_5alloc5boxed7convertINtB7_3BoxeEINtNtCsieiGu2EXtoJ_4core7convert4FromReE4fromCseYC8vFNOjrM_2cc, symObjAddr: 0x4130, symBinAddr: 0x100056DE0, symSize: 0x60 }
  - { offset: 0x9DE8F, size: 0x8, addend: 0x0, symName: __RINvXsb_NtNtCslJiobkLta79_5alloc5boxed4iterINtB8_3BoxSIBG_NtNtNtCsHUR1vrdMJt_3std3ffi6os_str5OsStrEEINtNtNtNtCsieiGu2EXtoJ_4core4iter6traits7collect12FromIteratorBQ_E9from_iterINtNtNtB1H_8adapters3map3MapINtNtB2T_5chain5ChainINtNtB2T_6cloned6ClonedINtNtNtB1J_5slice4iter4IterRBU_EEIB2P_IB3Z_NtNtBa_6string6StringEINvMsl_BW_BU_3newB4F_EEENvYB4p_INtNtB1J_7convert4IntoBQ_E4intoEECseYC8vFNOjrM_2cc, symObjAddr: 0x12E0, symBinAddr: 0x100054030, symSize: 0x40 }
  - { offset: 0x9DED5, size: 0x8, addend: 0x0, symName: __RINvXsi_NtCslJiobkLta79_5alloc5boxedINtB6_3BoxNtNtCsHUR1vrdMJt_3std4path4PathENtNtCsieiGu2EXtoJ_4core4hash4Hash4hashNtNtNtBM_4hash6random13DefaultHasherECseYC8vFNOjrM_2cc, symObjAddr: 0x1320, symBinAddr: 0x100054070, symSize: 0x30 }
  - { offset: 0x9DF29, size: 0x8, addend: 0x0, symName: __RINvXsi_NtCslJiobkLta79_5alloc5boxedINtB6_3BoxNtNtNtCsHUR1vrdMJt_3std3ffi6os_str5OsStrENtNtCsieiGu2EXtoJ_4core4hash4Hash4hashNtNtNtBO_4hash6random13DefaultHasherECseYC8vFNOjrM_2cc, symObjAddr: 0x1350, symBinAddr: 0x1000540A0, symSize: 0x30 }
  - { offset: 0x9DF7D, size: 0x8, addend: 0x0, symName: __RINvXsi_NtCslJiobkLta79_5alloc5boxedINtB6_3BoxSIBz_NtNtNtCsHUR1vrdMJt_3std3ffi6os_str5OsStrEENtNtCsieiGu2EXtoJ_4core4hash4Hash4hashNtNtNtBT_4hash6random13DefaultHasherECseYC8vFNOjrM_2cc, symObjAddr: 0x1380, symBinAddr: 0x1000540D0, symSize: 0x30 }
  - { offset: 0x9DFD1, size: 0x8, addend: 0x0, symName: __RINvXsi_NtCslJiobkLta79_5alloc5boxedINtB6_3BoxeENtNtCsieiGu2EXtoJ_4core4hash4Hash4hashNtNtNtCsHUR1vrdMJt_3std4hash6random13DefaultHasherECseYC8vFNOjrM_2cc, symObjAddr: 0x13B0, symBinAddr: 0x100054100, symSize: 0x30 }
  - { offset: 0x9E02B, size: 0x8, addend: 0x0, symName: __RNvMs_NtCslJiobkLta79_5alloc5boxedINtB4_3BoxINtNtB6_4sync8ArcInnerNtCseYC8vFNOjrM_2cc10BuildCacheEE13new_uninit_inB14_, symObjAddr: 0x1F50, symBinAddr: 0x100054C20, symSize: 0x80 }
  - { offset: 0x9E123, size: 0x8, addend: 0x0, symName: __RNvMs_NtCslJiobkLta79_5alloc5boxedINtB4_3BoxINtNtB6_4sync8ArcInnerNtCseYC8vFNOjrM_2cc10BuildCacheEE17try_new_uninit_inB14_, symObjAddr: 0x1FD0, symBinAddr: 0x100054CA0, symSize: 0x140 }
  - { offset: 0x9E361, size: 0x8, addend: 0x0, symName: __RNvMs_NtCslJiobkLta79_5alloc5boxedINtB4_3BoxINtNtNtNtCsHUR1vrdMJt_3std4sync4mpmc4list5BlockINtNtCsieiGu2EXtoJ_4core6result6ResultNtCslzRnRZxZnvp_9jobserver8AcquiredNtNtNtBP_2io5error5ErrorEEE13new_zeroed_inCseYC8vFNOjrM_2cc, symObjAddr: 0x2110, symBinAddr: 0x100054DE0, symSize: 0x80 }
  - { offset: 0x9E459, size: 0x8, addend: 0x0, symName: __RNvMs_NtCslJiobkLta79_5alloc5boxedINtB4_3BoxINtNtNtNtCsHUR1vrdMJt_3std4sync4mpmc4list5BlockINtNtCsieiGu2EXtoJ_4core6result6ResultNtCslzRnRZxZnvp_9jobserver8AcquiredNtNtNtBP_2io5error5ErrorEEE17try_new_zeroed_inCseYC8vFNOjrM_2cc, symObjAddr: 0x2190, symBinAddr: 0x100054E60, symSize: 0x140 }
  - { offset: 0x9E8A9, size: 0x8, addend: 0x0, symName: __RNvXs6_NtCslJiobkLta79_5alloc5boxedINtB5_3BoxINtNtNtCsieiGu2EXtoJ_4core3mem12maybe_uninit11MaybeUninitINtNtB7_4sync8ArcInnerNtCseYC8vFNOjrM_2cc10BuildCacheEEENtNtNtBO_3ops4drop4Drop4dropB20_, symObjAddr: 0x4190, symBinAddr: 0x100056E40, symSize: 0xB0 }
  - { offset: 0x9E9E4, size: 0x8, addend: 0x0, symName: __RNvXs6_NtCslJiobkLta79_5alloc5boxedINtB5_3BoxINtNtNtNtCsHUR1vrdMJt_3std4sync4mpmc4list5BlockINtNtCsieiGu2EXtoJ_4core6result6ResultNtCslzRnRZxZnvp_9jobserver8AcquiredNtNtNtBQ_2io5error5ErrorEEENtNtNtB1x_3ops4drop4Drop4dropCseYC8vFNOjrM_2cc, symObjAddr: 0x4240, symBinAddr: 0x100056EF0, symSize: 0xB0 }
  - { offset: 0x9EB1F, size: 0x8, addend: 0x0, symName: __RNvXs6_NtCslJiobkLta79_5alloc5boxedINtB5_3BoxINtNtNtNtCsHUR1vrdMJt_3std4sync4mpmc4zero6PacketINtNtCsieiGu2EXtoJ_4core6result6ResultNtCslzRnRZxZnvp_9jobserver8AcquiredNtNtNtBQ_2io5error5ErrorEEENtNtNtB1y_3ops4drop4Drop4dropCseYC8vFNOjrM_2cc, symObjAddr: 0x42F0, symBinAddr: 0x100056FA0, symSize: 0xB0 }
  - { offset: 0x9EC5A, size: 0x8, addend: 0x0, symName: __RNvXs6_NtCslJiobkLta79_5alloc5boxedINtB5_3BoxINtNtNtNtCsHUR1vrdMJt_3std4sync4mpmc7counter7CounterINtNtBM_4list7ChannelINtNtCsieiGu2EXtoJ_4core6result6ResultNtCslzRnRZxZnvp_9jobserver8AcquiredNtNtNtBQ_2io5error5ErrorEEEENtNtNtB1X_3ops4drop4Drop4dropCseYC8vFNOjrM_2cc, symObjAddr: 0x43A0, symBinAddr: 0x100057050, symSize: 0xB0 }
  - { offset: 0x9ED95, size: 0x8, addend: 0x0, symName: __RNvXs6_NtCslJiobkLta79_5alloc5boxedINtB5_3BoxINtNtNtNtCsHUR1vrdMJt_3std4sync4mpmc7counter7CounterINtNtBM_4zero7ChannelINtNtCsieiGu2EXtoJ_4core6result6ResultNtCslzRnRZxZnvp_9jobserver8AcquiredNtNtNtBQ_2io5error5ErrorEEEENtNtNtB1X_3ops4drop4Drop4dropCseYC8vFNOjrM_2cc, symObjAddr: 0x4450, symBinAddr: 0x100057100, symSize: 0xB0 }
  - { offset: 0x9EED0, size: 0x8, addend: 0x0, symName: __RNvXs6_NtCslJiobkLta79_5alloc5boxedINtB5_3BoxINtNtNtNtCsHUR1vrdMJt_3std4sync4mpmc7counter7CounterINtNtBM_5array7ChannelINtNtCsieiGu2EXtoJ_4core6result6ResultNtCslzRnRZxZnvp_9jobserver8AcquiredNtNtNtBQ_2io5error5ErrorEEEENtNtNtB1Y_3ops4drop4Drop4dropCseYC8vFNOjrM_2cc, symObjAddr: 0x4500, symBinAddr: 0x1000571B0, symSize: 0xB0 }
  - { offset: 0x9F00B, size: 0x8, addend: 0x0, symName: __RNvXs6_NtCslJiobkLta79_5alloc5boxedINtB5_3BoxNtNtNtCsHUR1vrdMJt_3std3ffi6os_str5OsStrENtNtNtCsieiGu2EXtoJ_4core3ops4drop4Drop4dropCseYC8vFNOjrM_2cc, symObjAddr: 0x45B0, symBinAddr: 0x100057260, symSize: 0xD0 }
  - { offset: 0x9F148, size: 0x8, addend: 0x0, symName: __RNvXs6_NtCslJiobkLta79_5alloc5boxedINtB5_3BoxSIBy_NtNtNtCsHUR1vrdMJt_3std3ffi6os_str5OsStrEENtNtNtCsieiGu2EXtoJ_4core3ops4drop4Drop4dropCseYC8vFNOjrM_2cc, symObjAddr: 0x4680, symBinAddr: 0x100057330, symSize: 0xC0 }
  - { offset: 0x9F285, size: 0x8, addend: 0x0, symName: __RNvXs6_NtCslJiobkLta79_5alloc5boxedINtB5_3BoxSINtNtNtNtCsHUR1vrdMJt_3std4sync4mpmc5array4SlotINtNtCsieiGu2EXtoJ_4core6result6ResultNtCslzRnRZxZnvp_9jobserver8AcquiredNtNtNtBR_2io5error5ErrorEEENtNtNtB1y_3ops4drop4Drop4dropCseYC8vFNOjrM_2cc, symObjAddr: 0x4740, symBinAddr: 0x1000573F0, symSize: 0xC0 }
  - { offset: 0x9F3C2, size: 0x8, addend: 0x0, symName: __RNvXs6_NtCslJiobkLta79_5alloc5boxedINtB5_3BoxeENtNtNtCsieiGu2EXtoJ_4core3ops4drop4Drop4dropCseYC8vFNOjrM_2cc, symObjAddr: 0x4800, symBinAddr: 0x1000574B0, symSize: 0xC0 }
  - { offset: 0x9F505, size: 0x8, addend: 0x0, symName: __RNvXsA_NtCslJiobkLta79_5alloc5boxedINtB5_3BoxeEINtNtCsieiGu2EXtoJ_4core6borrow6BorroweE6borrowCseYC8vFNOjrM_2cc, symObjAddr: 0x4980, symBinAddr: 0x100057630, symSize: 0x20 }
  - { offset: 0x9F54B, size: 0x8, addend: 0x0, symName: __RNvXse_NtCslJiobkLta79_5alloc5boxedINtB5_3BoxNtNtCsHUR1vrdMJt_3std4path4PathENtNtCsieiGu2EXtoJ_4core3cmp9PartialEq2eqCseYC8vFNOjrM_2cc, symObjAddr: 0x4D80, symBinAddr: 0x100057A30, symSize: 0x40 }
  - { offset: 0x9F59A, size: 0x8, addend: 0x0, symName: __RNvXse_NtCslJiobkLta79_5alloc5boxedINtB5_3BoxNtNtNtCsHUR1vrdMJt_3std3ffi6os_str5OsStrENtNtCsieiGu2EXtoJ_4core3cmp9PartialEq2eqCseYC8vFNOjrM_2cc, symObjAddr: 0x4DC0, symBinAddr: 0x100057A70, symSize: 0x40 }
  - { offset: 0x9F5E9, size: 0x8, addend: 0x0, symName: __RNvXse_NtCslJiobkLta79_5alloc5boxedINtB5_3BoxNtNtNtCsHUR1vrdMJt_3std3ffi6os_str5OsStrENtNtCsieiGu2EXtoJ_4core3cmp9PartialEq2neCseYC8vFNOjrM_2cc, symObjAddr: 0x4E00, symBinAddr: 0x100057AB0, symSize: 0x40 }
  - { offset: 0x9F638, size: 0x8, addend: 0x0, symName: __RNvXse_NtCslJiobkLta79_5alloc5boxedINtB5_3BoxSIBy_NtNtNtCsHUR1vrdMJt_3std3ffi6os_str5OsStrEENtNtCsieiGu2EXtoJ_4core3cmp9PartialEq2eqCseYC8vFNOjrM_2cc, symObjAddr: 0x4E40, symBinAddr: 0x100057AF0, symSize: 0x40 }
  - { offset: 0x9F687, size: 0x8, addend: 0x0, symName: __RNvXse_NtCslJiobkLta79_5alloc5boxedINtB5_3BoxeENtNtCsieiGu2EXtoJ_4core3cmp9PartialEq2eqCseYC8vFNOjrM_2cc, symObjAddr: 0x4E80, symBinAddr: 0x100057B30, symSize: 0x40 }
  - { offset: 0x9F709, size: 0x8, addend: 0x0, symName: __RNvXsl_NtCslJiobkLta79_5alloc5boxedINtB5_3BoxeENtNtCsieiGu2EXtoJ_4core3fmt5Debug3fmtCseYC8vFNOjrM_2cc, symObjAddr: 0x54D0, symBinAddr: 0x100058180, symSize: 0x30 }
  - { offset: 0x9F85A, size: 0x8, addend: 0x0, symName: __RNvXs_NtNtCslJiobkLta79_5alloc3vec15set_len_on_dropNtB4_12SetLenOnDropNtNtNtCsieiGu2EXtoJ_4core3ops4drop4Drop4dropCseYC8vFNOjrM_2cc, symObjAddr: 0x4B90, symBinAddr: 0x100057840, symSize: 0x20 }
  - { offset: 0xA1359, size: 0x8, addend: 0x0, symName: __RINvNtCsieiGu2EXtoJ_4core3ptr10swap_chunkKj1_ECseYC8vFNOjrM_2cc, symObjAddr: 0x990, symBinAddr: 0x100053790, symSize: 0x30 }
  - { offset: 0xA1392, size: 0x8, addend: 0x0, symName: __RINvNtCsieiGu2EXtoJ_4core3ptr10swap_chunkKj2_ECseYC8vFNOjrM_2cc, symObjAddr: 0x9C0, symBinAddr: 0x1000537C0, symSize: 0x30 }
  - { offset: 0xA13CB, size: 0x8, addend: 0x0, symName: __RINvNtCsieiGu2EXtoJ_4core3ptr10swap_chunkKj4_ECseYC8vFNOjrM_2cc, symObjAddr: 0x9F0, symBinAddr: 0x1000537F0, symSize: 0x30 }
  - { offset: 0xA1404, size: 0x8, addend: 0x0, symName: __RINvNtCsieiGu2EXtoJ_4core3ptr10swap_chunkKj8_ECseYC8vFNOjrM_2cc, symObjAddr: 0xA20, symBinAddr: 0x100053820, symSize: 0x30 }
  - { offset: 0xA14AA, size: 0x8, addend: 0x0, symName: __RNvNvNtCsieiGu2EXtoJ_4core3ptr19swap_nonoverlapping18precondition_checkCseYC8vFNOjrM_2cc, symObjAddr: 0x2AA0, symBinAddr: 0x100055750, symSize: 0x4E0 }
  - { offset: 0xA17EA, size: 0x8, addend: 0x0, symName: __RINvNtCsieiGu2EXtoJ_4core3ptr19swap_nonoverlappinghECseYC8vFNOjrM_2cc, symObjAddr: 0xB00, symBinAddr: 0x100053850, symSize: 0xB0 }
  - { offset: 0xA1938, size: 0x8, addend: 0x0, symName: __RINvNvNtCsieiGu2EXtoJ_4core3ptr25swap_nonoverlapping_bytes26swap_nonoverlapping_chunksKj8_ECseYC8vFNOjrM_2cc, symObjAddr: 0xBE0, symBinAddr: 0x100053930, symSize: 0x110 }
  - { offset: 0xA1ADD, size: 0x8, addend: 0x0, symName: __RNvNvNtCsieiGu2EXtoJ_4core3ptr25swap_nonoverlapping_bytes25swap_nonoverlapping_shortCseYC8vFNOjrM_2cc, symObjAddr: 0x2F80, symBinAddr: 0x100055C30, symSize: 0x160 }
  - { offset: 0xA1F35, size: 0x8, addend: 0x0, symName: __RNvNtCsieiGu2EXtoJ_4core3ptr25swap_nonoverlapping_bytesCseYC8vFNOjrM_2cc, symObjAddr: 0x2390, symBinAddr: 0x100055040, symSize: 0xD0 }
  - { offset: 0xA20DE, size: 0x8, addend: 0x0, symName: __RNvNvNtCsieiGu2EXtoJ_4core3ptr19copy_nonoverlapping18precondition_checkCseYC8vFNOjrM_2cc, symObjAddr: 0x25F0, symBinAddr: 0x1000552A0, symSize: 0x4B0 }
  - { offset: 0xA23EF, size: 0x8, addend: 0x0, symName: __RNvNvNtCsieiGu2EXtoJ_4core3ptr4copy18precondition_checkCseYC8vFNOjrM_2cc, symObjAddr: 0x30E0, symBinAddr: 0x100055D90, symSize: 0x330 }
  - { offset: 0xA269D, size: 0x8, addend: 0x0, symName: __RNvNvNtCsieiGu2EXtoJ_4core3ptr7replace18precondition_checkCseYC8vFNOjrM_2cc, symObjAddr: 0x3410, symBinAddr: 0x1000560C0, symSize: 0x1E0 }
  - { offset: 0xA30C5, size: 0x8, addend: 0x0, symName: __RNvXs7_NtNtCsieiGu2EXtoJ_4core3cmp5implsRNtNtCsHUR1vrdMJt_3std4path4PathNtB7_9PartialEq2eqCseYC8vFNOjrM_2cc, symObjAddr: 0x48C0, symBinAddr: 0x100057570, symSize: 0x40 }
  - { offset: 0xA52A6, size: 0x8, addend: 0x0, symName: __RINvXs_NtNtNtCsieiGu2EXtoJ_4core4iter8adapters6clonedINtB5_6ClonedINtNtNtBb_5slice4iter4IterRNtNtNtCsHUR1vrdMJt_3std3ffi6os_str5OsStrEENtNtNtB9_6traits8iterator8Iterator4folduQNCINvNtB7_3map8map_foldB1s_INtNtCslJiobkLta79_5alloc5boxed3BoxB1t_EuNvYB1s_INtNtBb_7convert4IntoB3f_E4intoNCINvNvB29_8for_each4callB3f_NCINvMsi_NtB3k_3vecINtB58_3VecB3f_E14extend_trustedINtB2T_3MapINtNtB7_5chain5ChainBP_IB5P_IB13_NtNtB3k_6string6StringEINvMsl_B1v_B1t_3newB6w_EEEB3U_EE0E0E0ECseYC8vFNOjrM_2cc, symObjAddr: 0x1220, symBinAddr: 0x100053F70, symSize: 0x90 }
  - { offset: 0xA533C, size: 0x8, addend: 0x0, symName: __RNvXs_NtNtNtCsieiGu2EXtoJ_4core4iter8adapters6clonedINtB4_6ClonedINtNtNtBa_5slice4iter4IterRNtNtNtCsHUR1vrdMJt_3std3ffi6os_str5OsStrEENtNtNtB8_6traits8iterator8Iterator9size_hintCseYC8vFNOjrM_2cc, symObjAddr: 0x4BB0, symBinAddr: 0x100057860, symSize: 0x30 }
  - { offset: 0xA5409, size: 0x8, addend: 0x0, symName: __RNvXs0_NtNtNtCsieiGu2EXtoJ_4core4iter8adapters10filter_mapINtB5_9FilterMapINtNtNtBb_5slice4iter4IterNtNtCslJiobkLta79_5alloc6string6StringENCNvMs4_CseYC8vFNOjrM_2ccNtB2l_5Build27getenv_with_target_prefixes0ENtNtNtB9_6traits8iterator8Iterator4nextB2l_, symObjAddr: 0x3850, symBinAddr: 0x100056500, symSize: 0x20 }
  - { offset: 0xA5450, size: 0x8, addend: 0x0, symName: __RNvXs0_NtNtNtCsieiGu2EXtoJ_4core4iter8adapters10filter_mapINtB5_9FilterMapINtNtNtBb_5slice4iter4IterReENCNvMs4_CseYC8vFNOjrM_2ccNtB1L_5Build25get_base_archiver_variants1_0ENtNtNtB9_6traits8iterator8Iterator4nextB1L_, symObjAddr: 0x3870, symBinAddr: 0x100056520, symSize: 0x30 }
  - { offset: 0xA5570, size: 0x8, addend: 0x0, symName: __RINvYINtNtNtNtCsieiGu2EXtoJ_4core4iter8adapters6cloned6ClonedINtNtNtBc_5slice4iter4IterRNtNtNtCsHUR1vrdMJt_3std3ffi6os_str5OsStrEENtNtNtBa_6traits8iterator8Iterator5chainINtNtB8_3map3MapIBY_NtNtCslJiobkLta79_5alloc6string6StringEINvMsl_B1q_B1o_3newB32_EEECseYC8vFNOjrM_2cc, symObjAddr: 0x1470, symBinAddr: 0x1000541C0, symSize: 0xC0 }
  - { offset: 0xA55E6, size: 0x8, addend: 0x0, symName: __RINvYNtNtCsHUR1vrdMJt_3std4path10ComponentsNtNtNtNtCsieiGu2EXtoJ_4core4iter6traits8iterator8Iterator4foldjNCNvYB3_BF_5count0ECseYC8vFNOjrM_2cc, symObjAddr: 0x1700, symBinAddr: 0x100054450, symSize: 0x180 }
  - { offset: 0xA56E0, size: 0x8, addend: 0x0, symName: __RNvYNtNtCsHUR1vrdMJt_3std4path10ComponentsNtNtNtNtCsieiGu2EXtoJ_4core4iter6traits8iterator8Iterator5countCseYC8vFNOjrM_2cc, symObjAddr: 0x5800, symBinAddr: 0x1000584B0, symSize: 0x10 }
  - { offset: 0xA57A4, size: 0x8, addend: 0x0, symName: __RINvYNtNtCsHUR1vrdMJt_3std4path10ComponentsNtNtNtNtCsieiGu2EXtoJ_4core4iter6traits12double_ended19DoubleEndedIterator9try_rfolduNCINvNvNtNtBJ_8iterator8Iterator12try_for_each4callNtB5_9ComponentINtNtNtBN_3ops12control_flow11ControlFlowIB37_uNtNtBN_3cmp8OrderingEENCINvNvB2b_12iter_compare7compareINtNtNtBL_8adapters3rev3RevB3_EB2R_uNCINvNvB29_5eq_by7compareB2R_B2R_NCINvYB4K_B29_2eqB4K_E0E0E0E0B36_ECseYC8vFNOjrM_2cc, symObjAddr: 0x1530, symBinAddr: 0x100054280, symSize: 0x1D0 }
  - { offset: 0xA5A14, size: 0x8, addend: 0x0, symName: __RNvXs_NtNtCsieiGu2EXtoJ_4core5slice4iterRSRNtNtCsHUR1vrdMJt_3std4path4PathNtNtNtNtB8_4iter6traits7collect12IntoIterator9into_iterCseYC8vFNOjrM_2cc, symObjAddr: 0x4B40, symBinAddr: 0x1000577F0, symSize: 0x50 }
  - { offset: 0xA5D05, size: 0x8, addend: 0x0, symName: __RNvMNtCsieiGu2EXtoJ_4core5sliceSRNtNtCsHUR1vrdMJt_3std4path4Path18split_at_uncheckedCseYC8vFNOjrM_2cc, symObjAddr: 0x1940, symBinAddr: 0x100054690, symSize: 0xF0 }
  - { offset: 0xA5E5F, size: 0x8, addend: 0x0, symName: __RNvMNtCsieiGu2EXtoJ_4core5sliceSRNtNtCsHUR1vrdMJt_3std4path4Path6chunksCseYC8vFNOjrM_2cc, symObjAddr: 0x1A30, symBinAddr: 0x100054780, symSize: 0xB0 }
  - { offset: 0xA5FBE, size: 0x8, addend: 0x0, symName: __RNvXNtNtCsieiGu2EXtoJ_4core5slice3cmpSINtNtCslJiobkLta79_5alloc5boxed3BoxNtNtNtCsHUR1vrdMJt_3std3ffi6os_str5OsStrENtNtB6_3cmp9PartialEq2eqCseYC8vFNOjrM_2cc, symObjAddr: 0x3720, symBinAddr: 0x1000563D0, symSize: 0x30 }
  - { offset: 0xA6049, size: 0x8, addend: 0x0, symName: __RNvXs2_NtNtCsieiGu2EXtoJ_4core5slice3cmpSINtNtCslJiobkLta79_5alloc5boxed3BoxNtNtNtCsHUR1vrdMJt_3std3ffi6os_str5OsStrEINtB5_14SlicePartialEqBD_E5equalCseYC8vFNOjrM_2cc, symObjAddr: 0x4030, symBinAddr: 0x100056CE0, symSize: 0x100 }
  - { offset: 0xA6109, size: 0x8, addend: 0x0, symName: __RINvXs2_NtNtCsieiGu2EXtoJ_4core4hash5implsSINtNtCslJiobkLta79_5alloc5boxed3BoxNtNtNtCsHUR1vrdMJt_3std3ffi6os_str5OsStrENtB8_4Hash4hashNtNtNtB1k_4hash6random13DefaultHasherECseYC8vFNOjrM_2cc, symObjAddr: 0x1190, symBinAddr: 0x100053EE0, symSize: 0x50 }
  - { offset: 0xA615A, size: 0x8, addend: 0x0, symName: __RINvXs3_NtNtCsieiGu2EXtoJ_4core4hash5implsRINtNtCslJiobkLta79_5alloc5boxed3BoxSIBG_NtNtNtCsHUR1vrdMJt_3std3ffi6os_str5OsStrEENtB8_4Hash4hashNtNtNtB1p_4hash6random13DefaultHasherECseYC8vFNOjrM_2cc, symObjAddr: 0x11E0, symBinAddr: 0x100053F30, symSize: 0x20 }
  - { offset: 0xA61A5, size: 0x8, addend: 0x0, symName: __RINvXs3_NtNtCsieiGu2EXtoJ_4core4hash5implsRINtNtCslJiobkLta79_5alloc5boxed3BoxeENtB8_4Hash4hashNtNtNtCsHUR1vrdMJt_3std4hash6random13DefaultHasherECseYC8vFNOjrM_2cc, symObjAddr: 0x1200, symBinAddr: 0x100053F50, symSize: 0x20 }
  - { offset: 0xA61F7, size: 0x8, addend: 0x0, symName: __RINvYINtNtCslJiobkLta79_5alloc5boxed3BoxNtNtNtCsHUR1vrdMJt_3std3ffi6os_str5OsStrENtNtCsieiGu2EXtoJ_4core4hash4Hash10hash_sliceNtNtNtBI_4hash6random13DefaultHasherECseYC8vFNOjrM_2cc, symObjAddr: 0x13E0, symBinAddr: 0x100054130, symSize: 0x90 }
  - { offset: 0xA70E1, size: 0x8, addend: 0x0, symName: __RNvNvMNtNtCsieiGu2EXtoJ_4core5alloc6layoutNtB4_6Layout25from_size_align_unchecked18precondition_checkCseYC8vFNOjrM_2cc, symObjAddr: 0x2460, symBinAddr: 0x100055110, symSize: 0xB0 }
  - { offset: 0xA714F, size: 0x8, addend: 0x0, symName: __RNvNvMNtNtCsieiGu2EXtoJ_4core5alloc6layoutNtB4_6Layout5array5innerCseYC8vFNOjrM_2cc, symObjAddr: 0x2510, symBinAddr: 0x1000551C0, symSize: 0xE0 }
  - { offset: 0xA7229, size: 0x8, addend: 0x0, symName: __RNvXsc_NtNtCsieiGu2EXtoJ_4core5alloc6layoutNtB5_11LayoutErrorNtNtB9_3fmt5Debug3fmtCseYC8vFNOjrM_2cc, symObjAddr: 0x4C20, symBinAddr: 0x1000578D0, symSize: 0x40 }
  - { offset: 0xA728D, size: 0x8, addend: 0x0, symName: __RNvXNtCsieiGu2EXtoJ_4core7convertRNtNtCsHUR1vrdMJt_3std4path4PathINtB2_5AsRefNtNtNtBA_3ffi6os_str5OsStrE6as_refCseYC8vFNOjrM_2cc, symObjAddr: 0x36B0, symBinAddr: 0x100056360, symSize: 0x30 }
  - { offset: 0xA72CD, size: 0x8, addend: 0x0, symName: __RNvXNtCsieiGu2EXtoJ_4core7convertRNtNtCsHUR1vrdMJt_3std4path7PathBufINtB2_5AsRefNtBy_4PathE6as_refCseYC8vFNOjrM_2cc, symObjAddr: 0x36E0, symBinAddr: 0x100056390, symSize: 0x20 }
  - { offset: 0xA730D, size: 0x8, addend: 0x0, symName: __RNvXNtCsieiGu2EXtoJ_4core7convertRRNtNtCsHUR1vrdMJt_3std4path4PathINtB2_5AsRefNtNtNtBB_3ffi6os_str5OsStrE6as_refCseYC8vFNOjrM_2cc, symObjAddr: 0x3700, symBinAddr: 0x1000563B0, symSize: 0x20 }
  - { offset: 0xA7353, size: 0x8, addend: 0x0, symName: __RNvXs1_NtCsieiGu2EXtoJ_4core7convertNtNtCsHUR1vrdMJt_3std4path7PathBufINtB5_4IntoNtNtNtBC_3ffi6os_str8OsStringE4intoCseYC8vFNOjrM_2cc, symObjAddr: 0x3D90, symBinAddr: 0x100056A40, symSize: 0x20 }
  - { offset: 0xA7394, size: 0x8, addend: 0x0, symName: __RNvXs1_NtCsieiGu2EXtoJ_4core7convertRNtNtCsHUR1vrdMJt_3std4path4PathINtB5_4IntoINtNtCslJiobkLta79_5alloc4sync3ArcBz_EE4intoCseYC8vFNOjrM_2cc, symObjAddr: 0x3DB0, symBinAddr: 0x100056A60, symSize: 0x20 }
  - { offset: 0xA73D4, size: 0x8, addend: 0x0, symName: __RNvXs1_NtCsieiGu2EXtoJ_4core7convertRNtNtCsHUR1vrdMJt_3std4path4PathINtB5_4IntoNtBB_7PathBufE4intoCseYC8vFNOjrM_2cc, symObjAddr: 0x3DD0, symBinAddr: 0x100056A80, symSize: 0x30 }
  - { offset: 0xA76E2, size: 0x8, addend: 0x0, symName: __RNvXNtCsieiGu2EXtoJ_4core6borrowINtNtCslJiobkLta79_5alloc5boxed3BoxSIBv_NtNtNtCsHUR1vrdMJt_3std3ffi6os_str5OsStrEEINtB2_6BorrowBu_E6borrowCseYC8vFNOjrM_2cc, symObjAddr: 0x3690, symBinAddr: 0x100056340, symSize: 0x10 }
  - { offset: 0xA7717, size: 0x8, addend: 0x0, symName: __RNvXNtCsieiGu2EXtoJ_4core6borrowINtNtCslJiobkLta79_5alloc5boxed3BoxeEINtB2_6BorrowBu_E6borrowCseYC8vFNOjrM_2cc, symObjAddr: 0x36A0, symBinAddr: 0x100056350, symSize: 0x10 }
  - { offset: 0xA79F9, size: 0x8, addend: 0x0, symName: __RINvXs1h_NtCsHUR1vrdMJt_3std4pathNtB7_4PathNtNtCsieiGu2EXtoJ_4core4hash4Hash4hashNtNtNtB9_4hash6random13DefaultHasherECseYC8vFNOjrM_2cc, symObjAddr: 0xD00, symBinAddr: 0x100053A50, symSize: 0x490 }
  - { offset: 0xA7E8E, size: 0x8, addend: 0x0, symName: __RNvXsH_NtCsHUR1vrdMJt_3std4pathNtB5_7PathBufNtNtNtCsieiGu2EXtoJ_4core3ops5deref5Deref5derefCseYC8vFNOjrM_2cc, symObjAddr: 0x4A10, symBinAddr: 0x1000576C0, symSize: 0x30 }
  - { offset: 0xA7F3A, size: 0x8, addend: 0x0, symName: __RNvXs15_NtCsHUR1vrdMJt_3std4pathNtB6_7PathBufINtNtCsieiGu2EXtoJ_4core7convert5AsRefNtNtNtB8_3ffi6os_str5OsStrE6as_refCseYC8vFNOjrM_2cc, symObjAddr: 0x38A0, symBinAddr: 0x100056550, symSize: 0x20 }
  - { offset: 0xA7F6E, size: 0x8, addend: 0x0, symName: __RNvXs18_NtCsHUR1vrdMJt_3std4pathNtB6_4PathINtNtCsieiGu2EXtoJ_4core7convert5AsRefNtNtNtB8_3ffi6os_str5OsStrE6as_refCseYC8vFNOjrM_2cc, symObjAddr: 0x38C0, symBinAddr: 0x100056570, symSize: 0x20 }
  - { offset: 0xA7FA2, size: 0x8, addend: 0x0, symName: __RNvXs1F_NtCsHUR1vrdMJt_3std4pathNtB6_6PrefixNtNtCsieiGu2EXtoJ_4core3cmp9PartialEq2eqCseYC8vFNOjrM_2cc, symObjAddr: 0x38E0, symBinAddr: 0x100056590, symSize: 0x370 }
  - { offset: 0xA843B, size: 0x8, addend: 0x0, symName: __RNvXs1U_NtCsHUR1vrdMJt_3std4pathNtB6_9ComponentNtNtCsieiGu2EXtoJ_4core3cmp9PartialEq2eqCseYC8vFNOjrM_2cc, symObjAddr: 0x3C50, symBinAddr: 0x100056900, symSize: 0x140 }
  - { offset: 0xA857E, size: 0x8, addend: 0x0, symName: __RNvXs1c_NtCsHUR1vrdMJt_3std4pathNtB6_4PathNtNtCsieiGu2EXtoJ_4core3cmp9PartialEq2eqCseYC8vFNOjrM_2cc, symObjAddr: 0x3F90, symBinAddr: 0x100056C40, symSize: 0x70 }
  - { offset: 0xA85C1, size: 0x8, addend: 0x0, symName: __RNvXs1r_NtCsHUR1vrdMJt_3std4pathNtB6_7PathBufINtNtCsieiGu2EXtoJ_4core7convert5AsRefNtB6_4PathE6as_refCseYC8vFNOjrM_2cc, symObjAddr: 0x4000, symBinAddr: 0x100056CB0, symSize: 0x30 }
  - { offset: 0xA86C0, size: 0x8, addend: 0x0, symName: __RNvXsC_NtCsHUR1vrdMJt_3std4pathNtB5_7PathBufINtNtCsieiGu2EXtoJ_4core7convert4FromNtNtCslJiobkLta79_5alloc6string6StringE4fromCseYC8vFNOjrM_2cc, symObjAddr: 0x49A0, symBinAddr: 0x100057650, symSize: 0x70 }
  - { offset: 0xA8734, size: 0x8, addend: 0x0, symName: __RNvXsJ_NtCsHUR1vrdMJt_3std4pathNtB5_7PathBufINtNtCsieiGu2EXtoJ_4core6borrow6BorrowNtB5_4PathE6borrowCseYC8vFNOjrM_2cc, symObjAddr: 0x4A40, symBinAddr: 0x1000576F0, symSize: 0x30 }
  - { offset: 0xA87FE, size: 0x8, addend: 0x0, symName: __RNvXsV_NtCsHUR1vrdMJt_3std4pathNtB5_4PathNtNtCslJiobkLta79_5alloc6borrow7ToOwned8to_ownedCseYC8vFNOjrM_2cc, symObjAddr: 0x4B10, symBinAddr: 0x1000577C0, symSize: 0x30 }
  - { offset: 0xA8832, size: 0x8, addend: 0x0, symName: __RNvXsO_NtCsHUR1vrdMJt_3std4pathNtB5_7PathBufINtNtCsieiGu2EXtoJ_4core7convert4FromINtNtCslJiobkLta79_5alloc6borrow3CowNtB5_4PathEE4fromCseYC8vFNOjrM_2cc, symObjAddr: 0x4A70, symBinAddr: 0x100057720, symSize: 0xA0 }
  - { offset: 0xA89B8, size: 0x8, addend: 0x0, symName: __RNvXsl_NtCsHUR1vrdMJt_3std4pathNtB5_10ComponentsNtNtCsieiGu2EXtoJ_4core3cmp9PartialEq2eqCseYC8vFNOjrM_2cc, symObjAddr: 0x4F50, symBinAddr: 0x100057C00, symSize: 0x580 }
  - { offset: 0xA8E7C, size: 0x8, addend: 0x0, symName: __RNvXss_NtCsHUR1vrdMJt_3std4pathNtB5_7PathBufNtNtCsieiGu2EXtoJ_4core5clone5Clone10clone_fromCseYC8vFNOjrM_2cc, symObjAddr: 0x5570, symBinAddr: 0x100058220, symSize: 0x40 }
  - { offset: 0xA8F01, size: 0x8, addend: 0x0, symName: __RNvXss_NtCsHUR1vrdMJt_3std4pathNtB5_7PathBufNtNtCsieiGu2EXtoJ_4core5clone5Clone5cloneCseYC8vFNOjrM_2cc, symObjAddr: 0x55B0, symBinAddr: 0x100058260, symSize: 0x90 }
  - { offset: 0xA8F71, size: 0x8, addend: 0x0, symName: __RNvXsz_NtCsHUR1vrdMJt_3std4pathNtB5_7PathBufINtNtCsieiGu2EXtoJ_4core7convert4FromRNtB5_4PathE4fromCseYC8vFNOjrM_2cc, symObjAddr: 0x5640, symBinAddr: 0x1000582F0, symSize: 0xE0 }
  - { offset: 0xA9048, size: 0x8, addend: 0x0, symName: __RNvXsz_NtCsHUR1vrdMJt_3std4pathNtB5_7PathBufINtNtCsieiGu2EXtoJ_4core7convert4FromReE4fromCseYC8vFNOjrM_2cc, symObjAddr: 0x5720, symBinAddr: 0x1000583D0, symSize: 0xE0 }
  - { offset: 0xA9878, size: 0x8, addend: 0x0, symName: __RNCNvMs9_NtNtNtCsHUR1vrdMJt_3std4sync6poison5mutexINtB7_10MutexGuardNtNtNtBb_4mpmc4zero5InnerE3new0CseYC8vFNOjrM_2cc, symObjAddr: 0x18E0, symBinAddr: 0x100054630, symSize: 0x20 }
  - { offset: 0xA98C0, size: 0x8, addend: 0x0, symName: __RNCNvMs9_NtNtNtCsHUR1vrdMJt_3std4sync6poison5mutexINtB7_10MutexGuardNtNtNtBb_4mpmc5waker5WakerE3new0CseYC8vFNOjrM_2cc, symObjAddr: 0x1900, symBinAddr: 0x100054650, symSize: 0x20 }
  - { offset: 0xA9908, size: 0x8, addend: 0x0, symName: __RNCNvMs9_NtNtNtCsHUR1vrdMJt_3std4sync6poison5mutexINtB7_10MutexGuardbE3new0CseYC8vFNOjrM_2cc, symObjAddr: 0x1920, symBinAddr: 0x100054670, symSize: 0x20 }
  - { offset: 0xA9BA5, size: 0x8, addend: 0x0, symName: __RNvXs7_NtNtNtCsHUR1vrdMJt_3std4sync6poison5mutexINtB5_5MutexNtCslzRnRZxZnvp_9jobserver11HelperInnerENtNtCsieiGu2EXtoJ_4core7default7Default7defaultCseYC8vFNOjrM_2cc, symObjAddr: 0x4900, symBinAddr: 0x1000575B0, symSize: 0x80 }
  - { offset: 0xA9C70, size: 0x8, addend: 0x0, symName: __RNvXsa_NtNtNtCsHUR1vrdMJt_3std4sync6poison5mutexINtB5_10MutexGuardbENtNtNtCsieiGu2EXtoJ_4core3ops5deref5Deref5derefCseYC8vFNOjrM_2cc, symObjAddr: 0x4BE0, symBinAddr: 0x100057890, symSize: 0x20 }
  - { offset: 0xA9CC2, size: 0x8, addend: 0x0, symName: __RNvXsb_NtNtNtCsHUR1vrdMJt_3std4sync6poison5mutexINtB5_10MutexGuardbENtNtNtCsieiGu2EXtoJ_4core3ops5deref8DerefMut9deref_mutCseYC8vFNOjrM_2cc, symObjAddr: 0x4C00, symBinAddr: 0x1000578B0, symSize: 0x20 }
  - { offset: 0xA9D14, size: 0x8, addend: 0x0, symName: __RNvXsc_NtNtNtCsHUR1vrdMJt_3std4sync6poison5mutexINtB5_10MutexGuardNtNtNtB9_4mpmc4zero5InnerENtNtNtCsieiGu2EXtoJ_4core3ops4drop4Drop4dropCseYC8vFNOjrM_2cc, symObjAddr: 0x4C60, symBinAddr: 0x100057910, symSize: 0x60 }
  - { offset: 0xA9D8F, size: 0x8, addend: 0x0, symName: __RNvXsc_NtNtNtCsHUR1vrdMJt_3std4sync6poison5mutexINtB5_10MutexGuardNtNtNtB9_4mpmc5waker5WakerENtNtNtCsieiGu2EXtoJ_4core3ops4drop4Drop4dropCseYC8vFNOjrM_2cc, symObjAddr: 0x4CC0, symBinAddr: 0x100057970, symSize: 0x60 }
  - { offset: 0xA9E0A, size: 0x8, addend: 0x0, symName: __RNvXsc_NtNtNtCsHUR1vrdMJt_3std4sync6poison5mutexINtB5_10MutexGuardbENtNtNtCsieiGu2EXtoJ_4core3ops4drop4Drop4dropCseYC8vFNOjrM_2cc, symObjAddr: 0x4D20, symBinAddr: 0x1000579D0, symSize: 0x60 }
  - { offset: 0xAA460, size: 0x8, addend: 0x0, symName: __RINvNtNtNtNtCsHUR1vrdMJt_3std3sys12thread_local6native4lazy7destroyINtNtCsieiGu2EXtoJ_4core4cell4CellINtNtB18_6option6OptionNtNtNtNtBa_4sync4mpmc7context7ContextEEECseYC8vFNOjrM_2cc, symObjAddr: 0xBB0, symBinAddr: 0x100053900, symSize: 0x30 }
  - { offset: 0xAA496, size: 0x8, addend: 0x0, symName: __RINvXNtNtNtNtCsHUR1vrdMJt_3std3sys12thread_local6native4lazyzNtB3_14DestroyedState13register_dtorINtNtCsieiGu2EXtoJ_4core4cell4CellTyyEEECseYC8vFNOjrM_2cc, symObjAddr: 0xCF0, symBinAddr: 0x100053A40, symSize: 0x10 }
  - { offset: 0xAA4C9, size: 0x8, addend: 0x0, symName: __RINvXs_NtNtNtNtCsHUR1vrdMJt_3std3sys12thread_local6native4lazyuNtB5_14DestroyedState13register_dtorINtNtCsieiGu2EXtoJ_4core4cell4CellINtNtB1E_6option6OptionNtNtNtNtBd_4sync4mpmc7context7ContextEEECseYC8vFNOjrM_2cc, symObjAddr: 0x12B0, symBinAddr: 0x100054000, symSize: 0x30 }
  - { offset: 0xAA51D, size: 0x8, addend: 0x0, symName: __RNCINvNtNtNtNtCsHUR1vrdMJt_3std3sys12thread_local6native4lazy7destroyINtNtCsieiGu2EXtoJ_4core4cell4CellINtNtB1a_6option6OptionNtNtNtNtBc_4sync4mpmc7context7ContextEEE0CseYC8vFNOjrM_2cc, symObjAddr: 0x1880, symBinAddr: 0x1000545D0, symSize: 0x60 }
  - { offset: 0xAA950, size: 0x8, addend: 0x0, symName: __RNvXNvMs0_NtNtCsHUR1vrdMJt_3std3ffi6os_strNtB8_8OsString4pushNtNtBc_4path7PathBufNtB2_10SpecPushTo12spec_push_toCseYC8vFNOjrM_2cc, symObjAddr: 0x3750, symBinAddr: 0x100056400, symSize: 0x80 }
  - { offset: 0xAAACE, size: 0x8, addend: 0x0, symName: __RNvXNvMs0_NtNtCsHUR1vrdMJt_3std3ffi6os_strNtB8_8OsString4pushRNtNtBc_4path4PathNtB2_10SpecPushTo12spec_push_toCseYC8vFNOjrM_2cc, symObjAddr: 0x37D0, symBinAddr: 0x100056480, symSize: 0x80 }
  - { offset: 0xAAC6B, size: 0x8, addend: 0x0, symName: __RNvXsm_NtNtCsHUR1vrdMJt_3std3ffi6os_strINtNtCslJiobkLta79_5alloc5boxed3BoxNtB5_5OsStrEINtNtCsieiGu2EXtoJ_4core7convert4FromRB1a_E4fromCseYC8vFNOjrM_2cc, symObjAddr: 0x5500, symBinAddr: 0x1000581B0, symSize: 0x70 }
  - { offset: 0xAB544, size: 0x8, addend: 0x0, symName: __RINvMs0_NtNtNtNtCsHUR1vrdMJt_3std3sys12thread_local6native4lazyINtB6_7StorageINtNtCsieiGu2EXtoJ_4core4cell4CellINtNtB1i_6option6OptionNtNtNtNtBe_4sync4mpmc7context7ContextEEuE11get_or_initNvNvNvMB2a_B28_4with7CONTEXT6___initECseYC8vFNOjrM_2cc, symObjAddr: 0x0, symBinAddr: 0x100053260, symSize: 0x80 }
  - { offset: 0xAB78D, size: 0x8, addend: 0x0, symName: __RINvMs0_NtNtNtNtCsHUR1vrdMJt_3std3sys12thread_local6native4lazyINtB6_7StorageINtNtCsieiGu2EXtoJ_4core4cell4CellINtNtB1i_6option6OptionNtNtNtNtBe_4sync4mpmc7context7ContextEEuE16get_or_init_slowNvNvNvMB2a_B28_4with7CONTEXT6___initECseYC8vFNOjrM_2cc, symObjAddr: 0x80, symBinAddr: 0x1000FF770, symSize: 0x200 }
  - { offset: 0xABB32, size: 0x8, addend: 0x0, symName: __RINvMs0_NtNtNtNtCsHUR1vrdMJt_3std3sys12thread_local6native4lazyINtB6_7StorageINtNtCsieiGu2EXtoJ_4core4cell4CellTyyEEzE11get_or_initNvNvNvMNtNtBe_4hash6randomNtB2c_11RandomState3new4KEYS6___initECseYC8vFNOjrM_2cc, symObjAddr: 0x280, symBinAddr: 0x1000532E0, symSize: 0x90 }
  - { offset: 0xABD12, size: 0x8, addend: 0x0, symName: __RINvMs0_NtNtNtNtCsHUR1vrdMJt_3std3sys12thread_local6native4lazyINtB6_7StorageINtNtCsieiGu2EXtoJ_4core4cell4CellTyyEEzE16get_or_init_slowNvNvNvMNtNtBe_4hash6randomNtB2h_11RandomState3new4KEYS6___initECseYC8vFNOjrM_2cc, symObjAddr: 0x310, symBinAddr: 0x1000FF970, symSize: 0x260 }
  - { offset: 0xAC007, size: 0x8, addend: 0x0, symName: __RINvMs16_NtCsHUR1vrdMJt_3std4pathNtB7_4Path14with_extensionReECseYC8vFNOjrM_2cc, symObjAddr: 0x570, symBinAddr: 0x100053370, symSize: 0x80 }
  - { offset: 0xAC042, size: 0x8, addend: 0x0, symName: __RINvMs16_NtCsHUR1vrdMJt_3std4pathNtB7_4Path14with_file_nameNtNtCslJiobkLta79_5alloc6string6StringECseYC8vFNOjrM_2cc, symObjAddr: 0x5F0, symBinAddr: 0x1000533F0, symSize: 0x90 }
  - { offset: 0xAC0B3, size: 0x8, addend: 0x0, symName: __RINvMs16_NtCsHUR1vrdMJt_3std4pathNtB7_4Path3newINtNtCslJiobkLta79_5alloc4sync3ArcNtNtNtB9_3ffi6os_str5OsStrEECseYC8vFNOjrM_2cc, symObjAddr: 0x680, symBinAddr: 0x100053480, symSize: 0x20 }
  - { offset: 0xAC113, size: 0x8, addend: 0x0, symName: __RINvMs16_NtCsHUR1vrdMJt_3std4pathNtB7_4Path3newRNtNtNtB9_3ffi6os_str5OsStrECseYC8vFNOjrM_2cc, symObjAddr: 0x6A0, symBinAddr: 0x1000534A0, symSize: 0x20 }
  - { offset: 0xAC13F, size: 0x8, addend: 0x0, symName: __RINvMs16_NtCsHUR1vrdMJt_3std4pathNtB7_4Path4joinNtNtCslJiobkLta79_5alloc6string6StringECseYC8vFNOjrM_2cc, symObjAddr: 0x6C0, symBinAddr: 0x1000534C0, symSize: 0x90 }
  - { offset: 0xAC17C, size: 0x8, addend: 0x0, symName: __RINvMs16_NtCsHUR1vrdMJt_3std4pathNtB7_4Path4joinRBv_ECseYC8vFNOjrM_2cc, symObjAddr: 0x750, symBinAddr: 0x100053550, symSize: 0x80 }
  - { offset: 0xAC1C4, size: 0x8, addend: 0x0, symName: __RINvMs16_NtCsHUR1vrdMJt_3std4pathNtB7_4Path4joinRNtNtCslJiobkLta79_5alloc6string6StringECseYC8vFNOjrM_2cc, symObjAddr: 0x7D0, symBinAddr: 0x1000535D0, symSize: 0x80 }
  - { offset: 0xAC206, size: 0x8, addend: 0x0, symName: __RINvMs16_NtCsHUR1vrdMJt_3std4pathNtB7_4Path9ends_withRBv_ECseYC8vFNOjrM_2cc, symObjAddr: 0x850, symBinAddr: 0x100053650, symSize: 0x70 }
  - { offset: 0xAC24E, size: 0x8, addend: 0x0, symName: __RINvMsr_NtCsHUR1vrdMJt_3std4pathNtB6_7PathBuf13set_extensionReECseYC8vFNOjrM_2cc, symObjAddr: 0x8C0, symBinAddr: 0x1000536C0, symSize: 0x70 }
  - { offset: 0xAC289, size: 0x8, addend: 0x0, symName: __RINvMsr_NtCsHUR1vrdMJt_3std4pathNtB6_7PathBuf4pushReECseYC8vFNOjrM_2cc, symObjAddr: 0x930, symBinAddr: 0x100053730, symSize: 0x60 }
  - { offset: 0xAC5A7, size: 0x8, addend: 0x0, symName: __RNvXCsjK30CmJ87bX_9hashbrownINtNtCslJiobkLta79_5alloc5boxed3BoxSIBr_NtNtNtCsHUR1vrdMJt_3std3ffi6os_str5OsStrEEINtB2_10EquivalentBq_E10equivalentCseYC8vFNOjrM_2cc, symObjAddr: 0x35F0, symBinAddr: 0x1000562A0, symSize: 0x50 }
  - { offset: 0xAC618, size: 0x8, addend: 0x0, symName: __RNvXCsjK30CmJ87bX_9hashbrownINtNtCslJiobkLta79_5alloc5boxed3BoxeEINtB2_10EquivalentBq_E10equivalentCseYC8vFNOjrM_2cc, symObjAddr: 0x3640, symBinAddr: 0x1000562F0, symSize: 0x50 }
  - { offset: 0xACB9D, size: 0x8, addend: 0x0, symName: __RNvMs16_NtCsHUR1vrdMJt_3std4pathNtB6_4Path15to_string_lossyCseYC8vFNOjrM_2cc, symObjAddr: 0x1AE0, symBinAddr: 0x100054830, symSize: 0x40 }
  - { offset: 0xACDF5, size: 0x8, addend: 0x0, symName: __RNvMs16_NtCsHUR1vrdMJt_3std4pathNtB6_4Path6existsCseYC8vFNOjrM_2cc, symObjAddr: 0x1B20, symBinAddr: 0x100054870, symSize: 0x60 }
  - { offset: 0xACE36, size: 0x8, addend: 0x0, symName: __RNvMs16_NtCsHUR1vrdMJt_3std4pathNtB6_4Path7displayCseYC8vFNOjrM_2cc, symObjAddr: 0x1C00, symBinAddr: 0x1000548D0, symSize: 0x20 }
  - { offset: 0xACE59, size: 0x8, addend: 0x0, symName: __RNvMs16_NtCsHUR1vrdMJt_3std4pathNtB6_4Path9as_os_strCseYC8vFNOjrM_2cc, symObjAddr: 0x1C20, symBinAddr: 0x1000548F0, symSize: 0x20 }
  - { offset: 0xACF1C, size: 0x8, addend: 0x0, symName: __RNvMs1_NtNtNtCsHUR1vrdMJt_3std4sync4mpmc5utilsNtB5_7Backoff10spin_heavyCseYC8vFNOjrM_2cc, symObjAddr: 0x1C40, symBinAddr: 0x100054910, symSize: 0xD0 }
  - { offset: 0xAD126, size: 0x8, addend: 0x0, symName: __RNvMs1_NtNtNtCsHUR1vrdMJt_3std4sync4mpmc5utilsNtB5_7Backoff10spin_lightCseYC8vFNOjrM_2cc, symObjAddr: 0x1D10, symBinAddr: 0x1000549E0, symSize: 0xD0 }
  - { offset: 0xAD336, size: 0x8, addend: 0x0, symName: __RNvMs4_NtNtNtCsHUR1vrdMJt_3std4sync6poison5mutexINtB5_5MutexbE3newCseYC8vFNOjrM_2cc, symObjAddr: 0x1DE0, symBinAddr: 0x100054AB0, symSize: 0x50 }
  - { offset: 0xAD447, size: 0x8, addend: 0x0, symName: __RNvMs5_NtNtNtCsHUR1vrdMJt_3std4sync6poison5mutexINtB5_5MutexNtNtNtB9_4mpmc4zero5InnerE4lockCseYC8vFNOjrM_2cc, symObjAddr: 0x1E30, symBinAddr: 0x100054B00, symSize: 0x60 }
  - { offset: 0xAD519, size: 0x8, addend: 0x0, symName: __RNvMs5_NtNtNtCsHUR1vrdMJt_3std4sync6poison5mutexINtB5_5MutexNtNtNtB9_4mpmc5waker5WakerE4lockCseYC8vFNOjrM_2cc, symObjAddr: 0x1E90, symBinAddr: 0x100054B60, symSize: 0x60 }
  - { offset: 0xAD5EB, size: 0x8, addend: 0x0, symName: __RNvMs5_NtNtNtCsHUR1vrdMJt_3std4sync6poison5mutexINtB5_5MutexbE4lockCseYC8vFNOjrM_2cc, symObjAddr: 0x1EF0, symBinAddr: 0x100054BC0, symSize: 0x60 }
  - { offset: 0xADB61, size: 0x8, addend: 0x0, symName: __RNvMsr_NtCsHUR1vrdMJt_3std4pathNtB5_7PathBuf3newCseYC8vFNOjrM_2cc, symObjAddr: 0x22F0, symBinAddr: 0x100054FA0, symSize: 0x70 }
  - { offset: 0xADBFF, size: 0x8, addend: 0x0, symName: __RNvMsr_NtCsHUR1vrdMJt_3std4pathNtB5_7PathBuf7as_pathCseYC8vFNOjrM_2cc, symObjAddr: 0x2360, symBinAddr: 0x100055010, symSize: 0x30 }
  - { offset: 0xAF0EE, size: 0x8, addend: 0x0, symName: __RINvMs2_NtCsHUR1vrdMJt_3std2fsNtB6_4File6createRNtNtB8_4path7PathBufECseYC8vFNOjrM_2cc, symObjAddr: 0x0, symBinAddr: 0x1000584C0, symSize: 0xC0 }
  - { offset: 0xB040E, size: 0x8, addend: 0x0, symName: __RNvXs7_NtNtCsieiGu2EXtoJ_4core3cmp5implsRbNtB7_9PartialEq2eqCseYC8vFNOjrM_2cc, symObjAddr: 0xB030, symBinAddr: 0x1000634D0, symSize: 0x30 }
  - { offset: 0xB045D, size: 0x8, addend: 0x0, symName: __RNvXs7_NtNtCsieiGu2EXtoJ_4core3cmp5implsReNtB7_9PartialEq2eqCseYC8vFNOjrM_2cc, symObjAddr: 0xB060, symBinAddr: 0x100063500, symSize: 0x40 }
  - { offset: 0xB04B2, size: 0x8, addend: 0x0, symName: __RNvXs9_NtNtCsieiGu2EXtoJ_4core3cmp5implsReNtB7_3Ord3cmpCseYC8vFNOjrM_2cc, symObjAddr: 0xB0A0, symBinAddr: 0x100063540, symSize: 0x30 }
  - { offset: 0xB04FE, size: 0x8, addend: 0x0, symName: __RNvXsh_NtNtCsieiGu2EXtoJ_4core3cmp5implsbNtB7_9PartialEq2eqCseYC8vFNOjrM_2cc, symObjAddr: 0xB1A0, symBinAddr: 0x100063640, symSize: 0x20 }
  - { offset: 0xB0541, size: 0x8, addend: 0x0, symName: __RNvXsi_NtNtCsieiGu2EXtoJ_4core3cmp5implscNtB7_9PartialEq2eqCseYC8vFNOjrM_2cc, symObjAddr: 0xB230, symBinAddr: 0x1000636D0, symSize: 0x20 }
  - { offset: 0xB05E5, size: 0x8, addend: 0x0, symName: __RNvYmNtNtCsieiGu2EXtoJ_4core3cmp3Ord3minCseYC8vFNOjrM_2cc, symObjAddr: 0xB6F0, symBinAddr: 0x100063B90, symSize: 0x60 }
  - { offset: 0xB0651, size: 0x8, addend: 0x0, symName: __RNvYyNtNtCsieiGu2EXtoJ_4core3cmp3Ord3minCseYC8vFNOjrM_2cc, symObjAddr: 0xB750, symBinAddr: 0x100063BF0, symSize: 0x60 }
  - { offset: 0xB28F3, size: 0x8, addend: 0x0, symName: __RNvNvNtCsieiGu2EXtoJ_4core4hint16assert_unchecked18precondition_checkCseYC8vFNOjrM_2cc, symObjAddr: 0xA9D0, symBinAddr: 0x100062E70, symSize: 0xA0 }
  - { offset: 0xB2953, size: 0x8, addend: 0x0, symName: __RNvNvNtCsieiGu2EXtoJ_4core4hint21unreachable_unchecked18precondition_checkCseYC8vFNOjrM_2cc, symObjAddr: 0xAA70, symBinAddr: 0x100062F10, symSize: 0x80 }
  - { offset: 0xB2C76, size: 0x8, addend: 0x0, symName: __RNvXNtNtCsieiGu2EXtoJ_4core6future11into_futureNCNvMNtNtNtCseYC8vFNOjrM_2cc8parallel9job_token19inprocess_jobserverNtBO_9JobServer7acquire0NtB2_10IntoFuture11into_futureBU_, symObjAddr: 0xAB20, symBinAddr: 0x100062FC0, symSize: 0x30 }
  - { offset: 0xB2CAB, size: 0x8, addend: 0x0, symName: __RNvXNtNtCsieiGu2EXtoJ_4core6future11into_futureNCNvMs0_NtNtNtCseYC8vFNOjrM_2cc8parallel9job_token19inherited_jobserverNtBR_15ActiveJobServer7acquire0NtB2_10IntoFuture11into_futureBX_, symObjAddr: 0xAB50, symBinAddr: 0x100062FF0, symSize: 0x30 }
  - { offset: 0xB2F99, size: 0x8, addend: 0x0, symName: __RNvXs1_NtNtCsieiGu2EXtoJ_4core3ops5derefQNCNvNtNtCseYC8vFNOjrM_2cc8parallel14command_runner24run_commands_in_parallel0NtB5_8DerefMut9deref_mutBL_, symObjAddr: 0xADE0, symBinAddr: 0x100063280, symSize: 0x10 }
  - { offset: 0xB2FD0, size: 0x8, addend: 0x0, symName: __RNvXs1_NtNtCsieiGu2EXtoJ_4core3ops5derefQNCNvNtNtCseYC8vFNOjrM_2cc8parallel14command_runner24run_commands_in_parallels_0NtB5_8DerefMut9deref_mutBL_, symObjAddr: 0xADF0, symBinAddr: 0x100063290, symSize: 0x10 }
  - { offset: 0xB3042, size: 0x8, addend: 0x0, symName: __RNvXNtNtNtCsieiGu2EXtoJ_4core5array4iter10iter_innerSINtNtNtB8_3mem12maybe_uninit11MaybeUninitNtNtNtCsHUR1vrdMJt_3std3ffi6os_str8OsStringENtB2_11PartialDrop12partial_dropCseYC8vFNOjrM_2cc, symObjAddr: 0xAB80, symBinAddr: 0x100063020, symSize: 0xE0 }
  - { offset: 0xB3152, size: 0x8, addend: 0x0, symName: __RNvXNtNtNtCsieiGu2EXtoJ_4core5array4iter10iter_innerSINtNtNtB8_3mem12maybe_uninit11MaybeUninitReENtB2_11PartialDrop12partial_dropCseYC8vFNOjrM_2cc, symObjAddr: 0xAC60, symBinAddr: 0x100063100, symSize: 0xB0 }
  - { offset: 0xB3262, size: 0x8, addend: 0x0, symName: __RNvXNtNtNtCsieiGu2EXtoJ_4core5array4iter10iter_innerSINtNtNtB8_3mem12maybe_uninit11MaybeUninitbENtB2_11PartialDrop12partial_dropCseYC8vFNOjrM_2cc, symObjAddr: 0xAD10, symBinAddr: 0x1000631B0, symSize: 0xB0 }
  - { offset: 0xB3378, size: 0x8, addend: 0x0, symName: __RNvXs_NtNtNtCsieiGu2EXtoJ_4core5array4iter10iter_innerAINtNtNtBa_3mem12maybe_uninit11MaybeUninitNtNtNtCsHUR1vrdMJt_3std3ffi6os_str8OsStringEj6_NtB4_11PartialDrop12partial_dropCseYC8vFNOjrM_2cc, symObjAddr: 0xB0D0, symBinAddr: 0x100063570, symSize: 0x40 }
  - { offset: 0xB33D4, size: 0x8, addend: 0x0, symName: __RNvXs_NtNtNtCsieiGu2EXtoJ_4core5array4iter10iter_innerAINtNtNtBa_3mem12maybe_uninit11MaybeUninitReEj2_NtB4_11PartialDrop12partial_dropCseYC8vFNOjrM_2cc, symObjAddr: 0xB110, symBinAddr: 0x1000635B0, symSize: 0x40 }
  - { offset: 0xB3430, size: 0x8, addend: 0x0, symName: __RNvXs_NtNtNtCsieiGu2EXtoJ_4core5array4iter10iter_innerAINtNtNtBa_3mem12maybe_uninit11MaybeUninitbEj20_NtB4_11PartialDrop12partial_dropCseYC8vFNOjrM_2cc, symObjAddr: 0xB150, symBinAddr: 0x1000635F0, symSize: 0x40 }
  - { offset: 0xB34A4, size: 0x8, addend: 0x0, symName: __RNvXsn_NtNtNtCsieiGu2EXtoJ_4core7convert3num18ptr_try_from_implsjINtB9_7TryFromlE8try_fromCseYC8vFNOjrM_2cc, symObjAddr: 0xB250, symBinAddr: 0x1000636F0, symSize: 0x50 }
  - { offset: 0xB3D48, size: 0x8, addend: 0x0, symName: __RNvYNtNtCsHUR1vrdMJt_3std2fs4FileNtNtB6_2io5Write9write_allCseYC8vFNOjrM_2cc, symObjAddr: 0xB2A0, symBinAddr: 0x100063740, symSize: 0x2E0 }
  - { offset: 0xB3EEE, size: 0x8, addend: 0x0, symName: __RNvYNtNtCsHUR1vrdMJt_3std2fs4FileNtNtB6_2io5Write9write_fmtCseYC8vFNOjrM_2cc, symObjAddr: 0xB580, symBinAddr: 0x100063A20, symSize: 0x170 }
  - { offset: 0xB4C53, size: 0x8, addend: 0x0, symName: __RINvNtNtCsHUR1vrdMJt_3std4sync4mpmc7channelINtNtCsieiGu2EXtoJ_4core6result6ResultNtCslzRnRZxZnvp_9jobserver8AcquiredNtNtNtB6_2io5error5ErrorEECseYC8vFNOjrM_2cc, symObjAddr: 0x410, symBinAddr: 0x1000588D0, symSize: 0x530 }
  - { offset: 0xB4F12, size: 0x8, addend: 0x0, symName: __RNCNvMs2_NtNtCsHUR1vrdMJt_3std4sync4mpmcINtB7_6SenderINtNtCsieiGu2EXtoJ_4core6result6ResultNtCslzRnRZxZnvp_9jobserver8AcquiredNtNtNtBb_2io5error5ErrorEE4send0CseYC8vFNOjrM_2cc, symObjAddr: 0x2AB0, symBinAddr: 0x10005AF70, symSize: 0xC0 }
  - { offset: 0xB5166, size: 0x8, addend: 0x0, symName: __RNCNvXs4_NtNtCsHUR1vrdMJt_3std4sync4mpmcINtB7_6SenderINtNtCsieiGu2EXtoJ_4core6result6ResultNtCslzRnRZxZnvp_9jobserver8AcquiredNtNtNtBb_2io5error5ErrorEENtNtNtBU_3ops4drop4Drop4drop0CseYC8vFNOjrM_2cc, symObjAddr: 0x38B0, symBinAddr: 0x10005BD70, symSize: 0x20 }
  - { offset: 0xB51A8, size: 0x8, addend: 0x0, symName: __RNCNvXs4_NtNtCsHUR1vrdMJt_3std4sync4mpmcINtB7_6SenderINtNtCsieiGu2EXtoJ_4core6result6ResultNtCslzRnRZxZnvp_9jobserver8AcquiredNtNtNtBb_2io5error5ErrorEENtNtNtBU_3ops4drop4Drop4drops0_0CseYC8vFNOjrM_2cc, symObjAddr: 0x38D0, symBinAddr: 0x10005BD90, symSize: 0x20 }
  - { offset: 0xB51EA, size: 0x8, addend: 0x0, symName: __RNCNvXs4_NtNtCsHUR1vrdMJt_3std4sync4mpmcINtB7_6SenderINtNtCsieiGu2EXtoJ_4core6result6ResultNtCslzRnRZxZnvp_9jobserver8AcquiredNtNtNtBb_2io5error5ErrorEENtNtNtBU_3ops4drop4Drop4drops_0CseYC8vFNOjrM_2cc, symObjAddr: 0x38F0, symBinAddr: 0x10005BDB0, symSize: 0x20 }
  - { offset: 0xB5242, size: 0x8, addend: 0x0, symName: __RNvXs4_NtNtCsHUR1vrdMJt_3std4sync4mpmcINtB5_6SenderINtNtCsieiGu2EXtoJ_4core6result6ResultNtCslzRnRZxZnvp_9jobserver8AcquiredNtNtNtB9_2io5error5ErrorEENtNtNtBS_3ops4drop4Drop4dropCseYC8vFNOjrM_2cc, symObjAddr: 0xAFC0, symBinAddr: 0x100063460, symSize: 0x70 }
  - { offset: 0xB52DA, size: 0x8, addend: 0x0, symName: __RNCNvXsi_NtNtCsHUR1vrdMJt_3std4sync4mpmcINtB7_8ReceiverINtNtCsieiGu2EXtoJ_4core6result6ResultNtCslzRnRZxZnvp_9jobserver8AcquiredNtNtNtBb_2io5error5ErrorEENtNtNtBW_3ops4drop4Drop4drop0CseYC8vFNOjrM_2cc, symObjAddr: 0x3910, symBinAddr: 0x10005BDD0, symSize: 0x20 }
  - { offset: 0xB531C, size: 0x8, addend: 0x0, symName: __RNCNvXsi_NtNtCsHUR1vrdMJt_3std4sync4mpmcINtB7_8ReceiverINtNtCsieiGu2EXtoJ_4core6result6ResultNtCslzRnRZxZnvp_9jobserver8AcquiredNtNtNtBb_2io5error5ErrorEENtNtNtBW_3ops4drop4Drop4drops0_0CseYC8vFNOjrM_2cc, symObjAddr: 0x3930, symBinAddr: 0x10005BDF0, symSize: 0x20 }
  - { offset: 0xB535E, size: 0x8, addend: 0x0, symName: __RNCNvXsi_NtNtCsHUR1vrdMJt_3std4sync4mpmcINtB7_8ReceiverINtNtCsieiGu2EXtoJ_4core6result6ResultNtCslzRnRZxZnvp_9jobserver8AcquiredNtNtNtBb_2io5error5ErrorEENtNtNtBW_3ops4drop4Drop4drops_0CseYC8vFNOjrM_2cc, symObjAddr: 0x3950, symBinAddr: 0x10005BE10, symSize: 0x20 }
  - { offset: 0xB53B6, size: 0x8, addend: 0x0, symName: __RNvXsi_NtNtCsHUR1vrdMJt_3std4sync4mpmcINtB5_8ReceiverINtNtCsieiGu2EXtoJ_4core6result6ResultNtCslzRnRZxZnvp_9jobserver8AcquiredNtNtNtB9_2io5error5ErrorEENtNtNtBU_3ops4drop4Drop4dropCseYC8vFNOjrM_2cc, symObjAddr: 0xB1C0, symBinAddr: 0x100063660, symSize: 0x70 }
  - { offset: 0xB59F8, size: 0x8, addend: 0x0, symName: __RINvNtCsHUR1vrdMJt_3std2fs11remove_fileRNtNtB4_4path4PathECseYC8vFNOjrM_2cc, symObjAddr: 0x130, symBinAddr: 0x1000585F0, symSize: 0x60 }
  - { offset: 0xB5A2F, size: 0x8, addend: 0x0, symName: __RINvNtCsHUR1vrdMJt_3std2fs11remove_fileRNtNtB4_4path7PathBufECseYC8vFNOjrM_2cc, symObjAddr: 0x190, symBinAddr: 0x100058650, symSize: 0x60 }
  - { offset: 0xB5A66, size: 0x8, addend: 0x0, symName: __RINvNtCsHUR1vrdMJt_3std2fs14create_dir_allRINtNtCslJiobkLta79_5alloc6borrow3CowNtNtB4_4path4PathEECseYC8vFNOjrM_2cc, symObjAddr: 0x1F0, symBinAddr: 0x1000586B0, symSize: 0x80 }
  - { offset: 0xB5AD0, size: 0x8, addend: 0x0, symName: __RINvNtCsHUR1vrdMJt_3std2fs14create_dir_allRNtNtB4_4path4PathECseYC8vFNOjrM_2cc, symObjAddr: 0x270, symBinAddr: 0x100058730, symSize: 0x80 }
  - { offset: 0xB5B3A, size: 0x8, addend: 0x0, symName: __RINvNtCsHUR1vrdMJt_3std2fs4copyRNtNtB4_4path4PathRNtBw_7PathBufECseYC8vFNOjrM_2cc, symObjAddr: 0x2F0, symBinAddr: 0x1000587B0, symSize: 0x90 }
  - { offset: 0xB5B89, size: 0x8, addend: 0x0, symName: __RINvNtCsHUR1vrdMJt_3std2fs9hard_linkRNtNtB4_4path4PathRNtBB_7PathBufECseYC8vFNOjrM_2cc, symObjAddr: 0x380, symBinAddr: 0x100058840, symSize: 0x90 }
  - { offset: 0xB5BDD, size: 0x8, addend: 0x0, symName: __RNvXsb_NtCsHUR1vrdMJt_3std2fsNtB5_4FileNtNtB7_2io5Write5flushCseYC8vFNOjrM_2cc, symObjAddr: 0xB190, symBinAddr: 0x100063630, symSize: 0x10 }
  - { offset: 0xB5C63, size: 0x8, addend: 0x0, symName: __RNvXs0_NtNtNtCsHUR1vrdMJt_3std2os4unix2fsNtNtBb_2fs11OpenOptionsNtB5_14OpenOptionsExt4modeCseYC8vFNOjrM_2cc, symObjAddr: 0xADC0, symBinAddr: 0x100063260, symSize: 0x20 }
  - { offset: 0xB6132, size: 0x8, addend: 0x0, symName: __RINvNtNtCseYC8vFNOjrM_2cc8parallel14command_runner11cell_updateINtNtCslJiobkLta79_5alloc3vec3VecTNtNtCsHUR1vrdMJt_3std7process7CommandNtB2_10KillOnDropNtNtB4_9job_token8JobTokenEENCNCNvB2_24run_commands_in_parallel00EB6_, symObjAddr: 0x940, symBinAddr: 0x100058E00, symSize: 0xF0 }
  - { offset: 0xB61B7, size: 0x8, addend: 0x0, symName: __RINvNtNtCseYC8vFNOjrM_2cc8parallel14command_runner11cell_updateINtNtCslJiobkLta79_5alloc3vec3VecTNtNtCsHUR1vrdMJt_3std7process7CommandNtB2_10KillOnDropNtNtB4_9job_token8JobTokenEENCNCNvB2_24run_commands_in_parallels_00EB6_, symObjAddr: 0xA30, symBinAddr: 0x100058EF0, symSize: 0x100 }
  - { offset: 0xB623C, size: 0x8, addend: 0x0, symName: __RINvNtNtCseYC8vFNOjrM_2cc8parallel14command_runner17try_wait_on_childQINtNtNtNtCsHUR1vrdMJt_3std2io8buffered9bufwriter9BufWriterNtNtB1d_5stdio6StdoutEEB6_, symObjAddr: 0xB30, symBinAddr: 0x100058FF0, symSize: 0x430 }
  - { offset: 0xB63A0, size: 0x8, addend: 0x0, symName: __RNCNCNCNvNtNtCseYC8vFNOjrM_2cc8parallel14command_runner24run_commands_in_parallel000Bb_, symObjAddr: 0x1480, symBinAddr: 0x100059940, symSize: 0x300 }
  - { offset: 0xB647A, size: 0x8, addend: 0x0, symName: __RNCNCNvNtNtCseYC8vFNOjrM_2cc8parallel14command_runner24run_commands_in_parallel00B9_, symObjAddr: 0x17B0, symBinAddr: 0x100059C70, symSize: 0xD0 }
  - { offset: 0xB653D, size: 0x8, addend: 0x0, symName: __RNCNCNvNtNtCseYC8vFNOjrM_2cc8parallel14command_runner24run_commands_in_parallels_00B9_, symObjAddr: 0x1880, symBinAddr: 0x100059D40, symSize: 0x1C0 }
  - { offset: 0xB65EA, size: 0x8, addend: 0x0, symName: __RNCNvNtNtCseYC8vFNOjrM_2cc8parallel14command_runner24run_commands_in_parallel0B7_, symObjAddr: 0x2BB0, symBinAddr: 0x10005B070, symSize: 0x3E0 }
  - { offset: 0xB66FE, size: 0x8, addend: 0x0, symName: __RNCNvNtNtCseYC8vFNOjrM_2cc8parallel14command_runner24run_commands_in_parallels_0B7_, symObjAddr: 0x2F90, symBinAddr: 0x10005B450, symSize: 0x920 }
  - { offset: 0xB6C56, size: 0x8, addend: 0x0, symName: __RNvNtNtCseYC8vFNOjrM_2cc8parallel14command_runner24run_commands_in_parallel, symObjAddr: 0xA3D0, symBinAddr: 0x100062870, symSize: 0x1B0 }
  - { offset: 0xB6D3A, size: 0x8, addend: 0x0, symName: __RNvXNtNtCseYC8vFNOjrM_2cc8parallel14command_runnerNtB2_10KillOnDropNtNtNtCsieiGu2EXtoJ_4core3ops4drop4Drop4drop, symObjAddr: 0xAAF0, symBinAddr: 0x100062F90, symSize: 0x30 }
  - { offset: 0xB6DB3, size: 0x8, addend: 0x0, symName: __RNCNCNvMNtNtNtCseYC8vFNOjrM_2cc8parallel9job_token19inprocess_jobserverNtB6_9JobServer7acquire00Bc_, symObjAddr: 0x1780, symBinAddr: 0x100059C40, symSize: 0x30 }
  - { offset: 0xB6DF1, size: 0x8, addend: 0x0, symName: __RNCNvMNtNtNtCseYC8vFNOjrM_2cc8parallel9job_token19inprocess_jobserverNtB4_9JobServer7acquire0Ba_, symObjAddr: 0x1E80, symBinAddr: 0x10005A340, symSize: 0x1D0 }
  - { offset: 0xB6F6E, size: 0x8, addend: 0x0, symName: __RNCNvMNtNtNtCseYC8vFNOjrM_2cc8parallel9job_token19inprocess_jobserverNtB4_9JobServer3new0Ba_, symObjAddr: 0x1D60, symBinAddr: 0x10005A220, symSize: 0xA0 }
  - { offset: 0xB6FA5, size: 0x8, addend: 0x0, symName: __RNCNvMNtNtNtCseYC8vFNOjrM_2cc8parallel9job_token19inprocess_jobserverNtB4_9JobServer3news_0Ba_, symObjAddr: 0x1E00, symBinAddr: 0x10005A2C0, symSize: 0x80 }
  - { offset: 0xB7055, size: 0x8, addend: 0x0, symName: __RNCNvMNtNtNtCseYC8vFNOjrM_2cc8parallel9job_token19inherited_jobserverNtB4_9JobServer8from_env0Ba_, symObjAddr: 0x1CE0, symBinAddr: 0x10005A1A0, symSize: 0x80 }
  - { offset: 0xB709E, size: 0x8, addend: 0x0, symName: __RNCNvMs0_NtNtNtCseYC8vFNOjrM_2cc8parallel9job_token19inherited_jobserverNtB7_15ActiveJobServer7acquire0Bd_, symObjAddr: 0x2050, symBinAddr: 0x10005A510, symSize: 0xA60 }
  - { offset: 0xB73F1, size: 0x8, addend: 0x0, symName: __RNCNvMs_NtNtNtCseYC8vFNOjrM_2cc8parallel9job_token19inherited_jobserverNtB6_12HelperThread3new0Bc_, symObjAddr: 0x2B70, symBinAddr: 0x10005B030, symSize: 0x40 }
  - { offset: 0xB768A, size: 0x8, addend: 0x0, symName: __RINvNvMNtCseYC8vFNOjrM_2cc5flagsNtB5_17RustcCodegenFlags14set_rustc_flag10arg_to_u32ReEB7_, symObjAddr: 0xF60, symBinAddr: 0x100059420, symSize: 0x90 }
  - { offset: 0xB76BF, size: 0x8, addend: 0x0, symName: __RINvNvMNtCseYC8vFNOjrM_2cc5flagsNtB5_17RustcCodegenFlags14set_rustc_flag11arg_to_boolReEB7_, symObjAddr: 0xFF0, symBinAddr: 0x1000594B0, symSize: 0x1F0 }
  - { offset: 0xB76F4, size: 0x8, addend: 0x0, symName: __RINvNvMNtCseYC8vFNOjrM_2cc5flagsNtB5_17RustcCodegenFlags14set_rustc_flag22flag_not_empty_genericReEB7_, symObjAddr: 0x11E0, symBinAddr: 0x1000596A0, symSize: 0x160 }
  - { offset: 0xB7791, size: 0x8, addend: 0x0, symName: __RINvNvMNtCseYC8vFNOjrM_2cc5flagsNtB5_17RustcCodegenFlags14set_rustc_flag22flag_not_empty_genericmEB7_, symObjAddr: 0x1340, symBinAddr: 0x100059800, symSize: 0x140 }
  - { offset: 0xB782E, size: 0x8, addend: 0x0, symName: __RNCNvMNtCseYC8vFNOjrM_2cc5flagsNtB4_17RustcCodegenFlags14set_rustc_flag0B6_, symObjAddr: 0x1A40, symBinAddr: 0x100059F00, symSize: 0x50 }
  - { offset: 0xB7884, size: 0x8, addend: 0x0, symName: __RNCNvMNtCseYC8vFNOjrM_2cc5flagsNtB4_17RustcCodegenFlags8cc_flags0B6_, symObjAddr: 0x1A90, symBinAddr: 0x100059F50, symSize: 0x250 }
  - { offset: 0xB794E, size: 0x8, addend: 0x0, symName: __RNvNvMNtCseYC8vFNOjrM_2cc5flagsNtB4_17RustcCodegenFlags5parse14is_flag_prefix, symObjAddr: 0xA580, symBinAddr: 0x100062A20, symSize: 0x40 }
  - { offset: 0xB797A, size: 0x8, addend: 0x0, symName: __RNvNvMNtCseYC8vFNOjrM_2cc5flagsNtB4_17RustcCodegenFlags5parse18handle_flag_prefix, symObjAddr: 0xA5C0, symBinAddr: 0x100062A60, symSize: 0x410 }
  - { offset: 0xB7AD8, size: 0x8, addend: 0x0, symName: __RNvXs2_NtCseYC8vFNOjrM_2cc5flagsNtB5_17RustcCodegenFlagsNtNtCsieiGu2EXtoJ_4core7default7Default7defaultB7_, symObjAddr: 0xAE00, symBinAddr: 0x1000632A0, symSize: 0x1C0 }
  - { offset: 0xB8157, size: 0x8, addend: 0x0, symName: __RINvMs2_NtCsHUR1vrdMJt_3std2fsNtB6_4File6createRNtNtB8_4path7PathBufECseYC8vFNOjrM_2cc, symObjAddr: 0x0, symBinAddr: 0x1000584C0, symSize: 0xC0 }
  - { offset: 0xB827B, size: 0x8, addend: 0x0, symName: __RINvMsA_NtCsHUR1vrdMJt_3std2fsNtB6_10DirBuilder6createRNtNtB8_4path4PathECseYC8vFNOjrM_2cc, symObjAddr: 0xC0, symBinAddr: 0x100058580, symSize: 0x70 }
  - { offset: 0xB8816, size: 0x8, addend: 0x0, symName: __RNvMNtCseYC8vFNOjrM_2cc5flagsNtB2_17RustcCodegenFlags14set_rustc_flag, symObjAddr: 0x3970, symBinAddr: 0x10005BE30, symSize: 0x1000 }
  - { offset: 0xB89E1, size: 0x8, addend: 0x0, symName: __RNvMNtCseYC8vFNOjrM_2cc5flagsNtB2_17RustcCodegenFlags5parse, symObjAddr: 0x4970, symBinAddr: 0x10005CE30, symSize: 0x2F0 }
  - { offset: 0xB8FB0, size: 0x8, addend: 0x0, symName: __RNvMNtCseYC8vFNOjrM_2cc5flagsNtB2_17RustcCodegenFlags8cc_flags, symObjAddr: 0x4C60, symBinAddr: 0x10005D120, symSize: 0x1820 }
  - { offset: 0xB9507, size: 0x8, addend: 0x0, symName: __RNvMNtNtCseYC8vFNOjrM_2cc6target4llvmNtB4_10TargetInfo11llvm_target, symObjAddr: 0x6480, symBinAddr: 0x10005E940, symSize: 0x14E0 }
  - { offset: 0xB991C, size: 0x8, addend: 0x0, symName: __RNvMNtNtCseYC8vFNOjrM_2cc6target5appleNtB4_10TargetInfo14apple_sdk_name, symObjAddr: 0x7960, symBinAddr: 0x10005FE20, symSize: 0x370 }
  - { offset: 0xB9979, size: 0x8, addend: 0x0, symName: __RNvMNtNtCseYC8vFNOjrM_2cc6target5appleNtB4_10TargetInfo18apple_version_flag, symObjAddr: 0x7CD0, symBinAddr: 0x100060190, symSize: 0x7F0 }
  - { offset: 0xB9C3D, size: 0x8, addend: 0x0, symName: __RNvMNtNtNtCseYC8vFNOjrM_2cc8parallel9job_token19inherited_jobserverNtB2_9JobServer12enter_active, symObjAddr: 0x84C0, symBinAddr: 0x100060980, symSize: 0x40 }
  - { offset: 0xB9C5F, size: 0x8, addend: 0x0, symName: __RNvMNtNtNtCseYC8vFNOjrM_2cc8parallel9job_token19inherited_jobserverNtB2_9JobServer17release_token_raw, symObjAddr: 0x8500, symBinAddr: 0x1000609C0, symSize: 0xC0 }
  - { offset: 0xB9CA3, size: 0x8, addend: 0x0, symName: __RNvMNtNtNtCseYC8vFNOjrM_2cc8parallel9job_token19inherited_jobserverNtB2_9JobServer25get_global_implicit_token, symObjAddr: 0x85C0, symBinAddr: 0x100060A80, symSize: 0x40 }
  - { offset: 0xB9CC5, size: 0x8, addend: 0x0, symName: __RNvMNtNtNtCseYC8vFNOjrM_2cc8parallel9job_token19inherited_jobserverNtB2_9JobServer8from_env, symObjAddr: 0x8600, symBinAddr: 0x100060AC0, symSize: 0x40 }
  - { offset: 0xB9CD8, size: 0x8, addend: 0x0, symName: __RNvMNtNtNtCseYC8vFNOjrM_2cc8parallel9job_token19inprocess_jobserverNtB2_9JobServer17release_token_raw, symObjAddr: 0x8640, symBinAddr: 0x100060B00, symSize: 0x30 }
  - { offset: 0xB9CFB, size: 0x8, addend: 0x0, symName: __RNvMNtNtNtCseYC8vFNOjrM_2cc8parallel9job_token19inprocess_jobserverNtB2_9JobServer3new, symObjAddr: 0x8670, symBinAddr: 0x100060B30, symSize: 0x80 }
  - { offset: 0xB9D2C, size: 0x8, addend: 0x0, symName: __RNvMNtNtNtCseYC8vFNOjrM_2cc8parallel9job_token19inprocess_jobserverNtB2_9JobServer7acquire, symObjAddr: 0x86F0, symBinAddr: 0x100060BB0, symSize: 0x20 }
  - { offset: 0xB9DA4, size: 0x8, addend: 0x0, symName: __RNvMs0_NtNtCseYC8vFNOjrM_2cc6target6parserNtB7_10TargetInfo17from_rustc_target, symObjAddr: 0x8710, symBinAddr: 0x100060BD0, symSize: 0x1680 }
  - { offset: 0xBA155, size: 0x8, addend: 0x0, symName: __RNvMs0_NtNtCsieiGu2EXtoJ_4core3mem12maybe_uninitINtB5_11MaybeUninitINtNtB9_6result6ResultNtNtNtCseYC8vFNOjrM_2cc6target6parser21TargetInfoParserInnerNtB1v_5ErrorEE16assume_init_dropB1v_, symObjAddr: 0x9D90, symBinAddr: 0x100062250, symSize: 0x20 }
  - { offset: 0xBA181, size: 0x8, addend: 0x0, symName: __RNvMs0_NtNtNtCseYC8vFNOjrM_2cc8parallel9job_token19inherited_jobserverNtB5_15ActiveJobServer7acquire, symObjAddr: 0x9DD0, symBinAddr: 0x100062270, symSize: 0x20 }
  - { offset: 0xBA1BD, size: 0x8, addend: 0x0, symName: __RNvMs10_NtNtCsieiGu2EXtoJ_4core9core_arch3x86NtB6_7___m128i8as_i8x16CseYC8vFNOjrM_2cc, symObjAddr: 0x9DF0, symBinAddr: 0x100062290, symSize: 0x20 }
  - { offset: 0xBA315, size: 0x8, addend: 0x0, symName: __RNvMs2_NtNtCsHUR1vrdMJt_3std4sync4mpmcINtB5_6SenderINtNtCsieiGu2EXtoJ_4core6result6ResultNtCslzRnRZxZnvp_9jobserver8AcquiredNtNtNtB9_2io5error5ErrorEE4sendCseYC8vFNOjrM_2cc, symObjAddr: 0x9E10, symBinAddr: 0x1000622B0, symSize: 0x240 }
  - { offset: 0xBA4AA, size: 0x8, addend: 0x0, symName: __RNvMs_NtNtNtCseYC8vFNOjrM_2cc8parallel9job_token19inherited_jobserverNtB4_12HelperThread3new, symObjAddr: 0xA050, symBinAddr: 0x1000624F0, symSize: 0x240 }
  - { offset: 0xBA515, size: 0x8, addend: 0x0, symName: __RNvMsg_NtCsHUR1vrdMJt_3std2fsNtB5_11OpenOptions10create_newCseYC8vFNOjrM_2cc, symObjAddr: 0xA290, symBinAddr: 0x100062730, symSize: 0x20 }
  - { offset: 0xBA562, size: 0x8, addend: 0x0, symName: __RNvMsg_NtCsHUR1vrdMJt_3std2fsNtB5_11OpenOptions3newCseYC8vFNOjrM_2cc, symObjAddr: 0xA2B0, symBinAddr: 0x100062750, symSize: 0x40 }
  - { offset: 0xBA591, size: 0x8, addend: 0x0, symName: __RNvMsg_NtCsHUR1vrdMJt_3std2fsNtB5_11OpenOptions4readCseYC8vFNOjrM_2cc, symObjAddr: 0xA2F0, symBinAddr: 0x100062790, symSize: 0x20 }
  - { offset: 0xBA5DE, size: 0x8, addend: 0x0, symName: __RNvMsg_NtCsHUR1vrdMJt_3std2fsNtB5_11OpenOptions5writeCseYC8vFNOjrM_2cc, symObjAddr: 0xA310, symBinAddr: 0x1000627B0, symSize: 0x20 }
  - { offset: 0xBA6AA, size: 0x8, addend: 0x0, symName: __RNvMsg_NtNtCsHUR1vrdMJt_3std4sync4mpmcINtB5_8ReceiverINtNtCsieiGu2EXtoJ_4core6result6ResultNtCslzRnRZxZnvp_9jobserver8AcquiredNtNtNtB9_2io5error5ErrorEE8try_recvCseYC8vFNOjrM_2cc, symObjAddr: 0xA330, symBinAddr: 0x1000627D0, symSize: 0xA0 }
  - { offset: 0xBB1D6, size: 0x8, addend: 0x0, symName: __RINvMNtNtNtCsHUR1vrdMJt_3std4sync4mpmc7contextNtB3_7Context4withNCNvMs1_NtB5_4zeroINtB18_7ChannelINtNtCsieiGu2EXtoJ_4core6result6ResultNtCslzRnRZxZnvp_9jobserver8AcquiredNtNtNtB9_2io5error5ErrorEE4send0IB1y_uINtNtB5_5error16SendTimeoutErrorB1x_EEECseYC8vFNOjrM_2cc, symObjAddr: 0x0, symBinAddr: 0x100063C50, symSize: 0x130 }
  - { offset: 0xBBAEB, size: 0x8, addend: 0x0, symName: __RNvNvMs1_NtNtCsieiGu2EXtoJ_4core3ptr8non_nullINtB7_7NonNullpE13new_unchecked18precondition_checkCseYC8vFNOjrM_2cc, symObjAddr: 0x27C0, symBinAddr: 0x1000662A0, symSize: 0x90 }
  - { offset: 0xBE330, size: 0x8, addend: 0x0, symName: __RINvXs2_NtNtCsieiGu2EXtoJ_4core5array4iterINtB6_8IntoIterNtNtNtCsHUR1vrdMJt_3std3ffi6os_str8OsStringKj6_ENtNtNtNtBa_4iter6traits8iterator8Iterator4folduNCINvNvB1F_8for_each4callBT_NCINvMsi_NtCslJiobkLta79_5alloc3vecINtB31_3VecBT_E14extend_trustedBE_E0E0ECseYC8vFNOjrM_2cc, symObjAddr: 0x200, symBinAddr: 0x100063E50, symSize: 0xC0 }
  - { offset: 0xBE441, size: 0x8, addend: 0x0, symName: __RINvXs2_NtNtCsieiGu2EXtoJ_4core5array4iterINtB6_8IntoIterbKj20_ENtNtNtNtBa_4iter6traits8iterator8Iterator4foldhNCINvNtNtB16_8adapters3map8map_foldbhhNCNvXNtNtBa_3str4iterNtB2s_5CharsB10_10advance_by0NCINvXsq_NtB14_5accumhNtB3k_3Sum3sumINtB1Q_3MapBE_B2n_EE0E0ECseYC8vFNOjrM_2cc, symObjAddr: 0x2C0, symBinAddr: 0x100063F10, symSize: 0x80 }
  - { offset: 0xBE536, size: 0x8, addend: 0x0, symName: __RNvXs2_NtNtCsieiGu2EXtoJ_4core5array4iterINtB5_8IntoIterNtNtNtCsHUR1vrdMJt_3std3ffi6os_str8OsStringKj6_ENtNtNtNtB9_4iter6traits8iterator8Iterator9size_hintCseYC8vFNOjrM_2cc, symObjAddr: 0x3250, symBinAddr: 0x100066D30, symSize: 0x30 }
  - { offset: 0xBE5A9, size: 0x8, addend: 0x0, symName: __RNvXs2_NtNtCsieiGu2EXtoJ_4core5array4iterINtB5_8IntoIterReKj2_ENtNtNtNtB9_4iter6traits8iterator8Iterator4nextCseYC8vFNOjrM_2cc, symObjAddr: 0x3280, symBinAddr: 0x100066D60, symSize: 0x20 }
  - { offset: 0xBE620, size: 0x8, addend: 0x0, symName: __RNvXs4_NtNtCsieiGu2EXtoJ_4core5array4iterINtB5_8IntoIterNtNtNtCsHUR1vrdMJt_3std3ffi6os_str8OsStringKj6_ENtNtNtB9_3ops4drop4Drop4dropCseYC8vFNOjrM_2cc, symObjAddr: 0x32E0, symBinAddr: 0x100066DC0, symSize: 0x10 }
  - { offset: 0xBE653, size: 0x8, addend: 0x0, symName: __RNvXs4_NtNtCsieiGu2EXtoJ_4core5array4iterINtB5_8IntoIterReKj2_ENtNtNtB9_3ops4drop4Drop4dropCseYC8vFNOjrM_2cc, symObjAddr: 0x32F0, symBinAddr: 0x100066DD0, symSize: 0x10 }
  - { offset: 0xBE686, size: 0x8, addend: 0x0, symName: __RNvXs4_NtNtCsieiGu2EXtoJ_4core5array4iterINtB5_8IntoIterbKj20_ENtNtNtB9_3ops4drop4Drop4dropCseYC8vFNOjrM_2cc, symObjAddr: 0x3300, symBinAddr: 0x100066DE0, symSize: 0x10 }
  - { offset: 0xBE6BF, size: 0x8, addend: 0x0, symName: __RNvXs_NtNtCsieiGu2EXtoJ_4core5array4iterARej2_NtNtNtNtB8_4iter6traits7collect12IntoIterator9into_iterCseYC8vFNOjrM_2cc, symObjAddr: 0x45F0, symBinAddr: 0x1000680D0, symSize: 0x80 }
  - { offset: 0xBE815, size: 0x8, addend: 0x0, symName: __RINvXs_NtNtCsieiGu2EXtoJ_4core3ops11index_rangeNtB5_10IndexRangeNtNtNtNtB9_4iter6traits8iterator8Iterator8try_foldhNCINvMs6_NtNtNtB9_5array4iter10iter_innerINtB1Y_15PolymorphicIterSINtNtNtB9_3mem12maybe_uninit11MaybeUninitbEE8try_foldhNCINvMNtB7_9try_traitINtB3R_17NeverShortCircuithE10wrap_mut_2hbNCINvNtNtB16_8adapters3map8map_foldbhhNCNvXNtNtB9_3str4iterNtB5t_5CharsB10_10advance_by0NCINvXsq_NtB14_5accumhNtB6l_3Sum3sumINtB4R_3MapINtB20_8IntoIterbKj20_EB5o_EE0E0E0B46_E0B46_ECseYC8vFNOjrM_2cc, symObjAddr: 0x340, symBinAddr: 0x100063F90, symSize: 0x120 }
  - { offset: 0xBE915, size: 0x8, addend: 0x0, symName: __RINvXs_NtNtCsieiGu2EXtoJ_4core3ops11index_rangeNtB5_10IndexRangeNtNtNtNtB9_4iter6traits8iterator8Iterator8try_folduNCINvMs6_NtNtNtB9_5array4iter10iter_innerINtB1Y_15PolymorphicIterSINtNtNtB9_3mem12maybe_uninit11MaybeUninitNtNtNtCsHUR1vrdMJt_3std3ffi6os_str8OsStringEE8try_folduNCINvMNtB7_9try_traitINtB4x_17NeverShortCircuituE10wrap_mut_2uB3y_NCINvNvB10_8for_each4callB3y_NCINvMsi_NtCslJiobkLta79_5alloc3vecINtB67_3VecB3y_E14extend_trustedINtB20_8IntoIterB3y_Kj6_EE0E0E0B4M_E0B4M_ECseYC8vFNOjrM_2cc, symObjAddr: 0x460, symBinAddr: 0x1000640B0, symSize: 0x110 }
  - { offset: 0xBEDE9, size: 0x8, addend: 0x0, symName: __RINvYINtNtNtCsieiGu2EXtoJ_4core5array4iter8IntoIterNtNtNtCsHUR1vrdMJt_3std3ffi6os_str8OsStringKj6_ENtNtNtNtBa_4iter6traits8iterator8Iterator8for_eachNCINvMsi_NtCslJiobkLta79_5alloc3vecINtB2w_3VecBN_E14extend_trustedB3_E0ECseYC8vFNOjrM_2cc, symObjAddr: 0x570, symBinAddr: 0x1000641C0, symSize: 0x30 }
  - { offset: 0xBF3F4, size: 0x8, addend: 0x0, symName: __RNvNtNtCsieiGu2EXtoJ_4core3str7pattern13simd_containsCseYC8vFNOjrM_2cc, symObjAddr: 0x1DF0, symBinAddr: 0x1000658D0, symSize: 0x9D0 }
  - { offset: 0xBFAE9, size: 0x8, addend: 0x0, symName: __RNvXs0_NtNtCsieiGu2EXtoJ_4core3str7patternNtB5_12CharSearcherNtB5_15ReverseSearcher15next_match_backCseYC8vFNOjrM_2cc, symObjAddr: 0x28F0, symBinAddr: 0x1000663D0, symSize: 0x4B0 }
  - { offset: 0xC0118, size: 0x8, addend: 0x0, symName: __RNvXs0_NtNtCsieiGu2EXtoJ_4core3str7patternNtB5_12CharSearcherNtB5_15ReverseSearcher9next_backCseYC8vFNOjrM_2cc, symObjAddr: 0x2DA0, symBinAddr: 0x100066880, symSize: 0x240 }
  - { offset: 0xC0441, size: 0x8, addend: 0x0, symName: __RNvXst_NtNtCsieiGu2EXtoJ_4core3str7patternReNtB5_7Pattern12is_prefix_ofCseYC8vFNOjrM_2cc, symObjAddr: 0x4810, symBinAddr: 0x1000682F0, symSize: 0x40 }
  - { offset: 0xC047E, size: 0x8, addend: 0x0, symName: __RNvXst_NtNtCsieiGu2EXtoJ_4core3str7patternReNtB5_7Pattern12is_suffix_ofCseYC8vFNOjrM_2cc, symObjAddr: 0x4850, symBinAddr: 0x100068330, symSize: 0x40 }
  - { offset: 0xC04BB, size: 0x8, addend: 0x0, symName: __RNvXst_NtNtCsieiGu2EXtoJ_4core3str7patternReNtB5_7Pattern13into_searcherCseYC8vFNOjrM_2cc, symObjAddr: 0x4890, symBinAddr: 0x100068370, symSize: 0x50 }
  - { offset: 0xC04F8, size: 0x8, addend: 0x0, symName: __RNvXst_NtNtCsieiGu2EXtoJ_4core3str7patternReNtB5_7Pattern15as_utf8_patternCseYC8vFNOjrM_2cc, symObjAddr: 0x48E0, symBinAddr: 0x1000683C0, symSize: 0x40 }
  - { offset: 0xC0550, size: 0x8, addend: 0x0, symName: __RNvXst_NtNtCsieiGu2EXtoJ_4core3str7patternReNtB5_7Pattern15is_contained_inCseYC8vFNOjrM_2cc, symObjAddr: 0x4920, symBinAddr: 0x100068400, symSize: 0x2F0 }
  - { offset: 0xC085E, size: 0x8, addend: 0x0, symName: __RNvXst_NtNtCsieiGu2EXtoJ_4core3str7patternReNtB5_7Pattern15strip_prefix_ofCseYC8vFNOjrM_2cc, symObjAddr: 0x4C10, symBinAddr: 0x1000686F0, symSize: 0xE0 }
  - { offset: 0xC0A0E, size: 0x8, addend: 0x0, symName: __RNvXst_NtNtCsieiGu2EXtoJ_4core3str7patternReNtB5_7Pattern15strip_suffix_ofCseYC8vFNOjrM_2cc, symObjAddr: 0x4CF0, symBinAddr: 0x1000687D0, symSize: 0xE0 }
  - { offset: 0xC0B55, size: 0x8, addend: 0x0, symName: __RNvXs2_NtNtCsieiGu2EXtoJ_4core3str7patterncNtB5_7Pattern12is_prefix_ofCseYC8vFNOjrM_2cc, symObjAddr: 0x3030, symBinAddr: 0x100066B10, symSize: 0x80 }
  - { offset: 0xC0BFE, size: 0x8, addend: 0x0, symName: __RNvXs2_NtNtCsieiGu2EXtoJ_4core3str7patterncNtB5_7Pattern12is_suffix_ofCseYC8vFNOjrM_2cc, symObjAddr: 0x30B0, symBinAddr: 0x100066B90, symSize: 0x80 }
  - { offset: 0xC0CA7, size: 0x8, addend: 0x0, symName: __RNvXs2_NtNtCsieiGu2EXtoJ_4core3str7patterncNtB5_7Pattern13into_searcherCseYC8vFNOjrM_2cc, symObjAddr: 0x3130, symBinAddr: 0x100066C10, symSize: 0x120 }
  - { offset: 0xC0DC8, size: 0x8, addend: 0x0, symName: __RNvXs4_NtNtCsieiGu2EXtoJ_4core3str7patternAcj2_NtB5_11MultiCharEq7matchesCseYC8vFNOjrM_2cc, symObjAddr: 0x32A0, symBinAddr: 0x100066D80, symSize: 0x40 }
  - { offset: 0xC0E31, size: 0x8, addend: 0x0, symName: __RNvXs7_NtNtCsieiGu2EXtoJ_4core3str7patternINtB5_18MultiCharEqPatternAcj2_ENtB5_7Pattern13into_searcherCseYC8vFNOjrM_2cc, symObjAddr: 0x3310, symBinAddr: 0x100066DF0, symSize: 0xD0 }
  - { offset: 0xC0E8E, size: 0x8, addend: 0x0, symName: __RNvXs7_NtNtCsieiGu2EXtoJ_4core3str7patternINtB5_18MultiCharEqPatternNtB7_12IsWhitespaceENtB5_7Pattern13into_searcherCseYC8vFNOjrM_2cc, symObjAddr: 0x33E0, symBinAddr: 0x100066EC0, symSize: 0xB0 }
  - { offset: 0xC0EEA, size: 0x8, addend: 0x0, symName: __RNvXs7_NtNtCsieiGu2EXtoJ_4core3str7patternINtB5_18MultiCharEqPatternNvMNtNtB9_4char7methodsc13is_whitespaceENtB5_7Pattern13into_searcherCseYC8vFNOjrM_2cc, symObjAddr: 0x3490, symBinAddr: 0x100066F70, symSize: 0xB0 }
  - { offset: 0xC0F4C, size: 0x8, addend: 0x0, symName: __RNvXs8_NtNtCsieiGu2EXtoJ_4core3str7patternINtB5_19MultiCharEqSearcherAcj2_ENtB5_8Searcher4nextCseYC8vFNOjrM_2cc, symObjAddr: 0x3540, symBinAddr: 0x100067020, symSize: 0x150 }
  - { offset: 0xC1074, size: 0x8, addend: 0x0, symName: __RNvXs8_NtNtCsieiGu2EXtoJ_4core3str7patternINtB5_19MultiCharEqSearcherNtB7_12IsWhitespaceENtB5_8Searcher4nextCseYC8vFNOjrM_2cc, symObjAddr: 0x3690, symBinAddr: 0x100067170, symSize: 0x160 }
  - { offset: 0xC119C, size: 0x8, addend: 0x0, symName: __RNvXs8_NtNtCsieiGu2EXtoJ_4core3str7patternINtB5_19MultiCharEqSearcherNvMNtNtB9_4char7methodsc13is_whitespaceENtB5_8Searcher4nextCseYC8vFNOjrM_2cc, symObjAddr: 0x37F0, symBinAddr: 0x1000672D0, symSize: 0x160 }
  - { offset: 0xC1300, size: 0x8, addend: 0x0, symName: __RNvXs9_NtNtCsieiGu2EXtoJ_4core3str7patternINtB5_19MultiCharEqSearcherNvMNtNtB9_4char7methodsc13is_whitespaceENtB5_15ReverseSearcher9next_backCseYC8vFNOjrM_2cc, symObjAddr: 0x3950, symBinAddr: 0x100067430, symSize: 0x160 }
  - { offset: 0xC142E, size: 0x8, addend: 0x0, symName: __RNvXs_NtNtCsieiGu2EXtoJ_4core3str7patternNtB4_12CharSearcherNtB4_8Searcher10next_matchCseYC8vFNOjrM_2cc, symObjAddr: 0x4150, symBinAddr: 0x100067C30, symSize: 0x4A0 }
  - { offset: 0xC19D9, size: 0x8, addend: 0x0, symName: __RNvXsb_NtNtCsieiGu2EXtoJ_4core3str7patternAcj2_NtB5_7Pattern13into_searcherCseYC8vFNOjrM_2cc, symObjAddr: 0x4670, symBinAddr: 0x100068150, symSize: 0x60 }
  - { offset: 0xC1A1D, size: 0x8, addend: 0x0, symName: __RNvXsc_NtNtCsieiGu2EXtoJ_4core3str7patternINtB5_17CharArraySearcherKj2_ENtB5_8Searcher10next_matchCseYC8vFNOjrM_2cc, symObjAddr: 0x46D0, symBinAddr: 0x1000681B0, symSize: 0x30 }
  - { offset: 0xC1A4B, size: 0x8, addend: 0x0, symName: __RNvXsc_NtNtCsieiGu2EXtoJ_4core3str7patternINtB5_17CharArraySearcherKj2_ENtB5_8Searcher8haystackCseYC8vFNOjrM_2cc, symObjAddr: 0x4700, symBinAddr: 0x1000681E0, symSize: 0x20 }
  - { offset: 0xC1A94, size: 0x8, addend: 0x0, symName: __RNvXso_NtNtCsieiGu2EXtoJ_4core3str7patternINtB5_21CharPredicateSearcherNtB7_12IsWhitespaceENtB5_8Searcher10next_matchCseYC8vFNOjrM_2cc, symObjAddr: 0x4720, symBinAddr: 0x100068200, symSize: 0x30 }
  - { offset: 0xC1ACB, size: 0x8, addend: 0x0, symName: __RNvXso_NtNtCsieiGu2EXtoJ_4core3str7patternINtB5_21CharPredicateSearcherNtB7_12IsWhitespaceENtB5_8Searcher8haystackCseYC8vFNOjrM_2cc, symObjAddr: 0x4750, symBinAddr: 0x100068230, symSize: 0x20 }
  - { offset: 0xC1B17, size: 0x8, addend: 0x0, symName: __RNvXso_NtNtCsieiGu2EXtoJ_4core3str7patternINtB5_21CharPredicateSearcherNvMNtNtB9_4char7methodsc13is_whitespaceENtB5_8Searcher11next_rejectCseYC8vFNOjrM_2cc, symObjAddr: 0x4770, symBinAddr: 0x100068250, symSize: 0x30 }
  - { offset: 0xC1B54, size: 0x8, addend: 0x0, symName: __RNvXsp_NtNtCsieiGu2EXtoJ_4core3str7patternINtB5_21CharPredicateSearcherNvMNtNtB9_4char7methodsc13is_whitespaceENtB5_15ReverseSearcher16next_reject_backCseYC8vFNOjrM_2cc, symObjAddr: 0x47A0, symBinAddr: 0x100068280, symSize: 0x30 }
  - { offset: 0xC1BA8, size: 0x8, addend: 0x0, symName: __RNvXss_NtNtCsieiGu2EXtoJ_4core3str7patternRReNtB5_7Pattern15is_contained_inCseYC8vFNOjrM_2cc, symObjAddr: 0x47D0, symBinAddr: 0x1000682B0, symSize: 0x40 }
  - { offset: 0xC1D37, size: 0x8, addend: 0x0, symName: __RNvXsv_NtNtCsieiGu2EXtoJ_4core3str7patternNtB5_11StrSearcherNtB5_8Searcher10next_matchCseYC8vFNOjrM_2cc, symObjAddr: 0x4DD0, symBinAddr: 0x1000688B0, symSize: 0x170 }
  - { offset: 0xC1DC4, size: 0x8, addend: 0x0, symName: __RNvXsv_NtNtCsieiGu2EXtoJ_4core3str7patternNtB5_11StrSearcherNtB5_8Searcher4nextCseYC8vFNOjrM_2cc, symObjAddr: 0x4F40, symBinAddr: 0x100068A20, symSize: 0x500 }
  - { offset: 0xC20D0, size: 0x8, addend: 0x0, symName: __RNvXsv_NtNtCsieiGu2EXtoJ_4core3str7patternNtB5_11StrSearcherNtB5_8Searcher8haystackCseYC8vFNOjrM_2cc, symObjAddr: 0x5440, symBinAddr: 0x100068F20, symSize: 0x20 }
  - { offset: 0xC2104, size: 0x8, addend: 0x0, symName: __RNvYAcj2_NtNtNtCsieiGu2EXtoJ_4core3str7pattern7Pattern15as_utf8_patternCseYC8vFNOjrM_2cc, symObjAddr: 0x5460, symBinAddr: 0x100068F40, symSize: 0x20 }
  - { offset: 0xC213F, size: 0x8, addend: 0x0, symName: __RNvYINtNtNtCsieiGu2EXtoJ_4core3str7pattern19MultiCharEqSearcherAcj2_ENtB5_8Searcher10next_matchCseYC8vFNOjrM_2cc, symObjAddr: 0x5480, symBinAddr: 0x100068F60, symSize: 0x90 }
  - { offset: 0xC21A0, size: 0x8, addend: 0x0, symName: __RNvYINtNtNtCsieiGu2EXtoJ_4core3str7pattern19MultiCharEqSearcherNtB7_12IsWhitespaceENtB5_8Searcher10next_matchCseYC8vFNOjrM_2cc, symObjAddr: 0x5510, symBinAddr: 0x100068FF0, symSize: 0x90 }
  - { offset: 0xC2201, size: 0x8, addend: 0x0, symName: __RNvYINtNtNtCsieiGu2EXtoJ_4core3str7pattern19MultiCharEqSearcherNvMNtNtB9_4char7methodsc13is_whitespaceENtB5_8Searcher11next_rejectCseYC8vFNOjrM_2cc, symObjAddr: 0x5630, symBinAddr: 0x100069110, symSize: 0x90 }
  - { offset: 0xC226C, size: 0x8, addend: 0x0, symName: __RNvYINtNtNtCsieiGu2EXtoJ_4core3str7pattern19MultiCharEqSearcherNvMNtNtB9_4char7methodsc13is_whitespaceENtB5_15ReverseSearcher16next_reject_backCseYC8vFNOjrM_2cc, symObjAddr: 0x55A0, symBinAddr: 0x100069080, symSize: 0x90 }
  - { offset: 0xC22D1, size: 0x8, addend: 0x0, symName: __RNvYNtNtNtCsieiGu2EXtoJ_4core3str7pattern12CharSearcherNtB4_15ReverseSearcher16next_reject_backCseYC8vFNOjrM_2cc, symObjAddr: 0x56C0, symBinAddr: 0x1000691A0, symSize: 0x90 }
  - { offset: 0xC3C0A, size: 0x8, addend: 0x0, symName: __RINvNtNtCsHUR1vrdMJt_3std3sys12thread_local20abort_on_dtor_unwindNCINvNtNtB2_6native4lazy7destroyINtNtCsieiGu2EXtoJ_4core4cell4CellINtNtB1C_6option6OptionNtNtNtNtB6_4sync4mpmc7context7ContextEEE0ECseYC8vFNOjrM_2cc, symObjAddr: 0x1C0, symBinAddr: 0x100063E10, symSize: 0x40 }
  - { offset: 0xC3C62, size: 0x8, addend: 0x0, symName: __RNvXNvNtNtCsHUR1vrdMJt_3std3sys12thread_local20abort_on_dtor_unwindNtB2_15DtorUnwindGuardNtNtNtCsieiGu2EXtoJ_4core3ops4drop4Drop4dropCseYC8vFNOjrM_2cc, symObjAddr: 0x2870, symBinAddr: 0x100066350, symSize: 0x80 }
  - { offset: 0xC3E32, size: 0x8, addend: 0x0, symName: __RNCINvMNtNtNtCsHUR1vrdMJt_3std4sync4mpmc7contextNtB5_7Context4withNCNvMs1_NtB7_4zeroINtB1a_7ChannelINtNtCsieiGu2EXtoJ_4core6result6ResultNtCslzRnRZxZnvp_9jobserver8AcquiredNtNtNtBb_2io5error5ErrorEE4send0IB1A_uINtNtB7_5error16SendTimeoutErrorB1z_EEEs0_0CseYC8vFNOjrM_2cc, symObjAddr: 0x5A0, symBinAddr: 0x1000641F0, symSize: 0x170 }
  - { offset: 0xC3F65, size: 0x8, addend: 0x0, symName: __RNCINvMNtNtNtCsHUR1vrdMJt_3std4sync4mpmc7contextNtB5_7Context4withNCNvMs1_NtB7_4zeroINtB1a_7ChannelINtNtCsieiGu2EXtoJ_4core6result6ResultNtCslzRnRZxZnvp_9jobserver8AcquiredNtNtNtBb_2io5error5ErrorEE4send0IB1A_uINtNtB7_5error16SendTimeoutErrorB1z_EEEs_0CseYC8vFNOjrM_2cc, symObjAddr: 0x710, symBinAddr: 0x100064360, symSize: 0x430 }
  - { offset: 0xC4342, size: 0x8, addend: 0x0, symName: __RNCINvMNtNtNtCsHUR1vrdMJt_3std4sync4mpmc7contextNtB5_7Context4withNCNvMs_NtB7_5arrayINtB19_7ChannelINtNtCsieiGu2EXtoJ_4core6result6ResultNtCslzRnRZxZnvp_9jobserver8AcquiredNtNtNtBb_2io5error5ErrorEE4send0uEs0_0CseYC8vFNOjrM_2cc, symObjAddr: 0xB40, symBinAddr: 0x100064790, symSize: 0x110 }
  - { offset: 0xC446D, size: 0x8, addend: 0x0, symName: __RNCINvMNtNtNtCsHUR1vrdMJt_3std4sync4mpmc7contextNtB5_7Context4withNCNvMs_NtB7_5arrayINtB19_7ChannelINtNtCsieiGu2EXtoJ_4core6result6ResultNtCslzRnRZxZnvp_9jobserver8AcquiredNtNtNtBb_2io5error5ErrorEE4send0uEs_0CseYC8vFNOjrM_2cc, symObjAddr: 0xC50, symBinAddr: 0x1000648A0, symSize: 0x3A0 }
  - { offset: 0xC4814, size: 0x8, addend: 0x0, symName: __RNCNkNvNvMNtNtNtCsHUR1vrdMJt_3std4sync4mpmc7contextNtB8_7Context4with7CONTEXT00CseYC8vFNOjrM_2cc, symObjAddr: 0xFF0, symBinAddr: 0x100064C40, symSize: 0x30 }
  - { offset: 0xC4852, size: 0x8, addend: 0x0, symName: __RNvNvNvMNtNtNtCsHUR1vrdMJt_3std4sync4mpmc7contextNtB6_7Context4with7CONTEXT6___initCseYC8vFNOjrM_2cc, symObjAddr: 0x2850, symBinAddr: 0x100066330, symSize: 0x20 }
  - { offset: 0xC4F47, size: 0x8, addend: 0x0, symName: __RNvXs0_NtNtNtCsHUR1vrdMJt_3std4sync6poison7condvarNtB5_7CondvarNtNtCsieiGu2EXtoJ_4core7default7Default7defaultCseYC8vFNOjrM_2cc, symObjAddr: 0x2FE0, symBinAddr: 0x100066AC0, symSize: 0x40 }
  - { offset: 0xC55D2, size: 0x8, addend: 0x0, symName: __RNvXs_NtCslJiobkLta79_5alloc5allocNtB4_6GlobalNtNtCsieiGu2EXtoJ_4core5alloc9Allocator10deallocateCseYC8vFNOjrM_2cc, symObjAddr: 0x3AB0, symBinAddr: 0x100067590, symSize: 0x70 }
  - { offset: 0xC569A, size: 0x8, addend: 0x0, symName: __RNvXs_NtCslJiobkLta79_5alloc5allocNtB4_6GlobalNtNtCsieiGu2EXtoJ_4core5alloc9Allocator15allocate_zeroedCseYC8vFNOjrM_2cc, symObjAddr: 0x3B20, symBinAddr: 0x100067600, symSize: 0x30 }
  - { offset: 0xC572D, size: 0x8, addend: 0x0, symName: __RNvXs_NtCslJiobkLta79_5alloc5allocNtB4_6GlobalNtNtCsieiGu2EXtoJ_4core5alloc9Allocator6shrinkCseYC8vFNOjrM_2cc, symObjAddr: 0x3B50, symBinAddr: 0x100067630, symSize: 0x5D0 }
  - { offset: 0xC5E02, size: 0x8, addend: 0x0, symName: __RNvXs_NtCslJiobkLta79_5alloc5allocNtB4_6GlobalNtNtCsieiGu2EXtoJ_4core5alloc9Allocator8allocateCseYC8vFNOjrM_2cc, symObjAddr: 0x4120, symBinAddr: 0x100067C00, symSize: 0x30 }
  - { offset: 0xC5E3D, size: 0x8, addend: 0x0, symName: __RNvNtCslJiobkLta79_5alloc5alloc15exchange_mallocCseYC8vFNOjrM_2cc, symObjAddr: 0x1D50, symBinAddr: 0x100065830, symSize: 0xA0 }
  - { offset: 0xC5ED9, size: 0x8, addend: 0x0, symName: __RNvXs1_NtCslJiobkLta79_5alloc5allocNtB5_6GlobalNtNtCsieiGu2EXtoJ_4core5clone5Clone5cloneCseYC8vFNOjrM_2cc, symObjAddr: 0x3020, symBinAddr: 0x100066B00, symSize: 0x10 }
  - { offset: 0xC63AF, size: 0x8, addend: 0x0, symName: __RINvMNtNtNtCsHUR1vrdMJt_3std4sync4mpmc7contextNtB3_7Context4withNCNvMs1_NtB5_4zeroINtB18_7ChannelINtNtCsieiGu2EXtoJ_4core6result6ResultNtCslzRnRZxZnvp_9jobserver8AcquiredNtNtNtB9_2io5error5ErrorEE4send0IB1y_uINtNtB5_5error16SendTimeoutErrorB1x_EEECseYC8vFNOjrM_2cc, symObjAddr: 0x0, symBinAddr: 0x100063C50, symSize: 0x130 }
  - { offset: 0xC6508, size: 0x8, addend: 0x0, symName: __RINvMNtNtNtCsHUR1vrdMJt_3std4sync4mpmc7contextNtB3_7Context4withNCNvMs_NtB5_5arrayINtB17_7ChannelINtNtCsieiGu2EXtoJ_4core6result6ResultNtCslzRnRZxZnvp_9jobserver8AcquiredNtNtNtB9_2io5error5ErrorEE4send0uECseYC8vFNOjrM_2cc, symObjAddr: 0x130, symBinAddr: 0x100063D80, symSize: 0x90 }
  - { offset: 0xC6E22, size: 0x8, addend: 0x0, symName: __RNvMNtCslJiobkLta79_5alloc5allocNtB2_6Global10alloc_implCseYC8vFNOjrM_2cc, symObjAddr: 0x10C0, symBinAddr: 0x100064C70, symSize: 0x290 }
  - { offset: 0xC7310, size: 0x8, addend: 0x0, symName: __RNvMNtNtNtCsHUR1vrdMJt_3std4sync4mpmc7contextNtB2_7Context10try_selectCseYC8vFNOjrM_2cc, symObjAddr: 0x1350, symBinAddr: 0x100064F00, symSize: 0x240 }
  - { offset: 0xC766B, size: 0x8, addend: 0x0, symName: __RNvMNtNtNtCsHUR1vrdMJt_3std4sync4mpmc7contextNtB2_7Context10wait_untilCseYC8vFNOjrM_2cc, symObjAddr: 0x1590, symBinAddr: 0x100065140, symSize: 0x410 }
  - { offset: 0xC7B0A, size: 0x8, addend: 0x0, symName: __RNvMs1_NtNtCsieiGu2EXtoJ_4core3ptr8non_nullINtB5_7NonNullINtNtCslJiobkLta79_5alloc4sync3ArcNtNtCsHUR1vrdMJt_3std4path4PathEE20offset_from_unsignedCseYC8vFNOjrM_2cc, symObjAddr: 0x19A0, symBinAddr: 0x100065550, symSize: 0x60 }
  - { offset: 0xC7C14, size: 0x8, addend: 0x0, symName: __RNvMs1_NtNtCsieiGu2EXtoJ_4core3ptr8non_nullINtB5_7NonNullNtCseYC8vFNOjrM_2cc6ObjectE20offset_from_unsignedBV_, symObjAddr: 0x1A00, symBinAddr: 0x1000655B0, symSize: 0x70 }
  - { offset: 0xC7D1E, size: 0x8, addend: 0x0, symName: __RNvMs1_NtNtCsieiGu2EXtoJ_4core3ptr8non_nullINtB5_7NonNullNtNtCslJiobkLta79_5alloc6string6StringE20offset_from_unsignedCseYC8vFNOjrM_2cc, symObjAddr: 0x1A70, symBinAddr: 0x100065620, symSize: 0x70 }
  - { offset: 0xC7E28, size: 0x8, addend: 0x0, symName: __RNvMs1_NtNtCsieiGu2EXtoJ_4core3ptr8non_nullINtB5_7NonNullNtNtNtNtCsHUR1vrdMJt_3std4sync4mpmc5waker5EntryE20offset_from_unsignedCseYC8vFNOjrM_2cc, symObjAddr: 0x1AE0, symBinAddr: 0x100065690, symSize: 0x70 }
  - { offset: 0xC7F59, size: 0x8, addend: 0x0, symName: __RNvMs1_NtNtCsieiGu2EXtoJ_4core3ptr8non_nullINtB5_7NonNullRNtNtNtCsHUR1vrdMJt_3std3ffi6os_str5OsStrE20offset_from_unsignedCseYC8vFNOjrM_2cc, symObjAddr: 0x1B50, symBinAddr: 0x100065700, symSize: 0x60 }
  - { offset: 0xC8081, size: 0x8, addend: 0x0, symName: __RNvMs1_NtNtCsieiGu2EXtoJ_4core3ptr8non_nullINtB5_7NonNullTNtNtNtCsHUR1vrdMJt_3std3ffi6os_str8OsStringBU_EE20offset_from_unsignedCseYC8vFNOjrM_2cc, symObjAddr: 0x1BB0, symBinAddr: 0x100065760, symSize: 0x70 }
  - { offset: 0xC8192, size: 0x8, addend: 0x0, symName: __RNvMs1_NtNtCsieiGu2EXtoJ_4core3ptr8non_nullINtB5_7NonNullcE20offset_from_unsignedCseYC8vFNOjrM_2cc, symObjAddr: 0x1C20, symBinAddr: 0x1000657D0, symSize: 0x60 }
  - { offset: 0xC8B5F, size: 0x8, addend: 0x0, symName: __RINvMs2_NtNtCsHUR1vrdMJt_3std6thread5localINtB6_8LocalKeyINtNtCsieiGu2EXtoJ_4core4cell4CellINtNtBY_6option6OptionNtNtNtNtBa_4sync4mpmc7context7ContextEEE8try_withNCINvMB1P_B1N_4withNCNvMs1_NtB1R_4zeroINtB31_7ChannelINtNtBY_6result6ResultNtCslzRnRZxZnvp_9jobserver8AcquiredNtNtNtBa_2io5error5ErrorEE4send0IB3s_uINtNtB1R_5error16SendTimeoutErrorB3r_EEEs_0B4S_ECseYC8vFNOjrM_2cc, symObjAddr: 0x0, symBinAddr: 0x100069230, symSize: 0x110 }
  - { offset: 0xCBA5D, size: 0x8, addend: 0x0, symName: __RNvXNtCsieiGu2EXtoJ_4core7convertRNtNtCslJiobkLta79_5alloc6string6StringINtB2_5AsRefNtNtCsHUR1vrdMJt_3std4path4PathE6as_refCseYC8vFNOjrM_2cc, symObjAddr: 0x97D0, symBinAddr: 0x100072430, symSize: 0x20 }
  - { offset: 0xCBA9D, size: 0x8, addend: 0x0, symName: __RNvXNtCsieiGu2EXtoJ_4core7convertRReINtB2_5AsRefNtNtNtCsHUR1vrdMJt_3std3ffi6os_str5OsStrE6as_refCseYC8vFNOjrM_2cc, symObjAddr: 0x97F0, symBinAddr: 0x100072450, symSize: 0x20 }
  - { offset: 0xCBADD, size: 0x8, addend: 0x0, symName: __RNvXNtCsieiGu2EXtoJ_4core7convertReINtB2_5AsRefeE6as_refCseYC8vFNOjrM_2cc, symObjAddr: 0x9810, symBinAddr: 0x100072470, symSize: 0x20 }
  - { offset: 0xCBB23, size: 0x8, addend: 0x0, symName: __RNvXs1_NtCsieiGu2EXtoJ_4core7convertNtNtCslJiobkLta79_5alloc6string6StringINtB5_4IntoINtNtBC_4sync3ArceEE4intoCseYC8vFNOjrM_2cc, symObjAddr: 0x9C30, symBinAddr: 0x100072870, symSize: 0x10 }
  - { offset: 0xCBB64, size: 0x8, addend: 0x0, symName: __RNvXs1_NtCsieiGu2EXtoJ_4core7convertNtNtCslJiobkLta79_5alloc6string6StringINtB5_4IntoINtNtBC_5boxed3BoxDNtNtB7_5error5ErrorNtNtB7_6marker4SyncNtB1Z_4SendEL_EE4intoCseYC8vFNOjrM_2cc, symObjAddr: 0x9C40, symBinAddr: 0x100072880, symSize: 0x10 }
  - { offset: 0xCBBA5, size: 0x8, addend: 0x0, symName: __RNvXs1_NtCsieiGu2EXtoJ_4core7convertNtNtCslJiobkLta79_5alloc6string6StringINtB5_4IntoNtNtCsHUR1vrdMJt_3std4path7PathBufE4intoCseYC8vFNOjrM_2cc, symObjAddr: 0x9C50, symBinAddr: 0x100072890, symSize: 0x20 }
  - { offset: 0xCBBE6, size: 0x8, addend: 0x0, symName: __RNvXs1_NtCsieiGu2EXtoJ_4core7convertNtNtCslJiobkLta79_5alloc6string6StringINtB5_4IntoNtNtNtCsHUR1vrdMJt_3std3ffi6os_str8OsStringE4intoCseYC8vFNOjrM_2cc, symObjAddr: 0x9C70, symBinAddr: 0x1000728B0, symSize: 0x20 }
  - { offset: 0xCBC27, size: 0x8, addend: 0x0, symName: __RNvXs1_NtCsieiGu2EXtoJ_4core7convertNtNtNtCsHUR1vrdMJt_3std2io5error5ErrorINtB5_4IntoNtCseYC8vFNOjrM_2cc5ErrorE4intoB1n_, symObjAddr: 0x9C90, symBinAddr: 0x1000728D0, symSize: 0x30 }
  - { offset: 0xCBC67, size: 0x8, addend: 0x0, symName: __RNvXs1_NtCsieiGu2EXtoJ_4core7convertRNtNtCslJiobkLta79_5alloc6string6StringINtB5_4IntoNtNtNtCsHUR1vrdMJt_3std3ffi6os_str8OsStringE4intoCseYC8vFNOjrM_2cc, symObjAddr: 0x9CC0, symBinAddr: 0x100072900, symSize: 0x30 }
  - { offset: 0xCBCA7, size: 0x8, addend: 0x0, symName: __RNvXs1_NtCsieiGu2EXtoJ_4core7convertReINtB5_4IntoINtNtCslJiobkLta79_5alloc4sync3ArceEE4intoCseYC8vFNOjrM_2cc, symObjAddr: 0x9CF0, symBinAddr: 0x100072930, symSize: 0x20 }
  - { offset: 0xCBCE7, size: 0x8, addend: 0x0, symName: __RNvXs1_NtCsieiGu2EXtoJ_4core7convertReINtB5_4IntoINtNtCslJiobkLta79_5alloc5boxed3BoxeEE4intoCseYC8vFNOjrM_2cc, symObjAddr: 0x9D10, symBinAddr: 0x100072950, symSize: 0x20 }
  - { offset: 0xCBD27, size: 0x8, addend: 0x0, symName: __RNvXs1_NtCsieiGu2EXtoJ_4core7convertReINtB5_4IntoNtNtCsHUR1vrdMJt_3std4path7PathBufE4intoCseYC8vFNOjrM_2cc, symObjAddr: 0x9D30, symBinAddr: 0x100072970, symSize: 0x30 }
  - { offset: 0xCBD67, size: 0x8, addend: 0x0, symName: __RNvXs1_NtCsieiGu2EXtoJ_4core7convertReINtB5_4IntoNtNtNtCsHUR1vrdMJt_3std3ffi6os_str8OsStringE4intoCseYC8vFNOjrM_2cc, symObjAddr: 0x9D60, symBinAddr: 0x1000729A0, symSize: 0x30 }
  - { offset: 0xCBDAD, size: 0x8, addend: 0x0, symName: __RNvXs4_NtCsieiGu2EXtoJ_4core7convertlINtB5_7TryIntojE8try_intoCseYC8vFNOjrM_2cc, symObjAddr: 0x9F20, symBinAddr: 0x100072B60, symSize: 0x20 }
  - { offset: 0xCC078, size: 0x8, addend: 0x0, symName: __RNCINvMNtNtCsieiGu2EXtoJ_4core3ops9try_traitINtB5_17NeverShortCircuithE10wrap_mut_2hbNCINvNtNtNtB9_4iter8adapters3map8map_foldbhhNCNvXNtNtB9_3str4iterNtB28_5CharsNtNtNtB1u_6traits8iterator8Iterator10advance_by0NCINvXsq_NtB2E_5accumhNtB3v_3Sum3sumINtB1q_3MapINtNtNtB9_5array4iter8IntoIterbKj20_EB23_EE0E0E0CseYC8vFNOjrM_2cc, symObjAddr: 0xA10, symBinAddr: 0x100069C40, symSize: 0x30 }
  - { offset: 0xCC0EA, size: 0x8, addend: 0x0, symName: __RNCINvMNtNtCsieiGu2EXtoJ_4core3ops9try_traitINtB5_17NeverShortCircuituE10wrap_mut_2uNtNtNtCsHUR1vrdMJt_3std3ffi6os_str8OsStringNCINvNvNtNtNtNtB9_4iter6traits8iterator8Iterator8for_each4callB1k_NCINvMsi_NtCslJiobkLta79_5alloc3vecINtB3e_3VecB1k_E14extend_trustedINtNtNtB9_5array4iter8IntoIterB1k_Kj6_EE0E0E0CseYC8vFNOjrM_2cc, symObjAddr: 0xA40, symBinAddr: 0x100069C70, symSize: 0x40 }
  - { offset: 0xCC160, size: 0x8, addend: 0x0, symName: __RNvXs_NtNtCsieiGu2EXtoJ_4core3ops9try_traitINtB4_17NeverShortCircuithENtB4_3Try11from_outputCseYC8vFNOjrM_2cc, symObjAddr: 0xA230, symBinAddr: 0x100072E70, symSize: 0x10 }
  - { offset: 0xCC197, size: 0x8, addend: 0x0, symName: __RNvXs_NtNtCsieiGu2EXtoJ_4core3ops9try_traitINtB4_17NeverShortCircuithENtB4_3Try6branchCseYC8vFNOjrM_2cc, symObjAddr: 0xA240, symBinAddr: 0x100072E80, symSize: 0x10 }
  - { offset: 0xCC1CE, size: 0x8, addend: 0x0, symName: __RNvXs_NtNtCsieiGu2EXtoJ_4core3ops9try_traitINtB4_17NeverShortCircuituENtB4_3Try11from_outputCseYC8vFNOjrM_2cc, symObjAddr: 0xA250, symBinAddr: 0x100072E90, symSize: 0x10 }
  - { offset: 0xCC201, size: 0x8, addend: 0x0, symName: __RNvXs_NtNtCsieiGu2EXtoJ_4core3ops9try_traitINtB4_17NeverShortCircuituENtB4_3Try6branchCseYC8vFNOjrM_2cc, symObjAddr: 0xA260, symBinAddr: 0x100072EA0, symSize: 0x10 }
  - { offset: 0xCC28B, size: 0x8, addend: 0x0, symName: __RNvXs1_NtNtNtCsieiGu2EXtoJ_4core3ops8function5implsQNCNvMNtCseYC8vFNOjrM_2cc4toolNtBT_4Tool10to_command0INtB7_5FnMutTRRNtNtNtCsHUR1vrdMJt_3std3ffi6os_str8OsStringEE8call_mutBV_, symObjAddr: 0x9D90, symBinAddr: 0x1000729D0, symSize: 0x30 }
  - { offset: 0xCC696, size: 0x8, addend: 0x0, symName: __RNvNvNtNtCsieiGu2EXtoJ_4core5slice3raw14from_raw_parts18precondition_checkCseYC8vFNOjrM_2cc, symObjAddr: 0x9310, symBinAddr: 0x100071F70, symSize: 0x260 }
  - { offset: 0xCC864, size: 0x8, addend: 0x0, symName: __RNvNvNtNtCsieiGu2EXtoJ_4core5slice3raw18from_raw_parts_mut18precondition_checkCseYC8vFNOjrM_2cc, symObjAddr: 0x9570, symBinAddr: 0x1000721D0, symSize: 0x260 }
  - { offset: 0xCCB70, size: 0x8, addend: 0x0, symName: __RNvXs_NtNtCsieiGu2EXtoJ_4core5slice4iterRSNtNtCslJiobkLta79_5alloc6string6StringNtNtNtNtB8_4iter6traits7collect12IntoIterator9into_iterCseYC8vFNOjrM_2cc, symObjAddr: 0xA270, symBinAddr: 0x100072EB0, symSize: 0x50 }
  - { offset: 0xCCD0E, size: 0x8, addend: 0x0, symName: __RNvMNtCsieiGu2EXtoJ_4core5sliceSNtNtCslJiobkLta79_5alloc6string6String4iterCseYC8vFNOjrM_2cc, symObjAddr: 0x3BA0, symBinAddr: 0x10006C930, symSize: 0x20 }
  - { offset: 0xCDA5E, size: 0x8, addend: 0x0, symName: __RNvXNvXs2_NtNtCsHUR1vrdMJt_3std3ffi6os_strNtB8_8OsStringINtNtCsieiGu2EXtoJ_4core7convert4FromRpE4fromRNtNtCslJiobkLta79_5alloc6string6StringNtB2_14SpecToOsString17spec_to_os_stringCseYC8vFNOjrM_2cc, symObjAddr: 0x9830, symBinAddr: 0x100072490, symSize: 0xA0 }
  - { offset: 0xCDB1D, size: 0x8, addend: 0x0, symName: __RNvXsX_NtNtCsHUR1vrdMJt_3std3ffi6os_strNtNtCslJiobkLta79_5alloc6string6StringINtNtCsieiGu2EXtoJ_4core7convert5AsRefNtB5_5OsStrE6as_refCseYC8vFNOjrM_2cc, symObjAddr: 0xA1A0, symBinAddr: 0x100072DE0, symSize: 0x70 }
  - { offset: 0xCE50F, size: 0x8, addend: 0x0, symName: __RNvXsi_NtNtCsHUR1vrdMJt_3std2io5errorNtB5_9ErrorKindNtNtCsieiGu2EXtoJ_4core3cmp9PartialEq2eqCseYC8vFNOjrM_2cc, symObjAddr: 0xA2C0, symBinAddr: 0x100072F00, symSize: 0x20 }
  - { offset: 0xCE6F6, size: 0x8, addend: 0x0, symName: __RNvXs4_NtNtNtCsHUR1vrdMJt_3std2io8buffered9bufwriterINtB5_9BufWriterNtNtB9_5stdio6StdoutENtB9_5Write9write_allCseYC8vFNOjrM_2cc, symObjAddr: 0x9F40, symBinAddr: 0x100072B80, symSize: 0x70 }
  - { offset: 0xCE7B6, size: 0x8, addend: 0x0, symName: __RNvXs7_NtNtNtCsHUR1vrdMJt_3std2io8buffered9bufwriterINtB5_9BufWriterNtNtB9_5stdio6StdoutENtNtNtCsieiGu2EXtoJ_4core3ops4drop4Drop4dropCseYC8vFNOjrM_2cc, symObjAddr: 0xA090, symBinAddr: 0x100072CD0, symSize: 0x40 }
  - { offset: 0xCE84A, size: 0x8, addend: 0x0, symName: __RNvXs_NtNtCsHUR1vrdMJt_3std2io5implsQINtNtNtB6_8buffered9bufwriter9BufWriterNtNtB6_5stdio6StdoutENtB6_5Write9write_fmtCseYC8vFNOjrM_2cc, symObjAddr: 0xA210, symBinAddr: 0x100072E50, symSize: 0x20 }
  - { offset: 0xCE895, size: 0x8, addend: 0x0, symName: __RNvYINtNtNtNtCsHUR1vrdMJt_3std2io8buffered9bufwriter9BufWriterNtNtB9_5stdio6StdoutENtB9_5Write9write_fmtCseYC8vFNOjrM_2cc, symObjAddr: 0xA540, symBinAddr: 0x100073180, symSize: 0x170 }
  - { offset: 0xCEC2B, size: 0x8, addend: 0x0, symName: __RNvXs1q_NtCsHUR1vrdMJt_3std4pathNtNtCslJiobkLta79_5alloc6string6StringINtNtCsieiGu2EXtoJ_4core7convert5AsRefNtB6_4PathE6as_refCseYC8vFNOjrM_2cc, symObjAddr: 0x9DC0, symBinAddr: 0x100072A00, symSize: 0x20 }
  - { offset: 0xCEEC9, size: 0x8, addend: 0x0, symName: __RNCNCNvMNtCseYC8vFNOjrM_2cc4toolNtB6_4Tool13with_featuress_00B8_, symObjAddr: 0xA80, symBinAddr: 0x100069CB0, symSize: 0x60 }
  - { offset: 0xCEF0A, size: 0x8, addend: 0x0, symName: __RNCNvMNtCseYC8vFNOjrM_2cc4toolNtB4_4Tool13with_features0B6_, symObjAddr: 0xB30, symBinAddr: 0x100069D60, symSize: 0x610 }
  - { offset: 0xCF057, size: 0x8, addend: 0x0, symName: __RNCNvMNtCseYC8vFNOjrM_2cc4toolNtB4_4Tool13with_featuress_0B6_, symObjAddr: 0x1140, symBinAddr: 0x10006A370, symSize: 0x5E0 }
  - { offset: 0xCF1AC, size: 0x8, addend: 0x0, symName: __RNCNvNvMNtCseYC8vFNOjrM_2cc4toolNtB6_4Tool13with_features19detect_family_inner0B8_, symObjAddr: 0x1F40, symBinAddr: 0x10006B170, symSize: 0x50 }
  - { offset: 0xCF1D4, size: 0x8, addend: 0x0, symName: __RNCNvNvMNtCseYC8vFNOjrM_2cc4toolNtB6_4Tool13with_features19detect_family_inners0_0B8_, symObjAddr: 0x1F90, symBinAddr: 0x10006B1C0, symSize: 0x1D0 }
  - { offset: 0xCF26A, size: 0x8, addend: 0x0, symName: __RNCNvNvMNtCseYC8vFNOjrM_2cc4toolNtB6_4Tool13with_features19detect_family_inners1_0B8_, symObjAddr: 0x2160, symBinAddr: 0x10006B390, symSize: 0xA0 }
  - { offset: 0xCF2A0, size: 0x8, addend: 0x0, symName: __RNCNvNvMNtCseYC8vFNOjrM_2cc4toolNtB6_4Tool13with_features19detect_family_inners_0B8_, symObjAddr: 0x2200, symBinAddr: 0x10006B430, symSize: 0x1D0 }
  - { offset: 0xCF34A, size: 0x8, addend: 0x0, symName: __RNCNvNvMNtCseYC8vFNOjrM_2cc4toolNtB6_4Tool13with_features9is_zig_cc0B8_, symObjAddr: 0x23D0, symBinAddr: 0x10006B600, symSize: 0xD0 }
  - { offset: 0xCF389, size: 0x8, addend: 0x0, symName: __RNvNvMNtCseYC8vFNOjrM_2cc4toolNtB4_4Tool13with_features19detect_family_inner, symObjAddr: 0x7E70, symBinAddr: 0x100070AD0, symSize: 0xE30 }
  - { offset: 0xCF612, size: 0x8, addend: 0x0, symName: __RNvNvMNtCseYC8vFNOjrM_2cc4toolNtB4_4Tool13with_features24guess_family_from_stdout, symObjAddr: 0x8CA0, symBinAddr: 0x100071900, symSize: 0x460 }
  - { offset: 0xCF70D, size: 0x8, addend: 0x0, symName: __RNvNvMNtCseYC8vFNOjrM_2cc4toolNtB4_4Tool13with_features9is_zig_cc, symObjAddr: 0x9100, symBinAddr: 0x100071D60, symSize: 0x210 }
  - { offset: 0xCF78B, size: 0x8, addend: 0x0, symName: __RNCNvMNtCseYC8vFNOjrM_2cc4toolNtB4_4Tool10to_command0B6_, symObjAddr: 0xAE0, symBinAddr: 0x100069D10, symSize: 0x50 }
  - { offset: 0xCF7E4, size: 0x8, addend: 0x0, symName: __RNCNvMNtCseYC8vFNOjrM_2cc4toolNtB4_4Tool20from_find_msvc_tools0B6_, symObjAddr: 0x1720, symBinAddr: 0x10006A950, symSize: 0xC0 }
  - { offset: 0xCF847, size: 0x8, addend: 0x0, symName: __RNCNvMNtCseYC8vFNOjrM_2cc4toolNtB4_4Tool20is_duplicate_opt_arg0B6_, symObjAddr: 0x17E0, symBinAddr: 0x10006AA10, symSize: 0x90 }
  - { offset: 0xCFB15, size: 0x8, addend: 0x0, symName: __RNvXs0_NtCseYC8vFNOjrM_2cc4toolNtB5_4ToolNtNtCsieiGu2EXtoJ_4core5clone5Clone5cloneB7_, symObjAddr: 0x98D0, symBinAddr: 0x100072530, symSize: 0x2A0 }
  - { offset: 0xCFB47, size: 0x8, addend: 0x0, symName: __RNvXs3_NtCseYC8vFNOjrM_2cc4toolNtB5_10ToolFamilyNtNtCsieiGu2EXtoJ_4core5clone5Clone5cloneB7_, symObjAddr: 0x9E20, symBinAddr: 0x100072A60, symSize: 0x10 }
  - { offset: 0xCFB7B, size: 0x8, addend: 0x0, symName: __RNvXs4_NtCseYC8vFNOjrM_2cc4toolNtB5_10ToolFamilyNtNtCsieiGu2EXtoJ_4core3fmt5Debug3fmtB7_, symObjAddr: 0x9E30, symBinAddr: 0x100072A70, symSize: 0xF0 }
  - { offset: 0xCFBFA, size: 0x8, addend: 0x0, symName: __RNvXs6_NtCseYC8vFNOjrM_2cc4toolNtB5_10ToolFamilyNtNtCsieiGu2EXtoJ_4core3cmp9PartialEq2eqB7_, symObjAddr: 0x9FB0, symBinAddr: 0x100072BF0, symSize: 0xE0 }
  - { offset: 0xCFD82, size: 0x8, addend: 0x0, symName: __RINvNtNtCseYC8vFNOjrM_2cc8parallel6stderr16set_non_blockingNtNtCsHUR1vrdMJt_3std7process11ChildStderrEB6_, symObjAddr: 0x460, symBinAddr: 0x100069690, symSize: 0xE0 }
  - { offset: 0xCFE0E, size: 0x8, addend: 0x0, symName: __RNvNtNtCseYC8vFNOjrM_2cc8parallel6stderr15bytes_available, symObjAddr: 0x7910, symBinAddr: 0x100070570, symSize: 0x210 }
  - { offset: 0xCFEC4, size: 0x8, addend: 0x0, symName: __RNvNtNtCseYC8vFNOjrM_2cc8parallel6stderr9get_flags, symObjAddr: 0x7B20, symBinAddr: 0x100070780, symSize: 0x1B0 }
  - { offset: 0xCFF5F, size: 0x8, addend: 0x0, symName: __RNvNtNtCseYC8vFNOjrM_2cc8parallel6stderr9set_flags, symObjAddr: 0x7CD0, symBinAddr: 0x100070930, symSize: 0x1A0 }
  - { offset: 0xD0001, size: 0x8, addend: 0x0, symName: __RNCNvMNtNtCseYC8vFNOjrM_2cc6target6parserNtB4_21TargetInfoParserInner32from_cargo_environment_variables0B8_, symObjAddr: 0x1870, symBinAddr: 0x10006AAA0, symSize: 0xF0 }
  - { offset: 0xD0073, size: 0x8, addend: 0x0, symName: __RNCNvMNtNtCseYC8vFNOjrM_2cc6target6parserNtB4_21TargetInfoParserInner32from_cargo_environment_variabless0_0B8_, symObjAddr: 0x1960, symBinAddr: 0x10006AB90, symSize: 0x20 }
  - { offset: 0xD00A9, size: 0x8, addend: 0x0, symName: __RNCNvMNtNtCseYC8vFNOjrM_2cc6target6parserNtB4_21TargetInfoParserInner32from_cargo_environment_variabless1_0B8_, symObjAddr: 0x1980, symBinAddr: 0x10006ABB0, symSize: 0x20 }
  - { offset: 0xD00DF, size: 0x8, addend: 0x0, symName: __RNCNvMNtNtCseYC8vFNOjrM_2cc6target6parserNtB4_21TargetInfoParserInner32from_cargo_environment_variabless2_0B8_, symObjAddr: 0x19A0, symBinAddr: 0x10006ABD0, symSize: 0x20 }
  - { offset: 0xD0115, size: 0x8, addend: 0x0, symName: __RNCNvMNtNtCseYC8vFNOjrM_2cc6target6parserNtB4_21TargetInfoParserInner32from_cargo_environment_variabless3_0B8_, symObjAddr: 0x19C0, symBinAddr: 0x10006ABF0, symSize: 0x20 }
  - { offset: 0xD014B, size: 0x8, addend: 0x0, symName: __RNCNvMNtNtCseYC8vFNOjrM_2cc6target6parserNtB4_21TargetInfoParserInner32from_cargo_environment_variabless4_0B8_, symObjAddr: 0x19E0, symBinAddr: 0x10006AC10, symSize: 0x20 }
  - { offset: 0xD0181, size: 0x8, addend: 0x0, symName: __RNCNvMNtNtCseYC8vFNOjrM_2cc6target6parserNtB4_21TargetInfoParserInner32from_cargo_environment_variabless5_0B8_, symObjAddr: 0x1A00, symBinAddr: 0x10006AC30, symSize: 0x80 }
  - { offset: 0xD01B4, size: 0x8, addend: 0x0, symName: __RNCNvMNtNtCseYC8vFNOjrM_2cc6target6parserNtB4_21TargetInfoParserInner32from_cargo_environment_variabless_0B8_, symObjAddr: 0x1A80, symBinAddr: 0x10006ACB0, symSize: 0x320 }
  - { offset: 0xD02EC, size: 0x8, addend: 0x0, symName: __RNCNvMs0_NtNtCseYC8vFNOjrM_2cc6target6parserNtB9_10TargetInfo17from_rustc_target0Bb_, symObjAddr: 0x1DA0, symBinAddr: 0x10006AFD0, symSize: 0xB0 }
  - { offset: 0xD0359, size: 0x8, addend: 0x0, symName: __RNCNvMs0_NtNtCseYC8vFNOjrM_2cc6target6parserNtB9_10TargetInfo17from_rustc_targets_0Bb_, symObjAddr: 0x1E50, symBinAddr: 0x10006B080, symSize: 0xF0 }
  - { offset: 0xD047C, size: 0x8, addend: 0x0, symName: __RNvNtNtCseYC8vFNOjrM_2cc6target6parser10parse_arch, symObjAddr: 0x5E50, symBinAddr: 0x10006EAB0, symSize: 0xEC0 }
  - { offset: 0xD09A9, size: 0x8, addend: 0x0, symName: __RNvNtNtCseYC8vFNOjrM_2cc6target6parser12parse_envabi, symObjAddr: 0x6D10, symBinAddr: 0x10006F970, symSize: 0xC00 }
  - { offset: 0xD0B73, size: 0x8, addend: 0x0, symName: __RNvXs2_NtNtCseYC8vFNOjrM_2cc6target6parserNtB5_16TargetInfoParserNtNtCsieiGu2EXtoJ_4core7default7Default7defaultB9_, symObjAddr: 0x9DE0, symBinAddr: 0x100072A20, symSize: 0x40 }
  - { offset: 0xD18EA, size: 0x8, addend: 0x0, symName: __RNvXsF_NtCslJiobkLta79_5alloc6stringNtB5_6StringINtNtCsieiGu2EXtoJ_4core7convert4FromReE4fromCseYC8vFNOjrM_2cc, symObjAddr: 0xA150, symBinAddr: 0x100072D90, symSize: 0x50 }
  - { offset: 0xD1A31, size: 0x8, addend: 0x0, symName: __RNvXsw_NtCslJiobkLta79_5alloc6stringbNtB5_8ToString9to_stringCseYC8vFNOjrM_2cc, symObjAddr: 0xA4E0, symBinAddr: 0x100073120, symSize: 0x30 }
  - { offset: 0xD1A68, size: 0x8, addend: 0x0, symName: __RNvXsw_NtCslJiobkLta79_5alloc6stringmNtB5_8ToString9to_stringCseYC8vFNOjrM_2cc, symObjAddr: 0xA510, symBinAddr: 0x100073150, symSize: 0x30 }
  - { offset: 0xD1AA5, size: 0x8, addend: 0x0, symName: __RNvXs1A_NtCslJiobkLta79_5alloc6stringmNtB6_12SpecToString14spec_to_stringCseYC8vFNOjrM_2cc, symObjAddr: 0x9BB0, symBinAddr: 0x1000727F0, symSize: 0x80 }
  - { offset: 0xD1C26, size: 0x8, addend: 0x0, symName: __RNvXsA_NtCslJiobkLta79_5alloc6stringbNtB5_12SpecToString14spec_to_stringCseYC8vFNOjrM_2cc, symObjAddr: 0xA0D0, symBinAddr: 0x100072D10, symSize: 0x80 }
  - { offset: 0xD1D8E, size: 0x8, addend: 0x0, symName: __RNvXss_NtCslJiobkLta79_5alloc6stringNtB5_6StringNtNtNtCsieiGu2EXtoJ_4core3ops5deref5Deref5derefCseYC8vFNOjrM_2cc, symObjAddr: 0xA4C0, symBinAddr: 0x100073100, symSize: 0x20 }
  - { offset: 0xD1DC2, size: 0x8, addend: 0x0, symName: __RNvXsk_NtCslJiobkLta79_5alloc6stringNtB5_6StringNtNtCsieiGu2EXtoJ_4core7default7Default7defaultCseYC8vFNOjrM_2cc, symObjAddr: 0xA2E0, symBinAddr: 0x100072F20, symSize: 0x40 }
  - { offset: 0xD1E12, size: 0x8, addend: 0x0, symName: __RNvXsl_NtCslJiobkLta79_5alloc6stringNtB5_6StringNtNtCsieiGu2EXtoJ_4core3fmt7Display3fmtCseYC8vFNOjrM_2cc, symObjAddr: 0xA320, symBinAddr: 0x100072F60, symSize: 0x70 }
  - { offset: 0xD1F77, size: 0x8, addend: 0x0, symName: __RNvXsm_NtCslJiobkLta79_5alloc6stringNtB5_6StringNtNtCsieiGu2EXtoJ_4core3fmt5Debug3fmtCseYC8vFNOjrM_2cc, symObjAddr: 0xA390, symBinAddr: 0x100072FD0, symSize: 0x70 }
  - { offset: 0xD20DC, size: 0x8, addend: 0x0, symName: __RNvXso_NtCslJiobkLta79_5alloc6stringNtB5_6StringINtNtNtCsieiGu2EXtoJ_4core3ops5arith3AddReE3addCseYC8vFNOjrM_2cc, symObjAddr: 0xA400, symBinAddr: 0x100073040, symSize: 0xC0 }
  - { offset: 0xD226F, size: 0x8, addend: 0x0, symName: __RINvXNvMNtCslJiobkLta79_5alloc5sliceSp9to_vec_inNtNtB8_6string6StringNtB3_10ConvertVec6to_vecNtNtB8_5alloc6GlobalECseYC8vFNOjrM_2cc, symObjAddr: 0x540, symBinAddr: 0x100069770, symSize: 0x4D0 }
  - { offset: 0xD2B9B, size: 0x8, addend: 0x0, symName: __RNvXs0_NtCslJiobkLta79_5alloc3strNtNtB7_6string6StringINtNtCsieiGu2EXtoJ_4core6borrow6BorroweE6borrowCseYC8vFNOjrM_2cc, symObjAddr: 0x9B70, symBinAddr: 0x1000727D0, symSize: 0x20 }
  - { offset: 0xD3100, size: 0x8, addend: 0x0, symName: __RINvMs2_NtNtCsHUR1vrdMJt_3std6thread5localINtB6_8LocalKeyINtNtCsieiGu2EXtoJ_4core4cell4CellINtNtBY_6option6OptionNtNtNtNtBa_4sync4mpmc7context7ContextEEE8try_withNCINvMB1P_B1N_4withNCNvMs1_NtB1R_4zeroINtB31_7ChannelINtNtBY_6result6ResultNtCslzRnRZxZnvp_9jobserver8AcquiredNtNtNtBa_2io5error5ErrorEE4send0IB3s_uINtNtB1R_5error16SendTimeoutErrorB3r_EEEs_0B4S_ECseYC8vFNOjrM_2cc, symObjAddr: 0x0, symBinAddr: 0x100069230, symSize: 0x110 }
  - { offset: 0xD32D2, size: 0x8, addend: 0x0, symName: __RINvMs2_NtNtCsHUR1vrdMJt_3std6thread5localINtB6_8LocalKeyINtNtCsieiGu2EXtoJ_4core4cell4CellINtNtBY_6option6OptionNtNtNtNtBa_4sync4mpmc7context7ContextEEE8try_withNCINvMB1P_B1N_4withNCNvMs_NtB1R_5arrayINtB30_7ChannelINtNtBY_6result6ResultNtCslzRnRZxZnvp_9jobserver8AcquiredNtNtNtBa_2io5error5ErrorEE4send0uEs_0uECseYC8vFNOjrM_2cc, symObjAddr: 0x110, symBinAddr: 0x100069340, symSize: 0xC0 }
  - { offset: 0xD3472, size: 0x8, addend: 0x0, symName: __RINvMs2_NtNtCsHUR1vrdMJt_3std6thread5localINtB6_8LocalKeyINtNtCsieiGu2EXtoJ_4core4cell4CellTyyEEE4withNCNvMNtNtBa_4hash6randomNtB1H_11RandomState3new0B20_ECseYC8vFNOjrM_2cc, symObjAddr: 0x1D0, symBinAddr: 0x100069400, symSize: 0x50 }
  - { offset: 0xD352B, size: 0x8, addend: 0x0, symName: __RINvMs2_NtNtCsHUR1vrdMJt_3std6thread5localINtB6_8LocalKeyINtNtCsieiGu2EXtoJ_4core4cell4CellTyyEEE8try_withNCNvMNtNtBa_4hash6randomNtB1L_11RandomState3new0B24_ECseYC8vFNOjrM_2cc, symObjAddr: 0x220, symBinAddr: 0x100069450, symSize: 0xF0 }
  - { offset: 0xD369F, size: 0x8, addend: 0x0, symName: __RINvMs2_NtNtCsHUR1vrdMJt_3std6thread5localINtB6_8LocalKeyhE4withNCNvNtNtNtBa_4sync4mpmc5waker17current_thread_id0jECseYC8vFNOjrM_2cc, symObjAddr: 0x310, symBinAddr: 0x100069540, symSize: 0x40 }
  - { offset: 0xD3758, size: 0x8, addend: 0x0, symName: __RINvMs2_NtNtCsHUR1vrdMJt_3std6thread5localINtB6_8LocalKeyhE8try_withNCNvNtNtNtBa_4sync4mpmc5waker17current_thread_id0jECseYC8vFNOjrM_2cc, symObjAddr: 0x350, symBinAddr: 0x100069580, symSize: 0xD0 }
  - { offset: 0xD389A, size: 0x8, addend: 0x0, symName: __RINvMs5_NtNtCsHUR1vrdMJt_3std2io5errorNtB6_5Error3newNtNtCslJiobkLta79_5alloc6string6StringECseYC8vFNOjrM_2cc, symObjAddr: 0x420, symBinAddr: 0x100069650, symSize: 0x40 }
  - { offset: 0xD3DB7, size: 0x8, addend: 0x0, symName: __RNvMNtCseYC8vFNOjrM_2cc4toolNtB2_4Tool10remove_arg, symObjAddr: 0x2670, symBinAddr: 0x10006B6D0, symSize: 0x30 }
  - { offset: 0xD3EFD, size: 0x8, addend: 0x0, symName: __RNvMNtCseYC8vFNOjrM_2cc4toolNtB2_4Tool10to_command, symObjAddr: 0x26A0, symBinAddr: 0x10006B700, symSize: 0x2B0 }
  - { offset: 0xD3FA1, size: 0x8, addend: 0x0, symName: __RNvMNtCseYC8vFNOjrM_2cc4toolNtB2_4Tool11is_like_gnu, symObjAddr: 0x2950, symBinAddr: 0x10006B9B0, symSize: 0x30 }
  - { offset: 0xD3FC4, size: 0x8, addend: 0x0, symName: __RNvMNtCseYC8vFNOjrM_2cc4toolNtB2_4Tool11push_cc_arg, symObjAddr: 0x2980, symBinAddr: 0x10006B9E0, symSize: 0xF0 }
  - { offset: 0xD3FF7, size: 0x8, addend: 0x0, symName: __RNvMNtCseYC8vFNOjrM_2cc4toolNtB2_4Tool11with_family, symObjAddr: 0x2A70, symBinAddr: 0x10006BAD0, symSize: 0x200 }
  - { offset: 0xD4028, size: 0x8, addend: 0x0, symName: __RNvMNtCseYC8vFNOjrM_2cc4toolNtB2_4Tool12is_like_msvc, symObjAddr: 0x2C70, symBinAddr: 0x10006BCD0, symSize: 0x40 }
  - { offset: 0xD404B, size: 0x8, addend: 0x0, symName: __RNvMNtCseYC8vFNOjrM_2cc4toolNtB2_4Tool13is_like_clang, symObjAddr: 0x2CB0, symBinAddr: 0x10006BD10, symSize: 0x40 }
  - { offset: 0xD40A6, size: 0x8, addend: 0x0, symName: __RNvMNtCseYC8vFNOjrM_2cc4toolNtB2_4Tool13with_features, symObjAddr: 0x2CF0, symBinAddr: 0x10006BD50, symSize: 0x400 }
  - { offset: 0xD4179, size: 0x8, addend: 0x0, symName: __RNvMNtCseYC8vFNOjrM_2cc4toolNtB2_4Tool20from_find_msvc_tools, symObjAddr: 0x3140, symBinAddr: 0x10006C150, symSize: 0x230 }
  - { offset: 0xD41EB, size: 0x8, addend: 0x0, symName: __RNvMNtCseYC8vFNOjrM_2cc4toolNtB2_4Tool20is_duplicate_opt_arg, symObjAddr: 0x3370, symBinAddr: 0x10006C380, symSize: 0x1B0 }
  - { offset: 0xD4268, size: 0x8, addend: 0x0, symName: __RNvMNtCseYC8vFNOjrM_2cc4toolNtB2_4Tool20is_xctoolchain_clang, symObjAddr: 0x3520, symBinAddr: 0x10006C530, symSize: 0xA0 }
  - { offset: 0xD42A1, size: 0x8, addend: 0x0, symName: __RNvMNtCseYC8vFNOjrM_2cc4toolNtB2_4Tool23supports_path_delimiter, symObjAddr: 0x35C0, symBinAddr: 0x10006C5D0, symSize: 0x70 }
  - { offset: 0xD42C4, size: 0x8, addend: 0x0, symName: __RNvMNtCseYC8vFNOjrM_2cc4toolNtB2_4Tool25push_opt_unless_duplicate, symObjAddr: 0x3630, symBinAddr: 0x10006C640, symSize: 0x130 }
  - { offset: 0xD433D, size: 0x8, addend: 0x0, symName: __RNvMNtCseYC8vFNOjrM_2cc4toolNtB2_4Tool3env, symObjAddr: 0x3760, symBinAddr: 0x10006C770, symSize: 0x30 }
  - { offset: 0xD4360, size: 0x8, addend: 0x0, symName: __RNvMNtCseYC8vFNOjrM_2cc4toolNtB2_4Tool3new, symObjAddr: 0x3790, symBinAddr: 0x10006C7A0, symSize: 0xF0 }
  - { offset: 0xD43D4, size: 0x8, addend: 0x0, symName: __RNvMNtCseYC8vFNOjrM_2cc4toolNtB2_4Tool4args, symObjAddr: 0x3880, symBinAddr: 0x10006C890, symSize: 0x30 }
  - { offset: 0xD43F7, size: 0x8, addend: 0x0, symName: __RNvMNtCseYC8vFNOjrM_2cc4toolNtB2_4Tool4path, symObjAddr: 0x38B0, symBinAddr: 0x10006C8C0, symSize: 0x20 }
  - { offset: 0xD441A, size: 0x8, addend: 0x0, symName: __RNvMNtCseYC8vFNOjrM_2cc4toolNtB2_4Tool9with_args, symObjAddr: 0x3B50, symBinAddr: 0x10006C8E0, symSize: 0x50 }
  - { offset: 0xD44F4, size: 0x8, addend: 0x0, symName: __RNvMNtCslJiobkLta79_5alloc6stringNtB2_6String13with_capacityCseYC8vFNOjrM_2cc, symObjAddr: 0x3BC0, symBinAddr: 0x10006C950, symSize: 0x70 }
  - { offset: 0xD45F3, size: 0x8, addend: 0x0, symName: __RNvMNtCslJiobkLta79_5alloc6stringNtB2_6String14into_boxed_strCseYC8vFNOjrM_2cc, symObjAddr: 0x3C30, symBinAddr: 0x10006C9C0, symSize: 0x70 }
  - { offset: 0xD47CA, size: 0x8, addend: 0x0, symName: __RNvMNtCslJiobkLta79_5alloc6stringNtB2_6String6as_strCseYC8vFNOjrM_2cc, symObjAddr: 0x3CA0, symBinAddr: 0x10006CA30, symSize: 0x60 }
  - { offset: 0xD48D3, size: 0x8, addend: 0x0, symName: __RNvMNtCslJiobkLta79_5alloc6stringNtB2_6String8as_bytesCseYC8vFNOjrM_2cc, symObjAddr: 0x3D00, symBinAddr: 0x10006CA90, symSize: 0x20 }
  - { offset: 0xD49BB, size: 0x8, addend: 0x0, symName: __RNvMNtCslJiobkLta79_5alloc6stringNtB2_6String8push_strCseYC8vFNOjrM_2cc, symObjAddr: 0x3D20, symBinAddr: 0x10006CAB0, symSize: 0x50 }
  - { offset: 0xD4B98, size: 0x8, addend: 0x0, symName: __RNvMNtCslJiobkLta79_5alloc6stringNtB2_6String9from_utf8CseYC8vFNOjrM_2cc, symObjAddr: 0x3D70, symBinAddr: 0x10006CB00, symSize: 0x1C0 }
  - { offset: 0xD4C9C, size: 0x8, addend: 0x0, symName: __RNvMNtNtCseYC8vFNOjrM_2cc6target6parserNtB2_21TargetInfoParserInner32from_cargo_environment_variables, symObjAddr: 0x3F30, symBinAddr: 0x10006CCC0, symSize: 0xEC0 }
  - { offset: 0xD4FC6, size: 0x8, addend: 0x0, symName: __RNvMNtNtNtCsHUR1vrdMJt_3std2io8buffered9bufwriterINtB2_9BufWriterNtNtB6_5stdio6StdoutE13with_capacityCseYC8vFNOjrM_2cc, symObjAddr: 0x4DF0, symBinAddr: 0x10006DB80, symSize: 0xB0 }
  - { offset: 0xD5065, size: 0x8, addend: 0x0, symName: __RNvMNtNtNtCsjK30CmJ87bX_9hashbrown7control5group4sse2NtB2_5Group44convert_special_to_empty_and_full_to_deletedCseYC8vFNOjrM_2cc, symObjAddr: 0x4EA0, symBinAddr: 0x10006DC30, symSize: 0xD0 }
  - { offset: 0xD51D4, size: 0x8, addend: 0x0, symName: __RNvMs5_NtNtCsHUR1vrdMJt_3std2io5errorNtB5_5Error13last_os_errorCseYC8vFNOjrM_2cc, symObjAddr: 0x4F70, symBinAddr: 0x10006DD00, symSize: 0x70 }
  - { offset: 0xD52DF, size: 0x8, addend: 0x0, symName: __RNvMs5_NtNtCsHUR1vrdMJt_3std2io5errorNtB5_5Error4kindCseYC8vFNOjrM_2cc, symObjAddr: 0x4FE0, symBinAddr: 0x10006DD70, symSize: 0x90 }
  - { offset: 0xD53A5, size: 0x8, addend: 0x0, symName: __RNvMs_NtCseYC8vFNOjrM_2cc4toolNtB4_10ToolFamily14verbose_stderr, symObjAddr: 0x5070, symBinAddr: 0x10006DE00, symSize: 0x40 }
  - { offset: 0xD53C8, size: 0x8, addend: 0x0, symName: __RNvMs_NtCseYC8vFNOjrM_2cc4toolNtB4_10ToolFamily14warnings_flags, symObjAddr: 0x50B0, symBinAddr: 0x10006DE40, symSize: 0x60 }
  - { offset: 0xD53EB, size: 0x8, addend: 0x0, symName: __RNvMs_NtCseYC8vFNOjrM_2cc4toolNtB4_10ToolFamily15add_debug_flags, symObjAddr: 0x5110, symBinAddr: 0x10006DEA0, symSize: 0x450 }
  - { offset: 0xD5490, size: 0x8, addend: 0x0, symName: __RNvMs_NtCseYC8vFNOjrM_2cc4toolNtB4_10ToolFamily20extra_warnings_flags, symObjAddr: 0x5560, symBinAddr: 0x10006E2F0, symSize: 0x50 }
  - { offset: 0xD54B3, size: 0x8, addend: 0x0, symName: __RNvMs_NtCseYC8vFNOjrM_2cc4toolNtB4_10ToolFamily23add_force_frame_pointer, symObjAddr: 0x55B0, symBinAddr: 0x10006E340, symSize: 0x70 }
  - { offset: 0xD54E5, size: 0x8, addend: 0x0, symName: __RNvMs_NtCseYC8vFNOjrM_2cc4toolNtB4_10ToolFamily23warnings_to_errors_flag, symObjAddr: 0x5620, symBinAddr: 0x10006E3B0, symSize: 0x60 }
  - { offset: 0xD5508, size: 0x8, addend: 0x0, symName: __RNvMs_NtCseYC8vFNOjrM_2cc4toolNtB4_10ToolFamily26warnings_suppression_flags, symObjAddr: 0x5680, symBinAddr: 0x10006E410, symSize: 0x60 }
  - { offset: 0xD5538, size: 0x8, addend: 0x0, symName: __RNvMs_NtNtCseYC8vFNOjrM_2cc6target6parserNtB4_16TargetInfoParser38parse_from_cargo_environment_variables, symObjAddr: 0x56E0, symBinAddr: 0x10006E470, symSize: 0x1B0 }
  - { offset: 0xD56C6, size: 0x8, addend: 0x0, symName: __RNvMs_NtNtNtCsHUR1vrdMJt_3std2io8buffered9bufwriterINtB4_9BufWriterNtNtB8_5stdio6StdoutE14write_all_coldCseYC8vFNOjrM_2cc, symObjAddr: 0x5890, symBinAddr: 0x1000FFBD0, symSize: 0x130 }
  - { offset: 0xD59D3, size: 0x8, addend: 0x0, symName: __RNvMs_NtNtNtCsHUR1vrdMJt_3std2io8buffered9bufwriterINtB4_9BufWriterNtNtB8_5stdio6StdoutE25write_to_buffer_uncheckedCseYC8vFNOjrM_2cc, symObjAddr: 0x59C0, symBinAddr: 0x10006E620, symSize: 0x110 }
  - { offset: 0xD5D00, size: 0x8, addend: 0x0, symName: __RNvMs_NtNtNtCsHUR1vrdMJt_3std2io8buffered9bufwriterINtB4_9BufWriterNtNtB8_5stdio6StdoutE9flush_bufCseYC8vFNOjrM_2cc, symObjAddr: 0x5AD0, symBinAddr: 0x10006E730, symSize: 0x380 }
  - { offset: 0xD6803, size: 0x8, addend: 0x0, symName: __RINvMNtNtNtCsHUR1vrdMJt_3std4sync4mpmc7counterINtB3_6SenderINtNtB5_4list7ChannelINtNtCsieiGu2EXtoJ_4core6result6ResultNtCslzRnRZxZnvp_9jobserver8AcquiredNtNtNtB9_2io5error5ErrorEEE7releaseNCNvXs4_B5_INtB5_6SenderB1g_ENtNtNtB1l_3ops4drop4Drop4drops_0ECseYC8vFNOjrM_2cc, symObjAddr: 0x0, symBinAddr: 0x1000732F0, symSize: 0x140 }
  - { offset: 0xD8EBA, size: 0x8, addend: 0x0, symName: __RNvYINtNtCslJiobkLta79_5alloc6borrow3CoweENtNtCsieiGu2EXtoJ_4core3cmp9PartialEq2neCseYC8vFNOjrM_2cc, symObjAddr: 0x7F50, symBinAddr: 0x10007A8A0, symSize: 0x20 }
  - { offset: 0xDC494, size: 0x8, addend: 0x0, symName: __RINvNtCsieiGu2EXtoJ_4core3ptr13drop_in_placeANtNtCslJiobkLta79_5alloc6string6Stringj4_ECseYC8vFNOjrM_2cc, symObjAddr: 0x780, symBinAddr: 0x100073A70, symSize: 0x90 }
  - { offset: 0xDC4C3, size: 0x8, addend: 0x0, symName: __RINvNtCsieiGu2EXtoJ_4core3ptr13drop_in_placeINtNtB4_4cell10UnsafeCellINtNtB4_6option6OptionINtNtB4_6result6ResultNtCslzRnRZxZnvp_9jobserver8AcquiredNtNtNtCsHUR1vrdMJt_3std2io5error5ErrorEEEECseYC8vFNOjrM_2cc, symObjAddr: 0x810, symBinAddr: 0x100073B00, symSize: 0x20 }
  - { offset: 0xDC4F2, size: 0x8, addend: 0x0, symName: __RINvNtCsieiGu2EXtoJ_4core3ptr13drop_in_placeINtNtB4_4cell10UnsafeCellINtNtB4_6option6OptionNtNtNtNtCsHUR1vrdMJt_3std4sync4mpmc7context7ContextEEECseYC8vFNOjrM_2cc, symObjAddr: 0x830, symBinAddr: 0x100073B20, symSize: 0x20 }
  - { offset: 0xDC521, size: 0x8, addend: 0x0, symName: __RINvNtCsieiGu2EXtoJ_4core3ptr13drop_in_placeINtNtB4_4cell10UnsafeCellINtNtCslJiobkLta79_5alloc3vec3VecTNtNtCsHUR1vrdMJt_3std7process7CommandNtNtNtCseYC8vFNOjrM_2cc8parallel14command_runner10KillOnDropNtNtB2i_9job_token8JobTokenEEEEB2k_, symObjAddr: 0x850, symBinAddr: 0x100073B40, symSize: 0x20 }
  - { offset: 0xDC550, size: 0x8, addend: 0x0, symName: __RINvNtCsieiGu2EXtoJ_4core3ptr13drop_in_placeINtNtB4_4cell10UnsafeCellINtNtNtNtCsHUR1vrdMJt_3std11collections4hash3map7HashMapINtNtCslJiobkLta79_5alloc5boxed3BoxSIB20_NtNtNtB1e_3ffi6os_str5OsStrEENtNtCseYC8vFNOjrM_2cc4tool10ToolFamilyEEEB3b_, symObjAddr: 0x870, symBinAddr: 0x100073B60, symSize: 0x20 }
  - { offset: 0xDC57F, size: 0x8, addend: 0x0, symName: __RINvNtCsieiGu2EXtoJ_4core3ptr13drop_in_placeINtNtB4_4cell10UnsafeCellINtNtNtNtCsHUR1vrdMJt_3std11collections4hash3map7HashMapINtNtCslJiobkLta79_5alloc5boxed3BoxeEINtNtB24_4sync3ArcNtNtNtB1e_3ffi6os_str5OsStrEEEECseYC8vFNOjrM_2cc, symObjAddr: 0x890, symBinAddr: 0x100073B80, symSize: 0x20 }
  - { offset: 0xDC5AE, size: 0x8, addend: 0x0, symName: __RINvNtCsieiGu2EXtoJ_4core3ptr13drop_in_placeINtNtB4_4cell10UnsafeCellINtNtNtNtCsHUR1vrdMJt_3std11collections4hash3map7HashMapINtNtCslJiobkLta79_5alloc5boxed3BoxeEINtNtB24_4sync3ArceEEEECseYC8vFNOjrM_2cc, symObjAddr: 0x8B0, symBinAddr: 0x100073BA0, symSize: 0x20 }
  - { offset: 0xDC5DD, size: 0x8, addend: 0x0, symName: __RINvNtCsieiGu2EXtoJ_4core3ptr13drop_in_placeINtNtB4_4cell10UnsafeCellINtNtNtNtCsHUR1vrdMJt_3std11collections4hash3map7HashMapINtNtCslJiobkLta79_5alloc5boxed3BoxeEINtNtB4_6option6OptionINtNtB24_4sync3ArcNtNtNtB1e_3ffi6os_str5OsStrEEEEECseYC8vFNOjrM_2cc, symObjAddr: 0x8D0, symBinAddr: 0x100073BC0, symSize: 0x20 }
  - { offset: 0xDC60C, size: 0x8, addend: 0x0, symName: __RINvNtCsieiGu2EXtoJ_4core3ptr13drop_in_placeINtNtB4_4cell10UnsafeCellINtNtNtNtCsHUR1vrdMJt_3std11collections4hash3map7HashMapNtCseYC8vFNOjrM_2cc12CompilerFlagbEEEB21_, symObjAddr: 0x8F0, symBinAddr: 0x100073BE0, symSize: 0x20 }
  - { offset: 0xDC63B, size: 0x8, addend: 0x0, symName: __RINvNtCsieiGu2EXtoJ_4core3ptr13drop_in_placeINtNtB4_4cell10UnsafeCellNtNtNtNtCsHUR1vrdMJt_3std4sync4mpmc4zero5InnerEECseYC8vFNOjrM_2cc, symObjAddr: 0x910, symBinAddr: 0x100073C00, symSize: 0x20 }
  - { offset: 0xDC66A, size: 0x8, addend: 0x0, symName: __RINvNtCsieiGu2EXtoJ_4core3ptr13drop_in_placeINtNtB4_4cell10UnsafeCellNtNtNtNtCsHUR1vrdMJt_3std4sync4mpmc5waker5WakerEECseYC8vFNOjrM_2cc, symObjAddr: 0x930, symBinAddr: 0x100073C20, symSize: 0x20 }
  - { offset: 0xDC699, size: 0x8, addend: 0x0, symName: __RINvNtCsieiGu2EXtoJ_4core3ptr13drop_in_placeINtNtB4_4cell4CellINtNtB4_6option6OptionNtNtNtNtCsHUR1vrdMJt_3std4sync4mpmc7context7ContextEEECseYC8vFNOjrM_2cc, symObjAddr: 0x950, symBinAddr: 0x100073C40, symSize: 0x20 }
  - { offset: 0xDC6C8, size: 0x8, addend: 0x0, symName: __RINvNtCsieiGu2EXtoJ_4core3ptr13drop_in_placeINtNtB4_4cell4CellINtNtCslJiobkLta79_5alloc3vec3VecTNtNtCsHUR1vrdMJt_3std7process7CommandNtNtNtCseYC8vFNOjrM_2cc8parallel14command_runner10KillOnDropNtNtB2b_9job_token8JobTokenEEEEB2d_, symObjAddr: 0x970, symBinAddr: 0x100073C60, symSize: 0x20 }
  - { offset: 0xDC6F7, size: 0x8, addend: 0x0, symName: __RINvNtCsieiGu2EXtoJ_4core3ptr13drop_in_placeINtNtB4_6option6OptionIBH_INtNtCslJiobkLta79_5alloc4sync3ArcNtNtNtCsHUR1vrdMJt_3std3ffi6os_str5OsStrEEEECseYC8vFNOjrM_2cc, symObjAddr: 0x990, symBinAddr: 0x100073C80, symSize: 0x30 }
  - { offset: 0xDC726, size: 0x8, addend: 0x0, symName: __RINvNtCsieiGu2EXtoJ_4core3ptr13drop_in_placeINtNtB4_6option6OptionIBH_INtNtCslJiobkLta79_5alloc4sync3ArceEEEECseYC8vFNOjrM_2cc, symObjAddr: 0x9C0, symBinAddr: 0x100073CB0, symSize: 0x30 }
  - { offset: 0xDC755, size: 0x8, addend: 0x0, symName: __RINvNtCsieiGu2EXtoJ_4core3ptr13drop_in_placeINtNtB4_6option6OptionINtNtB4_6result6ResultNtCslzRnRZxZnvp_9jobserver8AcquiredNtNtNtCsHUR1vrdMJt_3std2io5error5ErrorEEECseYC8vFNOjrM_2cc, symObjAddr: 0x9F0, symBinAddr: 0x100073CE0, symSize: 0x40 }
  - { offset: 0xDC784, size: 0x8, addend: 0x0, symName: __RINvNtCsieiGu2EXtoJ_4core3ptr13drop_in_placeINtNtB4_6option6OptionINtNtCslJiobkLta79_5alloc3vec3VecNtNtB17_6string6StringEEECseYC8vFNOjrM_2cc, symObjAddr: 0xA30, symBinAddr: 0x100073D20, symSize: 0x40 }
  - { offset: 0xDC7B3, size: 0x8, addend: 0x0, symName: __RINvNtCsieiGu2EXtoJ_4core3ptr13drop_in_placeINtNtB4_6option6OptionINtNtCslJiobkLta79_5alloc4sync3ArcNtNtCsHUR1vrdMJt_3std4path4PathEEECseYC8vFNOjrM_2cc, symObjAddr: 0xA70, symBinAddr: 0x100073D60, symSize: 0x40 }
  - { offset: 0xDC7E2, size: 0x8, addend: 0x0, symName: __RINvNtCsieiGu2EXtoJ_4core3ptr13drop_in_placeINtNtB4_6option6OptionINtNtCslJiobkLta79_5alloc4sync3ArcNtNtNtCsHUR1vrdMJt_3std3ffi6os_str5OsStrEEECseYC8vFNOjrM_2cc, symObjAddr: 0xAB0, symBinAddr: 0x100073DA0, symSize: 0x40 }
  - { offset: 0xDC811, size: 0x8, addend: 0x0, symName: __RINvNtCsieiGu2EXtoJ_4core3ptr13drop_in_placeINtNtB4_6option6OptionINtNtCslJiobkLta79_5alloc4sync3ArceEEECseYC8vFNOjrM_2cc, symObjAddr: 0xAF0, symBinAddr: 0x100073DE0, symSize: 0x40 }
  - { offset: 0xDC840, size: 0x8, addend: 0x0, symName: __RINvNtCsieiGu2EXtoJ_4core3ptr13drop_in_placeINtNtB4_6option6OptionINtNtCslJiobkLta79_5alloc5boxed3BoxINtNtNtNtCsHUR1vrdMJt_3std4sync4mpmc4list5BlockINtNtB4_6result6ResultNtCslzRnRZxZnvp_9jobserver8AcquiredNtNtNtB1K_2io5error5ErrorEEEEECseYC8vFNOjrM_2cc, symObjAddr: 0xB30, symBinAddr: 0x100073E20, symSize: 0x40 }
  - { offset: 0xDC86F, size: 0x8, addend: 0x0, symName: __RINvNtCsieiGu2EXtoJ_4core3ptr13drop_in_placeINtNtB4_6option6OptionINtNtCslJiobkLta79_5alloc6borrow3CowNtNtCsHUR1vrdMJt_3std4path4PathEEECseYC8vFNOjrM_2cc, symObjAddr: 0xB70, symBinAddr: 0x100073E60, symSize: 0x40 }
  - { offset: 0xDC89E, size: 0x8, addend: 0x0, symName: __RINvNtCsieiGu2EXtoJ_4core3ptr13drop_in_placeINtNtB4_6option6OptionINtNtCslJiobkLta79_5alloc6borrow3CoweEEECseYC8vFNOjrM_2cc, symObjAddr: 0xBB0, symBinAddr: 0x100073EA0, symSize: 0x40 }
  - { offset: 0xDC8CD, size: 0x8, addend: 0x0, symName: __RINvNtCsieiGu2EXtoJ_4core3ptr13drop_in_placeINtNtB4_6option6OptionNCNvMs1_NtNtNtCsHUR1vrdMJt_3std4sync4mpmc4zeroINtB1a_7ChannelINtNtB4_6result6ResultNtCslzRnRZxZnvp_9jobserver8AcquiredNtNtNtB1g_2io5error5ErrorEE4send0EECseYC8vFNOjrM_2cc, symObjAddr: 0xBF0, symBinAddr: 0x100073EE0, symSize: 0x40 }
  - { offset: 0xDC8FC, size: 0x8, addend: 0x0, symName: __RINvNtCsieiGu2EXtoJ_4core3ptr13drop_in_placeINtNtB4_6option6OptionNtCseYC8vFNOjrM_2cc5ErrorEEB14_, symObjAddr: 0xC30, symBinAddr: 0x100073F20, symSize: 0x40 }
  - { offset: 0xDC92B, size: 0x8, addend: 0x0, symName: __RINvNtCsieiGu2EXtoJ_4core3ptr13drop_in_placeINtNtB4_6option6OptionNtNtCsHUR1vrdMJt_3std2fs4FileEECseYC8vFNOjrM_2cc, symObjAddr: 0xC70, symBinAddr: 0x100073F60, symSize: 0x40 }
  - { offset: 0xDC95A, size: 0x8, addend: 0x0, symName: __RINvNtCsieiGu2EXtoJ_4core3ptr13drop_in_placeINtNtB4_6option6OptionNtNtCsHUR1vrdMJt_3std4path7PathBufEECseYC8vFNOjrM_2cc, symObjAddr: 0xCB0, symBinAddr: 0x100073FA0, symSize: 0x40 }
  - { offset: 0xDC989, size: 0x8, addend: 0x0, symName: __RINvNtCsieiGu2EXtoJ_4core3ptr13drop_in_placeINtNtB4_6option6OptionNtNtCsHUR1vrdMJt_3std7process10ChildStdinEECseYC8vFNOjrM_2cc, symObjAddr: 0xCF0, symBinAddr: 0x100073FE0, symSize: 0x40 }
  - { offset: 0xDC9B8, size: 0x8, addend: 0x0, symName: __RINvNtCsieiGu2EXtoJ_4core3ptr13drop_in_placeINtNtB4_6option6OptionNtNtCsHUR1vrdMJt_3std7process11ChildStderrEECseYC8vFNOjrM_2cc, symObjAddr: 0xD30, symBinAddr: 0x100074020, symSize: 0x40 }
  - { offset: 0xDC9E7, size: 0x8, addend: 0x0, symName: __RINvNtCsieiGu2EXtoJ_4core3ptr13drop_in_placeINtNtB4_6option6OptionNtNtCsHUR1vrdMJt_3std7process11ChildStdoutEECseYC8vFNOjrM_2cc, symObjAddr: 0xD70, symBinAddr: 0x100074060, symSize: 0x40 }
  - { offset: 0xDCA16, size: 0x8, addend: 0x0, symName: __RINvNtCsieiGu2EXtoJ_4core3ptr13drop_in_placeINtNtB4_6option6OptionNtNtCsHUR1vrdMJt_3std7process7CommandEECseYC8vFNOjrM_2cc, symObjAddr: 0xDB0, symBinAddr: 0x1000740A0, symSize: 0x40 }
  - { offset: 0xDCA45, size: 0x8, addend: 0x0, symName: __RINvNtCsieiGu2EXtoJ_4core3ptr13drop_in_placeINtNtB4_6option6OptionNtNtCseYC8vFNOjrM_2cc4tool4ToolEEB16_, symObjAddr: 0xDF0, symBinAddr: 0x1000740E0, symSize: 0x40 }
  - { offset: 0xDCA74, size: 0x8, addend: 0x0, symName: __RINvNtCsieiGu2EXtoJ_4core3ptr13drop_in_placeINtNtB4_6option6OptionNtNtCslzRnRZxZnvp_9jobserver3imp6HelperEECseYC8vFNOjrM_2cc, symObjAddr: 0xE30, symBinAddr: 0x100074120, symSize: 0x40 }
  - { offset: 0xDCAA3, size: 0x8, addend: 0x0, symName: __RINvNtCsieiGu2EXtoJ_4core3ptr13drop_in_placeINtNtB4_6option6OptionNtNtNtNtCsHUR1vrdMJt_3std4sync4mpmc5waker5EntryEECseYC8vFNOjrM_2cc, symObjAddr: 0xE70, symBinAddr: 0x100074160, symSize: 0x40 }
  - { offset: 0xDCAD2, size: 0x8, addend: 0x0, symName: __RINvNtCsieiGu2EXtoJ_4core3ptr13drop_in_placeINtNtB4_6option6OptionNtNtNtNtCsHUR1vrdMJt_3std4sync4mpmc7context7ContextEECseYC8vFNOjrM_2cc, symObjAddr: 0xEB0, symBinAddr: 0x1000741A0, symSize: 0x40 }
  - { offset: 0xDCB01, size: 0x8, addend: 0x0, symName: __RINvNtCsieiGu2EXtoJ_4core3ptr13drop_in_placeINtNtB4_6option6OptionNtNtNtNtCseYC8vFNOjrM_2cc8parallel9job_token19inherited_jobserver12HelperThreadEEB1a_, symObjAddr: 0xEF0, symBinAddr: 0x1000741E0, symSize: 0x40 }
  - { offset: 0xDCB30, size: 0x8, addend: 0x0, symName: __RINvNtCsieiGu2EXtoJ_4core3ptr13drop_in_placeINtNtB4_6option6OptionTNtNtCsHUR1vrdMJt_3std7process11ChildStderrINtNtCslJiobkLta79_5alloc3vec3VechEEEECseYC8vFNOjrM_2cc, symObjAddr: 0xF30, symBinAddr: 0x100074220, symSize: 0x40 }
  - { offset: 0xDCB5F, size: 0x8, addend: 0x0, symName: __RINvNtCsieiGu2EXtoJ_4core3ptr13drop_in_placeINtNtB4_6result6ResultINtNtCslJiobkLta79_5alloc3vec3VechENtCseYC8vFNOjrM_2cc5ErrorEEB1D_, symObjAddr: 0xF70, symBinAddr: 0x100074260, symSize: 0x50 }
  - { offset: 0xDCB8E, size: 0x8, addend: 0x0, symName: __RINvNtCsieiGu2EXtoJ_4core3ptr13drop_in_placeINtNtB4_6result6ResultINtNtCslJiobkLta79_5alloc4sync3ArcNtNtNtCsHUR1vrdMJt_3std3ffi6os_str5OsStrENtCseYC8vFNOjrM_2cc5ErrorEEB2h_, symObjAddr: 0xFC0, symBinAddr: 0x1000742B0, symSize: 0x50 }
  - { offset: 0xDCBBD, size: 0x8, addend: 0x0, symName: __RINvNtCsieiGu2EXtoJ_4core3ptr13drop_in_placeINtNtB4_6result6ResultINtNtCslJiobkLta79_5alloc6borrow3CowNtNtCsHUR1vrdMJt_3std4path4PathENtCseYC8vFNOjrM_2cc5ErrorEEB2a_, symObjAddr: 0x1010, symBinAddr: 0x100074300, symSize: 0x50 }
  - { offset: 0xDCBEC, size: 0x8, addend: 0x0, symName: __RINvNtCsieiGu2EXtoJ_4core3ptr13drop_in_placeINtNtB4_6result6ResultINtNtCslJiobkLta79_5alloc6borrow3CoweENtCseYC8vFNOjrM_2cc5ErrorEEB1G_, symObjAddr: 0x1060, symBinAddr: 0x100074350, symSize: 0x50 }
  - { offset: 0xDCC1B, size: 0x8, addend: 0x0, symName: __RINvNtCsieiGu2EXtoJ_4core3ptr13drop_in_placeINtNtB4_6result6ResultINtNtNtB4_3num7nonzero7NonZerojENtNtNtCsHUR1vrdMJt_3std2io5error5ErrorEECseYC8vFNOjrM_2cc, symObjAddr: 0x10B0, symBinAddr: 0x1000743A0, symSize: 0x30 }
  - { offset: 0xDCC4A, size: 0x8, addend: 0x0, symName: __RINvNtCsieiGu2EXtoJ_4core3ptr13drop_in_placeINtNtB4_6result6ResultNtCslzRnRZxZnvp_9jobserver8AcquiredNtNtNtCsHUR1vrdMJt_3std2io5error5ErrorEECseYC8vFNOjrM_2cc, symObjAddr: 0x10E0, symBinAddr: 0x1000743D0, symSize: 0x40 }
  - { offset: 0xDCC79, size: 0x8, addend: 0x0, symName: __RINvNtCsieiGu2EXtoJ_4core3ptr13drop_in_placeINtNtB4_6result6ResultNtNtCsHUR1vrdMJt_3std7process10ExitStatusNtNtNtB16_2io5error5ErrorEECseYC8vFNOjrM_2cc, symObjAddr: 0x1120, symBinAddr: 0x100074410, symSize: 0x30 }
  - { offset: 0xDCCA8, size: 0x8, addend: 0x0, symName: __RINvNtCsieiGu2EXtoJ_4core3ptr13drop_in_placeINtNtB4_6result6ResultNtNtCsHUR1vrdMJt_3std7process6OutputNtNtNtB16_2io5error5ErrorEECseYC8vFNOjrM_2cc, symObjAddr: 0x1150, symBinAddr: 0x100074440, symSize: 0x50 }
  - { offset: 0xDCCD7, size: 0x8, addend: 0x0, symName: __RINvNtCsieiGu2EXtoJ_4core3ptr13drop_in_placeINtNtB4_6result6ResultNtNtCsHUR1vrdMJt_3std7process7CommandNtCseYC8vFNOjrM_2cc5ErrorEEB1F_, symObjAddr: 0x11A0, symBinAddr: 0x100074490, symSize: 0x50 }
  - { offset: 0xDCD06, size: 0x8, addend: 0x0, symName: __RINvNtCsieiGu2EXtoJ_4core3ptr13drop_in_placeINtNtB4_6result6ResultNtNtCseYC8vFNOjrM_2cc4tool4ToolNtB16_5ErrorEEB16_, symObjAddr: 0x11F0, symBinAddr: 0x1000744E0, symSize: 0x50 }
  - { offset: 0xDCD35, size: 0x8, addend: 0x0, symName: __RINvNtCsieiGu2EXtoJ_4core3ptr13drop_in_placeINtNtB4_6result6ResultNtNtCseYC8vFNOjrM_2cc6target10TargetInfoNtB16_5ErrorEEB16_, symObjAddr: 0x1240, symBinAddr: 0x100074530, symSize: 0x40 }
  - { offset: 0xDCD64, size: 0x8, addend: 0x0, symName: __RINvNtCsieiGu2EXtoJ_4core3ptr13drop_in_placeINtNtB4_6result6ResultNtNtCslJiobkLta79_5alloc6string6StringNtB14_13FromUtf8ErrorEECseYC8vFNOjrM_2cc, symObjAddr: 0x1280, symBinAddr: 0x100074570, symSize: 0x50 }
  - { offset: 0xDCD93, size: 0x8, addend: 0x0, symName: __RINvNtCsieiGu2EXtoJ_4core3ptr13drop_in_placeINtNtB4_6result6ResultNtNtCslJiobkLta79_5alloc6string6StringNtCseYC8vFNOjrM_2cc5ErrorEEB1G_, symObjAddr: 0x12D0, symBinAddr: 0x1000745C0, symSize: 0x50 }
  - { offset: 0xDCDC2, size: 0x8, addend: 0x0, symName: __RINvNtCsieiGu2EXtoJ_4core3ptr13drop_in_placeINtNtB4_6result6ResultNtNtNtCseYC8vFNOjrM_2cc6target6parser21TargetInfoParserInnerNtB18_5ErrorEEB18_, symObjAddr: 0x1320, symBinAddr: 0x100074610, symSize: 0x50 }
  - { offset: 0xDCDF1, size: 0x8, addend: 0x0, symName: __RINvNtCsieiGu2EXtoJ_4core3ptr13drop_in_placeINtNtB4_6result6ResultbNtCseYC8vFNOjrM_2cc5ErrorEEB15_, symObjAddr: 0x1370, symBinAddr: 0x100074660, symSize: 0x40 }
  - { offset: 0xDCE20, size: 0x8, addend: 0x0, symName: __RINvNtCsieiGu2EXtoJ_4core3ptr13drop_in_placeINtNtB4_6result6ResultjNtCseYC8vFNOjrM_2cc5ErrorEEB15_, symObjAddr: 0x13B0, symBinAddr: 0x1000746A0, symSize: 0x40 }
  - { offset: 0xDCE4F, size: 0x8, addend: 0x0, symName: __RINvNtCsieiGu2EXtoJ_4core3ptr13drop_in_placeINtNtB4_6result6ResultuIBH_NtCslzRnRZxZnvp_9jobserver8AcquiredNtNtNtCsHUR1vrdMJt_3std2io5error5ErrorEEECseYC8vFNOjrM_2cc, symObjAddr: 0x13F0, symBinAddr: 0x1000746E0, symSize: 0x40 }
  - { offset: 0xDCE7E, size: 0x8, addend: 0x0, symName: __RINvNtCsieiGu2EXtoJ_4core3ptr13drop_in_placeINtNtB4_6result6ResultuINtNtNtCsHUR1vrdMJt_3std4sync4mpsc9SendErrorIBH_NtCslzRnRZxZnvp_9jobserver8AcquiredNtNtNtB1a_2io5error5ErrorEEEECseYC8vFNOjrM_2cc, symObjAddr: 0x1430, symBinAddr: 0x100074720, symSize: 0x40 }
  - { offset: 0xDCEAD, size: 0x8, addend: 0x0, symName: __RINvNtCsieiGu2EXtoJ_4core3ptr13drop_in_placeINtNtB4_6result6ResultuINtNtNtNtCsHUR1vrdMJt_3std4sync4mpmc5error16SendTimeoutErrorIBH_NtCslzRnRZxZnvp_9jobserver8AcquiredNtNtNtB1c_2io5error5ErrorEEEECseYC8vFNOjrM_2cc, symObjAddr: 0x1470, symBinAddr: 0x100074760, symSize: 0x40 }
  - { offset: 0xDCEDC, size: 0x8, addend: 0x0, symName: __RINvNtCsieiGu2EXtoJ_4core3ptr13drop_in_placeINtNtB4_6result6ResultuNtCseYC8vFNOjrM_2cc5ErrorEEB15_, symObjAddr: 0x14B0, symBinAddr: 0x1000747A0, symSize: 0x40 }
  - { offset: 0xDCF0B, size: 0x8, addend: 0x0, symName: __RINvNtCsieiGu2EXtoJ_4core3ptr13drop_in_placeINtNtCseYC8vFNOjrM_2cc9utilities8OnceLockINtNtB4_6result6ResultNtNtNtBL_6target6parser21TargetInfoParserInnerNtBL_5ErrorEEEBL_, symObjAddr: 0x14F0, symBinAddr: 0x1000747E0, symSize: 0x20 }
  - { offset: 0xDCF3A, size: 0x8, addend: 0x0, symName: __RINvNtCsieiGu2EXtoJ_4core3ptr13drop_in_placeINtNtCsjK30CmJ87bX_9hashbrown10scopeguard10ScopeGuardNtNtBL_3raw13RawTableInnerNCINvMsa_B1z_B1x_14prepare_resizeNtNtCslJiobkLta79_5alloc5alloc6GlobalE0EECseYC8vFNOjrM_2cc, symObjAddr: 0x1530, symBinAddr: 0x100074800, symSize: 0x20 }
  - { offset: 0xDCF69, size: 0x8, addend: 0x0, symName: __RINvNtCsieiGu2EXtoJ_4core3ptr13drop_in_placeINtNtCsjK30CmJ87bX_9hashbrown10scopeguard10ScopeGuardQNtNtBL_3raw13RawTableInnerNCNvMsa_B1A_B1y_15rehash_in_place0EECseYC8vFNOjrM_2cc, symObjAddr: 0x1550, symBinAddr: 0x100074820, symSize: 0x20 }
  - { offset: 0xDCF98, size: 0x8, addend: 0x0, symName: __RINvNtCsieiGu2EXtoJ_4core3ptr13drop_in_placeINtNtCsjK30CmJ87bX_9hashbrown3map7HashMapINtNtCslJiobkLta79_5alloc5boxed3BoxSIB1m_NtNtNtCsHUR1vrdMJt_3std3ffi6os_str5OsStrEENtNtCseYC8vFNOjrM_2cc4tool10ToolFamilyNtNtNtB26_4hash6random11RandomStateEEB2K_, symObjAddr: 0x1570, symBinAddr: 0x100074840, symSize: 0x20 }
  - { offset: 0xDCFC7, size: 0x8, addend: 0x0, symName: __RINvNtCsieiGu2EXtoJ_4core3ptr13drop_in_placeINtNtCsjK30CmJ87bX_9hashbrown3map7HashMapINtNtCslJiobkLta79_5alloc5boxed3BoxeEINtNtB1q_4sync3ArcNtNtNtCsHUR1vrdMJt_3std3ffi6os_str5OsStrENtNtNtB2k_4hash6random11RandomStateEECseYC8vFNOjrM_2cc, symObjAddr: 0x1590, symBinAddr: 0x100074860, symSize: 0x20 }
  - { offset: 0xDCFF6, size: 0x8, addend: 0x0, symName: __RINvNtCsieiGu2EXtoJ_4core3ptr13drop_in_placeINtNtCsjK30CmJ87bX_9hashbrown3map7HashMapINtNtCslJiobkLta79_5alloc5boxed3BoxeEINtNtB1q_4sync3ArceENtNtNtCsHUR1vrdMJt_3std4hash6random11RandomStateEECseYC8vFNOjrM_2cc, symObjAddr: 0x15B0, symBinAddr: 0x100074880, symSize: 0x20 }
  - { offset: 0xDD025, size: 0x8, addend: 0x0, symName: __RINvNtCsieiGu2EXtoJ_4core3ptr13drop_in_placeINtNtCsjK30CmJ87bX_9hashbrown3map7HashMapINtNtCslJiobkLta79_5alloc5boxed3BoxeEINtNtB4_6option6OptionINtNtB1q_4sync3ArcNtNtNtCsHUR1vrdMJt_3std3ffi6os_str5OsStrEENtNtNtB2G_4hash6random11RandomStateEECseYC8vFNOjrM_2cc, symObjAddr: 0x15D0, symBinAddr: 0x1000748A0, symSize: 0x20 }
  - { offset: 0xDD054, size: 0x8, addend: 0x0, symName: __RINvNtCsieiGu2EXtoJ_4core3ptr13drop_in_placeINtNtCsjK30CmJ87bX_9hashbrown3map7HashMapNtCseYC8vFNOjrM_2cc12CompilerFlagbNtNtNtCsHUR1vrdMJt_3std4hash6random11RandomStateEEB1n_, symObjAddr: 0x15F0, symBinAddr: 0x1000748C0, symSize: 0x20 }
  - { offset: 0xDD083, size: 0x8, addend: 0x0, symName: __RINvNtCsieiGu2EXtoJ_4core3ptr13drop_in_placeINtNtCsjK30CmJ87bX_9hashbrown3raw8RawTableTINtNtCslJiobkLta79_5alloc5boxed3BoxSIB1o_NtNtNtCsHUR1vrdMJt_3std3ffi6os_str5OsStrEENtNtCseYC8vFNOjrM_2cc4tool10ToolFamilyEEEB2M_, symObjAddr: 0x1610, symBinAddr: 0x1000748E0, symSize: 0x20 }
  - { offset: 0xDD0B2, size: 0x8, addend: 0x0, symName: __RINvNtCsieiGu2EXtoJ_4core3ptr13drop_in_placeINtNtCsjK30CmJ87bX_9hashbrown3raw8RawTableTINtNtCslJiobkLta79_5alloc5boxed3BoxeEINtNtB1s_4sync3ArcNtNtNtCsHUR1vrdMJt_3std3ffi6os_str5OsStrEEEECseYC8vFNOjrM_2cc, symObjAddr: 0x1630, symBinAddr: 0x100074900, symSize: 0x20 }
  - { offset: 0xDD0E1, size: 0x8, addend: 0x0, symName: __RINvNtCsieiGu2EXtoJ_4core3ptr13drop_in_placeINtNtCsjK30CmJ87bX_9hashbrown3raw8RawTableTINtNtCslJiobkLta79_5alloc5boxed3BoxeEINtNtB1s_4sync3ArceEEEECseYC8vFNOjrM_2cc, symObjAddr: 0x1650, symBinAddr: 0x100074920, symSize: 0x20 }
  - { offset: 0xDD110, size: 0x8, addend: 0x0, symName: __RINvNtCsieiGu2EXtoJ_4core3ptr13drop_in_placeINtNtCsjK30CmJ87bX_9hashbrown3raw8RawTableTINtNtCslJiobkLta79_5alloc5boxed3BoxeEINtNtB4_6option6OptionINtNtB1s_4sync3ArcNtNtNtCsHUR1vrdMJt_3std3ffi6os_str5OsStrEEEEECseYC8vFNOjrM_2cc, symObjAddr: 0x1670, symBinAddr: 0x100074940, symSize: 0x20 }
  - { offset: 0xDD13F, size: 0x8, addend: 0x0, symName: __RINvNtCsieiGu2EXtoJ_4core3ptr13drop_in_placeINtNtCsjK30CmJ87bX_9hashbrown3raw8RawTableTNtCseYC8vFNOjrM_2cc12CompilerFlagbEEEB1p_, symObjAddr: 0x1690, symBinAddr: 0x100074960, symSize: 0x20 }
  - { offset: 0xDD16E, size: 0x8, addend: 0x0, symName: __RINvNtCsieiGu2EXtoJ_4core3ptr13drop_in_placeINtNtCslJiobkLta79_5alloc3vec3VecINtNtBL_4sync3ArcNtNtCsHUR1vrdMJt_3std4path4PathEEECseYC8vFNOjrM_2cc, symObjAddr: 0x16B0, symBinAddr: 0x100074980, symSize: 0x50 }
  - { offset: 0xDD19D, size: 0x8, addend: 0x0, symName: __RINvNtCsieiGu2EXtoJ_4core3ptr13drop_in_placeINtNtCslJiobkLta79_5alloc3vec3VecINtNtBL_4sync3ArcNtNtNtCsHUR1vrdMJt_3std3ffi6os_str5OsStrEEECseYC8vFNOjrM_2cc, symObjAddr: 0x1700, symBinAddr: 0x1000749D0, symSize: 0x50 }
  - { offset: 0xDD1CC, size: 0x8, addend: 0x0, symName: __RINvNtCsieiGu2EXtoJ_4core3ptr13drop_in_placeINtNtCslJiobkLta79_5alloc3vec3VecINtNtBL_5boxed3BoxNtNtNtCsHUR1vrdMJt_3std3ffi6os_str5OsStrEEECseYC8vFNOjrM_2cc, symObjAddr: 0x1750, symBinAddr: 0x100074A20, symSize: 0x50 }
  - { offset: 0xDD1FB, size: 0x8, addend: 0x0, symName: __RINvNtCsieiGu2EXtoJ_4core3ptr13drop_in_placeINtNtCslJiobkLta79_5alloc3vec3VecNtCseYC8vFNOjrM_2cc6ObjectEEB1f_, symObjAddr: 0x17A0, symBinAddr: 0x100074A70, symSize: 0x50 }
  - { offset: 0xDD22A, size: 0x8, addend: 0x0, symName: __RINvNtCsieiGu2EXtoJ_4core3ptr13drop_in_placeINtNtCslJiobkLta79_5alloc3vec3VecNtNtNtCsHUR1vrdMJt_3std3ffi6os_str8OsStringEECseYC8vFNOjrM_2cc, symObjAddr: 0x17F0, symBinAddr: 0x100074AC0, symSize: 0x50 }
  - { offset: 0xDD259, size: 0x8, addend: 0x0, symName: __RINvNtCsieiGu2EXtoJ_4core3ptr13drop_in_placeINtNtCslJiobkLta79_5alloc3vec3VecNtNtNtNtCsHUR1vrdMJt_3std4sync4mpmc5waker5EntryEECseYC8vFNOjrM_2cc, symObjAddr: 0x1840, symBinAddr: 0x100074B10, symSize: 0x50 }
  - { offset: 0xDD288, size: 0x8, addend: 0x0, symName: __RINvNtCsieiGu2EXtoJ_4core3ptr13drop_in_placeINtNtCslJiobkLta79_5alloc3vec3VecRNtNtCsHUR1vrdMJt_3std4path4PathEECseYC8vFNOjrM_2cc, symObjAddr: 0x1890, symBinAddr: 0x100074B60, symSize: 0x50 }
  - { offset: 0xDD2B7, size: 0x8, addend: 0x0, symName: __RINvNtCsieiGu2EXtoJ_4core3ptr13drop_in_placeINtNtCslJiobkLta79_5alloc3vec3VecReEECseYC8vFNOjrM_2cc, symObjAddr: 0x18E0, symBinAddr: 0x100074BB0, symSize: 0x50 }
  - { offset: 0xDD2E6, size: 0x8, addend: 0x0, symName: __RINvNtCsieiGu2EXtoJ_4core3ptr13drop_in_placeINtNtCslJiobkLta79_5alloc3vec3VecTINtNtBL_4sync3ArcNtNtNtCsHUR1vrdMJt_3std3ffi6os_str5OsStrEB1e_EEECseYC8vFNOjrM_2cc, symObjAddr: 0x1930, symBinAddr: 0x100074C00, symSize: 0x50 }
  - { offset: 0xDD315, size: 0x8, addend: 0x0, symName: __RINvNtCsieiGu2EXtoJ_4core3ptr13drop_in_placeINtNtCslJiobkLta79_5alloc3vec3VecTINtNtBL_4sync3ArceEINtNtB4_6option6OptionB1e_EEEECseYC8vFNOjrM_2cc, symObjAddr: 0x1980, symBinAddr: 0x100074C50, symSize: 0x50 }
  - { offset: 0xDD344, size: 0x8, addend: 0x0, symName: __RINvNtCsieiGu2EXtoJ_4core3ptr13drop_in_placeINtNtCslJiobkLta79_5alloc3vec3VecTNtNtCsHUR1vrdMJt_3std7process7CommandNtNtNtCseYC8vFNOjrM_2cc8parallel14command_runner10KillOnDropNtNtB1T_9job_token8JobTokenEEEB1V_, symObjAddr: 0x19D0, symBinAddr: 0x100074CA0, symSize: 0x50 }
  - { offset: 0xDD373, size: 0x8, addend: 0x0, symName: __RINvNtCsieiGu2EXtoJ_4core3ptr13drop_in_placeINtNtCslJiobkLta79_5alloc4sync3ArcNtCseYC8vFNOjrM_2cc10BuildCacheEEB1g_, symObjAddr: 0x1A20, symBinAddr: 0x100074CF0, symSize: 0x20 }
  - { offset: 0xDD3A2, size: 0x8, addend: 0x0, symName: __RINvNtCsieiGu2EXtoJ_4core3ptr13drop_in_placeINtNtCslJiobkLta79_5alloc4sync3ArcNtNtCsHUR1vrdMJt_3std4path4PathEECseYC8vFNOjrM_2cc, symObjAddr: 0x1A40, symBinAddr: 0x100074D10, symSize: 0x20 }
  - { offset: 0xDD3D1, size: 0x8, addend: 0x0, symName: __RINvNtCsieiGu2EXtoJ_4core3ptr13drop_in_placeINtNtCslJiobkLta79_5alloc4sync3ArcNtNtNtB4_4sync6atomic10AtomicBoolEECseYC8vFNOjrM_2cc, symObjAddr: 0x1A60, symBinAddr: 0x100074D30, symSize: 0x20 }
  - { offset: 0xDD400, size: 0x8, addend: 0x0, symName: __RINvNtCsieiGu2EXtoJ_4core3ptr13drop_in_placeINtNtCslJiobkLta79_5alloc4sync3ArcNtNtNtNtCsHUR1vrdMJt_3std4sync4mpmc7context5InnerEECseYC8vFNOjrM_2cc, symObjAddr: 0x1A80, symBinAddr: 0x100074D50, symSize: 0x20 }
  - { offset: 0xDD42F, size: 0x8, addend: 0x0, symName: __RINvNtCsieiGu2EXtoJ_4core3ptr13drop_in_placeINtNtCslJiobkLta79_5alloc4sync3ArceEECseYC8vFNOjrM_2cc, symObjAddr: 0x1AA0, symBinAddr: 0x100074D70, symSize: 0x20 }
  - { offset: 0xDD45E, size: 0x8, addend: 0x0, symName: __RINvNtCsieiGu2EXtoJ_4core3ptr13drop_in_placeINtNtCslJiobkLta79_5alloc4sync4WeakNtCseYC8vFNOjrM_2cc10BuildCacheRNtNtBL_5alloc6GlobalEEB1h_, symObjAddr: 0x1AC0, symBinAddr: 0x100074D90, symSize: 0x20 }
  - { offset: 0xDD48D, size: 0x8, addend: 0x0, symName: __RINvNtCsieiGu2EXtoJ_4core3ptr13drop_in_placeINtNtCslJiobkLta79_5alloc4sync4WeakNtNtCsHUR1vrdMJt_3std4path4PathRNtNtBL_5alloc6GlobalEECseYC8vFNOjrM_2cc, symObjAddr: 0x1AE0, symBinAddr: 0x100074DB0, symSize: 0x20 }
  - { offset: 0xDD4BC, size: 0x8, addend: 0x0, symName: __RINvNtCsieiGu2EXtoJ_4core3ptr13drop_in_placeINtNtCslJiobkLta79_5alloc4sync4WeakNtNtNtB4_4sync6atomic10AtomicBoolRNtNtBL_5alloc6GlobalEECseYC8vFNOjrM_2cc, symObjAddr: 0x1B00, symBinAddr: 0x100074DD0, symSize: 0x20 }
  - { offset: 0xDD4EB, size: 0x8, addend: 0x0, symName: __RINvNtCsieiGu2EXtoJ_4core3ptr13drop_in_placeINtNtCslJiobkLta79_5alloc4sync4WeakNtNtNtNtCsHUR1vrdMJt_3std4sync4mpmc7context5InnerRNtNtBL_5alloc6GlobalEECseYC8vFNOjrM_2cc, symObjAddr: 0x1B20, symBinAddr: 0x100074DF0, symSize: 0x20 }
  - { offset: 0xDD51A, size: 0x8, addend: 0x0, symName: __RINvNtCsieiGu2EXtoJ_4core3ptr13drop_in_placeINtNtCslJiobkLta79_5alloc4sync4WeakeRNtNtBL_5alloc6GlobalEECseYC8vFNOjrM_2cc, symObjAddr: 0x1B40, symBinAddr: 0x100074E10, symSize: 0x20 }
  - { offset: 0xDD549, size: 0x8, addend: 0x0, symName: __RINvNtCsieiGu2EXtoJ_4core3ptr13drop_in_placeINtNtCslJiobkLta79_5alloc4sync8ArcInnerNtCslzRnRZxZnvp_9jobserver11HelperStateEECseYC8vFNOjrM_2cc, symObjAddr: 0x1B60, symBinAddr: 0x100074E30, symSize: 0x20 }
  - { offset: 0xDD578, size: 0x8, addend: 0x0, symName: __RINvNtCsieiGu2EXtoJ_4core3ptr13drop_in_placeINtNtCslJiobkLta79_5alloc5boxed3BoxINtNtNtB4_3mem12maybe_uninit11MaybeUninitINtNtBL_4sync8ArcInnerNtCseYC8vFNOjrM_2cc10BuildCacheEEEEB2i_, symObjAddr: 0x1B80, symBinAddr: 0x100074E50, symSize: 0x20 }
  - { offset: 0xDD5A7, size: 0x8, addend: 0x0, symName: __RINvNtCsieiGu2EXtoJ_4core3ptr13drop_in_placeINtNtCslJiobkLta79_5alloc5boxed3BoxINtNtNtNtCsHUR1vrdMJt_3std4sync4mpmc4list5BlockINtNtB4_6result6ResultNtCslzRnRZxZnvp_9jobserver8AcquiredNtNtNtB1o_2io5error5ErrorEEEECseYC8vFNOjrM_2cc, symObjAddr: 0x1BA0, symBinAddr: 0x100074E70, symSize: 0x20 }
  - { offset: 0xDD5D6, size: 0x8, addend: 0x0, symName: __RINvNtCsieiGu2EXtoJ_4core3ptr13drop_in_placeINtNtCslJiobkLta79_5alloc5boxed3BoxINtNtNtNtCsHUR1vrdMJt_3std4sync4mpmc4zero6PacketINtNtB4_6result6ResultNtCslzRnRZxZnvp_9jobserver8AcquiredNtNtNtB1o_2io5error5ErrorEEEECseYC8vFNOjrM_2cc, symObjAddr: 0x1BC0, symBinAddr: 0x100074E90, symSize: 0x50 }
  - { offset: 0xDD605, size: 0x8, addend: 0x0, symName: __RINvNtCsieiGu2EXtoJ_4core3ptr13drop_in_placeINtNtCslJiobkLta79_5alloc5boxed3BoxINtNtNtNtCsHUR1vrdMJt_3std4sync4mpmc7counter7CounterINtNtB1k_4list7ChannelINtNtB4_6result6ResultNtCslzRnRZxZnvp_9jobserver8AcquiredNtNtNtB1o_2io5error5ErrorEEEEECseYC8vFNOjrM_2cc, symObjAddr: 0x1C10, symBinAddr: 0x100074EE0, symSize: 0x50 }
  - { offset: 0xDD634, size: 0x8, addend: 0x0, symName: __RINvNtCsieiGu2EXtoJ_4core3ptr13drop_in_placeINtNtCslJiobkLta79_5alloc5boxed3BoxINtNtNtNtCsHUR1vrdMJt_3std4sync4mpmc7counter7CounterINtNtB1k_4zero7ChannelINtNtB4_6result6ResultNtCslzRnRZxZnvp_9jobserver8AcquiredNtNtNtB1o_2io5error5ErrorEEEEECseYC8vFNOjrM_2cc, symObjAddr: 0x1C60, symBinAddr: 0x100074F30, symSize: 0x50 }
  - { offset: 0xDD663, size: 0x8, addend: 0x0, symName: __RINvNtCsieiGu2EXtoJ_4core3ptr13drop_in_placeINtNtCslJiobkLta79_5alloc5boxed3BoxINtNtNtNtCsHUR1vrdMJt_3std4sync4mpmc7counter7CounterINtNtB1k_5array7ChannelINtNtB4_6result6ResultNtCslzRnRZxZnvp_9jobserver8AcquiredNtNtNtB1o_2io5error5ErrorEEEEECseYC8vFNOjrM_2cc, symObjAddr: 0x1CB0, symBinAddr: 0x100074F80, symSize: 0x50 }
  - { offset: 0xDD692, size: 0x8, addend: 0x0, symName: __RINvNtCsieiGu2EXtoJ_4core3ptr13drop_in_placeINtNtCslJiobkLta79_5alloc5boxed3BoxNtNtNtCsHUR1vrdMJt_3std3ffi6os_str5OsStrEECseYC8vFNOjrM_2cc, symObjAddr: 0x1D00, symBinAddr: 0x100074FD0, symSize: 0x20 }
  - { offset: 0xDD6C1, size: 0x8, addend: 0x0, symName: __RINvNtCsieiGu2EXtoJ_4core3ptr13drop_in_placeINtNtCslJiobkLta79_5alloc5boxed3BoxSIBH_NtNtNtCsHUR1vrdMJt_3std3ffi6os_str5OsStrEEECseYC8vFNOjrM_2cc, symObjAddr: 0x1D20, symBinAddr: 0x100074FF0, symSize: 0x60 }
  - { offset: 0xDD6F0, size: 0x8, addend: 0x0, symName: __RINvNtCsieiGu2EXtoJ_4core3ptr13drop_in_placeINtNtCslJiobkLta79_5alloc5boxed3BoxSINtNtNtNtCsHUR1vrdMJt_3std4sync4mpmc5array4SlotINtNtB4_6result6ResultNtCslzRnRZxZnvp_9jobserver8AcquiredNtNtNtB1p_2io5error5ErrorEEEECseYC8vFNOjrM_2cc, symObjAddr: 0x1D80, symBinAddr: 0x100075050, symSize: 0x20 }
  - { offset: 0xDD71F, size: 0x8, addend: 0x0, symName: __RINvNtCsieiGu2EXtoJ_4core3ptr13drop_in_placeINtNtCslJiobkLta79_5alloc5boxed3BoxeEECseYC8vFNOjrM_2cc, symObjAddr: 0x1DA0, symBinAddr: 0x100075070, symSize: 0x20 }
  - { offset: 0xDD74E, size: 0x8, addend: 0x0, symName: __RINvNtCsieiGu2EXtoJ_4core3ptr13drop_in_placeINtNtCslJiobkLta79_5alloc6borrow3CowNtNtCsHUR1vrdMJt_3std4path4PathEECseYC8vFNOjrM_2cc, symObjAddr: 0x1DC0, symBinAddr: 0x100075090, symSize: 0x40 }
  - { offset: 0xDD77D, size: 0x8, addend: 0x0, symName: __RINvNtCsieiGu2EXtoJ_4core3ptr13drop_in_placeINtNtCslJiobkLta79_5alloc6borrow3CoweEECseYC8vFNOjrM_2cc, symObjAddr: 0x1E00, symBinAddr: 0x1000750D0, symSize: 0x40 }
  - { offset: 0xDD7AC, size: 0x8, addend: 0x0, symName: __RINvNtCsieiGu2EXtoJ_4core3ptr13drop_in_placeINtNtCslJiobkLta79_5alloc7raw_vec6RawVecINtNtBL_4sync3ArcNtNtCsHUR1vrdMJt_3std4path4PathEEECseYC8vFNOjrM_2cc, symObjAddr: 0x1E40, symBinAddr: 0x100075110, symSize: 0x20 }
  - { offset: 0xDD7DB, size: 0x8, addend: 0x0, symName: __RINvNtCsieiGu2EXtoJ_4core3ptr13drop_in_placeINtNtCslJiobkLta79_5alloc7raw_vec6RawVecINtNtBL_4sync3ArcNtNtNtCsHUR1vrdMJt_3std3ffi6os_str5OsStrEEECseYC8vFNOjrM_2cc, symObjAddr: 0x1E60, symBinAddr: 0x100075130, symSize: 0x20 }
  - { offset: 0xDD80A, size: 0x8, addend: 0x0, symName: __RINvNtCsieiGu2EXtoJ_4core3ptr13drop_in_placeINtNtCslJiobkLta79_5alloc7raw_vec6RawVecINtNtBL_5boxed3BoxNtNtNtCsHUR1vrdMJt_3std3ffi6os_str5OsStrEEECseYC8vFNOjrM_2cc, symObjAddr: 0x1E80, symBinAddr: 0x100075150, symSize: 0x20 }
  - { offset: 0xDD839, size: 0x8, addend: 0x0, symName: __RINvNtCsieiGu2EXtoJ_4core3ptr13drop_in_placeINtNtCslJiobkLta79_5alloc7raw_vec6RawVecNtCseYC8vFNOjrM_2cc6ObjectEEB1m_, symObjAddr: 0x1EA0, symBinAddr: 0x100075170, symSize: 0x20 }
  - { offset: 0xDD868, size: 0x8, addend: 0x0, symName: __RINvNtCsieiGu2EXtoJ_4core3ptr13drop_in_placeINtNtCslJiobkLta79_5alloc7raw_vec6RawVecNtNtNtCsHUR1vrdMJt_3std3ffi6os_str8OsStringEECseYC8vFNOjrM_2cc, symObjAddr: 0x1EC0, symBinAddr: 0x100075190, symSize: 0x20 }
  - { offset: 0xDD897, size: 0x8, addend: 0x0, symName: __RINvNtCsieiGu2EXtoJ_4core3ptr13drop_in_placeINtNtCslJiobkLta79_5alloc7raw_vec6RawVecNtNtNtNtCsHUR1vrdMJt_3std4sync4mpmc5waker5EntryEECseYC8vFNOjrM_2cc, symObjAddr: 0x1EE0, symBinAddr: 0x1000751B0, symSize: 0x20 }
  - { offset: 0xDD8C6, size: 0x8, addend: 0x0, symName: __RINvNtCsieiGu2EXtoJ_4core3ptr13drop_in_placeINtNtCslJiobkLta79_5alloc7raw_vec6RawVecRNtNtCsHUR1vrdMJt_3std4path4PathEECseYC8vFNOjrM_2cc, symObjAddr: 0x1F00, symBinAddr: 0x1000751D0, symSize: 0x20 }
  - { offset: 0xDD8F5, size: 0x8, addend: 0x0, symName: __RINvNtCsieiGu2EXtoJ_4core3ptr13drop_in_placeINtNtCslJiobkLta79_5alloc7raw_vec6RawVecReEECseYC8vFNOjrM_2cc, symObjAddr: 0x1F20, symBinAddr: 0x1000751F0, symSize: 0x20 }
  - { offset: 0xDD924, size: 0x8, addend: 0x0, symName: __RINvNtCsieiGu2EXtoJ_4core3ptr13drop_in_placeINtNtCslJiobkLta79_5alloc7raw_vec6RawVecTINtNtBL_4sync3ArcNtNtNtCsHUR1vrdMJt_3std3ffi6os_str5OsStrEB1l_EEECseYC8vFNOjrM_2cc, symObjAddr: 0x1F40, symBinAddr: 0x100075210, symSize: 0x20 }
  - { offset: 0xDD953, size: 0x8, addend: 0x0, symName: __RINvNtCsieiGu2EXtoJ_4core3ptr13drop_in_placeINtNtCslJiobkLta79_5alloc7raw_vec6RawVecTINtNtBL_4sync3ArceEINtNtB4_6option6OptionB1l_EEEECseYC8vFNOjrM_2cc, symObjAddr: 0x1F60, symBinAddr: 0x100075230, symSize: 0x20 }
  - { offset: 0xDD982, size: 0x8, addend: 0x0, symName: __RINvNtCsieiGu2EXtoJ_4core3ptr13drop_in_placeINtNtCslJiobkLta79_5alloc7raw_vec6RawVecTNtNtCsHUR1vrdMJt_3std7process7CommandNtNtNtCseYC8vFNOjrM_2cc8parallel14command_runner10KillOnDropNtNtB20_9job_token8JobTokenEEEB22_, symObjAddr: 0x1F80, symBinAddr: 0x100075250, symSize: 0x20 }
  - { offset: 0xDD9B1, size: 0x8, addend: 0x0, symName: __RINvNtCsieiGu2EXtoJ_4core3ptr13drop_in_placeINtNtNtB4_5array4iter8IntoIterNtNtNtCsHUR1vrdMJt_3std3ffi6os_str8OsStringKj6_EECseYC8vFNOjrM_2cc, symObjAddr: 0x1FA0, symBinAddr: 0x100075270, symSize: 0x50 }
  - { offset: 0xDD9E0, size: 0x8, addend: 0x0, symName: __RINvNtCsieiGu2EXtoJ_4core3ptr13drop_in_placeINtNtNtB4_5array4iter8IntoIterReKj2_EECseYC8vFNOjrM_2cc, symObjAddr: 0x1FF0, symBinAddr: 0x1000752C0, symSize: 0x50 }
  - { offset: 0xDDA0F, size: 0x8, addend: 0x0, symName: __RINvNtCsieiGu2EXtoJ_4core3ptr13drop_in_placeINtNtNtB4_5array4iter8IntoIterbKj20_EECseYC8vFNOjrM_2cc, symObjAddr: 0x2040, symBinAddr: 0x100075310, symSize: 0x50 }
  - { offset: 0xDDA3E, size: 0x8, addend: 0x0, symName: __RINvNtCsieiGu2EXtoJ_4core3ptr13drop_in_placeINtNtNtCsHUR1vrdMJt_3std4sync14reentrant_lock18ReentrantLockGuardINtNtB4_4cell7RefCellINtNtNtNtBN_2io8buffered10linewriter10LineWriterNtNtB2b_5stdio9StdoutRawEEEECseYC8vFNOjrM_2cc, symObjAddr: 0x2090, symBinAddr: 0x100075360, symSize: 0x20 }
  - { offset: 0xDDA6D, size: 0x8, addend: 0x0, symName: __RINvNtCsieiGu2EXtoJ_4core3ptr13drop_in_placeINtNtNtCsHUR1vrdMJt_3std4sync4mpmc6SenderINtNtB4_6result6ResultNtCslzRnRZxZnvp_9jobserver8AcquiredNtNtNtBN_2io5error5ErrorEEECseYC8vFNOjrM_2cc, symObjAddr: 0x20B0, symBinAddr: 0x100075380, symSize: 0x20 }
  - { offset: 0xDDA9C, size: 0x8, addend: 0x0, symName: __RINvNtCsieiGu2EXtoJ_4core3ptr13drop_in_placeINtNtNtCsHUR1vrdMJt_3std4sync4mpmc8ReceiverINtNtB4_6result6ResultNtCslzRnRZxZnvp_9jobserver8AcquiredNtNtNtBN_2io5error5ErrorEEECseYC8vFNOjrM_2cc, symObjAddr: 0x20D0, symBinAddr: 0x1000753A0, symSize: 0x20 }
  - { offset: 0xDDACB, size: 0x8, addend: 0x0, symName: __RINvNtCsieiGu2EXtoJ_4core3ptr13drop_in_placeINtNtNtCsHUR1vrdMJt_3std4sync4mpsc6SenderINtNtB4_6result6ResultNtCslzRnRZxZnvp_9jobserver8AcquiredNtNtNtBN_2io5error5ErrorEEECseYC8vFNOjrM_2cc, symObjAddr: 0x20F0, symBinAddr: 0x1000753C0, symSize: 0x20 }
  - { offset: 0xDDAFA, size: 0x8, addend: 0x0, symName: __RINvNtCsieiGu2EXtoJ_4core3ptr13drop_in_placeINtNtNtCsHUR1vrdMJt_3std4sync4mpsc8ReceiverINtNtB4_6result6ResultNtCslzRnRZxZnvp_9jobserver8AcquiredNtNtNtBN_2io5error5ErrorEEECseYC8vFNOjrM_2cc, symObjAddr: 0x2110, symBinAddr: 0x1000753E0, symSize: 0x20 }
  - { offset: 0xDDB29, size: 0x8, addend: 0x0, symName: __RINvNtCsieiGu2EXtoJ_4core3ptr13drop_in_placeINtNtNtCsHUR1vrdMJt_3std4sync4mpsc9SendErrorINtNtB4_6result6ResultNtCslzRnRZxZnvp_9jobserver8AcquiredNtNtNtBN_2io5error5ErrorEEECseYC8vFNOjrM_2cc, symObjAddr: 0x2130, symBinAddr: 0x100075400, symSize: 0x20 }
  - { offset: 0xDDB58, size: 0x8, addend: 0x0, symName: __RINvNtCsieiGu2EXtoJ_4core3ptr13drop_in_placeINtNtNtCsHUR1vrdMJt_3std4sync6poison11PoisonErrorINtNtBJ_5mutex10MutexGuardNtNtNtBL_4mpmc4zero5InnerEEECseYC8vFNOjrM_2cc, symObjAddr: 0x2150, symBinAddr: 0x100075420, symSize: 0x20 }
  - { offset: 0xDDB87, size: 0x8, addend: 0x0, symName: __RINvNtCsieiGu2EXtoJ_4core3ptr13drop_in_placeINtNtNtCsHUR1vrdMJt_3std4sync6poison11PoisonErrorINtNtBJ_5mutex10MutexGuardNtNtNtBL_4mpmc5waker5WakerEEECseYC8vFNOjrM_2cc, symObjAddr: 0x2170, symBinAddr: 0x100075440, symSize: 0x20 }
  - { offset: 0xDDBB6, size: 0x8, addend: 0x0, symName: __RINvNtCsieiGu2EXtoJ_4core3ptr13drop_in_placeINtNtNtCsHUR1vrdMJt_3std4sync6poison11PoisonErrorINtNtBJ_6rwlock15RwLockReadGuardINtNtNtNtBN_11collections4hash3map7HashMapINtNtCslJiobkLta79_5alloc5boxed3BoxSIB2G_NtNtNtBN_3ffi6os_str5OsStrEENtNtCseYC8vFNOjrM_2cc4tool10ToolFamilyEEEEB3Q_, symObjAddr: 0x2190, symBinAddr: 0x100075460, symSize: 0x20 }
  - { offset: 0xDDBE5, size: 0x8, addend: 0x0, symName: __RINvNtCsieiGu2EXtoJ_4core3ptr13drop_in_placeINtNtNtCsHUR1vrdMJt_3std4sync6poison11PoisonErrorINtNtBJ_6rwlock15RwLockReadGuardINtNtNtNtBN_11collections4hash3map7HashMapINtNtCslJiobkLta79_5alloc5boxed3BoxeEINtNtB2K_4sync3ArcNtNtNtBN_3ffi6os_str5OsStrEEEEECseYC8vFNOjrM_2cc, symObjAddr: 0x21B0, symBinAddr: 0x100075480, symSize: 0x20 }
  - { offset: 0xDDC14, size: 0x8, addend: 0x0, symName: __RINvNtCsieiGu2EXtoJ_4core3ptr13drop_in_placeINtNtNtCsHUR1vrdMJt_3std4sync6poison11PoisonErrorINtNtBJ_6rwlock15RwLockReadGuardINtNtNtNtBN_11collections4hash3map7HashMapINtNtCslJiobkLta79_5alloc5boxed3BoxeEINtNtB2K_4sync3ArceEEEEECseYC8vFNOjrM_2cc, symObjAddr: 0x21D0, symBinAddr: 0x1000754A0, symSize: 0x20 }
  - { offset: 0xDDC43, size: 0x8, addend: 0x0, symName: __RINvNtCsieiGu2EXtoJ_4core3ptr13drop_in_placeINtNtNtCsHUR1vrdMJt_3std4sync6poison11PoisonErrorINtNtBJ_6rwlock15RwLockReadGuardINtNtNtNtBN_11collections4hash3map7HashMapINtNtCslJiobkLta79_5alloc5boxed3BoxeEINtNtB4_6option6OptionINtNtB2K_4sync3ArcNtNtNtBN_3ffi6os_str5OsStrEEEEEECseYC8vFNOjrM_2cc, symObjAddr: 0x21F0, symBinAddr: 0x1000754C0, symSize: 0x20 }
  - { offset: 0xDDC72, size: 0x8, addend: 0x0, symName: __RINvNtCsieiGu2EXtoJ_4core3ptr13drop_in_placeINtNtNtCsHUR1vrdMJt_3std4sync6poison11PoisonErrorINtNtBJ_6rwlock15RwLockReadGuardINtNtNtNtBN_11collections4hash3map7HashMapNtCseYC8vFNOjrM_2cc12CompilerFlagbEEEEB2H_, symObjAddr: 0x2210, symBinAddr: 0x1000754E0, symSize: 0x20 }
  - { offset: 0xDDCA1, size: 0x8, addend: 0x0, symName: __RINvNtCsieiGu2EXtoJ_4core3ptr13drop_in_placeINtNtNtCsHUR1vrdMJt_3std4sync6poison11PoisonErrorINtNtBJ_6rwlock16RwLockWriteGuardINtNtNtNtBN_11collections4hash3map7HashMapINtNtCslJiobkLta79_5alloc5boxed3BoxSIB2H_NtNtNtBN_3ffi6os_str5OsStrEENtNtCseYC8vFNOjrM_2cc4tool10ToolFamilyEEEEB3R_, symObjAddr: 0x2230, symBinAddr: 0x100075500, symSize: 0x20 }
  - { offset: 0xDDCD0, size: 0x8, addend: 0x0, symName: __RINvNtCsieiGu2EXtoJ_4core3ptr13drop_in_placeINtNtNtCsHUR1vrdMJt_3std4sync6poison11PoisonErrorINtNtBJ_6rwlock16RwLockWriteGuardINtNtNtNtBN_11collections4hash3map7HashMapINtNtCslJiobkLta79_5alloc5boxed3BoxeEINtNtB2L_4sync3ArcNtNtNtBN_3ffi6os_str5OsStrEEEEECseYC8vFNOjrM_2cc, symObjAddr: 0x2250, symBinAddr: 0x100075520, symSize: 0x20 }
  - { offset: 0xDDCFF, size: 0x8, addend: 0x0, symName: __RINvNtCsieiGu2EXtoJ_4core3ptr13drop_in_placeINtNtNtCsHUR1vrdMJt_3std4sync6poison11PoisonErrorINtNtBJ_6rwlock16RwLockWriteGuardINtNtNtNtBN_11collections4hash3map7HashMapINtNtCslJiobkLta79_5alloc5boxed3BoxeEINtNtB2L_4sync3ArceEEEEECseYC8vFNOjrM_2cc, symObjAddr: 0x2270, symBinAddr: 0x100075540, symSize: 0x20 }
  - { offset: 0xDDD2E, size: 0x8, addend: 0x0, symName: __RINvNtCsieiGu2EXtoJ_4core3ptr13drop_in_placeINtNtNtCsHUR1vrdMJt_3std4sync6poison11PoisonErrorINtNtBJ_6rwlock16RwLockWriteGuardINtNtNtNtBN_11collections4hash3map7HashMapINtNtCslJiobkLta79_5alloc5boxed3BoxeEINtNtB4_6option6OptionINtNtB2L_4sync3ArcNtNtNtBN_3ffi6os_str5OsStrEEEEEECseYC8vFNOjrM_2cc, symObjAddr: 0x2290, symBinAddr: 0x100075560, symSize: 0x20 }
  - { offset: 0xDDD5D, size: 0x8, addend: 0x0, symName: __RINvNtCsieiGu2EXtoJ_4core3ptr13drop_in_placeINtNtNtCsHUR1vrdMJt_3std4sync6poison11PoisonErrorINtNtBJ_6rwlock16RwLockWriteGuardINtNtNtNtBN_11collections4hash3map7HashMapNtCseYC8vFNOjrM_2cc12CompilerFlagbEEEEB2I_, symObjAddr: 0x22B0, symBinAddr: 0x100075580, symSize: 0x20 }
  - { offset: 0xDDD8C, size: 0x8, addend: 0x0, symName: __RINvNtCsieiGu2EXtoJ_4core3ptr13drop_in_placeINtNtNtCslJiobkLta79_5alloc3vec5drain5DrainNtNtNtNtCsHUR1vrdMJt_3std4sync4mpmc5waker5EntryEECseYC8vFNOjrM_2cc, symObjAddr: 0x2310, symBinAddr: 0x1000755A0, symSize: 0x20 }
  - { offset: 0xDDDBB, size: 0x8, addend: 0x0, symName: __RINvNtCsieiGu2EXtoJ_4core3ptr13drop_in_placeINtNtNtCslJiobkLta79_5alloc3vec9into_iter8IntoIterNtNtBN_6string6StringEECseYC8vFNOjrM_2cc, symObjAddr: 0x2350, symBinAddr: 0x1000755C0, symSize: 0x20 }
  - { offset: 0xDDDEA, size: 0x8, addend: 0x0, symName: __RINvNtCsieiGu2EXtoJ_4core3ptr13drop_in_placeINtNtNtNtB4_5array4iter10iter_inner15PolymorphicIterAINtNtNtB4_3mem12maybe_uninit11MaybeUninitNtNtNtCsHUR1vrdMJt_3std3ffi6os_str8OsStringEj6_EECseYC8vFNOjrM_2cc, symObjAddr: 0x23B0, symBinAddr: 0x1000755E0, symSize: 0x20 }
  - { offset: 0xDDE19, size: 0x8, addend: 0x0, symName: __RINvNtCsieiGu2EXtoJ_4core3ptr13drop_in_placeINtNtNtNtB4_5array4iter10iter_inner15PolymorphicIterAINtNtNtB4_3mem12maybe_uninit11MaybeUninitReEj2_EECseYC8vFNOjrM_2cc, symObjAddr: 0x23D0, symBinAddr: 0x100075600, symSize: 0x20 }
  - { offset: 0xDDE48, size: 0x8, addend: 0x0, symName: __RINvNtCsieiGu2EXtoJ_4core3ptr13drop_in_placeINtNtNtNtB4_5array4iter10iter_inner15PolymorphicIterAINtNtNtB4_3mem12maybe_uninit11MaybeUninitbEj20_EECseYC8vFNOjrM_2cc, symObjAddr: 0x23F0, symBinAddr: 0x100075620, symSize: 0x20 }
  - { offset: 0xDDE77, size: 0x8, addend: 0x0, symName: __RINvNtCsieiGu2EXtoJ_4core3ptr13drop_in_placeINtNtNtNtCsHUR1vrdMJt_3std11collections4hash3map7HashMapINtNtCslJiobkLta79_5alloc5boxed3BoxSIB1B_NtNtNtBP_3ffi6os_str5OsStrEENtNtCseYC8vFNOjrM_2cc4tool10ToolFamilyEEB2L_, symObjAddr: 0x2410, symBinAddr: 0x100075640, symSize: 0x20 }
  - { offset: 0xDDEA6, size: 0x8, addend: 0x0, symName: __RINvNtCsieiGu2EXtoJ_4core3ptr13drop_in_placeINtNtNtNtCsHUR1vrdMJt_3std11collections4hash3map7HashMapINtNtCslJiobkLta79_5alloc5boxed3BoxeEINtNtB1F_4sync3ArcNtNtNtBP_3ffi6os_str5OsStrEEECseYC8vFNOjrM_2cc, symObjAddr: 0x2430, symBinAddr: 0x100075660, symSize: 0x20 }
  - { offset: 0xDDED5, size: 0x8, addend: 0x0, symName: __RINvNtCsieiGu2EXtoJ_4core3ptr13drop_in_placeINtNtNtNtCsHUR1vrdMJt_3std11collections4hash3map7HashMapINtNtCslJiobkLta79_5alloc5boxed3BoxeEINtNtB1F_4sync3ArceEEECseYC8vFNOjrM_2cc, symObjAddr: 0x2450, symBinAddr: 0x100075680, symSize: 0x20 }
  - { offset: 0xDDF04, size: 0x8, addend: 0x0, symName: __RINvNtCsieiGu2EXtoJ_4core3ptr13drop_in_placeINtNtNtNtCsHUR1vrdMJt_3std11collections4hash3map7HashMapINtNtCslJiobkLta79_5alloc5boxed3BoxeEINtNtB4_6option6OptionINtNtB1F_4sync3ArcNtNtNtBP_3ffi6os_str5OsStrEEEECseYC8vFNOjrM_2cc, symObjAddr: 0x2470, symBinAddr: 0x1000756A0, symSize: 0x20 }
  - { offset: 0xDDF33, size: 0x8, addend: 0x0, symName: __RINvNtCsieiGu2EXtoJ_4core3ptr13drop_in_placeINtNtNtNtCsHUR1vrdMJt_3std11collections4hash3map7HashMapNtCseYC8vFNOjrM_2cc12CompilerFlagbEEB1C_, symObjAddr: 0x2490, symBinAddr: 0x1000756C0, symSize: 0x20 }
  - { offset: 0xDDF62, size: 0x8, addend: 0x0, symName: __RINvNtCsieiGu2EXtoJ_4core3ptr13drop_in_placeINtNtNtNtCsHUR1vrdMJt_3std2io8buffered9bufwriter9BufWriterNtNtBN_5stdio6StdoutEECseYC8vFNOjrM_2cc, symObjAddr: 0x24B0, symBinAddr: 0x1000756E0, symSize: 0x50 }
  - { offset: 0xDDF91, size: 0x8, addend: 0x0, symName: __RINvNtCsieiGu2EXtoJ_4core3ptr13drop_in_placeINtNtNtNtCsHUR1vrdMJt_3std4sync4mpmc4list7ChannelINtNtB4_6result6ResultNtCslzRnRZxZnvp_9jobserver8AcquiredNtNtNtBP_2io5error5ErrorEEECseYC8vFNOjrM_2cc, symObjAddr: 0x2500, symBinAddr: 0x100075730, symSize: 0x60 }
  - { offset: 0xDDFC0, size: 0x8, addend: 0x0, symName: __RINvNtCsieiGu2EXtoJ_4core3ptr13drop_in_placeINtNtNtNtCsHUR1vrdMJt_3std4sync4mpmc4zero6PacketINtNtB4_6result6ResultNtCslzRnRZxZnvp_9jobserver8AcquiredNtNtNtBP_2io5error5ErrorEEECseYC8vFNOjrM_2cc, symObjAddr: 0x2560, symBinAddr: 0x100075790, symSize: 0x20 }
  - { offset: 0xDDFEF, size: 0x8, addend: 0x0, symName: __RINvNtCsieiGu2EXtoJ_4core3ptr13drop_in_placeINtNtNtNtCsHUR1vrdMJt_3std4sync4mpmc4zero7ChannelINtNtB4_6result6ResultNtCslzRnRZxZnvp_9jobserver8AcquiredNtNtNtBP_2io5error5ErrorEEECseYC8vFNOjrM_2cc, symObjAddr: 0x2580, symBinAddr: 0x1000757B0, symSize: 0x20 }
  - { offset: 0xDE01E, size: 0x8, addend: 0x0, symName: __RINvNtCsieiGu2EXtoJ_4core3ptr13drop_in_placeINtNtNtNtCsHUR1vrdMJt_3std4sync4mpmc5array7ChannelINtNtB4_6result6ResultNtCslzRnRZxZnvp_9jobserver8AcquiredNtNtNtBP_2io5error5ErrorEEECseYC8vFNOjrM_2cc, symObjAddr: 0x25A0, symBinAddr: 0x1000757D0, symSize: 0xA0 }
  - { offset: 0xDE04D, size: 0x8, addend: 0x0, symName: __RINvNtCsieiGu2EXtoJ_4core3ptr13drop_in_placeINtNtNtNtCsHUR1vrdMJt_3std4sync4mpmc5error16SendTimeoutErrorINtNtB4_6result6ResultNtCslzRnRZxZnvp_9jobserver8AcquiredNtNtNtBP_2io5error5ErrorEEECseYC8vFNOjrM_2cc, symObjAddr: 0x2640, symBinAddr: 0x100075870, symSize: 0x40 }
  - { offset: 0xDE07C, size: 0x8, addend: 0x0, symName: __RINvNtCsieiGu2EXtoJ_4core3ptr13drop_in_placeINtNtNtNtCsHUR1vrdMJt_3std4sync4mpmc7counter7CounterINtNtBL_4list7ChannelINtNtB4_6result6ResultNtCslzRnRZxZnvp_9jobserver8AcquiredNtNtNtBP_2io5error5ErrorEEEECseYC8vFNOjrM_2cc, symObjAddr: 0x2680, symBinAddr: 0x1000758B0, symSize: 0x20 }
  - { offset: 0xDE0AB, size: 0x8, addend: 0x0, symName: __RINvNtCsieiGu2EXtoJ_4core3ptr13drop_in_placeINtNtNtNtCsHUR1vrdMJt_3std4sync4mpmc7counter7CounterINtNtBL_4zero7ChannelINtNtB4_6result6ResultNtCslzRnRZxZnvp_9jobserver8AcquiredNtNtNtBP_2io5error5ErrorEEEECseYC8vFNOjrM_2cc, symObjAddr: 0x26A0, symBinAddr: 0x1000758D0, symSize: 0x20 }
  - { offset: 0xDE0DA, size: 0x8, addend: 0x0, symName: __RINvNtCsieiGu2EXtoJ_4core3ptr13drop_in_placeINtNtNtNtCsHUR1vrdMJt_3std4sync4mpmc7counter7CounterINtNtBL_5array7ChannelINtNtB4_6result6ResultNtCslzRnRZxZnvp_9jobserver8AcquiredNtNtNtBP_2io5error5ErrorEEEECseYC8vFNOjrM_2cc, symObjAddr: 0x26C0, symBinAddr: 0x1000758F0, symSize: 0x20 }
  - { offset: 0xDE109, size: 0x8, addend: 0x0, symName: __RINvNtCsieiGu2EXtoJ_4core3ptr13drop_in_placeINtNtNtNtCsHUR1vrdMJt_3std4sync6poison5mutex10MutexGuardNtNtNtBN_4mpmc4zero5InnerEECseYC8vFNOjrM_2cc, symObjAddr: 0x26E0, symBinAddr: 0x100075910, symSize: 0x20 }
  - { offset: 0xDE138, size: 0x8, addend: 0x0, symName: __RINvNtCsieiGu2EXtoJ_4core3ptr13drop_in_placeINtNtNtNtCsHUR1vrdMJt_3std4sync6poison5mutex10MutexGuardNtNtNtBN_4mpmc5waker5WakerEECseYC8vFNOjrM_2cc, symObjAddr: 0x2700, symBinAddr: 0x100075930, symSize: 0x20 }
  - { offset: 0xDE167, size: 0x8, addend: 0x0, symName: __RINvNtCsieiGu2EXtoJ_4core3ptr13drop_in_placeINtNtNtNtCsHUR1vrdMJt_3std4sync6poison5mutex10MutexGuardbEECseYC8vFNOjrM_2cc, symObjAddr: 0x2720, symBinAddr: 0x100075950, symSize: 0x20 }
  - { offset: 0xDE196, size: 0x8, addend: 0x0, symName: __RINvNtCsieiGu2EXtoJ_4core3ptr13drop_in_placeINtNtNtNtCsHUR1vrdMJt_3std4sync6poison5mutex5MutexNtNtNtBN_4mpmc4zero5InnerEECseYC8vFNOjrM_2cc, symObjAddr: 0x2740, symBinAddr: 0x100075970, symSize: 0x60 }
  - { offset: 0xDE1C5, size: 0x8, addend: 0x0, symName: __RINvNtCsieiGu2EXtoJ_4core3ptr13drop_in_placeINtNtNtNtCsHUR1vrdMJt_3std4sync6poison5mutex5MutexNtNtNtBN_4mpmc5waker5WakerEECseYC8vFNOjrM_2cc, symObjAddr: 0x27A0, symBinAddr: 0x1000759D0, symSize: 0x60 }
  - { offset: 0xDE1F4, size: 0x8, addend: 0x0, symName: __RINvNtCsieiGu2EXtoJ_4core3ptr13drop_in_placeINtNtNtNtCsHUR1vrdMJt_3std4sync6poison6rwlock15RwLockReadGuardINtNtNtNtBP_11collections4hash3map7HashMapINtNtCslJiobkLta79_5alloc5boxed3BoxSIB2n_NtNtNtBP_3ffi6os_str5OsStrEENtNtCseYC8vFNOjrM_2cc4tool10ToolFamilyEEEB3x_, symObjAddr: 0x2820, symBinAddr: 0x100075A30, symSize: 0x20 }
  - { offset: 0xDE223, size: 0x8, addend: 0x0, symName: __RINvNtCsieiGu2EXtoJ_4core3ptr13drop_in_placeINtNtNtNtCsHUR1vrdMJt_3std4sync6poison6rwlock15RwLockReadGuardINtNtNtNtBP_11collections4hash3map7HashMapINtNtCslJiobkLta79_5alloc5boxed3BoxeEINtNtB2r_4sync3ArcNtNtNtBP_3ffi6os_str5OsStrEEEECseYC8vFNOjrM_2cc, symObjAddr: 0x2840, symBinAddr: 0x100075A50, symSize: 0x20 }
  - { offset: 0xDE252, size: 0x8, addend: 0x0, symName: __RINvNtCsieiGu2EXtoJ_4core3ptr13drop_in_placeINtNtNtNtCsHUR1vrdMJt_3std4sync6poison6rwlock15RwLockReadGuardINtNtNtNtBP_11collections4hash3map7HashMapINtNtCslJiobkLta79_5alloc5boxed3BoxeEINtNtB2r_4sync3ArceEEEECseYC8vFNOjrM_2cc, symObjAddr: 0x2860, symBinAddr: 0x100075A70, symSize: 0x20 }
  - { offset: 0xDE281, size: 0x8, addend: 0x0, symName: __RINvNtCsieiGu2EXtoJ_4core3ptr13drop_in_placeINtNtNtNtCsHUR1vrdMJt_3std4sync6poison6rwlock15RwLockReadGuardINtNtNtNtBP_11collections4hash3map7HashMapINtNtCslJiobkLta79_5alloc5boxed3BoxeEINtNtB4_6option6OptionINtNtB2r_4sync3ArcNtNtNtBP_3ffi6os_str5OsStrEEEEECseYC8vFNOjrM_2cc, symObjAddr: 0x2880, symBinAddr: 0x100075A90, symSize: 0x20 }
  - { offset: 0xDE2B0, size: 0x8, addend: 0x0, symName: __RINvNtCsieiGu2EXtoJ_4core3ptr13drop_in_placeINtNtNtNtCsHUR1vrdMJt_3std4sync6poison6rwlock15RwLockReadGuardINtNtNtNtBP_11collections4hash3map7HashMapNtCseYC8vFNOjrM_2cc12CompilerFlagbEEEB2o_, symObjAddr: 0x28A0, symBinAddr: 0x100075AB0, symSize: 0x20 }
  - { offset: 0xDE2DF, size: 0x8, addend: 0x0, symName: __RINvNtCsieiGu2EXtoJ_4core3ptr13drop_in_placeINtNtNtNtCsHUR1vrdMJt_3std4sync6poison6rwlock16RwLockWriteGuardINtNtNtNtBP_11collections4hash3map7HashMapINtNtCslJiobkLta79_5alloc5boxed3BoxSIB2o_NtNtNtBP_3ffi6os_str5OsStrEENtNtCseYC8vFNOjrM_2cc4tool10ToolFamilyEEEB3y_, symObjAddr: 0x28C0, symBinAddr: 0x100075AD0, symSize: 0x20 }
  - { offset: 0xDE30E, size: 0x8, addend: 0x0, symName: __RINvNtCsieiGu2EXtoJ_4core3ptr13drop_in_placeINtNtNtNtCsHUR1vrdMJt_3std4sync6poison6rwlock16RwLockWriteGuardINtNtNtNtBP_11collections4hash3map7HashMapINtNtCslJiobkLta79_5alloc5boxed3BoxeEINtNtB2s_4sync3ArcNtNtNtBP_3ffi6os_str5OsStrEEEECseYC8vFNOjrM_2cc, symObjAddr: 0x28E0, symBinAddr: 0x100075AF0, symSize: 0x20 }
  - { offset: 0xDE33D, size: 0x8, addend: 0x0, symName: __RINvNtCsieiGu2EXtoJ_4core3ptr13drop_in_placeINtNtNtNtCsHUR1vrdMJt_3std4sync6poison6rwlock16RwLockWriteGuardINtNtNtNtBP_11collections4hash3map7HashMapINtNtCslJiobkLta79_5alloc5boxed3BoxeEINtNtB2s_4sync3ArceEEEECseYC8vFNOjrM_2cc, symObjAddr: 0x2900, symBinAddr: 0x100075B10, symSize: 0x20 }
  - { offset: 0xDE36C, size: 0x8, addend: 0x0, symName: __RINvNtCsieiGu2EXtoJ_4core3ptr13drop_in_placeINtNtNtNtCsHUR1vrdMJt_3std4sync6poison6rwlock16RwLockWriteGuardINtNtNtNtBP_11collections4hash3map7HashMapINtNtCslJiobkLta79_5alloc5boxed3BoxeEINtNtB4_6option6OptionINtNtB2s_4sync3ArcNtNtNtBP_3ffi6os_str5OsStrEEEEECseYC8vFNOjrM_2cc, symObjAddr: 0x2920, symBinAddr: 0x100075B30, symSize: 0x20 }
  - { offset: 0xDE39B, size: 0x8, addend: 0x0, symName: __RINvNtCsieiGu2EXtoJ_4core3ptr13drop_in_placeINtNtNtNtCsHUR1vrdMJt_3std4sync6poison6rwlock16RwLockWriteGuardINtNtNtNtBP_11collections4hash3map7HashMapNtCseYC8vFNOjrM_2cc12CompilerFlagbEEEB2p_, symObjAddr: 0x2940, symBinAddr: 0x100075B50, symSize: 0x20 }
  - { offset: 0xDE3CA, size: 0x8, addend: 0x0, symName: __RINvNtCsieiGu2EXtoJ_4core3ptr13drop_in_placeINtNtNtNtCsHUR1vrdMJt_3std4sync6poison6rwlock6RwLockINtNtNtNtBP_11collections4hash3map7HashMapINtNtCslJiobkLta79_5alloc5boxed3BoxSIB2d_NtNtNtBP_3ffi6os_str5OsStrEENtNtCseYC8vFNOjrM_2cc4tool10ToolFamilyEEEB3n_, symObjAddr: 0x2960, symBinAddr: 0x100075B70, symSize: 0x20 }
  - { offset: 0xDE3F9, size: 0x8, addend: 0x0, symName: __RINvNtCsieiGu2EXtoJ_4core3ptr13drop_in_placeINtNtNtNtCsHUR1vrdMJt_3std4sync6poison6rwlock6RwLockINtNtNtNtBP_11collections4hash3map7HashMapINtNtCslJiobkLta79_5alloc5boxed3BoxeEINtNtB2h_4sync3ArcNtNtNtBP_3ffi6os_str5OsStrEEEECseYC8vFNOjrM_2cc, symObjAddr: 0x2980, symBinAddr: 0x100075B90, symSize: 0x20 }
  - { offset: 0xDE428, size: 0x8, addend: 0x0, symName: __RINvNtCsieiGu2EXtoJ_4core3ptr13drop_in_placeINtNtNtNtCsHUR1vrdMJt_3std4sync6poison6rwlock6RwLockINtNtNtNtBP_11collections4hash3map7HashMapINtNtCslJiobkLta79_5alloc5boxed3BoxeEINtNtB2h_4sync3ArceEEEECseYC8vFNOjrM_2cc, symObjAddr: 0x29A0, symBinAddr: 0x100075BB0, symSize: 0x20 }
  - { offset: 0xDE457, size: 0x8, addend: 0x0, symName: __RINvNtCsieiGu2EXtoJ_4core3ptr13drop_in_placeINtNtNtNtCsHUR1vrdMJt_3std4sync6poison6rwlock6RwLockINtNtNtNtBP_11collections4hash3map7HashMapINtNtCslJiobkLta79_5alloc5boxed3BoxeEINtNtB4_6option6OptionINtNtB2h_4sync3ArcNtNtNtBP_3ffi6os_str5OsStrEEEEECseYC8vFNOjrM_2cc, symObjAddr: 0x29C0, symBinAddr: 0x100075BD0, symSize: 0x20 }
  - { offset: 0xDE486, size: 0x8, addend: 0x0, symName: __RINvNtCsieiGu2EXtoJ_4core3ptr13drop_in_placeINtNtNtNtCsHUR1vrdMJt_3std4sync6poison6rwlock6RwLockINtNtNtNtBP_11collections4hash3map7HashMapNtCseYC8vFNOjrM_2cc12CompilerFlagbEEEB2e_, symObjAddr: 0x29E0, symBinAddr: 0x100075BF0, symSize: 0x20 }
  - { offset: 0xDE4B5, size: 0x8, addend: 0x0, symName: __RINvNtCsieiGu2EXtoJ_4core3ptr13drop_in_placeINtNvMs_NtCslJiobkLta79_5alloc3vecINtBO_3VecppE10retain_mut15BackshiftOnDropTNtNtCsHUR1vrdMJt_3std7process7CommandNtNtNtCseYC8vFNOjrM_2cc8parallel14command_runner10KillOnDropNtNtB2A_9job_token8JobTokenENtNtBQ_5alloc6GlobalEEB2C_, symObjAddr: 0x2A20, symBinAddr: 0x100075C10, symSize: 0x20 }
  - { offset: 0xDE4E4, size: 0x8, addend: 0x0, symName: __RINvNtCsieiGu2EXtoJ_4core3ptr13drop_in_placeINtNvNtCsHUR1vrdMJt_3std2io17default_write_fmt7AdapterINtNtNtBL_8buffered9bufwriter9BufWriterNtNtBL_5stdio6StdoutEEECseYC8vFNOjrM_2cc, symObjAddr: 0x2A60, symBinAddr: 0x100075C30, symSize: 0x20 }
  - { offset: 0xDE513, size: 0x8, addend: 0x0, symName: __RINvNtCsieiGu2EXtoJ_4core3ptr13drop_in_placeINtNvNtCsHUR1vrdMJt_3std2io17default_write_fmt7AdapterNtNtBN_2fs4FileEECseYC8vFNOjrM_2cc, symObjAddr: 0x2A80, symBinAddr: 0x100075C50, symSize: 0x20 }
  - { offset: 0xDE542, size: 0x8, addend: 0x0, symName: __RINvNtCsieiGu2EXtoJ_4core3ptr13drop_in_placeINtNvXNvMNtCslJiobkLta79_5alloc5sliceSp9to_vec_inpNtBM_10ConvertVec6to_vec9DropGuardNtNtBR_6string6StringNtNtBR_5alloc6GlobalEECseYC8vFNOjrM_2cc, symObjAddr: 0x2AA0, symBinAddr: 0x100075C70, symSize: 0x20 }
  - { offset: 0xDE571, size: 0x8, addend: 0x0, symName: __RINvNtCsieiGu2EXtoJ_4core3ptr13drop_in_placeINtNvXNvMNtCslJiobkLta79_5alloc5sliceSp9to_vec_inpNtBM_10ConvertVec6to_vec9DropGuardNtNtNtCsHUR1vrdMJt_3std3ffi6os_str8OsStringNtNtBR_5alloc6GlobalEECseYC8vFNOjrM_2cc, symObjAddr: 0x2AC0, symBinAddr: 0x100075C90, symSize: 0x20 }
  - { offset: 0xDE5A0, size: 0x8, addend: 0x0, symName: __RINvNtCsieiGu2EXtoJ_4core3ptr13drop_in_placeINtNvXNvMNtCslJiobkLta79_5alloc5sliceSp9to_vec_inpNtBM_10ConvertVec6to_vec9DropGuardTNtNtNtCsHUR1vrdMJt_3std3ffi6os_str8OsStringB23_ENtNtBR_5alloc6GlobalEECseYC8vFNOjrM_2cc, symObjAddr: 0x2AE0, symBinAddr: 0x100075CB0, symSize: 0x20 }
  - { offset: 0xDE5CF, size: 0x8, addend: 0x0, symName: __RINvNtCsieiGu2EXtoJ_4core3ptr13drop_in_placeINtNvXs5_NtNtCslJiobkLta79_5alloc3vec5drainINtBP_5DrainppENtNtNtB4_3ops4drop4Drop4drop9DropGuardNtNtNtNtCsHUR1vrdMJt_3std4sync4mpmc5waker5EntryNtNtBT_5alloc6GlobalEECseYC8vFNOjrM_2cc, symObjAddr: 0x2B00, symBinAddr: 0x100075CD0, symSize: 0x20 }
  - { offset: 0xDE5FE, size: 0x8, addend: 0x0, symName: __RINvNtCsieiGu2EXtoJ_4core3ptr13drop_in_placeINtNvXsd_NtNtCslJiobkLta79_5alloc3vec9into_iterINtBP_8IntoIterppENtNtNtB4_3ops4drop4Drop4drop9DropGuardNtNtBT_6string6StringNtNtBT_5alloc6GlobalEECseYC8vFNOjrM_2cc, symObjAddr: 0x2B40, symBinAddr: 0x100075CF0, symSize: 0x20 }
  - { offset: 0xDE62D, size: 0x8, addend: 0x0, symName: __RINvNtCsieiGu2EXtoJ_4core3ptr13drop_in_placeNCINvMNtNtB4_3ops9try_traitINtBM_17NeverShortCircuituE10wrap_mut_2uNtNtNtCsHUR1vrdMJt_3std3ffi6os_str8OsStringNCINvNvNtNtNtNtB4_4iter6traits8iterator8Iterator8for_each4callB1L_NCINvMsi_NtCslJiobkLta79_5alloc3vecINtB3F_3VecB1L_E14extend_trustedINtNtNtB4_5array4iter8IntoIterB1L_Kj6_EE0E0E0ECseYC8vFNOjrM_2cc, symObjAddr: 0x2B60, symBinAddr: 0x100075D10, symSize: 0x20 }
  - { offset: 0xDE65C, size: 0x8, addend: 0x0, symName: __RINvNtCsieiGu2EXtoJ_4core3ptr13drop_in_placeNCINvMs6_NtNtNtB4_5array4iter10iter_innerINtBP_15PolymorphicIterSINtNtNtB4_3mem12maybe_uninit11MaybeUninitNtNtNtCsHUR1vrdMJt_3std3ffi6os_str8OsStringEE8try_folduNCINvMNtNtB4_3ops9try_traitINtB3n_17NeverShortCircuituE10wrap_mut_2uB2o_NCINvNvNtNtNtNtB4_4iter6traits8iterator8Iterator8for_each4callB2o_NCINvMsi_NtCslJiobkLta79_5alloc3vecINtB5E_3VecB2o_E14extend_trustedINtBR_8IntoIterB2o_Kj6_EE0E0E0B3I_E0ECseYC8vFNOjrM_2cc, symObjAddr: 0x2B80, symBinAddr: 0x100075D30, symSize: 0x20 }
  - { offset: 0xDE68B, size: 0x8, addend: 0x0, symName: __RINvNtCsieiGu2EXtoJ_4core3ptr13drop_in_placeNCINvMsi_NtCslJiobkLta79_5alloc3vecINtBP_3VecINtNtBR_5boxed3BoxNtNtNtCsHUR1vrdMJt_3std3ffi6os_str5OsStrEE14extend_trustedINtNtNtNtB4_4iter8adapters3map3MapINtNtB2I_5chain5ChainINtNtB2I_6cloned6ClonedINtNtNtB4_5slice4iter4IterRB1H_EEIB2E_IB3U_NtNtBR_6string6StringEINvMsl_B1J_B1H_3newB4A_EEENvYB4j_INtNtB4_7convert4IntoB1p_E4intoEE0ECseYC8vFNOjrM_2cc, symObjAddr: 0x2BC0, symBinAddr: 0x100075D50, symSize: 0x20 }
  - { offset: 0xDE6BA, size: 0x8, addend: 0x0, symName: __RINvNtCsieiGu2EXtoJ_4core3ptr13drop_in_placeNCINvMsi_NtCslJiobkLta79_5alloc3vecINtBP_3VecNtNtNtCsHUR1vrdMJt_3std3ffi6os_str8OsStringE14extend_trustedINtNtNtB4_5array4iter8IntoIterB1p_Kj6_EE0ECseYC8vFNOjrM_2cc, symObjAddr: 0x2BE0, symBinAddr: 0x100075D70, symSize: 0x20 }
  - { offset: 0xDE6E9, size: 0x8, addend: 0x0, symName: __RINvNtCsieiGu2EXtoJ_4core3ptr13drop_in_placeNCINvMsi_NtCslJiobkLta79_5alloc3vecINtBP_3VecRNtNtCsHUR1vrdMJt_3std4path4PathE14extend_trustedINtNtNtNtB4_4iter8adapters5chain5ChainINtNtB2h_3map3MapINtNtNtB4_5slice4iter4IterNtCseYC8vFNOjrM_2cc6ObjectENCNvMs4_B3x_NtB3x_5Build8assemble0EIB2P_IB36_INtNtBR_4sync3ArcB1q_EENvYB4F_NtNtNtB4_3ops5deref5Deref5derefEEE0EB3x_, symObjAddr: 0x2C00, symBinAddr: 0x100075D90, symSize: 0x20 }
  - { offset: 0xDE718, size: 0x8, addend: 0x0, symName: __RINvNtCsieiGu2EXtoJ_4core3ptr13drop_in_placeNCINvMsi_NtCslJiobkLta79_5alloc3vecINtBP_3VecTNtNtNtCsHUR1vrdMJt_3std3ffi6os_str8OsStringB1q_EE14extend_trustedINtNtNtNtB4_4iter8adapters3map3MapINtNtNtB4_5slice4iter4IterB1p_ENCNvMNtCseYC8vFNOjrM_2cc4toolNtB3B_4Tool20from_find_msvc_tools0EE0EB3D_, symObjAddr: 0x2C20, symBinAddr: 0x100075DB0, symSize: 0x20 }
  - { offset: 0xDE747, size: 0x8, addend: 0x0, symName: __RINvNtCsieiGu2EXtoJ_4core3ptr13drop_in_placeNCINvMsi_NtCslJiobkLta79_5alloc3vecINtBP_3VechE14extend_trustedINtNtNtNtB4_4iter8adapters3map3MapINtNtNtB4_5slice4iter4IterhENCNvNtBR_3str13replace_ascii0EE0ECseYC8vFNOjrM_2cc, symObjAddr: 0x2C40, symBinAddr: 0x100075DD0, symSize: 0x20 }
  - { offset: 0xDE776, size: 0x8, addend: 0x0, symName: __RINvNtCsieiGu2EXtoJ_4core3ptr13drop_in_placeNCINvNtNtNtB4_4iter8adapters3map8map_foldRINtNtCslJiobkLta79_5alloc4sync3ArcNtNtCsHUR1vrdMJt_3std4path4PathERB1U_uNvYB1m_NtNtNtB4_3ops5deref5Deref5derefNCINvNvNtNtNtBP_6traits8iterator8Iterator8for_each4callB2q_NCINvMsi_NtB1r_3vecINtB4e_3VecB2q_E14extend_trustedINtNtBN_5chain5ChainINtBL_3MapINtNtNtB4_5slice4iter4IterNtCseYC8vFNOjrM_2cc6ObjectENCNvMs4_B5Q_NtB5Q_5Build8assemble0EIB5f_IB5p_B1m_EB2w_EEE0E0E0EB5Q_, symObjAddr: 0x2C80, symBinAddr: 0x100075DF0, symSize: 0x20 }
  - { offset: 0xDE7A5, size: 0x8, addend: 0x0, symName: __RINvNtCsieiGu2EXtoJ_4core3ptr13drop_in_placeNCINvNtNtNtB4_4iter8adapters3map8map_foldRNtNtCslJiobkLta79_5alloc6string6StringRNtNtNtCsHUR1vrdMJt_3std3ffi6os_str5OsStruINvMsl_B21_B1Z_3newB1m_ENCIBJ_B1Y_INtNtB1q_5boxed3BoxB1Z_EuNvYB1Y_INtNtB4_7convert4IntoB3c_E4intoNCINvNvNtNtNtBP_6traits8iterator8Iterator8for_each4callB3c_NCINvMsi_NtB1q_3vecINtB5j_3VecB3c_E14extend_trustedINtBL_3MapINtNtBN_5chain5ChainINtNtBN_6cloned6ClonedINtNtNtB4_5slice4iter4IterB1Y_EEIB60_IB6Q_B1m_EB2E_EEB3B_EE0E0E0E0ECseYC8vFNOjrM_2cc, symObjAddr: 0x2CA0, symBinAddr: 0x100075E10, symSize: 0x20 }
  - { offset: 0xDE7D4, size: 0x8, addend: 0x0, symName: __RINvNtCsieiGu2EXtoJ_4core3ptr13drop_in_placeNCINvNtNtNtB4_4iter8adapters3map8map_foldRNtNtNtCsHUR1vrdMJt_3std3ffi6os_str5OsStrINtNtCslJiobkLta79_5alloc5boxed3BoxB1m_EuNvYB1l_INtNtB4_7convert4IntoB20_E4intoNCINvNvNtNtNtBP_6traits8iterator8Iterator8for_each4callB20_NCINvMsi_NtB25_3vecINtB4n_3VecB20_E14extend_trustedINtBL_3MapINtNtBN_5chain5ChainINtNtBN_6cloned6ClonedINtNtNtB4_5slice4iter4IterB1l_EEIB54_IB5U_NtNtB25_6string6StringEINvMsl_B1o_B1m_3newB6z_EEEB2F_EE0E0E0ECseYC8vFNOjrM_2cc, symObjAddr: 0x2CC0, symBinAddr: 0x100075E30, symSize: 0x20 }
  - { offset: 0xDE803, size: 0x8, addend: 0x0, symName: __RINvNtCsieiGu2EXtoJ_4core3ptr13drop_in_placeNCINvNtNtNtB4_4iter8adapters3map8map_foldRTNtNtNtCsHUR1vrdMJt_3std3ffi6os_str8OsStringB1n_EB1m_uNCNvMNtCseYC8vFNOjrM_2cc4toolNtB2j_4Tool20from_find_msvc_tools0NCINvNvNtNtNtBP_6traits8iterator8Iterator8for_each4callB1m_NCINvMsi_NtCslJiobkLta79_5alloc3vecINtB4l_3VecB1m_E14extend_trustedINtBL_3MapINtNtNtB4_5slice4iter4IterB1m_EB2e_EE0E0E0EB2l_, symObjAddr: 0x2CE0, symBinAddr: 0x100075E50, symSize: 0x20 }
  - { offset: 0xDE832, size: 0x8, addend: 0x0, symName: __RINvNtCsieiGu2EXtoJ_4core3ptr13drop_in_placeNCINvNtNtNtB4_4iter8adapters3map8map_foldRhhuNCNvNtCslJiobkLta79_5alloc3str13replace_ascii0NCINvNvNtNtNtBP_6traits8iterator8Iterator8for_each4callhNCINvMsi_NtB1v_3vecINtB3c_3VechE14extend_trustedINtBL_3MapINtNtNtB4_5slice4iter4IterhEB1p_EE0E0E0ECseYC8vFNOjrM_2cc, symObjAddr: 0x2D00, symBinAddr: 0x100075E70, symSize: 0x20 }
  - { offset: 0xDE861, size: 0x8, addend: 0x0, symName: __RINvNtCsieiGu2EXtoJ_4core3ptr13drop_in_placeNCINvNvNtNtNtNtB4_4iter6traits8iterator8Iterator8for_each4callINtNtCslJiobkLta79_5alloc5boxed3BoxNtNtNtCsHUR1vrdMJt_3std3ffi6os_str5OsStrENCINvMsi_NtB1L_3vecINtB33_3VecB1G_E14extend_trustedINtNtNtBT_8adapters3map3MapINtNtB3O_5chain5ChainINtNtB3O_6cloned6ClonedINtNtNtB4_5slice4iter4IterRB2f_EEIB3K_IB4T_NtNtB1L_6string6StringEINvMsl_B2h_B2f_3newB5z_EEENvYB5i_INtNtB4_7convert4IntoB1G_E4intoEE0E0ECseYC8vFNOjrM_2cc, symObjAddr: 0x2D40, symBinAddr: 0x100075E90, symSize: 0x20 }
  - { offset: 0xDE890, size: 0x8, addend: 0x0, symName: __RINvNtCsieiGu2EXtoJ_4core3ptr13drop_in_placeNCINvNvNtNtNtNtB4_4iter6traits8iterator8Iterator8for_each4callNtNtNtCsHUR1vrdMJt_3std3ffi6os_str8OsStringNCINvMsi_NtCslJiobkLta79_5alloc3vecINtB2w_3VecB1G_E14extend_trustedINtNtNtB4_5array4iter8IntoIterB1G_Kj6_EE0E0ECseYC8vFNOjrM_2cc, symObjAddr: 0x2D60, symBinAddr: 0x100075EB0, symSize: 0x20 }
